
tests/part2-test6.elf:     file format elf32-littlearm


Disassembly of section .text:

00008000 <__code_start__>:
    8000:	e3a00013 	mov	r0, #19, 0
    8004:	e3800080 	orr	r0, r0, #128, 0	; 0x80
    8008:	e129f000 	msr	CPSR_fc, r0
    800c:	e3a01000 	mov	r1, #0, 0
    8010:	ee071f95 	mcr	15, 0, r1, cr7, cr5, {4}
    8014:	e3a0d302 	mov	sp, #134217728	; 0x8000000
    8018:	e3a0b000 	mov	fp, #0, 0
    801c:	eb000596 	bl	967c <_cstart>
    8020:	eb0005df 	bl	97a4 <rpi_reboot>

00008024 <PUT32>:
    8024:	e5801000 	str	r1, [r0]
    8028:	e12fff1e 	bx	lr

0000802c <GET32>:
    802c:	e5900000 	ldr	r0, [r0]
    8030:	e12fff1e 	bx	lr

00008034 <BRANCHTO>:
    8034:	e12fff10 	bx	r0

00008038 <test1>:
    8038:	e92d4010 	push	{r4, lr}
    803c:	e24dd010 	sub	sp, sp, #16, 0
    8040:	e59f304c 	ldr	r3, [pc, #76]	; 8094 <test1+0x5c>
    8044:	e58d3004 	str	r3, [sp, #4]
    8048:	e59f3048 	ldr	r3, [pc, #72]	; 8098 <test1+0x60>
    804c:	e58d3008 	str	r3, [sp, #8]
    8050:	e3a03007 	mov	r3, #7, 0
    8054:	e58d300c 	str	r3, [sp, #12]
    8058:	e28d3010 	add	r3, sp, #16, 0
    805c:	e913000e 	ldmdb	r3, {r1, r2, r3}
    8060:	e3a00004 	mov	r0, #4, 0
    8064:	eb0000c8 	bl	838c <ckalloc>
    8068:	e1a04000 	mov	r4, r0
    806c:	e1a01000 	mov	r1, r0
    8070:	e59f0024 	ldr	r0, [pc, #36]	; 809c <test1+0x64>
    8074:	eb0002e4 	bl	8c0c <printk>
    8078:	e3a02004 	mov	r2, #4, 0
    807c:	e3a01000 	mov	r1, #0, 0
    8080:	e1a00004 	mov	r0, r4
    8084:	eb0002c2 	bl	8b94 <memset>
    8088:	e2840001 	add	r0, r4, #1, 0
    808c:	e28dd010 	add	sp, sp, #16, 0
    8090:	e8bd8010 	pop	{r4, pc}
    8094:	0000a168 	andeq	sl, r0, r8, ror #2
    8098:	0000a24c 	andeq	sl, r0, ip, asr #4
    809c:	0000a17c 	andeq	sl, r0, ip, ror r1

000080a0 <notmain>:
    80a0:	e92d4010 	push	{r4, lr}
    80a4:	e59f006c 	ldr	r0, [pc, #108]	; 8118 <notmain+0x78>
    80a8:	eb0002d7 	bl	8c0c <printk>
    80ac:	ebffffe1 	bl	8038 <test1>
    80b0:	e1a01000 	mov	r1, r0
    80b4:	e59f0060 	ldr	r0, [pc, #96]	; 811c <notmain+0x7c>
    80b8:	eb0002d3 	bl	8c0c <printk>
    80bc:	e3a00000 	mov	r0, #0, 0
    80c0:	eb000279 	bl	8aac <ck_find_leaks>
    80c4:	e3500000 	cmp	r0, #0, 0
    80c8:	1a000006 	bne	80e8 <notmain+0x48>
    80cc:	e3a00001 	mov	r0, #1, 0
    80d0:	eb000275 	bl	8aac <ck_find_leaks>
    80d4:	e3500000 	cmp	r0, #0, 0
    80d8:	0a000008 	beq	8100 <notmain+0x60>
    80dc:	e59f003c 	ldr	r0, [pc, #60]	; 8120 <notmain+0x80>
    80e0:	eb0002c9 	bl	8c0c <printk>
    80e4:	e8bd8010 	pop	{r4, pc}
    80e8:	e3a03017 	mov	r3, #23, 0
    80ec:	e59f2030 	ldr	r2, [pc, #48]	; 8124 <notmain+0x84>
    80f0:	e59f1030 	ldr	r1, [pc, #48]	; 8128 <notmain+0x88>
    80f4:	e59f0030 	ldr	r0, [pc, #48]	; 812c <notmain+0x8c>
    80f8:	eb0002c3 	bl	8c0c <printk>
    80fc:	eb000553 	bl	9650 <clean_reboot>
    8100:	e3a0301d 	mov	r3, #29, 0
    8104:	e59f2018 	ldr	r2, [pc, #24]	; 8124 <notmain+0x84>
    8108:	e59f1018 	ldr	r1, [pc, #24]	; 8128 <notmain+0x88>
    810c:	e59f001c 	ldr	r0, [pc, #28]	; 8130 <notmain+0x90>
    8110:	eb0002bd 	bl	8c0c <printk>
    8114:	eb00054d 	bl	9650 <clean_reboot>
    8118:	0000a198 	muleq	r0, r8, r1
    811c:	0000a1a4 	andeq	sl, r0, r4, lsr #3
    8120:	0000a1f0 	strdeq	sl, [r0], -r0
    8124:	0000a254 	andeq	sl, r0, r4, asr r2
    8128:	0000a168 	andeq	sl, r0, r8, ror #2
    812c:	0000a1c0 	andeq	sl, r0, r0, asr #3
    8130:	0000a218 	andeq	sl, r0, r8, lsl r2

00008134 <ck_first_hdr>:
    8134:	e59f3004 	ldr	r3, [pc, #4]	; 8140 <ck_first_hdr+0xc>
    8138:	e5930000 	ldr	r0, [r3]
    813c:	e12fff1e 	bx	lr
    8140:	0000aa40 	andeq	sl, r0, r0, asr #20

00008144 <ck_next_hdr>:
    8144:	e3500000 	cmp	r0, #0, 0
    8148:	012fff1e 	bxeq	lr
    814c:	e5900000 	ldr	r0, [r0]
    8150:	e12fff1e 	bx	lr

00008154 <list_remove>:
    8154:	e92d4030 	push	{r4, r5, lr}
    8158:	e24dd00c 	sub	sp, sp, #12, 0
    815c:	e2503000 	subs	r3, r0, #0, 0
    8160:	0a00000d 	beq	819c <list_remove+0x48>
    8164:	e1a04001 	mov	r4, r1
    8168:	e5930000 	ldr	r0, [r3]
    816c:	e1500001 	cmp	r0, r1
    8170:	0a000011 	beq	81bc <list_remove+0x68>
    8174:	e1a05000 	mov	r5, r0
    8178:	ebfffff1 	bl	8144 <ck_next_hdr>
    817c:	e3500000 	cmp	r0, #0, 0
    8180:	0a000010 	beq	81c8 <list_remove+0x74>
    8184:	e1540000 	cmp	r4, r0
    8188:	1afffff9 	bne	8174 <list_remove+0x20>
    818c:	e5903000 	ldr	r3, [r0]
    8190:	e5853000 	str	r3, [r5]
    8194:	e28dd00c 	add	sp, sp, #12, 0
    8198:	e8bd8030 	pop	{r4, r5, pc}
    819c:	e59f3040 	ldr	r3, [pc, #64]	; 81e4 <list_remove+0x90>
    81a0:	e58d3000 	str	r3, [sp]
    81a4:	e3a0303c 	mov	r3, #60, 0	; 0x3c
    81a8:	e59f2038 	ldr	r2, [pc, #56]	; 81e8 <list_remove+0x94>
    81ac:	e59f1038 	ldr	r1, [pc, #56]	; 81ec <list_remove+0x98>
    81b0:	e59f0038 	ldr	r0, [pc, #56]	; 81f0 <list_remove+0x9c>
    81b4:	eb000294 	bl	8c0c <printk>
    81b8:	eb000524 	bl	9650 <clean_reboot>
    81bc:	e5912000 	ldr	r2, [r1]
    81c0:	e5832000 	str	r2, [r3]
    81c4:	eafffff2 	b	8194 <list_remove+0x40>
    81c8:	e58d4000 	str	r4, [sp]
    81cc:	e3a0304f 	mov	r3, #79, 0	; 0x4f
    81d0:	e59f2010 	ldr	r2, [pc, #16]	; 81e8 <list_remove+0x94>
    81d4:	e59f1010 	ldr	r1, [pc, #16]	; 81ec <list_remove+0x98>
    81d8:	e59f0014 	ldr	r0, [pc, #20]	; 81f4 <list_remove+0xa0>
    81dc:	eb00028a 	bl	8c0c <printk>
    81e0:	eb00051a 	bl	9650 <clean_reboot>
    81e4:	0000a27c 	andeq	sl, r0, ip, ror r2
    81e8:	0000a340 	andeq	sl, r0, r0, asr #6
    81ec:	0000a25c 	andeq	sl, r0, ip, asr r2
    81f0:	0000a268 	andeq	sl, r0, r8, ror #4
    81f4:	0000a280 	andeq	sl, r0, r0, lsl #5

000081f8 <ck_hdr_start>:
    81f8:	e2800024 	add	r0, r0, #36, 0	; 0x24
    81fc:	e12fff1e 	bx	lr

00008200 <ck_hdr_end>:
    8200:	e92d4010 	push	{r4, lr}
    8204:	e1a04000 	mov	r4, r0
    8208:	ebfffffa 	bl	81f8 <ck_hdr_start>
    820c:	e5943004 	ldr	r3, [r4, #4]
    8210:	e0800003 	add	r0, r0, r3
    8214:	e8bd8010 	pop	{r4, pc}

00008218 <ck_ptr_in_block>:
    8218:	e92d4070 	push	{r4, r5, r6, lr}
    821c:	e1a06000 	mov	r6, r0
    8220:	e1a04001 	mov	r4, r1
    8224:	ebfffff3 	bl	81f8 <ck_hdr_start>
    8228:	e1a05000 	mov	r5, r0
    822c:	e1a00006 	mov	r0, r6
    8230:	ebfffff2 	bl	8200 <ck_hdr_end>
    8234:	e1550004 	cmp	r5, r4
    8238:	91540000 	cmpls	r4, r0
    823c:	33a00001 	movcc	r0, #1, 0
    8240:	23a00000 	movcs	r0, #0, 0
    8244:	e8bd8070 	pop	{r4, r5, r6, pc}

00008248 <ck_ptr_is_alloced>:
    8248:	e92d4070 	push	{r4, r5, r6, lr}
    824c:	e1a05000 	mov	r5, r0
    8250:	ebffffb7 	bl	8134 <ck_first_hdr>
    8254:	e1a04000 	mov	r4, r0
    8258:	e3540000 	cmp	r4, #0, 0
    825c:	0a00000c 	beq	8294 <ck_ptr_is_alloced+0x4c>
    8260:	e1a01005 	mov	r1, r5
    8264:	e1a00004 	mov	r0, r4
    8268:	ebffffea 	bl	8218 <ck_ptr_in_block>
    826c:	e3500000 	cmp	r0, #0, 0
    8270:	1a000003 	bne	8284 <ck_ptr_is_alloced+0x3c>
    8274:	e1a00004 	mov	r0, r4
    8278:	ebffffb1 	bl	8144 <ck_next_hdr>
    827c:	e1a04000 	mov	r4, r0
    8280:	eafffff4 	b	8258 <ck_ptr_is_alloced+0x10>
    8284:	e1a02004 	mov	r2, r4
    8288:	e1a01005 	mov	r1, r5
    828c:	e59f0008 	ldr	r0, [pc, #8]	; 829c <ck_ptr_is_alloced+0x54>
    8290:	eb00025d 	bl	8c0c <printk>
    8294:	e1a00004 	mov	r0, r4
    8298:	e8bd8070 	pop	{r4, r5, r6, pc}
    829c:	0000a2ac 	andeq	sl, r0, ip, lsr #5

000082a0 <ckfree>:
    82a0:	e92d41f0 	push	{r4, r5, r6, r7, r8, lr}
    82a4:	e24dd018 	sub	sp, sp, #24, 0
    82a8:	e1a04000 	mov	r4, r0
    82ac:	e28d0018 	add	r0, sp, #24, 0
    82b0:	e900000e 	stmdb	r0, {r1, r2, r3}
    82b4:	e59d600c 	ldr	r6, [sp, #12]
    82b8:	e59d7010 	ldr	r7, [sp, #16]
    82bc:	e59d8014 	ldr	r8, [sp, #20]
    82c0:	e1a03008 	mov	r3, r8
    82c4:	e1a02007 	mov	r2, r7
    82c8:	e1a01006 	mov	r1, r6
    82cc:	e59f0094 	ldr	r0, [pc, #148]	; 8368 <ckfree+0xc8>
    82d0:	eb00024d 	bl	8c0c <printk>
    82d4:	e1a01004 	mov	r1, r4
    82d8:	e59f008c 	ldr	r0, [pc, #140]	; 836c <ckfree+0xcc>
    82dc:	eb00024a 	bl	8c0c <printk>
    82e0:	e514301c 	ldr	r3, [r4, #-28]	; 0xffffffe4
    82e4:	e353000b 	cmp	r3, #11, 0
    82e8:	1a00000d 	bne	8324 <ckfree+0x84>
    82ec:	e2445024 	sub	r5, r4, #36, 0	; 0x24
    82f0:	e3a0300c 	mov	r3, #12, 0
    82f4:	e504301c 	str	r3, [r4, #-28]	; 0xffffffe4
    82f8:	e1a00004 	mov	r0, r4
    82fc:	ebffffd1 	bl	8248 <ck_ptr_is_alloced>
    8300:	e3500000 	cmp	r0, #0, 0
    8304:	0a00000f 	beq	8348 <ckfree+0xa8>
    8308:	e1a01005 	mov	r1, r5
    830c:	e59f005c 	ldr	r0, [pc, #92]	; 8370 <ckfree+0xd0>
    8310:	ebffff8f 	bl	8154 <list_remove>
    8314:	e1a00005 	mov	r0, r5
    8318:	eb00003f 	bl	841c <kr_free>
    831c:	e28dd018 	add	sp, sp, #24, 0
    8320:	e8bd81f0 	pop	{r4, r5, r6, r7, r8, pc}
    8324:	e1a03008 	mov	r3, r8
    8328:	e1a02007 	mov	r2, r7
    832c:	e1a01006 	mov	r1, r6
    8330:	e59f003c 	ldr	r0, [pc, #60]	; 8374 <ckfree+0xd4>
    8334:	eb000234 	bl	8c0c <printk>
    8338:	e514101c 	ldr	r1, [r4, #-28]	; 0xffffffe4
    833c:	e59f0034 	ldr	r0, [pc, #52]	; 8378 <ckfree+0xd8>
    8340:	eb000231 	bl	8c0c <printk>
    8344:	eb0004c1 	bl	9650 <clean_reboot>
    8348:	e59f302c 	ldr	r3, [pc, #44]	; 837c <ckfree+0xdc>
    834c:	e58d3000 	str	r3, [sp]
    8350:	e3a0305d 	mov	r3, #93, 0	; 0x5d
    8354:	e59f2024 	ldr	r2, [pc, #36]	; 8380 <ckfree+0xe0>
    8358:	e59f1024 	ldr	r1, [pc, #36]	; 8384 <ckfree+0xe4>
    835c:	e59f0024 	ldr	r0, [pc, #36]	; 8388 <ckfree+0xe8>
    8360:	eb000229 	bl	8c0c <printk>
    8364:	eb0004b9 	bl	9650 <clean_reboot>
    8368:	0000a2bc 			; <UNDEFINED> instruction: 0x0000a2bc
    836c:	0000a2c8 	andeq	sl, r0, r8, asr #5
    8370:	0000aa40 	andeq	sl, r0, r0, asr #20
    8374:	0000a2d8 	ldrdeq	sl, [r0], -r8
    8378:	0000a2f0 	strdeq	sl, [r0], -r0
    837c:	0000a318 	andeq	sl, r0, r8, lsl r3
    8380:	0000a34c 	andeq	sl, r0, ip, asr #6
    8384:	0000a25c 	andeq	sl, r0, ip, asr r2
    8388:	0000a268 	andeq	sl, r0, r8, ror #4

0000838c <ckalloc>:
    838c:	e92d4070 	push	{r4, r5, r6, lr}
    8390:	e24dd010 	sub	sp, sp, #16, 0
    8394:	e1a06000 	mov	r6, r0
    8398:	e28d5004 	add	r5, sp, #4, 0
    839c:	e885000e 	stm	r5, {r1, r2, r3}
    83a0:	e2800024 	add	r0, r0, #36, 0	; 0x24
    83a4:	eb00005c 	bl	851c <kr_malloc>
    83a8:	e1a04000 	mov	r4, r0
    83ac:	e3a02024 	mov	r2, #36, 0	; 0x24
    83b0:	e3a01000 	mov	r1, #0, 0
    83b4:	eb0001f6 	bl	8b94 <memset>
    83b8:	e5846004 	str	r6, [r4, #4]
    83bc:	e3a0300b 	mov	r3, #11, 0
    83c0:	e5843008 	str	r3, [r4, #8]
    83c4:	e284300c 	add	r3, r4, #12, 0
    83c8:	e8950007 	ldm	r5, {r0, r1, r2}
    83cc:	e8830007 	stm	r3, {r0, r1, r2}
    83d0:	e59d300c 	ldr	r3, [sp, #12]
    83d4:	e59d2008 	ldr	r2, [sp, #8]
    83d8:	e59d1004 	ldr	r1, [sp, #4]
    83dc:	e59f002c 	ldr	r0, [pc, #44]	; 8410 <ckalloc+0x84>
    83e0:	eb000209 	bl	8c0c <printk>
    83e4:	e2845024 	add	r5, r4, #36, 0	; 0x24
    83e8:	e1a01005 	mov	r1, r5
    83ec:	e59f0020 	ldr	r0, [pc, #32]	; 8414 <ckalloc+0x88>
    83f0:	eb000205 	bl	8c0c <printk>
    83f4:	e59f301c 	ldr	r3, [pc, #28]	; 8418 <ckalloc+0x8c>
    83f8:	e5932000 	ldr	r2, [r3]
    83fc:	e5842000 	str	r2, [r4]
    8400:	e5834000 	str	r4, [r3]
    8404:	e1a00005 	mov	r0, r5
    8408:	e28dd010 	add	sp, sp, #16, 0
    840c:	e8bd8070 	pop	{r4, r5, r6, pc}
    8410:	0000a2bc 			; <UNDEFINED> instruction: 0x0000a2bc
    8414:	0000a330 	andeq	sl, r0, r0, lsr r3
    8418:	0000aa40 	andeq	sl, r0, r0, asr #20

0000841c <kr_free>:
    841c:	e52de004 	push	{lr}		; (str lr, [sp, #-4]!)
    8420:	e2401008 	sub	r1, r0, #8, 0
    8424:	e59f30a8 	ldr	r3, [pc, #168]	; 84d4 <kr_free+0xb8>
    8428:	e5933000 	ldr	r3, [r3]
    842c:	ea000000 	b	8434 <kr_free+0x18>
    8430:	e1a03002 	mov	r3, r2
    8434:	e1530001 	cmp	r3, r1
    8438:	2a000002 	bcs	8448 <kr_free+0x2c>
    843c:	e5932000 	ldr	r2, [r3]
    8440:	e1520001 	cmp	r2, r1
    8444:	8a000007 	bhi	8468 <kr_free+0x4c>
    8448:	e5932000 	ldr	r2, [r3]
    844c:	e1520003 	cmp	r2, r3
    8450:	8afffff6 	bhi	8430 <kr_free+0x14>
    8454:	e1530001 	cmp	r3, r1
    8458:	3a000002 	bcc	8468 <kr_free+0x4c>
    845c:	e1520001 	cmp	r2, r1
    8460:	91a03002 	movls	r3, r2
    8464:	9afffff2 	bls	8434 <kr_free+0x18>
    8468:	e510c004 	ldr	ip, [r0, #-4]
    846c:	e081e18c 	add	lr, r1, ip, lsl #3
    8470:	e5932000 	ldr	r2, [r3]
    8474:	e15e0002 	cmp	lr, r2
    8478:	0a000008 	beq	84a0 <kr_free+0x84>
    847c:	e5002008 	str	r2, [r0, #-8]
    8480:	e5932004 	ldr	r2, [r3, #4]
    8484:	e083c182 	add	ip, r3, r2, lsl #3
    8488:	e15c0001 	cmp	ip, r1
    848c:	0a00000a 	beq	84bc <kr_free+0xa0>
    8490:	e5831000 	str	r1, [r3]
    8494:	e59f2038 	ldr	r2, [pc, #56]	; 84d4 <kr_free+0xb8>
    8498:	e5823000 	str	r3, [r2]
    849c:	e49df004 	pop	{pc}		; (ldr pc, [sp], #4)
    84a0:	e5922004 	ldr	r2, [r2, #4]
    84a4:	e08cc002 	add	ip, ip, r2
    84a8:	e500c004 	str	ip, [r0, #-4]
    84ac:	e5932000 	ldr	r2, [r3]
    84b0:	e5922000 	ldr	r2, [r2]
    84b4:	e5002008 	str	r2, [r0, #-8]
    84b8:	eafffff0 	b	8480 <kr_free+0x64>
    84bc:	e5101004 	ldr	r1, [r0, #-4]
    84c0:	e0822001 	add	r2, r2, r1
    84c4:	e5832004 	str	r2, [r3, #4]
    84c8:	e5102008 	ldr	r2, [r0, #-8]
    84cc:	e5832000 	str	r2, [r3]
    84d0:	eaffffef 	b	8494 <kr_free+0x78>
    84d4:	0000aa48 	andeq	sl, r0, r8, asr #20

000084d8 <morecore>:
    84d8:	e92d4010 	push	{r4, lr}
    84dc:	e1a04000 	mov	r4, r0
    84e0:	e3500b01 	cmp	r0, #1024	; 0x400
    84e4:	33a04b01 	movcc	r4, #1024	; 0x400
    84e8:	e1a00184 	lsl	r0, r4, #3
    84ec:	eb000145 	bl	8a08 <sbrk>
    84f0:	e3700001 	cmn	r0, #1, 0
    84f4:	0a000005 	beq	8510 <morecore+0x38>
    84f8:	e5804004 	str	r4, [r0, #4]
    84fc:	e2800008 	add	r0, r0, #8, 0
    8500:	ebffffc5 	bl	841c <kr_free>
    8504:	e59f300c 	ldr	r3, [pc, #12]	; 8518 <morecore+0x40>
    8508:	e5930000 	ldr	r0, [r3]
    850c:	e8bd8010 	pop	{r4, pc}
    8510:	e3a00000 	mov	r0, #0, 0
    8514:	e8bd8010 	pop	{r4, pc}
    8518:	0000aa48 	andeq	sl, r0, r8, asr #20

0000851c <kr_malloc>:
    851c:	e92d4010 	push	{r4, lr}
    8520:	e2804007 	add	r4, r0, #7, 0
    8524:	e1a041a4 	lsr	r4, r4, #3
    8528:	e2844001 	add	r4, r4, #1, 0
    852c:	e59f3090 	ldr	r3, [pc, #144]	; 85c4 <kr_malloc+0xa8>
    8530:	e5932000 	ldr	r2, [r3]
    8534:	e3520000 	cmp	r2, #0, 0
    8538:	0a000001 	beq	8544 <kr_malloc+0x28>
    853c:	e5920000 	ldr	r0, [r2]
    8540:	ea000013 	b	8594 <kr_malloc+0x78>
    8544:	e2832008 	add	r2, r3, #8, 0
    8548:	e5832000 	str	r2, [r3]
    854c:	e5832008 	str	r2, [r3, #8]
    8550:	e3a01000 	mov	r1, #0, 0
    8554:	e583100c 	str	r1, [r3, #12]
    8558:	eafffff7 	b	853c <kr_malloc+0x20>
    855c:	0a000007 	beq	8580 <kr_malloc+0x64>
    8560:	e0433004 	sub	r3, r3, r4
    8564:	e5803004 	str	r3, [r0, #4]
    8568:	e0800183 	add	r0, r0, r3, lsl #3
    856c:	e5804004 	str	r4, [r0, #4]
    8570:	e59f304c 	ldr	r3, [pc, #76]	; 85c4 <kr_malloc+0xa8>
    8574:	e5832000 	str	r2, [r3]
    8578:	e2800008 	add	r0, r0, #8, 0
    857c:	e8bd8010 	pop	{r4, pc}
    8580:	e5903000 	ldr	r3, [r0]
    8584:	e5823000 	str	r3, [r2]
    8588:	eafffff8 	b	8570 <kr_malloc+0x54>
    858c:	e1a02000 	mov	r2, r0
    8590:	e5900000 	ldr	r0, [r0]
    8594:	e5903004 	ldr	r3, [r0, #4]
    8598:	e1530004 	cmp	r3, r4
    859c:	2affffee 	bcs	855c <kr_malloc+0x40>
    85a0:	e59f301c 	ldr	r3, [pc, #28]	; 85c4 <kr_malloc+0xa8>
    85a4:	e5933000 	ldr	r3, [r3]
    85a8:	e1530000 	cmp	r3, r0
    85ac:	1afffff6 	bne	858c <kr_malloc+0x70>
    85b0:	e1a00004 	mov	r0, r4
    85b4:	ebffffc7 	bl	84d8 <morecore>
    85b8:	e3500000 	cmp	r0, #0, 0
    85bc:	1afffff2 	bne	858c <kr_malloc+0x70>
    85c0:	e8bd8010 	pop	{r4, pc}
    85c4:	0000aa48 	andeq	sl, r0, r8, asr #20

000085c8 <in_heap>:
    85c8:	e59f3030 	ldr	r3, [pc, #48]	; 8600 <in_heap+0x38>
    85cc:	e5933000 	ldr	r3, [r3]
    85d0:	e1530000 	cmp	r3, r0
    85d4:	8a000005 	bhi	85f0 <in_heap+0x28>
    85d8:	e59f3020 	ldr	r3, [pc, #32]	; 8600 <in_heap+0x38>
    85dc:	e5933004 	ldr	r3, [r3, #4]
    85e0:	e1530000 	cmp	r3, r0
    85e4:	9a000003 	bls	85f8 <in_heap+0x30>
    85e8:	e3a00001 	mov	r0, #1, 0
    85ec:	e12fff1e 	bx	lr
    85f0:	e3a00000 	mov	r0, #0, 0
    85f4:	e12fff1e 	bx	lr
    85f8:	e3a00000 	mov	r0, #0, 0
    85fc:	e12fff1e 	bx	lr
    8600:	0000aa58 	andeq	sl, r0, r8, asr sl

00008604 <is_ptr>:
    8604:	e92d4010 	push	{r4, lr}
    8608:	e1a04000 	mov	r4, r0
    860c:	ebffffed 	bl	85c8 <in_heap>
    8610:	e3500000 	cmp	r0, #0, 0
    8614:	0a000002 	beq	8624 <is_ptr+0x20>
    8618:	e1a00004 	mov	r0, r4
    861c:	ebffff09 	bl	8248 <ck_ptr_is_alloced>
    8620:	e8bd8010 	pop	{r4, pc}
    8624:	e3a00000 	mov	r0, #0, 0
    8628:	e8bd8010 	pop	{r4, pc}

0000862c <mark>:
    862c:	e92d41f0 	push	{r4, r5, r6, r7, r8, lr}
    8630:	e24dd008 	sub	sp, sp, #8, 0
    8634:	e1500001 	cmp	r0, r1
    8638:	2a00000d 	bcs	8674 <mark+0x48>
    863c:	e1a04000 	mov	r4, r0
    8640:	e1a06001 	mov	r6, r1
    8644:	e3100003 	tst	r0, #3, 0
    8648:	1a000011 	bne	8694 <mark+0x68>
    864c:	e3110003 	tst	r1, #3, 0
    8650:	0a00001f 	beq	86d4 <mark+0xa8>
    8654:	e59f3114 	ldr	r3, [pc, #276]	; 8770 <mark+0x144>
    8658:	e58d3000 	str	r3, [sp]
    865c:	e3a03056 	mov	r3, #86, 0	; 0x56
    8660:	e59f210c 	ldr	r2, [pc, #268]	; 8774 <mark+0x148>
    8664:	e59f110c 	ldr	r1, [pc, #268]	; 8778 <mark+0x14c>
    8668:	e59f010c 	ldr	r0, [pc, #268]	; 877c <mark+0x150>
    866c:	eb000166 	bl	8c0c <printk>
    8670:	eb0003f6 	bl	9650 <clean_reboot>
    8674:	e59f3104 	ldr	r3, [pc, #260]	; 8780 <mark+0x154>
    8678:	e58d3000 	str	r3, [sp]
    867c:	e3a03052 	mov	r3, #82, 0	; 0x52
    8680:	e59f20ec 	ldr	r2, [pc, #236]	; 8774 <mark+0x148>
    8684:	e59f10ec 	ldr	r1, [pc, #236]	; 8778 <mark+0x14c>
    8688:	e59f00ec 	ldr	r0, [pc, #236]	; 877c <mark+0x150>
    868c:	eb00015e 	bl	8c0c <printk>
    8690:	eb0003ee 	bl	9650 <clean_reboot>
    8694:	e59f30e8 	ldr	r3, [pc, #232]	; 8784 <mark+0x158>
    8698:	e58d3000 	str	r3, [sp]
    869c:	e3a03055 	mov	r3, #85, 0	; 0x55
    86a0:	e59f20cc 	ldr	r2, [pc, #204]	; 8774 <mark+0x148>
    86a4:	e59f10cc 	ldr	r1, [pc, #204]	; 8778 <mark+0x14c>
    86a8:	e59f00cc 	ldr	r0, [pc, #204]	; 877c <mark+0x150>
    86ac:	eb000156 	bl	8c0c <printk>
    86b0:	eb0003e6 	bl	9650 <clean_reboot>
    86b4:	e3a03002 	mov	r3, #2, 0
    86b8:	ea00001b 	b	872c <mark+0x100>
    86bc:	e3a01002 	mov	r1, #2, 0
    86c0:	e59f00c0 	ldr	r0, [pc, #192]	; 8788 <mark+0x15c>
    86c4:	eb000150 	bl	8c0c <printk>
    86c8:	e3580000 	cmp	r8, #0, 0
    86cc:	0a00001c 	beq	8744 <mark+0x118>
    86d0:	e2844004 	add	r4, r4, #4, 0
    86d4:	e1540006 	cmp	r4, r6
    86d8:	8a000022 	bhi	8768 <mark+0x13c>
    86dc:	e5940000 	ldr	r0, [r4]
    86e0:	ebffffc7 	bl	8604 <is_ptr>
    86e4:	e2505000 	subs	r5, r0, #0, 0
    86e8:	0afffff8 	beq	86d0 <mark+0xa4>
    86ec:	e2857024 	add	r7, r5, #36, 0	; 0x24
    86f0:	e1d582b0 	ldrh	r8, [r5, #32]
    86f4:	e1a00005 	mov	r0, r5
    86f8:	ebfffebe 	bl	81f8 <ck_hdr_start>
    86fc:	e1a01000 	mov	r1, r0
    8700:	e58d7000 	str	r7, [sp]
    8704:	e5943000 	ldr	r3, [r4]
    8708:	e1a02004 	mov	r2, r4
    870c:	e59f0078 	ldr	r0, [pc, #120]	; 878c <mark+0x160>
    8710:	eb00013d 	bl	8c0c <printk>
    8714:	e3580001 	cmp	r8, #1, 0
    8718:	8a00000f 	bhi	875c <mark+0x130>
    871c:	e5943000 	ldr	r3, [r4]
    8720:	e1530007 	cmp	r3, r7
    8724:	0affffe2 	beq	86b4 <mark+0x88>
    8728:	e3a03001 	mov	r3, #1, 0
    872c:	e1c532b0 	strh	r3, [r5, #32]
    8730:	e5943000 	ldr	r3, [r4]
    8734:	e1530007 	cmp	r3, r7
    8738:	0affffdf 	beq	86bc <mark+0x90>
    873c:	e3a01001 	mov	r1, #1, 0
    8740:	eaffffde 	b	86c0 <mark+0x94>
    8744:	e5951004 	ldr	r1, [r5, #4]
    8748:	e2811024 	add	r1, r1, #36, 0	; 0x24
    874c:	e0851001 	add	r1, r5, r1
    8750:	e2850004 	add	r0, r5, #4, 0
    8754:	ebffffb4 	bl	862c <mark>
    8758:	eaffffdc 	b	86d0 <mark+0xa4>
    875c:	e59f002c 	ldr	r0, [pc, #44]	; 8790 <mark+0x164>
    8760:	eb000129 	bl	8c0c <printk>
    8764:	eaffffd9 	b	86d0 <mark+0xa4>
    8768:	e28dd008 	add	sp, sp, #8, 0
    876c:	e8bd81f0 	pop	{r4, r5, r6, r7, r8, pc}
    8770:	0000a374 	andeq	sl, r0, r4, ror r3
    8774:	0000a66c 	andeq	sl, r0, ip, ror #12
    8778:	0000a354 	andeq	sl, r0, r4, asr r3
    877c:	0000a268 	andeq	sl, r0, r8, ror #4
    8780:	0000a35c 	andeq	sl, r0, ip, asr r3
    8784:	0000a364 	andeq	sl, r0, r4, ror #6
    8788:	0000a3b0 			; <UNDEFINED> instruction: 0x0000a3b0
    878c:	0000a384 	andeq	sl, r0, r4, lsl #7
    8790:	0000a3c0 	andeq	sl, r0, r0, asr #7

00008794 <mark_all>:
    8794:	e52de004 	push	{lr}		; (str lr, [sp, #-4]!)
    8798:	e24dd044 	sub	sp, sp, #68, 0	; 0x44
    879c:	ebfffe64 	bl	8134 <ck_first_hdr>
    87a0:	e3500000 	cmp	r0, #0, 0
    87a4:	0a000005 	beq	87c0 <mark_all+0x2c>
    87a8:	e3a03000 	mov	r3, #0, 0
    87ac:	e580301c 	str	r3, [r0, #28]
    87b0:	e5803018 	str	r3, [r0, #24]
    87b4:	e1c032b0 	strh	r3, [r0, #32]
    87b8:	ebfffe61 	bl	8144 <ck_next_hdr>
    87bc:	eafffff7 	b	87a0 <mark_all+0xc>
    87c0:	e1a0000d 	mov	r0, sp
    87c4:	eb0000f0 	bl	8b8c <dump_regs>
    87c8:	e3a03000 	mov	r3, #0, 0
    87cc:	e58d3000 	str	r3, [sp]
    87d0:	e58d3004 	str	r3, [sp, #4]
    87d4:	e58d3008 	str	r3, [sp, #8]
    87d8:	e58d300c 	str	r3, [sp, #12]
    87dc:	e28d1038 	add	r1, sp, #56, 0	; 0x38
    87e0:	e1a0000d 	mov	r0, sp
    87e4:	ebffff90 	bl	862c <mark>
    87e8:	e3a02302 	mov	r2, #134217728	; 0x8000000
    87ec:	e59d1034 	ldr	r1, [sp, #52]	; 0x34
    87f0:	e59f002c 	ldr	r0, [pc, #44]	; 8824 <mark_all+0x90>
    87f4:	eb000104 	bl	8c0c <printk>
    87f8:	e3a01302 	mov	r1, #134217728	; 0x8000000
    87fc:	e59d0034 	ldr	r0, [sp, #52]	; 0x34
    8800:	ebffff89 	bl	862c <mark>
    8804:	e59f101c 	ldr	r1, [pc, #28]	; 8828 <mark_all+0x94>
    8808:	e59f001c 	ldr	r0, [pc, #28]	; 882c <mark_all+0x98>
    880c:	ebffff86 	bl	862c <mark>
    8810:	e59f1018 	ldr	r1, [pc, #24]	; 8830 <mark_all+0x9c>
    8814:	e59f0018 	ldr	r0, [pc, #24]	; 8834 <mark_all+0xa0>
    8818:	ebffff83 	bl	862c <mark>
    881c:	e28dd044 	add	sp, sp, #68, 0	; 0x44
    8820:	e49df004 	pop	{pc}		; (ldr pc, [sp], #4)
    8824:	0000a3d0 	ldrdeq	sl, [r0], -r0
    8828:	0000ae68 	andeq	sl, r0, r8, ror #28
    882c:	0000aa40 	andeq	sl, r0, r0, asr #20
    8830:	0000aa3c 	andeq	sl, r0, ip, lsr sl
    8834:	0000aa28 	andeq	sl, r0, r8, lsr #20

00008838 <sweep_leak>:
    8838:	e92d41f0 	push	{r4, r5, r6, r7, r8, lr}
    883c:	e1a08000 	mov	r8, r0
    8840:	e59f00c4 	ldr	r0, [pc, #196]	; 890c <sweep_leak+0xd4>
    8844:	eb0000f0 	bl	8c0c <printk>
    8848:	e59f00c0 	ldr	r0, [pc, #192]	; 8910 <sweep_leak+0xd8>
    884c:	eb0000ee 	bl	8c0c <printk>
    8850:	ebffffcf 	bl	8794 <mark_all>
    8854:	ebfffe36 	bl	8134 <ck_first_hdr>
    8858:	e1a04000 	mov	r4, r0
    885c:	e3a07000 	mov	r7, #0, 0
    8860:	e1a06007 	mov	r6, r7
    8864:	e1a05007 	mov	r5, r7
    8868:	ea000007 	b	888c <sweep_leak+0x54>
    886c:	e2866001 	add	r6, r6, #1, 0
    8870:	e1a02004 	mov	r2, r4
    8874:	e1a01005 	mov	r1, r5
    8878:	e59f0094 	ldr	r0, [pc, #148]	; 8914 <sweep_leak+0xdc>
    887c:	eb0000e2 	bl	8c0c <printk>
    8880:	e1a00004 	mov	r0, r4
    8884:	ebfffe2e 	bl	8144 <ck_next_hdr>
    8888:	e1a04000 	mov	r4, r0
    888c:	e3540000 	cmp	r4, #0, 0
    8890:	0a00000b 	beq	88c4 <sweep_leak+0x8c>
    8894:	e2855001 	add	r5, r5, #1, 0
    8898:	e1d432b0 	ldrh	r3, [r4, #32]
    889c:	e3530000 	cmp	r3, #0, 0
    88a0:	0afffff1 	beq	886c <sweep_leak+0x34>
    88a4:	e3530001 	cmp	r3, #1, 0
    88a8:	1afffff4 	bne	8880 <sweep_leak+0x48>
    88ac:	e2877001 	add	r7, r7, #1, 0
    88b0:	e1a02004 	mov	r2, r4
    88b4:	e1a01005 	mov	r1, r5
    88b8:	e59f0058 	ldr	r0, [pc, #88]	; 8918 <sweep_leak+0xe0>
    88bc:	eb0000d2 	bl	8c0c <printk>
    88c0:	eaffffee 	b	8880 <sweep_leak+0x48>
    88c4:	e1a01005 	mov	r1, r5
    88c8:	e59f004c 	ldr	r0, [pc, #76]	; 891c <sweep_leak+0xe4>
    88cc:	eb0000ce 	bl	8c0c <printk>
    88d0:	e1963007 	orrs	r3, r6, r7
    88d4:	1a000007 	bne	88f8 <sweep_leak+0xc0>
    88d8:	e59f0040 	ldr	r0, [pc, #64]	; 8920 <sweep_leak+0xe8>
    88dc:	eb0000ca 	bl	8c0c <printk>
    88e0:	e59f003c 	ldr	r0, [pc, #60]	; 8924 <sweep_leak+0xec>
    88e4:	eb0000c8 	bl	8c0c <printk>
    88e8:	e3580000 	cmp	r8, #0, 0
    88ec:	10866007 	addne	r6, r6, r7
    88f0:	e1a00006 	mov	r0, r6
    88f4:	e8bd81f0 	pop	{r4, r5, r6, r7, r8, pc}
    88f8:	e1a02007 	mov	r2, r7
    88fc:	e1a01006 	mov	r1, r6
    8900:	e59f0020 	ldr	r0, [pc, #32]	; 8928 <sweep_leak+0xf0>
    8904:	eb0000c0 	bl	8c0c <printk>
    8908:	eafffff4 	b	88e0 <sweep_leak+0xa8>
    890c:	0000a3ec 	andeq	sl, r0, ip, ror #7
    8910:	0000a428 	andeq	sl, r0, r8, lsr #8
    8914:	0000a440 	andeq	sl, r0, r0, asr #8
    8918:	0000a454 	andeq	sl, r0, r4, asr r4
    891c:	0000a46c 	andeq	sl, r0, ip, ror #8
    8920:	0000a48c 	andeq	sl, r0, ip, lsl #9
    8924:	0000a4e4 	andeq	sl, r0, r4, ror #9
    8928:	0000a4b4 			; <UNDEFINED> instruction: 0x0000a4b4

0000892c <sweep_free>:
    892c:	e92d41f0 	push	{r4, r5, r6, r7, r8, lr}
    8930:	e24dd010 	sub	sp, sp, #16, 0
    8934:	e59f00b0 	ldr	r0, [pc, #176]	; 89ec <sweep_free+0xc0>
    8938:	eb0000b3 	bl	8c0c <printk>
    893c:	e59f00ac 	ldr	r0, [pc, #172]	; 89f0 <sweep_free+0xc4>
    8940:	eb0000b1 	bl	8c0c <printk>
    8944:	ebffff92 	bl	8794 <mark_all>
    8948:	ebfffdf9 	bl	8134 <ck_first_hdr>
    894c:	e1a04000 	mov	r4, r0
    8950:	e3a07000 	mov	r7, #0, 0
    8954:	e1a08007 	mov	r8, r7
    8958:	e1a05007 	mov	r5, r7
    895c:	ea000013 	b	89b0 <sweep_free+0x84>
    8960:	e2888001 	add	r8, r8, #1, 0
    8964:	e5943004 	ldr	r3, [r4, #4]
    8968:	e0877003 	add	r7, r7, r3
    896c:	e2846024 	add	r6, r4, #36, 0	; 0x24
    8970:	e59f307c 	ldr	r3, [pc, #124]	; 89f4 <sweep_free+0xc8>
    8974:	e58d3004 	str	r3, [sp, #4]
    8978:	e59f3078 	ldr	r3, [pc, #120]	; 89f8 <sweep_free+0xcc>
    897c:	e58d3008 	str	r3, [sp, #8]
    8980:	e59f3074 	ldr	r3, [pc, #116]	; 89fc <sweep_free+0xd0>
    8984:	e58d300c 	str	r3, [sp, #12]
    8988:	e28d3010 	add	r3, sp, #16, 0
    898c:	e913000e 	ldmdb	r3, {r1, r2, r3}
    8990:	e1a00006 	mov	r0, r6
    8994:	ebfffe41 	bl	82a0 <ckfree>
    8998:	e1a01006 	mov	r1, r6
    899c:	e59f005c 	ldr	r0, [pc, #92]	; 8a00 <sweep_free+0xd4>
    89a0:	eb000099 	bl	8c0c <printk>
    89a4:	e1a00004 	mov	r0, r4
    89a8:	ebfffde5 	bl	8144 <ck_next_hdr>
    89ac:	e1a04000 	mov	r4, r0
    89b0:	e3540000 	cmp	r4, #0, 0
    89b4:	0a000004 	beq	89cc <sweep_free+0xa0>
    89b8:	e2855001 	add	r5, r5, #1, 0
    89bc:	e1d432b0 	ldrh	r3, [r4, #32]
    89c0:	e3530000 	cmp	r3, #0, 0
    89c4:	1afffff6 	bne	89a4 <sweep_free+0x78>
    89c8:	eaffffe4 	b	8960 <sweep_free+0x34>
    89cc:	e1a03007 	mov	r3, r7
    89d0:	e1a02008 	mov	r2, r8
    89d4:	e1a01005 	mov	r1, r5
    89d8:	e59f0024 	ldr	r0, [pc, #36]	; 8a04 <sweep_free+0xd8>
    89dc:	eb00008a 	bl	8c0c <printk>
    89e0:	e1a00007 	mov	r0, r7
    89e4:	e28dd010 	add	sp, sp, #16, 0
    89e8:	e8bd81f0 	pop	{r4, r5, r6, r7, r8, pc}
    89ec:	0000a3ec 	andeq	sl, r0, ip, ror #7
    89f0:	0000a520 	andeq	sl, r0, r0, lsr #10
    89f4:	0000a354 	andeq	sl, r0, r4, asr r3
    89f8:	0000a674 	andeq	sl, r0, r4, ror r6
    89fc:	00000101 	andeq	r0, r0, r1, lsl #2
    8a00:	0000a530 	andeq	sl, r0, r0, lsr r5
    8a04:	0000a540 	andeq	sl, r0, r0, asr #10

00008a08 <sbrk>:
    8a08:	e92d4030 	push	{r4, r5, lr}
    8a0c:	e24dd00c 	sub	sp, sp, #12, 0
    8a10:	e2504000 	subs	r4, r0, #0, 0
    8a14:	da000010 	ble	8a5c <sbrk+0x54>
    8a18:	e59f3074 	ldr	r3, [pc, #116]	; 8a94 <sbrk+0x8c>
    8a1c:	e5933008 	ldr	r3, [r3, #8]
    8a20:	e3530000 	cmp	r3, #0, 0
    8a24:	1a000014 	bne	8a7c <sbrk+0x74>
    8a28:	e59f5064 	ldr	r5, [pc, #100]	; 8a94 <sbrk+0x8c>
    8a2c:	e3a00601 	mov	r0, #1048576	; 0x100000
    8a30:	e5850000 	str	r0, [r5]
    8a34:	e3a03602 	mov	r3, #2097152	; 0x200000
    8a38:	e5853004 	str	r3, [r5, #4]
    8a3c:	e1a01000 	mov	r1, r0
    8a40:	eb00043e 	bl	9b40 <kmalloc_init_set_start>
    8a44:	e3a03001 	mov	r3, #1, 0
    8a48:	e5853008 	str	r3, [r5, #8]
    8a4c:	e1a00004 	mov	r0, r4
    8a50:	eb00049d 	bl	9ccc <kmalloc>
    8a54:	e28dd00c 	add	sp, sp, #12, 0
    8a58:	e8bd8030 	pop	{r4, r5, pc}
    8a5c:	e59f3034 	ldr	r3, [pc, #52]	; 8a98 <sbrk+0x90>
    8a60:	e58d3000 	str	r3, [sp]
    8a64:	e3a03017 	mov	r3, #23, 0
    8a68:	e59f202c 	ldr	r2, [pc, #44]	; 8a9c <sbrk+0x94>
    8a6c:	e59f102c 	ldr	r1, [pc, #44]	; 8aa0 <sbrk+0x98>
    8a70:	e59f002c 	ldr	r0, [pc, #44]	; 8aa4 <sbrk+0x9c>
    8a74:	eb000064 	bl	8c0c <printk>
    8a78:	eb0002f4 	bl	9650 <clean_reboot>
    8a7c:	e3a03019 	mov	r3, #25, 0
    8a80:	e59f2014 	ldr	r2, [pc, #20]	; 8a9c <sbrk+0x94>
    8a84:	e59f1014 	ldr	r1, [pc, #20]	; 8aa0 <sbrk+0x98>
    8a88:	e59f0018 	ldr	r0, [pc, #24]	; 8aa8 <sbrk+0xa0>
    8a8c:	eb00005e 	bl	8c0c <printk>
    8a90:	eb0002ee 	bl	9650 <clean_reboot>
    8a94:	0000aa58 	andeq	sl, r0, r8, asr sl
    8a98:	0000a574 	andeq	sl, r0, r4, ror r5
    8a9c:	0000a680 	andeq	sl, r0, r0, lsl #13
    8aa0:	0000a354 	andeq	sl, r0, r4, asr r3
    8aa4:	0000a268 	andeq	sl, r0, r8, ror #4
    8aa8:	0000a584 	andeq	sl, r0, r4, lsl #11

00008aac <ck_find_leaks>:
    8aac:	e92d4010 	push	{r4, lr}
    8ab0:	ebffff60 	bl	8838 <sweep_leak>
    8ab4:	e8bd8010 	pop	{r4, pc}

00008ab8 <check_no_leak>:
    8ab8:	e92d4010 	push	{r4, lr}
    8abc:	e3a00001 	mov	r0, #1, 0
    8ac0:	ebfffff9 	bl	8aac <ck_find_leaks>
    8ac4:	e3500000 	cmp	r0, #0, 0
    8ac8:	1a000002 	bne	8ad8 <check_no_leak+0x20>
    8acc:	e59f001c 	ldr	r0, [pc, #28]	; 8af0 <check_no_leak+0x38>
    8ad0:	eb00004d 	bl	8c0c <printk>
    8ad4:	e8bd8010 	pop	{r4, pc}
    8ad8:	e3a030dc 	mov	r3, #220, 0	; 0xdc
    8adc:	e59f2010 	ldr	r2, [pc, #16]	; 8af4 <check_no_leak+0x3c>
    8ae0:	e59f1010 	ldr	r1, [pc, #16]	; 8af8 <check_no_leak+0x40>
    8ae4:	e59f0010 	ldr	r0, [pc, #16]	; 8afc <check_no_leak+0x44>
    8ae8:	eb000047 	bl	8c0c <printk>
    8aec:	eb0002d7 	bl	9650 <clean_reboot>
    8af0:	0000a5d0 	ldrdeq	sl, [r0], -r0
    8af4:	0000a688 	andeq	sl, r0, r8, lsl #13
    8af8:	0000a354 	andeq	sl, r0, r4, asr r3
    8afc:	0000a5a4 	andeq	sl, r0, r4, lsr #11

00008b00 <check_should_leak>:
    8b00:	e92d4010 	push	{r4, lr}
    8b04:	e3a00001 	mov	r0, #1, 0
    8b08:	ebffffe7 	bl	8aac <ck_find_leaks>
    8b0c:	e2504000 	subs	r4, r0, #0, 0
    8b10:	0a000004 	beq	8b28 <check_should_leak+0x28>
    8b14:	e1a01004 	mov	r1, r4
    8b18:	e59f0020 	ldr	r0, [pc, #32]	; 8b40 <check_should_leak+0x40>
    8b1c:	eb00003a 	bl	8c0c <printk>
    8b20:	e1a00004 	mov	r0, r4
    8b24:	e8bd8010 	pop	{r4, pc}
    8b28:	e3a030eb 	mov	r3, #235, 0	; 0xeb
    8b2c:	e59f2010 	ldr	r2, [pc, #16]	; 8b44 <check_should_leak+0x44>
    8b30:	e59f1010 	ldr	r1, [pc, #16]	; 8b48 <check_should_leak+0x48>
    8b34:	e59f0010 	ldr	r0, [pc, #16]	; 8b4c <check_should_leak+0x4c>
    8b38:	eb000033 	bl	8c0c <printk>
    8b3c:	eb0002c3 	bl	9650 <clean_reboot>
    8b40:	0000a618 	andeq	sl, r0, r8, lsl r6
    8b44:	0000a698 	muleq	r0, r8, r6
    8b48:	0000a354 	andeq	sl, r0, r4, asr r3
    8b4c:	0000a5f0 	strdeq	sl, [r0], -r0

00008b50 <ck_gc>:
    8b50:	e92d4010 	push	{r4, lr}
    8b54:	ebffff0e 	bl	8794 <mark_all>
    8b58:	ebffff73 	bl	892c <sweep_free>
    8b5c:	e8bd8010 	pop	{r4, pc}

00008b60 <implement_this>:
    8b60:	e92d4010 	push	{r4, lr}
    8b64:	e59f3010 	ldr	r3, [pc, #16]	; 8b7c <implement_this+0x1c>
    8b68:	e59f2010 	ldr	r2, [pc, #16]	; 8b80 <implement_this+0x20>
    8b6c:	e59f1010 	ldr	r1, [pc, #16]	; 8b84 <implement_this+0x24>
    8b70:	e59f0010 	ldr	r0, [pc, #16]	; 8b88 <implement_this+0x28>
    8b74:	eb000024 	bl	8c0c <printk>
    8b78:	eb0002b4 	bl	9650 <clean_reboot>
    8b7c:	00000117 	andeq	r0, r0, r7, lsl r1
    8b80:	0000a6ac 	andeq	sl, r0, ip, lsr #13
    8b84:	0000a354 	andeq	sl, r0, r4, asr r3
    8b88:	0000a63c 	andeq	sl, r0, ip, lsr r6

00008b8c <dump_regs>:
    8b8c:	e8a0ffff 	stmia	r0!, {r0, r1, r2, r3, r4, r5, r6, r7, r8, r9, sl, fp, ip, sp, lr, pc}
    8b90:	e12fff1e 	bx	lr

00008b94 <memset>:
    8b94:	e92d4010 	push	{r4, lr}
    8b98:	e0804002 	add	r4, r0, r2
    8b9c:	e1500004 	cmp	r0, r4
    8ba0:	28bd8010 	popcs	{r4, pc}
    8ba4:	e2423001 	sub	r3, r2, #1, 0
    8ba8:	e3530002 	cmp	r3, #2, 0
    8bac:	e6ef1071 	uxtb	r1, r1
    8bb0:	e1a03000 	mov	r3, r0
    8bb4:	9a00000b 	bls	8be8 <memset+0x54>
    8bb8:	e181e401 	orr	lr, r1, r1, lsl #8
    8bbc:	e18ee801 	orr	lr, lr, r1, lsl #16
    8bc0:	e3c2c003 	bic	ip, r2, #3, 0
    8bc4:	e18eec01 	orr	lr, lr, r1, lsl #24
    8bc8:	e08cc000 	add	ip, ip, r0
    8bcc:	e483e004 	str	lr, [r3], #4
    8bd0:	e153000c 	cmp	r3, ip
    8bd4:	1afffffc 	bne	8bcc <memset+0x38>
    8bd8:	e3c23003 	bic	r3, r2, #3, 0
    8bdc:	e1520003 	cmp	r2, r3
    8be0:	e0803003 	add	r3, r0, r3
    8be4:	08bd8010 	popeq	{r4, pc}
    8be8:	e1a02003 	mov	r2, r3
    8bec:	e4c21001 	strb	r1, [r2], #1
    8bf0:	e1540002 	cmp	r4, r2
    8bf4:	98bd8010 	popls	{r4, pc}
    8bf8:	e2832002 	add	r2, r3, #2, 0
    8bfc:	e1540002 	cmp	r4, r2
    8c00:	e5c31001 	strb	r1, [r3, #1]
    8c04:	85c31002 	strbhi	r1, [r3, #2]
    8c08:	e8bd8010 	pop	{r4, pc}

00008c0c <printk>:
    8c0c:	e92d000f 	push	{r0, r1, r2, r3}
    8c10:	e92d4030 	push	{r4, r5, lr}
    8c14:	e59f5040 	ldr	r5, [pc, #64]	; 8c5c <printk+0x50>
    8c18:	e24dd00c 	sub	sp, sp, #12, 0
    8c1c:	e28d301c 	add	r3, sp, #28, 0
    8c20:	e3a01b01 	mov	r1, #1024	; 0x400
    8c24:	e59d2018 	ldr	r2, [sp, #24]
    8c28:	e1a00005 	mov	r0, r5
    8c2c:	e58d3004 	str	r3, [sp, #4]
    8c30:	eb0000fb 	bl	9024 <va_printk>
    8c34:	e1a04000 	mov	r4, r0
    8c38:	e59f3020 	ldr	r3, [pc, #32]	; 8c60 <printk+0x54>
    8c3c:	e1a00005 	mov	r0, r5
    8c40:	e5933000 	ldr	r3, [r3]
    8c44:	e12fff33 	blx	r3
    8c48:	e1a00004 	mov	r0, r4
    8c4c:	e28dd00c 	add	sp, sp, #12, 0
    8c50:	e8bd4030 	pop	{r4, r5, lr}
    8c54:	e28dd010 	add	sp, sp, #16, 0
    8c58:	e12fff1e 	bx	lr
    8c5c:	0000aa64 	andeq	sl, r0, r4, ror #20
    8c60:	0000aa28 	andeq	sl, r0, r8, lsr #20

00008c64 <internal_putk>:
    8c64:	e92d4070 	push	{r4, r5, r6, lr}
    8c68:	e1a04000 	mov	r4, r0
    8c6c:	e5d00000 	ldrb	r0, [r0]
    8c70:	e3500000 	cmp	r0, #0, 0
    8c74:	0a000005 	beq	8c90 <internal_putk+0x2c>
    8c78:	e59f5018 	ldr	r5, [pc, #24]	; 8c98 <internal_putk+0x34>
    8c7c:	e5953000 	ldr	r3, [r5]
    8c80:	e12fff33 	blx	r3
    8c84:	e5f40001 	ldrb	r0, [r4, #1]!
    8c88:	e3500000 	cmp	r0, #0, 0
    8c8c:	1afffffa 	bne	8c7c <internal_putk+0x18>
    8c90:	e3a00001 	mov	r0, #1, 0
    8c94:	e8bd8070 	pop	{r4, r5, r6, pc}
    8c98:	0000aa38 	andeq	sl, r0, r8, lsr sl

00008c9c <emit.constprop.0>:
    8c9c:	e92d41f0 	push	{r4, r5, r6, r7, r8, lr}
    8ca0:	e3530080 	cmp	r3, #128, 0	; 0x80
    8ca4:	e1a0c000 	mov	ip, r0
    8ca8:	e24dd048 	sub	sp, sp, #72, 0	; 0x48
    8cac:	e1a00001 	mov	r0, r1
    8cb0:	ca000069 	bgt	8e5c <emit.constprop.0+0x1c0>
    8cb4:	e24c1002 	sub	r1, ip, #2, 0
    8cb8:	e1a0c002 	mov	ip, r2
    8cbc:	e351000e 	cmp	r1, #14, 0
    8cc0:	979ff101 	ldrls	pc, [pc, r1, lsl #2]
    8cc4:	ea0000a7 	b	8f68 <emit.constprop.0+0x2cc>
    8cc8:	00008e34 	andeq	r8, r0, r4, lsr lr
    8ccc:	00008f68 	andeq	r8, r0, r8, ror #30
    8cd0:	00008f68 	andeq	r8, r0, r8, ror #30
    8cd4:	00008f68 	andeq	r8, r0, r8, ror #30
    8cd8:	00008f68 	andeq	r8, r0, r8, ror #30
    8cdc:	00008f68 	andeq	r8, r0, r8, ror #30
    8ce0:	00008f10 	andeq	r8, r0, r0, lsl pc
    8ce4:	00008f68 	andeq	r8, r0, r8, ror #30
    8ce8:	00008eb0 			; <UNDEFINED> instruction: 0x00008eb0
    8cec:	00008f68 	andeq	r8, r0, r8, ror #30
    8cf0:	00008f68 	andeq	r8, r0, r8, ror #30
    8cf4:	00008f68 	andeq	r8, r0, r8, ror #30
    8cf8:	00008f68 	andeq	r8, r0, r8, ror #30
    8cfc:	00008f68 	andeq	r8, r0, r8, ror #30
    8d00:	00008d08 	andeq	r8, r0, r8, lsl #26
    8d04:	e3a0307f 	mov	r3, #127, 0	; 0x7f
    8d08:	e28d2008 	add	r2, sp, #8, 0
    8d0c:	e1a04002 	mov	r4, r2
    8d10:	e59f1288 	ldr	r1, [pc, #648]	; 8fa0 <emit.constprop.0+0x304>
    8d14:	e20ce00f 	and	lr, ip, #15, 0
    8d18:	e7d1e00e 	ldrb	lr, [r1, lr]
    8d1c:	e35c000f 	cmp	ip, #15, 0
    8d20:	e4c4e001 	strb	lr, [r4], #1
    8d24:	e1a0c22c 	lsr	ip, ip, #4
    8d28:	8afffff9 	bhi	8d14 <emit.constprop.0+0x78>
    8d2c:	e3a0c078 	mov	ip, #120, 0	; 0x78
    8d30:	e1a0e004 	mov	lr, r4
    8d34:	e3a01030 	mov	r1, #48, 0	; 0x30
    8d38:	e4cec002 	strb	ip, [lr], #2
    8d3c:	e5c41001 	strb	r1, [r4, #1]
    8d40:	e04e1002 	sub	r1, lr, r2
    8d44:	e1510003 	cmp	r1, r3
    8d48:	aa000083 	bge	8f5c <emit.constprop.0+0x2c0>
    8d4c:	e1510003 	cmp	r1, r3
    8d50:	a3a0c001 	movge	ip, #1, 0
    8d54:	b3a0c000 	movlt	ip, #0, 0
    8d58:	e2434001 	sub	r4, r3, #1, 0
    8d5c:	e0444001 	sub	r4, r4, r1
    8d60:	b0436001 	sublt	r6, r3, r1
    8d64:	a3a06001 	movge	r6, #1, 0
    8d68:	e3540002 	cmp	r4, #2, 0
    8d6c:	938cc001 	orrls	ip, ip, #1, 0
    8d70:	e35c0000 	cmp	ip, #0, 0
    8d74:	1a000075 	bne	8f50 <emit.constprop.0+0x2b4>
    8d78:	e1a0c00e 	mov	ip, lr
    8d7c:	e3c65003 	bic	r5, r6, #3, 0
    8d80:	e59f721c 	ldr	r7, [pc, #540]	; 8fa4 <emit.constprop.0+0x308>
    8d84:	e085500e 	add	r5, r5, lr
    8d88:	e48c7004 	str	r7, [ip], #4
    8d8c:	e15c0005 	cmp	ip, r5
    8d90:	1afffffc 	bne	8d88 <emit.constprop.0+0xec>
    8d94:	e3c6c003 	bic	ip, r6, #3, 0
    8d98:	e156000c 	cmp	r6, ip
    8d9c:	e08e500c 	add	r5, lr, ip
    8da0:	e08cc001 	add	ip, ip, r1
    8da4:	0a000008 	beq	8dcc <emit.constprop.0+0x130>
    8da8:	e3a07020 	mov	r7, #32, 0
    8dac:	e28c8001 	add	r8, ip, #1, 0
    8db0:	e1580003 	cmp	r8, r3
    8db4:	e5c57000 	strb	r7, [r5]
    8db8:	aa000003 	bge	8dcc <emit.constprop.0+0x130>
    8dbc:	e28cc002 	add	ip, ip, #2, 0
    8dc0:	e15c0003 	cmp	ip, r3
    8dc4:	e5c57001 	strb	r7, [r5, #1]
    8dc8:	b5c57002 	strblt	r7, [r5, #2]
    8dcc:	e1510003 	cmp	r1, r3
    8dd0:	a3a04000 	movge	r4, #0, 0
    8dd4:	e08e6006 	add	r6, lr, r6
    8dd8:	e0461002 	sub	r1, r6, r2
    8ddc:	e08ee004 	add	lr, lr, r4
    8de0:	e3a03000 	mov	r3, #0, 0
    8de4:	e351007f 	cmp	r1, #127, 0	; 0x7f
    8de8:	c241407f 	subgt	r4, r1, #127, 0	; 0x7f
    8dec:	c0822004 	addgt	r2, r2, r4
    8df0:	e152000e 	cmp	r2, lr
    8df4:	e5c63000 	strb	r3, [r6]
    8df8:	8a00004f 	bhi	8f3c <emit.constprop.0+0x2a0>
    8dfc:	e28ee001 	add	lr, lr, #1, 0
    8e00:	e1a0300e 	mov	r3, lr
    8e04:	e240c001 	sub	ip, r0, #1, 0
    8e08:	e5734001 	ldrb	r4, [r3, #-1]!
    8e0c:	e1530002 	cmp	r3, r2
    8e10:	e5ec4001 	strb	r4, [ip, #1]!
    8e14:	1afffffb 	bne	8e08 <emit.constprop.0+0x16c>
    8e18:	e04ee003 	sub	lr, lr, r3
    8e1c:	e3a03000 	mov	r3, #0, 0
    8e20:	e080e00e 	add	lr, r0, lr
    8e24:	e5ce3000 	strb	r3, [lr]
    8e28:	e28dd048 	add	sp, sp, #72, 0	; 0x48
    8e2c:	e8bd81f0 	pop	{r4, r5, r6, r7, r8, pc}
    8e30:	e3a0307f 	mov	r3, #127, 0	; 0x7f
    8e34:	e28d2008 	add	r2, sp, #8, 0
    8e38:	e1a0e002 	mov	lr, r2
    8e3c:	e59f1164 	ldr	r1, [pc, #356]	; 8fa8 <emit.constprop.0+0x30c>
    8e40:	e20c4001 	and	r4, ip, #1, 0
    8e44:	e7d14004 	ldrb	r4, [r1, r4]
    8e48:	e35c0001 	cmp	ip, #1, 0
    8e4c:	e4ce4001 	strb	r4, [lr], #1
    8e50:	e1a0c0ac 	lsr	ip, ip, #1
    8e54:	8afffff9 	bhi	8e40 <emit.constprop.0+0x1a4>
    8e58:	eaffffb8 	b	8d40 <emit.constprop.0+0xa4>
    8e5c:	e24c3002 	sub	r3, ip, #2, 0
    8e60:	e1a0c002 	mov	ip, r2
    8e64:	e353000e 	cmp	r3, #14, 0
    8e68:	979ff103 	ldrls	pc, [pc, r3, lsl #2]
    8e6c:	ea00003d 	b	8f68 <emit.constprop.0+0x2cc>
    8e70:	00008e30 	andeq	r8, r0, r0, lsr lr
    8e74:	00008f68 	andeq	r8, r0, r8, ror #30
    8e78:	00008f68 	andeq	r8, r0, r8, ror #30
    8e7c:	00008f68 	andeq	r8, r0, r8, ror #30
    8e80:	00008f68 	andeq	r8, r0, r8, ror #30
    8e84:	00008f68 	andeq	r8, r0, r8, ror #30
    8e88:	00008f88 	andeq	r8, r0, r8, lsl #31
    8e8c:	00008f68 	andeq	r8, r0, r8, ror #30
    8e90:	00008eac 	andeq	r8, r0, ip, lsr #29
    8e94:	00008f68 	andeq	r8, r0, r8, ror #30
    8e98:	00008f68 	andeq	r8, r0, r8, ror #30
    8e9c:	00008f68 	andeq	r8, r0, r8, ror #30
    8ea0:	00008f68 	andeq	r8, r0, r8, ror #30
    8ea4:	00008f68 	andeq	r8, r0, r8, ror #30
    8ea8:	00008d04 	andeq	r8, r0, r4, lsl #26
    8eac:	e3a0307f 	mov	r3, #127, 0	; 0x7f
    8eb0:	e59d1060 	ldr	r1, [sp, #96]	; 0x60
    8eb4:	e59f70f0 	ldr	r7, [pc, #240]	; 8fac <emit.constprop.0+0x310>
    8eb8:	e0118fa2 	ands	r8, r1, r2, lsr #31
    8ebc:	1262c000 	rsbne	ip, r2, #0, 0
    8ec0:	e28d2008 	add	r2, sp, #8, 0
    8ec4:	13a08001 	movne	r8, #1, 0
    8ec8:	e1a0e002 	mov	lr, r2
    8ecc:	e59f60dc 	ldr	r6, [pc, #220]	; 8fb0 <emit.constprop.0+0x314>
    8ed0:	e1a0500c 	mov	r5, ip
    8ed4:	e0814c96 	umull	r4, r1, r6, ip
    8ed8:	e1a011a1 	lsr	r1, r1, #3
    8edc:	e0814101 	add	r4, r1, r1, lsl #2
    8ee0:	e04cc084 	sub	ip, ip, r4, lsl #1
    8ee4:	e7d7400c 	ldrb	r4, [r7, ip]
    8ee8:	e3550009 	cmp	r5, #9, 0
    8eec:	e1a0c001 	mov	ip, r1
    8ef0:	e1a0100e 	mov	r1, lr
    8ef4:	e4ce4001 	strb	r4, [lr], #1
    8ef8:	8afffff4 	bhi	8ed0 <emit.constprop.0+0x234>
    8efc:	e3580000 	cmp	r8, #0, 0
    8f00:	13a0c02d 	movne	ip, #45, 0	; 0x2d
    8f04:	15cec000 	strbne	ip, [lr]
    8f08:	1281e002 	addne	lr, r1, #2, 0
    8f0c:	eaffff8b 	b	8d40 <emit.constprop.0+0xa4>
    8f10:	e3530001 	cmp	r3, #1, 0
    8f14:	e5cd2008 	strb	r2, [sp, #8]
    8f18:	c3a01001 	movgt	r1, #1, 0
    8f1c:	c28de009 	addgt	lr, sp, #9, 0
    8f20:	c28d2008 	addgt	r2, sp, #8, 0
    8f24:	caffff88 	bgt	8d4c <emit.constprop.0+0xb0>
    8f28:	e3a03000 	mov	r3, #0, 0
    8f2c:	e28de008 	add	lr, sp, #8, 0
    8f30:	e1a0200e 	mov	r2, lr
    8f34:	e5cd3009 	strb	r3, [sp, #9]
    8f38:	eaffffaf 	b	8dfc <emit.constprop.0+0x160>
    8f3c:	e1a0e000 	mov	lr, r0
    8f40:	e3a03000 	mov	r3, #0, 0
    8f44:	e5ce3000 	strb	r3, [lr]
    8f48:	e28dd048 	add	sp, sp, #72, 0	; 0x48
    8f4c:	e8bd81f0 	pop	{r4, r5, r6, r7, r8, pc}
    8f50:	e1a0c001 	mov	ip, r1
    8f54:	e1a0500e 	mov	r5, lr
    8f58:	eaffff92 	b	8da8 <emit.constprop.0+0x10c>
    8f5c:	e1a0600e 	mov	r6, lr
    8f60:	e24ee001 	sub	lr, lr, #1, 0
    8f64:	eaffff9d 	b	8de0 <emit.constprop.0+0x144>
    8f68:	e59f2044 	ldr	r2, [pc, #68]	; 8fb4 <emit.constprop.0+0x318>
    8f6c:	e3a03079 	mov	r3, #121, 0	; 0x79
    8f70:	e59f1040 	ldr	r1, [pc, #64]	; 8fb8 <emit.constprop.0+0x31c>
    8f74:	e58d2000 	str	r2, [sp]
    8f78:	e59f003c 	ldr	r0, [pc, #60]	; 8fbc <emit.constprop.0+0x320>
    8f7c:	e59f203c 	ldr	r2, [pc, #60]	; 8fc0 <emit.constprop.0+0x324>
    8f80:	ebffff21 	bl	8c0c <printk>
    8f84:	eb0001b1 	bl	9650 <clean_reboot>
    8f88:	e5cd2008 	strb	r2, [sp, #8]
    8f8c:	e3a0307f 	mov	r3, #127, 0	; 0x7f
    8f90:	e3a01001 	mov	r1, #1, 0
    8f94:	e28de009 	add	lr, sp, #9, 0
    8f98:	e28d2008 	add	r2, sp, #8, 0
    8f9c:	eaffff6a 	b	8d4c <emit.constprop.0+0xb0>
    8fa0:	0000a6d0 	ldrdeq	sl, [r0], -r0
    8fa4:	20202020 	eorcs	r2, r0, r0, lsr #32
    8fa8:	0000a6e4 	andeq	sl, r0, r4, ror #13
    8fac:	0000a6e8 	andeq	sl, r0, r8, ror #13
    8fb0:	cccccccd 	stclgt	12, cr12, [ip], {205}	; 0xcd
    8fb4:	0000a580 	andeq	sl, r0, r0, lsl #11
    8fb8:	0000a6bc 			; <UNDEFINED> instruction: 0x0000a6bc
    8fbc:	0000a268 	andeq	sl, r0, r8, ror #4
    8fc0:	0000a7fc 	strdeq	sl, [r0], -ip

00008fc4 <rpi_set_output>:
    8fc4:	e3500000 	cmp	r0, #0, 0
    8fc8:	0a000005 	beq	8fe4 <rpi_set_output+0x20>
    8fcc:	e59f3038 	ldr	r3, [pc, #56]	; 900c <rpi_set_output+0x48>
    8fd0:	e3510000 	cmp	r1, #0, 0
    8fd4:	e5830000 	str	r0, [r3]
    8fd8:	159f3030 	ldrne	r3, [pc, #48]	; 9010 <rpi_set_output+0x4c>
    8fdc:	15831000 	strne	r1, [r3]
    8fe0:	e12fff1e 	bx	lr
    8fe4:	e52de004 	push	{lr}		; (str lr, [sp, #-4]!)
    8fe8:	e59f2024 	ldr	r2, [pc, #36]	; 9014 <rpi_set_output+0x50>
    8fec:	e24dd00c 	sub	sp, sp, #12, 0
    8ff0:	e3a03020 	mov	r3, #32, 0
    8ff4:	e59f101c 	ldr	r1, [pc, #28]	; 9018 <rpi_set_output+0x54>
    8ff8:	e58d2000 	str	r2, [sp]
    8ffc:	e59f0018 	ldr	r0, [pc, #24]	; 901c <rpi_set_output+0x58>
    9000:	e59f2018 	ldr	r2, [pc, #24]	; 9020 <rpi_set_output+0x5c>
    9004:	ebffff00 	bl	8c0c <printk>
    9008:	eb000190 	bl	9650 <clean_reboot>
    900c:	0000aa38 	andeq	sl, r0, r8, lsr sl
    9010:	0000aa28 	andeq	sl, r0, r8, lsr #20
    9014:	0000a6f4 	strdeq	sl, [r0], -r4
    9018:	0000a6bc 			; <UNDEFINED> instruction: 0x0000a6bc
    901c:	0000a268 	andeq	sl, r0, r8, ror #4
    9020:	0000a804 	andeq	sl, r0, r4, lsl #16

00009024 <va_printk>:
    9024:	e92d4ff0 	push	{r4, r5, r6, r7, r8, r9, sl, fp, lr}
    9028:	e1a0b000 	mov	fp, r0
    902c:	e3a00000 	mov	r0, #0, 0
    9030:	e5cb0000 	strb	r0, [fp]
    9034:	e5d2c000 	ldrb	ip, [r2]
    9038:	e2417001 	sub	r7, r1, #1, 0
    903c:	e08b7007 	add	r7, fp, r7
    9040:	e15c0000 	cmp	ip, r0
    9044:	115b0007 	cmpne	fp, r7
    9048:	e24ddf47 	sub	sp, sp, #284	; 0x11c
    904c:	e58d2010 	str	r2, [sp, #16]
    9050:	2a000159 	bcs	95bc <va_printk+0x598>
    9054:	e1a06002 	mov	r6, r2
    9058:	e1a08003 	mov	r8, r3
    905c:	e1a0400b 	mov	r4, fp
    9060:	e59fa5a4 	ldr	sl, [pc, #1444]	; 960c <va_printk+0x5e8>
    9064:	e58db00c 	str	fp, [sp, #12]
    9068:	ea000005 	b	9084 <va_printk+0x60>
    906c:	e4c4c001 	strb	ip, [r4], #1
    9070:	e2866001 	add	r6, r6, #1, 0
    9074:	e5d6c000 	ldrb	ip, [r6]
    9078:	e35c0000 	cmp	ip, #0, 0
    907c:	11570004 	cmpne	r7, r4
    9080:	9a00002f 	bls	9144 <va_printk+0x120>
    9084:	e35c0025 	cmp	ip, #37, 0	; 0x25
    9088:	1afffff7 	bne	906c <va_printk+0x48>
    908c:	e5d62001 	ldrb	r2, [r6, #1]
    9090:	e3520025 	cmp	r2, #37, 0	; 0x25
    9094:	04c4c001 	strbeq	ip, [r4], #1
    9098:	02866002 	addeq	r6, r6, #2, 0
    909c:	0afffff4 	beq	9074 <va_printk+0x50>
    90a0:	e2423030 	sub	r3, r2, #48, 0	; 0x30
    90a4:	e3530009 	cmp	r3, #9, 0
    90a8:	e3a05000 	mov	r5, #0, 0
    90ac:	e2866001 	add	r6, r6, #1, 0
    90b0:	8a000008 	bhi	90d8 <va_printk+0xb4>
    90b4:	e0855105 	add	r5, r5, r5, lsl #2
    90b8:	e0825085 	add	r5, r2, r5, lsl #1
    90bc:	e5f62001 	ldrb	r2, [r6, #1]!
    90c0:	e2455030 	sub	r5, r5, #48, 0	; 0x30
    90c4:	e2423030 	sub	r3, r2, #48, 0	; 0x30
    90c8:	e3530009 	cmp	r3, #9, 0
    90cc:	9afffff8 	bls	90b4 <va_printk+0x90>
    90d0:	e355001f 	cmp	r5, #31, 0
    90d4:	8a00013a 	bhi	95c4 <va_printk+0x5a0>
    90d8:	e2423062 	sub	r3, r2, #98, 0	; 0x62
    90dc:	e3530016 	cmp	r3, #22, 0
    90e0:	979ff103 	ldrls	pc, [pc, r3, lsl #2]
    90e4:	ea00011b 	b	9558 <va_printk+0x534>
    90e8:	0000939c 	muleq	r0, ip, r3
    90ec:	00009298 	muleq	r0, r8, r2
    90f0:	00009290 	muleq	r0, r0, r2
    90f4:	00009558 	andeq	r9, r0, r8, asr r5
    90f8:	00009594 	muleq	r0, r4, r5
    90fc:	00009558 	andeq	r9, r0, r8, asr r5
    9100:	00009558 	andeq	r9, r0, r8, asr r5
    9104:	00009558 	andeq	r9, r0, r8, asr r5
    9108:	00009558 	andeq	r9, r0, r8, asr r5
    910c:	00009558 	andeq	r9, r0, r8, asr r5
    9110:	000091a0 	andeq	r9, r0, r0, lsr #3
    9114:	00009558 	andeq	r9, r0, r8, asr r5
    9118:	00009558 	andeq	r9, r0, r8, asr r5
    911c:	00009558 	andeq	r9, r0, r8, asr r5
    9120:	0000915c 	andeq	r9, r0, ip, asr r1
    9124:	00009558 	andeq	r9, r0, r8, asr r5
    9128:	00009558 	andeq	r9, r0, r8, asr r5
    912c:	00009494 	muleq	r0, r4, r4
    9130:	00009558 	andeq	r9, r0, r8, asr r5
    9134:	0000926c 	andeq	r9, r0, ip, ror #4
    9138:	00009558 	andeq	r9, r0, r8, asr r5
    913c:	00009558 	andeq	r9, r0, r8, asr r5
    9140:	0000915c 	andeq	r9, r0, ip, asr r1
    9144:	e59db00c 	ldr	fp, [sp, #12]
    9148:	e3a03000 	mov	r3, #0, 0
    914c:	e4c43001 	strb	r3, [r4], #1
    9150:	e044000b 	sub	r0, r4, fp
    9154:	e28ddf47 	add	sp, sp, #284	; 0x11c
    9158:	e8bd8ff0 	pop	{r4, r5, r6, r7, r8, r9, sl, fp, pc}
    915c:	e3a01000 	mov	r1, #0, 0
    9160:	e1a03005 	mov	r3, r5
    9164:	e4982004 	ldr	r2, [r8], #4
    9168:	e3a00010 	mov	r0, #16, 0
    916c:	e58d1000 	str	r1, [sp]
    9170:	e28d1018 	add	r1, sp, #24, 0
    9174:	ebfffec8 	bl	8c9c <emit.constprop.0>
    9178:	e1a05000 	mov	r5, r0
    917c:	e2866001 	add	r6, r6, #1, 0
    9180:	e2455001 	sub	r5, r5, #1, 0
    9184:	e5f53001 	ldrb	r3, [r5, #1]!
    9188:	e3530000 	cmp	r3, #0, 0
    918c:	0affffb8 	beq	9074 <va_printk+0x50>
    9190:	e4c43001 	strb	r3, [r4], #1
    9194:	e1570004 	cmp	r7, r4
    9198:	8afffff9 	bhi	9184 <va_printk+0x160>
    919c:	eaffffb4 	b	9074 <va_printk+0x50>
    91a0:	e3a02003 	mov	r2, #3, 0
    91a4:	e1a00006 	mov	r0, r6
    91a8:	e59f1460 	ldr	r1, [pc, #1120]	; 9610 <va_printk+0x5ec>
    91ac:	eb0003da 	bl	a11c <strncmp>
    91b0:	e3500000 	cmp	r0, #0, 0
    91b4:	0a000005 	beq	91d0 <va_printk+0x1ac>
    91b8:	e3a02003 	mov	r2, #3, 0
    91bc:	e1a00006 	mov	r0, r6
    91c0:	e59f144c 	ldr	r1, [pc, #1100]	; 9614 <va_printk+0x5f0>
    91c4:	eb0003d4 	bl	a11c <strncmp>
    91c8:	e3500000 	cmp	r0, #0, 0
    91cc:	1a00010b 	bne	9600 <va_printk+0x5dc>
    91d0:	e2888007 	add	r8, r8, #7, 0
    91d4:	e3c88007 	bic	r8, r8, #7, 0
    91d8:	e598b004 	ldr	fp, [r8, #4]
    91dc:	e4989008 	ldr	r9, [r8], #8
    91e0:	e1a0100b 	mov	r1, fp
    91e4:	e59f042c 	ldr	r0, [pc, #1068]	; 9618 <va_printk+0x5f4>
    91e8:	ebfffe87 	bl	8c0c <printk>
    91ec:	e1a01009 	mov	r1, r9
    91f0:	e59f0424 	ldr	r0, [pc, #1060]	; 961c <va_printk+0x5f8>
    91f4:	ebfffe84 	bl	8c0c <printk>
    91f8:	e3a02003 	mov	r2, #3, 0
    91fc:	e1a00006 	mov	r0, r6
    9200:	e59f1408 	ldr	r1, [pc, #1032]	; 9610 <va_printk+0x5ec>
    9204:	eb0003c4 	bl	a11c <strncmp>
    9208:	e2503000 	subs	r3, r0, #0, 0
    920c:	e1a02003 	mov	r2, r3
    9210:	e2863002 	add	r3, r6, #2, 0
    9214:	e58d3014 	str	r3, [sp, #20]
    9218:	1a00009f 	bne	949c <va_printk+0x478>
    921c:	e1a06002 	mov	r6, r2
    9220:	e1a03005 	mov	r3, r5
    9224:	e58d2000 	str	r2, [sp]
    9228:	e28d1018 	add	r1, sp, #24, 0
    922c:	e1a0200b 	mov	r2, fp
    9230:	e3a00010 	mov	r0, #16, 0
    9234:	ebfffe98 	bl	8c9c <emit.constprop.0>
    9238:	e1a0c000 	mov	ip, r0
    923c:	e1a03005 	mov	r3, r5
    9240:	e58d6000 	str	r6, [sp]
    9244:	e28d1098 	add	r1, sp, #152, 0	; 0x98
    9248:	e1a02009 	mov	r2, r9
    924c:	e3a00010 	mov	r0, #16, 0
    9250:	e1a0500c 	mov	r5, ip
    9254:	ebfffe90 	bl	8c9c <emit.constprop.0>
    9258:	e28d0018 	add	r0, sp, #24, 0
    925c:	e28d109a 	add	r1, sp, #154, 0	; 0x9a
    9260:	e59d6014 	ldr	r6, [sp, #20]
    9264:	eb00038a 	bl	a094 <strcat>
    9268:	eaffffc3 	b	917c <va_printk+0x158>
    926c:	e3a01000 	mov	r1, #0, 0
    9270:	e1a03005 	mov	r3, r5
    9274:	e4982004 	ldr	r2, [r8], #4
    9278:	e3a0000a 	mov	r0, #10, 0
    927c:	e58d1000 	str	r1, [sp]
    9280:	e28d1018 	add	r1, sp, #24, 0
    9284:	ebfffe84 	bl	8c9c <emit.constprop.0>
    9288:	e1a05000 	mov	r5, r0
    928c:	eaffffba 	b	917c <va_printk+0x158>
    9290:	e3a01001 	mov	r1, #1, 0
    9294:	eafffff5 	b	9270 <va_printk+0x24c>
    9298:	e4983004 	ldr	r3, [r8], #4
    929c:	e3550001 	cmp	r5, #1, 0
    92a0:	e5cd3098 	strb	r3, [sp, #152]	; 0x98
    92a4:	9a0000a6 	bls	9544 <va_printk+0x520>
    92a8:	e2453002 	sub	r3, r5, #2, 0
    92ac:	e3530002 	cmp	r3, #2, 0
    92b0:	e2451001 	sub	r1, r5, #1, 0
    92b4:	9a0000bc 	bls	95ac <va_printk+0x588>
    92b8:	e59f0360 	ldr	r0, [pc, #864]	; 9620 <va_printk+0x5fc>
    92bc:	e1a02121 	lsr	r2, r1, #2
    92c0:	e3520001 	cmp	r2, #1, 0
    92c4:	e58d0099 	str	r0, [sp, #153]	; 0x99
    92c8:	0a00000e 	beq	9308 <va_printk+0x2e4>
    92cc:	e3520002 	cmp	r2, #2, 0
    92d0:	e58d009d 	str	r0, [sp, #157]	; 0x9d
    92d4:	0a00000b 	beq	9308 <va_printk+0x2e4>
    92d8:	e3520003 	cmp	r2, #3, 0
    92dc:	e58d00a1 	str	r0, [sp, #161]	; 0xa1
    92e0:	0a000008 	beq	9308 <va_printk+0x2e4>
    92e4:	e3520004 	cmp	r2, #4, 0
    92e8:	e58d00a5 	str	r0, [sp, #165]	; 0xa5
    92ec:	0a000005 	beq	9308 <va_printk+0x2e4>
    92f0:	e3520005 	cmp	r2, #5, 0
    92f4:	e58d00a9 	str	r0, [sp, #169]	; 0xa9
    92f8:	0a000002 	beq	9308 <va_printk+0x2e4>
    92fc:	e3520007 	cmp	r2, #7, 0
    9300:	e58d00ad 	str	r0, [sp, #173]	; 0xad
    9304:	058d00b1 	streq	r0, [sp, #177]	; 0xb1
    9308:	e3c12003 	bic	r2, r1, #3, 0
    930c:	e1510002 	cmp	r1, r2
    9310:	e28dc099 	add	ip, sp, #153, 0	; 0x99
    9314:	e08c0002 	add	r0, ip, r2
    9318:	e2822001 	add	r2, r2, #1, 0
    931c:	0a000008 	beq	9344 <va_printk+0x320>
    9320:	e3a0e020 	mov	lr, #32, 0
    9324:	e2829001 	add	r9, r2, #1, 0
    9328:	e1550009 	cmp	r5, r9
    932c:	e5c0e000 	strb	lr, [r0]
    9330:	da000003 	ble	9344 <va_printk+0x320>
    9334:	e2822002 	add	r2, r2, #2, 0
    9338:	e1550002 	cmp	r5, r2
    933c:	e5c0e001 	strb	lr, [r0, #1]
    9340:	c5c0e002 	strbgt	lr, [r0, #2]
    9344:	e3a0e000 	mov	lr, #0, 0
    9348:	e28d0098 	add	r0, sp, #152, 0	; 0x98
    934c:	e08c2001 	add	r2, ip, r1
    9350:	e0422000 	sub	r2, r2, r0
    9354:	e352007f 	cmp	r2, #127, 0	; 0x7f
    9358:	c242207f 	subgt	r2, r2, #127, 0	; 0x7f
    935c:	e08c3003 	add	r3, ip, r3
    9360:	c0800002 	addgt	r0, r0, r2
    9364:	e1530000 	cmp	r3, r0
    9368:	e7cce001 	strb	lr, [ip, r1]
    936c:	3a00006c 	bcc	9524 <va_printk+0x500>
    9370:	e283c001 	add	ip, r3, #1, 0
    9374:	e1a0300c 	mov	r3, ip
    9378:	e28d5018 	add	r5, sp, #24, 0
    937c:	e2452001 	sub	r2, r5, #1, 0
    9380:	e5731001 	ldrb	r1, [r3, #-1]!
    9384:	e1500003 	cmp	r0, r3
    9388:	e5e21001 	strb	r1, [r2, #1]!
    938c:	1afffffb 	bne	9380 <va_printk+0x35c>
    9390:	e04c3000 	sub	r3, ip, r0
    9394:	e0853003 	add	r3, r5, r3
    9398:	ea00003a 	b	9488 <va_printk+0x464>
    939c:	e28d1098 	add	r1, sp, #152, 0	; 0x98
    93a0:	e1a03001 	mov	r3, r1
    93a4:	e4980004 	ldr	r0, [r8], #4
    93a8:	e200c001 	and	ip, r0, #1, 0
    93ac:	e7dac00c 	ldrb	ip, [sl, ip]
    93b0:	e3500001 	cmp	r0, #1, 0
    93b4:	e1a02003 	mov	r2, r3
    93b8:	e1a000a0 	lsr	r0, r0, #1
    93bc:	e4c3c001 	strb	ip, [r3], #1
    93c0:	8afffff8 	bhi	93a8 <va_printk+0x384>
    93c4:	e0430001 	sub	r0, r3, r1
    93c8:	e1550000 	cmp	r5, r0
    93cc:	da000057 	ble	9530 <va_printk+0x50c>
    93d0:	e045c000 	sub	ip, r5, r0
    93d4:	e24ce001 	sub	lr, ip, #1, 0
    93d8:	e35e0002 	cmp	lr, #2, 0
    93dc:	e1a0e003 	mov	lr, r3
    93e0:	9a00000a 	bls	9410 <va_printk+0x3ec>
    93e4:	e3cc9003 	bic	r9, ip, #3, 0
    93e8:	e0899003 	add	r9, r9, r3
    93ec:	e59fb22c 	ldr	fp, [pc, #556]	; 9620 <va_printk+0x5fc>
    93f0:	e48eb004 	str	fp, [lr], #4
    93f4:	e15e0009 	cmp	lr, r9
    93f8:	1afffffb 	bne	93ec <va_printk+0x3c8>
    93fc:	e3cce003 	bic	lr, ip, #3, 0
    9400:	e15e000c 	cmp	lr, ip
    9404:	e080000e 	add	r0, r0, lr
    9408:	e083e00e 	add	lr, r3, lr
    940c:	0a000008 	beq	9434 <va_printk+0x410>
    9410:	e3a09020 	mov	r9, #32, 0
    9414:	e280b001 	add	fp, r0, #1, 0
    9418:	e155000b 	cmp	r5, fp
    941c:	e5ce9000 	strb	r9, [lr]
    9420:	da000003 	ble	9434 <va_printk+0x410>
    9424:	e2800002 	add	r0, r0, #2, 0
    9428:	e1550000 	cmp	r5, r0
    942c:	e5ce9001 	strb	r9, [lr, #1]
    9430:	c5ce9002 	strbgt	r9, [lr, #2]
    9434:	e3a0e000 	mov	lr, #0, 0
    9438:	e083000c 	add	r0, r3, ip
    943c:	e0400001 	sub	r0, r0, r1
    9440:	e350007f 	cmp	r0, #127, 0	; 0x7f
    9444:	e082200c 	add	r2, r2, ip
    9448:	e7c3e00c 	strb	lr, [r3, ip]
    944c:	da000001 	ble	9458 <va_printk+0x434>
    9450:	e240007f 	sub	r0, r0, #127, 0	; 0x7f
    9454:	e0811000 	add	r1, r1, r0
    9458:	e1510002 	cmp	r1, r2
    945c:	8a000030 	bhi	9524 <va_printk+0x500>
    9460:	e2822001 	add	r2, r2, #1, 0
    9464:	e1a03002 	mov	r3, r2
    9468:	e28d5018 	add	r5, sp, #24, 0
    946c:	e245c001 	sub	ip, r5, #1, 0
    9470:	e5730001 	ldrb	r0, [r3, #-1]!
    9474:	e1530001 	cmp	r3, r1
    9478:	e5ec0001 	strb	r0, [ip, #1]!
    947c:	1afffffb 	bne	9470 <va_printk+0x44c>
    9480:	e0423003 	sub	r3, r2, r3
    9484:	e0853003 	add	r3, r5, r3
    9488:	e3a02000 	mov	r2, #0, 0
    948c:	e5c32000 	strb	r2, [r3]
    9490:	eaffff39 	b	917c <va_printk+0x158>
    9494:	e4985004 	ldr	r5, [r8], #4
    9498:	eaffff37 	b	917c <va_printk+0x158>
    949c:	e3a02003 	mov	r2, #3, 0
    94a0:	e1a00006 	mov	r0, r6
    94a4:	e59f1168 	ldr	r1, [pc, #360]	; 9614 <va_printk+0x5f0>
    94a8:	eb00031b 	bl	a11c <strncmp>
    94ac:	e2503000 	subs	r3, r0, #0, 0
    94b0:	1a00004b 	bne	95e4 <va_printk+0x5c0>
    94b4:	e1a06003 	mov	r6, r3
    94b8:	e1a0200b 	mov	r2, fp
    94bc:	e58d3000 	str	r3, [sp]
    94c0:	e28d1018 	add	r1, sp, #24, 0
    94c4:	e1a03005 	mov	r3, r5
    94c8:	e3a0000a 	mov	r0, #10, 0
    94cc:	ebfffdf2 	bl	8c9c <emit.constprop.0>
    94d0:	e1a0c000 	mov	ip, r0
    94d4:	e1a03005 	mov	r3, r5
    94d8:	e1a02009 	mov	r2, r9
    94dc:	e28d1098 	add	r1, sp, #152, 0	; 0x98
    94e0:	e3a0000a 	mov	r0, #10, 0
    94e4:	e58d6000 	str	r6, [sp]
    94e8:	e1a0500c 	mov	r5, ip
    94ec:	ebfffdea 	bl	8c9c <emit.constprop.0>
    94f0:	e59f112c 	ldr	r1, [pc, #300]	; 9624 <va_printk+0x600>
    94f4:	e28d0018 	add	r0, sp, #24, 0
    94f8:	eb0002f0 	bl	a0c0 <strcmp>
    94fc:	e3500000 	cmp	r0, #0, 0
    9500:	e28d1098 	add	r1, sp, #152, 0	; 0x98
    9504:	e28d0018 	add	r0, sp, #24, 0
    9508:	1a000002 	bne	9518 <va_printk+0x4f4>
    950c:	eb0002fc 	bl	a104 <strcpy>
    9510:	e59d6014 	ldr	r6, [sp, #20]
    9514:	eaffff18 	b	917c <va_printk+0x158>
    9518:	eb0002dd 	bl	a094 <strcat>
    951c:	e59d6014 	ldr	r6, [sp, #20]
    9520:	eaffff15 	b	917c <va_printk+0x158>
    9524:	e28d5018 	add	r5, sp, #24, 0
    9528:	e1a03005 	mov	r3, r5
    952c:	eaffffd5 	b	9488 <va_printk+0x464>
    9530:	e3a0c000 	mov	ip, #0, 0
    9534:	e350007f 	cmp	r0, #127, 0	; 0x7f
    9538:	e5c3c000 	strb	ip, [r3]
    953c:	caffffc3 	bgt	9450 <va_printk+0x42c>
    9540:	eaffffc6 	b	9460 <va_printk+0x43c>
    9544:	e3a02000 	mov	r2, #0, 0
    9548:	e28d3098 	add	r3, sp, #152, 0	; 0x98
    954c:	e1a00003 	mov	r0, r3
    9550:	e5cd2099 	strb	r2, [sp, #153]	; 0x99
    9554:	eaffff85 	b	9370 <va_printk+0x34c>
    9558:	e3a03000 	mov	r3, #0, 0
    955c:	e1a01002 	mov	r1, r2
    9560:	e5c63001 	strb	r3, [r6, #1]
    9564:	e59f00bc 	ldr	r0, [pc, #188]	; 9628 <va_printk+0x604>
    9568:	ebfffda7 	bl	8c0c <printk>
    956c:	e59f30b8 	ldr	r3, [pc, #184]	; 962c <va_printk+0x608>
    9570:	e59d0010 	ldr	r0, [sp, #16]
    9574:	e5933000 	ldr	r3, [r3]
    9578:	e12fff33 	blx	r3
    957c:	e3a030e2 	mov	r3, #226, 0	; 0xe2
    9580:	e59f20a8 	ldr	r2, [pc, #168]	; 9630 <va_printk+0x60c>
    9584:	e59f10a8 	ldr	r1, [pc, #168]	; 9634 <va_printk+0x610>
    9588:	e59f00a8 	ldr	r0, [pc, #168]	; 9638 <va_printk+0x614>
    958c:	ebfffd9e 	bl	8c0c <printk>
    9590:	eb00002e 	bl	9650 <clean_reboot>
    9594:	e3a030be 	mov	r3, #190, 0	; 0xbe
    9598:	e59f2090 	ldr	r2, [pc, #144]	; 9630 <va_printk+0x60c>
    959c:	e59f1090 	ldr	r1, [pc, #144]	; 9634 <va_printk+0x610>
    95a0:	e59f0094 	ldr	r0, [pc, #148]	; 963c <va_printk+0x618>
    95a4:	ebfffd98 	bl	8c0c <printk>
    95a8:	eb000028 	bl	9650 <clean_reboot>
    95ac:	e28dc099 	add	ip, sp, #153, 0	; 0x99
    95b0:	e1a0000c 	mov	r0, ip
    95b4:	e3a02001 	mov	r2, #1, 0
    95b8:	eaffff58 	b	9320 <va_printk+0x2fc>
    95bc:	e1a0400b 	mov	r4, fp
    95c0:	eafffee0 	b	9148 <va_printk+0x124>
    95c4:	e3a03098 	mov	r3, #152, 0	; 0x98
    95c8:	e59f2070 	ldr	r2, [pc, #112]	; 9640 <va_printk+0x61c>
    95cc:	e59f1060 	ldr	r1, [pc, #96]	; 9634 <va_printk+0x610>
    95d0:	e58d2000 	str	r2, [sp]
    95d4:	e59f0068 	ldr	r0, [pc, #104]	; 9644 <va_printk+0x620>
    95d8:	e59f2050 	ldr	r2, [pc, #80]	; 9630 <va_printk+0x60c>
    95dc:	ebfffd8a 	bl	8c0c <printk>
    95e0:	eb00001a 	bl	9650 <clean_reboot>
    95e4:	e3a030b6 	mov	r3, #182, 0	; 0xb6
    95e8:	e59f2040 	ldr	r2, [pc, #64]	; 9630 <va_printk+0x60c>
    95ec:	e59f1040 	ldr	r1, [pc, #64]	; 9634 <va_printk+0x610>
    95f0:	e59f0050 	ldr	r0, [pc, #80]	; 9648 <va_printk+0x624>
    95f4:	e58d6000 	str	r6, [sp]
    95f8:	ebfffd83 	bl	8c0c <printk>
    95fc:	eb000013 	bl	9650 <clean_reboot>
    9600:	e3a0309f 	mov	r3, #159, 0	; 0x9f
    9604:	e59f2040 	ldr	r2, [pc, #64]	; 964c <va_printk+0x628>
    9608:	eaffffef 	b	95cc <va_printk+0x5a8>
    960c:	0000a6e4 	andeq	sl, r0, r4, ror #13
    9610:	0000a708 	andeq	sl, r0, r8, lsl #14
    9614:	0000a71c 	andeq	sl, r0, ip, lsl r7
    9618:	0000a70c 	andeq	sl, r0, ip, lsl #14
    961c:	0000a714 	andeq	sl, r0, r4, lsl r7
    9620:	20202020 	eorcs	r2, r0, r0, lsr #32
    9624:	0000a580 	andeq	sl, r0, r0, lsl #11
    9628:	0000a7ac 	andeq	sl, r0, ip, lsr #15
    962c:	0000aa28 	andeq	sl, r0, r8, lsr #20
    9630:	0000a814 	andeq	sl, r0, r4, lsl r8
    9634:	0000a6bc 			; <UNDEFINED> instruction: 0x0000a6bc
    9638:	0000a7dc 	ldrdeq	sl, [r0], -ip
    963c:	0000a784 	andeq	sl, r0, r4, lsl #15
    9640:	0000a6fc 	strdeq	sl, [r0], -ip
    9644:	0000a268 	andeq	sl, r0, r8, ror #4
    9648:	0000a75c 	andeq	sl, r0, ip, asr r7
    964c:	0000a720 	andeq	sl, r0, r0, lsr #14

00009650 <clean_reboot>:
    9650:	e59f301c 	ldr	r3, [pc, #28]	; 9674 <clean_reboot+0x24>
    9654:	e92d4010 	push	{r4, lr}
    9658:	e5933000 	ldr	r3, [r3]
    965c:	e59f0014 	ldr	r0, [pc, #20]	; 9678 <clean_reboot+0x28>
    9660:	e12fff33 	blx	r3
    9664:	eb00011b 	bl	9ad8 <uart_flush_tx>
    9668:	e3a0000a 	mov	r0, #10, 0
    966c:	eb000082 	bl	987c <delay_ms>
    9670:	eb00004b 	bl	97a4 <rpi_reboot>
    9674:	0000aa28 	andeq	sl, r0, r8, lsr #20
    9678:	0000a820 	andeq	sl, r0, r0, lsr #16

0000967c <_cstart>:
    967c:	e92d4070 	push	{r4, r5, r6, lr}
    9680:	eb00003b 	bl	9774 <custom_loader>
    9684:	e59f20e0 	ldr	r2, [pc, #224]	; 976c <_cstart+0xf0>
    9688:	e59fc0e0 	ldr	ip, [pc, #224]	; 9770 <_cstart+0xf4>
    968c:	e152000c 	cmp	r2, ip
    9690:	2a00002e 	bcs	9750 <_cstart+0xd4>
    9694:	e24c1001 	sub	r1, ip, #1, 0
    9698:	e0411002 	sub	r1, r1, r2
    969c:	e3510017 	cmp	r1, #23, 0
    96a0:	e1a03122 	lsr	r3, r2, #2
    96a4:	e1a01121 	lsr	r1, r1, #2
    96a8:	e2811001 	add	r1, r1, #1, 0
    96ac:	e2033001 	and	r3, r3, #1, 0
    96b0:	9a00002b 	bls	9764 <_cstart+0xe8>
    96b4:	e3530000 	cmp	r3, #0, 0
    96b8:	11a00002 	movne	r0, r2
    96bc:	13a0e000 	movne	lr, #0, 0
    96c0:	e3a04000 	mov	r4, #0, 0
    96c4:	e3a05000 	mov	r5, #0, 0
    96c8:	e0411003 	sub	r1, r1, r3
    96cc:	01a00002 	moveq	r0, r2
    96d0:	e0823103 	add	r3, r2, r3, lsl #2
    96d4:	e1a020a1 	lsr	r2, r1, #1
    96d8:	1480e004 	strne	lr, [r0], #4
    96dc:	e0832182 	add	r2, r3, r2, lsl #3
    96e0:	e0c340f8 	strd	r4, [r3], #8
    96e4:	e1520003 	cmp	r2, r3
    96e8:	1afffffc 	bne	96e0 <_cstart+0x64>
    96ec:	e3c13001 	bic	r3, r1, #1, 0
    96f0:	e1510003 	cmp	r1, r3
    96f4:	e0803103 	add	r3, r0, r3, lsl #2
    96f8:	0a000014 	beq	9750 <_cstart+0xd4>
    96fc:	e1a01003 	mov	r1, r3
    9700:	e3a02000 	mov	r2, #0, 0
    9704:	e4812004 	str	r2, [r1], #4
    9708:	e151000c 	cmp	r1, ip
    970c:	2a00000f 	bcs	9750 <_cstart+0xd4>
    9710:	e2831008 	add	r1, r3, #8, 0
    9714:	e151000c 	cmp	r1, ip
    9718:	e5832004 	str	r2, [r3, #4]
    971c:	2a00000b 	bcs	9750 <_cstart+0xd4>
    9720:	e283100c 	add	r1, r3, #12, 0
    9724:	e151000c 	cmp	r1, ip
    9728:	e5832008 	str	r2, [r3, #8]
    972c:	2a000007 	bcs	9750 <_cstart+0xd4>
    9730:	e2831010 	add	r1, r3, #16, 0
    9734:	e151000c 	cmp	r1, ip
    9738:	e583200c 	str	r2, [r3, #12]
    973c:	2a000003 	bcs	9750 <_cstart+0xd4>
    9740:	e2831014 	add	r1, r3, #20, 0
    9744:	e151000c 	cmp	r1, ip
    9748:	e5832010 	str	r2, [r3, #16]
    974c:	35832014 	strcc	r2, [r3, #20]
    9750:	eb000082 	bl	9960 <uart_init>
    9754:	e3a03001 	mov	r3, #1, 0
    9758:	ee0f3f1c 	mcr	15, 0, r3, cr15, cr12, {0}
    975c:	ebfffa4f 	bl	80a0 <notmain>
    9760:	ebffffba 	bl	9650 <clean_reboot>
    9764:	e1a03002 	mov	r3, r2
    9768:	eaffffe3 	b	96fc <_cstart+0x80>
    976c:	0000aa40 	andeq	sl, r0, r0, asr #20
    9770:	0000ae68 	andeq	sl, r0, r8, ror #28

00009774 <custom_loader>:
    9774:	e12fff1e 	bx	lr

00009778 <at_user_level>:
    9778:	e10f0000 	mrs	r0, CPSR
    977c:	e200001f 	and	r0, r0, #31, 0
    9780:	e2400010 	sub	r0, r0, #16, 0
    9784:	e16f0f10 	clz	r0, r0
    9788:	e1a002a0 	lsr	r0, r0, #5
    978c:	e12fff1e 	bx	lr

00009790 <set_user_level>:
    9790:	e10f3000 	mrs	r3, CPSR
    9794:	e3c3301f 	bic	r3, r3, #31, 0
    9798:	e3833010 	orr	r3, r3, #16, 0
    979c:	e129f003 	msr	CPSR_fc, r3
    97a0:	e12fff1e 	bx	lr

000097a4 <rpi_reboot>:
    97a4:	e92d4010 	push	{r4, lr}
    97a8:	e10f3000 	mrs	r3, CPSR
    97ac:	e203301f 	and	r3, r3, #31, 0
    97b0:	e3530010 	cmp	r3, #16, 0
    97b4:	1a000003 	bne	97c8 <rpi_reboot+0x24>
    97b8:	e10f3000 	mrs	r3, CPSR
    97bc:	e3c3301f 	bic	r3, r3, #31, 0
    97c0:	e3833010 	orr	r3, r3, #16, 0
    97c4:	e129f003 	msr	CPSR_fc, r3
    97c8:	eb00025f 	bl	a14c <reboot_callout>
    97cc:	eb0000c1 	bl	9ad8 <uart_flush_tx>
    97d0:	e3a0000a 	mov	r0, #10, 0
    97d4:	eb000028 	bl	987c <delay_ms>
    97d8:	e59f1014 	ldr	r1, [pc, #20]	; 97f4 <rpi_reboot+0x50>
    97dc:	e59f0014 	ldr	r0, [pc, #20]	; 97f8 <rpi_reboot+0x54>
    97e0:	ebfffa0f 	bl	8024 <PUT32>
    97e4:	e59f1010 	ldr	r1, [pc, #16]	; 97fc <rpi_reboot+0x58>
    97e8:	e59f0010 	ldr	r0, [pc, #16]	; 9800 <rpi_reboot+0x5c>
    97ec:	ebfffa0c 	bl	8024 <PUT32>
    97f0:	eafffffe 	b	97f0 <rpi_reboot+0x4c>
    97f4:	5a000001 	bpl	9800 <rpi_reboot+0x5c>
    97f8:	20100024 	andscs	r0, r0, r4, lsr #32
    97fc:	5a000020 	bpl	9884 <delay_ms+0x8>
    9800:	2010001c 	andscs	r0, r0, ip, lsl r0

00009804 <timer_get_usec_raw>:
    9804:	e59f0000 	ldr	r0, [pc]	; 980c <timer_get_usec_raw+0x8>
    9808:	eafffa07 	b	802c <GET32>
    980c:	20003004 	andcs	r3, r0, r4

00009810 <timer_get_usec>:
    9810:	e92d4010 	push	{r4, lr}
    9814:	eb00024d 	bl	a150 <dev_barrier>
    9818:	e59f0010 	ldr	r0, [pc, #16]	; 9830 <timer_get_usec+0x20>
    981c:	ebfffa02 	bl	802c <GET32>
    9820:	e1a04000 	mov	r4, r0
    9824:	eb000249 	bl	a150 <dev_barrier>
    9828:	e1a00004 	mov	r0, r4
    982c:	e8bd8010 	pop	{r4, pc}
    9830:	20003004 	andcs	r3, r0, r4

00009834 <delay_us>:
    9834:	e92d41f0 	push	{r4, r5, r6, r7, r8, lr}
    9838:	e1a06000 	mov	r6, r0
    983c:	eb000243 	bl	a150 <dev_barrier>
    9840:	e59f0030 	ldr	r0, [pc, #48]	; 9878 <delay_us+0x44>
    9844:	ebfff9f8 	bl	802c <GET32>
    9848:	e1a05000 	mov	r5, r0
    984c:	eb00023f 	bl	a150 <dev_barrier>
    9850:	e59f7020 	ldr	r7, [pc, #32]	; 9878 <delay_us+0x44>
    9854:	eb00023d 	bl	a150 <dev_barrier>
    9858:	e1a00007 	mov	r0, r7
    985c:	ebfff9f2 	bl	802c <GET32>
    9860:	e1a04000 	mov	r4, r0
    9864:	e0444005 	sub	r4, r4, r5
    9868:	eb000238 	bl	a150 <dev_barrier>
    986c:	e1540006 	cmp	r4, r6
    9870:	3afffff7 	bcc	9854 <delay_us+0x20>
    9874:	e8bd81f0 	pop	{r4, r5, r6, r7, r8, pc}
    9878:	20003004 	andcs	r3, r0, r4

0000987c <delay_ms>:
    987c:	e92d41f0 	push	{r4, r5, r6, r7, r8, lr}
    9880:	e0604280 	rsb	r4, r0, r0, lsl #5
    9884:	e0800104 	add	r0, r0, r4, lsl #2
    9888:	e1a04180 	lsl	r4, r0, #3
    988c:	eb00022f 	bl	a150 <dev_barrier>
    9890:	e59f0030 	ldr	r0, [pc, #48]	; 98c8 <delay_ms+0x4c>
    9894:	ebfff9e4 	bl	802c <GET32>
    9898:	e1a06000 	mov	r6, r0
    989c:	eb00022b 	bl	a150 <dev_barrier>
    98a0:	e59f7020 	ldr	r7, [pc, #32]	; 98c8 <delay_ms+0x4c>
    98a4:	eb000229 	bl	a150 <dev_barrier>
    98a8:	e1a00007 	mov	r0, r7
    98ac:	ebfff9de 	bl	802c <GET32>
    98b0:	e1a05000 	mov	r5, r0
    98b4:	e0455006 	sub	r5, r5, r6
    98b8:	eb000224 	bl	a150 <dev_barrier>
    98bc:	e1540005 	cmp	r4, r5
    98c0:	8afffff7 	bhi	98a4 <delay_ms+0x28>
    98c4:	e8bd81f0 	pop	{r4, r5, r6, r7, r8, pc}
    98c8:	20003004 	andcs	r3, r0, r4

000098cc <delay_sec>:
    98cc:	e92d41f0 	push	{r4, r5, r6, r7, r8, lr}
    98d0:	e0604280 	rsb	r4, r0, r0, lsl #5
    98d4:	e0644304 	rsb	r4, r4, r4, lsl #6
    98d8:	e0800184 	add	r0, r0, r4, lsl #3
    98dc:	e1a04300 	lsl	r4, r0, #6
    98e0:	eb00021a 	bl	a150 <dev_barrier>
    98e4:	e59f0030 	ldr	r0, [pc, #48]	; 991c <delay_sec+0x50>
    98e8:	ebfff9cf 	bl	802c <GET32>
    98ec:	e1a06000 	mov	r6, r0
    98f0:	eb000216 	bl	a150 <dev_barrier>
    98f4:	e59f7020 	ldr	r7, [pc, #32]	; 991c <delay_sec+0x50>
    98f8:	eb000214 	bl	a150 <dev_barrier>
    98fc:	e1a00007 	mov	r0, r7
    9900:	ebfff9c9 	bl	802c <GET32>
    9904:	e1a05000 	mov	r5, r0
    9908:	e0455006 	sub	r5, r5, r6
    990c:	eb00020f 	bl	a150 <dev_barrier>
    9910:	e1540005 	cmp	r4, r5
    9914:	8afffff7 	bhi	98f8 <delay_sec+0x2c>
    9918:	e8bd81f0 	pop	{r4, r5, r6, r7, r8, pc}
    991c:	20003004 	andcs	r3, r0, r4

00009920 <and_in32>:
    9920:	e92d4070 	push	{r4, r5, r6, lr}
    9924:	e1a04000 	mov	r4, r0
    9928:	e1a05001 	mov	r5, r1
    992c:	ebfff9be 	bl	802c <GET32>
    9930:	e0001005 	and	r1, r0, r5
    9934:	e1a00004 	mov	r0, r4
    9938:	ebfff9b9 	bl	8024 <PUT32>
    993c:	e8bd8070 	pop	{r4, r5, r6, pc}

00009940 <or_in32>:
    9940:	e92d4070 	push	{r4, r5, r6, lr}
    9944:	e1a04000 	mov	r4, r0
    9948:	e1a05001 	mov	r5, r1
    994c:	ebfff9b6 	bl	802c <GET32>
    9950:	e1801005 	orr	r1, r0, r5
    9954:	e1a00004 	mov	r0, r4
    9958:	ebfff9b1 	bl	8024 <PUT32>
    995c:	e8bd8070 	pop	{r4, r5, r6, pc}

00009960 <uart_init>:
    9960:	e92d4010 	push	{r4, lr}
    9964:	e3a01002 	mov	r1, #2, 0
    9968:	e3a0000e 	mov	r0, #14, 0
    996c:	eb000153 	bl	9ec0 <gpio_set_function>
    9970:	e3a01002 	mov	r1, #2, 0
    9974:	e3a0000f 	mov	r0, #15, 0
    9978:	eb000150 	bl	9ec0 <gpio_set_function>
    997c:	eb0001f3 	bl	a150 <dev_barrier>
    9980:	e3a01001 	mov	r1, #1, 0
    9984:	e59f0064 	ldr	r0, [pc, #100]	; 99f0 <uart_init+0x90>
    9988:	ebffffec 	bl	9940 <or_in32>
    998c:	eb0001ef 	bl	a150 <dev_barrier>
    9990:	e59f405c 	ldr	r4, [pc, #92]	; 99f4 <uart_init+0x94>
    9994:	e3a01000 	mov	r1, #0, 0
    9998:	e1a00004 	mov	r0, r4
    999c:	ebfff9a0 	bl	8024 <PUT32>
    99a0:	e3a01000 	mov	r1, #0, 0
    99a4:	e59f004c 	ldr	r0, [pc, #76]	; 99f8 <uart_init+0x98>
    99a8:	ebfff99d 	bl	8024 <PUT32>
    99ac:	e3a01003 	mov	r1, #3, 0
    99b0:	e59f0044 	ldr	r0, [pc, #68]	; 99fc <uart_init+0x9c>
    99b4:	ebfff99a 	bl	8024 <PUT32>
    99b8:	e3a01000 	mov	r1, #0, 0
    99bc:	e59f003c 	ldr	r0, [pc, #60]	; 9a00 <uart_init+0xa0>
    99c0:	ebfff997 	bl	8024 <PUT32>
    99c4:	e3a010c7 	mov	r1, #199, 0	; 0xc7
    99c8:	e59f0034 	ldr	r0, [pc, #52]	; 9a04 <uart_init+0xa4>
    99cc:	ebfff994 	bl	8024 <PUT32>
    99d0:	e59f1030 	ldr	r1, [pc, #48]	; 9a08 <uart_init+0xa8>
    99d4:	e59f0030 	ldr	r0, [pc, #48]	; 9a0c <uart_init+0xac>
    99d8:	ebfff991 	bl	8024 <PUT32>
    99dc:	e3a01003 	mov	r1, #3, 0
    99e0:	e1a00004 	mov	r0, r4
    99e4:	ebfff98e 	bl	8024 <PUT32>
    99e8:	eb0001d8 	bl	a150 <dev_barrier>
    99ec:	e8bd8010 	pop	{r4, pc}
    99f0:	20215004 	eorcs	r5, r1, r4
    99f4:	20215060 	eorcs	r5, r1, r0, rrx
    99f8:	20215044 	eorcs	r5, r1, r4, asr #32
    99fc:	2021504c 	eorcs	r5, r1, ip, asr #32
    9a00:	20215050 	eorcs	r5, r1, r0, asr r0
    9a04:	20215048 	eorcs	r5, r1, r8, asr #32
    9a08:	0000010e 	andeq	r0, r0, lr, lsl #2
    9a0c:	20215068 	eorcs	r5, r1, r8, rrx

00009a10 <uart_can_getc>:
    9a10:	e92d4010 	push	{r4, lr}
    9a14:	e59f0008 	ldr	r0, [pc, #8]	; 9a24 <uart_can_getc+0x14>
    9a18:	ebfff983 	bl	802c <GET32>
    9a1c:	e2000001 	and	r0, r0, #1, 0
    9a20:	e8bd8010 	pop	{r4, pc}
    9a24:	20215064 	eorcs	r5, r1, r4, rrx

00009a28 <uart_can_putc>:
    9a28:	e92d4010 	push	{r4, lr}
    9a2c:	e59f0010 	ldr	r0, [pc, #16]	; 9a44 <uart_can_putc+0x1c>
    9a30:	ebfff97d 	bl	802c <GET32>
    9a34:	e3100002 	tst	r0, #2, 0
    9a38:	13a00001 	movne	r0, #1, 0
    9a3c:	03a00000 	moveq	r0, #0, 0
    9a40:	e8bd8010 	pop	{r4, pc}
    9a44:	20215064 	eorcs	r5, r1, r4, rrx

00009a48 <uart_getc>:
    9a48:	e92d4010 	push	{r4, lr}
    9a4c:	eb0001bf 	bl	a150 <dev_barrier>
    9a50:	ebffffee 	bl	9a10 <uart_can_getc>
    9a54:	e3500000 	cmp	r0, #0, 0
    9a58:	0afffffc 	beq	9a50 <uart_getc+0x8>
    9a5c:	e59f0010 	ldr	r0, [pc, #16]	; 9a74 <uart_getc+0x2c>
    9a60:	ebfff971 	bl	802c <GET32>
    9a64:	e6ef4070 	uxtb	r4, r0
    9a68:	eb0001b8 	bl	a150 <dev_barrier>
    9a6c:	e1a00004 	mov	r0, r4
    9a70:	e8bd8010 	pop	{r4, pc}
    9a74:	20215040 	eorcs	r5, r1, r0, asr #32

00009a78 <uart_putc>:
    9a78:	e92d4010 	push	{r4, lr}
    9a7c:	e1a04000 	mov	r4, r0
    9a80:	eb0001b2 	bl	a150 <dev_barrier>
    9a84:	ebffffe7 	bl	9a28 <uart_can_putc>
    9a88:	e3500000 	cmp	r0, #0, 0
    9a8c:	0afffffc 	beq	9a84 <uart_putc+0xc>
    9a90:	e6ef1074 	uxtb	r1, r4
    9a94:	e59f0008 	ldr	r0, [pc, #8]	; 9aa4 <uart_putc+0x2c>
    9a98:	ebfff961 	bl	8024 <PUT32>
    9a9c:	eb0001ab 	bl	a150 <dev_barrier>
    9aa0:	e8bd8010 	pop	{r4, pc}
    9aa4:	20215040 	eorcs	r5, r1, r0, asr #32

00009aa8 <uart_has_data>:
    9aa8:	e92d4010 	push	{r4, lr}
    9aac:	eb0001a7 	bl	a150 <dev_barrier>
    9ab0:	ebffffd6 	bl	9a10 <uart_can_getc>
    9ab4:	e8bd8010 	pop	{r4, pc}

00009ab8 <uart_tx_is_empty>:
    9ab8:	e92d4010 	push	{r4, lr}
    9abc:	eb0001a3 	bl	a150 <dev_barrier>
    9ac0:	e59f000c 	ldr	r0, [pc, #12]	; 9ad4 <uart_tx_is_empty+0x1c>
    9ac4:	ebfff958 	bl	802c <GET32>
    9ac8:	e1a004a0 	lsr	r0, r0, #9
    9acc:	e2000001 	and	r0, r0, #1, 0
    9ad0:	e8bd8010 	pop	{r4, pc}
    9ad4:	20215064 	eorcs	r5, r1, r4, rrx

00009ad8 <uart_flush_tx>:
    9ad8:	e92d4010 	push	{r4, lr}
    9adc:	ebfffff5 	bl	9ab8 <uart_tx_is_empty>
    9ae0:	e3500000 	cmp	r0, #0, 0
    9ae4:	0afffffc 	beq	9adc <uart_flush_tx+0x4>
    9ae8:	e8bd8010 	pop	{r4, pc}

00009aec <uart_disable>:
    9aec:	e92d4010 	push	{r4, lr}
    9af0:	ebfffff8 	bl	9ad8 <uart_flush_tx>
    9af4:	eb000195 	bl	a150 <dev_barrier>
    9af8:	e3e01001 	mvn	r1, #1, 0
    9afc:	e59f0008 	ldr	r0, [pc, #8]	; 9b0c <uart_disable+0x20>
    9b00:	ebffff86 	bl	9920 <and_in32>
    9b04:	eb000191 	bl	a150 <dev_barrier>
    9b08:	e8bd8010 	pop	{r4, pc}
    9b0c:	20215004 	eorcs	r5, r1, r4

00009b10 <kmalloc_heap_end>:
    9b10:	e59f3004 	ldr	r3, [pc, #4]	; 9b1c <kmalloc_heap_end+0xc>
    9b14:	e5930000 	ldr	r0, [r3]
    9b18:	e12fff1e 	bx	lr
    9b1c:	0000aa2c 	andeq	sl, r0, ip, lsr #20

00009b20 <kmalloc_heap_start>:
    9b20:	e59f3004 	ldr	r3, [pc, #4]	; 9b2c <kmalloc_heap_start+0xc>
    9b24:	e5930004 	ldr	r0, [r3, #4]
    9b28:	e12fff1e 	bx	lr
    9b2c:	0000aa2c 	andeq	sl, r0, ip, lsr #20

00009b30 <kmalloc_heap_ptr>:
    9b30:	e59f3004 	ldr	r3, [pc, #4]	; 9b3c <kmalloc_heap_ptr+0xc>
    9b34:	e5930000 	ldr	r0, [r3]
    9b38:	e12fff1e 	bx	lr
    9b3c:	0000aa2c 	andeq	sl, r0, ip, lsr #20

00009b40 <kmalloc_init_set_start>:
    9b40:	e52de004 	push	{lr}		; (str lr, [sp, #-4]!)
    9b44:	e24dd00c 	sub	sp, sp, #12, 0
    9b48:	e3510000 	cmp	r1, #0, 0
    9b4c:	0a00000a 	beq	9b7c <kmalloc_init_set_start+0x3c>
    9b50:	e59f306c 	ldr	r3, [pc, #108]	; 9bc4 <kmalloc_init_set_start+0x84>
    9b54:	e5933000 	ldr	r3, [r3]
    9b58:	e1530000 	cmp	r3, r0
    9b5c:	8a00000e 	bhi	9b9c <kmalloc_init_set_start+0x5c>
    9b60:	e59f305c 	ldr	r3, [pc, #92]	; 9bc4 <kmalloc_init_set_start+0x84>
    9b64:	e5830000 	str	r0, [r3]
    9b68:	e5830004 	str	r0, [r3, #4]
    9b6c:	e0800001 	add	r0, r0, r1
    9b70:	e5830008 	str	r0, [r3, #8]
    9b74:	e28dd00c 	add	sp, sp, #12, 0
    9b78:	e49df004 	pop	{pc}		; (ldr pc, [sp], #4)
    9b7c:	e59f3044 	ldr	r3, [pc, #68]	; 9bc8 <kmalloc_init_set_start+0x88>
    9b80:	e58d3000 	str	r3, [sp]
    9b84:	e3a03030 	mov	r3, #48, 0	; 0x30
    9b88:	e59f203c 	ldr	r2, [pc, #60]	; 9bcc <kmalloc_init_set_start+0x8c>
    9b8c:	e59f103c 	ldr	r1, [pc, #60]	; 9bd0 <kmalloc_init_set_start+0x90>
    9b90:	e59f003c 	ldr	r0, [pc, #60]	; 9bd4 <kmalloc_init_set_start+0x94>
    9b94:	ebfffc1c 	bl	8c0c <printk>
    9b98:	ebfffeac 	bl	9650 <clean_reboot>
    9b9c:	e59f3020 	ldr	r3, [pc, #32]	; 9bc4 <kmalloc_init_set_start+0x84>
    9ba0:	e5933008 	ldr	r3, [r3, #8]
    9ba4:	e58d3004 	str	r3, [sp, #4]
    9ba8:	e58d0000 	str	r0, [sp]
    9bac:	e3a03034 	mov	r3, #52, 0	; 0x34
    9bb0:	e59f2014 	ldr	r2, [pc, #20]	; 9bcc <kmalloc_init_set_start+0x8c>
    9bb4:	e59f1014 	ldr	r1, [pc, #20]	; 9bd0 <kmalloc_init_set_start+0x90>
    9bb8:	e59f0018 	ldr	r0, [pc, #24]	; 9bd8 <kmalloc_init_set_start+0x98>
    9bbc:	ebfffc12 	bl	8c0c <printk>
    9bc0:	ebfffea2 	bl	9650 <clean_reboot>
    9bc4:	0000aa2c 	andeq	sl, r0, ip, lsr #20
    9bc8:	0000a838 	andeq	sl, r0, r8, lsr r8
    9bcc:	0000a9c4 	andeq	sl, r0, r4, asr #19
    9bd0:	0000a82c 	andeq	sl, r0, ip, lsr #16
    9bd4:	0000a268 	andeq	sl, r0, r8, ror #4
    9bd8:	0000a844 	andeq	sl, r0, r4, asr #16

00009bdc <kmalloc_init>:
    9bdc:	e92d4010 	push	{r4, lr}
    9be0:	e59f303c 	ldr	r3, [pc, #60]	; 9c24 <kmalloc_init+0x48>
    9be4:	e5933000 	ldr	r3, [r3]
    9be8:	e3530000 	cmp	r3, #0, 0
    9bec:	1a000006 	bne	9c0c <kmalloc_init+0x30>
    9bf0:	e59f302c 	ldr	r3, [pc, #44]	; 9c24 <kmalloc_init+0x48>
    9bf4:	e3a02001 	mov	r2, #1, 0
    9bf8:	e5832000 	str	r2, [r3]
    9bfc:	e3a01201 	mov	r1, #268435456	; 0x10000000
    9c00:	e3a00601 	mov	r0, #1048576	; 0x100000
    9c04:	ebffffcd 	bl	9b40 <kmalloc_init_set_start>
    9c08:	e8bd8010 	pop	{r4, pc}
    9c0c:	e3a03040 	mov	r3, #64, 0	; 0x40
    9c10:	e59f2010 	ldr	r2, [pc, #16]	; 9c28 <kmalloc_init+0x4c>
    9c14:	e59f1010 	ldr	r1, [pc, #16]	; 9c2c <kmalloc_init+0x50>
    9c18:	e59f0010 	ldr	r0, [pc, #16]	; 9c30 <kmalloc_init+0x54>
    9c1c:	ebfffbfa 	bl	8c0c <printk>
    9c20:	ebfffe8a 	bl	9650 <clean_reboot>
    9c24:	0000ae64 	andeq	sl, r0, r4, ror #28
    9c28:	0000a9dc 	ldrdeq	sl, [r0], -ip
    9c2c:	0000a82c 	andeq	sl, r0, ip, lsr #16
    9c30:	0000a888 	andeq	sl, r0, r8, lsl #17

00009c34 <kmalloc_notzero>:
    9c34:	e52de004 	push	{lr}		; (str lr, [sp, #-4]!)
    9c38:	e24dd00c 	sub	sp, sp, #12, 0
    9c3c:	e3500000 	cmp	r0, #0, 0
    9c40:	0a00000a 	beq	9c70 <kmalloc_notzero+0x3c>
    9c44:	e2800007 	add	r0, r0, #7, 0
    9c48:	e3c03007 	bic	r3, r0, #7, 0
    9c4c:	e59f2060 	ldr	r2, [pc, #96]	; 9cb4 <kmalloc_notzero+0x80>
    9c50:	e5920000 	ldr	r0, [r2]
    9c54:	e0801003 	add	r1, r0, r3
    9c58:	e5821000 	str	r1, [r2]
    9c5c:	e5922008 	ldr	r2, [r2, #8]
    9c60:	e1510002 	cmp	r1, r2
    9c64:	8a000009 	bhi	9c90 <kmalloc_notzero+0x5c>
    9c68:	e28dd00c 	add	sp, sp, #12, 0
    9c6c:	e49df004 	pop	{pc}		; (ldr pc, [sp], #4)
    9c70:	e59f3040 	ldr	r3, [pc, #64]	; 9cb8 <kmalloc_notzero+0x84>
    9c74:	e58d3000 	str	r3, [sp]
    9c78:	e3a03048 	mov	r3, #72, 0	; 0x48
    9c7c:	e59f2038 	ldr	r2, [pc, #56]	; 9cbc <kmalloc_notzero+0x88>
    9c80:	e59f1038 	ldr	r1, [pc, #56]	; 9cc0 <kmalloc_notzero+0x8c>
    9c84:	e59f0038 	ldr	r0, [pc, #56]	; 9cc4 <kmalloc_notzero+0x90>
    9c88:	ebfffbdf 	bl	8c0c <printk>
    9c8c:	ebfffe6f 	bl	9650 <clean_reboot>
    9c90:	e0422000 	sub	r2, r2, r0
    9c94:	e58d2004 	str	r2, [sp, #4]
    9c98:	e58d3000 	str	r3, [sp]
    9c9c:	e3a0304e 	mov	r3, #78, 0	; 0x4e
    9ca0:	e59f2014 	ldr	r2, [pc, #20]	; 9cbc <kmalloc_notzero+0x88>
    9ca4:	e59f1014 	ldr	r1, [pc, #20]	; 9cc0 <kmalloc_notzero+0x8c>
    9ca8:	e59f0018 	ldr	r0, [pc, #24]	; 9cc8 <kmalloc_notzero+0x94>
    9cac:	ebfffbd6 	bl	8c0c <printk>
    9cb0:	ebfffe66 	bl	9650 <clean_reboot>
    9cb4:	0000aa2c 	andeq	sl, r0, ip, lsr #20
    9cb8:	0000a83c 	andeq	sl, r0, ip, lsr r8
    9cbc:	0000a9ec 	andeq	sl, r0, ip, ror #19
    9cc0:	0000a82c 	andeq	sl, r0, ip, lsr #16
    9cc4:	0000a268 	andeq	sl, r0, r8, ror #4
    9cc8:	0000a8b8 			; <UNDEFINED> instruction: 0x0000a8b8

00009ccc <kmalloc>:
    9ccc:	e92d4030 	push	{r4, r5, lr}
    9cd0:	e24dd00c 	sub	sp, sp, #12, 0
    9cd4:	e2504000 	subs	r4, r0, #0, 0
    9cd8:	0a000008 	beq	9d00 <kmalloc+0x34>
    9cdc:	e1a00004 	mov	r0, r4
    9ce0:	ebffffd3 	bl	9c34 <kmalloc_notzero>
    9ce4:	e1a05000 	mov	r5, r0
    9ce8:	e1a02004 	mov	r2, r4
    9cec:	e3a01000 	mov	r1, #0, 0
    9cf0:	ebfffba7 	bl	8b94 <memset>
    9cf4:	e1a00005 	mov	r0, r5
    9cf8:	e28dd00c 	add	sp, sp, #12, 0
    9cfc:	e8bd8030 	pop	{r4, r5, pc}
    9d00:	e59f3018 	ldr	r3, [pc, #24]	; 9d20 <kmalloc+0x54>
    9d04:	e58d3000 	str	r3, [sp]
    9d08:	e3a03054 	mov	r3, #84, 0	; 0x54
    9d0c:	e59f2010 	ldr	r2, [pc, #16]	; 9d24 <kmalloc+0x58>
    9d10:	e59f1010 	ldr	r1, [pc, #16]	; 9d28 <kmalloc+0x5c>
    9d14:	e59f0010 	ldr	r0, [pc, #16]	; 9d2c <kmalloc+0x60>
    9d18:	ebfffbbb 	bl	8c0c <printk>
    9d1c:	ebfffe4b 	bl	9650 <clean_reboot>
    9d20:	0000a83c 	andeq	sl, r0, ip, lsr r8
    9d24:	0000a9fc 	strdeq	sl, [r0], -ip
    9d28:	0000a82c 	andeq	sl, r0, ip, lsr #16
    9d2c:	0000a268 	andeq	sl, r0, r8, ror #4

00009d30 <kmalloc_aligned>:
    9d30:	e52de004 	push	{lr}		; (str lr, [sp, #-4]!)
    9d34:	e24dd00c 	sub	sp, sp, #12, 0
    9d38:	e3500000 	cmp	r0, #0, 0
    9d3c:	0a000014 	beq	9d94 <kmalloc_aligned+0x64>
    9d40:	e2613000 	rsb	r3, r1, #0, 0
    9d44:	e1d13003 	bics	r3, r1, r3
    9d48:	1a000019 	bne	9db4 <kmalloc_aligned+0x84>
    9d4c:	e3510008 	cmp	r1, #8, 0
    9d50:	33a01008 	movcc	r1, #8, 0
    9d54:	e59f30c0 	ldr	r3, [pc, #192]	; 9e1c <kmalloc_aligned+0xec>
    9d58:	e5932000 	ldr	r2, [r3]
    9d5c:	e2613000 	rsb	r3, r1, #0, 0
    9d60:	e1d1c003 	bics	ip, r1, r3
    9d64:	1a00001b 	bne	9dd8 <kmalloc_aligned+0xa8>
    9d68:	e0822001 	add	r2, r2, r1
    9d6c:	e2422001 	sub	r2, r2, #1, 0
    9d70:	e0033002 	and	r3, r3, r2
    9d74:	e2411001 	sub	r1, r1, #1, 0
    9d78:	e1110003 	tst	r1, r3
    9d7c:	1a00001d 	bne	9df8 <kmalloc_aligned+0xc8>
    9d80:	e59f2094 	ldr	r2, [pc, #148]	; 9e1c <kmalloc_aligned+0xec>
    9d84:	e5823000 	str	r3, [r2]
    9d88:	ebffffcf 	bl	9ccc <kmalloc>
    9d8c:	e28dd00c 	add	sp, sp, #12, 0
    9d90:	e49df004 	pop	{pc}		; (ldr pc, [sp], #4)
    9d94:	e59f3084 	ldr	r3, [pc, #132]	; 9e20 <kmalloc_aligned+0xf0>
    9d98:	e58d3000 	str	r3, [sp]
    9d9c:	e3a0305f 	mov	r3, #95, 0	; 0x5f
    9da0:	e59f207c 	ldr	r2, [pc, #124]	; 9e24 <kmalloc_aligned+0xf4>
    9da4:	e59f107c 	ldr	r1, [pc, #124]	; 9e28 <kmalloc_aligned+0xf8>
    9da8:	e59f007c 	ldr	r0, [pc, #124]	; 9e2c <kmalloc_aligned+0xfc>
    9dac:	ebfffb96 	bl	8c0c <printk>
    9db0:	ebfffe26 	bl	9650 <clean_reboot>
    9db4:	eb0000ac 	bl	a06c <rpi_reset_putc>
    9db8:	e59f3070 	ldr	r3, [pc, #112]	; 9e30 <kmalloc_aligned+0x100>
    9dbc:	e58d3000 	str	r3, [sp]
    9dc0:	e3a03060 	mov	r3, #96, 0	; 0x60
    9dc4:	e59f2058 	ldr	r2, [pc, #88]	; 9e24 <kmalloc_aligned+0xf4>
    9dc8:	e59f1058 	ldr	r1, [pc, #88]	; 9e28 <kmalloc_aligned+0xf8>
    9dcc:	e59f0060 	ldr	r0, [pc, #96]	; 9e34 <kmalloc_aligned+0x104>
    9dd0:	ebfffb8d 	bl	8c0c <printk>
    9dd4:	ebfffe1d 	bl	9650 <clean_reboot>
    9dd8:	e59f3058 	ldr	r3, [pc, #88]	; 9e38 <kmalloc_aligned+0x108>
    9ddc:	e58d3000 	str	r3, [sp]
    9de0:	e3a03011 	mov	r3, #17, 0
    9de4:	e59f2050 	ldr	r2, [pc, #80]	; 9e3c <kmalloc_aligned+0x10c>
    9de8:	e59f1038 	ldr	r1, [pc, #56]	; 9e28 <kmalloc_aligned+0xf8>
    9dec:	e59f0038 	ldr	r0, [pc, #56]	; 9e2c <kmalloc_aligned+0xfc>
    9df0:	ebfffb85 	bl	8c0c <printk>
    9df4:	ebfffe15 	bl	9650 <clean_reboot>
    9df8:	eb00009b 	bl	a06c <rpi_reset_putc>
    9dfc:	e59f303c 	ldr	r3, [pc, #60]	; 9e40 <kmalloc_aligned+0x110>
    9e00:	e58d3000 	str	r3, [sp]
    9e04:	e3a03068 	mov	r3, #104, 0	; 0x68
    9e08:	e59f2014 	ldr	r2, [pc, #20]	; 9e24 <kmalloc_aligned+0xf4>
    9e0c:	e59f1014 	ldr	r1, [pc, #20]	; 9e28 <kmalloc_aligned+0xf8>
    9e10:	e59f002c 	ldr	r0, [pc, #44]	; 9e44 <kmalloc_aligned+0x114>
    9e14:	ebfffb7c 	bl	8c0c <printk>
    9e18:	ebfffe0c 	bl	9650 <clean_reboot>
    9e1c:	0000aa2c 	andeq	sl, r0, ip, lsr #20
    9e20:	0000a83c 	andeq	sl, r0, ip, lsr r8
    9e24:	0000aa04 	andeq	sl, r0, r4, lsl #20
    9e28:	0000a82c 	andeq	sl, r0, ip, lsr #16
    9e2c:	0000a268 	andeq	sl, r0, r8, ror #4
    9e30:	0000a92c 	andeq	sl, r0, ip, lsr #18
    9e34:	0000a8f8 	strdeq	sl, [r0], -r8
    9e38:	0000a940 	andeq	sl, r0, r0, asr #18
    9e3c:	0000aa14 	andeq	sl, r0, r4, lsl sl
    9e40:	0000a978 	andeq	sl, r0, r8, ror r9
    9e44:	0000a94c 	andeq	sl, r0, ip, asr #18

00009e48 <kfree>:
    9e48:	e12fff1e 	bx	lr

00009e4c <kfree_all>:
    9e4c:	e59f3008 	ldr	r3, [pc, #8]	; 9e5c <kfree_all+0x10>
    9e50:	e5932004 	ldr	r2, [r3, #4]
    9e54:	e5832000 	str	r2, [r3]
    9e58:	e12fff1e 	bx	lr
    9e5c:	0000aa2c 	andeq	sl, r0, ip, lsr #20

00009e60 <kfree_pop>:
    9e60:	e59f3048 	ldr	r3, [pc, #72]	; 9eb0 <kfree_pop+0x50>
    9e64:	e5933004 	ldr	r3, [r3, #4]
    9e68:	e1530000 	cmp	r3, r0
    9e6c:	8a000006 	bhi	9e8c <kfree_pop+0x2c>
    9e70:	e59f3038 	ldr	r3, [pc, #56]	; 9eb0 <kfree_pop+0x50>
    9e74:	e5933008 	ldr	r3, [r3, #8]
    9e78:	e1530000 	cmp	r3, r0
    9e7c:	3a000002 	bcc	9e8c <kfree_pop+0x2c>
    9e80:	e59f3028 	ldr	r3, [pc, #40]	; 9eb0 <kfree_pop+0x50>
    9e84:	e5830000 	str	r0, [r3]
    9e88:	e12fff1e 	bx	lr
    9e8c:	e52de004 	push	{lr}		; (str lr, [sp, #-4]!)
    9e90:	e24dd00c 	sub	sp, sp, #12, 0
    9e94:	e58d0000 	str	r0, [sp]
    9e98:	e3a03077 	mov	r3, #119, 0	; 0x77
    9e9c:	e59f2010 	ldr	r2, [pc, #16]	; 9eb4 <kfree_pop+0x54>
    9ea0:	e59f1010 	ldr	r1, [pc, #16]	; 9eb8 <kfree_pop+0x58>
    9ea4:	e59f0010 	ldr	r0, [pc, #16]	; 9ebc <kfree_pop+0x5c>
    9ea8:	ebfffb57 	bl	8c0c <printk>
    9eac:	ebfffde7 	bl	9650 <clean_reboot>
    9eb0:	0000aa2c 	andeq	sl, r0, ip, lsr #20
    9eb4:	0000aa1c 	andeq	sl, r0, ip, lsl sl
    9eb8:	0000a82c 	andeq	sl, r0, ip, lsr #16
    9ebc:	0000a994 	muleq	r0, r4, r9

00009ec0 <gpio_set_function>:
    9ec0:	e350001f 	cmp	r0, #31, 0
    9ec4:	812fff1e 	bxhi	lr
    9ec8:	e3d13007 	bics	r3, r1, #7, 0
    9ecc:	e92d4070 	push	{r4, r5, r6, lr}
    9ed0:	e1a05001 	mov	r5, r1
    9ed4:	18bd8070 	popne	{r4, r5, r6, pc}
    9ed8:	e59f403c 	ldr	r4, [pc, #60]	; 9f1c <gpio_set_function+0x5c>
    9edc:	e0843094 	umull	r3, r4, r4, r0
    9ee0:	e1a041a4 	lsr	r4, r4, #3
    9ee4:	e2843302 	add	r3, r4, #134217728	; 0x8000000
    9ee8:	e2833702 	add	r3, r3, #524288	; 0x80000
    9eec:	e1a06103 	lsl	r6, r3, #2
    9ef0:	e0844104 	add	r4, r4, r4, lsl #2
    9ef4:	e0404084 	sub	r4, r0, r4, lsl #1
    9ef8:	e1a00006 	mov	r0, r6
    9efc:	ebfff84a 	bl	802c <GET32>
    9f00:	e3a01007 	mov	r1, #7, 0
    9f04:	e0844084 	add	r4, r4, r4, lsl #1
    9f08:	e1c01411 	bic	r1, r0, r1, lsl r4
    9f0c:	e1811415 	orr	r1, r1, r5, lsl r4
    9f10:	e1a00006 	mov	r0, r6
    9f14:	e8bd4070 	pop	{r4, r5, r6, lr}
    9f18:	eafff841 	b	8024 <PUT32>
    9f1c:	cccccccd 	stclgt	12, cr12, [ip], {205}	; 0xcd

00009f20 <gpio_set_output>:
    9f20:	e350001f 	cmp	r0, #31, 0
    9f24:	812fff1e 	bxhi	lr
    9f28:	e92d4070 	push	{r4, r5, r6, lr}
    9f2c:	e59f4040 	ldr	r4, [pc, #64]	; 9f74 <gpio_set_output+0x54>
    9f30:	e0843094 	umull	r3, r4, r4, r0
    9f34:	e1a041a4 	lsr	r4, r4, #3
    9f38:	e2843302 	add	r3, r4, #134217728	; 0x8000000
    9f3c:	e2833702 	add	r3, r3, #524288	; 0x80000
    9f40:	e1a05103 	lsl	r5, r3, #2
    9f44:	e0844104 	add	r4, r4, r4, lsl #2
    9f48:	e0404084 	sub	r4, r0, r4, lsl #1
    9f4c:	e1a00005 	mov	r0, r5
    9f50:	ebfff835 	bl	802c <GET32>
    9f54:	e3a03007 	mov	r3, #7, 0
    9f58:	e3a01001 	mov	r1, #1, 0
    9f5c:	e0844084 	add	r4, r4, r4, lsl #1
    9f60:	e1c03413 	bic	r3, r0, r3, lsl r4
    9f64:	e1831411 	orr	r1, r3, r1, lsl r4
    9f68:	e1a00005 	mov	r0, r5
    9f6c:	e8bd4070 	pop	{r4, r5, r6, lr}
    9f70:	eafff82b 	b	8024 <PUT32>
    9f74:	cccccccd 	stclgt	12, cr12, [ip], {205}	; 0xcd

00009f78 <gpio_set_on>:
    9f78:	e1a03000 	mov	r3, r0
    9f7c:	e3a01001 	mov	r1, #1, 0
    9f80:	e59f0004 	ldr	r0, [pc, #4]	; 9f8c <gpio_set_on+0x14>
    9f84:	e1a01311 	lsl	r1, r1, r3
    9f88:	eafff825 	b	8024 <PUT32>
    9f8c:	2020001c 	eorcs	r0, r0, ip, lsl r0

00009f90 <gpio_set_off>:
    9f90:	e1a03000 	mov	r3, r0
    9f94:	e3a01001 	mov	r1, #1, 0
    9f98:	e59f0004 	ldr	r0, [pc, #4]	; 9fa4 <gpio_set_off+0x14>
    9f9c:	e1a01311 	lsl	r1, r1, r3
    9fa0:	eafff81f 	b	8024 <PUT32>
    9fa4:	20200028 	eorcs	r0, r0, r8, lsr #32

00009fa8 <gpio_set_input>:
    9fa8:	e350001f 	cmp	r0, #31, 0
    9fac:	812fff1e 	bxhi	lr
    9fb0:	e92d4070 	push	{r4, r5, r6, lr}
    9fb4:	e59f5040 	ldr	r5, [pc, #64]	; 9ffc <gpio_set_input+0x54>
    9fb8:	e1a04000 	mov	r4, r0
    9fbc:	e0853095 	umull	r3, r5, r5, r0
    9fc0:	e1a051a5 	lsr	r5, r5, #3
    9fc4:	e2850302 	add	r0, r5, #134217728	; 0x8000000
    9fc8:	e2800702 	add	r0, r0, #524288	; 0x80000
    9fcc:	e1a06100 	lsl	r6, r0, #2
    9fd0:	e1a00006 	mov	r0, r6
    9fd4:	ebfff814 	bl	802c <GET32>
    9fd8:	e3a01007 	mov	r1, #7, 0
    9fdc:	e1a03000 	mov	r3, r0
    9fe0:	e0855105 	add	r5, r5, r5, lsl #2
    9fe4:	e0444085 	sub	r4, r4, r5, lsl #1
    9fe8:	e0844084 	add	r4, r4, r4, lsl #1
    9fec:	e1a00006 	mov	r0, r6
    9ff0:	e1c31411 	bic	r1, r3, r1, lsl r4
    9ff4:	e8bd4070 	pop	{r4, r5, r6, lr}
    9ff8:	eafff809 	b	8024 <PUT32>
    9ffc:	cccccccd 	stclgt	12, cr12, [ip], {205}	; 0xcd

0000a000 <gpio_write>:
    a000:	e3510000 	cmp	r1, #0, 0
    a004:	e3a03001 	mov	r3, #1, 0
    a008:	e1a01000 	mov	r1, r0
    a00c:	0a000002 	beq	a01c <gpio_write+0x1c>
    a010:	e59f0010 	ldr	r0, [pc, #16]	; a028 <gpio_write+0x28>
    a014:	e1a01113 	lsl	r1, r3, r1
    a018:	eafff801 	b	8024 <PUT32>
    a01c:	e59f0008 	ldr	r0, [pc, #8]	; a02c <gpio_write+0x2c>
    a020:	e1a01113 	lsl	r1, r3, r1
    a024:	eafff7fe 	b	8024 <PUT32>
    a028:	2020001c 	eorcs	r0, r0, ip, lsl r0
    a02c:	20200028 	eorcs	r0, r0, r8, lsr #32

0000a030 <gpio_read>:
    a030:	e92d4010 	push	{r4, lr}
    a034:	e1a04000 	mov	r4, r0
    a038:	e59f0014 	ldr	r0, [pc, #20]	; a054 <gpio_read+0x24>
    a03c:	e08002a4 	add	r0, r0, r4, lsr #5
    a040:	ebfff7f9 	bl	802c <GET32>
    a044:	e204401f 	and	r4, r4, #31, 0
    a048:	e1a00430 	lsr	r0, r0, r4
    a04c:	e2000001 	and	r0, r0, #1, 0
    a050:	e8bd8010 	pop	{r4, pc}
    a054:	20200034 	eorcs	r0, r0, r4, lsr r0

0000a058 <internal_putchar>:
    a058:	e92d4010 	push	{r4, lr}
    a05c:	e1a04000 	mov	r4, r0
    a060:	ebfffe84 	bl	9a78 <uart_putc>
    a064:	e1a00004 	mov	r0, r4
    a068:	e8bd8010 	pop	{r4, pc}

0000a06c <rpi_reset_putc>:
    a06c:	e59f3008 	ldr	r3, [pc, #8]	; a07c <rpi_reset_putc+0x10>
    a070:	e59f2008 	ldr	r2, [pc, #8]	; a080 <rpi_reset_putc+0x14>
    a074:	e5832000 	str	r2, [r3]
    a078:	e12fff1e 	bx	lr
    a07c:	0000aa38 	andeq	sl, r0, r8, lsr sl
    a080:	0000a058 	andeq	sl, r0, r8, asr r0

0000a084 <rpi_set_putc>:
    a084:	e59f3004 	ldr	r3, [pc, #4]	; a090 <rpi_set_putc+0xc>
    a088:	e5830000 	str	r0, [r3]
    a08c:	e12fff1e 	bx	lr
    a090:	0000aa38 	andeq	sl, r0, r8, lsr sl

0000a094 <strcat>:
    a094:	e1a02000 	mov	r2, r0
    a098:	e1a03002 	mov	r3, r2
    a09c:	e4d2c001 	ldrb	ip, [r2], #1
    a0a0:	e35c0000 	cmp	ip, #0, 0
    a0a4:	1afffffb 	bne	a098 <strcat+0x4>
    a0a8:	e2433001 	sub	r3, r3, #1, 0
    a0ac:	e4d12001 	ldrb	r2, [r1], #1
    a0b0:	e3520000 	cmp	r2, #0, 0
    a0b4:	e5e32001 	strb	r2, [r3, #1]!
    a0b8:	1afffffb 	bne	a0ac <strcat+0x18>
    a0bc:	e12fff1e 	bx	lr

0000a0c0 <strcmp>:
    a0c0:	e5d03000 	ldrb	r3, [r0]
    a0c4:	e3530000 	cmp	r3, #0, 0
    a0c8:	05d12000 	ldrbeq	r2, [r1]
    a0cc:	1a000003 	bne	a0e0 <strcmp+0x20>
    a0d0:	ea000006 	b	a0f0 <strcmp+0x30>
    a0d4:	e5f03001 	ldrb	r3, [r0, #1]!
    a0d8:	e3530000 	cmp	r3, #0, 0
    a0dc:	0a000005 	beq	a0f8 <strcmp+0x38>
    a0e0:	e1a0c001 	mov	ip, r1
    a0e4:	e4d12001 	ldrb	r2, [r1], #1
    a0e8:	e1520003 	cmp	r2, r3
    a0ec:	0afffff8 	beq	a0d4 <strcmp+0x14>
    a0f0:	e0430002 	sub	r0, r3, r2
    a0f4:	e12fff1e 	bx	lr
    a0f8:	e5dc2001 	ldrb	r2, [ip, #1]
    a0fc:	e0430002 	sub	r0, r3, r2
    a100:	e12fff1e 	bx	lr

0000a104 <strcpy>:
    a104:	e2402001 	sub	r2, r0, #1, 0
    a108:	e4d13001 	ldrb	r3, [r1], #1
    a10c:	e3530000 	cmp	r3, #0, 0
    a110:	e5e23001 	strb	r3, [r2, #1]!
    a114:	1afffffb 	bne	a108 <strcpy+0x4>
    a118:	e12fff1e 	bx	lr

0000a11c <strncmp>:
    a11c:	e0802002 	add	r2, r0, r2
    a120:	ea000003 	b	a134 <strncmp+0x18>
    a124:	e4d03001 	ldrb	r3, [r0], #1
    a128:	e4d1c001 	ldrb	ip, [r1], #1
    a12c:	e153000c 	cmp	r3, ip
    a130:	1a000003 	bne	a144 <strncmp+0x28>
    a134:	e1500002 	cmp	r0, r2
    a138:	1afffff9 	bne	a124 <strncmp+0x8>
    a13c:	e3a00000 	mov	r0, #0, 0
    a140:	e12fff1e 	bx	lr
    a144:	e043000c 	sub	r0, r3, ip
    a148:	e12fff1e 	bx	lr

0000a14c <reboot_callout>:
    a14c:	e12fff1e 	bx	lr

0000a150 <dev_barrier>:
    a150:	ea000002 	b	a160 <dsb>

0000a154 <dmb>:
    a154:	e3a00000 	mov	r0, #0, 0
    a158:	ee070fba 	mcr	15, 0, r0, cr7, cr10, {5}
    a15c:	e12fff1e 	bx	lr

0000a160 <dsb>:
    a160:	ee070f9a 	mcr	15, 0, r0, cr7, cr10, {4}
    a164:	e12fff1e 	bx	lr

Disassembly of section .rodata:

0000a168 <__FUNCTION__.4005-0xe4>:
    a168:	74736574 	ldrbtvc	r6, [r3], #-1396	; 0xfffffa8c
    a16c:	61702f73 	cmnvs	r0, r3, ror pc
    a170:	2d327472 	cfldrscs	mvf7, [r2, #-456]!	; 0xfffffe38
    a174:	74736574 	ldrbtvc	r6, [r3], #-1396	; 0xfffffa8c
    a178:	00632e36 	rsbeq	r2, r3, r6, lsr lr
    a17c:	43415254 	movtmi	r5, #4692	; 0x1254
    a180:	6c613a45 			; <UNDEFINED> instruction: 0x6c613a45
    a184:	20636f6c 	rsbcs	r6, r3, ip, ror #30
    a188:	75746572 	ldrbvc	r6, [r4, #-1394]!	; 0xfffffa8e
    a18c:	64656e72 	strbtvs	r6, [r5], #-3698	; 0xfffff18e
    a190:	0a702520 	beq	1c13618 <__bss_end__+0x1c087b0>
    a194:	00000000 	andeq	r0, r0, r0
    a198:	74204347 	strtvc	r4, [r0], #-839	; 0xfffffcb9
    a19c:	36747365 	ldrbtcc	r7, [r4], -r5, ror #6
    a1a0:	0000000a 	andeq	r0, r0, sl
    a1a4:	43415254 	movtmi	r5, #4692	; 0x1254
    a1a8:	65743a45 	ldrbvs	r3, [r4, #-2629]!	; 0xfffff5bb
    a1ac:	20317473 	eorscs	r7, r1, r3, ror r4
    a1b0:	75746572 	ldrbvc	r6, [r4, #-1394]!	; 0xfffffa8e
    a1b4:	64656e72 	strbtvs	r6, [r5], #-3698	; 0xfffff18e
    a1b8:	0a702520 	beq	1c13640 <__bss_end__+0x1c087d8>
    a1bc:	00000000 	andeq	r0, r0, r0
    a1c0:	494e4150 	stmdbmi	lr, {r4, r6, r8, lr}^
    a1c4:	73253a43 			; <UNDEFINED> instruction: 0x73253a43
    a1c8:	3a73253a 	bcc	1cd36b8 <__bss_end__+0x1cc8850>
    a1cc:	733a6425 	teqvc	sl, #620756992	; 0x25000000
    a1d0:	6c756f68 	ldclvs	15, cr6, [r5], #-416	; 0xfffffe60
    a1d4:	61682064 	cmnvs	r8, r4, rrx
    a1d8:	6e206576 	mcrvs	5, 1, r6, cr0, cr6, {3}
    a1dc:	6564206f 	strbvs	r2, [r4, #-111]!	; 0xffffff91
    a1e0:	696e6966 	stmdbvs	lr!, {r1, r2, r5, r6, r8, fp, sp, lr}^
    a1e4:	6c206574 	cfstr32vs	mvfx6, [r0], #-464	; 0xfffffe30
    a1e8:	736b6165 	cmnvc	fp, #1073741849	; 0x40000019
    a1ec:	000a0a21 	andeq	r0, sl, r1, lsr #20
    a1f0:	43415254 	movtmi	r5, #4692	; 0x1254
    a1f4:	55533a45 	ldrbpl	r3, [r3, #-2629]	; 0xfffff5bb
    a1f8:	53454343 	movtpl	r4, #21315	; 0x5343
    a1fc:	64203a53 	strtvs	r3, [r0], #-2643	; 0xfffff5ad
    a200:	63657465 	cmnvs	r5, #1694498816	; 0x65000000
    a204:	20646574 	rsbcs	r6, r4, r4, ror r5
    a208:	616d2061 	cmnvs	sp, r1, rrx
    a20c:	20656279 	rsbcs	r6, r5, r9, ror r2
    a210:	6b61656c 	blvs	18637c8 <__bss_end__+0x1858960>
    a214:	00000a21 	andeq	r0, r0, r1, lsr #20
    a218:	494e4150 	stmdbmi	lr, {r4, r6, r8, lr}^
    a21c:	73253a43 			; <UNDEFINED> instruction: 0x73253a43
    a220:	3a73253a 	bcc	1cd3710 <__bss_end__+0x1cc88a8>
    a224:	733a6425 	teqvc	sl, #620756992	; 0x25000000
    a228:	6c756f68 	ldclvs	15, cr6, [r5], #-416	; 0xfffffe60
    a22c:	61682064 	cmnvs	r8, r4, rrx
    a230:	66206576 			; <UNDEFINED> instruction: 0x66206576
    a234:	646e756f 	strbtvs	r7, [lr], #-1391	; 0xfffffa91
    a238:	6d206120 	stfvss	f6, [r0, #-128]!	; 0xffffff80
    a23c:	65627961 	strbvs	r7, [r2, #-2401]!	; 0xfffff69f
    a240:	61656c20 	cmnvs	r5, r0, lsr #24
    a244:	0a0a216b 	beq	2927f8 <__bss_end__+0x287990>
    a248:	00000000 	andeq	r0, r0, r0

0000a24c <__FUNCTION__.4005>:
    a24c:	74736574 	ldrbtvc	r6, [r3], #-1396	; 0xfffffa8c
    a250:	00000031 	andeq	r0, r0, r1, lsr r0

0000a254 <__FUNCTION__.4010>:
    a254:	6d746f6e 	ldclvs	15, cr6, [r4, #-440]!	; 0xfffffe48
    a258:	006e6961 	rsbeq	r6, lr, r1, ror #18
    a25c:	6c616b63 			; <UNDEFINED> instruction: 0x6c616b63
    a260:	2e636f6c 	cdpcs	15, 6, cr6, cr3, cr12, {3}
    a264:	00000063 	andeq	r0, r0, r3, rrx
    a268:	494e4150 	stmdbmi	lr, {r4, r6, r8, lr}^
    a26c:	73253a43 			; <UNDEFINED> instruction: 0x73253a43
    a270:	3a73253a 	bcc	1cd3760 <__bss_end__+0x1cc88f8>
    a274:	253a6425 	ldrcs	r6, [sl, #-1061]!	; 0xfffffbdb
    a278:	00000a73 	andeq	r0, r0, r3, ror sl
    a27c:	0000006c 	andeq	r0, r0, ip, rrx
    a280:	494e4150 	stmdbmi	lr, {r4, r6, r8, lr}^
    a284:	73253a43 			; <UNDEFINED> instruction: 0x73253a43
    a288:	3a73253a 	bcc	1cd3778 <__bss_end__+0x1cc8910>
    a28c:	643a6425 	ldrtvs	r6, [sl], #-1061	; 0xfffffbdb
    a290:	6e206469 	cdpvs	4, 2, cr6, cr0, cr9, {3}
    a294:	6620746f 	strtvs	r7, [r0], -pc, ror #8
    a298:	20646e69 	rsbcs	r6, r4, r9, ror #28
    a29c:	69207025 	stmdbvs	r0!, {r0, r2, r5, ip, sp, lr}
    a2a0:	696c206e 	stmdbvs	ip!, {r1, r2, r3, r5, r6, sp}^
    a2a4:	0a0a7473 	beq	2a7478 <__bss_end__+0x29c610>
    a2a8:	00000000 	andeq	r0, r0, r0
    a2ac:	6e756f66 	cdpvs	15, 7, cr6, cr5, cr6, {3}
    a2b0:	70252064 	eorvc	r2, r5, r4, rrx
    a2b4:	206e6920 	rsbcs	r6, lr, r0, lsr #18
    a2b8:	000a7025 	andeq	r7, sl, r5, lsr #32
    a2bc:	253a7325 	ldrcs	r7, [sl, #-805]!	; 0xfffffcdb
    a2c0:	64253a73 	strtvs	r3, [r5], #-2675	; 0xfffff58d
    a2c4:	0000003a 	andeq	r0, r0, sl, lsr r0
    a2c8:	65657266 	strbvs	r7, [r5, #-614]!	; 0xfffffd9a
    a2cc:	20676e69 	rsbcs	r6, r7, r9, ror #28
    a2d0:	0a702509 	beq	1c136fc <__bss_end__+0x1c08894>
    a2d4:	00000000 	andeq	r0, r0, r0
    a2d8:	5f434f4c 	svcpl	0x00434f4c
    a2dc:	494e4150 	stmdbmi	lr, {r4, r6, r8, lr}^
    a2e0:	25203a43 	strcs	r3, [r0, #-2627]!	; 0xfffff5bd
    a2e4:	73253a73 			; <UNDEFINED> instruction: 0x73253a73
    a2e8:	3a64253a 	bcc	19137d8 <__bss_end__+0x1908970>
    a2ec:	00000000 	andeq	r0, r0, r0
    a2f0:	65657266 	strbvs	r7, [r5, #-614]!	; 0xfffffd9a
    a2f4:	20676e69 	rsbcs	r6, r7, r9, ror #28
    a2f8:	6c616e75 	stclvs	14, cr6, [r1], #-468	; 0xfffffe2c
    a2fc:	61636f6c 	cmnvs	r3, ip, ror #30
    a300:	20646574 	rsbcs	r6, r4, r4, ror r5
    a304:	6f6d656d 	svcvs	0x006d656d
    a308:	203a7972 	eorscs	r7, sl, r2, ror r9
    a30c:	74617473 	strbtvc	r7, [r1], #-1139	; 0xfffffb8d
    a310:	64253d65 	strtvs	r3, [r5], #-3429	; 0xfffff29b
    a314:	0000000a 	andeq	r0, r0, sl
    a318:	705f6b63 	subsvc	r6, pc, r3, ror #22
    a31c:	695f7274 	ldmdbvs	pc, {r2, r4, r5, r6, r9, ip, sp, lr}^	; <UNPREDICTABLE>
    a320:	6c615f73 	stclvs	15, cr5, [r1], #-460	; 0xfffffe34
    a324:	65636f6c 	strbvs	r6, [r3, #-3948]!	; 0xfffff094
    a328:	64612864 	strbtvs	r2, [r1], #-2148	; 0xfffff79c
    a32c:	00297264 	eoreq	r7, r9, r4, ror #4
    a330:	6f6c6c61 	svcvs	0x006c6c61
    a334:	69746163 	ldmdbvs	r4!, {r0, r1, r5, r6, r8, sp, lr}^
    a338:	0920676e 	stmdbeq	r0!, {r1, r2, r3, r5, r6, r8, r9, sl, sp, lr}
    a33c:	000a7025 	andeq	r7, sl, r5, lsr #32

0000a340 <__FUNCTION__.4039>:
    a340:	7473696c 	ldrbtvc	r6, [r3], #-2412	; 0xfffff694
    a344:	6d65725f 	sfmvs	f7, 2, [r5, #-380]!	; 0xfffffe84
    a348:	0065766f 	rsbeq	r7, r5, pc, ror #12

0000a34c <__FUNCTION__.4050>:
    a34c:	72666b63 	rsbvc	r6, r6, #101376	; 0x18c00
    a350:	00006565 	andeq	r6, r0, r5, ror #10
    a354:	672d6b63 	strvs	r6, [sp, -r3, ror #22]!
    a358:	00632e63 	rsbeq	r2, r3, r3, ror #28
    a35c:	203c2070 	eorscs	r2, ip, r0, ror r0
    a360:	00000065 	andeq	r0, r0, r5, rrx
    a364:	67696c61 	strbvs	r6, [r9, -r1, ror #24]!
    a368:	2864656e 	stmdacs	r4!, {r1, r2, r3, r5, r6, r8, sl, sp, lr}^
    a36c:	34202c70 	strtcc	r2, [r0], #-3184	; 0xfffff390
    a370:	00000029 	andeq	r0, r0, r9, lsr #32
    a374:	67696c61 	strbvs	r6, [r9, -r1, ror #24]!
    a378:	2864656e 	stmdacs	r4!, {r1, r2, r3, r5, r6, r8, sl, sp, lr}^
    a37c:	34202c65 	strtcc	r2, [r0], #-3173	; 0xfffff39b
    a380:	00000029 	andeq	r0, r0, r9, lsr #32
    a384:	6e696f67 	cdpvs	15, 6, cr6, cr9, cr7, {3}
    a388:	6f742067 	svcvs	0x00742067
    a38c:	72616d20 	rsbvc	r6, r1, #32, 26	; 0x800
    a390:	7025206b 	eorvc	r2, r5, fp, rrx
    a394:	20692820 	rsbcs	r2, r9, r0, lsr #16
    a398:	70252040 	eorvc	r2, r5, r0, asr #32
    a39c:	25203d20 	strcs	r3, [r0, #-3360]!	; 0xfffff2e0
    a3a0:	202c2970 	eorcs	r2, ip, r0, ror r9
    a3a4:	20707865 	rsbscs	r7, r0, r5, ror #16
    a3a8:	7025203d 	eorvc	r2, r5, sp, lsr r0
    a3ac:	0000000a 	andeq	r0, r0, sl
    a3b0:	6b72616d 	blvs	1ca296c <__bss_end__+0x1c97b04>
    a3b4:	20676e69 	rsbcs	r6, r7, r9, ror #28
    a3b8:	25207361 	strcs	r7, [r0, #-865]!	; 0xfffffc9f
    a3bc:	00000a64 	andeq	r0, r0, r4, ror #20
    a3c0:	20746f6e 	rsbscs	r6, r4, lr, ror #30
    a3c4:	6b72616d 	blvs	1ca2980 <__bss_end__+0x1c97b18>
    a3c8:	21676e69 	cmncs	r7, r9, ror #28
    a3cc:	0000000a 	andeq	r0, r0, sl
    a3d0:	63656863 	cmnvs	r5, #6488064	; 0x630000
    a3d4:	676e696b 	strbvs	r6, [lr, -fp, ror #18]!
    a3d8:	61747320 	cmnvs	r4, r0, lsr #6
    a3dc:	203a6b63 	eorscs	r6, sl, r3, ror #22
    a3e0:	74207025 	strtvc	r7, [r0], #-37	; 0xffffffdb
    a3e4:	7025206f 	eorvc	r2, r5, pc, rrx
    a3e8:	0000000a 	andeq	r0, r0, sl
    a3ec:	2d2d2d2d 	stccs	13, cr2, [sp, #-180]!	; 0xffffff4c
    a3f0:	2d2d2d2d 	stccs	13, cr2, [sp, #-180]!	; 0xffffff4c
    a3f4:	2d2d2d2d 	stccs	13, cr2, [sp, #-180]!	; 0xffffff4c
    a3f8:	2d2d2d2d 	stccs	13, cr2, [sp, #-180]!	; 0xffffff4c
    a3fc:	2d2d2d2d 	stccs	13, cr2, [sp, #-180]!	; 0xffffff4c
    a400:	2d2d2d2d 	stccs	13, cr2, [sp, #-180]!	; 0xffffff4c
    a404:	2d2d2d2d 	stccs	13, cr2, [sp, #-180]!	; 0xffffff4c
    a408:	2d2d2d2d 	stccs	13, cr2, [sp, #-180]!	; 0xffffff4c
    a40c:	2d2d2d2d 	stccs	13, cr2, [sp, #-180]!	; 0xffffff4c
    a410:	2d2d2d2d 	stccs	13, cr2, [sp, #-180]!	; 0xffffff4c
    a414:	2d2d2d2d 	stccs	13, cr2, [sp, #-180]!	; 0xffffff4c
    a418:	2d2d2d2d 	stccs	13, cr2, [sp, #-180]!	; 0xffffff4c
    a41c:	2d2d2d2d 	stccs	13, cr2, [sp, #-180]!	; 0xffffff4c
    a420:	2d2d2d2d 	stccs	13, cr2, [sp, #-180]!	; 0xffffff4c
    a424:	00000a2d 	andeq	r0, r0, sp, lsr #20
    a428:	63656863 	cmnvs	r5, #6488064	; 0x630000
    a42c:	676e696b 	strbvs	r6, [lr, -fp, ror #18]!
    a430:	726f6620 	rsbvc	r6, pc, #32, 12	; 0x2000000
    a434:	61656c20 	cmnvs	r5, r0, lsr #24
    a438:	0a3a736b 	beq	ea71ec <__bss_end__+0xe9c384>
    a43c:	00000000 	andeq	r0, r0, r0
    a440:	4c3a4347 	ldcmi	3, cr4, [sl], #-284	; 0xfffffee4
    a444:	2054534f 	subscs	r5, r4, pc, asr #6
    a448:	2d206425 	cfstrscs	mvf6, [r0, #-148]!	; 0xffffff6c
    a44c:	7025203e 	eorvc	r2, r5, lr, lsr r0
    a450:	0000000a 	andeq	r0, r0, sl
    a454:	4d3a4347 	ldcmi	3, cr4, [sl, #-284]!	; 0xfffffee4
    a458:	45425941 	strbmi	r5, [r2, #-2369]	; 0xfffff6bf
    a45c:	534f4c20 	movtpl	r4, #64544	; 0xfc20
    a460:	64252054 	strtvs	r2, [r5], #-84	; 0xffffffac
    a464:	203e2d20 	eorscs	r2, lr, r0, lsr #26
    a468:	000a7025 	andeq	r7, sl, r5, lsr #32
    a46c:	43415254 	movtmi	r5, #4692	; 0x1254
    a470:	47093a45 	strmi	r3, [r9, -r5, asr #20]
    a474:	68433a43 	stmdavs	r3, {r0, r1, r6, r9, fp, ip, sp}^
    a478:	656b6365 	strbvs	r6, [fp, #-869]!	; 0xfffffc9b
    a47c:	64252064 	strtvs	r2, [r5], #-100	; 0xffffff9c
    a480:	6f6c6220 	svcvs	0x006c6220
    a484:	2e736b63 	vsubcs.f64	d22, d3, d19
    a488:	0000000a 	andeq	r0, r0, sl
    a48c:	43415254 	movtmi	r5, #4692	; 0x1254
    a490:	09093a45 	stmdbeq	r9, {r0, r2, r6, r9, fp, ip, sp}
    a494:	533a4347 	teqpl	sl, #469762049	; 0x1c000001
    a498:	45434355 	strbmi	r4, [r3, #-853]	; 0xfffffcab
    a49c:	203a5353 	eorscs	r5, sl, r3, asr r3
    a4a0:	6c206f4e 	stcvs	15, cr6, [r0], #-312	; 0xfffffec8
    a4a4:	736b6165 	cmnvc	fp, #1073741849	; 0x40000019
    a4a8:	756f6620 	strbvc	r6, [pc, #-1568]!	; 9e90 <kfree_pop+0x30>
    a4ac:	0a21646e 	beq	86366c <__bss_end__+0x858804>
    a4b0:	00000000 	andeq	r0, r0, r0
    a4b4:	43415254 	movtmi	r5, #4692	; 0x1254
    a4b8:	09093a45 	stmdbeq	r9, {r0, r2, r6, r9, fp, ip, sp}
    a4bc:	453a4347 	ldrmi	r4, [sl, #-839]!	; 0xfffffcb9
    a4c0:	524f5252 	subpl	r5, pc, #536870917	; 0x20000005
    a4c4:	25203a53 	strcs	r3, [r0, #-2643]!	; 0xfffff5ad
    a4c8:	72652064 	rsbvc	r2, r5, #100, 0	; 0x64
    a4cc:	73726f72 	cmnvc	r2, #456	; 0x1c8
    a4d0:	6425202c 	strtvs	r2, [r5], #-44	; 0xffffffd4
    a4d4:	79616d20 	stmdbvc	r1!, {r5, r8, sl, fp, sp, lr}^
    a4d8:	655f6562 	ldrbvs	r6, [pc, #-1378]	; 9f7e <gpio_set_on+0x6>
    a4dc:	726f7272 	rsbvc	r7, pc, #536870919	; 0x20000007
    a4e0:	00000a73 	andeq	r0, r0, r3, ror sl
    a4e4:	2d2d2d2d 	stccs	13, cr2, [sp, #-180]!	; 0xffffff4c
    a4e8:	2d2d2d2d 	stccs	13, cr2, [sp, #-180]!	; 0xffffff4c
    a4ec:	2d2d2d2d 	stccs	13, cr2, [sp, #-180]!	; 0xffffff4c
    a4f0:	2d2d2d2d 	stccs	13, cr2, [sp, #-180]!	; 0xffffff4c
    a4f4:	2d2d2d2d 	stccs	13, cr2, [sp, #-180]!	; 0xffffff4c
    a4f8:	2d2d2d2d 	stccs	13, cr2, [sp, #-180]!	; 0xffffff4c
    a4fc:	2d2d2d2d 	stccs	13, cr2, [sp, #-180]!	; 0xffffff4c
    a500:	2d2d2d2d 	stccs	13, cr2, [sp, #-180]!	; 0xffffff4c
    a504:	2d2d2d2d 	stccs	13, cr2, [sp, #-180]!	; 0xffffff4c
    a508:	2d2d2d2d 	stccs	13, cr2, [sp, #-180]!	; 0xffffff4c
    a50c:	2d2d2d2d 	stccs	13, cr2, [sp, #-180]!	; 0xffffff4c
    a510:	2d2d2d2d 	stccs	13, cr2, [sp, #-180]!	; 0xffffff4c
    a514:	2d2d2d2d 	stccs	13, cr2, [sp, #-180]!	; 0xffffff4c
    a518:	2d2d2d2d 	stccs	13, cr2, [sp, #-180]!	; 0xffffff4c
    a51c:	000a2d2d 	andeq	r2, sl, sp, lsr #26
    a520:	706d6f63 	rsbvc	r6, sp, r3, ror #30
    a524:	69746361 	ldmdbvs	r4!, {r0, r5, r6, r8, r9, sp, lr}^
    a528:	0a3a676e 	beq	ea42e8 <__bss_end__+0xe99480>
    a52c:	00000000 	andeq	r0, r0, r0
    a530:	463a4347 	ldrtmi	r4, [sl], -r7, asr #6
    a534:	44454552 	strbmi	r4, [r5], #-1362	; 0xfffffaae
    a538:	0a702520 	beq	1c139c0 <__bss_end__+0x1c08b58>
    a53c:	00000000 	andeq	r0, r0, r0
    a540:	43415254 	movtmi	r5, #4692	; 0x1254
    a544:	47093a45 	strmi	r3, [r9, -r5, asr #20]
    a548:	68433a43 	stmdavs	r3, {r0, r1, r6, r9, fp, ip, sp}^
    a54c:	656b6365 	strbvs	r6, [fp, #-869]!	; 0xfffffc9b
    a550:	64252064 	strtvs	r2, [r5], #-100	; 0xffffff9c
    a554:	6f6c6220 	svcvs	0x006c6220
    a558:	2c736b63 			; <UNDEFINED> instruction: 0x2c736b63
    a55c:	65726620 	ldrbvs	r6, [r2, #-1568]!	; 0xfffff9e0
    a560:	25206465 	strcs	r6, [r0, #-1125]!	; 0xfffffb9b
    a564:	25202c64 	strcs	r2, [r0, #-3172]!	; 0xfffff39c
    a568:	79622064 	stmdbvc	r2!, {r2, r5, r6, sp}^
    a56c:	0a736574 	beq	1ce3b44 <__bss_end__+0x1cd8cdc>
    a570:	00000000 	andeq	r0, r0, r0
    a574:	72636e69 	rsbvc	r6, r3, #1680	; 0x690
    a578:	6e656d65 	cdpvs	13, 6, cr6, cr5, cr5, {3}
    a57c:	203e2074 	eorscs	r2, lr, r4, ror r0
    a580:	00000030 	andeq	r0, r0, r0, lsr r0
    a584:	494e4150 	stmdbmi	lr, {r4, r6, r8, lr}^
    a588:	73253a43 			; <UNDEFINED> instruction: 0x73253a43
    a58c:	3a73253a 	bcc	1cd3a7c <__bss_end__+0x1cc8c14>
    a590:	6e3a6425 	cdpvs	4, 3, cr6, cr10, cr5, {1}
    a594:	6820746f 	stmdavs	r0!, {r0, r1, r2, r3, r5, r6, sl, ip, sp, lr}
    a598:	6c646e61 	stclvs	14, cr6, [r4], #-388	; 0xfffffe7c
    a59c:	0a676e69 	beq	19e5f48 <__bss_end__+0x19db0e0>
    a5a0:	0000000a 	andeq	r0, r0, sl
    a5a4:	494e4150 	stmdbmi	lr, {r4, r6, r8, lr}^
    a5a8:	73253a43 			; <UNDEFINED> instruction: 0x73253a43
    a5ac:	3a73253a 	bcc	1cd3a9c <__bss_end__+0x1cc8c34>
    a5b0:	473a6425 	ldrmi	r6, [sl, -r5, lsr #8]!
    a5b4:	73203a43 			; <UNDEFINED> instruction: 0x73203a43
    a5b8:	6c756f68 	ldclvs	15, cr6, [r5], #-416	; 0xfffffe60
    a5bc:	61682064 	cmnvs	r8, r4, rrx
    a5c0:	6e206576 	mcrvs	5, 1, r6, cr0, cr6, {3}
    a5c4:	656c206f 	strbvs	r2, [ip, #-111]!	; 0xffffff91
    a5c8:	21736b61 	cmncs	r3, r1, ror #22
    a5cc:	00000a0a 	andeq	r0, r0, sl, lsl #20
    a5d0:	43415254 	movtmi	r5, #4692	; 0x1254
    a5d4:	43473a45 	movtmi	r3, #31301	; 0x7a45
    a5d8:	5553203a 	ldrbpl	r2, [r3, #-58]	; 0xffffffc6
    a5dc:	53454343 	movtpl	r4, #21315	; 0x5343
    a5e0:	6e203a53 			; <UNDEFINED> instruction: 0x6e203a53
    a5e4:	656c206f 	strbvs	r2, [ip, #-111]!	; 0xffffff91
    a5e8:	21736b61 	cmncs	r3, r1, ror #22
    a5ec:	0000000a 	andeq	r0, r0, sl
    a5f0:	494e4150 	stmdbmi	lr, {r4, r6, r8, lr}^
    a5f4:	73253a43 			; <UNDEFINED> instruction: 0x73253a43
    a5f8:	3a73253a 	bcc	1cd3ae8 <__bss_end__+0x1cc8c80>
    a5fc:	473a6425 	ldrmi	r6, [sl, -r5, lsr #8]!
    a600:	73203a43 			; <UNDEFINED> instruction: 0x73203a43
    a604:	6c756f68 	ldclvs	15, cr6, [r5], #-416	; 0xfffffe60
    a608:	61682064 	cmnvs	r8, r4, rrx
    a60c:	6c206576 	cfstr32vs	mvfx6, [r0], #-472	; 0xfffffe28
    a610:	736b6165 	cmnvc	fp, #1073741849	; 0x40000019
    a614:	000a0a21 	andeq	r0, sl, r1, lsr #20
    a618:	43415254 	movtmi	r5, #4692	; 0x1254
    a61c:	43473a45 	movtmi	r3, #31301	; 0x7a45
    a620:	5553203a 	ldrbpl	r2, [r3, #-58]	; 0xffffffc6
    a624:	53454343 	movtpl	r4, #21315	; 0x5343
    a628:	66203a53 			; <UNDEFINED> instruction: 0x66203a53
    a62c:	646e756f 	strbtvs	r7, [lr], #-1391	; 0xfffffa91
    a630:	20642520 	rsbcs	r2, r4, r0, lsr #10
    a634:	6b61656c 	blvs	1863bec <__bss_end__+0x1858d84>
    a638:	000a2173 	andeq	r2, sl, r3, ror r1
    a63c:	494e4150 	stmdbmi	lr, {r4, r6, r8, lr}^
    a640:	73253a43 			; <UNDEFINED> instruction: 0x73253a43
    a644:	3a73253a 	bcc	1cd3b34 <__bss_end__+0x1cc8ccc>
    a648:	643a6425 	ldrtvs	r6, [sl], #-1061	; 0xfffffbdb
    a64c:	6e206469 	cdpvs	4, 2, cr6, cr0, cr9, {3}
    a650:	6920746f 	stmdbvs	r0!, {r0, r1, r2, r3, r5, r6, sl, ip, sp, lr}
    a654:	656c706d 	strbvs	r7, [ip, #-109]!	; 0xffffff93
    a658:	746e656d 	strbtvc	r6, [lr], #-1389	; 0xfffffa93
    a65c:	6d756420 	cfldrdvs	mvd6, [r5, #-128]!	; 0xffffff80
    a660:	65725f70 	ldrbvs	r5, [r2, #-3952]!	; 0xfffff090
    a664:	0a217367 	beq	867408 <__bss_end__+0x85c5a0>
    a668:	0000000a 	andeq	r0, r0, sl

0000a66c <__FUNCTION__.4026>:
    a66c:	6b72616d 	blvs	1ca2c28 <__bss_end__+0x1c97dc0>
    a670:	00000000 	andeq	r0, r0, r0

0000a674 <__FUNCTION__.4082>:
    a674:	65657773 	strbvs	r7, [r5, #-1907]!	; 0xfffff88d
    a678:	72665f70 	rsbvc	r5, r6, #112, 30	; 0x1c0
    a67c:	00006565 	andeq	r6, r0, r5, ror #10

0000a680 <__FUNCTION__.4013>:
    a680:	6b726273 	blvs	1ca3054 <__bss_end__+0x1c981ec>
    a684:	00000000 	andeq	r0, r0, r0

0000a688 <__FUNCTION__.4069>:
    a688:	63656863 	cmnvs	r5, #6488064	; 0x630000
    a68c:	6f6e5f6b 	svcvs	0x006e5f6b
    a690:	61656c5f 	cmnvs	r5, pc, asr ip
    a694:	0000006b 	andeq	r0, r0, fp, rrx

0000a698 <__FUNCTION__.4074>:
    a698:	63656863 	cmnvs	r5, #6488064	; 0x630000
    a69c:	68735f6b 	ldmdavs	r3!, {r0, r1, r3, r5, r6, r8, r9, sl, fp, ip, lr}^
    a6a0:	646c756f 	strbtvs	r7, [ip], #-1391	; 0xfffffa91
    a6a4:	61656c5f 	cmnvs	r5, pc, asr ip
    a6a8:	0000006b 	andeq	r0, r0, fp, rrx

0000a6ac <__FUNCTION__.4093>:
    a6ac:	6c706d69 	ldclvs	13, cr6, [r0], #-420	; 0xfffffe5c
    a6b0:	6e656d65 	cdpvs	13, 6, cr6, cr5, cr5, {3}
    a6b4:	68745f74 	ldmdavs	r4!, {r2, r4, r5, r6, r8, r9, sl, fp, ip, lr}^
    a6b8:	00007369 	andeq	r7, r0, r9, ror #6
    a6bc:	696c2f2e 	stmdbvs	ip!, {r1, r2, r3, r5, r8, r9, sl, fp, sp}^
    a6c0:	762f6362 	strtvc	r6, [pc], -r2, ror #6
    a6c4:	72702d61 	rsbsvc	r2, r0, #6208	; 0x1840
    a6c8:	6b746e69 	blvs	1d26074 <__bss_end__+0x1d1b20c>
    a6cc:	0000632e 	andeq	r6, r0, lr, lsr #6
    a6d0:	33323130 	teqcc	r2, #12
    a6d4:	37363534 			; <UNDEFINED> instruction: 0x37363534
    a6d8:	62613938 	rsbvs	r3, r1, #56, 18	; 0xe0000
    a6dc:	66656463 	strbtvs	r6, [r5], -r3, ror #8
    a6e0:	00000000 	andeq	r0, r0, r0
    a6e4:	00003130 	andeq	r3, r0, r0, lsr r1
    a6e8:	33323130 	teqcc	r2, #12
    a6ec:	37363534 			; <UNDEFINED> instruction: 0x37363534
    a6f0:	00003938 	andeq	r3, r0, r8, lsr r9
    a6f4:	63747570 	cmnvs	r4, #112, 10	; 0x1c000000
    a6f8:	0070665f 	rsbseq	r6, r0, pc, asr r6
    a6fc:	74646977 	strbtvc	r6, [r4], #-2423	; 0xfffff689
    a700:	203c2068 	eorscs	r2, ip, r8, rrx
    a704:	00003233 	andeq	r3, r0, r3, lsr r2
    a708:	00786c6c 	rsbseq	r6, r8, ip, ror #24
    a70c:	253d3078 	ldrcs	r3, [sp, #-120]!	; 0xffffff88
    a710:	00000a78 	andeq	r0, r0, r8, ror sl
    a714:	253d3178 	ldrcs	r3, [sp, #-376]!	; 0xfffffe88
    a718:	00000a78 	andeq	r0, r0, r8, ror sl
    a71c:	00646c6c 	rsbeq	r6, r4, ip, ror #24
    a720:	6e727473 	mrcvs	4, 3, r7, cr2, cr3, {3}
    a724:	28706d63 	ldmdacs	r0!, {r0, r1, r5, r6, r8, sl, fp, sp, lr}^
    a728:	202c7974 	eorcs	r7, ip, r4, ror r9
    a72c:	786c6c22 	stmdavc	ip!, {r1, r5, sl, fp, sp, lr}^
    a730:	33202c22 			; <UNDEFINED> instruction: 0x33202c22
    a734:	3d3d2029 	ldccc	0, cr2, [sp, #-164]!	; 0xffffff5c
    a738:	7c203020 	stcvc	0, cr3, [r0], #-128	; 0xffffff80
    a73c:	7473207c 	ldrbtvc	r2, [r3], #-124	; 0xffffff84
    a740:	6d636e72 	stclvs	14, cr6, [r3, #-456]!	; 0xfffffe38
    a744:	79742870 	ldmdbvc	r4!, {r4, r5, r6, fp, sp}^
    a748:	6c22202c 	stcvs	0, cr2, [r2], #-176	; 0xffffff50
    a74c:	2c22646c 	cfstrscs	mvf6, [r2], #-432	; 0xfffffe50
    a750:	20293320 	eorcs	r3, r9, r0, lsr #6
    a754:	30203d3d 	eorcc	r3, r0, sp, lsr sp
    a758:	00000000 	andeq	r0, r0, r0
    a75c:	494e4150 	stmdbmi	lr, {r4, r6, r8, lr}^
    a760:	73253a43 			; <UNDEFINED> instruction: 0x73253a43
    a764:	3a73253a 	bcc	1cd3c54 <__bss_end__+0x1cc8dec>
    a768:	693a6425 	ldmdbvs	sl!, {r0, r2, r5, sl, sp, lr}
    a76c:	736f706d 	cmnvc	pc, #109, 0	; 0x6d
    a770:	6c626973 			; <UNDEFINED> instruction: 0x6c626973
    a774:	66203a65 	strtvs	r3, [r0], -r5, ror #20
    a778:	3c3d746d 	cfldrscc	mvf7, [sp], #-436	; 0xfffffe4c
    a77c:	0a3e7325 	beq	fa7418 <__bss_end__+0xf9c5b0>
    a780:	0000000a 	andeq	r0, r0, sl
    a784:	494e4150 	stmdbmi	lr, {r4, r6, r8, lr}^
    a788:	73253a43 			; <UNDEFINED> instruction: 0x73253a43
    a78c:	3a73253a 	bcc	1cd3c7c <__bss_end__+0x1cc8e14>
    a790:	663a6425 	ldrtvs	r6, [sl], -r5, lsr #8
    a794:	74616f6c 	strbtvc	r6, [r1], #-3948	; 0xfffff094
    a798:	746f6e20 	strbtvc	r6, [pc], #-3616	; a7a0 <__FUNCTION__.4093+0xf4>
    a79c:	616e6520 	cmnvs	lr, r0, lsr #10
    a7a0:	64656c62 	strbtvs	r6, [r5], #-3170	; 0xfffff39e
    a7a4:	0a212121 	beq	852c30 <__bss_end__+0x847dc8>
    a7a8:	00000000 	andeq	r0, r0, r0
    a7ac:	6e697270 	mcrvs	2, 3, r7, cr9, cr0, {3}
    a7b0:	203a6b74 	eorscs	r6, sl, r4, ror fp
    a7b4:	20746f6e 	rsbscs	r6, r4, lr, ror #30
    a7b8:	646e6168 	strbtvs	r6, [lr], #-360	; 0xfffffe98
    a7bc:	676e696c 	strbvs	r6, [lr, -ip, ror #18]!
    a7c0:	65707320 	ldrbvs	r7, [r0, #-800]!	; 0xfffffce0
    a7c4:	69666963 	stmdbvs	r6!, {r0, r1, r5, r6, r8, fp, sp, lr}^
    a7c8:	27207265 	strcs	r7, [r0, -r5, ror #4]!
    a7cc:	20276325 	eorcs	r6, r7, r5, lsr #6
    a7d0:	63736128 	cmnvs	r3, #10
    a7d4:	253d6969 	ldrcs	r6, [sp, #-2409]!	; 0xfffff697
    a7d8:	000a2964 	andeq	r2, sl, r4, ror #18
    a7dc:	494e4150 	stmdbmi	lr, {r4, r6, r8, lr}^
    a7e0:	73253a43 			; <UNDEFINED> instruction: 0x73253a43
    a7e4:	3a73253a 	bcc	1cd3cd4 <__bss_end__+0x1cc8e6c>
    a7e8:	703a6425 	eorsvc	r6, sl, r5, lsr #8
    a7ec:	746e6972 	strbtvc	r6, [lr], #-2418	; 0xfffff68e
    a7f0:	7265206b 	rsbvc	r2, r5, #107, 0	; 0x6b
    a7f4:	0a726f72 	beq	1ca65c4 <__bss_end__+0x1c9b75c>
    a7f8:	0000000a 	andeq	r0, r0, sl

0000a7fc <__FUNCTION__.4004>:
    a7fc:	74696d65 	strbtvc	r6, [r9], #-3429	; 0xfffff29b
    a800:	00000000 	andeq	r0, r0, r0

0000a804 <__FUNCTION__.3952>:
    a804:	5f697072 	svcpl	0x00697072
    a808:	5f746573 	svcpl	0x00746573
    a80c:	7074756f 	rsbsvc	r7, r4, pc, ror #10
    a810:	00007475 	andeq	r7, r0, r5, ror r4

0000a814 <__FUNCTION__.4030>:
    a814:	705f6176 	subsvc	r6, pc, r6, ror r1	; <UNPREDICTABLE>
    a818:	746e6972 	strbtvc	r6, [lr], #-2418	; 0xfffff68e
    a81c:	0000006b 	andeq	r0, r0, fp, rrx
    a820:	454e4f44 	strbmi	r4, [lr, #-3908]	; 0xfffff0bc
    a824:	0a212121 	beq	852cb0 <__bss_end__+0x847e48>
    a828:	00000000 	andeq	r0, r0, r0
    a82c:	6c616d6b 	stclvs	13, cr6, [r1], #-428	; 0xfffffe54
    a830:	2e636f6c 	cdpcs	15, 6, cr6, cr3, cr12, {3}
    a834:	00000063 	andeq	r0, r0, r3, rrx
    a838:	5f78616d 	svcpl	0x0078616d
    a83c:	7479626e 	ldrbtvc	r6, [r9], #-622	; 0xfffffd92
    a840:	00007365 	andeq	r7, r0, r5, ror #6
    a844:	494e4150 	stmdbmi	lr, {r4, r6, r8, lr}^
    a848:	73253a43 			; <UNDEFINED> instruction: 0x73253a43
    a84c:	3a73253a 	bcc	1cd3d3c <__bss_end__+0x1cc8ed4>
    a850:	733a6425 	teqvc	sl, #620756992	; 0x25000000
    a854:	69747465 	ldmdbvs	r4!, {r0, r2, r5, r6, sl, ip, sp, lr}^
    a858:	6820676e 	stmdavs	r0!, {r1, r2, r3, r5, r6, r8, r9, sl, sp, lr}
    a85c:	20706165 	rsbscs	r6, r0, r5, ror #2
    a860:	25206f74 	strcs	r6, [r0, #-3956]!	; 0xfffff08c
    a864:	77203a70 			; <UNDEFINED> instruction: 0x77203a70
    a868:	206c6c69 	rsbcs	r6, ip, r9, ror #24
    a86c:	20746968 	rsbscs	r6, r4, r8, ror #18
    a870:	20656874 	rsbcs	r6, r5, r4, ror r8
    a874:	20646c6f 	rsbcs	r6, r4, pc, ror #24
    a878:	70616568 	rsbvc	r6, r1, r8, ror #10
    a87c:	20746120 	rsbscs	r6, r4, r0, lsr #2
    a880:	0a0a7025 	beq	2a691c <__bss_end__+0x29bab4>
    a884:	00000000 	andeq	r0, r0, r0
    a888:	494e4150 	stmdbmi	lr, {r4, r6, r8, lr}^
    a88c:	73253a43 			; <UNDEFINED> instruction: 0x73253a43
    a890:	3a73253a 	bcc	1cd3d80 <__bss_end__+0x1cc8f18>
    a894:	613a6425 	teqvs	sl, r5, lsr #8
    a898:	6165726c 	cmnvs	r5, ip, ror #4
    a89c:	63207964 			; <UNDEFINED> instruction: 0x63207964
    a8a0:	656c6c61 	strbvs	r6, [ip, #-3169]!	; 0xfffff39f
    a8a4:	6d6b2064 	stclvs	0, cr2, [fp, #-400]!	; 0xfffffe70
    a8a8:	6f6c6c61 	svcvs	0x006c6c61
    a8ac:	6e695f63 	cdpvs	15, 6, cr5, cr9, cr3, {3}
    a8b0:	0a0a7469 	beq	2a7a5c <__bss_end__+0x29cbf4>
    a8b4:	00000000 	andeq	r0, r0, r0
    a8b8:	494e4150 	stmdbmi	lr, {r4, r6, r8, lr}^
    a8bc:	73253a43 			; <UNDEFINED> instruction: 0x73253a43
    a8c0:	3a73253a 	bcc	1cd3db0 <__bss_end__+0x1cc8f48>
    a8c4:	253a6425 	ldrcs	r6, [sl, #-1061]!	; 0xfffffbdb
    a8c8:	626e2064 	rsbvs	r2, lr, #100, 0	; 0x64
    a8cc:	73657479 	cmnvc	r5, #2030043136	; 0x79000000
    a8d0:	63786520 	cmnvs	r8, #32, 10	; 0x8000000
    a8d4:	65646565 	strbvs	r6, [r4, #-1381]!	; 0xfffffa9b
    a8d8:	69732064 	ldmdbvs	r3!, {r2, r5, r6, sp}^
    a8dc:	6f20657a 	svcvs	0x0020657a
    a8e0:	65682066 	strbvs	r2, [r8, #-102]!	; 0xffffff9a
    a8e4:	62207061 	eorvs	r7, r0, #97, 0	; 0x61
    a8e8:	75252079 	strvc	r2, [r5, #-121]!	; 0xffffff87
    a8ec:	79626e20 	stmdbvc	r2!, {r5, r9, sl, fp, sp, lr}^
    a8f0:	0a736574 	beq	1ce3ec8 <__bss_end__+0x1cd9060>
    a8f4:	0000000a 	andeq	r0, r0, sl
    a8f8:	4f525245 	svcmi	0x00525245
    a8fc:	73253a52 			; <UNDEFINED> instruction: 0x73253a52
    a900:	3a73253a 	bcc	1cd3df0 <__bss_end__+0x1cc8f88>
    a904:	203a6425 	eorscs	r6, sl, r5, lsr #8
    a908:	534c4146 	movtpl	r4, #49478	; 0xc146
    a90c:	253c2845 	ldrcs	r2, [ip, #-2117]!	; 0xfffff7bb
    a910:	3a293e73 	bcc	a5a2e4 <__bss_end__+0xa4f47c>
    a914:	73736120 	cmnvc	r3, #8
    a918:	6e696d75 	mcrvs	13, 3, r6, cr9, cr5, {3}
    a91c:	6f702067 	svcvs	0x00702067
    a920:	20726577 	rsbscs	r6, r2, r7, ror r5
    a924:	7420666f 	strtvc	r6, [r0], #-1647	; 0xfffff991
    a928:	000a6f77 	andeq	r6, sl, r7, ror pc
    a92c:	705f7369 	subsvc	r7, pc, r9, ror #6
    a930:	2832776f 	ldmdacs	r2!, {r0, r1, r2, r3, r5, r6, r8, r9, sl, ip, sp, lr}
    a934:	67696c61 	strbvs	r6, [r9, -r1, ror #24]!
    a938:	6e656d6e 	cdpvs	13, 6, cr6, cr5, cr14, {3}
    a93c:	00002974 	andeq	r2, r0, r4, ror r9
    a940:	705f7369 	subsvc	r7, pc, r9, ror #6
    a944:	2832776f 	ldmdacs	r2!, {r0, r1, r2, r3, r5, r6, r8, r9, sl, ip, sp, lr}
    a948:	0000296e 	andeq	r2, r0, lr, ror #18
    a94c:	4f525245 	svcmi	0x00525245
    a950:	73253a52 			; <UNDEFINED> instruction: 0x73253a52
    a954:	3a73253a 	bcc	1cd3e44 <__bss_end__+0x1cc8fdc>
    a958:	203a6425 	eorscs	r6, sl, r5, lsr #8
    a95c:	534c4146 	movtpl	r4, #49478	; 0xc146
    a960:	253c2845 	ldrcs	r2, [ip, #-2117]!	; 0xfffff7bb
    a964:	3a293e73 	bcc	a5a338 <__bss_end__+0xa4f4d0>
    a968:	706d6920 	rsbvc	r6, sp, r0, lsr #18
    a96c:	6973736f 	ldmdbvs	r3!, {r0, r1, r2, r3, r5, r6, r8, r9, ip, sp, lr}^
    a970:	0a656c62 	beq	1965b00 <__bss_end__+0x195ac98>
    a974:	00000000 	andeq	r0, r0, r0
    a978:	615f7369 	cmpvs	pc, r9, ror #6
    a97c:	6e67696c 	vnmulvs.f16	s13, s14, s25	; <UNPREDICTABLE>
    a980:	68286465 	stmdavs	r8!, {r0, r2, r5, r6, sl, sp, lr}
    a984:	6c61202c 	stclvs	0, cr2, [r1], #-176	; 0xffffff50
    a988:	6d6e6769 	stclvs	7, cr6, [lr, #-420]!	; 0xfffffe5c
    a98c:	29746e65 	ldmdbcs	r4!, {r0, r2, r5, r6, r9, sl, fp, sp, lr}^
    a990:	00000000 	andeq	r0, r0, r0
    a994:	494e4150 	stmdbmi	lr, {r4, r6, r8, lr}^
    a998:	73253a43 			; <UNDEFINED> instruction: 0x73253a43
    a99c:	3a73253a 	bcc	1cd3e8c <__bss_end__+0x1cc9024>
    a9a0:	703a6425 	eorsvc	r6, sl, r5, lsr #8
    a9a4:	746e696f 	strbtvc	r6, [lr], #-2415	; 0xfffff691
    a9a8:	25207265 	strcs	r7, [r0, #-613]!	; 0xfffffd9b
    a9ac:	61772070 	cmnvs	r7, r0, ror r0
    a9b0:	656e2073 	strbvs	r2, [lr, #-115]!	; 0xffffff8d
    a9b4:	20726576 	rsbscs	r6, r2, r6, ror r5
    a9b8:	6f6c6c61 	svcvs	0x006c6c61
    a9bc:	65746163 	ldrbvs	r6, [r4, #-355]!	; 0xfffffe9d
    a9c0:	000a0a64 	andeq	r0, sl, r4, ror #20

0000a9c4 <__FUNCTION__.7>:
    a9c4:	6c616d6b 	stclvs	13, cr6, [r1], #-428	; 0xfffffe54
    a9c8:	5f636f6c 	svcpl	0x00636f6c
    a9cc:	74696e69 	strbtvc	r6, [r9], #-3689	; 0xfffff197
    a9d0:	7465735f 	strbtvc	r7, [r5], #-863	; 0xfffffca1
    a9d4:	6174735f 	cmnvs	r4, pc, asr r3
    a9d8:	00007472 	andeq	r7, r0, r2, ror r4

0000a9dc <__FUNCTION__.5>:
    a9dc:	6c616d6b 	stclvs	13, cr6, [r1], #-428	; 0xfffffe54
    a9e0:	5f636f6c 	svcpl	0x00636f6c
    a9e4:	74696e69 	strbtvc	r6, [r9], #-3689	; 0xfffff197
    a9e8:	00000000 	andeq	r0, r0, r0

0000a9ec <__FUNCTION__.4>:
    a9ec:	6c616d6b 	stclvs	13, cr6, [r1], #-428	; 0xfffffe54
    a9f0:	5f636f6c 	svcpl	0x00636f6c
    a9f4:	7a746f6e 	bvc	1d267b4 <__bss_end__+0x1d1b94c>
    a9f8:	006f7265 	rsbeq	r7, pc, r5, ror #4

0000a9fc <__FUNCTION__.2>:
    a9fc:	6c616d6b 	stclvs	13, cr6, [r1], #-428	; 0xfffffe54
    aa00:	00636f6c 	rsbeq	r6, r3, ip, ror #30

0000aa04 <__FUNCTION__.1>:
    aa04:	6c616d6b 	stclvs	13, cr6, [r1], #-428	; 0xfffffe54
    aa08:	5f636f6c 	svcpl	0x00636f6c
    aa0c:	67696c61 	strbvs	r6, [r9, -r1, ror #24]!
    aa10:	0064656e 	rsbeq	r6, r4, lr, ror #10

0000aa14 <__FUNCTION__.3>:
    aa14:	6e756f72 	mrcvs	15, 3, r6, cr5, cr2, {3}
    aa18:	00707564 	rsbseq	r7, r0, r4, ror #10

0000aa1c <__FUNCTION__.0>:
    aa1c:	6572666b 	ldrbvs	r6, [r2, #-1643]!	; 0xfffff995
    aa20:	6f705f65 	svcvs	0x00705f65
    aa24:	Address 0x000000000000aa24 is out of bounds.


Disassembly of section .data:

0000aa28 <putk>:
    aa28:	00008c64 	andeq	r8, r0, r4, ror #24

0000aa2c <heap>:
    aa2c:	0000ae68 	andeq	sl, r0, r8, ror #28

0000aa30 <heap_start>:
    aa30:	0000ae68 	andeq	sl, r0, r8, ror #28

0000aa34 <heap_end>:
    aa34:	0020ae68 	eoreq	sl, r0, r8, ror #28

0000aa38 <rpi_putchar>:
    aa38:	0000a058 	andeq	sl, r0, r8, asr r0

Disassembly of section .bss:

0000aa40 <__bss_start__>:
	...

0000aa48 <freep>:
	...

0000aa50 <base>:
	...

0000aa58 <heap_start>:
    aa58:	00000000 	andeq	r0, r0, r0

0000aa5c <heap_end>:
    aa5c:	00000000 	andeq	r0, r0, r0

0000aa60 <init_p.4012>:
    aa60:	00000000 	andeq	r0, r0, r0

0000aa64 <buf.3944>:
	...

0000ae64 <init_p.6>:
    ae64:	00000000 	andeq	r0, r0, r0

Disassembly of section .ARM.attributes:

00000000 <.ARM.attributes>:
   0:	00002a41 	andeq	r2, r0, r1, asr #20
   4:	61656100 	cmnvs	r5, r0, lsl #2
   8:	01006962 	tsteq	r0, r2, ror #18
   c:	00000020 	andeq	r0, r0, r0, lsr #32
  10:	4b5a3605 	blmi	168d82c <__bss_end__+0x16829c4>
  14:	08070600 	stmdaeq	r7, {r9, sl}
  18:	12010901 	andne	r0, r1, #16384	; 0x4000
  1c:	15011404 	strne	r1, [r1, #-1028]	; 0xfffffbfc
  20:	18031701 	stmdane	r3, {r0, r8, r9, sl, ip}
  24:	22011a01 	andcs	r1, r1, #4096	; 0x1000
  28:	Address 0x0000000000000028 is out of bounds.


Disassembly of section .comment:

00000000 <.comment>:
   0:	3a434347 	bcc	10d0d24 <__bss_end__+0x10c5ebc>
   4:	4e472820 	cdpmi	8, 4, cr2, cr7, cr0, {1}
   8:	6f542055 	svcvs	0x00542055
   c:	20736c6f 	rsbscs	r6, r3, pc, ror #24
  10:	20726f66 	rsbscs	r6, r2, r6, ror #30
  14:	206d7241 	rsbcs	r7, sp, r1, asr #4
  18:	65626d45 	strbvs	r6, [r2, #-3397]!	; 0xfffff2bb
  1c:	64656464 	strbtvs	r6, [r5], #-1124	; 0xfffffb9c
  20:	6f725020 	svcvs	0x00725020
  24:	73736563 	cmnvc	r3, #415236096	; 0x18c00000
  28:	2073726f 	rsbscs	r7, r3, pc, ror #4
  2c:	30322d39 	eorscc	r2, r2, r9, lsr sp
  30:	712d3931 			; <UNDEFINED> instruction: 0x712d3931
  34:	616d2d34 	cmnvs	sp, r4, lsr sp
  38:	29726f6a 	ldmdbcs	r2!, {r1, r3, r5, r6, r8, r9, sl, fp, sp, lr}^
  3c:	322e3920 	eorcc	r3, lr, #32, 18	; 0x80000
  40:	3220312e 	eorcc	r3, r0, #-2147483637	; 0x8000000b
  44:	31393130 	teqcc	r9, r0, lsr r1
  48:	20353230 	eorscs	r3, r5, r0, lsr r2
  4c:	6c657228 	sfmvs	f7, 2, [r5], #-160	; 0xffffff60
  50:	65736165 	ldrbvs	r6, [r3, #-357]!	; 0xfffffe9b
  54:	415b2029 	cmpmi	fp, r9, lsr #32
  58:	612f4d52 			; <UNDEFINED> instruction: 0x612f4d52
  5c:	392d6d72 	pushcc	{r1, r4, r5, r6, r8, sl, fp, sp, lr}
  60:	6172622d 	cmnvs	r2, sp, lsr #4
  64:	2068636e 	rsbcs	r6, r8, lr, ror #6
  68:	69766572 	ldmdbvs	r6!, {r1, r4, r5, r6, r8, sl, sp, lr}^
  6c:	6e6f6973 			; <UNDEFINED> instruction: 0x6e6f6973
  70:	37373220 	ldrcc	r3, [r7, -r0, lsr #4]!
  74:	5d393935 			; <UNDEFINED> instruction: 0x5d393935
  78:	43434700 	movtmi	r4, #14080	; 0x3700
  7c:	4728203a 			; <UNDEFINED> instruction: 0x4728203a
  80:	4120554e 			; <UNDEFINED> instruction: 0x4120554e
  84:	45206d72 	strmi	r6, [r0, #-3442]!	; 0xfffff28e
  88:	6465626d 	strbtvs	r6, [r5], #-621	; 0xfffffd93
  8c:	20646564 	rsbcs	r6, r4, r4, ror #10
  90:	6c6f6f54 	stclvs	15, cr6, [pc], #-336	; ffffff48 <__bss_end__+0xffff50e0>
  94:	69616863 	stmdbvs	r1!, {r0, r1, r5, r6, fp, sp, lr}^
  98:	3031206e 	eorscc	r2, r1, lr, rrx
  9c:	322d332e 	eorcc	r3, sp, #-1207959552	; 0xb8000000
  a0:	2e313230 	mrccs	2, 1, r3, cr1, cr0, {1}
  a4:	20293031 	eorcs	r3, r9, r1, lsr r0
  a8:	332e3031 			; <UNDEFINED> instruction: 0x332e3031
  ac:	3220312e 	eorcc	r3, r0, #-2147483637	; 0x8000000b
  b0:	30313230 	eorscc	r3, r1, r0, lsr r2
  b4:	20343238 	eorscs	r3, r4, r8, lsr r2
  b8:	6c657228 	sfmvs	f7, 2, [r5], #-160	; 0xffffff60
  bc:	65736165 	ldrbvs	r6, [r3, #-357]!	; 0xfffffe9b
  c0:	Address 0x00000000000000c0 is out of bounds.


Disassembly of section .debug_info:

00000000 <.debug_info>:
       0:	00000386 	andeq	r0, r0, r6, lsl #7
       4:	00000004 	andeq	r0, r0, r4
       8:	01040000 	mrseq	r0, (UNDEF: 4)
       c:	00000107 	andeq	r0, r0, r7, lsl #2
      10:	00002a0c 	andeq	r2, r0, ip, lsl #20
      14:	0000b500 	andeq	fp, r0, r0, lsl #10
      18:	00803800 	addeq	r3, r0, r0, lsl #16
      1c:	0000fc00 	andeq	pc, r0, r0, lsl #24
      20:	00000000 	andeq	r0, r0, r0
      24:	05040200 	streq	r0, [r4, #-512]	; 0xfffffe00
      28:	00746e69 	rsbseq	r6, r4, r9, ror #28
      2c:	9a070403 	bls	1c1040 <__bss_end__+0x1b61d8>
      30:	03000000 	movweq	r0, #0
      34:	006b0601 	rsbeq	r0, fp, r1, lsl #12
      38:	02030000 	andeq	r0, r3, #0, 0
      3c:	0000e705 	andeq	lr, r0, r5, lsl #14
      40:	05040300 	streq	r0, [r4, #-768]	; 0xfffffd00
      44:	000000ac 	andeq	r0, r0, ip, lsr #1
      48:	a7050803 	strge	r0, [r5, -r3, lsl #16]
      4c:	03000000 	movweq	r0, #0
      50:	00690801 	rsbeq	r0, r9, r1, lsl #16
      54:	02030000 	andeq	r0, r3, #0, 0
      58:	00004b07 	andeq	r4, r0, r7, lsl #22
      5c:	07040300 	streq	r0, [r4, -r0, lsl #6]
      60:	00000095 	muleq	r0, r5, r0
      64:	90070803 	andls	r0, r7, r3, lsl #16
      68:	04000000 	streq	r0, [r0], #-0
      6c:	00000025 	andeq	r0, r0, r5, lsr #32
      70:	0000007a 	andeq	r0, r0, sl, ror r0
      74:	00002505 	andeq	r2, r0, r5, lsl #10
      78:	fb060000 	blx	180082 <__bss_end__+0x17521a>
      7c:	03000000 	movweq	r0, #0
      80:	00860e1c 	addeq	r0, r6, ip, lsl lr
      84:	04070000 	streq	r0, [r7], #-0
      88:	0000006b 	andeq	r0, r0, fp, rrx
      8c:	00002504 	andeq	r2, r0, r4, lsl #10
      90:	00009b00 	andeq	r9, r0, r0, lsl #22
      94:	009b0500 	addseq	r0, fp, r0, lsl #10
      98:	07000000 	streq	r0, [r0, -r0]
      9c:	0000a804 	andeq	sl, r0, r4, lsl #16
      a0:	08010300 	stmdaeq	r1, {r8, r9}
      a4:	00000072 	andeq	r0, r0, r2, ror r0
      a8:	0000a108 	andeq	sl, r0, r8, lsl #2
      ac:	05850600 	streq	r0, [r5, #1536]	; 0x600
      b0:	21030000 	mrscs	r0, (UNDEF: 3)
      b4:	0000b90e 	andeq	fp, r0, lr, lsl #18
      b8:	8c040700 	stchi	7, cr0, [r4], {-0}
      bc:	09000000 	stmdbeq	r0, {}	; <UNPREDICTABLE>
      c0:	0904020c 	stmdbeq	r4, {r2, r3, r9}
      c4:	000000f0 	strdeq	r0, [r0], -r0	; <UNPREDICTABLE>
      c8:	0000250a 	andeq	r2, r0, sl, lsl #10
      cc:	11060200 	mrsne	r0, LR_usr
      d0:	0000009b 	muleq	r0, fp, r0
      d4:	007e0a00 	rsbseq	r0, lr, r0, lsl #20
      d8:	07020000 	streq	r0, [r2, -r0]
      dc:	00009b11 	andeq	r9, r0, r1, lsl fp
      e0:	080a0400 	stmdaeq	sl, {sl}
      e4:	02000000 	andeq	r0, r0, #0, 0
      e8:	002c0e08 	eoreq	r0, ip, r8, lsl #28
      ec:	00080000 	andeq	r0, r8, r0
      f0:	0000f10b 	andeq	pc, r0, fp, lsl #2
      f4:	03090200 	movweq	r0, #37376	; 0x9200
      f8:	000000bf 	strheq	r0, [r0], -pc	; <UNPREDICTABLE>
      fc:	00001d0c 	andeq	r1, r0, ip, lsl #26
     100:	060d0100 	streq	r0, [sp], -r0, lsl #2
     104:	000080a0 	andeq	r8, r0, r0, lsr #1
     108:	00000094 	muleq	r0, r4, r0
     10c:	02169c01 	andseq	r9, r6, #256	; 0x100
     110:	700d0000 	andvc	r0, sp, r0
     114:	0b110100 	bleq	44051c <__bss_end__+0x4356b4>
     118:	00000216 	andeq	r0, r0, r6, lsl r2
     11c:	00000004 	andeq	r0, r0, r4
     120:	00000000 	andeq	r0, r0, r0
     124:	0000830e 	andeq	r8, r0, lr, lsl #6
     128:	00022c00 	andeq	r2, r2, r0, lsl #24
     12c:	54030500 	strpl	r0, [r3], #-1280	; 0xfffffb00
     130:	0f0000a2 	svceq	0x000000a2
     134:	000080ac 	andeq	r8, r0, ip, lsr #1
     138:	00000343 	andeq	r0, r0, r3, asr #6
     13c:	0000014a 	andeq	r0, r0, sl, asr #2
     140:	05500110 	ldrbeq	r0, [r0, #-272]	; 0xfffffef0
     144:	00a19803 	adceq	r9, r1, r3, lsl #16
     148:	b0110000 	andslt	r0, r1, r0
     14c:	31000080 	smlabbcc	r0, r0, r0, r0
     150:	0f000002 	svceq	0x00000002
     154:	000080bc 	strheq	r8, [r0], -ip
     158:	00000343 	andeq	r0, r0, r3, asr #6
     15c:	0000016a 	andeq	r0, r0, sl, ror #2
     160:	05500110 	ldrbeq	r0, [r0, #-272]	; 0xfffffef0
     164:	00a1a403 	adceq	sl, r1, r3, lsl #8
     168:	c40f0000 	strgt	r0, [pc], #-0	; 170 <__code_start__-0x7e90>
     16c:	4f000080 	svcmi	0x00000080
     170:	7d000003 	stcvc	0, cr0, [r0, #-12]
     174:	10000001 	andne	r0, r0, r1
     178:	30015001 	andcc	r5, r1, r1
     17c:	80d40f00 	sbcshi	r0, r4, r0, lsl #30
     180:	034f0000 	movteq	r0, #61440	; 0xf000
     184:	01900000 	orrseq	r0, r0, r0
     188:	01100000 	tsteq	r0, r0
     18c:	00310150 	eorseq	r0, r1, r0, asr r1
     190:	0080e40f 	addeq	lr, r0, pc, lsl #8
     194:	00034300 	andeq	r4, r3, r0, lsl #6
     198:	0001a700 	andeq	sl, r1, r0, lsl #14
     19c:	50011000 	andpl	r1, r1, r0
     1a0:	a1f00305 	mvnsge	r0, r5, lsl #6
     1a4:	0f000000 	svceq	0x00000000
     1a8:	000080fc 	strdeq	r8, [r0], -ip
     1ac:	00000343 	andeq	r0, r0, r3, asr #6
     1b0:	000001d5 	ldrdeq	r0, [r0], -r5
     1b4:	05500110 	ldrbeq	r0, [r0, #-272]	; 0xfffffef0
     1b8:	00a1c003 	adceq	ip, r1, r3
     1bc:	51011000 	mrspl	r1, (UNDEF: 1)
     1c0:	a1680305 	cmnge	r8, r5, lsl #6
     1c4:	01100000 	tsteq	r0, r0
     1c8:	54030552 	strpl	r0, [r3], #-1362	; 0xfffffaae
     1cc:	100000a2 	andne	r0, r0, r2, lsr #1
     1d0:	47015301 	strmi	r5, [r1, -r1, lsl #6]
     1d4:	81001100 	mrshi	r1, (UNDEF: 16)
     1d8:	035b0000 	cmpeq	fp, #0, 0
     1dc:	140f0000 	strne	r0, [pc], #-0	; 1e4 <__code_start__-0x7e1c>
     1e0:	43000081 	movwmi	r0, #129	; 0x81
     1e4:	0c000003 	stceq	0, cr0, [r0], {3}
     1e8:	10000002 	andne	r0, r0, r2
     1ec:	03055001 	movweq	r5, #20481	; 0x5001
     1f0:	0000a218 	andeq	sl, r0, r8, lsl r2
     1f4:	05510110 	ldrbeq	r0, [r1, #-272]	; 0xfffffef0
     1f8:	00a16803 	adceq	r6, r1, r3, lsl #16
     1fc:	52011000 	andpl	r1, r1, #0, 0
     200:	a2540305 	subsge	r0, r4, #335544320	; 0x14000000
     204:	01100000 	tsteq	r0, r0
     208:	004d0153 	subeq	r0, sp, r3, asr r1
     20c:	00811811 	addeq	r1, r1, r1, lsl r8
     210:	00035b00 	andeq	r5, r3, r0, lsl #22
     214:	04070000 	streq	r0, [r7], #-0
     218:	000000a1 	andeq	r0, r0, r1, lsr #1
     21c:	0000a812 	andeq	sl, r0, r2, lsl r8
     220:	00022c00 	andeq	r2, r2, r0, lsl #24
     224:	002c1300 	eoreq	r1, ip, r0, lsl #6
     228:	00070000 	andeq	r0, r7, r0
     22c:	00021c08 	andeq	r1, r2, r8, lsl #24
     230:	01bc1400 			; <UNDEFINED> instruction: 0x01bc1400
     234:	05010000 	streq	r0, [r1, #-0]
     238:	00021607 	andeq	r1, r2, r7, lsl #12
     23c:	00803800 	addeq	r3, r0, r0, lsl #16
     240:	00006800 	andeq	r6, r0, r0, lsl #16
     244:	f89c0100 			; <UNDEFINED> instruction: 0xf89c0100
     248:	0d000002 	stceq	0, cr0, [r0, #-8]
     24c:	07010070 	smlsdxeq	r1, r0, r0, r0
     250:	0002160b 	andeq	r1, r2, fp, lsl #12
     254:	00002a00 	andeq	r2, r0, r0, lsl #20
     258:	00002200 	andeq	r2, r0, r0, lsl #4
     25c:	00830e00 	addeq	r0, r3, r0, lsl #28
     260:	03080000 	movweq	r0, #32768	; 0x8000
     264:	03050000 	movweq	r0, #20480	; 0x5000
     268:	0000a24c 	andeq	sl, r0, ip, asr #4
     26c:	00030d15 	andeq	r0, r3, r5, lsl sp
     270:	00804000 	addeq	r4, r0, r0
     274:	80400100 	subhi	r0, r0, r0, lsl #2
     278:	00180000 	andseq	r0, r8, r0
     27c:	07010000 	streq	r0, [r1, -r0]
     280:	0002ad0f 	andeq	sl, r2, pc, lsl #26
     284:	03361600 	teqeq	r6, #0, 12
     288:	00620000 	rsbeq	r0, r2, r0
     28c:	00600000 	rsbeq	r0, r0, r0
     290:	2a160000 	bcs	580298 <__bss_end__+0x575430>
     294:	78000003 	stmdavc	r0, {r0, r1}
     298:	76000000 	strvc	r0, [r0], -r0
     29c:	16000000 	strne	r0, [r0], -r0
     2a0:	0000031e 	andeq	r0, r0, lr, lsl r3
     2a4:	00000092 	muleq	r0, r2, r0
     2a8:	00000090 	muleq	r0, r0, r0
     2ac:	80680f00 	rsbhi	r0, r8, r0, lsl #30
     2b0:	03710000 	cmneq	r1, #0, 0
     2b4:	02c00000 	sbceq	r0, r0, #0, 0
     2b8:	01100000 	tsteq	r0, r0
     2bc:	00340150 	eorseq	r0, r4, r0, asr r1
     2c0:	0080780f 	addeq	r7, r0, pc, lsl #16
     2c4:	00034300 	andeq	r4, r3, r0, lsl #6
     2c8:	0002dd00 	andeq	sp, r2, r0, lsl #26
     2cc:	50011000 	andpl	r1, r1, r0
     2d0:	a17c0305 	cmnge	ip, r5, lsl #6
     2d4:	01100000 	tsteq	r0, r0
     2d8:	00740251 	rsbseq	r0, r4, r1, asr r2
     2dc:	80881700 	addhi	r1, r8, r0, lsl #14
     2e0:	037d0000 	cmneq	sp, #0, 0
     2e4:	01100000 	tsteq	r0, r0
     2e8:	00740250 	rsbseq	r0, r4, r0, asr r2
     2ec:	01510110 	cmpeq	r1, r0, lsl r1
     2f0:	52011030 	andpl	r1, r1, #48, 0	; 0x30
     2f4:	00003401 	andeq	r3, r0, r1, lsl #8
     2f8:	0000a812 	andeq	sl, r0, r2, lsl r8
     2fc:	00030800 	andeq	r0, r3, r0, lsl #16
     300:	002c1300 	eoreq	r1, ip, r0, lsl #6
     304:	00050000 	andeq	r0, r5, r0
     308:	0002f808 	andeq	pc, r2, r8, lsl #16
     30c:	005e1800 	subseq	r1, lr, r0, lsl #16
     310:	0c020000 	stceq	0, cr0, [r2], {-0}
     314:	0000f00b 	andeq	pc, r0, fp
     318:	03430300 	movteq	r0, #13056	; 0x3300
     31c:	25190000 	ldrcs	r0, [r9, #-0]
     320:	02000000 	andeq	r0, r0, #0, 0
     324:	009b220c 	addseq	r2, fp, ip, lsl #4
     328:	7e190000 	cdpvc	0, 1, cr0, cr9, cr0, {0}
     32c:	02000000 	andeq	r0, r0, #0, 0
     330:	009b340c 	addseq	r3, fp, ip, lsl #8
     334:	08190000 	ldmdaeq	r9, {}	; <UNPREDICTABLE>
     338:	02000000 	andeq	r0, r0, #0, 0
     33c:	002c430c 	eoreq	r4, ip, ip, lsl #6
     340:	1a000000 	bne	348 <__code_start__-0x7cb8>
     344:	00000547 	andeq	r0, r0, r7, asr #10
     348:	00000547 	andeq	r0, r0, r7, asr #10
     34c:	1a062803 	bne	18a360 <__bss_end__+0x17f4f8>
     350:	0000000f 	andeq	r0, r0, pc
     354:	0000000f 	andeq	r0, r0, pc
     358:	1a0a4804 	bne	292370 <__bss_end__+0x287508>
     35c:	0000003e 	andeq	r0, r0, lr, lsr r0
     360:	0000003e 	andeq	r0, r0, lr, lsr r0
     364:	1b066e03 	blne	19bb78 <__bss_end__+0x190d10>
     368:	74069e08 	strvc	r9, [r6], #-3592	; 0xfffff1f8
     36c:	31747365 	cmncc	r4, r5, ror #6
     370:	00001a00 	andeq	r1, r0, r0, lsl #20
     374:	00000000 	andeq	r0, r0, r0
     378:	32040000 	andcc	r0, r4, #0, 0
     37c:	00771a08 	rsbseq	r1, r7, r8, lsl #20
     380:	00770000 	rsbseq	r0, r7, r0
     384:	f2030000 	vhadd.s8	d0, d3, d0
     388:	07850007 	streq	r0, [r5, r7]
     38c:	00040000 	andeq	r0, r4, r0
     390:	0000018c 	andeq	r0, r0, ip, lsl #3
     394:	01070104 	tsteq	r7, r4, lsl #2
     398:	6f0c0000 	svcvs	0x000c0000
     39c:	b5000002 	strlt	r0, [r0, #-2]
     3a0:	34000000 	strcc	r0, [r0], #-0
     3a4:	e8000081 	stmda	r0, {r0, r7}
     3a8:	01000002 	tsteq	r0, r2
     3ac:	02000001 	andeq	r0, r0, #1, 0
     3b0:	6e690504 	cdpvs	5, 6, cr0, cr9, cr4, {0}
     3b4:	04030074 	streq	r0, [r3], #-116	; 0xffffff8c
     3b8:	00009a07 	andeq	r9, r0, r7, lsl #20
     3bc:	06010300 	streq	r0, [r1], -r0, lsl #6
     3c0:	0000006b 	andeq	r0, r0, fp, rrx
     3c4:	e7050203 	str	r0, [r5, -r3, lsl #4]
     3c8:	03000000 	movweq	r0, #0
     3cc:	00ac0504 	adceq	r0, ip, r4, lsl #10
     3d0:	08030000 	stmdaeq	r3, {}	; <UNPREDICTABLE>
     3d4:	0000a705 	andeq	sl, r0, r5, lsl #14
     3d8:	08010300 	stmdaeq	r1, {r8, r9}
     3dc:	00000069 	andeq	r0, r0, r9, rrx
     3e0:	00024804 	andeq	r4, r2, r4, lsl #16
     3e4:	19310300 	ldmdbne	r1!, {r8, r9}
     3e8:	00000062 	andeq	r0, r0, r2, rrx
     3ec:	4b070203 	blmi	1c0c00 <__bss_end__+0x1b5d98>
     3f0:	04000000 	streq	r0, [r0], #-0
     3f4:	0000023f 	andeq	r0, r0, pc, lsr r2
     3f8:	75193403 	ldrvc	r3, [r9, #-1027]	; 0xfffffbfd
     3fc:	03000000 	movweq	r0, #0
     400:	00950704 	addseq	r0, r5, r4, lsl #14
     404:	08030000 	stmdaeq	r3, {}	; <UNPREDICTABLE>
     408:	00009007 	andeq	r9, r0, r7
     40c:	00250500 	eoreq	r0, r5, r0, lsl #10
     410:	00920000 	addseq	r0, r2, r0
     414:	25060000 	strcs	r0, [r6, #-0]
     418:	00000000 	andeq	r0, r0, r0
     41c:	0000fb07 	andeq	pc, r0, r7, lsl #22
     420:	0e1c0400 	cfmulseq	mvf0, mvf12, mvf0
     424:	0000009e 	muleq	r0, lr, r0
     428:	00830408 	addeq	r0, r3, r8, lsl #8
     42c:	25050000 	strcs	r0, [r5, #-0]
     430:	b3000000 	movwlt	r0, #0
     434:	06000000 	streq	r0, [r0], -r0
     438:	000000b3 	strheq	r0, [r0], -r3
     43c:	c0040800 	andgt	r0, r4, r0, lsl #16
     440:	03000000 	movweq	r0, #0
     444:	00720801 	rsbseq	r0, r2, r1, lsl #16
     448:	b9090000 	stmdblt	r9, {}	; <UNPREDICTABLE>
     44c:	07000000 	streq	r0, [r0, -r0]
     450:	00000585 	andeq	r0, r0, r5, lsl #11
     454:	d10e2104 	tstle	lr, r4, lsl #2
     458:	08000000 	stmdaeq	r0, {}	; <UNPREDICTABLE>
     45c:	0000a404 	andeq	sl, r0, r4, lsl #8
     460:	050c0a00 	streq	r0, [ip, #-2560]	; 0xfffff600
     464:	01080904 	tsteq	r8, r4, lsl #18
     468:	250b0000 	strcs	r0, [fp, #-0]
     46c:	05000000 	streq	r0, [r0, #-0]
     470:	00b31106 	adcseq	r1, r3, r6, lsl #2
     474:	0b000000 	bleq	47c <__code_start__-0x7b84>
     478:	0000007e 	andeq	r0, r0, lr, ror r0
     47c:	b3110705 	tstlt	r1, #1310720	; 0x140000
     480:	04000000 	streq	r0, [r0], #-0
     484:	0000080b 	andeq	r0, r0, fp, lsl #16
     488:	0e080500 	cfsh32eq	mvfx0, mvfx8, #0
     48c:	0000002c 	andeq	r0, r0, ip, lsr #32
     490:	f1040008 	cps	#8
     494:	05000000 	streq	r0, [r0, #-0]
     498:	00d70309 	sbcseq	r0, r7, r9, lsl #6
     49c:	070c0000 	streq	r0, [ip, -r0]
     4a0:	00004f01 	andeq	r4, r0, r1, lsl #30
     4a4:	0e090200 	cdpeq	2, 0, cr0, cr9, cr0, {0}
     4a8:	0000012f 	andeq	r0, r0, pc, lsr #2
     4ac:	0002790d 	andeq	r7, r2, sp, lsl #18
     4b0:	d80d0b00 	stmdale	sp, {r8, r9, fp}
     4b4:	0c000001 	stceq	0, cr0, [r0], {1}
     4b8:	021d0e00 	andseq	r0, sp, #0, 28
     4bc:	02240000 	eoreq	r0, r4, #0, 0
     4c0:	0198100c 	orrseq	r1, r8, ip
     4c4:	bf0b0000 	svclt	0x000b0000
     4c8:	02000002 	andeq	r0, r0, #2, 0
     4cc:	0198140d 	orrseq	r1, r8, sp, lsl #8
     4d0:	0b000000 	bleq	4d8 <__code_start__-0x7b28>
     4d4:	00000281 	andeq	r0, r0, r1, lsl #5
     4d8:	690e0e02 	stmdbvs	lr, {r1, r9, sl, fp}
     4dc:	04000000 	streq	r0, [r0], #-0
     4e0:	00022e0b 	andeq	r2, r2, fp, lsl #28
     4e4:	0e0f0200 	cdpeq	2, 0, cr0, cr15, cr0, {0}
     4e8:	00000069 	andeq	r0, r0, r9, rrx
     4ec:	02240b08 	eoreq	r0, r4, #8, 22	; 0x2000
     4f0:	11020000 	mrsne	r0, (UNDEF: 2)
     4f4:	0001080f 	andeq	r0, r1, pc, lsl #16
     4f8:	340b0c00 	strcc	r0, [fp], #-3072	; 0xfffff400
     4fc:	02000002 	andeq	r0, r0, #2, 0
     500:	00690e14 	rsbeq	r0, r9, r4, lsl lr
     504:	0b180000 	bleq	60050c <__bss_end__+0x5f56a4>
     508:	000001de 	ldrdeq	r0, [r0], -lr
     50c:	690e1502 	stmdbvs	lr, {r1, r8, sl, ip}
     510:	1c000000 	stcne	0, cr0, [r0], {-0}
     514:	0003660b 	andeq	r6, r3, fp, lsl #12
     518:	0e170200 	cdpeq	2, 1, cr0, cr7, cr0, {0}
     51c:	00000056 	andeq	r0, r0, r6, asr r0
     520:	04080020 	streq	r0, [r8], #-32	; 0xffffffe0
     524:	0000012f 	andeq	r0, r0, pc, lsr #2
     528:	0001d204 	andeq	sp, r1, r4, lsl #4
     52c:	03180200 	tsteq	r8, #0, 4
     530:	0000012f 	andeq	r0, r0, pc, lsr #2
     534:	0610040f 	ldreq	r0, [r0], -pc, lsl #8
     538:	01000002 	tsteq	r0, r2
     53c:	01be0f08 			; <UNDEFINED> instruction: 0x01be0f08
     540:	03050000 	movweq	r0, #20480	; 0x5000
     544:	0000aa40 	andeq	sl, r0, r0, asr #20
     548:	019e0408 	orrseq	r0, lr, r8, lsl #8
     54c:	00110000 	andseq	r0, r1, r0
     550:	01000000 	mrseq	r0, (UNDEF: 0)
     554:	01aa0866 			; <UNDEFINED> instruction: 0x01aa0866
     558:	838c0000 	orrhi	r0, ip, #0, 0
     55c:	00900000 	addseq	r0, r0, r0
     560:	9c010000 	stcls	0, cr0, [r1], {-0}
     564:	0000028a 	andeq	r0, r0, sl, lsl #5
     568:	0002ae12 	andeq	sl, r2, r2, lsl lr
     56c:	1a660100 	bne	1980974 <__bss_end__+0x1975b0c>
     570:	0000002c 	andeq	r0, r0, ip, lsr #32
     574:	000000b0 	strheq	r0, [r0], -r0	; <UNPREDICTABLE>
     578:	000000aa 	andeq	r0, r0, sl, lsr #1
     57c:	01006c13 	tsteq	r0, r3, lsl ip
     580:	01082c66 	tsteq	r8, r6, ror #24
     584:	91020000 	mrsls	r0, (UNDEF: 2)
     588:	00681464 	rsbeq	r1, r8, r4, ror #8
     58c:	be0c6801 	cdplt	8, 0, cr6, cr12, cr1, {0}
     590:	e2000001 	and	r0, r0, #1, 0
     594:	dc000000 	stcle	0, cr0, [r0], {-0}
     598:	15000000 	strne	r0, [r0, #-0]
     59c:	000083a8 	andeq	r8, r0, r8, lsr #7
     5a0:	0000074c 	andeq	r0, r0, ip, asr #14
     5a4:	00000225 	andeq	r0, r0, r5, lsr #4
     5a8:	02500116 	subseq	r0, r0, #-2147483643	; 0x80000005
     5ac:	15002476 	strne	r2, [r0, #-1142]	; 0xfffffb8a
     5b0:	000083b8 			; <UNDEFINED> instruction: 0x000083b8
     5b4:	00000758 	andeq	r0, r0, r8, asr r7
     5b8:	00000244 	andeq	r0, r0, r4, asr #4
     5bc:	02500116 	subseq	r0, r0, #-2147483643	; 0x80000005
     5c0:	01160074 	tsteq	r6, r4, ror r0
     5c4:	16300151 			; <UNDEFINED> instruction: 0x16300151
     5c8:	08025201 	stmdaeq	r2, {r0, r9, ip, lr}
     5cc:	e4150024 	ldr	r0, [r5], #-36	; 0xffffffdc
     5d0:	64000083 	strvs	r0, [r0], #-131	; 0xffffff7d
     5d4:	70000007 	andvc	r0, r0, r7
     5d8:	16000002 	strne	r0, [r0], -r2
     5dc:	03055001 	movweq	r5, #20481	; 0x5001
     5e0:	0000a2bc 			; <UNDEFINED> instruction: 0x0000a2bc
     5e4:	03510116 	cmpeq	r1, #-2147483643	; 0x80000005
     5e8:	16060075 			; <UNDEFINED> instruction: 0x16060075
     5ec:	91035201 	tstls	r3, r1, lsl #4
     5f0:	01160660 	tsteq	r6, r0, ror #12
     5f4:	64910353 	ldrvs	r0, [r1], #851	; 0x353
     5f8:	f4170006 			; <UNDEFINED> instruction: 0xf4170006
     5fc:	64000083 	strvs	r0, [r0], #-131	; 0xffffff7d
     600:	16000007 	strne	r0, [r0], -r7
     604:	03055001 	movweq	r5, #20481	; 0x5001
     608:	0000a330 	andeq	sl, r0, r0, lsr r3
     60c:	02510116 	subseq	r0, r1, #-2147483643	; 0x80000005
     610:	00000075 	andeq	r0, r0, r5, ror r0
     614:	0001ff18 	andeq	pc, r1, r8, lsl pc	; <UNPREDICTABLE>
     618:	06530100 	ldrbeq	r0, [r3], -r0, lsl #2
     61c:	000082a0 	andeq	r8, r0, r0, lsr #5
     620:	000000ec 	andeq	r0, r0, ip, ror #1
     624:	03f99c01 	mvnseq	r9, #256	; 0x100
     628:	04120000 	ldreq	r0, [r2], #-0
     62c:	0100000a 	tsteq	r0, sl
     630:	01aa1453 			; <UNDEFINED> instruction: 0x01aa1453
     634:	01130000 	tsteq	r3, r0
     638:	010f0000 	mrseq	r0, CPSR
     63c:	6c130000 	ldcvs	0, cr0, [r3], {-0}
     640:	24530100 	ldrbcs	r0, [r3], #-256	; 0xffffff00
     644:	00000108 	andeq	r0, r0, r8, lsl #2
     648:	145c9102 	ldrbne	r9, [ip], #-258	; 0xfffffefe
     64c:	55010068 	strpl	r0, [r1, #-104]	; 0xffffff98
     650:	0001be0c 	andeq	fp, r1, ip, lsl #28
     654:	00013b00 	andeq	r3, r1, r0, lsl #22
     658:	00013100 	andeq	r3, r1, r0, lsl #2
     65c:	00831900 	addeq	r1, r3, r0, lsl #18
     660:	04090000 	streq	r0, [r9], #-0
     664:	03050000 	movweq	r0, #20480	; 0x5000
     668:	0000a34c 	andeq	sl, r0, ip, asr #6
     66c:	0082d415 	addeq	sp, r2, r5, lsl r4
     670:	00076400 	andeq	r6, r7, r0, lsl #8
     674:	00030b00 	andeq	r0, r3, r0, lsl #22
     678:	50011600 	andpl	r1, r1, r0, lsl #12
     67c:	a2bc0305 	adcsge	r0, ip, #335544320	; 0x14000000
     680:	01160000 	tsteq	r6, r0
     684:	00760251 	rsbseq	r0, r6, r1, asr r2
     688:	02520116 	subseq	r0, r2, #-2147483643	; 0x80000005
     68c:	01160077 	tsteq	r6, r7, ror r0
     690:	00780253 	rsbseq	r0, r8, r3, asr r2
     694:	82e01500 	rschi	r1, r0, #0, 10
     698:	07640000 	strbeq	r0, [r4, -r0]!
     69c:	03280000 			; <UNDEFINED> instruction: 0x03280000
     6a0:	01160000 	tsteq	r6, r0
     6a4:	c8030550 	stmdagt	r3, {r4, r6, r8, sl}
     6a8:	160000a2 	strne	r0, [r0], -r2, lsr #1
     6ac:	74025101 	strvc	r5, [r2], #-257	; 0xfffffeff
     6b0:	00150000 	andseq	r0, r5, r0
     6b4:	2e000083 	cdpcs	0, 0, cr0, cr0, cr3, {4}
     6b8:	3c000005 	stccc	0, cr0, [r0], {5}
     6bc:	16000003 	strne	r0, [r0], -r3
     6c0:	74025001 	strvc	r5, [r2], #-1
     6c4:	14150000 	ldrne	r0, [r5], #-0
     6c8:	0e000083 	cdpeq	0, 0, cr0, cr0, cr3, {4}
     6cc:	59000004 	stmdbpl	r0, {r2}
     6d0:	16000003 	strne	r0, [r0], -r3
     6d4:	03055001 	movweq	r5, #20481	; 0x5001
     6d8:	0000aa40 	andeq	sl, r0, r0, asr #20
     6dc:	02510116 	subseq	r0, r1, #-2147483643	; 0x80000005
     6e0:	15000075 	strne	r0, [r0, #-117]	; 0xffffff8b
     6e4:	0000831c 	andeq	r8, r0, ip, lsl r3
     6e8:	00000770 	andeq	r0, r0, r0, ror r7
     6ec:	0000036d 	andeq	r0, r0, sp, ror #6
     6f0:	02500116 	subseq	r0, r0, #-2147483643	; 0x80000005
     6f4:	15000075 	strne	r0, [r0, #-117]	; 0xffffff8b
     6f8:	00008338 	andeq	r8, r0, r8, lsr r3
     6fc:	00000764 	andeq	r0, r0, r4, ror #14
     700:	00000396 	muleq	r0, r6, r3
     704:	05500116 	ldrbeq	r0, [r0, #-278]	; 0xfffffeea
     708:	00a2d803 	adceq	sp, r2, r3, lsl #16
     70c:	51011600 	tstpl	r1, r0, lsl #12
     710:	16007602 	strne	r7, [r0], -r2, lsl #12
     714:	77025201 	strvc	r5, [r2, -r1, lsl #4]
     718:	53011600 	movwpl	r1, #5632	; 0x1600
     71c:	00007802 	andeq	r7, r0, r2, lsl #16
     720:	00834415 	addeq	r4, r3, r5, lsl r4
     724:	00076400 	andeq	r6, r7, r0, lsl #8
     728:	0003ad00 	andeq	sl, r3, r0, lsl #26
     72c:	50011600 	andpl	r1, r1, r0, lsl #12
     730:	a2f00305 	rscsge	r0, r0, #335544320	; 0x14000000
     734:	1a000000 	bne	73c <__code_start__-0x78c4>
     738:	00008348 	andeq	r8, r0, r8, asr #6
     73c:	0000077c 	andeq	r0, r0, ip, ror r7
     740:	00836415 	addeq	r6, r3, r5, lsl r4
     744:	00076400 	andeq	r6, r7, r0, lsl #8
     748:	0003ef00 	andeq	lr, r3, r0, lsl #30
     74c:	50011600 	andpl	r1, r1, r0, lsl #12
     750:	a2680305 	rsbge	r0, r8, #335544320	; 0x14000000
     754:	01160000 	tsteq	r6, r0
     758:	5c030551 	cfstr32pl	mvfx0, [r3], {81}	; 0x51
     75c:	160000a2 	strne	r0, [r0], -r2, lsr #1
     760:	03055201 	movweq	r5, #20993	; 0x5201
     764:	0000a34c 	andeq	sl, r0, ip, asr #6
     768:	02530116 	subseq	r0, r3, #-2147483643	; 0x80000005
     76c:	02165d08 	andseq	r5, r6, #8, 26	; 0x200
     770:	0305007d 	movweq	r0, #20605	; 0x507d
     774:	0000a318 	andeq	sl, r0, r8, lsl r3
     778:	83681a00 	cmnhi	r8, #0, 20
     77c:	077c0000 	ldrbeq	r0, [ip, -r0]!
     780:	1b000000 	blne	788 <__code_start__-0x7878>
     784:	000000c0 	andeq	r0, r0, r0, asr #1
     788:	00000409 	andeq	r0, r0, r9, lsl #8
     78c:	00002c1c 	andeq	r2, r0, ip, lsl ip
     790:	09000600 	stmdbeq	r0, {r9, sl}
     794:	000003f9 	strdeq	r0, [r0], -r9
     798:	0002111d 	andeq	r1, r2, sp, lsl r1
     79c:	0d3a0100 	ldfeqs	f0, [sl, #-0]
     7a0:	00008154 	andeq	r8, r0, r4, asr r1
     7a4:	000000a4 	andeq	r0, r0, r4, lsr #1
     7a8:	05139c01 	ldreq	r9, [r3, #-3073]	; 0xfffff3ff
     7ac:	6c1e0000 	ldcvs	0, cr0, [lr], {-0}
     7b0:	213a0100 	teqcs	sl, r0, lsl #2
     7b4:	00000513 	andeq	r0, r0, r3, lsl r5
     7b8:	0000018c 	andeq	r0, r0, ip, lsl #3
     7bc:	0000017e 	andeq	r0, r0, lr, ror r1
     7c0:	0100681e 	tsteq	r0, lr, lsl r8
     7c4:	01be2b3a 			; <UNDEFINED> instruction: 0x01be2b3a
     7c8:	01f60000 	mvnseq	r0, r0
     7cc:	01ea0000 	mvneq	r0, r0
     7d0:	83190000 	tsthi	r9, #0, 0
     7d4:	29000000 	stmdbcs	r0, {}	; <UNPREDICTABLE>
     7d8:	05000005 	streq	r0, [r0, #-5]
     7dc:	00a34003 	adceq	r4, r3, r3
     7e0:	02a61f00 	adceq	r1, r6, #0, 30
     7e4:	3d010000 	stccc	0, cr0, [r1, #-0]
     7e8:	0001be0c 	andeq	fp, r1, ip, lsl #28
     7ec:	00024b00 	andeq	r4, r2, r0, lsl #22
     7f0:	00024300 	andeq	r4, r2, r0, lsl #6
     7f4:	00701400 	rsbseq	r1, r0, r0, lsl #8
     7f8:	be0c4501 	cfsh32lt	mvfx4, mvfx12, #1
     7fc:	83000001 	movwhi	r0, #1
     800:	7f000002 	svcvc	0x00000002
     804:	15000002 	strne	r0, [r0, #-2]
     808:	0000817c 	andeq	r8, r0, ip, ror r1
     80c:	000006ed 	andeq	r0, r0, sp, ror #13
     810:	00000491 	muleq	r0, r1, r4
     814:	02500116 	subseq	r0, r0, #-2147483643	; 0x80000005
     818:	15000075 	strne	r0, [r0, #-117]	; 0xffffff8b
     81c:	000081b8 			; <UNDEFINED> instruction: 0x000081b8
     820:	00000764 	andeq	r0, r0, r4, ror #14
     824:	000004ca 	andeq	r0, r0, sl, asr #9
     828:	05500116 	ldrbeq	r0, [r0, #-278]	; 0xfffffeea
     82c:	00a26803 	adceq	r6, r2, r3, lsl #16
     830:	51011600 	tstpl	r1, r0, lsl #12
     834:	a25c0305 	subsge	r0, ip, #335544320	; 0x14000000
     838:	01160000 	tsteq	r6, r0
     83c:	40030552 	andmi	r0, r3, r2, asr r5
     840:	160000a3 	strne	r0, [r0], -r3, lsr #1
     844:	08025301 	stmdaeq	r2, {r0, r8, r9, ip, lr}
     848:	7d02163c 	stcvc	6, cr1, [r2, #-240]	; 0xffffff10
     84c:	7c030500 	cfstr32vc	mvfx0, [r3], {-0}
     850:	000000a2 	andeq	r0, r0, r2, lsr #1
     854:	0081bc1a 	addeq	fp, r1, sl, lsl ip
     858:	00077c00 	andeq	r7, r7, r0, lsl #24
     85c:	81e01500 	mvnhi	r1, r0, lsl #10
     860:	07640000 	strbeq	r0, [r4, -r0]!
     864:	05090000 	streq	r0, [r9, #-0]
     868:	01160000 	tsteq	r6, r0
     86c:	80030550 	andhi	r0, r3, r0, asr r5
     870:	160000a2 	strne	r0, [r0], -r2, lsr #1
     874:	03055101 	movweq	r5, #20737	; 0x5101
     878:	0000a25c 	andeq	sl, r0, ip, asr r2
     87c:	05520116 	ldrbeq	r0, [r2, #-278]	; 0xfffffeea
     880:	00a34003 	adceq	r4, r3, r3
     884:	53011600 	movwpl	r1, #5632	; 0x1600
     888:	164f0802 	strbne	r0, [pc], -r2, lsl #16
     88c:	02007d02 	andeq	r7, r0, #128	; 0x80
     890:	1a000074 	bne	a68 <__code_start__-0x7598>
     894:	000081e4 	andeq	r8, r0, r4, ror #3
     898:	0000077c 	andeq	r0, r0, ip, ror r7
     89c:	be040800 	cdplt	8, 0, cr0, cr4, cr0, {0}
     8a0:	1b000001 	blne	8ac <__code_start__-0x7754>
     8a4:	000000c0 	andeq	r0, r0, r0, asr #1
     8a8:	00000529 	andeq	r0, r0, r9, lsr #10
     8ac:	00002c1c 	andeq	r2, r0, ip, lsl ip
     8b0:	09000b00 	stmdbeq	r0, {r8, r9, fp}
     8b4:	00000519 	andeq	r0, r0, r9, lsl r5
     8b8:	00025111 	andeq	r5, r2, r1, lsl r1
     8bc:	082b0100 	stmdaeq	fp!, {r8}
     8c0:	000001be 			; <UNDEFINED> instruction: 0x000001be
     8c4:	00008248 	andeq	r8, r0, r8, asr #4
     8c8:	00000058 	andeq	r0, r0, r8, asr r0
     8cc:	05cf9c01 	strbeq	r9, [pc, #3073]	; 14d5 <__code_start__-0x6b2b>
     8d0:	701e0000 	andsvc	r0, lr, r0
     8d4:	01007274 	tsteq	r0, r4, ror r2
     8d8:	01aa202b 			; <UNDEFINED> instruction: 0x01aa202b
     8dc:	02a50000 	adceq	r0, r5, #0, 0
     8e0:	02a10000 	adceq	r0, r1, #0, 0
     8e4:	50200000 	eorpl	r0, r0, r0
     8e8:	44000082 	strmi	r0, [r0], #-130	; 0xffffff7e
     8ec:	14000000 	strne	r0, [r0], #-0
     8f0:	2e010068 	cdpcs	0, 0, cr0, cr1, cr8, {3}
     8f4:	0001be11 	andeq	fp, r1, r1, lsl lr
     8f8:	0002cb00 	andeq	ip, r2, r0, lsl #22
     8fc:	0002c300 	andeq	ip, r2, r0, lsl #6
     900:	82541a00 	subshi	r1, r4, #0, 20
     904:	071a0000 	ldreq	r0, [sl, -r0]
     908:	6c150000 	ldcvs	0, cr0, [r5], {-0}
     90c:	cf000082 	svcgt	0x00000082
     910:	9a000005 	bls	92c <__code_start__-0x76d4>
     914:	16000005 	strne	r0, [r0], -r5
     918:	74025001 	strvc	r5, [r2], #-1
     91c:	51011600 	tstpl	r1, r0, lsl #12
     920:	00007502 	andeq	r7, r0, r2, lsl #10
     924:	00827c15 	addeq	r7, r2, r5, lsl ip
     928:	0006ed00 	andeq	lr, r6, r0, lsl #26
     92c:	0005ae00 	andeq	sl, r5, r0, lsl #28
     930:	50011600 	andpl	r1, r1, r0, lsl #12
     934:	00007402 	andeq	r7, r0, r2, lsl #8
     938:	00829417 	addeq	r9, r2, r7, lsl r4
     93c:	00076400 	andeq	r6, r7, r0, lsl #8
     940:	50011600 	andpl	r1, r1, r0, lsl #12
     944:	a2ac0305 	adcge	r0, ip, #335544320	; 0x14000000
     948:	01160000 	tsteq	r6, r0
     94c:	00750251 	rsbseq	r0, r5, r1, asr r2
     950:	02520116 	subseq	r0, r2, #-2147483643	; 0x80000005
     954:	00000074 	andeq	r0, r0, r4, ror r0
     958:	01c21100 	biceq	r1, r2, r0, lsl #2
     95c:	24010000 	strcs	r0, [r1], #-0
     960:	00002c0a 	andeq	r2, r0, sl, lsl #24
     964:	00821800 	addeq	r1, r2, r0, lsl #16
     968:	00003000 	andeq	r3, r0, r0
     96c:	5c9c0100 	ldfpls	f0, [ip], {0}
     970:	1e000006 	cdpne	0, 0, cr0, cr0, cr6, {0}
     974:	24010068 	strcs	r0, [r1], #-104	; 0xffffff98
     978:	0001be21 	andeq	fp, r1, r1, lsr #28
     97c:	00030300 	andeq	r0, r3, r0, lsl #6
     980:	0002ff00 	andeq	pc, r2, r0, lsl #30
     984:	74701e00 	ldrbtvc	r1, [r0], #-3584	; 0xfffff200
     988:	24010072 	strcs	r0, [r1], #-114	; 0xffffff8e
     98c:	0001aa2a 	andeq	sl, r1, sl, lsr #20
     990:	00032500 	andeq	r2, r3, r0, lsl #10
     994:	00032100 	andeq	r2, r3, r0, lsl #2
     998:	696d1400 	stmdbvs	sp!, {sl, ip}^
     99c:	2601006e 	strcs	r0, [r1], -lr, rrx
     9a0:	0001aa0b 	andeq	sl, r1, fp, lsl #20
     9a4:	00034700 	andeq	r4, r3, r0, lsl #14
     9a8:	00034300 	andeq	r4, r3, r0, lsl #6
     9ac:	616d1400 	cmnvs	sp, r0, lsl #8
     9b0:	27010078 	smlsdxcs	r1, r8, r0, r0
     9b4:	0001aa0b 	andeq	sl, r1, fp, lsl #20
     9b8:	00036700 	andeq	r6, r3, r0, lsl #14
     9bc:	00036500 	andeq	r6, r3, r0, lsl #10
     9c0:	82281500 	eorhi	r1, r8, #0, 10
     9c4:	06c00000 	strbeq	r0, [r0], r0
     9c8:	064b0000 	strbeq	r0, [fp], -r0
     9cc:	01160000 	tsteq	r6, r0
     9d0:	00760250 	rsbseq	r0, r6, r0, asr r2
     9d4:	82341700 	eorshi	r1, r4, #0, 14
     9d8:	065c0000 	ldrbeq	r0, [ip], -r0
     9dc:	01160000 	tsteq	r6, r0
     9e0:	00760250 	rsbseq	r0, r6, r0, asr r2
     9e4:	9b110000 	blls	4409ec <__bss_end__+0x435b84>
     9e8:	01000002 	tsteq	r0, r2
     9ec:	01aa071e 			; <UNDEFINED> instruction: 0x01aa071e
     9f0:	82000000 	andhi	r0, r0, #0, 0
     9f4:	00180000 	andseq	r0, r8, r0
     9f8:	9c010000 	stcls	0, cr0, [r1], {-0}
     9fc:	000006c0 	andeq	r0, r0, r0, asr #13
     a00:	0100681e 	tsteq	r0, lr, lsl r8
     a04:	01be191e 			; <UNDEFINED> instruction: 0x01be191e
     a08:	037e0000 	cmneq	lr, #0, 0
     a0c:	037a0000 	cmneq	sl, #0, 0
     a10:	30210000 	eorcc	r0, r1, r0
     a14:	0c000007 	stceq	0, cr0, [r0], {7}
     a18:	00000082 	andeq	r0, r0, r2, lsl #1
     a1c:	0000820c 	andeq	r8, r0, ip, lsl #4
     a20:	00000004 	andeq	r0, r0, r4
     a24:	af262001 	svcge	0x00262001
     a28:	22000006 	andcs	r0, r0, #6, 0
     a2c:	00000741 	andeq	r0, r0, r1, asr #14
     a30:	0000039e 	muleq	r0, lr, r3
     a34:	0000039c 	muleq	r0, ip, r3
     a38:	820c1700 	andhi	r1, ip, #0, 14
     a3c:	06c00000 	strbeq	r0, [r0], r0
     a40:	01160000 	tsteq	r6, r0
     a44:	00740250 	rsbseq	r0, r4, r0, asr r2
     a48:	8e110000 	cdphi	0, 1, cr0, cr1, cr0, {0}
     a4c:	01000002 	tsteq	r0, r2
     a50:	01aa0718 			; <UNDEFINED> instruction: 0x01aa0718
     a54:	81f80000 	mvnshi	r0, r0
     a58:	00080000 	andeq	r0, r8, r0
     a5c:	9c010000 	stcls	0, cr0, [r1], {-0}
     a60:	000006ed 	andeq	r0, r0, sp, ror #13
     a64:	0100681e 	tsteq	r0, lr, lsl r8
     a68:	01be1b18 			; <UNDEFINED> instruction: 0x01be1b18
     a6c:	03b50000 			; <UNDEFINED> instruction: 0x03b50000
     a70:	03b10000 			; <UNDEFINED> instruction: 0x03b10000
     a74:	11000000 	mrsne	r0, (UNDEF: 0)
     a78:	00000263 	andeq	r0, r0, r3, ror #4
     a7c:	be081101 	adflte	f1, f0, f1
     a80:	44000001 	strmi	r0, [r0], #-1
     a84:	10000081 	andne	r0, r0, r1, lsl #1
     a88:	01000000 	mrseq	r0, (UNDEF: 0)
     a8c:	00071a9c 	muleq	r7, ip, sl
     a90:	00701e00 	rsbseq	r1, r0, r0, lsl #28
     a94:	be1b1101 	muflte	f1, f3, f1
     a98:	d9000001 	stmdble	r0, {r0}
     a9c:	d5000003 	strle	r0, [r0, #-3]
     aa0:	00000003 	andeq	r0, r0, r3
     aa4:	0001f223 	andeq	pc, r1, r3, lsr #4
     aa8:	080b0100 	stmdaeq	fp, {r8}
     aac:	000001be 			; <UNDEFINED> instruction: 0x000001be
     ab0:	00008134 	andeq	r8, r0, r4, lsr r1
     ab4:	00000010 	andeq	r0, r0, r0, lsl r0
     ab8:	ab249c01 	blge	927ac4 <__bss_end__+0x91cc5c>
     abc:	02000002 	andeq	r0, r0, #2, 0
     ac0:	002c1821 	eoreq	r1, ip, r1, lsr #16
     ac4:	4c030000 	stcmi	0, cr0, [r3], {-0}
     ac8:	25000007 	strcs	r0, [r0, #-7]
     acc:	21020068 	tstcs	r2, r8, rrx
     ad0:	0001be29 	andeq	fp, r1, r9, lsr #28
     ad4:	b5260000 	strlt	r0, [r6, #-0]!
     ad8:	b5000002 	strlt	r0, [r0, #-2]
     adc:	06000002 	streq	r0, [r0], -r2
     ae0:	7726071e 			; <UNDEFINED> instruction: 0x7726071e
     ae4:	77000000 	strvc	r0, [r0, -r0]
     ae8:	04000000 	streq	r0, [r0], #-0
     aec:	472607f2 			; <UNDEFINED> instruction: 0x472607f2
     af0:	47000005 	strmi	r0, [r0, -r5]
     af4:	04000005 	streq	r0, [r0], #-5
     af8:	ea260628 	b	9823a0 <__bss_end__+0x977538>
     afc:	ea000001 	b	b08 <__code_start__-0x74f8>
     b00:	06000001 	streq	r0, [r0], -r1
     b04:	3e26061f 	mcrcc	6, 1, r0, cr6, cr15, {0}
     b08:	3e000000 	cdpcc	0, 0, cr0, cr0, cr0, {0}
     b0c:	04000000 	streq	r0, [r0], #-0
     b10:	c200066e 	andgt	r0, r0, #115343360	; 0x6e00000
     b14:	04000002 	streq	r0, [r0], #-2
     b18:	0003e200 	andeq	lr, r3, r0, lsl #4
     b1c:	07010400 	streq	r0, [r1, -r0, lsl #8]
     b20:	0c000001 	stceq	0, cr0, [r0], {1}
     b24:	000002e4 	andeq	r0, r0, r4, ror #5
     b28:	000000b5 	strheq	r0, [r0], -r5
     b2c:	0000841c 	andeq	r8, r0, ip, lsl r4
     b30:	000001ac 	andeq	r0, r0, ip, lsr #3
     b34:	000003e9 	andeq	r0, r0, r9, ror #7
     b38:	69050402 	stmdbvs	r5, {r1, sl}
     b3c:	0300746e 	movweq	r7, #1134	; 0x46e
     b40:	009a0704 	addseq	r0, sl, r4, lsl #14
     b44:	01030000 	mrseq	r0, (UNDEF: 3)
     b48:	00006b06 	andeq	r6, r0, r6, lsl #22
     b4c:	05020300 	streq	r0, [r2, #-768]	; 0xfffffd00
     b50:	000000e7 	andeq	r0, r0, r7, ror #1
     b54:	ac050403 	cfstrsge	mvf0, [r5], {3}
     b58:	03000000 	movweq	r0, #0
     b5c:	00a70508 	adceq	r0, r7, r8, lsl #10
     b60:	01030000 	mrseq	r0, (UNDEF: 3)
     b64:	00006908 	andeq	r6, r0, r8, lsl #18
     b68:	07020300 	streq	r0, [r2, -r0, lsl #6]
     b6c:	0000004b 	andeq	r0, r0, fp, asr #32
     b70:	95070403 	strls	r0, [r7, #-1027]	; 0xfffffbfd
     b74:	03000000 	movweq	r0, #0
     b78:	00900708 	addseq	r0, r0, r8, lsl #14
     b7c:	25040000 	strcs	r0, [r4, #-0]
     b80:	7a000000 	bvc	b88 <__code_start__-0x7478>
     b84:	05000000 	streq	r0, [r0, #-0]
     b88:	00000025 	andeq	r0, r0, r5, lsr #32
     b8c:	00fb0600 	rscseq	r0, fp, r0, lsl #12
     b90:	1c020000 	stcne	0, cr0, [r2], {-0}
     b94:	0000860e 	andeq	r8, r0, lr, lsl #12
     b98:	6b040700 	blvs	1027a0 <__bss_end__+0xf7938>
     b9c:	04000000 	streq	r0, [r0], #-0
     ba0:	00000025 	andeq	r0, r0, r5, lsr #32
     ba4:	0000009b 	muleq	r0, fp, r0
     ba8:	00009b05 	andeq	r9, r0, r5, lsl #22
     bac:	04070000 	streq	r0, [r7], #-0
     bb0:	000000a8 	andeq	r0, r0, r8, lsr #1
     bb4:	72080103 	andvc	r0, r8, #-1073741824	; 0xc0000000
     bb8:	08000000 	stmdaeq	r0, {}	; <UNPREDICTABLE>
     bbc:	000000a1 	andeq	r0, r0, r1, lsr #1
     bc0:	00058506 	andeq	r8, r5, r6, lsl #10
     bc4:	0e210200 	cdpeq	2, 2, cr0, cr1, cr0, {0}
     bc8:	000000b9 	strheq	r0, [r0], -r9
     bcc:	008c0407 	addeq	r0, ip, r7, lsl #8
     bd0:	d1090000 	mrsle	r0, (UNDEF: 9)
     bd4:	08000002 	stmdaeq	r0, {r1}
     bd8:	ec070501 	cfstr32	mvfx0, [r7], {1}
     bdc:	0a000000 	beq	be4 <__code_start__-0x741c>
     be0:	07010064 	streq	r0, [r1, -r4, rrx]
     be4:	0000ec09 	andeq	lr, r0, r9, lsl #24
     be8:	00700a00 	rsbseq	r0, r0, r0, lsl #20
     bec:	f3080801 	vsub.i8	d0, d8, d1
     bf0:	0a000000 	beq	bf8 <__code_start__-0x7408>
     bf4:	01007066 	tsteq	r0, r6, rrx
     bf8:	00f60909 	rscseq	r0, r6, r9, lsl #18
     bfc:	03000000 	movweq	r0, #0
     c00:	02f00408 	rscseq	r0, r0, #8, 8	; 0x8000000
     c04:	040b0000 	streq	r0, [fp], #-0
     c08:	f504070c 			; <UNDEFINED> instruction: 0xf504070c
     c0c:	0d000000 	stceq	0, cr0, [r0, #-0]
     c10:	020e0108 	andeq	r0, lr, #2
     c14:	00000120 	andeq	r0, r0, r0, lsr #2
     c18:	7274700e 	rsbsvc	r7, r4, #14, 0
     c1c:	11100100 	tstne	r0, r0, lsl #2
     c20:	00000142 	andeq	r0, r0, r2, asr #2
     c24:	030a0f00 	movweq	r0, #44800	; 0xaf00
     c28:	11010000 	mrsne	r0, (UNDEF: 1)
     c2c:	00002c0c 	andeq	r2, r0, ip, lsl #24
     c30:	09000400 	stmdbeq	r0, {sl}
     c34:	000002c4 	andeq	r0, r0, r4, asr #5
     c38:	0f0c0108 	svceq	0x000c0108
     c3c:	00000142 	andeq	r0, r0, r2, asr #2
     c40:	0100730a 	tsteq	r0, sl, lsl #6
     c44:	00fc0412 	rscseq	r0, ip, r2, lsl r4
     c48:	780a0000 	stmdavc	sl, {}	; <UNPREDICTABLE>
     c4c:	0e130100 	mufeqs	f0, f3, f0
     c50:	000000bf 	strheq	r0, [r0], -pc	; <UNPREDICTABLE>
     c54:	20040700 	andcs	r0, r4, r0, lsl #14
     c58:	10000001 	andne	r0, r0, r1
     c5c:	0000030f 	andeq	r0, r0, pc, lsl #6
     c60:	20031401 	andcs	r1, r3, r1, lsl #8
     c64:	11000001 	tstne	r0, r1
     c68:	000002f7 	strdeq	r0, [r0], -r7
     c6c:	480f1801 	stmdami	pc, {r0, fp, ip}	; <UNPREDICTABLE>
     c70:	05000001 	streq	r0, [r0, #-1]
     c74:	00aa5003 	adceq	r5, sl, r3
     c78:	02d71100 	sbcseq	r1, r7, #0
     c7c:	19010000 	stmdbne	r1, {}	; <UNPREDICTABLE>
     c80:	00017810 	andeq	r7, r1, r0, lsl r8
     c84:	48030500 	stmdami	r3, {r8, sl}
     c88:	070000aa 	streq	r0, [r0, -sl, lsr #1]
     c8c:	00014804 	andeq	r4, r1, r4, lsl #16
     c90:	01ea1200 	mvneq	r1, r0, lsl #4
     c94:	52010000 	andpl	r0, r1, #0, 0
     c98:	00841c06 	addeq	r1, r4, r6, lsl #24
     c9c:	0000bc00 	andeq	fp, r0, r0, lsl #24
     ca0:	c79c0100 	ldrgt	r0, [ip, r0, lsl #2]
     ca4:	13000001 	movwne	r0, #1
     ca8:	01007061 	tsteq	r0, r1, rrx
     cac:	00f31452 	rscseq	r1, r3, r2, asr r4
     cb0:	50010000 	andpl	r0, r1, r0
     cb4:	00706214 	rsbseq	r6, r0, r4, lsl r2
     cb8:	780a5401 	stmdavc	sl, {r0, sl, ip, lr}
     cbc:	02000001 	andeq	r0, r0, #1, 0
     cc0:	fa000004 	blx	cd8 <__code_start__-0x7328>
     cc4:	14000003 	strne	r0, [r0], #-3
     cc8:	54010070 	strpl	r0, [r1], #-112	; 0xffffff90
     ccc:	0001780f 	andeq	r7, r1, pc, lsl #16
     cd0:	00043e00 	andeq	r3, r4, r0, lsl #28
     cd4:	00043a00 	andeq	r3, r4, r0, lsl #20
     cd8:	b5150000 	ldrlt	r0, [r5, #-0]
     cdc:	01000002 	tsteq	r0, r2
     ce0:	00f3072a 	rscseq	r0, r3, sl, lsr #14
     ce4:	851c0000 	ldrhi	r0, [ip, #-0]
     ce8:	00ac0000 	adceq	r0, ip, r0
     cec:	9c010000 	stcls	0, cr0, [r1], {-0}
     cf0:	00000240 	andeq	r0, r0, r0, asr #4
     cf4:	0002ae16 	andeq	sl, r2, r6, lsl lr
     cf8:	1a2a0100 	bne	a81100 <__bss_end__+0xa76298>
     cfc:	0000002c 	andeq	r0, r0, ip, lsr #32
     d00:	00000464 	andeq	r0, r0, r4, ror #8
     d04:	0000045c 	andeq	r0, r0, ip, asr r4
     d08:	01007014 	tsteq	r0, r4, lsl r0
     d0c:	01780a2c 	cmneq	r8, ip, lsr #20
     d10:	04ac0000 	strteq	r0, [ip], #0
     d14:	049e0000 	ldreq	r0, [lr], #0
     d18:	cb170000 	blgt	5c0d20 <__bss_end__+0x5b5eb8>
     d1c:	01000002 	tsteq	r0, r2
     d20:	01780e2c 	cmneq	r8, ip, lsr #28
     d24:	050e0000 	streq	r0, [lr, #-0]
     d28:	05040000 	streq	r0, [r4, #-0]
     d2c:	dd170000 	ldcle	0, cr0, [r7, #-0]
     d30:	01000002 	tsteq	r0, r2
     d34:	002c0b2d 	eoreq	r0, ip, sp, lsr #22
     d38:	05540000 	ldrbeq	r0, [r4, #-0]
     d3c:	05520000 	ldrbeq	r0, [r2, #-0]
     d40:	b8180000 	ldmdalt	r8, {}	; <UNPREDICTABLE>
     d44:	40000085 	andmi	r0, r0, r5, lsl #1
     d48:	19000002 	stmdbne	r0, {r1}
     d4c:	74025001 	strvc	r5, [r2], #-1
     d50:	1a000000 	bne	d58 <__code_start__-0x72a8>
     d54:	00000301 	andeq	r0, r0, r1, lsl #6
     d58:	78101c01 	ldmdavc	r0, {r0, sl, fp, ip}
     d5c:	d8000001 	stmdale	r0, {r0}
     d60:	44000084 	strmi	r0, [r0], #-132	; 0xffffff7c
     d64:	01000000 	mrseq	r0, (UNDEF: 0)
     d68:	0002b39c 	muleq	r2, ip, r3
     d6c:	756e1b00 	strbvc	r1, [lr, #-2816]!	; 0xfffff500
     d70:	221c0100 	andscs	r0, ip, #0
     d74:	0000002c 	andeq	r0, r0, ip, lsr #32
     d78:	0000056b 	andeq	r0, r0, fp, ror #10
     d7c:	00000567 	andeq	r0, r0, r7, ror #10
     d80:	00706314 	rsbseq	r6, r0, r4, lsl r3
     d84:	b3082001 	movwlt	r2, #32769	; 0x8001
     d88:	8f000002 	svchi	0x00000002
     d8c:	89000005 	stmdbhi	r0, {r0, r2}
     d90:	14000005 	strne	r0, [r0], #-5
     d94:	01007075 	tsteq	r0, r5, ror r0
     d98:	01780a23 	cmneq	r8, r3, lsr #20
     d9c:	05be0000 	ldreq	r0, [lr, #0]!
     da0:	05ba0000 	ldreq	r0, [sl, #0]!
     da4:	f01c0000 			; <UNDEFINED> instruction: 0xf01c0000
     da8:	b9000084 	stmdblt	r0, {r2, r7}
     dac:	a9000002 	stmdbge	r0, {r1}
     db0:	19000002 	stmdbne	r0, {r1}
     db4:	74045001 	strvc	r5, [r4], #-1
     db8:	00243300 	eoreq	r3, r4, r0, lsl #6
     dbc:	0085041d 	addeq	r0, r5, sp, lsl r4
     dc0:	00017e00 	andeq	r7, r1, r0, lsl #28
     dc4:	04070000 	streq	r0, [r7], #-0
     dc8:	000000a1 	andeq	r0, r0, r1, lsr #1
     dcc:	0002fc1e 	andeq	pc, r2, lr, lsl ip	; <UNPREDICTABLE>
     dd0:	0002fc00 	andeq	pc, r2, r0, lsl #24
     dd4:	0b1a0300 	bleq	6819dc <__bss_end__+0x676b74>
     dd8:	000ca300 	andeq	sl, ip, r0, lsl #6
     ddc:	b9000400 	stmdblt	r0, {sl}
     de0:	04000005 	streq	r0, [r0], #-5
     de4:	00010701 	andeq	r0, r1, r1, lsl #14
     de8:	03d00c00 	bicseq	r0, r0, #0, 24
     dec:	00b50000 	adcseq	r0, r5, r0
     df0:	85c80000 	strbhi	r0, [r8]
     df4:	05c40000 	strbeq	r0, [r4]
     df8:	06140000 	ldreq	r0, [r4], -r0
     dfc:	04020000 	streq	r0, [r2], #-0
     e00:	746e6905 	strbtvc	r6, [lr], #-2309	; 0xfffff6fb
     e04:	07040300 	streq	r0, [r4, -r0, lsl #6]
     e08:	0000009a 	muleq	r0, sl, r0
     e0c:	6b060103 	blvs	181220 <__bss_end__+0x1763b8>
     e10:	03000000 	movweq	r0, #0
     e14:	00e70502 	rsceq	r0, r7, r2, lsl #10
     e18:	04030000 	streq	r0, [r3], #-0
     e1c:	0000ac05 	andeq	sl, r0, r5, lsl #24
     e20:	05080300 	streq	r0, [r8, #-768]	; 0xfffffd00
     e24:	000000a7 	andeq	r0, r0, r7, lsr #1
     e28:	69080103 	stmdbvs	r8, {r0, r1, r8}
     e2c:	04000000 	streq	r0, [r0], #-0
     e30:	00000248 	andeq	r0, r0, r8, asr #4
     e34:	62193103 	andsvs	r3, r9, #-1073741824	; 0xc0000000
     e38:	03000000 	movweq	r0, #0
     e3c:	004b0702 	subeq	r0, fp, r2, lsl #14
     e40:	3f040000 	svccc	0x00040000
     e44:	03000002 	movweq	r0, #2
     e48:	00751934 	rsbseq	r1, r5, r4, lsr r9
     e4c:	04030000 	streq	r0, [r3], #-0
     e50:	00009507 	andeq	r9, r0, r7, lsl #10
     e54:	07080300 	streq	r0, [r8, -r0, lsl #6]
     e58:	00000090 	muleq	r0, r0, r0
     e5c:	00002505 	andeq	r2, r0, r5, lsl #10
     e60:	00009200 	andeq	r9, r0, r0, lsl #4
     e64:	00250600 	eoreq	r0, r5, r0, lsl #12
     e68:	07000000 	streq	r0, [r0, -r0]
     e6c:	000000fb 	strdeq	r0, [r0], -fp
     e70:	9e0e1c04 	cdpls	12, 0, cr1, cr14, cr4, {0}
     e74:	08000000 	stmdaeq	r0, {}	; <UNPREDICTABLE>
     e78:	00008304 	andeq	r8, r0, r4, lsl #6
     e7c:	00250500 	eoreq	r0, r5, r0, lsl #10
     e80:	00b30000 	adcseq	r0, r3, r0
     e84:	b3060000 	movwlt	r0, #24576	; 0x6000
     e88:	00000000 	andeq	r0, r0, r0
     e8c:	00c00408 	sbceq	r0, r0, r8, lsl #8
     e90:	01030000 	mrseq	r0, (UNDEF: 3)
     e94:	00007208 	andeq	r7, r0, r8, lsl #4
     e98:	00b90900 	adcseq	r0, r9, r0, lsl #18
     e9c:	85070000 	strhi	r0, [r7, #-0]
     ea0:	04000005 	streq	r0, [r0], #-5
     ea4:	00d10e21 	sbcseq	r0, r1, r1, lsr #28
     ea8:	04080000 	streq	r0, [r8], #-0
     eac:	000000a4 	andeq	r0, r0, r4, lsr #1
     eb0:	04020c0a 	streq	r0, [r2], #-3082	; 0xfffff3f6
     eb4:	00010809 	andeq	r0, r1, r9, lsl #16
     eb8:	00250b00 	eoreq	r0, r5, r0, lsl #22
     ebc:	06020000 	streq	r0, [r2], -r0
     ec0:	0000b311 	andeq	fp, r0, r1, lsl r3
     ec4:	7e0b0000 	cdpvc	0, 0, cr0, cr11, cr0, {0}
     ec8:	02000000 	andeq	r0, r0, #0, 0
     ecc:	00b31107 	adcseq	r1, r3, r7, lsl #2
     ed0:	0b040000 	bleq	100ed8 <__bss_end__+0xf6070>
     ed4:	00000008 	andeq	r0, r0, r8
     ed8:	2c0e0802 	stccs	8, cr0, [lr], {2}
     edc:	08000000 	stmdaeq	r0, {}	; <UNPREDICTABLE>
     ee0:	00f10400 	rscseq	r0, r1, r0, lsl #8
     ee4:	09020000 	stmdbeq	r2, {}	; <UNPREDICTABLE>
     ee8:	0000d703 	andeq	sp, r0, r3, lsl #14
     eec:	021d0c00 	andseq	r0, sp, #0, 24
     ef0:	05240000 	streq	r0, [r4, #-0]!
     ef4:	017d100c 	cmneq	sp, ip
     ef8:	bf0b0000 	svclt	0x000b0000
     efc:	05000002 	streq	r0, [r0, #-2]
     f00:	017d140d 	cmneq	sp, sp, lsl #8
     f04:	0b000000 	bleq	f0c <__code_start__-0x70f4>
     f08:	00000281 	andeq	r0, r0, r1, lsl #5
     f0c:	690e0e05 	stmdbvs	lr, {r0, r2, r9, sl, fp}
     f10:	04000000 	streq	r0, [r0], #-0
     f14:	00022e0b 	andeq	r2, r2, fp, lsl #28
     f18:	0e0f0500 	cfsh32eq	mvfx0, mvfx15, #0
     f1c:	00000069 	andeq	r0, r0, r9, rrx
     f20:	02240b08 	eoreq	r0, r4, #8, 22	; 0x2000
     f24:	11050000 	mrsne	r0, (UNDEF: 5)
     f28:	0001080f 	andeq	r0, r1, pc, lsl #16
     f2c:	340b0c00 	strcc	r0, [fp], #-3072	; 0xfffff400
     f30:	05000002 	streq	r0, [r0, #-2]
     f34:	00690e14 	rsbeq	r0, r9, r4, lsl lr
     f38:	0b180000 	bleq	600f40 <__bss_end__+0x5f60d8>
     f3c:	000001de 	ldrdeq	r0, [r0], -lr
     f40:	690e1505 	stmdbvs	lr, {r0, r2, r8, sl, ip}
     f44:	1c000000 	stcne	0, cr0, [r0], {-0}
     f48:	0003660b 	andeq	r6, r3, fp, lsl #12
     f4c:	0e170500 	cfmul32eq	mvfx0, mvfx7, mvfx0
     f50:	00000056 	andeq	r0, r0, r6, asr r0
     f54:	04080020 	streq	r0, [r8], #-32	; 0xffffffe0
     f58:	00000114 	andeq	r0, r0, r4, lsl r1
     f5c:	0001d204 	andeq	sp, r1, r4, lsl #4
     f60:	03180500 	tsteq	r8, #0, 10
     f64:	00000114 	andeq	r0, r0, r4, lsl r1
     f68:	ed0e040d 	cfstrs	mvf0, [lr, #-52]	; 0xffffffcc
     f6c:	01000009 	tsteq	r0, r9
     f70:	018f0e10 	orreq	r0, pc, r0, lsl lr	; <UNPREDICTABLE>
     f74:	03050000 	movweq	r0, #20480	; 0x5000
     f78:	0000aa58 	andeq	sl, r0, r8, asr sl
     f7c:	000a4e0e 	andeq	r4, sl, lr, lsl #28
     f80:	0e110100 	mufeqs	f0, f1, f0
     f84:	0000018f 	andeq	r0, r0, pc, lsl #3
     f88:	aa5c0305 	bge	1701ba4 <__bss_end__+0x16f6d3c>
     f8c:	290f0000 	stmdbcs	pc, {}	; <UNPREDICTABLE>
     f90:	01000003 	tsteq	r0, r3
     f94:	60060115 	andvs	r0, r6, r5, lsl r1
     f98:	2c00008b 	stccs	0, cr0, [r0], {139}	; 0x8b
     f9c:	01000000 	mrseq	r0, (UNDEF: 0)
     fa0:	0002159c 	muleq	r2, ip, r5
     fa4:	00831000 	addeq	r1, r3, r0
     fa8:	02250000 	eoreq	r0, r5, #0, 0
     fac:	03050000 	movweq	r0, #20480	; 0x5000
     fb0:	0000a6ac 	andeq	sl, r0, ip, lsr #13
     fb4:	008b7811 	addeq	r7, fp, r1, lsl r8
     fb8:	000c1f00 	andeq	r1, ip, r0, lsl #30
     fbc:	00020b00 	andeq	r0, r2, r0, lsl #22
     fc0:	50011200 	andpl	r1, r1, r0, lsl #4
     fc4:	a63c0305 	ldrtge	r0, [ip], -r5, lsl #6
     fc8:	01120000 	tsteq	r2, r0
     fcc:	54030551 	strpl	r0, [r3], #-1361	; 0xfffffaaf
     fd0:	120000a3 	andne	r0, r0, #163, 0	; 0xa3
     fd4:	03055201 	movweq	r5, #20993	; 0x5201
     fd8:	0000a6ac 	andeq	sl, r0, ip, lsr #13
     fdc:	03530112 	cmpeq	r3, #-2147483644	; 0x80000004
     fe0:	0001170a 	andeq	r1, r1, sl, lsl #14
     fe4:	008b7c13 	addeq	r7, fp, r3, lsl ip
     fe8:	000c2b00 	andeq	r2, ip, r0, lsl #22
     fec:	c0140000 	andsgt	r0, r4, r0
     ff0:	25000000 	strcs	r0, [r0, #-0]
     ff4:	15000002 	strne	r0, [r0, #-2]
     ff8:	0000002c 	andeq	r0, r0, ip, lsr #32
     ffc:	1509000e 	strne	r0, [r9, #-14]
    1000:	16000002 	strne	r0, [r0], -r2
    1004:	00000378 	andeq	r0, r0, r8, ror r3
    1008:	0a010b01 	beq	43c14 <__bss_end__+0x38dac>
    100c:	0000002c 	andeq	r0, r0, ip, lsr #32
    1010:	00008b50 	andeq	r8, r0, r0, asr fp
    1014:	00000010 	andeq	r0, r0, r0, lsl r0
    1018:	026d9c01 	rsbeq	r9, sp, #256	; 0x100
    101c:	ae170000 	cdpge	0, 1, cr0, cr7, cr0, {0}
    1020:	01000002 	tsteq	r0, r2
    1024:	2c0e010e 	stfcss	f0, [lr], {14}
    1028:	e0000000 	and	r0, r0, r0
    102c:	de000005 	cdple	0, 0, cr0, cr0, cr5, {0}
    1030:	13000005 	movwne	r0, #5
    1034:	00008b58 	andeq	r8, r0, r8, asr fp
    1038:	00000711 	andeq	r0, r0, r1, lsl r7
    103c:	008b5c13 	addeq	r5, fp, r3, lsl ip
    1040:	00026d00 	andeq	r6, r2, r0, lsl #26
    1044:	2f180000 	svccs	0x00180000
    1048:	01000004 	tsteq	r0, r4
    104c:	002c11f3 	strdeq	r1, [ip], -r3	; <UNPREDICTABLE>
    1050:	892c0000 	stmdbhi	ip!, {}	; <UNPREDICTABLE>
    1054:	00dc0000 	sbcseq	r0, ip, r0
    1058:	9c010000 	stcls	0, cr0, [r1], {-0}
    105c:	000003d7 	ldrdeq	r0, [r0], -r7
    1060:	00034619 	andeq	r4, r3, r9, lsl r6
    1064:	0ef50100 	cdpeq	1, 15, cr0, cr5, cr0, {0}
    1068:	0000002c 	andeq	r0, r0, ip, lsr #32
    106c:	000005f7 	strdeq	r0, [r0], -r7
    1070:	000005f3 	strdeq	r0, [r0], -r3
    1074:	0003bb19 	andeq	fp, r3, r9, lsl fp
    1078:	1bf50100 	blne	ffd41480 <__bss_end__+0xffd36618>
    107c:	0000002c 	andeq	r0, r0, ip, lsr #32
    1080:	0000061a 	andeq	r0, r0, sl, lsl r6
    1084:	00000616 	andeq	r0, r0, r6, lsl r6
    1088:	00035519 	andeq	r5, r3, r9, lsl r5
    108c:	27f50100 	ldrbcs	r0, [r5, r0, lsl #2]!
    1090:	0000002c 	andeq	r0, r0, ip, lsr #32
    1094:	0000063f 	andeq	r0, r0, pc, lsr r6
    1098:	00000639 	andeq	r0, r0, r9, lsr r6
    109c:	00008310 	andeq	r8, r0, r0, lsl r3
    10a0:	0003e700 	andeq	lr, r3, r0, lsl #14
    10a4:	74030500 	strvc	r0, [r3], #-1280	; 0xfffffb00
    10a8:	1a0000a6 	bne	1348 <__code_start__-0x6cb8>
    10ac:	00000048 	andeq	r0, r0, r8, asr #32
    10b0:	0000037a 	andeq	r0, r0, sl, ror r3
    10b4:	0100681b 	tsteq	r0, fp, lsl r8
    10b8:	03ec11fa 	mvneq	r1, #-2147483586	; 0x8000003e
    10bc:	06710000 	ldrbteq	r0, [r1], -r0
    10c0:	06690000 	strbteq	r0, [r9], -r0
    10c4:	e91c0000 	ldmdb	ip, {}	; <UNPREDICTABLE>
    10c8:	7000000b 	andvc	r0, r0, fp
    10cc:	00000089 	andeq	r0, r0, r9, lsl #1
    10d0:	00008970 	andeq	r8, r0, r0, ror r9
    10d4:	00000018 	andeq	r0, r0, r8, lsl r0
    10d8:	0d010101 	stfeqs	f0, [r1, #-4]
    10dc:	0000032f 	andeq	r0, r0, pc, lsr #6
    10e0:	000c121d 	andeq	r1, ip, sp, lsl r2
    10e4:	0006a700 	andeq	sl, r6, r0, lsl #14
    10e8:	0006a500 	andeq	sl, r6, r0, lsl #10
    10ec:	0c061d00 	stceq	13, cr1, [r6], {-0}
    10f0:	06bf0000 	ldrteq	r0, [pc], r0
    10f4:	06bd0000 	ldrteq	r0, [sp], r0
    10f8:	fa1d0000 	blx	741100 <__bss_end__+0x736298>
    10fc:	d900000b 	stmdble	r0, {r0, r1, r3}
    1100:	d7000006 	strle	r0, [r0, -r6]
    1104:	00000006 	andeq	r0, r0, r6
    1108:	00894c13 	addeq	r4, r9, r3, lsl ip
    110c:	000c4600 	andeq	r4, ip, r0, lsl #12
    1110:	89981100 	ldmibhi	r8, {r8, ip}
    1114:	0c520000 	mraeq	r0, r2, acc0
    1118:	034c0000 	movteq	r0, #49152	; 0xc000
    111c:	01120000 	tsteq	r2, r0
    1120:	00760250 	rsbseq	r0, r6, r0, asr r2
    1124:	89a41100 	stmibhi	r4!, {r8, ip}
    1128:	0c1f0000 	ldceq	0, cr0, [pc], {-0}
    112c:	03690000 	cmneq	r9, #0, 0
    1130:	01120000 	tsteq	r2, r0
    1134:	30030550 	andcc	r0, r3, r0, asr r5
    1138:	120000a5 	andne	r0, r0, #165, 0	; 0xa5
    113c:	76025101 	strvc	r5, [r2], -r1, lsl #2
    1140:	ac1e0000 	ldcge	0, cr0, [lr], {-0}
    1144:	5e000089 	cdppl	0, 0, cr0, cr0, cr9, {4}
    1148:	1200000c 	andne	r0, r0, #12, 0
    114c:	74025001 	strvc	r5, [r2], #-1
    1150:	11000000 	mrsne	r0, (UNDEF: 0)
    1154:	0000893c 	andeq	r8, r0, ip, lsr r9
    1158:	00000c1f 	andeq	r0, r0, pc, lsl ip
    115c:	00000391 	muleq	r0, r1, r3
    1160:	05500112 	ldrbeq	r0, [r0, #-274]	; 0xfffffeee
    1164:	00a3ec03 	adceq	lr, r3, r3, lsl #24
    1168:	44110000 	ldrmi	r0, [r1], #-0
    116c:	1f000089 	svcne	0x00000089
    1170:	a800000c 	stmdage	r0, {r2, r3}
    1174:	12000003 	andne	r0, r0, #3, 0
    1178:	03055001 	movweq	r5, #20481	; 0x5001
    117c:	0000a520 	andeq	sl, r0, r0, lsr #10
    1180:	89481300 	stmdbhi	r8, {r8, r9, ip}^
    1184:	07110000 	ldreq	r0, [r1, -r0]
    1188:	e01e0000 	ands	r0, lr, r0
    118c:	1f000089 	svcne	0x00000089
    1190:	1200000c 	andne	r0, r0, #12, 0
    1194:	03055001 	movweq	r5, #20481	; 0x5001
    1198:	0000a540 	andeq	sl, r0, r0, asr #10
    119c:	02510112 	subseq	r0, r1, #-2147483644	; 0x80000004
    11a0:	01120075 	tsteq	r2, r5, ror r0
    11a4:	00780252 	rsbseq	r0, r8, r2, asr r2
    11a8:	02530112 	subseq	r0, r3, #-2147483644	; 0x80000004
    11ac:	00000077 	andeq	r0, r0, r7, ror r0
    11b0:	0000c014 	andeq	ip, r0, r4, lsl r0
    11b4:	0003e700 	andeq	lr, r3, r0, lsl #14
    11b8:	002c1500 	eoreq	r1, ip, r0, lsl #10
    11bc:	000a0000 	andeq	r0, sl, r0
    11c0:	0003d709 	andeq	sp, r3, r9, lsl #14
    11c4:	83040800 	movwhi	r0, #18432	; 0x4800
    11c8:	1f000001 	svcne	0x00000001
    11cc:	000003d8 	ldrdeq	r0, [r0], -r8
    11d0:	2c0ae301 	stccs	3, cr14, [sl], {1}
    11d4:	00000000 	andeq	r0, r0, r0
    11d8:	5000008b 	andpl	r0, r0, fp, lsl #1
    11dc:	01000000 	mrseq	r0, (UNDEF: 0)
    11e0:	0004989c 	muleq	r4, ip, r8
    11e4:	03881900 	orreq	r1, r8, #0, 18
    11e8:	e9010000 	stmdb	r1, {}	; <UNPREDICTABLE>
    11ec:	00002c0e 	andeq	r2, r0, lr, lsl #24
    11f0:	0006f700 	andeq	pc, r6, r0, lsl #14
    11f4:	0006f100 	andeq	pc, r6, r0, lsl #2
    11f8:	00831000 	addeq	r1, r3, r0
    11fc:	04a80000 	strteq	r0, [r8], #0
    1200:	03050000 	movweq	r0, #20480	; 0x5000
    1204:	0000a698 	muleq	r0, r8, r6
    1208:	008b0c11 	addeq	r0, fp, r1, lsl ip
    120c:	00054a00 	andeq	r4, r5, r0, lsl #20
    1210:	00044200 	andeq	r4, r4, r0, lsl #4
    1214:	50011200 	andpl	r1, r1, r0, lsl #4
    1218:	11003101 	tstne	r0, r1, lsl #2
    121c:	00008b20 	andeq	r8, r0, r0, lsr #22
    1220:	00000c1f 	andeq	r0, r0, pc, lsl ip
    1224:	0000045f 	andeq	r0, r0, pc, asr r4
    1228:	05500112 	ldrbeq	r0, [r0, #-274]	; 0xfffffeee
    122c:	00a61803 	adceq	r1, r6, r3, lsl #16
    1230:	51011200 	mrspl	r1, R9_usr
    1234:	00007402 	andeq	r7, r0, r2, lsl #8
    1238:	008b3c11 	addeq	r3, fp, r1, lsl ip
    123c:	000c1f00 	andeq	r1, ip, r0, lsl #30
    1240:	00048e00 	andeq	r8, r4, r0, lsl #28
    1244:	50011200 	andpl	r1, r1, r0, lsl #4
    1248:	a5f00305 	ldrbge	r0, [r0, #773]!	; 0x305
    124c:	01120000 	tsteq	r2, r0
    1250:	54030551 	strpl	r0, [r3], #-1361	; 0xfffffaaf
    1254:	120000a3 	andne	r0, r0, #163, 0	; 0xa3
    1258:	03055201 	movweq	r5, #20993	; 0x5201
    125c:	0000a698 	muleq	r0, r8, r6
    1260:	02530112 	subseq	r0, r3, #-2147483644	; 0x80000004
    1264:	1300eb08 	movwne	lr, #2824	; 0xb08
    1268:	00008b40 	andeq	r8, r0, r0, asr #22
    126c:	00000c2b 	andeq	r0, r0, fp, lsr #24
    1270:	00c01400 	sbceq	r1, r0, r0, lsl #8
    1274:	04a80000 	strteq	r0, [r8], #0
    1278:	2c150000 	ldccs	0, cr0, [r5], {-0}
    127c:	11000000 	mrsne	r0, (UNDEF: 0)
    1280:	04980900 	ldreq	r0, [r8], #2304	; 0x900
    1284:	a6200000 	strtge	r0, [r0], -r0
    1288:	01000003 	tsteq	r0, r3
    128c:	8ab806d5 	bhi	fee02de8 <__bss_end__+0xfedf7f80>
    1290:	00480000 	subeq	r0, r8, r0
    1294:	9c010000 	stcls	0, cr0, [r1], {-0}
    1298:	00000535 	andeq	r0, r0, r5, lsr r5
    129c:	00008310 	andeq	r8, r0, r0, lsl r3
    12a0:	00054500 	andeq	r4, r5, r0, lsl #10
    12a4:	88030500 	stmdahi	r3, {r8, sl}
    12a8:	110000a6 	smlatbne	r0, r6, r0, r0
    12ac:	00008ac4 	andeq	r8, r0, r4, asr #21
    12b0:	0000054a 	andeq	r0, r0, sl, asr #10
    12b4:	000004e5 	andeq	r0, r0, r5, ror #9
    12b8:	01500112 	cmpeq	r0, r2, lsl r1
    12bc:	d4110031 	ldrle	r0, [r1], #-49	; 0xffffffcf
    12c0:	1f00008a 	svcne	0x0000008a
    12c4:	fc00000c 	stc2	0, cr0, [r0], {12}
    12c8:	12000004 	andne	r0, r0, #4, 0
    12cc:	03055001 	movweq	r5, #20481	; 0x5001
    12d0:	0000a5d0 	ldrdeq	sl, [r0], -r0
    12d4:	8aec1100 	bhi	ffb056dc <__bss_end__+0xffafa874>
    12d8:	0c1f0000 	ldceq	0, cr0, [pc], {-0}
    12dc:	052b0000 	streq	r0, [fp, #-0]!
    12e0:	01120000 	tsteq	r2, r0
    12e4:	a4030550 	strge	r0, [r3], #-1360	; 0xfffffab0
    12e8:	120000a5 	andne	r0, r0, #165, 0	; 0xa5
    12ec:	03055101 	movweq	r5, #20737	; 0x5101
    12f0:	0000a354 	andeq	sl, r0, r4, asr r3
    12f4:	05520112 	ldrbeq	r0, [r2, #-274]	; 0xfffffeee
    12f8:	00a68803 	adceq	r8, r6, r3, lsl #16
    12fc:	53011200 	movwpl	r1, #4608	; 0x1200
    1300:	00dc0802 	sbcseq	r0, ip, r2, lsl #16
    1304:	008af013 	addeq	pc, sl, r3, lsl r0	; <UNPREDICTABLE>
    1308:	000c2b00 	andeq	r2, ip, r0, lsl #22
    130c:	c0140000 	andsgt	r0, r4, r0
    1310:	45000000 	strmi	r0, [r0, #-0]
    1314:	15000005 	strne	r0, [r0, #-5]
    1318:	0000002c 	andeq	r0, r0, ip, lsr #32
    131c:	3509000d 	strcc	r0, [r9, #-13]
    1320:	1f000005 	svcne	0x00000005
    1324:	0000000f 	andeq	r0, r0, pc
    1328:	2c0ace01 	stccs	14, cr12, [sl], {1}
    132c:	ac000000 	stcge	0, cr0, [r0], {-0}
    1330:	0c00008a 	stceq	0, cr0, [r0], {138}	; 0x8a
    1334:	01000000 	mrseq	r0, (UNDEF: 0)
    1338:	00058a9c 	muleq	r5, ip, sl
    133c:	043a2100 	ldrteq	r2, [sl], #-256	; 0xffffff00
    1340:	ce010000 	cdpgt	0, 0, cr0, cr1, cr0, {0}
    1344:	0000251c 	andeq	r2, r0, ip, lsl r5
    1348:	00072400 	andeq	r2, r7, r0, lsl #8
    134c:	00072000 	andeq	r2, r7, r0
    1350:	8ab41e00 	bhi	fed08b58 <__bss_end__+0xfecfdcf0>
    1354:	058a0000 	streq	r0, [sl]
    1358:	01120000 	tsteq	r2, r0
    135c:	01f30350 	mvnseq	r0, r0, asr r3
    1360:	18000050 	stmdane	r0, {r4, r6}
    1364:	00000415 	andeq	r0, r0, r5, lsl r4
    1368:	2c11a501 	cfldr32cs	mvfx10, [r1], {1}
    136c:	38000000 	stmdacc	r0, {}	; <UNPREDICTABLE>
    1370:	f4000088 	vst4.32	{d0-d3}, [r0], r8
    1374:	01000000 	mrseq	r0, (UNDEF: 0)
    1378:	0007119c 	muleq	r7, ip, r1
    137c:	043a2100 	ldrteq	r2, [sl], #-256	; 0xffffff00
    1380:	a5010000 	strge	r0, [r1, #-0]
    1384:	00002520 	andeq	r2, r0, r0, lsr #10
    1388:	00074900 	andeq	r4, r7, r0, lsl #18
    138c:	00074500 	andeq	r4, r7, r0, lsl #10
    1390:	03461900 	movteq	r1, #26880	; 0x6900
    1394:	a7010000 	strge	r0, [r1, -r0]
    1398:	00002c0e 	andeq	r2, r0, lr, lsl #24
    139c:	00076b00 	andeq	r6, r7, r0, lsl #22
    13a0:	00076700 	andeq	r6, r7, r0, lsl #14
    13a4:	03711900 	cmneq	r1, #0, 18
    13a8:	a7010000 	strge	r0, [r1, -r0]
    13ac:	00002c1b 	andeq	r2, r0, fp, lsl ip
    13b0:	00079000 	andeq	r9, r7, r0
    13b4:	00078a00 	andeq	r8, r7, r0, lsl #20
    13b8:	036b1900 	cmneq	fp, #0, 18
    13bc:	a7010000 	strge	r0, [r1, -r0]
    13c0:	00002c27 	andeq	r2, r0, r7, lsr #24
    13c4:	0007be00 	andeq	fp, r7, r0, lsl #28
    13c8:	0007ba00 	andeq	fp, r7, r0, lsl #20
    13cc:	00301a00 	eorseq	r1, r0, r0, lsl #20
    13d0:	066f0000 	strbteq	r0, [pc], -r0
    13d4:	681b0000 	ldmdavs	fp, {}	; <UNPREDICTABLE>
    13d8:	11ac0100 			; <UNDEFINED> instruction: 0x11ac0100
    13dc:	000003ec 	andeq	r0, r0, ip, ror #7
    13e0:	000007eb 	andeq	r0, r0, fp, ror #15
    13e4:	000007dd 	ldrdeq	r0, [r0], -sp
    13e8:	00885813 	addeq	r5, r8, r3, lsl r8
    13ec:	000c4600 	andeq	r4, ip, r0, lsl #12
    13f0:	88801100 	stmhi	r0, {r8, ip}
    13f4:	0c1f0000 	ldceq	0, cr0, [pc], {-0}
    13f8:	063b0000 	ldrteq	r0, [fp], -r0
    13fc:	01120000 	tsteq	r2, r0
    1400:	40030550 	andmi	r0, r3, r0, asr r5
    1404:	120000a4 	andne	r0, r0, #164, 0	; 0xa4
    1408:	75025101 	strvc	r5, [r2, #-257]	; 0xfffffeff
    140c:	52011200 	andpl	r1, r1, #0, 4
    1410:	00007402 	andeq	r7, r0, r2, lsl #8
    1414:	00888811 	addeq	r8, r8, r1, lsl r8
    1418:	000c5e00 	andeq	r5, ip, r0, lsl #28
    141c:	00064f00 	andeq	r4, r6, r0, lsl #30
    1420:	50011200 	andpl	r1, r1, r0, lsl #4
    1424:	00007402 	andeq	r7, r0, r2, lsl #8
    1428:	0088c01e 	addeq	ip, r8, lr, lsl r0
    142c:	000c1f00 	andeq	r1, ip, r0, lsl #30
    1430:	50011200 	andpl	r1, r1, r0, lsl #4
    1434:	a4540305 	ldrbge	r0, [r4], #-773	; 0xfffffcfb
    1438:	01120000 	tsteq	r2, r0
    143c:	00750251 	rsbseq	r0, r5, r1, asr r2
    1440:	02520112 	subseq	r0, r2, #-2147483644	; 0x80000004
    1444:	00000074 	andeq	r0, r0, r4, ror r0
    1448:	00884811 	addeq	r4, r8, r1, lsl r8
    144c:	000c1f00 	andeq	r1, ip, r0, lsl #30
    1450:	00068600 	andeq	r8, r6, r0, lsl #12
    1454:	50011200 	andpl	r1, r1, r0, lsl #4
    1458:	a3ec0305 	mvnge	r0, #335544320	; 0x14000000
    145c:	11000000 	mrsne	r0, (UNDEF: 0)
    1460:	00008850 	andeq	r8, r0, r0, asr r8
    1464:	00000c1f 	andeq	r0, r0, pc, lsl ip
    1468:	0000069d 	muleq	r0, sp, r6
    146c:	05500112 	ldrbeq	r0, [r0, #-274]	; 0xfffffeee
    1470:	00a42803 	adceq	r2, r4, r3, lsl #16
    1474:	54130000 	ldrpl	r0, [r3], #-0
    1478:	11000088 	smlabbne	r0, r8, r0, r0
    147c:	11000007 	tstne	r0, r7
    1480:	000088d0 	ldrdeq	r8, [r0], -r0
    1484:	00000c1f 	andeq	r0, r0, pc, lsl ip
    1488:	000006c3 	andeq	r0, r0, r3, asr #13
    148c:	05500112 	ldrbeq	r0, [r0, #-274]	; 0xfffffeee
    1490:	00a46c03 	adceq	r6, r4, r3, lsl #24
    1494:	51011200 	mrspl	r1, R9_usr
    1498:	00007502 	andeq	r7, r0, r2, lsl #10
    149c:	0088e011 	addeq	lr, r8, r1, lsl r0
    14a0:	000c1f00 	andeq	r1, ip, r0, lsl #30
    14a4:	0006da00 	andeq	sp, r6, r0, lsl #20
    14a8:	50011200 	andpl	r1, r1, r0, lsl #4
    14ac:	a48c0305 	strge	r0, [ip], #773	; 0x305
    14b0:	11000000 	mrsne	r0, (UNDEF: 0)
    14b4:	000088e8 	andeq	r8, r0, r8, ror #17
    14b8:	00000c1f 	andeq	r0, r0, pc, lsl ip
    14bc:	000006f1 	strdeq	r0, [r0], -r1
    14c0:	05500112 	ldrbeq	r0, [r0, #-274]	; 0xfffffeee
    14c4:	00a4e403 	adceq	lr, r4, r3, lsl #8
    14c8:	081e0000 	ldmdaeq	lr, {}	; <UNPREDICTABLE>
    14cc:	1f000089 	svcne	0x00000089
    14d0:	1200000c 	andne	r0, r0, #12, 0
    14d4:	03055001 	movweq	r5, #20481	; 0x5001
    14d8:	0000a4b4 			; <UNDEFINED> instruction: 0x0000a4b4
    14dc:	02510112 	subseq	r0, r1, #-2147483644	; 0x80000004
    14e0:	01120076 	tsteq	r2, r6, ror r0
    14e4:	00770252 	rsbseq	r0, r7, r2, asr r2
    14e8:	20220000 	eorcs	r0, r2, r0
    14ec:	01000003 	tsteq	r0, r3
    14f0:	87940d79 			; <UNDEFINED> instruction: 0x87940d79
    14f4:	00a40000 	adceq	r0, r4, r0
    14f8:	9c010000 	stcls	0, cr0, [r1], {-0}
    14fc:	0000081d 	andeq	r0, r0, sp, lsl r8
    1500:	0003830e 	andeq	r8, r3, lr, lsl #6
    1504:	0e850100 	rmfeqs	f0, f5, f0
    1508:	0000081d 	andeq	r0, r0, sp, lsl r8
    150c:	7fb89103 	svcvc	0x00b89103
    1510:	00031623 	andeq	r1, r3, r3, lsr #12
    1514:	0f960100 	svceq	0x00960100
    1518:	0000082d 	andeq	r0, r0, sp, lsr #16
    151c:	08000000 	stmdaeq	r0, {}	; <UNPREDICTABLE>
    1520:	00033807 	andeq	r3, r3, r7, lsl #16
    1524:	159b0100 	ldrne	r0, [fp, #256]	; 0x100
    1528:	00000069 	andeq	r0, r0, r9, rrx
    152c:	0003ea07 	andeq	lr, r3, r7, lsl #20
    1530:	249b0100 	ldrcs	r0, [fp], #256	; 0x100
    1534:	00000069 	andeq	r0, r0, r9, rrx
    1538:	00042007 	andeq	r2, r4, r7
    153c:	159e0100 	ldrne	r0, [lr, #256]	; 0x100
    1540:	00000069 	andeq	r0, r0, r9, rrx
    1544:	00039907 	andeq	r9, r3, r7, lsl #18
    1548:	259e0100 	ldrcs	r0, [lr, #256]	; 0x100
    154c:	00000069 	andeq	r0, r0, r9, rrx
    1550:	00879c24 	addeq	r9, r7, r4, lsr #24
    1554:	00002400 	andeq	r2, r0, r0, lsl #8
    1558:	0007a900 	andeq	sl, r7, r0, lsl #18
    155c:	00681b00 	rsbeq	r1, r8, r0, lsl #22
    1560:	ec117e01 	ldc	14, cr7, [r1], {1}
    1564:	44000003 	strmi	r0, [r0], #-3
    1568:	40000008 	andmi	r0, r0, r8
    156c:	13000008 	movwne	r0, #8
    1570:	000087a0 	andeq	r8, r0, r0, lsr #15
    1574:	00000c46 	andeq	r0, r0, r6, asr #24
    1578:	0087bc13 	addeq	fp, r7, r3, lsl ip
    157c:	000c5e00 	andeq	r5, ip, r0, lsl #28
    1580:	c8110000 	ldmdagt	r1, {}	; <UNPREDICTABLE>
    1584:	6a000087 	bvs	17a8 <__code_start__-0x6858>
    1588:	bd00000c 	stclt	0, cr0, [r0, #-48]	; 0xffffffd0
    158c:	12000007 	andne	r0, r0, #7, 0
    1590:	7d025001 	stcvc	0, cr5, [r2, #-4]
    1594:	e8110000 	ldmda	r1, {}	; <UNPREDICTABLE>
    1598:	33000087 	movwcc	r0, #135	; 0x87
    159c:	d7000008 	strle	r0, [r0, -r8]
    15a0:	12000007 	andne	r0, r0, #7, 0
    15a4:	7d025001 	stcvc	0, cr5, [r2, #-4]
    15a8:	51011200 	mrspl	r1, R9_usr
    15ac:	00689102 	rsbeq	r9, r8, r2, lsl #2
    15b0:	0087f811 	addeq	pc, r7, r1, lsl r8	; <UNPREDICTABLE>
    15b4:	000c1f00 	andeq	r1, ip, r0, lsl #30
    15b8:	0007f500 	andeq	pc, r7, r0, lsl #10
    15bc:	50011200 	andpl	r1, r1, r0, lsl #4
    15c0:	a3d00305 	bicsge	r0, r0, #335544320	; 0x14000000
    15c4:	01120000 	tsteq	r2, r0
    15c8:	47400352 	smlsldmi	r0, r0, r2, r3	; <UNPREDICTABLE>
    15cc:	04110024 	ldreq	r0, [r1], #-36	; 0xffffffdc
    15d0:	33000088 	movwcc	r0, #136	; 0x88
    15d4:	0a000008 	beq	15fc <__code_start__-0x6a04>
    15d8:	12000008 	andne	r0, r0, #8, 0
    15dc:	40035101 	andmi	r5, r3, r1, lsl #2
    15e0:	13002447 	movwne	r2, #1095	; 0x447
    15e4:	00008810 	andeq	r8, r0, r0, lsl r8
    15e8:	00000833 	andeq	r0, r0, r3, lsr r8
    15ec:	00881c13 	addeq	r1, r8, r3, lsl ip
    15f0:	00083300 	andeq	r3, r8, r0, lsl #6
    15f4:	69140000 	ldmdbvs	r4, {}	; <UNPREDICTABLE>
    15f8:	2d000000 	stccs	0, cr0, [r0, #-0]
    15fc:	15000008 	strne	r0, [r0, #-8]
    1600:	0000002c 	andeq	r0, r0, ip, lsr #32
    1604:	0408000f 	streq	r0, [r8], #-15
    1608:	00000069 	andeq	r0, r0, r9, rrx
    160c:	00036622 	andeq	r6, r3, r2, lsr #12
    1610:	0d500100 	ldfeqe	f0, [r0, #-0]
    1614:	0000862c 	andeq	r8, r0, ip, lsr #12
    1618:	00000168 	andeq	r0, r0, r8, ror #2
    161c:	0a2c9c01 	beq	b28628 <__bss_end__+0xb1d7c0>
    1620:	70250000 	eorvc	r0, r5, r0
    1624:	1c500100 	ldfnee	f0, [r0], {-0}
    1628:	0000082d 	andeq	r0, r0, sp, lsr #16
    162c:	00000870 	andeq	r0, r0, r0, ror r8
    1630:	00000862 	andeq	r0, r0, r2, ror #16
    1634:	01006525 	tsteq	r0, r5, lsr #10
    1638:	082d2950 	stmdaeq	sp!, {r4, r6, r8, fp, sp}
    163c:	08d90000 	ldmeq	r9, {}^	; <UNPREDICTABLE>
    1640:	08cb0000 	stmiaeq	fp, {}^	; <UNPREDICTABLE>
    1644:	83100000 	tsthi	r0, #0, 0
    1648:	3c000000 	stccc	0, cr0, [r0], {-0}
    164c:	0500000a 	streq	r0, [r0, #-10]
    1650:	00a66c03 	adceq	r6, r6, r3, lsl #24
    1654:	86b42400 	ldrthi	r2, [r4], r0, lsl #8
    1658:	00b40000 	adcseq	r0, r4, r0
    165c:	09650000 	stmdbeq	r5!, {}^	; <UNPREDICTABLE>
    1660:	691b0000 	ldmdbvs	fp, {}	; <UNPREDICTABLE>
    1664:	14580100 	ldrbne	r0, [r8], #-256	; 0xffffff00
    1668:	0000082d 	andeq	r0, r0, sp, lsr #16
    166c:	00000936 	andeq	r0, r0, r6, lsr r9
    1670:	00000934 	andeq	r0, r0, r4, lsr r9
    1674:	00000026 	andeq	r0, r0, r6, lsr #32
    1678:	00621b00 	rsbeq	r1, r2, r0, lsl #22
    167c:	ec105a01 			; <UNDEFINED> instruction: 0xec105a01
    1680:	4f000003 	svcmi	0x00000003
    1684:	49000009 	stmdbmi	r0, {r0, r3}
    1688:	1a000009 	bne	16b4 <__code_start__-0x694c>
    168c:	00000018 	andeq	r0, r0, r8, lsl r0
    1690:	0000095a 	andeq	r0, r0, sl, asr r9
    1694:	7078651b 	rsbsvc	r6, r8, fp, lsl r5
    1698:	165d0100 	ldrbne	r0, [sp], -r0, lsl #2
    169c:	00000069 	andeq	r0, r0, r9, rrx
    16a0:	0000097c 	andeq	r0, r0, ip, ror r9
    16a4:	00000978 	andeq	r0, r0, r8, ror r9
    16a8:	00036219 	andeq	r6, r3, r9, lsl r2
    16ac:	165e0100 	ldrbne	r0, [lr], -r0, lsl #2
    16b0:	00000056 	andeq	r0, r0, r6, asr r0
    16b4:	0000099e 	muleq	r0, lr, r9
    16b8:	0000099a 	muleq	r0, sl, r9
    16bc:	0086c811 	addeq	ip, r6, r1, lsl r8
    16c0:	000c1f00 	andeq	r1, ip, r0, lsl #30
    16c4:	0008fa00 	andeq	pc, r8, r0, lsl #20
    16c8:	50011200 	andpl	r1, r1, r0, lsl #4
    16cc:	a3b00305 	movsge	r0, #335544320	; 0x14000000
    16d0:	11000000 	mrsne	r0, (UNDEF: 0)
    16d4:	000086fc 	strdeq	r8, [r0], -ip
    16d8:	00000c76 	andeq	r0, r0, r6, ror ip
    16dc:	0000090e 	andeq	r0, r0, lr, lsl #18
    16e0:	02500112 	subseq	r0, r0, #-2147483644	; 0x80000004
    16e4:	11000075 	tstne	r0, r5, ror r0
    16e8:	00008714 	andeq	r8, r0, r4, lsl r7
    16ec:	00000c1f 	andeq	r0, r0, pc, lsl ip
    16f0:	00000932 	andeq	r0, r0, r2, lsr r9
    16f4:	05500112 	ldrbeq	r0, [r0, #-274]	; 0xfffffeee
    16f8:	00a38403 	adceq	r8, r3, r3, lsl #8
    16fc:	52011200 	andpl	r1, r1, #0, 4
    1700:	12007402 	andne	r7, r0, #33554432	; 0x2000000
    1704:	02007d02 	andeq	r7, r0, #128	; 0x80
    1708:	11000077 	tstne	r0, r7, ror r0
    170c:	00008758 	andeq	r8, r0, r8, asr r7
    1710:	00000833 	andeq	r0, r0, r3, lsr r8
    1714:	00000946 	andeq	r0, r0, r6, asr #18
    1718:	02500112 	subseq	r0, r0, #-2147483644	; 0x80000004
    171c:	1e000475 	mcrne	4, 0, r0, cr0, cr5, {3}
    1720:	00008764 	andeq	r8, r0, r4, ror #14
    1724:	00000c1f 	andeq	r0, r0, pc, lsl ip
    1728:	05500112 	ldrbeq	r0, [r0, #-274]	; 0xfffffeee
    172c:	00a3c003 	adceq	ip, r3, r3
    1730:	13000000 	movwne	r0, #0
    1734:	000086e4 	andeq	r8, r0, r4, ror #13
    1738:	00000a41 	andeq	r0, r0, r1, asr #20
    173c:	70110000 	andsvc	r0, r1, r0
    1740:	1f000086 	svcne	0x00000086
    1744:	9e00000c 	cdpls	0, 0, cr0, cr0, cr12, {0}
    1748:	12000009 	andne	r0, r0, #9, 0
    174c:	03055001 	movweq	r5, #20481	; 0x5001
    1750:	0000a268 	andeq	sl, r0, r8, ror #4
    1754:	05510112 	ldrbeq	r0, [r1, #-274]	; 0xfffffeee
    1758:	00a35403 	adceq	r5, r3, r3, lsl #8
    175c:	52011200 	andpl	r1, r1, #0, 4
    1760:	a66c0305 	strbtge	r0, [ip], -r5, lsl #6
    1764:	01120000 	tsteq	r2, r0
    1768:	56080253 			; <UNDEFINED> instruction: 0x56080253
    176c:	007d0212 	rsbseq	r0, sp, r2, lsl r2
    1770:	a3740305 	cmnge	r4, #335544320	; 0x14000000
    1774:	13000000 	movwne	r0, #0
    1778:	00008674 	andeq	r8, r0, r4, ror r6
    177c:	00000c2b 	andeq	r0, r0, fp, lsr #24
    1780:	00869011 	addeq	r9, r6, r1, lsl r0
    1784:	000c1f00 	andeq	r1, ip, r0, lsl #30
    1788:	0009e000 	andeq	lr, r9, r0
    178c:	50011200 	andpl	r1, r1, r0, lsl #4
    1790:	a2680305 	rsbge	r0, r8, #335544320	; 0x14000000
    1794:	01120000 	tsteq	r2, r0
    1798:	54030551 	strpl	r0, [r3], #-1361	; 0xfffffaaf
    179c:	120000a3 	andne	r0, r0, #163, 0	; 0xa3
    17a0:	03055201 	movweq	r5, #20993	; 0x5201
    17a4:	0000a66c 	andeq	sl, r0, ip, ror #12
    17a8:	02530112 	subseq	r0, r3, #-2147483644	; 0x80000004
    17ac:	02125208 	andseq	r5, r2, #8, 4	; 0x80000000
    17b0:	0305007d 	movweq	r0, #20605	; 0x507d
    17b4:	0000a35c 	andeq	sl, r0, ip, asr r3
    17b8:	86941300 	ldrhi	r1, [r4], r0, lsl #6
    17bc:	0c2b0000 	stceq	0, cr0, [fp], #-0
    17c0:	b0110000 	andslt	r0, r1, r0
    17c4:	1f000086 	svcne	0x00000086
    17c8:	2200000c 	andcs	r0, r0, #12, 0
    17cc:	1200000a 	andne	r0, r0, #10, 0
    17d0:	03055001 	movweq	r5, #20481	; 0x5001
    17d4:	0000a268 	andeq	sl, r0, r8, ror #4
    17d8:	05510112 	ldrbeq	r0, [r1, #-274]	; 0xfffffeee
    17dc:	00a35403 	adceq	r5, r3, r3, lsl #8
    17e0:	52011200 	andpl	r1, r1, #0, 4
    17e4:	a66c0305 	strbtge	r0, [ip], -r5, lsl #6
    17e8:	01120000 	tsteq	r2, r0
    17ec:	55080253 	strpl	r0, [r8, #-595]	; 0xfffffdad
    17f0:	007d0212 	rsbseq	r0, sp, r2, lsl r2
    17f4:	a3640305 	cmnge	r4, #335544320	; 0x14000000
    17f8:	13000000 	movwne	r0, #0
    17fc:	000086b4 			; <UNDEFINED> instruction: 0x000086b4
    1800:	00000c2b 	andeq	r0, r0, fp, lsr #24
    1804:	00c01400 	sbceq	r1, r0, r0, lsl #8
    1808:	0a3c0000 	beq	f01810 <__bss_end__+0xef69a8>
    180c:	2c150000 	ldccs	0, cr0, [r5], {-0}
    1810:	04000000 	streq	r0, [r0], #-0
    1814:	0a2c0900 	beq	b03c1c <__bss_end__+0xaf8db4>
    1818:	b4180000 	ldrlt	r0, [r8], #-0
    181c:	01000003 	tsteq	r0, r3
    1820:	03ec0f3c 	mvneq	r0, #60, 30	; 0xf0
    1824:	86040000 	strhi	r0, [r4], -r0
    1828:	00280000 	eoreq	r0, r8, r0
    182c:	9c010000 	stcls	0, cr0, [r1], {-0}
    1830:	00000aa6 	andeq	r0, r0, r6, lsr #21
    1834:	000a0421 	andeq	r0, sl, r1, lsr #8
    1838:	1f3c0100 	svcne	0x003c0100
    183c:	00000069 	andeq	r0, r0, r9, rrx
    1840:	000009c0 	andeq	r0, r0, r0, asr #19
    1844:	000009bc 			; <UNDEFINED> instruction: 0x000009bc
    1848:	0100701b 	tsteq	r0, fp, lsl r0
    184c:	018f0b3e 	orreq	r0, pc, lr, lsr fp	; <UNPREDICTABLE>
    1850:	09e20000 	stmibeq	r2!, {}^	; <UNPREDICTABLE>
    1854:	09de0000 	ldmibeq	lr, {}^	; <UNPREDICTABLE>
    1858:	10110000 	andsne	r0, r1, r0
    185c:	a6000086 	strge	r0, [r0], -r6, lsl #1
    1860:	9500000a 	strls	r0, [r0, #-10]
    1864:	1200000a 	andne	r0, r0, #10, 0
    1868:	74025001 	strvc	r5, [r2], #-1
    186c:	201e0000 	andscs	r0, lr, r0
    1870:	82000086 	andhi	r0, r0, #134, 0	; 0x86
    1874:	1200000c 	andne	r0, r0, #12, 0
    1878:	74025001 	strvc	r5, [r2], #-1
    187c:	18000000 	stmdane	r0, {}	; <UNPREDICTABLE>
    1880:	000003c2 	andeq	r0, r0, r2, asr #7
    1884:	250c2b01 	strcs	r2, [ip, #-2817]	; 0xfffff4ff
    1888:	c8000000 	stmdagt	r0, {}	; <UNPREDICTABLE>
    188c:	3c000085 	stccc	0, cr0, [r0], {133}	; 0x85
    1890:	01000000 	mrseq	r0, (UNDEF: 0)
    1894:	000ad39c 	muleq	sl, ip, r3
    1898:	00702500 	rsbseq	r2, r0, r0, lsl #10
    189c:	8f1a2b01 	svchi	0x001a2b01
    18a0:	0c000001 	stceq	0, cr0, [r0], {1}
    18a4:	0000000a 	andeq	r0, r0, sl
    18a8:	0000000a 	andeq	r0, r0, sl
    18ac:	0002fc1f 	andeq	pc, r2, pc, lsl ip	; <UNPREDICTABLE>
    18b0:	07130100 	ldreq	r0, [r3, -r0, lsl #2]
    18b4:	0000018f 	andeq	r0, r0, pc, lsl #3
    18b8:	00008a08 	andeq	r8, r0, r8, lsl #20
    18bc:	000000a4 	andeq	r0, r0, r4, lsr #1
    18c0:	0be99c01 	bleq	ffa688cc <__bss_end__+0xffa5da64>
    18c4:	8f210000 	svchi	0x00210000
    18c8:	01000003 	tsteq	r0, r3
    18cc:	00411113 	subeq	r1, r1, r3, lsl r1
    18d0:	0a6b0000 	beq	1ac18d8 <__bss_end__+0x1ab6a70>
    18d4:	0a5f0000 	beq	17c18dc <__bss_end__+0x17b6a74>
    18d8:	4e0e0000 	cdpmi	0, 0, cr0, cr14, cr0, {0}
    18dc:	01000003 	tsteq	r0, r3
    18e0:	00251015 	eoreq	r1, r5, r5, lsl r0
    18e4:	03050000 	movweq	r0, #20480	; 0x5000
    18e8:	0000aa60 	andeq	sl, r0, r0, ror #20
    18ec:	00008310 	andeq	r8, r0, r0, lsl r3
    18f0:	000a3c00 	andeq	r3, sl, r0, lsl #24
    18f4:	80030500 	andhi	r0, r3, r0, lsl #10
    18f8:	240000a6 	strcs	r0, [r0], #-166	; 0xffffff5a
    18fc:	00008a28 	andeq	r8, r0, r8, lsr #20
    1900:	00000024 	andeq	r0, r0, r4, lsr #32
    1904:	00000b5c 	andeq	r0, r0, ip, asr fp
    1908:	0003ca19 	andeq	ip, r3, r9, lsl sl
    190c:	121c0100 	andsne	r0, ip, #0
    1910:	0000002c 	andeq	r0, r0, ip, lsr #32
    1914:	00000ab7 			; <UNDEFINED> instruction: 0x00000ab7
    1918:	00000ab5 			; <UNDEFINED> instruction: 0x00000ab5
    191c:	008a441e 	addeq	r4, sl, lr, lsl r4
    1920:	000c8e00 	andeq	r8, ip, r0, lsl #28
    1924:	50011200 	andpl	r1, r1, r0, lsl #4
    1928:	24404003 	strbcs	r4, [r0], #-3
    192c:	03510112 	cmpeq	r1, #-2147483644	; 0x80000004
    1930:	00244040 	eoreq	r4, r4, r0, asr #32
    1934:	8a541100 	bhi	1505d3c <__bss_end__+0x14faed4>
    1938:	0c9a0000 	ldceq	0, cr0, [sl], {0}
    193c:	0b700000 	bleq	1c01944 <__bss_end__+0x1bf6adc>
    1940:	01120000 	tsteq	r2, r0
    1944:	00740250 	rsbseq	r0, r4, r0, asr r2
    1948:	8a781100 	bhi	1e05d50 <__bss_end__+0x1dfaee8>
    194c:	0c1f0000 	ldceq	0, cr0, [pc], {-0}
    1950:	0ba80000 	bleq	fea01958 <__bss_end__+0xfe9f6af0>
    1954:	01120000 	tsteq	r2, r0
    1958:	68030550 	stmdavs	r3, {r4, r6, r8, sl}
    195c:	120000a2 	andne	r0, r0, #162, 0	; 0xa2
    1960:	03055101 	movweq	r5, #20737	; 0x5101
    1964:	0000a354 	andeq	sl, r0, r4, asr r3
    1968:	05520112 	ldrbeq	r0, [r2, #-274]	; 0xfffffeee
    196c:	00a68003 	adceq	r8, r6, r3
    1970:	53011200 	movwpl	r1, #4608	; 0x1200
    1974:	02124701 	andseq	r4, r2, #262144	; 0x40000
    1978:	0305007d 	movweq	r0, #20605	; 0x507d
    197c:	0000a574 	andeq	sl, r0, r4, ror r5
    1980:	8a7c1300 	bhi	1f06588 <__bss_end__+0x1efb720>
    1984:	0c2b0000 	stceq	0, cr0, [fp], #-0
    1988:	90110000 	andsls	r0, r1, r0
    198c:	1f00008a 	svcne	0x0000008a
    1990:	df00000c 	svcle	0x0000000c
    1994:	1200000b 	andne	r0, r0, #11, 0
    1998:	03055001 	movweq	r5, #20481	; 0x5001
    199c:	0000a584 	andeq	sl, r0, r4, lsl #11
    19a0:	05510112 	ldrbeq	r0, [r1, #-274]	; 0xfffffeee
    19a4:	00a35403 	adceq	r5, r3, r3, lsl #8
    19a8:	52011200 	andpl	r1, r1, #0, 4
    19ac:	a6800305 	strge	r0, [r0], r5, lsl #6
    19b0:	01120000 	tsteq	r2, r0
    19b4:	00490153 	subeq	r0, r9, r3, asr r1
    19b8:	008a9413 	addeq	r9, sl, r3, lsl r4
    19bc:	000c2b00 	andeq	r2, ip, r0, lsl #22
    19c0:	5e270000 	cdppl	0, 2, cr0, cr7, cr0, {0}
    19c4:	02000000 	andeq	r0, r0, #0, 0
    19c8:	01080b0c 	tsteq	r8, ip, lsl #22
    19cc:	1f030000 	svcne	0x00030000
    19d0:	2800000c 	stmdacs	r0, {r2, r3}
    19d4:	00000025 	andeq	r0, r0, r5, lsr #32
    19d8:	b3220c02 			; <UNDEFINED> instruction: 0xb3220c02
    19dc:	28000000 	stmdacs	r0, {}	; <UNPREDICTABLE>
    19e0:	0000007e 	andeq	r0, r0, lr, ror r0
    19e4:	b3340c02 	teqlt	r4, #512	; 0x200
    19e8:	28000000 	stmdacs	r0, {}	; <UNPREDICTABLE>
    19ec:	00000008 	andeq	r0, r0, r8
    19f0:	2c430c02 	mcrrcs	12, 0, r0, r3, cr2
    19f4:	00000000 	andeq	r0, r0, r0
    19f8:	00054729 	andeq	r4, r5, r9, lsr #14
    19fc:	00054700 	andeq	r4, r5, r0, lsl #14
    1a00:	06280400 	strteq	r0, [r8], -r0, lsl #8
    1a04:	00003e29 	andeq	r3, r0, r9, lsr #28
    1a08:	00003e00 	andeq	r3, r0, r0, lsl #28
    1a0c:	066e0400 	strbteq	r0, [lr], -r0, lsl #8
    1a10:	0b9e0d2a 	bleq	fe784ec0 <__bss_end__+0xfe77a058>
    1a14:	65657773 	strbvs	r7, [r5, #-1907]!	; 0xfffff88d
    1a18:	72665f70 	rsbvc	r5, r6, #112, 30	; 0x1c0
    1a1c:	29006565 	stmdbcs	r0, {r0, r2, r5, r6, r8, sl, sp, lr}
    1a20:	000001f2 	strdeq	r0, [r0], -r2
    1a24:	000001f2 	strdeq	r0, [r0], -r2
    1a28:	29081b05 	stmdbcs	r8, {r0, r2, r8, r9, fp, ip}
    1a2c:	000001ff 	strdeq	r0, [r0], -pc	; <UNPREDICTABLE>
    1a30:	000001ff 	strdeq	r0, [r0], -pc	; <UNPREDICTABLE>
    1a34:	29073305 	stmdbcs	r7, {r0, r2, r8, r9, ip, sp}
    1a38:	00000263 	andeq	r0, r0, r3, ror #4
    1a3c:	00000263 	andeq	r0, r0, r3, ror #4
    1a40:	29081e05 	stmdbcs	r8, {r0, r2, r9, sl, fp, ip}
    1a44:	0000037e 	andeq	r0, r0, lr, ror r3
    1a48:	0000037e 	andeq	r0, r0, lr, ror r3
    1a4c:	29067601 	stmdbcs	r6, {r0, r9, sl, ip, sp, lr}
    1a50:	0000028e 	andeq	r0, r0, lr, lsl #5
    1a54:	0000028e 	andeq	r0, r0, lr, lsl #5
    1a58:	29072505 	stmdbcs	r7, {r0, r2, r8, sl, sp}
    1a5c:	00000251 	andeq	r0, r0, r1, asr r2
    1a60:	00000251 	andeq	r0, r0, r1, asr r2
    1a64:	29082e05 	stmdbcs	r8, {r0, r2, r9, sl, fp, sp}
    1a68:	000003fe 	strdeq	r0, [r0], -lr
    1a6c:	000003fe 	strdeq	r0, [r0], -lr
    1a70:	29068204 	stmdbcs	r6, {r2, r9, pc}
    1a74:	000003f6 	strdeq	r0, [r0], -r6
    1a78:	000003f6 	strdeq	r0, [r0], -r6
    1a7c:	00077b04 	andeq	r7, r7, r4, lsl #22
    1a80:	00000140 	andeq	r0, r0, r0, asr #2
    1a84:	085a0004 	ldmdaeq	sl, {r2}^
    1a88:	01040000 	mrseq	r0, (UNDEF: 4)
    1a8c:	00000465 	andeq	r0, r0, r5, ror #8
    1a90:	0004550c 	andeq	r5, r4, ip, lsl #10
    1a94:	00051d00 	andeq	r1, r5, r0, lsl #26
    1a98:	008b9400 	addeq	r9, fp, r0, lsl #8
    1a9c:	00007800 	andeq	r7, r0, r0, lsl #16
    1aa0:	000b5600 	andeq	r5, fp, r0, lsl #12
    1aa4:	05040200 	streq	r0, [r4, #-512]	; 0xfffffe00
    1aa8:	00746e69 	rsbseq	r6, r4, r9, ror #28
    1aac:	00044e03 	andeq	r4, r4, r3, lsl #28
    1ab0:	17d10300 	ldrbne	r0, [r1, r0, lsl #6]
    1ab4:	00000038 	andeq	r0, r0, r8, lsr r0
    1ab8:	9a070404 	bls	1c2ad0 <__bss_end__+0x1b7c68>
    1abc:	04000000 	streq	r0, [r0], #-0
    1ac0:	006b0601 	rsbeq	r0, fp, r1, lsl #12
    1ac4:	02040000 	andeq	r0, r4, #0, 0
    1ac8:	0000e705 	andeq	lr, r0, r5, lsl #14
    1acc:	05040400 	streq	r0, [r4, #-1024]	; 0xfffffc00
    1ad0:	000000ac 	andeq	r0, r0, ip, lsr #1
    1ad4:	a7050804 	strge	r0, [r5, -r4, lsl #16]
    1ad8:	04000000 	streq	r0, [r0], #-0
    1adc:	00690801 	rsbeq	r0, r9, r1, lsl #16
    1ae0:	02040000 	andeq	r0, r4, #0, 0
    1ae4:	00004b07 	andeq	r4, r0, r7, lsl #22
    1ae8:	07040400 	streq	r0, [r4, -r0, lsl #8]
    1aec:	00000095 	muleq	r0, r5, r0
    1af0:	90070804 	andls	r0, r7, r4, lsl #16
    1af4:	05000000 	streq	r0, [r0, #-0]
    1af8:	00000025 	andeq	r0, r0, r5, lsr #32
    1afc:	00000086 	andeq	r0, r0, r6, lsl #1
    1b00:	00002506 	andeq	r2, r0, r6, lsl #10
    1b04:	fb070000 	blx	1c1b0e <__bss_end__+0x1b6ca6>
    1b08:	02000000 	andeq	r0, r0, #0, 0
    1b0c:	00920e1c 	addseq	r0, r2, ip, lsl lr
    1b10:	04080000 	streq	r0, [r8], #-0
    1b14:	00000077 	andeq	r0, r0, r7, ror r0
    1b18:	00002505 	andeq	r2, r0, r5, lsl #10
    1b1c:	0000a700 	andeq	sl, r0, r0, lsl #14
    1b20:	00a70600 	adceq	r0, r7, r0, lsl #12
    1b24:	08000000 	stmdaeq	r0, {}	; <UNPREDICTABLE>
    1b28:	0000b404 	andeq	fp, r0, r4, lsl #8
    1b2c:	08010400 	stmdaeq	r1, {sl}
    1b30:	00000072 	andeq	r0, r0, r2, ror r0
    1b34:	0000ad09 	andeq	sl, r0, r9, lsl #26
    1b38:	05850700 	streq	r0, [r5, #1792]	; 0x700
    1b3c:	21020000 	mrscs	r0, (UNDEF: 2)
    1b40:	0000c50e 	andeq	ip, r0, lr, lsl #10
    1b44:	98040800 	stmdals	r4, {fp}
    1b48:	0a000000 	beq	1b50 <__code_start__-0x64b0>
    1b4c:	00000077 	andeq	r0, r0, r7, ror r0
    1b50:	3b070401 	blcc	1c2b5c <__bss_end__+0x1b7cf4>
    1b54:	94000001 	strls	r0, [r0], #-1
    1b58:	7800008b 	stmdavc	r0, {r0, r1, r3, r7}
    1b5c:	01000000 	mrseq	r0, (UNDEF: 0)
    1b60:	00013b9c 	muleq	r1, ip, fp
    1b64:	705f0b00 	subsvc	r0, pc, r0, lsl #22
    1b68:	14040100 	strne	r0, [r4], #-256	; 0xffffff00
    1b6c:	0000013b 	andeq	r0, r0, fp, lsr r1
    1b70:	630c5001 	movwvs	r5, #49153	; 0xc001
    1b74:	1c040100 	stfnes	f0, [r4], {-0}
    1b78:	00000025 	andeq	r0, r0, r5, lsr #32
    1b7c:	00000ad1 	ldrdeq	r0, [r0], -r1
    1b80:	00000acd 	andeq	r0, r0, sp, asr #21
    1b84:	01006e0c 	tsteq	r0, ip, lsl #28
    1b88:	002c2604 	eoreq	r2, ip, r4, lsl #12
    1b8c:	0af60000 	beq	ffd81b94 <__bss_end__+0xffd76d2c>
    1b90:	0af20000 	beq	ffc81b98 <__bss_end__+0xffc76d30>
    1b94:	700d0000 	andvc	r0, sp, r0
    1b98:	0b050100 	bleq	141fa0 <__bss_end__+0x137138>
    1b9c:	0000013d 	andeq	r0, r0, sp, lsr r1
    1ba0:	00000b25 	andeq	r0, r0, r5, lsr #22
    1ba4:	00000b17 	andeq	r0, r0, r7, lsl fp
    1ba8:	0100650d 	tsteq	r0, sp, lsl #10
    1bac:	013d1405 	teqeq	sp, r5, lsl #8
    1bb0:	0b820000 	bleq	fe081bb8 <__bss_end__+0xfe076d50>
    1bb4:	0b800000 	bleq	fe001bbc <__bss_end__+0xfdff6d54>
    1bb8:	0e000000 	cdpeq	0, 0, cr0, cr0, cr0, {0}
    1bbc:	ad040804 	stcge	8, cr0, [r4, #-16]
    1bc0:	00000000 	andeq	r0, r0, r0
    1bc4:	0000019d 	muleq	r0, sp, r1
    1bc8:	09260004 	stmdbeq	r6!, {r2}
    1bcc:	01040000 	mrseq	r0, (UNDEF: 4)
    1bd0:	00000465 	andeq	r0, r0, r5, ror #8
    1bd4:	0005620c 	andeq	r6, r5, ip, lsl #4
    1bd8:	00051d00 	andeq	r1, r5, r0, lsl #26
    1bdc:	008c0c00 	addeq	r0, ip, r0, lsl #24
    1be0:	00005800 	andeq	r5, r0, r0, lsl #16
    1be4:	000c7b00 	andeq	r7, ip, r0, lsl #22
    1be8:	054e0200 	strbeq	r0, [lr, #-512]	; 0xfffffe00
    1bec:	28020000 	stmdacs	r2, {}	; <UNPREDICTABLE>
    1bf0:	0000311b 	andeq	r3, r0, fp, lsl r1
    1bf4:	05720300 	ldrbeq	r0, [r2, #-768]!	; 0xfffffd00
    1bf8:	04040000 	streq	r0, [r4], #-0
    1bfc:	00004800 	andeq	r4, r0, r0, lsl #16
    1c00:	055d0400 	ldrbeq	r0, [sp, #-1024]	; 0xfffffc00
    1c04:	00480000 	subeq	r0, r8, r0
    1c08:	00000000 	andeq	r0, r0, r0
    1c0c:	74020405 	strvc	r0, [r2], #-1029	; 0xfffffbfb
    1c10:	02000005 	andeq	r0, r0, #5, 0
    1c14:	00251863 	eoreq	r1, r5, r3, ror #16
    1c18:	04060000 	streq	r0, [r6], #-0
    1c1c:	746e6905 	strbtvc	r6, [lr], #-2309	; 0xfffff6fb
    1c20:	07040700 	streq	r0, [r4, -r0, lsl #14]
    1c24:	0000009a 	muleq	r0, sl, r0
    1c28:	6b060107 	blvs	18204c <__bss_end__+0x1771e4>
    1c2c:	07000000 	streq	r0, [r0, -r0]
    1c30:	00e70502 	rsceq	r0, r7, r2, lsl #10
    1c34:	04070000 	streq	r0, [r7], #-0
    1c38:	0000ac05 	andeq	sl, r0, r5, lsl #24
    1c3c:	05080700 	streq	r0, [r8, #-1792]	; 0xfffff900
    1c40:	000000a7 	andeq	r0, r0, r7, lsr #1
    1c44:	69080107 	stmdbvs	r8, {r0, r1, r2, r8}
    1c48:	07000000 	streq	r0, [r0, -r0]
    1c4c:	004b0702 	subeq	r0, fp, r2, lsl #14
    1c50:	04070000 	streq	r0, [r7], #-0
    1c54:	00009507 	andeq	r9, r0, r7, lsl #10
    1c58:	07080700 	streq	r0, [r8, -r0, lsl #14]
    1c5c:	00000090 	muleq	r0, r0, r0
    1c60:	00005608 	andeq	r5, r0, r8, lsl #12
    1c64:	0000ab00 	andeq	sl, r0, r0, lsl #22
    1c68:	00560900 	subseq	r0, r6, r0, lsl #18
    1c6c:	0a000000 	beq	1c74 <__code_start__-0x638c>
    1c70:	000000fb 	strdeq	r0, [r0], -fp
    1c74:	b70e1c03 	strlt	r1, [lr, -r3, lsl #24]
    1c78:	0b000000 	bleq	1c80 <__code_start__-0x6380>
    1c7c:	00009c04 	andeq	r9, r0, r4, lsl #24
    1c80:	00560800 	subseq	r0, r6, r0, lsl #16
    1c84:	00cc0000 	sbceq	r0, ip, r0
    1c88:	cc090000 	stcgt	0, cr0, [r9], {-0}
    1c8c:	00000000 	andeq	r0, r0, r0
    1c90:	00d9040b 	sbcseq	r0, r9, fp, lsl #8
    1c94:	01070000 	mrseq	r0, (UNDEF: 7)
    1c98:	00007208 	andeq	r7, r0, r8, lsl #4
    1c9c:	00d20c00 	sbcseq	r0, r2, r0, lsl #24
    1ca0:	850a0000 	strhi	r0, [sl, #-0]
    1ca4:	03000005 	movweq	r0, #5
    1ca8:	00ea0e21 	rsceq	r0, sl, r1, lsr #28
    1cac:	040b0000 	streq	r0, [fp], #-0
    1cb0:	000000bd 	strheq	r0, [r0], -sp
    1cb4:	0005470d 	andeq	r4, r5, sp, lsl #14
    1cb8:	05060100 	streq	r0, [r6, #-256]	; 0xffffff00
    1cbc:	00000056 	andeq	r0, r0, r6, asr r0
    1cc0:	00008c0c 	andeq	r8, r0, ip, lsl #24
    1cc4:	00000058 	andeq	r0, r0, r8, asr r0
    1cc8:	01839c01 	orreq	r9, r3, r1, lsl #24
    1ccc:	660e0000 	strvs	r0, [lr], -r0
    1cd0:	0100746d 	tsteq	r0, sp, ror #8
    1cd4:	00cc1806 	sbceq	r1, ip, r6, lsl #16
    1cd8:	91020000 	mrsls	r0, (UNDEF: 2)
    1cdc:	62100f70 	andsvs	r0, r0, #112, 30	; 0x1c0
    1ce0:	01006675 	tsteq	r0, r5, ror r6
    1ce4:	01831108 	orreq	r1, r3, r8, lsl #2
    1ce8:	03050000 	movweq	r0, #20480	; 0x5000
    1cec:	0000aa64 	andeq	sl, r0, r4, ror #20
    1cf0:	00053f11 	andeq	r3, r5, r1, lsl pc
    1cf4:	0d090100 	stfeqs	f0, [r9, #-0]
    1cf8:	0000004a 	andeq	r0, r0, sl, asr #32
    1cfc:	125c9102 	subsne	r9, ip, #-2147483648	; 0x80000000
    1d00:	01007a73 	tsteq	r0, r3, ror sl
    1d04:	00560d0c 	subseq	r0, r6, ip, lsl #26
    1d08:	0b9b0000 	bleq	fe6c1d10 <__bss_end__+0xfe6b6ea8>
    1d0c:	0b950000 	bleq	fe541d14 <__bss_end__+0xfe536eac>
    1d10:	34130000 	ldrcc	r0, [r3], #-0
    1d14:	9400008c 	strls	r0, [r0], #-140	; 0xffffff74
    1d18:	76000001 	strvc	r0, [r0], -r1
    1d1c:	14000001 	strne	r0, [r0], #-1
    1d20:	75025001 	strvc	r5, [r2, #-1]
    1d24:	51011400 	tstpl	r1, r0, lsl #8
    1d28:	04000a03 	streq	r0, [r0], #-2563	; 0xfffff5fd
    1d2c:	03520114 	cmpeq	r2, #5
    1d30:	14064891 	strne	r4, [r6], #-2193	; 0xfffff76f
    1d34:	91025301 	tstls	r2, r1, lsl #6
    1d38:	4815004c 	ldmdami	r5, {r2, r3, r6}
    1d3c:	1400008c 	strne	r0, [r0], #-140	; 0xffffff74
    1d40:	75025001 	strvc	r5, [r2, #-1]
    1d44:	16000000 	strne	r0, [r0], -r0
    1d48:	000000d2 	ldrdeq	r0, [r0], -r2
    1d4c:	00000194 	muleq	r0, r4, r1
    1d50:	00005d17 	andeq	r5, r0, r7, lsl sp
    1d54:	0003ff00 	andeq	pc, r3, r0, lsl #30
    1d58:	00054418 	andeq	r4, r5, r8, lsl r4
    1d5c:	00054400 	andeq	r4, r5, r0, lsl #8
    1d60:	05020500 	streq	r0, [r2, #-1280]	; 0xfffffb00
    1d64:	0000f300 	andeq	pc, r0, r0, lsl #6
    1d68:	68000400 	stmdavs	r0, {sl}
    1d6c:	0400000a 	streq	r0, [r0], #-10
    1d70:	00046501 	andeq	r6, r4, r1, lsl #10
    1d74:	058a0c00 	streq	r0, [sl, #3072]	; 0xc00
    1d78:	051d0000 	ldreq	r0, [sp, #-0]
    1d7c:	8c640000 	stclhi	0, cr0, [r4], #-0
    1d80:	00380000 	eorseq	r0, r8, r0
    1d84:	0d9f0000 	ldceq	0, cr0, [pc]	; 1d8c <__code_start__-0x6274>
    1d88:	04020000 	streq	r0, [r2], #-0
    1d8c:	746e6905 	strbtvc	r6, [lr], #-2309	; 0xfffff6fb
    1d90:	07040300 	streq	r0, [r4, -r0, lsl #6]
    1d94:	0000009a 	muleq	r0, sl, r0
    1d98:	6b060103 	blvs	1821ac <__bss_end__+0x177344>
    1d9c:	03000000 	movweq	r0, #0
    1da0:	00e70502 	rsceq	r0, r7, r2, lsl #10
    1da4:	04030000 	streq	r0, [r3], #-0
    1da8:	0000ac05 	andeq	sl, r0, r5, lsl #24
    1dac:	05080300 	streq	r0, [r8, #-768]	; 0xfffffd00
    1db0:	000000a7 	andeq	r0, r0, r7, lsr #1
    1db4:	69080103 	stmdbvs	r8, {r0, r1, r8}
    1db8:	03000000 	movweq	r0, #0
    1dbc:	004b0702 	subeq	r0, fp, r2, lsl #14
    1dc0:	04030000 	streq	r0, [r3], #-0
    1dc4:	00009507 	andeq	r9, r0, r7, lsl #10
    1dc8:	07080300 	streq	r0, [r8, -r0, lsl #6]
    1dcc:	00000090 	muleq	r0, r0, r0
    1dd0:	00002504 	andeq	r2, r0, r4, lsl #10
    1dd4:	00007a00 	andeq	r7, r0, r0, lsl #20
    1dd8:	00250500 	eoreq	r0, r5, r0, lsl #10
    1ddc:	06000000 	streq	r0, [r0], -r0
    1de0:	000000fb 	strdeq	r0, [r0], -fp
    1de4:	860e1c02 	strhi	r1, [lr], -r2, lsl #24
    1de8:	07000000 	streq	r0, [r0, -r0]
    1dec:	00006b04 	andeq	r6, r0, r4, lsl #22
    1df0:	00250400 	eoreq	r0, r5, r0, lsl #8
    1df4:	009b0000 	addseq	r0, fp, r0
    1df8:	9b050000 	blls	141e00 <__bss_end__+0x136f98>
    1dfc:	00000000 	andeq	r0, r0, r0
    1e00:	00a80407 	adceq	r0, r8, r7, lsl #8
    1e04:	01030000 	mrseq	r0, (UNDEF: 3)
    1e08:	00007208 	andeq	r7, r0, r8, lsl #4
    1e0c:	00a10800 	adceq	r0, r1, r0, lsl #16
    1e10:	85060000 	strhi	r0, [r6, #-0]
    1e14:	02000005 	andeq	r0, r0, #5, 0
    1e18:	00b90e21 	adcseq	r0, r9, r1, lsr #28
    1e1c:	04070000 	streq	r0, [r7], #-0
    1e20:	0000008c 	andeq	r0, r0, ip, lsl #1
    1e24:	0000ad09 	andeq	sl, r0, r9, lsl #26
    1e28:	070c0100 	streq	r0, [ip, -r0, lsl #2]
    1e2c:	aa280305 	bge	a02a48 <__bss_end__+0x9f7be0>
    1e30:	7c0a0000 	stcvc	0, cr0, [sl], {-0}
    1e34:	01000005 	tsteq	r0, r5
    1e38:	00250504 	eoreq	r0, r5, r4, lsl #10
    1e3c:	8c640000 	stclhi	0, cr0, [r4], #-0
    1e40:	00380000 	eorseq	r0, r8, r0
    1e44:	9c010000 	stcls	0, cr0, [r1], {-0}
    1e48:	0100700b 	tsteq	r0, fp
    1e4c:	009b1f04 	addseq	r1, fp, r4, lsl #30
    1e50:	0bcc0000 	bleq	ff301e58 <__bss_end__+0xff2f6ff0>
    1e54:	0bc40000 	bleq	ff101e5c <__bss_end__+0xff0f6ff4>
    1e58:	00000000 	andeq	r0, r0, r0
    1e5c:	00000c7f 	andeq	r0, r0, pc, ror ip
    1e60:	0b060004 	bleq	181e78 <__bss_end__+0x177010>
    1e64:	01040000 	mrseq	r0, (UNDEF: 4)
    1e68:	00000465 	andeq	r0, r0, r5, ror #8
    1e6c:	0005a90c 	andeq	sl, r5, ip, lsl #18
    1e70:	00051d00 	andeq	r1, r5, r0, lsl #26
    1e74:	008c9c00 	addeq	r9, ip, r0, lsl #24
    1e78:	0009b400 	andeq	fp, r9, r0, lsl #8
    1e7c:	000e4300 	andeq	r4, lr, r0, lsl #6
    1e80:	07080200 	streq	r0, [r8, -r0, lsl #4]
    1e84:	00000090 	muleq	r0, r0, r0
    1e88:	9a070402 	bls	1c2e98 <__bss_end__+0x1b8030>
    1e8c:	03000000 	movweq	r0, #0
    1e90:	6e690504 	cdpvs	5, 6, cr0, cr9, cr4, {0}
    1e94:	01020074 	tsteq	r2, r4, ror r0
    1e98:	00006b06 	andeq	r6, r0, r6, lsl #22
    1e9c:	05020200 	streq	r0, [r2, #-512]	; 0xfffffe00
    1ea0:	000000e7 	andeq	r0, r0, r7, ror #1
    1ea4:	ac050402 	cfstrsge	mvf0, [r5], {2}
    1ea8:	02000000 	andeq	r0, r0, #0, 0
    1eac:	00a70508 	adceq	r0, r7, r8, lsl #10
    1eb0:	01020000 	mrseq	r0, (UNDEF: 2)
    1eb4:	00006908 	andeq	r6, r0, r8, lsl #18
    1eb8:	07020200 	streq	r0, [r2, -r0, lsl #4]
    1ebc:	0000004b 	andeq	r0, r0, fp, asr #32
    1ec0:	00023f04 	andeq	r3, r2, r4, lsl #30
    1ec4:	19340200 	ldmdbne	r4!, {r9}
    1ec8:	00000070 	andeq	r0, r0, r0, ror r0
    1ecc:	95070402 	strls	r0, [r7, #-1026]	; 0xfffffbfe
    1ed0:	04000000 	streq	r0, [r0], #-0
    1ed4:	000005a0 	andeq	r0, r0, r0, lsr #11
    1ed8:	25193702 	ldrcs	r3, [r9, #-1794]	; 0xfffff8fe
    1edc:	05000000 	streq	r0, [r0, #-0]
    1ee0:	00000033 	andeq	r0, r0, r3, lsr r0
    1ee4:	00000092 	muleq	r0, r2, r0
    1ee8:	00003306 	andeq	r3, r0, r6, lsl #6
    1eec:	fb070000 	blx	1c1ef6 <__bss_end__+0x1b708e>
    1ef0:	03000000 	movweq	r0, #0
    1ef4:	009e0e1c 	addseq	r0, lr, ip, lsl lr
    1ef8:	04080000 	streq	r0, [r8], #-0
    1efc:	00000083 	andeq	r0, r0, r3, lsl #1
    1f00:	00003305 	andeq	r3, r0, r5, lsl #6
    1f04:	0000b300 	andeq	fp, r0, r0, lsl #6
    1f08:	00b30600 	adcseq	r0, r3, r0, lsl #12
    1f0c:	08000000 	stmdaeq	r0, {}	; <UNPREDICTABLE>
    1f10:	0000c004 	andeq	ip, r0, r4
    1f14:	08010200 	stmdaeq	r1, {r9}
    1f18:	00000072 	andeq	r0, r0, r2, ror r0
    1f1c:	0000b909 	andeq	fp, r0, r9, lsl #18
    1f20:	05850700 	streq	r0, [r5, #1792]	; 0x700
    1f24:	21030000 	mrscs	r0, (UNDEF: 3)
    1f28:	0000d10e 	andeq	sp, r0, lr, lsl #2
    1f2c:	a4040800 	strge	r0, [r4], #-2048	; 0xfffff800
    1f30:	07000000 	streq	r0, [r0, -r0]
    1f34:	000005bc 			; <UNDEFINED> instruction: 0x000005bc
    1f38:	b90d0b04 	stmdblt	sp, {r2, r8, r9, fp}
    1f3c:	07000000 	streq	r0, [r0, -r0]
    1f40:	00000615 	andeq	r0, r0, r5, lsl r6
    1f44:	b90d0c04 	stmdblt	sp, {r2, sl, fp}
    1f48:	07000000 	streq	r0, [r0, -r0]
    1f4c:	00000338 	andeq	r0, r0, r8, lsr r3
    1f50:	b90d0d04 	stmdblt	sp, {r2, r8, sl, fp}
    1f54:	07000000 	streq	r0, [r0, -r0]
    1f58:	000003ea 	andeq	r0, r0, sl, ror #7
    1f5c:	b90d0e04 	stmdblt	sp, {r2, r9, sl, fp}
    1f60:	07000000 	streq	r0, [r0, -r0]
    1f64:	00000420 	andeq	r0, r0, r0, lsr #8
    1f68:	b90d0f04 	stmdblt	sp, {r2, r8, r9, sl, fp}
    1f6c:	07000000 	streq	r0, [r0, -r0]
    1f70:	00000399 	muleq	r0, r9, r3
    1f74:	b90d1004 	stmdblt	sp, {r2, ip}
    1f78:	07000000 	streq	r0, [r0, -r0]
    1f7c:	0000063e 	andeq	r0, r0, lr, lsr r6
    1f80:	b90d1104 	stmdblt	sp, {r2, r8, ip}
    1f84:	07000000 	streq	r0, [r0, -r0]
    1f88:	000005d9 	ldrdeq	r0, [r0], -r9
    1f8c:	b90d1204 	stmdblt	sp, {r2, r9, ip}
    1f90:	04000000 	streq	r0, [r0], #-0
    1f94:	0000054e 	andeq	r0, r0, lr, asr #10
    1f98:	431b2805 	tstmi	fp, #327680	; 0x50000
    1f9c:	0a000001 	beq	1fa8 <__code_start__-0x6058>
    1fa0:	00000572 	andeq	r0, r0, r2, ror r5
    1fa4:	5a000604 	bpl	37bc <__code_start__-0x4844>
    1fa8:	0b000001 	bleq	1fb4 <__code_start__-0x604c>
    1fac:	0000055d 	andeq	r0, r0, sp, asr r5
    1fb0:	0000015a 	andeq	r0, r0, sl, asr r1
    1fb4:	040c0000 	streq	r0, [ip], #-0
    1fb8:	00057404 	andeq	r7, r5, r4, lsl #8
    1fbc:	18630500 	stmdane	r3!, {r8, sl}^
    1fc0:	00000137 	andeq	r0, r0, r7, lsr r1
    1fc4:	0005440d 	andeq	r4, r5, sp, lsl #8
    1fc8:	05810100 	streq	r0, [r1, #256]	; 0x100
    1fcc:	00000033 	andeq	r0, r0, r3, lsr r0
    1fd0:	00009024 	andeq	r9, r0, r4, lsr #32
    1fd4:	0000062c 	andeq	r0, r0, ip, lsr #12
    1fd8:	086a9c01 	stmdaeq	sl!, {r0, sl, fp, ip, pc}^
    1fdc:	620e0000 	andvs	r0, lr, #0, 0
    1fe0:	01006675 	tsteq	r0, r5, ror r6
    1fe4:	086a1581 	stmdaeq	sl!, {r0, r7, r8, sl, ip}^
    1fe8:	0c0c0000 	stceq	0, cr0, [ip], {-0}
    1fec:	0c020000 	stceq	0, cr0, [r2], {-0}
    1ff0:	6e0e0000 	cdpvs	0, 0, cr0, cr14, cr0, {0}
    1ff4:	1e810100 	rmfnes	f0, f1, f0
    1ff8:	00000033 	andeq	r0, r0, r3, lsr r0
    1ffc:	00000c59 	andeq	r0, r0, r9, asr ip
    2000:	00000c51 	andeq	r0, r0, r1, asr ip
    2004:	746d660e 	strbtvc	r6, [sp], #-1550	; 0xfffff9f2
    2008:	2d810100 	stfcss	f0, [r1]
    200c:	000000b3 	strheq	r0, [r0], -r3
    2010:	00000cab 	andeq	r0, r0, fp, lsr #25
    2014:	00000c93 	muleq	r0, r3, ip
    2018:	00053f0f 	andeq	r3, r5, pc, lsl #30
    201c:	3a810100 	bcc	fe042424 <__bss_end__+0xfe0375bc>
    2020:	0000015c 	andeq	r0, r0, ip, asr r1
    2024:	00000d6d 	andeq	r0, r0, sp, ror #26
    2028:	00000d3f 	andeq	r0, r0, pc, lsr sp
    202c:	01007010 	tsteq	r0, r0, lsl r0
    2030:	086a0882 	stmdaeq	sl!, {r1, r7, fp}^
    2034:	0ec00000 	cdpeq	0, 12, cr0, cr0, cr0, {0}
    2038:	0eaa0000 	cdpeq	0, 10, cr0, cr10, cr0, {0}
    203c:	65100000 	ldrvs	r0, [r0, #-0]
    2040:	12820100 	addne	r0, r2, #0
    2044:	0000086a 	andeq	r0, r0, sl, ror #16
    2048:	00000f49 	andeq	r0, r0, r9, asr #30
    204c:	00000f47 	andeq	r0, r0, r7, asr #30
    2050:	00307810 	eorseq	r7, r0, r0, lsl r8
    2054:	640e8301 	strvs	r8, [lr], #-769	; 0xfffffcff
    2058:	62000000 	andvs	r0, r0, #0, 0
    205c:	5c00000f 	stcpl	0, cr0, [r0], {15}
    2060:	1000000f 	andne	r0, r0, pc
    2064:	01003178 	tsteq	r0, r8, ror r1
    2068:	00641183 	rsbeq	r1, r4, r3, lsl #3
    206c:	0f910000 	svceq	0x00910000
    2070:	0f8b0000 	svceq	0x008b0000
    2074:	f7110000 			; <UNDEFINED> instruction: 0xf7110000
    2078:	01000005 	tsteq	r0, r5
    207c:	00b31186 	adcseq	r1, r3, r6, lsl #3
    2080:	0fc20000 	svceq	0x00c20000
    2084:	0fba0000 	svceq	0x00ba0000
    2088:	83120000 	tsthi	r2, #0, 0
    208c:	80000000 	andhi	r0, r0, r0
    2090:	05000008 	streq	r0, [r0, #-8]
    2094:	00a81403 	adceq	r1, r8, r3, lsl #8
    2098:	00c81300 	sbceq	r1, r8, r0, lsl #6
    209c:	73100000 	tstvc	r0, #0, 0
    20a0:	0a910100 	beq	fe4424a8 <__bss_end__+0xfe437640>
    20a4:	0000086a 	andeq	r0, r0, sl, ror #16
    20a8:	00001008 	andeq	r1, r0, r8
    20ac:	00000ffc 	strdeq	r0, [r0], -ip
    20b0:	6d756e14 	ldclvs	14, cr6, [r5, #-80]!	; 0xffffffb0
    20b4:	0d910100 	ldfeqs	f0, [r1]
    20b8:	00000885 	andeq	r0, r0, r5, lsl #17
    20bc:	7dd89103 	ldfvcp	f1, [r8, #12]
    20c0:	00064b15 	andeq	r4, r6, r5, lsl fp
    20c4:	17910100 	ldrne	r0, [r1, r0, lsl #2]
    20c8:	00000885 	andeq	r0, r0, r5, lsl #17
    20cc:	7ed89103 	atnvce	f1, f3
    20d0:	0005cb11 	andeq	ip, r5, r1, lsl fp
    20d4:	0d920100 	ldfeqs	f0, [r2]
    20d8:	0000002c 	andeq	r0, r0, ip, lsr #32
    20dc:	0000105a 	andeq	r1, r0, sl, asr r0
    20e0:	00001052 	andeq	r1, r0, r2, asr r0
    20e4:	0000f016 	andeq	pc, r0, r6, lsl r0	; <UNPREDICTABLE>
    20e8:	0004f100 	andeq	pc, r4, r0, lsl #2
    20ec:	79741000 	ldmdbvc	r4!, {ip}^
    20f0:	1d9e0100 	ldfnes	f0, [lr]
    20f4:	000000b3 	strheq	r0, [r0], -r3
    20f8:	0000109b 	muleq	r0, fp, r0
    20fc:	0000108f 	andeq	r1, r0, pc, lsl #1
    2100:	00787814 	rsbseq	r7, r8, r4, lsl r8
    2104:	771aa201 	ldrvc	sl, [sl, -r1, lsl #4]
    2108:	06000000 	streq	r0, [r0], -r0
    210c:	5b049359 	blpl	126e78 <__bss_end__+0x11c010>
    2110:	b0170493 	mulslt	r7, r3, r4
    2114:	3a000091 	bcc	2360 <__code_start__-0x5ca0>
    2118:	d800000c 	stmdale	r0, {r2, r3}
    211c:	18000002 	stmdane	r0, {r1}
    2120:	76025001 	strvc	r5, [r2], -r1
    2124:	51011800 	tstpl	r1, r0, lsl #16
    2128:	a7080305 	strge	r0, [r8, -r5, lsl #6]
    212c:	01180000 	tsteq	r8, r0
    2130:	00330152 	eorseq	r0, r3, r2, asr r1
    2134:	0091c817 	addseq	ip, r1, r7, lsl r8
    2138:	000c3a00 	andeq	r3, ip, r0, lsl #20
    213c:	0002fa00 	andeq	pc, r2, r0, lsl #20
    2140:	50011800 	andpl	r1, r1, r0, lsl #16
    2144:	18007602 	stmdane	r0, {r1, r9, sl, ip, sp, lr}
    2148:	03055101 	movweq	r5, #20737	; 0x5101
    214c:	0000a71c 	andeq	sl, r0, ip, lsl r7
    2150:	01520118 	cmpeq	r2, r8, lsl r1
    2154:	ec170033 	ldc	0, cr0, [r7], {51}	; 0x33
    2158:	46000091 			; <UNDEFINED> instruction: 0x46000091
    215c:	1700000c 	strne	r0, [r0, -ip]
    2160:	18000003 	stmdane	r0, {r0, r1}
    2164:	03055001 	movweq	r5, #20481	; 0x5001
    2168:	0000a70c 	andeq	sl, r0, ip, lsl #14
    216c:	02510118 	subseq	r0, r1, #6
    2170:	1700007b 	smlsdxne	r0, fp, r0, r0
    2174:	000091f8 	strdeq	r9, [r0], -r8
    2178:	00000c46 	andeq	r0, r0, r6, asr #24
    217c:	00000334 	andeq	r0, r0, r4, lsr r3
    2180:	05500118 	ldrbeq	r0, [r0, #-280]	; 0xfffffee8
    2184:	00a71403 	adceq	r1, r7, r3, lsl #8
    2188:	51011800 	tstpl	r1, r0, lsl #16
    218c:	00007902 	andeq	r7, r0, r2, lsl #18
    2190:	00920817 	addseq	r0, r2, r7, lsl r8
    2194:	000c3a00 	andeq	r3, ip, r0, lsl #20
    2198:	00035600 	andeq	r5, r3, r0, lsl #12
    219c:	50011800 	andpl	r1, r1, r0, lsl #16
    21a0:	18007602 	stmdane	r0, {r1, r9, sl, ip, sp, lr}
    21a4:	03055101 	movweq	r5, #20737	; 0x5101
    21a8:	0000a708 	andeq	sl, r0, r8, lsl #14
    21ac:	01520118 	cmpeq	r2, r8, lsl r1
    21b0:	38170033 	ldmdacc	r7, {r0, r1, r4, r5}
    21b4:	a4000092 	strge	r0, [r0], #-146	; 0xffffff6e
    21b8:	8300000a 	movwhi	r0, #10
    21bc:	18000003 	stmdane	r0, {r0, r1}
    21c0:	40015001 	andmi	r5, r1, r1
    21c4:	03510118 	cmpeq	r1, #6
    21c8:	187dd091 	ldmdane	sp!, {r0, r4, r7, ip, lr, pc}^
    21cc:	7b025201 	blvc	969d8 <__bss_end__+0x8bb70>
    21d0:	53011800 	movwpl	r1, #6144	; 0x1800
    21d4:	18007502 	stmdane	r0, {r1, r8, sl, ip, sp, lr}
    21d8:	02007d02 	andeq	r7, r0, #128	; 0x80
    21dc:	17000076 	smlsdxne	r0, r6, r0, r0
    21e0:	00009258 	andeq	r9, r0, r8, asr r2
    21e4:	00000aa4 	andeq	r0, r0, r4, lsr #21
    21e8:	000003aa 	andeq	r0, r0, sl, lsr #7
    21ec:	01500118 	cmpeq	r0, r8, lsl r1
    21f0:	51011840 	tstpl	r1, r0, asr #16
    21f4:	7ed09103 	atnvcs	f1, f3
    21f8:	02520118 	subseq	r0, r2, #6
    21fc:	02180079 	andseq	r0, r8, #121, 0	; 0x79
    2200:	7602007d 			; <UNDEFINED> instruction: 0x7602007d
    2204:	68170000 	ldmdavs	r7, {}	; <UNPREDICTABLE>
    2208:	52000092 	andpl	r0, r0, #146, 0	; 0x92
    220c:	c600000c 	strgt	r0, [r0], -ip
    2210:	18000003 	stmdane	r0, {r0, r1}
    2214:	91035001 	tstls	r3, r1
    2218:	01187dd0 			; <UNDEFINED> instruction: 0x01187dd0
    221c:	d2910351 	addsle	r0, r1, #1140850689	; 0x44000001
    2220:	ac17007e 	ldcge	0, cr0, [r7], {126}	; 0x7e
    2224:	3a000094 	bcc	247c <__code_start__-0x5b84>
    2228:	e800000c 	stmda	r0, {r2, r3}
    222c:	18000003 	stmdane	r0, {r0, r1}
    2230:	76025001 	strvc	r5, [r2], -r1
    2234:	51011800 	tstpl	r1, r0, lsl #16
    2238:	a71c0305 	ldrge	r0, [ip, -r5, lsl #6]
    223c:	01180000 	tsteq	r8, r0
    2240:	00330152 	eorseq	r0, r3, r2, asr r1
    2244:	0094d017 	addseq	sp, r4, r7, lsl r0
    2248:	000aa400 	andeq	sl, sl, r0, lsl #8
    224c:	00041500 	andeq	r1, r4, r0, lsl #10
    2250:	50011800 	andpl	r1, r1, r0, lsl #16
    2254:	01183a01 	tsteq	r8, r1, lsl #20
    2258:	d0910351 	addsle	r0, r1, r1, asr r3
    225c:	5201187d 	andpl	r1, r1, #8192000	; 0x7d0000
    2260:	18007b02 	stmdane	r0, {r1, r8, r9, fp, ip, sp, lr}
    2264:	75025301 	strvc	r5, [r2, #-769]	; 0xfffffcff
    2268:	7d021800 	stcvc	8, cr1, [r2, #-0]
    226c:	00760200 	rsbseq	r0, r6, r0, lsl #4
    2270:	94f01700 	ldrbtls	r1, [r0], #1792	; 0x700
    2274:	0aa40000 	beq	fe90227c <__bss_end__+0xfe8f7414>
    2278:	043c0000 	ldrteq	r0, [ip], #-0
    227c:	01180000 	tsteq	r8, r0
    2280:	183a0150 	ldmdane	sl!, {r4, r6, r8}
    2284:	91035101 	tstls	r3, r1, lsl #2
    2288:	01187ed0 			; <UNDEFINED> instruction: 0x01187ed0
    228c:	00790252 	rsbseq	r0, r9, r2, asr r2
    2290:	007d0218 	rsbseq	r0, sp, r8, lsl r2
    2294:	00007602 	andeq	r7, r0, r2, lsl #12
    2298:	0094fc17 	addseq	pc, r4, r7, lsl ip	; <UNPREDICTABLE>
    229c:	000c5e00 	andeq	r5, ip, r0, lsl #28
    22a0:	00045a00 	andeq	r5, r4, r0, lsl #20
    22a4:	50011800 	andpl	r1, r1, r0, lsl #16
    22a8:	7dd09103 	ldfvcp	f1, [r0, #12]
    22ac:	05510118 	ldrbeq	r0, [r1, #-280]	; 0xfffffee8
    22b0:	00a58003 	adceq	r8, r5, r3
    22b4:	10170000 	andsne	r0, r7, r0
    22b8:	6a000095 	bvs	2514 <__code_start__-0x5aec>
    22bc:	7600000c 	strvc	r0, [r0], -ip
    22c0:	18000004 	stmdane	r0, {r2}
    22c4:	91035001 	tstls	r3, r1
    22c8:	01187dd0 			; <UNDEFINED> instruction: 0x01187dd0
    22cc:	d0910351 	addsle	r0, r1, r1, asr r3
    22d0:	1c19007e 	ldcne	0, cr0, [r9], {126}	; 0x7e
    22d4:	52000095 	andpl	r0, r0, #149, 0	; 0x95
    22d8:	1700000c 	strne	r0, [r0, -ip]
    22dc:	000095e0 	andeq	r9, r0, r0, ror #11
    22e0:	00000c46 	andeq	r0, r0, r6, asr #24
    22e4:	000004a8 	andeq	r0, r0, r8, lsr #9
    22e8:	05500118 	ldrbeq	r0, [r0, #-280]	; 0xfffffee8
    22ec:	00a26803 	adceq	r6, r2, r3, lsl #16
    22f0:	51011800 	tstpl	r1, r0, lsl #16
    22f4:	a6bc0305 	ldrtge	r0, [ip], r5, lsl #6
    22f8:	01180000 	tsteq	r8, r0
    22fc:	14030552 	strne	r0, [r3], #-1362	; 0xfffffaae
    2300:	000000a8 	andeq	r0, r0, r8, lsr #1
    2304:	0095e419 	addseq	lr, r5, r9, lsl r4
    2308:	000c7600 	andeq	r7, ip, r0, lsl #12
    230c:	95fc1700 	ldrbls	r1, [ip, #1792]!	; 0x700
    2310:	0c460000 	mareq	acc0, r0, r6
    2314:	04e70000 	strbteq	r0, [r7], #0
    2318:	01180000 	tsteq	r8, r0
    231c:	5c030550 	cfstr32pl	mvfx0, [r3], {80}	; 0x50
    2320:	180000a7 	stmdane	r0, {r0, r1, r2, r5, r7}
    2324:	03055101 	movweq	r5, #20737	; 0x5101
    2328:	0000a6bc 			; <UNDEFINED> instruction: 0x0000a6bc
    232c:	05520118 	ldrbeq	r0, [r2, #-280]	; 0xfffffee8
    2330:	00a81403 	adceq	r1, r8, r3, lsl #8
    2334:	53011800 	movwpl	r1, #6144	; 0x1800
    2338:	18b60802 	ldmne	r6!, {r1, fp}
    233c:	02007d02 	andeq	r7, r0, #128	; 0x80
    2340:	19000076 	stmdbne	r0, {r1, r2, r4, r5, r6}
    2344:	00009600 	andeq	r9, r0, r0, lsl #12
    2348:	00000c76 	andeq	r0, r0, r6, ror ip
    234c:	09e31a00 	stmibeq	r3!, {r9, fp, ip}^
    2350:	90b00000 	adcsls	r0, r0, r0
    2354:	00040000 	andeq	r0, r4, r0
    2358:	00000118 	andeq	r0, r0, r8, lsl r1
    235c:	150a9401 	strne	r9, [sl, #-1025]	; 0xfffffbff
    2360:	1b000005 	blne	237c <__code_start__-0x5c84>
    2364:	000009f4 	strdeq	r0, [r0], -r4
    2368:	000010f7 	strdeq	r1, [r0], -r7
    236c:	000010f3 	strdeq	r1, [r0], -r3
    2370:	08951a00 	ldmeq	r5, {r9, fp, ip}
    2374:	92980000 	addsls	r0, r8, #0, 0
    2378:	00010000 	andeq	r0, r1, r0
    237c:	00000138 	andeq	r0, r0, r8, lsr r1
    2380:	4b09dc01 	blmi	27938c <__bss_end__+0x26e524>
    2384:	1b000006 	blne	23a4 <__code_start__-0x5c5c>
    2388:	000008be 			; <UNDEFINED> instruction: 0x000008be
    238c:	00001125 	andeq	r1, r0, r5, lsr #2
    2390:	0000111f 	andeq	r1, r0, pc, lsl r1
    2394:	0008e01b 	andeq	lr, r8, fp, lsl r0
    2398:	00115a00 	andseq	r5, r1, r0, lsl #20
    239c:	00115400 	andseq	r5, r1, r0, lsl #8
    23a0:	08d41b00 	ldmeq	r4, {r8, r9, fp, ip}^
    23a4:	118c0000 	orrne	r0, ip, r0
    23a8:	11860000 	orrne	r0, r6, r0
    23ac:	c81c0000 	ldmdagt	ip, {}	; <UNPREDICTABLE>
    23b0:	1b000008 	blne	23d8 <__code_start__-0x5c28>
    23b4:	000008b2 			; <UNDEFINED> instruction: 0x000008b2
    23b8:	000011bd 			; <UNDEFINED> instruction: 0x000011bd
    23bc:	000011b5 			; <UNDEFINED> instruction: 0x000011b5
    23c0:	0008a61b 	andeq	sl, r8, fp, lsl r6
    23c4:	00120000 	andseq	r0, r2, r0
    23c8:	0011fa00 	andseq	pc, r1, r0, lsl #20
    23cc:	01381300 	teqeq	r8, r0, lsl #6
    23d0:	ec1d0000 	ldc	0, cr0, [sp], {-0}
    23d4:	03000008 	movweq	r0, #8
    23d8:	1e7ed891 	mrcne	8, 3, sp, cr14, cr1, {4}
    23dc:	000008f8 	strdeq	r0, [r0], -r8
    23e0:	0000123a 	andeq	r1, r0, sl, lsr r2
    23e4:	0000122c 	andeq	r1, r0, ip, lsr #4
    23e8:	0009021f 	andeq	r0, r9, pc, lsl r2
    23ec:	09a31a00 	stmibeq	r3!, {r9, fp, ip}
    23f0:	92a40000 	adcls	r0, r4, #0, 0
    23f4:	00040000 	andeq	r0, r4, r0
    23f8:	00000168 	andeq	r0, r0, r8, ror #2
    23fc:	e2097c01 	and	r7, r9, #256	; 0x100
    2400:	1b000005 	blne	241c <__code_start__-0x5be4>
    2404:	000009ca 	andeq	r0, r0, sl, asr #19
    2408:	000012a4 	andeq	r1, r0, r4, lsr #5
    240c:	0000129e 	muleq	r0, lr, r2
    2410:	0009be1b 	andeq	fp, r9, fp, lsl lr
    2414:	0012d900 	andseq	sp, r2, r0, lsl #18
    2418:	0012cd00 	andseq	ip, r2, r0, lsl #26
    241c:	09b41b00 	ldmibeq	r4!, {r8, r9, fp, ip}
    2420:	133f0000 	teqne	pc, #0, 0
    2424:	132f0000 			; <UNDEFINED> instruction: 0x132f0000
    2428:	68130000 	ldmdavs	r3, {}	; <UNPREDICTABLE>
    242c:	1e000001 	cdpne	0, 0, cr0, cr0, cr1, {0}
    2430:	000009d6 	ldrdeq	r0, [r0], -r6
    2434:	000013bc 			; <UNDEFINED> instruction: 0x000013bc
    2438:	000013ae 	andeq	r1, r0, lr, lsr #7
    243c:	4f200000 	svcmi	0x00200000
    2440:	6c000009 	stcvs	0, cr0, [r0], {9}
    2444:	02000093 	andeq	r0, r0, #147, 0	; 0x93
    2448:	00019800 	andeq	r9, r1, r0, lsl #16
    244c:	097c0100 	ldmdbeq	ip!, {r8}^
    2450:	0009801b 	andeq	r8, r9, fp, lsl r0
    2454:	00141c00 	andseq	r1, r4, r0, lsl #24
    2458:	00141600 	andseq	r1, r4, r0, lsl #12
    245c:	09761b00 	ldmdbeq	r6!, {r8, r9, fp, ip}^
    2460:	14520000 	ldrbne	r0, [r2], #-0
    2464:	14480000 	strbne	r0, [r8], #-0
    2468:	6c1b0000 	ldcvs	0, cr0, [fp], {-0}
    246c:	a1000009 	tstge	r0, r9
    2470:	9d000014 	stcls	0, cr0, [r0, #-80]	; 0xffffffb0
    2474:	1b000014 	blne	24cc <__code_start__-0x5b34>
    2478:	00000960 	andeq	r0, r0, r0, ror #18
    247c:	000014d1 	ldrdeq	r1, [r0], -r1	; <UNPREDICTABLE>
    2480:	000014c3 	andeq	r1, r0, r3, asr #9
    2484:	00019813 	andeq	r9, r1, r3, lsl r8
    2488:	098c1e00 	stmibeq	ip, {r9, sl, fp, ip}
    248c:	15360000 	ldrne	r0, [r6, #-0]!
    2490:	15340000 	ldrne	r0, [r4, #-0]!
    2494:	981e0000 	ldmdals	lr, {}	; <UNPREDICTABLE>
    2498:	50000009 	andpl	r0, r0, r9
    249c:	4a000015 	bmi	24f8 <__code_start__-0x5b08>
    24a0:	00000015 	andeq	r0, r0, r5, lsl r0
    24a4:	1a000000 	bne	24ac <__code_start__-0x5b54>
    24a8:	00000895 	muleq	r0, r5, r8
    24ac:	000093a8 	andeq	r9, r0, r8, lsr #7
    24b0:	01c80000 	biceq	r0, r8, r0
    24b4:	d6010000 	strle	r0, [r1], -r0
    24b8:	00078909 	andeq	r8, r7, r9, lsl #18
    24bc:	08be1b00 	ldmeq	lr!, {r8, r9, fp, ip}
    24c0:	15830000 	strne	r0, [r3]
    24c4:	157f0000 	ldrbne	r0, [pc, #-0]!	; 24cc <__code_start__-0x5b34>
    24c8:	e01b0000 	ands	r0, fp, r0
    24cc:	a9000008 	stmdbge	r0, {r3}
    24d0:	a5000015 	strge	r0, [r0, #-21]	; 0xffffffeb
    24d4:	1b000015 	blne	2530 <__code_start__-0x5ad0>
    24d8:	000008d4 	ldrdeq	r0, [r0], -r4
    24dc:	000015cd 	andeq	r1, r0, sp, asr #11
    24e0:	000015c9 	andeq	r1, r0, r9, asr #11
    24e4:	0008c81c 	andeq	ip, r8, ip, lsl r8
    24e8:	08b21b00 	ldmeq	r2!, {r8, r9, fp, ip}
    24ec:	15f10000 	ldrbne	r0, [r1, #0]!
    24f0:	15eb0000 	strbne	r0, [fp, #0]!
    24f4:	a61b0000 	ldrge	r0, [fp], -r0
    24f8:	24000008 	strcs	r0, [r0], #-8
    24fc:	20000016 	andcs	r0, r0, r6, lsl r0
    2500:	13000016 	movwne	r0, #22
    2504:	000001c8 	andeq	r0, r0, r8, asr #3
    2508:	0008ec1d 	andeq	lr, r8, sp, lsl ip
    250c:	d8910300 	ldmle	r1, {r8, r9}
    2510:	08f81e7e 	ldmeq	r8!, {r1, r2, r3, r4, r5, r6, r9, sl, fp, ip}^
    2514:	164e0000 	strbne	r0, [lr], -r0
    2518:	16440000 	strbne	r0, [r4], -r0
    251c:	021e0000 	andseq	r0, lr, #0, 0
    2520:	93000009 	movwls	r0, #9
    2524:	8f000016 	svchi	0x00000016
    2528:	1a000016 	bne	2588 <__code_start__-0x5a78>
    252c:	000009a3 	andeq	r0, r0, r3, lsr #19
    2530:	000093c4 	andeq	r9, r0, r4, asr #7
    2534:	01e80003 	mvneq	r0, r3
    2538:	7c010000 	stcvc	0, cr0, [r1], {-0}
    253c:	00072009 	andeq	r2, r7, r9
    2540:	09ca1b00 	stmibeq	sl, {r8, r9, fp, ip}^
    2544:	16b50000 	ldrtne	r0, [r5], r0
    2548:	16b10000 	ldrtne	r0, [r1], r0
    254c:	be1b0000 	cdplt	0, 1, cr0, cr11, cr0, {0}
    2550:	d7000009 	strle	r0, [r0, -r9]
    2554:	d3000016 	movwle	r0, #22
    2558:	1b000016 	blne	25b8 <__code_start__-0x5a48>
    255c:	000009b4 			; <UNDEFINED> instruction: 0x000009b4
    2560:	00001701 	andeq	r1, r0, r1, lsl #14
    2564:	000016f5 	strdeq	r1, [r0], -r5
    2568:	0001e813 	andeq	lr, r1, r3, lsl r8
    256c:	09d61e00 	ldmibeq	r6, {r9, sl, fp, ip}^
    2570:	175d0000 	ldrbne	r0, [sp, -r0]
    2574:	17510000 	ldrbne	r0, [r1, -r0]
    2578:	00000000 	andeq	r0, r0, r0
    257c:	00094f20 	andeq	r4, r9, r0, lsr #30
    2580:	00944c00 	addseq	r4, r4, r0, lsl #24
    2584:	10000200 	andne	r0, r0, r0, lsl #4
    2588:	01000002 	tsteq	r0, r2
    258c:	801b097c 	andshi	r0, fp, ip, ror r9
    2590:	ad000009 	stcge	0, cr0, [r0, #-36]	; 0xffffffdc
    2594:	a9000017 	stmdbge	r0, {r0, r1, r2, r4}
    2598:	1b000017 	blne	25fc <__code_start__-0x5a04>
    259c:	00000976 	andeq	r0, r0, r6, ror r9
    25a0:	000017d5 	ldrdeq	r1, [r0], -r5
    25a4:	000017cb 	andeq	r1, r0, fp, asr #15
    25a8:	00096c1b 	andeq	r6, r9, fp, lsl ip
    25ac:	00182100 	andseq	r2, r8, r0, lsl #2
    25b0:	00181d00 	andseq	r1, r8, r0, lsl #26
    25b4:	09601b00 	stmdbeq	r0!, {r8, r9, fp, ip}^
    25b8:	184f0000 	stmdane	pc, {}^	; <UNPREDICTABLE>
    25bc:	18430000 	stmdane	r3, {}^	; <UNPREDICTABLE>
    25c0:	10130000 	andsne	r0, r3, r0
    25c4:	1e000002 	cdpne	0, 0, cr0, cr0, cr2, {0}
    25c8:	0000098c 	andeq	r0, r0, ip, lsl #19
    25cc:	000018a9 	andeq	r1, r0, r9, lsr #17
    25d0:	000018a5 	andeq	r1, r0, r5, lsr #17
    25d4:	0009981e 	andeq	r9, r9, lr, lsl r8
    25d8:	0018cf00 	andseq	ip, r8, r0, lsl #30
    25dc:	0018cb00 	andseq	ip, r8, r0, lsl #22
    25e0:	00000000 	andeq	r0, r0, r0
    25e4:	91781700 	cmnls	r8, r0, lsl #14
    25e8:	0aa40000 	beq	fe9025f0 <__bss_end__+0xfe8f7788>
    25ec:	07af0000 	streq	r0, [pc, r0]!
    25f0:	01180000 	tsteq	r8, r0
    25f4:	18400150 	stmdane	r0, {r4, r6, r8}^
    25f8:	91035101 	tstls	r3, r1, lsl #2
    25fc:	01187dd0 			; <UNDEFINED> instruction: 0x01187dd0
    2600:	00750253 	rsbseq	r0, r5, r3, asr r2
    2604:	007d0218 	rsbseq	r0, sp, r8, lsl r2
    2608:	17003001 	strne	r3, [r0, -r1]
    260c:	00009288 	andeq	r9, r0, r8, lsl #5
    2610:	00000aa4 	andeq	r0, r0, r4, lsr #21
    2614:	000007cf 	andeq	r0, r0, pc, asr #15
    2618:	01500118 	cmpeq	r0, r8, lsl r1
    261c:	5101183a 	tstpl	r1, sl, lsr r8
    2620:	7dd09103 	ldfvcp	f1, [r0, #12]
    2624:	02530118 	subseq	r0, r3, #6
    2628:	17000075 	smlsdxne	r0, r5, r0, r0
    262c:	0000956c 	andeq	r9, r0, ip, ror #10
    2630:	00000c46 	andeq	r0, r0, r6, asr #24
    2634:	000007e6 	andeq	r0, r0, r6, ror #15
    2638:	05500118 	ldrbeq	r0, [r0, #-280]	; 0xfffffee8
    263c:	00a7ac03 	adceq	sl, r7, r3, lsl #24
    2640:	7c210000 	stcvc	0, cr0, [r1], #-0
    2644:	f8000095 			; <UNDEFINED> instruction: 0xf8000095
    2648:	18000007 	stmdane	r0, {r0, r1, r2}
    264c:	91045001 	tstls	r4, r1
    2650:	00067dc8 	andeq	r7, r6, r8, asr #27
    2654:	00959017 	addseq	r9, r5, r7, lsl r0
    2658:	000c4600 	andeq	r4, ip, r0, lsl #12
    265c:	00082700 	andeq	r2, r8, r0, lsl #14
    2660:	50011800 	andpl	r1, r1, r0, lsl #16
    2664:	a7dc0305 	ldrbge	r0, [ip, r5, lsl #6]
    2668:	01180000 	tsteq	r8, r0
    266c:	bc030551 	cfstr32lt	mvfx0, [r3], {81}	; 0x51
    2670:	180000a6 	stmdane	r0, {r1, r2, r5, r7}
    2674:	03055201 	movweq	r5, #20993	; 0x5201
    2678:	0000a814 	andeq	sl, r0, r4, lsl r8
    267c:	02530118 	subseq	r0, r3, #6
    2680:	1900e208 	stmdbne	r0, {r3, r9, sp, lr, pc}
    2684:	00009594 	muleq	r0, r4, r5
    2688:	00000c76 	andeq	r0, r0, r6, ror ip
    268c:	0095a817 	addseq	sl, r5, r7, lsl r8
    2690:	000c4600 	andeq	r4, ip, r0, lsl #12
    2694:	00085f00 	andeq	r5, r8, r0, lsl #30
    2698:	50011800 	andpl	r1, r1, r0, lsl #16
    269c:	a7840305 	strge	r0, [r4, r5, lsl #6]
    26a0:	01180000 	tsteq	r8, r0
    26a4:	bc030551 	cfstr32lt	mvfx0, [r3], {81}	; 0x51
    26a8:	180000a6 	stmdane	r0, {r1, r2, r5, r7}
    26ac:	03055201 	movweq	r5, #20993	; 0x5201
    26b0:	0000a814 	andeq	sl, r0, r4, lsl r8
    26b4:	02530118 	subseq	r0, r3, #6
    26b8:	1900be08 	stmdbne	r0, {r3, r9, sl, fp, ip, sp, pc}
    26bc:	000095ac 	andeq	r9, r0, ip, lsr #11
    26c0:	00000c76 	andeq	r0, r0, r6, ror ip
    26c4:	04080000 	streq	r0, [r8], #-0
    26c8:	000000b9 	strheq	r0, [r0], -r9
    26cc:	0000c022 	andeq	ip, r0, r2, lsr #32
    26d0:	00088000 	andeq	r8, r8, r0
    26d4:	002c2300 	eoreq	r2, ip, r0, lsl #6
    26d8:	00090000 	andeq	r0, r9, r0
    26dc:	00087009 	andeq	r7, r8, r9
    26e0:	00b92200 	adcseq	r2, r9, r0, lsl #4
    26e4:	08950000 	ldmeq	r5, {}	; <UNPREDICTABLE>
    26e8:	2c230000 	stccs	0, cr0, [r3], #-0
    26ec:	7f000000 	svcvc	0x00000000
    26f0:	06222400 	strteq	r2, [r2], -r0, lsl #8
    26f4:	49010000 	stmdbmi	r1, {}	; <UNPREDICTABLE>
    26f8:	00086a01 	andeq	r6, r8, r1, lsl #20
    26fc:	092a0100 	stmdbeq	sl!, {r8}
    2700:	f7250000 			; <UNDEFINED> instruction: 0xf7250000
    2704:	01000002 	tsteq	r0, r2
    2708:	002c0f49 	eoreq	r0, ip, r9, asr #30
    270c:	64260000 	strtvs	r0, [r6], #-0
    2710:	01007473 	tsteq	r0, r3, ror r4
    2714:	086a1b49 	stmdaeq	sl!, {r0, r3, r6, r8, r9, fp, ip}^
    2718:	6e260000 	cdpvs	0, 2, cr0, cr6, cr0, {0}
    271c:	24490100 	strbcs	r0, [r9], #-256	; 0xffffff00
    2720:	00000033 	andeq	r0, r0, r3, lsr r0
    2724:	6c617626 	stclvs	6, cr7, [r1], #-152	; 0xffffff68
    2728:	2b490100 	blcs	1242b30 <__bss_end__+0x1237cc8>
    272c:	00000033 	andeq	r0, r0, r3, lsr r0
    2730:	0005cb25 	andeq	ip, r5, r5, lsr #22
    2734:	34490100 	strbcc	r0, [r9], #-256	; 0xffffff00
    2738:	00000033 	andeq	r0, r0, r3, lsr r0
    273c:	00065825 	andeq	r5, r6, r5, lsr #16
    2740:	3f490100 	svccc	0x00490100
    2744:	00000033 	andeq	r0, r0, r3, lsr r0
    2748:	66756227 	ldrbtvs	r6, [r5], -r7, lsr #4
    274c:	074e0100 	strbeq	r0, [lr, -r0, lsl #2]
    2750:	0000092a 	andeq	r0, r0, sl, lsr #18
    2754:	01007027 	tsteq	r0, r7, lsr #32
    2758:	086a114e 	stmdaeq	sl!, {r1, r2, r3, r6, r8, ip}^
    275c:	75270000 	strvc	r0, [r7, #-0]!
    2760:	0b4f0100 	bleq	13c2b68 <__bss_end__+0x13b7d00>
    2764:	0000002c 	andeq	r0, r0, ip, lsr #32
    2768:	00008312 	andeq	r8, r0, r2, lsl r3
    276c:	00094a00 	andeq	r4, r9, r0, lsl #20
    2770:	fc030500 	stc2	5, cr0, [r3], {-0}
    2774:	280000a7 	stmdacs	r0, {r0, r1, r2, r5, r7}
    2778:	00060f29 	andeq	r0, r6, r9, lsr #30
    277c:	0d540100 	ldfeqe	f0, [r4, #-0]
    2780:	0000002c 	andeq	r0, r0, ip, lsr #32
    2784:	b9220000 	stmdblt	r2!, {}	; <UNPREDICTABLE>
    2788:	3a000000 	bcc	2790 <__code_start__-0x5870>
    278c:	23000009 	movwcs	r0, #9
    2790:	0000002c 	andeq	r0, r0, ip, lsr #32
    2794:	c022003f 	eorgt	r0, r2, pc, lsr r0
    2798:	4a000000 	bmi	27a0 <__code_start__-0x5860>
    279c:	23000009 	movwcs	r0, #9
    27a0:	0000002c 	andeq	r0, r0, ip, lsr #32
    27a4:	3a090004 	bcc	2427bc <__bss_end__+0x237954>
    27a8:	24000009 	strcs	r0, [r0], #-9
    27ac:	00000627 	andeq	r0, r0, r7, lsr #12
    27b0:	6a0e3801 	bvs	3907bc <__bss_end__+0x385954>
    27b4:	01000008 	tsteq	r0, r8
    27b8:	000009a3 	andeq	r0, r0, r3, lsr #19
    27bc:	74736426 	ldrbtvc	r6, [r3], #-1062	; 0xfffffbda
    27c0:	1c380100 	ldfnes	f0, [r8], #-0
    27c4:	0000086a 	andeq	r0, r0, sl, ror #16
    27c8:	01006e26 	tsteq	r0, r6, lsr #28
    27cc:	00332538 	eorseq	r2, r3, r8, lsr r5
    27d0:	70260000 	eorvc	r0, r6, r0
    27d4:	2e380100 	rsfcse	f0, f0, f0
    27d8:	0000086a 	andeq	r0, r0, sl, ror #16
    27dc:	0009f225 	andeq	pc, r9, r5, lsr #4
    27e0:	37380100 	ldrcc	r0, [r8, -r0, lsl #2]!
    27e4:	0000086a 	andeq	r0, r0, sl, ror #16
    27e8:	6e656c27 	cdpvs	12, 6, cr6, cr5, cr7, {1}
    27ec:	063a0100 	ldrteq	r0, [sl], -r0, lsl #2
    27f0:	00000033 	andeq	r0, r0, r3, lsr r0
    27f4:	01007327 	tsteq	r0, r7, lsr #6
    27f8:	086a083e 	stmdaeq	sl!, {r1, r2, r3, r4, r5, fp}^
    27fc:	2a000000 	bcs	2804 <__code_start__-0x57fc>
    2800:	00646170 	rsbeq	r6, r4, r0, ror r1
    2804:	6a0e2e01 	bvs	38e010 <__bss_end__+0x3831a8>
    2808:	01000008 	tsteq	r0, r8
    280c:	000009e3 	andeq	r0, r0, r3, ror #19
    2810:	01007026 	tsteq	r0, r6, lsr #32
    2814:	086a182e 	stmdaeq	sl!, {r1, r2, r3, r5, fp, ip}^
    2818:	f7250000 			; <UNDEFINED> instruction: 0xf7250000
    281c:	01000002 	tsteq	r0, r2
    2820:	086a222e 	stmdaeq	sl!, {r1, r2, r3, r5, r9, sp}^
    2824:	cb250000 	blgt	94282c <__bss_end__+0x9379c4>
    2828:	01000005 	tsteq	r0, r5
    282c:	00332c2e 	eorseq	r2, r3, lr, lsr #24
    2830:	6c270000 	stcvs	0, cr0, [r7], #-0
    2834:	01006e65 	tsteq	r0, r5, ror #28
    2838:	0033062f 	eorseq	r0, r3, pc, lsr #12
    283c:	24000000 	strcs	r0, [r0], #-0
    2840:	00000598 	muleq	r0, r8, r5
    2844:	330c2701 	movwcc	r2, #50945	; 0xc701
    2848:	01000000 	mrseq	r0, (UNDEF: 0)
    284c:	000009ff 	strdeq	r0, [r0], -pc	; <UNPREDICTABLE>
    2850:	01006326 	tsteq	r0, r6, lsr #6
    2854:	00331827 	eorseq	r1, r3, r7, lsr #16
    2858:	2b000000 	blcs	2860 <__code_start__-0x57a0>
    285c:	000005e8 	andeq	r0, r0, r8, ror #11
    2860:	c4061f01 	strgt	r1, [r6], #-3841	; 0xfffff0ff
    2864:	6000008f 	andvs	r0, r0, pc, lsl #1
    2868:	01000000 	mrseq	r0, (UNDEF: 0)
    286c:	000a8f9c 	muleq	sl, ip, pc	; <UNPREDICTABLE>
    2870:	05d10f00 	ldrbeq	r0, [r1, #3840]	; 0xf00
    2874:	1f010000 	svcne	0x00010000
    2878:	00009e1b 	andeq	r9, r0, fp, lsl lr
    287c:	0018f400 	andseq	pc, r8, r0, lsl #8
    2880:	0018f000 	andseq	pc, r8, r0
    2884:	06360f00 	ldrteq	r0, [r6], -r0, lsl #30
    2888:	1f010000 	svcne	0x00010000
    288c:	0000d130 	andeq	sp, r0, r0, lsr r1
    2890:	00191900 	andseq	r1, r9, r0, lsl #18
    2894:	00191500 	andseq	r1, r9, r0, lsl #10
    2898:	00831200 	addeq	r1, r3, r0, lsl #4
    289c:	0a9f0000 	beq	fe7c28a4 <__bss_end__+0xfe7b7a3c>
    28a0:	03050000 	movweq	r0, #20480	; 0x5000
    28a4:	0000a804 	andeq	sl, r0, r4, lsl #16
    28a8:	00900817 	addseq	r0, r0, r7, lsl r8
    28ac:	000c4600 	andeq	r4, ip, r0, lsl #12
    28b0:	000a8500 	andeq	r8, sl, r0, lsl #10
    28b4:	50011800 	andpl	r1, r1, r0, lsl #16
    28b8:	a2680305 	rsbge	r0, r8, #335544320	; 0x14000000
    28bc:	01180000 	tsteq	r8, r0
    28c0:	bc030551 	cfstr32lt	mvfx0, [r3], {81}	; 0x51
    28c4:	180000a6 	stmdane	r0, {r1, r2, r5, r7}
    28c8:	03055201 	movweq	r5, #20993	; 0x5201
    28cc:	0000a804 	andeq	sl, r0, r4, lsl #16
    28d0:	02530118 	subseq	r0, r3, #6
    28d4:	02182008 	andseq	r2, r8, #8, 0
    28d8:	0305007d 	movweq	r0, #20605	; 0x507d
    28dc:	0000a6f4 	strdeq	sl, [r0], -r4
    28e0:	900c1900 	andls	r1, ip, r0, lsl #18
    28e4:	0c760000 	ldcleq	0, cr0, [r6], #-0
    28e8:	22000000 	andcs	r0, r0, #0, 0
    28ec:	000000c0 	andeq	r0, r0, r0, asr #1
    28f0:	00000a9f 	muleq	r0, pc, sl	; <UNPREDICTABLE>
    28f4:	00002c23 	andeq	r2, r0, r3, lsr #24
    28f8:	09000e00 	stmdbeq	r0, {r9, sl, fp}
    28fc:	00000a8f 	andeq	r0, r0, pc, lsl #21
    2900:	0008952c 	andeq	r9, r8, ip, lsr #10
    2904:	008c9c00 	addeq	r9, ip, r0, lsl #24
    2908:	00032800 	andeq	r2, r3, r0, lsl #16
    290c:	3a9c0100 	bcc	fe702d14 <__bss_end__+0xfe6f7eac>
    2910:	1b00000c 	blne	2948 <__code_start__-0x56b8>
    2914:	000008a6 	andeq	r0, r0, r6, lsr #17
    2918:	00001952 	andeq	r1, r0, r2, asr r9
    291c:	0000193a 	andeq	r1, r0, sl, lsr r9
    2920:	0008b21b 	andeq	fp, r8, fp, lsl r2
    2924:	0019fc00 	andseq	pc, r9, r0, lsl #24
    2928:	0019f400 	andseq	pc, r9, r0, lsl #8
    292c:	08c81b00 	stmiaeq	r8, {r8, r9, fp, ip}^
    2930:	1a530000 	bne	14c2938 <__bss_end__+0x14b7ad0>
    2934:	1a330000 	bne	cc293c <__bss_end__+0xcb7ad4>
    2938:	d41b0000 	ldrle	r0, [fp], #-0
    293c:	29000008 	stmdbcs	r0, {r3}
    2940:	1b00001b 	blne	29b4 <__code_start__-0x564c>
    2944:	2d00001b 	stccs	0, cr0, [r0, #-108]	; 0xffffff94
    2948:	000008e0 	andeq	r0, r0, r0, ror #17
    294c:	1d009102 	stfned	f1, [r0, #-8]
    2950:	000008ec 	andeq	r0, r0, ip, ror #17
    2954:	7fa89103 	svcvc	0x00a89103
    2958:	0008f81e 	andeq	pc, r8, lr, lsl r8	; <UNPREDICTABLE>
    295c:	001bbd00 	andseq	fp, fp, r0, lsl #26
    2960:	001b8900 	andseq	r8, fp, r0, lsl #18
    2964:	09021e00 	stmdbeq	r2, {r9, sl, fp, ip}
    2968:	1d240000 	stcne	0, cr0, [r4, #-0]
    296c:	1d020000 	stcne	0, cr0, [r2, #-0]
    2970:	be2e0000 	cdplt	0, 2, cr0, cr14, cr0, {0}
    2974:	80000008 	andhi	r0, r0, r8
    2978:	0009a31a 	andeq	sl, r9, sl, lsl r3
    297c:	008d4000 	addeq	r4, sp, r0
    2980:	60000400 	andvs	r0, r0, r0, lsl #8
    2984:	01000000 	mrseq	r0, (UNDEF: 0)
    2988:	0b6d097c 	bleq	1b44f80 <__bss_end__+0x1b3a118>
    298c:	ca1b0000 	bgt	6c2994 <__bss_end__+0x6b7b2c>
    2990:	0c000009 	stceq	0, cr0, [r0], {9}
    2994:	0200001e 	andeq	r0, r0, #30, 0
    2998:	1b00001e 	blne	2a18 <__code_start__-0x55e8>
    299c:	000009be 			; <UNDEFINED> instruction: 0x000009be
    29a0:	00001e60 	andeq	r1, r0, r0, ror #28
    29a4:	00001e50 	andeq	r1, r0, r0, asr lr
    29a8:	0009b41b 	andeq	fp, r9, fp, lsl r4
    29ac:	001ee000 	andseq	lr, lr, r0
    29b0:	001ecc00 	andseq	ip, lr, r0, lsl #24
    29b4:	00601300 	rsbeq	r1, r0, r0, lsl #6
    29b8:	d61e0000 	ldrle	r0, [lr], -r0
    29bc:	72000009 	andvc	r0, r0, #9, 0
    29c0:	6200001f 	andvs	r0, r0, #31, 0
    29c4:	0000001f 	andeq	r0, r0, pc, lsl r0
    29c8:	094f1a00 	stmdbeq	pc, {r9, fp, ip}^	; <UNPREDICTABLE>
    29cc:	8df80000 	ldclhi	0, cr0, [r8]
    29d0:	00020000 	andeq	r0, r2, r0
    29d4:	000000a8 	andeq	r0, r0, r8, lsr #1
    29d8:	d8097c01 	stmdale	r9, {r0, sl, fp, ip, sp, lr}
    29dc:	1b00000b 	blne	2a10 <__code_start__-0x55f0>
    29e0:	00000980 	andeq	r0, r0, r0, lsl #19
    29e4:	00001fde 	ldrdeq	r1, [r0], -lr
    29e8:	00001fd6 	ldrdeq	r1, [r0], -r6
    29ec:	0009761b 	andeq	r7, r9, fp, lsl r6
    29f0:	00201d00 	eoreq	r1, r0, r0, lsl #26
    29f4:	00201500 	eoreq	r1, r0, r0, lsl #10
    29f8:	096c1b00 	stmdbeq	ip!, {r8, r9, fp, ip}^
    29fc:	205c0000 	subscs	r0, ip, r0
    2a00:	20580000 	subscs	r0, r8, r0
    2a04:	601b0000 	andsvs	r0, fp, r0
    2a08:	8c000009 	stchi	0, cr0, [r0], {9}
    2a0c:	7e000020 	cdpvc	0, 0, cr0, cr0, cr0, {1}
    2a10:	13000020 	movwne	r0, #32
    2a14:	000000a8 	andeq	r0, r0, r8, lsr #1
    2a18:	00098c1e 	andeq	r8, r9, lr, lsl ip
    2a1c:	0020f100 	eoreq	pc, r0, r0, lsl #2
    2a20:	0020eb00 	eoreq	lr, r0, r0, lsl #22
    2a24:	09981e00 	ldmibeq	r8, {r9, sl, fp, ip}
    2a28:	21230000 			; <UNDEFINED> instruction: 0x21230000
    2a2c:	211f0000 	tstcs	pc, r0
    2a30:	00000000 	andeq	r0, r0, r0
    2a34:	00091b2f 	andeq	r1, r9, pc, lsr #22
    2a38:	008eb000 	addeq	fp, lr, r0
    2a3c:	00006000 	andeq	r6, r0, r0
    2a40:	000bf700 	andeq	pc, fp, r0, lsl #14
    2a44:	091c1e00 	ldmdbeq	ip, {r9, sl, fp, ip}
    2a48:	21450000 	mrscs	r0, (UNDEF: 69)
    2a4c:	21410000 	mrscs	r0, (UNDEF: 65)
    2a50:	17000000 	strne	r0, [r0, -r0]
    2a54:	00008f84 	andeq	r8, r0, r4, lsl #31
    2a58:	00000c46 	andeq	r0, r0, r6, asr #24
    2a5c:	00000c30 	andeq	r0, r0, r0, lsr ip
    2a60:	05500118 	ldrbeq	r0, [r0, #-280]	; 0xfffffee8
    2a64:	00a26803 	adceq	r6, r2, r3, lsl #16
    2a68:	51011800 	tstpl	r1, r0, lsl #16
    2a6c:	a6bc0305 	ldrtge	r0, [ip], r5, lsl #6
    2a70:	01180000 	tsteq	r8, r0
    2a74:	fc030552 	stc2	5, cr0, [r3], {82}	; 0x52
    2a78:	180000a7 	stmdane	r0, {r0, r1, r2, r5, r7}
    2a7c:	08025301 	stmdaeq	r2, {r0, r8, r9, ip, lr}
    2a80:	7d021879 	stcvc	8, cr1, [r2, #-484]	; 0xfffffe1c
    2a84:	80030500 	andhi	r0, r3, r0, lsl #10
    2a88:	000000a5 	andeq	r0, r0, r5, lsr #1
    2a8c:	008f8819 	addeq	r8, pc, r9, lsl r8	; <UNPREDICTABLE>
    2a90:	000c7600 	andeq	r7, ip, r0, lsl #12
    2a94:	50300000 	eorspl	r0, r0, r0
    2a98:	50000006 	andpl	r0, r0, r6
    2a9c:	03000006 	movweq	r0, #6
    2aa0:	473005eb 	ldrmi	r0, [r0, -fp, ror #11]!
    2aa4:	47000005 	strmi	r0, [r0, -r5]
    2aa8:	03000005 	movweq	r0, #5
    2aac:	01300628 	teqeq	r0, r8, lsr #12
    2ab0:	01000006 	tsteq	r0, r6
    2ab4:	03000006 	movweq	r0, #6
    2ab8:	2f3007ee 	svccs	0x003007ee
    2abc:	2f000006 	svccs	0x00000006
    2ac0:	03000006 	movweq	r0, #6
    2ac4:	083005ea 	ldmdaeq	r0!, {r1, r3, r5, r6, r7, r8, sl}
    2ac8:	08000006 	stmdaeq	r0, {r1, r2}
    2acc:	03000006 	movweq	r0, #6
    2ad0:	3e3007ed 	cdpcc	7, 3, cr0, cr0, cr13, {7}
    2ad4:	3e000000 	cdpcc	0, 0, cr0, cr0, cr0, {0}
    2ad8:	03000000 	movweq	r0, #0
    2adc:	2f00066e 	svccs	0x0000066e
    2ae0:	04000001 	streq	r0, [r0], #-1
    2ae4:	000da900 	andeq	sl, sp, r0, lsl #18
    2ae8:	65010400 	strvs	r0, [r1, #-1024]	; 0xfffffc00
    2aec:	0c000004 	stceq	0, cr0, [r0], {4}
    2af0:	00000675 	andeq	r0, r0, r5, ror r6
    2af4:	0000051d 	andeq	r0, r0, sp, lsl r5
    2af8:	00009650 	andeq	r9, r0, r0, asr r6
    2afc:	0000002c 	andeq	r0, r0, ip, lsr #32
    2b00:	00001741 	andeq	r1, r0, r1, asr #14
    2b04:	69050402 	stmdbvs	r5, {r1, sl}
    2b08:	0300746e 	movweq	r7, #1134	; 0x46e
    2b0c:	009a0704 	addseq	r0, sl, r4, lsl #14
    2b10:	01030000 	mrseq	r0, (UNDEF: 3)
    2b14:	00006b06 	andeq	r6, r0, r6, lsl #22
    2b18:	05020300 	streq	r0, [r2, #-768]	; 0xfffffd00
    2b1c:	000000e7 	andeq	r0, r0, r7, ror #1
    2b20:	ac050403 	cfstrsge	mvf0, [r5], {3}
    2b24:	03000000 	movweq	r0, #0
    2b28:	00a70508 	adceq	r0, r7, r8, lsl #10
    2b2c:	01030000 	mrseq	r0, (UNDEF: 3)
    2b30:	00006908 	andeq	r6, r0, r8, lsl #18
    2b34:	07020300 	streq	r0, [r2, -r0, lsl #6]
    2b38:	0000004b 	andeq	r0, r0, fp, asr #32
    2b3c:	95070403 	strls	r0, [r7, #-1027]	; 0xfffffbfd
    2b40:	03000000 	movweq	r0, #0
    2b44:	00900708 	addseq	r0, r0, r8, lsl #14
    2b48:	25040000 	strcs	r0, [r4, #-0]
    2b4c:	7a000000 	bvc	2b54 <__code_start__-0x54ac>
    2b50:	05000000 	streq	r0, [r0, #-0]
    2b54:	00000025 	andeq	r0, r0, r5, lsr #32
    2b58:	00fb0600 	rscseq	r0, fp, r0, lsl #12
    2b5c:	1c020000 	stcne	0, cr0, [r2], {-0}
    2b60:	0000860e 	andeq	r8, r0, lr, lsl #12
    2b64:	6b040700 	blvs	10476c <__bss_end__+0xf9904>
    2b68:	04000000 	streq	r0, [r0], #-0
    2b6c:	00000025 	andeq	r0, r0, r5, lsr #32
    2b70:	0000009b 	muleq	r0, fp, r0
    2b74:	00009b05 	andeq	r9, r0, r5, lsl #22
    2b78:	04070000 	streq	r0, [r7], #-0
    2b7c:	000000a8 	andeq	r0, r0, r8, lsr #1
    2b80:	72080103 	andvc	r0, r8, #-1073741824	; 0xc0000000
    2b84:	08000000 	stmdaeq	r0, {}	; <UNPREDICTABLE>
    2b88:	000000a1 	andeq	r0, r0, r1, lsr #1
    2b8c:	00058506 	andeq	r8, r5, r6, lsl #10
    2b90:	0e210200 	cdpeq	2, 2, cr0, cr1, cr0, {0}
    2b94:	000000b9 	strheq	r0, [r0], -r9
    2b98:	008c0407 	addeq	r0, ip, r7, lsl #8
    2b9c:	3e090000 	cdpcc	0, 0, cr0, cr9, cr0, {0}
    2ba0:	01000000 	mrseq	r0, (UNDEF: 0)
    2ba4:	96500604 	ldrbls	r0, [r0], -r4, lsl #12
    2ba8:	002c0000 	eoreq	r0, ip, r0
    2bac:	9c010000 	stcls	0, cr0, [r1], {-0}
    2bb0:	0000010e 	andeq	r0, r0, lr, lsl #2
    2bb4:	0096640a 	addseq	r6, r6, sl, lsl #8
    2bb8:	0000e800 	andeq	lr, r0, r0, lsl #16
    2bbc:	50010b00 	andpl	r0, r1, r0, lsl #22
    2bc0:	a8200305 	stmdage	r0!, {r0, r2, r8, r9}
    2bc4:	0c000000 	stceq	0, cr0, [r0], {-0}
    2bc8:	00009668 	andeq	r9, r0, r8, ror #12
    2bcc:	0000010e 	andeq	r0, r0, lr, lsl #2
    2bd0:	0096700d 	addseq	r7, r6, sp
    2bd4:	00011a00 	andeq	r1, r1, r0, lsl #20
    2bd8:	00010400 	andeq	r0, r1, r0, lsl #8
    2bdc:	50010b00 	andpl	r0, r1, r0, lsl #22
    2be0:	0c003a01 			; <UNDEFINED> instruction: 0x0c003a01
    2be4:	00009674 	andeq	r9, r0, r4, ror r6
    2be8:	00000126 	andeq	r0, r0, r6, lsr #2
    2bec:	06900e00 	ldreq	r0, [r0], r0, lsl #28
    2bf0:	06900000 	ldreq	r0, [r0], r0
    2bf4:	4d020000 	stcmi	0, cr0, [r2, #-0]
    2bf8:	066c0e06 	strbteq	r0, [ip], -r6, lsl #28
    2bfc:	066c0000 	strbteq	r0, [ip], -r0
    2c00:	58020000 	stmdapl	r2, {}	; <UNPREDICTABLE>
    2c04:	06610e06 	strbteq	r0, [r1], -r6, lsl #28
    2c08:	06610000 	strbteq	r0, [r1], -r0
    2c0c:	6b020000 	blvs	82c14 <__bss_end__+0x77dac>
    2c10:	01900006 	orrseq	r0, r0, r6
    2c14:	00040000 	andeq	r0, r4, r0
    2c18:	00000e69 	andeq	r0, r0, r9, ror #28
    2c1c:	04650104 	strbteq	r0, [r5], #-260	; 0xfffffefc
    2c20:	c60c0000 	strgt	r0, [ip], -r0
    2c24:	1d000006 	stcne	0, cr0, [r0, #-24]	; 0xffffffe8
    2c28:	7c000005 	stcvc	0, cr0, [r0], {5}
    2c2c:	f8000096 			; <UNDEFINED> instruction: 0xf8000096
    2c30:	cc000000 	stcgt	0, cr0, [r0], {-0}
    2c34:	02000017 	andeq	r0, r0, #23, 0
    2c38:	6e690504 	cdpvs	5, 6, cr0, cr9, cr4, {0}
    2c3c:	04030074 	streq	r0, [r3], #-116	; 0xffffff8c
    2c40:	00009a07 	andeq	r9, r0, r7, lsl #20
    2c44:	06010300 	streq	r0, [r1], -r0, lsl #6
    2c48:	0000006b 	andeq	r0, r0, fp, rrx
    2c4c:	e7050203 	str	r0, [r5, -r3, lsl #4]
    2c50:	03000000 	movweq	r0, #0
    2c54:	00ac0504 	adceq	r0, ip, r4, lsl #10
    2c58:	08030000 	stmdaeq	r3, {}	; <UNPREDICTABLE>
    2c5c:	0000a705 	andeq	sl, r0, r5, lsl #14
    2c60:	08010300 	stmdaeq	r1, {r8, r9}
    2c64:	00000069 	andeq	r0, r0, r9, rrx
    2c68:	4b070203 	blmi	1c347c <__bss_end__+0x1b8614>
    2c6c:	03000000 	movweq	r0, #0
    2c70:	00950704 	addseq	r0, r5, r4, lsl #14
    2c74:	08030000 	stmdaeq	r3, {}	; <UNPREDICTABLE>
    2c78:	00009007 	andeq	r9, r0, r7
    2c7c:	00250400 	eoreq	r0, r5, r0, lsl #8
    2c80:	007a0000 	rsbseq	r0, sl, r0
    2c84:	25050000 	strcs	r0, [r5, #-0]
    2c88:	00000000 	andeq	r0, r0, r0
    2c8c:	0000fb06 	andeq	pc, r0, r6, lsl #22
    2c90:	0e1c0200 	cdpeq	2, 1, cr0, cr12, cr0, {0}
    2c94:	00000086 	andeq	r0, r0, r6, lsl #1
    2c98:	006b0407 	rsbeq	r0, fp, r7, lsl #8
    2c9c:	25040000 	strcs	r0, [r4, #-0]
    2ca0:	9b000000 	blls	2ca8 <__code_start__-0x5358>
    2ca4:	05000000 	streq	r0, [r0, #-0]
    2ca8:	0000009b 	muleq	r0, fp, r0
    2cac:	a8040700 	stmdage	r4, {r8, r9, sl}
    2cb0:	03000000 	movweq	r0, #0
    2cb4:	00720801 	rsbseq	r0, r2, r1, lsl #16
    2cb8:	a1080000 	mrsge	r0, (UNDEF: 8)
    2cbc:	06000000 	streq	r0, [r0], -r0
    2cc0:	00000585 	andeq	r0, r0, r5, lsl #11
    2cc4:	b90e2102 	stmdblt	lr, {r1, r8, sp}
    2cc8:	07000000 	streq	r0, [r0, -r0]
    2ccc:	00008c04 	andeq	r8, r0, r4, lsl #24
    2cd0:	069e0900 	ldreq	r0, [lr], r0, lsl #18
    2cd4:	04010000 	streq	r0, [r1], #-0
    2cd8:	00967c06 	addseq	r7, r6, r6, lsl #24
    2cdc:	0000f800 	andeq	pc, r0, r0, lsl #16
    2ce0:	5b9c0100 	blpl	fe7030e8 <__bss_end__+0xfe6f8280>
    2ce4:	06000001 	streq	r0, [r0], -r1
    2ce8:	00000338 	andeq	r0, r0, r8, lsr r3
    2cec:	25100501 	ldrcs	r0, [r0, #-1281]	; 0xfffffaff
    2cf0:	06000000 	streq	r0, [r0], -r0
    2cf4:	000003ea 	andeq	r0, r0, sl, ror #7
    2cf8:	251f0501 	ldrcs	r0, [pc, #-1281]	; 27ff <__code_start__-0x5801>
    2cfc:	0a000000 	beq	2d04 <__code_start__-0x52fc>
    2d00:	0000001d 	andeq	r0, r0, sp, lsl r0
    2d04:	0b070601 	bleq	1c4510 <__bss_end__+0x1b96a8>
    2d08:	00737362 	rsbseq	r7, r3, r2, ror #6
    2d0c:	5b0a0a01 	blpl	285518 <__bss_end__+0x27a6b0>
    2d10:	7d000001 	stcvc	0, cr0, [r0, #-4]
    2d14:	65000021 	strvs	r0, [r0, #-33]	; 0xffffffdf
    2d18:	0c000021 	stceq	0, cr0, [r0], {33}	; 0x21
    2d1c:	000006a6 	andeq	r0, r0, r6, lsr #13
    2d20:	5b0a0b01 	blpl	28592c <__bss_end__+0x27aac4>
    2d24:	0d000001 	stceq	0, cr0, [r0, #-4]
    2d28:	00009754 	andeq	r9, r0, r4, asr r7
    2d2c:	00000008 	andeq	r0, r0, r8
    2d30:	00000136 	andeq	r0, r0, r6, lsr r1
    2d34:	006e690b 	rsbeq	r6, lr, fp, lsl #18
    2d38:	2c051401 	cfstrscs	mvf1, [r5], {1}
    2d3c:	17000000 	strne	r0, [r0, -r0]
    2d40:	15000022 	strne	r0, [r0, #-34]	; 0xffffffde
    2d44:	00000022 	andeq	r0, r0, r2, lsr #32
    2d48:	0096840e 	addseq	r8, r6, lr, lsl #8
    2d4c:	00016100 	andeq	r6, r1, r0, lsl #2
    2d50:	97540e00 	ldrbls	r0, [r4, -r0, lsl #28]
    2d54:	016e0000 	cmneq	lr, r0
    2d58:	600e0000 	andvs	r0, lr, r0
    2d5c:	7a000097 	bvc	2fc0 <__code_start__-0x5040>
    2d60:	0e000001 	cdpeq	0, 0, cr0, cr0, cr1, {0}
    2d64:	00009764 	andeq	r9, r0, r4, ror #14
    2d68:	00000187 	andeq	r0, r0, r7, lsl #3
    2d6c:	25040700 	strcs	r0, [r4, #-1792]	; 0xfffff900
    2d70:	0f000000 	svceq	0x00000000
    2d74:	000006b8 			; <UNDEFINED> instruction: 0x000006b8
    2d78:	000006b8 			; <UNDEFINED> instruction: 0x000006b8
    2d7c:	06013102 	streq	r3, [r1], -r2, lsl #2
    2d80:	0006ae10 	andeq	sl, r6, r0, lsl lr
    2d84:	0006ae00 	andeq	sl, r6, r0, lsl #28
    2d88:	063b0200 	ldrteq	r0, [fp], -r0, lsl #4
    2d8c:	00001d0f 	andeq	r1, r0, pc, lsl #26
    2d90:	00001d00 	andeq	r1, r0, r0, lsl #26
    2d94:	01050200 	mrseq	r0, SP_usr
    2d98:	003e1006 	eorseq	r1, lr, r6
    2d9c:	003e0000 	eorseq	r0, lr, r0
    2da0:	6e020000 	cdpvs	0, 0, cr0, cr2, cr0, {0}
    2da4:	00ce0006 	sbceq	r0, lr, r6
    2da8:	00040000 	andeq	r0, r4, r0
    2dac:	00000f54 	andeq	r0, r0, r4, asr pc
    2db0:	04650104 	strbteq	r0, [r5], #-260	; 0xfffffefc
    2db4:	db0c0000 	blle	302dbc <__bss_end__+0x2f7f54>
    2db8:	1d000006 	stcne	0, cr0, [r0, #-24]	; 0xffffffe8
    2dbc:	74000005 	strvc	r0, [r0], #-5
    2dc0:	04000097 	streq	r0, [r0], #-151	; 0xffffff69
    2dc4:	e2000000 	and	r0, r0, #0, 0
    2dc8:	02000018 	andeq	r0, r0, #24, 0
    2dcc:	6e690504 	cdpvs	5, 6, cr0, cr9, cr4, {0}
    2dd0:	04030074 	streq	r0, [r3], #-116	; 0xffffff8c
    2dd4:	00009a07 	andeq	r9, r0, r7, lsl #20
    2dd8:	06010300 	streq	r0, [r1], -r0, lsl #6
    2ddc:	0000006b 	andeq	r0, r0, fp, rrx
    2de0:	e7050203 	str	r0, [r5, -r3, lsl #4]
    2de4:	03000000 	movweq	r0, #0
    2de8:	00ac0504 	adceq	r0, ip, r4, lsl #10
    2dec:	08030000 	stmdaeq	r3, {}	; <UNPREDICTABLE>
    2df0:	0000a705 	andeq	sl, r0, r5, lsl #14
    2df4:	08010300 	stmdaeq	r1, {r8, r9}
    2df8:	00000069 	andeq	r0, r0, r9, rrx
    2dfc:	4b070203 	blmi	1c3610 <__bss_end__+0x1b87a8>
    2e00:	03000000 	movweq	r0, #0
    2e04:	00950704 	addseq	r0, r5, r4, lsl #14
    2e08:	08030000 	stmdaeq	r3, {}	; <UNPREDICTABLE>
    2e0c:	00009007 	andeq	r9, r0, r7
    2e10:	00250400 	eoreq	r0, r5, r0, lsl #8
    2e14:	007a0000 	rsbseq	r0, sl, r0
    2e18:	25050000 	strcs	r0, [r5, #-0]
    2e1c:	00000000 	andeq	r0, r0, r0
    2e20:	0000fb06 	andeq	pc, r0, r6, lsl #22
    2e24:	0e1c0200 	cdpeq	2, 1, cr0, cr12, cr0, {0}
    2e28:	00000086 	andeq	r0, r0, r6, lsl #1
    2e2c:	006b0407 	rsbeq	r0, fp, r7, lsl #8
    2e30:	25040000 	strcs	r0, [r4, #-0]
    2e34:	9b000000 	blls	2e3c <__code_start__-0x51c4>
    2e38:	05000000 	streq	r0, [r0, #-0]
    2e3c:	0000009b 	muleq	r0, fp, r0
    2e40:	a8040700 	stmdage	r4, {r8, r9, sl}
    2e44:	03000000 	movweq	r0, #0
    2e48:	00720801 	rsbseq	r0, r2, r1, lsl #16
    2e4c:	a1080000 	mrsge	r0, (UNDEF: 8)
    2e50:	06000000 	streq	r0, [r0], -r0
    2e54:	00000585 	andeq	r0, r0, r5, lsl #11
    2e58:	b90e2102 	stmdblt	lr, {r1, r8, sp}
    2e5c:	07000000 	streq	r0, [r0, -r0]
    2e60:	00008c04 	andeq	r8, r0, r4, lsl #24
    2e64:	06b80900 	ldrteq	r0, [r8], r0, lsl #18
    2e68:	04010000 	streq	r0, [r1], #-0
    2e6c:	00977406 	addseq	r7, r7, r6, lsl #8
    2e70:	00000400 	andeq	r0, r0, r0, lsl #8
    2e74:	009c0100 	addseq	r0, ip, r0, lsl #2
    2e78:	0000027d 	andeq	r0, r0, sp, ror r2
    2e7c:	0fcd0004 	svceq	0x00cd0004
    2e80:	01040000 	mrseq	r0, (UNDEF: 4)
    2e84:	00000465 	andeq	r0, r0, r5, ror #8
    2e88:	0007230c 	andeq	r2, r7, ip, lsl #6
    2e8c:	00051d00 	andeq	r1, r5, r0, lsl #26
    2e90:	00025000 	andeq	r5, r2, r0
    2e94:	00000000 	andeq	r0, r0, r0
    2e98:	00196300 	andseq	r6, r9, r0, lsl #6
    2e9c:	05040200 	streq	r0, [r4, #-512]	; 0xfffffe00
    2ea0:	00746e69 	rsbseq	r6, r4, r9, ror #28
    2ea4:	00002503 	andeq	r2, r0, r3, lsl #10
    2ea8:	07040400 	streq	r0, [r4, -r0, lsl #8]
    2eac:	0000009a 	muleq	r0, sl, r0
    2eb0:	6b060104 	blvs	1832c8 <__bss_end__+0x178460>
    2eb4:	04000000 	streq	r0, [r0], #-0
    2eb8:	00e70502 	rsceq	r0, r7, r2, lsl #10
    2ebc:	04040000 	streq	r0, [r4], #-0
    2ec0:	0000ac05 	andeq	sl, r0, r5, lsl #24
    2ec4:	05080400 	streq	r0, [r8, #-1024]	; 0xfffffc00
    2ec8:	000000a7 	andeq	r0, r0, r7, lsr #1
    2ecc:	69080104 	stmdbvs	r8, {r2, r8}
    2ed0:	04000000 	streq	r0, [r0], #-0
    2ed4:	004b0702 	subeq	r0, fp, r2, lsl #14
    2ed8:	04040000 	streq	r0, [r4], #-0
    2edc:	00009507 	andeq	r9, r0, r7, lsl #10
    2ee0:	07080400 	streq	r0, [r8, -r0, lsl #8]
    2ee4:	00000090 	muleq	r0, r0, r0
    2ee8:	00002505 	andeq	r2, r0, r5, lsl #10
    2eec:	00007f00 	andeq	r7, r0, r0, lsl #30
    2ef0:	00250600 	eoreq	r0, r5, r0, lsl #12
    2ef4:	07000000 	streq	r0, [r0, -r0]
    2ef8:	000000fb 	strdeq	r0, [r0], -fp
    2efc:	8b0e1c02 	blhi	389f0c <__bss_end__+0x37f0a4>
    2f00:	08000000 	stmdaeq	r0, {}	; <UNPREDICTABLE>
    2f04:	00007004 	andeq	r7, r0, r4
    2f08:	00250500 	eoreq	r0, r5, r0, lsl #10
    2f0c:	00a00000 	adceq	r0, r0, r0
    2f10:	a0060000 	andge	r0, r6, r0
    2f14:	00000000 	andeq	r0, r0, r0
    2f18:	00ad0408 	adceq	r0, sp, r8, lsl #8
    2f1c:	01040000 	mrseq	r0, (UNDEF: 4)
    2f20:	00007208 	andeq	r7, r0, r8, lsl #4
    2f24:	00a60300 	adceq	r0, r6, r0, lsl #6
    2f28:	85070000 	strhi	r0, [r7, #-0]
    2f2c:	02000005 	andeq	r0, r0, #5, 0
    2f30:	00be0e21 	adcseq	r0, lr, r1, lsr #28
    2f34:	04080000 	streq	r0, [r8], #-0
    2f38:	00000091 	muleq	r0, r1, r0
    2f3c:	00074709 	andeq	r4, r7, r9, lsl #14
    2f40:	110d0100 	mrsne	r0, (UNDEF: 29)
    2f44:	00000031 	andeq	r0, r0, r1, lsr r0
    2f48:	0006610a 	andeq	r6, r6, sl, lsl #2
    2f4c:	061f0100 	ldreq	r0, [pc], -r0, lsl #2
    2f50:	000097a4 	andeq	r9, r0, r4, lsr #15
    2f54:	00000060 	andeq	r0, r0, r0, rrx
    2f58:	01d59c01 	bicseq	r9, r5, r1, lsl #24
    2f5c:	6b0b0000 	blvs	2c2f64 <__bss_end__+0x2b80fc>
    2f60:	01000007 	tsteq	r0, r7
    2f64:	002c0f2c 	eoreq	r0, ip, ip, lsr #30
    2f68:	001c0000 	andseq	r0, ip, r0
    2f6c:	060b2010 			; <UNDEFINED> instruction: 0x060b2010
    2f70:	01000007 	tsteq	r0, r7
    2f74:	002c0f2d 	eoreq	r0, ip, sp, lsr #30
    2f78:	00240000 	eoreq	r0, r4, r0
    2f7c:	380b2010 	stmdacc	fp, {r4, sp}
    2f80:	01000007 	tsteq	r0, r7
    2f84:	002c0f2e 	eoreq	r0, ip, lr, lsr #30
    2f88:	00000000 	andeq	r0, r0, r0
    2f8c:	520c5a00 	andpl	r5, ip, #0, 20
    2f90:	01000007 	tsteq	r0, r7
    2f94:	002c0f2f 	eoreq	r0, ip, pc, lsr #30
    2f98:	0d200000 	stceq	0, cr0, [r0, #-0]
    2f9c:	000001ef 	andeq	r0, r0, pc, ror #3
    2fa0:	000097a4 	andeq	r9, r0, r4, lsr #15
    2fa4:	00023802 	andeq	r3, r2, r2, lsl #16
    2fa8:	08200100 	stmdaeq	r0!, {r8}
    2fac:	0000014c 	andeq	r0, r0, ip, asr #2
    2fb0:	0002380e 	andeq	r3, r2, lr, lsl #16
    2fb4:	02000f00 	andeq	r0, r0, #0, 30
    2fb8:	222f0000 	eorcs	r0, pc, #0, 0
    2fbc:	222b0000 	eorcs	r0, fp, #0, 0
    2fc0:	00000000 	andeq	r0, r0, r0
    2fc4:	0001d510 	andeq	sp, r1, r0, lsl r5
    2fc8:	0097b800 	addseq	fp, r7, r0, lsl #16
    2fcc:	97b80100 	ldrls	r0, [r8, r0, lsl #2]!
    2fd0:	00100000 	andseq	r0, r0, r0
    2fd4:	21010000 	mrscs	r0, (UNDEF: 1)
    2fd8:	00017309 	andeq	r7, r1, r9, lsl #6
    2fdc:	01e20f00 	mvneq	r0, r0, lsl #30
    2fe0:	22560000 	subscs	r0, r6, #0, 0
    2fe4:	224e0000 	subcs	r0, lr, #0, 0
    2fe8:	11000000 	mrsne	r0, (UNDEF: 0)
    2fec:	000097cc 	andeq	r9, r0, ip, asr #15
    2ff0:	0000024f 	andeq	r0, r0, pc, asr #4
    2ff4:	0097d011 	addseq	sp, r7, r1, lsl r0
    2ff8:	00025c00 	andeq	r5, r2, r0, lsl #24
    2ffc:	97d81200 	ldrbls	r1, [r8, r0, lsl #4]
    3000:	02680000 	rsbeq	r0, r8, #0, 0
    3004:	01980000 	orrseq	r0, r8, r0
    3008:	01130000 	tsteq	r3, r0
    300c:	003a0150 	eorseq	r0, sl, r0, asr r1
    3010:	0097e412 	addseq	lr, r7, r2, lsl r4
    3014:	00027400 	andeq	r7, r2, r0, lsl #8
    3018:	0001b800 	andeq	fp, r1, r0, lsl #16
    301c:	50011300 	andpl	r1, r1, r0, lsl #6
    3020:	00240c05 	eoreq	r0, r4, r5, lsl #24
    3024:	01132010 	tsteq	r3, r0, lsl r0
    3028:	010c0551 	tsteq	ip, r1, asr r5
    302c:	005a0000 	subseq	r0, sl, r0
    3030:	0097f014 	addseq	pc, r7, r4, lsl r0	; <UNPREDICTABLE>
    3034:	00027400 	andeq	r7, r2, r0, lsl #8
    3038:	50011300 	andpl	r1, r1, r0, lsl #6
    303c:	001c0c05 	andseq	r0, ip, r5, lsl #24
    3040:	01132010 	tsteq	r3, r0, lsl r0
    3044:	200c0551 	andcs	r0, ip, r1, asr r5
    3048:	005a0000 	subseq	r0, sl, r0
    304c:	07141500 	ldreq	r1, [r4, -r0, lsl #10]
    3050:	17010000 	strne	r0, [r1, -r0]
    3054:	01ef0106 	mvneq	r0, r6, lsl #2
    3058:	73090000 	movwvc	r0, #36864	; 0x9000
    305c:	01000007 	tsteq	r0, r7
    3060:	00310e18 	eorseq	r0, r1, r8, lsl lr
    3064:	16000000 	strne	r0, [r0], -r0
    3068:	00000744 	andeq	r0, r0, r4, asr #14
    306c:	25050e01 	strcs	r0, [r5, #-3585]	; 0xfffff1ff
    3070:	01000000 	mrseq	r0, (UNDEF: 0)
    3074:	0000020d 	andeq	r0, r0, sp, lsl #4
    3078:	00077309 	andeq	r7, r7, r9, lsl #6
    307c:	0e0f0100 	adfeqe	f0, f7, f0
    3080:	00000031 	andeq	r0, r0, r1, lsr r0
    3084:	01ef1700 	mvneq	r1, r0, lsl #14
    3088:	97780000 	ldrbls	r0, [r8, -r0]!
    308c:	00180000 	andseq	r0, r8, r0
    3090:	9c010000 	stcls	0, cr0, [r1], {-0}
    3094:	0000022e 	andeq	r0, r0, lr, lsr #4
    3098:	0002000f 	andeq	r0, r2, pc
    309c:	00229300 	eoreq	r9, r2, r0, lsl #6
    30a0:	00228f00 	eoreq	r8, r2, r0, lsl #30
    30a4:	d5170000 	ldrle	r0, [r7, #-0]
    30a8:	90000001 	andls	r0, r0, r1
    30ac:	14000097 	strne	r0, [r0], #-151	; 0xffffff69
    30b0:	01000000 	mrseq	r0, (UNDEF: 0)
    30b4:	00024f9c 	muleq	r2, ip, pc	; <UNPREDICTABLE>
    30b8:	01e20f00 	mvneq	r0, r0, lsl #30
    30bc:	22ba0000 	adcscs	r0, sl, #0, 0
    30c0:	22b20000 	adcscs	r0, r2, #0, 0
    30c4:	18000000 	stmdane	r0, {}	; <UNPREDICTABLE>
    30c8:	000006f7 	strdeq	r0, [r0], -r7
    30cc:	000006f7 	strdeq	r0, [r0], -r7
    30d0:	06013602 	streq	r3, [r1], -r2, lsl #12
    30d4:	00069019 	andeq	r9, r6, r9, lsl r0
    30d8:	00069000 	andeq	r9, r6, r0
    30dc:	064d0200 	strbeq	r0, [sp], -r0, lsl #4
    30e0:	00066c19 	andeq	r6, r6, r9, lsl ip
    30e4:	00066c00 	andeq	r6, r6, r0, lsl #24
    30e8:	06580200 	ldrbeq	r0, [r8], -r0, lsl #4
    30ec:	00070e19 	andeq	r0, r7, r9, lsl lr
    30f0:	00070e00 	andeq	r0, r7, r0, lsl #28
    30f4:	06ad0200 	strteq	r0, [sp], r0, lsl #4
    30f8:	00053f00 	andeq	r3, r5, r0, lsl #30
    30fc:	50000400 	andpl	r0, r0, r0, lsl #8
    3100:	04000011 	streq	r0, [r0], #-17	; 0xffffffef
    3104:	00046501 	andeq	r6, r4, r1, lsl #10
    3108:	078e0c00 	streq	r0, [lr, r0, lsl #24]
    310c:	051d0000 	ldreq	r0, [sp, #-0]
    3110:	98040000 	stmdals	r4, {}	; <UNPREDICTABLE>
    3114:	011c0000 	tsteq	ip, r0
    3118:	1a7b0000 	bne	1ec3120 <__bss_end__+0x1eb82b8>
    311c:	04020000 	streq	r0, [r2], #-0
    3120:	746e6905 	strbtvc	r6, [lr], #-2309	; 0xfffff6fb
    3124:	07040300 	streq	r0, [r4, -r0, lsl #6]
    3128:	0000009a 	muleq	r0, sl, r0
    312c:	6b060103 	blvs	183540 <__bss_end__+0x1786d8>
    3130:	03000000 	movweq	r0, #0
    3134:	00e70502 	rsceq	r0, r7, r2, lsl #10
    3138:	04030000 	streq	r0, [r3], #-0
    313c:	0000ac05 	andeq	sl, r0, r5, lsl #24
    3140:	05080300 	streq	r0, [r8, #-768]	; 0xfffffd00
    3144:	000000a7 	andeq	r0, r0, r7, lsr #1
    3148:	69080103 	stmdbvs	r8, {r0, r1, r8}
    314c:	03000000 	movweq	r0, #0
    3150:	004b0702 	subeq	r0, fp, r2, lsl #14
    3154:	04030000 	streq	r0, [r3], #-0
    3158:	00009507 	andeq	r9, r0, r7, lsl #10
    315c:	07080300 	streq	r0, [r8, -r0, lsl #6]
    3160:	00000090 	muleq	r0, r0, r0
    3164:	00002504 	andeq	r2, r0, r4, lsl #10
    3168:	00007a00 	andeq	r7, r0, r0, lsl #20
    316c:	00250500 	eoreq	r0, r5, r0, lsl #10
    3170:	06000000 	streq	r0, [r0], -r0
    3174:	000000fb 	strdeq	r0, [r0], -fp
    3178:	860e1c02 	strhi	r1, [lr], -r2, lsl #24
    317c:	07000000 	streq	r0, [r0, -r0]
    3180:	00006b04 	andeq	r6, r0, r4, lsl #22
    3184:	00250400 	eoreq	r0, r5, r0, lsl #8
    3188:	009b0000 	addseq	r0, fp, r0
    318c:	9b050000 	blls	143194 <__bss_end__+0x13832c>
    3190:	00000000 	andeq	r0, r0, r0
    3194:	00a80407 	adceq	r0, r8, r7, lsl #8
    3198:	01030000 	mrseq	r0, (UNDEF: 3)
    319c:	00007208 	andeq	r7, r0, r8, lsl #4
    31a0:	00a10800 	adceq	r0, r1, r0, lsl #16
    31a4:	85060000 	strhi	r0, [r6, #-0]
    31a8:	02000005 	andeq	r0, r0, #5, 0
    31ac:	00b90e21 	adcseq	r0, r9, r1, lsr #28
    31b0:	04070000 	streq	r0, [r7], #-0
    31b4:	0000008c 	andeq	r0, r0, ip, lsl #1
    31b8:	00078409 	andeq	r8, r7, r9, lsl #8
    31bc:	061e0100 	ldreq	r0, [lr], -r0, lsl #2
    31c0:	000098cc 	andeq	r9, r0, ip, asr #17
    31c4:	00000054 	andeq	r0, r0, r4, asr r0
    31c8:	020b9c01 	andeq	r9, fp, #256	; 0x100
    31cc:	730a0000 	movwvc	r0, #40960	; 0xa000
    31d0:	01006365 	tsteq	r0, r5, ror #6
    31d4:	002c191e 	eoreq	r1, ip, lr, lsl r9
    31d8:	22f70000 	rscscs	r0, r7, #0, 0
    31dc:	22f30000 	rscscs	r0, r3, #0, 0
    31e0:	0b0b0000 	bleq	2c31e8 <__bss_end__+0x2b8380>
    31e4:	cc000002 	stcgt	0, cr0, [r0], {2}
    31e8:	02000098 	andeq	r0, r0, #152, 0	; 0x98
    31ec:	00000318 	andeq	r0, r0, r8, lsl r3
    31f0:	0c051f01 	stceq	15, cr1, [r5], {1}
    31f4:	00000218 	andeq	r0, r0, r8, lsl r2
    31f8:	0000231c 	andeq	r2, r0, ip, lsl r3
    31fc:	00002318 	andeq	r2, r0, r8, lsl r3
    3200:	0002240d 	andeq	r2, r2, sp, lsl #8
    3204:	0098e000 	addseq	lr, r8, r0
    3208:	98e00000 	stmials	r0!, {}^	; <UNPREDICTABLE>
    320c:	00400000 	subeq	r0, r0, r0
    3210:	1c010000 	stcne	0, cr0, [r1], {-0}
    3214:	02310c05 	eorseq	r0, r1, #1280	; 0x500
    3218:	23490000 	movtcs	r0, #36864	; 0x9000
    321c:	23470000 	movtcs	r0, #28672	; 0x7000
    3220:	3c0e0000 	stccc	0, cr0, [lr], {-0}
    3224:	5e000002 	cdppl	0, 0, cr0, cr0, cr2, {0}
    3228:	5c000023 	stcpl	0, cr0, [r0], {35}	; 0x23
    322c:	0f000023 	svceq	0x00000023
    3230:	00000255 	andeq	r0, r0, r5, asr r2
    3234:	000098e0 	andeq	r9, r0, r0, ror #17
    3238:	0098e002 	addseq	lr, r8, r2
    323c:	00001400 	andeq	r1, r0, r0, lsl #8
    3240:	13130100 	tstne	r3, #0
    3244:	0000019c 	muleq	r0, ip, r1
    3248:	0002660e 	andeq	r6, r2, lr, lsl #12
    324c:	00237500 	eoreq	r7, r3, r0, lsl #10
    3250:	00237100 	eoreq	r7, r3, r0, lsl #2
    3254:	02710f00 	rsbseq	r0, r1, #0, 30
    3258:	98e40000 	stmials	r4!, {}^	; <UNPREDICTABLE>
    325c:	e4010000 	str	r0, [r1], #-0
    3260:	0c000098 	stceq	0, cr0, [r0], {152}	; 0x98
    3264:	01000000 	mrseq	r0, (UNDEF: 0)
    3268:	0189120d 	orreq	r1, r9, sp, lsl #4
    326c:	ec100000 	ldc	0, cr0, [r0], {-0}
    3270:	2a000098 	bcs	34d8 <__code_start__-0x4b28>
    3274:	11000005 	tstne	r0, r5
    3278:	0c055001 	stceq	0, cr5, [r5], {1}
    327c:	20003004 	andcs	r3, r0, r4
    3280:	e4120000 	ldr	r0, [r2], #-0
    3284:	36000098 			; <UNDEFINED> instruction: 0x36000098
    3288:	12000005 	andne	r0, r0, #5, 0
    328c:	000098f4 	strdeq	r9, [r0], -r4
    3290:	00000536 	andeq	r0, r0, r6, lsr r5
    3294:	02471300 	subeq	r1, r7, #0, 6
    3298:	03300000 	teqeq	r0, #0, 0
    329c:	48140000 	ldmdami	r4, {}	; <UNPREDICTABLE>
    32a0:	0b000002 	bleq	32b0 <__code_start__-0x4d50>
    32a4:	00000255 	andeq	r0, r0, r5, asr r2
    32a8:	000098f8 	strdeq	r9, [r0], -r8
    32ac:	00034802 	andeq	r4, r3, r2, lsl #16
    32b0:	17150100 	ldrne	r0, [r5, -r0, lsl #2]
    32b4:	00034815 	andeq	r4, r3, r5, lsl r8
    32b8:	02660e00 	rsbeq	r0, r6, #0, 28
    32bc:	23950000 	orrscs	r0, r5, #0, 0
    32c0:	23930000 	orrscs	r0, r3, #0, 0
    32c4:	71160000 	tstvc	r6, r0
    32c8:	fc000002 	stc2	0, cr0, [r0], {2}
    32cc:	01000098 	swpeq	r0, r8, [r0]	; <UNPREDICTABLE>
    32d0:	00000368 	andeq	r0, r0, r8, ror #6
    32d4:	f3120d01 	vpadd.f16	d0, d2, d1
    32d8:	10000001 	andne	r0, r0, r1
    32dc:	00009904 	andeq	r9, r0, r4, lsl #18
    32e0:	0000052a 	andeq	r0, r0, sl, lsr #10
    32e4:	02500111 	subseq	r0, r0, #1073741828	; 0x40000004
    32e8:	00000077 	andeq	r0, r0, r7, ror r0
    32ec:	0098fc12 	addseq	pc, r8, r2, lsl ip	; <UNPREDICTABLE>
    32f0:	00053600 	andeq	r3, r5, r0, lsl #12
    32f4:	99101200 	ldmdbls	r0, {r9, ip}
    32f8:	05360000 	ldreq	r0, [r6, #-0]!
	...
    3304:	00066c17 	andeq	r6, r6, r7, lsl ip
    3308:	061b0100 	ldreq	r0, [fp], -r0, lsl #2
    330c:	00022401 	andeq	r2, r2, r1, lsl #8
    3310:	736d1800 	cmnvc	sp, #0, 16
    3314:	181b0100 	ldmdane	fp, {r8}
    3318:	0000002c 	andeq	r0, r0, ip, lsr #32
    331c:	07b71700 	ldreq	r1, [r7, r0, lsl #14]!
    3320:	12010000 	andne	r0, r1, #0, 0
    3324:	02550106 	subseq	r0, r5, #-2147483647	; 0x80000001
    3328:	75180000 	ldrvc	r0, [r8, #-0]
    332c:	12010073 	andne	r0, r1, #115, 0	; 0x73
    3330:	00002c18 	andeq	r2, r0, r8, lsl ip
    3334:	62721900 	rsbsvs	r1, r2, #0, 18
    3338:	0e130100 	mufeqs	f0, f3, f0
    333c:	0000002c 	andeq	r0, r0, ip, lsr #32
    3340:	6172191a 	cmnvs	r2, sl, lsl r9
    3344:	12150100 	andsne	r0, r5, #0
    3348:	0000002c 	andeq	r0, r0, ip, lsr #32
    334c:	a81b0000 	ldmdage	fp, {}	; <UNPREDICTABLE>
    3350:	01000007 	tsteq	r0, r7
    3354:	002c0a09 	eoreq	r0, ip, r9, lsl #20
    3358:	71010000 	mrsvc	r0, (UNDEF: 1)
    335c:	19000002 	stmdbne	r0, {r1}
    3360:	0d010075 	stceq	0, cr0, [r1, #-468]	; 0xfffffe2c
    3364:	00002c0e 	andeq	r2, r0, lr, lsl #24
    3368:	c01c0000 	andsgt	r0, ip, r0
    336c:	01000007 	tsteq	r0, r7
    3370:	002c0a04 	eoreq	r0, ip, r4, lsl #20
    3374:	1d010000 	stcne	0, cr0, [r1, #-0]
    3378:	00000271 	andeq	r0, r0, r1, ror r2
    337c:	00009804 	andeq	r9, r0, r4, lsl #16
    3380:	0000000c 	andeq	r0, r0, ip
    3384:	02a59c01 	adceq	r9, r5, #256	; 0x100
    3388:	0c1e0000 	ldceq	0, cr0, [lr], {-0}
    338c:	2a000098 	bcs	35f4 <__code_start__-0x4a0c>
    3390:	11000005 	tstne	r0, r5
    3394:	0c055001 	stceq	0, cr5, [r5], {1}
    3398:	20003004 	andcs	r3, r0, r4
    339c:	551d0000 	ldrpl	r0, [sp, #-0]
    33a0:	10000002 	andne	r0, r0, r2
    33a4:	24000098 	strcs	r0, [r0], #-152	; 0xffffff68
    33a8:	01000000 	mrseq	r0, (UNDEF: 0)
    33ac:	0003059c 	muleq	r3, ip, r5
    33b0:	02660e00 	rsbeq	r0, r6, #0, 28
    33b4:	23ac0000 			; <UNDEFINED> instruction: 0x23ac0000
    33b8:	23a80000 			; <UNDEFINED> instruction: 0x23a80000
    33bc:	710f0000 	mrsvc	r0, CPSR
    33c0:	18000002 	stmdane	r0, {r1}
    33c4:	01000098 	swpeq	r0, r8, [r0]	; <UNPREDICTABLE>
    33c8:	00009818 	andeq	r9, r0, r8, lsl r8
    33cc:	0000000c 	andeq	r0, r0, ip
    33d0:	f2120d01 	vadd.f16	d0, d2, d1
    33d4:	10000002 	andne	r0, r0, r2
    33d8:	00009820 	andeq	r9, r0, r0, lsr #16
    33dc:	0000052a 	andeq	r0, r0, sl, lsr #10
    33e0:	05500111 	ldrbeq	r0, [r0, #-273]	; 0xfffffeef
    33e4:	0030040c 	eorseq	r0, r0, ip, lsl #8
    33e8:	12000020 	andne	r0, r0, #32, 0
    33ec:	00009818 	andeq	r9, r0, r8, lsl r8
    33f0:	00000536 	andeq	r0, r0, r6, lsr r5
    33f4:	00982812 	addseq	r2, r8, r2, lsl r8
    33f8:	00053600 	andeq	r3, r5, r0, lsl #12
    33fc:	241d0000 	ldrcs	r0, [sp], #-0
    3400:	34000002 	strcc	r0, [r0], #-2
    3404:	48000098 	stmdami	r0, {r3, r4, r7}
    3408:	01000000 	mrseq	r0, (UNDEF: 0)
    340c:	0004079c 	muleq	r4, ip, r7
    3410:	02310c00 	eorseq	r0, r1, #0, 24
    3414:	23ce0000 	biccs	r0, lr, #0, 0
    3418:	23ca0000 	biccs	r0, sl, #0, 0
    341c:	3c0e0000 	stccc	0, cr0, [lr], {-0}
    3420:	ee000002 	cdp	0, 0, cr0, cr0, cr2, {0}
    3424:	ec000023 	stc	0, cr0, [r0], {35}	; 0x23
    3428:	16000023 	strne	r0, [r0], -r3, lsr #32
    342c:	00000255 	andeq	r0, r0, r5, asr r2
    3430:	00009834 	andeq	r9, r0, r4, lsr r8
    3434:	00026002 	andeq	r6, r2, r2
    3438:	13130100 	tstne	r3, #0
    343c:	0000039a 	muleq	r0, sl, r3
    3440:	00026015 	andeq	r6, r2, r5, lsl r0
    3444:	02660e00 	rsbeq	r0, r6, #0, 28
    3448:	24050000 	strcs	r0, [r5], #-0
    344c:	24010000 	strcs	r0, [r1], #-0
    3450:	710f0000 	mrsvc	r0, CPSR
    3454:	40000002 	andmi	r0, r0, r2
    3458:	01000098 	swpeq	r0, r8, [r0]	; <UNPREDICTABLE>
    345c:	00009840 	andeq	r9, r0, r0, asr #16
    3460:	0000000c 	andeq	r0, r0, ip
    3464:	86120d01 	ldrhi	r0, [r2], -r1, lsl #26
    3468:	10000003 	andne	r0, r0, r3
    346c:	00009848 	andeq	r9, r0, r8, asr #16
    3470:	0000052a 	andeq	r0, r0, sl, lsr #10
    3474:	05500111 	ldrbeq	r0, [r0, #-273]	; 0xfffffeef
    3478:	0030040c 	eorseq	r0, r0, ip, lsl #8
    347c:	12000020 	andne	r0, r0, #32, 0
    3480:	00009840 	andeq	r9, r0, r0, asr #16
    3484:	00000536 	andeq	r0, r0, r6, lsr r5
    3488:	00985012 	addseq	r5, r8, r2, lsl r0
    348c:	00053600 	andeq	r3, r5, r0, lsl #12
    3490:	13000000 	movwne	r0, #0
    3494:	00000247 	andeq	r0, r0, r7, asr #4
    3498:	00000278 	andeq	r0, r0, r8, ror r2
    349c:	00024814 	andeq	r4, r2, r4, lsl r8
    34a0:	02550b00 	subseq	r0, r5, #0, 22
    34a4:	98540000 	ldmdals	r4, {}^	; <UNPREDICTABLE>
    34a8:	90020000 	andls	r0, r2, r0
    34ac:	01000002 	tsteq	r0, r2
    34b0:	90151715 	andsls	r1, r5, r5, lsl r7
    34b4:	0e000002 	cdpeq	0, 0, cr0, cr0, cr2, {0}
    34b8:	00000266 	andeq	r0, r0, r6, ror #4
    34bc:	00002425 	andeq	r2, r0, r5, lsr #8
    34c0:	00002423 	andeq	r2, r0, r3, lsr #8
    34c4:	00027116 	andeq	r7, r2, r6, lsl r1
    34c8:	00985800 	addseq	r5, r8, r0, lsl #16
    34cc:	02b00100 	adcseq	r0, r0, #0
    34d0:	0d010000 	stceq	0, cr0, [r1, #-0]
    34d4:	0003f112 	andeq	pc, r3, r2, lsl r1	; <UNPREDICTABLE>
    34d8:	98601000 	stmdals	r0!, {ip}^
    34dc:	052a0000 	streq	r0, [sl, #-0]!
    34e0:	01110000 	tsteq	r1, r0
    34e4:	00770250 	rsbseq	r0, r7, r0, asr r2
    34e8:	58120000 	ldmdapl	r2, {}	; <UNPREDICTABLE>
    34ec:	36000098 			; <UNDEFINED> instruction: 0x36000098
    34f0:	12000005 	andne	r0, r0, #5, 0
    34f4:	0000986c 	andeq	r9, r0, ip, ror #16
    34f8:	00000536 	andeq	r0, r0, r6, lsr r5
    34fc:	00000000 	andeq	r0, r0, r0
    3500:	00020b1d 	andeq	r0, r2, sp, lsl fp
    3504:	00987c00 	addseq	r7, r8, r0, lsl #24
    3508:	00005000 	andeq	r5, r0, r0
    350c:	2a9c0100 	bcs	fe703914 <__bss_end__+0xfe6f8aac>
    3510:	0c000005 	stceq	0, cr0, [r0], {5}
    3514:	00000218 	andeq	r0, r0, r8, lsl r2
    3518:	0000243c 	andeq	r2, r0, ip, lsr r4
    351c:	00002438 	andeq	r2, r0, r8, lsr r4
    3520:	0002240d 	andeq	r2, r2, sp, lsl #8
    3524:	00988c00 	addseq	r8, r8, r0, lsl #24
    3528:	988c0000 	stmls	ip, {}	; <UNPREDICTABLE>
    352c:	00400000 	subeq	r0, r0, r0
    3530:	1c010000 	stcne	0, cr0, [r1], {-0}
    3534:	02310c05 	eorseq	r0, r1, #1280	; 0x500
    3538:	245f0000 	ldrbcs	r0, [pc], #-0	; 3540 <__code_start__-0x4ac0>
    353c:	245d0000 	ldrbcs	r0, [sp], #-0
    3540:	3c0e0000 	stccc	0, cr0, [lr], {-0}
    3544:	74000002 	strvc	r0, [r0], #-2
    3548:	72000024 	andvc	r0, r0, #36, 0	; 0x24
    354c:	0f000024 	svceq	0x00000024
    3550:	00000255 	andeq	r0, r0, r5, asr r2
    3554:	0000988c 	andeq	r9, r0, ip, lsl #17
    3558:	00988c02 	addseq	r8, r8, r2, lsl #24
    355c:	00001400 	andeq	r1, r0, r0, lsl #8
    3560:	13130100 	tstne	r3, #0
    3564:	000004bc 			; <UNDEFINED> instruction: 0x000004bc
    3568:	0002660e 	andeq	r6, r2, lr, lsl #12
    356c:	00248b00 	eoreq	r8, r4, r0, lsl #22
    3570:	00248700 	eoreq	r8, r4, r0, lsl #14
    3574:	02710f00 	rsbseq	r0, r1, #0, 30
    3578:	98900000 	ldmls	r0, {}	; <UNPREDICTABLE>
    357c:	90010000 	andls	r0, r1, r0
    3580:	0c000098 	stceq	0, cr0, [r0], {152}	; 0x98
    3584:	01000000 	mrseq	r0, (UNDEF: 0)
    3588:	04a9120d 	strteq	r1, [r9], #525	; 0x20d
    358c:	98100000 	ldmdals	r0, {}	; <UNPREDICTABLE>
    3590:	2a000098 	bcs	37f8 <__code_start__-0x4808>
    3594:	11000005 	tstne	r0, r5
    3598:	0c055001 	stceq	0, cr5, [r5], {1}
    359c:	20003004 	andcs	r3, r0, r4
    35a0:	90120000 	andsls	r0, r2, r0
    35a4:	36000098 			; <UNDEFINED> instruction: 0x36000098
    35a8:	12000005 	andne	r0, r0, #5, 0
    35ac:	000098a0 	andeq	r9, r0, r0, lsr #17
    35b0:	00000536 	andeq	r0, r0, r6, lsr r5
    35b4:	02471300 	subeq	r1, r7, #0, 6
    35b8:	02c80000 	sbceq	r0, r8, #0, 0
    35bc:	48140000 	ldmdami	r4, {}	; <UNPREDICTABLE>
    35c0:	0b000002 	bleq	35d0 <__code_start__-0x4a30>
    35c4:	00000255 	andeq	r0, r0, r5, asr r2
    35c8:	000098a4 	andeq	r9, r0, r4, lsr #17
    35cc:	0002e002 	andeq	lr, r2, r2
    35d0:	17150100 	ldrne	r0, [r5, -r0, lsl #2]
    35d4:	0002e015 	andeq	lr, r2, r5, lsl r0
    35d8:	02660e00 	rsbeq	r0, r6, #0, 28
    35dc:	24ab0000 	strtcs	r0, [fp], #0
    35e0:	24a90000 	strtcs	r0, [r9], #0
    35e4:	71160000 	tstvc	r6, r0
    35e8:	a8000002 	stmdage	r0, {r1}
    35ec:	01000098 	swpeq	r0, r8, [r0]	; <UNPREDICTABLE>
    35f0:	00000300 	andeq	r0, r0, r0, lsl #6
    35f4:	13120d01 	tstne	r2, #64	; 0x40
    35f8:	10000005 	andne	r0, r0, r5
    35fc:	000098b0 			; <UNDEFINED> instruction: 0x000098b0
    3600:	0000052a 	andeq	r0, r0, sl, lsr #10
    3604:	02500111 	subseq	r0, r0, #1073741828	; 0x40000004
    3608:	00000077 	andeq	r0, r0, r7, ror r0
    360c:	0098a812 	addseq	sl, r8, r2, lsl r8
    3610:	00053600 	andeq	r3, r5, r0, lsl #12
    3614:	98bc1200 	ldmls	ip!, {r9, ip}
    3618:	05360000 	ldreq	r0, [r6, #-0]!
    361c:	00000000 	andeq	r0, r0, r0
    3620:	1f000000 	svcne	0x00000000
    3624:	000007a2 	andeq	r0, r0, r2, lsr #15
    3628:	000007a2 	andeq	r0, r0, r2, lsr #15
    362c:	1f0ac202 	svcne	0x000ac202
    3630:	00000778 	andeq	r0, r0, r8, ror r7
    3634:	00000778 	andeq	r0, r0, r8, ror r7
    3638:	00069c02 	andeq	r9, r6, r2, lsl #24
    363c:	000005cd 	andeq	r0, r0, sp, asr #11
    3640:	131f0004 	tstne	pc, #4, 0
    3644:	01040000 	mrseq	r0, (UNDEF: 4)
    3648:	000008d3 	ldrdeq	r0, [r0], -r3
    364c:	0008120c 	andeq	r1, r8, ip, lsl #4
    3650:	00088300 	andeq	r8, r8, r0, lsl #6
    3654:	00992000 	addseq	r2, r9, r0
    3658:	0001f000 	andeq	pc, r1, r0
    365c:	001c7900 	andseq	r7, ip, r0, lsl #18
    3660:	05040200 	streq	r0, [r4, #-512]	; 0xfffffe00
    3664:	00746e69 	rsbseq	r6, r4, r9, ror #28
    3668:	9a070403 	bls	1c467c <__bss_end__+0x1b9814>
    366c:	04000000 	streq	r0, [r0], #-0
    3670:	0000002c 	andeq	r0, r0, ip, lsr #32
    3674:	6b060103 	blvs	183a88 <__bss_end__+0x178c20>
    3678:	03000000 	movweq	r0, #0
    367c:	00e70502 	rsceq	r0, r7, r2, lsl #10
    3680:	04030000 	streq	r0, [r3], #-0
    3684:	0000ac05 	andeq	sl, r0, r5, lsl #24
    3688:	05080300 	streq	r0, [r8, #-768]	; 0xfffffd00
    368c:	000000a7 	andeq	r0, r0, r7, lsr #1
    3690:	69080103 	stmdbvs	r8, {r0, r1, r8}
    3694:	03000000 	movweq	r0, #0
    3698:	004b0702 	subeq	r0, fp, r2, lsl #14
    369c:	3f050000 	svccc	0x00050000
    36a0:	05000002 	streq	r0, [r0, #-2]
    36a4:	006e1934 	rsbeq	r1, lr, r4, lsr r9
    36a8:	04030000 	streq	r0, [r3], #-0
    36ac:	00009507 	andeq	r9, r0, r7, lsl #10
    36b0:	07080300 	streq	r0, [r8, -r0, lsl #6]
    36b4:	00000090 	muleq	r0, r0, r0
    36b8:	72080103 	andvc	r0, r8, #-1073741824	; 0xc0000000
    36bc:	06000000 	streq	r0, [r0], -r0
    36c0:	00540107 	subseq	r0, r4, r7, lsl #2
    36c4:	0c040000 	stceq	0, cr0, [r4], {-0}
    36c8:	0000c20e 	andeq	ip, r0, lr, lsl #4
    36cc:	09bd0700 	ldmibeq	sp!, {r8, r9, sl}
    36d0:	07000000 	streq	r0, [r0, -r0]
    36d4:	000007f5 	strdeq	r0, [r0], -r5
    36d8:	08380701 	ldmdaeq	r8!, {r0, r8, r9, sl}
    36dc:	07040000 	streq	r0, [r4, -r0]
    36e0:	00000847 	andeq	r0, r0, r7, asr #16
    36e4:	08560705 	ldmdaeq	r6, {r0, r2, r8, r9, sl}^
    36e8:	07060000 	streq	r0, [r6, -r0]
    36ec:	00000865 	andeq	r0, r0, r5, ror #16
    36f0:	09860707 	stmibeq	r6, {r0, r1, r2, r8, r9, sl}
    36f4:	07030000 	streq	r0, [r3, -r0]
    36f8:	00000874 	andeq	r0, r0, r4, ror r8
    36fc:	06080002 	streq	r0, [r8], -r2
    3700:	2c000008 	stccs	0, cr0, [r0], {8}
    3704:	5e080602 	cfmadd32pl	mvax0, mvfx0, mvfx8, mvfx2
    3708:	09000001 	stmdbeq	r0, {r0}
    370c:	02006f69 	andeq	r6, r0, #420	; 0x1a4
    3710:	00330909 	eorseq	r0, r3, r9, lsl #18
    3714:	09000000 	stmdbeq	r0, {}	; <UNPREDICTABLE>
    3718:	00726569 	rsbseq	r6, r2, r9, ror #10
    371c:	33090a02 	movwcc	r0, #39426	; 0x9a02
    3720:	04000000 	streq	r0, [r0], #-0
    3724:	72696909 	rsbvc	r6, r9, #147456	; 0x24000
    3728:	09110200 	ldmdbeq	r1, {r9}
    372c:	00000033 	andeq	r0, r0, r3, lsr r0
    3730:	636c0908 	cmnvs	ip, #8, 18	; 0x20000
    3734:	13020072 	movwne	r0, #8306	; 0x2072
    3738:	00003309 	andeq	r3, r0, r9, lsl #6
    373c:	6d090c00 	stcvs	12, cr0, [r9, #-0]
    3740:	02007263 	andeq	r7, r0, #805306374	; 0x30000006
    3744:	00330914 	eorseq	r0, r3, r4, lsl r9
    3748:	09100000 	ldmdbeq	r0, {}	; <UNPREDICTABLE>
    374c:	0072736c 	rsbseq	r7, r2, ip, ror #6
    3750:	33091502 	movwcc	r1, #38146	; 0x9502
    3754:	14000000 	strne	r0, [r0], #-0
    3758:	72736d09 	rsbsvc	r6, r3, #576	; 0x240
    375c:	09160200 	ldmdbeq	r6, {r9}
    3760:	00000033 	andeq	r0, r0, r3, lsr r0
    3764:	099d0a18 	ldmibeq	sp, {r3, r4, r9, fp}
    3768:	17020000 	strne	r0, [r2, -r0]
    376c:	00003309 	andeq	r3, r0, r9, lsl #6
    3770:	660a1c00 	strvs	r1, [sl], -r0, lsl #24
    3774:	02000009 	andeq	r0, r0, #9, 0
    3778:	0033091b 	eorseq	r0, r3, fp, lsl r9
    377c:	0a200000 	beq	803784 <__bss_end__+0x7f891c>
    3780:	000007e2 	andeq	r0, r0, r2, ror #15
    3784:	33091d02 	movwcc	r1, #40194	; 0x9d02
    3788:	24000000 	strcs	r0, [r0], #-0
    378c:	0008b80a 	andeq	fp, r8, sl, lsl #16
    3790:	091e0200 	ldmdbeq	lr, {r9}
    3794:	00000033 	andeq	r0, r0, r3, lsr r0
    3798:	bd0b0028 	stclt	0, cr0, [fp, #-160]	; 0xffffff60
    379c:	01000008 	tsteq	r0, r8
    37a0:	01740908 	cmneq	r4, r8, lsl #18
    37a4:	50040000 	andpl	r0, r4, r0
    37a8:	040c2021 	streq	r2, [ip], #-33	; 0xffffffdf
    37ac:	00000033 	andeq	r0, r0, r3, lsr r0
    37b0:	00016e0d 	andeq	r6, r1, sp, lsl #28
    37b4:	09a50b00 	stmibeq	r5!, {r8, r9, fp}
    37b8:	29010000 	stmdbcs	r1, {}	; <UNPREDICTABLE>
    37bc:	00018f23 	andeq	r8, r1, r3, lsr #30
    37c0:	21504000 	cmpcs	r0, r0
    37c4:	c2040c20 	andgt	r0, r4, #32, 24	; 0x2000
    37c8:	0d000000 	stceq	0, cr0, [r0, #-0]
    37cc:	00000189 	andeq	r0, r0, r9, lsl #3
    37d0:	0006900e 	andeq	r9, r6, lr
    37d4:	06cc0100 	strbeq	r0, [ip], r0, lsl #2
    37d8:	00009ad8 	ldrdeq	r9, [r0], -r8
    37dc:	00000014 	andeq	r0, r0, r4, lsl r0
    37e0:	01b49c01 			; <UNDEFINED> instruction: 0x01b49c01
    37e4:	e00f0000 	and	r0, pc, r0
    37e8:	b400009a 	strlt	r0, [r0], #-154	; 0xffffff66
    37ec:	00000001 	andeq	r0, r0, r1
    37f0:	00082710 	andeq	r2, r8, r0, lsl r7
    37f4:	05b60100 	ldreq	r0, [r6, #256]!	; 0x100
    37f8:	00000025 	andeq	r0, r0, r5, lsr #32
    37fc:	00009ab8 			; <UNDEFINED> instruction: 0x00009ab8
    3800:	00000020 	andeq	r0, r0, r0, lsr #32
    3804:	01eb9c01 	mvneq	r9, r1, lsl #24
    3808:	c00f0000 	andgt	r0, pc, r0
    380c:	a000009a 	mulge	r0, sl, r0
    3810:	11000005 	tstne	r0, r5
    3814:	00009ac8 	andeq	r9, r0, r8, asr #21
    3818:	000005ac 	andeq	r0, r0, ip, lsr #11
    381c:	05500112 	ldrbeq	r0, [r0, #-274]	; 0xfffffeee
    3820:	2150640c 	cmpcs	r0, ip, lsl #8
    3824:	10000020 	andne	r0, r0, r0, lsr #32
    3828:	00000978 	andeq	r0, r0, r8, ror r9
    382c:	2505b301 	strcs	fp, [r5, #-769]	; 0xfffffcff
    3830:	a8000000 	stmdage	r0, {}	; <UNPREDICTABLE>
    3834:	1000009a 	mulne	r0, sl, r0
    3838:	01000000 	mrseq	r0, (UNDEF: 0)
    383c:	0002189c 	muleq	r2, ip, r8
    3840:	9ab00f00 	bls	fec07448 <__bss_end__+0xfebfc5e0>
    3844:	05a00000 	streq	r0, [r0, #0]!
    3848:	b40f0000 	strlt	r0, [pc], #-0	; 3850 <__code_start__-0x47b0>
    384c:	0900009a 	stmdbeq	r0, {r1, r3, r4, r7}
    3850:	00000003 	andeq	r0, r0, r3
    3854:	0009b30e 	andeq	fp, r9, lr, lsl #6
    3858:	06ab0100 	strteq	r0, [fp], r0, lsl #2
    385c:	00009a78 	andeq	r9, r0, r8, ror sl
    3860:	00000030 	andeq	r0, r0, r0, lsr r0
    3864:	027c9c01 	rsbseq	r9, ip, #256	; 0x100
    3868:	63130000 	tstvs	r3, #0, 0
    386c:	19ab0100 	stmibne	fp!, {r8}
    3870:	0000002c 	andeq	r0, r0, ip, lsr #32
    3874:	000024c2 	andeq	r2, r0, r2, asr #9
    3878:	000024be 			; <UNDEFINED> instruction: 0x000024be
    387c:	009a840f 	addseq	r8, sl, pc, lsl #8
    3880:	0005a000 	andeq	sl, r5, r0
    3884:	9a880f00 	bls	fe20748c <__bss_end__+0xfe1fc624>
    3888:	02db0000 	sbcseq	r0, fp, #0, 0
    388c:	9c140000 	ldcls	0, cr0, [r4], {-0}
    3890:	b800009a 	stmdalt	r0, {r1, r3, r4, r7}
    3894:	72000005 	andvc	r0, r0, #5, 0
    3898:	12000002 	andne	r0, r0, #2, 0
    389c:	0c055001 	stceq	0, cr5, [r5], {1}
    38a0:	20215040 	eorcs	r5, r1, r0, asr #32
    38a4:	05510112 	ldrbeq	r0, [r1, #-274]	; 0xfffffeee
    38a8:	ff080074 			; <UNDEFINED> instruction: 0xff080074
    38ac:	a00f001a 	andge	r0, pc, sl, lsl r0	; <UNPREDICTABLE>
    38b0:	a000009a 	mulge	r0, sl, r0
    38b4:	00000005 	andeq	r0, r0, r5
    38b8:	0008c910 	andeq	ip, r8, r0, lsl r9
    38bc:	05a30100 	streq	r0, [r3, #256]!	; 0x100
    38c0:	00000025 	andeq	r0, r0, r5, lsr #32
    38c4:	00009a48 	andeq	r9, r0, r8, asr #20
    38c8:	00000030 	andeq	r0, r0, r0, lsr r0
    38cc:	02db9c01 	sbcseq	r9, fp, #256	; 0x100
    38d0:	63150000 	tstvs	r5, #0, 0
    38d4:	09a70100 	stmibeq	r7!, {r8}
    38d8:	00000025 	andeq	r0, r0, r5, lsr #32
    38dc:	000024e2 	andeq	r2, r0, r2, ror #9
    38e0:	000024e0 	andeq	r2, r0, r0, ror #9
    38e4:	009a500f 	addseq	r5, sl, pc
    38e8:	0005a000 	andeq	sl, r5, r0
    38ec:	9a540f00 	bls	15074f4 <__bss_end__+0x14fc68c>
    38f0:	03090000 	movweq	r0, #36864	; 0x9000
    38f4:	64140000 	ldrvs	r0, [r4], #-0
    38f8:	ac00009a 	stcge	0, cr0, [r0], {154}	; 0x9a
    38fc:	d1000005 	tstle	r0, r5
    3900:	12000002 	andne	r0, r0, #2, 0
    3904:	0c055001 	stceq	0, cr5, [r5], {1}
    3908:	20215040 	eorcs	r5, r1, r0, asr #32
    390c:	9a6c0f00 	bls	1b07514 <__bss_end__+0x1afc6ac>
    3910:	05a00000 	streq	r0, [r0, #0]!
    3914:	10000000 	andne	r0, r0, r0
    3918:	00000819 	andeq	r0, r0, r9, lsl r8
    391c:	25059401 	strcs	r9, [r5, #-1025]	; 0xfffffbff
    3920:	28000000 	stmdacs	r0, {}	; <UNPREDICTABLE>
    3924:	2000009a 	mulcs	r0, sl, r0
    3928:	01000000 	mrseq	r0, (UNDEF: 0)
    392c:	0003099c 	muleq	r3, ip, r9
    3930:	9a341100 	bls	d07d38 <__bss_end__+0xcfced0>
    3934:	05ac0000 	streq	r0, [ip, #0]!
    3938:	01120000 	tsteq	r2, r0
    393c:	640c0550 	strvs	r0, [ip], #-1360	; 0xfffffab0
    3940:	00202150 	eoreq	r2, r0, r0, asr r1
    3944:	07e71000 	strbeq	r1, [r7, r0]!
    3948:	8b010000 	blhi	43950 <__bss_end__+0x38ae8>
    394c:	00002505 	andeq	r2, r0, r5, lsl #10
    3950:	009a1000 	addseq	r1, sl, r0
    3954:	00001800 	andeq	r1, r0, r0, lsl #16
    3958:	379c0100 	ldrcc	r0, [ip, r0, lsl #2]
    395c:	11000003 	tstne	r0, r3
    3960:	00009a1c 	andeq	r9, r0, ip, lsl sl
    3964:	000005ac 	andeq	r0, r0, ip, lsr #11
    3968:	05500112 	ldrbeq	r0, [r0, #-274]	; 0xfffffeee
    396c:	2150640c 	cmpcs	r0, ip, lsl #8
    3970:	0e000020 	cdpeq	0, 0, cr0, cr0, cr0, {1}
    3974:	000006ae 	andeq	r0, r0, lr, lsr #13
    3978:	60064501 	andvs	r4, r6, r1, lsl #10
    397c:	b0000099 	mullt	r0, r9, r0
    3980:	01000000 	mrseq	r0, (UNDEF: 0)
    3984:	0004849c 	muleq	r4, ip, r4
    3988:	07d91600 	ldrbeq	r1, [r9, r0, lsl #12]
    398c:	7e010000 	cdpvc	0, 0, cr0, cr1, cr0, {0}
    3990:	0000620e 	andeq	r6, r0, lr, lsl #4
    3994:	14010e00 	strne	r0, [r1], #-3584	; 0xfffff200
    3998:	00009970 	andeq	r9, r0, r0, ror r9
    399c:	000005c4 	andeq	r0, r0, r4, asr #11
    39a0:	00000373 	andeq	r0, r0, r3, ror r3
    39a4:	01500112 	cmpeq	r0, r2, lsl r1
    39a8:	5101123e 	tstpl	r1, lr, lsr r2
    39ac:	14003201 	strne	r3, [r0], #-513	; 0xfffffdff
    39b0:	0000997c 	andeq	r9, r0, ip, ror r9
    39b4:	000005c4 	andeq	r0, r0, r4, asr #11
    39b8:	0000038b 	andeq	r0, r0, fp, lsl #7
    39bc:	01500112 	cmpeq	r0, r2, lsl r1
    39c0:	5101123f 	tstpl	r1, pc, lsr r2
    39c4:	0f003201 	svceq	0x00003201
    39c8:	00009980 	andeq	r9, r0, r0, lsl #19
    39cc:	000005a0 	andeq	r0, r0, r0, lsr #11
    39d0:	00998c14 	addseq	r8, r9, r4, lsl ip
    39d4:	00053d00 	andeq	r3, r5, r0, lsl #26
    39d8:	0003b000 	andeq	fp, r3, r0
    39dc:	50011200 	andpl	r1, r1, r0, lsl #4
    39e0:	50040c05 	andpl	r0, r4, r5, lsl #24
    39e4:	01122021 	tsteq	r2, r1, lsr #32
    39e8:	00310151 	eorseq	r0, r1, r1, asr r1
    39ec:	0099900f 	addseq	r9, r9, pc
    39f0:	0005a000 	andeq	sl, r5, r0
    39f4:	99a01400 	stmibls	r0!, {sl, ip}
    39f8:	05b80000 	ldreq	r0, [r8, #0]!
    39fc:	03d20000 	bicseq	r0, r2, #0, 0
    3a00:	01120000 	tsteq	r2, r0
    3a04:	00740250 	rsbseq	r0, r4, r0, asr r2
    3a08:	01510112 	cmpeq	r1, r2, lsl r1
    3a0c:	ac140030 	ldcge	0, cr0, [r4], {48}	; 0x30
    3a10:	b8000099 	stmdalt	r0, {r0, r3, r4, r7}
    3a14:	ee000005 	cdp	0, 0, cr0, cr0, cr5, {0}
    3a18:	12000003 	andne	r0, r0, #3, 0
    3a1c:	0c055001 	stceq	0, cr5, [r5], {1}
    3a20:	20215044 	eorcs	r5, r1, r4, asr #32
    3a24:	01510112 	cmpeq	r1, r2, lsl r1
    3a28:	b8140030 	ldmdalt	r4, {r4, r5}
    3a2c:	b8000099 	stmdalt	r0, {r0, r3, r4, r7}
    3a30:	0a000005 	beq	3a4c <__code_start__-0x45b4>
    3a34:	12000004 	andne	r0, r0, #4, 0
    3a38:	0c055001 	stceq	0, cr5, [r5], {1}
    3a3c:	2021504c 	eorcs	r5, r1, ip, asr #32
    3a40:	01510112 	cmpeq	r1, r2, lsl r1
    3a44:	c4140033 	ldrgt	r0, [r4], #-51	; 0xffffffcd
    3a48:	b8000099 	stmdalt	r0, {r0, r3, r4, r7}
    3a4c:	26000005 	strcs	r0, [r0], -r5
    3a50:	12000004 	andne	r0, r0, #4, 0
    3a54:	0c055001 	stceq	0, cr5, [r5], {1}
    3a58:	20215050 	eorcs	r5, r1, r0, asr r0
    3a5c:	01510112 	cmpeq	r1, r2, lsl r1
    3a60:	d0140030 	andsle	r0, r4, r0, lsr r0
    3a64:	b8000099 	stmdalt	r0, {r0, r3, r4, r7}
    3a68:	43000005 	movwmi	r0, #5
    3a6c:	12000004 	andne	r0, r0, #4, 0
    3a70:	0c055001 	stceq	0, cr5, [r5], {1}
    3a74:	20215048 	eorcs	r5, r1, r8, asr #32
    3a78:	02510112 	subseq	r0, r1, #-2147483644	; 0x80000004
    3a7c:	1400c708 	strne	ip, [r0], #-1800	; 0xfffff8f8
    3a80:	000099dc 	ldrdeq	r9, [r0], -ip
    3a84:	000005b8 			; <UNDEFINED> instruction: 0x000005b8
    3a88:	00000461 	andeq	r0, r0, r1, ror #8
    3a8c:	05500112 	ldrbeq	r0, [r0, #-274]	; 0xfffffeee
    3a90:	2150680c 	cmpcs	r0, ip, lsl #16
    3a94:	51011220 	tstpl	r1, r0, lsr #4
    3a98:	010e0a03 	tsteq	lr, r3, lsl #20
    3a9c:	99e81400 	stmibls	r8!, {sl, ip}^
    3aa0:	05b80000 	ldreq	r0, [r8, #0]!
    3aa4:	047a0000 	ldrbteq	r0, [sl], #-0
    3aa8:	01120000 	tsteq	r2, r0
    3aac:	00740250 	rsbseq	r0, r4, r0, asr r2
    3ab0:	01510112 	cmpeq	r1, r2, lsl r1
    3ab4:	ec0f0033 	stc	0, cr0, [pc], {51}	; 0x33
    3ab8:	a0000099 	mulge	r0, r9, r0
    3abc:	00000005 	andeq	r0, r0, r5
    3ac0:	00096b0e 	andeq	r6, r9, lr, lsl #22
    3ac4:	06350100 	ldrteq	r0, [r5], -r0, lsl #2
    3ac8:	00009aec 	andeq	r9, r0, ip, ror #21
    3acc:	00000024 	andeq	r0, r0, r4, lsr #32
    3ad0:	04d39c01 	ldrbeq	r9, [r3], #3073	; 0xc01
    3ad4:	f40f0000 	vst4.8	{d0-d3}, [pc], r0
    3ad8:	9400009a 	strls	r0, [r0], #-154	; 0xffffff66
    3adc:	0f000001 	svceq	0x00000001
    3ae0:	00009af8 	strdeq	r9, [r0], -r8
    3ae4:	000005a0 	andeq	r0, r0, r0, lsr #11
    3ae8:	009b0414 	addseq	r0, fp, r4, lsl r4
    3aec:	0004d300 	andeq	sp, r4, r0, lsl #6
    3af0:	0004c900 	andeq	ip, r4, r0, lsl #18
    3af4:	50011200 	andpl	r1, r1, r0, lsl #4
    3af8:	50040c05 	andpl	r0, r4, r5, lsl #24
    3afc:	01122021 	tsteq	r2, r1, lsr #32
    3b00:	fe090251 	mcr2	2, 0, r0, cr9, cr1, {2}
    3b04:	9b080f00 	blls	20770c <__bss_end__+0x1fc8a4>
    3b08:	05a00000 	streq	r0, [r0, #0]!
    3b0c:	17000000 	strne	r0, [r0, -r0]
    3b10:	000009aa 	andeq	r0, r0, sl, lsr #19
    3b14:	200d3101 	andcs	r3, sp, r1, lsl #2
    3b18:	20000099 	mulcs	r0, r9, r0
    3b1c:	01000000 	mrseq	r0, (UNDEF: 0)
    3b20:	0005369c 	muleq	r5, ip, r6
    3b24:	0a041800 	beq	109b2c <__bss_end__+0xfecc4>
    3b28:	31010000 	mrscc	r0, (UNDEF: 1)
    3b2c:	00053625 	andeq	r3, r5, r5, lsr #12
    3b30:	0024f900 	eoreq	pc, r4, r0, lsl #18
    3b34:	0024f500 	eoreq	pc, r4, r0, lsl #10
    3b38:	61761300 	cmnvs	r6, r0, lsl #6
    3b3c:	3101006c 	tstcc	r1, ip, rrx
    3b40:	00002c34 	andeq	r2, r0, r4, lsr ip
    3b44:	00251b00 	eoreq	r1, r5, r0, lsl #22
    3b48:	00251700 	eoreq	r1, r5, r0, lsl #14
    3b4c:	99301400 	ldmdbls	r0!, {sl, ip}
    3b50:	05ac0000 	streq	r0, [ip, #0]!
    3b54:	05250000 	streq	r0, [r5, #-0]!
    3b58:	01120000 	tsteq	r2, r0
    3b5c:	00740250 	rsbseq	r0, r4, r0, asr r2
    3b60:	993c1100 	ldmdbls	ip!, {r8, ip}
    3b64:	05b80000 	ldreq	r0, [r8, #0]!
    3b68:	01120000 	tsteq	r2, r0
    3b6c:	00740250 	rsbseq	r0, r4, r0, asr r2
    3b70:	040c0000 	streq	r0, [ip], #-0
    3b74:	0000053c 	andeq	r0, r0, ip, lsr r5
    3b78:	09951719 	ldmibeq	r5, {r0, r3, r4, r8, r9, sl, ip}
    3b7c:	2e010000 	cdpcs	0, 0, cr0, cr1, cr0, {0}
    3b80:	0099400d 	addseq	r4, r9, sp
    3b84:	00002000 	andeq	r2, r0, r0
    3b88:	a09c0100 	addsge	r0, ip, r0, lsl #2
    3b8c:	18000005 	stmdane	r0, {r0, r2}
    3b90:	00000a04 	andeq	r0, r0, r4, lsl #20
    3b94:	36242e01 	strtcc	r2, [r4], -r1, lsl #28
    3b98:	3d000005 	stccc	0, cr0, [r0, #-20]	; 0xffffffec
    3b9c:	39000025 	stmdbcc	r0, {r0, r2, r5}
    3ba0:	13000025 	movwne	r0, #37	; 0x25
    3ba4:	006c6176 	rsbeq	r6, ip, r6, ror r1
    3ba8:	2c332e01 	ldccs	14, cr2, [r3], #-4
    3bac:	5f000000 	svcpl	0x00000000
    3bb0:	5b000025 	blpl	3c4c <__code_start__-0x43b4>
    3bb4:	14000025 	strne	r0, [r0], #-37	; 0xffffffdb
    3bb8:	00009950 	andeq	r9, r0, r0, asr r9
    3bbc:	000005ac 	andeq	r0, r0, ip, lsr #11
    3bc0:	0000058f 	andeq	r0, r0, pc, lsl #11
    3bc4:	02500112 	subseq	r0, r0, #-2147483644	; 0x80000004
    3bc8:	11000074 	tstne	r0, r4, ror r0
    3bcc:	0000995c 	andeq	r9, r0, ip, asr r9
    3bd0:	000005b8 			; <UNDEFINED> instruction: 0x000005b8
    3bd4:	02500112 	subseq	r0, r0, #-2147483644	; 0x80000004
    3bd8:	00000074 	andeq	r0, r0, r4, ror r0
    3bdc:	0007781a 	andeq	r7, r7, sl, lsl r8
    3be0:	00077800 	andeq	r7, r7, r0, lsl #16
    3be4:	069c0300 	ldreq	r0, [ip], r0, lsl #6
    3be8:	0009df1a 	andeq	sp, r9, sl, lsl pc
    3bec:	0009df00 	andeq	sp, r9, r0, lsl #30
    3bf0:	0bc30300 	bleq	ff0c47f8 <__bss_end__+0xff0b9990>
    3bf4:	0007d31a 	andeq	sp, r7, sl, lsl r3
    3bf8:	0007d300 	andeq	sp, r7, r0, lsl #6
    3bfc:	06ae0300 	strteq	r0, [lr], r0, lsl #6
    3c00:	0009cd1a 	andeq	ip, r9, sl, lsl sp
    3c04:	0009cd00 	andeq	ip, r9, r0, lsl #26
    3c08:	06190400 	ldreq	r0, [r9], -r0, lsl #8
    3c0c:	0008e900 	andeq	lr, r8, r0, lsl #18
    3c10:	b7000400 	strlt	r0, [r0, -r0, lsl #8]
    3c14:	04000014 	streq	r0, [r0], #-20	; 0xffffffec
    3c18:	0008d301 	andeq	sp, r8, r1, lsl #6
    3c1c:	0a6f0c00 	beq	1bc6c24 <__bss_end__+0x1bbbdbc>
    3c20:	08830000 	stmeq	r3, {}	; <UNPREDICTABLE>
    3c24:	9b100000 	blls	403c2c <__bss_end__+0x3f8dc4>
    3c28:	03b00000 	movseq	r0, #0, 0
    3c2c:	1e810000 	cdpne	0, 8, cr0, cr1, cr0, {0}
    3c30:	04020000 	streq	r0, [r2], #-0
    3c34:	746e6905 	strbtvc	r6, [lr], #-2309	; 0xfffff6fb
    3c38:	07040300 	streq	r0, [r4, -r0, lsl #6]
    3c3c:	0000009a 	muleq	r0, sl, r0
    3c40:	6b060103 	blvs	184054 <__bss_end__+0x1791ec>
    3c44:	03000000 	movweq	r0, #0
    3c48:	00e70502 	rsceq	r0, r7, r2, lsl #10
    3c4c:	04030000 	streq	r0, [r3], #-0
    3c50:	0000ac05 	andeq	sl, r0, r5, lsl #24
    3c54:	05080300 	streq	r0, [r8, #-768]	; 0xfffffd00
    3c58:	000000a7 	andeq	r0, r0, r7, lsr #1
    3c5c:	69080103 	stmdbvs	r8, {r0, r1, r8}
    3c60:	03000000 	movweq	r0, #0
    3c64:	004b0702 	subeq	r0, fp, r2, lsl #14
    3c68:	3f040000 	svccc	0x00040000
    3c6c:	03000002 	movweq	r0, #2
    3c70:	00691934 	rsbeq	r1, r9, r4, lsr r9
    3c74:	04030000 	streq	r0, [r3], #-0
    3c78:	00009507 	andeq	r9, r0, r7, lsl #10
    3c7c:	07080300 	streq	r0, [r8, -r0, lsl #6]
    3c80:	00000090 	muleq	r0, r0, r0
    3c84:	72080103 	andvc	r0, r8, #-1073741824	; 0xc0000000
    3c88:	05000000 	streq	r0, [r0, #-0]
    3c8c:	00000077 	andeq	r0, r0, r7, ror r0
    3c90:	f0040803 			; <UNDEFINED> instruction: 0xf0040803
    3c94:	06000002 	streq	r0, [r0], -r2
    3c98:	04070704 	streq	r0, [r7], #-1796	; 0xfffff8fc
    3c9c:	0000002c 	andeq	r0, r0, ip, lsr #32
    3ca0:	a4061f01 	strge	r1, [r6], #-3841	; 0xfffff0ff
    3ca4:	08000000 	stmdaeq	r0, {}	; <UNPREDICTABLE>
    3ca8:	00000a09 	andeq	r0, r0, r9, lsl #20
    3cac:	00200000 	eoreq	r0, r0, r0
    3cb0:	05d90900 	ldrbeq	r0, [r9, #2304]	; 0x900
    3cb4:	22010000 	andcs	r0, r1, #0, 0
    3cb8:	0000770d 	andeq	r7, r0, sp, lsl #14
    3cbc:	03c50a00 	biceq	r0, r5, #0, 20
    3cc0:	23010000 	movwcs	r0, #4096	; 0x1000
    3cc4:	0000c20e 	andeq	ip, r0, lr, lsl #4
    3cc8:	2c030500 	cfstr32cs	mvfx0, [r3], {-0}
    3ccc:	0b0000aa 	bleq	3f7c <__code_start__-0x4084>
    3cd0:	00007704 	andeq	r7, r0, r4, lsl #14
    3cd4:	09ed0a00 	stmibeq	sp!, {r9, fp}^
    3cd8:	24010000 	strcs	r0, [r1], #-0
    3cdc:	0000c20e 	andeq	ip, r0, lr, lsl #4
    3ce0:	30030500 	andcc	r0, r3, r0, lsl #10
    3ce4:	0a0000aa 	beq	3f94 <__code_start__-0x406c>
    3ce8:	00000a4e 	andeq	r0, r0, lr, asr #20
    3cec:	c20e2501 	andgt	r2, lr, #4194304	; 0x400000
    3cf0:	05000000 	streq	r0, [r0, #-0]
    3cf4:	00aa3403 	adceq	r3, sl, r3, lsl #8
    3cf8:	0a240c00 	beq	906d00 <__bss_end__+0x8fbe98>
    3cfc:	75010000 	strvc	r0, [r1, #-0]
    3d00:	009e6006 	addseq	r6, lr, r6
    3d04:	00006000 	andeq	r6, r0, r0
    3d08:	649c0100 	ldrvs	r0, [ip], #256	; 0x100
    3d0c:	0d000001 	stceq	0, cr0, [r0, #-4]
    3d10:	75010070 	strvc	r0, [r1, #-112]	; 0xffffff90
    3d14:	00008a16 	andeq	r8, r0, r6, lsl sl
    3d18:	00258300 	eoreq	r8, r5, r0, lsl #6
    3d1c:	00257d00 	eoreq	r7, r5, r0, lsl #26
    3d20:	00830e00 	addeq	r0, r3, r0, lsl #28
    3d24:	01740000 	cmneq	r4, r0
    3d28:	03050000 	movweq	r0, #20480	; 0x5000
    3d2c:	0000aa1c 	andeq	sl, r0, ip, lsl sl
    3d30:	009eac0f 	addseq	sl, lr, pc, lsl #24
    3d34:	0008bc00 	andeq	fp, r8, r0, lsl #24
    3d38:	00015a00 	andeq	r5, r1, r0, lsl #20
    3d3c:	50011000 	andpl	r1, r1, r0
    3d40:	a9940305 	ldmibge	r4, {r0, r2, r8, r9}
    3d44:	01100000 	tsteq	r0, r0
    3d48:	2c030551 	cfstr32cs	mvfx0, [r3], {81}	; 0x51
    3d4c:	100000a8 	andne	r0, r0, r8, lsr #1
    3d50:	03055201 	movweq	r5, #20993	; 0x5201
    3d54:	0000aa1c 	andeq	sl, r0, ip, lsl sl
    3d58:	02530110 	subseq	r0, r3, #4
    3d5c:	02107708 	andseq	r7, r0, #8, 14	; 0x200000
    3d60:	f303007d 	vqadd.u8	q0, <illegal reg q1.5>, <illegal reg q14.5>
    3d64:	11005001 	tstne	r0, r1
    3d68:	00009eb0 			; <UNDEFINED> instruction: 0x00009eb0
    3d6c:	000008c8 	andeq	r0, r0, r8, asr #17
    3d70:	007e1200 	rsbseq	r1, lr, r0, lsl #4
    3d74:	01740000 	cmneq	r4, r0
    3d78:	2c130000 	ldccs	0, cr0, [r3], {-0}
    3d7c:	09000000 	stmdbeq	r0, {}	; <UNPREDICTABLE>
    3d80:	01640500 	cmneq	r4, r0, lsl #10
    3d84:	12140000 	andsne	r0, r4, #0, 0
    3d88:	0100000a 	tsteq	r0, sl
    3d8c:	9e4c0672 	mcrls	6, 2, r0, cr12, cr2, {3}
    3d90:	00140000 	andseq	r0, r4, r0
    3d94:	9c010000 	stcls	0, cr0, [r1], {-0}
    3d98:	0002000c 	andeq	r0, r2, ip
    3d9c:	066f0100 	strbteq	r0, [pc], -r0, lsl #2
    3da0:	00009e48 	andeq	r9, r0, r8, asr #28
    3da4:	00000004 	andeq	r0, r0, r4
    3da8:	01ae9c01 			; <UNDEFINED> instruction: 0x01ae9c01
    3dac:	70150000 	andsvc	r0, r5, r0
    3db0:	126f0100 	rsbne	r0, pc, #0
    3db4:	0000008a 	andeq	r0, r0, sl, lsl #1
    3db8:	16005001 	strne	r5, [r0], -r1
    3dbc:	00000ab1 			; <UNDEFINED> instruction: 0x00000ab1
    3dc0:	8a075e01 	bhi	1db5cc <__bss_end__+0x1d0764>
    3dc4:	30000000 	andcc	r0, r0, r0
    3dc8:	1800009d 	stmdane	r0, {r0, r2, r3, r4, r7}
    3dcc:	01000001 	tsteq	r0, r1
    3dd0:	00042c9c 	muleq	r4, ip, ip
    3dd4:	02ae1700 	adceq	r1, lr, #0, 14
    3dd8:	5e010000 	cdppl	0, 0, cr0, cr1, cr0, {0}
    3ddc:	00002c20 	andeq	r2, r0, r0, lsr #24
    3de0:	0025c400 	eoreq	ip, r5, r0, lsl #8
    3de4:	0025b000 	eoreq	fp, r5, r0
    3de8:	0a2e1700 	beq	b899f0 <__bss_end__+0xb7eb88>
    3dec:	5e010000 	cdppl	0, 0, cr0, cr1, cr0, {0}
    3df0:	00002c31 	andeq	r2, r0, r1, lsr ip
    3df4:	00265d00 	eoreq	r5, r6, r0, lsl #26
    3df8:	00264900 	eoreq	r4, r6, r0, lsl #18
    3dfc:	00830e00 	addeq	r0, r3, r0, lsl #28
    3e00:	043c0000 	ldrteq	r0, [ip], #-0
    3e04:	03050000 	movweq	r0, #20480	; 0x5000
    3e08:	0000aa04 	andeq	sl, r0, r4, lsl #20
    3e0c:	01006818 	tsteq	r0, r8, lsl r8
    3e10:	002c0e66 	eoreq	r0, ip, r6, ror #28
    3e14:	27130000 	ldrcs	r0, [r3, -r0]
    3e18:	27070000 	strcs	r0, [r7, -r0]
    3e1c:	54190000 	ldrpl	r0, [r9], #-0
    3e20:	40000008 	andmi	r0, r0, r8
    3e24:	0400009d 	streq	r0, [r0], #-157	; 0xffffff63
    3e28:	00009d40 	andeq	r9, r0, r0, asr #26
    3e2c:	00000004 	andeq	r0, r0, r4
    3e30:	38056001 	stmdacc	r5, {r0, sp, lr}
    3e34:	1a000002 	bne	3e44 <__code_start__-0x41bc>
    3e38:	00000865 	andeq	r0, r0, r5, ror #16
    3e3c:	00002767 	andeq	r2, r0, r7, ror #14
    3e40:	00002765 	andeq	r2, r0, r5, ror #14
    3e44:	08961900 	ldmeq	r6, {r8, fp, ip}
    3e48:	9d4c0000 	stclls	0, cr0, [ip, #-0]
    3e4c:	4c020000 	stcmi	0, cr0, [r2], {-0}
    3e50:	0800009d 	stmdaeq	r0, {r0, r2, r3, r4, r7}
    3e54:	01000000 	mrseq	r0, (UNDEF: 0)
    3e58:	026c1161 	rsbeq	r1, ip, #1073741848	; 0x40000018
    3e5c:	b11a0000 	tstlt	sl, r0
    3e60:	7c000008 	stcvc	0, cr0, [r0], {8}
    3e64:	7a000027 	bvc	3f08 <__code_start__-0x40f8>
    3e68:	1a000027 	bne	3f0c <__code_start__-0x40f4>
    3e6c:	000008a7 	andeq	r0, r0, r7, lsr #17
    3e70:	00002792 	muleq	r0, r2, r7
    3e74:	00002790 	muleq	r0, r0, r7
    3e78:	081f1b00 	ldmdaeq	pc, {r8, r9, fp, ip}	; <UNPREDICTABLE>
    3e7c:	9d5c0000 	ldclls	0, cr0, [ip, #-0]
    3e80:	98010000 	stmdals	r1, {}	; <UNPREDICTABLE>
    3e84:	01000003 	tsteq	r0, r3
    3e88:	030a0967 	movweq	r0, #43367	; 0xa967
    3e8c:	3a1a0000 	bcc	683e94 <__bss_end__+0x67902c>
    3e90:	ab000008 	blge	3eb8 <__code_start__-0x4148>
    3e94:	a5000027 	strge	r0, [r0, #-39]	; 0xffffffd9
    3e98:	1a000027 	bne	3f3c <__code_start__-0x40c4>
    3e9c:	00000830 	andeq	r0, r0, r0, lsr r8
    3ea0:	000027f2 	strdeq	r2, [r0], -r2	; <UNPREDICTABLE>
    3ea4:	000027ea 	andeq	r2, r0, sl, ror #15
    3ea8:	0003981c 	andeq	r9, r3, ip, lsl r8
    3eac:	08541900 	ldmdaeq	r4, {r8, fp, ip}^
    3eb0:	9d5c0000 	ldclls	0, cr0, [ip, #-0]
    3eb4:	5c040000 	stcpl	0, cr0, [r4], {-0}
    3eb8:	0400009d 	streq	r0, [r0], #-157	; 0xffffff63
    3ebc:	01000000 	mrseq	r0, (UNDEF: 0)
    3ec0:	02c70511 	sbceq	r0, r7, #71303168	; 0x4400000
    3ec4:	651a0000 	ldrvs	r0, [sl, #-0]
    3ec8:	30000008 	andcc	r0, r0, r8
    3ecc:	2e000028 	cdpcs	0, 0, cr0, cr0, cr8, {1}
    3ed0:	00000028 	andeq	r0, r0, r8, lsr #32
    3ed4:	009df40f 	addseq	pc, sp, pc, lsl #8
    3ed8:	0008bc00 	andeq	fp, r8, r0, lsl #24
    3edc:	0002ff00 	andeq	pc, r2, r0, lsl #30
    3ee0:	50011000 	andpl	r1, r1, r0
    3ee4:	a2680305 	rsbge	r0, r8, #335544320	; 0x14000000
    3ee8:	01100000 	tsteq	r0, r0
    3eec:	2c030551 	cfstr32cs	mvfx0, [r3], {81}	; 0x51
    3ef0:	100000a8 	andne	r0, r0, r8, lsr #1
    3ef4:	03055201 	movweq	r5, #20993	; 0x5201
    3ef8:	0000aa14 	andeq	sl, r0, r4, lsl sl
    3efc:	01530110 	cmpeq	r3, r0, lsl r1
    3f00:	7d021041 	stcvc	0, cr1, [r2, #-260]	; 0xfffffefc
    3f04:	40030500 	andmi	r0, r3, r0, lsl #10
    3f08:	000000a9 	andeq	r0, r0, r9, lsr #1
    3f0c:	009df811 	addseq	pc, sp, r1, lsl r8	; <UNPREDICTABLE>
    3f10:	0008c800 	andeq	ip, r8, r0, lsl #16
    3f14:	19000000 	stmdbne	r0, {}	; <UNPREDICTABLE>
    3f18:	00000870 	andeq	r0, r0, r0, ror r8
    3f1c:	00009d74 	andeq	r9, r0, r4, ror sp
    3f20:	009d7403 	addseq	r7, sp, r3, lsl #8
    3f24:	00000400 	andeq	r0, r0, r0, lsl #8
    3f28:	05680100 	strbeq	r0, [r8, #-256]!	; 0xffffff00
    3f2c:	0000033e 	andeq	r0, r0, lr, lsr r3
    3f30:	00088b1a 	andeq	r8, r8, sl, lsl fp
    3f34:	00284500 	eoreq	r4, r8, r0, lsl #10
    3f38:	00284300 	eoreq	r4, r8, r0, lsl #6
    3f3c:	08811a00 	stmeq	r1, {r9, fp, ip}
    3f40:	285a0000 	ldmdacs	sl, {}^	; <UNPREDICTABLE>
    3f44:	28580000 	ldmdacs	r8, {}^	; <UNPREDICTABLE>
    3f48:	0f000000 	svceq	0x00000000
    3f4c:	00009d8c 	andeq	r9, r0, ip, lsl #27
    3f50:	00000441 	andeq	r0, r0, r1, asr #8
    3f54:	00000353 	andeq	r0, r0, r3, asr r3
    3f58:	03500110 	cmpeq	r0, #4
    3f5c:	005001f3 	ldrsheq	r0, [r0], #-19	; 0xffffffed
    3f60:	009db00f 	addseq	fp, sp, pc
    3f64:	0008bc00 	andeq	fp, r8, r0, lsl #24
    3f68:	00038c00 	andeq	r8, r3, r0, lsl #24
    3f6c:	50011000 	andpl	r1, r1, r0
    3f70:	a2680305 	rsbge	r0, r8, #335544320	; 0x14000000
    3f74:	01100000 	tsteq	r0, r0
    3f78:	2c030551 	cfstr32cs	mvfx0, [r3], {81}	; 0x51
    3f7c:	100000a8 	andne	r0, r0, r8, lsr #1
    3f80:	03055201 	movweq	r5, #20993	; 0x5201
    3f84:	0000aa04 	andeq	sl, r0, r4, lsl #20
    3f88:	02530110 	subseq	r0, r3, #4
    3f8c:	02105f08 	andseq	r5, r0, #8, 30
    3f90:	0305007d 	movweq	r0, #20605	; 0x507d
    3f94:	0000a83c 	andeq	sl, r0, ip, lsr r8
    3f98:	9db41100 	ldflss	f1, [r4]
    3f9c:	08c80000 	stmiaeq	r8, {}^	; <UNPREDICTABLE>
    3fa0:	b8110000 	ldmdalt	r1, {}	; <UNPREDICTABLE>
    3fa4:	d400009d 	strle	r0, [r0], #-157	; 0xffffff63
    3fa8:	0f000008 	svceq	0x00000008
    3fac:	00009dd4 	ldrdeq	r9, [r0], -r4
    3fb0:	000008bc 			; <UNDEFINED> instruction: 0x000008bc
    3fb4:	000003d7 	ldrdeq	r0, [r0], -r7
    3fb8:	05500110 	ldrbeq	r0, [r0, #-272]	; 0xfffffef0
    3fbc:	00a8f803 	adceq	pc, r8, r3, lsl #16
    3fc0:	51011000 	mrspl	r1, (UNDEF: 1)
    3fc4:	a82c0305 	stmdage	ip!, {r0, r2, r8, r9}
    3fc8:	01100000 	tsteq	r0, r0
    3fcc:	04030552 	streq	r0, [r3], #-1362	; 0xfffffaae
    3fd0:	100000aa 	andne	r0, r0, sl, lsr #1
    3fd4:	08025301 	stmdaeq	r2, {r0, r8, r9, ip, lr}
    3fd8:	7d021060 	stcvc	0, cr1, [r2, #-384]	; 0xfffffe80
    3fdc:	2c030500 	cfstr32cs	mvfx0, [r3], {-0}
    3fe0:	000000a9 	andeq	r0, r0, r9, lsr #1
    3fe4:	009dd811 	addseq	sp, sp, r1, lsl r8
    3fe8:	0008c800 	andeq	ip, r8, r0, lsl #16
    3fec:	9dfc1100 	ldflse	f1, [ip]
    3ff0:	08d40000 	ldmeq	r4, {}^	; <UNPREDICTABLE>
    3ff4:	180f0000 	stmdane	pc, {}	; <UNPREDICTABLE>
    3ff8:	bc00009e 	stclt	0, cr0, [r0], {158}	; 0x9e
    3ffc:	22000008 	andcs	r0, r0, #8, 0
    4000:	10000004 	andne	r0, r0, r4
    4004:	03055001 	movweq	r5, #20481	; 0x5001
    4008:	0000a94c 	andeq	sl, r0, ip, asr #18
    400c:	05510110 	ldrbeq	r0, [r1, #-272]	; 0xfffffef0
    4010:	00a82c03 	adceq	r2, r8, r3, lsl #24
    4014:	52011000 	andpl	r1, r1, #0, 0
    4018:	aa040305 	bge	104c34 <__bss_end__+0xf9dcc>
    401c:	01100000 	tsteq	r0, r0
    4020:	68080253 	stmdavs	r8, {r0, r1, r4, r6, r9}
    4024:	007d0210 	rsbseq	r0, sp, r0, lsl r2
    4028:	a9780305 	ldmdbge	r8!, {r0, r2, r8, r9}^
    402c:	11000000 	mrsne	r0, (UNDEF: 0)
    4030:	00009e1c 	andeq	r9, r0, ip, lsl lr
    4034:	000008c8 	andeq	r0, r0, r8, asr #17
    4038:	007e1200 	rsbseq	r1, lr, r0, lsl #4
    403c:	043c0000 	ldrteq	r0, [ip], #-0
    4040:	2c130000 	ldccs	0, cr0, [r3], {-0}
    4044:	0f000000 	svceq	0x00000000
    4048:	042c0500 	strteq	r0, [ip], #-1280	; 0xfffffb00
    404c:	f6160000 			; <UNDEFINED> instruction: 0xf6160000
    4050:	01000003 	tsteq	r0, r3
    4054:	008a0753 	addeq	r0, sl, r3, asr r7
    4058:	9ccc0000 	stclls	0, cr0, [ip], {0}
    405c:	00640000 	rsbeq	r0, r4, r0
    4060:	9c010000 	stcls	0, cr0, [r1], {-0}
    4064:	00000508 	andeq	r0, r0, r8, lsl #10
    4068:	0002ae17 	andeq	sl, r2, r7, lsl lr
    406c:	18530100 	ldmdane	r3, {r8}^
    4070:	0000002c 	andeq	r0, r0, ip, lsr #32
    4074:	00002875 	andeq	r2, r0, r5, ror r8
    4078:	0000286d 	andeq	r2, r0, sp, ror #16
    407c:	0000830e 	andeq	r8, r0, lr, lsl #6
    4080:	00051800 	andeq	r1, r5, r0, lsl #16
    4084:	fc030500 	stc2	5, cr0, [r3], {-0}
    4088:	1d0000a9 	stcne	0, cr0, [r0, #-676]	; 0xfffffd5c
    408c:	00000a04 	andeq	r0, r0, r4, lsl #20
    4090:	8a0b5501 	bhi	2d949c <__bss_end__+0x2ce634>
    4094:	ad000000 	stcge	0, cr0, [r0, #-0]
    4098:	a9000028 	stmdbge	r0, {r3, r5}
    409c:	0f000028 	svceq	0x00000028
    40a0:	00009ce4 	andeq	r9, r0, r4, ror #25
    40a4:	0000051d 	andeq	r0, r0, sp, lsl r5
    40a8:	000004a6 	andeq	r0, r0, r6, lsr #9
    40ac:	02500110 	subseq	r0, r0, #4
    40b0:	0f000074 	svceq	0x00000074
    40b4:	00009cf4 	strdeq	r9, [r0], -r4
    40b8:	000008e0 	andeq	r0, r0, r0, ror #17
    40bc:	000004c5 	andeq	r0, r0, r5, asr #9
    40c0:	02500110 	subseq	r0, r0, #4
    40c4:	01100075 	tsteq	r0, r5, ror r0
    40c8:	10300151 	eorsne	r0, r0, r1, asr r1
    40cc:	74025201 	strvc	r5, [r2], #-513	; 0xfffffdff
    40d0:	1c0f0000 	stcne	0, cr0, [pc], {-0}
    40d4:	bc00009d 	stclt	0, cr0, [r0], {157}	; 0x9d
    40d8:	fe000008 	cdp2	0, 0, cr0, cr0, cr8, {0}
    40dc:	10000004 	andne	r0, r0, r4
    40e0:	03055001 	movweq	r5, #20481	; 0x5001
    40e4:	0000a268 	andeq	sl, r0, r8, ror #4
    40e8:	05510110 	ldrbeq	r0, [r1, #-272]	; 0xfffffef0
    40ec:	00a82c03 	adceq	r2, r8, r3, lsl #24
    40f0:	52011000 	andpl	r1, r1, #0, 0
    40f4:	a9fc0305 	ldmibge	ip!, {r0, r2, r8, r9}^
    40f8:	01100000 	tsteq	r0, r0
    40fc:	54080253 	strpl	r0, [r8], #-595	; 0xfffffdad
    4100:	007d0210 	rsbseq	r0, sp, r0, lsl r2
    4104:	a83c0305 	ldmdage	ip!, {r0, r2, r8, r9}
    4108:	11000000 	mrsne	r0, (UNDEF: 0)
    410c:	00009d20 	andeq	r9, r0, r0, lsr #26
    4110:	000008c8 	andeq	r0, r0, r8, asr #17
    4114:	007e1200 	rsbseq	r1, lr, r0, lsl #4
    4118:	05180000 	ldreq	r0, [r8, #-0]
    411c:	2c130000 	ldccs	0, cr0, [r3], {-0}
    4120:	07000000 	streq	r0, [r0, -r0]
    4124:	05080500 	streq	r0, [r8, #-1280]	; 0xfffffb00
    4128:	57160000 	ldrpl	r0, [r6, -r0]
    412c:	0100000a 	tsteq	r0, sl
    4130:	008a0747 	addeq	r0, sl, r7, asr #14
    4134:	9c340000 	ldcls	0, cr0, [r4], #-0
    4138:	00980000 	addseq	r0, r8, r0
    413c:	9c010000 	stcls	0, cr0, [r1], {-0}
    4140:	0000062b 	andeq	r0, r0, fp, lsr #12
    4144:	0002ae17 	andeq	sl, r2, r7, lsl lr
    4148:	20470100 	subcs	r0, r7, r0, lsl #2
    414c:	0000002c 	andeq	r0, r0, ip, lsr #32
    4150:	000028db 	ldrdeq	r2, [r0], -fp
    4154:	000028cb 	andeq	r2, r0, fp, asr #17
    4158:	0000830e 	andeq	r8, r0, lr, lsl #6
    415c:	00043c00 	andeq	r3, r4, r0, lsl #24
    4160:	ec030500 	cfstr32	mvfx0, [r3], {-0}
    4164:	1d0000a9 	stcne	0, cr0, [r0, #-676]	; 0xfffffd5c
    4168:	00000a04 	andeq	r0, r0, r4, lsl #20
    416c:	8a0b4b01 	bhi	2d6d78 <__bss_end__+0x2cbf10>
    4170:	4d000000 	stcmi	0, cr0, [r0, #-0]
    4174:	49000029 	stmdbmi	r0, {r0, r3, r5}
    4178:	1b000029 	blne	4224 <__code_start__-0x3ddc>
    417c:	0000081f 	andeq	r0, r0, pc, lsl r8
    4180:	00009c44 	andeq	r9, r0, r4, asr #24
    4184:	00038003 	andeq	r8, r3, r3
    4188:	0e490100 	dvfeqe	f0, f1, f0
    418c:	000005a3 	andeq	r0, r0, r3, lsr #11
    4190:	00083a1a 	andeq	r3, r8, sl, lsl sl
    4194:	00296d00 	eoreq	r6, r9, r0, lsl #26
    4198:	00296b00 	eoreq	r6, r9, r0, lsl #22
    419c:	08301a00 	ldmdaeq	r0!, {r9, fp, ip}
    41a0:	29850000 	stmibcs	r5, {}	; <UNPREDICTABLE>
    41a4:	29810000 	stmibcs	r1, {}	; <UNPREDICTABLE>
    41a8:	801e0000 	andshi	r0, lr, r0
    41ac:	00000003 	andeq	r0, r0, r3
    41b0:	009c8c0f 	addseq	r8, ip, pc, lsl #24
    41b4:	0008bc00 	andeq	fp, r8, r0, lsl #24
    41b8:	0005dc00 	andeq	sp, r5, r0, lsl #24
    41bc:	50011000 	andpl	r1, r1, r0
    41c0:	a2680305 	rsbge	r0, r8, #335544320	; 0x14000000
    41c4:	01100000 	tsteq	r0, r0
    41c8:	2c030551 	cfstr32cs	mvfx0, [r3], {81}	; 0x51
    41cc:	100000a8 	andne	r0, r0, r8, lsr #1
    41d0:	03055201 	movweq	r5, #20993	; 0x5201
    41d4:	0000a9ec 	andeq	sl, r0, ip, ror #19
    41d8:	02530110 	subseq	r0, r3, #4
    41dc:	02104808 	andseq	r4, r0, #8, 16	; 0x80000
    41e0:	0305007d 	movweq	r0, #20605	; 0x507d
    41e4:	0000a83c 	andeq	sl, r0, ip, lsr r8
    41e8:	9c901100 	ldflss	f1, [r0], {0}
    41ec:	08c80000 	stmiaeq	r8, {}^	; <UNPREDICTABLE>
    41f0:	b00f0000 	andlt	r0, pc, r0
    41f4:	bc00009c 	stclt	0, cr0, [r0], {156}	; 0x9c
    41f8:	21000008 	tstcs	r0, r8
    41fc:	10000006 	andne	r0, r0, r6
    4200:	03055001 	movweq	r5, #20481	; 0x5001
    4204:	0000a8b8 			; <UNDEFINED> instruction: 0x0000a8b8
    4208:	05510110 	ldrbeq	r0, [r1, #-272]	; 0xfffffef0
    420c:	00a82c03 	adceq	r2, r8, r3, lsl #24
    4210:	52011000 	andpl	r1, r1, #0, 0
    4214:	a9ec0305 	stmibge	ip!, {r0, r2, r8, r9}^
    4218:	01100000 	tsteq	r0, r0
    421c:	4e080253 	mcrmi	2, 0, r0, cr8, cr3, {2}
    4220:	007d0210 	rsbseq	r0, sp, r0, lsl r2
    4224:	5001f308 	andpl	pc, r1, r8, lsl #6
    4228:	f8090723 			; <UNDEFINED> instruction: 0xf8090723
    422c:	b411001a 	ldrlt	r0, [r1], #-26	; 0xffffffe6
    4230:	c800009c 	stmdagt	r0, {r2, r3, r4, r7}
    4234:	00000008 	andeq	r0, r0, r8
    4238:	000a790c 	andeq	r7, sl, ip, lsl #18
    423c:	063c0100 	ldrteq	r0, [ip], -r0, lsl #2
    4240:	00009bdc 	ldrdeq	r9, [r0], -ip
    4244:	00000058 	andeq	r0, r0, r8, asr r0
    4248:	06cf9c01 	strbeq	r9, [pc], r1, lsl #24
    424c:	4e0a0000 	cdpmi	0, 0, cr0, cr10, cr0, {0}
    4250:	01000003 	tsteq	r0, r3
    4254:	0025103d 	eoreq	r1, r5, sp, lsr r0
    4258:	03050000 	movweq	r0, #20480	; 0x5000
    425c:	0000ae64 	andeq	sl, r0, r4, ror #28
    4260:	0000830e 	andeq	r8, r0, lr, lsl #6
    4264:	0006df00 	andeq	sp, r6, r0, lsl #30
    4268:	dc030500 	cfstr32le	mvfx0, [r3], {-0}
    426c:	070000a9 	streq	r0, [r0, -r9, lsr #1]
    4270:	002c0407 	eoreq	r0, ip, r7, lsl #8
    4274:	42010000 	andmi	r0, r1, #0, 0
    4278:	00067a0a 	andeq	r7, r6, sl, lsl #20
    427c:	0a400800 	beq	1006284 <__bss_end__+0xffb41c>
    4280:	00000000 	andeq	r0, r0, r0
    4284:	0f000010 	svceq	0x00000010
    4288:	00009c08 	andeq	r9, r0, r8, lsl #24
    428c:	000006e4 	andeq	r0, r0, r4, ror #13
    4290:	00000696 	muleq	r0, r6, r6
    4294:	03500110 	cmpeq	r0, #4
    4298:	10244040 	eorne	r4, r4, r0, asr #32
    429c:	40035101 	andmi	r5, r3, r1, lsl #2
    42a0:	0f002448 	svceq	0x00002448
    42a4:	00009c20 	andeq	r9, r0, r0, lsr #24
    42a8:	000008bc 			; <UNDEFINED> instruction: 0x000008bc
    42ac:	000006c5 	andeq	r0, r0, r5, asr #13
    42b0:	05500110 	ldrbeq	r0, [r0, #-272]	; 0xfffffef0
    42b4:	00a88803 	adceq	r8, r8, r3, lsl #16
    42b8:	51011000 	mrspl	r1, (UNDEF: 1)
    42bc:	a82c0305 	stmdage	ip!, {r0, r2, r8, r9}
    42c0:	01100000 	tsteq	r0, r0
    42c4:	dc030552 	cfstr32le	mvfx0, [r3], {82}	; 0x52
    42c8:	100000a9 	andne	r0, r0, r9, lsr #1
    42cc:	08025301 	stmdaeq	r2, {r0, r8, r9, ip, lr}
    42d0:	24110040 	ldrcs	r0, [r1], #-64	; 0xffffffc0
    42d4:	c800009c 	stmdagt	r0, {r2, r3, r4, r7}
    42d8:	00000008 	andeq	r0, r0, r8
    42dc:	00007e12 	andeq	r7, r0, r2, lsl lr
    42e0:	0006df00 	andeq	sp, r6, r0, lsl #30
    42e4:	002c1300 	eoreq	r1, ip, r0, lsl #6
    42e8:	000c0000 	andeq	r0, ip, r0
    42ec:	0006cf05 	andeq	ip, r6, r5, lsl #30
    42f0:	03fe0c00 	mvnseq	r0, #0, 24
    42f4:	2d010000 	stccs	0, cr0, [r1, #-0]
    42f8:	009b4006 	addseq	r4, fp, r6
    42fc:	00009c00 	andeq	r9, r0, r0, lsl #24
    4300:	c89c0100 	ldmgt	ip, {r8}
    4304:	17000007 	strne	r0, [r0, -r7]
    4308:	00000a03 	andeq	r0, r0, r3, lsl #20
    430c:	2c262d01 	stccs	13, cr2, [r6], #-4
    4310:	b3000000 	movwlt	r0, #0
    4314:	a5000029 	strge	r0, [r0, #-41]	; 0xffffffd7
    4318:	17000029 	strne	r0, [r0, -r9, lsr #32]
    431c:	000009f8 	strdeq	r0, [r0], -r8
    4320:	2c362d01 	ldccs	13, cr2, [r6], #-4
    4324:	1b000000 	blne	432c <__code_start__-0x3cd4>
    4328:	1300002a 	movwne	r0, #42	; 0x2a
    432c:	1d00002a 	stcne	0, cr0, [r0, #-168]	; 0xffffff58
    4330:	00000a04 	andeq	r0, r0, r4, lsl #20
    4334:	c20b2e01 	andgt	r2, fp, #1, 28
    4338:	63000000 	movwvs	r0, #0
    433c:	5500002a 	strpl	r0, [r0, #-42]	; 0xffffffd6
    4340:	0e00002a 	cdpeq	0, 0, cr0, cr0, cr10, {1}
    4344:	00000083 	andeq	r0, r0, r3, lsl #1
    4348:	000007d8 	ldrdeq	r0, [r0], -r8
    434c:	a9c40305 	stmibge	r4, {r0, r2, r8, r9}^
    4350:	980f0000 	stmdals	pc, {}	; <UNPREDICTABLE>
    4354:	bc00009b 	stclt	0, cr0, [r0], {155}	; 0x9b
    4358:	7e000008 	cdpvc	0, 0, cr0, cr0, cr8, {0}
    435c:	10000007 	andne	r0, r0, r7
    4360:	03055001 	movweq	r5, #20481	; 0x5001
    4364:	0000a268 	andeq	sl, r0, r8, ror #4
    4368:	05510110 	ldrbeq	r0, [r1, #-272]	; 0xfffffef0
    436c:	00a82c03 	adceq	r2, r8, r3, lsl #24
    4370:	52011000 	andpl	r1, r1, #0, 0
    4374:	a9c40305 	stmibge	r4, {r0, r2, r8, r9}^
    4378:	01100000 	tsteq	r0, r0
    437c:	30080253 	andcc	r0, r8, r3, asr r2
    4380:	007d0210 	rsbseq	r0, sp, r0, lsl r2
    4384:	a8380305 	ldmdage	r8!, {r0, r2, r8, r9}
    4388:	11000000 	mrsne	r0, (UNDEF: 0)
    438c:	00009b9c 	muleq	r0, ip, fp
    4390:	000008c8 	andeq	r0, r0, r8, asr #17
    4394:	009bc00f 	addseq	ip, fp, pc
    4398:	0008bc00 	andeq	fp, r8, r0, lsl #24
    439c:	0007be00 	andeq	fp, r7, r0, lsl #28
    43a0:	50011000 	andpl	r1, r1, r0
    43a4:	a8440305 	stmdage	r4, {r0, r2, r8, r9}^
    43a8:	01100000 	tsteq	r0, r0
    43ac:	2c030551 	cfstr32cs	mvfx0, [r3], {81}	; 0x51
    43b0:	100000a8 	andne	r0, r0, r8, lsr #1
    43b4:	03055201 	movweq	r5, #20993	; 0x5201
    43b8:	0000a9c4 	andeq	sl, r0, r4, asr #19
    43bc:	02530110 	subseq	r0, r3, #4
    43c0:	02103408 	andseq	r3, r0, #8, 8	; 0x8000000
    43c4:	f303007d 	vqadd.u8	q0, <illegal reg q1.5>, <illegal reg q14.5>
    43c8:	11005001 	tstne	r0, r1
    43cc:	00009bc4 	andeq	r9, r0, r4, asr #23
    43d0:	000008c8 	andeq	r0, r0, r8, asr #17
    43d4:	007e1200 	rsbseq	r1, lr, r0, lsl #4
    43d8:	07d80000 	ldrbeq	r0, [r8, r0]
    43dc:	2c130000 	ldccs	0, cr0, [r3], {-0}
    43e0:	16000000 	strne	r0, [r0], -r0
    43e4:	07c80500 	strbeq	r0, [r8, r0, lsl #10]
    43e8:	911f0000 	tstls	pc, r0
    43ec:	0100000a 	tsteq	r0, sl
    43f0:	008a072a 	addeq	r0, sl, sl, lsr #14
    43f4:	9b300000 	blls	c043fc <__bss_end__+0xbf9594>
    43f8:	00100000 	andseq	r0, r0, r0
    43fc:	9c010000 	stcls	0, cr0, [r1], {-0}
    4400:	0009e51f 	andeq	lr, r9, pc, lsl r5
    4404:	07290100 	streq	r0, [r9, -r0, lsl #2]!
    4408:	0000008a 	andeq	r0, r0, sl, lsl #1
    440c:	00009b20 	andeq	r9, r0, r0, lsr #22
    4410:	00000010 	andeq	r0, r0, r0, lsl r0
    4414:	461f9c01 	ldrmi	r9, [pc], -r1, lsl #24
    4418:	0100000a 	tsteq	r0, sl
    441c:	008a0728 	addeq	r0, sl, r8, lsr #14
    4420:	9b100000 	blls	404428 <__bss_end__+0x3f95c0>
    4424:	00100000 	andseq	r0, r0, r0
    4428:	9c010000 	stcls	0, cr0, [r1], {-0}
    442c:	000a1c20 	andeq	r1, sl, r0, lsr #24
    4430:	18100100 	ldmdane	r0, {r8}
    4434:	0000002c 	andeq	r0, r0, ip, lsr #32
    4438:	00085403 	andeq	r5, r8, r3, lsl #8
    443c:	00782100 	rsbseq	r2, r8, r0, lsl #2
    4440:	2c291001 	stccs	0, cr1, [r9], #-4
    4444:	21000000 	mrscs	r0, (UNDEF: 0)
    4448:	1001006e 	andne	r0, r1, lr, rrx
    444c:	00002c35 	andeq	r2, r0, r5, lsr ip
    4450:	00830e00 	addeq	r0, r3, r0, lsl #28
    4454:	05180000 	ldreq	r0, [r8, #-0]
    4458:	03050000 	movweq	r0, #20480	; 0x5000
    445c:	0000aa14 	andeq	sl, r0, r4, lsl sl
    4460:	0a672000 	beq	19cc468 <__bss_end__+0x19c1600>
    4464:	0d010000 	stceq	0, cr0, [r1, #-0]
    4468:	00002c18 	andeq	r2, r0, r8, lsl ip
    446c:	08700300 	ldmdaeq	r0!, {r8, r9}^
    4470:	78210000 	stmdavc	r1!, {}	; <UNPREDICTABLE>
    4474:	290d0100 	stmdbcs	sp, {r8}
    4478:	0000002c 	andeq	r0, r0, ip, lsr #32
    447c:	0a862000 	beq	fe18c484 <__bss_end__+0xfe18161c>
    4480:	07010000 	streq	r0, [r1, -r0]
    4484:	00002c18 	andeq	r2, r0, r8, lsl ip
    4488:	08960300 	ldmeq	r6, {r8, r9}
    448c:	78210000 	stmdavc	r1!, {}	; <UNPREDICTABLE>
    4490:	2c070100 	stfcss	f0, [r7], {-0}
    4494:	0000002c 	andeq	r0, r0, ip, lsr #32
    4498:	01006e21 	tsteq	r0, r1, lsr #28
    449c:	002c3807 	eoreq	r3, ip, r7, lsl #16
    44a0:	20000000 	andcs	r0, r0, r0
    44a4:	00000a38 	andeq	r0, r0, r8, lsr sl
    44a8:	5d180401 	cfldrspl	mvf0, [r8, #-4]
    44ac:	03000000 	movweq	r0, #0
    44b0:	000008bc 			; <UNDEFINED> instruction: 0x000008bc
    44b4:	01007821 	tsteq	r0, r1, lsr #16
    44b8:	005d2904 	subseq	r2, sp, r4, lsl #18
    44bc:	79210000 	stmdbvc	r1!, {}	; <UNPREDICTABLE>
    44c0:	35040100 	strcc	r0, [r4, #-256]	; 0xffffff00
    44c4:	0000005d 	andeq	r0, r0, sp, asr r0
    44c8:	05472200 	strbeq	r2, [r7, #-512]	; 0xfffffe00
    44cc:	05470000 	strbeq	r0, [r7, #-0]
    44d0:	28020000 	stmdacs	r2, {}	; <UNPREDICTABLE>
    44d4:	003e2206 	eorseq	r2, lr, r6, lsl #4
    44d8:	003e0000 	eorseq	r0, lr, r0
    44dc:	6e020000 	cdpvs	0, 0, cr0, cr2, cr0, {0}
    44e0:	0aa22206 	beq	fe88cd00 <__bss_end__+0xfe881e98>
    44e4:	0aa20000 	beq	fe8844ec <__bss_end__+0xfe879684>
    44e8:	1d020000 	stcne	0, cr0, [r2, #-0]
    44ec:	00772206 	rsbseq	r2, r7, r6, lsl #4
    44f0:	00770000 	rsbseq	r0, r7, r0
    44f4:	f2020000 	vhadd.s8	d0, d2, d0
    44f8:	06730007 	ldrbteq	r0, [r3], -r7
    44fc:	00040000 	andeq	r0, r4, r0
    4500:	000016da 	ldrdeq	r1, [r0], -sl
    4504:	04650104 	strbteq	r0, [r5], #-260	; 0xfffffefc
    4508:	f40c0000 	vst4.8	{d0-d3}, [ip], r0
    450c:	1d00000a 	stcne	0, cr0, [r0, #-40]	; 0xffffffd8
    4510:	c0000005 	andgt	r0, r0, r5
    4514:	9800009e 	stmdals	r0, {r1, r2, r3, r4, r7}
    4518:	17000001 	strne	r0, [r0, -r1]
    451c:	02000022 	andeq	r0, r0, #34, 0	; 0x22
    4520:	00900708 	addseq	r0, r0, r8, lsl #14
    4524:	04020000 	streq	r0, [r2], #-0
    4528:	00009a07 	andeq	r9, r0, r7, lsl #20
    452c:	05040300 	streq	r0, [r4, #-768]	; 0xfffffd00
    4530:	00746e69 	rsbseq	r6, r4, r9, ror #28
    4534:	00002c04 	andeq	r2, r0, r4, lsl #24
    4538:	06010200 	streq	r0, [r1], -r0, lsl #4
    453c:	0000006b 	andeq	r0, r0, fp, rrx
    4540:	e7050202 	str	r0, [r5, -r2, lsl #4]
    4544:	02000000 	andeq	r0, r0, #0, 0
    4548:	00ac0504 	adceq	r0, ip, r4, lsl #10
    454c:	08020000 	stmdaeq	r2, {}	; <UNPREDICTABLE>
    4550:	0000a705 	andeq	sl, r0, r5, lsl #14
    4554:	08010200 	stmdaeq	r1, {r9}
    4558:	00000069 	andeq	r0, r0, r9, rrx
    455c:	4b070202 	blmi	1c4d6c <__bss_end__+0x1b9f04>
    4560:	05000000 	streq	r0, [r0, #-0]
    4564:	0000023f 	andeq	r0, r0, pc, lsr r2
    4568:	75193403 	ldrvc	r3, [r9, #-1027]	; 0xfffffbfd
    456c:	02000000 	andeq	r0, r0, #0, 0
    4570:	00950704 	addseq	r0, r5, r4, lsl #14
    4574:	33060000 	movwcc	r0, #24576	; 0x6000
    4578:	8b000000 	blhi	4580 <__code_start__-0x3a80>
    457c:	07000000 	streq	r0, [r0, -r0]
    4580:	00000033 	andeq	r0, r0, r3, lsr r0
    4584:	00fb0800 	rscseq	r0, fp, r0, lsl #16
    4588:	1c020000 	stcne	0, cr0, [r2], {-0}
    458c:	0000970e 	andeq	r9, r0, lr, lsl #14
    4590:	7c040900 			; <UNDEFINED> instruction: 0x7c040900
    4594:	06000000 	streq	r0, [r0], -r0
    4598:	00000033 	andeq	r0, r0, r3, lsr r0
    459c:	000000ac 	andeq	r0, r0, ip, lsr #1
    45a0:	0000ac07 	andeq	sl, r0, r7, lsl #24
    45a4:	04090000 	streq	r0, [r9], #-0
    45a8:	000000b9 	strheq	r0, [r0], -r9
    45ac:	72080102 	andvc	r0, r8, #-2147483648	; 0x80000000
    45b0:	04000000 	streq	r0, [r0], #-0
    45b4:	000000b2 	strheq	r0, [r0], -r2
    45b8:	00058508 	andeq	r8, r5, r8, lsl #10
    45bc:	0e210200 	cdpeq	2, 2, cr0, cr1, cr0, {0}
    45c0:	000000ca 	andeq	r0, r0, sl, asr #1
    45c4:	009d0409 	addseq	r0, sp, r9, lsl #8
    45c8:	070a0000 	streq	r0, [sl, -r0]
    45cc:	00005b01 	andeq	r5, r0, r1, lsl #22
    45d0:	0e0c0400 	cfcpyseq	mvf0, mvf12
    45d4:	0000010f 	andeq	r0, r0, pc, lsl #2
    45d8:	0009bd0b 	andeq	fp, r9, fp, lsl #26
    45dc:	f50b0000 			; <UNDEFINED> instruction: 0xf50b0000
    45e0:	01000007 	tsteq	r0, r7
    45e4:	0008380b 	andeq	r3, r8, fp, lsl #16
    45e8:	470b0400 	strmi	r0, [fp, -r0, lsl #8]
    45ec:	05000008 	streq	r0, [r0, #-8]
    45f0:	0008560b 	andeq	r5, r8, fp, lsl #12
    45f4:	650b0600 	strvs	r0, [fp, #-1536]	; 0xfffffa00
    45f8:	07000008 	streq	r0, [r0, -r8]
    45fc:	0009860b 	andeq	r8, r9, fp, lsl #12
    4600:	740b0300 	strvc	r0, [fp], #-768	; 0xfffffd00
    4604:	02000008 	andeq	r0, r0, #8, 0
    4608:	0b2d0500 	bleq	b45a10 <__bss_end__+0xb3aba8>
    460c:	15040000 	strne	r0, [r4, #-0]
    4610:	0000d003 	andeq	sp, r0, r3
    4614:	0acb0c00 	beq	ff2c761c <__bss_end__+0xff2bc7b4>
    4618:	1d010000 	stcne	0, cr0, [r1, #-0]
    461c:	00003a17 	andeq	r3, r0, r7, lsl sl
    4620:	20001c00 	andcs	r1, r0, r0, lsl #24
    4624:	0ac10c20 	beq	ff0476ac <__bss_end__+0xff03c844>
    4628:	1e010000 	cdpne	0, 0, cr0, cr1, cr0, {0}
    462c:	00003a17 	andeq	r3, r0, r7, lsl sl
    4630:	20002800 	andcs	r2, r0, r0, lsl #16
    4634:	0b390c20 	bleq	e476bc <__bss_end__+0xe3c854>
    4638:	1f010000 	svcne	0x00010000
    463c:	00003a17 	andeq	r3, r0, r7, lsl sl
    4640:	20003400 	andcs	r3, r0, r0, lsl #8
    4644:	0aea0d20 	beq	ffa87acc <__bss_end__+0xffa7cc64>
    4648:	51010000 	mrspl	r0, (UNDEF: 1)
    464c:	00003305 	andeq	r3, r0, r5, lsl #6
    4650:	00a03000 	adceq	r3, r0, r0
    4654:	00002800 	andeq	r2, r0, r0, lsl #16
    4658:	ba9c0100 	blt	fe704a60 <__bss_end__+0xfe6f9bf8>
    465c:	0e000001 	cdpeq	0, 0, cr0, cr0, cr1, {0}
    4660:	006e6970 	rsbeq	r6, lr, r0, ror r9
    4664:	2c185101 	ldfcss	f5, [r8], {1}
    4668:	c9000000 	stmdbgt	r0, {}	; <UNPREDICTABLE>
    466c:	c300002a 	movwgt	r0, #42	; 0x2a
    4670:	0f00002a 	svceq	0x0000002a
    4674:	00000b43 	andeq	r0, r0, r3, asr #22
    4678:	2c0e5201 	sfmcs	f5, 4, [lr], {1}
    467c:	ff000000 			; <UNDEFINED> instruction: 0xff000000
    4680:	f500002a 			; <UNDEFINED> instruction: 0xf500002a
    4684:	1000002a 	andne	r0, r0, sl, lsr #32
    4688:	0066666f 	rsbeq	r6, r6, pc, ror #12
    468c:	2c0e5301 	stccs	3, cr5, [lr], {1}
    4690:	6d000000 	stcvs	0, cr0, [r0, #-0]
    4694:	6700002b 	strvs	r0, [r0, -fp, lsr #32]
    4698:	1100002b 	tstne	r0, fp, lsr #32
    469c:	0000a044 	andeq	sl, r0, r4, asr #32
    46a0:	0000065e 	andeq	r0, r0, lr, asr r6
    46a4:	0a500112 	beq	1404af4 <__bss_end__+0x13f9c8c>
    46a8:	25350074 	ldrcs	r0, [r5, #-116]!	; 0xffffff8c
    46ac:	8080b423 	addhi	fp, r0, r3, lsr #8
    46b0:	00000281 	andeq	r0, r0, r1, lsl #5
    46b4:	000ad513 	andeq	sp, sl, r3, lsl r5
    46b8:	064a0100 	strbeq	r0, [sl], -r0, lsl #2
    46bc:	0000a000 	andeq	sl, r0, r0
    46c0:	00000030 	andeq	r0, r0, r0, lsr r0
    46c4:	02759c01 	rsbseq	r9, r5, #256	; 0x100
    46c8:	700e0000 	andvc	r0, lr, r0
    46cc:	01006e69 	tsteq	r0, r9, ror #28
    46d0:	002c1a4a 	eoreq	r1, ip, sl, asr #20
    46d4:	2baa0000 	blcs	fea846dc <__bss_end__+0xfea79874>
    46d8:	2b9e0000 	blcs	fe7846e0 <__bss_end__+0xfe779878>
    46dc:	760e0000 	strvc	r0, [lr], -r0
    46e0:	284a0100 	stmdacs	sl, {r8}^
    46e4:	0000002c 	andeq	r0, r0, ip, lsr #32
    46e8:	00002bfe 	strdeq	r2, [r0], -lr
    46ec:	00002bfa 	strdeq	r2, [r0], -sl
    46f0:	00038d14 	andeq	r8, r3, r4, lsl sp
    46f4:	00a01000 	adceq	r1, r0, r0
    46f8:	04500100 	ldrbeq	r0, [r0], #-256	; 0xffffff00
    46fc:	4c010000 	stcmi	0, cr0, [r1], {-0}
    4700:	00023509 	andeq	r3, r2, r9, lsl #10
    4704:	039a1500 	orrseq	r1, sl, #0, 10
    4708:	2c250000 	stccs	0, cr0, [r5], #-0
    470c:	2c1f0000 	ldccs	0, cr0, [pc], {-0}
    4710:	1c160000 	ldcne	0, cr0, [r6], {-0}
    4714:	6a0000a0 	bvs	499c <__code_start__-0x3664>
    4718:	12000006 	andne	r0, r0, #6, 0
    471c:	0c055001 	stceq	0, cr5, [r5], {1}
    4720:	2020001c 	eorcs	r0, r0, ip, lsl r0
    4724:	05510112 	ldrbeq	r0, [r1, #-274]	; 0xfffffeee
    4728:	5001f331 	andpl	pc, r1, r1, lsr r3	; <UNPREDICTABLE>
    472c:	17000024 	strne	r0, [r0, -r4, lsr #32]
    4730:	00000373 	andeq	r0, r0, r3, ror r3
    4734:	0000a01c 	andeq	sl, r0, ip, lsl r0
    4738:	00a01c02 	adceq	r1, r0, r2, lsl #24
    473c:	00001400 	andeq	r1, r0, r0, lsl #8
    4740:	094e0100 	stmdbeq	lr, {r8}^
    4744:	00038015 	andeq	r8, r3, r5, lsl r0
    4748:	002c5700 	eoreq	r5, ip, r0, lsl #14
    474c:	002c5100 	eoreq	r5, ip, r0, lsl #2
    4750:	a0281600 	eorge	r1, r8, r0, lsl #12
    4754:	066a0000 	strbteq	r0, [sl], -r0
    4758:	01120000 	tsteq	r2, r0
    475c:	280c0550 	stmdacs	ip, {r4, r6, r8, sl}
    4760:	12202000 	eorne	r2, r0, #0, 0
    4764:	31055101 	tstcc	r5, r1, lsl #2
    4768:	245001f3 	ldrbcs	r0, [r0], #-499	; 0xfffffe0d
    476c:	13000000 	movwne	r0, #0
    4770:	00000b01 	andeq	r0, r0, r1, lsl #22
    4774:	a8064501 	stmdage	r6, {r0, r8, sl, lr}
    4778:	5800009f 	stmdapl	r0, {r0, r1, r2, r3, r4, r7}
    477c:	01000000 	mrseq	r0, (UNDEF: 0)
    4780:	0003739c 	muleq	r3, ip, r3
    4784:	69700e00 	ldmdbvs	r0!, {r9, sl, fp}^
    4788:	4501006e 	strmi	r0, [r1, #-110]	; 0xffffff92
    478c:	00002c1e 	andeq	r2, r0, lr, lsl ip
    4790:	002c8900 	eoreq	r8, ip, r0, lsl #18
    4794:	002c8300 	eoreq	r8, ip, r0, lsl #6
    4798:	04a51800 	strteq	r1, [r5], #2048	; 0x800
    479c:	9fa80000 	svcls	0x00a80000
    47a0:	10020000 	andne	r0, r2, r0
    47a4:	01000004 	tsteq	r0, r4
    47a8:	be190546 	cfmac32lt	mvfx0, mvfx9, mvfx6
    47ac:	00000004 	andeq	r0, r0, r4
    47b0:	0004b215 	andeq	fp, r4, r5, lsl r2
    47b4:	002cbb00 	eoreq	fp, ip, r0, lsl #22
    47b8:	002cb500 	eoreq	fp, ip, r0, lsl #10
    47bc:	04101a00 	ldreq	r1, [r0], #-2560	; 0xfffff600
    47c0:	ca1b0000 	bgt	6c47c8 <__bss_end__+0x6b9960>
    47c4:	1b000004 	blne	47dc <__code_start__-0x3824>
    47c8:	000004d6 	ldrdeq	r0, [r0], -r6
    47cc:	0004e01b 	andeq	lr, r4, fp, lsl r0
    47d0:	04a51800 	strteq	r1, [r5], #2048	; 0x800
    47d4:	9fb00000 	svcls	0x00b00000
    47d8:	30000000 	andcc	r0, r0, r0
    47dc:	01000004 	tsteq	r0, r4
    47e0:	be190628 	cfmsub32lt	mvax1, mvfx0, mvfx9, mvfx8
    47e4:	00000004 	andeq	r0, r0, r4
    47e8:	0004b215 	andeq	fp, r4, r5, lsl r2
    47ec:	002ced00 	eoreq	lr, ip, r0, lsl #26
    47f0:	002ce700 	eoreq	lr, ip, r0, lsl #14
    47f4:	04301a00 	ldrteq	r1, [r0], #-2560	; 0xfffff600
    47f8:	ca1c0000 	bgt	704800 <__bss_end__+0x6f9998>
    47fc:	1f000004 	svcne	0x00000004
    4800:	1900002d 	stmdbne	r0, {r0, r2, r3, r5}
    4804:	1c00002d 	stcne	0, cr0, [r0], {45}	; 0x2d
    4808:	000004d6 	ldrdeq	r0, [r0], -r6
    480c:	00002d61 	andeq	r2, r0, r1, ror #26
    4810:	00002d5b 	andeq	r2, r0, fp, asr sp
    4814:	0004e01c 	andeq	lr, r4, ip, lsl r0
    4818:	002db700 	eoreq	fp, sp, r0, lsl #14
    481c:	002daf00 	eoreq	sl, sp, r0, lsl #30
    4820:	9fd81d00 	svcls	0x00d81d00
    4824:	065e0000 	ldrbeq	r0, [lr], -r0
    4828:	033b0000 	teqeq	fp, #0, 0
    482c:	01120000 	tsteq	r2, r0
    4830:	00760250 	rsbseq	r0, r6, r0, asr r2
    4834:	9ffc1600 	svcls	0x00fc1600
    4838:	066a0000 	strbteq	r0, [sl], -r0
    483c:	01120000 	tsteq	r2, r0
    4840:	01f32550 	mvnseq	r2, r0, asr r5
    4844:	f72cf750 			; <UNDEFINED> instruction: 0xf72cf750
    4848:	0825f425 	stmdaeq	r5!, {r0, r2, r5, sl, ip, sp, lr, pc}
    484c:	cccccccd 	stclgt	12, cr12, [ip], {205}	; 0xcd
    4850:	00000000 	andeq	r0, r0, r0
    4854:	f720081e 			; <UNDEFINED> instruction: 0xf720081e
    4858:	2cf72525 	cfldr64cs	mvdx2, [r7], #148	; 0x94
    485c:	253300f7 	ldrcs	r0, [r3, #-247]!	; 0xffffff09
    4860:	a0808023 	addge	r8, r0, r3, lsr #32
    4864:	00243240 	eoreq	r3, r4, r0, asr #4
    4868:	00000000 	andeq	r0, r0, r0
    486c:	0b101e00 	bleq	40c074 <__bss_end__+0x40120c>
    4870:	40010000 	andmi	r0, r1, r0
    4874:	038d030d 	orreq	r0, sp, #872415232	; 0x34000000
    4878:	701f0000 	andsvc	r0, pc, r0
    487c:	01006e69 	tsteq	r0, r9, ror #28
    4880:	002c2340 	eoreq	r2, ip, r0, asr #6
    4884:	1e000000 	cdpne	0, 0, cr0, cr0, cr0, {0}
    4888:	00000b48 	andeq	r0, r0, r8, asr #22
    488c:	030d3b01 	movweq	r3, #56065	; 0xdb01
    4890:	000003a7 	andeq	r0, r0, r7, lsr #7
    4894:	6e69701f 	mcrvs	0, 3, r7, cr9, cr15, {0}
    4898:	223b0100 	eorscs	r0, fp, #0
    489c:	0000002c 	andeq	r0, r0, ip, lsr #32
    48a0:	0b1d1300 	bleq	7494a8 <__bss_end__+0x73e640>
    48a4:	36010000 	strcc	r0, [r1], -r0
    48a8:	009f2006 	addseq	r2, pc, r6
    48ac:	00005800 	andeq	r5, r0, r0, lsl #16
    48b0:	a59c0100 	ldrge	r0, [ip, #256]	; 0x100
    48b4:	0e000004 	cdpeq	0, 0, cr0, cr0, cr4, {0}
    48b8:	006e6970 	rsbeq	r6, lr, r0, ror r9
    48bc:	2c1f3601 	ldccs	6, cr3, [pc], {1}
    48c0:	15000000 	strne	r0, [r0, #-0]
    48c4:	1100002e 	tstne	r0, lr, lsr #32
    48c8:	1800002e 	stmdane	r0, {r1, r2, r3, r5}
    48cc:	000004a5 	andeq	r0, r0, r5, lsr #9
    48d0:	00009f20 	andeq	r9, r0, r0, lsr #30
    48d4:	0003d002 	andeq	sp, r3, r2
    48d8:	05370100 	ldreq	r0, [r7, #-256]!	; 0xffffff00
    48dc:	0004be19 	andeq	fp, r4, r9, lsl lr
    48e0:	b2150100 	andslt	r0, r5, #0
    48e4:	3a000004 	bcc	48fc <__code_start__-0x3704>
    48e8:	3600002e 	strcc	r0, [r0], -lr, lsr #32
    48ec:	1a00002e 	bne	49ac <__code_start__-0x3654>
    48f0:	000003d0 	ldrdeq	r0, [r0], -r0	; <UNPREDICTABLE>
    48f4:	0004ca1b 	andeq	ip, r4, fp, lsl sl
    48f8:	04d61b00 	ldrbeq	r1, [r6], #2816	; 0xb00
    48fc:	e01b0000 	ands	r0, fp, r0
    4900:	18000004 	stmdane	r0, {r2}
    4904:	000004a5 	andeq	r0, r0, r5, lsr #9
    4908:	00009f28 	andeq	r9, r0, r8, lsr #30
    490c:	0003f000 	andeq	pc, r3, r0
    4910:	06280100 	strteq	r0, [r8], -r0, lsl #2
    4914:	0004be19 	andeq	fp, r4, r9, lsl lr
    4918:	b2150100 	andslt	r0, r5, #0
    491c:	5f000004 	svcpl	0x00000004
    4920:	5b00002e 	blpl	49e0 <__code_start__-0x3620>
    4924:	1a00002e 	bne	49e4 <__code_start__-0x361c>
    4928:	000003f0 	strdeq	r0, [r0], -r0	; <UNPREDICTABLE>
    492c:	0004ca1c 	andeq	ip, r4, ip, lsl sl
    4930:	002e8400 	eoreq	r8, lr, r0, lsl #8
    4934:	002e8000 	eoreq	r8, lr, r0
    4938:	04d61c00 	ldrbeq	r1, [r6], #3072	; 0xc00
    493c:	2ed00000 	cdpcs	0, 13, cr0, cr0, cr0, {0}
    4940:	2eca0000 	cdpcs	0, 12, cr0, cr10, cr0, {0}
    4944:	e01c0000 	ands	r0, ip, r0
    4948:	26000004 	strcs	r0, [r0], -r4
    494c:	1e00002f 	cdpne	0, 0, cr0, cr0, cr15, {1}
    4950:	1d00002f 	stcne	0, cr0, [r0, #-188]	; 0xffffff44
    4954:	00009f54 	andeq	r9, r0, r4, asr pc
    4958:	0000065e 	andeq	r0, r0, lr, asr r6
    495c:	0000046d 	andeq	r0, r0, sp, ror #8
    4960:	02500112 	subseq	r0, r0, #-2147483644	; 0x80000004
    4964:	16000075 			; <UNDEFINED> instruction: 0x16000075
    4968:	00009f74 	andeq	r9, r0, r4, ror pc
    496c:	0000066a 	andeq	r0, r0, sl, ror #12
    4970:	25500112 	ldrbcs	r0, [r0, #-274]	; 0xfffffeee
    4974:	f75001f3 			; <UNDEFINED> instruction: 0xf75001f3
    4978:	f425f72c 	vld1.8	{d15}, [r5 :128], ip
    497c:	cccd0825 	stclgt	8, cr0, [sp], {37}	; 0x25
    4980:	0000cccc 	andeq	ip, r0, ip, asr #25
    4984:	081e0000 	ldmdaeq	lr, {}	; <UNPREDICTABLE>
    4988:	2525f720 	strcs	pc, [r5, #-1824]!	; 0xfffff8e0
    498c:	00f72cf7 	ldrshteq	r2, [r7], #199	; 0xc7
    4990:	80232533 	eorhi	r2, r3, r3, lsr r5
    4994:	3240a080 	subcc	sl, r0, #128, 0	; 0x80
    4998:	00000024 	andeq	r0, r0, r4, lsr #32
    499c:	1e000000 	cdpne	0, 0, cr0, cr0, cr0, {0}
    49a0:	000009cd 	andeq	r0, r0, sp, asr #19
    49a4:	01062801 	tsteq	r6, r1, lsl #16
    49a8:	000004eb 	andeq	r0, r0, fp, ror #9
    49ac:	6e69701f 	mcrvs	0, 3, r7, cr9, cr15, {0}
    49b0:	21280100 			; <UNDEFINED> instruction: 0x21280100
    49b4:	0000002c 	andeq	r0, r0, ip, lsr #32
    49b8:	00007e20 	andeq	r7, r0, r0, lsr #28
    49bc:	32280100 	eorcc	r0, r8, #0
    49c0:	0000010f 	andeq	r0, r0, pc, lsl #2
    49c4:	66666f21 	strbtvs	r6, [r6], -r1, lsr #30
    49c8:	0e2d0100 	sufeqe	f0, f5, f0
    49cc:	0000002c 	andeq	r0, r0, ip, lsr #32
    49d0:	01006721 	tsteq	r0, r1, lsr #14
    49d4:	002c0e2e 	eoreq	r0, ip, lr, lsr #28
    49d8:	76210000 	strtvc	r0, [r1], -r0
    49dc:	0e300100 	rsfeqs	f0, f0, f0
    49e0:	0000002c 	andeq	r0, r0, ip, lsr #32
    49e4:	0ae02200 	beq	ff80d1ec <__bss_end__+0xff802384>
    49e8:	b1020000 	mrslt	r0, (UNDEF: 2)
    49ec:	00006918 	andeq	r6, r0, r8, lsl r9
    49f0:	05070300 	streq	r0, [r7, #-768]	; 0xfffffd00
    49f4:	781f0000 	ldmdavc	pc, {}	; <UNPREDICTABLE>
    49f8:	2bb10200 	blcs	fec45200 <__bss_end__+0xfec3a398>
    49fc:	00000069 	andeq	r0, r0, r9, rrx
    4a00:	04a52300 	strteq	r2, [r5], #768	; 0x300
    4a04:	9ec00000 	cdpls	0, 12, cr0, cr0, cr0, {0}
    4a08:	00600000 	rsbeq	r0, r0, r0
    4a0c:	9c010000 	stcls	0, cr0, [r1], {-0}
    4a10:	000005e4 	andeq	r0, r0, r4, ror #11
    4a14:	0004b215 	andeq	fp, r4, r5, lsl r2
    4a18:	002f6500 	eoreq	r6, pc, r0, lsl #10
    4a1c:	002f6100 	eoreq	r6, pc, r0, lsl #2
    4a20:	04be1500 	ldrteq	r1, [lr], #1280	; 0x500
    4a24:	2f8a0000 	svccs	0x008a0000
    4a28:	2f860000 	svccs	0x00860000
    4a2c:	ca1b0000 	bgt	6c4a34 <__bss_end__+0x6b9bcc>
    4a30:	1b000004 	blne	4a48 <__code_start__-0x35b8>
    4a34:	000004d6 	ldrdeq	r0, [r0], -r6
    4a38:	0004e01b 	andeq	lr, r4, fp, lsl r0
    4a3c:	04a51800 	strteq	r1, [r5], #2048	; 0x800
    4a40:	9ec80000 	cdpls	0, 12, cr0, cr8, cr0, {0}
    4a44:	b0000000 	andlt	r0, r0, r0
    4a48:	01000003 	tsteq	r0, r3
    4a4c:	be150628 	cfmsub32lt	mvax1, mvfx0, mvfx5, mvfx8
    4a50:	af000004 	svcge	0x00000004
    4a54:	ab00002f 	blge	4b18 <__code_start__-0x34e8>
    4a58:	1500002f 	strne	r0, [r0, #-47]	; 0xffffffd1
    4a5c:	000004b2 			; <UNDEFINED> instruction: 0x000004b2
    4a60:	00002fd4 	ldrdeq	r2, [r0], -r4
    4a64:	00002fd0 	ldrdeq	r2, [r0], -r0
    4a68:	0003b01a 	andeq	fp, r3, sl, lsl r0
    4a6c:	04ca1c00 	strbeq	r1, [sl], #3072	; 0xc00
    4a70:	2ff90000 	svccs	0x00f90000
    4a74:	2ff50000 	svccs	0x00f50000
    4a78:	d61c0000 	ldrle	r0, [ip], -r0
    4a7c:	45000004 	strmi	r0, [r0, #-4]
    4a80:	3f000030 	svccc	0x00000030
    4a84:	1c000030 	stcne	0, cr0, [r0], {48}	; 0x30
    4a88:	000004e0 	andeq	r0, r0, r0, ror #9
    4a8c:	0000309b 	muleq	r0, fp, r0
    4a90:	00003093 	muleq	r0, r3, r0
    4a94:	009f001d 	addseq	r0, pc, sp, lsl r0	; <UNPREDICTABLE>
    4a98:	00065e00 	andeq	r5, r6, r0, lsl #28
    4a9c:	0005ae00 	andeq	sl, r5, r0, lsl #28
    4aa0:	50011200 	andpl	r1, r1, r0, lsl #4
    4aa4:	00007602 	andeq	r7, r0, r2, lsl #12
    4aa8:	009f1c16 	addseq	r1, pc, r6, lsl ip	; <UNPREDICTABLE>
    4aac:	00066a00 	andeq	r6, r6, r0, lsl #20
    4ab0:	50011200 	andpl	r1, r1, r0, lsl #4
    4ab4:	5001f325 	andpl	pc, r1, r5, lsr #6
    4ab8:	25f72cf7 	ldrbcs	r2, [r7, #3319]!	; 0xcf7
    4abc:	cd0825f4 	cfstr32gt	mvfx2, [r8, #-976]	; 0xfffffc30
    4ac0:	00cccccc 	sbceq	ip, ip, ip, asr #25
    4ac4:	1e000000 	cdpne	0, 0, cr0, cr0, cr0, {0}
    4ac8:	25f72008 	ldrbcs	r2, [r7, #8]!
    4acc:	f72cf725 			; <UNDEFINED> instruction: 0xf72cf725
    4ad0:	23253300 			; <UNDEFINED> instruction: 0x23253300
    4ad4:	40a08080 	adcmi	r8, r0, r0, lsl #1
    4ad8:	00002432 	andeq	r2, r0, r2, lsr r4
    4adc:	8d230000 	stchi	0, cr0, [r3, #-0]
    4ae0:	78000003 	stmdavc	r0, {r0, r1}
    4ae4:	1800009f 	stmdane	r0, {r0, r1, r2, r3, r4, r7}
    4ae8:	01000000 	mrseq	r0, (UNDEF: 0)
    4aec:	0006219c 	muleq	r6, ip, r1
    4af0:	039a1500 	orrseq	r1, sl, #0, 10
    4af4:	30f10000 	rscscc	r0, r1, r0
    4af8:	30eb0000 	rsccc	r0, fp, r0
    4afc:	8c160000 	ldchi	0, cr0, [r6], {-0}
    4b00:	6a00009f 	bvs	4d84 <__code_start__-0x327c>
    4b04:	12000006 	andne	r0, r0, #6, 0
    4b08:	0c055001 	stceq	0, cr5, [r5], {1}
    4b0c:	2020001c 	eorcs	r0, r0, ip, lsl r0
    4b10:	05510112 	ldrbeq	r0, [r1, #-274]	; 0xfffffeee
    4b14:	5001f331 	andpl	pc, r1, r1, lsr r3	; <UNPREDICTABLE>
    4b18:	23000024 	movwcs	r0, #36	; 0x24
    4b1c:	00000373 	andeq	r0, r0, r3, ror r3
    4b20:	00009f90 	muleq	r0, r0, pc	; <UNPREDICTABLE>
    4b24:	00000018 	andeq	r0, r0, r8, lsl r0
    4b28:	065e9c01 	ldrbeq	r9, [lr], -r1, lsl #24
    4b2c:	80150000 	andshi	r0, r5, r0
    4b30:	23000003 	movwcs	r0, #3
    4b34:	1d000031 	stcne	0, cr0, [r0, #-196]	; 0xffffff3c
    4b38:	16000031 			; <UNDEFINED> instruction: 0x16000031
    4b3c:	00009fa4 	andeq	r9, r0, r4, lsr #31
    4b40:	0000066a 	andeq	r0, r0, sl, ror #12
    4b44:	05500112 	ldrbeq	r0, [r0, #-274]	; 0xfffffeee
    4b48:	2000280c 	andcs	r2, r0, ip, lsl #16
    4b4c:	51011220 	tstpl	r1, r0, lsr #4
    4b50:	01f33105 	mvnseq	r3, r5, lsl #2
    4b54:	00002450 	andeq	r2, r0, r0, asr r4
    4b58:	0007a224 	andeq	sl, r7, r4, lsr #4
    4b5c:	0007a200 	andeq	sl, r7, r0, lsl #4
    4b60:	0ac20200 	beq	ff085368 <__bss_end__+0xff07a500>
    4b64:	00070e24 	andeq	r0, r7, r4, lsr #28
    4b68:	00070e00 	andeq	r0, r7, r0, lsl #28
    4b6c:	06ad0200 	strteq	r0, [sp], r0, lsl #4
    4b70:	00014900 	andeq	r4, r1, r0, lsl #18
    4b74:	08000400 	stmdaeq	r0, {sl}
    4b78:	04000019 	streq	r0, [r0], #-25	; 0xffffffe7
    4b7c:	00046501 	andeq	r6, r4, r1, lsl #10
    4b80:	0b720c00 	bleq	1c87b88 <__bss_end__+0x1c7cd20>
    4b84:	051d0000 	ldreq	r0, [sp, #-0]
    4b88:	a0580000 	subsge	r0, r8, r0
    4b8c:	003c0000 	eorseq	r0, ip, r0
    4b90:	24a40000 	strtcs	r0, [r4], #0
    4b94:	04020000 	streq	r0, [r2], #-0
    4b98:	746e6905 	strbtvc	r6, [lr], #-2309	; 0xfffff6fb
    4b9c:	07040300 	streq	r0, [r4, -r0, lsl #6]
    4ba0:	0000009a 	muleq	r0, sl, r0
    4ba4:	6b060103 	blvs	184fb8 <__bss_end__+0x17a150>
    4ba8:	03000000 	movweq	r0, #0
    4bac:	00e70502 	rsceq	r0, r7, r2, lsl #10
    4bb0:	04030000 	streq	r0, [r3], #-0
    4bb4:	0000ac05 	andeq	sl, r0, r5, lsl #24
    4bb8:	05080300 	streq	r0, [r8, #-768]	; 0xfffffd00
    4bbc:	000000a7 	andeq	r0, r0, r7, lsr #1
    4bc0:	69080103 	stmdbvs	r8, {r0, r1, r8}
    4bc4:	03000000 	movweq	r0, #0
    4bc8:	004b0702 	subeq	r0, fp, r2, lsl #14
    4bcc:	04030000 	streq	r0, [r3], #-0
    4bd0:	00009507 	andeq	r9, r0, r7, lsl #10
    4bd4:	07080300 	streq	r0, [r8, -r0, lsl #6]
    4bd8:	00000090 	muleq	r0, r0, r0
    4bdc:	00002504 	andeq	r2, r0, r4, lsl #10
    4be0:	00007a00 	andeq	r7, r0, r0, lsl #20
    4be4:	00250500 	eoreq	r0, r5, r0, lsl #10
    4be8:	06000000 	streq	r0, [r0], -r0
    4bec:	000000fb 	strdeq	r0, [r0], -fp
    4bf0:	860e1c02 	strhi	r1, [lr], -r2, lsl #24
    4bf4:	07000000 	streq	r0, [r0, -r0]
    4bf8:	00006b04 	andeq	r6, r0, r4, lsl #22
    4bfc:	00250400 	eoreq	r0, r5, r0, lsl #8
    4c00:	009b0000 	addseq	r0, fp, r0
    4c04:	9b050000 	blls	144c0c <__bss_end__+0x139da4>
    4c08:	00000000 	andeq	r0, r0, r0
    4c0c:	00a80407 	adceq	r0, r8, r7, lsl #8
    4c10:	01030000 	mrseq	r0, (UNDEF: 3)
    4c14:	00007208 	andeq	r7, r0, r8, lsl #4
    4c18:	00a10800 	adceq	r0, r1, r0, lsl #16
    4c1c:	85060000 	strhi	r0, [r6, #-0]
    4c20:	02000005 	andeq	r0, r0, #5, 0
    4c24:	00b90e21 	adcseq	r0, r9, r1, lsr #28
    4c28:	04070000 	streq	r0, [r7], #-0
    4c2c:	0000008c 	andeq	r0, r0, ip, lsl #1
    4c30:	00007a09 	andeq	r7, r0, r9, lsl #20
    4c34:	07060100 	streq	r0, [r6, -r0, lsl #2]
    4c38:	aa380305 	bge	e05854 <__bss_end__+0xdfa9ec>
    4c3c:	650a0000 	strvs	r0, [sl, #-0]
    4c40:	0100000b 	tsteq	r0, fp
    4c44:	a084060b 	addge	r0, r4, fp, lsl #12
    4c48:	00100000 	andseq	r0, r0, r0
    4c4c:	9c010000 	stcls	0, cr0, [r1], {-0}
    4c50:	000000f1 	strdeq	r0, [r0], -r1
    4c54:	0070660b 	rsbseq	r6, r0, fp, lsl #12
    4c58:	86190b01 	ldrhi	r0, [r9], -r1, lsl #22
    4c5c:	01000000 	mrseq	r0, (UNDEF: 0)
    4c60:	a20c0050 	andge	r0, ip, #80, 0	; 0x50
    4c64:	0100000a 	tsteq	r0, sl
    4c68:	a06c0608 	rsbge	r0, ip, r8, lsl #12
    4c6c:	00180000 	andseq	r0, r8, r0
    4c70:	9c010000 	stcls	0, cr0, [r1], {-0}
    4c74:	000b540d 	andeq	r5, fp, sp, lsl #8
    4c78:	0c030100 	stfeqs	f0, [r3], {-0}
    4c7c:	00000025 	andeq	r0, r0, r5, lsr #32
    4c80:	0000a058 	andeq	sl, r0, r8, asr r0
    4c84:	00000014 	andeq	r0, r0, r4, lsl r0
    4c88:	01409c01 	cmpeq	r0, r1, lsl #24
    4c8c:	630e0000 	movwvs	r0, #57344	; 0xe000
    4c90:	21030100 	mrscs	r0, (UNDEF: 19)
    4c94:	00000025 	andeq	r0, r0, r5, lsr #32
    4c98:	00003153 	andeq	r3, r0, r3, asr r1
    4c9c:	0000314f 	andeq	r3, r0, pc, asr #2
    4ca0:	00a0640f 	adceq	r6, r0, pc, lsl #8
    4ca4:	00014000 	andeq	r4, r1, r0
    4ca8:	50011000 	andpl	r1, r1, r0
    4cac:	00007402 	andeq	r7, r0, r2, lsl #8
    4cb0:	09b31100 	ldmibeq	r3!, {r8, ip}
    4cb4:	09b30000 	ldmibeq	r3!, {}	; <UNPREDICTABLE>
    4cb8:	42020000 	andmi	r0, r2, #0, 0
    4cbc:	01370006 	teqeq	r7, r6
    4cc0:	00040000 	andeq	r0, r4, r0
    4cc4:	00001a17 	andeq	r1, r0, r7, lsl sl
    4cc8:	04650104 	strbteq	r0, [r5], #-260	; 0xfffffefc
    4ccc:	830c0000 	movwhi	r0, #49152	; 0xc000
    4cd0:	1d00000b 	stcne	0, cr0, [r0, #-44]	; 0xffffffd4
    4cd4:	94000005 	strls	r0, [r0], #-5
    4cd8:	2c0000a0 	stccs	0, cr0, [r0], {160}	; 0xa0
    4cdc:	46000000 	strmi	r0, [r0], -r0
    4ce0:	02000025 	andeq	r0, r0, #37, 0	; 0x25
    4ce4:	6e690504 	cdpvs	5, 6, cr0, cr9, cr4, {0}
    4ce8:	04030074 	streq	r0, [r3], #-116	; 0xffffff8c
    4cec:	00009a07 	andeq	r9, r0, r7, lsl #20
    4cf0:	06010300 	streq	r0, [r1], -r0, lsl #6
    4cf4:	0000006b 	andeq	r0, r0, fp, rrx
    4cf8:	e7050203 	str	r0, [r5, -r3, lsl #4]
    4cfc:	03000000 	movweq	r0, #0
    4d00:	00ac0504 	adceq	r0, ip, r4, lsl #10
    4d04:	08030000 	stmdaeq	r3, {}	; <UNPREDICTABLE>
    4d08:	0000a705 	andeq	sl, r0, r5, lsl #14
    4d0c:	08010300 	stmdaeq	r1, {r8, r9}
    4d10:	00000069 	andeq	r0, r0, r9, rrx
    4d14:	4b070203 	blmi	1c5528 <__bss_end__+0x1ba6c0>
    4d18:	03000000 	movweq	r0, #0
    4d1c:	00950704 	addseq	r0, r5, r4, lsl #14
    4d20:	08030000 	stmdaeq	r3, {}	; <UNPREDICTABLE>
    4d24:	00009007 	andeq	r9, r0, r7
    4d28:	00250400 	eoreq	r0, r5, r0, lsl #8
    4d2c:	007a0000 	rsbseq	r0, sl, r0
    4d30:	25050000 	strcs	r0, [r5, #-0]
    4d34:	00000000 	andeq	r0, r0, r0
    4d38:	0000fb06 	andeq	pc, r0, r6, lsl #22
    4d3c:	0e1c0200 	cdpeq	2, 1, cr0, cr12, cr0, {0}
    4d40:	00000086 	andeq	r0, r0, r6, lsl #1
    4d44:	006b0407 	rsbeq	r0, fp, r7, lsl #8
    4d48:	25040000 	strcs	r0, [r4, #-0]
    4d4c:	9b000000 	blls	4d54 <__code_start__-0x32ac>
    4d50:	05000000 	streq	r0, [r0, #-0]
    4d54:	0000009b 	muleq	r0, fp, r0
    4d58:	a8040700 	stmdage	r4, {r8, r9, sl}
    4d5c:	03000000 	movweq	r0, #0
    4d60:	00720801 	rsbseq	r0, r2, r1, lsl #16
    4d64:	a1080000 	mrsge	r0, (UNDEF: 8)
    4d68:	06000000 	streq	r0, [r0], -r0
    4d6c:	00000585 	andeq	r0, r0, r5, lsl #11
    4d70:	b90e2102 	stmdblt	lr, {r1, r8, sp}
    4d74:	07000000 	streq	r0, [r0, -r0]
    4d78:	00008c04 	andeq	r8, r0, r4, lsl #24
    4d7c:	06010900 	streq	r0, [r1], -r0, lsl #18
    4d80:	04010000 	streq	r0, [r1], #-0
    4d84:	00013407 	andeq	r3, r1, r7, lsl #8
    4d88:	00a09400 	adceq	r9, r0, r0, lsl #8
    4d8c:	00002c00 	andeq	r2, r0, r0, lsl #24
    4d90:	349c0100 	ldrcc	r0, [ip], #256	; 0x100
    4d94:	0a000001 	beq	4da0 <__code_start__-0x3260>
    4d98:	00000b93 	muleq	r0, r3, fp
    4d9c:	34150401 	ldrcc	r0, [r5], #-1025	; 0xfffffbff
    4da0:	01000001 	tsteq	r0, r1
    4da4:	72730b50 	rsbsvc	r0, r3, #80, 22	; 0x14000
    4da8:	04010063 	streq	r0, [r1], #-99	; 0xffffff9d
    4dac:	00009b27 	andeq	r9, r0, r7, lsr #22
    4db0:	00317500 	eorseq	r7, r1, r0, lsl #10
    4db4:	00317100 	eorseq	r7, r1, r0, lsl #2
    4db8:	31730c00 	cmncc	r3, r0, lsl #24
    4dbc:	0b050100 	bleq	1451c4 <__bss_end__+0x13a35c>
    4dc0:	00000134 	andeq	r0, r0, r4, lsr r1
    4dc4:	000031a4 	andeq	r3, r0, r4, lsr #3
    4dc8:	00003196 	muleq	r0, r6, r1
    4dcc:	0032730c 	eorseq	r7, r2, ip, lsl #6
    4dd0:	9b110601 	blls	4465dc <__bss_end__+0x43b774>
    4dd4:	03000000 	movweq	r0, #0
    4dd8:	fd000032 	stc2	0, cr0, [r0, #-200]	; 0xffffff38
    4ddc:	0c000031 	stceq	0, cr0, [r0], {49}	; 0x31
    4de0:	07010063 	streq	r0, [r1, -r3, rrx]
    4de4:	0000a10a 	andeq	sl, r0, sl, lsl #2
    4de8:	00323400 	eorseq	r3, r2, r0, lsl #8
    4dec:	00322e00 	eorseq	r2, r2, r0, lsl #28
    4df0:	04070000 	streq	r0, [r7], #-0
    4df4:	000000a1 	andeq	r0, r0, r1, lsr #1
    4df8:	0000f700 	andeq	pc, r0, r0, lsl #14
    4dfc:	cd000400 	cfstrsgt	mvf0, [r0, #-0]
    4e00:	0400001a 	streq	r0, [r0], #-26	; 0xffffffe6
    4e04:	00046501 	andeq	r6, r4, r1, lsl #10
    4e08:	0b980c00 	bleq	fe607e10 <__bss_end__+0xfe5fcfa8>
    4e0c:	051d0000 	ldreq	r0, [sp, #-0]
    4e10:	a0c00000 	sbcge	r0, r0, r0
    4e14:	00440000 	subeq	r0, r4, r0
    4e18:	262c0000 	strtcs	r0, [ip], -r0
    4e1c:	04020000 	streq	r0, [r2], #-0
    4e20:	746e6905 	strbtvc	r6, [lr], #-2309	; 0xfffff6fb
    4e24:	07040300 	streq	r0, [r4, -r0, lsl #6]
    4e28:	0000009a 	muleq	r0, sl, r0
    4e2c:	6b060103 	blvs	185240 <__bss_end__+0x17a3d8>
    4e30:	03000000 	movweq	r0, #0
    4e34:	00e70502 	rsceq	r0, r7, r2, lsl #10
    4e38:	04030000 	streq	r0, [r3], #-0
    4e3c:	0000ac05 	andeq	sl, r0, r5, lsl #24
    4e40:	05080300 	streq	r0, [r8, #-768]	; 0xfffffd00
    4e44:	000000a7 	andeq	r0, r0, r7, lsr #1
    4e48:	69080103 	stmdbvs	r8, {r0, r1, r8}
    4e4c:	03000000 	movweq	r0, #0
    4e50:	004b0702 	subeq	r0, fp, r2, lsl #14
    4e54:	04030000 	streq	r0, [r3], #-0
    4e58:	00009507 	andeq	r9, r0, r7, lsl #10
    4e5c:	07080300 	streq	r0, [r8, -r0, lsl #6]
    4e60:	00000090 	muleq	r0, r0, r0
    4e64:	00002504 	andeq	r2, r0, r4, lsl #10
    4e68:	00007a00 	andeq	r7, r0, r0, lsl #20
    4e6c:	00250500 	eoreq	r0, r5, r0, lsl #10
    4e70:	06000000 	streq	r0, [r0], -r0
    4e74:	000000fb 	strdeq	r0, [r0], -fp
    4e78:	860e1c02 	strhi	r1, [lr], -r2, lsl #24
    4e7c:	07000000 	streq	r0, [r0, -r0]
    4e80:	00006b04 	andeq	r6, r0, r4, lsl #22
    4e84:	00250400 	eoreq	r0, r5, r0, lsl #8
    4e88:	009b0000 	addseq	r0, fp, r0
    4e8c:	9b050000 	blls	144e94 <__bss_end__+0x13a02c>
    4e90:	00000000 	andeq	r0, r0, r0
    4e94:	00a80407 	adceq	r0, r8, r7, lsl #8
    4e98:	01030000 	mrseq	r0, (UNDEF: 3)
    4e9c:	00007208 	andeq	r7, r0, r8, lsl #4
    4ea0:	00a10800 	adceq	r0, r1, r0, lsl #16
    4ea4:	85060000 	strhi	r0, [r6, #-0]
    4ea8:	02000005 	andeq	r0, r0, #5, 0
    4eac:	00b90e21 	adcseq	r0, r9, r1, lsr #28
    4eb0:	04070000 	streq	r0, [r7], #-0
    4eb4:	0000008c 	andeq	r0, r0, ip, lsl #1
    4eb8:	00062f09 	andeq	r2, r6, r9, lsl #30
    4ebc:	05030100 	streq	r0, [r3, #-256]	; 0xffffff00
    4ec0:	00000025 	andeq	r0, r0, r5, lsr #32
    4ec4:	0000a0c0 	andeq	sl, r0, r0, asr #1
    4ec8:	00000044 	andeq	r0, r0, r4, asr #32
    4ecc:	610a9c01 	tstvs	sl, r1, lsl #24
    4ed0:	18030100 	stmdane	r3, {r8}
    4ed4:	0000009b 	muleq	r0, fp, r0
    4ed8:	0000326b 	andeq	r3, r0, fp, ror #4
    4edc:	0000325f 	andeq	r3, r0, pc, asr r2
    4ee0:	0100620a 	tsteq	r0, sl, lsl #4
    4ee4:	009b2703 	addseq	r2, fp, r3, lsl #14
    4ee8:	32bf0000 	adcscc	r0, pc, #0, 0
    4eec:	32b90000 	adcscc	r0, r9, #0, 0
    4ef0:	00000000 	andeq	r0, r0, r0
    4ef4:	0000010f 	andeq	r0, r0, pc, lsl #2
    4ef8:	1b5c0004 	blne	1704f10 <__bss_end__+0x16fa0a8>
    4efc:	01040000 	mrseq	r0, (UNDEF: 4)
    4f00:	00000465 	andeq	r0, r0, r5, ror #8
    4f04:	000ba80c 	andeq	sl, fp, ip, lsl #16
    4f08:	00051d00 	andeq	r1, r5, r0, lsl #26
    4f0c:	00a10400 	adceq	r0, r1, r0, lsl #8
    4f10:	00001800 	andeq	r1, r0, r0, lsl #16
    4f14:	0026e200 	eoreq	lr, r6, r0, lsl #4
    4f18:	05040200 	streq	r0, [r4, #-512]	; 0xfffffe00
    4f1c:	00746e69 	rsbseq	r6, r4, r9, ror #28
    4f20:	9a070403 	bls	1c5f34 <__bss_end__+0x1bb0cc>
    4f24:	03000000 	movweq	r0, #0
    4f28:	006b0601 	rsbeq	r0, fp, r1, lsl #12
    4f2c:	02030000 	andeq	r0, r3, #0, 0
    4f30:	0000e705 	andeq	lr, r0, r5, lsl #14
    4f34:	05040300 	streq	r0, [r4, #-768]	; 0xfffffd00
    4f38:	000000ac 	andeq	r0, r0, ip, lsr #1
    4f3c:	a7050803 	strge	r0, [r5, -r3, lsl #16]
    4f40:	03000000 	movweq	r0, #0
    4f44:	00690801 	rsbeq	r0, r9, r1, lsl #16
    4f48:	02030000 	andeq	r0, r3, #0, 0
    4f4c:	00004b07 	andeq	r4, r0, r7, lsl #22
    4f50:	07040300 	streq	r0, [r4, -r0, lsl #6]
    4f54:	00000095 	muleq	r0, r5, r0
    4f58:	90070803 	andls	r0, r7, r3, lsl #16
    4f5c:	04000000 	streq	r0, [r0], #-0
    4f60:	00000025 	andeq	r0, r0, r5, lsr #32
    4f64:	0000007a 	andeq	r0, r0, sl, ror r0
    4f68:	00002505 	andeq	r2, r0, r5, lsl #10
    4f6c:	fb060000 	blx	184f76 <__bss_end__+0x17a10e>
    4f70:	02000000 	andeq	r0, r0, #0, 0
    4f74:	00860e1c 	addeq	r0, r6, ip, lsl lr
    4f78:	04070000 	streq	r0, [r7], #-0
    4f7c:	0000006b 	andeq	r0, r0, fp, rrx
    4f80:	00002504 	andeq	r2, r0, r4, lsl #10
    4f84:	00009b00 	andeq	r9, r0, r0, lsl #22
    4f88:	009b0500 	addseq	r0, fp, r0, lsl #10
    4f8c:	07000000 	streq	r0, [r0, -r0]
    4f90:	0000a804 	andeq	sl, r0, r4, lsl #16
    4f94:	08010300 	stmdaeq	r1, {r8, r9}
    4f98:	00000072 	andeq	r0, r0, r2, ror r0
    4f9c:	0000a108 	andeq	sl, r0, r8, lsl #2
    4fa0:	05850600 	streq	r0, [r5, #1536]	; 0x600
    4fa4:	21020000 	mrscs	r0, (UNDEF: 2)
    4fa8:	0000b90e 	andeq	fp, r0, lr, lsl #18
    4fac:	8c040700 	stchi	7, cr0, [r4], {-0}
    4fb0:	09000000 	stmdbeq	r0, {}	; <UNPREDICTABLE>
    4fb4:	00000608 	andeq	r0, r0, r8, lsl #12
    4fb8:	0c070301 	stceq	3, cr0, [r7], {1}
    4fbc:	04000001 	streq	r0, [r0], #-1
    4fc0:	180000a1 	stmdane	r0, {r0, r5, r7}
    4fc4:	01000000 	mrseq	r0, (UNDEF: 0)
    4fc8:	00010c9c 	muleq	r1, ip, ip
    4fcc:	31730a00 	cmncc	r3, r0, lsl #20
    4fd0:	15030100 	strne	r0, [r3, #-256]	; 0xffffff00
    4fd4:	0000010c 	andeq	r0, r0, ip, lsl #2
    4fd8:	730b5001 	movwvc	r5, #45057	; 0xb001
    4fdc:	03010032 	movweq	r0, #4146	; 0x1032
    4fe0:	00009b26 	andeq	r9, r0, r6, lsr #22
    4fe4:	0032ee00 	eorseq	lr, r2, r0, lsl #28
    4fe8:	0032e800 	eorseq	lr, r2, r0, lsl #16
    4fec:	00730c00 	rsbseq	r0, r3, r0, lsl #24
    4ff0:	0c140401 	cfldrseq	mvf0, [r4], {1}
    4ff4:	1b000001 	blne	5000 <__code_start__-0x3000>
    4ff8:	19000033 	stmdbne	r0, {r0, r1, r4, r5}
    4ffc:	00000033 	andeq	r0, r0, r3, lsr r0
    5000:	00a10407 	adceq	r0, r1, r7, lsl #8
    5004:	4e000000 	cdpmi	0, 0, cr0, cr0, cr0, {0}
    5008:	04000001 	streq	r0, [r0], #-1
    500c:	001c1200 	andseq	r1, ip, r0, lsl #4
    5010:	65010400 	strvs	r0, [r1, #-1024]	; 0xfffffc00
    5014:	0c000004 	stceq	0, cr0, [r0], {4}
    5018:	00000bb8 			; <UNDEFINED> instruction: 0x00000bb8
    501c:	0000051d 	andeq	r0, r0, sp, lsl r5
    5020:	0000a11c 	andeq	sl, r0, ip, lsl r1
    5024:	00000030 	andeq	r0, r0, r0, lsr r0
    5028:	00002783 	andeq	r2, r0, r3, lsl #15
    502c:	69050402 	stmdbvs	r5, {r1, sl}
    5030:	0300746e 	movweq	r7, #1134	; 0x46e
    5034:	0000044e 	andeq	r0, r0, lr, asr #8
    5038:	3817d103 	ldmdacc	r7, {r0, r1, r8, ip, lr, pc}
    503c:	04000000 	streq	r0, [r0], #-0
    5040:	009a0704 	addseq	r0, sl, r4, lsl #14
    5044:	01040000 	mrseq	r0, (UNDEF: 4)
    5048:	00006b06 	andeq	r6, r0, r6, lsl #22
    504c:	05020400 	streq	r0, [r2, #-1024]	; 0xfffffc00
    5050:	000000e7 	andeq	r0, r0, r7, ror #1
    5054:	ac050404 	cfstrsge	mvf0, [r5], {4}
    5058:	04000000 	streq	r0, [r0], #-0
    505c:	00a70508 	adceq	r0, r7, r8, lsl #10
    5060:	01040000 	mrseq	r0, (UNDEF: 4)
    5064:	00006908 	andeq	r6, r0, r8, lsl #18
    5068:	005b0500 	subseq	r0, fp, r0, lsl #10
    506c:	02040000 	andeq	r0, r4, #0, 0
    5070:	00004b07 	andeq	r4, r0, r7, lsl #22
    5074:	07040400 	streq	r0, [r4, -r0, lsl #8]
    5078:	00000095 	muleq	r0, r5, r0
    507c:	90070804 	andls	r0, r7, r4, lsl #16
    5080:	06000000 	streq	r0, [r0], -r0
    5084:	00000025 	andeq	r0, r0, r5, lsr #32
    5088:	0000008b 	andeq	r0, r0, fp, lsl #1
    508c:	00002507 	andeq	r2, r0, r7, lsl #10
    5090:	fb080000 	blx	20509a <__bss_end__+0x1fa232>
    5094:	02000000 	andeq	r0, r0, #0, 0
    5098:	00970e1c 	addseq	r0, r7, ip, lsl lr
    509c:	04090000 	streq	r0, [r9], #-0
    50a0:	0000007c 	andeq	r0, r0, ip, ror r0
    50a4:	00002506 	andeq	r2, r0, r6, lsl #10
    50a8:	0000ac00 	andeq	sl, r0, r0, lsl #24
    50ac:	00ac0700 	adceq	r0, ip, r0, lsl #14
    50b0:	09000000 	stmdbeq	r0, {}	; <UNPREDICTABLE>
    50b4:	0000b904 	andeq	fp, r0, r4, lsl #18
    50b8:	08010400 	stmdaeq	r1, {sl}
    50bc:	00000072 	andeq	r0, r0, r2, ror r0
    50c0:	0000b205 	andeq	fp, r0, r5, lsl #4
    50c4:	05850800 	streq	r0, [r5, #2048]	; 0x800
    50c8:	21020000 	mrscs	r0, (UNDEF: 2)
    50cc:	0000ca0e 	andeq	ip, r0, lr, lsl #20
    50d0:	9d040900 	vstrls.16	s0, [r4, #-0]	; <UNPREDICTABLE>
    50d4:	0a000000 	beq	50dc <__code_start__-0x2f24>
    50d8:	00000650 	andeq	r0, r0, r0, asr r6
    50dc:	25050401 	strcs	r0, [r5, #-1025]	; 0xfffffbff
    50e0:	1c000000 	stcne	0, cr0, [r0], {-0}
    50e4:	300000a1 	andcc	r0, r0, r1, lsr #1
    50e8:	01000000 	mrseq	r0, (UNDEF: 0)
    50ec:	00014b9c 	muleq	r1, ip, fp
    50f0:	735f0b00 	cmpvc	pc, #0, 22
    50f4:	04010031 	streq	r0, [r1], #-49	; 0xffffffcf
    50f8:	0000ac19 	andeq	sl, r0, r9, lsl ip
    50fc:	00333200 	eorseq	r3, r3, r0, lsl #4
    5100:	00332e00 	eorseq	r2, r3, r0, lsl #28
    5104:	735f0b00 	cmpvc	pc, #0, 22
    5108:	04010032 	streq	r0, [r1], #-50	; 0xffffffce
    510c:	0000ac2a 	andeq	sl, r0, sl, lsr #24
    5110:	00335700 	eorseq	r5, r3, r0, lsl #14
    5114:	00335300 	eorseq	r5, r3, r0, lsl #6
    5118:	006e0b00 	rsbeq	r0, lr, r0, lsl #22
    511c:	2c360401 	cfldrscs	mvf0, [r6], #-4
    5120:	82000000 	andhi	r0, r0, #0, 0
    5124:	78000033 	stmdavc	r0, {r0, r1, r4, r5}
    5128:	0c000033 	stceq	0, cr0, [r0], {51}	; 0x33
    512c:	01003173 	tsteq	r0, r3, ror r1
    5130:	014b1a05 	cmpeq	fp, r5, lsl #20
    5134:	33d90000 	bicscc	r0, r9, #0, 0
    5138:	33d10000 	bicscc	r0, r1, #0, 0
    513c:	730c0000 	movwvc	r0, #49152	; 0xc000
    5140:	05010032 	streq	r0, [r1, #-50]	; 0xffffffce
    5144:	00014b2c 	andeq	r4, r1, ip, lsr #22
    5148:	00341700 	eorseq	r1, r4, r0, lsl #14
    514c:	00341100 	eorseq	r1, r4, r0, lsl #2
    5150:	04090000 	streq	r0, [r9], #-0
    5154:	00000062 	andeq	r0, r0, r2, rrx
    5158:	0000ce00 	andeq	ip, r0, r0, lsl #28
    515c:	c6000400 	strgt	r0, [r0], -r0, lsl #8
    5160:	0400001c 	streq	r0, [r0], #-28	; 0xffffffe4
    5164:	00046501 	andeq	r6, r4, r1, lsl #10
    5168:	0bc90c00 	bleq	ff248170 <__bss_end__+0xff23d308>
    516c:	051d0000 	ldreq	r0, [sp, #-0]
    5170:	a14c0000 	mrsge	r0, (UNDEF: 76)
    5174:	00040000 	andeq	r0, r4, r0
    5178:	28840000 	stmcs	r4, {}	; <UNPREDICTABLE>
    517c:	04020000 	streq	r0, [r2], #-0
    5180:	746e6905 	strbtvc	r6, [lr], #-2309	; 0xfffff6fb
    5184:	07040300 	streq	r0, [r4, -r0, lsl #6]
    5188:	0000009a 	muleq	r0, sl, r0
    518c:	6b060103 	blvs	1855a0 <__bss_end__+0x17a738>
    5190:	03000000 	movweq	r0, #0
    5194:	00e70502 	rsceq	r0, r7, r2, lsl #10
    5198:	04030000 	streq	r0, [r3], #-0
    519c:	0000ac05 	andeq	sl, r0, r5, lsl #24
    51a0:	05080300 	streq	r0, [r8, #-768]	; 0xfffffd00
    51a4:	000000a7 	andeq	r0, r0, r7, lsr #1
    51a8:	69080103 	stmdbvs	r8, {r0, r1, r8}
    51ac:	03000000 	movweq	r0, #0
    51b0:	004b0702 	subeq	r0, fp, r2, lsl #14
    51b4:	04030000 	streq	r0, [r3], #-0
    51b8:	00009507 	andeq	r9, r0, r7, lsl #10
    51bc:	07080300 	streq	r0, [r8, -r0, lsl #6]
    51c0:	00000090 	muleq	r0, r0, r0
    51c4:	00002504 	andeq	r2, r0, r4, lsl #10
    51c8:	00007a00 	andeq	r7, r0, r0, lsl #20
    51cc:	00250500 	eoreq	r0, r5, r0, lsl #10
    51d0:	06000000 	streq	r0, [r0], -r0
    51d4:	000000fb 	strdeq	r0, [r0], -fp
    51d8:	860e1c02 	strhi	r1, [lr], -r2, lsl #24
    51dc:	07000000 	streq	r0, [r0, -r0]
    51e0:	00006b04 	andeq	r6, r0, r4, lsl #22
    51e4:	00250400 	eoreq	r0, r5, r0, lsl #8
    51e8:	009b0000 	addseq	r0, fp, r0
    51ec:	9b050000 	blls	1451f4 <__bss_end__+0x13a38c>
    51f0:	00000000 	andeq	r0, r0, r0
    51f4:	00a80407 	adceq	r0, r8, r7, lsl #8
    51f8:	01030000 	mrseq	r0, (UNDEF: 3)
    51fc:	00007208 	andeq	r7, r0, r8, lsl #4
    5200:	00a10800 	adceq	r0, r1, r0, lsl #16
    5204:	85060000 	strhi	r0, [r6, #-0]
    5208:	02000005 	andeq	r0, r0, #5, 0
    520c:	00b90e21 	adcseq	r0, r9, r1, lsr #28
    5210:	04070000 	streq	r0, [r7], #-0
    5214:	0000008c 	andeq	r0, r0, ip, lsl #1
    5218:	0006f709 	andeq	pc, r6, r9, lsl #14
    521c:	06030100 	streq	r0, [r3], -r0, lsl #2
    5220:	0000a14c 	andeq	sl, r0, ip, asr #2
    5224:	00000004 	andeq	r0, r0, r4
    5228:	Address 0x0000000000005228 is out of bounds.


Disassembly of section .debug_abbrev:

00000000 <.debug_abbrev>:
       0:	25011101 	strcs	r1, [r1, #-257]	; 0xfffffeff
       4:	030b130e 	movweq	r1, #45838	; 0xb30e
       8:	110e1b0e 	tstne	lr, lr, lsl #22
       c:	10061201 	andne	r1, r6, r1, lsl #4
      10:	02000017 	andeq	r0, r0, #23, 0
      14:	0b0b0024 	bleq	2c00ac <__bss_end__+0x2b5244>
      18:	08030b3e 	stmdaeq	r3, {r1, r2, r3, r4, r5, r8, r9, fp}
      1c:	24030000 	strcs	r0, [r3], #-0
      20:	3e0b0b00 	vmlacc.f64	d0, d11, d0
      24:	000e030b 	andeq	r0, lr, fp, lsl #6
      28:	01150400 	tsteq	r5, r0, lsl #8
      2c:	13491927 	movtne	r1, #39207	; 0x9927
      30:	00001301 	andeq	r1, r0, r1, lsl #6
      34:	49000505 	stmdbmi	r0, {r0, r2, r8, sl}
      38:	06000013 			; <UNDEFINED> instruction: 0x06000013
      3c:	0e030034 	mcreq	0, 0, r0, cr3, cr4, {1}
      40:	0b3b0b3a 	bleq	ec2d30 <__bss_end__+0xeb7ec8>
      44:	13490b39 	movtne	r0, #39737	; 0x9b39
      48:	193c193f 	ldmdbne	ip!, {r0, r1, r2, r3, r4, r5, r8, fp, ip}
      4c:	0f070000 	svceq	0x00070000
      50:	490b0b00 	stmdbmi	fp, {r8, r9, fp}
      54:	08000013 	stmdaeq	r0, {r0, r1, r4}
      58:	13490026 	movtne	r0, #36902	; 0x9026
      5c:	13090000 	movwne	r0, #36864	; 0x9000
      60:	3a0b0b01 	bcc	2c2c6c <__bss_end__+0x2b7e04>
      64:	390b3b0b 	stmdbcc	fp, {r0, r1, r3, r8, r9, fp, ip, sp}
      68:	0013010b 	andseq	r0, r3, fp, lsl #2
      6c:	000d0a00 	andeq	r0, sp, r0, lsl #20
      70:	0b3a0e03 	bleq	e83884 <__bss_end__+0xe78a1c>
      74:	0b390b3b 	bleq	e42d68 <__bss_end__+0xe37f00>
      78:	0b381349 	bleq	e04da4 <__bss_end__+0xdf9f3c>
      7c:	160b0000 	strne	r0, [fp], -r0
      80:	3a0e0300 	bcc	380c88 <__bss_end__+0x375e20>
      84:	390b3b0b 	stmdbcc	fp, {r0, r1, r3, r8, r9, fp, ip, sp}
      88:	0013490b 	andseq	r4, r3, fp, lsl #18
      8c:	012e0c00 			; <UNDEFINED> instruction: 0x012e0c00
      90:	0e03193f 			; <UNDEFINED> instruction: 0x0e03193f
      94:	0b3b0b3a 	bleq	ec2d84 <__bss_end__+0xeb7f1c>
      98:	19270b39 	stmdbne	r7!, {r0, r3, r4, r5, r8, r9, fp}
      9c:	06120111 			; <UNDEFINED> instruction: 0x06120111
      a0:	42971840 	addsmi	r1, r7, #64, 16	; 0x400000
      a4:	00130119 	andseq	r0, r3, r9, lsl r1
      a8:	00340d00 	eorseq	r0, r4, r0, lsl #26
      ac:	0b3a0803 	bleq	e820c0 <__bss_end__+0xe77258>
      b0:	0b390b3b 	bleq	e42da4 <__bss_end__+0xe37f3c>
      b4:	17021349 	strne	r1, [r2, -r9, asr #6]
      b8:	001742b7 			; <UNDEFINED> instruction: 0x001742b7
      bc:	00340e00 	eorseq	r0, r4, r0, lsl #28
      c0:	13490e03 	movtne	r0, #40451	; 0x9e03
      c4:	18021934 	stmdane	r2, {r2, r4, r5, r8, fp, ip}
      c8:	890f0000 	stmdbhi	pc, {}	; <UNPREDICTABLE>
      cc:	11010182 	smlabbne	r1, r2, r1, r0
      d0:	01133101 	tsteq	r3, r1, lsl #2
      d4:	10000013 	andne	r0, r0, r3, lsl r0
      d8:	0001828a 	andeq	r8, r1, sl, lsl #5
      dc:	42911802 	addsmi	r1, r1, #131072	; 0x20000
      e0:	11000018 	tstne	r0, r8, lsl r0
      e4:	00018289 	andeq	r8, r1, r9, lsl #5
      e8:	13310111 	teqne	r1, #1073741828	; 0x40000004
      ec:	01120000 	tsteq	r2, r0
      f0:	01134901 	tsteq	r3, r1, lsl #18
      f4:	13000013 	movwne	r0, #19
      f8:	13490021 	movtne	r0, #36897	; 0x9021
      fc:	00000b2f 	andeq	r0, r0, pc, lsr #22
     100:	3f012e14 	svccc	0x00012e14
     104:	3a0e0319 	bcc	380d70 <__bss_end__+0x375f08>
     108:	390b3b0b 	stmdbcc	fp, {r0, r1, r3, r8, r9, fp, ip, sp}
     10c:	4919270b 	ldmdbmi	r9, {r0, r1, r3, r8, r9, sl, sp}
     110:	12011113 	andne	r1, r1, #-1073741820	; 0xc0000004
     114:	97184006 	ldrls	r4, [r8, -r6]
     118:	13011942 	movwne	r1, #6466	; 0x1942
     11c:	1d150000 	ldcne	0, cr0, [r5, #-0]
     120:	52133101 	andspl	r3, r3, #1073741824	; 0x40000000
     124:	0b42b801 	bleq	10ae130 <__bss_end__+0x10a32c8>
     128:	06120111 			; <UNDEFINED> instruction: 0x06120111
     12c:	0b590b58 	bleq	1642e94 <__bss_end__+0x163802c>
     130:	13010b57 	movwne	r0, #6999	; 0x1b57
     134:	05160000 	ldreq	r0, [r6, #-0]
     138:	02133100 	andseq	r3, r3, #0
     13c:	1742b717 	smlaldne	fp, r2, r7, r7
     140:	89170000 	ldmdbhi	r7, {}	; <UNPREDICTABLE>
     144:	11010182 	smlabbne	r1, r2, r1, r0
     148:	00133101 	andseq	r3, r3, r1, lsl #2
     14c:	012e1800 			; <UNDEFINED> instruction: 0x012e1800
     150:	0b3a0e03 	bleq	e83964 <__bss_end__+0xe78afc>
     154:	0b390b3b 	bleq	e42e48 <__bss_end__+0xe37fe0>
     158:	13491927 	movtne	r1, #39207	; 0x9927
     15c:	13010b20 	movwne	r0, #6944	; 0x1b20
     160:	05190000 	ldreq	r0, [r9, #-0]
     164:	3a0e0300 	bcc	380d6c <__bss_end__+0x375f04>
     168:	390b3b0b 	stmdbcc	fp, {r0, r1, r3, r8, r9, fp, ip, sp}
     16c:	0013490b 	andseq	r4, r3, fp, lsl #18
     170:	002e1a00 	eoreq	r1, lr, r0, lsl #20
     174:	193c193f 	ldmdbne	ip!, {r0, r1, r2, r3, r4, r5, r8, fp, ip}
     178:	0e030e6e 	cdpeq	14, 0, cr0, cr3, cr14, {3}
     17c:	0b3b0b3a 	bleq	ec2e6c <__bss_end__+0xeb8004>
     180:	00000b39 	andeq	r0, r0, r9, lsr fp
     184:	0200361b 	andeq	r3, r0, #28311552	; 0x1b00000
     188:	00000018 	andeq	r0, r0, r8, lsl r0
     18c:	25011101 	strcs	r1, [r1, #-257]	; 0xfffffeff
     190:	030b130e 	movweq	r1, #45838	; 0xb30e
     194:	110e1b0e 	tstne	lr, lr, lsl #22
     198:	10061201 	andne	r1, r6, r1, lsl #4
     19c:	02000017 	andeq	r0, r0, #23, 0
     1a0:	0b0b0024 	bleq	2c0238 <__bss_end__+0x2b53d0>
     1a4:	08030b3e 	stmdaeq	r3, {r1, r2, r3, r4, r5, r8, r9, fp}
     1a8:	24030000 	strcs	r0, [r3], #-0
     1ac:	3e0b0b00 	vmlacc.f64	d0, d11, d0
     1b0:	000e030b 	andeq	r0, lr, fp, lsl #6
     1b4:	00160400 	andseq	r0, r6, r0, lsl #8
     1b8:	0b3a0e03 	bleq	e839cc <__bss_end__+0xe78b64>
     1bc:	0b390b3b 	bleq	e42eb0 <__bss_end__+0xe38048>
     1c0:	00001349 	andeq	r1, r0, r9, asr #6
     1c4:	27011505 	strcs	r1, [r1, -r5, lsl #10]
     1c8:	01134919 	tsteq	r3, r9, lsl r9
     1cc:	06000013 			; <UNDEFINED> instruction: 0x06000013
     1d0:	13490005 	movtne	r0, #36869	; 0x9005
     1d4:	34070000 	strcc	r0, [r7], #-0
     1d8:	3a0e0300 	bcc	380de0 <__bss_end__+0x375f78>
     1dc:	390b3b0b 	stmdbcc	fp, {r0, r1, r3, r8, r9, fp, ip, sp}
     1e0:	3f13490b 	svccc	0x0013490b
     1e4:	00193c19 	andseq	r3, r9, r9, lsl ip
     1e8:	000f0800 	andeq	r0, pc, r0, lsl #16
     1ec:	13490b0b 	movtne	r0, #39691	; 0x9b0b
     1f0:	26090000 	strcs	r0, [r9], -r0
     1f4:	00134900 	andseq	r4, r3, r0, lsl #18
     1f8:	01130a00 	tsteq	r3, r0, lsl #20
     1fc:	0b3a0b0b 	bleq	e82e30 <__bss_end__+0xe77fc8>
     200:	0b390b3b 	bleq	e42ef4 <__bss_end__+0xe3808c>
     204:	00001301 	andeq	r1, r0, r1, lsl #6
     208:	03000d0b 	movweq	r0, #3339	; 0xd0b
     20c:	3b0b3a0e 	blcc	2cea4c <__bss_end__+0x2c3be4>
     210:	490b390b 	stmdbmi	fp, {r0, r1, r3, r8, fp, ip, sp}
     214:	000b3813 	andeq	r3, fp, r3, lsl r8
     218:	01040c00 	tsteq	r4, r0, lsl #24
     21c:	0b0b0b3e 	bleq	2c2f1c <__bss_end__+0x2b80b4>
     220:	0b3a1349 	bleq	e84f4c <__bss_end__+0xe7a0e4>
     224:	0b390b3b 	bleq	e42f18 <__bss_end__+0xe380b0>
     228:	00001301 	andeq	r1, r0, r1, lsl #6
     22c:	0300280d 	movweq	r2, #2061	; 0x80d
     230:	000b1c0e 	andeq	r1, fp, lr, lsl #24
     234:	01130e00 	tsteq	r3, r0, lsl #28
     238:	0b0b0e03 	bleq	2c3a4c <__bss_end__+0x2b8be4>
     23c:	0b3b0b3a 	bleq	ec2f2c <__bss_end__+0xeb80c4>
     240:	13010b39 	movwne	r0, #6969	; 0x1b39
     244:	0f0f0000 	svceq	0x000f0000
     248:	000b0b00 	andeq	r0, fp, r0, lsl #22
     24c:	00341000 	eorseq	r1, r4, r0
     250:	0b3a0e03 	bleq	e83a64 <__bss_end__+0xe78bfc>
     254:	0b390b3b 	bleq	e42f48 <__bss_end__+0xe380e0>
     258:	18021349 	stmdane	r2, {r0, r3, r6, r8, r9, ip}
     25c:	2e110000 	cdpcs	0, 1, cr0, cr1, cr0, {0}
     260:	03193f01 	tsteq	r9, #1, 30
     264:	3b0b3a0e 	blcc	2ceaa4 <__bss_end__+0x2c3c3c>
     268:	270b390b 	strcs	r3, [fp, -fp, lsl #18]
     26c:	11134919 	tstne	r3, r9, lsl r9
     270:	40061201 	andmi	r1, r6, r1, lsl #4
     274:	19429718 	stmdbne	r2, {r3, r4, r8, r9, sl, ip, pc}^
     278:	00001301 	andeq	r1, r0, r1, lsl #6
     27c:	03000512 	movweq	r0, #1298	; 0x512
     280:	3b0b3a0e 	blcc	2ceac0 <__bss_end__+0x2c3c58>
     284:	490b390b 	stmdbmi	fp, {r0, r1, r3, r8, fp, ip, sp}
     288:	b7170213 			; <UNDEFINED> instruction: 0xb7170213
     28c:	00001742 	andeq	r1, r0, r2, asr #14
     290:	03000513 	movweq	r0, #1299	; 0x513
     294:	3b0b3a08 	blcc	2ceabc <__bss_end__+0x2c3c54>
     298:	490b390b 	stmdbmi	fp, {r0, r1, r3, r8, fp, ip, sp}
     29c:	00180213 	andseq	r0, r8, r3, lsl r2
     2a0:	00341400 	eorseq	r1, r4, r0, lsl #8
     2a4:	0b3a0803 	bleq	e822b8 <__bss_end__+0xe77450>
     2a8:	0b390b3b 	bleq	e42f9c <__bss_end__+0xe38134>
     2ac:	17021349 	strne	r1, [r2, -r9, asr #6]
     2b0:	001742b7 			; <UNDEFINED> instruction: 0x001742b7
     2b4:	82891500 	addhi	r1, r9, #0, 10
     2b8:	01110101 	tsteq	r1, r1, lsl #2
     2bc:	13011331 	movwne	r1, #4913	; 0x1331
     2c0:	8a160000 	bhi	5802c8 <__bss_end__+0x575460>
     2c4:	02000182 	andeq	r0, r0, #-2147483616	; 0x80000020
     2c8:	18429118 	stmdane	r2, {r3, r4, r8, ip, pc}^
     2cc:	89170000 	ldmdbhi	r7, {}	; <UNPREDICTABLE>
     2d0:	11010182 	smlabbne	r1, r2, r1, r0
     2d4:	00133101 	andseq	r3, r3, r1, lsl #2
     2d8:	012e1800 			; <UNDEFINED> instruction: 0x012e1800
     2dc:	0e03193f 			; <UNDEFINED> instruction: 0x0e03193f
     2e0:	0b3b0b3a 	bleq	ec2fd0 <__bss_end__+0xeb8168>
     2e4:	19270b39 	stmdbne	r7!, {r0, r3, r4, r5, r8, r9, fp}
     2e8:	06120111 			; <UNDEFINED> instruction: 0x06120111
     2ec:	42971840 	addsmi	r1, r7, #64, 16	; 0x400000
     2f0:	00130119 	andseq	r0, r3, r9, lsl r1
     2f4:	00341900 	eorseq	r1, r4, r0, lsl #18
     2f8:	13490e03 	movtne	r0, #40451	; 0x9e03
     2fc:	18021934 	stmdane	r2, {r2, r4, r5, r8, fp, ip}
     300:	891a0000 	ldmdbhi	sl, {}	; <UNPREDICTABLE>
     304:	11000182 	smlabbne	r0, r2, r1, r0
     308:	00133101 	andseq	r3, r3, r1, lsl #2
     30c:	01011b00 	tsteq	r1, r0, lsl #22
     310:	13011349 	movwne	r1, #4937	; 0x1349
     314:	211c0000 	tstcs	ip, r0
     318:	2f134900 	svccs	0x00134900
     31c:	1d00000b 	stcne	0, cr0, [r0, #-44]	; 0xffffffd4
     320:	0e03012e 	adfeqsp	f0, f3, #0.5
     324:	0b3b0b3a 	bleq	ec3014 <__bss_end__+0xeb81ac>
     328:	19270b39 	stmdbne	r7!, {r0, r3, r4, r5, r8, r9, fp}
     32c:	06120111 			; <UNDEFINED> instruction: 0x06120111
     330:	42971840 	addsmi	r1, r7, #64, 16	; 0x400000
     334:	00130119 	andseq	r0, r3, r9, lsl r1
     338:	00051e00 	andeq	r1, r5, r0, lsl #28
     33c:	0b3a0803 	bleq	e82350 <__bss_end__+0xe774e8>
     340:	0b390b3b 	bleq	e43034 <__bss_end__+0xe381cc>
     344:	17021349 	strne	r1, [r2, -r9, asr #6]
     348:	001742b7 			; <UNDEFINED> instruction: 0x001742b7
     34c:	00341f00 	eorseq	r1, r4, r0, lsl #30
     350:	0b3a0e03 	bleq	e83b64 <__bss_end__+0xe78cfc>
     354:	0b390b3b 	bleq	e43048 <__bss_end__+0xe381e0>
     358:	17021349 	strne	r1, [r2, -r9, asr #6]
     35c:	001742b7 			; <UNDEFINED> instruction: 0x001742b7
     360:	010b2000 	mrseq	r2, (UNDEF: 11)
     364:	06120111 			; <UNDEFINED> instruction: 0x06120111
     368:	1d210000 	stcne	0, cr0, [r1, #-0]
     36c:	52133101 	andspl	r3, r3, #1073741824	; 0x40000000
     370:	0b42b801 	bleq	10ae37c <__bss_end__+0x10a3514>
     374:	06120111 			; <UNDEFINED> instruction: 0x06120111
     378:	0b590b58 	bleq	16430e0 <__bss_end__+0x1638278>
     37c:	13010b57 	movwne	r0, #6999	; 0x1b57
     380:	05220000 	streq	r0, [r2, #-0]!
     384:	02133100 	andseq	r3, r3, #0
     388:	1742b717 	smlaldne	fp, r2, r7, r7
     38c:	2e230000 	cdpcs	0, 2, cr0, cr3, cr0, {0}
     390:	03193f00 	tsteq	r9, #0, 30
     394:	3b0b3a0e 	blcc	2cebd4 <__bss_end__+0x2c3d6c>
     398:	270b390b 	strcs	r3, [fp, -fp, lsl #18]
     39c:	11134919 	tstne	r3, r9, lsl r9
     3a0:	40061201 	andmi	r1, r6, r1, lsl #4
     3a4:	19429718 	stmdbne	r2, {r3, r4, r8, r9, sl, ip, pc}^
     3a8:	2e240000 	cdpcs	0, 2, cr0, cr4, cr0, {0}
     3ac:	3a0e0301 	bcc	380fb8 <__bss_end__+0x376150>
     3b0:	390b3b0b 	stmdbcc	fp, {r0, r1, r3, r8, r9, fp, ip, sp}
     3b4:	4919270b 	ldmdbmi	r9, {r0, r1, r3, r8, r9, sl, sp}
     3b8:	010b2013 	tsteq	fp, r3, lsl r0
     3bc:	25000013 	strcs	r0, [r0, #-19]	; 0xffffffed
     3c0:	08030005 	stmdaeq	r3, {r0, r2}
     3c4:	0b3b0b3a 	bleq	ec30b4 <__bss_end__+0xeb824c>
     3c8:	13490b39 	movtne	r0, #39737	; 0x9b39
     3cc:	2e260000 	cdpcs	0, 2, cr0, cr6, cr0, {0}
     3d0:	3c193f00 	ldccc	15, cr3, [r9], {-0}
     3d4:	030e6e19 	movweq	r6, #60953	; 0xee19
     3d8:	3b0b3a0e 	blcc	2cec18 <__bss_end__+0x2c3db0>
     3dc:	000b390b 	andeq	r3, fp, fp, lsl #18
     3e0:	11010000 	mrsne	r0, (UNDEF: 1)
     3e4:	130e2501 	movwne	r2, #58625	; 0xe501
     3e8:	1b0e030b 	blne	38101c <__bss_end__+0x3761b4>
     3ec:	1201110e 	andne	r1, r1, #-2147483645	; 0x80000003
     3f0:	00171006 	andseq	r1, r7, r6
     3f4:	00240200 	eoreq	r0, r4, r0, lsl #4
     3f8:	0b3e0b0b 	bleq	f8302c <__bss_end__+0xf781c4>
     3fc:	00000803 	andeq	r0, r0, r3, lsl #16
     400:	0b002403 	bleq	9414 <va_printk+0x3f0>
     404:	030b3e0b 	movweq	r3, #48651	; 0xbe0b
     408:	0400000e 	streq	r0, [r0], #-14
     40c:	19270115 	stmdbne	r7!, {r0, r2, r4, r8}
     410:	13011349 	movwne	r1, #4937	; 0x1349
     414:	05050000 	streq	r0, [r5, #-0]
     418:	00134900 	andseq	r4, r3, r0, lsl #18
     41c:	00340600 	eorseq	r0, r4, r0, lsl #12
     420:	0b3a0e03 	bleq	e83c34 <__bss_end__+0xe78dcc>
     424:	0b390b3b 	bleq	e43118 <__bss_end__+0xe382b0>
     428:	193f1349 	ldmdbne	pc!, {r0, r3, r6, r8, r9, ip}	; <UNPREDICTABLE>
     42c:	0000193c 	andeq	r1, r0, ip, lsr r9
     430:	0b000f07 	bleq	4054 <__code_start__-0x3fac>
     434:	0013490b 	andseq	r4, r3, fp, lsl #18
     438:	00260800 	eoreq	r0, r6, r0, lsl #16
     43c:	00001349 	andeq	r1, r0, r9, asr #6
     440:	03011709 	movweq	r1, #5897	; 0x1709
     444:	3a0b0b0e 	bcc	2c3084 <__bss_end__+0x2b821c>
     448:	390b3b0b 	stmdbcc	fp, {r0, r1, r3, r8, r9, fp, ip, sp}
     44c:	0013010b 	andseq	r0, r3, fp, lsl #2
     450:	000d0a00 	andeq	r0, sp, r0, lsl #20
     454:	0b3a0803 	bleq	e82468 <__bss_end__+0xe77600>
     458:	0b390b3b 	bleq	e4314c <__bss_end__+0xe382e4>
     45c:	00001349 	andeq	r1, r0, r9, asr #6
     460:	0b000f0b 	bleq	4094 <__code_start__-0x3f6c>
     464:	0c00000b 	stceq	0, cr0, [r0], {11}
     468:	19270015 	stmdbne	r7!, {r0, r2, r4}
     46c:	130d0000 	movwne	r0, #53248	; 0xd000
     470:	3a0b0b01 	bcc	2c307c <__bss_end__+0x2b8214>
     474:	390b3b0b 	stmdbcc	fp, {r0, r1, r3, r8, r9, fp, ip, sp}
     478:	0013010b 	andseq	r0, r3, fp, lsl #2
     47c:	000d0e00 	andeq	r0, sp, r0, lsl #28
     480:	0b3a0803 	bleq	e82494 <__bss_end__+0xe7762c>
     484:	0b390b3b 	bleq	e43178 <__bss_end__+0xe38310>
     488:	0b381349 	bleq	e051b4 <__bss_end__+0xdfa34c>
     48c:	0d0f0000 	stceq	0, cr0, [pc, #-0]	; 494 <__code_start__-0x7b6c>
     490:	3a0e0300 	bcc	381098 <__bss_end__+0x376230>
     494:	390b3b0b 	stmdbcc	fp, {r0, r1, r3, r8, r9, fp, ip, sp}
     498:	3813490b 	ldmdacc	r3, {r0, r1, r3, r8, fp, lr}
     49c:	1000000b 	andne	r0, r0, fp
     4a0:	0e030016 	mcreq	0, 0, r0, cr3, cr6, {0}
     4a4:	0b3b0b3a 	bleq	ec3194 <__bss_end__+0xeb832c>
     4a8:	13490b39 	movtne	r0, #39737	; 0x9b39
     4ac:	34110000 	ldrcc	r0, [r1], #-0
     4b0:	3a0e0300 	bcc	3810b8 <__bss_end__+0x376250>
     4b4:	390b3b0b 	stmdbcc	fp, {r0, r1, r3, r8, r9, fp, ip, sp}
     4b8:	0213490b 	andseq	r4, r3, #180224	; 0x2c000
     4bc:	12000018 	andne	r0, r0, #24, 0
     4c0:	193f012e 	ldmdbne	pc!, {r1, r2, r3, r5, r8}	; <UNPREDICTABLE>
     4c4:	0b3a0e03 	bleq	e83cd8 <__bss_end__+0xe78e70>
     4c8:	0b390b3b 	bleq	e431bc <__bss_end__+0xe38354>
     4cc:	01111927 	tsteq	r1, r7, lsr #18
     4d0:	18400612 	stmdane	r0, {r1, r4, r9, sl}^
     4d4:	01194297 			; <UNDEFINED> instruction: 0x01194297
     4d8:	13000013 	movwne	r0, #19
     4dc:	08030005 	stmdaeq	r3, {r0, r2}
     4e0:	0b3b0b3a 	bleq	ec31d0 <__bss_end__+0xeb8368>
     4e4:	13490b39 	movtne	r0, #39737	; 0x9b39
     4e8:	00001802 	andeq	r1, r0, r2, lsl #16
     4ec:	03003414 	movweq	r3, #1044	; 0x414
     4f0:	3b0b3a08 	blcc	2ced18 <__bss_end__+0x2c3eb0>
     4f4:	490b390b 	stmdbmi	fp, {r0, r1, r3, r8, fp, ip, sp}
     4f8:	b7170213 			; <UNDEFINED> instruction: 0xb7170213
     4fc:	00001742 	andeq	r1, r0, r2, asr #14
     500:	3f012e15 	svccc	0x00012e15
     504:	3a0e0319 	bcc	381170 <__bss_end__+0x376308>
     508:	390b3b0b 	stmdbcc	fp, {r0, r1, r3, r8, r9, fp, ip, sp}
     50c:	4919270b 	ldmdbmi	r9, {r0, r1, r3, r8, r9, sl, sp}
     510:	12011113 	andne	r1, r1, #-1073741820	; 0xc0000004
     514:	97184006 	ldrls	r4, [r8, -r6]
     518:	13011942 	movwne	r1, #6466	; 0x1942
     51c:	05160000 	ldreq	r0, [r6, #-0]
     520:	3a0e0300 	bcc	381128 <__bss_end__+0x3762c0>
     524:	390b3b0b 	stmdbcc	fp, {r0, r1, r3, r8, r9, fp, ip, sp}
     528:	0213490b 	andseq	r4, r3, #180224	; 0x2c000
     52c:	1742b717 	smlaldne	fp, r2, r7, r7
     530:	34170000 	ldrcc	r0, [r7], #-0
     534:	3a0e0300 	bcc	38113c <__bss_end__+0x3762d4>
     538:	390b3b0b 	stmdbcc	fp, {r0, r1, r3, r8, r9, fp, ip, sp}
     53c:	0213490b 	andseq	r4, r3, #180224	; 0x2c000
     540:	1742b717 	smlaldne	fp, r2, r7, r7
     544:	89180000 	ldmdbhi	r8, {}	; <UNPREDICTABLE>
     548:	11010182 	smlabbne	r1, r2, r1, r0
     54c:	00133101 	andseq	r3, r3, r1, lsl #2
     550:	828a1900 	addhi	r1, sl, #0, 18
     554:	18020001 	stmdane	r2, {r0}
     558:	00184291 	mulseq	r8, r1, r2
     55c:	012e1a00 			; <UNDEFINED> instruction: 0x012e1a00
     560:	0b3a0e03 	bleq	e83d74 <__bss_end__+0xe78f0c>
     564:	0b390b3b 	bleq	e43258 <__bss_end__+0xe383f0>
     568:	13491927 	movtne	r1, #39207	; 0x9927
     56c:	06120111 			; <UNDEFINED> instruction: 0x06120111
     570:	42971840 	addsmi	r1, r7, #64, 16	; 0x400000
     574:	00130119 	andseq	r0, r3, r9, lsl r1
     578:	00051b00 	andeq	r1, r5, r0, lsl #22
     57c:	0b3a0803 	bleq	e82590 <__bss_end__+0xe77728>
     580:	0b390b3b 	bleq	e43274 <__bss_end__+0xe3840c>
     584:	17021349 	strne	r1, [r2, -r9, asr #6]
     588:	001742b7 			; <UNDEFINED> instruction: 0x001742b7
     58c:	82891c00 	addhi	r1, r9, #0, 24
     590:	01110101 	tsteq	r1, r1, lsl #2
     594:	13011331 	movwne	r1, #4913	; 0x1331
     598:	891d0000 	ldmdbhi	sp, {}	; <UNPREDICTABLE>
     59c:	11000182 	smlabbne	r0, r2, r1, r0
     5a0:	00133101 	andseq	r3, r3, r1, lsl #2
     5a4:	002e1e00 	eoreq	r1, lr, r0, lsl #28
     5a8:	193c193f 	ldmdbne	ip!, {r0, r1, r2, r3, r4, r5, r8, fp, ip}
     5ac:	0e030e6e 	cdpeq	14, 0, cr0, cr3, cr14, {3}
     5b0:	0b3b0b3a 	bleq	ec32a0 <__bss_end__+0xeb8438>
     5b4:	00000b39 	andeq	r0, r0, r9, lsr fp
     5b8:	01110100 	tsteq	r1, r0, lsl #2
     5bc:	0b130e25 	bleq	4c3e58 <__bss_end__+0x4b8ff0>
     5c0:	0e1b0e03 	cdpeq	14, 1, cr0, cr11, cr3, {0}
     5c4:	06120111 			; <UNDEFINED> instruction: 0x06120111
     5c8:	00001710 	andeq	r1, r0, r0, lsl r7
     5cc:	0b002402 	bleq	95dc <va_printk+0x5b8>
     5d0:	030b3e0b 	movweq	r3, #48651	; 0xbe0b
     5d4:	03000008 	movweq	r0, #8
     5d8:	0b0b0024 	bleq	2c0670 <__bss_end__+0x2b5808>
     5dc:	0e030b3e 	vmoveq.16	d3[0], r0
     5e0:	16040000 	strne	r0, [r4], -r0
     5e4:	3a0e0300 	bcc	3811ec <__bss_end__+0x376384>
     5e8:	390b3b0b 	stmdbcc	fp, {r0, r1, r3, r8, r9, fp, ip, sp}
     5ec:	0013490b 	andseq	r4, r3, fp, lsl #18
     5f0:	01150500 	tsteq	r5, r0, lsl #10
     5f4:	13491927 	movtne	r1, #39207	; 0x9927
     5f8:	00001301 	andeq	r1, r0, r1, lsl #6
     5fc:	49000506 	stmdbmi	r0, {r1, r2, r8, sl}
     600:	07000013 	smladeq	r0, r3, r0, r0
     604:	0e030034 	mcreq	0, 0, r0, cr3, cr4, {1}
     608:	0b3b0b3a 	bleq	ec32f8 <__bss_end__+0xeb8490>
     60c:	13490b39 	movtne	r0, #39737	; 0x9b39
     610:	193c193f 	ldmdbne	ip!, {r0, r1, r2, r3, r4, r5, r8, fp, ip}
     614:	0f080000 	svceq	0x00080000
     618:	490b0b00 	stmdbmi	fp, {r8, r9, fp}
     61c:	09000013 	stmdbeq	r0, {r0, r1, r4}
     620:	13490026 	movtne	r0, #36902	; 0x9026
     624:	130a0000 	movwne	r0, #40960	; 0xa000
     628:	3a0b0b01 	bcc	2c3234 <__bss_end__+0x2b83cc>
     62c:	390b3b0b 	stmdbcc	fp, {r0, r1, r3, r8, r9, fp, ip, sp}
     630:	0013010b 	andseq	r0, r3, fp, lsl #2
     634:	000d0b00 	andeq	r0, sp, r0, lsl #22
     638:	0b3a0e03 	bleq	e83e4c <__bss_end__+0xe78fe4>
     63c:	0b390b3b 	bleq	e43330 <__bss_end__+0xe384c8>
     640:	0b381349 	bleq	e0536c <__bss_end__+0xdfa504>
     644:	130c0000 	movwne	r0, #49152	; 0xc000
     648:	0b0e0301 	bleq	381254 <__bss_end__+0x3763ec>
     64c:	3b0b3a0b 	blcc	2cee80 <__bss_end__+0x2c4018>
     650:	010b390b 	tsteq	fp, fp, lsl #18
     654:	0d000013 	stceq	0, cr0, [r0, #-76]	; 0xffffffb4
     658:	0b0b000f 	bleq	2c069c <__bss_end__+0x2b5834>
     65c:	340e0000 	strcc	r0, [lr], #-0
     660:	3a0e0300 	bcc	381268 <__bss_end__+0x376400>
     664:	390b3b0b 	stmdbcc	fp, {r0, r1, r3, r8, r9, fp, ip, sp}
     668:	0213490b 	andseq	r4, r3, #180224	; 0x2c000
     66c:	0f000018 	svceq	0x00000018
     670:	193f012e 	ldmdbne	pc!, {r1, r2, r3, r5, r8}	; <UNPREDICTABLE>
     674:	0b3a0e03 	bleq	e83e88 <__bss_end__+0xe79020>
     678:	0b39053b 	bleq	e41b6c <__bss_end__+0xe36d04>
     67c:	01111927 	tsteq	r1, r7, lsr #18
     680:	18400612 	stmdane	r0, {r1, r4, r9, sl}^
     684:	01194297 			; <UNDEFINED> instruction: 0x01194297
     688:	10000013 	andne	r0, r0, r3, lsl r0
     68c:	0e030034 	mcreq	0, 0, r0, cr3, cr4, {1}
     690:	19341349 	ldmdbne	r4!, {r0, r3, r6, r8, r9, ip}
     694:	00001802 	andeq	r1, r0, r2, lsl #16
     698:	01828911 	orreq	r8, r2, r1, lsl r9
     69c:	31011101 	tstcc	r1, r1, lsl #2
     6a0:	00130113 	andseq	r0, r3, r3, lsl r1
     6a4:	828a1200 	addhi	r1, sl, #0, 4
     6a8:	18020001 	stmdane	r2, {r0}
     6ac:	00184291 	mulseq	r8, r1, r2
     6b0:	82891300 	addhi	r1, r9, #0, 6
     6b4:	01110001 	tsteq	r1, r1
     6b8:	00001331 	andeq	r1, r0, r1, lsr r3
     6bc:	49010114 	stmdbmi	r1, {r2, r4, r8}
     6c0:	00130113 	andseq	r0, r3, r3, lsl r1
     6c4:	00211500 	eoreq	r1, r1, r0, lsl #10
     6c8:	0b2f1349 	bleq	bc53f4 <__bss_end__+0xbba58c>
     6cc:	2e160000 	cdpcs	0, 1, cr0, cr6, cr0, {0}
     6d0:	03193f01 	tsteq	r9, #1, 30
     6d4:	3b0b3a0e 	blcc	2cef14 <__bss_end__+0x2c40ac>
     6d8:	270b3905 	strcs	r3, [fp, -r5, lsl #18]
     6dc:	11134919 	tstne	r3, r9, lsl r9
     6e0:	40061201 	andmi	r1, r6, r1, lsl #4
     6e4:	19429718 	stmdbne	r2, {r3, r4, r8, r9, sl, ip, pc}^
     6e8:	00001301 	andeq	r1, r0, r1, lsl #6
     6ec:	03003417 	movweq	r3, #1047	; 0x417
     6f0:	3b0b3a0e 	blcc	2cef30 <__bss_end__+0x2c40c8>
     6f4:	490b3905 	stmdbmi	fp, {r0, r2, r8, fp, ip, sp}
     6f8:	b7170213 			; <UNDEFINED> instruction: 0xb7170213
     6fc:	00001742 	andeq	r1, r0, r2, asr #14
     700:	03012e18 	movweq	r2, #7704	; 0x1e18
     704:	3b0b3a0e 	blcc	2cef44 <__bss_end__+0x2c40dc>
     708:	270b390b 	strcs	r3, [fp, -fp, lsl #18]
     70c:	11134919 	tstne	r3, r9, lsl r9
     710:	40061201 	andmi	r1, r6, r1, lsl #4
     714:	19429718 	stmdbne	r2, {r3, r4, r8, r9, sl, ip, pc}^
     718:	00001301 	andeq	r1, r0, r1, lsl #6
     71c:	03003419 	movweq	r3, #1049	; 0x419
     720:	3b0b3a0e 	blcc	2cef60 <__bss_end__+0x2c40f8>
     724:	490b390b 	stmdbmi	fp, {r0, r1, r3, r8, fp, ip, sp}
     728:	b7170213 			; <UNDEFINED> instruction: 0xb7170213
     72c:	00001742 	andeq	r1, r0, r2, asr #14
     730:	55010b1a 	strpl	r0, [r1, #-2842]	; 0xfffff4e6
     734:	00130117 	andseq	r0, r3, r7, lsl r1
     738:	00341b00 	eorseq	r1, r4, r0, lsl #22
     73c:	0b3a0803 	bleq	e82750 <__bss_end__+0xe778e8>
     740:	0b390b3b 	bleq	e43434 <__bss_end__+0xe385cc>
     744:	17021349 	strne	r1, [r2, -r9, asr #6]
     748:	001742b7 			; <UNDEFINED> instruction: 0x001742b7
     74c:	011d1c00 	tsteq	sp, r0, lsl #24
     750:	01521331 	cmpeq	r2, r1, lsr r3
     754:	110b42b8 			; <UNDEFINED> instruction: 0x110b42b8
     758:	58061201 	stmdapl	r6, {r0, r9, ip}
     75c:	5705590b 	strpl	r5, [r5, -fp, lsl #18]
     760:	0013010b 	andseq	r0, r3, fp, lsl #2
     764:	00051d00 	andeq	r1, r5, r0, lsl #26
     768:	17021331 	smladxne	r2, r1, r3, r1
     76c:	001742b7 			; <UNDEFINED> instruction: 0x001742b7
     770:	82891e00 	addhi	r1, r9, #0, 28
     774:	01110101 	tsteq	r1, r1, lsl #2
     778:	00001331 	andeq	r1, r0, r1, lsr r3
     77c:	3f012e1f 	svccc	0x00012e1f
     780:	3a0e0319 	bcc	3813ec <__bss_end__+0x376584>
     784:	390b3b0b 	stmdbcc	fp, {r0, r1, r3, r8, r9, fp, ip, sp}
     788:	4919270b 	ldmdbmi	r9, {r0, r1, r3, r8, r9, sl, sp}
     78c:	12011113 	andne	r1, r1, #-1073741820	; 0xc0000004
     790:	97184006 	ldrls	r4, [r8, -r6]
     794:	13011942 	movwne	r1, #6466	; 0x1942
     798:	2e200000 	cdpcs	0, 2, cr0, cr0, cr0, {0}
     79c:	03193f01 	tsteq	r9, #1, 30
     7a0:	3b0b3a0e 	blcc	2cefe0 <__bss_end__+0x2c4178>
     7a4:	270b390b 	strcs	r3, [fp, -fp, lsl #18]
     7a8:	12011119 	andne	r1, r1, #1073741830	; 0x40000006
     7ac:	97184006 	ldrls	r4, [r8, -r6]
     7b0:	13011942 	movwne	r1, #6466	; 0x1942
     7b4:	05210000 	streq	r0, [r1, #-0]!
     7b8:	3a0e0300 	bcc	3813c0 <__bss_end__+0x376558>
     7bc:	390b3b0b 	stmdbcc	fp, {r0, r1, r3, r8, r9, fp, ip, sp}
     7c0:	0213490b 	andseq	r4, r3, #180224	; 0x2c000
     7c4:	1742b717 	smlaldne	fp, r2, r7, r7
     7c8:	2e220000 	cdpcs	0, 2, cr0, cr2, cr0, {0}
     7cc:	3a0e0301 	bcc	3813d8 <__bss_end__+0x376570>
     7d0:	390b3b0b 	stmdbcc	fp, {r0, r1, r3, r8, r9, fp, ip, sp}
     7d4:	1119270b 	tstne	r9, fp, lsl #14
     7d8:	40061201 	andmi	r1, r6, r1, lsl #4
     7dc:	19429718 	stmdbne	r2, {r3, r4, r8, r9, sl, ip, pc}^
     7e0:	00001301 	andeq	r1, r0, r1, lsl #6
     7e4:	03003423 	movweq	r3, #1059	; 0x423
     7e8:	3b0b3a0e 	blcc	2cf028 <__bss_end__+0x2c41c0>
     7ec:	490b390b 	stmdbmi	fp, {r0, r1, r3, r8, fp, ip, sp}
     7f0:	00061c13 	andeq	r1, r6, r3, lsl ip
     7f4:	010b2400 	tsteq	fp, r0, lsl #8
     7f8:	06120111 			; <UNDEFINED> instruction: 0x06120111
     7fc:	00001301 	andeq	r1, r0, r1, lsl #6
     800:	03000525 	movweq	r0, #1317	; 0x525
     804:	3b0b3a08 	blcc	2cf02c <__bss_end__+0x2c41c4>
     808:	490b390b 	stmdbmi	fp, {r0, r1, r3, r8, fp, ip, sp}
     80c:	b7170213 			; <UNDEFINED> instruction: 0xb7170213
     810:	00001742 	andeq	r1, r0, r2, asr #14
     814:	55010b26 	strpl	r0, [r1, #-2854]	; 0xfffff4da
     818:	27000017 	smladcs	r0, r7, r0, r0
     81c:	0e03012e 	adfeqsp	f0, f3, #0.5
     820:	0b3b0b3a 	bleq	ec3510 <__bss_end__+0xeb86a8>
     824:	19270b39 	stmdbne	r7!, {r0, r3, r4, r5, r8, r9, fp}
     828:	0b201349 	bleq	805554 <__bss_end__+0x7fa6ec>
     82c:	00001301 	andeq	r1, r0, r1, lsl #6
     830:	03000528 	movweq	r0, #1320	; 0x528
     834:	3b0b3a0e 	blcc	2cf074 <__bss_end__+0x2c420c>
     838:	490b390b 	stmdbmi	fp, {r0, r1, r3, r8, fp, ip, sp}
     83c:	29000013 	stmdbcs	r0, {r0, r1, r4}
     840:	193f002e 	ldmdbne	pc!, {r1, r2, r3, r5}	; <UNPREDICTABLE>
     844:	0e6e193c 			; <UNDEFINED> instruction: 0x0e6e193c
     848:	0b3a0e03 	bleq	e8405c <__bss_end__+0xe791f4>
     84c:	0b390b3b 	bleq	e43540 <__bss_end__+0xe386d8>
     850:	362a0000 	strtcc	r0, [sl], -r0
     854:	00180200 	andseq	r0, r8, r0, lsl #4
     858:	11010000 	mrsne	r0, (UNDEF: 1)
     85c:	130e2501 	movwne	r2, #58625	; 0xe501
     860:	1b0e030b 	blne	381494 <__bss_end__+0x37662c>
     864:	1201110e 	andne	r1, r1, #-2147483645	; 0x80000003
     868:	00171006 	andseq	r1, r7, r6
     86c:	00240200 	eoreq	r0, r4, r0, lsl #4
     870:	0b3e0b0b 	bleq	f834a4 <__bss_end__+0xf7863c>
     874:	00000803 	andeq	r0, r0, r3, lsl #16
     878:	03001603 	movweq	r1, #1539	; 0x603
     87c:	3b0b3a0e 	blcc	2cf0bc <__bss_end__+0x2c4254>
     880:	490b390b 	stmdbmi	fp, {r0, r1, r3, r8, fp, ip, sp}
     884:	04000013 	streq	r0, [r0], #-19	; 0xffffffed
     888:	0b0b0024 	bleq	2c0920 <__bss_end__+0x2b5ab8>
     88c:	0e030b3e 	vmoveq.16	d3[0], r0
     890:	15050000 	strne	r0, [r5, #-0]
     894:	49192701 	ldmdbmi	r9, {r0, r8, r9, sl, sp}
     898:	00130113 	andseq	r0, r3, r3, lsl r1
     89c:	00050600 	andeq	r0, r5, r0, lsl #12
     8a0:	00001349 	andeq	r1, r0, r9, asr #6
     8a4:	03003407 	movweq	r3, #1031	; 0x407
     8a8:	3b0b3a0e 	blcc	2cf0e8 <__bss_end__+0x2c4280>
     8ac:	490b390b 	stmdbmi	fp, {r0, r1, r3, r8, fp, ip, sp}
     8b0:	3c193f13 	ldccc	15, cr3, [r9], {19}
     8b4:	08000019 	stmdaeq	r0, {r0, r3, r4}
     8b8:	0b0b000f 	bleq	2c08fc <__bss_end__+0x2b5a94>
     8bc:	00001349 	andeq	r1, r0, r9, asr #6
     8c0:	49002609 	stmdbmi	r0, {r0, r3, r9, sl, sp}
     8c4:	0a000013 	beq	918 <__code_start__-0x76e8>
     8c8:	193f012e 	ldmdbne	pc!, {r1, r2, r3, r5, r8}	; <UNPREDICTABLE>
     8cc:	0b3a0e03 	bleq	e840e0 <__bss_end__+0xe79278>
     8d0:	0b390b3b 	bleq	e435c4 <__bss_end__+0xe3875c>
     8d4:	13491927 	movtne	r1, #39207	; 0x9927
     8d8:	06120111 			; <UNDEFINED> instruction: 0x06120111
     8dc:	42971840 	addsmi	r1, r7, #64, 16	; 0x400000
     8e0:	00130119 	andseq	r0, r3, r9, lsl r1
     8e4:	00050b00 	andeq	r0, r5, r0, lsl #22
     8e8:	0b3a0803 	bleq	e828fc <__bss_end__+0xe77a94>
     8ec:	0b390b3b 	bleq	e435e0 <__bss_end__+0xe38778>
     8f0:	18021349 	stmdane	r2, {r0, r3, r6, r8, r9, ip}
     8f4:	050c0000 	streq	r0, [ip, #-0]
     8f8:	3a080300 	bcc	201500 <__bss_end__+0x1f6698>
     8fc:	390b3b0b 	stmdbcc	fp, {r0, r1, r3, r8, r9, fp, ip, sp}
     900:	0213490b 	andseq	r4, r3, #180224	; 0x2c000
     904:	1742b717 	smlaldne	fp, r2, r7, r7
     908:	340d0000 	strcc	r0, [sp], #-0
     90c:	3a080300 	bcc	201514 <__bss_end__+0x1f66ac>
     910:	390b3b0b 	stmdbcc	fp, {r0, r1, r3, r8, r9, fp, ip, sp}
     914:	0213490b 	andseq	r4, r3, #180224	; 0x2c000
     918:	1742b717 	smlaldne	fp, r2, r7, r7
     91c:	0f0e0000 	svceq	0x000e0000
     920:	000b0b00 	andeq	r0, fp, r0, lsl #22
     924:	11010000 	mrsne	r0, (UNDEF: 1)
     928:	130e2501 	movwne	r2, #58625	; 0xe501
     92c:	1b0e030b 	blne	381560 <__bss_end__+0x3766f8>
     930:	1201110e 	andne	r1, r1, #-2147483645	; 0x80000003
     934:	00171006 	andseq	r1, r7, r6
     938:	00160200 	andseq	r0, r6, r0, lsl #4
     93c:	0b3a0e03 	bleq	e84150 <__bss_end__+0xe792e8>
     940:	0b390b3b 	bleq	e43634 <__bss_end__+0xe387cc>
     944:	00001349 	andeq	r1, r0, r9, asr #6
     948:	03011303 	movweq	r1, #4867	; 0x1303
     94c:	3a0b0b0e 	bcc	2c358c <__bss_end__+0x2b8724>
     950:	010b3b0b 	tsteq	fp, fp, lsl #22
     954:	04000013 	streq	r0, [r0], #-19	; 0xffffffed
     958:	0e03000d 	cdpeq	0, 0, cr0, cr3, cr13, {0}
     95c:	0b381349 	bleq	e05688 <__bss_end__+0xdfa820>
     960:	00001934 	andeq	r1, r0, r4, lsr r9
     964:	0b000f05 	bleq	4580 <__code_start__-0x3a80>
     968:	0600000b 	streq	r0, [r0], -fp
     96c:	0b0b0024 	bleq	2c0a04 <__bss_end__+0x2b5b9c>
     970:	08030b3e 	stmdaeq	r3, {r1, r2, r3, r4, r5, r8, r9, fp}
     974:	24070000 	strcs	r0, [r7], #-0
     978:	3e0b0b00 	vmlacc.f64	d0, d11, d0
     97c:	000e030b 	andeq	r0, lr, fp, lsl #6
     980:	01150800 	tsteq	r5, r0, lsl #16
     984:	13491927 	movtne	r1, #39207	; 0x9927
     988:	00001301 	andeq	r1, r0, r1, lsl #6
     98c:	49000509 	stmdbmi	r0, {r0, r3, r8, sl}
     990:	0a000013 	beq	9e4 <__code_start__-0x761c>
     994:	0e030034 	mcreq	0, 0, r0, cr3, cr4, {1}
     998:	0b3b0b3a 	bleq	ec3688 <__bss_end__+0xeb8820>
     99c:	13490b39 	movtne	r0, #39737	; 0x9b39
     9a0:	193c193f 	ldmdbne	ip!, {r0, r1, r2, r3, r4, r5, r8, fp, ip}
     9a4:	0f0b0000 	svceq	0x000b0000
     9a8:	490b0b00 	stmdbmi	fp, {r8, r9, fp}
     9ac:	0c000013 	stceq	0, cr0, [r0], {19}
     9b0:	13490026 	movtne	r0, #36902	; 0x9026
     9b4:	2e0d0000 	cdpcs	0, 0, cr0, cr13, cr0, {0}
     9b8:	03193f01 	tsteq	r9, #1, 30
     9bc:	3b0b3a0e 	blcc	2cf1fc <__bss_end__+0x2c4394>
     9c0:	270b390b 	strcs	r3, [fp, -fp, lsl #18]
     9c4:	11134919 	tstne	r3, r9, lsl r9
     9c8:	40061201 	andmi	r1, r6, r1, lsl #4
     9cc:	19429718 	stmdbne	r2, {r3, r4, r8, r9, sl, ip, pc}^
     9d0:	00001301 	andeq	r1, r0, r1, lsl #6
     9d4:	0300050e 	movweq	r0, #1294	; 0x50e
     9d8:	3b0b3a08 	blcc	2cf200 <__bss_end__+0x2c4398>
     9dc:	490b390b 	stmdbmi	fp, {r0, r1, r3, r8, fp, ip, sp}
     9e0:	00180213 	andseq	r0, r8, r3, lsl r2
     9e4:	00180f00 	andseq	r0, r8, r0, lsl #30
     9e8:	34100000 	ldrcc	r0, [r0], #-0
     9ec:	3a080300 	bcc	2015f4 <__bss_end__+0x1f678c>
     9f0:	390b3b0b 	stmdbcc	fp, {r0, r1, r3, r8, r9, fp, ip, sp}
     9f4:	0213490b 	andseq	r4, r3, #180224	; 0x2c000
     9f8:	11000018 	tstne	r0, r8, lsl r0
     9fc:	0e030034 	mcreq	0, 0, r0, cr3, cr4, {1}
     a00:	0b3b0b3a 	bleq	ec36f0 <__bss_end__+0xeb8888>
     a04:	13490b39 	movtne	r0, #39737	; 0x9b39
     a08:	00001802 	andeq	r1, r0, r2, lsl #16
     a0c:	03003412 	movweq	r3, #1042	; 0x412
     a10:	3b0b3a08 	blcc	2cf238 <__bss_end__+0x2c43d0>
     a14:	490b390b 	stmdbmi	fp, {r0, r1, r3, r8, fp, ip, sp}
     a18:	b7170213 			; <UNDEFINED> instruction: 0xb7170213
     a1c:	00001742 	andeq	r1, r0, r2, asr #14
     a20:	01828913 	orreq	r8, r2, r3, lsl r9
     a24:	31011101 	tstcc	r1, r1, lsl #2
     a28:	00130113 	andseq	r0, r3, r3, lsl r1
     a2c:	828a1400 	addhi	r1, sl, #0, 8
     a30:	18020001 	stmdane	r2, {r0}
     a34:	00184291 	mulseq	r8, r1, r2
     a38:	82891500 	addhi	r1, r9, #0, 10
     a3c:	01110101 	tsteq	r1, r1, lsl #2
     a40:	01160000 	tsteq	r6, r0
     a44:	01134901 	tsteq	r3, r1, lsl #18
     a48:	17000013 	smladne	r0, r3, r0, r0
     a4c:	13490021 	movtne	r0, #36897	; 0x9021
     a50:	0000052f 	andeq	r0, r0, pc, lsr #10
     a54:	3f002e18 	svccc	0x00002e18
     a58:	6e193c19 	mrcvs	12, 0, r3, cr9, cr9, {0}
     a5c:	3a0e030e 	bcc	38169c <__bss_end__+0x376834>
     a60:	390b3b0b 	stmdbcc	fp, {r0, r1, r3, r8, r9, fp, ip, sp}
     a64:	0000000b 	andeq	r0, r0, fp
     a68:	25011101 	strcs	r1, [r1, #-257]	; 0xfffffeff
     a6c:	030b130e 	movweq	r1, #45838	; 0xb30e
     a70:	110e1b0e 	tstne	lr, lr, lsl #22
     a74:	10061201 	andne	r1, r6, r1, lsl #4
     a78:	02000017 	andeq	r0, r0, #23, 0
     a7c:	0b0b0024 	bleq	2c0b14 <__bss_end__+0x2b5cac>
     a80:	08030b3e 	stmdaeq	r3, {r1, r2, r3, r4, r5, r8, r9, fp}
     a84:	24030000 	strcs	r0, [r3], #-0
     a88:	3e0b0b00 	vmlacc.f64	d0, d11, d0
     a8c:	000e030b 	andeq	r0, lr, fp, lsl #6
     a90:	01150400 	tsteq	r5, r0, lsl #8
     a94:	13491927 	movtne	r1, #39207	; 0x9927
     a98:	00001301 	andeq	r1, r0, r1, lsl #6
     a9c:	49000505 	stmdbmi	r0, {r0, r2, r8, sl}
     aa0:	06000013 			; <UNDEFINED> instruction: 0x06000013
     aa4:	0e030034 	mcreq	0, 0, r0, cr3, cr4, {1}
     aa8:	0b3b0b3a 	bleq	ec3798 <__bss_end__+0xeb8930>
     aac:	13490b39 	movtne	r0, #39737	; 0x9b39
     ab0:	193c193f 	ldmdbne	ip!, {r0, r1, r2, r3, r4, r5, r8, fp, ip}
     ab4:	0f070000 	svceq	0x00070000
     ab8:	490b0b00 	stmdbmi	fp, {r8, r9, fp}
     abc:	08000013 	stmdaeq	r0, {r0, r1, r4}
     ac0:	13490026 	movtne	r0, #36902	; 0x9026
     ac4:	34090000 	strcc	r0, [r9], #-0
     ac8:	3a134700 	bcc	4d26d0 <__bss_end__+0x4c7868>
     acc:	390b3b0b 	stmdbcc	fp, {r0, r1, r3, r8, r9, fp, ip, sp}
     ad0:	0018020b 	andseq	r0, r8, fp, lsl #4
     ad4:	012e0a00 			; <UNDEFINED> instruction: 0x012e0a00
     ad8:	0e03193f 			; <UNDEFINED> instruction: 0x0e03193f
     adc:	0b3b0b3a 	bleq	ec37cc <__bss_end__+0xeb8964>
     ae0:	19270b39 	stmdbne	r7!, {r0, r3, r4, r5, r8, r9, fp}
     ae4:	01111349 	tsteq	r1, r9, asr #6
     ae8:	18400612 	stmdane	r0, {r1, r4, r9, sl}^
     aec:	00194296 	mulseq	r9, r6, r2
     af0:	00050b00 	andeq	r0, r5, r0, lsl #22
     af4:	0b3a0803 	bleq	e82b08 <__bss_end__+0xe77ca0>
     af8:	0b390b3b 	bleq	e437ec <__bss_end__+0xe38984>
     afc:	17021349 	strne	r1, [r2, -r9, asr #6]
     b00:	001742b7 			; <UNDEFINED> instruction: 0x001742b7
     b04:	11010000 	mrsne	r0, (UNDEF: 1)
     b08:	130e2501 	movwne	r2, #58625	; 0xe501
     b0c:	1b0e030b 	blne	381740 <__bss_end__+0x3768d8>
     b10:	1201110e 	andne	r1, r1, #-2147483645	; 0x80000003
     b14:	00171006 	andseq	r1, r7, r6
     b18:	00240200 	eoreq	r0, r4, r0, lsl #4
     b1c:	0b3e0b0b 	bleq	f83750 <__bss_end__+0xf788e8>
     b20:	00000e03 	andeq	r0, r0, r3, lsl #28
     b24:	0b002403 	bleq	9b38 <kmalloc_heap_ptr+0x8>
     b28:	030b3e0b 	movweq	r3, #48651	; 0xbe0b
     b2c:	04000008 	streq	r0, [r0], #-8
     b30:	0e030016 	mcreq	0, 0, r0, cr3, cr6, {0}
     b34:	0b3b0b3a 	bleq	ec3824 <__bss_end__+0xeb89bc>
     b38:	13490b39 	movtne	r0, #39737	; 0x9b39
     b3c:	15050000 	strne	r0, [r5, #-0]
     b40:	49192701 	ldmdbmi	r9, {r0, r8, r9, sl, sp}
     b44:	00130113 	andseq	r0, r3, r3, lsl r1
     b48:	00050600 	andeq	r0, r5, r0, lsl #12
     b4c:	00001349 	andeq	r1, r0, r9, asr #6
     b50:	03003407 	movweq	r3, #1031	; 0x407
     b54:	3b0b3a0e 	blcc	2cf394 <__bss_end__+0x2c452c>
     b58:	490b390b 	stmdbmi	fp, {r0, r1, r3, r8, fp, ip, sp}
     b5c:	3c193f13 	ldccc	15, cr3, [r9], {19}
     b60:	08000019 	stmdaeq	r0, {r0, r3, r4}
     b64:	0b0b000f 	bleq	2c0ba8 <__bss_end__+0x2b5d40>
     b68:	00001349 	andeq	r1, r0, r9, asr #6
     b6c:	49002609 	stmdbmi	r0, {r0, r3, r9, sl, sp}
     b70:	0a000013 	beq	bc4 <__code_start__-0x743c>
     b74:	0e030113 	mcreq	1, 0, r0, cr3, cr3, {0}
     b78:	0b3a0b0b 	bleq	e837ac <__bss_end__+0xe78944>
     b7c:	13010b3b 	movwne	r0, #6971	; 0x1b3b
     b80:	0d0b0000 	stceq	0, cr0, [fp, #-0]
     b84:	490e0300 	stmdbmi	lr, {r8, r9}
     b88:	340b3813 	strcc	r3, [fp], #-2067	; 0xfffff7ed
     b8c:	0c000019 	stceq	0, cr0, [r0], {25}
     b90:	0b0b000f 	bleq	2c0bd4 <__bss_end__+0x2b5d6c>
     b94:	2e0d0000 	cdpcs	0, 0, cr0, cr13, cr0, {0}
     b98:	03193f01 	tsteq	r9, #1, 30
     b9c:	3b0b3a0e 	blcc	2cf3dc <__bss_end__+0x2c4574>
     ba0:	270b390b 	strcs	r3, [fp, -fp, lsl #18]
     ba4:	11134919 	tstne	r3, r9, lsl r9
     ba8:	40061201 	andmi	r1, r6, r1, lsl #4
     bac:	19429718 	stmdbne	r2, {r3, r4, r8, r9, sl, ip, pc}^
     bb0:	00001301 	andeq	r1, r0, r1, lsl #6
     bb4:	0300050e 	movweq	r0, #1294	; 0x50e
     bb8:	3b0b3a08 	blcc	2cf3e0 <__bss_end__+0x2c4578>
     bbc:	490b390b 	stmdbmi	fp, {r0, r1, r3, r8, fp, ip, sp}
     bc0:	b7170213 			; <UNDEFINED> instruction: 0xb7170213
     bc4:	00001742 	andeq	r1, r0, r2, asr #14
     bc8:	0300050f 	movweq	r0, #1295	; 0x50f
     bcc:	3b0b3a0e 	blcc	2cf40c <__bss_end__+0x2c45a4>
     bd0:	490b390b 	stmdbmi	fp, {r0, r1, r3, r8, fp, ip, sp}
     bd4:	b7170213 			; <UNDEFINED> instruction: 0xb7170213
     bd8:	00001742 	andeq	r1, r0, r2, asr #14
     bdc:	03003410 	movweq	r3, #1040	; 0x410
     be0:	3b0b3a08 	blcc	2cf408 <__bss_end__+0x2c45a0>
     be4:	490b390b 	stmdbmi	fp, {r0, r1, r3, r8, fp, ip, sp}
     be8:	b7170213 			; <UNDEFINED> instruction: 0xb7170213
     bec:	00001742 	andeq	r1, r0, r2, asr #14
     bf0:	03003411 	movweq	r3, #1041	; 0x411
     bf4:	3b0b3a0e 	blcc	2cf434 <__bss_end__+0x2c45cc>
     bf8:	490b390b 	stmdbmi	fp, {r0, r1, r3, r8, fp, ip, sp}
     bfc:	b7170213 			; <UNDEFINED> instruction: 0xb7170213
     c00:	00001742 	andeq	r1, r0, r2, asr #14
     c04:	03003412 	movweq	r3, #1042	; 0x412
     c08:	3413490e 	ldrcc	r4, [r3], #-2318	; 0xfffff6f2
     c0c:	00180219 	andseq	r0, r8, r9, lsl r2
     c10:	010b1300 	mrseq	r1, (UNDEF: 59)
     c14:	00001755 	andeq	r1, r0, r5, asr r7
     c18:	03003414 	movweq	r3, #1044	; 0x414
     c1c:	3b0b3a08 	blcc	2cf444 <__bss_end__+0x2c45dc>
     c20:	490b390b 	stmdbmi	fp, {r0, r1, r3, r8, fp, ip, sp}
     c24:	00180213 	andseq	r0, r8, r3, lsl r2
     c28:	00341500 	eorseq	r1, r4, r0, lsl #10
     c2c:	0b3a0e03 	bleq	e84440 <__bss_end__+0xe795d8>
     c30:	0b390b3b 	bleq	e43924 <__bss_end__+0xe38abc>
     c34:	18021349 	stmdane	r2, {r0, r3, r6, r8, r9, ip}
     c38:	0b160000 	bleq	580c40 <__bss_end__+0x575dd8>
     c3c:	01175501 	tsteq	r7, r1, lsl #10
     c40:	17000013 	smladne	r0, r3, r0, r0
     c44:	01018289 	smlabbeq	r1, r9, r2, r8
     c48:	13310111 	teqne	r1, #1073741828	; 0x40000004
     c4c:	00001301 	andeq	r1, r0, r1, lsl #6
     c50:	01828a18 	orreq	r8, r2, r8, lsl sl
     c54:	91180200 	tstls	r8, r0, lsl #4
     c58:	00001842 	andeq	r1, r0, r2, asr #16
     c5c:	01828919 	orreq	r8, r2, r9, lsl r9
     c60:	31011100 	mrscc	r1, (UNDEF: 17)
     c64:	1a000013 	bne	cb8 <__code_start__-0x7348>
     c68:	1331011d 	teqne	r1, #1073741831	; 0x40000007
     c6c:	42b80152 	adcsmi	r0, r8, #-2147483628	; 0x80000014
     c70:	58175505 	ldmdapl	r7, {r0, r2, r8, sl, ip, lr}
     c74:	570b590b 	strpl	r5, [fp, -fp, lsl #18]
     c78:	0013010b 	andseq	r0, r3, fp, lsl #2
     c7c:	00051b00 	andeq	r1, r5, r0, lsl #22
     c80:	17021331 	smladxne	r2, r1, r3, r1
     c84:	001742b7 			; <UNDEFINED> instruction: 0x001742b7
     c88:	00051c00 	andeq	r1, r5, r0, lsl #24
     c8c:	00001331 	andeq	r1, r0, r1, lsr r3
     c90:	3100341d 	tstcc	r0, sp, lsl r4
     c94:	00180213 	andseq	r0, r8, r3, lsl r2
     c98:	00341e00 	eorseq	r1, r4, r0, lsl #28
     c9c:	17021331 	smladxne	r2, r1, r3, r1
     ca0:	001742b7 			; <UNDEFINED> instruction: 0x001742b7
     ca4:	00341f00 	eorseq	r1, r4, r0, lsl #30
     ca8:	00001331 	andeq	r1, r0, r1, lsr r3
     cac:	31011d20 	tstcc	r1, r0, lsr #26
     cb0:	b8015213 	stmdalt	r1, {r0, r1, r4, r9, ip, lr}
     cb4:	17550542 	ldrbne	r0, [r5, -r2, asr #10]
     cb8:	0b590b58 	bleq	1643a20 <__bss_end__+0x1638bb8>
     cbc:	00000b57 	andeq	r0, r0, r7, asr fp
     cc0:	01828921 	orreq	r8, r2, r1, lsr #18
     cc4:	01011101 	tsteq	r1, r1, lsl #2
     cc8:	22000013 	andcs	r0, r0, #19, 0
     ccc:	13490101 	movtne	r0, #37121	; 0x9101
     cd0:	00001301 	andeq	r1, r0, r1, lsl #6
     cd4:	49002123 	stmdbmi	r0, {r0, r1, r5, r8, sp}
     cd8:	000b2f13 	andeq	r2, fp, r3, lsl pc
     cdc:	012e2400 			; <UNDEFINED> instruction: 0x012e2400
     ce0:	0b3a0e03 	bleq	e844f4 <__bss_end__+0xe7968c>
     ce4:	0b390b3b 	bleq	e439d8 <__bss_end__+0xe38b70>
     ce8:	13491927 	movtne	r1, #39207	; 0x9927
     cec:	13010b20 	movwne	r0, #6944	; 0x1b20
     cf0:	05250000 	streq	r0, [r5, #-0]!
     cf4:	3a0e0300 	bcc	3818fc <__bss_end__+0x376a94>
     cf8:	390b3b0b 	stmdbcc	fp, {r0, r1, r3, r8, r9, fp, ip, sp}
     cfc:	0013490b 	andseq	r4, r3, fp, lsl #18
     d00:	00052600 	andeq	r2, r5, r0, lsl #12
     d04:	0b3a0803 	bleq	e82d18 <__bss_end__+0xe77eb0>
     d08:	0b390b3b 	bleq	e439fc <__bss_end__+0xe38b94>
     d0c:	00001349 	andeq	r1, r0, r9, asr #6
     d10:	03003427 	movweq	r3, #1063	; 0x427
     d14:	3b0b3a08 	blcc	2cf53c <__bss_end__+0x2c46d4>
     d18:	490b390b 	stmdbmi	fp, {r0, r1, r3, r8, fp, ip, sp}
     d1c:	28000013 	stmdacs	r0, {r0, r1, r4}
     d20:	0000010b 	andeq	r0, r0, fp, lsl #2
     d24:	03003429 	movweq	r3, #1065	; 0x429
     d28:	3b0b3a0e 	blcc	2cf568 <__bss_end__+0x2c4700>
     d2c:	490b390b 	stmdbmi	fp, {r0, r1, r3, r8, fp, ip, sp}
     d30:	2a000013 	bcs	d84 <__code_start__-0x727c>
     d34:	0803012e 	stmdaeq	r3, {r1, r2, r3, r5, r8}
     d38:	0b3b0b3a 	bleq	ec3a28 <__bss_end__+0xeb8bc0>
     d3c:	19270b39 	stmdbne	r7!, {r0, r3, r4, r5, r8, r9, fp}
     d40:	0b201349 	bleq	805a6c <__bss_end__+0x7fac04>
     d44:	00001301 	andeq	r1, r0, r1, lsl #6
     d48:	3f012e2b 	svccc	0x00012e2b
     d4c:	3a0e0319 	bcc	3819b8 <__bss_end__+0x376b50>
     d50:	390b3b0b 	stmdbcc	fp, {r0, r1, r3, r8, r9, fp, ip, sp}
     d54:	1119270b 	tstne	r9, fp, lsl #14
     d58:	40061201 	andmi	r1, r6, r1, lsl #4
     d5c:	19429718 	stmdbne	r2, {r3, r4, r8, r9, sl, ip, pc}^
     d60:	00001301 	andeq	r1, r0, r1, lsl #6
     d64:	31012e2c 	tstcc	r1, ip, lsr #28
     d68:	12011113 	andne	r1, r1, #-1073741820	; 0xc0000004
     d6c:	97184006 	ldrls	r4, [r8, -r6]
     d70:	13011942 	movwne	r1, #6466	; 0x1942
     d74:	052d0000 	streq	r0, [sp, #-0]!
     d78:	02133100 	andseq	r3, r3, #0
     d7c:	2e000018 	mcrcs	0, 0, r0, cr0, cr8, {0}
     d80:	13310005 	teqne	r1, #5, 0
     d84:	00000b1c 	andeq	r0, r0, ip, lsl fp
     d88:	31010b2f 	tstcc	r1, pc, lsr #22
     d8c:	12011113 	andne	r1, r1, #-1073741820	; 0xc0000004
     d90:	00130106 	andseq	r0, r3, r6, lsl #2
     d94:	002e3000 	eoreq	r3, lr, r0
     d98:	193c193f 	ldmdbne	ip!, {r0, r1, r2, r3, r4, r5, r8, fp, ip}
     d9c:	0e030e6e 	cdpeq	14, 0, cr0, cr3, cr14, {3}
     da0:	0b3b0b3a 	bleq	ec3a90 <__bss_end__+0xeb8c28>
     da4:	00000b39 	andeq	r0, r0, r9, lsr fp
     da8:	01110100 	tsteq	r1, r0, lsl #2
     dac:	0b130e25 	bleq	4c4648 <__bss_end__+0x4b97e0>
     db0:	0e1b0e03 	cdpeq	14, 1, cr0, cr11, cr3, {0}
     db4:	06120111 			; <UNDEFINED> instruction: 0x06120111
     db8:	00001710 	andeq	r1, r0, r0, lsl r7
     dbc:	0b002402 	bleq	9dcc <kmalloc_aligned+0x9c>
     dc0:	030b3e0b 	movweq	r3, #48651	; 0xbe0b
     dc4:	03000008 	movweq	r0, #8
     dc8:	0b0b0024 	bleq	2c0e60 <__bss_end__+0x2b5ff8>
     dcc:	0e030b3e 	vmoveq.16	d3[0], r0
     dd0:	15040000 	strne	r0, [r4, #-0]
     dd4:	49192701 	ldmdbmi	r9, {r0, r8, r9, sl, sp}
     dd8:	00130113 	andseq	r0, r3, r3, lsl r1
     ddc:	00050500 	andeq	r0, r5, r0, lsl #10
     de0:	00001349 	andeq	r1, r0, r9, asr #6
     de4:	03003406 	movweq	r3, #1030	; 0x406
     de8:	3b0b3a0e 	blcc	2cf628 <__bss_end__+0x2c47c0>
     dec:	490b390b 	stmdbmi	fp, {r0, r1, r3, r8, fp, ip, sp}
     df0:	3c193f13 	ldccc	15, cr3, [r9], {19}
     df4:	07000019 	smladeq	r0, r9, r0, r0
     df8:	0b0b000f 	bleq	2c0e3c <__bss_end__+0x2b5fd4>
     dfc:	00001349 	andeq	r1, r0, r9, asr #6
     e00:	49002608 	stmdbmi	r0, {r3, r9, sl, sp}
     e04:	09000013 	stmdbeq	r0, {r0, r1, r4}
     e08:	193f012e 	ldmdbne	pc!, {r1, r2, r3, r5, r8}	; <UNPREDICTABLE>
     e0c:	0b3a0e03 	bleq	e84620 <__bss_end__+0xe797b8>
     e10:	0b390b3b 	bleq	e43b04 <__bss_end__+0xe38c9c>
     e14:	01871927 	orreq	r1, r7, r7, lsr #18
     e18:	12011119 	andne	r1, r1, #1073741830	; 0x40000006
     e1c:	97184006 	ldrls	r4, [r8, -r6]
     e20:	13011942 	movwne	r1, #6466	; 0x1942
     e24:	890a0000 	stmdbhi	sl, {}	; <UNPREDICTABLE>
     e28:	11010182 	smlabbne	r1, r2, r1, r0
     e2c:	00130101 	andseq	r0, r3, r1, lsl #2
     e30:	828a0b00 	addhi	r0, sl, #0, 22
     e34:	18020001 	stmdane	r2, {r0}
     e38:	00184291 	mulseq	r8, r1, r2
     e3c:	82890c00 	addhi	r0, r9, #0, 24
     e40:	01110001 	tsteq	r1, r1
     e44:	00001331 	andeq	r1, r0, r1, lsr r3
     e48:	0182890d 	orreq	r8, r2, sp, lsl #18
     e4c:	31011101 	tstcc	r1, r1, lsl #2
     e50:	00130113 	andseq	r0, r3, r3, lsl r1
     e54:	002e0e00 	eoreq	r0, lr, r0, lsl #28
     e58:	193c193f 	ldmdbne	ip!, {r0, r1, r2, r3, r4, r5, r8, fp, ip}
     e5c:	0e030e6e 	cdpeq	14, 0, cr0, cr3, cr14, {3}
     e60:	0b3b0b3a 	bleq	ec3b50 <__bss_end__+0xeb8ce8>
     e64:	00000b39 	andeq	r0, r0, r9, lsr fp
     e68:	01110100 	tsteq	r1, r0, lsl #2
     e6c:	0b130e25 	bleq	4c4708 <__bss_end__+0x4b98a0>
     e70:	0e1b0e03 	cdpeq	14, 1, cr0, cr11, cr3, {0}
     e74:	06120111 			; <UNDEFINED> instruction: 0x06120111
     e78:	00001710 	andeq	r1, r0, r0, lsl r7
     e7c:	0b002402 	bleq	9e8c <kfree_pop+0x2c>
     e80:	030b3e0b 	movweq	r3, #48651	; 0xbe0b
     e84:	03000008 	movweq	r0, #8
     e88:	0b0b0024 	bleq	2c0f20 <__bss_end__+0x2b60b8>
     e8c:	0e030b3e 	vmoveq.16	d3[0], r0
     e90:	15040000 	strne	r0, [r4, #-0]
     e94:	49192701 	ldmdbmi	r9, {r0, r8, r9, sl, sp}
     e98:	00130113 	andseq	r0, r3, r3, lsl r1
     e9c:	00050500 	andeq	r0, r5, r0, lsl #10
     ea0:	00001349 	andeq	r1, r0, r9, asr #6
     ea4:	03003406 	movweq	r3, #1030	; 0x406
     ea8:	3b0b3a0e 	blcc	2cf6e8 <__bss_end__+0x2c4880>
     eac:	490b390b 	stmdbmi	fp, {r0, r1, r3, r8, fp, ip, sp}
     eb0:	3c193f13 	ldccc	15, cr3, [r9], {19}
     eb4:	07000019 	smladeq	r0, r9, r0, r0
     eb8:	0b0b000f 	bleq	2c0efc <__bss_end__+0x2b6094>
     ebc:	00001349 	andeq	r1, r0, r9, asr #6
     ec0:	49002608 	stmdbmi	r0, {r3, r9, sl, sp}
     ec4:	09000013 	stmdbeq	r0, {r0, r1, r4}
     ec8:	193f012e 	ldmdbne	pc!, {r1, r2, r3, r5, r8}	; <UNPREDICTABLE>
     ecc:	0b3a0e03 	bleq	e846e0 <__bss_end__+0xe79878>
     ed0:	0b390b3b 	bleq	e43bc4 <__bss_end__+0xe38d5c>
     ed4:	06120111 			; <UNDEFINED> instruction: 0x06120111
     ed8:	42971840 	addsmi	r1, r7, #64, 16	; 0x400000
     edc:	00130119 	andseq	r0, r3, r9, lsl r1
     ee0:	002e0a00 	eoreq	r0, lr, r0, lsl #20
     ee4:	0e03193f 			; <UNDEFINED> instruction: 0x0e03193f
     ee8:	0b3b0b3a 	bleq	ec3bd8 <__bss_end__+0xeb8d70>
     eec:	19270b39 	stmdbne	r7!, {r0, r3, r4, r5, r8, r9, fp}
     ef0:	0000193c 	andeq	r1, r0, ip, lsr r9
     ef4:	0300340b 	movweq	r3, #1035	; 0x40b
     ef8:	3b0b3a08 	blcc	2cf720 <__bss_end__+0x2c48b8>
     efc:	490b390b 	stmdbmi	fp, {r0, r1, r3, r8, fp, ip, sp}
     f00:	b7170213 			; <UNDEFINED> instruction: 0xb7170213
     f04:	00001742 	andeq	r1, r0, r2, asr #14
     f08:	0300340c 	movweq	r3, #1036	; 0x40c
     f0c:	3b0b3a0e 	blcc	2cf74c <__bss_end__+0x2c48e4>
     f10:	490b390b 	stmdbmi	fp, {r0, r1, r3, r8, fp, ip, sp}
     f14:	0d000013 	stceq	0, cr0, [r0, #-76]	; 0xffffffb4
     f18:	0111010b 	tsteq	r1, fp, lsl #2
     f1c:	13010612 	movwne	r0, #5650	; 0x1612
     f20:	890e0000 	stmdbhi	lr, {}	; <UNPREDICTABLE>
     f24:	11000182 	smlabbne	r0, r2, r1, r0
     f28:	00133101 	andseq	r3, r3, r1, lsl #2
     f2c:	002e0f00 	eoreq	r0, lr, r0, lsl #30
     f30:	193c193f 	ldmdbne	ip!, {r0, r1, r2, r3, r4, r5, r8, fp, ip}
     f34:	0e030e6e 	cdpeq	14, 0, cr0, cr3, cr14, {3}
     f38:	053b0b3a 	ldreq	r0, [fp, #-2874]!	; 0xfffff4c6
     f3c:	00000b39 	andeq	r0, r0, r9, lsr fp
     f40:	3f002e10 	svccc	0x00002e10
     f44:	6e193c19 	mrcvs	12, 0, r3, cr9, cr9, {0}
     f48:	3a0e030e 	bcc	381b88 <__bss_end__+0x376d20>
     f4c:	390b3b0b 	stmdbcc	fp, {r0, r1, r3, r8, r9, fp, ip, sp}
     f50:	0000000b 	andeq	r0, r0, fp
     f54:	25011101 	strcs	r1, [r1, #-257]	; 0xfffffeff
     f58:	030b130e 	movweq	r1, #45838	; 0xb30e
     f5c:	110e1b0e 	tstne	lr, lr, lsl #22
     f60:	10061201 	andne	r1, r6, r1, lsl #4
     f64:	02000017 	andeq	r0, r0, #23, 0
     f68:	0b0b0024 	bleq	2c1000 <__bss_end__+0x2b6198>
     f6c:	08030b3e 	stmdaeq	r3, {r1, r2, r3, r4, r5, r8, r9, fp}
     f70:	24030000 	strcs	r0, [r3], #-0
     f74:	3e0b0b00 	vmlacc.f64	d0, d11, d0
     f78:	000e030b 	andeq	r0, lr, fp, lsl #6
     f7c:	01150400 	tsteq	r5, r0, lsl #8
     f80:	13491927 	movtne	r1, #39207	; 0x9927
     f84:	00001301 	andeq	r1, r0, r1, lsl #6
     f88:	49000505 	stmdbmi	r0, {r0, r2, r8, sl}
     f8c:	06000013 			; <UNDEFINED> instruction: 0x06000013
     f90:	0e030034 	mcreq	0, 0, r0, cr3, cr4, {1}
     f94:	0b3b0b3a 	bleq	ec3c84 <__bss_end__+0xeb8e1c>
     f98:	13490b39 	movtne	r0, #39737	; 0x9b39
     f9c:	193c193f 	ldmdbne	ip!, {r0, r1, r2, r3, r4, r5, r8, fp, ip}
     fa0:	0f070000 	svceq	0x00070000
     fa4:	490b0b00 	stmdbmi	fp, {r8, r9, fp}
     fa8:	08000013 	stmdaeq	r0, {r0, r1, r4}
     fac:	13490026 	movtne	r0, #36902	; 0x9026
     fb0:	2e090000 	cdpcs	0, 0, cr0, cr9, cr0, {0}
     fb4:	03193f00 	tsteq	r9, #0, 30
     fb8:	3b0b3a0e 	blcc	2cf7f8 <__bss_end__+0x2c4990>
     fbc:	270b390b 	strcs	r3, [fp, -fp, lsl #18]
     fc0:	12011119 	andne	r1, r1, #1073741830	; 0x40000006
     fc4:	97184006 	ldrls	r4, [r8, -r6]
     fc8:	00001942 	andeq	r1, r0, r2, asr #18
     fcc:	01110100 	tsteq	r1, r0, lsl #2
     fd0:	0b130e25 	bleq	4c486c <__bss_end__+0x4b9a04>
     fd4:	0e1b0e03 	cdpeq	14, 1, cr0, cr11, cr3, {0}
     fd8:	01111755 	tsteq	r1, r5, asr r7
     fdc:	00001710 	andeq	r1, r0, r0, lsl r7
     fe0:	0b002402 	bleq	9ff0 <gpio_set_input+0x48>
     fe4:	030b3e0b 	movweq	r3, #48651	; 0xbe0b
     fe8:	03000008 	movweq	r0, #8
     fec:	13490026 	movtne	r0, #36902	; 0x9026
     ff0:	24040000 	strcs	r0, [r4], #-0
     ff4:	3e0b0b00 	vmlacc.f64	d0, d11, d0
     ff8:	000e030b 	andeq	r0, lr, fp, lsl #6
     ffc:	01150500 	tsteq	r5, r0, lsl #10
    1000:	13491927 	movtne	r1, #39207	; 0x9927
    1004:	00001301 	andeq	r1, r0, r1, lsl #6
    1008:	49000506 	stmdbmi	r0, {r1, r2, r8, sl}
    100c:	07000013 	smladeq	r0, r3, r0, r0
    1010:	0e030034 	mcreq	0, 0, r0, cr3, cr4, {1}
    1014:	0b3b0b3a 	bleq	ec3d04 <__bss_end__+0xeb8e9c>
    1018:	13490b39 	movtne	r0, #39737	; 0x9b39
    101c:	193c193f 	ldmdbne	ip!, {r0, r1, r2, r3, r4, r5, r8, fp, ip}
    1020:	0f080000 	svceq	0x00080000
    1024:	490b0b00 	stmdbmi	fp, {r8, r9, fp}
    1028:	09000013 	stmdbeq	r0, {r0, r1, r4}
    102c:	0e030034 	mcreq	0, 0, r0, cr3, cr4, {1}
    1030:	0b3b0b3a 	bleq	ec3d20 <__bss_end__+0xeb8eb8>
    1034:	13490b39 	movtne	r0, #39737	; 0x9b39
    1038:	2e0a0000 	cdpcs	0, 0, cr0, cr10, cr0, {0}
    103c:	03193f01 	tsteq	r9, #1, 30
    1040:	3b0b3a0e 	blcc	2cf880 <__bss_end__+0x2c4a18>
    1044:	270b390b 	strcs	r3, [fp, -fp, lsl #18]
    1048:	19018719 	stmdbne	r1, {r0, r3, r4, r8, r9, sl, pc}
    104c:	06120111 			; <UNDEFINED> instruction: 0x06120111
    1050:	42971840 	addsmi	r1, r7, #64, 16	; 0x400000
    1054:	00130119 	andseq	r0, r3, r9, lsl r1
    1058:	00340b00 	eorseq	r0, r4, r0, lsl #22
    105c:	0b3a0e03 	bleq	e84870 <__bss_end__+0xe79a08>
    1060:	0b390b3b 	bleq	e43d54 <__bss_end__+0xe38eec>
    1064:	061c1349 	ldreq	r1, [ip], -r9, asr #6
    1068:	340c0000 	strcc	r0, [ip], #-0
    106c:	3a0e0300 	bcc	381c74 <__bss_end__+0x376e0c>
    1070:	390b3b0b 	stmdbcc	fp, {r0, r1, r3, r8, r9, fp, ip, sp}
    1074:	1c13490b 			; <UNDEFINED> instruction: 0x1c13490b
    1078:	0d00000b 	stceq	0, cr0, [r0, #-44]	; 0xffffffd4
    107c:	1331011d 	teqne	r1, #1073741831	; 0x40000007
    1080:	42b80152 	adcsmi	r0, r8, #-2147483628	; 0x80000014
    1084:	5817550b 	ldmdapl	r7, {r0, r1, r3, r8, sl, ip, lr}
    1088:	570b590b 	strpl	r5, [fp, -fp, lsl #18]
    108c:	0013010b 	andseq	r0, r3, fp, lsl #2
    1090:	010b0e00 	tsteq	fp, r0, lsl #28
    1094:	00001755 	andeq	r1, r0, r5, asr r7
    1098:	3100340f 	tstcc	r0, pc, lsl #8
    109c:	b7170213 			; <UNDEFINED> instruction: 0xb7170213
    10a0:	00001742 	andeq	r1, r0, r2, asr #14
    10a4:	31011d10 	tstcc	r1, r0, lsl sp
    10a8:	b8015213 	stmdalt	r1, {r0, r1, r4, r9, ip, lr}
    10ac:	01110b42 	tsteq	r1, r2, asr #22
    10b0:	0b580612 	bleq	1602900 <__bss_end__+0x15f7a98>
    10b4:	0b570b59 	bleq	15c3e20 <__bss_end__+0x15b8fb8>
    10b8:	00001301 	andeq	r1, r0, r1, lsl #6
    10bc:	01828911 	orreq	r8, r2, r1, lsl r9
    10c0:	31011100 	mrscc	r1, (UNDEF: 17)
    10c4:	12000013 	andne	r0, r0, #19, 0
    10c8:	01018289 	smlabbeq	r1, r9, r2, r8
    10cc:	13310111 	teqne	r1, #1073741828	; 0x40000004
    10d0:	00001301 	andeq	r1, r0, r1, lsl #6
    10d4:	01828a13 	orreq	r8, r2, r3, lsl sl
    10d8:	91180200 	tstls	r8, r0, lsl #4
    10dc:	00001842 	andeq	r1, r0, r2, asr #16
    10e0:	01828914 	orreq	r8, r2, r4, lsl r9
    10e4:	31011101 	tstcc	r1, r1, lsl #2
    10e8:	15000013 	strne	r0, [r0, #-19]	; 0xffffffed
    10ec:	193f012e 	ldmdbne	pc!, {r1, r2, r3, r5, r8}	; <UNPREDICTABLE>
    10f0:	0b3a0e03 	bleq	e84904 <__bss_end__+0xe79a9c>
    10f4:	0b390b3b 	bleq	e43de8 <__bss_end__+0xe38f80>
    10f8:	0b201927 	bleq	80759c <__bss_end__+0x7fc734>
    10fc:	00001301 	andeq	r1, r0, r1, lsl #6
    1100:	3f012e16 	svccc	0x00012e16
    1104:	3a0e0319 	bcc	381d70 <__bss_end__+0x376f08>
    1108:	390b3b0b 	stmdbcc	fp, {r0, r1, r3, r8, r9, fp, ip, sp}
    110c:	4919270b 	ldmdbmi	r9, {r0, r1, r3, r8, r9, sl, sp}
    1110:	010b2013 	tsteq	fp, r3, lsl r0
    1114:	17000013 	smladne	r0, r3, r0, r0
    1118:	1331012e 	teqne	r1, #-2147483637	; 0x8000000b
    111c:	06120111 			; <UNDEFINED> instruction: 0x06120111
    1120:	42971840 	addsmi	r1, r7, #64, 16	; 0x400000
    1124:	00130119 	andseq	r0, r3, r9, lsl r1
    1128:	002e1800 	eoreq	r1, lr, r0, lsl #16
    112c:	193c193f 	ldmdbne	ip!, {r0, r1, r2, r3, r4, r5, r8, fp, ip}
    1130:	0e030e6e 	cdpeq	14, 0, cr0, cr3, cr14, {3}
    1134:	053b0b3a 	ldreq	r0, [fp, #-2874]!	; 0xfffff4c6
    1138:	00000b39 	andeq	r0, r0, r9, lsr fp
    113c:	3f002e19 	svccc	0x00002e19
    1140:	6e193c19 	mrcvs	12, 0, r3, cr9, cr9, {0}
    1144:	3a0e030e 	bcc	381d84 <__bss_end__+0x376f1c>
    1148:	390b3b0b 	stmdbcc	fp, {r0, r1, r3, r8, r9, fp, ip, sp}
    114c:	0000000b 	andeq	r0, r0, fp
    1150:	25011101 	strcs	r1, [r1, #-257]	; 0xfffffeff
    1154:	030b130e 	movweq	r1, #45838	; 0xb30e
    1158:	110e1b0e 	tstne	lr, lr, lsl #22
    115c:	10061201 	andne	r1, r6, r1, lsl #4
    1160:	02000017 	andeq	r0, r0, #23, 0
    1164:	0b0b0024 	bleq	2c11fc <__bss_end__+0x2b6394>
    1168:	08030b3e 	stmdaeq	r3, {r1, r2, r3, r4, r5, r8, r9, fp}
    116c:	24030000 	strcs	r0, [r3], #-0
    1170:	3e0b0b00 	vmlacc.f64	d0, d11, d0
    1174:	000e030b 	andeq	r0, lr, fp, lsl #6
    1178:	01150400 	tsteq	r5, r0, lsl #8
    117c:	13491927 	movtne	r1, #39207	; 0x9927
    1180:	00001301 	andeq	r1, r0, r1, lsl #6
    1184:	49000505 	stmdbmi	r0, {r0, r2, r8, sl}
    1188:	06000013 			; <UNDEFINED> instruction: 0x06000013
    118c:	0e030034 	mcreq	0, 0, r0, cr3, cr4, {1}
    1190:	0b3b0b3a 	bleq	ec3e80 <__bss_end__+0xeb9018>
    1194:	13490b39 	movtne	r0, #39737	; 0x9b39
    1198:	193c193f 	ldmdbne	ip!, {r0, r1, r2, r3, r4, r5, r8, fp, ip}
    119c:	0f070000 	svceq	0x00070000
    11a0:	490b0b00 	stmdbmi	fp, {r8, r9, fp}
    11a4:	08000013 	stmdaeq	r0, {r0, r1, r4}
    11a8:	13490026 	movtne	r0, #36902	; 0x9026
    11ac:	2e090000 	cdpcs	0, 0, cr0, cr9, cr0, {0}
    11b0:	03193f01 	tsteq	r9, #1, 30
    11b4:	3b0b3a0e 	blcc	2cf9f4 <__bss_end__+0x2c4b8c>
    11b8:	270b390b 	strcs	r3, [fp, -fp, lsl #18]
    11bc:	12011119 	andne	r1, r1, #1073741830	; 0x40000006
    11c0:	97184006 	ldrls	r4, [r8, -r6]
    11c4:	13011942 	movwne	r1, #6466	; 0x1942
    11c8:	050a0000 	streq	r0, [sl, #-0]
    11cc:	3a080300 	bcc	201dd4 <__bss_end__+0x1f6f6c>
    11d0:	390b3b0b 	stmdbcc	fp, {r0, r1, r3, r8, r9, fp, ip, sp}
    11d4:	0213490b 	andseq	r4, r3, #180224	; 0x2c000
    11d8:	1742b717 	smlaldne	fp, r2, r7, r7
    11dc:	1d0b0000 	stcne	0, cr0, [fp, #-0]
    11e0:	52133101 	andspl	r3, r3, #1073741824	; 0x40000000
    11e4:	0b42b801 	bleq	10af1f0 <__bss_end__+0x10a4388>
    11e8:	0b581755 	bleq	1606f44 <__bss_end__+0x15fc0dc>
    11ec:	0b570b59 	bleq	15c3f58 <__bss_end__+0x15b90f0>
    11f0:	050c0000 	streq	r0, [ip, #-0]
    11f4:	02133100 	andseq	r3, r3, #0
    11f8:	1742b717 	smlaldne	fp, r2, r7, r7
    11fc:	1d0d0000 	stcne	0, cr0, [sp, #-0]
    1200:	52133101 	andspl	r3, r3, #1073741824	; 0x40000000
    1204:	0b42b801 	bleq	10af210 <__bss_end__+0x10a43a8>
    1208:	06120111 			; <UNDEFINED> instruction: 0x06120111
    120c:	0b590b58 	bleq	1643f74 <__bss_end__+0x163910c>
    1210:	00000b57 	andeq	r0, r0, r7, asr fp
    1214:	3100340e 	tstcc	r0, lr, lsl #8
    1218:	b7170213 			; <UNDEFINED> instruction: 0xb7170213
    121c:	00001742 	andeq	r1, r0, r2, asr #14
    1220:	31011d0f 	tstcc	r1, pc, lsl #26
    1224:	b8015213 	stmdalt	r1, {r0, r1, r4, r9, ip, lr}
    1228:	01110b42 	tsteq	r1, r2, asr #22
    122c:	0b580612 	bleq	1602a7c <__bss_end__+0x15f7c14>
    1230:	0b570b59 	bleq	15c3f9c <__bss_end__+0x15b9134>
    1234:	00001301 	andeq	r1, r0, r1, lsl #6
    1238:	01828910 	orreq	r8, r2, r0, lsl r9
    123c:	31011101 	tstcc	r1, r1, lsl #2
    1240:	11000013 	tstne	r0, r3, lsl r0
    1244:	0001828a 	andeq	r8, r1, sl, lsl #5
    1248:	42911802 	addsmi	r1, r1, #131072	; 0x20000
    124c:	12000018 	andne	r0, r0, #24, 0
    1250:	00018289 	andeq	r8, r1, r9, lsl #5
    1254:	13310111 	teqne	r1, #1073741828	; 0x40000004
    1258:	0b130000 	bleq	4c1260 <__bss_end__+0x4b63f8>
    125c:	55133101 	ldrpl	r3, [r3, #-257]	; 0xfffffeff
    1260:	14000017 	strne	r0, [r0], #-23	; 0xffffffe9
    1264:	13310034 	teqne	r1, #52, 0	; 0x34
    1268:	0b150000 	bleq	541270 <__bss_end__+0x536408>
    126c:	00175501 	andseq	r5, r7, r1, lsl #10
    1270:	011d1600 	tsteq	sp, r0, lsl #12
    1274:	01521331 	cmpeq	r2, r1, lsr r3
    1278:	550b42b8 	strpl	r4, [fp, #-696]	; 0xfffffd48
    127c:	590b5817 	stmdbpl	fp, {r0, r1, r2, r4, fp, ip, lr}
    1280:	010b570b 	tsteq	fp, fp, lsl #14
    1284:	17000013 	smladne	r0, r3, r0, r0
    1288:	193f012e 	ldmdbne	pc!, {r1, r2, r3, r5, r8}	; <UNPREDICTABLE>
    128c:	0b3a0e03 	bleq	e84aa0 <__bss_end__+0xe79c38>
    1290:	0b390b3b 	bleq	e43f84 <__bss_end__+0xe3911c>
    1294:	0b201927 	bleq	807738 <__bss_end__+0x7fc8d0>
    1298:	00001301 	andeq	r1, r0, r1, lsl #6
    129c:	03000518 	movweq	r0, #1304	; 0x518
    12a0:	3b0b3a08 	blcc	2cfac8 <__bss_end__+0x2c4c60>
    12a4:	490b390b 	stmdbmi	fp, {r0, r1, r3, r8, fp, ip, sp}
    12a8:	19000013 	stmdbne	r0, {r0, r1, r4}
    12ac:	08030034 	stmdaeq	r3, {r2, r4, r5}
    12b0:	0b3b0b3a 	bleq	ec3fa0 <__bss_end__+0xeb9138>
    12b4:	13490b39 	movtne	r0, #39737	; 0x9b39
    12b8:	0b1a0000 	bleq	6812c0 <__bss_end__+0x676458>
    12bc:	1b000001 	blne	12c8 <__code_start__-0x6d38>
    12c0:	193f012e 	ldmdbne	pc!, {r1, r2, r3, r5, r8}	; <UNPREDICTABLE>
    12c4:	0b3a0e03 	bleq	e84ad8 <__bss_end__+0xe79c70>
    12c8:	0b390b3b 	bleq	e43fbc <__bss_end__+0xe39154>
    12cc:	13491927 	movtne	r1, #39207	; 0x9927
    12d0:	13010b20 	movwne	r0, #6944	; 0x1b20
    12d4:	2e1c0000 	cdpcs	0, 1, cr0, cr12, cr0, {0}
    12d8:	03193f00 	tsteq	r9, #0, 30
    12dc:	3b0b3a0e 	blcc	2cfb1c <__bss_end__+0x2c4cb4>
    12e0:	270b390b 	strcs	r3, [fp, -fp, lsl #18]
    12e4:	20134919 	andscs	r4, r3, r9, lsl r9
    12e8:	1d00000b 	stcne	0, cr0, [r0, #-44]	; 0xffffffd4
    12ec:	1331012e 	teqne	r1, #-2147483637	; 0x8000000b
    12f0:	06120111 			; <UNDEFINED> instruction: 0x06120111
    12f4:	42971840 	addsmi	r1, r7, #64, 16	; 0x400000
    12f8:	00130119 	andseq	r0, r3, r9, lsl r1
    12fc:	82891e00 	addhi	r1, r9, #0, 28
    1300:	01110101 	tsteq	r1, r1, lsl #2
    1304:	31194295 			; <UNDEFINED> instruction: 0x31194295
    1308:	1f000013 	svcne	0x00000013
    130c:	193f002e 	ldmdbne	pc!, {r1, r2, r3, r5}	; <UNPREDICTABLE>
    1310:	0e6e193c 			; <UNDEFINED> instruction: 0x0e6e193c
    1314:	0b3a0e03 	bleq	e84b28 <__bss_end__+0xe79cc0>
    1318:	0b390b3b 	bleq	e4400c <__bss_end__+0xe391a4>
    131c:	01000000 	mrseq	r0, (UNDEF: 0)
    1320:	0e250111 	mcreq	1, 1, r0, cr5, cr1, {0}
    1324:	0e030b13 	vmoveq.32	d3[0], r0
    1328:	01110e1b 	tsteq	r1, fp, lsl lr
    132c:	17100612 			; <UNDEFINED> instruction: 0x17100612
    1330:	24020000 	strcs	r0, [r2], #-0
    1334:	3e0b0b00 	vmlacc.f64	d0, d11, d0
    1338:	0008030b 	andeq	r0, r8, fp, lsl #6
    133c:	00240300 	eoreq	r0, r4, r0, lsl #6
    1340:	0b3e0b0b 	bleq	f83f74 <__bss_end__+0xf7910c>
    1344:	00000e03 	andeq	r0, r0, r3, lsl #28
    1348:	49003504 	stmdbmi	r0, {r2, r8, sl, ip, sp}
    134c:	05000013 	streq	r0, [r0, #-19]	; 0xffffffed
    1350:	0e030016 	mcreq	0, 0, r0, cr3, cr6, {0}
    1354:	0b3b0b3a 	bleq	ec4044 <__bss_end__+0xeb91dc>
    1358:	13490b39 	movtne	r0, #39737	; 0x9b39
    135c:	04060000 	streq	r0, [r6], #-0
    1360:	0b0b3e01 	bleq	2d0b6c <__bss_end__+0x2c5d04>
    1364:	3a13490b 	bcc	4d3798 <__bss_end__+0x4c8930>
    1368:	390b3b0b 	stmdbcc	fp, {r0, r1, r3, r8, r9, fp, ip, sp}
    136c:	0013010b 	andseq	r0, r3, fp, lsl #2
    1370:	00280700 	eoreq	r0, r8, r0, lsl #14
    1374:	0b1c0e03 	bleq	704b88 <__bss_end__+0x6f9d20>
    1378:	13080000 	movwne	r0, #32768	; 0x8000
    137c:	0b0e0301 	bleq	381f88 <__bss_end__+0x377120>
    1380:	3b0b3a0b 	blcc	2cfbb4 <__bss_end__+0x2c4d4c>
    1384:	010b390b 	tsteq	fp, fp, lsl #18
    1388:	09000013 	stmdbeq	r0, {r0, r1, r4}
    138c:	0803000d 	stmdaeq	r3, {r0, r2, r3}
    1390:	0b3b0b3a 	bleq	ec4080 <__bss_end__+0xeb9218>
    1394:	13490b39 	movtne	r0, #39737	; 0x9b39
    1398:	00000b38 	andeq	r0, r0, r8, lsr fp
    139c:	03000d0a 	movweq	r0, #3338	; 0xd0a
    13a0:	3b0b3a0e 	blcc	2cfbe0 <__bss_end__+0x2c4d78>
    13a4:	490b390b 	stmdbmi	fp, {r0, r1, r3, r8, fp, ip, sp}
    13a8:	000b3813 	andeq	r3, fp, r3, lsl r8
    13ac:	00340b00 	eorseq	r0, r4, r0, lsl #22
    13b0:	0b3a0e03 	bleq	e84bc4 <__bss_end__+0xe79d5c>
    13b4:	0b390b3b 	bleq	e440a8 <__bss_end__+0xe39240>
    13b8:	061c1349 	ldreq	r1, [ip], -r9, asr #6
    13bc:	0f0c0000 	svceq	0x000c0000
    13c0:	490b0b00 	stmdbmi	fp, {r8, r9, fp}
    13c4:	0d000013 	stceq	0, cr0, [r0, #-76]	; 0xffffffb4
    13c8:	13490026 	movtne	r0, #36902	; 0x9026
    13cc:	2e0e0000 	cdpcs	0, 0, cr0, cr14, cr0, {0}
    13d0:	03193f01 	tsteq	r9, #1, 30
    13d4:	3b0b3a0e 	blcc	2cfc14 <__bss_end__+0x2c4dac>
    13d8:	270b390b 	strcs	r3, [fp, -fp, lsl #18]
    13dc:	12011119 	andne	r1, r1, #1073741830	; 0x40000006
    13e0:	97184006 	ldrls	r4, [r8, -r6]
    13e4:	13011942 	movwne	r1, #6466	; 0x1942
    13e8:	890f0000 	stmdbhi	pc, {}	; <UNPREDICTABLE>
    13ec:	11000182 	smlabbne	r0, r2, r1, r0
    13f0:	00133101 	andseq	r3, r3, r1, lsl #2
    13f4:	012e1000 			; <UNDEFINED> instruction: 0x012e1000
    13f8:	0e03193f 			; <UNDEFINED> instruction: 0x0e03193f
    13fc:	0b3b0b3a 	bleq	ec40ec <__bss_end__+0xeb9284>
    1400:	19270b39 	stmdbne	r7!, {r0, r3, r4, r5, r8, r9, fp}
    1404:	01111349 	tsteq	r1, r9, asr #6
    1408:	18400612 	stmdane	r0, {r1, r4, r9, sl}^
    140c:	01194297 			; <UNDEFINED> instruction: 0x01194297
    1410:	11000013 	tstne	r0, r3, lsl r0
    1414:	01018289 	smlabbeq	r1, r9, r2, r8
    1418:	13310111 	teqne	r1, #1073741828	; 0x40000004
    141c:	8a120000 	bhi	481424 <__bss_end__+0x4765bc>
    1420:	02000182 	andeq	r0, r0, #-2147483616	; 0x80000020
    1424:	18429118 	stmdane	r2, {r3, r4, r8, ip, pc}^
    1428:	05130000 	ldreq	r0, [r3, #-0]
    142c:	3a080300 	bcc	202034 <__bss_end__+0x1f71cc>
    1430:	390b3b0b 	stmdbcc	fp, {r0, r1, r3, r8, r9, fp, ip, sp}
    1434:	0213490b 	andseq	r4, r3, #180224	; 0x2c000
    1438:	1742b717 	smlaldne	fp, r2, r7, r7
    143c:	89140000 	ldmdbhi	r4, {}	; <UNPREDICTABLE>
    1440:	11010182 	smlabbne	r1, r2, r1, r0
    1444:	01133101 	tsteq	r3, r1, lsl #2
    1448:	15000013 	strne	r0, [r0, #-19]	; 0xffffffed
    144c:	08030034 	stmdaeq	r3, {r2, r4, r5}
    1450:	0b3b0b3a 	bleq	ec4140 <__bss_end__+0xeb92d8>
    1454:	13490b39 	movtne	r0, #39737	; 0x9b39
    1458:	42b71702 	adcsmi	r1, r7, #524288	; 0x80000
    145c:	16000017 			; <UNDEFINED> instruction: 0x16000017
    1460:	0e030034 	mcreq	0, 0, r0, cr3, cr4, {1}
    1464:	0b3b0b3a 	bleq	ec4154 <__bss_end__+0xeb92ec>
    1468:	13490b39 	movtne	r0, #39737	; 0x9b39
    146c:	0000051c 	andeq	r0, r0, ip, lsl r5
    1470:	03012e17 	movweq	r2, #7703	; 0x1e17
    1474:	3b0b3a0e 	blcc	2cfcb4 <__bss_end__+0x2c4e4c>
    1478:	270b390b 	strcs	r3, [fp, -fp, lsl #18]
    147c:	12011119 	andne	r1, r1, #1073741830	; 0x40000006
    1480:	97184006 	ldrls	r4, [r8, -r6]
    1484:	13011942 	movwne	r1, #6466	; 0x1942
    1488:	05180000 	ldreq	r0, [r8, #-0]
    148c:	3a0e0300 	bcc	382094 <__bss_end__+0x37722c>
    1490:	390b3b0b 	stmdbcc	fp, {r0, r1, r3, r8, r9, fp, ip, sp}
    1494:	0213490b 	andseq	r4, r3, #180224	; 0x2c000
    1498:	1742b717 	smlaldne	fp, r2, r7, r7
    149c:	35190000 	ldrcc	r0, [r9, #-0]
    14a0:	1a000000 	bne	14a8 <__code_start__-0x6b58>
    14a4:	193f002e 	ldmdbne	pc!, {r1, r2, r3, r5}	; <UNPREDICTABLE>
    14a8:	0e6e193c 			; <UNDEFINED> instruction: 0x0e6e193c
    14ac:	0b3a0e03 	bleq	e84cc0 <__bss_end__+0xe79e58>
    14b0:	0b390b3b 	bleq	e441a4 <__bss_end__+0xe3933c>
    14b4:	01000000 	mrseq	r0, (UNDEF: 0)
    14b8:	0e250111 	mcreq	1, 1, r0, cr5, cr1, {0}
    14bc:	0e030b13 	vmoveq.32	d3[0], r0
    14c0:	01110e1b 	tsteq	r1, fp, lsl lr
    14c4:	17100612 			; <UNDEFINED> instruction: 0x17100612
    14c8:	24020000 	strcs	r0, [r2], #-0
    14cc:	3e0b0b00 	vmlacc.f64	d0, d11, d0
    14d0:	0008030b 	andeq	r0, r8, fp, lsl #6
    14d4:	00240300 	eoreq	r0, r4, r0, lsl #6
    14d8:	0b3e0b0b 	bleq	f8410c <__bss_end__+0xf792a4>
    14dc:	00000e03 	andeq	r0, r0, r3, lsl #28
    14e0:	03001604 	movweq	r1, #1540	; 0x604
    14e4:	3b0b3a0e 	blcc	2cfd24 <__bss_end__+0x2c4ebc>
    14e8:	490b390b 	stmdbmi	fp, {r0, r1, r3, r8, fp, ip, sp}
    14ec:	05000013 	streq	r0, [r0, #-19]	; 0xffffffed
    14f0:	13490026 	movtne	r0, #36902	; 0x9026
    14f4:	0f060000 	svceq	0x00060000
    14f8:	000b0b00 	andeq	r0, fp, r0, lsl #22
    14fc:	01040700 	tsteq	r4, r0, lsl #14
    1500:	0b0b0b3e 	bleq	2c4200 <__bss_end__+0x2b9398>
    1504:	0b3a1349 	bleq	e86230 <__bss_end__+0xe7b3c8>
    1508:	0b390b3b 	bleq	e441fc <__bss_end__+0xe39394>
    150c:	00001301 	andeq	r1, r0, r1, lsl #6
    1510:	03002808 	movweq	r2, #2056	; 0x808
    1514:	00061c0e 	andeq	r1, r6, lr, lsl #24
    1518:	00340900 	eorseq	r0, r4, r0, lsl #18
    151c:	0b3a0e03 	bleq	e84d30 <__bss_end__+0xe79ec8>
    1520:	0b390b3b 	bleq	e44214 <__bss_end__+0xe393ac>
    1524:	193f1349 	ldmdbne	pc!, {r0, r3, r6, r8, r9, ip}	; <UNPREDICTABLE>
    1528:	0000193c 	andeq	r1, r0, ip, lsr r9
    152c:	0300340a 	movweq	r3, #1034	; 0x40a
    1530:	3b0b3a0e 	blcc	2cfd70 <__bss_end__+0x2c4f08>
    1534:	490b390b 	stmdbmi	fp, {r0, r1, r3, r8, fp, ip, sp}
    1538:	00180213 	andseq	r0, r8, r3, lsl r2
    153c:	000f0b00 	andeq	r0, pc, r0, lsl #22
    1540:	13490b0b 	movtne	r0, #39691	; 0x9b0b
    1544:	2e0c0000 	cdpcs	0, 0, cr0, cr12, cr0, {0}
    1548:	03193f01 	tsteq	r9, #1, 30
    154c:	3b0b3a0e 	blcc	2cfd8c <__bss_end__+0x2c4f24>
    1550:	270b390b 	strcs	r3, [fp, -fp, lsl #18]
    1554:	12011119 	andne	r1, r1, #1073741830	; 0x40000006
    1558:	97184006 	ldrls	r4, [r8, -r6]
    155c:	13011942 	movwne	r1, #6466	; 0x1942
    1560:	050d0000 	streq	r0, [sp, #-0]
    1564:	3a080300 	bcc	20216c <__bss_end__+0x1f7304>
    1568:	390b3b0b 	stmdbcc	fp, {r0, r1, r3, r8, r9, fp, ip, sp}
    156c:	0213490b 	andseq	r4, r3, #180224	; 0x2c000
    1570:	1742b717 	smlaldne	fp, r2, r7, r7
    1574:	340e0000 	strcc	r0, [lr], #-0
    1578:	490e0300 	stmdbmi	lr, {r8, r9}
    157c:	02193413 	andseq	r3, r9, #318767104	; 0x13000000
    1580:	0f000018 	svceq	0x00000018
    1584:	01018289 	smlabbeq	r1, r9, r2, r8
    1588:	13310111 	teqne	r1, #1073741828	; 0x40000004
    158c:	00001301 	andeq	r1, r0, r1, lsl #6
    1590:	01828a10 	orreq	r8, r2, r0, lsl sl
    1594:	91180200 	tstls	r8, r0, lsl #4
    1598:	00001842 	andeq	r1, r0, r2, asr #16
    159c:	01828911 	orreq	r8, r2, r1, lsl r9
    15a0:	31011100 	mrscc	r1, (UNDEF: 17)
    15a4:	12000013 	andne	r0, r0, #19, 0
    15a8:	13490101 	movtne	r0, #37121	; 0x9101
    15ac:	00001301 	andeq	r1, r0, r1, lsl #6
    15b0:	49002113 	stmdbmi	r0, {r0, r1, r4, r8, sp}
    15b4:	000b2f13 	andeq	r2, fp, r3, lsl pc
    15b8:	002e1400 	eoreq	r1, lr, r0, lsl #8
    15bc:	0e03193f 			; <UNDEFINED> instruction: 0x0e03193f
    15c0:	0b3b0b3a 	bleq	ec42b0 <__bss_end__+0xeb9448>
    15c4:	19270b39 	stmdbne	r7!, {r0, r3, r4, r5, r8, r9, fp}
    15c8:	06120111 			; <UNDEFINED> instruction: 0x06120111
    15cc:	42971840 	addsmi	r1, r7, #64, 16	; 0x400000
    15d0:	15000019 	strne	r0, [r0, #-25]	; 0xffffffe7
    15d4:	08030005 	stmdaeq	r3, {r0, r2}
    15d8:	0b3b0b3a 	bleq	ec42c8 <__bss_end__+0xeb9460>
    15dc:	13490b39 	movtne	r0, #39737	; 0x9b39
    15e0:	00001802 	andeq	r1, r0, r2, lsl #16
    15e4:	3f012e16 	svccc	0x00012e16
    15e8:	3a0e0319 	bcc	382254 <__bss_end__+0x3773ec>
    15ec:	390b3b0b 	stmdbcc	fp, {r0, r1, r3, r8, r9, fp, ip, sp}
    15f0:	4919270b 	ldmdbmi	r9, {r0, r1, r3, r8, r9, sl, sp}
    15f4:	12011113 	andne	r1, r1, #-1073741820	; 0xc0000004
    15f8:	97184006 	ldrls	r4, [r8, -r6]
    15fc:	13011942 	movwne	r1, #6466	; 0x1942
    1600:	05170000 	ldreq	r0, [r7, #-0]
    1604:	3a0e0300 	bcc	38220c <__bss_end__+0x3773a4>
    1608:	390b3b0b 	stmdbcc	fp, {r0, r1, r3, r8, r9, fp, ip, sp}
    160c:	0213490b 	andseq	r4, r3, #180224	; 0x2c000
    1610:	1742b717 	smlaldne	fp, r2, r7, r7
    1614:	34180000 	ldrcc	r0, [r8], #-0
    1618:	3a080300 	bcc	202220 <__bss_end__+0x1f73b8>
    161c:	390b3b0b 	stmdbcc	fp, {r0, r1, r3, r8, r9, fp, ip, sp}
    1620:	0213490b 	andseq	r4, r3, #180224	; 0x2c000
    1624:	1742b717 	smlaldne	fp, r2, r7, r7
    1628:	1d190000 	ldcne	0, cr0, [r9, #-0]
    162c:	52133101 	andspl	r3, r3, #1073741824	; 0x40000000
    1630:	0b42b801 	bleq	10af63c <__bss_end__+0x10a47d4>
    1634:	06120111 			; <UNDEFINED> instruction: 0x06120111
    1638:	0b590b58 	bleq	16443a0 <__bss_end__+0x1639538>
    163c:	13010b57 	movwne	r0, #6999	; 0x1b57
    1640:	051a0000 	ldreq	r0, [sl, #-0]
    1644:	02133100 	andseq	r3, r3, #0
    1648:	1742b717 	smlaldne	fp, r2, r7, r7
    164c:	1d1b0000 	ldcne	0, cr0, [fp, #-0]
    1650:	52133101 	andspl	r3, r3, #1073741824	; 0x40000000
    1654:	0b42b801 	bleq	10af660 <__bss_end__+0x10a47f8>
    1658:	0b581755 	bleq	16073b4 <__bss_end__+0x15fc54c>
    165c:	0b570b59 	bleq	15c43c8 <__bss_end__+0x15b9560>
    1660:	00001301 	andeq	r1, r0, r1, lsl #6
    1664:	55010b1c 	strpl	r0, [r1, #-2844]	; 0xfffff4e4
    1668:	1d000017 	stcne	0, cr0, [r0, #-92]	; 0xffffffa4
    166c:	0e030034 	mcreq	0, 0, r0, cr3, cr4, {1}
    1670:	0b3b0b3a 	bleq	ec4360 <__bss_end__+0xeb94f8>
    1674:	13490b39 	movtne	r0, #39737	; 0x9b39
    1678:	42b71702 	adcsmi	r1, r7, #524288	; 0x80000
    167c:	1e000017 	mcrne	0, 0, r0, cr0, cr7, {0}
    1680:	1755000b 	ldrbne	r0, [r5, -fp]
    1684:	2e1f0000 	cdpcs	0, 1, cr0, cr15, cr0, {0}
    1688:	03193f00 	tsteq	r9, #0, 30
    168c:	3b0b3a0e 	blcc	2cfecc <__bss_end__+0x2c5064>
    1690:	270b390b 	strcs	r3, [fp, -fp, lsl #18]
    1694:	11134919 	tstne	r3, r9, lsl r9
    1698:	40061201 	andmi	r1, r6, r1, lsl #4
    169c:	19429718 	stmdbne	r2, {r3, r4, r8, r9, sl, ip, pc}^
    16a0:	2e200000 	cdpcs	0, 2, cr0, cr0, cr0, {0}
    16a4:	3a0e0301 	bcc	3822b0 <__bss_end__+0x377448>
    16a8:	390b3b0b 	stmdbcc	fp, {r0, r1, r3, r8, r9, fp, ip, sp}
    16ac:	4919270b 	ldmdbmi	r9, {r0, r1, r3, r8, r9, sl, sp}
    16b0:	010b2013 	tsteq	fp, r3, lsl r0
    16b4:	21000013 	tstcs	r0, r3, lsl r0
    16b8:	08030005 	stmdaeq	r3, {r0, r2}
    16bc:	0b3b0b3a 	bleq	ec43ac <__bss_end__+0xeb9544>
    16c0:	13490b39 	movtne	r0, #39737	; 0x9b39
    16c4:	2e220000 	cdpcs	0, 2, cr0, cr2, cr0, {0}
    16c8:	3c193f00 	ldccc	15, cr3, [r9], {-0}
    16cc:	030e6e19 	movweq	r6, #60953	; 0xee19
    16d0:	3b0b3a0e 	blcc	2cff10 <__bss_end__+0x2c50a8>
    16d4:	000b390b 	andeq	r3, fp, fp, lsl #18
    16d8:	11010000 	mrsne	r0, (UNDEF: 1)
    16dc:	130e2501 	movwne	r2, #58625	; 0xe501
    16e0:	1b0e030b 	blne	382314 <__bss_end__+0x3774ac>
    16e4:	1201110e 	andne	r1, r1, #-2147483645	; 0x80000003
    16e8:	00171006 	andseq	r1, r7, r6
    16ec:	00240200 	eoreq	r0, r4, r0, lsl #4
    16f0:	0b3e0b0b 	bleq	f84324 <__bss_end__+0xf794bc>
    16f4:	00000e03 	andeq	r0, r0, r3, lsl #28
    16f8:	0b002403 	bleq	a70c <__FUNCTION__.4093+0x60>
    16fc:	030b3e0b 	movweq	r3, #48651	; 0xbe0b
    1700:	04000008 	streq	r0, [r0], #-8
    1704:	13490026 	movtne	r0, #36902	; 0x9026
    1708:	16050000 	strne	r0, [r5], -r0
    170c:	3a0e0300 	bcc	382314 <__bss_end__+0x3774ac>
    1710:	390b3b0b 	stmdbcc	fp, {r0, r1, r3, r8, r9, fp, ip, sp}
    1714:	0013490b 	andseq	r4, r3, fp, lsl #18
    1718:	01150600 	tsteq	r5, r0, lsl #12
    171c:	13491927 	movtne	r1, #39207	; 0x9927
    1720:	00001301 	andeq	r1, r0, r1, lsl #6
    1724:	49000507 	stmdbmi	r0, {r0, r1, r2, r8, sl}
    1728:	08000013 	stmdaeq	r0, {r0, r1, r4}
    172c:	0e030034 	mcreq	0, 0, r0, cr3, cr4, {1}
    1730:	0b3b0b3a 	bleq	ec4420 <__bss_end__+0xeb95b8>
    1734:	13490b39 	movtne	r0, #39737	; 0x9b39
    1738:	193c193f 	ldmdbne	ip!, {r0, r1, r2, r3, r4, r5, r8, fp, ip}
    173c:	0f090000 	svceq	0x00090000
    1740:	490b0b00 	stmdbmi	fp, {r8, r9, fp}
    1744:	0a000013 	beq	1798 <__code_start__-0x6868>
    1748:	0b3e0104 	bleq	f81b60 <__bss_end__+0xf76cf8>
    174c:	13490b0b 	movtne	r0, #39691	; 0x9b0b
    1750:	0b3b0b3a 	bleq	ec4440 <__bss_end__+0xeb95d8>
    1754:	13010b39 	movwne	r0, #6969	; 0x1b39
    1758:	280b0000 	stmdacs	fp, {}	; <UNPREDICTABLE>
    175c:	1c0e0300 	stcne	3, cr0, [lr], {-0}
    1760:	0c00000b 	stceq	0, cr0, [r0], {11}
    1764:	0e030034 	mcreq	0, 0, r0, cr3, cr4, {1}
    1768:	0b3b0b3a 	bleq	ec4458 <__bss_end__+0xeb95f0>
    176c:	13490b39 	movtne	r0, #39737	; 0x9b39
    1770:	0000061c 	andeq	r0, r0, ip, lsl r6
    1774:	3f012e0d 	svccc	0x00012e0d
    1778:	3a0e0319 	bcc	3823e4 <__bss_end__+0x37757c>
    177c:	390b3b0b 	stmdbcc	fp, {r0, r1, r3, r8, r9, fp, ip, sp}
    1780:	4919270b 	ldmdbmi	r9, {r0, r1, r3, r8, r9, sl, sp}
    1784:	12011113 	andne	r1, r1, #-1073741820	; 0xc0000004
    1788:	97184006 	ldrls	r4, [r8, -r6]
    178c:	13011942 	movwne	r1, #6466	; 0x1942
    1790:	050e0000 	streq	r0, [lr, #-0]
    1794:	3a080300 	bcc	20239c <__bss_end__+0x1f7534>
    1798:	390b3b0b 	stmdbcc	fp, {r0, r1, r3, r8, r9, fp, ip, sp}
    179c:	0213490b 	andseq	r4, r3, #180224	; 0x2c000
    17a0:	1742b717 	smlaldne	fp, r2, r7, r7
    17a4:	340f0000 	strcc	r0, [pc], #-0	; 17ac <__code_start__-0x6854>
    17a8:	3a0e0300 	bcc	3823b0 <__bss_end__+0x377548>
    17ac:	390b3b0b 	stmdbcc	fp, {r0, r1, r3, r8, r9, fp, ip, sp}
    17b0:	0213490b 	andseq	r4, r3, #180224	; 0x2c000
    17b4:	1742b717 	smlaldne	fp, r2, r7, r7
    17b8:	34100000 	ldrcc	r0, [r0], #-0
    17bc:	3a080300 	bcc	2023c4 <__bss_end__+0x1f755c>
    17c0:	390b3b0b 	stmdbcc	fp, {r0, r1, r3, r8, r9, fp, ip, sp}
    17c4:	0213490b 	andseq	r4, r3, #180224	; 0x2c000
    17c8:	1742b717 	smlaldne	fp, r2, r7, r7
    17cc:	89110000 	ldmdbhi	r1, {}	; <UNPREDICTABLE>
    17d0:	11010182 	smlabbne	r1, r2, r1, r0
    17d4:	00133101 	andseq	r3, r3, r1, lsl #2
    17d8:	828a1200 	addhi	r1, sl, #0, 4
    17dc:	18020001 	stmdane	r2, {r0}
    17e0:	00184291 	mulseq	r8, r1, r2
    17e4:	012e1300 			; <UNDEFINED> instruction: 0x012e1300
    17e8:	0e03193f 			; <UNDEFINED> instruction: 0x0e03193f
    17ec:	0b3b0b3a 	bleq	ec44dc <__bss_end__+0xeb9674>
    17f0:	19270b39 	stmdbne	r7!, {r0, r3, r4, r5, r8, r9, fp}
    17f4:	06120111 			; <UNDEFINED> instruction: 0x06120111
    17f8:	42971840 	addsmi	r1, r7, #64, 16	; 0x400000
    17fc:	00130119 	andseq	r0, r3, r9, lsl r1
    1800:	011d1400 	tsteq	sp, r0, lsl #8
    1804:	01521331 	cmpeq	r2, r1, lsr r3
    1808:	550b42b8 	strpl	r4, [fp, #-696]	; 0xfffffd48
    180c:	590b5817 	stmdbpl	fp, {r0, r1, r2, r4, fp, ip, lr}
    1810:	010b570b 	tsteq	fp, fp, lsl #14
    1814:	15000013 	strne	r0, [r0, #-19]	; 0xffffffed
    1818:	13310005 	teqne	r1, #5, 0
    181c:	42b71702 	adcsmi	r1, r7, #524288	; 0x80000
    1820:	16000017 			; <UNDEFINED> instruction: 0x16000017
    1824:	01018289 	smlabbeq	r1, r9, r2, r8
    1828:	42950111 	addsmi	r0, r5, #1073741828	; 0x40000004
    182c:	00133119 	andseq	r3, r3, r9, lsl r1
    1830:	011d1700 	tsteq	sp, r0, lsl #14
    1834:	01521331 	cmpeq	r2, r1, lsr r3
    1838:	110b42b8 			; <UNDEFINED> instruction: 0x110b42b8
    183c:	58061201 	stmdapl	r6, {r0, r9, ip}
    1840:	570b590b 	strpl	r5, [fp, -fp, lsl #18]
    1844:	1800000b 	stmdane	r0, {r0, r1, r3}
    1848:	1331011d 	teqne	r1, #1073741831	; 0x40000007
    184c:	42b80152 	adcsmi	r0, r8, #-2147483628	; 0x80000014
    1850:	5817550b 	ldmdapl	r7, {r0, r1, r3, r8, sl, ip, lr}
    1854:	570b590b 	strpl	r5, [fp, -fp, lsl #18]
    1858:	1900000b 	stmdbne	r0, {r0, r1, r3}
    185c:	13310005 	teqne	r1, #5, 0
    1860:	00000b1c 	andeq	r0, r0, ip, lsl fp
    1864:	55010b1a 	strpl	r0, [r1, #-2842]	; 0xfffff4e6
    1868:	1b000017 	blne	18cc <__code_start__-0x6734>
    186c:	13310034 	teqne	r1, #52, 0	; 0x34
    1870:	341c0000 	ldrcc	r0, [ip], #-0
    1874:	02133100 	andseq	r3, r3, #0
    1878:	1742b717 	smlaldne	fp, r2, r7, r7
    187c:	891d0000 	ldmdbhi	sp, {}	; <UNPREDICTABLE>
    1880:	11010182 	smlabbne	r1, r2, r1, r0
    1884:	01133101 	tsteq	r3, r1, lsl #2
    1888:	1e000013 	mcrne	0, 0, r0, cr0, cr3, {0}
    188c:	193f012e 	ldmdbne	pc!, {r1, r2, r3, r5, r8}	; <UNPREDICTABLE>
    1890:	0b3a0e03 	bleq	e850a4 <__bss_end__+0xe7a23c>
    1894:	0b390b3b 	bleq	e44588 <__bss_end__+0xe39720>
    1898:	0b201927 	bleq	807d3c <__bss_end__+0x7fced4>
    189c:	00001301 	andeq	r1, r0, r1, lsl #6
    18a0:	0300051f 	movweq	r0, #1311	; 0x51f
    18a4:	3b0b3a08 	blcc	2d00cc <__bss_end__+0x2c5264>
    18a8:	490b390b 	stmdbmi	fp, {r0, r1, r3, r8, fp, ip, sp}
    18ac:	20000013 	andcs	r0, r0, r3, lsl r0
    18b0:	0e030005 	cdpeq	0, 0, cr0, cr3, cr5, {0}
    18b4:	0b3b0b3a 	bleq	ec45a4 <__bss_end__+0xeb973c>
    18b8:	13490b39 	movtne	r0, #39737	; 0x9b39
    18bc:	34210000 	strtcc	r0, [r1], #-0
    18c0:	3a080300 	bcc	2024c8 <__bss_end__+0x1f7660>
    18c4:	390b3b0b 	stmdbcc	fp, {r0, r1, r3, r8, r9, fp, ip, sp}
    18c8:	0013490b 	andseq	r4, r3, fp, lsl #18
    18cc:	012e2200 			; <UNDEFINED> instruction: 0x012e2200
    18d0:	0b3a0e03 	bleq	e850e4 <__bss_end__+0xe7a27c>
    18d4:	0b390b3b 	bleq	e445c8 <__bss_end__+0xe39760>
    18d8:	13491927 	movtne	r1, #39207	; 0x9927
    18dc:	13010b20 	movwne	r0, #6944	; 0x1b20
    18e0:	2e230000 	cdpcs	0, 2, cr0, cr3, cr0, {0}
    18e4:	11133101 	tstne	r3, r1, lsl #2
    18e8:	40061201 	andmi	r1, r6, r1, lsl #4
    18ec:	19429718 	stmdbne	r2, {r3, r4, r8, r9, sl, ip, pc}^
    18f0:	00001301 	andeq	r1, r0, r1, lsl #6
    18f4:	3f002e24 	svccc	0x00002e24
    18f8:	6e193c19 	mrcvs	12, 0, r3, cr9, cr9, {0}
    18fc:	3a0e030e 	bcc	38253c <__bss_end__+0x3776d4>
    1900:	390b3b0b 	stmdbcc	fp, {r0, r1, r3, r8, r9, fp, ip, sp}
    1904:	0000000b 	andeq	r0, r0, fp
    1908:	25011101 	strcs	r1, [r1, #-257]	; 0xfffffeff
    190c:	030b130e 	movweq	r1, #45838	; 0xb30e
    1910:	110e1b0e 	tstne	lr, lr, lsl #22
    1914:	10061201 	andne	r1, r6, r1, lsl #4
    1918:	02000017 	andeq	r0, r0, #23, 0
    191c:	0b0b0024 	bleq	2c19b4 <__bss_end__+0x2b6b4c>
    1920:	08030b3e 	stmdaeq	r3, {r1, r2, r3, r4, r5, r8, r9, fp}
    1924:	24030000 	strcs	r0, [r3], #-0
    1928:	3e0b0b00 	vmlacc.f64	d0, d11, d0
    192c:	000e030b 	andeq	r0, lr, fp, lsl #6
    1930:	01150400 	tsteq	r5, r0, lsl #8
    1934:	13491927 	movtne	r1, #39207	; 0x9927
    1938:	00001301 	andeq	r1, r0, r1, lsl #6
    193c:	49000505 	stmdbmi	r0, {r0, r2, r8, sl}
    1940:	06000013 			; <UNDEFINED> instruction: 0x06000013
    1944:	0e030034 	mcreq	0, 0, r0, cr3, cr4, {1}
    1948:	0b3b0b3a 	bleq	ec4638 <__bss_end__+0xeb97d0>
    194c:	13490b39 	movtne	r0, #39737	; 0x9b39
    1950:	193c193f 	ldmdbne	ip!, {r0, r1, r2, r3, r4, r5, r8, fp, ip}
    1954:	0f070000 	svceq	0x00070000
    1958:	490b0b00 	stmdbmi	fp, {r8, r9, fp}
    195c:	08000013 	stmdaeq	r0, {r0, r1, r4}
    1960:	13490026 	movtne	r0, #36902	; 0x9026
    1964:	34090000 	strcc	r0, [r9], #-0
    1968:	3a134700 	bcc	4d3570 <__bss_end__+0x4c8708>
    196c:	390b3b0b 	stmdbcc	fp, {r0, r1, r3, r8, r9, fp, ip, sp}
    1970:	0018020b 	andseq	r0, r8, fp, lsl #4
    1974:	012e0a00 			; <UNDEFINED> instruction: 0x012e0a00
    1978:	0e03193f 			; <UNDEFINED> instruction: 0x0e03193f
    197c:	0b3b0b3a 	bleq	ec466c <__bss_end__+0xeb9804>
    1980:	19270b39 	stmdbne	r7!, {r0, r3, r4, r5, r8, r9, fp}
    1984:	06120111 			; <UNDEFINED> instruction: 0x06120111
    1988:	42971840 	addsmi	r1, r7, #64, 16	; 0x400000
    198c:	00130119 	andseq	r0, r3, r9, lsl r1
    1990:	00050b00 	andeq	r0, r5, r0, lsl #22
    1994:	0b3a0803 	bleq	e839a8 <__bss_end__+0xe78b40>
    1998:	0b390b3b 	bleq	e4468c <__bss_end__+0xe39824>
    199c:	18021349 	stmdane	r2, {r0, r3, r6, r8, r9, ip}
    19a0:	2e0c0000 	cdpcs	0, 0, cr0, cr12, cr0, {0}
    19a4:	03193f00 	tsteq	r9, #0, 30
    19a8:	3b0b3a0e 	blcc	2d01e8 <__bss_end__+0x2c5380>
    19ac:	270b390b 	strcs	r3, [fp, -fp, lsl #18]
    19b0:	12011119 	andne	r1, r1, #1073741830	; 0x40000006
    19b4:	97184006 	ldrls	r4, [r8, -r6]
    19b8:	00001942 	andeq	r1, r0, r2, asr #18
    19bc:	03012e0d 	movweq	r2, #7693	; 0x1e0d
    19c0:	3b0b3a0e 	blcc	2d0200 <__bss_end__+0x2c5398>
    19c4:	270b390b 	strcs	r3, [fp, -fp, lsl #18]
    19c8:	11134919 	tstne	r3, r9, lsl r9
    19cc:	40061201 	andmi	r1, r6, r1, lsl #4
    19d0:	19429718 	stmdbne	r2, {r3, r4, r8, r9, sl, ip, pc}^
    19d4:	00001301 	andeq	r1, r0, r1, lsl #6
    19d8:	0300050e 	movweq	r0, #1294	; 0x50e
    19dc:	3b0b3a08 	blcc	2d0204 <__bss_end__+0x2c539c>
    19e0:	490b390b 	stmdbmi	fp, {r0, r1, r3, r8, fp, ip, sp}
    19e4:	b7170213 			; <UNDEFINED> instruction: 0xb7170213
    19e8:	00001742 	andeq	r1, r0, r2, asr #14
    19ec:	0182890f 	orreq	r8, r2, pc, lsl #18
    19f0:	31011101 	tstcc	r1, r1, lsl #2
    19f4:	10000013 	andne	r0, r0, r3, lsl r0
    19f8:	0001828a 	andeq	r8, r1, sl, lsl #5
    19fc:	42911802 	addsmi	r1, r1, #131072	; 0x20000
    1a00:	11000018 	tstne	r0, r8, lsl r0
    1a04:	193f002e 	ldmdbne	pc!, {r1, r2, r3, r5}	; <UNPREDICTABLE>
    1a08:	0e6e193c 			; <UNDEFINED> instruction: 0x0e6e193c
    1a0c:	0b3a0e03 	bleq	e85220 <__bss_end__+0xe7a3b8>
    1a10:	0b390b3b 	bleq	e44704 <__bss_end__+0xe3989c>
    1a14:	01000000 	mrseq	r0, (UNDEF: 0)
    1a18:	0e250111 	mcreq	1, 1, r0, cr5, cr1, {0}
    1a1c:	0e030b13 	vmoveq.32	d3[0], r0
    1a20:	01110e1b 	tsteq	r1, fp, lsl lr
    1a24:	17100612 			; <UNDEFINED> instruction: 0x17100612
    1a28:	24020000 	strcs	r0, [r2], #-0
    1a2c:	3e0b0b00 	vmlacc.f64	d0, d11, d0
    1a30:	0008030b 	andeq	r0, r8, fp, lsl #6
    1a34:	00240300 	eoreq	r0, r4, r0, lsl #6
    1a38:	0b3e0b0b 	bleq	f8466c <__bss_end__+0xf79804>
    1a3c:	00000e03 	andeq	r0, r0, r3, lsl #28
    1a40:	27011504 	strcs	r1, [r1, -r4, lsl #10]
    1a44:	01134919 	tsteq	r3, r9, lsl r9
    1a48:	05000013 	streq	r0, [r0, #-19]	; 0xffffffed
    1a4c:	13490005 	movtne	r0, #36869	; 0x9005
    1a50:	34060000 	strcc	r0, [r6], #-0
    1a54:	3a0e0300 	bcc	38265c <__bss_end__+0x3777f4>
    1a58:	390b3b0b 	stmdbcc	fp, {r0, r1, r3, r8, r9, fp, ip, sp}
    1a5c:	3f13490b 	svccc	0x0013490b
    1a60:	00193c19 	andseq	r3, r9, r9, lsl ip
    1a64:	000f0700 	andeq	r0, pc, r0, lsl #14
    1a68:	13490b0b 	movtne	r0, #39691	; 0x9b0b
    1a6c:	26080000 	strcs	r0, [r8], -r0
    1a70:	00134900 	andseq	r4, r3, r0, lsl #18
    1a74:	012e0900 			; <UNDEFINED> instruction: 0x012e0900
    1a78:	0e03193f 			; <UNDEFINED> instruction: 0x0e03193f
    1a7c:	0b3b0b3a 	bleq	ec476c <__bss_end__+0xeb9904>
    1a80:	19270b39 	stmdbne	r7!, {r0, r3, r4, r5, r8, r9, fp}
    1a84:	01111349 	tsteq	r1, r9, asr #6
    1a88:	18400612 	stmdane	r0, {r1, r4, r9, sl}^
    1a8c:	01194297 			; <UNDEFINED> instruction: 0x01194297
    1a90:	0a000013 	beq	1ae4 <__code_start__-0x651c>
    1a94:	0e030005 	cdpeq	0, 0, cr0, cr3, cr5, {0}
    1a98:	0b3b0b3a 	bleq	ec4788 <__bss_end__+0xeb9920>
    1a9c:	13490b39 	movtne	r0, #39737	; 0x9b39
    1aa0:	00001802 	andeq	r1, r0, r2, lsl #16
    1aa4:	0300050b 	movweq	r0, #1291	; 0x50b
    1aa8:	3b0b3a08 	blcc	2d02d0 <__bss_end__+0x2c5468>
    1aac:	490b390b 	stmdbmi	fp, {r0, r1, r3, r8, fp, ip, sp}
    1ab0:	b7170213 			; <UNDEFINED> instruction: 0xb7170213
    1ab4:	00001742 	andeq	r1, r0, r2, asr #14
    1ab8:	0300340c 	movweq	r3, #1036	; 0x40c
    1abc:	3b0b3a08 	blcc	2d02e4 <__bss_end__+0x2c547c>
    1ac0:	490b390b 	stmdbmi	fp, {r0, r1, r3, r8, fp, ip, sp}
    1ac4:	b7170213 			; <UNDEFINED> instruction: 0xb7170213
    1ac8:	00001742 	andeq	r1, r0, r2, asr #14
    1acc:	01110100 	tsteq	r1, r0, lsl #2
    1ad0:	0b130e25 	bleq	4c536c <__bss_end__+0x4ba504>
    1ad4:	0e1b0e03 	cdpeq	14, 1, cr0, cr11, cr3, {0}
    1ad8:	06120111 			; <UNDEFINED> instruction: 0x06120111
    1adc:	00001710 	andeq	r1, r0, r0, lsl r7
    1ae0:	0b002402 	bleq	aaf0 <buf.3944+0x8c>
    1ae4:	030b3e0b 	movweq	r3, #48651	; 0xbe0b
    1ae8:	03000008 	movweq	r0, #8
    1aec:	0b0b0024 	bleq	2c1b84 <__bss_end__+0x2b6d1c>
    1af0:	0e030b3e 	vmoveq.16	d3[0], r0
    1af4:	15040000 	strne	r0, [r4, #-0]
    1af8:	49192701 	ldmdbmi	r9, {r0, r8, r9, sl, sp}
    1afc:	00130113 	andseq	r0, r3, r3, lsl r1
    1b00:	00050500 	andeq	r0, r5, r0, lsl #10
    1b04:	00001349 	andeq	r1, r0, r9, asr #6
    1b08:	03003406 	movweq	r3, #1030	; 0x406
    1b0c:	3b0b3a0e 	blcc	2d034c <__bss_end__+0x2c54e4>
    1b10:	490b390b 	stmdbmi	fp, {r0, r1, r3, r8, fp, ip, sp}
    1b14:	3c193f13 	ldccc	15, cr3, [r9], {19}
    1b18:	07000019 	smladeq	r0, r9, r0, r0
    1b1c:	0b0b000f 	bleq	2c1b60 <__bss_end__+0x2b6cf8>
    1b20:	00001349 	andeq	r1, r0, r9, asr #6
    1b24:	49002608 	stmdbmi	r0, {r3, r9, sl, sp}
    1b28:	09000013 	stmdbeq	r0, {r0, r1, r4}
    1b2c:	193f012e 	ldmdbne	pc!, {r1, r2, r3, r5, r8}	; <UNPREDICTABLE>
    1b30:	0b3a0e03 	bleq	e85344 <__bss_end__+0xe7a4dc>
    1b34:	0b390b3b 	bleq	e44828 <__bss_end__+0xe399c0>
    1b38:	13491927 	movtne	r1, #39207	; 0x9927
    1b3c:	06120111 			; <UNDEFINED> instruction: 0x06120111
    1b40:	42971840 	addsmi	r1, r7, #64, 16	; 0x400000
    1b44:	0a000019 	beq	1bb0 <__code_start__-0x6450>
    1b48:	08030005 	stmdaeq	r3, {r0, r2}
    1b4c:	0b3b0b3a 	bleq	ec483c <__bss_end__+0xeb99d4>
    1b50:	13490b39 	movtne	r0, #39737	; 0x9b39
    1b54:	42b71702 	adcsmi	r1, r7, #524288	; 0x80000
    1b58:	00000017 	andeq	r0, r0, r7, lsl r0
    1b5c:	25011101 	strcs	r1, [r1, #-257]	; 0xfffffeff
    1b60:	030b130e 	movweq	r1, #45838	; 0xb30e
    1b64:	110e1b0e 	tstne	lr, lr, lsl #22
    1b68:	10061201 	andne	r1, r6, r1, lsl #4
    1b6c:	02000017 	andeq	r0, r0, #23, 0
    1b70:	0b0b0024 	bleq	2c1c08 <__bss_end__+0x2b6da0>
    1b74:	08030b3e 	stmdaeq	r3, {r1, r2, r3, r4, r5, r8, r9, fp}
    1b78:	24030000 	strcs	r0, [r3], #-0
    1b7c:	3e0b0b00 	vmlacc.f64	d0, d11, d0
    1b80:	000e030b 	andeq	r0, lr, fp, lsl #6
    1b84:	01150400 	tsteq	r5, r0, lsl #8
    1b88:	13491927 	movtne	r1, #39207	; 0x9927
    1b8c:	00001301 	andeq	r1, r0, r1, lsl #6
    1b90:	49000505 	stmdbmi	r0, {r0, r2, r8, sl}
    1b94:	06000013 			; <UNDEFINED> instruction: 0x06000013
    1b98:	0e030034 	mcreq	0, 0, r0, cr3, cr4, {1}
    1b9c:	0b3b0b3a 	bleq	ec488c <__bss_end__+0xeb9a24>
    1ba0:	13490b39 	movtne	r0, #39737	; 0x9b39
    1ba4:	193c193f 	ldmdbne	ip!, {r0, r1, r2, r3, r4, r5, r8, fp, ip}
    1ba8:	0f070000 	svceq	0x00070000
    1bac:	490b0b00 	stmdbmi	fp, {r8, r9, fp}
    1bb0:	08000013 	stmdaeq	r0, {r0, r1, r4}
    1bb4:	13490026 	movtne	r0, #36902	; 0x9026
    1bb8:	2e090000 	cdpcs	0, 0, cr0, cr9, cr0, {0}
    1bbc:	03193f01 	tsteq	r9, #1, 30
    1bc0:	3b0b3a0e 	blcc	2d0400 <__bss_end__+0x2c5598>
    1bc4:	270b390b 	strcs	r3, [fp, -fp, lsl #18]
    1bc8:	11134919 	tstne	r3, r9, lsl r9
    1bcc:	40061201 	andmi	r1, r6, r1, lsl #4
    1bd0:	19429718 	stmdbne	r2, {r3, r4, r8, r9, sl, ip, pc}^
    1bd4:	00001301 	andeq	r1, r0, r1, lsl #6
    1bd8:	0300050a 	movweq	r0, #1290	; 0x50a
    1bdc:	3b0b3a08 	blcc	2d0404 <__bss_end__+0x2c559c>
    1be0:	490b390b 	stmdbmi	fp, {r0, r1, r3, r8, fp, ip, sp}
    1be4:	00180213 	andseq	r0, r8, r3, lsl r2
    1be8:	00050b00 	andeq	r0, r5, r0, lsl #22
    1bec:	0b3a0803 	bleq	e83c00 <__bss_end__+0xe78d98>
    1bf0:	0b390b3b 	bleq	e448e4 <__bss_end__+0xe39a7c>
    1bf4:	17021349 	strne	r1, [r2, -r9, asr #6]
    1bf8:	001742b7 			; <UNDEFINED> instruction: 0x001742b7
    1bfc:	00340c00 	eorseq	r0, r4, r0, lsl #24
    1c00:	0b3a0803 	bleq	e83c14 <__bss_end__+0xe78dac>
    1c04:	0b390b3b 	bleq	e448f8 <__bss_end__+0xe39a90>
    1c08:	17021349 	strne	r1, [r2, -r9, asr #6]
    1c0c:	001742b7 			; <UNDEFINED> instruction: 0x001742b7
    1c10:	11010000 	mrsne	r0, (UNDEF: 1)
    1c14:	130e2501 	movwne	r2, #58625	; 0xe501
    1c18:	1b0e030b 	blne	38284c <__bss_end__+0x3779e4>
    1c1c:	1201110e 	andne	r1, r1, #-2147483645	; 0x80000003
    1c20:	00171006 	andseq	r1, r7, r6
    1c24:	00240200 	eoreq	r0, r4, r0, lsl #4
    1c28:	0b3e0b0b 	bleq	f8485c <__bss_end__+0xf799f4>
    1c2c:	00000803 	andeq	r0, r0, r3, lsl #16
    1c30:	03001603 	movweq	r1, #1539	; 0x603
    1c34:	3b0b3a0e 	blcc	2d0474 <__bss_end__+0x2c560c>
    1c38:	490b390b 	stmdbmi	fp, {r0, r1, r3, r8, fp, ip, sp}
    1c3c:	04000013 	streq	r0, [r0], #-19	; 0xffffffed
    1c40:	0b0b0024 	bleq	2c1cd8 <__bss_end__+0x2b6e70>
    1c44:	0e030b3e 	vmoveq.16	d3[0], r0
    1c48:	26050000 	strcs	r0, [r5], -r0
    1c4c:	00134900 	andseq	r4, r3, r0, lsl #18
    1c50:	01150600 	tsteq	r5, r0, lsl #12
    1c54:	13491927 	movtne	r1, #39207	; 0x9927
    1c58:	00001301 	andeq	r1, r0, r1, lsl #6
    1c5c:	49000507 	stmdbmi	r0, {r0, r1, r2, r8, sl}
    1c60:	08000013 	stmdaeq	r0, {r0, r1, r4}
    1c64:	0e030034 	mcreq	0, 0, r0, cr3, cr4, {1}
    1c68:	0b3b0b3a 	bleq	ec4958 <__bss_end__+0xeb9af0>
    1c6c:	13490b39 	movtne	r0, #39737	; 0x9b39
    1c70:	193c193f 	ldmdbne	ip!, {r0, r1, r2, r3, r4, r5, r8, fp, ip}
    1c74:	0f090000 	svceq	0x00090000
    1c78:	490b0b00 	stmdbmi	fp, {r8, r9, fp}
    1c7c:	0a000013 	beq	1cd0 <__code_start__-0x6330>
    1c80:	193f012e 	ldmdbne	pc!, {r1, r2, r3, r5, r8}	; <UNPREDICTABLE>
    1c84:	0b3a0e03 	bleq	e85498 <__bss_end__+0xe7a630>
    1c88:	0b390b3b 	bleq	e4497c <__bss_end__+0xe39b14>
    1c8c:	13491927 	movtne	r1, #39207	; 0x9927
    1c90:	06120111 			; <UNDEFINED> instruction: 0x06120111
    1c94:	42971840 	addsmi	r1, r7, #64, 16	; 0x400000
    1c98:	00130119 	andseq	r0, r3, r9, lsl r1
    1c9c:	00050b00 	andeq	r0, r5, r0, lsl #22
    1ca0:	0b3a0803 	bleq	e83cb4 <__bss_end__+0xe78e4c>
    1ca4:	0b390b3b 	bleq	e44998 <__bss_end__+0xe39b30>
    1ca8:	17021349 	strne	r1, [r2, -r9, asr #6]
    1cac:	001742b7 			; <UNDEFINED> instruction: 0x001742b7
    1cb0:	00340c00 	eorseq	r0, r4, r0, lsl #24
    1cb4:	0b3a0803 	bleq	e83cc8 <__bss_end__+0xe78e60>
    1cb8:	0b390b3b 	bleq	e449ac <__bss_end__+0xe39b44>
    1cbc:	17021349 	strne	r1, [r2, -r9, asr #6]
    1cc0:	001742b7 			; <UNDEFINED> instruction: 0x001742b7
    1cc4:	11010000 	mrsne	r0, (UNDEF: 1)
    1cc8:	130e2501 	movwne	r2, #58625	; 0xe501
    1ccc:	1b0e030b 	blne	382900 <__bss_end__+0x377a98>
    1cd0:	1201110e 	andne	r1, r1, #-2147483645	; 0x80000003
    1cd4:	00171006 	andseq	r1, r7, r6
    1cd8:	00240200 	eoreq	r0, r4, r0, lsl #4
    1cdc:	0b3e0b0b 	bleq	f84910 <__bss_end__+0xf79aa8>
    1ce0:	00000803 	andeq	r0, r0, r3, lsl #16
    1ce4:	0b002403 	bleq	acf8 <buf.3944+0x294>
    1ce8:	030b3e0b 	movweq	r3, #48651	; 0xbe0b
    1cec:	0400000e 	streq	r0, [r0], #-14
    1cf0:	19270115 	stmdbne	r7!, {r0, r2, r4, r8}
    1cf4:	13011349 	movwne	r1, #4937	; 0x1349
    1cf8:	05050000 	streq	r0, [r5, #-0]
    1cfc:	00134900 	andseq	r4, r3, r0, lsl #18
    1d00:	00340600 	eorseq	r0, r4, r0, lsl #12
    1d04:	0b3a0e03 	bleq	e85518 <__bss_end__+0xe7a6b0>
    1d08:	0b390b3b 	bleq	e449fc <__bss_end__+0xe39b94>
    1d0c:	193f1349 	ldmdbne	pc!, {r0, r3, r6, r8, r9, ip}	; <UNPREDICTABLE>
    1d10:	0000193c 	andeq	r1, r0, ip, lsr r9
    1d14:	0b000f07 	bleq	5938 <__code_start__-0x26c8>
    1d18:	0013490b 	andseq	r4, r3, fp, lsl #18
    1d1c:	00260800 	eoreq	r0, r6, r0, lsl #16
    1d20:	00001349 	andeq	r1, r0, r9, asr #6
    1d24:	3f002e09 	svccc	0x00002e09
    1d28:	3a0e0319 	bcc	382994 <__bss_end__+0x377b2c>
    1d2c:	390b3b0b 	stmdbcc	fp, {r0, r1, r3, r8, r9, fp, ip, sp}
    1d30:	1119270b 	tstne	r9, fp, lsl #14
    1d34:	40061201 	andmi	r1, r6, r1, lsl #4
    1d38:	19429718 	stmdbne	r2, {r3, r4, r8, r9, sl, ip, pc}^
    1d3c:	Address 0x0000000000001d3c is out of bounds.


Disassembly of section .debug_loc:

00000000 <.debug_loc>:
       0:	00000000 	andeq	r0, r0, r0
       4:	0000007c 	andeq	r0, r0, ip, ror r0
       8:	00000080 	andeq	r0, r0, r0, lsl #1
       c:	80500001 	subshi	r0, r0, r1
      10:	83000000 	movwhi	r0, #0
      14:	01000000 	mrseq	r0, (UNDEF: 0)
      18:	00005100 	andeq	r5, r0, r0, lsl #2
	...
      28:	00340000 	eorseq	r0, r4, r0
      2c:	003c0000 	eorseq	r0, ip, r0
      30:	00010000 	andeq	r0, r1, r0
      34:	00003c50 	andeq	r3, r0, r0, asr ip
      38:	00003f00 	andeq	r3, r0, r0, lsl #30
      3c:	51000100 	mrspl	r0, (UNDEF: 16)
      40:	0000003f 	andeq	r0, r0, pc, lsr r0
      44:	0000005c 	andeq	r0, r0, ip, asr r0
      48:	5c540001 	mrrcpl	0, 0, r0, r4, cr1
      4c:	68000000 	stmdavs	r0, {}	; <UNPREDICTABLE>
      50:	03000000 	movweq	r0, #0
      54:	9f7f7000 	svcls	0x007f7000
	...
      60:	00080001 	andeq	r0, r8, r1
      64:	00200000 	eoreq	r0, r0, r0
      68:	00020000 	andeq	r0, r2, r0
      6c:	00009f37 	andeq	r9, r0, r7, lsr pc
      70:	00000000 	andeq	r0, r0, r0
      74:	00010000 	andeq	r0, r1, r0
      78:	00000008 	andeq	r0, r0, r8
      7c:	00000020 	andeq	r0, r0, r0, lsr #32
      80:	67f20006 	ldrbvs	r0, [r2, r6]!
      84:	00000003 	andeq	r0, r0, r3
	...
      90:	00080001 	andeq	r0, r8, r1
      94:	00200000 	eoreq	r0, r0, r0
      98:	00060000 	andeq	r0, r6, r0
      9c:	00a16803 	adceq	r6, r1, r3, lsl #16
      a0:	00009f00 	andeq	r9, r0, r0, lsl #30
	...
      b0:	00000258 	andeq	r0, r0, r8, asr r2
      b4:	00000270 	andeq	r0, r0, r0, ror r2
      b8:	70500001 	subsvc	r0, r0, r1
      bc:	dc000002 	stcle	0, cr0, [r0], {2}
      c0:	01000002 	tsteq	r0, r2
      c4:	02dc5600 	sbcseq	r5, ip, #0, 12
      c8:	02e80000 	rsceq	r0, r8, #0, 0
      cc:	00040000 	andeq	r0, r4, r0
      d0:	9f5001f3 	svcls	0x005001f3
	...
      e0:	02780000 	rsbseq	r0, r8, #0, 0
      e4:	02830000 	addeq	r0, r3, #0, 0
      e8:	00010000 	andeq	r0, r1, r0
      ec:	00028350 	andeq	r8, r2, r0, asr r3
      f0:	0002dc00 	andeq	sp, r2, r0, lsl #24
      f4:	54000100 	strpl	r0, [r0], #-256	; 0xffffff00
      f8:	000002dc 	ldrdeq	r0, [r0], -ip
      fc:	000002e8 	andeq	r0, r0, r8, ror #5
     100:	40030005 	andmi	r0, r3, r5
     104:	000000aa 	andeq	r0, r0, sl, lsr #1
	...
     110:	6c000000 	stcvs	0, cr0, [r0], {-0}
     114:	7c000001 	stcvc	0, cr0, [r0], {1}
     118:	01000001 	tsteq	r0, r1
     11c:	017c5000 	cmneq	ip, r0
     120:	02580000 	subseq	r0, r8, #0, 0
     124:	00010000 	andeq	r0, r1, r0
     128:	00000054 	andeq	r0, r0, r4, asr r0
     12c:	00000000 	andeq	r0, r0, r0
     130:	02020100 	andeq	r0, r2, #0
     134:	00000000 	andeq	r0, r0, r0
     138:	80000000 	andhi	r0, r0, r0
     13c:	80000001 	andhi	r0, r0, r1
     140:	01000001 	tsteq	r0, r1
     144:	01805400 	orreq	r5, r0, r0, lsl #8
     148:	01bc0000 			; <UNDEFINED> instruction: 0x01bc0000
     14c:	00030000 	andeq	r0, r3, r0
     150:	bc9f5c74 	ldclt	12, cr5, [pc], {116}	; 0x74
     154:	f0000001 			; <UNDEFINED> instruction: 0xf0000001
     158:	01000001 	tsteq	r0, r1
     15c:	01f05500 	mvnseq	r5, r0, lsl #10
     160:	02140000 	andseq	r0, r4, #0, 0
     164:	00030000 	andeq	r0, r3, r0
     168:	149f5c74 	ldrne	r5, [pc], #3188	; 170 <__code_start__-0x7e90>
     16c:	58000002 	stmdapl	r0, {r1}
     170:	01000002 	tsteq	r0, r2
     174:	00005500 	andeq	r5, r0, r0, lsl #10
	...
     18c:	00000020 	andeq	r0, r0, r0, lsr #32
     190:	00000038 	andeq	r0, r0, r8, lsr r0
     194:	38500001 	ldmdacc	r0, {r0}^
     198:	40000000 	andmi	r0, r0, r0
     19c:	01000000 	mrseq	r0, (UNDEF: 0)
     1a0:	00405300 	subeq	r5, r0, r0, lsl #6
     1a4:	00680000 	rsbeq	r0, r8, r0
     1a8:	00040000 	andeq	r0, r4, r0
     1ac:	9f5001f3 	svcls	0x005001f3
     1b0:	00000068 	andeq	r0, r0, r8, rrx
     1b4:	00000080 	andeq	r0, r0, r0, lsl #1
     1b8:	80500001 	subshi	r0, r0, r1
     1bc:	88000000 	stmdahi	r0, {}	; <UNPREDICTABLE>
     1c0:	04000000 	streq	r0, [r0], #-0
     1c4:	5001f300 	andpl	pc, r1, r0, lsl #6
     1c8:	0000889f 	muleq	r0, pc, r8	; <UNPREDICTABLE>
     1cc:	00009400 	andeq	r9, r0, r0, lsl #8
     1d0:	53000100 	movwpl	r0, #256	; 0x100
     1d4:	00000094 	muleq	r0, r4, r0
     1d8:	000000c4 	andeq	r0, r0, r4, asr #1
     1dc:	01f30004 	mvnseq	r0, r4
     1e0:	00009f50 	andeq	r9, r0, r0, asr pc
	...
     1f4:	00200000 	eoreq	r0, r0, r0
     1f8:	00400000 	subeq	r0, r0, r0
     1fc:	00010000 	andeq	r0, r1, r0
     200:	00004051 	andeq	r4, r0, r1, asr r0
     204:	00006800 	andeq	r6, r0, r0, lsl #16
     208:	54000100 	strpl	r0, [r0], #-256	; 0xffffff00
     20c:	00000068 	andeq	r0, r0, r8, rrx
     210:	0000007c 	andeq	r0, r0, ip, ror r0
     214:	7c510001 	mrrcvc	0, 0, r0, r1, cr1
     218:	88000000 	stmdahi	r0, {}	; <UNPREDICTABLE>
     21c:	04000000 	streq	r0, [r0], #-0
     220:	5101f300 	mrspl	pc, SP_irq	; <UNPREDICTABLE>
     224:	0000889f 	muleq	r0, pc, r8	; <UNPREDICTABLE>
     228:	00009400 	andeq	r9, r0, r0, lsl #8
     22c:	51000100 	mrspl	r0, (UNDEF: 16)
     230:	00000094 	muleq	r0, r4, r0
     234:	000000c4 	andeq	r0, r0, r4, asr #1
     238:	00540001 	subseq	r0, r4, r1
	...
     244:	00010000 	andeq	r0, r1, r0
     248:	38000000 	stmdacc	r0, {}	; <UNPREDICTABLE>
     24c:	47000000 	strmi	r0, [r0, -r0]
     250:	01000000 	mrseq	r0, (UNDEF: 0)
     254:	00475000 	subeq	r5, r7, r0
     258:	00600000 	rsbeq	r0, r0, r0
     25c:	00010000 	andeq	r0, r1, r0
     260:	00008855 	andeq	r8, r0, r5, asr r8
     264:	00009400 	andeq	r9, r0, r0, lsl #8
     268:	50000100 	andpl	r0, r0, r0, lsl #2
     26c:	00000094 	muleq	r0, r4, r0
     270:	000000c4 	andeq	r0, r0, r4, asr #1
     274:	00550001 	subseq	r0, r5, r1
	...
     280:	48000001 	stmdami	r0, {r0}
     284:	60000000 	andvs	r0, r0, r0
     288:	01000000 	mrseq	r0, (UNDEF: 0)
     28c:	00945000 	addseq	r5, r4, r0
     290:	00a80000 	adceq	r0, r8, r0
     294:	00010000 	andeq	r0, r1, r0
     298:	00000050 	andeq	r0, r0, r0, asr r0
	...
     2a4:	00011400 	andeq	r1, r1, r0, lsl #8
     2a8:	00011f00 	andeq	r1, r1, r0, lsl #30
     2ac:	50000100 	andpl	r0, r0, r0, lsl #2
     2b0:	0000011f 	andeq	r0, r0, pc, lsl r1
     2b4:	0000016c 	andeq	r0, r0, ip, ror #2
     2b8:	00550001 	subseq	r0, r5, r1
	...
     2c8:	24000000 	strcs	r0, [r0], #-0
     2cc:	37000001 	strcc	r0, [r0, -r1]
     2d0:	01000001 	tsteq	r0, r1
     2d4:	01375000 	teqeq	r7, r0
     2d8:	014c0000 	mrseq	r0, (UNDEF: 76)
     2dc:	00010000 	andeq	r0, r1, r0
     2e0:	00014c54 	andeq	r4, r1, r4, asr ip
     2e4:	00015000 	andeq	r5, r1, r0
     2e8:	50000100 	andpl	r0, r0, r0, lsl #2
     2ec:	00000150 	andeq	r0, r0, r0, asr r1
     2f0:	0000016c 	andeq	r0, r0, ip, ror #2
     2f4:	00540001 	subseq	r0, r4, r1
	...
     300:	e4000000 	str	r0, [r0], #-0
     304:	f3000000 	vhadd.u8	d0, d0, d0
     308:	01000000 	mrseq	r0, (UNDEF: 0)
     30c:	00f35000 	rscseq	r5, r3, r0
     310:	01140000 	tsteq	r4, r0
     314:	00010000 	andeq	r0, r1, r0
     318:	00000056 	andeq	r0, r0, r6, asr r0
	...
     324:	0000e400 	andeq	lr, r0, r0, lsl #8
     328:	0000f300 	andeq	pc, r0, r0, lsl #6
     32c:	51000100 	mrspl	r0, (UNDEF: 16)
     330:	000000f3 	strdeq	r0, [r0], -r3
     334:	00000114 	andeq	r0, r0, r4, lsl r1
     338:	00540001 	subseq	r0, r4, r1
	...
     344:	f8000000 			; <UNDEFINED> instruction: 0xf8000000
     348:	fc000000 	stc2	0, cr0, [r0], {-0}
     34c:	01000000 	mrseq	r0, (UNDEF: 0)
     350:	00fc5000 	rscseq	r5, ip, r0
     354:	01140000 	tsteq	r4, r0
     358:	00010000 	andeq	r0, r1, r0
     35c:	00000055 	andeq	r0, r0, r5, asr r0
	...
     368:	0c000001 	stceq	0, cr0, [r0], {1}
     36c:	01000001 	tsteq	r0, r1
     370:	00005000 	andeq	r5, r0, r0
	...
     37c:	00cc0000 	sbceq	r0, ip, r0
     380:	00d70000 	sbcseq	r0, r7, r0
     384:	00010000 	andeq	r0, r1, r0
     388:	0000d750 	andeq	sp, r0, r0, asr r7
     38c:	0000e400 	andeq	lr, r0, r0, lsl #8
     390:	54000100 	strpl	r0, [r0], #-256	; 0xffffff00
	...
     39c:	00d80000 	sbcseq	r0, r8, r0
     3a0:	00dc0000 	sbcseq	r0, ip, r0
     3a4:	00010000 	andeq	r0, r1, r0
     3a8:	00000054 	andeq	r0, r0, r4, asr r0
	...
     3b4:	0000c400 	andeq	ip, r0, r0, lsl #8
     3b8:	0000c800 	andeq	ip, r0, r0, lsl #16
     3bc:	50000100 	andpl	r0, r0, r0, lsl #2
     3c0:	000000c8 	andeq	r0, r0, r8, asr #1
     3c4:	000000cc 	andeq	r0, r0, ip, asr #1
     3c8:	5c700003 	ldclpl	0, cr0, [r0], #-12
     3cc:	0000009f 	muleq	r0, pc, r0	; <UNPREDICTABLE>
	...
     3d8:	00001000 	andeq	r1, r0, r0
     3dc:	00001c00 	andeq	r1, r0, r0, lsl #24
     3e0:	50000100 	andpl	r0, r0, r0, lsl #2
     3e4:	0000001c 	andeq	r0, r0, ip, lsl r0
     3e8:	00000020 	andeq	r0, r0, r0, lsr #32
     3ec:	01f30004 	mvnseq	r0, r4
     3f0:	00009f50 	andeq	r9, r0, r0, asr pc
	...
     400:	00080000 	andeq	r0, r8, r0
     404:	00780000 	rsbseq	r0, r8, r0
     408:	00010000 	andeq	r0, r1, r0
     40c:	00007851 	andeq	r7, r0, r1, asr r8
     410:	00008400 	andeq	r8, r0, r0, lsl #8
     414:	70000300 	andvc	r0, r0, r0, lsl #6
     418:	00849f78 	addeq	r9, r4, r8, ror pc
     41c:	00a40000 	adceq	r0, r4, r0
     420:	00010000 	andeq	r0, r1, r0
     424:	0000a451 	andeq	sl, r0, r1, asr r4
     428:	0000bc00 	andeq	fp, r0, r0, lsl #24
     42c:	70000300 	andvc	r0, r0, r0, lsl #6
     430:	00009f78 	andeq	r9, r0, r8, ror pc
	...
     43c:	00100000 	andseq	r0, r0, r0
     440:	00480000 	subeq	r0, r8, r0
     444:	00010000 	andeq	r0, r1, r0
     448:	00004c53 	andeq	r4, r0, r3, asr ip
     44c:	0000bc00 	andeq	fp, r0, r0, lsl #24
     450:	53000100 	movwpl	r0, #256	; 0x100
	...
     464:	00000100 	andeq	r0, r0, r0, lsl #2
     468:	00000124 	andeq	r0, r0, r4, lsr #2
     46c:	24500001 	ldrbcs	r0, [r0], #-1
     470:	28000001 	stmdacs	r0, {r0}
     474:	04000001 	streq	r0, [r0], #-1
     478:	5001f300 	andpl	pc, r1, r0, lsl #6
     47c:	0001289f 	muleq	r1, pc, r8	; <UNPREDICTABLE>
     480:	00014000 	andeq	r4, r1, r0
     484:	50000100 	andpl	r0, r0, r0, lsl #2
     488:	00000140 	andeq	r0, r0, r0, asr #2
     48c:	000001ac 	andeq	r0, r0, ip, lsr #3
     490:	01f30004 	mvnseq	r0, r4
     494:	00009f50 	andeq	r9, r0, r0, asr pc
	...
     4a4:	00010100 	andeq	r0, r1, r0, lsl #2
     4a8:	00000000 	andeq	r0, r0, r0
     4ac:	00000124 	andeq	r0, r0, r4, lsr #2
     4b0:	00000128 	andeq	r0, r0, r8, lsr #2
     4b4:	40500001 	subsmi	r0, r0, r1
     4b8:	60000001 	andvs	r0, r0, r1
     4bc:	01000001 	tsteq	r0, r1
     4c0:	01605000 	cmneq	r0, r0
     4c4:	01640000 	cmneq	r4, r0
     4c8:	00030000 	andeq	r0, r3, r0
     4cc:	649f7870 	ldrvs	r7, [pc], #2160	; 4d4 <__code_start__-0x7b2c>
     4d0:	70000001 	andvc	r0, r0, r1
     4d4:	01000001 	tsteq	r0, r1
     4d8:	01705000 	cmneq	r0, r0
     4dc:	01780000 	cmneq	r8, r0
     4e0:	00020000 	andeq	r0, r2, r0
     4e4:	01780070 	cmneq	r8, r0, ror r0
     4e8:	01980000 	orrseq	r0, r8, r0
     4ec:	00010000 	andeq	r0, r1, r0
     4f0:	00019c50 	andeq	r9, r1, r0, asr ip
     4f4:	0001ac00 	andeq	sl, r1, r0, lsl #24
     4f8:	50000100 	andpl	r0, r0, r0, lsl #2
	...
     504:	00010100 	andeq	r0, r1, r0, lsl #2
     508:	00010000 	andeq	r0, r1, r0
     50c:	01180000 	tsteq	r8, r0
     510:	01280000 			; <UNDEFINED> instruction: 0x01280000
     514:	00010000 	andeq	r0, r1, r0
     518:	00012852 	andeq	r2, r1, r2, asr r8
     51c:	00014000 	andeq	r4, r1, r0
     520:	03000600 	movweq	r0, #1536	; 0x600
     524:	0000aa50 	andeq	sl, r0, r0, asr sl
     528:	0001409f 	muleq	r1, pc, r0	; <UNPREDICTABLE>
     52c:	00017000 	andeq	r7, r1, r0
     530:	52000100 	andpl	r0, r0, #0
     534:	00000170 	andeq	r0, r0, r0, ror r1
     538:	00000178 	andeq	r0, r0, r8, ror r1
     53c:	78500001 	ldmdavc	r0, {r0}^
     540:	9b000001 	blls	54c <__code_start__-0x7ab4>
     544:	01000001 	tsteq	r0, r1
     548:	00005200 	andeq	r5, r0, r0, lsl #4
	...
     554:	00000110 	andeq	r0, r0, r0, lsl r1
     558:	000001ac 	andeq	r0, r0, ip, lsr #3
     55c:	00540001 	subseq	r0, r4, r1
	...
     568:	bc000000 	stclt	0, cr0, [r0], {-0}
     56c:	cc000000 	stcgt	0, cr0, [r0], {-0}
     570:	01000000 	mrseq	r0, (UNDEF: 0)
     574:	00cc5000 	sbceq	r5, ip, r0
     578:	01000000 	mrseq	r0, (UNDEF: 0)
     57c:	00010000 	andeq	r0, r1, r0
     580:	00000054 	andeq	r0, r0, r4, asr r0
	...
     58c:	d4000000 	strle	r0, [r0], #-0
     590:	e4000000 	str	r0, [r0], #-0
     594:	01000000 	mrseq	r0, (UNDEF: 0)
     598:	00e45000 	rsceq	r5, r4, r0
     59c:	00e70000 	rsceq	r0, r7, r0
     5a0:	00030000 	andeq	r0, r3, r0
     5a4:	f49f7870 			; <UNDEFINED> instruction: 0xf49f7870
     5a8:	f8000000 			; <UNDEFINED> instruction: 0xf8000000
     5ac:	01000000 	mrseq	r0, (UNDEF: 0)
     5b0:	00005000 	andeq	r5, r0, r0
     5b4:	00000000 	andeq	r0, r0, r0
     5b8:	00010000 	andeq	r0, r1, r0
     5bc:	00dc0000 	sbcseq	r0, ip, r0
     5c0:	00e40000 	rsceq	r0, r4, r0
     5c4:	00010000 	andeq	r0, r1, r0
     5c8:	0000e450 	andeq	lr, r0, r0, asr r4
     5cc:	0000e700 	andeq	lr, r0, r0, lsl #14
     5d0:	70000300 	andvc	r0, r0, r0, lsl #6
     5d4:	00009f78 	andeq	r9, r0, r8, ror pc
	...
     5e0:	00000594 	muleq	r0, r4, r5
     5e4:	00000598 	muleq	r0, r8, r5
     5e8:	00500001 	subseq	r0, r0, r1
     5ec:	00000000 	andeq	r0, r0, r0
     5f0:	01000000 	mrseq	r0, (UNDEF: 0)
     5f4:	6c000000 	stcvs	0, cr0, [r0], {-0}
     5f8:	98000003 	stmdals	r0, {r0, r1}
     5fc:	02000003 	andeq	r0, r0, #3, 0
     600:	989f3000 	ldmls	pc, {ip, sp}	; <UNPREDICTABLE>
     604:	24000003 	strcs	r0, [r0], #-3
     608:	01000004 	tsteq	r0, r4
     60c:	00005500 	andeq	r5, r0, r0, lsl #10
     610:	00000000 	andeq	r0, r0, r0
     614:	00010000 	andeq	r0, r1, r0
     618:	036c0000 	cmneq	ip, #0, 0
     61c:	03980000 	orrseq	r0, r8, #0, 0
     620:	00020000 	andeq	r0, r2, r0
     624:	03989f30 	orrseq	r9, r8, #48, 30	; 0xc0
     628:	04240000 	strteq	r0, [r4], #-0
     62c:	00010000 	andeq	r0, r1, r0
     630:	00000058 	andeq	r0, r0, r8, asr r0
     634:	00000000 	andeq	r0, r0, r0
     638:	00000100 	andeq	r0, r0, r0, lsl #2
     63c:	6c000000 	stcvs	0, cr0, [r0], {-0}
     640:	98000003 	stmdals	r0, {r0, r1}
     644:	02000003 	andeq	r0, r0, #3, 0
     648:	989f3000 	ldmls	pc, {ip, sp}	; <UNPREDICTABLE>
     64c:	24000003 	strcs	r0, [r0], #-3
     650:	01000004 	tsteq	r0, r4
     654:	04245700 	strteq	r5, [r4], #-1792	; 0xfffff900
     658:	04400000 	strbeq	r0, [r0], #-0
     65c:	00010000 	andeq	r0, r1, r0
     660:	00000050 	andeq	r0, r0, r0, asr r0
	...
     670:	00038800 	andeq	r8, r3, r0, lsl #16
     674:	0003cc00 	andeq	ip, r3, r0, lsl #24
     678:	50000100 	andpl	r0, r0, r0, lsl #2
     67c:	000003cc 	andeq	r0, r0, ip, asr #7
     680:	000003e8 	andeq	r0, r0, r8, ror #7
     684:	e8540001 	ldmda	r4, {r0}^
     688:	14000003 	strne	r0, [r0], #-3
     68c:	01000004 	tsteq	r0, r4
     690:	04145000 	ldreq	r5, [r4], #-0
     694:	04240000 	strteq	r0, [r4], #-0
     698:	00010000 	andeq	r0, r1, r0
     69c:	00000054 	andeq	r0, r0, r4, asr r0
     6a0:	00000000 	andeq	r0, r0, r0
     6a4:	a8000000 	stmdage	r0, {}	; <UNPREDICTABLE>
     6a8:	c0000003 	andgt	r0, r0, r3
     6ac:	04000003 	streq	r0, [r0], #-3
     6b0:	01010a00 	tsteq	r1, r0, lsl #20
     6b4:	0000009f 	muleq	r0, pc, r0	; <UNPREDICTABLE>
     6b8:	00000000 	andeq	r0, r0, r0
     6bc:	a8000000 	stmdage	r0, {}	; <UNPREDICTABLE>
     6c0:	c0000003 	andgt	r0, r0, r3
     6c4:	06000003 	streq	r0, [r0], -r3
     6c8:	1a10f200 	bne	43ced0 <__bss_end__+0x432068>
	...
     6d8:	0003a800 	andeq	sl, r3, r0, lsl #16
     6dc:	0003c000 	andeq	ip, r3, r0
     6e0:	03000600 	movweq	r0, #1536	; 0x600
     6e4:	0000a354 	andeq	sl, r0, r4, asr r3
     6e8:	0000009f 	muleq	r0, pc, r0	; <UNPREDICTABLE>
	...
     6f4:	44000000 	strmi	r0, [r0], #-0
     6f8:	54000005 	strpl	r0, [r0], #-5
     6fc:	01000005 	tsteq	r0, r5
     700:	05545000 	ldrbeq	r5, [r4, #-0]
     704:	05570000 	ldrbeq	r0, [r7, #-0]
     708:	00010000 	andeq	r0, r1, r0
     70c:	00055751 	andeq	r5, r5, r1, asr r7
     710:	00058800 	andeq	r8, r5, r0, lsl #16
     714:	54000100 	strpl	r0, [r0], #-256	; 0xffffff00
	...
     724:	000004e4 	andeq	r0, r0, r4, ror #9
     728:	000004eb 	andeq	r0, r0, fp, ror #9
     72c:	eb500001 	bl	1400738 <__bss_end__+0x13f58d0>
     730:	f0000004 			; <UNDEFINED> instruction: 0xf0000004
     734:	04000004 	streq	r0, [r0], #-4
     738:	5001f300 	andpl	pc, r1, r0, lsl #6
     73c:	0000009f 	muleq	r0, pc, r0	; <UNPREDICTABLE>
	...
     748:	00027000 	andeq	r7, r2, r0
     74c:	00027c00 	andeq	r7, r2, r0, lsl #24
     750:	50000100 	andpl	r0, r0, r0, lsl #2
     754:	0000027c 	andeq	r0, r0, ip, ror r2
     758:	00000364 	andeq	r0, r0, r4, ror #6
     75c:	00580001 	subseq	r0, r8, r1
     760:	00000000 	andeq	r0, r0, r0
     764:	01000000 	mrseq	r0, (UNDEF: 0)
     768:	78000000 	stmdavc	r0, {}	; <UNPREDICTABLE>
     76c:	a4000002 	strge	r0, [r0], #-2
     770:	02000002 	andeq	r0, r0, #2, 0
     774:	a49f3000 	ldrge	r3, [pc], #0	; 77c <__code_start__-0x7884>
     778:	64000002 	strvs	r0, [r0], #-2
     77c:	01000003 	tsteq	r0, r3
     780:	00005500 	andeq	r5, r0, r0, lsl #10
     784:	00000000 	andeq	r0, r0, r0
     788:	00010000 	andeq	r0, r1, r0
     78c:	00000000 	andeq	r0, r0, r0
     790:	00000278 	andeq	r0, r0, r8, ror r2
     794:	000002a4 	andeq	r0, r0, r4, lsr #5
     798:	9f300002 	svcls	0x00300002
     79c:	000002a4 	andeq	r0, r0, r4, lsr #5
     7a0:	00000328 	andeq	r0, r0, r8, lsr #6
     7a4:	30560001 	subscc	r0, r6, r1
     7a8:	64000003 	strvs	r0, [r0], #-3
     7ac:	01000003 	tsteq	r0, r3
     7b0:	00005600 	andeq	r5, r0, r0, lsl #12
     7b4:	00000000 	andeq	r0, r0, r0
     7b8:	00010000 	andeq	r0, r1, r0
     7bc:	02780000 	rsbseq	r0, r8, #0, 0
     7c0:	02a40000 	adceq	r0, r4, #0, 0
     7c4:	00020000 	andeq	r0, r2, r0
     7c8:	02a49f30 	adceq	r9, r4, #48, 30	; 0xc0
     7cc:	03640000 	cmneq	r4, #0, 0
     7d0:	00010000 	andeq	r0, r1, r0
     7d4:	00000057 	andeq	r0, r0, r7, asr r0
	...
     7e8:	94000000 	strls	r0, [r0], #-0
     7ec:	b4000002 	strlt	r0, [r0], #-2
     7f0:	01000002 	tsteq	r0, r2
     7f4:	02b45000 	adcseq	r5, r4, #0, 0
     7f8:	02c40000 	sbceq	r0, r4, #0, 0
     7fc:	00010000 	andeq	r0, r1, r0
     800:	0002c454 	andeq	ip, r2, r4, asr r4
     804:	0002f400 	andeq	pc, r2, r0, lsl #8
     808:	50000100 	andpl	r0, r0, r0, lsl #2
     80c:	000002f4 	strdeq	r0, [r0], -r4
     810:	000002f7 	strdeq	r0, [r0], -r7
     814:	f7520001 			; <UNDEFINED> instruction: 0xf7520001
     818:	fc000002 	stc2	0, cr0, [r0], {2}
     81c:	01000002 	tsteq	r0, r2
     820:	02fc5400 	rscseq	r5, ip, #0, 8
     824:	03040000 	movweq	r0, #16384	; 0x4000
     828:	00010000 	andeq	r0, r1, r0
     82c:	00030450 	andeq	r0, r3, r0, asr r4
     830:	00036400 	andeq	r6, r3, r0, lsl #8
     834:	54000100 	strpl	r0, [r0], #-256	; 0xffffff00
	...
     844:	000001d8 	ldrdeq	r0, [r0], -r8
     848:	000001f3 	strdeq	r0, [r0], -r3
     84c:	f4500001 			; <UNDEFINED> instruction: 0xf4500001
     850:	fc000001 	stc2	0, cr0, [r0], {1}
     854:	01000001 	tsteq	r0, r1
     858:	00005000 	andeq	r5, r0, r0
	...
     870:	00000064 	andeq	r0, r0, r4, rrx
     874:	000000a4 	andeq	r0, r0, r4, lsr #1
     878:	a4500001 	ldrbge	r0, [r0], #-1
     87c:	ac000000 	stcge	0, cr0, [r0], {-0}
     880:	01000000 	mrseq	r0, (UNDEF: 0)
     884:	00ac5400 	adceq	r5, ip, r0, lsl #8
     888:	00c40000 	sbceq	r0, r4, r0
     88c:	00010000 	andeq	r0, r1, r0
     890:	0000c450 	andeq	ip, r0, r0, asr r4
     894:	0000cc00 	andeq	ip, r0, r0, lsl #24
     898:	f3000400 	vshl.u8	d0, d0, d0
     89c:	cc9f5001 	ldcgt	0, cr5, [pc], {1}
     8a0:	e4000000 	str	r0, [r0], #-0
     8a4:	01000000 	mrseq	r0, (UNDEF: 0)
     8a8:	00e45000 	rsceq	r5, r4, r0
     8ac:	00ec0000 	rsceq	r0, ip, r0
     8b0:	00010000 	andeq	r0, r1, r0
     8b4:	0000ec54 	andeq	lr, r0, r4, asr ip
     8b8:	0001cc00 	andeq	ip, r1, r0, lsl #24
     8bc:	f3000400 	vshl.u8	d0, d0, d0
     8c0:	009f5001 	addseq	r5, pc, r1
	...
     8d8:	00006400 	andeq	r6, r0, r0, lsl #8
     8dc:	0000a000 	andeq	sl, r0, r0
     8e0:	51000100 	mrspl	r0, (UNDEF: 16)
     8e4:	000000a0 	andeq	r0, r0, r0, lsr #1
     8e8:	000000ac 	andeq	r0, r0, ip, lsr #1
     8ec:	ac560001 	mrrcge	0, 0, r0, r6, cr1
     8f0:	c0000000 	andgt	r0, r0, r0
     8f4:	01000000 	mrseq	r0, (UNDEF: 0)
     8f8:	00c05100 	sbceq	r5, r0, r0, lsl #2
     8fc:	00cc0000 	sbceq	r0, ip, r0
     900:	00040000 	andeq	r0, r4, r0
     904:	9f5101f3 	svcls	0x005101f3
     908:	000000cc 	andeq	r0, r0, ip, asr #1
     90c:	000000e0 	andeq	r0, r0, r0, ror #1
     910:	e0510001 	subs	r0, r1, r1
     914:	a8000000 	stmdage	r0, {}	; <UNPREDICTABLE>
     918:	01000001 	tsteq	r0, r1
     91c:	01a85600 			; <UNDEFINED> instruction: 0x01a85600
     920:	01cc0000 	biceq	r0, ip, r0
     924:	00040000 	andeq	r0, r4, r0
     928:	9f5101f3 	svcls	0x005101f3
	...
     934:	00ec0000 	rsceq	r0, ip, r0
     938:	01a80000 			; <UNDEFINED> instruction: 0x01a80000
     93c:	00010000 	andeq	r0, r1, r0
     940:	00000054 	andeq	r0, r0, r4, asr r0
	...
     94c:	ec000000 	stc	0, cr0, [r0], {-0}
     950:	0c000000 	stceq	0, cr0, [r0], {-0}
     954:	01000001 	tsteq	r0, r1
     958:	011c5500 	tsteq	ip, r0, lsl #10
     95c:	01330000 	teqeq	r3, r0
     960:	00010000 	andeq	r0, r1, r0
     964:	00013350 	andeq	r3, r1, r0, asr r3
     968:	0001a000 	andeq	sl, r1, r0
     96c:	55000100 	strpl	r0, [r0, #-256]	; 0xffffff00
	...
     97c:	000000ec 	andeq	r0, r0, ip, ror #1
     980:	00000108 	andeq	r0, r0, r8, lsl #2
     984:	28570001 	ldmdacs	r7, {r0}^
     988:	a0000001 	andge	r0, r0, r1
     98c:	01000001 	tsteq	r0, r1
     990:	00005700 	andeq	r5, r0, r0, lsl #14
	...
     99c:	00ec0000 	rsceq	r0, ip, r0
     9a0:	01080000 	mrseq	r0, (UNDEF: 8)
     9a4:	00010000 	andeq	r0, r1, r0
     9a8:	00012c58 	andeq	r2, r1, r8, asr ip
     9ac:	0001a000 	andeq	sl, r1, r0
     9b0:	58000100 	stmdapl	r0, {r8}
	...
     9c0:	0000003c 	andeq	r0, r0, ip, lsr r0
     9c4:	00000047 	andeq	r0, r0, r7, asr #32
     9c8:	47500001 	ldrbmi	r0, [r0, -r1]
     9cc:	64000000 	strvs	r0, [r0], #-0
     9d0:	01000000 	mrseq	r0, (UNDEF: 0)
     9d4:	00005400 	andeq	r5, r0, r0, lsl #8
     9d8:	00000000 	andeq	r0, r0, r0
     9dc:	00010000 	andeq	r0, r1, r0
     9e0:	00440000 	subeq	r0, r4, r0
     9e4:	00470000 	subeq	r0, r7, r0
     9e8:	00010000 	andeq	r0, r1, r0
     9ec:	00004750 	andeq	r4, r0, r0, asr r7
     9f0:	00006400 	andeq	r6, r0, r0, lsl #8
     9f4:	54000100 	strpl	r0, [r0], #-256	; 0xffffff00
	...
     a10:	00000024 	andeq	r0, r0, r4, lsr #32
     a14:	24500001 	ldrbcs	r0, [r0], #-1
     a18:	28000000 	stmdacs	r0, {}	; <UNPREDICTABLE>
     a1c:	04000000 	streq	r0, [r0], #-0
     a20:	5001f300 	andpl	pc, r1, r0, lsl #6
     a24:	0000289f 	muleq	r0, pc, r8	; <UNPREDICTABLE>
     a28:	00002c00 	andeq	r2, r0, r0, lsl #24
     a2c:	50000100 	andpl	r0, r0, r0, lsl #2
     a30:	0000002c 	andeq	r0, r0, ip, lsr #32
     a34:	00000030 	andeq	r0, r0, r0, lsr r0
     a38:	01f30004 	mvnseq	r0, r4
     a3c:	00309f50 	eorseq	r9, r0, r0, asr pc
     a40:	00340000 	eorseq	r0, r4, r0
     a44:	00010000 	andeq	r0, r1, r0
     a48:	00003450 	andeq	r3, r0, r0, asr r4
     a4c:	00003c00 	andeq	r3, r0, r0, lsl #24
     a50:	f3000400 	vshl.u8	d0, d0, d0
     a54:	009f5001 	addseq	r5, pc, r1
	...
     a68:	40000000 	andmi	r0, r0, r0
     a6c:	68000004 	stmdavs	r0, {r2}
     a70:	01000004 	tsteq	r0, r4
     a74:	04685000 	strbteq	r5, [r8], #-0
     a78:	04940000 	ldreq	r0, [r4], #0
     a7c:	00010000 	andeq	r0, r1, r0
     a80:	00049454 	andeq	r9, r4, r4, asr r4
     a84:	0004ac00 	andeq	sl, r4, r0, lsl #24
     a88:	50000100 	andpl	r0, r0, r0, lsl #2
     a8c:	000004ac 	andeq	r0, r0, ip, lsr #9
     a90:	000004b4 			; <UNDEFINED> instruction: 0x000004b4
     a94:	b4540001 	ldrblt	r0, [r4], #-1
     a98:	c4000004 	strgt	r0, [r0], #-4
     a9c:	01000004 	tsteq	r0, r4
     aa0:	04c45000 	strbeq	r5, [r4], #0
     aa4:	04e40000 	strbteq	r0, [r4], #0
     aa8:	00010000 	andeq	r0, r1, r0
     aac:	00000054 	andeq	r0, r0, r4, asr r0
     ab0:	00000000 	andeq	r0, r0, r0
     ab4:	60000200 	andvs	r0, r0, r0, lsl #4
     ab8:	94000004 	strls	r0, [r0], #-4
     abc:	04000004 	streq	r0, [r0], #-4
     ac0:	24404000 	strbcs	r4, [r0], #-0
     ac4:	0000009f 	muleq	r0, pc, r0	; <UNPREDICTABLE>
	...
     ad4:	00001c00 	andeq	r1, r0, r0, lsl #24
     ad8:	51000100 	mrspl	r0, (UNDEF: 16)
     adc:	0000001c 	andeq	r0, r0, ip, lsl r0
     ae0:	00000078 	andeq	r0, r0, r8, ror r0
     ae4:	01f30004 	mvnseq	r0, r4
     ae8:	00009f51 	andeq	r9, r0, r1, asr pc
	...
     af8:	00580000 	subseq	r0, r8, r0
     afc:	00010000 	andeq	r0, r1, r0
     b00:	00005852 	andeq	r5, r0, r2, asr r8
     b04:	00007800 	andeq	r7, r0, r0, lsl #16
     b08:	f3000400 	vshl.u8	d0, d0, d0
     b0c:	009f5201 	addseq	r5, pc, r1, lsl #4
     b10:	00000000 	andeq	r0, r0, r0
     b14:	02000000 	andeq	r0, r0, #0, 0
     b18:	01010000 	mrseq	r0, (UNDEF: 1)
     b1c:	01010000 	mrseq	r0, (UNDEF: 1)
     b20:	01010000 	mrseq	r0, (UNDEF: 1)
     b24:	00000000 	andeq	r0, r0, r0
     b28:	00003800 	andeq	r3, r0, r0, lsl #16
     b2c:	50000100 	andpl	r0, r0, r0, lsl #2
     b30:	00000054 	andeq	r0, r0, r4, asr r0
     b34:	00000054 	andeq	r0, r0, r4, asr r0
     b38:	54530001 	ldrbpl	r0, [r3], #-1
     b3c:	5c000000 	stcpl	0, cr0, [r0], {-0}
     b40:	03000000 	movweq	r0, #0
     b44:	9f017300 	svcls	0x00017300
     b48:	0000005c 	andeq	r0, r0, ip, asr r0
     b4c:	00000064 	andeq	r0, r0, r4, rrx
     b50:	64520001 	ldrbvs	r0, [r2], #-1
     b54:	68000000 	stmdavs	r0, {}	; <UNPREDICTABLE>
     b58:	03000000 	movweq	r0, #0
     b5c:	9f027300 	svcls	0x00027300
     b60:	00000068 	andeq	r0, r0, r8, rrx
     b64:	00000074 	andeq	r0, r0, r4, ror r0
     b68:	74520001 	ldrbvc	r0, [r2], #-1
     b6c:	78000000 	stmdavc	r0, {}	; <UNPREDICTABLE>
     b70:	03000000 	movweq	r0, #0
     b74:	9f017200 	svcls	0x00017200
	...
     b80:	00080000 	andeq	r0, r8, r0
     b84:	00780000 	rsbseq	r0, r8, r0
     b88:	00010000 	andeq	r0, r1, r0
     b8c:	00000054 	andeq	r0, r0, r4, asr r0
	...
     b98:	2c000000 	stccs	0, cr0, [r0], {-0}
     b9c:	34000000 	strcc	r0, [r0], #-0
     ba0:	01000000 	mrseq	r0, (UNDEF: 0)
     ba4:	00345000 	eorseq	r5, r4, r0
     ba8:	00480000 	subeq	r0, r8, r0
     bac:	00010000 	andeq	r0, r1, r0
     bb0:	00004854 	andeq	r4, r0, r4, asr r8
     bb4:	00005800 	andeq	r5, r0, r0, lsl #16
     bb8:	50000100 	andpl	r0, r0, r0, lsl #2
	...
     bc4:	01000000 	mrseq	r0, (UNDEF: 0)
     bc8:	00000001 	andeq	r0, r0, r1
     bcc:	00000000 	andeq	r0, r0, r0
     bd0:	0000000c 	andeq	r0, r0, ip
     bd4:	0c500001 	mrrceq	0, 0, r0, r0, cr1	; <UNPREDICTABLE>
     bd8:	20000000 	andcs	r0, r0, r0
     bdc:	01000000 	mrseq	r0, (UNDEF: 0)
     be0:	00205400 	eoreq	r5, r0, r0, lsl #8
     be4:	00240000 	eoreq	r0, r4, r0
     be8:	00030000 	andeq	r0, r3, r0
     bec:	249f0174 	ldrcs	r0, [pc], #372	; bf4 <__code_start__-0x740c>
     bf0:	38000000 	stmdacc	r0, {}	; <UNPREDICTABLE>
     bf4:	01000000 	mrseq	r0, (UNDEF: 0)
     bf8:	00005400 	andeq	r5, r0, r0, lsl #8
	...
     c0c:	00000388 	andeq	r0, r0, r8, lsl #7
     c10:	00000394 	muleq	r0, r4, r3
     c14:	94500001 	ldrbls	r0, [r0], #-1
     c18:	d0000003 	andle	r0, r0, r3
     c1c:	01000003 	tsteq	r0, r3
     c20:	03d05b00 	bicseq	r5, r0, #0, 22
     c24:	09200000 	stmdbeq	r0!, {}	; <UNPREDICTABLE>
     c28:	00040000 	andeq	r0, r4, r0
     c2c:	9f5001f3 	svcls	0x005001f3
     c30:	00000920 	andeq	r0, r0, r0, lsr #18
     c34:	00000928 	andeq	r0, r0, r8, lsr #18
     c38:	285b0001 	ldmdacs	fp, {r0}^
     c3c:	b4000009 	strlt	r0, [r0], #-9
     c40:	04000009 	streq	r0, [r0], #-9
     c44:	5001f300 	andpl	pc, r1, r0, lsl #6
     c48:	0000009f 	muleq	r0, pc, r0	; <UNPREDICTABLE>
	...
     c58:	00038800 	andeq	r8, r3, r0, lsl #16
     c5c:	0003d000 	andeq	sp, r3, r0
     c60:	51000100 	mrspl	r0, (UNDEF: 16)
     c64:	000003d0 	ldrdeq	r0, [r0], -r0	; <UNPREDICTABLE>
     c68:	00000920 	andeq	r0, r0, r0, lsr #18
     c6c:	01f30004 	mvnseq	r0, r4
     c70:	09209f51 	stmdbeq	r0!, {r0, r4, r6, r8, r9, sl, fp, ip, pc}
     c74:	09280000 	stmdbeq	r8!, {}	; <UNPREDICTABLE>
     c78:	00010000 	andeq	r0, r1, r0
     c7c:	00092851 	andeq	r2, r9, r1, asr r8
     c80:	0009b400 	andeq	fp, r9, r0, lsl #8
     c84:	f3000400 	vshl.u8	d0, d0, d0
     c88:	009f5101 	addseq	r5, pc, r1, lsl #2
	...
     c98:	00010000 	andeq	r0, r1, r0
     c9c:	00000100 	andeq	r0, r0, r0, lsl #2
	...
     ca8:	88000000 	stmdahi	r0, {}	; <UNPREDICTABLE>
     cac:	d0000003 	andle	r0, r0, r3
     cb0:	01000003 	tsteq	r0, r3
     cb4:	03d05200 	bicseq	r5, r0, #0, 4
     cb8:	04000000 	streq	r0, [r0], #-0
     cbc:	00010000 	andeq	r0, r1, r0
     cc0:	00041456 	andeq	r1, r4, r6, asr r4
     cc4:	00042400 	andeq	r2, r4, r0, lsl #8
     cc8:	56000100 	strpl	r0, [r0], -r0, lsl #2
     ccc:	00000424 	andeq	r0, r0, r4, lsr #8
     cd0:	00000428 	andeq	r0, r0, r8, lsr #8
     cd4:	7f760003 	svcvc	0x00760003
     cd8:	0004a89f 	muleq	r4, pc, r8	; <UNPREDICTABLE>
     cdc:	0004ac00 	andeq	sl, r4, r0, lsl #24
     ce0:	56000100 	strpl	r0, [r0], -r0, lsl #2
     ce4:	000004e0 	andeq	r0, r0, r0, ror #9
     ce8:	00000504 	andeq	r0, r0, r4, lsl #10
     cec:	7c560001 	mrrcvc	0, 0, r0, r6, cr1
     cf0:	88000005 	stmdahi	r0, {r0, r2}
     cf4:	01000005 	tsteq	r0, r5
     cf8:	05885300 	streq	r5, [r8, #768]	; 0x300
     cfc:	05d00000 	ldrbeq	r0, [r0]
     d00:	00030000 	andeq	r0, r3, r0
     d04:	007dcc91 			; <UNDEFINED> instruction: 0x007dcc91
     d08:	0f000008 	svceq	0x00000008
     d0c:	01000008 	tsteq	r0, r8
     d10:	080f5300 	stmdaeq	pc, {r8, r9, ip, lr}	; <UNPREDICTABLE>
     d14:	08880000 	stmeq	r8, {}	; <UNPREDICTABLE>
     d18:	00030000 	andeq	r0, r3, r0
     d1c:	207dcc91 			; <UNDEFINED> instruction: 0x207dcc91
     d20:	28000009 	stmdacs	r0, {r0, r3}
     d24:	01000009 	tsteq	r0, r9
     d28:	09485200 	stmdbeq	r8, {r9, ip, lr}^
     d2c:	09640000 	stmdbeq	r4!, {}^	; <UNPREDICTABLE>
     d30:	00030000 	andeq	r0, r3, r0
     d34:	007dcc91 			; <UNDEFINED> instruction: 0x007dcc91
	...
     d48:	00000101 	andeq	r0, r0, r1, lsl #2
     d4c:	00000101 	andeq	r0, r0, r1, lsl #2
     d50:	02020000 	andeq	r0, r2, #0, 0
     d54:	02020000 	andeq	r0, r2, #0, 0
     d58:	01010000 	mrseq	r0, (UNDEF: 1)
     d5c:	02020000 	andeq	r0, r2, #0, 0
     d60:	01010000 	mrseq	r0, (UNDEF: 1)
	...
     d6c:	00038800 	andeq	r8, r3, r0, lsl #16
     d70:	0003ac00 	andeq	sl, r3, r0, lsl #24
     d74:	53000100 	movwpl	r0, #256	; 0x100
     d78:	000003ac 	andeq	r0, r0, ip, lsr #7
     d7c:	000003c0 	andeq	r0, r0, r0, asr #7
     d80:	93530003 	cmpls	r3, #3, 0
     d84:	0003d004 	andeq	sp, r3, r4
     d88:	0003e800 	andeq	lr, r3, r0, lsl #16
     d8c:	58000300 	stmdapl	r0, {r8, r9}
     d90:	03e80493 	mvneq	r0, #-1828716544	; 0x93000000
     d94:	04ac0000 	strteq	r0, [ip], #0
     d98:	00030000 	andeq	r0, r3, r0
     d9c:	c0049358 	andgt	r9, r4, r8, asr r3
     da0:	c0000004 	andgt	r0, r0, r4
     da4:	03000004 	movweq	r0, #4
     da8:	04935800 	ldreq	r5, [r3], #2048	; 0x800
     dac:	000004c0 	andeq	r0, r0, r0, asr #9
     db0:	000004cc 	andeq	r0, r0, ip, asr #9
     db4:	04780005 	ldrbteq	r0, [r8], #-5
     db8:	cc04939f 	stcgt	3, cr9, [r4], {159}	; 0x9f
     dbc:	e0000004 	and	r0, r0, r4
     dc0:	03000004 	movweq	r0, #4
     dc4:	04935800 	ldreq	r5, [r3], #2048	; 0x800
     dc8:	000004e0 	andeq	r0, r0, r0, ror #9
     dcc:	00000538 	andeq	r0, r0, r8, lsr r5
     dd0:	93580003 	cmpls	r8, #3, 0
     dd4:	00053804 	andeq	r3, r5, r4, lsl #16
     dd8:	00053c00 	andeq	r3, r5, r0, lsl #24
     ddc:	78000500 	stmdavc	r0, {r8, sl}
     de0:	04939f79 	ldreq	r9, [r3], #3961	; 0xf79
     de4:	000005d0 	ldrdeq	r0, [r0], -r0	; <UNPREDICTABLE>
     de8:	000005d0 	ldrdeq	r0, [r0], -r0	; <UNPREDICTABLE>
     dec:	93580003 	cmpls	r8, #3, 0
     df0:	0005d004 	andeq	sp, r5, r4
     df4:	0005d400 	andeq	sp, r5, r0, lsl #8
     df8:	78000500 	stmdavc	r0, {r8, sl}
     dfc:	04939f04 	ldreq	r9, [r3], #3844	; 0xf04
     e00:	000005f4 	strdeq	r0, [r0], -r4
     e04:	000005f4 	strdeq	r0, [r0], -r4
     e08:	93580003 	cmpls	r8, #3, 0
     e0c:	0005f404 	andeq	pc, r5, r4, lsl #8
     e10:	0005fc00 	andeq	pc, r5, r0, lsl #24
     e14:	78000500 	stmdavc	r0, {r8, sl}
     e18:	04939f04 	ldreq	r9, [r3], #3844	; 0xf04
     e1c:	000005fc 	strdeq	r0, [r0], -ip
     e20:	000005fc 	strdeq	r0, [r0], -ip
     e24:	93580003 	cmpls	r8, #3, 0
     e28:	0005fc04 	andeq	pc, r5, r4, lsl #24
     e2c:	00060000 	andeq	r0, r6, r0
     e30:	78000500 	stmdavc	r0, {r8, sl}
     e34:	04939f04 	ldreq	r9, [r3], #3844	; 0xf04
     e38:	00000600 	andeq	r0, r0, r0, lsl #12
     e3c:	00000700 	andeq	r0, r0, r0, lsl #14
     e40:	93580003 	cmpls	r8, #3, 0
     e44:	00070004 	andeq	r0, r7, r4
     e48:	00070c00 	andeq	r0, r7, r0, lsl #24
     e4c:	78000500 	stmdavc	r0, {r8, sl}
     e50:	04939f04 	ldreq	r9, [r3], #3844	; 0xf04
     e54:	0000070c 	andeq	r0, r0, ip, lsl #14
     e58:	000007f8 	strdeq	r0, [r0], -r8
     e5c:	93580003 	cmpls	r8, #3, 0
     e60:	0007f804 	andeq	pc, r7, r4, lsl #16
     e64:	0007fc00 	andeq	pc, r7, r0, lsl #24
     e68:	78000500 	stmdavc	r0, {r8, sl}
     e6c:	04939f04 	ldreq	r9, [r3], #3844	; 0xf04
     e70:	000007fc 	strdeq	r0, [r0], -ip
     e74:	00000800 	andeq	r0, r0, r0, lsl #16
     e78:	93580003 	cmpls	r8, #3, 0
     e7c:	00088804 	andeq	r8, r8, r4, lsl #16
     e80:	00092000 	andeq	r2, r9, r0
     e84:	58000300 	stmdapl	r0, {r8, r9}
     e88:	09200493 	stmdbeq	r0!, {r0, r1, r4, r7, sl}
     e8c:	09280000 	stmdbeq	r8!, {}	; <UNPREDICTABLE>
     e90:	00010000 	andeq	r0, r1, r0
     e94:	00096453 	andeq	r6, r9, r3, asr r4
     e98:	0009b400 	andeq	fp, r9, r0, lsl #8
     e9c:	58000300 	stmdapl	r0, {r8, r9}
     ea0:	00000493 	muleq	r0, r3, r4
     ea4:	00000000 	andeq	r0, r0, r0
     ea8:	00010000 	andeq	r0, r1, r0
     eac:	00000000 	andeq	r0, r0, r0
     eb0:	02000000 	andeq	r0, r0, #0, 0
     eb4:	00000002 	andeq	r0, r0, r2
     eb8:	00010101 	andeq	r0, r1, r1, lsl #2
     ebc:	00000000 	andeq	r0, r0, r0
     ec0:	000003ac 	andeq	r0, r0, ip, lsr #7
     ec4:	000003d0 	ldrdeq	r0, [r0], -r0	; <UNPREDICTABLE>
     ec8:	d05b0001 	subsle	r0, fp, r1
     ecc:	d4000003 	strle	r0, [r0], #-3
     ed0:	01000003 	tsteq	r0, r3
     ed4:	03d45400 	bicseq	r5, r4, #0, 8
     ed8:	03d80000 	bicseq	r0, r8, #0, 0
     edc:	00030000 	andeq	r0, r3, r0
     ee0:	d89f7f74 	ldmle	pc, {r2, r4, r5, r6, r8, r9, sl, fp, ip, sp, lr}	; <UNPREDICTABLE>
     ee4:	fc000003 	stc2	0, cr0, [r0], {3}
     ee8:	01000003 	tsteq	r0, r3
     eec:	04a85400 	strteq	r5, [r8], #1024	; 0x400
     ef0:	04ac0000 	strteq	r0, [ip], #0
     ef4:	00010000 	andeq	r0, r1, r0
     ef8:	0004ac54 	andeq	sl, r4, r4, asr ip
     efc:	0004b400 	andeq	fp, r4, r0, lsl #8
     f00:	74000300 	strvc	r0, [r0], #-768	; 0xfffffd00
     f04:	04b49f01 	ldrteq	r9, [r4], #3841	; 0xf01
     f08:	04c00000 	strbeq	r0, [r0], #0
     f0c:	00010000 	andeq	r0, r1, r0
     f10:	0004e454 	andeq	lr, r4, r4, asr r4
     f14:	0004f400 	andeq	pc, r4, r0, lsl #8
     f18:	54000100 	strpl	r0, [r0], #-256	; 0xffffff00
     f1c:	000004f4 	strdeq	r0, [r0], -r4
     f20:	000004f8 	strdeq	r0, [r0], -r8
     f24:	01740003 	cmneq	r4, r3
     f28:	0004f89f 	muleq	r4, pc, r8	; <UNPREDICTABLE>
     f2c:	00050400 	andeq	r0, r5, r0, lsl #8
     f30:	54000100 	strpl	r0, [r0], #-256	; 0xffffff00
     f34:	00000920 	andeq	r0, r0, r0, lsr #18
     f38:	00000928 	andeq	r0, r0, r8, lsr #18
     f3c:	005b0001 	subseq	r0, fp, r1
     f40:	00000000 	andeq	r0, r0, r0
     f44:	01000000 	mrseq	r0, (UNDEF: 0)
     f48:	0003ac00 	andeq	sl, r3, r0, lsl #24
     f4c:	0009b400 	andeq	fp, r9, r0, lsl #8
     f50:	57000100 	strpl	r0, [r0, -r0, lsl #2]
	...
     f5c:	00000002 	andeq	r0, r0, r2
     f60:	057c0000 	ldrbeq	r0, [ip, #-0]!
     f64:	05d00000 	ldrbeq	r0, [r0]
     f68:	00010000 	andeq	r0, r1, r0
     f6c:	0008005b 	andeq	r0, r8, fp, asr r0
     f70:	00088800 	andeq	r8, r8, r0, lsl #16
     f74:	5b000100 	blpl	137c <__code_start__-0x6c84>
     f78:	00000948 	andeq	r0, r0, r8, asr #18
     f7c:	00000964 	andeq	r0, r0, r4, ror #18
     f80:	005b0001 	subseq	r0, fp, r1
     f84:	00000000 	andeq	r0, r0, r0
     f88:	03000000 	movweq	r0, #0
     f8c:	00000000 	andeq	r0, r0, r0
     f90:	00057c00 	andeq	r7, r5, r0, lsl #24
     f94:	0005d000 	andeq	sp, r5, r0
     f98:	59000100 	stmdbpl	r0, {r8}
     f9c:	00000800 	andeq	r0, r0, r0, lsl #16
     fa0:	00000888 	andeq	r0, r0, r8, lsl #17
     fa4:	48590001 	ldmdami	r9, {r0}^
     fa8:	64000009 	strvs	r0, [r0], #-9
     fac:	01000009 	tsteq	r0, r9
     fb0:	00005900 	andeq	r5, r0, r0, lsl #18
     fb4:	00000000 	andeq	r0, r0, r0
     fb8:	00040000 	andeq	r0, r4, r0
     fbc:	00000000 	andeq	r0, r0, r0
     fc0:	03ac0000 			; <UNDEFINED> instruction: 0x03ac0000
     fc4:	03d00000 	bicseq	r0, r0, #0, 0
     fc8:	00010000 	andeq	r0, r1, r0
     fcc:	0003d052 	andeq	sp, r3, r2, asr r0
     fd0:	00092000 	andeq	r2, r9, r0
     fd4:	f3000400 	vshl.u8	d0, d0, d0
     fd8:	209f5201 	addscs	r5, pc, r1, lsl #4
     fdc:	28000009 	stmdacs	r0, {r0, r3}
     fe0:	01000009 	tsteq	r0, r9
     fe4:	09285200 	stmdbeq	r8!, {r9, ip, lr}
     fe8:	09b40000 	ldmibeq	r4!, {}	; <UNPREDICTABLE>
     fec:	00040000 	andeq	r0, r4, r0
     ff0:	9f5201f3 	svcls	0x005201f3
	...
     ffc:	00010100 	andeq	r0, r1, r0, lsl #2
    1000:	00000000 	andeq	r0, r0, r0
    1004:	00000001 	andeq	r0, r0, r1
    1008:	000004e0 	andeq	r0, r0, r0, ror #9
    100c:	000004e0 	andeq	r0, r0, r0, ror #9
    1010:	e0500001 	subs	r0, r0, r1
    1014:	e8000004 	stmda	r0, {r2}
    1018:	01000004 	tsteq	r0, r4
    101c:	05b85500 	ldreq	r5, [r8, #1280]!	; 0x500
    1020:	05d00000 	ldrbeq	r0, [r0]
    1024:	00010000 	andeq	r0, r1, r0
    1028:	0005f055 	andeq	pc, r5, r5, asr r0	; <UNPREDICTABLE>
    102c:	0005f400 	andeq	pc, r5, r0, lsl #8
    1030:	50000100 	andpl	r0, r0, r0, lsl #2
    1034:	000007f4 	strdeq	r0, [r0], -r4
    1038:	000007f8 	strdeq	r0, [r0], -r8
    103c:	50550001 	subspl	r0, r5, r1
    1040:	88000008 	stmdahi	r0, {r3}
    1044:	01000008 	tsteq	r0, r8
    1048:	00005500 	andeq	r5, r0, r0, lsl #10
    104c:	00000000 	andeq	r0, r0, r0
    1050:	00020000 	andeq	r0, r2, r0
    1054:	00000000 	andeq	r0, r0, r0
    1058:	04140000 	ldreq	r0, [r4], #-0
    105c:	04180000 	ldreq	r0, [r8], #-0
    1060:	00020000 	andeq	r0, r2, r0
    1064:	04189f30 	ldreq	r9, [r8], #-3888	; 0xfffff0d0
    1068:	041c0000 	ldreq	r0, [ip], #-0
    106c:	00010000 	andeq	r0, r1, r0
    1070:	00042855 	andeq	r2, r4, r5, asr r8
    1074:	00043c00 	andeq	r3, r4, r0, lsl #24
    1078:	55000100 	strpl	r0, [r0, #-256]	; 0xffffff00
    107c:	00000928 	andeq	r0, r0, r8, lsr #18
    1080:	00000930 	andeq	r0, r0, r0, lsr r9
    1084:	00550001 	subseq	r0, r5, r1
    1088:	00000000 	andeq	r0, r0, r0
    108c:	01000000 	mrseq	r0, (UNDEF: 0)
	...
    1098:	04000000 	streq	r0, [r0], #-0
    109c:	84000005 	strhi	r0, [r0], #-5
    10a0:	01000005 	tsteq	r0, r5
    10a4:	05845600 	streq	r5, [r4, #1536]	; 0x600
    10a8:	05880000 	streq	r0, [r8]
    10ac:	00030000 	andeq	r0, r3, r0
    10b0:	889f7e73 	ldmhi	pc, {r0, r1, r4, r5, r6, r9, sl, fp, ip, sp, lr}	; <UNPREDICTABLE>
    10b4:	d0000005 	andle	r0, r0, r5
    10b8:	07000005 	streq	r0, [r0, -r5]
    10bc:	7dcc9100 	stfvcp	f1, [ip]
    10c0:	9f1c3206 	svcls	0x001c3206
    10c4:	00000800 	andeq	r0, r0, r0, lsl #16
    10c8:	0000081c 	andeq	r0, r0, ip, lsl r8
    10cc:	1c560001 	mrrcne	0, 0, r0, r6, cr1
    10d0:	88000008 	stmdahi	r0, {r3}
    10d4:	07000008 	streq	r0, [r0, -r8]
    10d8:	7dcc9100 	stfvcp	f1, [ip]
    10dc:	9f1c3206 	svcls	0x001c3206
    10e0:	00000948 	andeq	r0, r0, r8, asr #18
    10e4:	000009b4 			; <UNDEFINED> instruction: 0x000009b4
    10e8:	00560001 	subseq	r0, r6, r1
    10ec:	00000000 	andeq	r0, r0, r0
    10f0:	04000000 	streq	r0, [r0], #-0
    10f4:	14040206 	strne	r0, [r4], #-518	; 0xfffffdfa
    10f8:	14000004 	strne	r0, [r0], #-4
    10fc:	06000004 	streq	r0, [r0], -r4
    1100:	08007200 	stmdaeq	r0, {r9, ip, sp, lr}
    1104:	289f1aff 	ldmcs	pc, {r0, r1, r2, r3, r4, r5, r6, r7, r9, fp, ip}	; <UNPREDICTABLE>
    1108:	28000004 	stmdacs	r0, {r2}
    110c:	06000004 	streq	r0, [r0], -r4
    1110:	08007200 	stmdaeq	r0, {r9, ip, sp, lr}
    1114:	009f1aff 			; <UNDEFINED> instruction: 0x009f1aff
    1118:	00000000 	andeq	r0, r0, r0
    111c:	02000000 	andeq	r0, r0, #0, 0
    1120:	00000000 	andeq	r0, r0, r0
    1124:	0005fc00 	andeq	pc, r5, r0, lsl #24
    1128:	00070000 	andeq	r0, r7, r0
    112c:	08000300 	stmdaeq	r0, {r8, r9}
    1130:	08a89f80 	stmiaeq	r8!, {r7, r8, r9, sl, fp, ip, pc}
    1134:	08bc0000 	ldmeq	ip!, {}	; <UNPREDICTABLE>
    1138:	00030000 	andeq	r0, r3, r0
    113c:	109f8008 	addsne	r8, pc, r8
    1140:	20000009 	andcs	r0, r0, r9
    1144:	03000009 	movweq	r0, #9
    1148:	9f800800 	svcls	0x00800800
	...
    1154:	00000001 	andeq	r0, r0, r1
    1158:	05fc0000 	ldrbeq	r0, [ip, #0]!
    115c:	07000000 	streq	r0, [r0, -r0]
    1160:	00020000 	andeq	r0, r2, r0
    1164:	08a89f30 	stmiaeq	r8!, {r4, r5, r8, r9, sl, fp, ip, pc}
    1168:	08bc0000 	ldmeq	ip!, {}	; <UNPREDICTABLE>
    116c:	00020000 	andeq	r0, r2, r0
    1170:	09109f30 	ldmdbeq	r0, {r4, r5, r8, r9, sl, fp, ip, pc}
    1174:	09200000 	stmdbeq	r0!, {}	; <UNPREDICTABLE>
    1178:	00020000 	andeq	r0, r2, r0
    117c:	00009f30 	andeq	r9, r0, r0, lsr pc
    1180:	00000000 	andeq	r0, r0, r0
    1184:	00010000 	andeq	r0, r1, r0
    1188:	00000000 	andeq	r0, r0, r0
    118c:	000005fc 	strdeq	r0, [r0], -ip
    1190:	000006e0 	andeq	r0, r0, r0, ror #13
    1194:	a8550001 	ldmdage	r5, {r0}^
    1198:	bc000008 	stclt	0, cr0, [r0], {8}
    119c:	01000008 	tsteq	r0, r8
    11a0:	09105500 	ldmdbeq	r0, {r8, sl, ip, lr}
    11a4:	09200000 	stmdbeq	r0!, {}	; <UNPREDICTABLE>
    11a8:	00010000 	andeq	r0, r1, r0
    11ac:	00000055 	andeq	r0, r0, r5, asr r0
    11b0:	00000000 	andeq	r0, r0, r0
    11b4:	00000100 	andeq	r0, r0, r0, lsl #2
    11b8:	00000000 	andeq	r0, r0, r0
    11bc:	0005fc00 	andeq	pc, r5, r0, lsl #24
    11c0:	0006e000 	andeq	lr, r6, r0
    11c4:	91000400 	tstls	r0, r0, lsl #8
    11c8:	e09f7dd0 			; <UNDEFINED> instruction: 0xe09f7dd0
    11cc:	00000006 	andeq	r0, r0, r6
    11d0:	01000007 	tsteq	r0, r7
    11d4:	08a85500 	stmiaeq	r8!, {r8, sl, ip, lr}
    11d8:	08bc0000 	ldmeq	ip!, {}	; <UNPREDICTABLE>
    11dc:	00040000 	andeq	r0, r4, r0
    11e0:	9f7dd091 	svcls	0x007dd091
    11e4:	00000910 	andeq	r0, r0, r0, lsl r9
    11e8:	00000920 	andeq	r0, r0, r0, lsr #18
    11ec:	d0910004 	addsle	r0, r1, r4
    11f0:	00009f7d 	andeq	r9, r0, sp, ror pc
    11f4:	00000000 	andeq	r0, r0, r0
    11f8:	00010000 	andeq	r0, r1, r0
    11fc:	00000000 	andeq	r0, r0, r0
    1200:	000005fc 	strdeq	r0, [r0], -ip
    1204:	00000700 	andeq	r0, r0, r0, lsl #14
    1208:	9f380002 	svcls	0x00380002
    120c:	000008a8 	andeq	r0, r0, r8, lsr #17
    1210:	000008bc 			; <UNDEFINED> instruction: 0x000008bc
    1214:	9f380002 	svcls	0x00380002
    1218:	00000910 	andeq	r0, r0, r0, lsl r9
    121c:	00000920 	andeq	r0, r0, r0, lsr #18
    1220:	9f380002 	svcls	0x00380002
	...
    122c:	00070704 	andeq	r0, r7, r4, lsl #14
	...
    1238:	05fc0000 	ldrbeq	r0, [ip, #0]!
    123c:	05fc0000 	ldrbeq	r0, [ip, #0]!
    1240:	00040000 	andeq	r0, r4, r0
    1244:	9f7ed091 	svcls	0x007ed091
    1248:	000005fc 	strdeq	r0, [r0], -ip
    124c:	00000678 	andeq	r0, r0, r8, ror r6
    1250:	d1910004 	orrsle	r0, r1, r4
    1254:	06789f7e 	uhsub16eq	r9, r8, lr
    1258:	06d40000 	ldrbeq	r0, [r4], r0
    125c:	00010000 	andeq	r0, r1, r0
    1260:	0006d45c 	andeq	sp, r6, ip, asr r4
    1264:	00070000 	andeq	r0, r7, r0
    1268:	91000400 	tstls	r0, r0, lsl #8
    126c:	a89f7ed1 	ldmge	pc, {r0, r4, r6, r7, r9, sl, fp, ip, sp, lr}	; <UNPREDICTABLE>
    1270:	bc000008 	stclt	0, cr0, [r0], {8}
    1274:	04000008 	streq	r0, [r0], #-8
    1278:	7ed19100 	atnvcs	f1, f0
    127c:	0009109f 	muleq	r9, pc, r0	; <UNPREDICTABLE>
    1280:	00091400 	andeq	r1, r9, r0, lsl #8
    1284:	91000400 	tstls	r0, r0, lsl #8
    1288:	149f7ed1 	ldrne	r7, [pc], #3793	; 1290 <__code_start__-0x6d70>
    128c:	20000009 	andcs	r0, r0, r9
    1290:	01000009 	tsteq	r0, r9
    1294:	00005c00 	andeq	r5, r0, r0, lsl #24
    1298:	00000000 	andeq	r0, r0, r0
    129c:	01040000 	mrseq	r0, (UNDEF: 4)
    12a0:	00000100 	andeq	r0, r0, r0, lsl #2
    12a4:	00000608 	andeq	r0, r0, r8, lsl #12
    12a8:	000006d0 	ldrdeq	r0, [r0], -r0	; <UNPREDICTABLE>
    12ac:	a8550001 	ldmdage	r5, {r0}^
    12b0:	b8000008 	stmdalt	r0, {r3}
    12b4:	01000008 	tsteq	r0, r8
    12b8:	09105500 	ldmdbeq	r0, {r8, sl, ip, lr}
    12bc:	09200000 	stmdbeq	r0!, {}	; <UNPREDICTABLE>
    12c0:	00010000 	andeq	r0, r1, r0
    12c4:	00000055 	andeq	r0, r0, r5, asr r0
    12c8:	00000000 	andeq	r0, r0, r0
    12cc:	00000400 	andeq	r0, r0, r0, lsl #8
    12d0:	00010000 	andeq	r0, r1, r0
    12d4:	00010000 	andeq	r0, r1, r0
    12d8:	00060800 	andeq	r0, r6, r0, lsl #16
    12dc:	0006b000 	andeq	fp, r6, r0
    12e0:	91000400 	tstls	r0, r0, lsl #8
    12e4:	b09f7ed0 			; <UNDEFINED> instruction: 0xb09f7ed0
    12e8:	c8000006 	stmdagt	r0, {r1, r2}
    12ec:	01000006 	tsteq	r0, r6
    12f0:	06c85000 	strbeq	r5, [r8], r0
    12f4:	06d00000 	ldrbeq	r0, [r0], r0
    12f8:	00040000 	andeq	r0, r4, r0
    12fc:	9f7ed091 	svcls	0x007ed091
    1300:	000008a8 	andeq	r0, r0, r8, lsr #17
    1304:	000008b0 			; <UNDEFINED> instruction: 0x000008b0
    1308:	d0910004 	addsle	r0, r1, r4
    130c:	08b09f7e 	ldmeq	r0!, {r1, r2, r3, r4, r5, r6, r8, r9, sl, fp, ip, pc}
    1310:	08b80000 	ldmeq	r8!, {}	; <UNPREDICTABLE>
    1314:	00010000 	andeq	r0, r1, r0
    1318:	00091053 	andeq	r1, r9, r3, asr r0
    131c:	00092000 	andeq	r2, r9, r0
    1320:	91000400 	tstls	r0, r0, lsl #8
    1324:	009f7ed0 			; <UNDEFINED> instruction: 0x009f7ed0
    1328:	00000000 	andeq	r0, r0, r0
    132c:	04000000 	streq	r0, [r0], #-0
    1330:	01010000 	mrseq	r0, (UNDEF: 1)
    1334:	03030101 	movweq	r0, #12545	; 0x3101
    1338:	00010002 	andeq	r0, r1, r2
    133c:	08000000 	stmdaeq	r0, {}	; <UNPREDICTABLE>
    1340:	24000006 	strcs	r0, [r0], #-6
    1344:	04000006 	streq	r0, [r0], #-6
    1348:	7ed19100 	atnvcs	f1, f0
    134c:	0006849f 	muleq	r6, pc, r4	; <UNPREDICTABLE>
    1350:	00068400 	andeq	r8, r6, r0, lsl #8
    1354:	50000100 	andpl	r0, r0, r0, lsl #2
    1358:	00000684 	andeq	r0, r0, r4, lsl #13
    135c:	00000698 	muleq	r0, r8, r6
    1360:	01700003 	cmneq	r0, r3
    1364:	0006989f 	muleq	r6, pc, r8	; <UNPREDICTABLE>
    1368:	0006a400 	andeq	sl, r6, r0, lsl #8
    136c:	70000300 	andvc	r0, r0, r0, lsl #6
    1370:	06a49f02 	strteq	r9, [r4], r2, lsl #30
    1374:	06a80000 	strteq	r0, [r8], r0
    1378:	00030000 	andeq	r0, r3, r0
    137c:	a89f0370 	ldmge	pc, {r4, r5, r6, r8, r9}	; <UNPREDICTABLE>
    1380:	b8000008 	stmdalt	r0, {r3}
    1384:	04000008 	streq	r0, [r0], #-8
    1388:	7ed19100 	atnvcs	f1, f0
    138c:	0009109f 	muleq	r9, pc, r0	; <UNPREDICTABLE>
    1390:	00091400 	andeq	r1, r9, r0, lsl #8
    1394:	91000400 	tstls	r0, r0, lsl #8
    1398:	149f7ed1 	ldrne	r7, [pc], #3793	; 13a0 <__code_start__-0x6c60>
    139c:	20000009 	andcs	r0, r0, r9
    13a0:	01000009 	tsteq	r0, r9
    13a4:	00005c00 	andeq	r5, r0, r0, lsl #24
    13a8:	00000000 	andeq	r0, r0, r0
    13ac:	00060000 	andeq	r0, r6, r0
    13b0:	01010100 	mrseq	r0, (UNDEF: 17)
    13b4:	02010101 	andeq	r0, r1, #1073741824	; 0x40000000
    13b8:	00000100 	andeq	r0, r0, r0, lsl #2
    13bc:	00000608 	andeq	r0, r0, r8, lsl #12
    13c0:	00000624 	andeq	r0, r0, r4, lsr #12
    13c4:	9f310002 	svcls	0x00310002
    13c8:	00000684 	andeq	r0, r0, r4, lsl #13
    13cc:	00000694 	muleq	r0, r4, r6
    13d0:	94520001 	ldrbls	r0, [r2], #-1
    13d4:	a4000006 	strge	r0, [r0], #-6
    13d8:	01000006 	tsteq	r0, r6
    13dc:	06a45900 	strteq	r5, [r4], r0, lsl #18
    13e0:	06a80000 	strteq	r0, [r8], r0
    13e4:	00010000 	andeq	r0, r1, r0
    13e8:	0006a852 	andeq	sl, r6, r2, asr r8
    13ec:	0006a800 	andeq	sl, r6, r0, lsl #16
    13f0:	72000300 	andvc	r0, r0, #0, 6
    13f4:	08a89f01 	stmiaeq	r8!, {r0, r8, r9, sl, fp, ip, pc}
    13f8:	08b80000 	ldmeq	r8!, {}	; <UNPREDICTABLE>
    13fc:	00020000 	andeq	r0, r2, r0
    1400:	09109f31 	ldmdbeq	r0, {r0, r4, r5, r8, r9, sl, fp, ip, pc}
    1404:	09200000 	stmdbeq	r0!, {}	; <UNPREDICTABLE>
    1408:	00020000 	andeq	r0, r2, r0
    140c:	00009f31 	andeq	r9, r0, r1, lsr pc
    1410:	00000000 	andeq	r0, r0, r0
    1414:	06010000 	streq	r0, [r1], -r0
    1418:	00010006 	andeq	r0, r1, r6
    141c:	000006d0 	ldrdeq	r0, [r0], -r0	; <UNPREDICTABLE>
    1420:	000006d0 	ldrdeq	r0, [r0], -r0	; <UNPREDICTABLE>
    1424:	d0910004 	addsle	r0, r1, r4
    1428:	06d09f7e 			; <UNDEFINED> instruction: 0x06d09f7e
    142c:	07000000 	streq	r0, [r0, -r0]
    1430:	00010000 	andeq	r0, r1, r0
    1434:	0008b850 	andeq	fp, r8, r0, asr r8
    1438:	0008bc00 	andeq	fp, r8, r0, lsl #24
    143c:	53000100 	movwpl	r0, #256	; 0x100
	...
    1448:	00000801 	andeq	r0, r0, r1, lsl #16
    144c:	00010100 	andeq	r0, r1, r0, lsl #2
    1450:	06d00701 	ldrbeq	r0, [r0], r1, lsl #14
    1454:	06d00000 	ldrbeq	r0, [r0], r0
    1458:	00060000 	andeq	r0, r6, r0
    145c:	0071007c 	rsbseq	r0, r1, ip, ror r0
    1460:	06e49f22 	strbteq	r9, [r4], r2, lsr #30
    1464:	06e80000 	strbteq	r0, [r8], r0
    1468:	00030000 	andeq	r0, r3, r0
    146c:	e89f7f73 	ldm	pc, {r0, r1, r4, r5, r6, r8, r9, sl, fp, ip, sp, lr}	; <UNPREDICTABLE>
    1470:	f0000006 			; <UNDEFINED> instruction: 0xf0000006
    1474:	01000006 	tsteq	r0, r6
    1478:	06f05300 	ldrbteq	r5, [r0], r0, lsl #6
    147c:	06f80000 	ldrbteq	r0, [r8], r0
    1480:	00030000 	andeq	r0, r3, r0
    1484:	b89f7f73 	ldmlt	pc, {r0, r1, r4, r5, r6, r8, r9, sl, fp, ip, sp, lr}	; <UNPREDICTABLE>
    1488:	b8000008 	stmdalt	r0, {r3}
    148c:	04000008 	streq	r0, [r0], #-8
    1490:	7ed19100 	atnvcs	f1, f0
    1494:	0000009f 	muleq	r0, pc, r0	; <UNPREDICTABLE>
    1498:	00000000 	andeq	r0, r0, r0
    149c:	01000100 	mrseq	r0, (UNDEF: 16)
    14a0:	0006d000 	andeq	sp, r6, r0
    14a4:	00070000 	andeq	r0, r7, r0
    14a8:	08000300 	stmdaeq	r0, {r8, r9}
    14ac:	08b89f80 	ldmeq	r8!, {r7, r8, r9, sl, fp, ip, pc}
    14b0:	08bc0000 	ldmeq	ip!, {}	; <UNPREDICTABLE>
    14b4:	00030000 	andeq	r0, r3, r0
    14b8:	009f8008 	addseq	r8, pc, r8
    14bc:	00000000 	andeq	r0, r0, r0
    14c0:	01000000 	mrseq	r0, (UNDEF: 0)
    14c4:	00000000 	andeq	r0, r0, r0
    14c8:	00000101 	andeq	r0, r0, r1, lsl #2
    14cc:	01010200 	mrseq	r0, R9_usr
    14d0:	0006d000 	andeq	sp, r6, r0
    14d4:	0006e000 	andeq	lr, r6, r0
    14d8:	91000400 	tstls	r0, r0, lsl #8
    14dc:	e09f7dd0 			; <UNDEFINED> instruction: 0xe09f7dd0
    14e0:	e4000006 	str	r0, [r0], #-6
    14e4:	01000006 	tsteq	r0, r6
    14e8:	06e45500 	strbteq	r5, [r4], r0, lsl #10
    14ec:	06e40000 	strbteq	r0, [r4], r0
    14f0:	00030000 	andeq	r0, r3, r0
    14f4:	e49f0172 	ldr	r0, [pc], #370	; 14fc <__code_start__-0x6b04>
    14f8:	f0000006 			; <UNDEFINED> instruction: 0xf0000006
    14fc:	03000006 	movweq	r0, #6
    1500:	9f027200 	svcls	0x00027200
    1504:	000006f0 	strdeq	r0, [r0], -r0	; <UNPREDICTABLE>
    1508:	00000700 	andeq	r0, r0, r0, lsl #14
    150c:	01720003 	cmneq	r2, r3
    1510:	0007ec9f 	muleq	r7, pc, ip	; <UNPREDICTABLE>
    1514:	0007f400 	andeq	pc, r7, r0, lsl #8
    1518:	73000300 	movwvc	r0, #768	; 0x300
    151c:	08b89f01 	ldmeq	r8!, {r0, r8, r9, sl, fp, ip, pc}
    1520:	08bc0000 	ldmeq	ip!, {}	; <UNPREDICTABLE>
    1524:	00040000 	andeq	r0, r4, r0
    1528:	9f7dd091 	svcls	0x007dd091
	...
    1534:	08b80004 	ldmeq	r8!, {r2}
    1538:	08bc0000 	ldmeq	ip!, {}	; <UNPREDICTABLE>
    153c:	00020000 	andeq	r0, r2, r0
    1540:	00009f32 	andeq	r9, r0, r2, lsr pc
    1544:	00000000 	andeq	r0, r0, r0
    1548:	00070000 	andeq	r0, r7, r0
    154c:	00060000 	andeq	r0, r6, r0
    1550:	000006d0 	ldrdeq	r0, [r0], -r0	; <UNPREDICTABLE>
    1554:	000006e0 	andeq	r0, r0, r0, ror #13
    1558:	d0910004 	addsle	r0, r1, r4
    155c:	06e09f7d 			; <UNDEFINED> instruction: 0x06e09f7d
    1560:	07000000 	streq	r0, [r0, -r0]
    1564:	00010000 	andeq	r0, r1, r0
    1568:	0008b855 	andeq	fp, r8, r5, asr r8
    156c:	0008bc00 	andeq	fp, r8, r0, lsl #24
    1570:	91000400 	tstls	r0, r0, lsl #8
    1574:	009f7dd0 			; <UNDEFINED> instruction: 0x009f7dd0
    1578:	00000000 	andeq	r0, r0, r0
    157c:	01000000 	mrseq	r0, (UNDEF: 0)
    1580:	0c000000 	stceq	0, cr0, [r0], {-0}
    1584:	ec000007 	stc	0, cr0, [r0], {7}
    1588:	03000007 	movweq	r0, #7
    158c:	9f800800 	svcls	0x00800800
    1590:	00000894 	muleq	r0, r4, r8
    1594:	000008a8 	andeq	r0, r0, r8, lsr #17
    1598:	80080003 	andhi	r0, r8, r3
    159c:	0000009f 	muleq	r0, pc, r0	; <UNPREDICTABLE>
	...
    15a8:	00070c00 	andeq	r0, r7, r0, lsl #24
    15ac:	0007ec00 	andeq	lr, r7, r0, lsl #24
    15b0:	30000200 	andcc	r0, r0, r0, lsl #4
    15b4:	0008949f 	muleq	r8, pc, r4	; <UNPREDICTABLE>
    15b8:	0008a800 	andeq	sl, r8, r0, lsl #16
    15bc:	30000200 	andcc	r0, r0, r0, lsl #4
    15c0:	0000009f 	muleq	r0, pc, r0	; <UNPREDICTABLE>
	...
    15cc:	00070c00 	andeq	r0, r7, r0, lsl #24
    15d0:	0007d000 	andeq	sp, r7, r0
    15d4:	55000100 	strpl	r0, [r0, #-256]	; 0xffffff00
    15d8:	00000894 	muleq	r0, r4, r8
    15dc:	000008a8 	andeq	r0, r0, r8, lsr #17
    15e0:	00550001 	subseq	r0, r5, r1
	...
    15f0:	00070c00 	andeq	r0, r7, r0, lsl #24
    15f4:	0007d000 	andeq	sp, r7, r0
    15f8:	91000400 	tstls	r0, r0, lsl #8
    15fc:	d09f7dd0 			; <UNDEFINED> instruction: 0xd09f7dd0
    1600:	ec000007 	stc	0, cr0, [r0], {7}
    1604:	01000007 	tsteq	r0, r7
    1608:	08945500 	ldmeq	r4, {r8, sl, ip, lr}
    160c:	08a80000 	stmiaeq	r8!, {}	; <UNPREDICTABLE>
    1610:	00040000 	andeq	r0, r4, r0
    1614:	9f7dd091 	svcls	0x007dd091
	...
    1624:	0000070c 	andeq	r0, r0, ip, lsl #14
    1628:	000007ec 	andeq	r0, r0, ip, ror #15
    162c:	9f320002 	svcls	0x00320002
    1630:	00000894 	muleq	r0, r4, r8
    1634:	000008a8 	andeq	r0, r0, r8, lsr #17
    1638:	9f320002 	svcls	0x00320002
	...
    1644:	00050503 	andeq	r0, r5, r3, lsl #10
    1648:	00000000 	andeq	r0, r0, r0
    164c:	070c0000 	streq	r0, [ip, -r0]
    1650:	070c0000 	streq	r0, [ip, -r0]
    1654:	00010000 	andeq	r0, r1, r0
    1658:	00070c51 	andeq	r0, r7, r1, asr ip
    165c:	00071c00 	andeq	r1, r7, r0, lsl #24
    1660:	53000100 	movwpl	r0, #256	; 0x100
    1664:	0000071c 	andeq	r0, r0, ip, lsl r7
    1668:	00000724 	andeq	r0, r0, r4, lsr #14
    166c:	01720003 	cmneq	r2, r3
    1670:	0007249f 	muleq	r7, pc, r4	; <UNPREDICTABLE>
    1674:	0007cc00 	andeq	ip, r7, r0, lsl #24
    1678:	53000100 	movwpl	r0, #256	; 0x100
    167c:	00000894 	muleq	r0, r4, r8
    1680:	000008a8 	andeq	r0, r0, r8, lsr #17
    1684:	00530001 	subseq	r0, r3, r1
    1688:	00000000 	andeq	r0, r0, r0
    168c:	05000000 	streq	r0, [r0, #-0]
    1690:	0c000100 	stfeqs	f0, [r0], {-0}
    1694:	20000007 	andcs	r0, r0, r7
    1698:	01000007 	tsteq	r0, r7
    169c:	07245000 	streq	r5, [r4, -r0]!
    16a0:	072c0000 	streq	r0, [ip, -r0]!
    16a4:	00010000 	andeq	r0, r1, r0
    16a8:	00000050 	andeq	r0, r0, r0, asr r0
    16ac:	00000000 	andeq	r0, r0, r0
    16b0:	00010300 	andeq	r0, r1, r0, lsl #6
    16b4:	00072801 	andeq	r2, r7, r1, lsl #16
    16b8:	0007b000 	andeq	fp, r7, r0
    16bc:	55000100 	strpl	r0, [r0, #-256]	; 0xffffff00
    16c0:	00000894 	muleq	r0, r4, r8
    16c4:	000008a0 	andeq	r0, r0, r0, lsr #17
    16c8:	00550001 	subseq	r0, r5, r1
    16cc:	00000000 	andeq	r0, r0, r0
    16d0:	03000000 	movweq	r0, #0
    16d4:	28010001 	stmdacs	r1, {r0}
    16d8:	b0000007 	andlt	r0, r0, r7
    16dc:	01000007 	tsteq	r0, r7
    16e0:	08945100 	ldmeq	r4, {r8, ip, lr}
    16e4:	08a00000 	stmiaeq	r0!, {}	; <UNPREDICTABLE>
    16e8:	00010000 	andeq	r0, r1, r0
    16ec:	00000051 	andeq	r0, r0, r1, asr r0
    16f0:	00000000 	andeq	r0, r0, r0
    16f4:	00000300 	andeq	r0, r0, r0, lsl #6
    16f8:	01010101 	tsteq	r1, r1, lsl #2
    16fc:	00020303 	andeq	r0, r2, r3, lsl #6
    1700:	00072801 	andeq	r2, r7, r1, lsl #16
    1704:	00075000 	andeq	r5, r7, r0
    1708:	53000100 	movwpl	r0, #256	; 0x100
    170c:	00000774 	andeq	r0, r0, r4, ror r7
    1710:	00000774 	andeq	r0, r0, r4, ror r7
    1714:	745e0001 	ldrbvc	r0, [lr], #-1
    1718:	88000007 	stmdahi	r0, {r0, r1, r2}
    171c:	03000007 	movweq	r0, #7
    1720:	9f017e00 	svcls	0x00017e00
    1724:	00000788 	andeq	r0, r0, r8, lsl #15
    1728:	00000794 	muleq	r0, r4, r7
    172c:	027e0003 	rsbseq	r0, lr, #3, 0
    1730:	0007949f 	muleq	r7, pc, r4	; <UNPREDICTABLE>
    1734:	00079800 	andeq	r9, r7, r0, lsl #16
    1738:	7e000300 	cdpvc	3, 0, cr0, cr0, cr0, {0}
    173c:	08949f03 	ldmeq	r4, {r0, r1, r8, r9, sl, fp, ip, pc}
    1740:	08a00000 	stmiaeq	r0!, {}	; <UNPREDICTABLE>
    1744:	00010000 	andeq	r0, r1, r0
    1748:	00000053 	andeq	r0, r0, r3, asr r0
	...
    1754:	01010101 	tsteq	r1, r1, lsl #2
    1758:	00020101 	andeq	r0, r2, r1, lsl #2
    175c:	00072c01 	andeq	r2, r7, r1, lsl #24
    1760:	00075000 	andeq	r5, r7, r0
    1764:	50000100 	andpl	r0, r0, r0, lsl #2
    1768:	00000774 	andeq	r0, r0, r4, ror r7
    176c:	00000784 	andeq	r0, r0, r4, lsl #15
    1770:	84500001 	ldrbhi	r0, [r0], #-1
    1774:	94000007 	strls	r0, [r0], #-7
    1778:	01000007 	tsteq	r0, r7
    177c:	07945b00 	ldreq	r5, [r4, r0, lsl #22]
    1780:	07980000 	ldreq	r0, [r8, r0]
    1784:	00010000 	andeq	r0, r1, r0
    1788:	00079850 	andeq	r9, r7, r0, asr r8
    178c:	00079800 	andeq	r9, r7, r0, lsl #16
    1790:	70000300 	andvc	r0, r0, r0, lsl #6
    1794:	08949f01 	ldmeq	r4, {r0, r8, r9, sl, fp, ip, pc}
    1798:	08a00000 	stmiaeq	r0!, {}	; <UNPREDICTABLE>
    179c:	00010000 	andeq	r0, r1, r0
    17a0:	00000050 	andeq	r0, r0, r0, asr r0
    17a4:	00000000 	andeq	r0, r0, r0
    17a8:	01000100 	mrseq	r0, (UNDEF: 16)
    17ac:	0007b000 	andeq	fp, r7, r0
    17b0:	0007ec00 	andeq	lr, r7, r0, lsl #24
    17b4:	51000100 	mrspl	r0, (UNDEF: 16)
    17b8:	000008a0 	andeq	r0, r0, r0, lsr #17
    17bc:	000008a8 	andeq	r0, r0, r8, lsr #17
    17c0:	00510001 	subseq	r0, r1, r1
    17c4:	00000000 	andeq	r0, r0, r0
    17c8:	01000000 	mrseq	r0, (UNDEF: 0)
    17cc:	00000000 	andeq	r0, r0, r0
    17d0:	01000101 	tsteq	r0, r1, lsl #2
    17d4:	0007b000 	andeq	fp, r7, r0
    17d8:	0007b400 	andeq	fp, r7, r0, lsl #8
    17dc:	73000600 	movwvc	r0, #1536	; 0x600
    17e0:	22007c00 	andcs	r7, r0, #0, 24
    17e4:	0007d49f 	muleq	r7, pc, r4	; <UNPREDICTABLE>
    17e8:	0007d800 	andeq	sp, r7, r0, lsl #16
    17ec:	73000300 	movwvc	r0, #768	; 0x300
    17f0:	07d89f7f 			; <UNDEFINED> instruction: 0x07d89f7f
    17f4:	07e00000 	strbeq	r0, [r0, r0]!
    17f8:	00010000 	andeq	r0, r1, r0
    17fc:	0007e053 	andeq	lr, r7, r3, asr r0
    1800:	0007e800 	andeq	lr, r7, r0, lsl #16
    1804:	73000300 	movwvc	r0, #768	; 0x300
    1808:	08a09f7f 	stmiaeq	r0!, {r0, r1, r2, r3, r4, r5, r6, r8, r9, sl, fp, ip, pc}
    180c:	08a80000 	stmiaeq	r8!, {}	; <UNPREDICTABLE>
    1810:	00010000 	andeq	r0, r1, r0
    1814:	00000053 	andeq	r0, r0, r3, asr r0
    1818:	00000000 	andeq	r0, r0, r0
    181c:	01000100 	mrseq	r0, (UNDEF: 16)
    1820:	0007b000 	andeq	fp, r7, r0
    1824:	0007ec00 	andeq	lr, r7, r0, lsl #24
    1828:	08000300 	stmdaeq	r0, {r8, r9}
    182c:	08a09f80 	stmiaeq	r0!, {r7, r8, r9, sl, fp, ip, pc}
    1830:	08a80000 	stmiaeq	r8!, {}	; <UNPREDICTABLE>
    1834:	00030000 	andeq	r0, r3, r0
    1838:	009f8008 	addseq	r8, pc, r8
    183c:	00000000 	andeq	r0, r0, r0
    1840:	01000000 	mrseq	r0, (UNDEF: 0)
    1844:	00000000 	andeq	r0, r0, r0
    1848:	00000101 	andeq	r0, r0, r1, lsl #2
    184c:	b0000100 	andlt	r0, r0, r0, lsl #2
    1850:	d0000007 	andle	r0, r0, r7
    1854:	04000007 	streq	r0, [r0], #-7
    1858:	7dd09100 	ldfvcp	f1, [r0]
    185c:	0007d09f 	muleq	r7, pc, r0	; <UNPREDICTABLE>
    1860:	0007d400 	andeq	sp, r7, r0, lsl #8
    1864:	55000100 	strpl	r0, [r0, #-256]	; 0xffffff00
    1868:	000007d4 	ldrdeq	r0, [r0], -r4
    186c:	000007d4 	ldrdeq	r0, [r0], -r4
    1870:	017c0003 	cmneq	ip, r3
    1874:	0007d49f 	muleq	r7, pc, r4	; <UNPREDICTABLE>
    1878:	0007e000 	andeq	lr, r7, r0
    187c:	7c000300 	stcvc	3, cr0, [r0], {-0}
    1880:	07e09f02 	strbeq	r9, [r0, r2, lsl #30]!
    1884:	07ec0000 	strbeq	r0, [ip, r0]!
    1888:	00030000 	andeq	r0, r3, r0
    188c:	a09f017c 	addsge	r0, pc, ip, ror r1	; <UNPREDICTABLE>
    1890:	a8000008 	stmdage	r0, {r3}
    1894:	04000008 	streq	r0, [r0], #-8
    1898:	7dd09100 	ldfvcp	f1, [r0]
    189c:	0000009f 	muleq	r0, pc, r0	; <UNPREDICTABLE>
    18a0:	00000000 	andeq	r0, r0, r0
    18a4:	04000400 	streq	r0, [r0], #-1024	; 0xfffffc00
    18a8:	0007b000 	andeq	fp, r7, r0
    18ac:	0007b400 	andeq	fp, r7, r0, lsl #8
    18b0:	70000300 	andvc	r0, r0, r0, lsl #6
    18b4:	08a09f01 	stmiaeq	r0!, {r0, r8, r9, sl, fp, ip, pc}
    18b8:	08a80000 	stmiaeq	r8!, {}	; <UNPREDICTABLE>
    18bc:	00030000 	andeq	r0, r3, r0
    18c0:	009f0170 	addseq	r0, pc, r0, ror r1	; <UNPREDICTABLE>
    18c4:	00000000 	andeq	r0, r0, r0
    18c8:	01000000 	mrseq	r0, (UNDEF: 0)
    18cc:	bc000000 	stclt	0, cr0, [r0], {-0}
    18d0:	d0000007 	andle	r0, r0, r7
    18d4:	04000007 	streq	r0, [r0], #-7
    18d8:	7dd09100 	ldfvcp	f1, [r0]
    18dc:	0007d09f 	muleq	r7, pc, r0	; <UNPREDICTABLE>
    18e0:	0007ec00 	andeq	lr, r7, r0, lsl #24
    18e4:	55000100 	strpl	r0, [r0, #-256]	; 0xffffff00
	...
    18f4:	00000328 	andeq	r0, r0, r8, lsr #6
    18f8:	00000364 	andeq	r0, r0, r4, ror #6
    18fc:	64500001 	ldrbvs	r0, [r0], #-1
    1900:	88000003 	stmdahi	r0, {r0, r1}
    1904:	04000003 	streq	r0, [r0], #-3
    1908:	5001f300 	andpl	pc, r1, r0, lsl #6
    190c:	0000009f 	muleq	r0, pc, r0	; <UNPREDICTABLE>
	...
    1918:	00032800 	andeq	r2, r3, r0, lsl #16
    191c:	00035c00 	andeq	r5, r3, r0, lsl #24
    1920:	51000100 	mrspl	r0, (UNDEF: 16)
    1924:	0000035c 	andeq	r0, r0, ip, asr r3
    1928:	00000388 	andeq	r0, r0, r8, lsl #7
    192c:	01f30004 	mvnseq	r0, r4
    1930:	00009f51 	andeq	r9, r0, r1, asr pc
	...
    1954:	00140000 	andseq	r0, r4, r0
    1958:	00010000 	andeq	r0, r1, r0
    195c:	00001450 	andeq	r1, r0, r0, asr r4
    1960:	00002000 	andeq	r2, r0, r0
    1964:	5c000100 	stfpls	f0, [r0], {-0}
    1968:	00000020 	andeq	r0, r0, r0, lsr #32
    196c:	00000068 	andeq	r0, r0, r8, rrx
    1970:	02710003 	rsbseq	r0, r1, #3, 0
    1974:	0000689f 	muleq	r0, pc, r8	; <UNPREDICTABLE>
    1978:	00006c00 	andeq	r6, r0, r0, lsl #24
    197c:	73000300 	movwvc	r0, #768	; 0x300
    1980:	006c9f02 	rsbeq	r9, ip, r2, lsl #30
    1984:	01940000 	orrseq	r0, r4, r0
    1988:	00040000 	andeq	r0, r4, r0
    198c:	9f5001f3 	svcls	0x005001f3
    1990:	00000194 	muleq	r0, r4, r1
    1994:	00000198 	muleq	r0, r8, r1
    1998:	02730003 	rsbseq	r0, r3, #3, 0
    199c:	0001989f 	muleq	r1, pc, r8	; <UNPREDICTABLE>
    19a0:	0001c000 	andeq	ip, r1, r0
    19a4:	f3000400 	vshl.u8	d0, d0, d0
    19a8:	c09f5001 	addsgt	r5, pc, r1
    19ac:	c8000001 	stmdagt	r0, {r0}
    19b0:	01000001 	tsteq	r0, r1
    19b4:	01c85c00 	biceq	r5, r8, r0, lsl #24
    19b8:	02140000 	andseq	r0, r4, #0, 0
    19bc:	00030000 	andeq	r0, r3, r0
    19c0:	149f0273 	ldrne	r0, [pc], #627	; 19c8 <__code_start__-0x6638>
    19c4:	ec000002 	stc	0, cr0, [r0], {2}
    19c8:	04000002 	streq	r0, [r0], #-2
    19cc:	5001f300 	andpl	pc, r1, r0, lsl #6
    19d0:	0002ec9f 	muleq	r2, pc, ip	; <UNPREDICTABLE>
    19d4:	0002f400 	andeq	pc, r2, r0, lsl #8
    19d8:	73000300 	movwvc	r0, #768	; 0x300
    19dc:	02f49f02 	rscseq	r9, r4, #2, 30
    19e0:	03280000 			; <UNDEFINED> instruction: 0x03280000
    19e4:	00040000 	andeq	r0, r4, r0
    19e8:	9f5001f3 	svcls	0x005001f3
	...
    1a00:	0000001c 	andeq	r0, r0, ip, lsl r0
    1a04:	1c510001 	mrrcne	0, 0, r0, r1, cr1
    1a08:	e0000000 	and	r0, r0, r0
    1a0c:	01000002 	tsteq	r0, r2
    1a10:	02e05000 	rsceq	r5, r0, #0, 0
    1a14:	02ec0000 	rsceq	r0, ip, #0, 0
    1a18:	00040000 	andeq	r0, r4, r0
    1a1c:	9f5101f3 	svcls	0x005101f3
    1a20:	000002ec 	andeq	r0, r0, ip, ror #5
    1a24:	00000328 	andeq	r0, r0, r8, lsr #6
    1a28:	00500001 	subseq	r0, r0, r1
	...
    1a38:	00000001 	andeq	r0, r0, r1
    1a3c:	00000000 	andeq	r0, r0, r0
    1a40:	00000202 	andeq	r0, r0, r2, lsl #4
	...
    1a54:	70000000 	andvc	r0, r0, r0
    1a58:	01000000 	mrseq	r0, (UNDEF: 0)
    1a5c:	00705200 	rsbseq	r5, r0, r0, lsl #4
    1a60:	00780000 	rsbseq	r0, r8, r0
    1a64:	00010000 	andeq	r0, r1, r0
    1a68:	0000785c 	andeq	r7, r0, ip, asr r8
    1a6c:	0000a400 	andeq	sl, r0, r0, lsl #8
    1a70:	f3000400 	vshl.u8	d0, d0, d0
    1a74:	949f5201 	ldrls	r5, [pc], #513	; 1a7c <__code_start__-0x6584>
    1a78:	9c000001 	stcls	0, cr0, [r0], {1}
    1a7c:	01000001 	tsteq	r0, r1
    1a80:	019c5200 	orrseq	r5, ip, r0, lsl #4
    1a84:	01a40000 			; <UNDEFINED> instruction: 0x01a40000
    1a88:	00010000 	andeq	r0, r1, r0
    1a8c:	0001a45c 	andeq	sl, r1, ip, asr r4
    1a90:	0001c000 	andeq	ip, r1, r0
    1a94:	f3000400 	vshl.u8	d0, d0, d0
    1a98:	c09f5201 	addsgt	r5, pc, r1, lsl #4
    1a9c:	20000001 	andcs	r0, r0, r1
    1aa0:	01000002 	tsteq	r0, r2
    1aa4:	02205200 	eoreq	r5, r0, #0, 4
    1aa8:	02280000 	eoreq	r0, r8, #0, 0
    1aac:	00040000 	andeq	r0, r4, r0
    1ab0:	9f1f0072 	svcls	0x001f0072
    1ab4:	00000228 	andeq	r0, r0, r8, lsr #4
    1ab8:	00000274 	andeq	r0, r0, r4, ror r2
    1abc:	01f30005 	mvnseq	r0, r5
    1ac0:	749f1f52 	ldrvc	r1, [pc], #3922	; 1ac8 <__code_start__-0x6538>
    1ac4:	88000002 	stmdahi	r0, {r1}
    1ac8:	01000002 	tsteq	r0, r2
    1acc:	02885200 	addeq	r5, r8, #0, 4
    1ad0:	02a00000 	adceq	r0, r0, #0, 0
    1ad4:	00010000 	andeq	r0, r1, r0
    1ad8:	0002cc5c 	andeq	ip, r2, ip, asr ip
    1adc:	0002d000 	andeq	sp, r2, r0
    1ae0:	52000100 	andpl	r0, r0, #0
    1ae4:	000002d0 	ldrdeq	r0, [r0], -r0	; <UNPREDICTABLE>
    1ae8:	000002e7 	andeq	r0, r0, r7, ror #5
    1aec:	e75c0001 	ldrb	r0, [ip, -r1]
    1af0:	ec000002 	stc	0, cr0, [r0], {2}
    1af4:	04000002 	streq	r0, [r0], #-2
    1af8:	5201f300 	andpl	pc, r1, #0, 6
    1afc:	0002ec9f 	muleq	r2, pc, ip	; <UNPREDICTABLE>
    1b00:	00030000 	andeq	r0, r3, r0
    1b04:	52000100 	andpl	r0, r0, #0
    1b08:	00000300 	andeq	r0, r0, r0, lsl #6
    1b0c:	00000328 	andeq	r0, r0, r8, lsr #6
    1b10:	005c0001 	subseq	r0, ip, r1
	...
    1b2c:	00006800 	andeq	r6, r0, r0, lsl #16
    1b30:	53000100 	movwpl	r0, #256	; 0x100
    1b34:	00000068 	andeq	r0, r0, r8, rrx
    1b38:	0000006c 	andeq	r0, r0, ip, rrx
    1b3c:	7f080003 	svcvc	0x00080003
    1b40:	0001949f 	muleq	r1, pc, r4	; <UNPREDICTABLE>
    1b44:	00019800 	andeq	r9, r1, r0, lsl #16
    1b48:	08000300 	stmdaeq	r0, {r8, r9}
    1b4c:	01c09f7f 	biceq	r9, r0, pc, ror pc
    1b50:	02140000 	andseq	r0, r4, #0, 0
    1b54:	00030000 	andeq	r0, r3, r0
    1b58:	749f7f08 	ldrvc	r7, [pc], #3848	; 1b60 <__code_start__-0x64a0>
    1b5c:	90000002 	andls	r0, r0, r2
    1b60:	01000002 	tsteq	r0, r2
    1b64:	02905300 	addseq	r5, r0, #0, 6
    1b68:	02a00000 	adceq	r0, r0, #0, 0
    1b6c:	00040000 	andeq	r0, r4, r0
    1b70:	9f5301f3 	svcls	0x005301f3
    1b74:	000002ec 	andeq	r0, r0, ip, ror #5
    1b78:	00000328 	andeq	r0, r0, r8, lsr #6
    1b7c:	7f080003 	svcvc	0x00080003
    1b80:	0000009f 	muleq	r0, pc, r0	; <UNPREDICTABLE>
    1b84:	00000000 	andeq	r0, r0, r0
    1b88:	00000100 	andeq	r0, r0, r0, lsl #2
    1b8c:	02020000 	andeq	r0, r2, #0, 0
    1b90:	01010000 	mrseq	r0, (UNDEF: 1)
	...
    1b9c:	00000202 	andeq	r0, r0, r2, lsl #4
    1ba0:	00000100 	andeq	r0, r0, r0, lsl #2
    1ba4:	00000000 	andeq	r0, r0, r0
    1ba8:	01010000 	mrseq	r0, (UNDEF: 1)
    1bac:	00000000 	andeq	r0, r0, r0
    1bb0:	00000202 	andeq	r0, r0, r2, lsl #4
    1bb4:	00000000 	andeq	r0, r0, r0
    1bb8:	00000101 	andeq	r0, r0, r1, lsl #2
    1bbc:	00001800 	andeq	r1, r0, r0, lsl #16
    1bc0:	00007000 	andeq	r7, r0, r0
    1bc4:	91000400 	tstls	r0, r0, lsl #8
    1bc8:	709f7fa0 	addsvc	r7, pc, r0, lsr #31
    1bcc:	78000000 	stmdavc	r0, {}	; <UNPREDICTABLE>
    1bd0:	01000000 	mrseq	r0, (UNDEF: 0)
    1bd4:	00785200 	rsbseq	r5, r8, r0, lsl #4
    1bd8:	00780000 	rsbseq	r0, r8, r0
    1bdc:	00010000 	andeq	r0, r1, r0
    1be0:	00007854 	andeq	r7, r0, r4, asr r8
    1be4:	00008800 	andeq	r8, r0, r0, lsl #16
    1be8:	74000300 	strvc	r0, [r0], #-768	; 0xfffffd00
    1bec:	00889f01 	addeq	r9, r8, r1, lsl #30
    1bf0:	00900000 	addseq	r0, r0, r0
    1bf4:	00010000 	andeq	r0, r1, r0
    1bf8:	00009054 	andeq	r9, r0, r4, asr r0
    1bfc:	0000a000 	andeq	sl, r0, r0
    1c00:	74000300 	strvc	r0, [r0], #-768	; 0xfffffd00
    1c04:	00a09f02 	adceq	r9, r0, r2, lsl #30
    1c08:	00b00000 	adcseq	r0, r0, r0
    1c0c:	00010000 	andeq	r0, r1, r0
    1c10:	0001945e 	andeq	r9, r1, lr, asr r4
    1c14:	00019c00 	andeq	r9, r1, r0, lsl #24
    1c18:	91000400 	tstls	r0, r0, lsl #8
    1c1c:	9c9f7fa0 	ldcls	15, cr7, [pc], {160}	; 0xa0
    1c20:	a4000001 	strge	r0, [r0], #-1
    1c24:	01000001 	tsteq	r0, r1
    1c28:	01a45200 			; <UNDEFINED> instruction: 0x01a45200
    1c2c:	01a40000 			; <UNDEFINED> instruction: 0x01a40000
    1c30:	00010000 	andeq	r0, r1, r0
    1c34:	0001a45e 	andeq	sl, r1, lr, asr r4
    1c38:	0001b400 	andeq	fp, r1, r0, lsl #8
    1c3c:	7e000300 	cdpvc	3, 0, cr0, cr0, cr0, {0}
    1c40:	01b49f01 			; <UNDEFINED> instruction: 0x01b49f01
    1c44:	01c00000 	biceq	r0, r0, r0
    1c48:	00010000 	andeq	r0, r1, r0
    1c4c:	0001c05e 	andeq	ip, r1, lr, asr r0
    1c50:	00022800 	andeq	r2, r2, r0, lsl #16
    1c54:	91000400 	tstls	r0, r0, lsl #8
    1c58:	289f7fa0 	ldmcs	pc, {r5, r7, r8, r9, sl, fp, ip, sp, lr}	; <UNPREDICTABLE>
    1c5c:	34000002 	strcc	r0, [r0], #-2
    1c60:	01000002 	tsteq	r0, r2
    1c64:	02345200 	eorseq	r5, r4, #0, 4
    1c68:	02580000 	subseq	r0, r8, #0, 0
    1c6c:	00010000 	andeq	r0, r1, r0
    1c70:	0002585e 	andeq	r5, r2, lr, asr r8
    1c74:	00025c00 	andeq	r5, r2, r0, lsl #24
    1c78:	7e000300 	cdpvc	3, 0, cr0, cr0, cr0, {0}
    1c7c:	025c9f01 	subseq	r9, ip, #1, 30
    1c80:	02640000 	rsbeq	r0, r4, #0, 0
    1c84:	00010000 	andeq	r0, r1, r0
    1c88:	0002645e 	andeq	r6, r2, lr, asr r4
    1c8c:	00027000 	andeq	r7, r2, r0
    1c90:	71000300 	mrsvc	r0, LR_irq
    1c94:	02709f02 	rsbseq	r9, r0, #2, 30
    1c98:	02740000 	rsbseq	r0, r4, #0, 0
    1c9c:	00010000 	andeq	r0, r1, r0
    1ca0:	0002745e 	andeq	r7, r2, lr, asr r4
    1ca4:	00027400 	andeq	r7, r2, r0, lsl #8
    1ca8:	91000400 	tstls	r0, r0, lsl #8
    1cac:	749f7fa0 	ldrvc	r7, [pc], #4000	; 1cb4 <__code_start__-0x634c>
    1cb0:	a0000002 	andge	r0, r0, r2
    1cb4:	04000002 	streq	r0, [r0], #-2
    1cb8:	7fa19100 	svcvc	0x00a19100
    1cbc:	0002c09f 	muleq	r2, pc, r0	; <UNPREDICTABLE>
    1cc0:	0002c800 	andeq	ip, r2, r0, lsl #16
    1cc4:	5e000100 	adfpls	f0, f0, f0
    1cc8:	000002c8 	andeq	r0, r0, r8, asr #5
    1ccc:	000002cc 	andeq	r0, r0, ip, asr #5
    1cd0:	cc560001 	mrrcgt	0, 0, r0, r6, cr1
    1cd4:	ec000002 	stc	0, cr0, [r0], {2}
    1cd8:	04000002 	streq	r0, [r0], #-2
    1cdc:	7fa09100 	svcvc	0x00a09100
    1ce0:	0002ec9f 	muleq	r2, pc, ip	; <UNPREDICTABLE>
    1ce4:	0002fc00 	andeq	pc, r2, r0, lsl #24
    1ce8:	91000400 	tstls	r0, r0, lsl #8
    1cec:	fc9f7fa1 	ldc2	15, cr7, [pc], {161}	; 0xa1
    1cf0:	28000002 	stmdacs	r0, {r1}
    1cf4:	01000003 	tsteq	r0, r3
    1cf8:	00005e00 	andeq	r5, r0, r0, lsl #28
	...
    1d10:	00010100 	andeq	r0, r1, r0, lsl #2
	...
    1d24:	00000020 	andeq	r0, r0, r0, lsr #32
    1d28:	00000070 	andeq	r0, r0, r0, ror r0
    1d2c:	70520001 	subsvc	r0, r2, r1
    1d30:	94000000 	strls	r0, [r0], #-0
    1d34:	01000000 	mrseq	r0, (UNDEF: 0)
    1d38:	01945c00 	orrseq	r5, r4, r0, lsl #24
    1d3c:	019c0000 	orrseq	r0, ip, r0
    1d40:	00010000 	andeq	r0, r1, r0
    1d44:	00019c52 	andeq	r9, r1, r2, asr ip
    1d48:	0001c000 	andeq	ip, r1, r0
    1d4c:	5c000100 	stfpls	f0, [r0], {-0}
    1d50:	000001c8 	andeq	r0, r0, r8, asr #3
    1d54:	00000210 	andeq	r0, r0, r0, lsl r2
    1d58:	105c0001 	subsne	r0, ip, r1
    1d5c:	24000002 	strcs	r0, [r0], #-2
    1d60:	01000002 	tsteq	r0, r2
    1d64:	02245200 	eoreq	r5, r4, #0, 4
    1d68:	02480000 	subeq	r0, r8, #0, 0
    1d6c:	00010000 	andeq	r0, r1, r0
    1d70:	0002485c 	andeq	r4, r2, ip, asr r8
    1d74:	00025c00 	andeq	r5, r2, r0, lsl #24
    1d78:	55000100 	strpl	r0, [r0, #-256]	; 0xffffff00
    1d7c:	0000025c 	andeq	r0, r0, ip, asr r2
    1d80:	00000268 	andeq	r0, r0, r8, ror #4
    1d84:	685c0001 	ldmdavs	ip, {r0}^
    1d88:	74000002 	strvc	r0, [r0], #-2
    1d8c:	19000002 	stmdbne	r0, {r1}
    1d90:	f7007500 			; <UNDEFINED> instruction: 0xf7007500
    1d94:	7625f72c 	strtvc	pc, [r5], -ip, lsr #14
    1d98:	f72cf700 			; <UNDEFINED> instruction: 0xf72cf700
    1d9c:	20081e25 	andcs	r1, r8, r5, lsr #28
    1da0:	f72525f7 			; <UNDEFINED> instruction: 0xf72525f7
    1da4:	3300f72c 	movwcc	pc, #1836	; 0x72c	; <UNPREDICTABLE>
    1da8:	02749f25 	rsbseq	r9, r4, #148	; 0x94
    1dac:	02880000 	addeq	r0, r8, #0, 0
    1db0:	00010000 	andeq	r0, r1, r0
    1db4:	00028852 	andeq	r8, r2, r2, asr r8
    1db8:	0002a000 	andeq	sl, r2, r0
    1dbc:	5c000100 	stfpls	f0, [r0], {-0}
    1dc0:	000002cc 	andeq	r0, r0, ip, asr #5
    1dc4:	000002d0 	ldrdeq	r0, [r0], -r0	; <UNPREDICTABLE>
    1dc8:	d0520001 	subsle	r0, r2, r1
    1dcc:	e7000002 	str	r0, [r0, -r2]
    1dd0:	01000002 	tsteq	r0, r2
    1dd4:	02e75c00 	rsceq	r5, r7, #0, 24
    1dd8:	02ec0000 	rsceq	r0, ip, #0, 0
    1ddc:	00040000 	andeq	r0, r4, r0
    1de0:	9f5201f3 	svcls	0x005201f3
    1de4:	000002ec 	andeq	r0, r0, ip, ror #5
    1de8:	00000300 	andeq	r0, r0, r0, lsl #6
    1dec:	00520001 	subseq	r0, r2, r1
    1df0:	28000003 	stmdacs	r0, {r0, r1}
    1df4:	01000003 	tsteq	r0, r3
    1df8:	00005c00 	andeq	r5, r0, r0, lsl #24
    1dfc:	00000000 	andeq	r0, r0, r0
    1e00:	00040000 	andeq	r0, r4, r0
    1e04:	01000004 	tsteq	r0, r4
    1e08:	00040000 	andeq	r0, r4, r0
    1e0c:	000000a4 	andeq	r0, r0, r4, lsr #1
    1e10:	000000b0 	strheq	r0, [r0], -r0	; <UNPREDICTABLE>
    1e14:	7c530001 	mrrcvc	0, 0, r0, r3, cr1
    1e18:	90000002 	andls	r0, r0, r2
    1e1c:	01000002 	tsteq	r0, r2
    1e20:	02905300 	addseq	r5, r0, #0, 6
    1e24:	029c0000 	addseq	r0, ip, #0, 0
    1e28:	00040000 	andeq	r0, r4, r0
    1e2c:	9f5301f3 	svcls	0x005301f3
    1e30:	000002c0 	andeq	r0, r0, r0, asr #5
    1e34:	000002cc 	andeq	r0, r0, ip, asr #5
    1e38:	f0530001 			; <UNDEFINED> instruction: 0xf0530001
    1e3c:	28000002 	stmdacs	r0, {r1}
    1e40:	03000003 	movweq	r0, #3
    1e44:	9f7f0800 	svcls	0x007f0800
	...
    1e50:	01000004 	tsteq	r0, r4
    1e54:	01000004 	tsteq	r0, r4
    1e58:	00000000 	andeq	r0, r0, r0
    1e5c:	00000004 	andeq	r0, r0, r4
    1e60:	000000a4 	andeq	r0, r0, r4, lsr #1
    1e64:	000000b0 	strheq	r0, [r0], -r0	; <UNPREDICTABLE>
    1e68:	b0520001 	subslt	r0, r2, r1
    1e6c:	5c000000 	stcpl	0, cr0, [r0], {-0}
    1e70:	04000001 	streq	r0, [r0], #-1
    1e74:	7fa09100 	svcvc	0x00a09100
    1e78:	00027c9f 	muleq	r2, pc, ip	; <UNPREDICTABLE>
    1e7c:	00029400 	andeq	r9, r2, r0, lsl #8
    1e80:	91000400 	tstls	r0, r0, lsl #8
    1e84:	949f7fa0 	ldrls	r7, [pc], #4000	; 1e8c <__code_start__-0x6174>
    1e88:	9c000002 	stcls	0, cr0, [r0], {2}
    1e8c:	01000002 	tsteq	r0, r2
    1e90:	02b45e00 	adcseq	r5, r4, #0, 28
    1e94:	02c00000 	sbceq	r0, r0, #0, 0
    1e98:	00040000 	andeq	r0, r4, r0
    1e9c:	9f7fa091 	svcls	0x007fa091
    1ea0:	000002c0 	andeq	r0, r0, r0, asr #5
    1ea4:	000002cc 	andeq	r0, r0, ip, asr #5
    1ea8:	f0520001 			; <UNDEFINED> instruction: 0xf0520001
    1eac:	00000002 	andeq	r0, r0, r2
    1eb0:	04000003 	streq	r0, [r0], #-3
    1eb4:	7fa09100 	svcvc	0x00a09100
    1eb8:	0003009f 	muleq	r3, pc, r0	; <UNPREDICTABLE>
    1ebc:	00032800 	andeq	r2, r3, r0, lsl #16
    1ec0:	52000100 	andpl	r0, r0, #0
	...
    1ecc:	01000004 	tsteq	r0, r4
    1ed0:	03010101 	movweq	r0, #4353	; 0x1101
    1ed4:	01040203 	tsteq	r4, r3, lsl #4
    1ed8:	00000000 	andeq	r0, r0, r0
    1edc:	00000004 	andeq	r0, r0, r4
    1ee0:	000000a4 	andeq	r0, r0, r4, lsr #1
    1ee4:	000000b0 	strheq	r0, [r0], -r0	; <UNPREDICTABLE>
    1ee8:	0c5e0001 	mrrceq	0, 0, r0, lr, cr1
    1eec:	0c000001 	stceq	0, cr0, [r0], {1}
    1ef0:	01000001 	tsteq	r0, r1
    1ef4:	010c5500 	tsteq	ip, r0, lsl #10
    1ef8:	01200000 			; <UNDEFINED> instruction: 0x01200000
    1efc:	00030000 	andeq	r0, r3, r0
    1f00:	209f0175 	addscs	r0, pc, r5, ror r1	; <UNPREDICTABLE>
    1f04:	2c000001 	stccs	0, cr0, [r0], {1}
    1f08:	03000001 	movweq	r0, #1
    1f0c:	9f027500 	svcls	0x00027500
    1f10:	0000012c 	andeq	r0, r0, ip, lsr #2
    1f14:	00000130 	andeq	r0, r0, r0, lsr r1
    1f18:	03750003 	cmneq	r5, #3, 0
    1f1c:	00027c9f 	muleq	r2, pc, ip	; <UNPREDICTABLE>
    1f20:	00029c00 	andeq	r9, r2, r0, lsl #24
    1f24:	91000400 	tstls	r0, r0, lsl #8
    1f28:	c09f7fa1 	addsgt	r7, pc, r1, lsr #31
    1f2c:	c8000002 	stmdagt	r0, {r1}
    1f30:	01000002 	tsteq	r0, r2
    1f34:	02c85e00 	sbceq	r5, r8, #0, 28
    1f38:	02cc0000 	sbceq	r0, ip, #0, 0
    1f3c:	00010000 	andeq	r0, r1, r0
    1f40:	0002f056 	andeq	pc, r2, r6, asr r0	; <UNPREDICTABLE>
    1f44:	0002fc00 	andeq	pc, r2, r0, lsl #24
    1f48:	91000400 	tstls	r0, r0, lsl #8
    1f4c:	fc9f7fa1 	ldc2	15, cr7, [pc], {161}	; 0xa1
    1f50:	28000002 	stmdacs	r0, {r1}
    1f54:	01000003 	tsteq	r0, r3
    1f58:	00005e00 	andeq	r5, r0, r0, lsl #28
	...
    1f64:	01010100 	mrseq	r0, (UNDEF: 17)
    1f68:	02010101 	andeq	r0, r1, #1073741824	; 0x40000000
    1f6c:	00000106 	andeq	r0, r0, r6, lsl #2
    1f70:	00a80006 	adceq	r0, r8, r6
    1f74:	00b00000 	adcseq	r0, r0, r0
    1f78:	00010000 	andeq	r0, r1, r0
    1f7c:	00010c51 	andeq	r0, r1, r1, asr ip
    1f80:	00011c00 	andeq	r1, r1, r0, lsl #24
    1f84:	5c000100 	stfpls	f0, [r0], {-0}
    1f88:	0000011c 	andeq	r0, r0, ip, lsl r1
    1f8c:	0000012c 	andeq	r0, r0, ip, lsr #2
    1f90:	2c580001 	mrrccs	0, 0, r0, r8, cr1
    1f94:	30000001 	andcc	r0, r0, r1
    1f98:	01000001 	tsteq	r0, r1
    1f9c:	01305c00 	teqeq	r0, r0, lsl #24
    1fa0:	01300000 	teqeq	r0, r0
    1fa4:	00030000 	andeq	r0, r3, r0
    1fa8:	7c9f017c 	ldfvcs	f0, [pc], {124}	; 0x7c
    1fac:	9c000002 	stcls	0, cr0, [r0], {2}
    1fb0:	02000002 	andeq	r0, r0, #2, 0
    1fb4:	c09f3100 	addsgt	r3, pc, r0, lsl #2
    1fb8:	cc000002 	stcgt	0, cr0, [r0], {2}
    1fbc:	01000002 	tsteq	r0, r2
    1fc0:	02f05100 	rscseq	r5, r0, #0
    1fc4:	03280000 			; <UNDEFINED> instruction: 0x03280000
    1fc8:	00020000 	andeq	r0, r2, r0
    1fcc:	00009f31 	andeq	r9, r0, r1, lsr pc
    1fd0:	00000000 	andeq	r0, r0, r0
    1fd4:	06010000 	streq	r0, [r1], -r0
    1fd8:	00010106 	andeq	r0, r1, r6, lsl #2
    1fdc:	015c0100 	cmpeq	ip, r0, lsl #2
    1fe0:	015c0000 	cmpeq	ip, r0
    1fe4:	00040000 	andeq	r0, r4, r0
    1fe8:	9f7fa091 	svcls	0x007fa091
    1fec:	0000015c 	andeq	r0, r0, ip, asr r1
    1ff0:	0000018c 	andeq	r0, r0, ip, lsl #3
    1ff4:	9c520001 	mrrcls	0, 0, r0, r2, cr1
    1ff8:	a0000002 	andge	r0, r0, r2
    1ffc:	01000002 	tsteq	r0, r2
    2000:	02a05e00 	adceq	r5, r0, #0, 28
    2004:	02ac0000 	adceq	r0, ip, #0, 0
    2008:	00010000 	andeq	r0, r1, r0
    200c:	00000052 	andeq	r0, r0, r2, asr r0
	...
    2018:	01000101 	tsteq	r0, r1, lsl #2
    201c:	00016c07 	andeq	r6, r1, r7, lsl #24
    2020:	00017000 	andeq	r7, r1, r0
    2024:	73000300 	movwvc	r0, #768	; 0x300
    2028:	01709f7f 	cmneq	r0, pc, ror pc
    202c:	01780000 	cmneq	r8, r0
    2030:	00010000 	andeq	r0, r1, r0
    2034:	00017853 	andeq	r7, r1, r3, asr r8
    2038:	00018400 	andeq	r8, r1, r0, lsl #8
    203c:	73000300 	movwvc	r0, #768	; 0x300
    2040:	029c9f7f 	addseq	r9, ip, #508	; 0x1fc
    2044:	029c0000 	addseq	r0, ip, #0, 0
    2048:	00040000 	andeq	r0, r4, r0
    204c:	9f7fa191 	svcls	0x007fa191
	...
    2058:	01010101 	tsteq	r1, r1, lsl #2
    205c:	0000015c 	andeq	r0, r0, ip, asr r1
    2060:	0000018c 	andeq	r0, r0, ip, lsl #3
    2064:	80080003 	andhi	r0, r8, r3
    2068:	00029c9f 	muleq	r2, pc, ip	; <UNPREDICTABLE>
    206c:	0002ac00 	andeq	sl, r2, r0, lsl #24
    2070:	08000300 	stmdaeq	r0, {r8, r9}
    2074:	00009f80 	andeq	r9, r0, r0, lsl #31
    2078:	00000000 	andeq	r0, r0, r0
    207c:	00010000 	andeq	r0, r1, r0
    2080:	00010100 	andeq	r0, r1, r0, lsl #2
    2084:	01010100 	mrseq	r0, (UNDEF: 17)
    2088:	01010101 	tsteq	r1, r1, lsl #2
    208c:	0000015c 	andeq	r0, r0, ip, asr r1
    2090:	0000016c 	andeq	r0, r0, ip, ror #2
    2094:	6c500001 	mrrcvs	0, 0, r0, r0, cr1	; <UNPREDICTABLE>
    2098:	6c000001 	stcvs	0, cr0, [r0], {1}
    209c:	03000001 	movweq	r0, #1
    20a0:	9f017c00 	svcls	0x00017c00
    20a4:	0000016c 	andeq	r0, r0, ip, ror #2
    20a8:	00000178 	andeq	r0, r0, r8, ror r1
    20ac:	027c0003 	rsbseq	r0, ip, #3, 0
    20b0:	0001789f 	muleq	r1, pc, r8	; <UNPREDICTABLE>
    20b4:	00018800 	andeq	r8, r1, r0, lsl #16
    20b8:	7c000300 	stcvc	3, cr0, [r0], {-0}
    20bc:	01889f01 	orreq	r9, r8, r1, lsl #30
    20c0:	018c0000 	orreq	r0, ip, r0
    20c4:	00030000 	andeq	r0, r3, r0
    20c8:	9c9f017e 	ldflss	f0, [pc], {126}	; 0x7e
    20cc:	a4000002 	strge	r0, [r0], #-2
    20d0:	01000002 	tsteq	r0, r2
    20d4:	02a45000 	adceq	r5, r4, #0, 0
    20d8:	02ac0000 	adceq	r0, ip, #0, 0
    20dc:	00030000 	andeq	r0, r3, r0
    20e0:	009f017e 	addseq	r0, pc, lr, ror r1	; <UNPREDICTABLE>
    20e4:	00000000 	andeq	r0, r0, r0
    20e8:	04000000 	streq	r0, [r0], #-0
    20ec:	00000400 	andeq	r0, r0, r0, lsl #8
    20f0:	00015c01 	andeq	r5, r1, r1, lsl #24
    20f4:	00016000 	andeq	r6, r1, r0
    20f8:	71000300 	mrsvc	r0, LR_irq
    20fc:	029c9f01 	addseq	r9, ip, #1, 30
    2100:	02a00000 	adceq	r0, r0, #0, 0
    2104:	00020000 	andeq	r0, r2, r0
    2108:	02a09f32 	adceq	r9, r0, #200	; 0xc8
    210c:	02ac0000 	adceq	r0, ip, #0, 0
    2110:	00030000 	andeq	r0, r3, r0
    2114:	009f0171 	addseq	r0, pc, r1, ror r1	; <UNPREDICTABLE>
    2118:	00000000 	andeq	r0, r0, r0
    211c:	07000000 	streq	r0, [r0, -r0]
    2120:	5c000600 	stcpl	6, cr0, [r0], {-0}
    2124:	94000001 	strls	r0, [r0], #-1
    2128:	01000001 	tsteq	r0, r1
    212c:	029c5000 	addseq	r5, ip, #0, 0
    2130:	02b40000 	adcseq	r0, r4, #0, 0
    2134:	00010000 	andeq	r0, r1, r0
    2138:	00000050 	andeq	r0, r0, r0, asr r0
    213c:	00000000 	andeq	r0, r0, r0
    2140:	01010100 	mrseq	r0, (UNDEF: 17)
    2144:	00021400 	andeq	r1, r2, r0, lsl #8
    2148:	00022000 	andeq	r2, r2, r0
    214c:	30000200 	andcc	r0, r0, r0, lsl #4
    2150:	0002209f 	muleq	r2, pc, r0	; <UNPREDICTABLE>
    2154:	00023400 	andeq	r3, r2, r0, lsl #8
    2158:	31000200 	mrscc	r0, R8_usr
    215c:	0000009f 	muleq	r0, pc, r0	; <UNPREDICTABLE>
    2160:	00000000 	andeq	r0, r0, r0
    2164:	01010000 	mrseq	r0, (UNDEF: 1)
    2168:	01010000 	mrseq	r0, (UNDEF: 1)
    216c:	01010000 	mrseq	r0, (UNDEF: 1)
    2170:	01010000 	mrseq	r0, (UNDEF: 1)
    2174:	01010000 	mrseq	r0, (UNDEF: 1)
    2178:	02020000 	andeq	r0, r2, #0, 0
    217c:	00008001 	andeq	r8, r0, r1
    2180:	00008000 	andeq	r8, r0, r0
    2184:	53000100 	movwpl	r0, #256	; 0x100
    2188:	00000080 	andeq	r0, r0, r0, lsl #1
    218c:	0000008c 	andeq	r0, r0, ip, lsl #1
    2190:	04730003 	ldrbteq	r0, [r3], #-3
    2194:	00008c9f 	muleq	r0, pc, ip	; <UNPREDICTABLE>
    2198:	00009400 	andeq	r9, r0, r0, lsl #8
    219c:	51000100 	mrspl	r0, (UNDEF: 16)
    21a0:	00000094 	muleq	r0, r4, r0
    21a4:	00000098 	muleq	r0, r8, r0
    21a8:	08730003 	ldmdaeq	r3!, {r0, r1}^
    21ac:	0000989f 	muleq	r0, pc, r8	; <UNPREDICTABLE>
    21b0:	0000a400 	andeq	sl, r0, r0, lsl #8
    21b4:	51000100 	mrspl	r0, (UNDEF: 16)
    21b8:	000000a4 	andeq	r0, r0, r4, lsr #1
    21bc:	000000a8 	andeq	r0, r0, r8, lsr #1
    21c0:	0c730003 	ldcleq	0, cr0, [r3], #-12
    21c4:	0000a89f 	muleq	r0, pc, r8	; <UNPREDICTABLE>
    21c8:	0000b400 	andeq	fp, r0, r0, lsl #8
    21cc:	51000100 	mrspl	r0, (UNDEF: 16)
    21d0:	000000b4 	strheq	r0, [r0], -r4
    21d4:	000000b8 	strheq	r0, [r0], -r8
    21d8:	10730003 	rsbsne	r0, r3, r3
    21dc:	0000b89f 	muleq	r0, pc, r8	; <UNPREDICTABLE>
    21e0:	0000c400 	andeq	ip, r0, r0, lsl #8
    21e4:	51000100 	mrspl	r0, (UNDEF: 16)
    21e8:	000000c4 	andeq	r0, r0, r4, asr #1
    21ec:	000000c8 	andeq	r0, r0, r8, asr #1
    21f0:	14730003 	ldrbtne	r0, [r3], #-3
    21f4:	0000c89f 	muleq	r0, pc, r8	; <UNPREDICTABLE>
    21f8:	0000d000 	andeq	sp, r0, r0
    21fc:	51000100 	mrspl	r0, (UNDEF: 16)
    2200:	000000d0 	ldrdeq	r0, [r0], -r0	; <UNPREDICTABLE>
    2204:	000000d4 	ldrdeq	r0, [r0], -r4
    2208:	04710003 	ldrbteq	r0, [r1], #-3
    220c:	0000009f 	muleq	r0, pc, r0	; <UNPREDICTABLE>
    2210:	00000000 	andeq	r0, r0, r0
    2214:	d8000200 	stmdale	r0, {r9}
    2218:	e8000000 	stmda	r0, {}	; <UNPREDICTABLE>
    221c:	02000000 	andeq	r0, r0, #0, 0
    2220:	009f3100 	addseq	r3, pc, r0, lsl #2
    2224:	00000000 	andeq	r0, r0, r0
    2228:	04000000 	streq	r0, [r0], #-0
    222c:	a4010000 	strge	r0, [r1], #-0
    2230:	ac000097 	stcge	0, cr0, [r0], {151}	; 0x97
    2234:	02000097 	andeq	r0, r0, #151, 0	; 0x97
    2238:	ac9f3000 	ldcge	0, cr3, [pc], {0}
    223c:	ac000097 	stcge	0, cr0, [r0], {151}	; 0x97
    2240:	01000097 	swpeq	r0, r7, [r0]	; <UNPREDICTABLE>
    2244:	00005300 	andeq	r5, r0, r0, lsl #6
    2248:	00000000 	andeq	r0, r0, r0
    224c:	00030000 	andeq	r0, r3, r0
    2250:	00000000 	andeq	r0, r0, r0
    2254:	97b80000 	ldrls	r0, [r8, r0]!
    2258:	97bc0000 	ldrls	r0, [ip, r0]!
    225c:	00020000 	andeq	r0, r2, r0
    2260:	97bc9f30 			; <UNDEFINED> instruction: 0x97bc9f30
    2264:	97c00000 	strbls	r0, [r0, r0]
    2268:	00010000 	andeq	r0, r1, r0
    226c:	0097c053 	addseq	ip, r7, r3, asr r0
    2270:	0097c400 	addseq	ip, r7, r0, lsl #8
    2274:	73000500 	movwvc	r0, #1280	; 0x500
    2278:	9f214000 	svcls	0x00214000
    227c:	000097c4 	andeq	r9, r0, r4, asr #15
    2280:	000097c8 	andeq	r9, r0, r8, asr #15
    2284:	00530001 	subseq	r0, r3, r1
    2288:	00000000 	andeq	r0, r0, r0
    228c:	02000000 	andeq	r0, r0, #0, 0
    2290:	78000000 	stmdavc	r0, {}	; <UNPREDICTABLE>
    2294:	7c000097 	stcvc	0, cr0, [r0], {151}	; 0x97
    2298:	02000097 	andeq	r0, r0, #151, 0	; 0x97
    229c:	7c9f3000 	ldcvc	0, cr3, [pc], {0}
    22a0:	80000097 	mulhi	r0, r7, r0
    22a4:	01000097 	swpeq	r0, r7, [r0]	; <UNPREDICTABLE>
    22a8:	00005000 	andeq	r5, r0, r0
    22ac:	00000000 	andeq	r0, r0, r0
    22b0:	00020000 	andeq	r0, r2, r0
    22b4:	00000000 	andeq	r0, r0, r0
    22b8:	97900000 	ldrls	r0, [r0, r0]
    22bc:	97940000 	ldrls	r0, [r4, r0]
    22c0:	00020000 	andeq	r0, r2, r0
    22c4:	97949f30 			; <UNDEFINED> instruction: 0x97949f30
    22c8:	97980000 	ldrls	r0, [r8, r0]
    22cc:	00010000 	andeq	r0, r1, r0
    22d0:	00979853 	addseq	r9, r7, r3, asr r8
    22d4:	00979c00 	addseq	r9, r7, r0, lsl #24
    22d8:	73000500 	movwvc	r0, #1280	; 0x500
    22dc:	9f214000 	svcls	0x00214000
    22e0:	0000979c 	muleq	r0, ip, r7
    22e4:	000097a4 	andeq	r9, r0, r4, lsr #15
    22e8:	00530001 	subseq	r0, r3, r1
	...
    22f4:	c8000000 	stmdagt	r0, {}	; <UNPREDICTABLE>
    22f8:	d8000000 	stmdale	r0, {}	; <UNPREDICTABLE>
    22fc:	01000000 	mrseq	r0, (UNDEF: 0)
    2300:	00d85000 	sbcseq	r5, r8, r0
    2304:	011c0000 	tsteq	ip, r0
    2308:	00040000 	andeq	r0, r4, r0
    230c:	9f5001f3 	svcls	0x005001f3
	...
    2318:	00000002 	andeq	r0, r0, r2
    231c:	000000c8 	andeq	r0, r0, r8, asr #1
    2320:	000000d8 	ldrdeq	r0, [r0], -r8
    2324:	00700007 	rsbseq	r0, r0, r7
    2328:	1e03e80a 	cdpne	8, 0, cr14, cr3, cr10, {0}
    232c:	0000d89f 	muleq	r0, pc, r8	; <UNPREDICTABLE>
    2330:	00011c00 	andeq	r1, r1, r0, lsl #24
    2334:	f3000800 	vsub.i8	d0, d0, d0
    2338:	e80a5001 	stmda	sl, {r0, ip, lr}
    233c:	009f1e03 	addseq	r1, pc, r3, lsl #28
	...
    2348:	0000dc00 	andeq	sp, r0, r0, lsl #24
    234c:	00011c00 	andeq	r1, r1, r0, lsl #24
    2350:	54000100 	strpl	r0, [r0], #-256	; 0xffffff00
	...
    235c:	00f00001 	rscseq	r0, r0, r1
    2360:	011c0000 	tsteq	ip, r0
    2364:	00010000 	andeq	r0, r1, r0
    2368:	00000056 	andeq	r0, r0, r6, asr r0
	...
    2374:	0000ec00 	andeq	lr, r0, r0, lsl #24
    2378:	0000ef00 	andeq	lr, r0, r0, lsl #30
    237c:	50000100 	andpl	r0, r0, r0, lsl #2
    2380:	000000ef 	andeq	r0, r0, pc, ror #1
    2384:	0000011c 	andeq	r0, r0, ip, lsl r1
    2388:	00560001 	subseq	r0, r6, r1
	...
    2394:	00010400 	andeq	r0, r1, r0, lsl #8
    2398:	00010b00 	andeq	r0, r1, r0, lsl #22
    239c:	50000100 	andpl	r0, r0, r0, lsl #2
	...
    23ac:	00000020 	andeq	r0, r0, r0, lsr #32
    23b0:	00000023 	andeq	r0, r0, r3, lsr #32
    23b4:	23500001 	cmpcs	r0, #1, 0
    23b8:	30000000 	andcc	r0, r0, r0
    23bc:	01000000 	mrseq	r0, (UNDEF: 0)
    23c0:	00005400 	andeq	r5, r0, r0, lsl #8
	...
    23cc:	00300000 	eorseq	r0, r0, r0
    23d0:	003b0000 	eorseq	r0, fp, r0
    23d4:	00010000 	andeq	r0, r1, r0
    23d8:	00003b50 	andeq	r3, r0, r0, asr fp
    23dc:	00007800 	andeq	r7, r0, r0, lsl #16
    23e0:	56000100 	strpl	r0, [r0], -r0, lsl #2
	...
    23ec:	004c0001 	subeq	r0, ip, r1
    23f0:	00780000 	rsbseq	r0, r8, r0
    23f4:	00010000 	andeq	r0, r1, r0
    23f8:	00000055 	andeq	r0, r0, r5, asr r0
	...
    2404:	00004800 	andeq	r4, r0, r0, lsl #16
    2408:	00004b00 	andeq	r4, r0, r0, lsl #22
    240c:	50000100 	andpl	r0, r0, r0, lsl #2
    2410:	0000004b 	andeq	r0, r0, fp, asr #32
    2414:	00000078 	andeq	r0, r0, r8, ror r0
    2418:	00550001 	subseq	r0, r5, r1
	...
    2424:	00006000 	andeq	r6, r0, r0
    2428:	00006700 	andeq	r6, r0, r0, lsl #14
    242c:	50000100 	andpl	r0, r0, r0, lsl #2
	...
    243c:	00000078 	andeq	r0, r0, r8, ror r0
    2440:	00000084 	andeq	r0, r0, r4, lsl #1
    2444:	84500001 	ldrbhi	r0, [r0], #-1
    2448:	c8000000 	stmdagt	r0, {}	; <UNPREDICTABLE>
    244c:	04000000 	streq	r0, [r0], #-0
    2450:	5001f300 	andpl	pc, r1, r0, lsl #6
    2454:	0000009f 	muleq	r0, pc, r0	; <UNPREDICTABLE>
    2458:	00000000 	andeq	r0, r0, r0
    245c:	88000000 	stmdahi	r0, {}	; <UNPREDICTABLE>
    2460:	c8000000 	stmdagt	r0, {}	; <UNPREDICTABLE>
    2464:	01000000 	mrseq	r0, (UNDEF: 0)
    2468:	00005400 	andeq	r5, r0, r0, lsl #8
    246c:	00000000 	andeq	r0, r0, r0
    2470:	00010000 	andeq	r0, r1, r0
    2474:	0000009c 	muleq	r0, ip, r0
    2478:	000000c8 	andeq	r0, r0, r8, asr #1
    247c:	00560001 	subseq	r0, r6, r1
	...
    2488:	98000000 	stmdals	r0, {}	; <UNPREDICTABLE>
    248c:	9b000000 	blls	2494 <__code_start__-0x5b6c>
    2490:	01000000 	mrseq	r0, (UNDEF: 0)
    2494:	009b5000 	addseq	r5, fp, r0
    2498:	00c80000 	sbceq	r0, r8, r0
    249c:	00010000 	andeq	r0, r1, r0
    24a0:	00000056 	andeq	r0, r0, r6, asr r0
    24a4:	00000000 	andeq	r0, r0, r0
    24a8:	b0000000 	andlt	r0, r0, r0
    24ac:	b7000000 	strlt	r0, [r0, -r0]
    24b0:	01000000 	mrseq	r0, (UNDEF: 0)
    24b4:	00005000 	andeq	r5, r0, r0
	...
    24c0:	01580000 	cmpeq	r8, r0
    24c4:	01630000 	cmneq	r3, r0
    24c8:	00010000 	andeq	r0, r1, r0
    24cc:	00016350 	andeq	r6, r1, r0, asr r3
    24d0:	00018800 	andeq	r8, r1, r0, lsl #16
    24d4:	54000100 	strpl	r0, [r0], #-256	; 0xffffff00
	...
    24e0:	01480000 	mrseq	r0, (UNDEF: 72)
    24e4:	01580000 	cmpeq	r8, r0
    24e8:	00010000 	andeq	r0, r1, r0
    24ec:	00000054 	andeq	r0, r0, r4, asr r0
	...
    24fc:	00000f00 	andeq	r0, r0, r0, lsl #30
    2500:	50000100 	andpl	r0, r0, r0, lsl #2
    2504:	0000000f 	andeq	r0, r0, pc
    2508:	00000020 	andeq	r0, r0, r0, lsr #32
    250c:	00540001 	subseq	r0, r4, r1
	...
    251c:	0f000000 	svceq	0x00000000
    2520:	01000000 	mrseq	r0, (UNDEF: 0)
    2524:	000f5100 	andeq	r5, pc, r0, lsl #2
    2528:	00200000 	eoreq	r0, r0, r0
    252c:	00010000 	andeq	r0, r1, r0
    2530:	00000055 	andeq	r0, r0, r5, asr r0
	...
    253c:	00002000 	andeq	r2, r0, r0
    2540:	00002f00 	andeq	r2, r0, r0, lsl #30
    2544:	50000100 	andpl	r0, r0, r0, lsl #2
    2548:	0000002f 	andeq	r0, r0, pc, lsr #32
    254c:	00000040 	andeq	r0, r0, r0, asr #32
    2550:	00540001 	subseq	r0, r4, r1
	...
    255c:	20000000 	andcs	r0, r0, r0
    2560:	2f000000 	svccs	0x00000000
    2564:	01000000 	mrseq	r0, (UNDEF: 0)
    2568:	002f5100 	eoreq	r5, pc, r0, lsl #2
    256c:	00400000 	subeq	r0, r0, r0
    2570:	00010000 	andeq	r0, r1, r0
    2574:	00000055 	andeq	r0, r0, r5, asr r0
	...
    2580:	50000000 	andpl	r0, r0, r0
    2584:	98000003 	stmdals	r0, {r0, r1}
    2588:	01000003 	tsteq	r0, r3
    258c:	03985000 	orrseq	r5, r8, #0, 0
    2590:	039b0000 	orrseq	r0, fp, #0, 0
    2594:	00020000 	andeq	r0, r2, r0
    2598:	039b6891 	orrseq	r6, fp, #9502720	; 0x910000
    259c:	03b00000 	movseq	r0, #0, 0
    25a0:	00040000 	andeq	r0, r4, r0
    25a4:	9f5001f3 	svcls	0x005001f3
	...
    25c4:	00000220 	andeq	r0, r0, r0, lsr #4
    25c8:	0000027b 	andeq	r0, r0, fp, ror r2
    25cc:	7b500001 	blvc	14025d8 <__bss_end__+0x13f7770>
    25d0:	84000002 	strhi	r0, [r0], #-2
    25d4:	04000002 	streq	r0, [r0], #-2
    25d8:	5001f300 	andpl	pc, r1, r0, lsl #6
    25dc:	0002849f 	muleq	r2, pc, r4	; <UNPREDICTABLE>
    25e0:	00029c00 	andeq	r9, r2, r0, lsl #24
    25e4:	50000100 	andpl	r0, r0, r0, lsl #2
    25e8:	0000029c 	muleq	r0, ip, r2
    25ec:	000002a4 	andeq	r0, r0, r4, lsr #5
    25f0:	01f30004 	mvnseq	r0, r4
    25f4:	02a49f50 	adceq	r9, r4, #80, 30	; 0x140
    25f8:	02a70000 	adceq	r0, r7, #0, 0
    25fc:	00010000 	andeq	r0, r1, r0
    2600:	0002a750 	andeq	sl, r2, r0, asr r7
    2604:	0002c800 	andeq	ip, r2, r0, lsl #16
    2608:	f3000400 	vshl.u8	d0, d0, d0
    260c:	c89f5001 	ldmgt	pc, {r0, ip, lr}	; <UNPREDICTABLE>
    2610:	e0000002 	and	r0, r0, r2
    2614:	01000002 	tsteq	r0, r2
    2618:	02e05000 	rsceq	r5, r0, #0, 0
    261c:	02e80000 	rsceq	r0, r8, #0, 0
    2620:	00040000 	andeq	r0, r4, r0
    2624:	9f5001f3 	svcls	0x005001f3
    2628:	000002e8 	andeq	r0, r0, r8, ror #5
    262c:	000002eb 	andeq	r0, r0, fp, ror #5
    2630:	eb500001 	bl	140263c <__bss_end__+0x13f77d4>
    2634:	38000002 	stmdacc	r0, {r1}
    2638:	04000003 	streq	r0, [r0], #-3
    263c:	5001f300 	andpl	pc, r1, r0, lsl #6
    2640:	0000009f 	muleq	r0, pc, r0	; <UNPREDICTABLE>
	...
    265c:	00022000 	andeq	r2, r2, r0
    2660:	00024400 	andeq	r4, r2, r0, lsl #8
    2664:	51000100 	mrspl	r0, (UNDEF: 16)
    2668:	00000244 	andeq	r0, r0, r4, asr #4
    266c:	00000268 	andeq	r0, r0, r8, ror #4
    2670:	68510001 	ldmdavs	r1, {r0}^
    2674:	7b000002 	blvc	2684 <__code_start__-0x597c>
    2678:	03000002 	movweq	r0, #2
    267c:	9f017100 	svcls	0x00017100
    2680:	0000027b 	andeq	r0, r0, fp, ror r2
    2684:	00000284 	andeq	r0, r0, r4, lsl #5
    2688:	f3380017 	vqadd.u64	d0, d8, d7
    268c:	01f35101 	mvnseq	r5, r1, lsl #2
    2690:	244b4051 	strbcs	r4, [fp], #-81	; 0xffffffaf
    2694:	00080c22 	andeq	r0, r8, r2, lsr #24
    2698:	282d8000 	stmdacs	sp!, {pc}
    269c:	13160001 	tstne	r6, #1, 0
    26a0:	0002849f 	muleq	r2, pc, r4	; <UNPREDICTABLE>
    26a4:	00029800 	andeq	r9, r2, r0, lsl #16
    26a8:	51000100 	mrspl	r0, (UNDEF: 16)
    26ac:	00000298 	muleq	r0, r8, r2
    26b0:	000002a4 	andeq	r0, r0, r4, lsr #5
    26b4:	01f30004 	mvnseq	r0, r4
    26b8:	02a49f51 	adceq	r9, r4, #324	; 0x144
    26bc:	02a70000 	adceq	r0, r7, #0, 0
    26c0:	00010000 	andeq	r0, r1, r0
    26c4:	0002a751 	andeq	sl, r2, r1, asr r7
    26c8:	0002c800 	andeq	ip, r2, r0, lsl #16
    26cc:	f3000400 	vshl.u8	d0, d0, d0
    26d0:	c89f5101 	ldmgt	pc, {r0, r8, ip, lr}	; <UNPREDICTABLE>
    26d4:	dc000002 	stcle	0, cr0, [r0], {2}
    26d8:	01000002 	tsteq	r0, r2
    26dc:	02dc5100 	sbcseq	r5, ip, #0
    26e0:	03380000 	teqeq	r8, #0, 0
    26e4:	00170000 	andseq	r0, r7, r0
    26e8:	5101f338 	tstpl	r1, r8, lsr r3	; <UNPREDICTABLE>
    26ec:	405101f3 	ldrshmi	r0, [r1], #-19	; 0xffffffed
    26f0:	0c22244b 	cfstrseq	mvf2, [r2], #-300	; 0xfffffed4
    26f4:	80000008 	andhi	r0, r0, r8
    26f8:	0001282d 	andeq	r2, r1, sp, lsr #16
    26fc:	009f1316 	addseq	r1, pc, r6, lsl r3	; <UNPREDICTABLE>
	...
    2710:	4c000000 	stcmi	0, cr0, [r0], {-0}
    2714:	5c000002 	stcpl	0, cr0, [r0], {2}
    2718:	01000002 	tsteq	r0, r2
    271c:	025c5200 	subseq	r5, ip, #0, 4
    2720:	02640000 	rsbeq	r0, r4, #0, 0
    2724:	00050000 	andeq	r0, r5, r0
    2728:	00aa2c03 	adceq	r2, sl, r3, lsl #24
    272c:	00026400 	andeq	r6, r2, r0, lsl #8
    2730:	00027b00 	andeq	r7, r2, r0, lsl #22
    2734:	53000100 	movwpl	r0, #256	; 0x100
    2738:	000002c8 	andeq	r0, r0, r8, asr #5
    273c:	000002d8 	ldrdeq	r0, [r0], -r8
    2740:	d8520001 	ldmdale	r2, {r0}^
    2744:	e3000002 	movw	r0, #2
    2748:	05000002 	streq	r0, [r0, #-2]
    274c:	aa2c0300 	bge	b03354 <__bss_end__+0xaf84ec>
    2750:	02e80000 	rsceq	r0, r8, #0, 0
    2754:	02eb0000 	rsceq	r0, fp, #0, 0
    2758:	00010000 	andeq	r0, r1, r0
    275c:	00000053 	andeq	r0, r0, r3, asr r0
    2760:	00000000 	andeq	r0, r0, r0
    2764:	30000400 	andcc	r0, r0, r0, lsl #8
    2768:	34000002 	strcc	r0, [r0], #-2
    276c:	01000002 	tsteq	r0, r2
    2770:	00005100 	andeq	r5, r0, r0, lsl #2
    2774:	00000000 	andeq	r0, r0, r0
    2778:	00020000 	andeq	r0, r2, r0
    277c:	0000023c 	andeq	r0, r0, ip, lsr r2
    2780:	00000244 	andeq	r0, r0, r4, asr #4
    2784:	9f380002 	svcls	0x00380002
	...
    2790:	023c0002 	eorseq	r0, ip, #2, 0
    2794:	02440000 	subeq	r0, r4, #0, 0
    2798:	00010000 	andeq	r0, r1, r0
    279c:	00000051 	andeq	r0, r0, r1, asr r0
    27a0:	00000000 	andeq	r0, r0, r0
    27a4:	00000100 	andeq	r0, r0, r0, lsl #2
    27a8:	4c000000 	stcmi	0, cr0, [r0], {-0}
    27ac:	64000002 	strvs	r0, [r0], #-2
    27b0:	01000002 	tsteq	r0, r2
    27b4:	02c85100 	sbceq	r5, r8, #0
    27b8:	02dc0000 	sbcseq	r0, ip, #0, 0
    27bc:	00010000 	andeq	r0, r1, r0
    27c0:	0002dc51 	andeq	sp, r2, r1, asr ip
    27c4:	0002e800 	andeq	lr, r2, r0, lsl #16
    27c8:	38001700 	stmdacc	r0, {r8, r9, sl, ip}
    27cc:	f35101f3 	vbsl	q8, <illegal reg q8.5>, <illegal reg q9.5>
    27d0:	4b405101 	blmi	1016bdc <__bss_end__+0x100bd74>
    27d4:	080c2224 	stmdaeq	ip, {r2, r5, r9, sp}
    27d8:	2d800000 	stccs	0, cr0, [r0]
    27dc:	16000128 	strne	r0, [r0], -r8, lsr #2
    27e0:	00009f13 	andeq	r9, r0, r3, lsl pc
    27e4:	00000000 	andeq	r0, r0, r0
    27e8:	00010000 	andeq	r0, r1, r0
    27ec:	00000000 	andeq	r0, r0, r0
    27f0:	024c0000 	subeq	r0, ip, #0, 0
    27f4:	025c0000 	subseq	r0, ip, #0, 0
    27f8:	00010000 	andeq	r0, r1, r0
    27fc:	00025c52 	andeq	r5, r2, r2, asr ip
    2800:	00026400 	andeq	r6, r2, r0, lsl #8
    2804:	03000500 	movweq	r0, #1280	; 0x500
    2808:	0000aa2c 	andeq	sl, r0, ip, lsr #20
    280c:	000002c8 	andeq	r0, r0, r8, asr #5
    2810:	000002d8 	ldrdeq	r0, [r0], -r8
    2814:	d8520001 	ldmdale	r2, {r0}^
    2818:	e3000002 	movw	r0, #2
    281c:	05000002 	streq	r0, [r0, #-2]
    2820:	aa2c0300 	bge	b03428 <__bss_end__+0xaf85c0>
	...
    282c:	00040000 	andeq	r0, r4, r0
    2830:	0000024c 	andeq	r0, r0, ip, asr #4
    2834:	00000250 	andeq	r0, r0, r0, asr r2
    2838:	00510001 	subseq	r0, r1, r1
    283c:	00000000 	andeq	r0, r0, r0
    2840:	03000000 	movweq	r0, #0
    2844:	00026400 	andeq	r6, r2, r0, lsl #8
    2848:	00026800 	andeq	r6, r2, r0, lsl #16
    284c:	51000100 	mrspl	r0, (UNDEF: 16)
	...
    2858:	02640003 	rsbeq	r0, r4, #3, 0
    285c:	02680000 	rsbeq	r0, r8, #0, 0
    2860:	00010000 	andeq	r0, r1, r0
    2864:	00000053 	andeq	r0, r0, r3, asr r0
	...
    2874:	0001bc00 	andeq	fp, r1, r0, lsl #24
    2878:	0001d300 	andeq	sp, r1, r0, lsl #6
    287c:	50000100 	andpl	r0, r0, r0, lsl #2
    2880:	000001d3 	ldrdeq	r0, [r0], -r3
    2884:	000001f0 	strdeq	r0, [r0], -r0	; <UNPREDICTABLE>
    2888:	f0540001 			; <UNDEFINED> instruction: 0xf0540001
    288c:	08000001 	stmdaeq	r0, {r0}
    2890:	01000002 	tsteq	r0, r2
    2894:	02085000 	andeq	r5, r8, #0, 0
    2898:	02200000 	eoreq	r0, r0, #0, 0
    289c:	00010000 	andeq	r0, r1, r0
    28a0:	00000054 	andeq	r0, r0, r4, asr r0
	...
    28ac:	0001d800 	andeq	sp, r1, r0, lsl #16
    28b0:	0001e300 	andeq	lr, r1, r0, lsl #6
    28b4:	50000100 	andpl	r0, r0, r0, lsl #2
    28b8:	000001e3 	andeq	r0, r0, r3, ror #3
    28bc:	000001f0 	strdeq	r0, [r0], -r0	; <UNPREDICTABLE>
    28c0:	00550001 	subseq	r0, r5, r1
	...
    28d8:	24000000 	strcs	r0, [r0], #-0
    28dc:	38000001 	stmdacc	r0, {r0}
    28e0:	01000001 	tsteq	r0, r1
    28e4:	01385000 	teqeq	r8, r0
    28e8:	013c0000 	teqeq	ip, r0
    28ec:	00030000 	andeq	r0, r3, r0
    28f0:	3c9f7970 			; <UNDEFINED> instruction: 0x3c9f7970
    28f4:	60000001 	andvs	r0, r0, r1
    28f8:	01000001 	tsteq	r0, r1
    28fc:	01605300 	cmneq	r0, r0, lsl #6
    2900:	01780000 	cmneq	r8, r0
    2904:	00010000 	andeq	r0, r1, r0
    2908:	00017850 	andeq	r7, r1, r0, asr r8
    290c:	00018000 	andeq	r8, r1, r0
    2910:	f3000400 	vshl.u8	d0, d0, d0
    2914:	809f5001 	addshi	r5, pc, r1
    2918:	90000001 	andls	r0, r0, r1
    291c:	01000001 	tsteq	r0, r1
    2920:	01905300 	orrseq	r5, r0, r0, lsl #6
    2924:	019f0000 	orrseq	r0, pc, r0
    2928:	00020000 	andeq	r0, r2, r0
    292c:	019f6891 			; <UNDEFINED> instruction: 0x019f6891
    2930:	01bc0000 			; <UNDEFINED> instruction: 0x01bc0000
    2934:	00090000 	andeq	r0, r9, r0
    2938:	235001f3 	cmpcs	r0, #-1073741764	; 0xc000003c
    293c:	1af80907 	bne	ffe04d60 <__bss_end__+0xffdf9ef8>
    2940:	0000009f 	muleq	r0, pc, r0	; <UNPREDICTABLE>
	...
    294c:	00014400 	andeq	r4, r1, r0, lsl #8
    2950:	00016000 	andeq	r6, r1, r0
    2954:	50000100 	andpl	r0, r0, r0, lsl #2
    2958:	00000180 	andeq	r0, r0, r0, lsl #3
    295c:	0000019c 	muleq	r0, ip, r1
    2960:	00500001 	subseq	r0, r0, r1
    2964:	00000000 	andeq	r0, r0, r0
    2968:	03000000 	movweq	r0, #0
    296c:	00013400 	andeq	r3, r1, r0, lsl #8
    2970:	00013c00 	andeq	r3, r1, r0, lsl #24
    2974:	38000200 	stmdacc	r0, {r9}
    2978:	0000009f 	muleq	r0, pc, r0	; <UNPREDICTABLE>
    297c:	00000000 	andeq	r0, r0, r0
    2980:	00000300 	andeq	r0, r0, r0, lsl #6
    2984:	00013400 	andeq	r3, r1, r0, lsl #8
    2988:	00013800 	andeq	r3, r1, r0, lsl #16
    298c:	50000100 	andpl	r0, r0, r0, lsl #2
    2990:	00000138 	andeq	r0, r0, r8, lsr r1
    2994:	0000013c 	andeq	r0, r0, ip, lsr r1
    2998:	79700003 	ldmdbvc	r0!, {r0, r1}^
    299c:	0000009f 	muleq	r0, pc, r0	; <UNPREDICTABLE>
	...
    29b0:	30000000 	andcc	r0, r0, r0
    29b4:	60000000 	andvs	r0, r0, r0
    29b8:	01000000 	mrseq	r0, (UNDEF: 0)
    29bc:	00605000 	rsbeq	r5, r0, r0
    29c0:	006c0000 	rsbeq	r0, ip, r0
    29c4:	00050000 	andeq	r0, r5, r0
    29c8:	00aa2c03 	adceq	r2, sl, r3, lsl #24
    29cc:	00006c00 	andeq	r6, r0, r0, lsl #24
    29d0:	00008400 	andeq	r8, r0, r0, lsl #8
    29d4:	50000100 	andpl	r0, r0, r0, lsl #2
    29d8:	00000084 	andeq	r0, r0, r4, lsl #1
    29dc:	0000008c 	andeq	r0, r0, ip, lsl #1
    29e0:	01f30004 	mvnseq	r0, r4
    29e4:	008c9f50 	addeq	r9, ip, r0, asr pc
    29e8:	00ac0000 	adceq	r0, ip, r0
    29ec:	00010000 	andeq	r0, r1, r0
    29f0:	0000ac50 	andeq	sl, r0, r0, asr ip
    29f4:	0000af00 	andeq	sl, r0, r0, lsl #30
    29f8:	91000200 	mrsls	r0, R8_usr
    29fc:	0000af68 	andeq	sl, r0, r8, ror #30
    2a00:	0000cc00 	andeq	ip, r0, r0, lsl #24
    2a04:	f3000400 	vshl.u8	d0, d0, d0
    2a08:	009f5001 	addseq	r5, pc, r1
	...
    2a18:	30000000 	andcc	r0, r0, r0
    2a1c:	80000000 	andhi	r0, r0, r0
    2a20:	01000000 	mrseq	r0, (UNDEF: 0)
    2a24:	00805100 	addeq	r5, r0, r0, lsl #2
    2a28:	008c0000 	addeq	r0, ip, r0
    2a2c:	00040000 	andeq	r0, r4, r0
    2a30:	9f5101f3 	svcls	0x005101f3
    2a34:	0000008c 	andeq	r0, r0, ip, lsl #1
    2a38:	000000a8 	andeq	r0, r0, r8, lsr #1
    2a3c:	a8510001 	ldmdage	r1, {r0}^
    2a40:	cc000000 	stcgt	0, cr0, [r0], {-0}
    2a44:	04000000 	streq	r0, [r0], #-0
    2a48:	5101f300 	mrspl	pc, SP_irq	; <UNPREDICTABLE>
    2a4c:	0000009f 	muleq	r0, pc, r0	; <UNPREDICTABLE>
    2a50:	00000000 	andeq	r0, r0, r0
    2a54:	00000100 	andeq	r0, r0, r0, lsl #2
	...
    2a60:	38000000 	stmdacc	r0, {}	; <UNPREDICTABLE>
    2a64:	60000000 	andvs	r0, r0, r0
    2a68:	01000000 	mrseq	r0, (UNDEF: 0)
    2a6c:	00605000 	rsbeq	r5, r0, r0
    2a70:	006c0000 	rsbeq	r0, ip, r0
    2a74:	00050000 	andeq	r0, r5, r0
    2a78:	00aa2c03 	adceq	r2, sl, r3, lsl #24
    2a7c:	00006c00 	andeq	r6, r0, r0, lsl #24
    2a80:	00008400 	andeq	r8, r0, r0, lsl #8
    2a84:	50000100 	andpl	r0, r0, r0, lsl #2
    2a88:	00000084 	andeq	r0, r0, r4, lsl #1
    2a8c:	0000008c 	andeq	r0, r0, ip, lsl #1
    2a90:	01f30004 	mvnseq	r0, r4
    2a94:	008c9f50 	addeq	r9, ip, r0, asr pc
    2a98:	00ac0000 	adceq	r0, ip, r0
    2a9c:	00010000 	andeq	r0, r1, r0
    2aa0:	0000ac50 	andeq	sl, r0, r0, asr ip
    2aa4:	0000af00 	andeq	sl, r0, r0, lsl #30
    2aa8:	91000200 	mrsls	r0, R8_usr
    2aac:	0000af68 	andeq	sl, r0, r8, ror #30
    2ab0:	0000cc00 	andeq	ip, r0, r0, lsl #24
    2ab4:	f3000400 	vshl.u8	d0, d0, d0
    2ab8:	009f5001 	addseq	r5, pc, r1
	...
    2ac8:	00017000 	andeq	r7, r1, r0
    2acc:	00017c00 	andeq	r7, r1, r0, lsl #24
    2ad0:	50000100 	andpl	r0, r0, r0, lsl #2
    2ad4:	0000017c 	andeq	r0, r0, ip, ror r1
    2ad8:	00000188 	andeq	r0, r0, r8, lsl #3
    2adc:	88540001 	ldmdahi	r4, {r0}^
    2ae0:	98000001 	stmdals	r0, {r0}
    2ae4:	04000001 	streq	r0, [r0], #-1
    2ae8:	5001f300 	andpl	pc, r1, r0, lsl #6
    2aec:	0000009f 	muleq	r0, pc, r0	; <UNPREDICTABLE>
	...
    2afc:	78000000 	stmdavc	r0, {}	; <UNPREDICTABLE>
    2b00:	7c000001 	stcvc	0, cr0, [r0], {1}
    2b04:	0b000001 	bleq	2b10 <__code_start__-0x54f0>
    2b08:	35007000 	strcc	r7, [r0, #-0]
    2b0c:	80b42325 	adcshi	r2, r4, r5, lsr #6
    2b10:	9f028180 	svcls	0x00028180
    2b14:	0000017c 	andeq	r0, r0, ip, ror r1
    2b18:	00000180 	andeq	r0, r0, r0, lsl #3
    2b1c:	0074000b 	rsbseq	r0, r4, fp
    2b20:	b4232535 	strtlt	r2, [r3], #-1333	; 0xfffffacb
    2b24:	02818080 	addeq	r8, r1, #128, 0	; 0x80
    2b28:	0001809f 	muleq	r1, pc, r0	; <UNPREDICTABLE>
    2b2c:	00018300 	andeq	r8, r1, r0, lsl #6
    2b30:	50000100 	andpl	r0, r0, r0, lsl #2
    2b34:	00000183 	andeq	r0, r0, r3, lsl #3
    2b38:	00000188 	andeq	r0, r0, r8, lsl #3
    2b3c:	0074000b 	rsbseq	r0, r4, fp
    2b40:	b4232535 	strtlt	r2, [r3], #-1333	; 0xfffffacb
    2b44:	02818080 	addeq	r8, r1, #128, 0	; 0x80
    2b48:	0001889f 	muleq	r1, pc, r8	; <UNPREDICTABLE>
    2b4c:	00019800 	andeq	r9, r1, r0, lsl #16
    2b50:	f3000c00 			; <UNDEFINED> instruction: 0xf3000c00
    2b54:	25355001 	ldrcs	r5, [r5, #-1]!
    2b58:	8080b423 	addhi	fp, r0, r3, lsr #8
    2b5c:	009f0281 	addseq	r0, pc, r1, lsl #5
    2b60:	00000000 	andeq	r0, r0, r0
    2b64:	01000000 	mrseq	r0, (UNDEF: 0)
    2b68:	00000000 	andeq	r0, r0, r0
    2b6c:	00017800 	andeq	r7, r1, r0, lsl #16
    2b70:	00017c00 	andeq	r7, r1, r0, lsl #24
    2b74:	70000500 	andvc	r0, r0, r0, lsl #10
    2b78:	9f1a4f00 	svcls	0x001a4f00
    2b7c:	0000017c 	andeq	r0, r0, ip, ror r1
    2b80:	00000188 	andeq	r0, r0, r8, lsl #3
    2b84:	00740005 	rsbseq	r0, r4, r5
    2b88:	889f1a4f 	ldmhi	pc, {r0, r1, r2, r3, r6, r9, fp, ip}	; <UNPREDICTABLE>
    2b8c:	98000001 	stmdals	r0, {r0}
    2b90:	01000001 	tsteq	r0, r1
    2b94:	00005400 	andeq	r5, r0, r0, lsl #8
	...
    2ba8:	01400000 	mrseq	r0, (UNDEF: 64)
    2bac:	01540000 	cmpeq	r4, r0
    2bb0:	00010000 	andeq	r0, r1, r0
    2bb4:	00015450 	andeq	r5, r1, r0, asr r4
    2bb8:	00015800 	andeq	r5, r1, r0, lsl #16
    2bbc:	51000100 	mrspl	r0, (UNDEF: 16)
    2bc0:	00000158 	andeq	r0, r0, r8, asr r1
    2bc4:	0000015c 	andeq	r0, r0, ip, asr r1
    2bc8:	01f30004 	mvnseq	r0, r4
    2bcc:	015c9f50 	cmpeq	ip, r0, asr pc
    2bd0:	01600000 	cmneq	r0, r0
    2bd4:	00010000 	andeq	r0, r1, r0
    2bd8:	00016050 	andeq	r6, r1, r0, asr r0
    2bdc:	00016400 	andeq	r6, r1, r0, lsl #8
    2be0:	51000100 	mrspl	r0, (UNDEF: 16)
    2be4:	00000164 	andeq	r0, r0, r4, ror #2
    2be8:	00000170 	andeq	r0, r0, r0, ror r1
    2bec:	01f30004 	mvnseq	r0, r4
    2bf0:	00009f50 	andeq	r9, r0, r0, asr pc
	...
    2bfc:	01400000 	mrseq	r0, (UNDEF: 64)
    2c00:	014c0000 	mrseq	r0, (UNDEF: 76)
    2c04:	00010000 	andeq	r0, r1, r0
    2c08:	00014c51 	andeq	r4, r1, r1, asr ip
    2c0c:	00017000 	andeq	r7, r1, r0
    2c10:	f3000400 	vshl.u8	d0, d0, d0
    2c14:	009f5101 	addseq	r5, pc, r1, lsl #2
    2c18:	00000000 	andeq	r0, r0, r0
    2c1c:	01000000 	mrseq	r0, (UNDEF: 0)
    2c20:	00000000 	andeq	r0, r0, r0
    2c24:	00015000 	andeq	r5, r1, r0
    2c28:	00015400 	andeq	r5, r1, r0, lsl #8
    2c2c:	50000100 	andpl	r0, r0, r0, lsl #2
    2c30:	00000154 	andeq	r0, r0, r4, asr r1
    2c34:	00000158 	andeq	r0, r0, r8, asr r1
    2c38:	58510001 	ldmdapl	r1, {r0}^
    2c3c:	5c000001 	stcpl	0, cr0, [r0], {1}
    2c40:	04000001 	streq	r0, [r0], #-1
    2c44:	5001f300 	andpl	pc, r1, r0, lsl #6
    2c48:	0000009f 	muleq	r0, pc, r0	; <UNPREDICTABLE>
    2c4c:	00000000 	andeq	r0, r0, r0
    2c50:	00000200 	andeq	r0, r0, r0, lsl #4
    2c54:	5c000000 	stcpl	0, cr0, [r0], {-0}
    2c58:	60000001 	andvs	r0, r0, r1
    2c5c:	01000001 	tsteq	r0, r1
    2c60:	01605000 	cmneq	r0, r0
    2c64:	01640000 	cmneq	r4, r0
    2c68:	00010000 	andeq	r0, r1, r0
    2c6c:	00016451 	andeq	r6, r1, r1, asr r4
    2c70:	00017000 	andeq	r7, r1, r0
    2c74:	f3000400 	vshl.u8	d0, d0, d0
    2c78:	009f5001 	addseq	r5, pc, r1
	...
    2c88:	0000e800 	andeq	lr, r0, r0, lsl #16
    2c8c:	00010800 	andeq	r0, r1, r0, lsl #16
    2c90:	50000100 	andpl	r0, r0, r0, lsl #2
    2c94:	00000108 	andeq	r0, r0, r8, lsl #2
    2c98:	00000128 	andeq	r0, r0, r8, lsr #2
    2c9c:	28540001 	ldmdacs	r4, {r0}^
    2ca0:	40000001 	andmi	r0, r0, r1
    2ca4:	04000001 	streq	r0, [r0], #-1
    2ca8:	5001f300 	andpl	pc, r1, r0, lsl #6
    2cac:	0000009f 	muleq	r0, pc, r0	; <UNPREDICTABLE>
    2cb0:	00000000 	andeq	r0, r0, r0
    2cb4:	00000200 	andeq	r0, r0, r0, lsl #4
    2cb8:	e8000000 	stmda	r0, {}	; <UNPREDICTABLE>
    2cbc:	08000000 	stmdaeq	r0, {}	; <UNPREDICTABLE>
    2cc0:	01000001 	tsteq	r0, r1
    2cc4:	01085000 	mrseq	r5, (UNDEF: 8)
    2cc8:	01280000 			; <UNDEFINED> instruction: 0x01280000
    2ccc:	00010000 	andeq	r0, r1, r0
    2cd0:	00012854 	andeq	r2, r1, r4, asr r8
    2cd4:	00014000 	andeq	r4, r1, r0
    2cd8:	f3000400 	vshl.u8	d0, d0, d0
    2cdc:	009f5001 	addseq	r5, pc, r1
	...
    2cec:	0000f000 	andeq	pc, r0, r0
    2cf0:	00010800 	andeq	r0, r1, r0, lsl #16
    2cf4:	50000100 	andpl	r0, r0, r0, lsl #2
    2cf8:	00000108 	andeq	r0, r0, r8, lsl #2
    2cfc:	00000128 	andeq	r0, r0, r8, lsr #2
    2d00:	28540001 	ldmdacs	r4, {r0}^
    2d04:	40000001 	andmi	r0, r0, r1
    2d08:	04000001 	streq	r0, [r0], #-1
    2d0c:	5001f300 	andpl	pc, r1, r0, lsl #6
    2d10:	0000009f 	muleq	r0, pc, r0	; <UNPREDICTABLE>
    2d14:	00000000 	andeq	r0, r0, r0
    2d18:	00000300 	andeq	r0, r0, r0, lsl #6
    2d1c:	f0000000 			; <UNDEFINED> instruction: 0xf0000000
    2d20:	08000000 	stmdaeq	r0, {}	; <UNPREDICTABLE>
    2d24:	07000001 	streq	r0, [r0, -r1]
    2d28:	3a007000 	bcc	1ed30 <__bss_end__+0x13ec8>
    2d2c:	9f1e331d 	svcls	0x001e331d
    2d30:	00000108 	andeq	r0, r0, r8, lsl #2
    2d34:	00000128 	andeq	r0, r0, r8, lsr #2
    2d38:	00740007 	rsbseq	r0, r4, r7
    2d3c:	1e331d3a 	mrcne	13, 1, r1, cr3, cr10, {1}
    2d40:	0001289f 	muleq	r1, pc, r8	; <UNPREDICTABLE>
    2d44:	00014000 	andeq	r4, r1, r0
    2d48:	f3000800 	vsub.i8	d0, d0, d0
    2d4c:	1d3a5001 	ldcne	0, cr5, [sl, #-4]!
    2d50:	009f1e33 	addseq	r1, pc, r3, lsr lr	; <UNPREDICTABLE>
	...
    2d60:	00011000 	andeq	r1, r1, r0
    2d64:	00013800 	andeq	r3, r1, r0, lsl #16
    2d68:	56000100 	strpl	r0, [r0], -r0, lsl #2
    2d6c:	00000138 	andeq	r0, r0, r8, lsr r1
    2d70:	0000013b 	andeq	r0, r0, fp, lsr r1
    2d74:	3b500001 	blcc	1402d80 <__bss_end__+0x13f7f18>
    2d78:	40000001 	andmi	r0, r0, r1
    2d7c:	26000001 	strcs	r0, [r0], -r1
    2d80:	5001f300 	andpl	pc, r1, r0, lsl #6
    2d84:	25f72cf7 	ldrbcs	r2, [r7, #3319]!	; 0xcf7
    2d88:	cd0825f4 	cfstr32gt	mvfx2, [r8, #-976]	; 0xfffffc30
    2d8c:	00cccccc 	sbceq	ip, ip, ip, asr #25
    2d90:	1e000000 	cdpne	0, 0, cr0, cr0, cr0, {0}
    2d94:	25f72008 	ldrbcs	r2, [r7, #8]!
    2d98:	f72cf725 			; <UNDEFINED> instruction: 0xf72cf725
    2d9c:	23253300 			; <UNDEFINED> instruction: 0x23253300
    2da0:	40a08080 	adcmi	r8, r0, r0, lsl #1
    2da4:	009f2432 	addseq	r2, pc, r2, lsr r4	; <UNPREDICTABLE>
	...
    2db0:	00000101 	andeq	r0, r0, r1, lsl #2
    2db4:	20000000 	andcs	r0, r0, r0
    2db8:	20000001 	andcs	r0, r0, r1
    2dbc:	01000001 	tsteq	r0, r1
    2dc0:	01205000 			; <UNDEFINED> instruction: 0x01205000
    2dc4:	01280000 			; <UNDEFINED> instruction: 0x01280000
    2dc8:	000d0000 	andeq	r0, sp, r0
    2dcc:	3a007437 	bcc	1feb0 <__bss_end__+0x15048>
    2dd0:	241e331d 	ldrcs	r3, [lr], #-797	; 0xfffffce3
    2dd4:	1a007020 	bne	1ee5c <__bss_end__+0x13ff4>
    2dd8:	0001289f 	muleq	r1, pc, r8	; <UNPREDICTABLE>
    2ddc:	00013000 	andeq	r3, r1, r0
    2de0:	37000e00 	strcc	r0, [r0, -r0, lsl #28]
    2de4:	3a5001f3 	bcc	14035b8 <__bss_end__+0x13f8750>
    2de8:	241e331d 	ldrcs	r3, [lr], #-797	; 0xfffffce3
    2dec:	1a007020 	bne	1ee74 <__bss_end__+0x1400c>
    2df0:	0001309f 	muleq	r1, pc, r0	; <UNPREDICTABLE>
    2df4:	00013b00 	andeq	r3, r1, r0, lsl #22
    2df8:	37000e00 	strcc	r0, [r0, -r0, lsl #28]
    2dfc:	3a5001f3 	bcc	14035d0 <__bss_end__+0x13f8768>
    2e00:	241e331d 	ldrcs	r3, [lr], #-797	; 0xfffffce3
    2e04:	1a007320 	bne	1fa8c <__bss_end__+0x14c24>
    2e08:	0000009f 	muleq	r0, pc, r0	; <UNPREDICTABLE>
	...
    2e14:	00006000 	andeq	r6, r0, r0
    2e18:	00009000 	andeq	r9, r0, r0
    2e1c:	50000100 	andpl	r0, r0, r0, lsl #2
    2e20:	00000090 	muleq	r0, r0, r0
    2e24:	000000b8 	strheq	r0, [r0], -r8
    2e28:	01f30004 	mvnseq	r0, r4
    2e2c:	00009f50 	andeq	r9, r0, r0, asr pc
    2e30:	00000000 	andeq	r0, r0, r0
    2e34:	00020000 	andeq	r0, r2, r0
    2e38:	00600000 	rsbeq	r0, r0, r0
    2e3c:	00900000 	addseq	r0, r0, r0
    2e40:	00010000 	andeq	r0, r1, r0
    2e44:	00009050 	andeq	r9, r0, r0, asr r0
    2e48:	0000b800 	andeq	fp, r0, r0, lsl #16
    2e4c:	f3000400 	vshl.u8	d0, d0, d0
    2e50:	009f5001 	addseq	r5, pc, r1
	...
    2e5c:	68000000 	stmdavs	r0, {}	; <UNPREDICTABLE>
    2e60:	90000000 	andls	r0, r0, r0
    2e64:	01000000 	mrseq	r0, (UNDEF: 0)
    2e68:	00905000 	addseq	r5, r0, r0
    2e6c:	00b80000 	adcseq	r0, r8, r0
    2e70:	00040000 	andeq	r0, r4, r0
    2e74:	9f5001f3 	svcls	0x005001f3
	...
    2e84:	000000a0 	andeq	r0, r0, r0, lsr #1
    2e88:	000000b0 	strheq	r0, [r0], -r0	; <UNPREDICTABLE>
    2e8c:	b0540001 	subslt	r0, r4, r1
    2e90:	b8000000 	stmdalt	r0, {}	; <UNPREDICTABLE>
    2e94:	29000000 	stmdbcs	r0, {}	; <UNPREDICTABLE>
    2e98:	5001f300 	andpl	pc, r1, r0, lsl #6
    2e9c:	f75001f3 			; <UNDEFINED> instruction: 0xf75001f3
    2ea0:	f425f72c 	vld1.8	{d15}, [r5 :128], ip
    2ea4:	cccd0825 	stclgt	8, cr0, [sp], {37}	; 0x25
    2ea8:	0000cccc 	andeq	ip, r0, ip, asr #25
    2eac:	081e0000 	ldmdaeq	lr, {}	; <UNPREDICTABLE>
    2eb0:	2525f720 	strcs	pc, [r5, #-1824]!	; 0xfffff8e0
    2eb4:	00f72cf7 	ldrshteq	r2, [r7], #199	; 0xc7
    2eb8:	1e352533 	mrcne	5, 1, r2, cr5, cr3, {1}
    2ebc:	331c2431 	tstcc	ip, #822083584	; 0x31000000
    2ec0:	00009f1e 	andeq	r9, r0, lr, lsl pc
    2ec4:	00000000 	andeq	r0, r0, r0
    2ec8:	00010000 	andeq	r0, r1, r0
    2ecc:	00000000 	andeq	r0, r0, r0
    2ed0:	000000a0 	andeq	r0, r0, r0, lsr #1
    2ed4:	000000b0 	strheq	r0, [r0], -r0	; <UNPREDICTABLE>
    2ed8:	b0550001 	subslt	r0, r5, r1
    2edc:	b3000000 	movwlt	r0, #0
    2ee0:	01000000 	mrseq	r0, (UNDEF: 0)
    2ee4:	00b35000 	adcseq	r5, r3, r0
    2ee8:	00b80000 	adcseq	r0, r8, r0
    2eec:	00260000 	eoreq	r0, r6, r0
    2ef0:	f75001f3 			; <UNDEFINED> instruction: 0xf75001f3
    2ef4:	f425f72c 	vld1.8	{d15}, [r5 :128], ip
    2ef8:	cccd0825 	stclgt	8, cr0, [sp], {37}	; 0x25
    2efc:	0000cccc 	andeq	ip, r0, ip, asr #25
    2f00:	081e0000 	ldmdaeq	lr, {}	; <UNPREDICTABLE>
    2f04:	2525f720 	strcs	pc, [r5, #-1824]!	; 0xfffff8e0
    2f08:	00f72cf7 	ldrshteq	r2, [r7], #199	; 0xc7
    2f0c:	80232533 	eorhi	r2, r3, r3, lsr r5
    2f10:	3240a080 	subcc	sl, r0, #128, 0	; 0x80
    2f14:	00009f24 	andeq	r9, r0, r4, lsr #30
    2f18:	00000000 	andeq	r0, r0, r0
    2f1c:	00020000 	andeq	r0, r2, r0
    2f20:	00010100 	andeq	r0, r1, r0, lsl #2
    2f24:	00a00000 	adceq	r0, r0, r0
    2f28:	00a40000 	adceq	r0, r4, r0
    2f2c:	00010000 	andeq	r0, r1, r0
    2f30:	0000a450 	andeq	sl, r0, r0, asr r4
    2f34:	0000a400 	andeq	sl, r0, r0, lsl #8
    2f38:	53000100 	movwpl	r0, #256	; 0x100
    2f3c:	000000a4 	andeq	r0, r0, r4, lsr #1
    2f40:	000000a8 	andeq	r0, r0, r8, lsr #1
    2f44:	74310008 	ldrtvc	r0, [r1], #-8
    2f48:	00732400 	rsbseq	r2, r3, r0, lsl #8
    2f4c:	00a89f21 	adceq	r9, r8, r1, lsr #30
    2f50:	00b30000 	adcseq	r0, r3, r0
    2f54:	00010000 	andeq	r0, r1, r0
    2f58:	00000051 	andeq	r0, r0, r1, asr r0
	...
    2f68:	00003c00 	andeq	r3, r0, r0, lsl #24
    2f6c:	50000100 	andpl	r0, r0, r0, lsl #2
    2f70:	0000003c 	andeq	r0, r0, ip, lsr r0
    2f74:	00000060 	andeq	r0, r0, r0, rrx
    2f78:	01f30004 	mvnseq	r0, r4
    2f7c:	00009f50 	andeq	r9, r0, r0, asr pc
	...
    2f8c:	003f0000 	eorseq	r0, pc, r0
    2f90:	00010000 	andeq	r0, r1, r0
    2f94:	00003f51 	andeq	r3, r0, r1, asr pc
    2f98:	00006000 	andeq	r6, r0, r0
    2f9c:	f3000400 	vshl.u8	d0, d0, d0
    2fa0:	009f5101 	addseq	r5, pc, r1, lsl #2
	...
    2fac:	08000000 	stmdaeq	r0, {}	; <UNPREDICTABLE>
    2fb0:	3f000000 	svccc	0x00000000
    2fb4:	01000000 	mrseq	r0, (UNDEF: 0)
    2fb8:	003f5100 	eorseq	r5, pc, r0, lsl #2
    2fbc:	00600000 	rsbeq	r0, r0, r0
    2fc0:	00040000 	andeq	r0, r4, r0
    2fc4:	9f5101f3 	svcls	0x005101f3
	...
    2fd4:	00000008 	andeq	r0, r0, r8
    2fd8:	0000003c 	andeq	r0, r0, ip, lsr r0
    2fdc:	3c500001 	mrrccc	0, 0, r0, r0, cr1	; <UNPREDICTABLE>
    2fe0:	60000000 	andvs	r0, r0, r0
    2fe4:	04000000 	streq	r0, [r0], #-0
    2fe8:	5001f300 	andpl	pc, r1, r0, lsl #6
    2fec:	0000009f 	muleq	r0, pc, r0	; <UNPREDICTABLE>
	...
    2ff8:	00004800 	andeq	r4, r0, r0, lsl #16
    2ffc:	00005800 	andeq	r5, r0, r0, lsl #16
    3000:	54000100 	strpl	r0, [r0], #-256	; 0xffffff00
    3004:	00000058 	andeq	r0, r0, r8, asr r0
    3008:	00000060 	andeq	r0, r0, r0, rrx
    300c:	01f30029 	mvnseq	r0, r9, lsr #32
    3010:	5001f350 	andpl	pc, r1, r0, asr r3	; <UNPREDICTABLE>
    3014:	25f72cf7 	ldrbcs	r2, [r7, #3319]!	; 0xcf7
    3018:	cd0825f4 	cfstr32gt	mvfx2, [r8, #-976]	; 0xfffffc30
    301c:	00cccccc 	sbceq	ip, ip, ip, asr #25
    3020:	1e000000 	cdpne	0, 0, cr0, cr0, cr0, {0}
    3024:	25f72008 	ldrbcs	r2, [r7, #8]!
    3028:	f72cf725 			; <UNDEFINED> instruction: 0xf72cf725
    302c:	35253300 	strcc	r3, [r5, #-768]!	; 0xfffffd00
    3030:	1c24311e 	stfnes	f3, [r4], #-120	; 0xffffff88
    3034:	009f1e33 	addseq	r1, pc, r3, lsr lr	; <UNPREDICTABLE>
    3038:	00000000 	andeq	r0, r0, r0
    303c:	01000000 	mrseq	r0, (UNDEF: 0)
    3040:	00000000 	andeq	r0, r0, r0
    3044:	00004800 	andeq	r4, r0, r0, lsl #16
    3048:	00005800 	andeq	r5, r0, r0, lsl #16
    304c:	56000100 	strpl	r0, [r0], -r0, lsl #2
    3050:	00000058 	andeq	r0, r0, r8, asr r0
    3054:	0000005b 	andeq	r0, r0, fp, asr r0
    3058:	5b500001 	blpl	1403064 <__bss_end__+0x13f81fc>
    305c:	60000000 	andvs	r0, r0, r0
    3060:	26000000 	strcs	r0, [r0], -r0
    3064:	5001f300 	andpl	pc, r1, r0, lsl #6
    3068:	25f72cf7 	ldrbcs	r2, [r7, #3319]!	; 0xcf7
    306c:	cd0825f4 	cfstr32gt	mvfx2, [r8, #-976]	; 0xfffffc30
    3070:	00cccccc 	sbceq	ip, ip, ip, asr #25
    3074:	1e000000 	cdpne	0, 0, cr0, cr0, cr0, {0}
    3078:	25f72008 	ldrbcs	r2, [r7, #8]!
    307c:	f72cf725 			; <UNDEFINED> instruction: 0xf72cf725
    3080:	23253300 			; <UNDEFINED> instruction: 0x23253300
    3084:	40a08080 	adcmi	r8, r0, r0, lsl #1
    3088:	009f2432 	addseq	r2, pc, r2, lsr r4	; <UNPREDICTABLE>
    308c:	00000000 	andeq	r0, r0, r0
    3090:	02000000 	andeq	r0, r0, #0, 0
    3094:	01010000 	mrseq	r0, (UNDEF: 1)
    3098:	48000000 	stmdami	r0, {}	; <UNPREDICTABLE>
    309c:	4c000000 	stcmi	0, cr0, [r0], {-0}
    30a0:	01000000 	mrseq	r0, (UNDEF: 0)
    30a4:	004c5000 	subeq	r5, ip, r0
    30a8:	004c0000 	subeq	r0, ip, r0
    30ac:	00010000 	andeq	r0, r1, r0
    30b0:	00004c51 	andeq	r4, r0, r1, asr ip
    30b4:	00005000 	andeq	r5, r0, r0
    30b8:	75000c00 	strvc	r0, [r0, #-3072]	; 0xfffff400
    30bc:	1aff0800 	bne	fffc50c4 <__bss_end__+0xfffba25c>
    30c0:	71240074 			; <UNDEFINED> instruction: 0x71240074
    30c4:	509f2100 	addspl	r2, pc, r0, lsl #2
    30c8:	54000000 	strpl	r0, [r0], #-0
    30cc:	12000000 	andne	r0, r0, #0, 0
    30d0:	00743700 	rsbseq	r3, r4, r0, lsl #14
    30d4:	00702024 	rsbseq	r2, r0, r4, lsr #32
    30d8:	0800751a 	stmdaeq	r0, {r1, r3, r4, r8, sl, ip, sp, lr}
    30dc:	00741aff 	ldrshteq	r1, [r4], #-175	; 0xffffff51
    30e0:	009f2124 	addseq	r2, pc, r4, lsr #2
	...
    30f0:	0000b800 	andeq	fp, r0, r0, lsl #16
    30f4:	0000c400 	andeq	ip, r0, r0, lsl #8
    30f8:	50000100 	andpl	r0, r0, r0, lsl #2
    30fc:	000000c4 	andeq	r0, r0, r4, asr #1
    3100:	000000cb 	andeq	r0, r0, fp, asr #1
    3104:	cb530001 	blgt	14c3110 <__bss_end__+0x14b82a8>
    3108:	d0000000 	andle	r0, r0, r0
    310c:	04000000 	streq	r0, [r0], #-0
    3110:	5001f300 	andpl	pc, r1, r0, lsl #6
    3114:	0000009f 	muleq	r0, pc, r0	; <UNPREDICTABLE>
	...
    3120:	d0000000 	andle	r0, r0, r0
    3124:	dc000000 	stcle	0, cr0, [r0], {-0}
    3128:	01000000 	mrseq	r0, (UNDEF: 0)
    312c:	00dc5000 	sbcseq	r5, ip, r0
    3130:	00e30000 	rsceq	r0, r3, r0
    3134:	00010000 	andeq	r0, r1, r0
    3138:	0000e353 	andeq	lr, r0, r3, asr r3
    313c:	0000e800 	andeq	lr, r0, r0, lsl #16
    3140:	f3000400 	vshl.u8	d0, d0, d0
    3144:	009f5001 	addseq	r5, pc, r1
	...
    3154:	0b000000 	bleq	315c <__code_start__-0x4ea4>
    3158:	01000000 	mrseq	r0, (UNDEF: 0)
    315c:	000b5000 	andeq	r5, fp, r0
    3160:	00140000 	andseq	r0, r4, r0
    3164:	00010000 	andeq	r0, r1, r0
    3168:	00000054 	andeq	r0, r0, r4, asr r0
	...
    3178:	00001800 	andeq	r1, r0, r0, lsl #16
    317c:	51000100 	mrspl	r0, (UNDEF: 16)
    3180:	00000018 	andeq	r0, r0, r8, lsl r0
    3184:	0000002c 	andeq	r0, r0, ip, lsr #32
    3188:	01f30004 	mvnseq	r0, r4
    318c:	00009f51 	andeq	r9, r0, r1, asr pc
    3190:	00000000 	andeq	r0, r0, r0
    3194:	00020000 	andeq	r0, r2, r0
    3198:	00000000 	andeq	r0, r0, r0
    319c:	01000000 	mrseq	r0, (UNDEF: 0)
    31a0:	00000001 	andeq	r0, r0, r1
    31a4:	00000000 	andeq	r0, r0, r0
    31a8:	00000004 	andeq	r0, r0, r4
    31ac:	04500001 	ldrbeq	r0, [r0], #-1
    31b0:	08000000 	stmdaeq	r0, {}	; <UNPREDICTABLE>
    31b4:	01000000 	mrseq	r0, (UNDEF: 0)
    31b8:	00085200 	andeq	r5, r8, r0, lsl #4
    31bc:	000c0000 	andeq	r0, ip, r0
    31c0:	00030000 	andeq	r0, r3, r0
    31c4:	0c9f0172 	ldfeqs	f0, [pc], {114}	; 0x72
    31c8:	18000000 	stmdane	r0, {}	; <UNPREDICTABLE>
    31cc:	01000000 	mrseq	r0, (UNDEF: 0)
    31d0:	00185200 	andseq	r5, r8, r0, lsl #4
    31d4:	001c0000 	andseq	r0, ip, r0
    31d8:	00010000 	andeq	r0, r1, r0
    31dc:	00001c53 	andeq	r1, r0, r3, asr ip
    31e0:	00002400 	andeq	r2, r0, r0, lsl #8
    31e4:	73000300 	movwvc	r0, #768	; 0x300
    31e8:	00249f01 	eoreq	r9, r4, r1, lsl #30
    31ec:	002c0000 	eoreq	r0, ip, r0
    31f0:	00010000 	andeq	r0, r1, r0
    31f4:	00000053 	andeq	r0, r0, r3, asr r0
    31f8:	00000000 	andeq	r0, r0, r0
    31fc:	02020300 	andeq	r0, r2, #0, 6
    3200:	00000000 	andeq	r0, r0, r0
    3204:	18000000 	stmdane	r0, {}	; <UNPREDICTABLE>
    3208:	01000000 	mrseq	r0, (UNDEF: 0)
    320c:	00185100 	andseq	r5, r8, r0, lsl #2
    3210:	001c0000 	andseq	r0, ip, r0
    3214:	00030000 	andeq	r0, r3, r0
    3218:	1c9f0171 	ldfnes	f0, [pc], {113}	; 0x71
    321c:	2c000000 	stccs	0, cr0, [r0], {-0}
    3220:	01000000 	mrseq	r0, (UNDEF: 0)
    3224:	00005100 	andeq	r5, r0, r0, lsl #2
	...
    3234:	00000008 	andeq	r0, r0, r8
    3238:	0000000c 	andeq	r0, r0, ip
    323c:	00720002 	rsbseq	r0, r2, r2
    3240:	0000000c 	andeq	r0, r0, ip
    3244:	00000018 	andeq	r0, r0, r8, lsl r0
    3248:	00730002 	rsbseq	r0, r3, r2
    324c:	0000001c 	andeq	r0, r0, ip, lsl r0
    3250:	0000002c 	andeq	r0, r0, ip, lsr #32
    3254:	00520001 	subseq	r0, r2, r1
	...
    326c:	14000000 	strne	r0, [r0], #-0
    3270:	01000000 	mrseq	r0, (UNDEF: 0)
    3274:	00145000 	andseq	r5, r4, r0
    3278:	00180000 	andseq	r0, r8, r0
    327c:	00030000 	andeq	r0, r3, r0
    3280:	189f0170 	ldmne	pc, {r4, r5, r6, r8}	; <UNPREDICTABLE>
    3284:	20000000 	andcs	r0, r0, r0
    3288:	01000000 	mrseq	r0, (UNDEF: 0)
    328c:	00245000 	eoreq	r5, r4, r0
    3290:	00280000 	eoreq	r0, r8, r0
    3294:	00010000 	andeq	r0, r1, r0
    3298:	00002850 	andeq	r2, r0, r0, asr r8
    329c:	00003000 	andeq	r3, r0, r0
    32a0:	70000300 	andvc	r0, r0, r0, lsl #6
    32a4:	00389f01 	eorseq	r9, r8, r1, lsl #30
    32a8:	00400000 	subeq	r0, r0, r0
    32ac:	00010000 	andeq	r0, r1, r0
    32b0:	00000050 	andeq	r0, r0, r0, asr r0
	...
    32c0:	24000000 	strcs	r0, [r0], #-0
    32c4:	01000000 	mrseq	r0, (UNDEF: 0)
    32c8:	00245100 	eoreq	r5, r4, r0, lsl #2
    32cc:	00280000 	eoreq	r0, r8, r0
    32d0:	00010000 	andeq	r0, r1, r0
    32d4:	0000285c 	andeq	r2, r0, ip, asr r8
    32d8:	00004400 	andeq	r4, r0, r0, lsl #8
    32dc:	51000100 	mrspl	r0, (UNDEF: 16)
	...
    32e8:	00020200 	andeq	r0, r2, r0, lsl #4
    32ec:	00000000 	andeq	r0, r0, r0
    32f0:	00040000 	andeq	r0, r4, r0
    32f4:	00010000 	andeq	r0, r1, r0
    32f8:	00000451 	andeq	r0, r0, r1, asr r4
    32fc:	00000800 	andeq	r0, r0, r0, lsl #16
    3300:	71000300 	mrsvc	r0, LR_irq
    3304:	00089f01 	andeq	r9, r8, r1, lsl #30
    3308:	00180000 	andseq	r0, r8, r0
    330c:	00010000 	andeq	r0, r1, r0
    3310:	00000051 	andeq	r0, r0, r1, asr r0
    3314:	00000000 	andeq	r0, r0, r0
    3318:	00000200 	andeq	r0, r0, r0, lsl #4
    331c:	04000000 	streq	r0, [r0], #-0
    3320:	01000000 	mrseq	r0, (UNDEF: 0)
    3324:	00005000 	andeq	r5, r0, r0
	...
    3334:	00080000 	andeq	r0, r8, r0
    3338:	00010000 	andeq	r0, r1, r0
    333c:	00000850 	andeq	r0, r0, r0, asr r8
    3340:	00003000 	andeq	r3, r0, r0
    3344:	f3000400 	vshl.u8	d0, d0, d0
    3348:	009f5001 	addseq	r5, pc, r1
	...
    3358:	08000000 	stmdaeq	r0, {}	; <UNPREDICTABLE>
    335c:	01000000 	mrseq	r0, (UNDEF: 0)
    3360:	00085100 	andeq	r5, r8, r0, lsl #2
    3364:	00300000 	eorseq	r0, r0, r0
    3368:	00040000 	andeq	r0, r4, r0
    336c:	9f5101f3 	svcls	0x005101f3
	...
    337c:	02010000 	andeq	r0, r1, #0, 0
    3380:	00000002 	andeq	r0, r0, r2
    3384:	00040000 	andeq	r0, r4, r0
    3388:	00010000 	andeq	r0, r1, r0
    338c:	00000452 	andeq	r0, r0, r2, asr r4
    3390:	00000800 	andeq	r0, r0, r0, lsl #16
    3394:	f3000400 	vshl.u8	d0, d0, d0
    3398:	089f5201 	ldmeq	pc, {r0, r9, ip, lr}	; <UNPREDICTABLE>
    339c:	18000000 	stmdane	r0, {}	; <UNPREDICTABLE>
    33a0:	06000000 	streq	r0, [r0], -r0
    33a4:	5201f300 	andpl	pc, r1, #0, 6
    33a8:	189f1c31 	ldmne	pc, {r0, r4, r5, sl, fp, ip}	; <UNPREDICTABLE>
    33ac:	18000000 	stmdane	r0, {}	; <UNPREDICTABLE>
    33b0:	04000000 	streq	r0, [r0], #-0
    33b4:	5201f300 	andpl	pc, r1, #0, 6
    33b8:	0000189f 	muleq	r0, pc, r8	; <UNPREDICTABLE>
    33bc:	00003000 	andeq	r3, r0, r0
    33c0:	f3000600 	vmax.u8	d0, d0, d0
    33c4:	1c315201 	lfmne	f5, 4, [r1], #-4
    33c8:	0000009f 	muleq	r0, pc, r0	; <UNPREDICTABLE>
    33cc:	00000000 	andeq	r0, r0, r0
    33d0:	00000200 	andeq	r0, r0, r0, lsl #4
    33d4:	00000100 	andeq	r0, r0, r0, lsl #2
    33d8:	00000000 	andeq	r0, r0, r0
    33dc:	00000c00 	andeq	r0, r0, r0, lsl #24
    33e0:	50000100 	andpl	r0, r0, r0, lsl #2
    33e4:	0000000c 	andeq	r0, r0, ip
    33e8:	00000018 	andeq	r0, r0, r8, lsl r0
    33ec:	7f700003 	svcvc	0x00700003
    33f0:	0000189f 	muleq	r0, pc, r8	; <UNPREDICTABLE>
    33f4:	00002400 	andeq	r2, r0, r0, lsl #8
    33f8:	50000100 	andpl	r0, r0, r0, lsl #2
    33fc:	00000028 	andeq	r0, r0, r8, lsr #32
    3400:	0000002c 	andeq	r0, r0, ip, lsr #32
    3404:	7f700003 	svcvc	0x00700003
    3408:	0000009f 	muleq	r0, pc, r0	; <UNPREDICTABLE>
    340c:	00000000 	andeq	r0, r0, r0
    3410:	00000200 	andeq	r0, r0, r0, lsl #4
    3414:	00000000 	andeq	r0, r0, r0
    3418:	0c000000 	stceq	0, cr0, [r0], {-0}
    341c:	01000000 	mrseq	r0, (UNDEF: 0)
    3420:	000c5100 	andeq	r5, ip, r0, lsl #2
    3424:	00100000 	andseq	r0, r0, r0
    3428:	00030000 	andeq	r0, r3, r0
    342c:	109f0171 	addsne	r0, pc, r1, ror r1	; <UNPREDICTABLE>
    3430:	30000000 	andcc	r0, r0, r0
    3434:	01000000 	mrseq	r0, (UNDEF: 0)
    3438:	00005100 	andeq	r5, r0, r0, lsl #2
    343c:	00000000 	andeq	r0, r0, r0
	...

Disassembly of section .debug_aranges:

00000000 <.debug_aranges>:
   0:	0000001c 	andeq	r0, r0, ip, lsl r0
   4:	00000002 	andeq	r0, r0, r2
   8:	00040000 	andeq	r0, r4, r0
   c:	00000000 	andeq	r0, r0, r0
  10:	00008038 	andeq	r8, r0, r8, lsr r0
  14:	000000fc 	strdeq	r0, [r0], -ip
	...
  20:	0000001c 	andeq	r0, r0, ip, lsl r0
  24:	038a0002 	orreq	r0, sl, #2, 0
  28:	00040000 	andeq	r0, r4, r0
  2c:	00000000 	andeq	r0, r0, r0
  30:	00008134 	andeq	r8, r0, r4, lsr r1
  34:	000002e8 	andeq	r0, r0, r8, ror #5
	...
  40:	0000001c 	andeq	r0, r0, ip, lsl r0
  44:	0b130002 	bleq	4c0054 <__bss_end__+0x4b51ec>
  48:	00040000 	andeq	r0, r4, r0
  4c:	00000000 	andeq	r0, r0, r0
  50:	0000841c 	andeq	r8, r0, ip, lsl r4
  54:	000001ac 	andeq	r0, r0, ip, lsr #3
	...
  60:	0000001c 	andeq	r0, r0, ip, lsl r0
  64:	0dd90002 	ldcleq	0, cr0, [r9, #8]
  68:	00040000 	andeq	r0, r4, r0
  6c:	00000000 	andeq	r0, r0, r0
  70:	000085c8 	andeq	r8, r0, r8, asr #11
  74:	000005c4 	andeq	r0, r0, r4, asr #11
	...
  80:	0000001c 	andeq	r0, r0, ip, lsl r0
  84:	1a800002 	bne	fe000094 <__bss_end__+0xfdff522c>
  88:	00040000 	andeq	r0, r4, r0
  8c:	00000000 	andeq	r0, r0, r0
  90:	00008b94 	muleq	r0, r4, fp
  94:	00000078 	andeq	r0, r0, r8, ror r0
	...
  a0:	0000001c 	andeq	r0, r0, ip, lsl r0
  a4:	1bc40002 	blne	ff1000b4 <__bss_end__+0xff0f524c>
  a8:	00040000 	andeq	r0, r4, r0
  ac:	00000000 	andeq	r0, r0, r0
  b0:	00008c0c 	andeq	r8, r0, ip, lsl #24
  b4:	00000058 	andeq	r0, r0, r8, asr r0
	...
  c0:	0000001c 	andeq	r0, r0, ip, lsl r0
  c4:	1d650002 	stclne	0, cr0, [r5, #-8]!
  c8:	00040000 	andeq	r0, r4, r0
  cc:	00000000 	andeq	r0, r0, r0
  d0:	00008c64 	andeq	r8, r0, r4, ror #24
  d4:	00000038 	andeq	r0, r0, r8, lsr r0
	...
  e0:	0000001c 	andeq	r0, r0, ip, lsl r0
  e4:	1e5c0002 	cdpne	0, 5, cr0, cr12, cr2, {0}
  e8:	00040000 	andeq	r0, r4, r0
  ec:	00000000 	andeq	r0, r0, r0
  f0:	00008c9c 	muleq	r0, ip, ip
  f4:	000009b4 			; <UNDEFINED> instruction: 0x000009b4
	...
 100:	0000001c 	andeq	r0, r0, ip, lsl r0
 104:	2adf0002 	bcs	ff7c0114 <__bss_end__+0xff7b52ac>
 108:	00040000 	andeq	r0, r4, r0
 10c:	00000000 	andeq	r0, r0, r0
 110:	00009650 	andeq	r9, r0, r0, asr r6
 114:	0000002c 	andeq	r0, r0, ip, lsr #32
	...
 120:	0000001c 	andeq	r0, r0, ip, lsl r0
 124:	2c120002 	ldccs	0, cr0, [r2], {2}
 128:	00040000 	andeq	r0, r4, r0
 12c:	00000000 	andeq	r0, r0, r0
 130:	0000967c 	andeq	r9, r0, ip, ror r6
 134:	000000f8 	strdeq	r0, [r0], -r8
	...
 140:	0000001c 	andeq	r0, r0, ip, lsl r0
 144:	2da60002 	stccs	0, cr0, [r6, #8]!
 148:	00040000 	andeq	r0, r4, r0
 14c:	00000000 	andeq	r0, r0, r0
 150:	00009774 	andeq	r9, r0, r4, ror r7
 154:	00000004 	andeq	r0, r0, r4
	...
 160:	0000001c 	andeq	r0, r0, ip, lsl r0
 164:	2e780002 	cdpcs	0, 7, cr0, cr8, cr2, {0}
 168:	00040000 	andeq	r0, r4, r0
 16c:	00000000 	andeq	r0, r0, r0
 170:	00009778 	andeq	r9, r0, r8, ror r7
 174:	0000008c 	andeq	r0, r0, ip, lsl #1
	...
 180:	0000001c 	andeq	r0, r0, ip, lsl r0
 184:	30f90002 	rscscc	r0, r9, r2
 188:	00040000 	andeq	r0, r4, r0
 18c:	00000000 	andeq	r0, r0, r0
 190:	00009804 	andeq	r9, r0, r4, lsl #16
 194:	0000011c 	andeq	r0, r0, ip, lsl r1
	...
 1a0:	0000001c 	andeq	r0, r0, ip, lsl r0
 1a4:	363c0002 	ldrtcc	r0, [ip], -r2
 1a8:	00040000 	andeq	r0, r4, r0
 1ac:	00000000 	andeq	r0, r0, r0
 1b0:	00009920 	andeq	r9, r0, r0, lsr #18
 1b4:	000001f0 	strdeq	r0, [r0], -r0	; <UNPREDICTABLE>
	...
 1c0:	0000001c 	andeq	r0, r0, ip, lsl r0
 1c4:	3c0d0002 	stccc	0, cr0, [sp], {2}
 1c8:	00040000 	andeq	r0, r4, r0
 1cc:	00000000 	andeq	r0, r0, r0
 1d0:	00009b10 	andeq	r9, r0, r0, lsl fp
 1d4:	000003b0 			; <UNDEFINED> instruction: 0x000003b0
	...
 1e0:	0000001c 	andeq	r0, r0, ip, lsl r0
 1e4:	44fa0002 	ldrbtmi	r0, [sl], #2
 1e8:	00040000 	andeq	r0, r4, r0
 1ec:	00000000 	andeq	r0, r0, r0
 1f0:	00009ec0 	andeq	r9, r0, r0, asr #29
 1f4:	00000198 	muleq	r0, r8, r1
	...
 200:	0000001c 	andeq	r0, r0, ip, lsl r0
 204:	4b710002 	blmi	1c40214 <__bss_end__+0x1c353ac>
 208:	00040000 	andeq	r0, r4, r0
 20c:	00000000 	andeq	r0, r0, r0
 210:	0000a058 	andeq	sl, r0, r8, asr r0
 214:	0000003c 	andeq	r0, r0, ip, lsr r0
	...
 220:	0000001c 	andeq	r0, r0, ip, lsl r0
 224:	4cbe0002 	ldcmi	0, cr0, [lr], #8
 228:	00040000 	andeq	r0, r4, r0
 22c:	00000000 	andeq	r0, r0, r0
 230:	0000a094 	muleq	r0, r4, r0
 234:	0000002c 	andeq	r0, r0, ip, lsr #32
	...
 240:	0000001c 	andeq	r0, r0, ip, lsl r0
 244:	4df90002 	ldclmi	0, cr0, [r9, #8]!
 248:	00040000 	andeq	r0, r4, r0
 24c:	00000000 	andeq	r0, r0, r0
 250:	0000a0c0 	andeq	sl, r0, r0, asr #1
 254:	00000044 	andeq	r0, r0, r4, asr #32
	...
 260:	0000001c 	andeq	r0, r0, ip, lsl r0
 264:	4ef40002 	cdpmi	0, 15, cr0, cr4, cr2, {0}
 268:	00040000 	andeq	r0, r4, r0
 26c:	00000000 	andeq	r0, r0, r0
 270:	0000a104 	andeq	sl, r0, r4, lsl #2
 274:	00000018 	andeq	r0, r0, r8, lsl r0
	...
 280:	0000001c 	andeq	r0, r0, ip, lsl r0
 284:	50070002 	andpl	r0, r7, r2
 288:	00040000 	andeq	r0, r4, r0
 28c:	00000000 	andeq	r0, r0, r0
 290:	0000a11c 	andeq	sl, r0, ip, lsl r1
 294:	00000030 	andeq	r0, r0, r0, lsr r0
	...
 2a0:	0000001c 	andeq	r0, r0, ip, lsl r0
 2a4:	51590002 	cmppl	r9, r2
 2a8:	00040000 	andeq	r0, r4, r0
 2ac:	00000000 	andeq	r0, r0, r0
 2b0:	0000a14c 	andeq	sl, r0, ip, asr #2
 2b4:	00000004 	andeq	r0, r0, r4
	...

Disassembly of section .debug_line:

00000000 <.debug_line>:
       0:	000000fd 	strdeq	r0, [r0], -sp
       4:	00790003 	rsbseq	r0, r9, r3
       8:	01020000 	mrseq	r0, (UNDEF: 2)
       c:	000d0efb 	strdeq	r0, [sp], -fp
      10:	01010101 	tsteq	r1, r1, lsl #2
      14:	01000000 	mrseq	r0, (UNDEF: 0)
      18:	74010000 	strvc	r0, [r1], #-0
      1c:	73747365 	cmnvc	r4, #-1811939327	; 0x94000001
      20:	2f002e00 	svccs	0x00002e00
      24:	72657355 	rsbvc	r7, r5, #1409286145	; 0x54000001
      28:	696d2f73 	stmdbvs	sp!, {r0, r1, r4, r5, r6, r8, r9, sl, fp, sp}^
      2c:	2f73656c 	svccs	0x0073656c
      30:	72756f53 	rsbsvc	r6, r5, #332	; 0x14c
      34:	632f6563 			; <UNDEFINED> instruction: 0x632f6563
      38:	30343273 	eorscc	r3, r4, r3, ror r2
      3c:	6c2f786c 	stcvs	8, cr7, [pc], #-432	; fffffe94 <__bss_end__+0xffff502c>
      40:	69706269 	ldmdbvs	r0!, {r0, r3, r5, r6, r9, sp, lr}^
      44:	636e692f 	cmnvs	lr, #770048	; 0xbc000
      48:	6564756c 	strbvs	r7, [r4, #-1388]!	; 0xfffffa94
      4c:	61700000 	cmnvs	r0, r0
      50:	2d327472 	cfldrscs	mvf7, [r2, #-456]!	; 0xfffffe38
      54:	74736574 	ldrbtvc	r6, [r3], #-1396	; 0xfffffa8c
      58:	00632e36 	rsbeq	r2, r3, r6, lsr lr
      5c:	73000001 	movwvc	r0, #1
      60:	6c2d6372 	stcvs	3, cr6, [sp], #-456	; 0xfffffe38
      64:	682e636f 	stmdavs	lr!, {r0, r1, r2, r3, r5, r6, r8, r9, sp, lr}
      68:	00000200 	andeq	r0, r0, r0, lsl #4
      6c:	2e697072 	mcrcs	0, 3, r7, cr9, cr2, {3}
      70:	00030068 	andeq	r0, r3, r8, rrx
      74:	616b6300 	cmnvs	fp, r0, lsl #6
      78:	636f6c6c 	cmnvs	pc, #108, 24	; 0x6c00
      7c:	0200682e 	andeq	r6, r0, #3014656	; 0x2e0000
      80:	05000000 	streq	r0, [r0, #-0]
      84:	02050013 	andeq	r0, r5, #19, 0
      88:	00008038 	andeq	r8, r0, r8, lsr r0
      8c:	4c050516 	cfstr32mi	mvfx0, [r5], {22}
      90:	0b050204 	bleq	1408a8 <__bss_end__+0x135a40>
      94:	13050517 	movwne	r0, #21783	; 0x5517
      98:	01060c05 	tsteq	r6, r5, lsl #24
      9c:	050104ba 	streq	r0, [r1, #-1210]	; 0xfffffb46
      a0:	017a030f 	cmneq	sl, pc, lsl #6
      a4:	9f060505 	svcls	0x00060505
      a8:	064a0601 	strbeq	r0, [sl], -r1, lsl #12
      ac:	0583132e 	streq	r1, [r3, #814]	; 0x32e
      b0:	66130601 	ldrvs	r0, [r3], -r1, lsl #12
      b4:	00061405 	andeq	r1, r6, r5, lsl #8
      b8:	80a00205 	adchi	r0, r0, r5, lsl #4
      bc:	05140000 	ldreq	r0, [r4, #-0]
      c0:	054d2f05 	strbeq	r2, [sp, #-3845]	; 0xfffff0fb
      c4:	0501060f 	streq	r0, [r1, #-1551]	; 0xfffff9f1
      c8:	014c0605 	cmpeq	ip, r5, lsl #12
      cc:	2e062e06 	cdpcs	14, 0, cr2, cr6, cr6, {0}
      d0:	06080515 			; <UNDEFINED> instruction: 0x06080515
      d4:	4a070501 	bmi	1c14e0 <__bss_end__+0x1b6678>
      d8:	4b060905 	blmi	1824f4 <__bss_end__+0x17768c>
      dc:	05150505 	ldreq	r0, [r5, #-1285]	; 0xfffffafb
      e0:	05010608 	streq	r0, [r1, #-1544]	; 0xfffff9f8
      e4:	09054a07 	stmdbeq	r5, {r0, r1, r2, r9, fp, lr}
      e8:	4a014b06 	bmi	52d08 <__bss_end__+0x47ea0>
      ec:	06010514 			; <UNDEFINED> instruction: 0x06010514
      f0:	06090514 			; <UNDEFINED> instruction: 0x06090514
      f4:	012e7803 			; <UNDEFINED> instruction: 0x012e7803
      f8:	9e01349e 	mcrls	4, 0, r3, cr1, cr14, {4}
      fc:	01001002 	tsteq	r0, r2
     100:	0002e401 	andeq	lr, r2, r1, lsl #8
     104:	e5000300 	str	r0, [r0, #-768]	; 0xfffffd00
     108:	02000000 	andeq	r0, r0, #0, 0
     10c:	0d0efb01 	vstreq	d15, [lr, #-4]
     110:	01010100 	mrseq	r0, (UNDEF: 17)
     114:	00000001 	andeq	r0, r0, r1
     118:	01000001 	tsteq	r0, r1
     11c:	74706f2f 	ldrbtvc	r6, [r0], #-3887	; 0xfffff0d1
     120:	6d6f682f 	stclvs	8, cr6, [pc, #-188]!	; 6c <__code_start__-0x7f94>
     124:	65726265 	ldrbvs	r6, [r2, #-613]!	; 0xfffffd9b
     128:	65432f77 	strbvs	r2, [r3, #-3959]	; 0xfffff089
     12c:	72616c6c 	rsbvc	r6, r1, #108, 24	; 0x6c00
     130:	6d72612f 	ldfvse	f6, [r2, #-188]!	; 0xffffff44
     134:	6e6f6e2d 	cdpvs	14, 6, cr6, cr15, cr13, {1}
     138:	61652d65 	cmnvs	r5, r5, ror #26
     13c:	392d6962 	pushcc	{r1, r5, r6, r8, fp, sp, lr}
     140:	322d392f 	eorcc	r3, sp, #770048	; 0xbc000
     144:	71393130 	teqvc	r9, r0, lsr r1
     148:	73632d34 	cmnvc	r3, #52, 26	; 0xd00
     14c:	65373031 	ldrvs	r3, [r7, #-49]!	; 0xffffffcf
     150:	62696c2f 	rsbvs	r6, r9, #12032	; 0x2f00
     154:	6363672f 	cmnvs	r3, #12320768	; 0xbc0000
     158:	6d72612f 	ldfvse	f6, [r2, #-188]!	; 0xffffff44
     15c:	6e6f6e2d 	cdpvs	14, 6, cr6, cr15, cr13, {1}
     160:	61652d65 	cmnvs	r5, r5, ror #26
     164:	392f6962 	stmdbcc	pc!, {r1, r5, r6, r8, fp, sp, lr}	; <UNPREDICTABLE>
     168:	312e322e 			; <UNDEFINED> instruction: 0x312e322e
     16c:	636e692f 	cmnvs	lr, #770048	; 0xbc000
     170:	6564756c 	strbvs	r7, [r4, #-1388]!	; 0xfffffa94
     174:	73552f00 	cmpvc	r5, #0, 30
     178:	2f737265 	svccs	0x00737265
     17c:	656c696d 	strbvs	r6, [ip, #-2413]!	; 0xfffff693
     180:	6f532f73 	svcvs	0x00532f73
     184:	65637275 	strbvs	r7, [r3, #-629]!	; 0xfffffd8b
     188:	3273632f 	rsbscc	r6, r3, #-1140850688	; 0xbc000000
     18c:	786c3034 	stmdavc	ip!, {r2, r4, r5, ip, sp}^
     190:	62696c2f 	rsbvs	r6, r9, #12032	; 0x2f00
     194:	692f6970 	stmdbvs	pc!, {r4, r5, r6, r8, fp, sp, lr}	; <UNPREDICTABLE>
     198:	756c636e 	strbvc	r6, [ip, #-878]!	; 0xfffffc92
     19c:	00006564 	andeq	r6, r0, r4, ror #10
     1a0:	6c616b63 			; <UNDEFINED> instruction: 0x6c616b63
     1a4:	2e636f6c 	cdpcs	15, 6, cr6, cr3, cr12, {3}
     1a8:	00000063 	andeq	r0, r0, r3, rrx
     1ac:	616b6300 	cmnvs	fp, r0, lsl #6
     1b0:	636f6c6c 	cmnvs	pc, #108, 24	; 0x6c00
     1b4:	0000682e 	andeq	r6, r0, lr, lsr #16
     1b8:	74730000 	ldrbtvc	r0, [r3], #-0
     1bc:	746e6964 	strbtvc	r6, [lr], #-2404	; 0xfffff69c
     1c0:	6363672d 	cmnvs	r3, #11796480	; 0xb40000
     1c4:	0100682e 	tsteq	r0, lr, lsr #16
     1c8:	70720000 	rsbsvc	r0, r2, r0
     1cc:	00682e69 	rsbeq	r2, r8, r9, ror #28
     1d0:	73000002 	movwvc	r0, #2
     1d4:	6c2d6372 	stcvs	3, cr6, [sp], #-456	; 0xfffffe38
     1d8:	682e636f 	stmdavs	lr!, {r0, r1, r2, r3, r5, r6, r8, r9, sp, lr}
     1dc:	00000000 	andeq	r0, r0, r0
     1e0:	6d2d726b 	sfmvs	f7, 4, [sp, #-428]!	; 0xfffffe54
     1e4:	6f6c6c61 	svcvs	0x006c6c61
     1e8:	00682e63 	rsbeq	r2, r8, r3, ror #28
     1ec:	00000000 	andeq	r0, r0, r0
     1f0:	05000105 	streq	r0, [r0, #-261]	; 0xfffffefb
     1f4:	00813402 	addeq	r3, r1, r2, lsl #8
     1f8:	010b0300 	mrseq	r0, (UNDEF: 59)
     1fc:	05130505 	ldreq	r0, [r3, #-1285]	; 0xfffffafb
     200:	06130601 	ldreq	r0, [r3], -r1, lsl #12
     204:	13050586 	movwne	r0, #21894	; 0x5586
     208:	01060805 	tsteq	r6, r5, lsl #16
     20c:	0609052e 	streq	r0, [r9], -lr, lsr #10
     210:	0611052f 	ldreq	r0, [r1], -pc, lsr #10
     214:	30010501 	andcc	r0, r1, r1, lsl #10
     218:	2e250306 	cdpcs	3, 2, cr0, cr5, cr6, {0}
     21c:	05050106 	streq	r0, [r5, #-262]	; 0xfffffefa
     220:	00014b06 	andeq	r4, r1, r6, lsl #22
     224:	66020402 	strvs	r0, [r2], -r2, lsl #8
     228:	02040200 	andeq	r0, r4, #0, 4
     22c:	04020001 	streq	r0, [r2], #-1
     230:	0c051302 	stceq	3, cr1, [r5], {2}
     234:	02040200 	andeq	r0, r4, #0, 4
     238:	05050106 	streq	r0, [r5, #-262]	; 0xfffffefa
     23c:	02040200 	andeq	r0, r4, #0, 4
     240:	08053006 	stmdaeq	r5, {r1, r2, ip, sp}
     244:	02040200 	andeq	r0, r4, #0, 4
     248:	0b050106 	bleq	140668 <__bss_end__+0x135800>
     24c:	11055106 	tstne	r5, r6, lsl #2
     250:	0b052e06 	bleq	14ba70 <__bss_end__+0x140c08>
     254:	09052e2e 	stmdbeq	r5, {r1, r2, r3, r5, r9, sl, fp, sp}
     258:	0c053006 	stceq	0, cr3, [r5], {6}
     25c:	0d050106 	stfeqs	f0, [r5, #-24]	; 0xffffffe8
     260:	1b054c06 	blne	153280 <__bss_end__+0x148418>
     264:	18050106 	stmdane	r5, {r1, r2, r8}
     268:	060d052e 	streq	r0, [sp], -lr, lsr #10
     26c:	0601052f 	streq	r0, [r1], -pc, lsr #10
     270:	00050517 	andeq	r0, r5, r7, lsl r5
     274:	06010402 	streq	r0, [r1], -r2, lsl #8
     278:	004a6c03 	subeq	r6, sl, r3, lsl #24
     27c:	01010402 	tsteq	r1, r2, lsl #8
     280:	01040200 	mrseq	r0, R12_usr
     284:	02009e06 	andeq	r9, r0, #96	; 0x60
     288:	002e0104 	eoreq	r0, lr, r4, lsl #2
     28c:	06010402 	streq	r0, [r1], -r2, lsl #8
     290:	3309052e 	movwcc	r0, #38190	; 0x952e
     294:	01060f05 	tsteq	r6, r5, lsl #30
     298:	052e0c05 	streq	r0, [lr, #-3077]!	; 0xfffff3fb
     29c:	052f0609 	streq	r0, [pc, #-1545]!	; fffffc9b <__bss_end__+0xffff4e33>
     2a0:	2e0d0305 	cdpcs	3, 0, cr0, cr13, cr5, {0}
     2a4:	069e0601 	ldreq	r0, [lr], r1, lsl #12
     2a8:	0301052e 	movweq	r0, #5422	; 0x152e
     2ac:	0505ba4a 	streq	fp, [r5, #-2634]	; 0xfffff5b6
     2b0:	06010513 			; <UNDEFINED> instruction: 0x06010513
     2b4:	32062e13 	andcc	r2, r6, #304	; 0x130
     2b8:	05050106 	streq	r0, [r5, #-262]	; 0xfffffefa
     2bc:	14054b06 	strne	r4, [r5], #-2822	; 0xfffff4fa
     2c0:	02040106 	andeq	r0, r4, #-2147483647	; 0x80000001
     2c4:	2f061805 	svccs	0x00061805
     2c8:	05130505 	ldreq	r0, [r3, #-1285]	; 0xfffffafb
     2cc:	2e01060d 	cfmadd32cs	mvax0, mvfx0, mvfx1, mvfx13
     2d0:	01050104 	tsteq	r5, r4, lsl #2
     2d4:	064e0611 			; <UNDEFINED> instruction: 0x064e0611
     2d8:	06050501 	streq	r0, [r5], -r1, lsl #10
     2dc:	06110567 	ldreq	r0, [r1], -r7, ror #10
     2e0:	05052e01 	streq	r2, [r5, #-3585]	; 0xfffff1ff
     2e4:	11052f06 	tstne	r5, r6, lsl #30
     2e8:	052e0106 	streq	r0, [lr, #-262]!	; 0xfffffefa
     2ec:	052f0605 	streq	r0, [pc, #-1541]!	; fffffcef <__bss_end__+0xffff4e87>
     2f0:	66130601 	ldrvs	r0, [r3], -r1, lsl #12
     2f4:	01064d06 	tsteq	r6, r6, lsl #26
     2f8:	4c060505 	cfstr32mi	mvfx0, [r6], {5}
     2fc:	05010a05 	streq	r0, [r1, #-2565]	; 0xfffff5fb
     300:	2e010615 	mcrcs	6, 0, r0, cr1, cr5, {0}
     304:	02002505 	andeq	r2, r0, #20971520	; 0x1400000
     308:	2e060104 	adfcss	f0, f6, f4
     30c:	02000505 	andeq	r0, r0, #20971520	; 0x1400000
     310:	01060104 	tsteq	r6, r4, lsl #2
     314:	4d060905 	vstrmi.16	s0, [r6, #-10]	; <UNPREDICTABLE>
     318:	01060d05 	tsteq	r6, r5, lsl #26
     31c:	2e0c054a 	cfsh32cs	mvfx0, mvfx12, #42
     320:	02002805 	andeq	r2, r0, #327680	; 0x50000
     324:	47060204 	strmi	r0, [r6, -r4, lsl #4]
     328:	02002c05 	andeq	r2, r0, #1280	; 0x500
     32c:	01060204 	tsteq	r6, r4, lsl #4
     330:	02040200 	andeq	r0, r4, #0, 4
     334:	060d0566 	streq	r0, [sp], -r6, ror #10
     338:	01068333 	tsteq	r6, r3, lsr r3
     33c:	06160105 	ldreq	r0, [r6], -r5, lsl #2
     340:	06661c03 	strbteq	r1, [r6], -r3, lsl #24
     344:	05058201 	streq	r8, [r5, #-513]	; 0xfffffdff
     348:	14132f06 	ldrne	r2, [r3], #-3846	; 0xfffff0fa
     34c:	1366f201 	msrne	SPSR_sx, #268435456	; 0x10000000
     350:	01060a05 	tsteq	r6, r5, lsl #20
     354:	052e0805 	streq	r0, [lr, #-2053]!	; 0xfffff7fb
     358:	05670609 	strbeq	r0, [r7, #-1545]!	; 0xfffff9f7
     35c:	0e051405 	cdpeq	4, 0, cr1, cr5, cr5, {0}
     360:	05050106 	streq	r0, [r5, #-262]	; 0xfffffefa
     364:	00014b06 	andeq	r4, r1, r6, lsl #22
     368:	82020402 	andhi	r0, r2, #33554432	; 0x2000000
     36c:	02040200 	andeq	r0, r4, #0, 4
     370:	04020001 	streq	r0, [r2], #-1
     374:	02001402 	andeq	r1, r0, #33554432	; 0x2000000
     378:	05670204 	strbeq	r0, [r7, #-516]!	; 0xfffffdfc
     37c:	04020001 	streq	r0, [r2], #-1
     380:	054b0602 	strbeq	r0, [fp, #-1538]	; 0xfffff9fe
     384:	79030609 	stmdbvc	r3, {r0, r3, r9, sl}
     388:	669e014a 	ldrvs	r0, [lr], sl, asr #2
     38c:	02000505 	andeq	r0, r0, #20971520	; 0x1400000
     390:	00310104 	eorseq	r0, r1, r4, lsl #2
     394:	01010402 	tsteq	r1, r2, lsl #8
     398:	01040200 	mrseq	r0, R12_usr
     39c:	030105d6 	movweq	r0, #5590	; 0x15d6
     3a0:	063c080a 	ldrteq	r0, [ip], -sl, lsl #16
     3a4:	06050501 	streq	r0, [r5], -r1, lsl #10
     3a8:	0610059f 			; <UNDEFINED> instruction: 0x0610059f
     3ac:	05052e01 	streq	r2, [r5, #-3585]	; 0xfffff1ff
     3b0:	05684b06 	strbeq	r4, [r8, #-2822]!	; 0xfffff4fa
     3b4:	05010615 	streq	r0, [r1, #-1557]	; 0xfffff9eb
     3b8:	052f0605 	streq	r0, [pc, #-1541]!	; fffffdbb <__bss_end__+0xffff4f53>
     3bc:	0501060e 	streq	r0, [r1, #-1550]	; 0xfffff9f2
     3c0:	054b0605 	strbeq	r0, [fp, #-1541]	; 0xfffff9fb
     3c4:	05010612 	streq	r0, [r1, #-1554]	; 0xfffff9ee
     3c8:	01680605 	cmneq	r8, r5, lsl #12
     3cc:	0514829e 	ldreq	r8, [r4, #-670]	; 0xfffffd62
     3d0:	0501060d 	streq	r0, [r1, #-1549]	; 0xfffff9f3
     3d4:	05670605 	strbeq	r0, [r7, #-1541]!	; 0xfffff9fb
     3d8:	05010610 	streq	r0, [r1, #-1552]	; 0xfffff9f0
     3dc:	05300605 	ldreq	r0, [r0, #-1541]!	; 0xfffff9fb
     3e0:	66130601 	ldrvs	r0, [r3], -r1, lsl #12
     3e4:	01000602 	tsteq	r0, r2, lsl #12
     3e8:	00022701 	andeq	r2, r2, r1, lsl #14
     3ec:	64000300 	strvs	r0, [r0], #-768	; 0xfffffd00
     3f0:	02000000 	andeq	r0, r0, #0, 0
     3f4:	0d0efb01 	vstreq	d15, [lr, #-4]
     3f8:	01010100 	mrseq	r0, (UNDEF: 17)
     3fc:	00000001 	andeq	r0, r0, r1
     400:	01000001 	tsteq	r0, r1
     404:	6573552f 	ldrbvs	r5, [r3, #-1327]!	; 0xfffffad1
     408:	6d2f7372 	stcvs	3, cr7, [pc, #-456]!	; 248 <__code_start__-0x7db8>
     40c:	73656c69 	cmnvc	r5, #26880	; 0x6900
     410:	756f532f 	strbvc	r5, [pc, #-815]!	; e9 <__code_start__-0x7f17>
     414:	2f656372 	svccs	0x00656372
     418:	34327363 	ldrtcc	r7, [r2], #-867	; 0xfffffc9d
     41c:	2f786c30 	svccs	0x00786c30
     420:	7062696c 	rsbvc	r6, r2, ip, ror #18
     424:	6e692f69 	cdpvs	15, 6, cr2, cr9, cr9, {3}
     428:	64756c63 	ldrbtvs	r6, [r5], #-3171	; 0xfffff39d
     42c:	6b000065 	blvs	5c8 <__code_start__-0x7a38>
     430:	616d2d72 	smcvs	53970	; 0xd2d2
     434:	636f6c6c 	cmnvs	pc, #108, 24	; 0x6c00
     438:	0000632e 	andeq	r6, r0, lr, lsr #6
     43c:	70720000 	rsbsvc	r0, r2, r0
     440:	00682e69 	rsbeq	r2, r8, r9, ror #28
     444:	6b000001 	blvs	450 <__code_start__-0x7bb0>
     448:	616d2d72 	smcvs	53970	; 0xd2d2
     44c:	636f6c6c 	cmnvs	pc, #108, 24	; 0x6c00
     450:	0000682e 	andeq	r6, r0, lr, lsr #16
     454:	05000000 	streq	r0, [r0, #-0]
     458:	02050001 	andeq	r0, r5, #1, 0
     45c:	0000841c 	andeq	r8, r0, ip, lsl r4
     460:	0100d203 	tsteq	r0, r3, lsl #4
     464:	02050106 	andeq	r0, r5, #-2147483647	; 0x80000001
     468:	05132f06 	ldreq	r2, [r3, #-3846]	; 0xfffff0fa
     46c:	05010605 	streq	r0, [r1, #-1541]	; 0xfffff9fb
     470:	052f0602 	streq	r0, [pc, #-1538]!	; fffffe76 <__bss_end__+0xffff500e>
     474:	05010609 	streq	r0, [r1, #-1545]	; 0xfffff9f7
     478:	052e4a02 	streq	r4, [lr, #-2562]!	; 0xfffff5fe
     47c:	04020012 	streq	r0, [r2], #-18	; 0xffffffee
     480:	052e0601 	streq	r0, [lr, #-1537]!	; 0xfffff9ff
     484:	04020002 	streq	r0, [r2], #-2
     488:	05010601 	streq	r0, [r1, #-1537]	; 0xfffff9ff
     48c:	04020027 	streq	r0, [r2], #-39	; 0xffffffd9
     490:	12054a03 	andne	r4, r5, #12288	; 0x3000
     494:	03040200 	movweq	r0, #16896	; 0x4200
     498:	0603052e 	streq	r0, [r3], -lr, lsr #10
     49c:	0610054b 	ldreq	r0, [r0], -fp, asr #10
     4a0:	2e060501 	cfsh32cs	mvfx0, mvfx6, #1
     4a4:	02001505 	andeq	r1, r0, #20971520	; 0x1400000
     4a8:	054a0104 	strbeq	r0, [sl, #-260]	; 0xfffffefc
     4ac:	04020020 	streq	r0, [r2], #-32	; 0xffffffe0
     4b0:	02004a02 	andeq	r4, r0, #8192	; 0x2000
     4b4:	054a0204 	strbeq	r0, [sl, #-516]	; 0xfffffdfc
     4b8:	05300602 	ldreq	r0, [r0, #-1538]!	; 0xfffff9fe
     4bc:	05010610 	streq	r0, [r1, #-1552]	; 0xfffff9f0
     4c0:	1d052e09 	stcne	14, cr2, [r5, #-36]	; 0xffffffdc
     4c4:	2e05052e 	cfsh32cs	mvfx0, mvfx5, #30
     4c8:	50060305 	andpl	r0, r6, r5, lsl #6
     4cc:	01060d05 	tsteq	r6, r5, lsl #26
     4d0:	2f060205 	svccs	0x00060205
     4d4:	01060e05 	tsteq	r6, r5, lsl #28
     4d8:	052e0805 	streq	r0, [lr, #-2053]!	; 0xfffff7fb
     4dc:	03052e05 	movweq	r2, #24069	; 0x5e05
     4e0:	0c055006 	stceq	0, cr5, [r5], {6}
     4e4:	02050106 	andeq	r0, r5, #-2147483647	; 0x80000001
     4e8:	08052f06 	stmdaeq	r5, {r1, r2, r8, r9, sl, fp, sp}
     4ec:	01050106 	tsteq	r5, r6, lsl #2
     4f0:	0603054b 	streq	r0, [r3], -fp, asr #10
     4f4:	052e7303 	streq	r7, [lr, #-771]!	; 0xfffffcfd
     4f8:	0501061c 	streq	r0, [r1, #-1564]	; 0xfffff9e4
     4fc:	03052e0e 	movweq	r2, #24078	; 0x5e0e
     500:	13054b06 	movwne	r4, #23302	; 0x5b06
     504:	1a050106 	bne	140924 <__bss_end__+0x135abc>
     508:	2e0d052e 	cfsh32cs	mvfx0, mvfx13, #30
     50c:	50060305 	andpl	r0, r6, r5, lsl #6
     510:	01061505 	tsteq	r6, r5, lsl #10
     514:	052e0d05 	streq	r0, [lr, #-3333]!	; 0xfffff2fb
     518:	054b0603 	strbeq	r0, [fp, #-1539]	; 0xfffff9fd
     51c:	05010613 	streq	r0, [r1, #-1555]	; 0xfffff9ed
     520:	01052e0c 	tsteq	r5, ip, lsl #28
     524:	7fba0306 	svcvc	0x00ba0306
     528:	05010666 	streq	r0, [r1, #-1638]	; 0xfffff99a
     52c:	054b0602 	strbeq	r0, [fp, #-1538]	; 0xfffff9fe
     530:	05010605 	streq	r0, [r1, #-1541]	; 0xfffff9fb
     534:	02052f06 	andeq	r2, r5, #6, 30
     538:	0d052f06 	stceq	15, cr2, [r5, #-24]	; 0xffffffe8
     53c:	02050106 	andeq	r0, r5, #-2147483647	; 0x80000001
     540:	05054b06 	streq	r4, [r5, #-2822]	; 0xfffff4fa
     544:	02050106 	andeq	r0, r5, #-2147483647	; 0x80000001
     548:	05134c06 	ldreq	r4, [r3, #-3078]	; 0xfffff3fa
     54c:	0501060d 	streq	r0, [r1, #-1549]	; 0xfffff9f3
     550:	062f0602 	strteq	r0, [pc], -r2, lsl #12
     554:	052f062e 	streq	r0, [pc, #-1582]!	; ffffff2e <__bss_end__+0xffff50c6>
     558:	05010609 	streq	r0, [r1, #-1545]	; 0xfffff9f7
     55c:	0105620a 	tsteq	r5, sl, lsl #4
     560:	064e0633 			; <UNDEFINED> instruction: 0x064e0633
     564:	06020501 	streq	r0, [r2], -r1, lsl #10
     568:	0514132f 	ldreq	r1, [r4, #-815]	; 0xfffffcd1
     56c:	05010624 	streq	r0, [r1, #-1572]	; 0xfffff9dc
     570:	09052e29 	stmdbeq	r5, {r0, r3, r5, r9, sl, fp, sp}
     574:	0602052e 	streq	r0, [r2], -lr, lsr #10
     578:	060d052f 	streq	r0, [sp], -pc, lsr #10
     57c:	4a050501 	bmi	141988 <__bss_end__+0x136b20>
     580:	50060205 	andpl	r0, r6, r5, lsl #4
     584:	01060905 	tsteq	r6, r5, lsl #18
     588:	0603052e 	streq	r0, [r3], -lr, lsr #10
     58c:	0616052a 	ldreq	r0, [r6], -sl, lsr #10
     590:	4a0e0501 	bmi	38199c <__bss_end__+0x376b34>
     594:	2f060305 	svccs	0x00060305
     598:	01060f05 	tsteq	r6, r5, lsl #30
     59c:	6d060405 	cfstrsvs	mvf0, [r6, #-20]	; 0xffffffec
     5a0:	01060705 	tsteq	r6, r5, lsl #14
     5a4:	34060505 	strcc	r0, [r6], #-1285	; 0xfffffafb
     5a8:	01060f05 	tsteq	r6, r5, lsl #30
     5ac:	4b060505 	blmi	1819c8 <__bss_end__+0x176b60>
     5b0:	01060705 	tsteq	r6, r5, lsl #14
     5b4:	2f060505 	svccs	0x00060505
     5b8:	01060f05 	tsteq	r6, r5, lsl #30
     5bc:	30060405 	andcc	r0, r6, r5, lsl #8
     5c0:	01060a05 	tsteq	r6, r5, lsl #20
     5c4:	4b060405 	blmi	1815e0 <__bss_end__+0x176778>
     5c8:	01060b05 	tsteq	r6, r5, lsl #22
     5cc:	0605052e 	streq	r0, [r5], -lr, lsr #10
     5d0:	052e7703 	streq	r7, [lr, #-1795]!	; 0xfffff8fd
     5d4:	05010618 	streq	r0, [r1, #-1560]	; 0xfffff9e8
     5d8:	1a052e12 	bne	14be28 <__bss_end__+0x140fc0>
     5dc:	4a7a0306 	bmi	1e811fc <__bss_end__+0x1e76394>
     5e0:	05011805 	streq	r1, [r1, #-2053]	; 0xfffff7fb
     5e4:	05010620 	streq	r0, [r1, #-1568]	; 0xfffff9e0
     5e8:	03052e27 	movweq	r2, #24103	; 0x5e27
     5ec:	0b053006 	bleq	14c60c <__bss_end__+0x1417a4>
     5f0:	06050106 	streq	r0, [r5], -r6, lsl #2
     5f4:	0603052e 	streq	r0, [r3], -lr, lsr #10
     5f8:	054a0f03 	strbeq	r0, [sl, #-3843]	; 0xfffff0fd
     5fc:	05010609 	streq	r0, [r1, #-1545]	; 0xfffff9f7
     600:	04054a06 	streq	r4, [r5], #-2566	; 0xfffff5fa
     604:	0d054c06 	stceq	12, cr4, [r5, #-24]	; 0xffffffe8
     608:	052e0106 	streq	r0, [lr, #-262]!	; 0xfffffefa
     60c:	022e2e07 	eoreq	r2, lr, #112	; 0x70
     610:	01010006 	tsteq	r1, r6
     614:	0000053e 	andeq	r0, r0, lr, lsr r5
     618:	00d40003 	sbcseq	r0, r4, r3
     61c:	01020000 	mrseq	r0, (UNDEF: 2)
     620:	000d0efb 	strdeq	r0, [sp], -fp
     624:	01010101 	tsteq	r1, r1, lsl #2
     628:	01000000 	mrseq	r0, (UNDEF: 0)
     62c:	2f010000 	svccs	0x00010000
     630:	2f74706f 	svccs	0x0074706f
     634:	656d6f68 	strbvs	r6, [sp, #-3944]!	; 0xfffff098
     638:	77657262 	strbvc	r7, [r5, -r2, ror #4]!
     63c:	6c65432f 	stclvs	3, cr4, [r5], #-188	; 0xffffff44
     640:	2f72616c 	svccs	0x0072616c
     644:	2d6d7261 	sfmcs	f7, 2, [sp, #-388]!	; 0xfffffe7c
     648:	656e6f6e 	strbvs	r6, [lr, #-3950]!	; 0xfffff092
     64c:	6261652d 	rsbvs	r6, r1, #188743680	; 0xb400000
     650:	2f392d69 	svccs	0x00392d69
     654:	30322d39 	eorscc	r2, r2, r9, lsr sp
     658:	34713931 	ldrbtcc	r3, [r1], #-2353	; 0xfffff6cf
     65c:	3173632d 	cmncc	r3, sp, lsr #6
     660:	2f653730 	svccs	0x00653730
     664:	2f62696c 	svccs	0x0062696c
     668:	2f636367 	svccs	0x00636367
     66c:	2d6d7261 	sfmcs	f7, 2, [sp, #-388]!	; 0xfffffe7c
     670:	656e6f6e 	strbvs	r6, [lr, #-3950]!	; 0xfffff092
     674:	6261652d 	rsbvs	r6, r1, #188743680	; 0xb400000
     678:	2e392f69 	cdpcs	15, 3, cr2, cr9, cr9, {3}
     67c:	2f312e32 	svccs	0x00312e32
     680:	6c636e69 	stclvs	14, cr6, [r3], #-420	; 0xfffffe5c
     684:	00656475 	rsbeq	r6, r5, r5, ror r4
     688:	6573552f 	ldrbvs	r5, [r3, #-1327]!	; 0xfffffad1
     68c:	6d2f7372 	stcvs	3, cr7, [pc, #-456]!	; 4cc <__code_start__-0x7b34>
     690:	73656c69 	cmnvc	r5, #26880	; 0x6900
     694:	756f532f 	strbvc	r5, [pc, #-815]!	; 36d <__code_start__-0x7c93>
     698:	2f656372 	svccs	0x00656372
     69c:	34327363 	ldrtcc	r7, [r2], #-867	; 0xfffffc9d
     6a0:	2f786c30 	svccs	0x00786c30
     6a4:	7062696c 	rsbvc	r6, r2, ip, ror #18
     6a8:	6e692f69 	cdpvs	15, 6, cr2, cr9, cr9, {3}
     6ac:	64756c63 	ldrbtvs	r6, [r5], #-3171	; 0xfffff39d
     6b0:	63000065 	movwvs	r0, #101	; 0x65
     6b4:	63672d6b 	cmnvs	r7, #6848	; 0x1ac0
     6b8:	0000632e 	andeq	r6, r0, lr, lsr #6
     6bc:	72730000 	rsbsvc	r0, r3, #0, 0
     6c0:	6f6c2d63 	svcvs	0x006c2d63
     6c4:	00682e63 	rsbeq	r2, r8, r3, ror #28
     6c8:	73000000 	movwvc	r0, #0
     6cc:	6e696474 	mcrvs	4, 3, r6, cr9, cr4, {3}
     6d0:	63672d74 	cmnvs	r7, #116, 26	; 0x1d00
     6d4:	00682e63 	rsbeq	r2, r8, r3, ror #28
     6d8:	72000001 	andvc	r0, r0, #1, 0
     6dc:	682e6970 	stmdavs	lr!, {r4, r5, r6, r8, fp, sp, lr}
     6e0:	00000200 	andeq	r0, r0, r0, lsl #4
     6e4:	6c616b63 			; <UNDEFINED> instruction: 0x6c616b63
     6e8:	2e636f6c 	cdpcs	15, 6, cr6, cr3, cr12, {3}
     6ec:	00000068 	andeq	r0, r0, r8, rrx
     6f0:	01050000 	mrseq	r0, (UNDEF: 5)
     6f4:	c8020500 	stmdagt	r2, {r8, sl}
     6f8:	03000085 	movweq	r0, #133	; 0x85
     6fc:	0505012b 	streq	r0, [r5, #-299]	; 0xfffffed5
     700:	060b0514 			; <UNDEFINED> instruction: 0x060b0514
     704:	4a080501 	bmi	201b10 <__bss_end__+0x1f6ca8>
     708:	02001d05 	andeq	r1, r0, #320	; 0x140
     70c:	054a0104 	strbeq	r0, [sl, #-260]	; 0xfffffefc
     710:	04020018 	streq	r0, [r2], #-24	; 0xffffffe8
     714:	0c054a01 			; <UNDEFINED> instruction: 0x0c054a01
     718:	10052e4d 	andne	r2, r5, sp, asr #28
     71c:	052e2e2c 	streq	r2, [lr, #-3628]!	; 0xfffff1d4
     720:	03063101 	movweq	r3, #24833	; 0x6101
     724:	01064a0b 	tsteq	r6, fp, lsl #20
     728:	4b060505 	blmi	181b44 <__bss_end__+0x176cdc>
     72c:	060a0514 			; <UNDEFINED> instruction: 0x060a0514
     730:	2e080501 	cfsh32cs	mvfx0, mvfx8, #1
     734:	4c060505 	cfstr32mi	mvfx0, [r6], {5}
     738:	01060c05 	tsteq	r6, r5, lsl #24
     73c:	05651005 	strbeq	r1, [r5, #-5]!
     740:	03063001 	movweq	r3, #24577	; 0x6001
     744:	01062e0e 	tsteq	r6, lr, lsl #28
     748:	4b060505 	blmi	181b64 <__bss_end__+0x176cfc>
     74c:	04020001 	streq	r0, [r2], #-1
     750:	02008202 	andeq	r8, r0, #536870912	; 0x20000000
     754:	00010204 	andeq	r0, r1, r4, lsl #4
     758:	15020402 	strne	r0, [r2, #-1026]	; 0xfffffbfe
     75c:	02040200 	andeq	r0, r4, #0, 4
     760:	04020001 	streq	r0, [r2], #-1
     764:	02004a02 	andeq	r4, r0, #8192	; 0x2000
     768:	00010204 	andeq	r0, r1, r4, lsl #4
     76c:	13020402 	movwne	r0, #9218	; 0x2402
     770:	02040200 	andeq	r0, r4, #0, 4
     774:	04020001 	streq	r0, [r2], #-1
     778:	02004a01 	andeq	r4, r0, #4096	; 0x1000
     77c:	00010104 	andeq	r0, r1, r4, lsl #2
     780:	06010402 	streq	r0, [r1], -r2, lsl #8
     784:	0402009e 	streq	r0, [r2], #-158	; 0xffffff62
     788:	02002e01 	andeq	r2, r0, #1, 28
     78c:	2e060104 	adfcss	f0, f6, f4
     790:	01040200 	mrseq	r0, R12_usr
     794:	0402002a 	streq	r0, [r2], #-42	; 0xffffffd6
     798:	02000101 	andeq	r0, r0, #1073741824	; 0x40000000
     79c:	9e060104 	adflss	f0, f6, f4
     7a0:	01040200 	mrseq	r0, R12_usr
     7a4:	0402002e 	streq	r0, [r2], #-46	; 0xffffffd2
     7a8:	002e0601 	eoreq	r0, lr, r1, lsl #12
     7ac:	31010402 	tstcc	r1, r2, lsl #8
     7b0:	01040200 	mrseq	r0, R12_usr
     7b4:	04020001 	streq	r0, [r2], #-1
     7b8:	009e0601 	addseq	r0, lr, r1, lsl #12
     7bc:	2e010402 	cdpcs	4, 0, cr0, cr1, cr2, {0}
     7c0:	01040200 	mrseq	r0, R12_usr
     7c4:	19052e06 	stmdbne	r5, {r1, r2, r9, sl, fp, sp}
     7c8:	2e0d0306 	cdpcs	3, 0, cr0, cr13, cr6, {0}
     7cc:	004b1105 	subeq	r1, fp, r5, lsl #2
     7d0:	2e040402 	cdpcs	4, 0, cr0, cr4, cr2, {0}
     7d4:	04040200 	streq	r0, [r4], #-512	; 0xfffffe00
     7d8:	14054d06 	strne	r4, [r5], #-3334	; 0xfffff2fa
     7dc:	04040200 	streq	r0, [r4], #-512	; 0xfffffe00
     7e0:	02000106 	andeq	r0, r0, #-2147483647	; 0x80000001
     7e4:	054a0404 	strbeq	r0, [sl, #-1028]	; 0xfffffbfc
     7e8:	04020023 	streq	r0, [r2], #-35	; 0xffffffdd
     7ec:	72030602 	andvc	r0, r3, #2097152	; 0x200000
     7f0:	00240501 	eoreq	r0, r4, r1, lsl #10
     7f4:	06020402 	streq	r0, [r2], -r2, lsl #8
     7f8:	001b0501 	andseq	r0, fp, r1, lsl #10
     7fc:	06010402 	streq	r0, [r1], -r2, lsl #8
     800:	0005052e 	andeq	r0, r5, lr, lsr #10
     804:	06010402 	streq	r0, [r1], -r2, lsl #8
     808:	06090501 	streq	r0, [r9], -r1, lsl #10
     80c:	0614054c 	ldreq	r0, [r4], -ip, asr #10
     810:	06090501 	streq	r0, [r9], -r1, lsl #10
     814:	060c054b 	streq	r0, [ip], -fp, asr #10
     818:	060d0501 	streq	r0, [sp], -r1, lsl #10
     81c:	0629054c 	strteq	r0, [r9], -ip, asr #10
     820:	060d0501 	streq	r0, [sp], -r1, lsl #10
     824:	0616052f 	ldreq	r0, [r6], -pc, lsr #10
     828:	060d0501 	streq	r0, [sp], -r1, lsl #10
     82c:	2e2e062f 	cfmadda32cs	mvax1, mvax0, mvfx14, mvfx15
     830:	1005bb06 	andne	fp, r5, r6, lsl #22
     834:	11050106 	tstne	r5, r6, lsl #2
     838:	1c054c06 	stcne	12, cr4, [r5], {6}
     83c:	19050106 	stmdbne	r5, {r1, r2, r8}
     840:	0402002e 	streq	r0, [r2], #-46	; 0xffffffd2
     844:	11056604 	tstne	r5, r4, lsl #12
     848:	04040200 	streq	r0, [r4], #-512	; 0xfffffe00
     84c:	2c052f06 	stccs	15, cr2, [r5], {6}
     850:	04040200 	streq	r0, [r4], #-512	; 0xfffffe00
     854:	11050106 	tstne	r5, r6, lsl #2
     858:	04040200 	streq	r0, [r4], #-512	; 0xfffffe00
     85c:	15054a2e 	strne	r4, [r5, #-2606]	; 0xfffff5d2
     860:	4d054f06 	stcmi	15, cr4, [r5, #-24]	; 0xffffffe8
     864:	15050106 	strne	r0, [r5, #-262]	; 0xfffffefa
     868:	0611052e 	ldreq	r0, [r1], -lr, lsr #10
     86c:	056606a3 	strbeq	r0, [r6, #-1699]!	; 0xfffff95d
     870:	064a1601 	strbeq	r1, [sl], -r1, lsl #12
     874:	94020500 	strls	r0, [r2], #-1280	; 0xfffffb00
     878:	03000087 	movweq	r0, #135	; 0x87
     87c:	05050109 	streq	r0, [r5, #-265]	; 0xfffffef7
     880:	010a054e 	tsteq	sl, lr, asr #10
     884:	01061505 	tsteq	r6, r5, lsl #10
     888:	02002505 	andeq	r2, r0, #20971520	; 0x1400000
     88c:	2e060104 	adfcss	f0, f6, f4
     890:	02000505 	andeq	r0, r0, #20971520	; 0x1400000
     894:	01060104 	tsteq	r6, r4, lsl #2
     898:	02000905 	andeq	r0, r0, #81920	; 0x14000
     89c:	4c060304 	stcmi	3, cr0, [r6], {4}
     8a0:	02003205 	andeq	r3, r0, #1342177280	; 0x50000000
     8a4:	01060304 	tsteq	r6, r4, lsl #6
     8a8:	02002105 	andeq	r2, r0, #1073741825	; 0x40000001
     8ac:	054a0304 	strbeq	r0, [sl, #-772]	; 0xfffffcfc
     8b0:	04020011 	streq	r0, [r2], #-17	; 0xffffffef
     8b4:	28052e03 	stmdacs	r5, {r0, r1, r9, sl, fp, sp}
     8b8:	03040200 	movweq	r0, #16896	; 0x4200
     8bc:	2c052c06 	stccs	12, cr2, [r5], {6}
     8c0:	03040200 	movweq	r0, #16896	; 0x4200
     8c4:	02000106 	andeq	r0, r0, #-2147483647	; 0x80000001
     8c8:	002e0304 	eoreq	r0, lr, r4, lsl #6
     8cc:	2e030402 	cdpcs	4, 0, cr0, cr3, cr2, {0}
     8d0:	19060505 	stmdbne	r6, {r0, r2, r8, sl}
     8d4:	062e0613 			; <UNDEFINED> instruction: 0x062e0613
     8d8:	060d0530 			; <UNDEFINED> instruction: 0x060d0530
     8dc:	06050501 	streq	r0, [r5], -r1, lsl #10
     8e0:	060d054b 	streq	r0, [sp], -fp, asr #10
     8e4:	06050501 	streq	r0, [r5], -r1, lsl #10
     8e8:	060d052f 	streq	r0, [sp], -pc, lsr #10
     8ec:	06050501 	streq	r0, [r5], -r1, lsl #10
     8f0:	060d052f 	streq	r0, [sp], -pc, lsr #10
     8f4:	06050501 	streq	r0, [r5], -r1, lsl #10
     8f8:	83136a35 	tsthi	r3, #217088	; 0x35000
     8fc:	13681369 	cmnne	r8, #-1543503871	; 0xa4000001
     900:	67060105 	strvs	r0, [r6, -r5, lsl #2]
     904:	0106dc06 	tsteq	r6, r6, lsl #24
     908:	4b060505 	blmi	181d24 <__bss_end__+0x176ebc>
     90c:	062e0613 			; <UNDEFINED> instruction: 0x062e0613
     910:	052f4c2f 	streq	r4, [pc, #-3119]!	; fffffce9 <__bss_end__+0xffff4e81>
     914:	1505010a 	strne	r0, [r5, #-266]	; 0xfffffef6
     918:	054a0106 	strbeq	r0, [sl, #-262]	; 0xfffffefa
     91c:	1b050d27 	blne	143dc0 <__bss_end__+0x138f58>
     920:	2e0e052e 	cfsh32cs	mvfx0, mvfx14, #30
     924:	05330505 	ldreq	r0, [r3, #-1285]!	; 0xfffffafb
     928:	0533060d 	ldreq	r0, [r3, #-1549]!	; 0xfffff9f3
     92c:	05010613 	streq	r0, [r1, #-1555]	; 0xfffff9ed
     930:	062f060d 	strteq	r0, [pc], -sp, lsl #12
     934:	00280566 	eoreq	r0, r8, r6, ror #10
     938:	06020402 	streq	r0, [r2], -r2, lsl #8
     93c:	052e7a03 	streq	r7, [lr, #-2563]!	; 0xfffff5fd
     940:	0402002c 	streq	r0, [r2], #-44	; 0xffffffd4
     944:	05010602 	streq	r0, [r1, #-1538]	; 0xfffff9fe
     948:	04020025 	streq	r0, [r2], #-37	; 0xffffffdb
     94c:	05660601 	strbeq	r0, [r6, #-1537]!	; 0xfffff9ff
     950:	04020005 	streq	r0, [r2], #-5
     954:	05010601 	streq	r0, [r1, #-1537]	; 0xfffff9ff
     958:	054c0609 	strbeq	r0, [ip, #-1545]	; 0xfffff9f7
     95c:	05010610 	streq	r0, [r1, #-1552]	; 0xfffff9f0
     960:	052f0609 	streq	r0, [pc, #-1545]!	; 35f <__code_start__-0x7ca1>
     964:	0501060e 	streq	r0, [r1, #-1550]	; 0xfffff9f2
     968:	0e052e0c 	cdpeq	14, 0, cr2, cr5, cr12, {0}
     96c:	11054f06 	tstne	r5, r6, lsl #30
     970:	0d050106 	stfeqs	f0, [r5, #-24]	; 0xffffffe8
     974:	19054c06 	stmdbne	r5, {r1, r2, sl, fp, lr}
     978:	0d050106 	stfeqs	f0, [r5, #-24]	; 0xffffffe8
     97c:	66062f06 	strvs	r2, [r6], -r6, lsl #30
     980:	05052e2e 	streq	r2, [r5, #-3630]	; 0xfffff1d2
     984:	06011606 	streq	r1, [r1], -r6, lsl #12
     988:	132e064a 			; <UNDEFINED> instruction: 0x132e064a
     98c:	01060805 	tsteq	r6, r5, lsl #16
     990:	4b060905 	blmi	182dac <__bss_end__+0x177f44>
     994:	02004a01 	andeq	r4, r0, #4096	; 0x1000
     998:	05140104 	ldreq	r0, [r4, #-260]	; 0xfffffefc
     99c:	04020005 	streq	r0, [r2], #-5
     9a0:	02001401 	andeq	r1, r0, #16777216	; 0x1000000
     9a4:	054b0104 	strbeq	r0, [fp, #-260]	; 0xfffffefc
     9a8:	04020008 	streq	r0, [r2], #-8
     9ac:	05010601 	streq	r0, [r1, #-1537]	; 0xfffff9ff
     9b0:	05300609 	ldreq	r0, [r0, #-1545]!	; 0xfffff9f7
     9b4:	05010617 	streq	r0, [r1, #-1559]	; 0xfffff9e9
     9b8:	09053401 	stmdbeq	r5, {r0, sl, ip, sp}
     9bc:	4a750306 	bmi	1d415dc <__bss_end__+0x1d36774>
     9c0:	03010501 	movweq	r0, #5377	; 0x1501
     9c4:	05900835 	ldreq	r0, [r0, #2101]	; 0x835
     9c8:	4b134b05 	blmi	4d35e4 <__bss_end__+0x4c877c>
     9cc:	0a052f4c 	beq	14c704 <__bss_end__+0x14189c>
     9d0:	06150501 	ldreq	r0, [r5], -r1, lsl #10
     9d4:	27054a01 	strcs	r4, [r5, -r1, lsl #20]
     9d8:	2e1b050d 	cfmul32cs	mvfx0, mvfx11, mvfx13
     9dc:	052e0e05 	streq	r0, [lr, #-3589]!	; 0xfffff1fb
     9e0:	0d053305 	stceq	3, cr3, [r5, #-20]	; 0xffffffec
     9e4:	13053306 	movwne	r3, #21254	; 0x5306
     9e8:	0d050106 	stfeqs	f0, [r5, #-24]	; 0xffffffe8
     9ec:	1e052f06 	cdpne	15, 0, cr2, cr5, cr6, {0}
     9f0:	1a050106 	bne	140e10 <__bss_end__+0x135fa8>
     9f4:	060d052e 	streq	r0, [sp], -lr, lsr #10
     9f8:	0502042f 	streq	r0, [r2, #-1071]	; 0xfffffbd1
     9fc:	7e8b030b 	cdpvc	3, 8, cr0, cr11, cr11, {0}
     a00:	1305052e 	movwne	r0, #21806	; 0x552e
     a04:	01060c05 	tsteq	r6, r5, lsl #24
     a08:	050104ba 	streq	r0, [r1, #-1210]	; 0xfffffb46
     a0c:	01f4030d 	mvnseq	r0, sp, lsl #6
     a10:	2f066601 	svccs	0x00066601
     a14:	02002805 	andeq	r2, r0, #327680	; 0x50000
     a18:	78030204 	stmdavc	r3, {r2, r9}
     a1c:	002c0566 	eoreq	r0, ip, r6, ror #10
     a20:	06020402 	streq	r0, [r2], -r2, lsl #8
     a24:	00250501 	eoreq	r0, r5, r1, lsl #10
     a28:	06010402 	streq	r0, [r1], -r2, lsl #8
     a2c:	00050566 	andeq	r0, r5, r6, ror #10
     a30:	06010402 	streq	r0, [r1], -r2, lsl #8
     a34:	06090501 	streq	r0, [r9], -r1, lsl #10
     a38:	0610054c 	ldreq	r0, [r0], -ip, asr #10
     a3c:	06090501 	streq	r0, [r9], -r1, lsl #10
     a40:	060e052f 	streq	r0, [lr], -pc, lsr #10
     a44:	2e0c0501 	cfsh32cs	mvfx0, mvfx12, #1
     a48:	06050566 	streq	r0, [r5], -r6, ror #10
     a4c:	01010903 	tsteq	r1, r3, lsl #18
     a50:	2e068206 	cdpcs	2, 0, cr8, cr6, cr6, {0}
     a54:	06010514 			; <UNDEFINED> instruction: 0x06010514
     a58:	00066613 	andeq	r6, r6, r3, lsl r6
     a5c:	8a080205 	bhi	201278 <__bss_end__+0x1f6410>
     a60:	8b030000 	blhi	c0a68 <__bss_end__+0xb5c00>
     a64:	0106017e 	tsteq	r6, lr, ror r1
     a68:	4b060505 	blmi	181e84 <__bss_end__+0x17701c>
     a6c:	02000114 	andeq	r0, r0, #5
     a70:	004a0204 	subeq	r0, sl, r4, lsl #4
     a74:	01020402 	tsteq	r2, r2, lsl #8
     a78:	02040200 	andeq	r0, r4, #0, 4
     a7c:	00090513 	andeq	r0, r9, r3, lsl r5
     a80:	06020402 	streq	r0, [r2], -r2, lsl #8
     a84:	00080501 	andeq	r0, r8, r1, lsl #10
     a88:	4a020402 	bmi	81a98 <__bss_end__+0x76c30>
     a8c:	4b060905 	blmi	182ea8 <__bss_end__+0x178040>
     a90:	14051315 	strne	r1, [r5], #-789	; 0xfffffceb
     a94:	054a0106 	strbeq	r0, [sl, #-262]	; 0xfffffefa
     a98:	052f0609 	streq	r0, [pc, #-1545]!	; 497 <__code_start__-0x7b69>
     a9c:	05010612 	streq	r0, [r1, #-1554]	; 0xfffff9ee
     aa0:	4b4b0609 	blmi	12c22cc <__bss_end__+0x12b7464>
     aa4:	01061005 	tsteq	r6, r5
     aa8:	4c060505 	cfstr32mi	mvfx0, [r6], {5}
     aac:	01060c05 	tsteq	r6, r5, lsl #24
     ab0:	054b0105 	strbeq	r0, [fp, #-261]	; 0xfffffefb
     ab4:	04020005 	streq	r0, [r2], #-5
     ab8:	74030601 	strvc	r0, [r3], #-1537	; 0xfffff9ff
     abc:	0402004a 	streq	r0, [r2], #-74	; 0xffffffb6
     ac0:	02000101 	andeq	r0, r0, #1073741824	; 0x40000000
     ac4:	ba060104 	blt	180edc <__bss_end__+0x176074>
     ac8:	01040200 	mrseq	r0, R12_usr
     acc:	09052e06 	stmdbeq	r5, {r1, r2, r9, sl, fp, sp}
     ad0:	82060130 	andhi	r0, r6, #12
     ad4:	01052e06 	tsteq	r5, r6, lsl #28
     ad8:	d601b603 	strle	fp, [r1], -r3, lsl #12
     adc:	05050106 	streq	r0, [r5, #-262]	; 0xfffffefa
     ae0:	0c053006 	stceq	0, cr3, [r5], {6}
     ae4:	01050106 	tsteq	r5, r6, lsl #2
     ae8:	0532062f 	ldreq	r0, [r2, #-1583]!	; 0xfffff9d1
     aec:	05133205 	ldreq	r3, [r3, #-517]	; 0xfffffdfb
     af0:	05010609 	streq	r0, [r1, #-1545]	; 0xfffff9f7
     af4:	09054a08 	stmdbeq	r5, {r3, r9, fp, lr}
     af8:	01144b06 	tsteq	r4, r6, lsl #22
     afc:	1305054a 	movwne	r0, #21834	; 0x554a
     b00:	13060105 	movwne	r0, #24837	; 0x6105
     b04:	2a060905 	bcs	182f20 <__bss_end__+0x1780b8>
     b08:	01059e01 	tsteq	r5, r1, lsl #28
     b0c:	320505a6 	andcc	r0, r5, #696254464	; 0x29800000
     b10:	06170513 			; <UNDEFINED> instruction: 0x06170513
     b14:	06050501 	streq	r0, [r5], -r1, lsl #10
     b18:	0608054b 	streq	r0, [r8], -fp, asr #10
     b1c:	06090501 	streq	r0, [r9], -r1, lsl #10
     b20:	0601144b 	streq	r1, [r1], -fp, asr #8
     b24:	052e064a 	streq	r0, [lr, #-1610]!	; 0xfffff9b6
     b28:	05131305 	ldreq	r1, [r3, #-773]	; 0xfffffcfb
     b2c:	05130601 	ldreq	r0, [r3, #-1537]	; 0xfffff9ff
     b30:	01450609 	cmpeq	r5, r9, lsl #12
     b34:	0301059e 	movweq	r0, #5534	; 0x159e
     b38:	05059e21 	streq	r9, [r5, #-3617]	; 0xfffff1df
     b3c:	17052f2f 	strne	r2, [r5, -pc, lsr #30]
     b40:	05050106 	streq	r0, [r5, #-262]	; 0xfffffefa
     b44:	01053206 	tsteq	r5, r6, lsl #4
     b48:	31061306 	tstcc	r6, r6, lsl #6
     b4c:	012f0505 			; <UNDEFINED> instruction: 0x012f0505
     b50:	000a029e 	muleq	sl, lr, r2
     b54:	01210101 			; <UNDEFINED> instruction: 0x01210101
     b58:	00030000 	andeq	r0, r3, r0
     b5c:	000000be 	strheq	r0, [r0], -lr
     b60:	0efb0102 	cdpeq	1, 15, cr0, cr11, cr2, {0}
     b64:	0101000d 	tsteq	r1, sp
     b68:	00000101 	andeq	r0, r0, r1, lsl #2
     b6c:	00000100 	andeq	r0, r0, r0, lsl #2
     b70:	6c2f2e01 	stcvs	14, cr2, [pc], #-4	; b74 <__code_start__-0x748c>
     b74:	00636269 	rsbeq	r6, r3, r9, ror #4
     b78:	6573552f 	ldrbvs	r5, [r3, #-1327]!	; 0xfffffad1
     b7c:	6d2f7372 	stcvs	3, cr7, [pc, #-456]!	; 9bc <__code_start__-0x7644>
     b80:	73656c69 	cmnvc	r5, #26880	; 0x6900
     b84:	756f532f 	strbvc	r5, [pc, #-815]!	; 85d <__code_start__-0x77a3>
     b88:	2f656372 	svccs	0x00656372
     b8c:	34327363 	ldrtcc	r7, [r2], #-867	; 0xfffffc9d
     b90:	2f786c30 	svccs	0x00786c30
     b94:	7062696c 	rsbvc	r6, r2, ip, ror #18
     b98:	6e692f69 	cdpvs	15, 6, cr2, cr9, cr9, {3}
     b9c:	64756c63 	ldrbtvs	r6, [r5], #-3171	; 0xfffff39d
     ba0:	6f2f0065 	svcvs	0x002f0065
     ba4:	682f7470 	stmdavs	pc!, {r4, r5, r6, sl, ip, sp, lr}	; <UNPREDICTABLE>
     ba8:	62656d6f 	rsbvs	r6, r5, #7104	; 0x1bc0
     bac:	2f776572 	svccs	0x00776572
     bb0:	6c6c6543 	cfstr64vs	mvdx6, [ip], #-268	; 0xfffffef4
     bb4:	612f7261 			; <UNDEFINED> instruction: 0x612f7261
     bb8:	6e2d6d72 	mcrvs	13, 1, r6, cr13, cr2, {3}
     bbc:	2d656e6f 	stclcs	14, cr6, [r5, #-444]!	; 0xfffffe44
     bc0:	69626165 	stmdbvs	r2!, {r0, r2, r5, r6, r8, sp, lr}^
     bc4:	392f392d 	stmdbcc	pc!, {r0, r2, r3, r5, r8, fp, ip, sp}	; <UNPREDICTABLE>
     bc8:	3130322d 	teqcc	r0, sp, lsr #4
     bcc:	2d347139 	ldfcss	f7, [r4, #-228]!	; 0xffffff1c
     bd0:	30317363 	eorscc	r7, r1, r3, ror #6
     bd4:	6c2f6537 	cfstr32vs	mvfx6, [pc], #-220	; b00 <__code_start__-0x7500>
     bd8:	672f6269 	strvs	r6, [pc, -r9, ror #4]!
     bdc:	612f6363 			; <UNDEFINED> instruction: 0x612f6363
     be0:	6e2d6d72 	mcrvs	13, 1, r6, cr13, cr2, {3}
     be4:	2d656e6f 	stclcs	14, cr6, [r5, #-444]!	; 0xfffffe44
     be8:	69626165 	stmdbvs	r2!, {r0, r2, r5, r6, r8, sp, lr}^
     bec:	322e392f 	eorcc	r3, lr, #770048	; 0xbc000
     bf0:	692f312e 	stmdbvs	pc!, {r1, r2, r3, r5, r8, ip, sp}	; <UNPREDICTABLE>
     bf4:	756c636e 	strbvc	r6, [ip, #-878]!	; 0xfffffc92
     bf8:	00006564 	andeq	r6, r0, r4, ror #10
     bfc:	736d656d 	cmnvc	sp, #457179136	; 0x1b400000
     c00:	632e7465 			; <UNDEFINED> instruction: 0x632e7465
     c04:	00000100 	andeq	r0, r0, r0, lsl #2
     c08:	2e697072 	mcrcs	0, 3, r7, cr9, cr2, {3}
     c0c:	00020068 	andeq	r0, r2, r8, rrx
     c10:	64747300 	ldrbtvs	r7, [r4], #-768	; 0xfffffd00
     c14:	2e666564 	cdpcs	5, 6, cr6, cr6, cr4, {3}
     c18:	00030068 	andeq	r0, r3, r8, rrx
     c1c:	29050000 	stmdbcs	r5, {}	; <UNPREDICTABLE>
     c20:	94020500 	strls	r0, [r2], #-1280	; 0xfffffb00
     c24:	1500008b 	strne	r0, [r0, #-139]	; 0xffffff75
     c28:	05130505 	ldreq	r0, [r3, #-1285]	; 0xfffffafb
     c2c:	05110629 	ldreq	r0, [r1, #-1577]	; 0xfffff9d7
     c30:	05052f14 	streq	r2, [r5, #-3860]	; 0xfffff0ec
     c34:	0a053006 	beq	14cc54 <__bss_end__+0x141dec>
     c38:	059e0601 	ldreq	r0, [lr, #1537]	; 0x601
     c3c:	05d70609 	ldrbeq	r0, [r7, #1545]	; 0x609
     c40:	0501060e 	streq	r0, [r1, #-1550]	; 0xfffff9f2
     c44:	052d060a 	streq	r0, [sp, #-1546]!	; 0xfffff9f6
     c48:	0e05bb09 	vmlaeq.f64	d11, d5, d9
     c4c:	052e0106 	streq	r0, [lr, #-262]!	; 0xfffffefa
     c50:	052d060a 	streq	r0, [sp, #-1546]!	; 0xfffff9f6
     c54:	0b054b09 	bleq	153880 <__bss_end__+0x148a18>
     c58:	0a050106 	beq	141078 <__bss_end__+0x136210>
     c5c:	2f0e052d 	svccs	0x000e052d
     c60:	2d060a05 	vstrcs	s0, [r6, #-20]	; 0xffffffec
     c64:	13060e05 	movwne	r0, #28165	; 0x6e05
     c68:	2e060905 	vmlacs.f16	s0, s12, s10	; <UNPREDICTABLE>
     c6c:	05110a05 	ldreq	r0, [r1, #-2565]	; 0xfffff5fb
     c70:	01051405 	tsteq	r5, r5, lsl #8
     c74:	02021306 	andeq	r1, r2, #402653184	; 0x18000000
     c78:	20010100 	andcs	r0, r1, r0, lsl #2
     c7c:	03000001 	movweq	r0, #1
     c80:	0000db00 	andeq	sp, r0, r0, lsl #22
     c84:	fb010200 	blx	4148e <__bss_end__+0x36626>
     c88:	01000d0e 	tsteq	r0, lr, lsl #26
     c8c:	00010101 	andeq	r0, r1, r1, lsl #2
     c90:	00010000 	andeq	r0, r1, r0
     c94:	2f2e0100 	svccs	0x002e0100
     c98:	6362696c 	cmnvs	r2, #108, 18	; 0x1b0000
     c9c:	706f2f00 	rsbvc	r2, pc, r0, lsl #30
     ca0:	6f682f74 	svcvs	0x00682f74
     ca4:	7262656d 	rsbvc	r6, r2, #457179136	; 0x1b400000
     ca8:	432f7765 			; <UNDEFINED> instruction: 0x432f7765
     cac:	616c6c65 	cmnvs	ip, r5, ror #24
     cb0:	72612f72 	rsbvc	r2, r1, #456	; 0x1c8
     cb4:	6f6e2d6d 	svcvs	0x006e2d6d
     cb8:	652d656e 	strvs	r6, [sp, #-1390]!	; 0xfffffa92
     cbc:	2d696261 	sfmcs	f6, 2, [r9, #-388]!	; 0xfffffe7c
     cc0:	2d392f39 	ldccs	15, cr2, [r9, #-228]!	; 0xffffff1c
     cc4:	39313032 	ldmdbcc	r1!, {r1, r4, r5, ip, sp}
     cc8:	632d3471 			; <UNDEFINED> instruction: 0x632d3471
     ccc:	37303173 			; <UNDEFINED> instruction: 0x37303173
     cd0:	696c2f65 	stmdbvs	ip!, {r0, r2, r5, r6, r8, r9, sl, fp, sp}^
     cd4:	63672f62 	cmnvs	r7, #392	; 0x188
     cd8:	72612f63 	rsbvc	r2, r1, #396	; 0x18c
     cdc:	6f6e2d6d 	svcvs	0x006e2d6d
     ce0:	652d656e 	strvs	r6, [sp, #-1390]!	; 0xfffffa92
     ce4:	2f696261 	svccs	0x00696261
     ce8:	2e322e39 	mrccs	14, 1, r2, cr2, cr9, {1}
     cec:	6e692f31 	mcrvs	15, 3, r2, cr9, cr1, {1}
     cf0:	64756c63 	ldrbtvs	r6, [r5], #-3171	; 0xfffff39d
     cf4:	552f0065 	strpl	r0, [pc, #-101]!	; c97 <__code_start__-0x7369>
     cf8:	73726573 	cmnvc	r2, #482344960	; 0x1cc00000
     cfc:	6c696d2f 	stclvs	13, cr6, [r9], #-188	; 0xffffff44
     d00:	532f7365 			; <UNDEFINED> instruction: 0x532f7365
     d04:	6372756f 	cmnvs	r2, #465567744	; 0x1bc00000
     d08:	73632f65 	cmnvc	r3, #404	; 0x194
     d0c:	6c303432 	cfldrsvs	mvf3, [r0], #-200	; 0xffffff38
     d10:	696c2f78 	stmdbvs	ip!, {r3, r4, r5, r6, r8, r9, sl, fp, sp}^
     d14:	2f697062 	svccs	0x00697062
     d18:	6c636e69 	stclvs	14, cr6, [r3], #-420	; 0xfffffe5c
     d1c:	00656475 	rsbeq	r6, r5, r5, ror r4
     d20:	69727000 	ldmdbvs	r2!, {ip, sp, lr}^
     d24:	2e6b746e 	cdpcs	4, 6, cr7, cr11, cr14, {3}
     d28:	00010063 	andeq	r0, r1, r3, rrx
     d2c:	64747300 	ldrbtvs	r7, [r4], #-768	; 0xfffffd00
     d30:	2e677261 	cdpcs	2, 6, cr7, cr7, cr1, {3}
     d34:	00020068 	andeq	r0, r2, r8, rrx
     d38:	69707200 	ldmdbvs	r0!, {r9, ip, sp, lr}^
     d3c:	0300682e 	movweq	r6, #2094	; 0x82e
     d40:	623c0000 	eorsvs	r0, ip, #0, 0
     d44:	746c6975 	strbtvc	r6, [ip], #-2421	; 0xfffff68b
     d48:	3e6e692d 	vmulcc.f16	s13, s28, s27	; <UNPREDICTABLE>
     d4c:	00000000 	andeq	r0, r0, r0
     d50:	702d6176 	eorvc	r6, sp, r6, ror r1
     d54:	746e6972 	strbtvc	r6, [lr], #-2418	; 0xfffff68e
     d58:	00682e6b 	rsbeq	r2, r8, fp, ror #28
     d5c:	00000001 	andeq	r0, r0, r1
     d60:	05002205 	streq	r2, [r0, #-517]	; 0xfffffdfb
     d64:	008c0c02 	addeq	r0, ip, r2, lsl #24
     d68:	05051700 	streq	r1, [r5, #-1792]	; 0xfffff900
     d6c:	05141314 	ldreq	r1, [r4, #-788]	; 0xfffffcec
     d70:	050d0622 	streq	r0, [sp, #-1570]	; 0xfffff9de
     d74:	22055012 	andcs	r5, r5, #18, 0
     d78:	052e7a03 	streq	r7, [lr, #-2563]!	; 0xfffff5fd
     d7c:	12053305 	andne	r3, r5, #335544320	; 0x14000000
     d80:	6505052f 	strvs	r0, [r5, #-1327]	; 0xfffffad1
     d84:	2f060905 	svccs	0x00060905
     d88:	01061205 	tsteq	r6, r5, lsl #4
     d8c:	4b060505 	blmi	1821a8 <__bss_end__+0x177340>
     d90:	064a0616 			; <UNDEFINED> instruction: 0x064a0616
     d94:	06010550 			; <UNDEFINED> instruction: 0x06010550
     d98:	08026613 	stmdaeq	r2, {r0, r1, r4, r9, sl, sp, lr}
     d9c:	a0010100 	andge	r0, r1, r0, lsl #2
     da0:	03000000 	movweq	r0, #0
     da4:	00005700 	andeq	r5, r0, r0, lsl #14
     da8:	fb010200 	blx	415b2 <__bss_end__+0x3674a>
     dac:	01000d0e 	tsteq	r0, lr, lsl #26
     db0:	00010101 	andeq	r0, r1, r1, lsl #2
     db4:	00010000 	andeq	r0, r1, r0
     db8:	2f2e0100 	svccs	0x002e0100
     dbc:	6362696c 	cmnvs	r2, #108, 18	; 0x1b0000
     dc0:	73552f00 	cmpvc	r5, #0, 30
     dc4:	2f737265 	svccs	0x00737265
     dc8:	656c696d 	strbvs	r6, [ip, #-2413]!	; 0xfffff693
     dcc:	6f532f73 	svcvs	0x00532f73
     dd0:	65637275 	strbvs	r7, [r3, #-629]!	; 0xfffffd8b
     dd4:	3273632f 	rsbscc	r6, r3, #-1140850688	; 0xbc000000
     dd8:	786c3034 	stmdavc	ip!, {r2, r4, r5, ip, sp}^
     ddc:	62696c2f 	rsbvs	r6, r9, #12032	; 0x2f00
     de0:	692f6970 	stmdbvs	pc!, {r4, r5, r6, r8, fp, sp, lr}	; <UNPREDICTABLE>
     de4:	756c636e 	strbvc	r6, [ip, #-878]!	; 0xfffffc92
     de8:	00006564 	andeq	r6, r0, r4, ror #10
     dec:	6b747570 	blvs	1d1e3b4 <__bss_end__+0x1d1354c>
     df0:	0100632e 	tsteq	r0, lr, lsr #6
     df4:	70720000 	rsbsvc	r0, r2, r0
     df8:	00682e69 	rsbeq	r2, r8, r9, ror #28
     dfc:	00000002 	andeq	r0, r0, r2
     e00:	05002205 	streq	r2, [r0, #-517]	; 0xfffffdfb
     e04:	008c6402 	addeq	r6, ip, r2, lsl #8
     e08:	05051500 	streq	r1, [r5, #-1280]	; 0xfffffb00
     e0c:	06220513 			; <UNDEFINED> instruction: 0x06220513
     e10:	0b052e11 	bleq	14c65c <__bss_end__+0x1417f4>
     e14:	05052f06 	streq	r2, [r5, #-3846]	; 0xfffff0fa
     e18:	09052e06 	stmdbeq	r5, {r1, r2, r9, sl, fp, sp}
     e1c:	02040200 	andeq	r0, r4, #0, 4
     e20:	0f056706 	svceq	0x00056706
     e24:	02040200 	andeq	r0, r4, #0, 4
     e28:	000b0549 	andeq	r0, fp, r9, asr #10
     e2c:	01020402 	tsteq	r2, r2, lsl #8
     e30:	02000505 	andeq	r0, r0, #20971520	; 0x1400000
     e34:	2e060204 	cdpcs	2, 0, cr0, cr6, cr4, {0}
     e38:	01054e06 	tsteq	r5, r6, lsl #28
     e3c:	06021306 	streq	r1, [r2], -r6, lsl #6
     e40:	fa010100 	blx	41248 <__bss_end__+0x363e0>
     e44:	03000008 	movweq	r0, #8
     e48:	0000f100 	andeq	pc, r0, r0, lsl #2
     e4c:	fb010200 	blx	41656 <__bss_end__+0x367ee>
     e50:	01000d0e 	tsteq	r0, lr, lsl #26
     e54:	00010101 	andeq	r0, r1, r1, lsl #2
     e58:	00010000 	andeq	r0, r1, r0
     e5c:	2f2e0100 	svccs	0x002e0100
     e60:	6362696c 	cmnvs	r2, #108, 18	; 0x1b0000
     e64:	706f2f00 	rsbvc	r2, pc, r0, lsl #30
     e68:	6f682f74 	svcvs	0x00682f74
     e6c:	7262656d 	rsbvc	r6, r2, #457179136	; 0x1b400000
     e70:	432f7765 			; <UNDEFINED> instruction: 0x432f7765
     e74:	616c6c65 	cmnvs	ip, r5, ror #24
     e78:	72612f72 	rsbvc	r2, r1, #456	; 0x1c8
     e7c:	6f6e2d6d 	svcvs	0x006e2d6d
     e80:	652d656e 	strvs	r6, [sp, #-1390]!	; 0xfffffa92
     e84:	2d696261 	sfmcs	f6, 2, [r9, #-388]!	; 0xfffffe7c
     e88:	2d392f39 	ldccs	15, cr2, [r9, #-228]!	; 0xffffff1c
     e8c:	39313032 	ldmdbcc	r1!, {r1, r4, r5, ip, sp}
     e90:	632d3471 			; <UNDEFINED> instruction: 0x632d3471
     e94:	37303173 			; <UNDEFINED> instruction: 0x37303173
     e98:	696c2f65 	stmdbvs	ip!, {r0, r2, r5, r6, r8, r9, sl, fp, sp}^
     e9c:	63672f62 	cmnvs	r7, #392	; 0x188
     ea0:	72612f63 	rsbvc	r2, r1, #396	; 0x18c
     ea4:	6f6e2d6d 	svcvs	0x006e2d6d
     ea8:	652d656e 	strvs	r6, [sp, #-1390]!	; 0xfffffa92
     eac:	2f696261 	svccs	0x00696261
     eb0:	2e322e39 	mrccs	14, 1, r2, cr2, cr9, {1}
     eb4:	6e692f31 	mcrvs	15, 3, r2, cr9, cr1, {1}
     eb8:	64756c63 	ldrbtvs	r6, [r5], #-3171	; 0xfffff39d
     ebc:	552f0065 	strpl	r0, [pc, #-101]!	; e5f <__code_start__-0x71a1>
     ec0:	73726573 	cmnvc	r2, #482344960	; 0x1cc00000
     ec4:	6c696d2f 	stclvs	13, cr6, [r9], #-188	; 0xffffff44
     ec8:	532f7365 			; <UNDEFINED> instruction: 0x532f7365
     ecc:	6372756f 	cmnvs	r2, #465567744	; 0x1bc00000
     ed0:	73632f65 	cmnvc	r3, #404	; 0x194
     ed4:	6c303432 	cfldrsvs	mvf3, [r0], #-200	; 0xffffff38
     ed8:	696c2f78 	stmdbvs	ip!, {r3, r4, r5, r6, r8, r9, sl, fp, sp}^
     edc:	2f697062 	svccs	0x00697062
     ee0:	6c636e69 	stclvs	14, cr6, [r3], #-420	; 0xfffffe5c
     ee4:	00656475 	rsbeq	r6, r5, r5, ror r4
     ee8:	2d617600 	stclcs	6, cr7, [r1, #-0]
     eec:	6e697270 	mcrvs	2, 3, r7, cr9, cr0, {3}
     ef0:	632e6b74 			; <UNDEFINED> instruction: 0x632e6b74
     ef4:	00000100 	andeq	r0, r0, r0, lsl #2
     ef8:	69647473 	stmdbvs	r4!, {r0, r1, r4, r5, r6, sl, ip, sp, lr}^
     efc:	672d746e 	strvs	r7, [sp, -lr, ror #8]!
     f00:	682e6363 	stmdavs	lr!, {r0, r1, r5, r6, r8, r9, sp, lr}
     f04:	00000200 	andeq	r0, r0, r0, lsl #4
     f08:	2e697072 	mcrcs	0, 3, r7, cr9, cr2, {3}
     f0c:	00030068 	andeq	r0, r3, r8, rrx
     f10:	69707200 	ldmdbvs	r0!, {r9, ip, sp, lr}^
     f14:	746e692d 	strbtvc	r6, [lr], #-2349	; 0xfffff6d3
     f18:	616e7265 	cmnvs	lr, r5, ror #4
     f1c:	00682e6c 	rsbeq	r2, r8, ip, ror #28
     f20:	73000003 	movwvc	r0, #3
     f24:	72616474 	rsbvc	r6, r1, #116, 8	; 0x74000000
     f28:	00682e67 	rsbeq	r2, r8, r7, ror #28
     f2c:	3c000002 	stccc	0, cr0, [r0], {2}
     f30:	6c697562 	cfstr64vs	mvdx7, [r9], #-392	; 0xfffffe78
     f34:	6e692d74 	mcrvs	13, 3, r2, cr9, cr4, {3}
     f38:	0000003e 	andeq	r0, r0, lr, lsr r0
     f3c:	01050000 	mrseq	r0, (UNDEF: 5)
     f40:	9c020500 	cfstr32ls	mvfx0, [r2], {-0}
     f44:	0300008c 	movweq	r0, #140	; 0x8c
     f48:	050100c8 	streq	r0, [r1, #-200]	; 0xffffff38
     f4c:	01051402 	tsteq	r5, r2, lsl #8
     f50:	04051006 	streq	r1, [r5], #-6
     f54:	2c010530 	cfstr32cs	mvfx0, [r1], {48}	; 0x30
     f58:	3004054a 	andcc	r0, r4, sl, asr #10
     f5c:	31060205 	tstcc	r6, r5, lsl #4
     f60:	060b0513 			; <UNDEFINED> instruction: 0x060b0513
     f64:	0602052e 	streq	r0, [r2], -lr, lsr #10
     f68:	06090530 			; <UNDEFINED> instruction: 0x06090530
     f6c:	2e0d2402 	cdpcs	4, 0, cr2, cr13, cr2, {0}
     f70:	060d052e 	streq	r0, [sp], -lr, lsr #10
     f74:	054a1703 	strbeq	r1, [sl, #-1795]	; 0xfffff8fd
     f78:	2d051311 	stccs	3, cr1, [r5, #-68]	; 0xffffffbc
     f7c:	16050106 	strne	r0, [r5], -r6, lsl #2
     f80:	2f0d052e 	svccs	0x000d052e
     f84:	052d1605 	streq	r1, [sp, #-1541]!	; 0xfffff9fb
     f88:	052f0614 	streq	r0, [pc, #-1556]!	; 97c <__code_start__-0x7684>
     f8c:	05010617 	streq	r0, [r1, #-1559]	; 0xfffff9e9
     f90:	2f062e0d 	svccs	0x00062e0d
     f94:	01061205 	tsteq	r6, r5, lsl #4
     f98:	052d2f2e 	streq	r2, [sp, #-3886]!	; 0xfffff0d2
     f9c:	052f060d 	streq	r0, [pc, #-1549]!	; 997 <__code_start__-0x7669>
     fa0:	05010612 	streq	r0, [r1, #-1554]	; 0xfffff9ee
     fa4:	052f0619 	streq	r0, [pc, #-1561]!	; 993 <__code_start__-0x766d>
     fa8:	01110304 	tsteq	r1, r4, lsl #6
     fac:	15020501 	strne	r0, [r2, #-1281]	; 0xfffffaff
     fb0:	b2030e05 	andlt	r0, r3, #80	; 0x50
     fb4:	0205017f 	andeq	r0, r5, #-1073741793	; 0xc000001f
     fb8:	06060513 			; <UNDEFINED> instruction: 0x06060513
     fbc:	06020501 	streq	r0, [r2], -r1, lsl #10
     fc0:	01080530 	tsteq	r8, r0, lsr r5
     fc4:	01060205 	tsteq	r6, r5, lsl #4
     fc8:	0808054a 	stmdaeq	r8, {r1, r3, r6, r8, sl}
     fcc:	06030591 			; <UNDEFINED> instruction: 0x06030591
     fd0:	0608054a 	streq	r0, [r8], -sl, asr #10
     fd4:	06150501 	ldreq	r0, [r5], -r1, lsl #10
     fd8:	0108052d 	tsteq	r8, sp, lsr #10
     fdc:	05d70305 	ldrbeq	r0, [r7, #773]	; 0x305
     fe0:	05010608 	streq	r0, [r1, #-1544]	; 0xfffff9f8
     fe4:	02052d18 	andeq	r2, r5, #24, 26	; 0x600
     fe8:	2f08052e 	svccs	0x0008052e
     fec:	2d061505 	cfstr32cs	mvfx1, [r6, #-20]	; 0xffffffec
     ff0:	05010805 	streq	r0, [r1, #-2053]	; 0xfffff7fb
     ff4:	05010602 	streq	r0, [r1, #-1538]	; 0xfffff9fe
     ff8:	052f0603 	streq	r0, [pc, #-1539]!	; 9fd <__code_start__-0x7603>
     ffc:	05110618 	ldreq	r0, [r1, #-1560]	; 0xfffff9e8
    1000:	08052e02 	stmdaeq	r5, {r1, r9, sl, fp, sp}
    1004:	0615052f 	ldreq	r0, [r5], -pc, lsr #10
    1008:	0108052d 	tsteq	r8, sp, lsr #10
    100c:	05130305 	ldreq	r0, [r3, #-773]	; 0xfffffcfb
    1010:	05010608 	streq	r0, [r1, #-1544]	; 0xfffff9f8
    1014:	052d0615 	streq	r0, [sp, #-1557]!	; 0xfffff9eb
    1018:	01060108 	tsteq	r6, r8, lsl #2
    101c:	a0060205 	andge	r0, r6, r5, lsl #4
    1020:	01060505 	tsteq	r6, r5, lsl #10
    1024:	05360405 	ldreq	r0, [r6, #-1029]!	; 0xfffffbfb
    1028:	09052f11 	stmdbeq	r5, {r0, r4, r8, r9, sl, fp, sp}
    102c:	3302052e 	movwcc	r0, #9518	; 0x252e
    1030:	72030505 	andvc	r0, r3, #20971520	; 0x1400000
    1034:	0602052e 	streq	r0, [r2], -lr, lsr #10
    1038:	0501062f 	streq	r0, [r1, #-1583]	; 0xfffff9d1
    103c:	0516060e 	ldreq	r0, [r6, #-1550]	; 0xfffff9f2
    1040:	05131402 	ldreq	r1, [r3, #-1026]	; 0xfffffbfe
    1044:	02051303 	andeq	r1, r5, #201326592	; 0xc000000
    1048:	0b051514 	bleq	1464a0 <__bss_end__+0x13b638>
    104c:	06020501 	streq	r0, [r2], -r1, lsl #10
    1050:	03052e01 	movweq	r2, #24065	; 0x5e01
    1054:	0a056706 	beq	15ac74 <__bss_end__+0x14fe0c>
    1058:	02050106 	andeq	r0, r5, #-2147483647	; 0x80000001
    105c:	2f0a052d 	svccs	0x000a052d
    1060:	2d061705 	stccs	7, cr1, [r6, #-20]	; 0xffffffec
    1064:	05010b05 	streq	r0, [r1, #-2821]	; 0xfffff4fb
    1068:	05010602 	streq	r0, [r1, #-1538]	; 0xfffff9fe
    106c:	052e4c09 	streq	r4, [lr, #-3081]!	; 0xfffff3f7
    1070:	052e0602 	streq	r0, [lr, #-1538]!	; 0xfffff9fe
    1074:	05010609 	streq	r0, [r1, #-1545]	; 0xfffff9f7
    1078:	06300602 	ldrteq	r0, [r0], -r2, lsl #12
    107c:	03010501 	movweq	r0, #5377	; 0x1501
    1080:	09050138 	stmdbeq	r5, {r3, r4, r5, r8}
    1084:	2e4a4f03 	cdpcs	15, 4, cr4, cr10, cr3, {0}
    1088:	0619052e 	ldreq	r0, [r9], -lr, lsr #10
    108c:	054a2703 	strbeq	r2, [sl, #-1795]	; 0xfffff8fd
    1090:	2805131a 	stmdacs	r5, {r1, r3, r4, r8, r9, ip}
    1094:	1f050106 	svcne	0x00050106
    1098:	2f04052e 	svccs	0x0004052e
    109c:	052d1f05 	streq	r1, [sp, #-3845]!	; 0xfffff0fb
    10a0:	052f060b 	streq	r0, [pc, #-1547]!	; a9d <__code_start__-0x7563>
    10a4:	0501060e 	streq	r0, [r1, #-1550]	; 0xfffff9f2
    10a8:	02052e04 	andeq	r2, r5, #4, 28	; 0x40
    10ac:	4a590306 	bmi	1641ccc <__bss_end__+0x1636e64>
    10b0:	060b0513 			; <UNDEFINED> instruction: 0x060b0513
    10b4:	0602052e 	streq	r0, [r2], -lr, lsr #10
    10b8:	06090530 			; <UNDEFINED> instruction: 0x06090530
    10bc:	050d2402 	streq	r2, [sp, #-1026]	; 0xfffffbfe
    10c0:	13360604 	teqne	r6, #4, 12	; 0x400000
    10c4:	01060605 	tsteq	r6, r5, lsl #12
    10c8:	67060505 	strvs	r0, [r6, -r5, lsl #10]
    10cc:	09051313 	stmdbeq	r5, {r0, r1, r4, r8, r9, ip}
    10d0:	0d051106 	stfeqs	f1, [r5, #-24]	; 0xffffffe8
    10d4:	300b052b 	andcc	r0, fp, fp, lsr #10
    10d8:	052c0d05 	streq	r0, [ip, #-3333]!	; 0xfffff2fb
    10dc:	0405351b 	streq	r3, [r5], #-1307	; 0xfffffae5
    10e0:	05052d06 	streq	r2, [r5, #-3334]	; 0xfffff2fa
    10e4:	061b0513 			; <UNDEFINED> instruction: 0x061b0513
    10e8:	820a052e 	andhi	r0, sl, #192937984	; 0xb800000
    10ec:	052f0405 	streq	r0, [pc, #-1029]!	; cef <__code_start__-0x7311>
    10f0:	0a052e0e 	beq	14c930 <__bss_end__+0x141ac8>
    10f4:	060b0549 	streq	r0, [fp], -r9, asr #10
    10f8:	0604052f 	streq	r0, [r4], -pc, lsr #10
    10fc:	052f0601 	streq	r0, [pc, #-1537]!	; b03 <__code_start__-0x74fd>
    1100:	05010606 	streq	r0, [r1, #-1542]	; 0xfffff9fa
    1104:	052f0605 	streq	r0, [pc, #-1541]!	; b07 <__code_start__-0x74f9>
    1108:	2e01060a 	cfmadd32cs	mvax0, mvfx0, mvfx1, mvfx10
    110c:	2e2e0705 	cdpcs	7, 2, cr0, cr14, cr5, {0}
    1110:	0604052e 	streq	r0, [r4], -lr, lsr #10
    1114:	05010d03 	streq	r0, [r1, #-3331]	; 0xfffff2fd
    1118:	46030602 	strmi	r0, [r3], -r2, lsl #12
    111c:	03090501 	movweq	r0, #38145	; 0x9501
    1120:	04052e3a 	streq	r2, [r5], #-3642	; 0xfffff1c6
    1124:	0d032f06 	stceq	15, cr2, [r3, #-24]	; 0xffffffe8
    1128:	02050101 	andeq	r0, r5, #1073741824	; 0x40000000
    112c:	030e0515 	movweq	r0, #58645	; 0xe515
    1130:	05017fb2 	streq	r7, [r1, #-4018]	; 0xfffff04e
    1134:	05141302 	ldreq	r1, [r4, #-770]	; 0xfffffcfe
    1138:	06050108 	streq	r0, [r5], -r8, lsl #2
    113c:	3c031006 	stccc	0, cr1, [r3], {6}
    1140:	0302052e 	movweq	r0, #9518	; 0x252e
    1144:	30064a46 	andcc	r4, r6, r6, asr #20
    1148:	01060505 	tsteq	r6, r5, lsl #10
    114c:	02052e2e 	andeq	r2, r5, #736	; 0x2e0
    1150:	01064b06 	tsteq	r6, r6, lsl #22
    1154:	16060e05 	strne	r0, [r6], -r5, lsl #28
    1158:	13140205 	tstne	r4, #1342177280	; 0x50000000
    115c:	0b051515 	bleq	1465b8 <__bss_end__+0x13b750>
    1160:	06020501 	streq	r0, [r2], -r1, lsl #10
    1164:	0530062e 	ldreq	r0, [r0, #-1582]!	; 0xfffff9d2
    1168:	05010609 	streq	r0, [r1, #-1545]	; 0xfffff9f7
    116c:	064c0602 	strbeq	r0, [ip], -r2, lsl #12
    1170:	03010501 	movweq	r0, #5377	; 0x1501
    1174:	06050138 			; <UNDEFINED> instruction: 0x06050138
    1178:	054a6e03 	strbeq	r6, [sl, #-3587]	; 0xfffff1fd
    117c:	66460302 	strbvs	r0, [r6], -r2, lsl #6
    1180:	04052e4a 	streq	r2, [r5], #-3658	; 0xfffff1b6
    1184:	00c80306 	sbceq	r0, r8, r6, lsl #6
    1188:	01010101 	tsteq	r1, r1, lsl #2
    118c:	06822e06 	streq	r2, [r2], r6, lsl #28
    1190:	2e72034a 	cdpcs	3, 7, cr0, cr2, cr10, {2}
    1194:	01060905 	tsteq	r6, r5, lsl #18
    1198:	2f060405 	svccs	0x00060405
    119c:	01010d03 	tsteq	r1, r3, lsl #26
    11a0:	05150205 	ldreq	r0, [r5, #-517]	; 0xfffffdfb
    11a4:	7fb2030e 	svcvc	0x00b2030e
    11a8:	13020501 	movwne	r0, #9473	; 0x2501
    11ac:	01080514 	tsteq	r8, r4, lsl r5
    11b0:	03060905 	movweq	r0, #26885	; 0x6905
    11b4:	0605011b 			; <UNDEFINED> instruction: 0x0605011b
    11b8:	032e6303 			; <UNDEFINED> instruction: 0x032e6303
    11bc:	2e2e2e3c 	mcrcs	14, 1, r2, cr14, cr12, {1}
    11c0:	03064805 	movweq	r4, #26629	; 0x6805
    11c4:	3c087fb4 	stccc	15, cr7, [r8], {180}	; 0xb4
    11c8:	01130505 	tsteq	r3, r5, lsl #10
    11cc:	02002e06 	andeq	r2, r0, #96	; 0x60
    11d0:	2e060204 	cdpcs	2, 0, cr0, cr6, cr4, {0}
    11d4:	02040200 	andeq	r0, r4, #0, 4
    11d8:	04020001 	streq	r0, [r2], #-1
    11dc:	11051302 	tstne	r5, r2, lsl #6
    11e0:	02040200 	andeq	r0, r4, #0, 4
    11e4:	07050106 	streq	r0, [r5, -r6, lsl #2]
    11e8:	02040200 	andeq	r0, r4, #0, 4
    11ec:	0011052f 	andseq	r0, r1, pc, lsr #10
    11f0:	2d020402 	cfstrscs	mvf0, [r2, #-8]
    11f4:	02000505 	andeq	r0, r0, #20971520	; 0x1400000
    11f8:	2f060204 	svccs	0x00060204
    11fc:	02000905 	andeq	r0, r0, #81920	; 0x14000
    1200:	05130204 	ldreq	r0, [r3, #-516]	; 0xfffffdfc
    1204:	0402000e 	streq	r0, [r2], #-14
    1208:	05010602 	streq	r0, [r1, #-1538]	; 0xfffff9fe
    120c:	04020005 	streq	r0, [r2], #-5
    1210:	00630601 	rsbeq	r0, r3, r1, lsl #12
    1214:	01010402 	tsteq	r1, r2, lsl #8
    1218:	02004805 	andeq	r4, r0, #327680	; 0x50000
    121c:	11060104 	tstne	r6, r4, lsl #2
    1220:	02000505 	andeq	r0, r0, #20971520	; 0x1400000
    1224:	052f0104 	streq	r0, [pc, #-260]!	; 1128 <__code_start__-0x6ed8>
    1228:	04020048 	streq	r0, [r2], #-72	; 0xffffffb8
    122c:	05052d01 	streq	r2, [r5, #-3329]	; 0xfffff2ff
    1230:	01040200 	mrseq	r0, R12_usr
    1234:	0402002f 	streq	r0, [r2], #-47	; 0xffffffd1
    1238:	02004a01 	andeq	r4, r0, #4096	; 0x1000
    123c:	004a0104 	subeq	r0, sl, r4, lsl #2
    1240:	06010402 	streq	r0, [r1], -r2, lsl #8
    1244:	0340054a 	movteq	r0, #1354	; 0x54a
    1248:	06d600e1 	ldrbeq	r0, [r6], r1, ror #1
    124c:	4e090501 	cfsh32mi	mvfx0, mvfx9, #1
    1250:	3008052e 	andcc	r0, r8, lr, lsr #10
    1254:	05291e05 	streq	r1, [r9, #-3589]!	; 0xfffff1fb
    1258:	0d052e12 	stceq	14, cr2, [r5, #-72]	; 0xffffffb8
    125c:	06020533 			; <UNDEFINED> instruction: 0x06020533
    1260:	13050545 	movwne	r0, #21829	; 0x5545
    1264:	05140205 	ldreq	r0, [r4, #-517]	; 0xfffffdfb
    1268:	02051305 	andeq	r1, r5, #335544320	; 0x14000000
    126c:	01080513 	tsteq	r8, r3, lsl r5
    1270:	03064005 	movweq	r4, #24581	; 0x6005
    1274:	052e017a 	streq	r0, [lr, #-378]!	; 0xfffffe86
    1278:	0566340d 	strbeq	r3, [r6, #-1037]!	; 0xfffffbf3
    127c:	4a200311 	bmi	801ec8 <__bss_end__+0x7f7060>
    1280:	0604054a 	streq	r0, [r4], -sl, asr #10
    1284:	05016203 	streq	r6, [r1, #-515]	; 0xfffffdfd
    1288:	05010609 	streq	r0, [r1, #-1545]	; 0xfffff9f7
    128c:	08052e0f 	stmdaeq	r5, {r0, r1, r2, r3, r9, sl, fp, sp}
    1290:	0d052c06 	stceq	12, cr2, [r5, #-24]	; 0xffffffe8
    1294:	03052e06 	movweq	r2, #24070	; 0x5e06
    1298:	05056706 	streq	r6, [r5, #-1798]	; 0xfffff8fa
    129c:	08050106 	stmdaeq	r5, {r1, r2, r8}
    12a0:	0e054d06 	cdpeq	13, 0, cr4, cr5, cr6, {0}
    12a4:	0a050106 	beq	1416c4 <__bss_end__+0x13685c>
    12a8:	2f09052e 	svccs	0x0009052e
    12ac:	2f060405 	svccs	0x00060405
    12b0:	01060705 	tsteq	r6, r5, lsl #14
    12b4:	052c0a05 	streq	r0, [ip, #-2565]!	; 0xfffff5fb
    12b8:	05320604 	ldreq	r0, [r2, #-1540]!	; 0xfffff9fc
    12bc:	9803062d 	stmdals	r3, {r0, r2, r3, r5, r9, sl}
    12c0:	0905017f 	stmdbeq	r5, {r0, r1, r2, r3, r4, r5, r6, r8}
    12c4:	2e00ed03 	cdpcs	13, 0, cr14, cr0, cr3, {0}
    12c8:	052c0d05 	streq	r0, [ip, #-3333]!	; 0xfffff2fb
    12cc:	04052b07 	streq	r2, [r5], #-2823	; 0xfffff4f9
    12d0:	14133006 	ldrne	r3, [r3], #-6
    12d4:	05010905 	streq	r0, [r1, #-2309]	; 0xfffff6fb
    12d8:	7f93030c 	svcvc	0x0093030c
    12dc:	011d0501 	tsteq	sp, r1, lsl #10
    12e0:	09050106 	stmdbeq	r5, {r1, r2, r8}
    12e4:	0100ed03 	tsteq	r0, r3, lsl #26
    12e8:	2f060505 	svccs	0x00060505
    12ec:	01061205 	tsteq	r6, r5, lsl #4
    12f0:	0b052d2e 	bleq	14c7b0 <__bss_end__+0x141948>
    12f4:	0605052f 	streq	r0, [r5], -pc, lsr #10
    12f8:	1009052f 	andne	r0, r9, pc, lsr #10
    12fc:	93030c05 	movwls	r0, #15365	; 0x3c05
    1300:	1d05017f 	stfnes	f0, [r5, #-508]	; 0xfffffe04
    1304:	062d0501 	strteq	r0, [sp], -r1, lsl #10
    1308:	03090501 	movweq	r0, #38145	; 0x9501
    130c:	052e00ed 	streq	r0, [lr, #-237]!	; 0xffffff13
    1310:	014e0604 	cmpeq	lr, r4, lsl #12
    1314:	02040200 	andeq	r0, r4, #0, 4
    1318:	0402004a 	streq	r0, [r2], #-74	; 0xffffffb6
    131c:	02000102 	andeq	r0, r0, #-2147483648	; 0x80000000
    1320:	00150204 	andseq	r0, r5, r4, lsl #4
    1324:	06020402 	streq	r0, [r2], -r2, lsl #8
    1328:	00123602 	andseq	r3, r2, r2, lsl #12
    132c:	2e020402 	cdpcs	4, 0, cr0, cr2, cr2, {0}
    1330:	03060205 	movweq	r0, #25093	; 0x6205
    1334:	050100d1 	streq	r0, [r1, #-209]	; 0xffffff2f
    1338:	2e010607 	cfmadd32cs	mvax0, mvfx0, mvfx1, mvfx7
    133c:	2f060205 	svccs	0x00060205
    1340:	01060b05 	tsteq	r6, r5, lsl #22
    1344:	052f0105 	streq	r0, [pc, #-261]!	; 1247 <__code_start__-0x6db9>
    1348:	65030605 	strvs	r0, [r3, #-1541]	; 0xfffff9fb
    134c:	0609054a 	streq	r0, [r9], -sl, asr #10
    1350:	05056601 	streq	r6, [r5, #-1537]	; 0xfffff9ff
    1354:	04059f06 	streq	r9, [r5], #-3846	; 0xfffff0fa
    1358:	05011103 	streq	r1, [r1, #-259]	; 0xfffffefd
    135c:	05010607 	streq	r0, [r1, #-1543]	; 0xfffff9f9
    1360:	05310604 	ldreq	r0, [r1, #-1540]!	; 0xfffff9fc
    1364:	1305010a 	movwne	r0, #20746	; 0x510a
    1368:	01040200 	mrseq	r0, R12_usr
    136c:	10052e06 	andne	r2, r5, r6, lsl #28
    1370:	01040200 	mrseq	r0, R12_usr
    1374:	0605052e 	streq	r0, [r5], -lr, lsr #10
    1378:	060a054b 	streq	r0, [sl], -fp, asr #10
    137c:	052d0601 	streq	r0, [sp, #-1537]!	; 0xfffff9ff
    1380:	05010604 	streq	r0, [r1, #-1540]	; 0xfffff9fc
    1384:	b6030611 			; <UNDEFINED> instruction: 0xb6030611
    1388:	0113667f 	tsteq	r3, pc, ror r6
    138c:	02040200 	andeq	r0, r4, #0, 4
    1390:	ba06ba06 	blt	1afbb0 <__bss_end__+0x1a4d48>
    1394:	1a051401 	bne	1463a0 <__bss_end__+0x13b538>
    1398:	2e2e1306 	cdpcs	3, 2, cr1, cr14, cr6, {0}
    139c:	674e1105 	strbvs	r1, [lr, -r5, lsl #2]
    13a0:	05681405 	strbeq	r1, [r8, #-1029]!	; 0xfffffbfb
    13a4:	15058213 	strne	r8, [r5, #-531]	; 0xfffffded
    13a8:	054a7803 	strbeq	r7, [sl, #-2051]	; 0xfffff7fd
    13ac:	134b0611 	movtne	r0, #46609	; 0xb611
    13b0:	14131413 	ldrne	r1, [r3], #-1043	; 0xfffffbed
    13b4:	01061305 	tsteq	r6, r5, lsl #6
    13b8:	2f060905 	svccs	0x00060905
    13bc:	01060d05 	tsteq	r6, r5, lsl #26
    13c0:	09052e2e 	stmdbeq	r5, {r1, r2, r3, r5, r9, sl, fp, sp}
    13c4:	9d0d05bb 	cfstr32ls	mvfx0, [sp, #-748]	; 0xfffffd14
    13c8:	2f060905 	svccs	0x00060905
    13cc:	062f1505 	strteq	r1, [pc], -r5, lsl #10
    13d0:	034a7503 	movteq	r7, #42243	; 0xa503
    13d4:	054a2e0b 	strbeq	r2, [sl, #-3595]	; 0xfffff1f5
    13d8:	23030605 	movwcs	r0, #13829	; 0x3605
    13dc:	06090501 	streq	r0, [r9], -r1, lsl #10
    13e0:	05052e01 	streq	r2, [r5, #-3585]	; 0xfffff1ff
    13e4:	6e03d706 	cdpvs	7, 0, cr13, cr3, cr6, {0}
    13e8:	010e032e 	tsteq	lr, lr, lsr #6
    13ec:	01060905 	tsteq	r6, r5, lsl #18
    13f0:	03060505 	movweq	r0, #25861	; 0x6505
    13f4:	01054a10 	tsteq	r5, r0, lsl sl
    13f8:	017eed03 	cmneq	lr, r3, lsl #26
    13fc:	15140205 	ldrne	r0, [r4, #-517]	; 0xfffffdfb
    1400:	04051413 	streq	r1, [r5], #-1043	; 0xfffffbed
    1404:	05011a03 	streq	r1, [r1, #-2563]	; 0xfffff5fd
    1408:	05010609 	streq	r0, [r1, #-1545]	; 0xfffff9f7
    140c:	2e460302 	cdpcs	3, 4, cr0, cr6, cr2, {0}
    1410:	3a030905 	bcc	c382c <__bss_end__+0xb89c4>
    1414:	0604052e 	streq	r0, [r4], -lr, lsr #10
    1418:	010d032f 	tsteq	sp, pc, lsr #6
    141c:	15020501 	strne	r0, [r2, #-1281]	; 0xfffffaff
    1420:	b2030e05 	andlt	r0, r3, #80	; 0x50
    1424:	0205017f 	andeq	r0, r5, #-1073741793	; 0xc000001f
    1428:	08051413 	stmdaeq	r5, {r0, r1, r4, sl, ip}
    142c:	06020501 	streq	r0, [r2], -r1, lsl #10
    1430:	9f080501 	svcls	0x00080501
    1434:	4a060305 	bmi	182050 <__bss_end__+0x1771e8>
    1438:	08050106 	stmdaeq	r5, {r1, r2, r8}
    143c:	0615052e 	ldreq	r0, [r5], -lr, lsr #10
    1440:	0108052d 	tsteq	r8, sp, lsr #10
    1444:	062f0305 	strteq	r0, [pc], -r5, lsl #6
    1448:	2e080501 	cfsh32cs	mvfx0, mvfx8, #1
    144c:	2d061505 	cfstr32cs	mvfx1, [r6, #-20]	; 0xffffffec
    1450:	05010805 	streq	r0, [r1, #-2053]	; 0xfffff7fb
    1454:	01062f03 	tsteq	r6, r3, lsl #30
    1458:	052e0805 	streq	r0, [lr, #-2053]!	; 0xfffff7fb
    145c:	052d0615 	streq	r0, [sp, #-1557]!	; 0xfffff9eb
    1460:	03050108 	movweq	r0, #20744	; 0x5108
    1464:	0501062f 	streq	r0, [r1, #-1583]	; 0xfffff9d1
    1468:	15052e08 	strne	r2, [r5, #-3592]	; 0xfffff1f8
    146c:	08052d06 	stmdaeq	r5, {r1, r2, r8, sl, fp, sp}
    1470:	2f030501 	svccs	0x00030501
    1474:	08050106 	stmdaeq	r5, {r1, r2, r8}
    1478:	0615052e 	ldreq	r0, [r5], -lr, lsr #10
    147c:	0108052d 	tsteq	r8, sp, lsr #10
    1480:	062f0305 	strteq	r0, [pc], -r5, lsl #6
    1484:	2e080501 	cfsh32cs	mvfx0, mvfx8, #1
    1488:	2d061505 	cfstr32cs	mvfx1, [r6, #-20]	; 0xffffffec
    148c:	05010805 	streq	r0, [r1, #-2053]	; 0xfffff7fb
    1490:	08051303 	stmdaeq	r5, {r0, r1, r8, r9, ip}
    1494:	15050106 	strne	r0, [r5, #-262]	; 0xfffffefa
    1498:	08052d06 	stmdaeq	r5, {r1, r2, r8, sl, fp, sp}
    149c:	05660601 	strbeq	r0, [r6, #-1537]!	; 0xfffff9ff
    14a0:	05670603 	strbeq	r0, [r7, #-1539]!	; 0xfffff9fd
    14a4:	05010608 	streq	r0, [r1, #-1544]	; 0xfffff9f8
    14a8:	02052d18 	andeq	r2, r5, #24, 26	; 0x600
    14ac:	2f08052e 	svccs	0x0008052e
    14b0:	2d061505 	cfstr32cs	mvfx1, [r6, #-20]	; 0xffffffec
    14b4:	05010805 	streq	r0, [r1, #-2053]	; 0xfffff7fb
    14b8:	05010602 	streq	r0, [r1, #-1538]	; 0xfffff9fe
    14bc:	052f0603 	streq	r0, [pc, #-1539]!	; ec1 <__code_start__-0x713f>
    14c0:	05110618 	ldreq	r0, [r1, #-1560]	; 0xfffff9e8
    14c4:	08052e02 	stmdaeq	r5, {r1, r9, sl, fp, sp}
    14c8:	0615052f 	ldreq	r0, [r5], -pc, lsr #10
    14cc:	0108052d 	tsteq	r8, sp, lsr #10
    14d0:	05130305 	ldreq	r0, [r3, #-773]	; 0xfffffcfb
    14d4:	05010608 	streq	r0, [r1, #-1544]	; 0xfffff9f8
    14d8:	052d0615 	streq	r0, [sp, #-1557]!	; 0xfffff9eb
    14dc:	05050108 	streq	r0, [r5, #-264]	; 0xfffffef8
    14e0:	054a1406 	strbeq	r1, [sl, #-1030]	; 0xfffffbfa
    14e4:	052e0602 	streq	r0, [lr, #-1538]!	; 0xfffff9fe
    14e8:	0519060e 	ldreq	r0, [r9, #-1550]	; 0xfffff9f2
    14ec:	11052f04 	tstne	r5, r4, lsl #30
    14f0:	4a09052f 	bmi	2429b4 <__bss_end__+0x237b4c>
    14f4:	05330205 	ldreq	r0, [r3, #-517]!	; 0xfffffdfb
    14f8:	2e720305 	cdpcs	3, 7, cr0, cr2, cr5, {0}
    14fc:	2f060205 	svccs	0x00060205
    1500:	0e050106 	adfeqs	f0, f5, f6
    1504:	02051606 	andeq	r1, r5, #6291456	; 0x600000
    1508:	03051314 	movweq	r1, #21268	; 0x5314
    150c:	14020513 	strne	r0, [r2], #-1299	; 0xfffffaed
    1510:	010b0515 	tsteq	fp, r5, lsl r5
    1514:	01060205 	tsteq	r6, r5, lsl #4
    1518:	0305662e 	movweq	r6, #22062	; 0x562e
    151c:	0a052f06 	beq	14d13c <__bss_end__+0x1422d4>
    1520:	02050106 	andeq	r0, r5, #-2147483647	; 0x80000001
    1524:	2f0a052d 	svccs	0x000a052d
    1528:	2d061705 	stccs	7, cr1, [r6, #-20]	; 0xffffffec
    152c:	05010b05 	streq	r0, [r1, #-2821]	; 0xfffff4fb
    1530:	4a010602 	bmi	42d40 <__bss_end__+0x37ed8>
    1534:	0605054a 	streq	r0, [r5], -sl, asr #10
    1538:	01019503 	tsteq	r1, r3, lsl #10
    153c:	03061105 	movweq	r1, #24837	; 0x6105
    1540:	05017ef8 	streq	r7, [r1, #-3832]	; 0xfffff108
    1544:	0188031b 	orreq	r0, r8, fp, lsl r3
    1548:	0601054a 	streq	r0, [r1], -sl, asr #10
    154c:	2e7ef303 	cdpcs	3, 7, cr15, cr14, cr3, {0}
    1550:	15140205 	ldrne	r0, [r4, #-517]	; 0xfffffdfb
    1554:	19051413 	stmdbne	r5, {r0, r1, r4, sl, ip}
    1558:	05012203 	streq	r2, [r1, #-515]	; 0xfffffdfd
    155c:	2805131a 	stmdacs	r5, {r1, r3, r4, r8, r9, ip}
    1560:	1f050106 	svcne	0x00050106
    1564:	2f04052e 	svccs	0x0004052e
    1568:	054a0e05 	strbeq	r0, [sl, #-3589]	; 0xfffff1fb
    156c:	0b052d1f 	bleq	14c9f0 <__bss_end__+0x141b88>
    1570:	04052f06 	streq	r2, [r5], #-3846	; 0xfffff0fa
    1574:	32060106 	andcc	r0, r6, #-2147483647	; 0x80000001
    1578:	15020501 	strne	r0, [r2, #-1281]	; 0xfffffaff
    157c:	b2030e05 	andlt	r0, r3, #80	; 0x50
    1580:	0205017f 	andeq	r0, r5, #-1073741793	; 0xc000001f
    1584:	06060513 			; <UNDEFINED> instruction: 0x06060513
    1588:	06020501 	streq	r0, [r2], -r1, lsl #10
    158c:	01080530 	tsteq	r8, r0, lsr r5
    1590:	01060205 	tsteq	r6, r5, lsl #4
    1594:	08060305 	stmdaeq	r6, {r0, r2, r8, r9}
    1598:	06080521 	streq	r0, [r8], -r1, lsr #10
    159c:	06150501 	ldreq	r0, [r5], -r1, lsl #10
    15a0:	01080549 	tsteq	r8, r9, asr #10
    15a4:	05d70305 	ldrbeq	r0, [r7, #773]	; 0x305
    15a8:	05010608 	streq	r0, [r1, #-1544]	; 0xfffff9f8
    15ac:	02052d18 	andeq	r2, r5, #24, 26	; 0x600
    15b0:	2f08052e 	svccs	0x0008052e
    15b4:	2d061505 	cfstr32cs	mvfx1, [r6, #-20]	; 0xffffffec
    15b8:	05010805 	streq	r0, [r1, #-2053]	; 0xfffff7fb
    15bc:	05010602 	streq	r0, [r1, #-1538]	; 0xfffff9fe
    15c0:	052f0603 	streq	r0, [pc, #-1539]!	; fc5 <__code_start__-0x703b>
    15c4:	05110618 	ldreq	r0, [r1, #-1560]	; 0xfffff9e8
    15c8:	08052e02 	stmdaeq	r5, {r1, r9, sl, fp, sp}
    15cc:	0615052f 	ldreq	r0, [r5], -pc, lsr #10
    15d0:	0108052d 	tsteq	r8, sp, lsr #10
    15d4:	05130305 	ldreq	r0, [r3, #-773]	; 0xfffffcfb
    15d8:	05010608 	streq	r0, [r1, #-1544]	; 0xfffff9f8
    15dc:	052d0615 	streq	r0, [sp, #-1557]!	; 0xfffff9eb
    15e0:	05050108 	streq	r0, [r5, #-264]	; 0xfffffef8
    15e4:	02051406 	andeq	r1, r5, #100663296	; 0x6000000
    15e8:	04056606 	streq	r6, [r5], #-1542	; 0xfffff9fa
    15ec:	05051a06 	streq	r1, [r5, #-2566]	; 0xfffff5fa
    15f0:	054a7803 	strbeq	r7, [sl, #-2051]	; 0xfffff7fd
    15f4:	062f0602 	strteq	r0, [pc], -r2, lsl #12
    15f8:	060e0501 	streq	r0, [lr], -r1, lsl #10
    15fc:	14020516 	strne	r0, [r2], #-1302	; 0xfffffaea
    1600:	06040513 			; <UNDEFINED> instruction: 0x06040513
    1604:	06030501 	streq	r0, [r3], -r1, lsl #10
    1608:	0611052f 	ldreq	r0, [r1], -pc, lsr #10
    160c:	2e090501 	cfsh32cs	mvfx0, mvfx9, #1
    1610:	30060205 	andcc	r0, r6, r5, lsl #4
    1614:	010b0515 	tsteq	fp, r5, lsl r5
    1618:	01060205 	tsteq	r6, r5, lsl #4
    161c:	052e4a4a 	streq	r4, [lr, #-2634]!	; 0xfffff5b6
    1620:	052f0603 	streq	r0, [pc, #-1539]!	; 1025 <__code_start__-0x6fdb>
    1624:	0501060a 	streq	r0, [r1, #-1546]	; 0xfffff9f6
    1628:	0a052d02 	beq	14ca38 <__bss_end__+0x141bd0>
    162c:	0617052f 	ldreq	r0, [r7], -pc, lsr #10
    1630:	010b052d 	tsteq	fp, sp, lsr #10
    1634:	01060205 	tsteq	r6, r5, lsl #4
    1638:	14062e4a 	strne	r2, [r6], #-3658	; 0xfffff1b6
    163c:	01060905 	tsteq	r6, r5, lsl #18
    1640:	4c060205 	sfmmi	f0, 4, [r6], {5}
    1644:	05050106 	streq	r0, [r5, #-262]	; 0xfffffefa
    1648:	01980306 	orrseq	r0, r8, r6, lsl #6
    164c:	07052a01 	streq	r2, [r5, -r1, lsl #20]
    1650:	05050106 	streq	r0, [r5, #-262]	; 0xfffffefa
    1654:	18052f06 	stmdane	r5, {r1, r2, r8, r9, sl, fp, sp}
    1658:	052e5303 	streq	r5, [lr, #-771]!	; 0xfffffcfd
    165c:	0501061b 	streq	r0, [r1, #-1563]	; 0xfffff9e5
    1660:	0905821a 	stmdbeq	r5, {r1, r3, r4, r9, pc}
    1664:	0d054b06 	vstreq	d4, [r5, #-24]	; 0xffffffe8
    1668:	052e0106 	streq	r0, [lr, #-262]!	; 0xfffffefa
    166c:	0d05d709 	stceq	7, cr13, [r5, #-36]	; 0xffffffdc
    1670:	0609059d 			; <UNDEFINED> instruction: 0x0609059d
    1674:	3015052f 	andscc	r0, r5, pc, lsr #10
    1678:	01061805 	tsteq	r6, r5, lsl #16
    167c:	05661705 	strbeq	r1, [r6, #-1797]!	; 0xfffff8fb
    1680:	17052f19 	smladne	r5, r9, pc, r2	; <UNPREDICTABLE>
    1684:	06190549 	ldreq	r0, [r9], -r9, asr #10
    1688:	0615052f 	ldreq	r0, [r5], -pc, lsr #10
    168c:	052e6f03 	streq	r6, [lr, #-3843]!	; 0xfffff0fd
    1690:	13030619 	movwne	r0, #13849	; 0x3619
    1694:	0615054a 	ldreq	r0, [r5], -sl, asr #10
    1698:	4a2e6d03 	bmi	b9caac <__bss_end__+0xb91c44>
    169c:	a0030205 	andge	r0, r3, r5, lsl #4
    16a0:	0666017f 			; <UNDEFINED> instruction: 0x0666017f
    16a4:	05017203 	streq	r7, [r1, #-515]	; 0xfffffdfd
    16a8:	05010605 	streq	r0, [r1, #-1541]	; 0xfffff9fb
    16ac:	05053604 	streq	r3, [r5, #-1540]	; 0xfffff9fc
    16b0:	052e7803 	streq	r7, [lr, #-2051]!	; 0xfffff7fd
    16b4:	062f0602 	strteq	r0, [pc], -r2, lsl #12
    16b8:	060e0501 	streq	r0, [lr], -r1, lsl #10
    16bc:	14020516 	strne	r0, [r2], #-1302	; 0xfffffaea
    16c0:	06040513 			; <UNDEFINED> instruction: 0x06040513
    16c4:	02054a01 	andeq	r4, r5, #4096	; 0x1000
    16c8:	01780306 	cmneq	r8, r6, lsl #6
    16cc:	01060505 	tsteq	r6, r5, lsl #10
    16d0:	0602054a 	streq	r0, [r2], -sl, asr #10
    16d4:	0501064b 	streq	r0, [r1, #-1611]	; 0xfffff9b5
    16d8:	0516060e 	ldreq	r0, [r6, #-1550]	; 0xfffff9f2
    16dc:	15131402 	ldrne	r1, [r3, #-1026]	; 0xfffffbfe
    16e0:	010b0515 	tsteq	fp, r5, lsl r5
    16e4:	11052e06 	tstne	r5, r6, lsl #28
    16e8:	019e0306 	orrseq	r0, lr, r6, lsl #6
    16ec:	06220501 	strteq	r0, [r2], -r1, lsl #10
    16f0:	2f050501 	svccs	0x00050501
    16f4:	052d2205 	streq	r2, [sp, #-517]!	; 0xfffffdfb
    16f8:	052f0605 	streq	r0, [pc, #-1541]!	; 10fb <__code_start__-0x6f05>
    16fc:	05054b11 	streq	r4, [r5, #-2833]	; 0xfffff4ef
    1700:	039e0183 	orrseq	r0, lr, #-1073741792	; 0xc0000020
    1704:	9e012e5c 	mcrls	14, 0, r2, cr1, cr12, {2}
    1708:	03060205 	movweq	r0, #25093	; 0x6205
    170c:	2e2e7ef3 	mcrcs	14, 1, r7, cr14, cr3, {7}
    1710:	4a2c0605 	bmi	b02f2c <__bss_end__+0xaf80c4>
    1714:	d8030d05 	stmdale	r3, {r0, r2, r8, sl, fp}
    1718:	04050100 	streq	r0, [r5], #-256	; 0xffffff00
    171c:	01040200 	mrseq	r0, R12_usr
    1720:	4a110306 	bmi	442340 <__bss_end__+0x4374d8>
    1724:	01040200 	mrseq	r0, R12_usr
    1728:	06110501 	ldreq	r0, [r1], -r1, lsl #10
    172c:	059e0651 	ldreq	r0, [lr, #1617]	; 0x651
    1730:	2e170315 	mrccs	3, 0, r0, cr7, cr5, {0}
    1734:	1105ba01 	tstne	r5, r1, lsl #20
    1738:	012e6903 			; <UNDEFINED> instruction: 0x012e6903
    173c:	01002802 	tsteq	r0, r2, lsl #16
    1740:	00008701 	andeq	r8, r0, r1, lsl #14
    1744:	64000300 	strvs	r0, [r0], #-768	; 0xfffffd00
    1748:	02000000 	andeq	r0, r0, #0, 0
    174c:	0d0efb01 	vstreq	d15, [lr, #-4]
    1750:	01010100 	mrseq	r0, (UNDEF: 17)
    1754:	00000001 	andeq	r0, r0, r1
    1758:	01000001 	tsteq	r0, r1
    175c:	74732f2e 	ldrbtvc	r2, [r3], #-3886	; 0xfffff0d2
    1760:	2d666661 	stclcs	6, cr6, [r6, #-388]!	; 0xfffffe7c
    1764:	00637273 	rsbeq	r7, r3, r3, ror r2
    1768:	6573552f 	ldrbvs	r5, [r3, #-1327]!	; 0xfffffad1
    176c:	6d2f7372 	stcvs	3, cr7, [pc, #-456]!	; 15ac <__code_start__-0x6a54>
    1770:	73656c69 	cmnvc	r5, #26880	; 0x6900
    1774:	756f532f 	strbvc	r5, [pc, #-815]!	; 144d <__code_start__-0x6bb3>
    1778:	2f656372 	svccs	0x00656372
    177c:	34327363 	ldrtcc	r7, [r2], #-867	; 0xfffffc9d
    1780:	2f786c30 	svccs	0x00786c30
    1784:	7062696c 	rsbvc	r6, r2, ip, ror #18
    1788:	6e692f69 	cdpvs	15, 6, cr2, cr9, cr9, {3}
    178c:	64756c63 	ldrbtvs	r6, [r5], #-3171	; 0xfffff39d
    1790:	63000065 	movwvs	r0, #101	; 0x65
    1794:	6e61656c 	cdpvs	5, 6, cr6, cr1, cr12, {3}
    1798:	6265722d 	rsbvs	r7, r5, #-805306366	; 0xd0000002
    179c:	2e746f6f 	cdpcs	15, 7, cr6, cr4, cr15, {3}
    17a0:	00010063 	andeq	r0, r1, r3, rrx
    17a4:	69707200 	ldmdbvs	r0!, {r9, ip, sp, lr}^
    17a8:	0200682e 	andeq	r6, r0, #3014656	; 0x2e0000
    17ac:	05000000 	streq	r0, [r0, #-0]
    17b0:	02050019 	andeq	r0, r5, #25, 0
    17b4:	00009650 	andeq	r9, r0, r0, asr r6
    17b8:	13050515 	movwne	r0, #21781	; 0x5515
    17bc:	2d061905 	vstrcs.16	s2, [r6, #-10]	; <UNPREDICTABLE>
    17c0:	062f0505 	strteq	r0, [pc], -r5, lsl #10
    17c4:	024b2f67 	subeq	r2, fp, #412	; 0x19c
    17c8:	01010006 	tsteq	r1, r6
    17cc:	00000112 	andeq	r0, r0, r2, lsl r1
    17d0:	005e0003 	subseq	r0, lr, r3
    17d4:	01020000 	mrseq	r0, (UNDEF: 2)
    17d8:	000d0efb 	strdeq	r0, [sp], -fp
    17dc:	01010101 	tsteq	r1, r1, lsl #2
    17e0:	01000000 	mrseq	r0, (UNDEF: 0)
    17e4:	2e010000 	cdpcs	0, 0, cr0, cr1, cr0, {0}
    17e8:	6174732f 	cmnvs	r4, pc, lsr #6
    17ec:	732d6666 			; <UNDEFINED> instruction: 0x732d6666
    17f0:	2f006372 	svccs	0x00006372
    17f4:	72657355 	rsbvc	r7, r5, #1409286145	; 0x54000001
    17f8:	696d2f73 	stmdbvs	sp!, {r0, r1, r4, r5, r6, r8, r9, sl, fp, sp}^
    17fc:	2f73656c 	svccs	0x0073656c
    1800:	72756f53 	rsbsvc	r6, r5, #332	; 0x14c
    1804:	632f6563 			; <UNDEFINED> instruction: 0x632f6563
    1808:	30343273 	eorscc	r3, r4, r3, ror r2
    180c:	6c2f786c 	stcvs	8, cr7, [pc], #-432	; 1664 <__code_start__-0x699c>
    1810:	69706269 	ldmdbvs	r0!, {r0, r3, r5, r6, r9, sp, lr}^
    1814:	636e692f 	cmnvs	lr, #770048	; 0xbc000
    1818:	6564756c 	strbvs	r7, [r4, #-1388]!	; 0xfffffa94
    181c:	73630000 	cmnvc	r3, #0, 0
    1820:	74726174 	ldrbtvc	r6, [r2], #-372	; 0xfffffe8c
    1824:	0100632e 	tsteq	r0, lr, lsr #6
    1828:	70720000 	rsbsvc	r0, r2, r0
    182c:	00682e69 	rsbeq	r2, r8, r9, ror #28
    1830:	00000002 	andeq	r0, r0, r2
    1834:	05001005 	streq	r1, [r0, #-5]
    1838:	00967c02 	addseq	r7, r6, r2, lsl #24
    183c:	05051500 	streq	r1, [r5, #-1280]	; 0xfffffb00
    1840:	13020513 	movwne	r0, #9491	; 0x2513
    1844:	05140505 	ldreq	r0, [r4, #-1285]	; 0xfffffafb
    1848:	050e0610 	streq	r0, [lr, #-1552]	; 0xfffff9f0
    184c:	30063205 	andcc	r3, r6, r5, lsl #4
    1850:	0a051413 	beq	1468a4 <__bss_end__+0x13ba3c>
    1854:	08090501 	stmdaeq	r9, {r0, r8, sl}
    1858:	06100591 			; <UNDEFINED> instruction: 0x06100591
    185c:	9a0a0501 	bls	282c68 <__bss_end__+0x277e00>
    1860:	056a1005 	strbeq	r1, [sl, #-5]!
    1864:	052d060a 	streq	r0, [sp, #-1546]!	; 0xfffff9f6
    1868:	10052f09 	andne	r2, r5, r9, lsl #30
    186c:	0a050106 	beq	141c8c <__bss_end__+0x136e24>
    1870:	09052d06 	stmdbeq	r5, {r1, r2, r8, sl, fp, sp}
    1874:	061005bb 			; <UNDEFINED> instruction: 0x061005bb
    1878:	060a0501 	streq	r0, [sl], -r1, lsl #10
    187c:	4b090565 	blmi	242e18 <__bss_end__+0x237fb0>
    1880:	01060d05 	tsteq	r6, r5, lsl #26
    1884:	052d0a05 	streq	r0, [sp, #-2565]!	; 0xfffff5fb
    1888:	0a052f10 	beq	14d4d0 <__bss_end__+0x142668>
    188c:	09052d06 	stmdbeq	r5, {r1, r2, r8, sl, fp, sp}
    1890:	060d052f 	streq	r0, [sp], -pc, lsr #10
    1894:	2d0a0501 	cfstr32cs	mvfx0, [sl, #-4]
    1898:	052f1005 	streq	r1, [pc, #-5]!	; 189b <__code_start__-0x6765>
    189c:	052d060a 	streq	r0, [sp, #-1546]!	; 0xfffff9f6
    18a0:	0d052f09 	stceq	15, cr2, [r5, #-36]	; 0xffffffdc
    18a4:	0a050106 	beq	141cc4 <__bss_end__+0x136e5c>
    18a8:	2f10052d 	svccs	0x0010052d
    18ac:	2d060a05 	vstrcs	s0, [r6, #-20]	; 0xffffffec
    18b0:	052f0905 	streq	r0, [pc, #-2309]!	; fb3 <__code_start__-0x704d>
    18b4:	0501060d 	streq	r0, [r1, #-1549]	; 0xfffff9f3
    18b8:	10052d0a 	andne	r2, r5, sl, lsl #26
    18bc:	060a052f 	streq	r0, [sl], -pc, lsr #10
    18c0:	1309052d 	movwne	r0, #38189	; 0x952d
    18c4:	01061005 	tsteq	r6, r5
    18c8:	2d060a05 	vstrcs	s0, [r6, #-20]	; 0xffffffec
    18cc:	32150505 	andscc	r0, r5, #20971520	; 0x1400000
    18d0:	144a0101 	strbne	r0, [sl], #-257	; 0xfffffeff
    18d4:	052f0205 	streq	r0, [pc, #-517]!	; 16d7 <__code_start__-0x6929>
    18d8:	7303060a 	movwvc	r0, #13834	; 0x360a
    18dc:	0008022e 	andeq	r0, r8, lr, lsr #4
    18e0:	007d0101 	rsbseq	r0, sp, r1, lsl #2
    18e4:	00030000 	andeq	r0, r3, r0
    18e8:	00000065 	andeq	r0, r0, r5, rrx
    18ec:	0efb0102 	cdpeq	1, 15, cr0, cr11, cr2, {0}
    18f0:	0101000d 	tsteq	r1, sp
    18f4:	00000101 	andeq	r0, r0, r1, lsl #2
    18f8:	00000100 	andeq	r0, r0, r0, lsl #2
    18fc:	732f2e01 			; <UNDEFINED> instruction: 0x732f2e01
    1900:	66666174 			; <UNDEFINED> instruction: 0x66666174
    1904:	6372732d 	cmnvs	r2, #-1275068416	; 0xb4000000
    1908:	73552f00 	cmpvc	r5, #0, 30
    190c:	2f737265 	svccs	0x00737265
    1910:	656c696d 	strbvs	r6, [ip, #-2413]!	; 0xfffff693
    1914:	6f532f73 	svcvs	0x00532f73
    1918:	65637275 	strbvs	r7, [r3, #-629]!	; 0xfffffd8b
    191c:	3273632f 	rsbscc	r6, r3, #-1140850688	; 0xbc000000
    1920:	786c3034 	stmdavc	ip!, {r2, r4, r5, ip, sp}^
    1924:	62696c2f 	rsbvs	r6, r9, #12032	; 0x2f00
    1928:	692f6970 	stmdbvs	pc!, {r4, r5, r6, r8, fp, sp, lr}	; <UNPREDICTABLE>
    192c:	756c636e 	strbvc	r6, [ip, #-878]!	; 0xfffffc92
    1930:	00006564 	andeq	r6, r0, r4, ror #10
    1934:	74737563 	ldrbtvc	r7, [r3], #-1379	; 0xfffffa9d
    1938:	6c2d6d6f 	stcvs	13, cr6, [sp], #-444	; 0xfffffe44
    193c:	6564616f 	strbvs	r6, [r4, #-367]!	; 0xfffffe91
    1940:	00632e72 	rsbeq	r2, r3, r2, ror lr
    1944:	72000001 	andvc	r0, r0, #1, 0
    1948:	682e6970 	stmdavs	lr!, {r4, r5, r6, r8, fp, sp, lr}
    194c:	00000200 	andeq	r0, r0, r0, lsl #4
    1950:	001a0500 	andseq	r0, sl, r0, lsl #10
    1954:	97740205 	ldrbls	r0, [r4, -r5, lsl #4]!
    1958:	05150000 	ldreq	r0, [r5, #-0]
    195c:	02021401 	andeq	r1, r2, #16777216	; 0x1000000
    1960:	14010100 	strne	r0, [r1], #-256	; 0xffffff00
    1964:	03000001 	movweq	r0, #1
    1968:	00005e00 	andeq	r5, r0, r0, lsl #28
    196c:	fb010200 	blx	42176 <__bss_end__+0x3730e>
    1970:	01000d0e 	tsteq	r0, lr, lsl #26
    1974:	00010101 	andeq	r0, r1, r1, lsl #2
    1978:	00010000 	andeq	r0, r1, r0
    197c:	2f2e0100 	svccs	0x002e0100
    1980:	66617473 			; <UNDEFINED> instruction: 0x66617473
    1984:	72732d66 	rsbsvc	r2, r3, #6528	; 0x1980
    1988:	552f0063 	strpl	r0, [pc, #-99]!	; 192d <__code_start__-0x66d3>
    198c:	73726573 	cmnvc	r2, #482344960	; 0x1cc00000
    1990:	6c696d2f 	stclvs	13, cr6, [r9], #-188	; 0xffffff44
    1994:	532f7365 			; <UNDEFINED> instruction: 0x532f7365
    1998:	6372756f 	cmnvs	r2, #465567744	; 0x1bc00000
    199c:	73632f65 	cmnvc	r3, #404	; 0x194
    19a0:	6c303432 	cfldrsvs	mvf3, [r0], #-200	; 0xffffff38
    19a4:	696c2f78 	stmdbvs	ip!, {r3, r4, r5, r6, r8, r9, sl, fp, sp}^
    19a8:	2f697062 	svccs	0x00697062
    19ac:	6c636e69 	stclvs	14, cr6, [r3], #-420	; 0xfffffe5c
    19b0:	00656475 	rsbeq	r6, r5, r5, ror r4
    19b4:	62657200 	rsbvs	r7, r5, #0, 4
    19b8:	2e746f6f 	cdpcs	15, 7, cr6, cr4, cr15, {3}
    19bc:	00010063 	andeq	r0, r1, r3, rrx
    19c0:	69707200 	ldmdbvs	r0!, {r9, ip, sp, lr}^
    19c4:	0200682e 	andeq	r6, r0, #3014656	; 0x2e0000
    19c8:	05000000 	streq	r0, [r0, #-0]
    19cc:	02050019 	andeq	r0, r5, #25, 0
    19d0:	00009778 	andeq	r9, r0, r8, ror r7
    19d4:	05010d03 	streq	r0, [r1, #-3331]	; 0xfffff2fd
    19d8:	31131305 	tstcc	r3, r5, lsl #6
    19dc:	01061305 	tsteq	r6, r5, lsl #6
    19e0:	052f0105 	streq	r0, [pc, #-261]!	; 18e3 <__code_start__-0x671d>
    19e4:	0585061b 	streq	r0, [r5, #1563]	; 0x61b
    19e8:	05141305 	ldreq	r1, [r4, #-773]	; 0xfffffcfb
    19ec:	16052f09 	strne	r2, [r5], -r9, lsl #30
    19f0:	05050106 	streq	r0, [r5, #-262]	; 0xfffffefa
    19f4:	0e052f06 	cdpeq	15, 0, cr2, cr5, cr6, {0}
    19f8:	05051106 	streq	r1, [r5, #-262]	; 0xfffffefa
    19fc:	2f01052f 	svccs	0x0001052f
    1a00:	30061705 	andcc	r1, r6, r5, lsl #14
    1a04:	03130505 	tsteq	r3, #20971520	; 0x1400000
    1a08:	1313016e 	tstne	r3, #-2147483621	; 0x8000001b
    1a0c:	03061705 	movweq	r1, #26373	; 0x6705
    1a10:	0505010f 	streq	r0, [r5, #-271]	; 0xfffffef1
    1a14:	062e7103 	strteq	r7, [lr], -r3, lsl #2
    1a18:	06130531 			; <UNDEFINED> instruction: 0x06130531
    1a1c:	03070501 	movweq	r0, #29953	; 0x7501
    1a20:	09052e0d 	stmdbeq	r5, {r0, r2, r3, r9, sl, fp, sp}
    1a24:	06054b06 	streq	r4, [r5], -r6, lsl #22
    1a28:	05017603 	streq	r7, [r1, #-1539]	; 0xfffff9fd
    1a2c:	05141305 	ldreq	r1, [r4, #-773]	; 0xfffffcfb
    1a30:	16052f09 	strne	r2, [r5], -r9, lsl #30
    1a34:	05050106 	streq	r0, [r5, #-262]	; 0xfffffefa
    1a38:	0e052f06 	cdpeq	15, 0, cr2, cr5, cr6, {0}
    1a3c:	05051106 	streq	r1, [r5, #-262]	; 0xfffffefa
    1a40:	03062e2f 	movweq	r2, #28207	; 0x6e2f
    1a44:	2f30010a 	svccs	0x0030010a
    1a48:	1313134d 	tstne	r3, #872415233	; 0x34000001
    1a4c:	02006715 	andeq	r6, r0, #5505024	; 0x540000
    1a50:	05670104 	strbeq	r0, [r7, #-260]!	; 0xfffffefc
    1a54:	0402000d 	streq	r0, [r2], #-13
    1a58:	0a050101 	beq	141e64 <__bss_end__+0x136ffc>
    1a5c:	01040200 	mrseq	r0, R12_usr
    1a60:	00050501 	andeq	r0, r5, r1, lsl #10
    1a64:	01010402 	tsteq	r1, r2, lsl #8
    1a68:	02000d05 	andeq	r0, r0, #320	; 0x140
    1a6c:	05010104 	streq	r0, [r1, #-260]	; 0xfffffefc
    1a70:	0402000a 	streq	r0, [r2], #-10
    1a74:	0a020101 	beq	81e80 <__bss_end__+0x77018>
    1a78:	fa010100 	blx	41e80 <__bss_end__+0x37018>
    1a7c:	03000001 	movweq	r0, #1
    1a80:	00005d00 	andeq	r5, r0, r0, lsl #26
    1a84:	fb010200 	blx	4228e <__bss_end__+0x37426>
    1a88:	01000d0e 	tsteq	r0, lr, lsl #26
    1a8c:	00010101 	andeq	r0, r1, r1, lsl #2
    1a90:	00010000 	andeq	r0, r1, r0
    1a94:	2f2e0100 	svccs	0x002e0100
    1a98:	66617473 			; <UNDEFINED> instruction: 0x66617473
    1a9c:	72732d66 	rsbsvc	r2, r3, #6528	; 0x1980
    1aa0:	552f0063 	strpl	r0, [pc, #-99]!	; 1a45 <__code_start__-0x65bb>
    1aa4:	73726573 	cmnvc	r2, #482344960	; 0x1cc00000
    1aa8:	6c696d2f 	stclvs	13, cr6, [r9], #-188	; 0xffffff44
    1aac:	532f7365 			; <UNDEFINED> instruction: 0x532f7365
    1ab0:	6372756f 	cmnvs	r2, #465567744	; 0x1bc00000
    1ab4:	73632f65 	cmnvc	r3, #404	; 0x194
    1ab8:	6c303432 	cfldrsvs	mvf3, [r0], #-200	; 0xffffff38
    1abc:	696c2f78 	stmdbvs	ip!, {r3, r4, r5, r6, r8, r9, sl, fp, sp}^
    1ac0:	2f697062 	svccs	0x00697062
    1ac4:	6c636e69 	stclvs	14, cr6, [r3], #-420	; 0xfffffe5c
    1ac8:	00656475 	rsbeq	r6, r5, r5, ror r4
    1acc:	6d697400 	cfstrdvs	mvd7, [r9, #-0]
    1ad0:	632e7265 			; <UNDEFINED> instruction: 0x632e7265
    1ad4:	00000100 	andeq	r0, r0, r0, lsl #2
    1ad8:	2e697072 	mcrcs	0, 3, r7, cr9, cr2, {3}
    1adc:	00020068 	andeq	r0, r2, r8, rrx
    1ae0:	23050000 	movwcs	r0, #20480	; 0x5000
    1ae4:	04020500 	streq	r0, [r2], #-1280	; 0xfffffb00
    1ae8:	15000098 	strne	r0, [r0, #-152]	; 0xffffff68
    1aec:	05130505 	ldreq	r0, [r3, #-1285]	; 0xfffffafb
    1af0:	0501060c 	streq	r0, [r1, #-1548]	; 0xfffff9f4
    1af4:	056a061f 	strbeq	r0, [sl, #-1567]!	; 0xfffff9e1
    1af8:	1f051505 	svcne	0x00051505
    1afc:	05050f06 	streq	r0, [r5, #-3846]	; 0xfffff0fa
    1b00:	052f0631 	streq	r0, [pc, #-1585]!	; 14d7 <__code_start__-0x6b29>
    1b04:	0177030a 	cmneq	r7, sl, lsl #6
    1b08:	05130505 	ldreq	r0, [r3, #-1285]	; 0xfffffafb
    1b0c:	6601060c 	strvs	r0, [r1], -ip, lsl #12
    1b10:	03060505 	movweq	r0, #25861	; 0x6505
    1b14:	052f0109 	streq	r0, [pc, #-265]!	; 1a13 <__code_start__-0x65ed>
    1b18:	05130601 	ldreq	r0, [r3, #-1537]	; 0xfffff9ff
    1b1c:	0568061c 	strbeq	r0, [r8, #-1564]!	; 0xfffff9e4
    1b20:	0a051305 	beq	14673c <__bss_end__+0x13b8d4>
    1b24:	05017603 	streq	r7, [r1, #-1539]	; 0xfffff9fd
    1b28:	1c051505 	cfstr32ne	mvfx1, [r5], {5}
    1b2c:	052e1806 	streq	r1, [lr, #-2054]!	; 0xfffff7fa
    1b30:	2e7a0305 	cdpcs	3, 7, cr0, cr10, cr5, {0}
    1b34:	0a052f06 	beq	14d754 <__bss_end__+0x1428ec>
    1b38:	05017703 	streq	r7, [r1, #-1795]	; 0xfffff8fd
    1b3c:	0c051305 	stceq	3, cr1, [r5], {5}
    1b40:	05660106 	strbeq	r0, [r6, #-262]!	; 0xfffffefa
    1b44:	09030605 	stmdbeq	r3, {r0, r2, r9, sl}
    1b48:	01062f01 	tsteq	r6, r1, lsl #30
    1b4c:	76030c05 	strvc	r0, [r3], -r5, lsl #24
    1b50:	06050501 	streq	r0, [r5], -r1, lsl #10
    1b54:	052e0f03 	streq	r0, [lr, #-3843]!	; 0xfffff0fd
    1b58:	0a051309 	beq	146784 <__bss_end__+0x13b91c>
    1b5c:	05017403 	streq	r7, [r1, #-1027]	; 0xfffffbfd
    1b60:	052f1505 	streq	r1, [pc, #-1285]!	; 1663 <__code_start__-0x699d>
    1b64:	0177030a 	cmneq	r7, sl, lsl #6
    1b68:	05130505 	ldreq	r0, [r3, #-1285]	; 0xfffffafb
    1b6c:	6601060c 	strvs	r0, [r1], -ip, lsl #12
    1b70:	03060505 	movweq	r0, #25861	; 0x6505
    1b74:	11050109 	tstne	r5, r9, lsl #2
    1b78:	05051a06 	streq	r1, [r5, #-2566]	; 0xfffff5fa
    1b7c:	062e7803 	strteq	r7, [lr], -r3, lsl #16
    1b80:	1909052f 	stmdbne	r9, {r0, r1, r2, r3, r5, r8, sl}
    1b84:	01060c05 	tsteq	r6, r5, lsl #24
    1b88:	87061c05 	strhi	r1, [r6, -r5, lsl #24]
    1b8c:	05130505 	ldreq	r0, [r3, #-1285]	; 0xfffffafb
    1b90:	0511061c 	ldreq	r0, [r1, #-1564]	; 0xfffff9e4
    1b94:	054a2f05 	strbeq	r2, [sl, #-3845]	; 0xfffff0fb
    1b98:	76030606 	strvc	r0, [r3], -r6, lsl #12
    1b9c:	1305052e 	movwne	r0, #21806	; 0x552e
    1ba0:	76030a05 	strvc	r0, [r3], -r5, lsl #20
    1ba4:	15050501 	strne	r0, [r5, #-1281]	; 0xfffffaff
    1ba8:	030a052f 	movweq	r0, #42287	; 0xa52f
    1bac:	05050177 	streq	r0, [r5, #-375]	; 0xfffffe89
    1bb0:	060c0513 			; <UNDEFINED> instruction: 0x060c0513
    1bb4:	05056601 	streq	r6, [r5, #-1537]	; 0xfffff9ff
    1bb8:	01090306 	tsteq	r9, r6, lsl #6
    1bbc:	0501062f 	streq	r0, [r1, #-1583]	; 0xfffff9d1
    1bc0:	0176030c 	cmneq	r6, ip, lsl #6
    1bc4:	03060505 	movweq	r0, #25861	; 0x6505
    1bc8:	09052e0f 	stmdbeq	r5, {r0, r1, r2, r3, r9, sl, fp, sp}
    1bcc:	030a0513 	movweq	r0, #42259	; 0xa513
    1bd0:	05050174 	streq	r0, [r5, #-372]	; 0xfffffe8c
    1bd4:	0a052f15 	beq	14d830 <__bss_end__+0x1429c8>
    1bd8:	05017703 	streq	r7, [r1, #-1795]	; 0xfffff8fd
    1bdc:	0c051305 	stceq	3, cr1, [r5], {5}
    1be0:	05660106 	strbeq	r0, [r6, #-262]!	; 0xfffffefa
    1be4:	09030605 	stmdbeq	r3, {r0, r2, r9, sl}
    1be8:	06110501 	ldreq	r0, [r1], -r1, lsl #10
    1bec:	0305051a 	movweq	r0, #21786	; 0x551a
    1bf0:	2f062e78 	svccs	0x00062e78
    1bf4:	05190905 	ldreq	r0, [r9, #-2309]	; 0xfffff6fb
    1bf8:	0501060c 	streq	r0, [r1, #-1548]	; 0xfffff9f4
    1bfc:	058a061e 	streq	r0, [sl, #1566]	; 0x61e
    1c00:	06051305 	streq	r1, [r5], -r5, lsl #6
    1c04:	1305050e 	movwne	r0, #21774	; 0x550e
    1c08:	14061e05 	strne	r1, [r6], #-3589	; 0xfffff1fb
    1c0c:	662c0505 	strtvs	r0, [ip], -r5, lsl #10
    1c10:	03060605 	movweq	r0, #26117	; 0x6605
    1c14:	05052e76 	streq	r2, [r5, #-3702]	; 0xfffff18a
    1c18:	030a0513 	movweq	r0, #42259	; 0xa513
    1c1c:	05050176 	streq	r0, [r5, #-374]	; 0xfffffe8a
    1c20:	0a052f15 	beq	14d87c <__bss_end__+0x142a14>
    1c24:	05017703 	streq	r7, [r1, #-1795]	; 0xfffff8fd
    1c28:	0c051305 	stceq	3, cr1, [r5], {5}
    1c2c:	05660106 	strbeq	r0, [r6, #-262]!	; 0xfffffefa
    1c30:	09030605 	stmdbeq	r3, {r0, r2, r9, sl}
    1c34:	01062f01 	tsteq	r6, r1, lsl #30
    1c38:	76030c05 	strvc	r0, [r3], -r5, lsl #24
    1c3c:	06050501 	streq	r0, [r5], -r1, lsl #10
    1c40:	052e0f03 	streq	r0, [lr, #-3843]!	; 0xfffff0fd
    1c44:	0a051309 	beq	146870 <__bss_end__+0x13ba08>
    1c48:	05017403 	streq	r7, [r1, #-1027]	; 0xfffffbfd
    1c4c:	052f1505 	streq	r1, [pc, #-1285]!	; 174f <__code_start__-0x68b1>
    1c50:	0177030a 	cmneq	r7, sl, lsl #6
    1c54:	05130505 	ldreq	r0, [r3, #-1285]	; 0xfffffafb
    1c58:	6601060c 	strvs	r0, [r1], -ip, lsl #12
    1c5c:	03060505 	movweq	r0, #25861	; 0x6505
    1c60:	11050109 	tstne	r5, r9, lsl #2
    1c64:	05051a06 	streq	r1, [r5, #-2566]	; 0xfffff5fa
    1c68:	062e7803 	strteq	r7, [lr], -r3, lsl #16
    1c6c:	1909052f 	stmdbne	r9, {r0, r1, r2, r3, r5, r8, sl}
    1c70:	01060c05 	tsteq	r6, r5, lsl #24
    1c74:	01000802 	tsteq	r0, r2, lsl #16
    1c78:	00020401 	andeq	r0, r2, r1, lsl #8
    1c7c:	c8000300 	stmdagt	r0, {r8, r9}
    1c80:	02000000 	andeq	r0, r0, #0, 0
    1c84:	0d0efb01 	vstreq	d15, [lr, #-4]
    1c88:	01010100 	mrseq	r0, (UNDEF: 17)
    1c8c:	00000001 	andeq	r0, r0, r1
    1c90:	01000001 	tsteq	r0, r1
    1c94:	6d6f682f 	stclvs	8, cr6, [pc, #-188]!	; 1be0 <__code_start__-0x6420>
    1c98:	6e652f65 	cdpvs	15, 6, cr2, cr5, cr5, {3}
    1c9c:	72656c67 	rsbvc	r6, r5, #26368	; 0x6700
    1ca0:	616c632f 	cmnvs	ip, pc, lsr #6
    1ca4:	632f7373 			; <UNDEFINED> instruction: 0x632f7373
    1ca8:	30343173 	eorscc	r3, r4, r3, ror r1
    1cac:	32322d65 	eorscc	r2, r2, #6464	; 0x1940
    1cb0:	2f6e6977 	svccs	0x006e6977
    1cb4:	62696c2f 	rsbvs	r6, r9, #12032	; 0x2f00
    1cb8:	692f6970 	stmdbvs	pc!, {r4, r5, r6, r8, fp, sp, lr}	; <UNPREDICTABLE>
    1cbc:	756c636e 	strbvc	r6, [ip, #-878]!	; 0xfffffc92
    1cc0:	2f006564 	svccs	0x00006564
    1cc4:	2f727375 	svccs	0x00727375
    1cc8:	72616873 	rsbvc	r6, r1, #7536640	; 0x730000
    1ccc:	63672f65 	cmnvs	r7, #404	; 0x194
    1cd0:	72612d63 	rsbvc	r2, r1, #6336	; 0x18c0
    1cd4:	6f6e2d6d 	svcvs	0x006e2d6d
    1cd8:	652d656e 	strvs	r6, [sp, #-1390]!	; 0xfffffa92
    1cdc:	2d696261 	sfmcs	f6, 2, [r9, #-388]!	; 0xfffffe7c
    1ce0:	332e3031 			; <UNDEFINED> instruction: 0x332e3031
    1ce4:	3230322d 	eorscc	r3, r0, #-805306366	; 0xd0000002
    1ce8:	30312e31 	eorscc	r2, r1, r1, lsr lr
    1cec:	62696c2f 	rsbvs	r6, r9, #12032	; 0x2f00
    1cf0:	6363672f 	cmnvs	r3, #12320768	; 0xbc0000
    1cf4:	6d72612f 	ldfvse	f6, [r2, #-188]!	; 0xffffff44
    1cf8:	6e6f6e2d 	cdpvs	14, 6, cr6, cr15, cr13, {1}
    1cfc:	61652d65 	cmnvs	r5, r5, ror #26
    1d00:	312f6962 			; <UNDEFINED> instruction: 0x312f6962
    1d04:	2e332e30 	mrccs	14, 1, r2, cr3, cr0, {1}
    1d08:	6e692f31 	mcrvs	15, 3, r2, cr9, cr1, {1}
    1d0c:	64756c63 	ldrbtvs	r6, [r5], #-3171	; 0xfffff39d
    1d10:	75000065 	strvc	r0, [r0, #-101]	; 0xffffff9b
    1d14:	2e747261 	cdpcs	2, 7, cr7, cr4, cr1, {3}
    1d18:	00000063 	andeq	r0, r0, r3, rrx
    1d1c:	72617500 	rsbvc	r7, r1, #0, 10
    1d20:	00682e74 	rsbeq	r2, r8, r4, ror lr
    1d24:	72000001 	andvc	r0, r0, #1, 0
    1d28:	682e6970 	stmdavs	lr!, {r4, r5, r6, r8, fp, sp, lr}
    1d2c:	00000100 	andeq	r0, r0, r0, lsl #2
    1d30:	6f697067 	svcvs	0x00697067
    1d34:	0100682e 	tsteq	r0, lr, lsr #16
    1d38:	74730000 	ldrbtvc	r0, [r3], #-0
    1d3c:	746e6964 	strbtvc	r6, [lr], #-2404	; 0xfffff69c
    1d40:	6363672d 	cmnvs	r3, #11796480	; 0xb40000
    1d44:	0200682e 	andeq	r6, r0, #3014656	; 0x2e0000
    1d48:	05000000 	streq	r0, [r0, #-0]
    1d4c:	02050039 	andeq	r0, r5, #57, 0	; 0x39
    1d50:	00009920 	andeq	r9, r0, r0, lsr #18
    1d54:	06013003 	streq	r3, [r1], -r3
    1d58:	06050501 	streq	r0, [r5], -r1, lsl #10
    1d5c:	06110567 	ldreq	r0, [r1], -r7, ror #10
    1d60:	2e050501 	cfsh32cs	mvfx0, mvfx5, #1
    1d64:	05670105 	strbeq	r0, [r7, #-261]!	; 0xfffffefb
    1d68:	06290638 			; <UNDEFINED> instruction: 0x06290638
    1d6c:	06050501 	streq	r0, [r5], -r1, lsl #10
    1d70:	06110567 	ldreq	r0, [r1], -r7, ror #10
    1d74:	2e050501 	cfsh32cs	mvfx0, mvfx5, #1
    1d78:	05670105 	strbeq	r0, [r7, #-261]!	; 0xfffffefb
    1d7c:	15030616 	strne	r0, [r3, #-1558]	; 0xfffff9ea
    1d80:	3505052e 	strcc	r0, [r5, #-1326]	; 0xfffffad2
    1d84:	68356867 	ldmdavs	r5!, {r0, r1, r2, r5, r6, fp, sp, lr}
    1d88:	852e0c03 	strhi	r0, [lr, #-3075]!	; 0xfffff3fd
    1d8c:	0369696b 	cmneq	r9, #1753088	; 0x1ac000
    1d90:	6b13660c 	blvs	4db5c8 <__bss_end__+0x4d0760>
    1d94:	06010567 	streq	r0, [r1], -r7, ror #10
    1d98:	0619052f 	ldreq	r0, [r9], -pc, lsr #10
    1d9c:	05052508 	streq	r2, [r5, #-1288]	; 0xfffffaf8
    1da0:	060d0534 			; <UNDEFINED> instruction: 0x060d0534
    1da4:	4c010501 	cfstr32mi	mvfx0, [r1], {1}
    1da8:	67061905 	strvs	r1, [r6, -r5, lsl #18]
    1dac:	05360505 	ldreq	r0, [r6, #-1285]!	; 0xfffffafb
    1db0:	0501060d 	streq	r0, [r1, #-1549]	; 0xfffff9f3
    1db4:	01054a28 	tsteq	r5, r8, lsr #20
    1db8:	06150530 			; <UNDEFINED> instruction: 0x06150530
    1dbc:	2f050587 	svccs	0x00050587
    1dc0:	0009052f 	andeq	r0, r9, pc, lsr #10
    1dc4:	13010402 	movwne	r0, #5122	; 0x1402
    1dc8:	02000a05 	andeq	r0, r0, #20480	; 0x5000
    1dcc:	05110104 	ldreq	r0, [r1, #-260]	; 0xfffffefc
    1dd0:	0402000c 	streq	r0, [r2], #-12
    1dd4:	05010601 	streq	r0, [r1, #-1537]	; 0xfffff9ff
    1dd8:	0402000a 	streq	r0, [r2], #-10
    1ddc:	05052e01 	streq	r2, [r5, #-3585]	; 0xfffff1ff
    1de0:	0e054c06 	cdpeq	12, 0, cr4, cr5, cr6, {0}
    1de4:	09050106 	stmdbeq	r5, {r1, r2, r8}
    1de8:	0605054a 	streq	r0, [r5], -sl, asr #10
    1dec:	01052f2f 	tsteq	r5, pc, lsr #30
    1df0:	1c051306 	stcne	3, cr1, [r5], {6}
    1df4:	01066706 	tsteq	r6, r6, lsl #14
    1df8:	4b060505 	blmi	183214 <__bss_end__+0x1783ac>
    1dfc:	0009052f 	andeq	r0, r9, pc, lsr #10
    1e00:	13010402 	movwne	r0, #5122	; 0x1402
    1e04:	02000a05 	andeq	r0, r0, #20480	; 0x5000
    1e08:	05110104 	ldreq	r0, [r1, #-260]	; 0xfffffefc
    1e0c:	0402000c 	streq	r0, [r2], #-12
    1e10:	05010601 	streq	r0, [r1, #-1537]	; 0xfffff9ff
    1e14:	0402000a 	streq	r0, [r2], #-10
    1e18:	05052e01 	streq	r2, [r5, #-3585]	; 0xfffff1ff
    1e1c:	05674c06 	strbeq	r4, [r7, #-3078]!	; 0xfffff3fa
    1e20:	052f0601 	streq	r0, [pc, #-1537]!	; 1827 <__code_start__-0x67d9>
    1e24:	054c0619 	strbeq	r0, [ip, #-1561]	; 0xfffff9e7
    1e28:	2a052e1b 	bcs	14d69c <__bss_end__+0x142834>
    1e2c:	0631052e 	ldrteq	r0, [r1], -lr, lsr #10
    1e30:	2e420501 	cdpcs	5, 4, cr0, cr2, cr1, {0}
    1e34:	31061c05 	tstcc	r6, r5, lsl #24
    1e38:	032f0505 			; <UNDEFINED> instruction: 0x032f0505
    1e3c:	0e052e09 	cdpeq	14, 0, cr2, cr5, cr9, {0}
    1e40:	21050106 	tstcs	r5, r6, lsl #2
    1e44:	0301054a 	movweq	r0, #5450	; 0x154a
    1e48:	1a052e0a 	bne	14d678 <__bss_end__+0x142810>
    1e4c:	09056806 	stmdbeq	r5, {r1, r2, fp, sp, lr}
    1e50:	01040200 	mrseq	r0, R12_usr
    1e54:	000a0530 	andeq	r0, sl, r0, lsr r5
    1e58:	11010402 	tstne	r1, r2, lsl #8
    1e5c:	02000c05 	andeq	r0, r0, #1280	; 0x500
    1e60:	01060104 	tsteq	r6, r4, lsl #2
    1e64:	02000a05 	andeq	r0, r0, #20480	; 0x5000
    1e68:	052e0104 	streq	r0, [lr, #-260]!	; 0xfffffefc
    1e6c:	e8030619 	stmda	r3, {r0, r3, r4, r9, sl}
    1e70:	0505667e 	streq	r6, [r5, #-1662]	; 0xfffff982
    1e74:	672f2f2f 	strvs	r2, [pc, -pc, lsr #30]!
    1e78:	2f060105 	svccs	0x00060105
    1e7c:	01000402 	tsteq	r0, r2, lsl #8
    1e80:	00039201 	andeq	r9, r3, r1, lsl #4
    1e84:	b7000300 	strlt	r0, [r0, -r0, lsl #6]
    1e88:	02000000 	andeq	r0, r0, #0, 0
    1e8c:	0d0efb01 	vstreq	d15, [lr, #-4]
    1e90:	01010100 	mrseq	r0, (UNDEF: 17)
    1e94:	00000001 	andeq	r0, r0, r1
    1e98:	01000001 	tsteq	r0, r1
    1e9c:	6d6f682f 	stclvs	8, cr6, [pc, #-188]!	; 1de8 <__code_start__-0x6218>
    1ea0:	6e652f65 	cdpvs	15, 6, cr2, cr5, cr5, {3}
    1ea4:	72656c67 	rsbvc	r6, r5, #26368	; 0x6700
    1ea8:	616c632f 	cmnvs	ip, pc, lsr #6
    1eac:	632f7373 			; <UNDEFINED> instruction: 0x632f7373
    1eb0:	30343173 	eorscc	r3, r4, r3, ror r1
    1eb4:	32322d65 	eorscc	r2, r2, #6464	; 0x1940
    1eb8:	2f6e6977 	svccs	0x006e6977
    1ebc:	62696c2f 	rsbvs	r6, r9, #12032	; 0x2f00
    1ec0:	692f6970 	stmdbvs	pc!, {r4, r5, r6, r8, fp, sp, lr}	; <UNPREDICTABLE>
    1ec4:	756c636e 	strbvc	r6, [ip, #-878]!	; 0xfffffc92
    1ec8:	2f006564 	svccs	0x00006564
    1ecc:	2f727375 	svccs	0x00727375
    1ed0:	72616873 	rsbvc	r6, r1, #7536640	; 0x730000
    1ed4:	63672f65 	cmnvs	r7, #404	; 0x194
    1ed8:	72612d63 	rsbvc	r2, r1, #6336	; 0x18c0
    1edc:	6f6e2d6d 	svcvs	0x006e2d6d
    1ee0:	652d656e 	strvs	r6, [sp, #-1390]!	; 0xfffffa92
    1ee4:	2d696261 	sfmcs	f6, 2, [r9, #-388]!	; 0xfffffe7c
    1ee8:	332e3031 			; <UNDEFINED> instruction: 0x332e3031
    1eec:	3230322d 	eorscc	r3, r0, #-805306366	; 0xd0000002
    1ef0:	30312e31 	eorscc	r2, r1, r1, lsr lr
    1ef4:	62696c2f 	rsbvs	r6, r9, #12032	; 0x2f00
    1ef8:	6363672f 	cmnvs	r3, #12320768	; 0xbc0000
    1efc:	6d72612f 	ldfvse	f6, [r2, #-188]!	; 0xffffff44
    1f00:	6e6f6e2d 	cdpvs	14, 6, cr6, cr15, cr13, {1}
    1f04:	61652d65 	cmnvs	r5, r5, ror #26
    1f08:	312f6962 			; <UNDEFINED> instruction: 0x312f6962
    1f0c:	2e332e30 	mrccs	14, 1, r2, cr3, cr0, {1}
    1f10:	6e692f31 	mcrvs	15, 3, r2, cr9, cr1, {1}
    1f14:	64756c63 	ldrbtvs	r6, [r5], #-3171	; 0xfffff39d
    1f18:	6b000065 	blvs	20b4 <__code_start__-0x5f4c>
    1f1c:	6c6c616d 	stfvse	f6, [ip], #-436	; 0xfffffe4c
    1f20:	632e636f 			; <UNDEFINED> instruction: 0x632e636f
    1f24:	00000000 	andeq	r0, r0, r0
    1f28:	2e697072 	mcrcs	0, 3, r7, cr9, cr2, {3}
    1f2c:	00010068 	andeq	r0, r1, r8, rrx
    1f30:	64747300 	ldrbtvs	r7, [r4], #-768	; 0xfffffd00
    1f34:	2d746e69 	ldclcs	14, cr6, [r4, #-420]!	; 0xfffffe5c
    1f38:	2e636367 	cdpcs	3, 6, cr6, cr3, cr7, {3}
    1f3c:	00020068 	andeq	r0, r2, r8, rrx
    1f40:	1e050000 	cdpne	0, 0, cr0, cr5, cr0, {0}
    1f44:	10020500 	andne	r0, r2, r0, lsl #10
    1f48:	0300009b 	movweq	r0, #155	; 0x9b
    1f4c:	20050127 	andcs	r0, r5, r7, lsr #2
    1f50:	062d0501 	strteq	r0, [sp], -r1, lsl #10
    1f54:	06200501 	strteq	r0, [r0], -r1, lsl #10
    1f58:	01220583 	smlawbeq	r2, r3, r5, r0
    1f5c:	01063505 	tsteq	r6, r5, lsl #10
    1f60:	83061e05 	movwhi	r1, #28165	; 0x6e05
    1f64:	05012005 	streq	r2, [r1, #-5]
    1f68:	0501062d 	streq	r0, [r1, #-1581]	; 0xfffff9d3
    1f6c:	06850642 	streq	r0, [r5], r2, asr #12
    1f70:	06050501 	streq	r0, [r5], -r1, lsl #10
    1f74:	0601144b 	streq	r1, [r1], -fp, asr #8
    1f78:	0402002e 	streq	r0, [r2], #-46	; 0xffffffd2
    1f7c:	002e0602 	eoreq	r0, lr, r2, lsl #12
    1f80:	01020402 	tsteq	r2, r2, lsl #8
    1f84:	02040200 	andeq	r0, r4, #0, 4
    1f88:	000d0515 	andeq	r0, sp, r5, lsl r5
    1f8c:	06020402 	streq	r0, [r2], -r2, lsl #8
    1f90:	00070501 	andeq	r0, r7, r1, lsl #10
    1f94:	4a020402 	bmi	82fa4 <__bss_end__+0x7813c>
    1f98:	4b060905 	blmi	1843b4 <__bss_end__+0x17954c>
    1f9c:	05150505 	ldreq	r0, [r5, #-1285]	; 0xfffffafb
    1fa0:	05010617 	streq	r0, [r1, #-1559]	; 0xfffff9e9
    1fa4:	05054a10 	streq	r4, [r5, #-2576]	; 0xfffff5f0
    1fa8:	1b052f06 	blne	14dbc8 <__bss_end__+0x142d60>
    1fac:	0e050106 	adfeqs	f0, f5, f6
    1fb0:	2f01052e 	svccs	0x0001052e
    1fb4:	02000505 	andeq	r0, r0, #20971520	; 0x1400000
    1fb8:	03060104 	movweq	r0, #24836	; 0x6104
    1fbc:	02004a77 	andeq	r4, r0, #487424	; 0x77000
    1fc0:	00010104 	andeq	r0, r1, r4, lsl #2
    1fc4:	06010402 	streq	r0, [r1], -r2, lsl #8
    1fc8:	0402009e 	streq	r0, [r2], #-158	; 0xffffff62
    1fcc:	02002e01 	andeq	r2, r0, #1, 28
    1fd0:	2e060104 	adfcss	f0, f6, f4
    1fd4:	01320905 	teqeq	r2, r5, lsl #18
    1fd8:	062ed606 	strteq	sp, [lr], -r6, lsl #12
    1fdc:	de19052e 	cfmul64le	mvdx0, mvdx9, mvdx14
    1fe0:	142f0505 	strtne	r0, [pc], #-1285	; 1fe8 <__code_start__-0x6018>
    1fe4:	01060805 	tsteq	r6, r5, lsl #16
    1fe8:	054a0705 	strbeq	r0, [sl, #-1797]	; 0xfffff8fb
    1fec:	054b0609 	strbeq	r0, [fp, #-1545]	; 0xfffff9f7
    1ff0:	0c051305 	stceq	3, cr1, [r5], {5}
    1ff4:	05050106 	streq	r0, [r5, #-262]	; 0xfffffefa
    1ff8:	05136706 	ldreq	r6, [r3, #-1798]	; 0xfffff8fa
    1ffc:	05670601 	strbeq	r0, [r7, #-1537]!	; 0xfffff9ff
    2000:	012a0609 			; <UNDEFINED> instruction: 0x012a0609
    2004:	a528059e 	strge	r0, [r8, #-1438]!	; 0xfffffa62
    2008:	05050106 	streq	r0, [r5, #-262]	; 0xfffffefa
    200c:	06014b06 	streq	r4, [r1], -r6, lsl #22
    2010:	012e062e 			; <UNDEFINED> instruction: 0x012e062e
    2014:	03180513 	tsteq	r8, #79691776	; 0x4c00000
    2018:	05050147 	streq	r0, [r5, #-327]	; 0xfffffeb9
    201c:	01060113 	tsteq	r6, r3, lsl r1
    2020:	01150f06 	tsteq	r5, r6, lsl #30
    2024:	060e0513 			; <UNDEFINED> instruction: 0x060e0513
    2028:	2e160501 	cfmul32cs	mvfx0, mvfx6, mvfx1
    202c:	0605052e 	streq	r0, [r5], -lr, lsr #10
    2030:	05013903 	streq	r3, [r1, #-2307]	; 0xfffff6fd
    2034:	0501060b 	streq	r0, [r1, #-1547]	; 0xfffff9f5
    2038:	054b0605 	strbeq	r0, [fp, #-1541]	; 0xfffff9fb
    203c:	0501060a 	streq	r0, [r1, #-1546]	; 0xfffff9f6
    2040:	054b0605 	strbeq	r0, [fp, #-1541]	; 0xfffff9fb
    2044:	0501060d 	streq	r0, [r1, #-1549]	; 0xfffff9f3
    2048:	01052e07 	tsteq	r5, r7, lsl #28
    204c:	0005054d 	andeq	r0, r5, sp, asr #10
    2050:	06010402 	streq	r0, [r1], -r2, lsl #8
    2054:	004a7803 	subeq	r7, sl, r3, lsl #16
    2058:	01010402 	tsteq	r1, r2, lsl #8
    205c:	01040200 	mrseq	r0, R12_usr
    2060:	0200ba06 	andeq	fp, r0, #24576	; 0x6000
    2064:	2e060104 	adfcss	f0, f6, f4
    2068:	01340905 	teqeq	r4, r5, lsl #18
    206c:	06668206 	strbteq	r8, [r6], -r6, lsl #4
    2070:	db20052e 	blle	803530 <__bss_end__+0x7f86c8>
    2074:	05050106 	streq	r0, [r5, #-262]	; 0xfffffefa
    2078:	00014b06 	andeq	r4, r1, r6, lsl #22
    207c:	4a020402 	bmi	8308c <__bss_end__+0x78224>
    2080:	02040200 	andeq	r0, r4, #0, 4
    2084:	04020001 	streq	r0, [r2], #-1
    2088:	12051302 	andne	r1, r5, #134217728	; 0x8000000
    208c:	02040200 	andeq	r0, r4, #0, 4
    2090:	02000106 	andeq	r0, r0, #-2147483647	; 0x80000001
    2094:	002e0204 	eoreq	r0, lr, r4, lsl #4
    2098:	2e020402 	cdpcs	4, 0, cr0, cr2, cr2, {0}
    209c:	02000505 	andeq	r0, r0, #20971520	; 0x1400000
    20a0:	2f060204 	svccs	0x00060204
    20a4:	02040200 	andeq	r0, r4, #0, 4
    20a8:	00010567 	andeq	r0, r1, r7, ror #10
    20ac:	06020402 	streq	r0, [r2], -r2, lsl #8
    20b0:	00050513 	andeq	r0, r5, r3, lsl r5
    20b4:	06010402 	streq	r0, [r1], -r2, lsl #8
    20b8:	04020062 	streq	r0, [r2], #-98	; 0xffffff9e
    20bc:	02000101 	andeq	r0, r0, #1073741824	; 0x40000000
    20c0:	ba060104 	blt	1824d8 <__bss_end__+0x177670>
    20c4:	01040200 	mrseq	r0, R12_usr
    20c8:	3c052e06 	stccc	14, cr2, [r5], {6}
    20cc:	069e0a03 	ldreq	r0, [lr], r3, lsl #20
    20d0:	06050501 	streq	r0, [r5], -r1, lsl #10
    20d4:	2e06014b 	adfcssm	f0, f6, #3.0
    20d8:	13012e06 	movwne	r2, #7686	; 0x1e06
    20dc:	03180501 	tsteq	r8, #4194304	; 0x400000
    20e0:	05017fad 	streq	r7, [r1, #-4013]	; 0xfffff053
    20e4:	11051305 	tstne	r5, r5, lsl #6
    20e8:	052e0106 	streq	r0, [lr, #-262]!	; 0xfffffefa
    20ec:	00d20305 	sbcseq	r0, r2, r5, lsl #6
    20f0:	134a0601 	movtne	r0, #42497	; 0xa601
    20f4:	a3031805 	movwge	r1, #14341	; 0x3805
    20f8:	0505017f 	streq	r0, [r5, #-383]	; 0xfffffe81
    20fc:	06160513 			; <UNDEFINED> instruction: 0x06160513
    2100:	05054a01 	streq	r4, [r5, #-2561]	; 0xfffff5ff
    2104:	00e10306 	rsceq	r0, r1, r6, lsl #6
    2108:	06120501 	ldreq	r0, [r2], -r1, lsl #10
    210c:	06050501 	streq	r0, [r5], -r1, lsl #10
    2110:	0318054b 	tsteq	r8, #314572800	; 0x12c00000
    2114:	05017fa9 	streq	r7, [r1, #-4009]	; 0xfffff057
    2118:	05011305 	streq	r1, [r1, #-773]	; 0xfffffcfb
    211c:	05050e18 	streq	r0, [r5, #-3608]	; 0xfffff1e8
    2120:	06110513 			; <UNDEFINED> instruction: 0x06110513
    2124:	05052e01 	streq	r2, [r5, #-3585]	; 0xfffff1ff
    2128:	014a0615 	cmpeq	sl, r5, lsl r6
    212c:	060e0513 			; <UNDEFINED> instruction: 0x060e0513
    2130:	16052e01 	strne	r2, [r5], -r1, lsl #28
    2134:	05052e2e 	streq	r2, [r5, #-3630]	; 0xfffff1d2
    2138:	00d60306 	sbcseq	r0, r6, r6, lsl #6
    213c:	18050101 	stmdane	r5, {r0, r8}
    2140:	017f9f03 	cmneq	pc, r3, lsl #30
    2144:	05130505 	ldreq	r0, [r3, #-1285]	; 0xfffffafb
    2148:	2e010619 	mcrcs	6, 0, r0, cr1, cr9, {0}
    214c:	e0030505 	and	r0, r3, r5, lsl #10
    2150:	02000100 	andeq	r0, r0, #0
    2154:	4a060204 	bmi	18296c <__bss_end__+0x177b04>
    2158:	02040200 	andeq	r0, r4, #0, 4
    215c:	000a0514 	andeq	r0, sl, r4, lsl r5
    2160:	06020402 	streq	r0, [r2], -r2, lsl #8
    2164:	00050501 	andeq	r0, r5, r1, lsl #10
    2168:	06020402 	streq	r0, [r2], -r2, lsl #8
    216c:	000c054b 	andeq	r0, ip, fp, asr #10
    2170:	06020402 	streq	r0, [r2], -r2, lsl #8
    2174:	00010501 	andeq	r0, r1, r1, lsl #10
    2178:	2f020402 	svccs	0x00020402
    217c:	02000505 	andeq	r0, r0, #20971520	; 0x1400000
    2180:	03060104 	movweq	r0, #24836	; 0x6104
    2184:	02004a73 	andeq	r4, r0, #471040	; 0x73000
    2188:	00010104 	andeq	r0, r1, r4, lsl #2
    218c:	06010402 	streq	r0, [r1], -r2, lsl #8
    2190:	0402009e 	streq	r0, [r2], #-158	; 0xffffff62
    2194:	02002e01 	andeq	r2, r0, #1, 28
    2198:	2e060104 	adfcss	f0, f6, f4
    219c:	01040200 	mrseq	r0, R12_usr
    21a0:	0402002f 	streq	r0, [r2], #-47	; 0xffffffd1
    21a4:	02002e01 	andeq	r2, r0, #1, 28
    21a8:	03d60104 	bicseq	r0, r6, #1
    21ac:	012e7fb1 			; <UNDEFINED> instruction: 0x012e7fb1
    21b0:	2e2e8206 	cdpcs	2, 2, cr8, cr14, cr6, {0}
    21b4:	2e062e06 	cdpcs	14, 0, cr2, cr6, cr6, {0}
    21b8:	01040200 	mrseq	r0, R12_usr
    21bc:	00d70306 	sbcseq	r0, r7, r6, lsl #6
    21c0:	04020001 	streq	r0, [r2], #-1
    21c4:	02002e01 	andeq	r2, r0, #1, 28
    21c8:	05d60104 	ldrbeq	r0, [r6, #260]	; 0x104
    21cc:	057b0815 	ldrbeq	r0, [fp, #-2069]!	; 0xfffff7eb
    21d0:	16050117 			; <UNDEFINED> instruction: 0x16050117
    21d4:	01180531 	tsteq	r8, r1, lsr r5
    21d8:	01061d05 	tsteq	r6, r5, lsl #26
    21dc:	05662b05 	strbeq	r2, [r6, #-2821]!	; 0xfffff4fb
    21e0:	054d0619 	strbeq	r0, [sp, #-1561]	; 0xfffff9e7
    21e4:	0c051305 	stceq	3, cr1, [r5], {5}
    21e8:	07050106 	streq	r0, [r5, -r6, lsl #2]
    21ec:	0025054a 	eoreq	r0, r5, sl, asr #10
    21f0:	4a010402 	bmi	43200 <__bss_end__+0x38398>
    21f4:	02001e05 	andeq	r1, r0, #80	; 0x50
    21f8:	054a0104 	strbeq	r0, [sl, #-260]	; 0xfffffefc
    21fc:	054b0609 	strbeq	r0, [fp, #-1545]	; 0xfffff9f7
    2200:	0a051305 	beq	146e1c <__bss_end__+0x13bfb4>
    2204:	19050106 	stmdbne	r5, {r1, r2, r8}
    2208:	06090563 	streq	r0, [r9], -r3, ror #10
    220c:	9e06014c 	adflssm	f0, f6, #4.0
    2210:	0a022e06 	beq	8da30 <__bss_end__+0x82bc8>
    2214:	89010100 	stmdbhi	r1, {r8}
    2218:	03000002 	movweq	r0, #2
    221c:	0000c900 	andeq	ip, r0, r0, lsl #18
    2220:	fb010200 	blx	42a2a <__bss_end__+0x37bc2>
    2224:	01000d0e 	tsteq	r0, lr, lsl #26
    2228:	00010101 	andeq	r0, r1, r1, lsl #2
    222c:	00010000 	andeq	r0, r1, r0
    2230:	2f2e0100 	svccs	0x002e0100
    2234:	00637273 	rsbeq	r7, r3, r3, ror r2
    2238:	6573552f 	ldrbvs	r5, [r3, #-1327]!	; 0xfffffad1
    223c:	6d2f7372 	stcvs	3, cr7, [pc, #-456]!	; 207c <__code_start__-0x5f84>
    2240:	73656c69 	cmnvc	r5, #26880	; 0x6900
    2244:	756f532f 	strbvc	r5, [pc, #-815]!	; 1f1d <__code_start__-0x60e3>
    2248:	2f656372 	svccs	0x00656372
    224c:	34327363 	ldrtcc	r7, [r2], #-867	; 0xfffffc9d
    2250:	2f786c30 	svccs	0x00786c30
    2254:	7062696c 	rsbvc	r6, r2, ip, ror #18
    2258:	6e692f69 	cdpvs	15, 6, cr2, cr9, cr9, {3}
    225c:	64756c63 	ldrbtvs	r6, [r5], #-3171	; 0xfffff39d
    2260:	6f2f0065 	svcvs	0x002f0065
    2264:	682f7470 	stmdavs	pc!, {r4, r5, r6, sl, ip, sp, lr}	; <UNPREDICTABLE>
    2268:	62656d6f 	rsbvs	r6, r5, #7104	; 0x1bc0
    226c:	2f776572 	svccs	0x00776572
    2270:	6c6c6543 	cfstr64vs	mvdx6, [ip], #-268	; 0xfffffef4
    2274:	612f7261 			; <UNDEFINED> instruction: 0x612f7261
    2278:	6e2d6d72 	mcrvs	13, 1, r6, cr13, cr2, {3}
    227c:	2d656e6f 	stclcs	14, cr6, [r5, #-444]!	; 0xfffffe44
    2280:	69626165 	stmdbvs	r2!, {r0, r2, r5, r6, r8, sp, lr}^
    2284:	392f392d 	stmdbcc	pc!, {r0, r2, r3, r5, r8, fp, ip, sp}	; <UNPREDICTABLE>
    2288:	3130322d 	teqcc	r0, sp, lsr #4
    228c:	2d347139 	ldfcss	f7, [r4, #-228]!	; 0xffffff1c
    2290:	30317363 	eorscc	r7, r1, r3, ror #6
    2294:	6c2f6537 	cfstr32vs	mvfx6, [pc], #-220	; 21c0 <__code_start__-0x5e40>
    2298:	672f6269 	strvs	r6, [pc, -r9, ror #4]!
    229c:	612f6363 			; <UNDEFINED> instruction: 0x612f6363
    22a0:	6e2d6d72 	mcrvs	13, 1, r6, cr13, cr2, {3}
    22a4:	2d656e6f 	stclcs	14, cr6, [r5, #-444]!	; 0xfffffe44
    22a8:	69626165 	stmdbvs	r2!, {r0, r2, r5, r6, r8, sp, lr}^
    22ac:	322e392f 	eorcc	r3, lr, #770048	; 0xbc000
    22b0:	692f312e 	stmdbvs	pc!, {r1, r2, r3, r5, r8, ip, sp}	; <UNPREDICTABLE>
    22b4:	756c636e 	strbvc	r6, [ip, #-878]!	; 0xfffffc92
    22b8:	00006564 	andeq	r6, r0, r4, ror #10
    22bc:	6f697067 	svcvs	0x00697067
    22c0:	0100632e 	tsteq	r0, lr, lsr #6
    22c4:	70720000 	rsbsvc	r0, r2, r0
    22c8:	00682e69 	rsbeq	r2, r8, r9, ror #28
    22cc:	73000002 	movwvc	r0, #2
    22d0:	6e696474 	mcrvs	4, 3, r6, cr9, cr4, {3}
    22d4:	63672d74 	cmnvs	r7, #116, 26	; 0x1d00
    22d8:	00682e63 	rsbeq	r2, r8, r3, ror #28
    22dc:	67000003 	strvs	r0, [r0, -r3]
    22e0:	2e6f6970 			; <UNDEFINED> instruction: 0x2e6f6970
    22e4:	00020068 	andeq	r0, r2, r8, rrx
    22e8:	38050000 	stmdacc	r5, {}	; <UNPREDICTABLE>
    22ec:	c0020500 	andgt	r0, r2, r0, lsl #10
    22f0:	0300009e 	movweq	r0, #158	; 0x9e
    22f4:	05050127 	streq	r0, [r5, #-295]	; 0xfffffed9
    22f8:	06070513 			; <UNDEFINED> instruction: 0x06070513
    22fc:	06060501 	streq	r0, [r6], -r1, lsl #10
    2300:	15050549 	strne	r0, [r5, #-1353]	; 0xfffffab7
    2304:	01060705 	tsteq	r6, r5, lsl #14
    2308:	052b3805 	streq	r3, [fp, #-2053]!	; 0xfffff7fb
    230c:	05054d07 	streq	r4, [r5, #-3335]	; 0xfffff2f9
    2310:	18053006 	stmdane	r5, {r1, r2, ip, sp}
    2314:	1c050106 	stfnes	f0, [r5], {6}
    2318:	4a0e0567 	bmi	3838bc <__bss_end__+0x378a54>
    231c:	052d1805 	streq	r1, [sp, #-2053]!	; 0xfffff7fb
    2320:	2f2e4d12 	svccs	0x002e4d12
    2324:	052a0e05 	streq	r0, [sl, #-3589]!	; 0xfffff1fb
    2328:	142f0605 	strtne	r0, [pc], #-1541	; 2330 <__code_start__-0x5cd0>
    232c:	06070513 			; <UNDEFINED> instruction: 0x06070513
    2330:	06050501 	streq	r0, [r5], -r1, lsl #10
    2334:	2e06132f 	cdpcs	3, 0, cr1, cr6, cr15, {1}
    2338:	1301052e 	movwne	r0, #5422	; 0x152e
    233c:	2e2d0505 	cfsh64cs	mvdx0, mvdx13, #5
    2340:	00062405 	andeq	r2, r6, r5, lsl #8
    2344:	9f200205 	svcls	0x00200205
    2348:	05150000 	ldreq	r0, [r5, #-0]
    234c:	06051305 	streq	r1, [r5], -r5, lsl #6
    2350:	05017103 	streq	r7, [r1, #-259]	; 0xfffffefd
    2354:	07051305 	streq	r1, [r5, -r5, lsl #6]
    2358:	06050106 	streq	r0, [r5], -r6, lsl #2
    235c:	05054906 	streq	r4, [r5, #-2310]	; 0xfffff6fa
    2360:	24051415 	strcs	r1, [r5], #-1045	; 0xfffffbeb
    2364:	01090306 	tsteq	r9, r6, lsl #6
    2368:	77031805 	strvc	r1, [r3, -r5, lsl #16]
    236c:	671c052e 	ldrvs	r0, [ip, -lr, lsr #10]
    2370:	054a0e05 	strbeq	r0, [sl, #-3589]	; 0xfffff1fb
    2374:	12052d18 	andne	r2, r5, #24, 26	; 0x600
    2378:	052f2e4d 	streq	r2, [pc, #-3661]!	; 1533 <__code_start__-0x6acd>
    237c:	0e052f0f 	cdpeq	15, 0, cr2, cr5, cr15, {0}
    2380:	06050529 	streq	r0, [r5], -r9, lsr #10
    2384:	0513142f 	ldreq	r1, [r3, #-1071]	; 0xfffffbd1
    2388:	05010607 	streq	r0, [r1, #-1543]	; 0xfffff9f9
    238c:	132f0605 			; <UNDEFINED> instruction: 0x132f0605
    2390:	01052e06 	tsteq	r5, r6, lsl #28
    2394:	29050533 	stmdbcs	r5, {r0, r1, r4, r5, r8, sl}
    2398:	0627052e 	strteq	r0, [r7], -lr, lsr #10
    239c:	78020500 	stmdavc	r2, {r8, sl}
    23a0:	1a00009f 	bne	2624 <__code_start__-0x59dc>
    23a4:	05130505 	ldreq	r0, [r3, #-1285]	; 0xfffffafb
    23a8:	05110627 	ldreq	r0, [r1, #-1575]	; 0xfffff9d9
    23ac:	05052f18 	streq	r2, [r5, #-3864]	; 0xfffff0e8
    23b0:	054a2e2e 	strbeq	r2, [sl, #-3630]	; 0xfffff1d2
    23b4:	05000628 	streq	r0, [r0, #-1576]	; 0xfffff9d8
    23b8:	009f9002 	addseq	r9, pc, r2
    23bc:	05051600 	streq	r1, [r5, #-1536]	; 0xfffffa00
    23c0:	06280513 			; <UNDEFINED> instruction: 0x06280513
    23c4:	2f180511 	svccs	0x00180511
    23c8:	2e2e0505 	cfsh64cs	mvdx0, mvdx14, #5
    23cc:	0623054a 	strteq	r0, [r3], -sl, asr #10
    23d0:	a8020500 	stmdage	r2, {r8, sl}
    23d4:	1600009f 			; <UNDEFINED> instruction: 0x1600009f
    23d8:	05130505 	ldreq	r0, [r3, #-1285]	; 0xfffffafb
    23dc:	01620306 	cmneq	r2, r6, lsl #6
    23e0:	05130505 	ldreq	r0, [r3, #-1285]	; 0xfffffafb
    23e4:	05010607 	streq	r0, [r1, #-1543]	; 0xfffff9f9
    23e8:	05490606 	strbeq	r0, [r9, #-1542]	; 0xfffff9fa
    23ec:	13141505 	tstne	r4, #20971520	; 0x1400000
    23f0:	03062305 	movweq	r2, #25349	; 0x6305
    23f4:	22050117 	andcs	r0, r5, #-1073741819	; 0xc0000005
    23f8:	052e6903 	streq	r6, [lr, #-2307]!	; 0xfffff6fd
    23fc:	052e821c 	streq	r8, [lr, #-540]!	; 0xfffffde4
    2400:	05052e0e 	streq	r2, [r5, #-3598]	; 0xfffff1f2
    2404:	12053006 	andne	r3, r5, #6, 0
    2408:	2d4b0106 	stfcse	f0, [fp, #-24]	; 0xffffffe8
    240c:	2f060505 	svccs	0x00060505
    2410:	18051313 	stmdane	r5, {r0, r1, r4, r8, r9, ip}
    2414:	017a0306 	cmneq	sl, r6, lsl #6
    2418:	054a0e05 	strbeq	r0, [sl, #-3589]	; 0xfffff1fb
    241c:	052e3405 	streq	r3, [lr, #-1029]!	; 0xfffffbfb
    2420:	2e140301 	cdpcs	3, 1, cr0, cr4, cr1, {0}
    2424:	6c030505 	cfstr32vs	mvfx0, [r3], {5}
    2428:	2b052e2e 	blcs	14dce8 <__bss_end__+0x142e80>
    242c:	02050006 	andeq	r0, r5, #6, 0
    2430:	0000a000 	andeq	sl, r0, r0
    2434:	05011703 	streq	r1, [r1, #-1795]	; 0xfffff8fd
    2438:	07051305 	streq	r1, [r5, -r5, lsl #6]
    243c:	18050106 	stmdane	r5, {r1, r2, r8}
    2440:	052e7103 	streq	r7, [lr, #-259]!	; 0xfffffefd
    2444:	2e0e032b 	cdpcs	3, 0, cr0, cr14, cr11, {1}
    2448:	052f0705 	streq	r0, [pc, #-1797]!	; 1d4b <__code_start__-0x62b5>
    244c:	052f0609 	streq	r0, [pc, #-1545]!	; 1e4b <__code_start__-0x61b5>
    2450:	016f030d 	cmneq	pc, sp, lsl #6
    2454:	06130505 	ldreq	r0, [r3], -r5, lsl #10
    2458:	052e2e2e 	streq	r2, [lr, #-3630]!	; 0xfffff1d2
    245c:	12030609 	andne	r0, r3, #9437184	; 0x900000
    2460:	030d0501 	movweq	r0, #54529	; 0xd501
    2464:	05050172 	streq	r0, [r5, #-370]	; 0xfffffe8e
    2468:	2e2e0613 	mcrcs	6, 1, r0, cr14, cr3, {0}
    246c:	03061d05 	movweq	r1, #27909	; 0x6d05
    2470:	05056610 	streq	r6, [r5, #-1552]	; 0xfffff9f0
    2474:	061d0513 			; <UNDEFINED> instruction: 0x061d0513
    2478:	05052e11 	streq	r2, [r5, #-3601]	; 0xfffff1ef
    247c:	05133006 	ldreq	r3, [r3, #-6]
    2480:	0510060e 	ldreq	r0, [r0, #-1550]	; 0xfffff9f2
    2484:	042e3017 	strteq	r3, [lr], #-23	; 0xffffffe9
    2488:	06300502 	ldrteq	r0, [r0], -r2, lsl #10
    248c:	2e00dd03 	cdpcs	13, 0, cr13, cr0, cr3, {0}
    2490:	0e050104 	adfeqs	f0, f5, f4
    2494:	7fa20306 	svcvc	0x00a20306
    2498:	2f230501 	svccs	0x00230501
    249c:	022f0105 	eoreq	r0, pc, #1073741825	; 0x40000001
    24a0:	01010006 	tsteq	r1, r6
    24a4:	0000009e 	muleq	r0, lr, r0
    24a8:	005a0003 	subseq	r0, sl, r3
    24ac:	01020000 	mrseq	r0, (UNDEF: 2)
    24b0:	000d0efb 	strdeq	r0, [sp], -fp
    24b4:	01010101 	tsteq	r1, r1, lsl #2
    24b8:	01000000 	mrseq	r0, (UNDEF: 0)
    24bc:	2e010000 	cdpcs	0, 0, cr0, cr1, cr0, {0}
    24c0:	62696c2f 	rsbvs	r6, r9, #12032	; 0x2f00
    24c4:	552f0063 	strpl	r0, [pc, #-99]!	; 2469 <__code_start__-0x5b97>
    24c8:	73726573 	cmnvc	r2, #482344960	; 0x1cc00000
    24cc:	6c696d2f 	stclvs	13, cr6, [r9], #-188	; 0xffffff44
    24d0:	532f7365 			; <UNDEFINED> instruction: 0x532f7365
    24d4:	6372756f 	cmnvs	r2, #465567744	; 0x1bc00000
    24d8:	73632f65 	cmnvc	r3, #404	; 0x194
    24dc:	6c303432 	cfldrsvs	mvf3, [r0], #-200	; 0xffffff38
    24e0:	696c2f78 	stmdbvs	ip!, {r3, r4, r5, r6, r8, r9, sl, fp, sp}^
    24e4:	2f697062 	svccs	0x00697062
    24e8:	6c636e69 	stclvs	14, cr6, [r3], #-420	; 0xfffffe5c
    24ec:	00656475 	rsbeq	r6, r5, r5, ror r4
    24f0:	74757000 	ldrbtvc	r7, [r5], #-0
    24f4:	72616863 	rsbvc	r6, r1, #6488064	; 0x630000
    24f8:	0100632e 	tsteq	r0, lr, lsr #6
    24fc:	70720000 	rsbsvc	r0, r2, r0
    2500:	00682e69 	rsbeq	r2, r8, r9, ror #28
    2504:	00000002 	andeq	r0, r0, r2
    2508:	05002405 	streq	r2, [r0, #-1029]	; 0xfffffbfb
    250c:	00a05802 	adceq	r5, r0, r2, lsl #16
    2510:	26051400 	strcs	r1, [r5], -r0, lsl #8
    2514:	06240501 	strteq	r0, [r4], -r1, lsl #10
    2518:	26052e01 	strcs	r2, [r5], -r1, lsl #28
    251c:	0634052e 	ldrteq	r0, [r4], -lr, lsr #10
    2520:	0601052e 	streq	r0, [r1], -lr, lsr #10
    2524:	061b0501 	ldreq	r0, [fp], -r1, lsl #10
    2528:	1305054f 	movwne	r0, #21839	; 0x554f
    252c:	01061105 	tsteq	r6, r5, lsl #2
    2530:	05670105 	strbeq	r0, [r7, #-261]!	; 0xfffffefb
    2534:	05670623 	strbeq	r0, [r7, #-1571]!	; 0xfffff9dd
    2538:	11051305 	tstne	r5, r5, lsl #6
    253c:	01050106 	tsteq	r5, r6, lsl #2
    2540:	0004024b 	andeq	r0, r4, fp, asr #4
    2544:	00e20101 	rsceq	r0, r2, r1, lsl #2
    2548:	00030000 	andeq	r0, r3, r0
    254c:	00000059 	andeq	r0, r0, r9, asr r0
    2550:	0efb0102 	cdpeq	1, 15, cr0, cr11, cr2, {0}
    2554:	0101000d 	tsteq	r1, sp
    2558:	00000101 	andeq	r0, r0, r1, lsl #2
    255c:	00000100 	andeq	r0, r0, r0, lsl #2
    2560:	6c2f2e01 	stcvs	14, cr2, [pc], #-4	; 2564 <__code_start__-0x5a9c>
    2564:	00636269 	rsbeq	r6, r3, r9, ror #4
    2568:	6573552f 	ldrbvs	r5, [r3, #-1327]!	; 0xfffffad1
    256c:	6d2f7372 	stcvs	3, cr7, [pc, #-456]!	; 23ac <__code_start__-0x5c54>
    2570:	73656c69 	cmnvc	r5, #26880	; 0x6900
    2574:	756f532f 	strbvc	r5, [pc, #-815]!	; 224d <__code_start__-0x5db3>
    2578:	2f656372 	svccs	0x00656372
    257c:	34327363 	ldrtcc	r7, [r2], #-867	; 0xfffffc9d
    2580:	2f786c30 	svccs	0x00786c30
    2584:	7062696c 	rsbvc	r6, r2, ip, ror #18
    2588:	6e692f69 	cdpvs	15, 6, cr2, cr9, cr9, {3}
    258c:	64756c63 	ldrbtvs	r6, [r5], #-3171	; 0xfffff39d
    2590:	73000065 	movwvc	r0, #101	; 0x65
    2594:	61637274 	smcvs	14116	; 0x3724
    2598:	00632e74 	rsbeq	r2, r3, r4, ror lr
    259c:	72000001 	andvc	r0, r0, #1, 0
    25a0:	682e6970 	stmdavs	lr!, {r4, r5, r6, r8, fp, sp, lr}
    25a4:	00000200 	andeq	r0, r0, r0, lsl #4
    25a8:	002c0500 	eoreq	r0, ip, r0, lsl #10
    25ac:	a0940205 	addsge	r0, r4, r5, lsl #4
    25b0:	05150000 	ldreq	r0, [r5, #-0]
    25b4:	05131305 	ldreq	r1, [r3, #-773]	; 0xfffffcfb
    25b8:	0511060b 	ldreq	r0, [r1, #-1547]	; 0xfffff9f5
    25bc:	04020005 	streq	r0, [r2], #-5
    25c0:	00300601 	eorseq	r0, r0, r1, lsl #12
    25c4:	15010402 	strne	r0, [r1, #-1026]	; 0xfffffbfe
    25c8:	02000905 	andeq	r0, r0, #81920	; 0x14000
    25cc:	05130104 	ldreq	r0, [r3, #-260]	; 0xfffffefc
    25d0:	0402000b 	streq	r0, [r2], #-11
    25d4:	05052f01 	streq	r2, [r5, #-3841]	; 0xfffff0ff
    25d8:	01040200 	mrseq	r0, R12_usr
    25dc:	02000106 	andeq	r0, r0, #-2147483647	; 0x80000001
    25e0:	062e0104 	strteq	r0, [lr], -r4, lsl #2
    25e4:	0608054e 	streq	r0, [r8], -lr, asr #10
    25e8:	00050501 	andeq	r0, r5, r1, lsl #10
    25ec:	06010402 	streq	r0, [r1], -r2, lsl #8
    25f0:	0009052f 	andeq	r0, r9, pc, lsr #10
    25f4:	13010402 	movwne	r0, #5122	; 0x1402
    25f8:	02000b05 	andeq	r0, r0, #5120	; 0x1400
    25fc:	01060104 	tsteq	r6, r4, lsl #2
    2600:	02000905 	andeq	r0, r0, #81920	; 0x14000
    2604:	2f060104 	svccs	0x00060104
    2608:	02000505 	andeq	r0, r0, #20971520	; 0x1400000
    260c:	13060104 	movwne	r0, #24836	; 0x6104
    2610:	02000f05 	andeq	r0, r0, #5, 30
    2614:	052d0104 	streq	r0, [sp, #-260]!	; 0xfffffefc
    2618:	0402000d 	streq	r0, [r2], #-13
    261c:	052f0601 	streq	r0, [pc, #-1537]!	; 2023 <__code_start__-0x5fdd>
    2620:	04020005 	streq	r0, [r2], #-5
    2624:	02010601 	andeq	r0, r1, #1048576	; 0x100000
    2628:	01010004 	tsteq	r1, r4
    262c:	000000b2 	strheq	r0, [r0], -r2
    2630:	00590003 	subseq	r0, r9, r3
    2634:	01020000 	mrseq	r0, (UNDEF: 2)
    2638:	000d0efb 	strdeq	r0, [sp], -fp
    263c:	01010101 	tsteq	r1, r1, lsl #2
    2640:	01000000 	mrseq	r0, (UNDEF: 0)
    2644:	2e010000 	cdpcs	0, 0, cr0, cr1, cr0, {0}
    2648:	62696c2f 	rsbvs	r6, r9, #12032	; 0x2f00
    264c:	552f0063 	strpl	r0, [pc, #-99]!	; 25f1 <__code_start__-0x5a0f>
    2650:	73726573 	cmnvc	r2, #482344960	; 0x1cc00000
    2654:	6c696d2f 	stclvs	13, cr6, [r9], #-188	; 0xffffff44
    2658:	532f7365 			; <UNDEFINED> instruction: 0x532f7365
    265c:	6372756f 	cmnvs	r2, #465567744	; 0x1bc00000
    2660:	73632f65 	cmnvc	r3, #404	; 0x194
    2664:	6c303432 	cfldrsvs	mvf3, [r0], #-200	; 0xffffff38
    2668:	696c2f78 	stmdbvs	ip!, {r3, r4, r5, r6, r8, r9, sl, fp, sp}^
    266c:	2f697062 	svccs	0x00697062
    2670:	6c636e69 	stclvs	14, cr6, [r3], #-420	; 0xfffffe5c
    2674:	00656475 	rsbeq	r6, r5, r5, ror r4
    2678:	72747300 	rsbsvc	r7, r4, #0, 6
    267c:	2e706d63 	cdpcs	13, 7, cr6, cr0, cr3, {3}
    2680:	00010063 	andeq	r0, r1, r3, rrx
    2684:	69707200 	ldmdbvs	r0!, {r9, ip, sp, lr}^
    2688:	0200682e 	andeq	r6, r0, #3014656	; 0x2e0000
    268c:	05000000 	streq	r0, [r0, #-0]
    2690:	0205002a 	andeq	r0, r5, #42, 0	; 0x2a
    2694:	0000a0c0 	andeq	sl, r0, r0, asr #1
    2698:	13090514 	movwne	r0, #38164	; 0x9514
    269c:	01061005 	tsteq	r6, r5
    26a0:	2e060f05 	cdpcs	15, 0, cr0, cr6, cr5, {0}
    26a4:	82061005 	andhi	r1, r6, #5, 0
    26a8:	052e0f05 	streq	r0, [lr, #-3845]!	; 0xfffff0fb
    26ac:	04020011 	streq	r0, [r2], #-17	; 0xffffffef
    26b0:	054b0601 	strbeq	r0, [fp, #-1537]	; 0xfffff9ff
    26b4:	0402001c 	streq	r0, [r2], #-28	; 0xffffffe4
    26b8:	052d0601 	streq	r0, [sp, #-1537]!	; 0xfffff9ff
    26bc:	0402000f 	streq	r0, [r2], #-15
    26c0:	052e0601 	streq	r0, [lr, #-1537]!	; 0xfffff9ff
    26c4:	04020013 	streq	r0, [r2], #-19	; 0xffffffed
    26c8:	05010601 	streq	r0, [r1, #-1537]	; 0xfffff9ff
    26cc:	054c0609 	strbeq	r0, [ip, #-1545]	; 0xfffff9f7
    26d0:	4a130601 	bmi	4c3edc <__bss_end__+0x4b9074>
    26d4:	2d060905 	vstrcs.16	s0, [r6, #-10]	; <UNPREDICTABLE>
    26d8:	13060105 	movwne	r0, #24837	; 0x6105
    26dc:	0002022e 	andeq	r0, r2, lr, lsr #4
    26e0:	009d0101 	addseq	r0, sp, r1, lsl #2
    26e4:	00030000 	andeq	r0, r3, r0
    26e8:	00000059 	andeq	r0, r0, r9, asr r0
    26ec:	0efb0102 	cdpeq	1, 15, cr0, cr11, cr2, {0}
    26f0:	0101000d 	tsteq	r1, sp
    26f4:	00000101 	andeq	r0, r0, r1, lsl #2
    26f8:	00000100 	andeq	r0, r0, r0, lsl #2
    26fc:	6c2f2e01 	stcvs	14, cr2, [pc], #-4	; 2700 <__code_start__-0x5900>
    2700:	00636269 	rsbeq	r6, r3, r9, ror #4
    2704:	6573552f 	ldrbvs	r5, [r3, #-1327]!	; 0xfffffad1
    2708:	6d2f7372 	stcvs	3, cr7, [pc, #-456]!	; 2548 <__code_start__-0x5ab8>
    270c:	73656c69 	cmnvc	r5, #26880	; 0x6900
    2710:	756f532f 	strbvc	r5, [pc, #-815]!	; 23e9 <__code_start__-0x5c17>
    2714:	2f656372 	svccs	0x00656372
    2718:	34327363 	ldrtcc	r7, [r2], #-867	; 0xfffffc9d
    271c:	2f786c30 	svccs	0x00786c30
    2720:	7062696c 	rsbvc	r6, r2, ip, ror #18
    2724:	6e692f69 	cdpvs	15, 6, cr2, cr9, cr9, {3}
    2728:	64756c63 	ldrbtvs	r6, [r5], #-3171	; 0xfffff39d
    272c:	73000065 	movwvc	r0, #101	; 0x65
    2730:	70637274 	rsbvc	r7, r3, r4, ror r2
    2734:	00632e79 	rsbeq	r2, r3, r9, ror lr
    2738:	72000001 	andvc	r0, r0, #1, 0
    273c:	682e6970 	stmdavs	lr!, {r4, r5, r6, r8, fp, sp, lr}
    2740:	00000200 	andeq	r0, r0, r0, lsl #4
    2744:	002a0500 	eoreq	r0, sl, r0, lsl #10
    2748:	a1040205 	tstge	r4, r5, lsl #4
    274c:	05140000 	ldreq	r0, [r4, #-0]
    2750:	05131305 	ldreq	r1, [r3, #-773]	; 0xfffffcfb
    2754:	04020022 	streq	r0, [r2], #-34	; 0xffffffde
    2758:	0b052e01 	bleq	14df64 <__bss_end__+0x1430fc>
    275c:	01040200 	mrseq	r0, R12_usr
    2760:	00150501 	andseq	r0, r5, r1, lsl #10
    2764:	06010402 	streq	r0, [r1], -r2, lsl #8
    2768:	000b0501 	andeq	r0, fp, r1, lsl #10
    276c:	2e010402 	cdpcs	4, 0, cr0, cr1, cr2, {0}
    2770:	02001305 	andeq	r1, r0, #335544320	; 0x14000000
    2774:	052e0104 	streq	r0, [lr, #-260]!	; 0xfffffefc
    2778:	0402000b 	streq	r0, [r2], #-11
    277c:	04022e01 	streq	r2, [r2], #-3585	; 0xfffff1ff
    2780:	fd010100 	stc2	1, cr0, [r1, #-0]
    2784:	03000000 	movweq	r0, #0
    2788:	0000bf00 	andeq	fp, r0, r0, lsl #30
    278c:	fb010200 	blx	42f96 <__bss_end__+0x3812e>
    2790:	01000d0e 	tsteq	r0, lr, lsl #26
    2794:	00010101 	andeq	r0, r1, r1, lsl #2
    2798:	00010000 	andeq	r0, r1, r0
    279c:	2f2e0100 	svccs	0x002e0100
    27a0:	6362696c 	cmnvs	r2, #108, 18	; 0x1b0000
    27a4:	73552f00 	cmpvc	r5, #0, 30
    27a8:	2f737265 	svccs	0x00737265
    27ac:	656c696d 	strbvs	r6, [ip, #-2413]!	; 0xfffff693
    27b0:	6f532f73 	svcvs	0x00532f73
    27b4:	65637275 	strbvs	r7, [r3, #-629]!	; 0xfffffd8b
    27b8:	3273632f 	rsbscc	r6, r3, #-1140850688	; 0xbc000000
    27bc:	786c3034 	stmdavc	ip!, {r2, r4, r5, ip, sp}^
    27c0:	62696c2f 	rsbvs	r6, r9, #12032	; 0x2f00
    27c4:	692f6970 	stmdbvs	pc!, {r4, r5, r6, r8, fp, sp, lr}	; <UNPREDICTABLE>
    27c8:	756c636e 	strbvc	r6, [ip, #-878]!	; 0xfffffc92
    27cc:	2f006564 	svccs	0x00006564
    27d0:	2f74706f 	svccs	0x0074706f
    27d4:	656d6f68 	strbvs	r6, [sp, #-3944]!	; 0xfffff098
    27d8:	77657262 	strbvc	r7, [r5, -r2, ror #4]!
    27dc:	6c65432f 	stclvs	3, cr4, [r5], #-188	; 0xffffff44
    27e0:	2f72616c 	svccs	0x0072616c
    27e4:	2d6d7261 	sfmcs	f7, 2, [sp, #-388]!	; 0xfffffe7c
    27e8:	656e6f6e 	strbvs	r6, [lr, #-3950]!	; 0xfffff092
    27ec:	6261652d 	rsbvs	r6, r1, #188743680	; 0xb400000
    27f0:	2f392d69 	svccs	0x00392d69
    27f4:	30322d39 	eorscc	r2, r2, r9, lsr sp
    27f8:	34713931 	ldrbtcc	r3, [r1], #-2353	; 0xfffff6cf
    27fc:	3173632d 	cmncc	r3, sp, lsr #6
    2800:	2f653730 	svccs	0x00653730
    2804:	2f62696c 	svccs	0x0062696c
    2808:	2f636367 	svccs	0x00636367
    280c:	2d6d7261 	sfmcs	f7, 2, [sp, #-388]!	; 0xfffffe7c
    2810:	656e6f6e 	strbvs	r6, [lr, #-3950]!	; 0xfffff092
    2814:	6261652d 	rsbvs	r6, r1, #188743680	; 0xb400000
    2818:	2e392f69 	cdpcs	15, 3, cr2, cr9, cr9, {3}
    281c:	2f312e32 	svccs	0x00312e32
    2820:	6c636e69 	stclvs	14, cr6, [r3], #-420	; 0xfffffe5c
    2824:	00656475 	rsbeq	r6, r5, r5, ror r4
    2828:	72747300 	rsbsvc	r7, r4, #0, 6
    282c:	706d636e 	rsbvc	r6, sp, lr, ror #6
    2830:	0100632e 	tsteq	r0, lr, lsr #6
    2834:	70720000 	rsbsvc	r0, r2, r0
    2838:	00682e69 	rsbeq	r2, r8, r9, ror #28
    283c:	73000002 	movwvc	r0, #2
    2840:	65646474 	strbvs	r6, [r4, #-1140]!	; 0xfffffb8c
    2844:	00682e66 	rsbeq	r2, r8, r6, ror #28
    2848:	00000003 	andeq	r0, r0, r3
    284c:	05003905 	streq	r3, [r0, #-2309]	; 0xfffff6fb
    2850:	00a11c02 	adceq	r1, r1, r2, lsl #24
    2854:	05051500 	streq	r1, [r5, #-1280]	; 0xfffffb00
    2858:	0a051313 	beq	1474ac <__bss_end__+0x13c644>
    285c:	0c052e06 	stceq	14, cr2, [r5], {6}
    2860:	2e13052f 	cfmul64cs	mvdx0, mvdx3, mvdx15
    2864:	052e0b05 	streq	r0, [lr, #-2821]!	; 0xfffff4fb
    2868:	054a0609 	strbeq	r0, [sl, #-1545]	; 0xfffff9f7
    286c:	0106110a 	tsteq	r6, sl, lsl #2
    2870:	054e0c05 	strbeq	r0, [lr, #-3077]	; 0xfffff3fb
    2874:	0d052f01 	stceq	15, cr2, [r5, #-4]
    2878:	1b052b06 	blne	14d498 <__bss_end__+0x142630>
    287c:	022e0106 	eoreq	r0, lr, #-2147483647	; 0x80000001
    2880:	01010002 	tsteq	r1, r2
    2884:	0000008a 	andeq	r0, r0, sl, lsl #1
    2888:	006e0003 	rsbeq	r0, lr, r3
    288c:	01020000 	mrseq	r0, (UNDEF: 2)
    2890:	000d0efb 	strdeq	r0, [sp], -fp
    2894:	01010101 	tsteq	r1, r1, lsl #2
    2898:	01000000 	mrseq	r0, (UNDEF: 0)
    289c:	2e010000 	cdpcs	0, 0, cr0, cr1, cr0, {0}
    28a0:	6174732f 	cmnvs	r4, pc, lsr #6
    28a4:	732d6666 			; <UNDEFINED> instruction: 0x732d6666
    28a8:	2f006372 	svccs	0x00006372
    28ac:	72657355 	rsbvc	r7, r5, #1409286145	; 0x54000001
    28b0:	696d2f73 	stmdbvs	sp!, {r0, r1, r4, r5, r6, r8, r9, sl, fp, sp}^
    28b4:	2f73656c 	svccs	0x0073656c
    28b8:	72756f53 	rsbsvc	r6, r5, #332	; 0x14c
    28bc:	632f6563 			; <UNDEFINED> instruction: 0x632f6563
    28c0:	30343273 	eorscc	r3, r4, r3, ror r2
    28c4:	6c2f786c 	stcvs	8, cr7, [pc], #-432	; 271c <__code_start__-0x58e4>
    28c8:	69706269 	ldmdbvs	r0!, {r0, r3, r5, r6, r9, sp, lr}^
    28cc:	636e692f 	cmnvs	lr, #770048	; 0xbc000
    28d0:	6564756c 	strbvs	r7, [r4, #-1388]!	; 0xfffffa94
    28d4:	65640000 	strbvs	r0, [r4, #-0]!
    28d8:	6c756166 	ldfvse	f6, [r5], #-408	; 0xfffffe68
    28dc:	65722d74 	ldrbvs	r2, [r2, #-3444]!	; 0xfffff28c
    28e0:	746f6f62 	strbtvc	r6, [pc], #-3938	; 28e8 <__code_start__-0x5718>
    28e4:	6c61632d 	stclvs	3, cr6, [r1], #-180	; 0xffffff4c
    28e8:	74756f6c 	ldrbtvc	r6, [r5], #-3948	; 0xfffff094
    28ec:	0100632e 	tsteq	r0, lr, lsr #6
    28f0:	70720000 	rsbsvc	r0, r2, r0
    28f4:	00682e69 	rsbeq	r2, r8, r9, ror #28
    28f8:	00000002 	andeq	r0, r0, r2
    28fc:	05001b05 	streq	r1, [r0, #-2821]	; 0xfffff4fb
    2900:	00a14c02 	adceq	r4, r1, r2, lsl #24
    2904:	1c051400 	cfstrsne	mvf1, [r5], {-0}
    2908:	06010501 	streq	r0, [r1], -r1, lsl #10
    290c:	00020201 	andeq	r0, r2, r1, lsl #4
    2910:	Address 0x0000000000002910 is out of bounds.


Disassembly of section .debug_str:

00000000 <.debug_str>:
   0:	6c616b63 			; <UNDEFINED> instruction: 0x6c616b63
   4:	00636f6c 	rsbeq	r6, r3, ip, ror #30
   8:	656e696c 	strbvs	r6, [lr, #-2412]!	; 0xfffff694
   c:	63006f6e 	movwvs	r6, #3950	; 0xf6e
  10:	69665f6b 	stmdbvs	r6!, {r0, r1, r3, r5, r6, r8, r9, sl, fp, ip, lr}^
  14:	6c5f646e 	cfldrdvs	mvd6, [pc], {110}	; 0x6e
  18:	736b6165 	cmnvc	fp, #1073741849	; 0x40000019
  1c:	746f6e00 	strbtvc	r6, [pc], #-3584	; 24 <__code_start__-0x7fdc>
  20:	6e69616d 	powvsez	f6, f1, #5.0
  24:	6c696600 	stclvs	6, cr6, [r9], #-0
  28:	65740065 	ldrbvs	r0, [r4, #-101]!	; 0xffffff9b
  2c:	2f737473 	svccs	0x00737473
  30:	74726170 	ldrbtvc	r6, [r2], #-368	; 0xfffffe90
  34:	65742d32 	ldrbvs	r2, [r4, #-3378]!	; 0xfffff2ce
  38:	2e367473 	mrccs	4, 1, r7, cr6, cr3, {3}
  3c:	6c630063 	stclvs	0, cr0, [r3], #-396	; 0xfffffe74
  40:	5f6e6165 	svcpl	0x006e6165
  44:	6f626572 	svcvs	0x00626572
  48:	7300746f 	movwvc	r7, #1135	; 0x46f
  4c:	74726f68 	ldrbtvc	r6, [r2], #-3944	; 0xfffff098
  50:	736e7520 	cmnvc	lr, #32, 10	; 0x8000000
  54:	656e6769 	strbvs	r6, [lr, #-1897]!	; 0xfffff897
  58:	6e692064 	cdpvs	0, 6, cr2, cr9, cr4, {3}
  5c:	72730074 	rsbsvc	r0, r3, #116, 0	; 0x74
  60:	6f6c5f63 	svcvs	0x006c5f63
  64:	6b6d5f63 	blvs	1b57df8 <__bss_end__+0x1b4cf90>
  68:	736e7500 	cmnvc	lr, #0, 10
  6c:	656e6769 	strbvs	r6, [lr, #-1897]!	; 0xfffff897
  70:	68632064 	stmdavs	r3!, {r2, r5, r6, sp}^
  74:	6d007261 	sfmvs	f7, 4, [r0, #-388]	; 0xfffffe7c
  78:	65736d65 	ldrbvs	r6, [r3, #-3429]!	; 0xfffff29b
  7c:	75660074 	strbvc	r0, [r6, #-116]!	; 0xffffff8c
  80:	5f00636e 	svcpl	0x0000636e
  84:	4e55465f 	mrcmi	6, 2, r4, cr5, cr15, {2}
  88:	4f495443 	svcmi	0x00495443
  8c:	005f5f4e 	subseq	r5, pc, lr, asr #30
  90:	676e6f6c 	strbvs	r6, [lr, -ip, ror #30]!
  94:	6e6f6c20 	cdpvs	12, 6, cr6, cr15, cr0, {1}
  98:	6e752067 	cdpvs	0, 7, cr2, cr5, cr7, {3}
  9c:	6e676973 			; <UNDEFINED> instruction: 0x6e676973
  a0:	69206465 	stmdbvs	r0!, {r0, r2, r5, r6, sl, sp, lr}
  a4:	6c00746e 	cfstrsvs	mvf7, [r0], {110}	; 0x6e
  a8:	20676e6f 	rsbcs	r6, r7, pc, ror #28
  ac:	676e6f6c 	strbvs	r6, [lr, -ip, ror #30]!
  b0:	746e6920 	strbtvc	r6, [lr], #-2336	; 0xfffff6e0
  b4:	73552f00 	cmpvc	r5, #0, 30
  b8:	2f737265 	svccs	0x00737265
  bc:	656c696d 	strbvs	r6, [ip, #-2413]!	; 0xfffff693
  c0:	6f532f73 	svcvs	0x00532f73
  c4:	65637275 	strbvs	r7, [r3, #-629]!	; 0xfffffd8b
  c8:	3273632f 	rsbscc	r6, r3, #-1140850688	; 0xbc000000
  cc:	786c3034 	stmdavc	ip!, {r2, r4, r5, ip, sp}^
  d0:	62616c2f 	rsbvs	r6, r1, #12032	; 0x2f00
  d4:	2d352f73 	ldccs	15, cr2, [r5, #-460]!	; 0xfffffe34
  d8:	6c6c616d 	stfvse	f6, [ip], #-436	; 0xfffffe4c
  dc:	672b636f 	strvs	r6, [fp, -pc, ror #6]!
  e0:	6f632f63 	svcvs	0x00632f63
  e4:	73006564 	movwvc	r6, #1380	; 0x564
  e8:	74726f68 	ldrbtvc	r6, [r2], #-3944	; 0xfffff098
  ec:	746e6920 	strbtvc	r6, [lr], #-2336	; 0xfffff6e0
  f0:	63727300 	cmnvs	r2, #0, 6
  f4:	636f6c5f 	cmnvs	pc, #24320	; 0x5f00
  f8:	7200745f 	andvc	r7, r0, #1593835520	; 0x5f000000
  fc:	705f6970 	subsvc	r6, pc, r0, ror r9	; <UNPREDICTABLE>
 100:	68637475 	stmdavs	r3!, {r0, r2, r4, r5, r6, sl, ip, sp, lr}^
 104:	47007261 	strmi	r7, [r0, -r1, ror #4]
 108:	4320554e 			; <UNDEFINED> instruction: 0x4320554e
 10c:	39203939 	stmdbcc	r0!, {r0, r3, r4, r5, r8, fp, ip, sp}
 110:	312e322e 			; <UNDEFINED> instruction: 0x312e322e
 114:	31303220 	teqcc	r0, r0, lsr #4
 118:	32303139 	eorscc	r3, r0, #1073741838	; 0x4000000e
 11c:	72282035 	eorvc	r2, r8, #53, 0	; 0x35
 120:	61656c65 	cmnvs	r5, r5, ror #24
 124:	20296573 	eorcs	r6, r9, r3, ror r5
 128:	4d52415b 	ldfmie	f4, [r2, #-364]	; 0xfffffe94
 12c:	6d72612f 	ldfvse	f6, [r2, #-188]!	; 0xffffff44
 130:	622d392d 	eorvs	r3, sp, #737280	; 0xb4000
 134:	636e6172 	cmnvs	lr, #-2147483620	; 0x8000001c
 138:	65722068 	ldrbvs	r2, [r2, #-104]!	; 0xffffff98
 13c:	69736976 	ldmdbvs	r3!, {r1, r2, r4, r5, r6, r8, fp, sp, lr}^
 140:	32206e6f 	eorcc	r6, r0, #1776	; 0x6f0
 144:	39353737 	ldmdbcc	r5!, {r0, r1, r2, r4, r5, r8, r9, sl, ip, sp}
 148:	2d205d39 	stccs	13, cr5, [r0, #-228]!	; 0xffffff1c
 14c:	7570636d 	ldrbvc	r6, [r0, #-877]!	; 0xfffffc93
 150:	6d72613d 	ldfvse	f6, [r2, #-244]!	; 0xffffff0c
 154:	36373131 			; <UNDEFINED> instruction: 0x36373131
 158:	2d667a6a 	vstmdbcs	r6!, {s15-s120}
 15c:	6d2d2073 	stcvs	0, cr2, [sp, #-460]!	; 0xfffffe34
 160:	656e7574 	strbvs	r7, [lr, #-1396]!	; 0xfffffa8c
 164:	6d72613d 	ldfvse	f6, [r2, #-244]!	; 0xffffff0c
 168:	36373131 			; <UNDEFINED> instruction: 0x36373131
 16c:	2d667a6a 	vstmdbcs	r6!, {s15-s120}
 170:	6d2d2073 	stcvs	0, cr2, [sp, #-460]!	; 0xfffffe34
 174:	616f6c66 	cmnvs	pc, r6, ror #24
 178:	62612d74 	rsbvs	r2, r1, #116, 26	; 0x1d00
 17c:	6f733d69 	svcvs	0x00733d69
 180:	2d207466 	cfstrscs	mvf7, [r0, #-408]!	; 0xfffffe68
 184:	6d72616d 	ldfvse	f6, [r2, #-436]!	; 0xfffffe4c
 188:	616d2d20 	cmnvs	sp, r0, lsr #26
 18c:	3d686372 	stclcc	3, cr6, [r8, #-456]!	; 0xfffffe38
 190:	766d7261 	strbtvc	r7, [sp], -r1, ror #4
 194:	207a6b36 	rsbscs	r6, sl, r6, lsr fp
 198:	6467672d 	strbtvs	r6, [r7], #-1837	; 0xfffff8d3
 19c:	4f2d2062 	svcmi	0x002d2062
 1a0:	732d2067 			; <UNDEFINED> instruction: 0x732d2067
 1a4:	673d6474 			; <UNDEFINED> instruction: 0x673d6474
 1a8:	3939756e 	ldmdbcc	r9!, {r1, r2, r3, r5, r6, r8, sl, ip, sp, lr}
 1ac:	66662d20 	strbtvs	r2, [r6], -r0, lsr #26
 1b0:	73656572 	cmnvc	r5, #478150656	; 0x1c800000
 1b4:	646e6174 	strbtvs	r6, [lr], #-372	; 0xfffffe8c
 1b8:	00676e69 	rsbeq	r6, r7, r9, ror #28
 1bc:	74736574 	ldrbtvc	r6, [r3], #-1396	; 0xfffffa8c
 1c0:	6b630031 	blvs	18c028c <__bss_end__+0x18b5424>
 1c4:	7274705f 	rsbsvc	r7, r4, #95, 0	; 0x5f
 1c8:	5f6e695f 	svcpl	0x006e695f
 1cc:	636f6c62 	cmnvs	pc, #25088	; 0x6200
 1d0:	6468006b 	strbtvs	r0, [r8], #-107	; 0xffffff95
 1d4:	00745f72 	rsbseq	r5, r4, r2, ror pc
 1d8:	45455246 	strbmi	r5, [r5, #-582]	; 0xfffffdba
 1dc:	65720044 	ldrbvs	r0, [r2, #-68]!	; 0xffffffbc
 1e0:	6d5f7366 	ldclvs	3, cr7, [pc, #-408]	; 50 <__code_start__-0x7fb0>
 1e4:	6c646469 	cfstrdvs	mvd6, [r4], #-420	; 0xfffffe5c
 1e8:	726b0065 	rsbvc	r0, fp, #101, 0	; 0x65
 1ec:	6572665f 	ldrbvs	r6, [r2, #-1631]!	; 0xfffff9a1
 1f0:	6b630065 	blvs	18c038c <__bss_end__+0x18b5524>
 1f4:	7269665f 	rsbvc	r6, r9, #99614720	; 0x5f00000
 1f8:	685f7473 	ldmdavs	pc, {r0, r1, r4, r5, r6, sl, ip, sp, lr}^	; <UNPREDICTABLE>
 1fc:	63007264 	movwvs	r7, #612	; 0x264
 200:	6572666b 	ldrbvs	r6, [r2, #-1643]!	; 0xfffff995
 204:	6c610065 	stclvs	0, cr0, [r1], #-404	; 0xfffffe6c
 208:	5f636f6c 	svcpl	0x00636f6c
 20c:	7473696c 	ldrbtvc	r6, [r3], #-2412	; 0xfffff694
 210:	73696c00 	cmnvc	r9, #0, 24
 214:	65725f74 	ldrbvs	r5, [r2, #-3956]!	; 0xfffff08c
 218:	65766f6d 	ldrbvs	r6, [r6, #-3949]!	; 0xfffff093
 21c:	5f6b6300 	svcpl	0x006b6300
 220:	00726468 	rsbseq	r6, r2, r8, ror #8
 224:	6f6c6c61 	svcvs	0x006c6c61
 228:	6f6c5f63 	svcvs	0x006c5f63
 22c:	74730063 	ldrbtvc	r0, [r3], #-99	; 0xffffff9d
 230:	00657461 	rsbeq	r7, r5, r1, ror #8
 234:	73666572 	cmnvc	r6, #478150656	; 0x1c800000
 238:	6174735f 	cmnvs	r4, pc, asr r3
 23c:	75007472 	strvc	r7, [r0, #-1138]	; 0xfffffb8e
 240:	33746e69 	cmncc	r4, #1680	; 0x690
 244:	00745f32 	rsbseq	r5, r4, r2, lsr pc
 248:	746e6975 	strbtvc	r6, [lr], #-2421	; 0xfffff68b
 24c:	745f3631 	ldrbvc	r3, [pc], #-1585	; 254 <__code_start__-0x7dac>
 250:	5f6b6300 	svcpl	0x006b6300
 254:	5f727470 	svcpl	0x00727470
 258:	615f7369 	cmpvs	pc, r9, ror #6
 25c:	636f6c6c 	cmnvs	pc, #108, 24	; 0x6c00
 260:	63006465 	movwvs	r6, #1125	; 0x465
 264:	656e5f6b 	strbvs	r5, [lr, #-3947]!	; 0xfffff095
 268:	685f7478 	ldmdavs	pc, {r3, r4, r5, r6, sl, ip, sp, lr}^	; <UNPREDICTABLE>
 26c:	63007264 	movwvs	r7, #612	; 0x264
 270:	6c6c616b 	stfvse	f6, [ip], #-428	; 0xfffffe54
 274:	632e636f 			; <UNDEFINED> instruction: 0x632e636f
 278:	4c4c4100 	stfmie	f4, [ip], {-0}
 27c:	4445434f 	strbmi	r4, [r5], #-847	; 0xfffffcb1
 280:	79626e00 	stmdbvc	r2!, {r9, sl, fp, sp, lr}^
 284:	5f736574 	svcpl	0x00736574
 288:	6f6c6c61 	svcvs	0x006c6c61
 28c:	6b630063 	blvs	18c0420 <__bss_end__+0x18b55b8>
 290:	7264685f 	rsbvc	r6, r4, #6225920	; 0x5f0000
 294:	6174735f 	cmnvs	r4, pc, asr r3
 298:	63007472 	movwvs	r7, #1138	; 0x472
 29c:	64685f6b 	strbtvs	r5, [r8], #-3947	; 0xfffff095
 2a0:	6e655f72 	mcrvs	15, 3, r5, cr5, cr2, {3}
 2a4:	72700064 	rsbsvc	r0, r0, #100, 0	; 0x64
 2a8:	63007665 	movwvs	r7, #1637	; 0x665
 2ac:	626e5f6b 	rsbvs	r5, lr, #428	; 0x1ac
 2b0:	73657479 	cmnvc	r5, #2030043136	; 0x79000000
 2b4:	5f726b00 	svcpl	0x00726b00
 2b8:	6c6c616d 	stfvse	f6, [ip], #-436	; 0xfffffe4c
 2bc:	6e00636f 	cdpvs	3, 0, cr6, cr0, cr15, {3}
 2c0:	00747865 	rsbseq	r7, r4, r5, ror #16
 2c4:	64616568 	strbtvs	r6, [r1], #-1384	; 0xfffffa98
 2c8:	70007265 	andvc	r7, r0, r5, ror #4
 2cc:	70766572 	rsbsvc	r6, r6, r2, ror r5
 2d0:	696c6100 	stmdbvs	ip!, {r8, sp, lr}^
 2d4:	66006e67 	strvs	r6, [r0], -r7, ror #28
 2d8:	70656572 	rsbvc	r6, r5, r2, ror r5
 2dc:	6e756e00 	cdpvs	14, 7, cr6, cr5, cr0, {0}
 2e0:	00737469 	rsbseq	r7, r3, r9, ror #8
 2e4:	6d2d726b 	sfmvs	f7, 4, [sp, #-428]!	; 0xfffffe54
 2e8:	6f6c6c61 	svcvs	0x006c6c61
 2ec:	00632e63 	rsbeq	r2, r3, r3, ror #28
 2f0:	62756f64 	rsbsvs	r6, r5, #100, 30	; 0x190
 2f4:	6200656c 	andvs	r6, r0, #108, 10	; 0x1b000000
 2f8:	00657361 	rsbeq	r7, r5, r1, ror #6
 2fc:	6b726273 	blvs	1c98cd0 <__bss_end__+0x1c8de68>
 300:	726f6d00 	rsbvc	r6, pc, #0, 26
 304:	726f6365 	rsbvc	r6, pc, #-1811939327	; 0x94000001
 308:	69730065 	ldmdbvs	r3!, {r0, r2, r5, r6}^
 30c:	4800657a 	stmdami	r0, {r1, r3, r4, r5, r6, r8, sl, sp, lr}
 310:	65646165 	strbvs	r6, [r4, #-357]!	; 0xfffffe9b
 314:	74730072 	ldrbtvc	r0, [r3], #-114	; 0xffffff8e
 318:	5f6b6361 	svcpl	0x006b6361
 31c:	00706f74 	rsbseq	r6, r0, r4, ror pc
 320:	6b72616d 	blvs	1c988dc <__bss_end__+0x1c8da74>
 324:	6c6c615f 	stfvse	f6, [ip], #-380	; 0xfffffe84
 328:	706d6900 	rsbvc	r6, sp, r0, lsl #18
 32c:	656d656c 	strbvs	r6, [sp, #-1388]!	; 0xfffffa94
 330:	745f746e 	ldrbvc	r7, [pc], #-1134	; 338 <__code_start__-0x7cc8>
 334:	00736968 	rsbseq	r6, r3, r8, ror #18
 338:	73625f5f 	cmnvc	r2, #380	; 0x17c
 33c:	74735f73 	ldrbtvc	r5, [r3], #-3955	; 0xfffff08d
 340:	5f747261 	svcpl	0x00747261
 344:	626e005f 	rsbvs	r0, lr, #95, 0	; 0x5f
 348:	6b636f6c 	blvs	18dc100 <__bss_end__+0x18d1298>
 34c:	6e690073 	mcrvs	0, 3, r0, cr9, cr3, {3}
 350:	705f7469 	subsvc	r7, pc, r9, ror #8
 354:	79626e00 	stmdbvc	r2!, {r9, sl, fp, sp, lr}^
 358:	5f736574 	svcpl	0x00736574
 35c:	65657266 	strbvs	r7, [r5, #-614]!	; 0xfffffd9a
 360:	6c6f0064 	stclvs	0, cr0, [pc], #-400	; 1d8 <__code_start__-0x7e28>
 364:	616d5f64 	cmnvs	sp, r4, ror #30
 368:	6d006b72 	vstrvs	d6, [r0, #-456]	; 0xfffffe38
 36c:	65627961 	strbvs	r7, [r2, #-2401]!	; 0xfffff69f
 370:	7272655f 	rsbsvc	r6, r2, #398458880	; 0x17c00000
 374:	0073726f 	rsbseq	r7, r3, pc, ror #4
 378:	675f6b63 	ldrbvs	r6, [pc, -r3, ror #22]
 37c:	75640063 	strbvc	r0, [r4, #-99]!	; 0xffffff9d
 380:	725f706d 	subsvc	r7, pc, #109, 0	; 0x6d
 384:	00736765 	rsbseq	r6, r3, r5, ror #14
 388:	61656c6e 	cmnvs	r5, lr, ror #24
 38c:	6900736b 	stmdbvs	r0, {r0, r1, r3, r5, r6, r8, r9, ip, sp, lr}
 390:	6572636e 	ldrbvs	r6, [r2, #-878]!	; 0xfffffc92
 394:	746e656d 	strbtvc	r6, [lr], #-1389	; 0xfffffa93
 398:	645f5f00 	ldrbvs	r5, [pc], #-3840	; 3a0 <__code_start__-0x7c60>
 39c:	5f617461 	svcpl	0x00617461
 3a0:	5f646e65 	svcpl	0x00646e65
 3a4:	6863005f 	stmdavs	r3!, {r0, r1, r2, r3, r4, r6}^
 3a8:	5f6b6365 	svcpl	0x006b6365
 3ac:	6c5f6f6e 	mrrcvs	15, 6, r6, pc, cr14	; <UNPREDICTABLE>
 3b0:	006b6165 	rsbeq	r6, fp, r5, ror #2
 3b4:	705f7369 	subsvc	r7, pc, r9, ror #6
 3b8:	6e007274 	mcrvs	2, 0, r7, cr0, cr4, {3}
 3bc:	65657266 	strbvs	r7, [r5, #-614]!	; 0xfffffd9a
 3c0:	6e690064 	cdpvs	0, 6, cr0, cr9, cr4, {3}
 3c4:	6165685f 	cmnvs	r5, pc, asr r8
 3c8:	6e6f0070 	mcrvs	0, 3, r0, cr15, cr0, {3}
 3cc:	00626d65 	rsbeq	r6, r2, r5, ror #26
 3d0:	672d6b63 	strvs	r6, [sp, -r3, ror #22]!
 3d4:	00632e63 	rsbeq	r2, r3, r3, ror #28
 3d8:	63656863 	cmnvs	r5, #6488064	; 0x630000
 3dc:	68735f6b 	ldmdavs	r3!, {r0, r1, r3, r5, r6, r8, r9, sl, fp, ip, lr}^
 3e0:	646c756f 	strbtvs	r7, [ip], #-1391	; 0xfffffa91
 3e4:	61656c5f 	cmnvs	r5, pc, asr ip
 3e8:	5f5f006b 	svcpl	0x005f006b
 3ec:	5f737362 	svcpl	0x00737362
 3f0:	5f646e65 	svcpl	0x00646e65
 3f4:	6d6b005f 	stclvs	0, cr0, [fp, #-380]!	; 0xfffffe84
 3f8:	6f6c6c61 	svcvs	0x006c6c61
 3fc:	6d6b0063 	stclvs	0, cr0, [fp, #-396]!	; 0xfffffe74
 400:	6f6c6c61 	svcvs	0x006c6c61
 404:	6e695f63 	cdpvs	15, 6, cr5, cr9, cr3, {3}
 408:	735f7469 	cmpvc	pc, #1761607680	; 0x69000000
 40c:	735f7465 	cmpvc	pc, #1694498816	; 0x65000000
 410:	74726174 	ldrbtvc	r6, [r2], #-372	; 0xfffffe8c
 414:	65777300 	ldrbvs	r7, [r7, #-768]!	; 0xfffffd00
 418:	6c5f7065 	mrrcvs	0, 6, r7, pc, cr5	; <UNPREDICTABLE>
 41c:	006b6165 	rsbeq	r6, fp, r5, ror #2
 420:	61645f5f 	cmnvs	r4, pc, asr pc
 424:	735f6174 	cmpvc	pc, #29
 428:	74726174 	ldrbtvc	r6, [r2], #-372	; 0xfffffe8c
 42c:	73005f5f 	movwvc	r5, #3935	; 0xf5f
 430:	70656577 	rsbvc	r6, r5, r7, ror r5
 434:	6572665f 	ldrbvs	r6, [r2, #-1631]!	; 0xfffff9a1
 438:	61770065 	cmnvs	r7, r5, rrx
 43c:	6e5f6e72 	mrcvs	14, 2, r6, cr15, cr2, {3}
 440:	74735f6f 	ldrbtvc	r5, [r3], #-3951	; 0xfffff091
 444:	5f747261 	svcpl	0x00747261
 448:	5f666572 	svcpl	0x00666572
 44c:	69730070 	ldmdbvs	r3!, {r4, r5, r6}^
 450:	745f657a 	ldrbvc	r6, [pc], #-1402	; 458 <__code_start__-0x7ba8>
 454:	6c2f2e00 	stcvs	14, cr2, [pc], #-0	; 45c <__code_start__-0x7ba4>
 458:	2f636269 	svccs	0x00636269
 45c:	736d656d 	cmnvc	sp, #457179136	; 0x1b400000
 460:	632e7465 			; <UNDEFINED> instruction: 0x632e7465
 464:	554e4700 	strbpl	r4, [lr, #-1792]	; 0xfffff900
 468:	39394320 	ldmdbcc	r9!, {r5, r8, r9, lr}
 46c:	322e3920 	eorcc	r3, lr, #32, 18	; 0x80000
 470:	3220312e 	eorcc	r3, r0, #-2147483637	; 0x8000000b
 474:	31393130 	teqcc	r9, r0, lsr r1
 478:	20353230 	eorscs	r3, r5, r0, lsr r2
 47c:	6c657228 	sfmvs	f7, 2, [r5], #-160	; 0xffffff60
 480:	65736165 	ldrbvs	r6, [r3, #-357]!	; 0xfffffe9b
 484:	415b2029 	cmpmi	fp, r9, lsr #32
 488:	612f4d52 			; <UNDEFINED> instruction: 0x612f4d52
 48c:	392d6d72 	pushcc	{r1, r4, r5, r6, r8, sl, fp, sp, lr}
 490:	6172622d 	cmnvs	r2, sp, lsr #4
 494:	2068636e 	rsbcs	r6, r8, lr, ror #6
 498:	69766572 	ldmdbvs	r6!, {r1, r4, r5, r6, r8, sl, sp, lr}^
 49c:	6e6f6973 			; <UNDEFINED> instruction: 0x6e6f6973
 4a0:	37373220 	ldrcc	r3, [r7, -r0, lsr #4]!
 4a4:	5d393935 			; <UNDEFINED> instruction: 0x5d393935
 4a8:	636d2d20 	cmnvs	sp, #32, 26	; 0x800
 4ac:	613d7570 	teqvs	sp, r0, ror r5
 4b0:	31316d72 	teqcc	r1, r2, ror sp
 4b4:	7a6a3637 	bvc	1a8dd98 <__bss_end__+0x1a82f30>
 4b8:	20732d66 	rsbscs	r2, r3, r6, ror #26
 4bc:	75746d2d 	ldrbvc	r6, [r4, #-3373]!	; 0xfffff2d3
 4c0:	613d656e 	teqvs	sp, lr, ror #10
 4c4:	31316d72 	teqcc	r1, r2, ror sp
 4c8:	7a6a3637 	bvc	1a8ddac <__bss_end__+0x1a82f44>
 4cc:	20732d66 	rsbscs	r2, r3, r6, ror #26
 4d0:	6c666d2d 	stclvs	13, cr6, [r6], #-180	; 0xffffff4c
 4d4:	2d74616f 	ldfcse	f6, [r4, #-444]!	; 0xfffffe44
 4d8:	3d696261 	sfmcc	f6, 2, [r9, #-388]!	; 0xfffffe7c
 4dc:	74666f73 	strbtvc	r6, [r6], #-3955	; 0xfffff08d
 4e0:	616d2d20 	cmnvs	sp, r0, lsr #26
 4e4:	2d206d72 	stccs	13, cr6, [r0, #-456]!	; 0xfffffe38
 4e8:	6372616d 	cmnvs	r2, #1073741851	; 0x4000001b
 4ec:	72613d68 	rsbvc	r3, r1, #104, 26	; 0x1a00
 4f0:	6b36766d 	blvs	d9deac <__bss_end__+0xd93044>
 4f4:	672d207a 			; <UNDEFINED> instruction: 0x672d207a
 4f8:	20626467 	rsbcs	r6, r2, r7, ror #8
 4fc:	61664f2d 	cmnvs	r6, sp, lsr #30
 500:	2d207473 	cfstrscs	mvf7, [r0, #-460]!	; 0xfffffe34
 504:	3d647473 	cfstrdcc	mvd7, [r4, #-460]!	; 0xfffffe34
 508:	39756e67 	ldmdbcc	r5!, {r0, r1, r2, r5, r6, r9, sl, fp, sp, lr}^
 50c:	662d2039 			; <UNDEFINED> instruction: 0x662d2039
 510:	65657266 	strbvs	r7, [r5, #-614]!	; 0xfffffd9a
 514:	6e617473 	mcrvs	4, 3, r7, cr1, cr3, {3}
 518:	676e6964 	strbvs	r6, [lr, -r4, ror #18]!
 51c:	73552f00 	cmpvc	r5, #0, 30
 520:	2f737265 	svccs	0x00737265
 524:	656c696d 	strbvs	r6, [ip, #-2413]!	; 0xfffff693
 528:	6f532f73 	svcvs	0x00532f73
 52c:	65637275 	strbvs	r7, [r3, #-629]!	; 0xfffffd8b
 530:	3273632f 	rsbscc	r6, r3, #-1140850688	; 0xbc000000
 534:	786c3034 	stmdavc	ip!, {r2, r4, r5, ip, sp}^
 538:	62696c2f 	rsbvs	r6, r9, #12032	; 0x2f00
 53c:	61006970 	tstvs	r0, r0, ror r9
 540:	00736772 	rsbseq	r6, r3, r2, ror r7
 544:	705f6176 	subsvc	r6, pc, r6, ror r1	; <UNPREDICTABLE>
 548:	746e6972 	strbtvc	r6, [lr], #-2418	; 0xfffff68e
 54c:	5f5f006b 	svcpl	0x005f006b
 550:	63756e67 	cmnvs	r5, #1648	; 0x670
 554:	5f61765f 	svcpl	0x0061765f
 558:	7473696c 	ldrbtvc	r6, [r3], #-2412	; 0xfffff694
 55c:	615f5f00 	cmpvs	pc, r0, lsl #30
 560:	2f2e0070 	svccs	0x002e0070
 564:	6362696c 	cmnvs	r2, #108, 18	; 0x1b0000
 568:	6972702f 	ldmdbvs	r2!, {r0, r1, r2, r3, r5, ip, sp, lr}^
 56c:	2e6b746e 	cdpcs	4, 6, cr7, cr11, cr14, {3}
 570:	5f5f0063 	svcpl	0x005f0063
 574:	6c5f6176 	ldfvse	f6, [pc], {118}	; 0x76
 578:	00747369 	rsbseq	r7, r4, r9, ror #6
 57c:	65746e69 	ldrbvs	r6, [r4, #-3689]!	; 0xfffff197
 580:	6c616e72 	stclvs	14, cr6, [r1], #-456	; 0xfffffe38
 584:	7475705f 	ldrbtvc	r7, [r5], #-95	; 0xffffffa1
 588:	2f2e006b 	svccs	0x002e006b
 58c:	6362696c 	cmnvs	r2, #108, 18	; 0x1b0000
 590:	7475702f 	ldrbtvc	r7, [r5], #-47	; 0xffffffd1
 594:	00632e6b 	rsbeq	r2, r3, fp, ror #28
 598:	69647369 	stmdbvs	r4!, {r0, r3, r5, r6, r8, r9, ip, sp, lr}^
 59c:	00746967 	rsbseq	r6, r4, r7, ror #18
 5a0:	746e6975 	strbtvc	r6, [lr], #-2421	; 0xfffff68b
 5a4:	745f3436 	ldrbvc	r3, [pc], #-1078	; 5ac <__code_start__-0x7a54>
 5a8:	6c2f2e00 	stcvs	14, cr2, [pc], #-0	; 5b0 <__code_start__-0x7a50>
 5ac:	2f636269 	svccs	0x00636269
 5b0:	702d6176 	eorvc	r6, sp, r6, ror r1
 5b4:	746e6972 	strbtvc	r6, [lr], #-2418	; 0xfffff68e
 5b8:	00632e6b 	rsbeq	r2, r3, fp, ror #28
 5bc:	6f635f5f 	svcvs	0x00635f5f
 5c0:	735f6564 	cmpvc	pc, #100, 10	; 0x19000000
 5c4:	74726174 	ldrbtvc	r6, [r2], #-372	; 0xfffffe8c
 5c8:	77005f5f 	smlsdvc	r0, pc, pc, r5	; <UNPREDICTABLE>
 5cc:	68746469 	ldmdavs	r4!, {r0, r3, r5, r6, sl, sp, lr}^
 5d0:	74757000 	ldrbtvc	r7, [r5], #-0
 5d4:	70665f63 	rsbvc	r5, r6, r3, ror #30
 5d8:	685f5f00 	ldmdavs	pc, {r8, r9, sl, fp, ip, lr}^	; <UNPREDICTABLE>
 5dc:	5f706165 	svcpl	0x00706165
 5e0:	72617473 	rsbvc	r7, r1, #1929379840	; 0x73000000
 5e4:	005f5f74 	subseq	r5, pc, r4, ror pc	; <UNPREDICTABLE>
 5e8:	5f697072 	svcpl	0x00697072
 5ec:	5f746573 	svcpl	0x00746573
 5f0:	7074756f 	rsbsvc	r7, r4, pc, ror #10
 5f4:	66007475 			; <UNDEFINED> instruction: 0x66007475
 5f8:	735f746d 	cmpvc	pc, #1828716544	; 0x6d000000
 5fc:	74726174 	ldrbtvc	r6, [r2], #-372	; 0xfffffe8c
 600:	72747300 	rsbsvc	r7, r4, #0, 6
 604:	00746163 	rsbseq	r6, r4, r3, ror #2
 608:	63727473 	cmnvs	r2, #1929379840	; 0x73000000
 60c:	6e007970 			; <UNDEFINED> instruction: 0x6e007970
 610:	705f6765 	subsvc	r6, pc, r5, ror #14
 614:	635f5f00 	cmpvs	pc, #0, 30
 618:	5f65646f 	svcpl	0x0065646f
 61c:	5f646e65 	svcpl	0x00646e65
 620:	6d65005f 	stclvs	0, cr0, [r5, #-380]!	; 0xfffffe84
 624:	72007469 	andvc	r7, r0, #1761607680	; 0x69000000
 628:	72657665 	rsbvc	r7, r5, #105906176	; 0x6500000
 62c:	73006573 	movwvc	r6, #1395	; 0x573
 630:	6d637274 	sfmvs	f7, 2, [r3, #-464]!	; 0xfffffe30
 634:	75700070 	ldrbvc	r0, [r0, #-112]!	; 0xffffff90
 638:	665f7374 			; <UNDEFINED> instruction: 0x665f7374
 63c:	5f5f0070 	svcpl	0x005f0070
 640:	676f7270 			; <UNDEFINED> instruction: 0x676f7270
 644:	646e655f 	strbtvs	r6, [lr], #-1375	; 0xfffffaa1
 648:	6e005f5f 	mcrvs	15, 0, r5, cr0, cr15, {2}
 64c:	00316d75 	eorseq	r6, r1, r5, ror sp
 650:	6e727473 	mrcvs	4, 3, r7, cr2, cr3, {3}
 654:	00706d63 	rsbseq	r6, r0, r3, ror #26
 658:	6e676973 			; <UNDEFINED> instruction: 0x6e676973
 65c:	705f6465 	subsvc	r6, pc, r5, ror #8
 660:	69707200 	ldmdbvs	r0!, {r9, ip, sp, lr}^
 664:	6265725f 	rsbvs	r7, r5, #-268435451	; 0xf0000005
 668:	00746f6f 	rsbseq	r6, r4, pc, ror #30
 66c:	616c6564 	cmnvs	ip, r4, ror #10
 670:	736d5f79 	cmnvc	sp, #484	; 0x1e4
 674:	732f2e00 			; <UNDEFINED> instruction: 0x732f2e00
 678:	66666174 			; <UNDEFINED> instruction: 0x66666174
 67c:	6372732d 	cmnvs	r2, #-1275068416	; 0xb4000000
 680:	656c632f 	strbvs	r6, [ip, #-815]!	; 0xfffffcd1
 684:	722d6e61 	eorvc	r6, sp, #1552	; 0x610
 688:	6f6f6265 	svcvs	0x006f6265
 68c:	00632e74 	rsbeq	r2, r3, r4, ror lr
 690:	74726175 	ldrbtvc	r6, [r2], #-373	; 0xfffffe8b
 694:	756c665f 	strbvc	r6, [ip, #-1631]!	; 0xfffff9a1
 698:	745f6873 	ldrbvc	r6, [pc], #-2163	; 6a0 <__code_start__-0x7960>
 69c:	635f0078 	cmpvs	pc, #120, 0	; 0x78
 6a0:	72617473 	rsbvc	r7, r1, #1929379840	; 0x73000000
 6a4:	73620074 	cmnvc	r2, #116, 0	; 0x74
 6a8:	6e655f73 	mcrvs	15, 3, r5, cr5, cr3, {3}
 6ac:	61750064 	cmnvs	r5, r4, rrx
 6b0:	695f7472 	ldmdbvs	pc, {r1, r4, r5, r6, sl, ip, sp, lr}^	; <UNPREDICTABLE>
 6b4:	0074696e 	rsbseq	r6, r4, lr, ror #18
 6b8:	74737563 	ldrbtvc	r7, [r3], #-1379	; 0xfffffa9d
 6bc:	6c5f6d6f 	mrrcvs	13, 6, r6, pc, cr15	; <UNPREDICTABLE>
 6c0:	6564616f 	strbvs	r6, [r4, #-367]!	; 0xfffffe91
 6c4:	2f2e0072 	svccs	0x002e0072
 6c8:	66617473 			; <UNDEFINED> instruction: 0x66617473
 6cc:	72732d66 	rsbsvc	r2, r3, #6528	; 0x1980
 6d0:	73632f63 	cmnvc	r3, #396	; 0x18c
 6d4:	74726174 	ldrbtvc	r6, [r2], #-372	; 0xfffffe8c
 6d8:	2e00632e 	cdpcs	3, 0, cr6, cr0, cr14, {1}
 6dc:	6174732f 	cmnvs	r4, pc, lsr #6
 6e0:	732d6666 			; <UNDEFINED> instruction: 0x732d6666
 6e4:	632f6372 			; <UNDEFINED> instruction: 0x632f6372
 6e8:	6f747375 	svcvs	0x00747375
 6ec:	6f6c2d6d 	svcvs	0x006c2d6d
 6f0:	72656461 	rsbvc	r6, r5, #1627389952	; 0x61000000
 6f4:	7200632e 	andvc	r6, r0, #-1207959552	; 0xb8000000
 6f8:	6f6f6265 	svcvs	0x006f6265
 6fc:	61635f74 	smcvs	13812	; 0x35f4
 700:	756f6c6c 	strbvc	r6, [pc, #-3180]!	; fffffa9c <__bss_end__+0xffff4c34>
 704:	4d500074 	ldclmi	0, cr0, [r0, #-464]	; 0xfffffe30
 708:	4f44575f 	svcmi	0x0044575f
 70c:	55500047 	ldrbpl	r0, [r0, #-71]	; 0xffffffb9
 710:	00323354 	eorseq	r3, r2, r4, asr r3
 714:	5f746573 	svcpl	0x00746573
 718:	72657375 	rsbvc	r7, r5, #-738197503	; 0xd4000001
 71c:	76656c5f 			; <UNDEFINED> instruction: 0x76656c5f
 720:	2e006c65 	cdpcs	12, 0, cr6, cr0, cr5, {3}
 724:	6174732f 	cmnvs	r4, pc, lsr #6
 728:	732d6666 			; <UNDEFINED> instruction: 0x732d6666
 72c:	722f6372 	eorvc	r6, pc, #-939524095	; 0xc8000001
 730:	6f6f6265 	svcvs	0x006f6265
 734:	00632e74 	rsbeq	r2, r3, r4, ror lr
 738:	505f4d50 	subspl	r4, pc, r0, asr sp	; <UNPREDICTABLE>
 73c:	57535341 	ldrbpl	r5, [r3, -r1, asr #6]
 740:	0044524f 	subeq	r5, r4, pc, asr #4
 744:	755f7461 	ldrbvc	r7, [pc, #-1121]	; 2eb <__code_start__-0x7d15>
 748:	5f726573 	svcpl	0x00726573
 74c:	6576656c 	ldrbvs	r6, [r6, #-1388]!	; 0xfffffa94
 750:	4d50006c 	ldclmi	0, cr0, [r0, #-432]	; 0xfffffe50
 754:	5453525f 	ldrbpl	r5, [r3], #-607	; 0xfffffda1
 758:	52575f43 	subspl	r5, r7, #268	; 0x10c
 75c:	5f474643 	svcpl	0x00474643
 760:	4c4c5546 	cfstr64mi	mvdx5, [ip], {70}	; 0x46
 764:	5345525f 	movtpl	r5, #21087	; 0x525f
 768:	50005445 	andpl	r5, r0, r5, asr #8
 76c:	53525f4d 	cmppl	r2, #308	; 0x134
 770:	63004354 	movwvs	r4, #852	; 0x354
 774:	00727370 	rsbseq	r7, r2, r0, ror r3
 778:	5f766564 	svcpl	0x00766564
 77c:	72726162 	rsbsvc	r6, r2, #-2147483624	; 0x80000018
 780:	00726569 	rsbseq	r6, r2, r9, ror #10
 784:	616c6564 	cmnvs	ip, r4, ror #10
 788:	65735f79 	ldrbvs	r5, [r3, #-3961]!	; 0xfffff087
 78c:	2f2e0063 	svccs	0x002e0063
 790:	66617473 			; <UNDEFINED> instruction: 0x66617473
 794:	72732d66 	rsbsvc	r2, r3, #6528	; 0x1980
 798:	69742f63 	ldmdbvs	r4!, {r0, r1, r5, r6, r8, r9, sl, fp, sp}^
 79c:	2e72656d 	cdpcs	5, 7, cr6, cr2, cr13, {3}
 7a0:	45470063 	strbmi	r0, [r7, #-99]	; 0xffffff9d
 7a4:	00323354 	eorseq	r3, r2, r4, asr r3
 7a8:	656d6974 	strbvs	r6, [sp, #-2420]!	; 0xfffff68c
 7ac:	65675f72 	strbvs	r5, [r7, #-3954]!	; 0xfffff08e
 7b0:	73755f74 	cmnvc	r5, #116, 30	; 0x1d0
 7b4:	64006365 	strvs	r6, [r0], #-869	; 0xfffffc9b
 7b8:	79616c65 	stmdbvc	r1!, {r0, r2, r5, r6, sl, fp, sp, lr}^
 7bc:	0073755f 	rsbseq	r7, r3, pc, asr r5
 7c0:	656d6974 	strbvs	r6, [sp, #-2420]!	; 0xfffff68c
 7c4:	65675f72 	strbvs	r5, [r7, #-3954]!	; 0xfffff08e
 7c8:	73755f74 	cmnvc	r5, #116, 30	; 0x1d0
 7cc:	725f6365 	subsvc	r6, pc, #-1811939327	; 0x94000001
 7d0:	70007761 	andvc	r7, r0, r1, ror #14
 7d4:	32337475 	eorscc	r7, r3, #1962934272	; 0x75000000
 7d8:	75616200 	strbvc	r6, [r1, #-512]!	; 0xfffffe00
 7dc:	61765f64 	cmnvs	r6, r4, ror #30
 7e0:	7473006c 	ldrbtvc	r0, [r3], #-108	; 0xffffff94
 7e4:	75007461 	strvc	r7, [r0, #-1121]	; 0xfffffb9f
 7e8:	5f747261 	svcpl	0x00747261
 7ec:	5f6e6163 	svcpl	0x006e6163
 7f0:	63746567 	cmnvs	r4, #432013312	; 0x19c00000
 7f4:	49504700 	ldmdbmi	r0, {r8, r9, sl, lr}^
 7f8:	55465f4f 	strbpl	r5, [r6, #-3919]	; 0xfffff0b1
 7fc:	4f5f434e 	svcmi	0x005f434e
 800:	55505455 	ldrbpl	r5, [r0, #-1109]	; 0xfffffbab
 804:	75610054 	strbvc	r0, [r1, #-84]!	; 0xffffffac
 808:	65705f78 	ldrbvs	r5, [r0, #-3960]!	; 0xfffff088
 80c:	68706972 	ldmdavs	r0!, {r1, r4, r5, r6, r8, fp, sp, lr}^
 810:	61750073 	cmnvs	r5, r3, ror r0
 814:	632e7472 			; <UNDEFINED> instruction: 0x632e7472
 818:	72617500 	rsbvc	r7, r1, #0, 10
 81c:	61635f74 	smcvs	13812	; 0x35f4
 820:	75705f6e 	ldrbvc	r5, [r0, #-3950]!	; 0xfffff092
 824:	75006374 	strvc	r6, [r0, #-884]	; 0xfffffc8c
 828:	5f747261 	svcpl	0x00747261
 82c:	695f7874 	ldmdbvs	pc, {r2, r4, r5, r6, fp, ip, sp, lr}^	; <UNPREDICTABLE>
 830:	6d655f73 	stclvs	15, cr5, [r5, #-460]!	; 0xfffffe34
 834:	00797470 	rsbseq	r7, r9, r0, ror r4
 838:	4f495047 	svcmi	0x00495047
 83c:	4e55465f 	mrcmi	6, 2, r4, cr5, cr15, {2}
 840:	4c415f43 	mcrrmi	15, 4, r5, r1, cr3
 844:	47003054 	smlsdmi	r0, r4, r0, r3
 848:	5f4f4950 	svcpl	0x004f4950
 84c:	434e5546 	movtmi	r5, #58694	; 0xe546
 850:	544c415f 	strbpl	r4, [ip], #-351	; 0xfffffea1
 854:	50470031 	subpl	r0, r7, r1, lsr r0
 858:	465f4f49 	ldrbmi	r4, [pc], -r9, asr #30
 85c:	5f434e55 	svcpl	0x00434e55
 860:	32544c41 	subscc	r4, r4, #16640	; 0x4100
 864:	49504700 	ldmdbmi	r0, {r8, r9, sl, lr}^
 868:	55465f4f 	strbpl	r5, [r6, #-3919]	; 0xfffff0b1
 86c:	415f434e 	cmpmi	pc, lr, asr #6
 870:	0033544c 	eorseq	r5, r3, ip, asr #8
 874:	4f495047 	svcmi	0x00495047
 878:	4e55465f 	mrcmi	6, 2, r4, cr5, cr15, {2}
 87c:	4c415f43 	mcrrmi	15, 4, r5, r1, cr3
 880:	2f003554 	svccs	0x00003554
 884:	656d6f68 	strbvs	r6, [sp, #-3944]!	; 0xfffff098
 888:	676e652f 	strbvs	r6, [lr, -pc, lsr #10]!
 88c:	2f72656c 	svccs	0x0072656c
 890:	73616c63 	cmnvc	r1, #25344	; 0x6300
 894:	73632f73 	cmnvc	r3, #460	; 0x1cc
 898:	6c303432 	cfldrsvs	mvf3, [r0], #-200	; 0xffffff38
 89c:	32322d78 	eorscc	r2, r2, #120, 26	; 0x1e00
 8a0:	2f727073 	svccs	0x00727073
 8a4:	7062696c 	rsbvc	r6, r2, ip, ror #18
 8a8:	74732f69 	ldrbtvc	r2, [r3], #-3945	; 0xfffff097
 8ac:	2d666661 	stclcs	6, cr6, [r6, #-388]!	; 0xfffffe7c
 8b0:	76697270 			; <UNDEFINED> instruction: 0x76697270
 8b4:	00657461 	rsbeq	r7, r5, r1, ror #8
 8b8:	64756162 	ldrbtvs	r6, [r5], #-354	; 0xfffffe9e
 8bc:	78756100 	ldmdavc	r5!, {r8, sp, lr}^
 8c0:	616e655f 	cmnvs	lr, pc, asr r5
 8c4:	73656c62 	cmnvc	r5, #25088	; 0x6200
 8c8:	72617500 	rsbvc	r7, r1, #0, 10
 8cc:	65675f74 	strbvs	r5, [r7, #-3956]!	; 0xfffff08c
 8d0:	47006374 	smlsdxmi	r0, r4, r3, r6
 8d4:	4320554e 			; <UNDEFINED> instruction: 0x4320554e
 8d8:	31203939 			; <UNDEFINED> instruction: 0x31203939
 8dc:	2e332e30 	mrccs	14, 1, r2, cr3, cr0, {1}
 8e0:	30322031 	eorscc	r2, r2, r1, lsr r0
 8e4:	38303132 	ldmdacc	r0!, {r1, r4, r5, r8, ip, sp}
 8e8:	28203432 	stmdacs	r0!, {r1, r4, r5, sl, ip, sp}
 8ec:	656c6572 	strbvs	r6, [ip, #-1394]!	; 0xfffffa8e
 8f0:	29657361 	stmdbcs	r5!, {r0, r5, r6, r8, r9, ip, sp, lr}^
 8f4:	636d2d20 	cmnvs	sp, #32, 26	; 0x800
 8f8:	613d7570 	teqvs	sp, r0, ror r5
 8fc:	31316d72 	teqcc	r1, r2, ror sp
 900:	7a6a3637 	bvc	1a8e1e4 <__bss_end__+0x1a8337c>
 904:	20732d66 	rsbscs	r2, r3, r6, ror #26
 908:	75746d2d 	ldrbvc	r6, [r4, #-3373]!	; 0xfffff2d3
 90c:	613d656e 	teqvs	sp, lr, ror #10
 910:	31316d72 	teqcc	r1, r2, ror sp
 914:	7a6a3637 	bvc	1a8e1f8 <__bss_end__+0x1a83390>
 918:	20732d66 	rsbscs	r2, r3, r6, ror #26
 91c:	6c666d2d 	stclvs	13, cr6, [r6], #-180	; 0xffffff4c
 920:	2d74616f 	ldfcse	f6, [r4, #-444]!	; 0xfffffe44
 924:	3d696261 	sfmcc	f6, 2, [r9, #-388]!	; 0xfffffe7c
 928:	74666f73 	strbtvc	r6, [r6], #-3955	; 0xfffff08d
 92c:	616d2d20 	cmnvs	sp, r0, lsr #26
 930:	2d206d72 	stccs	13, cr6, [r0, #-456]!	; 0xfffffe38
 934:	6372616d 	cmnvs	r2, #1073741851	; 0x4000001b
 938:	72613d68 	rsbvc	r3, r1, #104, 26	; 0x1a00
 93c:	6b36766d 	blvs	d9e2f8 <__bss_end__+0xd93490>
 940:	672d207a 			; <UNDEFINED> instruction: 0x672d207a
 944:	20626467 	rsbcs	r6, r2, r7, ror #8
 948:	20674f2d 	rsbcs	r4, r7, sp, lsr #30
 94c:	6474732d 	ldrbtvs	r7, [r4], #-813	; 0xfffffcd3
 950:	756e673d 	strbvc	r6, [lr, #-1853]!	; 0xfffff8c3
 954:	2d203939 			; <UNDEFINED> instruction: 0x2d203939
 958:	65726666 	ldrbvs	r6, [r2, #-1638]!	; 0xfffff99a
 95c:	61747365 	cmnvs	r4, r5, ror #6
 960:	6e69646e 	cdpvs	4, 6, cr6, cr9, cr14, {3}
 964:	6e630067 	cdpvs	0, 6, cr0, cr3, cr7, {3}
 968:	75006c74 	strvc	r6, [r0, #-3188]	; 0xfffff38c
 96c:	5f747261 	svcpl	0x00747261
 970:	61736964 	cmnvs	r3, r4, ror #18
 974:	00656c62 	rsbeq	r6, r5, r2, ror #24
 978:	74726175 	ldrbtvc	r6, [r2], #-373	; 0xfffffe8b
 97c:	7361685f 	cmnvc	r1, #6225920	; 0x5f0000
 980:	7461645f 	strbtvc	r6, [r1], #-1119	; 0xfffffba1
 984:	50470061 	subpl	r0, r7, r1, rrx
 988:	465f4f49 	ldrbmi	r4, [pc], -r9, asr #30
 98c:	5f434e55 	svcpl	0x00434e55
 990:	34544c41 	ldrbcc	r4, [r4], #-3137	; 0xfffff3bf
 994:	5f726f00 	svcpl	0x00726f00
 998:	32336e69 	eorscc	r6, r3, #1680	; 0x690
 99c:	72637300 	rsbvc	r7, r3, #0, 6
 9a0:	68637461 	stmdavs	r3!, {r0, r5, r6, sl, ip, sp, lr}^
 9a4:	72617500 	rsbvc	r7, r1, #0, 10
 9a8:	6e610074 	mcrvs	0, 3, r0, cr1, cr4, {3}
 9ac:	6e695f64 	cdpvs	15, 6, cr5, cr9, cr4, {3}
 9b0:	75003233 	strvc	r3, [r0, #-563]	; 0xfffffdcd
 9b4:	5f747261 	svcpl	0x00747261
 9b8:	63747570 	cmnvs	r4, #112, 10	; 0x1c000000
 9bc:	49504700 	ldmdbmi	r0, {r8, r9, sl, lr}^
 9c0:	55465f4f 	strbpl	r5, [r6, #-3919]	; 0xfffff0b1
 9c4:	495f434e 	ldmdbmi	pc, {r1, r2, r3, r6, r8, r9, lr}^	; <UNPREDICTABLE>
 9c8:	5455504e 	ldrbpl	r5, [r5], #-78	; 0xffffffb2
 9cc:	69706700 	ldmdbvs	r0!, {r8, r9, sl, sp, lr}^
 9d0:	65735f6f 	ldrbvs	r5, [r3, #-3951]!	; 0xfffff091
 9d4:	75665f74 	strbvc	r5, [r6, #-3956]!	; 0xfffff08c
 9d8:	6974636e 	ldmdbvs	r4!, {r1, r2, r3, r5, r6, r8, r9, sp, lr}^
 9dc:	67006e6f 	strvs	r6, [r0, -pc, ror #28]
 9e0:	32337465 	eorscc	r7, r3, #1694498816	; 0x65000000
 9e4:	616d6b00 	cmnvs	sp, r0, lsl #22
 9e8:	636f6c6c 	cmnvs	pc, #108, 24	; 0x6c00
 9ec:	6165685f 	cmnvs	r5, pc, asr r8
 9f0:	74735f70 	ldrbtvc	r5, [r3], #-3952	; 0xfffff090
 9f4:	00747261 	rsbseq	r7, r4, r1, ror #4
 9f8:	5f78616d 	svcpl	0x0078616d
 9fc:	7479626e 	ldrbtvc	r6, [r9], #-622	; 0xfffffd92
 a00:	5f007365 	svcpl	0x00007365
 a04:	72646461 	rsbvc	r6, r4, #1627389952	; 0x61000000
 a08:	61656800 	cmnvs	r5, r0, lsl #16
 a0c:	616d5f70 	smcvs	54768	; 0xd5f0
 a10:	666b0078 			; <UNDEFINED> instruction: 0x666b0078
 a14:	5f656572 	svcpl	0x00656572
 a18:	006c6c61 	rsbeq	r6, ip, r1, ror #24
 a1c:	6e756f72 	mrcvs	15, 3, r6, cr5, cr2, {3}
 a20:	00707564 	rsbseq	r7, r0, r4, ror #10
 a24:	6572666b 	ldrbvs	r6, [r2, #-1643]!	; 0xfffff995
 a28:	6f705f65 	svcvs	0x00705f65
 a2c:	6c610070 	stclvs	0, cr0, [r1], #-448	; 0xfffffe40
 a30:	6d6e6769 	stclvs	7, cr6, [lr, #-420]!	; 0xfffffe5c
 a34:	00746e65 	rsbseq	r6, r4, r5, ror #28
 a38:	5f78616d 	svcpl	0x0078616d
 a3c:	00323375 	eorseq	r3, r2, r5, ror r3
 a40:	4d656e4f 	stclmi	14, cr6, [r5, #-316]!	; 0xfffffec4
 a44:	6d6b0042 	stclvs	0, cr0, [fp, #-264]!	; 0xfffffef8
 a48:	6f6c6c61 	svcvs	0x006c6c61
 a4c:	65685f63 	strbvs	r5, [r8, #-3939]!	; 0xfffff09d
 a50:	655f7061 	ldrbvs	r7, [pc, #-97]	; 9f7 <__code_start__-0x7609>
 a54:	6b00646e 	blvs	19c14 <__bss_end__+0xedac>
 a58:	6c6c616d 	stfvse	f6, [ip], #-436	; 0xfffffe4c
 a5c:	6e5f636f 	cdpvs	3, 5, cr6, cr15, cr15, {3}
 a60:	657a746f 	ldrbvs	r7, [sl, #-1135]!	; 0xfffffb91
 a64:	69006f72 	stmdbvs	r0, {r1, r4, r5, r6, r8, r9, sl, fp, sp, lr}
 a68:	6f705f73 	svcvs	0x00705f73
 a6c:	6b003277 	blvs	d450 <__bss_end__+0x25e8>
 a70:	6c6c616d 	stfvse	f6, [ip], #-436	; 0xfffffe4c
 a74:	632e636f 			; <UNDEFINED> instruction: 0x632e636f
 a78:	616d6b00 	cmnvs	sp, r0, lsl #22
 a7c:	636f6c6c 	cmnvs	pc, #108, 24	; 0x6c00
 a80:	696e695f 	stmdbvs	lr!, {r0, r1, r2, r3, r4, r6, r8, fp, sp, lr}^
 a84:	73690074 	cmnvc	r9, #116, 0	; 0x74
 a88:	696c615f 	stmdbvs	ip!, {r0, r1, r2, r3, r4, r6, r8, sp, lr}^
 a8c:	64656e67 	strbtvs	r6, [r5], #-3687	; 0xfffff199
 a90:	616d6b00 	cmnvs	sp, r0, lsl #22
 a94:	636f6c6c 	cmnvs	pc, #108, 24	; 0x6c00
 a98:	6165685f 	cmnvs	r5, pc, asr r8
 a9c:	74705f70 	ldrbtvc	r5, [r0], #-3952	; 0xfffff090
 aa0:	70720072 	rsbsvc	r0, r2, r2, ror r0
 aa4:	65725f69 	ldrbvs	r5, [r2, #-3945]!	; 0xfffff097
 aa8:	5f746573 	svcpl	0x00746573
 aac:	63747570 	cmnvs	r4, #112, 10	; 0x1c000000
 ab0:	616d6b00 	cmnvs	sp, r0, lsl #22
 ab4:	636f6c6c 	cmnvs	pc, #108, 24	; 0x6c00
 ab8:	696c615f 	stmdbvs	ip!, {r0, r1, r2, r3, r4, r6, r8, sp, lr}^
 abc:	64656e67 	strbtvs	r6, [r5], #-3687	; 0xfffff199
 ac0:	69706700 	ldmdbvs	r0!, {r8, r9, sl, sp, lr}^
 ac4:	6c635f6f 	stclvs	15, cr5, [r3], #-444	; 0xfffffe44
 ac8:	67003072 	smlsdxvs	r0, r2, r0, r3
 acc:	5f6f6970 	svcpl	0x006f6970
 ad0:	30746573 	rsbscc	r6, r4, r3, ror r5
 ad4:	69706700 	ldmdbvs	r0!, {r8, r9, sl, sp, lr}^
 ad8:	72775f6f 	rsbsvc	r5, r7, #444	; 0x1bc
 adc:	00657469 	rsbeq	r7, r5, r9, ror #8
 ae0:	5f564544 	svcpl	0x00564544
 ae4:	334c4156 	movtcc	r4, #49494	; 0xc156
 ae8:	70670032 	rsbvc	r0, r7, r2, lsr r0
 aec:	725f6f69 	subsvc	r6, pc, #420	; 0x1a4
 af0:	00646165 	rsbeq	r6, r4, r5, ror #2
 af4:	72732f2e 	rsbsvc	r2, r3, #184	; 0xb8
 af8:	70672f63 	rsbvc	r2, r7, r3, ror #30
 afc:	632e6f69 			; <UNDEFINED> instruction: 0x632e6f69
 b00:	69706700 	ldmdbvs	r0!, {r8, r9, sl, sp, lr}^
 b04:	65735f6f 	ldrbvs	r5, [r3, #-3951]!	; 0xfffff091
 b08:	6e695f74 	mcrvs	15, 3, r5, cr9, cr4, {3}
 b0c:	00747570 	rsbseq	r7, r4, r0, ror r5
 b10:	6f697067 	svcvs	0x00697067
 b14:	7465735f 	strbtvc	r7, [r5], #-863	; 0xfffffca1
 b18:	66666f5f 	uqsaxvs	r6, r6, pc	; <UNPREDICTABLE>
 b1c:	69706700 	ldmdbvs	r0!, {r8, r9, sl, sp, lr}^
 b20:	65735f6f 	ldrbvs	r5, [r3, #-3951]!	; 0xfffff091
 b24:	756f5f74 	strbvc	r5, [pc, #-3956]!	; fffffbb8 <__bss_end__+0xffff4d50>
 b28:	74757074 	ldrbtvc	r7, [r5], #-116	; 0xffffff8c
 b2c:	69706700 	ldmdbvs	r0!, {r8, r9, sl, sp, lr}^
 b30:	75665f6f 	strbvc	r5, [r6, #-3951]!	; 0xfffff091
 b34:	745f636e 	ldrbvc	r6, [pc], #-878	; b3c <__code_start__-0x74c4>
 b38:	69706700 	ldmdbvs	r0!, {r8, r9, sl, sp, lr}^
 b3c:	656c5f6f 	strbvs	r5, [ip, #-3951]!	; 0xfffff091
 b40:	62003076 	andvs	r3, r0, #118, 0	; 0x76
 b44:	006b6e61 	rsbeq	r6, fp, r1, ror #28
 b48:	6f697067 	svcvs	0x00697067
 b4c:	7465735f 	strbtvc	r7, [r5], #-863	; 0xfffffca1
 b50:	006e6f5f 	rsbeq	r6, lr, pc, asr pc
 b54:	65746e69 	ldrbvs	r6, [r4, #-3689]!	; 0xfffff197
 b58:	6c616e72 	stclvs	14, cr6, [r1], #-456	; 0xfffffe38
 b5c:	7475705f 	ldrbtvc	r7, [r5], #-95	; 0xffffffa1
 b60:	72616863 	rsbvc	r6, r1, #6488064	; 0x630000
 b64:	69707200 	ldmdbvs	r0!, {r9, ip, sp, lr}^
 b68:	7465735f 	strbtvc	r7, [r5], #-863	; 0xfffffca1
 b6c:	7475705f 	ldrbtvc	r7, [r5], #-95	; 0xffffffa1
 b70:	2f2e0063 	svccs	0x002e0063
 b74:	6362696c 	cmnvs	r2, #108, 18	; 0x1b0000
 b78:	7475702f 	ldrbtvc	r7, [r5], #-47	; 0xffffffd1
 b7c:	72616863 	rsbvc	r6, r1, #6488064	; 0x630000
 b80:	2e00632e 	cdpcs	3, 0, cr6, cr0, cr14, {1}
 b84:	62696c2f 	rsbvs	r6, r9, #12032	; 0x2f00
 b88:	74732f63 	ldrbtvc	r2, [r3], #-3939	; 0xfffff09d
 b8c:	74616372 	strbtvc	r6, [r1], #-882	; 0xfffffc8e
 b90:	6400632e 	strvs	r6, [r0], #-814	; 0xfffffcd2
 b94:	00747365 	rsbseq	r7, r4, r5, ror #6
 b98:	696c2f2e 	stmdbvs	ip!, {r1, r2, r3, r5, r8, r9, sl, fp, sp}^
 b9c:	732f6362 			; <UNDEFINED> instruction: 0x732f6362
 ba0:	6d637274 	sfmvs	f7, 2, [r3, #-464]!	; 0xfffffe30
 ba4:	00632e70 	rsbeq	r2, r3, r0, ror lr
 ba8:	696c2f2e 	stmdbvs	ip!, {r1, r2, r3, r5, r8, r9, sl, fp, sp}^
 bac:	732f6362 			; <UNDEFINED> instruction: 0x732f6362
 bb0:	70637274 	rsbvc	r7, r3, r4, ror r2
 bb4:	00632e79 	rsbeq	r2, r3, r9, ror lr
 bb8:	696c2f2e 	stmdbvs	ip!, {r1, r2, r3, r5, r8, r9, sl, fp, sp}^
 bbc:	732f6362 			; <UNDEFINED> instruction: 0x732f6362
 bc0:	636e7274 	cmnvs	lr, #116, 4	; 0x40000007
 bc4:	632e706d 			; <UNDEFINED> instruction: 0x632e706d
 bc8:	732f2e00 			; <UNDEFINED> instruction: 0x732f2e00
 bcc:	66666174 			; <UNDEFINED> instruction: 0x66666174
 bd0:	6372732d 	cmnvs	r2, #-1275068416	; 0xb4000000
 bd4:	6665642f 	strbtvs	r6, [r5], -pc, lsr #8
 bd8:	746c7561 	strbtvc	r7, [ip], #-1377	; 0xfffffa9f
 bdc:	6265722d 	rsbvs	r7, r5, #-805306366	; 0xd0000002
 be0:	2d746f6f 	ldclcs	15, cr6, [r4, #-444]!	; 0xfffffe44
 be4:	6c6c6163 	stfvse	f6, [ip], #-396	; 0xfffffe74
 be8:	2e74756f 	cdpcs	5, 7, cr7, cr4, cr15, {3}
 bec:	Address 0x0000000000000bec is out of bounds.


Disassembly of section .debug_frame:

00000000 <.debug_frame>:
   0:	0000000c 	andeq	r0, r0, ip
   4:	ffffffff 			; <UNDEFINED> instruction: 0xffffffff
   8:	7c020001 	stcvc	0, cr0, [r2], {1}
   c:	000d0c0e 	andeq	r0, sp, lr, lsl #24
  10:	0000001c 	andeq	r0, r0, ip, lsl r0
  14:	00000000 	andeq	r0, r0, r0
  18:	00008038 	andeq	r8, r0, r8, lsr r0
  1c:	00000068 	andeq	r0, r0, r8, rrx
  20:	84080e42 	strhi	r0, [r8], #-3650	; 0xfffff1be
  24:	42018e02 	andmi	r8, r1, #2, 28
  28:	0e68180e 	cdpeq	8, 6, cr1, cr8, cr14, {0}
  2c:	00000008 	andeq	r0, r0, r8
  30:	00000014 	andeq	r0, r0, r4, lsl r0
  34:	00000000 	andeq	r0, r0, r0
  38:	000080a0 	andeq	r8, r0, r0, lsr #1
  3c:	00000094 	muleq	r0, r4, r0
  40:	84080e42 	strhi	r0, [r8], #-3650	; 0xfffff1be
  44:	00018e02 	andeq	r8, r1, r2, lsl #28
  48:	0000000c 	andeq	r0, r0, ip
  4c:	ffffffff 			; <UNDEFINED> instruction: 0xffffffff
  50:	7c020001 	stcvc	0, cr0, [r2], {1}
  54:	000d0c0e 	andeq	r0, sp, lr, lsl #24
  58:	0000000c 	andeq	r0, r0, ip
  5c:	00000048 	andeq	r0, r0, r8, asr #32
  60:	00008134 	andeq	r8, r0, r4, lsr r1
  64:	00000010 	andeq	r0, r0, r0, lsl r0
  68:	0000000c 	andeq	r0, r0, ip
  6c:	00000048 	andeq	r0, r0, r8, asr #32
  70:	00008144 	andeq	r8, r0, r4, asr #2
  74:	00000010 	andeq	r0, r0, r0, lsl r0
  78:	00000020 	andeq	r0, r0, r0, lsr #32
  7c:	00000048 	andeq	r0, r0, r8, asr #32
  80:	00008154 	andeq	r8, r0, r4, asr r1
  84:	000000a4 	andeq	r0, r0, r4, lsr #1
  88:	840c0e42 	strhi	r0, [ip], #-3650	; 0xfffff1be
  8c:	8e028503 	cfsh32hi	mvfx8, mvfx2, #3
  90:	180e4201 	stmdane	lr, {r0, r9, lr}
  94:	0c0e0a5e 			; <UNDEFINED> instruction: 0x0c0e0a5e
  98:	00000b42 	andeq	r0, r0, r2, asr #22
  9c:	0000000c 	andeq	r0, r0, ip
  a0:	00000048 	andeq	r0, r0, r8, asr #32
  a4:	000081f8 	strdeq	r8, [r0], -r8	; <UNPREDICTABLE>
  a8:	00000008 	andeq	r0, r0, r8
  ac:	00000014 	andeq	r0, r0, r4, lsl r0
  b0:	00000048 	andeq	r0, r0, r8, asr #32
  b4:	00008200 	andeq	r8, r0, r0, lsl #4
  b8:	00000018 	andeq	r0, r0, r8, lsl r0
  bc:	84080e42 	strhi	r0, [r8], #-3650	; 0xfffff1be
  c0:	00018e02 	andeq	r8, r1, r2, lsl #28
  c4:	00000018 	andeq	r0, r0, r8, lsl r0
  c8:	00000048 	andeq	r0, r0, r8, asr #32
  cc:	00008218 	andeq	r8, r0, r8, lsl r2
  d0:	00000030 	andeq	r0, r0, r0, lsr r0
  d4:	84100e42 	ldrhi	r0, [r0], #-3650	; 0xfffff1be
  d8:	86038504 	strhi	r8, [r3], -r4, lsl #10
  dc:	00018e02 	andeq	r8, r1, r2, lsl #28
  e0:	00000018 	andeq	r0, r0, r8, lsl r0
  e4:	00000048 	andeq	r0, r0, r8, asr #32
  e8:	00008248 	andeq	r8, r0, r8, asr #4
  ec:	00000058 	andeq	r0, r0, r8, asr r0
  f0:	84100e42 	ldrhi	r0, [r0], #-3650	; 0xfffff1be
  f4:	86038504 	strhi	r8, [r3], -r4, lsl #10
  f8:	00018e02 	andeq	r8, r1, r2, lsl #28
  fc:	00000024 	andeq	r0, r0, r4, lsr #32
 100:	00000048 	andeq	r0, r0, r8, asr #32
 104:	000082a0 	andeq	r8, r0, r0, lsr #5
 108:	000000ec 	andeq	r0, r0, ip, ror #1
 10c:	84180e42 	ldrhi	r0, [r8], #-3650	; 0xfffff1be
 110:	86058506 	strhi	r8, [r5], -r6, lsl #10
 114:	88038704 	stmdahi	r3, {r2, r8, r9, sl, pc}
 118:	42018e02 	andmi	r8, r1, #2, 28
 11c:	0a7c300e 	beq	1f0c15c <__bss_end__+0x1f012f4>
 120:	0b42180e 	bleq	1086160 <__bss_end__+0x107b2f8>
 124:	00000020 	andeq	r0, r0, r0, lsr #32
 128:	00000048 	andeq	r0, r0, r8, asr #32
 12c:	0000838c 	andeq	r8, r0, ip, lsl #7
 130:	00000090 	muleq	r0, r0, r0
 134:	84100e42 	ldrhi	r0, [r0], #-3650	; 0xfffff1be
 138:	86038504 	strhi	r8, [r3], -r4, lsl #10
 13c:	42018e02 	andmi	r8, r1, #2, 28
 140:	0e7c200e 	cdpeq	0, 7, cr2, cr12, cr14, {0}
 144:	00000010 	andeq	r0, r0, r0, lsl r0
 148:	0000000c 	andeq	r0, r0, ip
 14c:	ffffffff 			; <UNDEFINED> instruction: 0xffffffff
 150:	7c020001 	stcvc	0, cr0, [r2], {1}
 154:	000d0c0e 	andeq	r0, sp, lr, lsl #24
 158:	00000014 	andeq	r0, r0, r4, lsl r0
 15c:	00000148 	andeq	r0, r0, r8, asr #2
 160:	0000841c 	andeq	r8, r0, ip, lsl r4
 164:	000000bc 	strheq	r0, [r0], -ip
 168:	8e040e42 	cdphi	14, 0, cr0, cr4, cr2, {2}
 16c:	00000001 	andeq	r0, r0, r1
 170:	00000014 	andeq	r0, r0, r4, lsl r0
 174:	00000148 	andeq	r0, r0, r8, asr #2
 178:	000084d8 	ldrdeq	r8, [r0], -r8	; <UNPREDICTABLE>
 17c:	00000044 	andeq	r0, r0, r4, asr #32
 180:	84080e42 	strhi	r0, [r8], #-3650	; 0xfffff1be
 184:	00018e02 	andeq	r8, r1, r2, lsl #28
 188:	00000014 	andeq	r0, r0, r4, lsl r0
 18c:	00000148 	andeq	r0, r0, r8, asr #2
 190:	0000851c 	andeq	r8, r0, ip, lsl r5
 194:	000000ac 	andeq	r0, r0, ip, lsr #1
 198:	84080e42 	strhi	r0, [r8], #-3650	; 0xfffff1be
 19c:	00018e02 	andeq	r8, r1, r2, lsl #28
 1a0:	0000000c 	andeq	r0, r0, ip
 1a4:	ffffffff 			; <UNDEFINED> instruction: 0xffffffff
 1a8:	7c020001 	stcvc	0, cr0, [r2], {1}
 1ac:	000d0c0e 	andeq	r0, sp, lr, lsl #24
 1b0:	0000000c 	andeq	r0, r0, ip
 1b4:	000001a0 	andeq	r0, r0, r0, lsr #3
 1b8:	000085c8 	andeq	r8, r0, r8, asr #11
 1bc:	0000003c 	andeq	r0, r0, ip, lsr r0
 1c0:	00000014 	andeq	r0, r0, r4, lsl r0
 1c4:	000001a0 	andeq	r0, r0, r0, lsr #3
 1c8:	00008604 	andeq	r8, r0, r4, lsl #12
 1cc:	00000028 	andeq	r0, r0, r8, lsr #32
 1d0:	84080e42 	strhi	r0, [r8], #-3650	; 0xfffff1be
 1d4:	00018e02 	andeq	r8, r1, r2, lsl #28
 1d8:	00000024 	andeq	r0, r0, r4, lsr #32
 1dc:	000001a0 	andeq	r0, r0, r0, lsr #3
 1e0:	0000862c 	andeq	r8, r0, ip, lsr #12
 1e4:	00000168 	andeq	r0, r0, r8, ror #2
 1e8:	84180e42 	ldrhi	r0, [r8], #-3650	; 0xfffff1be
 1ec:	86058506 	strhi	r8, [r5], -r6, lsl #10
 1f0:	88038704 	stmdahi	r3, {r2, r8, r9, sl, pc}
 1f4:	42018e02 	andmi	r8, r1, #2, 28
 1f8:	9c02200e 	stcls	0, cr2, [r2], {14}
 1fc:	0000180e 	andeq	r1, r0, lr, lsl #16
 200:	00000018 	andeq	r0, r0, r8, lsl r0
 204:	000001a0 	andeq	r0, r0, r0, lsr #3
 208:	00008794 	muleq	r0, r4, r7
 20c:	000000a4 	andeq	r0, r0, r4, lsr #1
 210:	8e040e42 	cdphi	14, 0, cr0, cr4, cr2, {2}
 214:	480e4201 	stmdami	lr, {r0, r9, lr}
 218:	040e4202 	streq	r4, [lr], #-514	; 0xfffffdfe
 21c:	0000001c 	andeq	r0, r0, ip, lsl r0
 220:	000001a0 	andeq	r0, r0, r0, lsr #3
 224:	00008838 	andeq	r8, r0, r8, lsr r8
 228:	000000f4 	strdeq	r0, [r0], -r4
 22c:	84180e42 	ldrhi	r0, [r8], #-3650	; 0xfffff1be
 230:	86058506 	strhi	r8, [r5], -r6, lsl #10
 234:	88038704 	stmdahi	r3, {r2, r8, r9, sl, pc}
 238:	00018e02 	andeq	r8, r1, r2, lsl #28
 23c:	00000024 	andeq	r0, r0, r4, lsr #32
 240:	000001a0 	andeq	r0, r0, r0, lsr #3
 244:	0000892c 	andeq	r8, r0, ip, lsr #18
 248:	000000dc 	ldrdeq	r0, [r0], -ip
 24c:	84180e42 	ldrhi	r0, [r8], #-3650	; 0xfffff1be
 250:	86058506 	strhi	r8, [r5], -r6, lsl #10
 254:	88038704 	stmdahi	r3, {r2, r8, r9, sl, pc}
 258:	42018e02 	andmi	r8, r1, #2, 28
 25c:	5a02280e 	bpl	8a29c <__bss_end__+0x7f434>
 260:	0000180e 	andeq	r1, r0, lr, lsl #16
 264:	00000020 	andeq	r0, r0, r0, lsr #32
 268:	000001a0 	andeq	r0, r0, r0, lsr #3
 26c:	00008a08 	andeq	r8, r0, r8, lsl #20
 270:	000000a4 	andeq	r0, r0, r4, lsr #1
 274:	840c0e42 	strhi	r0, [ip], #-3650	; 0xfffff1be
 278:	8e028503 	cfsh32hi	mvfx8, mvfx2, #3
 27c:	180e4201 	stmdane	lr, {r0, r9, lr}
 280:	0c0e0a64 			; <UNDEFINED> instruction: 0x0c0e0a64
 284:	00000b42 	andeq	r0, r0, r2, asr #22
 288:	00000014 	andeq	r0, r0, r4, lsl r0
 28c:	000001a0 	andeq	r0, r0, r0, lsr #3
 290:	00008aac 	andeq	r8, r0, ip, lsr #21
 294:	0000000c 	andeq	r0, r0, ip
 298:	84080e42 	strhi	r0, [r8], #-3650	; 0xfffff1be
 29c:	00018e02 	andeq	r8, r1, r2, lsl #28
 2a0:	00000014 	andeq	r0, r0, r4, lsl r0
 2a4:	000001a0 	andeq	r0, r0, r0, lsr #3
 2a8:	00008ab8 			; <UNDEFINED> instruction: 0x00008ab8
 2ac:	00000048 	andeq	r0, r0, r8, asr #32
 2b0:	84080e42 	strhi	r0, [r8], #-3650	; 0xfffff1be
 2b4:	00018e02 	andeq	r8, r1, r2, lsl #28
 2b8:	00000014 	andeq	r0, r0, r4, lsl r0
 2bc:	000001a0 	andeq	r0, r0, r0, lsr #3
 2c0:	00008b00 	andeq	r8, r0, r0, lsl #22
 2c4:	00000050 	andeq	r0, r0, r0, asr r0
 2c8:	84080e42 	strhi	r0, [r8], #-3650	; 0xfffff1be
 2cc:	00018e02 	andeq	r8, r1, r2, lsl #28
 2d0:	00000014 	andeq	r0, r0, r4, lsl r0
 2d4:	000001a0 	andeq	r0, r0, r0, lsr #3
 2d8:	00008b50 	andeq	r8, r0, r0, asr fp
 2dc:	00000010 	andeq	r0, r0, r0, lsl r0
 2e0:	84080e42 	strhi	r0, [r8], #-3650	; 0xfffff1be
 2e4:	00018e02 	andeq	r8, r1, r2, lsl #28
 2e8:	00000014 	andeq	r0, r0, r4, lsl r0
 2ec:	000001a0 	andeq	r0, r0, r0, lsr #3
 2f0:	00008b60 	andeq	r8, r0, r0, ror #22
 2f4:	0000002c 	andeq	r0, r0, ip, lsr #32
 2f8:	84080e42 	strhi	r0, [r8], #-3650	; 0xfffff1be
 2fc:	00018e02 	andeq	r8, r1, r2, lsl #28
 300:	0000000c 	andeq	r0, r0, ip
 304:	ffffffff 			; <UNDEFINED> instruction: 0xffffffff
 308:	7c020001 	stcvc	0, cr0, [r2], {1}
 30c:	000d0c0e 	andeq	r0, sp, lr, lsl #24
 310:	00000014 	andeq	r0, r0, r4, lsl r0
 314:	00000300 	andeq	r0, r0, r0, lsl #6
 318:	00008b94 	muleq	r0, r4, fp
 31c:	00000078 	andeq	r0, r0, r8, ror r0
 320:	84080e42 	strhi	r0, [r8], #-3650	; 0xfffff1be
 324:	00018e02 	andeq	r8, r1, r2, lsl #28
 328:	0000000c 	andeq	r0, r0, ip
 32c:	ffffffff 			; <UNDEFINED> instruction: 0xffffffff
 330:	7c020001 	stcvc	0, cr0, [r2], {1}
 334:	000d0c0e 	andeq	r0, sp, lr, lsl #24
 338:	00000034 	andeq	r0, r0, r4, lsr r0
 33c:	00000328 	andeq	r0, r0, r8, lsr #6
 340:	00008c0c 	andeq	r8, r0, ip, lsl #24
 344:	00000058 	andeq	r0, r0, r8, asr r0
 348:	80100e42 	andshi	r0, r0, r2, asr #28
 34c:	82038104 	andhi	r8, r3, #1
 350:	42018302 	andmi	r8, r1, #134217728	; 0x8000000
 354:	07841c0e 	streq	r1, [r4, lr, lsl #24]
 358:	058e0685 	streq	r0, [lr, #1669]	; 0x685
 35c:	5a280e44 	bpl	a03c74 <__bss_end__+0x9f8e0c>
 360:	ce421c0e 	cdpgt	12, 4, cr1, cr2, cr14, {0}
 364:	100ec4c5 	andne	ip, lr, r5, asr #9
 368:	c1c2c342 	bicgt	ip, r2, r2, asr #6
 36c:	00000ec0 	andeq	r0, r0, r0, asr #29
 370:	0000000c 	andeq	r0, r0, ip
 374:	ffffffff 			; <UNDEFINED> instruction: 0xffffffff
 378:	7c020001 	stcvc	0, cr0, [r2], {1}
 37c:	000d0c0e 	andeq	r0, sp, lr, lsl #24
 380:	00000018 	andeq	r0, r0, r8, lsl r0
 384:	00000370 	andeq	r0, r0, r0, ror r3
 388:	00008c64 	andeq	r8, r0, r4, ror #24
 38c:	00000038 	andeq	r0, r0, r8, lsr r0
 390:	84100e42 	ldrhi	r0, [r0], #-3650	; 0xfffff1be
 394:	86038504 	strhi	r8, [r3], -r4, lsl #10
 398:	00018e02 	andeq	r8, r1, r2, lsl #28
 39c:	0000000c 	andeq	r0, r0, ip
 3a0:	ffffffff 			; <UNDEFINED> instruction: 0xffffffff
 3a4:	7c020001 	stcvc	0, cr0, [r2], {1}
 3a8:	000d0c0e 	andeq	r0, sp, lr, lsl #24
 3ac:	0000002c 	andeq	r0, r0, ip, lsr #32
 3b0:	0000039c 	muleq	r0, ip, r3
 3b4:	00008c9c 	muleq	r0, ip, ip
 3b8:	00000328 	andeq	r0, r0, r8, lsr #6
 3bc:	84180e42 	ldrhi	r0, [r8], #-3650	; 0xfffff1be
 3c0:	86058506 	strhi	r8, [r5], -r6, lsl #10
 3c4:	88038704 	stmdahi	r3, {r2, r8, r9, sl, pc}
 3c8:	46018e02 	strmi	r8, [r1], -r2, lsl #28
 3cc:	c002600e 	andgt	r6, r2, lr
 3d0:	42180e0a 	andsmi	r0, r8, #160	; 0xa0
 3d4:	0a8e020b 	beq	fe380c08 <__bss_end__+0xfe375da0>
 3d8:	0b42180e 	bleq	1086418 <__bss_end__+0x107b5b0>
 3dc:	00000014 	andeq	r0, r0, r4, lsl r0
 3e0:	0000039c 	muleq	r0, ip, r3
 3e4:	00008fc4 	andeq	r8, r0, r4, asr #31
 3e8:	00000060 	andeq	r0, r0, r0, rrx
 3ec:	8e040e52 	mcrhi	14, 0, r0, cr4, cr2, {2}
 3f0:	100e4401 	andne	r4, lr, r1, lsl #8
 3f4:	0000002c 	andeq	r0, r0, ip, lsr #32
 3f8:	0000039c 	muleq	r0, ip, r3
 3fc:	00009024 	andeq	r9, r0, r4, lsr #32
 400:	0000062c 	andeq	r0, r0, ip, lsr #12
 404:	84240e42 	strthi	r0, [r4], #-3650	; 0xfffff1be
 408:	86088509 	strhi	r8, [r8], -r9, lsl #10
 40c:	88068707 	stmdahi	r6, {r0, r1, r2, r8, r9, sl, pc}
 410:	8a048905 	bhi	12282c <__bss_end__+0x1179c4>
 414:	8e028b03 	vmlahi.f64	d8, d2, d3
 418:	c00e5201 	andgt	r5, lr, r1, lsl #4
 41c:	0a860202 	beq	fe180c2c <__bss_end__+0xfe175dc4>
 420:	0b42240e 	bleq	1089460 <__bss_end__+0x107e5f8>
 424:	0000000c 	andeq	r0, r0, ip
 428:	ffffffff 			; <UNDEFINED> instruction: 0xffffffff
 42c:	7c020001 	stcvc	0, cr0, [r2], {1}
 430:	000d0c0e 	andeq	r0, sp, lr, lsl #24
 434:	00000014 	andeq	r0, r0, r4, lsl r0
 438:	00000424 	andeq	r0, r0, r4, lsr #8
 43c:	00009650 	andeq	r9, r0, r0, asr r6
 440:	0000002c 	andeq	r0, r0, ip, lsr #32
 444:	84080e44 	strhi	r0, [r8], #-3652	; 0xfffff1bc
 448:	00018e02 	andeq	r8, r1, r2, lsl #28
 44c:	0000000c 	andeq	r0, r0, ip
 450:	ffffffff 			; <UNDEFINED> instruction: 0xffffffff
 454:	7c020001 	stcvc	0, cr0, [r2], {1}
 458:	000d0c0e 	andeq	r0, sp, lr, lsl #24
 45c:	00000018 	andeq	r0, r0, r8, lsl r0
 460:	0000044c 	andeq	r0, r0, ip, asr #8
 464:	0000967c 	andeq	r9, r0, ip, ror r6
 468:	000000f8 	strdeq	r0, [r0], -r8
 46c:	84100e42 	ldrhi	r0, [r0], #-3650	; 0xfffff1be
 470:	86038504 	strhi	r8, [r3], -r4, lsl #10
 474:	00018e02 	andeq	r8, r1, r2, lsl #28
 478:	0000000c 	andeq	r0, r0, ip
 47c:	ffffffff 			; <UNDEFINED> instruction: 0xffffffff
 480:	7c020001 	stcvc	0, cr0, [r2], {1}
 484:	000d0c0e 	andeq	r0, sp, lr, lsl #24
 488:	0000000c 	andeq	r0, r0, ip
 48c:	00000478 	andeq	r0, r0, r8, ror r4
 490:	00009774 	andeq	r9, r0, r4, ror r7
 494:	00000004 	andeq	r0, r0, r4
 498:	0000000c 	andeq	r0, r0, ip
 49c:	ffffffff 			; <UNDEFINED> instruction: 0xffffffff
 4a0:	7c020001 	stcvc	0, cr0, [r2], {1}
 4a4:	000d0c0e 	andeq	r0, sp, lr, lsl #24
 4a8:	0000000c 	andeq	r0, r0, ip
 4ac:	00000498 	muleq	r0, r8, r4
 4b0:	00009778 	andeq	r9, r0, r8, ror r7
 4b4:	00000018 	andeq	r0, r0, r8, lsl r0
 4b8:	0000000c 	andeq	r0, r0, ip
 4bc:	00000498 	muleq	r0, r8, r4
 4c0:	00009790 	muleq	r0, r0, r7
 4c4:	00000014 	andeq	r0, r0, r4, lsl r0
 4c8:	00000014 	andeq	r0, r0, r4, lsl r0
 4cc:	00000498 	muleq	r0, r8, r4
 4d0:	000097a4 	andeq	r9, r0, r4, lsr #15
 4d4:	00000060 	andeq	r0, r0, r0, rrx
 4d8:	84080e42 	strhi	r0, [r8], #-3650	; 0xfffff1be
 4dc:	00018e02 	andeq	r8, r1, r2, lsl #28
 4e0:	0000000c 	andeq	r0, r0, ip
 4e4:	ffffffff 			; <UNDEFINED> instruction: 0xffffffff
 4e8:	7c020001 	stcvc	0, cr0, [r2], {1}
 4ec:	000d0c0e 	andeq	r0, sp, lr, lsl #24
 4f0:	0000000c 	andeq	r0, r0, ip
 4f4:	000004e0 	andeq	r0, r0, r0, ror #9
 4f8:	00009804 	andeq	r9, r0, r4, lsl #16
 4fc:	0000000c 	andeq	r0, r0, ip
 500:	00000014 	andeq	r0, r0, r4, lsl r0
 504:	000004e0 	andeq	r0, r0, r0, ror #9
 508:	00009810 	andeq	r9, r0, r0, lsl r8
 50c:	00000024 	andeq	r0, r0, r4, lsr #32
 510:	84080e42 	strhi	r0, [r8], #-3650	; 0xfffff1be
 514:	00018e02 	andeq	r8, r1, r2, lsl #28
 518:	0000001c 	andeq	r0, r0, ip, lsl r0
 51c:	000004e0 	andeq	r0, r0, r0, ror #9
 520:	00009834 	andeq	r9, r0, r4, lsr r8
 524:	00000048 	andeq	r0, r0, r8, asr #32
 528:	84180e42 	ldrhi	r0, [r8], #-3650	; 0xfffff1be
 52c:	86058506 	strhi	r8, [r5], -r6, lsl #10
 530:	88038704 	stmdahi	r3, {r2, r8, r9, sl, pc}
 534:	00018e02 	andeq	r8, r1, r2, lsl #28
 538:	0000001c 	andeq	r0, r0, ip, lsl r0
 53c:	000004e0 	andeq	r0, r0, r0, ror #9
 540:	0000987c 	andeq	r9, r0, ip, ror r8
 544:	00000050 	andeq	r0, r0, r0, asr r0
 548:	84180e42 	ldrhi	r0, [r8], #-3650	; 0xfffff1be
 54c:	86058506 	strhi	r8, [r5], -r6, lsl #10
 550:	88038704 	stmdahi	r3, {r2, r8, r9, sl, pc}
 554:	00018e02 	andeq	r8, r1, r2, lsl #28
 558:	0000001c 	andeq	r0, r0, ip, lsl r0
 55c:	000004e0 	andeq	r0, r0, r0, ror #9
 560:	000098cc 	andeq	r9, r0, ip, asr #17
 564:	00000054 	andeq	r0, r0, r4, asr r0
 568:	84180e42 	ldrhi	r0, [r8], #-3650	; 0xfffff1be
 56c:	86058506 	strhi	r8, [r5], -r6, lsl #10
 570:	88038704 	stmdahi	r3, {r2, r8, r9, sl, pc}
 574:	00018e02 	andeq	r8, r1, r2, lsl #28
 578:	0000000c 	andeq	r0, r0, ip
 57c:	ffffffff 			; <UNDEFINED> instruction: 0xffffffff
 580:	7c020001 	stcvc	0, cr0, [r2], {1}
 584:	000d0c0e 	andeq	r0, sp, lr, lsl #24
 588:	00000018 	andeq	r0, r0, r8, lsl r0
 58c:	00000578 	andeq	r0, r0, r8, ror r5
 590:	00009920 	andeq	r9, r0, r0, lsr #18
 594:	00000020 	andeq	r0, r0, r0, lsr #32
 598:	84100e42 	ldrhi	r0, [r0], #-3650	; 0xfffff1be
 59c:	86038504 	strhi	r8, [r3], -r4, lsl #10
 5a0:	00018e02 	andeq	r8, r1, r2, lsl #28
 5a4:	00000018 	andeq	r0, r0, r8, lsl r0
 5a8:	00000578 	andeq	r0, r0, r8, ror r5
 5ac:	00009940 	andeq	r9, r0, r0, asr #18
 5b0:	00000020 	andeq	r0, r0, r0, lsr #32
 5b4:	84100e42 	ldrhi	r0, [r0], #-3650	; 0xfffff1be
 5b8:	86038504 	strhi	r8, [r3], -r4, lsl #10
 5bc:	00018e02 	andeq	r8, r1, r2, lsl #28
 5c0:	00000014 	andeq	r0, r0, r4, lsl r0
 5c4:	00000578 	andeq	r0, r0, r8, ror r5
 5c8:	00009960 	andeq	r9, r0, r0, ror #18
 5cc:	000000b0 	strheq	r0, [r0], -r0	; <UNPREDICTABLE>
 5d0:	84080e42 	strhi	r0, [r8], #-3650	; 0xfffff1be
 5d4:	00018e02 	andeq	r8, r1, r2, lsl #28
 5d8:	00000014 	andeq	r0, r0, r4, lsl r0
 5dc:	00000578 	andeq	r0, r0, r8, ror r5
 5e0:	00009a10 	andeq	r9, r0, r0, lsl sl
 5e4:	00000018 	andeq	r0, r0, r8, lsl r0
 5e8:	84080e42 	strhi	r0, [r8], #-3650	; 0xfffff1be
 5ec:	00018e02 	andeq	r8, r1, r2, lsl #28
 5f0:	00000014 	andeq	r0, r0, r4, lsl r0
 5f4:	00000578 	andeq	r0, r0, r8, ror r5
 5f8:	00009a28 	andeq	r9, r0, r8, lsr #20
 5fc:	00000020 	andeq	r0, r0, r0, lsr #32
 600:	84080e42 	strhi	r0, [r8], #-3650	; 0xfffff1be
 604:	00018e02 	andeq	r8, r1, r2, lsl #28
 608:	00000014 	andeq	r0, r0, r4, lsl r0
 60c:	00000578 	andeq	r0, r0, r8, ror r5
 610:	00009a48 	andeq	r9, r0, r8, asr #20
 614:	00000030 	andeq	r0, r0, r0, lsr r0
 618:	84080e42 	strhi	r0, [r8], #-3650	; 0xfffff1be
 61c:	00018e02 	andeq	r8, r1, r2, lsl #28
 620:	00000014 	andeq	r0, r0, r4, lsl r0
 624:	00000578 	andeq	r0, r0, r8, ror r5
 628:	00009a78 	andeq	r9, r0, r8, ror sl
 62c:	00000030 	andeq	r0, r0, r0, lsr r0
 630:	84080e42 	strhi	r0, [r8], #-3650	; 0xfffff1be
 634:	00018e02 	andeq	r8, r1, r2, lsl #28
 638:	00000014 	andeq	r0, r0, r4, lsl r0
 63c:	00000578 	andeq	r0, r0, r8, ror r5
 640:	00009aa8 	andeq	r9, r0, r8, lsr #21
 644:	00000010 	andeq	r0, r0, r0, lsl r0
 648:	84080e42 	strhi	r0, [r8], #-3650	; 0xfffff1be
 64c:	00018e02 	andeq	r8, r1, r2, lsl #28
 650:	00000014 	andeq	r0, r0, r4, lsl r0
 654:	00000578 	andeq	r0, r0, r8, ror r5
 658:	00009ab8 			; <UNDEFINED> instruction: 0x00009ab8
 65c:	00000020 	andeq	r0, r0, r0, lsr #32
 660:	84080e42 	strhi	r0, [r8], #-3650	; 0xfffff1be
 664:	00018e02 	andeq	r8, r1, r2, lsl #28
 668:	00000014 	andeq	r0, r0, r4, lsl r0
 66c:	00000578 	andeq	r0, r0, r8, ror r5
 670:	00009ad8 	ldrdeq	r9, [r0], -r8
 674:	00000014 	andeq	r0, r0, r4, lsl r0
 678:	84080e42 	strhi	r0, [r8], #-3650	; 0xfffff1be
 67c:	00018e02 	andeq	r8, r1, r2, lsl #28
 680:	00000014 	andeq	r0, r0, r4, lsl r0
 684:	00000578 	andeq	r0, r0, r8, ror r5
 688:	00009aec 	andeq	r9, r0, ip, ror #21
 68c:	00000024 	andeq	r0, r0, r4, lsr #32
 690:	84080e42 	strhi	r0, [r8], #-3650	; 0xfffff1be
 694:	00018e02 	andeq	r8, r1, r2, lsl #28
 698:	0000000c 	andeq	r0, r0, ip
 69c:	ffffffff 			; <UNDEFINED> instruction: 0xffffffff
 6a0:	7c020001 	stcvc	0, cr0, [r2], {1}
 6a4:	000d0c0e 	andeq	r0, sp, lr, lsl #24
 6a8:	0000000c 	andeq	r0, r0, ip
 6ac:	00000698 	muleq	r0, r8, r6
 6b0:	00009b10 	andeq	r9, r0, r0, lsl fp
 6b4:	00000010 	andeq	r0, r0, r0, lsl r0
 6b8:	0000000c 	andeq	r0, r0, ip
 6bc:	00000698 	muleq	r0, r8, r6
 6c0:	00009b20 	andeq	r9, r0, r0, lsr #22
 6c4:	00000010 	andeq	r0, r0, r0, lsl r0
 6c8:	0000000c 	andeq	r0, r0, ip
 6cc:	00000698 	muleq	r0, r8, r6
 6d0:	00009b30 	andeq	r9, r0, r0, lsr fp
 6d4:	00000010 	andeq	r0, r0, r0, lsl r0
 6d8:	0000001c 	andeq	r0, r0, ip, lsl r0
 6dc:	00000698 	muleq	r0, r8, r6
 6e0:	00009b40 	andeq	r9, r0, r0, asr #22
 6e4:	0000009c 	muleq	r0, ip, r0
 6e8:	8e040e42 	cdphi	14, 0, cr0, cr4, cr2, {2}
 6ec:	100e4201 	andne	r4, lr, r1, lsl #4
 6f0:	040e0a58 	streq	r0, [lr], #-2648	; 0xfffff5a8
 6f4:	00000b42 	andeq	r0, r0, r2, asr #22
 6f8:	00000014 	andeq	r0, r0, r4, lsl r0
 6fc:	00000698 	muleq	r0, r8, r6
 700:	00009bdc 	ldrdeq	r9, [r0], -ip
 704:	00000058 	andeq	r0, r0, r8, asr r0
 708:	84080e42 	strhi	r0, [r8], #-3650	; 0xfffff1be
 70c:	00018e02 	andeq	r8, r1, r2, lsl #28
 710:	0000001c 	andeq	r0, r0, ip, lsl r0
 714:	00000698 	muleq	r0, r8, r6
 718:	00009c34 	andeq	r9, r0, r4, lsr ip
 71c:	00000098 	muleq	r0, r8, r0
 720:	8e040e42 	cdphi	14, 0, cr0, cr4, cr2, {2}
 724:	100e4201 	andne	r4, lr, r1, lsl #4
 728:	040e0a58 	streq	r0, [lr], #-2648	; 0xfffff5a8
 72c:	00000b42 	andeq	r0, r0, r2, asr #22
 730:	00000020 	andeq	r0, r0, r0, lsr #32
 734:	00000698 	muleq	r0, r8, r6
 738:	00009ccc 	andeq	r9, r0, ip, asr #25
 73c:	00000064 	andeq	r0, r0, r4, rrx
 740:	840c0e42 	strhi	r0, [ip], #-3650	; 0xfffff1be
 744:	8e028503 	cfsh32hi	mvfx8, mvfx2, #3
 748:	180e4201 	stmdane	lr, {r0, r9, lr}
 74c:	0c0e0a54 			; <UNDEFINED> instruction: 0x0c0e0a54
 750:	00000b42 	andeq	r0, r0, r2, asr #22
 754:	0000001c 	andeq	r0, r0, ip, lsl r0
 758:	00000698 	muleq	r0, r8, r6
 75c:	00009d30 	andeq	r9, r0, r0, lsr sp
 760:	00000118 	andeq	r0, r0, r8, lsl r1
 764:	8e040e42 	cdphi	14, 0, cr0, cr4, cr2, {2}
 768:	100e4201 	andne	r4, lr, r1, lsl #4
 76c:	040e0a6c 	streq	r0, [lr], #-2668	; 0xfffff594
 770:	00000b42 	andeq	r0, r0, r2, asr #22
 774:	0000000c 	andeq	r0, r0, ip
 778:	00000698 	muleq	r0, r8, r6
 77c:	00009e48 	andeq	r9, r0, r8, asr #28
 780:	00000004 	andeq	r0, r0, r4
 784:	0000000c 	andeq	r0, r0, ip
 788:	00000698 	muleq	r0, r8, r6
 78c:	00009e4c 	andeq	r9, r0, ip, asr #28
 790:	00000014 	andeq	r0, r0, r4, lsl r0
 794:	00000014 	andeq	r0, r0, r4, lsl r0
 798:	00000698 	muleq	r0, r8, r6
 79c:	00009e60 	andeq	r9, r0, r0, ror #28
 7a0:	00000060 	andeq	r0, r0, r0, rrx
 7a4:	8e040e58 	mcrhi	14, 0, r0, cr4, cr8, {2}
 7a8:	100e4201 	andne	r4, lr, r1, lsl #4
 7ac:	0000000c 	andeq	r0, r0, ip
 7b0:	ffffffff 			; <UNDEFINED> instruction: 0xffffffff
 7b4:	7c020001 	stcvc	0, cr0, [r2], {1}
 7b8:	000d0c0e 	andeq	r0, sp, lr, lsl #24
 7bc:	00000020 	andeq	r0, r0, r0, lsr #32
 7c0:	000007ac 	andeq	r0, r0, ip, lsr #15
 7c4:	00009ec0 	andeq	r9, r0, r0, asr #29
 7c8:	00000060 	andeq	r0, r0, r0, rrx
 7cc:	84100e48 	ldrhi	r0, [r0], #-3656	; 0xfffff1b8
 7d0:	86038504 	strhi	r8, [r3], -r4, lsl #10
 7d4:	64018e02 	strvs	r8, [r1], #-3586	; 0xfffff1fe
 7d8:	c4c5c6ce 	strbgt	ip, [r5], #1742	; 0x6ce
 7dc:	0000000e 	andeq	r0, r0, lr
 7e0:	00000020 	andeq	r0, r0, r0, lsr #32
 7e4:	000007ac 	andeq	r0, r0, ip, lsr #15
 7e8:	00009f20 	andeq	r9, r0, r0, lsr #30
 7ec:	00000058 	andeq	r0, r0, r8, asr r0
 7f0:	84100e46 	ldrhi	r0, [r0], #-3654	; 0xfffff1ba
 7f4:	86038504 	strhi	r8, [r3], -r4, lsl #10
 7f8:	62018e02 	andvs	r8, r1, #2, 28
 7fc:	c4c5c6ce 	strbgt	ip, [r5], #1742	; 0x6ce
 800:	0000000e 	andeq	r0, r0, lr
 804:	0000000c 	andeq	r0, r0, ip
 808:	000007ac 	andeq	r0, r0, ip, lsr #15
 80c:	00009f78 	andeq	r9, r0, r8, ror pc
 810:	00000018 	andeq	r0, r0, r8, lsl r0
 814:	0000000c 	andeq	r0, r0, ip
 818:	000007ac 	andeq	r0, r0, ip, lsr #15
 81c:	00009f90 	muleq	r0, r0, pc	; <UNPREDICTABLE>
 820:	00000018 	andeq	r0, r0, r8, lsl r0
 824:	00000020 	andeq	r0, r0, r0, lsr #32
 828:	000007ac 	andeq	r0, r0, ip, lsr #15
 82c:	00009fa8 	andeq	r9, r0, r8, lsr #31
 830:	00000058 	andeq	r0, r0, r8, asr r0
 834:	84100e46 	ldrhi	r0, [r0], #-3654	; 0xfffff1ba
 838:	86038504 	strhi	r8, [r3], -r4, lsl #10
 83c:	62018e02 	andvs	r8, r1, #2, 28
 840:	c4c5c6ce 	strbgt	ip, [r5], #1742	; 0x6ce
 844:	0000000e 	andeq	r0, r0, lr
 848:	0000000c 	andeq	r0, r0, ip
 84c:	000007ac 	andeq	r0, r0, ip, lsr #15
 850:	0000a000 	andeq	sl, r0, r0
 854:	00000030 	andeq	r0, r0, r0, lsr r0
 858:	00000014 	andeq	r0, r0, r4, lsl r0
 85c:	000007ac 	andeq	r0, r0, ip, lsr #15
 860:	0000a030 	andeq	sl, r0, r0, lsr r0
 864:	00000028 	andeq	r0, r0, r8, lsr #32
 868:	84080e42 	strhi	r0, [r8], #-3650	; 0xfffff1be
 86c:	00018e02 	andeq	r8, r1, r2, lsl #28
 870:	0000000c 	andeq	r0, r0, ip
 874:	ffffffff 			; <UNDEFINED> instruction: 0xffffffff
 878:	7c020001 	stcvc	0, cr0, [r2], {1}
 87c:	000d0c0e 	andeq	r0, sp, lr, lsl #24
 880:	00000014 	andeq	r0, r0, r4, lsl r0
 884:	00000870 	andeq	r0, r0, r0, ror r8
 888:	0000a058 	andeq	sl, r0, r8, asr r0
 88c:	00000014 	andeq	r0, r0, r4, lsl r0
 890:	84080e42 	strhi	r0, [r8], #-3650	; 0xfffff1be
 894:	00018e02 	andeq	r8, r1, r2, lsl #28
 898:	0000000c 	andeq	r0, r0, ip
 89c:	00000870 	andeq	r0, r0, r0, ror r8
 8a0:	0000a06c 	andeq	sl, r0, ip, rrx
 8a4:	00000018 	andeq	r0, r0, r8, lsl r0
 8a8:	0000000c 	andeq	r0, r0, ip
 8ac:	00000870 	andeq	r0, r0, r0, ror r8
 8b0:	0000a084 	andeq	sl, r0, r4, lsl #1
 8b4:	00000010 	andeq	r0, r0, r0, lsl r0
 8b8:	0000000c 	andeq	r0, r0, ip
 8bc:	ffffffff 			; <UNDEFINED> instruction: 0xffffffff
 8c0:	7c020001 	stcvc	0, cr0, [r2], {1}
 8c4:	000d0c0e 	andeq	r0, sp, lr, lsl #24
 8c8:	0000000c 	andeq	r0, r0, ip
 8cc:	000008b8 			; <UNDEFINED> instruction: 0x000008b8
 8d0:	0000a094 	muleq	r0, r4, r0
 8d4:	0000002c 	andeq	r0, r0, ip, lsr #32
 8d8:	0000000c 	andeq	r0, r0, ip
 8dc:	ffffffff 			; <UNDEFINED> instruction: 0xffffffff
 8e0:	7c020001 	stcvc	0, cr0, [r2], {1}
 8e4:	000d0c0e 	andeq	r0, sp, lr, lsl #24
 8e8:	0000000c 	andeq	r0, r0, ip
 8ec:	000008d8 	ldrdeq	r0, [r0], -r8
 8f0:	0000a0c0 	andeq	sl, r0, r0, asr #1
 8f4:	00000044 	andeq	r0, r0, r4, asr #32
 8f8:	0000000c 	andeq	r0, r0, ip
 8fc:	ffffffff 			; <UNDEFINED> instruction: 0xffffffff
 900:	7c020001 	stcvc	0, cr0, [r2], {1}
 904:	000d0c0e 	andeq	r0, sp, lr, lsl #24
 908:	0000000c 	andeq	r0, r0, ip
 90c:	000008f8 	strdeq	r0, [r0], -r8
 910:	0000a104 	andeq	sl, r0, r4, lsl #2
 914:	00000018 	andeq	r0, r0, r8, lsl r0
 918:	0000000c 	andeq	r0, r0, ip
 91c:	ffffffff 			; <UNDEFINED> instruction: 0xffffffff
 920:	7c020001 	stcvc	0, cr0, [r2], {1}
 924:	000d0c0e 	andeq	r0, sp, lr, lsl #24
 928:	0000000c 	andeq	r0, r0, ip
 92c:	00000918 	andeq	r0, r0, r8, lsl r9
 930:	0000a11c 	andeq	sl, r0, ip, lsl r1
 934:	00000030 	andeq	r0, r0, r0, lsr r0
 938:	0000000c 	andeq	r0, r0, ip
 93c:	ffffffff 			; <UNDEFINED> instruction: 0xffffffff
 940:	7c020001 	stcvc	0, cr0, [r2], {1}
 944:	000d0c0e 	andeq	r0, sp, lr, lsl #24
 948:	0000000c 	andeq	r0, r0, ip
 94c:	00000938 	andeq	r0, r0, r8, lsr r9
 950:	0000a14c 	andeq	sl, r0, ip, asr #2
 954:	00000004 	andeq	r0, r0, r4

Disassembly of section .debug_ranges:

00000000 <.debug_ranges>:
   0:	000000ec 	andeq	r0, r0, ip, ror #1
   4:	00000108 	andeq	r0, r0, r8, lsl #2
   8:	00000114 	andeq	r0, r0, r4, lsl r1
   c:	000001a0 	andeq	r0, r0, r0, lsr #3
	...
  18:	000000ec 	andeq	r0, r0, ip, ror #1
  1c:	00000108 	andeq	r0, r0, r8, lsl #2
  20:	00000124 	andeq	r0, r0, r4, lsr #2
  24:	000001a0 	andeq	r0, r0, r0, lsr #3
	...
  30:	0000028c 	andeq	r0, r0, ip, lsl #5
  34:	00000294 	muleq	r0, r4, r2
  38:	000002a0 	andeq	r0, r0, r0, lsr #5
  3c:	000002fc 	strdeq	r0, [r0], -ip
	...
  48:	00000380 	andeq	r0, r0, r0, lsl #7
  4c:	00000388 	andeq	r0, r0, r8, lsl #7
  50:	00000394 	muleq	r0, r4, r3
  54:	00000404 	andeq	r0, r0, r4, lsl #8
	...
  60:	000000a4 	andeq	r0, r0, r4, lsr #1
  64:	00000148 	andeq	r0, r0, r8, asr #2
  68:	00000158 	andeq	r0, r0, r8, asr r1
  6c:	0000015c 	andeq	r0, r0, ip, asr r1
  70:	00000274 	andeq	r0, r0, r4, ror r2
  74:	00000278 	andeq	r0, r0, r8, ror r2
  78:	0000027c 	andeq	r0, r0, ip, ror r2
  7c:	00000280 	andeq	r0, r0, r0, lsl #5
  80:	00000288 	andeq	r0, r0, r8, lsl #5
  84:	0000029c 	muleq	r0, ip, r2
  88:	000002c0 	andeq	r0, r0, r0, asr #5
  8c:	000002cc 	andeq	r0, r0, ip, asr #5
  90:	000002f0 	strdeq	r0, [r0], -r0	; <UNPREDICTABLE>
  94:	000002f0 	strdeq	r0, [r0], -r0	; <UNPREDICTABLE>
  98:	000002f4 	strdeq	r0, [r0], -r4
  9c:	000002f8 	strdeq	r0, [r0], -r8
	...
  a8:	00000148 	andeq	r0, r0, r8, asr #2
  ac:	00000158 	andeq	r0, r0, r8, asr r1
  b0:	0000015c 	andeq	r0, r0, ip, asr r1
  b4:	0000018c 	andeq	r0, r0, ip, lsl #3
  b8:	0000029c 	muleq	r0, ip, r2
  bc:	000002ac 	andeq	r0, r0, ip, lsr #5
	...
  c8:	000003c8 	andeq	r0, r0, r8, asr #7
  cc:	000003d0 	ldrdeq	r0, [r0], -r0	; <UNPREDICTABLE>
  d0:	00000404 	andeq	r0, r0, r4, lsl #8
  d4:	000004ac 	andeq	r0, r0, ip, lsr #9
  d8:	000004c0 	andeq	r0, r0, r0, asr #9
  dc:	00000920 	andeq	r0, r0, r0, lsr #18
  e0:	00000928 	andeq	r0, r0, r8, lsr #18
  e4:	000009b4 			; <UNDEFINED> instruction: 0x000009b4
	...
  f0:	000003c8 	andeq	r0, r0, r8, asr #7
  f4:	000003d0 	ldrdeq	r0, [r0], -r0	; <UNPREDICTABLE>
  f8:	00000504 	andeq	r0, r0, r4, lsl #10
  fc:	000005d0 	ldrdeq	r0, [r0], -r0	; <UNPREDICTABLE>
 100:	00000800 	andeq	r0, r0, r0, lsl #16
 104:	00000888 	andeq	r0, r0, r8, lsl #17
 108:	00000930 	andeq	r0, r0, r0, lsr r9
 10c:	000009b4 			; <UNDEFINED> instruction: 0x000009b4
	...
 118:	00000404 	andeq	r0, r0, r4, lsl #8
 11c:	00000408 	andeq	r0, r0, r8, lsl #8
 120:	00000414 	andeq	r0, r0, r4, lsl r4
 124:	00000414 	andeq	r0, r0, r4, lsl r4
 128:	00000428 	andeq	r0, r0, r8, lsr #8
 12c:	0000042c 	andeq	r0, r0, ip, lsr #8
	...
 138:	000005fc 	strdeq	r0, [r0], -ip
 13c:	00000700 	andeq	r0, r0, r0, lsl #14
 140:	000007ec 	andeq	r0, r0, ip, ror #15
 144:	000007f4 	strdeq	r0, [r0], -r4
 148:	00000888 	andeq	r0, r0, r8, lsl #17
 14c:	00000894 	muleq	r0, r4, r8
 150:	000008a8 	andeq	r0, r0, r8, lsr #17
 154:	000008bc 			; <UNDEFINED> instruction: 0x000008bc
 158:	00000910 	andeq	r0, r0, r0, lsl r9
 15c:	00000920 	andeq	r0, r0, r0, lsr #18
	...
 168:	00000600 	andeq	r0, r0, r0, lsl #12
 16c:	00000604 	andeq	r0, r0, r4, lsl #12
 170:	00000608 	andeq	r0, r0, r8, lsl #12
 174:	000006b4 			; <UNDEFINED> instruction: 0x000006b4
 178:	000006cc 	andeq	r0, r0, ip, asr #13
 17c:	000006d0 	ldrdeq	r0, [r0], -r0	; <UNPREDICTABLE>
 180:	000008a8 	andeq	r0, r0, r8, lsr #17
 184:	000008b8 			; <UNDEFINED> instruction: 0x000008b8
 188:	00000910 	andeq	r0, r0, r0, lsl r9
 18c:	00000920 	andeq	r0, r0, r0, lsr #18
	...
 198:	000006b4 			; <UNDEFINED> instruction: 0x000006b4
 19c:	000006cc 	andeq	r0, r0, ip, asr #13
 1a0:	000006d0 	ldrdeq	r0, [r0], -r0	; <UNPREDICTABLE>
 1a4:	00000700 	andeq	r0, r0, r0, lsl #14
 1a8:	000007ec 	andeq	r0, r0, ip, ror #15
 1ac:	000007f4 	strdeq	r0, [r0], -r4
 1b0:	00000888 	andeq	r0, r0, r8, lsl #17
 1b4:	00000894 	muleq	r0, r4, r8
 1b8:	000008b8 			; <UNDEFINED> instruction: 0x000008b8
 1bc:	000008bc 			; <UNDEFINED> instruction: 0x000008bc
	...
 1c8:	00000700 	andeq	r0, r0, r0, lsl #14
 1cc:	00000708 	andeq	r0, r0, r8, lsl #14
 1d0:	0000070c 	andeq	r0, r0, ip, lsl #14
 1d4:	000007ec 	andeq	r0, r0, ip, ror #15
 1d8:	00000894 	muleq	r0, r4, r8
 1dc:	000008a8 	andeq	r0, r0, r8, lsr #17
	...
 1e8:	00000728 	andeq	r0, r0, r8, lsr #14
 1ec:	000007a4 	andeq	r0, r0, r4, lsr #15
 1f0:	000007ac 	andeq	r0, r0, ip, lsr #15
 1f4:	000007b0 			; <UNDEFINED> instruction: 0x000007b0
 1f8:	00000894 	muleq	r0, r4, r8
 1fc:	00000898 	muleq	r0, r8, r8
 200:	0000089c 	muleq	r0, ip, r8
 204:	000008a0 	andeq	r0, r0, r0, lsr #17
	...
 210:	000007a4 	andeq	r0, r0, r4, lsr #15
 214:	000007ac 	andeq	r0, r0, ip, lsr #15
 218:	000007b0 			; <UNDEFINED> instruction: 0x000007b0
 21c:	000007ec 	andeq	r0, r0, ip, ror #15
 220:	00000898 	muleq	r0, r8, r8
 224:	0000089c 	muleq	r0, ip, r8
 228:	000008a0 	andeq	r0, r0, r0, lsr #17
 22c:	000008a8 	andeq	r0, r0, r8, lsr #17
	...
 238:	000097a4 	andeq	r9, r0, r4, lsr #15
 23c:	000097a4 	andeq	r9, r0, r4, lsr #15
 240:	000097a8 	andeq	r9, r0, r8, lsr #15
 244:	000097b0 			; <UNDEFINED> instruction: 0x000097b0
	...
 250:	00009778 	andeq	r9, r0, r8, ror r7
 254:	00009804 	andeq	r9, r0, r4, lsl #16
	...
 260:	00000030 	andeq	r0, r0, r0, lsr r0
 264:	00000030 	andeq	r0, r0, r0, lsr r0
 268:	00000038 	andeq	r0, r0, r8, lsr r0
 26c:	0000004c 	andeq	r0, r0, ip, asr #32
	...
 278:	0000004c 	andeq	r0, r0, ip, asr #32
 27c:	00000050 	andeq	r0, r0, r0, asr r0
 280:	00000050 	andeq	r0, r0, r0, asr r0
 284:	00000078 	andeq	r0, r0, r8, ror r0
	...
 290:	0000004c 	andeq	r0, r0, ip, asr #32
 294:	00000050 	andeq	r0, r0, r0, asr r0
 298:	00000050 	andeq	r0, r0, r0, asr r0
 29c:	00000060 	andeq	r0, r0, r0, rrx
 2a0:	00000064 	andeq	r0, r0, r4, rrx
 2a4:	00000068 	andeq	r0, r0, r8, rrx
	...
 2b0:	0000004c 	andeq	r0, r0, ip, asr #32
 2b4:	00000050 	andeq	r0, r0, r0, asr r0
 2b8:	00000054 	andeq	r0, r0, r4, asr r0
 2bc:	00000060 	andeq	r0, r0, r0, rrx
	...
 2c8:	0000009c 	muleq	r0, ip, r0
 2cc:	000000a0 	andeq	r0, r0, r0, lsr #1
 2d0:	000000a0 	andeq	r0, r0, r0, lsr #1
 2d4:	000000c8 	andeq	r0, r0, r8, asr #1
	...
 2e0:	0000009c 	muleq	r0, ip, r0
 2e4:	000000a0 	andeq	r0, r0, r0, lsr #1
 2e8:	000000a0 	andeq	r0, r0, r0, lsr #1
 2ec:	000000b0 	strheq	r0, [r0], -r0	; <UNPREDICTABLE>
 2f0:	000000b4 	strheq	r0, [r0], -r4
 2f4:	000000b8 	strheq	r0, [r0], -r8
	...
 300:	0000009c 	muleq	r0, ip, r0
 304:	000000a0 	andeq	r0, r0, r0, lsr #1
 308:	000000a4 	andeq	r0, r0, r4, lsr #1
 30c:	000000b0 	strheq	r0, [r0], -r0	; <UNPREDICTABLE>
	...
 318:	000000c8 	andeq	r0, r0, r8, asr #1
 31c:	000000c8 	andeq	r0, r0, r8, asr #1
 320:	000000cc 	andeq	r0, r0, ip, asr #1
 324:	0000011c 	andeq	r0, r0, ip, lsl r1
	...
 330:	000000f0 	strdeq	r0, [r0], -r0	; <UNPREDICTABLE>
 334:	000000f4 	strdeq	r0, [r0], -r4
 338:	000000f4 	strdeq	r0, [r0], -r4
 33c:	0000011c 	andeq	r0, r0, ip, lsl r1
	...
 348:	000000f0 	strdeq	r0, [r0], -r0	; <UNPREDICTABLE>
 34c:	000000f4 	strdeq	r0, [r0], -r4
 350:	000000f4 	strdeq	r0, [r0], -r4
 354:	00000104 	andeq	r0, r0, r4, lsl #2
 358:	00000108 	andeq	r0, r0, r8, lsl #2
 35c:	0000010c 	andeq	r0, r0, ip, lsl #2
	...
 368:	000000f0 	strdeq	r0, [r0], -r0	; <UNPREDICTABLE>
 36c:	000000f4 	strdeq	r0, [r0], -r4
 370:	000000f8 	strdeq	r0, [r0], -r8
 374:	00000104 	andeq	r0, r0, r4, lsl #2
	...
 380:	00000134 	andeq	r0, r0, r4, lsr r1
 384:	00000134 	andeq	r0, r0, r4, lsr r1
 388:	00000134 	andeq	r0, r0, r4, lsr r1
 38c:	0000013c 	andeq	r0, r0, ip, lsr r1
	...
 398:	0000024c 	andeq	r0, r0, ip, asr #4
 39c:	00000264 	andeq	r0, r0, r4, ror #4
 3a0:	000002c8 	andeq	r0, r0, r8, asr #5
 3a4:	000002e8 	andeq	r0, r0, r8, ror #5
	...
 3b0:	00000008 	andeq	r0, r0, r8
 3b4:	0000000c 	andeq	r0, r0, ip
 3b8:	00000014 	andeq	r0, r0, r4, lsl r0
 3bc:	00000054 	andeq	r0, r0, r4, asr r0
 3c0:	00000058 	andeq	r0, r0, r8, asr r0
 3c4:	00000060 	andeq	r0, r0, r0, rrx
	...
 3d0:	00000060 	andeq	r0, r0, r0, rrx
 3d4:	00000068 	andeq	r0, r0, r8, rrx
 3d8:	0000006c 	andeq	r0, r0, ip, rrx
 3dc:	000000ac 	andeq	r0, r0, ip, lsr #1
 3e0:	000000b0 	strheq	r0, [r0], -r0	; <UNPREDICTABLE>
 3e4:	000000b8 	strheq	r0, [r0], -r8
	...
 3f0:	00000068 	andeq	r0, r0, r8, rrx
 3f4:	00000068 	andeq	r0, r0, r8, rrx
 3f8:	0000006c 	andeq	r0, r0, ip, rrx
 3fc:	000000ac 	andeq	r0, r0, ip, lsr #1
 400:	000000b0 	strheq	r0, [r0], -r0	; <UNPREDICTABLE>
 404:	000000b8 	strheq	r0, [r0], -r8
	...
 410:	000000e8 	andeq	r0, r0, r8, ror #1
 414:	000000f0 	strdeq	r0, [r0], -r0	; <UNPREDICTABLE>
 418:	000000f4 	strdeq	r0, [r0], -r4
 41c:	00000134 	andeq	r0, r0, r4, lsr r1
 420:	00000138 	andeq	r0, r0, r8, lsr r1
 424:	00000140 	andeq	r0, r0, r0, asr #2
	...
 430:	000000f0 	strdeq	r0, [r0], -r0	; <UNPREDICTABLE>
 434:	000000f0 	strdeq	r0, [r0], -r0	; <UNPREDICTABLE>
 438:	000000f4 	strdeq	r0, [r0], -r4
 43c:	00000134 	andeq	r0, r0, r4, lsr r1
 440:	00000138 	andeq	r0, r0, r8, lsr r1
 444:	00000140 	andeq	r0, r0, r0, asr #2
	...
 450:	00000144 	andeq	r0, r0, r4, asr #2
 454:	00000148 	andeq	r0, r0, r8, asr #2
 458:	00000150 	andeq	r0, r0, r0, asr r1
 45c:	0000015c 	andeq	r0, r0, ip, asr r1
	...
