
tests/part2-test5.elf:     file format elf32-littlearm


Disassembly of section .text:

00008000 <__code_start__>:
    8000:	e3a00013 	mov	r0, #19, 0
    8004:	e3800080 	orr	r0, r0, #128, 0	; 0x80
    8008:	e129f000 	msr	CPSR_fc, r0
    800c:	e3a01000 	mov	r1, #0, 0
    8010:	ee071f95 	mcr	15, 0, r1, cr7, cr5, {4}
    8014:	e3a0d302 	mov	sp, #134217728	; 0x8000000
    8018:	e3a0b000 	mov	fp, #0, 0
    801c:	eb000598 	bl	9684 <_cstart>
    8020:	eb0005e1 	bl	97ac <rpi_reboot>

00008024 <PUT32>:
    8024:	e5801000 	str	r1, [r0]
    8028:	e12fff1e 	bx	lr

0000802c <GET32>:
    802c:	e5900000 	ldr	r0, [r0]
    8030:	e12fff1e 	bx	lr

00008034 <BRANCHTO>:
    8034:	e12fff10 	bx	r0

00008038 <test>:
    8038:	e92d4070 	push	{r4, r5, r6, lr}
    803c:	e24dd018 	sub	sp, sp, #24, 0
    8040:	e3a06000 	mov	r6, #0, 0
    8044:	e1a05006 	mov	r5, r6
    8048:	ea000009 	b	8074 <test+0x3c>
    804c:	e59f3098 	ldr	r3, [pc, #152]	; 80ec <test+0xb4>
    8050:	e58d3000 	str	r3, [sp]
    8054:	e3a03014 	mov	r3, #20, 0
    8058:	e59f2090 	ldr	r2, [pc, #144]	; 80f0 <test+0xb8>
    805c:	e59f1090 	ldr	r1, [pc, #144]	; 80f4 <test+0xbc>
    8060:	e59f0090 	ldr	r0, [pc, #144]	; 80f8 <test+0xc0>
    8064:	eb0002ea 	bl	8c14 <printk>
    8068:	eb00057a 	bl	9658 <clean_reboot>
    806c:	e2866001 	add	r6, r6, #1, 0
    8070:	e1a05004 	mov	r5, r4
    8074:	e3560009 	cmp	r6, #9, 0
    8078:	ca000017 	bgt	80dc <test+0xa4>
    807c:	e59f3070 	ldr	r3, [pc, #112]	; 80f4 <test+0xbc>
    8080:	e58d300c 	str	r3, [sp, #12]
    8084:	e59f3064 	ldr	r3, [pc, #100]	; 80f0 <test+0xb8>
    8088:	e58d3010 	str	r3, [sp, #16]
    808c:	e3a03010 	mov	r3, #16, 0
    8090:	e58d3014 	str	r3, [sp, #20]
    8094:	e28d3018 	add	r3, sp, #24, 0
    8098:	e913000e 	ldmdb	r3, {r1, r2, r3}
    809c:	e3a0000c 	mov	r0, #12, 0
    80a0:	eb0000bb 	bl	8394 <ckalloc>
    80a4:	e1a04000 	mov	r4, r0
    80a8:	e3a0200c 	mov	r2, #12, 0
    80ac:	e3a01000 	mov	r1, #0, 0
    80b0:	eb0002b9 	bl	8b9c <memset>
    80b4:	e3a03000 	mov	r3, #0, 0
    80b8:	e5843000 	str	r3, [r4]
    80bc:	e1550003 	cmp	r5, r3
    80c0:	0affffe9 	beq	806c <test+0x34>
    80c4:	e5953008 	ldr	r3, [r5, #8]
    80c8:	e3530000 	cmp	r3, #0, 0
    80cc:	1affffde 	bne	804c <test+0x14>
    80d0:	e5854008 	str	r4, [r5, #8]
    80d4:	e5845004 	str	r5, [r4, #4]
    80d8:	eaffffe3 	b	806c <test+0x34>
    80dc:	eb000277 	bl	8ac0 <check_no_leak>
    80e0:	e1a00005 	mov	r0, r5
    80e4:	e28dd018 	add	sp, sp, #24, 0
    80e8:	e8bd8070 	pop	{r4, r5, r6, pc}
    80ec:	0000a198 	muleq	r0, r8, r1
    80f0:	0000a1f0 	strdeq	sl, [r0], -r0
    80f4:	0000a170 	andeq	sl, r0, r0, ror r1
    80f8:	0000a184 	andeq	sl, r0, r4, lsl #3

000080fc <bar>:
    80fc:	e92d4010 	push	{r4, lr}
    8100:	ebffffcc 	bl	8038 <test>
    8104:	e8bd8010 	pop	{r4, pc}

00008108 <notmain>:
    8108:	e92d4010 	push	{r4, lr}
    810c:	e59f0020 	ldr	r0, [pc, #32]	; 8134 <notmain+0x2c>
    8110:	eb0002bf 	bl	8c14 <printk>
    8114:	ebfffff8 	bl	80fc <bar>
    8118:	eb00027a 	bl	8b08 <check_should_leak>
    811c:	eb00028d 	bl	8b58 <ck_gc>
    8120:	e1a01000 	mov	r1, r0
    8124:	e59f000c 	ldr	r0, [pc, #12]	; 8138 <notmain+0x30>
    8128:	eb0002b9 	bl	8c14 <printk>
    812c:	eb000263 	bl	8ac0 <check_no_leak>
    8130:	e8bd8010 	pop	{r4, pc}
    8134:	0000a1a4 	andeq	sl, r0, r4, lsr #3
    8138:	0000a1e0 	andeq	sl, r0, r0, ror #3

0000813c <ck_first_hdr>:
    813c:	e59f3004 	ldr	r3, [pc, #4]	; 8148 <ck_first_hdr+0xc>
    8140:	e5930000 	ldr	r0, [r3]
    8144:	e12fff1e 	bx	lr
    8148:	0000a9c8 	andeq	sl, r0, r8, asr #19

0000814c <ck_next_hdr>:
    814c:	e3500000 	cmp	r0, #0, 0
    8150:	012fff1e 	bxeq	lr
    8154:	e5900000 	ldr	r0, [r0]
    8158:	e12fff1e 	bx	lr

0000815c <list_remove>:
    815c:	e92d4030 	push	{r4, r5, lr}
    8160:	e24dd00c 	sub	sp, sp, #12, 0
    8164:	e2503000 	subs	r3, r0, #0, 0
    8168:	0a00000d 	beq	81a4 <list_remove+0x48>
    816c:	e1a04001 	mov	r4, r1
    8170:	e5930000 	ldr	r0, [r3]
    8174:	e1500001 	cmp	r0, r1
    8178:	0a000011 	beq	81c4 <list_remove+0x68>
    817c:	e1a05000 	mov	r5, r0
    8180:	ebfffff1 	bl	814c <ck_next_hdr>
    8184:	e3500000 	cmp	r0, #0, 0
    8188:	0a000010 	beq	81d0 <list_remove+0x74>
    818c:	e1540000 	cmp	r4, r0
    8190:	1afffff9 	bne	817c <list_remove+0x20>
    8194:	e5903000 	ldr	r3, [r0]
    8198:	e5853000 	str	r3, [r5]
    819c:	e28dd00c 	add	sp, sp, #12, 0
    81a0:	e8bd8030 	pop	{r4, r5, pc}
    81a4:	e59f3040 	ldr	r3, [pc, #64]	; 81ec <list_remove+0x90>
    81a8:	e58d3000 	str	r3, [sp]
    81ac:	e3a0303c 	mov	r3, #60, 0	; 0x3c
    81b0:	e59f2038 	ldr	r2, [pc, #56]	; 81f0 <list_remove+0x94>
    81b4:	e59f1038 	ldr	r1, [pc, #56]	; 81f4 <list_remove+0x98>
    81b8:	e59f0038 	ldr	r0, [pc, #56]	; 81f8 <list_remove+0x9c>
    81bc:	eb000294 	bl	8c14 <printk>
    81c0:	eb000524 	bl	9658 <clean_reboot>
    81c4:	e5912000 	ldr	r2, [r1]
    81c8:	e5832000 	str	r2, [r3]
    81cc:	eafffff2 	b	819c <list_remove+0x40>
    81d0:	e58d4000 	str	r4, [sp]
    81d4:	e3a0304f 	mov	r3, #79, 0	; 0x4f
    81d8:	e59f2010 	ldr	r2, [pc, #16]	; 81f0 <list_remove+0x94>
    81dc:	e59f1010 	ldr	r1, [pc, #16]	; 81f4 <list_remove+0x98>
    81e0:	e59f0014 	ldr	r0, [pc, #20]	; 81fc <list_remove+0xa0>
    81e4:	eb00028a 	bl	8c14 <printk>
    81e8:	eb00051a 	bl	9658 <clean_reboot>
    81ec:	0000a204 	andeq	sl, r0, r4, lsl #4
    81f0:	0000a2c8 	andeq	sl, r0, r8, asr #5
    81f4:	0000a1f8 	strdeq	sl, [r0], -r8
    81f8:	0000a184 	andeq	sl, r0, r4, lsl #3
    81fc:	0000a208 	andeq	sl, r0, r8, lsl #4

00008200 <ck_hdr_start>:
    8200:	e2800024 	add	r0, r0, #36, 0	; 0x24
    8204:	e12fff1e 	bx	lr

00008208 <ck_hdr_end>:
    8208:	e92d4010 	push	{r4, lr}
    820c:	e1a04000 	mov	r4, r0
    8210:	ebfffffa 	bl	8200 <ck_hdr_start>
    8214:	e5943004 	ldr	r3, [r4, #4]
    8218:	e0800003 	add	r0, r0, r3
    821c:	e8bd8010 	pop	{r4, pc}

00008220 <ck_ptr_in_block>:
    8220:	e92d4070 	push	{r4, r5, r6, lr}
    8224:	e1a06000 	mov	r6, r0
    8228:	e1a04001 	mov	r4, r1
    822c:	ebfffff3 	bl	8200 <ck_hdr_start>
    8230:	e1a05000 	mov	r5, r0
    8234:	e1a00006 	mov	r0, r6
    8238:	ebfffff2 	bl	8208 <ck_hdr_end>
    823c:	e1550004 	cmp	r5, r4
    8240:	91540000 	cmpls	r4, r0
    8244:	33a00001 	movcc	r0, #1, 0
    8248:	23a00000 	movcs	r0, #0, 0
    824c:	e8bd8070 	pop	{r4, r5, r6, pc}

00008250 <ck_ptr_is_alloced>:
    8250:	e92d4070 	push	{r4, r5, r6, lr}
    8254:	e1a05000 	mov	r5, r0
    8258:	ebffffb7 	bl	813c <ck_first_hdr>
    825c:	e1a04000 	mov	r4, r0
    8260:	e3540000 	cmp	r4, #0, 0
    8264:	0a00000c 	beq	829c <ck_ptr_is_alloced+0x4c>
    8268:	e1a01005 	mov	r1, r5
    826c:	e1a00004 	mov	r0, r4
    8270:	ebffffea 	bl	8220 <ck_ptr_in_block>
    8274:	e3500000 	cmp	r0, #0, 0
    8278:	1a000003 	bne	828c <ck_ptr_is_alloced+0x3c>
    827c:	e1a00004 	mov	r0, r4
    8280:	ebffffb1 	bl	814c <ck_next_hdr>
    8284:	e1a04000 	mov	r4, r0
    8288:	eafffff4 	b	8260 <ck_ptr_is_alloced+0x10>
    828c:	e1a02004 	mov	r2, r4
    8290:	e1a01005 	mov	r1, r5
    8294:	e59f0008 	ldr	r0, [pc, #8]	; 82a4 <ck_ptr_is_alloced+0x54>
    8298:	eb00025d 	bl	8c14 <printk>
    829c:	e1a00004 	mov	r0, r4
    82a0:	e8bd8070 	pop	{r4, r5, r6, pc}
    82a4:	0000a234 	andeq	sl, r0, r4, lsr r2

000082a8 <ckfree>:
    82a8:	e92d41f0 	push	{r4, r5, r6, r7, r8, lr}
    82ac:	e24dd018 	sub	sp, sp, #24, 0
    82b0:	e1a04000 	mov	r4, r0
    82b4:	e28d0018 	add	r0, sp, #24, 0
    82b8:	e900000e 	stmdb	r0, {r1, r2, r3}
    82bc:	e59d600c 	ldr	r6, [sp, #12]
    82c0:	e59d7010 	ldr	r7, [sp, #16]
    82c4:	e59d8014 	ldr	r8, [sp, #20]
    82c8:	e1a03008 	mov	r3, r8
    82cc:	e1a02007 	mov	r2, r7
    82d0:	e1a01006 	mov	r1, r6
    82d4:	e59f0094 	ldr	r0, [pc, #148]	; 8370 <ckfree+0xc8>
    82d8:	eb00024d 	bl	8c14 <printk>
    82dc:	e1a01004 	mov	r1, r4
    82e0:	e59f008c 	ldr	r0, [pc, #140]	; 8374 <ckfree+0xcc>
    82e4:	eb00024a 	bl	8c14 <printk>
    82e8:	e514301c 	ldr	r3, [r4, #-28]	; 0xffffffe4
    82ec:	e353000b 	cmp	r3, #11, 0
    82f0:	1a00000d 	bne	832c <ckfree+0x84>
    82f4:	e2445024 	sub	r5, r4, #36, 0	; 0x24
    82f8:	e3a0300c 	mov	r3, #12, 0
    82fc:	e504301c 	str	r3, [r4, #-28]	; 0xffffffe4
    8300:	e1a00004 	mov	r0, r4
    8304:	ebffffd1 	bl	8250 <ck_ptr_is_alloced>
    8308:	e3500000 	cmp	r0, #0, 0
    830c:	0a00000f 	beq	8350 <ckfree+0xa8>
    8310:	e1a01005 	mov	r1, r5
    8314:	e59f005c 	ldr	r0, [pc, #92]	; 8378 <ckfree+0xd0>
    8318:	ebffff8f 	bl	815c <list_remove>
    831c:	e1a00005 	mov	r0, r5
    8320:	eb00003f 	bl	8424 <kr_free>
    8324:	e28dd018 	add	sp, sp, #24, 0
    8328:	e8bd81f0 	pop	{r4, r5, r6, r7, r8, pc}
    832c:	e1a03008 	mov	r3, r8
    8330:	e1a02007 	mov	r2, r7
    8334:	e1a01006 	mov	r1, r6
    8338:	e59f003c 	ldr	r0, [pc, #60]	; 837c <ckfree+0xd4>
    833c:	eb000234 	bl	8c14 <printk>
    8340:	e514101c 	ldr	r1, [r4, #-28]	; 0xffffffe4
    8344:	e59f0034 	ldr	r0, [pc, #52]	; 8380 <ckfree+0xd8>
    8348:	eb000231 	bl	8c14 <printk>
    834c:	eb0004c1 	bl	9658 <clean_reboot>
    8350:	e59f302c 	ldr	r3, [pc, #44]	; 8384 <ckfree+0xdc>
    8354:	e58d3000 	str	r3, [sp]
    8358:	e3a0305d 	mov	r3, #93, 0	; 0x5d
    835c:	e59f2024 	ldr	r2, [pc, #36]	; 8388 <ckfree+0xe0>
    8360:	e59f1024 	ldr	r1, [pc, #36]	; 838c <ckfree+0xe4>
    8364:	e59f0024 	ldr	r0, [pc, #36]	; 8390 <ckfree+0xe8>
    8368:	eb000229 	bl	8c14 <printk>
    836c:	eb0004b9 	bl	9658 <clean_reboot>
    8370:	0000a244 	andeq	sl, r0, r4, asr #4
    8374:	0000a250 	andeq	sl, r0, r0, asr r2
    8378:	0000a9c8 	andeq	sl, r0, r8, asr #19
    837c:	0000a260 	andeq	sl, r0, r0, ror #4
    8380:	0000a278 	andeq	sl, r0, r8, ror r2
    8384:	0000a2a0 	andeq	sl, r0, r0, lsr #5
    8388:	0000a2d4 	ldrdeq	sl, [r0], -r4
    838c:	0000a1f8 	strdeq	sl, [r0], -r8
    8390:	0000a184 	andeq	sl, r0, r4, lsl #3

00008394 <ckalloc>:
    8394:	e92d4070 	push	{r4, r5, r6, lr}
    8398:	e24dd010 	sub	sp, sp, #16, 0
    839c:	e1a06000 	mov	r6, r0
    83a0:	e28d5004 	add	r5, sp, #4, 0
    83a4:	e885000e 	stm	r5, {r1, r2, r3}
    83a8:	e2800024 	add	r0, r0, #36, 0	; 0x24
    83ac:	eb00005c 	bl	8524 <kr_malloc>
    83b0:	e1a04000 	mov	r4, r0
    83b4:	e3a02024 	mov	r2, #36, 0	; 0x24
    83b8:	e3a01000 	mov	r1, #0, 0
    83bc:	eb0001f6 	bl	8b9c <memset>
    83c0:	e5846004 	str	r6, [r4, #4]
    83c4:	e3a0300b 	mov	r3, #11, 0
    83c8:	e5843008 	str	r3, [r4, #8]
    83cc:	e284300c 	add	r3, r4, #12, 0
    83d0:	e8950007 	ldm	r5, {r0, r1, r2}
    83d4:	e8830007 	stm	r3, {r0, r1, r2}
    83d8:	e59d300c 	ldr	r3, [sp, #12]
    83dc:	e59d2008 	ldr	r2, [sp, #8]
    83e0:	e59d1004 	ldr	r1, [sp, #4]
    83e4:	e59f002c 	ldr	r0, [pc, #44]	; 8418 <ckalloc+0x84>
    83e8:	eb000209 	bl	8c14 <printk>
    83ec:	e2845024 	add	r5, r4, #36, 0	; 0x24
    83f0:	e1a01005 	mov	r1, r5
    83f4:	e59f0020 	ldr	r0, [pc, #32]	; 841c <ckalloc+0x88>
    83f8:	eb000205 	bl	8c14 <printk>
    83fc:	e59f301c 	ldr	r3, [pc, #28]	; 8420 <ckalloc+0x8c>
    8400:	e5932000 	ldr	r2, [r3]
    8404:	e5842000 	str	r2, [r4]
    8408:	e5834000 	str	r4, [r3]
    840c:	e1a00005 	mov	r0, r5
    8410:	e28dd010 	add	sp, sp, #16, 0
    8414:	e8bd8070 	pop	{r4, r5, r6, pc}
    8418:	0000a244 	andeq	sl, r0, r4, asr #4
    841c:	0000a2b8 			; <UNDEFINED> instruction: 0x0000a2b8
    8420:	0000a9c8 	andeq	sl, r0, r8, asr #19

00008424 <kr_free>:
    8424:	e52de004 	push	{lr}		; (str lr, [sp, #-4]!)
    8428:	e2401008 	sub	r1, r0, #8, 0
    842c:	e59f30a8 	ldr	r3, [pc, #168]	; 84dc <kr_free+0xb8>
    8430:	e5933000 	ldr	r3, [r3]
    8434:	ea000000 	b	843c <kr_free+0x18>
    8438:	e1a03002 	mov	r3, r2
    843c:	e1530001 	cmp	r3, r1
    8440:	2a000002 	bcs	8450 <kr_free+0x2c>
    8444:	e5932000 	ldr	r2, [r3]
    8448:	e1520001 	cmp	r2, r1
    844c:	8a000007 	bhi	8470 <kr_free+0x4c>
    8450:	e5932000 	ldr	r2, [r3]
    8454:	e1520003 	cmp	r2, r3
    8458:	8afffff6 	bhi	8438 <kr_free+0x14>
    845c:	e1530001 	cmp	r3, r1
    8460:	3a000002 	bcc	8470 <kr_free+0x4c>
    8464:	e1520001 	cmp	r2, r1
    8468:	91a03002 	movls	r3, r2
    846c:	9afffff2 	bls	843c <kr_free+0x18>
    8470:	e510c004 	ldr	ip, [r0, #-4]
    8474:	e081e18c 	add	lr, r1, ip, lsl #3
    8478:	e5932000 	ldr	r2, [r3]
    847c:	e15e0002 	cmp	lr, r2
    8480:	0a000008 	beq	84a8 <kr_free+0x84>
    8484:	e5002008 	str	r2, [r0, #-8]
    8488:	e5932004 	ldr	r2, [r3, #4]
    848c:	e083c182 	add	ip, r3, r2, lsl #3
    8490:	e15c0001 	cmp	ip, r1
    8494:	0a00000a 	beq	84c4 <kr_free+0xa0>
    8498:	e5831000 	str	r1, [r3]
    849c:	e59f2038 	ldr	r2, [pc, #56]	; 84dc <kr_free+0xb8>
    84a0:	e5823000 	str	r3, [r2]
    84a4:	e49df004 	pop	{pc}		; (ldr pc, [sp], #4)
    84a8:	e5922004 	ldr	r2, [r2, #4]
    84ac:	e08cc002 	add	ip, ip, r2
    84b0:	e500c004 	str	ip, [r0, #-4]
    84b4:	e5932000 	ldr	r2, [r3]
    84b8:	e5922000 	ldr	r2, [r2]
    84bc:	e5002008 	str	r2, [r0, #-8]
    84c0:	eafffff0 	b	8488 <kr_free+0x64>
    84c4:	e5101004 	ldr	r1, [r0, #-4]
    84c8:	e0822001 	add	r2, r2, r1
    84cc:	e5832004 	str	r2, [r3, #4]
    84d0:	e5102008 	ldr	r2, [r0, #-8]
    84d4:	e5832000 	str	r2, [r3]
    84d8:	eaffffef 	b	849c <kr_free+0x78>
    84dc:	0000a9d0 	ldrdeq	sl, [r0], -r0

000084e0 <morecore>:
    84e0:	e92d4010 	push	{r4, lr}
    84e4:	e1a04000 	mov	r4, r0
    84e8:	e3500b01 	cmp	r0, #1024	; 0x400
    84ec:	33a04b01 	movcc	r4, #1024	; 0x400
    84f0:	e1a00184 	lsl	r0, r4, #3
    84f4:	eb000145 	bl	8a10 <sbrk>
    84f8:	e3700001 	cmn	r0, #1, 0
    84fc:	0a000005 	beq	8518 <morecore+0x38>
    8500:	e5804004 	str	r4, [r0, #4]
    8504:	e2800008 	add	r0, r0, #8, 0
    8508:	ebffffc5 	bl	8424 <kr_free>
    850c:	e59f300c 	ldr	r3, [pc, #12]	; 8520 <morecore+0x40>
    8510:	e5930000 	ldr	r0, [r3]
    8514:	e8bd8010 	pop	{r4, pc}
    8518:	e3a00000 	mov	r0, #0, 0
    851c:	e8bd8010 	pop	{r4, pc}
    8520:	0000a9d0 	ldrdeq	sl, [r0], -r0

00008524 <kr_malloc>:
    8524:	e92d4010 	push	{r4, lr}
    8528:	e2804007 	add	r4, r0, #7, 0
    852c:	e1a041a4 	lsr	r4, r4, #3
    8530:	e2844001 	add	r4, r4, #1, 0
    8534:	e59f3090 	ldr	r3, [pc, #144]	; 85cc <kr_malloc+0xa8>
    8538:	e5932000 	ldr	r2, [r3]
    853c:	e3520000 	cmp	r2, #0, 0
    8540:	0a000001 	beq	854c <kr_malloc+0x28>
    8544:	e5920000 	ldr	r0, [r2]
    8548:	ea000013 	b	859c <kr_malloc+0x78>
    854c:	e2832008 	add	r2, r3, #8, 0
    8550:	e5832000 	str	r2, [r3]
    8554:	e5832008 	str	r2, [r3, #8]
    8558:	e3a01000 	mov	r1, #0, 0
    855c:	e583100c 	str	r1, [r3, #12]
    8560:	eafffff7 	b	8544 <kr_malloc+0x20>
    8564:	0a000007 	beq	8588 <kr_malloc+0x64>
    8568:	e0433004 	sub	r3, r3, r4
    856c:	e5803004 	str	r3, [r0, #4]
    8570:	e0800183 	add	r0, r0, r3, lsl #3
    8574:	e5804004 	str	r4, [r0, #4]
    8578:	e59f304c 	ldr	r3, [pc, #76]	; 85cc <kr_malloc+0xa8>
    857c:	e5832000 	str	r2, [r3]
    8580:	e2800008 	add	r0, r0, #8, 0
    8584:	e8bd8010 	pop	{r4, pc}
    8588:	e5903000 	ldr	r3, [r0]
    858c:	e5823000 	str	r3, [r2]
    8590:	eafffff8 	b	8578 <kr_malloc+0x54>
    8594:	e1a02000 	mov	r2, r0
    8598:	e5900000 	ldr	r0, [r0]
    859c:	e5903004 	ldr	r3, [r0, #4]
    85a0:	e1530004 	cmp	r3, r4
    85a4:	2affffee 	bcs	8564 <kr_malloc+0x40>
    85a8:	e59f301c 	ldr	r3, [pc, #28]	; 85cc <kr_malloc+0xa8>
    85ac:	e5933000 	ldr	r3, [r3]
    85b0:	e1530000 	cmp	r3, r0
    85b4:	1afffff6 	bne	8594 <kr_malloc+0x70>
    85b8:	e1a00004 	mov	r0, r4
    85bc:	ebffffc7 	bl	84e0 <morecore>
    85c0:	e3500000 	cmp	r0, #0, 0
    85c4:	1afffff2 	bne	8594 <kr_malloc+0x70>
    85c8:	e8bd8010 	pop	{r4, pc}
    85cc:	0000a9d0 	ldrdeq	sl, [r0], -r0

000085d0 <in_heap>:
    85d0:	e59f3030 	ldr	r3, [pc, #48]	; 8608 <in_heap+0x38>
    85d4:	e5933000 	ldr	r3, [r3]
    85d8:	e1530000 	cmp	r3, r0
    85dc:	8a000005 	bhi	85f8 <in_heap+0x28>
    85e0:	e59f3020 	ldr	r3, [pc, #32]	; 8608 <in_heap+0x38>
    85e4:	e5933004 	ldr	r3, [r3, #4]
    85e8:	e1530000 	cmp	r3, r0
    85ec:	9a000003 	bls	8600 <in_heap+0x30>
    85f0:	e3a00001 	mov	r0, #1, 0
    85f4:	e12fff1e 	bx	lr
    85f8:	e3a00000 	mov	r0, #0, 0
    85fc:	e12fff1e 	bx	lr
    8600:	e3a00000 	mov	r0, #0, 0
    8604:	e12fff1e 	bx	lr
    8608:	0000a9e0 	andeq	sl, r0, r0, ror #19

0000860c <is_ptr>:
    860c:	e92d4010 	push	{r4, lr}
    8610:	e1a04000 	mov	r4, r0
    8614:	ebffffed 	bl	85d0 <in_heap>
    8618:	e3500000 	cmp	r0, #0, 0
    861c:	0a000002 	beq	862c <is_ptr+0x20>
    8620:	e1a00004 	mov	r0, r4
    8624:	ebffff09 	bl	8250 <ck_ptr_is_alloced>
    8628:	e8bd8010 	pop	{r4, pc}
    862c:	e3a00000 	mov	r0, #0, 0
    8630:	e8bd8010 	pop	{r4, pc}

00008634 <mark>:
    8634:	e92d41f0 	push	{r4, r5, r6, r7, r8, lr}
    8638:	e24dd008 	sub	sp, sp, #8, 0
    863c:	e1500001 	cmp	r0, r1
    8640:	2a00000d 	bcs	867c <mark+0x48>
    8644:	e1a04000 	mov	r4, r0
    8648:	e1a06001 	mov	r6, r1
    864c:	e3100003 	tst	r0, #3, 0
    8650:	1a000011 	bne	869c <mark+0x68>
    8654:	e3110003 	tst	r1, #3, 0
    8658:	0a00001f 	beq	86dc <mark+0xa8>
    865c:	e59f3114 	ldr	r3, [pc, #276]	; 8778 <mark+0x144>
    8660:	e58d3000 	str	r3, [sp]
    8664:	e3a03056 	mov	r3, #86, 0	; 0x56
    8668:	e59f210c 	ldr	r2, [pc, #268]	; 877c <mark+0x148>
    866c:	e59f110c 	ldr	r1, [pc, #268]	; 8780 <mark+0x14c>
    8670:	e59f010c 	ldr	r0, [pc, #268]	; 8784 <mark+0x150>
    8674:	eb000166 	bl	8c14 <printk>
    8678:	eb0003f6 	bl	9658 <clean_reboot>
    867c:	e59f3104 	ldr	r3, [pc, #260]	; 8788 <mark+0x154>
    8680:	e58d3000 	str	r3, [sp]
    8684:	e3a03052 	mov	r3, #82, 0	; 0x52
    8688:	e59f20ec 	ldr	r2, [pc, #236]	; 877c <mark+0x148>
    868c:	e59f10ec 	ldr	r1, [pc, #236]	; 8780 <mark+0x14c>
    8690:	e59f00ec 	ldr	r0, [pc, #236]	; 8784 <mark+0x150>
    8694:	eb00015e 	bl	8c14 <printk>
    8698:	eb0003ee 	bl	9658 <clean_reboot>
    869c:	e59f30e8 	ldr	r3, [pc, #232]	; 878c <mark+0x158>
    86a0:	e58d3000 	str	r3, [sp]
    86a4:	e3a03055 	mov	r3, #85, 0	; 0x55
    86a8:	e59f20cc 	ldr	r2, [pc, #204]	; 877c <mark+0x148>
    86ac:	e59f10cc 	ldr	r1, [pc, #204]	; 8780 <mark+0x14c>
    86b0:	e59f00cc 	ldr	r0, [pc, #204]	; 8784 <mark+0x150>
    86b4:	eb000156 	bl	8c14 <printk>
    86b8:	eb0003e6 	bl	9658 <clean_reboot>
    86bc:	e3a03002 	mov	r3, #2, 0
    86c0:	ea00001b 	b	8734 <mark+0x100>
    86c4:	e3a01002 	mov	r1, #2, 0
    86c8:	e59f00c0 	ldr	r0, [pc, #192]	; 8790 <mark+0x15c>
    86cc:	eb000150 	bl	8c14 <printk>
    86d0:	e3580000 	cmp	r8, #0, 0
    86d4:	0a00001c 	beq	874c <mark+0x118>
    86d8:	e2844004 	add	r4, r4, #4, 0
    86dc:	e1540006 	cmp	r4, r6
    86e0:	8a000022 	bhi	8770 <mark+0x13c>
    86e4:	e5940000 	ldr	r0, [r4]
    86e8:	ebffffc7 	bl	860c <is_ptr>
    86ec:	e2505000 	subs	r5, r0, #0, 0
    86f0:	0afffff8 	beq	86d8 <mark+0xa4>
    86f4:	e2857024 	add	r7, r5, #36, 0	; 0x24
    86f8:	e1d582b0 	ldrh	r8, [r5, #32]
    86fc:	e1a00005 	mov	r0, r5
    8700:	ebfffebe 	bl	8200 <ck_hdr_start>
    8704:	e1a01000 	mov	r1, r0
    8708:	e58d7000 	str	r7, [sp]
    870c:	e5943000 	ldr	r3, [r4]
    8710:	e1a02004 	mov	r2, r4
    8714:	e59f0078 	ldr	r0, [pc, #120]	; 8794 <mark+0x160>
    8718:	eb00013d 	bl	8c14 <printk>
    871c:	e3580001 	cmp	r8, #1, 0
    8720:	8a00000f 	bhi	8764 <mark+0x130>
    8724:	e5943000 	ldr	r3, [r4]
    8728:	e1530007 	cmp	r3, r7
    872c:	0affffe2 	beq	86bc <mark+0x88>
    8730:	e3a03001 	mov	r3, #1, 0
    8734:	e1c532b0 	strh	r3, [r5, #32]
    8738:	e5943000 	ldr	r3, [r4]
    873c:	e1530007 	cmp	r3, r7
    8740:	0affffdf 	beq	86c4 <mark+0x90>
    8744:	e3a01001 	mov	r1, #1, 0
    8748:	eaffffde 	b	86c8 <mark+0x94>
    874c:	e5951004 	ldr	r1, [r5, #4]
    8750:	e2811024 	add	r1, r1, #36, 0	; 0x24
    8754:	e0851001 	add	r1, r5, r1
    8758:	e2850004 	add	r0, r5, #4, 0
    875c:	ebffffb4 	bl	8634 <mark>
    8760:	eaffffdc 	b	86d8 <mark+0xa4>
    8764:	e59f002c 	ldr	r0, [pc, #44]	; 8798 <mark+0x164>
    8768:	eb000129 	bl	8c14 <printk>
    876c:	eaffffd9 	b	86d8 <mark+0xa4>
    8770:	e28dd008 	add	sp, sp, #8, 0
    8774:	e8bd81f0 	pop	{r4, r5, r6, r7, r8, pc}
    8778:	0000a2fc 	strdeq	sl, [r0], -ip
    877c:	0000a5f4 	strdeq	sl, [r0], -r4
    8780:	0000a2dc 	ldrdeq	sl, [r0], -ip
    8784:	0000a184 	andeq	sl, r0, r4, lsl #3
    8788:	0000a2e4 	andeq	sl, r0, r4, ror #5
    878c:	0000a2ec 	andeq	sl, r0, ip, ror #5
    8790:	0000a338 	andeq	sl, r0, r8, lsr r3
    8794:	0000a30c 	andeq	sl, r0, ip, lsl #6
    8798:	0000a348 	andeq	sl, r0, r8, asr #6

0000879c <mark_all>:
    879c:	e52de004 	push	{lr}		; (str lr, [sp, #-4]!)
    87a0:	e24dd044 	sub	sp, sp, #68, 0	; 0x44
    87a4:	ebfffe64 	bl	813c <ck_first_hdr>
    87a8:	e3500000 	cmp	r0, #0, 0
    87ac:	0a000005 	beq	87c8 <mark_all+0x2c>
    87b0:	e3a03000 	mov	r3, #0, 0
    87b4:	e580301c 	str	r3, [r0, #28]
    87b8:	e5803018 	str	r3, [r0, #24]
    87bc:	e1c032b0 	strh	r3, [r0, #32]
    87c0:	ebfffe61 	bl	814c <ck_next_hdr>
    87c4:	eafffff7 	b	87a8 <mark_all+0xc>
    87c8:	e1a0000d 	mov	r0, sp
    87cc:	eb0000f0 	bl	8b94 <dump_regs>
    87d0:	e3a03000 	mov	r3, #0, 0
    87d4:	e58d3000 	str	r3, [sp]
    87d8:	e58d3004 	str	r3, [sp, #4]
    87dc:	e58d3008 	str	r3, [sp, #8]
    87e0:	e58d300c 	str	r3, [sp, #12]
    87e4:	e28d1038 	add	r1, sp, #56, 0	; 0x38
    87e8:	e1a0000d 	mov	r0, sp
    87ec:	ebffff90 	bl	8634 <mark>
    87f0:	e3a02302 	mov	r2, #134217728	; 0x8000000
    87f4:	e59d1034 	ldr	r1, [sp, #52]	; 0x34
    87f8:	e59f002c 	ldr	r0, [pc, #44]	; 882c <mark_all+0x90>
    87fc:	eb000104 	bl	8c14 <printk>
    8800:	e3a01302 	mov	r1, #134217728	; 0x8000000
    8804:	e59d0034 	ldr	r0, [sp, #52]	; 0x34
    8808:	ebffff89 	bl	8634 <mark>
    880c:	e59f101c 	ldr	r1, [pc, #28]	; 8830 <mark_all+0x94>
    8810:	e59f001c 	ldr	r0, [pc, #28]	; 8834 <mark_all+0x98>
    8814:	ebffff86 	bl	8634 <mark>
    8818:	e59f1018 	ldr	r1, [pc, #24]	; 8838 <mark_all+0x9c>
    881c:	e59f0018 	ldr	r0, [pc, #24]	; 883c <mark_all+0xa0>
    8820:	ebffff83 	bl	8634 <mark>
    8824:	e28dd044 	add	sp, sp, #68, 0	; 0x44
    8828:	e49df004 	pop	{pc}		; (ldr pc, [sp], #4)
    882c:	0000a358 	andeq	sl, r0, r8, asr r3
    8830:	0000adf0 	strdeq	sl, [r0], -r0
    8834:	0000a9c8 	andeq	sl, r0, r8, asr #19
    8838:	0000a9c4 	andeq	sl, r0, r4, asr #19
    883c:	0000a9b0 			; <UNDEFINED> instruction: 0x0000a9b0

00008840 <sweep_leak>:
    8840:	e92d41f0 	push	{r4, r5, r6, r7, r8, lr}
    8844:	e1a08000 	mov	r8, r0
    8848:	e59f00c4 	ldr	r0, [pc, #196]	; 8914 <sweep_leak+0xd4>
    884c:	eb0000f0 	bl	8c14 <printk>
    8850:	e59f00c0 	ldr	r0, [pc, #192]	; 8918 <sweep_leak+0xd8>
    8854:	eb0000ee 	bl	8c14 <printk>
    8858:	ebffffcf 	bl	879c <mark_all>
    885c:	ebfffe36 	bl	813c <ck_first_hdr>
    8860:	e1a04000 	mov	r4, r0
    8864:	e3a07000 	mov	r7, #0, 0
    8868:	e1a06007 	mov	r6, r7
    886c:	e1a05007 	mov	r5, r7
    8870:	ea000007 	b	8894 <sweep_leak+0x54>
    8874:	e2866001 	add	r6, r6, #1, 0
    8878:	e1a02004 	mov	r2, r4
    887c:	e1a01005 	mov	r1, r5
    8880:	e59f0094 	ldr	r0, [pc, #148]	; 891c <sweep_leak+0xdc>
    8884:	eb0000e2 	bl	8c14 <printk>
    8888:	e1a00004 	mov	r0, r4
    888c:	ebfffe2e 	bl	814c <ck_next_hdr>
    8890:	e1a04000 	mov	r4, r0
    8894:	e3540000 	cmp	r4, #0, 0
    8898:	0a00000b 	beq	88cc <sweep_leak+0x8c>
    889c:	e2855001 	add	r5, r5, #1, 0
    88a0:	e1d432b0 	ldrh	r3, [r4, #32]
    88a4:	e3530000 	cmp	r3, #0, 0
    88a8:	0afffff1 	beq	8874 <sweep_leak+0x34>
    88ac:	e3530001 	cmp	r3, #1, 0
    88b0:	1afffff4 	bne	8888 <sweep_leak+0x48>
    88b4:	e2877001 	add	r7, r7, #1, 0
    88b8:	e1a02004 	mov	r2, r4
    88bc:	e1a01005 	mov	r1, r5
    88c0:	e59f0058 	ldr	r0, [pc, #88]	; 8920 <sweep_leak+0xe0>
    88c4:	eb0000d2 	bl	8c14 <printk>
    88c8:	eaffffee 	b	8888 <sweep_leak+0x48>
    88cc:	e1a01005 	mov	r1, r5
    88d0:	e59f004c 	ldr	r0, [pc, #76]	; 8924 <sweep_leak+0xe4>
    88d4:	eb0000ce 	bl	8c14 <printk>
    88d8:	e1963007 	orrs	r3, r6, r7
    88dc:	1a000007 	bne	8900 <sweep_leak+0xc0>
    88e0:	e59f0040 	ldr	r0, [pc, #64]	; 8928 <sweep_leak+0xe8>
    88e4:	eb0000ca 	bl	8c14 <printk>
    88e8:	e59f003c 	ldr	r0, [pc, #60]	; 892c <sweep_leak+0xec>
    88ec:	eb0000c8 	bl	8c14 <printk>
    88f0:	e3580000 	cmp	r8, #0, 0
    88f4:	10866007 	addne	r6, r6, r7
    88f8:	e1a00006 	mov	r0, r6
    88fc:	e8bd81f0 	pop	{r4, r5, r6, r7, r8, pc}
    8900:	e1a02007 	mov	r2, r7
    8904:	e1a01006 	mov	r1, r6
    8908:	e59f0020 	ldr	r0, [pc, #32]	; 8930 <sweep_leak+0xf0>
    890c:	eb0000c0 	bl	8c14 <printk>
    8910:	eafffff4 	b	88e8 <sweep_leak+0xa8>
    8914:	0000a374 	andeq	sl, r0, r4, ror r3
    8918:	0000a3b0 			; <UNDEFINED> instruction: 0x0000a3b0
    891c:	0000a3c8 	andeq	sl, r0, r8, asr #7
    8920:	0000a3dc 	ldrdeq	sl, [r0], -ip
    8924:	0000a3f4 	strdeq	sl, [r0], -r4
    8928:	0000a414 	andeq	sl, r0, r4, lsl r4
    892c:	0000a46c 	andeq	sl, r0, ip, ror #8
    8930:	0000a43c 	andeq	sl, r0, ip, lsr r4

00008934 <sweep_free>:
    8934:	e92d41f0 	push	{r4, r5, r6, r7, r8, lr}
    8938:	e24dd010 	sub	sp, sp, #16, 0
    893c:	e59f00b0 	ldr	r0, [pc, #176]	; 89f4 <sweep_free+0xc0>
    8940:	eb0000b3 	bl	8c14 <printk>
    8944:	e59f00ac 	ldr	r0, [pc, #172]	; 89f8 <sweep_free+0xc4>
    8948:	eb0000b1 	bl	8c14 <printk>
    894c:	ebffff92 	bl	879c <mark_all>
    8950:	ebfffdf9 	bl	813c <ck_first_hdr>
    8954:	e1a04000 	mov	r4, r0
    8958:	e3a07000 	mov	r7, #0, 0
    895c:	e1a08007 	mov	r8, r7
    8960:	e1a05007 	mov	r5, r7
    8964:	ea000013 	b	89b8 <sweep_free+0x84>
    8968:	e2888001 	add	r8, r8, #1, 0
    896c:	e5943004 	ldr	r3, [r4, #4]
    8970:	e0877003 	add	r7, r7, r3
    8974:	e2846024 	add	r6, r4, #36, 0	; 0x24
    8978:	e59f307c 	ldr	r3, [pc, #124]	; 89fc <sweep_free+0xc8>
    897c:	e58d3004 	str	r3, [sp, #4]
    8980:	e59f3078 	ldr	r3, [pc, #120]	; 8a00 <sweep_free+0xcc>
    8984:	e58d3008 	str	r3, [sp, #8]
    8988:	e59f3074 	ldr	r3, [pc, #116]	; 8a04 <sweep_free+0xd0>
    898c:	e58d300c 	str	r3, [sp, #12]
    8990:	e28d3010 	add	r3, sp, #16, 0
    8994:	e913000e 	ldmdb	r3, {r1, r2, r3}
    8998:	e1a00006 	mov	r0, r6
    899c:	ebfffe41 	bl	82a8 <ckfree>
    89a0:	e1a01006 	mov	r1, r6
    89a4:	e59f005c 	ldr	r0, [pc, #92]	; 8a08 <sweep_free+0xd4>
    89a8:	eb000099 	bl	8c14 <printk>
    89ac:	e1a00004 	mov	r0, r4
    89b0:	ebfffde5 	bl	814c <ck_next_hdr>
    89b4:	e1a04000 	mov	r4, r0
    89b8:	e3540000 	cmp	r4, #0, 0
    89bc:	0a000004 	beq	89d4 <sweep_free+0xa0>
    89c0:	e2855001 	add	r5, r5, #1, 0
    89c4:	e1d432b0 	ldrh	r3, [r4, #32]
    89c8:	e3530000 	cmp	r3, #0, 0
    89cc:	1afffff6 	bne	89ac <sweep_free+0x78>
    89d0:	eaffffe4 	b	8968 <sweep_free+0x34>
    89d4:	e1a03007 	mov	r3, r7
    89d8:	e1a02008 	mov	r2, r8
    89dc:	e1a01005 	mov	r1, r5
    89e0:	e59f0024 	ldr	r0, [pc, #36]	; 8a0c <sweep_free+0xd8>
    89e4:	eb00008a 	bl	8c14 <printk>
    89e8:	e1a00007 	mov	r0, r7
    89ec:	e28dd010 	add	sp, sp, #16, 0
    89f0:	e8bd81f0 	pop	{r4, r5, r6, r7, r8, pc}
    89f4:	0000a374 	andeq	sl, r0, r4, ror r3
    89f8:	0000a4a8 	andeq	sl, r0, r8, lsr #9
    89fc:	0000a2dc 	ldrdeq	sl, [r0], -ip
    8a00:	0000a5fc 	strdeq	sl, [r0], -ip
    8a04:	00000101 	andeq	r0, r0, r1, lsl #2
    8a08:	0000a4b8 			; <UNDEFINED> instruction: 0x0000a4b8
    8a0c:	0000a4c8 	andeq	sl, r0, r8, asr #9

00008a10 <sbrk>:
    8a10:	e92d4030 	push	{r4, r5, lr}
    8a14:	e24dd00c 	sub	sp, sp, #12, 0
    8a18:	e2504000 	subs	r4, r0, #0, 0
    8a1c:	da000010 	ble	8a64 <sbrk+0x54>
    8a20:	e59f3074 	ldr	r3, [pc, #116]	; 8a9c <sbrk+0x8c>
    8a24:	e5933008 	ldr	r3, [r3, #8]
    8a28:	e3530000 	cmp	r3, #0, 0
    8a2c:	1a000014 	bne	8a84 <sbrk+0x74>
    8a30:	e59f5064 	ldr	r5, [pc, #100]	; 8a9c <sbrk+0x8c>
    8a34:	e3a00601 	mov	r0, #1048576	; 0x100000
    8a38:	e5850000 	str	r0, [r5]
    8a3c:	e3a03602 	mov	r3, #2097152	; 0x200000
    8a40:	e5853004 	str	r3, [r5, #4]
    8a44:	e1a01000 	mov	r1, r0
    8a48:	eb00043e 	bl	9b48 <kmalloc_init_set_start>
    8a4c:	e3a03001 	mov	r3, #1, 0
    8a50:	e5853008 	str	r3, [r5, #8]
    8a54:	e1a00004 	mov	r0, r4
    8a58:	eb00049d 	bl	9cd4 <kmalloc>
    8a5c:	e28dd00c 	add	sp, sp, #12, 0
    8a60:	e8bd8030 	pop	{r4, r5, pc}
    8a64:	e59f3034 	ldr	r3, [pc, #52]	; 8aa0 <sbrk+0x90>
    8a68:	e58d3000 	str	r3, [sp]
    8a6c:	e3a03017 	mov	r3, #23, 0
    8a70:	e59f202c 	ldr	r2, [pc, #44]	; 8aa4 <sbrk+0x94>
    8a74:	e59f102c 	ldr	r1, [pc, #44]	; 8aa8 <sbrk+0x98>
    8a78:	e59f002c 	ldr	r0, [pc, #44]	; 8aac <sbrk+0x9c>
    8a7c:	eb000064 	bl	8c14 <printk>
    8a80:	eb0002f4 	bl	9658 <clean_reboot>
    8a84:	e3a03019 	mov	r3, #25, 0
    8a88:	e59f2014 	ldr	r2, [pc, #20]	; 8aa4 <sbrk+0x94>
    8a8c:	e59f1014 	ldr	r1, [pc, #20]	; 8aa8 <sbrk+0x98>
    8a90:	e59f0018 	ldr	r0, [pc, #24]	; 8ab0 <sbrk+0xa0>
    8a94:	eb00005e 	bl	8c14 <printk>
    8a98:	eb0002ee 	bl	9658 <clean_reboot>
    8a9c:	0000a9e0 	andeq	sl, r0, r0, ror #19
    8aa0:	0000a4fc 	strdeq	sl, [r0], -ip
    8aa4:	0000a608 	andeq	sl, r0, r8, lsl #12
    8aa8:	0000a2dc 	ldrdeq	sl, [r0], -ip
    8aac:	0000a184 	andeq	sl, r0, r4, lsl #3
    8ab0:	0000a50c 	andeq	sl, r0, ip, lsl #10

00008ab4 <ck_find_leaks>:
    8ab4:	e92d4010 	push	{r4, lr}
    8ab8:	ebffff60 	bl	8840 <sweep_leak>
    8abc:	e8bd8010 	pop	{r4, pc}

00008ac0 <check_no_leak>:
    8ac0:	e92d4010 	push	{r4, lr}
    8ac4:	e3a00001 	mov	r0, #1, 0
    8ac8:	ebfffff9 	bl	8ab4 <ck_find_leaks>
    8acc:	e3500000 	cmp	r0, #0, 0
    8ad0:	1a000002 	bne	8ae0 <check_no_leak+0x20>
    8ad4:	e59f001c 	ldr	r0, [pc, #28]	; 8af8 <check_no_leak+0x38>
    8ad8:	eb00004d 	bl	8c14 <printk>
    8adc:	e8bd8010 	pop	{r4, pc}
    8ae0:	e3a030dc 	mov	r3, #220, 0	; 0xdc
    8ae4:	e59f2010 	ldr	r2, [pc, #16]	; 8afc <check_no_leak+0x3c>
    8ae8:	e59f1010 	ldr	r1, [pc, #16]	; 8b00 <check_no_leak+0x40>
    8aec:	e59f0010 	ldr	r0, [pc, #16]	; 8b04 <check_no_leak+0x44>
    8af0:	eb000047 	bl	8c14 <printk>
    8af4:	eb0002d7 	bl	9658 <clean_reboot>
    8af8:	0000a558 	andeq	sl, r0, r8, asr r5
    8afc:	0000a610 	andeq	sl, r0, r0, lsl r6
    8b00:	0000a2dc 	ldrdeq	sl, [r0], -ip
    8b04:	0000a52c 	andeq	sl, r0, ip, lsr #10

00008b08 <check_should_leak>:
    8b08:	e92d4010 	push	{r4, lr}
    8b0c:	e3a00001 	mov	r0, #1, 0
    8b10:	ebffffe7 	bl	8ab4 <ck_find_leaks>
    8b14:	e2504000 	subs	r4, r0, #0, 0
    8b18:	0a000004 	beq	8b30 <check_should_leak+0x28>
    8b1c:	e1a01004 	mov	r1, r4
    8b20:	e59f0020 	ldr	r0, [pc, #32]	; 8b48 <check_should_leak+0x40>
    8b24:	eb00003a 	bl	8c14 <printk>
    8b28:	e1a00004 	mov	r0, r4
    8b2c:	e8bd8010 	pop	{r4, pc}
    8b30:	e3a030eb 	mov	r3, #235, 0	; 0xeb
    8b34:	e59f2010 	ldr	r2, [pc, #16]	; 8b4c <check_should_leak+0x44>
    8b38:	e59f1010 	ldr	r1, [pc, #16]	; 8b50 <check_should_leak+0x48>
    8b3c:	e59f0010 	ldr	r0, [pc, #16]	; 8b54 <check_should_leak+0x4c>
    8b40:	eb000033 	bl	8c14 <printk>
    8b44:	eb0002c3 	bl	9658 <clean_reboot>
    8b48:	0000a5a0 	andeq	sl, r0, r0, lsr #11
    8b4c:	0000a620 	andeq	sl, r0, r0, lsr #12
    8b50:	0000a2dc 	ldrdeq	sl, [r0], -ip
    8b54:	0000a578 	andeq	sl, r0, r8, ror r5

00008b58 <ck_gc>:
    8b58:	e92d4010 	push	{r4, lr}
    8b5c:	ebffff0e 	bl	879c <mark_all>
    8b60:	ebffff73 	bl	8934 <sweep_free>
    8b64:	e8bd8010 	pop	{r4, pc}

00008b68 <implement_this>:
    8b68:	e92d4010 	push	{r4, lr}
    8b6c:	e59f3010 	ldr	r3, [pc, #16]	; 8b84 <implement_this+0x1c>
    8b70:	e59f2010 	ldr	r2, [pc, #16]	; 8b88 <implement_this+0x20>
    8b74:	e59f1010 	ldr	r1, [pc, #16]	; 8b8c <implement_this+0x24>
    8b78:	e59f0010 	ldr	r0, [pc, #16]	; 8b90 <implement_this+0x28>
    8b7c:	eb000024 	bl	8c14 <printk>
    8b80:	eb0002b4 	bl	9658 <clean_reboot>
    8b84:	00000117 	andeq	r0, r0, r7, lsl r1
    8b88:	0000a634 	andeq	sl, r0, r4, lsr r6
    8b8c:	0000a2dc 	ldrdeq	sl, [r0], -ip
    8b90:	0000a5c4 	andeq	sl, r0, r4, asr #11

00008b94 <dump_regs>:
    8b94:	e8a0ffff 	stmia	r0!, {r0, r1, r2, r3, r4, r5, r6, r7, r8, r9, sl, fp, ip, sp, lr, pc}
    8b98:	e12fff1e 	bx	lr

00008b9c <memset>:
    8b9c:	e92d4010 	push	{r4, lr}
    8ba0:	e0804002 	add	r4, r0, r2
    8ba4:	e1500004 	cmp	r0, r4
    8ba8:	28bd8010 	popcs	{r4, pc}
    8bac:	e2423001 	sub	r3, r2, #1, 0
    8bb0:	e3530002 	cmp	r3, #2, 0
    8bb4:	e6ef1071 	uxtb	r1, r1
    8bb8:	e1a03000 	mov	r3, r0
    8bbc:	9a00000b 	bls	8bf0 <memset+0x54>
    8bc0:	e181e401 	orr	lr, r1, r1, lsl #8
    8bc4:	e18ee801 	orr	lr, lr, r1, lsl #16
    8bc8:	e3c2c003 	bic	ip, r2, #3, 0
    8bcc:	e18eec01 	orr	lr, lr, r1, lsl #24
    8bd0:	e08cc000 	add	ip, ip, r0
    8bd4:	e483e004 	str	lr, [r3], #4
    8bd8:	e153000c 	cmp	r3, ip
    8bdc:	1afffffc 	bne	8bd4 <memset+0x38>
    8be0:	e3c23003 	bic	r3, r2, #3, 0
    8be4:	e1520003 	cmp	r2, r3
    8be8:	e0803003 	add	r3, r0, r3
    8bec:	08bd8010 	popeq	{r4, pc}
    8bf0:	e1a02003 	mov	r2, r3
    8bf4:	e4c21001 	strb	r1, [r2], #1
    8bf8:	e1540002 	cmp	r4, r2
    8bfc:	98bd8010 	popls	{r4, pc}
    8c00:	e2832002 	add	r2, r3, #2, 0
    8c04:	e1540002 	cmp	r4, r2
    8c08:	e5c31001 	strb	r1, [r3, #1]
    8c0c:	85c31002 	strbhi	r1, [r3, #2]
    8c10:	e8bd8010 	pop	{r4, pc}

00008c14 <printk>:
    8c14:	e92d000f 	push	{r0, r1, r2, r3}
    8c18:	e92d4030 	push	{r4, r5, lr}
    8c1c:	e59f5040 	ldr	r5, [pc, #64]	; 8c64 <printk+0x50>
    8c20:	e24dd00c 	sub	sp, sp, #12, 0
    8c24:	e28d301c 	add	r3, sp, #28, 0
    8c28:	e3a01b01 	mov	r1, #1024	; 0x400
    8c2c:	e59d2018 	ldr	r2, [sp, #24]
    8c30:	e1a00005 	mov	r0, r5
    8c34:	e58d3004 	str	r3, [sp, #4]
    8c38:	eb0000fb 	bl	902c <va_printk>
    8c3c:	e1a04000 	mov	r4, r0
    8c40:	e59f3020 	ldr	r3, [pc, #32]	; 8c68 <printk+0x54>
    8c44:	e1a00005 	mov	r0, r5
    8c48:	e5933000 	ldr	r3, [r3]
    8c4c:	e12fff33 	blx	r3
    8c50:	e1a00004 	mov	r0, r4
    8c54:	e28dd00c 	add	sp, sp, #12, 0
    8c58:	e8bd4030 	pop	{r4, r5, lr}
    8c5c:	e28dd010 	add	sp, sp, #16, 0
    8c60:	e12fff1e 	bx	lr
    8c64:	0000a9ec 	andeq	sl, r0, ip, ror #19
    8c68:	0000a9b0 			; <UNDEFINED> instruction: 0x0000a9b0

00008c6c <internal_putk>:
    8c6c:	e92d4070 	push	{r4, r5, r6, lr}
    8c70:	e1a04000 	mov	r4, r0
    8c74:	e5d00000 	ldrb	r0, [r0]
    8c78:	e3500000 	cmp	r0, #0, 0
    8c7c:	0a000005 	beq	8c98 <internal_putk+0x2c>
    8c80:	e59f5018 	ldr	r5, [pc, #24]	; 8ca0 <internal_putk+0x34>
    8c84:	e5953000 	ldr	r3, [r5]
    8c88:	e12fff33 	blx	r3
    8c8c:	e5f40001 	ldrb	r0, [r4, #1]!
    8c90:	e3500000 	cmp	r0, #0, 0
    8c94:	1afffffa 	bne	8c84 <internal_putk+0x18>
    8c98:	e3a00001 	mov	r0, #1, 0
    8c9c:	e8bd8070 	pop	{r4, r5, r6, pc}
    8ca0:	0000a9c0 	andeq	sl, r0, r0, asr #19

00008ca4 <emit.constprop.0>:
    8ca4:	e92d41f0 	push	{r4, r5, r6, r7, r8, lr}
    8ca8:	e3530080 	cmp	r3, #128, 0	; 0x80
    8cac:	e1a0c000 	mov	ip, r0
    8cb0:	e24dd048 	sub	sp, sp, #72, 0	; 0x48
    8cb4:	e1a00001 	mov	r0, r1
    8cb8:	ca000069 	bgt	8e64 <emit.constprop.0+0x1c0>
    8cbc:	e24c1002 	sub	r1, ip, #2, 0
    8cc0:	e1a0c002 	mov	ip, r2
    8cc4:	e351000e 	cmp	r1, #14, 0
    8cc8:	979ff101 	ldrls	pc, [pc, r1, lsl #2]
    8ccc:	ea0000a7 	b	8f70 <emit.constprop.0+0x2cc>
    8cd0:	00008e3c 	andeq	r8, r0, ip, lsr lr
    8cd4:	00008f70 	andeq	r8, r0, r0, ror pc
    8cd8:	00008f70 	andeq	r8, r0, r0, ror pc
    8cdc:	00008f70 	andeq	r8, r0, r0, ror pc
    8ce0:	00008f70 	andeq	r8, r0, r0, ror pc
    8ce4:	00008f70 	andeq	r8, r0, r0, ror pc
    8ce8:	00008f18 	andeq	r8, r0, r8, lsl pc
    8cec:	00008f70 	andeq	r8, r0, r0, ror pc
    8cf0:	00008eb8 			; <UNDEFINED> instruction: 0x00008eb8
    8cf4:	00008f70 	andeq	r8, r0, r0, ror pc
    8cf8:	00008f70 	andeq	r8, r0, r0, ror pc
    8cfc:	00008f70 	andeq	r8, r0, r0, ror pc
    8d00:	00008f70 	andeq	r8, r0, r0, ror pc
    8d04:	00008f70 	andeq	r8, r0, r0, ror pc
    8d08:	00008d10 	andeq	r8, r0, r0, lsl sp
    8d0c:	e3a0307f 	mov	r3, #127, 0	; 0x7f
    8d10:	e28d2008 	add	r2, sp, #8, 0
    8d14:	e1a04002 	mov	r4, r2
    8d18:	e59f1288 	ldr	r1, [pc, #648]	; 8fa8 <emit.constprop.0+0x304>
    8d1c:	e20ce00f 	and	lr, ip, #15, 0
    8d20:	e7d1e00e 	ldrb	lr, [r1, lr]
    8d24:	e35c000f 	cmp	ip, #15, 0
    8d28:	e4c4e001 	strb	lr, [r4], #1
    8d2c:	e1a0c22c 	lsr	ip, ip, #4
    8d30:	8afffff9 	bhi	8d1c <emit.constprop.0+0x78>
    8d34:	e3a0c078 	mov	ip, #120, 0	; 0x78
    8d38:	e1a0e004 	mov	lr, r4
    8d3c:	e3a01030 	mov	r1, #48, 0	; 0x30
    8d40:	e4cec002 	strb	ip, [lr], #2
    8d44:	e5c41001 	strb	r1, [r4, #1]
    8d48:	e04e1002 	sub	r1, lr, r2
    8d4c:	e1510003 	cmp	r1, r3
    8d50:	aa000083 	bge	8f64 <emit.constprop.0+0x2c0>
    8d54:	e1510003 	cmp	r1, r3
    8d58:	a3a0c001 	movge	ip, #1, 0
    8d5c:	b3a0c000 	movlt	ip, #0, 0
    8d60:	e2434001 	sub	r4, r3, #1, 0
    8d64:	e0444001 	sub	r4, r4, r1
    8d68:	b0436001 	sublt	r6, r3, r1
    8d6c:	a3a06001 	movge	r6, #1, 0
    8d70:	e3540002 	cmp	r4, #2, 0
    8d74:	938cc001 	orrls	ip, ip, #1, 0
    8d78:	e35c0000 	cmp	ip, #0, 0
    8d7c:	1a000075 	bne	8f58 <emit.constprop.0+0x2b4>
    8d80:	e1a0c00e 	mov	ip, lr
    8d84:	e3c65003 	bic	r5, r6, #3, 0
    8d88:	e59f721c 	ldr	r7, [pc, #540]	; 8fac <emit.constprop.0+0x308>
    8d8c:	e085500e 	add	r5, r5, lr
    8d90:	e48c7004 	str	r7, [ip], #4
    8d94:	e15c0005 	cmp	ip, r5
    8d98:	1afffffc 	bne	8d90 <emit.constprop.0+0xec>
    8d9c:	e3c6c003 	bic	ip, r6, #3, 0
    8da0:	e156000c 	cmp	r6, ip
    8da4:	e08e500c 	add	r5, lr, ip
    8da8:	e08cc001 	add	ip, ip, r1
    8dac:	0a000008 	beq	8dd4 <emit.constprop.0+0x130>
    8db0:	e3a07020 	mov	r7, #32, 0
    8db4:	e28c8001 	add	r8, ip, #1, 0
    8db8:	e1580003 	cmp	r8, r3
    8dbc:	e5c57000 	strb	r7, [r5]
    8dc0:	aa000003 	bge	8dd4 <emit.constprop.0+0x130>
    8dc4:	e28cc002 	add	ip, ip, #2, 0
    8dc8:	e15c0003 	cmp	ip, r3
    8dcc:	e5c57001 	strb	r7, [r5, #1]
    8dd0:	b5c57002 	strblt	r7, [r5, #2]
    8dd4:	e1510003 	cmp	r1, r3
    8dd8:	a3a04000 	movge	r4, #0, 0
    8ddc:	e08e6006 	add	r6, lr, r6
    8de0:	e0461002 	sub	r1, r6, r2
    8de4:	e08ee004 	add	lr, lr, r4
    8de8:	e3a03000 	mov	r3, #0, 0
    8dec:	e351007f 	cmp	r1, #127, 0	; 0x7f
    8df0:	c241407f 	subgt	r4, r1, #127, 0	; 0x7f
    8df4:	c0822004 	addgt	r2, r2, r4
    8df8:	e152000e 	cmp	r2, lr
    8dfc:	e5c63000 	strb	r3, [r6]
    8e00:	8a00004f 	bhi	8f44 <emit.constprop.0+0x2a0>
    8e04:	e28ee001 	add	lr, lr, #1, 0
    8e08:	e1a0300e 	mov	r3, lr
    8e0c:	e240c001 	sub	ip, r0, #1, 0
    8e10:	e5734001 	ldrb	r4, [r3, #-1]!
    8e14:	e1530002 	cmp	r3, r2
    8e18:	e5ec4001 	strb	r4, [ip, #1]!
    8e1c:	1afffffb 	bne	8e10 <emit.constprop.0+0x16c>
    8e20:	e04ee003 	sub	lr, lr, r3
    8e24:	e3a03000 	mov	r3, #0, 0
    8e28:	e080e00e 	add	lr, r0, lr
    8e2c:	e5ce3000 	strb	r3, [lr]
    8e30:	e28dd048 	add	sp, sp, #72, 0	; 0x48
    8e34:	e8bd81f0 	pop	{r4, r5, r6, r7, r8, pc}
    8e38:	e3a0307f 	mov	r3, #127, 0	; 0x7f
    8e3c:	e28d2008 	add	r2, sp, #8, 0
    8e40:	e1a0e002 	mov	lr, r2
    8e44:	e59f1164 	ldr	r1, [pc, #356]	; 8fb0 <emit.constprop.0+0x30c>
    8e48:	e20c4001 	and	r4, ip, #1, 0
    8e4c:	e7d14004 	ldrb	r4, [r1, r4]
    8e50:	e35c0001 	cmp	ip, #1, 0
    8e54:	e4ce4001 	strb	r4, [lr], #1
    8e58:	e1a0c0ac 	lsr	ip, ip, #1
    8e5c:	8afffff9 	bhi	8e48 <emit.constprop.0+0x1a4>
    8e60:	eaffffb8 	b	8d48 <emit.constprop.0+0xa4>
    8e64:	e24c3002 	sub	r3, ip, #2, 0
    8e68:	e1a0c002 	mov	ip, r2
    8e6c:	e353000e 	cmp	r3, #14, 0
    8e70:	979ff103 	ldrls	pc, [pc, r3, lsl #2]
    8e74:	ea00003d 	b	8f70 <emit.constprop.0+0x2cc>
    8e78:	00008e38 	andeq	r8, r0, r8, lsr lr
    8e7c:	00008f70 	andeq	r8, r0, r0, ror pc
    8e80:	00008f70 	andeq	r8, r0, r0, ror pc
    8e84:	00008f70 	andeq	r8, r0, r0, ror pc
    8e88:	00008f70 	andeq	r8, r0, r0, ror pc
    8e8c:	00008f70 	andeq	r8, r0, r0, ror pc
    8e90:	00008f90 	muleq	r0, r0, pc	; <UNPREDICTABLE>
    8e94:	00008f70 	andeq	r8, r0, r0, ror pc
    8e98:	00008eb4 			; <UNDEFINED> instruction: 0x00008eb4
    8e9c:	00008f70 	andeq	r8, r0, r0, ror pc
    8ea0:	00008f70 	andeq	r8, r0, r0, ror pc
    8ea4:	00008f70 	andeq	r8, r0, r0, ror pc
    8ea8:	00008f70 	andeq	r8, r0, r0, ror pc
    8eac:	00008f70 	andeq	r8, r0, r0, ror pc
    8eb0:	00008d0c 	andeq	r8, r0, ip, lsl #26
    8eb4:	e3a0307f 	mov	r3, #127, 0	; 0x7f
    8eb8:	e59d1060 	ldr	r1, [sp, #96]	; 0x60
    8ebc:	e59f70f0 	ldr	r7, [pc, #240]	; 8fb4 <emit.constprop.0+0x310>
    8ec0:	e0118fa2 	ands	r8, r1, r2, lsr #31
    8ec4:	1262c000 	rsbne	ip, r2, #0, 0
    8ec8:	e28d2008 	add	r2, sp, #8, 0
    8ecc:	13a08001 	movne	r8, #1, 0
    8ed0:	e1a0e002 	mov	lr, r2
    8ed4:	e59f60dc 	ldr	r6, [pc, #220]	; 8fb8 <emit.constprop.0+0x314>
    8ed8:	e1a0500c 	mov	r5, ip
    8edc:	e0814c96 	umull	r4, r1, r6, ip
    8ee0:	e1a011a1 	lsr	r1, r1, #3
    8ee4:	e0814101 	add	r4, r1, r1, lsl #2
    8ee8:	e04cc084 	sub	ip, ip, r4, lsl #1
    8eec:	e7d7400c 	ldrb	r4, [r7, ip]
    8ef0:	e3550009 	cmp	r5, #9, 0
    8ef4:	e1a0c001 	mov	ip, r1
    8ef8:	e1a0100e 	mov	r1, lr
    8efc:	e4ce4001 	strb	r4, [lr], #1
    8f00:	8afffff4 	bhi	8ed8 <emit.constprop.0+0x234>
    8f04:	e3580000 	cmp	r8, #0, 0
    8f08:	13a0c02d 	movne	ip, #45, 0	; 0x2d
    8f0c:	15cec000 	strbne	ip, [lr]
    8f10:	1281e002 	addne	lr, r1, #2, 0
    8f14:	eaffff8b 	b	8d48 <emit.constprop.0+0xa4>
    8f18:	e3530001 	cmp	r3, #1, 0
    8f1c:	e5cd2008 	strb	r2, [sp, #8]
    8f20:	c3a01001 	movgt	r1, #1, 0
    8f24:	c28de009 	addgt	lr, sp, #9, 0
    8f28:	c28d2008 	addgt	r2, sp, #8, 0
    8f2c:	caffff88 	bgt	8d54 <emit.constprop.0+0xb0>
    8f30:	e3a03000 	mov	r3, #0, 0
    8f34:	e28de008 	add	lr, sp, #8, 0
    8f38:	e1a0200e 	mov	r2, lr
    8f3c:	e5cd3009 	strb	r3, [sp, #9]
    8f40:	eaffffaf 	b	8e04 <emit.constprop.0+0x160>
    8f44:	e1a0e000 	mov	lr, r0
    8f48:	e3a03000 	mov	r3, #0, 0
    8f4c:	e5ce3000 	strb	r3, [lr]
    8f50:	e28dd048 	add	sp, sp, #72, 0	; 0x48
    8f54:	e8bd81f0 	pop	{r4, r5, r6, r7, r8, pc}
    8f58:	e1a0c001 	mov	ip, r1
    8f5c:	e1a0500e 	mov	r5, lr
    8f60:	eaffff92 	b	8db0 <emit.constprop.0+0x10c>
    8f64:	e1a0600e 	mov	r6, lr
    8f68:	e24ee001 	sub	lr, lr, #1, 0
    8f6c:	eaffff9d 	b	8de8 <emit.constprop.0+0x144>
    8f70:	e59f2044 	ldr	r2, [pc, #68]	; 8fbc <emit.constprop.0+0x318>
    8f74:	e3a03079 	mov	r3, #121, 0	; 0x79
    8f78:	e59f1040 	ldr	r1, [pc, #64]	; 8fc0 <emit.constprop.0+0x31c>
    8f7c:	e58d2000 	str	r2, [sp]
    8f80:	e59f003c 	ldr	r0, [pc, #60]	; 8fc4 <emit.constprop.0+0x320>
    8f84:	e59f203c 	ldr	r2, [pc, #60]	; 8fc8 <emit.constprop.0+0x324>
    8f88:	ebffff21 	bl	8c14 <printk>
    8f8c:	eb0001b1 	bl	9658 <clean_reboot>
    8f90:	e5cd2008 	strb	r2, [sp, #8]
    8f94:	e3a0307f 	mov	r3, #127, 0	; 0x7f
    8f98:	e3a01001 	mov	r1, #1, 0
    8f9c:	e28de009 	add	lr, sp, #9, 0
    8fa0:	e28d2008 	add	r2, sp, #8, 0
    8fa4:	eaffff6a 	b	8d54 <emit.constprop.0+0xb0>
    8fa8:	0000a658 	andeq	sl, r0, r8, asr r6
    8fac:	20202020 	eorcs	r2, r0, r0, lsr #32
    8fb0:	0000a66c 	andeq	sl, r0, ip, ror #12
    8fb4:	0000a670 	andeq	sl, r0, r0, ror r6
    8fb8:	cccccccd 	stclgt	12, cr12, [ip], {205}	; 0xcd
    8fbc:	0000a508 	andeq	sl, r0, r8, lsl #10
    8fc0:	0000a644 	andeq	sl, r0, r4, asr #12
    8fc4:	0000a184 	andeq	sl, r0, r4, lsl #3
    8fc8:	0000a784 	andeq	sl, r0, r4, lsl #15

00008fcc <rpi_set_output>:
    8fcc:	e3500000 	cmp	r0, #0, 0
    8fd0:	0a000005 	beq	8fec <rpi_set_output+0x20>
    8fd4:	e59f3038 	ldr	r3, [pc, #56]	; 9014 <rpi_set_output+0x48>
    8fd8:	e3510000 	cmp	r1, #0, 0
    8fdc:	e5830000 	str	r0, [r3]
    8fe0:	159f3030 	ldrne	r3, [pc, #48]	; 9018 <rpi_set_output+0x4c>
    8fe4:	15831000 	strne	r1, [r3]
    8fe8:	e12fff1e 	bx	lr
    8fec:	e52de004 	push	{lr}		; (str lr, [sp, #-4]!)
    8ff0:	e59f2024 	ldr	r2, [pc, #36]	; 901c <rpi_set_output+0x50>
    8ff4:	e24dd00c 	sub	sp, sp, #12, 0
    8ff8:	e3a03020 	mov	r3, #32, 0
    8ffc:	e59f101c 	ldr	r1, [pc, #28]	; 9020 <rpi_set_output+0x54>
    9000:	e58d2000 	str	r2, [sp]
    9004:	e59f0018 	ldr	r0, [pc, #24]	; 9024 <rpi_set_output+0x58>
    9008:	e59f2018 	ldr	r2, [pc, #24]	; 9028 <rpi_set_output+0x5c>
    900c:	ebffff00 	bl	8c14 <printk>
    9010:	eb000190 	bl	9658 <clean_reboot>
    9014:	0000a9c0 	andeq	sl, r0, r0, asr #19
    9018:	0000a9b0 			; <UNDEFINED> instruction: 0x0000a9b0
    901c:	0000a67c 	andeq	sl, r0, ip, ror r6
    9020:	0000a644 	andeq	sl, r0, r4, asr #12
    9024:	0000a184 	andeq	sl, r0, r4, lsl #3
    9028:	0000a78c 	andeq	sl, r0, ip, lsl #15

0000902c <va_printk>:
    902c:	e92d4ff0 	push	{r4, r5, r6, r7, r8, r9, sl, fp, lr}
    9030:	e1a0b000 	mov	fp, r0
    9034:	e3a00000 	mov	r0, #0, 0
    9038:	e5cb0000 	strb	r0, [fp]
    903c:	e5d2c000 	ldrb	ip, [r2]
    9040:	e2417001 	sub	r7, r1, #1, 0
    9044:	e08b7007 	add	r7, fp, r7
    9048:	e15c0000 	cmp	ip, r0
    904c:	115b0007 	cmpne	fp, r7
    9050:	e24ddf47 	sub	sp, sp, #284	; 0x11c
    9054:	e58d2010 	str	r2, [sp, #16]
    9058:	2a000159 	bcs	95c4 <va_printk+0x598>
    905c:	e1a06002 	mov	r6, r2
    9060:	e1a08003 	mov	r8, r3
    9064:	e1a0400b 	mov	r4, fp
    9068:	e59fa5a4 	ldr	sl, [pc, #1444]	; 9614 <va_printk+0x5e8>
    906c:	e58db00c 	str	fp, [sp, #12]
    9070:	ea000005 	b	908c <va_printk+0x60>
    9074:	e4c4c001 	strb	ip, [r4], #1
    9078:	e2866001 	add	r6, r6, #1, 0
    907c:	e5d6c000 	ldrb	ip, [r6]
    9080:	e35c0000 	cmp	ip, #0, 0
    9084:	11570004 	cmpne	r7, r4
    9088:	9a00002f 	bls	914c <va_printk+0x120>
    908c:	e35c0025 	cmp	ip, #37, 0	; 0x25
    9090:	1afffff7 	bne	9074 <va_printk+0x48>
    9094:	e5d62001 	ldrb	r2, [r6, #1]
    9098:	e3520025 	cmp	r2, #37, 0	; 0x25
    909c:	04c4c001 	strbeq	ip, [r4], #1
    90a0:	02866002 	addeq	r6, r6, #2, 0
    90a4:	0afffff4 	beq	907c <va_printk+0x50>
    90a8:	e2423030 	sub	r3, r2, #48, 0	; 0x30
    90ac:	e3530009 	cmp	r3, #9, 0
    90b0:	e3a05000 	mov	r5, #0, 0
    90b4:	e2866001 	add	r6, r6, #1, 0
    90b8:	8a000008 	bhi	90e0 <va_printk+0xb4>
    90bc:	e0855105 	add	r5, r5, r5, lsl #2
    90c0:	e0825085 	add	r5, r2, r5, lsl #1
    90c4:	e5f62001 	ldrb	r2, [r6, #1]!
    90c8:	e2455030 	sub	r5, r5, #48, 0	; 0x30
    90cc:	e2423030 	sub	r3, r2, #48, 0	; 0x30
    90d0:	e3530009 	cmp	r3, #9, 0
    90d4:	9afffff8 	bls	90bc <va_printk+0x90>
    90d8:	e355001f 	cmp	r5, #31, 0
    90dc:	8a00013a 	bhi	95cc <va_printk+0x5a0>
    90e0:	e2423062 	sub	r3, r2, #98, 0	; 0x62
    90e4:	e3530016 	cmp	r3, #22, 0
    90e8:	979ff103 	ldrls	pc, [pc, r3, lsl #2]
    90ec:	ea00011b 	b	9560 <va_printk+0x534>
    90f0:	000093a4 	andeq	r9, r0, r4, lsr #7
    90f4:	000092a0 	andeq	r9, r0, r0, lsr #5
    90f8:	00009298 	muleq	r0, r8, r2
    90fc:	00009560 	andeq	r9, r0, r0, ror #10
    9100:	0000959c 	muleq	r0, ip, r5
    9104:	00009560 	andeq	r9, r0, r0, ror #10
    9108:	00009560 	andeq	r9, r0, r0, ror #10
    910c:	00009560 	andeq	r9, r0, r0, ror #10
    9110:	00009560 	andeq	r9, r0, r0, ror #10
    9114:	00009560 	andeq	r9, r0, r0, ror #10
    9118:	000091a8 	andeq	r9, r0, r8, lsr #3
    911c:	00009560 	andeq	r9, r0, r0, ror #10
    9120:	00009560 	andeq	r9, r0, r0, ror #10
    9124:	00009560 	andeq	r9, r0, r0, ror #10
    9128:	00009164 	andeq	r9, r0, r4, ror #2
    912c:	00009560 	andeq	r9, r0, r0, ror #10
    9130:	00009560 	andeq	r9, r0, r0, ror #10
    9134:	0000949c 	muleq	r0, ip, r4
    9138:	00009560 	andeq	r9, r0, r0, ror #10
    913c:	00009274 	andeq	r9, r0, r4, ror r2
    9140:	00009560 	andeq	r9, r0, r0, ror #10
    9144:	00009560 	andeq	r9, r0, r0, ror #10
    9148:	00009164 	andeq	r9, r0, r4, ror #2
    914c:	e59db00c 	ldr	fp, [sp, #12]
    9150:	e3a03000 	mov	r3, #0, 0
    9154:	e4c43001 	strb	r3, [r4], #1
    9158:	e044000b 	sub	r0, r4, fp
    915c:	e28ddf47 	add	sp, sp, #284	; 0x11c
    9160:	e8bd8ff0 	pop	{r4, r5, r6, r7, r8, r9, sl, fp, pc}
    9164:	e3a01000 	mov	r1, #0, 0
    9168:	e1a03005 	mov	r3, r5
    916c:	e4982004 	ldr	r2, [r8], #4
    9170:	e3a00010 	mov	r0, #16, 0
    9174:	e58d1000 	str	r1, [sp]
    9178:	e28d1018 	add	r1, sp, #24, 0
    917c:	ebfffec8 	bl	8ca4 <emit.constprop.0>
    9180:	e1a05000 	mov	r5, r0
    9184:	e2866001 	add	r6, r6, #1, 0
    9188:	e2455001 	sub	r5, r5, #1, 0
    918c:	e5f53001 	ldrb	r3, [r5, #1]!
    9190:	e3530000 	cmp	r3, #0, 0
    9194:	0affffb8 	beq	907c <va_printk+0x50>
    9198:	e4c43001 	strb	r3, [r4], #1
    919c:	e1570004 	cmp	r7, r4
    91a0:	8afffff9 	bhi	918c <va_printk+0x160>
    91a4:	eaffffb4 	b	907c <va_printk+0x50>
    91a8:	e3a02003 	mov	r2, #3, 0
    91ac:	e1a00006 	mov	r0, r6
    91b0:	e59f1460 	ldr	r1, [pc, #1120]	; 9618 <va_printk+0x5ec>
    91b4:	eb0003da 	bl	a124 <strncmp>
    91b8:	e3500000 	cmp	r0, #0, 0
    91bc:	0a000005 	beq	91d8 <va_printk+0x1ac>
    91c0:	e3a02003 	mov	r2, #3, 0
    91c4:	e1a00006 	mov	r0, r6
    91c8:	e59f144c 	ldr	r1, [pc, #1100]	; 961c <va_printk+0x5f0>
    91cc:	eb0003d4 	bl	a124 <strncmp>
    91d0:	e3500000 	cmp	r0, #0, 0
    91d4:	1a00010b 	bne	9608 <va_printk+0x5dc>
    91d8:	e2888007 	add	r8, r8, #7, 0
    91dc:	e3c88007 	bic	r8, r8, #7, 0
    91e0:	e598b004 	ldr	fp, [r8, #4]
    91e4:	e4989008 	ldr	r9, [r8], #8
    91e8:	e1a0100b 	mov	r1, fp
    91ec:	e59f042c 	ldr	r0, [pc, #1068]	; 9620 <va_printk+0x5f4>
    91f0:	ebfffe87 	bl	8c14 <printk>
    91f4:	e1a01009 	mov	r1, r9
    91f8:	e59f0424 	ldr	r0, [pc, #1060]	; 9624 <va_printk+0x5f8>
    91fc:	ebfffe84 	bl	8c14 <printk>
    9200:	e3a02003 	mov	r2, #3, 0
    9204:	e1a00006 	mov	r0, r6
    9208:	e59f1408 	ldr	r1, [pc, #1032]	; 9618 <va_printk+0x5ec>
    920c:	eb0003c4 	bl	a124 <strncmp>
    9210:	e2503000 	subs	r3, r0, #0, 0
    9214:	e1a02003 	mov	r2, r3
    9218:	e2863002 	add	r3, r6, #2, 0
    921c:	e58d3014 	str	r3, [sp, #20]
    9220:	1a00009f 	bne	94a4 <va_printk+0x478>
    9224:	e1a06002 	mov	r6, r2
    9228:	e1a03005 	mov	r3, r5
    922c:	e58d2000 	str	r2, [sp]
    9230:	e28d1018 	add	r1, sp, #24, 0
    9234:	e1a0200b 	mov	r2, fp
    9238:	e3a00010 	mov	r0, #16, 0
    923c:	ebfffe98 	bl	8ca4 <emit.constprop.0>
    9240:	e1a0c000 	mov	ip, r0
    9244:	e1a03005 	mov	r3, r5
    9248:	e58d6000 	str	r6, [sp]
    924c:	e28d1098 	add	r1, sp, #152, 0	; 0x98
    9250:	e1a02009 	mov	r2, r9
    9254:	e3a00010 	mov	r0, #16, 0
    9258:	e1a0500c 	mov	r5, ip
    925c:	ebfffe90 	bl	8ca4 <emit.constprop.0>
    9260:	e28d0018 	add	r0, sp, #24, 0
    9264:	e28d109a 	add	r1, sp, #154, 0	; 0x9a
    9268:	e59d6014 	ldr	r6, [sp, #20]
    926c:	eb00038a 	bl	a09c <strcat>
    9270:	eaffffc3 	b	9184 <va_printk+0x158>
    9274:	e3a01000 	mov	r1, #0, 0
    9278:	e1a03005 	mov	r3, r5
    927c:	e4982004 	ldr	r2, [r8], #4
    9280:	e3a0000a 	mov	r0, #10, 0
    9284:	e58d1000 	str	r1, [sp]
    9288:	e28d1018 	add	r1, sp, #24, 0
    928c:	ebfffe84 	bl	8ca4 <emit.constprop.0>
    9290:	e1a05000 	mov	r5, r0
    9294:	eaffffba 	b	9184 <va_printk+0x158>
    9298:	e3a01001 	mov	r1, #1, 0
    929c:	eafffff5 	b	9278 <va_printk+0x24c>
    92a0:	e4983004 	ldr	r3, [r8], #4
    92a4:	e3550001 	cmp	r5, #1, 0
    92a8:	e5cd3098 	strb	r3, [sp, #152]	; 0x98
    92ac:	9a0000a6 	bls	954c <va_printk+0x520>
    92b0:	e2453002 	sub	r3, r5, #2, 0
    92b4:	e3530002 	cmp	r3, #2, 0
    92b8:	e2451001 	sub	r1, r5, #1, 0
    92bc:	9a0000bc 	bls	95b4 <va_printk+0x588>
    92c0:	e59f0360 	ldr	r0, [pc, #864]	; 9628 <va_printk+0x5fc>
    92c4:	e1a02121 	lsr	r2, r1, #2
    92c8:	e3520001 	cmp	r2, #1, 0
    92cc:	e58d0099 	str	r0, [sp, #153]	; 0x99
    92d0:	0a00000e 	beq	9310 <va_printk+0x2e4>
    92d4:	e3520002 	cmp	r2, #2, 0
    92d8:	e58d009d 	str	r0, [sp, #157]	; 0x9d
    92dc:	0a00000b 	beq	9310 <va_printk+0x2e4>
    92e0:	e3520003 	cmp	r2, #3, 0
    92e4:	e58d00a1 	str	r0, [sp, #161]	; 0xa1
    92e8:	0a000008 	beq	9310 <va_printk+0x2e4>
    92ec:	e3520004 	cmp	r2, #4, 0
    92f0:	e58d00a5 	str	r0, [sp, #165]	; 0xa5
    92f4:	0a000005 	beq	9310 <va_printk+0x2e4>
    92f8:	e3520005 	cmp	r2, #5, 0
    92fc:	e58d00a9 	str	r0, [sp, #169]	; 0xa9
    9300:	0a000002 	beq	9310 <va_printk+0x2e4>
    9304:	e3520007 	cmp	r2, #7, 0
    9308:	e58d00ad 	str	r0, [sp, #173]	; 0xad
    930c:	058d00b1 	streq	r0, [sp, #177]	; 0xb1
    9310:	e3c12003 	bic	r2, r1, #3, 0
    9314:	e1510002 	cmp	r1, r2
    9318:	e28dc099 	add	ip, sp, #153, 0	; 0x99
    931c:	e08c0002 	add	r0, ip, r2
    9320:	e2822001 	add	r2, r2, #1, 0
    9324:	0a000008 	beq	934c <va_printk+0x320>
    9328:	e3a0e020 	mov	lr, #32, 0
    932c:	e2829001 	add	r9, r2, #1, 0
    9330:	e1550009 	cmp	r5, r9
    9334:	e5c0e000 	strb	lr, [r0]
    9338:	da000003 	ble	934c <va_printk+0x320>
    933c:	e2822002 	add	r2, r2, #2, 0
    9340:	e1550002 	cmp	r5, r2
    9344:	e5c0e001 	strb	lr, [r0, #1]
    9348:	c5c0e002 	strbgt	lr, [r0, #2]
    934c:	e3a0e000 	mov	lr, #0, 0
    9350:	e28d0098 	add	r0, sp, #152, 0	; 0x98
    9354:	e08c2001 	add	r2, ip, r1
    9358:	e0422000 	sub	r2, r2, r0
    935c:	e352007f 	cmp	r2, #127, 0	; 0x7f
    9360:	c242207f 	subgt	r2, r2, #127, 0	; 0x7f
    9364:	e08c3003 	add	r3, ip, r3
    9368:	c0800002 	addgt	r0, r0, r2
    936c:	e1530000 	cmp	r3, r0
    9370:	e7cce001 	strb	lr, [ip, r1]
    9374:	3a00006c 	bcc	952c <va_printk+0x500>
    9378:	e283c001 	add	ip, r3, #1, 0
    937c:	e1a0300c 	mov	r3, ip
    9380:	e28d5018 	add	r5, sp, #24, 0
    9384:	e2452001 	sub	r2, r5, #1, 0
    9388:	e5731001 	ldrb	r1, [r3, #-1]!
    938c:	e1500003 	cmp	r0, r3
    9390:	e5e21001 	strb	r1, [r2, #1]!
    9394:	1afffffb 	bne	9388 <va_printk+0x35c>
    9398:	e04c3000 	sub	r3, ip, r0
    939c:	e0853003 	add	r3, r5, r3
    93a0:	ea00003a 	b	9490 <va_printk+0x464>
    93a4:	e28d1098 	add	r1, sp, #152, 0	; 0x98
    93a8:	e1a03001 	mov	r3, r1
    93ac:	e4980004 	ldr	r0, [r8], #4
    93b0:	e200c001 	and	ip, r0, #1, 0
    93b4:	e7dac00c 	ldrb	ip, [sl, ip]
    93b8:	e3500001 	cmp	r0, #1, 0
    93bc:	e1a02003 	mov	r2, r3
    93c0:	e1a000a0 	lsr	r0, r0, #1
    93c4:	e4c3c001 	strb	ip, [r3], #1
    93c8:	8afffff8 	bhi	93b0 <va_printk+0x384>
    93cc:	e0430001 	sub	r0, r3, r1
    93d0:	e1550000 	cmp	r5, r0
    93d4:	da000057 	ble	9538 <va_printk+0x50c>
    93d8:	e045c000 	sub	ip, r5, r0
    93dc:	e24ce001 	sub	lr, ip, #1, 0
    93e0:	e35e0002 	cmp	lr, #2, 0
    93e4:	e1a0e003 	mov	lr, r3
    93e8:	9a00000a 	bls	9418 <va_printk+0x3ec>
    93ec:	e3cc9003 	bic	r9, ip, #3, 0
    93f0:	e0899003 	add	r9, r9, r3
    93f4:	e59fb22c 	ldr	fp, [pc, #556]	; 9628 <va_printk+0x5fc>
    93f8:	e48eb004 	str	fp, [lr], #4
    93fc:	e15e0009 	cmp	lr, r9
    9400:	1afffffb 	bne	93f4 <va_printk+0x3c8>
    9404:	e3cce003 	bic	lr, ip, #3, 0
    9408:	e15e000c 	cmp	lr, ip
    940c:	e080000e 	add	r0, r0, lr
    9410:	e083e00e 	add	lr, r3, lr
    9414:	0a000008 	beq	943c <va_printk+0x410>
    9418:	e3a09020 	mov	r9, #32, 0
    941c:	e280b001 	add	fp, r0, #1, 0
    9420:	e155000b 	cmp	r5, fp
    9424:	e5ce9000 	strb	r9, [lr]
    9428:	da000003 	ble	943c <va_printk+0x410>
    942c:	e2800002 	add	r0, r0, #2, 0
    9430:	e1550000 	cmp	r5, r0
    9434:	e5ce9001 	strb	r9, [lr, #1]
    9438:	c5ce9002 	strbgt	r9, [lr, #2]
    943c:	e3a0e000 	mov	lr, #0, 0
    9440:	e083000c 	add	r0, r3, ip
    9444:	e0400001 	sub	r0, r0, r1
    9448:	e350007f 	cmp	r0, #127, 0	; 0x7f
    944c:	e082200c 	add	r2, r2, ip
    9450:	e7c3e00c 	strb	lr, [r3, ip]
    9454:	da000001 	ble	9460 <va_printk+0x434>
    9458:	e240007f 	sub	r0, r0, #127, 0	; 0x7f
    945c:	e0811000 	add	r1, r1, r0
    9460:	e1510002 	cmp	r1, r2
    9464:	8a000030 	bhi	952c <va_printk+0x500>
    9468:	e2822001 	add	r2, r2, #1, 0
    946c:	e1a03002 	mov	r3, r2
    9470:	e28d5018 	add	r5, sp, #24, 0
    9474:	e245c001 	sub	ip, r5, #1, 0
    9478:	e5730001 	ldrb	r0, [r3, #-1]!
    947c:	e1530001 	cmp	r3, r1
    9480:	e5ec0001 	strb	r0, [ip, #1]!
    9484:	1afffffb 	bne	9478 <va_printk+0x44c>
    9488:	e0423003 	sub	r3, r2, r3
    948c:	e0853003 	add	r3, r5, r3
    9490:	e3a02000 	mov	r2, #0, 0
    9494:	e5c32000 	strb	r2, [r3]
    9498:	eaffff39 	b	9184 <va_printk+0x158>
    949c:	e4985004 	ldr	r5, [r8], #4
    94a0:	eaffff37 	b	9184 <va_printk+0x158>
    94a4:	e3a02003 	mov	r2, #3, 0
    94a8:	e1a00006 	mov	r0, r6
    94ac:	e59f1168 	ldr	r1, [pc, #360]	; 961c <va_printk+0x5f0>
    94b0:	eb00031b 	bl	a124 <strncmp>
    94b4:	e2503000 	subs	r3, r0, #0, 0
    94b8:	1a00004b 	bne	95ec <va_printk+0x5c0>
    94bc:	e1a06003 	mov	r6, r3
    94c0:	e1a0200b 	mov	r2, fp
    94c4:	e58d3000 	str	r3, [sp]
    94c8:	e28d1018 	add	r1, sp, #24, 0
    94cc:	e1a03005 	mov	r3, r5
    94d0:	e3a0000a 	mov	r0, #10, 0
    94d4:	ebfffdf2 	bl	8ca4 <emit.constprop.0>
    94d8:	e1a0c000 	mov	ip, r0
    94dc:	e1a03005 	mov	r3, r5
    94e0:	e1a02009 	mov	r2, r9
    94e4:	e28d1098 	add	r1, sp, #152, 0	; 0x98
    94e8:	e3a0000a 	mov	r0, #10, 0
    94ec:	e58d6000 	str	r6, [sp]
    94f0:	e1a0500c 	mov	r5, ip
    94f4:	ebfffdea 	bl	8ca4 <emit.constprop.0>
    94f8:	e59f112c 	ldr	r1, [pc, #300]	; 962c <va_printk+0x600>
    94fc:	e28d0018 	add	r0, sp, #24, 0
    9500:	eb0002f0 	bl	a0c8 <strcmp>
    9504:	e3500000 	cmp	r0, #0, 0
    9508:	e28d1098 	add	r1, sp, #152, 0	; 0x98
    950c:	e28d0018 	add	r0, sp, #24, 0
    9510:	1a000002 	bne	9520 <va_printk+0x4f4>
    9514:	eb0002fc 	bl	a10c <strcpy>
    9518:	e59d6014 	ldr	r6, [sp, #20]
    951c:	eaffff18 	b	9184 <va_printk+0x158>
    9520:	eb0002dd 	bl	a09c <strcat>
    9524:	e59d6014 	ldr	r6, [sp, #20]
    9528:	eaffff15 	b	9184 <va_printk+0x158>
    952c:	e28d5018 	add	r5, sp, #24, 0
    9530:	e1a03005 	mov	r3, r5
    9534:	eaffffd5 	b	9490 <va_printk+0x464>
    9538:	e3a0c000 	mov	ip, #0, 0
    953c:	e350007f 	cmp	r0, #127, 0	; 0x7f
    9540:	e5c3c000 	strb	ip, [r3]
    9544:	caffffc3 	bgt	9458 <va_printk+0x42c>
    9548:	eaffffc6 	b	9468 <va_printk+0x43c>
    954c:	e3a02000 	mov	r2, #0, 0
    9550:	e28d3098 	add	r3, sp, #152, 0	; 0x98
    9554:	e1a00003 	mov	r0, r3
    9558:	e5cd2099 	strb	r2, [sp, #153]	; 0x99
    955c:	eaffff85 	b	9378 <va_printk+0x34c>
    9560:	e3a03000 	mov	r3, #0, 0
    9564:	e1a01002 	mov	r1, r2
    9568:	e5c63001 	strb	r3, [r6, #1]
    956c:	e59f00bc 	ldr	r0, [pc, #188]	; 9630 <va_printk+0x604>
    9570:	ebfffda7 	bl	8c14 <printk>
    9574:	e59f30b8 	ldr	r3, [pc, #184]	; 9634 <va_printk+0x608>
    9578:	e59d0010 	ldr	r0, [sp, #16]
    957c:	e5933000 	ldr	r3, [r3]
    9580:	e12fff33 	blx	r3
    9584:	e3a030e2 	mov	r3, #226, 0	; 0xe2
    9588:	e59f20a8 	ldr	r2, [pc, #168]	; 9638 <va_printk+0x60c>
    958c:	e59f10a8 	ldr	r1, [pc, #168]	; 963c <va_printk+0x610>
    9590:	e59f00a8 	ldr	r0, [pc, #168]	; 9640 <va_printk+0x614>
    9594:	ebfffd9e 	bl	8c14 <printk>
    9598:	eb00002e 	bl	9658 <clean_reboot>
    959c:	e3a030be 	mov	r3, #190, 0	; 0xbe
    95a0:	e59f2090 	ldr	r2, [pc, #144]	; 9638 <va_printk+0x60c>
    95a4:	e59f1090 	ldr	r1, [pc, #144]	; 963c <va_printk+0x610>
    95a8:	e59f0094 	ldr	r0, [pc, #148]	; 9644 <va_printk+0x618>
    95ac:	ebfffd98 	bl	8c14 <printk>
    95b0:	eb000028 	bl	9658 <clean_reboot>
    95b4:	e28dc099 	add	ip, sp, #153, 0	; 0x99
    95b8:	e1a0000c 	mov	r0, ip
    95bc:	e3a02001 	mov	r2, #1, 0
    95c0:	eaffff58 	b	9328 <va_printk+0x2fc>
    95c4:	e1a0400b 	mov	r4, fp
    95c8:	eafffee0 	b	9150 <va_printk+0x124>
    95cc:	e3a03098 	mov	r3, #152, 0	; 0x98
    95d0:	e59f2070 	ldr	r2, [pc, #112]	; 9648 <va_printk+0x61c>
    95d4:	e59f1060 	ldr	r1, [pc, #96]	; 963c <va_printk+0x610>
    95d8:	e58d2000 	str	r2, [sp]
    95dc:	e59f0068 	ldr	r0, [pc, #104]	; 964c <va_printk+0x620>
    95e0:	e59f2050 	ldr	r2, [pc, #80]	; 9638 <va_printk+0x60c>
    95e4:	ebfffd8a 	bl	8c14 <printk>
    95e8:	eb00001a 	bl	9658 <clean_reboot>
    95ec:	e3a030b6 	mov	r3, #182, 0	; 0xb6
    95f0:	e59f2040 	ldr	r2, [pc, #64]	; 9638 <va_printk+0x60c>
    95f4:	e59f1040 	ldr	r1, [pc, #64]	; 963c <va_printk+0x610>
    95f8:	e59f0050 	ldr	r0, [pc, #80]	; 9650 <va_printk+0x624>
    95fc:	e58d6000 	str	r6, [sp]
    9600:	ebfffd83 	bl	8c14 <printk>
    9604:	eb000013 	bl	9658 <clean_reboot>
    9608:	e3a0309f 	mov	r3, #159, 0	; 0x9f
    960c:	e59f2040 	ldr	r2, [pc, #64]	; 9654 <va_printk+0x628>
    9610:	eaffffef 	b	95d4 <va_printk+0x5a8>
    9614:	0000a66c 	andeq	sl, r0, ip, ror #12
    9618:	0000a690 	muleq	r0, r0, r6
    961c:	0000a6a4 	andeq	sl, r0, r4, lsr #13
    9620:	0000a694 	muleq	r0, r4, r6
    9624:	0000a69c 	muleq	r0, ip, r6
    9628:	20202020 	eorcs	r2, r0, r0, lsr #32
    962c:	0000a508 	andeq	sl, r0, r8, lsl #10
    9630:	0000a734 	andeq	sl, r0, r4, lsr r7
    9634:	0000a9b0 			; <UNDEFINED> instruction: 0x0000a9b0
    9638:	0000a79c 	muleq	r0, ip, r7
    963c:	0000a644 	andeq	sl, r0, r4, asr #12
    9640:	0000a764 	andeq	sl, r0, r4, ror #14
    9644:	0000a70c 	andeq	sl, r0, ip, lsl #14
    9648:	0000a684 	andeq	sl, r0, r4, lsl #13
    964c:	0000a184 	andeq	sl, r0, r4, lsl #3
    9650:	0000a6e4 	andeq	sl, r0, r4, ror #13
    9654:	0000a6a8 	andeq	sl, r0, r8, lsr #13

00009658 <clean_reboot>:
    9658:	e59f301c 	ldr	r3, [pc, #28]	; 967c <clean_reboot+0x24>
    965c:	e92d4010 	push	{r4, lr}
    9660:	e5933000 	ldr	r3, [r3]
    9664:	e59f0014 	ldr	r0, [pc, #20]	; 9680 <clean_reboot+0x28>
    9668:	e12fff33 	blx	r3
    966c:	eb00011b 	bl	9ae0 <uart_flush_tx>
    9670:	e3a0000a 	mov	r0, #10, 0
    9674:	eb000082 	bl	9884 <delay_ms>
    9678:	eb00004b 	bl	97ac <rpi_reboot>
    967c:	0000a9b0 			; <UNDEFINED> instruction: 0x0000a9b0
    9680:	0000a7a8 	andeq	sl, r0, r8, lsr #15

00009684 <_cstart>:
    9684:	e92d4070 	push	{r4, r5, r6, lr}
    9688:	eb00003b 	bl	977c <custom_loader>
    968c:	e59f20e0 	ldr	r2, [pc, #224]	; 9774 <_cstart+0xf0>
    9690:	e59fc0e0 	ldr	ip, [pc, #224]	; 9778 <_cstart+0xf4>
    9694:	e152000c 	cmp	r2, ip
    9698:	2a00002e 	bcs	9758 <_cstart+0xd4>
    969c:	e24c1001 	sub	r1, ip, #1, 0
    96a0:	e0411002 	sub	r1, r1, r2
    96a4:	e3510017 	cmp	r1, #23, 0
    96a8:	e1a03122 	lsr	r3, r2, #2
    96ac:	e1a01121 	lsr	r1, r1, #2
    96b0:	e2811001 	add	r1, r1, #1, 0
    96b4:	e2033001 	and	r3, r3, #1, 0
    96b8:	9a00002b 	bls	976c <_cstart+0xe8>
    96bc:	e3530000 	cmp	r3, #0, 0
    96c0:	11a00002 	movne	r0, r2
    96c4:	13a0e000 	movne	lr, #0, 0
    96c8:	e3a04000 	mov	r4, #0, 0
    96cc:	e3a05000 	mov	r5, #0, 0
    96d0:	e0411003 	sub	r1, r1, r3
    96d4:	01a00002 	moveq	r0, r2
    96d8:	e0823103 	add	r3, r2, r3, lsl #2
    96dc:	e1a020a1 	lsr	r2, r1, #1
    96e0:	1480e004 	strne	lr, [r0], #4
    96e4:	e0832182 	add	r2, r3, r2, lsl #3
    96e8:	e0c340f8 	strd	r4, [r3], #8
    96ec:	e1520003 	cmp	r2, r3
    96f0:	1afffffc 	bne	96e8 <_cstart+0x64>
    96f4:	e3c13001 	bic	r3, r1, #1, 0
    96f8:	e1510003 	cmp	r1, r3
    96fc:	e0803103 	add	r3, r0, r3, lsl #2
    9700:	0a000014 	beq	9758 <_cstart+0xd4>
    9704:	e1a01003 	mov	r1, r3
    9708:	e3a02000 	mov	r2, #0, 0
    970c:	e4812004 	str	r2, [r1], #4
    9710:	e151000c 	cmp	r1, ip
    9714:	2a00000f 	bcs	9758 <_cstart+0xd4>
    9718:	e2831008 	add	r1, r3, #8, 0
    971c:	e151000c 	cmp	r1, ip
    9720:	e5832004 	str	r2, [r3, #4]
    9724:	2a00000b 	bcs	9758 <_cstart+0xd4>
    9728:	e283100c 	add	r1, r3, #12, 0
    972c:	e151000c 	cmp	r1, ip
    9730:	e5832008 	str	r2, [r3, #8]
    9734:	2a000007 	bcs	9758 <_cstart+0xd4>
    9738:	e2831010 	add	r1, r3, #16, 0
    973c:	e151000c 	cmp	r1, ip
    9740:	e583200c 	str	r2, [r3, #12]
    9744:	2a000003 	bcs	9758 <_cstart+0xd4>
    9748:	e2831014 	add	r1, r3, #20, 0
    974c:	e151000c 	cmp	r1, ip
    9750:	e5832010 	str	r2, [r3, #16]
    9754:	35832014 	strcc	r2, [r3, #20]
    9758:	eb000082 	bl	9968 <uart_init>
    975c:	e3a03001 	mov	r3, #1, 0
    9760:	ee0f3f1c 	mcr	15, 0, r3, cr15, cr12, {0}
    9764:	ebfffa67 	bl	8108 <notmain>
    9768:	ebffffba 	bl	9658 <clean_reboot>
    976c:	e1a03002 	mov	r3, r2
    9770:	eaffffe3 	b	9704 <_cstart+0x80>
    9774:	0000a9c8 	andeq	sl, r0, r8, asr #19
    9778:	0000adf0 	strdeq	sl, [r0], -r0

0000977c <custom_loader>:
    977c:	e12fff1e 	bx	lr

00009780 <at_user_level>:
    9780:	e10f0000 	mrs	r0, CPSR
    9784:	e200001f 	and	r0, r0, #31, 0
    9788:	e2400010 	sub	r0, r0, #16, 0
    978c:	e16f0f10 	clz	r0, r0
    9790:	e1a002a0 	lsr	r0, r0, #5
    9794:	e12fff1e 	bx	lr

00009798 <set_user_level>:
    9798:	e10f3000 	mrs	r3, CPSR
    979c:	e3c3301f 	bic	r3, r3, #31, 0
    97a0:	e3833010 	orr	r3, r3, #16, 0
    97a4:	e129f003 	msr	CPSR_fc, r3
    97a8:	e12fff1e 	bx	lr

000097ac <rpi_reboot>:
    97ac:	e92d4010 	push	{r4, lr}
    97b0:	e10f3000 	mrs	r3, CPSR
    97b4:	e203301f 	and	r3, r3, #31, 0
    97b8:	e3530010 	cmp	r3, #16, 0
    97bc:	1a000003 	bne	97d0 <rpi_reboot+0x24>
    97c0:	e10f3000 	mrs	r3, CPSR
    97c4:	e3c3301f 	bic	r3, r3, #31, 0
    97c8:	e3833010 	orr	r3, r3, #16, 0
    97cc:	e129f003 	msr	CPSR_fc, r3
    97d0:	eb00025f 	bl	a154 <reboot_callout>
    97d4:	eb0000c1 	bl	9ae0 <uart_flush_tx>
    97d8:	e3a0000a 	mov	r0, #10, 0
    97dc:	eb000028 	bl	9884 <delay_ms>
    97e0:	e59f1014 	ldr	r1, [pc, #20]	; 97fc <rpi_reboot+0x50>
    97e4:	e59f0014 	ldr	r0, [pc, #20]	; 9800 <rpi_reboot+0x54>
    97e8:	ebfffa0d 	bl	8024 <PUT32>
    97ec:	e59f1010 	ldr	r1, [pc, #16]	; 9804 <rpi_reboot+0x58>
    97f0:	e59f0010 	ldr	r0, [pc, #16]	; 9808 <rpi_reboot+0x5c>
    97f4:	ebfffa0a 	bl	8024 <PUT32>
    97f8:	eafffffe 	b	97f8 <rpi_reboot+0x4c>
    97fc:	5a000001 	bpl	9808 <rpi_reboot+0x5c>
    9800:	20100024 	andscs	r0, r0, r4, lsr #32
    9804:	5a000020 	bpl	988c <delay_ms+0x8>
    9808:	2010001c 	andscs	r0, r0, ip, lsl r0

0000980c <timer_get_usec_raw>:
    980c:	e59f0000 	ldr	r0, [pc]	; 9814 <timer_get_usec_raw+0x8>
    9810:	eafffa05 	b	802c <GET32>
    9814:	20003004 	andcs	r3, r0, r4

00009818 <timer_get_usec>:
    9818:	e92d4010 	push	{r4, lr}
    981c:	eb00024d 	bl	a158 <dev_barrier>
    9820:	e59f0010 	ldr	r0, [pc, #16]	; 9838 <timer_get_usec+0x20>
    9824:	ebfffa00 	bl	802c <GET32>
    9828:	e1a04000 	mov	r4, r0
    982c:	eb000249 	bl	a158 <dev_barrier>
    9830:	e1a00004 	mov	r0, r4
    9834:	e8bd8010 	pop	{r4, pc}
    9838:	20003004 	andcs	r3, r0, r4

0000983c <delay_us>:
    983c:	e92d41f0 	push	{r4, r5, r6, r7, r8, lr}
    9840:	e1a06000 	mov	r6, r0
    9844:	eb000243 	bl	a158 <dev_barrier>
    9848:	e59f0030 	ldr	r0, [pc, #48]	; 9880 <delay_us+0x44>
    984c:	ebfff9f6 	bl	802c <GET32>
    9850:	e1a05000 	mov	r5, r0
    9854:	eb00023f 	bl	a158 <dev_barrier>
    9858:	e59f7020 	ldr	r7, [pc, #32]	; 9880 <delay_us+0x44>
    985c:	eb00023d 	bl	a158 <dev_barrier>
    9860:	e1a00007 	mov	r0, r7
    9864:	ebfff9f0 	bl	802c <GET32>
    9868:	e1a04000 	mov	r4, r0
    986c:	e0444005 	sub	r4, r4, r5
    9870:	eb000238 	bl	a158 <dev_barrier>
    9874:	e1540006 	cmp	r4, r6
    9878:	3afffff7 	bcc	985c <delay_us+0x20>
    987c:	e8bd81f0 	pop	{r4, r5, r6, r7, r8, pc}
    9880:	20003004 	andcs	r3, r0, r4

00009884 <delay_ms>:
    9884:	e92d41f0 	push	{r4, r5, r6, r7, r8, lr}
    9888:	e0604280 	rsb	r4, r0, r0, lsl #5
    988c:	e0800104 	add	r0, r0, r4, lsl #2
    9890:	e1a04180 	lsl	r4, r0, #3
    9894:	eb00022f 	bl	a158 <dev_barrier>
    9898:	e59f0030 	ldr	r0, [pc, #48]	; 98d0 <delay_ms+0x4c>
    989c:	ebfff9e2 	bl	802c <GET32>
    98a0:	e1a06000 	mov	r6, r0
    98a4:	eb00022b 	bl	a158 <dev_barrier>
    98a8:	e59f7020 	ldr	r7, [pc, #32]	; 98d0 <delay_ms+0x4c>
    98ac:	eb000229 	bl	a158 <dev_barrier>
    98b0:	e1a00007 	mov	r0, r7
    98b4:	ebfff9dc 	bl	802c <GET32>
    98b8:	e1a05000 	mov	r5, r0
    98bc:	e0455006 	sub	r5, r5, r6
    98c0:	eb000224 	bl	a158 <dev_barrier>
    98c4:	e1540005 	cmp	r4, r5
    98c8:	8afffff7 	bhi	98ac <delay_ms+0x28>
    98cc:	e8bd81f0 	pop	{r4, r5, r6, r7, r8, pc}
    98d0:	20003004 	andcs	r3, r0, r4

000098d4 <delay_sec>:
    98d4:	e92d41f0 	push	{r4, r5, r6, r7, r8, lr}
    98d8:	e0604280 	rsb	r4, r0, r0, lsl #5
    98dc:	e0644304 	rsb	r4, r4, r4, lsl #6
    98e0:	e0800184 	add	r0, r0, r4, lsl #3
    98e4:	e1a04300 	lsl	r4, r0, #6
    98e8:	eb00021a 	bl	a158 <dev_barrier>
    98ec:	e59f0030 	ldr	r0, [pc, #48]	; 9924 <delay_sec+0x50>
    98f0:	ebfff9cd 	bl	802c <GET32>
    98f4:	e1a06000 	mov	r6, r0
    98f8:	eb000216 	bl	a158 <dev_barrier>
    98fc:	e59f7020 	ldr	r7, [pc, #32]	; 9924 <delay_sec+0x50>
    9900:	eb000214 	bl	a158 <dev_barrier>
    9904:	e1a00007 	mov	r0, r7
    9908:	ebfff9c7 	bl	802c <GET32>
    990c:	e1a05000 	mov	r5, r0
    9910:	e0455006 	sub	r5, r5, r6
    9914:	eb00020f 	bl	a158 <dev_barrier>
    9918:	e1540005 	cmp	r4, r5
    991c:	8afffff7 	bhi	9900 <delay_sec+0x2c>
    9920:	e8bd81f0 	pop	{r4, r5, r6, r7, r8, pc}
    9924:	20003004 	andcs	r3, r0, r4

00009928 <and_in32>:
    9928:	e92d4070 	push	{r4, r5, r6, lr}
    992c:	e1a04000 	mov	r4, r0
    9930:	e1a05001 	mov	r5, r1
    9934:	ebfff9bc 	bl	802c <GET32>
    9938:	e0001005 	and	r1, r0, r5
    993c:	e1a00004 	mov	r0, r4
    9940:	ebfff9b7 	bl	8024 <PUT32>
    9944:	e8bd8070 	pop	{r4, r5, r6, pc}

00009948 <or_in32>:
    9948:	e92d4070 	push	{r4, r5, r6, lr}
    994c:	e1a04000 	mov	r4, r0
    9950:	e1a05001 	mov	r5, r1
    9954:	ebfff9b4 	bl	802c <GET32>
    9958:	e1801005 	orr	r1, r0, r5
    995c:	e1a00004 	mov	r0, r4
    9960:	ebfff9af 	bl	8024 <PUT32>
    9964:	e8bd8070 	pop	{r4, r5, r6, pc}

00009968 <uart_init>:
    9968:	e92d4010 	push	{r4, lr}
    996c:	e3a01002 	mov	r1, #2, 0
    9970:	e3a0000e 	mov	r0, #14, 0
    9974:	eb000153 	bl	9ec8 <gpio_set_function>
    9978:	e3a01002 	mov	r1, #2, 0
    997c:	e3a0000f 	mov	r0, #15, 0
    9980:	eb000150 	bl	9ec8 <gpio_set_function>
    9984:	eb0001f3 	bl	a158 <dev_barrier>
    9988:	e3a01001 	mov	r1, #1, 0
    998c:	e59f0064 	ldr	r0, [pc, #100]	; 99f8 <uart_init+0x90>
    9990:	ebffffec 	bl	9948 <or_in32>
    9994:	eb0001ef 	bl	a158 <dev_barrier>
    9998:	e59f405c 	ldr	r4, [pc, #92]	; 99fc <uart_init+0x94>
    999c:	e3a01000 	mov	r1, #0, 0
    99a0:	e1a00004 	mov	r0, r4
    99a4:	ebfff99e 	bl	8024 <PUT32>
    99a8:	e3a01000 	mov	r1, #0, 0
    99ac:	e59f004c 	ldr	r0, [pc, #76]	; 9a00 <uart_init+0x98>
    99b0:	ebfff99b 	bl	8024 <PUT32>
    99b4:	e3a01003 	mov	r1, #3, 0
    99b8:	e59f0044 	ldr	r0, [pc, #68]	; 9a04 <uart_init+0x9c>
    99bc:	ebfff998 	bl	8024 <PUT32>
    99c0:	e3a01000 	mov	r1, #0, 0
    99c4:	e59f003c 	ldr	r0, [pc, #60]	; 9a08 <uart_init+0xa0>
    99c8:	ebfff995 	bl	8024 <PUT32>
    99cc:	e3a010c7 	mov	r1, #199, 0	; 0xc7
    99d0:	e59f0034 	ldr	r0, [pc, #52]	; 9a0c <uart_init+0xa4>
    99d4:	ebfff992 	bl	8024 <PUT32>
    99d8:	e59f1030 	ldr	r1, [pc, #48]	; 9a10 <uart_init+0xa8>
    99dc:	e59f0030 	ldr	r0, [pc, #48]	; 9a14 <uart_init+0xac>
    99e0:	ebfff98f 	bl	8024 <PUT32>
    99e4:	e3a01003 	mov	r1, #3, 0
    99e8:	e1a00004 	mov	r0, r4
    99ec:	ebfff98c 	bl	8024 <PUT32>
    99f0:	eb0001d8 	bl	a158 <dev_barrier>
    99f4:	e8bd8010 	pop	{r4, pc}
    99f8:	20215004 	eorcs	r5, r1, r4
    99fc:	20215060 	eorcs	r5, r1, r0, rrx
    9a00:	20215044 	eorcs	r5, r1, r4, asr #32
    9a04:	2021504c 	eorcs	r5, r1, ip, asr #32
    9a08:	20215050 	eorcs	r5, r1, r0, asr r0
    9a0c:	20215048 	eorcs	r5, r1, r8, asr #32
    9a10:	0000010e 	andeq	r0, r0, lr, lsl #2
    9a14:	20215068 	eorcs	r5, r1, r8, rrx

00009a18 <uart_can_getc>:
    9a18:	e92d4010 	push	{r4, lr}
    9a1c:	e59f0008 	ldr	r0, [pc, #8]	; 9a2c <uart_can_getc+0x14>
    9a20:	ebfff981 	bl	802c <GET32>
    9a24:	e2000001 	and	r0, r0, #1, 0
    9a28:	e8bd8010 	pop	{r4, pc}
    9a2c:	20215064 	eorcs	r5, r1, r4, rrx

00009a30 <uart_can_putc>:
    9a30:	e92d4010 	push	{r4, lr}
    9a34:	e59f0010 	ldr	r0, [pc, #16]	; 9a4c <uart_can_putc+0x1c>
    9a38:	ebfff97b 	bl	802c <GET32>
    9a3c:	e3100002 	tst	r0, #2, 0
    9a40:	13a00001 	movne	r0, #1, 0
    9a44:	03a00000 	moveq	r0, #0, 0
    9a48:	e8bd8010 	pop	{r4, pc}
    9a4c:	20215064 	eorcs	r5, r1, r4, rrx

00009a50 <uart_getc>:
    9a50:	e92d4010 	push	{r4, lr}
    9a54:	eb0001bf 	bl	a158 <dev_barrier>
    9a58:	ebffffee 	bl	9a18 <uart_can_getc>
    9a5c:	e3500000 	cmp	r0, #0, 0
    9a60:	0afffffc 	beq	9a58 <uart_getc+0x8>
    9a64:	e59f0010 	ldr	r0, [pc, #16]	; 9a7c <uart_getc+0x2c>
    9a68:	ebfff96f 	bl	802c <GET32>
    9a6c:	e6ef4070 	uxtb	r4, r0
    9a70:	eb0001b8 	bl	a158 <dev_barrier>
    9a74:	e1a00004 	mov	r0, r4
    9a78:	e8bd8010 	pop	{r4, pc}
    9a7c:	20215040 	eorcs	r5, r1, r0, asr #32

00009a80 <uart_putc>:
    9a80:	e92d4010 	push	{r4, lr}
    9a84:	e1a04000 	mov	r4, r0
    9a88:	eb0001b2 	bl	a158 <dev_barrier>
    9a8c:	ebffffe7 	bl	9a30 <uart_can_putc>
    9a90:	e3500000 	cmp	r0, #0, 0
    9a94:	0afffffc 	beq	9a8c <uart_putc+0xc>
    9a98:	e6ef1074 	uxtb	r1, r4
    9a9c:	e59f0008 	ldr	r0, [pc, #8]	; 9aac <uart_putc+0x2c>
    9aa0:	ebfff95f 	bl	8024 <PUT32>
    9aa4:	eb0001ab 	bl	a158 <dev_barrier>
    9aa8:	e8bd8010 	pop	{r4, pc}
    9aac:	20215040 	eorcs	r5, r1, r0, asr #32

00009ab0 <uart_has_data>:
    9ab0:	e92d4010 	push	{r4, lr}
    9ab4:	eb0001a7 	bl	a158 <dev_barrier>
    9ab8:	ebffffd6 	bl	9a18 <uart_can_getc>
    9abc:	e8bd8010 	pop	{r4, pc}

00009ac0 <uart_tx_is_empty>:
    9ac0:	e92d4010 	push	{r4, lr}
    9ac4:	eb0001a3 	bl	a158 <dev_barrier>
    9ac8:	e59f000c 	ldr	r0, [pc, #12]	; 9adc <uart_tx_is_empty+0x1c>
    9acc:	ebfff956 	bl	802c <GET32>
    9ad0:	e1a004a0 	lsr	r0, r0, #9
    9ad4:	e2000001 	and	r0, r0, #1, 0
    9ad8:	e8bd8010 	pop	{r4, pc}
    9adc:	20215064 	eorcs	r5, r1, r4, rrx

00009ae0 <uart_flush_tx>:
    9ae0:	e92d4010 	push	{r4, lr}
    9ae4:	ebfffff5 	bl	9ac0 <uart_tx_is_empty>
    9ae8:	e3500000 	cmp	r0, #0, 0
    9aec:	0afffffc 	beq	9ae4 <uart_flush_tx+0x4>
    9af0:	e8bd8010 	pop	{r4, pc}

00009af4 <uart_disable>:
    9af4:	e92d4010 	push	{r4, lr}
    9af8:	ebfffff8 	bl	9ae0 <uart_flush_tx>
    9afc:	eb000195 	bl	a158 <dev_barrier>
    9b00:	e3e01001 	mvn	r1, #1, 0
    9b04:	e59f0008 	ldr	r0, [pc, #8]	; 9b14 <uart_disable+0x20>
    9b08:	ebffff86 	bl	9928 <and_in32>
    9b0c:	eb000191 	bl	a158 <dev_barrier>
    9b10:	e8bd8010 	pop	{r4, pc}
    9b14:	20215004 	eorcs	r5, r1, r4

00009b18 <kmalloc_heap_end>:
    9b18:	e59f3004 	ldr	r3, [pc, #4]	; 9b24 <kmalloc_heap_end+0xc>
    9b1c:	e5930000 	ldr	r0, [r3]
    9b20:	e12fff1e 	bx	lr
    9b24:	0000a9b4 			; <UNDEFINED> instruction: 0x0000a9b4

00009b28 <kmalloc_heap_start>:
    9b28:	e59f3004 	ldr	r3, [pc, #4]	; 9b34 <kmalloc_heap_start+0xc>
    9b2c:	e5930004 	ldr	r0, [r3, #4]
    9b30:	e12fff1e 	bx	lr
    9b34:	0000a9b4 			; <UNDEFINED> instruction: 0x0000a9b4

00009b38 <kmalloc_heap_ptr>:
    9b38:	e59f3004 	ldr	r3, [pc, #4]	; 9b44 <kmalloc_heap_ptr+0xc>
    9b3c:	e5930000 	ldr	r0, [r3]
    9b40:	e12fff1e 	bx	lr
    9b44:	0000a9b4 			; <UNDEFINED> instruction: 0x0000a9b4

00009b48 <kmalloc_init_set_start>:
    9b48:	e52de004 	push	{lr}		; (str lr, [sp, #-4]!)
    9b4c:	e24dd00c 	sub	sp, sp, #12, 0
    9b50:	e3510000 	cmp	r1, #0, 0
    9b54:	0a00000a 	beq	9b84 <kmalloc_init_set_start+0x3c>
    9b58:	e59f306c 	ldr	r3, [pc, #108]	; 9bcc <kmalloc_init_set_start+0x84>
    9b5c:	e5933000 	ldr	r3, [r3]
    9b60:	e1530000 	cmp	r3, r0
    9b64:	8a00000e 	bhi	9ba4 <kmalloc_init_set_start+0x5c>
    9b68:	e59f305c 	ldr	r3, [pc, #92]	; 9bcc <kmalloc_init_set_start+0x84>
    9b6c:	e5830000 	str	r0, [r3]
    9b70:	e5830004 	str	r0, [r3, #4]
    9b74:	e0800001 	add	r0, r0, r1
    9b78:	e5830008 	str	r0, [r3, #8]
    9b7c:	e28dd00c 	add	sp, sp, #12, 0
    9b80:	e49df004 	pop	{pc}		; (ldr pc, [sp], #4)
    9b84:	e59f3044 	ldr	r3, [pc, #68]	; 9bd0 <kmalloc_init_set_start+0x88>
    9b88:	e58d3000 	str	r3, [sp]
    9b8c:	e3a03030 	mov	r3, #48, 0	; 0x30
    9b90:	e59f203c 	ldr	r2, [pc, #60]	; 9bd4 <kmalloc_init_set_start+0x8c>
    9b94:	e59f103c 	ldr	r1, [pc, #60]	; 9bd8 <kmalloc_init_set_start+0x90>
    9b98:	e59f003c 	ldr	r0, [pc, #60]	; 9bdc <kmalloc_init_set_start+0x94>
    9b9c:	ebfffc1c 	bl	8c14 <printk>
    9ba0:	ebfffeac 	bl	9658 <clean_reboot>
    9ba4:	e59f3020 	ldr	r3, [pc, #32]	; 9bcc <kmalloc_init_set_start+0x84>
    9ba8:	e5933008 	ldr	r3, [r3, #8]
    9bac:	e58d3004 	str	r3, [sp, #4]
    9bb0:	e58d0000 	str	r0, [sp]
    9bb4:	e3a03034 	mov	r3, #52, 0	; 0x34
    9bb8:	e59f2014 	ldr	r2, [pc, #20]	; 9bd4 <kmalloc_init_set_start+0x8c>
    9bbc:	e59f1014 	ldr	r1, [pc, #20]	; 9bd8 <kmalloc_init_set_start+0x90>
    9bc0:	e59f0018 	ldr	r0, [pc, #24]	; 9be0 <kmalloc_init_set_start+0x98>
    9bc4:	ebfffc12 	bl	8c14 <printk>
    9bc8:	ebfffea2 	bl	9658 <clean_reboot>
    9bcc:	0000a9b4 			; <UNDEFINED> instruction: 0x0000a9b4
    9bd0:	0000a7c0 	andeq	sl, r0, r0, asr #15
    9bd4:	0000a94c 	andeq	sl, r0, ip, asr #18
    9bd8:	0000a7b4 			; <UNDEFINED> instruction: 0x0000a7b4
    9bdc:	0000a184 	andeq	sl, r0, r4, lsl #3
    9be0:	0000a7cc 	andeq	sl, r0, ip, asr #15

00009be4 <kmalloc_init>:
    9be4:	e92d4010 	push	{r4, lr}
    9be8:	e59f303c 	ldr	r3, [pc, #60]	; 9c2c <kmalloc_init+0x48>
    9bec:	e5933000 	ldr	r3, [r3]
    9bf0:	e3530000 	cmp	r3, #0, 0
    9bf4:	1a000006 	bne	9c14 <kmalloc_init+0x30>
    9bf8:	e59f302c 	ldr	r3, [pc, #44]	; 9c2c <kmalloc_init+0x48>
    9bfc:	e3a02001 	mov	r2, #1, 0
    9c00:	e5832000 	str	r2, [r3]
    9c04:	e3a01201 	mov	r1, #268435456	; 0x10000000
    9c08:	e3a00601 	mov	r0, #1048576	; 0x100000
    9c0c:	ebffffcd 	bl	9b48 <kmalloc_init_set_start>
    9c10:	e8bd8010 	pop	{r4, pc}
    9c14:	e3a03040 	mov	r3, #64, 0	; 0x40
    9c18:	e59f2010 	ldr	r2, [pc, #16]	; 9c30 <kmalloc_init+0x4c>
    9c1c:	e59f1010 	ldr	r1, [pc, #16]	; 9c34 <kmalloc_init+0x50>
    9c20:	e59f0010 	ldr	r0, [pc, #16]	; 9c38 <kmalloc_init+0x54>
    9c24:	ebfffbfa 	bl	8c14 <printk>
    9c28:	ebfffe8a 	bl	9658 <clean_reboot>
    9c2c:	0000adec 	andeq	sl, r0, ip, ror #27
    9c30:	0000a964 	andeq	sl, r0, r4, ror #18
    9c34:	0000a7b4 			; <UNDEFINED> instruction: 0x0000a7b4
    9c38:	0000a810 	andeq	sl, r0, r0, lsl r8

00009c3c <kmalloc_notzero>:
    9c3c:	e52de004 	push	{lr}		; (str lr, [sp, #-4]!)
    9c40:	e24dd00c 	sub	sp, sp, #12, 0
    9c44:	e3500000 	cmp	r0, #0, 0
    9c48:	0a00000a 	beq	9c78 <kmalloc_notzero+0x3c>
    9c4c:	e2800007 	add	r0, r0, #7, 0
    9c50:	e3c03007 	bic	r3, r0, #7, 0
    9c54:	e59f2060 	ldr	r2, [pc, #96]	; 9cbc <kmalloc_notzero+0x80>
    9c58:	e5920000 	ldr	r0, [r2]
    9c5c:	e0801003 	add	r1, r0, r3
    9c60:	e5821000 	str	r1, [r2]
    9c64:	e5922008 	ldr	r2, [r2, #8]
    9c68:	e1510002 	cmp	r1, r2
    9c6c:	8a000009 	bhi	9c98 <kmalloc_notzero+0x5c>
    9c70:	e28dd00c 	add	sp, sp, #12, 0
    9c74:	e49df004 	pop	{pc}		; (ldr pc, [sp], #4)
    9c78:	e59f3040 	ldr	r3, [pc, #64]	; 9cc0 <kmalloc_notzero+0x84>
    9c7c:	e58d3000 	str	r3, [sp]
    9c80:	e3a03048 	mov	r3, #72, 0	; 0x48
    9c84:	e59f2038 	ldr	r2, [pc, #56]	; 9cc4 <kmalloc_notzero+0x88>
    9c88:	e59f1038 	ldr	r1, [pc, #56]	; 9cc8 <kmalloc_notzero+0x8c>
    9c8c:	e59f0038 	ldr	r0, [pc, #56]	; 9ccc <kmalloc_notzero+0x90>
    9c90:	ebfffbdf 	bl	8c14 <printk>
    9c94:	ebfffe6f 	bl	9658 <clean_reboot>
    9c98:	e0422000 	sub	r2, r2, r0
    9c9c:	e58d2004 	str	r2, [sp, #4]
    9ca0:	e58d3000 	str	r3, [sp]
    9ca4:	e3a0304e 	mov	r3, #78, 0	; 0x4e
    9ca8:	e59f2014 	ldr	r2, [pc, #20]	; 9cc4 <kmalloc_notzero+0x88>
    9cac:	e59f1014 	ldr	r1, [pc, #20]	; 9cc8 <kmalloc_notzero+0x8c>
    9cb0:	e59f0018 	ldr	r0, [pc, #24]	; 9cd0 <kmalloc_notzero+0x94>
    9cb4:	ebfffbd6 	bl	8c14 <printk>
    9cb8:	ebfffe66 	bl	9658 <clean_reboot>
    9cbc:	0000a9b4 			; <UNDEFINED> instruction: 0x0000a9b4
    9cc0:	0000a7c4 	andeq	sl, r0, r4, asr #15
    9cc4:	0000a974 	andeq	sl, r0, r4, ror r9
    9cc8:	0000a7b4 			; <UNDEFINED> instruction: 0x0000a7b4
    9ccc:	0000a184 	andeq	sl, r0, r4, lsl #3
    9cd0:	0000a840 	andeq	sl, r0, r0, asr #16

00009cd4 <kmalloc>:
    9cd4:	e92d4030 	push	{r4, r5, lr}
    9cd8:	e24dd00c 	sub	sp, sp, #12, 0
    9cdc:	e2504000 	subs	r4, r0, #0, 0
    9ce0:	0a000008 	beq	9d08 <kmalloc+0x34>
    9ce4:	e1a00004 	mov	r0, r4
    9ce8:	ebffffd3 	bl	9c3c <kmalloc_notzero>
    9cec:	e1a05000 	mov	r5, r0
    9cf0:	e1a02004 	mov	r2, r4
    9cf4:	e3a01000 	mov	r1, #0, 0
    9cf8:	ebfffba7 	bl	8b9c <memset>
    9cfc:	e1a00005 	mov	r0, r5
    9d00:	e28dd00c 	add	sp, sp, #12, 0
    9d04:	e8bd8030 	pop	{r4, r5, pc}
    9d08:	e59f3018 	ldr	r3, [pc, #24]	; 9d28 <kmalloc+0x54>
    9d0c:	e58d3000 	str	r3, [sp]
    9d10:	e3a03054 	mov	r3, #84, 0	; 0x54
    9d14:	e59f2010 	ldr	r2, [pc, #16]	; 9d2c <kmalloc+0x58>
    9d18:	e59f1010 	ldr	r1, [pc, #16]	; 9d30 <kmalloc+0x5c>
    9d1c:	e59f0010 	ldr	r0, [pc, #16]	; 9d34 <kmalloc+0x60>
    9d20:	ebfffbbb 	bl	8c14 <printk>
    9d24:	ebfffe4b 	bl	9658 <clean_reboot>
    9d28:	0000a7c4 	andeq	sl, r0, r4, asr #15
    9d2c:	0000a984 	andeq	sl, r0, r4, lsl #19
    9d30:	0000a7b4 			; <UNDEFINED> instruction: 0x0000a7b4
    9d34:	0000a184 	andeq	sl, r0, r4, lsl #3

00009d38 <kmalloc_aligned>:
    9d38:	e52de004 	push	{lr}		; (str lr, [sp, #-4]!)
    9d3c:	e24dd00c 	sub	sp, sp, #12, 0
    9d40:	e3500000 	cmp	r0, #0, 0
    9d44:	0a000014 	beq	9d9c <kmalloc_aligned+0x64>
    9d48:	e2613000 	rsb	r3, r1, #0, 0
    9d4c:	e1d13003 	bics	r3, r1, r3
    9d50:	1a000019 	bne	9dbc <kmalloc_aligned+0x84>
    9d54:	e3510008 	cmp	r1, #8, 0
    9d58:	33a01008 	movcc	r1, #8, 0
    9d5c:	e59f30c0 	ldr	r3, [pc, #192]	; 9e24 <kmalloc_aligned+0xec>
    9d60:	e5932000 	ldr	r2, [r3]
    9d64:	e2613000 	rsb	r3, r1, #0, 0
    9d68:	e1d1c003 	bics	ip, r1, r3
    9d6c:	1a00001b 	bne	9de0 <kmalloc_aligned+0xa8>
    9d70:	e0822001 	add	r2, r2, r1
    9d74:	e2422001 	sub	r2, r2, #1, 0
    9d78:	e0033002 	and	r3, r3, r2
    9d7c:	e2411001 	sub	r1, r1, #1, 0
    9d80:	e1110003 	tst	r1, r3
    9d84:	1a00001d 	bne	9e00 <kmalloc_aligned+0xc8>
    9d88:	e59f2094 	ldr	r2, [pc, #148]	; 9e24 <kmalloc_aligned+0xec>
    9d8c:	e5823000 	str	r3, [r2]
    9d90:	ebffffcf 	bl	9cd4 <kmalloc>
    9d94:	e28dd00c 	add	sp, sp, #12, 0
    9d98:	e49df004 	pop	{pc}		; (ldr pc, [sp], #4)
    9d9c:	e59f3084 	ldr	r3, [pc, #132]	; 9e28 <kmalloc_aligned+0xf0>
    9da0:	e58d3000 	str	r3, [sp]
    9da4:	e3a0305f 	mov	r3, #95, 0	; 0x5f
    9da8:	e59f207c 	ldr	r2, [pc, #124]	; 9e2c <kmalloc_aligned+0xf4>
    9dac:	e59f107c 	ldr	r1, [pc, #124]	; 9e30 <kmalloc_aligned+0xf8>
    9db0:	e59f007c 	ldr	r0, [pc, #124]	; 9e34 <kmalloc_aligned+0xfc>
    9db4:	ebfffb96 	bl	8c14 <printk>
    9db8:	ebfffe26 	bl	9658 <clean_reboot>
    9dbc:	eb0000ac 	bl	a074 <rpi_reset_putc>
    9dc0:	e59f3070 	ldr	r3, [pc, #112]	; 9e38 <kmalloc_aligned+0x100>
    9dc4:	e58d3000 	str	r3, [sp]
    9dc8:	e3a03060 	mov	r3, #96, 0	; 0x60
    9dcc:	e59f2058 	ldr	r2, [pc, #88]	; 9e2c <kmalloc_aligned+0xf4>
    9dd0:	e59f1058 	ldr	r1, [pc, #88]	; 9e30 <kmalloc_aligned+0xf8>
    9dd4:	e59f0060 	ldr	r0, [pc, #96]	; 9e3c <kmalloc_aligned+0x104>
    9dd8:	ebfffb8d 	bl	8c14 <printk>
    9ddc:	ebfffe1d 	bl	9658 <clean_reboot>
    9de0:	e59f3058 	ldr	r3, [pc, #88]	; 9e40 <kmalloc_aligned+0x108>
    9de4:	e58d3000 	str	r3, [sp]
    9de8:	e3a03011 	mov	r3, #17, 0
    9dec:	e59f2050 	ldr	r2, [pc, #80]	; 9e44 <kmalloc_aligned+0x10c>
    9df0:	e59f1038 	ldr	r1, [pc, #56]	; 9e30 <kmalloc_aligned+0xf8>
    9df4:	e59f0038 	ldr	r0, [pc, #56]	; 9e34 <kmalloc_aligned+0xfc>
    9df8:	ebfffb85 	bl	8c14 <printk>
    9dfc:	ebfffe15 	bl	9658 <clean_reboot>
    9e00:	eb00009b 	bl	a074 <rpi_reset_putc>
    9e04:	e59f303c 	ldr	r3, [pc, #60]	; 9e48 <kmalloc_aligned+0x110>
    9e08:	e58d3000 	str	r3, [sp]
    9e0c:	e3a03068 	mov	r3, #104, 0	; 0x68
    9e10:	e59f2014 	ldr	r2, [pc, #20]	; 9e2c <kmalloc_aligned+0xf4>
    9e14:	e59f1014 	ldr	r1, [pc, #20]	; 9e30 <kmalloc_aligned+0xf8>
    9e18:	e59f002c 	ldr	r0, [pc, #44]	; 9e4c <kmalloc_aligned+0x114>
    9e1c:	ebfffb7c 	bl	8c14 <printk>
    9e20:	ebfffe0c 	bl	9658 <clean_reboot>
    9e24:	0000a9b4 			; <UNDEFINED> instruction: 0x0000a9b4
    9e28:	0000a7c4 	andeq	sl, r0, r4, asr #15
    9e2c:	0000a98c 	andeq	sl, r0, ip, lsl #19
    9e30:	0000a7b4 			; <UNDEFINED> instruction: 0x0000a7b4
    9e34:	0000a184 	andeq	sl, r0, r4, lsl #3
    9e38:	0000a8b4 			; <UNDEFINED> instruction: 0x0000a8b4
    9e3c:	0000a880 	andeq	sl, r0, r0, lsl #17
    9e40:	0000a8c8 	andeq	sl, r0, r8, asr #17
    9e44:	0000a99c 	muleq	r0, ip, r9
    9e48:	0000a900 	andeq	sl, r0, r0, lsl #18
    9e4c:	0000a8d4 	ldrdeq	sl, [r0], -r4

00009e50 <kfree>:
    9e50:	e12fff1e 	bx	lr

00009e54 <kfree_all>:
    9e54:	e59f3008 	ldr	r3, [pc, #8]	; 9e64 <kfree_all+0x10>
    9e58:	e5932004 	ldr	r2, [r3, #4]
    9e5c:	e5832000 	str	r2, [r3]
    9e60:	e12fff1e 	bx	lr
    9e64:	0000a9b4 			; <UNDEFINED> instruction: 0x0000a9b4

00009e68 <kfree_pop>:
    9e68:	e59f3048 	ldr	r3, [pc, #72]	; 9eb8 <kfree_pop+0x50>
    9e6c:	e5933004 	ldr	r3, [r3, #4]
    9e70:	e1530000 	cmp	r3, r0
    9e74:	8a000006 	bhi	9e94 <kfree_pop+0x2c>
    9e78:	e59f3038 	ldr	r3, [pc, #56]	; 9eb8 <kfree_pop+0x50>
    9e7c:	e5933008 	ldr	r3, [r3, #8]
    9e80:	e1530000 	cmp	r3, r0
    9e84:	3a000002 	bcc	9e94 <kfree_pop+0x2c>
    9e88:	e59f3028 	ldr	r3, [pc, #40]	; 9eb8 <kfree_pop+0x50>
    9e8c:	e5830000 	str	r0, [r3]
    9e90:	e12fff1e 	bx	lr
    9e94:	e52de004 	push	{lr}		; (str lr, [sp, #-4]!)
    9e98:	e24dd00c 	sub	sp, sp, #12, 0
    9e9c:	e58d0000 	str	r0, [sp]
    9ea0:	e3a03077 	mov	r3, #119, 0	; 0x77
    9ea4:	e59f2010 	ldr	r2, [pc, #16]	; 9ebc <kfree_pop+0x54>
    9ea8:	e59f1010 	ldr	r1, [pc, #16]	; 9ec0 <kfree_pop+0x58>
    9eac:	e59f0010 	ldr	r0, [pc, #16]	; 9ec4 <kfree_pop+0x5c>
    9eb0:	ebfffb57 	bl	8c14 <printk>
    9eb4:	ebfffde7 	bl	9658 <clean_reboot>
    9eb8:	0000a9b4 			; <UNDEFINED> instruction: 0x0000a9b4
    9ebc:	0000a9a4 	andeq	sl, r0, r4, lsr #19
    9ec0:	0000a7b4 			; <UNDEFINED> instruction: 0x0000a7b4
    9ec4:	0000a91c 	andeq	sl, r0, ip, lsl r9

00009ec8 <gpio_set_function>:
    9ec8:	e350001f 	cmp	r0, #31, 0
    9ecc:	812fff1e 	bxhi	lr
    9ed0:	e3d13007 	bics	r3, r1, #7, 0
    9ed4:	e92d4070 	push	{r4, r5, r6, lr}
    9ed8:	e1a05001 	mov	r5, r1
    9edc:	18bd8070 	popne	{r4, r5, r6, pc}
    9ee0:	e59f403c 	ldr	r4, [pc, #60]	; 9f24 <gpio_set_function+0x5c>
    9ee4:	e0843094 	umull	r3, r4, r4, r0
    9ee8:	e1a041a4 	lsr	r4, r4, #3
    9eec:	e2843302 	add	r3, r4, #134217728	; 0x8000000
    9ef0:	e2833702 	add	r3, r3, #524288	; 0x80000
    9ef4:	e1a06103 	lsl	r6, r3, #2
    9ef8:	e0844104 	add	r4, r4, r4, lsl #2
    9efc:	e0404084 	sub	r4, r0, r4, lsl #1
    9f00:	e1a00006 	mov	r0, r6
    9f04:	ebfff848 	bl	802c <GET32>
    9f08:	e3a01007 	mov	r1, #7, 0
    9f0c:	e0844084 	add	r4, r4, r4, lsl #1
    9f10:	e1c01411 	bic	r1, r0, r1, lsl r4
    9f14:	e1811415 	orr	r1, r1, r5, lsl r4
    9f18:	e1a00006 	mov	r0, r6
    9f1c:	e8bd4070 	pop	{r4, r5, r6, lr}
    9f20:	eafff83f 	b	8024 <PUT32>
    9f24:	cccccccd 	stclgt	12, cr12, [ip], {205}	; 0xcd

00009f28 <gpio_set_output>:
    9f28:	e350001f 	cmp	r0, #31, 0
    9f2c:	812fff1e 	bxhi	lr
    9f30:	e92d4070 	push	{r4, r5, r6, lr}
    9f34:	e59f4040 	ldr	r4, [pc, #64]	; 9f7c <gpio_set_output+0x54>
    9f38:	e0843094 	umull	r3, r4, r4, r0
    9f3c:	e1a041a4 	lsr	r4, r4, #3
    9f40:	e2843302 	add	r3, r4, #134217728	; 0x8000000
    9f44:	e2833702 	add	r3, r3, #524288	; 0x80000
    9f48:	e1a05103 	lsl	r5, r3, #2
    9f4c:	e0844104 	add	r4, r4, r4, lsl #2
    9f50:	e0404084 	sub	r4, r0, r4, lsl #1
    9f54:	e1a00005 	mov	r0, r5
    9f58:	ebfff833 	bl	802c <GET32>
    9f5c:	e3a03007 	mov	r3, #7, 0
    9f60:	e3a01001 	mov	r1, #1, 0
    9f64:	e0844084 	add	r4, r4, r4, lsl #1
    9f68:	e1c03413 	bic	r3, r0, r3, lsl r4
    9f6c:	e1831411 	orr	r1, r3, r1, lsl r4
    9f70:	e1a00005 	mov	r0, r5
    9f74:	e8bd4070 	pop	{r4, r5, r6, lr}
    9f78:	eafff829 	b	8024 <PUT32>
    9f7c:	cccccccd 	stclgt	12, cr12, [ip], {205}	; 0xcd

00009f80 <gpio_set_on>:
    9f80:	e1a03000 	mov	r3, r0
    9f84:	e3a01001 	mov	r1, #1, 0
    9f88:	e59f0004 	ldr	r0, [pc, #4]	; 9f94 <gpio_set_on+0x14>
    9f8c:	e1a01311 	lsl	r1, r1, r3
    9f90:	eafff823 	b	8024 <PUT32>
    9f94:	2020001c 	eorcs	r0, r0, ip, lsl r0

00009f98 <gpio_set_off>:
    9f98:	e1a03000 	mov	r3, r0
    9f9c:	e3a01001 	mov	r1, #1, 0
    9fa0:	e59f0004 	ldr	r0, [pc, #4]	; 9fac <gpio_set_off+0x14>
    9fa4:	e1a01311 	lsl	r1, r1, r3
    9fa8:	eafff81d 	b	8024 <PUT32>
    9fac:	20200028 	eorcs	r0, r0, r8, lsr #32

00009fb0 <gpio_set_input>:
    9fb0:	e350001f 	cmp	r0, #31, 0
    9fb4:	812fff1e 	bxhi	lr
    9fb8:	e92d4070 	push	{r4, r5, r6, lr}
    9fbc:	e59f5040 	ldr	r5, [pc, #64]	; a004 <gpio_set_input+0x54>
    9fc0:	e1a04000 	mov	r4, r0
    9fc4:	e0853095 	umull	r3, r5, r5, r0
    9fc8:	e1a051a5 	lsr	r5, r5, #3
    9fcc:	e2850302 	add	r0, r5, #134217728	; 0x8000000
    9fd0:	e2800702 	add	r0, r0, #524288	; 0x80000
    9fd4:	e1a06100 	lsl	r6, r0, #2
    9fd8:	e1a00006 	mov	r0, r6
    9fdc:	ebfff812 	bl	802c <GET32>
    9fe0:	e3a01007 	mov	r1, #7, 0
    9fe4:	e1a03000 	mov	r3, r0
    9fe8:	e0855105 	add	r5, r5, r5, lsl #2
    9fec:	e0444085 	sub	r4, r4, r5, lsl #1
    9ff0:	e0844084 	add	r4, r4, r4, lsl #1
    9ff4:	e1a00006 	mov	r0, r6
    9ff8:	e1c31411 	bic	r1, r3, r1, lsl r4
    9ffc:	e8bd4070 	pop	{r4, r5, r6, lr}
    a000:	eafff807 	b	8024 <PUT32>
    a004:	cccccccd 	stclgt	12, cr12, [ip], {205}	; 0xcd

0000a008 <gpio_write>:
    a008:	e3510000 	cmp	r1, #0, 0
    a00c:	e3a03001 	mov	r3, #1, 0
    a010:	e1a01000 	mov	r1, r0
    a014:	0a000002 	beq	a024 <gpio_write+0x1c>
    a018:	e59f0010 	ldr	r0, [pc, #16]	; a030 <gpio_write+0x28>
    a01c:	e1a01113 	lsl	r1, r3, r1
    a020:	eafff7ff 	b	8024 <PUT32>
    a024:	e59f0008 	ldr	r0, [pc, #8]	; a034 <gpio_write+0x2c>
    a028:	e1a01113 	lsl	r1, r3, r1
    a02c:	eafff7fc 	b	8024 <PUT32>
    a030:	2020001c 	eorcs	r0, r0, ip, lsl r0
    a034:	20200028 	eorcs	r0, r0, r8, lsr #32

0000a038 <gpio_read>:
    a038:	e92d4010 	push	{r4, lr}
    a03c:	e1a04000 	mov	r4, r0
    a040:	e59f0014 	ldr	r0, [pc, #20]	; a05c <gpio_read+0x24>
    a044:	e08002a4 	add	r0, r0, r4, lsr #5
    a048:	ebfff7f7 	bl	802c <GET32>
    a04c:	e204401f 	and	r4, r4, #31, 0
    a050:	e1a00430 	lsr	r0, r0, r4
    a054:	e2000001 	and	r0, r0, #1, 0
    a058:	e8bd8010 	pop	{r4, pc}
    a05c:	20200034 	eorcs	r0, r0, r4, lsr r0

0000a060 <internal_putchar>:
    a060:	e92d4010 	push	{r4, lr}
    a064:	e1a04000 	mov	r4, r0
    a068:	ebfffe84 	bl	9a80 <uart_putc>
    a06c:	e1a00004 	mov	r0, r4
    a070:	e8bd8010 	pop	{r4, pc}

0000a074 <rpi_reset_putc>:
    a074:	e59f3008 	ldr	r3, [pc, #8]	; a084 <rpi_reset_putc+0x10>
    a078:	e59f2008 	ldr	r2, [pc, #8]	; a088 <rpi_reset_putc+0x14>
    a07c:	e5832000 	str	r2, [r3]
    a080:	e12fff1e 	bx	lr
    a084:	0000a9c0 	andeq	sl, r0, r0, asr #19
    a088:	0000a060 	andeq	sl, r0, r0, rrx

0000a08c <rpi_set_putc>:
    a08c:	e59f3004 	ldr	r3, [pc, #4]	; a098 <rpi_set_putc+0xc>
    a090:	e5830000 	str	r0, [r3]
    a094:	e12fff1e 	bx	lr
    a098:	0000a9c0 	andeq	sl, r0, r0, asr #19

0000a09c <strcat>:
    a09c:	e1a02000 	mov	r2, r0
    a0a0:	e1a03002 	mov	r3, r2
    a0a4:	e4d2c001 	ldrb	ip, [r2], #1
    a0a8:	e35c0000 	cmp	ip, #0, 0
    a0ac:	1afffffb 	bne	a0a0 <strcat+0x4>
    a0b0:	e2433001 	sub	r3, r3, #1, 0
    a0b4:	e4d12001 	ldrb	r2, [r1], #1
    a0b8:	e3520000 	cmp	r2, #0, 0
    a0bc:	e5e32001 	strb	r2, [r3, #1]!
    a0c0:	1afffffb 	bne	a0b4 <strcat+0x18>
    a0c4:	e12fff1e 	bx	lr

0000a0c8 <strcmp>:
    a0c8:	e5d03000 	ldrb	r3, [r0]
    a0cc:	e3530000 	cmp	r3, #0, 0
    a0d0:	05d12000 	ldrbeq	r2, [r1]
    a0d4:	1a000003 	bne	a0e8 <strcmp+0x20>
    a0d8:	ea000006 	b	a0f8 <strcmp+0x30>
    a0dc:	e5f03001 	ldrb	r3, [r0, #1]!
    a0e0:	e3530000 	cmp	r3, #0, 0
    a0e4:	0a000005 	beq	a100 <strcmp+0x38>
    a0e8:	e1a0c001 	mov	ip, r1
    a0ec:	e4d12001 	ldrb	r2, [r1], #1
    a0f0:	e1520003 	cmp	r2, r3
    a0f4:	0afffff8 	beq	a0dc <strcmp+0x14>
    a0f8:	e0430002 	sub	r0, r3, r2
    a0fc:	e12fff1e 	bx	lr
    a100:	e5dc2001 	ldrb	r2, [ip, #1]
    a104:	e0430002 	sub	r0, r3, r2
    a108:	e12fff1e 	bx	lr

0000a10c <strcpy>:
    a10c:	e2402001 	sub	r2, r0, #1, 0
    a110:	e4d13001 	ldrb	r3, [r1], #1
    a114:	e3530000 	cmp	r3, #0, 0
    a118:	e5e23001 	strb	r3, [r2, #1]!
    a11c:	1afffffb 	bne	a110 <strcpy+0x4>
    a120:	e12fff1e 	bx	lr

0000a124 <strncmp>:
    a124:	e0802002 	add	r2, r0, r2
    a128:	ea000003 	b	a13c <strncmp+0x18>
    a12c:	e4d03001 	ldrb	r3, [r0], #1
    a130:	e4d1c001 	ldrb	ip, [r1], #1
    a134:	e153000c 	cmp	r3, ip
    a138:	1a000003 	bne	a14c <strncmp+0x28>
    a13c:	e1500002 	cmp	r0, r2
    a140:	1afffff9 	bne	a12c <strncmp+0x8>
    a144:	e3a00000 	mov	r0, #0, 0
    a148:	e12fff1e 	bx	lr
    a14c:	e043000c 	sub	r0, r3, ip
    a150:	e12fff1e 	bx	lr

0000a154 <reboot_callout>:
    a154:	e12fff1e 	bx	lr

0000a158 <dev_barrier>:
    a158:	ea000002 	b	a168 <dsb>

0000a15c <dmb>:
    a15c:	e3a00000 	mov	r0, #0, 0
    a160:	ee070fba 	mcr	15, 0, r0, cr7, cr10, {5}
    a164:	e12fff1e 	bx	lr

0000a168 <dsb>:
    a168:	ee070f9a 	mcr	15, 0, r0, cr7, cr10, {4}
    a16c:	e12fff1e 	bx	lr

Disassembly of section .rodata:

0000a170 <__FUNCTION__.4011-0x80>:
    a170:	74736574 	ldrbtvc	r6, [r3], #-1396	; 0xfffffa8c
    a174:	61702f73 	cmnvs	r0, r3, ror pc
    a178:	2d327472 	cfldrscs	mvf7, [r2, #-456]!	; 0xfffffe38
    a17c:	74736574 	ldrbtvc	r6, [r3], #-1396	; 0xfffffa8c
    a180:	00632e35 	rsbeq	r2, r3, r5, lsr lr
    a184:	494e4150 	stmdbmi	lr, {r4, r6, r8, lr}^
    a188:	73253a43 			; <UNDEFINED> instruction: 0x73253a43
    a18c:	3a73253a 	bcc	1cd367c <__bss_end__+0x1cc888c>
    a190:	253a6425 	ldrcs	r6, [sl, #-1061]!	; 0xfffffbdb
    a194:	00000a73 	andeq	r0, r0, r3, ror sl
    a198:	3e2d6821 	cdpcc	8, 2, cr6, cr13, cr1, {1}
    a19c:	76657270 			; <UNDEFINED> instruction: 0x76657270
    a1a0:	00000000 	andeq	r0, r0, r0
    a1a4:	74204347 	strtvc	r4, [r0], #-839	; 0xfffffcb9
    a1a8:	3a747365 	bcc	1d26f44 <__bss_end__+0x1d1c154>
    a1ac:	65686320 	strbvs	r6, [r8, #-800]!	; 0xfffffce0
    a1b0:	6e696b63 	vnmulvs.f64	d22, d9, d19
    a1b4:	68742067 	ldmdavs	r4!, {r0, r1, r2, r5, r6, sp}^
    a1b8:	61207461 			; <UNDEFINED> instruction: 0x61207461
    a1bc:	756f6420 	strbvc	r6, [pc, #-1056]!	; 9da4 <kmalloc_aligned+0x6c>
    a1c0:	2d796c62 	ldclcs	12, cr6, [r9, #-392]!	; 0xfffffe78
    a1c4:	6b6e696c 	blvs	1ba477c <__bss_end__+0x1b9998c>
    a1c8:	6c206465 	cfstrsvs	mvf6, [r0], #-404	; 0xfffffe6c
    a1cc:	20747369 	rsbscs	r7, r4, r9, ror #6
    a1d0:	68207369 	stmdavs	r0!, {r0, r3, r5, r6, r8, r9, ip, sp, lr}
    a1d4:	6c646e61 	stclvs	14, cr6, [r4], #-388	; 0xfffffe7c
    a1d8:	0a2e6465 	beq	ba3374 <__bss_end__+0xb98584>
    a1dc:	00000000 	andeq	r0, r0, r0
    a1e0:	706d6f63 	rsbvc	r6, sp, r3, ror #30
    a1e4:	65746361 	ldrbvs	r6, [r4, #-865]!	; 0xfffffc9f
    a1e8:	203d2064 	eorscs	r2, sp, r4, rrx
    a1ec:	000a6425 	andeq	r6, sl, r5, lsr #8

0000a1f0 <__FUNCTION__.4011>:
    a1f0:	74736574 	ldrbtvc	r6, [r3], #-1396	; 0xfffffa8c
    a1f4:	00000000 	andeq	r0, r0, r0
    a1f8:	6c616b63 			; <UNDEFINED> instruction: 0x6c616b63
    a1fc:	2e636f6c 	cdpcs	15, 6, cr6, cr3, cr12, {3}
    a200:	00000063 	andeq	r0, r0, r3, rrx
    a204:	0000006c 	andeq	r0, r0, ip, rrx
    a208:	494e4150 	stmdbmi	lr, {r4, r6, r8, lr}^
    a20c:	73253a43 			; <UNDEFINED> instruction: 0x73253a43
    a210:	3a73253a 	bcc	1cd3700 <__bss_end__+0x1cc8910>
    a214:	643a6425 	ldrtvs	r6, [sl], #-1061	; 0xfffffbdb
    a218:	6e206469 	cdpvs	4, 2, cr6, cr0, cr9, {3}
    a21c:	6620746f 	strtvs	r7, [r0], -pc, ror #8
    a220:	20646e69 	rsbcs	r6, r4, r9, ror #28
    a224:	69207025 	stmdbvs	r0!, {r0, r2, r5, ip, sp, lr}
    a228:	696c206e 	stmdbvs	ip!, {r1, r2, r3, r5, r6, sp}^
    a22c:	0a0a7473 	beq	2a7400 <__bss_end__+0x29c610>
    a230:	00000000 	andeq	r0, r0, r0
    a234:	6e756f66 	cdpvs	15, 7, cr6, cr5, cr6, {3}
    a238:	70252064 	eorvc	r2, r5, r4, rrx
    a23c:	206e6920 	rsbcs	r6, lr, r0, lsr #18
    a240:	000a7025 	andeq	r7, sl, r5, lsr #32
    a244:	253a7325 	ldrcs	r7, [sl, #-805]!	; 0xfffffcdb
    a248:	64253a73 	strtvs	r3, [r5], #-2675	; 0xfffff58d
    a24c:	0000003a 	andeq	r0, r0, sl, lsr r0
    a250:	65657266 	strbvs	r7, [r5, #-614]!	; 0xfffffd9a
    a254:	20676e69 	rsbcs	r6, r7, r9, ror #28
    a258:	0a702509 	beq	1c13684 <__bss_end__+0x1c08894>
    a25c:	00000000 	andeq	r0, r0, r0
    a260:	5f434f4c 	svcpl	0x00434f4c
    a264:	494e4150 	stmdbmi	lr, {r4, r6, r8, lr}^
    a268:	25203a43 	strcs	r3, [r0, #-2627]!	; 0xfffff5bd
    a26c:	73253a73 			; <UNDEFINED> instruction: 0x73253a73
    a270:	3a64253a 	bcc	1913760 <__bss_end__+0x1908970>
    a274:	00000000 	andeq	r0, r0, r0
    a278:	65657266 	strbvs	r7, [r5, #-614]!	; 0xfffffd9a
    a27c:	20676e69 	rsbcs	r6, r7, r9, ror #28
    a280:	6c616e75 	stclvs	14, cr6, [r1], #-468	; 0xfffffe2c
    a284:	61636f6c 	cmnvs	r3, ip, ror #30
    a288:	20646574 	rsbcs	r6, r4, r4, ror r5
    a28c:	6f6d656d 	svcvs	0x006d656d
    a290:	203a7972 	eorscs	r7, sl, r2, ror r9
    a294:	74617473 	strbtvc	r7, [r1], #-1139	; 0xfffffb8d
    a298:	64253d65 	strtvs	r3, [r5], #-3429	; 0xfffff29b
    a29c:	0000000a 	andeq	r0, r0, sl
    a2a0:	705f6b63 	subsvc	r6, pc, r3, ror #22
    a2a4:	695f7274 	ldmdbvs	pc, {r2, r4, r5, r6, r9, ip, sp, lr}^	; <UNPREDICTABLE>
    a2a8:	6c615f73 	stclvs	15, cr5, [r1], #-460	; 0xfffffe34
    a2ac:	65636f6c 	strbvs	r6, [r3, #-3948]!	; 0xfffff094
    a2b0:	64612864 	strbtvs	r2, [r1], #-2148	; 0xfffff79c
    a2b4:	00297264 	eoreq	r7, r9, r4, ror #4
    a2b8:	6f6c6c61 	svcvs	0x006c6c61
    a2bc:	69746163 	ldmdbvs	r4!, {r0, r1, r5, r6, r8, sp, lr}^
    a2c0:	0920676e 	stmdbeq	r0!, {r1, r2, r3, r5, r6, r8, r9, sl, sp, lr}
    a2c4:	000a7025 	andeq	r7, sl, r5, lsr #32

0000a2c8 <__FUNCTION__.4039>:
    a2c8:	7473696c 	ldrbtvc	r6, [r3], #-2412	; 0xfffff694
    a2cc:	6d65725f 	sfmvs	f7, 2, [r5, #-380]!	; 0xfffffe84
    a2d0:	0065766f 	rsbeq	r7, r5, pc, ror #12

0000a2d4 <__FUNCTION__.4050>:
    a2d4:	72666b63 	rsbvc	r6, r6, #101376	; 0x18c00
    a2d8:	00006565 	andeq	r6, r0, r5, ror #10
    a2dc:	672d6b63 	strvs	r6, [sp, -r3, ror #22]!
    a2e0:	00632e63 	rsbeq	r2, r3, r3, ror #28
    a2e4:	203c2070 	eorscs	r2, ip, r0, ror r0
    a2e8:	00000065 	andeq	r0, r0, r5, rrx
    a2ec:	67696c61 	strbvs	r6, [r9, -r1, ror #24]!
    a2f0:	2864656e 	stmdacs	r4!, {r1, r2, r3, r5, r6, r8, sl, sp, lr}^
    a2f4:	34202c70 	strtcc	r2, [r0], #-3184	; 0xfffff390
    a2f8:	00000029 	andeq	r0, r0, r9, lsr #32
    a2fc:	67696c61 	strbvs	r6, [r9, -r1, ror #24]!
    a300:	2864656e 	stmdacs	r4!, {r1, r2, r3, r5, r6, r8, sl, sp, lr}^
    a304:	34202c65 	strtcc	r2, [r0], #-3173	; 0xfffff39b
    a308:	00000029 	andeq	r0, r0, r9, lsr #32
    a30c:	6e696f67 	cdpvs	15, 6, cr6, cr9, cr7, {3}
    a310:	6f742067 	svcvs	0x00742067
    a314:	72616d20 	rsbvc	r6, r1, #32, 26	; 0x800
    a318:	7025206b 	eorvc	r2, r5, fp, rrx
    a31c:	20692820 	rsbcs	r2, r9, r0, lsr #16
    a320:	70252040 	eorvc	r2, r5, r0, asr #32
    a324:	25203d20 	strcs	r3, [r0, #-3360]!	; 0xfffff2e0
    a328:	202c2970 	eorcs	r2, ip, r0, ror r9
    a32c:	20707865 	rsbscs	r7, r0, r5, ror #16
    a330:	7025203d 	eorvc	r2, r5, sp, lsr r0
    a334:	0000000a 	andeq	r0, r0, sl
    a338:	6b72616d 	blvs	1ca28f4 <__bss_end__+0x1c97b04>
    a33c:	20676e69 	rsbcs	r6, r7, r9, ror #28
    a340:	25207361 	strcs	r7, [r0, #-865]!	; 0xfffffc9f
    a344:	00000a64 	andeq	r0, r0, r4, ror #20
    a348:	20746f6e 	rsbscs	r6, r4, lr, ror #30
    a34c:	6b72616d 	blvs	1ca2908 <__bss_end__+0x1c97b18>
    a350:	21676e69 	cmncs	r7, r9, ror #28
    a354:	0000000a 	andeq	r0, r0, sl
    a358:	63656863 	cmnvs	r5, #6488064	; 0x630000
    a35c:	676e696b 	strbvs	r6, [lr, -fp, ror #18]!
    a360:	61747320 	cmnvs	r4, r0, lsr #6
    a364:	203a6b63 	eorscs	r6, sl, r3, ror #22
    a368:	74207025 	strtvc	r7, [r0], #-37	; 0xffffffdb
    a36c:	7025206f 	eorvc	r2, r5, pc, rrx
    a370:	0000000a 	andeq	r0, r0, sl
    a374:	2d2d2d2d 	stccs	13, cr2, [sp, #-180]!	; 0xffffff4c
    a378:	2d2d2d2d 	stccs	13, cr2, [sp, #-180]!	; 0xffffff4c
    a37c:	2d2d2d2d 	stccs	13, cr2, [sp, #-180]!	; 0xffffff4c
    a380:	2d2d2d2d 	stccs	13, cr2, [sp, #-180]!	; 0xffffff4c
    a384:	2d2d2d2d 	stccs	13, cr2, [sp, #-180]!	; 0xffffff4c
    a388:	2d2d2d2d 	stccs	13, cr2, [sp, #-180]!	; 0xffffff4c
    a38c:	2d2d2d2d 	stccs	13, cr2, [sp, #-180]!	; 0xffffff4c
    a390:	2d2d2d2d 	stccs	13, cr2, [sp, #-180]!	; 0xffffff4c
    a394:	2d2d2d2d 	stccs	13, cr2, [sp, #-180]!	; 0xffffff4c
    a398:	2d2d2d2d 	stccs	13, cr2, [sp, #-180]!	; 0xffffff4c
    a39c:	2d2d2d2d 	stccs	13, cr2, [sp, #-180]!	; 0xffffff4c
    a3a0:	2d2d2d2d 	stccs	13, cr2, [sp, #-180]!	; 0xffffff4c
    a3a4:	2d2d2d2d 	stccs	13, cr2, [sp, #-180]!	; 0xffffff4c
    a3a8:	2d2d2d2d 	stccs	13, cr2, [sp, #-180]!	; 0xffffff4c
    a3ac:	00000a2d 	andeq	r0, r0, sp, lsr #20
    a3b0:	63656863 	cmnvs	r5, #6488064	; 0x630000
    a3b4:	676e696b 	strbvs	r6, [lr, -fp, ror #18]!
    a3b8:	726f6620 	rsbvc	r6, pc, #32, 12	; 0x2000000
    a3bc:	61656c20 	cmnvs	r5, r0, lsr #24
    a3c0:	0a3a736b 	beq	ea7174 <__bss_end__+0xe9c384>
    a3c4:	00000000 	andeq	r0, r0, r0
    a3c8:	4c3a4347 	ldcmi	3, cr4, [sl], #-284	; 0xfffffee4
    a3cc:	2054534f 	subscs	r5, r4, pc, asr #6
    a3d0:	2d206425 	cfstrscs	mvf6, [r0, #-148]!	; 0xffffff6c
    a3d4:	7025203e 	eorvc	r2, r5, lr, lsr r0
    a3d8:	0000000a 	andeq	r0, r0, sl
    a3dc:	4d3a4347 	ldcmi	3, cr4, [sl, #-284]!	; 0xfffffee4
    a3e0:	45425941 	strbmi	r5, [r2, #-2369]	; 0xfffff6bf
    a3e4:	534f4c20 	movtpl	r4, #64544	; 0xfc20
    a3e8:	64252054 	strtvs	r2, [r5], #-84	; 0xffffffac
    a3ec:	203e2d20 	eorscs	r2, lr, r0, lsr #26
    a3f0:	000a7025 	andeq	r7, sl, r5, lsr #32
    a3f4:	43415254 	movtmi	r5, #4692	; 0x1254
    a3f8:	47093a45 	strmi	r3, [r9, -r5, asr #20]
    a3fc:	68433a43 	stmdavs	r3, {r0, r1, r6, r9, fp, ip, sp}^
    a400:	656b6365 	strbvs	r6, [fp, #-869]!	; 0xfffffc9b
    a404:	64252064 	strtvs	r2, [r5], #-100	; 0xffffff9c
    a408:	6f6c6220 	svcvs	0x006c6220
    a40c:	2e736b63 	vsubcs.f64	d22, d3, d19
    a410:	0000000a 	andeq	r0, r0, sl
    a414:	43415254 	movtmi	r5, #4692	; 0x1254
    a418:	09093a45 	stmdbeq	r9, {r0, r2, r6, r9, fp, ip, sp}
    a41c:	533a4347 	teqpl	sl, #469762049	; 0x1c000001
    a420:	45434355 	strbmi	r4, [r3, #-853]	; 0xfffffcab
    a424:	203a5353 	eorscs	r5, sl, r3, asr r3
    a428:	6c206f4e 	stcvs	15, cr6, [r0], #-312	; 0xfffffec8
    a42c:	736b6165 	cmnvc	fp, #1073741849	; 0x40000019
    a430:	756f6620 	strbvc	r6, [pc, #-1568]!	; 9e18 <kmalloc_aligned+0xe0>
    a434:	0a21646e 	beq	8635f4 <__bss_end__+0x858804>
    a438:	00000000 	andeq	r0, r0, r0
    a43c:	43415254 	movtmi	r5, #4692	; 0x1254
    a440:	09093a45 	stmdbeq	r9, {r0, r2, r6, r9, fp, ip, sp}
    a444:	453a4347 	ldrmi	r4, [sl, #-839]!	; 0xfffffcb9
    a448:	524f5252 	subpl	r5, pc, #536870917	; 0x20000005
    a44c:	25203a53 	strcs	r3, [r0, #-2643]!	; 0xfffff5ad
    a450:	72652064 	rsbvc	r2, r5, #100, 0	; 0x64
    a454:	73726f72 	cmnvc	r2, #456	; 0x1c8
    a458:	6425202c 	strtvs	r2, [r5], #-44	; 0xffffffd4
    a45c:	79616d20 	stmdbvc	r1!, {r5, r8, sl, fp, sp, lr}^
    a460:	655f6562 	ldrbvs	r6, [pc, #-1378]	; 9f06 <gpio_set_function+0x3e>
    a464:	726f7272 	rsbvc	r7, pc, #536870919	; 0x20000007
    a468:	00000a73 	andeq	r0, r0, r3, ror sl
    a46c:	2d2d2d2d 	stccs	13, cr2, [sp, #-180]!	; 0xffffff4c
    a470:	2d2d2d2d 	stccs	13, cr2, [sp, #-180]!	; 0xffffff4c
    a474:	2d2d2d2d 	stccs	13, cr2, [sp, #-180]!	; 0xffffff4c
    a478:	2d2d2d2d 	stccs	13, cr2, [sp, #-180]!	; 0xffffff4c
    a47c:	2d2d2d2d 	stccs	13, cr2, [sp, #-180]!	; 0xffffff4c
    a480:	2d2d2d2d 	stccs	13, cr2, [sp, #-180]!	; 0xffffff4c
    a484:	2d2d2d2d 	stccs	13, cr2, [sp, #-180]!	; 0xffffff4c
    a488:	2d2d2d2d 	stccs	13, cr2, [sp, #-180]!	; 0xffffff4c
    a48c:	2d2d2d2d 	stccs	13, cr2, [sp, #-180]!	; 0xffffff4c
    a490:	2d2d2d2d 	stccs	13, cr2, [sp, #-180]!	; 0xffffff4c
    a494:	2d2d2d2d 	stccs	13, cr2, [sp, #-180]!	; 0xffffff4c
    a498:	2d2d2d2d 	stccs	13, cr2, [sp, #-180]!	; 0xffffff4c
    a49c:	2d2d2d2d 	stccs	13, cr2, [sp, #-180]!	; 0xffffff4c
    a4a0:	2d2d2d2d 	stccs	13, cr2, [sp, #-180]!	; 0xffffff4c
    a4a4:	000a2d2d 	andeq	r2, sl, sp, lsr #26
    a4a8:	706d6f63 	rsbvc	r6, sp, r3, ror #30
    a4ac:	69746361 	ldmdbvs	r4!, {r0, r5, r6, r8, r9, sp, lr}^
    a4b0:	0a3a676e 	beq	ea4270 <__bss_end__+0xe99480>
    a4b4:	00000000 	andeq	r0, r0, r0
    a4b8:	463a4347 	ldrtmi	r4, [sl], -r7, asr #6
    a4bc:	44454552 	strbmi	r4, [r5], #-1362	; 0xfffffaae
    a4c0:	0a702520 	beq	1c13948 <__bss_end__+0x1c08b58>
    a4c4:	00000000 	andeq	r0, r0, r0
    a4c8:	43415254 	movtmi	r5, #4692	; 0x1254
    a4cc:	47093a45 	strmi	r3, [r9, -r5, asr #20]
    a4d0:	68433a43 	stmdavs	r3, {r0, r1, r6, r9, fp, ip, sp}^
    a4d4:	656b6365 	strbvs	r6, [fp, #-869]!	; 0xfffffc9b
    a4d8:	64252064 	strtvs	r2, [r5], #-100	; 0xffffff9c
    a4dc:	6f6c6220 	svcvs	0x006c6220
    a4e0:	2c736b63 			; <UNDEFINED> instruction: 0x2c736b63
    a4e4:	65726620 	ldrbvs	r6, [r2, #-1568]!	; 0xfffff9e0
    a4e8:	25206465 	strcs	r6, [r0, #-1125]!	; 0xfffffb9b
    a4ec:	25202c64 	strcs	r2, [r0, #-3172]!	; 0xfffff39c
    a4f0:	79622064 	stmdbvc	r2!, {r2, r5, r6, sp}^
    a4f4:	0a736574 	beq	1ce3acc <__bss_end__+0x1cd8cdc>
    a4f8:	00000000 	andeq	r0, r0, r0
    a4fc:	72636e69 	rsbvc	r6, r3, #1680	; 0x690
    a500:	6e656d65 	cdpvs	13, 6, cr6, cr5, cr5, {3}
    a504:	203e2074 	eorscs	r2, lr, r4, ror r0
    a508:	00000030 	andeq	r0, r0, r0, lsr r0
    a50c:	494e4150 	stmdbmi	lr, {r4, r6, r8, lr}^
    a510:	73253a43 			; <UNDEFINED> instruction: 0x73253a43
    a514:	3a73253a 	bcc	1cd3a04 <__bss_end__+0x1cc8c14>
    a518:	6e3a6425 	cdpvs	4, 3, cr6, cr10, cr5, {1}
    a51c:	6820746f 	stmdavs	r0!, {r0, r1, r2, r3, r5, r6, sl, ip, sp, lr}
    a520:	6c646e61 	stclvs	14, cr6, [r4], #-388	; 0xfffffe7c
    a524:	0a676e69 	beq	19e5ed0 <__bss_end__+0x19db0e0>
    a528:	0000000a 	andeq	r0, r0, sl
    a52c:	494e4150 	stmdbmi	lr, {r4, r6, r8, lr}^
    a530:	73253a43 			; <UNDEFINED> instruction: 0x73253a43
    a534:	3a73253a 	bcc	1cd3a24 <__bss_end__+0x1cc8c34>
    a538:	473a6425 	ldrmi	r6, [sl, -r5, lsr #8]!
    a53c:	73203a43 			; <UNDEFINED> instruction: 0x73203a43
    a540:	6c756f68 	ldclvs	15, cr6, [r5], #-416	; 0xfffffe60
    a544:	61682064 	cmnvs	r8, r4, rrx
    a548:	6e206576 	mcrvs	5, 1, r6, cr0, cr6, {3}
    a54c:	656c206f 	strbvs	r2, [ip, #-111]!	; 0xffffff91
    a550:	21736b61 	cmncs	r3, r1, ror #22
    a554:	00000a0a 	andeq	r0, r0, sl, lsl #20
    a558:	43415254 	movtmi	r5, #4692	; 0x1254
    a55c:	43473a45 	movtmi	r3, #31301	; 0x7a45
    a560:	5553203a 	ldrbpl	r2, [r3, #-58]	; 0xffffffc6
    a564:	53454343 	movtpl	r4, #21315	; 0x5343
    a568:	6e203a53 			; <UNDEFINED> instruction: 0x6e203a53
    a56c:	656c206f 	strbvs	r2, [ip, #-111]!	; 0xffffff91
    a570:	21736b61 	cmncs	r3, r1, ror #22
    a574:	0000000a 	andeq	r0, r0, sl
    a578:	494e4150 	stmdbmi	lr, {r4, r6, r8, lr}^
    a57c:	73253a43 			; <UNDEFINED> instruction: 0x73253a43
    a580:	3a73253a 	bcc	1cd3a70 <__bss_end__+0x1cc8c80>
    a584:	473a6425 	ldrmi	r6, [sl, -r5, lsr #8]!
    a588:	73203a43 			; <UNDEFINED> instruction: 0x73203a43
    a58c:	6c756f68 	ldclvs	15, cr6, [r5], #-416	; 0xfffffe60
    a590:	61682064 	cmnvs	r8, r4, rrx
    a594:	6c206576 	cfstr32vs	mvfx6, [r0], #-472	; 0xfffffe28
    a598:	736b6165 	cmnvc	fp, #1073741849	; 0x40000019
    a59c:	000a0a21 	andeq	r0, sl, r1, lsr #20
    a5a0:	43415254 	movtmi	r5, #4692	; 0x1254
    a5a4:	43473a45 	movtmi	r3, #31301	; 0x7a45
    a5a8:	5553203a 	ldrbpl	r2, [r3, #-58]	; 0xffffffc6
    a5ac:	53454343 	movtpl	r4, #21315	; 0x5343
    a5b0:	66203a53 			; <UNDEFINED> instruction: 0x66203a53
    a5b4:	646e756f 	strbtvs	r7, [lr], #-1391	; 0xfffffa91
    a5b8:	20642520 	rsbcs	r2, r4, r0, lsr #10
    a5bc:	6b61656c 	blvs	1863b74 <__bss_end__+0x1858d84>
    a5c0:	000a2173 	andeq	r2, sl, r3, ror r1
    a5c4:	494e4150 	stmdbmi	lr, {r4, r6, r8, lr}^
    a5c8:	73253a43 			; <UNDEFINED> instruction: 0x73253a43
    a5cc:	3a73253a 	bcc	1cd3abc <__bss_end__+0x1cc8ccc>
    a5d0:	643a6425 	ldrtvs	r6, [sl], #-1061	; 0xfffffbdb
    a5d4:	6e206469 	cdpvs	4, 2, cr6, cr0, cr9, {3}
    a5d8:	6920746f 	stmdbvs	r0!, {r0, r1, r2, r3, r5, r6, sl, ip, sp, lr}
    a5dc:	656c706d 	strbvs	r7, [ip, #-109]!	; 0xffffff93
    a5e0:	746e656d 	strbtvc	r6, [lr], #-1389	; 0xfffffa93
    a5e4:	6d756420 	cfldrdvs	mvd6, [r5, #-128]!	; 0xffffff80
    a5e8:	65725f70 	ldrbvs	r5, [r2, #-3952]!	; 0xfffff090
    a5ec:	0a217367 	beq	867390 <__bss_end__+0x85c5a0>
    a5f0:	0000000a 	andeq	r0, r0, sl

0000a5f4 <__FUNCTION__.4026>:
    a5f4:	6b72616d 	blvs	1ca2bb0 <__bss_end__+0x1c97dc0>
    a5f8:	00000000 	andeq	r0, r0, r0

0000a5fc <__FUNCTION__.4082>:
    a5fc:	65657773 	strbvs	r7, [r5, #-1907]!	; 0xfffff88d
    a600:	72665f70 	rsbvc	r5, r6, #112, 30	; 0x1c0
    a604:	00006565 	andeq	r6, r0, r5, ror #10

0000a608 <__FUNCTION__.4013>:
    a608:	6b726273 	blvs	1ca2fdc <__bss_end__+0x1c981ec>
    a60c:	00000000 	andeq	r0, r0, r0

0000a610 <__FUNCTION__.4069>:
    a610:	63656863 	cmnvs	r5, #6488064	; 0x630000
    a614:	6f6e5f6b 	svcvs	0x006e5f6b
    a618:	61656c5f 	cmnvs	r5, pc, asr ip
    a61c:	0000006b 	andeq	r0, r0, fp, rrx

0000a620 <__FUNCTION__.4074>:
    a620:	63656863 	cmnvs	r5, #6488064	; 0x630000
    a624:	68735f6b 	ldmdavs	r3!, {r0, r1, r3, r5, r6, r8, r9, sl, fp, ip, lr}^
    a628:	646c756f 	strbtvs	r7, [ip], #-1391	; 0xfffffa91
    a62c:	61656c5f 	cmnvs	r5, pc, asr ip
    a630:	0000006b 	andeq	r0, r0, fp, rrx

0000a634 <__FUNCTION__.4093>:
    a634:	6c706d69 	ldclvs	13, cr6, [r0], #-420	; 0xfffffe5c
    a638:	6e656d65 	cdpvs	13, 6, cr6, cr5, cr5, {3}
    a63c:	68745f74 	ldmdavs	r4!, {r2, r4, r5, r6, r8, r9, sl, fp, ip, lr}^
    a640:	00007369 	andeq	r7, r0, r9, ror #6
    a644:	696c2f2e 	stmdbvs	ip!, {r1, r2, r3, r5, r8, r9, sl, fp, sp}^
    a648:	762f6362 	strtvc	r6, [pc], -r2, ror #6
    a64c:	72702d61 	rsbsvc	r2, r0, #6208	; 0x1840
    a650:	6b746e69 	blvs	1d25ffc <__bss_end__+0x1d1b20c>
    a654:	0000632e 	andeq	r6, r0, lr, lsr #6
    a658:	33323130 	teqcc	r2, #12
    a65c:	37363534 			; <UNDEFINED> instruction: 0x37363534
    a660:	62613938 	rsbvs	r3, r1, #56, 18	; 0xe0000
    a664:	66656463 	strbtvs	r6, [r5], -r3, ror #8
    a668:	00000000 	andeq	r0, r0, r0
    a66c:	00003130 	andeq	r3, r0, r0, lsr r1
    a670:	33323130 	teqcc	r2, #12
    a674:	37363534 			; <UNDEFINED> instruction: 0x37363534
    a678:	00003938 	andeq	r3, r0, r8, lsr r9
    a67c:	63747570 	cmnvs	r4, #112, 10	; 0x1c000000
    a680:	0070665f 	rsbseq	r6, r0, pc, asr r6
    a684:	74646977 	strbtvc	r6, [r4], #-2423	; 0xfffff689
    a688:	203c2068 	eorscs	r2, ip, r8, rrx
    a68c:	00003233 	andeq	r3, r0, r3, lsr r2
    a690:	00786c6c 	rsbseq	r6, r8, ip, ror #24
    a694:	253d3078 	ldrcs	r3, [sp, #-120]!	; 0xffffff88
    a698:	00000a78 	andeq	r0, r0, r8, ror sl
    a69c:	253d3178 	ldrcs	r3, [sp, #-376]!	; 0xfffffe88
    a6a0:	00000a78 	andeq	r0, r0, r8, ror sl
    a6a4:	00646c6c 	rsbeq	r6, r4, ip, ror #24
    a6a8:	6e727473 	mrcvs	4, 3, r7, cr2, cr3, {3}
    a6ac:	28706d63 	ldmdacs	r0!, {r0, r1, r5, r6, r8, sl, fp, sp, lr}^
    a6b0:	202c7974 	eorcs	r7, ip, r4, ror r9
    a6b4:	786c6c22 	stmdavc	ip!, {r1, r5, sl, fp, sp, lr}^
    a6b8:	33202c22 			; <UNDEFINED> instruction: 0x33202c22
    a6bc:	3d3d2029 	ldccc	0, cr2, [sp, #-164]!	; 0xffffff5c
    a6c0:	7c203020 	stcvc	0, cr3, [r0], #-128	; 0xffffff80
    a6c4:	7473207c 	ldrbtvc	r2, [r3], #-124	; 0xffffff84
    a6c8:	6d636e72 	stclvs	14, cr6, [r3, #-456]!	; 0xfffffe38
    a6cc:	79742870 	ldmdbvc	r4!, {r4, r5, r6, fp, sp}^
    a6d0:	6c22202c 	stcvs	0, cr2, [r2], #-176	; 0xffffff50
    a6d4:	2c22646c 	cfstrscs	mvf6, [r2], #-432	; 0xfffffe50
    a6d8:	20293320 	eorcs	r3, r9, r0, lsr #6
    a6dc:	30203d3d 	eorcc	r3, r0, sp, lsr sp
    a6e0:	00000000 	andeq	r0, r0, r0
    a6e4:	494e4150 	stmdbmi	lr, {r4, r6, r8, lr}^
    a6e8:	73253a43 			; <UNDEFINED> instruction: 0x73253a43
    a6ec:	3a73253a 	bcc	1cd3bdc <__bss_end__+0x1cc8dec>
    a6f0:	693a6425 	ldmdbvs	sl!, {r0, r2, r5, sl, sp, lr}
    a6f4:	736f706d 	cmnvc	pc, #109, 0	; 0x6d
    a6f8:	6c626973 			; <UNDEFINED> instruction: 0x6c626973
    a6fc:	66203a65 	strtvs	r3, [r0], -r5, ror #20
    a700:	3c3d746d 	cfldrscc	mvf7, [sp], #-436	; 0xfffffe4c
    a704:	0a3e7325 	beq	fa73a0 <__bss_end__+0xf9c5b0>
    a708:	0000000a 	andeq	r0, r0, sl
    a70c:	494e4150 	stmdbmi	lr, {r4, r6, r8, lr}^
    a710:	73253a43 			; <UNDEFINED> instruction: 0x73253a43
    a714:	3a73253a 	bcc	1cd3c04 <__bss_end__+0x1cc8e14>
    a718:	663a6425 	ldrtvs	r6, [sl], -r5, lsr #8
    a71c:	74616f6c 	strbtvc	r6, [r1], #-3948	; 0xfffff094
    a720:	746f6e20 	strbtvc	r6, [pc], #-3616	; a728 <__FUNCTION__.4093+0xf4>
    a724:	616e6520 	cmnvs	lr, r0, lsr #10
    a728:	64656c62 	strbtvs	r6, [r5], #-3170	; 0xfffff39e
    a72c:	0a212121 	beq	852bb8 <__bss_end__+0x847dc8>
    a730:	00000000 	andeq	r0, r0, r0
    a734:	6e697270 	mcrvs	2, 3, r7, cr9, cr0, {3}
    a738:	203a6b74 	eorscs	r6, sl, r4, ror fp
    a73c:	20746f6e 	rsbscs	r6, r4, lr, ror #30
    a740:	646e6168 	strbtvs	r6, [lr], #-360	; 0xfffffe98
    a744:	676e696c 	strbvs	r6, [lr, -ip, ror #18]!
    a748:	65707320 	ldrbvs	r7, [r0, #-800]!	; 0xfffffce0
    a74c:	69666963 	stmdbvs	r6!, {r0, r1, r5, r6, r8, fp, sp, lr}^
    a750:	27207265 	strcs	r7, [r0, -r5, ror #4]!
    a754:	20276325 	eorcs	r6, r7, r5, lsr #6
    a758:	63736128 	cmnvs	r3, #10
    a75c:	253d6969 	ldrcs	r6, [sp, #-2409]!	; 0xfffff697
    a760:	000a2964 	andeq	r2, sl, r4, ror #18
    a764:	494e4150 	stmdbmi	lr, {r4, r6, r8, lr}^
    a768:	73253a43 			; <UNDEFINED> instruction: 0x73253a43
    a76c:	3a73253a 	bcc	1cd3c5c <__bss_end__+0x1cc8e6c>
    a770:	703a6425 	eorsvc	r6, sl, r5, lsr #8
    a774:	746e6972 	strbtvc	r6, [lr], #-2418	; 0xfffff68e
    a778:	7265206b 	rsbvc	r2, r5, #107, 0	; 0x6b
    a77c:	0a726f72 	beq	1ca654c <__bss_end__+0x1c9b75c>
    a780:	0000000a 	andeq	r0, r0, sl

0000a784 <__FUNCTION__.4004>:
    a784:	74696d65 	strbtvc	r6, [r9], #-3429	; 0xfffff29b
    a788:	00000000 	andeq	r0, r0, r0

0000a78c <__FUNCTION__.3952>:
    a78c:	5f697072 	svcpl	0x00697072
    a790:	5f746573 	svcpl	0x00746573
    a794:	7074756f 	rsbsvc	r7, r4, pc, ror #10
    a798:	00007475 	andeq	r7, r0, r5, ror r4

0000a79c <__FUNCTION__.4030>:
    a79c:	705f6176 	subsvc	r6, pc, r6, ror r1	; <UNPREDICTABLE>
    a7a0:	746e6972 	strbtvc	r6, [lr], #-2418	; 0xfffff68e
    a7a4:	0000006b 	andeq	r0, r0, fp, rrx
    a7a8:	454e4f44 	strbmi	r4, [lr, #-3908]	; 0xfffff0bc
    a7ac:	0a212121 	beq	852c38 <__bss_end__+0x847e48>
    a7b0:	00000000 	andeq	r0, r0, r0
    a7b4:	6c616d6b 	stclvs	13, cr6, [r1], #-428	; 0xfffffe54
    a7b8:	2e636f6c 	cdpcs	15, 6, cr6, cr3, cr12, {3}
    a7bc:	00000063 	andeq	r0, r0, r3, rrx
    a7c0:	5f78616d 	svcpl	0x0078616d
    a7c4:	7479626e 	ldrbtvc	r6, [r9], #-622	; 0xfffffd92
    a7c8:	00007365 	andeq	r7, r0, r5, ror #6
    a7cc:	494e4150 	stmdbmi	lr, {r4, r6, r8, lr}^
    a7d0:	73253a43 			; <UNDEFINED> instruction: 0x73253a43
    a7d4:	3a73253a 	bcc	1cd3cc4 <__bss_end__+0x1cc8ed4>
    a7d8:	733a6425 	teqvc	sl, #620756992	; 0x25000000
    a7dc:	69747465 	ldmdbvs	r4!, {r0, r2, r5, r6, sl, ip, sp, lr}^
    a7e0:	6820676e 	stmdavs	r0!, {r1, r2, r3, r5, r6, r8, r9, sl, sp, lr}
    a7e4:	20706165 	rsbscs	r6, r0, r5, ror #2
    a7e8:	25206f74 	strcs	r6, [r0, #-3956]!	; 0xfffff08c
    a7ec:	77203a70 			; <UNDEFINED> instruction: 0x77203a70
    a7f0:	206c6c69 	rsbcs	r6, ip, r9, ror #24
    a7f4:	20746968 	rsbscs	r6, r4, r8, ror #18
    a7f8:	20656874 	rsbcs	r6, r5, r4, ror r8
    a7fc:	20646c6f 	rsbcs	r6, r4, pc, ror #24
    a800:	70616568 	rsbvc	r6, r1, r8, ror #10
    a804:	20746120 	rsbscs	r6, r4, r0, lsr #2
    a808:	0a0a7025 	beq	2a68a4 <__bss_end__+0x29bab4>
    a80c:	00000000 	andeq	r0, r0, r0
    a810:	494e4150 	stmdbmi	lr, {r4, r6, r8, lr}^
    a814:	73253a43 			; <UNDEFINED> instruction: 0x73253a43
    a818:	3a73253a 	bcc	1cd3d08 <__bss_end__+0x1cc8f18>
    a81c:	613a6425 	teqvs	sl, r5, lsr #8
    a820:	6165726c 	cmnvs	r5, ip, ror #4
    a824:	63207964 			; <UNDEFINED> instruction: 0x63207964
    a828:	656c6c61 	strbvs	r6, [ip, #-3169]!	; 0xfffff39f
    a82c:	6d6b2064 	stclvs	0, cr2, [fp, #-400]!	; 0xfffffe70
    a830:	6f6c6c61 	svcvs	0x006c6c61
    a834:	6e695f63 	cdpvs	15, 6, cr5, cr9, cr3, {3}
    a838:	0a0a7469 	beq	2a79e4 <__bss_end__+0x29cbf4>
    a83c:	00000000 	andeq	r0, r0, r0
    a840:	494e4150 	stmdbmi	lr, {r4, r6, r8, lr}^
    a844:	73253a43 			; <UNDEFINED> instruction: 0x73253a43
    a848:	3a73253a 	bcc	1cd3d38 <__bss_end__+0x1cc8f48>
    a84c:	253a6425 	ldrcs	r6, [sl, #-1061]!	; 0xfffffbdb
    a850:	626e2064 	rsbvs	r2, lr, #100, 0	; 0x64
    a854:	73657479 	cmnvc	r5, #2030043136	; 0x79000000
    a858:	63786520 	cmnvs	r8, #32, 10	; 0x8000000
    a85c:	65646565 	strbvs	r6, [r4, #-1381]!	; 0xfffffa9b
    a860:	69732064 	ldmdbvs	r3!, {r2, r5, r6, sp}^
    a864:	6f20657a 	svcvs	0x0020657a
    a868:	65682066 	strbvs	r2, [r8, #-102]!	; 0xffffff9a
    a86c:	62207061 	eorvs	r7, r0, #97, 0	; 0x61
    a870:	75252079 	strvc	r2, [r5, #-121]!	; 0xffffff87
    a874:	79626e20 	stmdbvc	r2!, {r5, r9, sl, fp, sp, lr}^
    a878:	0a736574 	beq	1ce3e50 <__bss_end__+0x1cd9060>
    a87c:	0000000a 	andeq	r0, r0, sl
    a880:	4f525245 	svcmi	0x00525245
    a884:	73253a52 			; <UNDEFINED> instruction: 0x73253a52
    a888:	3a73253a 	bcc	1cd3d78 <__bss_end__+0x1cc8f88>
    a88c:	203a6425 	eorscs	r6, sl, r5, lsr #8
    a890:	534c4146 	movtpl	r4, #49478	; 0xc146
    a894:	253c2845 	ldrcs	r2, [ip, #-2117]!	; 0xfffff7bb
    a898:	3a293e73 	bcc	a5a26c <__bss_end__+0xa4f47c>
    a89c:	73736120 	cmnvc	r3, #8
    a8a0:	6e696d75 	mcrvs	13, 3, r6, cr9, cr5, {3}
    a8a4:	6f702067 	svcvs	0x00702067
    a8a8:	20726577 	rsbscs	r6, r2, r7, ror r5
    a8ac:	7420666f 	strtvc	r6, [r0], #-1647	; 0xfffff991
    a8b0:	000a6f77 	andeq	r6, sl, r7, ror pc
    a8b4:	705f7369 	subsvc	r7, pc, r9, ror #6
    a8b8:	2832776f 	ldmdacs	r2!, {r0, r1, r2, r3, r5, r6, r8, r9, sl, ip, sp, lr}
    a8bc:	67696c61 	strbvs	r6, [r9, -r1, ror #24]!
    a8c0:	6e656d6e 	cdpvs	13, 6, cr6, cr5, cr14, {3}
    a8c4:	00002974 	andeq	r2, r0, r4, ror r9
    a8c8:	705f7369 	subsvc	r7, pc, r9, ror #6
    a8cc:	2832776f 	ldmdacs	r2!, {r0, r1, r2, r3, r5, r6, r8, r9, sl, ip, sp, lr}
    a8d0:	0000296e 	andeq	r2, r0, lr, ror #18
    a8d4:	4f525245 	svcmi	0x00525245
    a8d8:	73253a52 			; <UNDEFINED> instruction: 0x73253a52
    a8dc:	3a73253a 	bcc	1cd3dcc <__bss_end__+0x1cc8fdc>
    a8e0:	203a6425 	eorscs	r6, sl, r5, lsr #8
    a8e4:	534c4146 	movtpl	r4, #49478	; 0xc146
    a8e8:	253c2845 	ldrcs	r2, [ip, #-2117]!	; 0xfffff7bb
    a8ec:	3a293e73 	bcc	a5a2c0 <__bss_end__+0xa4f4d0>
    a8f0:	706d6920 	rsbvc	r6, sp, r0, lsr #18
    a8f4:	6973736f 	ldmdbvs	r3!, {r0, r1, r2, r3, r5, r6, r8, r9, ip, sp, lr}^
    a8f8:	0a656c62 	beq	1965a88 <__bss_end__+0x195ac98>
    a8fc:	00000000 	andeq	r0, r0, r0
    a900:	615f7369 	cmpvs	pc, r9, ror #6
    a904:	6e67696c 	vnmulvs.f16	s13, s14, s25	; <UNPREDICTABLE>
    a908:	68286465 	stmdavs	r8!, {r0, r2, r5, r6, sl, sp, lr}
    a90c:	6c61202c 	stclvs	0, cr2, [r1], #-176	; 0xffffff50
    a910:	6d6e6769 	stclvs	7, cr6, [lr, #-420]!	; 0xfffffe5c
    a914:	29746e65 	ldmdbcs	r4!, {r0, r2, r5, r6, r9, sl, fp, sp, lr}^
    a918:	00000000 	andeq	r0, r0, r0
    a91c:	494e4150 	stmdbmi	lr, {r4, r6, r8, lr}^
    a920:	73253a43 			; <UNDEFINED> instruction: 0x73253a43
    a924:	3a73253a 	bcc	1cd3e14 <__bss_end__+0x1cc9024>
    a928:	703a6425 	eorsvc	r6, sl, r5, lsr #8
    a92c:	746e696f 	strbtvc	r6, [lr], #-2415	; 0xfffff691
    a930:	25207265 	strcs	r7, [r0, #-613]!	; 0xfffffd9b
    a934:	61772070 	cmnvs	r7, r0, ror r0
    a938:	656e2073 	strbvs	r2, [lr, #-115]!	; 0xffffff8d
    a93c:	20726576 	rsbscs	r6, r2, r6, ror r5
    a940:	6f6c6c61 	svcvs	0x006c6c61
    a944:	65746163 	ldrbvs	r6, [r4, #-355]!	; 0xfffffe9d
    a948:	000a0a64 	andeq	r0, sl, r4, ror #20

0000a94c <__FUNCTION__.7>:
    a94c:	6c616d6b 	stclvs	13, cr6, [r1], #-428	; 0xfffffe54
    a950:	5f636f6c 	svcpl	0x00636f6c
    a954:	74696e69 	strbtvc	r6, [r9], #-3689	; 0xfffff197
    a958:	7465735f 	strbtvc	r7, [r5], #-863	; 0xfffffca1
    a95c:	6174735f 	cmnvs	r4, pc, asr r3
    a960:	00007472 	andeq	r7, r0, r2, ror r4

0000a964 <__FUNCTION__.5>:
    a964:	6c616d6b 	stclvs	13, cr6, [r1], #-428	; 0xfffffe54
    a968:	5f636f6c 	svcpl	0x00636f6c
    a96c:	74696e69 	strbtvc	r6, [r9], #-3689	; 0xfffff197
    a970:	00000000 	andeq	r0, r0, r0

0000a974 <__FUNCTION__.4>:
    a974:	6c616d6b 	stclvs	13, cr6, [r1], #-428	; 0xfffffe54
    a978:	5f636f6c 	svcpl	0x00636f6c
    a97c:	7a746f6e 	bvc	1d2673c <__bss_end__+0x1d1b94c>
    a980:	006f7265 	rsbeq	r7, pc, r5, ror #4

0000a984 <__FUNCTION__.2>:
    a984:	6c616d6b 	stclvs	13, cr6, [r1], #-428	; 0xfffffe54
    a988:	00636f6c 	rsbeq	r6, r3, ip, ror #30

0000a98c <__FUNCTION__.1>:
    a98c:	6c616d6b 	stclvs	13, cr6, [r1], #-428	; 0xfffffe54
    a990:	5f636f6c 	svcpl	0x00636f6c
    a994:	67696c61 	strbvs	r6, [r9, -r1, ror #24]!
    a998:	0064656e 	rsbeq	r6, r4, lr, ror #10

0000a99c <__FUNCTION__.3>:
    a99c:	6e756f72 	mrcvs	15, 3, r6, cr5, cr2, {3}
    a9a0:	00707564 	rsbseq	r7, r0, r4, ror #10

0000a9a4 <__FUNCTION__.0>:
    a9a4:	6572666b 	ldrbvs	r6, [r2, #-1643]!	; 0xfffff995
    a9a8:	6f705f65 	svcvs	0x00705f65
    a9ac:	Address 0x000000000000a9ac is out of bounds.


Disassembly of section .data:

0000a9b0 <putk>:
    a9b0:	00008c6c 	andeq	r8, r0, ip, ror #24

0000a9b4 <heap>:
    a9b4:	0000adf0 	strdeq	sl, [r0], -r0

0000a9b8 <heap_start>:
    a9b8:	0000adf0 	strdeq	sl, [r0], -r0

0000a9bc <heap_end>:
    a9bc:	0020adf0 	strdeq	sl, [r0], -r0	; <UNPREDICTABLE>

0000a9c0 <rpi_putchar>:
    a9c0:	0000a060 	andeq	sl, r0, r0, rrx

Disassembly of section .bss:

0000a9c8 <__bss_start__>:
	...

0000a9d0 <freep>:
	...

0000a9d8 <base>:
	...

0000a9e0 <heap_start>:
    a9e0:	00000000 	andeq	r0, r0, r0

0000a9e4 <heap_end>:
    a9e4:	00000000 	andeq	r0, r0, r0

0000a9e8 <init_p.4012>:
    a9e8:	00000000 	andeq	r0, r0, r0

0000a9ec <buf.3944>:
	...

0000adec <init_p.6>:
    adec:	00000000 	andeq	r0, r0, r0

Disassembly of section .ARM.attributes:

00000000 <.ARM.attributes>:
   0:	00002a41 	andeq	r2, r0, r1, asr #20
   4:	61656100 	cmnvs	r5, r0, lsl #2
   8:	01006962 	tsteq	r0, r2, ror #18
   c:	00000020 	andeq	r0, r0, r0, lsr #32
  10:	4b5a3605 	blmi	168d82c <__bss_end__+0x1682a3c>
  14:	08070600 	stmdaeq	r7, {r9, sl}
  18:	12010901 	andne	r0, r1, #16384	; 0x4000
  1c:	15011404 	strne	r1, [r1, #-1028]	; 0xfffffbfc
  20:	18031701 	stmdane	r3, {r0, r8, r9, sl, ip}
  24:	22011a01 	andcs	r1, r1, #4096	; 0x1000
  28:	Address 0x0000000000000028 is out of bounds.


Disassembly of section .comment:

00000000 <.comment>:
   0:	3a434347 	bcc	10d0d24 <__bss_end__+0x10c5f34>
   4:	4e472820 	cdpmi	8, 4, cr2, cr7, cr0, {1}
   8:	6f542055 	svcvs	0x00542055
   c:	20736c6f 	rsbscs	r6, r3, pc, ror #24
  10:	20726f66 	rsbscs	r6, r2, r6, ror #30
  14:	206d7241 	rsbcs	r7, sp, r1, asr #4
  18:	65626d45 	strbvs	r6, [r2, #-3397]!	; 0xfffff2bb
  1c:	64656464 	strbtvs	r6, [r5], #-1124	; 0xfffffb9c
  20:	6f725020 	svcvs	0x00725020
  24:	73736563 	cmnvc	r3, #415236096	; 0x18c00000
  28:	2073726f 	rsbscs	r7, r3, pc, ror #4
  2c:	30322d39 	eorscc	r2, r2, r9, lsr sp
  30:	712d3931 			; <UNDEFINED> instruction: 0x712d3931
  34:	616d2d34 	cmnvs	sp, r4, lsr sp
  38:	29726f6a 	ldmdbcs	r2!, {r1, r3, r5, r6, r8, r9, sl, fp, sp, lr}^
  3c:	322e3920 	eorcc	r3, lr, #32, 18	; 0x80000
  40:	3220312e 	eorcc	r3, r0, #-2147483637	; 0x8000000b
  44:	31393130 	teqcc	r9, r0, lsr r1
  48:	20353230 	eorscs	r3, r5, r0, lsr r2
  4c:	6c657228 	sfmvs	f7, 2, [r5], #-160	; 0xffffff60
  50:	65736165 	ldrbvs	r6, [r3, #-357]!	; 0xfffffe9b
  54:	415b2029 	cmpmi	fp, r9, lsr #32
  58:	612f4d52 			; <UNDEFINED> instruction: 0x612f4d52
  5c:	392d6d72 	pushcc	{r1, r4, r5, r6, r8, sl, fp, sp, lr}
  60:	6172622d 	cmnvs	r2, sp, lsr #4
  64:	2068636e 	rsbcs	r6, r8, lr, ror #6
  68:	69766572 	ldmdbvs	r6!, {r1, r4, r5, r6, r8, sl, sp, lr}^
  6c:	6e6f6973 			; <UNDEFINED> instruction: 0x6e6f6973
  70:	37373220 	ldrcc	r3, [r7, -r0, lsr #4]!
  74:	5d393935 			; <UNDEFINED> instruction: 0x5d393935
  78:	43434700 	movtmi	r4, #14080	; 0x3700
  7c:	4728203a 			; <UNDEFINED> instruction: 0x4728203a
  80:	4120554e 			; <UNDEFINED> instruction: 0x4120554e
  84:	45206d72 	strmi	r6, [r0, #-3442]!	; 0xfffff28e
  88:	6465626d 	strbtvs	r6, [r5], #-621	; 0xfffffd93
  8c:	20646564 	rsbcs	r6, r4, r4, ror #10
  90:	6c6f6f54 	stclvs	15, cr6, [pc], #-336	; ffffff48 <__bss_end__+0xffff5158>
  94:	69616863 	stmdbvs	r1!, {r0, r1, r5, r6, fp, sp, lr}^
  98:	3031206e 	eorscc	r2, r1, lr, rrx
  9c:	322d332e 	eorcc	r3, sp, #-1207959552	; 0xb8000000
  a0:	2e313230 	mrccs	2, 1, r3, cr1, cr0, {1}
  a4:	20293031 	eorcs	r3, r9, r1, lsr r0
  a8:	332e3031 			; <UNDEFINED> instruction: 0x332e3031
  ac:	3220312e 	eorcc	r3, r0, #-2147483637	; 0x8000000b
  b0:	30313230 	eorscc	r3, r1, r0, lsr r2
  b4:	20343238 	eorscs	r3, r4, r8, lsr r2
  b8:	6c657228 	sfmvs	f7, 2, [r5], #-160	; 0xffffff60
  bc:	65736165 	ldrbvs	r6, [r3, #-357]!	; 0xfffffe9b
  c0:	Address 0x00000000000000c0 is out of bounds.


Disassembly of section .debug_info:

00000000 <.debug_info>:
       0:	00000389 	andeq	r0, r0, r9, lsl #7
       4:	00000004 	andeq	r0, r0, r4
       8:	01040000 	mrseq	r0, (UNDEF: 4)
       c:	00000115 	andeq	r0, r0, r5, lsl r1
      10:	0001ca0c 	andeq	ip, r1, ip, lsl #20
      14:	0000c300 	andeq	ip, r0, r0, lsl #6
      18:	00803800 	addeq	r3, r0, r0, lsl #16
      1c:	00010400 	andeq	r0, r1, r0, lsl #8
      20:	00000000 	andeq	r0, r0, r0
      24:	05040200 	streq	r0, [r4, #-512]	; 0xfffffe00
      28:	00746e69 	rsbseq	r6, r4, r9, ror #28
      2c:	a8070403 	stmdage	r7, {r0, r1, sl}
      30:	03000000 	movweq	r0, #0
      34:	00460601 	subeq	r0, r6, r1, lsl #12
      38:	02030000 	andeq	r0, r3, #0, 0
      3c:	0000f505 	andeq	pc, r0, r5, lsl #10
      40:	05040300 	streq	r0, [r4, #-768]	; 0xfffffd00
      44:	000000ba 	strheq	r0, [r0], -sl
      48:	b5050803 	strlt	r0, [r5, #-2051]	; 0xfffff7fd
      4c:	03000000 	movweq	r0, #0
      50:	00440801 	subeq	r0, r4, r1, lsl #16
      54:	02030000 	andeq	r0, r3, #0, 0
      58:	00005f07 	andeq	r5, r0, r7, lsl #30
      5c:	07040300 	streq	r0, [r4, -r0, lsl #6]
      60:	000000a3 	andeq	r0, r0, r3, lsr #1
      64:	9e070803 	cdpls	8, 0, cr0, cr7, cr3, {0}
      68:	04000000 	streq	r0, [r0], #-0
      6c:	00000025 	andeq	r0, r0, r5, lsr #32
      70:	0000007a 	andeq	r0, r0, sl, ror r0
      74:	00002505 	andeq	r2, r0, r5, lsl #10
      78:	09060000 	stmdbeq	r6, {}	; <UNPREDICTABLE>
      7c:	03000001 	movweq	r0, #1
      80:	00860e1c 	addeq	r0, r6, ip, lsl lr
      84:	04070000 	streq	r0, [r7], #-0
      88:	0000006b 	andeq	r0, r0, fp, rrx
      8c:	00002504 	andeq	r2, r0, r4, lsl #10
      90:	00009b00 	andeq	r9, r0, r0, lsl #22
      94:	009b0500 	addseq	r0, fp, r0, lsl #10
      98:	07000000 	streq	r0, [r0, -r0]
      9c:	0000a804 	andeq	sl, r0, r4, lsl #16
      a0:	08010300 	stmdaeq	r1, {r8, r9}
      a4:	0000004d 	andeq	r0, r0, sp, asr #32
      a8:	0000a108 	andeq	sl, r0, r8, lsl #2
      ac:	05840600 	streq	r0, [r4, #1536]	; 0x600
      b0:	21030000 	mrscs	r0, (UNDEF: 3)
      b4:	0000b90e 	andeq	fp, r0, lr, lsl #18
      b8:	8c040700 	stchi	7, cr0, [r4], {-0}
      bc:	09000000 	stmdbeq	r0, {}	; <UNPREDICTABLE>
      c0:	0904020c 	stmdbeq	r4, {r2, r3, r9}
      c4:	000000f0 	strdeq	r0, [r0], -r0	; <UNPREDICTABLE>
      c8:	00003f0a 	andeq	r3, r0, sl, lsl #30
      cc:	11060200 	mrsne	r0, LR_usr
      d0:	0000009b 	muleq	r0, fp, r0
      d4:	007f0a00 	rsbseq	r0, pc, r0, lsl #20
      d8:	07020000 	streq	r0, [r2, -r0]
      dc:	00009b11 	andeq	r9, r0, r1, lsl fp
      e0:	220a0400 	andcs	r0, sl, #0, 8
      e4:	02000000 	andeq	r0, r0, #0, 0
      e8:	002c0e08 	eoreq	r0, ip, r8, lsl #28
      ec:	00080000 	andeq	r0, r8, r0
      f0:	0000ff0b 	andeq	pc, r0, fp, lsl #30
      f4:	03090200 	movweq	r0, #37376	; 0x9200
      f8:	000000bf 	strheq	r0, [r0], -pc	; <UNPREDICTABLE>
      fc:	290d040c 	stmdbcs	sp, {r2, r3, sl}
     100:	01000000 	mrseq	r0, (UNDEF: 0)
     104:	8108062a 	tsthi	r8, sl, lsr #12
     108:	00340000 	eorseq	r0, r4, r0
     10c:	9c010000 	stcls	0, cr0, [r1], {-0}
     110:	00000167 	andeq	r0, r0, r7, ror #2
     114:	0081140e 	addeq	r1, r1, lr, lsl #8
     118:	00032f00 	andeq	r2, r3, r0, lsl #30
     11c:	00012b00 	andeq	r2, r1, r0, lsl #22
     120:	50010f00 	andpl	r0, r1, r0, lsl #30
     124:	a1a40305 			; <UNDEFINED> instruction: 0xa1a40305
     128:	10000000 	andne	r0, r0, r0
     12c:	00008118 	andeq	r8, r0, r8, lsl r1
     130:	00000167 	andeq	r0, r0, r7, ror #2
     134:	00811c10 	addeq	r1, r1, r0, lsl ip
     138:	00033b00 	andeq	r3, r3, r0, lsl #22
     13c:	81201000 			; <UNDEFINED> instruction: 0x81201000
     140:	03470000 	movteq	r0, #28672	; 0x7000
     144:	2c0e0000 	stccs	0, cr0, [lr], {-0}
     148:	2f000081 	svccs	0x00000081
     14c:	5d000003 	stcpl	0, cr0, [r0, #-12]
     150:	0f000001 	svceq	0x00000001
     154:	03055001 	movweq	r5, #20481	; 0x5001
     158:	0000a1e0 	andeq	sl, r0, r0, ror #3
     15c:	81301000 	teqhi	r0, r0
     160:	03530000 	cmpeq	r3, #0, 0
     164:	11000000 	mrsne	r0, (UNDEF: 0)
     168:	00726162 	rsbseq	r6, r2, r2, ror #2
     16c:	fc062601 	stc2	6, cr2, [r6], {1}
     170:	0c000080 	stceq	0, cr0, [r0], {128}	; 0x80
     174:	01000000 	mrseq	r0, (UNDEF: 0)
     178:	0001879c 	muleq	r1, ip, r7
     17c:	81041000 	mrshi	r1, (UNDEF: 4)
     180:	01870000 	orreq	r0, r7, r0
     184:	12000000 	andne	r0, r0, #0, 0
     188:	00000099 	muleq	r0, r9, r0
     18c:	fc070801 	stc2	8, cr0, [r7], {1}
     190:	38000000 	stmdacc	r0, {}	; <UNPREDICTABLE>
     194:	c4000080 	strgt	r0, [r0], #-128	; 0xffffff80
     198:	01000000 	mrseq	r0, (UNDEF: 0)
     19c:	0002de9c 	muleq	r2, ip, lr
     1a0:	05761300 	ldrbeq	r1, [r6, #-768]!	; 0xfffffd00
     1a4:	010c0000 	mrseq	r0, (UNDEF: 12)
     1a8:	01d40c09 	bicseq	r0, r4, r9, lsl #24
     1ac:	78140000 	ldmdavc	r4, {}	; <UNPREDICTABLE>
     1b0:	0d0a0100 	stfeqs	f0, [sl, #-0]
     1b4:	00000025 	andeq	r0, r0, r5, lsr #32
     1b8:	00120a00 	andseq	r0, r2, r0, lsl #20
     1bc:	0b010000 	bleq	401c4 <__bss_end__+0x353d4>
     1c0:	0002de16 	andeq	sp, r2, r6, lsl lr
     1c4:	de0a0400 	cfcpysle	mvf0, mvf10
     1c8:	01000001 	tsteq	r0, r1
     1cc:	02de160c 	sbcseq	r1, lr, #12, 12	; 0xc00000
     1d0:	00080000 	andeq	r0, r8, r0
     1d4:	01006815 	tsteq	r0, r5, lsl r8
     1d8:	02de080d 	sbcseq	r0, lr, #851968	; 0xd0000
     1dc:	000a0000 	andeq	r0, sl, r0
     1e0:	00000000 	andeq	r0, r0, r0
     1e4:	84160000 	ldrhi	r0, [r6], #-0
     1e8:	f4000000 	vst4.8	{d0-d3}, [r0], r0
     1ec:	05000002 	streq	r0, [r0, #-2]
     1f0:	00a1f003 	adceq	pc, r1, r3
     1f4:	00001700 	andeq	r1, r0, r0, lsl #14
     1f8:	02d40000 	sbcseq	r0, r4, #0, 0
     1fc:	69150000 	ldmdbvs	r5, {}	; <UNPREDICTABLE>
     200:	0d0f0100 	stfeqs	f0, [pc, #-0]	; 208 <__code_start__-0x7df8>
     204:	00000025 	andeq	r0, r0, r5, lsr #32
     208:	0000004e 	andeq	r0, r0, lr, asr #32
     20c:	0000004a 	andeq	r0, r0, sl, asr #32
     210:	00001818 	andeq	r1, r0, r8, lsl r8
     214:	00651500 	rsbeq	r1, r5, r0, lsl #10
     218:	de161001 	cdple	0, 1, cr1, cr6, cr1, {0}
     21c:	73000002 	movwvc	r0, #2
     220:	6d000000 	stcvs	0, cr0, [r0, #-0]
     224:	19000000 	stmdbne	r0, {}	; <UNPREDICTABLE>
     228:	000002f9 	strdeq	r0, [r0], -r9
     22c:	0000807c 	andeq	r8, r0, ip, ror r0
     230:	00807c01 	addeq	r7, r0, r1, lsl #24
     234:	00001800 	andeq	r1, r0, r0, lsl #16
     238:	1a100100 	bne	400640 <__bss_end__+0x3f5850>
     23c:	00000268 	andeq	r0, r0, r8, ror #4
     240:	0003221a 	andeq	r2, r3, sl, lsl r2
     244:	00009e00 	andeq	r9, r0, r0, lsl #28
     248:	00009c00 	andeq	r9, r0, r0, lsl #24
     24c:	03161a00 	tsteq	r6, #0, 20
     250:	00b40000 	adcseq	r0, r4, r0
     254:	00b20000 	adcseq	r0, r2, r0
     258:	0a1a0000 	beq	680260 <__bss_end__+0x675470>
     25c:	ce000003 	cdpgt	0, 0, cr0, cr0, cr3, {0}
     260:	cc000000 	stcgt	0, cr0, [r0], {-0}
     264:	00000000 	andeq	r0, r0, r0
     268:	0080680e 	addeq	r6, r0, lr, lsl #16
     26c:	00032f00 	andeq	r2, r3, r0, lsl #30
     270:	00029c00 	andeq	r9, r2, r0, lsl #24
     274:	50010f00 	andpl	r0, r1, r0, lsl #30
     278:	a1840305 	orrge	r0, r4, r5, lsl #6
     27c:	010f0000 	mrseq	r0, CPSR
     280:	5c910351 	ldcpl	3, cr0, [r1], {81}	; 0x51
     284:	52010f06 	andpl	r0, r1, #6, 30
     288:	06609103 	strbteq	r9, [r0], -r3, lsl #2
     28c:	0153010f 	cmpeq	r3, pc, lsl #2
     290:	7d020f44 	stcvc	15, cr0, [r2, #-272]	; 0xfffffef0
     294:	98030500 	stmdals	r3, {r8, sl}
     298:	000000a1 	andeq	r0, r0, r1, lsr #1
     29c:	00806c10 	addeq	r6, r0, r0, lsl ip
     2a0:	00036800 	andeq	r6, r3, r0, lsl #16
     2a4:	80a40e00 	adchi	r0, r4, r0, lsl #28
     2a8:	03740000 	cmneq	r4, #0, 0
     2ac:	02b80000 	adcseq	r0, r8, #0, 0
     2b0:	010f0000 	mrseq	r0, CPSR
     2b4:	003c0150 	eorseq	r0, ip, r0, asr r1
     2b8:	0080b41b 	addeq	fp, r0, fp, lsl r4
     2bc:	00038000 	andeq	r8, r3, r0
     2c0:	50010f00 	andpl	r0, r1, r0, lsl #30
     2c4:	0f007402 	svceq	0x00007402
     2c8:	30015101 	andcc	r5, r1, r1, lsl #2
     2cc:	0152010f 	cmpeq	r2, pc, lsl #2
     2d0:	0000003c 	andeq	r0, r0, ip, lsr r0
     2d4:	0080e010 	addeq	lr, r0, r0, lsl r0
     2d8:	00035300 	andeq	r5, r3, r0, lsl #6
     2dc:	04070000 	streq	r0, [r7], #-0
     2e0:	000001a1 	andeq	r0, r0, r1, lsr #3
     2e4:	0000a81c 	andeq	sl, r0, ip, lsl r8
     2e8:	0002f400 	andeq	pc, r2, r0, lsl #8
     2ec:	002c1d00 	eoreq	r1, ip, r0, lsl #26
     2f0:	00040000 	andeq	r0, r4, r0
     2f4:	0002e408 	andeq	lr, r2, r8, lsl #8
     2f8:	00171e00 	andseq	r1, r7, r0, lsl #28
     2fc:	0c020000 	stceq	0, cr0, [r2], {-0}
     300:	0000f00b 	andeq	pc, r0, fp
     304:	032f0300 			; <UNDEFINED> instruction: 0x032f0300
     308:	3f1f0000 	svccc	0x001f0000
     30c:	02000000 	andeq	r0, r0, #0, 0
     310:	009b220c 	addseq	r2, fp, ip, lsl #4
     314:	7f1f0000 	svcvc	0x001f0000
     318:	02000000 	andeq	r0, r0, #0, 0
     31c:	009b340c 	addseq	r3, fp, ip, lsl #8
     320:	221f0000 	andscs	r0, pc, #0, 0
     324:	02000000 	andeq	r0, r0, #0, 0
     328:	002c430c 	eoreq	r4, ip, ip, lsl #6
     32c:	20000000 	andcs	r0, r0, r0
     330:	00000546 	andeq	r0, r0, r6, asr #10
     334:	00000546 	andeq	r0, r0, r6, asr #10
     338:	20062803 	andcs	r2, r6, r3, lsl #16
	...
     344:	200a5804 	andcs	r5, sl, r4, lsl #16
     348:	00000072 	andeq	r0, r0, r2, ror r0
     34c:	00000072 	andeq	r0, r0, r2, ror r0
     350:	200a5104 	andcs	r5, sl, r4, lsl #2
     354:	00000031 	andeq	r0, r0, r1, lsr r0
     358:	00000031 	andeq	r0, r0, r1, lsr r0
     35c:	21065604 	tstcs	r6, r4, lsl #12
     360:	74059e07 	strvc	r9, [r5], #-3591	; 0xfffff1f9
     364:	00747365 	rsbseq	r7, r4, r5, ror #6
     368:	00005220 	andeq	r5, r0, r0, lsr #4
     36c:	00005200 	andeq	r5, r0, r0, lsl #4
     370:	066e0300 	strbteq	r0, [lr], -r0, lsl #6
     374:	00009120 	andeq	r9, r0, r0, lsr #2
     378:	00009100 	andeq	r9, r0, r0, lsl #2
     37c:	08320400 	ldmdaeq	r2!, {sl}
     380:	00007820 	andeq	r7, r0, r0, lsr #16
     384:	00007800 	andeq	r7, r0, r0, lsl #16
     388:	07f20300 	ldrbeq	r0, [r2, r0, lsl #6]!
     38c:	00078500 	andeq	r8, r7, r0, lsl #10
     390:	e1000400 	tst	r0, r0, lsl #8
     394:	04000001 	streq	r0, [r0], #-1
     398:	00011501 	andeq	r1, r1, r1, lsl #10
     39c:	02900c00 	addseq	r0, r0, #0, 24
     3a0:	00c30000 	sbceq	r0, r3, r0
     3a4:	813c0000 	teqhi	ip, r0
     3a8:	02e80000 	rsceq	r0, r8, #0, 0
     3ac:	01790000 	cmneq	r9, r0
     3b0:	04020000 	streq	r0, [r2], #-0
     3b4:	746e6905 	strbtvc	r6, [lr], #-2309	; 0xfffff6fb
     3b8:	07040300 	streq	r0, [r4, -r0, lsl #6]
     3bc:	000000a8 	andeq	r0, r0, r8, lsr #1
     3c0:	46060103 	strmi	r0, [r6], -r3, lsl #2
     3c4:	03000000 	movweq	r0, #0
     3c8:	00f50502 	rscseq	r0, r5, r2, lsl #10
     3cc:	04030000 	streq	r0, [r3], #-0
     3d0:	0000ba05 	andeq	fp, r0, r5, lsl #20
     3d4:	05080300 	streq	r0, [r8, #-768]	; 0xfffffd00
     3d8:	000000b5 	strheq	r0, [r0], -r5
     3dc:	44080103 	strmi	r0, [r8], #-259	; 0xfffffefd
     3e0:	04000000 	streq	r0, [r0], #-0
     3e4:	00000269 	andeq	r0, r0, r9, ror #4
     3e8:	62193103 	andsvs	r3, r9, #-1073741824	; 0xc0000000
     3ec:	03000000 	movweq	r0, #0
     3f0:	005f0702 	subseq	r0, pc, r2, lsl #14
     3f4:	60040000 	andvs	r0, r4, r0
     3f8:	03000002 	movweq	r0, #2
     3fc:	00751934 	rsbseq	r1, r5, r4, lsr r9
     400:	04030000 	streq	r0, [r3], #-0
     404:	0000a307 	andeq	sl, r0, r7, lsl #6
     408:	07080300 	streq	r0, [r8, -r0, lsl #6]
     40c:	0000009e 	muleq	r0, lr, r0
     410:	00002505 	andeq	r2, r0, r5, lsl #10
     414:	00009200 	andeq	r9, r0, r0, lsl #4
     418:	00250600 	eoreq	r0, r5, r0, lsl #12
     41c:	07000000 	streq	r0, [r0, -r0]
     420:	00000109 	andeq	r0, r0, r9, lsl #2
     424:	9e0e1c04 	cdpls	12, 0, cr1, cr14, cr4, {0}
     428:	08000000 	stmdaeq	r0, {}	; <UNPREDICTABLE>
     42c:	00008304 	andeq	r8, r0, r4, lsl #6
     430:	00250500 	eoreq	r0, r5, r0, lsl #10
     434:	00b30000 	adcseq	r0, r3, r0
     438:	b3060000 	movwlt	r0, #24576	; 0x6000
     43c:	00000000 	andeq	r0, r0, r0
     440:	00c00408 	sbceq	r0, r0, r8, lsl #8
     444:	01030000 	mrseq	r0, (UNDEF: 3)
     448:	00004d08 	andeq	r4, r0, r8, lsl #26
     44c:	00b90900 	adcseq	r0, r9, r0, lsl #18
     450:	84070000 	strhi	r0, [r7], #-0
     454:	04000005 	streq	r0, [r0], #-5
     458:	00d10e21 	sbcseq	r0, r1, r1, lsr #28
     45c:	04080000 	streq	r0, [r8], #-0
     460:	000000a4 	andeq	r0, r0, r4, lsr #1
     464:	04050c0a 	streq	r0, [r5], #-3082	; 0xfffff3f6
     468:	00010809 	andeq	r0, r1, r9, lsl #16
     46c:	003f0b00 	eorseq	r0, pc, r0, lsl #22
     470:	06050000 	streq	r0, [r5], -r0
     474:	0000b311 	andeq	fp, r0, r1, lsl r3
     478:	7f0b0000 	svcvc	0x000b0000
     47c:	05000000 	streq	r0, [r0, #-0]
     480:	00b31107 	adcseq	r1, r3, r7, lsl #2
     484:	0b040000 	bleq	10048c <__bss_end__+0xf569c>
     488:	00000022 	andeq	r0, r0, r2, lsr #32
     48c:	2c0e0805 	stccs	8, cr0, [lr], {5}
     490:	08000000 	stmdaeq	r0, {}	; <UNPREDICTABLE>
     494:	00ff0400 	rscseq	r0, pc, r0, lsl #8
     498:	09050000 	stmdbeq	r5, {}	; <UNPREDICTABLE>
     49c:	0000d703 	andeq	sp, r0, r3, lsl #14
     4a0:	01070c00 	tsteq	r7, r0, lsl #24
     4a4:	0000004f 	andeq	r0, r0, pc, asr #32
     4a8:	2f0e0902 	svccs	0x000e0902
     4ac:	0d000001 	stceq	0, cr0, [r0, #-4]
     4b0:	0000029a 	muleq	r0, sl, r2
     4b4:	01f90d0b 	mvnseq	r0, fp, lsl #26
     4b8:	000c0000 	andeq	r0, ip, r0
     4bc:	00023e0e 	andeq	r3, r2, lr, lsl #28
     4c0:	0c022400 	cfstrseq	mvf2, [r2], {-0}
     4c4:	00019810 	andeq	r9, r1, r0, lsl r8
     4c8:	00120b00 	andseq	r0, r2, r0, lsl #22
     4cc:	0d020000 	stceq	0, cr0, [r2, #-0]
     4d0:	00019814 	andeq	r9, r1, r4, lsl r8
     4d4:	a20b0000 	andge	r0, fp, #0, 0
     4d8:	02000002 	andeq	r0, r0, #2, 0
     4dc:	00690e0e 	rsbeq	r0, r9, lr, lsl #28
     4e0:	0b040000 	bleq	1004e8 <__bss_end__+0xf56f8>
     4e4:	0000024f 	andeq	r0, r0, pc, asr #4
     4e8:	690e0f02 	stmdbvs	lr, {r1, r8, r9, sl, fp}
     4ec:	08000000 	stmdaeq	r0, {}	; <UNPREDICTABLE>
     4f0:	0002450b 	andeq	r4, r2, fp, lsl #10
     4f4:	0f110200 	svceq	0x00110200
     4f8:	00000108 	andeq	r0, r0, r8, lsl #2
     4fc:	02550b0c 	subseq	r0, r5, #12, 22	; 0x3000
     500:	14020000 	strne	r0, [r2], #-0
     504:	0000690e 	andeq	r6, r0, lr, lsl #18
     508:	ff0b1800 			; <UNDEFINED> instruction: 0xff0b1800
     50c:	02000001 	andeq	r0, r0, #1, 0
     510:	00690e15 	rsbeq	r0, r9, r5, lsl lr
     514:	0b1c0000 	bleq	70051c <__bss_end__+0x6f572c>
     518:	0000037d 	andeq	r0, r0, sp, ror r3
     51c:	560e1702 	strpl	r1, [lr], -r2, lsl #14
     520:	20000000 	andcs	r0, r0, r0
     524:	2f040800 	svccs	0x00040800
     528:	04000001 	streq	r0, [r0], #-1
     52c:	000001f3 	strdeq	r0, [r0], -r3
     530:	2f031802 	svccs	0x00031802
     534:	0f000001 	svceq	0x00000001
     538:	02271004 	eoreq	r1, r7, #4, 0
     53c:	08010000 	stmdaeq	r1, {}	; <UNPREDICTABLE>
     540:	0001be0f 	andeq	fp, r1, pc, lsl #28
     544:	c8030500 	stmdagt	r3, {r8, sl}
     548:	080000a9 	stmdaeq	r0, {r0, r3, r5, r7}
     54c:	00019e04 	andeq	r9, r1, r4, lsl #28
     550:	00911100 	addseq	r1, r1, r0, lsl #2
     554:	66010000 	strvs	r0, [r1], -r0
     558:	0001aa08 	andeq	sl, r1, r8, lsl #20
     55c:	00839400 	addeq	r9, r3, r0, lsl #8
     560:	00009000 	andeq	r9, r0, r0
     564:	8a9c0100 	bhi	fe70096c <__bss_end__+0xfe6f5b7c>
     568:	12000002 	andne	r0, r0, #2, 0
     56c:	000002ca 	andeq	r0, r0, sl, asr #5
     570:	2c1a6601 	ldccs	6, cr6, [sl], {1}
     574:	ec000000 	stc	0, cr0, [r0], {-0}
     578:	e6000000 	str	r0, [r0], -r0
     57c:	13000000 	movwne	r0, #0
     580:	6601006c 	strvs	r0, [r1], -ip, rrx
     584:	0001082c 	andeq	r0, r1, ip, lsr #16
     588:	64910200 	ldrvs	r0, [r1], #512	; 0x200
     58c:	01006814 	tsteq	r0, r4, lsl r8
     590:	01be0c68 			; <UNDEFINED> instruction: 0x01be0c68
     594:	011e0000 	tsteq	lr, r0
     598:	01180000 	tsteq	r8, r0
     59c:	b0150000 	andslt	r0, r5, r0
     5a0:	4c000083 	stcmi	0, cr0, [r0], {131}	; 0x83
     5a4:	25000007 	strcs	r0, [r0, #-7]
     5a8:	16000002 	strne	r0, [r0], -r2
     5ac:	76025001 	strvc	r5, [r2], -r1
     5b0:	c0150024 	andsgt	r0, r5, r4, lsr #32
     5b4:	58000083 	stmdapl	r0, {r0, r1, r7}
     5b8:	44000007 	strmi	r0, [r0], #-7
     5bc:	16000002 	strne	r0, [r0], -r2
     5c0:	74025001 	strvc	r5, [r2], #-1
     5c4:	51011600 	tstpl	r1, r0, lsl #12
     5c8:	01163001 	tsteq	r6, r1
     5cc:	24080252 	strcs	r0, [r8], #-594	; 0xfffffdae
     5d0:	83ec1500 	mvnhi	r1, #0, 10
     5d4:	07640000 	strbeq	r0, [r4, -r0]!
     5d8:	02700000 	rsbseq	r0, r0, #0, 0
     5dc:	01160000 	tsteq	r6, r0
     5e0:	44030550 	strmi	r0, [r3], #-1360	; 0xfffffab0
     5e4:	160000a2 	strne	r0, [r0], -r2, lsr #1
     5e8:	75035101 	strvc	r5, [r3, #-257]	; 0xfffffeff
     5ec:	01160600 	tsteq	r6, r0, lsl #12
     5f0:	60910352 	addsvs	r0, r1, r2, asr r3
     5f4:	53011606 	movwpl	r1, #5638	; 0x1606
     5f8:	06649103 	strbteq	r9, [r4], -r3, lsl #2
     5fc:	83fc1700 	mvnshi	r1, #0, 14
     600:	07640000 	strbeq	r0, [r4, -r0]!
     604:	01160000 	tsteq	r6, r0
     608:	b8030550 	stmdalt	r3, {r4, r6, r8, sl}
     60c:	160000a2 	strne	r0, [r0], -r2, lsr #1
     610:	75025101 	strvc	r5, [r2, #-257]	; 0xfffffeff
     614:	18000000 	stmdane	r0, {}	; <UNPREDICTABLE>
     618:	00000220 	andeq	r0, r0, r0, lsr #4
     61c:	a8065301 	stmdage	r6, {r0, r8, r9, ip, lr}
     620:	ec000082 	stc	0, cr0, [r0], {130}	; 0x82
     624:	01000000 	mrseq	r0, (UNDEF: 0)
     628:	0003f99c 	muleq	r3, ip, r9
     62c:	0a031200 	beq	c4e34 <__bss_end__+0xba044>
     630:	53010000 	movwpl	r0, #4096	; 0x1000
     634:	0001aa14 	andeq	sl, r1, r4, lsl sl
     638:	00014f00 	andeq	r4, r1, r0, lsl #30
     63c:	00014b00 	andeq	r4, r1, r0, lsl #22
     640:	006c1300 	rsbeq	r1, ip, r0, lsl #6
     644:	08245301 	stmdaeq	r4!, {r0, r8, r9, ip, lr}
     648:	02000001 	andeq	r0, r0, #1, 0
     64c:	68145c91 	ldmdavs	r4, {r0, r4, r7, sl, fp, ip, lr}
     650:	0c550100 	ldfeqe	f0, [r5], {-0}
     654:	000001be 			; <UNDEFINED> instruction: 0x000001be
     658:	00000177 	andeq	r0, r0, r7, ror r1
     65c:	0000016d 	andeq	r0, r0, sp, ror #2
     660:	00008419 	andeq	r8, r0, r9, lsl r4
     664:	00040900 	andeq	r0, r4, r0, lsl #18
     668:	d4030500 	strle	r0, [r3], #-1280	; 0xfffffb00
     66c:	150000a2 	strne	r0, [r0, #-162]	; 0xffffff5e
     670:	000082dc 	ldrdeq	r8, [r0], -ip
     674:	00000764 	andeq	r0, r0, r4, ror #14
     678:	0000030b 	andeq	r0, r0, fp, lsl #6
     67c:	05500116 	ldrbeq	r0, [r0, #-278]	; 0xfffffeea
     680:	00a24403 	adceq	r4, r2, r3, lsl #8
     684:	51011600 	tstpl	r1, r0, lsl #12
     688:	16007602 	strne	r7, [r0], -r2, lsl #12
     68c:	77025201 	strvc	r5, [r2, -r1, lsl #4]
     690:	53011600 	movwpl	r1, #5632	; 0x1600
     694:	00007802 	andeq	r7, r0, r2, lsl #16
     698:	0082e815 	addeq	lr, r2, r5, lsl r8
     69c:	00076400 	andeq	r6, r7, r0, lsl #8
     6a0:	00032800 	andeq	r2, r3, r0, lsl #16
     6a4:	50011600 	andpl	r1, r1, r0, lsl #12
     6a8:	a2500305 	subsge	r0, r0, #335544320	; 0x14000000
     6ac:	01160000 	tsteq	r6, r0
     6b0:	00740251 	rsbseq	r0, r4, r1, asr r2
     6b4:	83081500 	movwhi	r1, #34048	; 0x8500
     6b8:	052e0000 	streq	r0, [lr, #-0]!
     6bc:	033c0000 	teqeq	ip, #0, 0
     6c0:	01160000 	tsteq	r6, r0
     6c4:	00740250 	rsbseq	r0, r4, r0, asr r2
     6c8:	831c1500 	tsthi	ip, #0, 10
     6cc:	040e0000 	streq	r0, [lr], #-0
     6d0:	03590000 	cmpeq	r9, #0, 0
     6d4:	01160000 	tsteq	r6, r0
     6d8:	c8030550 	stmdagt	r3, {r4, r6, r8, sl}
     6dc:	160000a9 	strne	r0, [r0], -r9, lsr #1
     6e0:	75025101 	strvc	r5, [r2, #-257]	; 0xfffffeff
     6e4:	24150000 	ldrcs	r0, [r5], #-0
     6e8:	70000083 	andvc	r0, r0, r3, lsl #1
     6ec:	6d000007 	stcvs	0, cr0, [r0, #-28]	; 0xffffffe4
     6f0:	16000003 	strne	r0, [r0], -r3
     6f4:	75025001 	strvc	r5, [r2, #-1]
     6f8:	40150000 	andsmi	r0, r5, r0
     6fc:	64000083 	strvs	r0, [r0], #-131	; 0xffffff7d
     700:	96000007 	strls	r0, [r0], -r7
     704:	16000003 	strne	r0, [r0], -r3
     708:	03055001 	movweq	r5, #20481	; 0x5001
     70c:	0000a260 	andeq	sl, r0, r0, ror #4
     710:	02510116 	subseq	r0, r1, #-2147483643	; 0x80000005
     714:	01160076 	tsteq	r6, r6, ror r0
     718:	00770252 	rsbseq	r0, r7, r2, asr r2
     71c:	02530116 	subseq	r0, r3, #-2147483643	; 0x80000005
     720:	15000078 	strne	r0, [r0, #-120]	; 0xffffff88
     724:	0000834c 	andeq	r8, r0, ip, asr #6
     728:	00000764 	andeq	r0, r0, r4, ror #14
     72c:	000003ad 	andeq	r0, r0, sp, lsr #7
     730:	05500116 	ldrbeq	r0, [r0, #-278]	; 0xfffffeea
     734:	00a27803 	adceq	r7, r2, r3, lsl #16
     738:	501a0000 	andspl	r0, sl, r0
     73c:	7c000083 	stcvc	0, cr0, [r0], {131}	; 0x83
     740:	15000007 	strne	r0, [r0, #-7]
     744:	0000836c 	andeq	r8, r0, ip, ror #6
     748:	00000764 	andeq	r0, r0, r4, ror #14
     74c:	000003ef 	andeq	r0, r0, pc, ror #7
     750:	05500116 	ldrbeq	r0, [r0, #-278]	; 0xfffffeea
     754:	00a18403 	adceq	r8, r1, r3, lsl #8
     758:	51011600 	tstpl	r1, r0, lsl #12
     75c:	a1f80305 	mvnsge	r0, r5, lsl #6
     760:	01160000 	tsteq	r6, r0
     764:	d4030552 	strle	r0, [r3], #-1362	; 0xfffffaae
     768:	160000a2 	strne	r0, [r0], -r2, lsr #1
     76c:	08025301 	stmdaeq	r2, {r0, r8, r9, ip, lr}
     770:	7d02165d 	stcvc	6, cr1, [r2, #-372]	; 0xfffffe8c
     774:	a0030500 	andge	r0, r3, r0, lsl #10
     778:	000000a2 	andeq	r0, r0, r2, lsr #1
     77c:	0083701a 	addeq	r7, r3, sl, lsl r0
     780:	00077c00 	andeq	r7, r7, r0, lsl #24
     784:	c01b0000 	andsgt	r0, fp, r0
     788:	09000000 	stmdbeq	r0, {}	; <UNPREDICTABLE>
     78c:	1c000004 	stcne	0, cr0, [r0], {4}
     790:	0000002c 	andeq	r0, r0, ip, lsr #32
     794:	f9090006 			; <UNDEFINED> instruction: 0xf9090006
     798:	1d000003 	stcne	0, cr0, [r0, #-12]
     79c:	00000232 	andeq	r0, r0, r2, lsr r2
     7a0:	5c0d3a01 			; <UNDEFINED> instruction: 0x5c0d3a01
     7a4:	a4000081 	strge	r0, [r0], #-129	; 0xffffff7f
     7a8:	01000000 	mrseq	r0, (UNDEF: 0)
     7ac:	0005139c 	muleq	r5, ip, r3
     7b0:	006c1e00 	rsbeq	r1, ip, r0, lsl #28
     7b4:	13213a01 			; <UNDEFINED> instruction: 0x13213a01
     7b8:	c8000005 	stmdagt	r0, {r0, r2}
     7bc:	ba000001 	blt	7c8 <__code_start__-0x7838>
     7c0:	1e000001 	cdpne	0, 0, cr0, cr0, cr1, {0}
     7c4:	3a010068 	bcc	4096c <__bss_end__+0x35b7c>
     7c8:	0001be2b 	andeq	fp, r1, fp, lsr #28
     7cc:	00023200 	andeq	r3, r2, r0, lsl #4
     7d0:	00022600 	andeq	r2, r2, r0, lsl #12
     7d4:	00841900 	addeq	r1, r4, r0, lsl #18
     7d8:	05290000 	streq	r0, [r9, #-0]!
     7dc:	03050000 	movweq	r0, #20480	; 0x5000
     7e0:	0000a2c8 	andeq	sl, r0, r8, asr #5
     7e4:	0001de1f 	andeq	sp, r1, pc, lsl lr
     7e8:	0c3d0100 	ldfeqs	f0, [sp], #-0
     7ec:	000001be 			; <UNDEFINED> instruction: 0x000001be
     7f0:	00000287 	andeq	r0, r0, r7, lsl #5
     7f4:	0000027f 	andeq	r0, r0, pc, ror r2
     7f8:	01007014 	tsteq	r0, r4, lsl r0
     7fc:	01be0c45 			; <UNDEFINED> instruction: 0x01be0c45
     800:	02bf0000 	adcseq	r0, pc, #0, 0
     804:	02bb0000 	adcseq	r0, fp, #0, 0
     808:	84150000 	ldrhi	r0, [r5], #-0
     80c:	ed000081 	stc	0, cr0, [r0, #-516]	; 0xfffffdfc
     810:	91000006 	tstls	r0, r6
     814:	16000004 	strne	r0, [r0], -r4
     818:	75025001 	strvc	r5, [r2, #-1]
     81c:	c0150000 	andsgt	r0, r5, r0
     820:	64000081 	strvs	r0, [r0], #-129	; 0xffffff7f
     824:	ca000007 	bgt	848 <__code_start__-0x77b8>
     828:	16000004 	strne	r0, [r0], -r4
     82c:	03055001 	movweq	r5, #20481	; 0x5001
     830:	0000a184 	andeq	sl, r0, r4, lsl #3
     834:	05510116 	ldrbeq	r0, [r1, #-278]	; 0xfffffeea
     838:	00a1f803 	adceq	pc, r1, r3, lsl #16
     83c:	52011600 	andpl	r1, r1, #0, 12
     840:	a2c80305 	sbcge	r0, r8, #335544320	; 0x14000000
     844:	01160000 	tsteq	r6, r0
     848:	3c080253 	sfmcc	f0, 4, [r8], {83}	; 0x53
     84c:	007d0216 	rsbseq	r0, sp, r6, lsl r2
     850:	a2040305 	andge	r0, r4, #335544320	; 0x14000000
     854:	1a000000 	bne	85c <__code_start__-0x77a4>
     858:	000081c4 	andeq	r8, r0, r4, asr #3
     85c:	0000077c 	andeq	r0, r0, ip, ror r7
     860:	0081e815 	addeq	lr, r1, r5, lsl r8
     864:	00076400 	andeq	r6, r7, r0, lsl #8
     868:	00050900 	andeq	r0, r5, r0, lsl #18
     86c:	50011600 	andpl	r1, r1, r0, lsl #12
     870:	a2080305 	andge	r0, r8, #335544320	; 0x14000000
     874:	01160000 	tsteq	r6, r0
     878:	f8030551 			; <UNDEFINED> instruction: 0xf8030551
     87c:	160000a1 	strne	r0, [r0], -r1, lsr #1
     880:	03055201 	movweq	r5, #20993	; 0x5201
     884:	0000a2c8 	andeq	sl, r0, r8, asr #5
     888:	02530116 	subseq	r0, r3, #-2147483643	; 0x80000005
     88c:	02164f08 	andseq	r4, r6, #8, 30
     890:	7402007d 	strvc	r0, [r2], #-125	; 0xffffff83
     894:	ec1a0000 	ldc	0, cr0, [sl], {-0}
     898:	7c000081 	stcvc	0, cr0, [r0], {129}	; 0x81
     89c:	00000007 	andeq	r0, r0, r7
     8a0:	01be0408 			; <UNDEFINED> instruction: 0x01be0408
     8a4:	c01b0000 	andsgt	r0, fp, r0
     8a8:	29000000 	stmdbcs	r0, {}	; <UNPREDICTABLE>
     8ac:	1c000005 	stcne	0, cr0, [r0], {5}
     8b0:	0000002c 	andeq	r0, r0, ip, lsr #32
     8b4:	1909000b 	stmdbne	r9, {r0, r1, r3}
     8b8:	11000005 	tstne	r0, r5
     8bc:	00000272 	andeq	r0, r0, r2, ror r2
     8c0:	be082b01 	vmlalt.f64	d2, d8, d1
     8c4:	50000001 	andpl	r0, r0, r1
     8c8:	58000082 	stmdapl	r0, {r1, r7}
     8cc:	01000000 	mrseq	r0, (UNDEF: 0)
     8d0:	0005cf9c 	muleq	r5, ip, pc	; <UNPREDICTABLE>
     8d4:	74701e00 	ldrbtvc	r1, [r0], #-3584	; 0xfffff200
     8d8:	2b010072 	blcs	40aa8 <__bss_end__+0x35cb8>
     8dc:	0001aa20 	andeq	sl, r1, r0, lsr #20
     8e0:	0002e100 	andeq	lr, r2, r0, lsl #2
     8e4:	0002dd00 	andeq	sp, r2, r0, lsl #26
     8e8:	82582000 	subshi	r2, r8, #0, 0
     8ec:	00440000 	subeq	r0, r4, r0
     8f0:	68140000 	ldmdavs	r4, {}	; <UNPREDICTABLE>
     8f4:	112e0100 			; <UNDEFINED> instruction: 0x112e0100
     8f8:	000001be 			; <UNDEFINED> instruction: 0x000001be
     8fc:	00000307 	andeq	r0, r0, r7, lsl #6
     900:	000002ff 	strdeq	r0, [r0], -pc	; <UNPREDICTABLE>
     904:	00825c1a 	addeq	r5, r2, sl, lsl ip
     908:	00071a00 	andeq	r1, r7, r0, lsl #20
     90c:	82741500 	rsbshi	r1, r4, #0, 10
     910:	05cf0000 	strbeq	r0, [pc]	; 918 <__code_start__-0x76e8>
     914:	059a0000 	ldreq	r0, [sl]
     918:	01160000 	tsteq	r6, r0
     91c:	00740250 	rsbseq	r0, r4, r0, asr r2
     920:	02510116 	subseq	r0, r1, #-2147483643	; 0x80000005
     924:	15000075 	strne	r0, [r0, #-117]	; 0xffffff8b
     928:	00008284 	andeq	r8, r0, r4, lsl #5
     92c:	000006ed 	andeq	r0, r0, sp, ror #13
     930:	000005ae 	andeq	r0, r0, lr, lsr #11
     934:	02500116 	subseq	r0, r0, #-2147483643	; 0x80000005
     938:	17000074 	smlsdxne	r0, r4, r0, r0
     93c:	0000829c 	muleq	r0, ip, r2
     940:	00000764 	andeq	r0, r0, r4, ror #14
     944:	05500116 	ldrbeq	r0, [r0, #-278]	; 0xfffffeea
     948:	00a23403 	adceq	r3, r2, r3, lsl #8
     94c:	51011600 	tstpl	r1, r0, lsl #12
     950:	16007502 	strne	r7, [r0], -r2, lsl #10
     954:	74025201 	strvc	r5, [r2], #-513	; 0xfffffdff
     958:	00000000 	andeq	r0, r0, r0
     95c:	0001e311 	andeq	lr, r1, r1, lsl r3
     960:	0a240100 	beq	900d68 <__bss_end__+0x8f5f78>
     964:	0000002c 	andeq	r0, r0, ip, lsr #32
     968:	00008220 	andeq	r8, r0, r0, lsr #4
     96c:	00000030 	andeq	r0, r0, r0, lsr r0
     970:	065c9c01 	ldrbeq	r9, [ip], -r1, lsl #24
     974:	681e0000 	ldmdavs	lr, {}	; <UNPREDICTABLE>
     978:	21240100 			; <UNDEFINED> instruction: 0x21240100
     97c:	000001be 			; <UNDEFINED> instruction: 0x000001be
     980:	0000033f 	andeq	r0, r0, pc, lsr r3
     984:	0000033b 	andeq	r0, r0, fp, lsr r3
     988:	7274701e 	rsbsvc	r7, r4, #30, 0
     98c:	2a240100 	bcs	900d94 <__bss_end__+0x8f5fa4>
     990:	000001aa 	andeq	r0, r0, sl, lsr #3
     994:	00000361 	andeq	r0, r0, r1, ror #6
     998:	0000035d 	andeq	r0, r0, sp, asr r3
     99c:	6e696d14 	mcrvs	13, 3, r6, cr9, cr4, {0}
     9a0:	0b260100 	bleq	980da8 <__bss_end__+0x975fb8>
     9a4:	000001aa 	andeq	r0, r0, sl, lsr #3
     9a8:	00000383 	andeq	r0, r0, r3, lsl #7
     9ac:	0000037f 	andeq	r0, r0, pc, ror r3
     9b0:	78616d14 	stmdavc	r1!, {r2, r4, r8, sl, fp, sp, lr}^
     9b4:	0b270100 	bleq	9c0dbc <__bss_end__+0x9b5fcc>
     9b8:	000001aa 	andeq	r0, r0, sl, lsr #3
     9bc:	000003a3 	andeq	r0, r0, r3, lsr #7
     9c0:	000003a1 	andeq	r0, r0, r1, lsr #7
     9c4:	00823015 	addeq	r3, r2, r5, lsl r0
     9c8:	0006c000 	andeq	ip, r6, r0
     9cc:	00064b00 	andeq	r4, r6, r0, lsl #22
     9d0:	50011600 	andpl	r1, r1, r0, lsl #12
     9d4:	00007602 	andeq	r7, r0, r2, lsl #12
     9d8:	00823c17 	addeq	r3, r2, r7, lsl ip
     9dc:	00065c00 	andeq	r5, r6, r0, lsl #24
     9e0:	50011600 	andpl	r1, r1, r0, lsl #12
     9e4:	00007602 	andeq	r7, r0, r2, lsl #12
     9e8:	02bc1100 	adcseq	r1, ip, #0
     9ec:	1e010000 	cdpne	0, 0, cr0, cr1, cr0, {0}
     9f0:	0001aa07 	andeq	sl, r1, r7, lsl #20
     9f4:	00820800 	addeq	r0, r2, r0, lsl #16
     9f8:	00001800 	andeq	r1, r0, r0, lsl #16
     9fc:	c09c0100 	addsgt	r0, ip, r0, lsl #2
     a00:	1e000006 	cdpne	0, 0, cr0, cr0, cr6, {0}
     a04:	1e010068 	cdpne	0, 0, cr0, cr1, cr8, {3}
     a08:	0001be19 	andeq	fp, r1, r9, lsl lr
     a0c:	0003ba00 	andeq	fp, r3, r0, lsl #20
     a10:	0003b600 	andeq	fp, r3, r0, lsl #12
     a14:	07302100 	ldreq	r2, [r0, -r0, lsl #2]!
     a18:	82140000 	andshi	r0, r4, #0, 0
     a1c:	14000000 	strne	r0, [r0], #-0
     a20:	04000082 	streq	r0, [r0], #-130	; 0xffffff7e
     a24:	01000000 	mrseq	r0, (UNDEF: 0)
     a28:	06af2620 	strteq	r2, [pc], r0, lsr #12
     a2c:	41220000 			; <UNDEFINED> instruction: 0x41220000
     a30:	da000007 	ble	a54 <__code_start__-0x75ac>
     a34:	d8000003 	stmdale	r0, {r0, r1}
     a38:	00000003 	andeq	r0, r0, r3
     a3c:	00821417 	addeq	r1, r2, r7, lsl r4
     a40:	0006c000 	andeq	ip, r6, r0
     a44:	50011600 	andpl	r1, r1, r0, lsl #12
     a48:	00007402 	andeq	r7, r0, r2, lsl #8
     a4c:	02af1100 	adceq	r1, pc, #0
     a50:	18010000 	stmdane	r1, {}	; <UNPREDICTABLE>
     a54:	0001aa07 	andeq	sl, r1, r7, lsl #20
     a58:	00820000 	addeq	r0, r2, r0
     a5c:	00000800 	andeq	r0, r0, r0, lsl #16
     a60:	ed9c0100 	ldfs	f0, [ip]
     a64:	1e000006 	cdpne	0, 0, cr0, cr0, cr6, {0}
     a68:	18010068 	stmdane	r1, {r3, r5, r6}
     a6c:	0001be1b 	andeq	fp, r1, fp, lsl lr
     a70:	0003f100 	andeq	pc, r3, r0, lsl #2
     a74:	0003ed00 	andeq	lr, r3, r0, lsl #26
     a78:	84110000 	ldrhi	r0, [r1], #-0
     a7c:	01000002 	tsteq	r0, r2
     a80:	01be0811 			; <UNDEFINED> instruction: 0x01be0811
     a84:	814c0000 	mrshi	r0, (UNDEF: 76)
     a88:	00100000 	andseq	r0, r0, r0
     a8c:	9c010000 	stcls	0, cr0, [r1], {-0}
     a90:	0000071a 	andeq	r0, r0, sl, lsl r7
     a94:	0100701e 	tsteq	r0, lr, lsl r0
     a98:	01be1b11 			; <UNDEFINED> instruction: 0x01be1b11
     a9c:	04150000 	ldreq	r0, [r5], #-0
     aa0:	04110000 	ldreq	r0, [r1], #-0
     aa4:	23000000 	movwcs	r0, #0
     aa8:	00000213 	andeq	r0, r0, r3, lsl r2
     aac:	be080b01 	vmlalt.f64	d0, d8, d1
     ab0:	3c000001 	stccc	0, cr0, [r0], {1}
     ab4:	10000081 	andne	r0, r0, r1, lsl #1
     ab8:	01000000 	mrseq	r0, (UNDEF: 0)
     abc:	02c7249c 	sbceq	r2, r7, #156, 8	; 0x9c000000
     ac0:	21020000 	mrscs	r0, (UNDEF: 2)
     ac4:	00002c18 	andeq	r2, r0, r8, lsl ip
     ac8:	074c0300 	strbeq	r0, [ip, -r0, lsl #6]
     acc:	68250000 	stmdavs	r5!, {}	; <UNPREDICTABLE>
     ad0:	29210200 	stmdbcs	r1!, {r9}
     ad4:	000001be 			; <UNDEFINED> instruction: 0x000001be
     ad8:	02d12600 	sbcseq	r2, r1, #0, 12
     adc:	02d10000 	sbcseq	r0, r1, #0, 0
     ae0:	1e060000 	cdpne	0, 0, cr0, cr6, cr0, {0}
     ae4:	00782607 	rsbseq	r2, r8, r7, lsl #12
     ae8:	00780000 	rsbseq	r0, r8, r0
     aec:	f2040000 	vhadd.s8	d0, d4, d0
     af0:	05462607 	strbeq	r2, [r6, #-1543]	; 0xfffff9f9
     af4:	05460000 	strbeq	r0, [r6, #-0]
     af8:	28040000 	stmdacs	r4, {}	; <UNPREDICTABLE>
     afc:	020b2606 	andeq	r2, fp, #6291456	; 0x600000
     b00:	020b0000 	andeq	r0, fp, #0, 0
     b04:	1f060000 	svcne	0x00060000
     b08:	00522606 	subseq	r2, r2, r6, lsl #12
     b0c:	00520000 	subseq	r0, r2, r0
     b10:	6e040000 	cdpvs	0, 0, cr0, cr4, cr0, {0}
     b14:	02c20006 	sbceq	r0, r2, #6, 0
     b18:	00040000 	andeq	r0, r4, r0
     b1c:	00000437 	andeq	r0, r0, r7, lsr r4
     b20:	01150104 	tsteq	r5, r4, lsl #2
     b24:	fb0c0000 	blx	300b2e <__bss_end__+0x2f5d3e>
     b28:	c3000002 	movwgt	r0, #2
     b2c:	24000000 	strcs	r0, [r0], #-0
     b30:	ac000084 	stcge	0, cr0, [r0], {132}	; 0x84
     b34:	61000001 	tstvs	r0, r1
     b38:	02000004 	andeq	r0, r0, #4, 0
     b3c:	6e690504 	cdpvs	5, 6, cr0, cr9, cr4, {0}
     b40:	04030074 	streq	r0, [r3], #-116	; 0xffffff8c
     b44:	0000a807 	andeq	sl, r0, r7, lsl #16
     b48:	06010300 	streq	r0, [r1], -r0, lsl #6
     b4c:	00000046 	andeq	r0, r0, r6, asr #32
     b50:	f5050203 			; <UNDEFINED> instruction: 0xf5050203
     b54:	03000000 	movweq	r0, #0
     b58:	00ba0504 	adcseq	r0, sl, r4, lsl #10
     b5c:	08030000 	stmdaeq	r3, {}	; <UNPREDICTABLE>
     b60:	0000b505 	andeq	fp, r0, r5, lsl #10
     b64:	08010300 	stmdaeq	r1, {r8, r9}
     b68:	00000044 	andeq	r0, r0, r4, asr #32
     b6c:	5f070203 	svcpl	0x00070203
     b70:	03000000 	movweq	r0, #0
     b74:	00a30704 	adceq	r0, r3, r4, lsl #14
     b78:	08030000 	stmdaeq	r3, {}	; <UNPREDICTABLE>
     b7c:	00009e07 	andeq	r9, r0, r7, lsl #28
     b80:	00250400 	eoreq	r0, r5, r0, lsl #8
     b84:	007a0000 	rsbseq	r0, sl, r0
     b88:	25050000 	strcs	r0, [r5, #-0]
     b8c:	00000000 	andeq	r0, r0, r0
     b90:	00010906 	andeq	r0, r1, r6, lsl #18
     b94:	0e1c0200 	cdpeq	2, 1, cr0, cr12, cr0, {0}
     b98:	00000086 	andeq	r0, r0, r6, lsl #1
     b9c:	006b0407 	rsbeq	r0, fp, r7, lsl #8
     ba0:	25040000 	strcs	r0, [r4, #-0]
     ba4:	9b000000 	blls	bac <__code_start__-0x7454>
     ba8:	05000000 	streq	r0, [r0, #-0]
     bac:	0000009b 	muleq	r0, fp, r0
     bb0:	a8040700 	stmdage	r4, {r8, r9, sl}
     bb4:	03000000 	movweq	r0, #0
     bb8:	004d0801 	subeq	r0, sp, r1, lsl #16
     bbc:	a1080000 	mrsge	r0, (UNDEF: 8)
     bc0:	06000000 	streq	r0, [r0], -r0
     bc4:	00000584 	andeq	r0, r0, r4, lsl #11
     bc8:	b90e2102 	stmdblt	lr, {r1, r8, sp}
     bcc:	07000000 	streq	r0, [r0, -r0]
     bd0:	00008c04 	andeq	r8, r0, r4, lsl #24
     bd4:	02e80900 	rsceq	r0, r8, #0, 18
     bd8:	01080000 	mrseq	r0, (UNDEF: 8)
     bdc:	00ec0705 	rsceq	r0, ip, r5, lsl #14
     be0:	640a0000 	strvs	r0, [sl], #-0
     be4:	09070100 	stmdbeq	r7, {r8}
     be8:	000000ec 	andeq	r0, r0, ip, ror #1
     bec:	0100700a 	tsteq	r0, sl
     bf0:	00f30808 	rscseq	r0, r3, r8, lsl #16
     bf4:	660a0000 	strvs	r0, [sl], -r0
     bf8:	09010070 	stmdbeq	r1, {r4, r5, r6}
     bfc:	0000f609 	andeq	pc, r0, r9, lsl #12
     c00:	08030000 	stmdaeq	r3, {}	; <UNPREDICTABLE>
     c04:	00030704 	andeq	r0, r3, r4, lsl #14
     c08:	0c040b00 			; <UNDEFINED> instruction: 0x0c040b00
     c0c:	00f50407 	rscseq	r0, r5, r7, lsl #8
     c10:	080d0000 	stmdaeq	sp, {}	; <UNPREDICTABLE>
     c14:	20020e01 	andcs	r0, r2, r1, lsl #28
     c18:	0e000001 	cdpeq	0, 0, cr0, cr0, cr1, {0}
     c1c:	00727470 	rsbseq	r7, r2, r0, ror r4
     c20:	42111001 	andsmi	r1, r1, #1, 0
     c24:	00000001 	andeq	r0, r0, r1
     c28:	0003210f 	andeq	r2, r3, pc, lsl #2
     c2c:	0c110100 	ldfeqs	f0, [r1], {-0}
     c30:	0000002c 	andeq	r0, r0, ip, lsr #32
     c34:	db090004 	blle	240c4c <__bss_end__+0x235e5c>
     c38:	08000002 	stmdaeq	r0, {r1}
     c3c:	420f0c01 	andmi	r0, pc, #256	; 0x100
     c40:	0a000001 	beq	c4c <__code_start__-0x73b4>
     c44:	12010073 	andne	r0, r1, #115, 0	; 0x73
     c48:	0000fc04 	andeq	pc, r0, r4, lsl #24
     c4c:	00780a00 	rsbseq	r0, r8, r0, lsl #20
     c50:	bf0e1301 	svclt	0x000e1301
     c54:	00000000 	andeq	r0, r0, r0
     c58:	01200407 			; <UNDEFINED> instruction: 0x01200407
     c5c:	26100000 	ldrcs	r0, [r0], -r0
     c60:	01000003 	tsteq	r0, r3
     c64:	01200314 			; <UNDEFINED> instruction: 0x01200314
     c68:	0e110000 	cdpeq	0, 1, cr0, cr1, cr0, {0}
     c6c:	01000003 	tsteq	r0, r3
     c70:	01480f18 	cmpeq	r8, r8, lsl pc
     c74:	03050000 	movweq	r0, #20480	; 0x5000
     c78:	0000a9d8 	ldrdeq	sl, [r0], -r8
     c7c:	0002ee11 	andeq	lr, r2, r1, lsl lr
     c80:	10190100 	andsne	r0, r9, r0, lsl #2
     c84:	00000178 	andeq	r0, r0, r8, ror r1
     c88:	a9d00305 	ldmibge	r0, {r0, r2, r8, r9}^
     c8c:	04070000 	streq	r0, [r7], #-0
     c90:	00000148 	andeq	r0, r0, r8, asr #2
     c94:	00020b12 	andeq	r0, r2, r2, lsl fp
     c98:	06520100 	ldrbeq	r0, [r2], -r0, lsl #2
     c9c:	00008424 	andeq	r8, r0, r4, lsr #8
     ca0:	000000bc 	strheq	r0, [r0], -ip
     ca4:	01c79c01 	biceq	r9, r7, r1, lsl #24
     ca8:	61130000 	tstvs	r3, r0
     cac:	52010070 	andpl	r0, r1, #112, 0	; 0x70
     cb0:	0000f314 	andeq	pc, r0, r4, lsl r3	; <UNPREDICTABLE>
     cb4:	14500100 	ldrbne	r0, [r0], #-256	; 0xffffff00
     cb8:	01007062 	tsteq	r0, r2, rrx
     cbc:	01780a54 	cmneq	r8, r4, asr sl
     cc0:	043e0000 	ldrteq	r0, [lr], #-0
     cc4:	04360000 	ldrteq	r0, [r6], #-0
     cc8:	70140000 	andsvc	r0, r4, r0
     ccc:	0f540100 	svceq	0x00540100
     cd0:	00000178 	andeq	r0, r0, r8, ror r1
     cd4:	0000047a 	andeq	r0, r0, sl, ror r4
     cd8:	00000476 	andeq	r0, r0, r6, ror r4
     cdc:	02d11500 	sbcseq	r1, r1, #0, 10
     ce0:	2a010000 	bcs	40ce8 <__bss_end__+0x35ef8>
     ce4:	0000f307 	andeq	pc, r0, r7, lsl #6
     ce8:	00852400 	addeq	r2, r5, r0, lsl #8
     cec:	0000ac00 	andeq	sl, r0, r0, lsl #24
     cf0:	409c0100 	addsmi	r0, ip, r0, lsl #2
     cf4:	16000002 	strne	r0, [r0], -r2
     cf8:	000002ca 	andeq	r0, r0, sl, asr #5
     cfc:	2c1a2a01 			; <UNDEFINED> instruction: 0x2c1a2a01
     d00:	a0000000 	andge	r0, r0, r0
     d04:	98000004 	stmdals	r0, {r2}
     d08:	14000004 	strne	r0, [r0], #-4
     d0c:	2c010070 	stccs	0, cr0, [r1], {112}	; 0x70
     d10:	0001780a 	andeq	r7, r1, sl, lsl #16
     d14:	0004e800 	andeq	lr, r4, r0, lsl #16
     d18:	0004da00 	andeq	sp, r4, r0, lsl #20
     d1c:	02e21700 	rsceq	r1, r2, #0, 14
     d20:	2c010000 	stccs	0, cr0, [r1], {-0}
     d24:	0001780e 	andeq	r7, r1, lr, lsl #16
     d28:	00054a00 	andeq	r4, r5, r0, lsl #20
     d2c:	00054000 	andeq	r4, r5, r0
     d30:	02f41700 	rscseq	r1, r4, #0, 14
     d34:	2d010000 	stccs	0, cr0, [r1, #-0]
     d38:	00002c0b 	andeq	r2, r0, fp, lsl #24
     d3c:	00059000 	andeq	r9, r5, r0
     d40:	00058e00 	andeq	r8, r5, r0, lsl #28
     d44:	85c01800 	strbhi	r1, [r0, #2048]	; 0x800
     d48:	02400000 	subeq	r0, r0, #0, 0
     d4c:	01190000 	tsteq	r9, r0
     d50:	00740250 	rsbseq	r0, r4, r0, asr r2
     d54:	181a0000 	ldmdane	sl, {}	; <UNPREDICTABLE>
     d58:	01000003 	tsteq	r0, r3
     d5c:	0178101c 	cmneq	r8, ip, lsl r0
     d60:	84e00000 	strbthi	r0, [r0], #0
     d64:	00440000 	subeq	r0, r4, r0
     d68:	9c010000 	stcls	0, cr0, [r1], {-0}
     d6c:	000002b3 			; <UNDEFINED> instruction: 0x000002b3
     d70:	00756e1b 	rsbseq	r6, r5, fp, lsl lr
     d74:	2c221c01 	stccs	12, cr1, [r2], #-4
     d78:	a7000000 	strge	r0, [r0, -r0]
     d7c:	a3000005 	movwge	r0, #5
     d80:	14000005 	strne	r0, [r0], #-5
     d84:	01007063 	tsteq	r0, r3, rrx
     d88:	02b30820 	adcseq	r0, r3, #32, 16	; 0x200000
     d8c:	05cb0000 	strbeq	r0, [fp]
     d90:	05c50000 	strbeq	r0, [r5]
     d94:	75140000 	ldrvc	r0, [r4, #-0]
     d98:	23010070 	movwcs	r0, #4208	; 0x1070
     d9c:	0001780a 	andeq	r7, r1, sl, lsl #16
     da0:	0005fa00 	andeq	pc, r5, r0, lsl #20
     da4:	0005f600 	andeq	pc, r5, r0, lsl #12
     da8:	84f81c00 	ldrbthi	r1, [r8], #3072	; 0xc00
     dac:	02b90000 	adcseq	r0, r9, #0, 0
     db0:	02a90000 	adceq	r0, r9, #0, 0
     db4:	01190000 	tsteq	r9, r0
     db8:	00740450 	rsbseq	r0, r4, r0, asr r4
     dbc:	1d002433 	cfstrsne	mvf2, [r0, #-204]	; 0xffffff34
     dc0:	0000850c 	andeq	r8, r0, ip, lsl #10
     dc4:	0000017e 	andeq	r0, r0, lr, ror r1
     dc8:	a1040700 	tstge	r4, r0, lsl #14
     dcc:	1e000000 	cdpne	0, 0, cr0, cr0, cr0, {0}
     dd0:	00000313 	andeq	r0, r0, r3, lsl r3
     dd4:	00000313 	andeq	r0, r0, r3, lsl r3
     dd8:	000b1a03 	andeq	r1, fp, r3, lsl #20
     ddc:	00000ca3 	andeq	r0, r0, r3, lsr #25
     de0:	060e0004 	streq	r0, [lr], -r4
     de4:	01040000 	mrseq	r0, (UNDEF: 4)
     de8:	00000115 	andeq	r0, r0, r5, lsl r1
     dec:	0003e10c 	andeq	lr, r3, ip, lsl #2
     df0:	0000c300 	andeq	ip, r0, r0, lsl #6
     df4:	0085d000 	addeq	sp, r5, r0
     df8:	0005c400 	andeq	ip, r5, r0, lsl #8
     dfc:	00068c00 	andeq	r8, r6, r0, lsl #24
     e00:	05040200 	streq	r0, [r4, #-512]	; 0xfffffe00
     e04:	00746e69 	rsbseq	r6, r4, r9, ror #28
     e08:	a8070403 	stmdage	r7, {r0, r1, sl}
     e0c:	03000000 	movweq	r0, #0
     e10:	00460601 	subeq	r0, r6, r1, lsl #12
     e14:	02030000 	andeq	r0, r3, #0, 0
     e18:	0000f505 	andeq	pc, r0, r5, lsl #10
     e1c:	05040300 	streq	r0, [r4, #-768]	; 0xfffffd00
     e20:	000000ba 	strheq	r0, [r0], -sl
     e24:	b5050803 	strlt	r0, [r5, #-2051]	; 0xfffff7fd
     e28:	03000000 	movweq	r0, #0
     e2c:	00440801 	subeq	r0, r4, r1, lsl #16
     e30:	69040000 	stmdbvs	r4, {}	; <UNPREDICTABLE>
     e34:	03000002 	movweq	r0, #2
     e38:	00621931 	rsbeq	r1, r2, r1, lsr r9
     e3c:	02030000 	andeq	r0, r3, #0, 0
     e40:	00005f07 	andeq	r5, r0, r7, lsl #30
     e44:	02600400 	rsbeq	r0, r0, #0, 8
     e48:	34030000 	strcc	r0, [r3], #-0
     e4c:	00007519 	andeq	r7, r0, r9, lsl r5
     e50:	07040300 	streq	r0, [r4, -r0, lsl #6]
     e54:	000000a3 	andeq	r0, r0, r3, lsr #1
     e58:	9e070803 	cdpls	8, 0, cr0, cr7, cr3, {0}
     e5c:	05000000 	streq	r0, [r0, #-0]
     e60:	00000025 	andeq	r0, r0, r5, lsr #32
     e64:	00000092 	muleq	r0, r2, r0
     e68:	00002506 	andeq	r2, r0, r6, lsl #10
     e6c:	09070000 	stmdbeq	r7, {}	; <UNPREDICTABLE>
     e70:	04000001 	streq	r0, [r0], #-1
     e74:	009e0e1c 	addseq	r0, lr, ip, lsl lr
     e78:	04080000 	streq	r0, [r8], #-0
     e7c:	00000083 	andeq	r0, r0, r3, lsl #1
     e80:	00002505 	andeq	r2, r0, r5, lsl #10
     e84:	0000b300 	andeq	fp, r0, r0, lsl #6
     e88:	00b30600 	adcseq	r0, r3, r0, lsl #12
     e8c:	08000000 	stmdaeq	r0, {}	; <UNPREDICTABLE>
     e90:	0000c004 	andeq	ip, r0, r4
     e94:	08010300 	stmdaeq	r1, {r8, r9}
     e98:	0000004d 	andeq	r0, r0, sp, asr #32
     e9c:	0000b909 	andeq	fp, r0, r9, lsl #18
     ea0:	05840700 	streq	r0, [r4, #1792]	; 0x700
     ea4:	21040000 	mrscs	r0, (UNDEF: 4)
     ea8:	0000d10e 	andeq	sp, r0, lr, lsl #2
     eac:	a4040800 	strge	r0, [r4], #-2048	; 0xfffff800
     eb0:	0a000000 	beq	eb8 <__code_start__-0x7148>
     eb4:	0904020c 	stmdbeq	r4, {r2, r3, r9}
     eb8:	00000108 	andeq	r0, r0, r8, lsl #2
     ebc:	00003f0b 	andeq	r3, r0, fp, lsl #30
     ec0:	11060200 	mrsne	r0, LR_usr
     ec4:	000000b3 	strheq	r0, [r0], -r3
     ec8:	007f0b00 	rsbseq	r0, pc, r0, lsl #22
     ecc:	07020000 	streq	r0, [r2, -r0]
     ed0:	0000b311 	andeq	fp, r0, r1, lsl r3
     ed4:	220b0400 	andcs	r0, fp, #0, 8
     ed8:	02000000 	andeq	r0, r0, #0, 0
     edc:	002c0e08 	eoreq	r0, ip, r8, lsl #28
     ee0:	00080000 	andeq	r0, r8, r0
     ee4:	0000ff04 	andeq	pc, r0, r4, lsl #30
     ee8:	03090200 	movweq	r0, #37376	; 0x9200
     eec:	000000d7 	ldrdeq	r0, [r0], -r7
     ef0:	00023e0c 	andeq	r3, r2, ip, lsl #28
     ef4:	0c052400 	cfstrseq	mvf2, [r5], {-0}
     ef8:	00017d10 	andeq	r7, r1, r0, lsl sp
     efc:	00120b00 	andseq	r0, r2, r0, lsl #22
     f00:	0d050000 	stceq	0, cr0, [r5, #-0]
     f04:	00017d14 	andeq	r7, r1, r4, lsl sp
     f08:	a20b0000 	andge	r0, fp, #0, 0
     f0c:	05000002 	streq	r0, [r0, #-2]
     f10:	00690e0e 	rsbeq	r0, r9, lr, lsl #28
     f14:	0b040000 	bleq	100f1c <__bss_end__+0xf612c>
     f18:	0000024f 	andeq	r0, r0, pc, asr #4
     f1c:	690e0f05 	stmdbvs	lr, {r0, r2, r8, r9, sl, fp}
     f20:	08000000 	stmdaeq	r0, {}	; <UNPREDICTABLE>
     f24:	0002450b 	andeq	r4, r2, fp, lsl #10
     f28:	0f110500 	svceq	0x00110500
     f2c:	00000108 	andeq	r0, r0, r8, lsl #2
     f30:	02550b0c 	subseq	r0, r5, #12, 22	; 0x3000
     f34:	14050000 	strne	r0, [r5], #-0
     f38:	0000690e 	andeq	r6, r0, lr, lsl #18
     f3c:	ff0b1800 			; <UNDEFINED> instruction: 0xff0b1800
     f40:	05000001 	streq	r0, [r0, #-1]
     f44:	00690e15 	rsbeq	r0, r9, r5, lsl lr
     f48:	0b1c0000 	bleq	700f50 <__bss_end__+0x6f6160>
     f4c:	0000037d 	andeq	r0, r0, sp, ror r3
     f50:	560e1705 	strpl	r1, [lr], -r5, lsl #14
     f54:	20000000 	andcs	r0, r0, r0
     f58:	14040800 	strne	r0, [r4], #-2048	; 0xfffff800
     f5c:	04000001 	streq	r0, [r0], #-1
     f60:	000001f3 	strdeq	r0, [r0], -r3
     f64:	14031805 	strne	r1, [r3], #-2053	; 0xfffff7fb
     f68:	0d000001 	stceq	0, cr0, [r0, #-4]
     f6c:	09ec0e04 	stmibeq	ip!, {r2, r9, sl, fp}^
     f70:	10010000 	andne	r0, r1, r0
     f74:	00018f0e 	andeq	r8, r1, lr, lsl #30
     f78:	e0030500 	and	r0, r3, r0, lsl #10
     f7c:	0e0000a9 	cdpeq	0, 0, cr0, cr0, cr9, {5}
     f80:	00000a4d 	andeq	r0, r0, sp, asr #20
     f84:	8f0e1101 	svchi	0x000e1101
     f88:	05000001 	streq	r0, [r0, #-1]
     f8c:	00a9e403 	adceq	lr, r9, r3, lsl #8
     f90:	03400f00 	movteq	r0, #3840	; 0xf00
     f94:	15010000 	strne	r0, [r1, #-0]
     f98:	8b680601 	blhi	1a027a4 <__bss_end__+0x19f79b4>
     f9c:	002c0000 	eoreq	r0, ip, r0
     fa0:	9c010000 	stcls	0, cr0, [r1], {-0}
     fa4:	00000215 	andeq	r0, r0, r5, lsl r2
     fa8:	00008410 	andeq	r8, r0, r0, lsl r4
     fac:	00022500 	andeq	r2, r2, r0, lsl #10
     fb0:	34030500 	strcc	r0, [r3], #-1280	; 0xfffffb00
     fb4:	110000a6 	smlatbne	r0, r6, r0, r0
     fb8:	00008b80 	andeq	r8, r0, r0, lsl #23
     fbc:	00000c1f 	andeq	r0, r0, pc, lsl ip
     fc0:	0000020b 	andeq	r0, r0, fp, lsl #4
     fc4:	05500112 	ldrbeq	r0, [r0, #-274]	; 0xfffffeee
     fc8:	00a5c403 	adceq	ip, r5, r3, lsl #8
     fcc:	51011200 	mrspl	r1, R9_usr
     fd0:	a2dc0305 	sbcsge	r0, ip, #335544320	; 0x14000000
     fd4:	01120000 	tsteq	r2, r0
     fd8:	34030552 	strcc	r0, [r3], #-1362	; 0xfffffaae
     fdc:	120000a6 	andne	r0, r0, #166, 0	; 0xa6
     fe0:	0a035301 	beq	d5bec <__bss_end__+0xcadfc>
     fe4:	13000117 	movwne	r0, #279	; 0x117
     fe8:	00008b84 	andeq	r8, r0, r4, lsl #23
     fec:	00000c2b 	andeq	r0, r0, fp, lsr #24
     ff0:	00c01400 	sbceq	r1, r0, r0, lsl #8
     ff4:	02250000 	eoreq	r0, r5, #0, 0
     ff8:	2c150000 	ldccs	0, cr0, [r5], {-0}
     ffc:	0e000000 	cdpeq	0, 0, cr0, cr0, cr0, {0}
    1000:	02150900 	andseq	r0, r5, #0, 18
    1004:	72160000 	andsvc	r0, r6, #0, 0
    1008:	01000000 	mrseq	r0, (UNDEF: 0)
    100c:	2c0a010b 	stfcss	f0, [sl], {11}
    1010:	58000000 	stmdapl	r0, {}	; <UNPREDICTABLE>
    1014:	1000008b 	andne	r0, r0, fp, lsl #1
    1018:	01000000 	mrseq	r0, (UNDEF: 0)
    101c:	00026d9c 	muleq	r2, ip, sp
    1020:	02ca1700 	sbceq	r1, sl, #0, 14
    1024:	0e010000 	cdpeq	0, 0, cr0, cr1, cr0, {0}
    1028:	002c0e01 	eoreq	r0, ip, r1, lsl #28
    102c:	061c0000 	ldreq	r0, [ip], -r0
    1030:	061a0000 	ldreq	r0, [sl], -r0
    1034:	60130000 	andsvs	r0, r3, r0
    1038:	1100008b 	smlabbne	r0, fp, r0, r0
    103c:	13000007 	movwne	r0, #7
    1040:	00008b64 	andeq	r8, r0, r4, ror #22
    1044:	0000026d 	andeq	r0, r0, sp, ror #4
    1048:	042e1800 	strteq	r1, [lr], #-2048	; 0xfffff800
    104c:	f3010000 	vhadd.u8	d0, d1, d0
    1050:	00002c11 	andeq	r2, r0, r1, lsl ip
    1054:	00893400 	addeq	r3, r9, r0, lsl #8
    1058:	0000dc00 	andeq	sp, r0, r0, lsl #24
    105c:	d79c0100 	ldrle	r0, [ip, r0, lsl #2]
    1060:	19000003 	stmdbne	r0, {r0, r1}
    1064:	0000035d 	andeq	r0, r0, sp, asr r3
    1068:	2c0ef501 	cfstr32cs	mvfx15, [lr], {1}
    106c:	33000000 	movwcc	r0, #0
    1070:	2f000006 	svccs	0x00000006
    1074:	19000006 	stmdbne	r0, {r1, r2}
    1078:	000003cc 	andeq	r0, r0, ip, asr #7
    107c:	2c1bf501 	cfldr32cs	mvfx15, [fp], {1}
    1080:	56000000 	strpl	r0, [r0], -r0
    1084:	52000006 	andpl	r0, r0, #6, 0
    1088:	19000006 	stmdbne	r0, {r1, r2}
    108c:	0000036c 	andeq	r0, r0, ip, ror #6
    1090:	2c27f501 	cfstr32cs	mvfx15, [r7], #-4
    1094:	7b000000 	blvc	109c <__code_start__-0x6f64>
    1098:	75000006 	strvc	r0, [r0, #-6]
    109c:	10000006 	andne	r0, r0, r6
    10a0:	00000084 	andeq	r0, r0, r4, lsl #1
    10a4:	000003e7 	andeq	r0, r0, r7, ror #7
    10a8:	a5fc0305 	ldrbge	r0, [ip, #773]!	; 0x305
    10ac:	801a0000 	andshi	r0, sl, r0
    10b0:	7a000000 	bvc	10b8 <__code_start__-0x6f48>
    10b4:	1b000003 	blne	10c8 <__code_start__-0x6f38>
    10b8:	fa010068 	blx	41260 <__bss_end__+0x36470>
    10bc:	0003ec11 	andeq	lr, r3, r1, lsl ip
    10c0:	0006ad00 	andeq	sl, r6, r0, lsl #26
    10c4:	0006a500 	andeq	sl, r6, r0, lsl #10
    10c8:	0be91c00 	bleq	ffa480d0 <__bss_end__+0xffa3d2e0>
    10cc:	89780000 	ldmdbhi	r8!, {}^	; <UNPREDICTABLE>
    10d0:	78000000 	stmdavc	r0, {}	; <UNPREDICTABLE>
    10d4:	18000089 	stmdane	r0, {r0, r3, r7}
    10d8:	01000000 	mrseq	r0, (UNDEF: 0)
    10dc:	2f0d0101 	svccs	0x000d0101
    10e0:	1d000003 	stcne	0, cr0, [r0, #-12]
    10e4:	00000c12 	andeq	r0, r0, r2, lsl ip
    10e8:	000006e3 	andeq	r0, r0, r3, ror #13
    10ec:	000006e1 	andeq	r0, r0, r1, ror #13
    10f0:	000c061d 	andeq	r0, ip, sp, lsl r6
    10f4:	0006fb00 	andeq	pc, r6, r0, lsl #22
    10f8:	0006f900 	andeq	pc, r6, r0, lsl #18
    10fc:	0bfa1d00 	bleq	ffe88504 <__bss_end__+0xffe7d714>
    1100:	07150000 	ldreq	r0, [r5, -r0]
    1104:	07130000 	ldreq	r0, [r3, -r0]
    1108:	13000000 	movwne	r0, #0
    110c:	00008954 	andeq	r8, r0, r4, asr r9
    1110:	00000c46 	andeq	r0, r0, r6, asr #24
    1114:	0089a011 	addeq	sl, r9, r1, lsl r0
    1118:	000c5200 	andeq	r5, ip, r0, lsl #4
    111c:	00034c00 	andeq	r4, r3, r0, lsl #24
    1120:	50011200 	andpl	r1, r1, r0, lsl #4
    1124:	00007602 	andeq	r7, r0, r2, lsl #12
    1128:	0089ac11 	addeq	sl, r9, r1, lsl ip
    112c:	000c1f00 	andeq	r1, ip, r0, lsl #30
    1130:	00036900 	andeq	r6, r3, r0, lsl #18
    1134:	50011200 	andpl	r1, r1, r0, lsl #4
    1138:	a4b80305 	ldrtge	r0, [r8], #773	; 0x305
    113c:	01120000 	tsteq	r2, r0
    1140:	00760251 	rsbseq	r0, r6, r1, asr r2
    1144:	89b41e00 	ldmibhi	r4!, {r9, sl, fp, ip}
    1148:	0c5e0000 	mraeq	r0, lr, acc0
    114c:	01120000 	tsteq	r2, r0
    1150:	00740250 	rsbseq	r0, r4, r0, asr r2
    1154:	44110000 	ldrmi	r0, [r1], #-0
    1158:	1f000089 	svcne	0x00000089
    115c:	9100000c 	tstls	r0, ip
    1160:	12000003 	andne	r0, r0, #3, 0
    1164:	03055001 	movweq	r5, #20481	; 0x5001
    1168:	0000a374 	andeq	sl, r0, r4, ror r3
    116c:	894c1100 	stmdbhi	ip, {r8, ip}^
    1170:	0c1f0000 	ldceq	0, cr0, [pc], {-0}
    1174:	03a80000 			; <UNDEFINED> instruction: 0x03a80000
    1178:	01120000 	tsteq	r2, r0
    117c:	a8030550 	stmdage	r3, {r4, r6, r8, sl}
    1180:	000000a4 	andeq	r0, r0, r4, lsr #1
    1184:	00895013 	addeq	r5, r9, r3, lsl r0
    1188:	00071100 	andeq	r1, r7, r0, lsl #2
    118c:	89e81e00 	stmibhi	r8!, {r9, sl, fp, ip}^
    1190:	0c1f0000 	ldceq	0, cr0, [pc], {-0}
    1194:	01120000 	tsteq	r2, r0
    1198:	c8030550 	stmdagt	r3, {r4, r6, r8, sl}
    119c:	120000a4 	andne	r0, r0, #164, 0	; 0xa4
    11a0:	75025101 	strvc	r5, [r2, #-257]	; 0xfffffeff
    11a4:	52011200 	andpl	r1, r1, #0, 4
    11a8:	12007802 	andne	r7, r0, #131072	; 0x20000
    11ac:	77025301 	strvc	r5, [r2, -r1, lsl #6]
    11b0:	14000000 	strne	r0, [r0], #-0
    11b4:	000000c0 	andeq	r0, r0, r0, asr #1
    11b8:	000003e7 	andeq	r0, r0, r7, ror #7
    11bc:	00002c15 	andeq	r2, r0, r5, lsl ip
    11c0:	09000a00 	stmdbeq	r0, {r9, fp}
    11c4:	000003d7 	ldrdeq	r0, [r0], -r7
    11c8:	01830408 	orreq	r0, r3, r8, lsl #8
    11cc:	001f0000 	andseq	r0, pc, r0
    11d0:	01000000 	mrseq	r0, (UNDEF: 0)
    11d4:	002c0ae3 	eoreq	r0, ip, r3, ror #21
    11d8:	8b080000 	blhi	2011e0 <__bss_end__+0x1f63f0>
    11dc:	00500000 	subseq	r0, r0, r0
    11e0:	9c010000 	stcls	0, cr0, [r1], {-0}
    11e4:	00000498 	muleq	r0, r8, r4
    11e8:	0003a719 	andeq	sl, r3, r9, lsl r7
    11ec:	0ee90100 	cdpeq	1, 14, cr0, cr9, cr0, {0}
    11f0:	0000002c 	andeq	r0, r0, ip, lsr #32
    11f4:	00000733 	andeq	r0, r0, r3, lsr r7
    11f8:	0000072d 	andeq	r0, r0, sp, lsr #14
    11fc:	00008410 	andeq	r8, r0, r0, lsl r4
    1200:	0004a800 	andeq	sl, r4, r0, lsl #16
    1204:	20030500 	andcs	r0, r3, r0, lsl #10
    1208:	110000a6 	smlatbne	r0, r6, r0, r0
    120c:	00008b14 	andeq	r8, r0, r4, lsl fp
    1210:	0000054a 	andeq	r0, r0, sl, asr #10
    1214:	00000442 	andeq	r0, r0, r2, asr #8
    1218:	01500112 	cmpeq	r0, r2, lsl r1
    121c:	28110031 	ldmdacs	r1, {r0, r4, r5}
    1220:	1f00008b 	svcne	0x0000008b
    1224:	5f00000c 	svcpl	0x0000000c
    1228:	12000004 	andne	r0, r0, #4, 0
    122c:	03055001 	movweq	r5, #20481	; 0x5001
    1230:	0000a5a0 	andeq	sl, r0, r0, lsr #11
    1234:	02510112 	subseq	r0, r1, #-2147483644	; 0x80000004
    1238:	11000074 	tstne	r0, r4, ror r0
    123c:	00008b44 	andeq	r8, r0, r4, asr #22
    1240:	00000c1f 	andeq	r0, r0, pc, lsl ip
    1244:	0000048e 	andeq	r0, r0, lr, lsl #9
    1248:	05500112 	ldrbeq	r0, [r0, #-274]	; 0xfffffeee
    124c:	00a57803 	adceq	r7, r5, r3, lsl #16
    1250:	51011200 	mrspl	r1, R9_usr
    1254:	a2dc0305 	sbcsge	r0, ip, #335544320	; 0x14000000
    1258:	01120000 	tsteq	r2, r0
    125c:	20030552 	andcs	r0, r3, r2, asr r5
    1260:	120000a6 	andne	r0, r0, #166, 0	; 0xa6
    1264:	08025301 	stmdaeq	r2, {r0, r8, r9, ip, lr}
    1268:	481300eb 	ldmdami	r3, {r0, r1, r3, r5, r6, r7}
    126c:	2b00008b 	blcs	14a0 <__code_start__-0x6b60>
    1270:	0000000c 	andeq	r0, r0, ip
    1274:	0000c014 	andeq	ip, r0, r4, lsl r0
    1278:	0004a800 	andeq	sl, r4, r0, lsl #16
    127c:	002c1500 	eoreq	r1, ip, r0, lsl #10
    1280:	00110000 	andseq	r0, r1, r0
    1284:	00049809 	andeq	r9, r4, r9, lsl #16
    1288:	00312000 	eorseq	r2, r1, r0
    128c:	d5010000 	strle	r0, [r1, #-0]
    1290:	008ac006 	addeq	ip, sl, r6
    1294:	00004800 	andeq	r4, r0, r0, lsl #16
    1298:	359c0100 	ldrcc	r0, [ip, #256]	; 0x100
    129c:	10000005 	andne	r0, r0, r5
    12a0:	00000084 	andeq	r0, r0, r4, lsl #1
    12a4:	00000545 	andeq	r0, r0, r5, asr #10
    12a8:	a6100305 	ldrge	r0, [r0], -r5, lsl #6
    12ac:	cc110000 	ldcgt	0, cr0, [r1], {-0}
    12b0:	4a00008a 	bmi	14e0 <__code_start__-0x6b20>
    12b4:	e5000005 	str	r0, [r0, #-5]
    12b8:	12000004 	andne	r0, r0, #4, 0
    12bc:	31015001 	tstcc	r1, r1
    12c0:	8adc1100 	bhi	ff7056c8 <__bss_end__+0xff6fa8d8>
    12c4:	0c1f0000 	ldceq	0, cr0, [pc], {-0}
    12c8:	04fc0000 	ldrbteq	r0, [ip], #0
    12cc:	01120000 	tsteq	r2, r0
    12d0:	58030550 	stmdapl	r3, {r4, r6, r8, sl}
    12d4:	000000a5 	andeq	r0, r0, r5, lsr #1
    12d8:	008af411 	addeq	pc, sl, r1, lsl r4	; <UNPREDICTABLE>
    12dc:	000c1f00 	andeq	r1, ip, r0, lsl #30
    12e0:	00052b00 	andeq	r2, r5, r0, lsl #22
    12e4:	50011200 	andpl	r1, r1, r0, lsl #4
    12e8:	a52c0305 	strge	r0, [ip, #-773]!	; 0xfffffcfb
    12ec:	01120000 	tsteq	r2, r0
    12f0:	dc030551 	cfstr32le	mvfx0, [r3], {81}	; 0x51
    12f4:	120000a2 	andne	r0, r0, #162, 0	; 0xa2
    12f8:	03055201 	movweq	r5, #20993	; 0x5201
    12fc:	0000a610 	andeq	sl, r0, r0, lsl r6
    1300:	02530112 	subseq	r0, r3, #-2147483644	; 0x80000004
    1304:	1300dc08 	movwne	sp, #3080	; 0xc08
    1308:	00008af8 	strdeq	r8, [r0], -r8	; <UNPREDICTABLE>
    130c:	00000c2b 	andeq	r0, r0, fp, lsr #24
    1310:	00c01400 	sbceq	r1, r0, r0, lsl #8
    1314:	05450000 	strbeq	r0, [r5, #-0]
    1318:	2c150000 	ldccs	0, cr0, [r5], {-0}
    131c:	0d000000 	stceq	0, cr0, [r0, #-0]
    1320:	05350900 	ldreq	r0, [r5, #-2304]!	; 0xfffff700
    1324:	821f0000 	andshi	r0, pc, #0, 0
    1328:	01000003 	tsteq	r0, r3
    132c:	002c0ace 	eoreq	r0, ip, lr, asr #21
    1330:	8ab40000 	bhi	fed01338 <__bss_end__+0xfecf6548>
    1334:	000c0000 	andeq	r0, ip, r0
    1338:	9c010000 	stcls	0, cr0, [r1], {-0}
    133c:	0000058a 	andeq	r0, r0, sl, lsl #11
    1340:	00043921 	andeq	r3, r4, r1, lsr #18
    1344:	1cce0100 	stfnee	f0, [lr], {0}
    1348:	00000025 	andeq	r0, r0, r5, lsr #32
    134c:	00000760 	andeq	r0, r0, r0, ror #14
    1350:	0000075c 	andeq	r0, r0, ip, asr r7
    1354:	008abc1e 	addeq	fp, sl, lr, lsl ip
    1358:	00058a00 	andeq	r8, r5, r0, lsl #20
    135c:	50011200 	andpl	r1, r1, r0, lsl #4
    1360:	5001f303 	andpl	pc, r1, r3, lsl #6
    1364:	14180000 	ldrne	r0, [r8], #-0
    1368:	01000004 	tsteq	r0, r4
    136c:	002c11a5 	eoreq	r1, ip, r5, lsr #3
    1370:	88400000 	stmdahi	r0, {}^	; <UNPREDICTABLE>
    1374:	00f40000 	rscseq	r0, r4, r0
    1378:	9c010000 	stcls	0, cr0, [r1], {-0}
    137c:	00000711 	andeq	r0, r0, r1, lsl r7
    1380:	00043921 	andeq	r3, r4, r1, lsr #18
    1384:	20a50100 	adccs	r0, r5, r0, lsl #2
    1388:	00000025 	andeq	r0, r0, r5, lsr #32
    138c:	00000785 	andeq	r0, r0, r5, lsl #15
    1390:	00000781 	andeq	r0, r0, r1, lsl #15
    1394:	00035d19 	andeq	r5, r3, r9, lsl sp
    1398:	0ea70100 	fdveqs	f0, f7, f0
    139c:	0000002c 	andeq	r0, r0, ip, lsr #32
    13a0:	000007a7 	andeq	r0, r0, r7, lsr #15
    13a4:	000007a3 	andeq	r0, r0, r3, lsr #15
    13a8:	00039619 	andeq	r9, r3, r9, lsl r6
    13ac:	1ba70100 	blne	fe9c17b4 <__bss_end__+0xfe9b69c4>
    13b0:	0000002c 	andeq	r0, r0, ip, lsr #32
    13b4:	000007cc 	andeq	r0, r0, ip, asr #15
    13b8:	000007c6 	andeq	r0, r0, r6, asr #15
    13bc:	00039019 	andeq	r9, r3, r9, lsl r0
    13c0:	27a70100 	strcs	r0, [r7, r0, lsl #2]!
    13c4:	0000002c 	andeq	r0, r0, ip, lsr #32
    13c8:	000007fa 	strdeq	r0, [r0], -sl
    13cc:	000007f6 	strdeq	r0, [r0], -r6
    13d0:	0000681a 	andeq	r6, r0, sl, lsl r8
    13d4:	00066f00 	andeq	r6, r6, r0, lsl #30
    13d8:	00681b00 	rsbeq	r1, r8, r0, lsl #22
    13dc:	ec11ac01 	ldc	12, cr10, [r1], {1}
    13e0:	27000003 	strcs	r0, [r0, -r3]
    13e4:	19000008 	stmdbne	r0, {r3}
    13e8:	13000008 	movwne	r0, #8
    13ec:	00008860 	andeq	r8, r0, r0, ror #16
    13f0:	00000c46 	andeq	r0, r0, r6, asr #24
    13f4:	00888811 	addeq	r8, r8, r1, lsl r8
    13f8:	000c1f00 	andeq	r1, ip, r0, lsl #30
    13fc:	00063b00 	andeq	r3, r6, r0, lsl #22
    1400:	50011200 	andpl	r1, r1, r0, lsl #4
    1404:	a3c80305 	bicge	r0, r8, #335544320	; 0x14000000
    1408:	01120000 	tsteq	r2, r0
    140c:	00750251 	rsbseq	r0, r5, r1, asr r2
    1410:	02520112 	subseq	r0, r2, #-2147483644	; 0x80000004
    1414:	11000074 	tstne	r0, r4, ror r0
    1418:	00008890 	muleq	r0, r0, r8
    141c:	00000c5e 	andeq	r0, r0, lr, asr ip
    1420:	0000064f 	andeq	r0, r0, pc, asr #12
    1424:	02500112 	subseq	r0, r0, #-2147483644	; 0x80000004
    1428:	1e000074 	mcrne	0, 0, r0, cr0, cr4, {3}
    142c:	000088c8 	andeq	r8, r0, r8, asr #17
    1430:	00000c1f 	andeq	r0, r0, pc, lsl ip
    1434:	05500112 	ldrbeq	r0, [r0, #-274]	; 0xfffffeee
    1438:	00a3dc03 	adceq	sp, r3, r3, lsl #24
    143c:	51011200 	mrspl	r1, R9_usr
    1440:	12007502 	andne	r7, r0, #8388608	; 0x800000
    1444:	74025201 	strvc	r5, [r2], #-513	; 0xfffffdff
    1448:	11000000 	mrsne	r0, (UNDEF: 0)
    144c:	00008850 	andeq	r8, r0, r0, asr r8
    1450:	00000c1f 	andeq	r0, r0, pc, lsl ip
    1454:	00000686 	andeq	r0, r0, r6, lsl #13
    1458:	05500112 	ldrbeq	r0, [r0, #-274]	; 0xfffffeee
    145c:	00a37403 	adceq	r7, r3, r3, lsl #8
    1460:	58110000 	ldmdapl	r1, {}	; <UNPREDICTABLE>
    1464:	1f000088 	svcne	0x00000088
    1468:	9d00000c 	stcls	0, cr0, [r0, #-48]	; 0xffffffd0
    146c:	12000006 	andne	r0, r0, #6, 0
    1470:	03055001 	movweq	r5, #20481	; 0x5001
    1474:	0000a3b0 			; <UNDEFINED> instruction: 0x0000a3b0
    1478:	885c1300 	ldmdahi	ip, {r8, r9, ip}^
    147c:	07110000 	ldreq	r0, [r1, -r0]
    1480:	d8110000 	ldmdale	r1, {}	; <UNPREDICTABLE>
    1484:	1f000088 	svcne	0x00000088
    1488:	c300000c 	movwgt	r0, #12
    148c:	12000006 	andne	r0, r0, #6, 0
    1490:	03055001 	movweq	r5, #20481	; 0x5001
    1494:	0000a3f4 	strdeq	sl, [r0], -r4
    1498:	02510112 	subseq	r0, r1, #-2147483644	; 0x80000004
    149c:	11000075 	tstne	r0, r5, ror r0
    14a0:	000088e8 	andeq	r8, r0, r8, ror #17
    14a4:	00000c1f 	andeq	r0, r0, pc, lsl ip
    14a8:	000006da 	ldrdeq	r0, [r0], -sl
    14ac:	05500112 	ldrbeq	r0, [r0, #-274]	; 0xfffffeee
    14b0:	00a41403 	adceq	r1, r4, r3, lsl #8
    14b4:	f0110000 			; <UNDEFINED> instruction: 0xf0110000
    14b8:	1f000088 	svcne	0x00000088
    14bc:	f100000c 	cps	#12
    14c0:	12000006 	andne	r0, r0, #6, 0
    14c4:	03055001 	movweq	r5, #20481	; 0x5001
    14c8:	0000a46c 	andeq	sl, r0, ip, ror #8
    14cc:	89101e00 	ldmdbhi	r0, {r9, sl, fp, ip}
    14d0:	0c1f0000 	ldceq	0, cr0, [pc], {-0}
    14d4:	01120000 	tsteq	r2, r0
    14d8:	3c030550 	cfstr32cc	mvfx0, [r3], {80}	; 0x50
    14dc:	120000a4 	andne	r0, r0, #164, 0	; 0xa4
    14e0:	76025101 	strvc	r5, [r2], -r1, lsl #2
    14e4:	52011200 	andpl	r1, r1, #0, 4
    14e8:	00007702 	andeq	r7, r0, r2, lsl #14
    14ec:	03372200 	teqeq	r7, #0, 4
    14f0:	79010000 	stmdbvc	r1, {}	; <UNPREDICTABLE>
    14f4:	00879c0d 	addeq	r9, r7, sp, lsl #24
    14f8:	0000a400 	andeq	sl, r0, r0, lsl #8
    14fc:	1d9c0100 	ldfnes	f0, [ip]
    1500:	0e000008 	cdpeq	0, 0, cr0, cr0, cr8, {0}
    1504:	000003a2 	andeq	r0, r0, r2, lsr #7
    1508:	1d0e8501 	cfstr32ne	mvfx8, [lr, #-4]
    150c:	03000008 	movweq	r0, #8
    1510:	237fb891 	cmncs	pc, #9502720	; 0x910000
    1514:	0000032d 	andeq	r0, r0, sp, lsr #6
    1518:	2d0f9601 	stccs	6, cr9, [pc, #-4]	; 151c <__code_start__-0x6ae4>
    151c:	00000008 	andeq	r0, r0, r8
    1520:	07080000 	streq	r0, [r8, -r0]
    1524:	0000034f 	andeq	r0, r0, pc, asr #6
    1528:	69159b01 	ldmdbvs	r5, {r0, r8, r9, fp, ip, pc}
    152c:	07000000 	streq	r0, [r0, -r0]
    1530:	000003e9 	andeq	r0, r0, r9, ror #7
    1534:	69249b01 	stmdbvs	r4!, {r0, r8, r9, fp, ip, pc}
    1538:	07000000 	streq	r0, [r0, -r0]
    153c:	0000041f 	andeq	r0, r0, pc, lsl r4
    1540:	69159e01 	ldmdbvs	r5, {r0, r9, sl, fp, ip, pc}
    1544:	07000000 	streq	r0, [r0, -r0]
    1548:	000003b8 			; <UNDEFINED> instruction: 0x000003b8
    154c:	69259e01 	stmdbvs	r5!, {r0, r9, sl, fp, ip, pc}
    1550:	24000000 	strcs	r0, [r0], #-0
    1554:	000087a4 	andeq	r8, r0, r4, lsr #15
    1558:	00000024 	andeq	r0, r0, r4, lsr #32
    155c:	000007a9 	andeq	r0, r0, r9, lsr #15
    1560:	0100681b 	tsteq	r0, fp, lsl r8
    1564:	03ec117e 	mvneq	r1, #-2147483617	; 0x8000001f
    1568:	08800000 	stmeq	r0, {}	; <UNPREDICTABLE>
    156c:	087c0000 	ldmdaeq	ip!, {}^	; <UNPREDICTABLE>
    1570:	a8130000 	ldmdage	r3, {}	; <UNPREDICTABLE>
    1574:	46000087 	strmi	r0, [r0], -r7, lsl #1
    1578:	1300000c 	movwne	r0, #12
    157c:	000087c4 	andeq	r8, r0, r4, asr #15
    1580:	00000c5e 	andeq	r0, r0, lr, asr ip
    1584:	87d01100 	ldrbhi	r1, [r0, r0, lsl #2]
    1588:	0c6a0000 	stcleq	0, cr0, [sl], #-0
    158c:	07bd0000 	ldreq	r0, [sp, r0]!
    1590:	01120000 	tsteq	r2, r0
    1594:	007d0250 	rsbseq	r0, sp, r0, asr r2
    1598:	87f01100 	ldrbhi	r1, [r0, r0, lsl #2]!
    159c:	08330000 	ldmdaeq	r3!, {}	; <UNPREDICTABLE>
    15a0:	07d70000 	ldrbeq	r0, [r7, r0]
    15a4:	01120000 	tsteq	r2, r0
    15a8:	007d0250 	rsbseq	r0, sp, r0, asr r2
    15ac:	02510112 	subseq	r0, r1, #-2147483644	; 0x80000004
    15b0:	11006891 			; <UNDEFINED> instruction: 0x11006891
    15b4:	00008800 	andeq	r8, r0, r0, lsl #16
    15b8:	00000c1f 	andeq	r0, r0, pc, lsl ip
    15bc:	000007f5 	strdeq	r0, [r0], -r5
    15c0:	05500112 	ldrbeq	r0, [r0, #-274]	; 0xfffffeee
    15c4:	00a35803 	adceq	r5, r3, r3, lsl #16
    15c8:	52011200 	andpl	r1, r1, #0, 4
    15cc:	24474003 	strbcs	r4, [r7], #-3
    15d0:	880c1100 	stmdahi	ip, {r8, ip}
    15d4:	08330000 	ldmdaeq	r3!, {}	; <UNPREDICTABLE>
    15d8:	080a0000 	stmdaeq	sl, {}	; <UNPREDICTABLE>
    15dc:	01120000 	tsteq	r2, r0
    15e0:	47400351 	smlsldmi	r0, r0, r1, r3	; <UNPREDICTABLE>
    15e4:	18130024 	ldmdane	r3, {r2, r5}
    15e8:	33000088 	movwcc	r0, #136	; 0x88
    15ec:	13000008 	movwne	r0, #8
    15f0:	00008824 	andeq	r8, r0, r4, lsr #16
    15f4:	00000833 	andeq	r0, r0, r3, lsr r8
    15f8:	00691400 	rsbeq	r1, r9, r0, lsl #8
    15fc:	082d0000 	stmdaeq	sp!, {}	; <UNPREDICTABLE>
    1600:	2c150000 	ldccs	0, cr0, [r5], {-0}
    1604:	0f000000 	svceq	0x00000000
    1608:	69040800 	stmdbvs	r4, {fp}
    160c:	22000000 	andcs	r0, r0, #0, 0
    1610:	0000037d 	andeq	r0, r0, sp, ror r3
    1614:	340d5001 	strcc	r5, [sp], #-1
    1618:	68000086 	stmdavs	r0, {r1, r2, r7}
    161c:	01000001 	tsteq	r0, r1
    1620:	000a2c9c 	muleq	sl, ip, ip
    1624:	00702500 	rsbseq	r2, r0, r0, lsl #10
    1628:	2d1c5001 	ldccs	0, cr5, [ip, #-4]
    162c:	ac000008 	stcge	0, cr0, [r0], {8}
    1630:	9e000008 	cdpls	0, 0, cr0, cr0, cr8, {0}
    1634:	25000008 	strcs	r0, [r0, #-8]
    1638:	50010065 	andpl	r0, r1, r5, rrx
    163c:	00082d29 	andeq	r2, r8, r9, lsr #26
    1640:	00091500 	andeq	r1, r9, r0, lsl #10
    1644:	00090700 	andeq	r0, r9, r0, lsl #14
    1648:	00841000 	addeq	r1, r4, r0
    164c:	0a3c0000 	beq	f01654 <__bss_end__+0xef6864>
    1650:	03050000 	movweq	r0, #20480	; 0x5000
    1654:	0000a5f4 	strdeq	sl, [r0], -r4
    1658:	0086bc24 	addeq	fp, r6, r4, lsr #24
    165c:	0000b400 	andeq	fp, r0, r0, lsl #8
    1660:	00096500 	andeq	r6, r9, r0, lsl #10
    1664:	00691b00 	rsbeq	r1, r9, r0, lsl #22
    1668:	2d145801 	ldccs	8, cr5, [r4, #-4]
    166c:	72000008 	andvc	r0, r0, #8, 0
    1670:	70000009 	andvc	r0, r0, r9
    1674:	26000009 	strcs	r0, [r0], -r9
    1678:	00000038 	andeq	r0, r0, r8, lsr r0
    167c:	0100621b 	tsteq	r0, fp, lsl r2
    1680:	03ec105a 	mvneq	r1, #90, 0	; 0x5a
    1684:	098b0000 	stmibeq	fp, {}	; <UNPREDICTABLE>
    1688:	09850000 	stmibeq	r5, {}	; <UNPREDICTABLE>
    168c:	501a0000 	andspl	r0, sl, r0
    1690:	5a000000 	bpl	1698 <__code_start__-0x6968>
    1694:	1b000009 	blne	16c0 <__code_start__-0x6940>
    1698:	00707865 	rsbseq	r7, r0, r5, ror #16
    169c:	69165d01 	ldmdbvs	r6, {r0, r8, sl, fp, ip, lr}
    16a0:	b8000000 	stmdalt	r0, {}	; <UNPREDICTABLE>
    16a4:	b4000009 	strlt	r0, [r0], #-9
    16a8:	19000009 	stmdbne	r0, {r0, r3}
    16ac:	00000379 	andeq	r0, r0, r9, ror r3
    16b0:	56165e01 	ldrpl	r5, [r6], -r1, lsl #28
    16b4:	da000000 	ble	16bc <__code_start__-0x6944>
    16b8:	d6000009 	strle	r0, [r0], -r9
    16bc:	11000009 	tstne	r0, r9
    16c0:	000086d0 	ldrdeq	r8, [r0], -r0
    16c4:	00000c1f 	andeq	r0, r0, pc, lsl ip
    16c8:	000008fa 	strdeq	r0, [r0], -sl
    16cc:	05500112 	ldrbeq	r0, [r0, #-274]	; 0xfffffeee
    16d0:	00a33803 	adceq	r3, r3, r3, lsl #16
    16d4:	04110000 	ldreq	r0, [r1], #-0
    16d8:	76000087 	strvc	r0, [r0], -r7, lsl #1
    16dc:	0e00000c 	cdpeq	0, 0, cr0, cr0, cr12, {0}
    16e0:	12000009 	andne	r0, r0, #9, 0
    16e4:	75025001 	strvc	r5, [r2, #-1]
    16e8:	1c110000 	ldcne	0, cr0, [r1], {-0}
    16ec:	1f000087 	svcne	0x00000087
    16f0:	3200000c 	andcc	r0, r0, #12, 0
    16f4:	12000009 	andne	r0, r0, #9, 0
    16f8:	03055001 	movweq	r5, #20481	; 0x5001
    16fc:	0000a30c 	andeq	sl, r0, ip, lsl #6
    1700:	02520112 	subseq	r0, r2, #-2147483644	; 0x80000004
    1704:	02120074 	andseq	r0, r2, #116, 0	; 0x74
    1708:	7702007d 	smlsdxvc	r2, sp, r0, r0
    170c:	60110000 	andsvs	r0, r1, r0
    1710:	33000087 	movwcc	r0, #135	; 0x87
    1714:	46000008 	strmi	r0, [r0], -r8
    1718:	12000009 	andne	r0, r0, #9, 0
    171c:	75025001 	strvc	r5, [r2, #-1]
    1720:	6c1e0004 	ldcvs	0, cr0, [lr], {4}
    1724:	1f000087 	svcne	0x00000087
    1728:	1200000c 	andne	r0, r0, #12, 0
    172c:	03055001 	movweq	r5, #20481	; 0x5001
    1730:	0000a348 	andeq	sl, r0, r8, asr #6
    1734:	ec130000 	ldc	0, cr0, [r3], {-0}
    1738:	41000086 	smlabbmi	r0, r6, r0, r0
    173c:	0000000a 	andeq	r0, r0, sl
    1740:	86781100 	ldrbthi	r1, [r8], -r0, lsl #2
    1744:	0c1f0000 	ldceq	0, cr0, [pc], {-0}
    1748:	099e0000 	ldmibeq	lr, {}	; <UNPREDICTABLE>
    174c:	01120000 	tsteq	r2, r0
    1750:	84030550 	strhi	r0, [r3], #-1360	; 0xfffffab0
    1754:	120000a1 	andne	r0, r0, #161, 0	; 0xa1
    1758:	03055101 	movweq	r5, #20737	; 0x5101
    175c:	0000a2dc 	ldrdeq	sl, [r0], -ip
    1760:	05520112 	ldrbeq	r0, [r2, #-274]	; 0xfffffeee
    1764:	00a5f403 	adceq	pc, r5, r3, lsl #8
    1768:	53011200 	movwpl	r1, #4608	; 0x1200
    176c:	12560802 	subsne	r0, r6, #131072	; 0x20000
    1770:	05007d02 	streq	r7, [r0, #-3330]	; 0xfffff2fe
    1774:	00a2fc03 	adceq	pc, r2, r3, lsl #24
    1778:	7c130000 	ldcvc	0, cr0, [r3], {-0}
    177c:	2b000086 	blcs	199c <__code_start__-0x6664>
    1780:	1100000c 	tstne	r0, ip
    1784:	00008698 	muleq	r0, r8, r6
    1788:	00000c1f 	andeq	r0, r0, pc, lsl ip
    178c:	000009e0 	andeq	r0, r0, r0, ror #19
    1790:	05500112 	ldrbeq	r0, [r0, #-274]	; 0xfffffeee
    1794:	00a18403 	adceq	r8, r1, r3, lsl #8
    1798:	51011200 	mrspl	r1, R9_usr
    179c:	a2dc0305 	sbcsge	r0, ip, #335544320	; 0x14000000
    17a0:	01120000 	tsteq	r2, r0
    17a4:	f4030552 	vst3.16	{d0,d2,d4}, [r3 :64], r2
    17a8:	120000a5 	andne	r0, r0, #165, 0	; 0xa5
    17ac:	08025301 	stmdaeq	r2, {r0, r8, r9, ip, lr}
    17b0:	7d021252 	sfmvc	f1, 4, [r2, #-328]	; 0xfffffeb8
    17b4:	e4030500 	str	r0, [r3], #-1280	; 0xfffffb00
    17b8:	000000a2 	andeq	r0, r0, r2, lsr #1
    17bc:	00869c13 	addeq	r9, r6, r3, lsl ip
    17c0:	000c2b00 	andeq	r2, ip, r0, lsl #22
    17c4:	86b81100 	ldrthi	r1, [r8], r0, lsl #2
    17c8:	0c1f0000 	ldceq	0, cr0, [pc], {-0}
    17cc:	0a220000 	beq	8817d4 <__bss_end__+0x8769e4>
    17d0:	01120000 	tsteq	r2, r0
    17d4:	84030550 	strhi	r0, [r3], #-1360	; 0xfffffab0
    17d8:	120000a1 	andne	r0, r0, #161, 0	; 0xa1
    17dc:	03055101 	movweq	r5, #20737	; 0x5101
    17e0:	0000a2dc 	ldrdeq	sl, [r0], -ip
    17e4:	05520112 	ldrbeq	r0, [r2, #-274]	; 0xfffffeee
    17e8:	00a5f403 	adceq	pc, r5, r3, lsl #8
    17ec:	53011200 	movwpl	r1, #4608	; 0x1200
    17f0:	12550802 	subsne	r0, r5, #131072	; 0x20000
    17f4:	05007d02 	streq	r7, [r0, #-3330]	; 0xfffff2fe
    17f8:	00a2ec03 	adceq	lr, r2, r3, lsl #24
    17fc:	bc130000 	ldclt	0, cr0, [r3], {-0}
    1800:	2b000086 	blcs	1a20 <__code_start__-0x65e0>
    1804:	0000000c 	andeq	r0, r0, ip
    1808:	0000c014 	andeq	ip, r0, r4, lsl r0
    180c:	000a3c00 	andeq	r3, sl, r0, lsl #24
    1810:	002c1500 	eoreq	r1, ip, r0, lsl #10
    1814:	00040000 	andeq	r0, r4, r0
    1818:	000a2c09 	andeq	r2, sl, r9, lsl #24
    181c:	03c51800 	biceq	r1, r5, #0, 16
    1820:	3c010000 	stccc	0, cr0, [r1], {-0}
    1824:	0003ec0f 	andeq	lr, r3, pc, lsl #24
    1828:	00860c00 	addeq	r0, r6, r0, lsl #24
    182c:	00002800 	andeq	r2, r0, r0, lsl #16
    1830:	a69c0100 	ldrge	r0, [ip], r0, lsl #2
    1834:	2100000a 	tstcs	r0, sl
    1838:	00000a03 	andeq	r0, r0, r3, lsl #20
    183c:	691f3c01 	ldmdbvs	pc, {r0, sl, fp, ip, sp}	; <UNPREDICTABLE>
    1840:	fc000000 	stc2	0, cr0, [r0], {-0}
    1844:	f8000009 			; <UNDEFINED> instruction: 0xf8000009
    1848:	1b000009 	blne	1874 <__code_start__-0x678c>
    184c:	3e010070 	mcrcc	0, 0, r0, cr1, cr0, {3}
    1850:	00018f0b 	andeq	r8, r1, fp, lsl #30
    1854:	000a1e00 	andeq	r1, sl, r0, lsl #28
    1858:	000a1a00 	andeq	r1, sl, r0, lsl #20
    185c:	86181100 	ldrhi	r1, [r8], -r0, lsl #2
    1860:	0aa60000 	beq	fe981868 <__bss_end__+0xfe976a78>
    1864:	0a950000 	beq	fe54186c <__bss_end__+0xfe536a7c>
    1868:	01120000 	tsteq	r2, r0
    186c:	00740250 	rsbseq	r0, r4, r0, asr r2
    1870:	86281e00 	strthi	r1, [r8], -r0, lsl #28
    1874:	0c820000 	stceq	0, cr0, [r2], {0}
    1878:	01120000 	tsteq	r2, r0
    187c:	00740250 	rsbseq	r0, r4, r0, asr r2
    1880:	d3180000 	tstle	r8, #0, 0
    1884:	01000003 	tsteq	r0, r3
    1888:	00250c2b 	eoreq	r0, r5, fp, lsr #24
    188c:	85d00000 	ldrbhi	r0, [r0]
    1890:	003c0000 	eorseq	r0, ip, r0
    1894:	9c010000 	stcls	0, cr0, [r1], {-0}
    1898:	00000ad3 	ldrdeq	r0, [r0], -r3
    189c:	01007025 	tsteq	r0, r5, lsr #32
    18a0:	018f1a2b 	orreq	r1, pc, fp, lsr #20
    18a4:	0a480000 	beq	12018ac <__bss_end__+0x11f6abc>
    18a8:	0a3c0000 	beq	f018b0 <__bss_end__+0xef6ac0>
    18ac:	1f000000 	svcne	0x00000000
    18b0:	00000313 	andeq	r0, r0, r3, lsl r3
    18b4:	8f071301 	svchi	0x00071301
    18b8:	10000001 	andne	r0, r0, r1
    18bc:	a400008a 	strge	r0, [r0], #-138	; 0xffffff76
    18c0:	01000000 	mrseq	r0, (UNDEF: 0)
    18c4:	000be99c 	muleq	fp, ip, r9
    18c8:	03ae2100 			; <UNDEFINED> instruction: 0x03ae2100
    18cc:	13010000 	movwne	r0, #4096	; 0x1000
    18d0:	00004111 	andeq	r4, r0, r1, lsl r1
    18d4:	000aa700 	andeq	sl, sl, r0, lsl #14
    18d8:	000a9b00 	andeq	r9, sl, r0, lsl #22
    18dc:	03650e00 	cmneq	r5, #0, 28
    18e0:	15010000 	strne	r0, [r1, #-0]
    18e4:	00002510 	andeq	r2, r0, r0, lsl r5
    18e8:	e8030500 	stmda	r3, {r8, sl}
    18ec:	100000a9 	andne	r0, r0, r9, lsr #1
    18f0:	00000084 	andeq	r0, r0, r4, lsl #1
    18f4:	00000a3c 	andeq	r0, r0, ip, lsr sl
    18f8:	a6080305 	strge	r0, [r8], -r5, lsl #6
    18fc:	30240000 	eorcc	r0, r4, r0
    1900:	2400008a 	strcs	r0, [r0], #-138	; 0xffffff76
    1904:	5c000000 	stcpl	0, cr0, [r0], {-0}
    1908:	1900000b 	stmdbne	r0, {r0, r1, r3}
    190c:	000003db 	ldrdeq	r0, [r0], -fp
    1910:	2c121c01 	ldccs	12, cr1, [r2], {1}
    1914:	f3000000 	vhadd.u8	d0, d0, d0
    1918:	f100000a 	cps	#10
    191c:	1e00000a 	cdpne	0, 0, cr0, cr0, cr10, {0}
    1920:	00008a4c 	andeq	r8, r0, ip, asr #20
    1924:	00000c8e 	andeq	r0, r0, lr, lsl #25
    1928:	03500112 	cmpeq	r0, #-2147483644	; 0x80000004
    192c:	12244040 	eorne	r4, r4, #64, 0	; 0x40
    1930:	40035101 	andmi	r5, r3, r1, lsl #2
    1934:	00002440 	andeq	r2, r0, r0, asr #8
    1938:	008a5c11 	addeq	r5, sl, r1, lsl ip
    193c:	000c9a00 	andeq	r9, ip, r0, lsl #20
    1940:	000b7000 	andeq	r7, fp, r0
    1944:	50011200 	andpl	r1, r1, r0, lsl #4
    1948:	00007402 	andeq	r7, r0, r2, lsl #8
    194c:	008a8011 	addeq	r8, sl, r1, lsl r0
    1950:	000c1f00 	andeq	r1, ip, r0, lsl #30
    1954:	000ba800 	andeq	sl, fp, r0, lsl #16
    1958:	50011200 	andpl	r1, r1, r0, lsl #4
    195c:	a1840305 	orrge	r0, r4, r5, lsl #6
    1960:	01120000 	tsteq	r2, r0
    1964:	dc030551 	cfstr32le	mvfx0, [r3], {81}	; 0x51
    1968:	120000a2 	andne	r0, r0, #162, 0	; 0xa2
    196c:	03055201 	movweq	r5, #20993	; 0x5201
    1970:	0000a608 	andeq	sl, r0, r8, lsl #12
    1974:	01530112 	cmpeq	r3, r2, lsl r1
    1978:	7d021247 	sfmvc	f1, 4, [r2, #-284]	; 0xfffffee4
    197c:	fc030500 	stc2	5, cr0, [r3], {-0}
    1980:	000000a4 	andeq	r0, r0, r4, lsr #1
    1984:	008a8413 	addeq	r8, sl, r3, lsl r4
    1988:	000c2b00 	andeq	r2, ip, r0, lsl #22
    198c:	8a981100 	bhi	fe605d94 <__bss_end__+0xfe5fafa4>
    1990:	0c1f0000 	ldceq	0, cr0, [pc], {-0}
    1994:	0bdf0000 	bleq	ff7c199c <__bss_end__+0xff7b6bac>
    1998:	01120000 	tsteq	r2, r0
    199c:	0c030550 	cfstr32eq	mvfx0, [r3], {80}	; 0x50
    19a0:	120000a5 	andne	r0, r0, #165, 0	; 0xa5
    19a4:	03055101 	movweq	r5, #20737	; 0x5101
    19a8:	0000a2dc 	ldrdeq	sl, [r0], -ip
    19ac:	05520112 	ldrbeq	r0, [r2, #-274]	; 0xfffffeee
    19b0:	00a60803 	adceq	r0, r6, r3, lsl #16
    19b4:	53011200 	movwpl	r1, #4608	; 0x1200
    19b8:	13004901 	movwne	r4, #2305	; 0x901
    19bc:	00008a9c 	muleq	r0, ip, sl
    19c0:	00000c2b 	andeq	r0, r0, fp, lsr #24
    19c4:	00172700 	andseq	r2, r7, r0, lsl #14
    19c8:	0c020000 	stceq	0, cr0, [r2], {-0}
    19cc:	0001080b 	andeq	r0, r1, fp, lsl #16
    19d0:	0c1f0300 	ldceq	3, cr0, [pc], {-0}
    19d4:	3f280000 	svccc	0x00280000
    19d8:	02000000 	andeq	r0, r0, #0, 0
    19dc:	00b3220c 	adcseq	r2, r3, ip, lsl #4
    19e0:	7f280000 	svcvc	0x00280000
    19e4:	02000000 	andeq	r0, r0, #0, 0
    19e8:	00b3340c 	adcseq	r3, r3, ip, lsl #8
    19ec:	22280000 	eorcs	r0, r8, #0, 0
    19f0:	02000000 	andeq	r0, r0, #0, 0
    19f4:	002c430c 	eoreq	r4, ip, ip, lsl #6
    19f8:	29000000 	stmdbcs	r0, {}	; <UNPREDICTABLE>
    19fc:	00000546 	andeq	r0, r0, r6, asr #10
    1a00:	00000546 	andeq	r0, r0, r6, asr #10
    1a04:	29062804 	stmdbcs	r6, {r2, fp, sp}
    1a08:	00000052 	andeq	r0, r0, r2, asr r0
    1a0c:	00000052 	andeq	r0, r0, r2, asr r0
    1a10:	2a066e04 	bcs	19d228 <__bss_end__+0x192438>
    1a14:	730b9e0d 	movwvc	r9, #48653	; 0xbe0d
    1a18:	70656577 	rsbvc	r6, r5, r7, ror r5
    1a1c:	6572665f 	ldrbvs	r6, [r2, #-1631]!	; 0xfffff9a1
    1a20:	13290065 			; <UNDEFINED> instruction: 0x13290065
    1a24:	13000002 	movwne	r0, #2
    1a28:	05000002 	streq	r0, [r0, #-2]
    1a2c:	2029081b 	eorcs	r0, r9, fp, lsl r8
    1a30:	20000002 	andcs	r0, r0, r2
    1a34:	05000002 	streq	r0, [r0, #-2]
    1a38:	84290733 	strthi	r0, [r9], #-1843	; 0xfffff8cd
    1a3c:	84000002 	strhi	r0, [r0], #-2
    1a40:	05000002 	streq	r0, [r0, #-2]
    1a44:	9d29081e 	stcls	8, cr0, [r9, #-120]!	; 0xffffff88
    1a48:	9d000003 	stcls	0, cr0, [r0, #-12]
    1a4c:	01000003 	tsteq	r0, r3
    1a50:	af290676 	svcge	0x00290676
    1a54:	af000002 	svcge	0x00000002
    1a58:	05000002 	streq	r0, [r0, #-2]
    1a5c:	72290725 	eorvc	r0, r9, #9699328	; 0x940000
    1a60:	72000002 	andvc	r0, r0, #2, 0
    1a64:	05000002 	streq	r0, [r0, #-2]
    1a68:	fd29082e 	vcmla.f16	d0, d9, d30, #180
    1a6c:	fd000003 	stc2	0, cr0, [r0, #-12]
    1a70:	04000003 	streq	r0, [r0], #-3
    1a74:	f5290682 			; <UNDEFINED> instruction: 0xf5290682
    1a78:	f5000003 			; <UNDEFINED> instruction: 0xf5000003
    1a7c:	04000003 	streq	r0, [r0], #-3
    1a80:	4000077b 	andmi	r0, r0, fp, ror r7
    1a84:	04000001 	streq	r0, [r0], #-1
    1a88:	0008af00 	andeq	sl, r8, r0, lsl #30
    1a8c:	64010400 	strvs	r0, [r1], #-1024	; 0xfffffc00
    1a90:	0c000004 	stceq	0, cr0, [r0], {4}
    1a94:	00000454 	andeq	r0, r0, r4, asr r4
    1a98:	0000051c 	andeq	r0, r0, ip, lsl r5
    1a9c:	00008b9c 	muleq	r0, ip, fp
    1aa0:	00000078 	andeq	r0, r0, r8, ror r0
    1aa4:	00000bce 	andeq	r0, r0, lr, asr #23
    1aa8:	69050402 	stmdbvs	r5, {r1, sl}
    1aac:	0300746e 	movweq	r7, #1134	; 0x46e
    1ab0:	0000044d 	andeq	r0, r0, sp, asr #8
    1ab4:	3817d103 	ldmdacc	r7, {r0, r1, r8, ip, lr, pc}
    1ab8:	04000000 	streq	r0, [r0], #-0
    1abc:	00a80704 	adceq	r0, r8, r4, lsl #14
    1ac0:	01040000 	mrseq	r0, (UNDEF: 4)
    1ac4:	00004606 	andeq	r4, r0, r6, lsl #12
    1ac8:	05020400 	streq	r0, [r2, #-1024]	; 0xfffffc00
    1acc:	000000f5 	strdeq	r0, [r0], -r5
    1ad0:	ba050404 	blt	142ae8 <__bss_end__+0x137cf8>
    1ad4:	04000000 	streq	r0, [r0], #-0
    1ad8:	00b50508 	adcseq	r0, r5, r8, lsl #10
    1adc:	01040000 	mrseq	r0, (UNDEF: 4)
    1ae0:	00004408 	andeq	r4, r0, r8, lsl #8
    1ae4:	07020400 	streq	r0, [r2, -r0, lsl #8]
    1ae8:	0000005f 	andeq	r0, r0, pc, asr r0
    1aec:	a3070404 	movwge	r0, #29700	; 0x7404
    1af0:	04000000 	streq	r0, [r0], #-0
    1af4:	009e0708 	addseq	r0, lr, r8, lsl #14
    1af8:	25050000 	strcs	r0, [r5, #-0]
    1afc:	86000000 	strhi	r0, [r0], -r0
    1b00:	06000000 	streq	r0, [r0], -r0
    1b04:	00000025 	andeq	r0, r0, r5, lsr #32
    1b08:	01090700 	tsteq	r9, r0, lsl #14
    1b0c:	1c020000 	stcne	0, cr0, [r2], {-0}
    1b10:	0000920e 	andeq	r9, r0, lr, lsl #4
    1b14:	77040800 	strvc	r0, [r4, -r0, lsl #16]
    1b18:	05000000 	streq	r0, [r0, #-0]
    1b1c:	00000025 	andeq	r0, r0, r5, lsr #32
    1b20:	000000a7 	andeq	r0, r0, r7, lsr #1
    1b24:	0000a706 	andeq	sl, r0, r6, lsl #14
    1b28:	04080000 	streq	r0, [r8], #-0
    1b2c:	000000b4 	strheq	r0, [r0], -r4
    1b30:	4d080104 	stfmis	f0, [r8, #-16]
    1b34:	09000000 	stmdbeq	r0, {}	; <UNPREDICTABLE>
    1b38:	000000ad 	andeq	r0, r0, sp, lsr #1
    1b3c:	00058407 	andeq	r8, r5, r7, lsl #8
    1b40:	0e210200 	cdpeq	2, 2, cr0, cr1, cr0, {0}
    1b44:	000000c5 	andeq	r0, r0, r5, asr #1
    1b48:	00980408 	addseq	r0, r8, r8, lsl #8
    1b4c:	780a0000 	stmdavc	sl, {}	; <UNPREDICTABLE>
    1b50:	01000000 	mrseq	r0, (UNDEF: 0)
    1b54:	013b0704 	teqeq	fp, r4, lsl #14
    1b58:	8b9c0000 	blhi	fe701b60 <__bss_end__+0xfe6f6d70>
    1b5c:	00780000 	rsbseq	r0, r8, r0
    1b60:	9c010000 	stcls	0, cr0, [r1], {-0}
    1b64:	0000013b 	andeq	r0, r0, fp, lsr r1
    1b68:	00705f0b 	rsbseq	r5, r0, fp, lsl #30
    1b6c:	3b140401 	blcc	502b78 <__bss_end__+0x4f7d88>
    1b70:	01000001 	tsteq	r0, r1
    1b74:	00630c50 	rsbeq	r0, r3, r0, asr ip
    1b78:	251c0401 	ldrcs	r0, [ip, #-1025]	; 0xfffffbff
    1b7c:	0d000000 	stceq	0, cr0, [r0, #-0]
    1b80:	0900000b 	stmdbeq	r0, {r0, r1, r3}
    1b84:	0c00000b 	stceq	0, cr0, [r0], {11}
    1b88:	0401006e 	streq	r0, [r1], #-110	; 0xffffff92
    1b8c:	00002c26 	andeq	r2, r0, r6, lsr #24
    1b90:	000b3200 	andeq	r3, fp, r0, lsl #4
    1b94:	000b2e00 	andeq	r2, fp, r0, lsl #28
    1b98:	00700d00 	rsbseq	r0, r0, r0, lsl #26
    1b9c:	3d0b0501 	cfstr32cc	mvfx0, [fp, #-4]
    1ba0:	61000001 	tstvs	r0, r1
    1ba4:	5300000b 	movwpl	r0, #11
    1ba8:	0d00000b 	stceq	0, cr0, [r0, #-44]	; 0xffffffd4
    1bac:	05010065 	streq	r0, [r1, #-101]	; 0xffffff9b
    1bb0:	00013d14 	andeq	r3, r1, r4, lsl sp
    1bb4:	000bbe00 	andeq	fp, fp, r0, lsl #28
    1bb8:	000bbc00 	andeq	fp, fp, r0, lsl #24
    1bbc:	040e0000 	streq	r0, [lr], #-0
    1bc0:	00ad0408 	adceq	r0, sp, r8, lsl #8
    1bc4:	9d000000 	stcls	0, cr0, [r0, #-0]
    1bc8:	04000001 	streq	r0, [r0], #-1
    1bcc:	00097b00 	andeq	r7, r9, r0, lsl #22
    1bd0:	64010400 	strvs	r0, [r1], #-1024	; 0xfffffc00
    1bd4:	0c000004 	stceq	0, cr0, [r0], {4}
    1bd8:	00000561 	andeq	r0, r0, r1, ror #10
    1bdc:	0000051c 	andeq	r0, r0, ip, lsl r5
    1be0:	00008c14 	andeq	r8, r0, r4, lsl ip
    1be4:	00000058 	andeq	r0, r0, r8, asr r0
    1be8:	00000cf3 	strdeq	r0, [r0], -r3
    1bec:	00054d02 	andeq	r4, r5, r2, lsl #26
    1bf0:	1b280200 	blne	a023f8 <__bss_end__+0x9f7608>
    1bf4:	00000031 	andeq	r0, r0, r1, lsr r0
    1bf8:	00057103 	andeq	r7, r5, r3, lsl #2
    1bfc:	00040400 	andeq	r0, r4, r0, lsl #8
    1c00:	00000048 	andeq	r0, r0, r8, asr #32
    1c04:	00055c04 	andeq	r5, r5, r4, lsl #24
    1c08:	00004800 	andeq	r4, r0, r0, lsl #16
    1c0c:	05000000 	streq	r0, [r0, #-0]
    1c10:	05730204 	ldrbeq	r0, [r3, #-516]!	; 0xfffffdfc
    1c14:	63020000 	movwvs	r0, #8192	; 0x2000
    1c18:	00002518 	andeq	r2, r0, r8, lsl r5
    1c1c:	05040600 	streq	r0, [r4, #-1536]	; 0xfffffa00
    1c20:	00746e69 	rsbseq	r6, r4, r9, ror #28
    1c24:	a8070407 	stmdage	r7, {r0, r1, r2, sl}
    1c28:	07000000 	streq	r0, [r0, -r0]
    1c2c:	00460601 	subeq	r0, r6, r1, lsl #12
    1c30:	02070000 	andeq	r0, r7, #0, 0
    1c34:	0000f505 	andeq	pc, r0, r5, lsl #10
    1c38:	05040700 	streq	r0, [r4, #-1792]	; 0xfffff900
    1c3c:	000000ba 	strheq	r0, [r0], -sl
    1c40:	b5050807 	strlt	r0, [r5, #-2055]	; 0xfffff7f9
    1c44:	07000000 	streq	r0, [r0, -r0]
    1c48:	00440801 	subeq	r0, r4, r1, lsl #16
    1c4c:	02070000 	andeq	r0, r7, #0, 0
    1c50:	00005f07 	andeq	r5, r0, r7, lsl #30
    1c54:	07040700 	streq	r0, [r4, -r0, lsl #14]
    1c58:	000000a3 	andeq	r0, r0, r3, lsr #1
    1c5c:	9e070807 	cdpls	8, 0, cr0, cr7, cr7, {0}
    1c60:	08000000 	stmdaeq	r0, {}	; <UNPREDICTABLE>
    1c64:	00000056 	andeq	r0, r0, r6, asr r0
    1c68:	000000ab 	andeq	r0, r0, fp, lsr #1
    1c6c:	00005609 	andeq	r5, r0, r9, lsl #12
    1c70:	090a0000 	stmdbeq	sl, {}	; <UNPREDICTABLE>
    1c74:	03000001 	movweq	r0, #1
    1c78:	00b70e1c 	adcseq	r0, r7, ip, lsl lr
    1c7c:	040b0000 	streq	r0, [fp], #-0
    1c80:	0000009c 	muleq	r0, ip, r0
    1c84:	00005608 	andeq	r5, r0, r8, lsl #12
    1c88:	0000cc00 	andeq	ip, r0, r0, lsl #24
    1c8c:	00cc0900 	sbceq	r0, ip, r0, lsl #18
    1c90:	0b000000 	bleq	1c98 <__code_start__-0x6368>
    1c94:	0000d904 	andeq	sp, r0, r4, lsl #18
    1c98:	08010700 	stmdaeq	r1, {r8, r9, sl}
    1c9c:	0000004d 	andeq	r0, r0, sp, asr #32
    1ca0:	0000d20c 	andeq	sp, r0, ip, lsl #4
    1ca4:	05840a00 	streq	r0, [r4, #2560]	; 0xa00
    1ca8:	21030000 	mrscs	r0, (UNDEF: 3)
    1cac:	0000ea0e 	andeq	lr, r0, lr, lsl #20
    1cb0:	bd040b00 	vstrlt	d0, [r4, #-0]
    1cb4:	0d000000 	stceq	0, cr0, [r0, #-0]
    1cb8:	00000546 	andeq	r0, r0, r6, asr #10
    1cbc:	56050601 	strpl	r0, [r5], -r1, lsl #12
    1cc0:	14000000 	strne	r0, [r0], #-0
    1cc4:	5800008c 	stmdapl	r0, {r2, r3, r7}
    1cc8:	01000000 	mrseq	r0, (UNDEF: 0)
    1ccc:	0001839c 	muleq	r1, ip, r3
    1cd0:	6d660e00 	stclvs	14, cr0, [r6, #-0]
    1cd4:	06010074 			; <UNDEFINED> instruction: 0x06010074
    1cd8:	0000cc18 	andeq	ip, r0, r8, lsl ip
    1cdc:	70910200 	addsvc	r0, r1, r0, lsl #4
    1ce0:	7562100f 	strbvc	r1, [r2, #-15]!
    1ce4:	08010066 	stmdaeq	r1, {r1, r2, r5, r6}
    1ce8:	00018311 	andeq	r8, r1, r1, lsl r3
    1cec:	ec030500 	cfstr32	mvfx0, [r3], {-0}
    1cf0:	110000a9 	smlatbne	r0, r9, r0, r0
    1cf4:	0000053e 	andeq	r0, r0, lr, lsr r5
    1cf8:	4a0d0901 	bmi	344104 <__bss_end__+0x339314>
    1cfc:	02000000 	andeq	r0, r0, #0, 0
    1d00:	73125c91 	tstvc	r2, #37120	; 0x9100
    1d04:	0c01007a 	stceq	0, cr0, [r1], {122}	; 0x7a
    1d08:	0000560d 	andeq	r5, r0, sp, lsl #12
    1d0c:	000bd700 	andeq	sp, fp, r0, lsl #14
    1d10:	000bd100 	andeq	sp, fp, r0, lsl #2
    1d14:	8c3c1300 	ldchi	3, cr1, [ip], #-0
    1d18:	01940000 	orrseq	r0, r4, r0
    1d1c:	01760000 	cmneq	r6, r0
    1d20:	01140000 	tsteq	r4, r0
    1d24:	00750250 	rsbseq	r0, r5, r0, asr r2
    1d28:	03510114 	cmpeq	r1, #5
    1d2c:	1404000a 	strne	r0, [r4], #-10
    1d30:	91035201 	tstls	r3, r1, lsl #4
    1d34:	01140648 	tsteq	r4, r8, asr #12
    1d38:	4c910253 	lfmmi	f0, 4, [r1], {83}	; 0x53
    1d3c:	8c501500 	cfldr64hi	mvdx1, [r0], {-0}
    1d40:	01140000 	tsteq	r4, r0
    1d44:	00750250 	rsbseq	r0, r5, r0, asr r2
    1d48:	d2160000 	andsle	r0, r6, #0, 0
    1d4c:	94000000 	strls	r0, [r0], #-0
    1d50:	17000001 	strne	r0, [r0, -r1]
    1d54:	0000005d 	andeq	r0, r0, sp, asr r0
    1d58:	180003ff 	stmdane	r0, {r0, r1, r2, r3, r4, r5, r6, r7, r8, r9}
    1d5c:	00000543 	andeq	r0, r0, r3, asr #10
    1d60:	00000543 	andeq	r0, r0, r3, asr #10
    1d64:	00050205 	andeq	r0, r5, r5, lsl #4
    1d68:	000000f3 	strdeq	r0, [r0], -r3
    1d6c:	0abd0004 	beq	fef41d84 <__bss_end__+0xfef36f94>
    1d70:	01040000 	mrseq	r0, (UNDEF: 4)
    1d74:	00000464 	andeq	r0, r0, r4, ror #8
    1d78:	0005890c 	andeq	r8, r5, ip, lsl #18
    1d7c:	00051c00 	andeq	r1, r5, r0, lsl #24
    1d80:	008c6c00 	addeq	r6, ip, r0, lsl #24
    1d84:	00003800 	andeq	r3, r0, r0, lsl #16
    1d88:	000e1700 	andeq	r1, lr, r0, lsl #14
    1d8c:	05040200 	streq	r0, [r4, #-512]	; 0xfffffe00
    1d90:	00746e69 	rsbseq	r6, r4, r9, ror #28
    1d94:	a8070403 	stmdage	r7, {r0, r1, sl}
    1d98:	03000000 	movweq	r0, #0
    1d9c:	00460601 	subeq	r0, r6, r1, lsl #12
    1da0:	02030000 	andeq	r0, r3, #0, 0
    1da4:	0000f505 	andeq	pc, r0, r5, lsl #10
    1da8:	05040300 	streq	r0, [r4, #-768]	; 0xfffffd00
    1dac:	000000ba 	strheq	r0, [r0], -sl
    1db0:	b5050803 	strlt	r0, [r5, #-2051]	; 0xfffff7fd
    1db4:	03000000 	movweq	r0, #0
    1db8:	00440801 	subeq	r0, r4, r1, lsl #16
    1dbc:	02030000 	andeq	r0, r3, #0, 0
    1dc0:	00005f07 	andeq	r5, r0, r7, lsl #30
    1dc4:	07040300 	streq	r0, [r4, -r0, lsl #6]
    1dc8:	000000a3 	andeq	r0, r0, r3, lsr #1
    1dcc:	9e070803 	cdpls	8, 0, cr0, cr7, cr3, {0}
    1dd0:	04000000 	streq	r0, [r0], #-0
    1dd4:	00000025 	andeq	r0, r0, r5, lsr #32
    1dd8:	0000007a 	andeq	r0, r0, sl, ror r0
    1ddc:	00002505 	andeq	r2, r0, r5, lsl #10
    1de0:	09060000 	stmdbeq	r6, {}	; <UNPREDICTABLE>
    1de4:	02000001 	andeq	r0, r0, #1, 0
    1de8:	00860e1c 	addeq	r0, r6, ip, lsl lr
    1dec:	04070000 	streq	r0, [r7], #-0
    1df0:	0000006b 	andeq	r0, r0, fp, rrx
    1df4:	00002504 	andeq	r2, r0, r4, lsl #10
    1df8:	00009b00 	andeq	r9, r0, r0, lsl #22
    1dfc:	009b0500 	addseq	r0, fp, r0, lsl #10
    1e00:	07000000 	streq	r0, [r0, -r0]
    1e04:	0000a804 	andeq	sl, r0, r4, lsl #16
    1e08:	08010300 	stmdaeq	r1, {r8, r9}
    1e0c:	0000004d 	andeq	r0, r0, sp, asr #32
    1e10:	0000a108 	andeq	sl, r0, r8, lsl #2
    1e14:	05840600 	streq	r0, [r4, #1536]	; 0x600
    1e18:	21020000 	mrscs	r0, (UNDEF: 2)
    1e1c:	0000b90e 	andeq	fp, r0, lr, lsl #18
    1e20:	8c040700 	stchi	7, cr0, [r4], {-0}
    1e24:	09000000 	stmdbeq	r0, {}	; <UNPREDICTABLE>
    1e28:	000000ad 	andeq	r0, r0, sp, lsr #1
    1e2c:	05070c01 	streq	r0, [r7, #-3073]	; 0xfffff3ff
    1e30:	00a9b003 	adceq	fp, r9, r3
    1e34:	057b0a00 	ldrbeq	r0, [fp, #-2560]!	; 0xfffff600
    1e38:	04010000 	streq	r0, [r1], #-0
    1e3c:	00002505 	andeq	r2, r0, r5, lsl #10
    1e40:	008c6c00 	addeq	r6, ip, r0, lsl #24
    1e44:	00003800 	andeq	r3, r0, r0, lsl #16
    1e48:	0b9c0100 	bleq	fe702250 <__bss_end__+0xfe6f7460>
    1e4c:	04010070 	streq	r0, [r1], #-112	; 0xffffff90
    1e50:	00009b1f 	andeq	r9, r0, pc, lsl fp
    1e54:	000c0800 	andeq	r0, ip, r0, lsl #16
    1e58:	000c0000 	andeq	r0, ip, r0
    1e5c:	7f000000 	svcvc	0x00000000
    1e60:	0400000c 	streq	r0, [r0], #-12
    1e64:	000b5b00 	andeq	r5, fp, r0, lsl #22
    1e68:	64010400 	strvs	r0, [r1], #-1024	; 0xfffffc00
    1e6c:	0c000004 	stceq	0, cr0, [r0], {4}
    1e70:	000005a8 	andeq	r0, r0, r8, lsr #11
    1e74:	0000051c 	andeq	r0, r0, ip, lsl r5
    1e78:	00008ca4 	andeq	r8, r0, r4, lsr #25
    1e7c:	000009b4 			; <UNDEFINED> instruction: 0x000009b4
    1e80:	00000ebb 			; <UNDEFINED> instruction: 0x00000ebb
    1e84:	9e070802 	cdpls	8, 0, cr0, cr7, cr2, {0}
    1e88:	02000000 	andeq	r0, r0, #0, 0
    1e8c:	00a80704 	adceq	r0, r8, r4, lsl #14
    1e90:	04030000 	streq	r0, [r3], #-0
    1e94:	746e6905 	strbtvc	r6, [lr], #-2309	; 0xfffff6fb
    1e98:	06010200 	streq	r0, [r1], -r0, lsl #4
    1e9c:	00000046 	andeq	r0, r0, r6, asr #32
    1ea0:	f5050202 			; <UNDEFINED> instruction: 0xf5050202
    1ea4:	02000000 	andeq	r0, r0, #0, 0
    1ea8:	00ba0504 	adcseq	r0, sl, r4, lsl #10
    1eac:	08020000 	stmdaeq	r2, {}	; <UNPREDICTABLE>
    1eb0:	0000b505 	andeq	fp, r0, r5, lsl #10
    1eb4:	08010200 	stmdaeq	r1, {r9}
    1eb8:	00000044 	andeq	r0, r0, r4, asr #32
    1ebc:	5f070202 	svcpl	0x00070202
    1ec0:	04000000 	streq	r0, [r0], #-0
    1ec4:	00000260 	andeq	r0, r0, r0, ror #4
    1ec8:	70193402 	andsvc	r3, r9, r2, lsl #8
    1ecc:	02000000 	andeq	r0, r0, #0, 0
    1ed0:	00a30704 	adceq	r0, r3, r4, lsl #14
    1ed4:	9f040000 	svcls	0x00040000
    1ed8:	02000005 	andeq	r0, r0, #5, 0
    1edc:	00251937 	eoreq	r1, r5, r7, lsr r9
    1ee0:	33050000 	movwcc	r0, #20480	; 0x5000
    1ee4:	92000000 	andls	r0, r0, #0, 0
    1ee8:	06000000 	streq	r0, [r0], -r0
    1eec:	00000033 	andeq	r0, r0, r3, lsr r0
    1ef0:	01090700 	tsteq	r9, r0, lsl #14
    1ef4:	1c030000 	stcne	0, cr0, [r3], {-0}
    1ef8:	00009e0e 	andeq	r9, r0, lr, lsl #28
    1efc:	83040800 	movwhi	r0, #18432	; 0x4800
    1f00:	05000000 	streq	r0, [r0, #-0]
    1f04:	00000033 	andeq	r0, r0, r3, lsr r0
    1f08:	000000b3 	strheq	r0, [r0], -r3
    1f0c:	0000b306 	andeq	fp, r0, r6, lsl #6
    1f10:	04080000 	streq	r0, [r8], #-0
    1f14:	000000c0 	andeq	r0, r0, r0, asr #1
    1f18:	4d080102 	stfmis	f0, [r8, #-8]
    1f1c:	09000000 	stmdbeq	r0, {}	; <UNPREDICTABLE>
    1f20:	000000b9 	strheq	r0, [r0], -r9
    1f24:	00058407 	andeq	r8, r5, r7, lsl #8
    1f28:	0e210300 	cdpeq	3, 2, cr0, cr1, cr0, {0}
    1f2c:	000000d1 	ldrdeq	r0, [r0], -r1
    1f30:	00a40408 	adceq	r0, r4, r8, lsl #8
    1f34:	bb070000 	bllt	1c1f3c <__bss_end__+0x1b714c>
    1f38:	04000005 	streq	r0, [r0], #-5
    1f3c:	00b90d0b 	adcseq	r0, r9, fp, lsl #26
    1f40:	14070000 	strne	r0, [r7], #-0
    1f44:	04000006 	streq	r0, [r0], #-6
    1f48:	00b90d0c 	adcseq	r0, r9, ip, lsl #26
    1f4c:	4f070000 	svcmi	0x00070000
    1f50:	04000003 	streq	r0, [r0], #-3
    1f54:	00b90d0d 	adcseq	r0, r9, sp, lsl #26
    1f58:	e9070000 	stmdb	r7, {}	; <UNPREDICTABLE>
    1f5c:	04000003 	streq	r0, [r0], #-3
    1f60:	00b90d0e 	adcseq	r0, r9, lr, lsl #26
    1f64:	1f070000 	svcne	0x00070000
    1f68:	04000004 	streq	r0, [r0], #-4
    1f6c:	00b90d0f 	adcseq	r0, r9, pc, lsl #26
    1f70:	b8070000 	stmdalt	r7, {}	; <UNPREDICTABLE>
    1f74:	04000003 	streq	r0, [r0], #-3
    1f78:	00b90d10 	adcseq	r0, r9, r0, lsl sp
    1f7c:	3d070000 	stccc	0, cr0, [r7, #-0]
    1f80:	04000006 	streq	r0, [r0], #-6
    1f84:	00b90d11 	adcseq	r0, r9, r1, lsl sp
    1f88:	d8070000 	stmdale	r7, {}	; <UNPREDICTABLE>
    1f8c:	04000005 	streq	r0, [r0], #-5
    1f90:	00b90d12 	adcseq	r0, r9, r2, lsl sp
    1f94:	4d040000 	stcmi	0, cr0, [r4, #-0]
    1f98:	05000005 	streq	r0, [r0, #-5]
    1f9c:	01431b28 	cmpeq	r3, r8, lsr #22
    1fa0:	710a0000 	mrsvc	r0, (UNDEF: 10)
    1fa4:	04000005 	streq	r0, [r0], #-5
    1fa8:	015a0006 	cmpeq	sl, r6
    1fac:	5c0b0000 	stcpl	0, cr0, [fp], {-0}
    1fb0:	5a000005 	bpl	1fcc <__code_start__-0x6034>
    1fb4:	00000001 	andeq	r0, r0, r1
    1fb8:	04040c00 	streq	r0, [r4], #-3072	; 0xfffff400
    1fbc:	00000573 	andeq	r0, r0, r3, ror r5
    1fc0:	37186305 	ldrcc	r6, [r8, -r5, lsl #6]
    1fc4:	0d000001 	stceq	0, cr0, [r0, #-4]
    1fc8:	00000543 	andeq	r0, r0, r3, asr #10
    1fcc:	33058101 	movwcc	r8, #20737	; 0x5101
    1fd0:	2c000000 	stccs	0, cr0, [r0], {-0}
    1fd4:	2c000090 	stccs	0, cr0, [r0], {144}	; 0x90
    1fd8:	01000006 	tsteq	r0, r6
    1fdc:	00086a9c 	muleq	r8, ip, sl
    1fe0:	75620e00 	strbvc	r0, [r2, #-3584]!	; 0xfffff200
    1fe4:	81010066 	tsthi	r1, r6, rrx
    1fe8:	00086a15 	andeq	r6, r8, r5, lsl sl
    1fec:	000c4800 	andeq	r4, ip, r0, lsl #16
    1ff0:	000c3e00 	andeq	r3, ip, r0, lsl #28
    1ff4:	006e0e00 	rsbeq	r0, lr, r0, lsl #28
    1ff8:	331e8101 	tstcc	lr, #1073741824	; 0x40000000
    1ffc:	95000000 	strls	r0, [r0, #-0]
    2000:	8d00000c 	stchi	0, cr0, [r0, #-48]	; 0xffffffd0
    2004:	0e00000c 	cdpeq	0, 0, cr0, cr0, cr12, {0}
    2008:	00746d66 	rsbseq	r6, r4, r6, ror #26
    200c:	b32d8101 			; <UNDEFINED> instruction: 0xb32d8101
    2010:	e7000000 	str	r0, [r0, -r0]
    2014:	cf00000c 	svcgt	0x0000000c
    2018:	0f00000c 	svceq	0x0000000c
    201c:	0000053e 	andeq	r0, r0, lr, lsr r5
    2020:	5c3a8101 	ldfpld	f0, [sl], #-4
    2024:	a9000001 	stmdbge	r0, {r0}
    2028:	7b00000d 	blvc	2064 <__code_start__-0x5f9c>
    202c:	1000000d 	andne	r0, r0, sp
    2030:	82010070 	andhi	r0, r1, #112, 0	; 0x70
    2034:	00086a08 	andeq	r6, r8, r8, lsl #20
    2038:	000efc00 	andeq	pc, lr, r0, lsl #24
    203c:	000ee600 	andeq	lr, lr, r0, lsl #12
    2040:	00651000 	rsbeq	r1, r5, r0
    2044:	6a128201 	bvs	4a2850 <__bss_end__+0x497a60>
    2048:	85000008 	strhi	r0, [r0, #-8]
    204c:	8300000f 	movwhi	r0, #15
    2050:	1000000f 	andne	r0, r0, pc
    2054:	01003078 	tsteq	r0, r8, ror r0
    2058:	00640e83 	rsbeq	r0, r4, r3, lsl #29
    205c:	0f9e0000 	svceq	0x009e0000
    2060:	0f980000 	svceq	0x00980000
    2064:	78100000 	ldmdavc	r0, {}	; <UNPREDICTABLE>
    2068:	83010031 	movwhi	r0, #4145	; 0x1031
    206c:	00006411 	andeq	r6, r0, r1, lsl r4
    2070:	000fcd00 	andeq	ip, pc, r0, lsl #26
    2074:	000fc700 	andeq	ip, pc, r0, lsl #14
    2078:	05f61100 	ldrbeq	r1, [r6, #256]!	; 0x100
    207c:	86010000 	strhi	r0, [r1], -r0
    2080:	0000b311 	andeq	fp, r0, r1, lsl r3
    2084:	000ffe00 	andeq	pc, pc, r0, lsl #28
    2088:	000ff600 	andeq	pc, pc, r0, lsl #12
    208c:	00841200 	addeq	r1, r4, r0, lsl #4
    2090:	08800000 	stmeq	r0, {}	; <UNPREDICTABLE>
    2094:	03050000 	movweq	r0, #20480	; 0x5000
    2098:	0000a79c 	muleq	r0, ip, r7
    209c:	00010013 	andeq	r0, r1, r3, lsl r0
    20a0:	00731000 	rsbseq	r1, r3, r0
    20a4:	6a0a9101 	bvs	2a64b0 <__bss_end__+0x29b6c0>
    20a8:	44000008 	strmi	r0, [r0], #-8
    20ac:	38000010 	stmdacc	r0, {r4}
    20b0:	14000010 	strne	r0, [r0], #-16
    20b4:	006d756e 	rsbeq	r7, sp, lr, ror #10
    20b8:	850d9101 	strhi	r9, [sp, #-257]	; 0xfffffeff
    20bc:	03000008 	movweq	r0, #8
    20c0:	157dd891 	ldrbne	sp, [sp, #-2193]!	; 0xfffff76f
    20c4:	0000064a 	andeq	r0, r0, sl, asr #12
    20c8:	85179101 	ldrhi	r9, [r7, #-257]	; 0xfffffeff
    20cc:	03000008 	movweq	r0, #8
    20d0:	117ed891 			; <UNDEFINED> instruction: 0x117ed891
    20d4:	000005ca 	andeq	r0, r0, sl, asr #11
    20d8:	2c0d9201 	sfmcs	f1, 1, [sp], {1}
    20dc:	96000000 	strls	r0, [r0], -r0
    20e0:	8e000010 	mcrhi	0, 0, r0, cr0, cr0, {0}
    20e4:	16000010 			; <UNDEFINED> instruction: 0x16000010
    20e8:	00000128 	andeq	r0, r0, r8, lsr #2
    20ec:	000004f1 	strdeq	r0, [r0], -r1
    20f0:	00797410 	rsbseq	r7, r9, r0, lsl r4
    20f4:	b31d9e01 	tstlt	sp, #1, 28
    20f8:	d7000000 	strle	r0, [r0, -r0]
    20fc:	cb000010 	blgt	2144 <__code_start__-0x5ebc>
    2100:	14000010 	strne	r0, [r0], #-16
    2104:	01007878 	tsteq	r0, r8, ror r8
    2108:	00771aa2 	rsbseq	r1, r7, r2, lsr #21
    210c:	59060000 	stmdbpl	r6, {}	; <UNPREDICTABLE>
    2110:	935b0493 	cmpls	fp, #-1828716544	; 0x93000000
    2114:	91b81704 			; <UNDEFINED> instruction: 0x91b81704
    2118:	0c3a0000 	ldceq	0, cr0, [sl], #-0
    211c:	02d80000 	sbcseq	r0, r8, #0, 0
    2120:	01180000 	tsteq	r8, r0
    2124:	00760250 	rsbseq	r0, r6, r0, asr r2
    2128:	05510118 	ldrbeq	r0, [r1, #-280]	; 0xfffffee8
    212c:	00a69003 	adceq	r9, r6, r3
    2130:	52011800 	andpl	r1, r1, #0, 16
    2134:	17003301 	strne	r3, [r0, -r1, lsl #6]
    2138:	000091d0 	ldrdeq	r9, [r0], -r0
    213c:	00000c3a 	andeq	r0, r0, sl, lsr ip
    2140:	000002fa 	strdeq	r0, [r0], -sl
    2144:	02500118 	subseq	r0, r0, #6
    2148:	01180076 	tsteq	r8, r6, ror r0
    214c:	a4030551 	strge	r0, [r3], #-1361	; 0xfffffaaf
    2150:	180000a6 	stmdane	r0, {r1, r2, r5, r7}
    2154:	33015201 	movwcc	r5, #4609	; 0x1201
    2158:	91f41700 	mvnsls	r1, r0, lsl #14
    215c:	0c460000 	mareq	acc0, r0, r6
    2160:	03170000 	tsteq	r7, #0, 0
    2164:	01180000 	tsteq	r8, r0
    2168:	94030550 	strls	r0, [r3], #-1360	; 0xfffffab0
    216c:	180000a6 	stmdane	r0, {r1, r2, r5, r7}
    2170:	7b025101 	blvc	9657c <__bss_end__+0x8b78c>
    2174:	00170000 	andseq	r0, r7, r0
    2178:	46000092 			; <UNDEFINED> instruction: 0x46000092
    217c:	3400000c 	strcc	r0, [r0], #-12
    2180:	18000003 	stmdane	r0, {r0, r1}
    2184:	03055001 	movweq	r5, #20481	; 0x5001
    2188:	0000a69c 	muleq	r0, ip, r6
    218c:	02510118 	subseq	r0, r1, #6
    2190:	17000079 	smlsdxne	r0, r9, r0, r0
    2194:	00009210 	andeq	r9, r0, r0, lsl r2
    2198:	00000c3a 	andeq	r0, r0, sl, lsr ip
    219c:	00000356 	andeq	r0, r0, r6, asr r3
    21a0:	02500118 	subseq	r0, r0, #6
    21a4:	01180076 	tsteq	r8, r6, ror r0
    21a8:	90030551 	andls	r0, r3, r1, asr r5
    21ac:	180000a6 	stmdane	r0, {r1, r2, r5, r7}
    21b0:	33015201 	movwcc	r5, #4609	; 0x1201
    21b4:	92401700 	subls	r1, r0, #0, 14
    21b8:	0aa40000 	beq	fe9021c0 <__bss_end__+0xfe8f73d0>
    21bc:	03830000 	orreq	r0, r3, #0, 0
    21c0:	01180000 	tsteq	r8, r0
    21c4:	18400150 	stmdane	r0, {r4, r6, r8}^
    21c8:	91035101 	tstls	r3, r1, lsl #2
    21cc:	01187dd0 			; <UNDEFINED> instruction: 0x01187dd0
    21d0:	007b0252 	rsbseq	r0, fp, r2, asr r2
    21d4:	02530118 	subseq	r0, r3, #6
    21d8:	02180075 	andseq	r0, r8, #117, 0	; 0x75
    21dc:	7602007d 			; <UNDEFINED> instruction: 0x7602007d
    21e0:	60170000 	andsvs	r0, r7, r0
    21e4:	a4000092 	strge	r0, [r0], #-146	; 0xffffff6e
    21e8:	aa00000a 	bge	2218 <__code_start__-0x5de8>
    21ec:	18000003 	stmdane	r0, {r0, r1}
    21f0:	40015001 	andmi	r5, r1, r1
    21f4:	03510118 	cmpeq	r1, #6
    21f8:	187ed091 	ldmdane	lr!, {r0, r4, r7, ip, lr, pc}^
    21fc:	79025201 	stmdbvc	r2, {r0, r9, ip, lr}
    2200:	7d021800 	stcvc	8, cr1, [r2, #-0]
    2204:	00760200 	rsbseq	r0, r6, r0, lsl #4
    2208:	92701700 	rsbsls	r1, r0, #0, 14
    220c:	0c520000 	mraeq	r0, r2, acc0
    2210:	03c60000 	biceq	r0, r6, #0, 0
    2214:	01180000 	tsteq	r8, r0
    2218:	d0910350 	addsle	r0, r1, r0, asr r3
    221c:	5101187d 	tstpl	r1, sp, ror r8
    2220:	7ed29103 	atnvcs	f1, f3
    2224:	94b41700 	ldrtls	r1, [r4], #1792	; 0x700
    2228:	0c3a0000 	ldceq	0, cr0, [sl], #-0
    222c:	03e80000 	mvneq	r0, #0, 0
    2230:	01180000 	tsteq	r8, r0
    2234:	00760250 	rsbseq	r0, r6, r0, asr r2
    2238:	05510118 	ldrbeq	r0, [r1, #-280]	; 0xfffffee8
    223c:	00a6a403 	adceq	sl, r6, r3, lsl #8
    2240:	52011800 	andpl	r1, r1, #0, 16
    2244:	17003301 	strne	r3, [r0, -r1, lsl #6]
    2248:	000094d8 	ldrdeq	r9, [r0], -r8
    224c:	00000aa4 	andeq	r0, r0, r4, lsr #21
    2250:	00000415 	andeq	r0, r0, r5, lsl r4
    2254:	01500118 	cmpeq	r0, r8, lsl r1
    2258:	5101183a 	tstpl	r1, sl, lsr r8
    225c:	7dd09103 	ldfvcp	f1, [r0, #12]
    2260:	02520118 	subseq	r0, r2, #6
    2264:	0118007b 	tsteq	r8, fp, ror r0
    2268:	00750253 	rsbseq	r0, r5, r3, asr r2
    226c:	007d0218 	rsbseq	r0, sp, r8, lsl r2
    2270:	00007602 	andeq	r7, r0, r2, lsl #12
    2274:	0094f817 	addseq	pc, r4, r7, lsl r8	; <UNPREDICTABLE>
    2278:	000aa400 	andeq	sl, sl, r0, lsl #8
    227c:	00043c00 	andeq	r3, r4, r0, lsl #24
    2280:	50011800 	andpl	r1, r1, r0, lsl #16
    2284:	01183a01 	tsteq	r8, r1, lsl #20
    2288:	d0910351 	addsle	r0, r1, r1, asr r3
    228c:	5201187e 	andpl	r1, r1, #8257536	; 0x7e0000
    2290:	18007902 	stmdane	r0, {r1, r8, fp, ip, sp, lr}
    2294:	02007d02 	andeq	r7, r0, #128	; 0x80
    2298:	17000076 	smlsdxne	r0, r6, r0, r0
    229c:	00009504 	andeq	r9, r0, r4, lsl #10
    22a0:	00000c5e 	andeq	r0, r0, lr, asr ip
    22a4:	0000045a 	andeq	r0, r0, sl, asr r4
    22a8:	03500118 	cmpeq	r0, #6
    22ac:	187dd091 	ldmdane	sp!, {r0, r4, r7, ip, lr, pc}^
    22b0:	03055101 	movweq	r5, #20737	; 0x5101
    22b4:	0000a508 	andeq	sl, r0, r8, lsl #10
    22b8:	95181700 	ldrls	r1, [r8, #-1792]	; 0xfffff900
    22bc:	0c6a0000 	stcleq	0, cr0, [sl], #-0
    22c0:	04760000 	ldrbteq	r0, [r6], #-0
    22c4:	01180000 	tsteq	r8, r0
    22c8:	d0910350 	addsle	r0, r1, r0, asr r3
    22cc:	5101187d 	tstpl	r1, sp, ror r8
    22d0:	7ed09103 	atnvcs	f1, f3
    22d4:	95241900 	strls	r1, [r4, #-2304]!	; 0xfffff700
    22d8:	0c520000 	mraeq	r0, r2, acc0
    22dc:	e8170000 	ldmda	r7, {}	; <UNPREDICTABLE>
    22e0:	46000095 			; <UNDEFINED> instruction: 0x46000095
    22e4:	a800000c 	stmdage	r0, {r2, r3}
    22e8:	18000004 	stmdane	r0, {r2}
    22ec:	03055001 	movweq	r5, #20481	; 0x5001
    22f0:	0000a184 	andeq	sl, r0, r4, lsl #3
    22f4:	05510118 	ldrbeq	r0, [r1, #-280]	; 0xfffffee8
    22f8:	00a64403 	adceq	r4, r6, r3, lsl #8
    22fc:	52011800 	andpl	r1, r1, #0, 16
    2300:	a79c0305 	ldrge	r0, [ip, r5, lsl #6]
    2304:	19000000 	stmdbne	r0, {}	; <UNPREDICTABLE>
    2308:	000095ec 	andeq	r9, r0, ip, ror #11
    230c:	00000c76 	andeq	r0, r0, r6, ror ip
    2310:	00960417 	addseq	r0, r6, r7, lsl r4
    2314:	000c4600 	andeq	r4, ip, r0, lsl #12
    2318:	0004e700 	andeq	lr, r4, r0, lsl #14
    231c:	50011800 	andpl	r1, r1, r0, lsl #16
    2320:	a6e40305 	strbtge	r0, [r4], r5, lsl #6
    2324:	01180000 	tsteq	r8, r0
    2328:	44030551 	strmi	r0, [r3], #-1361	; 0xfffffaaf
    232c:	180000a6 	stmdane	r0, {r1, r2, r5, r7}
    2330:	03055201 	movweq	r5, #20993	; 0x5201
    2334:	0000a79c 	muleq	r0, ip, r7
    2338:	02530118 	subseq	r0, r3, #6
    233c:	0218b608 	andseq	fp, r8, #8, 12	; 0x800000
    2340:	7602007d 			; <UNDEFINED> instruction: 0x7602007d
    2344:	08190000 	ldmdaeq	r9, {}	; <UNPREDICTABLE>
    2348:	76000096 			; <UNDEFINED> instruction: 0x76000096
    234c:	0000000c 	andeq	r0, r0, ip
    2350:	0009e31a 	andeq	lr, r9, sl, lsl r3
    2354:	0090b800 	addseq	fp, r0, r0, lsl #16
    2358:	50000400 	andpl	r0, r0, r0, lsl #8
    235c:	01000001 	tsteq	r0, r1
    2360:	05150a94 	ldreq	r0, [r5, #-2708]	; 0xfffff56c
    2364:	f41b0000 			; <UNDEFINED> instruction: 0xf41b0000
    2368:	33000009 	movwcc	r0, #9
    236c:	2f000011 	svccs	0x00000011
    2370:	00000011 	andeq	r0, r0, r1, lsl r0
    2374:	0008951a 	andeq	r9, r8, sl, lsl r5
    2378:	0092a000 	addseq	sl, r2, r0
    237c:	70000100 	andvc	r0, r0, r0, lsl #2
    2380:	01000001 	tsteq	r0, r1
    2384:	064b09dc 			; <UNDEFINED> instruction: 0x064b09dc
    2388:	be1b0000 	cdplt	0, 1, cr0, cr11, cr0, {0}
    238c:	61000008 	tstvs	r0, r8
    2390:	5b000011 	blpl	23dc <__code_start__-0x5c24>
    2394:	1b000011 	blne	23e0 <__code_start__-0x5c20>
    2398:	000008e0 	andeq	r0, r0, r0, ror #17
    239c:	00001196 	muleq	r0, r6, r1
    23a0:	00001190 	muleq	r0, r0, r1
    23a4:	0008d41b 	andeq	sp, r8, fp, lsl r4
    23a8:	0011c800 	andseq	ip, r1, r0, lsl #16
    23ac:	0011c200 	andseq	ip, r1, r0, lsl #4
    23b0:	08c81c00 	stmiaeq	r8, {sl, fp, ip}^
    23b4:	b21b0000 	andslt	r0, fp, #0, 0
    23b8:	f9000008 			; <UNDEFINED> instruction: 0xf9000008
    23bc:	f1000011 	cps	#17
    23c0:	1b000011 	blne	240c <__code_start__-0x5bf4>
    23c4:	000008a6 	andeq	r0, r0, r6, lsr #17
    23c8:	0000123c 	andeq	r1, r0, ip, lsr r2
    23cc:	00001236 	andeq	r1, r0, r6, lsr r2
    23d0:	00017013 	andeq	r7, r1, r3, lsl r0
    23d4:	08ec1d00 	stmiaeq	ip!, {r8, sl, fp, ip}^
    23d8:	91030000 	mrsls	r0, (UNDEF: 3)
    23dc:	f81e7ed8 			; <UNDEFINED> instruction: 0xf81e7ed8
    23e0:	76000008 	strvc	r0, [r0], -r8
    23e4:	68000012 	stmdavs	r0, {r1, r4}
    23e8:	1f000012 	svcne	0x00000012
    23ec:	00000902 	andeq	r0, r0, r2, lsl #18
    23f0:	0009a31a 	andeq	sl, r9, sl, lsl r3
    23f4:	0092ac00 	addseq	sl, r2, r0, lsl #24
    23f8:	a0000400 	andge	r0, r0, r0, lsl #8
    23fc:	01000001 	tsteq	r0, r1
    2400:	05e2097c 	strbeq	r0, [r2, #2428]!	; 0x97c
    2404:	ca1b0000 	bgt	6c240c <__bss_end__+0x6b761c>
    2408:	e0000009 	and	r0, r0, r9
    240c:	da000012 	ble	245c <__code_start__-0x5ba4>
    2410:	1b000012 	blne	2460 <__code_start__-0x5ba0>
    2414:	000009be 			; <UNDEFINED> instruction: 0x000009be
    2418:	00001315 	andeq	r1, r0, r5, lsl r3
    241c:	00001309 	andeq	r1, r0, r9, lsl #6
    2420:	0009b41b 	andeq	fp, r9, fp, lsl r4
    2424:	00137b00 	andseq	r7, r3, r0, lsl #22
    2428:	00136b00 	andseq	r6, r3, r0, lsl #22
    242c:	01a01300 	lsleq	r1, r0, #6
    2430:	d61e0000 	ldrle	r0, [lr], -r0
    2434:	f8000009 			; <UNDEFINED> instruction: 0xf8000009
    2438:	ea000013 	b	248c <__code_start__-0x5b74>
    243c:	00000013 	andeq	r0, r0, r3, lsl r0
    2440:	094f2000 	stmdbeq	pc, {sp}^	; <UNPREDICTABLE>
    2444:	93740000 	cmnls	r4, #0, 0
    2448:	00020000 	andeq	r0, r2, r0
    244c:	000001d0 	ldrdeq	r0, [r0], -r0	; <UNPREDICTABLE>
    2450:	1b097c01 	blne	26145c <__bss_end__+0x25666c>
    2454:	00000980 	andeq	r0, r0, r0, lsl #19
    2458:	00001458 	andeq	r1, r0, r8, asr r4
    245c:	00001452 	andeq	r1, r0, r2, asr r4
    2460:	0009761b 	andeq	r7, r9, fp, lsl r6
    2464:	00148e00 	andseq	r8, r4, r0, lsl #28
    2468:	00148400 	andseq	r8, r4, r0, lsl #8
    246c:	096c1b00 	stmdbeq	ip!, {r8, r9, fp, ip}^
    2470:	14dd0000 	ldrbne	r0, [sp], #0
    2474:	14d90000 	ldrbne	r0, [r9], #0
    2478:	601b0000 	andsvs	r0, fp, r0
    247c:	0d000009 	stceq	0, cr0, [r0, #-36]	; 0xffffffdc
    2480:	ff000015 			; <UNDEFINED> instruction: 0xff000015
    2484:	13000014 	movwne	r0, #20
    2488:	000001d0 	ldrdeq	r0, [r0], -r0	; <UNPREDICTABLE>
    248c:	00098c1e 	andeq	r8, r9, lr, lsl ip
    2490:	00157200 	andseq	r7, r5, r0, lsl #4
    2494:	00157000 	andseq	r7, r5, r0
    2498:	09981e00 	ldmibeq	r8, {r9, sl, fp, ip}
    249c:	158c0000 	strne	r0, [ip]
    24a0:	15860000 	strne	r0, [r6]
    24a4:	00000000 	andeq	r0, r0, r0
    24a8:	951a0000 	ldrls	r0, [sl, #-0]
    24ac:	b0000008 	andlt	r0, r0, r8
    24b0:	00000093 	muleq	r0, r3, r0
    24b4:	00020000 	andeq	r0, r2, r0
    24b8:	09d60100 	ldmibeq	r6, {r8}^
    24bc:	00000789 	andeq	r0, r0, r9, lsl #15
    24c0:	0008be1b 	andeq	fp, r8, fp, lsl lr
    24c4:	0015bf00 	andseq	fp, r5, r0, lsl #30
    24c8:	0015bb00 	andseq	fp, r5, r0, lsl #22
    24cc:	08e01b00 	stmiaeq	r0!, {r8, r9, fp, ip}^
    24d0:	15e50000 	strbne	r0, [r5, #0]!
    24d4:	15e10000 	strbne	r0, [r1, #0]!
    24d8:	d41b0000 	ldrle	r0, [fp], #-0
    24dc:	09000008 	stmdbeq	r0, {r3}
    24e0:	05000016 	streq	r0, [r0, #-22]	; 0xffffffea
    24e4:	1c000016 	stcne	0, cr0, [r0], {22}
    24e8:	000008c8 	andeq	r0, r0, r8, asr #17
    24ec:	0008b21b 	andeq	fp, r8, fp, lsl r2
    24f0:	00162d00 	andseq	r2, r6, r0, lsl #26
    24f4:	00162700 	andseq	r2, r6, r0, lsl #14
    24f8:	08a61b00 	stmiaeq	r6!, {r8, r9, fp, ip}
    24fc:	16600000 	strbtne	r0, [r0], -r0
    2500:	165c0000 	ldrbne	r0, [ip], -r0
    2504:	00130000 	andseq	r0, r3, r0
    2508:	1d000002 	stcne	0, cr0, [r0, #-8]
    250c:	000008ec 	andeq	r0, r0, ip, ror #17
    2510:	7ed89103 	atnvce	f1, f3
    2514:	0008f81e 	andeq	pc, r8, lr, lsl r8	; <UNPREDICTABLE>
    2518:	00168a00 	andseq	r8, r6, r0, lsl #20
    251c:	00168000 	andseq	r8, r6, r0
    2520:	09021e00 	stmdbeq	r2, {r9, sl, fp, ip}
    2524:	16cf0000 	strbne	r0, [pc], r0
    2528:	16cb0000 	strbne	r0, [fp], r0
    252c:	a31a0000 	tstge	sl, #0, 0
    2530:	cc000009 	stcgt	0, cr0, [r0], {9}
    2534:	03000093 	movweq	r0, #147	; 0x93
    2538:	00022000 	andeq	r2, r2, r0
    253c:	097c0100 	ldmdbeq	ip!, {r8}^
    2540:	00000720 	andeq	r0, r0, r0, lsr #14
    2544:	0009ca1b 	andeq	ip, r9, fp, lsl sl
    2548:	0016f100 	andseq	pc, r6, r0, lsl #2
    254c:	0016ed00 	andseq	lr, r6, r0, lsl #26
    2550:	09be1b00 	ldmibeq	lr!, {r8, r9, fp, ip}
    2554:	17130000 	ldrne	r0, [r3, -r0]
    2558:	170f0000 	strne	r0, [pc, -r0]
    255c:	b41b0000 	ldrlt	r0, [fp], #-0
    2560:	3d000009 	stccc	0, cr0, [r0, #-36]	; 0xffffffdc
    2564:	31000017 	tstcc	r0, r7, lsl r0
    2568:	13000017 	movwne	r0, #23
    256c:	00000220 	andeq	r0, r0, r0, lsr #4
    2570:	0009d61e 	andeq	sp, r9, lr, lsl r6
    2574:	00179900 	andseq	r9, r7, r0, lsl #18
    2578:	00178d00 	andseq	r8, r7, r0, lsl #26
    257c:	20000000 	andcs	r0, r0, r0
    2580:	0000094f 	andeq	r0, r0, pc, asr #18
    2584:	00009454 	andeq	r9, r0, r4, asr r4
    2588:	02480002 	subeq	r0, r8, #2, 0
    258c:	7c010000 	stcvc	0, cr0, [r1], {-0}
    2590:	09801b09 	stmibeq	r0, {r0, r3, r8, r9, fp, ip}
    2594:	17e90000 	strbne	r0, [r9, r0]!
    2598:	17e50000 	strbne	r0, [r5, r0]!
    259c:	761b0000 	ldrvc	r0, [fp], -r0
    25a0:	11000009 	tstne	r0, r9
    25a4:	07000018 	smladeq	r0, r8, r0, r0
    25a8:	1b000018 	blne	2610 <__code_start__-0x59f0>
    25ac:	0000096c 	andeq	r0, r0, ip, ror #18
    25b0:	0000185d 	andeq	r1, r0, sp, asr r8
    25b4:	00001859 	andeq	r1, r0, r9, asr r8
    25b8:	0009601b 	andeq	r6, r9, fp, lsl r0
    25bc:	00188b00 	andseq	r8, r8, r0, lsl #22
    25c0:	00187f00 	andseq	r7, r8, r0, lsl #30
    25c4:	02481300 	subeq	r1, r8, #0, 6
    25c8:	8c1e0000 	ldchi	0, cr0, [lr], {-0}
    25cc:	e5000009 	str	r0, [r0, #-9]
    25d0:	e1000018 	tst	r0, r8, lsl r0
    25d4:	1e000018 	mcrne	0, 0, r0, cr0, cr8, {0}
    25d8:	00000998 	muleq	r0, r8, r9
    25dc:	0000190b 	andeq	r1, r0, fp, lsl #18
    25e0:	00001907 	andeq	r1, r0, r7, lsl #18
    25e4:	00000000 	andeq	r0, r0, r0
    25e8:	00918017 	addseq	r8, r1, r7, lsl r0
    25ec:	000aa400 	andeq	sl, sl, r0, lsl #8
    25f0:	0007af00 	andeq	sl, r7, r0, lsl #30
    25f4:	50011800 	andpl	r1, r1, r0, lsl #16
    25f8:	01184001 	tsteq	r8, r1
    25fc:	d0910351 	addsle	r0, r1, r1, asr r3
    2600:	5301187d 	movwpl	r1, #6269	; 0x187d
    2604:	18007502 	stmdane	r0, {r1, r8, sl, ip, sp, lr}
    2608:	01007d02 	tsteq	r0, r2, lsl #26
    260c:	90170030 	andsls	r0, r7, r0, lsr r0
    2610:	a4000092 	strge	r0, [r0], #-146	; 0xffffff6e
    2614:	cf00000a 	svcgt	0x0000000a
    2618:	18000007 	stmdane	r0, {r0, r1, r2}
    261c:	3a015001 	bcc	56628 <__bss_end__+0x4b838>
    2620:	03510118 	cmpeq	r1, #6
    2624:	187dd091 	ldmdane	sp!, {r0, r4, r7, ip, lr, pc}^
    2628:	75025301 	strvc	r5, [r2, #-769]	; 0xfffffcff
    262c:	74170000 	ldrvc	r0, [r7], #-0
    2630:	46000095 			; <UNDEFINED> instruction: 0x46000095
    2634:	e600000c 	str	r0, [r0], -ip
    2638:	18000007 	stmdane	r0, {r0, r1, r2}
    263c:	03055001 	movweq	r5, #20481	; 0x5001
    2640:	0000a734 	andeq	sl, r0, r4, lsr r7
    2644:	95842100 	strls	r2, [r4, #256]	; 0x100
    2648:	07f80000 	ldrbeq	r0, [r8, r0]!
    264c:	01180000 	tsteq	r8, r0
    2650:	c8910450 	ldmgt	r1, {r4, r6, sl}
    2654:	1700067d 	smlsdxne	r0, sp, r6, r0
    2658:	00009598 	muleq	r0, r8, r5
    265c:	00000c46 	andeq	r0, r0, r6, asr #24
    2660:	00000827 	andeq	r0, r0, r7, lsr #16
    2664:	05500118 	ldrbeq	r0, [r0, #-280]	; 0xfffffee8
    2668:	00a76403 	adceq	r6, r7, r3, lsl #8
    266c:	51011800 	tstpl	r1, r0, lsl #16
    2670:	a6440305 	strbge	r0, [r4], -r5, lsl #6
    2674:	01180000 	tsteq	r8, r0
    2678:	9c030552 	cfstr32ls	mvfx0, [r3], {82}	; 0x52
    267c:	180000a7 	stmdane	r0, {r0, r1, r2, r5, r7}
    2680:	08025301 	stmdaeq	r2, {r0, r8, r9, ip, lr}
    2684:	9c1900e2 	ldcls	0, cr0, [r9], {226}	; 0xe2
    2688:	76000095 			; <UNDEFINED> instruction: 0x76000095
    268c:	1700000c 	strne	r0, [r0, -ip]
    2690:	000095b0 			; <UNDEFINED> instruction: 0x000095b0
    2694:	00000c46 	andeq	r0, r0, r6, asr #24
    2698:	0000085f 	andeq	r0, r0, pc, asr r8
    269c:	05500118 	ldrbeq	r0, [r0, #-280]	; 0xfffffee8
    26a0:	00a70c03 	adceq	r0, r7, r3, lsl #24
    26a4:	51011800 	tstpl	r1, r0, lsl #16
    26a8:	a6440305 	strbge	r0, [r4], -r5, lsl #6
    26ac:	01180000 	tsteq	r8, r0
    26b0:	9c030552 	cfstr32ls	mvfx0, [r3], {82}	; 0x52
    26b4:	180000a7 	stmdane	r0, {r0, r1, r2, r5, r7}
    26b8:	08025301 	stmdaeq	r2, {r0, r8, r9, ip, lr}
    26bc:	b41900be 	ldrlt	r0, [r9], #-190	; 0xffffff42
    26c0:	76000095 			; <UNDEFINED> instruction: 0x76000095
    26c4:	0000000c 	andeq	r0, r0, ip
    26c8:	b9040800 	stmdblt	r4, {fp}
    26cc:	22000000 	andcs	r0, r0, #0, 0
    26d0:	000000c0 	andeq	r0, r0, r0, asr #1
    26d4:	00000880 	andeq	r0, r0, r0, lsl #17
    26d8:	00002c23 	andeq	r2, r0, r3, lsr #24
    26dc:	09000900 	stmdbeq	r0, {r8, fp}
    26e0:	00000870 	andeq	r0, r0, r0, ror r8
    26e4:	0000b922 	andeq	fp, r0, r2, lsr #18
    26e8:	00089500 	andeq	r9, r8, r0, lsl #10
    26ec:	002c2300 	eoreq	r2, ip, r0, lsl #6
    26f0:	007f0000 	rsbseq	r0, pc, r0
    26f4:	00062124 	andeq	r2, r6, r4, lsr #2
    26f8:	01490100 	mrseq	r0, (UNDEF: 89)
    26fc:	0000086a 	andeq	r0, r0, sl, ror #16
    2700:	00092a01 	andeq	r2, r9, r1, lsl #20
    2704:	030e2500 	movweq	r2, #58624	; 0xe500
    2708:	49010000 	stmdbmi	r1, {}	; <UNPREDICTABLE>
    270c:	00002c0f 	andeq	r2, r0, pc, lsl #24
    2710:	73642600 	cmnvc	r4, #0, 12
    2714:	49010074 	stmdbmi	r1, {r2, r4, r5, r6}
    2718:	00086a1b 	andeq	r6, r8, fp, lsl sl
    271c:	006e2600 	rsbeq	r2, lr, r0, lsl #12
    2720:	33244901 			; <UNDEFINED> instruction: 0x33244901
    2724:	26000000 	strcs	r0, [r0], -r0
    2728:	006c6176 	rsbeq	r6, ip, r6, ror r1
    272c:	332b4901 			; <UNDEFINED> instruction: 0x332b4901
    2730:	25000000 	strcs	r0, [r0, #-0]
    2734:	000005ca 	andeq	r0, r0, sl, asr #11
    2738:	33344901 	teqcc	r4, #16384	; 0x4000
    273c:	25000000 	strcs	r0, [r0, #-0]
    2740:	00000657 	andeq	r0, r0, r7, asr r6
    2744:	333f4901 	teqcc	pc, #16384	; 0x4000
    2748:	27000000 	strcs	r0, [r0, -r0]
    274c:	00667562 	rsbeq	r7, r6, r2, ror #10
    2750:	2a074e01 	bcs	1d5f5c <__bss_end__+0x1cb16c>
    2754:	27000009 	strcs	r0, [r0, -r9]
    2758:	4e010070 	mcrmi	0, 0, r0, cr1, cr0, {3}
    275c:	00086a11 	andeq	r6, r8, r1, lsl sl
    2760:	00752700 	rsbseq	r2, r5, r0, lsl #14
    2764:	2c0b4f01 	stccs	15, cr4, [fp], {1}
    2768:	12000000 	andne	r0, r0, #0, 0
    276c:	00000084 	andeq	r0, r0, r4, lsl #1
    2770:	0000094a 	andeq	r0, r0, sl, asr #18
    2774:	a7840305 	strge	r0, [r4, r5, lsl #6]
    2778:	29280000 	stmdbcs	r8!, {}	; <UNPREDICTABLE>
    277c:	0000060e 	andeq	r0, r0, lr, lsl #12
    2780:	2c0d5401 	cfstrscs	mvf5, [sp], {1}
    2784:	00000000 	andeq	r0, r0, r0
    2788:	00b92200 	adcseq	r2, r9, r0, lsl #4
    278c:	093a0000 	ldmdbeq	sl!, {}	; <UNPREDICTABLE>
    2790:	2c230000 	stccs	0, cr0, [r3], #-0
    2794:	3f000000 	svccc	0x00000000
    2798:	00c02200 	sbceq	r2, r0, r0, lsl #4
    279c:	094a0000 	stmdbeq	sl, {}^	; <UNPREDICTABLE>
    27a0:	2c230000 	stccs	0, cr0, [r3], #-0
    27a4:	04000000 	streq	r0, [r0], #-0
    27a8:	093a0900 	ldmdbeq	sl!, {r8, fp}
    27ac:	26240000 	strtcs	r0, [r4], -r0
    27b0:	01000006 	tsteq	r0, r6
    27b4:	086a0e38 	stmdaeq	sl!, {r3, r4, r5, r9, sl, fp}^
    27b8:	a3010000 	movwge	r0, #4096	; 0x1000
    27bc:	26000009 	strcs	r0, [r0], -r9
    27c0:	00747364 	rsbseq	r7, r4, r4, ror #6
    27c4:	6a1c3801 	bvs	7107d0 <__bss_end__+0x7059e0>
    27c8:	26000008 	strcs	r0, [r0], -r8
    27cc:	3801006e 	stmdacc	r1, {r1, r2, r3, r5, r6}
    27d0:	00003325 	andeq	r3, r0, r5, lsr #6
    27d4:	00702600 	rsbseq	r2, r0, r0, lsl #12
    27d8:	6a2e3801 	bvs	b907e4 <__bss_end__+0xb859f4>
    27dc:	25000008 	strcs	r0, [r0, #-8]
    27e0:	000009f1 	strdeq	r0, [r0], -r1
    27e4:	6a373801 	bvs	dd07f0 <__bss_end__+0xdc5a00>
    27e8:	27000008 	strcs	r0, [r0, -r8]
    27ec:	006e656c 	rsbeq	r6, lr, ip, ror #10
    27f0:	33063a01 	movwcc	r3, #27137	; 0x6a01
    27f4:	27000000 	strcs	r0, [r0, -r0]
    27f8:	3e010073 	mcrcc	0, 0, r0, cr1, cr3, {3}
    27fc:	00086a08 	andeq	r6, r8, r8, lsl #20
    2800:	702a0000 	eorvc	r0, sl, r0
    2804:	01006461 	tsteq	r0, r1, ror #8
    2808:	086a0e2e 	stmdaeq	sl!, {r1, r2, r3, r5, r9, sl, fp}^
    280c:	e3010000 	movw	r0, #4096	; 0x1000
    2810:	26000009 	strcs	r0, [r0], -r9
    2814:	2e010070 	mcrcs	0, 0, r0, cr1, cr0, {3}
    2818:	00086a18 	andeq	r6, r8, r8, lsl sl
    281c:	030e2500 	movweq	r2, #58624	; 0xe500
    2820:	2e010000 	cdpcs	0, 0, cr0, cr1, cr0, {0}
    2824:	00086a22 	andeq	r6, r8, r2, lsr #20
    2828:	05ca2500 	strbeq	r2, [sl, #1280]	; 0x500
    282c:	2e010000 	cdpcs	0, 0, cr0, cr1, cr0, {0}
    2830:	0000332c 	andeq	r3, r0, ip, lsr #6
    2834:	656c2700 	strbvs	r2, [ip, #-1792]!	; 0xfffff900
    2838:	2f01006e 	svccs	0x0001006e
    283c:	00003306 	andeq	r3, r0, r6, lsl #6
    2840:	97240000 	strls	r0, [r4, -r0]!
    2844:	01000005 	tsteq	r0, r5
    2848:	00330c27 	eorseq	r0, r3, r7, lsr #24
    284c:	ff010000 			; <UNDEFINED> instruction: 0xff010000
    2850:	26000009 	strcs	r0, [r0], -r9
    2854:	27010063 	strcs	r0, [r1, -r3, rrx]
    2858:	00003318 	andeq	r3, r0, r8, lsl r3
    285c:	e72b0000 	str	r0, [fp, -r0]!
    2860:	01000005 	tsteq	r0, r5
    2864:	8fcc061f 	svchi	0x00cc061f
    2868:	00600000 	rsbeq	r0, r0, r0
    286c:	9c010000 	stcls	0, cr0, [r1], {-0}
    2870:	00000a8f 	andeq	r0, r0, pc, lsl #21
    2874:	0005d00f 	andeq	sp, r5, pc
    2878:	1b1f0100 	blne	7c2c80 <__bss_end__+0x7b7e90>
    287c:	0000009e 	muleq	r0, lr, r0
    2880:	00001930 	andeq	r1, r0, r0, lsr r9
    2884:	0000192c 	andeq	r1, r0, ip, lsr #18
    2888:	0006350f 	andeq	r3, r6, pc, lsl #10
    288c:	301f0100 	andscc	r0, pc, r0, lsl #2
    2890:	000000d1 	ldrdeq	r0, [r0], -r1
    2894:	00001955 	andeq	r1, r0, r5, asr r9
    2898:	00001951 	andeq	r1, r0, r1, asr r9
    289c:	00008412 	andeq	r8, r0, r2, lsl r4
    28a0:	000a9f00 	andeq	r9, sl, r0, lsl #30
    28a4:	8c030500 	cfstr32hi	mvfx0, [r3], {-0}
    28a8:	170000a7 	strne	r0, [r0, -r7, lsr #1]
    28ac:	00009010 	andeq	r9, r0, r0, lsl r0
    28b0:	00000c46 	andeq	r0, r0, r6, asr #24
    28b4:	00000a85 	andeq	r0, r0, r5, lsl #21
    28b8:	05500118 	ldrbeq	r0, [r0, #-280]	; 0xfffffee8
    28bc:	00a18403 	adceq	r8, r1, r3, lsl #8
    28c0:	51011800 	tstpl	r1, r0, lsl #16
    28c4:	a6440305 	strbge	r0, [r4], -r5, lsl #6
    28c8:	01180000 	tsteq	r8, r0
    28cc:	8c030552 	cfstr32hi	mvfx0, [r3], {82}	; 0x52
    28d0:	180000a7 	stmdane	r0, {r0, r1, r2, r5, r7}
    28d4:	08025301 	stmdaeq	r2, {r0, r8, r9, ip, lr}
    28d8:	7d021820 	stcvc	8, cr1, [r2, #-128]	; 0xffffff80
    28dc:	7c030500 	cfstr32vc	mvfx0, [r3], {-0}
    28e0:	000000a6 	andeq	r0, r0, r6, lsr #1
    28e4:	00901419 	addseq	r1, r0, r9, lsl r4
    28e8:	000c7600 	andeq	r7, ip, r0, lsl #12
    28ec:	c0220000 	eorgt	r0, r2, r0
    28f0:	9f000000 	svcls	0x00000000
    28f4:	2300000a 	movwcs	r0, #10
    28f8:	0000002c 	andeq	r0, r0, ip, lsr #32
    28fc:	8f09000e 	svchi	0x0009000e
    2900:	2c00000a 	stccs	0, cr0, [r0], {10}
    2904:	00000895 	muleq	r0, r5, r8
    2908:	00008ca4 	andeq	r8, r0, r4, lsr #25
    290c:	00000328 	andeq	r0, r0, r8, lsr #6
    2910:	0c3a9c01 	ldceq	12, cr9, [sl], #-4
    2914:	a61b0000 	ldrge	r0, [fp], -r0
    2918:	8e000008 	cdphi	0, 0, cr0, cr0, cr8, {0}
    291c:	76000019 			; <UNDEFINED> instruction: 0x76000019
    2920:	1b000019 	blne	298c <__code_start__-0x5674>
    2924:	000008b2 			; <UNDEFINED> instruction: 0x000008b2
    2928:	00001a38 	andeq	r1, r0, r8, lsr sl
    292c:	00001a30 	andeq	r1, r0, r0, lsr sl
    2930:	0008c81b 	andeq	ip, r8, fp, lsl r8
    2934:	001a8f00 	andseq	r8, sl, r0, lsl #30
    2938:	001a6f00 	andseq	r6, sl, r0, lsl #30
    293c:	08d41b00 	ldmeq	r4, {r8, r9, fp, ip}^
    2940:	1b650000 	blne	1942948 <__bss_end__+0x1937b58>
    2944:	1b570000 	blne	15c294c <__bss_end__+0x15b7b5c>
    2948:	e02d0000 	eor	r0, sp, r0
    294c:	02000008 	andeq	r0, r0, #8, 0
    2950:	ec1d0091 	ldc	0, cr0, [sp], {145}	; 0x91
    2954:	03000008 	movweq	r0, #8
    2958:	1e7fa891 	mrcne	8, 3, sl, cr15, cr1, {4}
    295c:	000008f8 	strdeq	r0, [r0], -r8
    2960:	00001bf9 	strdeq	r1, [r0], -r9
    2964:	00001bc5 	andeq	r1, r0, r5, asr #23
    2968:	0009021e 	andeq	r0, r9, lr, lsl r2
    296c:	001d6000 	andseq	r6, sp, r0
    2970:	001d3e00 	andseq	r3, sp, r0, lsl #28
    2974:	08be2e00 	ldmeq	lr!, {r9, sl, fp, sp}
    2978:	1a800000 	bne	fe002980 <__bss_end__+0xfdff7b90>
    297c:	000009a3 	andeq	r0, r0, r3, lsr #19
    2980:	00008d48 	andeq	r8, r0, r8, asr #26
    2984:	00980004 	addseq	r0, r8, r4
    2988:	7c010000 	stcvc	0, cr0, [r1], {-0}
    298c:	000b6d09 	andeq	r6, fp, r9, lsl #26
    2990:	09ca1b00 	stmibeq	sl, {r8, r9, fp, ip}^
    2994:	1e480000 	cdpne	0, 4, cr0, cr8, cr0, {0}
    2998:	1e3e0000 	cdpne	0, 3, cr0, cr14, cr0, {0}
    299c:	be1b0000 	cdplt	0, 1, cr0, cr11, cr0, {0}
    29a0:	9c000009 	stcls	0, cr0, [r0], {9}
    29a4:	8c00001e 	stchi	0, cr0, [r0], {30}
    29a8:	1b00001e 	blne	2a28 <__code_start__-0x55d8>
    29ac:	000009b4 			; <UNDEFINED> instruction: 0x000009b4
    29b0:	00001f1c 	andeq	r1, r0, ip, lsl pc
    29b4:	00001f08 	andeq	r1, r0, r8, lsl #30
    29b8:	00009813 	andeq	r9, r0, r3, lsl r8
    29bc:	09d61e00 	ldmibeq	r6, {r9, sl, fp, ip}^
    29c0:	1fae0000 	svcne	0x00ae0000
    29c4:	1f9e0000 	svcne	0x009e0000
    29c8:	00000000 	andeq	r0, r0, r0
    29cc:	00094f1a 	andeq	r4, r9, sl, lsl pc
    29d0:	008e0000 	addeq	r0, lr, r0
    29d4:	e0000200 	and	r0, r0, r0, lsl #4
    29d8:	01000000 	mrseq	r0, (UNDEF: 0)
    29dc:	0bd8097c 	bleq	ff604fd4 <__bss_end__+0xff5fa1e4>
    29e0:	801b0000 	andshi	r0, fp, r0
    29e4:	1a000009 	bne	2a10 <__code_start__-0x55f0>
    29e8:	12000020 	andne	r0, r0, #32, 0
    29ec:	1b000020 	blne	2a74 <__code_start__-0x558c>
    29f0:	00000976 	andeq	r0, r0, r6, ror r9
    29f4:	00002059 	andeq	r2, r0, r9, asr r0
    29f8:	00002051 	andeq	r2, r0, r1, asr r0
    29fc:	00096c1b 	andeq	r6, r9, fp, lsl ip
    2a00:	00209800 	eoreq	r9, r0, r0, lsl #16
    2a04:	00209400 	eoreq	r9, r0, r0, lsl #8
    2a08:	09601b00 	stmdbeq	r0!, {r8, r9, fp, ip}^
    2a0c:	20c80000 	sbccs	r0, r8, r0
    2a10:	20ba0000 	adcscs	r0, sl, r0
    2a14:	e0130000 	ands	r0, r3, r0
    2a18:	1e000000 	cdpne	0, 0, cr0, cr0, cr0, {0}
    2a1c:	0000098c 	andeq	r0, r0, ip, lsl #19
    2a20:	0000212d 	andeq	r2, r0, sp, lsr #2
    2a24:	00002127 	andeq	r2, r0, r7, lsr #2
    2a28:	0009981e 	andeq	r9, r9, lr, lsl r8
    2a2c:	00215f00 	eoreq	r5, r1, r0, lsl #30
    2a30:	00215b00 	eoreq	r5, r1, r0, lsl #22
    2a34:	2f000000 	svccs	0x00000000
    2a38:	0000091b 	andeq	r0, r0, fp, lsl r9
    2a3c:	00008eb8 			; <UNDEFINED> instruction: 0x00008eb8
    2a40:	00000060 	andeq	r0, r0, r0, rrx
    2a44:	00000bf7 	strdeq	r0, [r0], -r7
    2a48:	00091c1e 	andeq	r1, r9, lr, lsl ip
    2a4c:	00218100 	eoreq	r8, r1, r0, lsl #2
    2a50:	00217d00 	eoreq	r7, r1, r0, lsl #26
    2a54:	8c170000 	ldchi	0, cr0, [r7], {-0}
    2a58:	4600008f 	strmi	r0, [r0], -pc, lsl #1
    2a5c:	3000000c 	andcc	r0, r0, ip
    2a60:	1800000c 	stmdane	r0, {r2, r3}
    2a64:	03055001 	movweq	r5, #20481	; 0x5001
    2a68:	0000a184 	andeq	sl, r0, r4, lsl #3
    2a6c:	05510118 	ldrbeq	r0, [r1, #-280]	; 0xfffffee8
    2a70:	00a64403 	adceq	r4, r6, r3, lsl #8
    2a74:	52011800 	andpl	r1, r1, #0, 16
    2a78:	a7840305 	strge	r0, [r4, r5, lsl #6]
    2a7c:	01180000 	tsteq	r8, r0
    2a80:	79080253 	stmdbvc	r8, {r0, r1, r4, r6, r9}
    2a84:	007d0218 	rsbseq	r0, sp, r8, lsl r2
    2a88:	a5080305 	strge	r0, [r8, #-773]	; 0xfffffcfb
    2a8c:	19000000 	stmdbne	r0, {}	; <UNPREDICTABLE>
    2a90:	00008f90 	muleq	r0, r0, pc	; <UNPREDICTABLE>
    2a94:	00000c76 	andeq	r0, r0, r6, ror ip
    2a98:	064f3000 	strbeq	r3, [pc], -r0
    2a9c:	064f0000 	strbeq	r0, [pc], -r0
    2aa0:	eb030000 	bl	c2aa8 <__bss_end__+0xb7cb8>
    2aa4:	05463005 	strbeq	r3, [r6, #-5]
    2aa8:	05460000 	strbeq	r0, [r6, #-0]
    2aac:	28030000 	stmdacs	r3, {}	; <UNPREDICTABLE>
    2ab0:	06003006 	streq	r3, [r0], -r6
    2ab4:	06000000 	streq	r0, [r0], -r0
    2ab8:	ee030000 	cdp	0, 0, cr0, cr3, cr0, {0}
    2abc:	062e3007 	strteq	r3, [lr], -r7
    2ac0:	062e0000 	strteq	r0, [lr], -r0
    2ac4:	ea030000 	b	c2acc <__bss_end__+0xb7cdc>
    2ac8:	06073005 	streq	r3, [r7], -r5
    2acc:	06070000 	streq	r0, [r7], -r0
    2ad0:	ed030000 	stc	0, cr0, [r3, #-0]
    2ad4:	00523007 	subseq	r3, r2, r7
    2ad8:	00520000 	subseq	r0, r2, r0
    2adc:	6e030000 	cdpvs	0, 0, cr0, cr3, cr0, {0}
    2ae0:	012f0006 			; <UNDEFINED> instruction: 0x012f0006
    2ae4:	00040000 	andeq	r0, r4, r0
    2ae8:	00000dfe 	strdeq	r0, [r0], -lr
    2aec:	04640104 	strbteq	r0, [r4], #-260	; 0xfffffefc
    2af0:	740c0000 	strvc	r0, [ip], #-0
    2af4:	1c000006 	stcne	0, cr0, [r0], {6}
    2af8:	58000005 	stmdapl	r0, {r0, r2}
    2afc:	2c000096 	stccs	0, cr0, [r0], {150}	; 0x96
    2b00:	b9000000 	stmdblt	r0, {}	; <UNPREDICTABLE>
    2b04:	02000017 	andeq	r0, r0, #23, 0
    2b08:	6e690504 	cdpvs	5, 6, cr0, cr9, cr4, {0}
    2b0c:	04030074 	streq	r0, [r3], #-116	; 0xffffff8c
    2b10:	0000a807 	andeq	sl, r0, r7, lsl #16
    2b14:	06010300 	streq	r0, [r1], -r0, lsl #6
    2b18:	00000046 	andeq	r0, r0, r6, asr #32
    2b1c:	f5050203 			; <UNDEFINED> instruction: 0xf5050203
    2b20:	03000000 	movweq	r0, #0
    2b24:	00ba0504 	adcseq	r0, sl, r4, lsl #10
    2b28:	08030000 	stmdaeq	r3, {}	; <UNPREDICTABLE>
    2b2c:	0000b505 	andeq	fp, r0, r5, lsl #10
    2b30:	08010300 	stmdaeq	r1, {r8, r9}
    2b34:	00000044 	andeq	r0, r0, r4, asr #32
    2b38:	5f070203 	svcpl	0x00070203
    2b3c:	03000000 	movweq	r0, #0
    2b40:	00a30704 	adceq	r0, r3, r4, lsl #14
    2b44:	08030000 	stmdaeq	r3, {}	; <UNPREDICTABLE>
    2b48:	00009e07 	andeq	r9, r0, r7, lsl #28
    2b4c:	00250400 	eoreq	r0, r5, r0, lsl #8
    2b50:	007a0000 	rsbseq	r0, sl, r0
    2b54:	25050000 	strcs	r0, [r5, #-0]
    2b58:	00000000 	andeq	r0, r0, r0
    2b5c:	00010906 	andeq	r0, r1, r6, lsl #18
    2b60:	0e1c0200 	cdpeq	2, 1, cr0, cr12, cr0, {0}
    2b64:	00000086 	andeq	r0, r0, r6, lsl #1
    2b68:	006b0407 	rsbeq	r0, fp, r7, lsl #8
    2b6c:	25040000 	strcs	r0, [r4, #-0]
    2b70:	9b000000 	blls	2b78 <__code_start__-0x5488>
    2b74:	05000000 	streq	r0, [r0, #-0]
    2b78:	0000009b 	muleq	r0, fp, r0
    2b7c:	a8040700 	stmdage	r4, {r8, r9, sl}
    2b80:	03000000 	movweq	r0, #0
    2b84:	004d0801 	subeq	r0, sp, r1, lsl #16
    2b88:	a1080000 	mrsge	r0, (UNDEF: 8)
    2b8c:	06000000 	streq	r0, [r0], -r0
    2b90:	00000584 	andeq	r0, r0, r4, lsl #11
    2b94:	b90e2102 	stmdblt	lr, {r1, r8, sp}
    2b98:	07000000 	streq	r0, [r0, -r0]
    2b9c:	00008c04 	andeq	r8, r0, r4, lsl #24
    2ba0:	00520900 	subseq	r0, r2, r0, lsl #18
    2ba4:	04010000 	streq	r0, [r1], #-0
    2ba8:	00965806 	addseq	r5, r6, r6, lsl #16
    2bac:	00002c00 	andeq	r2, r0, r0, lsl #24
    2bb0:	0e9c0100 	fmleqe	f0, f4, f0
    2bb4:	0a000001 	beq	2bc0 <__code_start__-0x5440>
    2bb8:	0000966c 	andeq	r9, r0, ip, ror #12
    2bbc:	000000e8 	andeq	r0, r0, r8, ror #1
    2bc0:	0550010b 	ldrbeq	r0, [r0, #-267]	; 0xfffffef5
    2bc4:	00a7a803 	adceq	sl, r7, r3, lsl #16
    2bc8:	700c0000 	andvc	r0, ip, r0
    2bcc:	0e000096 	mcreq	0, 0, r0, cr0, cr6, {4}
    2bd0:	0d000001 	stceq	0, cr0, [r0, #-4]
    2bd4:	00009678 	andeq	r9, r0, r8, ror r6
    2bd8:	0000011a 	andeq	r0, r0, sl, lsl r1
    2bdc:	00000104 	andeq	r0, r0, r4, lsl #2
    2be0:	0150010b 	cmpeq	r0, fp, lsl #2
    2be4:	7c0c003a 	stcvc	0, cr0, [ip], {58}	; 0x3a
    2be8:	26000096 			; <UNDEFINED> instruction: 0x26000096
    2bec:	00000001 	andeq	r0, r0, r1
    2bf0:	00068f0e 	andeq	r8, r6, lr, lsl #30
    2bf4:	00068f00 	andeq	r8, r6, r0, lsl #30
    2bf8:	064d0200 	strbeq	r0, [sp], -r0, lsl #4
    2bfc:	00066b0e 	andeq	r6, r6, lr, lsl #22
    2c00:	00066b00 	andeq	r6, r6, r0, lsl #22
    2c04:	06580200 	ldrbeq	r0, [r8], -r0, lsl #4
    2c08:	0006600e 	andeq	r6, r6, lr
    2c0c:	00066000 	andeq	r6, r6, r0
    2c10:	066b0200 	strbteq	r0, [fp], -r0, lsl #4
    2c14:	00019000 	andeq	r9, r1, r0
    2c18:	be000400 	cfcpyslt	mvf0, mvf0
    2c1c:	0400000e 	streq	r0, [r0], #-14
    2c20:	00046401 	andeq	r6, r4, r1, lsl #8
    2c24:	06c50c00 	strbeq	r0, [r5], r0, lsl #24
    2c28:	051c0000 	ldreq	r0, [ip, #-0]
    2c2c:	96840000 	strls	r0, [r4], r0
    2c30:	00f80000 	rscseq	r0, r8, r0
    2c34:	18440000 	stmdane	r4, {}^	; <UNPREDICTABLE>
    2c38:	04020000 	streq	r0, [r2], #-0
    2c3c:	746e6905 	strbtvc	r6, [lr], #-2309	; 0xfffff6fb
    2c40:	07040300 	streq	r0, [r4, -r0, lsl #6]
    2c44:	000000a8 	andeq	r0, r0, r8, lsr #1
    2c48:	46060103 	strmi	r0, [r6], -r3, lsl #2
    2c4c:	03000000 	movweq	r0, #0
    2c50:	00f50502 	rscseq	r0, r5, r2, lsl #10
    2c54:	04030000 	streq	r0, [r3], #-0
    2c58:	0000ba05 	andeq	fp, r0, r5, lsl #20
    2c5c:	05080300 	streq	r0, [r8, #-768]	; 0xfffffd00
    2c60:	000000b5 	strheq	r0, [r0], -r5
    2c64:	44080103 	strmi	r0, [r8], #-259	; 0xfffffefd
    2c68:	03000000 	movweq	r0, #0
    2c6c:	005f0702 	subseq	r0, pc, r2, lsl #14
    2c70:	04030000 	streq	r0, [r3], #-0
    2c74:	0000a307 	andeq	sl, r0, r7, lsl #6
    2c78:	07080300 	streq	r0, [r8, -r0, lsl #6]
    2c7c:	0000009e 	muleq	r0, lr, r0
    2c80:	00002504 	andeq	r2, r0, r4, lsl #10
    2c84:	00007a00 	andeq	r7, r0, r0, lsl #20
    2c88:	00250500 	eoreq	r0, r5, r0, lsl #10
    2c8c:	06000000 	streq	r0, [r0], -r0
    2c90:	00000109 	andeq	r0, r0, r9, lsl #2
    2c94:	860e1c02 	strhi	r1, [lr], -r2, lsl #24
    2c98:	07000000 	streq	r0, [r0, -r0]
    2c9c:	00006b04 	andeq	r6, r0, r4, lsl #22
    2ca0:	00250400 	eoreq	r0, r5, r0, lsl #8
    2ca4:	009b0000 	addseq	r0, fp, r0
    2ca8:	9b050000 	blls	142cb0 <__bss_end__+0x137ec0>
    2cac:	00000000 	andeq	r0, r0, r0
    2cb0:	00a80407 	adceq	r0, r8, r7, lsl #8
    2cb4:	01030000 	mrseq	r0, (UNDEF: 3)
    2cb8:	00004d08 	andeq	r4, r0, r8, lsl #26
    2cbc:	00a10800 	adceq	r0, r1, r0, lsl #16
    2cc0:	84060000 	strhi	r0, [r6], #-0
    2cc4:	02000005 	andeq	r0, r0, #5, 0
    2cc8:	00b90e21 	adcseq	r0, r9, r1, lsr #28
    2ccc:	04070000 	streq	r0, [r7], #-0
    2cd0:	0000008c 	andeq	r0, r0, ip, lsl #1
    2cd4:	00069d09 	andeq	r9, r6, r9, lsl #26
    2cd8:	06040100 	streq	r0, [r4], -r0, lsl #2
    2cdc:	00009684 	andeq	r9, r0, r4, lsl #13
    2ce0:	000000f8 	strdeq	r0, [r0], -r8
    2ce4:	015b9c01 	cmpeq	fp, r1, lsl #24
    2ce8:	4f060000 	svcmi	0x00060000
    2cec:	01000003 	tsteq	r0, r3
    2cf0:	00251005 	eoreq	r1, r5, r5
    2cf4:	e9060000 	stmdb	r6, {}	; <UNPREDICTABLE>
    2cf8:	01000003 	tsteq	r0, r3
    2cfc:	00251f05 	eoreq	r1, r5, r5, lsl #30
    2d00:	290a0000 	stmdbcs	sl, {}	; <UNPREDICTABLE>
    2d04:	01000000 	mrseq	r0, (UNDEF: 0)
    2d08:	620b0706 	andvs	r0, fp, #1572864	; 0x180000
    2d0c:	01007373 	tsteq	r0, r3, ror r3
    2d10:	015b0a0a 	cmpeq	fp, sl, lsl #20
    2d14:	21b90000 			; <UNDEFINED> instruction: 0x21b90000
    2d18:	21a10000 			; <UNDEFINED> instruction: 0x21a10000
    2d1c:	a50c0000 	strge	r0, [ip, #-0]
    2d20:	01000006 	tsteq	r0, r6
    2d24:	015b0a0b 	cmpeq	fp, fp, lsl #20
    2d28:	5c0d0000 	stcpl	0, cr0, [sp], {-0}
    2d2c:	08000097 	stmdaeq	r0, {r0, r1, r2, r4, r7}
    2d30:	36000000 	strcc	r0, [r0], -r0
    2d34:	0b000001 	bleq	2d40 <__code_start__-0x52c0>
    2d38:	01006e69 	tsteq	r0, r9, ror #28
    2d3c:	002c0514 	eoreq	r0, ip, r4, lsl r5
    2d40:	22530000 	subscs	r0, r3, #0, 0
    2d44:	22510000 	subscs	r0, r1, #0, 0
    2d48:	0e000000 	cdpeq	0, 0, cr0, cr0, cr0, {0}
    2d4c:	0000968c 	andeq	r9, r0, ip, lsl #13
    2d50:	00000161 	andeq	r0, r0, r1, ror #2
    2d54:	00975c0e 	addseq	r5, r7, lr, lsl #24
    2d58:	00016e00 	andeq	r6, r1, r0, lsl #28
    2d5c:	97680e00 	strbls	r0, [r8, -r0, lsl #28]!
    2d60:	017a0000 	cmneq	sl, r0
    2d64:	6c0e0000 	stcvs	0, cr0, [lr], {-0}
    2d68:	87000097 			; <UNDEFINED> instruction: 0x87000097
    2d6c:	00000001 	andeq	r0, r0, r1
    2d70:	00250407 	eoreq	r0, r5, r7, lsl #8
    2d74:	b70f0000 	strlt	r0, [pc, -r0]
    2d78:	b7000006 	strlt	r0, [r0, -r6]
    2d7c:	02000006 	andeq	r0, r0, #6, 0
    2d80:	10060131 	andne	r0, r6, r1, lsr r1
    2d84:	000006ad 	andeq	r0, r0, sp, lsr #13
    2d88:	000006ad 	andeq	r0, r0, sp, lsr #13
    2d8c:	0f063b02 	svceq	0x00063b02
    2d90:	00000029 	andeq	r0, r0, r9, lsr #32
    2d94:	00000029 	andeq	r0, r0, r9, lsr #32
    2d98:	06010502 	streq	r0, [r1], -r2, lsl #10
    2d9c:	00005210 	andeq	r5, r0, r0, lsl r2
    2da0:	00005200 	andeq	r5, r0, r0, lsl #4
    2da4:	066e0200 	strbteq	r0, [lr], -r0, lsl #4
    2da8:	0000ce00 	andeq	ip, r0, r0, lsl #28
    2dac:	a9000400 	stmdbge	r0, {sl}
    2db0:	0400000f 	streq	r0, [r0], #-15
    2db4:	00046401 	andeq	r6, r4, r1, lsl #8
    2db8:	06da0c00 	ldrbeq	r0, [sl], r0, lsl #24
    2dbc:	051c0000 	ldreq	r0, [ip, #-0]
    2dc0:	977c0000 	ldrbls	r0, [ip, -r0]!
    2dc4:	00040000 	andeq	r0, r4, r0
    2dc8:	195a0000 	ldmdbne	sl, {}^	; <UNPREDICTABLE>
    2dcc:	04020000 	streq	r0, [r2], #-0
    2dd0:	746e6905 	strbtvc	r6, [lr], #-2309	; 0xfffff6fb
    2dd4:	07040300 	streq	r0, [r4, -r0, lsl #6]
    2dd8:	000000a8 	andeq	r0, r0, r8, lsr #1
    2ddc:	46060103 	strmi	r0, [r6], -r3, lsl #2
    2de0:	03000000 	movweq	r0, #0
    2de4:	00f50502 	rscseq	r0, r5, r2, lsl #10
    2de8:	04030000 	streq	r0, [r3], #-0
    2dec:	0000ba05 	andeq	fp, r0, r5, lsl #20
    2df0:	05080300 	streq	r0, [r8, #-768]	; 0xfffffd00
    2df4:	000000b5 	strheq	r0, [r0], -r5
    2df8:	44080103 	strmi	r0, [r8], #-259	; 0xfffffefd
    2dfc:	03000000 	movweq	r0, #0
    2e00:	005f0702 	subseq	r0, pc, r2, lsl #14
    2e04:	04030000 	streq	r0, [r3], #-0
    2e08:	0000a307 	andeq	sl, r0, r7, lsl #6
    2e0c:	07080300 	streq	r0, [r8, -r0, lsl #6]
    2e10:	0000009e 	muleq	r0, lr, r0
    2e14:	00002504 	andeq	r2, r0, r4, lsl #10
    2e18:	00007a00 	andeq	r7, r0, r0, lsl #20
    2e1c:	00250500 	eoreq	r0, r5, r0, lsl #10
    2e20:	06000000 	streq	r0, [r0], -r0
    2e24:	00000109 	andeq	r0, r0, r9, lsl #2
    2e28:	860e1c02 	strhi	r1, [lr], -r2, lsl #24
    2e2c:	07000000 	streq	r0, [r0, -r0]
    2e30:	00006b04 	andeq	r6, r0, r4, lsl #22
    2e34:	00250400 	eoreq	r0, r5, r0, lsl #8
    2e38:	009b0000 	addseq	r0, fp, r0
    2e3c:	9b050000 	blls	142e44 <__bss_end__+0x138054>
    2e40:	00000000 	andeq	r0, r0, r0
    2e44:	00a80407 	adceq	r0, r8, r7, lsl #8
    2e48:	01030000 	mrseq	r0, (UNDEF: 3)
    2e4c:	00004d08 	andeq	r4, r0, r8, lsl #26
    2e50:	00a10800 	adceq	r0, r1, r0, lsl #16
    2e54:	84060000 	strhi	r0, [r6], #-0
    2e58:	02000005 	andeq	r0, r0, #5, 0
    2e5c:	00b90e21 	adcseq	r0, r9, r1, lsr #28
    2e60:	04070000 	streq	r0, [r7], #-0
    2e64:	0000008c 	andeq	r0, r0, ip, lsl #1
    2e68:	0006b709 	andeq	fp, r6, r9, lsl #14
    2e6c:	06040100 	streq	r0, [r4], -r0, lsl #2
    2e70:	0000977c 	andeq	r9, r0, ip, ror r7
    2e74:	00000004 	andeq	r0, r0, r4
    2e78:	7d009c01 	stcvc	12, cr9, [r0, #-4]
    2e7c:	04000002 	streq	r0, [r0], #-2
    2e80:	00102200 	andseq	r2, r0, r0, lsl #4
    2e84:	64010400 	strvs	r0, [r1], #-1024	; 0xfffffc00
    2e88:	0c000004 	stceq	0, cr0, [r0], {4}
    2e8c:	00000722 	andeq	r0, r0, r2, lsr #14
    2e90:	0000051c 	andeq	r0, r0, ip, lsl r5
    2e94:	00000288 	andeq	r0, r0, r8, lsl #5
    2e98:	00000000 	andeq	r0, r0, r0
    2e9c:	000019db 	ldrdeq	r1, [r0], -fp
    2ea0:	69050402 	stmdbvs	r5, {r1, sl}
    2ea4:	0300746e 	movweq	r7, #1134	; 0x46e
    2ea8:	00000025 	andeq	r0, r0, r5, lsr #32
    2eac:	a8070404 	stmdage	r7, {r2, sl}
    2eb0:	04000000 	streq	r0, [r0], #-0
    2eb4:	00460601 	subeq	r0, r6, r1, lsl #12
    2eb8:	02040000 	andeq	r0, r4, #0, 0
    2ebc:	0000f505 	andeq	pc, r0, r5, lsl #10
    2ec0:	05040400 	streq	r0, [r4, #-1024]	; 0xfffffc00
    2ec4:	000000ba 	strheq	r0, [r0], -sl
    2ec8:	b5050804 	strlt	r0, [r5, #-2052]	; 0xfffff7fc
    2ecc:	04000000 	streq	r0, [r0], #-0
    2ed0:	00440801 	subeq	r0, r4, r1, lsl #16
    2ed4:	02040000 	andeq	r0, r4, #0, 0
    2ed8:	00005f07 	andeq	r5, r0, r7, lsl #30
    2edc:	07040400 	streq	r0, [r4, -r0, lsl #8]
    2ee0:	000000a3 	andeq	r0, r0, r3, lsr #1
    2ee4:	9e070804 	cdpls	8, 0, cr0, cr7, cr4, {0}
    2ee8:	05000000 	streq	r0, [r0, #-0]
    2eec:	00000025 	andeq	r0, r0, r5, lsr #32
    2ef0:	0000007f 	andeq	r0, r0, pc, ror r0
    2ef4:	00002506 	andeq	r2, r0, r6, lsl #10
    2ef8:	09070000 	stmdbeq	r7, {}	; <UNPREDICTABLE>
    2efc:	02000001 	andeq	r0, r0, #1, 0
    2f00:	008b0e1c 	addeq	r0, fp, ip, lsl lr
    2f04:	04080000 	streq	r0, [r8], #-0
    2f08:	00000070 	andeq	r0, r0, r0, ror r0
    2f0c:	00002505 	andeq	r2, r0, r5, lsl #10
    2f10:	0000a000 	andeq	sl, r0, r0
    2f14:	00a00600 	adceq	r0, r0, r0, lsl #12
    2f18:	08000000 	stmdaeq	r0, {}	; <UNPREDICTABLE>
    2f1c:	0000ad04 	andeq	sl, r0, r4, lsl #26
    2f20:	08010400 	stmdaeq	r1, {sl}
    2f24:	0000004d 	andeq	r0, r0, sp, asr #32
    2f28:	0000a603 	andeq	sl, r0, r3, lsl #12
    2f2c:	05840700 	streq	r0, [r4, #1792]	; 0x700
    2f30:	21020000 	mrscs	r0, (UNDEF: 2)
    2f34:	0000be0e 	andeq	fp, r0, lr, lsl #28
    2f38:	91040800 	tstls	r4, r0, lsl #16
    2f3c:	09000000 	stmdbeq	r0, {}	; <UNPREDICTABLE>
    2f40:	00000746 	andeq	r0, r0, r6, asr #14
    2f44:	31110d01 	tstcc	r1, r1, lsl #26
    2f48:	0a000000 	beq	2f50 <__code_start__-0x50b0>
    2f4c:	00000660 	andeq	r0, r0, r0, ror #12
    2f50:	ac061f01 	stcge	15, cr1, [r6], {1}
    2f54:	60000097 	mulvs	r0, r7, r0
    2f58:	01000000 	mrseq	r0, (UNDEF: 0)
    2f5c:	0001d59c 	muleq	r1, ip, r5
    2f60:	076a0b00 	strbeq	r0, [sl, -r0, lsl #22]!
    2f64:	2c010000 	stccs	0, cr0, [r1], {-0}
    2f68:	00002c0f 	andeq	r2, r0, pc, lsl #24
    2f6c:	10001c00 	andne	r1, r0, r0, lsl #24
    2f70:	07050b20 	streq	r0, [r5, -r0, lsr #22]
    2f74:	2d010000 	stccs	0, cr0, [r1, #-0]
    2f78:	00002c0f 	andeq	r2, r0, pc, lsl #24
    2f7c:	10002400 	andne	r2, r0, r0, lsl #8
    2f80:	07370b20 	ldreq	r0, [r7, -r0, lsr #22]!
    2f84:	2e010000 	cdpcs	0, 0, cr0, cr1, cr0, {0}
    2f88:	00002c0f 	andeq	r2, r0, pc, lsl #24
    2f8c:	00000000 	andeq	r0, r0, r0
    2f90:	07510c5a 			; <UNDEFINED> instruction: 0x07510c5a
    2f94:	2f010000 	svccs	0x00010000
    2f98:	00002c0f 	andeq	r2, r0, pc, lsl #24
    2f9c:	ef0d2000 	svc	0x000d2000
    2fa0:	ac000001 	stcge	0, cr0, [r0], {1}
    2fa4:	02000097 	andeq	r0, r0, #151, 0	; 0x97
    2fa8:	00000270 	andeq	r0, r0, r0, ror r2
    2fac:	4c082001 	stcmi	0, cr2, [r8], {1}
    2fb0:	0e000001 	cdpeq	0, 0, cr0, cr0, cr1, {0}
    2fb4:	00000270 	andeq	r0, r0, r0, ror r2
    2fb8:	0002000f 	andeq	r0, r2, pc
    2fbc:	00226b00 	eoreq	r6, r2, r0, lsl #22
    2fc0:	00226700 	eoreq	r6, r2, r0, lsl #14
    2fc4:	10000000 	andne	r0, r0, r0
    2fc8:	000001d5 	ldrdeq	r0, [r0], -r5
    2fcc:	000097c0 	andeq	r9, r0, r0, asr #15
    2fd0:	0097c001 	addseq	ip, r7, r1
    2fd4:	00001000 	andeq	r1, r0, r0
    2fd8:	09210100 	stmdbeq	r1!, {r8}
    2fdc:	00000173 	andeq	r0, r0, r3, ror r1
    2fe0:	0001e20f 	andeq	lr, r1, pc, lsl #4
    2fe4:	00229200 	eoreq	r9, r2, r0, lsl #4
    2fe8:	00228a00 	eoreq	r8, r2, r0, lsl #20
    2fec:	d4110000 	ldrle	r0, [r1], #-0
    2ff0:	4f000097 	svcmi	0x00000097
    2ff4:	11000002 	tstne	r0, r2
    2ff8:	000097d8 	ldrdeq	r9, [r0], -r8
    2ffc:	0000025c 	andeq	r0, r0, ip, asr r2
    3000:	0097e012 	addseq	lr, r7, r2, lsl r0
    3004:	00026800 	andeq	r6, r2, r0, lsl #16
    3008:	00019800 	andeq	r9, r1, r0, lsl #16
    300c:	50011300 	andpl	r1, r1, r0, lsl #6
    3010:	12003a01 	andne	r3, r0, #4096	; 0x1000
    3014:	000097ec 	andeq	r9, r0, ip, ror #15
    3018:	00000274 	andeq	r0, r0, r4, ror r2
    301c:	000001b8 			; <UNDEFINED> instruction: 0x000001b8
    3020:	05500113 	ldrbeq	r0, [r0, #-275]	; 0xfffffeed
    3024:	1000240c 	andne	r2, r0, ip, lsl #8
    3028:	51011320 	tstpl	r1, r0, lsr #6
    302c:	00010c05 	andeq	r0, r1, r5, lsl #24
    3030:	14005a00 	strne	r5, [r0], #-2560	; 0xfffff600
    3034:	000097f8 	strdeq	r9, [r0], -r8
    3038:	00000274 	andeq	r0, r0, r4, ror r2
    303c:	05500113 	ldrbeq	r0, [r0, #-275]	; 0xfffffeed
    3040:	10001c0c 	andne	r1, r0, ip, lsl #24
    3044:	51011320 	tstpl	r1, r0, lsr #6
    3048:	00200c05 	eoreq	r0, r0, r5, lsl #24
    304c:	00005a00 	andeq	r5, r0, r0, lsl #20
    3050:	00071315 	andeq	r1, r7, r5, lsl r3
    3054:	06170100 	ldreq	r0, [r7], -r0, lsl #2
    3058:	0001ef01 	andeq	lr, r1, r1, lsl #30
    305c:	07720900 	ldrbeq	r0, [r2, -r0, lsl #18]!
    3060:	18010000 	stmdane	r1, {}	; <UNPREDICTABLE>
    3064:	0000310e 	andeq	r3, r0, lr, lsl #2
    3068:	43160000 	tstmi	r6, #0, 0
    306c:	01000007 	tsteq	r0, r7
    3070:	0025050e 	eoreq	r0, r5, lr, lsl #10
    3074:	0d010000 	stceq	0, cr0, [r1, #-0]
    3078:	09000002 	stmdbeq	r0, {r1}
    307c:	00000772 	andeq	r0, r0, r2, ror r7
    3080:	310e0f01 	tstcc	lr, r1, lsl #30
    3084:	00000000 	andeq	r0, r0, r0
    3088:	0001ef17 	andeq	lr, r1, r7, lsl pc
    308c:	00978000 	addseq	r8, r7, r0
    3090:	00001800 	andeq	r1, r0, r0, lsl #16
    3094:	2e9c0100 	fmlcse	f0, f4, f0
    3098:	0f000002 	svceq	0x00000002
    309c:	00000200 	andeq	r0, r0, r0, lsl #4
    30a0:	000022cf 	andeq	r2, r0, pc, asr #5
    30a4:	000022cb 	andeq	r2, r0, fp, asr #5
    30a8:	01d51700 	bicseq	r1, r5, r0, lsl #14
    30ac:	97980000 	ldrls	r0, [r8, r0]
    30b0:	00140000 	andseq	r0, r4, r0
    30b4:	9c010000 	stcls	0, cr0, [r1], {-0}
    30b8:	0000024f 	andeq	r0, r0, pc, asr #4
    30bc:	0001e20f 	andeq	lr, r1, pc, lsl #4
    30c0:	0022f600 	eoreq	pc, r2, r0, lsl #12
    30c4:	0022ee00 	eoreq	lr, r2, r0, lsl #28
    30c8:	f6180000 			; <UNDEFINED> instruction: 0xf6180000
    30cc:	f6000006 			; <UNDEFINED> instruction: 0xf6000006
    30d0:	02000006 	andeq	r0, r0, #6, 0
    30d4:	19060136 	stmdbne	r6, {r1, r2, r4, r5, r8}
    30d8:	0000068f 	andeq	r0, r0, pc, lsl #13
    30dc:	0000068f 	andeq	r0, r0, pc, lsl #13
    30e0:	19064d02 	stmdbne	r6, {r1, r8, sl, fp, lr}
    30e4:	0000066b 	andeq	r0, r0, fp, ror #12
    30e8:	0000066b 	andeq	r0, r0, fp, ror #12
    30ec:	19065802 	stmdbne	r6, {r1, fp, ip, lr}
    30f0:	0000070d 	andeq	r0, r0, sp, lsl #14
    30f4:	0000070d 	andeq	r0, r0, sp, lsl #14
    30f8:	0006ad02 	andeq	sl, r6, r2, lsl #26
    30fc:	0000053f 	andeq	r0, r0, pc, lsr r5
    3100:	11a50004 			; <UNDEFINED> instruction: 0x11a50004
    3104:	01040000 	mrseq	r0, (UNDEF: 4)
    3108:	00000464 	andeq	r0, r0, r4, ror #8
    310c:	00078d0c 	andeq	r8, r7, ip, lsl #26
    3110:	00051c00 	andeq	r1, r5, r0, lsl #24
    3114:	00980c00 	addseq	r0, r8, r0, lsl #24
    3118:	00011c00 	andeq	r1, r1, r0, lsl #24
    311c:	001af300 	andseq	pc, sl, r0, lsl #6
    3120:	05040200 	streq	r0, [r4, #-512]	; 0xfffffe00
    3124:	00746e69 	rsbseq	r6, r4, r9, ror #28
    3128:	a8070403 	stmdage	r7, {r0, r1, sl}
    312c:	03000000 	movweq	r0, #0
    3130:	00460601 	subeq	r0, r6, r1, lsl #12
    3134:	02030000 	andeq	r0, r3, #0, 0
    3138:	0000f505 	andeq	pc, r0, r5, lsl #10
    313c:	05040300 	streq	r0, [r4, #-768]	; 0xfffffd00
    3140:	000000ba 	strheq	r0, [r0], -sl
    3144:	b5050803 	strlt	r0, [r5, #-2051]	; 0xfffff7fd
    3148:	03000000 	movweq	r0, #0
    314c:	00440801 	subeq	r0, r4, r1, lsl #16
    3150:	02030000 	andeq	r0, r3, #0, 0
    3154:	00005f07 	andeq	r5, r0, r7, lsl #30
    3158:	07040300 	streq	r0, [r4, -r0, lsl #6]
    315c:	000000a3 	andeq	r0, r0, r3, lsr #1
    3160:	9e070803 	cdpls	8, 0, cr0, cr7, cr3, {0}
    3164:	04000000 	streq	r0, [r0], #-0
    3168:	00000025 	andeq	r0, r0, r5, lsr #32
    316c:	0000007a 	andeq	r0, r0, sl, ror r0
    3170:	00002505 	andeq	r2, r0, r5, lsl #10
    3174:	09060000 	stmdbeq	r6, {}	; <UNPREDICTABLE>
    3178:	02000001 	andeq	r0, r0, #1, 0
    317c:	00860e1c 	addeq	r0, r6, ip, lsl lr
    3180:	04070000 	streq	r0, [r7], #-0
    3184:	0000006b 	andeq	r0, r0, fp, rrx
    3188:	00002504 	andeq	r2, r0, r4, lsl #10
    318c:	00009b00 	andeq	r9, r0, r0, lsl #22
    3190:	009b0500 	addseq	r0, fp, r0, lsl #10
    3194:	07000000 	streq	r0, [r0, -r0]
    3198:	0000a804 	andeq	sl, r0, r4, lsl #16
    319c:	08010300 	stmdaeq	r1, {r8, r9}
    31a0:	0000004d 	andeq	r0, r0, sp, asr #32
    31a4:	0000a108 	andeq	sl, r0, r8, lsl #2
    31a8:	05840600 	streq	r0, [r4, #1536]	; 0x600
    31ac:	21020000 	mrscs	r0, (UNDEF: 2)
    31b0:	0000b90e 	andeq	fp, r0, lr, lsl #18
    31b4:	8c040700 	stchi	7, cr0, [r4], {-0}
    31b8:	09000000 	stmdbeq	r0, {}	; <UNPREDICTABLE>
    31bc:	00000783 	andeq	r0, r0, r3, lsl #15
    31c0:	d4061e01 	strle	r1, [r6], #-3585	; 0xfffff1ff
    31c4:	54000098 	strpl	r0, [r0], #-152	; 0xffffff68
    31c8:	01000000 	mrseq	r0, (UNDEF: 0)
    31cc:	00020b9c 	muleq	r2, ip, fp
    31d0:	65730a00 	ldrbvs	r0, [r3, #-2560]!	; 0xfffff600
    31d4:	1e010063 	cdpne	0, 0, cr0, cr1, cr3, {3}
    31d8:	00002c19 	andeq	r2, r0, r9, lsl ip
    31dc:	00233300 	eoreq	r3, r3, r0, lsl #6
    31e0:	00232f00 	eoreq	r2, r3, r0, lsl #30
    31e4:	020b0b00 	andeq	r0, fp, #0, 22
    31e8:	98d40000 	ldmls	r4, {}^	; <UNPREDICTABLE>
    31ec:	50020000 	andpl	r0, r2, r0
    31f0:	01000003 	tsteq	r0, r3
    31f4:	180c051f 	stmdane	ip, {r0, r1, r2, r3, r4, r8, sl}
    31f8:	58000002 	stmdapl	r0, {r1}
    31fc:	54000023 	strpl	r0, [r0], #-35	; 0xffffffdd
    3200:	0d000023 	stceq	0, cr0, [r0, #-140]	; 0xffffff74
    3204:	00000224 	andeq	r0, r0, r4, lsr #4
    3208:	000098e8 	andeq	r9, r0, r8, ror #17
    320c:	0098e800 	addseq	lr, r8, r0, lsl #16
    3210:	00004000 	andeq	r4, r0, r0
    3214:	051c0100 	ldreq	r0, [ip, #-256]	; 0xffffff00
    3218:	0002310c 	andeq	r3, r2, ip, lsl #2
    321c:	00238500 	eoreq	r8, r3, r0, lsl #10
    3220:	00238300 	eoreq	r8, r3, r0, lsl #6
    3224:	023c0e00 	eorseq	r0, ip, #0, 28
    3228:	239a0000 	orrscs	r0, sl, #0, 0
    322c:	23980000 	orrscs	r0, r8, #0, 0
    3230:	550f0000 	strpl	r0, [pc, #-0]	; 3238 <__code_start__-0x4dc8>
    3234:	e8000002 	stmda	r0, {r1}
    3238:	02000098 	andeq	r0, r0, #152, 0	; 0x98
    323c:	000098e8 	andeq	r9, r0, r8, ror #17
    3240:	00000014 	andeq	r0, r0, r4, lsl r0
    3244:	9c131301 	ldcls	3, cr1, [r3], {1}
    3248:	0e000001 	cdpeq	0, 0, cr0, cr0, cr1, {0}
    324c:	00000266 	andeq	r0, r0, r6, ror #4
    3250:	000023b1 			; <UNDEFINED> instruction: 0x000023b1
    3254:	000023ad 	andeq	r2, r0, sp, lsr #7
    3258:	0002710f 	andeq	r7, r2, pc, lsl #2
    325c:	0098ec00 	addseq	lr, r8, r0, lsl #24
    3260:	98ec0100 	stmials	ip!, {r8}^
    3264:	000c0000 	andeq	r0, ip, r0
    3268:	0d010000 	stceq	0, cr0, [r1, #-0]
    326c:	00018912 	andeq	r8, r1, r2, lsl r9
    3270:	98f41000 	ldmls	r4!, {ip}^
    3274:	052a0000 	streq	r0, [sl, #-0]!
    3278:	01110000 	tsteq	r1, r0
    327c:	040c0550 	streq	r0, [ip], #-1360	; 0xfffffab0
    3280:	00200030 	eoreq	r0, r0, r0, lsr r0
    3284:	98ec1200 	stmials	ip!, {r9, ip}^
    3288:	05360000 	ldreq	r0, [r6, #-0]!
    328c:	fc120000 	ldc2	0, cr0, [r2], {-0}
    3290:	36000098 			; <UNDEFINED> instruction: 0x36000098
    3294:	00000005 	andeq	r0, r0, r5
    3298:	00024713 	andeq	r4, r2, r3, lsl r7
    329c:	00036800 	andeq	r6, r3, r0, lsl #16
    32a0:	02481400 	subeq	r1, r8, #0, 8
    32a4:	550b0000 	strpl	r0, [fp, #-0]
    32a8:	00000002 	andeq	r0, r0, r2
    32ac:	02000099 	andeq	r0, r0, #153, 0	; 0x99
    32b0:	00000380 	andeq	r0, r0, r0, lsl #7
    32b4:	15171501 	ldrne	r1, [r7, #-1281]	; 0xfffffaff
    32b8:	00000380 	andeq	r0, r0, r0, lsl #7
    32bc:	0002660e 	andeq	r6, r2, lr, lsl #12
    32c0:	0023d100 	eoreq	sp, r3, r0, lsl #2
    32c4:	0023cf00 	eoreq	ip, r3, r0, lsl #30
    32c8:	02711600 	rsbseq	r1, r1, #0, 12
    32cc:	99040000 	stmdbls	r4, {}	; <UNPREDICTABLE>
    32d0:	a0010000 	andge	r0, r1, r0
    32d4:	01000003 	tsteq	r0, r3
    32d8:	01f3120d 	mvnseq	r1, sp, lsl #4
    32dc:	0c100000 	ldceq	0, cr0, [r0], {-0}
    32e0:	2a000099 	bcs	354c <__code_start__-0x4ab4>
    32e4:	11000005 	tstne	r0, r5
    32e8:	77025001 	strvc	r5, [r2, -r1]
    32ec:	12000000 	andne	r0, r0, #0, 0
    32f0:	00009904 	andeq	r9, r0, r4, lsl #18
    32f4:	00000536 	andeq	r0, r0, r6, lsr r5
    32f8:	00991812 	addseq	r1, r9, r2, lsl r8
    32fc:	00053600 	andeq	r3, r5, r0, lsl #12
    3300:	00000000 	andeq	r0, r0, r0
    3304:	17000000 	strne	r0, [r0, -r0]
    3308:	0000066b 	andeq	r0, r0, fp, ror #12
    330c:	01061b01 	tsteq	r6, r1, lsl #22
    3310:	00000224 	andeq	r0, r0, r4, lsr #4
    3314:	00736d18 	rsbseq	r6, r3, r8, lsl sp
    3318:	2c181b01 			; <UNDEFINED> instruction: 0x2c181b01
    331c:	00000000 	andeq	r0, r0, r0
    3320:	0007b617 	andeq	fp, r7, r7, lsl r6
    3324:	06120100 	ldreq	r0, [r2], -r0, lsl #2
    3328:	00025501 	andeq	r5, r2, r1, lsl #10
    332c:	73751800 	cmnvc	r5, #0, 16
    3330:	18120100 	ldmdane	r2, {r8}
    3334:	0000002c 	andeq	r0, r0, ip, lsr #32
    3338:	00627219 	rsbeq	r7, r2, r9, lsl r2
    333c:	2c0e1301 	stccs	3, cr1, [lr], {1}
    3340:	1a000000 	bne	3348 <__code_start__-0x4cb8>
    3344:	00617219 	rsbeq	r7, r1, r9, lsl r2
    3348:	2c121501 	cfldr32cs	mvfx1, [r2], {1}
    334c:	00000000 	andeq	r0, r0, r0
    3350:	07a71b00 	streq	r1, [r7, r0, lsl #22]!
    3354:	09010000 	stmdbeq	r1, {}	; <UNPREDICTABLE>
    3358:	00002c0a 	andeq	r2, r0, sl, lsl #24
    335c:	02710100 	rsbseq	r0, r1, #0
    3360:	75190000 	ldrvc	r0, [r9, #-0]
    3364:	0e0d0100 	adfeqe	f0, f5, f0
    3368:	0000002c 	andeq	r0, r0, ip, lsr #32
    336c:	07bf1c00 	ldreq	r1, [pc, r0, lsl #24]!
    3370:	04010000 	streq	r0, [r1], #-0
    3374:	00002c0a 	andeq	r2, r0, sl, lsl #24
    3378:	711d0100 	tstvc	sp, r0, lsl #2
    337c:	0c000002 	stceq	0, cr0, [r0], {2}
    3380:	0c000098 	stceq	0, cr0, [r0], {152}	; 0x98
    3384:	01000000 	mrseq	r0, (UNDEF: 0)
    3388:	0002a59c 	muleq	r2, ip, r5
    338c:	98141e00 	ldmdals	r4, {r9, sl, fp, ip}
    3390:	052a0000 	streq	r0, [sl, #-0]!
    3394:	01110000 	tsteq	r1, r0
    3398:	040c0550 	streq	r0, [ip], #-1360	; 0xfffffab0
    339c:	00200030 	eoreq	r0, r0, r0, lsr r0
    33a0:	02551d00 	subseq	r1, r5, #0, 26
    33a4:	98180000 	ldmdals	r8, {}	; <UNPREDICTABLE>
    33a8:	00240000 	eoreq	r0, r4, r0
    33ac:	9c010000 	stcls	0, cr0, [r1], {-0}
    33b0:	00000305 	andeq	r0, r0, r5, lsl #6
    33b4:	0002660e 	andeq	r6, r2, lr, lsl #12
    33b8:	0023e800 	eoreq	lr, r3, r0, lsl #16
    33bc:	0023e400 	eoreq	lr, r3, r0, lsl #8
    33c0:	02710f00 	rsbseq	r0, r1, #0, 30
    33c4:	98200000 	stmdals	r0!, {}	; <UNPREDICTABLE>
    33c8:	20010000 	andcs	r0, r1, r0
    33cc:	0c000098 	stceq	0, cr0, [r0], {152}	; 0x98
    33d0:	01000000 	mrseq	r0, (UNDEF: 0)
    33d4:	02f2120d 	rscseq	r1, r2, #-805306368	; 0xd0000000
    33d8:	28100000 	ldmdacs	r0, {}	; <UNPREDICTABLE>
    33dc:	2a000098 	bcs	3644 <__code_start__-0x49bc>
    33e0:	11000005 	tstne	r0, r5
    33e4:	0c055001 	stceq	0, cr5, [r5], {1}
    33e8:	20003004 	andcs	r3, r0, r4
    33ec:	20120000 	andscs	r0, r2, r0
    33f0:	36000098 			; <UNDEFINED> instruction: 0x36000098
    33f4:	12000005 	andne	r0, r0, #5, 0
    33f8:	00009830 	andeq	r9, r0, r0, lsr r8
    33fc:	00000536 	andeq	r0, r0, r6, lsr r5
    3400:	02241d00 	eoreq	r1, r4, #0, 26
    3404:	983c0000 	ldmdals	ip!, {}	; <UNPREDICTABLE>
    3408:	00480000 	subeq	r0, r8, r0
    340c:	9c010000 	stcls	0, cr0, [r1], {-0}
    3410:	00000407 	andeq	r0, r0, r7, lsl #8
    3414:	0002310c 	andeq	r3, r2, ip, lsl #2
    3418:	00240a00 	eoreq	r0, r4, r0, lsl #20
    341c:	00240600 	eoreq	r0, r4, r0, lsl #12
    3420:	023c0e00 	eorseq	r0, ip, #0, 28
    3424:	242a0000 	strtcs	r0, [sl], #-0
    3428:	24280000 	strtcs	r0, [r8], #-0
    342c:	55160000 	ldrpl	r0, [r6, #-0]
    3430:	3c000002 	stccc	0, cr0, [r0], {2}
    3434:	02000098 	andeq	r0, r0, #152, 0	; 0x98
    3438:	00000298 	muleq	r0, r8, r2
    343c:	9a131301 	bls	4c8048 <__bss_end__+0x4bd258>
    3440:	15000003 	strne	r0, [r0, #-3]
    3444:	00000298 	muleq	r0, r8, r2
    3448:	0002660e 	andeq	r6, r2, lr, lsl #12
    344c:	00244100 	eoreq	r4, r4, r0, lsl #2
    3450:	00243d00 	eoreq	r3, r4, r0, lsl #26
    3454:	02710f00 	rsbseq	r0, r1, #0, 30
    3458:	98480000 	stmdals	r8, {}^	; <UNPREDICTABLE>
    345c:	48010000 	stmdami	r1, {}	; <UNPREDICTABLE>
    3460:	0c000098 	stceq	0, cr0, [r0], {152}	; 0x98
    3464:	01000000 	mrseq	r0, (UNDEF: 0)
    3468:	0386120d 	orreq	r1, r6, #-805306368	; 0xd0000000
    346c:	50100000 	andspl	r0, r0, r0
    3470:	2a000098 	bcs	36d8 <__code_start__-0x4928>
    3474:	11000005 	tstne	r0, r5
    3478:	0c055001 	stceq	0, cr5, [r5], {1}
    347c:	20003004 	andcs	r3, r0, r4
    3480:	48120000 	ldmdami	r2, {}	; <UNPREDICTABLE>
    3484:	36000098 			; <UNDEFINED> instruction: 0x36000098
    3488:	12000005 	andne	r0, r0, #5, 0
    348c:	00009858 	andeq	r9, r0, r8, asr r8
    3490:	00000536 	andeq	r0, r0, r6, lsr r5
    3494:	47130000 	ldrmi	r0, [r3, -r0]
    3498:	b0000002 	andlt	r0, r0, r2
    349c:	14000002 	strne	r0, [r0], #-2
    34a0:	00000248 	andeq	r0, r0, r8, asr #4
    34a4:	0002550b 	andeq	r5, r2, fp, lsl #10
    34a8:	00985c00 	addseq	r5, r8, r0, lsl #24
    34ac:	02c80200 	sbceq	r0, r8, #0, 4
    34b0:	15010000 	strne	r0, [r1, #-0]
    34b4:	02c81517 	sbceq	r1, r8, #96468992	; 0x5c00000
    34b8:	660e0000 	strvs	r0, [lr], -r0
    34bc:	61000002 	tstvs	r0, r2
    34c0:	5f000024 	svcpl	0x00000024
    34c4:	16000024 	strne	r0, [r0], -r4, lsr #32
    34c8:	00000271 	andeq	r0, r0, r1, ror r2
    34cc:	00009860 	andeq	r9, r0, r0, ror #16
    34d0:	0002e801 	andeq	lr, r2, r1, lsl #16
    34d4:	120d0100 	andne	r0, sp, #0
    34d8:	000003f1 	strdeq	r0, [r0], -r1
    34dc:	00986810 	addseq	r6, r8, r0, lsl r8
    34e0:	00052a00 	andeq	r2, r5, r0, lsl #20
    34e4:	50011100 	andpl	r1, r1, r0, lsl #2
    34e8:	00007702 	andeq	r7, r0, r2, lsl #14
    34ec:	98601200 	stmdals	r0!, {r9, ip}^
    34f0:	05360000 	ldreq	r0, [r6, #-0]!
    34f4:	74120000 	ldrvc	r0, [r2], #-0
    34f8:	36000098 			; <UNDEFINED> instruction: 0x36000098
    34fc:	00000005 	andeq	r0, r0, r5
    3500:	1d000000 	stcne	0, cr0, [r0, #-0]
    3504:	0000020b 	andeq	r0, r0, fp, lsl #4
    3508:	00009884 	andeq	r9, r0, r4, lsl #17
    350c:	00000050 	andeq	r0, r0, r0, asr r0
    3510:	052a9c01 	streq	r9, [sl, #-3073]!	; 0xfffff3ff
    3514:	180c0000 	stmdane	ip, {}	; <UNPREDICTABLE>
    3518:	78000002 	stmdavc	r0, {r1}
    351c:	74000024 	strvc	r0, [r0], #-36	; 0xffffffdc
    3520:	0d000024 	stceq	0, cr0, [r0, #-144]	; 0xffffff70
    3524:	00000224 	andeq	r0, r0, r4, lsr #4
    3528:	00009894 	muleq	r0, r4, r8
    352c:	00989400 	addseq	r9, r8, r0, lsl #8
    3530:	00004000 	andeq	r4, r0, r0
    3534:	051c0100 	ldreq	r0, [ip, #-256]	; 0xffffff00
    3538:	0002310c 	andeq	r3, r2, ip, lsl #2
    353c:	00249b00 	eoreq	r9, r4, r0, lsl #22
    3540:	00249900 	eoreq	r9, r4, r0, lsl #18
    3544:	023c0e00 	eorseq	r0, ip, #0, 28
    3548:	24b00000 	ldrtcs	r0, [r0], #0
    354c:	24ae0000 	strtcs	r0, [lr], #0
    3550:	550f0000 	strpl	r0, [pc, #-0]	; 3558 <__code_start__-0x4aa8>
    3554:	94000002 	strls	r0, [r0], #-2
    3558:	02000098 	andeq	r0, r0, #152, 0	; 0x98
    355c:	00009894 	muleq	r0, r4, r8
    3560:	00000014 	andeq	r0, r0, r4, lsl r0
    3564:	bc131301 	ldclt	3, cr1, [r3], {1}
    3568:	0e000004 	cdpeq	0, 0, cr0, cr0, cr4, {0}
    356c:	00000266 	andeq	r0, r0, r6, ror #4
    3570:	000024c7 	andeq	r2, r0, r7, asr #9
    3574:	000024c3 	andeq	r2, r0, r3, asr #9
    3578:	0002710f 	andeq	r7, r2, pc, lsl #2
    357c:	00989800 	addseq	r9, r8, r0, lsl #16
    3580:	98980100 	ldmls	r8, {r8}
    3584:	000c0000 	andeq	r0, ip, r0
    3588:	0d010000 	stceq	0, cr0, [r1, #-0]
    358c:	0004a912 	andeq	sl, r4, r2, lsl r9
    3590:	98a01000 	stmials	r0!, {ip}
    3594:	052a0000 	streq	r0, [sl, #-0]!
    3598:	01110000 	tsteq	r1, r0
    359c:	040c0550 	streq	r0, [ip], #-1360	; 0xfffffab0
    35a0:	00200030 	eoreq	r0, r0, r0, lsr r0
    35a4:	98981200 	ldmls	r8, {r9, ip}
    35a8:	05360000 	ldreq	r0, [r6, #-0]!
    35ac:	a8120000 	ldmdage	r2, {}	; <UNPREDICTABLE>
    35b0:	36000098 			; <UNDEFINED> instruction: 0x36000098
    35b4:	00000005 	andeq	r0, r0, r5
    35b8:	00024713 	andeq	r4, r2, r3, lsl r7
    35bc:	00030000 	andeq	r0, r3, r0
    35c0:	02481400 	subeq	r1, r8, #0, 8
    35c4:	550b0000 	strpl	r0, [fp, #-0]
    35c8:	ac000002 	stcge	0, cr0, [r0], {2}
    35cc:	02000098 	andeq	r0, r0, #152, 0	; 0x98
    35d0:	00000318 	andeq	r0, r0, r8, lsl r3
    35d4:	15171501 	ldrne	r1, [r7, #-1281]	; 0xfffffaff
    35d8:	00000318 	andeq	r0, r0, r8, lsl r3
    35dc:	0002660e 	andeq	r6, r2, lr, lsl #12
    35e0:	0024e700 	eoreq	lr, r4, r0, lsl #14
    35e4:	0024e500 	eoreq	lr, r4, r0, lsl #10
    35e8:	02711600 	rsbseq	r1, r1, #0, 12
    35ec:	98b00000 	ldmls	r0!, {}	; <UNPREDICTABLE>
    35f0:	38010000 	stmdacc	r1, {}	; <UNPREDICTABLE>
    35f4:	01000003 	tsteq	r0, r3
    35f8:	0513120d 	ldreq	r1, [r3, #-525]	; 0xfffffdf3
    35fc:	b8100000 	ldmdalt	r0, {}	; <UNPREDICTABLE>
    3600:	2a000098 	bcs	3868 <__code_start__-0x4798>
    3604:	11000005 	tstne	r0, r5
    3608:	77025001 	strvc	r5, [r2, -r1]
    360c:	12000000 	andne	r0, r0, #0, 0
    3610:	000098b0 			; <UNDEFINED> instruction: 0x000098b0
    3614:	00000536 	andeq	r0, r0, r6, lsr r5
    3618:	0098c412 	addseq	ip, r8, r2, lsl r4
    361c:	00053600 	andeq	r3, r5, r0, lsl #12
    3620:	00000000 	andeq	r0, r0, r0
    3624:	a11f0000 	tstge	pc, r0
    3628:	a1000007 	tstge	r0, r7
    362c:	02000007 	andeq	r0, r0, #7, 0
    3630:	771f0ac2 	ldrvc	r0, [pc, -r2, asr #21]
    3634:	77000007 	strvc	r0, [r0, -r7]
    3638:	02000007 	andeq	r0, r0, #7, 0
    363c:	cd00069c 	stcgt	6, cr0, [r0, #-624]	; 0xfffffd90
    3640:	04000005 	streq	r0, [r0], #-5
    3644:	00137400 	andseq	r7, r3, r0, lsl #8
    3648:	d2010400 	andle	r0, r1, #0, 8
    364c:	0c000008 	stceq	0, cr0, [r0], {8}
    3650:	00000811 	andeq	r0, r0, r1, lsl r8
    3654:	00000882 	andeq	r0, r0, r2, lsl #17
    3658:	00009928 	andeq	r9, r0, r8, lsr #18
    365c:	000001f0 	strdeq	r0, [r0], -r0	; <UNPREDICTABLE>
    3660:	00001cf1 	strdeq	r1, [r0], -r1	; <UNPREDICTABLE>
    3664:	69050402 	stmdbvs	r5, {r1, sl}
    3668:	0300746e 	movweq	r7, #1134	; 0x46e
    366c:	00a80704 	adceq	r0, r8, r4, lsl #14
    3670:	2c040000 	stccs	0, cr0, [r4], {-0}
    3674:	03000000 	movweq	r0, #0
    3678:	00460601 	subeq	r0, r6, r1, lsl #12
    367c:	02030000 	andeq	r0, r3, #0, 0
    3680:	0000f505 	andeq	pc, r0, r5, lsl #10
    3684:	05040300 	streq	r0, [r4, #-768]	; 0xfffffd00
    3688:	000000ba 	strheq	r0, [r0], -sl
    368c:	b5050803 	strlt	r0, [r5, #-2051]	; 0xfffff7fd
    3690:	03000000 	movweq	r0, #0
    3694:	00440801 	subeq	r0, r4, r1, lsl #16
    3698:	02030000 	andeq	r0, r3, #0, 0
    369c:	00005f07 	andeq	r5, r0, r7, lsl #30
    36a0:	02600500 	rsbeq	r0, r0, #0, 10
    36a4:	34050000 	strcc	r0, [r5], #-0
    36a8:	00006e19 	andeq	r6, r0, r9, lsl lr
    36ac:	07040300 	streq	r0, [r4, -r0, lsl #6]
    36b0:	000000a3 	andeq	r0, r0, r3, lsr #1
    36b4:	9e070803 	cdpls	8, 0, cr0, cr7, cr3, {0}
    36b8:	03000000 	movweq	r0, #0
    36bc:	004d0801 	subeq	r0, sp, r1, lsl #16
    36c0:	07060000 	streq	r0, [r6, -r0]
    36c4:	00005401 	andeq	r5, r0, r1, lsl #8
    36c8:	0e0c0400 	cfcpyseq	mvf0, mvf12
    36cc:	000000c2 	andeq	r0, r0, r2, asr #1
    36d0:	0009bc07 	andeq	fp, r9, r7, lsl #24
    36d4:	f4070000 	vst4.8	{d0-d3}, [r7], r0
    36d8:	01000007 	tsteq	r0, r7
    36dc:	00083707 	andeq	r3, r8, r7, lsl #14
    36e0:	46070400 	strmi	r0, [r7], -r0, lsl #8
    36e4:	05000008 	streq	r0, [r0, #-8]
    36e8:	00085507 	andeq	r5, r8, r7, lsl #10
    36ec:	64070600 	strvs	r0, [r7], #-1536	; 0xfffffa00
    36f0:	07000008 	streq	r0, [r0, -r8]
    36f4:	00098507 	andeq	r8, r9, r7, lsl #10
    36f8:	73070300 	movwvc	r0, #29440	; 0x7300
    36fc:	02000008 	andeq	r0, r0, #8, 0
    3700:	08050800 	stmdaeq	r5, {fp}
    3704:	022c0000 	eoreq	r0, ip, #0, 0
    3708:	015e0806 	cmpeq	lr, r6, lsl #16
    370c:	69090000 	stmdbvs	r9, {}	; <UNPREDICTABLE>
    3710:	0902006f 	stmdbeq	r2, {r0, r1, r2, r3, r5, r6}
    3714:	00003309 	andeq	r3, r0, r9, lsl #6
    3718:	69090000 	stmdbvs	r9, {}	; <UNPREDICTABLE>
    371c:	02007265 	andeq	r7, r0, #1342177286	; 0x50000006
    3720:	0033090a 	eorseq	r0, r3, sl, lsl #18
    3724:	09040000 	stmdbeq	r4, {}	; <UNPREDICTABLE>
    3728:	00726969 	rsbseq	r6, r2, r9, ror #18
    372c:	33091102 	movwcc	r1, #37122	; 0x9102
    3730:	08000000 	stmdaeq	r0, {}	; <UNPREDICTABLE>
    3734:	72636c09 	rsbvc	r6, r3, #2304	; 0x900
    3738:	09130200 	ldmdbeq	r3, {r9}
    373c:	00000033 	andeq	r0, r0, r3, lsr r0
    3740:	636d090c 	cmnvs	sp, #12, 18	; 0x30000
    3744:	14020072 	strne	r0, [r2], #-114	; 0xffffff8e
    3748:	00003309 	andeq	r3, r0, r9, lsl #6
    374c:	6c091000 	stcvs	0, cr1, [r9], {-0}
    3750:	02007273 	andeq	r7, r0, #805306375	; 0x30000007
    3754:	00330915 	eorseq	r0, r3, r5, lsl r9
    3758:	09140000 	ldmdbeq	r4, {}	; <UNPREDICTABLE>
    375c:	0072736d 	rsbseq	r7, r2, sp, ror #6
    3760:	33091602 	movwcc	r1, #38402	; 0x9602
    3764:	18000000 	stmdane	r0, {}	; <UNPREDICTABLE>
    3768:	00099c0a 	andeq	r9, r9, sl, lsl #24
    376c:	09170200 	ldmdbeq	r7, {r9}
    3770:	00000033 	andeq	r0, r0, r3, lsr r0
    3774:	09650a1c 	stmdbeq	r5!, {r2, r3, r4, r9, fp}^
    3778:	1b020000 	blne	83780 <__bss_end__+0x78990>
    377c:	00003309 	andeq	r3, r0, r9, lsl #6
    3780:	e10a2000 	mrs	r2, (UNDEF: 10)
    3784:	02000007 	andeq	r0, r0, #7, 0
    3788:	0033091d 	eorseq	r0, r3, sp, lsl r9
    378c:	0a240000 	beq	903794 <__bss_end__+0x8f89a4>
    3790:	000008b7 			; <UNDEFINED> instruction: 0x000008b7
    3794:	33091e02 	movwcc	r1, #40450	; 0x9e02
    3798:	28000000 	stmdacs	r0, {}	; <UNPREDICTABLE>
    379c:	08bc0b00 	ldmeq	ip!, {r8, r9, fp}
    37a0:	08010000 	stmdaeq	r1, {}	; <UNPREDICTABLE>
    37a4:	00017409 	andeq	r7, r1, r9, lsl #8
    37a8:	21500400 	cmpcs	r0, r0, lsl #8
    37ac:	33040c20 	movwcc	r0, #19488	; 0x4c20
    37b0:	0d000000 	stceq	0, cr0, [r0, #-0]
    37b4:	0000016e 	andeq	r0, r0, lr, ror #2
    37b8:	0009a40b 	andeq	sl, r9, fp, lsl #8
    37bc:	23290100 			; <UNDEFINED> instruction: 0x23290100
    37c0:	0000018f 	andeq	r0, r0, pc, lsl #3
    37c4:	20215040 	eorcs	r5, r1, r0, asr #32
    37c8:	00c2040c 	sbceq	r0, r2, ip, lsl #8
    37cc:	890d0000 	stmdbhi	sp, {}	; <UNPREDICTABLE>
    37d0:	0e000001 	cdpeq	0, 0, cr0, cr0, cr1, {0}
    37d4:	0000068f 	andeq	r0, r0, pc, lsl #13
    37d8:	e006cc01 	and	ip, r6, r1, lsl #24
    37dc:	1400009a 	strne	r0, [r0], #-154	; 0xffffff66
    37e0:	01000000 	mrseq	r0, (UNDEF: 0)
    37e4:	0001b49c 	muleq	r1, ip, r4
    37e8:	9ae80f00 	bls	ffa073f0 <__bss_end__+0xff9fc600>
    37ec:	01b40000 			; <UNDEFINED> instruction: 0x01b40000
    37f0:	10000000 	andne	r0, r0, r0
    37f4:	00000826 	andeq	r0, r0, r6, lsr #16
    37f8:	2505b601 	strcs	fp, [r5, #-1537]	; 0xfffff9ff
    37fc:	c0000000 	andgt	r0, r0, r0
    3800:	2000009a 	mulcs	r0, sl, r0
    3804:	01000000 	mrseq	r0, (UNDEF: 0)
    3808:	0001eb9c 	muleq	r1, ip, fp
    380c:	9ac80f00 	bls	ff207414 <__bss_end__+0xff1fc624>
    3810:	05a00000 	streq	r0, [r0, #0]!
    3814:	d0110000 	andsle	r0, r1, r0
    3818:	ac00009a 	stcge	0, cr0, [r0], {154}	; 0x9a
    381c:	12000005 	andne	r0, r0, #5, 0
    3820:	0c055001 	stceq	0, cr5, [r5], {1}
    3824:	20215064 	eorcs	r5, r1, r4, rrx
    3828:	77100000 	ldrvc	r0, [r0, -r0]
    382c:	01000009 	tsteq	r0, r9
    3830:	002505b3 	strhteq	r0, [r5], -r3
    3834:	9ab00000 	bls	fec0383c <__bss_end__+0xfebf8a4c>
    3838:	00100000 	andseq	r0, r0, r0
    383c:	9c010000 	stcls	0, cr0, [r1], {-0}
    3840:	00000218 	andeq	r0, r0, r8, lsl r2
    3844:	009ab80f 	addseq	fp, sl, pc, lsl #16
    3848:	0005a000 	andeq	sl, r5, r0
    384c:	9abc0f00 	bls	fef07454 <__bss_end__+0xfeefc664>
    3850:	03090000 	movweq	r0, #36864	; 0x9000
    3854:	0e000000 	cdpeq	0, 0, cr0, cr0, cr0, {0}
    3858:	000009b2 			; <UNDEFINED> instruction: 0x000009b2
    385c:	8006ab01 	andhi	sl, r6, r1, lsl #22
    3860:	3000009a 	mulcc	r0, sl, r0
    3864:	01000000 	mrseq	r0, (UNDEF: 0)
    3868:	00027c9c 	muleq	r2, ip, ip
    386c:	00631300 	rsbeq	r1, r3, r0, lsl #6
    3870:	2c19ab01 			; <UNDEFINED> instruction: 0x2c19ab01
    3874:	fe000000 	cdp2	0, 0, cr0, cr0, cr0, {0}
    3878:	fa000024 	blx	3910 <__code_start__-0x46f0>
    387c:	0f000024 	svceq	0x00000024
    3880:	00009a8c 	andeq	r9, r0, ip, lsl #21
    3884:	000005a0 	andeq	r0, r0, r0, lsr #11
    3888:	009a900f 	addseq	r9, sl, pc
    388c:	0002db00 	andeq	sp, r2, r0, lsl #22
    3890:	9aa41400 	bls	fe908898 <__bss_end__+0xfe8fdaa8>
    3894:	05b80000 	ldreq	r0, [r8, #0]!
    3898:	02720000 	rsbseq	r0, r2, #0, 0
    389c:	01120000 	tsteq	r2, r0
    38a0:	400c0550 	andmi	r0, ip, r0, asr r5
    38a4:	12202150 	eorne	r2, r0, #20
    38a8:	74055101 	strvc	r5, [r5], #-257	; 0xfffffeff
    38ac:	1aff0800 	bne	fffc58b4 <__bss_end__+0xfffbaac4>
    38b0:	9aa80f00 	bls	fea074b8 <__bss_end__+0xfe9fc6c8>
    38b4:	05a00000 	streq	r0, [r0, #0]!
    38b8:	10000000 	andne	r0, r0, r0
    38bc:	000008c8 	andeq	r0, r0, r8, asr #17
    38c0:	2505a301 	strcs	sl, [r5, #-769]	; 0xfffffcff
    38c4:	50000000 	andpl	r0, r0, r0
    38c8:	3000009a 	mulcc	r0, sl, r0
    38cc:	01000000 	mrseq	r0, (UNDEF: 0)
    38d0:	0002db9c 	muleq	r2, ip, fp
    38d4:	00631500 	rsbeq	r1, r3, r0, lsl #10
    38d8:	2509a701 	strcs	sl, [r9, #-1793]	; 0xfffff8ff
    38dc:	1e000000 	cdpne	0, 0, cr0, cr0, cr0, {0}
    38e0:	1c000025 	stcne	0, cr0, [r0], {37}	; 0x25
    38e4:	0f000025 	svceq	0x00000025
    38e8:	00009a58 	andeq	r9, r0, r8, asr sl
    38ec:	000005a0 	andeq	r0, r0, r0, lsr #11
    38f0:	009a5c0f 	addseq	r5, sl, pc, lsl #24
    38f4:	00030900 	andeq	r0, r3, r0, lsl #18
    38f8:	9a6c1400 	bls	1b08900 <__bss_end__+0x1afdb10>
    38fc:	05ac0000 	streq	r0, [ip, #0]!
    3900:	02d10000 	sbcseq	r0, r1, #0, 0
    3904:	01120000 	tsteq	r2, r0
    3908:	400c0550 	andmi	r0, ip, r0, asr r5
    390c:	00202150 	eoreq	r2, r0, r0, asr r1
    3910:	009a740f 	addseq	r7, sl, pc, lsl #8
    3914:	0005a000 	andeq	sl, r5, r0
    3918:	18100000 	ldmdane	r0, {}	; <UNPREDICTABLE>
    391c:	01000008 	tsteq	r0, r8
    3920:	00250594 	mlaeq	r5, r4, r5, r0
    3924:	9a300000 	bls	c0392c <__bss_end__+0xbf8b3c>
    3928:	00200000 	eoreq	r0, r0, r0
    392c:	9c010000 	stcls	0, cr0, [r1], {-0}
    3930:	00000309 	andeq	r0, r0, r9, lsl #6
    3934:	009a3c11 	addseq	r3, sl, r1, lsl ip
    3938:	0005ac00 	andeq	sl, r5, r0, lsl #24
    393c:	50011200 	andpl	r1, r1, r0, lsl #4
    3940:	50640c05 	rsbpl	r0, r4, r5, lsl #24
    3944:	00002021 	andeq	r2, r0, r1, lsr #32
    3948:	0007e610 	andeq	lr, r7, r0, lsl r6
    394c:	058b0100 	streq	r0, [fp, #256]	; 0x100
    3950:	00000025 	andeq	r0, r0, r5, lsr #32
    3954:	00009a18 	andeq	r9, r0, r8, lsl sl
    3958:	00000018 	andeq	r0, r0, r8, lsl r0
    395c:	03379c01 	teqeq	r7, #256	; 0x100
    3960:	24110000 	ldrcs	r0, [r1], #-0
    3964:	ac00009a 	stcge	0, cr0, [r0], {154}	; 0x9a
    3968:	12000005 	andne	r0, r0, #5, 0
    396c:	0c055001 	stceq	0, cr5, [r5], {1}
    3970:	20215064 	eorcs	r5, r1, r4, rrx
    3974:	ad0e0000 	stcge	0, cr0, [lr, #-0]
    3978:	01000006 	tsteq	r0, r6
    397c:	99680645 	stmdbls	r8!, {r0, r2, r6, r9, sl}^
    3980:	00b00000 	adcseq	r0, r0, r0
    3984:	9c010000 	stcls	0, cr0, [r1], {-0}
    3988:	00000484 	andeq	r0, r0, r4, lsl #9
    398c:	0007d816 	andeq	sp, r7, r6, lsl r8
    3990:	0e7e0100 	rpweqe	f0, f6, f0
    3994:	00000062 	andeq	r0, r0, r2, rrx
    3998:	7814010e 	ldmdavc	r4, {r1, r2, r3, r8}
    399c:	c4000099 	strgt	r0, [r0], #-153	; 0xffffff67
    39a0:	73000005 	movwvc	r0, #5
    39a4:	12000003 	andne	r0, r0, #3, 0
    39a8:	3e015001 	cdpcc	0, 0, cr5, cr1, cr1, {0}
    39ac:	01510112 	cmpeq	r1, r2, lsl r1
    39b0:	84140032 	ldrhi	r0, [r4], #-50	; 0xffffffce
    39b4:	c4000099 	strgt	r0, [r0], #-153	; 0xffffff67
    39b8:	8b000005 	blhi	39d4 <__code_start__-0x462c>
    39bc:	12000003 	andne	r0, r0, #3, 0
    39c0:	3f015001 	svccc	0x00015001
    39c4:	01510112 	cmpeq	r1, r2, lsl r1
    39c8:	880f0032 	stmdahi	pc, {r1, r4, r5}	; <UNPREDICTABLE>
    39cc:	a0000099 	mulge	r0, r9, r0
    39d0:	14000005 	strne	r0, [r0], #-5
    39d4:	00009994 	muleq	r0, r4, r9
    39d8:	0000053d 	andeq	r0, r0, sp, lsr r5
    39dc:	000003b0 			; <UNDEFINED> instruction: 0x000003b0
    39e0:	05500112 	ldrbeq	r0, [r0, #-274]	; 0xfffffeee
    39e4:	2150040c 	cmpcs	r0, ip, lsl #8
    39e8:	51011220 	tstpl	r1, r0, lsr #4
    39ec:	0f003101 	svceq	0x00003101
    39f0:	00009998 	muleq	r0, r8, r9
    39f4:	000005a0 	andeq	r0, r0, r0, lsr #11
    39f8:	0099a814 	addseq	sl, r9, r4, lsl r8
    39fc:	0005b800 	andeq	fp, r5, r0, lsl #16
    3a00:	0003d200 	andeq	sp, r3, r0, lsl #4
    3a04:	50011200 	andpl	r1, r1, r0, lsl #4
    3a08:	12007402 	andne	r7, r0, #33554432	; 0x2000000
    3a0c:	30015101 	andcc	r5, r1, r1, lsl #2
    3a10:	99b41400 	ldmibls	r4!, {sl, ip}
    3a14:	05b80000 	ldreq	r0, [r8, #0]!
    3a18:	03ee0000 	mvneq	r0, #0, 0
    3a1c:	01120000 	tsteq	r2, r0
    3a20:	440c0550 	strmi	r0, [ip], #-1360	; 0xfffffab0
    3a24:	12202150 	eorne	r2, r0, #20
    3a28:	30015101 	andcc	r5, r1, r1, lsl #2
    3a2c:	99c01400 	stmibls	r0, {sl, ip}^
    3a30:	05b80000 	ldreq	r0, [r8, #0]!
    3a34:	040a0000 	streq	r0, [sl], #-0
    3a38:	01120000 	tsteq	r2, r0
    3a3c:	4c0c0550 	cfstr32mi	mvfx0, [ip], {80}	; 0x50
    3a40:	12202150 	eorne	r2, r0, #20
    3a44:	33015101 	movwcc	r5, #4353	; 0x1101
    3a48:	99cc1400 	stmibls	ip, {sl, ip}^
    3a4c:	05b80000 	ldreq	r0, [r8, #0]!
    3a50:	04260000 	strteq	r0, [r6], #-0
    3a54:	01120000 	tsteq	r2, r0
    3a58:	500c0550 	andpl	r0, ip, r0, asr r5
    3a5c:	12202150 	eorne	r2, r0, #20
    3a60:	30015101 	andcc	r5, r1, r1, lsl #2
    3a64:	99d81400 	ldmibls	r8, {sl, ip}^
    3a68:	05b80000 	ldreq	r0, [r8, #0]!
    3a6c:	04430000 	strbeq	r0, [r3], #-0
    3a70:	01120000 	tsteq	r2, r0
    3a74:	480c0550 	stmdami	ip, {r4, r6, r8, sl}
    3a78:	12202150 	eorne	r2, r0, #20
    3a7c:	08025101 	stmdaeq	r2, {r0, r8, ip, lr}
    3a80:	e41400c7 	ldr	r0, [r4], #-199	; 0xffffff39
    3a84:	b8000099 	stmdalt	r0, {r0, r3, r4, r7}
    3a88:	61000005 	tstvs	r0, r5
    3a8c:	12000004 	andne	r0, r0, #4, 0
    3a90:	0c055001 	stceq	0, cr5, [r5], {1}
    3a94:	20215068 	eorcs	r5, r1, r8, rrx
    3a98:	03510112 	cmpeq	r1, #-2147483644	; 0x80000004
    3a9c:	00010e0a 	andeq	r0, r1, sl, lsl #28
    3aa0:	0099f014 	addseq	pc, r9, r4, lsl r0	; <UNPREDICTABLE>
    3aa4:	0005b800 	andeq	fp, r5, r0, lsl #16
    3aa8:	00047a00 	andeq	r7, r4, r0, lsl #20
    3aac:	50011200 	andpl	r1, r1, r0, lsl #4
    3ab0:	12007402 	andne	r7, r0, #33554432	; 0x2000000
    3ab4:	33015101 	movwcc	r5, #4353	; 0x1101
    3ab8:	99f40f00 	ldmibls	r4!, {r8, r9, sl, fp}^
    3abc:	05a00000 	streq	r0, [r0, #0]!
    3ac0:	0e000000 	cdpeq	0, 0, cr0, cr0, cr0, {0}
    3ac4:	0000096a 	andeq	r0, r0, sl, ror #18
    3ac8:	f4063501 	vst3.8	{d3,d5,d7}, [r6], r1
    3acc:	2400009a 	strcs	r0, [r0], #-154	; 0xffffff66
    3ad0:	01000000 	mrseq	r0, (UNDEF: 0)
    3ad4:	0004d39c 	muleq	r4, ip, r3
    3ad8:	9afc0f00 	bls	fff076e0 <__bss_end__+0xffefc8f0>
    3adc:	01940000 	orrseq	r0, r4, r0
    3ae0:	000f0000 	andeq	r0, pc, r0
    3ae4:	a000009b 	mulge	r0, fp, r0
    3ae8:	14000005 	strne	r0, [r0], #-5
    3aec:	00009b0c 	andeq	r9, r0, ip, lsl #22
    3af0:	000004d3 	ldrdeq	r0, [r0], -r3
    3af4:	000004c9 	andeq	r0, r0, r9, asr #9
    3af8:	05500112 	ldrbeq	r0, [r0, #-274]	; 0xfffffeee
    3afc:	2150040c 	cmpcs	r0, ip, lsl #8
    3b00:	51011220 	tstpl	r1, r0, lsr #4
    3b04:	00fe0902 	rscseq	r0, lr, r2, lsl #18
    3b08:	009b100f 	addseq	r1, fp, pc
    3b0c:	0005a000 	andeq	sl, r5, r0
    3b10:	a9170000 	ldmdbge	r7, {}	; <UNPREDICTABLE>
    3b14:	01000009 	tsteq	r0, r9
    3b18:	99280d31 	stmdbls	r8!, {r0, r4, r5, r8, sl, fp}
    3b1c:	00200000 	eoreq	r0, r0, r0
    3b20:	9c010000 	stcls	0, cr0, [r1], {-0}
    3b24:	00000536 	andeq	r0, r0, r6, lsr r5
    3b28:	000a0318 	andeq	r0, sl, r8, lsl r3
    3b2c:	25310100 	ldrcs	r0, [r1, #-256]!	; 0xffffff00
    3b30:	00000536 	andeq	r0, r0, r6, lsr r5
    3b34:	00002535 	andeq	r2, r0, r5, lsr r5
    3b38:	00002531 	andeq	r2, r0, r1, lsr r5
    3b3c:	6c617613 	stclvs	6, cr7, [r1], #-76	; 0xffffffb4
    3b40:	34310100 	ldrtcc	r0, [r1], #-256	; 0xffffff00
    3b44:	0000002c 	andeq	r0, r0, ip, lsr #32
    3b48:	00002557 	andeq	r2, r0, r7, asr r5
    3b4c:	00002553 	andeq	r2, r0, r3, asr r5
    3b50:	00993814 	addseq	r3, r9, r4, lsl r8
    3b54:	0005ac00 	andeq	sl, r5, r0, lsl #24
    3b58:	00052500 	andeq	r2, r5, r0, lsl #10
    3b5c:	50011200 	andpl	r1, r1, r0, lsl #4
    3b60:	00007402 	andeq	r7, r0, r2, lsl #8
    3b64:	00994411 	addseq	r4, r9, r1, lsl r4
    3b68:	0005b800 	andeq	fp, r5, r0, lsl #16
    3b6c:	50011200 	andpl	r1, r1, r0, lsl #4
    3b70:	00007402 	andeq	r7, r0, r2, lsl #8
    3b74:	3c040c00 	stccc	12, cr0, [r4], {-0}
    3b78:	19000005 	stmdbne	r0, {r0, r2}
    3b7c:	00099417 	andeq	r9, r9, r7, lsl r4
    3b80:	0d2e0100 	stfeqs	f0, [lr, #-0]
    3b84:	00009948 	andeq	r9, r0, r8, asr #18
    3b88:	00000020 	andeq	r0, r0, r0, lsr #32
    3b8c:	05a09c01 	streq	r9, [r0, #3073]!	; 0xc01
    3b90:	03180000 	tsteq	r8, #0, 0
    3b94:	0100000a 	tsteq	r0, sl
    3b98:	0536242e 	ldreq	r2, [r6, #-1070]!	; 0xfffffbd2
    3b9c:	25790000 	ldrbcs	r0, [r9, #-0]!
    3ba0:	25750000 	ldrbcs	r0, [r5, #-0]!
    3ba4:	76130000 	ldrvc	r0, [r3], -r0
    3ba8:	01006c61 	tsteq	r0, r1, ror #24
    3bac:	002c332e 	eoreq	r3, ip, lr, lsr #6
    3bb0:	259b0000 	ldrcs	r0, [fp]
    3bb4:	25970000 	ldrcs	r0, [r7]
    3bb8:	58140000 	ldmdapl	r4, {}	; <UNPREDICTABLE>
    3bbc:	ac000099 	stcge	0, cr0, [r0], {153}	; 0x99
    3bc0:	8f000005 	svchi	0x00000005
    3bc4:	12000005 	andne	r0, r0, #5, 0
    3bc8:	74025001 	strvc	r5, [r2], #-1
    3bcc:	64110000 	ldrvs	r0, [r1], #-0
    3bd0:	b8000099 	stmdalt	r0, {r0, r3, r4, r7}
    3bd4:	12000005 	andne	r0, r0, #5, 0
    3bd8:	74025001 	strvc	r5, [r2], #-1
    3bdc:	1a000000 	bne	3be4 <__code_start__-0x441c>
    3be0:	00000777 	andeq	r0, r0, r7, ror r7
    3be4:	00000777 	andeq	r0, r0, r7, ror r7
    3be8:	1a069c03 	bne	1aabfc <__bss_end__+0x19fe0c>
    3bec:	000009de 	ldrdeq	r0, [r0], -lr
    3bf0:	000009de 	ldrdeq	r0, [r0], -lr
    3bf4:	1a0bc303 	bne	2f4808 <__bss_end__+0x2e9a18>
    3bf8:	000007d2 	ldrdeq	r0, [r0], -r2
    3bfc:	000007d2 	ldrdeq	r0, [r0], -r2
    3c00:	1a06ae03 	bne	1af414 <__bss_end__+0x1a4624>
    3c04:	000009cc 	andeq	r0, r0, ip, asr #19
    3c08:	000009cc 	andeq	r0, r0, ip, asr #19
    3c0c:	00061904 	andeq	r1, r6, r4, lsl #18
    3c10:	000008e9 	andeq	r0, r0, r9, ror #17
    3c14:	150c0004 	strne	r0, [ip, #-4]
    3c18:	01040000 	mrseq	r0, (UNDEF: 4)
    3c1c:	000008d2 	ldrdeq	r0, [r0], -r2
    3c20:	000a6e0c 	andeq	r6, sl, ip, lsl #28
    3c24:	00088200 	andeq	r8, r8, r0, lsl #4
    3c28:	009b1800 	addseq	r1, fp, r0, lsl #16
    3c2c:	0003b000 	andeq	fp, r3, r0
    3c30:	001ef900 	andseq	pc, lr, r0, lsl #18
    3c34:	05040200 	streq	r0, [r4, #-512]	; 0xfffffe00
    3c38:	00746e69 	rsbseq	r6, r4, r9, ror #28
    3c3c:	a8070403 	stmdage	r7, {r0, r1, sl}
    3c40:	03000000 	movweq	r0, #0
    3c44:	00460601 	subeq	r0, r6, r1, lsl #12
    3c48:	02030000 	andeq	r0, r3, #0, 0
    3c4c:	0000f505 	andeq	pc, r0, r5, lsl #10
    3c50:	05040300 	streq	r0, [r4, #-768]	; 0xfffffd00
    3c54:	000000ba 	strheq	r0, [r0], -sl
    3c58:	b5050803 	strlt	r0, [r5, #-2051]	; 0xfffff7fd
    3c5c:	03000000 	movweq	r0, #0
    3c60:	00440801 	subeq	r0, r4, r1, lsl #16
    3c64:	02030000 	andeq	r0, r3, #0, 0
    3c68:	00005f07 	andeq	r5, r0, r7, lsl #30
    3c6c:	02600400 	rsbeq	r0, r0, #0, 8
    3c70:	34030000 	strcc	r0, [r3], #-0
    3c74:	00006919 	andeq	r6, r0, r9, lsl r9
    3c78:	07040300 	streq	r0, [r4, -r0, lsl #6]
    3c7c:	000000a3 	andeq	r0, r0, r3, lsr #1
    3c80:	9e070803 	cdpls	8, 0, cr0, cr7, cr3, {0}
    3c84:	03000000 	movweq	r0, #0
    3c88:	004d0801 	subeq	r0, sp, r1, lsl #16
    3c8c:	77050000 	strvc	r0, [r5, -r0]
    3c90:	03000000 	movweq	r0, #0
    3c94:	03070408 	movweq	r0, #29704	; 0x7408
    3c98:	04060000 	streq	r0, [r6], #-0
    3c9c:	2c040707 	stccs	7, cr0, [r4], {7}
    3ca0:	01000000 	mrseq	r0, (UNDEF: 0)
    3ca4:	00a4061f 	adceq	r0, r4, pc, lsl r6
    3ca8:	08080000 	stmdaeq	r8, {}	; <UNPREDICTABLE>
    3cac:	0000000a 	andeq	r0, r0, sl
    3cb0:	00002000 	andeq	r2, r0, r0
    3cb4:	0005d809 	andeq	sp, r5, r9, lsl #16
    3cb8:	0d220100 	stfeqs	f0, [r2, #-0]
    3cbc:	00000077 	andeq	r0, r0, r7, ror r0
    3cc0:	0003d60a 	andeq	sp, r3, sl, lsl #12
    3cc4:	0e230100 	sufeqs	f0, f3, f0
    3cc8:	000000c2 	andeq	r0, r0, r2, asr #1
    3ccc:	a9b40305 	ldmibge	r4!, {r0, r2, r8, r9}
    3cd0:	040b0000 	streq	r0, [fp], #-0
    3cd4:	00000077 	andeq	r0, r0, r7, ror r0
    3cd8:	0009ec0a 	andeq	lr, r9, sl, lsl #24
    3cdc:	0e240100 	sufeqs	f0, f4, f0
    3ce0:	000000c2 	andeq	r0, r0, r2, asr #1
    3ce4:	a9b80305 	ldmibge	r8!, {r0, r2, r8, r9}
    3ce8:	4d0a0000 	stcmi	0, cr0, [sl, #-0]
    3cec:	0100000a 	tsteq	r0, sl
    3cf0:	00c20e25 	sbceq	r0, r2, r5, lsr #28
    3cf4:	03050000 	movweq	r0, #20480	; 0x5000
    3cf8:	0000a9bc 			; <UNDEFINED> instruction: 0x0000a9bc
    3cfc:	000a230c 	andeq	r2, sl, ip, lsl #6
    3d00:	06750100 	ldrbteq	r0, [r5], -r0, lsl #2
    3d04:	00009e68 	andeq	r9, r0, r8, ror #28
    3d08:	00000060 	andeq	r0, r0, r0, rrx
    3d0c:	01649c01 	cmneq	r4, r1, lsl #24
    3d10:	700d0000 	andvc	r0, sp, r0
    3d14:	16750100 	ldrbtne	r0, [r5], -r0, lsl #2
    3d18:	0000008a 	andeq	r0, r0, sl, lsl #1
    3d1c:	000025bf 			; <UNDEFINED> instruction: 0x000025bf
    3d20:	000025b9 			; <UNDEFINED> instruction: 0x000025b9
    3d24:	0000840e 	andeq	r8, r0, lr, lsl #8
    3d28:	00017400 	andeq	r7, r1, r0, lsl #8
    3d2c:	a4030500 	strge	r0, [r3], #-1280	; 0xfffffb00
    3d30:	0f0000a9 	svceq	0x000000a9
    3d34:	00009eb4 			; <UNDEFINED> instruction: 0x00009eb4
    3d38:	000008bc 			; <UNDEFINED> instruction: 0x000008bc
    3d3c:	0000015a 	andeq	r0, r0, sl, asr r1
    3d40:	05500110 	ldrbeq	r0, [r0, #-272]	; 0xfffffef0
    3d44:	00a91c03 	adceq	r1, r9, r3, lsl #24
    3d48:	51011000 	mrspl	r1, (UNDEF: 1)
    3d4c:	a7b40305 	ldrge	r0, [r4, r5, lsl #6]!
    3d50:	01100000 	tsteq	r0, r0
    3d54:	a4030552 	strge	r0, [r3], #-1362	; 0xfffffaae
    3d58:	100000a9 	andne	r0, r0, r9, lsr #1
    3d5c:	08025301 	stmdaeq	r2, {r0, r8, r9, ip, lr}
    3d60:	7d021077 	stcvc	0, cr1, [r2, #-476]	; 0xfffffe24
    3d64:	01f30300 	mvnseq	r0, r0, lsl #6
    3d68:	b8110050 	ldmdalt	r1, {r4, r6}
    3d6c:	c800009e 	stmdagt	r0, {r1, r2, r3, r4, r7}
    3d70:	00000008 	andeq	r0, r0, r8
    3d74:	00007e12 	andeq	r7, r0, r2, lsl lr
    3d78:	00017400 	andeq	r7, r1, r0, lsl #8
    3d7c:	002c1300 	eoreq	r1, ip, r0, lsl #6
    3d80:	00090000 	andeq	r0, r9, r0
    3d84:	00016405 	andeq	r6, r1, r5, lsl #8
    3d88:	0a111400 	beq	448d90 <__bss_end__+0x43dfa0>
    3d8c:	72010000 	andvc	r0, r1, #0, 0
    3d90:	009e5406 	addseq	r5, lr, r6, lsl #8
    3d94:	00001400 	andeq	r1, r0, r0, lsl #8
    3d98:	0c9c0100 	ldfeqs	f0, [ip], {0}
    3d9c:	00000221 	andeq	r0, r0, r1, lsr #4
    3da0:	50066f01 	andpl	r6, r6, r1, lsl #30
    3da4:	0400009e 	streq	r0, [r0], #-158	; 0xffffff62
    3da8:	01000000 	mrseq	r0, (UNDEF: 0)
    3dac:	0001ae9c 	muleq	r1, ip, lr
    3db0:	00701500 	rsbseq	r1, r0, r0, lsl #10
    3db4:	8a126f01 	bhi	49f9c0 <__bss_end__+0x494bd0>
    3db8:	01000000 	mrseq	r0, (UNDEF: 0)
    3dbc:	b0160050 	andslt	r0, r6, r0, asr r0
    3dc0:	0100000a 	tsteq	r0, sl
    3dc4:	008a075e 	addeq	r0, sl, lr, asr r7
    3dc8:	9d380000 	ldcls	0, cr0, [r8, #-0]
    3dcc:	01180000 	tsteq	r8, r0
    3dd0:	9c010000 	stcls	0, cr0, [r1], {-0}
    3dd4:	0000042c 	andeq	r0, r0, ip, lsr #8
    3dd8:	0002ca17 	andeq	ip, r2, r7, lsl sl
    3ddc:	205e0100 	subscs	r0, lr, r0, lsl #2
    3de0:	0000002c 	andeq	r0, r0, ip, lsr #32
    3de4:	00002600 	andeq	r2, r0, r0, lsl #12
    3de8:	000025ec 	andeq	r2, r0, ip, ror #11
    3dec:	000a2d17 	andeq	r2, sl, r7, lsl sp
    3df0:	315e0100 	cmpcc	lr, r0, lsl #2
    3df4:	0000002c 	andeq	r0, r0, ip, lsr #32
    3df8:	00002699 	muleq	r0, r9, r6
    3dfc:	00002685 	andeq	r2, r0, r5, lsl #13
    3e00:	0000840e 	andeq	r8, r0, lr, lsl #8
    3e04:	00043c00 	andeq	r3, r4, r0, lsl #24
    3e08:	8c030500 	cfstr32hi	mvfx0, [r3], {-0}
    3e0c:	180000a9 	stmdane	r0, {r0, r3, r5, r7}
    3e10:	66010068 	strvs	r0, [r1], -r8, rrx
    3e14:	00002c0e 	andeq	r2, r0, lr, lsl #24
    3e18:	00274f00 	eoreq	r4, r7, r0, lsl #30
    3e1c:	00274300 	eoreq	r4, r7, r0, lsl #6
    3e20:	08541900 	ldmdaeq	r4, {r8, fp, ip}^
    3e24:	9d480000 	stclls	0, cr0, [r8, #-0]
    3e28:	48040000 	stmdami	r4, {}	; <UNPREDICTABLE>
    3e2c:	0400009d 	streq	r0, [r0], #-157	; 0xffffff63
    3e30:	01000000 	mrseq	r0, (UNDEF: 0)
    3e34:	02380560 	eorseq	r0, r8, #96, 10	; 0x18000000
    3e38:	651a0000 	ldrvs	r0, [sl, #-0]
    3e3c:	a3000008 	movwge	r0, #8
    3e40:	a1000027 	tstge	r0, r7, lsr #32
    3e44:	00000027 	andeq	r0, r0, r7, lsr #32
    3e48:	00089619 	andeq	r9, r8, r9, lsl r6
    3e4c:	009d5400 	addseq	r5, sp, r0, lsl #8
    3e50:	9d540200 	lfmls	f0, 2, [r4, #-0]
    3e54:	00080000 	andeq	r0, r8, r0
    3e58:	61010000 	mrsvs	r0, (UNDEF: 1)
    3e5c:	00026c11 	andeq	r6, r2, r1, lsl ip
    3e60:	08b11a00 	ldmeq	r1!, {r9, fp, ip}
    3e64:	27b80000 	ldrcs	r0, [r8, r0]!
    3e68:	27b60000 	ldrcs	r0, [r6, r0]!
    3e6c:	a71a0000 	ldrge	r0, [sl, -r0]
    3e70:	ce000008 	cdpgt	0, 0, cr0, cr0, cr8, {0}
    3e74:	cc000027 	stcgt	0, cr0, [r0], {39}	; 0x27
    3e78:	00000027 	andeq	r0, r0, r7, lsr #32
    3e7c:	00081f1b 	andeq	r1, r8, fp, lsl pc
    3e80:	009d6400 	addseq	r6, sp, r0, lsl #8
    3e84:	03d00100 	bicseq	r0, r0, #0
    3e88:	67010000 	strvs	r0, [r1, -r0]
    3e8c:	00030a09 	andeq	r0, r3, r9, lsl #20
    3e90:	083a1a00 	ldmdaeq	sl!, {r9, fp, ip}
    3e94:	27e70000 	strbcs	r0, [r7, r0]!
    3e98:	27e10000 	strbcs	r0, [r1, r0]!
    3e9c:	301a0000 	andscc	r0, sl, r0
    3ea0:	2e000008 	cdpcs	0, 0, cr0, cr0, cr8, {0}
    3ea4:	26000028 	strcs	r0, [r0], -r8, lsr #32
    3ea8:	1c000028 	stcne	0, cr0, [r0], {40}	; 0x28
    3eac:	000003d0 	ldrdeq	r0, [r0], -r0	; <UNPREDICTABLE>
    3eb0:	00085419 	andeq	r5, r8, r9, lsl r4
    3eb4:	009d6400 	addseq	r6, sp, r0, lsl #8
    3eb8:	9d640400 	cfstrdls	mvd0, [r4, #-0]
    3ebc:	00040000 	andeq	r0, r4, r0
    3ec0:	11010000 	mrsne	r0, (UNDEF: 1)
    3ec4:	0002c705 	andeq	ip, r2, r5, lsl #14
    3ec8:	08651a00 	stmdaeq	r5!, {r9, fp, ip}^
    3ecc:	286c0000 	stmdacs	ip!, {}^	; <UNPREDICTABLE>
    3ed0:	286a0000 	stmdacs	sl!, {}^	; <UNPREDICTABLE>
    3ed4:	0f000000 	svceq	0x00000000
    3ed8:	00009dfc 	strdeq	r9, [r0], -ip
    3edc:	000008bc 			; <UNDEFINED> instruction: 0x000008bc
    3ee0:	000002ff 	strdeq	r0, [r0], -pc	; <UNPREDICTABLE>
    3ee4:	05500110 	ldrbeq	r0, [r0, #-272]	; 0xfffffef0
    3ee8:	00a18403 	adceq	r8, r1, r3, lsl #8
    3eec:	51011000 	mrspl	r1, (UNDEF: 1)
    3ef0:	a7b40305 	ldrge	r0, [r4, r5, lsl #6]!
    3ef4:	01100000 	tsteq	r0, r0
    3ef8:	9c030552 	cfstr32ls	mvfx0, [r3], {82}	; 0x52
    3efc:	100000a9 	andne	r0, r0, r9, lsr #1
    3f00:	41015301 	tstmi	r1, r1, lsl #6
    3f04:	007d0210 	rsbseq	r0, sp, r0, lsl r2
    3f08:	a8c80305 	stmiage	r8, {r0, r2, r8, r9}^
    3f0c:	11000000 	mrsne	r0, (UNDEF: 0)
    3f10:	00009e00 	andeq	r9, r0, r0, lsl #28
    3f14:	000008c8 	andeq	r0, r0, r8, asr #17
    3f18:	70190000 	andsvc	r0, r9, r0
    3f1c:	7c000008 	stcvc	0, cr0, [r0], {8}
    3f20:	0300009d 	movweq	r0, #157	; 0x9d
    3f24:	00009d7c 	andeq	r9, r0, ip, ror sp
    3f28:	00000004 	andeq	r0, r0, r4
    3f2c:	3e056801 	cdpcc	8, 0, cr6, cr5, cr1, {0}
    3f30:	1a000003 	bne	3f44 <__code_start__-0x40bc>
    3f34:	0000088b 	andeq	r0, r0, fp, lsl #17
    3f38:	00002881 	andeq	r2, r0, r1, lsl #17
    3f3c:	0000287f 	andeq	r2, r0, pc, ror r8
    3f40:	0008811a 	andeq	r8, r8, sl, lsl r1
    3f44:	00289600 	eoreq	r9, r8, r0, lsl #12
    3f48:	00289400 	eoreq	r9, r8, r0, lsl #8
    3f4c:	940f0000 	strls	r0, [pc], #-0	; 3f54 <__code_start__-0x40ac>
    3f50:	4100009d 	swpmi	r0, sp, [r0]	; <UNPREDICTABLE>
    3f54:	53000004 	movwpl	r0, #4
    3f58:	10000003 	andne	r0, r0, r3
    3f5c:	f3035001 	vhadd.u8	d5, d3, d1
    3f60:	0f005001 	svceq	0x00005001
    3f64:	00009db8 			; <UNDEFINED> instruction: 0x00009db8
    3f68:	000008bc 			; <UNDEFINED> instruction: 0x000008bc
    3f6c:	0000038c 	andeq	r0, r0, ip, lsl #7
    3f70:	05500110 	ldrbeq	r0, [r0, #-272]	; 0xfffffef0
    3f74:	00a18403 	adceq	r8, r1, r3, lsl #8
    3f78:	51011000 	mrspl	r1, (UNDEF: 1)
    3f7c:	a7b40305 	ldrge	r0, [r4, r5, lsl #6]!
    3f80:	01100000 	tsteq	r0, r0
    3f84:	8c030552 	cfstr32hi	mvfx0, [r3], {82}	; 0x52
    3f88:	100000a9 	andne	r0, r0, r9, lsr #1
    3f8c:	08025301 	stmdaeq	r2, {r0, r8, r9, ip, lr}
    3f90:	7d02105f 	stcvc	0, cr1, [r2, #-380]	; 0xfffffe84
    3f94:	c4030500 	strgt	r0, [r3], #-1280	; 0xfffffb00
    3f98:	000000a7 	andeq	r0, r0, r7, lsr #1
    3f9c:	009dbc11 	addseq	fp, sp, r1, lsl ip
    3fa0:	0008c800 	andeq	ip, r8, r0, lsl #16
    3fa4:	9dc01100 	stflse	f1, [r0]
    3fa8:	08d40000 	ldmeq	r4, {}^	; <UNPREDICTABLE>
    3fac:	dc0f0000 	stcle	0, cr0, [pc], {-0}
    3fb0:	bc00009d 	stclt	0, cr0, [r0], {157}	; 0x9d
    3fb4:	d7000008 	strle	r0, [r0, -r8]
    3fb8:	10000003 	andne	r0, r0, r3
    3fbc:	03055001 	movweq	r5, #20481	; 0x5001
    3fc0:	0000a880 	andeq	sl, r0, r0, lsl #17
    3fc4:	05510110 	ldrbeq	r0, [r1, #-272]	; 0xfffffef0
    3fc8:	00a7b403 	adceq	fp, r7, r3, lsl #8
    3fcc:	52011000 	andpl	r1, r1, #0, 0
    3fd0:	a98c0305 	stmibge	ip, {r0, r2, r8, r9}
    3fd4:	01100000 	tsteq	r0, r0
    3fd8:	60080253 	andvs	r0, r8, r3, asr r2
    3fdc:	007d0210 	rsbseq	r0, sp, r0, lsl r2
    3fe0:	a8b40305 	ldmge	r4!, {r0, r2, r8, r9}
    3fe4:	11000000 	mrsne	r0, (UNDEF: 0)
    3fe8:	00009de0 	andeq	r9, r0, r0, ror #27
    3fec:	000008c8 	andeq	r0, r0, r8, asr #17
    3ff0:	009e0411 	addseq	r0, lr, r1, lsl r4
    3ff4:	0008d400 	andeq	sp, r8, r0, lsl #8
    3ff8:	9e200f00 	cdpls	15, 2, cr0, cr0, cr0, {0}
    3ffc:	08bc0000 	ldmeq	ip!, {}	; <UNPREDICTABLE>
    4000:	04220000 	strteq	r0, [r2], #-0
    4004:	01100000 	tsteq	r0, r0
    4008:	d4030550 	strle	r0, [r3], #-1360	; 0xfffffab0
    400c:	100000a8 	andne	r0, r0, r8, lsr #1
    4010:	03055101 	movweq	r5, #20737	; 0x5101
    4014:	0000a7b4 			; <UNDEFINED> instruction: 0x0000a7b4
    4018:	05520110 	ldrbeq	r0, [r2, #-272]	; 0xfffffef0
    401c:	00a98c03 	adceq	r8, r9, r3, lsl #24
    4020:	53011000 	movwpl	r1, #4096	; 0x1000
    4024:	10680802 	rsbne	r0, r8, r2, lsl #16
    4028:	05007d02 	streq	r7, [r0, #-3330]	; 0xfffff2fe
    402c:	00a90003 	adceq	r0, r9, r3
    4030:	24110000 	ldrcs	r0, [r1], #-0
    4034:	c800009e 	stmdagt	r0, {r1, r2, r3, r4, r7}
    4038:	00000008 	andeq	r0, r0, r8
    403c:	00007e12 	andeq	r7, r0, r2, lsl lr
    4040:	00043c00 	andeq	r3, r4, r0, lsl #24
    4044:	002c1300 	eoreq	r1, ip, r0, lsl #6
    4048:	000f0000 	andeq	r0, pc, r0
    404c:	00042c05 	andeq	r2, r4, r5, lsl #24
    4050:	03f51600 	mvnseq	r1, #0, 12
    4054:	53010000 	movwpl	r0, #4096	; 0x1000
    4058:	00008a07 	andeq	r8, r0, r7, lsl #20
    405c:	009cd400 	addseq	sp, ip, r0, lsl #8
    4060:	00006400 	andeq	r6, r0, r0, lsl #8
    4064:	089c0100 	ldmeq	ip, {r8}
    4068:	17000005 	strne	r0, [r0, -r5]
    406c:	000002ca 	andeq	r0, r0, sl, asr #5
    4070:	2c185301 	ldccs	3, cr5, [r8], {1}
    4074:	b1000000 	mrslt	r0, (UNDEF: 0)
    4078:	a9000028 	stmdbge	r0, {r3, r5}
    407c:	0e000028 	cdpeq	0, 0, cr0, cr0, cr8, {1}
    4080:	00000084 	andeq	r0, r0, r4, lsl #1
    4084:	00000518 	andeq	r0, r0, r8, lsl r5
    4088:	a9840305 	stmibge	r4, {r0, r2, r8, r9}
    408c:	031d0000 	tsteq	sp, #0, 0
    4090:	0100000a 	tsteq	r0, sl
    4094:	008a0b55 	addeq	r0, sl, r5, asr fp
    4098:	28e90000 	stmiacs	r9!, {}^	; <UNPREDICTABLE>
    409c:	28e50000 	stmiacs	r5!, {}^	; <UNPREDICTABLE>
    40a0:	ec0f0000 	stc	0, cr0, [pc], {-0}
    40a4:	1d00009c 	stcne	0, cr0, [r0, #-624]	; 0xfffffd90
    40a8:	a6000005 	strge	r0, [r0], -r5
    40ac:	10000004 	andne	r0, r0, r4
    40b0:	74025001 	strvc	r5, [r2], #-1
    40b4:	fc0f0000 	stc2	0, cr0, [pc], {-0}
    40b8:	e000009c 	mul	r0, ip, r0
    40bc:	c5000008 	strgt	r0, [r0, #-8]
    40c0:	10000004 	andne	r0, r0, r4
    40c4:	75025001 	strvc	r5, [r2, #-1]
    40c8:	51011000 	mrspl	r1, (UNDEF: 1)
    40cc:	01103001 	tsteq	r0, r1
    40d0:	00740252 	rsbseq	r0, r4, r2, asr r2
    40d4:	9d240f00 	stcls	15, cr0, [r4, #-0]
    40d8:	08bc0000 	ldmeq	ip!, {}	; <UNPREDICTABLE>
    40dc:	04fe0000 	ldrbteq	r0, [lr], #0
    40e0:	01100000 	tsteq	r0, r0
    40e4:	84030550 	strhi	r0, [r3], #-1360	; 0xfffffab0
    40e8:	100000a1 	andne	r0, r0, r1, lsr #1
    40ec:	03055101 	movweq	r5, #20737	; 0x5101
    40f0:	0000a7b4 			; <UNDEFINED> instruction: 0x0000a7b4
    40f4:	05520110 	ldrbeq	r0, [r2, #-272]	; 0xfffffef0
    40f8:	00a98403 	adceq	r8, r9, r3, lsl #8
    40fc:	53011000 	movwpl	r1, #4096	; 0x1000
    4100:	10540802 	subsne	r0, r4, r2, lsl #16
    4104:	05007d02 	streq	r7, [r0, #-3330]	; 0xfffff2fe
    4108:	00a7c403 	adceq	ip, r7, r3, lsl #8
    410c:	28110000 	ldmdacs	r1, {}	; <UNPREDICTABLE>
    4110:	c800009d 	stmdagt	r0, {r0, r2, r3, r4, r7}
    4114:	00000008 	andeq	r0, r0, r8
    4118:	00007e12 	andeq	r7, r0, r2, lsl lr
    411c:	00051800 	andeq	r1, r5, r0, lsl #16
    4120:	002c1300 	eoreq	r1, ip, r0, lsl #6
    4124:	00070000 	andeq	r0, r7, r0
    4128:	00050805 	andeq	r0, r5, r5, lsl #16
    412c:	0a561600 	beq	1589934 <__bss_end__+0x157eb44>
    4130:	47010000 	strmi	r0, [r1, -r0]
    4134:	00008a07 	andeq	r8, r0, r7, lsl #20
    4138:	009c3c00 	addseq	r3, ip, r0, lsl #24
    413c:	00009800 	andeq	r9, r0, r0, lsl #16
    4140:	2b9c0100 	blcs	fe704548 <__bss_end__+0xfe6f9758>
    4144:	17000006 	strne	r0, [r0, -r6]
    4148:	000002ca 	andeq	r0, r0, sl, asr #5
    414c:	2c204701 	stccs	7, cr4, [r0], #-4
    4150:	17000000 	strne	r0, [r0, -r0]
    4154:	07000029 	streq	r0, [r0, -r9, lsr #32]
    4158:	0e000029 	cdpeq	0, 0, cr0, cr0, cr9, {1}
    415c:	00000084 	andeq	r0, r0, r4, lsl #1
    4160:	0000043c 	andeq	r0, r0, ip, lsr r4
    4164:	a9740305 	ldmdbge	r4!, {r0, r2, r8, r9}^
    4168:	031d0000 	tsteq	sp, #0, 0
    416c:	0100000a 	tsteq	r0, sl
    4170:	008a0b4b 	addeq	r0, sl, fp, asr #22
    4174:	29890000 	stmibcs	r9, {}	; <UNPREDICTABLE>
    4178:	29850000 	stmibcs	r5, {}	; <UNPREDICTABLE>
    417c:	1f1b0000 	svcne	0x001b0000
    4180:	4c000008 	stcmi	0, cr0, [r0], {8}
    4184:	0300009c 	movweq	r0, #156	; 0x9c
    4188:	000003b8 			; <UNDEFINED> instruction: 0x000003b8
    418c:	a30e4901 	movwge	r4, #59649	; 0xe901
    4190:	1a000005 	bne	41ac <__code_start__-0x3e54>
    4194:	0000083a 	andeq	r0, r0, sl, lsr r8
    4198:	000029a9 	andeq	r2, r0, r9, lsr #19
    419c:	000029a7 	andeq	r2, r0, r7, lsr #19
    41a0:	0008301a 	andeq	r3, r8, sl, lsl r0
    41a4:	0029c100 	eoreq	ip, r9, r0, lsl #2
    41a8:	0029bd00 	eoreq	fp, r9, r0, lsl #26
    41ac:	03b81e00 			; <UNDEFINED> instruction: 0x03b81e00
    41b0:	0f000000 	svceq	0x00000000
    41b4:	00009c94 	muleq	r0, r4, ip
    41b8:	000008bc 			; <UNDEFINED> instruction: 0x000008bc
    41bc:	000005dc 	ldrdeq	r0, [r0], -ip
    41c0:	05500110 	ldrbeq	r0, [r0, #-272]	; 0xfffffef0
    41c4:	00a18403 	adceq	r8, r1, r3, lsl #8
    41c8:	51011000 	mrspl	r1, (UNDEF: 1)
    41cc:	a7b40305 	ldrge	r0, [r4, r5, lsl #6]!
    41d0:	01100000 	tsteq	r0, r0
    41d4:	74030552 	strvc	r0, [r3], #-1362	; 0xfffffaae
    41d8:	100000a9 	andne	r0, r0, r9, lsr #1
    41dc:	08025301 	stmdaeq	r2, {r0, r8, r9, ip, lr}
    41e0:	7d021048 	stcvc	0, cr1, [r2, #-288]	; 0xfffffee0
    41e4:	c4030500 	strgt	r0, [r3], #-1280	; 0xfffffb00
    41e8:	000000a7 	andeq	r0, r0, r7, lsr #1
    41ec:	009c9811 	addseq	r9, ip, r1, lsl r8
    41f0:	0008c800 	andeq	ip, r8, r0, lsl #16
    41f4:	9cb80f00 	ldcls	15, cr0, [r8]
    41f8:	08bc0000 	ldmeq	ip!, {}	; <UNPREDICTABLE>
    41fc:	06210000 	strteq	r0, [r1], -r0
    4200:	01100000 	tsteq	r0, r0
    4204:	40030550 	andmi	r0, r3, r0, asr r5
    4208:	100000a8 	andne	r0, r0, r8, lsr #1
    420c:	03055101 	movweq	r5, #20737	; 0x5101
    4210:	0000a7b4 			; <UNDEFINED> instruction: 0x0000a7b4
    4214:	05520110 	ldrbeq	r0, [r2, #-272]	; 0xfffffef0
    4218:	00a97403 	adceq	r7, r9, r3, lsl #8
    421c:	53011000 	movwpl	r1, #4096	; 0x1000
    4220:	104e0802 	subne	r0, lr, r2, lsl #16
    4224:	08007d02 	stmdaeq	r0, {r1, r8, sl, fp, ip, sp, lr}
    4228:	235001f3 	cmpcs	r0, #-1073741764	; 0xc000003c
    422c:	1af80907 	bne	ffe06650 <__bss_end__+0xffdfb860>
    4230:	9cbc1100 	ldflss	f1, [ip]
    4234:	08c80000 	stmiaeq	r8, {}^	; <UNPREDICTABLE>
    4238:	0c000000 	stceq	0, cr0, [r0], {-0}
    423c:	00000a78 	andeq	r0, r0, r8, ror sl
    4240:	e4063c01 	str	r3, [r6], #-3073	; 0xfffff3ff
    4244:	5800009b 	stmdapl	r0, {r0, r1, r3, r4, r7}
    4248:	01000000 	mrseq	r0, (UNDEF: 0)
    424c:	0006cf9c 	muleq	r6, ip, pc	; <UNPREDICTABLE>
    4250:	03650a00 	cmneq	r5, #0, 20
    4254:	3d010000 	stccc	0, cr0, [r1, #-0]
    4258:	00002510 	andeq	r2, r0, r0, lsl r5
    425c:	ec030500 	cfstr32	mvfx0, [r3], {-0}
    4260:	0e0000ad 	cdpeq	0, 0, cr0, cr0, cr13, {5}
    4264:	00000084 	andeq	r0, r0, r4, lsl #1
    4268:	000006df 	ldrdeq	r0, [r0], -pc	; <UNPREDICTABLE>
    426c:	a9640305 	stmdbge	r4!, {r0, r2, r8, r9}^
    4270:	07070000 	streq	r0, [r7, -r0]
    4274:	00002c04 	andeq	r2, r0, r4, lsl #24
    4278:	0a420100 	beq	1084680 <__bss_end__+0x1079890>
    427c:	0000067a 	andeq	r0, r0, sl, ror r6
    4280:	000a3f08 	andeq	r3, sl, r8, lsl #30
    4284:	10000000 	andne	r0, r0, r0
    4288:	100f0000 	andne	r0, pc, r0
    428c:	e400009c 	str	r0, [r0], #-156	; 0xffffff64
    4290:	96000006 	strls	r0, [r0], -r6
    4294:	10000006 	andne	r0, r0, r6
    4298:	40035001 	andmi	r5, r3, r1
    429c:	01102440 	tsteq	r0, r0, asr #8
    42a0:	48400351 	stmdami	r0, {r0, r4, r6, r8, r9}^
    42a4:	280f0024 	stmdacs	pc, {r2, r5}	; <UNPREDICTABLE>
    42a8:	bc00009c 	stclt	0, cr0, [r0], {156}	; 0x9c
    42ac:	c5000008 	strgt	r0, [r0, #-8]
    42b0:	10000006 	andne	r0, r0, r6
    42b4:	03055001 	movweq	r5, #20481	; 0x5001
    42b8:	0000a810 	andeq	sl, r0, r0, lsl r8
    42bc:	05510110 	ldrbeq	r0, [r1, #-272]	; 0xfffffef0
    42c0:	00a7b403 	adceq	fp, r7, r3, lsl #8
    42c4:	52011000 	andpl	r1, r1, #0, 0
    42c8:	a9640305 	stmdbge	r4!, {r0, r2, r8, r9}^
    42cc:	01100000 	tsteq	r0, r0
    42d0:	40080253 	andmi	r0, r8, r3, asr r2
    42d4:	9c2c1100 	stflss	f1, [ip], #-0
    42d8:	08c80000 	stmiaeq	r8, {}^	; <UNPREDICTABLE>
    42dc:	12000000 	andne	r0, r0, #0, 0
    42e0:	0000007e 	andeq	r0, r0, lr, ror r0
    42e4:	000006df 	ldrdeq	r0, [r0], -pc	; <UNPREDICTABLE>
    42e8:	00002c13 	andeq	r2, r0, r3, lsl ip
    42ec:	05000c00 	streq	r0, [r0, #-3072]	; 0xfffff400
    42f0:	000006cf 	andeq	r0, r0, pc, asr #13
    42f4:	0003fd0c 	andeq	pc, r3, ip, lsl #26
    42f8:	062d0100 	strteq	r0, [sp], -r0, lsl #2
    42fc:	00009b48 	andeq	r9, r0, r8, asr #22
    4300:	0000009c 	muleq	r0, ip, r0
    4304:	07c89c01 	strbeq	r9, [r8, r1, lsl #24]
    4308:	02170000 	andseq	r0, r7, #0, 0
    430c:	0100000a 	tsteq	r0, sl
    4310:	002c262d 	eoreq	r2, ip, sp, lsr #12
    4314:	29ef0000 	stmibcs	pc!, {}^	; <UNPREDICTABLE>
    4318:	29e10000 	stmibcs	r1!, {}^	; <UNPREDICTABLE>
    431c:	f7170000 			; <UNDEFINED> instruction: 0xf7170000
    4320:	01000009 	tsteq	r0, r9
    4324:	002c362d 	eoreq	r3, ip, sp, lsr #12
    4328:	2a570000 	bcs	15c4330 <__bss_end__+0x15b9540>
    432c:	2a4f0000 	bcs	13c4334 <__bss_end__+0x13b9544>
    4330:	031d0000 	tsteq	sp, #0, 0
    4334:	0100000a 	tsteq	r0, sl
    4338:	00c20b2e 	sbceq	r0, r2, lr, lsr #22
    433c:	2a9f0000 	bcs	fe7c4344 <__bss_end__+0xfe7b9554>
    4340:	2a910000 	bcs	fe444348 <__bss_end__+0xfe439558>
    4344:	840e0000 	strhi	r0, [lr], #-0
    4348:	d8000000 	stmdale	r0, {}	; <UNPREDICTABLE>
    434c:	05000007 	streq	r0, [r0, #-7]
    4350:	00a94c03 	adceq	r4, r9, r3, lsl #24
    4354:	9ba00f00 	blls	fe807f5c <__bss_end__+0xfe7fd16c>
    4358:	08bc0000 	ldmeq	ip!, {}	; <UNPREDICTABLE>
    435c:	077e0000 	ldrbeq	r0, [lr, -r0]!
    4360:	01100000 	tsteq	r0, r0
    4364:	84030550 	strhi	r0, [r3], #-1360	; 0xfffffab0
    4368:	100000a1 	andne	r0, r0, r1, lsr #1
    436c:	03055101 	movweq	r5, #20737	; 0x5101
    4370:	0000a7b4 			; <UNDEFINED> instruction: 0x0000a7b4
    4374:	05520110 	ldrbeq	r0, [r2, #-272]	; 0xfffffef0
    4378:	00a94c03 	adceq	r4, r9, r3, lsl #24
    437c:	53011000 	movwpl	r1, #4096	; 0x1000
    4380:	10300802 	eorsne	r0, r0, r2, lsl #16
    4384:	05007d02 	streq	r7, [r0, #-3330]	; 0xfffff2fe
    4388:	00a7c003 	adceq	ip, r7, r3
    438c:	a4110000 	ldrge	r0, [r1], #-0
    4390:	c800009b 	stmdagt	r0, {r0, r1, r3, r4, r7}
    4394:	0f000008 	svceq	0x00000008
    4398:	00009bc8 	andeq	r9, r0, r8, asr #23
    439c:	000008bc 			; <UNDEFINED> instruction: 0x000008bc
    43a0:	000007be 			; <UNDEFINED> instruction: 0x000007be
    43a4:	05500110 	ldrbeq	r0, [r0, #-272]	; 0xfffffef0
    43a8:	00a7cc03 	adceq	ip, r7, r3, lsl #24
    43ac:	51011000 	mrspl	r1, (UNDEF: 1)
    43b0:	a7b40305 	ldrge	r0, [r4, r5, lsl #6]!
    43b4:	01100000 	tsteq	r0, r0
    43b8:	4c030552 	cfstr32mi	mvfx0, [r3], {82}	; 0x52
    43bc:	100000a9 	andne	r0, r0, r9, lsr #1
    43c0:	08025301 	stmdaeq	r2, {r0, r8, r9, ip, lr}
    43c4:	7d021034 	stcvc	0, cr1, [r2, #-208]	; 0xffffff30
    43c8:	01f30300 	mvnseq	r0, r0, lsl #6
    43cc:	cc110050 	ldcgt	0, cr0, [r1], {80}	; 0x50
    43d0:	c800009b 	stmdagt	r0, {r0, r1, r3, r4, r7}
    43d4:	00000008 	andeq	r0, r0, r8
    43d8:	00007e12 	andeq	r7, r0, r2, lsl lr
    43dc:	0007d800 	andeq	sp, r7, r0, lsl #16
    43e0:	002c1300 	eoreq	r1, ip, r0, lsl #6
    43e4:	00160000 	andseq	r0, r6, r0
    43e8:	0007c805 	andeq	ip, r7, r5, lsl #16
    43ec:	0a901f00 	beq	fe40bff4 <__bss_end__+0xfe401204>
    43f0:	2a010000 	bcs	443f8 <__bss_end__+0x39608>
    43f4:	00008a07 	andeq	r8, r0, r7, lsl #20
    43f8:	009b3800 	addseq	r3, fp, r0, lsl #16
    43fc:	00001000 	andeq	r1, r0, r0
    4400:	1f9c0100 	svcne	0x009c0100
    4404:	000009e4 	andeq	r0, r0, r4, ror #19
    4408:	8a072901 	bhi	1ce814 <__bss_end__+0x1c3a24>
    440c:	28000000 	stmdacs	r0, {}	; <UNPREDICTABLE>
    4410:	1000009b 	mulne	r0, fp, r0
    4414:	01000000 	mrseq	r0, (UNDEF: 0)
    4418:	0a451f9c 	beq	114c290 <__bss_end__+0x11414a0>
    441c:	28010000 	stmdacs	r1, {}	; <UNPREDICTABLE>
    4420:	00008a07 	andeq	r8, r0, r7, lsl #20
    4424:	009b1800 	addseq	r1, fp, r0, lsl #16
    4428:	00001000 	andeq	r1, r0, r0
    442c:	209c0100 	addscs	r0, ip, r0, lsl #2
    4430:	00000a1b 	andeq	r0, r0, fp, lsl sl
    4434:	2c181001 	ldccs	0, cr1, [r8], {1}
    4438:	03000000 	movweq	r0, #0
    443c:	00000854 	andeq	r0, r0, r4, asr r8
    4440:	01007821 	tsteq	r0, r1, lsr #16
    4444:	002c2910 	eoreq	r2, ip, r0, lsl r9
    4448:	6e210000 	cdpvs	0, 2, cr0, cr1, cr0, {0}
    444c:	35100100 	ldrcc	r0, [r0, #-256]	; 0xffffff00
    4450:	0000002c 	andeq	r0, r0, ip, lsr #32
    4454:	0000840e 	andeq	r8, r0, lr, lsl #8
    4458:	00051800 	andeq	r1, r5, r0, lsl #16
    445c:	9c030500 	cfstr32ls	mvfx0, [r3], {-0}
    4460:	000000a9 	andeq	r0, r0, r9, lsr #1
    4464:	000a6620 	andeq	r6, sl, r0, lsr #12
    4468:	180d0100 	stmdane	sp, {r8}
    446c:	0000002c 	andeq	r0, r0, ip, lsr #32
    4470:	00087003 	andeq	r7, r8, r3
    4474:	00782100 	rsbseq	r2, r8, r0, lsl #2
    4478:	2c290d01 	stccs	13, cr0, [r9], #-4
    447c:	00000000 	andeq	r0, r0, r0
    4480:	000a8520 	andeq	r8, sl, r0, lsr #10
    4484:	18070100 	stmdane	r7, {r8}
    4488:	0000002c 	andeq	r0, r0, ip, lsr #32
    448c:	00089603 	andeq	r9, r8, r3, lsl #12
    4490:	00782100 	rsbseq	r2, r8, r0, lsl #2
    4494:	2c2c0701 	stccs	7, cr0, [ip], #-4
    4498:	21000000 	mrscs	r0, (UNDEF: 0)
    449c:	0701006e 	streq	r0, [r1, -lr, rrx]
    44a0:	00002c38 	andeq	r2, r0, r8, lsr ip
    44a4:	37200000 	strcc	r0, [r0, -r0]!
    44a8:	0100000a 	tsteq	r0, sl
    44ac:	005d1804 	subseq	r1, sp, r4, lsl #16
    44b0:	bc030000 	stclt	0, cr0, [r3], {-0}
    44b4:	21000008 	tstcs	r0, r8
    44b8:	04010078 	streq	r0, [r1], #-120	; 0xffffff88
    44bc:	00005d29 	andeq	r5, r0, r9, lsr #26
    44c0:	00792100 	rsbseq	r2, r9, r0, lsl #2
    44c4:	5d350401 	cfldrspl	mvf0, [r5, #-4]!
    44c8:	00000000 	andeq	r0, r0, r0
    44cc:	00054622 	andeq	r4, r5, r2, lsr #12
    44d0:	00054600 	andeq	r4, r5, r0, lsl #12
    44d4:	06280200 	strteq	r0, [r8], -r0, lsl #4
    44d8:	00005222 	andeq	r5, r0, r2, lsr #4
    44dc:	00005200 	andeq	r5, r0, r0, lsl #4
    44e0:	066e0200 	strbteq	r0, [lr], -r0, lsl #4
    44e4:	000aa122 	andeq	sl, sl, r2, lsr #2
    44e8:	000aa100 	andeq	sl, sl, r0, lsl #2
    44ec:	061d0200 	ldreq	r0, [sp], -r0, lsl #4
    44f0:	00007822 	andeq	r7, r0, r2, lsr #16
    44f4:	00007800 	andeq	r7, r0, r0, lsl #16
    44f8:	07f20200 	ldrbeq	r0, [r2, r0, lsl #4]!
    44fc:	00067300 	andeq	r7, r6, r0, lsl #6
    4500:	2f000400 	svccs	0x00000400
    4504:	04000017 	streq	r0, [r0], #-23	; 0xffffffe9
    4508:	00046401 	andeq	r6, r4, r1, lsl #8
    450c:	0af30c00 	beq	ffcc7514 <__bss_end__+0xffcbc724>
    4510:	051c0000 	ldreq	r0, [ip, #-0]
    4514:	9ec80000 	cdpls	0, 12, cr0, cr8, cr0, {0}
    4518:	01980000 	orrseq	r0, r8, r0
    451c:	228f0000 	addcs	r0, pc, #0, 0
    4520:	08020000 	stmdaeq	r2, {}	; <UNPREDICTABLE>
    4524:	00009e07 	andeq	r9, r0, r7, lsl #28
    4528:	07040200 	streq	r0, [r4, -r0, lsl #4]
    452c:	000000a8 	andeq	r0, r0, r8, lsr #1
    4530:	69050403 	stmdbvs	r5, {r0, r1, sl}
    4534:	0400746e 	streq	r7, [r0], #-1134	; 0xfffffb92
    4538:	0000002c 	andeq	r0, r0, ip, lsr #32
    453c:	46060102 	strmi	r0, [r6], -r2, lsl #2
    4540:	02000000 	andeq	r0, r0, #0, 0
    4544:	00f50502 	rscseq	r0, r5, r2, lsl #10
    4548:	04020000 	streq	r0, [r2], #-0
    454c:	0000ba05 	andeq	fp, r0, r5, lsl #20
    4550:	05080200 	streq	r0, [r8, #-512]	; 0xfffffe00
    4554:	000000b5 	strheq	r0, [r0], -r5
    4558:	44080102 	strmi	r0, [r8], #-258	; 0xfffffefe
    455c:	02000000 	andeq	r0, r0, #0, 0
    4560:	005f0702 	subseq	r0, pc, r2, lsl #14
    4564:	60050000 	andvs	r0, r5, r0
    4568:	03000002 	movweq	r0, #2
    456c:	00751934 	rsbseq	r1, r5, r4, lsr r9
    4570:	04020000 	streq	r0, [r2], #-0
    4574:	0000a307 	andeq	sl, r0, r7, lsl #6
    4578:	00330600 	eorseq	r0, r3, r0, lsl #12
    457c:	008b0000 	addeq	r0, fp, r0
    4580:	33070000 	movwcc	r0, #28672	; 0x7000
    4584:	00000000 	andeq	r0, r0, r0
    4588:	00010908 	andeq	r0, r1, r8, lsl #18
    458c:	0e1c0200 	cdpeq	2, 1, cr0, cr12, cr0, {0}
    4590:	00000097 	muleq	r0, r7, r0
    4594:	007c0409 	rsbseq	r0, ip, r9, lsl #8
    4598:	33060000 	movwcc	r0, #24576	; 0x6000
    459c:	ac000000 	stcge	0, cr0, [r0], {-0}
    45a0:	07000000 	streq	r0, [r0, -r0]
    45a4:	000000ac 	andeq	r0, r0, ip, lsr #1
    45a8:	b9040900 	stmdblt	r4, {r8, fp}
    45ac:	02000000 	andeq	r0, r0, #0, 0
    45b0:	004d0801 	subeq	r0, sp, r1, lsl #16
    45b4:	b2040000 	andlt	r0, r4, #0, 0
    45b8:	08000000 	stmdaeq	r0, {}	; <UNPREDICTABLE>
    45bc:	00000584 	andeq	r0, r0, r4, lsl #11
    45c0:	ca0e2102 	bgt	38c9d0 <__bss_end__+0x381be0>
    45c4:	09000000 	stmdbeq	r0, {}	; <UNPREDICTABLE>
    45c8:	00009d04 	andeq	r9, r0, r4, lsl #26
    45cc:	01070a00 	tsteq	r7, r0, lsl #20
    45d0:	0000005b 	andeq	r0, r0, fp, asr r0
    45d4:	0f0e0c04 	svceq	0x000e0c04
    45d8:	0b000001 	bleq	45e4 <__code_start__-0x3a1c>
    45dc:	000009bc 			; <UNDEFINED> instruction: 0x000009bc
    45e0:	07f40b00 	ldrbeq	r0, [r4, r0, lsl #22]!
    45e4:	0b010000 	bleq	445ec <__bss_end__+0x397fc>
    45e8:	00000837 	andeq	r0, r0, r7, lsr r8
    45ec:	08460b04 	stmdaeq	r6, {r2, r8, r9, fp}^
    45f0:	0b050000 	bleq	1445f8 <__bss_end__+0x139808>
    45f4:	00000855 	andeq	r0, r0, r5, asr r8
    45f8:	08640b06 	stmdaeq	r4!, {r1, r2, r8, r9, fp}^
    45fc:	0b070000 	bleq	1c4604 <__bss_end__+0x1b9814>
    4600:	00000985 	andeq	r0, r0, r5, lsl #19
    4604:	08730b03 	ldmdaeq	r3!, {r0, r1, r8, r9, fp}^
    4608:	00020000 	andeq	r0, r2, r0
    460c:	000b2c05 	andeq	r2, fp, r5, lsl #24
    4610:	03150400 	tsteq	r5, #0, 8
    4614:	000000d0 	ldrdeq	r0, [r0], -r0	; <UNPREDICTABLE>
    4618:	000aca0c 	andeq	ip, sl, ip, lsl #20
    461c:	171d0100 	ldrne	r0, [sp, -r0, lsl #2]
    4620:	0000003a 	andeq	r0, r0, sl, lsr r0
    4624:	2020001c 	eorcs	r0, r0, ip, lsl r0
    4628:	000ac00c 	andeq	ip, sl, ip
    462c:	171e0100 	ldrne	r0, [lr, -r0, lsl #2]
    4630:	0000003a 	andeq	r0, r0, sl, lsr r0
    4634:	20200028 	eorcs	r0, r0, r8, lsr #32
    4638:	000b380c 	andeq	r3, fp, ip, lsl #16
    463c:	171f0100 	ldrne	r0, [pc, -r0, lsl #2]
    4640:	0000003a 	andeq	r0, r0, sl, lsr r0
    4644:	20200034 	eorcs	r0, r0, r4, lsr r0
    4648:	000ae90d 	andeq	lr, sl, sp, lsl #18
    464c:	05510100 	ldrbeq	r0, [r1, #-256]	; 0xffffff00
    4650:	00000033 	andeq	r0, r0, r3, lsr r0
    4654:	0000a038 	andeq	sl, r0, r8, lsr r0
    4658:	00000028 	andeq	r0, r0, r8, lsr #32
    465c:	01ba9c01 			; <UNDEFINED> instruction: 0x01ba9c01
    4660:	700e0000 	andvc	r0, lr, r0
    4664:	01006e69 	tsteq	r0, r9, ror #28
    4668:	002c1851 	eoreq	r1, ip, r1, asr r8
    466c:	2b050000 	blcs	144674 <__bss_end__+0x139884>
    4670:	2aff0000 	bcs	fffc4678 <__bss_end__+0xfffb9888>
    4674:	420f0000 	andmi	r0, pc, #0, 0
    4678:	0100000b 	tsteq	r0, fp
    467c:	002c0e52 	eoreq	r0, ip, r2, asr lr
    4680:	2b3b0000 	blcs	ec4688 <__bss_end__+0xeb9898>
    4684:	2b310000 	blcs	c4468c <__bss_end__+0xc3989c>
    4688:	6f100000 	svcvs	0x00100000
    468c:	01006666 	tsteq	r0, r6, ror #12
    4690:	002c0e53 	eoreq	r0, ip, r3, asr lr
    4694:	2ba90000 	blcs	fea4469c <__bss_end__+0xfea398ac>
    4698:	2ba30000 	blcs	fe8c46a0 <__bss_end__+0xfe8b98b0>
    469c:	4c110000 	ldcmi	0, cr0, [r1], {-0}
    46a0:	5e0000a0 	cdppl	0, 0, cr0, cr0, cr0, {5}
    46a4:	12000006 	andne	r0, r0, #6, 0
    46a8:	740a5001 	strvc	r5, [sl], #-1
    46ac:	23253500 			; <UNDEFINED> instruction: 0x23253500
    46b0:	818080b4 	strhhi	r8, [r0, r4]
    46b4:	13000002 	movwne	r0, #2
    46b8:	00000ad4 	ldrdeq	r0, [r0], -r4
    46bc:	08064a01 	stmdaeq	r6, {r0, r9, fp, lr}
    46c0:	300000a0 	andcc	r0, r0, r0, lsr #1
    46c4:	01000000 	mrseq	r0, (UNDEF: 0)
    46c8:	0002759c 	muleq	r2, ip, r5
    46cc:	69700e00 	ldmdbvs	r0!, {r9, sl, fp}^
    46d0:	4a01006e 	bmi	44890 <__bss_end__+0x39aa0>
    46d4:	00002c1a 	andeq	r2, r0, sl, lsl ip
    46d8:	002be600 	eoreq	lr, fp, r0, lsl #12
    46dc:	002bda00 	eoreq	sp, fp, r0, lsl #20
    46e0:	00760e00 	rsbseq	r0, r6, r0, lsl #28
    46e4:	2c284a01 			; <UNDEFINED> instruction: 0x2c284a01
    46e8:	3a000000 	bcc	46f0 <__code_start__-0x3910>
    46ec:	3600002c 	strcc	r0, [r0], -ip, lsr #32
    46f0:	1400002c 	strne	r0, [r0], #-44	; 0xffffffd4
    46f4:	0000038d 	andeq	r0, r0, sp, lsl #7
    46f8:	0000a018 	andeq	sl, r0, r8, lsl r0
    46fc:	00048801 	andeq	r8, r4, r1, lsl #16
    4700:	094c0100 	stmdbeq	ip, {r8}^
    4704:	00000235 	andeq	r0, r0, r5, lsr r2
    4708:	00039a15 	andeq	r9, r3, r5, lsl sl
    470c:	002c6100 	eoreq	r6, ip, r0, lsl #2
    4710:	002c5b00 	eoreq	r5, ip, r0, lsl #22
    4714:	a0241600 	eorge	r1, r4, r0, lsl #12
    4718:	066a0000 	strbteq	r0, [sl], -r0
    471c:	01120000 	tsteq	r2, r0
    4720:	1c0c0550 	cfstr32ne	mvfx0, [ip], {80}	; 0x50
    4724:	12202000 	eorne	r2, r0, #0, 0
    4728:	31055101 	tstcc	r5, r1, lsl #2
    472c:	245001f3 	ldrbcs	r0, [r0], #-499	; 0xfffffe0d
    4730:	73170000 	tstvc	r7, #0, 0
    4734:	24000003 	strcs	r0, [r0], #-3
    4738:	020000a0 	andeq	r0, r0, #160, 0	; 0xa0
    473c:	0000a024 	andeq	sl, r0, r4, lsr #32
    4740:	00000014 	andeq	r0, r0, r4, lsl r0
    4744:	15094e01 	strne	r4, [r9, #-3585]	; 0xfffff1ff
    4748:	00000380 	andeq	r0, r0, r0, lsl #7
    474c:	00002c93 	muleq	r0, r3, ip
    4750:	00002c8d 	andeq	r2, r0, sp, lsl #25
    4754:	00a03016 	adceq	r3, r0, r6, lsl r0
    4758:	00066a00 	andeq	r6, r6, r0, lsl #20
    475c:	50011200 	andpl	r1, r1, r0, lsl #4
    4760:	00280c05 	eoreq	r0, r8, r5, lsl #24
    4764:	01122020 	tsteq	r2, r0, lsr #32
    4768:	f3310551 	vqrshl.u64	q0, <illegal reg q0.5>, <illegal reg q0.5>
    476c:	00245001 	eoreq	r5, r4, r1
    4770:	00130000 	andseq	r0, r3, r0
    4774:	0100000b 	tsteq	r0, fp
    4778:	9fb00645 	svcls	0x00b00645
    477c:	00580000 	subseq	r0, r8, r0
    4780:	9c010000 	stcls	0, cr0, [r1], {-0}
    4784:	00000373 	andeq	r0, r0, r3, ror r3
    4788:	6e69700e 	cdpvs	0, 6, cr7, cr9, cr14, {0}
    478c:	1e450100 	dvfnes	f0, f5, f0
    4790:	0000002c 	andeq	r0, r0, ip, lsr #32
    4794:	00002cc5 	andeq	r2, r0, r5, asr #25
    4798:	00002cbf 			; <UNDEFINED> instruction: 0x00002cbf
    479c:	0004a518 	andeq	sl, r4, r8, lsl r5
    47a0:	009fb000 	addseq	fp, pc, r0
    47a4:	04480200 	strbeq	r0, [r8], #-512	; 0xfffffe00
    47a8:	46010000 	strmi	r0, [r1], -r0
    47ac:	04be1905 	ldrteq	r1, [lr], #2309	; 0x905
    47b0:	15000000 	strne	r0, [r0, #-0]
    47b4:	000004b2 			; <UNDEFINED> instruction: 0x000004b2
    47b8:	00002cf7 	strdeq	r2, [r0], -r7
    47bc:	00002cf1 	strdeq	r2, [r0], -r1
    47c0:	0004481a 	andeq	r4, r4, sl, lsl r8
    47c4:	04ca1b00 	strbeq	r1, [sl], #2816	; 0xb00
    47c8:	d61b0000 	ldrle	r0, [fp], -r0
    47cc:	1b000004 	blne	47e4 <__code_start__-0x381c>
    47d0:	000004e0 	andeq	r0, r0, r0, ror #9
    47d4:	0004a518 	andeq	sl, r4, r8, lsl r5
    47d8:	009fb800 	addseq	fp, pc, r0, lsl #16
    47dc:	04680000 	strbteq	r0, [r8], #-0
    47e0:	28010000 	stmdacs	r1, {}	; <UNPREDICTABLE>
    47e4:	04be1906 	ldrteq	r1, [lr], #2310	; 0x906
    47e8:	15000000 	strne	r0, [r0, #-0]
    47ec:	000004b2 			; <UNDEFINED> instruction: 0x000004b2
    47f0:	00002d29 	andeq	r2, r0, r9, lsr #26
    47f4:	00002d23 	andeq	r2, r0, r3, lsr #26
    47f8:	0004681a 	andeq	r6, r4, sl, lsl r8
    47fc:	04ca1c00 	strbeq	r1, [sl], #3072	; 0xc00
    4800:	2d5b0000 	ldclcs	0, cr0, [fp, #-0]
    4804:	2d550000 	ldclcs	0, cr0, [r5, #-0]
    4808:	d61c0000 	ldrle	r0, [ip], -r0
    480c:	9d000004 	stcls	0, cr0, [r0, #-16]
    4810:	9700002d 	strls	r0, [r0, -sp, lsr #32]
    4814:	1c00002d 	stcne	0, cr0, [r0], {45}	; 0x2d
    4818:	000004e0 	andeq	r0, r0, r0, ror #9
    481c:	00002df3 	strdeq	r2, [r0], -r3
    4820:	00002deb 	andeq	r2, r0, fp, ror #27
    4824:	009fe01d 	addseq	lr, pc, sp, lsl r0	; <UNPREDICTABLE>
    4828:	00065e00 	andeq	r5, r6, r0, lsl #28
    482c:	00033b00 	andeq	r3, r3, r0, lsl #22
    4830:	50011200 	andpl	r1, r1, r0, lsl #4
    4834:	00007602 	andeq	r7, r0, r2, lsl #12
    4838:	00a00416 	adceq	r0, r0, r6, lsl r4
    483c:	00066a00 	andeq	r6, r6, r0, lsl #20
    4840:	50011200 	andpl	r1, r1, r0, lsl #4
    4844:	5001f325 	andpl	pc, r1, r5, lsr #6
    4848:	25f72cf7 	ldrbcs	r2, [r7, #3319]!	; 0xcf7
    484c:	cd0825f4 	cfstr32gt	mvfx2, [r8, #-976]	; 0xfffffc30
    4850:	00cccccc 	sbceq	ip, ip, ip, asr #25
    4854:	1e000000 	cdpne	0, 0, cr0, cr0, cr0, {0}
    4858:	25f72008 	ldrbcs	r2, [r7, #8]!
    485c:	f72cf725 			; <UNDEFINED> instruction: 0xf72cf725
    4860:	23253300 			; <UNDEFINED> instruction: 0x23253300
    4864:	40a08080 	adcmi	r8, r0, r0, lsl #1
    4868:	00002432 	andeq	r2, r0, r2, lsr r4
    486c:	00000000 	andeq	r0, r0, r0
    4870:	000b0f1e 	andeq	r0, fp, lr, lsl pc
    4874:	0d400100 	stfeqe	f0, [r0, #-0]
    4878:	00038d03 	andeq	r8, r3, r3, lsl #26
    487c:	69701f00 	ldmdbvs	r0!, {r8, r9, sl, fp, ip}^
    4880:	4001006e 	andmi	r0, r1, lr, rrx
    4884:	00002c23 	andeq	r2, r0, r3, lsr #24
    4888:	471e0000 	ldrmi	r0, [lr, -r0]
    488c:	0100000b 	tsteq	r0, fp
    4890:	a7030d3b 	smladxge	r3, fp, sp, r0
    4894:	1f000003 	svcne	0x00000003
    4898:	006e6970 	rsbeq	r6, lr, r0, ror r9
    489c:	2c223b01 			; <UNDEFINED> instruction: 0x2c223b01
    48a0:	00000000 	andeq	r0, r0, r0
    48a4:	000b1c13 	andeq	r1, fp, r3, lsl ip
    48a8:	06360100 	ldrteq	r0, [r6], -r0, lsl #2
    48ac:	00009f28 	andeq	r9, r0, r8, lsr #30
    48b0:	00000058 	andeq	r0, r0, r8, asr r0
    48b4:	04a59c01 	strteq	r9, [r5], #3073	; 0xc01
    48b8:	700e0000 	andvc	r0, lr, r0
    48bc:	01006e69 	tsteq	r0, r9, ror #28
    48c0:	002c1f36 	eoreq	r1, ip, r6, lsr pc
    48c4:	2e510000 	cdpcs	0, 5, cr0, cr1, cr0, {0}
    48c8:	2e4d0000 	cdpcs	0, 4, cr0, cr13, cr0, {0}
    48cc:	a5180000 	ldrge	r0, [r8, #-0]
    48d0:	28000004 	stmdacs	r0, {r2}
    48d4:	0200009f 	andeq	r0, r0, #159, 0	; 0x9f
    48d8:	00000408 	andeq	r0, r0, r8, lsl #8
    48dc:	19053701 	stmdbne	r5, {r0, r8, r9, sl, ip, sp}
    48e0:	000004be 			; <UNDEFINED> instruction: 0x000004be
    48e4:	04b21501 	ldrteq	r1, [r2], #1281	; 0x501
    48e8:	2e760000 	cdpcs	0, 7, cr0, cr6, cr0, {0}
    48ec:	2e720000 	cdpcs	0, 7, cr0, cr2, cr0, {0}
    48f0:	081a0000 	ldmdaeq	sl, {}	; <UNPREDICTABLE>
    48f4:	1b000004 	blne	490c <__code_start__-0x36f4>
    48f8:	000004ca 	andeq	r0, r0, sl, asr #9
    48fc:	0004d61b 	andeq	sp, r4, fp, lsl r6
    4900:	04e01b00 	strbteq	r1, [r0], #2816	; 0xb00
    4904:	a5180000 	ldrge	r0, [r8, #-0]
    4908:	30000004 	andcc	r0, r0, r4
    490c:	0000009f 	muleq	r0, pc, r0	; <UNPREDICTABLE>
    4910:	00000428 	andeq	r0, r0, r8, lsr #8
    4914:	19062801 	stmdbne	r6, {r0, fp, sp}
    4918:	000004be 			; <UNDEFINED> instruction: 0x000004be
    491c:	04b21501 	ldrteq	r1, [r2], #1281	; 0x501
    4920:	2e9b0000 	cdpcs	0, 9, cr0, cr11, cr0, {0}
    4924:	2e970000 	cdpcs	0, 9, cr0, cr7, cr0, {0}
    4928:	281a0000 	ldmdacs	sl, {}	; <UNPREDICTABLE>
    492c:	1c000004 	stcne	0, cr0, [r0], {4}
    4930:	000004ca 	andeq	r0, r0, sl, asr #9
    4934:	00002ec0 	andeq	r2, r0, r0, asr #29
    4938:	00002ebc 			; <UNDEFINED> instruction: 0x00002ebc
    493c:	0004d61c 	andeq	sp, r4, ip, lsl r6
    4940:	002f0c00 	eoreq	r0, pc, r0, lsl #24
    4944:	002f0600 	eoreq	r0, pc, r0, lsl #12
    4948:	04e01c00 	strbteq	r1, [r0], #3072	; 0xc00
    494c:	2f620000 	svccs	0x00620000
    4950:	2f5a0000 	svccs	0x005a0000
    4954:	5c1d0000 	ldcpl	0, cr0, [sp], {-0}
    4958:	5e00009f 	mcrpl	0, 0, r0, cr0, cr15, {4}
    495c:	6d000006 	stcvs	0, cr0, [r0, #-24]	; 0xffffffe8
    4960:	12000004 	andne	r0, r0, #4, 0
    4964:	75025001 	strvc	r5, [r2, #-1]
    4968:	7c160000 	ldcvc	0, cr0, [r6], {-0}
    496c:	6a00009f 	bvs	4bf0 <__code_start__-0x3410>
    4970:	12000006 	andne	r0, r0, #6, 0
    4974:	f3255001 	vhadd.u32	d5, d5, d1
    4978:	2cf75001 	ldclcs	0, cr5, [r7], #4
    497c:	25f425f7 	ldrbcs	r2, [r4, #1527]!	; 0x5f7
    4980:	cccccd08 	stclgt	13, cr12, [ip], {8}
    4984:	000000cc 	andeq	r0, r0, ip, asr #1
    4988:	20081e00 	andcs	r1, r8, r0, lsl #28
    498c:	f72525f7 			; <UNDEFINED> instruction: 0xf72525f7
    4990:	3300f72c 	movwcc	pc, #1836	; 0x72c	; <UNPREDICTABLE>
    4994:	80802325 	addhi	r2, r0, r5, lsr #6
    4998:	243240a0 	ldrtcs	r4, [r2], #-160	; 0xffffff60
    499c:	00000000 	andeq	r0, r0, r0
    49a0:	cc1e0000 	ldcgt	0, cr0, [lr], {-0}
    49a4:	01000009 	tsteq	r0, r9
    49a8:	eb010628 	bl	46250 <__bss_end__+0x3b460>
    49ac:	1f000004 	svcne	0x00000004
    49b0:	006e6970 	rsbeq	r6, lr, r0, ror r9
    49b4:	2c212801 	stccs	8, cr2, [r1], #-4
    49b8:	20000000 	andcs	r0, r0, r0
    49bc:	0000007f 	andeq	r0, r0, pc, ror r0
    49c0:	0f322801 	svceq	0x00322801
    49c4:	21000001 	tstcs	r0, r1
    49c8:	0066666f 	rsbeq	r6, r6, pc, ror #12
    49cc:	2c0e2d01 	stccs	13, cr2, [lr], {1}
    49d0:	21000000 	mrscs	r0, (UNDEF: 0)
    49d4:	2e010067 	cdpcs	0, 0, cr0, cr1, cr7, {3}
    49d8:	00002c0e 	andeq	r2, r0, lr, lsl #24
    49dc:	00762100 	rsbseq	r2, r6, r0, lsl #2
    49e0:	2c0e3001 	stccs	0, cr3, [lr], {1}
    49e4:	00000000 	andeq	r0, r0, r0
    49e8:	000adf22 	andeq	sp, sl, r2, lsr #30
    49ec:	18b10200 	ldmne	r1!, {r9}
    49f0:	00000069 	andeq	r0, r0, r9, rrx
    49f4:	00050703 	andeq	r0, r5, r3, lsl #14
    49f8:	00781f00 	rsbseq	r1, r8, r0, lsl #30
    49fc:	692bb102 	stmdbvs	fp!, {r1, r8, ip, sp, pc}
    4a00:	00000000 	andeq	r0, r0, r0
    4a04:	0004a523 	andeq	sl, r4, r3, lsr #10
    4a08:	009ec800 	addseq	ip, lr, r0, lsl #16
    4a0c:	00006000 	andeq	r6, r0, r0
    4a10:	e49c0100 	ldr	r0, [ip], #256	; 0x100
    4a14:	15000005 	strne	r0, [r0, #-5]
    4a18:	000004b2 			; <UNDEFINED> instruction: 0x000004b2
    4a1c:	00002fa1 	andeq	r2, r0, r1, lsr #31
    4a20:	00002f9d 	muleq	r0, sp, pc	; <UNPREDICTABLE>
    4a24:	0004be15 	andeq	fp, r4, r5, lsl lr
    4a28:	002fc600 	eoreq	ip, pc, r0, lsl #12
    4a2c:	002fc200 	eoreq	ip, pc, r0, lsl #4
    4a30:	04ca1b00 	strbeq	r1, [sl], #2816	; 0xb00
    4a34:	d61b0000 	ldrle	r0, [fp], -r0
    4a38:	1b000004 	blne	4a50 <__code_start__-0x35b0>
    4a3c:	000004e0 	andeq	r0, r0, r0, ror #9
    4a40:	0004a518 	andeq	sl, r4, r8, lsl r5
    4a44:	009ed000 	addseq	sp, lr, r0
    4a48:	03e80000 	mvneq	r0, #0, 0
    4a4c:	28010000 	stmdacs	r1, {}	; <UNPREDICTABLE>
    4a50:	04be1506 	ldrteq	r1, [lr], #1286	; 0x506
    4a54:	2feb0000 	svccs	0x00eb0000
    4a58:	2fe70000 	svccs	0x00e70000
    4a5c:	b2150000 	andslt	r0, r5, #0, 0
    4a60:	10000004 	andne	r0, r0, r4
    4a64:	0c000030 	stceq	0, cr0, [r0], {48}	; 0x30
    4a68:	1a000030 	bne	4b30 <__code_start__-0x34d0>
    4a6c:	000003e8 	andeq	r0, r0, r8, ror #7
    4a70:	0004ca1c 	andeq	ip, r4, ip, lsl sl
    4a74:	00303500 	eorseq	r3, r0, r0, lsl #10
    4a78:	00303100 	eorseq	r3, r0, r0, lsl #2
    4a7c:	04d61c00 	ldrbeq	r1, [r6], #3072	; 0xc00
    4a80:	30810000 	addcc	r0, r1, r0
    4a84:	307b0000 	rsbscc	r0, fp, r0
    4a88:	e01c0000 	ands	r0, ip, r0
    4a8c:	d7000004 	strle	r0, [r0, -r4]
    4a90:	cf000030 	svcgt	0x00000030
    4a94:	1d000030 	stcne	0, cr0, [r0, #-192]	; 0xffffff40
    4a98:	00009f08 	andeq	r9, r0, r8, lsl #30
    4a9c:	0000065e 	andeq	r0, r0, lr, asr r6
    4aa0:	000005ae 	andeq	r0, r0, lr, lsr #11
    4aa4:	02500112 	subseq	r0, r0, #-2147483644	; 0x80000004
    4aa8:	16000076 			; <UNDEFINED> instruction: 0x16000076
    4aac:	00009f24 	andeq	r9, r0, r4, lsr #30
    4ab0:	0000066a 	andeq	r0, r0, sl, ror #12
    4ab4:	25500112 	ldrbcs	r0, [r0, #-274]	; 0xfffffeee
    4ab8:	f75001f3 			; <UNDEFINED> instruction: 0xf75001f3
    4abc:	f425f72c 	vld1.8	{d15}, [r5 :128], ip
    4ac0:	cccd0825 	stclgt	8, cr0, [sp], {37}	; 0x25
    4ac4:	0000cccc 	andeq	ip, r0, ip, asr #25
    4ac8:	081e0000 	ldmdaeq	lr, {}	; <UNPREDICTABLE>
    4acc:	2525f720 	strcs	pc, [r5, #-1824]!	; 0xfffff8e0
    4ad0:	00f72cf7 	ldrshteq	r2, [r7], #199	; 0xc7
    4ad4:	80232533 	eorhi	r2, r3, r3, lsr r5
    4ad8:	3240a080 	subcc	sl, r0, #128, 0	; 0x80
    4adc:	00000024 	andeq	r0, r0, r4, lsr #32
    4ae0:	038d2300 	orreq	r2, sp, #0, 6
    4ae4:	9f800000 	svcls	0x00800000
    4ae8:	00180000 	andseq	r0, r8, r0
    4aec:	9c010000 	stcls	0, cr0, [r1], {-0}
    4af0:	00000621 	andeq	r0, r0, r1, lsr #12
    4af4:	00039a15 	andeq	r9, r3, r5, lsl sl
    4af8:	00312d00 	eorseq	r2, r1, r0, lsl #26
    4afc:	00312700 	eorseq	r2, r1, r0, lsl #14
    4b00:	9f941600 	svcls	0x00941600
    4b04:	066a0000 	strbteq	r0, [sl], -r0
    4b08:	01120000 	tsteq	r2, r0
    4b0c:	1c0c0550 	cfstr32ne	mvfx0, [ip], {80}	; 0x50
    4b10:	12202000 	eorne	r2, r0, #0, 0
    4b14:	31055101 	tstcc	r5, r1, lsl #2
    4b18:	245001f3 	ldrbcs	r0, [r0], #-499	; 0xfffffe0d
    4b1c:	73230000 			; <UNDEFINED> instruction: 0x73230000
    4b20:	98000003 	stmdals	r0, {r0, r1}
    4b24:	1800009f 	stmdane	r0, {r0, r1, r2, r3, r4, r7}
    4b28:	01000000 	mrseq	r0, (UNDEF: 0)
    4b2c:	00065e9c 	muleq	r6, ip, lr
    4b30:	03801500 	orreq	r1, r0, #0, 10
    4b34:	315f0000 	cmpcc	pc, r0
    4b38:	31590000 	cmpcc	r9, r0
    4b3c:	ac160000 	ldcge	0, cr0, [r6], {-0}
    4b40:	6a00009f 	bvs	4dc4 <__code_start__-0x323c>
    4b44:	12000006 	andne	r0, r0, #6, 0
    4b48:	0c055001 	stceq	0, cr5, [r5], {1}
    4b4c:	20200028 	eorcs	r0, r0, r8, lsr #32
    4b50:	05510112 	ldrbeq	r0, [r1, #-274]	; 0xfffffeee
    4b54:	5001f331 	andpl	pc, r1, r1, lsr r3	; <UNPREDICTABLE>
    4b58:	24000024 	strcs	r0, [r0], #-36	; 0xffffffdc
    4b5c:	000007a1 	andeq	r0, r0, r1, lsr #15
    4b60:	000007a1 	andeq	r0, r0, r1, lsr #15
    4b64:	240ac202 	strcs	ip, [sl], #-514	; 0xfffffdfe
    4b68:	0000070d 	andeq	r0, r0, sp, lsl #14
    4b6c:	0000070d 	andeq	r0, r0, sp, lsl #14
    4b70:	0006ad02 	andeq	sl, r6, r2, lsl #26
    4b74:	00000149 	andeq	r0, r0, r9, asr #2
    4b78:	195d0004 	ldmdbne	sp, {r2}^
    4b7c:	01040000 	mrseq	r0, (UNDEF: 4)
    4b80:	00000464 	andeq	r0, r0, r4, ror #8
    4b84:	000b710c 	andeq	r7, fp, ip, lsl #2
    4b88:	00051c00 	andeq	r1, r5, r0, lsl #24
    4b8c:	00a06000 	adceq	r6, r0, r0
    4b90:	00003c00 	andeq	r3, r0, r0, lsl #24
    4b94:	00251c00 	eoreq	r1, r5, r0, lsl #24
    4b98:	05040200 	streq	r0, [r4, #-512]	; 0xfffffe00
    4b9c:	00746e69 	rsbseq	r6, r4, r9, ror #28
    4ba0:	a8070403 	stmdage	r7, {r0, r1, sl}
    4ba4:	03000000 	movweq	r0, #0
    4ba8:	00460601 	subeq	r0, r6, r1, lsl #12
    4bac:	02030000 	andeq	r0, r3, #0, 0
    4bb0:	0000f505 	andeq	pc, r0, r5, lsl #10
    4bb4:	05040300 	streq	r0, [r4, #-768]	; 0xfffffd00
    4bb8:	000000ba 	strheq	r0, [r0], -sl
    4bbc:	b5050803 	strlt	r0, [r5, #-2051]	; 0xfffff7fd
    4bc0:	03000000 	movweq	r0, #0
    4bc4:	00440801 	subeq	r0, r4, r1, lsl #16
    4bc8:	02030000 	andeq	r0, r3, #0, 0
    4bcc:	00005f07 	andeq	r5, r0, r7, lsl #30
    4bd0:	07040300 	streq	r0, [r4, -r0, lsl #6]
    4bd4:	000000a3 	andeq	r0, r0, r3, lsr #1
    4bd8:	9e070803 	cdpls	8, 0, cr0, cr7, cr3, {0}
    4bdc:	04000000 	streq	r0, [r0], #-0
    4be0:	00000025 	andeq	r0, r0, r5, lsr #32
    4be4:	0000007a 	andeq	r0, r0, sl, ror r0
    4be8:	00002505 	andeq	r2, r0, r5, lsl #10
    4bec:	09060000 	stmdbeq	r6, {}	; <UNPREDICTABLE>
    4bf0:	02000001 	andeq	r0, r0, #1, 0
    4bf4:	00860e1c 	addeq	r0, r6, ip, lsl lr
    4bf8:	04070000 	streq	r0, [r7], #-0
    4bfc:	0000006b 	andeq	r0, r0, fp, rrx
    4c00:	00002504 	andeq	r2, r0, r4, lsl #10
    4c04:	00009b00 	andeq	r9, r0, r0, lsl #22
    4c08:	009b0500 	addseq	r0, fp, r0, lsl #10
    4c0c:	07000000 	streq	r0, [r0, -r0]
    4c10:	0000a804 	andeq	sl, r0, r4, lsl #16
    4c14:	08010300 	stmdaeq	r1, {r8, r9}
    4c18:	0000004d 	andeq	r0, r0, sp, asr #32
    4c1c:	0000a108 	andeq	sl, r0, r8, lsl #2
    4c20:	05840600 	streq	r0, [r4, #1536]	; 0x600
    4c24:	21020000 	mrscs	r0, (UNDEF: 2)
    4c28:	0000b90e 	andeq	fp, r0, lr, lsl #18
    4c2c:	8c040700 	stchi	7, cr0, [r4], {-0}
    4c30:	09000000 	stmdbeq	r0, {}	; <UNPREDICTABLE>
    4c34:	0000007a 	andeq	r0, r0, sl, ror r0
    4c38:	05070601 	streq	r0, [r7, #-1537]	; 0xfffff9ff
    4c3c:	00a9c003 	adceq	ip, r9, r3
    4c40:	0b640a00 	bleq	1907448 <__bss_end__+0x18fc658>
    4c44:	0b010000 	bleq	44c4c <__bss_end__+0x39e5c>
    4c48:	00a08c06 	adceq	r8, r0, r6, lsl #24
    4c4c:	00001000 	andeq	r1, r0, r0
    4c50:	f19c0100 			; <UNDEFINED> instruction: 0xf19c0100
    4c54:	0b000000 	bleq	4c5c <__code_start__-0x33a4>
    4c58:	01007066 	tsteq	r0, r6, rrx
    4c5c:	0086190b 	addeq	r1, r6, fp, lsl #18
    4c60:	50010000 	andpl	r0, r1, r0
    4c64:	0aa10c00 	beq	fe847c6c <__bss_end__+0xfe83ce7c>
    4c68:	08010000 	stmdaeq	r1, {}	; <UNPREDICTABLE>
    4c6c:	00a07406 	adceq	r7, r0, r6, lsl #8
    4c70:	00001800 	andeq	r1, r0, r0, lsl #16
    4c74:	0d9c0100 	ldfeqs	f0, [ip]
    4c78:	00000b53 	andeq	r0, r0, r3, asr fp
    4c7c:	250c0301 	strcs	r0, [ip, #-769]	; 0xfffffcff
    4c80:	60000000 	andvs	r0, r0, r0
    4c84:	140000a0 	strne	r0, [r0], #-160	; 0xffffff60
    4c88:	01000000 	mrseq	r0, (UNDEF: 0)
    4c8c:	0001409c 	muleq	r1, ip, r0
    4c90:	00630e00 	rsbeq	r0, r3, r0, lsl #28
    4c94:	25210301 	strcs	r0, [r1, #-769]!	; 0xfffffcff
    4c98:	8f000000 	svchi	0x00000000
    4c9c:	8b000031 	blhi	4d68 <__code_start__-0x3298>
    4ca0:	0f000031 	svceq	0x00000031
    4ca4:	0000a06c 	andeq	sl, r0, ip, rrx
    4ca8:	00000140 	andeq	r0, r0, r0, asr #2
    4cac:	02500110 	subseq	r0, r0, #4
    4cb0:	00000074 	andeq	r0, r0, r4, ror r0
    4cb4:	0009b211 	andeq	fp, r9, r1, lsl r2
    4cb8:	0009b200 	andeq	fp, r9, r0, lsl #4
    4cbc:	06420200 	strbeq	r0, [r2], -r0, lsl #4
    4cc0:	00013700 	andeq	r3, r1, r0, lsl #14
    4cc4:	6c000400 	cfstrsvs	mvf0, [r0], {-0}
    4cc8:	0400001a 	streq	r0, [r0], #-26	; 0xffffffe6
    4ccc:	00046401 	andeq	r6, r4, r1, lsl #8
    4cd0:	0b820c00 	bleq	fe087cd8 <__bss_end__+0xfe07cee8>
    4cd4:	051c0000 	ldreq	r0, [ip, #-0]
    4cd8:	a09c0000 	addsge	r0, ip, r0
    4cdc:	002c0000 	eoreq	r0, ip, r0
    4ce0:	25be0000 	ldrcs	r0, [lr, #0]!
    4ce4:	04020000 	streq	r0, [r2], #-0
    4ce8:	746e6905 	strbtvc	r6, [lr], #-2309	; 0xfffff6fb
    4cec:	07040300 	streq	r0, [r4, -r0, lsl #6]
    4cf0:	000000a8 	andeq	r0, r0, r8, lsr #1
    4cf4:	46060103 	strmi	r0, [r6], -r3, lsl #2
    4cf8:	03000000 	movweq	r0, #0
    4cfc:	00f50502 	rscseq	r0, r5, r2, lsl #10
    4d00:	04030000 	streq	r0, [r3], #-0
    4d04:	0000ba05 	andeq	fp, r0, r5, lsl #20
    4d08:	05080300 	streq	r0, [r8, #-768]	; 0xfffffd00
    4d0c:	000000b5 	strheq	r0, [r0], -r5
    4d10:	44080103 	strmi	r0, [r8], #-259	; 0xfffffefd
    4d14:	03000000 	movweq	r0, #0
    4d18:	005f0702 	subseq	r0, pc, r2, lsl #14
    4d1c:	04030000 	streq	r0, [r3], #-0
    4d20:	0000a307 	andeq	sl, r0, r7, lsl #6
    4d24:	07080300 	streq	r0, [r8, -r0, lsl #6]
    4d28:	0000009e 	muleq	r0, lr, r0
    4d2c:	00002504 	andeq	r2, r0, r4, lsl #10
    4d30:	00007a00 	andeq	r7, r0, r0, lsl #20
    4d34:	00250500 	eoreq	r0, r5, r0, lsl #10
    4d38:	06000000 	streq	r0, [r0], -r0
    4d3c:	00000109 	andeq	r0, r0, r9, lsl #2
    4d40:	860e1c02 	strhi	r1, [lr], -r2, lsl #24
    4d44:	07000000 	streq	r0, [r0, -r0]
    4d48:	00006b04 	andeq	r6, r0, r4, lsl #22
    4d4c:	00250400 	eoreq	r0, r5, r0, lsl #8
    4d50:	009b0000 	addseq	r0, fp, r0
    4d54:	9b050000 	blls	144d5c <__bss_end__+0x139f6c>
    4d58:	00000000 	andeq	r0, r0, r0
    4d5c:	00a80407 	adceq	r0, r8, r7, lsl #8
    4d60:	01030000 	mrseq	r0, (UNDEF: 3)
    4d64:	00004d08 	andeq	r4, r0, r8, lsl #26
    4d68:	00a10800 	adceq	r0, r1, r0, lsl #16
    4d6c:	84060000 	strhi	r0, [r6], #-0
    4d70:	02000005 	andeq	r0, r0, #5, 0
    4d74:	00b90e21 	adcseq	r0, r9, r1, lsr #28
    4d78:	04070000 	streq	r0, [r7], #-0
    4d7c:	0000008c 	andeq	r0, r0, ip, lsl #1
    4d80:	00060009 	andeq	r0, r6, r9
    4d84:	07040100 	streq	r0, [r4, -r0, lsl #2]
    4d88:	00000134 	andeq	r0, r0, r4, lsr r1
    4d8c:	0000a09c 	muleq	r0, ip, r0
    4d90:	0000002c 	andeq	r0, r0, ip, lsr #32
    4d94:	01349c01 	teqeq	r4, r1, lsl #24
    4d98:	920a0000 	andls	r0, sl, #0, 0
    4d9c:	0100000b 	tsteq	r0, fp
    4da0:	01341504 	teqeq	r4, r4, lsl #10
    4da4:	50010000 	andpl	r0, r1, r0
    4da8:	6372730b 	cmnvs	r2, #738197504	; 0x2c000000
    4dac:	27040100 	strcs	r0, [r4, -r0, lsl #2]
    4db0:	0000009b 	muleq	r0, fp, r0
    4db4:	000031b1 			; <UNDEFINED> instruction: 0x000031b1
    4db8:	000031ad 	andeq	r3, r0, sp, lsr #3
    4dbc:	0031730c 	eorseq	r7, r1, ip, lsl #6
    4dc0:	340b0501 	strcc	r0, [fp], #-1281	; 0xfffffaff
    4dc4:	e0000001 	and	r0, r0, r1
    4dc8:	d2000031 	andle	r0, r0, #49, 0	; 0x31
    4dcc:	0c000031 	stceq	0, cr0, [r0], {49}	; 0x31
    4dd0:	01003273 	tsteq	r0, r3, ror r2
    4dd4:	009b1106 	addseq	r1, fp, r6, lsl #2
    4dd8:	323f0000 	eorscc	r0, pc, #0, 0
    4ddc:	32390000 	eorscc	r0, r9, #0, 0
    4de0:	630c0000 	movwvs	r0, #49152	; 0xc000
    4de4:	0a070100 	beq	1c51ec <__bss_end__+0x1ba3fc>
    4de8:	000000a1 	andeq	r0, r0, r1, lsr #1
    4dec:	00003270 	andeq	r3, r0, r0, ror r2
    4df0:	0000326a 	andeq	r3, r0, sl, ror #4
    4df4:	a1040700 	tstge	r4, r0, lsl #14
    4df8:	00000000 	andeq	r0, r0, r0
    4dfc:	000000f7 	strdeq	r0, [r0], -r7
    4e00:	1b220004 	blne	884e18 <__bss_end__+0x87a028>
    4e04:	01040000 	mrseq	r0, (UNDEF: 4)
    4e08:	00000464 	andeq	r0, r0, r4, ror #8
    4e0c:	000b970c 	andeq	r9, fp, ip, lsl #14
    4e10:	00051c00 	andeq	r1, r5, r0, lsl #24
    4e14:	00a0c800 	adceq	ip, r0, r0, lsl #16
    4e18:	00004400 	andeq	r4, r0, r0, lsl #8
    4e1c:	0026a400 	eoreq	sl, r6, r0, lsl #8
    4e20:	05040200 	streq	r0, [r4, #-512]	; 0xfffffe00
    4e24:	00746e69 	rsbseq	r6, r4, r9, ror #28
    4e28:	a8070403 	stmdage	r7, {r0, r1, sl}
    4e2c:	03000000 	movweq	r0, #0
    4e30:	00460601 	subeq	r0, r6, r1, lsl #12
    4e34:	02030000 	andeq	r0, r3, #0, 0
    4e38:	0000f505 	andeq	pc, r0, r5, lsl #10
    4e3c:	05040300 	streq	r0, [r4, #-768]	; 0xfffffd00
    4e40:	000000ba 	strheq	r0, [r0], -sl
    4e44:	b5050803 	strlt	r0, [r5, #-2051]	; 0xfffff7fd
    4e48:	03000000 	movweq	r0, #0
    4e4c:	00440801 	subeq	r0, r4, r1, lsl #16
    4e50:	02030000 	andeq	r0, r3, #0, 0
    4e54:	00005f07 	andeq	r5, r0, r7, lsl #30
    4e58:	07040300 	streq	r0, [r4, -r0, lsl #6]
    4e5c:	000000a3 	andeq	r0, r0, r3, lsr #1
    4e60:	9e070803 	cdpls	8, 0, cr0, cr7, cr3, {0}
    4e64:	04000000 	streq	r0, [r0], #-0
    4e68:	00000025 	andeq	r0, r0, r5, lsr #32
    4e6c:	0000007a 	andeq	r0, r0, sl, ror r0
    4e70:	00002505 	andeq	r2, r0, r5, lsl #10
    4e74:	09060000 	stmdbeq	r6, {}	; <UNPREDICTABLE>
    4e78:	02000001 	andeq	r0, r0, #1, 0
    4e7c:	00860e1c 	addeq	r0, r6, ip, lsl lr
    4e80:	04070000 	streq	r0, [r7], #-0
    4e84:	0000006b 	andeq	r0, r0, fp, rrx
    4e88:	00002504 	andeq	r2, r0, r4, lsl #10
    4e8c:	00009b00 	andeq	r9, r0, r0, lsl #22
    4e90:	009b0500 	addseq	r0, fp, r0, lsl #10
    4e94:	07000000 	streq	r0, [r0, -r0]
    4e98:	0000a804 	andeq	sl, r0, r4, lsl #16
    4e9c:	08010300 	stmdaeq	r1, {r8, r9}
    4ea0:	0000004d 	andeq	r0, r0, sp, asr #32
    4ea4:	0000a108 	andeq	sl, r0, r8, lsl #2
    4ea8:	05840600 	streq	r0, [r4, #1536]	; 0x600
    4eac:	21020000 	mrscs	r0, (UNDEF: 2)
    4eb0:	0000b90e 	andeq	fp, r0, lr, lsl #18
    4eb4:	8c040700 	stchi	7, cr0, [r4], {-0}
    4eb8:	09000000 	stmdbeq	r0, {}	; <UNPREDICTABLE>
    4ebc:	0000062e 	andeq	r0, r0, lr, lsr #12
    4ec0:	25050301 	strcs	r0, [r5, #-769]	; 0xfffffcff
    4ec4:	c8000000 	stmdagt	r0, {}	; <UNPREDICTABLE>
    4ec8:	440000a0 	strmi	r0, [r0], #-160	; 0xffffff60
    4ecc:	01000000 	mrseq	r0, (UNDEF: 0)
    4ed0:	00610a9c 	mlseq	r1, ip, sl, r0
    4ed4:	9b180301 	blls	605ae0 <__bss_end__+0x5facf0>
    4ed8:	a7000000 	strge	r0, [r0, -r0]
    4edc:	9b000032 	blls	4fac <__code_start__-0x3054>
    4ee0:	0a000032 	beq	4fb0 <__code_start__-0x3050>
    4ee4:	03010062 	movweq	r0, #4194	; 0x1062
    4ee8:	00009b27 	andeq	r9, r0, r7, lsr #22
    4eec:	0032fb00 	eorseq	pc, r2, r0, lsl #22
    4ef0:	0032f500 	eorseq	pc, r2, r0, lsl #10
    4ef4:	0f000000 	svceq	0x00000000
    4ef8:	04000001 	streq	r0, [r0], #-1
    4efc:	001bb100 	andseq	fp, fp, r0, lsl #2
    4f00:	64010400 	strvs	r0, [r1], #-1024	; 0xfffffc00
    4f04:	0c000004 	stceq	0, cr0, [r0], {4}
    4f08:	00000ba7 	andeq	r0, r0, r7, lsr #23
    4f0c:	0000051c 	andeq	r0, r0, ip, lsl r5
    4f10:	0000a10c 	andeq	sl, r0, ip, lsl #2
    4f14:	00000018 	andeq	r0, r0, r8, lsl r0
    4f18:	0000275a 	andeq	r2, r0, sl, asr r7
    4f1c:	69050402 	stmdbvs	r5, {r1, sl}
    4f20:	0300746e 	movweq	r7, #1134	; 0x46e
    4f24:	00a80704 	adceq	r0, r8, r4, lsl #14
    4f28:	01030000 	mrseq	r0, (UNDEF: 3)
    4f2c:	00004606 	andeq	r4, r0, r6, lsl #12
    4f30:	05020300 	streq	r0, [r2, #-768]	; 0xfffffd00
    4f34:	000000f5 	strdeq	r0, [r0], -r5
    4f38:	ba050403 	blt	145f4c <__bss_end__+0x13b15c>
    4f3c:	03000000 	movweq	r0, #0
    4f40:	00b50508 	adcseq	r0, r5, r8, lsl #10
    4f44:	01030000 	mrseq	r0, (UNDEF: 3)
    4f48:	00004408 	andeq	r4, r0, r8, lsl #8
    4f4c:	07020300 	streq	r0, [r2, -r0, lsl #6]
    4f50:	0000005f 	andeq	r0, r0, pc, asr r0
    4f54:	a3070403 	movwge	r0, #29699	; 0x7403
    4f58:	03000000 	movweq	r0, #0
    4f5c:	009e0708 	addseq	r0, lr, r8, lsl #14
    4f60:	25040000 	strcs	r0, [r4, #-0]
    4f64:	7a000000 	bvc	4f6c <__code_start__-0x3094>
    4f68:	05000000 	streq	r0, [r0, #-0]
    4f6c:	00000025 	andeq	r0, r0, r5, lsr #32
    4f70:	01090600 	tsteq	r9, r0, lsl #12
    4f74:	1c020000 	stcne	0, cr0, [r2], {-0}
    4f78:	0000860e 	andeq	r8, r0, lr, lsl #12
    4f7c:	6b040700 	blvs	106b84 <__bss_end__+0xfbd94>
    4f80:	04000000 	streq	r0, [r0], #-0
    4f84:	00000025 	andeq	r0, r0, r5, lsr #32
    4f88:	0000009b 	muleq	r0, fp, r0
    4f8c:	00009b05 	andeq	r9, r0, r5, lsl #22
    4f90:	04070000 	streq	r0, [r7], #-0
    4f94:	000000a8 	andeq	r0, r0, r8, lsr #1
    4f98:	4d080103 	stfmis	f0, [r8, #-12]
    4f9c:	08000000 	stmdaeq	r0, {}	; <UNPREDICTABLE>
    4fa0:	000000a1 	andeq	r0, r0, r1, lsr #1
    4fa4:	00058406 	andeq	r8, r5, r6, lsl #8
    4fa8:	0e210200 	cdpeq	2, 2, cr0, cr1, cr0, {0}
    4fac:	000000b9 	strheq	r0, [r0], -r9
    4fb0:	008c0407 	addeq	r0, ip, r7, lsl #8
    4fb4:	07090000 	streq	r0, [r9, -r0]
    4fb8:	01000006 	tsteq	r0, r6
    4fbc:	010c0703 	tsteq	ip, r3, lsl #14
    4fc0:	a10c0000 	mrsge	r0, (UNDEF: 12)
    4fc4:	00180000 	andseq	r0, r8, r0
    4fc8:	9c010000 	stcls	0, cr0, [r1], {-0}
    4fcc:	0000010c 	andeq	r0, r0, ip, lsl #2
    4fd0:	0031730a 	eorseq	r7, r1, sl, lsl #6
    4fd4:	0c150301 	ldceq	3, cr0, [r5], {1}
    4fd8:	01000001 	tsteq	r0, r1
    4fdc:	32730b50 	rsbscc	r0, r3, #80, 22	; 0x14000
    4fe0:	26030100 	strcs	r0, [r3], -r0, lsl #2
    4fe4:	0000009b 	muleq	r0, fp, r0
    4fe8:	0000332a 	andeq	r3, r0, sl, lsr #6
    4fec:	00003324 	andeq	r3, r0, r4, lsr #6
    4ff0:	0100730c 	tsteq	r0, ip, lsl #6
    4ff4:	010c1404 	tsteq	ip, r4, lsl #8
    4ff8:	33570000 	cmpcc	r7, #0, 0
    4ffc:	33550000 	cmpcc	r5, #0, 0
    5000:	07000000 	streq	r0, [r0, -r0]
    5004:	0000a104 	andeq	sl, r0, r4, lsl #2
    5008:	014e0000 	mrseq	r0, (UNDEF: 78)
    500c:	00040000 	andeq	r0, r4, r0
    5010:	00001c67 	andeq	r1, r0, r7, ror #24
    5014:	04640104 	strbteq	r0, [r4], #-260	; 0xfffffefc
    5018:	b70c0000 	strlt	r0, [ip, -r0]
    501c:	1c00000b 	stcne	0, cr0, [r0], {11}
    5020:	24000005 	strcs	r0, [r0], #-5
    5024:	300000a1 	andcc	r0, r0, r1, lsr #1
    5028:	fb000000 	blx	5032 <__code_start__-0x2fce>
    502c:	02000027 	andeq	r0, r0, #39, 0	; 0x27
    5030:	6e690504 	cdpvs	5, 6, cr0, cr9, cr4, {0}
    5034:	4d030074 	stcmi	0, cr0, [r3, #-464]	; 0xfffffe30
    5038:	03000004 	movweq	r0, #4
    503c:	003817d1 	ldrsbteq	r1, [r8], -r1
    5040:	04040000 	streq	r0, [r4], #-0
    5044:	0000a807 	andeq	sl, r0, r7, lsl #16
    5048:	06010400 	streq	r0, [r1], -r0, lsl #8
    504c:	00000046 	andeq	r0, r0, r6, asr #32
    5050:	f5050204 			; <UNDEFINED> instruction: 0xf5050204
    5054:	04000000 	streq	r0, [r0], #-0
    5058:	00ba0504 	adcseq	r0, sl, r4, lsl #10
    505c:	08040000 	stmdaeq	r4, {}	; <UNPREDICTABLE>
    5060:	0000b505 	andeq	fp, r0, r5, lsl #10
    5064:	08010400 	stmdaeq	r1, {sl}
    5068:	00000044 	andeq	r0, r0, r4, asr #32
    506c:	00005b05 	andeq	r5, r0, r5, lsl #22
    5070:	07020400 	streq	r0, [r2, -r0, lsl #8]
    5074:	0000005f 	andeq	r0, r0, pc, asr r0
    5078:	a3070404 	movwge	r0, #29700	; 0x7404
    507c:	04000000 	streq	r0, [r0], #-0
    5080:	009e0708 	addseq	r0, lr, r8, lsl #14
    5084:	25060000 	strcs	r0, [r6, #-0]
    5088:	8b000000 	blhi	5090 <__code_start__-0x2f70>
    508c:	07000000 	streq	r0, [r0, -r0]
    5090:	00000025 	andeq	r0, r0, r5, lsr #32
    5094:	01090800 	tsteq	r9, r0, lsl #16
    5098:	1c020000 	stcne	0, cr0, [r2], {-0}
    509c:	0000970e 	andeq	r9, r0, lr, lsl #14
    50a0:	7c040900 			; <UNDEFINED> instruction: 0x7c040900
    50a4:	06000000 	streq	r0, [r0], -r0
    50a8:	00000025 	andeq	r0, r0, r5, lsr #32
    50ac:	000000ac 	andeq	r0, r0, ip, lsr #1
    50b0:	0000ac07 	andeq	sl, r0, r7, lsl #24
    50b4:	04090000 	streq	r0, [r9], #-0
    50b8:	000000b9 	strheq	r0, [r0], -r9
    50bc:	4d080104 	stfmis	f0, [r8, #-16]
    50c0:	05000000 	streq	r0, [r0, #-0]
    50c4:	000000b2 	strheq	r0, [r0], -r2
    50c8:	00058408 	andeq	r8, r5, r8, lsl #8
    50cc:	0e210200 	cdpeq	2, 2, cr0, cr1, cr0, {0}
    50d0:	000000ca 	andeq	r0, r0, sl, asr #1
    50d4:	009d0409 	addseq	r0, sp, r9, lsl #8
    50d8:	4f0a0000 	svcmi	0x000a0000
    50dc:	01000006 	tsteq	r0, r6
    50e0:	00250504 	eoreq	r0, r5, r4, lsl #10
    50e4:	a1240000 			; <UNDEFINED> instruction: 0xa1240000
    50e8:	00300000 	eorseq	r0, r0, r0
    50ec:	9c010000 	stcls	0, cr0, [r1], {-0}
    50f0:	0000014b 	andeq	r0, r0, fp, asr #2
    50f4:	31735f0b 	cmncc	r3, fp, lsl #30
    50f8:	19040100 	stmdbne	r4, {r8}
    50fc:	000000ac 	andeq	r0, r0, ip, lsr #1
    5100:	0000336e 	andeq	r3, r0, lr, ror #6
    5104:	0000336a 	andeq	r3, r0, sl, ror #6
    5108:	32735f0b 	rsbscc	r5, r3, #11, 30	; 0x2c
    510c:	2a040100 	bcs	105514 <__bss_end__+0xfa724>
    5110:	000000ac 	andeq	r0, r0, ip, lsr #1
    5114:	00003393 	muleq	r0, r3, r3
    5118:	0000338f 	andeq	r3, r0, pc, lsl #7
    511c:	01006e0b 	tsteq	r0, fp, lsl #28
    5120:	002c3604 	eoreq	r3, ip, r4, lsl #12
    5124:	33be0000 			; <UNDEFINED> instruction: 0x33be0000
    5128:	33b40000 			; <UNDEFINED> instruction: 0x33b40000
    512c:	730c0000 	movwvc	r0, #49152	; 0xc000
    5130:	05010031 	streq	r0, [r1, #-49]	; 0xffffffcf
    5134:	00014b1a 	andeq	r4, r1, sl, lsl fp
    5138:	00341500 	eorseq	r1, r4, r0, lsl #10
    513c:	00340d00 	eorseq	r0, r4, r0, lsl #26
    5140:	32730c00 	rsbscc	r0, r3, #0, 24
    5144:	2c050100 	stfcss	f0, [r5], {-0}
    5148:	0000014b 	andeq	r0, r0, fp, asr #2
    514c:	00003453 	andeq	r3, r0, r3, asr r4
    5150:	0000344d 	andeq	r3, r0, sp, asr #8
    5154:	62040900 	andvs	r0, r4, #0, 18
    5158:	00000000 	andeq	r0, r0, r0
    515c:	000000ce 	andeq	r0, r0, lr, asr #1
    5160:	1d1b0004 	ldcne	0, cr0, [fp, #-16]
    5164:	01040000 	mrseq	r0, (UNDEF: 4)
    5168:	00000464 	andeq	r0, r0, r4, ror #8
    516c:	000bc80c 	andeq	ip, fp, ip, lsl #16
    5170:	00051c00 	andeq	r1, r5, r0, lsl #24
    5174:	00a15400 	adceq	r5, r1, r0, lsl #8
    5178:	00000400 	andeq	r0, r0, r0, lsl #8
    517c:	0028fc00 	eoreq	pc, r8, r0, lsl #24
    5180:	05040200 	streq	r0, [r4, #-512]	; 0xfffffe00
    5184:	00746e69 	rsbseq	r6, r4, r9, ror #28
    5188:	a8070403 	stmdage	r7, {r0, r1, sl}
    518c:	03000000 	movweq	r0, #0
    5190:	00460601 	subeq	r0, r6, r1, lsl #12
    5194:	02030000 	andeq	r0, r3, #0, 0
    5198:	0000f505 	andeq	pc, r0, r5, lsl #10
    519c:	05040300 	streq	r0, [r4, #-768]	; 0xfffffd00
    51a0:	000000ba 	strheq	r0, [r0], -sl
    51a4:	b5050803 	strlt	r0, [r5, #-2051]	; 0xfffff7fd
    51a8:	03000000 	movweq	r0, #0
    51ac:	00440801 	subeq	r0, r4, r1, lsl #16
    51b0:	02030000 	andeq	r0, r3, #0, 0
    51b4:	00005f07 	andeq	r5, r0, r7, lsl #30
    51b8:	07040300 	streq	r0, [r4, -r0, lsl #6]
    51bc:	000000a3 	andeq	r0, r0, r3, lsr #1
    51c0:	9e070803 	cdpls	8, 0, cr0, cr7, cr3, {0}
    51c4:	04000000 	streq	r0, [r0], #-0
    51c8:	00000025 	andeq	r0, r0, r5, lsr #32
    51cc:	0000007a 	andeq	r0, r0, sl, ror r0
    51d0:	00002505 	andeq	r2, r0, r5, lsl #10
    51d4:	09060000 	stmdbeq	r6, {}	; <UNPREDICTABLE>
    51d8:	02000001 	andeq	r0, r0, #1, 0
    51dc:	00860e1c 	addeq	r0, r6, ip, lsl lr
    51e0:	04070000 	streq	r0, [r7], #-0
    51e4:	0000006b 	andeq	r0, r0, fp, rrx
    51e8:	00002504 	andeq	r2, r0, r4, lsl #10
    51ec:	00009b00 	andeq	r9, r0, r0, lsl #22
    51f0:	009b0500 	addseq	r0, fp, r0, lsl #10
    51f4:	07000000 	streq	r0, [r0, -r0]
    51f8:	0000a804 	andeq	sl, r0, r4, lsl #16
    51fc:	08010300 	stmdaeq	r1, {r8, r9}
    5200:	0000004d 	andeq	r0, r0, sp, asr #32
    5204:	0000a108 	andeq	sl, r0, r8, lsl #2
    5208:	05840600 	streq	r0, [r4, #1536]	; 0x600
    520c:	21020000 	mrscs	r0, (UNDEF: 2)
    5210:	0000b90e 	andeq	fp, r0, lr, lsl #18
    5214:	8c040700 	stchi	7, cr0, [r4], {-0}
    5218:	09000000 	stmdbeq	r0, {}	; <UNPREDICTABLE>
    521c:	000006f6 	strdeq	r0, [r0], -r6
    5220:	54060301 	strpl	r0, [r6], #-769	; 0xfffffcff
    5224:	040000a1 	streq	r0, [r0], #-161	; 0xffffff5f
    5228:	01000000 	mrseq	r0, (UNDEF: 0)
    522c:	Address 0x000000000000522c is out of bounds.


Disassembly of section .debug_abbrev:

00000000 <.debug_abbrev>:
       0:	25011101 	strcs	r1, [r1, #-257]	; 0xfffffeff
       4:	030b130e 	movweq	r1, #45838	; 0xb30e
       8:	110e1b0e 	tstne	lr, lr, lsl #22
       c:	10061201 	andne	r1, r6, r1, lsl #4
      10:	02000017 	andeq	r0, r0, #23, 0
      14:	0b0b0024 	bleq	2c00ac <__bss_end__+0x2b52bc>
      18:	08030b3e 	stmdaeq	r3, {r1, r2, r3, r4, r5, r8, r9, fp}
      1c:	24030000 	strcs	r0, [r3], #-0
      20:	3e0b0b00 	vmlacc.f64	d0, d11, d0
      24:	000e030b 	andeq	r0, lr, fp, lsl #6
      28:	01150400 	tsteq	r5, r0, lsl #8
      2c:	13491927 	movtne	r1, #39207	; 0x9927
      30:	00001301 	andeq	r1, r0, r1, lsl #6
      34:	49000505 	stmdbmi	r0, {r0, r2, r8, sl}
      38:	06000013 			; <UNDEFINED> instruction: 0x06000013
      3c:	0e030034 	mcreq	0, 0, r0, cr3, cr4, {1}
      40:	0b3b0b3a 	bleq	ec2d30 <__bss_end__+0xeb7f40>
      44:	13490b39 	movtne	r0, #39737	; 0x9b39
      48:	193c193f 	ldmdbne	ip!, {r0, r1, r2, r3, r4, r5, r8, fp, ip}
      4c:	0f070000 	svceq	0x00070000
      50:	490b0b00 	stmdbmi	fp, {r8, r9, fp}
      54:	08000013 	stmdaeq	r0, {r0, r1, r4}
      58:	13490026 	movtne	r0, #36902	; 0x9026
      5c:	13090000 	movwne	r0, #36864	; 0x9000
      60:	3a0b0b01 	bcc	2c2c6c <__bss_end__+0x2b7e7c>
      64:	390b3b0b 	stmdbcc	fp, {r0, r1, r3, r8, r9, fp, ip, sp}
      68:	0013010b 	andseq	r0, r3, fp, lsl #2
      6c:	000d0a00 	andeq	r0, sp, r0, lsl #20
      70:	0b3a0e03 	bleq	e83884 <__bss_end__+0xe78a94>
      74:	0b390b3b 	bleq	e42d68 <__bss_end__+0xe37f78>
      78:	0b381349 	bleq	e04da4 <__bss_end__+0xdf9fb4>
      7c:	160b0000 	strne	r0, [fp], -r0
      80:	3a0e0300 	bcc	380c88 <__bss_end__+0x375e98>
      84:	390b3b0b 	stmdbcc	fp, {r0, r1, r3, r8, r9, fp, ip, sp}
      88:	0013490b 	andseq	r4, r3, fp, lsl #18
      8c:	000f0c00 	andeq	r0, pc, r0, lsl #24
      90:	00000b0b 	andeq	r0, r0, fp, lsl #22
      94:	3f012e0d 	svccc	0x00012e0d
      98:	3a0e0319 	bcc	380d04 <__bss_end__+0x375f14>
      9c:	390b3b0b 	stmdbcc	fp, {r0, r1, r3, r8, r9, fp, ip, sp}
      a0:	1119270b 	tstne	r9, fp, lsl #14
      a4:	40061201 	andmi	r1, r6, r1, lsl #4
      a8:	19429718 	stmdbne	r2, {r3, r4, r8, r9, sl, ip, pc}^
      ac:	00001301 	andeq	r1, r0, r1, lsl #6
      b0:	0182890e 	orreq	r8, r2, lr, lsl #18
      b4:	31011101 	tstcc	r1, r1, lsl #2
      b8:	00130113 	andseq	r0, r3, r3, lsl r1
      bc:	828a0f00 	addhi	r0, sl, #0, 30
      c0:	18020001 	stmdane	r2, {r0}
      c4:	00184291 	mulseq	r8, r1, r2
      c8:	82891000 	addhi	r1, r9, #0, 0
      cc:	01110001 	tsteq	r1, r1
      d0:	00001331 	andeq	r1, r0, r1, lsr r3
      d4:	3f012e11 	svccc	0x00012e11
      d8:	3a080319 	bcc	200d44 <__bss_end__+0x1f5f54>
      dc:	390b3b0b 	stmdbcc	fp, {r0, r1, r3, r8, r9, fp, ip, sp}
      e0:	1119270b 	tstne	r9, fp, lsl #14
      e4:	40061201 	andmi	r1, r6, r1, lsl #4
      e8:	19429718 	stmdbne	r2, {r3, r4, r8, r9, sl, ip, pc}^
      ec:	00001301 	andeq	r1, r0, r1, lsl #6
      f0:	3f012e12 	svccc	0x00012e12
      f4:	3a0e0319 	bcc	380d60 <__bss_end__+0x375f70>
      f8:	390b3b0b 	stmdbcc	fp, {r0, r1, r3, r8, r9, fp, ip, sp}
      fc:	4919270b 	ldmdbmi	r9, {r0, r1, r3, r8, r9, sl, sp}
     100:	12011113 	andne	r1, r1, #-1073741820	; 0xc0000004
     104:	97184006 	ldrls	r4, [r8, -r6]
     108:	13011942 	movwne	r1, #6466	; 0x1942
     10c:	13130000 	tstne	r3, #0, 0
     110:	0b0e0301 	bleq	380d1c <__bss_end__+0x375f2c>
     114:	3b0b3a0b 	blcc	2ce948 <__bss_end__+0x2c3b58>
     118:	010b390b 	tsteq	fp, fp, lsl #18
     11c:	14000013 	strne	r0, [r0], #-19	; 0xffffffed
     120:	0803000d 	stmdaeq	r3, {r0, r2, r3}
     124:	0b3b0b3a 	bleq	ec2e14 <__bss_end__+0xeb8024>
     128:	13490b39 	movtne	r0, #39737	; 0x9b39
     12c:	00000b38 	andeq	r0, r0, r8, lsr fp
     130:	03003415 	movweq	r3, #1045	; 0x415
     134:	3b0b3a08 	blcc	2ce95c <__bss_end__+0x2c3b6c>
     138:	490b390b 	stmdbmi	fp, {r0, r1, r3, r8, fp, ip, sp}
     13c:	b7170213 			; <UNDEFINED> instruction: 0xb7170213
     140:	00001742 	andeq	r1, r0, r2, asr #14
     144:	03003416 	movweq	r3, #1046	; 0x416
     148:	3413490e 	ldrcc	r4, [r3], #-2318	; 0xfffff6f2
     14c:	00180219 	andseq	r0, r8, r9, lsl r2
     150:	010b1700 	tsteq	fp, r0, lsl #14
     154:	13011755 	movwne	r1, #5973	; 0x1755
     158:	0b180000 	bleq	600160 <__bss_end__+0x5f5370>
     15c:	00175501 	andseq	r5, r7, r1, lsl #10
     160:	011d1900 	tsteq	sp, r0, lsl #18
     164:	01521331 	cmpeq	r2, r1, lsr r3
     168:	110b42b8 			; <UNDEFINED> instruction: 0x110b42b8
     16c:	58061201 	stmdapl	r6, {r0, r9, ip}
     170:	570b590b 	strpl	r5, [fp, -fp, lsl #18]
     174:	0013010b 	andseq	r0, r3, fp, lsl #2
     178:	00051a00 	andeq	r1, r5, r0, lsl #20
     17c:	17021331 	smladxne	r2, r1, r3, r1
     180:	001742b7 			; <UNDEFINED> instruction: 0x001742b7
     184:	82891b00 	addhi	r1, r9, #0, 22
     188:	01110101 	tsteq	r1, r1, lsl #2
     18c:	00001331 	andeq	r1, r0, r1, lsr r3
     190:	4901011c 	stmdbmi	r1, {r2, r3, r4, r8}
     194:	00130113 	andseq	r0, r3, r3, lsl r1
     198:	00211d00 	eoreq	r1, r1, r0, lsl #26
     19c:	0b2f1349 	bleq	bc4ec8 <__bss_end__+0xbba0d8>
     1a0:	2e1e0000 	cdpcs	0, 1, cr0, cr14, cr0, {0}
     1a4:	3a0e0301 	bcc	380db0 <__bss_end__+0x375fc0>
     1a8:	390b3b0b 	stmdbcc	fp, {r0, r1, r3, r8, r9, fp, ip, sp}
     1ac:	4919270b 	ldmdbmi	r9, {r0, r1, r3, r8, r9, sl, sp}
     1b0:	010b2013 	tsteq	fp, r3, lsl r0
     1b4:	1f000013 	svcne	0x00000013
     1b8:	0e030005 	cdpeq	0, 0, cr0, cr3, cr5, {0}
     1bc:	0b3b0b3a 	bleq	ec2eac <__bss_end__+0xeb80bc>
     1c0:	13490b39 	movtne	r0, #39737	; 0x9b39
     1c4:	2e200000 	cdpcs	0, 2, cr0, cr0, cr0, {0}
     1c8:	3c193f00 	ldccc	15, cr3, [r9], {-0}
     1cc:	030e6e19 	movweq	r6, #60953	; 0xee19
     1d0:	3b0b3a0e 	blcc	2cea10 <__bss_end__+0x2c3c20>
     1d4:	000b390b 	andeq	r3, fp, fp, lsl #18
     1d8:	00362100 	eorseq	r2, r6, r0, lsl #2
     1dc:	00001802 	andeq	r1, r0, r2, lsl #16
     1e0:	01110100 	tsteq	r1, r0, lsl #2
     1e4:	0b130e25 	bleq	4c3a80 <__bss_end__+0x4b8c90>
     1e8:	0e1b0e03 	cdpeq	14, 1, cr0, cr11, cr3, {0}
     1ec:	06120111 			; <UNDEFINED> instruction: 0x06120111
     1f0:	00001710 	andeq	r1, r0, r0, lsl r7
     1f4:	0b002402 	bleq	9204 <va_printk+0x1d8>
     1f8:	030b3e0b 	movweq	r3, #48651	; 0xbe0b
     1fc:	03000008 	movweq	r0, #8
     200:	0b0b0024 	bleq	2c0298 <__bss_end__+0x2b54a8>
     204:	0e030b3e 	vmoveq.16	d3[0], r0
     208:	16040000 	strne	r0, [r4], -r0
     20c:	3a0e0300 	bcc	380e14 <__bss_end__+0x376024>
     210:	390b3b0b 	stmdbcc	fp, {r0, r1, r3, r8, r9, fp, ip, sp}
     214:	0013490b 	andseq	r4, r3, fp, lsl #18
     218:	01150500 	tsteq	r5, r0, lsl #10
     21c:	13491927 	movtne	r1, #39207	; 0x9927
     220:	00001301 	andeq	r1, r0, r1, lsl #6
     224:	49000506 	stmdbmi	r0, {r1, r2, r8, sl}
     228:	07000013 	smladeq	r0, r3, r0, r0
     22c:	0e030034 	mcreq	0, 0, r0, cr3, cr4, {1}
     230:	0b3b0b3a 	bleq	ec2f20 <__bss_end__+0xeb8130>
     234:	13490b39 	movtne	r0, #39737	; 0x9b39
     238:	193c193f 	ldmdbne	ip!, {r0, r1, r2, r3, r4, r5, r8, fp, ip}
     23c:	0f080000 	svceq	0x00080000
     240:	490b0b00 	stmdbmi	fp, {r8, r9, fp}
     244:	09000013 	stmdbeq	r0, {r0, r1, r4}
     248:	13490026 	movtne	r0, #36902	; 0x9026
     24c:	130a0000 	movwne	r0, #40960	; 0xa000
     250:	3a0b0b01 	bcc	2c2e5c <__bss_end__+0x2b806c>
     254:	390b3b0b 	stmdbcc	fp, {r0, r1, r3, r8, r9, fp, ip, sp}
     258:	0013010b 	andseq	r0, r3, fp, lsl #2
     25c:	000d0b00 	andeq	r0, sp, r0, lsl #22
     260:	0b3a0e03 	bleq	e83a74 <__bss_end__+0xe78c84>
     264:	0b390b3b 	bleq	e42f58 <__bss_end__+0xe38168>
     268:	0b381349 	bleq	e04f94 <__bss_end__+0xdfa1a4>
     26c:	040c0000 	streq	r0, [ip], #-0
     270:	0b0b3e01 	bleq	2cfa7c <__bss_end__+0x2c4c8c>
     274:	3a13490b 	bcc	4d26a8 <__bss_end__+0x4c78b8>
     278:	390b3b0b 	stmdbcc	fp, {r0, r1, r3, r8, r9, fp, ip, sp}
     27c:	0013010b 	andseq	r0, r3, fp, lsl #2
     280:	00280d00 	eoreq	r0, r8, r0, lsl #26
     284:	0b1c0e03 	bleq	703a98 <__bss_end__+0x6f8ca8>
     288:	130e0000 	movwne	r0, #57344	; 0xe000
     28c:	0b0e0301 	bleq	380e98 <__bss_end__+0x3760a8>
     290:	3b0b3a0b 	blcc	2ceac4 <__bss_end__+0x2c3cd4>
     294:	010b390b 	tsteq	fp, fp, lsl #18
     298:	0f000013 	svceq	0x00000013
     29c:	0b0b000f 	bleq	2c02e0 <__bss_end__+0x2b54f0>
     2a0:	34100000 	ldrcc	r0, [r0], #-0
     2a4:	3a0e0300 	bcc	380eac <__bss_end__+0x3760bc>
     2a8:	390b3b0b 	stmdbcc	fp, {r0, r1, r3, r8, r9, fp, ip, sp}
     2ac:	0213490b 	andseq	r4, r3, #180224	; 0x2c000
     2b0:	11000018 	tstne	r0, r8, lsl r0
     2b4:	193f012e 	ldmdbne	pc!, {r1, r2, r3, r5, r8}	; <UNPREDICTABLE>
     2b8:	0b3a0e03 	bleq	e83acc <__bss_end__+0xe78cdc>
     2bc:	0b390b3b 	bleq	e42fb0 <__bss_end__+0xe381c0>
     2c0:	13491927 	movtne	r1, #39207	; 0x9927
     2c4:	06120111 			; <UNDEFINED> instruction: 0x06120111
     2c8:	42971840 	addsmi	r1, r7, #64, 16	; 0x400000
     2cc:	00130119 	andseq	r0, r3, r9, lsl r1
     2d0:	00051200 	andeq	r1, r5, r0, lsl #4
     2d4:	0b3a0e03 	bleq	e83ae8 <__bss_end__+0xe78cf8>
     2d8:	0b390b3b 	bleq	e42fcc <__bss_end__+0xe381dc>
     2dc:	17021349 	strne	r1, [r2, -r9, asr #6]
     2e0:	001742b7 			; <UNDEFINED> instruction: 0x001742b7
     2e4:	00051300 	andeq	r1, r5, r0, lsl #6
     2e8:	0b3a0803 	bleq	e822fc <__bss_end__+0xe7750c>
     2ec:	0b390b3b 	bleq	e42fe0 <__bss_end__+0xe381f0>
     2f0:	18021349 	stmdane	r2, {r0, r3, r6, r8, r9, ip}
     2f4:	34140000 	ldrcc	r0, [r4], #-0
     2f8:	3a080300 	bcc	200f00 <__bss_end__+0x1f6110>
     2fc:	390b3b0b 	stmdbcc	fp, {r0, r1, r3, r8, r9, fp, ip, sp}
     300:	0213490b 	andseq	r4, r3, #180224	; 0x2c000
     304:	1742b717 	smlaldne	fp, r2, r7, r7
     308:	89150000 	ldmdbhi	r5, {}	; <UNPREDICTABLE>
     30c:	11010182 	smlabbne	r1, r2, r1, r0
     310:	01133101 	tsteq	r3, r1, lsl #2
     314:	16000013 			; <UNDEFINED> instruction: 0x16000013
     318:	0001828a 	andeq	r8, r1, sl, lsl #5
     31c:	42911802 	addsmi	r1, r1, #131072	; 0x20000
     320:	17000018 	smladne	r0, r8, r0, r0
     324:	01018289 	smlabbeq	r1, r9, r2, r8
     328:	13310111 	teqne	r1, #1073741828	; 0x40000004
     32c:	2e180000 	cdpcs	0, 1, cr0, cr8, cr0, {0}
     330:	03193f01 	tsteq	r9, #1, 30
     334:	3b0b3a0e 	blcc	2ceb74 <__bss_end__+0x2c3d84>
     338:	270b390b 	strcs	r3, [fp, -fp, lsl #18]
     33c:	12011119 	andne	r1, r1, #1073741830	; 0x40000006
     340:	97184006 	ldrls	r4, [r8, -r6]
     344:	13011942 	movwne	r1, #6466	; 0x1942
     348:	34190000 	ldrcc	r0, [r9], #-0
     34c:	490e0300 	stmdbmi	lr, {r8, r9}
     350:	02193413 	andseq	r3, r9, #318767104	; 0x13000000
     354:	1a000018 	bne	3bc <__code_start__-0x7c44>
     358:	00018289 	andeq	r8, r1, r9, lsl #5
     35c:	13310111 	teqne	r1, #1073741828	; 0x40000004
     360:	011b0000 	tsteq	fp, r0
     364:	01134901 	tsteq	r3, r1, lsl #18
     368:	1c000013 	stcne	0, cr0, [r0], {19}
     36c:	13490021 	movtne	r0, #36897	; 0x9021
     370:	00000b2f 	andeq	r0, r0, pc, lsr #22
     374:	03012e1d 	movweq	r2, #7709	; 0x1e1d
     378:	3b0b3a0e 	blcc	2cebb8 <__bss_end__+0x2c3dc8>
     37c:	270b390b 	strcs	r3, [fp, -fp, lsl #18]
     380:	12011119 	andne	r1, r1, #1073741830	; 0x40000006
     384:	97184006 	ldrls	r4, [r8, -r6]
     388:	13011942 	movwne	r1, #6466	; 0x1942
     38c:	051e0000 	ldreq	r0, [lr, #-0]
     390:	3a080300 	bcc	200f98 <__bss_end__+0x1f61a8>
     394:	390b3b0b 	stmdbcc	fp, {r0, r1, r3, r8, r9, fp, ip, sp}
     398:	0213490b 	andseq	r4, r3, #180224	; 0x2c000
     39c:	1742b717 	smlaldne	fp, r2, r7, r7
     3a0:	341f0000 	ldrcc	r0, [pc], #-0	; 3a8 <__code_start__-0x7c58>
     3a4:	3a0e0300 	bcc	380fac <__bss_end__+0x3761bc>
     3a8:	390b3b0b 	stmdbcc	fp, {r0, r1, r3, r8, r9, fp, ip, sp}
     3ac:	0213490b 	andseq	r4, r3, #180224	; 0x2c000
     3b0:	1742b717 	smlaldne	fp, r2, r7, r7
     3b4:	0b200000 	bleq	8003bc <__bss_end__+0x7f55cc>
     3b8:	12011101 	andne	r1, r1, #1073741824	; 0x40000000
     3bc:	21000006 	tstcs	r0, r6
     3c0:	1331011d 	teqne	r1, #1073741831	; 0x40000007
     3c4:	42b80152 	adcsmi	r0, r8, #-2147483628	; 0x80000014
     3c8:	1201110b 	andne	r1, r1, #-1073741822	; 0xc0000002
     3cc:	590b5806 	stmdbpl	fp, {r1, r2, fp, ip, lr}
     3d0:	010b570b 	tsteq	fp, fp, lsl #14
     3d4:	22000013 	andcs	r0, r0, #19, 0
     3d8:	13310005 	teqne	r1, #5, 0
     3dc:	42b71702 	adcsmi	r1, r7, #524288	; 0x80000
     3e0:	23000017 	movwcs	r0, #23
     3e4:	193f002e 	ldmdbne	pc!, {r1, r2, r3, r5}	; <UNPREDICTABLE>
     3e8:	0b3a0e03 	bleq	e83bfc <__bss_end__+0xe78e0c>
     3ec:	0b390b3b 	bleq	e430e0 <__bss_end__+0xe382f0>
     3f0:	13491927 	movtne	r1, #39207	; 0x9927
     3f4:	06120111 			; <UNDEFINED> instruction: 0x06120111
     3f8:	42971840 	addsmi	r1, r7, #64, 16	; 0x400000
     3fc:	24000019 	strcs	r0, [r0], #-25	; 0xffffffe7
     400:	0e03012e 	adfeqsp	f0, f3, #0.5
     404:	0b3b0b3a 	bleq	ec30f4 <__bss_end__+0xeb8304>
     408:	19270b39 	stmdbne	r7!, {r0, r3, r4, r5, r8, r9, fp}
     40c:	0b201349 	bleq	805138 <__bss_end__+0x7fa348>
     410:	00001301 	andeq	r1, r0, r1, lsl #6
     414:	03000525 	movweq	r0, #1317	; 0x525
     418:	3b0b3a08 	blcc	2cec40 <__bss_end__+0x2c3e50>
     41c:	490b390b 	stmdbmi	fp, {r0, r1, r3, r8, fp, ip, sp}
     420:	26000013 			; <UNDEFINED> instruction: 0x26000013
     424:	193f002e 	ldmdbne	pc!, {r1, r2, r3, r5}	; <UNPREDICTABLE>
     428:	0e6e193c 			; <UNDEFINED> instruction: 0x0e6e193c
     42c:	0b3a0e03 	bleq	e83c40 <__bss_end__+0xe78e50>
     430:	0b390b3b 	bleq	e43124 <__bss_end__+0xe38334>
     434:	01000000 	mrseq	r0, (UNDEF: 0)
     438:	0e250111 	mcreq	1, 1, r0, cr5, cr1, {0}
     43c:	0e030b13 	vmoveq.32	d3[0], r0
     440:	01110e1b 	tsteq	r1, fp, lsl lr
     444:	17100612 			; <UNDEFINED> instruction: 0x17100612
     448:	24020000 	strcs	r0, [r2], #-0
     44c:	3e0b0b00 	vmlacc.f64	d0, d11, d0
     450:	0008030b 	andeq	r0, r8, fp, lsl #6
     454:	00240300 	eoreq	r0, r4, r0, lsl #6
     458:	0b3e0b0b 	bleq	f8308c <__bss_end__+0xf7829c>
     45c:	00000e03 	andeq	r0, r0, r3, lsl #28
     460:	27011504 	strcs	r1, [r1, -r4, lsl #10]
     464:	01134919 	tsteq	r3, r9, lsl r9
     468:	05000013 	streq	r0, [r0, #-19]	; 0xffffffed
     46c:	13490005 	movtne	r0, #36869	; 0x9005
     470:	34060000 	strcc	r0, [r6], #-0
     474:	3a0e0300 	bcc	38107c <__bss_end__+0x37628c>
     478:	390b3b0b 	stmdbcc	fp, {r0, r1, r3, r8, r9, fp, ip, sp}
     47c:	3f13490b 	svccc	0x0013490b
     480:	00193c19 	andseq	r3, r9, r9, lsl ip
     484:	000f0700 	andeq	r0, pc, r0, lsl #14
     488:	13490b0b 	movtne	r0, #39691	; 0x9b0b
     48c:	26080000 	strcs	r0, [r8], -r0
     490:	00134900 	andseq	r4, r3, r0, lsl #18
     494:	01170900 	tsteq	r7, r0, lsl #18
     498:	0b0b0e03 	bleq	2c3cac <__bss_end__+0x2b8ebc>
     49c:	0b3b0b3a 	bleq	ec318c <__bss_end__+0xeb839c>
     4a0:	13010b39 	movwne	r0, #6969	; 0x1b39
     4a4:	0d0a0000 	stceq	0, cr0, [sl, #-0]
     4a8:	3a080300 	bcc	2010b0 <__bss_end__+0x1f62c0>
     4ac:	390b3b0b 	stmdbcc	fp, {r0, r1, r3, r8, r9, fp, ip, sp}
     4b0:	0013490b 	andseq	r4, r3, fp, lsl #18
     4b4:	000f0b00 	andeq	r0, pc, r0, lsl #22
     4b8:	00000b0b 	andeq	r0, r0, fp, lsl #22
     4bc:	2700150c 	strcs	r1, [r0, -ip, lsl #10]
     4c0:	0d000019 	stceq	0, cr0, [r0, #-100]	; 0xffffff9c
     4c4:	0b0b0113 	bleq	2c0918 <__bss_end__+0x2b5b28>
     4c8:	0b3b0b3a 	bleq	ec31b8 <__bss_end__+0xeb83c8>
     4cc:	13010b39 	movwne	r0, #6969	; 0x1b39
     4d0:	0d0e0000 	stceq	0, cr0, [lr, #-0]
     4d4:	3a080300 	bcc	2010dc <__bss_end__+0x1f62ec>
     4d8:	390b3b0b 	stmdbcc	fp, {r0, r1, r3, r8, r9, fp, ip, sp}
     4dc:	3813490b 	ldmdacc	r3, {r0, r1, r3, r8, fp, lr}
     4e0:	0f00000b 	svceq	0x0000000b
     4e4:	0e03000d 	cdpeq	0, 0, cr0, cr3, cr13, {0}
     4e8:	0b3b0b3a 	bleq	ec31d8 <__bss_end__+0xeb83e8>
     4ec:	13490b39 	movtne	r0, #39737	; 0x9b39
     4f0:	00000b38 	andeq	r0, r0, r8, lsr fp
     4f4:	03001610 	movweq	r1, #1552	; 0x610
     4f8:	3b0b3a0e 	blcc	2ced38 <__bss_end__+0x2c3f48>
     4fc:	490b390b 	stmdbmi	fp, {r0, r1, r3, r8, fp, ip, sp}
     500:	11000013 	tstne	r0, r3, lsl r0
     504:	0e030034 	mcreq	0, 0, r0, cr3, cr4, {1}
     508:	0b3b0b3a 	bleq	ec31f8 <__bss_end__+0xeb8408>
     50c:	13490b39 	movtne	r0, #39737	; 0x9b39
     510:	00001802 	andeq	r1, r0, r2, lsl #16
     514:	3f012e12 	svccc	0x00012e12
     518:	3a0e0319 	bcc	381184 <__bss_end__+0x376394>
     51c:	390b3b0b 	stmdbcc	fp, {r0, r1, r3, r8, r9, fp, ip, sp}
     520:	1119270b 	tstne	r9, fp, lsl #14
     524:	40061201 	andmi	r1, r6, r1, lsl #4
     528:	19429718 	stmdbne	r2, {r3, r4, r8, r9, sl, ip, pc}^
     52c:	00001301 	andeq	r1, r0, r1, lsl #6
     530:	03000513 	movweq	r0, #1299	; 0x513
     534:	3b0b3a08 	blcc	2ced5c <__bss_end__+0x2c3f6c>
     538:	490b390b 	stmdbmi	fp, {r0, r1, r3, r8, fp, ip, sp}
     53c:	00180213 	andseq	r0, r8, r3, lsl r2
     540:	00341400 	eorseq	r1, r4, r0, lsl #8
     544:	0b3a0803 	bleq	e82558 <__bss_end__+0xe77768>
     548:	0b390b3b 	bleq	e4323c <__bss_end__+0xe3844c>
     54c:	17021349 	strne	r1, [r2, -r9, asr #6]
     550:	001742b7 			; <UNDEFINED> instruction: 0x001742b7
     554:	012e1500 			; <UNDEFINED> instruction: 0x012e1500
     558:	0e03193f 			; <UNDEFINED> instruction: 0x0e03193f
     55c:	0b3b0b3a 	bleq	ec324c <__bss_end__+0xeb845c>
     560:	19270b39 	stmdbne	r7!, {r0, r3, r4, r5, r8, r9, fp}
     564:	01111349 	tsteq	r1, r9, asr #6
     568:	18400612 	stmdane	r0, {r1, r4, r9, sl}^
     56c:	01194297 			; <UNDEFINED> instruction: 0x01194297
     570:	16000013 			; <UNDEFINED> instruction: 0x16000013
     574:	0e030005 	cdpeq	0, 0, cr0, cr3, cr5, {0}
     578:	0b3b0b3a 	bleq	ec3268 <__bss_end__+0xeb8478>
     57c:	13490b39 	movtne	r0, #39737	; 0x9b39
     580:	42b71702 	adcsmi	r1, r7, #524288	; 0x80000
     584:	17000017 	smladne	r0, r7, r0, r0
     588:	0e030034 	mcreq	0, 0, r0, cr3, cr4, {1}
     58c:	0b3b0b3a 	bleq	ec327c <__bss_end__+0xeb848c>
     590:	13490b39 	movtne	r0, #39737	; 0x9b39
     594:	42b71702 	adcsmi	r1, r7, #524288	; 0x80000
     598:	18000017 	stmdane	r0, {r0, r1, r2, r4}
     59c:	01018289 	smlabbeq	r1, r9, r2, r8
     5a0:	13310111 	teqne	r1, #1073741828	; 0x40000004
     5a4:	8a190000 	bhi	6405ac <__bss_end__+0x6357bc>
     5a8:	02000182 	andeq	r0, r0, #-2147483616	; 0x80000020
     5ac:	18429118 	stmdane	r2, {r3, r4, r8, ip, pc}^
     5b0:	2e1a0000 	cdpcs	0, 1, cr0, cr10, cr0, {0}
     5b4:	3a0e0301 	bcc	3811c0 <__bss_end__+0x3763d0>
     5b8:	390b3b0b 	stmdbcc	fp, {r0, r1, r3, r8, r9, fp, ip, sp}
     5bc:	4919270b 	ldmdbmi	r9, {r0, r1, r3, r8, r9, sl, sp}
     5c0:	12011113 	andne	r1, r1, #-1073741820	; 0xc0000004
     5c4:	97184006 	ldrls	r4, [r8, -r6]
     5c8:	13011942 	movwne	r1, #6466	; 0x1942
     5cc:	051b0000 	ldreq	r0, [fp, #-0]
     5d0:	3a080300 	bcc	2011d8 <__bss_end__+0x1f63e8>
     5d4:	390b3b0b 	stmdbcc	fp, {r0, r1, r3, r8, r9, fp, ip, sp}
     5d8:	0213490b 	andseq	r4, r3, #180224	; 0x2c000
     5dc:	1742b717 	smlaldne	fp, r2, r7, r7
     5e0:	891c0000 	ldmdbhi	ip, {}	; <UNPREDICTABLE>
     5e4:	11010182 	smlabbne	r1, r2, r1, r0
     5e8:	01133101 	tsteq	r3, r1, lsl #2
     5ec:	1d000013 	stcne	0, cr0, [r0, #-76]	; 0xffffffb4
     5f0:	00018289 	andeq	r8, r1, r9, lsl #5
     5f4:	13310111 	teqne	r1, #1073741828	; 0x40000004
     5f8:	2e1e0000 	cdpcs	0, 1, cr0, cr14, cr0, {0}
     5fc:	3c193f00 	ldccc	15, cr3, [r9], {-0}
     600:	030e6e19 	movweq	r6, #60953	; 0xee19
     604:	3b0b3a0e 	blcc	2cee44 <__bss_end__+0x2c4054>
     608:	000b390b 	andeq	r3, fp, fp, lsl #18
     60c:	11010000 	mrsne	r0, (UNDEF: 1)
     610:	130e2501 	movwne	r2, #58625	; 0xe501
     614:	1b0e030b 	blne	381248 <__bss_end__+0x376458>
     618:	1201110e 	andne	r1, r1, #-2147483645	; 0x80000003
     61c:	00171006 	andseq	r1, r7, r6
     620:	00240200 	eoreq	r0, r4, r0, lsl #4
     624:	0b3e0b0b 	bleq	f83258 <__bss_end__+0xf78468>
     628:	00000803 	andeq	r0, r0, r3, lsl #16
     62c:	0b002403 	bleq	9640 <va_printk+0x614>
     630:	030b3e0b 	movweq	r3, #48651	; 0xbe0b
     634:	0400000e 	streq	r0, [r0], #-14
     638:	0e030016 	mcreq	0, 0, r0, cr3, cr6, {0}
     63c:	0b3b0b3a 	bleq	ec332c <__bss_end__+0xeb853c>
     640:	13490b39 	movtne	r0, #39737	; 0x9b39
     644:	15050000 	strne	r0, [r5, #-0]
     648:	49192701 	ldmdbmi	r9, {r0, r8, r9, sl, sp}
     64c:	00130113 	andseq	r0, r3, r3, lsl r1
     650:	00050600 	andeq	r0, r5, r0, lsl #12
     654:	00001349 	andeq	r1, r0, r9, asr #6
     658:	03003407 	movweq	r3, #1031	; 0x407
     65c:	3b0b3a0e 	blcc	2cee9c <__bss_end__+0x2c40ac>
     660:	490b390b 	stmdbmi	fp, {r0, r1, r3, r8, fp, ip, sp}
     664:	3c193f13 	ldccc	15, cr3, [r9], {19}
     668:	08000019 	stmdaeq	r0, {r0, r3, r4}
     66c:	0b0b000f 	bleq	2c06b0 <__bss_end__+0x2b58c0>
     670:	00001349 	andeq	r1, r0, r9, asr #6
     674:	49002609 	stmdbmi	r0, {r0, r3, r9, sl, sp}
     678:	0a000013 	beq	6cc <__code_start__-0x7934>
     67c:	0b0b0113 	bleq	2c0ad0 <__bss_end__+0x2b5ce0>
     680:	0b3b0b3a 	bleq	ec3370 <__bss_end__+0xeb8580>
     684:	13010b39 	movwne	r0, #6969	; 0x1b39
     688:	0d0b0000 	stceq	0, cr0, [fp, #-0]
     68c:	3a0e0300 	bcc	381294 <__bss_end__+0x3764a4>
     690:	390b3b0b 	stmdbcc	fp, {r0, r1, r3, r8, r9, fp, ip, sp}
     694:	3813490b 	ldmdacc	r3, {r0, r1, r3, r8, fp, lr}
     698:	0c00000b 	stceq	0, cr0, [r0], {11}
     69c:	0e030113 	mcreq	1, 0, r0, cr3, cr3, {0}
     6a0:	0b3a0b0b 	bleq	e832d4 <__bss_end__+0xe784e4>
     6a4:	0b390b3b 	bleq	e43398 <__bss_end__+0xe385a8>
     6a8:	00001301 	andeq	r1, r0, r1, lsl #6
     6ac:	0b000f0d 	bleq	42e8 <__code_start__-0x3d18>
     6b0:	0e00000b 	cdpeq	0, 0, cr0, cr0, cr11, {0}
     6b4:	0e030034 	mcreq	0, 0, r0, cr3, cr4, {1}
     6b8:	0b3b0b3a 	bleq	ec33a8 <__bss_end__+0xeb85b8>
     6bc:	13490b39 	movtne	r0, #39737	; 0x9b39
     6c0:	00001802 	andeq	r1, r0, r2, lsl #16
     6c4:	3f012e0f 	svccc	0x00012e0f
     6c8:	3a0e0319 	bcc	381334 <__bss_end__+0x376544>
     6cc:	39053b0b 	stmdbcc	r5, {r0, r1, r3, r8, r9, fp, ip, sp}
     6d0:	1119270b 	tstne	r9, fp, lsl #14
     6d4:	40061201 	andmi	r1, r6, r1, lsl #4
     6d8:	19429718 	stmdbne	r2, {r3, r4, r8, r9, sl, ip, pc}^
     6dc:	00001301 	andeq	r1, r0, r1, lsl #6
     6e0:	03003410 	movweq	r3, #1040	; 0x410
     6e4:	3413490e 	ldrcc	r4, [r3], #-2318	; 0xfffff6f2
     6e8:	00180219 	andseq	r0, r8, r9, lsl r2
     6ec:	82891100 	addhi	r1, r9, #0
     6f0:	01110101 	tsteq	r1, r1, lsl #2
     6f4:	13011331 	movwne	r1, #4913	; 0x1331
     6f8:	8a120000 	bhi	480700 <__bss_end__+0x475910>
     6fc:	02000182 	andeq	r0, r0, #-2147483616	; 0x80000020
     700:	18429118 	stmdane	r2, {r3, r4, r8, ip, pc}^
     704:	89130000 	ldmdbhi	r3, {}	; <UNPREDICTABLE>
     708:	11000182 	smlabbne	r0, r2, r1, r0
     70c:	00133101 	andseq	r3, r3, r1, lsl #2
     710:	01011400 	tsteq	r1, r0, lsl #8
     714:	13011349 	movwne	r1, #4937	; 0x1349
     718:	21150000 	tstcs	r5, r0
     71c:	2f134900 	svccs	0x00134900
     720:	1600000b 	strne	r0, [r0], -fp
     724:	193f012e 	ldmdbne	pc!, {r1, r2, r3, r5, r8}	; <UNPREDICTABLE>
     728:	0b3a0e03 	bleq	e83f3c <__bss_end__+0xe7914c>
     72c:	0b39053b 	bleq	e41c20 <__bss_end__+0xe36e30>
     730:	13491927 	movtne	r1, #39207	; 0x9927
     734:	06120111 			; <UNDEFINED> instruction: 0x06120111
     738:	42971840 	addsmi	r1, r7, #64, 16	; 0x400000
     73c:	00130119 	andseq	r0, r3, r9, lsl r1
     740:	00341700 	eorseq	r1, r4, r0, lsl #14
     744:	0b3a0e03 	bleq	e83f58 <__bss_end__+0xe79168>
     748:	0b39053b 	bleq	e41c3c <__bss_end__+0xe36e4c>
     74c:	17021349 	strne	r1, [r2, -r9, asr #6]
     750:	001742b7 			; <UNDEFINED> instruction: 0x001742b7
     754:	012e1800 			; <UNDEFINED> instruction: 0x012e1800
     758:	0b3a0e03 	bleq	e83f6c <__bss_end__+0xe7917c>
     75c:	0b390b3b 	bleq	e43450 <__bss_end__+0xe38660>
     760:	13491927 	movtne	r1, #39207	; 0x9927
     764:	06120111 			; <UNDEFINED> instruction: 0x06120111
     768:	42971840 	addsmi	r1, r7, #64, 16	; 0x400000
     76c:	00130119 	andseq	r0, r3, r9, lsl r1
     770:	00341900 	eorseq	r1, r4, r0, lsl #18
     774:	0b3a0e03 	bleq	e83f88 <__bss_end__+0xe79198>
     778:	0b390b3b 	bleq	e4346c <__bss_end__+0xe3867c>
     77c:	17021349 	strne	r1, [r2, -r9, asr #6]
     780:	001742b7 			; <UNDEFINED> instruction: 0x001742b7
     784:	010b1a00 	tsteq	fp, r0, lsl #20
     788:	13011755 	movwne	r1, #5973	; 0x1755
     78c:	341b0000 	ldrcc	r0, [fp], #-0
     790:	3a080300 	bcc	201398 <__bss_end__+0x1f65a8>
     794:	390b3b0b 	stmdbcc	fp, {r0, r1, r3, r8, r9, fp, ip, sp}
     798:	0213490b 	andseq	r4, r3, #180224	; 0x2c000
     79c:	1742b717 	smlaldne	fp, r2, r7, r7
     7a0:	1d1c0000 	ldcne	0, cr0, [ip, #-0]
     7a4:	52133101 	andspl	r3, r3, #1073741824	; 0x40000000
     7a8:	0b42b801 	bleq	10ae7b4 <__bss_end__+0x10a39c4>
     7ac:	06120111 			; <UNDEFINED> instruction: 0x06120111
     7b0:	05590b58 	ldrbeq	r0, [r9, #-2904]	; 0xfffff4a8
     7b4:	13010b57 	movwne	r0, #6999	; 0x1b57
     7b8:	051d0000 	ldreq	r0, [sp, #-0]
     7bc:	02133100 	andseq	r3, r3, #0
     7c0:	1742b717 	smlaldne	fp, r2, r7, r7
     7c4:	891e0000 	ldmdbhi	lr, {}	; <UNPREDICTABLE>
     7c8:	11010182 	smlabbne	r1, r2, r1, r0
     7cc:	00133101 	andseq	r3, r3, r1, lsl #2
     7d0:	012e1f00 			; <UNDEFINED> instruction: 0x012e1f00
     7d4:	0e03193f 			; <UNDEFINED> instruction: 0x0e03193f
     7d8:	0b3b0b3a 	bleq	ec34c8 <__bss_end__+0xeb86d8>
     7dc:	19270b39 	stmdbne	r7!, {r0, r3, r4, r5, r8, r9, fp}
     7e0:	01111349 	tsteq	r1, r9, asr #6
     7e4:	18400612 	stmdane	r0, {r1, r4, r9, sl}^
     7e8:	01194297 			; <UNDEFINED> instruction: 0x01194297
     7ec:	20000013 	andcs	r0, r0, r3, lsl r0
     7f0:	193f012e 	ldmdbne	pc!, {r1, r2, r3, r5, r8}	; <UNPREDICTABLE>
     7f4:	0b3a0e03 	bleq	e84008 <__bss_end__+0xe79218>
     7f8:	0b390b3b 	bleq	e434ec <__bss_end__+0xe386fc>
     7fc:	01111927 	tsteq	r1, r7, lsr #18
     800:	18400612 	stmdane	r0, {r1, r4, r9, sl}^
     804:	01194297 			; <UNDEFINED> instruction: 0x01194297
     808:	21000013 	tstcs	r0, r3, lsl r0
     80c:	0e030005 	cdpeq	0, 0, cr0, cr3, cr5, {0}
     810:	0b3b0b3a 	bleq	ec3500 <__bss_end__+0xeb8710>
     814:	13490b39 	movtne	r0, #39737	; 0x9b39
     818:	42b71702 	adcsmi	r1, r7, #524288	; 0x80000
     81c:	22000017 	andcs	r0, r0, #23, 0
     820:	0e03012e 	adfeqsp	f0, f3, #0.5
     824:	0b3b0b3a 	bleq	ec3514 <__bss_end__+0xeb8724>
     828:	19270b39 	stmdbne	r7!, {r0, r3, r4, r5, r8, r9, fp}
     82c:	06120111 			; <UNDEFINED> instruction: 0x06120111
     830:	42971840 	addsmi	r1, r7, #64, 16	; 0x400000
     834:	00130119 	andseq	r0, r3, r9, lsl r1
     838:	00342300 	eorseq	r2, r4, r0, lsl #6
     83c:	0b3a0e03 	bleq	e84050 <__bss_end__+0xe79260>
     840:	0b390b3b 	bleq	e43534 <__bss_end__+0xe38744>
     844:	061c1349 	ldreq	r1, [ip], -r9, asr #6
     848:	0b240000 	bleq	900850 <__bss_end__+0x8f5a60>
     84c:	12011101 	andne	r1, r1, #1073741824	; 0x40000000
     850:	00130106 	andseq	r0, r3, r6, lsl #2
     854:	00052500 	andeq	r2, r5, r0, lsl #10
     858:	0b3a0803 	bleq	e8286c <__bss_end__+0xe77a7c>
     85c:	0b390b3b 	bleq	e43550 <__bss_end__+0xe38760>
     860:	17021349 	strne	r1, [r2, -r9, asr #6]
     864:	001742b7 			; <UNDEFINED> instruction: 0x001742b7
     868:	010b2600 	tsteq	fp, r0, lsl #12
     86c:	00001755 	andeq	r1, r0, r5, asr r7
     870:	03012e27 	movweq	r2, #7719	; 0x1e27
     874:	3b0b3a0e 	blcc	2cf0b4 <__bss_end__+0x2c42c4>
     878:	270b390b 	strcs	r3, [fp, -fp, lsl #18]
     87c:	20134919 	andscs	r4, r3, r9, lsl r9
     880:	0013010b 	andseq	r0, r3, fp, lsl #2
     884:	00052800 	andeq	r2, r5, r0, lsl #16
     888:	0b3a0e03 	bleq	e8409c <__bss_end__+0xe792ac>
     88c:	0b390b3b 	bleq	e43580 <__bss_end__+0xe38790>
     890:	00001349 	andeq	r1, r0, r9, asr #6
     894:	3f002e29 	svccc	0x00002e29
     898:	6e193c19 	mrcvs	12, 0, r3, cr9, cr9, {0}
     89c:	3a0e030e 	bcc	3814dc <__bss_end__+0x3766ec>
     8a0:	390b3b0b 	stmdbcc	fp, {r0, r1, r3, r8, r9, fp, ip, sp}
     8a4:	2a00000b 	bcs	8d8 <__code_start__-0x7728>
     8a8:	18020036 	stmdane	r2, {r1, r2, r4, r5}
     8ac:	01000000 	mrseq	r0, (UNDEF: 0)
     8b0:	0e250111 	mcreq	1, 1, r0, cr5, cr1, {0}
     8b4:	0e030b13 	vmoveq.32	d3[0], r0
     8b8:	01110e1b 	tsteq	r1, fp, lsl lr
     8bc:	17100612 			; <UNDEFINED> instruction: 0x17100612
     8c0:	24020000 	strcs	r0, [r2], #-0
     8c4:	3e0b0b00 	vmlacc.f64	d0, d11, d0
     8c8:	0008030b 	andeq	r0, r8, fp, lsl #6
     8cc:	00160300 	andseq	r0, r6, r0, lsl #6
     8d0:	0b3a0e03 	bleq	e840e4 <__bss_end__+0xe792f4>
     8d4:	0b390b3b 	bleq	e435c8 <__bss_end__+0xe387d8>
     8d8:	00001349 	andeq	r1, r0, r9, asr #6
     8dc:	0b002404 	bleq	98f4 <delay_sec+0x20>
     8e0:	030b3e0b 	movweq	r3, #48651	; 0xbe0b
     8e4:	0500000e 	streq	r0, [r0, #-14]
     8e8:	19270115 	stmdbne	r7!, {r0, r2, r4, r8}
     8ec:	13011349 	movwne	r1, #4937	; 0x1349
     8f0:	05060000 	streq	r0, [r6, #-0]
     8f4:	00134900 	andseq	r4, r3, r0, lsl #18
     8f8:	00340700 	eorseq	r0, r4, r0, lsl #14
     8fc:	0b3a0e03 	bleq	e84110 <__bss_end__+0xe79320>
     900:	0b390b3b 	bleq	e435f4 <__bss_end__+0xe38804>
     904:	193f1349 	ldmdbne	pc!, {r0, r3, r6, r8, r9, ip}	; <UNPREDICTABLE>
     908:	0000193c 	andeq	r1, r0, ip, lsr r9
     90c:	0b000f08 	bleq	4534 <__code_start__-0x3acc>
     910:	0013490b 	andseq	r4, r3, fp, lsl #18
     914:	00260900 	eoreq	r0, r6, r0, lsl #18
     918:	00001349 	andeq	r1, r0, r9, asr #6
     91c:	3f012e0a 	svccc	0x00012e0a
     920:	3a0e0319 	bcc	38158c <__bss_end__+0x37679c>
     924:	390b3b0b 	stmdbcc	fp, {r0, r1, r3, r8, r9, fp, ip, sp}
     928:	4919270b 	ldmdbmi	r9, {r0, r1, r3, r8, r9, sl, sp}
     92c:	12011113 	andne	r1, r1, #-1073741820	; 0xc0000004
     930:	97184006 	ldrls	r4, [r8, -r6]
     934:	13011942 	movwne	r1, #6466	; 0x1942
     938:	050b0000 	streq	r0, [fp, #-0]
     93c:	3a080300 	bcc	201544 <__bss_end__+0x1f6754>
     940:	390b3b0b 	stmdbcc	fp, {r0, r1, r3, r8, r9, fp, ip, sp}
     944:	0213490b 	andseq	r4, r3, #180224	; 0x2c000
     948:	0c000018 	stceq	0, cr0, [r0], {24}
     94c:	08030005 	stmdaeq	r3, {r0, r2}
     950:	0b3b0b3a 	bleq	ec3640 <__bss_end__+0xeb8850>
     954:	13490b39 	movtne	r0, #39737	; 0x9b39
     958:	42b71702 	adcsmi	r1, r7, #524288	; 0x80000
     95c:	0d000017 	stceq	0, cr0, [r0, #-92]	; 0xffffffa4
     960:	08030034 	stmdaeq	r3, {r2, r4, r5}
     964:	0b3b0b3a 	bleq	ec3654 <__bss_end__+0xeb8864>
     968:	13490b39 	movtne	r0, #39737	; 0x9b39
     96c:	42b71702 	adcsmi	r1, r7, #524288	; 0x80000
     970:	0e000017 	mcreq	0, 0, r0, cr0, cr7, {0}
     974:	0b0b000f 	bleq	2c09b8 <__bss_end__+0x2b5bc8>
     978:	01000000 	mrseq	r0, (UNDEF: 0)
     97c:	0e250111 	mcreq	1, 1, r0, cr5, cr1, {0}
     980:	0e030b13 	vmoveq.32	d3[0], r0
     984:	01110e1b 	tsteq	r1, fp, lsl lr
     988:	17100612 			; <UNDEFINED> instruction: 0x17100612
     98c:	16020000 	strne	r0, [r2], -r0
     990:	3a0e0300 	bcc	381598 <__bss_end__+0x3767a8>
     994:	390b3b0b 	stmdbcc	fp, {r0, r1, r3, r8, r9, fp, ip, sp}
     998:	0013490b 	andseq	r4, r3, fp, lsl #18
     99c:	01130300 	tsteq	r3, r0, lsl #6
     9a0:	0b0b0e03 	bleq	2c41b4 <__bss_end__+0x2b93c4>
     9a4:	0b3b0b3a 	bleq	ec3694 <__bss_end__+0xeb88a4>
     9a8:	00001301 	andeq	r1, r0, r1, lsl #6
     9ac:	03000d04 	movweq	r0, #3332	; 0xd04
     9b0:	3813490e 	ldmdacc	r3, {r1, r2, r3, r8, fp, lr}
     9b4:	0019340b 	andseq	r3, r9, fp, lsl #8
     9b8:	000f0500 	andeq	r0, pc, r0, lsl #10
     9bc:	00000b0b 	andeq	r0, r0, fp, lsl #22
     9c0:	0b002406 	bleq	99e0 <uart_init+0x78>
     9c4:	030b3e0b 	movweq	r3, #48651	; 0xbe0b
     9c8:	07000008 	streq	r0, [r0, -r8]
     9cc:	0b0b0024 	bleq	2c0a64 <__bss_end__+0x2b5c74>
     9d0:	0e030b3e 	vmoveq.16	d3[0], r0
     9d4:	15080000 	strne	r0, [r8, #-0]
     9d8:	49192701 	ldmdbmi	r9, {r0, r8, r9, sl, sp}
     9dc:	00130113 	andseq	r0, r3, r3, lsl r1
     9e0:	00050900 	andeq	r0, r5, r0, lsl #18
     9e4:	00001349 	andeq	r1, r0, r9, asr #6
     9e8:	0300340a 	movweq	r3, #1034	; 0x40a
     9ec:	3b0b3a0e 	blcc	2cf22c <__bss_end__+0x2c443c>
     9f0:	490b390b 	stmdbmi	fp, {r0, r1, r3, r8, fp, ip, sp}
     9f4:	3c193f13 	ldccc	15, cr3, [r9], {19}
     9f8:	0b000019 	bleq	a64 <__code_start__-0x759c>
     9fc:	0b0b000f 	bleq	2c0a40 <__bss_end__+0x2b5c50>
     a00:	00001349 	andeq	r1, r0, r9, asr #6
     a04:	4900260c 	stmdbmi	r0, {r2, r3, r9, sl, sp}
     a08:	0d000013 	stceq	0, cr0, [r0, #-76]	; 0xffffffb4
     a0c:	193f012e 	ldmdbne	pc!, {r1, r2, r3, r5, r8}	; <UNPREDICTABLE>
     a10:	0b3a0e03 	bleq	e84224 <__bss_end__+0xe79434>
     a14:	0b390b3b 	bleq	e43708 <__bss_end__+0xe38918>
     a18:	13491927 	movtne	r1, #39207	; 0x9927
     a1c:	06120111 			; <UNDEFINED> instruction: 0x06120111
     a20:	42971840 	addsmi	r1, r7, #64, 16	; 0x400000
     a24:	00130119 	andseq	r0, r3, r9, lsl r1
     a28:	00050e00 	andeq	r0, r5, r0, lsl #28
     a2c:	0b3a0803 	bleq	e82a40 <__bss_end__+0xe77c50>
     a30:	0b390b3b 	bleq	e43724 <__bss_end__+0xe38934>
     a34:	18021349 	stmdane	r2, {r0, r3, r6, r8, r9, ip}
     a38:	180f0000 	stmdane	pc, {}	; <UNPREDICTABLE>
     a3c:	10000000 	andne	r0, r0, r0
     a40:	08030034 	stmdaeq	r3, {r2, r4, r5}
     a44:	0b3b0b3a 	bleq	ec3734 <__bss_end__+0xeb8944>
     a48:	13490b39 	movtne	r0, #39737	; 0x9b39
     a4c:	00001802 	andeq	r1, r0, r2, lsl #16
     a50:	03003411 	movweq	r3, #1041	; 0x411
     a54:	3b0b3a0e 	blcc	2cf294 <__bss_end__+0x2c44a4>
     a58:	490b390b 	stmdbmi	fp, {r0, r1, r3, r8, fp, ip, sp}
     a5c:	00180213 	andseq	r0, r8, r3, lsl r2
     a60:	00341200 	eorseq	r1, r4, r0, lsl #4
     a64:	0b3a0803 	bleq	e82a78 <__bss_end__+0xe77c88>
     a68:	0b390b3b 	bleq	e4375c <__bss_end__+0xe3896c>
     a6c:	17021349 	strne	r1, [r2, -r9, asr #6]
     a70:	001742b7 			; <UNDEFINED> instruction: 0x001742b7
     a74:	82891300 	addhi	r1, r9, #0, 6
     a78:	01110101 	tsteq	r1, r1, lsl #2
     a7c:	13011331 	movwne	r1, #4913	; 0x1331
     a80:	8a140000 	bhi	500a88 <__bss_end__+0x4f5c98>
     a84:	02000182 	andeq	r0, r0, #-2147483616	; 0x80000020
     a88:	18429118 	stmdane	r2, {r3, r4, r8, ip, pc}^
     a8c:	89150000 	ldmdbhi	r5, {}	; <UNPREDICTABLE>
     a90:	11010182 	smlabbne	r1, r2, r1, r0
     a94:	16000001 	strne	r0, [r0], -r1
     a98:	13490101 	movtne	r0, #37121	; 0x9101
     a9c:	00001301 	andeq	r1, r0, r1, lsl #6
     aa0:	49002117 	stmdbmi	r0, {r0, r1, r2, r4, r8, sp}
     aa4:	00052f13 	andeq	r2, r5, r3, lsl pc
     aa8:	002e1800 	eoreq	r1, lr, r0, lsl #16
     aac:	193c193f 	ldmdbne	ip!, {r0, r1, r2, r3, r4, r5, r8, fp, ip}
     ab0:	0e030e6e 	cdpeq	14, 0, cr0, cr3, cr14, {3}
     ab4:	0b3b0b3a 	bleq	ec37a4 <__bss_end__+0xeb89b4>
     ab8:	00000b39 	andeq	r0, r0, r9, lsr fp
     abc:	01110100 	tsteq	r1, r0, lsl #2
     ac0:	0b130e25 	bleq	4c435c <__bss_end__+0x4b956c>
     ac4:	0e1b0e03 	cdpeq	14, 1, cr0, cr11, cr3, {0}
     ac8:	06120111 			; <UNDEFINED> instruction: 0x06120111
     acc:	00001710 	andeq	r1, r0, r0, lsl r7
     ad0:	0b002402 	bleq	9ae0 <uart_flush_tx>
     ad4:	030b3e0b 	movweq	r3, #48651	; 0xbe0b
     ad8:	03000008 	movweq	r0, #8
     adc:	0b0b0024 	bleq	2c0b74 <__bss_end__+0x2b5d84>
     ae0:	0e030b3e 	vmoveq.16	d3[0], r0
     ae4:	15040000 	strne	r0, [r4, #-0]
     ae8:	49192701 	ldmdbmi	r9, {r0, r8, r9, sl, sp}
     aec:	00130113 	andseq	r0, r3, r3, lsl r1
     af0:	00050500 	andeq	r0, r5, r0, lsl #10
     af4:	00001349 	andeq	r1, r0, r9, asr #6
     af8:	03003406 	movweq	r3, #1030	; 0x406
     afc:	3b0b3a0e 	blcc	2cf33c <__bss_end__+0x2c454c>
     b00:	490b390b 	stmdbmi	fp, {r0, r1, r3, r8, fp, ip, sp}
     b04:	3c193f13 	ldccc	15, cr3, [r9], {19}
     b08:	07000019 	smladeq	r0, r9, r0, r0
     b0c:	0b0b000f 	bleq	2c0b50 <__bss_end__+0x2b5d60>
     b10:	00001349 	andeq	r1, r0, r9, asr #6
     b14:	49002608 	stmdbmi	r0, {r3, r9, sl, sp}
     b18:	09000013 	stmdbeq	r0, {r0, r1, r4}
     b1c:	13470034 	movtne	r0, #28724	; 0x7034
     b20:	0b3b0b3a 	bleq	ec3810 <__bss_end__+0xeb8a20>
     b24:	18020b39 	stmdane	r2, {r0, r3, r4, r5, r8, r9, fp}
     b28:	2e0a0000 	cdpcs	0, 0, cr0, cr10, cr0, {0}
     b2c:	03193f01 	tsteq	r9, #1, 30
     b30:	3b0b3a0e 	blcc	2cf370 <__bss_end__+0x2c4580>
     b34:	270b390b 	strcs	r3, [fp, -fp, lsl #18]
     b38:	11134919 	tstne	r3, r9, lsl r9
     b3c:	40061201 	andmi	r1, r6, r1, lsl #4
     b40:	19429618 	stmdbne	r2, {r3, r4, r9, sl, ip, pc}^
     b44:	050b0000 	streq	r0, [fp, #-0]
     b48:	3a080300 	bcc	201750 <__bss_end__+0x1f6960>
     b4c:	390b3b0b 	stmdbcc	fp, {r0, r1, r3, r8, r9, fp, ip, sp}
     b50:	0213490b 	andseq	r4, r3, #180224	; 0x2c000
     b54:	1742b717 	smlaldne	fp, r2, r7, r7
     b58:	01000000 	mrseq	r0, (UNDEF: 0)
     b5c:	0e250111 	mcreq	1, 1, r0, cr5, cr1, {0}
     b60:	0e030b13 	vmoveq.32	d3[0], r0
     b64:	01110e1b 	tsteq	r1, fp, lsl lr
     b68:	17100612 			; <UNDEFINED> instruction: 0x17100612
     b6c:	24020000 	strcs	r0, [r2], #-0
     b70:	3e0b0b00 	vmlacc.f64	d0, d11, d0
     b74:	000e030b 	andeq	r0, lr, fp, lsl #6
     b78:	00240300 	eoreq	r0, r4, r0, lsl #6
     b7c:	0b3e0b0b 	bleq	f837b0 <__bss_end__+0xf789c0>
     b80:	00000803 	andeq	r0, r0, r3, lsl #16
     b84:	03001604 	movweq	r1, #1540	; 0x604
     b88:	3b0b3a0e 	blcc	2cf3c8 <__bss_end__+0x2c45d8>
     b8c:	490b390b 	stmdbmi	fp, {r0, r1, r3, r8, fp, ip, sp}
     b90:	05000013 	streq	r0, [r0, #-19]	; 0xffffffed
     b94:	19270115 	stmdbne	r7!, {r0, r2, r4, r8}
     b98:	13011349 	movwne	r1, #4937	; 0x1349
     b9c:	05060000 	streq	r0, [r6, #-0]
     ba0:	00134900 	andseq	r4, r3, r0, lsl #18
     ba4:	00340700 	eorseq	r0, r4, r0, lsl #14
     ba8:	0b3a0e03 	bleq	e843bc <__bss_end__+0xe795cc>
     bac:	0b390b3b 	bleq	e438a0 <__bss_end__+0xe38ab0>
     bb0:	193f1349 	ldmdbne	pc!, {r0, r3, r6, r8, r9, ip}	; <UNPREDICTABLE>
     bb4:	0000193c 	andeq	r1, r0, ip, lsr r9
     bb8:	0b000f08 	bleq	47e0 <__code_start__-0x3820>
     bbc:	0013490b 	andseq	r4, r3, fp, lsl #18
     bc0:	00260900 	eoreq	r0, r6, r0, lsl #18
     bc4:	00001349 	andeq	r1, r0, r9, asr #6
     bc8:	0301130a 	movweq	r1, #4874	; 0x130a
     bcc:	3a0b0b0e 	bcc	2c380c <__bss_end__+0x2b8a1c>
     bd0:	010b3b0b 	tsteq	fp, fp, lsl #22
     bd4:	0b000013 	bleq	c28 <__code_start__-0x73d8>
     bd8:	0e03000d 	cdpeq	0, 0, cr0, cr3, cr13, {0}
     bdc:	0b381349 	bleq	e05908 <__bss_end__+0xdfab18>
     be0:	00001934 	andeq	r1, r0, r4, lsr r9
     be4:	0b000f0c 	bleq	481c <__code_start__-0x37e4>
     be8:	0d00000b 	stceq	0, cr0, [r0, #-44]	; 0xffffffd4
     bec:	193f012e 	ldmdbne	pc!, {r1, r2, r3, r5, r8}	; <UNPREDICTABLE>
     bf0:	0b3a0e03 	bleq	e84404 <__bss_end__+0xe79614>
     bf4:	0b390b3b 	bleq	e438e8 <__bss_end__+0xe38af8>
     bf8:	13491927 	movtne	r1, #39207	; 0x9927
     bfc:	06120111 			; <UNDEFINED> instruction: 0x06120111
     c00:	42971840 	addsmi	r1, r7, #64, 16	; 0x400000
     c04:	00130119 	andseq	r0, r3, r9, lsl r1
     c08:	00050e00 	andeq	r0, r5, r0, lsl #28
     c0c:	0b3a0803 	bleq	e82c20 <__bss_end__+0xe77e30>
     c10:	0b390b3b 	bleq	e43904 <__bss_end__+0xe38b14>
     c14:	17021349 	strne	r1, [r2, -r9, asr #6]
     c18:	001742b7 			; <UNDEFINED> instruction: 0x001742b7
     c1c:	00050f00 	andeq	r0, r5, r0, lsl #30
     c20:	0b3a0e03 	bleq	e84434 <__bss_end__+0xe79644>
     c24:	0b390b3b 	bleq	e43918 <__bss_end__+0xe38b28>
     c28:	17021349 	strne	r1, [r2, -r9, asr #6]
     c2c:	001742b7 			; <UNDEFINED> instruction: 0x001742b7
     c30:	00341000 	eorseq	r1, r4, r0
     c34:	0b3a0803 	bleq	e82c48 <__bss_end__+0xe77e58>
     c38:	0b390b3b 	bleq	e4392c <__bss_end__+0xe38b3c>
     c3c:	17021349 	strne	r1, [r2, -r9, asr #6]
     c40:	001742b7 			; <UNDEFINED> instruction: 0x001742b7
     c44:	00341100 	eorseq	r1, r4, r0, lsl #2
     c48:	0b3a0e03 	bleq	e8445c <__bss_end__+0xe7966c>
     c4c:	0b390b3b 	bleq	e43940 <__bss_end__+0xe38b50>
     c50:	17021349 	strne	r1, [r2, -r9, asr #6]
     c54:	001742b7 			; <UNDEFINED> instruction: 0x001742b7
     c58:	00341200 	eorseq	r1, r4, r0, lsl #4
     c5c:	13490e03 	movtne	r0, #40451	; 0x9e03
     c60:	18021934 	stmdane	r2, {r2, r4, r5, r8, fp, ip}
     c64:	0b130000 	bleq	4c0c6c <__bss_end__+0x4b5e7c>
     c68:	00175501 	andseq	r5, r7, r1, lsl #10
     c6c:	00341400 	eorseq	r1, r4, r0, lsl #8
     c70:	0b3a0803 	bleq	e82c84 <__bss_end__+0xe77e94>
     c74:	0b390b3b 	bleq	e43968 <__bss_end__+0xe38b78>
     c78:	18021349 	stmdane	r2, {r0, r3, r6, r8, r9, ip}
     c7c:	34150000 	ldrcc	r0, [r5], #-0
     c80:	3a0e0300 	bcc	381888 <__bss_end__+0x376a98>
     c84:	390b3b0b 	stmdbcc	fp, {r0, r1, r3, r8, r9, fp, ip, sp}
     c88:	0213490b 	andseq	r4, r3, #180224	; 0x2c000
     c8c:	16000018 			; <UNDEFINED> instruction: 0x16000018
     c90:	1755010b 	ldrbne	r0, [r5, -fp, lsl #2]
     c94:	00001301 	andeq	r1, r0, r1, lsl #6
     c98:	01828917 	orreq	r8, r2, r7, lsl r9
     c9c:	31011101 	tstcc	r1, r1, lsl #2
     ca0:	00130113 	andseq	r0, r3, r3, lsl r1
     ca4:	828a1800 	addhi	r1, sl, #0, 16
     ca8:	18020001 	stmdane	r2, {r0}
     cac:	00184291 	mulseq	r8, r1, r2
     cb0:	82891900 	addhi	r1, r9, #0, 18
     cb4:	01110001 	tsteq	r1, r1
     cb8:	00001331 	andeq	r1, r0, r1, lsr r3
     cbc:	31011d1a 	tstcc	r1, sl, lsl sp
     cc0:	b8015213 	stmdalt	r1, {r0, r1, r4, r9, ip, lr}
     cc4:	17550542 	ldrbne	r0, [r5, -r2, asr #10]
     cc8:	0b590b58 	bleq	1643a30 <__bss_end__+0x1638c40>
     ccc:	13010b57 	movwne	r0, #6999	; 0x1b57
     cd0:	051b0000 	ldreq	r0, [fp, #-0]
     cd4:	02133100 	andseq	r3, r3, #0
     cd8:	1742b717 	smlaldne	fp, r2, r7, r7
     cdc:	051c0000 	ldreq	r0, [ip, #-0]
     ce0:	00133100 	andseq	r3, r3, r0, lsl #2
     ce4:	00341d00 	eorseq	r1, r4, r0, lsl #26
     ce8:	18021331 	stmdane	r2, {r0, r4, r5, r8, r9, ip}
     cec:	341e0000 	ldrcc	r0, [lr], #-0
     cf0:	02133100 	andseq	r3, r3, #0
     cf4:	1742b717 	smlaldne	fp, r2, r7, r7
     cf8:	341f0000 	ldrcc	r0, [pc], #-0	; d00 <__code_start__-0x7300>
     cfc:	00133100 	andseq	r3, r3, r0, lsl #2
     d00:	011d2000 	tsteq	sp, r0
     d04:	01521331 	cmpeq	r2, r1, lsr r3
     d08:	550542b8 	strpl	r4, [r5, #-696]	; 0xfffffd48
     d0c:	590b5817 	stmdbpl	fp, {r0, r1, r2, r4, fp, ip, lr}
     d10:	000b570b 	andeq	r5, fp, fp, lsl #14
     d14:	82892100 	addhi	r2, r9, #0
     d18:	01110101 	tsteq	r1, r1, lsl #2
     d1c:	00001301 	andeq	r1, r0, r1, lsl #6
     d20:	49010122 	stmdbmi	r1, {r1, r5, r8}
     d24:	00130113 	andseq	r0, r3, r3, lsl r1
     d28:	00212300 	eoreq	r2, r1, r0, lsl #6
     d2c:	0b2f1349 	bleq	bc5a58 <__bss_end__+0xbbac68>
     d30:	2e240000 	cdpcs	0, 2, cr0, cr4, cr0, {0}
     d34:	3a0e0301 	bcc	381940 <__bss_end__+0x376b50>
     d38:	390b3b0b 	stmdbcc	fp, {r0, r1, r3, r8, r9, fp, ip, sp}
     d3c:	4919270b 	ldmdbmi	r9, {r0, r1, r3, r8, r9, sl, sp}
     d40:	010b2013 	tsteq	fp, r3, lsl r0
     d44:	25000013 	strcs	r0, [r0, #-19]	; 0xffffffed
     d48:	0e030005 	cdpeq	0, 0, cr0, cr3, cr5, {0}
     d4c:	0b3b0b3a 	bleq	ec3a3c <__bss_end__+0xeb8c4c>
     d50:	13490b39 	movtne	r0, #39737	; 0x9b39
     d54:	05260000 	streq	r0, [r6, #-0]!
     d58:	3a080300 	bcc	201960 <__bss_end__+0x1f6b70>
     d5c:	390b3b0b 	stmdbcc	fp, {r0, r1, r3, r8, r9, fp, ip, sp}
     d60:	0013490b 	andseq	r4, r3, fp, lsl #18
     d64:	00342700 	eorseq	r2, r4, r0, lsl #14
     d68:	0b3a0803 	bleq	e82d7c <__bss_end__+0xe77f8c>
     d6c:	0b390b3b 	bleq	e43a60 <__bss_end__+0xe38c70>
     d70:	00001349 	andeq	r1, r0, r9, asr #6
     d74:	00010b28 	andeq	r0, r1, r8, lsr #22
     d78:	00342900 	eorseq	r2, r4, r0, lsl #18
     d7c:	0b3a0e03 	bleq	e84590 <__bss_end__+0xe797a0>
     d80:	0b390b3b 	bleq	e43a74 <__bss_end__+0xe38c84>
     d84:	00001349 	andeq	r1, r0, r9, asr #6
     d88:	03012e2a 	movweq	r2, #7722	; 0x1e2a
     d8c:	3b0b3a08 	blcc	2cf5b4 <__bss_end__+0x2c47c4>
     d90:	270b390b 	strcs	r3, [fp, -fp, lsl #18]
     d94:	20134919 	andscs	r4, r3, r9, lsl r9
     d98:	0013010b 	andseq	r0, r3, fp, lsl #2
     d9c:	012e2b00 			; <UNDEFINED> instruction: 0x012e2b00
     da0:	0e03193f 			; <UNDEFINED> instruction: 0x0e03193f
     da4:	0b3b0b3a 	bleq	ec3a94 <__bss_end__+0xeb8ca4>
     da8:	19270b39 	stmdbne	r7!, {r0, r3, r4, r5, r8, r9, fp}
     dac:	06120111 			; <UNDEFINED> instruction: 0x06120111
     db0:	42971840 	addsmi	r1, r7, #64, 16	; 0x400000
     db4:	00130119 	andseq	r0, r3, r9, lsl r1
     db8:	012e2c00 			; <UNDEFINED> instruction: 0x012e2c00
     dbc:	01111331 	tsteq	r1, r1, lsr r3
     dc0:	18400612 	stmdane	r0, {r1, r4, r9, sl}^
     dc4:	01194297 			; <UNDEFINED> instruction: 0x01194297
     dc8:	2d000013 	stccs	0, cr0, [r0, #-76]	; 0xffffffb4
     dcc:	13310005 	teqne	r1, #5, 0
     dd0:	00001802 	andeq	r1, r0, r2, lsl #16
     dd4:	3100052e 	tstcc	r0, lr, lsr #10
     dd8:	000b1c13 	andeq	r1, fp, r3, lsl ip
     ddc:	010b2f00 	tsteq	fp, r0, lsl #30
     de0:	01111331 	tsteq	r1, r1, lsr r3
     de4:	13010612 	movwne	r0, #5650	; 0x1612
     de8:	2e300000 	cdpcs	0, 3, cr0, cr0, cr0, {0}
     dec:	3c193f00 	ldccc	15, cr3, [r9], {-0}
     df0:	030e6e19 	movweq	r6, #60953	; 0xee19
     df4:	3b0b3a0e 	blcc	2cf634 <__bss_end__+0x2c4844>
     df8:	000b390b 	andeq	r3, fp, fp, lsl #18
     dfc:	11010000 	mrsne	r0, (UNDEF: 1)
     e00:	130e2501 	movwne	r2, #58625	; 0xe501
     e04:	1b0e030b 	blne	381a38 <__bss_end__+0x376c48>
     e08:	1201110e 	andne	r1, r1, #-2147483645	; 0x80000003
     e0c:	00171006 	andseq	r1, r7, r6
     e10:	00240200 	eoreq	r0, r4, r0, lsl #4
     e14:	0b3e0b0b 	bleq	f83a48 <__bss_end__+0xf78c58>
     e18:	00000803 	andeq	r0, r0, r3, lsl #16
     e1c:	0b002403 	bleq	9e30 <kmalloc_aligned+0xf8>
     e20:	030b3e0b 	movweq	r3, #48651	; 0xbe0b
     e24:	0400000e 	streq	r0, [r0], #-14
     e28:	19270115 	stmdbne	r7!, {r0, r2, r4, r8}
     e2c:	13011349 	movwne	r1, #4937	; 0x1349
     e30:	05050000 	streq	r0, [r5, #-0]
     e34:	00134900 	andseq	r4, r3, r0, lsl #18
     e38:	00340600 	eorseq	r0, r4, r0, lsl #12
     e3c:	0b3a0e03 	bleq	e84650 <__bss_end__+0xe79860>
     e40:	0b390b3b 	bleq	e43b34 <__bss_end__+0xe38d44>
     e44:	193f1349 	ldmdbne	pc!, {r0, r3, r6, r8, r9, ip}	; <UNPREDICTABLE>
     e48:	0000193c 	andeq	r1, r0, ip, lsr r9
     e4c:	0b000f07 	bleq	4a70 <__code_start__-0x3590>
     e50:	0013490b 	andseq	r4, r3, fp, lsl #18
     e54:	00260800 	eoreq	r0, r6, r0, lsl #16
     e58:	00001349 	andeq	r1, r0, r9, asr #6
     e5c:	3f012e09 	svccc	0x00012e09
     e60:	3a0e0319 	bcc	381acc <__bss_end__+0x376cdc>
     e64:	390b3b0b 	stmdbcc	fp, {r0, r1, r3, r8, r9, fp, ip, sp}
     e68:	8719270b 	ldrhi	r2, [r9, -fp, lsl #14]
     e6c:	01111901 	tsteq	r1, r1, lsl #18
     e70:	18400612 	stmdane	r0, {r1, r4, r9, sl}^
     e74:	01194297 			; <UNDEFINED> instruction: 0x01194297
     e78:	0a000013 	beq	ecc <__code_start__-0x7134>
     e7c:	01018289 	smlabbeq	r1, r9, r2, r8
     e80:	13010111 	movwne	r0, #4369	; 0x1111
     e84:	8a0b0000 	bhi	2c0e8c <__bss_end__+0x2b609c>
     e88:	02000182 	andeq	r0, r0, #-2147483616	; 0x80000020
     e8c:	18429118 	stmdane	r2, {r3, r4, r8, ip, pc}^
     e90:	890c0000 	stmdbhi	ip, {}	; <UNPREDICTABLE>
     e94:	11000182 	smlabbne	r0, r2, r1, r0
     e98:	00133101 	andseq	r3, r3, r1, lsl #2
     e9c:	82890d00 	addhi	r0, r9, #0, 26
     ea0:	01110101 	tsteq	r1, r1, lsl #2
     ea4:	13011331 	movwne	r1, #4913	; 0x1331
     ea8:	2e0e0000 	cdpcs	0, 0, cr0, cr14, cr0, {0}
     eac:	3c193f00 	ldccc	15, cr3, [r9], {-0}
     eb0:	030e6e19 	movweq	r6, #60953	; 0xee19
     eb4:	3b0b3a0e 	blcc	2cf6f4 <__bss_end__+0x2c4904>
     eb8:	000b390b 	andeq	r3, fp, fp, lsl #18
     ebc:	11010000 	mrsne	r0, (UNDEF: 1)
     ec0:	130e2501 	movwne	r2, #58625	; 0xe501
     ec4:	1b0e030b 	blne	381af8 <__bss_end__+0x376d08>
     ec8:	1201110e 	andne	r1, r1, #-2147483645	; 0x80000003
     ecc:	00171006 	andseq	r1, r7, r6
     ed0:	00240200 	eoreq	r0, r4, r0, lsl #4
     ed4:	0b3e0b0b 	bleq	f83b08 <__bss_end__+0xf78d18>
     ed8:	00000803 	andeq	r0, r0, r3, lsl #16
     edc:	0b002403 	bleq	9ef0 <gpio_set_function+0x28>
     ee0:	030b3e0b 	movweq	r3, #48651	; 0xbe0b
     ee4:	0400000e 	streq	r0, [r0], #-14
     ee8:	19270115 	stmdbne	r7!, {r0, r2, r4, r8}
     eec:	13011349 	movwne	r1, #4937	; 0x1349
     ef0:	05050000 	streq	r0, [r5, #-0]
     ef4:	00134900 	andseq	r4, r3, r0, lsl #18
     ef8:	00340600 	eorseq	r0, r4, r0, lsl #12
     efc:	0b3a0e03 	bleq	e84710 <__bss_end__+0xe79920>
     f00:	0b390b3b 	bleq	e43bf4 <__bss_end__+0xe38e04>
     f04:	193f1349 	ldmdbne	pc!, {r0, r3, r6, r8, r9, ip}	; <UNPREDICTABLE>
     f08:	0000193c 	andeq	r1, r0, ip, lsr r9
     f0c:	0b000f07 	bleq	4b30 <__code_start__-0x34d0>
     f10:	0013490b 	andseq	r4, r3, fp, lsl #18
     f14:	00260800 	eoreq	r0, r6, r0, lsl #16
     f18:	00001349 	andeq	r1, r0, r9, asr #6
     f1c:	3f012e09 	svccc	0x00012e09
     f20:	3a0e0319 	bcc	381b8c <__bss_end__+0x376d9c>
     f24:	390b3b0b 	stmdbcc	fp, {r0, r1, r3, r8, r9, fp, ip, sp}
     f28:	1201110b 	andne	r1, r1, #-1073741822	; 0xc0000002
     f2c:	97184006 	ldrls	r4, [r8, -r6]
     f30:	13011942 	movwne	r1, #6466	; 0x1942
     f34:	2e0a0000 	cdpcs	0, 0, cr0, cr10, cr0, {0}
     f38:	03193f00 	tsteq	r9, #0, 30
     f3c:	3b0b3a0e 	blcc	2cf77c <__bss_end__+0x2c498c>
     f40:	270b390b 	strcs	r3, [fp, -fp, lsl #18]
     f44:	00193c19 	andseq	r3, r9, r9, lsl ip
     f48:	00340b00 	eorseq	r0, r4, r0, lsl #22
     f4c:	0b3a0803 	bleq	e82f60 <__bss_end__+0xe78170>
     f50:	0b390b3b 	bleq	e43c44 <__bss_end__+0xe38e54>
     f54:	17021349 	strne	r1, [r2, -r9, asr #6]
     f58:	001742b7 			; <UNDEFINED> instruction: 0x001742b7
     f5c:	00340c00 	eorseq	r0, r4, r0, lsl #24
     f60:	0b3a0e03 	bleq	e84774 <__bss_end__+0xe79984>
     f64:	0b390b3b 	bleq	e43c58 <__bss_end__+0xe38e68>
     f68:	00001349 	andeq	r1, r0, r9, asr #6
     f6c:	11010b0d 	tstne	r1, sp, lsl #22
     f70:	01061201 	tsteq	r6, r1, lsl #4
     f74:	0e000013 	mcreq	0, 0, r0, cr0, cr3, {0}
     f78:	00018289 	andeq	r8, r1, r9, lsl #5
     f7c:	13310111 	teqne	r1, #1073741828	; 0x40000004
     f80:	2e0f0000 	cdpcs	0, 0, cr0, cr15, cr0, {0}
     f84:	3c193f00 	ldccc	15, cr3, [r9], {-0}
     f88:	030e6e19 	movweq	r6, #60953	; 0xee19
     f8c:	3b0b3a0e 	blcc	2cf7cc <__bss_end__+0x2c49dc>
     f90:	000b3905 	andeq	r3, fp, r5, lsl #18
     f94:	002e1000 	eoreq	r1, lr, r0
     f98:	193c193f 	ldmdbne	ip!, {r0, r1, r2, r3, r4, r5, r8, fp, ip}
     f9c:	0e030e6e 	cdpeq	14, 0, cr0, cr3, cr14, {3}
     fa0:	0b3b0b3a 	bleq	ec3c90 <__bss_end__+0xeb8ea0>
     fa4:	00000b39 	andeq	r0, r0, r9, lsr fp
     fa8:	01110100 	tsteq	r1, r0, lsl #2
     fac:	0b130e25 	bleq	4c4848 <__bss_end__+0x4b9a58>
     fb0:	0e1b0e03 	cdpeq	14, 1, cr0, cr11, cr3, {0}
     fb4:	06120111 			; <UNDEFINED> instruction: 0x06120111
     fb8:	00001710 	andeq	r1, r0, r0, lsl r7
     fbc:	0b002402 	bleq	9fcc <gpio_set_input+0x1c>
     fc0:	030b3e0b 	movweq	r3, #48651	; 0xbe0b
     fc4:	03000008 	movweq	r0, #8
     fc8:	0b0b0024 	bleq	2c1060 <__bss_end__+0x2b6270>
     fcc:	0e030b3e 	vmoveq.16	d3[0], r0
     fd0:	15040000 	strne	r0, [r4, #-0]
     fd4:	49192701 	ldmdbmi	r9, {r0, r8, r9, sl, sp}
     fd8:	00130113 	andseq	r0, r3, r3, lsl r1
     fdc:	00050500 	andeq	r0, r5, r0, lsl #10
     fe0:	00001349 	andeq	r1, r0, r9, asr #6
     fe4:	03003406 	movweq	r3, #1030	; 0x406
     fe8:	3b0b3a0e 	blcc	2cf828 <__bss_end__+0x2c4a38>
     fec:	490b390b 	stmdbmi	fp, {r0, r1, r3, r8, fp, ip, sp}
     ff0:	3c193f13 	ldccc	15, cr3, [r9], {19}
     ff4:	07000019 	smladeq	r0, r9, r0, r0
     ff8:	0b0b000f 	bleq	2c103c <__bss_end__+0x2b624c>
     ffc:	00001349 	andeq	r1, r0, r9, asr #6
    1000:	49002608 	stmdbmi	r0, {r3, r9, sl, sp}
    1004:	09000013 	stmdbeq	r0, {r0, r1, r4}
    1008:	193f002e 	ldmdbne	pc!, {r1, r2, r3, r5}	; <UNPREDICTABLE>
    100c:	0b3a0e03 	bleq	e84820 <__bss_end__+0xe79a30>
    1010:	0b390b3b 	bleq	e43d04 <__bss_end__+0xe38f14>
    1014:	01111927 	tsteq	r1, r7, lsr #18
    1018:	18400612 	stmdane	r0, {r1, r4, r9, sl}^
    101c:	00194297 	mulseq	r9, r7, r2
    1020:	11010000 	mrsne	r0, (UNDEF: 1)
    1024:	130e2501 	movwne	r2, #58625	; 0xe501
    1028:	1b0e030b 	blne	381c5c <__bss_end__+0x376e6c>
    102c:	1117550e 	tstne	r7, lr, lsl #10
    1030:	00171001 	andseq	r1, r7, r1
    1034:	00240200 	eoreq	r0, r4, r0, lsl #4
    1038:	0b3e0b0b 	bleq	f83c6c <__bss_end__+0xf78e7c>
    103c:	00000803 	andeq	r0, r0, r3, lsl #16
    1040:	49002603 	stmdbmi	r0, {r0, r1, r9, sl, sp}
    1044:	04000013 	streq	r0, [r0], #-19	; 0xffffffed
    1048:	0b0b0024 	bleq	2c10e0 <__bss_end__+0x2b62f0>
    104c:	0e030b3e 	vmoveq.16	d3[0], r0
    1050:	15050000 	strne	r0, [r5, #-0]
    1054:	49192701 	ldmdbmi	r9, {r0, r8, r9, sl, sp}
    1058:	00130113 	andseq	r0, r3, r3, lsl r1
    105c:	00050600 	andeq	r0, r5, r0, lsl #12
    1060:	00001349 	andeq	r1, r0, r9, asr #6
    1064:	03003407 	movweq	r3, #1031	; 0x407
    1068:	3b0b3a0e 	blcc	2cf8a8 <__bss_end__+0x2c4ab8>
    106c:	490b390b 	stmdbmi	fp, {r0, r1, r3, r8, fp, ip, sp}
    1070:	3c193f13 	ldccc	15, cr3, [r9], {19}
    1074:	08000019 	stmdaeq	r0, {r0, r3, r4}
    1078:	0b0b000f 	bleq	2c10bc <__bss_end__+0x2b62cc>
    107c:	00001349 	andeq	r1, r0, r9, asr #6
    1080:	03003409 	movweq	r3, #1033	; 0x409
    1084:	3b0b3a0e 	blcc	2cf8c4 <__bss_end__+0x2c4ad4>
    1088:	490b390b 	stmdbmi	fp, {r0, r1, r3, r8, fp, ip, sp}
    108c:	0a000013 	beq	10e0 <__code_start__-0x6f20>
    1090:	193f012e 	ldmdbne	pc!, {r1, r2, r3, r5, r8}	; <UNPREDICTABLE>
    1094:	0b3a0e03 	bleq	e848a8 <__bss_end__+0xe79ab8>
    1098:	0b390b3b 	bleq	e43d8c <__bss_end__+0xe38f9c>
    109c:	01871927 	orreq	r1, r7, r7, lsr #18
    10a0:	12011119 	andne	r1, r1, #1073741830	; 0x40000006
    10a4:	97184006 	ldrls	r4, [r8, -r6]
    10a8:	13011942 	movwne	r1, #6466	; 0x1942
    10ac:	340b0000 	strcc	r0, [fp], #-0
    10b0:	3a0e0300 	bcc	381cb8 <__bss_end__+0x376ec8>
    10b4:	390b3b0b 	stmdbcc	fp, {r0, r1, r3, r8, r9, fp, ip, sp}
    10b8:	1c13490b 			; <UNDEFINED> instruction: 0x1c13490b
    10bc:	0c000006 	stceq	0, cr0, [r0], {6}
    10c0:	0e030034 	mcreq	0, 0, r0, cr3, cr4, {1}
    10c4:	0b3b0b3a 	bleq	ec3db4 <__bss_end__+0xeb8fc4>
    10c8:	13490b39 	movtne	r0, #39737	; 0x9b39
    10cc:	00000b1c 	andeq	r0, r0, ip, lsl fp
    10d0:	31011d0d 	tstcc	r1, sp, lsl #26
    10d4:	b8015213 	stmdalt	r1, {r0, r1, r4, r9, ip, lr}
    10d8:	17550b42 	ldrbne	r0, [r5, -r2, asr #22]
    10dc:	0b590b58 	bleq	1643e44 <__bss_end__+0x1639054>
    10e0:	13010b57 	movwne	r0, #6999	; 0x1b57
    10e4:	0b0e0000 	bleq	3810ec <__bss_end__+0x3762fc>
    10e8:	00175501 	andseq	r5, r7, r1, lsl #10
    10ec:	00340f00 	eorseq	r0, r4, r0, lsl #30
    10f0:	17021331 	smladxne	r2, r1, r3, r1
    10f4:	001742b7 			; <UNDEFINED> instruction: 0x001742b7
    10f8:	011d1000 	tsteq	sp, r0
    10fc:	01521331 	cmpeq	r2, r1, lsr r3
    1100:	110b42b8 			; <UNDEFINED> instruction: 0x110b42b8
    1104:	58061201 	stmdapl	r6, {r0, r9, ip}
    1108:	570b590b 	strpl	r5, [fp, -fp, lsl #18]
    110c:	0013010b 	andseq	r0, r3, fp, lsl #2
    1110:	82891100 	addhi	r1, r9, #0
    1114:	01110001 	tsteq	r1, r1
    1118:	00001331 	andeq	r1, r0, r1, lsr r3
    111c:	01828912 	orreq	r8, r2, r2, lsl r9
    1120:	31011101 	tstcc	r1, r1, lsl #2
    1124:	00130113 	andseq	r0, r3, r3, lsl r1
    1128:	828a1300 	addhi	r1, sl, #0, 6
    112c:	18020001 	stmdane	r2, {r0}
    1130:	00184291 	mulseq	r8, r1, r2
    1134:	82891400 	addhi	r1, r9, #0, 8
    1138:	01110101 	tsteq	r1, r1, lsl #2
    113c:	00001331 	andeq	r1, r0, r1, lsr r3
    1140:	3f012e15 	svccc	0x00012e15
    1144:	3a0e0319 	bcc	381db0 <__bss_end__+0x376fc0>
    1148:	390b3b0b 	stmdbcc	fp, {r0, r1, r3, r8, r9, fp, ip, sp}
    114c:	2019270b 	andscs	r2, r9, fp, lsl #14
    1150:	0013010b 	andseq	r0, r3, fp, lsl #2
    1154:	012e1600 			; <UNDEFINED> instruction: 0x012e1600
    1158:	0e03193f 			; <UNDEFINED> instruction: 0x0e03193f
    115c:	0b3b0b3a 	bleq	ec3e4c <__bss_end__+0xeb905c>
    1160:	19270b39 	stmdbne	r7!, {r0, r3, r4, r5, r8, r9, fp}
    1164:	0b201349 	bleq	805e90 <__bss_end__+0x7fb0a0>
    1168:	00001301 	andeq	r1, r0, r1, lsl #6
    116c:	31012e17 	tstcc	r1, r7, lsl lr
    1170:	12011113 	andne	r1, r1, #-1073741820	; 0xc0000004
    1174:	97184006 	ldrls	r4, [r8, -r6]
    1178:	13011942 	movwne	r1, #6466	; 0x1942
    117c:	2e180000 	cdpcs	0, 1, cr0, cr8, cr0, {0}
    1180:	3c193f00 	ldccc	15, cr3, [r9], {-0}
    1184:	030e6e19 	movweq	r6, #60953	; 0xee19
    1188:	3b0b3a0e 	blcc	2cf9c8 <__bss_end__+0x2c4bd8>
    118c:	000b3905 	andeq	r3, fp, r5, lsl #18
    1190:	002e1900 	eoreq	r1, lr, r0, lsl #18
    1194:	193c193f 	ldmdbne	ip!, {r0, r1, r2, r3, r4, r5, r8, fp, ip}
    1198:	0e030e6e 	cdpeq	14, 0, cr0, cr3, cr14, {3}
    119c:	0b3b0b3a 	bleq	ec3e8c <__bss_end__+0xeb909c>
    11a0:	00000b39 	andeq	r0, r0, r9, lsr fp
    11a4:	01110100 	tsteq	r1, r0, lsl #2
    11a8:	0b130e25 	bleq	4c4a44 <__bss_end__+0x4b9c54>
    11ac:	0e1b0e03 	cdpeq	14, 1, cr0, cr11, cr3, {0}
    11b0:	06120111 			; <UNDEFINED> instruction: 0x06120111
    11b4:	00001710 	andeq	r1, r0, r0, lsl r7
    11b8:	0b002402 	bleq	a1c8 <__code_end__+0x58>
    11bc:	030b3e0b 	movweq	r3, #48651	; 0xbe0b
    11c0:	03000008 	movweq	r0, #8
    11c4:	0b0b0024 	bleq	2c125c <__bss_end__+0x2b646c>
    11c8:	0e030b3e 	vmoveq.16	d3[0], r0
    11cc:	15040000 	strne	r0, [r4, #-0]
    11d0:	49192701 	ldmdbmi	r9, {r0, r8, r9, sl, sp}
    11d4:	00130113 	andseq	r0, r3, r3, lsl r1
    11d8:	00050500 	andeq	r0, r5, r0, lsl #10
    11dc:	00001349 	andeq	r1, r0, r9, asr #6
    11e0:	03003406 	movweq	r3, #1030	; 0x406
    11e4:	3b0b3a0e 	blcc	2cfa24 <__bss_end__+0x2c4c34>
    11e8:	490b390b 	stmdbmi	fp, {r0, r1, r3, r8, fp, ip, sp}
    11ec:	3c193f13 	ldccc	15, cr3, [r9], {19}
    11f0:	07000019 	smladeq	r0, r9, r0, r0
    11f4:	0b0b000f 	bleq	2c1238 <__bss_end__+0x2b6448>
    11f8:	00001349 	andeq	r1, r0, r9, asr #6
    11fc:	49002608 	stmdbmi	r0, {r3, r9, sl, sp}
    1200:	09000013 	stmdbeq	r0, {r0, r1, r4}
    1204:	193f012e 	ldmdbne	pc!, {r1, r2, r3, r5, r8}	; <UNPREDICTABLE>
    1208:	0b3a0e03 	bleq	e84a1c <__bss_end__+0xe79c2c>
    120c:	0b390b3b 	bleq	e43f00 <__bss_end__+0xe39110>
    1210:	01111927 	tsteq	r1, r7, lsr #18
    1214:	18400612 	stmdane	r0, {r1, r4, r9, sl}^
    1218:	01194297 			; <UNDEFINED> instruction: 0x01194297
    121c:	0a000013 	beq	1270 <__code_start__-0x6d90>
    1220:	08030005 	stmdaeq	r3, {r0, r2}
    1224:	0b3b0b3a 	bleq	ec3f14 <__bss_end__+0xeb9124>
    1228:	13490b39 	movtne	r0, #39737	; 0x9b39
    122c:	42b71702 	adcsmi	r1, r7, #524288	; 0x80000
    1230:	0b000017 	bleq	1294 <__code_start__-0x6d6c>
    1234:	1331011d 	teqne	r1, #1073741831	; 0x40000007
    1238:	42b80152 	adcsmi	r0, r8, #-2147483628	; 0x80000014
    123c:	5817550b 	ldmdapl	r7, {r0, r1, r3, r8, sl, ip, lr}
    1240:	570b590b 	strpl	r5, [fp, -fp, lsl #18]
    1244:	0c00000b 	stceq	0, cr0, [r0], {11}
    1248:	13310005 	teqne	r1, #5, 0
    124c:	42b71702 	adcsmi	r1, r7, #524288	; 0x80000
    1250:	0d000017 	stceq	0, cr0, [r0, #-92]	; 0xffffffa4
    1254:	1331011d 	teqne	r1, #1073741831	; 0x40000007
    1258:	42b80152 	adcsmi	r0, r8, #-2147483628	; 0x80000014
    125c:	1201110b 	andne	r1, r1, #-1073741822	; 0xc0000002
    1260:	590b5806 	stmdbpl	fp, {r1, r2, fp, ip, lr}
    1264:	000b570b 	andeq	r5, fp, fp, lsl #14
    1268:	00340e00 	eorseq	r0, r4, r0, lsl #28
    126c:	17021331 	smladxne	r2, r1, r3, r1
    1270:	001742b7 			; <UNDEFINED> instruction: 0x001742b7
    1274:	011d0f00 	tsteq	sp, r0, lsl #30
    1278:	01521331 	cmpeq	r2, r1, lsr r3
    127c:	110b42b8 			; <UNDEFINED> instruction: 0x110b42b8
    1280:	58061201 	stmdapl	r6, {r0, r9, ip}
    1284:	570b590b 	strpl	r5, [fp, -fp, lsl #18]
    1288:	0013010b 	andseq	r0, r3, fp, lsl #2
    128c:	82891000 	addhi	r1, r9, #0, 0
    1290:	01110101 	tsteq	r1, r1, lsl #2
    1294:	00001331 	andeq	r1, r0, r1, lsr r3
    1298:	01828a11 	orreq	r8, r2, r1, lsl sl
    129c:	91180200 	tstls	r8, r0, lsl #4
    12a0:	00001842 	andeq	r1, r0, r2, asr #16
    12a4:	01828912 	orreq	r8, r2, r2, lsl r9
    12a8:	31011100 	mrscc	r1, (UNDEF: 17)
    12ac:	13000013 	movwne	r0, #19
    12b0:	1331010b 	teqne	r1, #-1073741822	; 0xc0000002
    12b4:	00001755 	andeq	r1, r0, r5, asr r7
    12b8:	31003414 	tstcc	r0, r4, lsl r4
    12bc:	15000013 	strne	r0, [r0, #-19]	; 0xffffffed
    12c0:	1755010b 	ldrbne	r0, [r5, -fp, lsl #2]
    12c4:	1d160000 	ldcne	0, cr0, [r6, #-0]
    12c8:	52133101 	andspl	r3, r3, #1073741824	; 0x40000000
    12cc:	0b42b801 	bleq	10af2d8 <__bss_end__+0x10a44e8>
    12d0:	0b581755 	bleq	160702c <__bss_end__+0x15fc23c>
    12d4:	0b570b59 	bleq	15c4040 <__bss_end__+0x15b9250>
    12d8:	00001301 	andeq	r1, r0, r1, lsl #6
    12dc:	3f012e17 	svccc	0x00012e17
    12e0:	3a0e0319 	bcc	381f4c <__bss_end__+0x37715c>
    12e4:	390b3b0b 	stmdbcc	fp, {r0, r1, r3, r8, r9, fp, ip, sp}
    12e8:	2019270b 	andscs	r2, r9, fp, lsl #14
    12ec:	0013010b 	andseq	r0, r3, fp, lsl #2
    12f0:	00051800 	andeq	r1, r5, r0, lsl #16
    12f4:	0b3a0803 	bleq	e83308 <__bss_end__+0xe78518>
    12f8:	0b390b3b 	bleq	e43fec <__bss_end__+0xe391fc>
    12fc:	00001349 	andeq	r1, r0, r9, asr #6
    1300:	03003419 	movweq	r3, #1049	; 0x419
    1304:	3b0b3a08 	blcc	2cfb2c <__bss_end__+0x2c4d3c>
    1308:	490b390b 	stmdbmi	fp, {r0, r1, r3, r8, fp, ip, sp}
    130c:	1a000013 	bne	1360 <__code_start__-0x6ca0>
    1310:	0000010b 	andeq	r0, r0, fp, lsl #2
    1314:	3f012e1b 	svccc	0x00012e1b
    1318:	3a0e0319 	bcc	381f84 <__bss_end__+0x377194>
    131c:	390b3b0b 	stmdbcc	fp, {r0, r1, r3, r8, r9, fp, ip, sp}
    1320:	4919270b 	ldmdbmi	r9, {r0, r1, r3, r8, r9, sl, sp}
    1324:	010b2013 	tsteq	fp, r3, lsl r0
    1328:	1c000013 	stcne	0, cr0, [r0], {19}
    132c:	193f002e 	ldmdbne	pc!, {r1, r2, r3, r5}	; <UNPREDICTABLE>
    1330:	0b3a0e03 	bleq	e84b44 <__bss_end__+0xe79d54>
    1334:	0b390b3b 	bleq	e44028 <__bss_end__+0xe39238>
    1338:	13491927 	movtne	r1, #39207	; 0x9927
    133c:	00000b20 	andeq	r0, r0, r0, lsr #22
    1340:	31012e1d 	tstcc	r1, sp, lsl lr
    1344:	12011113 	andne	r1, r1, #-1073741820	; 0xc0000004
    1348:	97184006 	ldrls	r4, [r8, -r6]
    134c:	13011942 	movwne	r1, #6466	; 0x1942
    1350:	891e0000 	ldmdbhi	lr, {}	; <UNPREDICTABLE>
    1354:	11010182 	smlabbne	r1, r2, r1, r0
    1358:	19429501 	stmdbne	r2, {r0, r8, sl, ip, pc}^
    135c:	00001331 	andeq	r1, r0, r1, lsr r3
    1360:	3f002e1f 	svccc	0x00002e1f
    1364:	6e193c19 	mrcvs	12, 0, r3, cr9, cr9, {0}
    1368:	3a0e030e 	bcc	381fa8 <__bss_end__+0x3771b8>
    136c:	390b3b0b 	stmdbcc	fp, {r0, r1, r3, r8, r9, fp, ip, sp}
    1370:	0000000b 	andeq	r0, r0, fp
    1374:	25011101 	strcs	r1, [r1, #-257]	; 0xfffffeff
    1378:	030b130e 	movweq	r1, #45838	; 0xb30e
    137c:	110e1b0e 	tstne	lr, lr, lsl #22
    1380:	10061201 	andne	r1, r6, r1, lsl #4
    1384:	02000017 	andeq	r0, r0, #23, 0
    1388:	0b0b0024 	bleq	2c1420 <__bss_end__+0x2b6630>
    138c:	08030b3e 	stmdaeq	r3, {r1, r2, r3, r4, r5, r8, r9, fp}
    1390:	24030000 	strcs	r0, [r3], #-0
    1394:	3e0b0b00 	vmlacc.f64	d0, d11, d0
    1398:	000e030b 	andeq	r0, lr, fp, lsl #6
    139c:	00350400 	eorseq	r0, r5, r0, lsl #8
    13a0:	00001349 	andeq	r1, r0, r9, asr #6
    13a4:	03001605 	movweq	r1, #1541	; 0x605
    13a8:	3b0b3a0e 	blcc	2cfbe8 <__bss_end__+0x2c4df8>
    13ac:	490b390b 	stmdbmi	fp, {r0, r1, r3, r8, fp, ip, sp}
    13b0:	06000013 			; <UNDEFINED> instruction: 0x06000013
    13b4:	0b3e0104 	bleq	f817cc <__bss_end__+0xf769dc>
    13b8:	13490b0b 	movtne	r0, #39691	; 0x9b0b
    13bc:	0b3b0b3a 	bleq	ec40ac <__bss_end__+0xeb92bc>
    13c0:	13010b39 	movwne	r0, #6969	; 0x1b39
    13c4:	28070000 	stmdacs	r7, {}	; <UNPREDICTABLE>
    13c8:	1c0e0300 	stcne	3, cr0, [lr], {-0}
    13cc:	0800000b 	stmdaeq	r0, {r0, r1, r3}
    13d0:	0e030113 	mcreq	1, 0, r0, cr3, cr3, {0}
    13d4:	0b3a0b0b 	bleq	e84008 <__bss_end__+0xe79218>
    13d8:	0b390b3b 	bleq	e440cc <__bss_end__+0xe392dc>
    13dc:	00001301 	andeq	r1, r0, r1, lsl #6
    13e0:	03000d09 	movweq	r0, #3337	; 0xd09
    13e4:	3b0b3a08 	blcc	2cfc0c <__bss_end__+0x2c4e1c>
    13e8:	490b390b 	stmdbmi	fp, {r0, r1, r3, r8, fp, ip, sp}
    13ec:	000b3813 	andeq	r3, fp, r3, lsl r8
    13f0:	000d0a00 	andeq	r0, sp, r0, lsl #20
    13f4:	0b3a0e03 	bleq	e84c08 <__bss_end__+0xe79e18>
    13f8:	0b390b3b 	bleq	e440ec <__bss_end__+0xe392fc>
    13fc:	0b381349 	bleq	e06128 <__bss_end__+0xdfb338>
    1400:	340b0000 	strcc	r0, [fp], #-0
    1404:	3a0e0300 	bcc	38200c <__bss_end__+0x37721c>
    1408:	390b3b0b 	stmdbcc	fp, {r0, r1, r3, r8, r9, fp, ip, sp}
    140c:	1c13490b 			; <UNDEFINED> instruction: 0x1c13490b
    1410:	0c000006 	stceq	0, cr0, [r0], {6}
    1414:	0b0b000f 	bleq	2c1458 <__bss_end__+0x2b6668>
    1418:	00001349 	andeq	r1, r0, r9, asr #6
    141c:	4900260d 	stmdbmi	r0, {r0, r2, r3, r9, sl, sp}
    1420:	0e000013 	mcreq	0, 0, r0, cr0, cr3, {0}
    1424:	193f012e 	ldmdbne	pc!, {r1, r2, r3, r5, r8}	; <UNPREDICTABLE>
    1428:	0b3a0e03 	bleq	e84c3c <__bss_end__+0xe79e4c>
    142c:	0b390b3b 	bleq	e44120 <__bss_end__+0xe39330>
    1430:	01111927 	tsteq	r1, r7, lsr #18
    1434:	18400612 	stmdane	r0, {r1, r4, r9, sl}^
    1438:	01194297 			; <UNDEFINED> instruction: 0x01194297
    143c:	0f000013 	svceq	0x00000013
    1440:	00018289 	andeq	r8, r1, r9, lsl #5
    1444:	13310111 	teqne	r1, #1073741828	; 0x40000004
    1448:	2e100000 	cdpcs	0, 1, cr0, cr0, cr0, {0}
    144c:	03193f01 	tsteq	r9, #1, 30
    1450:	3b0b3a0e 	blcc	2cfc90 <__bss_end__+0x2c4ea0>
    1454:	270b390b 	strcs	r3, [fp, -fp, lsl #18]
    1458:	11134919 	tstne	r3, r9, lsl r9
    145c:	40061201 	andmi	r1, r6, r1, lsl #4
    1460:	19429718 	stmdbne	r2, {r3, r4, r8, r9, sl, ip, pc}^
    1464:	00001301 	andeq	r1, r0, r1, lsl #6
    1468:	01828911 	orreq	r8, r2, r1, lsl r9
    146c:	31011101 	tstcc	r1, r1, lsl #2
    1470:	12000013 	andne	r0, r0, #19, 0
    1474:	0001828a 	andeq	r8, r1, sl, lsl #5
    1478:	42911802 	addsmi	r1, r1, #131072	; 0x20000
    147c:	13000018 	movwne	r0, #24
    1480:	08030005 	stmdaeq	r3, {r0, r2}
    1484:	0b3b0b3a 	bleq	ec4174 <__bss_end__+0xeb9384>
    1488:	13490b39 	movtne	r0, #39737	; 0x9b39
    148c:	42b71702 	adcsmi	r1, r7, #524288	; 0x80000
    1490:	14000017 	strne	r0, [r0], #-23	; 0xffffffe9
    1494:	01018289 	smlabbeq	r1, r9, r2, r8
    1498:	13310111 	teqne	r1, #1073741828	; 0x40000004
    149c:	00001301 	andeq	r1, r0, r1, lsl #6
    14a0:	03003415 	movweq	r3, #1045	; 0x415
    14a4:	3b0b3a08 	blcc	2cfccc <__bss_end__+0x2c4edc>
    14a8:	490b390b 	stmdbmi	fp, {r0, r1, r3, r8, fp, ip, sp}
    14ac:	b7170213 			; <UNDEFINED> instruction: 0xb7170213
    14b0:	00001742 	andeq	r1, r0, r2, asr #14
    14b4:	03003416 	movweq	r3, #1046	; 0x416
    14b8:	3b0b3a0e 	blcc	2cfcf8 <__bss_end__+0x2c4f08>
    14bc:	490b390b 	stmdbmi	fp, {r0, r1, r3, r8, fp, ip, sp}
    14c0:	00051c13 	andeq	r1, r5, r3, lsl ip
    14c4:	012e1700 			; <UNDEFINED> instruction: 0x012e1700
    14c8:	0b3a0e03 	bleq	e84cdc <__bss_end__+0xe79eec>
    14cc:	0b390b3b 	bleq	e441c0 <__bss_end__+0xe393d0>
    14d0:	01111927 	tsteq	r1, r7, lsr #18
    14d4:	18400612 	stmdane	r0, {r1, r4, r9, sl}^
    14d8:	01194297 			; <UNDEFINED> instruction: 0x01194297
    14dc:	18000013 	stmdane	r0, {r0, r1, r4}
    14e0:	0e030005 	cdpeq	0, 0, cr0, cr3, cr5, {0}
    14e4:	0b3b0b3a 	bleq	ec41d4 <__bss_end__+0xeb93e4>
    14e8:	13490b39 	movtne	r0, #39737	; 0x9b39
    14ec:	42b71702 	adcsmi	r1, r7, #524288	; 0x80000
    14f0:	19000017 	stmdbne	r0, {r0, r1, r2, r4}
    14f4:	00000035 	andeq	r0, r0, r5, lsr r0
    14f8:	3f002e1a 	svccc	0x00002e1a
    14fc:	6e193c19 	mrcvs	12, 0, r3, cr9, cr9, {0}
    1500:	3a0e030e 	bcc	382140 <__bss_end__+0x377350>
    1504:	390b3b0b 	stmdbcc	fp, {r0, r1, r3, r8, r9, fp, ip, sp}
    1508:	0000000b 	andeq	r0, r0, fp
    150c:	25011101 	strcs	r1, [r1, #-257]	; 0xfffffeff
    1510:	030b130e 	movweq	r1, #45838	; 0xb30e
    1514:	110e1b0e 	tstne	lr, lr, lsl #22
    1518:	10061201 	andne	r1, r6, r1, lsl #4
    151c:	02000017 	andeq	r0, r0, #23, 0
    1520:	0b0b0024 	bleq	2c15b8 <__bss_end__+0x2b67c8>
    1524:	08030b3e 	stmdaeq	r3, {r1, r2, r3, r4, r5, r8, r9, fp}
    1528:	24030000 	strcs	r0, [r3], #-0
    152c:	3e0b0b00 	vmlacc.f64	d0, d11, d0
    1530:	000e030b 	andeq	r0, lr, fp, lsl #6
    1534:	00160400 	andseq	r0, r6, r0, lsl #8
    1538:	0b3a0e03 	bleq	e84d4c <__bss_end__+0xe79f5c>
    153c:	0b390b3b 	bleq	e44230 <__bss_end__+0xe39440>
    1540:	00001349 	andeq	r1, r0, r9, asr #6
    1544:	49002605 	stmdbmi	r0, {r0, r2, r9, sl, sp}
    1548:	06000013 			; <UNDEFINED> instruction: 0x06000013
    154c:	0b0b000f 	bleq	2c1590 <__bss_end__+0x2b67a0>
    1550:	04070000 	streq	r0, [r7], #-0
    1554:	0b0b3e01 	bleq	2d0d60 <__bss_end__+0x2c5f70>
    1558:	3a13490b 	bcc	4d398c <__bss_end__+0x4c8b9c>
    155c:	390b3b0b 	stmdbcc	fp, {r0, r1, r3, r8, r9, fp, ip, sp}
    1560:	0013010b 	andseq	r0, r3, fp, lsl #2
    1564:	00280800 	eoreq	r0, r8, r0, lsl #16
    1568:	061c0e03 	ldreq	r0, [ip], -r3, lsl #28
    156c:	34090000 	strcc	r0, [r9], #-0
    1570:	3a0e0300 	bcc	382178 <__bss_end__+0x377388>
    1574:	390b3b0b 	stmdbcc	fp, {r0, r1, r3, r8, r9, fp, ip, sp}
    1578:	3f13490b 	svccc	0x0013490b
    157c:	00193c19 	andseq	r3, r9, r9, lsl ip
    1580:	00340a00 	eorseq	r0, r4, r0, lsl #20
    1584:	0b3a0e03 	bleq	e84d98 <__bss_end__+0xe79fa8>
    1588:	0b390b3b 	bleq	e4427c <__bss_end__+0xe3948c>
    158c:	18021349 	stmdane	r2, {r0, r3, r6, r8, r9, ip}
    1590:	0f0b0000 	svceq	0x000b0000
    1594:	490b0b00 	stmdbmi	fp, {r8, r9, fp}
    1598:	0c000013 	stceq	0, cr0, [r0], {19}
    159c:	193f012e 	ldmdbne	pc!, {r1, r2, r3, r5, r8}	; <UNPREDICTABLE>
    15a0:	0b3a0e03 	bleq	e84db4 <__bss_end__+0xe79fc4>
    15a4:	0b390b3b 	bleq	e44298 <__bss_end__+0xe394a8>
    15a8:	01111927 	tsteq	r1, r7, lsr #18
    15ac:	18400612 	stmdane	r0, {r1, r4, r9, sl}^
    15b0:	01194297 			; <UNDEFINED> instruction: 0x01194297
    15b4:	0d000013 	stceq	0, cr0, [r0, #-76]	; 0xffffffb4
    15b8:	08030005 	stmdaeq	r3, {r0, r2}
    15bc:	0b3b0b3a 	bleq	ec42ac <__bss_end__+0xeb94bc>
    15c0:	13490b39 	movtne	r0, #39737	; 0x9b39
    15c4:	42b71702 	adcsmi	r1, r7, #524288	; 0x80000
    15c8:	0e000017 	mcreq	0, 0, r0, cr0, cr7, {0}
    15cc:	0e030034 	mcreq	0, 0, r0, cr3, cr4, {1}
    15d0:	19341349 	ldmdbne	r4!, {r0, r3, r6, r8, r9, ip}
    15d4:	00001802 	andeq	r1, r0, r2, lsl #16
    15d8:	0182890f 	orreq	r8, r2, pc, lsl #18
    15dc:	31011101 	tstcc	r1, r1, lsl #2
    15e0:	00130113 	andseq	r0, r3, r3, lsl r1
    15e4:	828a1000 	addhi	r1, sl, #0, 0
    15e8:	18020001 	stmdane	r2, {r0}
    15ec:	00184291 	mulseq	r8, r1, r2
    15f0:	82891100 	addhi	r1, r9, #0
    15f4:	01110001 	tsteq	r1, r1
    15f8:	00001331 	andeq	r1, r0, r1, lsr r3
    15fc:	49010112 	stmdbmi	r1, {r1, r4, r8}
    1600:	00130113 	andseq	r0, r3, r3, lsl r1
    1604:	00211300 	eoreq	r1, r1, r0, lsl #6
    1608:	0b2f1349 	bleq	bc6334 <__bss_end__+0xbbb544>
    160c:	2e140000 	cdpcs	0, 1, cr0, cr4, cr0, {0}
    1610:	03193f00 	tsteq	r9, #0, 30
    1614:	3b0b3a0e 	blcc	2cfe54 <__bss_end__+0x2c5064>
    1618:	270b390b 	strcs	r3, [fp, -fp, lsl #18]
    161c:	12011119 	andne	r1, r1, #1073741830	; 0x40000006
    1620:	97184006 	ldrls	r4, [r8, -r6]
    1624:	00001942 	andeq	r1, r0, r2, asr #18
    1628:	03000515 	movweq	r0, #1301	; 0x515
    162c:	3b0b3a08 	blcc	2cfe54 <__bss_end__+0x2c5064>
    1630:	490b390b 	stmdbmi	fp, {r0, r1, r3, r8, fp, ip, sp}
    1634:	00180213 	andseq	r0, r8, r3, lsl r2
    1638:	012e1600 			; <UNDEFINED> instruction: 0x012e1600
    163c:	0e03193f 			; <UNDEFINED> instruction: 0x0e03193f
    1640:	0b3b0b3a 	bleq	ec4330 <__bss_end__+0xeb9540>
    1644:	19270b39 	stmdbne	r7!, {r0, r3, r4, r5, r8, r9, fp}
    1648:	01111349 	tsteq	r1, r9, asr #6
    164c:	18400612 	stmdane	r0, {r1, r4, r9, sl}^
    1650:	01194297 			; <UNDEFINED> instruction: 0x01194297
    1654:	17000013 	smladne	r0, r3, r0, r0
    1658:	0e030005 	cdpeq	0, 0, cr0, cr3, cr5, {0}
    165c:	0b3b0b3a 	bleq	ec434c <__bss_end__+0xeb955c>
    1660:	13490b39 	movtne	r0, #39737	; 0x9b39
    1664:	42b71702 	adcsmi	r1, r7, #524288	; 0x80000
    1668:	18000017 	stmdane	r0, {r0, r1, r2, r4}
    166c:	08030034 	stmdaeq	r3, {r2, r4, r5}
    1670:	0b3b0b3a 	bleq	ec4360 <__bss_end__+0xeb9570>
    1674:	13490b39 	movtne	r0, #39737	; 0x9b39
    1678:	42b71702 	adcsmi	r1, r7, #524288	; 0x80000
    167c:	19000017 	stmdbne	r0, {r0, r1, r2, r4}
    1680:	1331011d 	teqne	r1, #1073741831	; 0x40000007
    1684:	42b80152 	adcsmi	r0, r8, #-2147483628	; 0x80000014
    1688:	1201110b 	andne	r1, r1, #-1073741822	; 0xc0000002
    168c:	590b5806 	stmdbpl	fp, {r1, r2, fp, ip, lr}
    1690:	010b570b 	tsteq	fp, fp, lsl #14
    1694:	1a000013 	bne	16e8 <__code_start__-0x6918>
    1698:	13310005 	teqne	r1, #5, 0
    169c:	42b71702 	adcsmi	r1, r7, #524288	; 0x80000
    16a0:	1b000017 	blne	1704 <__code_start__-0x68fc>
    16a4:	1331011d 	teqne	r1, #1073741831	; 0x40000007
    16a8:	42b80152 	adcsmi	r0, r8, #-2147483628	; 0x80000014
    16ac:	5817550b 	ldmdapl	r7, {r0, r1, r3, r8, sl, ip, lr}
    16b0:	570b590b 	strpl	r5, [fp, -fp, lsl #18]
    16b4:	0013010b 	andseq	r0, r3, fp, lsl #2
    16b8:	010b1c00 	tsteq	fp, r0, lsl #24
    16bc:	00001755 	andeq	r1, r0, r5, asr r7
    16c0:	0300341d 	movweq	r3, #1053	; 0x41d
    16c4:	3b0b3a0e 	blcc	2cff04 <__bss_end__+0x2c5114>
    16c8:	490b390b 	stmdbmi	fp, {r0, r1, r3, r8, fp, ip, sp}
    16cc:	b7170213 			; <UNDEFINED> instruction: 0xb7170213
    16d0:	00001742 	andeq	r1, r0, r2, asr #14
    16d4:	55000b1e 	strpl	r0, [r0, #-2846]	; 0xfffff4e2
    16d8:	1f000017 	svcne	0x00000017
    16dc:	193f002e 	ldmdbne	pc!, {r1, r2, r3, r5}	; <UNPREDICTABLE>
    16e0:	0b3a0e03 	bleq	e84ef4 <__bss_end__+0xe7a104>
    16e4:	0b390b3b 	bleq	e443d8 <__bss_end__+0xe395e8>
    16e8:	13491927 	movtne	r1, #39207	; 0x9927
    16ec:	06120111 			; <UNDEFINED> instruction: 0x06120111
    16f0:	42971840 	addsmi	r1, r7, #64, 16	; 0x400000
    16f4:	20000019 	andcs	r0, r0, r9, lsl r0
    16f8:	0e03012e 	adfeqsp	f0, f3, #0.5
    16fc:	0b3b0b3a 	bleq	ec43ec <__bss_end__+0xeb95fc>
    1700:	19270b39 	stmdbne	r7!, {r0, r3, r4, r5, r8, r9, fp}
    1704:	0b201349 	bleq	806430 <__bss_end__+0x7fb640>
    1708:	00001301 	andeq	r1, r0, r1, lsl #6
    170c:	03000521 	movweq	r0, #1313	; 0x521
    1710:	3b0b3a08 	blcc	2cff38 <__bss_end__+0x2c5148>
    1714:	490b390b 	stmdbmi	fp, {r0, r1, r3, r8, fp, ip, sp}
    1718:	22000013 	andcs	r0, r0, #19, 0
    171c:	193f002e 	ldmdbne	pc!, {r1, r2, r3, r5}	; <UNPREDICTABLE>
    1720:	0e6e193c 			; <UNDEFINED> instruction: 0x0e6e193c
    1724:	0b3a0e03 	bleq	e84f38 <__bss_end__+0xe7a148>
    1728:	0b390b3b 	bleq	e4441c <__bss_end__+0xe3962c>
    172c:	01000000 	mrseq	r0, (UNDEF: 0)
    1730:	0e250111 	mcreq	1, 1, r0, cr5, cr1, {0}
    1734:	0e030b13 	vmoveq.32	d3[0], r0
    1738:	01110e1b 	tsteq	r1, fp, lsl lr
    173c:	17100612 			; <UNDEFINED> instruction: 0x17100612
    1740:	24020000 	strcs	r0, [r2], #-0
    1744:	3e0b0b00 	vmlacc.f64	d0, d11, d0
    1748:	000e030b 	andeq	r0, lr, fp, lsl #6
    174c:	00240300 	eoreq	r0, r4, r0, lsl #6
    1750:	0b3e0b0b 	bleq	f84384 <__bss_end__+0xf79594>
    1754:	00000803 	andeq	r0, r0, r3, lsl #16
    1758:	49002604 	stmdbmi	r0, {r2, r9, sl, sp}
    175c:	05000013 	streq	r0, [r0, #-19]	; 0xffffffed
    1760:	0e030016 	mcreq	0, 0, r0, cr3, cr6, {0}
    1764:	0b3b0b3a 	bleq	ec4454 <__bss_end__+0xeb9664>
    1768:	13490b39 	movtne	r0, #39737	; 0x9b39
    176c:	15060000 	strne	r0, [r6, #-0]
    1770:	49192701 	ldmdbmi	r9, {r0, r8, r9, sl, sp}
    1774:	00130113 	andseq	r0, r3, r3, lsl r1
    1778:	00050700 	andeq	r0, r5, r0, lsl #14
    177c:	00001349 	andeq	r1, r0, r9, asr #6
    1780:	03003408 	movweq	r3, #1032	; 0x408
    1784:	3b0b3a0e 	blcc	2cffc4 <__bss_end__+0x2c51d4>
    1788:	490b390b 	stmdbmi	fp, {r0, r1, r3, r8, fp, ip, sp}
    178c:	3c193f13 	ldccc	15, cr3, [r9], {19}
    1790:	09000019 	stmdbeq	r0, {r0, r3, r4}
    1794:	0b0b000f 	bleq	2c17d8 <__bss_end__+0x2b69e8>
    1798:	00001349 	andeq	r1, r0, r9, asr #6
    179c:	3e01040a 	cdpcc	4, 0, cr0, cr1, cr10, {0}
    17a0:	490b0b0b 	stmdbmi	fp, {r0, r1, r3, r8, r9, fp}
    17a4:	3b0b3a13 	blcc	2cfff8 <__bss_end__+0x2c5208>
    17a8:	010b390b 	tsteq	fp, fp, lsl #18
    17ac:	0b000013 	bleq	1800 <__code_start__-0x6800>
    17b0:	0e030028 	cdpeq	0, 0, cr0, cr3, cr8, {1}
    17b4:	00000b1c 	andeq	r0, r0, ip, lsl fp
    17b8:	0300340c 	movweq	r3, #1036	; 0x40c
    17bc:	3b0b3a0e 	blcc	2cfffc <__bss_end__+0x2c520c>
    17c0:	490b390b 	stmdbmi	fp, {r0, r1, r3, r8, fp, ip, sp}
    17c4:	00061c13 	andeq	r1, r6, r3, lsl ip
    17c8:	012e0d00 			; <UNDEFINED> instruction: 0x012e0d00
    17cc:	0e03193f 			; <UNDEFINED> instruction: 0x0e03193f
    17d0:	0b3b0b3a 	bleq	ec44c0 <__bss_end__+0xeb96d0>
    17d4:	19270b39 	stmdbne	r7!, {r0, r3, r4, r5, r8, r9, fp}
    17d8:	01111349 	tsteq	r1, r9, asr #6
    17dc:	18400612 	stmdane	r0, {r1, r4, r9, sl}^
    17e0:	01194297 			; <UNDEFINED> instruction: 0x01194297
    17e4:	0e000013 	mcreq	0, 0, r0, cr0, cr3, {0}
    17e8:	08030005 	stmdaeq	r3, {r0, r2}
    17ec:	0b3b0b3a 	bleq	ec44dc <__bss_end__+0xeb96ec>
    17f0:	13490b39 	movtne	r0, #39737	; 0x9b39
    17f4:	42b71702 	adcsmi	r1, r7, #524288	; 0x80000
    17f8:	0f000017 	svceq	0x00000017
    17fc:	0e030034 	mcreq	0, 0, r0, cr3, cr4, {1}
    1800:	0b3b0b3a 	bleq	ec44f0 <__bss_end__+0xeb9700>
    1804:	13490b39 	movtne	r0, #39737	; 0x9b39
    1808:	42b71702 	adcsmi	r1, r7, #524288	; 0x80000
    180c:	10000017 	andne	r0, r0, r7, lsl r0
    1810:	08030034 	stmdaeq	r3, {r2, r4, r5}
    1814:	0b3b0b3a 	bleq	ec4504 <__bss_end__+0xeb9714>
    1818:	13490b39 	movtne	r0, #39737	; 0x9b39
    181c:	42b71702 	adcsmi	r1, r7, #524288	; 0x80000
    1820:	11000017 	tstne	r0, r7, lsl r0
    1824:	01018289 	smlabbeq	r1, r9, r2, r8
    1828:	13310111 	teqne	r1, #1073741828	; 0x40000004
    182c:	8a120000 	bhi	481834 <__bss_end__+0x476a44>
    1830:	02000182 	andeq	r0, r0, #-2147483616	; 0x80000020
    1834:	18429118 	stmdane	r2, {r3, r4, r8, ip, pc}^
    1838:	2e130000 	cdpcs	0, 1, cr0, cr3, cr0, {0}
    183c:	03193f01 	tsteq	r9, #1, 30
    1840:	3b0b3a0e 	blcc	2d0080 <__bss_end__+0x2c5290>
    1844:	270b390b 	strcs	r3, [fp, -fp, lsl #18]
    1848:	12011119 	andne	r1, r1, #1073741830	; 0x40000006
    184c:	97184006 	ldrls	r4, [r8, -r6]
    1850:	13011942 	movwne	r1, #6466	; 0x1942
    1854:	1d140000 	ldcne	0, cr0, [r4, #-0]
    1858:	52133101 	andspl	r3, r3, #1073741824	; 0x40000000
    185c:	0b42b801 	bleq	10af868 <__bss_end__+0x10a4a78>
    1860:	0b581755 	bleq	16075bc <__bss_end__+0x15fc7cc>
    1864:	0b570b59 	bleq	15c45d0 <__bss_end__+0x15b97e0>
    1868:	00001301 	andeq	r1, r0, r1, lsl #6
    186c:	31000515 	tstcc	r0, r5, lsl r5
    1870:	b7170213 			; <UNDEFINED> instruction: 0xb7170213
    1874:	00001742 	andeq	r1, r0, r2, asr #14
    1878:	01828916 	orreq	r8, r2, r6, lsl r9
    187c:	95011101 	strls	r1, [r1, #-257]	; 0xfffffeff
    1880:	13311942 	teqne	r1, #1081344	; 0x108000
    1884:	1d170000 	ldcne	0, cr0, [r7, #-0]
    1888:	52133101 	andspl	r3, r3, #1073741824	; 0x40000000
    188c:	0b42b801 	bleq	10af898 <__bss_end__+0x10a4aa8>
    1890:	06120111 			; <UNDEFINED> instruction: 0x06120111
    1894:	0b590b58 	bleq	16445fc <__bss_end__+0x163980c>
    1898:	00000b57 	andeq	r0, r0, r7, asr fp
    189c:	31011d18 	tstcc	r1, r8, lsl sp
    18a0:	b8015213 	stmdalt	r1, {r0, r1, r4, r9, ip, lr}
    18a4:	17550b42 	ldrbne	r0, [r5, -r2, asr #22]
    18a8:	0b590b58 	bleq	1644610 <__bss_end__+0x1639820>
    18ac:	00000b57 	andeq	r0, r0, r7, asr fp
    18b0:	31000519 	tstcc	r0, r9, lsl r5
    18b4:	000b1c13 	andeq	r1, fp, r3, lsl ip
    18b8:	010b1a00 	tsteq	fp, r0, lsl #20
    18bc:	00001755 	andeq	r1, r0, r5, asr r7
    18c0:	3100341b 	tstcc	r0, fp, lsl r4
    18c4:	1c000013 	stcne	0, cr0, [r0], {19}
    18c8:	13310034 	teqne	r1, #52, 0	; 0x34
    18cc:	42b71702 	adcsmi	r1, r7, #524288	; 0x80000
    18d0:	1d000017 	stcne	0, cr0, [r0, #-92]	; 0xffffffa4
    18d4:	01018289 	smlabbeq	r1, r9, r2, r8
    18d8:	13310111 	teqne	r1, #1073741828	; 0x40000004
    18dc:	00001301 	andeq	r1, r0, r1, lsl #6
    18e0:	3f012e1e 	svccc	0x00012e1e
    18e4:	3a0e0319 	bcc	382550 <__bss_end__+0x377760>
    18e8:	390b3b0b 	stmdbcc	fp, {r0, r1, r3, r8, r9, fp, ip, sp}
    18ec:	2019270b 	andscs	r2, r9, fp, lsl #14
    18f0:	0013010b 	andseq	r0, r3, fp, lsl #2
    18f4:	00051f00 	andeq	r1, r5, r0, lsl #30
    18f8:	0b3a0803 	bleq	e8390c <__bss_end__+0xe78b1c>
    18fc:	0b390b3b 	bleq	e445f0 <__bss_end__+0xe39800>
    1900:	00001349 	andeq	r1, r0, r9, asr #6
    1904:	03000520 	movweq	r0, #1312	; 0x520
    1908:	3b0b3a0e 	blcc	2d0148 <__bss_end__+0x2c5358>
    190c:	490b390b 	stmdbmi	fp, {r0, r1, r3, r8, fp, ip, sp}
    1910:	21000013 	tstcs	r0, r3, lsl r0
    1914:	08030034 	stmdaeq	r3, {r2, r4, r5}
    1918:	0b3b0b3a 	bleq	ec4608 <__bss_end__+0xeb9818>
    191c:	13490b39 	movtne	r0, #39737	; 0x9b39
    1920:	2e220000 	cdpcs	0, 2, cr0, cr2, cr0, {0}
    1924:	3a0e0301 	bcc	382530 <__bss_end__+0x377740>
    1928:	390b3b0b 	stmdbcc	fp, {r0, r1, r3, r8, r9, fp, ip, sp}
    192c:	4919270b 	ldmdbmi	r9, {r0, r1, r3, r8, r9, sl, sp}
    1930:	010b2013 	tsteq	fp, r3, lsl r0
    1934:	23000013 	movwcs	r0, #19
    1938:	1331012e 	teqne	r1, #-2147483637	; 0x8000000b
    193c:	06120111 			; <UNDEFINED> instruction: 0x06120111
    1940:	42971840 	addsmi	r1, r7, #64, 16	; 0x400000
    1944:	00130119 	andseq	r0, r3, r9, lsl r1
    1948:	002e2400 	eoreq	r2, lr, r0, lsl #8
    194c:	193c193f 	ldmdbne	ip!, {r0, r1, r2, r3, r4, r5, r8, fp, ip}
    1950:	0e030e6e 	cdpeq	14, 0, cr0, cr3, cr14, {3}
    1954:	0b3b0b3a 	bleq	ec4644 <__bss_end__+0xeb9854>
    1958:	00000b39 	andeq	r0, r0, r9, lsr fp
    195c:	01110100 	tsteq	r1, r0, lsl #2
    1960:	0b130e25 	bleq	4c51fc <__bss_end__+0x4ba40c>
    1964:	0e1b0e03 	cdpeq	14, 1, cr0, cr11, cr3, {0}
    1968:	06120111 			; <UNDEFINED> instruction: 0x06120111
    196c:	00001710 	andeq	r1, r0, r0, lsl r7
    1970:	0b002402 	bleq	a980 <__FUNCTION__.4+0xc>
    1974:	030b3e0b 	movweq	r3, #48651	; 0xbe0b
    1978:	03000008 	movweq	r0, #8
    197c:	0b0b0024 	bleq	2c1a14 <__bss_end__+0x2b6c24>
    1980:	0e030b3e 	vmoveq.16	d3[0], r0
    1984:	15040000 	strne	r0, [r4, #-0]
    1988:	49192701 	ldmdbmi	r9, {r0, r8, r9, sl, sp}
    198c:	00130113 	andseq	r0, r3, r3, lsl r1
    1990:	00050500 	andeq	r0, r5, r0, lsl #10
    1994:	00001349 	andeq	r1, r0, r9, asr #6
    1998:	03003406 	movweq	r3, #1030	; 0x406
    199c:	3b0b3a0e 	blcc	2d01dc <__bss_end__+0x2c53ec>
    19a0:	490b390b 	stmdbmi	fp, {r0, r1, r3, r8, fp, ip, sp}
    19a4:	3c193f13 	ldccc	15, cr3, [r9], {19}
    19a8:	07000019 	smladeq	r0, r9, r0, r0
    19ac:	0b0b000f 	bleq	2c19f0 <__bss_end__+0x2b6c00>
    19b0:	00001349 	andeq	r1, r0, r9, asr #6
    19b4:	49002608 	stmdbmi	r0, {r3, r9, sl, sp}
    19b8:	09000013 	stmdbeq	r0, {r0, r1, r4}
    19bc:	13470034 	movtne	r0, #28724	; 0x7034
    19c0:	0b3b0b3a 	bleq	ec46b0 <__bss_end__+0xeb98c0>
    19c4:	18020b39 	stmdane	r2, {r0, r3, r4, r5, r8, r9, fp}
    19c8:	2e0a0000 	cdpcs	0, 0, cr0, cr10, cr0, {0}
    19cc:	03193f01 	tsteq	r9, #1, 30
    19d0:	3b0b3a0e 	blcc	2d0210 <__bss_end__+0x2c5420>
    19d4:	270b390b 	strcs	r3, [fp, -fp, lsl #18]
    19d8:	12011119 	andne	r1, r1, #1073741830	; 0x40000006
    19dc:	97184006 	ldrls	r4, [r8, -r6]
    19e0:	13011942 	movwne	r1, #6466	; 0x1942
    19e4:	050b0000 	streq	r0, [fp, #-0]
    19e8:	3a080300 	bcc	2025f0 <__bss_end__+0x1f7800>
    19ec:	390b3b0b 	stmdbcc	fp, {r0, r1, r3, r8, r9, fp, ip, sp}
    19f0:	0213490b 	andseq	r4, r3, #180224	; 0x2c000
    19f4:	0c000018 	stceq	0, cr0, [r0], {24}
    19f8:	193f002e 	ldmdbne	pc!, {r1, r2, r3, r5}	; <UNPREDICTABLE>
    19fc:	0b3a0e03 	bleq	e85210 <__bss_end__+0xe7a420>
    1a00:	0b390b3b 	bleq	e446f4 <__bss_end__+0xe39904>
    1a04:	01111927 	tsteq	r1, r7, lsr #18
    1a08:	18400612 	stmdane	r0, {r1, r4, r9, sl}^
    1a0c:	00194297 	mulseq	r9, r7, r2
    1a10:	012e0d00 			; <UNDEFINED> instruction: 0x012e0d00
    1a14:	0b3a0e03 	bleq	e85228 <__bss_end__+0xe7a438>
    1a18:	0b390b3b 	bleq	e4470c <__bss_end__+0xe3991c>
    1a1c:	13491927 	movtne	r1, #39207	; 0x9927
    1a20:	06120111 			; <UNDEFINED> instruction: 0x06120111
    1a24:	42971840 	addsmi	r1, r7, #64, 16	; 0x400000
    1a28:	00130119 	andseq	r0, r3, r9, lsl r1
    1a2c:	00050e00 	andeq	r0, r5, r0, lsl #28
    1a30:	0b3a0803 	bleq	e83a44 <__bss_end__+0xe78c54>
    1a34:	0b390b3b 	bleq	e44728 <__bss_end__+0xe39938>
    1a38:	17021349 	strne	r1, [r2, -r9, asr #6]
    1a3c:	001742b7 			; <UNDEFINED> instruction: 0x001742b7
    1a40:	82890f00 	addhi	r0, r9, #0, 30
    1a44:	01110101 	tsteq	r1, r1, lsl #2
    1a48:	00001331 	andeq	r1, r0, r1, lsr r3
    1a4c:	01828a10 	orreq	r8, r2, r0, lsl sl
    1a50:	91180200 	tstls	r8, r0, lsl #4
    1a54:	00001842 	andeq	r1, r0, r2, asr #16
    1a58:	3f002e11 	svccc	0x00002e11
    1a5c:	6e193c19 	mrcvs	12, 0, r3, cr9, cr9, {0}
    1a60:	3a0e030e 	bcc	3826a0 <__bss_end__+0x3778b0>
    1a64:	390b3b0b 	stmdbcc	fp, {r0, r1, r3, r8, r9, fp, ip, sp}
    1a68:	0000000b 	andeq	r0, r0, fp
    1a6c:	25011101 	strcs	r1, [r1, #-257]	; 0xfffffeff
    1a70:	030b130e 	movweq	r1, #45838	; 0xb30e
    1a74:	110e1b0e 	tstne	lr, lr, lsl #22
    1a78:	10061201 	andne	r1, r6, r1, lsl #4
    1a7c:	02000017 	andeq	r0, r0, #23, 0
    1a80:	0b0b0024 	bleq	2c1b18 <__bss_end__+0x2b6d28>
    1a84:	08030b3e 	stmdaeq	r3, {r1, r2, r3, r4, r5, r8, r9, fp}
    1a88:	24030000 	strcs	r0, [r3], #-0
    1a8c:	3e0b0b00 	vmlacc.f64	d0, d11, d0
    1a90:	000e030b 	andeq	r0, lr, fp, lsl #6
    1a94:	01150400 	tsteq	r5, r0, lsl #8
    1a98:	13491927 	movtne	r1, #39207	; 0x9927
    1a9c:	00001301 	andeq	r1, r0, r1, lsl #6
    1aa0:	49000505 	stmdbmi	r0, {r0, r2, r8, sl}
    1aa4:	06000013 			; <UNDEFINED> instruction: 0x06000013
    1aa8:	0e030034 	mcreq	0, 0, r0, cr3, cr4, {1}
    1aac:	0b3b0b3a 	bleq	ec479c <__bss_end__+0xeb99ac>
    1ab0:	13490b39 	movtne	r0, #39737	; 0x9b39
    1ab4:	193c193f 	ldmdbne	ip!, {r0, r1, r2, r3, r4, r5, r8, fp, ip}
    1ab8:	0f070000 	svceq	0x00070000
    1abc:	490b0b00 	stmdbmi	fp, {r8, r9, fp}
    1ac0:	08000013 	stmdaeq	r0, {r0, r1, r4}
    1ac4:	13490026 	movtne	r0, #36902	; 0x9026
    1ac8:	2e090000 	cdpcs	0, 0, cr0, cr9, cr0, {0}
    1acc:	03193f01 	tsteq	r9, #1, 30
    1ad0:	3b0b3a0e 	blcc	2d0310 <__bss_end__+0x2c5520>
    1ad4:	270b390b 	strcs	r3, [fp, -fp, lsl #18]
    1ad8:	11134919 	tstne	r3, r9, lsl r9
    1adc:	40061201 	andmi	r1, r6, r1, lsl #4
    1ae0:	19429718 	stmdbne	r2, {r3, r4, r8, r9, sl, ip, pc}^
    1ae4:	00001301 	andeq	r1, r0, r1, lsl #6
    1ae8:	0300050a 	movweq	r0, #1290	; 0x50a
    1aec:	3b0b3a0e 	blcc	2d032c <__bss_end__+0x2c553c>
    1af0:	490b390b 	stmdbmi	fp, {r0, r1, r3, r8, fp, ip, sp}
    1af4:	00180213 	andseq	r0, r8, r3, lsl r2
    1af8:	00050b00 	andeq	r0, r5, r0, lsl #22
    1afc:	0b3a0803 	bleq	e83b10 <__bss_end__+0xe78d20>
    1b00:	0b390b3b 	bleq	e447f4 <__bss_end__+0xe39a04>
    1b04:	17021349 	strne	r1, [r2, -r9, asr #6]
    1b08:	001742b7 			; <UNDEFINED> instruction: 0x001742b7
    1b0c:	00340c00 	eorseq	r0, r4, r0, lsl #24
    1b10:	0b3a0803 	bleq	e83b24 <__bss_end__+0xe78d34>
    1b14:	0b390b3b 	bleq	e44808 <__bss_end__+0xe39a18>
    1b18:	17021349 	strne	r1, [r2, -r9, asr #6]
    1b1c:	001742b7 			; <UNDEFINED> instruction: 0x001742b7
    1b20:	11010000 	mrsne	r0, (UNDEF: 1)
    1b24:	130e2501 	movwne	r2, #58625	; 0xe501
    1b28:	1b0e030b 	blne	38275c <__bss_end__+0x37796c>
    1b2c:	1201110e 	andne	r1, r1, #-2147483645	; 0x80000003
    1b30:	00171006 	andseq	r1, r7, r6
    1b34:	00240200 	eoreq	r0, r4, r0, lsl #4
    1b38:	0b3e0b0b 	bleq	f8476c <__bss_end__+0xf7997c>
    1b3c:	00000803 	andeq	r0, r0, r3, lsl #16
    1b40:	0b002403 	bleq	ab54 <buf.3944+0x168>
    1b44:	030b3e0b 	movweq	r3, #48651	; 0xbe0b
    1b48:	0400000e 	streq	r0, [r0], #-14
    1b4c:	19270115 	stmdbne	r7!, {r0, r2, r4, r8}
    1b50:	13011349 	movwne	r1, #4937	; 0x1349
    1b54:	05050000 	streq	r0, [r5, #-0]
    1b58:	00134900 	andseq	r4, r3, r0, lsl #18
    1b5c:	00340600 	eorseq	r0, r4, r0, lsl #12
    1b60:	0b3a0e03 	bleq	e85374 <__bss_end__+0xe7a584>
    1b64:	0b390b3b 	bleq	e44858 <__bss_end__+0xe39a68>
    1b68:	193f1349 	ldmdbne	pc!, {r0, r3, r6, r8, r9, ip}	; <UNPREDICTABLE>
    1b6c:	0000193c 	andeq	r1, r0, ip, lsr r9
    1b70:	0b000f07 	bleq	5794 <__code_start__-0x286c>
    1b74:	0013490b 	andseq	r4, r3, fp, lsl #18
    1b78:	00260800 	eoreq	r0, r6, r0, lsl #16
    1b7c:	00001349 	andeq	r1, r0, r9, asr #6
    1b80:	3f012e09 	svccc	0x00012e09
    1b84:	3a0e0319 	bcc	3827f0 <__bss_end__+0x377a00>
    1b88:	390b3b0b 	stmdbcc	fp, {r0, r1, r3, r8, r9, fp, ip, sp}
    1b8c:	4919270b 	ldmdbmi	r9, {r0, r1, r3, r8, r9, sl, sp}
    1b90:	12011113 	andne	r1, r1, #-1073741820	; 0xc0000004
    1b94:	97184006 	ldrls	r4, [r8, -r6]
    1b98:	00001942 	andeq	r1, r0, r2, asr #18
    1b9c:	0300050a 	movweq	r0, #1290	; 0x50a
    1ba0:	3b0b3a08 	blcc	2d03c8 <__bss_end__+0x2c55d8>
    1ba4:	490b390b 	stmdbmi	fp, {r0, r1, r3, r8, fp, ip, sp}
    1ba8:	b7170213 			; <UNDEFINED> instruction: 0xb7170213
    1bac:	00001742 	andeq	r1, r0, r2, asr #14
    1bb0:	01110100 	tsteq	r1, r0, lsl #2
    1bb4:	0b130e25 	bleq	4c5450 <__bss_end__+0x4ba660>
    1bb8:	0e1b0e03 	cdpeq	14, 1, cr0, cr11, cr3, {0}
    1bbc:	06120111 			; <UNDEFINED> instruction: 0x06120111
    1bc0:	00001710 	andeq	r1, r0, r0, lsl r7
    1bc4:	0b002402 	bleq	abd4 <buf.3944+0x1e8>
    1bc8:	030b3e0b 	movweq	r3, #48651	; 0xbe0b
    1bcc:	03000008 	movweq	r0, #8
    1bd0:	0b0b0024 	bleq	2c1c68 <__bss_end__+0x2b6e78>
    1bd4:	0e030b3e 	vmoveq.16	d3[0], r0
    1bd8:	15040000 	strne	r0, [r4, #-0]
    1bdc:	49192701 	ldmdbmi	r9, {r0, r8, r9, sl, sp}
    1be0:	00130113 	andseq	r0, r3, r3, lsl r1
    1be4:	00050500 	andeq	r0, r5, r0, lsl #10
    1be8:	00001349 	andeq	r1, r0, r9, asr #6
    1bec:	03003406 	movweq	r3, #1030	; 0x406
    1bf0:	3b0b3a0e 	blcc	2d0430 <__bss_end__+0x2c5640>
    1bf4:	490b390b 	stmdbmi	fp, {r0, r1, r3, r8, fp, ip, sp}
    1bf8:	3c193f13 	ldccc	15, cr3, [r9], {19}
    1bfc:	07000019 	smladeq	r0, r9, r0, r0
    1c00:	0b0b000f 	bleq	2c1c44 <__bss_end__+0x2b6e54>
    1c04:	00001349 	andeq	r1, r0, r9, asr #6
    1c08:	49002608 	stmdbmi	r0, {r3, r9, sl, sp}
    1c0c:	09000013 	stmdbeq	r0, {r0, r1, r4}
    1c10:	193f012e 	ldmdbne	pc!, {r1, r2, r3, r5, r8}	; <UNPREDICTABLE>
    1c14:	0b3a0e03 	bleq	e85428 <__bss_end__+0xe7a638>
    1c18:	0b390b3b 	bleq	e4490c <__bss_end__+0xe39b1c>
    1c1c:	13491927 	movtne	r1, #39207	; 0x9927
    1c20:	06120111 			; <UNDEFINED> instruction: 0x06120111
    1c24:	42971840 	addsmi	r1, r7, #64, 16	; 0x400000
    1c28:	00130119 	andseq	r0, r3, r9, lsl r1
    1c2c:	00050a00 	andeq	r0, r5, r0, lsl #20
    1c30:	0b3a0803 	bleq	e83c44 <__bss_end__+0xe78e54>
    1c34:	0b390b3b 	bleq	e44928 <__bss_end__+0xe39b38>
    1c38:	18021349 	stmdane	r2, {r0, r3, r6, r8, r9, ip}
    1c3c:	050b0000 	streq	r0, [fp, #-0]
    1c40:	3a080300 	bcc	202848 <__bss_end__+0x1f7a58>
    1c44:	390b3b0b 	stmdbcc	fp, {r0, r1, r3, r8, r9, fp, ip, sp}
    1c48:	0213490b 	andseq	r4, r3, #180224	; 0x2c000
    1c4c:	1742b717 	smlaldne	fp, r2, r7, r7
    1c50:	340c0000 	strcc	r0, [ip], #-0
    1c54:	3a080300 	bcc	20285c <__bss_end__+0x1f7a6c>
    1c58:	390b3b0b 	stmdbcc	fp, {r0, r1, r3, r8, r9, fp, ip, sp}
    1c5c:	0213490b 	andseq	r4, r3, #180224	; 0x2c000
    1c60:	1742b717 	smlaldne	fp, r2, r7, r7
    1c64:	01000000 	mrseq	r0, (UNDEF: 0)
    1c68:	0e250111 	mcreq	1, 1, r0, cr5, cr1, {0}
    1c6c:	0e030b13 	vmoveq.32	d3[0], r0
    1c70:	01110e1b 	tsteq	r1, fp, lsl lr
    1c74:	17100612 			; <UNDEFINED> instruction: 0x17100612
    1c78:	24020000 	strcs	r0, [r2], #-0
    1c7c:	3e0b0b00 	vmlacc.f64	d0, d11, d0
    1c80:	0008030b 	andeq	r0, r8, fp, lsl #6
    1c84:	00160300 	andseq	r0, r6, r0, lsl #6
    1c88:	0b3a0e03 	bleq	e8549c <__bss_end__+0xe7a6ac>
    1c8c:	0b390b3b 	bleq	e44980 <__bss_end__+0xe39b90>
    1c90:	00001349 	andeq	r1, r0, r9, asr #6
    1c94:	0b002404 	bleq	acac <buf.3944+0x2c0>
    1c98:	030b3e0b 	movweq	r3, #48651	; 0xbe0b
    1c9c:	0500000e 	streq	r0, [r0, #-14]
    1ca0:	13490026 	movtne	r0, #36902	; 0x9026
    1ca4:	15060000 	strne	r0, [r6, #-0]
    1ca8:	49192701 	ldmdbmi	r9, {r0, r8, r9, sl, sp}
    1cac:	00130113 	andseq	r0, r3, r3, lsl r1
    1cb0:	00050700 	andeq	r0, r5, r0, lsl #14
    1cb4:	00001349 	andeq	r1, r0, r9, asr #6
    1cb8:	03003408 	movweq	r3, #1032	; 0x408
    1cbc:	3b0b3a0e 	blcc	2d04fc <__bss_end__+0x2c570c>
    1cc0:	490b390b 	stmdbmi	fp, {r0, r1, r3, r8, fp, ip, sp}
    1cc4:	3c193f13 	ldccc	15, cr3, [r9], {19}
    1cc8:	09000019 	stmdbeq	r0, {r0, r3, r4}
    1ccc:	0b0b000f 	bleq	2c1d10 <__bss_end__+0x2b6f20>
    1cd0:	00001349 	andeq	r1, r0, r9, asr #6
    1cd4:	3f012e0a 	svccc	0x00012e0a
    1cd8:	3a0e0319 	bcc	382944 <__bss_end__+0x377b54>
    1cdc:	390b3b0b 	stmdbcc	fp, {r0, r1, r3, r8, r9, fp, ip, sp}
    1ce0:	4919270b 	ldmdbmi	r9, {r0, r1, r3, r8, r9, sl, sp}
    1ce4:	12011113 	andne	r1, r1, #-1073741820	; 0xc0000004
    1ce8:	97184006 	ldrls	r4, [r8, -r6]
    1cec:	13011942 	movwne	r1, #6466	; 0x1942
    1cf0:	050b0000 	streq	r0, [fp, #-0]
    1cf4:	3a080300 	bcc	2028fc <__bss_end__+0x1f7b0c>
    1cf8:	390b3b0b 	stmdbcc	fp, {r0, r1, r3, r8, r9, fp, ip, sp}
    1cfc:	0213490b 	andseq	r4, r3, #180224	; 0x2c000
    1d00:	1742b717 	smlaldne	fp, r2, r7, r7
    1d04:	340c0000 	strcc	r0, [ip], #-0
    1d08:	3a080300 	bcc	202910 <__bss_end__+0x1f7b20>
    1d0c:	390b3b0b 	stmdbcc	fp, {r0, r1, r3, r8, r9, fp, ip, sp}
    1d10:	0213490b 	andseq	r4, r3, #180224	; 0x2c000
    1d14:	1742b717 	smlaldne	fp, r2, r7, r7
    1d18:	01000000 	mrseq	r0, (UNDEF: 0)
    1d1c:	0e250111 	mcreq	1, 1, r0, cr5, cr1, {0}
    1d20:	0e030b13 	vmoveq.32	d3[0], r0
    1d24:	01110e1b 	tsteq	r1, fp, lsl lr
    1d28:	17100612 			; <UNDEFINED> instruction: 0x17100612
    1d2c:	24020000 	strcs	r0, [r2], #-0
    1d30:	3e0b0b00 	vmlacc.f64	d0, d11, d0
    1d34:	0008030b 	andeq	r0, r8, fp, lsl #6
    1d38:	00240300 	eoreq	r0, r4, r0, lsl #6
    1d3c:	0b3e0b0b 	bleq	f84970 <__bss_end__+0xf79b80>
    1d40:	00000e03 	andeq	r0, r0, r3, lsl #28
    1d44:	27011504 	strcs	r1, [r1, -r4, lsl #10]
    1d48:	01134919 	tsteq	r3, r9, lsl r9
    1d4c:	05000013 	streq	r0, [r0, #-19]	; 0xffffffed
    1d50:	13490005 	movtne	r0, #36869	; 0x9005
    1d54:	34060000 	strcc	r0, [r6], #-0
    1d58:	3a0e0300 	bcc	382960 <__bss_end__+0x377b70>
    1d5c:	390b3b0b 	stmdbcc	fp, {r0, r1, r3, r8, r9, fp, ip, sp}
    1d60:	3f13490b 	svccc	0x0013490b
    1d64:	00193c19 	andseq	r3, r9, r9, lsl ip
    1d68:	000f0700 	andeq	r0, pc, r0, lsl #14
    1d6c:	13490b0b 	movtne	r0, #39691	; 0x9b0b
    1d70:	26080000 	strcs	r0, [r8], -r0
    1d74:	00134900 	andseq	r4, r3, r0, lsl #18
    1d78:	002e0900 	eoreq	r0, lr, r0, lsl #18
    1d7c:	0e03193f 			; <UNDEFINED> instruction: 0x0e03193f
    1d80:	0b3b0b3a 	bleq	ec4a70 <__bss_end__+0xeb9c80>
    1d84:	19270b39 	stmdbne	r7!, {r0, r3, r4, r5, r8, r9, fp}
    1d88:	06120111 			; <UNDEFINED> instruction: 0x06120111
    1d8c:	42971840 	addsmi	r1, r7, #64, 16	; 0x400000
    1d90:	00000019 	andeq	r0, r0, r9, lsl r0

Disassembly of section .debug_loc:

00000000 <.debug_loc>:
       0:	01000001 	tsteq	r0, r1
       4:	00000001 	andeq	r0, r0, r1
       8:	00080000 	andeq	r0, r8, r0
       c:	00140000 	andseq	r0, r4, r0
      10:	00020000 	andeq	r0, r2, r0
      14:	00149f30 	andseq	r9, r4, r0, lsr pc
      18:	00340000 	eorseq	r0, r4, r0
      1c:	00010000 	andeq	r0, r1, r0
      20:	00003455 	andeq	r3, r0, r5, asr r4
      24:	00003c00 	andeq	r3, r0, r0, lsl #24
      28:	54000100 	strpl	r0, [r0], #-256	; 0xffffff00
      2c:	0000003c 	andeq	r0, r0, ip, lsr r0
      30:	000000b4 	strheq	r0, [r0], -r4
      34:	b4550001 	ldrblt	r0, [r5], #-1
      38:	c4000000 	strgt	r0, [r0], #-0
      3c:	01000000 	mrseq	r0, (UNDEF: 0)
      40:	00005000 	andeq	r5, r0, r0
      44:	00000000 	andeq	r0, r0, r0
      48:	00030000 	andeq	r0, r3, r0
      4c:	00080000 	andeq	r0, r8, r0
      50:	00140000 	andseq	r0, r4, r0
      54:	00020000 	andeq	r0, r2, r0
      58:	00149f30 	andseq	r9, r4, r0, lsr pc
      5c:	00b40000 	adcseq	r0, r4, r0
      60:	00010000 	andeq	r0, r1, r0
      64:	00000056 	andeq	r0, r0, r6, asr r0
	...
      70:	14000000 	strne	r0, [r0], #-0
      74:	3c000000 	stccc	0, cr0, [r0], {-0}
      78:	01000000 	mrseq	r0, (UNDEF: 0)
      7c:	00705400 	rsbseq	r5, r0, r0, lsl #8
      80:	007b0000 	rsbseq	r0, fp, r0
      84:	00010000 	andeq	r0, r1, r0
      88:	00007b50 	andeq	r7, r0, r0, asr fp
      8c:	0000a400 	andeq	sl, r0, r0, lsl #8
      90:	54000100 	strpl	r0, [r0], #-256	; 0xffffff00
	...
      9c:	00440001 	subeq	r0, r4, r1
      a0:	005c0000 	subseq	r0, ip, r0
      a4:	00020000 	andeq	r0, r2, r0
      a8:	00009f40 	andeq	r9, r0, r0, asr #30
      ac:	00000000 	andeq	r0, r0, r0
      b0:	00010000 	andeq	r0, r1, r0
      b4:	00000044 	andeq	r0, r0, r4, asr #32
      b8:	0000005c 	andeq	r0, r0, ip, asr r0
      bc:	5ff20006 	svcpl	0x00f20006
      c0:	00000003 	andeq	r0, r0, r3
	...
      cc:	00440001 	subeq	r0, r4, r1
      d0:	005c0000 	subseq	r0, ip, r0
      d4:	00060000 	andeq	r0, r6, r0
      d8:	00a17003 	adceq	r7, r1, r3
      dc:	00009f00 	andeq	r9, r0, r0, lsl #30
	...
      ec:	00000258 	andeq	r0, r0, r8, asr r2
      f0:	00000270 	andeq	r0, r0, r0, ror r2
      f4:	70500001 	subsvc	r0, r0, r1
      f8:	dc000002 	stcle	0, cr0, [r0], {2}
      fc:	01000002 	tsteq	r0, r2
     100:	02dc5600 	sbcseq	r5, ip, #0, 12
     104:	02e80000 	rsceq	r0, r8, #0, 0
     108:	00040000 	andeq	r0, r4, r0
     10c:	9f5001f3 	svcls	0x005001f3
	...
     11c:	02780000 	rsbseq	r0, r8, #0, 0
     120:	02830000 	addeq	r0, r3, #0, 0
     124:	00010000 	andeq	r0, r1, r0
     128:	00028350 	andeq	r8, r2, r0, asr r3
     12c:	0002dc00 	andeq	sp, r2, r0, lsl #24
     130:	54000100 	strpl	r0, [r0], #-256	; 0xffffff00
     134:	000002dc 	ldrdeq	r0, [r0], -ip
     138:	000002e8 	andeq	r0, r0, r8, ror #5
     13c:	c8030005 	stmdagt	r3, {r0, r2}
     140:	000000a9 	andeq	r0, r0, r9, lsr #1
	...
     14c:	6c000000 	stcvs	0, cr0, [r0], {-0}
     150:	7c000001 	stcvc	0, cr0, [r0], {1}
     154:	01000001 	tsteq	r0, r1
     158:	017c5000 	cmneq	ip, r0
     15c:	02580000 	subseq	r0, r8, #0, 0
     160:	00010000 	andeq	r0, r1, r0
     164:	00000054 	andeq	r0, r0, r4, asr r0
     168:	00000000 	andeq	r0, r0, r0
     16c:	02020100 	andeq	r0, r2, #0
     170:	00000000 	andeq	r0, r0, r0
     174:	80000000 	andhi	r0, r0, r0
     178:	80000001 	andhi	r0, r0, r1
     17c:	01000001 	tsteq	r0, r1
     180:	01805400 	orreq	r5, r0, r0, lsl #8
     184:	01bc0000 			; <UNDEFINED> instruction: 0x01bc0000
     188:	00030000 	andeq	r0, r3, r0
     18c:	bc9f5c74 	ldclt	12, cr5, [pc], {116}	; 0x74
     190:	f0000001 			; <UNDEFINED> instruction: 0xf0000001
     194:	01000001 	tsteq	r0, r1
     198:	01f05500 	mvnseq	r5, r0, lsl #10
     19c:	02140000 	andseq	r0, r4, #0, 0
     1a0:	00030000 	andeq	r0, r3, r0
     1a4:	149f5c74 	ldrne	r5, [pc], #3188	; 1ac <__code_start__-0x7e54>
     1a8:	58000002 	stmdapl	r0, {r1}
     1ac:	01000002 	tsteq	r0, r2
     1b0:	00005500 	andeq	r5, r0, r0, lsl #10
	...
     1c8:	00000020 	andeq	r0, r0, r0, lsr #32
     1cc:	00000038 	andeq	r0, r0, r8, lsr r0
     1d0:	38500001 	ldmdacc	r0, {r0}^
     1d4:	40000000 	andmi	r0, r0, r0
     1d8:	01000000 	mrseq	r0, (UNDEF: 0)
     1dc:	00405300 	subeq	r5, r0, r0, lsl #6
     1e0:	00680000 	rsbeq	r0, r8, r0
     1e4:	00040000 	andeq	r0, r4, r0
     1e8:	9f5001f3 	svcls	0x005001f3
     1ec:	00000068 	andeq	r0, r0, r8, rrx
     1f0:	00000080 	andeq	r0, r0, r0, lsl #1
     1f4:	80500001 	subshi	r0, r0, r1
     1f8:	88000000 	stmdahi	r0, {}	; <UNPREDICTABLE>
     1fc:	04000000 	streq	r0, [r0], #-0
     200:	5001f300 	andpl	pc, r1, r0, lsl #6
     204:	0000889f 	muleq	r0, pc, r8	; <UNPREDICTABLE>
     208:	00009400 	andeq	r9, r0, r0, lsl #8
     20c:	53000100 	movwpl	r0, #256	; 0x100
     210:	00000094 	muleq	r0, r4, r0
     214:	000000c4 	andeq	r0, r0, r4, asr #1
     218:	01f30004 	mvnseq	r0, r4
     21c:	00009f50 	andeq	r9, r0, r0, asr pc
	...
     230:	00200000 	eoreq	r0, r0, r0
     234:	00400000 	subeq	r0, r0, r0
     238:	00010000 	andeq	r0, r1, r0
     23c:	00004051 	andeq	r4, r0, r1, asr r0
     240:	00006800 	andeq	r6, r0, r0, lsl #16
     244:	54000100 	strpl	r0, [r0], #-256	; 0xffffff00
     248:	00000068 	andeq	r0, r0, r8, rrx
     24c:	0000007c 	andeq	r0, r0, ip, ror r0
     250:	7c510001 	mrrcvc	0, 0, r0, r1, cr1
     254:	88000000 	stmdahi	r0, {}	; <UNPREDICTABLE>
     258:	04000000 	streq	r0, [r0], #-0
     25c:	5101f300 	mrspl	pc, SP_irq	; <UNPREDICTABLE>
     260:	0000889f 	muleq	r0, pc, r8	; <UNPREDICTABLE>
     264:	00009400 	andeq	r9, r0, r0, lsl #8
     268:	51000100 	mrspl	r0, (UNDEF: 16)
     26c:	00000094 	muleq	r0, r4, r0
     270:	000000c4 	andeq	r0, r0, r4, asr #1
     274:	00540001 	subseq	r0, r4, r1
	...
     280:	00010000 	andeq	r0, r1, r0
     284:	38000000 	stmdacc	r0, {}	; <UNPREDICTABLE>
     288:	47000000 	strmi	r0, [r0, -r0]
     28c:	01000000 	mrseq	r0, (UNDEF: 0)
     290:	00475000 	subeq	r5, r7, r0
     294:	00600000 	rsbeq	r0, r0, r0
     298:	00010000 	andeq	r0, r1, r0
     29c:	00008855 	andeq	r8, r0, r5, asr r8
     2a0:	00009400 	andeq	r9, r0, r0, lsl #8
     2a4:	50000100 	andpl	r0, r0, r0, lsl #2
     2a8:	00000094 	muleq	r0, r4, r0
     2ac:	000000c4 	andeq	r0, r0, r4, asr #1
     2b0:	00550001 	subseq	r0, r5, r1
	...
     2bc:	48000001 	stmdami	r0, {r0}
     2c0:	60000000 	andvs	r0, r0, r0
     2c4:	01000000 	mrseq	r0, (UNDEF: 0)
     2c8:	00945000 	addseq	r5, r4, r0
     2cc:	00a80000 	adceq	r0, r8, r0
     2d0:	00010000 	andeq	r0, r1, r0
     2d4:	00000050 	andeq	r0, r0, r0, asr r0
	...
     2e0:	00011400 	andeq	r1, r1, r0, lsl #8
     2e4:	00011f00 	andeq	r1, r1, r0, lsl #30
     2e8:	50000100 	andpl	r0, r0, r0, lsl #2
     2ec:	0000011f 	andeq	r0, r0, pc, lsl r1
     2f0:	0000016c 	andeq	r0, r0, ip, ror #2
     2f4:	00550001 	subseq	r0, r5, r1
	...
     304:	24000000 	strcs	r0, [r0], #-0
     308:	37000001 	strcc	r0, [r0, -r1]
     30c:	01000001 	tsteq	r0, r1
     310:	01375000 	teqeq	r7, r0
     314:	014c0000 	mrseq	r0, (UNDEF: 76)
     318:	00010000 	andeq	r0, r1, r0
     31c:	00014c54 	andeq	r4, r1, r4, asr ip
     320:	00015000 	andeq	r5, r1, r0
     324:	50000100 	andpl	r0, r0, r0, lsl #2
     328:	00000150 	andeq	r0, r0, r0, asr r1
     32c:	0000016c 	andeq	r0, r0, ip, ror #2
     330:	00540001 	subseq	r0, r4, r1
	...
     33c:	e4000000 	str	r0, [r0], #-0
     340:	f3000000 	vhadd.u8	d0, d0, d0
     344:	01000000 	mrseq	r0, (UNDEF: 0)
     348:	00f35000 	rscseq	r5, r3, r0
     34c:	01140000 	tsteq	r4, r0
     350:	00010000 	andeq	r0, r1, r0
     354:	00000056 	andeq	r0, r0, r6, asr r0
	...
     360:	0000e400 	andeq	lr, r0, r0, lsl #8
     364:	0000f300 	andeq	pc, r0, r0, lsl #6
     368:	51000100 	mrspl	r0, (UNDEF: 16)
     36c:	000000f3 	strdeq	r0, [r0], -r3
     370:	00000114 	andeq	r0, r0, r4, lsl r1
     374:	00540001 	subseq	r0, r4, r1
	...
     380:	f8000000 			; <UNDEFINED> instruction: 0xf8000000
     384:	fc000000 	stc2	0, cr0, [r0], {-0}
     388:	01000000 	mrseq	r0, (UNDEF: 0)
     38c:	00fc5000 	rscseq	r5, ip, r0
     390:	01140000 	tsteq	r4, r0
     394:	00010000 	andeq	r0, r1, r0
     398:	00000055 	andeq	r0, r0, r5, asr r0
	...
     3a4:	0c000001 	stceq	0, cr0, [r0], {1}
     3a8:	01000001 	tsteq	r0, r1
     3ac:	00005000 	andeq	r5, r0, r0
	...
     3b8:	00cc0000 	sbceq	r0, ip, r0
     3bc:	00d70000 	sbcseq	r0, r7, r0
     3c0:	00010000 	andeq	r0, r1, r0
     3c4:	0000d750 	andeq	sp, r0, r0, asr r7
     3c8:	0000e400 	andeq	lr, r0, r0, lsl #8
     3cc:	54000100 	strpl	r0, [r0], #-256	; 0xffffff00
	...
     3d8:	00d80000 	sbcseq	r0, r8, r0
     3dc:	00dc0000 	sbcseq	r0, ip, r0
     3e0:	00010000 	andeq	r0, r1, r0
     3e4:	00000054 	andeq	r0, r0, r4, asr r0
	...
     3f0:	0000c400 	andeq	ip, r0, r0, lsl #8
     3f4:	0000c800 	andeq	ip, r0, r0, lsl #16
     3f8:	50000100 	andpl	r0, r0, r0, lsl #2
     3fc:	000000c8 	andeq	r0, r0, r8, asr #1
     400:	000000cc 	andeq	r0, r0, ip, asr #1
     404:	5c700003 	ldclpl	0, cr0, [r0], #-12
     408:	0000009f 	muleq	r0, pc, r0	; <UNPREDICTABLE>
	...
     414:	00001000 	andeq	r1, r0, r0
     418:	00001c00 	andeq	r1, r0, r0, lsl #24
     41c:	50000100 	andpl	r0, r0, r0, lsl #2
     420:	0000001c 	andeq	r0, r0, ip, lsl r0
     424:	00000020 	andeq	r0, r0, r0, lsr #32
     428:	01f30004 	mvnseq	r0, r4
     42c:	00009f50 	andeq	r9, r0, r0, asr pc
	...
     43c:	00080000 	andeq	r0, r8, r0
     440:	00780000 	rsbseq	r0, r8, r0
     444:	00010000 	andeq	r0, r1, r0
     448:	00007851 	andeq	r7, r0, r1, asr r8
     44c:	00008400 	andeq	r8, r0, r0, lsl #8
     450:	70000300 	andvc	r0, r0, r0, lsl #6
     454:	00849f78 	addeq	r9, r4, r8, ror pc
     458:	00a40000 	adceq	r0, r4, r0
     45c:	00010000 	andeq	r0, r1, r0
     460:	0000a451 	andeq	sl, r0, r1, asr r4
     464:	0000bc00 	andeq	fp, r0, r0, lsl #24
     468:	70000300 	andvc	r0, r0, r0, lsl #6
     46c:	00009f78 	andeq	r9, r0, r8, ror pc
	...
     478:	00100000 	andseq	r0, r0, r0
     47c:	00480000 	subeq	r0, r8, r0
     480:	00010000 	andeq	r0, r1, r0
     484:	00004c53 	andeq	r4, r0, r3, asr ip
     488:	0000bc00 	andeq	fp, r0, r0, lsl #24
     48c:	53000100 	movwpl	r0, #256	; 0x100
	...
     4a0:	00000100 	andeq	r0, r0, r0, lsl #2
     4a4:	00000124 	andeq	r0, r0, r4, lsr #2
     4a8:	24500001 	ldrbcs	r0, [r0], #-1
     4ac:	28000001 	stmdacs	r0, {r0}
     4b0:	04000001 	streq	r0, [r0], #-1
     4b4:	5001f300 	andpl	pc, r1, r0, lsl #6
     4b8:	0001289f 	muleq	r1, pc, r8	; <UNPREDICTABLE>
     4bc:	00014000 	andeq	r4, r1, r0
     4c0:	50000100 	andpl	r0, r0, r0, lsl #2
     4c4:	00000140 	andeq	r0, r0, r0, asr #2
     4c8:	000001ac 	andeq	r0, r0, ip, lsr #3
     4cc:	01f30004 	mvnseq	r0, r4
     4d0:	00009f50 	andeq	r9, r0, r0, asr pc
	...
     4e0:	00010100 	andeq	r0, r1, r0, lsl #2
     4e4:	00000000 	andeq	r0, r0, r0
     4e8:	00000124 	andeq	r0, r0, r4, lsr #2
     4ec:	00000128 	andeq	r0, r0, r8, lsr #2
     4f0:	40500001 	subsmi	r0, r0, r1
     4f4:	60000001 	andvs	r0, r0, r1
     4f8:	01000001 	tsteq	r0, r1
     4fc:	01605000 	cmneq	r0, r0
     500:	01640000 	cmneq	r4, r0
     504:	00030000 	andeq	r0, r3, r0
     508:	649f7870 	ldrvs	r7, [pc], #2160	; 510 <__code_start__-0x7af0>
     50c:	70000001 	andvc	r0, r0, r1
     510:	01000001 	tsteq	r0, r1
     514:	01705000 	cmneq	r0, r0
     518:	01780000 	cmneq	r8, r0
     51c:	00020000 	andeq	r0, r2, r0
     520:	01780070 	cmneq	r8, r0, ror r0
     524:	01980000 	orrseq	r0, r8, r0
     528:	00010000 	andeq	r0, r1, r0
     52c:	00019c50 	andeq	r9, r1, r0, asr ip
     530:	0001ac00 	andeq	sl, r1, r0, lsl #24
     534:	50000100 	andpl	r0, r0, r0, lsl #2
	...
     540:	00010100 	andeq	r0, r1, r0, lsl #2
     544:	00010000 	andeq	r0, r1, r0
     548:	01180000 	tsteq	r8, r0
     54c:	01280000 			; <UNDEFINED> instruction: 0x01280000
     550:	00010000 	andeq	r0, r1, r0
     554:	00012852 	andeq	r2, r1, r2, asr r8
     558:	00014000 	andeq	r4, r1, r0
     55c:	03000600 	movweq	r0, #1536	; 0x600
     560:	0000a9d8 	ldrdeq	sl, [r0], -r8
     564:	0001409f 	muleq	r1, pc, r0	; <UNPREDICTABLE>
     568:	00017000 	andeq	r7, r1, r0
     56c:	52000100 	andpl	r0, r0, #0
     570:	00000170 	andeq	r0, r0, r0, ror r1
     574:	00000178 	andeq	r0, r0, r8, ror r1
     578:	78500001 	ldmdavc	r0, {r0}^
     57c:	9b000001 	blls	588 <__code_start__-0x7a78>
     580:	01000001 	tsteq	r0, r1
     584:	00005200 	andeq	r5, r0, r0, lsl #4
	...
     590:	00000110 	andeq	r0, r0, r0, lsl r1
     594:	000001ac 	andeq	r0, r0, ip, lsr #3
     598:	00540001 	subseq	r0, r4, r1
	...
     5a4:	bc000000 	stclt	0, cr0, [r0], {-0}
     5a8:	cc000000 	stcgt	0, cr0, [r0], {-0}
     5ac:	01000000 	mrseq	r0, (UNDEF: 0)
     5b0:	00cc5000 	sbceq	r5, ip, r0
     5b4:	01000000 	mrseq	r0, (UNDEF: 0)
     5b8:	00010000 	andeq	r0, r1, r0
     5bc:	00000054 	andeq	r0, r0, r4, asr r0
	...
     5c8:	d4000000 	strle	r0, [r0], #-0
     5cc:	e4000000 	str	r0, [r0], #-0
     5d0:	01000000 	mrseq	r0, (UNDEF: 0)
     5d4:	00e45000 	rsceq	r5, r4, r0
     5d8:	00e70000 	rsceq	r0, r7, r0
     5dc:	00030000 	andeq	r0, r3, r0
     5e0:	f49f7870 			; <UNDEFINED> instruction: 0xf49f7870
     5e4:	f8000000 			; <UNDEFINED> instruction: 0xf8000000
     5e8:	01000000 	mrseq	r0, (UNDEF: 0)
     5ec:	00005000 	andeq	r5, r0, r0
     5f0:	00000000 	andeq	r0, r0, r0
     5f4:	00010000 	andeq	r0, r1, r0
     5f8:	00dc0000 	sbcseq	r0, ip, r0
     5fc:	00e40000 	rsceq	r0, r4, r0
     600:	00010000 	andeq	r0, r1, r0
     604:	0000e450 	andeq	lr, r0, r0, asr r4
     608:	0000e700 	andeq	lr, r0, r0, lsl #14
     60c:	70000300 	andvc	r0, r0, r0, lsl #6
     610:	00009f78 	andeq	r9, r0, r8, ror pc
	...
     61c:	00000594 	muleq	r0, r4, r5
     620:	00000598 	muleq	r0, r8, r5
     624:	00500001 	subseq	r0, r0, r1
     628:	00000000 	andeq	r0, r0, r0
     62c:	01000000 	mrseq	r0, (UNDEF: 0)
     630:	6c000000 	stcvs	0, cr0, [r0], {-0}
     634:	98000003 	stmdals	r0, {r0, r1}
     638:	02000003 	andeq	r0, r0, #3, 0
     63c:	989f3000 	ldmls	pc, {ip, sp}	; <UNPREDICTABLE>
     640:	24000003 	strcs	r0, [r0], #-3
     644:	01000004 	tsteq	r0, r4
     648:	00005500 	andeq	r5, r0, r0, lsl #10
     64c:	00000000 	andeq	r0, r0, r0
     650:	00010000 	andeq	r0, r1, r0
     654:	036c0000 	cmneq	ip, #0, 0
     658:	03980000 	orrseq	r0, r8, #0, 0
     65c:	00020000 	andeq	r0, r2, r0
     660:	03989f30 	orrseq	r9, r8, #48, 30	; 0xc0
     664:	04240000 	strteq	r0, [r4], #-0
     668:	00010000 	andeq	r0, r1, r0
     66c:	00000058 	andeq	r0, r0, r8, asr r0
     670:	00000000 	andeq	r0, r0, r0
     674:	00000100 	andeq	r0, r0, r0, lsl #2
     678:	6c000000 	stcvs	0, cr0, [r0], {-0}
     67c:	98000003 	stmdals	r0, {r0, r1}
     680:	02000003 	andeq	r0, r0, #3, 0
     684:	989f3000 	ldmls	pc, {ip, sp}	; <UNPREDICTABLE>
     688:	24000003 	strcs	r0, [r0], #-3
     68c:	01000004 	tsteq	r0, r4
     690:	04245700 	strteq	r5, [r4], #-1792	; 0xfffff900
     694:	04400000 	strbeq	r0, [r0], #-0
     698:	00010000 	andeq	r0, r1, r0
     69c:	00000050 	andeq	r0, r0, r0, asr r0
	...
     6ac:	00038800 	andeq	r8, r3, r0, lsl #16
     6b0:	0003cc00 	andeq	ip, r3, r0, lsl #24
     6b4:	50000100 	andpl	r0, r0, r0, lsl #2
     6b8:	000003cc 	andeq	r0, r0, ip, asr #7
     6bc:	000003e8 	andeq	r0, r0, r8, ror #7
     6c0:	e8540001 	ldmda	r4, {r0}^
     6c4:	14000003 	strne	r0, [r0], #-3
     6c8:	01000004 	tsteq	r0, r4
     6cc:	04145000 	ldreq	r5, [r4], #-0
     6d0:	04240000 	strteq	r0, [r4], #-0
     6d4:	00010000 	andeq	r0, r1, r0
     6d8:	00000054 	andeq	r0, r0, r4, asr r0
     6dc:	00000000 	andeq	r0, r0, r0
     6e0:	a8000000 	stmdage	r0, {}	; <UNPREDICTABLE>
     6e4:	c0000003 	andgt	r0, r0, r3
     6e8:	04000003 	streq	r0, [r0], #-3
     6ec:	01010a00 	tsteq	r1, r0, lsl #20
     6f0:	0000009f 	muleq	r0, pc, r0	; <UNPREDICTABLE>
     6f4:	00000000 	andeq	r0, r0, r0
     6f8:	a8000000 	stmdage	r0, {}	; <UNPREDICTABLE>
     6fc:	c0000003 	andgt	r0, r0, r3
     700:	06000003 	streq	r0, [r0], -r3
     704:	1a13f200 	bne	4fcf0c <__bss_end__+0x4f211c>
	...
     714:	0003a800 	andeq	sl, r3, r0, lsl #16
     718:	0003c000 	andeq	ip, r3, r0
     71c:	03000600 	movweq	r0, #1536	; 0x600
     720:	0000a2dc 	ldrdeq	sl, [r0], -ip
     724:	0000009f 	muleq	r0, pc, r0	; <UNPREDICTABLE>
	...
     730:	44000000 	strmi	r0, [r0], #-0
     734:	54000005 	strpl	r0, [r0], #-5
     738:	01000005 	tsteq	r0, r5
     73c:	05545000 	ldrbeq	r5, [r4, #-0]
     740:	05570000 	ldrbeq	r0, [r7, #-0]
     744:	00010000 	andeq	r0, r1, r0
     748:	00055751 	andeq	r5, r5, r1, asr r7
     74c:	00058800 	andeq	r8, r5, r0, lsl #16
     750:	54000100 	strpl	r0, [r0], #-256	; 0xffffff00
	...
     760:	000004e4 	andeq	r0, r0, r4, ror #9
     764:	000004eb 	andeq	r0, r0, fp, ror #9
     768:	eb500001 	bl	1400774 <__bss_end__+0x13f5984>
     76c:	f0000004 			; <UNDEFINED> instruction: 0xf0000004
     770:	04000004 	streq	r0, [r0], #-4
     774:	5001f300 	andpl	pc, r1, r0, lsl #6
     778:	0000009f 	muleq	r0, pc, r0	; <UNPREDICTABLE>
	...
     784:	00027000 	andeq	r7, r2, r0
     788:	00027c00 	andeq	r7, r2, r0, lsl #24
     78c:	50000100 	andpl	r0, r0, r0, lsl #2
     790:	0000027c 	andeq	r0, r0, ip, ror r2
     794:	00000364 	andeq	r0, r0, r4, ror #6
     798:	00580001 	subseq	r0, r8, r1
     79c:	00000000 	andeq	r0, r0, r0
     7a0:	01000000 	mrseq	r0, (UNDEF: 0)
     7a4:	78000000 	stmdavc	r0, {}	; <UNPREDICTABLE>
     7a8:	a4000002 	strge	r0, [r0], #-2
     7ac:	02000002 	andeq	r0, r0, #2, 0
     7b0:	a49f3000 	ldrge	r3, [pc], #0	; 7b8 <__code_start__-0x7848>
     7b4:	64000002 	strvs	r0, [r0], #-2
     7b8:	01000003 	tsteq	r0, r3
     7bc:	00005500 	andeq	r5, r0, r0, lsl #10
     7c0:	00000000 	andeq	r0, r0, r0
     7c4:	00010000 	andeq	r0, r1, r0
     7c8:	00000000 	andeq	r0, r0, r0
     7cc:	00000278 	andeq	r0, r0, r8, ror r2
     7d0:	000002a4 	andeq	r0, r0, r4, lsr #5
     7d4:	9f300002 	svcls	0x00300002
     7d8:	000002a4 	andeq	r0, r0, r4, lsr #5
     7dc:	00000328 	andeq	r0, r0, r8, lsr #6
     7e0:	30560001 	subscc	r0, r6, r1
     7e4:	64000003 	strvs	r0, [r0], #-3
     7e8:	01000003 	tsteq	r0, r3
     7ec:	00005600 	andeq	r5, r0, r0, lsl #12
     7f0:	00000000 	andeq	r0, r0, r0
     7f4:	00010000 	andeq	r0, r1, r0
     7f8:	02780000 	rsbseq	r0, r8, #0, 0
     7fc:	02a40000 	adceq	r0, r4, #0, 0
     800:	00020000 	andeq	r0, r2, r0
     804:	02a49f30 	adceq	r9, r4, #48, 30	; 0xc0
     808:	03640000 	cmneq	r4, #0, 0
     80c:	00010000 	andeq	r0, r1, r0
     810:	00000057 	andeq	r0, r0, r7, asr r0
	...
     824:	94000000 	strls	r0, [r0], #-0
     828:	b4000002 	strlt	r0, [r0], #-2
     82c:	01000002 	tsteq	r0, r2
     830:	02b45000 	adcseq	r5, r4, #0, 0
     834:	02c40000 	sbceq	r0, r4, #0, 0
     838:	00010000 	andeq	r0, r1, r0
     83c:	0002c454 	andeq	ip, r2, r4, asr r4
     840:	0002f400 	andeq	pc, r2, r0, lsl #8
     844:	50000100 	andpl	r0, r0, r0, lsl #2
     848:	000002f4 	strdeq	r0, [r0], -r4
     84c:	000002f7 	strdeq	r0, [r0], -r7
     850:	f7520001 			; <UNDEFINED> instruction: 0xf7520001
     854:	fc000002 	stc2	0, cr0, [r0], {2}
     858:	01000002 	tsteq	r0, r2
     85c:	02fc5400 	rscseq	r5, ip, #0, 8
     860:	03040000 	movweq	r0, #16384	; 0x4000
     864:	00010000 	andeq	r0, r1, r0
     868:	00030450 	andeq	r0, r3, r0, asr r4
     86c:	00036400 	andeq	r6, r3, r0, lsl #8
     870:	54000100 	strpl	r0, [r0], #-256	; 0xffffff00
	...
     880:	000001d8 	ldrdeq	r0, [r0], -r8
     884:	000001f3 	strdeq	r0, [r0], -r3
     888:	f4500001 			; <UNDEFINED> instruction: 0xf4500001
     88c:	fc000001 	stc2	0, cr0, [r0], {1}
     890:	01000001 	tsteq	r0, r1
     894:	00005000 	andeq	r5, r0, r0
	...
     8ac:	00000064 	andeq	r0, r0, r4, rrx
     8b0:	000000a4 	andeq	r0, r0, r4, lsr #1
     8b4:	a4500001 	ldrbge	r0, [r0], #-1
     8b8:	ac000000 	stcge	0, cr0, [r0], {-0}
     8bc:	01000000 	mrseq	r0, (UNDEF: 0)
     8c0:	00ac5400 	adceq	r5, ip, r0, lsl #8
     8c4:	00c40000 	sbceq	r0, r4, r0
     8c8:	00010000 	andeq	r0, r1, r0
     8cc:	0000c450 	andeq	ip, r0, r0, asr r4
     8d0:	0000cc00 	andeq	ip, r0, r0, lsl #24
     8d4:	f3000400 	vshl.u8	d0, d0, d0
     8d8:	cc9f5001 	ldcgt	0, cr5, [pc], {1}
     8dc:	e4000000 	str	r0, [r0], #-0
     8e0:	01000000 	mrseq	r0, (UNDEF: 0)
     8e4:	00e45000 	rsceq	r5, r4, r0
     8e8:	00ec0000 	rsceq	r0, ip, r0
     8ec:	00010000 	andeq	r0, r1, r0
     8f0:	0000ec54 	andeq	lr, r0, r4, asr ip
     8f4:	0001cc00 	andeq	ip, r1, r0, lsl #24
     8f8:	f3000400 	vshl.u8	d0, d0, d0
     8fc:	009f5001 	addseq	r5, pc, r1
	...
     914:	00006400 	andeq	r6, r0, r0, lsl #8
     918:	0000a000 	andeq	sl, r0, r0
     91c:	51000100 	mrspl	r0, (UNDEF: 16)
     920:	000000a0 	andeq	r0, r0, r0, lsr #1
     924:	000000ac 	andeq	r0, r0, ip, lsr #1
     928:	ac560001 	mrrcge	0, 0, r0, r6, cr1
     92c:	c0000000 	andgt	r0, r0, r0
     930:	01000000 	mrseq	r0, (UNDEF: 0)
     934:	00c05100 	sbceq	r5, r0, r0, lsl #2
     938:	00cc0000 	sbceq	r0, ip, r0
     93c:	00040000 	andeq	r0, r4, r0
     940:	9f5101f3 	svcls	0x005101f3
     944:	000000cc 	andeq	r0, r0, ip, asr #1
     948:	000000e0 	andeq	r0, r0, r0, ror #1
     94c:	e0510001 	subs	r0, r1, r1
     950:	a8000000 	stmdage	r0, {}	; <UNPREDICTABLE>
     954:	01000001 	tsteq	r0, r1
     958:	01a85600 			; <UNDEFINED> instruction: 0x01a85600
     95c:	01cc0000 	biceq	r0, ip, r0
     960:	00040000 	andeq	r0, r4, r0
     964:	9f5101f3 	svcls	0x005101f3
	...
     970:	00ec0000 	rsceq	r0, ip, r0
     974:	01a80000 			; <UNDEFINED> instruction: 0x01a80000
     978:	00010000 	andeq	r0, r1, r0
     97c:	00000054 	andeq	r0, r0, r4, asr r0
	...
     988:	ec000000 	stc	0, cr0, [r0], {-0}
     98c:	0c000000 	stceq	0, cr0, [r0], {-0}
     990:	01000001 	tsteq	r0, r1
     994:	011c5500 	tsteq	ip, r0, lsl #10
     998:	01330000 	teqeq	r3, r0
     99c:	00010000 	andeq	r0, r1, r0
     9a0:	00013350 	andeq	r3, r1, r0, asr r3
     9a4:	0001a000 	andeq	sl, r1, r0
     9a8:	55000100 	strpl	r0, [r0, #-256]	; 0xffffff00
	...
     9b8:	000000ec 	andeq	r0, r0, ip, ror #1
     9bc:	00000108 	andeq	r0, r0, r8, lsl #2
     9c0:	28570001 	ldmdacs	r7, {r0}^
     9c4:	a0000001 	andge	r0, r0, r1
     9c8:	01000001 	tsteq	r0, r1
     9cc:	00005700 	andeq	r5, r0, r0, lsl #14
	...
     9d8:	00ec0000 	rsceq	r0, ip, r0
     9dc:	01080000 	mrseq	r0, (UNDEF: 8)
     9e0:	00010000 	andeq	r0, r1, r0
     9e4:	00012c58 	andeq	r2, r1, r8, asr ip
     9e8:	0001a000 	andeq	sl, r1, r0
     9ec:	58000100 	stmdapl	r0, {r8}
	...
     9fc:	0000003c 	andeq	r0, r0, ip, lsr r0
     a00:	00000047 	andeq	r0, r0, r7, asr #32
     a04:	47500001 	ldrbmi	r0, [r0, -r1]
     a08:	64000000 	strvs	r0, [r0], #-0
     a0c:	01000000 	mrseq	r0, (UNDEF: 0)
     a10:	00005400 	andeq	r5, r0, r0, lsl #8
     a14:	00000000 	andeq	r0, r0, r0
     a18:	00010000 	andeq	r0, r1, r0
     a1c:	00440000 	subeq	r0, r4, r0
     a20:	00470000 	subeq	r0, r7, r0
     a24:	00010000 	andeq	r0, r1, r0
     a28:	00004750 	andeq	r4, r0, r0, asr r7
     a2c:	00006400 	andeq	r6, r0, r0, lsl #8
     a30:	54000100 	strpl	r0, [r0], #-256	; 0xffffff00
	...
     a4c:	00000024 	andeq	r0, r0, r4, lsr #32
     a50:	24500001 	ldrbcs	r0, [r0], #-1
     a54:	28000000 	stmdacs	r0, {}	; <UNPREDICTABLE>
     a58:	04000000 	streq	r0, [r0], #-0
     a5c:	5001f300 	andpl	pc, r1, r0, lsl #6
     a60:	0000289f 	muleq	r0, pc, r8	; <UNPREDICTABLE>
     a64:	00002c00 	andeq	r2, r0, r0, lsl #24
     a68:	50000100 	andpl	r0, r0, r0, lsl #2
     a6c:	0000002c 	andeq	r0, r0, ip, lsr #32
     a70:	00000030 	andeq	r0, r0, r0, lsr r0
     a74:	01f30004 	mvnseq	r0, r4
     a78:	00309f50 	eorseq	r9, r0, r0, asr pc
     a7c:	00340000 	eorseq	r0, r4, r0
     a80:	00010000 	andeq	r0, r1, r0
     a84:	00003450 	andeq	r3, r0, r0, asr r4
     a88:	00003c00 	andeq	r3, r0, r0, lsl #24
     a8c:	f3000400 	vshl.u8	d0, d0, d0
     a90:	009f5001 	addseq	r5, pc, r1
	...
     aa4:	40000000 	andmi	r0, r0, r0
     aa8:	68000004 	stmdavs	r0, {r2}
     aac:	01000004 	tsteq	r0, r4
     ab0:	04685000 	strbteq	r5, [r8], #-0
     ab4:	04940000 	ldreq	r0, [r4], #0
     ab8:	00010000 	andeq	r0, r1, r0
     abc:	00049454 	andeq	r9, r4, r4, asr r4
     ac0:	0004ac00 	andeq	sl, r4, r0, lsl #24
     ac4:	50000100 	andpl	r0, r0, r0, lsl #2
     ac8:	000004ac 	andeq	r0, r0, ip, lsr #9
     acc:	000004b4 			; <UNDEFINED> instruction: 0x000004b4
     ad0:	b4540001 	ldrblt	r0, [r4], #-1
     ad4:	c4000004 	strgt	r0, [r0], #-4
     ad8:	01000004 	tsteq	r0, r4
     adc:	04c45000 	strbeq	r5, [r4], #0
     ae0:	04e40000 	strbteq	r0, [r4], #0
     ae4:	00010000 	andeq	r0, r1, r0
     ae8:	00000054 	andeq	r0, r0, r4, asr r0
     aec:	00000000 	andeq	r0, r0, r0
     af0:	60000200 	andvs	r0, r0, r0, lsl #4
     af4:	94000004 	strls	r0, [r0], #-4
     af8:	04000004 	streq	r0, [r0], #-4
     afc:	24404000 	strbcs	r4, [r0], #-0
     b00:	0000009f 	muleq	r0, pc, r0	; <UNPREDICTABLE>
	...
     b10:	00001c00 	andeq	r1, r0, r0, lsl #24
     b14:	51000100 	mrspl	r0, (UNDEF: 16)
     b18:	0000001c 	andeq	r0, r0, ip, lsl r0
     b1c:	00000078 	andeq	r0, r0, r8, ror r0
     b20:	01f30004 	mvnseq	r0, r4
     b24:	00009f51 	andeq	r9, r0, r1, asr pc
	...
     b34:	00580000 	subseq	r0, r8, r0
     b38:	00010000 	andeq	r0, r1, r0
     b3c:	00005852 	andeq	r5, r0, r2, asr r8
     b40:	00007800 	andeq	r7, r0, r0, lsl #16
     b44:	f3000400 	vshl.u8	d0, d0, d0
     b48:	009f5201 	addseq	r5, pc, r1, lsl #4
     b4c:	00000000 	andeq	r0, r0, r0
     b50:	02000000 	andeq	r0, r0, #0, 0
     b54:	01010000 	mrseq	r0, (UNDEF: 1)
     b58:	01010000 	mrseq	r0, (UNDEF: 1)
     b5c:	01010000 	mrseq	r0, (UNDEF: 1)
     b60:	00000000 	andeq	r0, r0, r0
     b64:	00003800 	andeq	r3, r0, r0, lsl #16
     b68:	50000100 	andpl	r0, r0, r0, lsl #2
     b6c:	00000054 	andeq	r0, r0, r4, asr r0
     b70:	00000054 	andeq	r0, r0, r4, asr r0
     b74:	54530001 	ldrbpl	r0, [r3], #-1
     b78:	5c000000 	stcpl	0, cr0, [r0], {-0}
     b7c:	03000000 	movweq	r0, #0
     b80:	9f017300 	svcls	0x00017300
     b84:	0000005c 	andeq	r0, r0, ip, asr r0
     b88:	00000064 	andeq	r0, r0, r4, rrx
     b8c:	64520001 	ldrbvs	r0, [r2], #-1
     b90:	68000000 	stmdavs	r0, {}	; <UNPREDICTABLE>
     b94:	03000000 	movweq	r0, #0
     b98:	9f027300 	svcls	0x00027300
     b9c:	00000068 	andeq	r0, r0, r8, rrx
     ba0:	00000074 	andeq	r0, r0, r4, ror r0
     ba4:	74520001 	ldrbvc	r0, [r2], #-1
     ba8:	78000000 	stmdavc	r0, {}	; <UNPREDICTABLE>
     bac:	03000000 	movweq	r0, #0
     bb0:	9f017200 	svcls	0x00017200
	...
     bbc:	00080000 	andeq	r0, r8, r0
     bc0:	00780000 	rsbseq	r0, r8, r0
     bc4:	00010000 	andeq	r0, r1, r0
     bc8:	00000054 	andeq	r0, r0, r4, asr r0
	...
     bd4:	2c000000 	stccs	0, cr0, [r0], {-0}
     bd8:	34000000 	strcc	r0, [r0], #-0
     bdc:	01000000 	mrseq	r0, (UNDEF: 0)
     be0:	00345000 	eorseq	r5, r4, r0
     be4:	00480000 	subeq	r0, r8, r0
     be8:	00010000 	andeq	r0, r1, r0
     bec:	00004854 	andeq	r4, r0, r4, asr r8
     bf0:	00005800 	andeq	r5, r0, r0, lsl #16
     bf4:	50000100 	andpl	r0, r0, r0, lsl #2
	...
     c00:	01000000 	mrseq	r0, (UNDEF: 0)
     c04:	00000001 	andeq	r0, r0, r1
     c08:	00000000 	andeq	r0, r0, r0
     c0c:	0000000c 	andeq	r0, r0, ip
     c10:	0c500001 	mrrceq	0, 0, r0, r0, cr1	; <UNPREDICTABLE>
     c14:	20000000 	andcs	r0, r0, r0
     c18:	01000000 	mrseq	r0, (UNDEF: 0)
     c1c:	00205400 	eoreq	r5, r0, r0, lsl #8
     c20:	00240000 	eoreq	r0, r4, r0
     c24:	00030000 	andeq	r0, r3, r0
     c28:	249f0174 	ldrcs	r0, [pc], #372	; c30 <__code_start__-0x73d0>
     c2c:	38000000 	stmdacc	r0, {}	; <UNPREDICTABLE>
     c30:	01000000 	mrseq	r0, (UNDEF: 0)
     c34:	00005400 	andeq	r5, r0, r0, lsl #8
	...
     c48:	00000388 	andeq	r0, r0, r8, lsl #7
     c4c:	00000394 	muleq	r0, r4, r3
     c50:	94500001 	ldrbls	r0, [r0], #-1
     c54:	d0000003 	andle	r0, r0, r3
     c58:	01000003 	tsteq	r0, r3
     c5c:	03d05b00 	bicseq	r5, r0, #0, 22
     c60:	09200000 	stmdbeq	r0!, {}	; <UNPREDICTABLE>
     c64:	00040000 	andeq	r0, r4, r0
     c68:	9f5001f3 	svcls	0x005001f3
     c6c:	00000920 	andeq	r0, r0, r0, lsr #18
     c70:	00000928 	andeq	r0, r0, r8, lsr #18
     c74:	285b0001 	ldmdacs	fp, {r0}^
     c78:	b4000009 	strlt	r0, [r0], #-9
     c7c:	04000009 	streq	r0, [r0], #-9
     c80:	5001f300 	andpl	pc, r1, r0, lsl #6
     c84:	0000009f 	muleq	r0, pc, r0	; <UNPREDICTABLE>
	...
     c94:	00038800 	andeq	r8, r3, r0, lsl #16
     c98:	0003d000 	andeq	sp, r3, r0
     c9c:	51000100 	mrspl	r0, (UNDEF: 16)
     ca0:	000003d0 	ldrdeq	r0, [r0], -r0	; <UNPREDICTABLE>
     ca4:	00000920 	andeq	r0, r0, r0, lsr #18
     ca8:	01f30004 	mvnseq	r0, r4
     cac:	09209f51 	stmdbeq	r0!, {r0, r4, r6, r8, r9, sl, fp, ip, pc}
     cb0:	09280000 	stmdbeq	r8!, {}	; <UNPREDICTABLE>
     cb4:	00010000 	andeq	r0, r1, r0
     cb8:	00092851 	andeq	r2, r9, r1, asr r8
     cbc:	0009b400 	andeq	fp, r9, r0, lsl #8
     cc0:	f3000400 	vshl.u8	d0, d0, d0
     cc4:	009f5101 	addseq	r5, pc, r1, lsl #2
	...
     cd4:	00010000 	andeq	r0, r1, r0
     cd8:	00000100 	andeq	r0, r0, r0, lsl #2
	...
     ce4:	88000000 	stmdahi	r0, {}	; <UNPREDICTABLE>
     ce8:	d0000003 	andle	r0, r0, r3
     cec:	01000003 	tsteq	r0, r3
     cf0:	03d05200 	bicseq	r5, r0, #0, 4
     cf4:	04000000 	streq	r0, [r0], #-0
     cf8:	00010000 	andeq	r0, r1, r0
     cfc:	00041456 	andeq	r1, r4, r6, asr r4
     d00:	00042400 	andeq	r2, r4, r0, lsl #8
     d04:	56000100 	strpl	r0, [r0], -r0, lsl #2
     d08:	00000424 	andeq	r0, r0, r4, lsr #8
     d0c:	00000428 	andeq	r0, r0, r8, lsr #8
     d10:	7f760003 	svcvc	0x00760003
     d14:	0004a89f 	muleq	r4, pc, r8	; <UNPREDICTABLE>
     d18:	0004ac00 	andeq	sl, r4, r0, lsl #24
     d1c:	56000100 	strpl	r0, [r0], -r0, lsl #2
     d20:	000004e0 	andeq	r0, r0, r0, ror #9
     d24:	00000504 	andeq	r0, r0, r4, lsl #10
     d28:	7c560001 	mrrcvc	0, 0, r0, r6, cr1
     d2c:	88000005 	stmdahi	r0, {r0, r2}
     d30:	01000005 	tsteq	r0, r5
     d34:	05885300 	streq	r5, [r8, #768]	; 0x300
     d38:	05d00000 	ldrbeq	r0, [r0]
     d3c:	00030000 	andeq	r0, r3, r0
     d40:	007dcc91 			; <UNDEFINED> instruction: 0x007dcc91
     d44:	0f000008 	svceq	0x00000008
     d48:	01000008 	tsteq	r0, r8
     d4c:	080f5300 	stmdaeq	pc, {r8, r9, ip, lr}	; <UNPREDICTABLE>
     d50:	08880000 	stmeq	r8, {}	; <UNPREDICTABLE>
     d54:	00030000 	andeq	r0, r3, r0
     d58:	207dcc91 			; <UNDEFINED> instruction: 0x207dcc91
     d5c:	28000009 	stmdacs	r0, {r0, r3}
     d60:	01000009 	tsteq	r0, r9
     d64:	09485200 	stmdbeq	r8, {r9, ip, lr}^
     d68:	09640000 	stmdbeq	r4!, {}^	; <UNPREDICTABLE>
     d6c:	00030000 	andeq	r0, r3, r0
     d70:	007dcc91 			; <UNDEFINED> instruction: 0x007dcc91
	...
     d84:	00000101 	andeq	r0, r0, r1, lsl #2
     d88:	00000101 	andeq	r0, r0, r1, lsl #2
     d8c:	02020000 	andeq	r0, r2, #0, 0
     d90:	02020000 	andeq	r0, r2, #0, 0
     d94:	01010000 	mrseq	r0, (UNDEF: 1)
     d98:	02020000 	andeq	r0, r2, #0, 0
     d9c:	01010000 	mrseq	r0, (UNDEF: 1)
	...
     da8:	00038800 	andeq	r8, r3, r0, lsl #16
     dac:	0003ac00 	andeq	sl, r3, r0, lsl #24
     db0:	53000100 	movwpl	r0, #256	; 0x100
     db4:	000003ac 	andeq	r0, r0, ip, lsr #7
     db8:	000003c0 	andeq	r0, r0, r0, asr #7
     dbc:	93530003 	cmpls	r3, #3, 0
     dc0:	0003d004 	andeq	sp, r3, r4
     dc4:	0003e800 	andeq	lr, r3, r0, lsl #16
     dc8:	58000300 	stmdapl	r0, {r8, r9}
     dcc:	03e80493 	mvneq	r0, #-1828716544	; 0x93000000
     dd0:	04ac0000 	strteq	r0, [ip], #0
     dd4:	00030000 	andeq	r0, r3, r0
     dd8:	c0049358 	andgt	r9, r4, r8, asr r3
     ddc:	c0000004 	andgt	r0, r0, r4
     de0:	03000004 	movweq	r0, #4
     de4:	04935800 	ldreq	r5, [r3], #2048	; 0x800
     de8:	000004c0 	andeq	r0, r0, r0, asr #9
     dec:	000004cc 	andeq	r0, r0, ip, asr #9
     df0:	04780005 	ldrbteq	r0, [r8], #-5
     df4:	cc04939f 	stcgt	3, cr9, [r4], {159}	; 0x9f
     df8:	e0000004 	and	r0, r0, r4
     dfc:	03000004 	movweq	r0, #4
     e00:	04935800 	ldreq	r5, [r3], #2048	; 0x800
     e04:	000004e0 	andeq	r0, r0, r0, ror #9
     e08:	00000538 	andeq	r0, r0, r8, lsr r5
     e0c:	93580003 	cmpls	r8, #3, 0
     e10:	00053804 	andeq	r3, r5, r4, lsl #16
     e14:	00053c00 	andeq	r3, r5, r0, lsl #24
     e18:	78000500 	stmdavc	r0, {r8, sl}
     e1c:	04939f79 	ldreq	r9, [r3], #3961	; 0xf79
     e20:	000005d0 	ldrdeq	r0, [r0], -r0	; <UNPREDICTABLE>
     e24:	000005d0 	ldrdeq	r0, [r0], -r0	; <UNPREDICTABLE>
     e28:	93580003 	cmpls	r8, #3, 0
     e2c:	0005d004 	andeq	sp, r5, r4
     e30:	0005d400 	andeq	sp, r5, r0, lsl #8
     e34:	78000500 	stmdavc	r0, {r8, sl}
     e38:	04939f04 	ldreq	r9, [r3], #3844	; 0xf04
     e3c:	000005f4 	strdeq	r0, [r0], -r4
     e40:	000005f4 	strdeq	r0, [r0], -r4
     e44:	93580003 	cmpls	r8, #3, 0
     e48:	0005f404 	andeq	pc, r5, r4, lsl #8
     e4c:	0005fc00 	andeq	pc, r5, r0, lsl #24
     e50:	78000500 	stmdavc	r0, {r8, sl}
     e54:	04939f04 	ldreq	r9, [r3], #3844	; 0xf04
     e58:	000005fc 	strdeq	r0, [r0], -ip
     e5c:	000005fc 	strdeq	r0, [r0], -ip
     e60:	93580003 	cmpls	r8, #3, 0
     e64:	0005fc04 	andeq	pc, r5, r4, lsl #24
     e68:	00060000 	andeq	r0, r6, r0
     e6c:	78000500 	stmdavc	r0, {r8, sl}
     e70:	04939f04 	ldreq	r9, [r3], #3844	; 0xf04
     e74:	00000600 	andeq	r0, r0, r0, lsl #12
     e78:	00000700 	andeq	r0, r0, r0, lsl #14
     e7c:	93580003 	cmpls	r8, #3, 0
     e80:	00070004 	andeq	r0, r7, r4
     e84:	00070c00 	andeq	r0, r7, r0, lsl #24
     e88:	78000500 	stmdavc	r0, {r8, sl}
     e8c:	04939f04 	ldreq	r9, [r3], #3844	; 0xf04
     e90:	0000070c 	andeq	r0, r0, ip, lsl #14
     e94:	000007f8 	strdeq	r0, [r0], -r8
     e98:	93580003 	cmpls	r8, #3, 0
     e9c:	0007f804 	andeq	pc, r7, r4, lsl #16
     ea0:	0007fc00 	andeq	pc, r7, r0, lsl #24
     ea4:	78000500 	stmdavc	r0, {r8, sl}
     ea8:	04939f04 	ldreq	r9, [r3], #3844	; 0xf04
     eac:	000007fc 	strdeq	r0, [r0], -ip
     eb0:	00000800 	andeq	r0, r0, r0, lsl #16
     eb4:	93580003 	cmpls	r8, #3, 0
     eb8:	00088804 	andeq	r8, r8, r4, lsl #16
     ebc:	00092000 	andeq	r2, r9, r0
     ec0:	58000300 	stmdapl	r0, {r8, r9}
     ec4:	09200493 	stmdbeq	r0!, {r0, r1, r4, r7, sl}
     ec8:	09280000 	stmdbeq	r8!, {}	; <UNPREDICTABLE>
     ecc:	00010000 	andeq	r0, r1, r0
     ed0:	00096453 	andeq	r6, r9, r3, asr r4
     ed4:	0009b400 	andeq	fp, r9, r0, lsl #8
     ed8:	58000300 	stmdapl	r0, {r8, r9}
     edc:	00000493 	muleq	r0, r3, r4
     ee0:	00000000 	andeq	r0, r0, r0
     ee4:	00010000 	andeq	r0, r1, r0
     ee8:	00000000 	andeq	r0, r0, r0
     eec:	02000000 	andeq	r0, r0, #0, 0
     ef0:	00000002 	andeq	r0, r0, r2
     ef4:	00010101 	andeq	r0, r1, r1, lsl #2
     ef8:	00000000 	andeq	r0, r0, r0
     efc:	000003ac 	andeq	r0, r0, ip, lsr #7
     f00:	000003d0 	ldrdeq	r0, [r0], -r0	; <UNPREDICTABLE>
     f04:	d05b0001 	subsle	r0, fp, r1
     f08:	d4000003 	strle	r0, [r0], #-3
     f0c:	01000003 	tsteq	r0, r3
     f10:	03d45400 	bicseq	r5, r4, #0, 8
     f14:	03d80000 	bicseq	r0, r8, #0, 0
     f18:	00030000 	andeq	r0, r3, r0
     f1c:	d89f7f74 	ldmle	pc, {r2, r4, r5, r6, r8, r9, sl, fp, ip, sp, lr}	; <UNPREDICTABLE>
     f20:	fc000003 	stc2	0, cr0, [r0], {3}
     f24:	01000003 	tsteq	r0, r3
     f28:	04a85400 	strteq	r5, [r8], #1024	; 0x400
     f2c:	04ac0000 	strteq	r0, [ip], #0
     f30:	00010000 	andeq	r0, r1, r0
     f34:	0004ac54 	andeq	sl, r4, r4, asr ip
     f38:	0004b400 	andeq	fp, r4, r0, lsl #8
     f3c:	74000300 	strvc	r0, [r0], #-768	; 0xfffffd00
     f40:	04b49f01 	ldrteq	r9, [r4], #3841	; 0xf01
     f44:	04c00000 	strbeq	r0, [r0], #0
     f48:	00010000 	andeq	r0, r1, r0
     f4c:	0004e454 	andeq	lr, r4, r4, asr r4
     f50:	0004f400 	andeq	pc, r4, r0, lsl #8
     f54:	54000100 	strpl	r0, [r0], #-256	; 0xffffff00
     f58:	000004f4 	strdeq	r0, [r0], -r4
     f5c:	000004f8 	strdeq	r0, [r0], -r8
     f60:	01740003 	cmneq	r4, r3
     f64:	0004f89f 	muleq	r4, pc, r8	; <UNPREDICTABLE>
     f68:	00050400 	andeq	r0, r5, r0, lsl #8
     f6c:	54000100 	strpl	r0, [r0], #-256	; 0xffffff00
     f70:	00000920 	andeq	r0, r0, r0, lsr #18
     f74:	00000928 	andeq	r0, r0, r8, lsr #18
     f78:	005b0001 	subseq	r0, fp, r1
     f7c:	00000000 	andeq	r0, r0, r0
     f80:	01000000 	mrseq	r0, (UNDEF: 0)
     f84:	0003ac00 	andeq	sl, r3, r0, lsl #24
     f88:	0009b400 	andeq	fp, r9, r0, lsl #8
     f8c:	57000100 	strpl	r0, [r0, -r0, lsl #2]
	...
     f98:	00000002 	andeq	r0, r0, r2
     f9c:	057c0000 	ldrbeq	r0, [ip, #-0]!
     fa0:	05d00000 	ldrbeq	r0, [r0]
     fa4:	00010000 	andeq	r0, r1, r0
     fa8:	0008005b 	andeq	r0, r8, fp, asr r0
     fac:	00088800 	andeq	r8, r8, r0, lsl #16
     fb0:	5b000100 	blpl	13b8 <__code_start__-0x6c48>
     fb4:	00000948 	andeq	r0, r0, r8, asr #18
     fb8:	00000964 	andeq	r0, r0, r4, ror #18
     fbc:	005b0001 	subseq	r0, fp, r1
     fc0:	00000000 	andeq	r0, r0, r0
     fc4:	03000000 	movweq	r0, #0
     fc8:	00000000 	andeq	r0, r0, r0
     fcc:	00057c00 	andeq	r7, r5, r0, lsl #24
     fd0:	0005d000 	andeq	sp, r5, r0
     fd4:	59000100 	stmdbpl	r0, {r8}
     fd8:	00000800 	andeq	r0, r0, r0, lsl #16
     fdc:	00000888 	andeq	r0, r0, r8, lsl #17
     fe0:	48590001 	ldmdami	r9, {r0}^
     fe4:	64000009 	strvs	r0, [r0], #-9
     fe8:	01000009 	tsteq	r0, r9
     fec:	00005900 	andeq	r5, r0, r0, lsl #18
     ff0:	00000000 	andeq	r0, r0, r0
     ff4:	00040000 	andeq	r0, r4, r0
     ff8:	00000000 	andeq	r0, r0, r0
     ffc:	03ac0000 			; <UNDEFINED> instruction: 0x03ac0000
    1000:	03d00000 	bicseq	r0, r0, #0, 0
    1004:	00010000 	andeq	r0, r1, r0
    1008:	0003d052 	andeq	sp, r3, r2, asr r0
    100c:	00092000 	andeq	r2, r9, r0
    1010:	f3000400 	vshl.u8	d0, d0, d0
    1014:	209f5201 	addscs	r5, pc, r1, lsl #4
    1018:	28000009 	stmdacs	r0, {r0, r3}
    101c:	01000009 	tsteq	r0, r9
    1020:	09285200 	stmdbeq	r8!, {r9, ip, lr}
    1024:	09b40000 	ldmibeq	r4!, {}	; <UNPREDICTABLE>
    1028:	00040000 	andeq	r0, r4, r0
    102c:	9f5201f3 	svcls	0x005201f3
	...
    1038:	00010100 	andeq	r0, r1, r0, lsl #2
    103c:	00000000 	andeq	r0, r0, r0
    1040:	00000001 	andeq	r0, r0, r1
    1044:	000004e0 	andeq	r0, r0, r0, ror #9
    1048:	000004e0 	andeq	r0, r0, r0, ror #9
    104c:	e0500001 	subs	r0, r0, r1
    1050:	e8000004 	stmda	r0, {r2}
    1054:	01000004 	tsteq	r0, r4
    1058:	05b85500 	ldreq	r5, [r8, #1280]!	; 0x500
    105c:	05d00000 	ldrbeq	r0, [r0]
    1060:	00010000 	andeq	r0, r1, r0
    1064:	0005f055 	andeq	pc, r5, r5, asr r0	; <UNPREDICTABLE>
    1068:	0005f400 	andeq	pc, r5, r0, lsl #8
    106c:	50000100 	andpl	r0, r0, r0, lsl #2
    1070:	000007f4 	strdeq	r0, [r0], -r4
    1074:	000007f8 	strdeq	r0, [r0], -r8
    1078:	50550001 	subspl	r0, r5, r1
    107c:	88000008 	stmdahi	r0, {r3}
    1080:	01000008 	tsteq	r0, r8
    1084:	00005500 	andeq	r5, r0, r0, lsl #10
    1088:	00000000 	andeq	r0, r0, r0
    108c:	00020000 	andeq	r0, r2, r0
    1090:	00000000 	andeq	r0, r0, r0
    1094:	04140000 	ldreq	r0, [r4], #-0
    1098:	04180000 	ldreq	r0, [r8], #-0
    109c:	00020000 	andeq	r0, r2, r0
    10a0:	04189f30 	ldreq	r9, [r8], #-3888	; 0xfffff0d0
    10a4:	041c0000 	ldreq	r0, [ip], #-0
    10a8:	00010000 	andeq	r0, r1, r0
    10ac:	00042855 	andeq	r2, r4, r5, asr r8
    10b0:	00043c00 	andeq	r3, r4, r0, lsl #24
    10b4:	55000100 	strpl	r0, [r0, #-256]	; 0xffffff00
    10b8:	00000928 	andeq	r0, r0, r8, lsr #18
    10bc:	00000930 	andeq	r0, r0, r0, lsr r9
    10c0:	00550001 	subseq	r0, r5, r1
    10c4:	00000000 	andeq	r0, r0, r0
    10c8:	01000000 	mrseq	r0, (UNDEF: 0)
	...
    10d4:	04000000 	streq	r0, [r0], #-0
    10d8:	84000005 	strhi	r0, [r0], #-5
    10dc:	01000005 	tsteq	r0, r5
    10e0:	05845600 	streq	r5, [r4, #1536]	; 0x600
    10e4:	05880000 	streq	r0, [r8]
    10e8:	00030000 	andeq	r0, r3, r0
    10ec:	889f7e73 	ldmhi	pc, {r0, r1, r4, r5, r6, r9, sl, fp, ip, sp, lr}	; <UNPREDICTABLE>
    10f0:	d0000005 	andle	r0, r0, r5
    10f4:	07000005 	streq	r0, [r0, -r5]
    10f8:	7dcc9100 	stfvcp	f1, [ip]
    10fc:	9f1c3206 	svcls	0x001c3206
    1100:	00000800 	andeq	r0, r0, r0, lsl #16
    1104:	0000081c 	andeq	r0, r0, ip, lsl r8
    1108:	1c560001 	mrrcne	0, 0, r0, r6, cr1
    110c:	88000008 	stmdahi	r0, {r3}
    1110:	07000008 	streq	r0, [r0, -r8]
    1114:	7dcc9100 	stfvcp	f1, [ip]
    1118:	9f1c3206 	svcls	0x001c3206
    111c:	00000948 	andeq	r0, r0, r8, asr #18
    1120:	000009b4 			; <UNDEFINED> instruction: 0x000009b4
    1124:	00560001 	subseq	r0, r6, r1
    1128:	00000000 	andeq	r0, r0, r0
    112c:	04000000 	streq	r0, [r0], #-0
    1130:	14040206 	strne	r0, [r4], #-518	; 0xfffffdfa
    1134:	14000004 	strne	r0, [r0], #-4
    1138:	06000004 	streq	r0, [r0], -r4
    113c:	08007200 	stmdaeq	r0, {r9, ip, sp, lr}
    1140:	289f1aff 	ldmcs	pc, {r0, r1, r2, r3, r4, r5, r6, r7, r9, fp, ip}	; <UNPREDICTABLE>
    1144:	28000004 	stmdacs	r0, {r2}
    1148:	06000004 	streq	r0, [r0], -r4
    114c:	08007200 	stmdaeq	r0, {r9, ip, sp, lr}
    1150:	009f1aff 			; <UNDEFINED> instruction: 0x009f1aff
    1154:	00000000 	andeq	r0, r0, r0
    1158:	02000000 	andeq	r0, r0, #0, 0
    115c:	00000000 	andeq	r0, r0, r0
    1160:	0005fc00 	andeq	pc, r5, r0, lsl #24
    1164:	00070000 	andeq	r0, r7, r0
    1168:	08000300 	stmdaeq	r0, {r8, r9}
    116c:	08a89f80 	stmiaeq	r8!, {r7, r8, r9, sl, fp, ip, pc}
    1170:	08bc0000 	ldmeq	ip!, {}	; <UNPREDICTABLE>
    1174:	00030000 	andeq	r0, r3, r0
    1178:	109f8008 	addsne	r8, pc, r8
    117c:	20000009 	andcs	r0, r0, r9
    1180:	03000009 	movweq	r0, #9
    1184:	9f800800 	svcls	0x00800800
	...
    1190:	00000001 	andeq	r0, r0, r1
    1194:	05fc0000 	ldrbeq	r0, [ip, #0]!
    1198:	07000000 	streq	r0, [r0, -r0]
    119c:	00020000 	andeq	r0, r2, r0
    11a0:	08a89f30 	stmiaeq	r8!, {r4, r5, r8, r9, sl, fp, ip, pc}
    11a4:	08bc0000 	ldmeq	ip!, {}	; <UNPREDICTABLE>
    11a8:	00020000 	andeq	r0, r2, r0
    11ac:	09109f30 	ldmdbeq	r0, {r4, r5, r8, r9, sl, fp, ip, pc}
    11b0:	09200000 	stmdbeq	r0!, {}	; <UNPREDICTABLE>
    11b4:	00020000 	andeq	r0, r2, r0
    11b8:	00009f30 	andeq	r9, r0, r0, lsr pc
    11bc:	00000000 	andeq	r0, r0, r0
    11c0:	00010000 	andeq	r0, r1, r0
    11c4:	00000000 	andeq	r0, r0, r0
    11c8:	000005fc 	strdeq	r0, [r0], -ip
    11cc:	000006e0 	andeq	r0, r0, r0, ror #13
    11d0:	a8550001 	ldmdage	r5, {r0}^
    11d4:	bc000008 	stclt	0, cr0, [r0], {8}
    11d8:	01000008 	tsteq	r0, r8
    11dc:	09105500 	ldmdbeq	r0, {r8, sl, ip, lr}
    11e0:	09200000 	stmdbeq	r0!, {}	; <UNPREDICTABLE>
    11e4:	00010000 	andeq	r0, r1, r0
    11e8:	00000055 	andeq	r0, r0, r5, asr r0
    11ec:	00000000 	andeq	r0, r0, r0
    11f0:	00000100 	andeq	r0, r0, r0, lsl #2
    11f4:	00000000 	andeq	r0, r0, r0
    11f8:	0005fc00 	andeq	pc, r5, r0, lsl #24
    11fc:	0006e000 	andeq	lr, r6, r0
    1200:	91000400 	tstls	r0, r0, lsl #8
    1204:	e09f7dd0 			; <UNDEFINED> instruction: 0xe09f7dd0
    1208:	00000006 	andeq	r0, r0, r6
    120c:	01000007 	tsteq	r0, r7
    1210:	08a85500 	stmiaeq	r8!, {r8, sl, ip, lr}
    1214:	08bc0000 	ldmeq	ip!, {}	; <UNPREDICTABLE>
    1218:	00040000 	andeq	r0, r4, r0
    121c:	9f7dd091 	svcls	0x007dd091
    1220:	00000910 	andeq	r0, r0, r0, lsl r9
    1224:	00000920 	andeq	r0, r0, r0, lsr #18
    1228:	d0910004 	addsle	r0, r1, r4
    122c:	00009f7d 	andeq	r9, r0, sp, ror pc
    1230:	00000000 	andeq	r0, r0, r0
    1234:	00010000 	andeq	r0, r1, r0
    1238:	00000000 	andeq	r0, r0, r0
    123c:	000005fc 	strdeq	r0, [r0], -ip
    1240:	00000700 	andeq	r0, r0, r0, lsl #14
    1244:	9f380002 	svcls	0x00380002
    1248:	000008a8 	andeq	r0, r0, r8, lsr #17
    124c:	000008bc 			; <UNDEFINED> instruction: 0x000008bc
    1250:	9f380002 	svcls	0x00380002
    1254:	00000910 	andeq	r0, r0, r0, lsl r9
    1258:	00000920 	andeq	r0, r0, r0, lsr #18
    125c:	9f380002 	svcls	0x00380002
	...
    1268:	00070704 	andeq	r0, r7, r4, lsl #14
	...
    1274:	05fc0000 	ldrbeq	r0, [ip, #0]!
    1278:	05fc0000 	ldrbeq	r0, [ip, #0]!
    127c:	00040000 	andeq	r0, r4, r0
    1280:	9f7ed091 	svcls	0x007ed091
    1284:	000005fc 	strdeq	r0, [r0], -ip
    1288:	00000678 	andeq	r0, r0, r8, ror r6
    128c:	d1910004 	orrsle	r0, r1, r4
    1290:	06789f7e 	uhsub16eq	r9, r8, lr
    1294:	06d40000 	ldrbeq	r0, [r4], r0
    1298:	00010000 	andeq	r0, r1, r0
    129c:	0006d45c 	andeq	sp, r6, ip, asr r4
    12a0:	00070000 	andeq	r0, r7, r0
    12a4:	91000400 	tstls	r0, r0, lsl #8
    12a8:	a89f7ed1 	ldmge	pc, {r0, r4, r6, r7, r9, sl, fp, ip, sp, lr}	; <UNPREDICTABLE>
    12ac:	bc000008 	stclt	0, cr0, [r0], {8}
    12b0:	04000008 	streq	r0, [r0], #-8
    12b4:	7ed19100 	atnvcs	f1, f0
    12b8:	0009109f 	muleq	r9, pc, r0	; <UNPREDICTABLE>
    12bc:	00091400 	andeq	r1, r9, r0, lsl #8
    12c0:	91000400 	tstls	r0, r0, lsl #8
    12c4:	149f7ed1 	ldrne	r7, [pc], #3793	; 12cc <__code_start__-0x6d34>
    12c8:	20000009 	andcs	r0, r0, r9
    12cc:	01000009 	tsteq	r0, r9
    12d0:	00005c00 	andeq	r5, r0, r0, lsl #24
    12d4:	00000000 	andeq	r0, r0, r0
    12d8:	01040000 	mrseq	r0, (UNDEF: 4)
    12dc:	00000100 	andeq	r0, r0, r0, lsl #2
    12e0:	00000608 	andeq	r0, r0, r8, lsl #12
    12e4:	000006d0 	ldrdeq	r0, [r0], -r0	; <UNPREDICTABLE>
    12e8:	a8550001 	ldmdage	r5, {r0}^
    12ec:	b8000008 	stmdalt	r0, {r3}
    12f0:	01000008 	tsteq	r0, r8
    12f4:	09105500 	ldmdbeq	r0, {r8, sl, ip, lr}
    12f8:	09200000 	stmdbeq	r0!, {}	; <UNPREDICTABLE>
    12fc:	00010000 	andeq	r0, r1, r0
    1300:	00000055 	andeq	r0, r0, r5, asr r0
    1304:	00000000 	andeq	r0, r0, r0
    1308:	00000400 	andeq	r0, r0, r0, lsl #8
    130c:	00010000 	andeq	r0, r1, r0
    1310:	00010000 	andeq	r0, r1, r0
    1314:	00060800 	andeq	r0, r6, r0, lsl #16
    1318:	0006b000 	andeq	fp, r6, r0
    131c:	91000400 	tstls	r0, r0, lsl #8
    1320:	b09f7ed0 			; <UNDEFINED> instruction: 0xb09f7ed0
    1324:	c8000006 	stmdagt	r0, {r1, r2}
    1328:	01000006 	tsteq	r0, r6
    132c:	06c85000 	strbeq	r5, [r8], r0
    1330:	06d00000 	ldrbeq	r0, [r0], r0
    1334:	00040000 	andeq	r0, r4, r0
    1338:	9f7ed091 	svcls	0x007ed091
    133c:	000008a8 	andeq	r0, r0, r8, lsr #17
    1340:	000008b0 			; <UNDEFINED> instruction: 0x000008b0
    1344:	d0910004 	addsle	r0, r1, r4
    1348:	08b09f7e 	ldmeq	r0!, {r1, r2, r3, r4, r5, r6, r8, r9, sl, fp, ip, pc}
    134c:	08b80000 	ldmeq	r8!, {}	; <UNPREDICTABLE>
    1350:	00010000 	andeq	r0, r1, r0
    1354:	00091053 	andeq	r1, r9, r3, asr r0
    1358:	00092000 	andeq	r2, r9, r0
    135c:	91000400 	tstls	r0, r0, lsl #8
    1360:	009f7ed0 			; <UNDEFINED> instruction: 0x009f7ed0
    1364:	00000000 	andeq	r0, r0, r0
    1368:	04000000 	streq	r0, [r0], #-0
    136c:	01010000 	mrseq	r0, (UNDEF: 1)
    1370:	03030101 	movweq	r0, #12545	; 0x3101
    1374:	00010002 	andeq	r0, r1, r2
    1378:	08000000 	stmdaeq	r0, {}	; <UNPREDICTABLE>
    137c:	24000006 	strcs	r0, [r0], #-6
    1380:	04000006 	streq	r0, [r0], #-6
    1384:	7ed19100 	atnvcs	f1, f0
    1388:	0006849f 	muleq	r6, pc, r4	; <UNPREDICTABLE>
    138c:	00068400 	andeq	r8, r6, r0, lsl #8
    1390:	50000100 	andpl	r0, r0, r0, lsl #2
    1394:	00000684 	andeq	r0, r0, r4, lsl #13
    1398:	00000698 	muleq	r0, r8, r6
    139c:	01700003 	cmneq	r0, r3
    13a0:	0006989f 	muleq	r6, pc, r8	; <UNPREDICTABLE>
    13a4:	0006a400 	andeq	sl, r6, r0, lsl #8
    13a8:	70000300 	andvc	r0, r0, r0, lsl #6
    13ac:	06a49f02 	strteq	r9, [r4], r2, lsl #30
    13b0:	06a80000 	strteq	r0, [r8], r0
    13b4:	00030000 	andeq	r0, r3, r0
    13b8:	a89f0370 	ldmge	pc, {r4, r5, r6, r8, r9}	; <UNPREDICTABLE>
    13bc:	b8000008 	stmdalt	r0, {r3}
    13c0:	04000008 	streq	r0, [r0], #-8
    13c4:	7ed19100 	atnvcs	f1, f0
    13c8:	0009109f 	muleq	r9, pc, r0	; <UNPREDICTABLE>
    13cc:	00091400 	andeq	r1, r9, r0, lsl #8
    13d0:	91000400 	tstls	r0, r0, lsl #8
    13d4:	149f7ed1 	ldrne	r7, [pc], #3793	; 13dc <__code_start__-0x6c24>
    13d8:	20000009 	andcs	r0, r0, r9
    13dc:	01000009 	tsteq	r0, r9
    13e0:	00005c00 	andeq	r5, r0, r0, lsl #24
    13e4:	00000000 	andeq	r0, r0, r0
    13e8:	00060000 	andeq	r0, r6, r0
    13ec:	01010100 	mrseq	r0, (UNDEF: 17)
    13f0:	02010101 	andeq	r0, r1, #1073741824	; 0x40000000
    13f4:	00000100 	andeq	r0, r0, r0, lsl #2
    13f8:	00000608 	andeq	r0, r0, r8, lsl #12
    13fc:	00000624 	andeq	r0, r0, r4, lsr #12
    1400:	9f310002 	svcls	0x00310002
    1404:	00000684 	andeq	r0, r0, r4, lsl #13
    1408:	00000694 	muleq	r0, r4, r6
    140c:	94520001 	ldrbls	r0, [r2], #-1
    1410:	a4000006 	strge	r0, [r0], #-6
    1414:	01000006 	tsteq	r0, r6
    1418:	06a45900 	strteq	r5, [r4], r0, lsl #18
    141c:	06a80000 	strteq	r0, [r8], r0
    1420:	00010000 	andeq	r0, r1, r0
    1424:	0006a852 	andeq	sl, r6, r2, asr r8
    1428:	0006a800 	andeq	sl, r6, r0, lsl #16
    142c:	72000300 	andvc	r0, r0, #0, 6
    1430:	08a89f01 	stmiaeq	r8!, {r0, r8, r9, sl, fp, ip, pc}
    1434:	08b80000 	ldmeq	r8!, {}	; <UNPREDICTABLE>
    1438:	00020000 	andeq	r0, r2, r0
    143c:	09109f31 	ldmdbeq	r0, {r0, r4, r5, r8, r9, sl, fp, ip, pc}
    1440:	09200000 	stmdbeq	r0!, {}	; <UNPREDICTABLE>
    1444:	00020000 	andeq	r0, r2, r0
    1448:	00009f31 	andeq	r9, r0, r1, lsr pc
    144c:	00000000 	andeq	r0, r0, r0
    1450:	06010000 	streq	r0, [r1], -r0
    1454:	00010006 	andeq	r0, r1, r6
    1458:	000006d0 	ldrdeq	r0, [r0], -r0	; <UNPREDICTABLE>
    145c:	000006d0 	ldrdeq	r0, [r0], -r0	; <UNPREDICTABLE>
    1460:	d0910004 	addsle	r0, r1, r4
    1464:	06d09f7e 			; <UNDEFINED> instruction: 0x06d09f7e
    1468:	07000000 	streq	r0, [r0, -r0]
    146c:	00010000 	andeq	r0, r1, r0
    1470:	0008b850 	andeq	fp, r8, r0, asr r8
    1474:	0008bc00 	andeq	fp, r8, r0, lsl #24
    1478:	53000100 	movwpl	r0, #256	; 0x100
	...
    1484:	00000801 	andeq	r0, r0, r1, lsl #16
    1488:	00010100 	andeq	r0, r1, r0, lsl #2
    148c:	06d00701 	ldrbeq	r0, [r0], r1, lsl #14
    1490:	06d00000 	ldrbeq	r0, [r0], r0
    1494:	00060000 	andeq	r0, r6, r0
    1498:	0071007c 	rsbseq	r0, r1, ip, ror r0
    149c:	06e49f22 	strbteq	r9, [r4], r2, lsr #30
    14a0:	06e80000 	strbteq	r0, [r8], r0
    14a4:	00030000 	andeq	r0, r3, r0
    14a8:	e89f7f73 	ldm	pc, {r0, r1, r4, r5, r6, r8, r9, sl, fp, ip, sp, lr}	; <UNPREDICTABLE>
    14ac:	f0000006 			; <UNDEFINED> instruction: 0xf0000006
    14b0:	01000006 	tsteq	r0, r6
    14b4:	06f05300 	ldrbteq	r5, [r0], r0, lsl #6
    14b8:	06f80000 	ldrbteq	r0, [r8], r0
    14bc:	00030000 	andeq	r0, r3, r0
    14c0:	b89f7f73 	ldmlt	pc, {r0, r1, r4, r5, r6, r8, r9, sl, fp, ip, sp, lr}	; <UNPREDICTABLE>
    14c4:	b8000008 	stmdalt	r0, {r3}
    14c8:	04000008 	streq	r0, [r0], #-8
    14cc:	7ed19100 	atnvcs	f1, f0
    14d0:	0000009f 	muleq	r0, pc, r0	; <UNPREDICTABLE>
    14d4:	00000000 	andeq	r0, r0, r0
    14d8:	01000100 	mrseq	r0, (UNDEF: 16)
    14dc:	0006d000 	andeq	sp, r6, r0
    14e0:	00070000 	andeq	r0, r7, r0
    14e4:	08000300 	stmdaeq	r0, {r8, r9}
    14e8:	08b89f80 	ldmeq	r8!, {r7, r8, r9, sl, fp, ip, pc}
    14ec:	08bc0000 	ldmeq	ip!, {}	; <UNPREDICTABLE>
    14f0:	00030000 	andeq	r0, r3, r0
    14f4:	009f8008 	addseq	r8, pc, r8
    14f8:	00000000 	andeq	r0, r0, r0
    14fc:	01000000 	mrseq	r0, (UNDEF: 0)
    1500:	00000000 	andeq	r0, r0, r0
    1504:	00000101 	andeq	r0, r0, r1, lsl #2
    1508:	01010200 	mrseq	r0, R9_usr
    150c:	0006d000 	andeq	sp, r6, r0
    1510:	0006e000 	andeq	lr, r6, r0
    1514:	91000400 	tstls	r0, r0, lsl #8
    1518:	e09f7dd0 			; <UNDEFINED> instruction: 0xe09f7dd0
    151c:	e4000006 	str	r0, [r0], #-6
    1520:	01000006 	tsteq	r0, r6
    1524:	06e45500 	strbteq	r5, [r4], r0, lsl #10
    1528:	06e40000 	strbteq	r0, [r4], r0
    152c:	00030000 	andeq	r0, r3, r0
    1530:	e49f0172 	ldr	r0, [pc], #370	; 1538 <__code_start__-0x6ac8>
    1534:	f0000006 			; <UNDEFINED> instruction: 0xf0000006
    1538:	03000006 	movweq	r0, #6
    153c:	9f027200 	svcls	0x00027200
    1540:	000006f0 	strdeq	r0, [r0], -r0	; <UNPREDICTABLE>
    1544:	00000700 	andeq	r0, r0, r0, lsl #14
    1548:	01720003 	cmneq	r2, r3
    154c:	0007ec9f 	muleq	r7, pc, ip	; <UNPREDICTABLE>
    1550:	0007f400 	andeq	pc, r7, r0, lsl #8
    1554:	73000300 	movwvc	r0, #768	; 0x300
    1558:	08b89f01 	ldmeq	r8!, {r0, r8, r9, sl, fp, ip, pc}
    155c:	08bc0000 	ldmeq	ip!, {}	; <UNPREDICTABLE>
    1560:	00040000 	andeq	r0, r4, r0
    1564:	9f7dd091 	svcls	0x007dd091
	...
    1570:	08b80004 	ldmeq	r8!, {r2}
    1574:	08bc0000 	ldmeq	ip!, {}	; <UNPREDICTABLE>
    1578:	00020000 	andeq	r0, r2, r0
    157c:	00009f32 	andeq	r9, r0, r2, lsr pc
    1580:	00000000 	andeq	r0, r0, r0
    1584:	00070000 	andeq	r0, r7, r0
    1588:	00060000 	andeq	r0, r6, r0
    158c:	000006d0 	ldrdeq	r0, [r0], -r0	; <UNPREDICTABLE>
    1590:	000006e0 	andeq	r0, r0, r0, ror #13
    1594:	d0910004 	addsle	r0, r1, r4
    1598:	06e09f7d 			; <UNDEFINED> instruction: 0x06e09f7d
    159c:	07000000 	streq	r0, [r0, -r0]
    15a0:	00010000 	andeq	r0, r1, r0
    15a4:	0008b855 	andeq	fp, r8, r5, asr r8
    15a8:	0008bc00 	andeq	fp, r8, r0, lsl #24
    15ac:	91000400 	tstls	r0, r0, lsl #8
    15b0:	009f7dd0 			; <UNDEFINED> instruction: 0x009f7dd0
    15b4:	00000000 	andeq	r0, r0, r0
    15b8:	01000000 	mrseq	r0, (UNDEF: 0)
    15bc:	0c000000 	stceq	0, cr0, [r0], {-0}
    15c0:	ec000007 	stc	0, cr0, [r0], {7}
    15c4:	03000007 	movweq	r0, #7
    15c8:	9f800800 	svcls	0x00800800
    15cc:	00000894 	muleq	r0, r4, r8
    15d0:	000008a8 	andeq	r0, r0, r8, lsr #17
    15d4:	80080003 	andhi	r0, r8, r3
    15d8:	0000009f 	muleq	r0, pc, r0	; <UNPREDICTABLE>
	...
    15e4:	00070c00 	andeq	r0, r7, r0, lsl #24
    15e8:	0007ec00 	andeq	lr, r7, r0, lsl #24
    15ec:	30000200 	andcc	r0, r0, r0, lsl #4
    15f0:	0008949f 	muleq	r8, pc, r4	; <UNPREDICTABLE>
    15f4:	0008a800 	andeq	sl, r8, r0, lsl #16
    15f8:	30000200 	andcc	r0, r0, r0, lsl #4
    15fc:	0000009f 	muleq	r0, pc, r0	; <UNPREDICTABLE>
	...
    1608:	00070c00 	andeq	r0, r7, r0, lsl #24
    160c:	0007d000 	andeq	sp, r7, r0
    1610:	55000100 	strpl	r0, [r0, #-256]	; 0xffffff00
    1614:	00000894 	muleq	r0, r4, r8
    1618:	000008a8 	andeq	r0, r0, r8, lsr #17
    161c:	00550001 	subseq	r0, r5, r1
	...
    162c:	00070c00 	andeq	r0, r7, r0, lsl #24
    1630:	0007d000 	andeq	sp, r7, r0
    1634:	91000400 	tstls	r0, r0, lsl #8
    1638:	d09f7dd0 			; <UNDEFINED> instruction: 0xd09f7dd0
    163c:	ec000007 	stc	0, cr0, [r0], {7}
    1640:	01000007 	tsteq	r0, r7
    1644:	08945500 	ldmeq	r4, {r8, sl, ip, lr}
    1648:	08a80000 	stmiaeq	r8!, {}	; <UNPREDICTABLE>
    164c:	00040000 	andeq	r0, r4, r0
    1650:	9f7dd091 	svcls	0x007dd091
	...
    1660:	0000070c 	andeq	r0, r0, ip, lsl #14
    1664:	000007ec 	andeq	r0, r0, ip, ror #15
    1668:	9f320002 	svcls	0x00320002
    166c:	00000894 	muleq	r0, r4, r8
    1670:	000008a8 	andeq	r0, r0, r8, lsr #17
    1674:	9f320002 	svcls	0x00320002
	...
    1680:	00050503 	andeq	r0, r5, r3, lsl #10
    1684:	00000000 	andeq	r0, r0, r0
    1688:	070c0000 	streq	r0, [ip, -r0]
    168c:	070c0000 	streq	r0, [ip, -r0]
    1690:	00010000 	andeq	r0, r1, r0
    1694:	00070c51 	andeq	r0, r7, r1, asr ip
    1698:	00071c00 	andeq	r1, r7, r0, lsl #24
    169c:	53000100 	movwpl	r0, #256	; 0x100
    16a0:	0000071c 	andeq	r0, r0, ip, lsl r7
    16a4:	00000724 	andeq	r0, r0, r4, lsr #14
    16a8:	01720003 	cmneq	r2, r3
    16ac:	0007249f 	muleq	r7, pc, r4	; <UNPREDICTABLE>
    16b0:	0007cc00 	andeq	ip, r7, r0, lsl #24
    16b4:	53000100 	movwpl	r0, #256	; 0x100
    16b8:	00000894 	muleq	r0, r4, r8
    16bc:	000008a8 	andeq	r0, r0, r8, lsr #17
    16c0:	00530001 	subseq	r0, r3, r1
    16c4:	00000000 	andeq	r0, r0, r0
    16c8:	05000000 	streq	r0, [r0, #-0]
    16cc:	0c000100 	stfeqs	f0, [r0], {-0}
    16d0:	20000007 	andcs	r0, r0, r7
    16d4:	01000007 	tsteq	r0, r7
    16d8:	07245000 	streq	r5, [r4, -r0]!
    16dc:	072c0000 	streq	r0, [ip, -r0]!
    16e0:	00010000 	andeq	r0, r1, r0
    16e4:	00000050 	andeq	r0, r0, r0, asr r0
    16e8:	00000000 	andeq	r0, r0, r0
    16ec:	00010300 	andeq	r0, r1, r0, lsl #6
    16f0:	00072801 	andeq	r2, r7, r1, lsl #16
    16f4:	0007b000 	andeq	fp, r7, r0
    16f8:	55000100 	strpl	r0, [r0, #-256]	; 0xffffff00
    16fc:	00000894 	muleq	r0, r4, r8
    1700:	000008a0 	andeq	r0, r0, r0, lsr #17
    1704:	00550001 	subseq	r0, r5, r1
    1708:	00000000 	andeq	r0, r0, r0
    170c:	03000000 	movweq	r0, #0
    1710:	28010001 	stmdacs	r1, {r0}
    1714:	b0000007 	andlt	r0, r0, r7
    1718:	01000007 	tsteq	r0, r7
    171c:	08945100 	ldmeq	r4, {r8, ip, lr}
    1720:	08a00000 	stmiaeq	r0!, {}	; <UNPREDICTABLE>
    1724:	00010000 	andeq	r0, r1, r0
    1728:	00000051 	andeq	r0, r0, r1, asr r0
    172c:	00000000 	andeq	r0, r0, r0
    1730:	00000300 	andeq	r0, r0, r0, lsl #6
    1734:	01010101 	tsteq	r1, r1, lsl #2
    1738:	00020303 	andeq	r0, r2, r3, lsl #6
    173c:	00072801 	andeq	r2, r7, r1, lsl #16
    1740:	00075000 	andeq	r5, r7, r0
    1744:	53000100 	movwpl	r0, #256	; 0x100
    1748:	00000774 	andeq	r0, r0, r4, ror r7
    174c:	00000774 	andeq	r0, r0, r4, ror r7
    1750:	745e0001 	ldrbvc	r0, [lr], #-1
    1754:	88000007 	stmdahi	r0, {r0, r1, r2}
    1758:	03000007 	movweq	r0, #7
    175c:	9f017e00 	svcls	0x00017e00
    1760:	00000788 	andeq	r0, r0, r8, lsl #15
    1764:	00000794 	muleq	r0, r4, r7
    1768:	027e0003 	rsbseq	r0, lr, #3, 0
    176c:	0007949f 	muleq	r7, pc, r4	; <UNPREDICTABLE>
    1770:	00079800 	andeq	r9, r7, r0, lsl #16
    1774:	7e000300 	cdpvc	3, 0, cr0, cr0, cr0, {0}
    1778:	08949f03 	ldmeq	r4, {r0, r1, r8, r9, sl, fp, ip, pc}
    177c:	08a00000 	stmiaeq	r0!, {}	; <UNPREDICTABLE>
    1780:	00010000 	andeq	r0, r1, r0
    1784:	00000053 	andeq	r0, r0, r3, asr r0
	...
    1790:	01010101 	tsteq	r1, r1, lsl #2
    1794:	00020101 	andeq	r0, r2, r1, lsl #2
    1798:	00072c01 	andeq	r2, r7, r1, lsl #24
    179c:	00075000 	andeq	r5, r7, r0
    17a0:	50000100 	andpl	r0, r0, r0, lsl #2
    17a4:	00000774 	andeq	r0, r0, r4, ror r7
    17a8:	00000784 	andeq	r0, r0, r4, lsl #15
    17ac:	84500001 	ldrbhi	r0, [r0], #-1
    17b0:	94000007 	strls	r0, [r0], #-7
    17b4:	01000007 	tsteq	r0, r7
    17b8:	07945b00 	ldreq	r5, [r4, r0, lsl #22]
    17bc:	07980000 	ldreq	r0, [r8, r0]
    17c0:	00010000 	andeq	r0, r1, r0
    17c4:	00079850 	andeq	r9, r7, r0, asr r8
    17c8:	00079800 	andeq	r9, r7, r0, lsl #16
    17cc:	70000300 	andvc	r0, r0, r0, lsl #6
    17d0:	08949f01 	ldmeq	r4, {r0, r8, r9, sl, fp, ip, pc}
    17d4:	08a00000 	stmiaeq	r0!, {}	; <UNPREDICTABLE>
    17d8:	00010000 	andeq	r0, r1, r0
    17dc:	00000050 	andeq	r0, r0, r0, asr r0
    17e0:	00000000 	andeq	r0, r0, r0
    17e4:	01000100 	mrseq	r0, (UNDEF: 16)
    17e8:	0007b000 	andeq	fp, r7, r0
    17ec:	0007ec00 	andeq	lr, r7, r0, lsl #24
    17f0:	51000100 	mrspl	r0, (UNDEF: 16)
    17f4:	000008a0 	andeq	r0, r0, r0, lsr #17
    17f8:	000008a8 	andeq	r0, r0, r8, lsr #17
    17fc:	00510001 	subseq	r0, r1, r1
    1800:	00000000 	andeq	r0, r0, r0
    1804:	01000000 	mrseq	r0, (UNDEF: 0)
    1808:	00000000 	andeq	r0, r0, r0
    180c:	01000101 	tsteq	r0, r1, lsl #2
    1810:	0007b000 	andeq	fp, r7, r0
    1814:	0007b400 	andeq	fp, r7, r0, lsl #8
    1818:	73000600 	movwvc	r0, #1536	; 0x600
    181c:	22007c00 	andcs	r7, r0, #0, 24
    1820:	0007d49f 	muleq	r7, pc, r4	; <UNPREDICTABLE>
    1824:	0007d800 	andeq	sp, r7, r0, lsl #16
    1828:	73000300 	movwvc	r0, #768	; 0x300
    182c:	07d89f7f 			; <UNDEFINED> instruction: 0x07d89f7f
    1830:	07e00000 	strbeq	r0, [r0, r0]!
    1834:	00010000 	andeq	r0, r1, r0
    1838:	0007e053 	andeq	lr, r7, r3, asr r0
    183c:	0007e800 	andeq	lr, r7, r0, lsl #16
    1840:	73000300 	movwvc	r0, #768	; 0x300
    1844:	08a09f7f 	stmiaeq	r0!, {r0, r1, r2, r3, r4, r5, r6, r8, r9, sl, fp, ip, pc}
    1848:	08a80000 	stmiaeq	r8!, {}	; <UNPREDICTABLE>
    184c:	00010000 	andeq	r0, r1, r0
    1850:	00000053 	andeq	r0, r0, r3, asr r0
    1854:	00000000 	andeq	r0, r0, r0
    1858:	01000100 	mrseq	r0, (UNDEF: 16)
    185c:	0007b000 	andeq	fp, r7, r0
    1860:	0007ec00 	andeq	lr, r7, r0, lsl #24
    1864:	08000300 	stmdaeq	r0, {r8, r9}
    1868:	08a09f80 	stmiaeq	r0!, {r7, r8, r9, sl, fp, ip, pc}
    186c:	08a80000 	stmiaeq	r8!, {}	; <UNPREDICTABLE>
    1870:	00030000 	andeq	r0, r3, r0
    1874:	009f8008 	addseq	r8, pc, r8
    1878:	00000000 	andeq	r0, r0, r0
    187c:	01000000 	mrseq	r0, (UNDEF: 0)
    1880:	00000000 	andeq	r0, r0, r0
    1884:	00000101 	andeq	r0, r0, r1, lsl #2
    1888:	b0000100 	andlt	r0, r0, r0, lsl #2
    188c:	d0000007 	andle	r0, r0, r7
    1890:	04000007 	streq	r0, [r0], #-7
    1894:	7dd09100 	ldfvcp	f1, [r0]
    1898:	0007d09f 	muleq	r7, pc, r0	; <UNPREDICTABLE>
    189c:	0007d400 	andeq	sp, r7, r0, lsl #8
    18a0:	55000100 	strpl	r0, [r0, #-256]	; 0xffffff00
    18a4:	000007d4 	ldrdeq	r0, [r0], -r4
    18a8:	000007d4 	ldrdeq	r0, [r0], -r4
    18ac:	017c0003 	cmneq	ip, r3
    18b0:	0007d49f 	muleq	r7, pc, r4	; <UNPREDICTABLE>
    18b4:	0007e000 	andeq	lr, r7, r0
    18b8:	7c000300 	stcvc	3, cr0, [r0], {-0}
    18bc:	07e09f02 	strbeq	r9, [r0, r2, lsl #30]!
    18c0:	07ec0000 	strbeq	r0, [ip, r0]!
    18c4:	00030000 	andeq	r0, r3, r0
    18c8:	a09f017c 	addsge	r0, pc, ip, ror r1	; <UNPREDICTABLE>
    18cc:	a8000008 	stmdage	r0, {r3}
    18d0:	04000008 	streq	r0, [r0], #-8
    18d4:	7dd09100 	ldfvcp	f1, [r0]
    18d8:	0000009f 	muleq	r0, pc, r0	; <UNPREDICTABLE>
    18dc:	00000000 	andeq	r0, r0, r0
    18e0:	04000400 	streq	r0, [r0], #-1024	; 0xfffffc00
    18e4:	0007b000 	andeq	fp, r7, r0
    18e8:	0007b400 	andeq	fp, r7, r0, lsl #8
    18ec:	70000300 	andvc	r0, r0, r0, lsl #6
    18f0:	08a09f01 	stmiaeq	r0!, {r0, r8, r9, sl, fp, ip, pc}
    18f4:	08a80000 	stmiaeq	r8!, {}	; <UNPREDICTABLE>
    18f8:	00030000 	andeq	r0, r3, r0
    18fc:	009f0170 	addseq	r0, pc, r0, ror r1	; <UNPREDICTABLE>
    1900:	00000000 	andeq	r0, r0, r0
    1904:	01000000 	mrseq	r0, (UNDEF: 0)
    1908:	bc000000 	stclt	0, cr0, [r0], {-0}
    190c:	d0000007 	andle	r0, r0, r7
    1910:	04000007 	streq	r0, [r0], #-7
    1914:	7dd09100 	ldfvcp	f1, [r0]
    1918:	0007d09f 	muleq	r7, pc, r0	; <UNPREDICTABLE>
    191c:	0007ec00 	andeq	lr, r7, r0, lsl #24
    1920:	55000100 	strpl	r0, [r0, #-256]	; 0xffffff00
	...
    1930:	00000328 	andeq	r0, r0, r8, lsr #6
    1934:	00000364 	andeq	r0, r0, r4, ror #6
    1938:	64500001 	ldrbvs	r0, [r0], #-1
    193c:	88000003 	stmdahi	r0, {r0, r1}
    1940:	04000003 	streq	r0, [r0], #-3
    1944:	5001f300 	andpl	pc, r1, r0, lsl #6
    1948:	0000009f 	muleq	r0, pc, r0	; <UNPREDICTABLE>
	...
    1954:	00032800 	andeq	r2, r3, r0, lsl #16
    1958:	00035c00 	andeq	r5, r3, r0, lsl #24
    195c:	51000100 	mrspl	r0, (UNDEF: 16)
    1960:	0000035c 	andeq	r0, r0, ip, asr r3
    1964:	00000388 	andeq	r0, r0, r8, lsl #7
    1968:	01f30004 	mvnseq	r0, r4
    196c:	00009f51 	andeq	r9, r0, r1, asr pc
	...
    1990:	00140000 	andseq	r0, r4, r0
    1994:	00010000 	andeq	r0, r1, r0
    1998:	00001450 	andeq	r1, r0, r0, asr r4
    199c:	00002000 	andeq	r2, r0, r0
    19a0:	5c000100 	stfpls	f0, [r0], {-0}
    19a4:	00000020 	andeq	r0, r0, r0, lsr #32
    19a8:	00000068 	andeq	r0, r0, r8, rrx
    19ac:	02710003 	rsbseq	r0, r1, #3, 0
    19b0:	0000689f 	muleq	r0, pc, r8	; <UNPREDICTABLE>
    19b4:	00006c00 	andeq	r6, r0, r0, lsl #24
    19b8:	73000300 	movwvc	r0, #768	; 0x300
    19bc:	006c9f02 	rsbeq	r9, ip, r2, lsl #30
    19c0:	01940000 	orrseq	r0, r4, r0
    19c4:	00040000 	andeq	r0, r4, r0
    19c8:	9f5001f3 	svcls	0x005001f3
    19cc:	00000194 	muleq	r0, r4, r1
    19d0:	00000198 	muleq	r0, r8, r1
    19d4:	02730003 	rsbseq	r0, r3, #3, 0
    19d8:	0001989f 	muleq	r1, pc, r8	; <UNPREDICTABLE>
    19dc:	0001c000 	andeq	ip, r1, r0
    19e0:	f3000400 	vshl.u8	d0, d0, d0
    19e4:	c09f5001 	addsgt	r5, pc, r1
    19e8:	c8000001 	stmdagt	r0, {r0}
    19ec:	01000001 	tsteq	r0, r1
    19f0:	01c85c00 	biceq	r5, r8, r0, lsl #24
    19f4:	02140000 	andseq	r0, r4, #0, 0
    19f8:	00030000 	andeq	r0, r3, r0
    19fc:	149f0273 	ldrne	r0, [pc], #627	; 1a04 <__code_start__-0x65fc>
    1a00:	ec000002 	stc	0, cr0, [r0], {2}
    1a04:	04000002 	streq	r0, [r0], #-2
    1a08:	5001f300 	andpl	pc, r1, r0, lsl #6
    1a0c:	0002ec9f 	muleq	r2, pc, ip	; <UNPREDICTABLE>
    1a10:	0002f400 	andeq	pc, r2, r0, lsl #8
    1a14:	73000300 	movwvc	r0, #768	; 0x300
    1a18:	02f49f02 	rscseq	r9, r4, #2, 30
    1a1c:	03280000 			; <UNDEFINED> instruction: 0x03280000
    1a20:	00040000 	andeq	r0, r4, r0
    1a24:	9f5001f3 	svcls	0x005001f3
	...
    1a3c:	0000001c 	andeq	r0, r0, ip, lsl r0
    1a40:	1c510001 	mrrcne	0, 0, r0, r1, cr1
    1a44:	e0000000 	and	r0, r0, r0
    1a48:	01000002 	tsteq	r0, r2
    1a4c:	02e05000 	rsceq	r5, r0, #0, 0
    1a50:	02ec0000 	rsceq	r0, ip, #0, 0
    1a54:	00040000 	andeq	r0, r4, r0
    1a58:	9f5101f3 	svcls	0x005101f3
    1a5c:	000002ec 	andeq	r0, r0, ip, ror #5
    1a60:	00000328 	andeq	r0, r0, r8, lsr #6
    1a64:	00500001 	subseq	r0, r0, r1
	...
    1a74:	00000001 	andeq	r0, r0, r1
    1a78:	00000000 	andeq	r0, r0, r0
    1a7c:	00000202 	andeq	r0, r0, r2, lsl #4
	...
    1a90:	70000000 	andvc	r0, r0, r0
    1a94:	01000000 	mrseq	r0, (UNDEF: 0)
    1a98:	00705200 	rsbseq	r5, r0, r0, lsl #4
    1a9c:	00780000 	rsbseq	r0, r8, r0
    1aa0:	00010000 	andeq	r0, r1, r0
    1aa4:	0000785c 	andeq	r7, r0, ip, asr r8
    1aa8:	0000a400 	andeq	sl, r0, r0, lsl #8
    1aac:	f3000400 	vshl.u8	d0, d0, d0
    1ab0:	949f5201 	ldrls	r5, [pc], #513	; 1ab8 <__code_start__-0x6548>
    1ab4:	9c000001 	stcls	0, cr0, [r0], {1}
    1ab8:	01000001 	tsteq	r0, r1
    1abc:	019c5200 	orrseq	r5, ip, r0, lsl #4
    1ac0:	01a40000 			; <UNDEFINED> instruction: 0x01a40000
    1ac4:	00010000 	andeq	r0, r1, r0
    1ac8:	0001a45c 	andeq	sl, r1, ip, asr r4
    1acc:	0001c000 	andeq	ip, r1, r0
    1ad0:	f3000400 	vshl.u8	d0, d0, d0
    1ad4:	c09f5201 	addsgt	r5, pc, r1, lsl #4
    1ad8:	20000001 	andcs	r0, r0, r1
    1adc:	01000002 	tsteq	r0, r2
    1ae0:	02205200 	eoreq	r5, r0, #0, 4
    1ae4:	02280000 	eoreq	r0, r8, #0, 0
    1ae8:	00040000 	andeq	r0, r4, r0
    1aec:	9f1f0072 	svcls	0x001f0072
    1af0:	00000228 	andeq	r0, r0, r8, lsr #4
    1af4:	00000274 	andeq	r0, r0, r4, ror r2
    1af8:	01f30005 	mvnseq	r0, r5
    1afc:	749f1f52 	ldrvc	r1, [pc], #3922	; 1b04 <__code_start__-0x64fc>
    1b00:	88000002 	stmdahi	r0, {r1}
    1b04:	01000002 	tsteq	r0, r2
    1b08:	02885200 	addeq	r5, r8, #0, 4
    1b0c:	02a00000 	adceq	r0, r0, #0, 0
    1b10:	00010000 	andeq	r0, r1, r0
    1b14:	0002cc5c 	andeq	ip, r2, ip, asr ip
    1b18:	0002d000 	andeq	sp, r2, r0
    1b1c:	52000100 	andpl	r0, r0, #0
    1b20:	000002d0 	ldrdeq	r0, [r0], -r0	; <UNPREDICTABLE>
    1b24:	000002e7 	andeq	r0, r0, r7, ror #5
    1b28:	e75c0001 	ldrb	r0, [ip, -r1]
    1b2c:	ec000002 	stc	0, cr0, [r0], {2}
    1b30:	04000002 	streq	r0, [r0], #-2
    1b34:	5201f300 	andpl	pc, r1, #0, 6
    1b38:	0002ec9f 	muleq	r2, pc, ip	; <UNPREDICTABLE>
    1b3c:	00030000 	andeq	r0, r3, r0
    1b40:	52000100 	andpl	r0, r0, #0
    1b44:	00000300 	andeq	r0, r0, r0, lsl #6
    1b48:	00000328 	andeq	r0, r0, r8, lsr #6
    1b4c:	005c0001 	subseq	r0, ip, r1
	...
    1b68:	00006800 	andeq	r6, r0, r0, lsl #16
    1b6c:	53000100 	movwpl	r0, #256	; 0x100
    1b70:	00000068 	andeq	r0, r0, r8, rrx
    1b74:	0000006c 	andeq	r0, r0, ip, rrx
    1b78:	7f080003 	svcvc	0x00080003
    1b7c:	0001949f 	muleq	r1, pc, r4	; <UNPREDICTABLE>
    1b80:	00019800 	andeq	r9, r1, r0, lsl #16
    1b84:	08000300 	stmdaeq	r0, {r8, r9}
    1b88:	01c09f7f 	biceq	r9, r0, pc, ror pc
    1b8c:	02140000 	andseq	r0, r4, #0, 0
    1b90:	00030000 	andeq	r0, r3, r0
    1b94:	749f7f08 	ldrvc	r7, [pc], #3848	; 1b9c <__code_start__-0x6464>
    1b98:	90000002 	andls	r0, r0, r2
    1b9c:	01000002 	tsteq	r0, r2
    1ba0:	02905300 	addseq	r5, r0, #0, 6
    1ba4:	02a00000 	adceq	r0, r0, #0, 0
    1ba8:	00040000 	andeq	r0, r4, r0
    1bac:	9f5301f3 	svcls	0x005301f3
    1bb0:	000002ec 	andeq	r0, r0, ip, ror #5
    1bb4:	00000328 	andeq	r0, r0, r8, lsr #6
    1bb8:	7f080003 	svcvc	0x00080003
    1bbc:	0000009f 	muleq	r0, pc, r0	; <UNPREDICTABLE>
    1bc0:	00000000 	andeq	r0, r0, r0
    1bc4:	00000100 	andeq	r0, r0, r0, lsl #2
    1bc8:	02020000 	andeq	r0, r2, #0, 0
    1bcc:	01010000 	mrseq	r0, (UNDEF: 1)
	...
    1bd8:	00000202 	andeq	r0, r0, r2, lsl #4
    1bdc:	00000100 	andeq	r0, r0, r0, lsl #2
    1be0:	00000000 	andeq	r0, r0, r0
    1be4:	01010000 	mrseq	r0, (UNDEF: 1)
    1be8:	00000000 	andeq	r0, r0, r0
    1bec:	00000202 	andeq	r0, r0, r2, lsl #4
    1bf0:	00000000 	andeq	r0, r0, r0
    1bf4:	00000101 	andeq	r0, r0, r1, lsl #2
    1bf8:	00001800 	andeq	r1, r0, r0, lsl #16
    1bfc:	00007000 	andeq	r7, r0, r0
    1c00:	91000400 	tstls	r0, r0, lsl #8
    1c04:	709f7fa0 	addsvc	r7, pc, r0, lsr #31
    1c08:	78000000 	stmdavc	r0, {}	; <UNPREDICTABLE>
    1c0c:	01000000 	mrseq	r0, (UNDEF: 0)
    1c10:	00785200 	rsbseq	r5, r8, r0, lsl #4
    1c14:	00780000 	rsbseq	r0, r8, r0
    1c18:	00010000 	andeq	r0, r1, r0
    1c1c:	00007854 	andeq	r7, r0, r4, asr r8
    1c20:	00008800 	andeq	r8, r0, r0, lsl #16
    1c24:	74000300 	strvc	r0, [r0], #-768	; 0xfffffd00
    1c28:	00889f01 	addeq	r9, r8, r1, lsl #30
    1c2c:	00900000 	addseq	r0, r0, r0
    1c30:	00010000 	andeq	r0, r1, r0
    1c34:	00009054 	andeq	r9, r0, r4, asr r0
    1c38:	0000a000 	andeq	sl, r0, r0
    1c3c:	74000300 	strvc	r0, [r0], #-768	; 0xfffffd00
    1c40:	00a09f02 	adceq	r9, r0, r2, lsl #30
    1c44:	00b00000 	adcseq	r0, r0, r0
    1c48:	00010000 	andeq	r0, r1, r0
    1c4c:	0001945e 	andeq	r9, r1, lr, asr r4
    1c50:	00019c00 	andeq	r9, r1, r0, lsl #24
    1c54:	91000400 	tstls	r0, r0, lsl #8
    1c58:	9c9f7fa0 	ldcls	15, cr7, [pc], {160}	; 0xa0
    1c5c:	a4000001 	strge	r0, [r0], #-1
    1c60:	01000001 	tsteq	r0, r1
    1c64:	01a45200 			; <UNDEFINED> instruction: 0x01a45200
    1c68:	01a40000 			; <UNDEFINED> instruction: 0x01a40000
    1c6c:	00010000 	andeq	r0, r1, r0
    1c70:	0001a45e 	andeq	sl, r1, lr, asr r4
    1c74:	0001b400 	andeq	fp, r1, r0, lsl #8
    1c78:	7e000300 	cdpvc	3, 0, cr0, cr0, cr0, {0}
    1c7c:	01b49f01 			; <UNDEFINED> instruction: 0x01b49f01
    1c80:	01c00000 	biceq	r0, r0, r0
    1c84:	00010000 	andeq	r0, r1, r0
    1c88:	0001c05e 	andeq	ip, r1, lr, asr r0
    1c8c:	00022800 	andeq	r2, r2, r0, lsl #16
    1c90:	91000400 	tstls	r0, r0, lsl #8
    1c94:	289f7fa0 	ldmcs	pc, {r5, r7, r8, r9, sl, fp, ip, sp, lr}	; <UNPREDICTABLE>
    1c98:	34000002 	strcc	r0, [r0], #-2
    1c9c:	01000002 	tsteq	r0, r2
    1ca0:	02345200 	eorseq	r5, r4, #0, 4
    1ca4:	02580000 	subseq	r0, r8, #0, 0
    1ca8:	00010000 	andeq	r0, r1, r0
    1cac:	0002585e 	andeq	r5, r2, lr, asr r8
    1cb0:	00025c00 	andeq	r5, r2, r0, lsl #24
    1cb4:	7e000300 	cdpvc	3, 0, cr0, cr0, cr0, {0}
    1cb8:	025c9f01 	subseq	r9, ip, #1, 30
    1cbc:	02640000 	rsbeq	r0, r4, #0, 0
    1cc0:	00010000 	andeq	r0, r1, r0
    1cc4:	0002645e 	andeq	r6, r2, lr, asr r4
    1cc8:	00027000 	andeq	r7, r2, r0
    1ccc:	71000300 	mrsvc	r0, LR_irq
    1cd0:	02709f02 	rsbseq	r9, r0, #2, 30
    1cd4:	02740000 	rsbseq	r0, r4, #0, 0
    1cd8:	00010000 	andeq	r0, r1, r0
    1cdc:	0002745e 	andeq	r7, r2, lr, asr r4
    1ce0:	00027400 	andeq	r7, r2, r0, lsl #8
    1ce4:	91000400 	tstls	r0, r0, lsl #8
    1ce8:	749f7fa0 	ldrvc	r7, [pc], #4000	; 1cf0 <__code_start__-0x6310>
    1cec:	a0000002 	andge	r0, r0, r2
    1cf0:	04000002 	streq	r0, [r0], #-2
    1cf4:	7fa19100 	svcvc	0x00a19100
    1cf8:	0002c09f 	muleq	r2, pc, r0	; <UNPREDICTABLE>
    1cfc:	0002c800 	andeq	ip, r2, r0, lsl #16
    1d00:	5e000100 	adfpls	f0, f0, f0
    1d04:	000002c8 	andeq	r0, r0, r8, asr #5
    1d08:	000002cc 	andeq	r0, r0, ip, asr #5
    1d0c:	cc560001 	mrrcgt	0, 0, r0, r6, cr1
    1d10:	ec000002 	stc	0, cr0, [r0], {2}
    1d14:	04000002 	streq	r0, [r0], #-2
    1d18:	7fa09100 	svcvc	0x00a09100
    1d1c:	0002ec9f 	muleq	r2, pc, ip	; <UNPREDICTABLE>
    1d20:	0002fc00 	andeq	pc, r2, r0, lsl #24
    1d24:	91000400 	tstls	r0, r0, lsl #8
    1d28:	fc9f7fa1 	ldc2	15, cr7, [pc], {161}	; 0xa1
    1d2c:	28000002 	stmdacs	r0, {r1}
    1d30:	01000003 	tsteq	r0, r3
    1d34:	00005e00 	andeq	r5, r0, r0, lsl #28
	...
    1d4c:	00010100 	andeq	r0, r1, r0, lsl #2
	...
    1d60:	00000020 	andeq	r0, r0, r0, lsr #32
    1d64:	00000070 	andeq	r0, r0, r0, ror r0
    1d68:	70520001 	subsvc	r0, r2, r1
    1d6c:	94000000 	strls	r0, [r0], #-0
    1d70:	01000000 	mrseq	r0, (UNDEF: 0)
    1d74:	01945c00 	orrseq	r5, r4, r0, lsl #24
    1d78:	019c0000 	orrseq	r0, ip, r0
    1d7c:	00010000 	andeq	r0, r1, r0
    1d80:	00019c52 	andeq	r9, r1, r2, asr ip
    1d84:	0001c000 	andeq	ip, r1, r0
    1d88:	5c000100 	stfpls	f0, [r0], {-0}
    1d8c:	000001c8 	andeq	r0, r0, r8, asr #3
    1d90:	00000210 	andeq	r0, r0, r0, lsl r2
    1d94:	105c0001 	subsne	r0, ip, r1
    1d98:	24000002 	strcs	r0, [r0], #-2
    1d9c:	01000002 	tsteq	r0, r2
    1da0:	02245200 	eoreq	r5, r4, #0, 4
    1da4:	02480000 	subeq	r0, r8, #0, 0
    1da8:	00010000 	andeq	r0, r1, r0
    1dac:	0002485c 	andeq	r4, r2, ip, asr r8
    1db0:	00025c00 	andeq	r5, r2, r0, lsl #24
    1db4:	55000100 	strpl	r0, [r0, #-256]	; 0xffffff00
    1db8:	0000025c 	andeq	r0, r0, ip, asr r2
    1dbc:	00000268 	andeq	r0, r0, r8, ror #4
    1dc0:	685c0001 	ldmdavs	ip, {r0}^
    1dc4:	74000002 	strvc	r0, [r0], #-2
    1dc8:	19000002 	stmdbne	r0, {r1}
    1dcc:	f7007500 			; <UNDEFINED> instruction: 0xf7007500
    1dd0:	7625f72c 	strtvc	pc, [r5], -ip, lsr #14
    1dd4:	f72cf700 			; <UNDEFINED> instruction: 0xf72cf700
    1dd8:	20081e25 	andcs	r1, r8, r5, lsr #28
    1ddc:	f72525f7 			; <UNDEFINED> instruction: 0xf72525f7
    1de0:	3300f72c 	movwcc	pc, #1836	; 0x72c	; <UNPREDICTABLE>
    1de4:	02749f25 	rsbseq	r9, r4, #148	; 0x94
    1de8:	02880000 	addeq	r0, r8, #0, 0
    1dec:	00010000 	andeq	r0, r1, r0
    1df0:	00028852 	andeq	r8, r2, r2, asr r8
    1df4:	0002a000 	andeq	sl, r2, r0
    1df8:	5c000100 	stfpls	f0, [r0], {-0}
    1dfc:	000002cc 	andeq	r0, r0, ip, asr #5
    1e00:	000002d0 	ldrdeq	r0, [r0], -r0	; <UNPREDICTABLE>
    1e04:	d0520001 	subsle	r0, r2, r1
    1e08:	e7000002 	str	r0, [r0, -r2]
    1e0c:	01000002 	tsteq	r0, r2
    1e10:	02e75c00 	rsceq	r5, r7, #0, 24
    1e14:	02ec0000 	rsceq	r0, ip, #0, 0
    1e18:	00040000 	andeq	r0, r4, r0
    1e1c:	9f5201f3 	svcls	0x005201f3
    1e20:	000002ec 	andeq	r0, r0, ip, ror #5
    1e24:	00000300 	andeq	r0, r0, r0, lsl #6
    1e28:	00520001 	subseq	r0, r2, r1
    1e2c:	28000003 	stmdacs	r0, {r0, r1}
    1e30:	01000003 	tsteq	r0, r3
    1e34:	00005c00 	andeq	r5, r0, r0, lsl #24
    1e38:	00000000 	andeq	r0, r0, r0
    1e3c:	00040000 	andeq	r0, r4, r0
    1e40:	01000004 	tsteq	r0, r4
    1e44:	00040000 	andeq	r0, r4, r0
    1e48:	000000a4 	andeq	r0, r0, r4, lsr #1
    1e4c:	000000b0 	strheq	r0, [r0], -r0	; <UNPREDICTABLE>
    1e50:	7c530001 	mrrcvc	0, 0, r0, r3, cr1
    1e54:	90000002 	andls	r0, r0, r2
    1e58:	01000002 	tsteq	r0, r2
    1e5c:	02905300 	addseq	r5, r0, #0, 6
    1e60:	029c0000 	addseq	r0, ip, #0, 0
    1e64:	00040000 	andeq	r0, r4, r0
    1e68:	9f5301f3 	svcls	0x005301f3
    1e6c:	000002c0 	andeq	r0, r0, r0, asr #5
    1e70:	000002cc 	andeq	r0, r0, ip, asr #5
    1e74:	f0530001 			; <UNDEFINED> instruction: 0xf0530001
    1e78:	28000002 	stmdacs	r0, {r1}
    1e7c:	03000003 	movweq	r0, #3
    1e80:	9f7f0800 	svcls	0x007f0800
	...
    1e8c:	01000004 	tsteq	r0, r4
    1e90:	01000004 	tsteq	r0, r4
    1e94:	00000000 	andeq	r0, r0, r0
    1e98:	00000004 	andeq	r0, r0, r4
    1e9c:	000000a4 	andeq	r0, r0, r4, lsr #1
    1ea0:	000000b0 	strheq	r0, [r0], -r0	; <UNPREDICTABLE>
    1ea4:	b0520001 	subslt	r0, r2, r1
    1ea8:	5c000000 	stcpl	0, cr0, [r0], {-0}
    1eac:	04000001 	streq	r0, [r0], #-1
    1eb0:	7fa09100 	svcvc	0x00a09100
    1eb4:	00027c9f 	muleq	r2, pc, ip	; <UNPREDICTABLE>
    1eb8:	00029400 	andeq	r9, r2, r0, lsl #8
    1ebc:	91000400 	tstls	r0, r0, lsl #8
    1ec0:	949f7fa0 	ldrls	r7, [pc], #4000	; 1ec8 <__code_start__-0x6138>
    1ec4:	9c000002 	stcls	0, cr0, [r0], {2}
    1ec8:	01000002 	tsteq	r0, r2
    1ecc:	02b45e00 	adcseq	r5, r4, #0, 28
    1ed0:	02c00000 	sbceq	r0, r0, #0, 0
    1ed4:	00040000 	andeq	r0, r4, r0
    1ed8:	9f7fa091 	svcls	0x007fa091
    1edc:	000002c0 	andeq	r0, r0, r0, asr #5
    1ee0:	000002cc 	andeq	r0, r0, ip, asr #5
    1ee4:	f0520001 			; <UNDEFINED> instruction: 0xf0520001
    1ee8:	00000002 	andeq	r0, r0, r2
    1eec:	04000003 	streq	r0, [r0], #-3
    1ef0:	7fa09100 	svcvc	0x00a09100
    1ef4:	0003009f 	muleq	r3, pc, r0	; <UNPREDICTABLE>
    1ef8:	00032800 	andeq	r2, r3, r0, lsl #16
    1efc:	52000100 	andpl	r0, r0, #0
	...
    1f08:	01000004 	tsteq	r0, r4
    1f0c:	03010101 	movweq	r0, #4353	; 0x1101
    1f10:	01040203 	tsteq	r4, r3, lsl #4
    1f14:	00000000 	andeq	r0, r0, r0
    1f18:	00000004 	andeq	r0, r0, r4
    1f1c:	000000a4 	andeq	r0, r0, r4, lsr #1
    1f20:	000000b0 	strheq	r0, [r0], -r0	; <UNPREDICTABLE>
    1f24:	0c5e0001 	mrrceq	0, 0, r0, lr, cr1
    1f28:	0c000001 	stceq	0, cr0, [r0], {1}
    1f2c:	01000001 	tsteq	r0, r1
    1f30:	010c5500 	tsteq	ip, r0, lsl #10
    1f34:	01200000 			; <UNDEFINED> instruction: 0x01200000
    1f38:	00030000 	andeq	r0, r3, r0
    1f3c:	209f0175 	addscs	r0, pc, r5, ror r1	; <UNPREDICTABLE>
    1f40:	2c000001 	stccs	0, cr0, [r0], {1}
    1f44:	03000001 	movweq	r0, #1
    1f48:	9f027500 	svcls	0x00027500
    1f4c:	0000012c 	andeq	r0, r0, ip, lsr #2
    1f50:	00000130 	andeq	r0, r0, r0, lsr r1
    1f54:	03750003 	cmneq	r5, #3, 0
    1f58:	00027c9f 	muleq	r2, pc, ip	; <UNPREDICTABLE>
    1f5c:	00029c00 	andeq	r9, r2, r0, lsl #24
    1f60:	91000400 	tstls	r0, r0, lsl #8
    1f64:	c09f7fa1 	addsgt	r7, pc, r1, lsr #31
    1f68:	c8000002 	stmdagt	r0, {r1}
    1f6c:	01000002 	tsteq	r0, r2
    1f70:	02c85e00 	sbceq	r5, r8, #0, 28
    1f74:	02cc0000 	sbceq	r0, ip, #0, 0
    1f78:	00010000 	andeq	r0, r1, r0
    1f7c:	0002f056 	andeq	pc, r2, r6, asr r0	; <UNPREDICTABLE>
    1f80:	0002fc00 	andeq	pc, r2, r0, lsl #24
    1f84:	91000400 	tstls	r0, r0, lsl #8
    1f88:	fc9f7fa1 	ldc2	15, cr7, [pc], {161}	; 0xa1
    1f8c:	28000002 	stmdacs	r0, {r1}
    1f90:	01000003 	tsteq	r0, r3
    1f94:	00005e00 	andeq	r5, r0, r0, lsl #28
	...
    1fa0:	01010100 	mrseq	r0, (UNDEF: 17)
    1fa4:	02010101 	andeq	r0, r1, #1073741824	; 0x40000000
    1fa8:	00000106 	andeq	r0, r0, r6, lsl #2
    1fac:	00a80006 	adceq	r0, r8, r6
    1fb0:	00b00000 	adcseq	r0, r0, r0
    1fb4:	00010000 	andeq	r0, r1, r0
    1fb8:	00010c51 	andeq	r0, r1, r1, asr ip
    1fbc:	00011c00 	andeq	r1, r1, r0, lsl #24
    1fc0:	5c000100 	stfpls	f0, [r0], {-0}
    1fc4:	0000011c 	andeq	r0, r0, ip, lsl r1
    1fc8:	0000012c 	andeq	r0, r0, ip, lsr #2
    1fcc:	2c580001 	mrrccs	0, 0, r0, r8, cr1
    1fd0:	30000001 	andcc	r0, r0, r1
    1fd4:	01000001 	tsteq	r0, r1
    1fd8:	01305c00 	teqeq	r0, r0, lsl #24
    1fdc:	01300000 	teqeq	r0, r0
    1fe0:	00030000 	andeq	r0, r3, r0
    1fe4:	7c9f017c 	ldfvcs	f0, [pc], {124}	; 0x7c
    1fe8:	9c000002 	stcls	0, cr0, [r0], {2}
    1fec:	02000002 	andeq	r0, r0, #2, 0
    1ff0:	c09f3100 	addsgt	r3, pc, r0, lsl #2
    1ff4:	cc000002 	stcgt	0, cr0, [r0], {2}
    1ff8:	01000002 	tsteq	r0, r2
    1ffc:	02f05100 	rscseq	r5, r0, #0
    2000:	03280000 			; <UNDEFINED> instruction: 0x03280000
    2004:	00020000 	andeq	r0, r2, r0
    2008:	00009f31 	andeq	r9, r0, r1, lsr pc
    200c:	00000000 	andeq	r0, r0, r0
    2010:	06010000 	streq	r0, [r1], -r0
    2014:	00010106 	andeq	r0, r1, r6, lsl #2
    2018:	015c0100 	cmpeq	ip, r0, lsl #2
    201c:	015c0000 	cmpeq	ip, r0
    2020:	00040000 	andeq	r0, r4, r0
    2024:	9f7fa091 	svcls	0x007fa091
    2028:	0000015c 	andeq	r0, r0, ip, asr r1
    202c:	0000018c 	andeq	r0, r0, ip, lsl #3
    2030:	9c520001 	mrrcls	0, 0, r0, r2, cr1
    2034:	a0000002 	andge	r0, r0, r2
    2038:	01000002 	tsteq	r0, r2
    203c:	02a05e00 	adceq	r5, r0, #0, 28
    2040:	02ac0000 	adceq	r0, ip, #0, 0
    2044:	00010000 	andeq	r0, r1, r0
    2048:	00000052 	andeq	r0, r0, r2, asr r0
	...
    2054:	01000101 	tsteq	r0, r1, lsl #2
    2058:	00016c07 	andeq	r6, r1, r7, lsl #24
    205c:	00017000 	andeq	r7, r1, r0
    2060:	73000300 	movwvc	r0, #768	; 0x300
    2064:	01709f7f 	cmneq	r0, pc, ror pc
    2068:	01780000 	cmneq	r8, r0
    206c:	00010000 	andeq	r0, r1, r0
    2070:	00017853 	andeq	r7, r1, r3, asr r8
    2074:	00018400 	andeq	r8, r1, r0, lsl #8
    2078:	73000300 	movwvc	r0, #768	; 0x300
    207c:	029c9f7f 	addseq	r9, ip, #508	; 0x1fc
    2080:	029c0000 	addseq	r0, ip, #0, 0
    2084:	00040000 	andeq	r0, r4, r0
    2088:	9f7fa191 	svcls	0x007fa191
	...
    2094:	01010101 	tsteq	r1, r1, lsl #2
    2098:	0000015c 	andeq	r0, r0, ip, asr r1
    209c:	0000018c 	andeq	r0, r0, ip, lsl #3
    20a0:	80080003 	andhi	r0, r8, r3
    20a4:	00029c9f 	muleq	r2, pc, ip	; <UNPREDICTABLE>
    20a8:	0002ac00 	andeq	sl, r2, r0, lsl #24
    20ac:	08000300 	stmdaeq	r0, {r8, r9}
    20b0:	00009f80 	andeq	r9, r0, r0, lsl #31
    20b4:	00000000 	andeq	r0, r0, r0
    20b8:	00010000 	andeq	r0, r1, r0
    20bc:	00010100 	andeq	r0, r1, r0, lsl #2
    20c0:	01010100 	mrseq	r0, (UNDEF: 17)
    20c4:	01010101 	tsteq	r1, r1, lsl #2
    20c8:	0000015c 	andeq	r0, r0, ip, asr r1
    20cc:	0000016c 	andeq	r0, r0, ip, ror #2
    20d0:	6c500001 	mrrcvs	0, 0, r0, r0, cr1	; <UNPREDICTABLE>
    20d4:	6c000001 	stcvs	0, cr0, [r0], {1}
    20d8:	03000001 	movweq	r0, #1
    20dc:	9f017c00 	svcls	0x00017c00
    20e0:	0000016c 	andeq	r0, r0, ip, ror #2
    20e4:	00000178 	andeq	r0, r0, r8, ror r1
    20e8:	027c0003 	rsbseq	r0, ip, #3, 0
    20ec:	0001789f 	muleq	r1, pc, r8	; <UNPREDICTABLE>
    20f0:	00018800 	andeq	r8, r1, r0, lsl #16
    20f4:	7c000300 	stcvc	3, cr0, [r0], {-0}
    20f8:	01889f01 	orreq	r9, r8, r1, lsl #30
    20fc:	018c0000 	orreq	r0, ip, r0
    2100:	00030000 	andeq	r0, r3, r0
    2104:	9c9f017e 	ldflss	f0, [pc], {126}	; 0x7e
    2108:	a4000002 	strge	r0, [r0], #-2
    210c:	01000002 	tsteq	r0, r2
    2110:	02a45000 	adceq	r5, r4, #0, 0
    2114:	02ac0000 	adceq	r0, ip, #0, 0
    2118:	00030000 	andeq	r0, r3, r0
    211c:	009f017e 	addseq	r0, pc, lr, ror r1	; <UNPREDICTABLE>
    2120:	00000000 	andeq	r0, r0, r0
    2124:	04000000 	streq	r0, [r0], #-0
    2128:	00000400 	andeq	r0, r0, r0, lsl #8
    212c:	00015c01 	andeq	r5, r1, r1, lsl #24
    2130:	00016000 	andeq	r6, r1, r0
    2134:	71000300 	mrsvc	r0, LR_irq
    2138:	029c9f01 	addseq	r9, ip, #1, 30
    213c:	02a00000 	adceq	r0, r0, #0, 0
    2140:	00020000 	andeq	r0, r2, r0
    2144:	02a09f32 	adceq	r9, r0, #200	; 0xc8
    2148:	02ac0000 	adceq	r0, ip, #0, 0
    214c:	00030000 	andeq	r0, r3, r0
    2150:	009f0171 	addseq	r0, pc, r1, ror r1	; <UNPREDICTABLE>
    2154:	00000000 	andeq	r0, r0, r0
    2158:	07000000 	streq	r0, [r0, -r0]
    215c:	5c000600 	stcpl	6, cr0, [r0], {-0}
    2160:	94000001 	strls	r0, [r0], #-1
    2164:	01000001 	tsteq	r0, r1
    2168:	029c5000 	addseq	r5, ip, #0, 0
    216c:	02b40000 	adcseq	r0, r4, #0, 0
    2170:	00010000 	andeq	r0, r1, r0
    2174:	00000050 	andeq	r0, r0, r0, asr r0
    2178:	00000000 	andeq	r0, r0, r0
    217c:	01010100 	mrseq	r0, (UNDEF: 17)
    2180:	00021400 	andeq	r1, r2, r0, lsl #8
    2184:	00022000 	andeq	r2, r2, r0
    2188:	30000200 	andcc	r0, r0, r0, lsl #4
    218c:	0002209f 	muleq	r2, pc, r0	; <UNPREDICTABLE>
    2190:	00023400 	andeq	r3, r2, r0, lsl #8
    2194:	31000200 	mrscc	r0, R8_usr
    2198:	0000009f 	muleq	r0, pc, r0	; <UNPREDICTABLE>
    219c:	00000000 	andeq	r0, r0, r0
    21a0:	01010000 	mrseq	r0, (UNDEF: 1)
    21a4:	01010000 	mrseq	r0, (UNDEF: 1)
    21a8:	01010000 	mrseq	r0, (UNDEF: 1)
    21ac:	01010000 	mrseq	r0, (UNDEF: 1)
    21b0:	01010000 	mrseq	r0, (UNDEF: 1)
    21b4:	02020000 	andeq	r0, r2, #0, 0
    21b8:	00008001 	andeq	r8, r0, r1
    21bc:	00008000 	andeq	r8, r0, r0
    21c0:	53000100 	movwpl	r0, #256	; 0x100
    21c4:	00000080 	andeq	r0, r0, r0, lsl #1
    21c8:	0000008c 	andeq	r0, r0, ip, lsl #1
    21cc:	04730003 	ldrbteq	r0, [r3], #-3
    21d0:	00008c9f 	muleq	r0, pc, ip	; <UNPREDICTABLE>
    21d4:	00009400 	andeq	r9, r0, r0, lsl #8
    21d8:	51000100 	mrspl	r0, (UNDEF: 16)
    21dc:	00000094 	muleq	r0, r4, r0
    21e0:	00000098 	muleq	r0, r8, r0
    21e4:	08730003 	ldmdaeq	r3!, {r0, r1}^
    21e8:	0000989f 	muleq	r0, pc, r8	; <UNPREDICTABLE>
    21ec:	0000a400 	andeq	sl, r0, r0, lsl #8
    21f0:	51000100 	mrspl	r0, (UNDEF: 16)
    21f4:	000000a4 	andeq	r0, r0, r4, lsr #1
    21f8:	000000a8 	andeq	r0, r0, r8, lsr #1
    21fc:	0c730003 	ldcleq	0, cr0, [r3], #-12
    2200:	0000a89f 	muleq	r0, pc, r8	; <UNPREDICTABLE>
    2204:	0000b400 	andeq	fp, r0, r0, lsl #8
    2208:	51000100 	mrspl	r0, (UNDEF: 16)
    220c:	000000b4 	strheq	r0, [r0], -r4
    2210:	000000b8 	strheq	r0, [r0], -r8
    2214:	10730003 	rsbsne	r0, r3, r3
    2218:	0000b89f 	muleq	r0, pc, r8	; <UNPREDICTABLE>
    221c:	0000c400 	andeq	ip, r0, r0, lsl #8
    2220:	51000100 	mrspl	r0, (UNDEF: 16)
    2224:	000000c4 	andeq	r0, r0, r4, asr #1
    2228:	000000c8 	andeq	r0, r0, r8, asr #1
    222c:	14730003 	ldrbtne	r0, [r3], #-3
    2230:	0000c89f 	muleq	r0, pc, r8	; <UNPREDICTABLE>
    2234:	0000d000 	andeq	sp, r0, r0
    2238:	51000100 	mrspl	r0, (UNDEF: 16)
    223c:	000000d0 	ldrdeq	r0, [r0], -r0	; <UNPREDICTABLE>
    2240:	000000d4 	ldrdeq	r0, [r0], -r4
    2244:	04710003 	ldrbteq	r0, [r1], #-3
    2248:	0000009f 	muleq	r0, pc, r0	; <UNPREDICTABLE>
    224c:	00000000 	andeq	r0, r0, r0
    2250:	d8000200 	stmdale	r0, {r9}
    2254:	e8000000 	stmda	r0, {}	; <UNPREDICTABLE>
    2258:	02000000 	andeq	r0, r0, #0, 0
    225c:	009f3100 	addseq	r3, pc, r0, lsl #2
    2260:	00000000 	andeq	r0, r0, r0
    2264:	04000000 	streq	r0, [r0], #-0
    2268:	ac010000 	stcge	0, cr0, [r1], {-0}
    226c:	b4000097 	strlt	r0, [r0], #-151	; 0xffffff69
    2270:	02000097 	andeq	r0, r0, #151, 0	; 0x97
    2274:	b49f3000 	ldrlt	r3, [pc], #0	; 227c <__code_start__-0x5d84>
    2278:	b4000097 	strlt	r0, [r0], #-151	; 0xffffff69
    227c:	01000097 	swpeq	r0, r7, [r0]	; <UNPREDICTABLE>
    2280:	00005300 	andeq	r5, r0, r0, lsl #6
    2284:	00000000 	andeq	r0, r0, r0
    2288:	00030000 	andeq	r0, r3, r0
    228c:	00000000 	andeq	r0, r0, r0
    2290:	97c00000 	strbls	r0, [r0, r0]
    2294:	97c40000 	strbls	r0, [r4, r0]
    2298:	00020000 	andeq	r0, r2, r0
    229c:	97c49f30 			; <UNDEFINED> instruction: 0x97c49f30
    22a0:	97c80000 	strbls	r0, [r8, r0]
    22a4:	00010000 	andeq	r0, r1, r0
    22a8:	0097c853 	addseq	ip, r7, r3, asr r8
    22ac:	0097cc00 	addseq	ip, r7, r0, lsl #24
    22b0:	73000500 	movwvc	r0, #1280	; 0x500
    22b4:	9f214000 	svcls	0x00214000
    22b8:	000097cc 	andeq	r9, r0, ip, asr #15
    22bc:	000097d0 	ldrdeq	r9, [r0], -r0
    22c0:	00530001 	subseq	r0, r3, r1
    22c4:	00000000 	andeq	r0, r0, r0
    22c8:	02000000 	andeq	r0, r0, #0, 0
    22cc:	80000000 	andhi	r0, r0, r0
    22d0:	84000097 	strhi	r0, [r0], #-151	; 0xffffff69
    22d4:	02000097 	andeq	r0, r0, #151, 0	; 0x97
    22d8:	849f3000 	ldrhi	r3, [pc], #0	; 22e0 <__code_start__-0x5d20>
    22dc:	88000097 	stmdahi	r0, {r0, r1, r2, r4, r7}
    22e0:	01000097 	swpeq	r0, r7, [r0]	; <UNPREDICTABLE>
    22e4:	00005000 	andeq	r5, r0, r0
    22e8:	00000000 	andeq	r0, r0, r0
    22ec:	00020000 	andeq	r0, r2, r0
    22f0:	00000000 	andeq	r0, r0, r0
    22f4:	97980000 	ldrls	r0, [r8, r0]
    22f8:	979c0000 	ldrls	r0, [ip, r0]
    22fc:	00020000 	andeq	r0, r2, r0
    2300:	979c9f30 			; <UNDEFINED> instruction: 0x979c9f30
    2304:	97a00000 	strls	r0, [r0, r0]!
    2308:	00010000 	andeq	r0, r1, r0
    230c:	0097a053 	addseq	sl, r7, r3, asr r0
    2310:	0097a400 	addseq	sl, r7, r0, lsl #8
    2314:	73000500 	movwvc	r0, #1280	; 0x500
    2318:	9f214000 	svcls	0x00214000
    231c:	000097a4 	andeq	r9, r0, r4, lsr #15
    2320:	000097ac 	andeq	r9, r0, ip, lsr #15
    2324:	00530001 	subseq	r0, r3, r1
	...
    2330:	c8000000 	stmdagt	r0, {}	; <UNPREDICTABLE>
    2334:	d8000000 	stmdale	r0, {}	; <UNPREDICTABLE>
    2338:	01000000 	mrseq	r0, (UNDEF: 0)
    233c:	00d85000 	sbcseq	r5, r8, r0
    2340:	011c0000 	tsteq	ip, r0
    2344:	00040000 	andeq	r0, r4, r0
    2348:	9f5001f3 	svcls	0x005001f3
	...
    2354:	00000002 	andeq	r0, r0, r2
    2358:	000000c8 	andeq	r0, r0, r8, asr #1
    235c:	000000d8 	ldrdeq	r0, [r0], -r8
    2360:	00700007 	rsbseq	r0, r0, r7
    2364:	1e03e80a 	cdpne	8, 0, cr14, cr3, cr10, {0}
    2368:	0000d89f 	muleq	r0, pc, r8	; <UNPREDICTABLE>
    236c:	00011c00 	andeq	r1, r1, r0, lsl #24
    2370:	f3000800 	vsub.i8	d0, d0, d0
    2374:	e80a5001 	stmda	sl, {r0, ip, lr}
    2378:	009f1e03 	addseq	r1, pc, r3, lsl #28
	...
    2384:	0000dc00 	andeq	sp, r0, r0, lsl #24
    2388:	00011c00 	andeq	r1, r1, r0, lsl #24
    238c:	54000100 	strpl	r0, [r0], #-256	; 0xffffff00
	...
    2398:	00f00001 	rscseq	r0, r0, r1
    239c:	011c0000 	tsteq	ip, r0
    23a0:	00010000 	andeq	r0, r1, r0
    23a4:	00000056 	andeq	r0, r0, r6, asr r0
	...
    23b0:	0000ec00 	andeq	lr, r0, r0, lsl #24
    23b4:	0000ef00 	andeq	lr, r0, r0, lsl #30
    23b8:	50000100 	andpl	r0, r0, r0, lsl #2
    23bc:	000000ef 	andeq	r0, r0, pc, ror #1
    23c0:	0000011c 	andeq	r0, r0, ip, lsl r1
    23c4:	00560001 	subseq	r0, r6, r1
	...
    23d0:	00010400 	andeq	r0, r1, r0, lsl #8
    23d4:	00010b00 	andeq	r0, r1, r0, lsl #22
    23d8:	50000100 	andpl	r0, r0, r0, lsl #2
	...
    23e8:	00000020 	andeq	r0, r0, r0, lsr #32
    23ec:	00000023 	andeq	r0, r0, r3, lsr #32
    23f0:	23500001 	cmpcs	r0, #1, 0
    23f4:	30000000 	andcc	r0, r0, r0
    23f8:	01000000 	mrseq	r0, (UNDEF: 0)
    23fc:	00005400 	andeq	r5, r0, r0, lsl #8
	...
    2408:	00300000 	eorseq	r0, r0, r0
    240c:	003b0000 	eorseq	r0, fp, r0
    2410:	00010000 	andeq	r0, r1, r0
    2414:	00003b50 	andeq	r3, r0, r0, asr fp
    2418:	00007800 	andeq	r7, r0, r0, lsl #16
    241c:	56000100 	strpl	r0, [r0], -r0, lsl #2
	...
    2428:	004c0001 	subeq	r0, ip, r1
    242c:	00780000 	rsbseq	r0, r8, r0
    2430:	00010000 	andeq	r0, r1, r0
    2434:	00000055 	andeq	r0, r0, r5, asr r0
	...
    2440:	00004800 	andeq	r4, r0, r0, lsl #16
    2444:	00004b00 	andeq	r4, r0, r0, lsl #22
    2448:	50000100 	andpl	r0, r0, r0, lsl #2
    244c:	0000004b 	andeq	r0, r0, fp, asr #32
    2450:	00000078 	andeq	r0, r0, r8, ror r0
    2454:	00550001 	subseq	r0, r5, r1
	...
    2460:	00006000 	andeq	r6, r0, r0
    2464:	00006700 	andeq	r6, r0, r0, lsl #14
    2468:	50000100 	andpl	r0, r0, r0, lsl #2
	...
    2478:	00000078 	andeq	r0, r0, r8, ror r0
    247c:	00000084 	andeq	r0, r0, r4, lsl #1
    2480:	84500001 	ldrbhi	r0, [r0], #-1
    2484:	c8000000 	stmdagt	r0, {}	; <UNPREDICTABLE>
    2488:	04000000 	streq	r0, [r0], #-0
    248c:	5001f300 	andpl	pc, r1, r0, lsl #6
    2490:	0000009f 	muleq	r0, pc, r0	; <UNPREDICTABLE>
    2494:	00000000 	andeq	r0, r0, r0
    2498:	88000000 	stmdahi	r0, {}	; <UNPREDICTABLE>
    249c:	c8000000 	stmdagt	r0, {}	; <UNPREDICTABLE>
    24a0:	01000000 	mrseq	r0, (UNDEF: 0)
    24a4:	00005400 	andeq	r5, r0, r0, lsl #8
    24a8:	00000000 	andeq	r0, r0, r0
    24ac:	00010000 	andeq	r0, r1, r0
    24b0:	0000009c 	muleq	r0, ip, r0
    24b4:	000000c8 	andeq	r0, r0, r8, asr #1
    24b8:	00560001 	subseq	r0, r6, r1
	...
    24c4:	98000000 	stmdals	r0, {}	; <UNPREDICTABLE>
    24c8:	9b000000 	blls	24d0 <__code_start__-0x5b30>
    24cc:	01000000 	mrseq	r0, (UNDEF: 0)
    24d0:	009b5000 	addseq	r5, fp, r0
    24d4:	00c80000 	sbceq	r0, r8, r0
    24d8:	00010000 	andeq	r0, r1, r0
    24dc:	00000056 	andeq	r0, r0, r6, asr r0
    24e0:	00000000 	andeq	r0, r0, r0
    24e4:	b0000000 	andlt	r0, r0, r0
    24e8:	b7000000 	strlt	r0, [r0, -r0]
    24ec:	01000000 	mrseq	r0, (UNDEF: 0)
    24f0:	00005000 	andeq	r5, r0, r0
	...
    24fc:	01580000 	cmpeq	r8, r0
    2500:	01630000 	cmneq	r3, r0
    2504:	00010000 	andeq	r0, r1, r0
    2508:	00016350 	andeq	r6, r1, r0, asr r3
    250c:	00018800 	andeq	r8, r1, r0, lsl #16
    2510:	54000100 	strpl	r0, [r0], #-256	; 0xffffff00
	...
    251c:	01480000 	mrseq	r0, (UNDEF: 72)
    2520:	01580000 	cmpeq	r8, r0
    2524:	00010000 	andeq	r0, r1, r0
    2528:	00000054 	andeq	r0, r0, r4, asr r0
	...
    2538:	00000f00 	andeq	r0, r0, r0, lsl #30
    253c:	50000100 	andpl	r0, r0, r0, lsl #2
    2540:	0000000f 	andeq	r0, r0, pc
    2544:	00000020 	andeq	r0, r0, r0, lsr #32
    2548:	00540001 	subseq	r0, r4, r1
	...
    2558:	0f000000 	svceq	0x00000000
    255c:	01000000 	mrseq	r0, (UNDEF: 0)
    2560:	000f5100 	andeq	r5, pc, r0, lsl #2
    2564:	00200000 	eoreq	r0, r0, r0
    2568:	00010000 	andeq	r0, r1, r0
    256c:	00000055 	andeq	r0, r0, r5, asr r0
	...
    2578:	00002000 	andeq	r2, r0, r0
    257c:	00002f00 	andeq	r2, r0, r0, lsl #30
    2580:	50000100 	andpl	r0, r0, r0, lsl #2
    2584:	0000002f 	andeq	r0, r0, pc, lsr #32
    2588:	00000040 	andeq	r0, r0, r0, asr #32
    258c:	00540001 	subseq	r0, r4, r1
	...
    2598:	20000000 	andcs	r0, r0, r0
    259c:	2f000000 	svccs	0x00000000
    25a0:	01000000 	mrseq	r0, (UNDEF: 0)
    25a4:	002f5100 	eoreq	r5, pc, r0, lsl #2
    25a8:	00400000 	subeq	r0, r0, r0
    25ac:	00010000 	andeq	r0, r1, r0
    25b0:	00000055 	andeq	r0, r0, r5, asr r0
	...
    25bc:	50000000 	andpl	r0, r0, r0
    25c0:	98000003 	stmdals	r0, {r0, r1}
    25c4:	01000003 	tsteq	r0, r3
    25c8:	03985000 	orrseq	r5, r8, #0, 0
    25cc:	039b0000 	orrseq	r0, fp, #0, 0
    25d0:	00020000 	andeq	r0, r2, r0
    25d4:	039b6891 	orrseq	r6, fp, #9502720	; 0x910000
    25d8:	03b00000 	movseq	r0, #0, 0
    25dc:	00040000 	andeq	r0, r4, r0
    25e0:	9f5001f3 	svcls	0x005001f3
	...
    2600:	00000220 	andeq	r0, r0, r0, lsr #4
    2604:	0000027b 	andeq	r0, r0, fp, ror r2
    2608:	7b500001 	blvc	1402614 <__bss_end__+0x13f7824>
    260c:	84000002 	strhi	r0, [r0], #-2
    2610:	04000002 	streq	r0, [r0], #-2
    2614:	5001f300 	andpl	pc, r1, r0, lsl #6
    2618:	0002849f 	muleq	r2, pc, r4	; <UNPREDICTABLE>
    261c:	00029c00 	andeq	r9, r2, r0, lsl #24
    2620:	50000100 	andpl	r0, r0, r0, lsl #2
    2624:	0000029c 	muleq	r0, ip, r2
    2628:	000002a4 	andeq	r0, r0, r4, lsr #5
    262c:	01f30004 	mvnseq	r0, r4
    2630:	02a49f50 	adceq	r9, r4, #80, 30	; 0x140
    2634:	02a70000 	adceq	r0, r7, #0, 0
    2638:	00010000 	andeq	r0, r1, r0
    263c:	0002a750 	andeq	sl, r2, r0, asr r7
    2640:	0002c800 	andeq	ip, r2, r0, lsl #16
    2644:	f3000400 	vshl.u8	d0, d0, d0
    2648:	c89f5001 	ldmgt	pc, {r0, ip, lr}	; <UNPREDICTABLE>
    264c:	e0000002 	and	r0, r0, r2
    2650:	01000002 	tsteq	r0, r2
    2654:	02e05000 	rsceq	r5, r0, #0, 0
    2658:	02e80000 	rsceq	r0, r8, #0, 0
    265c:	00040000 	andeq	r0, r4, r0
    2660:	9f5001f3 	svcls	0x005001f3
    2664:	000002e8 	andeq	r0, r0, r8, ror #5
    2668:	000002eb 	andeq	r0, r0, fp, ror #5
    266c:	eb500001 	bl	1402678 <__bss_end__+0x13f7888>
    2670:	38000002 	stmdacc	r0, {r1}
    2674:	04000003 	streq	r0, [r0], #-3
    2678:	5001f300 	andpl	pc, r1, r0, lsl #6
    267c:	0000009f 	muleq	r0, pc, r0	; <UNPREDICTABLE>
	...
    2698:	00022000 	andeq	r2, r2, r0
    269c:	00024400 	andeq	r4, r2, r0, lsl #8
    26a0:	51000100 	mrspl	r0, (UNDEF: 16)
    26a4:	00000244 	andeq	r0, r0, r4, asr #4
    26a8:	00000268 	andeq	r0, r0, r8, ror #4
    26ac:	68510001 	ldmdavs	r1, {r0}^
    26b0:	7b000002 	blvc	26c0 <__code_start__-0x5940>
    26b4:	03000002 	movweq	r0, #2
    26b8:	9f017100 	svcls	0x00017100
    26bc:	0000027b 	andeq	r0, r0, fp, ror r2
    26c0:	00000284 	andeq	r0, r0, r4, lsl #5
    26c4:	f3380017 	vqadd.u64	d0, d8, d7
    26c8:	01f35101 	mvnseq	r5, r1, lsl #2
    26cc:	244b4051 	strbcs	r4, [fp], #-81	; 0xffffffaf
    26d0:	00080c22 	andeq	r0, r8, r2, lsr #24
    26d4:	282d8000 	stmdacs	sp!, {pc}
    26d8:	13160001 	tstne	r6, #1, 0
    26dc:	0002849f 	muleq	r2, pc, r4	; <UNPREDICTABLE>
    26e0:	00029800 	andeq	r9, r2, r0, lsl #16
    26e4:	51000100 	mrspl	r0, (UNDEF: 16)
    26e8:	00000298 	muleq	r0, r8, r2
    26ec:	000002a4 	andeq	r0, r0, r4, lsr #5
    26f0:	01f30004 	mvnseq	r0, r4
    26f4:	02a49f51 	adceq	r9, r4, #324	; 0x144
    26f8:	02a70000 	adceq	r0, r7, #0, 0
    26fc:	00010000 	andeq	r0, r1, r0
    2700:	0002a751 	andeq	sl, r2, r1, asr r7
    2704:	0002c800 	andeq	ip, r2, r0, lsl #16
    2708:	f3000400 	vshl.u8	d0, d0, d0
    270c:	c89f5101 	ldmgt	pc, {r0, r8, ip, lr}	; <UNPREDICTABLE>
    2710:	dc000002 	stcle	0, cr0, [r0], {2}
    2714:	01000002 	tsteq	r0, r2
    2718:	02dc5100 	sbcseq	r5, ip, #0
    271c:	03380000 	teqeq	r8, #0, 0
    2720:	00170000 	andseq	r0, r7, r0
    2724:	5101f338 	tstpl	r1, r8, lsr r3	; <UNPREDICTABLE>
    2728:	405101f3 	ldrshmi	r0, [r1], #-19	; 0xffffffed
    272c:	0c22244b 	cfstrseq	mvf2, [r2], #-300	; 0xfffffed4
    2730:	80000008 	andhi	r0, r0, r8
    2734:	0001282d 	andeq	r2, r1, sp, lsr #16
    2738:	009f1316 	addseq	r1, pc, r6, lsl r3	; <UNPREDICTABLE>
	...
    274c:	4c000000 	stcmi	0, cr0, [r0], {-0}
    2750:	5c000002 	stcpl	0, cr0, [r0], {2}
    2754:	01000002 	tsteq	r0, r2
    2758:	025c5200 	subseq	r5, ip, #0, 4
    275c:	02640000 	rsbeq	r0, r4, #0, 0
    2760:	00050000 	andeq	r0, r5, r0
    2764:	00a9b403 	adceq	fp, r9, r3, lsl #8
    2768:	00026400 	andeq	r6, r2, r0, lsl #8
    276c:	00027b00 	andeq	r7, r2, r0, lsl #22
    2770:	53000100 	movwpl	r0, #256	; 0x100
    2774:	000002c8 	andeq	r0, r0, r8, asr #5
    2778:	000002d8 	ldrdeq	r0, [r0], -r8
    277c:	d8520001 	ldmdale	r2, {r0}^
    2780:	e3000002 	movw	r0, #2
    2784:	05000002 	streq	r0, [r0, #-2]
    2788:	a9b40300 	ldmibge	r4!, {r8, r9}
    278c:	02e80000 	rsceq	r0, r8, #0, 0
    2790:	02eb0000 	rsceq	r0, fp, #0, 0
    2794:	00010000 	andeq	r0, r1, r0
    2798:	00000053 	andeq	r0, r0, r3, asr r0
    279c:	00000000 	andeq	r0, r0, r0
    27a0:	30000400 	andcc	r0, r0, r0, lsl #8
    27a4:	34000002 	strcc	r0, [r0], #-2
    27a8:	01000002 	tsteq	r0, r2
    27ac:	00005100 	andeq	r5, r0, r0, lsl #2
    27b0:	00000000 	andeq	r0, r0, r0
    27b4:	00020000 	andeq	r0, r2, r0
    27b8:	0000023c 	andeq	r0, r0, ip, lsr r2
    27bc:	00000244 	andeq	r0, r0, r4, asr #4
    27c0:	9f380002 	svcls	0x00380002
	...
    27cc:	023c0002 	eorseq	r0, ip, #2, 0
    27d0:	02440000 	subeq	r0, r4, #0, 0
    27d4:	00010000 	andeq	r0, r1, r0
    27d8:	00000051 	andeq	r0, r0, r1, asr r0
    27dc:	00000000 	andeq	r0, r0, r0
    27e0:	00000100 	andeq	r0, r0, r0, lsl #2
    27e4:	4c000000 	stcmi	0, cr0, [r0], {-0}
    27e8:	64000002 	strvs	r0, [r0], #-2
    27ec:	01000002 	tsteq	r0, r2
    27f0:	02c85100 	sbceq	r5, r8, #0
    27f4:	02dc0000 	sbcseq	r0, ip, #0, 0
    27f8:	00010000 	andeq	r0, r1, r0
    27fc:	0002dc51 	andeq	sp, r2, r1, asr ip
    2800:	0002e800 	andeq	lr, r2, r0, lsl #16
    2804:	38001700 	stmdacc	r0, {r8, r9, sl, ip}
    2808:	f35101f3 	vbsl	q8, <illegal reg q8.5>, <illegal reg q9.5>
    280c:	4b405101 	blmi	1016c18 <__bss_end__+0x100be28>
    2810:	080c2224 	stmdaeq	ip, {r2, r5, r9, sp}
    2814:	2d800000 	stccs	0, cr0, [r0]
    2818:	16000128 	strne	r0, [r0], -r8, lsr #2
    281c:	00009f13 	andeq	r9, r0, r3, lsl pc
    2820:	00000000 	andeq	r0, r0, r0
    2824:	00010000 	andeq	r0, r1, r0
    2828:	00000000 	andeq	r0, r0, r0
    282c:	024c0000 	subeq	r0, ip, #0, 0
    2830:	025c0000 	subseq	r0, ip, #0, 0
    2834:	00010000 	andeq	r0, r1, r0
    2838:	00025c52 	andeq	r5, r2, r2, asr ip
    283c:	00026400 	andeq	r6, r2, r0, lsl #8
    2840:	03000500 	movweq	r0, #1280	; 0x500
    2844:	0000a9b4 			; <UNDEFINED> instruction: 0x0000a9b4
    2848:	000002c8 	andeq	r0, r0, r8, asr #5
    284c:	000002d8 	ldrdeq	r0, [r0], -r8
    2850:	d8520001 	ldmdale	r2, {r0}^
    2854:	e3000002 	movw	r0, #2
    2858:	05000002 	streq	r0, [r0, #-2]
    285c:	a9b40300 	ldmibge	r4!, {r8, r9}
	...
    2868:	00040000 	andeq	r0, r4, r0
    286c:	0000024c 	andeq	r0, r0, ip, asr #4
    2870:	00000250 	andeq	r0, r0, r0, asr r2
    2874:	00510001 	subseq	r0, r1, r1
    2878:	00000000 	andeq	r0, r0, r0
    287c:	03000000 	movweq	r0, #0
    2880:	00026400 	andeq	r6, r2, r0, lsl #8
    2884:	00026800 	andeq	r6, r2, r0, lsl #16
    2888:	51000100 	mrspl	r0, (UNDEF: 16)
	...
    2894:	02640003 	rsbeq	r0, r4, #3, 0
    2898:	02680000 	rsbeq	r0, r8, #0, 0
    289c:	00010000 	andeq	r0, r1, r0
    28a0:	00000053 	andeq	r0, r0, r3, asr r0
	...
    28b0:	0001bc00 	andeq	fp, r1, r0, lsl #24
    28b4:	0001d300 	andeq	sp, r1, r0, lsl #6
    28b8:	50000100 	andpl	r0, r0, r0, lsl #2
    28bc:	000001d3 	ldrdeq	r0, [r0], -r3
    28c0:	000001f0 	strdeq	r0, [r0], -r0	; <UNPREDICTABLE>
    28c4:	f0540001 			; <UNDEFINED> instruction: 0xf0540001
    28c8:	08000001 	stmdaeq	r0, {r0}
    28cc:	01000002 	tsteq	r0, r2
    28d0:	02085000 	andeq	r5, r8, #0, 0
    28d4:	02200000 	eoreq	r0, r0, #0, 0
    28d8:	00010000 	andeq	r0, r1, r0
    28dc:	00000054 	andeq	r0, r0, r4, asr r0
	...
    28e8:	0001d800 	andeq	sp, r1, r0, lsl #16
    28ec:	0001e300 	andeq	lr, r1, r0, lsl #6
    28f0:	50000100 	andpl	r0, r0, r0, lsl #2
    28f4:	000001e3 	andeq	r0, r0, r3, ror #3
    28f8:	000001f0 	strdeq	r0, [r0], -r0	; <UNPREDICTABLE>
    28fc:	00550001 	subseq	r0, r5, r1
	...
    2914:	24000000 	strcs	r0, [r0], #-0
    2918:	38000001 	stmdacc	r0, {r0}
    291c:	01000001 	tsteq	r0, r1
    2920:	01385000 	teqeq	r8, r0
    2924:	013c0000 	teqeq	ip, r0
    2928:	00030000 	andeq	r0, r3, r0
    292c:	3c9f7970 			; <UNDEFINED> instruction: 0x3c9f7970
    2930:	60000001 	andvs	r0, r0, r1
    2934:	01000001 	tsteq	r0, r1
    2938:	01605300 	cmneq	r0, r0, lsl #6
    293c:	01780000 	cmneq	r8, r0
    2940:	00010000 	andeq	r0, r1, r0
    2944:	00017850 	andeq	r7, r1, r0, asr r8
    2948:	00018000 	andeq	r8, r1, r0
    294c:	f3000400 	vshl.u8	d0, d0, d0
    2950:	809f5001 	addshi	r5, pc, r1
    2954:	90000001 	andls	r0, r0, r1
    2958:	01000001 	tsteq	r0, r1
    295c:	01905300 	orrseq	r5, r0, r0, lsl #6
    2960:	019f0000 	orrseq	r0, pc, r0
    2964:	00020000 	andeq	r0, r2, r0
    2968:	019f6891 			; <UNDEFINED> instruction: 0x019f6891
    296c:	01bc0000 			; <UNDEFINED> instruction: 0x01bc0000
    2970:	00090000 	andeq	r0, r9, r0
    2974:	235001f3 	cmpcs	r0, #-1073741764	; 0xc000003c
    2978:	1af80907 	bne	ffe04d9c <__bss_end__+0xffdf9fac>
    297c:	0000009f 	muleq	r0, pc, r0	; <UNPREDICTABLE>
	...
    2988:	00014400 	andeq	r4, r1, r0, lsl #8
    298c:	00016000 	andeq	r6, r1, r0
    2990:	50000100 	andpl	r0, r0, r0, lsl #2
    2994:	00000180 	andeq	r0, r0, r0, lsl #3
    2998:	0000019c 	muleq	r0, ip, r1
    299c:	00500001 	subseq	r0, r0, r1
    29a0:	00000000 	andeq	r0, r0, r0
    29a4:	03000000 	movweq	r0, #0
    29a8:	00013400 	andeq	r3, r1, r0, lsl #8
    29ac:	00013c00 	andeq	r3, r1, r0, lsl #24
    29b0:	38000200 	stmdacc	r0, {r9}
    29b4:	0000009f 	muleq	r0, pc, r0	; <UNPREDICTABLE>
    29b8:	00000000 	andeq	r0, r0, r0
    29bc:	00000300 	andeq	r0, r0, r0, lsl #6
    29c0:	00013400 	andeq	r3, r1, r0, lsl #8
    29c4:	00013800 	andeq	r3, r1, r0, lsl #16
    29c8:	50000100 	andpl	r0, r0, r0, lsl #2
    29cc:	00000138 	andeq	r0, r0, r8, lsr r1
    29d0:	0000013c 	andeq	r0, r0, ip, lsr r1
    29d4:	79700003 	ldmdbvc	r0!, {r0, r1}^
    29d8:	0000009f 	muleq	r0, pc, r0	; <UNPREDICTABLE>
	...
    29ec:	30000000 	andcc	r0, r0, r0
    29f0:	60000000 	andvs	r0, r0, r0
    29f4:	01000000 	mrseq	r0, (UNDEF: 0)
    29f8:	00605000 	rsbeq	r5, r0, r0
    29fc:	006c0000 	rsbeq	r0, ip, r0
    2a00:	00050000 	andeq	r0, r5, r0
    2a04:	00a9b403 	adceq	fp, r9, r3, lsl #8
    2a08:	00006c00 	andeq	r6, r0, r0, lsl #24
    2a0c:	00008400 	andeq	r8, r0, r0, lsl #8
    2a10:	50000100 	andpl	r0, r0, r0, lsl #2
    2a14:	00000084 	andeq	r0, r0, r4, lsl #1
    2a18:	0000008c 	andeq	r0, r0, ip, lsl #1
    2a1c:	01f30004 	mvnseq	r0, r4
    2a20:	008c9f50 	addeq	r9, ip, r0, asr pc
    2a24:	00ac0000 	adceq	r0, ip, r0
    2a28:	00010000 	andeq	r0, r1, r0
    2a2c:	0000ac50 	andeq	sl, r0, r0, asr ip
    2a30:	0000af00 	andeq	sl, r0, r0, lsl #30
    2a34:	91000200 	mrsls	r0, R8_usr
    2a38:	0000af68 	andeq	sl, r0, r8, ror #30
    2a3c:	0000cc00 	andeq	ip, r0, r0, lsl #24
    2a40:	f3000400 	vshl.u8	d0, d0, d0
    2a44:	009f5001 	addseq	r5, pc, r1
	...
    2a54:	30000000 	andcc	r0, r0, r0
    2a58:	80000000 	andhi	r0, r0, r0
    2a5c:	01000000 	mrseq	r0, (UNDEF: 0)
    2a60:	00805100 	addeq	r5, r0, r0, lsl #2
    2a64:	008c0000 	addeq	r0, ip, r0
    2a68:	00040000 	andeq	r0, r4, r0
    2a6c:	9f5101f3 	svcls	0x005101f3
    2a70:	0000008c 	andeq	r0, r0, ip, lsl #1
    2a74:	000000a8 	andeq	r0, r0, r8, lsr #1
    2a78:	a8510001 	ldmdage	r1, {r0}^
    2a7c:	cc000000 	stcgt	0, cr0, [r0], {-0}
    2a80:	04000000 	streq	r0, [r0], #-0
    2a84:	5101f300 	mrspl	pc, SP_irq	; <UNPREDICTABLE>
    2a88:	0000009f 	muleq	r0, pc, r0	; <UNPREDICTABLE>
    2a8c:	00000000 	andeq	r0, r0, r0
    2a90:	00000100 	andeq	r0, r0, r0, lsl #2
	...
    2a9c:	38000000 	stmdacc	r0, {}	; <UNPREDICTABLE>
    2aa0:	60000000 	andvs	r0, r0, r0
    2aa4:	01000000 	mrseq	r0, (UNDEF: 0)
    2aa8:	00605000 	rsbeq	r5, r0, r0
    2aac:	006c0000 	rsbeq	r0, ip, r0
    2ab0:	00050000 	andeq	r0, r5, r0
    2ab4:	00a9b403 	adceq	fp, r9, r3, lsl #8
    2ab8:	00006c00 	andeq	r6, r0, r0, lsl #24
    2abc:	00008400 	andeq	r8, r0, r0, lsl #8
    2ac0:	50000100 	andpl	r0, r0, r0, lsl #2
    2ac4:	00000084 	andeq	r0, r0, r4, lsl #1
    2ac8:	0000008c 	andeq	r0, r0, ip, lsl #1
    2acc:	01f30004 	mvnseq	r0, r4
    2ad0:	008c9f50 	addeq	r9, ip, r0, asr pc
    2ad4:	00ac0000 	adceq	r0, ip, r0
    2ad8:	00010000 	andeq	r0, r1, r0
    2adc:	0000ac50 	andeq	sl, r0, r0, asr ip
    2ae0:	0000af00 	andeq	sl, r0, r0, lsl #30
    2ae4:	91000200 	mrsls	r0, R8_usr
    2ae8:	0000af68 	andeq	sl, r0, r8, ror #30
    2aec:	0000cc00 	andeq	ip, r0, r0, lsl #24
    2af0:	f3000400 	vshl.u8	d0, d0, d0
    2af4:	009f5001 	addseq	r5, pc, r1
	...
    2b04:	00017000 	andeq	r7, r1, r0
    2b08:	00017c00 	andeq	r7, r1, r0, lsl #24
    2b0c:	50000100 	andpl	r0, r0, r0, lsl #2
    2b10:	0000017c 	andeq	r0, r0, ip, ror r1
    2b14:	00000188 	andeq	r0, r0, r8, lsl #3
    2b18:	88540001 	ldmdahi	r4, {r0}^
    2b1c:	98000001 	stmdals	r0, {r0}
    2b20:	04000001 	streq	r0, [r0], #-1
    2b24:	5001f300 	andpl	pc, r1, r0, lsl #6
    2b28:	0000009f 	muleq	r0, pc, r0	; <UNPREDICTABLE>
	...
    2b38:	78000000 	stmdavc	r0, {}	; <UNPREDICTABLE>
    2b3c:	7c000001 	stcvc	0, cr0, [r0], {1}
    2b40:	0b000001 	bleq	2b4c <__code_start__-0x54b4>
    2b44:	35007000 	strcc	r7, [r0, #-0]
    2b48:	80b42325 	adcshi	r2, r4, r5, lsr #6
    2b4c:	9f028180 	svcls	0x00028180
    2b50:	0000017c 	andeq	r0, r0, ip, ror r1
    2b54:	00000180 	andeq	r0, r0, r0, lsl #3
    2b58:	0074000b 	rsbseq	r0, r4, fp
    2b5c:	b4232535 	strtlt	r2, [r3], #-1333	; 0xfffffacb
    2b60:	02818080 	addeq	r8, r1, #128, 0	; 0x80
    2b64:	0001809f 	muleq	r1, pc, r0	; <UNPREDICTABLE>
    2b68:	00018300 	andeq	r8, r1, r0, lsl #6
    2b6c:	50000100 	andpl	r0, r0, r0, lsl #2
    2b70:	00000183 	andeq	r0, r0, r3, lsl #3
    2b74:	00000188 	andeq	r0, r0, r8, lsl #3
    2b78:	0074000b 	rsbseq	r0, r4, fp
    2b7c:	b4232535 	strtlt	r2, [r3], #-1333	; 0xfffffacb
    2b80:	02818080 	addeq	r8, r1, #128, 0	; 0x80
    2b84:	0001889f 	muleq	r1, pc, r8	; <UNPREDICTABLE>
    2b88:	00019800 	andeq	r9, r1, r0, lsl #16
    2b8c:	f3000c00 			; <UNDEFINED> instruction: 0xf3000c00
    2b90:	25355001 	ldrcs	r5, [r5, #-1]!
    2b94:	8080b423 	addhi	fp, r0, r3, lsr #8
    2b98:	009f0281 	addseq	r0, pc, r1, lsl #5
    2b9c:	00000000 	andeq	r0, r0, r0
    2ba0:	01000000 	mrseq	r0, (UNDEF: 0)
    2ba4:	00000000 	andeq	r0, r0, r0
    2ba8:	00017800 	andeq	r7, r1, r0, lsl #16
    2bac:	00017c00 	andeq	r7, r1, r0, lsl #24
    2bb0:	70000500 	andvc	r0, r0, r0, lsl #10
    2bb4:	9f1a4f00 	svcls	0x001a4f00
    2bb8:	0000017c 	andeq	r0, r0, ip, ror r1
    2bbc:	00000188 	andeq	r0, r0, r8, lsl #3
    2bc0:	00740005 	rsbseq	r0, r4, r5
    2bc4:	889f1a4f 	ldmhi	pc, {r0, r1, r2, r3, r6, r9, fp, ip}	; <UNPREDICTABLE>
    2bc8:	98000001 	stmdals	r0, {r0}
    2bcc:	01000001 	tsteq	r0, r1
    2bd0:	00005400 	andeq	r5, r0, r0, lsl #8
	...
    2be4:	01400000 	mrseq	r0, (UNDEF: 64)
    2be8:	01540000 	cmpeq	r4, r0
    2bec:	00010000 	andeq	r0, r1, r0
    2bf0:	00015450 	andeq	r5, r1, r0, asr r4
    2bf4:	00015800 	andeq	r5, r1, r0, lsl #16
    2bf8:	51000100 	mrspl	r0, (UNDEF: 16)
    2bfc:	00000158 	andeq	r0, r0, r8, asr r1
    2c00:	0000015c 	andeq	r0, r0, ip, asr r1
    2c04:	01f30004 	mvnseq	r0, r4
    2c08:	015c9f50 	cmpeq	ip, r0, asr pc
    2c0c:	01600000 	cmneq	r0, r0
    2c10:	00010000 	andeq	r0, r1, r0
    2c14:	00016050 	andeq	r6, r1, r0, asr r0
    2c18:	00016400 	andeq	r6, r1, r0, lsl #8
    2c1c:	51000100 	mrspl	r0, (UNDEF: 16)
    2c20:	00000164 	andeq	r0, r0, r4, ror #2
    2c24:	00000170 	andeq	r0, r0, r0, ror r1
    2c28:	01f30004 	mvnseq	r0, r4
    2c2c:	00009f50 	andeq	r9, r0, r0, asr pc
	...
    2c38:	01400000 	mrseq	r0, (UNDEF: 64)
    2c3c:	014c0000 	mrseq	r0, (UNDEF: 76)
    2c40:	00010000 	andeq	r0, r1, r0
    2c44:	00014c51 	andeq	r4, r1, r1, asr ip
    2c48:	00017000 	andeq	r7, r1, r0
    2c4c:	f3000400 	vshl.u8	d0, d0, d0
    2c50:	009f5101 	addseq	r5, pc, r1, lsl #2
    2c54:	00000000 	andeq	r0, r0, r0
    2c58:	01000000 	mrseq	r0, (UNDEF: 0)
    2c5c:	00000000 	andeq	r0, r0, r0
    2c60:	00015000 	andeq	r5, r1, r0
    2c64:	00015400 	andeq	r5, r1, r0, lsl #8
    2c68:	50000100 	andpl	r0, r0, r0, lsl #2
    2c6c:	00000154 	andeq	r0, r0, r4, asr r1
    2c70:	00000158 	andeq	r0, r0, r8, asr r1
    2c74:	58510001 	ldmdapl	r1, {r0}^
    2c78:	5c000001 	stcpl	0, cr0, [r0], {1}
    2c7c:	04000001 	streq	r0, [r0], #-1
    2c80:	5001f300 	andpl	pc, r1, r0, lsl #6
    2c84:	0000009f 	muleq	r0, pc, r0	; <UNPREDICTABLE>
    2c88:	00000000 	andeq	r0, r0, r0
    2c8c:	00000200 	andeq	r0, r0, r0, lsl #4
    2c90:	5c000000 	stcpl	0, cr0, [r0], {-0}
    2c94:	60000001 	andvs	r0, r0, r1
    2c98:	01000001 	tsteq	r0, r1
    2c9c:	01605000 	cmneq	r0, r0
    2ca0:	01640000 	cmneq	r4, r0
    2ca4:	00010000 	andeq	r0, r1, r0
    2ca8:	00016451 	andeq	r6, r1, r1, asr r4
    2cac:	00017000 	andeq	r7, r1, r0
    2cb0:	f3000400 	vshl.u8	d0, d0, d0
    2cb4:	009f5001 	addseq	r5, pc, r1
	...
    2cc4:	0000e800 	andeq	lr, r0, r0, lsl #16
    2cc8:	00010800 	andeq	r0, r1, r0, lsl #16
    2ccc:	50000100 	andpl	r0, r0, r0, lsl #2
    2cd0:	00000108 	andeq	r0, r0, r8, lsl #2
    2cd4:	00000128 	andeq	r0, r0, r8, lsr #2
    2cd8:	28540001 	ldmdacs	r4, {r0}^
    2cdc:	40000001 	andmi	r0, r0, r1
    2ce0:	04000001 	streq	r0, [r0], #-1
    2ce4:	5001f300 	andpl	pc, r1, r0, lsl #6
    2ce8:	0000009f 	muleq	r0, pc, r0	; <UNPREDICTABLE>
    2cec:	00000000 	andeq	r0, r0, r0
    2cf0:	00000200 	andeq	r0, r0, r0, lsl #4
    2cf4:	e8000000 	stmda	r0, {}	; <UNPREDICTABLE>
    2cf8:	08000000 	stmdaeq	r0, {}	; <UNPREDICTABLE>
    2cfc:	01000001 	tsteq	r0, r1
    2d00:	01085000 	mrseq	r5, (UNDEF: 8)
    2d04:	01280000 			; <UNDEFINED> instruction: 0x01280000
    2d08:	00010000 	andeq	r0, r1, r0
    2d0c:	00012854 	andeq	r2, r1, r4, asr r8
    2d10:	00014000 	andeq	r4, r1, r0
    2d14:	f3000400 	vshl.u8	d0, d0, d0
    2d18:	009f5001 	addseq	r5, pc, r1
	...
    2d28:	0000f000 	andeq	pc, r0, r0
    2d2c:	00010800 	andeq	r0, r1, r0, lsl #16
    2d30:	50000100 	andpl	r0, r0, r0, lsl #2
    2d34:	00000108 	andeq	r0, r0, r8, lsl #2
    2d38:	00000128 	andeq	r0, r0, r8, lsr #2
    2d3c:	28540001 	ldmdacs	r4, {r0}^
    2d40:	40000001 	andmi	r0, r0, r1
    2d44:	04000001 	streq	r0, [r0], #-1
    2d48:	5001f300 	andpl	pc, r1, r0, lsl #6
    2d4c:	0000009f 	muleq	r0, pc, r0	; <UNPREDICTABLE>
    2d50:	00000000 	andeq	r0, r0, r0
    2d54:	00000300 	andeq	r0, r0, r0, lsl #6
    2d58:	f0000000 			; <UNDEFINED> instruction: 0xf0000000
    2d5c:	08000000 	stmdaeq	r0, {}	; <UNPREDICTABLE>
    2d60:	07000001 	streq	r0, [r0, -r1]
    2d64:	3a007000 	bcc	1ed6c <__bss_end__+0x13f7c>
    2d68:	9f1e331d 	svcls	0x001e331d
    2d6c:	00000108 	andeq	r0, r0, r8, lsl #2
    2d70:	00000128 	andeq	r0, r0, r8, lsr #2
    2d74:	00740007 	rsbseq	r0, r4, r7
    2d78:	1e331d3a 	mrcne	13, 1, r1, cr3, cr10, {1}
    2d7c:	0001289f 	muleq	r1, pc, r8	; <UNPREDICTABLE>
    2d80:	00014000 	andeq	r4, r1, r0
    2d84:	f3000800 	vsub.i8	d0, d0, d0
    2d88:	1d3a5001 	ldcne	0, cr5, [sl, #-4]!
    2d8c:	009f1e33 	addseq	r1, pc, r3, lsr lr	; <UNPREDICTABLE>
	...
    2d9c:	00011000 	andeq	r1, r1, r0
    2da0:	00013800 	andeq	r3, r1, r0, lsl #16
    2da4:	56000100 	strpl	r0, [r0], -r0, lsl #2
    2da8:	00000138 	andeq	r0, r0, r8, lsr r1
    2dac:	0000013b 	andeq	r0, r0, fp, lsr r1
    2db0:	3b500001 	blcc	1402dbc <__bss_end__+0x13f7fcc>
    2db4:	40000001 	andmi	r0, r0, r1
    2db8:	26000001 	strcs	r0, [r0], -r1
    2dbc:	5001f300 	andpl	pc, r1, r0, lsl #6
    2dc0:	25f72cf7 	ldrbcs	r2, [r7, #3319]!	; 0xcf7
    2dc4:	cd0825f4 	cfstr32gt	mvfx2, [r8, #-976]	; 0xfffffc30
    2dc8:	00cccccc 	sbceq	ip, ip, ip, asr #25
    2dcc:	1e000000 	cdpne	0, 0, cr0, cr0, cr0, {0}
    2dd0:	25f72008 	ldrbcs	r2, [r7, #8]!
    2dd4:	f72cf725 			; <UNDEFINED> instruction: 0xf72cf725
    2dd8:	23253300 			; <UNDEFINED> instruction: 0x23253300
    2ddc:	40a08080 	adcmi	r8, r0, r0, lsl #1
    2de0:	009f2432 	addseq	r2, pc, r2, lsr r4	; <UNPREDICTABLE>
	...
    2dec:	00000101 	andeq	r0, r0, r1, lsl #2
    2df0:	20000000 	andcs	r0, r0, r0
    2df4:	20000001 	andcs	r0, r0, r1
    2df8:	01000001 	tsteq	r0, r1
    2dfc:	01205000 			; <UNDEFINED> instruction: 0x01205000
    2e00:	01280000 			; <UNDEFINED> instruction: 0x01280000
    2e04:	000d0000 	andeq	r0, sp, r0
    2e08:	3a007437 	bcc	1feec <__bss_end__+0x150fc>
    2e0c:	241e331d 	ldrcs	r3, [lr], #-797	; 0xfffffce3
    2e10:	1a007020 	bne	1ee98 <__bss_end__+0x140a8>
    2e14:	0001289f 	muleq	r1, pc, r8	; <UNPREDICTABLE>
    2e18:	00013000 	andeq	r3, r1, r0
    2e1c:	37000e00 	strcc	r0, [r0, -r0, lsl #28]
    2e20:	3a5001f3 	bcc	14035f4 <__bss_end__+0x13f8804>
    2e24:	241e331d 	ldrcs	r3, [lr], #-797	; 0xfffffce3
    2e28:	1a007020 	bne	1eeb0 <__bss_end__+0x140c0>
    2e2c:	0001309f 	muleq	r1, pc, r0	; <UNPREDICTABLE>
    2e30:	00013b00 	andeq	r3, r1, r0, lsl #22
    2e34:	37000e00 	strcc	r0, [r0, -r0, lsl #28]
    2e38:	3a5001f3 	bcc	140360c <__bss_end__+0x13f881c>
    2e3c:	241e331d 	ldrcs	r3, [lr], #-797	; 0xfffffce3
    2e40:	1a007320 	bne	1fac8 <__bss_end__+0x14cd8>
    2e44:	0000009f 	muleq	r0, pc, r0	; <UNPREDICTABLE>
	...
    2e50:	00006000 	andeq	r6, r0, r0
    2e54:	00009000 	andeq	r9, r0, r0
    2e58:	50000100 	andpl	r0, r0, r0, lsl #2
    2e5c:	00000090 	muleq	r0, r0, r0
    2e60:	000000b8 	strheq	r0, [r0], -r8
    2e64:	01f30004 	mvnseq	r0, r4
    2e68:	00009f50 	andeq	r9, r0, r0, asr pc
    2e6c:	00000000 	andeq	r0, r0, r0
    2e70:	00020000 	andeq	r0, r2, r0
    2e74:	00600000 	rsbeq	r0, r0, r0
    2e78:	00900000 	addseq	r0, r0, r0
    2e7c:	00010000 	andeq	r0, r1, r0
    2e80:	00009050 	andeq	r9, r0, r0, asr r0
    2e84:	0000b800 	andeq	fp, r0, r0, lsl #16
    2e88:	f3000400 	vshl.u8	d0, d0, d0
    2e8c:	009f5001 	addseq	r5, pc, r1
	...
    2e98:	68000000 	stmdavs	r0, {}	; <UNPREDICTABLE>
    2e9c:	90000000 	andls	r0, r0, r0
    2ea0:	01000000 	mrseq	r0, (UNDEF: 0)
    2ea4:	00905000 	addseq	r5, r0, r0
    2ea8:	00b80000 	adcseq	r0, r8, r0
    2eac:	00040000 	andeq	r0, r4, r0
    2eb0:	9f5001f3 	svcls	0x005001f3
	...
    2ec0:	000000a0 	andeq	r0, r0, r0, lsr #1
    2ec4:	000000b0 	strheq	r0, [r0], -r0	; <UNPREDICTABLE>
    2ec8:	b0540001 	subslt	r0, r4, r1
    2ecc:	b8000000 	stmdalt	r0, {}	; <UNPREDICTABLE>
    2ed0:	29000000 	stmdbcs	r0, {}	; <UNPREDICTABLE>
    2ed4:	5001f300 	andpl	pc, r1, r0, lsl #6
    2ed8:	f75001f3 			; <UNDEFINED> instruction: 0xf75001f3
    2edc:	f425f72c 	vld1.8	{d15}, [r5 :128], ip
    2ee0:	cccd0825 	stclgt	8, cr0, [sp], {37}	; 0x25
    2ee4:	0000cccc 	andeq	ip, r0, ip, asr #25
    2ee8:	081e0000 	ldmdaeq	lr, {}	; <UNPREDICTABLE>
    2eec:	2525f720 	strcs	pc, [r5, #-1824]!	; 0xfffff8e0
    2ef0:	00f72cf7 	ldrshteq	r2, [r7], #199	; 0xc7
    2ef4:	1e352533 	mrcne	5, 1, r2, cr5, cr3, {1}
    2ef8:	331c2431 	tstcc	ip, #822083584	; 0x31000000
    2efc:	00009f1e 	andeq	r9, r0, lr, lsl pc
    2f00:	00000000 	andeq	r0, r0, r0
    2f04:	00010000 	andeq	r0, r1, r0
    2f08:	00000000 	andeq	r0, r0, r0
    2f0c:	000000a0 	andeq	r0, r0, r0, lsr #1
    2f10:	000000b0 	strheq	r0, [r0], -r0	; <UNPREDICTABLE>
    2f14:	b0550001 	subslt	r0, r5, r1
    2f18:	b3000000 	movwlt	r0, #0
    2f1c:	01000000 	mrseq	r0, (UNDEF: 0)
    2f20:	00b35000 	adcseq	r5, r3, r0
    2f24:	00b80000 	adcseq	r0, r8, r0
    2f28:	00260000 	eoreq	r0, r6, r0
    2f2c:	f75001f3 			; <UNDEFINED> instruction: 0xf75001f3
    2f30:	f425f72c 	vld1.8	{d15}, [r5 :128], ip
    2f34:	cccd0825 	stclgt	8, cr0, [sp], {37}	; 0x25
    2f38:	0000cccc 	andeq	ip, r0, ip, asr #25
    2f3c:	081e0000 	ldmdaeq	lr, {}	; <UNPREDICTABLE>
    2f40:	2525f720 	strcs	pc, [r5, #-1824]!	; 0xfffff8e0
    2f44:	00f72cf7 	ldrshteq	r2, [r7], #199	; 0xc7
    2f48:	80232533 	eorhi	r2, r3, r3, lsr r5
    2f4c:	3240a080 	subcc	sl, r0, #128, 0	; 0x80
    2f50:	00009f24 	andeq	r9, r0, r4, lsr #30
    2f54:	00000000 	andeq	r0, r0, r0
    2f58:	00020000 	andeq	r0, r2, r0
    2f5c:	00010100 	andeq	r0, r1, r0, lsl #2
    2f60:	00a00000 	adceq	r0, r0, r0
    2f64:	00a40000 	adceq	r0, r4, r0
    2f68:	00010000 	andeq	r0, r1, r0
    2f6c:	0000a450 	andeq	sl, r0, r0, asr r4
    2f70:	0000a400 	andeq	sl, r0, r0, lsl #8
    2f74:	53000100 	movwpl	r0, #256	; 0x100
    2f78:	000000a4 	andeq	r0, r0, r4, lsr #1
    2f7c:	000000a8 	andeq	r0, r0, r8, lsr #1
    2f80:	74310008 	ldrtvc	r0, [r1], #-8
    2f84:	00732400 	rsbseq	r2, r3, r0, lsl #8
    2f88:	00a89f21 	adceq	r9, r8, r1, lsr #30
    2f8c:	00b30000 	adcseq	r0, r3, r0
    2f90:	00010000 	andeq	r0, r1, r0
    2f94:	00000051 	andeq	r0, r0, r1, asr r0
	...
    2fa4:	00003c00 	andeq	r3, r0, r0, lsl #24
    2fa8:	50000100 	andpl	r0, r0, r0, lsl #2
    2fac:	0000003c 	andeq	r0, r0, ip, lsr r0
    2fb0:	00000060 	andeq	r0, r0, r0, rrx
    2fb4:	01f30004 	mvnseq	r0, r4
    2fb8:	00009f50 	andeq	r9, r0, r0, asr pc
	...
    2fc8:	003f0000 	eorseq	r0, pc, r0
    2fcc:	00010000 	andeq	r0, r1, r0
    2fd0:	00003f51 	andeq	r3, r0, r1, asr pc
    2fd4:	00006000 	andeq	r6, r0, r0
    2fd8:	f3000400 	vshl.u8	d0, d0, d0
    2fdc:	009f5101 	addseq	r5, pc, r1, lsl #2
	...
    2fe8:	08000000 	stmdaeq	r0, {}	; <UNPREDICTABLE>
    2fec:	3f000000 	svccc	0x00000000
    2ff0:	01000000 	mrseq	r0, (UNDEF: 0)
    2ff4:	003f5100 	eorseq	r5, pc, r0, lsl #2
    2ff8:	00600000 	rsbeq	r0, r0, r0
    2ffc:	00040000 	andeq	r0, r4, r0
    3000:	9f5101f3 	svcls	0x005101f3
	...
    3010:	00000008 	andeq	r0, r0, r8
    3014:	0000003c 	andeq	r0, r0, ip, lsr r0
    3018:	3c500001 	mrrccc	0, 0, r0, r0, cr1	; <UNPREDICTABLE>
    301c:	60000000 	andvs	r0, r0, r0
    3020:	04000000 	streq	r0, [r0], #-0
    3024:	5001f300 	andpl	pc, r1, r0, lsl #6
    3028:	0000009f 	muleq	r0, pc, r0	; <UNPREDICTABLE>
	...
    3034:	00004800 	andeq	r4, r0, r0, lsl #16
    3038:	00005800 	andeq	r5, r0, r0, lsl #16
    303c:	54000100 	strpl	r0, [r0], #-256	; 0xffffff00
    3040:	00000058 	andeq	r0, r0, r8, asr r0
    3044:	00000060 	andeq	r0, r0, r0, rrx
    3048:	01f30029 	mvnseq	r0, r9, lsr #32
    304c:	5001f350 	andpl	pc, r1, r0, asr r3	; <UNPREDICTABLE>
    3050:	25f72cf7 	ldrbcs	r2, [r7, #3319]!	; 0xcf7
    3054:	cd0825f4 	cfstr32gt	mvfx2, [r8, #-976]	; 0xfffffc30
    3058:	00cccccc 	sbceq	ip, ip, ip, asr #25
    305c:	1e000000 	cdpne	0, 0, cr0, cr0, cr0, {0}
    3060:	25f72008 	ldrbcs	r2, [r7, #8]!
    3064:	f72cf725 			; <UNDEFINED> instruction: 0xf72cf725
    3068:	35253300 	strcc	r3, [r5, #-768]!	; 0xfffffd00
    306c:	1c24311e 	stfnes	f3, [r4], #-120	; 0xffffff88
    3070:	009f1e33 	addseq	r1, pc, r3, lsr lr	; <UNPREDICTABLE>
    3074:	00000000 	andeq	r0, r0, r0
    3078:	01000000 	mrseq	r0, (UNDEF: 0)
    307c:	00000000 	andeq	r0, r0, r0
    3080:	00004800 	andeq	r4, r0, r0, lsl #16
    3084:	00005800 	andeq	r5, r0, r0, lsl #16
    3088:	56000100 	strpl	r0, [r0], -r0, lsl #2
    308c:	00000058 	andeq	r0, r0, r8, asr r0
    3090:	0000005b 	andeq	r0, r0, fp, asr r0
    3094:	5b500001 	blpl	14030a0 <__bss_end__+0x13f82b0>
    3098:	60000000 	andvs	r0, r0, r0
    309c:	26000000 	strcs	r0, [r0], -r0
    30a0:	5001f300 	andpl	pc, r1, r0, lsl #6
    30a4:	25f72cf7 	ldrbcs	r2, [r7, #3319]!	; 0xcf7
    30a8:	cd0825f4 	cfstr32gt	mvfx2, [r8, #-976]	; 0xfffffc30
    30ac:	00cccccc 	sbceq	ip, ip, ip, asr #25
    30b0:	1e000000 	cdpne	0, 0, cr0, cr0, cr0, {0}
    30b4:	25f72008 	ldrbcs	r2, [r7, #8]!
    30b8:	f72cf725 			; <UNDEFINED> instruction: 0xf72cf725
    30bc:	23253300 			; <UNDEFINED> instruction: 0x23253300
    30c0:	40a08080 	adcmi	r8, r0, r0, lsl #1
    30c4:	009f2432 	addseq	r2, pc, r2, lsr r4	; <UNPREDICTABLE>
    30c8:	00000000 	andeq	r0, r0, r0
    30cc:	02000000 	andeq	r0, r0, #0, 0
    30d0:	01010000 	mrseq	r0, (UNDEF: 1)
    30d4:	48000000 	stmdami	r0, {}	; <UNPREDICTABLE>
    30d8:	4c000000 	stcmi	0, cr0, [r0], {-0}
    30dc:	01000000 	mrseq	r0, (UNDEF: 0)
    30e0:	004c5000 	subeq	r5, ip, r0
    30e4:	004c0000 	subeq	r0, ip, r0
    30e8:	00010000 	andeq	r0, r1, r0
    30ec:	00004c51 	andeq	r4, r0, r1, asr ip
    30f0:	00005000 	andeq	r5, r0, r0
    30f4:	75000c00 	strvc	r0, [r0, #-3072]	; 0xfffff400
    30f8:	1aff0800 	bne	fffc5100 <__bss_end__+0xfffba310>
    30fc:	71240074 			; <UNDEFINED> instruction: 0x71240074
    3100:	509f2100 	addspl	r2, pc, r0, lsl #2
    3104:	54000000 	strpl	r0, [r0], #-0
    3108:	12000000 	andne	r0, r0, #0, 0
    310c:	00743700 	rsbseq	r3, r4, r0, lsl #14
    3110:	00702024 	rsbseq	r2, r0, r4, lsr #32
    3114:	0800751a 	stmdaeq	r0, {r1, r3, r4, r8, sl, ip, sp, lr}
    3118:	00741aff 	ldrshteq	r1, [r4], #-175	; 0xffffff51
    311c:	009f2124 	addseq	r2, pc, r4, lsr #2
	...
    312c:	0000b800 	andeq	fp, r0, r0, lsl #16
    3130:	0000c400 	andeq	ip, r0, r0, lsl #8
    3134:	50000100 	andpl	r0, r0, r0, lsl #2
    3138:	000000c4 	andeq	r0, r0, r4, asr #1
    313c:	000000cb 	andeq	r0, r0, fp, asr #1
    3140:	cb530001 	blgt	14c314c <__bss_end__+0x14b835c>
    3144:	d0000000 	andle	r0, r0, r0
    3148:	04000000 	streq	r0, [r0], #-0
    314c:	5001f300 	andpl	pc, r1, r0, lsl #6
    3150:	0000009f 	muleq	r0, pc, r0	; <UNPREDICTABLE>
	...
    315c:	d0000000 	andle	r0, r0, r0
    3160:	dc000000 	stcle	0, cr0, [r0], {-0}
    3164:	01000000 	mrseq	r0, (UNDEF: 0)
    3168:	00dc5000 	sbcseq	r5, ip, r0
    316c:	00e30000 	rsceq	r0, r3, r0
    3170:	00010000 	andeq	r0, r1, r0
    3174:	0000e353 	andeq	lr, r0, r3, asr r3
    3178:	0000e800 	andeq	lr, r0, r0, lsl #16
    317c:	f3000400 	vshl.u8	d0, d0, d0
    3180:	009f5001 	addseq	r5, pc, r1
	...
    3190:	0b000000 	bleq	3198 <__code_start__-0x4e68>
    3194:	01000000 	mrseq	r0, (UNDEF: 0)
    3198:	000b5000 	andeq	r5, fp, r0
    319c:	00140000 	andseq	r0, r4, r0
    31a0:	00010000 	andeq	r0, r1, r0
    31a4:	00000054 	andeq	r0, r0, r4, asr r0
	...
    31b4:	00001800 	andeq	r1, r0, r0, lsl #16
    31b8:	51000100 	mrspl	r0, (UNDEF: 16)
    31bc:	00000018 	andeq	r0, r0, r8, lsl r0
    31c0:	0000002c 	andeq	r0, r0, ip, lsr #32
    31c4:	01f30004 	mvnseq	r0, r4
    31c8:	00009f51 	andeq	r9, r0, r1, asr pc
    31cc:	00000000 	andeq	r0, r0, r0
    31d0:	00020000 	andeq	r0, r2, r0
    31d4:	00000000 	andeq	r0, r0, r0
    31d8:	01000000 	mrseq	r0, (UNDEF: 0)
    31dc:	00000001 	andeq	r0, r0, r1
    31e0:	00000000 	andeq	r0, r0, r0
    31e4:	00000004 	andeq	r0, r0, r4
    31e8:	04500001 	ldrbeq	r0, [r0], #-1
    31ec:	08000000 	stmdaeq	r0, {}	; <UNPREDICTABLE>
    31f0:	01000000 	mrseq	r0, (UNDEF: 0)
    31f4:	00085200 	andeq	r5, r8, r0, lsl #4
    31f8:	000c0000 	andeq	r0, ip, r0
    31fc:	00030000 	andeq	r0, r3, r0
    3200:	0c9f0172 	ldfeqs	f0, [pc], {114}	; 0x72
    3204:	18000000 	stmdane	r0, {}	; <UNPREDICTABLE>
    3208:	01000000 	mrseq	r0, (UNDEF: 0)
    320c:	00185200 	andseq	r5, r8, r0, lsl #4
    3210:	001c0000 	andseq	r0, ip, r0
    3214:	00010000 	andeq	r0, r1, r0
    3218:	00001c53 	andeq	r1, r0, r3, asr ip
    321c:	00002400 	andeq	r2, r0, r0, lsl #8
    3220:	73000300 	movwvc	r0, #768	; 0x300
    3224:	00249f01 	eoreq	r9, r4, r1, lsl #30
    3228:	002c0000 	eoreq	r0, ip, r0
    322c:	00010000 	andeq	r0, r1, r0
    3230:	00000053 	andeq	r0, r0, r3, asr r0
    3234:	00000000 	andeq	r0, r0, r0
    3238:	02020300 	andeq	r0, r2, #0, 6
    323c:	00000000 	andeq	r0, r0, r0
    3240:	18000000 	stmdane	r0, {}	; <UNPREDICTABLE>
    3244:	01000000 	mrseq	r0, (UNDEF: 0)
    3248:	00185100 	andseq	r5, r8, r0, lsl #2
    324c:	001c0000 	andseq	r0, ip, r0
    3250:	00030000 	andeq	r0, r3, r0
    3254:	1c9f0171 	ldfnes	f0, [pc], {113}	; 0x71
    3258:	2c000000 	stccs	0, cr0, [r0], {-0}
    325c:	01000000 	mrseq	r0, (UNDEF: 0)
    3260:	00005100 	andeq	r5, r0, r0, lsl #2
	...
    3270:	00000008 	andeq	r0, r0, r8
    3274:	0000000c 	andeq	r0, r0, ip
    3278:	00720002 	rsbseq	r0, r2, r2
    327c:	0000000c 	andeq	r0, r0, ip
    3280:	00000018 	andeq	r0, r0, r8, lsl r0
    3284:	00730002 	rsbseq	r0, r3, r2
    3288:	0000001c 	andeq	r0, r0, ip, lsl r0
    328c:	0000002c 	andeq	r0, r0, ip, lsr #32
    3290:	00520001 	subseq	r0, r2, r1
	...
    32a8:	14000000 	strne	r0, [r0], #-0
    32ac:	01000000 	mrseq	r0, (UNDEF: 0)
    32b0:	00145000 	andseq	r5, r4, r0
    32b4:	00180000 	andseq	r0, r8, r0
    32b8:	00030000 	andeq	r0, r3, r0
    32bc:	189f0170 	ldmne	pc, {r4, r5, r6, r8}	; <UNPREDICTABLE>
    32c0:	20000000 	andcs	r0, r0, r0
    32c4:	01000000 	mrseq	r0, (UNDEF: 0)
    32c8:	00245000 	eoreq	r5, r4, r0
    32cc:	00280000 	eoreq	r0, r8, r0
    32d0:	00010000 	andeq	r0, r1, r0
    32d4:	00002850 	andeq	r2, r0, r0, asr r8
    32d8:	00003000 	andeq	r3, r0, r0
    32dc:	70000300 	andvc	r0, r0, r0, lsl #6
    32e0:	00389f01 	eorseq	r9, r8, r1, lsl #30
    32e4:	00400000 	subeq	r0, r0, r0
    32e8:	00010000 	andeq	r0, r1, r0
    32ec:	00000050 	andeq	r0, r0, r0, asr r0
	...
    32fc:	24000000 	strcs	r0, [r0], #-0
    3300:	01000000 	mrseq	r0, (UNDEF: 0)
    3304:	00245100 	eoreq	r5, r4, r0, lsl #2
    3308:	00280000 	eoreq	r0, r8, r0
    330c:	00010000 	andeq	r0, r1, r0
    3310:	0000285c 	andeq	r2, r0, ip, asr r8
    3314:	00004400 	andeq	r4, r0, r0, lsl #8
    3318:	51000100 	mrspl	r0, (UNDEF: 16)
	...
    3324:	00020200 	andeq	r0, r2, r0, lsl #4
    3328:	00000000 	andeq	r0, r0, r0
    332c:	00040000 	andeq	r0, r4, r0
    3330:	00010000 	andeq	r0, r1, r0
    3334:	00000451 	andeq	r0, r0, r1, asr r4
    3338:	00000800 	andeq	r0, r0, r0, lsl #16
    333c:	71000300 	mrsvc	r0, LR_irq
    3340:	00089f01 	andeq	r9, r8, r1, lsl #30
    3344:	00180000 	andseq	r0, r8, r0
    3348:	00010000 	andeq	r0, r1, r0
    334c:	00000051 	andeq	r0, r0, r1, asr r0
    3350:	00000000 	andeq	r0, r0, r0
    3354:	00000200 	andeq	r0, r0, r0, lsl #4
    3358:	04000000 	streq	r0, [r0], #-0
    335c:	01000000 	mrseq	r0, (UNDEF: 0)
    3360:	00005000 	andeq	r5, r0, r0
	...
    3370:	00080000 	andeq	r0, r8, r0
    3374:	00010000 	andeq	r0, r1, r0
    3378:	00000850 	andeq	r0, r0, r0, asr r8
    337c:	00003000 	andeq	r3, r0, r0
    3380:	f3000400 	vshl.u8	d0, d0, d0
    3384:	009f5001 	addseq	r5, pc, r1
	...
    3394:	08000000 	stmdaeq	r0, {}	; <UNPREDICTABLE>
    3398:	01000000 	mrseq	r0, (UNDEF: 0)
    339c:	00085100 	andeq	r5, r8, r0, lsl #2
    33a0:	00300000 	eorseq	r0, r0, r0
    33a4:	00040000 	andeq	r0, r4, r0
    33a8:	9f5101f3 	svcls	0x005101f3
	...
    33b8:	02010000 	andeq	r0, r1, #0, 0
    33bc:	00000002 	andeq	r0, r0, r2
    33c0:	00040000 	andeq	r0, r4, r0
    33c4:	00010000 	andeq	r0, r1, r0
    33c8:	00000452 	andeq	r0, r0, r2, asr r4
    33cc:	00000800 	andeq	r0, r0, r0, lsl #16
    33d0:	f3000400 	vshl.u8	d0, d0, d0
    33d4:	089f5201 	ldmeq	pc, {r0, r9, ip, lr}	; <UNPREDICTABLE>
    33d8:	18000000 	stmdane	r0, {}	; <UNPREDICTABLE>
    33dc:	06000000 	streq	r0, [r0], -r0
    33e0:	5201f300 	andpl	pc, r1, #0, 6
    33e4:	189f1c31 	ldmne	pc, {r0, r4, r5, sl, fp, ip}	; <UNPREDICTABLE>
    33e8:	18000000 	stmdane	r0, {}	; <UNPREDICTABLE>
    33ec:	04000000 	streq	r0, [r0], #-0
    33f0:	5201f300 	andpl	pc, r1, #0, 6
    33f4:	0000189f 	muleq	r0, pc, r8	; <UNPREDICTABLE>
    33f8:	00003000 	andeq	r3, r0, r0
    33fc:	f3000600 	vmax.u8	d0, d0, d0
    3400:	1c315201 	lfmne	f5, 4, [r1], #-4
    3404:	0000009f 	muleq	r0, pc, r0	; <UNPREDICTABLE>
    3408:	00000000 	andeq	r0, r0, r0
    340c:	00000200 	andeq	r0, r0, r0, lsl #4
    3410:	00000100 	andeq	r0, r0, r0, lsl #2
    3414:	00000000 	andeq	r0, r0, r0
    3418:	00000c00 	andeq	r0, r0, r0, lsl #24
    341c:	50000100 	andpl	r0, r0, r0, lsl #2
    3420:	0000000c 	andeq	r0, r0, ip
    3424:	00000018 	andeq	r0, r0, r8, lsl r0
    3428:	7f700003 	svcvc	0x00700003
    342c:	0000189f 	muleq	r0, pc, r8	; <UNPREDICTABLE>
    3430:	00002400 	andeq	r2, r0, r0, lsl #8
    3434:	50000100 	andpl	r0, r0, r0, lsl #2
    3438:	00000028 	andeq	r0, r0, r8, lsr #32
    343c:	0000002c 	andeq	r0, r0, ip, lsr #32
    3440:	7f700003 	svcvc	0x00700003
    3444:	0000009f 	muleq	r0, pc, r0	; <UNPREDICTABLE>
    3448:	00000000 	andeq	r0, r0, r0
    344c:	00000200 	andeq	r0, r0, r0, lsl #4
    3450:	00000000 	andeq	r0, r0, r0
    3454:	0c000000 	stceq	0, cr0, [r0], {-0}
    3458:	01000000 	mrseq	r0, (UNDEF: 0)
    345c:	000c5100 	andeq	r5, ip, r0, lsl #2
    3460:	00100000 	andseq	r0, r0, r0
    3464:	00030000 	andeq	r0, r3, r0
    3468:	109f0171 	addsne	r0, pc, r1, ror r1	; <UNPREDICTABLE>
    346c:	30000000 	andcc	r0, r0, r0
    3470:	01000000 	mrseq	r0, (UNDEF: 0)
    3474:	00005100 	andeq	r5, r0, r0, lsl #2
    3478:	00000000 	andeq	r0, r0, r0
	...

Disassembly of section .debug_aranges:

00000000 <.debug_aranges>:
   0:	0000001c 	andeq	r0, r0, ip, lsl r0
   4:	00000002 	andeq	r0, r0, r2
   8:	00040000 	andeq	r0, r4, r0
   c:	00000000 	andeq	r0, r0, r0
  10:	00008038 	andeq	r8, r0, r8, lsr r0
  14:	00000104 	andeq	r0, r0, r4, lsl #2
	...
  20:	0000001c 	andeq	r0, r0, ip, lsl r0
  24:	038d0002 	orreq	r0, sp, #2, 0
  28:	00040000 	andeq	r0, r4, r0
  2c:	00000000 	andeq	r0, r0, r0
  30:	0000813c 	andeq	r8, r0, ip, lsr r1
  34:	000002e8 	andeq	r0, r0, r8, ror #5
	...
  40:	0000001c 	andeq	r0, r0, ip, lsl r0
  44:	0b160002 	bleq	580054 <__bss_end__+0x575264>
  48:	00040000 	andeq	r0, r4, r0
  4c:	00000000 	andeq	r0, r0, r0
  50:	00008424 	andeq	r8, r0, r4, lsr #8
  54:	000001ac 	andeq	r0, r0, ip, lsr #3
	...
  60:	0000001c 	andeq	r0, r0, ip, lsl r0
  64:	0ddc0002 	ldcleq	0, cr0, [ip, #8]
  68:	00040000 	andeq	r0, r4, r0
  6c:	00000000 	andeq	r0, r0, r0
  70:	000085d0 	ldrdeq	r8, [r0], -r0
  74:	000005c4 	andeq	r0, r0, r4, asr #11
	...
  80:	0000001c 	andeq	r0, r0, ip, lsl r0
  84:	1a830002 	bne	fe0c0094 <__bss_end__+0xfe0b52a4>
  88:	00040000 	andeq	r0, r4, r0
  8c:	00000000 	andeq	r0, r0, r0
  90:	00008b9c 	muleq	r0, ip, fp
  94:	00000078 	andeq	r0, r0, r8, ror r0
	...
  a0:	0000001c 	andeq	r0, r0, ip, lsl r0
  a4:	1bc70002 	blne	ff1c00b4 <__bss_end__+0xff1b52c4>
  a8:	00040000 	andeq	r0, r4, r0
  ac:	00000000 	andeq	r0, r0, r0
  b0:	00008c14 	andeq	r8, r0, r4, lsl ip
  b4:	00000058 	andeq	r0, r0, r8, asr r0
	...
  c0:	0000001c 	andeq	r0, r0, ip, lsl r0
  c4:	1d680002 	stclne	0, cr0, [r8, #-8]!
  c8:	00040000 	andeq	r0, r4, r0
  cc:	00000000 	andeq	r0, r0, r0
  d0:	00008c6c 	andeq	r8, r0, ip, ror #24
  d4:	00000038 	andeq	r0, r0, r8, lsr r0
	...
  e0:	0000001c 	andeq	r0, r0, ip, lsl r0
  e4:	1e5f0002 	cdpne	0, 5, cr0, cr15, cr2, {0}
  e8:	00040000 	andeq	r0, r4, r0
  ec:	00000000 	andeq	r0, r0, r0
  f0:	00008ca4 	andeq	r8, r0, r4, lsr #25
  f4:	000009b4 			; <UNDEFINED> instruction: 0x000009b4
	...
 100:	0000001c 	andeq	r0, r0, ip, lsl r0
 104:	2ae20002 	bcs	ff880114 <__bss_end__+0xff875324>
 108:	00040000 	andeq	r0, r4, r0
 10c:	00000000 	andeq	r0, r0, r0
 110:	00009658 	andeq	r9, r0, r8, asr r6
 114:	0000002c 	andeq	r0, r0, ip, lsr #32
	...
 120:	0000001c 	andeq	r0, r0, ip, lsl r0
 124:	2c150002 	ldccs	0, cr0, [r5], {2}
 128:	00040000 	andeq	r0, r4, r0
 12c:	00000000 	andeq	r0, r0, r0
 130:	00009684 	andeq	r9, r0, r4, lsl #13
 134:	000000f8 	strdeq	r0, [r0], -r8
	...
 140:	0000001c 	andeq	r0, r0, ip, lsl r0
 144:	2da90002 	stccs	0, cr0, [r9, #8]!
 148:	00040000 	andeq	r0, r4, r0
 14c:	00000000 	andeq	r0, r0, r0
 150:	0000977c 	andeq	r9, r0, ip, ror r7
 154:	00000004 	andeq	r0, r0, r4
	...
 160:	0000001c 	andeq	r0, r0, ip, lsl r0
 164:	2e7b0002 	cdpcs	0, 7, cr0, cr11, cr2, {0}
 168:	00040000 	andeq	r0, r4, r0
 16c:	00000000 	andeq	r0, r0, r0
 170:	00009780 	andeq	r9, r0, r0, lsl #15
 174:	0000008c 	andeq	r0, r0, ip, lsl #1
	...
 180:	0000001c 	andeq	r0, r0, ip, lsl r0
 184:	30fc0002 	rscscc	r0, ip, r2
 188:	00040000 	andeq	r0, r4, r0
 18c:	00000000 	andeq	r0, r0, r0
 190:	0000980c 	andeq	r9, r0, ip, lsl #16
 194:	0000011c 	andeq	r0, r0, ip, lsl r1
	...
 1a0:	0000001c 	andeq	r0, r0, ip, lsl r0
 1a4:	363f0002 	ldrtcc	r0, [pc], -r2
 1a8:	00040000 	andeq	r0, r4, r0
 1ac:	00000000 	andeq	r0, r0, r0
 1b0:	00009928 	andeq	r9, r0, r8, lsr #18
 1b4:	000001f0 	strdeq	r0, [r0], -r0	; <UNPREDICTABLE>
	...
 1c0:	0000001c 	andeq	r0, r0, ip, lsl r0
 1c4:	3c100002 	ldccc	0, cr0, [r0], {2}
 1c8:	00040000 	andeq	r0, r4, r0
 1cc:	00000000 	andeq	r0, r0, r0
 1d0:	00009b18 	andeq	r9, r0, r8, lsl fp
 1d4:	000003b0 			; <UNDEFINED> instruction: 0x000003b0
	...
 1e0:	0000001c 	andeq	r0, r0, ip, lsl r0
 1e4:	44fd0002 	ldrbtmi	r0, [sp], #2
 1e8:	00040000 	andeq	r0, r4, r0
 1ec:	00000000 	andeq	r0, r0, r0
 1f0:	00009ec8 	andeq	r9, r0, r8, asr #29
 1f4:	00000198 	muleq	r0, r8, r1
	...
 200:	0000001c 	andeq	r0, r0, ip, lsl r0
 204:	4b740002 	blmi	1d00214 <__bss_end__+0x1cf5424>
 208:	00040000 	andeq	r0, r4, r0
 20c:	00000000 	andeq	r0, r0, r0
 210:	0000a060 	andeq	sl, r0, r0, rrx
 214:	0000003c 	andeq	r0, r0, ip, lsr r0
	...
 220:	0000001c 	andeq	r0, r0, ip, lsl r0
 224:	4cc10002 	stclmi	0, cr0, [r1], {2}
 228:	00040000 	andeq	r0, r4, r0
 22c:	00000000 	andeq	r0, r0, r0
 230:	0000a09c 	muleq	r0, ip, r0
 234:	0000002c 	andeq	r0, r0, ip, lsr #32
	...
 240:	0000001c 	andeq	r0, r0, ip, lsl r0
 244:	4dfc0002 	ldclmi	0, cr0, [ip, #8]!
 248:	00040000 	andeq	r0, r4, r0
 24c:	00000000 	andeq	r0, r0, r0
 250:	0000a0c8 	andeq	sl, r0, r8, asr #1
 254:	00000044 	andeq	r0, r0, r4, asr #32
	...
 260:	0000001c 	andeq	r0, r0, ip, lsl r0
 264:	4ef70002 	cdpmi	0, 15, cr0, cr7, cr2, {0}
 268:	00040000 	andeq	r0, r4, r0
 26c:	00000000 	andeq	r0, r0, r0
 270:	0000a10c 	andeq	sl, r0, ip, lsl #2
 274:	00000018 	andeq	r0, r0, r8, lsl r0
	...
 280:	0000001c 	andeq	r0, r0, ip, lsl r0
 284:	500a0002 	andpl	r0, sl, r2
 288:	00040000 	andeq	r0, r4, r0
 28c:	00000000 	andeq	r0, r0, r0
 290:	0000a124 	andeq	sl, r0, r4, lsr #2
 294:	00000030 	andeq	r0, r0, r0, lsr r0
	...
 2a0:	0000001c 	andeq	r0, r0, ip, lsl r0
 2a4:	515c0002 	cmppl	ip, r2
 2a8:	00040000 	andeq	r0, r4, r0
 2ac:	00000000 	andeq	r0, r0, r0
 2b0:	0000a154 	andeq	sl, r0, r4, asr r1
 2b4:	00000004 	andeq	r0, r0, r4
	...

Disassembly of section .debug_ranges:

00000000 <.debug_ranges>:
   0:	00000008 	andeq	r0, r0, r8
   4:	0000000c 	andeq	r0, r0, ip
   8:	00000010 	andeq	r0, r0, r0, lsl r0
   c:	000000a4 	andeq	r0, r0, r4, lsr #1
	...
  18:	00000014 	andeq	r0, r0, r4, lsl r0
  1c:	00000034 	andeq	r0, r0, r4, lsr r0
  20:	00000038 	andeq	r0, r0, r8, lsr r0
  24:	0000003c 	andeq	r0, r0, ip, lsr r0
  28:	00000044 	andeq	r0, r0, r4, asr #32
  2c:	000000a4 	andeq	r0, r0, r4, lsr #1
	...
  38:	000000ec 	andeq	r0, r0, ip, ror #1
  3c:	00000108 	andeq	r0, r0, r8, lsl #2
  40:	00000114 	andeq	r0, r0, r4, lsl r1
  44:	000001a0 	andeq	r0, r0, r0, lsr #3
	...
  50:	000000ec 	andeq	r0, r0, ip, ror #1
  54:	00000108 	andeq	r0, r0, r8, lsl #2
  58:	00000124 	andeq	r0, r0, r4, lsr #2
  5c:	000001a0 	andeq	r0, r0, r0, lsr #3
	...
  68:	0000028c 	andeq	r0, r0, ip, lsl #5
  6c:	00000294 	muleq	r0, r4, r2
  70:	000002a0 	andeq	r0, r0, r0, lsr #5
  74:	000002fc 	strdeq	r0, [r0], -ip
	...
  80:	00000380 	andeq	r0, r0, r0, lsl #7
  84:	00000388 	andeq	r0, r0, r8, lsl #7
  88:	00000394 	muleq	r0, r4, r3
  8c:	00000404 	andeq	r0, r0, r4, lsl #8
	...
  98:	000000a4 	andeq	r0, r0, r4, lsr #1
  9c:	00000148 	andeq	r0, r0, r8, asr #2
  a0:	00000158 	andeq	r0, r0, r8, asr r1
  a4:	0000015c 	andeq	r0, r0, ip, asr r1
  a8:	00000274 	andeq	r0, r0, r4, ror r2
  ac:	00000278 	andeq	r0, r0, r8, ror r2
  b0:	0000027c 	andeq	r0, r0, ip, ror r2
  b4:	00000280 	andeq	r0, r0, r0, lsl #5
  b8:	00000288 	andeq	r0, r0, r8, lsl #5
  bc:	0000029c 	muleq	r0, ip, r2
  c0:	000002c0 	andeq	r0, r0, r0, asr #5
  c4:	000002cc 	andeq	r0, r0, ip, asr #5
  c8:	000002f0 	strdeq	r0, [r0], -r0	; <UNPREDICTABLE>
  cc:	000002f0 	strdeq	r0, [r0], -r0	; <UNPREDICTABLE>
  d0:	000002f4 	strdeq	r0, [r0], -r4
  d4:	000002f8 	strdeq	r0, [r0], -r8
	...
  e0:	00000148 	andeq	r0, r0, r8, asr #2
  e4:	00000158 	andeq	r0, r0, r8, asr r1
  e8:	0000015c 	andeq	r0, r0, ip, asr r1
  ec:	0000018c 	andeq	r0, r0, ip, lsl #3
  f0:	0000029c 	muleq	r0, ip, r2
  f4:	000002ac 	andeq	r0, r0, ip, lsr #5
	...
 100:	000003c8 	andeq	r0, r0, r8, asr #7
 104:	000003d0 	ldrdeq	r0, [r0], -r0	; <UNPREDICTABLE>
 108:	00000404 	andeq	r0, r0, r4, lsl #8
 10c:	000004ac 	andeq	r0, r0, ip, lsr #9
 110:	000004c0 	andeq	r0, r0, r0, asr #9
 114:	00000920 	andeq	r0, r0, r0, lsr #18
 118:	00000928 	andeq	r0, r0, r8, lsr #18
 11c:	000009b4 			; <UNDEFINED> instruction: 0x000009b4
	...
 128:	000003c8 	andeq	r0, r0, r8, asr #7
 12c:	000003d0 	ldrdeq	r0, [r0], -r0	; <UNPREDICTABLE>
 130:	00000504 	andeq	r0, r0, r4, lsl #10
 134:	000005d0 	ldrdeq	r0, [r0], -r0	; <UNPREDICTABLE>
 138:	00000800 	andeq	r0, r0, r0, lsl #16
 13c:	00000888 	andeq	r0, r0, r8, lsl #17
 140:	00000930 	andeq	r0, r0, r0, lsr r9
 144:	000009b4 			; <UNDEFINED> instruction: 0x000009b4
	...
 150:	00000404 	andeq	r0, r0, r4, lsl #8
 154:	00000408 	andeq	r0, r0, r8, lsl #8
 158:	00000414 	andeq	r0, r0, r4, lsl r4
 15c:	00000414 	andeq	r0, r0, r4, lsl r4
 160:	00000428 	andeq	r0, r0, r8, lsr #8
 164:	0000042c 	andeq	r0, r0, ip, lsr #8
	...
 170:	000005fc 	strdeq	r0, [r0], -ip
 174:	00000700 	andeq	r0, r0, r0, lsl #14
 178:	000007ec 	andeq	r0, r0, ip, ror #15
 17c:	000007f4 	strdeq	r0, [r0], -r4
 180:	00000888 	andeq	r0, r0, r8, lsl #17
 184:	00000894 	muleq	r0, r4, r8
 188:	000008a8 	andeq	r0, r0, r8, lsr #17
 18c:	000008bc 			; <UNDEFINED> instruction: 0x000008bc
 190:	00000910 	andeq	r0, r0, r0, lsl r9
 194:	00000920 	andeq	r0, r0, r0, lsr #18
	...
 1a0:	00000600 	andeq	r0, r0, r0, lsl #12
 1a4:	00000604 	andeq	r0, r0, r4, lsl #12
 1a8:	00000608 	andeq	r0, r0, r8, lsl #12
 1ac:	000006b4 			; <UNDEFINED> instruction: 0x000006b4
 1b0:	000006cc 	andeq	r0, r0, ip, asr #13
 1b4:	000006d0 	ldrdeq	r0, [r0], -r0	; <UNPREDICTABLE>
 1b8:	000008a8 	andeq	r0, r0, r8, lsr #17
 1bc:	000008b8 			; <UNDEFINED> instruction: 0x000008b8
 1c0:	00000910 	andeq	r0, r0, r0, lsl r9
 1c4:	00000920 	andeq	r0, r0, r0, lsr #18
	...
 1d0:	000006b4 			; <UNDEFINED> instruction: 0x000006b4
 1d4:	000006cc 	andeq	r0, r0, ip, asr #13
 1d8:	000006d0 	ldrdeq	r0, [r0], -r0	; <UNPREDICTABLE>
 1dc:	00000700 	andeq	r0, r0, r0, lsl #14
 1e0:	000007ec 	andeq	r0, r0, ip, ror #15
 1e4:	000007f4 	strdeq	r0, [r0], -r4
 1e8:	00000888 	andeq	r0, r0, r8, lsl #17
 1ec:	00000894 	muleq	r0, r4, r8
 1f0:	000008b8 			; <UNDEFINED> instruction: 0x000008b8
 1f4:	000008bc 			; <UNDEFINED> instruction: 0x000008bc
	...
 200:	00000700 	andeq	r0, r0, r0, lsl #14
 204:	00000708 	andeq	r0, r0, r8, lsl #14
 208:	0000070c 	andeq	r0, r0, ip, lsl #14
 20c:	000007ec 	andeq	r0, r0, ip, ror #15
 210:	00000894 	muleq	r0, r4, r8
 214:	000008a8 	andeq	r0, r0, r8, lsr #17
	...
 220:	00000728 	andeq	r0, r0, r8, lsr #14
 224:	000007a4 	andeq	r0, r0, r4, lsr #15
 228:	000007ac 	andeq	r0, r0, ip, lsr #15
 22c:	000007b0 			; <UNDEFINED> instruction: 0x000007b0
 230:	00000894 	muleq	r0, r4, r8
 234:	00000898 	muleq	r0, r8, r8
 238:	0000089c 	muleq	r0, ip, r8
 23c:	000008a0 	andeq	r0, r0, r0, lsr #17
	...
 248:	000007a4 	andeq	r0, r0, r4, lsr #15
 24c:	000007ac 	andeq	r0, r0, ip, lsr #15
 250:	000007b0 			; <UNDEFINED> instruction: 0x000007b0
 254:	000007ec 	andeq	r0, r0, ip, ror #15
 258:	00000898 	muleq	r0, r8, r8
 25c:	0000089c 	muleq	r0, ip, r8
 260:	000008a0 	andeq	r0, r0, r0, lsr #17
 264:	000008a8 	andeq	r0, r0, r8, lsr #17
	...
 270:	000097ac 	andeq	r9, r0, ip, lsr #15
 274:	000097ac 	andeq	r9, r0, ip, lsr #15
 278:	000097b0 			; <UNDEFINED> instruction: 0x000097b0
 27c:	000097b8 			; <UNDEFINED> instruction: 0x000097b8
	...
 288:	00009780 	andeq	r9, r0, r0, lsl #15
 28c:	0000980c 	andeq	r9, r0, ip, lsl #16
	...
 298:	00000030 	andeq	r0, r0, r0, lsr r0
 29c:	00000030 	andeq	r0, r0, r0, lsr r0
 2a0:	00000038 	andeq	r0, r0, r8, lsr r0
 2a4:	0000004c 	andeq	r0, r0, ip, asr #32
	...
 2b0:	0000004c 	andeq	r0, r0, ip, asr #32
 2b4:	00000050 	andeq	r0, r0, r0, asr r0
 2b8:	00000050 	andeq	r0, r0, r0, asr r0
 2bc:	00000078 	andeq	r0, r0, r8, ror r0
	...
 2c8:	0000004c 	andeq	r0, r0, ip, asr #32
 2cc:	00000050 	andeq	r0, r0, r0, asr r0
 2d0:	00000050 	andeq	r0, r0, r0, asr r0
 2d4:	00000060 	andeq	r0, r0, r0, rrx
 2d8:	00000064 	andeq	r0, r0, r4, rrx
 2dc:	00000068 	andeq	r0, r0, r8, rrx
	...
 2e8:	0000004c 	andeq	r0, r0, ip, asr #32
 2ec:	00000050 	andeq	r0, r0, r0, asr r0
 2f0:	00000054 	andeq	r0, r0, r4, asr r0
 2f4:	00000060 	andeq	r0, r0, r0, rrx
	...
 300:	0000009c 	muleq	r0, ip, r0
 304:	000000a0 	andeq	r0, r0, r0, lsr #1
 308:	000000a0 	andeq	r0, r0, r0, lsr #1
 30c:	000000c8 	andeq	r0, r0, r8, asr #1
	...
 318:	0000009c 	muleq	r0, ip, r0
 31c:	000000a0 	andeq	r0, r0, r0, lsr #1
 320:	000000a0 	andeq	r0, r0, r0, lsr #1
 324:	000000b0 	strheq	r0, [r0], -r0	; <UNPREDICTABLE>
 328:	000000b4 	strheq	r0, [r0], -r4
 32c:	000000b8 	strheq	r0, [r0], -r8
	...
 338:	0000009c 	muleq	r0, ip, r0
 33c:	000000a0 	andeq	r0, r0, r0, lsr #1
 340:	000000a4 	andeq	r0, r0, r4, lsr #1
 344:	000000b0 	strheq	r0, [r0], -r0	; <UNPREDICTABLE>
	...
 350:	000000c8 	andeq	r0, r0, r8, asr #1
 354:	000000c8 	andeq	r0, r0, r8, asr #1
 358:	000000cc 	andeq	r0, r0, ip, asr #1
 35c:	0000011c 	andeq	r0, r0, ip, lsl r1
	...
 368:	000000f0 	strdeq	r0, [r0], -r0	; <UNPREDICTABLE>
 36c:	000000f4 	strdeq	r0, [r0], -r4
 370:	000000f4 	strdeq	r0, [r0], -r4
 374:	0000011c 	andeq	r0, r0, ip, lsl r1
	...
 380:	000000f0 	strdeq	r0, [r0], -r0	; <UNPREDICTABLE>
 384:	000000f4 	strdeq	r0, [r0], -r4
 388:	000000f4 	strdeq	r0, [r0], -r4
 38c:	00000104 	andeq	r0, r0, r4, lsl #2
 390:	00000108 	andeq	r0, r0, r8, lsl #2
 394:	0000010c 	andeq	r0, r0, ip, lsl #2
	...
 3a0:	000000f0 	strdeq	r0, [r0], -r0	; <UNPREDICTABLE>
 3a4:	000000f4 	strdeq	r0, [r0], -r4
 3a8:	000000f8 	strdeq	r0, [r0], -r8
 3ac:	00000104 	andeq	r0, r0, r4, lsl #2
	...
 3b8:	00000134 	andeq	r0, r0, r4, lsr r1
 3bc:	00000134 	andeq	r0, r0, r4, lsr r1
 3c0:	00000134 	andeq	r0, r0, r4, lsr r1
 3c4:	0000013c 	andeq	r0, r0, ip, lsr r1
	...
 3d0:	0000024c 	andeq	r0, r0, ip, asr #4
 3d4:	00000264 	andeq	r0, r0, r4, ror #4
 3d8:	000002c8 	andeq	r0, r0, r8, asr #5
 3dc:	000002e8 	andeq	r0, r0, r8, ror #5
	...
 3e8:	00000008 	andeq	r0, r0, r8
 3ec:	0000000c 	andeq	r0, r0, ip
 3f0:	00000014 	andeq	r0, r0, r4, lsl r0
 3f4:	00000054 	andeq	r0, r0, r4, asr r0
 3f8:	00000058 	andeq	r0, r0, r8, asr r0
 3fc:	00000060 	andeq	r0, r0, r0, rrx
	...
 408:	00000060 	andeq	r0, r0, r0, rrx
 40c:	00000068 	andeq	r0, r0, r8, rrx
 410:	0000006c 	andeq	r0, r0, ip, rrx
 414:	000000ac 	andeq	r0, r0, ip, lsr #1
 418:	000000b0 	strheq	r0, [r0], -r0	; <UNPREDICTABLE>
 41c:	000000b8 	strheq	r0, [r0], -r8
	...
 428:	00000068 	andeq	r0, r0, r8, rrx
 42c:	00000068 	andeq	r0, r0, r8, rrx
 430:	0000006c 	andeq	r0, r0, ip, rrx
 434:	000000ac 	andeq	r0, r0, ip, lsr #1
 438:	000000b0 	strheq	r0, [r0], -r0	; <UNPREDICTABLE>
 43c:	000000b8 	strheq	r0, [r0], -r8
	...
 448:	000000e8 	andeq	r0, r0, r8, ror #1
 44c:	000000f0 	strdeq	r0, [r0], -r0	; <UNPREDICTABLE>
 450:	000000f4 	strdeq	r0, [r0], -r4
 454:	00000134 	andeq	r0, r0, r4, lsr r1
 458:	00000138 	andeq	r0, r0, r8, lsr r1
 45c:	00000140 	andeq	r0, r0, r0, asr #2
	...
 468:	000000f0 	strdeq	r0, [r0], -r0	; <UNPREDICTABLE>
 46c:	000000f0 	strdeq	r0, [r0], -r0	; <UNPREDICTABLE>
 470:	000000f4 	strdeq	r0, [r0], -r4
 474:	00000134 	andeq	r0, r0, r4, lsr r1
 478:	00000138 	andeq	r0, r0, r8, lsr r1
 47c:	00000140 	andeq	r0, r0, r0, asr #2
	...
 488:	00000144 	andeq	r0, r0, r4, asr #2
 48c:	00000148 	andeq	r0, r0, r8, asr #2
 490:	00000150 	andeq	r0, r0, r0, asr r1
 494:	0000015c 	andeq	r0, r0, ip, asr r1
	...

Disassembly of section .debug_line:

00000000 <.debug_line>:
       0:	00000175 	andeq	r0, r0, r5, ror r1
       4:	00790003 	rsbseq	r0, r9, r3
       8:	01020000 	mrseq	r0, (UNDEF: 2)
       c:	000d0efb 	strdeq	r0, [sp], -fp
      10:	01010101 	tsteq	r1, r1, lsl #2
      14:	01000000 	mrseq	r0, (UNDEF: 0)
      18:	74010000 	strvc	r0, [r1], #-0
      1c:	73747365 	cmnvc	r4, #-1811939327	; 0x94000001
      20:	2f002e00 	svccs	0x00002e00
      24:	72657355 	rsbvc	r7, r5, #1409286145	; 0x54000001
      28:	696d2f73 	stmdbvs	sp!, {r0, r1, r4, r5, r6, r8, r9, sl, fp, sp}^
      2c:	2f73656c 	svccs	0x0073656c
      30:	72756f53 	rsbsvc	r6, r5, #332	; 0x14c
      34:	632f6563 			; <UNDEFINED> instruction: 0x632f6563
      38:	30343273 	eorscc	r3, r4, r3, ror r2
      3c:	6c2f786c 	stcvs	8, cr7, [pc], #-432	; fffffe94 <__bss_end__+0xffff50a4>
      40:	69706269 	ldmdbvs	r0!, {r0, r3, r5, r6, r9, sp, lr}^
      44:	636e692f 	cmnvs	lr, #770048	; 0xbc000
      48:	6564756c 	strbvs	r7, [r4, #-1388]!	; 0xfffffa94
      4c:	61700000 	cmnvs	r0, r0
      50:	2d327472 	cfldrscs	mvf7, [r2, #-456]!	; 0xfffffe38
      54:	74736574 	ldrbtvc	r6, [r3], #-1396	; 0xfffffa8c
      58:	00632e35 	rsbeq	r2, r3, r5, lsr lr
      5c:	73000001 	movwvc	r0, #1
      60:	6c2d6372 	stcvs	3, cr6, [sp], #-456	; 0xfffffe38
      64:	682e636f 	stmdavs	lr!, {r0, r1, r2, r3, r5, r6, r8, r9, sp, lr}
      68:	00000200 	andeq	r0, r0, r0, lsl #4
      6c:	2e697072 	mcrcs	0, 3, r7, cr9, cr2, {3}
      70:	00030068 	andeq	r0, r3, r8, rrx
      74:	616b6300 	cmnvs	fp, r0, lsl #6
      78:	636f6c6c 	cmnvs	pc, #108, 24	; 0x6c00
      7c:	0200682e 	andeq	r6, r0, #3014656	; 0x2e0000
      80:	05000000 	streq	r0, [r0, #-0]
      84:	02050012 	andeq	r0, r5, #18, 0
      88:	00008038 	andeq	r8, r0, r8, lsr r0
      8c:	4b050519 	blmi	1414f8 <__bss_end__+0x136708>
      90:	01090518 	tsteq	r9, r8, lsl r5
      94:	01060d05 	tsteq	r6, r5, lsl #26
      98:	052c0805 	streq	r0, [ip, #-2053]!	; 0xfffff7fb
      9c:	0d053005 	stceq	0, cr3, [r5, #-20]	; 0xffffffec
      a0:	01040200 	mrseq	r0, R12_usr
      a4:	02003306 	andeq	r3, r0, #402653184	; 0x18000000
      a8:	00010104 	andeq	r0, r1, r4, lsl #2
      ac:	d6010402 	strle	r0, [r1], -r2, lsl #8
      b0:	02000905 	andeq	r0, r0, #81920	; 0x14000
      b4:	00320204 	eorseq	r0, r2, r4, lsl #4
      b8:	06020402 	streq	r0, [r2], -r2, lsl #8
      bc:	001b0501 	andseq	r0, fp, r1, lsl #10
      c0:	06020402 	streq	r0, [r2], -r2, lsl #8
      c4:	05017703 	streq	r7, [r1, #-1795]	; 0xfffff8fd
      c8:	0402001c 	streq	r0, [r2], #-28	; 0xffffffe4
      cc:	05010602 	streq	r0, [r1, #-1538]	; 0xfffff9fe
      d0:	0402000b 	streq	r0, [r2], #-11
      d4:	2e090302 	cdpcs	3, 0, cr0, cr9, cr2, {0}
      d8:	02040200 	andeq	r0, r4, #0, 4
      dc:	0014052e 	andseq	r0, r4, lr, lsr #10
      e0:	06010402 	streq	r0, [r1], -r2, lsl #8
      e4:	05017703 	streq	r7, [r1, #-1795]	; 0xfffff8fd
      e8:	04020005 	streq	r0, [r2], #-5
      ec:	05010601 	streq	r0, [r1, #-1537]	; 0xfffff9ff
      f0:	044b0609 	strbeq	r0, [fp], #-1545	; 0xfffff9f7
      f4:	0e0b0502 	cfsh32eq	mvfx0, mvfx11, #2
      f8:	05130505 	ldreq	r0, [r3, #-1285]	; 0xfffffafb
      fc:	ba01060c 	blt	41934 <__bss_end__+0x36b44>
     100:	1a050104 	bne	140518 <__bss_end__+0x135728>
     104:	06090515 			; <UNDEFINED> instruction: 0x06090515
     108:	0e05679f 	mcreq	7, 0, r6, cr5, cr15, {4}
     10c:	09050106 	stmdbeq	r5, {r1, r2, r8}
     110:	0b054b06 	bleq	152d30 <__bss_end__+0x147f40>
     114:	0d050106 	stfeqs	f0, [r5, #-24]	; 0xffffffe8
     118:	00014b06 	andeq	r4, r1, r6, lsl #22
     11c:	66020402 	strvs	r0, [r2], -r2, lsl #8
     120:	02040200 	andeq	r0, r4, #0, 4
     124:	04020001 	streq	r0, [r2], #-1
     128:	15051302 	strne	r1, [r5, #-770]	; 0xfffffcfe
     12c:	02040200 	andeq	r0, r4, #0, 4
     130:	0d050106 	stfeqs	f0, [r5, #-24]	; 0xffffffe8
     134:	02040200 	andeq	r0, r4, #0, 4
     138:	15052f06 	strne	r2, [r5, #-3846]	; 0xfffff0fa
     13c:	02040200 	andeq	r0, r4, #0, 4
     140:	02000106 	andeq	r0, r0, #-2147483647	; 0x80000001
     144:	054a0204 	strbeq	r0, [sl, #-516]	; 0xfffffdfc
     148:	09030605 	stmdbeq	r3, {r0, r2, r9, sl}
     14c:	01053001 	tsteq	r5, r1
     150:	05661306 	strbeq	r1, [r6, #-774]!	; 0xfffffcfa
     154:	05000610 	streq	r0, [r0, #-1552]	; 0xfffff9f0
     158:	0080fc02 	addeq	pc, r0, r2, lsl #24
     15c:	05051600 	streq	r1, [r5, #-1536]	; 0xfffffa00
     160:	0601052f 	streq	r0, [r1], -pc, lsr #10
     164:	0614052f 	ldreq	r0, [r4], -pc, lsr #10
     168:	2f050530 	svccs	0x00050530
     16c:	8530314f 	ldrhi	r3, [r0, #-335]!	; 0xfffffeb1
     170:	2f060105 	svccs	0x00060105
     174:	01000602 	tsteq	r0, r2, lsl #12
     178:	0002e401 	andeq	lr, r2, r1, lsl #8
     17c:	e5000300 	str	r0, [r0, #-768]	; 0xfffffd00
     180:	02000000 	andeq	r0, r0, #0, 0
     184:	0d0efb01 	vstreq	d15, [lr, #-4]
     188:	01010100 	mrseq	r0, (UNDEF: 17)
     18c:	00000001 	andeq	r0, r0, r1
     190:	01000001 	tsteq	r0, r1
     194:	74706f2f 	ldrbtvc	r6, [r0], #-3887	; 0xfffff0d1
     198:	6d6f682f 	stclvs	8, cr6, [pc, #-188]!	; e4 <__code_start__-0x7f1c>
     19c:	65726265 	ldrbvs	r6, [r2, #-613]!	; 0xfffffd9b
     1a0:	65432f77 	strbvs	r2, [r3, #-3959]	; 0xfffff089
     1a4:	72616c6c 	rsbvc	r6, r1, #108, 24	; 0x6c00
     1a8:	6d72612f 	ldfvse	f6, [r2, #-188]!	; 0xffffff44
     1ac:	6e6f6e2d 	cdpvs	14, 6, cr6, cr15, cr13, {1}
     1b0:	61652d65 	cmnvs	r5, r5, ror #26
     1b4:	392d6962 	pushcc	{r1, r5, r6, r8, fp, sp, lr}
     1b8:	322d392f 	eorcc	r3, sp, #770048	; 0xbc000
     1bc:	71393130 	teqvc	r9, r0, lsr r1
     1c0:	73632d34 	cmnvc	r3, #52, 26	; 0xd00
     1c4:	65373031 	ldrvs	r3, [r7, #-49]!	; 0xffffffcf
     1c8:	62696c2f 	rsbvs	r6, r9, #12032	; 0x2f00
     1cc:	6363672f 	cmnvs	r3, #12320768	; 0xbc0000
     1d0:	6d72612f 	ldfvse	f6, [r2, #-188]!	; 0xffffff44
     1d4:	6e6f6e2d 	cdpvs	14, 6, cr6, cr15, cr13, {1}
     1d8:	61652d65 	cmnvs	r5, r5, ror #26
     1dc:	392f6962 	stmdbcc	pc!, {r1, r5, r6, r8, fp, sp, lr}	; <UNPREDICTABLE>
     1e0:	312e322e 			; <UNDEFINED> instruction: 0x312e322e
     1e4:	636e692f 	cmnvs	lr, #770048	; 0xbc000
     1e8:	6564756c 	strbvs	r7, [r4, #-1388]!	; 0xfffffa94
     1ec:	73552f00 	cmpvc	r5, #0, 30
     1f0:	2f737265 	svccs	0x00737265
     1f4:	656c696d 	strbvs	r6, [ip, #-2413]!	; 0xfffff693
     1f8:	6f532f73 	svcvs	0x00532f73
     1fc:	65637275 	strbvs	r7, [r3, #-629]!	; 0xfffffd8b
     200:	3273632f 	rsbscc	r6, r3, #-1140850688	; 0xbc000000
     204:	786c3034 	stmdavc	ip!, {r2, r4, r5, ip, sp}^
     208:	62696c2f 	rsbvs	r6, r9, #12032	; 0x2f00
     20c:	692f6970 	stmdbvs	pc!, {r4, r5, r6, r8, fp, sp, lr}	; <UNPREDICTABLE>
     210:	756c636e 	strbvc	r6, [ip, #-878]!	; 0xfffffc92
     214:	00006564 	andeq	r6, r0, r4, ror #10
     218:	6c616b63 			; <UNDEFINED> instruction: 0x6c616b63
     21c:	2e636f6c 	cdpcs	15, 6, cr6, cr3, cr12, {3}
     220:	00000063 	andeq	r0, r0, r3, rrx
     224:	616b6300 	cmnvs	fp, r0, lsl #6
     228:	636f6c6c 	cmnvs	pc, #108, 24	; 0x6c00
     22c:	0000682e 	andeq	r6, r0, lr, lsr #16
     230:	74730000 	ldrbtvc	r0, [r3], #-0
     234:	746e6964 	strbtvc	r6, [lr], #-2404	; 0xfffff69c
     238:	6363672d 	cmnvs	r3, #11796480	; 0xb40000
     23c:	0100682e 	tsteq	r0, lr, lsr #16
     240:	70720000 	rsbsvc	r0, r2, r0
     244:	00682e69 	rsbeq	r2, r8, r9, ror #28
     248:	73000002 	movwvc	r0, #2
     24c:	6c2d6372 	stcvs	3, cr6, [sp], #-456	; 0xfffffe38
     250:	682e636f 	stmdavs	lr!, {r0, r1, r2, r3, r5, r6, r8, r9, sp, lr}
     254:	00000000 	andeq	r0, r0, r0
     258:	6d2d726b 	sfmvs	f7, 4, [sp, #-428]!	; 0xfffffe54
     25c:	6f6c6c61 	svcvs	0x006c6c61
     260:	00682e63 	rsbeq	r2, r8, r3, ror #28
     264:	00000000 	andeq	r0, r0, r0
     268:	05000105 	streq	r0, [r0, #-261]	; 0xfffffefb
     26c:	00813c02 	addeq	r3, r1, r2, lsl #24
     270:	010b0300 	mrseq	r0, (UNDEF: 59)
     274:	05130505 	ldreq	r0, [r3, #-1285]	; 0xfffffafb
     278:	06130601 	ldreq	r0, [r3], -r1, lsl #12
     27c:	13050586 	movwne	r0, #21894	; 0x5586
     280:	01060805 	tsteq	r6, r5, lsl #16
     284:	0609052e 	streq	r0, [r9], -lr, lsr #10
     288:	0611052f 	ldreq	r0, [r1], -pc, lsr #10
     28c:	30010501 	andcc	r0, r1, r1, lsl #10
     290:	2e250306 	cdpcs	3, 2, cr0, cr5, cr6, {0}
     294:	05050106 	streq	r0, [r5, #-262]	; 0xfffffefa
     298:	00014b06 	andeq	r4, r1, r6, lsl #22
     29c:	66020402 	strvs	r0, [r2], -r2, lsl #8
     2a0:	02040200 	andeq	r0, r4, #0, 4
     2a4:	04020001 	streq	r0, [r2], #-1
     2a8:	0c051302 	stceq	3, cr1, [r5], {2}
     2ac:	02040200 	andeq	r0, r4, #0, 4
     2b0:	05050106 	streq	r0, [r5, #-262]	; 0xfffffefa
     2b4:	02040200 	andeq	r0, r4, #0, 4
     2b8:	08053006 	stmdaeq	r5, {r1, r2, ip, sp}
     2bc:	02040200 	andeq	r0, r4, #0, 4
     2c0:	0b050106 	bleq	1406e0 <__bss_end__+0x1358f0>
     2c4:	11055106 	tstne	r5, r6, lsl #2
     2c8:	0b052e06 	bleq	14bae8 <__bss_end__+0x140cf8>
     2cc:	09052e2e 	stmdbeq	r5, {r1, r2, r3, r5, r9, sl, fp, sp}
     2d0:	0c053006 	stceq	0, cr3, [r5], {6}
     2d4:	0d050106 	stfeqs	f0, [r5, #-24]	; 0xffffffe8
     2d8:	1b054c06 	blne	1532f8 <__bss_end__+0x148508>
     2dc:	18050106 	stmdane	r5, {r1, r2, r8}
     2e0:	060d052e 	streq	r0, [sp], -lr, lsr #10
     2e4:	0601052f 	streq	r0, [r1], -pc, lsr #10
     2e8:	00050517 	andeq	r0, r5, r7, lsl r5
     2ec:	06010402 	streq	r0, [r1], -r2, lsl #8
     2f0:	004a6c03 	subeq	r6, sl, r3, lsl #24
     2f4:	01010402 	tsteq	r1, r2, lsl #8
     2f8:	01040200 	mrseq	r0, R12_usr
     2fc:	02009e06 	andeq	r9, r0, #96	; 0x60
     300:	002e0104 	eoreq	r0, lr, r4, lsl #2
     304:	06010402 	streq	r0, [r1], -r2, lsl #8
     308:	3309052e 	movwcc	r0, #38190	; 0x952e
     30c:	01060f05 	tsteq	r6, r5, lsl #30
     310:	052e0c05 	streq	r0, [lr, #-3077]!	; 0xfffff3fb
     314:	052f0609 	streq	r0, [pc, #-1545]!	; fffffd13 <__bss_end__+0xffff4f23>
     318:	2e0d0305 	cdpcs	3, 0, cr0, cr13, cr5, {0}
     31c:	069e0601 	ldreq	r0, [lr], r1, lsl #12
     320:	0301052e 	movweq	r0, #5422	; 0x152e
     324:	0505ba4a 	streq	fp, [r5, #-2634]	; 0xfffff5b6
     328:	06010513 			; <UNDEFINED> instruction: 0x06010513
     32c:	32062e13 	andcc	r2, r6, #304	; 0x130
     330:	05050106 	streq	r0, [r5, #-262]	; 0xfffffefa
     334:	14054b06 	strne	r4, [r5], #-2822	; 0xfffff4fa
     338:	02040106 	andeq	r0, r4, #-2147483647	; 0x80000001
     33c:	2f061805 	svccs	0x00061805
     340:	05130505 	ldreq	r0, [r3, #-1285]	; 0xfffffafb
     344:	2e01060d 	cfmadd32cs	mvax0, mvfx0, mvfx1, mvfx13
     348:	01050104 	tsteq	r5, r4, lsl #2
     34c:	064e0611 			; <UNDEFINED> instruction: 0x064e0611
     350:	06050501 	streq	r0, [r5], -r1, lsl #10
     354:	06110567 	ldreq	r0, [r1], -r7, ror #10
     358:	05052e01 	streq	r2, [r5, #-3585]	; 0xfffff1ff
     35c:	11052f06 	tstne	r5, r6, lsl #30
     360:	052e0106 	streq	r0, [lr, #-262]!	; 0xfffffefa
     364:	052f0605 	streq	r0, [pc, #-1541]!	; fffffd67 <__bss_end__+0xffff4f77>
     368:	66130601 	ldrvs	r0, [r3], -r1, lsl #12
     36c:	01064d06 	tsteq	r6, r6, lsl #26
     370:	4c060505 	cfstr32mi	mvfx0, [r6], {5}
     374:	05010a05 	streq	r0, [r1, #-2565]	; 0xfffff5fb
     378:	2e010615 	mcrcs	6, 0, r0, cr1, cr5, {0}
     37c:	02002505 	andeq	r2, r0, #20971520	; 0x1400000
     380:	2e060104 	adfcss	f0, f6, f4
     384:	02000505 	andeq	r0, r0, #20971520	; 0x1400000
     388:	01060104 	tsteq	r6, r4, lsl #2
     38c:	4d060905 	vstrmi.16	s0, [r6, #-10]	; <UNPREDICTABLE>
     390:	01060d05 	tsteq	r6, r5, lsl #26
     394:	2e0c054a 	cfsh32cs	mvfx0, mvfx12, #42
     398:	02002805 	andeq	r2, r0, #327680	; 0x50000
     39c:	47060204 	strmi	r0, [r6, -r4, lsl #4]
     3a0:	02002c05 	andeq	r2, r0, #1280	; 0x500
     3a4:	01060204 	tsteq	r6, r4, lsl #4
     3a8:	02040200 	andeq	r0, r4, #0, 4
     3ac:	060d0566 	streq	r0, [sp], -r6, ror #10
     3b0:	01068333 	tsteq	r6, r3, lsr r3
     3b4:	06160105 	ldreq	r0, [r6], -r5, lsl #2
     3b8:	06661c03 	strbteq	r1, [r6], -r3, lsl #24
     3bc:	05058201 	streq	r8, [r5, #-513]	; 0xfffffdff
     3c0:	14132f06 	ldrne	r2, [r3], #-3846	; 0xfffff0fa
     3c4:	1366f201 	msrne	SPSR_sx, #268435456	; 0x10000000
     3c8:	01060a05 	tsteq	r6, r5, lsl #20
     3cc:	052e0805 	streq	r0, [lr, #-2053]!	; 0xfffff7fb
     3d0:	05670609 	strbeq	r0, [r7, #-1545]!	; 0xfffff9f7
     3d4:	0e051405 	cdpeq	4, 0, cr1, cr5, cr5, {0}
     3d8:	05050106 	streq	r0, [r5, #-262]	; 0xfffffefa
     3dc:	00014b06 	andeq	r4, r1, r6, lsl #22
     3e0:	82020402 	andhi	r0, r2, #33554432	; 0x2000000
     3e4:	02040200 	andeq	r0, r4, #0, 4
     3e8:	04020001 	streq	r0, [r2], #-1
     3ec:	02001402 	andeq	r1, r0, #33554432	; 0x2000000
     3f0:	05670204 	strbeq	r0, [r7, #-516]!	; 0xfffffdfc
     3f4:	04020001 	streq	r0, [r2], #-1
     3f8:	054b0602 	strbeq	r0, [fp, #-1538]	; 0xfffff9fe
     3fc:	79030609 	stmdbvc	r3, {r0, r3, r9, sl}
     400:	669e014a 	ldrvs	r0, [lr], sl, asr #2
     404:	02000505 	andeq	r0, r0, #20971520	; 0x1400000
     408:	00310104 	eorseq	r0, r1, r4, lsl #2
     40c:	01010402 	tsteq	r1, r2, lsl #8
     410:	01040200 	mrseq	r0, R12_usr
     414:	030105d6 	movweq	r0, #5590	; 0x15d6
     418:	063c080a 	ldrteq	r0, [ip], -sl, lsl #16
     41c:	06050501 	streq	r0, [r5], -r1, lsl #10
     420:	0610059f 			; <UNDEFINED> instruction: 0x0610059f
     424:	05052e01 	streq	r2, [r5, #-3585]	; 0xfffff1ff
     428:	05684b06 	strbeq	r4, [r8, #-2822]!	; 0xfffff4fa
     42c:	05010615 	streq	r0, [r1, #-1557]	; 0xfffff9eb
     430:	052f0605 	streq	r0, [pc, #-1541]!	; fffffe33 <__bss_end__+0xffff5043>
     434:	0501060e 	streq	r0, [r1, #-1550]	; 0xfffff9f2
     438:	054b0605 	strbeq	r0, [fp, #-1541]	; 0xfffff9fb
     43c:	05010612 	streq	r0, [r1, #-1554]	; 0xfffff9ee
     440:	01680605 	cmneq	r8, r5, lsl #12
     444:	0514829e 	ldreq	r8, [r4, #-670]	; 0xfffffd62
     448:	0501060d 	streq	r0, [r1, #-1549]	; 0xfffff9f3
     44c:	05670605 	strbeq	r0, [r7, #-1541]!	; 0xfffff9fb
     450:	05010610 	streq	r0, [r1, #-1552]	; 0xfffff9f0
     454:	05300605 	ldreq	r0, [r0, #-1541]!	; 0xfffff9fb
     458:	66130601 	ldrvs	r0, [r3], -r1, lsl #12
     45c:	01000602 	tsteq	r0, r2, lsl #12
     460:	00022701 	andeq	r2, r2, r1, lsl #14
     464:	64000300 	strvs	r0, [r0], #-768	; 0xfffffd00
     468:	02000000 	andeq	r0, r0, #0, 0
     46c:	0d0efb01 	vstreq	d15, [lr, #-4]
     470:	01010100 	mrseq	r0, (UNDEF: 17)
     474:	00000001 	andeq	r0, r0, r1
     478:	01000001 	tsteq	r0, r1
     47c:	6573552f 	ldrbvs	r5, [r3, #-1327]!	; 0xfffffad1
     480:	6d2f7372 	stcvs	3, cr7, [pc, #-456]!	; 2c0 <__code_start__-0x7d40>
     484:	73656c69 	cmnvc	r5, #26880	; 0x6900
     488:	756f532f 	strbvc	r5, [pc, #-815]!	; 161 <__code_start__-0x7e9f>
     48c:	2f656372 	svccs	0x00656372
     490:	34327363 	ldrtcc	r7, [r2], #-867	; 0xfffffc9d
     494:	2f786c30 	svccs	0x00786c30
     498:	7062696c 	rsbvc	r6, r2, ip, ror #18
     49c:	6e692f69 	cdpvs	15, 6, cr2, cr9, cr9, {3}
     4a0:	64756c63 	ldrbtvs	r6, [r5], #-3171	; 0xfffff39d
     4a4:	6b000065 	blvs	640 <__code_start__-0x79c0>
     4a8:	616d2d72 	smcvs	53970	; 0xd2d2
     4ac:	636f6c6c 	cmnvs	pc, #108, 24	; 0x6c00
     4b0:	0000632e 	andeq	r6, r0, lr, lsr #6
     4b4:	70720000 	rsbsvc	r0, r2, r0
     4b8:	00682e69 	rsbeq	r2, r8, r9, ror #28
     4bc:	6b000001 	blvs	4c8 <__code_start__-0x7b38>
     4c0:	616d2d72 	smcvs	53970	; 0xd2d2
     4c4:	636f6c6c 	cmnvs	pc, #108, 24	; 0x6c00
     4c8:	0000682e 	andeq	r6, r0, lr, lsr #16
     4cc:	05000000 	streq	r0, [r0, #-0]
     4d0:	02050001 	andeq	r0, r5, #1, 0
     4d4:	00008424 	andeq	r8, r0, r4, lsr #8
     4d8:	0100d203 	tsteq	r0, r3, lsl #4
     4dc:	02050106 	andeq	r0, r5, #-2147483647	; 0x80000001
     4e0:	05132f06 	ldreq	r2, [r3, #-3846]	; 0xfffff0fa
     4e4:	05010605 	streq	r0, [r1, #-1541]	; 0xfffff9fb
     4e8:	052f0602 	streq	r0, [pc, #-1538]!	; fffffeee <__bss_end__+0xffff50fe>
     4ec:	05010609 	streq	r0, [r1, #-1545]	; 0xfffff9f7
     4f0:	052e4a02 	streq	r4, [lr, #-2562]!	; 0xfffff5fe
     4f4:	04020012 	streq	r0, [r2], #-18	; 0xffffffee
     4f8:	052e0601 	streq	r0, [lr, #-1537]!	; 0xfffff9ff
     4fc:	04020002 	streq	r0, [r2], #-2
     500:	05010601 	streq	r0, [r1, #-1537]	; 0xfffff9ff
     504:	04020027 	streq	r0, [r2], #-39	; 0xffffffd9
     508:	12054a03 	andne	r4, r5, #12288	; 0x3000
     50c:	03040200 	movweq	r0, #16896	; 0x4200
     510:	0603052e 	streq	r0, [r3], -lr, lsr #10
     514:	0610054b 	ldreq	r0, [r0], -fp, asr #10
     518:	2e060501 	cfsh32cs	mvfx0, mvfx6, #1
     51c:	02001505 	andeq	r1, r0, #20971520	; 0x1400000
     520:	054a0104 	strbeq	r0, [sl, #-260]	; 0xfffffefc
     524:	04020020 	streq	r0, [r2], #-32	; 0xffffffe0
     528:	02004a02 	andeq	r4, r0, #8192	; 0x2000
     52c:	054a0204 	strbeq	r0, [sl, #-516]	; 0xfffffdfc
     530:	05300602 	ldreq	r0, [r0, #-1538]!	; 0xfffff9fe
     534:	05010610 	streq	r0, [r1, #-1552]	; 0xfffff9f0
     538:	1d052e09 	stcne	14, cr2, [r5, #-36]	; 0xffffffdc
     53c:	2e05052e 	cfsh32cs	mvfx0, mvfx5, #30
     540:	50060305 	andpl	r0, r6, r5, lsl #6
     544:	01060d05 	tsteq	r6, r5, lsl #26
     548:	2f060205 	svccs	0x00060205
     54c:	01060e05 	tsteq	r6, r5, lsl #28
     550:	052e0805 	streq	r0, [lr, #-2053]!	; 0xfffff7fb
     554:	03052e05 	movweq	r2, #24069	; 0x5e05
     558:	0c055006 	stceq	0, cr5, [r5], {6}
     55c:	02050106 	andeq	r0, r5, #-2147483647	; 0x80000001
     560:	08052f06 	stmdaeq	r5, {r1, r2, r8, r9, sl, fp, sp}
     564:	01050106 	tsteq	r5, r6, lsl #2
     568:	0603054b 	streq	r0, [r3], -fp, asr #10
     56c:	052e7303 	streq	r7, [lr, #-771]!	; 0xfffffcfd
     570:	0501061c 	streq	r0, [r1, #-1564]	; 0xfffff9e4
     574:	03052e0e 	movweq	r2, #24078	; 0x5e0e
     578:	13054b06 	movwne	r4, #23302	; 0x5b06
     57c:	1a050106 	bne	14099c <__bss_end__+0x135bac>
     580:	2e0d052e 	cfsh32cs	mvfx0, mvfx13, #30
     584:	50060305 	andpl	r0, r6, r5, lsl #6
     588:	01061505 	tsteq	r6, r5, lsl #10
     58c:	052e0d05 	streq	r0, [lr, #-3333]!	; 0xfffff2fb
     590:	054b0603 	strbeq	r0, [fp, #-1539]	; 0xfffff9fd
     594:	05010613 	streq	r0, [r1, #-1555]	; 0xfffff9ed
     598:	01052e0c 	tsteq	r5, ip, lsl #28
     59c:	7fba0306 	svcvc	0x00ba0306
     5a0:	05010666 	streq	r0, [r1, #-1638]	; 0xfffff99a
     5a4:	054b0602 	strbeq	r0, [fp, #-1538]	; 0xfffff9fe
     5a8:	05010605 	streq	r0, [r1, #-1541]	; 0xfffff9fb
     5ac:	02052f06 	andeq	r2, r5, #6, 30
     5b0:	0d052f06 	stceq	15, cr2, [r5, #-24]	; 0xffffffe8
     5b4:	02050106 	andeq	r0, r5, #-2147483647	; 0x80000001
     5b8:	05054b06 	streq	r4, [r5, #-2822]	; 0xfffff4fa
     5bc:	02050106 	andeq	r0, r5, #-2147483647	; 0x80000001
     5c0:	05134c06 	ldreq	r4, [r3, #-3078]	; 0xfffff3fa
     5c4:	0501060d 	streq	r0, [r1, #-1549]	; 0xfffff9f3
     5c8:	062f0602 	strteq	r0, [pc], -r2, lsl #12
     5cc:	052f062e 	streq	r0, [pc, #-1582]!	; ffffffa6 <__bss_end__+0xffff51b6>
     5d0:	05010609 	streq	r0, [r1, #-1545]	; 0xfffff9f7
     5d4:	0105620a 	tsteq	r5, sl, lsl #4
     5d8:	064e0633 			; <UNDEFINED> instruction: 0x064e0633
     5dc:	06020501 	streq	r0, [r2], -r1, lsl #10
     5e0:	0514132f 	ldreq	r1, [r4, #-815]	; 0xfffffcd1
     5e4:	05010624 	streq	r0, [r1, #-1572]	; 0xfffff9dc
     5e8:	09052e29 	stmdbeq	r5, {r0, r3, r5, r9, sl, fp, sp}
     5ec:	0602052e 	streq	r0, [r2], -lr, lsr #10
     5f0:	060d052f 	streq	r0, [sp], -pc, lsr #10
     5f4:	4a050501 	bmi	141a00 <__bss_end__+0x136c10>
     5f8:	50060205 	andpl	r0, r6, r5, lsl #4
     5fc:	01060905 	tsteq	r6, r5, lsl #18
     600:	0603052e 	streq	r0, [r3], -lr, lsr #10
     604:	0616052a 	ldreq	r0, [r6], -sl, lsr #10
     608:	4a0e0501 	bmi	381a14 <__bss_end__+0x376c24>
     60c:	2f060305 	svccs	0x00060305
     610:	01060f05 	tsteq	r6, r5, lsl #30
     614:	6d060405 	cfstrsvs	mvf0, [r6, #-20]	; 0xffffffec
     618:	01060705 	tsteq	r6, r5, lsl #14
     61c:	34060505 	strcc	r0, [r6], #-1285	; 0xfffffafb
     620:	01060f05 	tsteq	r6, r5, lsl #30
     624:	4b060505 	blmi	181a40 <__bss_end__+0x176c50>
     628:	01060705 	tsteq	r6, r5, lsl #14
     62c:	2f060505 	svccs	0x00060505
     630:	01060f05 	tsteq	r6, r5, lsl #30
     634:	30060405 	andcc	r0, r6, r5, lsl #8
     638:	01060a05 	tsteq	r6, r5, lsl #20
     63c:	4b060405 	blmi	181658 <__bss_end__+0x176868>
     640:	01060b05 	tsteq	r6, r5, lsl #22
     644:	0605052e 	streq	r0, [r5], -lr, lsr #10
     648:	052e7703 	streq	r7, [lr, #-1795]!	; 0xfffff8fd
     64c:	05010618 	streq	r0, [r1, #-1560]	; 0xfffff9e8
     650:	1a052e12 	bne	14bea0 <__bss_end__+0x1410b0>
     654:	4a7a0306 	bmi	1e81274 <__bss_end__+0x1e76484>
     658:	05011805 	streq	r1, [r1, #-2053]	; 0xfffff7fb
     65c:	05010620 	streq	r0, [r1, #-1568]	; 0xfffff9e0
     660:	03052e27 	movweq	r2, #24103	; 0x5e27
     664:	0b053006 	bleq	14c684 <__bss_end__+0x141894>
     668:	06050106 	streq	r0, [r5], -r6, lsl #2
     66c:	0603052e 	streq	r0, [r3], -lr, lsr #10
     670:	054a0f03 	strbeq	r0, [sl, #-3843]	; 0xfffff0fd
     674:	05010609 	streq	r0, [r1, #-1545]	; 0xfffff9f7
     678:	04054a06 	streq	r4, [r5], #-2566	; 0xfffff5fa
     67c:	0d054c06 	stceq	12, cr4, [r5, #-24]	; 0xffffffe8
     680:	052e0106 	streq	r0, [lr, #-262]!	; 0xfffffefa
     684:	022e2e07 	eoreq	r2, lr, #112	; 0x70
     688:	01010006 	tsteq	r1, r6
     68c:	0000053e 	andeq	r0, r0, lr, lsr r5
     690:	00d40003 	sbcseq	r0, r4, r3
     694:	01020000 	mrseq	r0, (UNDEF: 2)
     698:	000d0efb 	strdeq	r0, [sp], -fp
     69c:	01010101 	tsteq	r1, r1, lsl #2
     6a0:	01000000 	mrseq	r0, (UNDEF: 0)
     6a4:	2f010000 	svccs	0x00010000
     6a8:	2f74706f 	svccs	0x0074706f
     6ac:	656d6f68 	strbvs	r6, [sp, #-3944]!	; 0xfffff098
     6b0:	77657262 	strbvc	r7, [r5, -r2, ror #4]!
     6b4:	6c65432f 	stclvs	3, cr4, [r5], #-188	; 0xffffff44
     6b8:	2f72616c 	svccs	0x0072616c
     6bc:	2d6d7261 	sfmcs	f7, 2, [sp, #-388]!	; 0xfffffe7c
     6c0:	656e6f6e 	strbvs	r6, [lr, #-3950]!	; 0xfffff092
     6c4:	6261652d 	rsbvs	r6, r1, #188743680	; 0xb400000
     6c8:	2f392d69 	svccs	0x00392d69
     6cc:	30322d39 	eorscc	r2, r2, r9, lsr sp
     6d0:	34713931 	ldrbtcc	r3, [r1], #-2353	; 0xfffff6cf
     6d4:	3173632d 	cmncc	r3, sp, lsr #6
     6d8:	2f653730 	svccs	0x00653730
     6dc:	2f62696c 	svccs	0x0062696c
     6e0:	2f636367 	svccs	0x00636367
     6e4:	2d6d7261 	sfmcs	f7, 2, [sp, #-388]!	; 0xfffffe7c
     6e8:	656e6f6e 	strbvs	r6, [lr, #-3950]!	; 0xfffff092
     6ec:	6261652d 	rsbvs	r6, r1, #188743680	; 0xb400000
     6f0:	2e392f69 	cdpcs	15, 3, cr2, cr9, cr9, {3}
     6f4:	2f312e32 	svccs	0x00312e32
     6f8:	6c636e69 	stclvs	14, cr6, [r3], #-420	; 0xfffffe5c
     6fc:	00656475 	rsbeq	r6, r5, r5, ror r4
     700:	6573552f 	ldrbvs	r5, [r3, #-1327]!	; 0xfffffad1
     704:	6d2f7372 	stcvs	3, cr7, [pc, #-456]!	; 544 <__code_start__-0x7abc>
     708:	73656c69 	cmnvc	r5, #26880	; 0x6900
     70c:	756f532f 	strbvc	r5, [pc, #-815]!	; 3e5 <__code_start__-0x7c1b>
     710:	2f656372 	svccs	0x00656372
     714:	34327363 	ldrtcc	r7, [r2], #-867	; 0xfffffc9d
     718:	2f786c30 	svccs	0x00786c30
     71c:	7062696c 	rsbvc	r6, r2, ip, ror #18
     720:	6e692f69 	cdpvs	15, 6, cr2, cr9, cr9, {3}
     724:	64756c63 	ldrbtvs	r6, [r5], #-3171	; 0xfffff39d
     728:	63000065 	movwvs	r0, #101	; 0x65
     72c:	63672d6b 	cmnvs	r7, #6848	; 0x1ac0
     730:	0000632e 	andeq	r6, r0, lr, lsr #6
     734:	72730000 	rsbsvc	r0, r3, #0, 0
     738:	6f6c2d63 	svcvs	0x006c2d63
     73c:	00682e63 	rsbeq	r2, r8, r3, ror #28
     740:	73000000 	movwvc	r0, #0
     744:	6e696474 	mcrvs	4, 3, r6, cr9, cr4, {3}
     748:	63672d74 	cmnvs	r7, #116, 26	; 0x1d00
     74c:	00682e63 	rsbeq	r2, r8, r3, ror #28
     750:	72000001 	andvc	r0, r0, #1, 0
     754:	682e6970 	stmdavs	lr!, {r4, r5, r6, r8, fp, sp, lr}
     758:	00000200 	andeq	r0, r0, r0, lsl #4
     75c:	6c616b63 			; <UNDEFINED> instruction: 0x6c616b63
     760:	2e636f6c 	cdpcs	15, 6, cr6, cr3, cr12, {3}
     764:	00000068 	andeq	r0, r0, r8, rrx
     768:	01050000 	mrseq	r0, (UNDEF: 5)
     76c:	d0020500 	andle	r0, r2, r0, lsl #10
     770:	03000085 	movweq	r0, #133	; 0x85
     774:	0505012b 	streq	r0, [r5, #-299]	; 0xfffffed5
     778:	060b0514 			; <UNDEFINED> instruction: 0x060b0514
     77c:	4a080501 	bmi	201b88 <__bss_end__+0x1f6d98>
     780:	02001d05 	andeq	r1, r0, #320	; 0x140
     784:	054a0104 	strbeq	r0, [sl, #-260]	; 0xfffffefc
     788:	04020018 	streq	r0, [r2], #-24	; 0xffffffe8
     78c:	0c054a01 			; <UNDEFINED> instruction: 0x0c054a01
     790:	10052e4d 	andne	r2, r5, sp, asr #28
     794:	052e2e2c 	streq	r2, [lr, #-3628]!	; 0xfffff1d4
     798:	03063101 	movweq	r3, #24833	; 0x6101
     79c:	01064a0b 	tsteq	r6, fp, lsl #20
     7a0:	4b060505 	blmi	181bbc <__bss_end__+0x176dcc>
     7a4:	060a0514 			; <UNDEFINED> instruction: 0x060a0514
     7a8:	2e080501 	cfsh32cs	mvfx0, mvfx8, #1
     7ac:	4c060505 	cfstr32mi	mvfx0, [r6], {5}
     7b0:	01060c05 	tsteq	r6, r5, lsl #24
     7b4:	05651005 	strbeq	r1, [r5, #-5]!
     7b8:	03063001 	movweq	r3, #24577	; 0x6001
     7bc:	01062e0e 	tsteq	r6, lr, lsl #28
     7c0:	4b060505 	blmi	181bdc <__bss_end__+0x176dec>
     7c4:	04020001 	streq	r0, [r2], #-1
     7c8:	02008202 	andeq	r8, r0, #536870912	; 0x20000000
     7cc:	00010204 	andeq	r0, r1, r4, lsl #4
     7d0:	15020402 	strne	r0, [r2, #-1026]	; 0xfffffbfe
     7d4:	02040200 	andeq	r0, r4, #0, 4
     7d8:	04020001 	streq	r0, [r2], #-1
     7dc:	02004a02 	andeq	r4, r0, #8192	; 0x2000
     7e0:	00010204 	andeq	r0, r1, r4, lsl #4
     7e4:	13020402 	movwne	r0, #9218	; 0x2402
     7e8:	02040200 	andeq	r0, r4, #0, 4
     7ec:	04020001 	streq	r0, [r2], #-1
     7f0:	02004a01 	andeq	r4, r0, #4096	; 0x1000
     7f4:	00010104 	andeq	r0, r1, r4, lsl #2
     7f8:	06010402 	streq	r0, [r1], -r2, lsl #8
     7fc:	0402009e 	streq	r0, [r2], #-158	; 0xffffff62
     800:	02002e01 	andeq	r2, r0, #1, 28
     804:	2e060104 	adfcss	f0, f6, f4
     808:	01040200 	mrseq	r0, R12_usr
     80c:	0402002a 	streq	r0, [r2], #-42	; 0xffffffd6
     810:	02000101 	andeq	r0, r0, #1073741824	; 0x40000000
     814:	9e060104 	adflss	f0, f6, f4
     818:	01040200 	mrseq	r0, R12_usr
     81c:	0402002e 	streq	r0, [r2], #-46	; 0xffffffd2
     820:	002e0601 	eoreq	r0, lr, r1, lsl #12
     824:	31010402 	tstcc	r1, r2, lsl #8
     828:	01040200 	mrseq	r0, R12_usr
     82c:	04020001 	streq	r0, [r2], #-1
     830:	009e0601 	addseq	r0, lr, r1, lsl #12
     834:	2e010402 	cdpcs	4, 0, cr0, cr1, cr2, {0}
     838:	01040200 	mrseq	r0, R12_usr
     83c:	19052e06 	stmdbne	r5, {r1, r2, r9, sl, fp, sp}
     840:	2e0d0306 	cdpcs	3, 0, cr0, cr13, cr6, {0}
     844:	004b1105 	subeq	r1, fp, r5, lsl #2
     848:	2e040402 	cdpcs	4, 0, cr0, cr4, cr2, {0}
     84c:	04040200 	streq	r0, [r4], #-512	; 0xfffffe00
     850:	14054d06 	strne	r4, [r5], #-3334	; 0xfffff2fa
     854:	04040200 	streq	r0, [r4], #-512	; 0xfffffe00
     858:	02000106 	andeq	r0, r0, #-2147483647	; 0x80000001
     85c:	054a0404 	strbeq	r0, [sl, #-1028]	; 0xfffffbfc
     860:	04020023 	streq	r0, [r2], #-35	; 0xffffffdd
     864:	72030602 	andvc	r0, r3, #2097152	; 0x200000
     868:	00240501 	eoreq	r0, r4, r1, lsl #10
     86c:	06020402 	streq	r0, [r2], -r2, lsl #8
     870:	001b0501 	andseq	r0, fp, r1, lsl #10
     874:	06010402 	streq	r0, [r1], -r2, lsl #8
     878:	0005052e 	andeq	r0, r5, lr, lsr #10
     87c:	06010402 	streq	r0, [r1], -r2, lsl #8
     880:	06090501 	streq	r0, [r9], -r1, lsl #10
     884:	0614054c 	ldreq	r0, [r4], -ip, asr #10
     888:	06090501 	streq	r0, [r9], -r1, lsl #10
     88c:	060c054b 	streq	r0, [ip], -fp, asr #10
     890:	060d0501 	streq	r0, [sp], -r1, lsl #10
     894:	0629054c 	strteq	r0, [r9], -ip, asr #10
     898:	060d0501 	streq	r0, [sp], -r1, lsl #10
     89c:	0616052f 	ldreq	r0, [r6], -pc, lsr #10
     8a0:	060d0501 	streq	r0, [sp], -r1, lsl #10
     8a4:	2e2e062f 	cfmadda32cs	mvax1, mvax0, mvfx14, mvfx15
     8a8:	1005bb06 	andne	fp, r5, r6, lsl #22
     8ac:	11050106 	tstne	r5, r6, lsl #2
     8b0:	1c054c06 	stcne	12, cr4, [r5], {6}
     8b4:	19050106 	stmdbne	r5, {r1, r2, r8}
     8b8:	0402002e 	streq	r0, [r2], #-46	; 0xffffffd2
     8bc:	11056604 	tstne	r5, r4, lsl #12
     8c0:	04040200 	streq	r0, [r4], #-512	; 0xfffffe00
     8c4:	2c052f06 	stccs	15, cr2, [r5], {6}
     8c8:	04040200 	streq	r0, [r4], #-512	; 0xfffffe00
     8cc:	11050106 	tstne	r5, r6, lsl #2
     8d0:	04040200 	streq	r0, [r4], #-512	; 0xfffffe00
     8d4:	15054a2e 	strne	r4, [r5, #-2606]	; 0xfffff5d2
     8d8:	4d054f06 	stcmi	15, cr4, [r5, #-24]	; 0xffffffe8
     8dc:	15050106 	strne	r0, [r5, #-262]	; 0xfffffefa
     8e0:	0611052e 	ldreq	r0, [r1], -lr, lsr #10
     8e4:	056606a3 	strbeq	r0, [r6, #-1699]!	; 0xfffff95d
     8e8:	064a1601 	strbeq	r1, [sl], -r1, lsl #12
     8ec:	9c020500 	cfstr32ls	mvfx0, [r2], {-0}
     8f0:	03000087 	movweq	r0, #135	; 0x87
     8f4:	05050109 	streq	r0, [r5, #-265]	; 0xfffffef7
     8f8:	010a054e 	tsteq	sl, lr, asr #10
     8fc:	01061505 	tsteq	r6, r5, lsl #10
     900:	02002505 	andeq	r2, r0, #20971520	; 0x1400000
     904:	2e060104 	adfcss	f0, f6, f4
     908:	02000505 	andeq	r0, r0, #20971520	; 0x1400000
     90c:	01060104 	tsteq	r6, r4, lsl #2
     910:	02000905 	andeq	r0, r0, #81920	; 0x14000
     914:	4c060304 	stcmi	3, cr0, [r6], {4}
     918:	02003205 	andeq	r3, r0, #1342177280	; 0x50000000
     91c:	01060304 	tsteq	r6, r4, lsl #6
     920:	02002105 	andeq	r2, r0, #1073741825	; 0x40000001
     924:	054a0304 	strbeq	r0, [sl, #-772]	; 0xfffffcfc
     928:	04020011 	streq	r0, [r2], #-17	; 0xffffffef
     92c:	28052e03 	stmdacs	r5, {r0, r1, r9, sl, fp, sp}
     930:	03040200 	movweq	r0, #16896	; 0x4200
     934:	2c052c06 	stccs	12, cr2, [r5], {6}
     938:	03040200 	movweq	r0, #16896	; 0x4200
     93c:	02000106 	andeq	r0, r0, #-2147483647	; 0x80000001
     940:	002e0304 	eoreq	r0, lr, r4, lsl #6
     944:	2e030402 	cdpcs	4, 0, cr0, cr3, cr2, {0}
     948:	19060505 	stmdbne	r6, {r0, r2, r8, sl}
     94c:	062e0613 			; <UNDEFINED> instruction: 0x062e0613
     950:	060d0530 			; <UNDEFINED> instruction: 0x060d0530
     954:	06050501 	streq	r0, [r5], -r1, lsl #10
     958:	060d054b 	streq	r0, [sp], -fp, asr #10
     95c:	06050501 	streq	r0, [r5], -r1, lsl #10
     960:	060d052f 	streq	r0, [sp], -pc, lsr #10
     964:	06050501 	streq	r0, [r5], -r1, lsl #10
     968:	060d052f 	streq	r0, [sp], -pc, lsr #10
     96c:	06050501 	streq	r0, [r5], -r1, lsl #10
     970:	83136a35 	tsthi	r3, #217088	; 0x35000
     974:	13681369 	cmnne	r8, #-1543503871	; 0xa4000001
     978:	67060105 	strvs	r0, [r6, -r5, lsl #2]
     97c:	0106dc06 	tsteq	r6, r6, lsl #24
     980:	4b060505 	blmi	181d9c <__bss_end__+0x176fac>
     984:	062e0613 			; <UNDEFINED> instruction: 0x062e0613
     988:	052f4c2f 	streq	r4, [pc, #-3119]!	; fffffd61 <__bss_end__+0xffff4f71>
     98c:	1505010a 	strne	r0, [r5, #-266]	; 0xfffffef6
     990:	054a0106 	strbeq	r0, [sl, #-262]	; 0xfffffefa
     994:	1b050d27 	blne	143e38 <__bss_end__+0x139048>
     998:	2e0e052e 	cfsh32cs	mvfx0, mvfx14, #30
     99c:	05330505 	ldreq	r0, [r3, #-1285]!	; 0xfffffafb
     9a0:	0533060d 	ldreq	r0, [r3, #-1549]!	; 0xfffff9f3
     9a4:	05010613 	streq	r0, [r1, #-1555]	; 0xfffff9ed
     9a8:	062f060d 	strteq	r0, [pc], -sp, lsl #12
     9ac:	00280566 	eoreq	r0, r8, r6, ror #10
     9b0:	06020402 	streq	r0, [r2], -r2, lsl #8
     9b4:	052e7a03 	streq	r7, [lr, #-2563]!	; 0xfffff5fd
     9b8:	0402002c 	streq	r0, [r2], #-44	; 0xffffffd4
     9bc:	05010602 	streq	r0, [r1, #-1538]	; 0xfffff9fe
     9c0:	04020025 	streq	r0, [r2], #-37	; 0xffffffdb
     9c4:	05660601 	strbeq	r0, [r6, #-1537]!	; 0xfffff9ff
     9c8:	04020005 	streq	r0, [r2], #-5
     9cc:	05010601 	streq	r0, [r1, #-1537]	; 0xfffff9ff
     9d0:	054c0609 	strbeq	r0, [ip, #-1545]	; 0xfffff9f7
     9d4:	05010610 	streq	r0, [r1, #-1552]	; 0xfffff9f0
     9d8:	052f0609 	streq	r0, [pc, #-1545]!	; 3d7 <__code_start__-0x7c29>
     9dc:	0501060e 	streq	r0, [r1, #-1550]	; 0xfffff9f2
     9e0:	0e052e0c 	cdpeq	14, 0, cr2, cr5, cr12, {0}
     9e4:	11054f06 	tstne	r5, r6, lsl #30
     9e8:	0d050106 	stfeqs	f0, [r5, #-24]	; 0xffffffe8
     9ec:	19054c06 	stmdbne	r5, {r1, r2, sl, fp, lr}
     9f0:	0d050106 	stfeqs	f0, [r5, #-24]	; 0xffffffe8
     9f4:	66062f06 	strvs	r2, [r6], -r6, lsl #30
     9f8:	05052e2e 	streq	r2, [r5, #-3630]	; 0xfffff1d2
     9fc:	06011606 	streq	r1, [r1], -r6, lsl #12
     a00:	132e064a 			; <UNDEFINED> instruction: 0x132e064a
     a04:	01060805 	tsteq	r6, r5, lsl #16
     a08:	4b060905 	blmi	182e24 <__bss_end__+0x178034>
     a0c:	02004a01 	andeq	r4, r0, #4096	; 0x1000
     a10:	05140104 	ldreq	r0, [r4, #-260]	; 0xfffffefc
     a14:	04020005 	streq	r0, [r2], #-5
     a18:	02001401 	andeq	r1, r0, #16777216	; 0x1000000
     a1c:	054b0104 	strbeq	r0, [fp, #-260]	; 0xfffffefc
     a20:	04020008 	streq	r0, [r2], #-8
     a24:	05010601 	streq	r0, [r1, #-1537]	; 0xfffff9ff
     a28:	05300609 	ldreq	r0, [r0, #-1545]!	; 0xfffff9f7
     a2c:	05010617 	streq	r0, [r1, #-1559]	; 0xfffff9e9
     a30:	09053401 	stmdbeq	r5, {r0, sl, ip, sp}
     a34:	4a750306 	bmi	1d41654 <__bss_end__+0x1d36864>
     a38:	03010501 	movweq	r0, #5377	; 0x1501
     a3c:	05900835 	ldreq	r0, [r0, #2101]	; 0x835
     a40:	4b134b05 	blmi	4d365c <__bss_end__+0x4c886c>
     a44:	0a052f4c 	beq	14c77c <__bss_end__+0x14198c>
     a48:	06150501 	ldreq	r0, [r5], -r1, lsl #10
     a4c:	27054a01 	strcs	r4, [r5, -r1, lsl #20]
     a50:	2e1b050d 	cfmul32cs	mvfx0, mvfx11, mvfx13
     a54:	052e0e05 	streq	r0, [lr, #-3589]!	; 0xfffff1fb
     a58:	0d053305 	stceq	3, cr3, [r5, #-20]	; 0xffffffec
     a5c:	13053306 	movwne	r3, #21254	; 0x5306
     a60:	0d050106 	stfeqs	f0, [r5, #-24]	; 0xffffffe8
     a64:	1e052f06 	cdpne	15, 0, cr2, cr5, cr6, {0}
     a68:	1a050106 	bne	140e88 <__bss_end__+0x136098>
     a6c:	060d052e 	streq	r0, [sp], -lr, lsr #10
     a70:	0502042f 	streq	r0, [r2, #-1071]	; 0xfffffbd1
     a74:	7e8b030b 	cdpvc	3, 8, cr0, cr11, cr11, {0}
     a78:	1305052e 	movwne	r0, #21806	; 0x552e
     a7c:	01060c05 	tsteq	r6, r5, lsl #24
     a80:	050104ba 	streq	r0, [r1, #-1210]	; 0xfffffb46
     a84:	01f4030d 	mvnseq	r0, sp, lsl #6
     a88:	2f066601 	svccs	0x00066601
     a8c:	02002805 	andeq	r2, r0, #327680	; 0x50000
     a90:	78030204 	stmdavc	r3, {r2, r9}
     a94:	002c0566 	eoreq	r0, ip, r6, ror #10
     a98:	06020402 	streq	r0, [r2], -r2, lsl #8
     a9c:	00250501 	eoreq	r0, r5, r1, lsl #10
     aa0:	06010402 	streq	r0, [r1], -r2, lsl #8
     aa4:	00050566 	andeq	r0, r5, r6, ror #10
     aa8:	06010402 	streq	r0, [r1], -r2, lsl #8
     aac:	06090501 	streq	r0, [r9], -r1, lsl #10
     ab0:	0610054c 	ldreq	r0, [r0], -ip, asr #10
     ab4:	06090501 	streq	r0, [r9], -r1, lsl #10
     ab8:	060e052f 	streq	r0, [lr], -pc, lsr #10
     abc:	2e0c0501 	cfsh32cs	mvfx0, mvfx12, #1
     ac0:	06050566 	streq	r0, [r5], -r6, ror #10
     ac4:	01010903 	tsteq	r1, r3, lsl #18
     ac8:	2e068206 	cdpcs	2, 0, cr8, cr6, cr6, {0}
     acc:	06010514 			; <UNDEFINED> instruction: 0x06010514
     ad0:	00066613 	andeq	r6, r6, r3, lsl r6
     ad4:	8a100205 	bhi	4012f0 <__bss_end__+0x3f6500>
     ad8:	8b030000 	blhi	c0ae0 <__bss_end__+0xb5cf0>
     adc:	0106017e 	tsteq	r6, lr, ror r1
     ae0:	4b060505 	blmi	181efc <__bss_end__+0x17710c>
     ae4:	02000114 	andeq	r0, r0, #5
     ae8:	004a0204 	subeq	r0, sl, r4, lsl #4
     aec:	01020402 	tsteq	r2, r2, lsl #8
     af0:	02040200 	andeq	r0, r4, #0, 4
     af4:	00090513 	andeq	r0, r9, r3, lsl r5
     af8:	06020402 	streq	r0, [r2], -r2, lsl #8
     afc:	00080501 	andeq	r0, r8, r1, lsl #10
     b00:	4a020402 	bmi	81b10 <__bss_end__+0x76d20>
     b04:	4b060905 	blmi	182f20 <__bss_end__+0x178130>
     b08:	14051315 	strne	r1, [r5], #-789	; 0xfffffceb
     b0c:	054a0106 	strbeq	r0, [sl, #-262]	; 0xfffffefa
     b10:	052f0609 	streq	r0, [pc, #-1545]!	; 50f <__code_start__-0x7af1>
     b14:	05010612 	streq	r0, [r1, #-1554]	; 0xfffff9ee
     b18:	4b4b0609 	blmi	12c2344 <__bss_end__+0x12b7554>
     b1c:	01061005 	tsteq	r6, r5
     b20:	4c060505 	cfstr32mi	mvfx0, [r6], {5}
     b24:	01060c05 	tsteq	r6, r5, lsl #24
     b28:	054b0105 	strbeq	r0, [fp, #-261]	; 0xfffffefb
     b2c:	04020005 	streq	r0, [r2], #-5
     b30:	74030601 	strvc	r0, [r3], #-1537	; 0xfffff9ff
     b34:	0402004a 	streq	r0, [r2], #-74	; 0xffffffb6
     b38:	02000101 	andeq	r0, r0, #1073741824	; 0x40000000
     b3c:	ba060104 	blt	180f54 <__bss_end__+0x176164>
     b40:	01040200 	mrseq	r0, R12_usr
     b44:	09052e06 	stmdbeq	r5, {r1, r2, r9, sl, fp, sp}
     b48:	82060130 	andhi	r0, r6, #12
     b4c:	01052e06 	tsteq	r5, r6, lsl #28
     b50:	d601b603 	strle	fp, [r1], -r3, lsl #12
     b54:	05050106 	streq	r0, [r5, #-262]	; 0xfffffefa
     b58:	0c053006 	stceq	0, cr3, [r5], {6}
     b5c:	01050106 	tsteq	r5, r6, lsl #2
     b60:	0532062f 	ldreq	r0, [r2, #-1583]!	; 0xfffff9d1
     b64:	05133205 	ldreq	r3, [r3, #-517]	; 0xfffffdfb
     b68:	05010609 	streq	r0, [r1, #-1545]	; 0xfffff9f7
     b6c:	09054a08 	stmdbeq	r5, {r3, r9, fp, lr}
     b70:	01144b06 	tsteq	r4, r6, lsl #22
     b74:	1305054a 	movwne	r0, #21834	; 0x554a
     b78:	13060105 	movwne	r0, #24837	; 0x6105
     b7c:	2a060905 	bcs	182f98 <__bss_end__+0x1781a8>
     b80:	01059e01 	tsteq	r5, r1, lsl #28
     b84:	320505a6 	andcc	r0, r5, #696254464	; 0x29800000
     b88:	06170513 			; <UNDEFINED> instruction: 0x06170513
     b8c:	06050501 	streq	r0, [r5], -r1, lsl #10
     b90:	0608054b 	streq	r0, [r8], -fp, asr #10
     b94:	06090501 	streq	r0, [r9], -r1, lsl #10
     b98:	0601144b 	streq	r1, [r1], -fp, asr #8
     b9c:	052e064a 	streq	r0, [lr, #-1610]!	; 0xfffff9b6
     ba0:	05131305 	ldreq	r1, [r3, #-773]	; 0xfffffcfb
     ba4:	05130601 	ldreq	r0, [r3, #-1537]	; 0xfffff9ff
     ba8:	01450609 	cmpeq	r5, r9, lsl #12
     bac:	0301059e 	movweq	r0, #5534	; 0x159e
     bb0:	05059e21 	streq	r9, [r5, #-3617]	; 0xfffff1df
     bb4:	17052f2f 	strne	r2, [r5, -pc, lsr #30]
     bb8:	05050106 	streq	r0, [r5, #-262]	; 0xfffffefa
     bbc:	01053206 	tsteq	r5, r6, lsl #4
     bc0:	31061306 	tstcc	r6, r6, lsl #6
     bc4:	012f0505 			; <UNDEFINED> instruction: 0x012f0505
     bc8:	000a029e 	muleq	sl, lr, r2
     bcc:	01210101 			; <UNDEFINED> instruction: 0x01210101
     bd0:	00030000 	andeq	r0, r3, r0
     bd4:	000000be 	strheq	r0, [r0], -lr
     bd8:	0efb0102 	cdpeq	1, 15, cr0, cr11, cr2, {0}
     bdc:	0101000d 	tsteq	r1, sp
     be0:	00000101 	andeq	r0, r0, r1, lsl #2
     be4:	00000100 	andeq	r0, r0, r0, lsl #2
     be8:	6c2f2e01 	stcvs	14, cr2, [pc], #-4	; bec <__code_start__-0x7414>
     bec:	00636269 	rsbeq	r6, r3, r9, ror #4
     bf0:	6573552f 	ldrbvs	r5, [r3, #-1327]!	; 0xfffffad1
     bf4:	6d2f7372 	stcvs	3, cr7, [pc, #-456]!	; a34 <__code_start__-0x75cc>
     bf8:	73656c69 	cmnvc	r5, #26880	; 0x6900
     bfc:	756f532f 	strbvc	r5, [pc, #-815]!	; 8d5 <__code_start__-0x772b>
     c00:	2f656372 	svccs	0x00656372
     c04:	34327363 	ldrtcc	r7, [r2], #-867	; 0xfffffc9d
     c08:	2f786c30 	svccs	0x00786c30
     c0c:	7062696c 	rsbvc	r6, r2, ip, ror #18
     c10:	6e692f69 	cdpvs	15, 6, cr2, cr9, cr9, {3}
     c14:	64756c63 	ldrbtvs	r6, [r5], #-3171	; 0xfffff39d
     c18:	6f2f0065 	svcvs	0x002f0065
     c1c:	682f7470 	stmdavs	pc!, {r4, r5, r6, sl, ip, sp, lr}	; <UNPREDICTABLE>
     c20:	62656d6f 	rsbvs	r6, r5, #7104	; 0x1bc0
     c24:	2f776572 	svccs	0x00776572
     c28:	6c6c6543 	cfstr64vs	mvdx6, [ip], #-268	; 0xfffffef4
     c2c:	612f7261 			; <UNDEFINED> instruction: 0x612f7261
     c30:	6e2d6d72 	mcrvs	13, 1, r6, cr13, cr2, {3}
     c34:	2d656e6f 	stclcs	14, cr6, [r5, #-444]!	; 0xfffffe44
     c38:	69626165 	stmdbvs	r2!, {r0, r2, r5, r6, r8, sp, lr}^
     c3c:	392f392d 	stmdbcc	pc!, {r0, r2, r3, r5, r8, fp, ip, sp}	; <UNPREDICTABLE>
     c40:	3130322d 	teqcc	r0, sp, lsr #4
     c44:	2d347139 	ldfcss	f7, [r4, #-228]!	; 0xffffff1c
     c48:	30317363 	eorscc	r7, r1, r3, ror #6
     c4c:	6c2f6537 	cfstr32vs	mvfx6, [pc], #-220	; b78 <__code_start__-0x7488>
     c50:	672f6269 	strvs	r6, [pc, -r9, ror #4]!
     c54:	612f6363 			; <UNDEFINED> instruction: 0x612f6363
     c58:	6e2d6d72 	mcrvs	13, 1, r6, cr13, cr2, {3}
     c5c:	2d656e6f 	stclcs	14, cr6, [r5, #-444]!	; 0xfffffe44
     c60:	69626165 	stmdbvs	r2!, {r0, r2, r5, r6, r8, sp, lr}^
     c64:	322e392f 	eorcc	r3, lr, #770048	; 0xbc000
     c68:	692f312e 	stmdbvs	pc!, {r1, r2, r3, r5, r8, ip, sp}	; <UNPREDICTABLE>
     c6c:	756c636e 	strbvc	r6, [ip, #-878]!	; 0xfffffc92
     c70:	00006564 	andeq	r6, r0, r4, ror #10
     c74:	736d656d 	cmnvc	sp, #457179136	; 0x1b400000
     c78:	632e7465 			; <UNDEFINED> instruction: 0x632e7465
     c7c:	00000100 	andeq	r0, r0, r0, lsl #2
     c80:	2e697072 	mcrcs	0, 3, r7, cr9, cr2, {3}
     c84:	00020068 	andeq	r0, r2, r8, rrx
     c88:	64747300 	ldrbtvs	r7, [r4], #-768	; 0xfffffd00
     c8c:	2e666564 	cdpcs	5, 6, cr6, cr6, cr4, {3}
     c90:	00030068 	andeq	r0, r3, r8, rrx
     c94:	29050000 	stmdbcs	r5, {}	; <UNPREDICTABLE>
     c98:	9c020500 	cfstr32ls	mvfx0, [r2], {-0}
     c9c:	1500008b 	strne	r0, [r0, #-139]	; 0xffffff75
     ca0:	05130505 	ldreq	r0, [r3, #-1285]	; 0xfffffafb
     ca4:	05110629 	ldreq	r0, [r1, #-1577]	; 0xfffff9d7
     ca8:	05052f14 	streq	r2, [r5, #-3860]	; 0xfffff0ec
     cac:	0a053006 	beq	14cccc <__bss_end__+0x141edc>
     cb0:	059e0601 	ldreq	r0, [lr, #1537]	; 0x601
     cb4:	05d70609 	ldrbeq	r0, [r7, #1545]	; 0x609
     cb8:	0501060e 	streq	r0, [r1, #-1550]	; 0xfffff9f2
     cbc:	052d060a 	streq	r0, [sp, #-1546]!	; 0xfffff9f6
     cc0:	0e05bb09 	vmlaeq.f64	d11, d5, d9
     cc4:	052e0106 	streq	r0, [lr, #-262]!	; 0xfffffefa
     cc8:	052d060a 	streq	r0, [sp, #-1546]!	; 0xfffff9f6
     ccc:	0b054b09 	bleq	1538f8 <__bss_end__+0x148b08>
     cd0:	0a050106 	beq	1410f0 <__bss_end__+0x136300>
     cd4:	2f0e052d 	svccs	0x000e052d
     cd8:	2d060a05 	vstrcs	s0, [r6, #-20]	; 0xffffffec
     cdc:	13060e05 	movwne	r0, #28165	; 0x6e05
     ce0:	2e060905 	vmlacs.f16	s0, s12, s10	; <UNPREDICTABLE>
     ce4:	05110a05 	ldreq	r0, [r1, #-2565]	; 0xfffff5fb
     ce8:	01051405 	tsteq	r5, r5, lsl #8
     cec:	02021306 	andeq	r1, r2, #402653184	; 0x18000000
     cf0:	20010100 	andcs	r0, r1, r0, lsl #2
     cf4:	03000001 	movweq	r0, #1
     cf8:	0000db00 	andeq	sp, r0, r0, lsl #22
     cfc:	fb010200 	blx	41506 <__bss_end__+0x36716>
     d00:	01000d0e 	tsteq	r0, lr, lsl #26
     d04:	00010101 	andeq	r0, r1, r1, lsl #2
     d08:	00010000 	andeq	r0, r1, r0
     d0c:	2f2e0100 	svccs	0x002e0100
     d10:	6362696c 	cmnvs	r2, #108, 18	; 0x1b0000
     d14:	706f2f00 	rsbvc	r2, pc, r0, lsl #30
     d18:	6f682f74 	svcvs	0x00682f74
     d1c:	7262656d 	rsbvc	r6, r2, #457179136	; 0x1b400000
     d20:	432f7765 			; <UNDEFINED> instruction: 0x432f7765
     d24:	616c6c65 	cmnvs	ip, r5, ror #24
     d28:	72612f72 	rsbvc	r2, r1, #456	; 0x1c8
     d2c:	6f6e2d6d 	svcvs	0x006e2d6d
     d30:	652d656e 	strvs	r6, [sp, #-1390]!	; 0xfffffa92
     d34:	2d696261 	sfmcs	f6, 2, [r9, #-388]!	; 0xfffffe7c
     d38:	2d392f39 	ldccs	15, cr2, [r9, #-228]!	; 0xffffff1c
     d3c:	39313032 	ldmdbcc	r1!, {r1, r4, r5, ip, sp}
     d40:	632d3471 			; <UNDEFINED> instruction: 0x632d3471
     d44:	37303173 			; <UNDEFINED> instruction: 0x37303173
     d48:	696c2f65 	stmdbvs	ip!, {r0, r2, r5, r6, r8, r9, sl, fp, sp}^
     d4c:	63672f62 	cmnvs	r7, #392	; 0x188
     d50:	72612f63 	rsbvc	r2, r1, #396	; 0x18c
     d54:	6f6e2d6d 	svcvs	0x006e2d6d
     d58:	652d656e 	strvs	r6, [sp, #-1390]!	; 0xfffffa92
     d5c:	2f696261 	svccs	0x00696261
     d60:	2e322e39 	mrccs	14, 1, r2, cr2, cr9, {1}
     d64:	6e692f31 	mcrvs	15, 3, r2, cr9, cr1, {1}
     d68:	64756c63 	ldrbtvs	r6, [r5], #-3171	; 0xfffff39d
     d6c:	552f0065 	strpl	r0, [pc, #-101]!	; d0f <__code_start__-0x72f1>
     d70:	73726573 	cmnvc	r2, #482344960	; 0x1cc00000
     d74:	6c696d2f 	stclvs	13, cr6, [r9], #-188	; 0xffffff44
     d78:	532f7365 			; <UNDEFINED> instruction: 0x532f7365
     d7c:	6372756f 	cmnvs	r2, #465567744	; 0x1bc00000
     d80:	73632f65 	cmnvc	r3, #404	; 0x194
     d84:	6c303432 	cfldrsvs	mvf3, [r0], #-200	; 0xffffff38
     d88:	696c2f78 	stmdbvs	ip!, {r3, r4, r5, r6, r8, r9, sl, fp, sp}^
     d8c:	2f697062 	svccs	0x00697062
     d90:	6c636e69 	stclvs	14, cr6, [r3], #-420	; 0xfffffe5c
     d94:	00656475 	rsbeq	r6, r5, r5, ror r4
     d98:	69727000 	ldmdbvs	r2!, {ip, sp, lr}^
     d9c:	2e6b746e 	cdpcs	4, 6, cr7, cr11, cr14, {3}
     da0:	00010063 	andeq	r0, r1, r3, rrx
     da4:	64747300 	ldrbtvs	r7, [r4], #-768	; 0xfffffd00
     da8:	2e677261 	cdpcs	2, 6, cr7, cr7, cr1, {3}
     dac:	00020068 	andeq	r0, r2, r8, rrx
     db0:	69707200 	ldmdbvs	r0!, {r9, ip, sp, lr}^
     db4:	0300682e 	movweq	r6, #2094	; 0x82e
     db8:	623c0000 	eorsvs	r0, ip, #0, 0
     dbc:	746c6975 	strbtvc	r6, [ip], #-2421	; 0xfffff68b
     dc0:	3e6e692d 	vmulcc.f16	s13, s28, s27	; <UNPREDICTABLE>
     dc4:	00000000 	andeq	r0, r0, r0
     dc8:	702d6176 	eorvc	r6, sp, r6, ror r1
     dcc:	746e6972 	strbtvc	r6, [lr], #-2418	; 0xfffff68e
     dd0:	00682e6b 	rsbeq	r2, r8, fp, ror #28
     dd4:	00000001 	andeq	r0, r0, r1
     dd8:	05002205 	streq	r2, [r0, #-517]	; 0xfffffdfb
     ddc:	008c1402 	addeq	r1, ip, r2, lsl #8
     de0:	05051700 	streq	r1, [r5, #-1792]	; 0xfffff900
     de4:	05141314 	ldreq	r1, [r4, #-788]	; 0xfffffcec
     de8:	050d0622 	streq	r0, [sp, #-1570]	; 0xfffff9de
     dec:	22055012 	andcs	r5, r5, #18, 0
     df0:	052e7a03 	streq	r7, [lr, #-2563]!	; 0xfffff5fd
     df4:	12053305 	andne	r3, r5, #335544320	; 0x14000000
     df8:	6505052f 	strvs	r0, [r5, #-1327]	; 0xfffffad1
     dfc:	2f060905 	svccs	0x00060905
     e00:	01061205 	tsteq	r6, r5, lsl #4
     e04:	4b060505 	blmi	182220 <__bss_end__+0x177430>
     e08:	064a0616 			; <UNDEFINED> instruction: 0x064a0616
     e0c:	06010550 			; <UNDEFINED> instruction: 0x06010550
     e10:	08026613 	stmdaeq	r2, {r0, r1, r4, r9, sl, sp, lr}
     e14:	a0010100 	andge	r0, r1, r0, lsl #2
     e18:	03000000 	movweq	r0, #0
     e1c:	00005700 	andeq	r5, r0, r0, lsl #14
     e20:	fb010200 	blx	4162a <__bss_end__+0x3683a>
     e24:	01000d0e 	tsteq	r0, lr, lsl #26
     e28:	00010101 	andeq	r0, r1, r1, lsl #2
     e2c:	00010000 	andeq	r0, r1, r0
     e30:	2f2e0100 	svccs	0x002e0100
     e34:	6362696c 	cmnvs	r2, #108, 18	; 0x1b0000
     e38:	73552f00 	cmpvc	r5, #0, 30
     e3c:	2f737265 	svccs	0x00737265
     e40:	656c696d 	strbvs	r6, [ip, #-2413]!	; 0xfffff693
     e44:	6f532f73 	svcvs	0x00532f73
     e48:	65637275 	strbvs	r7, [r3, #-629]!	; 0xfffffd8b
     e4c:	3273632f 	rsbscc	r6, r3, #-1140850688	; 0xbc000000
     e50:	786c3034 	stmdavc	ip!, {r2, r4, r5, ip, sp}^
     e54:	62696c2f 	rsbvs	r6, r9, #12032	; 0x2f00
     e58:	692f6970 	stmdbvs	pc!, {r4, r5, r6, r8, fp, sp, lr}	; <UNPREDICTABLE>
     e5c:	756c636e 	strbvc	r6, [ip, #-878]!	; 0xfffffc92
     e60:	00006564 	andeq	r6, r0, r4, ror #10
     e64:	6b747570 	blvs	1d1e42c <__bss_end__+0x1d1363c>
     e68:	0100632e 	tsteq	r0, lr, lsr #6
     e6c:	70720000 	rsbsvc	r0, r2, r0
     e70:	00682e69 	rsbeq	r2, r8, r9, ror #28
     e74:	00000002 	andeq	r0, r0, r2
     e78:	05002205 	streq	r2, [r0, #-517]	; 0xfffffdfb
     e7c:	008c6c02 	addeq	r6, ip, r2, lsl #24
     e80:	05051500 	streq	r1, [r5, #-1280]	; 0xfffffb00
     e84:	06220513 			; <UNDEFINED> instruction: 0x06220513
     e88:	0b052e11 	bleq	14c6d4 <__bss_end__+0x1418e4>
     e8c:	05052f06 	streq	r2, [r5, #-3846]	; 0xfffff0fa
     e90:	09052e06 	stmdbeq	r5, {r1, r2, r9, sl, fp, sp}
     e94:	02040200 	andeq	r0, r4, #0, 4
     e98:	0f056706 	svceq	0x00056706
     e9c:	02040200 	andeq	r0, r4, #0, 4
     ea0:	000b0549 	andeq	r0, fp, r9, asr #10
     ea4:	01020402 	tsteq	r2, r2, lsl #8
     ea8:	02000505 	andeq	r0, r0, #20971520	; 0x1400000
     eac:	2e060204 	cdpcs	2, 0, cr0, cr6, cr4, {0}
     eb0:	01054e06 	tsteq	r5, r6, lsl #28
     eb4:	06021306 	streq	r1, [r2], -r6, lsl #6
     eb8:	fa010100 	blx	412c0 <__bss_end__+0x364d0>
     ebc:	03000008 	movweq	r0, #8
     ec0:	0000f100 	andeq	pc, r0, r0, lsl #2
     ec4:	fb010200 	blx	416ce <__bss_end__+0x368de>
     ec8:	01000d0e 	tsteq	r0, lr, lsl #26
     ecc:	00010101 	andeq	r0, r1, r1, lsl #2
     ed0:	00010000 	andeq	r0, r1, r0
     ed4:	2f2e0100 	svccs	0x002e0100
     ed8:	6362696c 	cmnvs	r2, #108, 18	; 0x1b0000
     edc:	706f2f00 	rsbvc	r2, pc, r0, lsl #30
     ee0:	6f682f74 	svcvs	0x00682f74
     ee4:	7262656d 	rsbvc	r6, r2, #457179136	; 0x1b400000
     ee8:	432f7765 			; <UNDEFINED> instruction: 0x432f7765
     eec:	616c6c65 	cmnvs	ip, r5, ror #24
     ef0:	72612f72 	rsbvc	r2, r1, #456	; 0x1c8
     ef4:	6f6e2d6d 	svcvs	0x006e2d6d
     ef8:	652d656e 	strvs	r6, [sp, #-1390]!	; 0xfffffa92
     efc:	2d696261 	sfmcs	f6, 2, [r9, #-388]!	; 0xfffffe7c
     f00:	2d392f39 	ldccs	15, cr2, [r9, #-228]!	; 0xffffff1c
     f04:	39313032 	ldmdbcc	r1!, {r1, r4, r5, ip, sp}
     f08:	632d3471 			; <UNDEFINED> instruction: 0x632d3471
     f0c:	37303173 			; <UNDEFINED> instruction: 0x37303173
     f10:	696c2f65 	stmdbvs	ip!, {r0, r2, r5, r6, r8, r9, sl, fp, sp}^
     f14:	63672f62 	cmnvs	r7, #392	; 0x188
     f18:	72612f63 	rsbvc	r2, r1, #396	; 0x18c
     f1c:	6f6e2d6d 	svcvs	0x006e2d6d
     f20:	652d656e 	strvs	r6, [sp, #-1390]!	; 0xfffffa92
     f24:	2f696261 	svccs	0x00696261
     f28:	2e322e39 	mrccs	14, 1, r2, cr2, cr9, {1}
     f2c:	6e692f31 	mcrvs	15, 3, r2, cr9, cr1, {1}
     f30:	64756c63 	ldrbtvs	r6, [r5], #-3171	; 0xfffff39d
     f34:	552f0065 	strpl	r0, [pc, #-101]!	; ed7 <__code_start__-0x7129>
     f38:	73726573 	cmnvc	r2, #482344960	; 0x1cc00000
     f3c:	6c696d2f 	stclvs	13, cr6, [r9], #-188	; 0xffffff44
     f40:	532f7365 			; <UNDEFINED> instruction: 0x532f7365
     f44:	6372756f 	cmnvs	r2, #465567744	; 0x1bc00000
     f48:	73632f65 	cmnvc	r3, #404	; 0x194
     f4c:	6c303432 	cfldrsvs	mvf3, [r0], #-200	; 0xffffff38
     f50:	696c2f78 	stmdbvs	ip!, {r3, r4, r5, r6, r8, r9, sl, fp, sp}^
     f54:	2f697062 	svccs	0x00697062
     f58:	6c636e69 	stclvs	14, cr6, [r3], #-420	; 0xfffffe5c
     f5c:	00656475 	rsbeq	r6, r5, r5, ror r4
     f60:	2d617600 	stclcs	6, cr7, [r1, #-0]
     f64:	6e697270 	mcrvs	2, 3, r7, cr9, cr0, {3}
     f68:	632e6b74 			; <UNDEFINED> instruction: 0x632e6b74
     f6c:	00000100 	andeq	r0, r0, r0, lsl #2
     f70:	69647473 	stmdbvs	r4!, {r0, r1, r4, r5, r6, sl, ip, sp, lr}^
     f74:	672d746e 	strvs	r7, [sp, -lr, ror #8]!
     f78:	682e6363 	stmdavs	lr!, {r0, r1, r5, r6, r8, r9, sp, lr}
     f7c:	00000200 	andeq	r0, r0, r0, lsl #4
     f80:	2e697072 	mcrcs	0, 3, r7, cr9, cr2, {3}
     f84:	00030068 	andeq	r0, r3, r8, rrx
     f88:	69707200 	ldmdbvs	r0!, {r9, ip, sp, lr}^
     f8c:	746e692d 	strbtvc	r6, [lr], #-2349	; 0xfffff6d3
     f90:	616e7265 	cmnvs	lr, r5, ror #4
     f94:	00682e6c 	rsbeq	r2, r8, ip, ror #28
     f98:	73000003 	movwvc	r0, #3
     f9c:	72616474 	rsbvc	r6, r1, #116, 8	; 0x74000000
     fa0:	00682e67 	rsbeq	r2, r8, r7, ror #28
     fa4:	3c000002 	stccc	0, cr0, [r0], {2}
     fa8:	6c697562 	cfstr64vs	mvdx7, [r9], #-392	; 0xfffffe78
     fac:	6e692d74 	mcrvs	13, 3, r2, cr9, cr4, {3}
     fb0:	0000003e 	andeq	r0, r0, lr, lsr r0
     fb4:	01050000 	mrseq	r0, (UNDEF: 5)
     fb8:	a4020500 	strge	r0, [r2], #-1280	; 0xfffffb00
     fbc:	0300008c 	movweq	r0, #140	; 0x8c
     fc0:	050100c8 	streq	r0, [r1, #-200]	; 0xffffff38
     fc4:	01051402 	tsteq	r5, r2, lsl #8
     fc8:	04051006 	streq	r1, [r5], #-6
     fcc:	2c010530 	cfstr32cs	mvfx0, [r1], {48}	; 0x30
     fd0:	3004054a 	andcc	r0, r4, sl, asr #10
     fd4:	31060205 	tstcc	r6, r5, lsl #4
     fd8:	060b0513 			; <UNDEFINED> instruction: 0x060b0513
     fdc:	0602052e 	streq	r0, [r2], -lr, lsr #10
     fe0:	06090530 			; <UNDEFINED> instruction: 0x06090530
     fe4:	2e0d2402 	cdpcs	4, 0, cr2, cr13, cr2, {0}
     fe8:	060d052e 	streq	r0, [sp], -lr, lsr #10
     fec:	054a1703 	strbeq	r1, [sl, #-1795]	; 0xfffff8fd
     ff0:	2d051311 	stccs	3, cr1, [r5, #-68]	; 0xffffffbc
     ff4:	16050106 	strne	r0, [r5], -r6, lsl #2
     ff8:	2f0d052e 	svccs	0x000d052e
     ffc:	052d1605 	streq	r1, [sp, #-1541]!	; 0xfffff9fb
    1000:	052f0614 	streq	r0, [pc, #-1556]!	; 9f4 <__code_start__-0x760c>
    1004:	05010617 	streq	r0, [r1, #-1559]	; 0xfffff9e9
    1008:	2f062e0d 	svccs	0x00062e0d
    100c:	01061205 	tsteq	r6, r5, lsl #4
    1010:	052d2f2e 	streq	r2, [sp, #-3886]!	; 0xfffff0d2
    1014:	052f060d 	streq	r0, [pc, #-1549]!	; a0f <__code_start__-0x75f1>
    1018:	05010612 	streq	r0, [r1, #-1554]	; 0xfffff9ee
    101c:	052f0619 	streq	r0, [pc, #-1561]!	; a0b <__code_start__-0x75f5>
    1020:	01110304 	tsteq	r1, r4, lsl #6
    1024:	15020501 	strne	r0, [r2, #-1281]	; 0xfffffaff
    1028:	b2030e05 	andlt	r0, r3, #80	; 0x50
    102c:	0205017f 	andeq	r0, r5, #-1073741793	; 0xc000001f
    1030:	06060513 			; <UNDEFINED> instruction: 0x06060513
    1034:	06020501 	streq	r0, [r2], -r1, lsl #10
    1038:	01080530 	tsteq	r8, r0, lsr r5
    103c:	01060205 	tsteq	r6, r5, lsl #4
    1040:	0808054a 	stmdaeq	r8, {r1, r3, r6, r8, sl}
    1044:	06030591 			; <UNDEFINED> instruction: 0x06030591
    1048:	0608054a 	streq	r0, [r8], -sl, asr #10
    104c:	06150501 	ldreq	r0, [r5], -r1, lsl #10
    1050:	0108052d 	tsteq	r8, sp, lsr #10
    1054:	05d70305 	ldrbeq	r0, [r7, #773]	; 0x305
    1058:	05010608 	streq	r0, [r1, #-1544]	; 0xfffff9f8
    105c:	02052d18 	andeq	r2, r5, #24, 26	; 0x600
    1060:	2f08052e 	svccs	0x0008052e
    1064:	2d061505 	cfstr32cs	mvfx1, [r6, #-20]	; 0xffffffec
    1068:	05010805 	streq	r0, [r1, #-2053]	; 0xfffff7fb
    106c:	05010602 	streq	r0, [r1, #-1538]	; 0xfffff9fe
    1070:	052f0603 	streq	r0, [pc, #-1539]!	; a75 <__code_start__-0x758b>
    1074:	05110618 	ldreq	r0, [r1, #-1560]	; 0xfffff9e8
    1078:	08052e02 	stmdaeq	r5, {r1, r9, sl, fp, sp}
    107c:	0615052f 	ldreq	r0, [r5], -pc, lsr #10
    1080:	0108052d 	tsteq	r8, sp, lsr #10
    1084:	05130305 	ldreq	r0, [r3, #-773]	; 0xfffffcfb
    1088:	05010608 	streq	r0, [r1, #-1544]	; 0xfffff9f8
    108c:	052d0615 	streq	r0, [sp, #-1557]!	; 0xfffff9eb
    1090:	01060108 	tsteq	r6, r8, lsl #2
    1094:	a0060205 	andge	r0, r6, r5, lsl #4
    1098:	01060505 	tsteq	r6, r5, lsl #10
    109c:	05360405 	ldreq	r0, [r6, #-1029]!	; 0xfffffbfb
    10a0:	09052f11 	stmdbeq	r5, {r0, r4, r8, r9, sl, fp, sp}
    10a4:	3302052e 	movwcc	r0, #9518	; 0x252e
    10a8:	72030505 	andvc	r0, r3, #20971520	; 0x1400000
    10ac:	0602052e 	streq	r0, [r2], -lr, lsr #10
    10b0:	0501062f 	streq	r0, [r1, #-1583]	; 0xfffff9d1
    10b4:	0516060e 	ldreq	r0, [r6, #-1550]	; 0xfffff9f2
    10b8:	05131402 	ldreq	r1, [r3, #-1026]	; 0xfffffbfe
    10bc:	02051303 	andeq	r1, r5, #201326592	; 0xc000000
    10c0:	0b051514 	bleq	146518 <__bss_end__+0x13b728>
    10c4:	06020501 	streq	r0, [r2], -r1, lsl #10
    10c8:	03052e01 	movweq	r2, #24065	; 0x5e01
    10cc:	0a056706 	beq	15acec <__bss_end__+0x14fefc>
    10d0:	02050106 	andeq	r0, r5, #-2147483647	; 0x80000001
    10d4:	2f0a052d 	svccs	0x000a052d
    10d8:	2d061705 	stccs	7, cr1, [r6, #-20]	; 0xffffffec
    10dc:	05010b05 	streq	r0, [r1, #-2821]	; 0xfffff4fb
    10e0:	05010602 	streq	r0, [r1, #-1538]	; 0xfffff9fe
    10e4:	052e4c09 	streq	r4, [lr, #-3081]!	; 0xfffff3f7
    10e8:	052e0602 	streq	r0, [lr, #-1538]!	; 0xfffff9fe
    10ec:	05010609 	streq	r0, [r1, #-1545]	; 0xfffff9f7
    10f0:	06300602 	ldrteq	r0, [r0], -r2, lsl #12
    10f4:	03010501 	movweq	r0, #5377	; 0x1501
    10f8:	09050138 	stmdbeq	r5, {r3, r4, r5, r8}
    10fc:	2e4a4f03 	cdpcs	15, 4, cr4, cr10, cr3, {0}
    1100:	0619052e 	ldreq	r0, [r9], -lr, lsr #10
    1104:	054a2703 	strbeq	r2, [sl, #-1795]	; 0xfffff8fd
    1108:	2805131a 	stmdacs	r5, {r1, r3, r4, r8, r9, ip}
    110c:	1f050106 	svcne	0x00050106
    1110:	2f04052e 	svccs	0x0004052e
    1114:	052d1f05 	streq	r1, [sp, #-3845]!	; 0xfffff0fb
    1118:	052f060b 	streq	r0, [pc, #-1547]!	; b15 <__code_start__-0x74eb>
    111c:	0501060e 	streq	r0, [r1, #-1550]	; 0xfffff9f2
    1120:	02052e04 	andeq	r2, r5, #4, 28	; 0x40
    1124:	4a590306 	bmi	1641d44 <__bss_end__+0x1636f54>
    1128:	060b0513 			; <UNDEFINED> instruction: 0x060b0513
    112c:	0602052e 	streq	r0, [r2], -lr, lsr #10
    1130:	06090530 			; <UNDEFINED> instruction: 0x06090530
    1134:	050d2402 	streq	r2, [sp, #-1026]	; 0xfffffbfe
    1138:	13360604 	teqne	r6, #4, 12	; 0x400000
    113c:	01060605 	tsteq	r6, r5, lsl #12
    1140:	67060505 	strvs	r0, [r6, -r5, lsl #10]
    1144:	09051313 	stmdbeq	r5, {r0, r1, r4, r8, r9, ip}
    1148:	0d051106 	stfeqs	f1, [r5, #-24]	; 0xffffffe8
    114c:	300b052b 	andcc	r0, fp, fp, lsr #10
    1150:	052c0d05 	streq	r0, [ip, #-3333]!	; 0xfffff2fb
    1154:	0405351b 	streq	r3, [r5], #-1307	; 0xfffffae5
    1158:	05052d06 	streq	r2, [r5, #-3334]	; 0xfffff2fa
    115c:	061b0513 			; <UNDEFINED> instruction: 0x061b0513
    1160:	820a052e 	andhi	r0, sl, #192937984	; 0xb800000
    1164:	052f0405 	streq	r0, [pc, #-1029]!	; d67 <__code_start__-0x7299>
    1168:	0a052e0e 	beq	14c9a8 <__bss_end__+0x141bb8>
    116c:	060b0549 	streq	r0, [fp], -r9, asr #10
    1170:	0604052f 	streq	r0, [r4], -pc, lsr #10
    1174:	052f0601 	streq	r0, [pc, #-1537]!	; b7b <__code_start__-0x7485>
    1178:	05010606 	streq	r0, [r1, #-1542]	; 0xfffff9fa
    117c:	052f0605 	streq	r0, [pc, #-1541]!	; b7f <__code_start__-0x7481>
    1180:	2e01060a 	cfmadd32cs	mvax0, mvfx0, mvfx1, mvfx10
    1184:	2e2e0705 	cdpcs	7, 2, cr0, cr14, cr5, {0}
    1188:	0604052e 	streq	r0, [r4], -lr, lsr #10
    118c:	05010d03 	streq	r0, [r1, #-3331]	; 0xfffff2fd
    1190:	46030602 	strmi	r0, [r3], -r2, lsl #12
    1194:	03090501 	movweq	r0, #38145	; 0x9501
    1198:	04052e3a 	streq	r2, [r5], #-3642	; 0xfffff1c6
    119c:	0d032f06 	stceq	15, cr2, [r3, #-24]	; 0xffffffe8
    11a0:	02050101 	andeq	r0, r5, #1073741824	; 0x40000000
    11a4:	030e0515 	movweq	r0, #58645	; 0xe515
    11a8:	05017fb2 	streq	r7, [r1, #-4018]	; 0xfffff04e
    11ac:	05141302 	ldreq	r1, [r4, #-770]	; 0xfffffcfe
    11b0:	06050108 	streq	r0, [r5], -r8, lsl #2
    11b4:	3c031006 	stccc	0, cr1, [r3], {6}
    11b8:	0302052e 	movweq	r0, #9518	; 0x252e
    11bc:	30064a46 	andcc	r4, r6, r6, asr #20
    11c0:	01060505 	tsteq	r6, r5, lsl #10
    11c4:	02052e2e 	andeq	r2, r5, #736	; 0x2e0
    11c8:	01064b06 	tsteq	r6, r6, lsl #22
    11cc:	16060e05 	strne	r0, [r6], -r5, lsl #28
    11d0:	13140205 	tstne	r4, #1342177280	; 0x50000000
    11d4:	0b051515 	bleq	146630 <__bss_end__+0x13b840>
    11d8:	06020501 	streq	r0, [r2], -r1, lsl #10
    11dc:	0530062e 	ldreq	r0, [r0, #-1582]!	; 0xfffff9d2
    11e0:	05010609 	streq	r0, [r1, #-1545]	; 0xfffff9f7
    11e4:	064c0602 	strbeq	r0, [ip], -r2, lsl #12
    11e8:	03010501 	movweq	r0, #5377	; 0x1501
    11ec:	06050138 			; <UNDEFINED> instruction: 0x06050138
    11f0:	054a6e03 	strbeq	r6, [sl, #-3587]	; 0xfffff1fd
    11f4:	66460302 	strbvs	r0, [r6], -r2, lsl #6
    11f8:	04052e4a 	streq	r2, [r5], #-3658	; 0xfffff1b6
    11fc:	00c80306 	sbceq	r0, r8, r6, lsl #6
    1200:	01010101 	tsteq	r1, r1, lsl #2
    1204:	06822e06 	streq	r2, [r2], r6, lsl #28
    1208:	2e72034a 	cdpcs	3, 7, cr0, cr2, cr10, {2}
    120c:	01060905 	tsteq	r6, r5, lsl #18
    1210:	2f060405 	svccs	0x00060405
    1214:	01010d03 	tsteq	r1, r3, lsl #26
    1218:	05150205 	ldreq	r0, [r5, #-517]	; 0xfffffdfb
    121c:	7fb2030e 	svcvc	0x00b2030e
    1220:	13020501 	movwne	r0, #9473	; 0x2501
    1224:	01080514 	tsteq	r8, r4, lsl r5
    1228:	03060905 	movweq	r0, #26885	; 0x6905
    122c:	0605011b 			; <UNDEFINED> instruction: 0x0605011b
    1230:	032e6303 			; <UNDEFINED> instruction: 0x032e6303
    1234:	2e2e2e3c 	mcrcs	14, 1, r2, cr14, cr12, {1}
    1238:	03064805 	movweq	r4, #26629	; 0x6805
    123c:	3c087fb4 	stccc	15, cr7, [r8], {180}	; 0xb4
    1240:	01130505 	tsteq	r3, r5, lsl #10
    1244:	02002e06 	andeq	r2, r0, #96	; 0x60
    1248:	2e060204 	cdpcs	2, 0, cr0, cr6, cr4, {0}
    124c:	02040200 	andeq	r0, r4, #0, 4
    1250:	04020001 	streq	r0, [r2], #-1
    1254:	11051302 	tstne	r5, r2, lsl #6
    1258:	02040200 	andeq	r0, r4, #0, 4
    125c:	07050106 	streq	r0, [r5, -r6, lsl #2]
    1260:	02040200 	andeq	r0, r4, #0, 4
    1264:	0011052f 	andseq	r0, r1, pc, lsr #10
    1268:	2d020402 	cfstrscs	mvf0, [r2, #-8]
    126c:	02000505 	andeq	r0, r0, #20971520	; 0x1400000
    1270:	2f060204 	svccs	0x00060204
    1274:	02000905 	andeq	r0, r0, #81920	; 0x14000
    1278:	05130204 	ldreq	r0, [r3, #-516]	; 0xfffffdfc
    127c:	0402000e 	streq	r0, [r2], #-14
    1280:	05010602 	streq	r0, [r1, #-1538]	; 0xfffff9fe
    1284:	04020005 	streq	r0, [r2], #-5
    1288:	00630601 	rsbeq	r0, r3, r1, lsl #12
    128c:	01010402 	tsteq	r1, r2, lsl #8
    1290:	02004805 	andeq	r4, r0, #327680	; 0x50000
    1294:	11060104 	tstne	r6, r4, lsl #2
    1298:	02000505 	andeq	r0, r0, #20971520	; 0x1400000
    129c:	052f0104 	streq	r0, [pc, #-260]!	; 11a0 <__code_start__-0x6e60>
    12a0:	04020048 	streq	r0, [r2], #-72	; 0xffffffb8
    12a4:	05052d01 	streq	r2, [r5, #-3329]	; 0xfffff2ff
    12a8:	01040200 	mrseq	r0, R12_usr
    12ac:	0402002f 	streq	r0, [r2], #-47	; 0xffffffd1
    12b0:	02004a01 	andeq	r4, r0, #4096	; 0x1000
    12b4:	004a0104 	subeq	r0, sl, r4, lsl #2
    12b8:	06010402 	streq	r0, [r1], -r2, lsl #8
    12bc:	0340054a 	movteq	r0, #1354	; 0x54a
    12c0:	06d600e1 	ldrbeq	r0, [r6], r1, ror #1
    12c4:	4e090501 	cfsh32mi	mvfx0, mvfx9, #1
    12c8:	3008052e 	andcc	r0, r8, lr, lsr #10
    12cc:	05291e05 	streq	r1, [r9, #-3589]!	; 0xfffff1fb
    12d0:	0d052e12 	stceq	14, cr2, [r5, #-72]	; 0xffffffb8
    12d4:	06020533 			; <UNDEFINED> instruction: 0x06020533
    12d8:	13050545 	movwne	r0, #21829	; 0x5545
    12dc:	05140205 	ldreq	r0, [r4, #-517]	; 0xfffffdfb
    12e0:	02051305 	andeq	r1, r5, #335544320	; 0x14000000
    12e4:	01080513 	tsteq	r8, r3, lsl r5
    12e8:	03064005 	movweq	r4, #24581	; 0x6005
    12ec:	052e017a 	streq	r0, [lr, #-378]!	; 0xfffffe86
    12f0:	0566340d 	strbeq	r3, [r6, #-1037]!	; 0xfffffbf3
    12f4:	4a200311 	bmi	801f40 <__bss_end__+0x7f7150>
    12f8:	0604054a 	streq	r0, [r4], -sl, asr #10
    12fc:	05016203 	streq	r6, [r1, #-515]	; 0xfffffdfd
    1300:	05010609 	streq	r0, [r1, #-1545]	; 0xfffff9f7
    1304:	08052e0f 	stmdaeq	r5, {r0, r1, r2, r3, r9, sl, fp, sp}
    1308:	0d052c06 	stceq	12, cr2, [r5, #-24]	; 0xffffffe8
    130c:	03052e06 	movweq	r2, #24070	; 0x5e06
    1310:	05056706 	streq	r6, [r5, #-1798]	; 0xfffff8fa
    1314:	08050106 	stmdaeq	r5, {r1, r2, r8}
    1318:	0e054d06 	cdpeq	13, 0, cr4, cr5, cr6, {0}
    131c:	0a050106 	beq	14173c <__bss_end__+0x13694c>
    1320:	2f09052e 	svccs	0x0009052e
    1324:	2f060405 	svccs	0x00060405
    1328:	01060705 	tsteq	r6, r5, lsl #14
    132c:	052c0a05 	streq	r0, [ip, #-2565]!	; 0xfffff5fb
    1330:	05320604 	ldreq	r0, [r2, #-1540]!	; 0xfffff9fc
    1334:	9803062d 	stmdals	r3, {r0, r2, r3, r5, r9, sl}
    1338:	0905017f 	stmdbeq	r5, {r0, r1, r2, r3, r4, r5, r6, r8}
    133c:	2e00ed03 	cdpcs	13, 0, cr14, cr0, cr3, {0}
    1340:	052c0d05 	streq	r0, [ip, #-3333]!	; 0xfffff2fb
    1344:	04052b07 	streq	r2, [r5], #-2823	; 0xfffff4f9
    1348:	14133006 	ldrne	r3, [r3], #-6
    134c:	05010905 	streq	r0, [r1, #-2309]	; 0xfffff6fb
    1350:	7f93030c 	svcvc	0x0093030c
    1354:	011d0501 	tsteq	sp, r1, lsl #10
    1358:	09050106 	stmdbeq	r5, {r1, r2, r8}
    135c:	0100ed03 	tsteq	r0, r3, lsl #26
    1360:	2f060505 	svccs	0x00060505
    1364:	01061205 	tsteq	r6, r5, lsl #4
    1368:	0b052d2e 	bleq	14c828 <__bss_end__+0x141a38>
    136c:	0605052f 	streq	r0, [r5], -pc, lsr #10
    1370:	1009052f 	andne	r0, r9, pc, lsr #10
    1374:	93030c05 	movwls	r0, #15365	; 0x3c05
    1378:	1d05017f 	stfnes	f0, [r5, #-508]	; 0xfffffe04
    137c:	062d0501 	strteq	r0, [sp], -r1, lsl #10
    1380:	03090501 	movweq	r0, #38145	; 0x9501
    1384:	052e00ed 	streq	r0, [lr, #-237]!	; 0xffffff13
    1388:	014e0604 	cmpeq	lr, r4, lsl #12
    138c:	02040200 	andeq	r0, r4, #0, 4
    1390:	0402004a 	streq	r0, [r2], #-74	; 0xffffffb6
    1394:	02000102 	andeq	r0, r0, #-2147483648	; 0x80000000
    1398:	00150204 	andseq	r0, r5, r4, lsl #4
    139c:	06020402 	streq	r0, [r2], -r2, lsl #8
    13a0:	00123602 	andseq	r3, r2, r2, lsl #12
    13a4:	2e020402 	cdpcs	4, 0, cr0, cr2, cr2, {0}
    13a8:	03060205 	movweq	r0, #25093	; 0x6205
    13ac:	050100d1 	streq	r0, [r1, #-209]	; 0xffffff2f
    13b0:	2e010607 	cfmadd32cs	mvax0, mvfx0, mvfx1, mvfx7
    13b4:	2f060205 	svccs	0x00060205
    13b8:	01060b05 	tsteq	r6, r5, lsl #22
    13bc:	052f0105 	streq	r0, [pc, #-261]!	; 12bf <__code_start__-0x6d41>
    13c0:	65030605 	strvs	r0, [r3, #-1541]	; 0xfffff9fb
    13c4:	0609054a 	streq	r0, [r9], -sl, asr #10
    13c8:	05056601 	streq	r6, [r5, #-1537]	; 0xfffff9ff
    13cc:	04059f06 	streq	r9, [r5], #-3846	; 0xfffff0fa
    13d0:	05011103 	streq	r1, [r1, #-259]	; 0xfffffefd
    13d4:	05010607 	streq	r0, [r1, #-1543]	; 0xfffff9f9
    13d8:	05310604 	ldreq	r0, [r1, #-1540]!	; 0xfffff9fc
    13dc:	1305010a 	movwne	r0, #20746	; 0x510a
    13e0:	01040200 	mrseq	r0, R12_usr
    13e4:	10052e06 	andne	r2, r5, r6, lsl #28
    13e8:	01040200 	mrseq	r0, R12_usr
    13ec:	0605052e 	streq	r0, [r5], -lr, lsr #10
    13f0:	060a054b 	streq	r0, [sl], -fp, asr #10
    13f4:	052d0601 	streq	r0, [sp, #-1537]!	; 0xfffff9ff
    13f8:	05010604 	streq	r0, [r1, #-1540]	; 0xfffff9fc
    13fc:	b6030611 			; <UNDEFINED> instruction: 0xb6030611
    1400:	0113667f 	tsteq	r3, pc, ror r6
    1404:	02040200 	andeq	r0, r4, #0, 4
    1408:	ba06ba06 	blt	1afc28 <__bss_end__+0x1a4e38>
    140c:	1a051401 	bne	146418 <__bss_end__+0x13b628>
    1410:	2e2e1306 	cdpcs	3, 2, cr1, cr14, cr6, {0}
    1414:	674e1105 	strbvs	r1, [lr, -r5, lsl #2]
    1418:	05681405 	strbeq	r1, [r8, #-1029]!	; 0xfffffbfb
    141c:	15058213 	strne	r8, [r5, #-531]	; 0xfffffded
    1420:	054a7803 	strbeq	r7, [sl, #-2051]	; 0xfffff7fd
    1424:	134b0611 	movtne	r0, #46609	; 0xb611
    1428:	14131413 	ldrne	r1, [r3], #-1043	; 0xfffffbed
    142c:	01061305 	tsteq	r6, r5, lsl #6
    1430:	2f060905 	svccs	0x00060905
    1434:	01060d05 	tsteq	r6, r5, lsl #26
    1438:	09052e2e 	stmdbeq	r5, {r1, r2, r3, r5, r9, sl, fp, sp}
    143c:	9d0d05bb 	cfstr32ls	mvfx0, [sp, #-748]	; 0xfffffd14
    1440:	2f060905 	svccs	0x00060905
    1444:	062f1505 	strteq	r1, [pc], -r5, lsl #10
    1448:	034a7503 	movteq	r7, #42243	; 0xa503
    144c:	054a2e0b 	strbeq	r2, [sl, #-3595]	; 0xfffff1f5
    1450:	23030605 	movwcs	r0, #13829	; 0x3605
    1454:	06090501 	streq	r0, [r9], -r1, lsl #10
    1458:	05052e01 	streq	r2, [r5, #-3585]	; 0xfffff1ff
    145c:	6e03d706 	cdpvs	7, 0, cr13, cr3, cr6, {0}
    1460:	010e032e 	tsteq	lr, lr, lsr #6
    1464:	01060905 	tsteq	r6, r5, lsl #18
    1468:	03060505 	movweq	r0, #25861	; 0x6505
    146c:	01054a10 	tsteq	r5, r0, lsl sl
    1470:	017eed03 	cmneq	lr, r3, lsl #26
    1474:	15140205 	ldrne	r0, [r4, #-517]	; 0xfffffdfb
    1478:	04051413 	streq	r1, [r5], #-1043	; 0xfffffbed
    147c:	05011a03 	streq	r1, [r1, #-2563]	; 0xfffff5fd
    1480:	05010609 	streq	r0, [r1, #-1545]	; 0xfffff9f7
    1484:	2e460302 	cdpcs	3, 4, cr0, cr6, cr2, {0}
    1488:	3a030905 	bcc	c38a4 <__bss_end__+0xb8ab4>
    148c:	0604052e 	streq	r0, [r4], -lr, lsr #10
    1490:	010d032f 	tsteq	sp, pc, lsr #6
    1494:	15020501 	strne	r0, [r2, #-1281]	; 0xfffffaff
    1498:	b2030e05 	andlt	r0, r3, #80	; 0x50
    149c:	0205017f 	andeq	r0, r5, #-1073741793	; 0xc000001f
    14a0:	08051413 	stmdaeq	r5, {r0, r1, r4, sl, ip}
    14a4:	06020501 	streq	r0, [r2], -r1, lsl #10
    14a8:	9f080501 	svcls	0x00080501
    14ac:	4a060305 	bmi	1820c8 <__bss_end__+0x1772d8>
    14b0:	08050106 	stmdaeq	r5, {r1, r2, r8}
    14b4:	0615052e 	ldreq	r0, [r5], -lr, lsr #10
    14b8:	0108052d 	tsteq	r8, sp, lsr #10
    14bc:	062f0305 	strteq	r0, [pc], -r5, lsl #6
    14c0:	2e080501 	cfsh32cs	mvfx0, mvfx8, #1
    14c4:	2d061505 	cfstr32cs	mvfx1, [r6, #-20]	; 0xffffffec
    14c8:	05010805 	streq	r0, [r1, #-2053]	; 0xfffff7fb
    14cc:	01062f03 	tsteq	r6, r3, lsl #30
    14d0:	052e0805 	streq	r0, [lr, #-2053]!	; 0xfffff7fb
    14d4:	052d0615 	streq	r0, [sp, #-1557]!	; 0xfffff9eb
    14d8:	03050108 	movweq	r0, #20744	; 0x5108
    14dc:	0501062f 	streq	r0, [r1, #-1583]	; 0xfffff9d1
    14e0:	15052e08 	strne	r2, [r5, #-3592]	; 0xfffff1f8
    14e4:	08052d06 	stmdaeq	r5, {r1, r2, r8, sl, fp, sp}
    14e8:	2f030501 	svccs	0x00030501
    14ec:	08050106 	stmdaeq	r5, {r1, r2, r8}
    14f0:	0615052e 	ldreq	r0, [r5], -lr, lsr #10
    14f4:	0108052d 	tsteq	r8, sp, lsr #10
    14f8:	062f0305 	strteq	r0, [pc], -r5, lsl #6
    14fc:	2e080501 	cfsh32cs	mvfx0, mvfx8, #1
    1500:	2d061505 	cfstr32cs	mvfx1, [r6, #-20]	; 0xffffffec
    1504:	05010805 	streq	r0, [r1, #-2053]	; 0xfffff7fb
    1508:	08051303 	stmdaeq	r5, {r0, r1, r8, r9, ip}
    150c:	15050106 	strne	r0, [r5, #-262]	; 0xfffffefa
    1510:	08052d06 	stmdaeq	r5, {r1, r2, r8, sl, fp, sp}
    1514:	05660601 	strbeq	r0, [r6, #-1537]!	; 0xfffff9ff
    1518:	05670603 	strbeq	r0, [r7, #-1539]!	; 0xfffff9fd
    151c:	05010608 	streq	r0, [r1, #-1544]	; 0xfffff9f8
    1520:	02052d18 	andeq	r2, r5, #24, 26	; 0x600
    1524:	2f08052e 	svccs	0x0008052e
    1528:	2d061505 	cfstr32cs	mvfx1, [r6, #-20]	; 0xffffffec
    152c:	05010805 	streq	r0, [r1, #-2053]	; 0xfffff7fb
    1530:	05010602 	streq	r0, [r1, #-1538]	; 0xfffff9fe
    1534:	052f0603 	streq	r0, [pc, #-1539]!	; f39 <__code_start__-0x70c7>
    1538:	05110618 	ldreq	r0, [r1, #-1560]	; 0xfffff9e8
    153c:	08052e02 	stmdaeq	r5, {r1, r9, sl, fp, sp}
    1540:	0615052f 	ldreq	r0, [r5], -pc, lsr #10
    1544:	0108052d 	tsteq	r8, sp, lsr #10
    1548:	05130305 	ldreq	r0, [r3, #-773]	; 0xfffffcfb
    154c:	05010608 	streq	r0, [r1, #-1544]	; 0xfffff9f8
    1550:	052d0615 	streq	r0, [sp, #-1557]!	; 0xfffff9eb
    1554:	05050108 	streq	r0, [r5, #-264]	; 0xfffffef8
    1558:	054a1406 	strbeq	r1, [sl, #-1030]	; 0xfffffbfa
    155c:	052e0602 	streq	r0, [lr, #-1538]!	; 0xfffff9fe
    1560:	0519060e 	ldreq	r0, [r9, #-1550]	; 0xfffff9f2
    1564:	11052f04 	tstne	r5, r4, lsl #30
    1568:	4a09052f 	bmi	242a2c <__bss_end__+0x237c3c>
    156c:	05330205 	ldreq	r0, [r3, #-517]!	; 0xfffffdfb
    1570:	2e720305 	cdpcs	3, 7, cr0, cr2, cr5, {0}
    1574:	2f060205 	svccs	0x00060205
    1578:	0e050106 	adfeqs	f0, f5, f6
    157c:	02051606 	andeq	r1, r5, #6291456	; 0x600000
    1580:	03051314 	movweq	r1, #21268	; 0x5314
    1584:	14020513 	strne	r0, [r2], #-1299	; 0xfffffaed
    1588:	010b0515 	tsteq	fp, r5, lsl r5
    158c:	01060205 	tsteq	r6, r5, lsl #4
    1590:	0305662e 	movweq	r6, #22062	; 0x562e
    1594:	0a052f06 	beq	14d1b4 <__bss_end__+0x1423c4>
    1598:	02050106 	andeq	r0, r5, #-2147483647	; 0x80000001
    159c:	2f0a052d 	svccs	0x000a052d
    15a0:	2d061705 	stccs	7, cr1, [r6, #-20]	; 0xffffffec
    15a4:	05010b05 	streq	r0, [r1, #-2821]	; 0xfffff4fb
    15a8:	4a010602 	bmi	42db8 <__bss_end__+0x37fc8>
    15ac:	0605054a 	streq	r0, [r5], -sl, asr #10
    15b0:	01019503 	tsteq	r1, r3, lsl #10
    15b4:	03061105 	movweq	r1, #24837	; 0x6105
    15b8:	05017ef8 	streq	r7, [r1, #-3832]	; 0xfffff108
    15bc:	0188031b 	orreq	r0, r8, fp, lsl r3
    15c0:	0601054a 	streq	r0, [r1], -sl, asr #10
    15c4:	2e7ef303 	cdpcs	3, 7, cr15, cr14, cr3, {0}
    15c8:	15140205 	ldrne	r0, [r4, #-517]	; 0xfffffdfb
    15cc:	19051413 	stmdbne	r5, {r0, r1, r4, sl, ip}
    15d0:	05012203 	streq	r2, [r1, #-515]	; 0xfffffdfd
    15d4:	2805131a 	stmdacs	r5, {r1, r3, r4, r8, r9, ip}
    15d8:	1f050106 	svcne	0x00050106
    15dc:	2f04052e 	svccs	0x0004052e
    15e0:	054a0e05 	strbeq	r0, [sl, #-3589]	; 0xfffff1fb
    15e4:	0b052d1f 	bleq	14ca68 <__bss_end__+0x141c78>
    15e8:	04052f06 	streq	r2, [r5], #-3846	; 0xfffff0fa
    15ec:	32060106 	andcc	r0, r6, #-2147483647	; 0x80000001
    15f0:	15020501 	strne	r0, [r2, #-1281]	; 0xfffffaff
    15f4:	b2030e05 	andlt	r0, r3, #80	; 0x50
    15f8:	0205017f 	andeq	r0, r5, #-1073741793	; 0xc000001f
    15fc:	06060513 			; <UNDEFINED> instruction: 0x06060513
    1600:	06020501 	streq	r0, [r2], -r1, lsl #10
    1604:	01080530 	tsteq	r8, r0, lsr r5
    1608:	01060205 	tsteq	r6, r5, lsl #4
    160c:	08060305 	stmdaeq	r6, {r0, r2, r8, r9}
    1610:	06080521 	streq	r0, [r8], -r1, lsr #10
    1614:	06150501 	ldreq	r0, [r5], -r1, lsl #10
    1618:	01080549 	tsteq	r8, r9, asr #10
    161c:	05d70305 	ldrbeq	r0, [r7, #773]	; 0x305
    1620:	05010608 	streq	r0, [r1, #-1544]	; 0xfffff9f8
    1624:	02052d18 	andeq	r2, r5, #24, 26	; 0x600
    1628:	2f08052e 	svccs	0x0008052e
    162c:	2d061505 	cfstr32cs	mvfx1, [r6, #-20]	; 0xffffffec
    1630:	05010805 	streq	r0, [r1, #-2053]	; 0xfffff7fb
    1634:	05010602 	streq	r0, [r1, #-1538]	; 0xfffff9fe
    1638:	052f0603 	streq	r0, [pc, #-1539]!	; 103d <__code_start__-0x6fc3>
    163c:	05110618 	ldreq	r0, [r1, #-1560]	; 0xfffff9e8
    1640:	08052e02 	stmdaeq	r5, {r1, r9, sl, fp, sp}
    1644:	0615052f 	ldreq	r0, [r5], -pc, lsr #10
    1648:	0108052d 	tsteq	r8, sp, lsr #10
    164c:	05130305 	ldreq	r0, [r3, #-773]	; 0xfffffcfb
    1650:	05010608 	streq	r0, [r1, #-1544]	; 0xfffff9f8
    1654:	052d0615 	streq	r0, [sp, #-1557]!	; 0xfffff9eb
    1658:	05050108 	streq	r0, [r5, #-264]	; 0xfffffef8
    165c:	02051406 	andeq	r1, r5, #100663296	; 0x6000000
    1660:	04056606 	streq	r6, [r5], #-1542	; 0xfffff9fa
    1664:	05051a06 	streq	r1, [r5, #-2566]	; 0xfffff5fa
    1668:	054a7803 	strbeq	r7, [sl, #-2051]	; 0xfffff7fd
    166c:	062f0602 	strteq	r0, [pc], -r2, lsl #12
    1670:	060e0501 	streq	r0, [lr], -r1, lsl #10
    1674:	14020516 	strne	r0, [r2], #-1302	; 0xfffffaea
    1678:	06040513 			; <UNDEFINED> instruction: 0x06040513
    167c:	06030501 	streq	r0, [r3], -r1, lsl #10
    1680:	0611052f 	ldreq	r0, [r1], -pc, lsr #10
    1684:	2e090501 	cfsh32cs	mvfx0, mvfx9, #1
    1688:	30060205 	andcc	r0, r6, r5, lsl #4
    168c:	010b0515 	tsteq	fp, r5, lsl r5
    1690:	01060205 	tsteq	r6, r5, lsl #4
    1694:	052e4a4a 	streq	r4, [lr, #-2634]!	; 0xfffff5b6
    1698:	052f0603 	streq	r0, [pc, #-1539]!	; 109d <__code_start__-0x6f63>
    169c:	0501060a 	streq	r0, [r1, #-1546]	; 0xfffff9f6
    16a0:	0a052d02 	beq	14cab0 <__bss_end__+0x141cc0>
    16a4:	0617052f 	ldreq	r0, [r7], -pc, lsr #10
    16a8:	010b052d 	tsteq	fp, sp, lsr #10
    16ac:	01060205 	tsteq	r6, r5, lsl #4
    16b0:	14062e4a 	strne	r2, [r6], #-3658	; 0xfffff1b6
    16b4:	01060905 	tsteq	r6, r5, lsl #18
    16b8:	4c060205 	sfmmi	f0, 4, [r6], {5}
    16bc:	05050106 	streq	r0, [r5, #-262]	; 0xfffffefa
    16c0:	01980306 	orrseq	r0, r8, r6, lsl #6
    16c4:	07052a01 	streq	r2, [r5, -r1, lsl #20]
    16c8:	05050106 	streq	r0, [r5, #-262]	; 0xfffffefa
    16cc:	18052f06 	stmdane	r5, {r1, r2, r8, r9, sl, fp, sp}
    16d0:	052e5303 	streq	r5, [lr, #-771]!	; 0xfffffcfd
    16d4:	0501061b 	streq	r0, [r1, #-1563]	; 0xfffff9e5
    16d8:	0905821a 	stmdbeq	r5, {r1, r3, r4, r9, pc}
    16dc:	0d054b06 	vstreq	d4, [r5, #-24]	; 0xffffffe8
    16e0:	052e0106 	streq	r0, [lr, #-262]!	; 0xfffffefa
    16e4:	0d05d709 	stceq	7, cr13, [r5, #-36]	; 0xffffffdc
    16e8:	0609059d 			; <UNDEFINED> instruction: 0x0609059d
    16ec:	3015052f 	andscc	r0, r5, pc, lsr #10
    16f0:	01061805 	tsteq	r6, r5, lsl #16
    16f4:	05661705 	strbeq	r1, [r6, #-1797]!	; 0xfffff8fb
    16f8:	17052f19 	smladne	r5, r9, pc, r2	; <UNPREDICTABLE>
    16fc:	06190549 	ldreq	r0, [r9], -r9, asr #10
    1700:	0615052f 	ldreq	r0, [r5], -pc, lsr #10
    1704:	052e6f03 	streq	r6, [lr, #-3843]!	; 0xfffff0fd
    1708:	13030619 	movwne	r0, #13849	; 0x3619
    170c:	0615054a 	ldreq	r0, [r5], -sl, asr #10
    1710:	4a2e6d03 	bmi	b9cb24 <__bss_end__+0xb91d34>
    1714:	a0030205 	andge	r0, r3, r5, lsl #4
    1718:	0666017f 			; <UNDEFINED> instruction: 0x0666017f
    171c:	05017203 	streq	r7, [r1, #-515]	; 0xfffffdfd
    1720:	05010605 	streq	r0, [r1, #-1541]	; 0xfffff9fb
    1724:	05053604 	streq	r3, [r5, #-1540]	; 0xfffff9fc
    1728:	052e7803 	streq	r7, [lr, #-2051]!	; 0xfffff7fd
    172c:	062f0602 	strteq	r0, [pc], -r2, lsl #12
    1730:	060e0501 	streq	r0, [lr], -r1, lsl #10
    1734:	14020516 	strne	r0, [r2], #-1302	; 0xfffffaea
    1738:	06040513 			; <UNDEFINED> instruction: 0x06040513
    173c:	02054a01 	andeq	r4, r5, #4096	; 0x1000
    1740:	01780306 	cmneq	r8, r6, lsl #6
    1744:	01060505 	tsteq	r6, r5, lsl #10
    1748:	0602054a 	streq	r0, [r2], -sl, asr #10
    174c:	0501064b 	streq	r0, [r1, #-1611]	; 0xfffff9b5
    1750:	0516060e 	ldreq	r0, [r6, #-1550]	; 0xfffff9f2
    1754:	15131402 	ldrne	r1, [r3, #-1026]	; 0xfffffbfe
    1758:	010b0515 	tsteq	fp, r5, lsl r5
    175c:	11052e06 	tstne	r5, r6, lsl #28
    1760:	019e0306 	orrseq	r0, lr, r6, lsl #6
    1764:	06220501 	strteq	r0, [r2], -r1, lsl #10
    1768:	2f050501 	svccs	0x00050501
    176c:	052d2205 	streq	r2, [sp, #-517]!	; 0xfffffdfb
    1770:	052f0605 	streq	r0, [pc, #-1541]!	; 1173 <__code_start__-0x6e8d>
    1774:	05054b11 	streq	r4, [r5, #-2833]	; 0xfffff4ef
    1778:	039e0183 	orrseq	r0, lr, #-1073741792	; 0xc0000020
    177c:	9e012e5c 	mcrls	14, 0, r2, cr1, cr12, {2}
    1780:	03060205 	movweq	r0, #25093	; 0x6205
    1784:	2e2e7ef3 	mcrcs	14, 1, r7, cr14, cr3, {7}
    1788:	4a2c0605 	bmi	b02fa4 <__bss_end__+0xaf81b4>
    178c:	d8030d05 	stmdale	r3, {r0, r2, r8, sl, fp}
    1790:	04050100 	streq	r0, [r5], #-256	; 0xffffff00
    1794:	01040200 	mrseq	r0, R12_usr
    1798:	4a110306 	bmi	4423b8 <__bss_end__+0x4375c8>
    179c:	01040200 	mrseq	r0, R12_usr
    17a0:	06110501 	ldreq	r0, [r1], -r1, lsl #10
    17a4:	059e0651 	ldreq	r0, [lr, #1617]	; 0x651
    17a8:	2e170315 	mrccs	3, 0, r0, cr7, cr5, {0}
    17ac:	1105ba01 	tstne	r5, r1, lsl #20
    17b0:	012e6903 			; <UNDEFINED> instruction: 0x012e6903
    17b4:	01002802 	tsteq	r0, r2, lsl #16
    17b8:	00008701 	andeq	r8, r0, r1, lsl #14
    17bc:	64000300 	strvs	r0, [r0], #-768	; 0xfffffd00
    17c0:	02000000 	andeq	r0, r0, #0, 0
    17c4:	0d0efb01 	vstreq	d15, [lr, #-4]
    17c8:	01010100 	mrseq	r0, (UNDEF: 17)
    17cc:	00000001 	andeq	r0, r0, r1
    17d0:	01000001 	tsteq	r0, r1
    17d4:	74732f2e 	ldrbtvc	r2, [r3], #-3886	; 0xfffff0d2
    17d8:	2d666661 	stclcs	6, cr6, [r6, #-388]!	; 0xfffffe7c
    17dc:	00637273 	rsbeq	r7, r3, r3, ror r2
    17e0:	6573552f 	ldrbvs	r5, [r3, #-1327]!	; 0xfffffad1
    17e4:	6d2f7372 	stcvs	3, cr7, [pc, #-456]!	; 1624 <__code_start__-0x69dc>
    17e8:	73656c69 	cmnvc	r5, #26880	; 0x6900
    17ec:	756f532f 	strbvc	r5, [pc, #-815]!	; 14c5 <__code_start__-0x6b3b>
    17f0:	2f656372 	svccs	0x00656372
    17f4:	34327363 	ldrtcc	r7, [r2], #-867	; 0xfffffc9d
    17f8:	2f786c30 	svccs	0x00786c30
    17fc:	7062696c 	rsbvc	r6, r2, ip, ror #18
    1800:	6e692f69 	cdpvs	15, 6, cr2, cr9, cr9, {3}
    1804:	64756c63 	ldrbtvs	r6, [r5], #-3171	; 0xfffff39d
    1808:	63000065 	movwvs	r0, #101	; 0x65
    180c:	6e61656c 	cdpvs	5, 6, cr6, cr1, cr12, {3}
    1810:	6265722d 	rsbvs	r7, r5, #-805306366	; 0xd0000002
    1814:	2e746f6f 	cdpcs	15, 7, cr6, cr4, cr15, {3}
    1818:	00010063 	andeq	r0, r1, r3, rrx
    181c:	69707200 	ldmdbvs	r0!, {r9, ip, sp, lr}^
    1820:	0200682e 	andeq	r6, r0, #3014656	; 0x2e0000
    1824:	05000000 	streq	r0, [r0, #-0]
    1828:	02050019 	andeq	r0, r5, #25, 0
    182c:	00009658 	andeq	r9, r0, r8, asr r6
    1830:	13050515 	movwne	r0, #21781	; 0x5515
    1834:	2d061905 	vstrcs.16	s2, [r6, #-10]	; <UNPREDICTABLE>
    1838:	062f0505 	strteq	r0, [pc], -r5, lsl #10
    183c:	024b2f67 	subeq	r2, fp, #412	; 0x19c
    1840:	01010006 	tsteq	r1, r6
    1844:	00000112 	andeq	r0, r0, r2, lsl r1
    1848:	005e0003 	subseq	r0, lr, r3
    184c:	01020000 	mrseq	r0, (UNDEF: 2)
    1850:	000d0efb 	strdeq	r0, [sp], -fp
    1854:	01010101 	tsteq	r1, r1, lsl #2
    1858:	01000000 	mrseq	r0, (UNDEF: 0)
    185c:	2e010000 	cdpcs	0, 0, cr0, cr1, cr0, {0}
    1860:	6174732f 	cmnvs	r4, pc, lsr #6
    1864:	732d6666 			; <UNDEFINED> instruction: 0x732d6666
    1868:	2f006372 	svccs	0x00006372
    186c:	72657355 	rsbvc	r7, r5, #1409286145	; 0x54000001
    1870:	696d2f73 	stmdbvs	sp!, {r0, r1, r4, r5, r6, r8, r9, sl, fp, sp}^
    1874:	2f73656c 	svccs	0x0073656c
    1878:	72756f53 	rsbsvc	r6, r5, #332	; 0x14c
    187c:	632f6563 			; <UNDEFINED> instruction: 0x632f6563
    1880:	30343273 	eorscc	r3, r4, r3, ror r2
    1884:	6c2f786c 	stcvs	8, cr7, [pc], #-432	; 16dc <__code_start__-0x6924>
    1888:	69706269 	ldmdbvs	r0!, {r0, r3, r5, r6, r9, sp, lr}^
    188c:	636e692f 	cmnvs	lr, #770048	; 0xbc000
    1890:	6564756c 	strbvs	r7, [r4, #-1388]!	; 0xfffffa94
    1894:	73630000 	cmnvc	r3, #0, 0
    1898:	74726174 	ldrbtvc	r6, [r2], #-372	; 0xfffffe8c
    189c:	0100632e 	tsteq	r0, lr, lsr #6
    18a0:	70720000 	rsbsvc	r0, r2, r0
    18a4:	00682e69 	rsbeq	r2, r8, r9, ror #28
    18a8:	00000002 	andeq	r0, r0, r2
    18ac:	05001005 	streq	r1, [r0, #-5]
    18b0:	00968402 	addseq	r8, r6, r2, lsl #8
    18b4:	05051500 	streq	r1, [r5, #-1280]	; 0xfffffb00
    18b8:	13020513 	movwne	r0, #9491	; 0x2513
    18bc:	05140505 	ldreq	r0, [r4, #-1285]	; 0xfffffafb
    18c0:	050e0610 	streq	r0, [lr, #-1552]	; 0xfffff9f0
    18c4:	30063205 	andcc	r3, r6, r5, lsl #4
    18c8:	0a051413 	beq	14691c <__bss_end__+0x13bb2c>
    18cc:	08090501 	stmdaeq	r9, {r0, r8, sl}
    18d0:	06100591 			; <UNDEFINED> instruction: 0x06100591
    18d4:	9a0a0501 	bls	282ce0 <__bss_end__+0x277ef0>
    18d8:	056a1005 	strbeq	r1, [sl, #-5]!
    18dc:	052d060a 	streq	r0, [sp, #-1546]!	; 0xfffff9f6
    18e0:	10052f09 	andne	r2, r5, r9, lsl #30
    18e4:	0a050106 	beq	141d04 <__bss_end__+0x136f14>
    18e8:	09052d06 	stmdbeq	r5, {r1, r2, r8, sl, fp, sp}
    18ec:	061005bb 			; <UNDEFINED> instruction: 0x061005bb
    18f0:	060a0501 	streq	r0, [sl], -r1, lsl #10
    18f4:	4b090565 	blmi	242e90 <__bss_end__+0x2380a0>
    18f8:	01060d05 	tsteq	r6, r5, lsl #26
    18fc:	052d0a05 	streq	r0, [sp, #-2565]!	; 0xfffff5fb
    1900:	0a052f10 	beq	14d548 <__bss_end__+0x142758>
    1904:	09052d06 	stmdbeq	r5, {r1, r2, r8, sl, fp, sp}
    1908:	060d052f 	streq	r0, [sp], -pc, lsr #10
    190c:	2d0a0501 	cfstr32cs	mvfx0, [sl, #-4]
    1910:	052f1005 	streq	r1, [pc, #-5]!	; 1913 <__code_start__-0x66ed>
    1914:	052d060a 	streq	r0, [sp, #-1546]!	; 0xfffff9f6
    1918:	0d052f09 	stceq	15, cr2, [r5, #-36]	; 0xffffffdc
    191c:	0a050106 	beq	141d3c <__bss_end__+0x136f4c>
    1920:	2f10052d 	svccs	0x0010052d
    1924:	2d060a05 	vstrcs	s0, [r6, #-20]	; 0xffffffec
    1928:	052f0905 	streq	r0, [pc, #-2309]!	; 102b <__code_start__-0x6fd5>
    192c:	0501060d 	streq	r0, [r1, #-1549]	; 0xfffff9f3
    1930:	10052d0a 	andne	r2, r5, sl, lsl #26
    1934:	060a052f 	streq	r0, [sl], -pc, lsr #10
    1938:	1309052d 	movwne	r0, #38189	; 0x952d
    193c:	01061005 	tsteq	r6, r5
    1940:	2d060a05 	vstrcs	s0, [r6, #-20]	; 0xffffffec
    1944:	32150505 	andscc	r0, r5, #20971520	; 0x1400000
    1948:	144a0101 	strbne	r0, [sl], #-257	; 0xfffffeff
    194c:	052f0205 	streq	r0, [pc, #-517]!	; 174f <__code_start__-0x68b1>
    1950:	7303060a 	movwvc	r0, #13834	; 0x360a
    1954:	0008022e 	andeq	r0, r8, lr, lsr #4
    1958:	007d0101 	rsbseq	r0, sp, r1, lsl #2
    195c:	00030000 	andeq	r0, r3, r0
    1960:	00000065 	andeq	r0, r0, r5, rrx
    1964:	0efb0102 	cdpeq	1, 15, cr0, cr11, cr2, {0}
    1968:	0101000d 	tsteq	r1, sp
    196c:	00000101 	andeq	r0, r0, r1, lsl #2
    1970:	00000100 	andeq	r0, r0, r0, lsl #2
    1974:	732f2e01 			; <UNDEFINED> instruction: 0x732f2e01
    1978:	66666174 			; <UNDEFINED> instruction: 0x66666174
    197c:	6372732d 	cmnvs	r2, #-1275068416	; 0xb4000000
    1980:	73552f00 	cmpvc	r5, #0, 30
    1984:	2f737265 	svccs	0x00737265
    1988:	656c696d 	strbvs	r6, [ip, #-2413]!	; 0xfffff693
    198c:	6f532f73 	svcvs	0x00532f73
    1990:	65637275 	strbvs	r7, [r3, #-629]!	; 0xfffffd8b
    1994:	3273632f 	rsbscc	r6, r3, #-1140850688	; 0xbc000000
    1998:	786c3034 	stmdavc	ip!, {r2, r4, r5, ip, sp}^
    199c:	62696c2f 	rsbvs	r6, r9, #12032	; 0x2f00
    19a0:	692f6970 	stmdbvs	pc!, {r4, r5, r6, r8, fp, sp, lr}	; <UNPREDICTABLE>
    19a4:	756c636e 	strbvc	r6, [ip, #-878]!	; 0xfffffc92
    19a8:	00006564 	andeq	r6, r0, r4, ror #10
    19ac:	74737563 	ldrbtvc	r7, [r3], #-1379	; 0xfffffa9d
    19b0:	6c2d6d6f 	stcvs	13, cr6, [sp], #-444	; 0xfffffe44
    19b4:	6564616f 	strbvs	r6, [r4, #-367]!	; 0xfffffe91
    19b8:	00632e72 	rsbeq	r2, r3, r2, ror lr
    19bc:	72000001 	andvc	r0, r0, #1, 0
    19c0:	682e6970 	stmdavs	lr!, {r4, r5, r6, r8, fp, sp, lr}
    19c4:	00000200 	andeq	r0, r0, r0, lsl #4
    19c8:	001a0500 	andseq	r0, sl, r0, lsl #10
    19cc:	977c0205 	ldrbls	r0, [ip, -r5, lsl #4]!
    19d0:	05150000 	ldreq	r0, [r5, #-0]
    19d4:	02021401 	andeq	r1, r2, #16777216	; 0x1000000
    19d8:	14010100 	strne	r0, [r1], #-256	; 0xffffff00
    19dc:	03000001 	movweq	r0, #1
    19e0:	00005e00 	andeq	r5, r0, r0, lsl #28
    19e4:	fb010200 	blx	421ee <__bss_end__+0x373fe>
    19e8:	01000d0e 	tsteq	r0, lr, lsl #26
    19ec:	00010101 	andeq	r0, r1, r1, lsl #2
    19f0:	00010000 	andeq	r0, r1, r0
    19f4:	2f2e0100 	svccs	0x002e0100
    19f8:	66617473 			; <UNDEFINED> instruction: 0x66617473
    19fc:	72732d66 	rsbsvc	r2, r3, #6528	; 0x1980
    1a00:	552f0063 	strpl	r0, [pc, #-99]!	; 19a5 <__code_start__-0x665b>
    1a04:	73726573 	cmnvc	r2, #482344960	; 0x1cc00000
    1a08:	6c696d2f 	stclvs	13, cr6, [r9], #-188	; 0xffffff44
    1a0c:	532f7365 			; <UNDEFINED> instruction: 0x532f7365
    1a10:	6372756f 	cmnvs	r2, #465567744	; 0x1bc00000
    1a14:	73632f65 	cmnvc	r3, #404	; 0x194
    1a18:	6c303432 	cfldrsvs	mvf3, [r0], #-200	; 0xffffff38
    1a1c:	696c2f78 	stmdbvs	ip!, {r3, r4, r5, r6, r8, r9, sl, fp, sp}^
    1a20:	2f697062 	svccs	0x00697062
    1a24:	6c636e69 	stclvs	14, cr6, [r3], #-420	; 0xfffffe5c
    1a28:	00656475 	rsbeq	r6, r5, r5, ror r4
    1a2c:	62657200 	rsbvs	r7, r5, #0, 4
    1a30:	2e746f6f 	cdpcs	15, 7, cr6, cr4, cr15, {3}
    1a34:	00010063 	andeq	r0, r1, r3, rrx
    1a38:	69707200 	ldmdbvs	r0!, {r9, ip, sp, lr}^
    1a3c:	0200682e 	andeq	r6, r0, #3014656	; 0x2e0000
    1a40:	05000000 	streq	r0, [r0, #-0]
    1a44:	02050019 	andeq	r0, r5, #25, 0
    1a48:	00009780 	andeq	r9, r0, r0, lsl #15
    1a4c:	05010d03 	streq	r0, [r1, #-3331]	; 0xfffff2fd
    1a50:	31131305 	tstcc	r3, r5, lsl #6
    1a54:	01061305 	tsteq	r6, r5, lsl #6
    1a58:	052f0105 	streq	r0, [pc, #-261]!	; 195b <__code_start__-0x66a5>
    1a5c:	0585061b 	streq	r0, [r5, #1563]	; 0x61b
    1a60:	05141305 	ldreq	r1, [r4, #-773]	; 0xfffffcfb
    1a64:	16052f09 	strne	r2, [r5], -r9, lsl #30
    1a68:	05050106 	streq	r0, [r5, #-262]	; 0xfffffefa
    1a6c:	0e052f06 	cdpeq	15, 0, cr2, cr5, cr6, {0}
    1a70:	05051106 	streq	r1, [r5, #-262]	; 0xfffffefa
    1a74:	2f01052f 	svccs	0x0001052f
    1a78:	30061705 	andcc	r1, r6, r5, lsl #14
    1a7c:	03130505 	tsteq	r3, #20971520	; 0x1400000
    1a80:	1313016e 	tstne	r3, #-2147483621	; 0x8000001b
    1a84:	03061705 	movweq	r1, #26373	; 0x6705
    1a88:	0505010f 	streq	r0, [r5, #-271]	; 0xfffffef1
    1a8c:	062e7103 	strteq	r7, [lr], -r3, lsl #2
    1a90:	06130531 			; <UNDEFINED> instruction: 0x06130531
    1a94:	03070501 	movweq	r0, #29953	; 0x7501
    1a98:	09052e0d 	stmdbeq	r5, {r0, r2, r3, r9, sl, fp, sp}
    1a9c:	06054b06 	streq	r4, [r5], -r6, lsl #22
    1aa0:	05017603 	streq	r7, [r1, #-1539]	; 0xfffff9fd
    1aa4:	05141305 	ldreq	r1, [r4, #-773]	; 0xfffffcfb
    1aa8:	16052f09 	strne	r2, [r5], -r9, lsl #30
    1aac:	05050106 	streq	r0, [r5, #-262]	; 0xfffffefa
    1ab0:	0e052f06 	cdpeq	15, 0, cr2, cr5, cr6, {0}
    1ab4:	05051106 	streq	r1, [r5, #-262]	; 0xfffffefa
    1ab8:	03062e2f 	movweq	r2, #28207	; 0x6e2f
    1abc:	2f30010a 	svccs	0x0030010a
    1ac0:	1313134d 	tstne	r3, #872415233	; 0x34000001
    1ac4:	02006715 	andeq	r6, r0, #5505024	; 0x540000
    1ac8:	05670104 	strbeq	r0, [r7, #-260]!	; 0xfffffefc
    1acc:	0402000d 	streq	r0, [r2], #-13
    1ad0:	0a050101 	beq	141edc <__bss_end__+0x1370ec>
    1ad4:	01040200 	mrseq	r0, R12_usr
    1ad8:	00050501 	andeq	r0, r5, r1, lsl #10
    1adc:	01010402 	tsteq	r1, r2, lsl #8
    1ae0:	02000d05 	andeq	r0, r0, #320	; 0x140
    1ae4:	05010104 	streq	r0, [r1, #-260]	; 0xfffffefc
    1ae8:	0402000a 	streq	r0, [r2], #-10
    1aec:	0a020101 	beq	81ef8 <__bss_end__+0x77108>
    1af0:	fa010100 	blx	41ef8 <__bss_end__+0x37108>
    1af4:	03000001 	movweq	r0, #1
    1af8:	00005d00 	andeq	r5, r0, r0, lsl #26
    1afc:	fb010200 	blx	42306 <__bss_end__+0x37516>
    1b00:	01000d0e 	tsteq	r0, lr, lsl #26
    1b04:	00010101 	andeq	r0, r1, r1, lsl #2
    1b08:	00010000 	andeq	r0, r1, r0
    1b0c:	2f2e0100 	svccs	0x002e0100
    1b10:	66617473 			; <UNDEFINED> instruction: 0x66617473
    1b14:	72732d66 	rsbsvc	r2, r3, #6528	; 0x1980
    1b18:	552f0063 	strpl	r0, [pc, #-99]!	; 1abd <__code_start__-0x6543>
    1b1c:	73726573 	cmnvc	r2, #482344960	; 0x1cc00000
    1b20:	6c696d2f 	stclvs	13, cr6, [r9], #-188	; 0xffffff44
    1b24:	532f7365 			; <UNDEFINED> instruction: 0x532f7365
    1b28:	6372756f 	cmnvs	r2, #465567744	; 0x1bc00000
    1b2c:	73632f65 	cmnvc	r3, #404	; 0x194
    1b30:	6c303432 	cfldrsvs	mvf3, [r0], #-200	; 0xffffff38
    1b34:	696c2f78 	stmdbvs	ip!, {r3, r4, r5, r6, r8, r9, sl, fp, sp}^
    1b38:	2f697062 	svccs	0x00697062
    1b3c:	6c636e69 	stclvs	14, cr6, [r3], #-420	; 0xfffffe5c
    1b40:	00656475 	rsbeq	r6, r5, r5, ror r4
    1b44:	6d697400 	cfstrdvs	mvd7, [r9, #-0]
    1b48:	632e7265 			; <UNDEFINED> instruction: 0x632e7265
    1b4c:	00000100 	andeq	r0, r0, r0, lsl #2
    1b50:	2e697072 	mcrcs	0, 3, r7, cr9, cr2, {3}
    1b54:	00020068 	andeq	r0, r2, r8, rrx
    1b58:	23050000 	movwcs	r0, #20480	; 0x5000
    1b5c:	0c020500 	cfstr32eq	mvfx0, [r2], {-0}
    1b60:	15000098 	strne	r0, [r0, #-152]	; 0xffffff68
    1b64:	05130505 	ldreq	r0, [r3, #-1285]	; 0xfffffafb
    1b68:	0501060c 	streq	r0, [r1, #-1548]	; 0xfffff9f4
    1b6c:	056a061f 	strbeq	r0, [sl, #-1567]!	; 0xfffff9e1
    1b70:	1f051505 	svcne	0x00051505
    1b74:	05050f06 	streq	r0, [r5, #-3846]	; 0xfffff0fa
    1b78:	052f0631 	streq	r0, [pc, #-1585]!	; 154f <__code_start__-0x6ab1>
    1b7c:	0177030a 	cmneq	r7, sl, lsl #6
    1b80:	05130505 	ldreq	r0, [r3, #-1285]	; 0xfffffafb
    1b84:	6601060c 	strvs	r0, [r1], -ip, lsl #12
    1b88:	03060505 	movweq	r0, #25861	; 0x6505
    1b8c:	052f0109 	streq	r0, [pc, #-265]!	; 1a8b <__code_start__-0x6575>
    1b90:	05130601 	ldreq	r0, [r3, #-1537]	; 0xfffff9ff
    1b94:	0568061c 	strbeq	r0, [r8, #-1564]!	; 0xfffff9e4
    1b98:	0a051305 	beq	1467b4 <__bss_end__+0x13b9c4>
    1b9c:	05017603 	streq	r7, [r1, #-1539]	; 0xfffff9fd
    1ba0:	1c051505 	cfstr32ne	mvfx1, [r5], {5}
    1ba4:	052e1806 	streq	r1, [lr, #-2054]!	; 0xfffff7fa
    1ba8:	2e7a0305 	cdpcs	3, 7, cr0, cr10, cr5, {0}
    1bac:	0a052f06 	beq	14d7cc <__bss_end__+0x1429dc>
    1bb0:	05017703 	streq	r7, [r1, #-1795]	; 0xfffff8fd
    1bb4:	0c051305 	stceq	3, cr1, [r5], {5}
    1bb8:	05660106 	strbeq	r0, [r6, #-262]!	; 0xfffffefa
    1bbc:	09030605 	stmdbeq	r3, {r0, r2, r9, sl}
    1bc0:	01062f01 	tsteq	r6, r1, lsl #30
    1bc4:	76030c05 	strvc	r0, [r3], -r5, lsl #24
    1bc8:	06050501 	streq	r0, [r5], -r1, lsl #10
    1bcc:	052e0f03 	streq	r0, [lr, #-3843]!	; 0xfffff0fd
    1bd0:	0a051309 	beq	1467fc <__bss_end__+0x13ba0c>
    1bd4:	05017403 	streq	r7, [r1, #-1027]	; 0xfffffbfd
    1bd8:	052f1505 	streq	r1, [pc, #-1285]!	; 16db <__code_start__-0x6925>
    1bdc:	0177030a 	cmneq	r7, sl, lsl #6
    1be0:	05130505 	ldreq	r0, [r3, #-1285]	; 0xfffffafb
    1be4:	6601060c 	strvs	r0, [r1], -ip, lsl #12
    1be8:	03060505 	movweq	r0, #25861	; 0x6505
    1bec:	11050109 	tstne	r5, r9, lsl #2
    1bf0:	05051a06 	streq	r1, [r5, #-2566]	; 0xfffff5fa
    1bf4:	062e7803 	strteq	r7, [lr], -r3, lsl #16
    1bf8:	1909052f 	stmdbne	r9, {r0, r1, r2, r3, r5, r8, sl}
    1bfc:	01060c05 	tsteq	r6, r5, lsl #24
    1c00:	87061c05 	strhi	r1, [r6, -r5, lsl #24]
    1c04:	05130505 	ldreq	r0, [r3, #-1285]	; 0xfffffafb
    1c08:	0511061c 	ldreq	r0, [r1, #-1564]	; 0xfffff9e4
    1c0c:	054a2f05 	strbeq	r2, [sl, #-3845]	; 0xfffff0fb
    1c10:	76030606 	strvc	r0, [r3], -r6, lsl #12
    1c14:	1305052e 	movwne	r0, #21806	; 0x552e
    1c18:	76030a05 	strvc	r0, [r3], -r5, lsl #20
    1c1c:	15050501 	strne	r0, [r5, #-1281]	; 0xfffffaff
    1c20:	030a052f 	movweq	r0, #42287	; 0xa52f
    1c24:	05050177 	streq	r0, [r5, #-375]	; 0xfffffe89
    1c28:	060c0513 			; <UNDEFINED> instruction: 0x060c0513
    1c2c:	05056601 	streq	r6, [r5, #-1537]	; 0xfffff9ff
    1c30:	01090306 	tsteq	r9, r6, lsl #6
    1c34:	0501062f 	streq	r0, [r1, #-1583]	; 0xfffff9d1
    1c38:	0176030c 	cmneq	r6, ip, lsl #6
    1c3c:	03060505 	movweq	r0, #25861	; 0x6505
    1c40:	09052e0f 	stmdbeq	r5, {r0, r1, r2, r3, r9, sl, fp, sp}
    1c44:	030a0513 	movweq	r0, #42259	; 0xa513
    1c48:	05050174 	streq	r0, [r5, #-372]	; 0xfffffe8c
    1c4c:	0a052f15 	beq	14d8a8 <__bss_end__+0x142ab8>
    1c50:	05017703 	streq	r7, [r1, #-1795]	; 0xfffff8fd
    1c54:	0c051305 	stceq	3, cr1, [r5], {5}
    1c58:	05660106 	strbeq	r0, [r6, #-262]!	; 0xfffffefa
    1c5c:	09030605 	stmdbeq	r3, {r0, r2, r9, sl}
    1c60:	06110501 	ldreq	r0, [r1], -r1, lsl #10
    1c64:	0305051a 	movweq	r0, #21786	; 0x551a
    1c68:	2f062e78 	svccs	0x00062e78
    1c6c:	05190905 	ldreq	r0, [r9, #-2309]	; 0xfffff6fb
    1c70:	0501060c 	streq	r0, [r1, #-1548]	; 0xfffff9f4
    1c74:	058a061e 	streq	r0, [sl, #1566]	; 0x61e
    1c78:	06051305 	streq	r1, [r5], -r5, lsl #6
    1c7c:	1305050e 	movwne	r0, #21774	; 0x550e
    1c80:	14061e05 	strne	r1, [r6], #-3589	; 0xfffff1fb
    1c84:	662c0505 	strtvs	r0, [ip], -r5, lsl #10
    1c88:	03060605 	movweq	r0, #26117	; 0x6605
    1c8c:	05052e76 	streq	r2, [r5, #-3702]	; 0xfffff18a
    1c90:	030a0513 	movweq	r0, #42259	; 0xa513
    1c94:	05050176 	streq	r0, [r5, #-374]	; 0xfffffe8a
    1c98:	0a052f15 	beq	14d8f4 <__bss_end__+0x142b04>
    1c9c:	05017703 	streq	r7, [r1, #-1795]	; 0xfffff8fd
    1ca0:	0c051305 	stceq	3, cr1, [r5], {5}
    1ca4:	05660106 	strbeq	r0, [r6, #-262]!	; 0xfffffefa
    1ca8:	09030605 	stmdbeq	r3, {r0, r2, r9, sl}
    1cac:	01062f01 	tsteq	r6, r1, lsl #30
    1cb0:	76030c05 	strvc	r0, [r3], -r5, lsl #24
    1cb4:	06050501 	streq	r0, [r5], -r1, lsl #10
    1cb8:	052e0f03 	streq	r0, [lr, #-3843]!	; 0xfffff0fd
    1cbc:	0a051309 	beq	1468e8 <__bss_end__+0x13baf8>
    1cc0:	05017403 	streq	r7, [r1, #-1027]	; 0xfffffbfd
    1cc4:	052f1505 	streq	r1, [pc, #-1285]!	; 17c7 <__code_start__-0x6839>
    1cc8:	0177030a 	cmneq	r7, sl, lsl #6
    1ccc:	05130505 	ldreq	r0, [r3, #-1285]	; 0xfffffafb
    1cd0:	6601060c 	strvs	r0, [r1], -ip, lsl #12
    1cd4:	03060505 	movweq	r0, #25861	; 0x6505
    1cd8:	11050109 	tstne	r5, r9, lsl #2
    1cdc:	05051a06 	streq	r1, [r5, #-2566]	; 0xfffff5fa
    1ce0:	062e7803 	strteq	r7, [lr], -r3, lsl #16
    1ce4:	1909052f 	stmdbne	r9, {r0, r1, r2, r3, r5, r8, sl}
    1ce8:	01060c05 	tsteq	r6, r5, lsl #24
    1cec:	01000802 	tsteq	r0, r2, lsl #16
    1cf0:	00020401 	andeq	r0, r2, r1, lsl #8
    1cf4:	c8000300 	stmdagt	r0, {r8, r9}
    1cf8:	02000000 	andeq	r0, r0, #0, 0
    1cfc:	0d0efb01 	vstreq	d15, [lr, #-4]
    1d00:	01010100 	mrseq	r0, (UNDEF: 17)
    1d04:	00000001 	andeq	r0, r0, r1
    1d08:	01000001 	tsteq	r0, r1
    1d0c:	6d6f682f 	stclvs	8, cr6, [pc, #-188]!	; 1c58 <__code_start__-0x63a8>
    1d10:	6e652f65 	cdpvs	15, 6, cr2, cr5, cr5, {3}
    1d14:	72656c67 	rsbvc	r6, r5, #26368	; 0x6700
    1d18:	616c632f 	cmnvs	ip, pc, lsr #6
    1d1c:	632f7373 			; <UNDEFINED> instruction: 0x632f7373
    1d20:	30343173 	eorscc	r3, r4, r3, ror r1
    1d24:	32322d65 	eorscc	r2, r2, #6464	; 0x1940
    1d28:	2f6e6977 	svccs	0x006e6977
    1d2c:	62696c2f 	rsbvs	r6, r9, #12032	; 0x2f00
    1d30:	692f6970 	stmdbvs	pc!, {r4, r5, r6, r8, fp, sp, lr}	; <UNPREDICTABLE>
    1d34:	756c636e 	strbvc	r6, [ip, #-878]!	; 0xfffffc92
    1d38:	2f006564 	svccs	0x00006564
    1d3c:	2f727375 	svccs	0x00727375
    1d40:	72616873 	rsbvc	r6, r1, #7536640	; 0x730000
    1d44:	63672f65 	cmnvs	r7, #404	; 0x194
    1d48:	72612d63 	rsbvc	r2, r1, #6336	; 0x18c0
    1d4c:	6f6e2d6d 	svcvs	0x006e2d6d
    1d50:	652d656e 	strvs	r6, [sp, #-1390]!	; 0xfffffa92
    1d54:	2d696261 	sfmcs	f6, 2, [r9, #-388]!	; 0xfffffe7c
    1d58:	332e3031 			; <UNDEFINED> instruction: 0x332e3031
    1d5c:	3230322d 	eorscc	r3, r0, #-805306366	; 0xd0000002
    1d60:	30312e31 	eorscc	r2, r1, r1, lsr lr
    1d64:	62696c2f 	rsbvs	r6, r9, #12032	; 0x2f00
    1d68:	6363672f 	cmnvs	r3, #12320768	; 0xbc0000
    1d6c:	6d72612f 	ldfvse	f6, [r2, #-188]!	; 0xffffff44
    1d70:	6e6f6e2d 	cdpvs	14, 6, cr6, cr15, cr13, {1}
    1d74:	61652d65 	cmnvs	r5, r5, ror #26
    1d78:	312f6962 			; <UNDEFINED> instruction: 0x312f6962
    1d7c:	2e332e30 	mrccs	14, 1, r2, cr3, cr0, {1}
    1d80:	6e692f31 	mcrvs	15, 3, r2, cr9, cr1, {1}
    1d84:	64756c63 	ldrbtvs	r6, [r5], #-3171	; 0xfffff39d
    1d88:	75000065 	strvc	r0, [r0, #-101]	; 0xffffff9b
    1d8c:	2e747261 	cdpcs	2, 7, cr7, cr4, cr1, {3}
    1d90:	00000063 	andeq	r0, r0, r3, rrx
    1d94:	72617500 	rsbvc	r7, r1, #0, 10
    1d98:	00682e74 	rsbeq	r2, r8, r4, ror lr
    1d9c:	72000001 	andvc	r0, r0, #1, 0
    1da0:	682e6970 	stmdavs	lr!, {r4, r5, r6, r8, fp, sp, lr}
    1da4:	00000100 	andeq	r0, r0, r0, lsl #2
    1da8:	6f697067 	svcvs	0x00697067
    1dac:	0100682e 	tsteq	r0, lr, lsr #16
    1db0:	74730000 	ldrbtvc	r0, [r3], #-0
    1db4:	746e6964 	strbtvc	r6, [lr], #-2404	; 0xfffff69c
    1db8:	6363672d 	cmnvs	r3, #11796480	; 0xb40000
    1dbc:	0200682e 	andeq	r6, r0, #3014656	; 0x2e0000
    1dc0:	05000000 	streq	r0, [r0, #-0]
    1dc4:	02050039 	andeq	r0, r5, #57, 0	; 0x39
    1dc8:	00009928 	andeq	r9, r0, r8, lsr #18
    1dcc:	06013003 	streq	r3, [r1], -r3
    1dd0:	06050501 	streq	r0, [r5], -r1, lsl #10
    1dd4:	06110567 	ldreq	r0, [r1], -r7, ror #10
    1dd8:	2e050501 	cfsh32cs	mvfx0, mvfx5, #1
    1ddc:	05670105 	strbeq	r0, [r7, #-261]!	; 0xfffffefb
    1de0:	06290638 			; <UNDEFINED> instruction: 0x06290638
    1de4:	06050501 	streq	r0, [r5], -r1, lsl #10
    1de8:	06110567 	ldreq	r0, [r1], -r7, ror #10
    1dec:	2e050501 	cfsh32cs	mvfx0, mvfx5, #1
    1df0:	05670105 	strbeq	r0, [r7, #-261]!	; 0xfffffefb
    1df4:	15030616 	strne	r0, [r3, #-1558]	; 0xfffff9ea
    1df8:	3505052e 	strcc	r0, [r5, #-1326]	; 0xfffffad2
    1dfc:	68356867 	ldmdavs	r5!, {r0, r1, r2, r5, r6, fp, sp, lr}
    1e00:	852e0c03 	strhi	r0, [lr, #-3075]!	; 0xfffff3fd
    1e04:	0369696b 	cmneq	r9, #1753088	; 0x1ac000
    1e08:	6b13660c 	blvs	4db640 <__bss_end__+0x4d0850>
    1e0c:	06010567 	streq	r0, [r1], -r7, ror #10
    1e10:	0619052f 	ldreq	r0, [r9], -pc, lsr #10
    1e14:	05052508 	streq	r2, [r5, #-1288]	; 0xfffffaf8
    1e18:	060d0534 			; <UNDEFINED> instruction: 0x060d0534
    1e1c:	4c010501 	cfstr32mi	mvfx0, [r1], {1}
    1e20:	67061905 	strvs	r1, [r6, -r5, lsl #18]
    1e24:	05360505 	ldreq	r0, [r6, #-1285]!	; 0xfffffafb
    1e28:	0501060d 	streq	r0, [r1, #-1549]	; 0xfffff9f3
    1e2c:	01054a28 	tsteq	r5, r8, lsr #20
    1e30:	06150530 			; <UNDEFINED> instruction: 0x06150530
    1e34:	2f050587 	svccs	0x00050587
    1e38:	0009052f 	andeq	r0, r9, pc, lsr #10
    1e3c:	13010402 	movwne	r0, #5122	; 0x1402
    1e40:	02000a05 	andeq	r0, r0, #20480	; 0x5000
    1e44:	05110104 	ldreq	r0, [r1, #-260]	; 0xfffffefc
    1e48:	0402000c 	streq	r0, [r2], #-12
    1e4c:	05010601 	streq	r0, [r1, #-1537]	; 0xfffff9ff
    1e50:	0402000a 	streq	r0, [r2], #-10
    1e54:	05052e01 	streq	r2, [r5, #-3585]	; 0xfffff1ff
    1e58:	0e054c06 	cdpeq	12, 0, cr4, cr5, cr6, {0}
    1e5c:	09050106 	stmdbeq	r5, {r1, r2, r8}
    1e60:	0605054a 	streq	r0, [r5], -sl, asr #10
    1e64:	01052f2f 	tsteq	r5, pc, lsr #30
    1e68:	1c051306 	stcne	3, cr1, [r5], {6}
    1e6c:	01066706 	tsteq	r6, r6, lsl #14
    1e70:	4b060505 	blmi	18328c <__bss_end__+0x17849c>
    1e74:	0009052f 	andeq	r0, r9, pc, lsr #10
    1e78:	13010402 	movwne	r0, #5122	; 0x1402
    1e7c:	02000a05 	andeq	r0, r0, #20480	; 0x5000
    1e80:	05110104 	ldreq	r0, [r1, #-260]	; 0xfffffefc
    1e84:	0402000c 	streq	r0, [r2], #-12
    1e88:	05010601 	streq	r0, [r1, #-1537]	; 0xfffff9ff
    1e8c:	0402000a 	streq	r0, [r2], #-10
    1e90:	05052e01 	streq	r2, [r5, #-3585]	; 0xfffff1ff
    1e94:	05674c06 	strbeq	r4, [r7, #-3078]!	; 0xfffff3fa
    1e98:	052f0601 	streq	r0, [pc, #-1537]!	; 189f <__code_start__-0x6761>
    1e9c:	054c0619 	strbeq	r0, [ip, #-1561]	; 0xfffff9e7
    1ea0:	2a052e1b 	bcs	14d714 <__bss_end__+0x142924>
    1ea4:	0631052e 	ldrteq	r0, [r1], -lr, lsr #10
    1ea8:	2e420501 	cdpcs	5, 4, cr0, cr2, cr1, {0}
    1eac:	31061c05 	tstcc	r6, r5, lsl #24
    1eb0:	032f0505 			; <UNDEFINED> instruction: 0x032f0505
    1eb4:	0e052e09 	cdpeq	14, 0, cr2, cr5, cr9, {0}
    1eb8:	21050106 	tstcs	r5, r6, lsl #2
    1ebc:	0301054a 	movweq	r0, #5450	; 0x154a
    1ec0:	1a052e0a 	bne	14d6f0 <__bss_end__+0x142900>
    1ec4:	09056806 	stmdbeq	r5, {r1, r2, fp, sp, lr}
    1ec8:	01040200 	mrseq	r0, R12_usr
    1ecc:	000a0530 	andeq	r0, sl, r0, lsr r5
    1ed0:	11010402 	tstne	r1, r2, lsl #8
    1ed4:	02000c05 	andeq	r0, r0, #1280	; 0x500
    1ed8:	01060104 	tsteq	r6, r4, lsl #2
    1edc:	02000a05 	andeq	r0, r0, #20480	; 0x5000
    1ee0:	052e0104 	streq	r0, [lr, #-260]!	; 0xfffffefc
    1ee4:	e8030619 	stmda	r3, {r0, r3, r4, r9, sl}
    1ee8:	0505667e 	streq	r6, [r5, #-1662]	; 0xfffff982
    1eec:	672f2f2f 	strvs	r2, [pc, -pc, lsr #30]!
    1ef0:	2f060105 	svccs	0x00060105
    1ef4:	01000402 	tsteq	r0, r2, lsl #8
    1ef8:	00039201 	andeq	r9, r3, r1, lsl #4
    1efc:	b7000300 	strlt	r0, [r0, -r0, lsl #6]
    1f00:	02000000 	andeq	r0, r0, #0, 0
    1f04:	0d0efb01 	vstreq	d15, [lr, #-4]
    1f08:	01010100 	mrseq	r0, (UNDEF: 17)
    1f0c:	00000001 	andeq	r0, r0, r1
    1f10:	01000001 	tsteq	r0, r1
    1f14:	6d6f682f 	stclvs	8, cr6, [pc, #-188]!	; 1e60 <__code_start__-0x61a0>
    1f18:	6e652f65 	cdpvs	15, 6, cr2, cr5, cr5, {3}
    1f1c:	72656c67 	rsbvc	r6, r5, #26368	; 0x6700
    1f20:	616c632f 	cmnvs	ip, pc, lsr #6
    1f24:	632f7373 			; <UNDEFINED> instruction: 0x632f7373
    1f28:	30343173 	eorscc	r3, r4, r3, ror r1
    1f2c:	32322d65 	eorscc	r2, r2, #6464	; 0x1940
    1f30:	2f6e6977 	svccs	0x006e6977
    1f34:	62696c2f 	rsbvs	r6, r9, #12032	; 0x2f00
    1f38:	692f6970 	stmdbvs	pc!, {r4, r5, r6, r8, fp, sp, lr}	; <UNPREDICTABLE>
    1f3c:	756c636e 	strbvc	r6, [ip, #-878]!	; 0xfffffc92
    1f40:	2f006564 	svccs	0x00006564
    1f44:	2f727375 	svccs	0x00727375
    1f48:	72616873 	rsbvc	r6, r1, #7536640	; 0x730000
    1f4c:	63672f65 	cmnvs	r7, #404	; 0x194
    1f50:	72612d63 	rsbvc	r2, r1, #6336	; 0x18c0
    1f54:	6f6e2d6d 	svcvs	0x006e2d6d
    1f58:	652d656e 	strvs	r6, [sp, #-1390]!	; 0xfffffa92
    1f5c:	2d696261 	sfmcs	f6, 2, [r9, #-388]!	; 0xfffffe7c
    1f60:	332e3031 			; <UNDEFINED> instruction: 0x332e3031
    1f64:	3230322d 	eorscc	r3, r0, #-805306366	; 0xd0000002
    1f68:	30312e31 	eorscc	r2, r1, r1, lsr lr
    1f6c:	62696c2f 	rsbvs	r6, r9, #12032	; 0x2f00
    1f70:	6363672f 	cmnvs	r3, #12320768	; 0xbc0000
    1f74:	6d72612f 	ldfvse	f6, [r2, #-188]!	; 0xffffff44
    1f78:	6e6f6e2d 	cdpvs	14, 6, cr6, cr15, cr13, {1}
    1f7c:	61652d65 	cmnvs	r5, r5, ror #26
    1f80:	312f6962 			; <UNDEFINED> instruction: 0x312f6962
    1f84:	2e332e30 	mrccs	14, 1, r2, cr3, cr0, {1}
    1f88:	6e692f31 	mcrvs	15, 3, r2, cr9, cr1, {1}
    1f8c:	64756c63 	ldrbtvs	r6, [r5], #-3171	; 0xfffff39d
    1f90:	6b000065 	blvs	212c <__code_start__-0x5ed4>
    1f94:	6c6c616d 	stfvse	f6, [ip], #-436	; 0xfffffe4c
    1f98:	632e636f 			; <UNDEFINED> instruction: 0x632e636f
    1f9c:	00000000 	andeq	r0, r0, r0
    1fa0:	2e697072 	mcrcs	0, 3, r7, cr9, cr2, {3}
    1fa4:	00010068 	andeq	r0, r1, r8, rrx
    1fa8:	64747300 	ldrbtvs	r7, [r4], #-768	; 0xfffffd00
    1fac:	2d746e69 	ldclcs	14, cr6, [r4, #-420]!	; 0xfffffe5c
    1fb0:	2e636367 	cdpcs	3, 6, cr6, cr3, cr7, {3}
    1fb4:	00020068 	andeq	r0, r2, r8, rrx
    1fb8:	1e050000 	cdpne	0, 0, cr0, cr5, cr0, {0}
    1fbc:	18020500 	stmdane	r2, {r8, sl}
    1fc0:	0300009b 	movweq	r0, #155	; 0x9b
    1fc4:	20050127 	andcs	r0, r5, r7, lsr #2
    1fc8:	062d0501 	strteq	r0, [sp], -r1, lsl #10
    1fcc:	06200501 	strteq	r0, [r0], -r1, lsl #10
    1fd0:	01220583 	smlawbeq	r2, r3, r5, r0
    1fd4:	01063505 	tsteq	r6, r5, lsl #10
    1fd8:	83061e05 	movwhi	r1, #28165	; 0x6e05
    1fdc:	05012005 	streq	r2, [r1, #-5]
    1fe0:	0501062d 	streq	r0, [r1, #-1581]	; 0xfffff9d3
    1fe4:	06850642 	streq	r0, [r5], r2, asr #12
    1fe8:	06050501 	streq	r0, [r5], -r1, lsl #10
    1fec:	0601144b 	streq	r1, [r1], -fp, asr #8
    1ff0:	0402002e 	streq	r0, [r2], #-46	; 0xffffffd2
    1ff4:	002e0602 	eoreq	r0, lr, r2, lsl #12
    1ff8:	01020402 	tsteq	r2, r2, lsl #8
    1ffc:	02040200 	andeq	r0, r4, #0, 4
    2000:	000d0515 	andeq	r0, sp, r5, lsl r5
    2004:	06020402 	streq	r0, [r2], -r2, lsl #8
    2008:	00070501 	andeq	r0, r7, r1, lsl #10
    200c:	4a020402 	bmi	8301c <__bss_end__+0x7822c>
    2010:	4b060905 	blmi	18442c <__bss_end__+0x17963c>
    2014:	05150505 	ldreq	r0, [r5, #-1285]	; 0xfffffafb
    2018:	05010617 	streq	r0, [r1, #-1559]	; 0xfffff9e9
    201c:	05054a10 	streq	r4, [r5, #-2576]	; 0xfffff5f0
    2020:	1b052f06 	blne	14dc40 <__bss_end__+0x142e50>
    2024:	0e050106 	adfeqs	f0, f5, f6
    2028:	2f01052e 	svccs	0x0001052e
    202c:	02000505 	andeq	r0, r0, #20971520	; 0x1400000
    2030:	03060104 	movweq	r0, #24836	; 0x6104
    2034:	02004a77 	andeq	r4, r0, #487424	; 0x77000
    2038:	00010104 	andeq	r0, r1, r4, lsl #2
    203c:	06010402 	streq	r0, [r1], -r2, lsl #8
    2040:	0402009e 	streq	r0, [r2], #-158	; 0xffffff62
    2044:	02002e01 	andeq	r2, r0, #1, 28
    2048:	2e060104 	adfcss	f0, f6, f4
    204c:	01320905 	teqeq	r2, r5, lsl #18
    2050:	062ed606 	strteq	sp, [lr], -r6, lsl #12
    2054:	de19052e 	cfmul64le	mvdx0, mvdx9, mvdx14
    2058:	142f0505 	strtne	r0, [pc], #-1285	; 2060 <__code_start__-0x5fa0>
    205c:	01060805 	tsteq	r6, r5, lsl #16
    2060:	054a0705 	strbeq	r0, [sl, #-1797]	; 0xfffff8fb
    2064:	054b0609 	strbeq	r0, [fp, #-1545]	; 0xfffff9f7
    2068:	0c051305 	stceq	3, cr1, [r5], {5}
    206c:	05050106 	streq	r0, [r5, #-262]	; 0xfffffefa
    2070:	05136706 	ldreq	r6, [r3, #-1798]	; 0xfffff8fa
    2074:	05670601 	strbeq	r0, [r7, #-1537]!	; 0xfffff9ff
    2078:	012a0609 			; <UNDEFINED> instruction: 0x012a0609
    207c:	a528059e 	strge	r0, [r8, #-1438]!	; 0xfffffa62
    2080:	05050106 	streq	r0, [r5, #-262]	; 0xfffffefa
    2084:	06014b06 	streq	r4, [r1], -r6, lsl #22
    2088:	012e062e 			; <UNDEFINED> instruction: 0x012e062e
    208c:	03180513 	tsteq	r8, #79691776	; 0x4c00000
    2090:	05050147 	streq	r0, [r5, #-327]	; 0xfffffeb9
    2094:	01060113 	tsteq	r6, r3, lsl r1
    2098:	01150f06 	tsteq	r5, r6, lsl #30
    209c:	060e0513 			; <UNDEFINED> instruction: 0x060e0513
    20a0:	2e160501 	cfmul32cs	mvfx0, mvfx6, mvfx1
    20a4:	0605052e 	streq	r0, [r5], -lr, lsr #10
    20a8:	05013903 	streq	r3, [r1, #-2307]	; 0xfffff6fd
    20ac:	0501060b 	streq	r0, [r1, #-1547]	; 0xfffff9f5
    20b0:	054b0605 	strbeq	r0, [fp, #-1541]	; 0xfffff9fb
    20b4:	0501060a 	streq	r0, [r1, #-1546]	; 0xfffff9f6
    20b8:	054b0605 	strbeq	r0, [fp, #-1541]	; 0xfffff9fb
    20bc:	0501060d 	streq	r0, [r1, #-1549]	; 0xfffff9f3
    20c0:	01052e07 	tsteq	r5, r7, lsl #28
    20c4:	0005054d 	andeq	r0, r5, sp, asr #10
    20c8:	06010402 	streq	r0, [r1], -r2, lsl #8
    20cc:	004a7803 	subeq	r7, sl, r3, lsl #16
    20d0:	01010402 	tsteq	r1, r2, lsl #8
    20d4:	01040200 	mrseq	r0, R12_usr
    20d8:	0200ba06 	andeq	fp, r0, #24576	; 0x6000
    20dc:	2e060104 	adfcss	f0, f6, f4
    20e0:	01340905 	teqeq	r4, r5, lsl #18
    20e4:	06668206 	strbteq	r8, [r6], -r6, lsl #4
    20e8:	db20052e 	blle	8035a8 <__bss_end__+0x7f87b8>
    20ec:	05050106 	streq	r0, [r5, #-262]	; 0xfffffefa
    20f0:	00014b06 	andeq	r4, r1, r6, lsl #22
    20f4:	4a020402 	bmi	83104 <__bss_end__+0x78314>
    20f8:	02040200 	andeq	r0, r4, #0, 4
    20fc:	04020001 	streq	r0, [r2], #-1
    2100:	12051302 	andne	r1, r5, #134217728	; 0x8000000
    2104:	02040200 	andeq	r0, r4, #0, 4
    2108:	02000106 	andeq	r0, r0, #-2147483647	; 0x80000001
    210c:	002e0204 	eoreq	r0, lr, r4, lsl #4
    2110:	2e020402 	cdpcs	4, 0, cr0, cr2, cr2, {0}
    2114:	02000505 	andeq	r0, r0, #20971520	; 0x1400000
    2118:	2f060204 	svccs	0x00060204
    211c:	02040200 	andeq	r0, r4, #0, 4
    2120:	00010567 	andeq	r0, r1, r7, ror #10
    2124:	06020402 	streq	r0, [r2], -r2, lsl #8
    2128:	00050513 	andeq	r0, r5, r3, lsl r5
    212c:	06010402 	streq	r0, [r1], -r2, lsl #8
    2130:	04020062 	streq	r0, [r2], #-98	; 0xffffff9e
    2134:	02000101 	andeq	r0, r0, #1073741824	; 0x40000000
    2138:	ba060104 	blt	182550 <__bss_end__+0x177760>
    213c:	01040200 	mrseq	r0, R12_usr
    2140:	3c052e06 	stccc	14, cr2, [r5], {6}
    2144:	069e0a03 	ldreq	r0, [lr], r3, lsl #20
    2148:	06050501 	streq	r0, [r5], -r1, lsl #10
    214c:	2e06014b 	adfcssm	f0, f6, #3.0
    2150:	13012e06 	movwne	r2, #7686	; 0x1e06
    2154:	03180501 	tsteq	r8, #4194304	; 0x400000
    2158:	05017fad 	streq	r7, [r1, #-4013]	; 0xfffff053
    215c:	11051305 	tstne	r5, r5, lsl #6
    2160:	052e0106 	streq	r0, [lr, #-262]!	; 0xfffffefa
    2164:	00d20305 	sbcseq	r0, r2, r5, lsl #6
    2168:	134a0601 	movtne	r0, #42497	; 0xa601
    216c:	a3031805 	movwge	r1, #14341	; 0x3805
    2170:	0505017f 	streq	r0, [r5, #-383]	; 0xfffffe81
    2174:	06160513 			; <UNDEFINED> instruction: 0x06160513
    2178:	05054a01 	streq	r4, [r5, #-2561]	; 0xfffff5ff
    217c:	00e10306 	rsceq	r0, r1, r6, lsl #6
    2180:	06120501 	ldreq	r0, [r2], -r1, lsl #10
    2184:	06050501 	streq	r0, [r5], -r1, lsl #10
    2188:	0318054b 	tsteq	r8, #314572800	; 0x12c00000
    218c:	05017fa9 	streq	r7, [r1, #-4009]	; 0xfffff057
    2190:	05011305 	streq	r1, [r1, #-773]	; 0xfffffcfb
    2194:	05050e18 	streq	r0, [r5, #-3608]	; 0xfffff1e8
    2198:	06110513 			; <UNDEFINED> instruction: 0x06110513
    219c:	05052e01 	streq	r2, [r5, #-3585]	; 0xfffff1ff
    21a0:	014a0615 	cmpeq	sl, r5, lsl r6
    21a4:	060e0513 			; <UNDEFINED> instruction: 0x060e0513
    21a8:	16052e01 	strne	r2, [r5], -r1, lsl #28
    21ac:	05052e2e 	streq	r2, [r5, #-3630]	; 0xfffff1d2
    21b0:	00d60306 	sbcseq	r0, r6, r6, lsl #6
    21b4:	18050101 	stmdane	r5, {r0, r8}
    21b8:	017f9f03 	cmneq	pc, r3, lsl #30
    21bc:	05130505 	ldreq	r0, [r3, #-1285]	; 0xfffffafb
    21c0:	2e010619 	mcrcs	6, 0, r0, cr1, cr9, {0}
    21c4:	e0030505 	and	r0, r3, r5, lsl #10
    21c8:	02000100 	andeq	r0, r0, #0
    21cc:	4a060204 	bmi	1829e4 <__bss_end__+0x177bf4>
    21d0:	02040200 	andeq	r0, r4, #0, 4
    21d4:	000a0514 	andeq	r0, sl, r4, lsl r5
    21d8:	06020402 	streq	r0, [r2], -r2, lsl #8
    21dc:	00050501 	andeq	r0, r5, r1, lsl #10
    21e0:	06020402 	streq	r0, [r2], -r2, lsl #8
    21e4:	000c054b 	andeq	r0, ip, fp, asr #10
    21e8:	06020402 	streq	r0, [r2], -r2, lsl #8
    21ec:	00010501 	andeq	r0, r1, r1, lsl #10
    21f0:	2f020402 	svccs	0x00020402
    21f4:	02000505 	andeq	r0, r0, #20971520	; 0x1400000
    21f8:	03060104 	movweq	r0, #24836	; 0x6104
    21fc:	02004a73 	andeq	r4, r0, #471040	; 0x73000
    2200:	00010104 	andeq	r0, r1, r4, lsl #2
    2204:	06010402 	streq	r0, [r1], -r2, lsl #8
    2208:	0402009e 	streq	r0, [r2], #-158	; 0xffffff62
    220c:	02002e01 	andeq	r2, r0, #1, 28
    2210:	2e060104 	adfcss	f0, f6, f4
    2214:	01040200 	mrseq	r0, R12_usr
    2218:	0402002f 	streq	r0, [r2], #-47	; 0xffffffd1
    221c:	02002e01 	andeq	r2, r0, #1, 28
    2220:	03d60104 	bicseq	r0, r6, #1
    2224:	012e7fb1 			; <UNDEFINED> instruction: 0x012e7fb1
    2228:	2e2e8206 	cdpcs	2, 2, cr8, cr14, cr6, {0}
    222c:	2e062e06 	cdpcs	14, 0, cr2, cr6, cr6, {0}
    2230:	01040200 	mrseq	r0, R12_usr
    2234:	00d70306 	sbcseq	r0, r7, r6, lsl #6
    2238:	04020001 	streq	r0, [r2], #-1
    223c:	02002e01 	andeq	r2, r0, #1, 28
    2240:	05d60104 	ldrbeq	r0, [r6, #260]	; 0x104
    2244:	057b0815 	ldrbeq	r0, [fp, #-2069]!	; 0xfffff7eb
    2248:	16050117 			; <UNDEFINED> instruction: 0x16050117
    224c:	01180531 	tsteq	r8, r1, lsr r5
    2250:	01061d05 	tsteq	r6, r5, lsl #26
    2254:	05662b05 	strbeq	r2, [r6, #-2821]!	; 0xfffff4fb
    2258:	054d0619 	strbeq	r0, [sp, #-1561]	; 0xfffff9e7
    225c:	0c051305 	stceq	3, cr1, [r5], {5}
    2260:	07050106 	streq	r0, [r5, -r6, lsl #2]
    2264:	0025054a 	eoreq	r0, r5, sl, asr #10
    2268:	4a010402 	bmi	43278 <__bss_end__+0x38488>
    226c:	02001e05 	andeq	r1, r0, #80	; 0x50
    2270:	054a0104 	strbeq	r0, [sl, #-260]	; 0xfffffefc
    2274:	054b0609 	strbeq	r0, [fp, #-1545]	; 0xfffff9f7
    2278:	0a051305 	beq	146e94 <__bss_end__+0x13c0a4>
    227c:	19050106 	stmdbne	r5, {r1, r2, r8}
    2280:	06090563 	streq	r0, [r9], -r3, ror #10
    2284:	9e06014c 	adflssm	f0, f6, #4.0
    2288:	0a022e06 	beq	8daa8 <__bss_end__+0x82cb8>
    228c:	89010100 	stmdbhi	r1, {r8}
    2290:	03000002 	movweq	r0, #2
    2294:	0000c900 	andeq	ip, r0, r0, lsl #18
    2298:	fb010200 	blx	42aa2 <__bss_end__+0x37cb2>
    229c:	01000d0e 	tsteq	r0, lr, lsl #26
    22a0:	00010101 	andeq	r0, r1, r1, lsl #2
    22a4:	00010000 	andeq	r0, r1, r0
    22a8:	2f2e0100 	svccs	0x002e0100
    22ac:	00637273 	rsbeq	r7, r3, r3, ror r2
    22b0:	6573552f 	ldrbvs	r5, [r3, #-1327]!	; 0xfffffad1
    22b4:	6d2f7372 	stcvs	3, cr7, [pc, #-456]!	; 20f4 <__code_start__-0x5f0c>
    22b8:	73656c69 	cmnvc	r5, #26880	; 0x6900
    22bc:	756f532f 	strbvc	r5, [pc, #-815]!	; 1f95 <__code_start__-0x606b>
    22c0:	2f656372 	svccs	0x00656372
    22c4:	34327363 	ldrtcc	r7, [r2], #-867	; 0xfffffc9d
    22c8:	2f786c30 	svccs	0x00786c30
    22cc:	7062696c 	rsbvc	r6, r2, ip, ror #18
    22d0:	6e692f69 	cdpvs	15, 6, cr2, cr9, cr9, {3}
    22d4:	64756c63 	ldrbtvs	r6, [r5], #-3171	; 0xfffff39d
    22d8:	6f2f0065 	svcvs	0x002f0065
    22dc:	682f7470 	stmdavs	pc!, {r4, r5, r6, sl, ip, sp, lr}	; <UNPREDICTABLE>
    22e0:	62656d6f 	rsbvs	r6, r5, #7104	; 0x1bc0
    22e4:	2f776572 	svccs	0x00776572
    22e8:	6c6c6543 	cfstr64vs	mvdx6, [ip], #-268	; 0xfffffef4
    22ec:	612f7261 			; <UNDEFINED> instruction: 0x612f7261
    22f0:	6e2d6d72 	mcrvs	13, 1, r6, cr13, cr2, {3}
    22f4:	2d656e6f 	stclcs	14, cr6, [r5, #-444]!	; 0xfffffe44
    22f8:	69626165 	stmdbvs	r2!, {r0, r2, r5, r6, r8, sp, lr}^
    22fc:	392f392d 	stmdbcc	pc!, {r0, r2, r3, r5, r8, fp, ip, sp}	; <UNPREDICTABLE>
    2300:	3130322d 	teqcc	r0, sp, lsr #4
    2304:	2d347139 	ldfcss	f7, [r4, #-228]!	; 0xffffff1c
    2308:	30317363 	eorscc	r7, r1, r3, ror #6
    230c:	6c2f6537 	cfstr32vs	mvfx6, [pc], #-220	; 2238 <__code_start__-0x5dc8>
    2310:	672f6269 	strvs	r6, [pc, -r9, ror #4]!
    2314:	612f6363 			; <UNDEFINED> instruction: 0x612f6363
    2318:	6e2d6d72 	mcrvs	13, 1, r6, cr13, cr2, {3}
    231c:	2d656e6f 	stclcs	14, cr6, [r5, #-444]!	; 0xfffffe44
    2320:	69626165 	stmdbvs	r2!, {r0, r2, r5, r6, r8, sp, lr}^
    2324:	322e392f 	eorcc	r3, lr, #770048	; 0xbc000
    2328:	692f312e 	stmdbvs	pc!, {r1, r2, r3, r5, r8, ip, sp}	; <UNPREDICTABLE>
    232c:	756c636e 	strbvc	r6, [ip, #-878]!	; 0xfffffc92
    2330:	00006564 	andeq	r6, r0, r4, ror #10
    2334:	6f697067 	svcvs	0x00697067
    2338:	0100632e 	tsteq	r0, lr, lsr #6
    233c:	70720000 	rsbsvc	r0, r2, r0
    2340:	00682e69 	rsbeq	r2, r8, r9, ror #28
    2344:	73000002 	movwvc	r0, #2
    2348:	6e696474 	mcrvs	4, 3, r6, cr9, cr4, {3}
    234c:	63672d74 	cmnvs	r7, #116, 26	; 0x1d00
    2350:	00682e63 	rsbeq	r2, r8, r3, ror #28
    2354:	67000003 	strvs	r0, [r0, -r3]
    2358:	2e6f6970 			; <UNDEFINED> instruction: 0x2e6f6970
    235c:	00020068 	andeq	r0, r2, r8, rrx
    2360:	38050000 	stmdacc	r5, {}	; <UNPREDICTABLE>
    2364:	c8020500 	stmdagt	r2, {r8, sl}
    2368:	0300009e 	movweq	r0, #158	; 0x9e
    236c:	05050127 	streq	r0, [r5, #-295]	; 0xfffffed9
    2370:	06070513 			; <UNDEFINED> instruction: 0x06070513
    2374:	06060501 	streq	r0, [r6], -r1, lsl #10
    2378:	15050549 	strne	r0, [r5, #-1353]	; 0xfffffab7
    237c:	01060705 	tsteq	r6, r5, lsl #14
    2380:	052b3805 	streq	r3, [fp, #-2053]!	; 0xfffff7fb
    2384:	05054d07 	streq	r4, [r5, #-3335]	; 0xfffff2f9
    2388:	18053006 	stmdane	r5, {r1, r2, ip, sp}
    238c:	1c050106 	stfnes	f0, [r5], {6}
    2390:	4a0e0567 	bmi	383934 <__bss_end__+0x378b44>
    2394:	052d1805 	streq	r1, [sp, #-2053]!	; 0xfffff7fb
    2398:	2f2e4d12 	svccs	0x002e4d12
    239c:	052a0e05 	streq	r0, [sl, #-3589]!	; 0xfffff1fb
    23a0:	142f0605 	strtne	r0, [pc], #-1541	; 23a8 <__code_start__-0x5c58>
    23a4:	06070513 			; <UNDEFINED> instruction: 0x06070513
    23a8:	06050501 	streq	r0, [r5], -r1, lsl #10
    23ac:	2e06132f 	cdpcs	3, 0, cr1, cr6, cr15, {1}
    23b0:	1301052e 	movwne	r0, #5422	; 0x152e
    23b4:	2e2d0505 	cfsh64cs	mvdx0, mvdx13, #5
    23b8:	00062405 	andeq	r2, r6, r5, lsl #8
    23bc:	9f280205 	svcls	0x00280205
    23c0:	05150000 	ldreq	r0, [r5, #-0]
    23c4:	06051305 	streq	r1, [r5], -r5, lsl #6
    23c8:	05017103 	streq	r7, [r1, #-259]	; 0xfffffefd
    23cc:	07051305 	streq	r1, [r5, -r5, lsl #6]
    23d0:	06050106 	streq	r0, [r5], -r6, lsl #2
    23d4:	05054906 	streq	r4, [r5, #-2310]	; 0xfffff6fa
    23d8:	24051415 	strcs	r1, [r5], #-1045	; 0xfffffbeb
    23dc:	01090306 	tsteq	r9, r6, lsl #6
    23e0:	77031805 	strvc	r1, [r3, -r5, lsl #16]
    23e4:	671c052e 	ldrvs	r0, [ip, -lr, lsr #10]
    23e8:	054a0e05 	strbeq	r0, [sl, #-3589]	; 0xfffff1fb
    23ec:	12052d18 	andne	r2, r5, #24, 26	; 0x600
    23f0:	052f2e4d 	streq	r2, [pc, #-3661]!	; 15ab <__code_start__-0x6a55>
    23f4:	0e052f0f 	cdpeq	15, 0, cr2, cr5, cr15, {0}
    23f8:	06050529 	streq	r0, [r5], -r9, lsr #10
    23fc:	0513142f 	ldreq	r1, [r3, #-1071]	; 0xfffffbd1
    2400:	05010607 	streq	r0, [r1, #-1543]	; 0xfffff9f9
    2404:	132f0605 			; <UNDEFINED> instruction: 0x132f0605
    2408:	01052e06 	tsteq	r5, r6, lsl #28
    240c:	29050533 	stmdbcs	r5, {r0, r1, r4, r5, r8, sl}
    2410:	0627052e 	strteq	r0, [r7], -lr, lsr #10
    2414:	80020500 	andhi	r0, r2, r0, lsl #10
    2418:	1a00009f 	bne	269c <__code_start__-0x5964>
    241c:	05130505 	ldreq	r0, [r3, #-1285]	; 0xfffffafb
    2420:	05110627 	ldreq	r0, [r1, #-1575]	; 0xfffff9d9
    2424:	05052f18 	streq	r2, [r5, #-3864]	; 0xfffff0e8
    2428:	054a2e2e 	strbeq	r2, [sl, #-3630]	; 0xfffff1d2
    242c:	05000628 	streq	r0, [r0, #-1576]	; 0xfffff9d8
    2430:	009f9802 	addseq	r9, pc, r2, lsl #16
    2434:	05051600 	streq	r1, [r5, #-1536]	; 0xfffffa00
    2438:	06280513 			; <UNDEFINED> instruction: 0x06280513
    243c:	2f180511 	svccs	0x00180511
    2440:	2e2e0505 	cfsh64cs	mvdx0, mvdx14, #5
    2444:	0623054a 	strteq	r0, [r3], -sl, asr #10
    2448:	b0020500 	andlt	r0, r2, r0, lsl #10
    244c:	1600009f 			; <UNDEFINED> instruction: 0x1600009f
    2450:	05130505 	ldreq	r0, [r3, #-1285]	; 0xfffffafb
    2454:	01620306 	cmneq	r2, r6, lsl #6
    2458:	05130505 	ldreq	r0, [r3, #-1285]	; 0xfffffafb
    245c:	05010607 	streq	r0, [r1, #-1543]	; 0xfffff9f9
    2460:	05490606 	strbeq	r0, [r9, #-1542]	; 0xfffff9fa
    2464:	13141505 	tstne	r4, #20971520	; 0x1400000
    2468:	03062305 	movweq	r2, #25349	; 0x6305
    246c:	22050117 	andcs	r0, r5, #-1073741819	; 0xc0000005
    2470:	052e6903 	streq	r6, [lr, #-2307]!	; 0xfffff6fd
    2474:	052e821c 	streq	r8, [lr, #-540]!	; 0xfffffde4
    2478:	05052e0e 	streq	r2, [r5, #-3598]	; 0xfffff1f2
    247c:	12053006 	andne	r3, r5, #6, 0
    2480:	2d4b0106 	stfcse	f0, [fp, #-24]	; 0xffffffe8
    2484:	2f060505 	svccs	0x00060505
    2488:	18051313 	stmdane	r5, {r0, r1, r4, r8, r9, ip}
    248c:	017a0306 	cmneq	sl, r6, lsl #6
    2490:	054a0e05 	strbeq	r0, [sl, #-3589]	; 0xfffff1fb
    2494:	052e3405 	streq	r3, [lr, #-1029]!	; 0xfffffbfb
    2498:	2e140301 	cdpcs	3, 1, cr0, cr4, cr1, {0}
    249c:	6c030505 	cfstr32vs	mvfx0, [r3], {5}
    24a0:	2b052e2e 	blcs	14dd60 <__bss_end__+0x142f70>
    24a4:	02050006 	andeq	r0, r5, #6, 0
    24a8:	0000a008 	andeq	sl, r0, r8
    24ac:	05011703 	streq	r1, [r1, #-1795]	; 0xfffff8fd
    24b0:	07051305 	streq	r1, [r5, -r5, lsl #6]
    24b4:	18050106 	stmdane	r5, {r1, r2, r8}
    24b8:	052e7103 	streq	r7, [lr, #-259]!	; 0xfffffefd
    24bc:	2e0e032b 	cdpcs	3, 0, cr0, cr14, cr11, {1}
    24c0:	052f0705 	streq	r0, [pc, #-1797]!	; 1dc3 <__code_start__-0x623d>
    24c4:	052f0609 	streq	r0, [pc, #-1545]!	; 1ec3 <__code_start__-0x613d>
    24c8:	016f030d 	cmneq	pc, sp, lsl #6
    24cc:	06130505 	ldreq	r0, [r3], -r5, lsl #10
    24d0:	052e2e2e 	streq	r2, [lr, #-3630]!	; 0xfffff1d2
    24d4:	12030609 	andne	r0, r3, #9437184	; 0x900000
    24d8:	030d0501 	movweq	r0, #54529	; 0xd501
    24dc:	05050172 	streq	r0, [r5, #-370]	; 0xfffffe8e
    24e0:	2e2e0613 	mcrcs	6, 1, r0, cr14, cr3, {0}
    24e4:	03061d05 	movweq	r1, #27909	; 0x6d05
    24e8:	05056610 	streq	r6, [r5, #-1552]	; 0xfffff9f0
    24ec:	061d0513 			; <UNDEFINED> instruction: 0x061d0513
    24f0:	05052e11 	streq	r2, [r5, #-3601]	; 0xfffff1ef
    24f4:	05133006 	ldreq	r3, [r3, #-6]
    24f8:	0510060e 	ldreq	r0, [r0, #-1550]	; 0xfffff9f2
    24fc:	042e3017 	strteq	r3, [lr], #-23	; 0xffffffe9
    2500:	06300502 	ldrteq	r0, [r0], -r2, lsl #10
    2504:	2e00dd03 	cdpcs	13, 0, cr13, cr0, cr3, {0}
    2508:	0e050104 	adfeqs	f0, f5, f4
    250c:	7fa20306 	svcvc	0x00a20306
    2510:	2f230501 	svccs	0x00230501
    2514:	022f0105 	eoreq	r0, pc, #1073741825	; 0x40000001
    2518:	01010006 	tsteq	r1, r6
    251c:	0000009e 	muleq	r0, lr, r0
    2520:	005a0003 	subseq	r0, sl, r3
    2524:	01020000 	mrseq	r0, (UNDEF: 2)
    2528:	000d0efb 	strdeq	r0, [sp], -fp
    252c:	01010101 	tsteq	r1, r1, lsl #2
    2530:	01000000 	mrseq	r0, (UNDEF: 0)
    2534:	2e010000 	cdpcs	0, 0, cr0, cr1, cr0, {0}
    2538:	62696c2f 	rsbvs	r6, r9, #12032	; 0x2f00
    253c:	552f0063 	strpl	r0, [pc, #-99]!	; 24e1 <__code_start__-0x5b1f>
    2540:	73726573 	cmnvc	r2, #482344960	; 0x1cc00000
    2544:	6c696d2f 	stclvs	13, cr6, [r9], #-188	; 0xffffff44
    2548:	532f7365 			; <UNDEFINED> instruction: 0x532f7365
    254c:	6372756f 	cmnvs	r2, #465567744	; 0x1bc00000
    2550:	73632f65 	cmnvc	r3, #404	; 0x194
    2554:	6c303432 	cfldrsvs	mvf3, [r0], #-200	; 0xffffff38
    2558:	696c2f78 	stmdbvs	ip!, {r3, r4, r5, r6, r8, r9, sl, fp, sp}^
    255c:	2f697062 	svccs	0x00697062
    2560:	6c636e69 	stclvs	14, cr6, [r3], #-420	; 0xfffffe5c
    2564:	00656475 	rsbeq	r6, r5, r5, ror r4
    2568:	74757000 	ldrbtvc	r7, [r5], #-0
    256c:	72616863 	rsbvc	r6, r1, #6488064	; 0x630000
    2570:	0100632e 	tsteq	r0, lr, lsr #6
    2574:	70720000 	rsbsvc	r0, r2, r0
    2578:	00682e69 	rsbeq	r2, r8, r9, ror #28
    257c:	00000002 	andeq	r0, r0, r2
    2580:	05002405 	streq	r2, [r0, #-1029]	; 0xfffffbfb
    2584:	00a06002 	adceq	r6, r0, r2
    2588:	26051400 	strcs	r1, [r5], -r0, lsl #8
    258c:	06240501 	strteq	r0, [r4], -r1, lsl #10
    2590:	26052e01 	strcs	r2, [r5], -r1, lsl #28
    2594:	0634052e 	ldrteq	r0, [r4], -lr, lsr #10
    2598:	0601052e 	streq	r0, [r1], -lr, lsr #10
    259c:	061b0501 	ldreq	r0, [fp], -r1, lsl #10
    25a0:	1305054f 	movwne	r0, #21839	; 0x554f
    25a4:	01061105 	tsteq	r6, r5, lsl #2
    25a8:	05670105 	strbeq	r0, [r7, #-261]!	; 0xfffffefb
    25ac:	05670623 	strbeq	r0, [r7, #-1571]!	; 0xfffff9dd
    25b0:	11051305 	tstne	r5, r5, lsl #6
    25b4:	01050106 	tsteq	r5, r6, lsl #2
    25b8:	0004024b 	andeq	r0, r4, fp, asr #4
    25bc:	00e20101 	rsceq	r0, r2, r1, lsl #2
    25c0:	00030000 	andeq	r0, r3, r0
    25c4:	00000059 	andeq	r0, r0, r9, asr r0
    25c8:	0efb0102 	cdpeq	1, 15, cr0, cr11, cr2, {0}
    25cc:	0101000d 	tsteq	r1, sp
    25d0:	00000101 	andeq	r0, r0, r1, lsl #2
    25d4:	00000100 	andeq	r0, r0, r0, lsl #2
    25d8:	6c2f2e01 	stcvs	14, cr2, [pc], #-4	; 25dc <__code_start__-0x5a24>
    25dc:	00636269 	rsbeq	r6, r3, r9, ror #4
    25e0:	6573552f 	ldrbvs	r5, [r3, #-1327]!	; 0xfffffad1
    25e4:	6d2f7372 	stcvs	3, cr7, [pc, #-456]!	; 2424 <__code_start__-0x5bdc>
    25e8:	73656c69 	cmnvc	r5, #26880	; 0x6900
    25ec:	756f532f 	strbvc	r5, [pc, #-815]!	; 22c5 <__code_start__-0x5d3b>
    25f0:	2f656372 	svccs	0x00656372
    25f4:	34327363 	ldrtcc	r7, [r2], #-867	; 0xfffffc9d
    25f8:	2f786c30 	svccs	0x00786c30
    25fc:	7062696c 	rsbvc	r6, r2, ip, ror #18
    2600:	6e692f69 	cdpvs	15, 6, cr2, cr9, cr9, {3}
    2604:	64756c63 	ldrbtvs	r6, [r5], #-3171	; 0xfffff39d
    2608:	73000065 	movwvc	r0, #101	; 0x65
    260c:	61637274 	smcvs	14116	; 0x3724
    2610:	00632e74 	rsbeq	r2, r3, r4, ror lr
    2614:	72000001 	andvc	r0, r0, #1, 0
    2618:	682e6970 	stmdavs	lr!, {r4, r5, r6, r8, fp, sp, lr}
    261c:	00000200 	andeq	r0, r0, r0, lsl #4
    2620:	002c0500 	eoreq	r0, ip, r0, lsl #10
    2624:	a09c0205 	addsge	r0, ip, r5, lsl #4
    2628:	05150000 	ldreq	r0, [r5, #-0]
    262c:	05131305 	ldreq	r1, [r3, #-773]	; 0xfffffcfb
    2630:	0511060b 	ldreq	r0, [r1, #-1547]	; 0xfffff9f5
    2634:	04020005 	streq	r0, [r2], #-5
    2638:	00300601 	eorseq	r0, r0, r1, lsl #12
    263c:	15010402 	strne	r0, [r1, #-1026]	; 0xfffffbfe
    2640:	02000905 	andeq	r0, r0, #81920	; 0x14000
    2644:	05130104 	ldreq	r0, [r3, #-260]	; 0xfffffefc
    2648:	0402000b 	streq	r0, [r2], #-11
    264c:	05052f01 	streq	r2, [r5, #-3841]	; 0xfffff0ff
    2650:	01040200 	mrseq	r0, R12_usr
    2654:	02000106 	andeq	r0, r0, #-2147483647	; 0x80000001
    2658:	062e0104 	strteq	r0, [lr], -r4, lsl #2
    265c:	0608054e 	streq	r0, [r8], -lr, asr #10
    2660:	00050501 	andeq	r0, r5, r1, lsl #10
    2664:	06010402 	streq	r0, [r1], -r2, lsl #8
    2668:	0009052f 	andeq	r0, r9, pc, lsr #10
    266c:	13010402 	movwne	r0, #5122	; 0x1402
    2670:	02000b05 	andeq	r0, r0, #5120	; 0x1400
    2674:	01060104 	tsteq	r6, r4, lsl #2
    2678:	02000905 	andeq	r0, r0, #81920	; 0x14000
    267c:	2f060104 	svccs	0x00060104
    2680:	02000505 	andeq	r0, r0, #20971520	; 0x1400000
    2684:	13060104 	movwne	r0, #24836	; 0x6104
    2688:	02000f05 	andeq	r0, r0, #5, 30
    268c:	052d0104 	streq	r0, [sp, #-260]!	; 0xfffffefc
    2690:	0402000d 	streq	r0, [r2], #-13
    2694:	052f0601 	streq	r0, [pc, #-1537]!	; 209b <__code_start__-0x5f65>
    2698:	04020005 	streq	r0, [r2], #-5
    269c:	02010601 	andeq	r0, r1, #1048576	; 0x100000
    26a0:	01010004 	tsteq	r1, r4
    26a4:	000000b2 	strheq	r0, [r0], -r2
    26a8:	00590003 	subseq	r0, r9, r3
    26ac:	01020000 	mrseq	r0, (UNDEF: 2)
    26b0:	000d0efb 	strdeq	r0, [sp], -fp
    26b4:	01010101 	tsteq	r1, r1, lsl #2
    26b8:	01000000 	mrseq	r0, (UNDEF: 0)
    26bc:	2e010000 	cdpcs	0, 0, cr0, cr1, cr0, {0}
    26c0:	62696c2f 	rsbvs	r6, r9, #12032	; 0x2f00
    26c4:	552f0063 	strpl	r0, [pc, #-99]!	; 2669 <__code_start__-0x5997>
    26c8:	73726573 	cmnvc	r2, #482344960	; 0x1cc00000
    26cc:	6c696d2f 	stclvs	13, cr6, [r9], #-188	; 0xffffff44
    26d0:	532f7365 			; <UNDEFINED> instruction: 0x532f7365
    26d4:	6372756f 	cmnvs	r2, #465567744	; 0x1bc00000
    26d8:	73632f65 	cmnvc	r3, #404	; 0x194
    26dc:	6c303432 	cfldrsvs	mvf3, [r0], #-200	; 0xffffff38
    26e0:	696c2f78 	stmdbvs	ip!, {r3, r4, r5, r6, r8, r9, sl, fp, sp}^
    26e4:	2f697062 	svccs	0x00697062
    26e8:	6c636e69 	stclvs	14, cr6, [r3], #-420	; 0xfffffe5c
    26ec:	00656475 	rsbeq	r6, r5, r5, ror r4
    26f0:	72747300 	rsbsvc	r7, r4, #0, 6
    26f4:	2e706d63 	cdpcs	13, 7, cr6, cr0, cr3, {3}
    26f8:	00010063 	andeq	r0, r1, r3, rrx
    26fc:	69707200 	ldmdbvs	r0!, {r9, ip, sp, lr}^
    2700:	0200682e 	andeq	r6, r0, #3014656	; 0x2e0000
    2704:	05000000 	streq	r0, [r0, #-0]
    2708:	0205002a 	andeq	r0, r5, #42, 0	; 0x2a
    270c:	0000a0c8 	andeq	sl, r0, r8, asr #1
    2710:	13090514 	movwne	r0, #38164	; 0x9514
    2714:	01061005 	tsteq	r6, r5
    2718:	2e060f05 	cdpcs	15, 0, cr0, cr6, cr5, {0}
    271c:	82061005 	andhi	r1, r6, #5, 0
    2720:	052e0f05 	streq	r0, [lr, #-3845]!	; 0xfffff0fb
    2724:	04020011 	streq	r0, [r2], #-17	; 0xffffffef
    2728:	054b0601 	strbeq	r0, [fp, #-1537]	; 0xfffff9ff
    272c:	0402001c 	streq	r0, [r2], #-28	; 0xffffffe4
    2730:	052d0601 	streq	r0, [sp, #-1537]!	; 0xfffff9ff
    2734:	0402000f 	streq	r0, [r2], #-15
    2738:	052e0601 	streq	r0, [lr, #-1537]!	; 0xfffff9ff
    273c:	04020013 	streq	r0, [r2], #-19	; 0xffffffed
    2740:	05010601 	streq	r0, [r1, #-1537]	; 0xfffff9ff
    2744:	054c0609 	strbeq	r0, [ip, #-1545]	; 0xfffff9f7
    2748:	4a130601 	bmi	4c3f54 <__bss_end__+0x4b9164>
    274c:	2d060905 	vstrcs.16	s0, [r6, #-10]	; <UNPREDICTABLE>
    2750:	13060105 	movwne	r0, #24837	; 0x6105
    2754:	0002022e 	andeq	r0, r2, lr, lsr #4
    2758:	009d0101 	addseq	r0, sp, r1, lsl #2
    275c:	00030000 	andeq	r0, r3, r0
    2760:	00000059 	andeq	r0, r0, r9, asr r0
    2764:	0efb0102 	cdpeq	1, 15, cr0, cr11, cr2, {0}
    2768:	0101000d 	tsteq	r1, sp
    276c:	00000101 	andeq	r0, r0, r1, lsl #2
    2770:	00000100 	andeq	r0, r0, r0, lsl #2
    2774:	6c2f2e01 	stcvs	14, cr2, [pc], #-4	; 2778 <__code_start__-0x5888>
    2778:	00636269 	rsbeq	r6, r3, r9, ror #4
    277c:	6573552f 	ldrbvs	r5, [r3, #-1327]!	; 0xfffffad1
    2780:	6d2f7372 	stcvs	3, cr7, [pc, #-456]!	; 25c0 <__code_start__-0x5a40>
    2784:	73656c69 	cmnvc	r5, #26880	; 0x6900
    2788:	756f532f 	strbvc	r5, [pc, #-815]!	; 2461 <__code_start__-0x5b9f>
    278c:	2f656372 	svccs	0x00656372
    2790:	34327363 	ldrtcc	r7, [r2], #-867	; 0xfffffc9d
    2794:	2f786c30 	svccs	0x00786c30
    2798:	7062696c 	rsbvc	r6, r2, ip, ror #18
    279c:	6e692f69 	cdpvs	15, 6, cr2, cr9, cr9, {3}
    27a0:	64756c63 	ldrbtvs	r6, [r5], #-3171	; 0xfffff39d
    27a4:	73000065 	movwvc	r0, #101	; 0x65
    27a8:	70637274 	rsbvc	r7, r3, r4, ror r2
    27ac:	00632e79 	rsbeq	r2, r3, r9, ror lr
    27b0:	72000001 	andvc	r0, r0, #1, 0
    27b4:	682e6970 	stmdavs	lr!, {r4, r5, r6, r8, fp, sp, lr}
    27b8:	00000200 	andeq	r0, r0, r0, lsl #4
    27bc:	002a0500 	eoreq	r0, sl, r0, lsl #10
    27c0:	a10c0205 	tstge	ip, r5, lsl #4
    27c4:	05140000 	ldreq	r0, [r4, #-0]
    27c8:	05131305 	ldreq	r1, [r3, #-773]	; 0xfffffcfb
    27cc:	04020022 	streq	r0, [r2], #-34	; 0xffffffde
    27d0:	0b052e01 	bleq	14dfdc <__bss_end__+0x1431ec>
    27d4:	01040200 	mrseq	r0, R12_usr
    27d8:	00150501 	andseq	r0, r5, r1, lsl #10
    27dc:	06010402 	streq	r0, [r1], -r2, lsl #8
    27e0:	000b0501 	andeq	r0, fp, r1, lsl #10
    27e4:	2e010402 	cdpcs	4, 0, cr0, cr1, cr2, {0}
    27e8:	02001305 	andeq	r1, r0, #335544320	; 0x14000000
    27ec:	052e0104 	streq	r0, [lr, #-260]!	; 0xfffffefc
    27f0:	0402000b 	streq	r0, [r2], #-11
    27f4:	04022e01 	streq	r2, [r2], #-3585	; 0xfffff1ff
    27f8:	fd010100 	stc2	1, cr0, [r1, #-0]
    27fc:	03000000 	movweq	r0, #0
    2800:	0000bf00 	andeq	fp, r0, r0, lsl #30
    2804:	fb010200 	blx	4300e <__bss_end__+0x3821e>
    2808:	01000d0e 	tsteq	r0, lr, lsl #26
    280c:	00010101 	andeq	r0, r1, r1, lsl #2
    2810:	00010000 	andeq	r0, r1, r0
    2814:	2f2e0100 	svccs	0x002e0100
    2818:	6362696c 	cmnvs	r2, #108, 18	; 0x1b0000
    281c:	73552f00 	cmpvc	r5, #0, 30
    2820:	2f737265 	svccs	0x00737265
    2824:	656c696d 	strbvs	r6, [ip, #-2413]!	; 0xfffff693
    2828:	6f532f73 	svcvs	0x00532f73
    282c:	65637275 	strbvs	r7, [r3, #-629]!	; 0xfffffd8b
    2830:	3273632f 	rsbscc	r6, r3, #-1140850688	; 0xbc000000
    2834:	786c3034 	stmdavc	ip!, {r2, r4, r5, ip, sp}^
    2838:	62696c2f 	rsbvs	r6, r9, #12032	; 0x2f00
    283c:	692f6970 	stmdbvs	pc!, {r4, r5, r6, r8, fp, sp, lr}	; <UNPREDICTABLE>
    2840:	756c636e 	strbvc	r6, [ip, #-878]!	; 0xfffffc92
    2844:	2f006564 	svccs	0x00006564
    2848:	2f74706f 	svccs	0x0074706f
    284c:	656d6f68 	strbvs	r6, [sp, #-3944]!	; 0xfffff098
    2850:	77657262 	strbvc	r7, [r5, -r2, ror #4]!
    2854:	6c65432f 	stclvs	3, cr4, [r5], #-188	; 0xffffff44
    2858:	2f72616c 	svccs	0x0072616c
    285c:	2d6d7261 	sfmcs	f7, 2, [sp, #-388]!	; 0xfffffe7c
    2860:	656e6f6e 	strbvs	r6, [lr, #-3950]!	; 0xfffff092
    2864:	6261652d 	rsbvs	r6, r1, #188743680	; 0xb400000
    2868:	2f392d69 	svccs	0x00392d69
    286c:	30322d39 	eorscc	r2, r2, r9, lsr sp
    2870:	34713931 	ldrbtcc	r3, [r1], #-2353	; 0xfffff6cf
    2874:	3173632d 	cmncc	r3, sp, lsr #6
    2878:	2f653730 	svccs	0x00653730
    287c:	2f62696c 	svccs	0x0062696c
    2880:	2f636367 	svccs	0x00636367
    2884:	2d6d7261 	sfmcs	f7, 2, [sp, #-388]!	; 0xfffffe7c
    2888:	656e6f6e 	strbvs	r6, [lr, #-3950]!	; 0xfffff092
    288c:	6261652d 	rsbvs	r6, r1, #188743680	; 0xb400000
    2890:	2e392f69 	cdpcs	15, 3, cr2, cr9, cr9, {3}
    2894:	2f312e32 	svccs	0x00312e32
    2898:	6c636e69 	stclvs	14, cr6, [r3], #-420	; 0xfffffe5c
    289c:	00656475 	rsbeq	r6, r5, r5, ror r4
    28a0:	72747300 	rsbsvc	r7, r4, #0, 6
    28a4:	706d636e 	rsbvc	r6, sp, lr, ror #6
    28a8:	0100632e 	tsteq	r0, lr, lsr #6
    28ac:	70720000 	rsbsvc	r0, r2, r0
    28b0:	00682e69 	rsbeq	r2, r8, r9, ror #28
    28b4:	73000002 	movwvc	r0, #2
    28b8:	65646474 	strbvs	r6, [r4, #-1140]!	; 0xfffffb8c
    28bc:	00682e66 	rsbeq	r2, r8, r6, ror #28
    28c0:	00000003 	andeq	r0, r0, r3
    28c4:	05003905 	streq	r3, [r0, #-2309]	; 0xfffff6fb
    28c8:	00a12402 	adceq	r2, r1, r2, lsl #8
    28cc:	05051500 	streq	r1, [r5, #-1280]	; 0xfffffb00
    28d0:	0a051313 	beq	147524 <__bss_end__+0x13c734>
    28d4:	0c052e06 	stceq	14, cr2, [r5], {6}
    28d8:	2e13052f 	cfmul64cs	mvdx0, mvdx3, mvdx15
    28dc:	052e0b05 	streq	r0, [lr, #-2821]!	; 0xfffff4fb
    28e0:	054a0609 	strbeq	r0, [sl, #-1545]	; 0xfffff9f7
    28e4:	0106110a 	tsteq	r6, sl, lsl #2
    28e8:	054e0c05 	strbeq	r0, [lr, #-3077]	; 0xfffff3fb
    28ec:	0d052f01 	stceq	15, cr2, [r5, #-4]
    28f0:	1b052b06 	blne	14d510 <__bss_end__+0x142720>
    28f4:	022e0106 	eoreq	r0, lr, #-2147483647	; 0x80000001
    28f8:	01010002 	tsteq	r1, r2
    28fc:	0000008a 	andeq	r0, r0, sl, lsl #1
    2900:	006e0003 	rsbeq	r0, lr, r3
    2904:	01020000 	mrseq	r0, (UNDEF: 2)
    2908:	000d0efb 	strdeq	r0, [sp], -fp
    290c:	01010101 	tsteq	r1, r1, lsl #2
    2910:	01000000 	mrseq	r0, (UNDEF: 0)
    2914:	2e010000 	cdpcs	0, 0, cr0, cr1, cr0, {0}
    2918:	6174732f 	cmnvs	r4, pc, lsr #6
    291c:	732d6666 			; <UNDEFINED> instruction: 0x732d6666
    2920:	2f006372 	svccs	0x00006372
    2924:	72657355 	rsbvc	r7, r5, #1409286145	; 0x54000001
    2928:	696d2f73 	stmdbvs	sp!, {r0, r1, r4, r5, r6, r8, r9, sl, fp, sp}^
    292c:	2f73656c 	svccs	0x0073656c
    2930:	72756f53 	rsbsvc	r6, r5, #332	; 0x14c
    2934:	632f6563 			; <UNDEFINED> instruction: 0x632f6563
    2938:	30343273 	eorscc	r3, r4, r3, ror r2
    293c:	6c2f786c 	stcvs	8, cr7, [pc], #-432	; 2794 <__code_start__-0x586c>
    2940:	69706269 	ldmdbvs	r0!, {r0, r3, r5, r6, r9, sp, lr}^
    2944:	636e692f 	cmnvs	lr, #770048	; 0xbc000
    2948:	6564756c 	strbvs	r7, [r4, #-1388]!	; 0xfffffa94
    294c:	65640000 	strbvs	r0, [r4, #-0]!
    2950:	6c756166 	ldfvse	f6, [r5], #-408	; 0xfffffe68
    2954:	65722d74 	ldrbvs	r2, [r2, #-3444]!	; 0xfffff28c
    2958:	746f6f62 	strbtvc	r6, [pc], #-3938	; 2960 <__code_start__-0x56a0>
    295c:	6c61632d 	stclvs	3, cr6, [r1], #-180	; 0xffffff4c
    2960:	74756f6c 	ldrbtvc	r6, [r5], #-3948	; 0xfffff094
    2964:	0100632e 	tsteq	r0, lr, lsr #6
    2968:	70720000 	rsbsvc	r0, r2, r0
    296c:	00682e69 	rsbeq	r2, r8, r9, ror #28
    2970:	00000002 	andeq	r0, r0, r2
    2974:	05001b05 	streq	r1, [r0, #-2821]	; 0xfffff4fb
    2978:	00a15402 	adceq	r5, r1, r2, lsl #8
    297c:	1c051400 	cfstrsne	mvf1, [r5], {-0}
    2980:	06010501 	streq	r0, [r1], -r1, lsl #10
    2984:	00020201 	andeq	r0, r2, r1, lsl #4
    2988:	Address 0x0000000000002988 is out of bounds.


Disassembly of section .debug_str:

00000000 <.debug_str>:
   0:	63656863 	cmnvs	r5, #6488064	; 0x630000
   4:	68735f6b 	ldmdavs	r3!, {r0, r1, r3, r5, r6, r8, r9, sl, fp, ip, lr}^
   8:	646c756f 	strbtvs	r7, [ip], #-1391	; 0xfffffa91
   c:	61656c5f 	cmnvs	r5, pc, asr ip
  10:	656e006b 	strbvs	r0, [lr, #-107]!	; 0xffffff95
  14:	73007478 	movwvc	r7, #1144	; 0x478
  18:	6c5f6372 	mrrcvs	3, 7, r6, pc, cr2	; <UNPREDICTABLE>
  1c:	6d5f636f 	ldclvs	3, cr6, [pc, #-444]	; fffffe68 <__bss_end__+0xffff5078>
  20:	696c006b 	stmdbvs	ip!, {r0, r1, r3, r5, r6}^
  24:	6f6e656e 	svcvs	0x006e656e
  28:	746f6e00 	strbtvc	r6, [pc], #-3584	; 30 <__code_start__-0x7fd0>
  2c:	6e69616d 	powvsez	f6, f1, #5.0
  30:	65686300 	strbvs	r6, [r8, #-768]!	; 0xfffffd00
  34:	6e5f6b63 	vnmlavs.f64	d22, d15, d19
  38:	656c5f6f 	strbvs	r5, [ip, #-3951]!	; 0xfffff091
  3c:	66006b61 	strvs	r6, [r0], -r1, ror #22
  40:	00656c69 	rsbeq	r6, r5, r9, ror #24
  44:	69736e75 	ldmdbvs	r3!, {r0, r2, r4, r5, r6, r9, sl, fp, sp, lr}^
  48:	64656e67 	strbtvs	r6, [r5], #-3687	; 0xfffff199
  4c:	61686320 	cmnvs	r8, r0, lsr #6
  50:	6c630072 	stclvs	0, cr0, [r3], #-456	; 0xfffffe38
  54:	5f6e6165 	svcpl	0x006e6165
  58:	6f626572 	svcvs	0x00626572
  5c:	7300746f 	movwvc	r7, #1135	; 0x46f
  60:	74726f68 	ldrbtvc	r6, [r2], #-3944	; 0xfffff098
  64:	736e7520 	cmnvc	lr, #32, 10	; 0x8000000
  68:	656e6769 	strbvs	r6, [lr, #-1897]!	; 0xfffff897
  6c:	6e692064 	cdpvs	0, 6, cr2, cr9, cr4, {3}
  70:	6b630074 	blvs	18c0248 <__bss_end__+0x18b5458>
  74:	0063675f 	rsbeq	r6, r3, pc, asr r7
  78:	736d656d 	cmnvc	sp, #457179136	; 0x1b400000
  7c:	66007465 	strvs	r7, [r0], -r5, ror #8
  80:	00636e75 	rsbeq	r6, r3, r5, ror lr
  84:	55465f5f 	strbpl	r5, [r6, #-3935]	; 0xfffff0a1
  88:	4954434e 	ldmdbmi	r4, {r1, r2, r3, r6, r8, r9, lr}^
  8c:	5f5f4e4f 	svcpl	0x005f4e4f
  90:	616b6300 	cmnvs	fp, r0, lsl #6
  94:	636f6c6c 	cmnvs	pc, #108, 24	; 0x6c00
  98:	73657400 	cmnvc	r5, #0, 8
  9c:	6f6c0074 	svcvs	0x006c0074
  a0:	6c20676e 	stcvs	7, cr6, [r0], #-440	; 0xfffffe48
  a4:	20676e6f 	rsbcs	r6, r7, pc, ror #28
  a8:	69736e75 	ldmdbvs	r3!, {r0, r2, r4, r5, r6, r9, sl, fp, sp, lr}^
  ac:	64656e67 	strbtvs	r6, [r5], #-3687	; 0xfffff199
  b0:	746e6920 	strbtvc	r6, [lr], #-2336	; 0xfffff6e0
  b4:	6e6f6c00 	cdpvs	12, 6, cr6, cr15, cr0, {0}
  b8:	6f6c2067 	svcvs	0x006c2067
  bc:	6920676e 	stmdbvs	r0!, {r1, r2, r3, r5, r6, r8, r9, sl, sp, lr}
  c0:	2f00746e 	svccs	0x0000746e
  c4:	72657355 	rsbvc	r7, r5, #1409286145	; 0x54000001
  c8:	696d2f73 	stmdbvs	sp!, {r0, r1, r4, r5, r6, r8, r9, sl, fp, sp}^
  cc:	2f73656c 	svccs	0x0073656c
  d0:	72756f53 	rsbsvc	r6, r5, #332	; 0x14c
  d4:	632f6563 			; <UNDEFINED> instruction: 0x632f6563
  d8:	30343273 	eorscc	r3, r4, r3, ror r2
  dc:	6c2f786c 	stcvs	8, cr7, [pc], #-432	; ffffff34 <__bss_end__+0xffff5144>
  e0:	2f736261 	svccs	0x00736261
  e4:	616d2d35 	cmnvs	sp, r5, lsr sp
  e8:	636f6c6c 	cmnvs	pc, #108, 24	; 0x6c00
  ec:	2f63672b 	svccs	0x0063672b
  f0:	65646f63 	strbvs	r6, [r4, #-3939]!	; 0xfffff09d
  f4:	6f687300 	svcvs	0x00687300
  f8:	69207472 	stmdbvs	r0!, {r1, r4, r5, r6, sl, ip, sp, lr}
  fc:	7300746e 	movwvc	r7, #1134	; 0x46e
 100:	6c5f6372 	mrrcvs	3, 7, r6, pc, cr2	; <UNPREDICTABLE>
 104:	745f636f 	ldrbvc	r6, [pc], #-879	; 10c <__code_start__-0x7ef4>
 108:	69707200 	ldmdbvs	r0!, {r9, ip, sp, lr}^
 10c:	7475705f 	ldrbtvc	r7, [r5], #-95	; 0xffffffa1
 110:	72616863 	rsbvc	r6, r1, #6488064	; 0x630000
 114:	554e4700 	strbpl	r4, [lr, #-1792]	; 0xfffff900
 118:	39394320 	ldmdbcc	r9!, {r5, r8, r9, lr}
 11c:	322e3920 	eorcc	r3, lr, #32, 18	; 0x80000
 120:	3220312e 	eorcc	r3, r0, #-2147483637	; 0x8000000b
 124:	31393130 	teqcc	r9, r0, lsr r1
 128:	20353230 	eorscs	r3, r5, r0, lsr r2
 12c:	6c657228 	sfmvs	f7, 2, [r5], #-160	; 0xffffff60
 130:	65736165 	ldrbvs	r6, [r3, #-357]!	; 0xfffffe9b
 134:	415b2029 	cmpmi	fp, r9, lsr #32
 138:	612f4d52 			; <UNDEFINED> instruction: 0x612f4d52
 13c:	392d6d72 	pushcc	{r1, r4, r5, r6, r8, sl, fp, sp, lr}
 140:	6172622d 	cmnvs	r2, sp, lsr #4
 144:	2068636e 	rsbcs	r6, r8, lr, ror #6
 148:	69766572 	ldmdbvs	r6!, {r1, r4, r5, r6, r8, sl, sp, lr}^
 14c:	6e6f6973 			; <UNDEFINED> instruction: 0x6e6f6973
 150:	37373220 	ldrcc	r3, [r7, -r0, lsr #4]!
 154:	5d393935 			; <UNDEFINED> instruction: 0x5d393935
 158:	636d2d20 	cmnvs	sp, #32, 26	; 0x800
 15c:	613d7570 	teqvs	sp, r0, ror r5
 160:	31316d72 	teqcc	r1, r2, ror sp
 164:	7a6a3637 	bvc	1a8da48 <__bss_end__+0x1a82c58>
 168:	20732d66 	rsbscs	r2, r3, r6, ror #26
 16c:	75746d2d 	ldrbvc	r6, [r4, #-3373]!	; 0xfffff2d3
 170:	613d656e 	teqvs	sp, lr, ror #10
 174:	31316d72 	teqcc	r1, r2, ror sp
 178:	7a6a3637 	bvc	1a8da5c <__bss_end__+0x1a82c6c>
 17c:	20732d66 	rsbscs	r2, r3, r6, ror #26
 180:	6c666d2d 	stclvs	13, cr6, [r6], #-180	; 0xffffff4c
 184:	2d74616f 	ldfcse	f6, [r4, #-444]!	; 0xfffffe44
 188:	3d696261 	sfmcc	f6, 2, [r9, #-388]!	; 0xfffffe7c
 18c:	74666f73 	strbtvc	r6, [r6], #-3955	; 0xfffff08d
 190:	616d2d20 	cmnvs	sp, r0, lsr #26
 194:	2d206d72 	stccs	13, cr6, [r0, #-456]!	; 0xfffffe38
 198:	6372616d 	cmnvs	r2, #1073741851	; 0x4000001b
 19c:	72613d68 	rsbvc	r3, r1, #104, 26	; 0x1a00
 1a0:	6b36766d 	blvs	d9db5c <__bss_end__+0xd92d6c>
 1a4:	672d207a 			; <UNDEFINED> instruction: 0x672d207a
 1a8:	20626467 	rsbcs	r6, r2, r7, ror #8
 1ac:	20674f2d 	rsbcs	r4, r7, sp, lsr #30
 1b0:	6474732d 	ldrbtvs	r7, [r4], #-813	; 0xfffffcd3
 1b4:	756e673d 	strbvc	r6, [lr, #-1853]!	; 0xfffff8c3
 1b8:	2d203939 			; <UNDEFINED> instruction: 0x2d203939
 1bc:	65726666 	ldrbvs	r6, [r2, #-1638]!	; 0xfffff99a
 1c0:	61747365 	cmnvs	r4, r5, ror #6
 1c4:	6e69646e 	cdpvs	4, 6, cr6, cr9, cr14, {3}
 1c8:	65740067 	ldrbvs	r0, [r4, #-103]!	; 0xffffff99
 1cc:	2f737473 	svccs	0x00737473
 1d0:	74726170 	ldrbtvc	r6, [r2], #-368	; 0xfffffe90
 1d4:	65742d32 	ldrbvs	r2, [r4, #-3378]!	; 0xfffff2ce
 1d8:	2e357473 	mrccs	4, 1, r7, cr5, cr3, {3}
 1dc:	72700063 	rsbsvc	r0, r0, #99, 0	; 0x63
 1e0:	63007665 	movwvs	r7, #1637	; 0x665
 1e4:	74705f6b 	ldrbtvc	r5, [r0], #-3947	; 0xfffff095
 1e8:	6e695f72 	mcrvs	15, 3, r5, cr9, cr2, {3}
 1ec:	6f6c625f 	svcvs	0x006c625f
 1f0:	68006b63 	stmdavs	r0, {r0, r1, r5, r6, r8, r9, fp, sp, lr}
 1f4:	745f7264 	ldrbvc	r7, [pc], #-612	; 1fc <__code_start__-0x7e04>
 1f8:	45524600 	ldrbmi	r4, [r2, #-1536]	; 0xfffffa00
 1fc:	72004445 	andvc	r4, r0, #1157627904	; 0x45000000
 200:	5f736665 	svcpl	0x00736665
 204:	6464696d 	strbtvs	r6, [r4], #-2413	; 0xfffff693
 208:	6b00656c 	blvs	197c0 <__bss_end__+0xe9d0>
 20c:	72665f72 	rsbvc	r5, r6, #456	; 0x1c8
 210:	63006565 	movwvs	r6, #1381	; 0x565
 214:	69665f6b 	stmdbvs	r6!, {r0, r1, r3, r5, r6, r8, r9, sl, fp, ip, lr}^
 218:	5f747372 	svcpl	0x00747372
 21c:	00726468 	rsbseq	r6, r2, r8, ror #8
 220:	72666b63 	rsbvc	r6, r6, #101376	; 0x18c00
 224:	61006565 	tstvs	r0, r5, ror #10
 228:	636f6c6c 	cmnvs	pc, #108, 24	; 0x6c00
 22c:	73696c5f 	cmnvc	r9, #24320	; 0x5f00
 230:	696c0074 	stmdbvs	ip!, {r2, r4, r5, r6}^
 234:	725f7473 	subsvc	r7, pc, #1929379840	; 0x73000000
 238:	766f6d65 	strbtvc	r6, [pc], -r5, ror #26
 23c:	6b630065 	blvs	18c03d8 <__bss_end__+0x18b55e8>
 240:	7264685f 	rsbvc	r6, r4, #6225920	; 0x5f0000
 244:	6c6c6100 	stfvse	f6, [ip], #-0
 248:	6c5f636f 	mrrcvs	3, 6, r6, pc, cr15	; <UNPREDICTABLE>
 24c:	7300636f 	movwvc	r6, #879	; 0x36f
 250:	65746174 	ldrbvs	r6, [r4, #-372]!	; 0xfffffe8c
 254:	66657200 	strbtvs	r7, [r5], -r0, lsl #4
 258:	74735f73 	ldrbtvc	r5, [r3], #-3955	; 0xfffff08d
 25c:	00747261 	rsbseq	r7, r4, r1, ror #4
 260:	746e6975 	strbtvc	r6, [lr], #-2421	; 0xfffff68b
 264:	745f3233 	ldrbvc	r3, [pc], #-563	; 26c <__code_start__-0x7d94>
 268:	6e697500 	cdpvs	5, 6, cr7, cr9, cr0, {0}
 26c:	5f363174 	svcpl	0x00363174
 270:	6b630074 	blvs	18c0448 <__bss_end__+0x18b5658>
 274:	7274705f 	rsbsvc	r7, r4, #95, 0	; 0x5f
 278:	5f73695f 	svcpl	0x0073695f
 27c:	6f6c6c61 	svcvs	0x006c6c61
 280:	00646563 	rsbeq	r6, r4, r3, ror #10
 284:	6e5f6b63 	vnmlavs.f64	d22, d15, d19
 288:	5f747865 	svcpl	0x00747865
 28c:	00726468 	rsbseq	r6, r2, r8, ror #8
 290:	6c616b63 			; <UNDEFINED> instruction: 0x6c616b63
 294:	2e636f6c 	cdpcs	15, 6, cr6, cr3, cr12, {3}
 298:	4c410063 	mcrrmi	0, 6, r0, r1, cr3
 29c:	45434f4c 	strbmi	r4, [r3, #-3916]	; 0xfffff0b4
 2a0:	626e0044 	rsbvs	r0, lr, #68, 0	; 0x44
 2a4:	73657479 	cmnvc	r5, #2030043136	; 0x79000000
 2a8:	6c6c615f 	stfvse	f6, [ip], #-380	; 0xfffffe84
 2ac:	6300636f 	movwvs	r6, #879	; 0x36f
 2b0:	64685f6b 	strbtvs	r5, [r8], #-3947	; 0xfffff095
 2b4:	74735f72 	ldrbtvc	r5, [r3], #-3954	; 0xfffff08e
 2b8:	00747261 	rsbseq	r7, r4, r1, ror #4
 2bc:	685f6b63 	ldmdavs	pc, {r0, r1, r5, r6, r8, r9, fp, sp, lr}^	; <UNPREDICTABLE>
 2c0:	655f7264 	ldrbvs	r7, [pc, #-612]	; 64 <__code_start__-0x7f9c>
 2c4:	6300646e 	movwvs	r6, #1134	; 0x46e
 2c8:	626e5f6b 	rsbvs	r5, lr, #428	; 0x1ac
 2cc:	73657479 	cmnvc	r5, #2030043136	; 0x79000000
 2d0:	5f726b00 	svcpl	0x00726b00
 2d4:	6c6c616d 	stfvse	f6, [ip], #-436	; 0xfffffe4c
 2d8:	6800636f 	stmdavs	r0, {r0, r1, r2, r3, r5, r6, r8, r9, sp, lr}
 2dc:	65646165 	strbvs	r6, [r4, #-357]!	; 0xfffffe9b
 2e0:	72700072 	rsbsvc	r0, r0, #114, 0	; 0x72
 2e4:	00707665 	rsbseq	r7, r0, r5, ror #12
 2e8:	67696c61 	strbvs	r6, [r9, -r1, ror #24]!
 2ec:	7266006e 	rsbvc	r0, r6, #110, 0	; 0x6e
 2f0:	00706565 	rsbseq	r6, r0, r5, ror #10
 2f4:	696e756e 	stmdbvs	lr!, {r1, r2, r3, r5, r6, r8, sl, ip, sp, lr}^
 2f8:	6b007374 	blvs	1d0d0 <__bss_end__+0x122e0>
 2fc:	616d2d72 	smcvs	53970	; 0xd2d2
 300:	636f6c6c 	cmnvs	pc, #108, 24	; 0x6c00
 304:	6400632e 	strvs	r6, [r0], #-814	; 0xfffffcd2
 308:	6c62756f 	cfstr64vs	mvdx7, [r2], #-444	; 0xfffffe44
 30c:	61620065 	cmnvs	r2, r5, rrx
 310:	73006573 	movwvc	r6, #1395	; 0x573
 314:	006b7262 	rsbeq	r7, fp, r2, ror #4
 318:	65726f6d 	ldrbvs	r6, [r2, #-3949]!	; 0xfffff093
 31c:	65726f63 	ldrbvs	r6, [r2, #-3939]!	; 0xfffff09d
 320:	7a697300 	bvc	1a5cf28 <__bss_end__+0x1a52138>
 324:	65480065 	strbvs	r0, [r8, #-101]	; 0xffffff9b
 328:	72656461 	rsbvc	r6, r5, #1627389952	; 0x61000000
 32c:	61747300 	cmnvs	r4, r0, lsl #6
 330:	745f6b63 	ldrbvc	r6, [pc], #-2915	; 338 <__code_start__-0x7cc8>
 334:	6d00706f 	stcvs	0, cr7, [r0, #-444]	; 0xfffffe44
 338:	5f6b7261 	svcpl	0x006b7261
 33c:	006c6c61 	rsbeq	r6, ip, r1, ror #24
 340:	6c706d69 	ldclvs	13, cr6, [r0], #-420	; 0xfffffe5c
 344:	6e656d65 	cdpvs	13, 6, cr6, cr5, cr5, {3}
 348:	68745f74 	ldmdavs	r4!, {r2, r4, r5, r6, r8, r9, sl, fp, ip, lr}^
 34c:	5f007369 	svcpl	0x00007369
 350:	7373625f 	cmnvc	r3, #-268435451	; 0xf0000005
 354:	6174735f 	cmnvs	r4, pc, asr r3
 358:	5f5f7472 	svcpl	0x005f7472
 35c:	6c626e00 	stclvs	14, cr6, [r2], #-0
 360:	736b636f 	cmnvc	fp, #-1140850687	; 0xbc000001
 364:	696e6900 	stmdbvs	lr!, {r8, fp, sp, lr}^
 368:	00705f74 	rsbseq	r5, r0, r4, ror pc
 36c:	7479626e 	ldrbtvc	r6, [r9], #-622	; 0xfffffd92
 370:	665f7365 	ldrbvs	r7, [pc], -r5, ror #6
 374:	64656572 	strbtvs	r6, [r5], #-1394	; 0xfffffa8e
 378:	646c6f00 	strbtvs	r6, [ip], #-3840	; 0xfffff100
 37c:	72616d5f 	rsbvc	r6, r1, #6080	; 0x17c0
 380:	6b63006b 	blvs	18c0534 <__bss_end__+0x18b5744>
 384:	6e69665f 	mcrvs	6, 3, r6, cr9, cr15, {2}
 388:	656c5f64 	strbvs	r5, [ip, #-3940]!	; 0xfffff09c
 38c:	00736b61 	rsbseq	r6, r3, r1, ror #22
 390:	6279616d 	rsbsvs	r6, r9, #1073741851	; 0x4000001b
 394:	72655f65 	rsbvc	r5, r5, #404	; 0x194
 398:	73726f72 	cmnvc	r2, #456	; 0x1c8
 39c:	6d756400 	cfldrdvs	mvd6, [r5, #-0]
 3a0:	65725f70 	ldrbvs	r5, [r2, #-3952]!	; 0xfffff090
 3a4:	6e007367 	cdpvs	3, 0, cr7, cr0, cr7, {3}
 3a8:	6b61656c 	blvs	1859960 <__bss_end__+0x184eb70>
 3ac:	6e690073 	mcrvs	0, 3, r0, cr9, cr3, {3}
 3b0:	6d657263 	sfmvs	f7, 2, [r5, #-396]!	; 0xfffffe74
 3b4:	00746e65 	rsbseq	r6, r4, r5, ror #28
 3b8:	61645f5f 	cmnvs	r4, pc, asr pc
 3bc:	655f6174 	ldrbvs	r6, [pc, #-372]	; 250 <__code_start__-0x7db0>
 3c0:	5f5f646e 	svcpl	0x005f646e
 3c4:	5f736900 	svcpl	0x00736900
 3c8:	00727470 	rsbseq	r7, r2, r0, ror r4
 3cc:	6572666e 	ldrbvs	r6, [r2, #-1646]!	; 0xfffff992
 3d0:	69006465 	stmdbvs	r0, {r0, r2, r5, r6, sl, sp, lr}
 3d4:	65685f6e 	strbvs	r5, [r8, #-3950]!	; 0xfffff092
 3d8:	6f007061 	svcvs	0x00007061
 3dc:	626d656e 	rsbvs	r6, sp, #461373440	; 0x1b800000
 3e0:	2d6b6300 	stclcs	3, cr6, [fp, #-0]
 3e4:	632e6367 			; <UNDEFINED> instruction: 0x632e6367
 3e8:	625f5f00 	subsvs	r5, pc, #0, 30
 3ec:	655f7373 	ldrbvs	r7, [pc, #-883]	; 81 <__code_start__-0x7f7f>
 3f0:	5f5f646e 	svcpl	0x005f646e
 3f4:	616d6b00 	cmnvs	sp, r0, lsl #22
 3f8:	636f6c6c 	cmnvs	pc, #108, 24	; 0x6c00
 3fc:	616d6b00 	cmnvs	sp, r0, lsl #22
 400:	636f6c6c 	cmnvs	pc, #108, 24	; 0x6c00
 404:	696e695f 	stmdbvs	lr!, {r0, r1, r2, r3, r4, r6, r8, fp, sp, lr}^
 408:	65735f74 	ldrbvs	r5, [r3, #-3956]!	; 0xfffff08c
 40c:	74735f74 	ldrbtvc	r5, [r3], #-3956	; 0xfffff08c
 410:	00747261 	rsbseq	r7, r4, r1, ror #4
 414:	65657773 	strbvs	r7, [r5, #-1907]!	; 0xfffff88d
 418:	656c5f70 	strbvs	r5, [ip, #-3952]!	; 0xfffff090
 41c:	5f006b61 	svcpl	0x00006b61
 420:	7461645f 	strbtvc	r6, [r1], #-1119	; 0xfffffba1
 424:	74735f61 	ldrbtvc	r5, [r3], #-3937	; 0xfffff09f
 428:	5f747261 	svcpl	0x00747261
 42c:	7773005f 			; <UNDEFINED> instruction: 0x7773005f
 430:	5f706565 	svcpl	0x00706565
 434:	65657266 	strbvs	r7, [r5, #-614]!	; 0xfffffd9a
 438:	72617700 	rsbvc	r7, r1, #0, 14
 43c:	6f6e5f6e 	svcvs	0x006e5f6e
 440:	6174735f 	cmnvs	r4, pc, asr r3
 444:	725f7472 	subsvc	r7, pc, #1912602624	; 0x72000000
 448:	705f6665 	subsvc	r6, pc, r5, ror #12
 44c:	7a697300 	bvc	1a5d054 <__bss_end__+0x1a52264>
 450:	00745f65 	rsbseq	r5, r4, r5, ror #30
 454:	696c2f2e 	stmdbvs	ip!, {r1, r2, r3, r5, r8, r9, sl, fp, sp}^
 458:	6d2f6362 	stcvs	3, cr6, [pc, #-392]!	; 2d8 <__code_start__-0x7d28>
 45c:	65736d65 	ldrbvs	r6, [r3, #-3429]!	; 0xfffff29b
 460:	00632e74 	rsbeq	r2, r3, r4, ror lr
 464:	20554e47 	subscs	r4, r5, r7, asr #28
 468:	20393943 	eorscs	r3, r9, r3, asr #18
 46c:	2e322e39 	mrccs	14, 1, r2, cr2, cr9, {1}
 470:	30322031 	eorscc	r2, r2, r1, lsr r0
 474:	30313931 	eorscc	r3, r1, r1, lsr r9
 478:	28203532 	stmdacs	r0!, {r1, r4, r5, r8, sl, ip, sp}
 47c:	656c6572 	strbvs	r6, [ip, #-1394]!	; 0xfffffa8e
 480:	29657361 	stmdbcs	r5!, {r0, r5, r6, r8, r9, ip, sp, lr}^
 484:	52415b20 	subpl	r5, r1, #32, 22	; 0x8000
 488:	72612f4d 	rsbvc	r2, r1, #308	; 0x134
 48c:	2d392d6d 	ldccs	13, cr2, [r9, #-436]!	; 0xfffffe4c
 490:	6e617262 	cdpvs	2, 6, cr7, cr1, cr2, {3}
 494:	72206863 	eorvc	r6, r0, #6488064	; 0x630000
 498:	73697665 	cmnvc	r9, #105906176	; 0x6500000
 49c:	206e6f69 	rsbcs	r6, lr, r9, ror #30
 4a0:	35373732 	ldrcc	r3, [r7, #-1842]!	; 0xfffff8ce
 4a4:	205d3939 	subscs	r3, sp, r9, lsr r9
 4a8:	70636d2d 	rsbvc	r6, r3, sp, lsr #26
 4ac:	72613d75 	rsbvc	r3, r1, #7488	; 0x1d40
 4b0:	3731316d 	ldrcc	r3, [r1, -sp, ror #2]!
 4b4:	667a6a36 			; <UNDEFINED> instruction: 0x667a6a36
 4b8:	2d20732d 	stccs	3, cr7, [r0, #-180]!	; 0xffffff4c
 4bc:	6e75746d 	cdpvs	4, 7, cr7, cr5, cr13, {3}
 4c0:	72613d65 	rsbvc	r3, r1, #6464	; 0x1940
 4c4:	3731316d 	ldrcc	r3, [r1, -sp, ror #2]!
 4c8:	667a6a36 			; <UNDEFINED> instruction: 0x667a6a36
 4cc:	2d20732d 	stccs	3, cr7, [r0, #-180]!	; 0xffffff4c
 4d0:	6f6c666d 	svcvs	0x006c666d
 4d4:	612d7461 			; <UNDEFINED> instruction: 0x612d7461
 4d8:	733d6962 	teqvc	sp, #1605632	; 0x188000
 4dc:	2074666f 	rsbscs	r6, r4, pc, ror #12
 4e0:	72616d2d 	rsbvc	r6, r1, #2880	; 0xb40
 4e4:	6d2d206d 	stcvs	0, cr2, [sp, #-436]!	; 0xfffffe4c
 4e8:	68637261 	stmdavs	r3!, {r0, r5, r6, r9, ip, sp, lr}^
 4ec:	6d72613d 	ldfvse	f6, [r2, #-244]!	; 0xffffff0c
 4f0:	7a6b3676 	bvc	1acded0 <__bss_end__+0x1ac30e0>
 4f4:	67672d20 	strbvs	r2, [r7, -r0, lsr #26]!
 4f8:	2d206264 	sfmcs	f6, 4, [r0, #-400]!	; 0xfffffe70
 4fc:	7361664f 	cmnvc	r1, #82837504	; 0x4f00000
 500:	732d2074 			; <UNDEFINED> instruction: 0x732d2074
 504:	673d6474 			; <UNDEFINED> instruction: 0x673d6474
 508:	3939756e 	ldmdbcc	r9!, {r1, r2, r3, r5, r6, r8, sl, ip, sp, lr}
 50c:	66662d20 	strbtvs	r2, [r6], -r0, lsr #26
 510:	73656572 	cmnvc	r5, #478150656	; 0x1c800000
 514:	646e6174 	strbtvs	r6, [lr], #-372	; 0xfffffe8c
 518:	00676e69 	rsbeq	r6, r7, r9, ror #28
 51c:	6573552f 	ldrbvs	r5, [r3, #-1327]!	; 0xfffffad1
 520:	6d2f7372 	stcvs	3, cr7, [pc, #-456]!	; 360 <__code_start__-0x7ca0>
 524:	73656c69 	cmnvc	r5, #26880	; 0x6900
 528:	756f532f 	strbvc	r5, [pc, #-815]!	; 201 <__code_start__-0x7dff>
 52c:	2f656372 	svccs	0x00656372
 530:	34327363 	ldrtcc	r7, [r2], #-867	; 0xfffffc9d
 534:	2f786c30 	svccs	0x00786c30
 538:	7062696c 	rsbvc	r6, r2, ip, ror #18
 53c:	72610069 	rsbvc	r0, r1, #105, 0	; 0x69
 540:	76007367 	strvc	r7, [r0], -r7, ror #6
 544:	72705f61 	rsbsvc	r5, r0, #388	; 0x184
 548:	6b746e69 	blvs	1d1bef4 <__bss_end__+0x1d11104>
 54c:	675f5f00 	ldrbvs	r5, [pc, -r0, lsl #30]
 550:	5f63756e 	svcpl	0x0063756e
 554:	6c5f6176 	ldfvse	f6, [pc], {118}	; 0x76
 558:	00747369 	rsbseq	r7, r4, r9, ror #6
 55c:	70615f5f 	rsbvc	r5, r1, pc, asr pc
 560:	6c2f2e00 	stcvs	14, cr2, [pc], #-0	; 568 <__code_start__-0x7a98>
 564:	2f636269 	svccs	0x00636269
 568:	6e697270 	mcrvs	2, 3, r7, cr9, cr0, {3}
 56c:	632e6b74 			; <UNDEFINED> instruction: 0x632e6b74
 570:	765f5f00 	ldrbvc	r5, [pc], -r0, lsl #30
 574:	696c5f61 	stmdbvs	ip!, {r0, r5, r6, r8, r9, sl, fp, ip, lr}^
 578:	69007473 	stmdbvs	r0, {r0, r1, r4, r5, r6, sl, ip, sp, lr}
 57c:	7265746e 	rsbvc	r7, r5, #1845493760	; 0x6e000000
 580:	5f6c616e 	svcpl	0x006c616e
 584:	6b747570 	blvs	1d1db4c <__bss_end__+0x1d12d5c>
 588:	6c2f2e00 	stcvs	14, cr2, [pc], #-0	; 590 <__code_start__-0x7a70>
 58c:	2f636269 	svccs	0x00636269
 590:	6b747570 	blvs	1d1db58 <__bss_end__+0x1d12d68>
 594:	6900632e 	stmdbvs	r0, {r1, r2, r3, r5, r8, r9, sp, lr}
 598:	67696473 			; <UNDEFINED> instruction: 0x67696473
 59c:	75007469 	strvc	r7, [r0, #-1129]	; 0xfffffb97
 5a0:	36746e69 	ldrbtcc	r6, [r4], -r9, ror #28
 5a4:	00745f34 	rsbseq	r5, r4, r4, lsr pc
 5a8:	696c2f2e 	stmdbvs	ip!, {r1, r2, r3, r5, r8, r9, sl, fp, sp}^
 5ac:	762f6362 	strtvc	r6, [pc], -r2, ror #6
 5b0:	72702d61 	rsbsvc	r2, r0, #6208	; 0x1840
 5b4:	6b746e69 	blvs	1d1bf60 <__bss_end__+0x1d11170>
 5b8:	5f00632e 	svcpl	0x0000632e
 5bc:	646f635f 	strbtvs	r6, [pc], #-863	; 5c4 <__code_start__-0x7a3c>
 5c0:	74735f65 	ldrbtvc	r5, [r3], #-3941	; 0xfffff09b
 5c4:	5f747261 	svcpl	0x00747261
 5c8:	6977005f 	ldmdbvs	r7!, {r0, r1, r2, r3, r4, r6}^
 5cc:	00687464 	rsbeq	r7, r8, r4, ror #8
 5d0:	63747570 	cmnvs	r4, #112, 10	; 0x1c000000
 5d4:	0070665f 	rsbseq	r6, r0, pc, asr r6
 5d8:	65685f5f 	strbvs	r5, [r8, #-3935]!	; 0xfffff0a1
 5dc:	735f7061 	cmpvc	pc, #97, 0	; 0x61
 5e0:	74726174 	ldrbtvc	r6, [r2], #-372	; 0xfffffe8c
 5e4:	72005f5f 	andvc	r5, r0, #380	; 0x17c
 5e8:	735f6970 	cmpvc	pc, #112, 18	; 0x1c0000
 5ec:	6f5f7465 	svcvs	0x005f7465
 5f0:	75707475 	ldrbvc	r7, [r0, #-1141]!	; 0xfffffb8b
 5f4:	6d660074 	stclvs	0, cr0, [r6, #-464]!	; 0xfffffe30
 5f8:	74735f74 	ldrbtvc	r5, [r3], #-3956	; 0xfffff08c
 5fc:	00747261 	rsbseq	r7, r4, r1, ror #4
 600:	63727473 	cmnvs	r2, #1929379840	; 0x73000000
 604:	73007461 	movwvc	r7, #1121	; 0x461
 608:	70637274 	rsbvc	r7, r3, r4, ror r2
 60c:	656e0079 	strbvs	r0, [lr, #-121]!	; 0xffffff87
 610:	00705f67 	rsbseq	r5, r0, r7, ror #30
 614:	6f635f5f 	svcvs	0x00635f5f
 618:	655f6564 	ldrbvs	r6, [pc, #-1380]	; bc <__code_start__-0x7f44>
 61c:	5f5f646e 	svcpl	0x005f646e
 620:	696d6500 	stmdbvs	sp!, {r8, sl, sp, lr}^
 624:	65720074 	ldrbvs	r0, [r2, #-116]!	; 0xffffff8c
 628:	73726576 	cmnvc	r2, #494927872	; 0x1d800000
 62c:	74730065 	ldrbtvc	r0, [r3], #-101	; 0xffffff9b
 630:	706d6372 	rsbvc	r6, sp, r2, ror r3
 634:	74757000 	ldrbtvc	r7, [r5], #-0
 638:	70665f73 	rsbvc	r5, r6, r3, ror pc
 63c:	705f5f00 	subsvc	r5, pc, r0, lsl #30
 640:	5f676f72 	svcpl	0x00676f72
 644:	5f646e65 	svcpl	0x00646e65
 648:	756e005f 	strbvc	r0, [lr, #-95]!	; 0xffffffa1
 64c:	7300316d 	movwvc	r3, #365	; 0x16d
 650:	636e7274 	cmnvs	lr, #116, 4	; 0x40000007
 654:	7300706d 	movwvc	r7, #109	; 0x6d
 658:	656e6769 	strbvs	r6, [lr, #-1897]!	; 0xfffff897
 65c:	00705f64 	rsbseq	r5, r0, r4, ror #30
 660:	5f697072 	svcpl	0x00697072
 664:	6f626572 	svcvs	0x00626572
 668:	6400746f 	strvs	r7, [r0], #-1135	; 0xfffffb91
 66c:	79616c65 	stmdbvc	r1!, {r0, r2, r5, r6, sl, fp, sp, lr}^
 670:	00736d5f 	rsbseq	r6, r3, pc, asr sp
 674:	74732f2e 	ldrbtvc	r2, [r3], #-3886	; 0xfffff0d2
 678:	2d666661 	stclcs	6, cr6, [r6, #-388]!	; 0xfffffe7c
 67c:	2f637273 	svccs	0x00637273
 680:	61656c63 	cmnvs	r5, r3, ror #24
 684:	65722d6e 	ldrbvs	r2, [r2, #-3438]!	; 0xfffff292
 688:	746f6f62 	strbtvc	r6, [pc], #-3938	; 690 <__code_start__-0x7970>
 68c:	7500632e 	strvc	r6, [r0, #-814]	; 0xfffffcd2
 690:	5f747261 	svcpl	0x00747261
 694:	73756c66 	cmnvc	r5, #26112	; 0x6600
 698:	78745f68 	ldmdavc	r4!, {r3, r5, r6, r8, r9, sl, fp, ip, lr}^
 69c:	73635f00 	cmnvc	r3, #0, 30
 6a0:	74726174 	ldrbtvc	r6, [r2], #-372	; 0xfffffe8c
 6a4:	73736200 	cmnvc	r3, #0, 4
 6a8:	646e655f 	strbtvs	r6, [lr], #-1375	; 0xfffffaa1
 6ac:	72617500 	rsbvc	r7, r1, #0, 10
 6b0:	6e695f74 	mcrvs	15, 3, r5, cr9, cr4, {3}
 6b4:	63007469 	movwvs	r7, #1129	; 0x469
 6b8:	6f747375 	svcvs	0x00747375
 6bc:	6f6c5f6d 	svcvs	0x006c5f6d
 6c0:	72656461 	rsbvc	r6, r5, #1627389952	; 0x61000000
 6c4:	732f2e00 			; <UNDEFINED> instruction: 0x732f2e00
 6c8:	66666174 			; <UNDEFINED> instruction: 0x66666174
 6cc:	6372732d 	cmnvs	r2, #-1275068416	; 0xb4000000
 6d0:	7473632f 	ldrbtvc	r6, [r3], #-815	; 0xfffffcd1
 6d4:	2e747261 	cdpcs	2, 7, cr7, cr4, cr1, {3}
 6d8:	2f2e0063 	svccs	0x002e0063
 6dc:	66617473 			; <UNDEFINED> instruction: 0x66617473
 6e0:	72732d66 	rsbsvc	r2, r3, #6528	; 0x1980
 6e4:	75632f63 	strbvc	r2, [r3, #-3939]!	; 0xfffff09d
 6e8:	6d6f7473 	cfstrdvs	mvd7, [pc, #-460]!	; 524 <__code_start__-0x7adc>
 6ec:	616f6c2d 	cmnvs	pc, sp, lsr #24
 6f0:	2e726564 	cdpcs	5, 7, cr6, cr2, cr4, {3}
 6f4:	65720063 	ldrbvs	r0, [r2, #-99]!	; 0xffffff9d
 6f8:	746f6f62 	strbtvc	r6, [pc], #-3938	; 700 <__code_start__-0x7900>
 6fc:	6c61635f 	stclvs	3, cr6, [r1], #-380	; 0xfffffe84
 700:	74756f6c 	ldrbtvc	r6, [r5], #-3948	; 0xfffff094
 704:	5f4d5000 	svcpl	0x004d5000
 708:	474f4457 	smlsldmi	r4, pc, r7, r4	; <UNPREDICTABLE>
 70c:	54555000 	ldrbpl	r5, [r5], #-0
 710:	73003233 	movwvc	r3, #563	; 0x233
 714:	755f7465 	ldrbvc	r7, [pc, #-1125]	; 2b7 <__code_start__-0x7d49>
 718:	5f726573 	svcpl	0x00726573
 71c:	6576656c 	ldrbvs	r6, [r6, #-1388]!	; 0xfffffa94
 720:	2f2e006c 	svccs	0x002e006c
 724:	66617473 			; <UNDEFINED> instruction: 0x66617473
 728:	72732d66 	rsbsvc	r2, r3, #6528	; 0x1980
 72c:	65722f63 	ldrbvs	r2, [r2, #-3939]!	; 0xfffff09d
 730:	746f6f62 	strbtvc	r6, [pc], #-3938	; 738 <__code_start__-0x78c8>
 734:	5000632e 	andpl	r6, r0, lr, lsr #6
 738:	41505f4d 	cmpmi	r0, sp, asr #30
 73c:	4f575353 	svcmi	0x00575353
 740:	61004452 	tstvs	r0, r2, asr r4
 744:	73755f74 	cmnvc	r5, #116, 30	; 0x1d0
 748:	6c5f7265 	lfmvs	f7, 2, [pc], {101}	; 0x65
 74c:	6c657665 	stclvs	6, cr7, [r5], #-404	; 0xfffffe6c
 750:	5f4d5000 	svcpl	0x004d5000
 754:	43545352 	cmpmi	r4, #1207959553	; 0x48000001
 758:	4352575f 	cmpmi	r2, #24903680	; 0x17c0000
 75c:	465f4746 	ldrbmi	r4, [pc], -r6, asr #14
 760:	5f4c4c55 	svcpl	0x004c4c55
 764:	45534552 	ldrbmi	r4, [r3, #-1362]	; 0xfffffaae
 768:	4d500054 	ldclmi	0, cr0, [r0, #-336]	; 0xfffffeb0
 76c:	5453525f 	ldrbpl	r5, [r3], #-607	; 0xfffffda1
 770:	70630043 	rsbvc	r0, r3, r3, asr #32
 774:	64007273 	strvs	r7, [r0], #-627	; 0xfffffd8d
 778:	625f7665 	subsvs	r7, pc, #105906176	; 0x6500000
 77c:	69727261 	ldmdbvs	r2!, {r0, r5, r6, r9, ip, sp, lr}^
 780:	64007265 	strvs	r7, [r0], #-613	; 0xfffffd9b
 784:	79616c65 	stmdbvc	r1!, {r0, r2, r5, r6, sl, fp, sp, lr}^
 788:	6365735f 	cmnvs	r5, #2080374785	; 0x7c000001
 78c:	732f2e00 			; <UNDEFINED> instruction: 0x732f2e00
 790:	66666174 			; <UNDEFINED> instruction: 0x66666174
 794:	6372732d 	cmnvs	r2, #-1275068416	; 0xb4000000
 798:	6d69742f 	cfstrdvs	mvd7, [r9, #-188]!	; 0xffffff44
 79c:	632e7265 			; <UNDEFINED> instruction: 0x632e7265
 7a0:	54454700 	strbpl	r4, [r5], #-1792	; 0xfffff900
 7a4:	74003233 	strvc	r3, [r0], #-563	; 0xfffffdcd
 7a8:	72656d69 	rsbvc	r6, r5, #6720	; 0x1a40
 7ac:	7465675f 	strbtvc	r6, [r5], #-1887	; 0xfffff8a1
 7b0:	6573755f 	ldrbvs	r7, [r3, #-1375]!	; 0xfffffaa1
 7b4:	65640063 	strbvs	r0, [r4, #-99]!	; 0xffffff9d
 7b8:	5f79616c 	svcpl	0x0079616c
 7bc:	74007375 	strvc	r7, [r0], #-885	; 0xfffffc8b
 7c0:	72656d69 	rsbvc	r6, r5, #6720	; 0x1a40
 7c4:	7465675f 	strbtvc	r6, [r5], #-1887	; 0xfffff8a1
 7c8:	6573755f 	ldrbvs	r7, [r3, #-1375]!	; 0xfffffaa1
 7cc:	61725f63 	cmnvs	r2, r3, ror #30
 7d0:	75700077 	ldrbvc	r0, [r0, #-119]!	; 0xffffff89
 7d4:	00323374 	eorseq	r3, r2, r4, ror r3
 7d8:	64756162 	ldrbtvs	r6, [r5], #-354	; 0xfffffe9e
 7dc:	6c61765f 	stclvs	6, cr7, [r1], #-380	; 0xfffffe84
 7e0:	61747300 	cmnvs	r4, r0, lsl #6
 7e4:	61750074 	cmnvs	r5, r4, ror r0
 7e8:	635f7472 	cmpvs	pc, #1912602624	; 0x72000000
 7ec:	675f6e61 	ldrbvs	r6, [pc, -r1, ror #28]
 7f0:	00637465 	rsbeq	r7, r3, r5, ror #8
 7f4:	4f495047 	svcmi	0x00495047
 7f8:	4e55465f 	mrcmi	6, 2, r4, cr5, cr15, {2}
 7fc:	554f5f43 	strbpl	r5, [pc, #-3907]	; fffff8c1 <__bss_end__+0xffff4ad1>
 800:	54555054 	ldrbpl	r5, [r5], #-84	; 0xffffffac
 804:	78756100 	ldmdavc	r5!, {r8, sp, lr}^
 808:	7265705f 	rsbvc	r7, r5, #95, 0	; 0x5f
 80c:	73687069 	cmnvc	r8, #105, 0	; 0x69
 810:	72617500 	rsbvc	r7, r1, #0, 10
 814:	00632e74 	rsbeq	r2, r3, r4, ror lr
 818:	74726175 	ldrbtvc	r6, [r2], #-373	; 0xfffffe8b
 81c:	6e61635f 	mcrvs	3, 3, r6, cr1, cr15, {2}
 820:	7475705f 	ldrbtvc	r7, [r5], #-95	; 0xffffffa1
 824:	61750063 	cmnvs	r5, r3, rrx
 828:	745f7472 	ldrbvc	r7, [pc], #-1138	; 830 <__code_start__-0x77d0>
 82c:	73695f78 	cmnvc	r9, #120, 30	; 0x1e0
 830:	706d655f 	rsbvc	r6, sp, pc, asr r5
 834:	47007974 	smlsdxmi	r0, r4, r9, r7
 838:	5f4f4950 	svcpl	0x004f4950
 83c:	434e5546 	movtmi	r5, #58694	; 0xe546
 840:	544c415f 	strbpl	r4, [ip], #-351	; 0xfffffea1
 844:	50470030 	subpl	r0, r7, r0, lsr r0
 848:	465f4f49 	ldrbmi	r4, [pc], -r9, asr #30
 84c:	5f434e55 	svcpl	0x00434e55
 850:	31544c41 	cmpcc	r4, r1, asr #24
 854:	49504700 	ldmdbmi	r0, {r8, r9, sl, lr}^
 858:	55465f4f 	strbpl	r5, [r6, #-3919]	; 0xfffff0b1
 85c:	415f434e 	cmpmi	pc, lr, asr #6
 860:	0032544c 	eorseq	r5, r2, ip, asr #8
 864:	4f495047 	svcmi	0x00495047
 868:	4e55465f 	mrcmi	6, 2, r4, cr5, cr15, {2}
 86c:	4c415f43 	mcrrmi	15, 4, r5, r1, cr3
 870:	47003354 	smlsdmi	r0, r4, r3, r3
 874:	5f4f4950 	svcpl	0x004f4950
 878:	434e5546 	movtmi	r5, #58694	; 0xe546
 87c:	544c415f 	strbpl	r4, [ip], #-351	; 0xfffffea1
 880:	682f0035 	stmdavs	pc!, {r0, r2, r4, r5}	; <UNPREDICTABLE>
 884:	2f656d6f 	svccs	0x00656d6f
 888:	6c676e65 	stclvs	14, cr6, [r7], #-404	; 0xfffffe6c
 88c:	632f7265 			; <UNDEFINED> instruction: 0x632f7265
 890:	7373616c 	cmnvc	r3, #27
 894:	3273632f 	rsbscc	r6, r3, #-1140850688	; 0xbc000000
 898:	786c3034 	stmdavc	ip!, {r2, r4, r5, ip, sp}^
 89c:	7332322d 	teqvc	r2, #-805306366	; 0xd0000002
 8a0:	6c2f7270 	sfmvs	f7, 4, [pc], #-448	; 6e8 <__code_start__-0x7918>
 8a4:	69706269 	ldmdbvs	r0!, {r0, r3, r5, r6, r9, sp, lr}^
 8a8:	6174732f 	cmnvs	r4, pc, lsr #6
 8ac:	702d6666 	eorvc	r6, sp, r6, ror #12
 8b0:	61766972 	cmnvs	r6, r2, ror r9
 8b4:	62006574 	andvs	r6, r0, #116, 10	; 0x1d000000
 8b8:	00647561 	rsbeq	r7, r4, r1, ror #10
 8bc:	5f787561 	svcpl	0x00787561
 8c0:	62616e65 	rsbvs	r6, r1, #1616	; 0x650
 8c4:	0073656c 	rsbseq	r6, r3, ip, ror #10
 8c8:	74726175 	ldrbtvc	r6, [r2], #-373	; 0xfffffe8b
 8cc:	7465675f 	strbtvc	r6, [r5], #-1887	; 0xfffff8a1
 8d0:	4e470063 	cdpmi	0, 4, cr0, cr7, cr3, {3}
 8d4:	39432055 	stmdbcc	r3, {r0, r2, r4, r6, sp}^
 8d8:	30312039 	eorscc	r2, r1, r9, lsr r0
 8dc:	312e332e 			; <UNDEFINED> instruction: 0x312e332e
 8e0:	32303220 	eorscc	r3, r0, #32, 4
 8e4:	32383031 	eorscc	r3, r8, #49, 0	; 0x31
 8e8:	72282034 	eorvc	r2, r8, #52, 0	; 0x34
 8ec:	61656c65 	cmnvs	r5, r5, ror #24
 8f0:	20296573 	eorcs	r6, r9, r3, ror r5
 8f4:	70636d2d 	rsbvc	r6, r3, sp, lsr #26
 8f8:	72613d75 	rsbvc	r3, r1, #7488	; 0x1d40
 8fc:	3731316d 	ldrcc	r3, [r1, -sp, ror #2]!
 900:	667a6a36 			; <UNDEFINED> instruction: 0x667a6a36
 904:	2d20732d 	stccs	3, cr7, [r0, #-180]!	; 0xffffff4c
 908:	6e75746d 	cdpvs	4, 7, cr7, cr5, cr13, {3}
 90c:	72613d65 	rsbvc	r3, r1, #6464	; 0x1940
 910:	3731316d 	ldrcc	r3, [r1, -sp, ror #2]!
 914:	667a6a36 			; <UNDEFINED> instruction: 0x667a6a36
 918:	2d20732d 	stccs	3, cr7, [r0, #-180]!	; 0xffffff4c
 91c:	6f6c666d 	svcvs	0x006c666d
 920:	612d7461 			; <UNDEFINED> instruction: 0x612d7461
 924:	733d6962 	teqvc	sp, #1605632	; 0x188000
 928:	2074666f 	rsbscs	r6, r4, pc, ror #12
 92c:	72616d2d 	rsbvc	r6, r1, #2880	; 0xb40
 930:	6d2d206d 	stcvs	0, cr2, [sp, #-436]!	; 0xfffffe4c
 934:	68637261 	stmdavs	r3!, {r0, r5, r6, r9, ip, sp, lr}^
 938:	6d72613d 	ldfvse	f6, [r2, #-244]!	; 0xffffff0c
 93c:	7a6b3676 	bvc	1ace31c <__bss_end__+0x1ac352c>
 940:	67672d20 	strbvs	r2, [r7, -r0, lsr #26]!
 944:	2d206264 	sfmcs	f6, 4, [r0, #-400]!	; 0xfffffe70
 948:	2d20674f 	stccs	7, cr6, [r0, #-316]!	; 0xfffffec4
 94c:	3d647473 	cfstrdcc	mvd7, [r4, #-460]!	; 0xfffffe34
 950:	39756e67 	ldmdbcc	r5!, {r0, r1, r2, r5, r6, r9, sl, fp, sp, lr}^
 954:	662d2039 			; <UNDEFINED> instruction: 0x662d2039
 958:	65657266 	strbvs	r7, [r5, #-614]!	; 0xfffffd9a
 95c:	6e617473 	mcrvs	4, 3, r7, cr1, cr3, {3}
 960:	676e6964 	strbvs	r6, [lr, -r4, ror #18]!
 964:	746e6300 	strbtvc	r6, [lr], #-768	; 0xfffffd00
 968:	6175006c 	cmnvs	r5, ip, rrx
 96c:	645f7472 	ldrbvs	r7, [pc], #-1138	; 974 <__code_start__-0x768c>
 970:	62617369 	rsbvs	r7, r1, #-1543503871	; 0xa4000001
 974:	7500656c 	strvc	r6, [r0, #-1388]	; 0xfffffa94
 978:	5f747261 	svcpl	0x00747261
 97c:	5f736168 	svcpl	0x00736168
 980:	61746164 	cmnvs	r4, r4, ror #2
 984:	49504700 	ldmdbmi	r0, {r8, r9, sl, lr}^
 988:	55465f4f 	strbpl	r5, [r6, #-3919]	; 0xfffff0b1
 98c:	415f434e 	cmpmi	pc, lr, asr #6
 990:	0034544c 	eorseq	r5, r4, ip, asr #8
 994:	695f726f 	ldmdbvs	pc, {r0, r1, r2, r3, r5, r6, r9, ip, sp, lr}^	; <UNPREDICTABLE>
 998:	0032336e 	eorseq	r3, r2, lr, ror #6
 99c:	61726373 	cmnvs	r2, r3, ror r3
 9a0:	00686374 	rsbeq	r6, r8, r4, ror r3
 9a4:	74726175 	ldrbtvc	r6, [r2], #-373	; 0xfffffe8b
 9a8:	646e6100 	strbtvs	r6, [lr], #-256	; 0xffffff00
 9ac:	336e695f 	cmncc	lr, #1556480	; 0x17c000
 9b0:	61750032 	cmnvs	r5, r2, lsr r0
 9b4:	705f7472 	subsvc	r7, pc, r2, ror r4	; <UNPREDICTABLE>
 9b8:	00637475 	rsbeq	r7, r3, r5, ror r4
 9bc:	4f495047 	svcmi	0x00495047
 9c0:	4e55465f 	mrcmi	6, 2, r4, cr5, cr15, {2}
 9c4:	4e495f43 	cdpmi	15, 4, cr5, cr9, cr3, {2}
 9c8:	00545550 	subseq	r5, r4, r0, asr r5
 9cc:	6f697067 	svcvs	0x00697067
 9d0:	7465735f 	strbtvc	r7, [r5], #-863	; 0xfffffca1
 9d4:	6e75665f 	mrcvs	6, 3, r6, cr5, cr15, {2}
 9d8:	6f697463 	svcvs	0x00697463
 9dc:	6567006e 	strbvs	r0, [r7, #-110]!	; 0xffffff92
 9e0:	00323374 	eorseq	r3, r2, r4, ror r3
 9e4:	6c616d6b 	stclvs	13, cr6, [r1], #-428	; 0xfffffe54
 9e8:	5f636f6c 	svcpl	0x00636f6c
 9ec:	70616568 	rsbvc	r6, r1, r8, ror #10
 9f0:	6174735f 	cmnvs	r4, pc, asr r3
 9f4:	6d007472 	cfstrsvs	mvf7, [r0, #-456]	; 0xfffffe38
 9f8:	6e5f7861 	cdpvs	8, 5, cr7, cr15, cr1, {3}
 9fc:	65747962 	ldrbvs	r7, [r4, #-2402]!	; 0xfffff69e
 a00:	615f0073 	cmpvs	pc, r3, ror r0	; <UNPREDICTABLE>
 a04:	00726464 	rsbseq	r6, r2, r4, ror #8
 a08:	70616568 	rsbvc	r6, r1, r8, ror #10
 a0c:	78616d5f 	stmdavc	r1!, {r0, r1, r2, r3, r4, r6, r8, sl, fp, sp, lr}^
 a10:	72666b00 	rsbvc	r6, r6, #0, 22
 a14:	615f6565 	cmpvs	pc, r5, ror #10
 a18:	72006c6c 	andvc	r6, r0, #108, 24	; 0x6c00
 a1c:	646e756f 	strbtvs	r7, [lr], #-1391	; 0xfffffa91
 a20:	6b007075 	blvs	1cbfc <__bss_end__+0x11e0c>
 a24:	65657266 	strbvs	r7, [r5, #-614]!	; 0xfffffd9a
 a28:	706f705f 	rsbvc	r7, pc, pc, asr r0	; <UNPREDICTABLE>
 a2c:	696c6100 	stmdbvs	ip!, {r8, sp, lr}^
 a30:	656d6e67 	strbvs	r6, [sp, #-3687]!	; 0xfffff199
 a34:	6d00746e 	cfstrsvs	mvf7, [r0, #-440]	; 0xfffffe48
 a38:	755f7861 	ldrbvc	r7, [pc, #-2145]	; 1df <__code_start__-0x7e21>
 a3c:	4f003233 	svcmi	0x00003233
 a40:	424d656e 	submi	r6, sp, #461373440	; 0x1b800000
 a44:	616d6b00 	cmnvs	sp, r0, lsl #22
 a48:	636f6c6c 	cmnvs	pc, #108, 24	; 0x6c00
 a4c:	6165685f 	cmnvs	r5, pc, asr r8
 a50:	6e655f70 	mcrvs	15, 3, r5, cr5, cr0, {3}
 a54:	6d6b0064 	stclvs	0, cr0, [fp, #-400]!	; 0xfffffe70
 a58:	6f6c6c61 	svcvs	0x006c6c61
 a5c:	6f6e5f63 	svcvs	0x006e5f63
 a60:	72657a74 	rsbvc	r7, r5, #116, 20	; 0x74000
 a64:	7369006f 	cmnvc	r9, #111, 0	; 0x6f
 a68:	776f705f 			; <UNDEFINED> instruction: 0x776f705f
 a6c:	6d6b0032 	stclvs	0, cr0, [fp, #-200]!	; 0xffffff38
 a70:	6f6c6c61 	svcvs	0x006c6c61
 a74:	00632e63 	rsbeq	r2, r3, r3, ror #28
 a78:	6c616d6b 	stclvs	13, cr6, [r1], #-428	; 0xfffffe54
 a7c:	5f636f6c 	svcpl	0x00636f6c
 a80:	74696e69 	strbtvc	r6, [r9], #-3689	; 0xfffff197
 a84:	5f736900 	svcpl	0x00736900
 a88:	67696c61 	strbvs	r6, [r9, -r1, ror #24]!
 a8c:	0064656e 	rsbeq	r6, r4, lr, ror #10
 a90:	6c616d6b 	stclvs	13, cr6, [r1], #-428	; 0xfffffe54
 a94:	5f636f6c 	svcpl	0x00636f6c
 a98:	70616568 	rsbvc	r6, r1, r8, ror #10
 a9c:	7274705f 	rsbsvc	r7, r4, #95, 0	; 0x5f
 aa0:	69707200 	ldmdbvs	r0!, {r9, ip, sp, lr}^
 aa4:	7365725f 	cmnvc	r5, #-268435451	; 0xf0000005
 aa8:	705f7465 	subsvc	r7, pc, r5, ror #8
 aac:	00637475 	rsbeq	r7, r3, r5, ror r4
 ab0:	6c616d6b 	stclvs	13, cr6, [r1], #-428	; 0xfffffe54
 ab4:	5f636f6c 	svcpl	0x00636f6c
 ab8:	67696c61 	strbvs	r6, [r9, -r1, ror #24]!
 abc:	0064656e 	rsbeq	r6, r4, lr, ror #10
 ac0:	6f697067 	svcvs	0x00697067
 ac4:	726c635f 	rsbvc	r6, ip, #2080374785	; 0x7c000001
 ac8:	70670030 	rsbvc	r0, r7, r0, lsr r0
 acc:	735f6f69 	cmpvc	pc, #420	; 0x1a4
 ad0:	00307465 	eorseq	r7, r0, r5, ror #8
 ad4:	6f697067 	svcvs	0x00697067
 ad8:	6972775f 	ldmdbvs	r2!, {r0, r1, r2, r3, r4, r6, r8, r9, sl, ip, sp, lr}^
 adc:	44006574 	strmi	r6, [r0], #-1396	; 0xfffffa8c
 ae0:	565f5645 	ldrbpl	r5, [pc], -r5, asr #12
 ae4:	32334c41 	eorscc	r4, r3, #16640	; 0x4100
 ae8:	69706700 	ldmdbvs	r0!, {r8, r9, sl, sp, lr}^
 aec:	65725f6f 	ldrbvs	r5, [r2, #-3951]!	; 0xfffff091
 af0:	2e006461 	cdpcs	4, 0, cr6, cr0, cr1, {3}
 af4:	6372732f 	cmnvs	r2, #-1140850688	; 0xbc000000
 af8:	6970672f 	ldmdbvs	r0!, {r0, r1, r2, r3, r5, r8, r9, sl, sp, lr}^
 afc:	00632e6f 	rsbeq	r2, r3, pc, ror #28
 b00:	6f697067 	svcvs	0x00697067
 b04:	7465735f 	strbtvc	r7, [r5], #-863	; 0xfffffca1
 b08:	706e695f 	rsbvc	r6, lr, pc, asr r9
 b0c:	67007475 	smlsdxvs	r0, r5, r4, r7
 b10:	5f6f6970 	svcpl	0x006f6970
 b14:	5f746573 	svcpl	0x00746573
 b18:	0066666f 	rsbeq	r6, r6, pc, ror #12
 b1c:	6f697067 	svcvs	0x00697067
 b20:	7465735f 	strbtvc	r7, [r5], #-863	; 0xfffffca1
 b24:	74756f5f 	ldrbtvc	r6, [r5], #-3935	; 0xfffff0a1
 b28:	00747570 	rsbseq	r7, r4, r0, ror r5
 b2c:	6f697067 	svcvs	0x00697067
 b30:	6e75665f 	mrcvs	6, 3, r6, cr5, cr15, {2}
 b34:	00745f63 	rsbseq	r5, r4, r3, ror #30
 b38:	6f697067 	svcvs	0x00697067
 b3c:	76656c5f 			; <UNDEFINED> instruction: 0x76656c5f
 b40:	61620030 	cmnvs	r2, r0, lsr r0
 b44:	67006b6e 	strvs	r6, [r0, -lr, ror #22]
 b48:	5f6f6970 	svcpl	0x006f6970
 b4c:	5f746573 	svcpl	0x00746573
 b50:	69006e6f 	stmdbvs	r0, {r0, r1, r2, r3, r5, r6, r9, sl, fp, sp, lr}
 b54:	7265746e 	rsbvc	r7, r5, #1845493760	; 0x6e000000
 b58:	5f6c616e 	svcpl	0x006c616e
 b5c:	63747570 	cmnvs	r4, #112, 10	; 0x1c000000
 b60:	00726168 	rsbseq	r6, r2, r8, ror #2
 b64:	5f697072 	svcpl	0x00697072
 b68:	5f746573 	svcpl	0x00746573
 b6c:	63747570 	cmnvs	r4, #112, 10	; 0x1c000000
 b70:	6c2f2e00 	stcvs	14, cr2, [pc], #-0	; b78 <__code_start__-0x7488>
 b74:	2f636269 	svccs	0x00636269
 b78:	63747570 	cmnvs	r4, #112, 10	; 0x1c000000
 b7c:	2e726168 	rpwcssz	f6, f2, #0.0
 b80:	2f2e0063 	svccs	0x002e0063
 b84:	6362696c 	cmnvs	r2, #108, 18	; 0x1b0000
 b88:	7274732f 	rsbsvc	r7, r4, #-1140850688	; 0xbc000000
 b8c:	2e746163 	rpwcssz	f6, f4, f3
 b90:	65640063 	strbvs	r0, [r4, #-99]!	; 0xffffff9d
 b94:	2e007473 	mcrcs	4, 0, r7, cr0, cr3, {3}
 b98:	62696c2f 	rsbvs	r6, r9, #12032	; 0x2f00
 b9c:	74732f63 	ldrbtvc	r2, [r3], #-3939	; 0xfffff09d
 ba0:	706d6372 	rsbvc	r6, sp, r2, ror r3
 ba4:	2e00632e 	cdpcs	3, 0, cr6, cr0, cr14, {1}
 ba8:	62696c2f 	rsbvs	r6, r9, #12032	; 0x2f00
 bac:	74732f63 	ldrbtvc	r2, [r3], #-3939	; 0xfffff09d
 bb0:	79706372 	ldmdbvc	r0!, {r1, r4, r5, r6, r8, r9, sp, lr}^
 bb4:	2e00632e 	cdpcs	3, 0, cr6, cr0, cr14, {1}
 bb8:	62696c2f 	rsbvs	r6, r9, #12032	; 0x2f00
 bbc:	74732f63 	ldrbtvc	r2, [r3], #-3939	; 0xfffff09d
 bc0:	6d636e72 	stclvs	14, cr6, [r3, #-456]!	; 0xfffffe38
 bc4:	00632e70 	rsbeq	r2, r3, r0, ror lr
 bc8:	74732f2e 	ldrbtvc	r2, [r3], #-3886	; 0xfffff0d2
 bcc:	2d666661 	stclcs	6, cr6, [r6, #-388]!	; 0xfffffe7c
 bd0:	2f637273 	svccs	0x00637273
 bd4:	61666564 	cmnvs	r6, r4, ror #10
 bd8:	2d746c75 	ldclcs	12, cr6, [r4, #-468]!	; 0xfffffe2c
 bdc:	6f626572 	svcvs	0x00626572
 be0:	632d746f 			; <UNDEFINED> instruction: 0x632d746f
 be4:	6f6c6c61 	svcvs	0x006c6c61
 be8:	632e7475 			; <UNDEFINED> instruction: 0x632e7475
	...

Disassembly of section .debug_frame:

00000000 <.debug_frame>:
   0:	0000000c 	andeq	r0, r0, ip
   4:	ffffffff 			; <UNDEFINED> instruction: 0xffffffff
   8:	7c020001 	stcvc	0, cr0, [r2], {1}
   c:	000d0c0e 	andeq	r0, sp, lr, lsl #24
  10:	00000020 	andeq	r0, r0, r0, lsr #32
  14:	00000000 	andeq	r0, r0, r0
  18:	00008038 	andeq	r8, r0, r8, lsr r0
  1c:	000000c4 	andeq	r0, r0, r4, asr #1
  20:	84100e42 	ldrhi	r0, [r0], #-3650	; 0xfffff1be
  24:	86038504 	strhi	r8, [r3], -r4, lsl #10
  28:	42018e02 	andmi	r8, r1, #2, 28
  2c:	5402280e 	strpl	r2, [r2], #-2062	; 0xfffff7f2
  30:	0000100e 	andeq	r1, r0, lr
  34:	00000014 	andeq	r0, r0, r4, lsl r0
  38:	00000000 	andeq	r0, r0, r0
  3c:	000080fc 	strdeq	r8, [r0], -ip
  40:	0000000c 	andeq	r0, r0, ip
  44:	84080e42 	strhi	r0, [r8], #-3650	; 0xfffff1be
  48:	00018e02 	andeq	r8, r1, r2, lsl #28
  4c:	00000014 	andeq	r0, r0, r4, lsl r0
  50:	00000000 	andeq	r0, r0, r0
  54:	00008108 	andeq	r8, r0, r8, lsl #2
  58:	00000034 	andeq	r0, r0, r4, lsr r0
  5c:	84080e42 	strhi	r0, [r8], #-3650	; 0xfffff1be
  60:	00018e02 	andeq	r8, r1, r2, lsl #28
  64:	0000000c 	andeq	r0, r0, ip
  68:	ffffffff 			; <UNDEFINED> instruction: 0xffffffff
  6c:	7c020001 	stcvc	0, cr0, [r2], {1}
  70:	000d0c0e 	andeq	r0, sp, lr, lsl #24
  74:	0000000c 	andeq	r0, r0, ip
  78:	00000064 	andeq	r0, r0, r4, rrx
  7c:	0000813c 	andeq	r8, r0, ip, lsr r1
  80:	00000010 	andeq	r0, r0, r0, lsl r0
  84:	0000000c 	andeq	r0, r0, ip
  88:	00000064 	andeq	r0, r0, r4, rrx
  8c:	0000814c 	andeq	r8, r0, ip, asr #2
  90:	00000010 	andeq	r0, r0, r0, lsl r0
  94:	00000020 	andeq	r0, r0, r0, lsr #32
  98:	00000064 	andeq	r0, r0, r4, rrx
  9c:	0000815c 	andeq	r8, r0, ip, asr r1
  a0:	000000a4 	andeq	r0, r0, r4, lsr #1
  a4:	840c0e42 	strhi	r0, [ip], #-3650	; 0xfffff1be
  a8:	8e028503 	cfsh32hi	mvfx8, mvfx2, #3
  ac:	180e4201 	stmdane	lr, {r0, r9, lr}
  b0:	0c0e0a5e 			; <UNDEFINED> instruction: 0x0c0e0a5e
  b4:	00000b42 	andeq	r0, r0, r2, asr #22
  b8:	0000000c 	andeq	r0, r0, ip
  bc:	00000064 	andeq	r0, r0, r4, rrx
  c0:	00008200 	andeq	r8, r0, r0, lsl #4
  c4:	00000008 	andeq	r0, r0, r8
  c8:	00000014 	andeq	r0, r0, r4, lsl r0
  cc:	00000064 	andeq	r0, r0, r4, rrx
  d0:	00008208 	andeq	r8, r0, r8, lsl #4
  d4:	00000018 	andeq	r0, r0, r8, lsl r0
  d8:	84080e42 	strhi	r0, [r8], #-3650	; 0xfffff1be
  dc:	00018e02 	andeq	r8, r1, r2, lsl #28
  e0:	00000018 	andeq	r0, r0, r8, lsl r0
  e4:	00000064 	andeq	r0, r0, r4, rrx
  e8:	00008220 	andeq	r8, r0, r0, lsr #4
  ec:	00000030 	andeq	r0, r0, r0, lsr r0
  f0:	84100e42 	ldrhi	r0, [r0], #-3650	; 0xfffff1be
  f4:	86038504 	strhi	r8, [r3], -r4, lsl #10
  f8:	00018e02 	andeq	r8, r1, r2, lsl #28
  fc:	00000018 	andeq	r0, r0, r8, lsl r0
 100:	00000064 	andeq	r0, r0, r4, rrx
 104:	00008250 	andeq	r8, r0, r0, asr r2
 108:	00000058 	andeq	r0, r0, r8, asr r0
 10c:	84100e42 	ldrhi	r0, [r0], #-3650	; 0xfffff1be
 110:	86038504 	strhi	r8, [r3], -r4, lsl #10
 114:	00018e02 	andeq	r8, r1, r2, lsl #28
 118:	00000024 	andeq	r0, r0, r4, lsr #32
 11c:	00000064 	andeq	r0, r0, r4, rrx
 120:	000082a8 	andeq	r8, r0, r8, lsr #5
 124:	000000ec 	andeq	r0, r0, ip, ror #1
 128:	84180e42 	ldrhi	r0, [r8], #-3650	; 0xfffff1be
 12c:	86058506 	strhi	r8, [r5], -r6, lsl #10
 130:	88038704 	stmdahi	r3, {r2, r8, r9, sl, pc}
 134:	42018e02 	andmi	r8, r1, #2, 28
 138:	0a7c300e 	beq	1f0c178 <__bss_end__+0x1f01388>
 13c:	0b42180e 	bleq	108617c <__bss_end__+0x107b38c>
 140:	00000020 	andeq	r0, r0, r0, lsr #32
 144:	00000064 	andeq	r0, r0, r4, rrx
 148:	00008394 	muleq	r0, r4, r3
 14c:	00000090 	muleq	r0, r0, r0
 150:	84100e42 	ldrhi	r0, [r0], #-3650	; 0xfffff1be
 154:	86038504 	strhi	r8, [r3], -r4, lsl #10
 158:	42018e02 	andmi	r8, r1, #2, 28
 15c:	0e7c200e 	cdpeq	0, 7, cr2, cr12, cr14, {0}
 160:	00000010 	andeq	r0, r0, r0, lsl r0
 164:	0000000c 	andeq	r0, r0, ip
 168:	ffffffff 			; <UNDEFINED> instruction: 0xffffffff
 16c:	7c020001 	stcvc	0, cr0, [r2], {1}
 170:	000d0c0e 	andeq	r0, sp, lr, lsl #24
 174:	00000014 	andeq	r0, r0, r4, lsl r0
 178:	00000164 	andeq	r0, r0, r4, ror #2
 17c:	00008424 	andeq	r8, r0, r4, lsr #8
 180:	000000bc 	strheq	r0, [r0], -ip
 184:	8e040e42 	cdphi	14, 0, cr0, cr4, cr2, {2}
 188:	00000001 	andeq	r0, r0, r1
 18c:	00000014 	andeq	r0, r0, r4, lsl r0
 190:	00000164 	andeq	r0, r0, r4, ror #2
 194:	000084e0 	andeq	r8, r0, r0, ror #9
 198:	00000044 	andeq	r0, r0, r4, asr #32
 19c:	84080e42 	strhi	r0, [r8], #-3650	; 0xfffff1be
 1a0:	00018e02 	andeq	r8, r1, r2, lsl #28
 1a4:	00000014 	andeq	r0, r0, r4, lsl r0
 1a8:	00000164 	andeq	r0, r0, r4, ror #2
 1ac:	00008524 	andeq	r8, r0, r4, lsr #10
 1b0:	000000ac 	andeq	r0, r0, ip, lsr #1
 1b4:	84080e42 	strhi	r0, [r8], #-3650	; 0xfffff1be
 1b8:	00018e02 	andeq	r8, r1, r2, lsl #28
 1bc:	0000000c 	andeq	r0, r0, ip
 1c0:	ffffffff 			; <UNDEFINED> instruction: 0xffffffff
 1c4:	7c020001 	stcvc	0, cr0, [r2], {1}
 1c8:	000d0c0e 	andeq	r0, sp, lr, lsl #24
 1cc:	0000000c 	andeq	r0, r0, ip
 1d0:	000001bc 			; <UNDEFINED> instruction: 0x000001bc
 1d4:	000085d0 	ldrdeq	r8, [r0], -r0
 1d8:	0000003c 	andeq	r0, r0, ip, lsr r0
 1dc:	00000014 	andeq	r0, r0, r4, lsl r0
 1e0:	000001bc 			; <UNDEFINED> instruction: 0x000001bc
 1e4:	0000860c 	andeq	r8, r0, ip, lsl #12
 1e8:	00000028 	andeq	r0, r0, r8, lsr #32
 1ec:	84080e42 	strhi	r0, [r8], #-3650	; 0xfffff1be
 1f0:	00018e02 	andeq	r8, r1, r2, lsl #28
 1f4:	00000024 	andeq	r0, r0, r4, lsr #32
 1f8:	000001bc 			; <UNDEFINED> instruction: 0x000001bc
 1fc:	00008634 	andeq	r8, r0, r4, lsr r6
 200:	00000168 	andeq	r0, r0, r8, ror #2
 204:	84180e42 	ldrhi	r0, [r8], #-3650	; 0xfffff1be
 208:	86058506 	strhi	r8, [r5], -r6, lsl #10
 20c:	88038704 	stmdahi	r3, {r2, r8, r9, sl, pc}
 210:	42018e02 	andmi	r8, r1, #2, 28
 214:	9c02200e 	stcls	0, cr2, [r2], {14}
 218:	0000180e 	andeq	r1, r0, lr, lsl #16
 21c:	00000018 	andeq	r0, r0, r8, lsl r0
 220:	000001bc 			; <UNDEFINED> instruction: 0x000001bc
 224:	0000879c 	muleq	r0, ip, r7
 228:	000000a4 	andeq	r0, r0, r4, lsr #1
 22c:	8e040e42 	cdphi	14, 0, cr0, cr4, cr2, {2}
 230:	480e4201 	stmdami	lr, {r0, r9, lr}
 234:	040e4202 	streq	r4, [lr], #-514	; 0xfffffdfe
 238:	0000001c 	andeq	r0, r0, ip, lsl r0
 23c:	000001bc 			; <UNDEFINED> instruction: 0x000001bc
 240:	00008840 	andeq	r8, r0, r0, asr #16
 244:	000000f4 	strdeq	r0, [r0], -r4
 248:	84180e42 	ldrhi	r0, [r8], #-3650	; 0xfffff1be
 24c:	86058506 	strhi	r8, [r5], -r6, lsl #10
 250:	88038704 	stmdahi	r3, {r2, r8, r9, sl, pc}
 254:	00018e02 	andeq	r8, r1, r2, lsl #28
 258:	00000024 	andeq	r0, r0, r4, lsr #32
 25c:	000001bc 			; <UNDEFINED> instruction: 0x000001bc
 260:	00008934 	andeq	r8, r0, r4, lsr r9
 264:	000000dc 	ldrdeq	r0, [r0], -ip
 268:	84180e42 	ldrhi	r0, [r8], #-3650	; 0xfffff1be
 26c:	86058506 	strhi	r8, [r5], -r6, lsl #10
 270:	88038704 	stmdahi	r3, {r2, r8, r9, sl, pc}
 274:	42018e02 	andmi	r8, r1, #2, 28
 278:	5a02280e 	bpl	8a2b8 <__bss_end__+0x7f4c8>
 27c:	0000180e 	andeq	r1, r0, lr, lsl #16
 280:	00000020 	andeq	r0, r0, r0, lsr #32
 284:	000001bc 			; <UNDEFINED> instruction: 0x000001bc
 288:	00008a10 	andeq	r8, r0, r0, lsl sl
 28c:	000000a4 	andeq	r0, r0, r4, lsr #1
 290:	840c0e42 	strhi	r0, [ip], #-3650	; 0xfffff1be
 294:	8e028503 	cfsh32hi	mvfx8, mvfx2, #3
 298:	180e4201 	stmdane	lr, {r0, r9, lr}
 29c:	0c0e0a64 			; <UNDEFINED> instruction: 0x0c0e0a64
 2a0:	00000b42 	andeq	r0, r0, r2, asr #22
 2a4:	00000014 	andeq	r0, r0, r4, lsl r0
 2a8:	000001bc 			; <UNDEFINED> instruction: 0x000001bc
 2ac:	00008ab4 			; <UNDEFINED> instruction: 0x00008ab4
 2b0:	0000000c 	andeq	r0, r0, ip
 2b4:	84080e42 	strhi	r0, [r8], #-3650	; 0xfffff1be
 2b8:	00018e02 	andeq	r8, r1, r2, lsl #28
 2bc:	00000014 	andeq	r0, r0, r4, lsl r0
 2c0:	000001bc 			; <UNDEFINED> instruction: 0x000001bc
 2c4:	00008ac0 	andeq	r8, r0, r0, asr #21
 2c8:	00000048 	andeq	r0, r0, r8, asr #32
 2cc:	84080e42 	strhi	r0, [r8], #-3650	; 0xfffff1be
 2d0:	00018e02 	andeq	r8, r1, r2, lsl #28
 2d4:	00000014 	andeq	r0, r0, r4, lsl r0
 2d8:	000001bc 			; <UNDEFINED> instruction: 0x000001bc
 2dc:	00008b08 	andeq	r8, r0, r8, lsl #22
 2e0:	00000050 	andeq	r0, r0, r0, asr r0
 2e4:	84080e42 	strhi	r0, [r8], #-3650	; 0xfffff1be
 2e8:	00018e02 	andeq	r8, r1, r2, lsl #28
 2ec:	00000014 	andeq	r0, r0, r4, lsl r0
 2f0:	000001bc 			; <UNDEFINED> instruction: 0x000001bc
 2f4:	00008b58 	andeq	r8, r0, r8, asr fp
 2f8:	00000010 	andeq	r0, r0, r0, lsl r0
 2fc:	84080e42 	strhi	r0, [r8], #-3650	; 0xfffff1be
 300:	00018e02 	andeq	r8, r1, r2, lsl #28
 304:	00000014 	andeq	r0, r0, r4, lsl r0
 308:	000001bc 			; <UNDEFINED> instruction: 0x000001bc
 30c:	00008b68 	andeq	r8, r0, r8, ror #22
 310:	0000002c 	andeq	r0, r0, ip, lsr #32
 314:	84080e42 	strhi	r0, [r8], #-3650	; 0xfffff1be
 318:	00018e02 	andeq	r8, r1, r2, lsl #28
 31c:	0000000c 	andeq	r0, r0, ip
 320:	ffffffff 			; <UNDEFINED> instruction: 0xffffffff
 324:	7c020001 	stcvc	0, cr0, [r2], {1}
 328:	000d0c0e 	andeq	r0, sp, lr, lsl #24
 32c:	00000014 	andeq	r0, r0, r4, lsl r0
 330:	0000031c 	andeq	r0, r0, ip, lsl r3
 334:	00008b9c 	muleq	r0, ip, fp
 338:	00000078 	andeq	r0, r0, r8, ror r0
 33c:	84080e42 	strhi	r0, [r8], #-3650	; 0xfffff1be
 340:	00018e02 	andeq	r8, r1, r2, lsl #28
 344:	0000000c 	andeq	r0, r0, ip
 348:	ffffffff 			; <UNDEFINED> instruction: 0xffffffff
 34c:	7c020001 	stcvc	0, cr0, [r2], {1}
 350:	000d0c0e 	andeq	r0, sp, lr, lsl #24
 354:	00000034 	andeq	r0, r0, r4, lsr r0
 358:	00000344 	andeq	r0, r0, r4, asr #6
 35c:	00008c14 	andeq	r8, r0, r4, lsl ip
 360:	00000058 	andeq	r0, r0, r8, asr r0
 364:	80100e42 	andshi	r0, r0, r2, asr #28
 368:	82038104 	andhi	r8, r3, #1
 36c:	42018302 	andmi	r8, r1, #134217728	; 0x8000000
 370:	07841c0e 	streq	r1, [r4, lr, lsl #24]
 374:	058e0685 	streq	r0, [lr, #1669]	; 0x685
 378:	5a280e44 	bpl	a03c90 <__bss_end__+0x9f8ea0>
 37c:	ce421c0e 	cdpgt	12, 4, cr1, cr2, cr14, {0}
 380:	100ec4c5 	andne	ip, lr, r5, asr #9
 384:	c1c2c342 	bicgt	ip, r2, r2, asr #6
 388:	00000ec0 	andeq	r0, r0, r0, asr #29
 38c:	0000000c 	andeq	r0, r0, ip
 390:	ffffffff 			; <UNDEFINED> instruction: 0xffffffff
 394:	7c020001 	stcvc	0, cr0, [r2], {1}
 398:	000d0c0e 	andeq	r0, sp, lr, lsl #24
 39c:	00000018 	andeq	r0, r0, r8, lsl r0
 3a0:	0000038c 	andeq	r0, r0, ip, lsl #7
 3a4:	00008c6c 	andeq	r8, r0, ip, ror #24
 3a8:	00000038 	andeq	r0, r0, r8, lsr r0
 3ac:	84100e42 	ldrhi	r0, [r0], #-3650	; 0xfffff1be
 3b0:	86038504 	strhi	r8, [r3], -r4, lsl #10
 3b4:	00018e02 	andeq	r8, r1, r2, lsl #28
 3b8:	0000000c 	andeq	r0, r0, ip
 3bc:	ffffffff 			; <UNDEFINED> instruction: 0xffffffff
 3c0:	7c020001 	stcvc	0, cr0, [r2], {1}
 3c4:	000d0c0e 	andeq	r0, sp, lr, lsl #24
 3c8:	0000002c 	andeq	r0, r0, ip, lsr #32
 3cc:	000003b8 			; <UNDEFINED> instruction: 0x000003b8
 3d0:	00008ca4 	andeq	r8, r0, r4, lsr #25
 3d4:	00000328 	andeq	r0, r0, r8, lsr #6
 3d8:	84180e42 	ldrhi	r0, [r8], #-3650	; 0xfffff1be
 3dc:	86058506 	strhi	r8, [r5], -r6, lsl #10
 3e0:	88038704 	stmdahi	r3, {r2, r8, r9, sl, pc}
 3e4:	46018e02 	strmi	r8, [r1], -r2, lsl #28
 3e8:	c002600e 	andgt	r6, r2, lr
 3ec:	42180e0a 	andsmi	r0, r8, #160	; 0xa0
 3f0:	0a8e020b 	beq	fe380c24 <__bss_end__+0xfe375e34>
 3f4:	0b42180e 	bleq	1086434 <__bss_end__+0x107b644>
 3f8:	00000014 	andeq	r0, r0, r4, lsl r0
 3fc:	000003b8 			; <UNDEFINED> instruction: 0x000003b8
 400:	00008fcc 	andeq	r8, r0, ip, asr #31
 404:	00000060 	andeq	r0, r0, r0, rrx
 408:	8e040e52 	mcrhi	14, 0, r0, cr4, cr2, {2}
 40c:	100e4401 	andne	r4, lr, r1, lsl #8
 410:	0000002c 	andeq	r0, r0, ip, lsr #32
 414:	000003b8 			; <UNDEFINED> instruction: 0x000003b8
 418:	0000902c 	andeq	r9, r0, ip, lsr #32
 41c:	0000062c 	andeq	r0, r0, ip, lsr #12
 420:	84240e42 	strthi	r0, [r4], #-3650	; 0xfffff1be
 424:	86088509 	strhi	r8, [r8], -r9, lsl #10
 428:	88068707 	stmdahi	r6, {r0, r1, r2, r8, r9, sl, pc}
 42c:	8a048905 	bhi	122848 <__bss_end__+0x117a58>
 430:	8e028b03 	vmlahi.f64	d8, d2, d3
 434:	c00e5201 	andgt	r5, lr, r1, lsl #4
 438:	0a860202 	beq	fe180c48 <__bss_end__+0xfe175e58>
 43c:	0b42240e 	bleq	108947c <__bss_end__+0x107e68c>
 440:	0000000c 	andeq	r0, r0, ip
 444:	ffffffff 			; <UNDEFINED> instruction: 0xffffffff
 448:	7c020001 	stcvc	0, cr0, [r2], {1}
 44c:	000d0c0e 	andeq	r0, sp, lr, lsl #24
 450:	00000014 	andeq	r0, r0, r4, lsl r0
 454:	00000440 	andeq	r0, r0, r0, asr #8
 458:	00009658 	andeq	r9, r0, r8, asr r6
 45c:	0000002c 	andeq	r0, r0, ip, lsr #32
 460:	84080e44 	strhi	r0, [r8], #-3652	; 0xfffff1bc
 464:	00018e02 	andeq	r8, r1, r2, lsl #28
 468:	0000000c 	andeq	r0, r0, ip
 46c:	ffffffff 			; <UNDEFINED> instruction: 0xffffffff
 470:	7c020001 	stcvc	0, cr0, [r2], {1}
 474:	000d0c0e 	andeq	r0, sp, lr, lsl #24
 478:	00000018 	andeq	r0, r0, r8, lsl r0
 47c:	00000468 	andeq	r0, r0, r8, ror #8
 480:	00009684 	andeq	r9, r0, r4, lsl #13
 484:	000000f8 	strdeq	r0, [r0], -r8
 488:	84100e42 	ldrhi	r0, [r0], #-3650	; 0xfffff1be
 48c:	86038504 	strhi	r8, [r3], -r4, lsl #10
 490:	00018e02 	andeq	r8, r1, r2, lsl #28
 494:	0000000c 	andeq	r0, r0, ip
 498:	ffffffff 			; <UNDEFINED> instruction: 0xffffffff
 49c:	7c020001 	stcvc	0, cr0, [r2], {1}
 4a0:	000d0c0e 	andeq	r0, sp, lr, lsl #24
 4a4:	0000000c 	andeq	r0, r0, ip
 4a8:	00000494 	muleq	r0, r4, r4
 4ac:	0000977c 	andeq	r9, r0, ip, ror r7
 4b0:	00000004 	andeq	r0, r0, r4
 4b4:	0000000c 	andeq	r0, r0, ip
 4b8:	ffffffff 			; <UNDEFINED> instruction: 0xffffffff
 4bc:	7c020001 	stcvc	0, cr0, [r2], {1}
 4c0:	000d0c0e 	andeq	r0, sp, lr, lsl #24
 4c4:	0000000c 	andeq	r0, r0, ip
 4c8:	000004b4 			; <UNDEFINED> instruction: 0x000004b4
 4cc:	00009780 	andeq	r9, r0, r0, lsl #15
 4d0:	00000018 	andeq	r0, r0, r8, lsl r0
 4d4:	0000000c 	andeq	r0, r0, ip
 4d8:	000004b4 			; <UNDEFINED> instruction: 0x000004b4
 4dc:	00009798 	muleq	r0, r8, r7
 4e0:	00000014 	andeq	r0, r0, r4, lsl r0
 4e4:	00000014 	andeq	r0, r0, r4, lsl r0
 4e8:	000004b4 			; <UNDEFINED> instruction: 0x000004b4
 4ec:	000097ac 	andeq	r9, r0, ip, lsr #15
 4f0:	00000060 	andeq	r0, r0, r0, rrx
 4f4:	84080e42 	strhi	r0, [r8], #-3650	; 0xfffff1be
 4f8:	00018e02 	andeq	r8, r1, r2, lsl #28
 4fc:	0000000c 	andeq	r0, r0, ip
 500:	ffffffff 			; <UNDEFINED> instruction: 0xffffffff
 504:	7c020001 	stcvc	0, cr0, [r2], {1}
 508:	000d0c0e 	andeq	r0, sp, lr, lsl #24
 50c:	0000000c 	andeq	r0, r0, ip
 510:	000004fc 	strdeq	r0, [r0], -ip
 514:	0000980c 	andeq	r9, r0, ip, lsl #16
 518:	0000000c 	andeq	r0, r0, ip
 51c:	00000014 	andeq	r0, r0, r4, lsl r0
 520:	000004fc 	strdeq	r0, [r0], -ip
 524:	00009818 	andeq	r9, r0, r8, lsl r8
 528:	00000024 	andeq	r0, r0, r4, lsr #32
 52c:	84080e42 	strhi	r0, [r8], #-3650	; 0xfffff1be
 530:	00018e02 	andeq	r8, r1, r2, lsl #28
 534:	0000001c 	andeq	r0, r0, ip, lsl r0
 538:	000004fc 	strdeq	r0, [r0], -ip
 53c:	0000983c 	andeq	r9, r0, ip, lsr r8
 540:	00000048 	andeq	r0, r0, r8, asr #32
 544:	84180e42 	ldrhi	r0, [r8], #-3650	; 0xfffff1be
 548:	86058506 	strhi	r8, [r5], -r6, lsl #10
 54c:	88038704 	stmdahi	r3, {r2, r8, r9, sl, pc}
 550:	00018e02 	andeq	r8, r1, r2, lsl #28
 554:	0000001c 	andeq	r0, r0, ip, lsl r0
 558:	000004fc 	strdeq	r0, [r0], -ip
 55c:	00009884 	andeq	r9, r0, r4, lsl #17
 560:	00000050 	andeq	r0, r0, r0, asr r0
 564:	84180e42 	ldrhi	r0, [r8], #-3650	; 0xfffff1be
 568:	86058506 	strhi	r8, [r5], -r6, lsl #10
 56c:	88038704 	stmdahi	r3, {r2, r8, r9, sl, pc}
 570:	00018e02 	andeq	r8, r1, r2, lsl #28
 574:	0000001c 	andeq	r0, r0, ip, lsl r0
 578:	000004fc 	strdeq	r0, [r0], -ip
 57c:	000098d4 	ldrdeq	r9, [r0], -r4
 580:	00000054 	andeq	r0, r0, r4, asr r0
 584:	84180e42 	ldrhi	r0, [r8], #-3650	; 0xfffff1be
 588:	86058506 	strhi	r8, [r5], -r6, lsl #10
 58c:	88038704 	stmdahi	r3, {r2, r8, r9, sl, pc}
 590:	00018e02 	andeq	r8, r1, r2, lsl #28
 594:	0000000c 	andeq	r0, r0, ip
 598:	ffffffff 			; <UNDEFINED> instruction: 0xffffffff
 59c:	7c020001 	stcvc	0, cr0, [r2], {1}
 5a0:	000d0c0e 	andeq	r0, sp, lr, lsl #24
 5a4:	00000018 	andeq	r0, r0, r8, lsl r0
 5a8:	00000594 	muleq	r0, r4, r5
 5ac:	00009928 	andeq	r9, r0, r8, lsr #18
 5b0:	00000020 	andeq	r0, r0, r0, lsr #32
 5b4:	84100e42 	ldrhi	r0, [r0], #-3650	; 0xfffff1be
 5b8:	86038504 	strhi	r8, [r3], -r4, lsl #10
 5bc:	00018e02 	andeq	r8, r1, r2, lsl #28
 5c0:	00000018 	andeq	r0, r0, r8, lsl r0
 5c4:	00000594 	muleq	r0, r4, r5
 5c8:	00009948 	andeq	r9, r0, r8, asr #18
 5cc:	00000020 	andeq	r0, r0, r0, lsr #32
 5d0:	84100e42 	ldrhi	r0, [r0], #-3650	; 0xfffff1be
 5d4:	86038504 	strhi	r8, [r3], -r4, lsl #10
 5d8:	00018e02 	andeq	r8, r1, r2, lsl #28
 5dc:	00000014 	andeq	r0, r0, r4, lsl r0
 5e0:	00000594 	muleq	r0, r4, r5
 5e4:	00009968 	andeq	r9, r0, r8, ror #18
 5e8:	000000b0 	strheq	r0, [r0], -r0	; <UNPREDICTABLE>
 5ec:	84080e42 	strhi	r0, [r8], #-3650	; 0xfffff1be
 5f0:	00018e02 	andeq	r8, r1, r2, lsl #28
 5f4:	00000014 	andeq	r0, r0, r4, lsl r0
 5f8:	00000594 	muleq	r0, r4, r5
 5fc:	00009a18 	andeq	r9, r0, r8, lsl sl
 600:	00000018 	andeq	r0, r0, r8, lsl r0
 604:	84080e42 	strhi	r0, [r8], #-3650	; 0xfffff1be
 608:	00018e02 	andeq	r8, r1, r2, lsl #28
 60c:	00000014 	andeq	r0, r0, r4, lsl r0
 610:	00000594 	muleq	r0, r4, r5
 614:	00009a30 	andeq	r9, r0, r0, lsr sl
 618:	00000020 	andeq	r0, r0, r0, lsr #32
 61c:	84080e42 	strhi	r0, [r8], #-3650	; 0xfffff1be
 620:	00018e02 	andeq	r8, r1, r2, lsl #28
 624:	00000014 	andeq	r0, r0, r4, lsl r0
 628:	00000594 	muleq	r0, r4, r5
 62c:	00009a50 	andeq	r9, r0, r0, asr sl
 630:	00000030 	andeq	r0, r0, r0, lsr r0
 634:	84080e42 	strhi	r0, [r8], #-3650	; 0xfffff1be
 638:	00018e02 	andeq	r8, r1, r2, lsl #28
 63c:	00000014 	andeq	r0, r0, r4, lsl r0
 640:	00000594 	muleq	r0, r4, r5
 644:	00009a80 	andeq	r9, r0, r0, lsl #21
 648:	00000030 	andeq	r0, r0, r0, lsr r0
 64c:	84080e42 	strhi	r0, [r8], #-3650	; 0xfffff1be
 650:	00018e02 	andeq	r8, r1, r2, lsl #28
 654:	00000014 	andeq	r0, r0, r4, lsl r0
 658:	00000594 	muleq	r0, r4, r5
 65c:	00009ab0 			; <UNDEFINED> instruction: 0x00009ab0
 660:	00000010 	andeq	r0, r0, r0, lsl r0
 664:	84080e42 	strhi	r0, [r8], #-3650	; 0xfffff1be
 668:	00018e02 	andeq	r8, r1, r2, lsl #28
 66c:	00000014 	andeq	r0, r0, r4, lsl r0
 670:	00000594 	muleq	r0, r4, r5
 674:	00009ac0 	andeq	r9, r0, r0, asr #21
 678:	00000020 	andeq	r0, r0, r0, lsr #32
 67c:	84080e42 	strhi	r0, [r8], #-3650	; 0xfffff1be
 680:	00018e02 	andeq	r8, r1, r2, lsl #28
 684:	00000014 	andeq	r0, r0, r4, lsl r0
 688:	00000594 	muleq	r0, r4, r5
 68c:	00009ae0 	andeq	r9, r0, r0, ror #21
 690:	00000014 	andeq	r0, r0, r4, lsl r0
 694:	84080e42 	strhi	r0, [r8], #-3650	; 0xfffff1be
 698:	00018e02 	andeq	r8, r1, r2, lsl #28
 69c:	00000014 	andeq	r0, r0, r4, lsl r0
 6a0:	00000594 	muleq	r0, r4, r5
 6a4:	00009af4 	strdeq	r9, [r0], -r4
 6a8:	00000024 	andeq	r0, r0, r4, lsr #32
 6ac:	84080e42 	strhi	r0, [r8], #-3650	; 0xfffff1be
 6b0:	00018e02 	andeq	r8, r1, r2, lsl #28
 6b4:	0000000c 	andeq	r0, r0, ip
 6b8:	ffffffff 			; <UNDEFINED> instruction: 0xffffffff
 6bc:	7c020001 	stcvc	0, cr0, [r2], {1}
 6c0:	000d0c0e 	andeq	r0, sp, lr, lsl #24
 6c4:	0000000c 	andeq	r0, r0, ip
 6c8:	000006b4 			; <UNDEFINED> instruction: 0x000006b4
 6cc:	00009b18 	andeq	r9, r0, r8, lsl fp
 6d0:	00000010 	andeq	r0, r0, r0, lsl r0
 6d4:	0000000c 	andeq	r0, r0, ip
 6d8:	000006b4 			; <UNDEFINED> instruction: 0x000006b4
 6dc:	00009b28 	andeq	r9, r0, r8, lsr #22
 6e0:	00000010 	andeq	r0, r0, r0, lsl r0
 6e4:	0000000c 	andeq	r0, r0, ip
 6e8:	000006b4 			; <UNDEFINED> instruction: 0x000006b4
 6ec:	00009b38 	andeq	r9, r0, r8, lsr fp
 6f0:	00000010 	andeq	r0, r0, r0, lsl r0
 6f4:	0000001c 	andeq	r0, r0, ip, lsl r0
 6f8:	000006b4 			; <UNDEFINED> instruction: 0x000006b4
 6fc:	00009b48 	andeq	r9, r0, r8, asr #22
 700:	0000009c 	muleq	r0, ip, r0
 704:	8e040e42 	cdphi	14, 0, cr0, cr4, cr2, {2}
 708:	100e4201 	andne	r4, lr, r1, lsl #4
 70c:	040e0a58 	streq	r0, [lr], #-2648	; 0xfffff5a8
 710:	00000b42 	andeq	r0, r0, r2, asr #22
 714:	00000014 	andeq	r0, r0, r4, lsl r0
 718:	000006b4 			; <UNDEFINED> instruction: 0x000006b4
 71c:	00009be4 	andeq	r9, r0, r4, ror #23
 720:	00000058 	andeq	r0, r0, r8, asr r0
 724:	84080e42 	strhi	r0, [r8], #-3650	; 0xfffff1be
 728:	00018e02 	andeq	r8, r1, r2, lsl #28
 72c:	0000001c 	andeq	r0, r0, ip, lsl r0
 730:	000006b4 			; <UNDEFINED> instruction: 0x000006b4
 734:	00009c3c 	andeq	r9, r0, ip, lsr ip
 738:	00000098 	muleq	r0, r8, r0
 73c:	8e040e42 	cdphi	14, 0, cr0, cr4, cr2, {2}
 740:	100e4201 	andne	r4, lr, r1, lsl #4
 744:	040e0a58 	streq	r0, [lr], #-2648	; 0xfffff5a8
 748:	00000b42 	andeq	r0, r0, r2, asr #22
 74c:	00000020 	andeq	r0, r0, r0, lsr #32
 750:	000006b4 			; <UNDEFINED> instruction: 0x000006b4
 754:	00009cd4 	ldrdeq	r9, [r0], -r4
 758:	00000064 	andeq	r0, r0, r4, rrx
 75c:	840c0e42 	strhi	r0, [ip], #-3650	; 0xfffff1be
 760:	8e028503 	cfsh32hi	mvfx8, mvfx2, #3
 764:	180e4201 	stmdane	lr, {r0, r9, lr}
 768:	0c0e0a54 			; <UNDEFINED> instruction: 0x0c0e0a54
 76c:	00000b42 	andeq	r0, r0, r2, asr #22
 770:	0000001c 	andeq	r0, r0, ip, lsl r0
 774:	000006b4 			; <UNDEFINED> instruction: 0x000006b4
 778:	00009d38 	andeq	r9, r0, r8, lsr sp
 77c:	00000118 	andeq	r0, r0, r8, lsl r1
 780:	8e040e42 	cdphi	14, 0, cr0, cr4, cr2, {2}
 784:	100e4201 	andne	r4, lr, r1, lsl #4
 788:	040e0a6c 	streq	r0, [lr], #-2668	; 0xfffff594
 78c:	00000b42 	andeq	r0, r0, r2, asr #22
 790:	0000000c 	andeq	r0, r0, ip
 794:	000006b4 			; <UNDEFINED> instruction: 0x000006b4
 798:	00009e50 	andeq	r9, r0, r0, asr lr
 79c:	00000004 	andeq	r0, r0, r4
 7a0:	0000000c 	andeq	r0, r0, ip
 7a4:	000006b4 			; <UNDEFINED> instruction: 0x000006b4
 7a8:	00009e54 	andeq	r9, r0, r4, asr lr
 7ac:	00000014 	andeq	r0, r0, r4, lsl r0
 7b0:	00000014 	andeq	r0, r0, r4, lsl r0
 7b4:	000006b4 			; <UNDEFINED> instruction: 0x000006b4
 7b8:	00009e68 	andeq	r9, r0, r8, ror #28
 7bc:	00000060 	andeq	r0, r0, r0, rrx
 7c0:	8e040e58 	mcrhi	14, 0, r0, cr4, cr8, {2}
 7c4:	100e4201 	andne	r4, lr, r1, lsl #4
 7c8:	0000000c 	andeq	r0, r0, ip
 7cc:	ffffffff 			; <UNDEFINED> instruction: 0xffffffff
 7d0:	7c020001 	stcvc	0, cr0, [r2], {1}
 7d4:	000d0c0e 	andeq	r0, sp, lr, lsl #24
 7d8:	00000020 	andeq	r0, r0, r0, lsr #32
 7dc:	000007c8 	andeq	r0, r0, r8, asr #15
 7e0:	00009ec8 	andeq	r9, r0, r8, asr #29
 7e4:	00000060 	andeq	r0, r0, r0, rrx
 7e8:	84100e48 	ldrhi	r0, [r0], #-3656	; 0xfffff1b8
 7ec:	86038504 	strhi	r8, [r3], -r4, lsl #10
 7f0:	64018e02 	strvs	r8, [r1], #-3586	; 0xfffff1fe
 7f4:	c4c5c6ce 	strbgt	ip, [r5], #1742	; 0x6ce
 7f8:	0000000e 	andeq	r0, r0, lr
 7fc:	00000020 	andeq	r0, r0, r0, lsr #32
 800:	000007c8 	andeq	r0, r0, r8, asr #15
 804:	00009f28 	andeq	r9, r0, r8, lsr #30
 808:	00000058 	andeq	r0, r0, r8, asr r0
 80c:	84100e46 	ldrhi	r0, [r0], #-3654	; 0xfffff1ba
 810:	86038504 	strhi	r8, [r3], -r4, lsl #10
 814:	62018e02 	andvs	r8, r1, #2, 28
 818:	c4c5c6ce 	strbgt	ip, [r5], #1742	; 0x6ce
 81c:	0000000e 	andeq	r0, r0, lr
 820:	0000000c 	andeq	r0, r0, ip
 824:	000007c8 	andeq	r0, r0, r8, asr #15
 828:	00009f80 	andeq	r9, r0, r0, lsl #31
 82c:	00000018 	andeq	r0, r0, r8, lsl r0
 830:	0000000c 	andeq	r0, r0, ip
 834:	000007c8 	andeq	r0, r0, r8, asr #15
 838:	00009f98 	muleq	r0, r8, pc	; <UNPREDICTABLE>
 83c:	00000018 	andeq	r0, r0, r8, lsl r0
 840:	00000020 	andeq	r0, r0, r0, lsr #32
 844:	000007c8 	andeq	r0, r0, r8, asr #15
 848:	00009fb0 			; <UNDEFINED> instruction: 0x00009fb0
 84c:	00000058 	andeq	r0, r0, r8, asr r0
 850:	84100e46 	ldrhi	r0, [r0], #-3654	; 0xfffff1ba
 854:	86038504 	strhi	r8, [r3], -r4, lsl #10
 858:	62018e02 	andvs	r8, r1, #2, 28
 85c:	c4c5c6ce 	strbgt	ip, [r5], #1742	; 0x6ce
 860:	0000000e 	andeq	r0, r0, lr
 864:	0000000c 	andeq	r0, r0, ip
 868:	000007c8 	andeq	r0, r0, r8, asr #15
 86c:	0000a008 	andeq	sl, r0, r8
 870:	00000030 	andeq	r0, r0, r0, lsr r0
 874:	00000014 	andeq	r0, r0, r4, lsl r0
 878:	000007c8 	andeq	r0, r0, r8, asr #15
 87c:	0000a038 	andeq	sl, r0, r8, lsr r0
 880:	00000028 	andeq	r0, r0, r8, lsr #32
 884:	84080e42 	strhi	r0, [r8], #-3650	; 0xfffff1be
 888:	00018e02 	andeq	r8, r1, r2, lsl #28
 88c:	0000000c 	andeq	r0, r0, ip
 890:	ffffffff 			; <UNDEFINED> instruction: 0xffffffff
 894:	7c020001 	stcvc	0, cr0, [r2], {1}
 898:	000d0c0e 	andeq	r0, sp, lr, lsl #24
 89c:	00000014 	andeq	r0, r0, r4, lsl r0
 8a0:	0000088c 	andeq	r0, r0, ip, lsl #17
 8a4:	0000a060 	andeq	sl, r0, r0, rrx
 8a8:	00000014 	andeq	r0, r0, r4, lsl r0
 8ac:	84080e42 	strhi	r0, [r8], #-3650	; 0xfffff1be
 8b0:	00018e02 	andeq	r8, r1, r2, lsl #28
 8b4:	0000000c 	andeq	r0, r0, ip
 8b8:	0000088c 	andeq	r0, r0, ip, lsl #17
 8bc:	0000a074 	andeq	sl, r0, r4, ror r0
 8c0:	00000018 	andeq	r0, r0, r8, lsl r0
 8c4:	0000000c 	andeq	r0, r0, ip
 8c8:	0000088c 	andeq	r0, r0, ip, lsl #17
 8cc:	0000a08c 	andeq	sl, r0, ip, lsl #1
 8d0:	00000010 	andeq	r0, r0, r0, lsl r0
 8d4:	0000000c 	andeq	r0, r0, ip
 8d8:	ffffffff 			; <UNDEFINED> instruction: 0xffffffff
 8dc:	7c020001 	stcvc	0, cr0, [r2], {1}
 8e0:	000d0c0e 	andeq	r0, sp, lr, lsl #24
 8e4:	0000000c 	andeq	r0, r0, ip
 8e8:	000008d4 	ldrdeq	r0, [r0], -r4
 8ec:	0000a09c 	muleq	r0, ip, r0
 8f0:	0000002c 	andeq	r0, r0, ip, lsr #32
 8f4:	0000000c 	andeq	r0, r0, ip
 8f8:	ffffffff 			; <UNDEFINED> instruction: 0xffffffff
 8fc:	7c020001 	stcvc	0, cr0, [r2], {1}
 900:	000d0c0e 	andeq	r0, sp, lr, lsl #24
 904:	0000000c 	andeq	r0, r0, ip
 908:	000008f4 	strdeq	r0, [r0], -r4
 90c:	0000a0c8 	andeq	sl, r0, r8, asr #1
 910:	00000044 	andeq	r0, r0, r4, asr #32
 914:	0000000c 	andeq	r0, r0, ip
 918:	ffffffff 			; <UNDEFINED> instruction: 0xffffffff
 91c:	7c020001 	stcvc	0, cr0, [r2], {1}
 920:	000d0c0e 	andeq	r0, sp, lr, lsl #24
 924:	0000000c 	andeq	r0, r0, ip
 928:	00000914 	andeq	r0, r0, r4, lsl r9
 92c:	0000a10c 	andeq	sl, r0, ip, lsl #2
 930:	00000018 	andeq	r0, r0, r8, lsl r0
 934:	0000000c 	andeq	r0, r0, ip
 938:	ffffffff 			; <UNDEFINED> instruction: 0xffffffff
 93c:	7c020001 	stcvc	0, cr0, [r2], {1}
 940:	000d0c0e 	andeq	r0, sp, lr, lsl #24
 944:	0000000c 	andeq	r0, r0, ip
 948:	00000934 	andeq	r0, r0, r4, lsr r9
 94c:	0000a124 	andeq	sl, r0, r4, lsr #2
 950:	00000030 	andeq	r0, r0, r0, lsr r0
 954:	0000000c 	andeq	r0, r0, ip
 958:	ffffffff 			; <UNDEFINED> instruction: 0xffffffff
 95c:	7c020001 	stcvc	0, cr0, [r2], {1}
 960:	000d0c0e 	andeq	r0, sp, lr, lsl #24
 964:	0000000c 	andeq	r0, r0, ip
 968:	00000954 	andeq	r0, r0, r4, asr r9
 96c:	0000a154 	andeq	sl, r0, r4, asr r1
 970:	00000004 	andeq	r0, r0, r4
