
tests/part2-test3.elf:     file format elf32-littlearm


Disassembly of section .text:

00008000 <__code_start__>:
    8000:	e3a00013 	mov	r0, #19, 0
    8004:	e3800080 	orr	r0, r0, #128, 0	; 0x80
    8008:	e129f000 	msr	CPSR_fc, r0
    800c:	e3a01000 	mov	r1, #0, 0
    8010:	ee071f95 	mcr	15, 0, r1, cr7, cr5, {4}
    8014:	e3a0d302 	mov	sp, #134217728	; 0x8000000
    8018:	e3a0b000 	mov	fp, #0, 0
    801c:	eb000591 	bl	9668 <_cstart>
    8020:	eb0005da 	bl	9790 <rpi_reboot>

00008024 <PUT32>:
    8024:	e5801000 	str	r1, [r0]
    8028:	e12fff1e 	bx	lr

0000802c <GET32>:
    802c:	e5900000 	ldr	r0, [r0]
    8030:	e12fff1e 	bx	lr

00008034 <BRANCHTO>:
    8034:	e12fff10 	bx	r0

00008038 <test>:
    8038:	e92d4070 	push	{r4, r5, r6, lr}
    803c:	e24dd010 	sub	sp, sp, #16, 0
    8040:	e3a05000 	mov	r5, #0, 0
    8044:	e1a06005 	mov	r6, r5
    8048:	e3550063 	cmp	r5, #99, 0	; 0x63
    804c:	ca000013 	bgt	80a0 <test+0x68>
    8050:	e59f3058 	ldr	r3, [pc, #88]	; 80b0 <test+0x78>
    8054:	e58d3004 	str	r3, [sp, #4]
    8058:	e59f3054 	ldr	r3, [pc, #84]	; 80b4 <test+0x7c>
    805c:	e58d3008 	str	r3, [sp, #8]
    8060:	e3a03012 	mov	r3, #18, 0
    8064:	e58d300c 	str	r3, [sp, #12]
    8068:	e28d3010 	add	r3, sp, #16, 0
    806c:	e913000e 	ldmdb	r3, {r1, r2, r3}
    8070:	e3a00008 	mov	r0, #8, 0
    8074:	eb0000af 	bl	8338 <ckalloc>
    8078:	e1a04000 	mov	r4, r0
    807c:	e3a02008 	mov	r2, #8, 0
    8080:	e3a01000 	mov	r1, #0, 0
    8084:	eb0002bd 	bl	8b80 <memset>
    8088:	e3a03000 	mov	r3, #0, 0
    808c:	e5843000 	str	r3, [r4]
    8090:	e5846004 	str	r6, [r4, #4]
    8094:	e2855001 	add	r5, r5, #1, 0
    8098:	e1a06004 	mov	r6, r4
    809c:	eaffffe9 	b	8048 <test+0x10>
    80a0:	eb000279 	bl	8a8c <check_no_leak>
    80a4:	e1a00006 	mov	r0, r6
    80a8:	e28dd010 	add	sp, sp, #16, 0
    80ac:	e8bd8070 	pop	{r4, r5, r6, pc}
    80b0:	0000a158 	andeq	sl, r0, r8, asr r1
    80b4:	0000a1c0 	andeq	sl, r0, r0, asr #3

000080b8 <notmain>:
    80b8:	e92d4010 	push	{r4, lr}
    80bc:	e59f0014 	ldr	r0, [pc, #20]	; 80d8 <notmain+0x20>
    80c0:	eb0002cc 	bl	8bf8 <printk>
    80c4:	ebffffdb 	bl	8038 <test>
    80c8:	e1a01000 	mov	r1, r0
    80cc:	e59f0008 	ldr	r0, [pc, #8]	; 80dc <notmain+0x24>
    80d0:	eb0002c8 	bl	8bf8 <printk>
    80d4:	e8bd8010 	pop	{r4, pc}
    80d8:	0000a16c 	andeq	sl, r0, ip, ror #2
    80dc:	0000a1b0 			; <UNDEFINED> instruction: 0x0000a1b0

000080e0 <ck_first_hdr>:
    80e0:	e59f3004 	ldr	r3, [pc, #4]	; 80ec <ck_first_hdr+0xc>
    80e4:	e5930000 	ldr	r0, [r3]
    80e8:	e12fff1e 	bx	lr
    80ec:	0000a988 	andeq	sl, r0, r8, lsl #19

000080f0 <ck_next_hdr>:
    80f0:	e3500000 	cmp	r0, #0, 0
    80f4:	012fff1e 	bxeq	lr
    80f8:	e5900000 	ldr	r0, [r0]
    80fc:	e12fff1e 	bx	lr

00008100 <list_remove>:
    8100:	e92d4030 	push	{r4, r5, lr}
    8104:	e24dd00c 	sub	sp, sp, #12, 0
    8108:	e2503000 	subs	r3, r0, #0, 0
    810c:	0a00000d 	beq	8148 <list_remove+0x48>
    8110:	e1a04001 	mov	r4, r1
    8114:	e5930000 	ldr	r0, [r3]
    8118:	e1500001 	cmp	r0, r1
    811c:	0a000011 	beq	8168 <list_remove+0x68>
    8120:	e1a05000 	mov	r5, r0
    8124:	ebfffff1 	bl	80f0 <ck_next_hdr>
    8128:	e3500000 	cmp	r0, #0, 0
    812c:	0a000010 	beq	8174 <list_remove+0x74>
    8130:	e1540000 	cmp	r4, r0
    8134:	1afffff9 	bne	8120 <list_remove+0x20>
    8138:	e5903000 	ldr	r3, [r0]
    813c:	e5853000 	str	r3, [r5]
    8140:	e28dd00c 	add	sp, sp, #12, 0
    8144:	e8bd8030 	pop	{r4, r5, pc}
    8148:	e59f3040 	ldr	r3, [pc, #64]	; 8190 <list_remove+0x90>
    814c:	e58d3000 	str	r3, [sp]
    8150:	e3a0303c 	mov	r3, #60, 0	; 0x3c
    8154:	e59f2038 	ldr	r2, [pc, #56]	; 8194 <list_remove+0x94>
    8158:	e59f1038 	ldr	r1, [pc, #56]	; 8198 <list_remove+0x98>
    815c:	e59f0038 	ldr	r0, [pc, #56]	; 819c <list_remove+0x9c>
    8160:	eb0002a4 	bl	8bf8 <printk>
    8164:	eb000534 	bl	963c <clean_reboot>
    8168:	e5912000 	ldr	r2, [r1]
    816c:	e5832000 	str	r2, [r3]
    8170:	eafffff2 	b	8140 <list_remove+0x40>
    8174:	e58d4000 	str	r4, [sp]
    8178:	e3a0304f 	mov	r3, #79, 0	; 0x4f
    817c:	e59f2010 	ldr	r2, [pc, #16]	; 8194 <list_remove+0x94>
    8180:	e59f1010 	ldr	r1, [pc, #16]	; 8198 <list_remove+0x98>
    8184:	e59f0014 	ldr	r0, [pc, #20]	; 81a0 <list_remove+0xa0>
    8188:	eb00029a 	bl	8bf8 <printk>
    818c:	eb00052a 	bl	963c <clean_reboot>
    8190:	0000a1e8 	andeq	sl, r0, r8, ror #3
    8194:	0000a2ac 	andeq	sl, r0, ip, lsr #5
    8198:	0000a1c8 	andeq	sl, r0, r8, asr #3
    819c:	0000a1d4 	ldrdeq	sl, [r0], -r4
    81a0:	0000a1ec 	andeq	sl, r0, ip, ror #3

000081a4 <ck_hdr_start>:
    81a4:	e2800024 	add	r0, r0, #36, 0	; 0x24
    81a8:	e12fff1e 	bx	lr

000081ac <ck_hdr_end>:
    81ac:	e92d4010 	push	{r4, lr}
    81b0:	e1a04000 	mov	r4, r0
    81b4:	ebfffffa 	bl	81a4 <ck_hdr_start>
    81b8:	e5943004 	ldr	r3, [r4, #4]
    81bc:	e0800003 	add	r0, r0, r3
    81c0:	e8bd8010 	pop	{r4, pc}

000081c4 <ck_ptr_in_block>:
    81c4:	e92d4070 	push	{r4, r5, r6, lr}
    81c8:	e1a06000 	mov	r6, r0
    81cc:	e1a04001 	mov	r4, r1
    81d0:	ebfffff3 	bl	81a4 <ck_hdr_start>
    81d4:	e1a05000 	mov	r5, r0
    81d8:	e1a00006 	mov	r0, r6
    81dc:	ebfffff2 	bl	81ac <ck_hdr_end>
    81e0:	e1550004 	cmp	r5, r4
    81e4:	91540000 	cmpls	r4, r0
    81e8:	33a00001 	movcc	r0, #1, 0
    81ec:	23a00000 	movcs	r0, #0, 0
    81f0:	e8bd8070 	pop	{r4, r5, r6, pc}

000081f4 <ck_ptr_is_alloced>:
    81f4:	e92d4070 	push	{r4, r5, r6, lr}
    81f8:	e1a05000 	mov	r5, r0
    81fc:	ebffffb7 	bl	80e0 <ck_first_hdr>
    8200:	e1a04000 	mov	r4, r0
    8204:	e3540000 	cmp	r4, #0, 0
    8208:	0a00000c 	beq	8240 <ck_ptr_is_alloced+0x4c>
    820c:	e1a01005 	mov	r1, r5
    8210:	e1a00004 	mov	r0, r4
    8214:	ebffffea 	bl	81c4 <ck_ptr_in_block>
    8218:	e3500000 	cmp	r0, #0, 0
    821c:	1a000003 	bne	8230 <ck_ptr_is_alloced+0x3c>
    8220:	e1a00004 	mov	r0, r4
    8224:	ebffffb1 	bl	80f0 <ck_next_hdr>
    8228:	e1a04000 	mov	r4, r0
    822c:	eafffff4 	b	8204 <ck_ptr_is_alloced+0x10>
    8230:	e1a02004 	mov	r2, r4
    8234:	e1a01005 	mov	r1, r5
    8238:	e59f0008 	ldr	r0, [pc, #8]	; 8248 <ck_ptr_is_alloced+0x54>
    823c:	eb00026d 	bl	8bf8 <printk>
    8240:	e1a00004 	mov	r0, r4
    8244:	e8bd8070 	pop	{r4, r5, r6, pc}
    8248:	0000a218 	andeq	sl, r0, r8, lsl r2

0000824c <ckfree>:
    824c:	e92d41f0 	push	{r4, r5, r6, r7, r8, lr}
    8250:	e24dd018 	sub	sp, sp, #24, 0
    8254:	e1a04000 	mov	r4, r0
    8258:	e28d0018 	add	r0, sp, #24, 0
    825c:	e900000e 	stmdb	r0, {r1, r2, r3}
    8260:	e59d600c 	ldr	r6, [sp, #12]
    8264:	e59d7010 	ldr	r7, [sp, #16]
    8268:	e59d8014 	ldr	r8, [sp, #20]
    826c:	e1a03008 	mov	r3, r8
    8270:	e1a02007 	mov	r2, r7
    8274:	e1a01006 	mov	r1, r6
    8278:	e59f0094 	ldr	r0, [pc, #148]	; 8314 <ckfree+0xc8>
    827c:	eb00025d 	bl	8bf8 <printk>
    8280:	e1a01004 	mov	r1, r4
    8284:	e59f008c 	ldr	r0, [pc, #140]	; 8318 <ckfree+0xcc>
    8288:	eb00025a 	bl	8bf8 <printk>
    828c:	e514301c 	ldr	r3, [r4, #-28]	; 0xffffffe4
    8290:	e353000b 	cmp	r3, #11, 0
    8294:	1a00000d 	bne	82d0 <ckfree+0x84>
    8298:	e2445024 	sub	r5, r4, #36, 0	; 0x24
    829c:	e3a0300c 	mov	r3, #12, 0
    82a0:	e504301c 	str	r3, [r4, #-28]	; 0xffffffe4
    82a4:	e1a00004 	mov	r0, r4
    82a8:	ebffffd1 	bl	81f4 <ck_ptr_is_alloced>
    82ac:	e3500000 	cmp	r0, #0, 0
    82b0:	0a00000f 	beq	82f4 <ckfree+0xa8>
    82b4:	e1a01005 	mov	r1, r5
    82b8:	e59f005c 	ldr	r0, [pc, #92]	; 831c <ckfree+0xd0>
    82bc:	ebffff8f 	bl	8100 <list_remove>
    82c0:	e1a00005 	mov	r0, r5
    82c4:	eb00003f 	bl	83c8 <kr_free>
    82c8:	e28dd018 	add	sp, sp, #24, 0
    82cc:	e8bd81f0 	pop	{r4, r5, r6, r7, r8, pc}
    82d0:	e1a03008 	mov	r3, r8
    82d4:	e1a02007 	mov	r2, r7
    82d8:	e1a01006 	mov	r1, r6
    82dc:	e59f003c 	ldr	r0, [pc, #60]	; 8320 <ckfree+0xd4>
    82e0:	eb000244 	bl	8bf8 <printk>
    82e4:	e514101c 	ldr	r1, [r4, #-28]	; 0xffffffe4
    82e8:	e59f0034 	ldr	r0, [pc, #52]	; 8324 <ckfree+0xd8>
    82ec:	eb000241 	bl	8bf8 <printk>
    82f0:	eb0004d1 	bl	963c <clean_reboot>
    82f4:	e59f302c 	ldr	r3, [pc, #44]	; 8328 <ckfree+0xdc>
    82f8:	e58d3000 	str	r3, [sp]
    82fc:	e3a0305d 	mov	r3, #93, 0	; 0x5d
    8300:	e59f2024 	ldr	r2, [pc, #36]	; 832c <ckfree+0xe0>
    8304:	e59f1024 	ldr	r1, [pc, #36]	; 8330 <ckfree+0xe4>
    8308:	e59f0024 	ldr	r0, [pc, #36]	; 8334 <ckfree+0xe8>
    830c:	eb000239 	bl	8bf8 <printk>
    8310:	eb0004c9 	bl	963c <clean_reboot>
    8314:	0000a228 	andeq	sl, r0, r8, lsr #4
    8318:	0000a234 	andeq	sl, r0, r4, lsr r2
    831c:	0000a988 	andeq	sl, r0, r8, lsl #19
    8320:	0000a244 	andeq	sl, r0, r4, asr #4
    8324:	0000a25c 	andeq	sl, r0, ip, asr r2
    8328:	0000a284 	andeq	sl, r0, r4, lsl #5
    832c:	0000a2b8 			; <UNDEFINED> instruction: 0x0000a2b8
    8330:	0000a1c8 	andeq	sl, r0, r8, asr #3
    8334:	0000a1d4 	ldrdeq	sl, [r0], -r4

00008338 <ckalloc>:
    8338:	e92d4070 	push	{r4, r5, r6, lr}
    833c:	e24dd010 	sub	sp, sp, #16, 0
    8340:	e1a06000 	mov	r6, r0
    8344:	e28d5004 	add	r5, sp, #4, 0
    8348:	e885000e 	stm	r5, {r1, r2, r3}
    834c:	e2800024 	add	r0, r0, #36, 0	; 0x24
    8350:	eb00005c 	bl	84c8 <kr_malloc>
    8354:	e1a04000 	mov	r4, r0
    8358:	e3a02024 	mov	r2, #36, 0	; 0x24
    835c:	e3a01000 	mov	r1, #0, 0
    8360:	eb000206 	bl	8b80 <memset>
    8364:	e5846004 	str	r6, [r4, #4]
    8368:	e3a0300b 	mov	r3, #11, 0
    836c:	e5843008 	str	r3, [r4, #8]
    8370:	e284300c 	add	r3, r4, #12, 0
    8374:	e8950007 	ldm	r5, {r0, r1, r2}
    8378:	e8830007 	stm	r3, {r0, r1, r2}
    837c:	e59d300c 	ldr	r3, [sp, #12]
    8380:	e59d2008 	ldr	r2, [sp, #8]
    8384:	e59d1004 	ldr	r1, [sp, #4]
    8388:	e59f002c 	ldr	r0, [pc, #44]	; 83bc <ckalloc+0x84>
    838c:	eb000219 	bl	8bf8 <printk>
    8390:	e2845024 	add	r5, r4, #36, 0	; 0x24
    8394:	e1a01005 	mov	r1, r5
    8398:	e59f0020 	ldr	r0, [pc, #32]	; 83c0 <ckalloc+0x88>
    839c:	eb000215 	bl	8bf8 <printk>
    83a0:	e59f301c 	ldr	r3, [pc, #28]	; 83c4 <ckalloc+0x8c>
    83a4:	e5932000 	ldr	r2, [r3]
    83a8:	e5842000 	str	r2, [r4]
    83ac:	e5834000 	str	r4, [r3]
    83b0:	e1a00005 	mov	r0, r5
    83b4:	e28dd010 	add	sp, sp, #16, 0
    83b8:	e8bd8070 	pop	{r4, r5, r6, pc}
    83bc:	0000a228 	andeq	sl, r0, r8, lsr #4
    83c0:	0000a29c 	muleq	r0, ip, r2
    83c4:	0000a988 	andeq	sl, r0, r8, lsl #19

000083c8 <kr_free>:
    83c8:	e52de004 	push	{lr}		; (str lr, [sp, #-4]!)
    83cc:	e2401008 	sub	r1, r0, #8, 0
    83d0:	e59f30a8 	ldr	r3, [pc, #168]	; 8480 <kr_free+0xb8>
    83d4:	e5933000 	ldr	r3, [r3]
    83d8:	ea000000 	b	83e0 <kr_free+0x18>
    83dc:	e1a03002 	mov	r3, r2
    83e0:	e1530001 	cmp	r3, r1
    83e4:	2a000002 	bcs	83f4 <kr_free+0x2c>
    83e8:	e5932000 	ldr	r2, [r3]
    83ec:	e1520001 	cmp	r2, r1
    83f0:	8a000007 	bhi	8414 <kr_free+0x4c>
    83f4:	e5932000 	ldr	r2, [r3]
    83f8:	e1520003 	cmp	r2, r3
    83fc:	8afffff6 	bhi	83dc <kr_free+0x14>
    8400:	e1530001 	cmp	r3, r1
    8404:	3a000002 	bcc	8414 <kr_free+0x4c>
    8408:	e1520001 	cmp	r2, r1
    840c:	91a03002 	movls	r3, r2
    8410:	9afffff2 	bls	83e0 <kr_free+0x18>
    8414:	e510c004 	ldr	ip, [r0, #-4]
    8418:	e081e18c 	add	lr, r1, ip, lsl #3
    841c:	e5932000 	ldr	r2, [r3]
    8420:	e15e0002 	cmp	lr, r2
    8424:	0a000008 	beq	844c <kr_free+0x84>
    8428:	e5002008 	str	r2, [r0, #-8]
    842c:	e5932004 	ldr	r2, [r3, #4]
    8430:	e083c182 	add	ip, r3, r2, lsl #3
    8434:	e15c0001 	cmp	ip, r1
    8438:	0a00000a 	beq	8468 <kr_free+0xa0>
    843c:	e5831000 	str	r1, [r3]
    8440:	e59f2038 	ldr	r2, [pc, #56]	; 8480 <kr_free+0xb8>
    8444:	e5823000 	str	r3, [r2]
    8448:	e49df004 	pop	{pc}		; (ldr pc, [sp], #4)
    844c:	e5922004 	ldr	r2, [r2, #4]
    8450:	e08cc002 	add	ip, ip, r2
    8454:	e500c004 	str	ip, [r0, #-4]
    8458:	e5932000 	ldr	r2, [r3]
    845c:	e5922000 	ldr	r2, [r2]
    8460:	e5002008 	str	r2, [r0, #-8]
    8464:	eafffff0 	b	842c <kr_free+0x64>
    8468:	e5101004 	ldr	r1, [r0, #-4]
    846c:	e0822001 	add	r2, r2, r1
    8470:	e5832004 	str	r2, [r3, #4]
    8474:	e5102008 	ldr	r2, [r0, #-8]
    8478:	e5832000 	str	r2, [r3]
    847c:	eaffffef 	b	8440 <kr_free+0x78>
    8480:	0000a990 	muleq	r0, r0, r9

00008484 <morecore>:
    8484:	e92d4010 	push	{r4, lr}
    8488:	e1a04000 	mov	r4, r0
    848c:	e3500b01 	cmp	r0, #1024	; 0x400
    8490:	33a04b01 	movcc	r4, #1024	; 0x400
    8494:	e1a00184 	lsl	r0, r4, #3
    8498:	eb00014f 	bl	89dc <sbrk>
    849c:	e3700001 	cmn	r0, #1, 0
    84a0:	0a000005 	beq	84bc <morecore+0x38>
    84a4:	e5804004 	str	r4, [r0, #4]
    84a8:	e2800008 	add	r0, r0, #8, 0
    84ac:	ebffffc5 	bl	83c8 <kr_free>
    84b0:	e59f300c 	ldr	r3, [pc, #12]	; 84c4 <morecore+0x40>
    84b4:	e5930000 	ldr	r0, [r3]
    84b8:	e8bd8010 	pop	{r4, pc}
    84bc:	e3a00000 	mov	r0, #0, 0
    84c0:	e8bd8010 	pop	{r4, pc}
    84c4:	0000a990 	muleq	r0, r0, r9

000084c8 <kr_malloc>:
    84c8:	e92d4010 	push	{r4, lr}
    84cc:	e2804007 	add	r4, r0, #7, 0
    84d0:	e1a041a4 	lsr	r4, r4, #3
    84d4:	e2844001 	add	r4, r4, #1, 0
    84d8:	e59f3090 	ldr	r3, [pc, #144]	; 8570 <kr_malloc+0xa8>
    84dc:	e5932000 	ldr	r2, [r3]
    84e0:	e3520000 	cmp	r2, #0, 0
    84e4:	0a000001 	beq	84f0 <kr_malloc+0x28>
    84e8:	e5920000 	ldr	r0, [r2]
    84ec:	ea000013 	b	8540 <kr_malloc+0x78>
    84f0:	e2832008 	add	r2, r3, #8, 0
    84f4:	e5832000 	str	r2, [r3]
    84f8:	e5832008 	str	r2, [r3, #8]
    84fc:	e3a01000 	mov	r1, #0, 0
    8500:	e583100c 	str	r1, [r3, #12]
    8504:	eafffff7 	b	84e8 <kr_malloc+0x20>
    8508:	0a000007 	beq	852c <kr_malloc+0x64>
    850c:	e0433004 	sub	r3, r3, r4
    8510:	e5803004 	str	r3, [r0, #4]
    8514:	e0800183 	add	r0, r0, r3, lsl #3
    8518:	e5804004 	str	r4, [r0, #4]
    851c:	e59f304c 	ldr	r3, [pc, #76]	; 8570 <kr_malloc+0xa8>
    8520:	e5832000 	str	r2, [r3]
    8524:	e2800008 	add	r0, r0, #8, 0
    8528:	e8bd8010 	pop	{r4, pc}
    852c:	e5903000 	ldr	r3, [r0]
    8530:	e5823000 	str	r3, [r2]
    8534:	eafffff8 	b	851c <kr_malloc+0x54>
    8538:	e1a02000 	mov	r2, r0
    853c:	e5900000 	ldr	r0, [r0]
    8540:	e5903004 	ldr	r3, [r0, #4]
    8544:	e1530004 	cmp	r3, r4
    8548:	2affffee 	bcs	8508 <kr_malloc+0x40>
    854c:	e59f301c 	ldr	r3, [pc, #28]	; 8570 <kr_malloc+0xa8>
    8550:	e5933000 	ldr	r3, [r3]
    8554:	e1530000 	cmp	r3, r0
    8558:	1afffff6 	bne	8538 <kr_malloc+0x70>
    855c:	e1a00004 	mov	r0, r4
    8560:	ebffffc7 	bl	8484 <morecore>
    8564:	e3500000 	cmp	r0, #0, 0
    8568:	1afffff2 	bne	8538 <kr_malloc+0x70>
    856c:	e8bd8010 	pop	{r4, pc}
    8570:	0000a990 	muleq	r0, r0, r9

00008574 <in_heap>:
    8574:	e59f3030 	ldr	r3, [pc, #48]	; 85ac <in_heap+0x38>
    8578:	e5933000 	ldr	r3, [r3]
    857c:	e1530000 	cmp	r3, r0
    8580:	8a000005 	bhi	859c <in_heap+0x28>
    8584:	e59f3020 	ldr	r3, [pc, #32]	; 85ac <in_heap+0x38>
    8588:	e5933004 	ldr	r3, [r3, #4]
    858c:	e1530000 	cmp	r3, r0
    8590:	9a000003 	bls	85a4 <in_heap+0x30>
    8594:	e3a00001 	mov	r0, #1, 0
    8598:	e12fff1e 	bx	lr
    859c:	e3a00000 	mov	r0, #0, 0
    85a0:	e12fff1e 	bx	lr
    85a4:	e3a00000 	mov	r0, #0, 0
    85a8:	e12fff1e 	bx	lr
    85ac:	0000a9a0 	andeq	sl, r0, r0, lsr #19

000085b0 <is_ptr>:
    85b0:	e92d4010 	push	{r4, lr}
    85b4:	e1a04000 	mov	r4, r0
    85b8:	ebffffed 	bl	8574 <in_heap>
    85bc:	e3500000 	cmp	r0, #0, 0
    85c0:	0a000002 	beq	85d0 <is_ptr+0x20>
    85c4:	e1a00004 	mov	r0, r4
    85c8:	ebffff09 	bl	81f4 <ck_ptr_is_alloced>
    85cc:	e8bd8010 	pop	{r4, pc}
    85d0:	e3a00000 	mov	r0, #0, 0
    85d4:	e8bd8010 	pop	{r4, pc}

000085d8 <mark>:
    85d8:	e92d41f0 	push	{r4, r5, r6, r7, r8, lr}
    85dc:	e24dd008 	sub	sp, sp, #8, 0
    85e0:	e1500001 	cmp	r0, r1
    85e4:	2a00000d 	bcs	8620 <mark+0x48>
    85e8:	e1a04000 	mov	r4, r0
    85ec:	e1a06001 	mov	r6, r1
    85f0:	e3100003 	tst	r0, #3, 0
    85f4:	1a000011 	bne	8640 <mark+0x68>
    85f8:	e3110003 	tst	r1, #3, 0
    85fc:	0a00001f 	beq	8680 <mark+0xa8>
    8600:	e59f3114 	ldr	r3, [pc, #276]	; 871c <mark+0x144>
    8604:	e58d3000 	str	r3, [sp]
    8608:	e3a03056 	mov	r3, #86, 0	; 0x56
    860c:	e59f210c 	ldr	r2, [pc, #268]	; 8720 <mark+0x148>
    8610:	e59f110c 	ldr	r1, [pc, #268]	; 8724 <mark+0x14c>
    8614:	e59f010c 	ldr	r0, [pc, #268]	; 8728 <mark+0x150>
    8618:	eb000176 	bl	8bf8 <printk>
    861c:	eb000406 	bl	963c <clean_reboot>
    8620:	e59f3104 	ldr	r3, [pc, #260]	; 872c <mark+0x154>
    8624:	e58d3000 	str	r3, [sp]
    8628:	e3a03052 	mov	r3, #82, 0	; 0x52
    862c:	e59f20ec 	ldr	r2, [pc, #236]	; 8720 <mark+0x148>
    8630:	e59f10ec 	ldr	r1, [pc, #236]	; 8724 <mark+0x14c>
    8634:	e59f00ec 	ldr	r0, [pc, #236]	; 8728 <mark+0x150>
    8638:	eb00016e 	bl	8bf8 <printk>
    863c:	eb0003fe 	bl	963c <clean_reboot>
    8640:	e59f30e8 	ldr	r3, [pc, #232]	; 8730 <mark+0x158>
    8644:	e58d3000 	str	r3, [sp]
    8648:	e3a03055 	mov	r3, #85, 0	; 0x55
    864c:	e59f20cc 	ldr	r2, [pc, #204]	; 8720 <mark+0x148>
    8650:	e59f10cc 	ldr	r1, [pc, #204]	; 8724 <mark+0x14c>
    8654:	e59f00cc 	ldr	r0, [pc, #204]	; 8728 <mark+0x150>
    8658:	eb000166 	bl	8bf8 <printk>
    865c:	eb0003f6 	bl	963c <clean_reboot>
    8660:	e3a03002 	mov	r3, #2, 0
    8664:	ea00001b 	b	86d8 <mark+0x100>
    8668:	e3a01002 	mov	r1, #2, 0
    866c:	e59f00c0 	ldr	r0, [pc, #192]	; 8734 <mark+0x15c>
    8670:	eb000160 	bl	8bf8 <printk>
    8674:	e3580000 	cmp	r8, #0, 0
    8678:	0a00001c 	beq	86f0 <mark+0x118>
    867c:	e2844004 	add	r4, r4, #4, 0
    8680:	e1540006 	cmp	r4, r6
    8684:	8a000022 	bhi	8714 <mark+0x13c>
    8688:	e5940000 	ldr	r0, [r4]
    868c:	ebffffc7 	bl	85b0 <is_ptr>
    8690:	e2505000 	subs	r5, r0, #0, 0
    8694:	0afffff8 	beq	867c <mark+0xa4>
    8698:	e2857024 	add	r7, r5, #36, 0	; 0x24
    869c:	e1d582b0 	ldrh	r8, [r5, #32]
    86a0:	e1a00005 	mov	r0, r5
    86a4:	ebfffebe 	bl	81a4 <ck_hdr_start>
    86a8:	e1a01000 	mov	r1, r0
    86ac:	e58d7000 	str	r7, [sp]
    86b0:	e5943000 	ldr	r3, [r4]
    86b4:	e1a02004 	mov	r2, r4
    86b8:	e59f0078 	ldr	r0, [pc, #120]	; 8738 <mark+0x160>
    86bc:	eb00014d 	bl	8bf8 <printk>
    86c0:	e3580001 	cmp	r8, #1, 0
    86c4:	8a00000f 	bhi	8708 <mark+0x130>
    86c8:	e5943000 	ldr	r3, [r4]
    86cc:	e1530007 	cmp	r3, r7
    86d0:	0affffe2 	beq	8660 <mark+0x88>
    86d4:	e3a03001 	mov	r3, #1, 0
    86d8:	e1c532b0 	strh	r3, [r5, #32]
    86dc:	e5943000 	ldr	r3, [r4]
    86e0:	e1530007 	cmp	r3, r7
    86e4:	0affffdf 	beq	8668 <mark+0x90>
    86e8:	e3a01001 	mov	r1, #1, 0
    86ec:	eaffffde 	b	866c <mark+0x94>
    86f0:	e5951004 	ldr	r1, [r5, #4]
    86f4:	e2811024 	add	r1, r1, #36, 0	; 0x24
    86f8:	e0851001 	add	r1, r5, r1
    86fc:	e2850004 	add	r0, r5, #4, 0
    8700:	ebffffb4 	bl	85d8 <mark>
    8704:	eaffffdc 	b	867c <mark+0xa4>
    8708:	e59f002c 	ldr	r0, [pc, #44]	; 873c <mark+0x164>
    870c:	eb000139 	bl	8bf8 <printk>
    8710:	eaffffd9 	b	867c <mark+0xa4>
    8714:	e28dd008 	add	sp, sp, #8, 0
    8718:	e8bd81f0 	pop	{r4, r5, r6, r7, r8, pc}
    871c:	0000a2e0 	andeq	sl, r0, r0, ror #5
    8720:	0000a5b8 			; <UNDEFINED> instruction: 0x0000a5b8
    8724:	0000a2c0 	andeq	sl, r0, r0, asr #5
    8728:	0000a1d4 	ldrdeq	sl, [r0], -r4
    872c:	0000a2c8 	andeq	sl, r0, r8, asr #5
    8730:	0000a2d0 	ldrdeq	sl, [r0], -r0
    8734:	0000a31c 	andeq	sl, r0, ip, lsl r3
    8738:	0000a2f0 	strdeq	sl, [r0], -r0
    873c:	0000a32c 	andeq	sl, r0, ip, lsr #6

00008740 <mark_all>:
    8740:	e52de004 	push	{lr}		; (str lr, [sp, #-4]!)
    8744:	e24dd044 	sub	sp, sp, #68, 0	; 0x44
    8748:	ebfffe64 	bl	80e0 <ck_first_hdr>
    874c:	e3500000 	cmp	r0, #0, 0
    8750:	0a000005 	beq	876c <mark_all+0x2c>
    8754:	e3a03000 	mov	r3, #0, 0
    8758:	e580301c 	str	r3, [r0, #28]
    875c:	e5803018 	str	r3, [r0, #24]
    8760:	e1c032b0 	strh	r3, [r0, #32]
    8764:	ebfffe61 	bl	80f0 <ck_next_hdr>
    8768:	eafffff7 	b	874c <mark_all+0xc>
    876c:	e1a0000d 	mov	r0, sp
    8770:	eb000100 	bl	8b78 <dump_regs>
    8774:	e3a03000 	mov	r3, #0, 0
    8778:	e58d3000 	str	r3, [sp]
    877c:	e58d3004 	str	r3, [sp, #4]
    8780:	e58d3008 	str	r3, [sp, #8]
    8784:	e58d300c 	str	r3, [sp, #12]
    8788:	e28d1038 	add	r1, sp, #56, 0	; 0x38
    878c:	e1a0000d 	mov	r0, sp
    8790:	ebffff90 	bl	85d8 <mark>
    8794:	e3a02302 	mov	r2, #134217728	; 0x8000000
    8798:	e59d1034 	ldr	r1, [sp, #52]	; 0x34
    879c:	e59f002c 	ldr	r0, [pc, #44]	; 87d0 <mark_all+0x90>
    87a0:	eb000114 	bl	8bf8 <printk>
    87a4:	e3a01302 	mov	r1, #134217728	; 0x8000000
    87a8:	e59d0034 	ldr	r0, [sp, #52]	; 0x34
    87ac:	ebffff89 	bl	85d8 <mark>
    87b0:	e59f101c 	ldr	r1, [pc, #28]	; 87d4 <mark_all+0x94>
    87b4:	e59f001c 	ldr	r0, [pc, #28]	; 87d8 <mark_all+0x98>
    87b8:	ebffff86 	bl	85d8 <mark>
    87bc:	e59f1018 	ldr	r1, [pc, #24]	; 87dc <mark_all+0x9c>
    87c0:	e59f0018 	ldr	r0, [pc, #24]	; 87e0 <mark_all+0xa0>
    87c4:	ebffff83 	bl	85d8 <mark>
    87c8:	e28dd044 	add	sp, sp, #68, 0	; 0x44
    87cc:	e49df004 	pop	{pc}		; (ldr pc, [sp], #4)
    87d0:	0000a33c 	andeq	sl, r0, ip, lsr r3
    87d4:	0000adb0 			; <UNDEFINED> instruction: 0x0000adb0
    87d8:	0000a988 	andeq	sl, r0, r8, lsl #19
    87dc:	0000a988 	andeq	sl, r0, r8, lsl #19
    87e0:	0000a974 	andeq	sl, r0, r4, ror r9

000087e4 <sweep_leak>:
    87e4:	e92d41f0 	push	{r4, r5, r6, r7, r8, lr}
    87e8:	e1a08000 	mov	r8, r0
    87ec:	e59f00dc 	ldr	r0, [pc, #220]	; 88d0 <sweep_leak+0xec>
    87f0:	eb000100 	bl	8bf8 <printk>
    87f4:	e59f00d8 	ldr	r0, [pc, #216]	; 88d4 <sweep_leak+0xf0>
    87f8:	eb0000fe 	bl	8bf8 <printk>
    87fc:	ebffffcf 	bl	8740 <mark_all>
    8800:	ebfffe36 	bl	80e0 <ck_first_hdr>
    8804:	e1a04000 	mov	r4, r0
    8808:	e3a07000 	mov	r7, #0, 0
    880c:	e1a06007 	mov	r6, r7
    8810:	e1a05007 	mov	r5, r7
    8814:	ea000007 	b	8838 <sweep_leak+0x54>
    8818:	e2866001 	add	r6, r6, #1, 0
    881c:	e1a02004 	mov	r2, r4
    8820:	e1a01005 	mov	r1, r5
    8824:	e59f00ac 	ldr	r0, [pc, #172]	; 88d8 <sweep_leak+0xf4>
    8828:	eb0000f2 	bl	8bf8 <printk>
    882c:	e1a00004 	mov	r0, r4
    8830:	ebfffe2e 	bl	80f0 <ck_next_hdr>
    8834:	e1a04000 	mov	r4, r0
    8838:	e3540000 	cmp	r4, #0, 0
    883c:	0a00000b 	beq	8870 <sweep_leak+0x8c>
    8840:	e2855001 	add	r5, r5, #1, 0
    8844:	e1d432b0 	ldrh	r3, [r4, #32]
    8848:	e3530000 	cmp	r3, #0, 0
    884c:	0afffff1 	beq	8818 <sweep_leak+0x34>
    8850:	e3530001 	cmp	r3, #1, 0
    8854:	1afffff4 	bne	882c <sweep_leak+0x48>
    8858:	e2877001 	add	r7, r7, #1, 0
    885c:	e1a02004 	mov	r2, r4
    8860:	e1a01005 	mov	r1, r5
    8864:	e59f0070 	ldr	r0, [pc, #112]	; 88dc <sweep_leak+0xf8>
    8868:	eb0000e2 	bl	8bf8 <printk>
    886c:	eaffffee 	b	882c <sweep_leak+0x48>
    8870:	e59f0068 	ldr	r0, [pc, #104]	; 88e0 <sweep_leak+0xfc>
    8874:	eb0000df 	bl	8bf8 <printk>
    8878:	e1a01005 	mov	r1, r5
    887c:	e59f0060 	ldr	r0, [pc, #96]	; 88e4 <sweep_leak+0x100>
    8880:	eb0000dc 	bl	8bf8 <printk>
    8884:	e1963007 	orrs	r3, r6, r7
    8888:	1a000009 	bne	88b4 <sweep_leak+0xd0>
    888c:	e59f004c 	ldr	r0, [pc, #76]	; 88e0 <sweep_leak+0xfc>
    8890:	eb0000d8 	bl	8bf8 <printk>
    8894:	e59f004c 	ldr	r0, [pc, #76]	; 88e8 <sweep_leak+0x104>
    8898:	eb0000d6 	bl	8bf8 <printk>
    889c:	e59f0048 	ldr	r0, [pc, #72]	; 88ec <sweep_leak+0x108>
    88a0:	eb0000d4 	bl	8bf8 <printk>
    88a4:	e3580000 	cmp	r8, #0, 0
    88a8:	10866007 	addne	r6, r6, r7
    88ac:	e1a00006 	mov	r0, r6
    88b0:	e8bd81f0 	pop	{r4, r5, r6, r7, r8, pc}
    88b4:	e59f0024 	ldr	r0, [pc, #36]	; 88e0 <sweep_leak+0xfc>
    88b8:	eb0000ce 	bl	8bf8 <printk>
    88bc:	e1a02007 	mov	r2, r7
    88c0:	e1a01006 	mov	r1, r6
    88c4:	e59f0024 	ldr	r0, [pc, #36]	; 88f0 <sweep_leak+0x10c>
    88c8:	eb0000ca 	bl	8bf8 <printk>
    88cc:	eafffff2 	b	889c <sweep_leak+0xb8>
    88d0:	0000a358 	andeq	sl, r0, r8, asr r3
    88d4:	0000a394 	muleq	r0, r4, r3
    88d8:	0000a3ac 	andeq	sl, r0, ip, lsr #7
    88dc:	0000a3c0 	andeq	sl, r0, r0, asr #7
    88e0:	0000a3d8 	ldrdeq	sl, [r0], -r8
    88e4:	0000a3e0 	andeq	sl, r0, r0, ror #7
    88e8:	0000a3f8 	strdeq	sl, [r0], -r8
    88ec:	0000a444 	andeq	sl, r0, r4, asr #8
    88f0:	0000a418 	andeq	sl, r0, r8, lsl r4

000088f4 <sweep_free>:
    88f4:	e92d41f0 	push	{r4, r5, r6, r7, r8, lr}
    88f8:	e24dd010 	sub	sp, sp, #16, 0
    88fc:	e59f00b8 	ldr	r0, [pc, #184]	; 89bc <sweep_free+0xc8>
    8900:	eb0000bc 	bl	8bf8 <printk>
    8904:	e59f00b4 	ldr	r0, [pc, #180]	; 89c0 <sweep_free+0xcc>
    8908:	eb0000ba 	bl	8bf8 <printk>
    890c:	ebffff8b 	bl	8740 <mark_all>
    8910:	ebfffdf2 	bl	80e0 <ck_first_hdr>
    8914:	e1a04000 	mov	r4, r0
    8918:	e3a07000 	mov	r7, #0, 0
    891c:	e1a08007 	mov	r8, r7
    8920:	e1a05007 	mov	r5, r7
    8924:	ea000013 	b	8978 <sweep_free+0x84>
    8928:	e2888001 	add	r8, r8, #1, 0
    892c:	e5943004 	ldr	r3, [r4, #4]
    8930:	e0877003 	add	r7, r7, r3
    8934:	e2846024 	add	r6, r4, #36, 0	; 0x24
    8938:	e59f3084 	ldr	r3, [pc, #132]	; 89c4 <sweep_free+0xd0>
    893c:	e58d3004 	str	r3, [sp, #4]
    8940:	e59f3080 	ldr	r3, [pc, #128]	; 89c8 <sweep_free+0xd4>
    8944:	e58d3008 	str	r3, [sp, #8]
    8948:	e59f307c 	ldr	r3, [pc, #124]	; 89cc <sweep_free+0xd8>
    894c:	e58d300c 	str	r3, [sp, #12]
    8950:	e28d3010 	add	r3, sp, #16, 0
    8954:	e913000e 	ldmdb	r3, {r1, r2, r3}
    8958:	e1a00006 	mov	r0, r6
    895c:	ebfffe3a 	bl	824c <ckfree>
    8960:	e1a01006 	mov	r1, r6
    8964:	e59f0064 	ldr	r0, [pc, #100]	; 89d0 <sweep_free+0xdc>
    8968:	eb0000a2 	bl	8bf8 <printk>
    896c:	e1a00004 	mov	r0, r4
    8970:	ebfffdde 	bl	80f0 <ck_next_hdr>
    8974:	e1a04000 	mov	r4, r0
    8978:	e3540000 	cmp	r4, #0, 0
    897c:	0a000004 	beq	8994 <sweep_free+0xa0>
    8980:	e2855001 	add	r5, r5, #1, 0
    8984:	e1d432b0 	ldrh	r3, [r4, #32]
    8988:	e3530000 	cmp	r3, #0, 0
    898c:	1afffff6 	bne	896c <sweep_free+0x78>
    8990:	eaffffe4 	b	8928 <sweep_free+0x34>
    8994:	e59f0038 	ldr	r0, [pc, #56]	; 89d4 <sweep_free+0xe0>
    8998:	eb000096 	bl	8bf8 <printk>
    899c:	e1a03007 	mov	r3, r7
    89a0:	e1a02008 	mov	r2, r8
    89a4:	e1a01005 	mov	r1, r5
    89a8:	e59f0028 	ldr	r0, [pc, #40]	; 89d8 <sweep_free+0xe4>
    89ac:	eb000091 	bl	8bf8 <printk>
    89b0:	e1a00007 	mov	r0, r7
    89b4:	e28dd010 	add	sp, sp, #16, 0
    89b8:	e8bd81f0 	pop	{r4, r5, r6, r7, r8, pc}
    89bc:	0000a358 	andeq	sl, r0, r8, asr r3
    89c0:	0000a480 	andeq	sl, r0, r0, lsl #9
    89c4:	0000a2c0 	andeq	sl, r0, r0, asr #5
    89c8:	0000a5c0 	andeq	sl, r0, r0, asr #11
    89cc:	00000101 	andeq	r0, r0, r1, lsl #2
    89d0:	0000a490 	muleq	r0, r0, r4
    89d4:	0000a3d8 	ldrdeq	sl, [r0], -r8
    89d8:	0000a4a0 	andeq	sl, r0, r0, lsr #9

000089dc <sbrk>:
    89dc:	e92d4030 	push	{r4, r5, lr}
    89e0:	e24dd00c 	sub	sp, sp, #12, 0
    89e4:	e2504000 	subs	r4, r0, #0, 0
    89e8:	da000010 	ble	8a30 <sbrk+0x54>
    89ec:	e59f3074 	ldr	r3, [pc, #116]	; 8a68 <sbrk+0x8c>
    89f0:	e5933008 	ldr	r3, [r3, #8]
    89f4:	e3530000 	cmp	r3, #0, 0
    89f8:	1a000014 	bne	8a50 <sbrk+0x74>
    89fc:	e59f5064 	ldr	r5, [pc, #100]	; 8a68 <sbrk+0x8c>
    8a00:	e3a00601 	mov	r0, #1048576	; 0x100000
    8a04:	e5850000 	str	r0, [r5]
    8a08:	e3a03602 	mov	r3, #2097152	; 0x200000
    8a0c:	e5853004 	str	r3, [r5, #4]
    8a10:	e1a01000 	mov	r1, r0
    8a14:	eb000444 	bl	9b2c <kmalloc_init_set_start>
    8a18:	e3a03001 	mov	r3, #1, 0
    8a1c:	e5853008 	str	r3, [r5, #8]
    8a20:	e1a00004 	mov	r0, r4
    8a24:	eb0004a3 	bl	9cb8 <kmalloc>
    8a28:	e28dd00c 	add	sp, sp, #12, 0
    8a2c:	e8bd8030 	pop	{r4, r5, pc}
    8a30:	e59f3034 	ldr	r3, [pc, #52]	; 8a6c <sbrk+0x90>
    8a34:	e58d3000 	str	r3, [sp]
    8a38:	e3a03017 	mov	r3, #23, 0
    8a3c:	e59f202c 	ldr	r2, [pc, #44]	; 8a70 <sbrk+0x94>
    8a40:	e59f102c 	ldr	r1, [pc, #44]	; 8a74 <sbrk+0x98>
    8a44:	e59f002c 	ldr	r0, [pc, #44]	; 8a78 <sbrk+0x9c>
    8a48:	eb00006a 	bl	8bf8 <printk>
    8a4c:	eb0002fa 	bl	963c <clean_reboot>
    8a50:	e3a03019 	mov	r3, #25, 0
    8a54:	e59f2014 	ldr	r2, [pc, #20]	; 8a70 <sbrk+0x94>
    8a58:	e59f1014 	ldr	r1, [pc, #20]	; 8a74 <sbrk+0x98>
    8a5c:	e59f0018 	ldr	r0, [pc, #24]	; 8a7c <sbrk+0xa0>
    8a60:	eb000064 	bl	8bf8 <printk>
    8a64:	eb0002f4 	bl	963c <clean_reboot>
    8a68:	0000a9a0 	andeq	sl, r0, r0, lsr #19
    8a6c:	0000a4cc 	andeq	sl, r0, ip, asr #9
    8a70:	0000a5cc 	andeq	sl, r0, ip, asr #11
    8a74:	0000a2c0 	andeq	sl, r0, r0, asr #5
    8a78:	0000a1d4 	ldrdeq	sl, [r0], -r4
    8a7c:	0000a4dc 	ldrdeq	sl, [r0], -ip

00008a80 <ck_find_leaks>:
    8a80:	e92d4010 	push	{r4, lr}
    8a84:	ebffff56 	bl	87e4 <sweep_leak>
    8a88:	e8bd8010 	pop	{r4, pc}

00008a8c <check_no_leak>:
    8a8c:	e92d4010 	push	{r4, lr}
    8a90:	e3a00001 	mov	r0, #1, 0
    8a94:	ebfffff9 	bl	8a80 <ck_find_leaks>
    8a98:	e3500000 	cmp	r0, #0, 0
    8a9c:	1a000004 	bne	8ab4 <check_no_leak+0x28>
    8aa0:	e59f0024 	ldr	r0, [pc, #36]	; 8acc <check_no_leak+0x40>
    8aa4:	eb000053 	bl	8bf8 <printk>
    8aa8:	e59f0020 	ldr	r0, [pc, #32]	; 8ad0 <check_no_leak+0x44>
    8aac:	eb000051 	bl	8bf8 <printk>
    8ab0:	e8bd8010 	pop	{r4, pc}
    8ab4:	e3a030dc 	mov	r3, #220, 0	; 0xdc
    8ab8:	e59f2014 	ldr	r2, [pc, #20]	; 8ad4 <check_no_leak+0x48>
    8abc:	e59f1014 	ldr	r1, [pc, #20]	; 8ad8 <check_no_leak+0x4c>
    8ac0:	e59f0014 	ldr	r0, [pc, #20]	; 8adc <check_no_leak+0x50>
    8ac4:	eb00004b 	bl	8bf8 <printk>
    8ac8:	eb0002db 	bl	963c <clean_reboot>
    8acc:	0000a3d8 	ldrdeq	sl, [r0], -r8
    8ad0:	0000a528 	andeq	sl, r0, r8, lsr #10
    8ad4:	0000a5d4 	ldrdeq	sl, [r0], -r4
    8ad8:	0000a2c0 	andeq	sl, r0, r0, asr #5
    8adc:	0000a4fc 	strdeq	sl, [r0], -ip

00008ae0 <check_should_leak>:
    8ae0:	e92d4010 	push	{r4, lr}
    8ae4:	e3a00001 	mov	r0, #1, 0
    8ae8:	ebffffe4 	bl	8a80 <ck_find_leaks>
    8aec:	e2504000 	subs	r4, r0, #0, 0
    8af0:	0a000006 	beq	8b10 <check_should_leak+0x30>
    8af4:	e59f002c 	ldr	r0, [pc, #44]	; 8b28 <check_should_leak+0x48>
    8af8:	eb00003e 	bl	8bf8 <printk>
    8afc:	e1a01004 	mov	r1, r4
    8b00:	e59f0024 	ldr	r0, [pc, #36]	; 8b2c <check_should_leak+0x4c>
    8b04:	eb00003b 	bl	8bf8 <printk>
    8b08:	e1a00004 	mov	r0, r4
    8b0c:	e8bd8010 	pop	{r4, pc}
    8b10:	e3a030eb 	mov	r3, #235, 0	; 0xeb
    8b14:	e59f2014 	ldr	r2, [pc, #20]	; 8b30 <check_should_leak+0x50>
    8b18:	e59f1014 	ldr	r1, [pc, #20]	; 8b34 <check_should_leak+0x54>
    8b1c:	e59f0014 	ldr	r0, [pc, #20]	; 8b38 <check_should_leak+0x58>
    8b20:	eb000034 	bl	8bf8 <printk>
    8b24:	eb0002c4 	bl	963c <clean_reboot>
    8b28:	0000a3d8 	ldrdeq	sl, [r0], -r8
    8b2c:	0000a568 	andeq	sl, r0, r8, ror #10
    8b30:	0000a5e4 	andeq	sl, r0, r4, ror #11
    8b34:	0000a2c0 	andeq	sl, r0, r0, asr #5
    8b38:	0000a540 	andeq	sl, r0, r0, asr #10

00008b3c <ck_gc>:
    8b3c:	e92d4010 	push	{r4, lr}
    8b40:	ebfffefe 	bl	8740 <mark_all>
    8b44:	ebffff6a 	bl	88f4 <sweep_free>
    8b48:	e8bd8010 	pop	{r4, pc}

00008b4c <implement_this>:
    8b4c:	e92d4010 	push	{r4, lr}
    8b50:	e59f3010 	ldr	r3, [pc, #16]	; 8b68 <implement_this+0x1c>
    8b54:	e59f2010 	ldr	r2, [pc, #16]	; 8b6c <implement_this+0x20>
    8b58:	e59f1010 	ldr	r1, [pc, #16]	; 8b70 <implement_this+0x24>
    8b5c:	e59f0010 	ldr	r0, [pc, #16]	; 8b74 <implement_this+0x28>
    8b60:	eb000024 	bl	8bf8 <printk>
    8b64:	eb0002b4 	bl	963c <clean_reboot>
    8b68:	00000117 	andeq	r0, r0, r7, lsl r1
    8b6c:	0000a5f8 	strdeq	sl, [r0], -r8
    8b70:	0000a2c0 	andeq	sl, r0, r0, asr #5
    8b74:	0000a588 	andeq	sl, r0, r8, lsl #11

00008b78 <dump_regs>:
    8b78:	e8a0ffff 	stmia	r0!, {r0, r1, r2, r3, r4, r5, r6, r7, r8, r9, sl, fp, ip, sp, lr, pc}
    8b7c:	e12fff1e 	bx	lr

00008b80 <memset>:
    8b80:	e92d4010 	push	{r4, lr}
    8b84:	e0804002 	add	r4, r0, r2
    8b88:	e1500004 	cmp	r0, r4
    8b8c:	28bd8010 	popcs	{r4, pc}
    8b90:	e2423001 	sub	r3, r2, #1, 0
    8b94:	e3530002 	cmp	r3, #2, 0
    8b98:	e6ef1071 	uxtb	r1, r1
    8b9c:	e1a03000 	mov	r3, r0
    8ba0:	9a00000b 	bls	8bd4 <memset+0x54>
    8ba4:	e181e401 	orr	lr, r1, r1, lsl #8
    8ba8:	e18ee801 	orr	lr, lr, r1, lsl #16
    8bac:	e3c2c003 	bic	ip, r2, #3, 0
    8bb0:	e18eec01 	orr	lr, lr, r1, lsl #24
    8bb4:	e08cc000 	add	ip, ip, r0
    8bb8:	e483e004 	str	lr, [r3], #4
    8bbc:	e153000c 	cmp	r3, ip
    8bc0:	1afffffc 	bne	8bb8 <memset+0x38>
    8bc4:	e3c23003 	bic	r3, r2, #3, 0
    8bc8:	e1520003 	cmp	r2, r3
    8bcc:	e0803003 	add	r3, r0, r3
    8bd0:	08bd8010 	popeq	{r4, pc}
    8bd4:	e1a02003 	mov	r2, r3
    8bd8:	e4c21001 	strb	r1, [r2], #1
    8bdc:	e1540002 	cmp	r4, r2
    8be0:	98bd8010 	popls	{r4, pc}
    8be4:	e2832002 	add	r2, r3, #2, 0
    8be8:	e1540002 	cmp	r4, r2
    8bec:	e5c31001 	strb	r1, [r3, #1]
    8bf0:	85c31002 	strbhi	r1, [r3, #2]
    8bf4:	e8bd8010 	pop	{r4, pc}

00008bf8 <printk>:
    8bf8:	e92d000f 	push	{r0, r1, r2, r3}
    8bfc:	e92d4030 	push	{r4, r5, lr}
    8c00:	e59f5040 	ldr	r5, [pc, #64]	; 8c48 <printk+0x50>
    8c04:	e24dd00c 	sub	sp, sp, #12, 0
    8c08:	e28d301c 	add	r3, sp, #28, 0
    8c0c:	e3a01b01 	mov	r1, #1024	; 0x400
    8c10:	e59d2018 	ldr	r2, [sp, #24]
    8c14:	e1a00005 	mov	r0, r5
    8c18:	e58d3004 	str	r3, [sp, #4]
    8c1c:	eb0000fb 	bl	9010 <va_printk>
    8c20:	e1a04000 	mov	r4, r0
    8c24:	e59f3020 	ldr	r3, [pc, #32]	; 8c4c <printk+0x54>
    8c28:	e1a00005 	mov	r0, r5
    8c2c:	e5933000 	ldr	r3, [r3]
    8c30:	e12fff33 	blx	r3
    8c34:	e1a00004 	mov	r0, r4
    8c38:	e28dd00c 	add	sp, sp, #12, 0
    8c3c:	e8bd4030 	pop	{r4, r5, lr}
    8c40:	e28dd010 	add	sp, sp, #16, 0
    8c44:	e12fff1e 	bx	lr
    8c48:	0000a9ac 	andeq	sl, r0, ip, lsr #19
    8c4c:	0000a974 	andeq	sl, r0, r4, ror r9

00008c50 <internal_putk>:
    8c50:	e92d4070 	push	{r4, r5, r6, lr}
    8c54:	e1a04000 	mov	r4, r0
    8c58:	e5d00000 	ldrb	r0, [r0]
    8c5c:	e3500000 	cmp	r0, #0, 0
    8c60:	0a000005 	beq	8c7c <internal_putk+0x2c>
    8c64:	e59f5018 	ldr	r5, [pc, #24]	; 8c84 <internal_putk+0x34>
    8c68:	e5953000 	ldr	r3, [r5]
    8c6c:	e12fff33 	blx	r3
    8c70:	e5f40001 	ldrb	r0, [r4, #1]!
    8c74:	e3500000 	cmp	r0, #0, 0
    8c78:	1afffffa 	bne	8c68 <internal_putk+0x18>
    8c7c:	e3a00001 	mov	r0, #1, 0
    8c80:	e8bd8070 	pop	{r4, r5, r6, pc}
    8c84:	0000a984 	andeq	sl, r0, r4, lsl #19

00008c88 <emit.constprop.0>:
    8c88:	e92d41f0 	push	{r4, r5, r6, r7, r8, lr}
    8c8c:	e3530080 	cmp	r3, #128, 0	; 0x80
    8c90:	e1a0c000 	mov	ip, r0
    8c94:	e24dd048 	sub	sp, sp, #72, 0	; 0x48
    8c98:	e1a00001 	mov	r0, r1
    8c9c:	ca000069 	bgt	8e48 <emit.constprop.0+0x1c0>
    8ca0:	e24c1002 	sub	r1, ip, #2, 0
    8ca4:	e1a0c002 	mov	ip, r2
    8ca8:	e351000e 	cmp	r1, #14, 0
    8cac:	979ff101 	ldrls	pc, [pc, r1, lsl #2]
    8cb0:	ea0000a7 	b	8f54 <emit.constprop.0+0x2cc>
    8cb4:	00008e20 	andeq	r8, r0, r0, lsr #28
    8cb8:	00008f54 	andeq	r8, r0, r4, asr pc
    8cbc:	00008f54 	andeq	r8, r0, r4, asr pc
    8cc0:	00008f54 	andeq	r8, r0, r4, asr pc
    8cc4:	00008f54 	andeq	r8, r0, r4, asr pc
    8cc8:	00008f54 	andeq	r8, r0, r4, asr pc
    8ccc:	00008efc 	strdeq	r8, [r0], -ip
    8cd0:	00008f54 	andeq	r8, r0, r4, asr pc
    8cd4:	00008e9c 	muleq	r0, ip, lr
    8cd8:	00008f54 	andeq	r8, r0, r4, asr pc
    8cdc:	00008f54 	andeq	r8, r0, r4, asr pc
    8ce0:	00008f54 	andeq	r8, r0, r4, asr pc
    8ce4:	00008f54 	andeq	r8, r0, r4, asr pc
    8ce8:	00008f54 	andeq	r8, r0, r4, asr pc
    8cec:	00008cf4 	strdeq	r8, [r0], -r4
    8cf0:	e3a0307f 	mov	r3, #127, 0	; 0x7f
    8cf4:	e28d2008 	add	r2, sp, #8, 0
    8cf8:	e1a04002 	mov	r4, r2
    8cfc:	e59f1288 	ldr	r1, [pc, #648]	; 8f8c <emit.constprop.0+0x304>
    8d00:	e20ce00f 	and	lr, ip, #15, 0
    8d04:	e7d1e00e 	ldrb	lr, [r1, lr]
    8d08:	e35c000f 	cmp	ip, #15, 0
    8d0c:	e4c4e001 	strb	lr, [r4], #1
    8d10:	e1a0c22c 	lsr	ip, ip, #4
    8d14:	8afffff9 	bhi	8d00 <emit.constprop.0+0x78>
    8d18:	e3a0c078 	mov	ip, #120, 0	; 0x78
    8d1c:	e1a0e004 	mov	lr, r4
    8d20:	e3a01030 	mov	r1, #48, 0	; 0x30
    8d24:	e4cec002 	strb	ip, [lr], #2
    8d28:	e5c41001 	strb	r1, [r4, #1]
    8d2c:	e04e1002 	sub	r1, lr, r2
    8d30:	e1510003 	cmp	r1, r3
    8d34:	aa000083 	bge	8f48 <emit.constprop.0+0x2c0>
    8d38:	e1510003 	cmp	r1, r3
    8d3c:	a3a0c001 	movge	ip, #1, 0
    8d40:	b3a0c000 	movlt	ip, #0, 0
    8d44:	e2434001 	sub	r4, r3, #1, 0
    8d48:	e0444001 	sub	r4, r4, r1
    8d4c:	b0436001 	sublt	r6, r3, r1
    8d50:	a3a06001 	movge	r6, #1, 0
    8d54:	e3540002 	cmp	r4, #2, 0
    8d58:	938cc001 	orrls	ip, ip, #1, 0
    8d5c:	e35c0000 	cmp	ip, #0, 0
    8d60:	1a000075 	bne	8f3c <emit.constprop.0+0x2b4>
    8d64:	e1a0c00e 	mov	ip, lr
    8d68:	e3c65003 	bic	r5, r6, #3, 0
    8d6c:	e59f721c 	ldr	r7, [pc, #540]	; 8f90 <emit.constprop.0+0x308>
    8d70:	e085500e 	add	r5, r5, lr
    8d74:	e48c7004 	str	r7, [ip], #4
    8d78:	e15c0005 	cmp	ip, r5
    8d7c:	1afffffc 	bne	8d74 <emit.constprop.0+0xec>
    8d80:	e3c6c003 	bic	ip, r6, #3, 0
    8d84:	e156000c 	cmp	r6, ip
    8d88:	e08e500c 	add	r5, lr, ip
    8d8c:	e08cc001 	add	ip, ip, r1
    8d90:	0a000008 	beq	8db8 <emit.constprop.0+0x130>
    8d94:	e3a07020 	mov	r7, #32, 0
    8d98:	e28c8001 	add	r8, ip, #1, 0
    8d9c:	e1580003 	cmp	r8, r3
    8da0:	e5c57000 	strb	r7, [r5]
    8da4:	aa000003 	bge	8db8 <emit.constprop.0+0x130>
    8da8:	e28cc002 	add	ip, ip, #2, 0
    8dac:	e15c0003 	cmp	ip, r3
    8db0:	e5c57001 	strb	r7, [r5, #1]
    8db4:	b5c57002 	strblt	r7, [r5, #2]
    8db8:	e1510003 	cmp	r1, r3
    8dbc:	a3a04000 	movge	r4, #0, 0
    8dc0:	e08e6006 	add	r6, lr, r6
    8dc4:	e0461002 	sub	r1, r6, r2
    8dc8:	e08ee004 	add	lr, lr, r4
    8dcc:	e3a03000 	mov	r3, #0, 0
    8dd0:	e351007f 	cmp	r1, #127, 0	; 0x7f
    8dd4:	c241407f 	subgt	r4, r1, #127, 0	; 0x7f
    8dd8:	c0822004 	addgt	r2, r2, r4
    8ddc:	e152000e 	cmp	r2, lr
    8de0:	e5c63000 	strb	r3, [r6]
    8de4:	8a00004f 	bhi	8f28 <emit.constprop.0+0x2a0>
    8de8:	e28ee001 	add	lr, lr, #1, 0
    8dec:	e1a0300e 	mov	r3, lr
    8df0:	e240c001 	sub	ip, r0, #1, 0
    8df4:	e5734001 	ldrb	r4, [r3, #-1]!
    8df8:	e1530002 	cmp	r3, r2
    8dfc:	e5ec4001 	strb	r4, [ip, #1]!
    8e00:	1afffffb 	bne	8df4 <emit.constprop.0+0x16c>
    8e04:	e04ee003 	sub	lr, lr, r3
    8e08:	e3a03000 	mov	r3, #0, 0
    8e0c:	e080e00e 	add	lr, r0, lr
    8e10:	e5ce3000 	strb	r3, [lr]
    8e14:	e28dd048 	add	sp, sp, #72, 0	; 0x48
    8e18:	e8bd81f0 	pop	{r4, r5, r6, r7, r8, pc}
    8e1c:	e3a0307f 	mov	r3, #127, 0	; 0x7f
    8e20:	e28d2008 	add	r2, sp, #8, 0
    8e24:	e1a0e002 	mov	lr, r2
    8e28:	e59f1164 	ldr	r1, [pc, #356]	; 8f94 <emit.constprop.0+0x30c>
    8e2c:	e20c4001 	and	r4, ip, #1, 0
    8e30:	e7d14004 	ldrb	r4, [r1, r4]
    8e34:	e35c0001 	cmp	ip, #1, 0
    8e38:	e4ce4001 	strb	r4, [lr], #1
    8e3c:	e1a0c0ac 	lsr	ip, ip, #1
    8e40:	8afffff9 	bhi	8e2c <emit.constprop.0+0x1a4>
    8e44:	eaffffb8 	b	8d2c <emit.constprop.0+0xa4>
    8e48:	e24c3002 	sub	r3, ip, #2, 0
    8e4c:	e1a0c002 	mov	ip, r2
    8e50:	e353000e 	cmp	r3, #14, 0
    8e54:	979ff103 	ldrls	pc, [pc, r3, lsl #2]
    8e58:	ea00003d 	b	8f54 <emit.constprop.0+0x2cc>
    8e5c:	00008e1c 	andeq	r8, r0, ip, lsl lr
    8e60:	00008f54 	andeq	r8, r0, r4, asr pc
    8e64:	00008f54 	andeq	r8, r0, r4, asr pc
    8e68:	00008f54 	andeq	r8, r0, r4, asr pc
    8e6c:	00008f54 	andeq	r8, r0, r4, asr pc
    8e70:	00008f54 	andeq	r8, r0, r4, asr pc
    8e74:	00008f74 	andeq	r8, r0, r4, ror pc
    8e78:	00008f54 	andeq	r8, r0, r4, asr pc
    8e7c:	00008e98 	muleq	r0, r8, lr
    8e80:	00008f54 	andeq	r8, r0, r4, asr pc
    8e84:	00008f54 	andeq	r8, r0, r4, asr pc
    8e88:	00008f54 	andeq	r8, r0, r4, asr pc
    8e8c:	00008f54 	andeq	r8, r0, r4, asr pc
    8e90:	00008f54 	andeq	r8, r0, r4, asr pc
    8e94:	00008cf0 	strdeq	r8, [r0], -r0
    8e98:	e3a0307f 	mov	r3, #127, 0	; 0x7f
    8e9c:	e59d1060 	ldr	r1, [sp, #96]	; 0x60
    8ea0:	e59f70f0 	ldr	r7, [pc, #240]	; 8f98 <emit.constprop.0+0x310>
    8ea4:	e0118fa2 	ands	r8, r1, r2, lsr #31
    8ea8:	1262c000 	rsbne	ip, r2, #0, 0
    8eac:	e28d2008 	add	r2, sp, #8, 0
    8eb0:	13a08001 	movne	r8, #1, 0
    8eb4:	e1a0e002 	mov	lr, r2
    8eb8:	e59f60dc 	ldr	r6, [pc, #220]	; 8f9c <emit.constprop.0+0x314>
    8ebc:	e1a0500c 	mov	r5, ip
    8ec0:	e0814c96 	umull	r4, r1, r6, ip
    8ec4:	e1a011a1 	lsr	r1, r1, #3
    8ec8:	e0814101 	add	r4, r1, r1, lsl #2
    8ecc:	e04cc084 	sub	ip, ip, r4, lsl #1
    8ed0:	e7d7400c 	ldrb	r4, [r7, ip]
    8ed4:	e3550009 	cmp	r5, #9, 0
    8ed8:	e1a0c001 	mov	ip, r1
    8edc:	e1a0100e 	mov	r1, lr
    8ee0:	e4ce4001 	strb	r4, [lr], #1
    8ee4:	8afffff4 	bhi	8ebc <emit.constprop.0+0x234>
    8ee8:	e3580000 	cmp	r8, #0, 0
    8eec:	13a0c02d 	movne	ip, #45, 0	; 0x2d
    8ef0:	15cec000 	strbne	ip, [lr]
    8ef4:	1281e002 	addne	lr, r1, #2, 0
    8ef8:	eaffff8b 	b	8d2c <emit.constprop.0+0xa4>
    8efc:	e3530001 	cmp	r3, #1, 0
    8f00:	e5cd2008 	strb	r2, [sp, #8]
    8f04:	c3a01001 	movgt	r1, #1, 0
    8f08:	c28de009 	addgt	lr, sp, #9, 0
    8f0c:	c28d2008 	addgt	r2, sp, #8, 0
    8f10:	caffff88 	bgt	8d38 <emit.constprop.0+0xb0>
    8f14:	e3a03000 	mov	r3, #0, 0
    8f18:	e28de008 	add	lr, sp, #8, 0
    8f1c:	e1a0200e 	mov	r2, lr
    8f20:	e5cd3009 	strb	r3, [sp, #9]
    8f24:	eaffffaf 	b	8de8 <emit.constprop.0+0x160>
    8f28:	e1a0e000 	mov	lr, r0
    8f2c:	e3a03000 	mov	r3, #0, 0
    8f30:	e5ce3000 	strb	r3, [lr]
    8f34:	e28dd048 	add	sp, sp, #72, 0	; 0x48
    8f38:	e8bd81f0 	pop	{r4, r5, r6, r7, r8, pc}
    8f3c:	e1a0c001 	mov	ip, r1
    8f40:	e1a0500e 	mov	r5, lr
    8f44:	eaffff92 	b	8d94 <emit.constprop.0+0x10c>
    8f48:	e1a0600e 	mov	r6, lr
    8f4c:	e24ee001 	sub	lr, lr, #1, 0
    8f50:	eaffff9d 	b	8dcc <emit.constprop.0+0x144>
    8f54:	e59f2044 	ldr	r2, [pc, #68]	; 8fa0 <emit.constprop.0+0x318>
    8f58:	e3a03079 	mov	r3, #121, 0	; 0x79
    8f5c:	e59f1040 	ldr	r1, [pc, #64]	; 8fa4 <emit.constprop.0+0x31c>
    8f60:	e58d2000 	str	r2, [sp]
    8f64:	e59f003c 	ldr	r0, [pc, #60]	; 8fa8 <emit.constprop.0+0x320>
    8f68:	e59f203c 	ldr	r2, [pc, #60]	; 8fac <emit.constprop.0+0x324>
    8f6c:	ebffff21 	bl	8bf8 <printk>
    8f70:	eb0001b1 	bl	963c <clean_reboot>
    8f74:	e5cd2008 	strb	r2, [sp, #8]
    8f78:	e3a0307f 	mov	r3, #127, 0	; 0x7f
    8f7c:	e3a01001 	mov	r1, #1, 0
    8f80:	e28de009 	add	lr, sp, #9, 0
    8f84:	e28d2008 	add	r2, sp, #8, 0
    8f88:	eaffff6a 	b	8d38 <emit.constprop.0+0xb0>
    8f8c:	0000a61c 	andeq	sl, r0, ip, lsl r6
    8f90:	20202020 	eorcs	r2, r0, r0, lsr #32
    8f94:	0000a630 	andeq	sl, r0, r0, lsr r6
    8f98:	0000a634 	andeq	sl, r0, r4, lsr r6
    8f9c:	cccccccd 	stclgt	12, cr12, [ip], {205}	; 0xcd
    8fa0:	0000a4d8 	ldrdeq	sl, [r0], -r8
    8fa4:	0000a608 	andeq	sl, r0, r8, lsl #12
    8fa8:	0000a1d4 	ldrdeq	sl, [r0], -r4
    8fac:	0000a748 	andeq	sl, r0, r8, asr #14

00008fb0 <rpi_set_output>:
    8fb0:	e3500000 	cmp	r0, #0, 0
    8fb4:	0a000005 	beq	8fd0 <rpi_set_output+0x20>
    8fb8:	e59f3038 	ldr	r3, [pc, #56]	; 8ff8 <rpi_set_output+0x48>
    8fbc:	e3510000 	cmp	r1, #0, 0
    8fc0:	e5830000 	str	r0, [r3]
    8fc4:	159f3030 	ldrne	r3, [pc, #48]	; 8ffc <rpi_set_output+0x4c>
    8fc8:	15831000 	strne	r1, [r3]
    8fcc:	e12fff1e 	bx	lr
    8fd0:	e52de004 	push	{lr}		; (str lr, [sp, #-4]!)
    8fd4:	e59f2024 	ldr	r2, [pc, #36]	; 9000 <rpi_set_output+0x50>
    8fd8:	e24dd00c 	sub	sp, sp, #12, 0
    8fdc:	e3a03020 	mov	r3, #32, 0
    8fe0:	e59f101c 	ldr	r1, [pc, #28]	; 9004 <rpi_set_output+0x54>
    8fe4:	e58d2000 	str	r2, [sp]
    8fe8:	e59f0018 	ldr	r0, [pc, #24]	; 9008 <rpi_set_output+0x58>
    8fec:	e59f2018 	ldr	r2, [pc, #24]	; 900c <rpi_set_output+0x5c>
    8ff0:	ebffff00 	bl	8bf8 <printk>
    8ff4:	eb000190 	bl	963c <clean_reboot>
    8ff8:	0000a984 	andeq	sl, r0, r4, lsl #19
    8ffc:	0000a974 	andeq	sl, r0, r4, ror r9
    9000:	0000a640 	andeq	sl, r0, r0, asr #12
    9004:	0000a608 	andeq	sl, r0, r8, lsl #12
    9008:	0000a1d4 	ldrdeq	sl, [r0], -r4
    900c:	0000a750 	andeq	sl, r0, r0, asr r7

00009010 <va_printk>:
    9010:	e92d4ff0 	push	{r4, r5, r6, r7, r8, r9, sl, fp, lr}
    9014:	e1a0b000 	mov	fp, r0
    9018:	e3a00000 	mov	r0, #0, 0
    901c:	e5cb0000 	strb	r0, [fp]
    9020:	e5d2c000 	ldrb	ip, [r2]
    9024:	e2417001 	sub	r7, r1, #1, 0
    9028:	e08b7007 	add	r7, fp, r7
    902c:	e15c0000 	cmp	ip, r0
    9030:	115b0007 	cmpne	fp, r7
    9034:	e24ddf47 	sub	sp, sp, #284	; 0x11c
    9038:	e58d2010 	str	r2, [sp, #16]
    903c:	2a000159 	bcs	95a8 <va_printk+0x598>
    9040:	e1a06002 	mov	r6, r2
    9044:	e1a08003 	mov	r8, r3
    9048:	e1a0400b 	mov	r4, fp
    904c:	e59fa5a4 	ldr	sl, [pc, #1444]	; 95f8 <va_printk+0x5e8>
    9050:	e58db00c 	str	fp, [sp, #12]
    9054:	ea000005 	b	9070 <va_printk+0x60>
    9058:	e4c4c001 	strb	ip, [r4], #1
    905c:	e2866001 	add	r6, r6, #1, 0
    9060:	e5d6c000 	ldrb	ip, [r6]
    9064:	e35c0000 	cmp	ip, #0, 0
    9068:	11570004 	cmpne	r7, r4
    906c:	9a00002f 	bls	9130 <va_printk+0x120>
    9070:	e35c0025 	cmp	ip, #37, 0	; 0x25
    9074:	1afffff7 	bne	9058 <va_printk+0x48>
    9078:	e5d62001 	ldrb	r2, [r6, #1]
    907c:	e3520025 	cmp	r2, #37, 0	; 0x25
    9080:	04c4c001 	strbeq	ip, [r4], #1
    9084:	02866002 	addeq	r6, r6, #2, 0
    9088:	0afffff4 	beq	9060 <va_printk+0x50>
    908c:	e2423030 	sub	r3, r2, #48, 0	; 0x30
    9090:	e3530009 	cmp	r3, #9, 0
    9094:	e3a05000 	mov	r5, #0, 0
    9098:	e2866001 	add	r6, r6, #1, 0
    909c:	8a000008 	bhi	90c4 <va_printk+0xb4>
    90a0:	e0855105 	add	r5, r5, r5, lsl #2
    90a4:	e0825085 	add	r5, r2, r5, lsl #1
    90a8:	e5f62001 	ldrb	r2, [r6, #1]!
    90ac:	e2455030 	sub	r5, r5, #48, 0	; 0x30
    90b0:	e2423030 	sub	r3, r2, #48, 0	; 0x30
    90b4:	e3530009 	cmp	r3, #9, 0
    90b8:	9afffff8 	bls	90a0 <va_printk+0x90>
    90bc:	e355001f 	cmp	r5, #31, 0
    90c0:	8a00013a 	bhi	95b0 <va_printk+0x5a0>
    90c4:	e2423062 	sub	r3, r2, #98, 0	; 0x62
    90c8:	e3530016 	cmp	r3, #22, 0
    90cc:	979ff103 	ldrls	pc, [pc, r3, lsl #2]
    90d0:	ea00011b 	b	9544 <va_printk+0x534>
    90d4:	00009388 	andeq	r9, r0, r8, lsl #7
    90d8:	00009284 	andeq	r9, r0, r4, lsl #5
    90dc:	0000927c 	andeq	r9, r0, ip, ror r2
    90e0:	00009544 	andeq	r9, r0, r4, asr #10
    90e4:	00009580 	andeq	r9, r0, r0, lsl #11
    90e8:	00009544 	andeq	r9, r0, r4, asr #10
    90ec:	00009544 	andeq	r9, r0, r4, asr #10
    90f0:	00009544 	andeq	r9, r0, r4, asr #10
    90f4:	00009544 	andeq	r9, r0, r4, asr #10
    90f8:	00009544 	andeq	r9, r0, r4, asr #10
    90fc:	0000918c 	andeq	r9, r0, ip, lsl #3
    9100:	00009544 	andeq	r9, r0, r4, asr #10
    9104:	00009544 	andeq	r9, r0, r4, asr #10
    9108:	00009544 	andeq	r9, r0, r4, asr #10
    910c:	00009148 	andeq	r9, r0, r8, asr #2
    9110:	00009544 	andeq	r9, r0, r4, asr #10
    9114:	00009544 	andeq	r9, r0, r4, asr #10
    9118:	00009480 	andeq	r9, r0, r0, lsl #9
    911c:	00009544 	andeq	r9, r0, r4, asr #10
    9120:	00009258 	andeq	r9, r0, r8, asr r2
    9124:	00009544 	andeq	r9, r0, r4, asr #10
    9128:	00009544 	andeq	r9, r0, r4, asr #10
    912c:	00009148 	andeq	r9, r0, r8, asr #2
    9130:	e59db00c 	ldr	fp, [sp, #12]
    9134:	e3a03000 	mov	r3, #0, 0
    9138:	e4c43001 	strb	r3, [r4], #1
    913c:	e044000b 	sub	r0, r4, fp
    9140:	e28ddf47 	add	sp, sp, #284	; 0x11c
    9144:	e8bd8ff0 	pop	{r4, r5, r6, r7, r8, r9, sl, fp, pc}
    9148:	e3a01000 	mov	r1, #0, 0
    914c:	e1a03005 	mov	r3, r5
    9150:	e4982004 	ldr	r2, [r8], #4
    9154:	e3a00010 	mov	r0, #16, 0
    9158:	e58d1000 	str	r1, [sp]
    915c:	e28d1018 	add	r1, sp, #24, 0
    9160:	ebfffec8 	bl	8c88 <emit.constprop.0>
    9164:	e1a05000 	mov	r5, r0
    9168:	e2866001 	add	r6, r6, #1, 0
    916c:	e2455001 	sub	r5, r5, #1, 0
    9170:	e5f53001 	ldrb	r3, [r5, #1]!
    9174:	e3530000 	cmp	r3, #0, 0
    9178:	0affffb8 	beq	9060 <va_printk+0x50>
    917c:	e4c43001 	strb	r3, [r4], #1
    9180:	e1570004 	cmp	r7, r4
    9184:	8afffff9 	bhi	9170 <va_printk+0x160>
    9188:	eaffffb4 	b	9060 <va_printk+0x50>
    918c:	e3a02003 	mov	r2, #3, 0
    9190:	e1a00006 	mov	r0, r6
    9194:	e59f1460 	ldr	r1, [pc, #1120]	; 95fc <va_printk+0x5ec>
    9198:	eb0003da 	bl	a108 <strncmp>
    919c:	e3500000 	cmp	r0, #0, 0
    91a0:	0a000005 	beq	91bc <va_printk+0x1ac>
    91a4:	e3a02003 	mov	r2, #3, 0
    91a8:	e1a00006 	mov	r0, r6
    91ac:	e59f144c 	ldr	r1, [pc, #1100]	; 9600 <va_printk+0x5f0>
    91b0:	eb0003d4 	bl	a108 <strncmp>
    91b4:	e3500000 	cmp	r0, #0, 0
    91b8:	1a00010b 	bne	95ec <va_printk+0x5dc>
    91bc:	e2888007 	add	r8, r8, #7, 0
    91c0:	e3c88007 	bic	r8, r8, #7, 0
    91c4:	e598b004 	ldr	fp, [r8, #4]
    91c8:	e4989008 	ldr	r9, [r8], #8
    91cc:	e1a0100b 	mov	r1, fp
    91d0:	e59f042c 	ldr	r0, [pc, #1068]	; 9604 <va_printk+0x5f4>
    91d4:	ebfffe87 	bl	8bf8 <printk>
    91d8:	e1a01009 	mov	r1, r9
    91dc:	e59f0424 	ldr	r0, [pc, #1060]	; 9608 <va_printk+0x5f8>
    91e0:	ebfffe84 	bl	8bf8 <printk>
    91e4:	e3a02003 	mov	r2, #3, 0
    91e8:	e1a00006 	mov	r0, r6
    91ec:	e59f1408 	ldr	r1, [pc, #1032]	; 95fc <va_printk+0x5ec>
    91f0:	eb0003c4 	bl	a108 <strncmp>
    91f4:	e2503000 	subs	r3, r0, #0, 0
    91f8:	e1a02003 	mov	r2, r3
    91fc:	e2863002 	add	r3, r6, #2, 0
    9200:	e58d3014 	str	r3, [sp, #20]
    9204:	1a00009f 	bne	9488 <va_printk+0x478>
    9208:	e1a06002 	mov	r6, r2
    920c:	e1a03005 	mov	r3, r5
    9210:	e58d2000 	str	r2, [sp]
    9214:	e28d1018 	add	r1, sp, #24, 0
    9218:	e1a0200b 	mov	r2, fp
    921c:	e3a00010 	mov	r0, #16, 0
    9220:	ebfffe98 	bl	8c88 <emit.constprop.0>
    9224:	e1a0c000 	mov	ip, r0
    9228:	e1a03005 	mov	r3, r5
    922c:	e58d6000 	str	r6, [sp]
    9230:	e28d1098 	add	r1, sp, #152, 0	; 0x98
    9234:	e1a02009 	mov	r2, r9
    9238:	e3a00010 	mov	r0, #16, 0
    923c:	e1a0500c 	mov	r5, ip
    9240:	ebfffe90 	bl	8c88 <emit.constprop.0>
    9244:	e28d0018 	add	r0, sp, #24, 0
    9248:	e28d109a 	add	r1, sp, #154, 0	; 0x9a
    924c:	e59d6014 	ldr	r6, [sp, #20]
    9250:	eb00038a 	bl	a080 <strcat>
    9254:	eaffffc3 	b	9168 <va_printk+0x158>
    9258:	e3a01000 	mov	r1, #0, 0
    925c:	e1a03005 	mov	r3, r5
    9260:	e4982004 	ldr	r2, [r8], #4
    9264:	e3a0000a 	mov	r0, #10, 0
    9268:	e58d1000 	str	r1, [sp]
    926c:	e28d1018 	add	r1, sp, #24, 0
    9270:	ebfffe84 	bl	8c88 <emit.constprop.0>
    9274:	e1a05000 	mov	r5, r0
    9278:	eaffffba 	b	9168 <va_printk+0x158>
    927c:	e3a01001 	mov	r1, #1, 0
    9280:	eafffff5 	b	925c <va_printk+0x24c>
    9284:	e4983004 	ldr	r3, [r8], #4
    9288:	e3550001 	cmp	r5, #1, 0
    928c:	e5cd3098 	strb	r3, [sp, #152]	; 0x98
    9290:	9a0000a6 	bls	9530 <va_printk+0x520>
    9294:	e2453002 	sub	r3, r5, #2, 0
    9298:	e3530002 	cmp	r3, #2, 0
    929c:	e2451001 	sub	r1, r5, #1, 0
    92a0:	9a0000bc 	bls	9598 <va_printk+0x588>
    92a4:	e59f0360 	ldr	r0, [pc, #864]	; 960c <va_printk+0x5fc>
    92a8:	e1a02121 	lsr	r2, r1, #2
    92ac:	e3520001 	cmp	r2, #1, 0
    92b0:	e58d0099 	str	r0, [sp, #153]	; 0x99
    92b4:	0a00000e 	beq	92f4 <va_printk+0x2e4>
    92b8:	e3520002 	cmp	r2, #2, 0
    92bc:	e58d009d 	str	r0, [sp, #157]	; 0x9d
    92c0:	0a00000b 	beq	92f4 <va_printk+0x2e4>
    92c4:	e3520003 	cmp	r2, #3, 0
    92c8:	e58d00a1 	str	r0, [sp, #161]	; 0xa1
    92cc:	0a000008 	beq	92f4 <va_printk+0x2e4>
    92d0:	e3520004 	cmp	r2, #4, 0
    92d4:	e58d00a5 	str	r0, [sp, #165]	; 0xa5
    92d8:	0a000005 	beq	92f4 <va_printk+0x2e4>
    92dc:	e3520005 	cmp	r2, #5, 0
    92e0:	e58d00a9 	str	r0, [sp, #169]	; 0xa9
    92e4:	0a000002 	beq	92f4 <va_printk+0x2e4>
    92e8:	e3520007 	cmp	r2, #7, 0
    92ec:	e58d00ad 	str	r0, [sp, #173]	; 0xad
    92f0:	058d00b1 	streq	r0, [sp, #177]	; 0xb1
    92f4:	e3c12003 	bic	r2, r1, #3, 0
    92f8:	e1510002 	cmp	r1, r2
    92fc:	e28dc099 	add	ip, sp, #153, 0	; 0x99
    9300:	e08c0002 	add	r0, ip, r2
    9304:	e2822001 	add	r2, r2, #1, 0
    9308:	0a000008 	beq	9330 <va_printk+0x320>
    930c:	e3a0e020 	mov	lr, #32, 0
    9310:	e2829001 	add	r9, r2, #1, 0
    9314:	e1550009 	cmp	r5, r9
    9318:	e5c0e000 	strb	lr, [r0]
    931c:	da000003 	ble	9330 <va_printk+0x320>
    9320:	e2822002 	add	r2, r2, #2, 0
    9324:	e1550002 	cmp	r5, r2
    9328:	e5c0e001 	strb	lr, [r0, #1]
    932c:	c5c0e002 	strbgt	lr, [r0, #2]
    9330:	e3a0e000 	mov	lr, #0, 0
    9334:	e28d0098 	add	r0, sp, #152, 0	; 0x98
    9338:	e08c2001 	add	r2, ip, r1
    933c:	e0422000 	sub	r2, r2, r0
    9340:	e352007f 	cmp	r2, #127, 0	; 0x7f
    9344:	c242207f 	subgt	r2, r2, #127, 0	; 0x7f
    9348:	e08c3003 	add	r3, ip, r3
    934c:	c0800002 	addgt	r0, r0, r2
    9350:	e1530000 	cmp	r3, r0
    9354:	e7cce001 	strb	lr, [ip, r1]
    9358:	3a00006c 	bcc	9510 <va_printk+0x500>
    935c:	e283c001 	add	ip, r3, #1, 0
    9360:	e1a0300c 	mov	r3, ip
    9364:	e28d5018 	add	r5, sp, #24, 0
    9368:	e2452001 	sub	r2, r5, #1, 0
    936c:	e5731001 	ldrb	r1, [r3, #-1]!
    9370:	e1500003 	cmp	r0, r3
    9374:	e5e21001 	strb	r1, [r2, #1]!
    9378:	1afffffb 	bne	936c <va_printk+0x35c>
    937c:	e04c3000 	sub	r3, ip, r0
    9380:	e0853003 	add	r3, r5, r3
    9384:	ea00003a 	b	9474 <va_printk+0x464>
    9388:	e28d1098 	add	r1, sp, #152, 0	; 0x98
    938c:	e1a03001 	mov	r3, r1
    9390:	e4980004 	ldr	r0, [r8], #4
    9394:	e200c001 	and	ip, r0, #1, 0
    9398:	e7dac00c 	ldrb	ip, [sl, ip]
    939c:	e3500001 	cmp	r0, #1, 0
    93a0:	e1a02003 	mov	r2, r3
    93a4:	e1a000a0 	lsr	r0, r0, #1
    93a8:	e4c3c001 	strb	ip, [r3], #1
    93ac:	8afffff8 	bhi	9394 <va_printk+0x384>
    93b0:	e0430001 	sub	r0, r3, r1
    93b4:	e1550000 	cmp	r5, r0
    93b8:	da000057 	ble	951c <va_printk+0x50c>
    93bc:	e045c000 	sub	ip, r5, r0
    93c0:	e24ce001 	sub	lr, ip, #1, 0
    93c4:	e35e0002 	cmp	lr, #2, 0
    93c8:	e1a0e003 	mov	lr, r3
    93cc:	9a00000a 	bls	93fc <va_printk+0x3ec>
    93d0:	e3cc9003 	bic	r9, ip, #3, 0
    93d4:	e0899003 	add	r9, r9, r3
    93d8:	e59fb22c 	ldr	fp, [pc, #556]	; 960c <va_printk+0x5fc>
    93dc:	e48eb004 	str	fp, [lr], #4
    93e0:	e15e0009 	cmp	lr, r9
    93e4:	1afffffb 	bne	93d8 <va_printk+0x3c8>
    93e8:	e3cce003 	bic	lr, ip, #3, 0
    93ec:	e15e000c 	cmp	lr, ip
    93f0:	e080000e 	add	r0, r0, lr
    93f4:	e083e00e 	add	lr, r3, lr
    93f8:	0a000008 	beq	9420 <va_printk+0x410>
    93fc:	e3a09020 	mov	r9, #32, 0
    9400:	e280b001 	add	fp, r0, #1, 0
    9404:	e155000b 	cmp	r5, fp
    9408:	e5ce9000 	strb	r9, [lr]
    940c:	da000003 	ble	9420 <va_printk+0x410>
    9410:	e2800002 	add	r0, r0, #2, 0
    9414:	e1550000 	cmp	r5, r0
    9418:	e5ce9001 	strb	r9, [lr, #1]
    941c:	c5ce9002 	strbgt	r9, [lr, #2]
    9420:	e3a0e000 	mov	lr, #0, 0
    9424:	e083000c 	add	r0, r3, ip
    9428:	e0400001 	sub	r0, r0, r1
    942c:	e350007f 	cmp	r0, #127, 0	; 0x7f
    9430:	e082200c 	add	r2, r2, ip
    9434:	e7c3e00c 	strb	lr, [r3, ip]
    9438:	da000001 	ble	9444 <va_printk+0x434>
    943c:	e240007f 	sub	r0, r0, #127, 0	; 0x7f
    9440:	e0811000 	add	r1, r1, r0
    9444:	e1510002 	cmp	r1, r2
    9448:	8a000030 	bhi	9510 <va_printk+0x500>
    944c:	e2822001 	add	r2, r2, #1, 0
    9450:	e1a03002 	mov	r3, r2
    9454:	e28d5018 	add	r5, sp, #24, 0
    9458:	e245c001 	sub	ip, r5, #1, 0
    945c:	e5730001 	ldrb	r0, [r3, #-1]!
    9460:	e1530001 	cmp	r3, r1
    9464:	e5ec0001 	strb	r0, [ip, #1]!
    9468:	1afffffb 	bne	945c <va_printk+0x44c>
    946c:	e0423003 	sub	r3, r2, r3
    9470:	e0853003 	add	r3, r5, r3
    9474:	e3a02000 	mov	r2, #0, 0
    9478:	e5c32000 	strb	r2, [r3]
    947c:	eaffff39 	b	9168 <va_printk+0x158>
    9480:	e4985004 	ldr	r5, [r8], #4
    9484:	eaffff37 	b	9168 <va_printk+0x158>
    9488:	e3a02003 	mov	r2, #3, 0
    948c:	e1a00006 	mov	r0, r6
    9490:	e59f1168 	ldr	r1, [pc, #360]	; 9600 <va_printk+0x5f0>
    9494:	eb00031b 	bl	a108 <strncmp>
    9498:	e2503000 	subs	r3, r0, #0, 0
    949c:	1a00004b 	bne	95d0 <va_printk+0x5c0>
    94a0:	e1a06003 	mov	r6, r3
    94a4:	e1a0200b 	mov	r2, fp
    94a8:	e58d3000 	str	r3, [sp]
    94ac:	e28d1018 	add	r1, sp, #24, 0
    94b0:	e1a03005 	mov	r3, r5
    94b4:	e3a0000a 	mov	r0, #10, 0
    94b8:	ebfffdf2 	bl	8c88 <emit.constprop.0>
    94bc:	e1a0c000 	mov	ip, r0
    94c0:	e1a03005 	mov	r3, r5
    94c4:	e1a02009 	mov	r2, r9
    94c8:	e28d1098 	add	r1, sp, #152, 0	; 0x98
    94cc:	e3a0000a 	mov	r0, #10, 0
    94d0:	e58d6000 	str	r6, [sp]
    94d4:	e1a0500c 	mov	r5, ip
    94d8:	ebfffdea 	bl	8c88 <emit.constprop.0>
    94dc:	e59f112c 	ldr	r1, [pc, #300]	; 9610 <va_printk+0x600>
    94e0:	e28d0018 	add	r0, sp, #24, 0
    94e4:	eb0002f0 	bl	a0ac <strcmp>
    94e8:	e3500000 	cmp	r0, #0, 0
    94ec:	e28d1098 	add	r1, sp, #152, 0	; 0x98
    94f0:	e28d0018 	add	r0, sp, #24, 0
    94f4:	1a000002 	bne	9504 <va_printk+0x4f4>
    94f8:	eb0002fc 	bl	a0f0 <strcpy>
    94fc:	e59d6014 	ldr	r6, [sp, #20]
    9500:	eaffff18 	b	9168 <va_printk+0x158>
    9504:	eb0002dd 	bl	a080 <strcat>
    9508:	e59d6014 	ldr	r6, [sp, #20]
    950c:	eaffff15 	b	9168 <va_printk+0x158>
    9510:	e28d5018 	add	r5, sp, #24, 0
    9514:	e1a03005 	mov	r3, r5
    9518:	eaffffd5 	b	9474 <va_printk+0x464>
    951c:	e3a0c000 	mov	ip, #0, 0
    9520:	e350007f 	cmp	r0, #127, 0	; 0x7f
    9524:	e5c3c000 	strb	ip, [r3]
    9528:	caffffc3 	bgt	943c <va_printk+0x42c>
    952c:	eaffffc6 	b	944c <va_printk+0x43c>
    9530:	e3a02000 	mov	r2, #0, 0
    9534:	e28d3098 	add	r3, sp, #152, 0	; 0x98
    9538:	e1a00003 	mov	r0, r3
    953c:	e5cd2099 	strb	r2, [sp, #153]	; 0x99
    9540:	eaffff85 	b	935c <va_printk+0x34c>
    9544:	e3a03000 	mov	r3, #0, 0
    9548:	e1a01002 	mov	r1, r2
    954c:	e5c63001 	strb	r3, [r6, #1]
    9550:	e59f00bc 	ldr	r0, [pc, #188]	; 9614 <va_printk+0x604>
    9554:	ebfffda7 	bl	8bf8 <printk>
    9558:	e59f30b8 	ldr	r3, [pc, #184]	; 9618 <va_printk+0x608>
    955c:	e59d0010 	ldr	r0, [sp, #16]
    9560:	e5933000 	ldr	r3, [r3]
    9564:	e12fff33 	blx	r3
    9568:	e3a030e2 	mov	r3, #226, 0	; 0xe2
    956c:	e59f20a8 	ldr	r2, [pc, #168]	; 961c <va_printk+0x60c>
    9570:	e59f10a8 	ldr	r1, [pc, #168]	; 9620 <va_printk+0x610>
    9574:	e59f00a8 	ldr	r0, [pc, #168]	; 9624 <va_printk+0x614>
    9578:	ebfffd9e 	bl	8bf8 <printk>
    957c:	eb00002e 	bl	963c <clean_reboot>
    9580:	e3a030be 	mov	r3, #190, 0	; 0xbe
    9584:	e59f2090 	ldr	r2, [pc, #144]	; 961c <va_printk+0x60c>
    9588:	e59f1090 	ldr	r1, [pc, #144]	; 9620 <va_printk+0x610>
    958c:	e59f0094 	ldr	r0, [pc, #148]	; 9628 <va_printk+0x618>
    9590:	ebfffd98 	bl	8bf8 <printk>
    9594:	eb000028 	bl	963c <clean_reboot>
    9598:	e28dc099 	add	ip, sp, #153, 0	; 0x99
    959c:	e1a0000c 	mov	r0, ip
    95a0:	e3a02001 	mov	r2, #1, 0
    95a4:	eaffff58 	b	930c <va_printk+0x2fc>
    95a8:	e1a0400b 	mov	r4, fp
    95ac:	eafffee0 	b	9134 <va_printk+0x124>
    95b0:	e3a03098 	mov	r3, #152, 0	; 0x98
    95b4:	e59f2070 	ldr	r2, [pc, #112]	; 962c <va_printk+0x61c>
    95b8:	e59f1060 	ldr	r1, [pc, #96]	; 9620 <va_printk+0x610>
    95bc:	e58d2000 	str	r2, [sp]
    95c0:	e59f0068 	ldr	r0, [pc, #104]	; 9630 <va_printk+0x620>
    95c4:	e59f2050 	ldr	r2, [pc, #80]	; 961c <va_printk+0x60c>
    95c8:	ebfffd8a 	bl	8bf8 <printk>
    95cc:	eb00001a 	bl	963c <clean_reboot>
    95d0:	e3a030b6 	mov	r3, #182, 0	; 0xb6
    95d4:	e59f2040 	ldr	r2, [pc, #64]	; 961c <va_printk+0x60c>
    95d8:	e59f1040 	ldr	r1, [pc, #64]	; 9620 <va_printk+0x610>
    95dc:	e59f0050 	ldr	r0, [pc, #80]	; 9634 <va_printk+0x624>
    95e0:	e58d6000 	str	r6, [sp]
    95e4:	ebfffd83 	bl	8bf8 <printk>
    95e8:	eb000013 	bl	963c <clean_reboot>
    95ec:	e3a0309f 	mov	r3, #159, 0	; 0x9f
    95f0:	e59f2040 	ldr	r2, [pc, #64]	; 9638 <va_printk+0x628>
    95f4:	eaffffef 	b	95b8 <va_printk+0x5a8>
    95f8:	0000a630 	andeq	sl, r0, r0, lsr r6
    95fc:	0000a654 	andeq	sl, r0, r4, asr r6
    9600:	0000a668 	andeq	sl, r0, r8, ror #12
    9604:	0000a658 	andeq	sl, r0, r8, asr r6
    9608:	0000a660 	andeq	sl, r0, r0, ror #12
    960c:	20202020 	eorcs	r2, r0, r0, lsr #32
    9610:	0000a4d8 	ldrdeq	sl, [r0], -r8
    9614:	0000a6f8 	strdeq	sl, [r0], -r8
    9618:	0000a974 	andeq	sl, r0, r4, ror r9
    961c:	0000a760 	andeq	sl, r0, r0, ror #14
    9620:	0000a608 	andeq	sl, r0, r8, lsl #12
    9624:	0000a728 	andeq	sl, r0, r8, lsr #14
    9628:	0000a6d0 	ldrdeq	sl, [r0], -r0
    962c:	0000a648 	andeq	sl, r0, r8, asr #12
    9630:	0000a1d4 	ldrdeq	sl, [r0], -r4
    9634:	0000a6a8 	andeq	sl, r0, r8, lsr #13
    9638:	0000a66c 	andeq	sl, r0, ip, ror #12

0000963c <clean_reboot>:
    963c:	e59f301c 	ldr	r3, [pc, #28]	; 9660 <clean_reboot+0x24>
    9640:	e92d4010 	push	{r4, lr}
    9644:	e5933000 	ldr	r3, [r3]
    9648:	e59f0014 	ldr	r0, [pc, #20]	; 9664 <clean_reboot+0x28>
    964c:	e12fff33 	blx	r3
    9650:	eb00011b 	bl	9ac4 <uart_flush_tx>
    9654:	e3a0000a 	mov	r0, #10, 0
    9658:	eb000082 	bl	9868 <delay_ms>
    965c:	eb00004b 	bl	9790 <rpi_reboot>
    9660:	0000a974 	andeq	sl, r0, r4, ror r9
    9664:	0000a76c 	andeq	sl, r0, ip, ror #14

00009668 <_cstart>:
    9668:	e92d4070 	push	{r4, r5, r6, lr}
    966c:	eb00003b 	bl	9760 <custom_loader>
    9670:	e59f20e0 	ldr	r2, [pc, #224]	; 9758 <_cstart+0xf0>
    9674:	e59fc0e0 	ldr	ip, [pc, #224]	; 975c <_cstart+0xf4>
    9678:	e152000c 	cmp	r2, ip
    967c:	2a00002e 	bcs	973c <_cstart+0xd4>
    9680:	e24c1001 	sub	r1, ip, #1, 0
    9684:	e0411002 	sub	r1, r1, r2
    9688:	e3510017 	cmp	r1, #23, 0
    968c:	e1a03122 	lsr	r3, r2, #2
    9690:	e1a01121 	lsr	r1, r1, #2
    9694:	e2811001 	add	r1, r1, #1, 0
    9698:	e2033001 	and	r3, r3, #1, 0
    969c:	9a00002b 	bls	9750 <_cstart+0xe8>
    96a0:	e3530000 	cmp	r3, #0, 0
    96a4:	11a00002 	movne	r0, r2
    96a8:	13a0e000 	movne	lr, #0, 0
    96ac:	e3a04000 	mov	r4, #0, 0
    96b0:	e3a05000 	mov	r5, #0, 0
    96b4:	e0411003 	sub	r1, r1, r3
    96b8:	01a00002 	moveq	r0, r2
    96bc:	e0823103 	add	r3, r2, r3, lsl #2
    96c0:	e1a020a1 	lsr	r2, r1, #1
    96c4:	1480e004 	strne	lr, [r0], #4
    96c8:	e0832182 	add	r2, r3, r2, lsl #3
    96cc:	e0c340f8 	strd	r4, [r3], #8
    96d0:	e1520003 	cmp	r2, r3
    96d4:	1afffffc 	bne	96cc <_cstart+0x64>
    96d8:	e3c13001 	bic	r3, r1, #1, 0
    96dc:	e1510003 	cmp	r1, r3
    96e0:	e0803103 	add	r3, r0, r3, lsl #2
    96e4:	0a000014 	beq	973c <_cstart+0xd4>
    96e8:	e1a01003 	mov	r1, r3
    96ec:	e3a02000 	mov	r2, #0, 0
    96f0:	e4812004 	str	r2, [r1], #4
    96f4:	e151000c 	cmp	r1, ip
    96f8:	2a00000f 	bcs	973c <_cstart+0xd4>
    96fc:	e2831008 	add	r1, r3, #8, 0
    9700:	e151000c 	cmp	r1, ip
    9704:	e5832004 	str	r2, [r3, #4]
    9708:	2a00000b 	bcs	973c <_cstart+0xd4>
    970c:	e283100c 	add	r1, r3, #12, 0
    9710:	e151000c 	cmp	r1, ip
    9714:	e5832008 	str	r2, [r3, #8]
    9718:	2a000007 	bcs	973c <_cstart+0xd4>
    971c:	e2831010 	add	r1, r3, #16, 0
    9720:	e151000c 	cmp	r1, ip
    9724:	e583200c 	str	r2, [r3, #12]
    9728:	2a000003 	bcs	973c <_cstart+0xd4>
    972c:	e2831014 	add	r1, r3, #20, 0
    9730:	e151000c 	cmp	r1, ip
    9734:	e5832010 	str	r2, [r3, #16]
    9738:	35832014 	strcc	r2, [r3, #20]
    973c:	eb000082 	bl	994c <uart_init>
    9740:	e3a03001 	mov	r3, #1, 0
    9744:	ee0f3f1c 	mcr	15, 0, r3, cr15, cr12, {0}
    9748:	ebfffa5a 	bl	80b8 <notmain>
    974c:	ebffffba 	bl	963c <clean_reboot>
    9750:	e1a03002 	mov	r3, r2
    9754:	eaffffe3 	b	96e8 <_cstart+0x80>
    9758:	0000a988 	andeq	sl, r0, r8, lsl #19
    975c:	0000adb0 			; <UNDEFINED> instruction: 0x0000adb0

00009760 <custom_loader>:
    9760:	e12fff1e 	bx	lr

00009764 <at_user_level>:
    9764:	e10f0000 	mrs	r0, CPSR
    9768:	e200001f 	and	r0, r0, #31, 0
    976c:	e2400010 	sub	r0, r0, #16, 0
    9770:	e16f0f10 	clz	r0, r0
    9774:	e1a002a0 	lsr	r0, r0, #5
    9778:	e12fff1e 	bx	lr

0000977c <set_user_level>:
    977c:	e10f3000 	mrs	r3, CPSR
    9780:	e3c3301f 	bic	r3, r3, #31, 0
    9784:	e3833010 	orr	r3, r3, #16, 0
    9788:	e129f003 	msr	CPSR_fc, r3
    978c:	e12fff1e 	bx	lr

00009790 <rpi_reboot>:
    9790:	e92d4010 	push	{r4, lr}
    9794:	e10f3000 	mrs	r3, CPSR
    9798:	e203301f 	and	r3, r3, #31, 0
    979c:	e3530010 	cmp	r3, #16, 0
    97a0:	1a000003 	bne	97b4 <rpi_reboot+0x24>
    97a4:	e10f3000 	mrs	r3, CPSR
    97a8:	e3c3301f 	bic	r3, r3, #31, 0
    97ac:	e3833010 	orr	r3, r3, #16, 0
    97b0:	e129f003 	msr	CPSR_fc, r3
    97b4:	eb00025f 	bl	a138 <reboot_callout>
    97b8:	eb0000c1 	bl	9ac4 <uart_flush_tx>
    97bc:	e3a0000a 	mov	r0, #10, 0
    97c0:	eb000028 	bl	9868 <delay_ms>
    97c4:	e59f1014 	ldr	r1, [pc, #20]	; 97e0 <rpi_reboot+0x50>
    97c8:	e59f0014 	ldr	r0, [pc, #20]	; 97e4 <rpi_reboot+0x54>
    97cc:	ebfffa14 	bl	8024 <PUT32>
    97d0:	e59f1010 	ldr	r1, [pc, #16]	; 97e8 <rpi_reboot+0x58>
    97d4:	e59f0010 	ldr	r0, [pc, #16]	; 97ec <rpi_reboot+0x5c>
    97d8:	ebfffa11 	bl	8024 <PUT32>
    97dc:	eafffffe 	b	97dc <rpi_reboot+0x4c>
    97e0:	5a000001 	bpl	97ec <rpi_reboot+0x5c>
    97e4:	20100024 	andscs	r0, r0, r4, lsr #32
    97e8:	5a000020 	bpl	9870 <delay_ms+0x8>
    97ec:	2010001c 	andscs	r0, r0, ip, lsl r0

000097f0 <timer_get_usec_raw>:
    97f0:	e59f0000 	ldr	r0, [pc]	; 97f8 <timer_get_usec_raw+0x8>
    97f4:	eafffa0c 	b	802c <GET32>
    97f8:	20003004 	andcs	r3, r0, r4

000097fc <timer_get_usec>:
    97fc:	e92d4010 	push	{r4, lr}
    9800:	eb00024d 	bl	a13c <dev_barrier>
    9804:	e59f0010 	ldr	r0, [pc, #16]	; 981c <timer_get_usec+0x20>
    9808:	ebfffa07 	bl	802c <GET32>
    980c:	e1a04000 	mov	r4, r0
    9810:	eb000249 	bl	a13c <dev_barrier>
    9814:	e1a00004 	mov	r0, r4
    9818:	e8bd8010 	pop	{r4, pc}
    981c:	20003004 	andcs	r3, r0, r4

00009820 <delay_us>:
    9820:	e92d41f0 	push	{r4, r5, r6, r7, r8, lr}
    9824:	e1a06000 	mov	r6, r0
    9828:	eb000243 	bl	a13c <dev_barrier>
    982c:	e59f0030 	ldr	r0, [pc, #48]	; 9864 <delay_us+0x44>
    9830:	ebfff9fd 	bl	802c <GET32>
    9834:	e1a05000 	mov	r5, r0
    9838:	eb00023f 	bl	a13c <dev_barrier>
    983c:	e59f7020 	ldr	r7, [pc, #32]	; 9864 <delay_us+0x44>
    9840:	eb00023d 	bl	a13c <dev_barrier>
    9844:	e1a00007 	mov	r0, r7
    9848:	ebfff9f7 	bl	802c <GET32>
    984c:	e1a04000 	mov	r4, r0
    9850:	e0444005 	sub	r4, r4, r5
    9854:	eb000238 	bl	a13c <dev_barrier>
    9858:	e1540006 	cmp	r4, r6
    985c:	3afffff7 	bcc	9840 <delay_us+0x20>
    9860:	e8bd81f0 	pop	{r4, r5, r6, r7, r8, pc}
    9864:	20003004 	andcs	r3, r0, r4

00009868 <delay_ms>:
    9868:	e92d41f0 	push	{r4, r5, r6, r7, r8, lr}
    986c:	e0604280 	rsb	r4, r0, r0, lsl #5
    9870:	e0800104 	add	r0, r0, r4, lsl #2
    9874:	e1a04180 	lsl	r4, r0, #3
    9878:	eb00022f 	bl	a13c <dev_barrier>
    987c:	e59f0030 	ldr	r0, [pc, #48]	; 98b4 <delay_ms+0x4c>
    9880:	ebfff9e9 	bl	802c <GET32>
    9884:	e1a06000 	mov	r6, r0
    9888:	eb00022b 	bl	a13c <dev_barrier>
    988c:	e59f7020 	ldr	r7, [pc, #32]	; 98b4 <delay_ms+0x4c>
    9890:	eb000229 	bl	a13c <dev_barrier>
    9894:	e1a00007 	mov	r0, r7
    9898:	ebfff9e3 	bl	802c <GET32>
    989c:	e1a05000 	mov	r5, r0
    98a0:	e0455006 	sub	r5, r5, r6
    98a4:	eb000224 	bl	a13c <dev_barrier>
    98a8:	e1540005 	cmp	r4, r5
    98ac:	8afffff7 	bhi	9890 <delay_ms+0x28>
    98b0:	e8bd81f0 	pop	{r4, r5, r6, r7, r8, pc}
    98b4:	20003004 	andcs	r3, r0, r4

000098b8 <delay_sec>:
    98b8:	e92d41f0 	push	{r4, r5, r6, r7, r8, lr}
    98bc:	e0604280 	rsb	r4, r0, r0, lsl #5
    98c0:	e0644304 	rsb	r4, r4, r4, lsl #6
    98c4:	e0800184 	add	r0, r0, r4, lsl #3
    98c8:	e1a04300 	lsl	r4, r0, #6
    98cc:	eb00021a 	bl	a13c <dev_barrier>
    98d0:	e59f0030 	ldr	r0, [pc, #48]	; 9908 <delay_sec+0x50>
    98d4:	ebfff9d4 	bl	802c <GET32>
    98d8:	e1a06000 	mov	r6, r0
    98dc:	eb000216 	bl	a13c <dev_barrier>
    98e0:	e59f7020 	ldr	r7, [pc, #32]	; 9908 <delay_sec+0x50>
    98e4:	eb000214 	bl	a13c <dev_barrier>
    98e8:	e1a00007 	mov	r0, r7
    98ec:	ebfff9ce 	bl	802c <GET32>
    98f0:	e1a05000 	mov	r5, r0
    98f4:	e0455006 	sub	r5, r5, r6
    98f8:	eb00020f 	bl	a13c <dev_barrier>
    98fc:	e1540005 	cmp	r4, r5
    9900:	8afffff7 	bhi	98e4 <delay_sec+0x2c>
    9904:	e8bd81f0 	pop	{r4, r5, r6, r7, r8, pc}
    9908:	20003004 	andcs	r3, r0, r4

0000990c <and_in32>:
    990c:	e92d4070 	push	{r4, r5, r6, lr}
    9910:	e1a04000 	mov	r4, r0
    9914:	e1a05001 	mov	r5, r1
    9918:	ebfff9c3 	bl	802c <GET32>
    991c:	e0001005 	and	r1, r0, r5
    9920:	e1a00004 	mov	r0, r4
    9924:	ebfff9be 	bl	8024 <PUT32>
    9928:	e8bd8070 	pop	{r4, r5, r6, pc}

0000992c <or_in32>:
    992c:	e92d4070 	push	{r4, r5, r6, lr}
    9930:	e1a04000 	mov	r4, r0
    9934:	e1a05001 	mov	r5, r1
    9938:	ebfff9bb 	bl	802c <GET32>
    993c:	e1801005 	orr	r1, r0, r5
    9940:	e1a00004 	mov	r0, r4
    9944:	ebfff9b6 	bl	8024 <PUT32>
    9948:	e8bd8070 	pop	{r4, r5, r6, pc}

0000994c <uart_init>:
    994c:	e92d4010 	push	{r4, lr}
    9950:	e3a01002 	mov	r1, #2, 0
    9954:	e3a0000e 	mov	r0, #14, 0
    9958:	eb000153 	bl	9eac <gpio_set_function>
    995c:	e3a01002 	mov	r1, #2, 0
    9960:	e3a0000f 	mov	r0, #15, 0
    9964:	eb000150 	bl	9eac <gpio_set_function>
    9968:	eb0001f3 	bl	a13c <dev_barrier>
    996c:	e3a01001 	mov	r1, #1, 0
    9970:	e59f0064 	ldr	r0, [pc, #100]	; 99dc <uart_init+0x90>
    9974:	ebffffec 	bl	992c <or_in32>
    9978:	eb0001ef 	bl	a13c <dev_barrier>
    997c:	e59f405c 	ldr	r4, [pc, #92]	; 99e0 <uart_init+0x94>
    9980:	e3a01000 	mov	r1, #0, 0
    9984:	e1a00004 	mov	r0, r4
    9988:	ebfff9a5 	bl	8024 <PUT32>
    998c:	e3a01000 	mov	r1, #0, 0
    9990:	e59f004c 	ldr	r0, [pc, #76]	; 99e4 <uart_init+0x98>
    9994:	ebfff9a2 	bl	8024 <PUT32>
    9998:	e3a01003 	mov	r1, #3, 0
    999c:	e59f0044 	ldr	r0, [pc, #68]	; 99e8 <uart_init+0x9c>
    99a0:	ebfff99f 	bl	8024 <PUT32>
    99a4:	e3a01000 	mov	r1, #0, 0
    99a8:	e59f003c 	ldr	r0, [pc, #60]	; 99ec <uart_init+0xa0>
    99ac:	ebfff99c 	bl	8024 <PUT32>
    99b0:	e3a010c7 	mov	r1, #199, 0	; 0xc7
    99b4:	e59f0034 	ldr	r0, [pc, #52]	; 99f0 <uart_init+0xa4>
    99b8:	ebfff999 	bl	8024 <PUT32>
    99bc:	e59f1030 	ldr	r1, [pc, #48]	; 99f4 <uart_init+0xa8>
    99c0:	e59f0030 	ldr	r0, [pc, #48]	; 99f8 <uart_init+0xac>
    99c4:	ebfff996 	bl	8024 <PUT32>
    99c8:	e3a01003 	mov	r1, #3, 0
    99cc:	e1a00004 	mov	r0, r4
    99d0:	ebfff993 	bl	8024 <PUT32>
    99d4:	eb0001d8 	bl	a13c <dev_barrier>
    99d8:	e8bd8010 	pop	{r4, pc}
    99dc:	20215004 	eorcs	r5, r1, r4
    99e0:	20215060 	eorcs	r5, r1, r0, rrx
    99e4:	20215044 	eorcs	r5, r1, r4, asr #32
    99e8:	2021504c 	eorcs	r5, r1, ip, asr #32
    99ec:	20215050 	eorcs	r5, r1, r0, asr r0
    99f0:	20215048 	eorcs	r5, r1, r8, asr #32
    99f4:	0000010e 	andeq	r0, r0, lr, lsl #2
    99f8:	20215068 	eorcs	r5, r1, r8, rrx

000099fc <uart_can_getc>:
    99fc:	e92d4010 	push	{r4, lr}
    9a00:	e59f0008 	ldr	r0, [pc, #8]	; 9a10 <uart_can_getc+0x14>
    9a04:	ebfff988 	bl	802c <GET32>
    9a08:	e2000001 	and	r0, r0, #1, 0
    9a0c:	e8bd8010 	pop	{r4, pc}
    9a10:	20215064 	eorcs	r5, r1, r4, rrx

00009a14 <uart_can_putc>:
    9a14:	e92d4010 	push	{r4, lr}
    9a18:	e59f0010 	ldr	r0, [pc, #16]	; 9a30 <uart_can_putc+0x1c>
    9a1c:	ebfff982 	bl	802c <GET32>
    9a20:	e3100002 	tst	r0, #2, 0
    9a24:	13a00001 	movne	r0, #1, 0
    9a28:	03a00000 	moveq	r0, #0, 0
    9a2c:	e8bd8010 	pop	{r4, pc}
    9a30:	20215064 	eorcs	r5, r1, r4, rrx

00009a34 <uart_getc>:
    9a34:	e92d4010 	push	{r4, lr}
    9a38:	eb0001bf 	bl	a13c <dev_barrier>
    9a3c:	ebffffee 	bl	99fc <uart_can_getc>
    9a40:	e3500000 	cmp	r0, #0, 0
    9a44:	0afffffc 	beq	9a3c <uart_getc+0x8>
    9a48:	e59f0010 	ldr	r0, [pc, #16]	; 9a60 <uart_getc+0x2c>
    9a4c:	ebfff976 	bl	802c <GET32>
    9a50:	e6ef4070 	uxtb	r4, r0
    9a54:	eb0001b8 	bl	a13c <dev_barrier>
    9a58:	e1a00004 	mov	r0, r4
    9a5c:	e8bd8010 	pop	{r4, pc}
    9a60:	20215040 	eorcs	r5, r1, r0, asr #32

00009a64 <uart_putc>:
    9a64:	e92d4010 	push	{r4, lr}
    9a68:	e1a04000 	mov	r4, r0
    9a6c:	eb0001b2 	bl	a13c <dev_barrier>
    9a70:	ebffffe7 	bl	9a14 <uart_can_putc>
    9a74:	e3500000 	cmp	r0, #0, 0
    9a78:	0afffffc 	beq	9a70 <uart_putc+0xc>
    9a7c:	e6ef1074 	uxtb	r1, r4
    9a80:	e59f0008 	ldr	r0, [pc, #8]	; 9a90 <uart_putc+0x2c>
    9a84:	ebfff966 	bl	8024 <PUT32>
    9a88:	eb0001ab 	bl	a13c <dev_barrier>
    9a8c:	e8bd8010 	pop	{r4, pc}
    9a90:	20215040 	eorcs	r5, r1, r0, asr #32

00009a94 <uart_has_data>:
    9a94:	e92d4010 	push	{r4, lr}
    9a98:	eb0001a7 	bl	a13c <dev_barrier>
    9a9c:	ebffffd6 	bl	99fc <uart_can_getc>
    9aa0:	e8bd8010 	pop	{r4, pc}

00009aa4 <uart_tx_is_empty>:
    9aa4:	e92d4010 	push	{r4, lr}
    9aa8:	eb0001a3 	bl	a13c <dev_barrier>
    9aac:	e59f000c 	ldr	r0, [pc, #12]	; 9ac0 <uart_tx_is_empty+0x1c>
    9ab0:	ebfff95d 	bl	802c <GET32>
    9ab4:	e1a004a0 	lsr	r0, r0, #9
    9ab8:	e2000001 	and	r0, r0, #1, 0
    9abc:	e8bd8010 	pop	{r4, pc}
    9ac0:	20215064 	eorcs	r5, r1, r4, rrx

00009ac4 <uart_flush_tx>:
    9ac4:	e92d4010 	push	{r4, lr}
    9ac8:	ebfffff5 	bl	9aa4 <uart_tx_is_empty>
    9acc:	e3500000 	cmp	r0, #0, 0
    9ad0:	0afffffc 	beq	9ac8 <uart_flush_tx+0x4>
    9ad4:	e8bd8010 	pop	{r4, pc}

00009ad8 <uart_disable>:
    9ad8:	e92d4010 	push	{r4, lr}
    9adc:	ebfffff8 	bl	9ac4 <uart_flush_tx>
    9ae0:	eb000195 	bl	a13c <dev_barrier>
    9ae4:	e3e01001 	mvn	r1, #1, 0
    9ae8:	e59f0008 	ldr	r0, [pc, #8]	; 9af8 <uart_disable+0x20>
    9aec:	ebffff86 	bl	990c <and_in32>
    9af0:	eb000191 	bl	a13c <dev_barrier>
    9af4:	e8bd8010 	pop	{r4, pc}
    9af8:	20215004 	eorcs	r5, r1, r4

00009afc <kmalloc_heap_end>:
    9afc:	e59f3004 	ldr	r3, [pc, #4]	; 9b08 <kmalloc_heap_end+0xc>
    9b00:	e5930000 	ldr	r0, [r3]
    9b04:	e12fff1e 	bx	lr
    9b08:	0000a978 	andeq	sl, r0, r8, ror r9

00009b0c <kmalloc_heap_start>:
    9b0c:	e59f3004 	ldr	r3, [pc, #4]	; 9b18 <kmalloc_heap_start+0xc>
    9b10:	e5930004 	ldr	r0, [r3, #4]
    9b14:	e12fff1e 	bx	lr
    9b18:	0000a978 	andeq	sl, r0, r8, ror r9

00009b1c <kmalloc_heap_ptr>:
    9b1c:	e59f3004 	ldr	r3, [pc, #4]	; 9b28 <kmalloc_heap_ptr+0xc>
    9b20:	e5930000 	ldr	r0, [r3]
    9b24:	e12fff1e 	bx	lr
    9b28:	0000a978 	andeq	sl, r0, r8, ror r9

00009b2c <kmalloc_init_set_start>:
    9b2c:	e52de004 	push	{lr}		; (str lr, [sp, #-4]!)
    9b30:	e24dd00c 	sub	sp, sp, #12, 0
    9b34:	e3510000 	cmp	r1, #0, 0
    9b38:	0a00000a 	beq	9b68 <kmalloc_init_set_start+0x3c>
    9b3c:	e59f306c 	ldr	r3, [pc, #108]	; 9bb0 <kmalloc_init_set_start+0x84>
    9b40:	e5933000 	ldr	r3, [r3]
    9b44:	e1530000 	cmp	r3, r0
    9b48:	8a00000e 	bhi	9b88 <kmalloc_init_set_start+0x5c>
    9b4c:	e59f305c 	ldr	r3, [pc, #92]	; 9bb0 <kmalloc_init_set_start+0x84>
    9b50:	e5830000 	str	r0, [r3]
    9b54:	e5830004 	str	r0, [r3, #4]
    9b58:	e0800001 	add	r0, r0, r1
    9b5c:	e5830008 	str	r0, [r3, #8]
    9b60:	e28dd00c 	add	sp, sp, #12, 0
    9b64:	e49df004 	pop	{pc}		; (ldr pc, [sp], #4)
    9b68:	e59f3044 	ldr	r3, [pc, #68]	; 9bb4 <kmalloc_init_set_start+0x88>
    9b6c:	e58d3000 	str	r3, [sp]
    9b70:	e3a03030 	mov	r3, #48, 0	; 0x30
    9b74:	e59f203c 	ldr	r2, [pc, #60]	; 9bb8 <kmalloc_init_set_start+0x8c>
    9b78:	e59f103c 	ldr	r1, [pc, #60]	; 9bbc <kmalloc_init_set_start+0x90>
    9b7c:	e59f003c 	ldr	r0, [pc, #60]	; 9bc0 <kmalloc_init_set_start+0x94>
    9b80:	ebfffc1c 	bl	8bf8 <printk>
    9b84:	ebfffeac 	bl	963c <clean_reboot>
    9b88:	e59f3020 	ldr	r3, [pc, #32]	; 9bb0 <kmalloc_init_set_start+0x84>
    9b8c:	e5933008 	ldr	r3, [r3, #8]
    9b90:	e58d3004 	str	r3, [sp, #4]
    9b94:	e58d0000 	str	r0, [sp]
    9b98:	e3a03034 	mov	r3, #52, 0	; 0x34
    9b9c:	e59f2014 	ldr	r2, [pc, #20]	; 9bb8 <kmalloc_init_set_start+0x8c>
    9ba0:	e59f1014 	ldr	r1, [pc, #20]	; 9bbc <kmalloc_init_set_start+0x90>
    9ba4:	e59f0018 	ldr	r0, [pc, #24]	; 9bc4 <kmalloc_init_set_start+0x98>
    9ba8:	ebfffc12 	bl	8bf8 <printk>
    9bac:	ebfffea2 	bl	963c <clean_reboot>
    9bb0:	0000a978 	andeq	sl, r0, r8, ror r9
    9bb4:	0000a784 	andeq	sl, r0, r4, lsl #15
    9bb8:	0000a910 	andeq	sl, r0, r0, lsl r9
    9bbc:	0000a778 	andeq	sl, r0, r8, ror r7
    9bc0:	0000a1d4 	ldrdeq	sl, [r0], -r4
    9bc4:	0000a790 	muleq	r0, r0, r7

00009bc8 <kmalloc_init>:
    9bc8:	e92d4010 	push	{r4, lr}
    9bcc:	e59f303c 	ldr	r3, [pc, #60]	; 9c10 <kmalloc_init+0x48>
    9bd0:	e5933000 	ldr	r3, [r3]
    9bd4:	e3530000 	cmp	r3, #0, 0
    9bd8:	1a000006 	bne	9bf8 <kmalloc_init+0x30>
    9bdc:	e59f302c 	ldr	r3, [pc, #44]	; 9c10 <kmalloc_init+0x48>
    9be0:	e3a02001 	mov	r2, #1, 0
    9be4:	e5832000 	str	r2, [r3]
    9be8:	e3a01201 	mov	r1, #268435456	; 0x10000000
    9bec:	e3a00601 	mov	r0, #1048576	; 0x100000
    9bf0:	ebffffcd 	bl	9b2c <kmalloc_init_set_start>
    9bf4:	e8bd8010 	pop	{r4, pc}
    9bf8:	e3a03040 	mov	r3, #64, 0	; 0x40
    9bfc:	e59f2010 	ldr	r2, [pc, #16]	; 9c14 <kmalloc_init+0x4c>
    9c00:	e59f1010 	ldr	r1, [pc, #16]	; 9c18 <kmalloc_init+0x50>
    9c04:	e59f0010 	ldr	r0, [pc, #16]	; 9c1c <kmalloc_init+0x54>
    9c08:	ebfffbfa 	bl	8bf8 <printk>
    9c0c:	ebfffe8a 	bl	963c <clean_reboot>
    9c10:	0000adac 	andeq	sl, r0, ip, lsr #27
    9c14:	0000a928 	andeq	sl, r0, r8, lsr #18
    9c18:	0000a778 	andeq	sl, r0, r8, ror r7
    9c1c:	0000a7d4 	ldrdeq	sl, [r0], -r4

00009c20 <kmalloc_notzero>:
    9c20:	e52de004 	push	{lr}		; (str lr, [sp, #-4]!)
    9c24:	e24dd00c 	sub	sp, sp, #12, 0
    9c28:	e3500000 	cmp	r0, #0, 0
    9c2c:	0a00000a 	beq	9c5c <kmalloc_notzero+0x3c>
    9c30:	e2800007 	add	r0, r0, #7, 0
    9c34:	e3c03007 	bic	r3, r0, #7, 0
    9c38:	e59f2060 	ldr	r2, [pc, #96]	; 9ca0 <kmalloc_notzero+0x80>
    9c3c:	e5920000 	ldr	r0, [r2]
    9c40:	e0801003 	add	r1, r0, r3
    9c44:	e5821000 	str	r1, [r2]
    9c48:	e5922008 	ldr	r2, [r2, #8]
    9c4c:	e1510002 	cmp	r1, r2
    9c50:	8a000009 	bhi	9c7c <kmalloc_notzero+0x5c>
    9c54:	e28dd00c 	add	sp, sp, #12, 0
    9c58:	e49df004 	pop	{pc}		; (ldr pc, [sp], #4)
    9c5c:	e59f3040 	ldr	r3, [pc, #64]	; 9ca4 <kmalloc_notzero+0x84>
    9c60:	e58d3000 	str	r3, [sp]
    9c64:	e3a03048 	mov	r3, #72, 0	; 0x48
    9c68:	e59f2038 	ldr	r2, [pc, #56]	; 9ca8 <kmalloc_notzero+0x88>
    9c6c:	e59f1038 	ldr	r1, [pc, #56]	; 9cac <kmalloc_notzero+0x8c>
    9c70:	e59f0038 	ldr	r0, [pc, #56]	; 9cb0 <kmalloc_notzero+0x90>
    9c74:	ebfffbdf 	bl	8bf8 <printk>
    9c78:	ebfffe6f 	bl	963c <clean_reboot>
    9c7c:	e0422000 	sub	r2, r2, r0
    9c80:	e58d2004 	str	r2, [sp, #4]
    9c84:	e58d3000 	str	r3, [sp]
    9c88:	e3a0304e 	mov	r3, #78, 0	; 0x4e
    9c8c:	e59f2014 	ldr	r2, [pc, #20]	; 9ca8 <kmalloc_notzero+0x88>
    9c90:	e59f1014 	ldr	r1, [pc, #20]	; 9cac <kmalloc_notzero+0x8c>
    9c94:	e59f0018 	ldr	r0, [pc, #24]	; 9cb4 <kmalloc_notzero+0x94>
    9c98:	ebfffbd6 	bl	8bf8 <printk>
    9c9c:	ebfffe66 	bl	963c <clean_reboot>
    9ca0:	0000a978 	andeq	sl, r0, r8, ror r9
    9ca4:	0000a788 	andeq	sl, r0, r8, lsl #15
    9ca8:	0000a938 	andeq	sl, r0, r8, lsr r9
    9cac:	0000a778 	andeq	sl, r0, r8, ror r7
    9cb0:	0000a1d4 	ldrdeq	sl, [r0], -r4
    9cb4:	0000a804 	andeq	sl, r0, r4, lsl #16

00009cb8 <kmalloc>:
    9cb8:	e92d4030 	push	{r4, r5, lr}
    9cbc:	e24dd00c 	sub	sp, sp, #12, 0
    9cc0:	e2504000 	subs	r4, r0, #0, 0
    9cc4:	0a000008 	beq	9cec <kmalloc+0x34>
    9cc8:	e1a00004 	mov	r0, r4
    9ccc:	ebffffd3 	bl	9c20 <kmalloc_notzero>
    9cd0:	e1a05000 	mov	r5, r0
    9cd4:	e1a02004 	mov	r2, r4
    9cd8:	e3a01000 	mov	r1, #0, 0
    9cdc:	ebfffba7 	bl	8b80 <memset>
    9ce0:	e1a00005 	mov	r0, r5
    9ce4:	e28dd00c 	add	sp, sp, #12, 0
    9ce8:	e8bd8030 	pop	{r4, r5, pc}
    9cec:	e59f3018 	ldr	r3, [pc, #24]	; 9d0c <kmalloc+0x54>
    9cf0:	e58d3000 	str	r3, [sp]
    9cf4:	e3a03054 	mov	r3, #84, 0	; 0x54
    9cf8:	e59f2010 	ldr	r2, [pc, #16]	; 9d10 <kmalloc+0x58>
    9cfc:	e59f1010 	ldr	r1, [pc, #16]	; 9d14 <kmalloc+0x5c>
    9d00:	e59f0010 	ldr	r0, [pc, #16]	; 9d18 <kmalloc+0x60>
    9d04:	ebfffbbb 	bl	8bf8 <printk>
    9d08:	ebfffe4b 	bl	963c <clean_reboot>
    9d0c:	0000a788 	andeq	sl, r0, r8, lsl #15
    9d10:	0000a948 	andeq	sl, r0, r8, asr #18
    9d14:	0000a778 	andeq	sl, r0, r8, ror r7
    9d18:	0000a1d4 	ldrdeq	sl, [r0], -r4

00009d1c <kmalloc_aligned>:
    9d1c:	e52de004 	push	{lr}		; (str lr, [sp, #-4]!)
    9d20:	e24dd00c 	sub	sp, sp, #12, 0
    9d24:	e3500000 	cmp	r0, #0, 0
    9d28:	0a000014 	beq	9d80 <kmalloc_aligned+0x64>
    9d2c:	e2613000 	rsb	r3, r1, #0, 0
    9d30:	e1d13003 	bics	r3, r1, r3
    9d34:	1a000019 	bne	9da0 <kmalloc_aligned+0x84>
    9d38:	e3510008 	cmp	r1, #8, 0
    9d3c:	33a01008 	movcc	r1, #8, 0
    9d40:	e59f30c0 	ldr	r3, [pc, #192]	; 9e08 <kmalloc_aligned+0xec>
    9d44:	e5932000 	ldr	r2, [r3]
    9d48:	e2613000 	rsb	r3, r1, #0, 0
    9d4c:	e1d1c003 	bics	ip, r1, r3
    9d50:	1a00001b 	bne	9dc4 <kmalloc_aligned+0xa8>
    9d54:	e0822001 	add	r2, r2, r1
    9d58:	e2422001 	sub	r2, r2, #1, 0
    9d5c:	e0033002 	and	r3, r3, r2
    9d60:	e2411001 	sub	r1, r1, #1, 0
    9d64:	e1110003 	tst	r1, r3
    9d68:	1a00001d 	bne	9de4 <kmalloc_aligned+0xc8>
    9d6c:	e59f2094 	ldr	r2, [pc, #148]	; 9e08 <kmalloc_aligned+0xec>
    9d70:	e5823000 	str	r3, [r2]
    9d74:	ebffffcf 	bl	9cb8 <kmalloc>
    9d78:	e28dd00c 	add	sp, sp, #12, 0
    9d7c:	e49df004 	pop	{pc}		; (ldr pc, [sp], #4)
    9d80:	e59f3084 	ldr	r3, [pc, #132]	; 9e0c <kmalloc_aligned+0xf0>
    9d84:	e58d3000 	str	r3, [sp]
    9d88:	e3a0305f 	mov	r3, #95, 0	; 0x5f
    9d8c:	e59f207c 	ldr	r2, [pc, #124]	; 9e10 <kmalloc_aligned+0xf4>
    9d90:	e59f107c 	ldr	r1, [pc, #124]	; 9e14 <kmalloc_aligned+0xf8>
    9d94:	e59f007c 	ldr	r0, [pc, #124]	; 9e18 <kmalloc_aligned+0xfc>
    9d98:	ebfffb96 	bl	8bf8 <printk>
    9d9c:	ebfffe26 	bl	963c <clean_reboot>
    9da0:	eb0000ac 	bl	a058 <rpi_reset_putc>
    9da4:	e59f3070 	ldr	r3, [pc, #112]	; 9e1c <kmalloc_aligned+0x100>
    9da8:	e58d3000 	str	r3, [sp]
    9dac:	e3a03060 	mov	r3, #96, 0	; 0x60
    9db0:	e59f2058 	ldr	r2, [pc, #88]	; 9e10 <kmalloc_aligned+0xf4>
    9db4:	e59f1058 	ldr	r1, [pc, #88]	; 9e14 <kmalloc_aligned+0xf8>
    9db8:	e59f0060 	ldr	r0, [pc, #96]	; 9e20 <kmalloc_aligned+0x104>
    9dbc:	ebfffb8d 	bl	8bf8 <printk>
    9dc0:	ebfffe1d 	bl	963c <clean_reboot>
    9dc4:	e59f3058 	ldr	r3, [pc, #88]	; 9e24 <kmalloc_aligned+0x108>
    9dc8:	e58d3000 	str	r3, [sp]
    9dcc:	e3a03011 	mov	r3, #17, 0
    9dd0:	e59f2050 	ldr	r2, [pc, #80]	; 9e28 <kmalloc_aligned+0x10c>
    9dd4:	e59f1038 	ldr	r1, [pc, #56]	; 9e14 <kmalloc_aligned+0xf8>
    9dd8:	e59f0038 	ldr	r0, [pc, #56]	; 9e18 <kmalloc_aligned+0xfc>
    9ddc:	ebfffb85 	bl	8bf8 <printk>
    9de0:	ebfffe15 	bl	963c <clean_reboot>
    9de4:	eb00009b 	bl	a058 <rpi_reset_putc>
    9de8:	e59f303c 	ldr	r3, [pc, #60]	; 9e2c <kmalloc_aligned+0x110>
    9dec:	e58d3000 	str	r3, [sp]
    9df0:	e3a03068 	mov	r3, #104, 0	; 0x68
    9df4:	e59f2014 	ldr	r2, [pc, #20]	; 9e10 <kmalloc_aligned+0xf4>
    9df8:	e59f1014 	ldr	r1, [pc, #20]	; 9e14 <kmalloc_aligned+0xf8>
    9dfc:	e59f002c 	ldr	r0, [pc, #44]	; 9e30 <kmalloc_aligned+0x114>
    9e00:	ebfffb7c 	bl	8bf8 <printk>
    9e04:	ebfffe0c 	bl	963c <clean_reboot>
    9e08:	0000a978 	andeq	sl, r0, r8, ror r9
    9e0c:	0000a788 	andeq	sl, r0, r8, lsl #15
    9e10:	0000a950 	andeq	sl, r0, r0, asr r9
    9e14:	0000a778 	andeq	sl, r0, r8, ror r7
    9e18:	0000a1d4 	ldrdeq	sl, [r0], -r4
    9e1c:	0000a878 	andeq	sl, r0, r8, ror r8
    9e20:	0000a844 	andeq	sl, r0, r4, asr #16
    9e24:	0000a88c 	andeq	sl, r0, ip, lsl #17
    9e28:	0000a960 	andeq	sl, r0, r0, ror #18
    9e2c:	0000a8c4 	andeq	sl, r0, r4, asr #17
    9e30:	0000a898 	muleq	r0, r8, r8

00009e34 <kfree>:
    9e34:	e12fff1e 	bx	lr

00009e38 <kfree_all>:
    9e38:	e59f3008 	ldr	r3, [pc, #8]	; 9e48 <kfree_all+0x10>
    9e3c:	e5932004 	ldr	r2, [r3, #4]
    9e40:	e5832000 	str	r2, [r3]
    9e44:	e12fff1e 	bx	lr
    9e48:	0000a978 	andeq	sl, r0, r8, ror r9

00009e4c <kfree_pop>:
    9e4c:	e59f3048 	ldr	r3, [pc, #72]	; 9e9c <kfree_pop+0x50>
    9e50:	e5933004 	ldr	r3, [r3, #4]
    9e54:	e1530000 	cmp	r3, r0
    9e58:	8a000006 	bhi	9e78 <kfree_pop+0x2c>
    9e5c:	e59f3038 	ldr	r3, [pc, #56]	; 9e9c <kfree_pop+0x50>
    9e60:	e5933008 	ldr	r3, [r3, #8]
    9e64:	e1530000 	cmp	r3, r0
    9e68:	3a000002 	bcc	9e78 <kfree_pop+0x2c>
    9e6c:	e59f3028 	ldr	r3, [pc, #40]	; 9e9c <kfree_pop+0x50>
    9e70:	e5830000 	str	r0, [r3]
    9e74:	e12fff1e 	bx	lr
    9e78:	e52de004 	push	{lr}		; (str lr, [sp, #-4]!)
    9e7c:	e24dd00c 	sub	sp, sp, #12, 0
    9e80:	e58d0000 	str	r0, [sp]
    9e84:	e3a03077 	mov	r3, #119, 0	; 0x77
    9e88:	e59f2010 	ldr	r2, [pc, #16]	; 9ea0 <kfree_pop+0x54>
    9e8c:	e59f1010 	ldr	r1, [pc, #16]	; 9ea4 <kfree_pop+0x58>
    9e90:	e59f0010 	ldr	r0, [pc, #16]	; 9ea8 <kfree_pop+0x5c>
    9e94:	ebfffb57 	bl	8bf8 <printk>
    9e98:	ebfffde7 	bl	963c <clean_reboot>
    9e9c:	0000a978 	andeq	sl, r0, r8, ror r9
    9ea0:	0000a968 	andeq	sl, r0, r8, ror #18
    9ea4:	0000a778 	andeq	sl, r0, r8, ror r7
    9ea8:	0000a8e0 	andeq	sl, r0, r0, ror #17

00009eac <gpio_set_function>:
    9eac:	e350001f 	cmp	r0, #31, 0
    9eb0:	812fff1e 	bxhi	lr
    9eb4:	e3d13007 	bics	r3, r1, #7, 0
    9eb8:	e92d4070 	push	{r4, r5, r6, lr}
    9ebc:	e1a05001 	mov	r5, r1
    9ec0:	18bd8070 	popne	{r4, r5, r6, pc}
    9ec4:	e59f403c 	ldr	r4, [pc, #60]	; 9f08 <gpio_set_function+0x5c>
    9ec8:	e0843094 	umull	r3, r4, r4, r0
    9ecc:	e1a041a4 	lsr	r4, r4, #3
    9ed0:	e2843302 	add	r3, r4, #134217728	; 0x8000000
    9ed4:	e2833702 	add	r3, r3, #524288	; 0x80000
    9ed8:	e1a06103 	lsl	r6, r3, #2
    9edc:	e0844104 	add	r4, r4, r4, lsl #2
    9ee0:	e0404084 	sub	r4, r0, r4, lsl #1
    9ee4:	e1a00006 	mov	r0, r6
    9ee8:	ebfff84f 	bl	802c <GET32>
    9eec:	e3a01007 	mov	r1, #7, 0
    9ef0:	e0844084 	add	r4, r4, r4, lsl #1
    9ef4:	e1c01411 	bic	r1, r0, r1, lsl r4
    9ef8:	e1811415 	orr	r1, r1, r5, lsl r4
    9efc:	e1a00006 	mov	r0, r6
    9f00:	e8bd4070 	pop	{r4, r5, r6, lr}
    9f04:	eafff846 	b	8024 <PUT32>
    9f08:	cccccccd 	stclgt	12, cr12, [ip], {205}	; 0xcd

00009f0c <gpio_set_output>:
    9f0c:	e350001f 	cmp	r0, #31, 0
    9f10:	812fff1e 	bxhi	lr
    9f14:	e92d4070 	push	{r4, r5, r6, lr}
    9f18:	e59f4040 	ldr	r4, [pc, #64]	; 9f60 <gpio_set_output+0x54>
    9f1c:	e0843094 	umull	r3, r4, r4, r0
    9f20:	e1a041a4 	lsr	r4, r4, #3
    9f24:	e2843302 	add	r3, r4, #134217728	; 0x8000000
    9f28:	e2833702 	add	r3, r3, #524288	; 0x80000
    9f2c:	e1a05103 	lsl	r5, r3, #2
    9f30:	e0844104 	add	r4, r4, r4, lsl #2
    9f34:	e0404084 	sub	r4, r0, r4, lsl #1
    9f38:	e1a00005 	mov	r0, r5
    9f3c:	ebfff83a 	bl	802c <GET32>
    9f40:	e3a03007 	mov	r3, #7, 0
    9f44:	e3a01001 	mov	r1, #1, 0
    9f48:	e0844084 	add	r4, r4, r4, lsl #1
    9f4c:	e1c03413 	bic	r3, r0, r3, lsl r4
    9f50:	e1831411 	orr	r1, r3, r1, lsl r4
    9f54:	e1a00005 	mov	r0, r5
    9f58:	e8bd4070 	pop	{r4, r5, r6, lr}
    9f5c:	eafff830 	b	8024 <PUT32>
    9f60:	cccccccd 	stclgt	12, cr12, [ip], {205}	; 0xcd

00009f64 <gpio_set_on>:
    9f64:	e1a03000 	mov	r3, r0
    9f68:	e3a01001 	mov	r1, #1, 0
    9f6c:	e59f0004 	ldr	r0, [pc, #4]	; 9f78 <gpio_set_on+0x14>
    9f70:	e1a01311 	lsl	r1, r1, r3
    9f74:	eafff82a 	b	8024 <PUT32>
    9f78:	2020001c 	eorcs	r0, r0, ip, lsl r0

00009f7c <gpio_set_off>:
    9f7c:	e1a03000 	mov	r3, r0
    9f80:	e3a01001 	mov	r1, #1, 0
    9f84:	e59f0004 	ldr	r0, [pc, #4]	; 9f90 <gpio_set_off+0x14>
    9f88:	e1a01311 	lsl	r1, r1, r3
    9f8c:	eafff824 	b	8024 <PUT32>
    9f90:	20200028 	eorcs	r0, r0, r8, lsr #32

00009f94 <gpio_set_input>:
    9f94:	e350001f 	cmp	r0, #31, 0
    9f98:	812fff1e 	bxhi	lr
    9f9c:	e92d4070 	push	{r4, r5, r6, lr}
    9fa0:	e59f5040 	ldr	r5, [pc, #64]	; 9fe8 <gpio_set_input+0x54>
    9fa4:	e1a04000 	mov	r4, r0
    9fa8:	e0853095 	umull	r3, r5, r5, r0
    9fac:	e1a051a5 	lsr	r5, r5, #3
    9fb0:	e2850302 	add	r0, r5, #134217728	; 0x8000000
    9fb4:	e2800702 	add	r0, r0, #524288	; 0x80000
    9fb8:	e1a06100 	lsl	r6, r0, #2
    9fbc:	e1a00006 	mov	r0, r6
    9fc0:	ebfff819 	bl	802c <GET32>
    9fc4:	e3a01007 	mov	r1, #7, 0
    9fc8:	e1a03000 	mov	r3, r0
    9fcc:	e0855105 	add	r5, r5, r5, lsl #2
    9fd0:	e0444085 	sub	r4, r4, r5, lsl #1
    9fd4:	e0844084 	add	r4, r4, r4, lsl #1
    9fd8:	e1a00006 	mov	r0, r6
    9fdc:	e1c31411 	bic	r1, r3, r1, lsl r4
    9fe0:	e8bd4070 	pop	{r4, r5, r6, lr}
    9fe4:	eafff80e 	b	8024 <PUT32>
    9fe8:	cccccccd 	stclgt	12, cr12, [ip], {205}	; 0xcd

00009fec <gpio_write>:
    9fec:	e3510000 	cmp	r1, #0, 0
    9ff0:	e3a03001 	mov	r3, #1, 0
    9ff4:	e1a01000 	mov	r1, r0
    9ff8:	0a000002 	beq	a008 <gpio_write+0x1c>
    9ffc:	e59f0010 	ldr	r0, [pc, #16]	; a014 <gpio_write+0x28>
    a000:	e1a01113 	lsl	r1, r3, r1
    a004:	eafff806 	b	8024 <PUT32>
    a008:	e59f0008 	ldr	r0, [pc, #8]	; a018 <gpio_write+0x2c>
    a00c:	e1a01113 	lsl	r1, r3, r1
    a010:	eafff803 	b	8024 <PUT32>
    a014:	2020001c 	eorcs	r0, r0, ip, lsl r0
    a018:	20200028 	eorcs	r0, r0, r8, lsr #32

0000a01c <gpio_read>:
    a01c:	e92d4010 	push	{r4, lr}
    a020:	e1a04000 	mov	r4, r0
    a024:	e59f0014 	ldr	r0, [pc, #20]	; a040 <gpio_read+0x24>
    a028:	e08002a4 	add	r0, r0, r4, lsr #5
    a02c:	ebfff7fe 	bl	802c <GET32>
    a030:	e204401f 	and	r4, r4, #31, 0
    a034:	e1a00430 	lsr	r0, r0, r4
    a038:	e2000001 	and	r0, r0, #1, 0
    a03c:	e8bd8010 	pop	{r4, pc}
    a040:	20200034 	eorcs	r0, r0, r4, lsr r0

0000a044 <internal_putchar>:
    a044:	e92d4010 	push	{r4, lr}
    a048:	e1a04000 	mov	r4, r0
    a04c:	ebfffe84 	bl	9a64 <uart_putc>
    a050:	e1a00004 	mov	r0, r4
    a054:	e8bd8010 	pop	{r4, pc}

0000a058 <rpi_reset_putc>:
    a058:	e59f3008 	ldr	r3, [pc, #8]	; a068 <rpi_reset_putc+0x10>
    a05c:	e59f2008 	ldr	r2, [pc, #8]	; a06c <rpi_reset_putc+0x14>
    a060:	e5832000 	str	r2, [r3]
    a064:	e12fff1e 	bx	lr
    a068:	0000a984 	andeq	sl, r0, r4, lsl #19
    a06c:	0000a044 	andeq	sl, r0, r4, asr #32

0000a070 <rpi_set_putc>:
    a070:	e59f3004 	ldr	r3, [pc, #4]	; a07c <rpi_set_putc+0xc>
    a074:	e5830000 	str	r0, [r3]
    a078:	e12fff1e 	bx	lr
    a07c:	0000a984 	andeq	sl, r0, r4, lsl #19

0000a080 <strcat>:
    a080:	e1a02000 	mov	r2, r0
    a084:	e1a03002 	mov	r3, r2
    a088:	e4d2c001 	ldrb	ip, [r2], #1
    a08c:	e35c0000 	cmp	ip, #0, 0
    a090:	1afffffb 	bne	a084 <strcat+0x4>
    a094:	e2433001 	sub	r3, r3, #1, 0
    a098:	e4d12001 	ldrb	r2, [r1], #1
    a09c:	e3520000 	cmp	r2, #0, 0
    a0a0:	e5e32001 	strb	r2, [r3, #1]!
    a0a4:	1afffffb 	bne	a098 <strcat+0x18>
    a0a8:	e12fff1e 	bx	lr

0000a0ac <strcmp>:
    a0ac:	e5d03000 	ldrb	r3, [r0]
    a0b0:	e3530000 	cmp	r3, #0, 0
    a0b4:	05d12000 	ldrbeq	r2, [r1]
    a0b8:	1a000003 	bne	a0cc <strcmp+0x20>
    a0bc:	ea000006 	b	a0dc <strcmp+0x30>
    a0c0:	e5f03001 	ldrb	r3, [r0, #1]!
    a0c4:	e3530000 	cmp	r3, #0, 0
    a0c8:	0a000005 	beq	a0e4 <strcmp+0x38>
    a0cc:	e1a0c001 	mov	ip, r1
    a0d0:	e4d12001 	ldrb	r2, [r1], #1
    a0d4:	e1520003 	cmp	r2, r3
    a0d8:	0afffff8 	beq	a0c0 <strcmp+0x14>
    a0dc:	e0430002 	sub	r0, r3, r2
    a0e0:	e12fff1e 	bx	lr
    a0e4:	e5dc2001 	ldrb	r2, [ip, #1]
    a0e8:	e0430002 	sub	r0, r3, r2
    a0ec:	e12fff1e 	bx	lr

0000a0f0 <strcpy>:
    a0f0:	e2402001 	sub	r2, r0, #1, 0
    a0f4:	e4d13001 	ldrb	r3, [r1], #1
    a0f8:	e3530000 	cmp	r3, #0, 0
    a0fc:	e5e23001 	strb	r3, [r2, #1]!
    a100:	1afffffb 	bne	a0f4 <strcpy+0x4>
    a104:	e12fff1e 	bx	lr

0000a108 <strncmp>:
    a108:	e0802002 	add	r2, r0, r2
    a10c:	ea000003 	b	a120 <strncmp+0x18>
    a110:	e4d03001 	ldrb	r3, [r0], #1
    a114:	e4d1c001 	ldrb	ip, [r1], #1
    a118:	e153000c 	cmp	r3, ip
    a11c:	1a000003 	bne	a130 <strncmp+0x28>
    a120:	e1500002 	cmp	r0, r2
    a124:	1afffff9 	bne	a110 <strncmp+0x8>
    a128:	e3a00000 	mov	r0, #0, 0
    a12c:	e12fff1e 	bx	lr
    a130:	e043000c 	sub	r0, r3, ip
    a134:	e12fff1e 	bx	lr

0000a138 <reboot_callout>:
    a138:	e12fff1e 	bx	lr

0000a13c <dev_barrier>:
    a13c:	ea000002 	b	a14c <dsb>

0000a140 <dmb>:
    a140:	e3a00000 	mov	r0, #0, 0
    a144:	ee070fba 	mcr	15, 0, r0, cr7, cr10, {5}
    a148:	e12fff1e 	bx	lr

0000a14c <dsb>:
    a14c:	ee070f9a 	mcr	15, 0, r0, cr7, cr10, {4}
    a150:	e12fff1e 	bx	lr

0000a154 <__code_end__>:
    a154:	00000000 	andeq	r0, r0, r0

Disassembly of section .rodata:

0000a158 <__FUNCTION__.4010-0x68>:
    a158:	74736574 	ldrbtvc	r6, [r3], #-1396	; 0xfffffa8c
    a15c:	61702f73 	cmnvs	r0, r3, ror pc
    a160:	2d327472 	cfldrscs	mvf7, [r2, #-456]!	; 0xfffffe38
    a164:	74736574 	ldrbtvc	r6, [r3], #-1396	; 0xfffffa8c
    a168:	00632e33 	rsbeq	r2, r3, r3, lsr lr
    a16c:	74204347 	strtvc	r4, [r0], #-839	; 0xfffffcb9
    a170:	3a747365 	bcc	1d26f0c <__bss_end__+0x1d1c15c>
    a174:	65686320 	strbvs	r6, [r8, #-800]!	; 0xfffffce0
    a178:	6e696b63 	vnmulvs.f64	d22, d9, d19
    a17c:	68742067 	ldmdavs	r4!, {r0, r1, r2, r5, r6, sp}^
    a180:	61207461 			; <UNDEFINED> instruction: 0x61207461
    a184:	6e696c20 	cdpvs	12, 6, cr6, cr9, cr0, {1}
    a188:	2064656b 	rsbcs	r6, r4, fp, ror #10
    a18c:	7473696c 	ldrbtvc	r6, [r3], #-2412	; 0xfffff694
    a190:	20736920 	rsbscs	r6, r3, r0, lsr #18
    a194:	63637573 	cmnvs	r3, #482344960	; 0x1cc00000
    a198:	66737365 	ldrbtvs	r7, [r3], -r5, ror #6
    a19c:	796c6c75 	stmdbvc	ip!, {r0, r2, r4, r5, r6, sl, fp, sp, lr}^
    a1a0:	61727420 	cmnvs	r2, r0, lsr #8
    a1a4:	73726576 	cmnvc	r2, #494927872	; 0x1d800000
    a1a8:	0a2e6465 	beq	ba3344 <__bss_end__+0xb98594>
    a1ac:	00000000 	andeq	r0, r0, r0
    a1b0:	7473616c 	ldrbtvc	r6, [r3], #-364	; 0xfffffe94
    a1b4:	6c6c6120 	stfvse	f6, [ip], #-128	; 0xffffff80
    a1b8:	3d20636f 	stccc	3, cr6, [r0, #-444]!	; 0xfffffe44
    a1bc:	000a7025 	andeq	r7, sl, r5, lsr #32

0000a1c0 <__FUNCTION__.4010>:
    a1c0:	74736574 	ldrbtvc	r6, [r3], #-1396	; 0xfffffa8c
    a1c4:	00000000 	andeq	r0, r0, r0
    a1c8:	6c616b63 			; <UNDEFINED> instruction: 0x6c616b63
    a1cc:	2e636f6c 	cdpcs	15, 6, cr6, cr3, cr12, {3}
    a1d0:	00000063 	andeq	r0, r0, r3, rrx
    a1d4:	494e4150 	stmdbmi	lr, {r4, r6, r8, lr}^
    a1d8:	73253a43 			; <UNDEFINED> instruction: 0x73253a43
    a1dc:	3a73253a 	bcc	1cd36cc <__bss_end__+0x1cc891c>
    a1e0:	253a6425 	ldrcs	r6, [sl, #-1061]!	; 0xfffffbdb
    a1e4:	00000a73 	andeq	r0, r0, r3, ror sl
    a1e8:	0000006c 	andeq	r0, r0, ip, rrx
    a1ec:	494e4150 	stmdbmi	lr, {r4, r6, r8, lr}^
    a1f0:	73253a43 			; <UNDEFINED> instruction: 0x73253a43
    a1f4:	3a73253a 	bcc	1cd36e4 <__bss_end__+0x1cc8934>
    a1f8:	643a6425 	ldrtvs	r6, [sl], #-1061	; 0xfffffbdb
    a1fc:	6e206469 	cdpvs	4, 2, cr6, cr0, cr9, {3}
    a200:	6620746f 	strtvs	r7, [r0], -pc, ror #8
    a204:	20646e69 	rsbcs	r6, r4, r9, ror #28
    a208:	69207025 	stmdbvs	r0!, {r0, r2, r5, ip, sp, lr}
    a20c:	696c206e 	stmdbvs	ip!, {r1, r2, r3, r5, r6, sp}^
    a210:	0a0a7473 	beq	2a73e4 <__bss_end__+0x29c634>
    a214:	00000000 	andeq	r0, r0, r0
    a218:	6e756f66 	cdpvs	15, 7, cr6, cr5, cr6, {3}
    a21c:	70252064 	eorvc	r2, r5, r4, rrx
    a220:	206e6920 	rsbcs	r6, lr, r0, lsr #18
    a224:	000a7025 	andeq	r7, sl, r5, lsr #32
    a228:	253a7325 	ldrcs	r7, [sl, #-805]!	; 0xfffffcdb
    a22c:	64253a73 	strtvs	r3, [r5], #-2675	; 0xfffff58d
    a230:	0000003a 	andeq	r0, r0, sl, lsr r0
    a234:	65657266 	strbvs	r7, [r5, #-614]!	; 0xfffffd9a
    a238:	20676e69 	rsbcs	r6, r7, r9, ror #28
    a23c:	0a702509 	beq	1c13668 <__bss_end__+0x1c088b8>
    a240:	00000000 	andeq	r0, r0, r0
    a244:	5f434f4c 	svcpl	0x00434f4c
    a248:	494e4150 	stmdbmi	lr, {r4, r6, r8, lr}^
    a24c:	25203a43 	strcs	r3, [r0, #-2627]!	; 0xfffff5bd
    a250:	73253a73 			; <UNDEFINED> instruction: 0x73253a73
    a254:	3a64253a 	bcc	1913744 <__bss_end__+0x1908994>
    a258:	00000000 	andeq	r0, r0, r0
    a25c:	65657266 	strbvs	r7, [r5, #-614]!	; 0xfffffd9a
    a260:	20676e69 	rsbcs	r6, r7, r9, ror #28
    a264:	6c616e75 	stclvs	14, cr6, [r1], #-468	; 0xfffffe2c
    a268:	61636f6c 	cmnvs	r3, ip, ror #30
    a26c:	20646574 	rsbcs	r6, r4, r4, ror r5
    a270:	6f6d656d 	svcvs	0x006d656d
    a274:	203a7972 	eorscs	r7, sl, r2, ror r9
    a278:	74617473 	strbtvc	r7, [r1], #-1139	; 0xfffffb8d
    a27c:	64253d65 	strtvs	r3, [r5], #-3429	; 0xfffff29b
    a280:	0000000a 	andeq	r0, r0, sl
    a284:	705f6b63 	subsvc	r6, pc, r3, ror #22
    a288:	695f7274 	ldmdbvs	pc, {r2, r4, r5, r6, r9, ip, sp, lr}^	; <UNPREDICTABLE>
    a28c:	6c615f73 	stclvs	15, cr5, [r1], #-460	; 0xfffffe34
    a290:	65636f6c 	strbvs	r6, [r3, #-3948]!	; 0xfffff094
    a294:	64612864 	strbtvs	r2, [r1], #-2148	; 0xfffff79c
    a298:	00297264 	eoreq	r7, r9, r4, ror #4
    a29c:	6f6c6c61 	svcvs	0x006c6c61
    a2a0:	69746163 	ldmdbvs	r4!, {r0, r1, r5, r6, r8, sp, lr}^
    a2a4:	0920676e 	stmdbeq	r0!, {r1, r2, r3, r5, r6, r8, r9, sl, sp, lr}
    a2a8:	000a7025 	andeq	r7, sl, r5, lsr #32

0000a2ac <__FUNCTION__.4039>:
    a2ac:	7473696c 	ldrbtvc	r6, [r3], #-2412	; 0xfffff694
    a2b0:	6d65725f 	sfmvs	f7, 2, [r5, #-380]!	; 0xfffffe84
    a2b4:	0065766f 	rsbeq	r7, r5, pc, ror #12

0000a2b8 <__FUNCTION__.4050>:
    a2b8:	72666b63 	rsbvc	r6, r6, #101376	; 0x18c00
    a2bc:	00006565 	andeq	r6, r0, r5, ror #10
    a2c0:	672d6b63 	strvs	r6, [sp, -r3, ror #22]!
    a2c4:	00632e63 	rsbeq	r2, r3, r3, ror #28
    a2c8:	203c2070 	eorscs	r2, ip, r0, ror r0
    a2cc:	00000065 	andeq	r0, r0, r5, rrx
    a2d0:	67696c61 	strbvs	r6, [r9, -r1, ror #24]!
    a2d4:	2864656e 	stmdacs	r4!, {r1, r2, r3, r5, r6, r8, sl, sp, lr}^
    a2d8:	34202c70 	strtcc	r2, [r0], #-3184	; 0xfffff390
    a2dc:	00000029 	andeq	r0, r0, r9, lsr #32
    a2e0:	67696c61 	strbvs	r6, [r9, -r1, ror #24]!
    a2e4:	2864656e 	stmdacs	r4!, {r1, r2, r3, r5, r6, r8, sl, sp, lr}^
    a2e8:	34202c65 	strtcc	r2, [r0], #-3173	; 0xfffff39b
    a2ec:	00000029 	andeq	r0, r0, r9, lsr #32
    a2f0:	6e696f67 	cdpvs	15, 6, cr6, cr9, cr7, {3}
    a2f4:	6f742067 	svcvs	0x00742067
    a2f8:	72616d20 	rsbvc	r6, r1, #32, 26	; 0x800
    a2fc:	7025206b 	eorvc	r2, r5, fp, rrx
    a300:	20692820 	rsbcs	r2, r9, r0, lsr #16
    a304:	70252040 	eorvc	r2, r5, r0, asr #32
    a308:	25203d20 	strcs	r3, [r0, #-3360]!	; 0xfffff2e0
    a30c:	202c2970 	eorcs	r2, ip, r0, ror r9
    a310:	20707865 	rsbscs	r7, r0, r5, ror #16
    a314:	7025203d 	eorvc	r2, r5, sp, lsr r0
    a318:	0000000a 	andeq	r0, r0, sl
    a31c:	6b72616d 	blvs	1ca28d8 <__bss_end__+0x1c97b28>
    a320:	20676e69 	rsbcs	r6, r7, r9, ror #28
    a324:	25207361 	strcs	r7, [r0, #-865]!	; 0xfffffc9f
    a328:	00000a64 	andeq	r0, r0, r4, ror #20
    a32c:	20746f6e 	rsbscs	r6, r4, lr, ror #30
    a330:	6b72616d 	blvs	1ca28ec <__bss_end__+0x1c97b3c>
    a334:	21676e69 	cmncs	r7, r9, ror #28
    a338:	0000000a 	andeq	r0, r0, sl
    a33c:	63656863 	cmnvs	r5, #6488064	; 0x630000
    a340:	676e696b 	strbvs	r6, [lr, -fp, ror #18]!
    a344:	61747320 	cmnvs	r4, r0, lsr #6
    a348:	203a6b63 	eorscs	r6, sl, r3, ror #22
    a34c:	74207025 	strtvc	r7, [r0], #-37	; 0xffffffdb
    a350:	7025206f 	eorvc	r2, r5, pc, rrx
    a354:	0000000a 	andeq	r0, r0, sl
    a358:	2d2d2d2d 	stccs	13, cr2, [sp, #-180]!	; 0xffffff4c
    a35c:	2d2d2d2d 	stccs	13, cr2, [sp, #-180]!	; 0xffffff4c
    a360:	2d2d2d2d 	stccs	13, cr2, [sp, #-180]!	; 0xffffff4c
    a364:	2d2d2d2d 	stccs	13, cr2, [sp, #-180]!	; 0xffffff4c
    a368:	2d2d2d2d 	stccs	13, cr2, [sp, #-180]!	; 0xffffff4c
    a36c:	2d2d2d2d 	stccs	13, cr2, [sp, #-180]!	; 0xffffff4c
    a370:	2d2d2d2d 	stccs	13, cr2, [sp, #-180]!	; 0xffffff4c
    a374:	2d2d2d2d 	stccs	13, cr2, [sp, #-180]!	; 0xffffff4c
    a378:	2d2d2d2d 	stccs	13, cr2, [sp, #-180]!	; 0xffffff4c
    a37c:	2d2d2d2d 	stccs	13, cr2, [sp, #-180]!	; 0xffffff4c
    a380:	2d2d2d2d 	stccs	13, cr2, [sp, #-180]!	; 0xffffff4c
    a384:	2d2d2d2d 	stccs	13, cr2, [sp, #-180]!	; 0xffffff4c
    a388:	2d2d2d2d 	stccs	13, cr2, [sp, #-180]!	; 0xffffff4c
    a38c:	2d2d2d2d 	stccs	13, cr2, [sp, #-180]!	; 0xffffff4c
    a390:	00000a2d 	andeq	r0, r0, sp, lsr #20
    a394:	63656863 	cmnvs	r5, #6488064	; 0x630000
    a398:	676e696b 	strbvs	r6, [lr, -fp, ror #18]!
    a39c:	726f6620 	rsbvc	r6, pc, #32, 12	; 0x2000000
    a3a0:	61656c20 	cmnvs	r5, r0, lsr #24
    a3a4:	0a3a736b 	beq	ea7158 <__bss_end__+0xe9c3a8>
    a3a8:	00000000 	andeq	r0, r0, r0
    a3ac:	4c3a4347 	ldcmi	3, cr4, [sl], #-284	; 0xfffffee4
    a3b0:	2054534f 	subscs	r5, r4, pc, asr #6
    a3b4:	2d206425 	cfstrscs	mvf6, [r0, #-148]!	; 0xffffff6c
    a3b8:	7025203e 	eorvc	r2, r5, lr, lsr r0
    a3bc:	0000000a 	andeq	r0, r0, sl
    a3c0:	4d3a4347 	ldcmi	3, cr4, [sl, #-284]!	; 0xfffffee4
    a3c4:	45425941 	strbmi	r5, [r2, #-2369]	; 0xfffff6bf
    a3c8:	534f4c20 	movtpl	r4, #64544	; 0xfc20
    a3cc:	64252054 	strtvs	r2, [r5], #-84	; 0xffffffac
    a3d0:	203e2d20 	eorscs	r2, lr, r0, lsr #26
    a3d4:	000a7025 	andeq	r7, sl, r5, lsr #32
    a3d8:	43415254 	movtmi	r5, #4692	; 0x1254
    a3dc:	00003a45 	andeq	r3, r0, r5, asr #20
    a3e0:	3a434709 	bcc	10dc00c <__bss_end__+0x10d125c>
    a3e4:	63656843 	cmnvs	r5, #4390912	; 0x430000
    a3e8:	2064656b 	rsbcs	r6, r4, fp, ror #10
    a3ec:	62206425 	eorvs	r6, r0, #620756992	; 0x25000000
    a3f0:	6b636f6c 	blvs	18e61a8 <__bss_end__+0x18db3f8>
    a3f4:	000a2e73 	andeq	r2, sl, r3, ror lr
    a3f8:	43470909 	movtmi	r0, #30985	; 0x7909
    a3fc:	4355533a 	cmpmi	r5, #-402653184	; 0xe8000000
    a400:	53534543 	cmppl	r3, #281018368	; 0x10c00000
    a404:	6f4e203a 	svcvs	0x004e203a
    a408:	61656c20 	cmnvs	r5, r0, lsr #24
    a40c:	6620736b 	strtvs	r7, [r0], -fp, ror #6
    a410:	646e756f 	strbtvs	r7, [lr], #-1391	; 0xfffffa91
    a414:	00000a21 	andeq	r0, r0, r1, lsr #20
    a418:	43470909 	movtmi	r0, #30985	; 0x7909
    a41c:	5252453a 	subspl	r4, r2, #243269632	; 0xe800000
    a420:	3a53524f 	bcc	14ded64 <__bss_end__+0x14d3fb4>
    a424:	20642520 	rsbcs	r2, r4, r0, lsr #10
    a428:	6f727265 	svcvs	0x00727265
    a42c:	202c7372 	eorcs	r7, ip, r2, ror r3
    a430:	6d206425 	cfstrsvs	mvf6, [r0, #-148]!	; 0xffffff6c
    a434:	65627961 	strbvs	r7, [r2, #-2401]!	; 0xfffff69f
    a438:	7272655f 	rsbsvc	r6, r2, #398458880	; 0x17c00000
    a43c:	0a73726f 	beq	1ce6e00 <__bss_end__+0x1cdc050>
    a440:	00000000 	andeq	r0, r0, r0
    a444:	2d2d2d2d 	stccs	13, cr2, [sp, #-180]!	; 0xffffff4c
    a448:	2d2d2d2d 	stccs	13, cr2, [sp, #-180]!	; 0xffffff4c
    a44c:	2d2d2d2d 	stccs	13, cr2, [sp, #-180]!	; 0xffffff4c
    a450:	2d2d2d2d 	stccs	13, cr2, [sp, #-180]!	; 0xffffff4c
    a454:	2d2d2d2d 	stccs	13, cr2, [sp, #-180]!	; 0xffffff4c
    a458:	2d2d2d2d 	stccs	13, cr2, [sp, #-180]!	; 0xffffff4c
    a45c:	2d2d2d2d 	stccs	13, cr2, [sp, #-180]!	; 0xffffff4c
    a460:	2d2d2d2d 	stccs	13, cr2, [sp, #-180]!	; 0xffffff4c
    a464:	2d2d2d2d 	stccs	13, cr2, [sp, #-180]!	; 0xffffff4c
    a468:	2d2d2d2d 	stccs	13, cr2, [sp, #-180]!	; 0xffffff4c
    a46c:	2d2d2d2d 	stccs	13, cr2, [sp, #-180]!	; 0xffffff4c
    a470:	2d2d2d2d 	stccs	13, cr2, [sp, #-180]!	; 0xffffff4c
    a474:	2d2d2d2d 	stccs	13, cr2, [sp, #-180]!	; 0xffffff4c
    a478:	2d2d2d2d 	stccs	13, cr2, [sp, #-180]!	; 0xffffff4c
    a47c:	000a2d2d 	andeq	r2, sl, sp, lsr #26
    a480:	706d6f63 	rsbvc	r6, sp, r3, ror #30
    a484:	69746361 	ldmdbvs	r4!, {r0, r5, r6, r8, r9, sp, lr}^
    a488:	0a3a676e 	beq	ea4248 <__bss_end__+0xe99498>
    a48c:	00000000 	andeq	r0, r0, r0
    a490:	463a4347 	ldrtmi	r4, [sl], -r7, asr #6
    a494:	44454552 	strbmi	r4, [r5], #-1362	; 0xfffffaae
    a498:	0a702520 	beq	1c13920 <__bss_end__+0x1c08b70>
    a49c:	00000000 	andeq	r0, r0, r0
    a4a0:	3a434709 	bcc	10dc0cc <__bss_end__+0x10d131c>
    a4a4:	63656843 	cmnvs	r5, #4390912	; 0x430000
    a4a8:	2064656b 	rsbcs	r6, r4, fp, ror #10
    a4ac:	62206425 	eorvs	r6, r0, #620756992	; 0x25000000
    a4b0:	6b636f6c 	blvs	18e6268 <__bss_end__+0x18db4b8>
    a4b4:	66202c73 			; <UNDEFINED> instruction: 0x66202c73
    a4b8:	64656572 	strbtvs	r6, [r5], #-1394	; 0xfffffa8e
    a4bc:	2c642520 	cfstr64cs	mvdx2, [r4], #-128	; 0xffffff80
    a4c0:	20642520 	rsbcs	r2, r4, r0, lsr #10
    a4c4:	65747962 	ldrbvs	r7, [r4, #-2402]!	; 0xfffff69e
    a4c8:	00000a73 	andeq	r0, r0, r3, ror sl
    a4cc:	72636e69 	rsbvc	r6, r3, #1680	; 0x690
    a4d0:	6e656d65 	cdpvs	13, 6, cr6, cr5, cr5, {3}
    a4d4:	203e2074 	eorscs	r2, lr, r4, ror r0
    a4d8:	00000030 	andeq	r0, r0, r0, lsr r0
    a4dc:	494e4150 	stmdbmi	lr, {r4, r6, r8, lr}^
    a4e0:	73253a43 			; <UNDEFINED> instruction: 0x73253a43
    a4e4:	3a73253a 	bcc	1cd39d4 <__bss_end__+0x1cc8c24>
    a4e8:	6e3a6425 	cdpvs	4, 3, cr6, cr10, cr5, {1}
    a4ec:	6820746f 	stmdavs	r0!, {r0, r1, r2, r3, r5, r6, sl, ip, sp, lr}
    a4f0:	6c646e61 	stclvs	14, cr6, [r4], #-388	; 0xfffffe7c
    a4f4:	0a676e69 	beq	19e5ea0 <__bss_end__+0x19db0f0>
    a4f8:	0000000a 	andeq	r0, r0, sl
    a4fc:	494e4150 	stmdbmi	lr, {r4, r6, r8, lr}^
    a500:	73253a43 			; <UNDEFINED> instruction: 0x73253a43
    a504:	3a73253a 	bcc	1cd39f4 <__bss_end__+0x1cc8c44>
    a508:	473a6425 	ldrmi	r6, [sl, -r5, lsr #8]!
    a50c:	73203a43 			; <UNDEFINED> instruction: 0x73203a43
    a510:	6c756f68 	ldclvs	15, cr6, [r5], #-416	; 0xfffffe60
    a514:	61682064 	cmnvs	r8, r4, rrx
    a518:	6e206576 	mcrvs	5, 1, r6, cr0, cr6, {3}
    a51c:	656c206f 	strbvs	r2, [ip, #-111]!	; 0xffffff91
    a520:	21736b61 	cmncs	r3, r1, ror #22
    a524:	00000a0a 	andeq	r0, r0, sl, lsl #20
    a528:	203a4347 	eorscs	r4, sl, r7, asr #6
    a52c:	43435553 	movtmi	r5, #13651	; 0x3553
    a530:	3a535345 	bcc	14df24c <__bss_end__+0x14d449c>
    a534:	206f6e20 	rsbcs	r6, pc, r0, lsr #28
    a538:	6b61656c 	blvs	1863af0 <__bss_end__+0x1858d40>
    a53c:	000a2173 	andeq	r2, sl, r3, ror r1
    a540:	494e4150 	stmdbmi	lr, {r4, r6, r8, lr}^
    a544:	73253a43 			; <UNDEFINED> instruction: 0x73253a43
    a548:	3a73253a 	bcc	1cd3a38 <__bss_end__+0x1cc8c88>
    a54c:	473a6425 	ldrmi	r6, [sl, -r5, lsr #8]!
    a550:	73203a43 			; <UNDEFINED> instruction: 0x73203a43
    a554:	6c756f68 	ldclvs	15, cr6, [r5], #-416	; 0xfffffe60
    a558:	61682064 	cmnvs	r8, r4, rrx
    a55c:	6c206576 	cfstr32vs	mvfx6, [r0], #-472	; 0xfffffe28
    a560:	736b6165 	cmnvc	fp, #1073741849	; 0x40000019
    a564:	000a0a21 	andeq	r0, sl, r1, lsr #20
    a568:	203a4347 	eorscs	r4, sl, r7, asr #6
    a56c:	43435553 	movtmi	r5, #13651	; 0x3553
    a570:	3a535345 	bcc	14df28c <__bss_end__+0x14d44dc>
    a574:	756f6620 	strbvc	r6, [pc, #-1568]!	; 9f5c <gpio_set_output+0x50>
    a578:	2520646e 	strcs	r6, [r0, #-1134]!	; 0xfffffb92
    a57c:	656c2064 	strbvs	r2, [ip, #-100]!	; 0xffffff9c
    a580:	21736b61 	cmncs	r3, r1, ror #22
    a584:	0000000a 	andeq	r0, r0, sl
    a588:	494e4150 	stmdbmi	lr, {r4, r6, r8, lr}^
    a58c:	73253a43 			; <UNDEFINED> instruction: 0x73253a43
    a590:	3a73253a 	bcc	1cd3a80 <__bss_end__+0x1cc8cd0>
    a594:	643a6425 	ldrtvs	r6, [sl], #-1061	; 0xfffffbdb
    a598:	6e206469 	cdpvs	4, 2, cr6, cr0, cr9, {3}
    a59c:	6920746f 	stmdbvs	r0!, {r0, r1, r2, r3, r5, r6, sl, ip, sp, lr}
    a5a0:	656c706d 	strbvs	r7, [ip, #-109]!	; 0xffffff93
    a5a4:	746e656d 	strbtvc	r6, [lr], #-1389	; 0xfffffa93
    a5a8:	6d756420 	cfldrdvs	mvd6, [r5, #-128]!	; 0xffffff80
    a5ac:	65725f70 	ldrbvs	r5, [r2, #-3952]!	; 0xfffff090
    a5b0:	0a217367 	beq	867354 <__bss_end__+0x85c5a4>
    a5b4:	0000000a 	andeq	r0, r0, sl

0000a5b8 <__FUNCTION__.4026>:
    a5b8:	6b72616d 	blvs	1ca2b74 <__bss_end__+0x1c97dc4>
    a5bc:	00000000 	andeq	r0, r0, r0

0000a5c0 <__FUNCTION__.4082>:
    a5c0:	65657773 	strbvs	r7, [r5, #-1907]!	; 0xfffff88d
    a5c4:	72665f70 	rsbvc	r5, r6, #112, 30	; 0x1c0
    a5c8:	00006565 	andeq	r6, r0, r5, ror #10

0000a5cc <__FUNCTION__.4013>:
    a5cc:	6b726273 	blvs	1ca2fa0 <__bss_end__+0x1c981f0>
    a5d0:	00000000 	andeq	r0, r0, r0

0000a5d4 <__FUNCTION__.4069>:
    a5d4:	63656863 	cmnvs	r5, #6488064	; 0x630000
    a5d8:	6f6e5f6b 	svcvs	0x006e5f6b
    a5dc:	61656c5f 	cmnvs	r5, pc, asr ip
    a5e0:	0000006b 	andeq	r0, r0, fp, rrx

0000a5e4 <__FUNCTION__.4074>:
    a5e4:	63656863 	cmnvs	r5, #6488064	; 0x630000
    a5e8:	68735f6b 	ldmdavs	r3!, {r0, r1, r3, r5, r6, r8, r9, sl, fp, ip, lr}^
    a5ec:	646c756f 	strbtvs	r7, [ip], #-1391	; 0xfffffa91
    a5f0:	61656c5f 	cmnvs	r5, pc, asr ip
    a5f4:	0000006b 	andeq	r0, r0, fp, rrx

0000a5f8 <__FUNCTION__.4093>:
    a5f8:	6c706d69 	ldclvs	13, cr6, [r0], #-420	; 0xfffffe5c
    a5fc:	6e656d65 	cdpvs	13, 6, cr6, cr5, cr5, {3}
    a600:	68745f74 	ldmdavs	r4!, {r2, r4, r5, r6, r8, r9, sl, fp, ip, lr}^
    a604:	00007369 	andeq	r7, r0, r9, ror #6
    a608:	696c2f2e 	stmdbvs	ip!, {r1, r2, r3, r5, r8, r9, sl, fp, sp}^
    a60c:	762f6362 	strtvc	r6, [pc], -r2, ror #6
    a610:	72702d61 	rsbsvc	r2, r0, #6208	; 0x1840
    a614:	6b746e69 	blvs	1d25fc0 <__bss_end__+0x1d1b210>
    a618:	0000632e 	andeq	r6, r0, lr, lsr #6
    a61c:	33323130 	teqcc	r2, #12
    a620:	37363534 			; <UNDEFINED> instruction: 0x37363534
    a624:	62613938 	rsbvs	r3, r1, #56, 18	; 0xe0000
    a628:	66656463 	strbtvs	r6, [r5], -r3, ror #8
    a62c:	00000000 	andeq	r0, r0, r0
    a630:	00003130 	andeq	r3, r0, r0, lsr r1
    a634:	33323130 	teqcc	r2, #12
    a638:	37363534 			; <UNDEFINED> instruction: 0x37363534
    a63c:	00003938 	andeq	r3, r0, r8, lsr r9
    a640:	63747570 	cmnvs	r4, #112, 10	; 0x1c000000
    a644:	0070665f 	rsbseq	r6, r0, pc, asr r6
    a648:	74646977 	strbtvc	r6, [r4], #-2423	; 0xfffff689
    a64c:	203c2068 	eorscs	r2, ip, r8, rrx
    a650:	00003233 	andeq	r3, r0, r3, lsr r2
    a654:	00786c6c 	rsbseq	r6, r8, ip, ror #24
    a658:	253d3078 	ldrcs	r3, [sp, #-120]!	; 0xffffff88
    a65c:	00000a78 	andeq	r0, r0, r8, ror sl
    a660:	253d3178 	ldrcs	r3, [sp, #-376]!	; 0xfffffe88
    a664:	00000a78 	andeq	r0, r0, r8, ror sl
    a668:	00646c6c 	rsbeq	r6, r4, ip, ror #24
    a66c:	6e727473 	mrcvs	4, 3, r7, cr2, cr3, {3}
    a670:	28706d63 	ldmdacs	r0!, {r0, r1, r5, r6, r8, sl, fp, sp, lr}^
    a674:	202c7974 	eorcs	r7, ip, r4, ror r9
    a678:	786c6c22 	stmdavc	ip!, {r1, r5, sl, fp, sp, lr}^
    a67c:	33202c22 			; <UNDEFINED> instruction: 0x33202c22
    a680:	3d3d2029 	ldccc	0, cr2, [sp, #-164]!	; 0xffffff5c
    a684:	7c203020 	stcvc	0, cr3, [r0], #-128	; 0xffffff80
    a688:	7473207c 	ldrbtvc	r2, [r3], #-124	; 0xffffff84
    a68c:	6d636e72 	stclvs	14, cr6, [r3, #-456]!	; 0xfffffe38
    a690:	79742870 	ldmdbvc	r4!, {r4, r5, r6, fp, sp}^
    a694:	6c22202c 	stcvs	0, cr2, [r2], #-176	; 0xffffff50
    a698:	2c22646c 	cfstrscs	mvf6, [r2], #-432	; 0xfffffe50
    a69c:	20293320 	eorcs	r3, r9, r0, lsr #6
    a6a0:	30203d3d 	eorcc	r3, r0, sp, lsr sp
    a6a4:	00000000 	andeq	r0, r0, r0
    a6a8:	494e4150 	stmdbmi	lr, {r4, r6, r8, lr}^
    a6ac:	73253a43 			; <UNDEFINED> instruction: 0x73253a43
    a6b0:	3a73253a 	bcc	1cd3ba0 <__bss_end__+0x1cc8df0>
    a6b4:	693a6425 	ldmdbvs	sl!, {r0, r2, r5, sl, sp, lr}
    a6b8:	736f706d 	cmnvc	pc, #109, 0	; 0x6d
    a6bc:	6c626973 			; <UNDEFINED> instruction: 0x6c626973
    a6c0:	66203a65 	strtvs	r3, [r0], -r5, ror #20
    a6c4:	3c3d746d 	cfldrscc	mvf7, [sp], #-436	; 0xfffffe4c
    a6c8:	0a3e7325 	beq	fa7364 <__bss_end__+0xf9c5b4>
    a6cc:	0000000a 	andeq	r0, r0, sl
    a6d0:	494e4150 	stmdbmi	lr, {r4, r6, r8, lr}^
    a6d4:	73253a43 			; <UNDEFINED> instruction: 0x73253a43
    a6d8:	3a73253a 	bcc	1cd3bc8 <__bss_end__+0x1cc8e18>
    a6dc:	663a6425 	ldrtvs	r6, [sl], -r5, lsr #8
    a6e0:	74616f6c 	strbtvc	r6, [r1], #-3948	; 0xfffff094
    a6e4:	746f6e20 	strbtvc	r6, [pc], #-3616	; a6ec <__FUNCTION__.4093+0xf4>
    a6e8:	616e6520 	cmnvs	lr, r0, lsr #10
    a6ec:	64656c62 	strbtvs	r6, [r5], #-3170	; 0xfffff39e
    a6f0:	0a212121 	beq	852b7c <__bss_end__+0x847dcc>
    a6f4:	00000000 	andeq	r0, r0, r0
    a6f8:	6e697270 	mcrvs	2, 3, r7, cr9, cr0, {3}
    a6fc:	203a6b74 	eorscs	r6, sl, r4, ror fp
    a700:	20746f6e 	rsbscs	r6, r4, lr, ror #30
    a704:	646e6168 	strbtvs	r6, [lr], #-360	; 0xfffffe98
    a708:	676e696c 	strbvs	r6, [lr, -ip, ror #18]!
    a70c:	65707320 	ldrbvs	r7, [r0, #-800]!	; 0xfffffce0
    a710:	69666963 	stmdbvs	r6!, {r0, r1, r5, r6, r8, fp, sp, lr}^
    a714:	27207265 	strcs	r7, [r0, -r5, ror #4]!
    a718:	20276325 	eorcs	r6, r7, r5, lsr #6
    a71c:	63736128 	cmnvs	r3, #10
    a720:	253d6969 	ldrcs	r6, [sp, #-2409]!	; 0xfffff697
    a724:	000a2964 	andeq	r2, sl, r4, ror #18
    a728:	494e4150 	stmdbmi	lr, {r4, r6, r8, lr}^
    a72c:	73253a43 			; <UNDEFINED> instruction: 0x73253a43
    a730:	3a73253a 	bcc	1cd3c20 <__bss_end__+0x1cc8e70>
    a734:	703a6425 	eorsvc	r6, sl, r5, lsr #8
    a738:	746e6972 	strbtvc	r6, [lr], #-2418	; 0xfffff68e
    a73c:	7265206b 	rsbvc	r2, r5, #107, 0	; 0x6b
    a740:	0a726f72 	beq	1ca6510 <__bss_end__+0x1c9b760>
    a744:	0000000a 	andeq	r0, r0, sl

0000a748 <__FUNCTION__.4004>:
    a748:	74696d65 	strbtvc	r6, [r9], #-3429	; 0xfffff29b
    a74c:	00000000 	andeq	r0, r0, r0

0000a750 <__FUNCTION__.3952>:
    a750:	5f697072 	svcpl	0x00697072
    a754:	5f746573 	svcpl	0x00746573
    a758:	7074756f 	rsbsvc	r7, r4, pc, ror #10
    a75c:	00007475 	andeq	r7, r0, r5, ror r4

0000a760 <__FUNCTION__.4030>:
    a760:	705f6176 	subsvc	r6, pc, r6, ror r1	; <UNPREDICTABLE>
    a764:	746e6972 	strbtvc	r6, [lr], #-2418	; 0xfffff68e
    a768:	0000006b 	andeq	r0, r0, fp, rrx
    a76c:	454e4f44 	strbmi	r4, [lr, #-3908]	; 0xfffff0bc
    a770:	0a212121 	beq	852bfc <__bss_end__+0x847e4c>
    a774:	00000000 	andeq	r0, r0, r0
    a778:	6c616d6b 	stclvs	13, cr6, [r1], #-428	; 0xfffffe54
    a77c:	2e636f6c 	cdpcs	15, 6, cr6, cr3, cr12, {3}
    a780:	00000063 	andeq	r0, r0, r3, rrx
    a784:	5f78616d 	svcpl	0x0078616d
    a788:	7479626e 	ldrbtvc	r6, [r9], #-622	; 0xfffffd92
    a78c:	00007365 	andeq	r7, r0, r5, ror #6
    a790:	494e4150 	stmdbmi	lr, {r4, r6, r8, lr}^
    a794:	73253a43 			; <UNDEFINED> instruction: 0x73253a43
    a798:	3a73253a 	bcc	1cd3c88 <__bss_end__+0x1cc8ed8>
    a79c:	733a6425 	teqvc	sl, #620756992	; 0x25000000
    a7a0:	69747465 	ldmdbvs	r4!, {r0, r2, r5, r6, sl, ip, sp, lr}^
    a7a4:	6820676e 	stmdavs	r0!, {r1, r2, r3, r5, r6, r8, r9, sl, sp, lr}
    a7a8:	20706165 	rsbscs	r6, r0, r5, ror #2
    a7ac:	25206f74 	strcs	r6, [r0, #-3956]!	; 0xfffff08c
    a7b0:	77203a70 			; <UNDEFINED> instruction: 0x77203a70
    a7b4:	206c6c69 	rsbcs	r6, ip, r9, ror #24
    a7b8:	20746968 	rsbscs	r6, r4, r8, ror #18
    a7bc:	20656874 	rsbcs	r6, r5, r4, ror r8
    a7c0:	20646c6f 	rsbcs	r6, r4, pc, ror #24
    a7c4:	70616568 	rsbvc	r6, r1, r8, ror #10
    a7c8:	20746120 	rsbscs	r6, r4, r0, lsr #2
    a7cc:	0a0a7025 	beq	2a6868 <__bss_end__+0x29bab8>
    a7d0:	00000000 	andeq	r0, r0, r0
    a7d4:	494e4150 	stmdbmi	lr, {r4, r6, r8, lr}^
    a7d8:	73253a43 			; <UNDEFINED> instruction: 0x73253a43
    a7dc:	3a73253a 	bcc	1cd3ccc <__bss_end__+0x1cc8f1c>
    a7e0:	613a6425 	teqvs	sl, r5, lsr #8
    a7e4:	6165726c 	cmnvs	r5, ip, ror #4
    a7e8:	63207964 			; <UNDEFINED> instruction: 0x63207964
    a7ec:	656c6c61 	strbvs	r6, [ip, #-3169]!	; 0xfffff39f
    a7f0:	6d6b2064 	stclvs	0, cr2, [fp, #-400]!	; 0xfffffe70
    a7f4:	6f6c6c61 	svcvs	0x006c6c61
    a7f8:	6e695f63 	cdpvs	15, 6, cr5, cr9, cr3, {3}
    a7fc:	0a0a7469 	beq	2a79a8 <__bss_end__+0x29cbf8>
    a800:	00000000 	andeq	r0, r0, r0
    a804:	494e4150 	stmdbmi	lr, {r4, r6, r8, lr}^
    a808:	73253a43 			; <UNDEFINED> instruction: 0x73253a43
    a80c:	3a73253a 	bcc	1cd3cfc <__bss_end__+0x1cc8f4c>
    a810:	253a6425 	ldrcs	r6, [sl, #-1061]!	; 0xfffffbdb
    a814:	626e2064 	rsbvs	r2, lr, #100, 0	; 0x64
    a818:	73657479 	cmnvc	r5, #2030043136	; 0x79000000
    a81c:	63786520 	cmnvs	r8, #32, 10	; 0x8000000
    a820:	65646565 	strbvs	r6, [r4, #-1381]!	; 0xfffffa9b
    a824:	69732064 	ldmdbvs	r3!, {r2, r5, r6, sp}^
    a828:	6f20657a 	svcvs	0x0020657a
    a82c:	65682066 	strbvs	r2, [r8, #-102]!	; 0xffffff9a
    a830:	62207061 	eorvs	r7, r0, #97, 0	; 0x61
    a834:	75252079 	strvc	r2, [r5, #-121]!	; 0xffffff87
    a838:	79626e20 	stmdbvc	r2!, {r5, r9, sl, fp, sp, lr}^
    a83c:	0a736574 	beq	1ce3e14 <__bss_end__+0x1cd9064>
    a840:	0000000a 	andeq	r0, r0, sl
    a844:	4f525245 	svcmi	0x00525245
    a848:	73253a52 			; <UNDEFINED> instruction: 0x73253a52
    a84c:	3a73253a 	bcc	1cd3d3c <__bss_end__+0x1cc8f8c>
    a850:	203a6425 	eorscs	r6, sl, r5, lsr #8
    a854:	534c4146 	movtpl	r4, #49478	; 0xc146
    a858:	253c2845 	ldrcs	r2, [ip, #-2117]!	; 0xfffff7bb
    a85c:	3a293e73 	bcc	a5a230 <__bss_end__+0xa4f480>
    a860:	73736120 	cmnvc	r3, #8
    a864:	6e696d75 	mcrvs	13, 3, r6, cr9, cr5, {3}
    a868:	6f702067 	svcvs	0x00702067
    a86c:	20726577 	rsbscs	r6, r2, r7, ror r5
    a870:	7420666f 	strtvc	r6, [r0], #-1647	; 0xfffff991
    a874:	000a6f77 	andeq	r6, sl, r7, ror pc
    a878:	705f7369 	subsvc	r7, pc, r9, ror #6
    a87c:	2832776f 	ldmdacs	r2!, {r0, r1, r2, r3, r5, r6, r8, r9, sl, ip, sp, lr}
    a880:	67696c61 	strbvs	r6, [r9, -r1, ror #24]!
    a884:	6e656d6e 	cdpvs	13, 6, cr6, cr5, cr14, {3}
    a888:	00002974 	andeq	r2, r0, r4, ror r9
    a88c:	705f7369 	subsvc	r7, pc, r9, ror #6
    a890:	2832776f 	ldmdacs	r2!, {r0, r1, r2, r3, r5, r6, r8, r9, sl, ip, sp, lr}
    a894:	0000296e 	andeq	r2, r0, lr, ror #18
    a898:	4f525245 	svcmi	0x00525245
    a89c:	73253a52 			; <UNDEFINED> instruction: 0x73253a52
    a8a0:	3a73253a 	bcc	1cd3d90 <__bss_end__+0x1cc8fe0>
    a8a4:	203a6425 	eorscs	r6, sl, r5, lsr #8
    a8a8:	534c4146 	movtpl	r4, #49478	; 0xc146
    a8ac:	253c2845 	ldrcs	r2, [ip, #-2117]!	; 0xfffff7bb
    a8b0:	3a293e73 	bcc	a5a284 <__bss_end__+0xa4f4d4>
    a8b4:	706d6920 	rsbvc	r6, sp, r0, lsr #18
    a8b8:	6973736f 	ldmdbvs	r3!, {r0, r1, r2, r3, r5, r6, r8, r9, ip, sp, lr}^
    a8bc:	0a656c62 	beq	1965a4c <__bss_end__+0x195ac9c>
    a8c0:	00000000 	andeq	r0, r0, r0
    a8c4:	615f7369 	cmpvs	pc, r9, ror #6
    a8c8:	6e67696c 	vnmulvs.f16	s13, s14, s25	; <UNPREDICTABLE>
    a8cc:	68286465 	stmdavs	r8!, {r0, r2, r5, r6, sl, sp, lr}
    a8d0:	6c61202c 	stclvs	0, cr2, [r1], #-176	; 0xffffff50
    a8d4:	6d6e6769 	stclvs	7, cr6, [lr, #-420]!	; 0xfffffe5c
    a8d8:	29746e65 	ldmdbcs	r4!, {r0, r2, r5, r6, r9, sl, fp, sp, lr}^
    a8dc:	00000000 	andeq	r0, r0, r0
    a8e0:	494e4150 	stmdbmi	lr, {r4, r6, r8, lr}^
    a8e4:	73253a43 			; <UNDEFINED> instruction: 0x73253a43
    a8e8:	3a73253a 	bcc	1cd3dd8 <__bss_end__+0x1cc9028>
    a8ec:	703a6425 	eorsvc	r6, sl, r5, lsr #8
    a8f0:	746e696f 	strbtvc	r6, [lr], #-2415	; 0xfffff691
    a8f4:	25207265 	strcs	r7, [r0, #-613]!	; 0xfffffd9b
    a8f8:	61772070 	cmnvs	r7, r0, ror r0
    a8fc:	656e2073 	strbvs	r2, [lr, #-115]!	; 0xffffff8d
    a900:	20726576 	rsbscs	r6, r2, r6, ror r5
    a904:	6f6c6c61 	svcvs	0x006c6c61
    a908:	65746163 	ldrbvs	r6, [r4, #-355]!	; 0xfffffe9d
    a90c:	000a0a64 	andeq	r0, sl, r4, ror #20

0000a910 <__FUNCTION__.7>:
    a910:	6c616d6b 	stclvs	13, cr6, [r1], #-428	; 0xfffffe54
    a914:	5f636f6c 	svcpl	0x00636f6c
    a918:	74696e69 	strbtvc	r6, [r9], #-3689	; 0xfffff197
    a91c:	7465735f 	strbtvc	r7, [r5], #-863	; 0xfffffca1
    a920:	6174735f 	cmnvs	r4, pc, asr r3
    a924:	00007472 	andeq	r7, r0, r2, ror r4

0000a928 <__FUNCTION__.5>:
    a928:	6c616d6b 	stclvs	13, cr6, [r1], #-428	; 0xfffffe54
    a92c:	5f636f6c 	svcpl	0x00636f6c
    a930:	74696e69 	strbtvc	r6, [r9], #-3689	; 0xfffff197
    a934:	00000000 	andeq	r0, r0, r0

0000a938 <__FUNCTION__.4>:
    a938:	6c616d6b 	stclvs	13, cr6, [r1], #-428	; 0xfffffe54
    a93c:	5f636f6c 	svcpl	0x00636f6c
    a940:	7a746f6e 	bvc	1d26700 <__bss_end__+0x1d1b950>
    a944:	006f7265 	rsbeq	r7, pc, r5, ror #4

0000a948 <__FUNCTION__.2>:
    a948:	6c616d6b 	stclvs	13, cr6, [r1], #-428	; 0xfffffe54
    a94c:	00636f6c 	rsbeq	r6, r3, ip, ror #30

0000a950 <__FUNCTION__.1>:
    a950:	6c616d6b 	stclvs	13, cr6, [r1], #-428	; 0xfffffe54
    a954:	5f636f6c 	svcpl	0x00636f6c
    a958:	67696c61 	strbvs	r6, [r9, -r1, ror #24]!
    a95c:	0064656e 	rsbeq	r6, r4, lr, ror #10

0000a960 <__FUNCTION__.3>:
    a960:	6e756f72 	mrcvs	15, 3, r6, cr5, cr2, {3}
    a964:	00707564 	rsbseq	r7, r0, r4, ror #10

0000a968 <__FUNCTION__.0>:
    a968:	6572666b 	ldrbvs	r6, [r2, #-1643]!	; 0xfffff995
    a96c:	6f705f65 	svcvs	0x00705f65
    a970:	Address 0x000000000000a970 is out of bounds.


Disassembly of section .data:

0000a974 <putk>:
    a974:	00008c50 	andeq	r8, r0, r0, asr ip

0000a978 <heap>:
    a978:	0000adb0 			; <UNDEFINED> instruction: 0x0000adb0

0000a97c <heap_start>:
    a97c:	0000adb0 			; <UNDEFINED> instruction: 0x0000adb0

0000a980 <heap_end>:
    a980:	0020adb0 	strhteq	sl, [r0], -r0

0000a984 <rpi_putchar>:
    a984:	0000a044 	andeq	sl, r0, r4, asr #32

Disassembly of section .bss:

0000a988 <__bss_start__>:
	...

0000a990 <freep>:
	...

0000a998 <base>:
	...

0000a9a0 <heap_start>:
    a9a0:	00000000 	andeq	r0, r0, r0

0000a9a4 <heap_end>:
    a9a4:	00000000 	andeq	r0, r0, r0

0000a9a8 <init_p.4012>:
    a9a8:	00000000 	andeq	r0, r0, r0

0000a9ac <buf.3944>:
	...

0000adac <init_p.6>:
    adac:	00000000 	andeq	r0, r0, r0

Disassembly of section .ARM.attributes:

00000000 <.ARM.attributes>:
   0:	00002a41 	andeq	r2, r0, r1, asr #20
   4:	61656100 	cmnvs	r5, r0, lsl #2
   8:	01006962 	tsteq	r0, r2, ror #18
   c:	00000020 	andeq	r0, r0, r0, lsr #32
  10:	4b5a3605 	blmi	168d82c <__bss_end__+0x1682a7c>
  14:	08070600 	stmdaeq	r7, {r9, sl}
  18:	12010901 	andne	r0, r1, #16384	; 0x4000
  1c:	15011404 	strne	r1, [r1, #-1028]	; 0xfffffbfc
  20:	18031701 	stmdane	r3, {r0, r8, r9, sl, ip}
  24:	22011a01 	andcs	r1, r1, #4096	; 0x1000
  28:	Address 0x0000000000000028 is out of bounds.


Disassembly of section .comment:

00000000 <.comment>:
   0:	3a434347 	bcc	10d0d24 <__bss_end__+0x10c5f74>
   4:	4e472820 	cdpmi	8, 4, cr2, cr7, cr0, {1}
   8:	6f542055 	svcvs	0x00542055
   c:	20736c6f 	rsbscs	r6, r3, pc, ror #24
  10:	20726f66 	rsbscs	r6, r2, r6, ror #30
  14:	206d7241 	rsbcs	r7, sp, r1, asr #4
  18:	65626d45 	strbvs	r6, [r2, #-3397]!	; 0xfffff2bb
  1c:	64656464 	strbtvs	r6, [r5], #-1124	; 0xfffffb9c
  20:	6f725020 	svcvs	0x00725020
  24:	73736563 	cmnvc	r3, #415236096	; 0x18c00000
  28:	2073726f 	rsbscs	r7, r3, pc, ror #4
  2c:	30322d39 	eorscc	r2, r2, r9, lsr sp
  30:	712d3931 			; <UNDEFINED> instruction: 0x712d3931
  34:	616d2d34 	cmnvs	sp, r4, lsr sp
  38:	29726f6a 	ldmdbcs	r2!, {r1, r3, r5, r6, r8, r9, sl, fp, sp, lr}^
  3c:	322e3920 	eorcc	r3, lr, #32, 18	; 0x80000
  40:	3220312e 	eorcc	r3, r0, #-2147483637	; 0x8000000b
  44:	31393130 	teqcc	r9, r0, lsr r1
  48:	20353230 	eorscs	r3, r5, r0, lsr r2
  4c:	6c657228 	sfmvs	f7, 2, [r5], #-160	; 0xffffff60
  50:	65736165 	ldrbvs	r6, [r3, #-357]!	; 0xfffffe9b
  54:	415b2029 	cmpmi	fp, r9, lsr #32
  58:	612f4d52 			; <UNDEFINED> instruction: 0x612f4d52
  5c:	392d6d72 	pushcc	{r1, r4, r5, r6, r8, sl, fp, sp, lr}
  60:	6172622d 	cmnvs	r2, sp, lsr #4
  64:	2068636e 	rsbcs	r6, r8, lr, ror #6
  68:	69766572 	ldmdbvs	r6!, {r1, r4, r5, r6, r8, sl, sp, lr}^
  6c:	6e6f6973 			; <UNDEFINED> instruction: 0x6e6f6973
  70:	37373220 	ldrcc	r3, [r7, -r0, lsr #4]!
  74:	5d393935 			; <UNDEFINED> instruction: 0x5d393935
  78:	43434700 	movtmi	r4, #14080	; 0x3700
  7c:	4728203a 			; <UNDEFINED> instruction: 0x4728203a
  80:	4120554e 			; <UNDEFINED> instruction: 0x4120554e
  84:	45206d72 	strmi	r6, [r0, #-3442]!	; 0xfffff28e
  88:	6465626d 	strbtvs	r6, [r5], #-621	; 0xfffffd93
  8c:	20646564 	rsbcs	r6, r4, r4, ror #10
  90:	6c6f6f54 	stclvs	15, cr6, [pc], #-336	; ffffff48 <__bss_end__+0xffff5198>
  94:	69616863 	stmdbvs	r1!, {r0, r1, r5, r6, fp, sp, lr}^
  98:	3031206e 	eorscc	r2, r1, lr, rrx
  9c:	322d332e 	eorcc	r3, sp, #-1207959552	; 0xb8000000
  a0:	2e313230 	mrccs	2, 1, r3, cr1, cr0, {1}
  a4:	20293031 	eorcs	r3, r9, r1, lsr r0
  a8:	332e3031 			; <UNDEFINED> instruction: 0x332e3031
  ac:	3220312e 	eorcc	r3, r0, #-2147483637	; 0x8000000b
  b0:	30313230 	eorscc	r3, r1, r0, lsr r2
  b4:	20343238 	eorscs	r3, r4, r8, lsr r2
  b8:	6c657228 	sfmvs	f7, 2, [r5], #-160	; 0xffffff60
  bc:	65736165 	ldrbvs	r6, [r3, #-357]!	; 0xfffffe9b
  c0:	Address 0x00000000000000c0 is out of bounds.


Disassembly of section .debug_info:

00000000 <.debug_info>:
       0:	000002dc 	ldrdeq	r0, [r0], -ip
       4:	00000004 	andeq	r0, r0, r4
       8:	01040000 	mrseq	r0, (UNDEF: 4)
       c:	00000104 	andeq	r0, r0, r4, lsl #2
      10:	00002d0c 	andeq	r2, r0, ip, lsl #26
      14:	0000b200 	andeq	fp, r0, r0, lsl #4
      18:	00803800 	addeq	r3, r0, r0, lsl #16
      1c:	0000a800 	andeq	sl, r0, r0, lsl #16
      20:	00000000 	andeq	r0, r0, r0
      24:	05040200 	streq	r0, [r4, #-512]	; 0xfffffe00
      28:	00746e69 	rsbseq	r6, r4, r9, ror #28
      2c:	97070403 	strls	r0, [r7, -r3, lsl #8]
      30:	03000000 	movweq	r0, #0
      34:	00480601 	subeq	r0, r8, r1, lsl #12
      38:	02030000 	andeq	r0, r3, #0, 0
      3c:	0000e405 	andeq	lr, r0, r5, lsl #8
      40:	05040300 	streq	r0, [r4, #-768]	; 0xfffffd00
      44:	000000a9 	andeq	r0, r0, r9, lsr #1
      48:	a4050803 	strge	r0, [r5], #-2051	; 0xfffff7fd
      4c:	03000000 	movweq	r0, #0
      50:	00460801 	subeq	r0, r6, r1, lsl #16
      54:	02030000 	andeq	r0, r3, #0, 0
      58:	00005407 	andeq	r5, r0, r7, lsl #8
      5c:	07040300 	streq	r0, [r4, -r0, lsl #6]
      60:	00000092 	muleq	r0, r2, r0
      64:	8d070803 	stchi	8, cr0, [r7, #-12]
      68:	04000000 	streq	r0, [r0], #-0
      6c:	00000025 	andeq	r0, r0, r5, lsr #32
      70:	0000007a 	andeq	r0, r0, sl, ror r0
      74:	00002505 	andeq	r2, r0, r5, lsl #10
      78:	f8060000 			; <UNDEFINED> instruction: 0xf8060000
      7c:	03000000 	movweq	r0, #0
      80:	00860e1c 	addeq	r0, r6, ip, lsl lr
      84:	04070000 	streq	r0, [r7], #-0
      88:	0000006b 	andeq	r0, r0, fp, rrx
      8c:	00002504 	andeq	r2, r0, r4, lsl #10
      90:	00009b00 	andeq	r9, r0, r0, lsl #22
      94:	009b0500 	addseq	r0, fp, r0, lsl #10
      98:	07000000 	streq	r0, [r0, -r0]
      9c:	0000a804 	andeq	sl, r0, r4, lsl #16
      a0:	08010300 	stmdaeq	r1, {r8, r9}
      a4:	0000004f 	andeq	r0, r0, pc, asr #32
      a8:	0000a108 	andeq	sl, r0, r8, lsl #2
      ac:	05840600 	streq	r0, [r4, #1536]	; 0x600
      b0:	21030000 	mrscs	r0, (UNDEF: 3)
      b4:	0000b90e 	andeq	fp, r0, lr, lsl #18
      b8:	8c040700 	stchi	7, cr0, [r4], {-0}
      bc:	09000000 	stmdbeq	r0, {}	; <UNPREDICTABLE>
      c0:	0904020c 	stmdbeq	r4, {r2, r3, r9}
      c4:	000000f0 	strdeq	r0, [r0], -r0	; <UNPREDICTABLE>
      c8:	0000410a 	andeq	r4, r0, sl, lsl #2
      cc:	11060200 	mrsne	r0, LR_usr
      d0:	0000009b 	muleq	r0, fp, r0
      d4:	006e0a00 	rsbeq	r0, lr, r0, lsl #20
      d8:	07020000 	streq	r0, [r2, -r0]
      dc:	00009b11 	andeq	r9, r0, r1, lsl fp
      e0:	100a0400 	andne	r0, sl, r0, lsl #8
      e4:	02000000 	andeq	r0, r0, #0, 0
      e8:	002c0e08 	eoreq	r0, ip, r8, lsl #28
      ec:	00080000 	andeq	r0, r8, r0
      f0:	0000ee0b 	andeq	lr, r0, fp, lsl #28
      f4:	03090200 	movweq	r0, #37376	; 0x9200
      f8:	000000bf 	strheq	r0, [r0], -pc	; <UNPREDICTABLE>
      fc:	170d040c 	strne	r0, [sp, -ip, lsl #8]
     100:	01000000 	mrseq	r0, (UNDEF: 0)
     104:	80b80623 	adcshi	r0, r8, r3, lsr #12
     108:	00280000 	eoreq	r0, r8, r0
     10c:	9c010000 	stcls	0, cr0, [r1], {-0}
     110:	00000148 	andeq	r0, r0, r8, asr #2
     114:	0080c40e 	addeq	ip, r0, lr, lsl #8
     118:	0002a600 	andeq	sl, r2, r0, lsl #12
     11c:	00012b00 	andeq	r2, r1, r0, lsl #22
     120:	50010f00 	andpl	r0, r1, r0, lsl #30
     124:	a16c0305 	cmnge	ip, r5, lsl #6
     128:	10000000 	andne	r0, r0, r0
     12c:	000080c8 	andeq	r8, r0, r8, asr #1
     130:	00000148 	andeq	r0, r0, r8, asr #2
     134:	0080d411 	addeq	sp, r0, r1, lsl r4
     138:	0002a600 	andeq	sl, r2, r0, lsl #12
     13c:	50010f00 	andpl	r0, r1, r0, lsl #30
     140:	a1b00305 	lslsge	r0, r5, #6
     144:	00000000 	andeq	r0, r0, r0
     148:	00008812 	andeq	r8, r0, r2, lsl r8
     14c:	070b0100 	streq	r0, [fp, -r0, lsl #2]
     150:	000000fc 	strdeq	r0, [r0], -ip
     154:	00008038 	andeq	r8, r0, r8, lsr r0
     158:	00000080 	andeq	r0, r0, r0, lsl #1
     15c:	02559c01 	subseq	r9, r5, #256	; 0x100
     160:	76130000 	ldrvc	r0, [r3], -r0
     164:	08000005 	stmdaeq	r0, {r0, r2}
     168:	880c0c01 	stmdahi	ip, {r0, sl, fp}
     16c:	14000001 	strne	r0, [r0], #-1
     170:	0d010078 	stceq	0, cr0, [r1, #-480]	; 0xfffffe20
     174:	0000250d 	andeq	r2, r0, sp, lsl #10
     178:	000a0000 	andeq	r0, sl, r0
     17c:	01000000 	mrseq	r0, (UNDEF: 0)
     180:	0255160e 	subseq	r1, r5, #14680064	; 0xe00000
     184:	00040000 	andeq	r0, r4, r0
     188:	01006815 	tsteq	r0, r5, lsl r8
     18c:	0255080f 	subseq	r0, r5, #983040	; 0xf0000
     190:	000a0000 	andeq	r0, sl, r0
     194:	00000000 	andeq	r0, r0, r0
     198:	73160000 	tstvc	r6, #0, 0
     19c:	6b000000 	blvs	1a4 <__code_start__-0x7e5c>
     1a0:	05000002 	streq	r0, [r0, #-2]
     1a4:	00a1c003 	adceq	ip, r1, r3
     1a8:	00001700 	andeq	r1, r0, r0, lsl #14
     1ac:	024b0000 	subeq	r0, fp, #0, 0
     1b0:	69150000 	ldmdbvs	r5, {}	; <UNPREDICTABLE>
     1b4:	0d110100 	ldfeqs	f0, [r1, #-0]
     1b8:	00000025 	andeq	r0, r0, r5, lsr #32
     1bc:	0000004e 	andeq	r0, r0, lr, asr #32
     1c0:	0000004a 	andeq	r0, r0, sl, asr #32
     1c4:	00001818 	andeq	r1, r0, r8, lsl r8
     1c8:	00651500 	rsbeq	r1, r5, r0, lsl #10
     1cc:	55161201 	ldrpl	r1, [r6, #-513]	; 0xfffffdff
     1d0:	71000002 	tstvc	r0, r2
     1d4:	6d000000 	stcvs	0, cr0, [r0, #-0]
     1d8:	19000000 	stmdbne	r0, {}	; <UNPREDICTABLE>
     1dc:	00000270 	andeq	r0, r0, r0, ror r2
     1e0:	00008050 	andeq	r8, r0, r0, asr r0
     1e4:	00805001 	addeq	r5, r0, r1
     1e8:	00001800 	andeq	r1, r0, r0, lsl #16
     1ec:	1a120100 	bne	4805f4 <__bss_end__+0x475844>
     1f0:	0000021c 	andeq	r0, r0, ip, lsl r2
     1f4:	0002991a 	andeq	r9, r2, sl, lsl r9
     1f8:	00009100 	andeq	r9, r0, r0, lsl #2
     1fc:	00008f00 	andeq	r8, r0, r0, lsl #30
     200:	028d1a00 	addeq	r1, sp, #0, 20
     204:	00a70000 	adceq	r0, r7, r0
     208:	00a50000 	adceq	r0, r5, r0
     20c:	811a0000 	tsthi	sl, r0
     210:	c1000002 	tstgt	r0, r2
     214:	bf000000 	svclt	0x00000000
     218:	00000000 	andeq	r0, r0, r0
     21c:	0080780e 	addeq	r7, r0, lr, lsl #16
     220:	0002bb00 	andeq	fp, r2, r0, lsl #22
     224:	00022f00 	andeq	r2, r2, r0, lsl #30
     228:	50010f00 	andpl	r0, r1, r0, lsl #30
     22c:	11003801 	tstne	r0, r1, lsl #16
     230:	00008088 	andeq	r8, r0, r8, lsl #1
     234:	000002c7 	andeq	r0, r0, r7, asr #5
     238:	0250010f 	subseq	r0, r0, #-1073741821	; 0xc0000003
     23c:	010f0074 	tsteq	pc, r4, ror r0	; <UNPREDICTABLE>
     240:	0f300151 	svceq	0x00300151
     244:	38015201 	stmdacc	r1, {r0, r9, ip, lr}
     248:	10000000 	andne	r0, r0, r0
     24c:	000080a4 	andeq	r8, r0, r4, lsr #1
     250:	000002d3 	ldrdeq	r0, [r0], -r3
     254:	62040700 	andvs	r0, r4, #0, 14
     258:	1b000001 	blne	264 <__code_start__-0x7d9c>
     25c:	000000a8 	andeq	r0, r0, r8, lsr #1
     260:	0000026b 	andeq	r0, r0, fp, ror #4
     264:	00002c1c 	andeq	r2, r0, ip, lsl ip
     268:	08000400 	stmdaeq	r0, {sl}
     26c:	0000025b 	andeq	r0, r0, fp, asr r2
     270:	0000051d 	andeq	r0, r0, sp, lsl r5
     274:	0b0c0200 	bleq	300a7c <__bss_end__+0x2f5ccc>
     278:	000000f0 	strdeq	r0, [r0], -r0	; <UNPREDICTABLE>
     27c:	0002a603 	andeq	sl, r2, r3, lsl #12
     280:	00411e00 	subeq	r1, r1, r0, lsl #28
     284:	0c020000 	stceq	0, cr0, [r2], {-0}
     288:	00009b22 	andeq	r9, r0, r2, lsr #22
     28c:	006e1e00 	rsbeq	r1, lr, r0, lsl #28
     290:	0c020000 	stceq	0, cr0, [r2], {-0}
     294:	00009b34 	andeq	r9, r0, r4, lsr fp
     298:	00101e00 	andseq	r1, r0, r0, lsl #28
     29c:	0c020000 	stceq	0, cr0, [r2], {-0}
     2a0:	00002c43 	andeq	r2, r0, r3, asr #24
     2a4:	461f0000 	ldrmi	r0, [pc], -r0
     2a8:	46000005 	strmi	r0, [r0], -r5
     2ac:	03000005 	movweq	r0, #5
     2b0:	07200628 	streq	r0, [r0, -r8, lsr #12]!
     2b4:	6574059e 	ldrbvs	r0, [r4, #-1438]!	; 0xfffffa62
     2b8:	1f007473 	svcne	0x00007473
     2bc:	00000080 	andeq	r0, r0, r0, lsl #1
     2c0:	00000080 	andeq	r0, r0, r0, lsl #1
     2c4:	1f083204 	svcne	0x00083204
     2c8:	00000067 	andeq	r0, r0, r7, rrx
     2cc:	00000067 	andeq	r0, r0, r7, rrx
     2d0:	1f07f203 	svcne	0x0007f203
     2d4:	0000001f 	andeq	r0, r0, pc, lsl r0
     2d8:	0000001f 	andeq	r0, r0, pc, lsl r0
     2dc:	00065604 	andeq	r5, r6, r4, lsl #12
     2e0:	00000785 	andeq	r0, r0, r5, lsl #15
     2e4:	01c50004 	biceq	r0, r5, r4
     2e8:	01040000 	mrseq	r0, (UNDEF: 4)
     2ec:	00000104 	andeq	r0, r0, r4, lsl #2
     2f0:	0002730c 	andeq	r7, r2, ip, lsl #6
     2f4:	0000b200 	andeq	fp, r0, r0, lsl #4
     2f8:	0080e000 	addeq	lr, r0, r0
     2fc:	0002e800 	andeq	lr, r2, r0, lsl #16
     300:	00010a00 	andeq	r0, r1, r0, lsl #20
     304:	05040200 	streq	r0, [r4, #-512]	; 0xfffffe00
     308:	00746e69 	rsbseq	r6, r4, r9, ror #28
     30c:	97070403 	strls	r0, [r7, -r3, lsl #8]
     310:	03000000 	movweq	r0, #0
     314:	00480601 	subeq	r0, r8, r1, lsl #12
     318:	02030000 	andeq	r0, r3, #0, 0
     31c:	0000e405 	andeq	lr, r0, r5, lsl #8
     320:	05040300 	streq	r0, [r4, #-768]	; 0xfffffd00
     324:	000000a9 	andeq	r0, r0, r9, lsr #1
     328:	a4050803 	strge	r0, [r5], #-2051	; 0xfffff7fd
     32c:	03000000 	movweq	r0, #0
     330:	00460801 	subeq	r0, r6, r1, lsl #16
     334:	4c040000 	stcmi	0, cr0, [r4], {-0}
     338:	03000002 	movweq	r0, #2
     33c:	00621931 	rsbeq	r1, r2, r1, lsr r9
     340:	02030000 	andeq	r0, r3, #0, 0
     344:	00005407 	andeq	r5, r0, r7, lsl #8
     348:	02430400 	subeq	r0, r3, #0, 8
     34c:	34030000 	strcc	r0, [r3], #-0
     350:	00007519 	andeq	r7, r0, r9, lsl r5
     354:	07040300 	streq	r0, [r4, -r0, lsl #6]
     358:	00000092 	muleq	r0, r2, r0
     35c:	8d070803 	stchi	8, cr0, [r7, #-12]
     360:	05000000 	streq	r0, [r0, #-0]
     364:	00000025 	andeq	r0, r0, r5, lsr #32
     368:	00000092 	muleq	r0, r2, r0
     36c:	00002506 	andeq	r2, r0, r6, lsl #10
     370:	f8070000 			; <UNDEFINED> instruction: 0xf8070000
     374:	04000000 	streq	r0, [r0], #-0
     378:	009e0e1c 	addseq	r0, lr, ip, lsl lr
     37c:	04080000 	streq	r0, [r8], #-0
     380:	00000083 	andeq	r0, r0, r3, lsl #1
     384:	00002505 	andeq	r2, r0, r5, lsl #10
     388:	0000b300 	andeq	fp, r0, r0, lsl #6
     38c:	00b30600 	adcseq	r0, r3, r0, lsl #12
     390:	08000000 	stmdaeq	r0, {}	; <UNPREDICTABLE>
     394:	0000c004 	andeq	ip, r0, r4
     398:	08010300 	stmdaeq	r1, {r8, r9}
     39c:	0000004f 	andeq	r0, r0, pc, asr #32
     3a0:	0000b909 	andeq	fp, r0, r9, lsl #18
     3a4:	05840700 	streq	r0, [r4, #1792]	; 0x700
     3a8:	21040000 	mrscs	r0, (UNDEF: 4)
     3ac:	0000d10e 	andeq	sp, r0, lr, lsl #2
     3b0:	a4040800 	strge	r0, [r4], #-2048	; 0xfffff800
     3b4:	0a000000 	beq	3bc <__code_start__-0x7c44>
     3b8:	0904050c 	stmdbeq	r4, {r2, r3, r8, sl}
     3bc:	00000108 	andeq	r0, r0, r8, lsl #2
     3c0:	0000410b 	andeq	r4, r0, fp, lsl #2
     3c4:	11060500 	tstne	r6, r0, lsl #10
     3c8:	000000b3 	strheq	r0, [r0], -r3
     3cc:	006e0b00 	rsbeq	r0, lr, r0, lsl #22
     3d0:	07050000 	streq	r0, [r5, -r0]
     3d4:	0000b311 	andeq	fp, r0, r1, lsl r3
     3d8:	100b0400 	andne	r0, fp, r0, lsl #8
     3dc:	05000000 	streq	r0, [r0, #-0]
     3e0:	002c0e08 	eoreq	r0, ip, r8, lsl #28
     3e4:	00080000 	andeq	r0, r8, r0
     3e8:	0000ee04 	andeq	lr, r0, r4, lsl #28
     3ec:	03090500 	movweq	r0, #38144	; 0x9500
     3f0:	000000d7 	ldrdeq	r0, [r0], -r7
     3f4:	4f01070c 	svcmi	0x0001070c
     3f8:	02000000 	andeq	r0, r0, #0, 0
     3fc:	012f0e09 			; <UNDEFINED> instruction: 0x012f0e09
     400:	7d0d0000 	stcvc	0, cr0, [sp, #-0]
     404:	0b000002 	bleq	414 <__code_start__-0x7bec>
     408:	0001cf0d 	andeq	ip, r1, sp, lsl #30
     40c:	0e000c00 	cdpeq	12, 0, cr0, cr0, cr0, {0}
     410:	00000214 	andeq	r0, r0, r4, lsl r2
     414:	100c0224 	andne	r0, ip, r4, lsr #4
     418:	00000198 	muleq	r0, r8, r1
     41c:	0000000b 	andeq	r0, r0, fp
     420:	140d0200 	strne	r0, [sp], #-512	; 0xfffffe00
     424:	00000198 	muleq	r0, r8, r1
     428:	02850b00 	addeq	r0, r5, #0, 22
     42c:	0e020000 	cdpeq	0, 0, cr0, cr2, cr0, {0}
     430:	0000690e 	andeq	r6, r0, lr, lsl #18
     434:	320b0400 	andcc	r0, fp, #0, 8
     438:	02000002 	andeq	r0, r0, #2, 0
     43c:	00690e0f 	rsbeq	r0, r9, pc, lsl #28
     440:	0b080000 	bleq	200448 <__bss_end__+0x1f5698>
     444:	0000021b 	andeq	r0, r0, fp, lsl r2
     448:	080f1102 	stmdaeq	pc, {r1, r8, ip}	; <UNPREDICTABLE>
     44c:	0c000001 	stceq	0, cr0, [r0], {1}
     450:	0002380b 	andeq	r3, r2, fp, lsl #16
     454:	0e140200 	cdpeq	2, 1, cr0, cr4, cr0, {0}
     458:	00000069 	andeq	r0, r0, r9, rrx
     45c:	01d50b18 	bicseq	r0, r5, r8, lsl fp
     460:	15020000 	strne	r0, [r2, #-0]
     464:	0000690e 	andeq	r6, r0, lr, lsl #18
     468:	650b1c00 	strvs	r1, [fp, #-3072]	; 0xfffff400
     46c:	02000003 	andeq	r0, r0, #3, 0
     470:	00560e17 	subseq	r0, r6, r7, lsl lr
     474:	00200000 	eoreq	r0, r0, r0
     478:	012f0408 			; <UNDEFINED> instruction: 0x012f0408
     47c:	c9040000 	stmdbgt	r4, {}	; <UNPREDICTABLE>
     480:	02000001 	andeq	r0, r0, #1, 0
     484:	012f0318 			; <UNDEFINED> instruction: 0x012f0318
     488:	040f0000 	streq	r0, [pc], #-0	; 490 <__code_start__-0x7b70>
     48c:	0001fd10 	andeq	pc, r1, r0, lsl sp	; <UNPREDICTABLE>
     490:	0f080100 	svceq	0x00080100
     494:	000001be 			; <UNDEFINED> instruction: 0x000001be
     498:	a9880305 	stmibge	r8, {r0, r2, r8, r9}
     49c:	04080000 	streq	r0, [r8], #-0
     4a0:	0000019e 	muleq	r0, lr, r1
     4a4:	00008011 	andeq	r8, r0, r1, lsl r0
     4a8:	08660100 	stmdaeq	r6!, {r8}^
     4ac:	000001aa 	andeq	r0, r0, sl, lsr #3
     4b0:	00008338 	andeq	r8, r0, r8, lsr r3
     4b4:	00000090 	muleq	r0, r0, r0
     4b8:	028a9c01 	addeq	r9, sl, #256	; 0x100
     4bc:	b2120000 	andslt	r0, r2, #0, 0
     4c0:	01000002 	tsteq	r0, r2
     4c4:	002c1a66 	eoreq	r1, ip, r6, ror #20
     4c8:	00df0000 	sbcseq	r0, pc, r0
     4cc:	00d90000 	sbcseq	r0, r9, r0
     4d0:	6c130000 	ldcvs	0, cr0, [r3], {-0}
     4d4:	2c660100 	stfcse	f0, [r6], #-0
     4d8:	00000108 	andeq	r0, r0, r8, lsl #2
     4dc:	14649102 	strbtne	r9, [r4], #-258	; 0xfffffefe
     4e0:	68010068 	stmdavs	r1, {r3, r5, r6}
     4e4:	0001be0c 	andeq	fp, r1, ip, lsl #28
     4e8:	00011100 	andeq	r1, r1, r0, lsl #2
     4ec:	00010b00 	andeq	r0, r1, r0, lsl #22
     4f0:	83541500 	cmphi	r4, #0, 10
     4f4:	074c0000 	strbeq	r0, [ip, -r0]
     4f8:	02250000 	eoreq	r0, r5, #0, 0
     4fc:	01160000 	tsteq	r6, r0
     500:	24760250 	ldrbtcs	r0, [r6], #-592	; 0xfffffdb0
     504:	83641500 	cmnhi	r4, #0, 10
     508:	07580000 	ldrbeq	r0, [r8, -r0]
     50c:	02440000 	subeq	r0, r4, #0, 0
     510:	01160000 	tsteq	r6, r0
     514:	00740250 	rsbseq	r0, r4, r0, asr r2
     518:	01510116 	cmpeq	r1, r6, lsl r1
     51c:	52011630 	andpl	r1, r1, #48, 12	; 0x3000000
     520:	00240802 	eoreq	r0, r4, r2, lsl #16
     524:	00839015 	addeq	r9, r3, r5, lsl r0
     528:	00076400 	andeq	r6, r7, r0, lsl #8
     52c:	00027000 	andeq	r7, r2, r0
     530:	50011600 	andpl	r1, r1, r0, lsl #12
     534:	a2280305 	eorge	r0, r8, #335544320	; 0x14000000
     538:	01160000 	tsteq	r6, r0
     53c:	00750351 	rsbseq	r0, r5, r1, asr r3
     540:	52011606 	andpl	r1, r1, #6291456	; 0x600000
     544:	06609103 	strbteq	r9, [r0], -r3, lsl #2
     548:	03530116 	cmpeq	r3, #-2147483643	; 0x80000005
     54c:	00066491 	muleq	r6, r1, r4
     550:	0083a017 	addeq	sl, r3, r7, lsl r0
     554:	00076400 	andeq	r6, r7, r0, lsl #8
     558:	50011600 	andpl	r1, r1, r0, lsl #12
     55c:	a29c0305 	addsge	r0, ip, #335544320	; 0x14000000
     560:	01160000 	tsteq	r6, r0
     564:	00750251 	rsbseq	r0, r5, r1, asr r2
     568:	f6180000 			; <UNDEFINED> instruction: 0xf6180000
     56c:	01000001 	tsteq	r0, r1
     570:	824c0653 	subhi	r0, ip, #87031808	; 0x5300000
     574:	00ec0000 	rsceq	r0, ip, r0
     578:	9c010000 	stcls	0, cr0, [r1], {-0}
     57c:	000003f9 	strdeq	r0, [r0], -r9
     580:	000a0312 	andeq	r0, sl, r2, lsl r3
     584:	14530100 	ldrbne	r0, [r3], #-256	; 0xffffff00
     588:	000001aa 	andeq	r0, r0, sl, lsr #3
     58c:	00000142 	andeq	r0, r0, r2, asr #2
     590:	0000013e 	andeq	r0, r0, lr, lsr r1
     594:	01006c13 	tsteq	r0, r3, lsl ip
     598:	01082453 	tsteq	r8, r3, asr r4
     59c:	91020000 	mrsls	r0, (UNDEF: 2)
     5a0:	0068145c 	rsbeq	r1, r8, ip, asr r4
     5a4:	be0c5501 	cfsh32lt	mvfx5, mvfx12, #1
     5a8:	6a000001 	bvs	5b4 <__code_start__-0x7a4c>
     5ac:	60000001 	andvs	r0, r0, r1
     5b0:	19000001 	stmdbne	r0, {r0}
     5b4:	00000073 	andeq	r0, r0, r3, ror r0
     5b8:	00000409 	andeq	r0, r0, r9, lsl #8
     5bc:	a2b80305 	adcsge	r0, r8, #335544320	; 0x14000000
     5c0:	80150000 	andshi	r0, r5, r0
     5c4:	64000082 	strvs	r0, [r0], #-130	; 0xffffff7e
     5c8:	0b000007 	bleq	5ec <__code_start__-0x7a14>
     5cc:	16000003 	strne	r0, [r0], -r3
     5d0:	03055001 	movweq	r5, #20481	; 0x5001
     5d4:	0000a228 	andeq	sl, r0, r8, lsr #4
     5d8:	02510116 	subseq	r0, r1, #-2147483643	; 0x80000005
     5dc:	01160076 	tsteq	r6, r6, ror r0
     5e0:	00770252 	rsbseq	r0, r7, r2, asr r2
     5e4:	02530116 	subseq	r0, r3, #-2147483643	; 0x80000005
     5e8:	15000078 	strne	r0, [r0, #-120]	; 0xffffff88
     5ec:	0000828c 	andeq	r8, r0, ip, lsl #5
     5f0:	00000764 	andeq	r0, r0, r4, ror #14
     5f4:	00000328 	andeq	r0, r0, r8, lsr #6
     5f8:	05500116 	ldrbeq	r0, [r0, #-278]	; 0xfffffeea
     5fc:	00a23403 	adceq	r3, r2, r3, lsl #8
     600:	51011600 	tstpl	r1, r0, lsl #12
     604:	00007402 	andeq	r7, r0, r2, lsl #8
     608:	0082ac15 	addeq	sl, r2, r5, lsl ip
     60c:	00052e00 	andeq	r2, r5, r0, lsl #28
     610:	00033c00 	andeq	r3, r3, r0, lsl #24
     614:	50011600 	andpl	r1, r1, r0, lsl #12
     618:	00007402 	andeq	r7, r0, r2, lsl #8
     61c:	0082c015 	addeq	ip, r2, r5, lsl r0
     620:	00040e00 	andeq	r0, r4, r0, lsl #28
     624:	00035900 	andeq	r5, r3, r0, lsl #18
     628:	50011600 	andpl	r1, r1, r0, lsl #12
     62c:	a9880305 	stmibge	r8, {r0, r2, r8, r9}
     630:	01160000 	tsteq	r6, r0
     634:	00750251 	rsbseq	r0, r5, r1, asr r2
     638:	82c81500 	sbchi	r1, r8, #0, 10
     63c:	07700000 	ldrbeq	r0, [r0, -r0]!
     640:	036d0000 	cmneq	sp, #0, 0
     644:	01160000 	tsteq	r6, r0
     648:	00750250 	rsbseq	r0, r5, r0, asr r2
     64c:	82e41500 	rschi	r1, r4, #0, 10
     650:	07640000 	strbeq	r0, [r4, -r0]!
     654:	03960000 	orrseq	r0, r6, #0, 0
     658:	01160000 	tsteq	r6, r0
     65c:	44030550 	strmi	r0, [r3], #-1360	; 0xfffffab0
     660:	160000a2 	strne	r0, [r0], -r2, lsr #1
     664:	76025101 	strvc	r5, [r2], -r1, lsl #2
     668:	52011600 	andpl	r1, r1, #0, 12
     66c:	16007702 	strne	r7, [r0], -r2, lsl #14
     670:	78025301 	stmdavc	r2, {r0, r8, r9, ip, lr}
     674:	f0150000 			; <UNDEFINED> instruction: 0xf0150000
     678:	64000082 	strvs	r0, [r0], #-130	; 0xffffff7e
     67c:	ad000007 	stcge	0, cr0, [r0, #-28]	; 0xffffffe4
     680:	16000003 	strne	r0, [r0], -r3
     684:	03055001 	movweq	r5, #20481	; 0x5001
     688:	0000a25c 	andeq	sl, r0, ip, asr r2
     68c:	82f41a00 	rscshi	r1, r4, #0, 20
     690:	077c0000 	ldrbeq	r0, [ip, -r0]!
     694:	10150000 	andsne	r0, r5, r0
     698:	64000083 	strvs	r0, [r0], #-131	; 0xffffff7d
     69c:	ef000007 	svc	0x00000007
     6a0:	16000003 	strne	r0, [r0], -r3
     6a4:	03055001 	movweq	r5, #20481	; 0x5001
     6a8:	0000a1d4 	ldrdeq	sl, [r0], -r4
     6ac:	05510116 	ldrbeq	r0, [r1, #-278]	; 0xfffffeea
     6b0:	00a1c803 	adceq	ip, r1, r3, lsl #16
     6b4:	52011600 	andpl	r1, r1, #0, 12
     6b8:	a2b80305 	adcsge	r0, r8, #335544320	; 0x14000000
     6bc:	01160000 	tsteq	r6, r0
     6c0:	5d080253 	sfmpl	f0, 4, [r8, #-332]	; 0xfffffeb4
     6c4:	007d0216 	rsbseq	r0, sp, r6, lsl r2
     6c8:	a2840305 	addge	r0, r4, #335544320	; 0x14000000
     6cc:	1a000000 	bne	6d4 <__code_start__-0x792c>
     6d0:	00008314 	andeq	r8, r0, r4, lsl r3
     6d4:	0000077c 	andeq	r0, r0, ip, ror r7
     6d8:	00c01b00 	sbceq	r1, r0, r0, lsl #22
     6dc:	04090000 	streq	r0, [r9], #-0
     6e0:	2c1c0000 	ldccs	0, cr0, [ip], {-0}
     6e4:	06000000 	streq	r0, [r0], -r0
     6e8:	03f90900 	mvnseq	r0, #0, 18
     6ec:	081d0000 	ldmdaeq	sp, {}	; <UNPREDICTABLE>
     6f0:	01000002 	tsteq	r0, r2
     6f4:	81000d3a 	tsthi	r0, sl, lsr sp
     6f8:	00a40000 	adceq	r0, r4, r0
     6fc:	9c010000 	stcls	0, cr0, [r1], {-0}
     700:	00000513 	andeq	r0, r0, r3, lsl r5
     704:	01006c1e 	tsteq	r0, lr, lsl ip
     708:	0513213a 	ldreq	r2, [r3, #-314]	; 0xfffffec6
     70c:	01bb0000 			; <UNDEFINED> instruction: 0x01bb0000
     710:	01ad0000 			; <UNDEFINED> instruction: 0x01ad0000
     714:	681e0000 	ldmdavs	lr, {}	; <UNPREDICTABLE>
     718:	2b3a0100 	blcs	e80b20 <__bss_end__+0xe75d70>
     71c:	000001be 			; <UNDEFINED> instruction: 0x000001be
     720:	00000225 	andeq	r0, r0, r5, lsr #4
     724:	00000219 	andeq	r0, r0, r9, lsl r2
     728:	00007319 	andeq	r7, r0, r9, lsl r3
     72c:	00052900 	andeq	r2, r5, r0, lsl #18
     730:	ac030500 	cfstr32ge	mvfx0, [r3], {-0}
     734:	1f0000a2 	svcne	0x000000a2
     738:	000002aa 	andeq	r0, r0, sl, lsr #5
     73c:	be0c3d01 	cdplt	13, 0, cr3, cr12, cr1, {0}
     740:	7a000001 	bvc	74c <__code_start__-0x78b4>
     744:	72000002 	andvc	r0, r0, #2, 0
     748:	14000002 	strne	r0, [r0], #-2
     74c:	45010070 	strmi	r0, [r1, #-112]	; 0xffffff90
     750:	0001be0c 	andeq	fp, r1, ip, lsl #28
     754:	0002b200 	andeq	fp, r2, r0, lsl #4
     758:	0002ae00 	andeq	sl, r2, r0, lsl #28
     75c:	81281500 			; <UNDEFINED> instruction: 0x81281500
     760:	06ed0000 	strbteq	r0, [sp], r0
     764:	04910000 	ldreq	r0, [r1], #0
     768:	01160000 	tsteq	r6, r0
     76c:	00750250 	rsbseq	r0, r5, r0, asr r2
     770:	81641500 	cmnhi	r4, r0, lsl #10
     774:	07640000 	strbeq	r0, [r4, -r0]!
     778:	04ca0000 	strbeq	r0, [sl], #0
     77c:	01160000 	tsteq	r6, r0
     780:	d4030550 	strle	r0, [r3], #-1360	; 0xfffffab0
     784:	160000a1 	strne	r0, [r0], -r1, lsr #1
     788:	03055101 	movweq	r5, #20737	; 0x5101
     78c:	0000a1c8 	andeq	sl, r0, r8, asr #3
     790:	05520116 	ldrbeq	r0, [r2, #-278]	; 0xfffffeea
     794:	00a2ac03 	adceq	sl, r2, r3, lsl #24
     798:	53011600 	movwpl	r1, #5632	; 0x1600
     79c:	163c0802 	ldrtne	r0, [ip], -r2, lsl #16
     7a0:	05007d02 	streq	r7, [r0, #-3330]	; 0xfffff2fe
     7a4:	00a1e803 	adceq	lr, r1, r3, lsl #16
     7a8:	681a0000 	ldmdavs	sl, {}	; <UNPREDICTABLE>
     7ac:	7c000081 	stcvc	0, cr0, [r0], {129}	; 0x81
     7b0:	15000007 	strne	r0, [r0, #-7]
     7b4:	0000818c 	andeq	r8, r0, ip, lsl #3
     7b8:	00000764 	andeq	r0, r0, r4, ror #14
     7bc:	00000509 	andeq	r0, r0, r9, lsl #10
     7c0:	05500116 	ldrbeq	r0, [r0, #-278]	; 0xfffffeea
     7c4:	00a1ec03 	adceq	lr, r1, r3, lsl #24
     7c8:	51011600 	tstpl	r1, r0, lsl #12
     7cc:	a1c80305 	bicge	r0, r8, r5, lsl #6
     7d0:	01160000 	tsteq	r6, r0
     7d4:	ac030552 	cfstr32ge	mvfx0, [r3], {82}	; 0x52
     7d8:	160000a2 	strne	r0, [r0], -r2, lsr #1
     7dc:	08025301 	stmdaeq	r2, {r0, r8, r9, ip, lr}
     7e0:	7d02164f 	stcvc	6, cr1, [r2, #-316]	; 0xfffffec4
     7e4:	00740200 	rsbseq	r0, r4, r0, lsl #4
     7e8:	81901a00 	orrshi	r1, r0, r0, lsl #20
     7ec:	077c0000 	ldrbeq	r0, [ip, -r0]!
     7f0:	08000000 	stmdaeq	r0, {}	; <UNPREDICTABLE>
     7f4:	0001be04 	andeq	fp, r1, r4, lsl #28
     7f8:	00c01b00 	sbceq	r1, r0, r0, lsl #22
     7fc:	05290000 	streq	r0, [r9, #-0]!
     800:	2c1c0000 	ldccs	0, cr0, [ip], {-0}
     804:	0b000000 	bleq	80c <__code_start__-0x77f4>
     808:	05190900 	ldreq	r0, [r9, #-2304]	; 0xfffff700
     80c:	55110000 	ldrpl	r0, [r1, #-0]
     810:	01000002 	tsteq	r0, r2
     814:	01be082b 			; <UNDEFINED> instruction: 0x01be082b
     818:	81f40000 	mvnshi	r0, r0
     81c:	00580000 	subseq	r0, r8, r0
     820:	9c010000 	stcls	0, cr0, [r1], {-0}
     824:	000005cf 	andeq	r0, r0, pc, asr #11
     828:	7274701e 	rsbsvc	r7, r4, #30, 0
     82c:	202b0100 	eorcs	r0, fp, r0, lsl #2
     830:	000001aa 	andeq	r0, r0, sl, lsr #3
     834:	000002d4 	ldrdeq	r0, [r0], -r4
     838:	000002d0 	ldrdeq	r0, [r0], -r0	; <UNPREDICTABLE>
     83c:	0081fc20 	addeq	pc, r1, r0, lsr #24
     840:	00004400 	andeq	r4, r0, r0, lsl #8
     844:	00681400 	rsbeq	r1, r8, r0, lsl #8
     848:	be112e01 	cdplt	14, 1, cr2, cr1, cr1, {0}
     84c:	fa000001 	blx	858 <__code_start__-0x77a8>
     850:	f2000002 	vhadd.s8	d0, d0, d2
     854:	1a000002 	bne	864 <__code_start__-0x779c>
     858:	00008200 	andeq	r8, r0, r0, lsl #4
     85c:	0000071a 	andeq	r0, r0, sl, lsl r7
     860:	00821815 	addeq	r1, r2, r5, lsl r8
     864:	0005cf00 	andeq	ip, r5, r0, lsl #30
     868:	00059a00 	andeq	r9, r5, r0, lsl #20
     86c:	50011600 	andpl	r1, r1, r0, lsl #12
     870:	16007402 	strne	r7, [r0], -r2, lsl #8
     874:	75025101 	strvc	r5, [r2, #-257]	; 0xfffffeff
     878:	28150000 	ldmdacs	r5, {}	; <UNPREDICTABLE>
     87c:	ed000082 	stc	0, cr0, [r0, #-520]	; 0xfffffdf8
     880:	ae000006 	cdpge	0, 0, cr0, cr0, cr6, {0}
     884:	16000005 	strne	r0, [r0], -r5
     888:	74025001 	strvc	r5, [r2], #-1
     88c:	40170000 	andsmi	r0, r7, r0
     890:	64000082 	strvs	r0, [r0], #-130	; 0xffffff7e
     894:	16000007 	strne	r0, [r0], -r7
     898:	03055001 	movweq	r5, #20481	; 0x5001
     89c:	0000a218 	andeq	sl, r0, r8, lsl r2
     8a0:	02510116 	subseq	r0, r1, #-2147483643	; 0x80000005
     8a4:	01160075 	tsteq	r6, r5, ror r0
     8a8:	00740252 	rsbseq	r0, r4, r2, asr r2
     8ac:	11000000 	mrsne	r0, (UNDEF: 0)
     8b0:	000001b9 			; <UNDEFINED> instruction: 0x000001b9
     8b4:	2c0a2401 	cfstrscs	mvf2, [sl], {1}
     8b8:	c4000000 	strgt	r0, [r0], #-0
     8bc:	30000081 	andcc	r0, r0, r1, lsl #1
     8c0:	01000000 	mrseq	r0, (UNDEF: 0)
     8c4:	00065c9c 	muleq	r6, ip, ip
     8c8:	00681e00 	rsbeq	r1, r8, r0, lsl #28
     8cc:	be212401 	cdplt	4, 2, cr2, cr1, cr1, {0}
     8d0:	32000001 	andcc	r0, r0, #1, 0
     8d4:	2e000003 	cdpcs	0, 0, cr0, cr0, cr3, {0}
     8d8:	1e000003 	cdpne	0, 0, cr0, cr0, cr3, {0}
     8dc:	00727470 	rsbseq	r7, r2, r0, ror r4
     8e0:	aa2a2401 	bge	a898ec <__bss_end__+0xa7eb3c>
     8e4:	54000001 	strpl	r0, [r0], #-1
     8e8:	50000003 	andpl	r0, r0, r3
     8ec:	14000003 	strne	r0, [r0], #-3
     8f0:	006e696d 	rsbeq	r6, lr, sp, ror #18
     8f4:	aa0b2601 	bge	2ca100 <__bss_end__+0x2bf350>
     8f8:	76000001 	strvc	r0, [r0], -r1
     8fc:	72000003 	andvc	r0, r0, #3, 0
     900:	14000003 	strne	r0, [r0], #-3
     904:	0078616d 	rsbseq	r6, r8, sp, ror #2
     908:	aa0b2701 	bge	2ca514 <__bss_end__+0x2bf764>
     90c:	96000001 	strls	r0, [r0], -r1
     910:	94000003 	strls	r0, [r0], #-3
     914:	15000003 	strne	r0, [r0, #-3]
     918:	000081d4 	ldrdeq	r8, [r0], -r4
     91c:	000006c0 	andeq	r0, r0, r0, asr #13
     920:	0000064b 	andeq	r0, r0, fp, asr #12
     924:	02500116 	subseq	r0, r0, #-2147483643	; 0x80000005
     928:	17000076 	smlsdxne	r0, r6, r0, r0
     92c:	000081e0 	andeq	r8, r0, r0, ror #3
     930:	0000065c 	andeq	r0, r0, ip, asr r6
     934:	02500116 	subseq	r0, r0, #-2147483643	; 0x80000005
     938:	00000076 	andeq	r0, r0, r6, ror r0
     93c:	00029f11 	andeq	r9, r2, r1, lsl pc
     940:	071e0100 	ldreq	r0, [lr, -r0, lsl #2]
     944:	000001aa 	andeq	r0, r0, sl, lsr #3
     948:	000081ac 	andeq	r8, r0, ip, lsr #3
     94c:	00000018 	andeq	r0, r0, r8, lsl r0
     950:	06c09c01 	strbeq	r9, [r0], r1, lsl #24
     954:	681e0000 	ldmdavs	lr, {}	; <UNPREDICTABLE>
     958:	191e0100 	ldmdbne	lr, {r8}
     95c:	000001be 			; <UNDEFINED> instruction: 0x000001be
     960:	000003ad 	andeq	r0, r0, sp, lsr #7
     964:	000003a9 	andeq	r0, r0, r9, lsr #7
     968:	00073021 	andeq	r3, r7, r1, lsr #32
     96c:	0081b800 	addeq	fp, r1, r0, lsl #16
     970:	81b80000 			; <UNDEFINED> instruction: 0x81b80000
     974:	00040000 	andeq	r0, r4, r0
     978:	20010000 	andcs	r0, r1, r0
     97c:	0006af26 	andeq	sl, r6, r6, lsr #30
     980:	07412200 	strbeq	r2, [r1, -r0, lsl #4]
     984:	03cd0000 	biceq	r0, sp, #0, 0
     988:	03cb0000 	biceq	r0, fp, #0, 0
     98c:	17000000 	strne	r0, [r0, -r0]
     990:	000081b8 			; <UNDEFINED> instruction: 0x000081b8
     994:	000006c0 	andeq	r0, r0, r0, asr #13
     998:	02500116 	subseq	r0, r0, #-2147483643	; 0x80000005
     99c:	00000074 	andeq	r0, r0, r4, ror r0
     9a0:	00029211 	andeq	r9, r2, r1, lsl r2
     9a4:	07180100 	ldreq	r0, [r8, -r0, lsl #2]
     9a8:	000001aa 	andeq	r0, r0, sl, lsr #3
     9ac:	000081a4 	andeq	r8, r0, r4, lsr #3
     9b0:	00000008 	andeq	r0, r0, r8
     9b4:	06ed9c01 	strbteq	r9, [sp], r1, lsl #24
     9b8:	681e0000 	ldmdavs	lr, {}	; <UNPREDICTABLE>
     9bc:	1b180100 	blne	600dc4 <__bss_end__+0x5f6014>
     9c0:	000001be 			; <UNDEFINED> instruction: 0x000001be
     9c4:	000003e4 	andeq	r0, r0, r4, ror #7
     9c8:	000003e0 	andeq	r0, r0, r0, ror #7
     9cc:	02671100 	rsbeq	r1, r7, #0
     9d0:	11010000 	mrsne	r0, (UNDEF: 1)
     9d4:	0001be08 	andeq	fp, r1, r8, lsl #28
     9d8:	0080f000 	addeq	pc, r0, r0
     9dc:	00001000 	andeq	r1, r0, r0
     9e0:	1a9c0100 	bne	fe700de8 <__bss_end__+0xfe6f6038>
     9e4:	1e000007 	cdpne	0, 0, cr0, cr0, cr7, {0}
     9e8:	11010070 	tstne	r1, r0, ror r0
     9ec:	0001be1b 	andeq	fp, r1, fp, lsl lr
     9f0:	00040800 	andeq	r0, r4, r0, lsl #16
     9f4:	00040400 	andeq	r0, r4, r0, lsl #8
     9f8:	e9230000 	stmdb	r3!, {}	; <UNPREDICTABLE>
     9fc:	01000001 	tsteq	r0, r1
     a00:	01be080b 			; <UNDEFINED> instruction: 0x01be080b
     a04:	80e00000 	rschi	r0, r0, r0
     a08:	00100000 	andseq	r0, r0, r0
     a0c:	9c010000 	stcls	0, cr0, [r1], {-0}
     a10:	0002af24 	andeq	sl, r2, r4, lsr #30
     a14:	18210200 	stmdane	r1!, {r9}
     a18:	0000002c 	andeq	r0, r0, ip, lsr #32
     a1c:	00074c03 	andeq	r4, r7, r3, lsl #24
     a20:	00682500 	rsbeq	r2, r8, r0, lsl #10
     a24:	be292102 	suflte	f2, f1, f2
     a28:	00000001 	andeq	r0, r0, r1
     a2c:	0002b926 	andeq	fp, r2, r6, lsr #18
     a30:	0002b900 	andeq	fp, r2, r0, lsl #18
     a34:	071e0600 	ldreq	r0, [lr, -r0, lsl #12]
     a38:	00006726 	andeq	r6, r0, r6, lsr #14
     a3c:	00006700 	andeq	r6, r0, r0, lsl #14
     a40:	07f20400 	ldrbeq	r0, [r2, r0, lsl #8]!
     a44:	00054626 	andeq	r4, r5, r6, lsr #12
     a48:	00054600 	andeq	r4, r5, r0, lsl #12
     a4c:	06280400 	strteq	r0, [r8], -r0, lsl #8
     a50:	0001e126 	andeq	lr, r1, r6, lsr #2
     a54:	0001e100 	andeq	lr, r1, r0, lsl #2
     a58:	061f0600 	ldreq	r0, [pc], -r0, lsl #12
     a5c:	00022526 	andeq	r2, r2, r6, lsr #10
     a60:	00022500 	andeq	r2, r2, r0, lsl #10
     a64:	066e0400 	strbteq	r0, [lr], -r0, lsl #8
     a68:	0002c200 	andeq	ip, r2, r0, lsl #4
     a6c:	1b000400 	blne	1a74 <__code_start__-0x658c>
     a70:	04000004 	streq	r0, [r0], #-4
     a74:	00010401 	andeq	r0, r1, r1, lsl #8
     a78:	02e30c00 	rsceq	r0, r3, #0, 24
     a7c:	00b20000 	adcseq	r0, r2, r0
     a80:	83c80000 	bichi	r0, r8, #0, 0
     a84:	01ac0000 			; <UNDEFINED> instruction: 0x01ac0000
     a88:	03f20000 	mvnseq	r0, #0, 0
     a8c:	04020000 	streq	r0, [r2], #-0
     a90:	746e6905 	strbtvc	r6, [lr], #-2309	; 0xfffff6fb
     a94:	07040300 	streq	r0, [r4, -r0, lsl #6]
     a98:	00000097 	muleq	r0, r7, r0
     a9c:	48060103 	stmdami	r6, {r0, r1, r8}
     aa0:	03000000 	movweq	r0, #0
     aa4:	00e40502 	rsceq	r0, r4, r2, lsl #10
     aa8:	04030000 	streq	r0, [r3], #-0
     aac:	0000a905 	andeq	sl, r0, r5, lsl #18
     ab0:	05080300 	streq	r0, [r8, #-768]	; 0xfffffd00
     ab4:	000000a4 	andeq	r0, r0, r4, lsr #1
     ab8:	46080103 	strmi	r0, [r8], -r3, lsl #2
     abc:	03000000 	movweq	r0, #0
     ac0:	00540702 	subseq	r0, r4, r2, lsl #14
     ac4:	04030000 	streq	r0, [r3], #-0
     ac8:	00009207 	andeq	r9, r0, r7, lsl #4
     acc:	07080300 	streq	r0, [r8, -r0, lsl #6]
     ad0:	0000008d 	andeq	r0, r0, sp, lsl #1
     ad4:	00002504 	andeq	r2, r0, r4, lsl #10
     ad8:	00007a00 	andeq	r7, r0, r0, lsl #20
     adc:	00250500 	eoreq	r0, r5, r0, lsl #10
     ae0:	06000000 	streq	r0, [r0], -r0
     ae4:	000000f8 	strdeq	r0, [r0], -r8
     ae8:	860e1c02 	strhi	r1, [lr], -r2, lsl #24
     aec:	07000000 	streq	r0, [r0, -r0]
     af0:	00006b04 	andeq	r6, r0, r4, lsl #22
     af4:	00250400 	eoreq	r0, r5, r0, lsl #8
     af8:	009b0000 	addseq	r0, fp, r0
     afc:	9b050000 	blls	140b04 <__bss_end__+0x135d54>
     b00:	00000000 	andeq	r0, r0, r0
     b04:	00a80407 	adceq	r0, r8, r7, lsl #8
     b08:	01030000 	mrseq	r0, (UNDEF: 3)
     b0c:	00004f08 	andeq	r4, r0, r8, lsl #30
     b10:	00a10800 	adceq	r0, r1, r0, lsl #16
     b14:	84060000 	strhi	r0, [r6], #-0
     b18:	02000005 	andeq	r0, r0, #5, 0
     b1c:	00b90e21 	adcseq	r0, r9, r1, lsr #28
     b20:	04070000 	streq	r0, [r7], #-0
     b24:	0000008c 	andeq	r0, r0, ip, lsl #1
     b28:	0002d009 	andeq	sp, r2, r9
     b2c:	05010800 	streq	r0, [r1, #-2048]	; 0xfffff800
     b30:	0000ec07 	andeq	lr, r0, r7, lsl #24
     b34:	00640a00 	rsbeq	r0, r4, r0, lsl #20
     b38:	ec090701 	stc	7, cr0, [r9], {1}
     b3c:	0a000000 	beq	b44 <__code_start__-0x74bc>
     b40:	08010070 	stmdaeq	r1, {r4, r5, r6}
     b44:	0000f308 	andeq	pc, r0, r8, lsl #6
     b48:	70660a00 	rsbvc	r0, r6, r0, lsl #20
     b4c:	09090100 	stmdbeq	r9, {r8}
     b50:	000000f6 	strdeq	r0, [r0], -r6
     b54:	04080300 	streq	r0, [r8], #-768	; 0xfffffd00
     b58:	000002ef 	andeq	r0, r0, pc, ror #5
     b5c:	070c040b 	streq	r0, [ip, -fp, lsl #8]
     b60:	0000f504 	andeq	pc, r0, r4, lsl #10
     b64:	01080d00 	tsteq	r8, r0, lsl #26
     b68:	0120020e 			; <UNDEFINED> instruction: 0x0120020e
     b6c:	700e0000 	andvc	r0, lr, r0
     b70:	01007274 	tsteq	r0, r4, ror r2
     b74:	01421110 	cmpeq	r2, r0, lsl r1
     b78:	0f000000 	svceq	0x00000000
     b7c:	00000309 	andeq	r0, r0, r9, lsl #6
     b80:	2c0c1101 	stfcss	f1, [ip], {1}
     b84:	04000000 	streq	r0, [r0], #-0
     b88:	02c30900 	sbceq	r0, r3, #0, 18
     b8c:	01080000 	mrseq	r0, (UNDEF: 8)
     b90:	01420f0c 	cmpeq	r2, ip, lsl #30
     b94:	730a0000 	movwvc	r0, #40960	; 0xa000
     b98:	04120100 	ldreq	r0, [r2], #-256	; 0xffffff00
     b9c:	000000fc 	strdeq	r0, [r0], -ip
     ba0:	0100780a 	tsteq	r0, sl, lsl #16
     ba4:	00bf0e13 	adcseq	r0, pc, r3, lsl lr	; <UNPREDICTABLE>
     ba8:	07000000 	streq	r0, [r0, -r0]
     bac:	00012004 	andeq	r2, r1, r4
     bb0:	030e1000 	movweq	r1, #57344	; 0xe000
     bb4:	14010000 	strne	r0, [r1], #-0
     bb8:	00012003 	andeq	r2, r1, r3
     bbc:	02f61100 	rscseq	r1, r6, #0
     bc0:	18010000 	stmdane	r1, {}	; <UNPREDICTABLE>
     bc4:	0001480f 	andeq	r4, r1, pc, lsl #16
     bc8:	98030500 	stmdals	r3, {r8, sl}
     bcc:	110000a9 	smlatbne	r0, r9, r0, r0
     bd0:	000002d6 	ldrdeq	r0, [r0], -r6
     bd4:	78101901 	ldmdavc	r0, {r0, r8, fp, ip}
     bd8:	05000001 	streq	r0, [r0, #-1]
     bdc:	00a99003 	adceq	r9, r9, r3
     be0:	48040700 	stmdami	r4, {r8, r9, sl}
     be4:	12000001 	andne	r0, r0, #1, 0
     be8:	000001e1 	andeq	r0, r0, r1, ror #3
     bec:	c8065201 	stmdagt	r6, {r0, r9, ip, lr}
     bf0:	bc000083 	stclt	0, cr0, [r0], {131}	; 0x83
     bf4:	01000000 	mrseq	r0, (UNDEF: 0)
     bf8:	0001c79c 	muleq	r1, ip, r7
     bfc:	70611300 	rsbvc	r1, r1, r0, lsl #6
     c00:	14520100 	ldrbne	r0, [r2], #-256	; 0xffffff00
     c04:	000000f3 	strdeq	r0, [r0], -r3
     c08:	62145001 	andsvs	r5, r4, #1, 0
     c0c:	54010070 	strpl	r0, [r1], #-112	; 0xffffff90
     c10:	0001780a 	andeq	r7, r1, sl, lsl #16
     c14:	00043100 	andeq	r3, r4, r0, lsl #2
     c18:	00042900 	andeq	r2, r4, r0, lsl #18
     c1c:	00701400 	rsbseq	r1, r0, r0, lsl #8
     c20:	780f5401 	stmdavc	pc, {r0, sl, ip, lr}	; <UNPREDICTABLE>
     c24:	6d000001 	stcvs	0, cr0, [r0, #-4]
     c28:	69000004 	stmdbvs	r0, {r2}
     c2c:	00000004 	andeq	r0, r0, r4
     c30:	0002b915 	andeq	fp, r2, r5, lsl r9
     c34:	072a0100 	streq	r0, [sl, -r0, lsl #2]!
     c38:	000000f3 	strdeq	r0, [r0], -r3
     c3c:	000084c8 	andeq	r8, r0, r8, asr #9
     c40:	000000ac 	andeq	r0, r0, ip, lsr #1
     c44:	02409c01 	subeq	r9, r0, #256	; 0x100
     c48:	b2160000 	andslt	r0, r6, #0, 0
     c4c:	01000002 	tsteq	r0, r2
     c50:	002c1a2a 	eoreq	r1, ip, sl, lsr #20
     c54:	04930000 	ldreq	r0, [r3], #0
     c58:	048b0000 	streq	r0, [fp], #0
     c5c:	70140000 	andsvc	r0, r4, r0
     c60:	0a2c0100 	beq	b01068 <__bss_end__+0xaf62b8>
     c64:	00000178 	andeq	r0, r0, r8, ror r1
     c68:	000004db 	ldrdeq	r0, [r0], -fp
     c6c:	000004cd 	andeq	r0, r0, sp, asr #9
     c70:	0002ca17 	andeq	ip, r2, r7, lsl sl
     c74:	0e2c0100 	sufeqe	f0, f4, f0
     c78:	00000178 	andeq	r0, r0, r8, ror r1
     c7c:	0000053d 	andeq	r0, r0, sp, lsr r5
     c80:	00000533 	andeq	r0, r0, r3, lsr r5
     c84:	0002dc17 	andeq	sp, r2, r7, lsl ip
     c88:	0b2d0100 	bleq	b41090 <__bss_end__+0xb362e0>
     c8c:	0000002c 	andeq	r0, r0, ip, lsr #32
     c90:	00000583 	andeq	r0, r0, r3, lsl #11
     c94:	00000581 	andeq	r0, r0, r1, lsl #11
     c98:	00856418 	addeq	r6, r5, r8, lsl r4
     c9c:	00024000 	andeq	r4, r2, r0
     ca0:	50011900 	andpl	r1, r1, r0, lsl #18
     ca4:	00007402 	andeq	r7, r0, r2, lsl #8
     ca8:	03001a00 	movweq	r1, #2560	; 0xa00
     cac:	1c010000 	stcne	0, cr0, [r1], {-0}
     cb0:	00017810 	andeq	r7, r1, r0, lsl r8
     cb4:	00848400 	addeq	r8, r4, r0, lsl #8
     cb8:	00004400 	andeq	r4, r0, r0, lsl #8
     cbc:	b39c0100 	orrslt	r0, ip, #0
     cc0:	1b000002 	blne	cd0 <__code_start__-0x7330>
     cc4:	0100756e 	tsteq	r0, lr, ror #10
     cc8:	002c221c 	eoreq	r2, ip, ip, lsl r2
     ccc:	059a0000 	ldreq	r0, [sl]
     cd0:	05960000 	ldreq	r0, [r6]
     cd4:	63140000 	tstvs	r4, #0, 0
     cd8:	20010070 	andcs	r0, r1, r0, ror r0
     cdc:	0002b308 	andeq	fp, r2, r8, lsl #6
     ce0:	0005be00 	andeq	fp, r5, r0, lsl #28
     ce4:	0005b800 	andeq	fp, r5, r0, lsl #16
     ce8:	70751400 	rsbsvc	r1, r5, r0, lsl #8
     cec:	0a230100 	beq	8c10f4 <__bss_end__+0x8b6344>
     cf0:	00000178 	andeq	r0, r0, r8, ror r1
     cf4:	000005ed 	andeq	r0, r0, sp, ror #11
     cf8:	000005e9 	andeq	r0, r0, r9, ror #11
     cfc:	00849c1c 	addeq	r9, r4, ip, lsl ip
     d00:	0002b900 	andeq	fp, r2, r0, lsl #18
     d04:	0002a900 	andeq	sl, r2, r0, lsl #18
     d08:	50011900 	andpl	r1, r1, r0, lsl #18
     d0c:	33007404 	movwcc	r7, #1028	; 0x404
     d10:	b01d0024 	andslt	r0, sp, r4, lsr #32
     d14:	7e000084 	cdpvc	0, 0, cr0, cr0, cr4, {4}
     d18:	00000001 	andeq	r0, r0, r1
     d1c:	00a10407 	adceq	r0, r1, r7, lsl #8
     d20:	fb1e0000 	blx	780d2a <__bss_end__+0x775f7a>
     d24:	fb000002 	blx	d36 <__code_start__-0x72ca>
     d28:	03000002 	movweq	r0, #2
     d2c:	2d000b1a 	vstrcs	d0, [r0, #-104]	; 0xffffff98
     d30:	0400000d 	streq	r0, [r0], #-13
     d34:	0005f200 	andeq	pc, r5, r0, lsl #4
     d38:	04010400 	streq	r0, [r1], #-1024	; 0xfffffc00
     d3c:	0c000001 	stceq	0, cr0, [r0], {1}
     d40:	000003cf 	andeq	r0, r0, pc, asr #7
     d44:	000000b2 	strheq	r0, [r0], -r2
     d48:	00008574 	andeq	r8, r0, r4, ror r5
     d4c:	00000604 	andeq	r0, r0, r4, lsl #12
     d50:	0000061d 	andeq	r0, r0, sp, lsl r6
     d54:	69050402 	stmdbvs	r5, {r1, sl}
     d58:	0300746e 	movweq	r7, #1134	; 0x46e
     d5c:	00970704 	addseq	r0, r7, r4, lsl #14
     d60:	01030000 	mrseq	r0, (UNDEF: 3)
     d64:	00004806 	andeq	r4, r0, r6, lsl #16
     d68:	05020300 	streq	r0, [r2, #-768]	; 0xfffffd00
     d6c:	000000e4 	andeq	r0, r0, r4, ror #1
     d70:	a9050403 	stmdbge	r5, {r0, r1, sl}
     d74:	03000000 	movweq	r0, #0
     d78:	00a40508 	adceq	r0, r4, r8, lsl #10
     d7c:	01030000 	mrseq	r0, (UNDEF: 3)
     d80:	00004608 	andeq	r4, r0, r8, lsl #12
     d84:	024c0400 	subeq	r0, ip, #0, 8
     d88:	31030000 	mrscc	r0, (UNDEF: 3)
     d8c:	00006219 	andeq	r6, r0, r9, lsl r2
     d90:	07020300 	streq	r0, [r2, -r0, lsl #6]
     d94:	00000054 	andeq	r0, r0, r4, asr r0
     d98:	00024304 	andeq	r4, r2, r4, lsl #6
     d9c:	19340300 	ldmdbne	r4!, {r8, r9}
     da0:	00000075 	andeq	r0, r0, r5, ror r0
     da4:	92070403 	andls	r0, r7, #50331648	; 0x3000000
     da8:	03000000 	movweq	r0, #0
     dac:	008d0708 	addeq	r0, sp, r8, lsl #14
     db0:	25050000 	strcs	r0, [r5, #-0]
     db4:	92000000 	andls	r0, r0, #0, 0
     db8:	06000000 	streq	r0, [r0], -r0
     dbc:	00000025 	andeq	r0, r0, r5, lsr #32
     dc0:	00f80700 	rscseq	r0, r8, r0, lsl #14
     dc4:	1c040000 	stcne	0, cr0, [r4], {-0}
     dc8:	00009e0e 	andeq	r9, r0, lr, lsl #28
     dcc:	83040800 	movwhi	r0, #18432	; 0x4800
     dd0:	05000000 	streq	r0, [r0, #-0]
     dd4:	00000025 	andeq	r0, r0, r5, lsr #32
     dd8:	000000b3 	strheq	r0, [r0], -r3
     ddc:	0000b306 	andeq	fp, r0, r6, lsl #6
     de0:	04080000 	streq	r0, [r8], #-0
     de4:	000000c0 	andeq	r0, r0, r0, asr #1
     de8:	4f080103 	svcmi	0x00080103
     dec:	09000000 	stmdbeq	r0, {}	; <UNPREDICTABLE>
     df0:	000000b9 	strheq	r0, [r0], -r9
     df4:	00058407 	andeq	r8, r5, r7, lsl #8
     df8:	0e210400 	cdpeq	4, 2, cr0, cr1, cr0, {0}
     dfc:	000000d1 	ldrdeq	r0, [r0], -r1
     e00:	00a40408 	adceq	r0, r4, r8, lsl #8
     e04:	0c0a0000 	stceq	0, cr0, [sl], {-0}
     e08:	08090402 	stmdaeq	r9, {r1, sl}
     e0c:	0b000001 	bleq	e18 <__code_start__-0x71e8>
     e10:	00000041 	andeq	r0, r0, r1, asr #32
     e14:	b3110602 	tstlt	r1, #2097152	; 0x200000
     e18:	00000000 	andeq	r0, r0, r0
     e1c:	00006e0b 	andeq	r6, r0, fp, lsl #28
     e20:	11070200 	mrsne	r0, (UNDEF: 39)
     e24:	000000b3 	strheq	r0, [r0], -r3
     e28:	00100b04 	andseq	r0, r0, r4, lsl #22
     e2c:	08020000 	stmdaeq	r2, {}	; <UNPREDICTABLE>
     e30:	00002c0e 	andeq	r2, r0, lr, lsl #24
     e34:	04000800 	streq	r0, [r0], #-2048	; 0xfffff800
     e38:	000000ee 	andeq	r0, r0, lr, ror #1
     e3c:	d7030902 	strle	r0, [r3, -r2, lsl #18]
     e40:	0c000000 	stceq	0, cr0, [r0], {-0}
     e44:	00000214 	andeq	r0, r0, r4, lsl r2
     e48:	100c0524 	andne	r0, ip, r4, lsr #10
     e4c:	0000017d 	andeq	r0, r0, sp, ror r1
     e50:	0000000b 	andeq	r0, r0, fp
     e54:	140d0500 	strne	r0, [sp], #-1280	; 0xfffffb00
     e58:	0000017d 	andeq	r0, r0, sp, ror r1
     e5c:	02850b00 	addeq	r0, r5, #0, 22
     e60:	0e050000 	cdpeq	0, 0, cr0, cr5, cr0, {0}
     e64:	0000690e 	andeq	r6, r0, lr, lsl #18
     e68:	320b0400 	andcc	r0, fp, #0, 8
     e6c:	05000002 	streq	r0, [r0, #-2]
     e70:	00690e0f 	rsbeq	r0, r9, pc, lsl #28
     e74:	0b080000 	bleq	200e7c <__bss_end__+0x1f60cc>
     e78:	0000021b 	andeq	r0, r0, fp, lsl r2
     e7c:	080f1105 	stmdaeq	pc, {r0, r2, r8, ip}	; <UNPREDICTABLE>
     e80:	0c000001 	stceq	0, cr0, [r0], {1}
     e84:	0002380b 	andeq	r3, r2, fp, lsl #16
     e88:	0e140500 	cfmul32eq	mvfx0, mvfx4, mvfx0
     e8c:	00000069 	andeq	r0, r0, r9, rrx
     e90:	01d50b18 	bicseq	r0, r5, r8, lsl fp
     e94:	15050000 	strne	r0, [r5, #-0]
     e98:	0000690e 	andeq	r6, r0, lr, lsl #18
     e9c:	650b1c00 	strvs	r1, [fp, #-3072]	; 0xfffff400
     ea0:	05000003 	streq	r0, [r0, #-3]
     ea4:	00560e17 	subseq	r0, r6, r7, lsl lr
     ea8:	00200000 	eoreq	r0, r0, r0
     eac:	01140408 	tsteq	r4, r8, lsl #8
     eb0:	c9040000 	stmdbgt	r4, {}	; <UNPREDICTABLE>
     eb4:	05000001 	streq	r0, [r0, #-1]
     eb8:	01140318 	tsteq	r4, r8, lsl r3
     ebc:	040d0000 	streq	r0, [sp], #-0
     ec0:	0009ec0e 	andeq	lr, r9, lr, lsl #24
     ec4:	0e100100 	mufeqs	f0, f0, f0
     ec8:	0000018f 	andeq	r0, r0, pc, lsl #3
     ecc:	a9a00305 	stmibge	r0!, {r0, r2, r8, r9}
     ed0:	4d0e0000 	stcmi	0, cr0, [lr, #-0]
     ed4:	0100000a 	tsteq	r0, sl
     ed8:	018f0e11 	orreq	r0, pc, r1, lsl lr	; <UNPREDICTABLE>
     edc:	03050000 	movweq	r0, #20480	; 0x5000
     ee0:	0000a9a4 	andeq	sl, r0, r4, lsr #19
     ee4:	0003280f 	andeq	r2, r3, pc, lsl #16
     ee8:	01150100 	tsteq	r5, r0, lsl #2
     eec:	008b4c06 	addeq	r4, fp, r6, lsl #24
     ef0:	00002c00 	andeq	r2, r0, r0, lsl #24
     ef4:	159c0100 	ldrne	r0, [ip, #256]	; 0x100
     ef8:	10000002 	andne	r0, r0, r2
     efc:	00000073 	andeq	r0, r0, r3, ror r0
     f00:	00000225 	andeq	r0, r0, r5, lsr #4
     f04:	a5f80305 	ldrbge	r0, [r8, #773]!	; 0x305
     f08:	64110000 	ldrvs	r0, [r1], #-0
     f0c:	a900008b 	stmdbge	r0, {r0, r1, r3, r7}
     f10:	0b00000c 	bleq	f48 <__code_start__-0x70b8>
     f14:	12000002 	andne	r0, r0, #2, 0
     f18:	03055001 	movweq	r5, #20481	; 0x5001
     f1c:	0000a588 	andeq	sl, r0, r8, lsl #11
     f20:	05510112 	ldrbeq	r0, [r1, #-274]	; 0xfffffeee
     f24:	00a2c003 	adceq	ip, r2, r3
     f28:	52011200 	andpl	r1, r1, #0, 4
     f2c:	a5f80305 	ldrbge	r0, [r8, #773]!	; 0x305
     f30:	01120000 	tsteq	r2, r0
     f34:	170a0353 	smlsdne	sl, r3, r3, r0
     f38:	68130001 	ldmdavs	r3, {r0}
     f3c:	b500008b 	strlt	r0, [r0, #-139]	; 0xffffff75
     f40:	0000000c 	andeq	r0, r0, ip
     f44:	0000c014 	andeq	ip, r0, r4, lsl r0
     f48:	00022500 	andeq	r2, r2, r0, lsl #10
     f4c:	002c1500 	eoreq	r1, ip, r0, lsl #10
     f50:	000e0000 	andeq	r0, lr, r0
     f54:	00021509 	andeq	r1, r2, r9, lsl #10
     f58:	03851600 	orreq	r1, r5, #0, 12
     f5c:	0b010000 	bleq	40f64 <__bss_end__+0x361b4>
     f60:	002c0a01 	eoreq	r0, ip, r1, lsl #20
     f64:	8b3c0000 	blhi	f00f6c <__bss_end__+0xef61bc>
     f68:	00100000 	andseq	r0, r0, r0
     f6c:	9c010000 	stcls	0, cr0, [r1], {-0}
     f70:	0000026d 	andeq	r0, r0, sp, ror #4
     f74:	0002b217 	andeq	fp, r2, r7, lsl r2
     f78:	010e0100 	mrseq	r0, (UNDEF: 30)
     f7c:	00002c0e 	andeq	r2, r0, lr, lsl #24
     f80:	00060f00 	andeq	r0, r6, r0, lsl #30
     f84:	00060d00 	andeq	r0, r6, r0, lsl #26
     f88:	8b441300 	blhi	1105b90 <__bss_end__+0x10fade0>
     f8c:	079b0000 	ldreq	r0, [fp, r0]
     f90:	48130000 	ldmdami	r3, {}	; <UNPREDICTABLE>
     f94:	6d00008b 	stcvs	0, cr0, [r0, #-556]	; 0xfffffdd4
     f98:	00000002 	andeq	r0, r0, r2
     f9c:	00042e18 	andeq	r2, r4, r8, lsl lr
     fa0:	11f30100 	mvnsne	r0, r0, lsl #2
     fa4:	0000002c 	andeq	r0, r0, ip, lsr #32
     fa8:	000088f4 	strdeq	r8, [r0], -r4
     fac:	000000e8 	andeq	r0, r0, r8, ror #1
     fb0:	03ee9c01 	mvneq	r9, #256	; 0x100
     fb4:	45190000 	ldrmi	r0, [r9, #-0]
     fb8:	01000003 	tsteq	r0, r3
     fbc:	002c0ef5 	strdeq	r0, [ip], -r5	; <UNPREDICTABLE>
     fc0:	06260000 	strteq	r0, [r6], -r0
     fc4:	06220000 	strteq	r0, [r2], -r0
     fc8:	ba190000 	blt	640fd0 <__bss_end__+0x636220>
     fcc:	01000003 	tsteq	r0, r3
     fd0:	002c1bf5 	strdeq	r1, [ip], -r5	; <UNPREDICTABLE>
     fd4:	06490000 	strbeq	r0, [r9], -r0
     fd8:	06450000 	strbeq	r0, [r5], -r0
     fdc:	54190000 	ldrpl	r0, [r9], #-0
     fe0:	01000003 	tsteq	r0, r3
     fe4:	002c27f5 	strdeq	r2, [ip], -r5	; <UNPREDICTABLE>
     fe8:	066e0000 	strbteq	r0, [lr], -r0
     fec:	06680000 	strbteq	r0, [r8], -r0
     ff0:	73100000 	tstvc	r0, #0, 0
     ff4:	fe000000 	cdp2	0, 0, cr0, cr0, cr0, {0}
     ff8:	05000003 	streq	r0, [r0, #-3]
     ffc:	00a5c003 	adceq	ip, r5, r3
    1000:	00781a00 	rsbseq	r1, r8, r0, lsl #20
    1004:	037a0000 	cmneq	sl, #0, 0
    1008:	681b0000 	ldmdavs	fp, {}	; <UNPREDICTABLE>
    100c:	11fa0100 	mvnsne	r0, r0, lsl #2
    1010:	00000403 	andeq	r0, r0, r3, lsl #8
    1014:	000006a0 	andeq	r0, r0, r0, lsr #13
    1018:	00000698 	muleq	r0, r8, r6
    101c:	000c731c 	andeq	r7, ip, ip, lsl r3
    1020:	00893800 	addeq	r3, r9, r0, lsl #16
    1024:	89380000 	ldmdbhi	r8!, {}	; <UNPREDICTABLE>
    1028:	00180000 	andseq	r0, r8, r0
    102c:	01010000 	mrseq	r0, (UNDEF: 1)
    1030:	032f0d01 			; <UNDEFINED> instruction: 0x032f0d01
    1034:	9c1d0000 	ldcls	0, cr0, [sp], {-0}
    1038:	d600000c 	strle	r0, [r0], -ip
    103c:	d4000006 	strle	r0, [r0], #-6
    1040:	1d000006 	stcne	0, cr0, [r0, #-24]	; 0xffffffe8
    1044:	00000c90 	muleq	r0, r0, ip
    1048:	000006ee 	andeq	r0, r0, lr, ror #13
    104c:	000006ec 	andeq	r0, r0, ip, ror #13
    1050:	000c841d 	andeq	r8, ip, sp, lsl r4
    1054:	00070800 	andeq	r0, r7, r0, lsl #16
    1058:	00070600 	andeq	r0, r7, r0, lsl #12
    105c:	14130000 	ldrne	r0, [r3], #-0
    1060:	d0000089 	andle	r0, r0, r9, lsl #1
    1064:	1100000c 	tstne	r0, ip
    1068:	00008960 	andeq	r8, r0, r0, ror #18
    106c:	00000cdc 	ldrdeq	r0, [r0], -ip
    1070:	0000034c 	andeq	r0, r0, ip, asr #6
    1074:	02500112 	subseq	r0, r0, #-2147483644	; 0x80000004
    1078:	11000076 	tstne	r0, r6, ror r0
    107c:	0000896c 	andeq	r8, r0, ip, ror #18
    1080:	00000ca9 	andeq	r0, r0, r9, lsr #25
    1084:	00000369 	andeq	r0, r0, r9, ror #6
    1088:	05500112 	ldrbeq	r0, [r0, #-274]	; 0xfffffeee
    108c:	00a49003 	adceq	r9, r4, r3
    1090:	51011200 	mrspl	r1, R9_usr
    1094:	00007602 	andeq	r7, r0, r2, lsl #12
    1098:	0089741e 	addeq	r7, r9, lr, lsl r4
    109c:	000ce800 	andeq	lr, ip, r0, lsl #16
    10a0:	50011200 	andpl	r1, r1, r0, lsl #4
    10a4:	00007402 	andeq	r7, r0, r2, lsl #8
    10a8:	89041100 	stmdbhi	r4, {r8, ip}
    10ac:	0ca90000 	stceq	0, cr0, [r9]
    10b0:	03910000 	orrseq	r0, r1, #0, 0
    10b4:	01120000 	tsteq	r2, r0
    10b8:	58030550 	stmdapl	r3, {r4, r6, r8, sl}
    10bc:	000000a3 	andeq	r0, r0, r3, lsr #1
    10c0:	00890c11 	addeq	r0, r9, r1, lsl ip
    10c4:	000ca900 	andeq	sl, ip, r0, lsl #18
    10c8:	0003a800 	andeq	sl, r3, r0, lsl #16
    10cc:	50011200 	andpl	r1, r1, r0, lsl #4
    10d0:	a4800305 	strge	r0, [r0], #773	; 0x305
    10d4:	13000000 	movwne	r0, #0
    10d8:	00008910 	andeq	r8, r0, r0, lsl r9
    10dc:	0000079b 	muleq	r0, fp, r7
    10e0:	00899c11 	addeq	r9, r9, r1, lsl ip
    10e4:	000ca900 	andeq	sl, ip, r0, lsl #18
    10e8:	0003c800 	andeq	ip, r3, r0, lsl #16
    10ec:	50011200 	andpl	r1, r1, r0, lsl #4
    10f0:	a3d80305 	bicsge	r0, r8, #335544320	; 0x14000000
    10f4:	1e000000 	cdpne	0, 0, cr0, cr0, cr0, {0}
    10f8:	000089b0 			; <UNDEFINED> instruction: 0x000089b0
    10fc:	00000ca9 	andeq	r0, r0, r9, lsr #25
    1100:	05500112 	ldrbeq	r0, [r0, #-274]	; 0xfffffeee
    1104:	00a4a003 	adceq	sl, r4, r3
    1108:	51011200 	mrspl	r1, R9_usr
    110c:	12007502 	andne	r7, r0, #8388608	; 0x800000
    1110:	78025201 	stmdavc	r2, {r0, r9, ip, lr}
    1114:	53011200 	movwpl	r1, #4608	; 0x1200
    1118:	00007702 	andeq	r7, r0, r2, lsl #14
    111c:	00c01400 	sbceq	r1, r0, r0, lsl #8
    1120:	03fe0000 	mvnseq	r0, #0, 0
    1124:	2c150000 	ldccs	0, cr0, [r5], {-0}
    1128:	0a000000 	beq	1130 <__code_start__-0x6ed0>
    112c:	03ee0900 	mvneq	r0, #0, 18
    1130:	04080000 	streq	r0, [r8], #-0
    1134:	00000183 	andeq	r0, r0, r3, lsl #3
    1138:	0003d71f 	andeq	sp, r3, pc, lsl r7
    113c:	0ae30100 	beq	ff8c1544 <__bss_end__+0xff8b6794>
    1140:	0000002c 	andeq	r0, r0, ip, lsr #32
    1144:	00008ae0 	andeq	r8, r0, r0, ror #21
    1148:	0000005c 	andeq	r0, r0, ip, asr r0
    114c:	04c69c01 	strbeq	r9, [r6], #3073	; 0xc01
    1150:	95190000 	ldrls	r0, [r9, #-0]
    1154:	01000003 	tsteq	r0, r3
    1158:	002c0ee9 	eoreq	r0, ip, r9, ror #29
    115c:	07240000 	streq	r0, [r4, -r0]!
    1160:	07200000 	streq	r0, [r0, -r0]!
    1164:	73100000 	tstvc	r0, #0, 0
    1168:	d6000000 	strle	r0, [r0], -r0
    116c:	05000004 	streq	r0, [r0, #-4]
    1170:	00a5e403 	adceq	lr, r5, r3, lsl #8
    1174:	8aec1100 	bhi	ffb0557c <__bss_end__+0xffafa7cc>
    1178:	058f0000 	streq	r0, [pc]	; 1180 <__code_start__-0x6e80>
    117c:	04590000 	ldrbeq	r0, [r9], #-0
    1180:	01120000 	tsteq	r2, r0
    1184:	00310150 	eorseq	r0, r1, r0, asr r1
    1188:	008afc11 	addeq	pc, sl, r1, lsl ip	; <UNPREDICTABLE>
    118c:	000ca900 	andeq	sl, ip, r0, lsl #18
    1190:	00047000 	andeq	r7, r4, r0
    1194:	50011200 	andpl	r1, r1, r0, lsl #4
    1198:	a3d80305 	bicsge	r0, r8, #335544320	; 0x14000000
    119c:	11000000 	mrsne	r0, (UNDEF: 0)
    11a0:	00008b08 	andeq	r8, r0, r8, lsl #22
    11a4:	00000ca9 	andeq	r0, r0, r9, lsr #25
    11a8:	0000048d 	andeq	r0, r0, sp, lsl #9
    11ac:	05500112 	ldrbeq	r0, [r0, #-274]	; 0xfffffeee
    11b0:	00a56803 	adceq	r6, r5, r3, lsl #16
    11b4:	51011200 	mrspl	r1, R9_usr
    11b8:	00007402 	andeq	r7, r0, r2, lsl #8
    11bc:	008b2411 	addeq	r2, fp, r1, lsl r4
    11c0:	000ca900 	andeq	sl, ip, r0, lsl #18
    11c4:	0004bc00 	andeq	fp, r4, r0, lsl #24
    11c8:	50011200 	andpl	r1, r1, r0, lsl #4
    11cc:	a5400305 	strbge	r0, [r0, #-773]	; 0xfffffcfb
    11d0:	01120000 	tsteq	r2, r0
    11d4:	c0030551 	andgt	r0, r3, r1, asr r5
    11d8:	120000a2 	andne	r0, r0, #162, 0	; 0xa2
    11dc:	03055201 	movweq	r5, #20993	; 0x5201
    11e0:	0000a5e4 	andeq	sl, r0, r4, ror #11
    11e4:	02530112 	subseq	r0, r3, #-2147483644	; 0x80000004
    11e8:	1300eb08 	movwne	lr, #2824	; 0xb08
    11ec:	00008b28 	andeq	r8, r0, r8, lsr #22
    11f0:	00000cb5 			; <UNDEFINED> instruction: 0x00000cb5
    11f4:	00c01400 	sbceq	r1, r0, r0, lsl #8
    11f8:	04d60000 	ldrbeq	r0, [r6], #0
    11fc:	2c150000 	ldccs	0, cr0, [r5], {-0}
    1200:	11000000 	mrsne	r0, (UNDEF: 0)
    1204:	04c60900 	strbeq	r0, [r6], #2304	; 0x900
    1208:	1f200000 	svcne	0x00200000
    120c:	01000000 	mrseq	r0, (UNDEF: 0)
    1210:	8a8c06d5 	bhi	fe302d6c <__bss_end__+0xfe2f7fbc>
    1214:	00540000 	subseq	r0, r4, r0
    1218:	9c010000 	stcls	0, cr0, [r1], {-0}
    121c:	0000057a 	andeq	r0, r0, sl, ror r5
    1220:	00007310 	andeq	r7, r0, r0, lsl r3
    1224:	00058a00 	andeq	r8, r5, r0, lsl #20
    1228:	d4030500 	strle	r0, [r3], #-1280	; 0xfffffb00
    122c:	110000a5 	smlatbne	r0, r5, r0, r0
    1230:	00008a98 	muleq	r0, r8, sl
    1234:	0000058f 	andeq	r0, r0, pc, lsl #11
    1238:	00000513 	andeq	r0, r0, r3, lsl r5
    123c:	01500112 	cmpeq	r0, r2, lsl r1
    1240:	a8110031 	ldmdage	r1, {r0, r4, r5}
    1244:	a900008a 	stmdbge	r0, {r1, r3, r7}
    1248:	2a00000c 	bcs	1280 <__code_start__-0x6d80>
    124c:	12000005 	andne	r0, r0, #5, 0
    1250:	03055001 	movweq	r5, #20481	; 0x5001
    1254:	0000a3d8 	ldrdeq	sl, [r0], -r8
    1258:	8ab01100 	bhi	fec05660 <__bss_end__+0xfebfa8b0>
    125c:	0ca90000 	stceq	0, cr0, [r9]
    1260:	05410000 	strbeq	r0, [r1, #-0]
    1264:	01120000 	tsteq	r2, r0
    1268:	28030550 	stmdacs	r3, {r4, r6, r8, sl}
    126c:	000000a5 	andeq	r0, r0, r5, lsr #1
    1270:	008ac811 	addeq	ip, sl, r1, lsl r8
    1274:	000ca900 	andeq	sl, ip, r0, lsl #18
    1278:	00057000 	andeq	r7, r5, r0
    127c:	50011200 	andpl	r1, r1, r0, lsl #4
    1280:	a4fc0305 	ldrbtge	r0, [ip], #773	; 0x305
    1284:	01120000 	tsteq	r2, r0
    1288:	c0030551 	andgt	r0, r3, r1, asr r5
    128c:	120000a2 	andne	r0, r0, #162, 0	; 0xa2
    1290:	03055201 	movweq	r5, #20993	; 0x5201
    1294:	0000a5d4 	ldrdeq	sl, [r0], -r4
    1298:	02530112 	subseq	r0, r3, #-2147483644	; 0x80000004
    129c:	1300dc08 	movwne	sp, #3080	; 0xc08
    12a0:	00008acc 	andeq	r8, r0, ip, asr #21
    12a4:	00000cb5 			; <UNDEFINED> instruction: 0x00000cb5
    12a8:	00c01400 	sbceq	r1, r0, r0, lsl #8
    12ac:	058a0000 	streq	r0, [sl]
    12b0:	2c150000 	ldccs	0, cr0, [r5], {-0}
    12b4:	0d000000 	stceq	0, cr0, [r0, #-0]
    12b8:	057a0900 	ldrbeq	r0, [sl, #-2304]!	; 0xfffff700
    12bc:	6a1f0000 	bvs	7c12c4 <__bss_end__+0x7b6514>
    12c0:	01000003 	tsteq	r0, r3
    12c4:	002c0ace 	eoreq	r0, ip, lr, asr #21
    12c8:	8a800000 	bhi	fe0012d0 <__bss_end__+0xfdff6520>
    12cc:	000c0000 	andeq	r0, ip, r0
    12d0:	9c010000 	stcls	0, cr0, [r1], {-0}
    12d4:	000005cf 	andeq	r0, r0, pc, asr #11
    12d8:	00043921 	andeq	r3, r4, r1, lsr #18
    12dc:	1cce0100 	stfnee	f0, [lr], {0}
    12e0:	00000025 	andeq	r0, r0, r5, lsr #32
    12e4:	00000746 	andeq	r0, r0, r6, asr #14
    12e8:	00000742 	andeq	r0, r0, r2, asr #14
    12ec:	008a881e 	addeq	r8, sl, lr, lsl r8
    12f0:	0005cf00 	andeq	ip, r5, r0, lsl #30
    12f4:	50011200 	andpl	r1, r1, r0, lsl #4
    12f8:	5001f303 	andpl	pc, r1, r3, lsl #6
    12fc:	14180000 	ldrne	r0, [r8], #-0
    1300:	01000004 	tsteq	r0, r4
    1304:	002c11a5 	eoreq	r1, ip, r5, lsr #3
    1308:	87e40000 	strbhi	r0, [r4, r0]!
    130c:	01100000 	tsteq	r0, r0
    1310:	9c010000 	stcls	0, cr0, [r1], {-0}
    1314:	0000079b 	muleq	r0, fp, r7
    1318:	00043921 	andeq	r3, r4, r1, lsr #18
    131c:	20a50100 	adccs	r0, r5, r0, lsl #2
    1320:	00000025 	andeq	r0, r0, r5, lsr #32
    1324:	0000076b 	andeq	r0, r0, fp, ror #14
    1328:	00000767 	andeq	r0, r0, r7, ror #14
    132c:	00034519 	andeq	r4, r3, r9, lsl r5
    1330:	0ea70100 	fdveqs	f0, f7, f0
    1334:	0000002c 	andeq	r0, r0, ip, lsr #32
    1338:	0000078d 	andeq	r0, r0, sp, lsl #15
    133c:	00000789 	andeq	r0, r0, r9, lsl #15
    1340:	00037e19 	andeq	r7, r3, r9, lsl lr
    1344:	1ba70100 	blne	fe9c174c <__bss_end__+0xfe9b699c>
    1348:	0000002c 	andeq	r0, r0, ip, lsr #32
    134c:	000007b2 			; <UNDEFINED> instruction: 0x000007b2
    1350:	000007ac 	andeq	r0, r0, ip, lsr #15
    1354:	00037819 	andeq	r7, r3, r9, lsl r8
    1358:	27a70100 	strcs	r0, [r7, r0, lsl #2]!
    135c:	0000002c 	andeq	r0, r0, ip, lsr #32
    1360:	000007e0 	andeq	r0, r0, r0, ror #15
    1364:	000007dc 	ldrdeq	r0, [r0], -ip
    1368:	0000601a 	andeq	r6, r0, sl, lsl r0
    136c:	0006b400 	andeq	fp, r6, r0, lsl #8
    1370:	00681b00 	rsbeq	r1, r8, r0, lsl #22
    1374:	0311ac01 	tsteq	r1, #256	; 0x100
    1378:	0d000004 	stceq	0, cr0, [r0, #-16]
    137c:	ff000008 			; <UNDEFINED> instruction: 0xff000008
    1380:	13000007 	movwne	r0, #7
    1384:	00008804 	andeq	r8, r0, r4, lsl #16
    1388:	00000cd0 	ldrdeq	r0, [r0], -r0	; <UNPREDICTABLE>
    138c:	00882c11 	addeq	r2, r8, r1, lsl ip
    1390:	000ca900 	andeq	sl, ip, r0, lsl #18
    1394:	00068000 	andeq	r8, r6, r0
    1398:	50011200 	andpl	r1, r1, r0, lsl #4
    139c:	a3ac0305 			; <UNDEFINED> instruction: 0xa3ac0305
    13a0:	01120000 	tsteq	r2, r0
    13a4:	00750251 	rsbseq	r0, r5, r1, asr r2
    13a8:	02520112 	subseq	r0, r2, #-2147483644	; 0x80000004
    13ac:	11000074 	tstne	r0, r4, ror r0
    13b0:	00008834 	andeq	r8, r0, r4, lsr r8
    13b4:	00000ce8 	andeq	r0, r0, r8, ror #25
    13b8:	00000694 	muleq	r0, r4, r6
    13bc:	02500112 	subseq	r0, r0, #-2147483644	; 0x80000004
    13c0:	1e000074 	mcrne	0, 0, r0, cr0, cr4, {3}
    13c4:	0000886c 	andeq	r8, r0, ip, ror #16
    13c8:	00000ca9 	andeq	r0, r0, r9, lsr #25
    13cc:	05500112 	ldrbeq	r0, [r0, #-274]	; 0xfffffeee
    13d0:	00a3c003 	adceq	ip, r3, r3
    13d4:	51011200 	mrspl	r1, R9_usr
    13d8:	12007502 	andne	r7, r0, #8388608	; 0x800000
    13dc:	74025201 	strvc	r5, [r2], #-513	; 0xfffffdff
    13e0:	11000000 	mrsne	r0, (UNDEF: 0)
    13e4:	000087f4 	strdeq	r8, [r0], -r4
    13e8:	00000ca9 	andeq	r0, r0, r9, lsr #25
    13ec:	000006cb 	andeq	r0, r0, fp, asr #13
    13f0:	05500112 	ldrbeq	r0, [r0, #-274]	; 0xfffffeee
    13f4:	00a35803 	adceq	r5, r3, r3, lsl #16
    13f8:	fc110000 	ldc2	0, cr0, [r1], {-0}
    13fc:	a9000087 	stmdbge	r0, {r0, r1, r2, r7}
    1400:	e200000c 	and	r0, r0, #12, 0
    1404:	12000006 	andne	r0, r0, #6, 0
    1408:	03055001 	movweq	r5, #20481	; 0x5001
    140c:	0000a394 	muleq	r0, r4, r3
    1410:	88001300 	stmdahi	r0, {r8, r9, ip}
    1414:	079b0000 	ldreq	r0, [fp, r0]
    1418:	78110000 	ldmdavc	r1, {}	; <UNPREDICTABLE>
    141c:	a9000088 	stmdbge	r0, {r3, r7}
    1420:	0200000c 	andeq	r0, r0, #12, 0
    1424:	12000007 	andne	r0, r0, #7, 0
    1428:	03055001 	movweq	r5, #20481	; 0x5001
    142c:	0000a3d8 	ldrdeq	sl, [r0], -r8
    1430:	88841100 	stmhi	r4, {r8, ip}
    1434:	0ca90000 	stceq	0, cr0, [r9]
    1438:	071f0000 	ldreq	r0, [pc, -r0]
    143c:	01120000 	tsteq	r2, r0
    1440:	e0030550 	and	r0, r3, r0, asr r5
    1444:	120000a3 	andne	r0, r0, #163, 0	; 0xa3
    1448:	75025101 	strvc	r5, [r2, #-257]	; 0xfffffeff
    144c:	94110000 	ldrls	r0, [r1], #-0
    1450:	a9000088 	stmdbge	r0, {r3, r7}
    1454:	3600000c 	strcc	r0, [r0], -ip
    1458:	12000007 	andne	r0, r0, #7, 0
    145c:	03055001 	movweq	r5, #20481	; 0x5001
    1460:	0000a3d8 	ldrdeq	sl, [r0], -r8
    1464:	889c1100 	ldmhi	ip, {r8, ip}
    1468:	0ca90000 	stceq	0, cr0, [r9]
    146c:	074d0000 	strbeq	r0, [sp, -r0]
    1470:	01120000 	tsteq	r2, r0
    1474:	f8030550 			; <UNDEFINED> instruction: 0xf8030550
    1478:	000000a3 	andeq	r0, r0, r3, lsr #1
    147c:	0088a411 	addeq	sl, r8, r1, lsl r4
    1480:	000ca900 	andeq	sl, ip, r0, lsl #18
    1484:	00076400 	andeq	r6, r7, r0, lsl #8
    1488:	50011200 	andpl	r1, r1, r0, lsl #4
    148c:	a4440305 	strbge	r0, [r4], #-773	; 0xfffffcfb
    1490:	11000000 	mrsne	r0, (UNDEF: 0)
    1494:	000088bc 			; <UNDEFINED> instruction: 0x000088bc
    1498:	00000ca9 	andeq	r0, r0, r9, lsr #25
    149c:	0000077b 	andeq	r0, r0, fp, ror r7
    14a0:	05500112 	ldrbeq	r0, [r0, #-274]	; 0xfffffeee
    14a4:	00a3d803 	adceq	sp, r3, r3, lsl #16
    14a8:	cc1e0000 	ldcgt	0, cr0, [lr], {-0}
    14ac:	a9000088 	stmdbge	r0, {r3, r7}
    14b0:	1200000c 	andne	r0, r0, #12, 0
    14b4:	03055001 	movweq	r5, #20481	; 0x5001
    14b8:	0000a418 	andeq	sl, r0, r8, lsl r4
    14bc:	02510112 	subseq	r0, r1, #-2147483644	; 0x80000004
    14c0:	01120076 	tsteq	r2, r6, ror r0
    14c4:	00770252 	rsbseq	r0, r7, r2, asr r2
    14c8:	1f220000 	svcne	0x00220000
    14cc:	01000003 	tsteq	r0, r3
    14d0:	87400d79 	smlsldxhi	r0, r0, r9, sp	; <UNPREDICTABLE>
    14d4:	00a40000 	adceq	r0, r4, r0
    14d8:	9c010000 	stcls	0, cr0, [r1], {-0}
    14dc:	000008a7 	andeq	r0, r0, r7, lsr #17
    14e0:	0003900e 	andeq	r9, r3, lr
    14e4:	0e850100 	rmfeqs	f0, f5, f0
    14e8:	000008a7 	andeq	r0, r0, r7, lsr #17
    14ec:	7fb89103 	svcvc	0x00b89103
    14f0:	00031523 	andeq	r1, r3, r3, lsr #10
    14f4:	0f960100 	svceq	0x00960100
    14f8:	000008b7 			; <UNDEFINED> instruction: 0x000008b7
    14fc:	08000000 	stmdaeq	r0, {}	; <UNPREDICTABLE>
    1500:	00033707 	andeq	r3, r3, r7, lsl #14
    1504:	159b0100 	ldrne	r0, [fp, #256]	; 0x100
    1508:	00000069 	andeq	r0, r0, r9, rrx
    150c:	0003e907 	andeq	lr, r3, r7, lsl #18
    1510:	249b0100 	ldrcs	r0, [fp], #256	; 0x100
    1514:	00000069 	andeq	r0, r0, r9, rrx
    1518:	00041f07 	andeq	r1, r4, r7, lsl #30
    151c:	159e0100 	ldrne	r0, [lr, #256]	; 0x100
    1520:	00000069 	andeq	r0, r0, r9, rrx
    1524:	0003a607 	andeq	sl, r3, r7, lsl #12
    1528:	259e0100 	ldrcs	r0, [lr, #256]	; 0x100
    152c:	00000069 	andeq	r0, r0, r9, rrx
    1530:	00874824 	addeq	r4, r7, r4, lsr #16
    1534:	00002400 	andeq	r2, r0, r0, lsl #8
    1538:	00083300 	andeq	r3, r8, r0, lsl #6
    153c:	00681b00 	rsbeq	r1, r8, r0, lsl #22
    1540:	03117e01 	tsteq	r1, #1, 28
    1544:	66000004 	strvs	r0, [r0], -r4
    1548:	62000008 	andvs	r0, r0, #8, 0
    154c:	13000008 	movwne	r0, #8
    1550:	0000874c 	andeq	r8, r0, ip, asr #14
    1554:	00000cd0 	ldrdeq	r0, [r0], -r0	; <UNPREDICTABLE>
    1558:	00876813 	addeq	r6, r7, r3, lsl r8
    155c:	000ce800 	andeq	lr, ip, r0, lsl #16
    1560:	74110000 	ldrvc	r0, [r1], #-0
    1564:	f4000087 	vst4.32	{d0-d3}, [r0], r7
    1568:	4700000c 	strmi	r0, [r0, -ip]
    156c:	12000008 	andne	r0, r0, #8, 0
    1570:	7d025001 	stcvc	0, cr5, [r2, #-4]
    1574:	94110000 	ldrls	r0, [r1], #-0
    1578:	bd000087 	stclt	0, cr0, [r0, #-540]	; 0xfffffde4
    157c:	61000008 	tstvs	r0, r8
    1580:	12000008 	andne	r0, r0, #8, 0
    1584:	7d025001 	stcvc	0, cr5, [r2, #-4]
    1588:	51011200 	mrspl	r1, R9_usr
    158c:	00689102 	rsbeq	r9, r8, r2, lsl #2
    1590:	0087a411 	addeq	sl, r7, r1, lsl r4
    1594:	000ca900 	andeq	sl, ip, r0, lsl #18
    1598:	00087f00 	andeq	r7, r8, r0, lsl #30
    159c:	50011200 	andpl	r1, r1, r0, lsl #4
    15a0:	a33c0305 	teqge	ip, #335544320	; 0x14000000
    15a4:	01120000 	tsteq	r2, r0
    15a8:	47400352 	smlsldmi	r0, r0, r2, r3	; <UNPREDICTABLE>
    15ac:	b0110024 	andslt	r0, r1, r4, lsr #32
    15b0:	bd000087 	stclt	0, cr0, [r0, #-540]	; 0xfffffde4
    15b4:	94000008 	strls	r0, [r0], #-8
    15b8:	12000008 	andne	r0, r0, #8, 0
    15bc:	40035101 	andmi	r5, r3, r1, lsl #2
    15c0:	13002447 	movwne	r2, #1095	; 0x447
    15c4:	000087bc 			; <UNDEFINED> instruction: 0x000087bc
    15c8:	000008bd 			; <UNDEFINED> instruction: 0x000008bd
    15cc:	0087c813 	addeq	ip, r7, r3, lsl r8
    15d0:	0008bd00 	andeq	fp, r8, r0, lsl #26
    15d4:	69140000 	ldmdbvs	r4, {}	; <UNPREDICTABLE>
    15d8:	b7000000 	strlt	r0, [r0, -r0]
    15dc:	15000008 	strne	r0, [r0, #-8]
    15e0:	0000002c 	andeq	r0, r0, ip, lsr #32
    15e4:	0408000f 	streq	r0, [r8], #-15
    15e8:	00000069 	andeq	r0, r0, r9, rrx
    15ec:	00036522 	andeq	r6, r3, r2, lsr #10
    15f0:	0d500100 	ldfeqe	f0, [r0, #-0]
    15f4:	000085d8 	ldrdeq	r8, [r0], -r8	; <UNPREDICTABLE>
    15f8:	00000168 	andeq	r0, r0, r8, ror #2
    15fc:	0ab69c01 	beq	feda8608 <__bss_end__+0xfed9d858>
    1600:	70250000 	eorvc	r0, r5, r0
    1604:	1c500100 	ldfnee	f0, [r0], {-0}
    1608:	000008b7 			; <UNDEFINED> instruction: 0x000008b7
    160c:	00000892 	muleq	r0, r2, r8
    1610:	00000884 	andeq	r0, r0, r4, lsl #17
    1614:	01006525 	tsteq	r0, r5, lsr #10
    1618:	08b72950 	ldmeq	r7!, {r4, r6, r8, fp, sp}
    161c:	08fb0000 	ldmeq	fp!, {}^	; <UNPREDICTABLE>
    1620:	08ed0000 	stmiaeq	sp!, {}^	; <UNPREDICTABLE>
    1624:	73100000 	tstvc	r0, #0, 0
    1628:	c6000000 	strgt	r0, [r0], -r0
    162c:	0500000a 	streq	r0, [r0, #-10]
    1630:	00a5b803 	adceq	fp, r5, r3, lsl #16
    1634:	86602400 	strbthi	r2, [r0], -r0, lsl #8
    1638:	00b40000 	adcseq	r0, r4, r0
    163c:	09ef0000 	stmibeq	pc!, {}^	; <UNPREDICTABLE>
    1640:	691b0000 	ldmdbvs	fp, {}	; <UNPREDICTABLE>
    1644:	14580100 	ldrbne	r0, [r8], #-256	; 0xffffff00
    1648:	000008b7 			; <UNDEFINED> instruction: 0x000008b7
    164c:	00000958 	andeq	r0, r0, r8, asr r9
    1650:	00000956 	andeq	r0, r0, r6, asr r9
    1654:	00003026 	andeq	r3, r0, r6, lsr #32
    1658:	00621b00 	rsbeq	r1, r2, r0, lsl #22
    165c:	03105a01 	tsteq	r0, #4096	; 0x1000
    1660:	71000004 	tstvc	r0, r4
    1664:	6b000009 	blvs	1690 <__code_start__-0x6970>
    1668:	1a000009 	bne	1694 <__code_start__-0x696c>
    166c:	00000048 	andeq	r0, r0, r8, asr #32
    1670:	000009e4 	andeq	r0, r0, r4, ror #19
    1674:	7078651b 	rsbsvc	r6, r8, fp, lsl r5
    1678:	165d0100 	ldrbne	r0, [sp], -r0, lsl #2
    167c:	00000069 	andeq	r0, r0, r9, rrx
    1680:	0000099e 	muleq	r0, lr, r9
    1684:	0000099a 	muleq	r0, sl, r9
    1688:	00036119 	andeq	r6, r3, r9, lsl r1
    168c:	165e0100 	ldrbne	r0, [lr], -r0, lsl #2
    1690:	00000056 	andeq	r0, r0, r6, asr r0
    1694:	000009c0 	andeq	r0, r0, r0, asr #19
    1698:	000009bc 			; <UNDEFINED> instruction: 0x000009bc
    169c:	00867411 	addeq	r7, r6, r1, lsl r4
    16a0:	000ca900 	andeq	sl, ip, r0, lsl #18
    16a4:	00098400 	andeq	r8, r9, r0, lsl #8
    16a8:	50011200 	andpl	r1, r1, r0, lsl #4
    16ac:	a31c0305 	tstge	ip, #335544320	; 0x14000000
    16b0:	11000000 	mrsne	r0, (UNDEF: 0)
    16b4:	000086a8 	andeq	r8, r0, r8, lsr #13
    16b8:	00000d00 	andeq	r0, r0, r0, lsl #26
    16bc:	00000998 	muleq	r0, r8, r9
    16c0:	02500112 	subseq	r0, r0, #-2147483644	; 0x80000004
    16c4:	11000075 	tstne	r0, r5, ror r0
    16c8:	000086c0 	andeq	r8, r0, r0, asr #13
    16cc:	00000ca9 	andeq	r0, r0, r9, lsr #25
    16d0:	000009bc 			; <UNDEFINED> instruction: 0x000009bc
    16d4:	05500112 	ldrbeq	r0, [r0, #-274]	; 0xfffffeee
    16d8:	00a2f003 	adceq	pc, r2, r3
    16dc:	52011200 	andpl	r1, r1, #0, 4
    16e0:	12007402 	andne	r7, r0, #33554432	; 0x2000000
    16e4:	02007d02 	andeq	r7, r0, #128	; 0x80
    16e8:	11000077 	tstne	r0, r7, ror r0
    16ec:	00008704 	andeq	r8, r0, r4, lsl #14
    16f0:	000008bd 			; <UNDEFINED> instruction: 0x000008bd
    16f4:	000009d0 	ldrdeq	r0, [r0], -r0	; <UNPREDICTABLE>
    16f8:	02500112 	subseq	r0, r0, #-2147483644	; 0x80000004
    16fc:	1e000475 	mcrne	4, 0, r0, cr0, cr5, {3}
    1700:	00008710 	andeq	r8, r0, r0, lsl r7
    1704:	00000ca9 	andeq	r0, r0, r9, lsr #25
    1708:	05500112 	ldrbeq	r0, [r0, #-274]	; 0xfffffeee
    170c:	00a32c03 	adceq	r2, r3, r3, lsl #24
    1710:	13000000 	movwne	r0, #0
    1714:	00008690 	muleq	r0, r0, r6
    1718:	00000acb 	andeq	r0, r0, fp, asr #21
    171c:	1c110000 	ldcne	0, cr0, [r1], {-0}
    1720:	a9000086 	stmdbge	r0, {r1, r2, r7}
    1724:	2800000c 	stmdacs	r0, {r2, r3}
    1728:	1200000a 	andne	r0, r0, #10, 0
    172c:	03055001 	movweq	r5, #20481	; 0x5001
    1730:	0000a1d4 	ldrdeq	sl, [r0], -r4
    1734:	05510112 	ldrbeq	r0, [r1, #-274]	; 0xfffffeee
    1738:	00a2c003 	adceq	ip, r2, r3
    173c:	52011200 	andpl	r1, r1, #0, 4
    1740:	a5b80305 	ldrge	r0, [r8, #773]!	; 0x305
    1744:	01120000 	tsteq	r2, r0
    1748:	56080253 			; <UNDEFINED> instruction: 0x56080253
    174c:	007d0212 	rsbseq	r0, sp, r2, lsl r2
    1750:	a2e00305 	rscge	r0, r0, #335544320	; 0x14000000
    1754:	13000000 	movwne	r0, #0
    1758:	00008620 	andeq	r8, r0, r0, lsr #12
    175c:	00000cb5 			; <UNDEFINED> instruction: 0x00000cb5
    1760:	00863c11 	addeq	r3, r6, r1, lsl ip
    1764:	000ca900 	andeq	sl, ip, r0, lsl #18
    1768:	000a6a00 	andeq	r6, sl, r0, lsl #20
    176c:	50011200 	andpl	r1, r1, r0, lsl #4
    1770:	a1d40305 	bicsge	r0, r4, r5, lsl #6
    1774:	01120000 	tsteq	r2, r0
    1778:	c0030551 	andgt	r0, r3, r1, asr r5
    177c:	120000a2 	andne	r0, r0, #162, 0	; 0xa2
    1780:	03055201 	movweq	r5, #20993	; 0x5201
    1784:	0000a5b8 			; <UNDEFINED> instruction: 0x0000a5b8
    1788:	02530112 	subseq	r0, r3, #-2147483644	; 0x80000004
    178c:	02125208 	andseq	r5, r2, #8, 4	; 0x80000000
    1790:	0305007d 	movweq	r0, #20605	; 0x507d
    1794:	0000a2c8 	andeq	sl, r0, r8, asr #5
    1798:	86401300 	strbhi	r1, [r0], -r0, lsl #6
    179c:	0cb50000 	ldceq	0, cr0, [r5]
    17a0:	5c110000 	ldcpl	0, cr0, [r1], {-0}
    17a4:	a9000086 	stmdbge	r0, {r1, r2, r7}
    17a8:	ac00000c 	stcge	0, cr0, [r0], {12}
    17ac:	1200000a 	andne	r0, r0, #10, 0
    17b0:	03055001 	movweq	r5, #20481	; 0x5001
    17b4:	0000a1d4 	ldrdeq	sl, [r0], -r4
    17b8:	05510112 	ldrbeq	r0, [r1, #-274]	; 0xfffffeee
    17bc:	00a2c003 	adceq	ip, r2, r3
    17c0:	52011200 	andpl	r1, r1, #0, 4
    17c4:	a5b80305 	ldrge	r0, [r8, #773]!	; 0x305
    17c8:	01120000 	tsteq	r2, r0
    17cc:	55080253 	strpl	r0, [r8, #-595]	; 0xfffffdad
    17d0:	007d0212 	rsbseq	r0, sp, r2, lsl r2
    17d4:	a2d00305 	sbcsge	r0, r0, #335544320	; 0x14000000
    17d8:	13000000 	movwne	r0, #0
    17dc:	00008660 	andeq	r8, r0, r0, ror #12
    17e0:	00000cb5 			; <UNDEFINED> instruction: 0x00000cb5
    17e4:	00c01400 	sbceq	r1, r0, r0, lsl #8
    17e8:	0ac60000 	beq	ff1817f0 <__bss_end__+0xff176a40>
    17ec:	2c150000 	ldccs	0, cr0, [r5], {-0}
    17f0:	04000000 	streq	r0, [r0], #-0
    17f4:	0ab60900 	beq	fed83bfc <__bss_end__+0xfed78e4c>
    17f8:	b3180000 	tstlt	r8, #0, 0
    17fc:	01000003 	tsteq	r0, r3
    1800:	04030f3c 	streq	r0, [r3], #-3900	; 0xfffff0c4
    1804:	85b00000 	ldrhi	r0, [r0, #0]!
    1808:	00280000 	eoreq	r0, r8, r0
    180c:	9c010000 	stcls	0, cr0, [r1], {-0}
    1810:	00000b30 	andeq	r0, r0, r0, lsr fp
    1814:	000a0321 	andeq	r0, sl, r1, lsr #6
    1818:	1f3c0100 	svcne	0x003c0100
    181c:	00000069 	andeq	r0, r0, r9, rrx
    1820:	000009e2 	andeq	r0, r0, r2, ror #19
    1824:	000009de 	ldrdeq	r0, [r0], -lr
    1828:	0100701b 	tsteq	r0, fp, lsl r0
    182c:	018f0b3e 	orreq	r0, pc, lr, lsr fp	; <UNPREDICTABLE>
    1830:	0a040000 	beq	101838 <__bss_end__+0xf6a88>
    1834:	0a000000 	beq	183c <__code_start__-0x67c4>
    1838:	bc110000 	ldclt	0, cr0, [r1], {-0}
    183c:	30000085 	andcc	r0, r0, r5, lsl #1
    1840:	1f00000b 	svcne	0x0000000b
    1844:	1200000b 	andne	r0, r0, #11, 0
    1848:	74025001 	strvc	r5, [r2], #-1
    184c:	cc1e0000 	ldcgt	0, cr0, [lr], {-0}
    1850:	0c000085 	stceq	0, cr0, [r0], {133}	; 0x85
    1854:	1200000d 	andne	r0, r0, #13, 0
    1858:	74025001 	strvc	r5, [r2], #-1
    185c:	18000000 	stmdane	r0, {}	; <UNPREDICTABLE>
    1860:	000003c1 	andeq	r0, r0, r1, asr #7
    1864:	250c2b01 	strcs	r2, [ip, #-2817]	; 0xfffff4ff
    1868:	74000000 	strvc	r0, [r0], #-0
    186c:	3c000085 	stccc	0, cr0, [r0], {133}	; 0x85
    1870:	01000000 	mrseq	r0, (UNDEF: 0)
    1874:	000b5d9c 	muleq	fp, ip, sp
    1878:	00702500 	rsbseq	r2, r0, r0, lsl #10
    187c:	8f1a2b01 	svchi	0x001a2b01
    1880:	2e000001 	cdpcs	0, 0, cr0, cr0, cr1, {0}
    1884:	2200000a 	andcs	r0, r0, #10, 0
    1888:	0000000a 	andeq	r0, r0, sl
    188c:	0002fb1f 	andeq	pc, r2, pc, lsl fp	; <UNPREDICTABLE>
    1890:	07130100 	ldreq	r0, [r3, -r0, lsl #2]
    1894:	0000018f 	andeq	r0, r0, pc, lsl #3
    1898:	000089dc 	ldrdeq	r8, [r0], -ip
    189c:	000000a4 	andeq	r0, r0, r4, lsr #1
    18a0:	0c739c01 	ldcleq	12, cr9, [r3], #-4
    18a4:	9c210000 	stcls	0, cr0, [r1], #-0
    18a8:	01000003 	tsteq	r0, r3
    18ac:	00411113 	subeq	r1, r1, r3, lsl r1
    18b0:	0a8d0000 	beq	fe3418b8 <__bss_end__+0xfe336b08>
    18b4:	0a810000 	beq	fe0418bc <__bss_end__+0xfe036b0c>
    18b8:	4d0e0000 	stcmi	0, cr0, [lr, #-0]
    18bc:	01000003 	tsteq	r0, r3
    18c0:	00251015 	eoreq	r1, r5, r5, lsl r0
    18c4:	03050000 	movweq	r0, #20480	; 0x5000
    18c8:	0000a9a8 	andeq	sl, r0, r8, lsr #19
    18cc:	00007310 	andeq	r7, r0, r0, lsl r3
    18d0:	000ac600 	andeq	ip, sl, r0, lsl #12
    18d4:	cc030500 	cfstr32gt	mvfx0, [r3], {-0}
    18d8:	240000a5 	strcs	r0, [r0], #-165	; 0xffffff5b
    18dc:	000089fc 	strdeq	r8, [r0], -ip
    18e0:	00000024 	andeq	r0, r0, r4, lsr #32
    18e4:	00000be6 	andeq	r0, r0, r6, ror #23
    18e8:	0003c919 	andeq	ip, r3, r9, lsl r9
    18ec:	121c0100 	andsne	r0, ip, #0
    18f0:	0000002c 	andeq	r0, r0, ip, lsr #32
    18f4:	00000ad9 	ldrdeq	r0, [r0], -r9
    18f8:	00000ad7 	ldrdeq	r0, [r0], -r7
    18fc:	008a181e 	addeq	r1, sl, lr, lsl r8
    1900:	000d1800 	andeq	r1, sp, r0, lsl #16
    1904:	50011200 	andpl	r1, r1, r0, lsl #4
    1908:	24404003 	strbcs	r4, [r0], #-3
    190c:	03510112 	cmpeq	r1, #-2147483644	; 0x80000004
    1910:	00244040 	eoreq	r4, r4, r0, asr #32
    1914:	8a281100 	bhi	a05d1c <__bss_end__+0x9faf6c>
    1918:	0d240000 	stceq	0, cr0, [r4, #-0]
    191c:	0bfa0000 	bleq	ffe81924 <__bss_end__+0xffe76b74>
    1920:	01120000 	tsteq	r2, r0
    1924:	00740250 	rsbseq	r0, r4, r0, asr r2
    1928:	8a4c1100 	bhi	1305d30 <__bss_end__+0x12faf80>
    192c:	0ca90000 	stceq	0, cr0, [r9]
    1930:	0c320000 	ldceq	0, cr0, [r2], #-0
    1934:	01120000 	tsteq	r2, r0
    1938:	d4030550 	strle	r0, [r3], #-1360	; 0xfffffab0
    193c:	120000a1 	andne	r0, r0, #161, 0	; 0xa1
    1940:	03055101 	movweq	r5, #20737	; 0x5101
    1944:	0000a2c0 	andeq	sl, r0, r0, asr #5
    1948:	05520112 	ldrbeq	r0, [r2, #-274]	; 0xfffffeee
    194c:	00a5cc03 	adceq	ip, r5, r3, lsl #24
    1950:	53011200 	movwpl	r1, #4608	; 0x1200
    1954:	02124701 	andseq	r4, r2, #262144	; 0x40000
    1958:	0305007d 	movweq	r0, #20605	; 0x507d
    195c:	0000a4cc 	andeq	sl, r0, ip, asr #9
    1960:	8a501300 	bhi	1406568 <__bss_end__+0x13fb7b8>
    1964:	0cb50000 	ldceq	0, cr0, [r5]
    1968:	64110000 	ldrvs	r0, [r1], #-0
    196c:	a900008a 	stmdbge	r0, {r1, r3, r7}
    1970:	6900000c 	stmdbvs	r0, {r2, r3}
    1974:	1200000c 	andne	r0, r0, #12, 0
    1978:	03055001 	movweq	r5, #20481	; 0x5001
    197c:	0000a4dc 	ldrdeq	sl, [r0], -ip
    1980:	05510112 	ldrbeq	r0, [r1, #-274]	; 0xfffffeee
    1984:	00a2c003 	adceq	ip, r2, r3
    1988:	52011200 	andpl	r1, r1, #0, 4
    198c:	a5cc0305 	strbge	r0, [ip, #773]	; 0x305
    1990:	01120000 	tsteq	r2, r0
    1994:	00490153 	subeq	r0, r9, r3, asr r1
    1998:	008a6813 	addeq	r6, sl, r3, lsl r8
    199c:	000cb500 	andeq	fp, ip, r0, lsl #10
    19a0:	05270000 	streq	r0, [r7, #-0]!
    19a4:	02000000 	andeq	r0, r0, #0, 0
    19a8:	01080b0c 	tsteq	r8, ip, lsl #22
    19ac:	a9030000 	stmdbge	r3, {}	; <UNPREDICTABLE>
    19b0:	2800000c 	stmdacs	r0, {r2, r3}
    19b4:	00000041 	andeq	r0, r0, r1, asr #32
    19b8:	b3220c02 			; <UNDEFINED> instruction: 0xb3220c02
    19bc:	28000000 	stmdacs	r0, {}	; <UNPREDICTABLE>
    19c0:	0000006e 	andeq	r0, r0, lr, rrx
    19c4:	b3340c02 	teqlt	r4, #512	; 0x200
    19c8:	28000000 	stmdacs	r0, {}	; <UNPREDICTABLE>
    19cc:	00000010 	andeq	r0, r0, r0, lsl r0
    19d0:	2c430c02 	mcrrcs	12, 0, r0, r3, cr2
    19d4:	00000000 	andeq	r0, r0, r0
    19d8:	00054629 	andeq	r4, r5, r9, lsr #12
    19dc:	00054600 	andeq	r4, r5, r0, lsl #12
    19e0:	06280400 	strteq	r0, [r8], -r0, lsl #8
    19e4:	00022529 	andeq	r2, r2, r9, lsr #10
    19e8:	00022500 	andeq	r2, r2, r0, lsl #10
    19ec:	066e0400 	strbteq	r0, [lr], -r0, lsl #8
    19f0:	0b9e0d2a 	bleq	fe784ea0 <__bss_end__+0xfe77a0f0>
    19f4:	65657773 	strbvs	r7, [r5, #-1907]!	; 0xfffff88d
    19f8:	72665f70 	rsbvc	r5, r6, #112, 30	; 0x1c0
    19fc:	29006565 	stmdbcs	r0, {r0, r2, r5, r6, r8, sl, sp, lr}
    1a00:	000001e9 	andeq	r0, r0, r9, ror #3
    1a04:	000001e9 	andeq	r0, r0, r9, ror #3
    1a08:	29081b05 	stmdbcs	r8, {r0, r2, r8, r9, fp, ip}
    1a0c:	000001f6 	strdeq	r0, [r0], -r6
    1a10:	000001f6 	strdeq	r0, [r0], -r6
    1a14:	29073305 	stmdbcs	r7, {r0, r2, r8, r9, ip, sp}
    1a18:	00000267 	andeq	r0, r0, r7, ror #4
    1a1c:	00000267 	andeq	r0, r0, r7, ror #4
    1a20:	29081e05 	stmdbcs	r8, {r0, r2, r9, sl, fp, ip}
    1a24:	0000038b 	andeq	r0, r0, fp, lsl #7
    1a28:	0000038b 	andeq	r0, r0, fp, lsl #7
    1a2c:	29067601 	stmdbcs	r6, {r0, r9, sl, ip, sp, lr}
    1a30:	00000292 	muleq	r0, r2, r2
    1a34:	00000292 	muleq	r0, r2, r2
    1a38:	29072505 	stmdbcs	r7, {r0, r2, r8, sl, sp}
    1a3c:	00000255 	andeq	r0, r0, r5, asr r2
    1a40:	00000255 	andeq	r0, r0, r5, asr r2
    1a44:	29082e05 	stmdbcs	r8, {r0, r2, r9, sl, fp, sp}
    1a48:	000003fd 	strdeq	r0, [r0], -sp
    1a4c:	000003fd 	strdeq	r0, [r0], -sp
    1a50:	29068204 	stmdbcs	r6, {r2, r9, pc}
    1a54:	000003f5 	strdeq	r0, [r0], -r5
    1a58:	000003f5 	strdeq	r0, [r0], -r5
    1a5c:	00077b04 	andeq	r7, r7, r4, lsl #22
    1a60:	00000140 	andeq	r0, r0, r0, asr #2
    1a64:	08930004 	ldmeq	r3, {r2}
    1a68:	01040000 	mrseq	r0, (UNDEF: 4)
    1a6c:	00000464 	andeq	r0, r0, r4, ror #8
    1a70:	0004540c 	andeq	r5, r4, ip, lsl #8
    1a74:	00051c00 	andeq	r1, r5, r0, lsl #24
    1a78:	008b8000 	addeq	r8, fp, r0
    1a7c:	00007800 	andeq	r7, r0, r0, lsl #16
    1a80:	000b6500 	andeq	r6, fp, r0, lsl #10
    1a84:	05040200 	streq	r0, [r4, #-512]	; 0xfffffe00
    1a88:	00746e69 	rsbseq	r6, r4, r9, ror #28
    1a8c:	00044d03 	andeq	r4, r4, r3, lsl #26
    1a90:	17d10300 	ldrbne	r0, [r1, r0, lsl #6]
    1a94:	00000038 	andeq	r0, r0, r8, lsr r0
    1a98:	97070404 	strls	r0, [r7, -r4, lsl #8]
    1a9c:	04000000 	streq	r0, [r0], #-0
    1aa0:	00480601 	subeq	r0, r8, r1, lsl #12
    1aa4:	02040000 	andeq	r0, r4, #0, 0
    1aa8:	0000e405 	andeq	lr, r0, r5, lsl #8
    1aac:	05040400 	streq	r0, [r4, #-1024]	; 0xfffffc00
    1ab0:	000000a9 	andeq	r0, r0, r9, lsr #1
    1ab4:	a4050804 	strge	r0, [r5], #-2052	; 0xfffff7fc
    1ab8:	04000000 	streq	r0, [r0], #-0
    1abc:	00460801 	subeq	r0, r6, r1, lsl #16
    1ac0:	02040000 	andeq	r0, r4, #0, 0
    1ac4:	00005407 	andeq	r5, r0, r7, lsl #8
    1ac8:	07040400 	streq	r0, [r4, -r0, lsl #8]
    1acc:	00000092 	muleq	r0, r2, r0
    1ad0:	8d070804 	stchi	8, cr0, [r7, #-16]
    1ad4:	05000000 	streq	r0, [r0, #-0]
    1ad8:	00000025 	andeq	r0, r0, r5, lsr #32
    1adc:	00000086 	andeq	r0, r0, r6, lsl #1
    1ae0:	00002506 	andeq	r2, r0, r6, lsl #10
    1ae4:	f8070000 			; <UNDEFINED> instruction: 0xf8070000
    1ae8:	02000000 	andeq	r0, r0, #0, 0
    1aec:	00920e1c 	addseq	r0, r2, ip, lsl lr
    1af0:	04080000 	streq	r0, [r8], #-0
    1af4:	00000077 	andeq	r0, r0, r7, ror r0
    1af8:	00002505 	andeq	r2, r0, r5, lsl #10
    1afc:	0000a700 	andeq	sl, r0, r0, lsl #14
    1b00:	00a70600 	adceq	r0, r7, r0, lsl #12
    1b04:	08000000 	stmdaeq	r0, {}	; <UNPREDICTABLE>
    1b08:	0000b404 	andeq	fp, r0, r4, lsl #8
    1b0c:	08010400 	stmdaeq	r1, {sl}
    1b10:	0000004f 	andeq	r0, r0, pc, asr #32
    1b14:	0000ad09 	andeq	sl, r0, r9, lsl #26
    1b18:	05840700 	streq	r0, [r4, #1792]	; 0x700
    1b1c:	21020000 	mrscs	r0, (UNDEF: 2)
    1b20:	0000c50e 	andeq	ip, r0, lr, lsl #10
    1b24:	98040800 	stmdals	r4, {fp}
    1b28:	0a000000 	beq	1b30 <__code_start__-0x64d0>
    1b2c:	00000067 	andeq	r0, r0, r7, rrx
    1b30:	3b070401 	blcc	1c2b3c <__bss_end__+0x1b7d8c>
    1b34:	80000001 	andhi	r0, r0, r1
    1b38:	7800008b 	stmdavc	r0, {r0, r1, r3, r7}
    1b3c:	01000000 	mrseq	r0, (UNDEF: 0)
    1b40:	00013b9c 	muleq	r1, ip, fp
    1b44:	705f0b00 	subsvc	r0, pc, r0, lsl #22
    1b48:	14040100 	strne	r0, [r4], #-256	; 0xffffff00
    1b4c:	0000013b 	andeq	r0, r0, fp, lsr r1
    1b50:	630c5001 	movwvs	r5, #49153	; 0xc001
    1b54:	1c040100 	stfnes	f0, [r4], {-0}
    1b58:	00000025 	andeq	r0, r0, r5, lsr #32
    1b5c:	00000af3 	strdeq	r0, [r0], -r3
    1b60:	00000aef 	andeq	r0, r0, pc, ror #21
    1b64:	01006e0c 	tsteq	r0, ip, lsl #28
    1b68:	002c2604 	eoreq	r2, ip, r4, lsl #12
    1b6c:	0b180000 	bleq	601b74 <__bss_end__+0x5f6dc4>
    1b70:	0b140000 	bleq	501b78 <__bss_end__+0x4f6dc8>
    1b74:	700d0000 	andvc	r0, sp, r0
    1b78:	0b050100 	bleq	141f80 <__bss_end__+0x1371d0>
    1b7c:	0000013d 	andeq	r0, r0, sp, lsr r1
    1b80:	00000b47 	andeq	r0, r0, r7, asr #22
    1b84:	00000b39 	andeq	r0, r0, r9, lsr fp
    1b88:	0100650d 	tsteq	r0, sp, lsl #10
    1b8c:	013d1405 	teqeq	sp, r5, lsl #8
    1b90:	0ba40000 	bleq	fe901b98 <__bss_end__+0xfe8f6de8>
    1b94:	0ba20000 	bleq	fe881b9c <__bss_end__+0xfe876dec>
    1b98:	0e000000 	cdpeq	0, 0, cr0, cr0, cr0, {0}
    1b9c:	ad040804 	stcge	8, cr0, [r4, #-16]
    1ba0:	00000000 	andeq	r0, r0, r0
    1ba4:	0000019d 	muleq	r0, sp, r1
    1ba8:	095f0004 	ldmdbeq	pc, {r2}^	; <UNPREDICTABLE>
    1bac:	01040000 	mrseq	r0, (UNDEF: 4)
    1bb0:	00000464 	andeq	r0, r0, r4, ror #8
    1bb4:	0005610c 	andeq	r6, r5, ip, lsl #2
    1bb8:	00051c00 	andeq	r1, r5, r0, lsl #24
    1bbc:	008bf800 	addeq	pc, fp, r0, lsl #16
    1bc0:	00005800 	andeq	r5, r0, r0, lsl #16
    1bc4:	000c8a00 	andeq	r8, ip, r0, lsl #20
    1bc8:	054d0200 	strbeq	r0, [sp, #-512]	; 0xfffffe00
    1bcc:	28020000 	stmdacs	r2, {}	; <UNPREDICTABLE>
    1bd0:	0000311b 	andeq	r3, r0, fp, lsl r1
    1bd4:	05710300 	ldrbeq	r0, [r1, #-768]!	; 0xfffffd00
    1bd8:	04040000 	streq	r0, [r4], #-0
    1bdc:	00004800 	andeq	r4, r0, r0, lsl #16
    1be0:	055c0400 	ldrbeq	r0, [ip, #-1024]	; 0xfffffc00
    1be4:	00480000 	subeq	r0, r8, r0
    1be8:	00000000 	andeq	r0, r0, r0
    1bec:	73020405 	movwvc	r0, #9221	; 0x2405
    1bf0:	02000005 	andeq	r0, r0, #5, 0
    1bf4:	00251863 	eoreq	r1, r5, r3, ror #16
    1bf8:	04060000 	streq	r0, [r6], #-0
    1bfc:	746e6905 	strbtvc	r6, [lr], #-2309	; 0xfffff6fb
    1c00:	07040700 	streq	r0, [r4, -r0, lsl #14]
    1c04:	00000097 	muleq	r0, r7, r0
    1c08:	48060107 	stmdami	r6, {r0, r1, r2, r8}
    1c0c:	07000000 	streq	r0, [r0, -r0]
    1c10:	00e40502 	rsceq	r0, r4, r2, lsl #10
    1c14:	04070000 	streq	r0, [r7], #-0
    1c18:	0000a905 	andeq	sl, r0, r5, lsl #18
    1c1c:	05080700 	streq	r0, [r8, #-1792]	; 0xfffff900
    1c20:	000000a4 	andeq	r0, r0, r4, lsr #1
    1c24:	46080107 	strmi	r0, [r8], -r7, lsl #2
    1c28:	07000000 	streq	r0, [r0, -r0]
    1c2c:	00540702 	subseq	r0, r4, r2, lsl #14
    1c30:	04070000 	streq	r0, [r7], #-0
    1c34:	00009207 	andeq	r9, r0, r7, lsl #4
    1c38:	07080700 	streq	r0, [r8, -r0, lsl #14]
    1c3c:	0000008d 	andeq	r0, r0, sp, lsl #1
    1c40:	00005608 	andeq	r5, r0, r8, lsl #12
    1c44:	0000ab00 	andeq	sl, r0, r0, lsl #22
    1c48:	00560900 	subseq	r0, r6, r0, lsl #18
    1c4c:	0a000000 	beq	1c54 <__code_start__-0x63ac>
    1c50:	000000f8 	strdeq	r0, [r0], -r8
    1c54:	b70e1c03 	strlt	r1, [lr, -r3, lsl #24]
    1c58:	0b000000 	bleq	1c60 <__code_start__-0x63a0>
    1c5c:	00009c04 	andeq	r9, r0, r4, lsl #24
    1c60:	00560800 	subseq	r0, r6, r0, lsl #16
    1c64:	00cc0000 	sbceq	r0, ip, r0
    1c68:	cc090000 	stcgt	0, cr0, [r9], {-0}
    1c6c:	00000000 	andeq	r0, r0, r0
    1c70:	00d9040b 	sbcseq	r0, r9, fp, lsl #8
    1c74:	01070000 	mrseq	r0, (UNDEF: 7)
    1c78:	00004f08 	andeq	r4, r0, r8, lsl #30
    1c7c:	00d20c00 	sbcseq	r0, r2, r0, lsl #24
    1c80:	840a0000 	strhi	r0, [sl], #-0
    1c84:	03000005 	movweq	r0, #5
    1c88:	00ea0e21 	rsceq	r0, sl, r1, lsr #28
    1c8c:	040b0000 	streq	r0, [fp], #-0
    1c90:	000000bd 	strheq	r0, [r0], -sp
    1c94:	0005460d 	andeq	r4, r5, sp, lsl #12
    1c98:	05060100 	streq	r0, [r6, #-256]	; 0xffffff00
    1c9c:	00000056 	andeq	r0, r0, r6, asr r0
    1ca0:	00008bf8 	strdeq	r8, [r0], -r8	; <UNPREDICTABLE>
    1ca4:	00000058 	andeq	r0, r0, r8, asr r0
    1ca8:	01839c01 	orreq	r9, r3, r1, lsl #24
    1cac:	660e0000 	strvs	r0, [lr], -r0
    1cb0:	0100746d 	tsteq	r0, sp, ror #8
    1cb4:	00cc1806 	sbceq	r1, ip, r6, lsl #16
    1cb8:	91020000 	mrsls	r0, (UNDEF: 2)
    1cbc:	62100f70 	andsvs	r0, r0, #112, 30	; 0x1c0
    1cc0:	01006675 	tsteq	r0, r5, ror r6
    1cc4:	01831108 	orreq	r1, r3, r8, lsl #2
    1cc8:	03050000 	movweq	r0, #20480	; 0x5000
    1ccc:	0000a9ac 	andeq	sl, r0, ip, lsr #19
    1cd0:	00053e11 	andeq	r3, r5, r1, lsl lr
    1cd4:	0d090100 	stfeqs	f0, [r9, #-0]
    1cd8:	0000004a 	andeq	r0, r0, sl, asr #32
    1cdc:	125c9102 	subsne	r9, ip, #-2147483648	; 0x80000000
    1ce0:	01007a73 	tsteq	r0, r3, ror sl
    1ce4:	00560d0c 	subseq	r0, r6, ip, lsl #26
    1ce8:	0bbd0000 	bleq	fef41cf0 <__bss_end__+0xfef36f40>
    1cec:	0bb70000 	bleq	fedc1cf4 <__bss_end__+0xfedb6f44>
    1cf0:	20130000 	andscs	r0, r3, r0
    1cf4:	9400008c 	strls	r0, [r0], #-140	; 0xffffff74
    1cf8:	76000001 	strvc	r0, [r0], -r1
    1cfc:	14000001 	strne	r0, [r0], #-1
    1d00:	75025001 	strvc	r5, [r2, #-1]
    1d04:	51011400 	tstpl	r1, r0, lsl #8
    1d08:	04000a03 	streq	r0, [r0], #-2563	; 0xfffff5fd
    1d0c:	03520114 	cmpeq	r2, #5
    1d10:	14064891 	strne	r4, [r6], #-2193	; 0xfffff76f
    1d14:	91025301 	tstls	r2, r1, lsl #6
    1d18:	3415004c 	ldrcc	r0, [r5], #-76	; 0xffffffb4
    1d1c:	1400008c 	strne	r0, [r0], #-140	; 0xffffff74
    1d20:	75025001 	strvc	r5, [r2, #-1]
    1d24:	16000000 	strne	r0, [r0], -r0
    1d28:	000000d2 	ldrdeq	r0, [r0], -r2
    1d2c:	00000194 	muleq	r0, r4, r1
    1d30:	00005d17 	andeq	r5, r0, r7, lsl sp
    1d34:	0003ff00 	andeq	pc, r3, r0, lsl #30
    1d38:	00054318 	andeq	r4, r5, r8, lsl r3
    1d3c:	00054300 	andeq	r4, r5, r0, lsl #6
    1d40:	05020500 	streq	r0, [r2, #-1280]	; 0xfffffb00
    1d44:	0000f300 	andeq	pc, r0, r0, lsl #6
    1d48:	a1000400 	tstge	r0, r0, lsl #8
    1d4c:	0400000a 	streq	r0, [r0], #-10
    1d50:	00046401 	andeq	r6, r4, r1, lsl #8
    1d54:	05890c00 	streq	r0, [r9, #3072]	; 0xc00
    1d58:	051c0000 	ldreq	r0, [ip, #-0]
    1d5c:	8c500000 	mrahi	r0, r0, acc0
    1d60:	00380000 	eorseq	r0, r8, r0
    1d64:	0dae0000 	stceq	0, cr0, [lr]
    1d68:	04020000 	streq	r0, [r2], #-0
    1d6c:	746e6905 	strbtvc	r6, [lr], #-2309	; 0xfffff6fb
    1d70:	07040300 	streq	r0, [r4, -r0, lsl #6]
    1d74:	00000097 	muleq	r0, r7, r0
    1d78:	48060103 	stmdami	r6, {r0, r1, r8}
    1d7c:	03000000 	movweq	r0, #0
    1d80:	00e40502 	rsceq	r0, r4, r2, lsl #10
    1d84:	04030000 	streq	r0, [r3], #-0
    1d88:	0000a905 	andeq	sl, r0, r5, lsl #18
    1d8c:	05080300 	streq	r0, [r8, #-768]	; 0xfffffd00
    1d90:	000000a4 	andeq	r0, r0, r4, lsr #1
    1d94:	46080103 	strmi	r0, [r8], -r3, lsl #2
    1d98:	03000000 	movweq	r0, #0
    1d9c:	00540702 	subseq	r0, r4, r2, lsl #14
    1da0:	04030000 	streq	r0, [r3], #-0
    1da4:	00009207 	andeq	r9, r0, r7, lsl #4
    1da8:	07080300 	streq	r0, [r8, -r0, lsl #6]
    1dac:	0000008d 	andeq	r0, r0, sp, lsl #1
    1db0:	00002504 	andeq	r2, r0, r4, lsl #10
    1db4:	00007a00 	andeq	r7, r0, r0, lsl #20
    1db8:	00250500 	eoreq	r0, r5, r0, lsl #10
    1dbc:	06000000 	streq	r0, [r0], -r0
    1dc0:	000000f8 	strdeq	r0, [r0], -r8
    1dc4:	860e1c02 	strhi	r1, [lr], -r2, lsl #24
    1dc8:	07000000 	streq	r0, [r0, -r0]
    1dcc:	00006b04 	andeq	r6, r0, r4, lsl #22
    1dd0:	00250400 	eoreq	r0, r5, r0, lsl #8
    1dd4:	009b0000 	addseq	r0, fp, r0
    1dd8:	9b050000 	blls	141de0 <__bss_end__+0x137030>
    1ddc:	00000000 	andeq	r0, r0, r0
    1de0:	00a80407 	adceq	r0, r8, r7, lsl #8
    1de4:	01030000 	mrseq	r0, (UNDEF: 3)
    1de8:	00004f08 	andeq	r4, r0, r8, lsl #30
    1dec:	00a10800 	adceq	r0, r1, r0, lsl #16
    1df0:	84060000 	strhi	r0, [r6], #-0
    1df4:	02000005 	andeq	r0, r0, #5, 0
    1df8:	00b90e21 	adcseq	r0, r9, r1, lsr #28
    1dfc:	04070000 	streq	r0, [r7], #-0
    1e00:	0000008c 	andeq	r0, r0, ip, lsl #1
    1e04:	0000ad09 	andeq	sl, r0, r9, lsl #26
    1e08:	070c0100 	streq	r0, [ip, -r0, lsl #2]
    1e0c:	a9740305 	ldmdbge	r4!, {r0, r2, r8, r9}^
    1e10:	7b0a0000 	blvc	281e18 <__bss_end__+0x277068>
    1e14:	01000005 	tsteq	r0, r5
    1e18:	00250504 	eoreq	r0, r5, r4, lsl #10
    1e1c:	8c500000 	mrahi	r0, r0, acc0
    1e20:	00380000 	eorseq	r0, r8, r0
    1e24:	9c010000 	stcls	0, cr0, [r1], {-0}
    1e28:	0100700b 	tsteq	r0, fp
    1e2c:	009b1f04 	addseq	r1, fp, r4, lsl #30
    1e30:	0bee0000 	bleq	ffb81e38 <__bss_end__+0xffb77088>
    1e34:	0be60000 	bleq	ff981e3c <__bss_end__+0xff97708c>
    1e38:	00000000 	andeq	r0, r0, r0
    1e3c:	00000c7f 	andeq	r0, r0, pc, ror ip
    1e40:	0b3f0004 	bleq	fc1e58 <__bss_end__+0xfb70a8>
    1e44:	01040000 	mrseq	r0, (UNDEF: 4)
    1e48:	00000464 	andeq	r0, r0, r4, ror #8
    1e4c:	0005a80c 	andeq	sl, r5, ip, lsl #16
    1e50:	00051c00 	andeq	r1, r5, r0, lsl #24
    1e54:	008c8800 	addeq	r8, ip, r0, lsl #16
    1e58:	0009b400 	andeq	fp, r9, r0, lsl #8
    1e5c:	000e5200 	andeq	r5, lr, r0, lsl #4
    1e60:	07080200 	streq	r0, [r8, -r0, lsl #4]
    1e64:	0000008d 	andeq	r0, r0, sp, lsl #1
    1e68:	97070402 	strls	r0, [r7, -r2, lsl #8]
    1e6c:	03000000 	movweq	r0, #0
    1e70:	6e690504 	cdpvs	5, 6, cr0, cr9, cr4, {0}
    1e74:	01020074 	tsteq	r2, r4, ror r0
    1e78:	00004806 	andeq	r4, r0, r6, lsl #16
    1e7c:	05020200 	streq	r0, [r2, #-512]	; 0xfffffe00
    1e80:	000000e4 	andeq	r0, r0, r4, ror #1
    1e84:	a9050402 	stmdbge	r5, {r1, sl}
    1e88:	02000000 	andeq	r0, r0, #0, 0
    1e8c:	00a40508 	adceq	r0, r4, r8, lsl #10
    1e90:	01020000 	mrseq	r0, (UNDEF: 2)
    1e94:	00004608 	andeq	r4, r0, r8, lsl #12
    1e98:	07020200 	streq	r0, [r2, -r0, lsl #4]
    1e9c:	00000054 	andeq	r0, r0, r4, asr r0
    1ea0:	00024304 	andeq	r4, r2, r4, lsl #6
    1ea4:	19340200 	ldmdbne	r4!, {r9}
    1ea8:	00000070 	andeq	r0, r0, r0, ror r0
    1eac:	92070402 	andls	r0, r7, #33554432	; 0x2000000
    1eb0:	04000000 	streq	r0, [r0], #-0
    1eb4:	0000059f 	muleq	r0, pc, r5	; <UNPREDICTABLE>
    1eb8:	25193702 	ldrcs	r3, [r9, #-1794]	; 0xfffff8fe
    1ebc:	05000000 	streq	r0, [r0, #-0]
    1ec0:	00000033 	andeq	r0, r0, r3, lsr r0
    1ec4:	00000092 	muleq	r0, r2, r0
    1ec8:	00003306 	andeq	r3, r0, r6, lsl #6
    1ecc:	f8070000 			; <UNDEFINED> instruction: 0xf8070000
    1ed0:	03000000 	movweq	r0, #0
    1ed4:	009e0e1c 	addseq	r0, lr, ip, lsl lr
    1ed8:	04080000 	streq	r0, [r8], #-0
    1edc:	00000083 	andeq	r0, r0, r3, lsl #1
    1ee0:	00003305 	andeq	r3, r0, r5, lsl #6
    1ee4:	0000b300 	andeq	fp, r0, r0, lsl #6
    1ee8:	00b30600 	adcseq	r0, r3, r0, lsl #12
    1eec:	08000000 	stmdaeq	r0, {}	; <UNPREDICTABLE>
    1ef0:	0000c004 	andeq	ip, r0, r4
    1ef4:	08010200 	stmdaeq	r1, {r9}
    1ef8:	0000004f 	andeq	r0, r0, pc, asr #32
    1efc:	0000b909 	andeq	fp, r0, r9, lsl #18
    1f00:	05840700 	streq	r0, [r4, #1792]	; 0x700
    1f04:	21030000 	mrscs	r0, (UNDEF: 3)
    1f08:	0000d10e 	andeq	sp, r0, lr, lsl #2
    1f0c:	a4040800 	strge	r0, [r4], #-2048	; 0xfffff800
    1f10:	07000000 	streq	r0, [r0, -r0]
    1f14:	000005bb 			; <UNDEFINED> instruction: 0x000005bb
    1f18:	b90d0b04 	stmdblt	sp, {r2, r8, r9, fp}
    1f1c:	07000000 	streq	r0, [r0, -r0]
    1f20:	00000614 	andeq	r0, r0, r4, lsl r6
    1f24:	b90d0c04 	stmdblt	sp, {r2, sl, fp}
    1f28:	07000000 	streq	r0, [r0, -r0]
    1f2c:	00000337 	andeq	r0, r0, r7, lsr r3
    1f30:	b90d0d04 	stmdblt	sp, {r2, r8, sl, fp}
    1f34:	07000000 	streq	r0, [r0, -r0]
    1f38:	000003e9 	andeq	r0, r0, r9, ror #7
    1f3c:	b90d0e04 	stmdblt	sp, {r2, r9, sl, fp}
    1f40:	07000000 	streq	r0, [r0, -r0]
    1f44:	0000041f 	andeq	r0, r0, pc, lsl r4
    1f48:	b90d0f04 	stmdblt	sp, {r2, r8, r9, sl, fp}
    1f4c:	07000000 	streq	r0, [r0, -r0]
    1f50:	000003a6 	andeq	r0, r0, r6, lsr #7
    1f54:	b90d1004 	stmdblt	sp, {r2, ip}
    1f58:	07000000 	streq	r0, [r0, -r0]
    1f5c:	0000063d 	andeq	r0, r0, sp, lsr r6
    1f60:	b90d1104 	stmdblt	sp, {r2, r8, ip}
    1f64:	07000000 	streq	r0, [r0, -r0]
    1f68:	000005d8 	ldrdeq	r0, [r0], -r8
    1f6c:	b90d1204 	stmdblt	sp, {r2, r9, ip}
    1f70:	04000000 	streq	r0, [r0], #-0
    1f74:	0000054d 	andeq	r0, r0, sp, asr #10
    1f78:	431b2805 	tstmi	fp, #327680	; 0x50000
    1f7c:	0a000001 	beq	1f88 <__code_start__-0x6078>
    1f80:	00000571 	andeq	r0, r0, r1, ror r5
    1f84:	5a000604 	bpl	379c <__code_start__-0x4864>
    1f88:	0b000001 	bleq	1f94 <__code_start__-0x606c>
    1f8c:	0000055c 	andeq	r0, r0, ip, asr r5
    1f90:	0000015a 	andeq	r0, r0, sl, asr r1
    1f94:	040c0000 	streq	r0, [ip], #-0
    1f98:	00057304 	andeq	r7, r5, r4, lsl #6
    1f9c:	18630500 	stmdane	r3!, {r8, sl}^
    1fa0:	00000137 	andeq	r0, r0, r7, lsr r1
    1fa4:	0005430d 	andeq	r4, r5, sp, lsl #6
    1fa8:	05810100 	streq	r0, [r1, #256]	; 0x100
    1fac:	00000033 	andeq	r0, r0, r3, lsr r0
    1fb0:	00009010 	andeq	r9, r0, r0, lsl r0
    1fb4:	0000062c 	andeq	r0, r0, ip, lsr #12
    1fb8:	086a9c01 	stmdaeq	sl!, {r0, sl, fp, ip, pc}^
    1fbc:	620e0000 	andvs	r0, lr, #0, 0
    1fc0:	01006675 	tsteq	r0, r5, ror r6
    1fc4:	086a1581 	stmdaeq	sl!, {r0, r7, r8, sl, ip}^
    1fc8:	0c2e0000 	stceq	0, cr0, [lr], #-0
    1fcc:	0c240000 	stceq	0, cr0, [r4], #-0
    1fd0:	6e0e0000 	cdpvs	0, 0, cr0, cr14, cr0, {0}
    1fd4:	1e810100 	rmfnes	f0, f1, f0
    1fd8:	00000033 	andeq	r0, r0, r3, lsr r0
    1fdc:	00000c7b 	andeq	r0, r0, fp, ror ip
    1fe0:	00000c73 	andeq	r0, r0, r3, ror ip
    1fe4:	746d660e 	strbtvc	r6, [sp], #-1550	; 0xfffff9f2
    1fe8:	2d810100 	stfcss	f0, [r1]
    1fec:	000000b3 	strheq	r0, [r0], -r3
    1ff0:	00000ccd 	andeq	r0, r0, sp, asr #25
    1ff4:	00000cb5 			; <UNDEFINED> instruction: 0x00000cb5
    1ff8:	00053e0f 	andeq	r3, r5, pc, lsl #28
    1ffc:	3a810100 	bcc	fe042404 <__bss_end__+0xfe037654>
    2000:	0000015c 	andeq	r0, r0, ip, asr r1
    2004:	00000d8f 	andeq	r0, r0, pc, lsl #27
    2008:	00000d61 	andeq	r0, r0, r1, ror #26
    200c:	01007010 	tsteq	r0, r0, lsl r0
    2010:	086a0882 	stmdaeq	sl!, {r1, r7, fp}^
    2014:	0ee20000 	cdpeq	0, 14, cr0, cr2, cr0, {0}
    2018:	0ecc0000 	cdpeq	0, 12, cr0, cr12, cr0, {0}
    201c:	65100000 	ldrvs	r0, [r0, #-0]
    2020:	12820100 	addne	r0, r2, #0
    2024:	0000086a 	andeq	r0, r0, sl, ror #16
    2028:	00000f6b 	andeq	r0, r0, fp, ror #30
    202c:	00000f69 	andeq	r0, r0, r9, ror #30
    2030:	00307810 	eorseq	r7, r0, r0, lsl r8
    2034:	640e8301 	strvs	r8, [lr], #-769	; 0xfffffcff
    2038:	84000000 	strhi	r0, [r0], #-0
    203c:	7e00000f 	cdpvc	0, 0, cr0, cr0, cr15, {0}
    2040:	1000000f 	andne	r0, r0, pc
    2044:	01003178 	tsteq	r0, r8, ror r1
    2048:	00641183 	rsbeq	r1, r4, r3, lsl #3
    204c:	0fb30000 	svceq	0x00b30000
    2050:	0fad0000 	svceq	0x00ad0000
    2054:	f6110000 			; <UNDEFINED> instruction: 0xf6110000
    2058:	01000005 	tsteq	r0, r5
    205c:	00b31186 	adcseq	r1, r3, r6, lsl #3
    2060:	0fe40000 	svceq	0x00e40000
    2064:	0fdc0000 	svceq	0x00dc0000
    2068:	73120000 	tstvc	r2, #0, 0
    206c:	80000000 	andhi	r0, r0, r0
    2070:	05000008 	streq	r0, [r0, #-8]
    2074:	00a76003 	adceq	r6, r7, r3
    2078:	00f81300 	rscseq	r1, r8, r0, lsl #6
    207c:	73100000 	tstvc	r0, #0, 0
    2080:	0a910100 	beq	fe442488 <__bss_end__+0xfe4376d8>
    2084:	0000086a 	andeq	r0, r0, sl, ror #16
    2088:	0000102a 	andeq	r1, r0, sl, lsr #32
    208c:	0000101e 	andeq	r1, r0, lr, lsl r0
    2090:	6d756e14 	ldclvs	14, cr6, [r5, #-80]!	; 0xffffffb0
    2094:	0d910100 	ldfeqs	f0, [r1]
    2098:	00000885 	andeq	r0, r0, r5, lsl #17
    209c:	7dd89103 	ldfvcp	f1, [r8, #12]
    20a0:	00064a15 	andeq	r4, r6, r5, lsl sl
    20a4:	17910100 	ldrne	r0, [r1, r0, lsl #2]
    20a8:	00000885 	andeq	r0, r0, r5, lsl #17
    20ac:	7ed89103 	atnvce	f1, f3
    20b0:	0005ca11 	andeq	ip, r5, r1, lsl sl
    20b4:	0d920100 	ldfeqs	f0, [r2]
    20b8:	0000002c 	andeq	r0, r0, ip, lsr #32
    20bc:	0000107c 	andeq	r1, r0, ip, ror r0
    20c0:	00001074 	andeq	r1, r0, r4, ror r0
    20c4:	00012016 	andeq	r2, r1, r6, lsl r0
    20c8:	0004f100 	andeq	pc, r4, r0, lsl #2
    20cc:	79741000 	ldmdbvc	r4!, {ip}^
    20d0:	1d9e0100 	ldfnes	f0, [lr]
    20d4:	000000b3 	strheq	r0, [r0], -r3
    20d8:	000010bd 	strheq	r1, [r0], -sp
    20dc:	000010b1 	strheq	r1, [r0], -r1	; <UNPREDICTABLE>
    20e0:	00787814 	rsbseq	r7, r8, r4, lsl r8
    20e4:	771aa201 	ldrvc	sl, [sl, -r1, lsl #4]
    20e8:	06000000 	streq	r0, [r0], -r0
    20ec:	5b049359 	blpl	126e58 <__bss_end__+0x11c0a8>
    20f0:	9c170493 	cfldrsls	mvf0, [r7], {147}	; 0x93
    20f4:	3a000091 	bcc	2340 <__code_start__-0x5cc0>
    20f8:	d800000c 	stmdale	r0, {r2, r3}
    20fc:	18000002 	stmdane	r0, {r1}
    2100:	76025001 	strvc	r5, [r2], -r1
    2104:	51011800 	tstpl	r1, r0, lsl #16
    2108:	a6540305 	ldrbge	r0, [r4], -r5, lsl #6
    210c:	01180000 	tsteq	r8, r0
    2110:	00330152 	eorseq	r0, r3, r2, asr r1
    2114:	0091b417 	addseq	fp, r1, r7, lsl r4
    2118:	000c3a00 	andeq	r3, ip, r0, lsl #20
    211c:	0002fa00 	andeq	pc, r2, r0, lsl #20
    2120:	50011800 	andpl	r1, r1, r0, lsl #16
    2124:	18007602 	stmdane	r0, {r1, r9, sl, ip, sp, lr}
    2128:	03055101 	movweq	r5, #20737	; 0x5101
    212c:	0000a668 	andeq	sl, r0, r8, ror #12
    2130:	01520118 	cmpeq	r2, r8, lsl r1
    2134:	d8170033 	ldmdale	r7, {r0, r1, r4, r5}
    2138:	46000091 			; <UNDEFINED> instruction: 0x46000091
    213c:	1700000c 	strne	r0, [r0, -ip]
    2140:	18000003 	stmdane	r0, {r0, r1}
    2144:	03055001 	movweq	r5, #20481	; 0x5001
    2148:	0000a658 	andeq	sl, r0, r8, asr r6
    214c:	02510118 	subseq	r0, r1, #6
    2150:	1700007b 	smlsdxne	r0, fp, r0, r0
    2154:	000091e4 	andeq	r9, r0, r4, ror #3
    2158:	00000c46 	andeq	r0, r0, r6, asr #24
    215c:	00000334 	andeq	r0, r0, r4, lsr r3
    2160:	05500118 	ldrbeq	r0, [r0, #-280]	; 0xfffffee8
    2164:	00a66003 	adceq	r6, r6, r3
    2168:	51011800 	tstpl	r1, r0, lsl #16
    216c:	00007902 	andeq	r7, r0, r2, lsl #18
    2170:	0091f417 	addseq	pc, r1, r7, lsl r4	; <UNPREDICTABLE>
    2174:	000c3a00 	andeq	r3, ip, r0, lsl #20
    2178:	00035600 	andeq	r5, r3, r0, lsl #12
    217c:	50011800 	andpl	r1, r1, r0, lsl #16
    2180:	18007602 	stmdane	r0, {r1, r9, sl, ip, sp, lr}
    2184:	03055101 	movweq	r5, #20737	; 0x5101
    2188:	0000a654 	andeq	sl, r0, r4, asr r6
    218c:	01520118 	cmpeq	r2, r8, lsl r1
    2190:	24170033 	ldrcs	r0, [r7], #-51	; 0xffffffcd
    2194:	a4000092 	strge	r0, [r0], #-146	; 0xffffff6e
    2198:	8300000a 	movwhi	r0, #10
    219c:	18000003 	stmdane	r0, {r0, r1}
    21a0:	40015001 	andmi	r5, r1, r1
    21a4:	03510118 	cmpeq	r1, #6
    21a8:	187dd091 	ldmdane	sp!, {r0, r4, r7, ip, lr, pc}^
    21ac:	7b025201 	blvc	969b8 <__bss_end__+0x8bc08>
    21b0:	53011800 	movwpl	r1, #6144	; 0x1800
    21b4:	18007502 	stmdane	r0, {r1, r8, sl, ip, sp, lr}
    21b8:	02007d02 	andeq	r7, r0, #128	; 0x80
    21bc:	17000076 	smlsdxne	r0, r6, r0, r0
    21c0:	00009244 	andeq	r9, r0, r4, asr #4
    21c4:	00000aa4 	andeq	r0, r0, r4, lsr #21
    21c8:	000003aa 	andeq	r0, r0, sl, lsr #7
    21cc:	01500118 	cmpeq	r0, r8, lsl r1
    21d0:	51011840 	tstpl	r1, r0, asr #16
    21d4:	7ed09103 	atnvcs	f1, f3
    21d8:	02520118 	subseq	r0, r2, #6
    21dc:	02180079 	andseq	r0, r8, #121, 0	; 0x79
    21e0:	7602007d 			; <UNDEFINED> instruction: 0x7602007d
    21e4:	54170000 	ldrpl	r0, [r7], #-0
    21e8:	52000092 	andpl	r0, r0, #146, 0	; 0x92
    21ec:	c600000c 	strgt	r0, [r0], -ip
    21f0:	18000003 	stmdane	r0, {r0, r1}
    21f4:	91035001 	tstls	r3, r1
    21f8:	01187dd0 			; <UNDEFINED> instruction: 0x01187dd0
    21fc:	d2910351 	addsle	r0, r1, #1140850689	; 0x44000001
    2200:	9817007e 	ldmdals	r7, {r1, r2, r3, r4, r5, r6}
    2204:	3a000094 	bcc	245c <__code_start__-0x5ba4>
    2208:	e800000c 	stmda	r0, {r2, r3}
    220c:	18000003 	stmdane	r0, {r0, r1}
    2210:	76025001 	strvc	r5, [r2], -r1
    2214:	51011800 	tstpl	r1, r0, lsl #16
    2218:	a6680305 	strbtge	r0, [r8], -r5, lsl #6
    221c:	01180000 	tsteq	r8, r0
    2220:	00330152 	eorseq	r0, r3, r2, asr r1
    2224:	0094bc17 	addseq	fp, r4, r7, lsl ip
    2228:	000aa400 	andeq	sl, sl, r0, lsl #8
    222c:	00041500 	andeq	r1, r4, r0, lsl #10
    2230:	50011800 	andpl	r1, r1, r0, lsl #16
    2234:	01183a01 	tsteq	r8, r1, lsl #20
    2238:	d0910351 	addsle	r0, r1, r1, asr r3
    223c:	5201187d 	andpl	r1, r1, #8192000	; 0x7d0000
    2240:	18007b02 	stmdane	r0, {r1, r8, r9, fp, ip, sp, lr}
    2244:	75025301 	strvc	r5, [r2, #-769]	; 0xfffffcff
    2248:	7d021800 	stcvc	8, cr1, [r2, #-0]
    224c:	00760200 	rsbseq	r0, r6, r0, lsl #4
    2250:	94dc1700 	ldrbls	r1, [ip], #1792	; 0x700
    2254:	0aa40000 	beq	fe90225c <__bss_end__+0xfe8f74ac>
    2258:	043c0000 	ldrteq	r0, [ip], #-0
    225c:	01180000 	tsteq	r8, r0
    2260:	183a0150 	ldmdane	sl!, {r4, r6, r8}
    2264:	91035101 	tstls	r3, r1, lsl #2
    2268:	01187ed0 			; <UNDEFINED> instruction: 0x01187ed0
    226c:	00790252 	rsbseq	r0, r9, r2, asr r2
    2270:	007d0218 	rsbseq	r0, sp, r8, lsl r2
    2274:	00007602 	andeq	r7, r0, r2, lsl #12
    2278:	0094e817 	addseq	lr, r4, r7, lsl r8
    227c:	000c5e00 	andeq	r5, ip, r0, lsl #28
    2280:	00045a00 	andeq	r5, r4, r0, lsl #20
    2284:	50011800 	andpl	r1, r1, r0, lsl #16
    2288:	7dd09103 	ldfvcp	f1, [r0, #12]
    228c:	05510118 	ldrbeq	r0, [r1, #-280]	; 0xfffffee8
    2290:	00a4d803 	adceq	sp, r4, r3, lsl #16
    2294:	fc170000 	ldc2	0, cr0, [r7], {-0}
    2298:	6a000094 	bvs	24f0 <__code_start__-0x5b10>
    229c:	7600000c 	strvc	r0, [r0], -ip
    22a0:	18000004 	stmdane	r0, {r2}
    22a4:	91035001 	tstls	r3, r1
    22a8:	01187dd0 			; <UNDEFINED> instruction: 0x01187dd0
    22ac:	d0910351 	addsle	r0, r1, r1, asr r3
    22b0:	0819007e 	ldmdaeq	r9, {r1, r2, r3, r4, r5, r6}
    22b4:	52000095 	andpl	r0, r0, #149, 0	; 0x95
    22b8:	1700000c 	strne	r0, [r0, -ip]
    22bc:	000095cc 	andeq	r9, r0, ip, asr #11
    22c0:	00000c46 	andeq	r0, r0, r6, asr #24
    22c4:	000004a8 	andeq	r0, r0, r8, lsr #9
    22c8:	05500118 	ldrbeq	r0, [r0, #-280]	; 0xfffffee8
    22cc:	00a1d403 	adceq	sp, r1, r3, lsl #8
    22d0:	51011800 	tstpl	r1, r0, lsl #16
    22d4:	a6080305 	strge	r0, [r8], -r5, lsl #6
    22d8:	01180000 	tsteq	r8, r0
    22dc:	60030552 	andvs	r0, r3, r2, asr r5
    22e0:	000000a7 	andeq	r0, r0, r7, lsr #1
    22e4:	0095d019 	addseq	sp, r5, r9, lsl r0
    22e8:	000c7600 	andeq	r7, ip, r0, lsl #12
    22ec:	95e81700 	strbls	r1, [r8, #1792]!	; 0x700
    22f0:	0c460000 	mareq	acc0, r0, r6
    22f4:	04e70000 	strbteq	r0, [r7], #0
    22f8:	01180000 	tsteq	r8, r0
    22fc:	a8030550 	stmdage	r3, {r4, r6, r8, sl}
    2300:	180000a6 	stmdane	r0, {r1, r2, r5, r7}
    2304:	03055101 	movweq	r5, #20737	; 0x5101
    2308:	0000a608 	andeq	sl, r0, r8, lsl #12
    230c:	05520118 	ldrbeq	r0, [r2, #-280]	; 0xfffffee8
    2310:	00a76003 	adceq	r6, r7, r3
    2314:	53011800 	movwpl	r1, #6144	; 0x1800
    2318:	18b60802 	ldmne	r6!, {r1, fp}
    231c:	02007d02 	andeq	r7, r0, #128	; 0x80
    2320:	19000076 	stmdbne	r0, {r1, r2, r4, r5, r6}
    2324:	000095ec 	andeq	r9, r0, ip, ror #11
    2328:	00000c76 	andeq	r0, r0, r6, ror ip
    232c:	09e31a00 	stmibeq	r3!, {r9, fp, ip}^
    2330:	909c0000 	addsls	r0, ip, r0
    2334:	00040000 	andeq	r0, r4, r0
    2338:	00000148 	andeq	r0, r0, r8, asr #2
    233c:	150a9401 	strne	r9, [sl, #-1025]	; 0xfffffbff
    2340:	1b000005 	blne	235c <__code_start__-0x5ca4>
    2344:	000009f4 	strdeq	r0, [r0], -r4
    2348:	00001119 	andeq	r1, r0, r9, lsl r1
    234c:	00001115 	andeq	r1, r0, r5, lsl r1
    2350:	08951a00 	ldmeq	r5, {r9, fp, ip}
    2354:	92840000 	addls	r0, r4, #0, 0
    2358:	00010000 	andeq	r0, r1, r0
    235c:	00000168 	andeq	r0, r0, r8, ror #2
    2360:	4b09dc01 	blmi	27936c <__bss_end__+0x26e5bc>
    2364:	1b000006 	blne	2384 <__code_start__-0x5c7c>
    2368:	000008be 			; <UNDEFINED> instruction: 0x000008be
    236c:	00001147 	andeq	r1, r0, r7, asr #2
    2370:	00001141 	andeq	r1, r0, r1, asr #2
    2374:	0008e01b 	andeq	lr, r8, fp, lsl r0
    2378:	00117c00 	andseq	r7, r1, r0, lsl #24
    237c:	00117600 	andseq	r7, r1, r0, lsl #12
    2380:	08d41b00 	ldmeq	r4, {r8, r9, fp, ip}^
    2384:	11ae0000 			; <UNDEFINED> instruction: 0x11ae0000
    2388:	11a80000 			; <UNDEFINED> instruction: 0x11a80000
    238c:	c81c0000 	ldmdagt	ip, {}	; <UNPREDICTABLE>
    2390:	1b000008 	blne	23b8 <__code_start__-0x5c48>
    2394:	000008b2 			; <UNDEFINED> instruction: 0x000008b2
    2398:	000011df 	ldrdeq	r1, [r0], -pc	; <UNPREDICTABLE>
    239c:	000011d7 	ldrdeq	r1, [r0], -r7
    23a0:	0008a61b 	andeq	sl, r8, fp, lsl r6
    23a4:	00122200 	andseq	r2, r2, r0, lsl #4
    23a8:	00121c00 	andseq	r1, r2, r0, lsl #24
    23ac:	01681300 	cmneq	r8, r0, lsl #6
    23b0:	ec1d0000 	ldc	0, cr0, [sp], {-0}
    23b4:	03000008 	movweq	r0, #8
    23b8:	1e7ed891 	mrcne	8, 3, sp, cr14, cr1, {4}
    23bc:	000008f8 	strdeq	r0, [r0], -r8
    23c0:	0000125c 	andeq	r1, r0, ip, asr r2
    23c4:	0000124e 	andeq	r1, r0, lr, asr #4
    23c8:	0009021f 	andeq	r0, r9, pc, lsl r2
    23cc:	09a31a00 	stmibeq	r3!, {r9, fp, ip}
    23d0:	92900000 	addsls	r0, r0, #0, 0
    23d4:	00040000 	andeq	r0, r4, r0
    23d8:	00000198 	muleq	r0, r8, r1
    23dc:	e2097c01 	and	r7, r9, #256	; 0x100
    23e0:	1b000005 	blne	23fc <__code_start__-0x5c04>
    23e4:	000009ca 	andeq	r0, r0, sl, asr #19
    23e8:	000012c6 	andeq	r1, r0, r6, asr #5
    23ec:	000012c0 	andeq	r1, r0, r0, asr #5
    23f0:	0009be1b 	andeq	fp, r9, fp, lsl lr
    23f4:	0012fb00 	andseq	pc, r2, r0, lsl #22
    23f8:	0012ef00 	andseq	lr, r2, r0, lsl #30
    23fc:	09b41b00 	ldmibeq	r4!, {r8, r9, fp, ip}
    2400:	13610000 	cmnne	r1, #0, 0
    2404:	13510000 	cmpne	r1, #0, 0
    2408:	98130000 	ldmdals	r3, {}	; <UNPREDICTABLE>
    240c:	1e000001 	cdpne	0, 0, cr0, cr0, cr1, {0}
    2410:	000009d6 	ldrdeq	r0, [r0], -r6
    2414:	000013de 	ldrdeq	r1, [r0], -lr
    2418:	000013d0 	ldrdeq	r1, [r0], -r0
    241c:	4f200000 	svcmi	0x00200000
    2420:	58000009 	stmdapl	r0, {r0, r3}
    2424:	02000093 	andeq	r0, r0, #147, 0	; 0x93
    2428:	0001c800 	andeq	ip, r1, r0, lsl #16
    242c:	097c0100 	ldmdbeq	ip!, {r8}^
    2430:	0009801b 	andeq	r8, r9, fp, lsl r0
    2434:	00143e00 	andseq	r3, r4, r0, lsl #28
    2438:	00143800 	andseq	r3, r4, r0, lsl #16
    243c:	09761b00 	ldmdbeq	r6!, {r8, r9, fp, ip}^
    2440:	14740000 	ldrbtne	r0, [r4], #-0
    2444:	146a0000 	strbtne	r0, [sl], #-0
    2448:	6c1b0000 	ldcvs	0, cr0, [fp], {-0}
    244c:	c3000009 	movwgt	r0, #9
    2450:	bf000014 	svclt	0x00000014
    2454:	1b000014 	blne	24ac <__code_start__-0x5b54>
    2458:	00000960 	andeq	r0, r0, r0, ror #18
    245c:	000014f3 	strdeq	r1, [r0], -r3
    2460:	000014e5 	andeq	r1, r0, r5, ror #9
    2464:	0001c813 	andeq	ip, r1, r3, lsl r8
    2468:	098c1e00 	stmibeq	ip, {r9, sl, fp, ip}
    246c:	15580000 	ldrbne	r0, [r8, #-0]
    2470:	15560000 	ldrbne	r0, [r6, #-0]
    2474:	981e0000 	ldmdals	lr, {}	; <UNPREDICTABLE>
    2478:	72000009 	andvc	r0, r0, #9, 0
    247c:	6c000015 	stcvs	0, cr0, [r0], {21}
    2480:	00000015 	andeq	r0, r0, r5, lsl r0
    2484:	1a000000 	bne	248c <__code_start__-0x5b74>
    2488:	00000895 	muleq	r0, r5, r8
    248c:	00009394 	muleq	r0, r4, r3
    2490:	01f80000 	mvnseq	r0, r0
    2494:	d6010000 	strle	r0, [r1], -r0
    2498:	00078909 	andeq	r8, r7, r9, lsl #18
    249c:	08be1b00 	ldmeq	lr!, {r8, r9, fp, ip}
    24a0:	15a50000 	strne	r0, [r5, #0]!
    24a4:	15a10000 	strne	r0, [r1, #0]!
    24a8:	e01b0000 	ands	r0, fp, r0
    24ac:	cb000008 	blgt	24d4 <__code_start__-0x5b2c>
    24b0:	c7000015 	smladgt	r0, r5, r0, r0
    24b4:	1b000015 	blne	2510 <__code_start__-0x5af0>
    24b8:	000008d4 	ldrdeq	r0, [r0], -r4
    24bc:	000015ef 	andeq	r1, r0, pc, ror #11
    24c0:	000015eb 	andeq	r1, r0, fp, ror #11
    24c4:	0008c81c 	andeq	ip, r8, ip, lsl r8
    24c8:	08b21b00 	ldmeq	r2!, {r8, r9, fp, ip}
    24cc:	16130000 	ldrne	r0, [r3], -r0
    24d0:	160d0000 	strne	r0, [sp], -r0
    24d4:	a61b0000 	ldrge	r0, [fp], -r0
    24d8:	46000008 	strmi	r0, [r0], -r8
    24dc:	42000016 	andmi	r0, r0, #22, 0
    24e0:	13000016 	movwne	r0, #22
    24e4:	000001f8 	strdeq	r0, [r0], -r8
    24e8:	0008ec1d 	andeq	lr, r8, sp, lsl ip
    24ec:	d8910300 	ldmle	r1, {r8, r9}
    24f0:	08f81e7e 	ldmeq	r8!, {r1, r2, r3, r4, r5, r6, r9, sl, fp, ip}^
    24f4:	16700000 	ldrbtne	r0, [r0], -r0
    24f8:	16660000 	strbtne	r0, [r6], -r0
    24fc:	021e0000 	andseq	r0, lr, #0, 0
    2500:	b5000009 	strlt	r0, [r0, #-9]
    2504:	b1000016 	tstlt	r0, r6, lsl r0
    2508:	1a000016 	bne	2568 <__code_start__-0x5a98>
    250c:	000009a3 	andeq	r0, r0, r3, lsr #19
    2510:	000093b0 			; <UNDEFINED> instruction: 0x000093b0
    2514:	02180003 	andseq	r0, r8, #3, 0
    2518:	7c010000 	stcvc	0, cr0, [r1], {-0}
    251c:	00072009 	andeq	r2, r7, r9
    2520:	09ca1b00 	stmibeq	sl, {r8, r9, fp, ip}^
    2524:	16d70000 	ldrbne	r0, [r7], r0
    2528:	16d30000 	ldrbne	r0, [r3], r0
    252c:	be1b0000 	cdplt	0, 1, cr0, cr11, cr0, {0}
    2530:	f9000009 			; <UNDEFINED> instruction: 0xf9000009
    2534:	f5000016 			; <UNDEFINED> instruction: 0xf5000016
    2538:	1b000016 	blne	2598 <__code_start__-0x5a68>
    253c:	000009b4 			; <UNDEFINED> instruction: 0x000009b4
    2540:	00001723 	andeq	r1, r0, r3, lsr #14
    2544:	00001717 	andeq	r1, r0, r7, lsl r7
    2548:	00021813 	andeq	r1, r2, r3, lsl r8
    254c:	09d61e00 	ldmibeq	r6, {r9, sl, fp, ip}^
    2550:	177f0000 	ldrbne	r0, [pc, -r0]!
    2554:	17730000 	ldrbne	r0, [r3, -r0]!
    2558:	00000000 	andeq	r0, r0, r0
    255c:	00094f20 	andeq	r4, r9, r0, lsr #30
    2560:	00943800 	addseq	r3, r4, r0, lsl #16
    2564:	40000200 	andmi	r0, r0, r0, lsl #4
    2568:	01000002 	tsteq	r0, r2
    256c:	801b097c 	andshi	r0, fp, ip, ror r9
    2570:	cf000009 	svcgt	0x00000009
    2574:	cb000017 	blgt	25d8 <__code_start__-0x5a28>
    2578:	1b000017 	blne	25dc <__code_start__-0x5a24>
    257c:	00000976 	andeq	r0, r0, r6, ror r9
    2580:	000017f7 	strdeq	r1, [r0], -r7
    2584:	000017ed 	andeq	r1, r0, sp, ror #15
    2588:	00096c1b 	andeq	r6, r9, fp, lsl ip
    258c:	00184300 	andseq	r4, r8, r0, lsl #6
    2590:	00183f00 	andseq	r3, r8, r0, lsl #30
    2594:	09601b00 	stmdbeq	r0!, {r8, r9, fp, ip}^
    2598:	18710000 	ldmdane	r1!, {}^	; <UNPREDICTABLE>
    259c:	18650000 	stmdane	r5!, {}^	; <UNPREDICTABLE>
    25a0:	40130000 	andsmi	r0, r3, r0
    25a4:	1e000002 	cdpne	0, 0, cr0, cr0, cr2, {0}
    25a8:	0000098c 	andeq	r0, r0, ip, lsl #19
    25ac:	000018cb 	andeq	r1, r0, fp, asr #17
    25b0:	000018c7 	andeq	r1, r0, r7, asr #17
    25b4:	0009981e 	andeq	r9, r9, lr, lsl r8
    25b8:	0018f100 	andseq	pc, r8, r0, lsl #2
    25bc:	0018ed00 	andseq	lr, r8, r0, lsl #26
    25c0:	00000000 	andeq	r0, r0, r0
    25c4:	91641700 	cmnls	r4, r0, lsl #14
    25c8:	0aa40000 	beq	fe9025d0 <__bss_end__+0xfe8f7820>
    25cc:	07af0000 	streq	r0, [pc, r0]!
    25d0:	01180000 	tsteq	r8, r0
    25d4:	18400150 	stmdane	r0, {r4, r6, r8}^
    25d8:	91035101 	tstls	r3, r1, lsl #2
    25dc:	01187dd0 			; <UNDEFINED> instruction: 0x01187dd0
    25e0:	00750253 	rsbseq	r0, r5, r3, asr r2
    25e4:	007d0218 	rsbseq	r0, sp, r8, lsl r2
    25e8:	17003001 	strne	r3, [r0, -r1]
    25ec:	00009274 	andeq	r9, r0, r4, ror r2
    25f0:	00000aa4 	andeq	r0, r0, r4, lsr #21
    25f4:	000007cf 	andeq	r0, r0, pc, asr #15
    25f8:	01500118 	cmpeq	r0, r8, lsl r1
    25fc:	5101183a 	tstpl	r1, sl, lsr r8
    2600:	7dd09103 	ldfvcp	f1, [r0, #12]
    2604:	02530118 	subseq	r0, r3, #6
    2608:	17000075 	smlsdxne	r0, r5, r0, r0
    260c:	00009558 	andeq	r9, r0, r8, asr r5
    2610:	00000c46 	andeq	r0, r0, r6, asr #24
    2614:	000007e6 	andeq	r0, r0, r6, ror #15
    2618:	05500118 	ldrbeq	r0, [r0, #-280]	; 0xfffffee8
    261c:	00a6f803 	adceq	pc, r6, r3, lsl #16
    2620:	68210000 	stmdavs	r1!, {}	; <UNPREDICTABLE>
    2624:	f8000095 			; <UNDEFINED> instruction: 0xf8000095
    2628:	18000007 	stmdane	r0, {r0, r1, r2}
    262c:	91045001 	tstls	r4, r1
    2630:	00067dc8 	andeq	r7, r6, r8, asr #27
    2634:	00957c17 	addseq	r7, r5, r7, lsl ip
    2638:	000c4600 	andeq	r4, ip, r0, lsl #12
    263c:	00082700 	andeq	r2, r8, r0, lsl #14
    2640:	50011800 	andpl	r1, r1, r0, lsl #16
    2644:	a7280305 	strge	r0, [r8, -r5, lsl #6]!
    2648:	01180000 	tsteq	r8, r0
    264c:	08030551 	stmdaeq	r3, {r0, r4, r6, r8, sl}
    2650:	180000a6 	stmdane	r0, {r1, r2, r5, r7}
    2654:	03055201 	movweq	r5, #20993	; 0x5201
    2658:	0000a760 	andeq	sl, r0, r0, ror #14
    265c:	02530118 	subseq	r0, r3, #6
    2660:	1900e208 	stmdbne	r0, {r3, r9, sp, lr, pc}
    2664:	00009580 	andeq	r9, r0, r0, lsl #11
    2668:	00000c76 	andeq	r0, r0, r6, ror ip
    266c:	00959417 	addseq	r9, r5, r7, lsl r4
    2670:	000c4600 	andeq	r4, ip, r0, lsl #12
    2674:	00085f00 	andeq	r5, r8, r0, lsl #30
    2678:	50011800 	andpl	r1, r1, r0, lsl #16
    267c:	a6d00305 	ldrbge	r0, [r0], r5, lsl #6
    2680:	01180000 	tsteq	r8, r0
    2684:	08030551 	stmdaeq	r3, {r0, r4, r6, r8, sl}
    2688:	180000a6 	stmdane	r0, {r1, r2, r5, r7}
    268c:	03055201 	movweq	r5, #20993	; 0x5201
    2690:	0000a760 	andeq	sl, r0, r0, ror #14
    2694:	02530118 	subseq	r0, r3, #6
    2698:	1900be08 	stmdbne	r0, {r3, r9, sl, fp, ip, sp, pc}
    269c:	00009598 	muleq	r0, r8, r5
    26a0:	00000c76 	andeq	r0, r0, r6, ror ip
    26a4:	04080000 	streq	r0, [r8], #-0
    26a8:	000000b9 	strheq	r0, [r0], -r9
    26ac:	0000c022 	andeq	ip, r0, r2, lsr #32
    26b0:	00088000 	andeq	r8, r8, r0
    26b4:	002c2300 	eoreq	r2, ip, r0, lsl #6
    26b8:	00090000 	andeq	r0, r9, r0
    26bc:	00087009 	andeq	r7, r8, r9
    26c0:	00b92200 	adcseq	r2, r9, r0, lsl #4
    26c4:	08950000 	ldmeq	r5, {}	; <UNPREDICTABLE>
    26c8:	2c230000 	stccs	0, cr0, [r3], #-0
    26cc:	7f000000 	svcvc	0x00000000
    26d0:	06212400 	strteq	r2, [r1], -r0, lsl #8
    26d4:	49010000 	stmdbmi	r1, {}	; <UNPREDICTABLE>
    26d8:	00086a01 	andeq	r6, r8, r1, lsl #20
    26dc:	092a0100 	stmdbeq	sl!, {r8}
    26e0:	f6250000 			; <UNDEFINED> instruction: 0xf6250000
    26e4:	01000002 	tsteq	r0, r2
    26e8:	002c0f49 	eoreq	r0, ip, r9, asr #30
    26ec:	64260000 	strtvs	r0, [r6], #-0
    26f0:	01007473 	tsteq	r0, r3, ror r4
    26f4:	086a1b49 	stmdaeq	sl!, {r0, r3, r6, r8, r9, fp, ip}^
    26f8:	6e260000 	cdpvs	0, 2, cr0, cr6, cr0, {0}
    26fc:	24490100 	strbcs	r0, [r9], #-256	; 0xffffff00
    2700:	00000033 	andeq	r0, r0, r3, lsr r0
    2704:	6c617626 	stclvs	6, cr7, [r1], #-152	; 0xffffff68
    2708:	2b490100 	blcs	1242b10 <__bss_end__+0x1237d60>
    270c:	00000033 	andeq	r0, r0, r3, lsr r0
    2710:	0005ca25 	andeq	ip, r5, r5, lsr #20
    2714:	34490100 	strbcc	r0, [r9], #-256	; 0xffffff00
    2718:	00000033 	andeq	r0, r0, r3, lsr r0
    271c:	00065725 	andeq	r5, r6, r5, lsr #14
    2720:	3f490100 	svccc	0x00490100
    2724:	00000033 	andeq	r0, r0, r3, lsr r0
    2728:	66756227 	ldrbtvs	r6, [r5], -r7, lsr #4
    272c:	074e0100 	strbeq	r0, [lr, -r0, lsl #2]
    2730:	0000092a 	andeq	r0, r0, sl, lsr #18
    2734:	01007027 	tsteq	r0, r7, lsr #32
    2738:	086a114e 	stmdaeq	sl!, {r1, r2, r3, r6, r8, ip}^
    273c:	75270000 	strvc	r0, [r7, #-0]!
    2740:	0b4f0100 	bleq	13c2b48 <__bss_end__+0x13b7d98>
    2744:	0000002c 	andeq	r0, r0, ip, lsr #32
    2748:	00007312 	andeq	r7, r0, r2, lsl r3
    274c:	00094a00 	andeq	r4, r9, r0, lsl #20
    2750:	48030500 	stmdami	r3, {r8, sl}
    2754:	280000a7 	stmdacs	r0, {r0, r1, r2, r5, r7}
    2758:	00060e29 	andeq	r0, r6, r9, lsr #28
    275c:	0d540100 	ldfeqe	f0, [r4, #-0]
    2760:	0000002c 	andeq	r0, r0, ip, lsr #32
    2764:	b9220000 	stmdblt	r2!, {}	; <UNPREDICTABLE>
    2768:	3a000000 	bcc	2770 <__code_start__-0x5890>
    276c:	23000009 	movwcs	r0, #9
    2770:	0000002c 	andeq	r0, r0, ip, lsr #32
    2774:	c022003f 	eorgt	r0, r2, pc, lsr r0
    2778:	4a000000 	bmi	2780 <__code_start__-0x5880>
    277c:	23000009 	movwcs	r0, #9
    2780:	0000002c 	andeq	r0, r0, ip, lsr #32
    2784:	3a090004 	bcc	24279c <__bss_end__+0x2379ec>
    2788:	24000009 	strcs	r0, [r0], #-9
    278c:	00000626 	andeq	r0, r0, r6, lsr #12
    2790:	6a0e3801 	bvs	39079c <__bss_end__+0x3859ec>
    2794:	01000008 	tsteq	r0, r8
    2798:	000009a3 	andeq	r0, r0, r3, lsr #19
    279c:	74736426 	ldrbtvc	r6, [r3], #-1062	; 0xfffffbda
    27a0:	1c380100 	ldfnes	f0, [r8], #-0
    27a4:	0000086a 	andeq	r0, r0, sl, ror #16
    27a8:	01006e26 	tsteq	r0, r6, lsr #28
    27ac:	00332538 	eorseq	r2, r3, r8, lsr r5
    27b0:	70260000 	eorvc	r0, r6, r0
    27b4:	2e380100 	rsfcse	f0, f0, f0
    27b8:	0000086a 	andeq	r0, r0, sl, ror #16
    27bc:	0009f125 	andeq	pc, r9, r5, lsr #2
    27c0:	37380100 	ldrcc	r0, [r8, -r0, lsl #2]!
    27c4:	0000086a 	andeq	r0, r0, sl, ror #16
    27c8:	6e656c27 	cdpvs	12, 6, cr6, cr5, cr7, {1}
    27cc:	063a0100 	ldrteq	r0, [sl], -r0, lsl #2
    27d0:	00000033 	andeq	r0, r0, r3, lsr r0
    27d4:	01007327 	tsteq	r0, r7, lsr #6
    27d8:	086a083e 	stmdaeq	sl!, {r1, r2, r3, r4, r5, fp}^
    27dc:	2a000000 	bcs	27e4 <__code_start__-0x581c>
    27e0:	00646170 	rsbeq	r6, r4, r0, ror r1
    27e4:	6a0e2e01 	bvs	38dff0 <__bss_end__+0x383240>
    27e8:	01000008 	tsteq	r0, r8
    27ec:	000009e3 	andeq	r0, r0, r3, ror #19
    27f0:	01007026 	tsteq	r0, r6, lsr #32
    27f4:	086a182e 	stmdaeq	sl!, {r1, r2, r3, r5, fp, ip}^
    27f8:	f6250000 			; <UNDEFINED> instruction: 0xf6250000
    27fc:	01000002 	tsteq	r0, r2
    2800:	086a222e 	stmdaeq	sl!, {r1, r2, r3, r5, r9, sp}^
    2804:	ca250000 	bgt	94280c <__bss_end__+0x937a5c>
    2808:	01000005 	tsteq	r0, r5
    280c:	00332c2e 	eorseq	r2, r3, lr, lsr #24
    2810:	6c270000 	stcvs	0, cr0, [r7], #-0
    2814:	01006e65 	tsteq	r0, r5, ror #28
    2818:	0033062f 	eorseq	r0, r3, pc, lsr #12
    281c:	24000000 	strcs	r0, [r0], #-0
    2820:	00000597 	muleq	r0, r7, r5
    2824:	330c2701 	movwcc	r2, #50945	; 0xc701
    2828:	01000000 	mrseq	r0, (UNDEF: 0)
    282c:	000009ff 	strdeq	r0, [r0], -pc	; <UNPREDICTABLE>
    2830:	01006326 	tsteq	r0, r6, lsr #6
    2834:	00331827 	eorseq	r1, r3, r7, lsr #16
    2838:	2b000000 	blcs	2840 <__code_start__-0x57c0>
    283c:	000005e7 	andeq	r0, r0, r7, ror #11
    2840:	b0061f01 	andlt	r1, r6, r1, lsl #30
    2844:	6000008f 	andvs	r0, r0, pc, lsl #1
    2848:	01000000 	mrseq	r0, (UNDEF: 0)
    284c:	000a8f9c 	muleq	sl, ip, pc	; <UNPREDICTABLE>
    2850:	05d00f00 	ldrbeq	r0, [r0, #3840]	; 0xf00
    2854:	1f010000 	svcne	0x00010000
    2858:	00009e1b 	andeq	r9, r0, fp, lsl lr
    285c:	00191600 	andseq	r1, r9, r0, lsl #12
    2860:	00191200 	andseq	r1, r9, r0, lsl #4
    2864:	06350f00 	ldrteq	r0, [r5], -r0, lsl #30
    2868:	1f010000 	svcne	0x00010000
    286c:	0000d130 	andeq	sp, r0, r0, lsr r1
    2870:	00193b00 	andseq	r3, r9, r0, lsl #22
    2874:	00193700 	andseq	r3, r9, r0, lsl #14
    2878:	00731200 	rsbseq	r1, r3, r0, lsl #4
    287c:	0a9f0000 	beq	fe7c2884 <__bss_end__+0xfe7b7ad4>
    2880:	03050000 	movweq	r0, #20480	; 0x5000
    2884:	0000a750 	andeq	sl, r0, r0, asr r7
    2888:	008ff417 	addeq	pc, pc, r7, lsl r4	; <UNPREDICTABLE>
    288c:	000c4600 	andeq	r4, ip, r0, lsl #12
    2890:	000a8500 	andeq	r8, sl, r0, lsl #10
    2894:	50011800 	andpl	r1, r1, r0, lsl #16
    2898:	a1d40305 	bicsge	r0, r4, r5, lsl #6
    289c:	01180000 	tsteq	r8, r0
    28a0:	08030551 	stmdaeq	r3, {r0, r4, r6, r8, sl}
    28a4:	180000a6 	stmdane	r0, {r1, r2, r5, r7}
    28a8:	03055201 	movweq	r5, #20993	; 0x5201
    28ac:	0000a750 	andeq	sl, r0, r0, asr r7
    28b0:	02530118 	subseq	r0, r3, #6
    28b4:	02182008 	andseq	r2, r8, #8, 0
    28b8:	0305007d 	movweq	r0, #20605	; 0x507d
    28bc:	0000a640 	andeq	sl, r0, r0, asr #12
    28c0:	8ff81900 	svchi	0x00f81900
    28c4:	0c760000 	ldcleq	0, cr0, [r6], #-0
    28c8:	22000000 	andcs	r0, r0, #0, 0
    28cc:	000000c0 	andeq	r0, r0, r0, asr #1
    28d0:	00000a9f 	muleq	r0, pc, sl	; <UNPREDICTABLE>
    28d4:	00002c23 	andeq	r2, r0, r3, lsr #24
    28d8:	09000e00 	stmdbeq	r0, {r9, sl, fp}
    28dc:	00000a8f 	andeq	r0, r0, pc, lsl #21
    28e0:	0008952c 	andeq	r9, r8, ip, lsr #10
    28e4:	008c8800 	addeq	r8, ip, r0, lsl #16
    28e8:	00032800 	andeq	r2, r3, r0, lsl #16
    28ec:	3a9c0100 	bcc	fe702cf4 <__bss_end__+0xfe6f7f44>
    28f0:	1b00000c 	blne	2928 <__code_start__-0x56d8>
    28f4:	000008a6 	andeq	r0, r0, r6, lsr #17
    28f8:	00001974 	andeq	r1, r0, r4, ror r9
    28fc:	0000195c 	andeq	r1, r0, ip, asr r9
    2900:	0008b21b 	andeq	fp, r8, fp, lsl r2
    2904:	001a1e00 	andseq	r1, sl, r0, lsl #28
    2908:	001a1600 	andseq	r1, sl, r0, lsl #12
    290c:	08c81b00 	stmiaeq	r8, {r8, r9, fp, ip}^
    2910:	1a750000 	bne	1d42918 <__bss_end__+0x1d37b68>
    2914:	1a550000 	bne	154291c <__bss_end__+0x1537b6c>
    2918:	d41b0000 	ldrle	r0, [fp], #-0
    291c:	4b000008 	blmi	2944 <__code_start__-0x56bc>
    2920:	3d00001b 	stccc	0, cr0, [r0, #-108]	; 0xffffff94
    2924:	2d00001b 	stccs	0, cr0, [r0, #-108]	; 0xffffff94
    2928:	000008e0 	andeq	r0, r0, r0, ror #17
    292c:	1d009102 	stfned	f1, [r0, #-8]
    2930:	000008ec 	andeq	r0, r0, ip, ror #17
    2934:	7fa89103 	svcvc	0x00a89103
    2938:	0008f81e 	andeq	pc, r8, lr, lsl r8	; <UNPREDICTABLE>
    293c:	001bdf00 	andseq	sp, fp, r0, lsl #30
    2940:	001bab00 	andseq	sl, fp, r0, lsl #22
    2944:	09021e00 	stmdbeq	r2, {r9, sl, fp, ip}
    2948:	1d460000 	stclne	0, cr0, [r6, #-0]
    294c:	1d240000 	stcne	0, cr0, [r4, #-0]
    2950:	be2e0000 	cdplt	0, 2, cr0, cr14, cr0, {0}
    2954:	80000008 	andhi	r0, r0, r8
    2958:	0009a31a 	andeq	sl, r9, sl, lsl r3
    295c:	008d2c00 	addeq	r2, sp, r0, lsl #24
    2960:	90000400 	andls	r0, r0, r0, lsl #8
    2964:	01000000 	mrseq	r0, (UNDEF: 0)
    2968:	0b6d097c 	bleq	1b44f60 <__bss_end__+0x1b3a1b0>
    296c:	ca1b0000 	bgt	6c2974 <__bss_end__+0x6b7bc4>
    2970:	2e000009 	cdpcs	0, 0, cr0, cr0, cr9, {0}
    2974:	2400001e 	strcs	r0, [r0], #-30	; 0xffffffe2
    2978:	1b00001e 	blne	29f8 <__code_start__-0x5608>
    297c:	000009be 			; <UNDEFINED> instruction: 0x000009be
    2980:	00001e82 	andeq	r1, r0, r2, lsl #29
    2984:	00001e72 	andeq	r1, r0, r2, ror lr
    2988:	0009b41b 	andeq	fp, r9, fp, lsl r4
    298c:	001f0200 	andseq	r0, pc, r0, lsl #4
    2990:	001eee00 	andseq	lr, lr, r0, lsl #28
    2994:	00901300 	addseq	r1, r0, r0, lsl #6
    2998:	d61e0000 	ldrle	r0, [lr], -r0
    299c:	94000009 	strls	r0, [r0], #-9
    29a0:	8400001f 	strhi	r0, [r0], #-31	; 0xffffffe1
    29a4:	0000001f 	andeq	r0, r0, pc, lsl r0
    29a8:	094f1a00 	stmdbeq	pc, {r9, fp, ip}^	; <UNPREDICTABLE>
    29ac:	8de40000 	stclhi	0, cr0, [r4]
    29b0:	00020000 	andeq	r0, r2, r0
    29b4:	000000d8 	ldrdeq	r0, [r0], -r8
    29b8:	d8097c01 	stmdale	r9, {r0, sl, fp, ip, sp, lr}
    29bc:	1b00000b 	blne	29f0 <__code_start__-0x5610>
    29c0:	00000980 	andeq	r0, r0, r0, lsl #19
    29c4:	00002000 	andeq	r2, r0, r0
    29c8:	00001ff8 	strdeq	r1, [r0], -r8
    29cc:	0009761b 	andeq	r7, r9, fp, lsl r6
    29d0:	00203f00 	eoreq	r3, r0, r0, lsl #30
    29d4:	00203700 	eoreq	r3, r0, r0, lsl #14
    29d8:	096c1b00 	stmdbeq	ip!, {r8, r9, fp, ip}^
    29dc:	207e0000 	rsbscs	r0, lr, r0
    29e0:	207a0000 	rsbscs	r0, sl, r0
    29e4:	601b0000 	andsvs	r0, fp, r0
    29e8:	ae000009 	cdpge	0, 0, cr0, cr0, cr9, {0}
    29ec:	a0000020 	andge	r0, r0, r0, lsr #32
    29f0:	13000020 	movwne	r0, #32
    29f4:	000000d8 	ldrdeq	r0, [r0], -r8
    29f8:	00098c1e 	andeq	r8, r9, lr, lsl ip
    29fc:	00211300 	eoreq	r1, r1, r0, lsl #6
    2a00:	00210d00 	eoreq	r0, r1, r0, lsl #26
    2a04:	09981e00 	ldmibeq	r8, {r9, sl, fp, ip}
    2a08:	21450000 	mrscs	r0, (UNDEF: 69)
    2a0c:	21410000 	mrscs	r0, (UNDEF: 65)
    2a10:	00000000 	andeq	r0, r0, r0
    2a14:	00091b2f 	andeq	r1, r9, pc, lsr #22
    2a18:	008e9c00 	addeq	r9, lr, r0, lsl #24
    2a1c:	00006000 	andeq	r6, r0, r0
    2a20:	000bf700 	andeq	pc, fp, r0, lsl #14
    2a24:	091c1e00 	ldmdbeq	ip, {r9, sl, fp, ip}
    2a28:	21670000 	cmncs	r7, r0
    2a2c:	21630000 	cmncs	r3, r0
    2a30:	17000000 	strne	r0, [r0, -r0]
    2a34:	00008f70 	andeq	r8, r0, r0, ror pc
    2a38:	00000c46 	andeq	r0, r0, r6, asr #24
    2a3c:	00000c30 	andeq	r0, r0, r0, lsr ip
    2a40:	05500118 	ldrbeq	r0, [r0, #-280]	; 0xfffffee8
    2a44:	00a1d403 	adceq	sp, r1, r3, lsl #8
    2a48:	51011800 	tstpl	r1, r0, lsl #16
    2a4c:	a6080305 	strge	r0, [r8], -r5, lsl #6
    2a50:	01180000 	tsteq	r8, r0
    2a54:	48030552 	stmdami	r3, {r1, r4, r6, r8, sl}
    2a58:	180000a7 	stmdane	r0, {r0, r1, r2, r5, r7}
    2a5c:	08025301 	stmdaeq	r2, {r0, r8, r9, ip, lr}
    2a60:	7d021879 	stcvc	8, cr1, [r2, #-484]	; 0xfffffe1c
    2a64:	d8030500 	stmdale	r3, {r8, sl}
    2a68:	000000a4 	andeq	r0, r0, r4, lsr #1
    2a6c:	008f7419 	addeq	r7, pc, r9, lsl r4	; <UNPREDICTABLE>
    2a70:	000c7600 	andeq	r7, ip, r0, lsl #12
    2a74:	4f300000 	svcmi	0x00300000
    2a78:	4f000006 	svcmi	0x00000006
    2a7c:	03000006 	movweq	r0, #6
    2a80:	463005eb 	ldrtmi	r0, [r0], -fp, ror #11
    2a84:	46000005 	strmi	r0, [r0], -r5
    2a88:	03000005 	movweq	r0, #5
    2a8c:	00300628 	eorseq	r0, r0, r8, lsr #12
    2a90:	00000006 	andeq	r0, r0, r6
    2a94:	03000006 	movweq	r0, #6
    2a98:	2e3007ee 	cdpcs	7, 3, cr0, cr0, cr14, {7}
    2a9c:	2e000006 	cdpcs	0, 0, cr0, cr0, cr6, {0}
    2aa0:	03000006 	movweq	r0, #6
    2aa4:	073005ea 	ldreq	r0, [r0, -sl, ror #11]!
    2aa8:	07000006 	streq	r0, [r0, -r6]
    2aac:	03000006 	movweq	r0, #6
    2ab0:	253007ed 	ldrcs	r0, [r0, #-2029]!	; 0xfffff813
    2ab4:	25000002 	strcs	r0, [r0, #-2]
    2ab8:	03000002 	movweq	r0, #2
    2abc:	2f00066e 	svccs	0x0000066e
    2ac0:	04000001 	streq	r0, [r0], #-1
    2ac4:	000de200 	andeq	lr, sp, r0, lsl #4
    2ac8:	64010400 	strvs	r0, [r1], #-1024	; 0xfffffc00
    2acc:	0c000004 	stceq	0, cr0, [r0], {4}
    2ad0:	00000674 	andeq	r0, r0, r4, ror r6
    2ad4:	0000051c 	andeq	r0, r0, ip, lsl r5
    2ad8:	0000963c 	andeq	r9, r0, ip, lsr r6
    2adc:	0000002c 	andeq	r0, r0, ip, lsr #32
    2ae0:	00001750 	andeq	r1, r0, r0, asr r7
    2ae4:	69050402 	stmdbvs	r5, {r1, sl}
    2ae8:	0300746e 	movweq	r7, #1134	; 0x46e
    2aec:	00970704 	addseq	r0, r7, r4, lsl #14
    2af0:	01030000 	mrseq	r0, (UNDEF: 3)
    2af4:	00004806 	andeq	r4, r0, r6, lsl #16
    2af8:	05020300 	streq	r0, [r2, #-768]	; 0xfffffd00
    2afc:	000000e4 	andeq	r0, r0, r4, ror #1
    2b00:	a9050403 	stmdbge	r5, {r0, r1, sl}
    2b04:	03000000 	movweq	r0, #0
    2b08:	00a40508 	adceq	r0, r4, r8, lsl #10
    2b0c:	01030000 	mrseq	r0, (UNDEF: 3)
    2b10:	00004608 	andeq	r4, r0, r8, lsl #12
    2b14:	07020300 	streq	r0, [r2, -r0, lsl #6]
    2b18:	00000054 	andeq	r0, r0, r4, asr r0
    2b1c:	92070403 	andls	r0, r7, #50331648	; 0x3000000
    2b20:	03000000 	movweq	r0, #0
    2b24:	008d0708 	addeq	r0, sp, r8, lsl #14
    2b28:	25040000 	strcs	r0, [r4, #-0]
    2b2c:	7a000000 	bvc	2b34 <__code_start__-0x54cc>
    2b30:	05000000 	streq	r0, [r0, #-0]
    2b34:	00000025 	andeq	r0, r0, r5, lsr #32
    2b38:	00f80600 	rscseq	r0, r8, r0, lsl #12
    2b3c:	1c020000 	stcne	0, cr0, [r2], {-0}
    2b40:	0000860e 	andeq	r8, r0, lr, lsl #12
    2b44:	6b040700 	blvs	10474c <__bss_end__+0xf999c>
    2b48:	04000000 	streq	r0, [r0], #-0
    2b4c:	00000025 	andeq	r0, r0, r5, lsr #32
    2b50:	0000009b 	muleq	r0, fp, r0
    2b54:	00009b05 	andeq	r9, r0, r5, lsl #22
    2b58:	04070000 	streq	r0, [r7], #-0
    2b5c:	000000a8 	andeq	r0, r0, r8, lsr #1
    2b60:	4f080103 	svcmi	0x00080103
    2b64:	08000000 	stmdaeq	r0, {}	; <UNPREDICTABLE>
    2b68:	000000a1 	andeq	r0, r0, r1, lsr #1
    2b6c:	00058406 	andeq	r8, r5, r6, lsl #8
    2b70:	0e210200 	cdpeq	2, 2, cr0, cr1, cr0, {0}
    2b74:	000000b9 	strheq	r0, [r0], -r9
    2b78:	008c0407 	addeq	r0, ip, r7, lsl #8
    2b7c:	25090000 	strcs	r0, [r9, #-0]
    2b80:	01000002 	tsteq	r0, r2
    2b84:	963c0604 	ldrtls	r0, [ip], -r4, lsl #12
    2b88:	002c0000 	eoreq	r0, ip, r0
    2b8c:	9c010000 	stcls	0, cr0, [r1], {-0}
    2b90:	0000010e 	andeq	r0, r0, lr, lsl #2
    2b94:	0096500a 	addseq	r5, r6, sl
    2b98:	0000e800 	andeq	lr, r0, r0, lsl #16
    2b9c:	50010b00 	andpl	r0, r1, r0, lsl #22
    2ba0:	a76c0305 	strbge	r0, [ip, -r5, lsl #6]!
    2ba4:	0c000000 	stceq	0, cr0, [r0], {-0}
    2ba8:	00009654 	andeq	r9, r0, r4, asr r6
    2bac:	0000010e 	andeq	r0, r0, lr, lsl #2
    2bb0:	00965c0d 	addseq	r5, r6, sp, lsl #24
    2bb4:	00011a00 	andeq	r1, r1, r0, lsl #20
    2bb8:	00010400 	andeq	r0, r1, r0, lsl #8
    2bbc:	50010b00 	andpl	r0, r1, r0, lsl #22
    2bc0:	0c003a01 			; <UNDEFINED> instruction: 0x0c003a01
    2bc4:	00009660 	andeq	r9, r0, r0, ror #12
    2bc8:	00000126 	andeq	r0, r0, r6, lsr #2
    2bcc:	068f0e00 	streq	r0, [pc], r0, lsl #28
    2bd0:	068f0000 	streq	r0, [pc], r0
    2bd4:	4d020000 	stcmi	0, cr0, [r2, #-0]
    2bd8:	066b0e06 	strbteq	r0, [fp], -r6, lsl #28
    2bdc:	066b0000 	strbteq	r0, [fp], -r0
    2be0:	58020000 	stmdapl	r2, {}	; <UNPREDICTABLE>
    2be4:	06600e06 	strbteq	r0, [r0], -r6, lsl #28
    2be8:	06600000 	strbteq	r0, [r0], -r0
    2bec:	6b020000 	blvs	82bf4 <__bss_end__+0x77e44>
    2bf0:	01900006 	orrseq	r0, r0, r6
    2bf4:	00040000 	andeq	r0, r4, r0
    2bf8:	00000ea2 	andeq	r0, r0, r2, lsr #29
    2bfc:	04640104 	strbteq	r0, [r4], #-260	; 0xfffffefc
    2c00:	c50c0000 	strgt	r0, [ip, #-0]
    2c04:	1c000006 	stcne	0, cr0, [r0], {6}
    2c08:	68000005 	stmdavs	r0, {r0, r2}
    2c0c:	f8000096 			; <UNDEFINED> instruction: 0xf8000096
    2c10:	db000000 	blle	2c18 <__code_start__-0x53e8>
    2c14:	02000017 	andeq	r0, r0, #23, 0
    2c18:	6e690504 	cdpvs	5, 6, cr0, cr9, cr4, {0}
    2c1c:	04030074 	streq	r0, [r3], #-116	; 0xffffff8c
    2c20:	00009707 	andeq	r9, r0, r7, lsl #14
    2c24:	06010300 	streq	r0, [r1], -r0, lsl #6
    2c28:	00000048 	andeq	r0, r0, r8, asr #32
    2c2c:	e4050203 	str	r0, [r5], #-515	; 0xfffffdfd
    2c30:	03000000 	movweq	r0, #0
    2c34:	00a90504 	adceq	r0, r9, r4, lsl #10
    2c38:	08030000 	stmdaeq	r3, {}	; <UNPREDICTABLE>
    2c3c:	0000a405 	andeq	sl, r0, r5, lsl #8
    2c40:	08010300 	stmdaeq	r1, {r8, r9}
    2c44:	00000046 	andeq	r0, r0, r6, asr #32
    2c48:	54070203 	strpl	r0, [r7], #-515	; 0xfffffdfd
    2c4c:	03000000 	movweq	r0, #0
    2c50:	00920704 	addseq	r0, r2, r4, lsl #14
    2c54:	08030000 	stmdaeq	r3, {}	; <UNPREDICTABLE>
    2c58:	00008d07 	andeq	r8, r0, r7, lsl #26
    2c5c:	00250400 	eoreq	r0, r5, r0, lsl #8
    2c60:	007a0000 	rsbseq	r0, sl, r0
    2c64:	25050000 	strcs	r0, [r5, #-0]
    2c68:	00000000 	andeq	r0, r0, r0
    2c6c:	0000f806 	andeq	pc, r0, r6, lsl #16
    2c70:	0e1c0200 	cdpeq	2, 1, cr0, cr12, cr0, {0}
    2c74:	00000086 	andeq	r0, r0, r6, lsl #1
    2c78:	006b0407 	rsbeq	r0, fp, r7, lsl #8
    2c7c:	25040000 	strcs	r0, [r4, #-0]
    2c80:	9b000000 	blls	2c88 <__code_start__-0x5378>
    2c84:	05000000 	streq	r0, [r0, #-0]
    2c88:	0000009b 	muleq	r0, fp, r0
    2c8c:	a8040700 	stmdage	r4, {r8, r9, sl}
    2c90:	03000000 	movweq	r0, #0
    2c94:	004f0801 	subeq	r0, pc, r1, lsl #16
    2c98:	a1080000 	mrsge	r0, (UNDEF: 8)
    2c9c:	06000000 	streq	r0, [r0], -r0
    2ca0:	00000584 	andeq	r0, r0, r4, lsl #11
    2ca4:	b90e2102 	stmdblt	lr, {r1, r8, sp}
    2ca8:	07000000 	streq	r0, [r0, -r0]
    2cac:	00008c04 	andeq	r8, r0, r4, lsl #24
    2cb0:	069d0900 	ldreq	r0, [sp], r0, lsl #18
    2cb4:	04010000 	streq	r0, [r1], #-0
    2cb8:	00966806 	addseq	r6, r6, r6, lsl #16
    2cbc:	0000f800 	andeq	pc, r0, r0, lsl #16
    2cc0:	5b9c0100 	blpl	fe7030c8 <__bss_end__+0xfe6f8318>
    2cc4:	06000001 	streq	r0, [r0], -r1
    2cc8:	00000337 	andeq	r0, r0, r7, lsr r3
    2ccc:	25100501 	ldrcs	r0, [r0, #-1281]	; 0xfffffaff
    2cd0:	06000000 	streq	r0, [r0], -r0
    2cd4:	000003e9 	andeq	r0, r0, r9, ror #7
    2cd8:	251f0501 	ldrcs	r0, [pc, #-1281]	; 27df <__code_start__-0x5821>
    2cdc:	0a000000 	beq	2ce4 <__code_start__-0x531c>
    2ce0:	00000017 	andeq	r0, r0, r7, lsl r0
    2ce4:	0b070601 	bleq	1c44f0 <__bss_end__+0x1b9740>
    2ce8:	00737362 	rsbseq	r7, r3, r2, ror #6
    2cec:	5b0a0a01 	blpl	2854f8 <__bss_end__+0x27a748>
    2cf0:	9f000001 	svcls	0x00000001
    2cf4:	87000021 	strhi	r0, [r0, -r1, lsr #32]
    2cf8:	0c000021 	stceq	0, cr0, [r0], {33}	; 0x21
    2cfc:	000006a5 	andeq	r0, r0, r5, lsr #13
    2d00:	5b0a0b01 	blpl	28590c <__bss_end__+0x27ab5c>
    2d04:	0d000001 	stceq	0, cr0, [r0, #-4]
    2d08:	00009740 	andeq	r9, r0, r0, asr #14
    2d0c:	00000008 	andeq	r0, r0, r8
    2d10:	00000136 	andeq	r0, r0, r6, lsr r1
    2d14:	006e690b 	rsbeq	r6, lr, fp, lsl #18
    2d18:	2c051401 	cfstrscs	mvf1, [r5], {1}
    2d1c:	39000000 	stmdbcc	r0, {}	; <UNPREDICTABLE>
    2d20:	37000022 	strcc	r0, [r0, -r2, lsr #32]
    2d24:	00000022 	andeq	r0, r0, r2, lsr #32
    2d28:	0096700e 	addseq	r7, r6, lr
    2d2c:	00016100 	andeq	r6, r1, r0, lsl #2
    2d30:	97400e00 	strbls	r0, [r0, -r0, lsl #28]
    2d34:	016e0000 	cmneq	lr, r0
    2d38:	4c0e0000 	stcmi	0, cr0, [lr], {-0}
    2d3c:	7a000097 	bvc	2fa0 <__code_start__-0x5060>
    2d40:	0e000001 	cdpeq	0, 0, cr0, cr0, cr1, {0}
    2d44:	00009750 	andeq	r9, r0, r0, asr r7
    2d48:	00000187 	andeq	r0, r0, r7, lsl #3
    2d4c:	25040700 	strcs	r0, [r4, #-1792]	; 0xfffff900
    2d50:	0f000000 	svceq	0x00000000
    2d54:	000006b7 			; <UNDEFINED> instruction: 0x000006b7
    2d58:	000006b7 			; <UNDEFINED> instruction: 0x000006b7
    2d5c:	06013102 	streq	r3, [r1], -r2, lsl #2
    2d60:	0006ad10 	andeq	sl, r6, r0, lsl sp
    2d64:	0006ad00 	andeq	sl, r6, r0, lsl #26
    2d68:	063b0200 	ldrteq	r0, [fp], -r0, lsl #4
    2d6c:	0000170f 	andeq	r1, r0, pc, lsl #14
    2d70:	00001700 	andeq	r1, r0, r0, lsl #14
    2d74:	01050200 	mrseq	r0, SP_usr
    2d78:	02251006 	eoreq	r1, r5, #6, 0
    2d7c:	02250000 	eoreq	r0, r5, #0, 0
    2d80:	6e020000 	cdpvs	0, 0, cr0, cr2, cr0, {0}
    2d84:	00ce0006 	sbceq	r0, lr, r6
    2d88:	00040000 	andeq	r0, r4, r0
    2d8c:	00000f8d 	andeq	r0, r0, sp, lsl #31
    2d90:	04640104 	strbteq	r0, [r4], #-260	; 0xfffffefc
    2d94:	da0c0000 	ble	302d9c <__bss_end__+0x2f7fec>
    2d98:	1c000006 	stcne	0, cr0, [r0], {6}
    2d9c:	60000005 	andvs	r0, r0, r5
    2da0:	04000097 	streq	r0, [r0], #-151	; 0xffffff69
    2da4:	f1000000 	cps	#0
    2da8:	02000018 	andeq	r0, r0, #24, 0
    2dac:	6e690504 	cdpvs	5, 6, cr0, cr9, cr4, {0}
    2db0:	04030074 	streq	r0, [r3], #-116	; 0xffffff8c
    2db4:	00009707 	andeq	r9, r0, r7, lsl #14
    2db8:	06010300 	streq	r0, [r1], -r0, lsl #6
    2dbc:	00000048 	andeq	r0, r0, r8, asr #32
    2dc0:	e4050203 	str	r0, [r5], #-515	; 0xfffffdfd
    2dc4:	03000000 	movweq	r0, #0
    2dc8:	00a90504 	adceq	r0, r9, r4, lsl #10
    2dcc:	08030000 	stmdaeq	r3, {}	; <UNPREDICTABLE>
    2dd0:	0000a405 	andeq	sl, r0, r5, lsl #8
    2dd4:	08010300 	stmdaeq	r1, {r8, r9}
    2dd8:	00000046 	andeq	r0, r0, r6, asr #32
    2ddc:	54070203 	strpl	r0, [r7], #-515	; 0xfffffdfd
    2de0:	03000000 	movweq	r0, #0
    2de4:	00920704 	addseq	r0, r2, r4, lsl #14
    2de8:	08030000 	stmdaeq	r3, {}	; <UNPREDICTABLE>
    2dec:	00008d07 	andeq	r8, r0, r7, lsl #26
    2df0:	00250400 	eoreq	r0, r5, r0, lsl #8
    2df4:	007a0000 	rsbseq	r0, sl, r0
    2df8:	25050000 	strcs	r0, [r5, #-0]
    2dfc:	00000000 	andeq	r0, r0, r0
    2e00:	0000f806 	andeq	pc, r0, r6, lsl #16
    2e04:	0e1c0200 	cdpeq	2, 1, cr0, cr12, cr0, {0}
    2e08:	00000086 	andeq	r0, r0, r6, lsl #1
    2e0c:	006b0407 	rsbeq	r0, fp, r7, lsl #8
    2e10:	25040000 	strcs	r0, [r4, #-0]
    2e14:	9b000000 	blls	2e1c <__code_start__-0x51e4>
    2e18:	05000000 	streq	r0, [r0, #-0]
    2e1c:	0000009b 	muleq	r0, fp, r0
    2e20:	a8040700 	stmdage	r4, {r8, r9, sl}
    2e24:	03000000 	movweq	r0, #0
    2e28:	004f0801 	subeq	r0, pc, r1, lsl #16
    2e2c:	a1080000 	mrsge	r0, (UNDEF: 8)
    2e30:	06000000 	streq	r0, [r0], -r0
    2e34:	00000584 	andeq	r0, r0, r4, lsl #11
    2e38:	b90e2102 	stmdblt	lr, {r1, r8, sp}
    2e3c:	07000000 	streq	r0, [r0, -r0]
    2e40:	00008c04 	andeq	r8, r0, r4, lsl #24
    2e44:	06b70900 	ldrteq	r0, [r7], r0, lsl #18
    2e48:	04010000 	streq	r0, [r1], #-0
    2e4c:	00976006 	addseq	r6, r7, r6
    2e50:	00000400 	andeq	r0, r0, r0, lsl #8
    2e54:	009c0100 	addseq	r0, ip, r0, lsl #2
    2e58:	0000027d 	andeq	r0, r0, sp, ror r2
    2e5c:	10060004 	andne	r0, r6, r4
    2e60:	01040000 	mrseq	r0, (UNDEF: 4)
    2e64:	00000464 	andeq	r0, r0, r4, ror #8
    2e68:	0007220c 	andeq	r2, r7, ip, lsl #4
    2e6c:	00051c00 	andeq	r1, r5, r0, lsl #24
    2e70:	00028000 	andeq	r8, r2, r0
    2e74:	00000000 	andeq	r0, r0, r0
    2e78:	00197200 	andseq	r7, r9, r0, lsl #4
    2e7c:	05040200 	streq	r0, [r4, #-512]	; 0xfffffe00
    2e80:	00746e69 	rsbseq	r6, r4, r9, ror #28
    2e84:	00002503 	andeq	r2, r0, r3, lsl #10
    2e88:	07040400 	streq	r0, [r4, -r0, lsl #8]
    2e8c:	00000097 	muleq	r0, r7, r0
    2e90:	48060104 	stmdami	r6, {r2, r8}
    2e94:	04000000 	streq	r0, [r0], #-0
    2e98:	00e40502 	rsceq	r0, r4, r2, lsl #10
    2e9c:	04040000 	streq	r0, [r4], #-0
    2ea0:	0000a905 	andeq	sl, r0, r5, lsl #18
    2ea4:	05080400 	streq	r0, [r8, #-1024]	; 0xfffffc00
    2ea8:	000000a4 	andeq	r0, r0, r4, lsr #1
    2eac:	46080104 	strmi	r0, [r8], -r4, lsl #2
    2eb0:	04000000 	streq	r0, [r0], #-0
    2eb4:	00540702 	subseq	r0, r4, r2, lsl #14
    2eb8:	04040000 	streq	r0, [r4], #-0
    2ebc:	00009207 	andeq	r9, r0, r7, lsl #4
    2ec0:	07080400 	streq	r0, [r8, -r0, lsl #8]
    2ec4:	0000008d 	andeq	r0, r0, sp, lsl #1
    2ec8:	00002505 	andeq	r2, r0, r5, lsl #10
    2ecc:	00007f00 	andeq	r7, r0, r0, lsl #30
    2ed0:	00250600 	eoreq	r0, r5, r0, lsl #12
    2ed4:	07000000 	streq	r0, [r0, -r0]
    2ed8:	000000f8 	strdeq	r0, [r0], -r8
    2edc:	8b0e1c02 	blhi	389eec <__bss_end__+0x37f13c>
    2ee0:	08000000 	stmdaeq	r0, {}	; <UNPREDICTABLE>
    2ee4:	00007004 	andeq	r7, r0, r4
    2ee8:	00250500 	eoreq	r0, r5, r0, lsl #10
    2eec:	00a00000 	adceq	r0, r0, r0
    2ef0:	a0060000 	andge	r0, r6, r0
    2ef4:	00000000 	andeq	r0, r0, r0
    2ef8:	00ad0408 	adceq	r0, sp, r8, lsl #8
    2efc:	01040000 	mrseq	r0, (UNDEF: 4)
    2f00:	00004f08 	andeq	r4, r0, r8, lsl #30
    2f04:	00a60300 	adceq	r0, r6, r0, lsl #6
    2f08:	84070000 	strhi	r0, [r7], #-0
    2f0c:	02000005 	andeq	r0, r0, #5, 0
    2f10:	00be0e21 	adcseq	r0, lr, r1, lsr #28
    2f14:	04080000 	streq	r0, [r8], #-0
    2f18:	00000091 	muleq	r0, r1, r0
    2f1c:	00074609 	andeq	r4, r7, r9, lsl #12
    2f20:	110d0100 	mrsne	r0, (UNDEF: 29)
    2f24:	00000031 	andeq	r0, r0, r1, lsr r0
    2f28:	0006600a 	andeq	r6, r6, sl
    2f2c:	061f0100 	ldreq	r0, [pc], -r0, lsl #2
    2f30:	00009790 	muleq	r0, r0, r7
    2f34:	00000060 	andeq	r0, r0, r0, rrx
    2f38:	01d59c01 	bicseq	r9, r5, r1, lsl #24
    2f3c:	6a0b0000 	bvs	2c2f44 <__bss_end__+0x2b8194>
    2f40:	01000007 	tsteq	r0, r7
    2f44:	002c0f2c 	eoreq	r0, ip, ip, lsr #30
    2f48:	001c0000 	andseq	r0, ip, r0
    2f4c:	050b2010 	streq	r2, [fp, #-16]
    2f50:	01000007 	tsteq	r0, r7
    2f54:	002c0f2d 	eoreq	r0, ip, sp, lsr #30
    2f58:	00240000 	eoreq	r0, r4, r0
    2f5c:	370b2010 	smladcc	fp, r0, r0, r2
    2f60:	01000007 	tsteq	r0, r7
    2f64:	002c0f2e 	eoreq	r0, ip, lr, lsr #30
    2f68:	00000000 	andeq	r0, r0, r0
    2f6c:	510c5a00 	tstpl	ip, r0, lsl #20
    2f70:	01000007 	tsteq	r0, r7
    2f74:	002c0f2f 	eoreq	r0, ip, pc, lsr #30
    2f78:	0d200000 	stceq	0, cr0, [r0, #-0]
    2f7c:	000001ef 	andeq	r0, r0, pc, ror #3
    2f80:	00009790 	muleq	r0, r0, r7
    2f84:	00026802 	andeq	r6, r2, r2, lsl #16
    2f88:	08200100 	stmdaeq	r0!, {r8}
    2f8c:	0000014c 	andeq	r0, r0, ip, asr #2
    2f90:	0002680e 	andeq	r6, r2, lr, lsl #16
    2f94:	02000f00 	andeq	r0, r0, #0, 30
    2f98:	22510000 	subscs	r0, r1, #0, 0
    2f9c:	224d0000 	subcs	r0, sp, #0, 0
    2fa0:	00000000 	andeq	r0, r0, r0
    2fa4:	0001d510 	andeq	sp, r1, r0, lsl r5
    2fa8:	0097a400 	addseq	sl, r7, r0, lsl #8
    2fac:	97a40100 	strls	r0, [r4, r0, lsl #2]!
    2fb0:	00100000 	andseq	r0, r0, r0
    2fb4:	21010000 	mrscs	r0, (UNDEF: 1)
    2fb8:	00017309 	andeq	r7, r1, r9, lsl #6
    2fbc:	01e20f00 	mvneq	r0, r0, lsl #30
    2fc0:	22780000 	rsbscs	r0, r8, #0, 0
    2fc4:	22700000 	rsbscs	r0, r0, #0, 0
    2fc8:	11000000 	mrsne	r0, (UNDEF: 0)
    2fcc:	000097b8 			; <UNDEFINED> instruction: 0x000097b8
    2fd0:	0000024f 	andeq	r0, r0, pc, asr #4
    2fd4:	0097bc11 	addseq	fp, r7, r1, lsl ip
    2fd8:	00025c00 	andeq	r5, r2, r0, lsl #24
    2fdc:	97c41200 	strbls	r1, [r4, r0, lsl #4]
    2fe0:	02680000 	rsbeq	r0, r8, #0, 0
    2fe4:	01980000 	orrseq	r0, r8, r0
    2fe8:	01130000 	tsteq	r3, r0
    2fec:	003a0150 	eorseq	r0, sl, r0, asr r1
    2ff0:	0097d012 	addseq	sp, r7, r2, lsl r0
    2ff4:	00027400 	andeq	r7, r2, r0, lsl #8
    2ff8:	0001b800 	andeq	fp, r1, r0, lsl #16
    2ffc:	50011300 	andpl	r1, r1, r0, lsl #6
    3000:	00240c05 	eoreq	r0, r4, r5, lsl #24
    3004:	01132010 	tsteq	r3, r0, lsl r0
    3008:	010c0551 	tsteq	ip, r1, asr r5
    300c:	005a0000 	subseq	r0, sl, r0
    3010:	0097dc14 	addseq	sp, r7, r4, lsl ip
    3014:	00027400 	andeq	r7, r2, r0, lsl #8
    3018:	50011300 	andpl	r1, r1, r0, lsl #6
    301c:	001c0c05 	andseq	r0, ip, r5, lsl #24
    3020:	01132010 	tsteq	r3, r0, lsl r0
    3024:	200c0551 	andcs	r0, ip, r1, asr r5
    3028:	005a0000 	subseq	r0, sl, r0
    302c:	07131500 	ldreq	r1, [r3, -r0, lsl #10]
    3030:	17010000 	strne	r0, [r1, -r0]
    3034:	01ef0106 	mvneq	r0, r6, lsl #2
    3038:	72090000 	andvc	r0, r9, #0, 0
    303c:	01000007 	tsteq	r0, r7
    3040:	00310e18 	eorseq	r0, r1, r8, lsl lr
    3044:	16000000 	strne	r0, [r0], -r0
    3048:	00000743 	andeq	r0, r0, r3, asr #14
    304c:	25050e01 	strcs	r0, [r5, #-3585]	; 0xfffff1ff
    3050:	01000000 	mrseq	r0, (UNDEF: 0)
    3054:	0000020d 	andeq	r0, r0, sp, lsl #4
    3058:	00077209 	andeq	r7, r7, r9, lsl #4
    305c:	0e0f0100 	adfeqe	f0, f7, f0
    3060:	00000031 	andeq	r0, r0, r1, lsr r0
    3064:	01ef1700 	mvneq	r1, r0, lsl #14
    3068:	97640000 	strbls	r0, [r4, -r0]!
    306c:	00180000 	andseq	r0, r8, r0
    3070:	9c010000 	stcls	0, cr0, [r1], {-0}
    3074:	0000022e 	andeq	r0, r0, lr, lsr #4
    3078:	0002000f 	andeq	r0, r2, pc
    307c:	0022b500 	eoreq	fp, r2, r0, lsl #10
    3080:	0022b100 	eoreq	fp, r2, r0, lsl #2
    3084:	d5170000 	ldrle	r0, [r7, #-0]
    3088:	7c000001 	stcvc	0, cr0, [r0], {1}
    308c:	14000097 	strne	r0, [r0], #-151	; 0xffffff69
    3090:	01000000 	mrseq	r0, (UNDEF: 0)
    3094:	00024f9c 	muleq	r2, ip, pc	; <UNPREDICTABLE>
    3098:	01e20f00 	mvneq	r0, r0, lsl #30
    309c:	22dc0000 	sbcscs	r0, ip, #0, 0
    30a0:	22d40000 	sbcscs	r0, r4, #0, 0
    30a4:	18000000 	stmdane	r0, {}	; <UNPREDICTABLE>
    30a8:	000006f6 	strdeq	r0, [r0], -r6
    30ac:	000006f6 	strdeq	r0, [r0], -r6
    30b0:	06013602 	streq	r3, [r1], -r2, lsl #12
    30b4:	00068f19 	andeq	r8, r6, r9, lsl pc
    30b8:	00068f00 	andeq	r8, r6, r0, lsl #30
    30bc:	064d0200 	strbeq	r0, [sp], -r0, lsl #4
    30c0:	00066b19 	andeq	r6, r6, r9, lsl fp
    30c4:	00066b00 	andeq	r6, r6, r0, lsl #22
    30c8:	06580200 	ldrbeq	r0, [r8], -r0, lsl #4
    30cc:	00070d19 	andeq	r0, r7, r9, lsl sp
    30d0:	00070d00 	andeq	r0, r7, r0, lsl #26
    30d4:	06ad0200 	strteq	r0, [sp], r0, lsl #4
    30d8:	00053f00 	andeq	r3, r5, r0, lsl #30
    30dc:	89000400 	stmdbhi	r0, {sl}
    30e0:	04000011 	streq	r0, [r0], #-17	; 0xffffffef
    30e4:	00046401 	andeq	r6, r4, r1, lsl #8
    30e8:	078d0c00 	streq	r0, [sp, r0, lsl #24]
    30ec:	051c0000 	ldreq	r0, [ip, #-0]
    30f0:	97f00000 	ldrbls	r0, [r0, r0]!
    30f4:	011c0000 	tsteq	ip, r0
    30f8:	1a8a0000 	bne	fe283100 <__bss_end__+0xfe278350>
    30fc:	04020000 	streq	r0, [r2], #-0
    3100:	746e6905 	strbtvc	r6, [lr], #-2309	; 0xfffff6fb
    3104:	07040300 	streq	r0, [r4, -r0, lsl #6]
    3108:	00000097 	muleq	r0, r7, r0
    310c:	48060103 	stmdami	r6, {r0, r1, r8}
    3110:	03000000 	movweq	r0, #0
    3114:	00e40502 	rsceq	r0, r4, r2, lsl #10
    3118:	04030000 	streq	r0, [r3], #-0
    311c:	0000a905 	andeq	sl, r0, r5, lsl #18
    3120:	05080300 	streq	r0, [r8, #-768]	; 0xfffffd00
    3124:	000000a4 	andeq	r0, r0, r4, lsr #1
    3128:	46080103 	strmi	r0, [r8], -r3, lsl #2
    312c:	03000000 	movweq	r0, #0
    3130:	00540702 	subseq	r0, r4, r2, lsl #14
    3134:	04030000 	streq	r0, [r3], #-0
    3138:	00009207 	andeq	r9, r0, r7, lsl #4
    313c:	07080300 	streq	r0, [r8, -r0, lsl #6]
    3140:	0000008d 	andeq	r0, r0, sp, lsl #1
    3144:	00002504 	andeq	r2, r0, r4, lsl #10
    3148:	00007a00 	andeq	r7, r0, r0, lsl #20
    314c:	00250500 	eoreq	r0, r5, r0, lsl #10
    3150:	06000000 	streq	r0, [r0], -r0
    3154:	000000f8 	strdeq	r0, [r0], -r8
    3158:	860e1c02 	strhi	r1, [lr], -r2, lsl #24
    315c:	07000000 	streq	r0, [r0, -r0]
    3160:	00006b04 	andeq	r6, r0, r4, lsl #22
    3164:	00250400 	eoreq	r0, r5, r0, lsl #8
    3168:	009b0000 	addseq	r0, fp, r0
    316c:	9b050000 	blls	143174 <__bss_end__+0x1383c4>
    3170:	00000000 	andeq	r0, r0, r0
    3174:	00a80407 	adceq	r0, r8, r7, lsl #8
    3178:	01030000 	mrseq	r0, (UNDEF: 3)
    317c:	00004f08 	andeq	r4, r0, r8, lsl #30
    3180:	00a10800 	adceq	r0, r1, r0, lsl #16
    3184:	84060000 	strhi	r0, [r6], #-0
    3188:	02000005 	andeq	r0, r0, #5, 0
    318c:	00b90e21 	adcseq	r0, r9, r1, lsr #28
    3190:	04070000 	streq	r0, [r7], #-0
    3194:	0000008c 	andeq	r0, r0, ip, lsl #1
    3198:	00078309 	andeq	r8, r7, r9, lsl #6
    319c:	061e0100 	ldreq	r0, [lr], -r0, lsl #2
    31a0:	000098b8 			; <UNDEFINED> instruction: 0x000098b8
    31a4:	00000054 	andeq	r0, r0, r4, asr r0
    31a8:	020b9c01 	andeq	r9, fp, #256	; 0x100
    31ac:	730a0000 	movwvc	r0, #40960	; 0xa000
    31b0:	01006365 	tsteq	r0, r5, ror #6
    31b4:	002c191e 	eoreq	r1, ip, lr, lsl r9
    31b8:	23190000 	tstcs	r9, #0, 0
    31bc:	23150000 	tstcs	r5, #0, 0
    31c0:	0b0b0000 	bleq	2c31c8 <__bss_end__+0x2b8418>
    31c4:	b8000002 	stmdalt	r0, {r1}
    31c8:	02000098 	andeq	r0, r0, #152, 0	; 0x98
    31cc:	00000348 	andeq	r0, r0, r8, asr #6
    31d0:	0c051f01 	stceq	15, cr1, [r5], {1}
    31d4:	00000218 	andeq	r0, r0, r8, lsl r2
    31d8:	0000233e 	andeq	r2, r0, lr, lsr r3
    31dc:	0000233a 	andeq	r2, r0, sl, lsr r3
    31e0:	0002240d 	andeq	r2, r2, sp, lsl #8
    31e4:	0098cc00 	addseq	ip, r8, r0, lsl #24
    31e8:	98cc0000 	stmials	ip, {}^	; <UNPREDICTABLE>
    31ec:	00400000 	subeq	r0, r0, r0
    31f0:	1c010000 	stcne	0, cr0, [r1], {-0}
    31f4:	02310c05 	eorseq	r0, r1, #1280	; 0x500
    31f8:	236b0000 	cmncs	fp, #0, 0
    31fc:	23690000 	cmncs	r9, #0, 0
    3200:	3c0e0000 	stccc	0, cr0, [lr], {-0}
    3204:	80000002 	andhi	r0, r0, r2
    3208:	7e000023 	cdpvc	0, 0, cr0, cr0, cr3, {1}
    320c:	0f000023 	svceq	0x00000023
    3210:	00000255 	andeq	r0, r0, r5, asr r2
    3214:	000098cc 	andeq	r9, r0, ip, asr #17
    3218:	0098cc02 	addseq	ip, r8, r2, lsl #24
    321c:	00001400 	andeq	r1, r0, r0, lsl #8
    3220:	13130100 	tstne	r3, #0
    3224:	0000019c 	muleq	r0, ip, r1
    3228:	0002660e 	andeq	r6, r2, lr, lsl #12
    322c:	00239700 	eoreq	r9, r3, r0, lsl #14
    3230:	00239300 	eoreq	r9, r3, r0, lsl #6
    3234:	02710f00 	rsbseq	r0, r1, #0, 30
    3238:	98d00000 	ldmls	r0, {}^	; <UNPREDICTABLE>
    323c:	d0010000 	andle	r0, r1, r0
    3240:	0c000098 	stceq	0, cr0, [r0], {152}	; 0x98
    3244:	01000000 	mrseq	r0, (UNDEF: 0)
    3248:	0189120d 	orreq	r1, r9, sp, lsl #4
    324c:	d8100000 	ldmdale	r0, {}	; <UNPREDICTABLE>
    3250:	2a000098 	bcs	34b8 <__code_start__-0x4b48>
    3254:	11000005 	tstne	r0, r5
    3258:	0c055001 	stceq	0, cr5, [r5], {1}
    325c:	20003004 	andcs	r3, r0, r4
    3260:	d0120000 	andsle	r0, r2, r0
    3264:	36000098 			; <UNDEFINED> instruction: 0x36000098
    3268:	12000005 	andne	r0, r0, #5, 0
    326c:	000098e0 	andeq	r9, r0, r0, ror #17
    3270:	00000536 	andeq	r0, r0, r6, lsr r5
    3274:	02471300 	subeq	r1, r7, #0, 6
    3278:	03600000 	cmneq	r0, #0, 0
    327c:	48140000 	ldmdami	r4, {}	; <UNPREDICTABLE>
    3280:	0b000002 	bleq	3290 <__code_start__-0x4d70>
    3284:	00000255 	andeq	r0, r0, r5, asr r2
    3288:	000098e4 	andeq	r9, r0, r4, ror #17
    328c:	00037802 	andeq	r7, r3, r2, lsl #16
    3290:	17150100 	ldrne	r0, [r5, -r0, lsl #2]
    3294:	00037815 	andeq	r7, r3, r5, lsl r8
    3298:	02660e00 	rsbeq	r0, r6, #0, 28
    329c:	23b70000 			; <UNDEFINED> instruction: 0x23b70000
    32a0:	23b50000 			; <UNDEFINED> instruction: 0x23b50000
    32a4:	71160000 	tstvc	r6, r0
    32a8:	e8000002 	stmda	r0, {r1}
    32ac:	01000098 	swpeq	r0, r8, [r0]	; <UNPREDICTABLE>
    32b0:	00000398 	muleq	r0, r8, r3
    32b4:	f3120d01 	vpadd.f16	d0, d2, d1
    32b8:	10000001 	andne	r0, r0, r1
    32bc:	000098f0 	strdeq	r9, [r0], -r0
    32c0:	0000052a 	andeq	r0, r0, sl, lsr #10
    32c4:	02500111 	subseq	r0, r0, #1073741828	; 0x40000004
    32c8:	00000077 	andeq	r0, r0, r7, ror r0
    32cc:	0098e812 	addseq	lr, r8, r2, lsl r8
    32d0:	00053600 	andeq	r3, r5, r0, lsl #12
    32d4:	98fc1200 	ldmls	ip!, {r9, ip}^
    32d8:	05360000 	ldreq	r0, [r6, #-0]!
	...
    32e4:	00066b17 	andeq	r6, r6, r7, lsl fp
    32e8:	061b0100 	ldreq	r0, [fp], -r0, lsl #2
    32ec:	00022401 	andeq	r2, r2, r1, lsl #8
    32f0:	736d1800 	cmnvc	sp, #0, 16
    32f4:	181b0100 	ldmdane	fp, {r8}
    32f8:	0000002c 	andeq	r0, r0, ip, lsr #32
    32fc:	07b61700 	ldreq	r1, [r6, r0, lsl #14]!
    3300:	12010000 	andne	r0, r1, #0, 0
    3304:	02550106 	subseq	r0, r5, #-2147483647	; 0x80000001
    3308:	75180000 	ldrvc	r0, [r8, #-0]
    330c:	12010073 	andne	r0, r1, #115, 0	; 0x73
    3310:	00002c18 	andeq	r2, r0, r8, lsl ip
    3314:	62721900 	rsbsvs	r1, r2, #0, 18
    3318:	0e130100 	mufeqs	f0, f3, f0
    331c:	0000002c 	andeq	r0, r0, ip, lsr #32
    3320:	6172191a 	cmnvs	r2, sl, lsl r9
    3324:	12150100 	andsne	r0, r5, #0
    3328:	0000002c 	andeq	r0, r0, ip, lsr #32
    332c:	a71b0000 	ldrge	r0, [fp, -r0]
    3330:	01000007 	tsteq	r0, r7
    3334:	002c0a09 	eoreq	r0, ip, r9, lsl #20
    3338:	71010000 	mrsvc	r0, (UNDEF: 1)
    333c:	19000002 	stmdbne	r0, {r1}
    3340:	0d010075 	stceq	0, cr0, [r1, #-468]	; 0xfffffe2c
    3344:	00002c0e 	andeq	r2, r0, lr, lsl #24
    3348:	bf1c0000 	svclt	0x001c0000
    334c:	01000007 	tsteq	r0, r7
    3350:	002c0a04 	eoreq	r0, ip, r4, lsl #20
    3354:	1d010000 	stcne	0, cr0, [r1, #-0]
    3358:	00000271 	andeq	r0, r0, r1, ror r2
    335c:	000097f0 	strdeq	r9, [r0], -r0
    3360:	0000000c 	andeq	r0, r0, ip
    3364:	02a59c01 	adceq	r9, r5, #256	; 0x100
    3368:	f81e0000 			; <UNDEFINED> instruction: 0xf81e0000
    336c:	2a000097 	bcs	35d0 <__code_start__-0x4a30>
    3370:	11000005 	tstne	r0, r5
    3374:	0c055001 	stceq	0, cr5, [r5], {1}
    3378:	20003004 	andcs	r3, r0, r4
    337c:	551d0000 	ldrpl	r0, [sp, #-0]
    3380:	fc000002 	stc2	0, cr0, [r0], {2}
    3384:	24000097 	strcs	r0, [r0], #-151	; 0xffffff69
    3388:	01000000 	mrseq	r0, (UNDEF: 0)
    338c:	0003059c 	muleq	r3, ip, r5
    3390:	02660e00 	rsbeq	r0, r6, #0, 28
    3394:	23ce0000 	biccs	r0, lr, #0, 0
    3398:	23ca0000 	biccs	r0, sl, #0, 0
    339c:	710f0000 	mrsvc	r0, CPSR
    33a0:	04000002 	streq	r0, [r0], #-2
    33a4:	01000098 	swpeq	r0, r8, [r0]	; <UNPREDICTABLE>
    33a8:	00009804 	andeq	r9, r0, r4, lsl #16
    33ac:	0000000c 	andeq	r0, r0, ip
    33b0:	f2120d01 	vadd.f16	d0, d2, d1
    33b4:	10000002 	andne	r0, r0, r2
    33b8:	0000980c 	andeq	r9, r0, ip, lsl #16
    33bc:	0000052a 	andeq	r0, r0, sl, lsr #10
    33c0:	05500111 	ldrbeq	r0, [r0, #-273]	; 0xfffffeef
    33c4:	0030040c 	eorseq	r0, r0, ip, lsl #8
    33c8:	12000020 	andne	r0, r0, #32, 0
    33cc:	00009804 	andeq	r9, r0, r4, lsl #16
    33d0:	00000536 	andeq	r0, r0, r6, lsr r5
    33d4:	00981412 	addseq	r1, r8, r2, lsl r4
    33d8:	00053600 	andeq	r3, r5, r0, lsl #12
    33dc:	241d0000 	ldrcs	r0, [sp], #-0
    33e0:	20000002 	andcs	r0, r0, r2
    33e4:	48000098 	stmdami	r0, {r3, r4, r7}
    33e8:	01000000 	mrseq	r0, (UNDEF: 0)
    33ec:	0004079c 	muleq	r4, ip, r7
    33f0:	02310c00 	eorseq	r0, r1, #0, 24
    33f4:	23f00000 	mvnscs	r0, #0, 0
    33f8:	23ec0000 	mvncs	r0, #0, 0
    33fc:	3c0e0000 	stccc	0, cr0, [lr], {-0}
    3400:	10000002 	andne	r0, r0, r2
    3404:	0e000024 	cdpeq	0, 0, cr0, cr0, cr4, {1}
    3408:	16000024 	strne	r0, [r0], -r4, lsr #32
    340c:	00000255 	andeq	r0, r0, r5, asr r2
    3410:	00009820 	andeq	r9, r0, r0, lsr #16
    3414:	00029002 	andeq	r9, r2, r2
    3418:	13130100 	tstne	r3, #0
    341c:	0000039a 	muleq	r0, sl, r3
    3420:	00029015 	andeq	r9, r2, r5, lsl r0
    3424:	02660e00 	rsbeq	r0, r6, #0, 28
    3428:	24270000 	strtcs	r0, [r7], #-0
    342c:	24230000 	strtcs	r0, [r3], #-0
    3430:	710f0000 	mrsvc	r0, CPSR
    3434:	2c000002 	stccs	0, cr0, [r0], {2}
    3438:	01000098 	swpeq	r0, r8, [r0]	; <UNPREDICTABLE>
    343c:	0000982c 	andeq	r9, r0, ip, lsr #16
    3440:	0000000c 	andeq	r0, r0, ip
    3444:	86120d01 	ldrhi	r0, [r2], -r1, lsl #26
    3448:	10000003 	andne	r0, r0, r3
    344c:	00009834 	andeq	r9, r0, r4, lsr r8
    3450:	0000052a 	andeq	r0, r0, sl, lsr #10
    3454:	05500111 	ldrbeq	r0, [r0, #-273]	; 0xfffffeef
    3458:	0030040c 	eorseq	r0, r0, ip, lsl #8
    345c:	12000020 	andne	r0, r0, #32, 0
    3460:	0000982c 	andeq	r9, r0, ip, lsr #16
    3464:	00000536 	andeq	r0, r0, r6, lsr r5
    3468:	00983c12 	addseq	r3, r8, r2, lsl ip
    346c:	00053600 	andeq	r3, r5, r0, lsl #12
    3470:	13000000 	movwne	r0, #0
    3474:	00000247 	andeq	r0, r0, r7, asr #4
    3478:	000002a8 	andeq	r0, r0, r8, lsr #5
    347c:	00024814 	andeq	r4, r2, r4, lsl r8
    3480:	02550b00 	subseq	r0, r5, #0, 22
    3484:	98400000 	stmdals	r0, {}^	; <UNPREDICTABLE>
    3488:	c0020000 	andgt	r0, r2, r0
    348c:	01000002 	tsteq	r0, r2
    3490:	c0151715 	andsgt	r1, r5, r5, lsl r7
    3494:	0e000002 	cdpeq	0, 0, cr0, cr0, cr2, {0}
    3498:	00000266 	andeq	r0, r0, r6, ror #4
    349c:	00002447 	andeq	r2, r0, r7, asr #8
    34a0:	00002445 	andeq	r2, r0, r5, asr #8
    34a4:	00027116 	andeq	r7, r2, r6, lsl r1
    34a8:	00984400 	addseq	r4, r8, r0, lsl #8
    34ac:	02e00100 	rsceq	r0, r0, #0
    34b0:	0d010000 	stceq	0, cr0, [r1, #-0]
    34b4:	0003f112 	andeq	pc, r3, r2, lsl r1	; <UNPREDICTABLE>
    34b8:	984c1000 	stmdals	ip, {ip}^
    34bc:	052a0000 	streq	r0, [sl, #-0]!
    34c0:	01110000 	tsteq	r1, r0
    34c4:	00770250 	rsbseq	r0, r7, r0, asr r2
    34c8:	44120000 	ldrmi	r0, [r2], #-0
    34cc:	36000098 			; <UNDEFINED> instruction: 0x36000098
    34d0:	12000005 	andne	r0, r0, #5, 0
    34d4:	00009858 	andeq	r9, r0, r8, asr r8
    34d8:	00000536 	andeq	r0, r0, r6, lsr r5
    34dc:	00000000 	andeq	r0, r0, r0
    34e0:	00020b1d 	andeq	r0, r2, sp, lsl fp
    34e4:	00986800 	addseq	r6, r8, r0, lsl #16
    34e8:	00005000 	andeq	r5, r0, r0
    34ec:	2a9c0100 	bcs	fe7038f4 <__bss_end__+0xfe6f8b44>
    34f0:	0c000005 	stceq	0, cr0, [r0], {5}
    34f4:	00000218 	andeq	r0, r0, r8, lsl r2
    34f8:	0000245e 	andeq	r2, r0, lr, asr r4
    34fc:	0000245a 	andeq	r2, r0, sl, asr r4
    3500:	0002240d 	andeq	r2, r2, sp, lsl #8
    3504:	00987800 	addseq	r7, r8, r0, lsl #16
    3508:	98780000 	ldmdals	r8!, {}^	; <UNPREDICTABLE>
    350c:	00400000 	subeq	r0, r0, r0
    3510:	1c010000 	stcne	0, cr0, [r1], {-0}
    3514:	02310c05 	eorseq	r0, r1, #1280	; 0x500
    3518:	24810000 	strcs	r0, [r1], #0
    351c:	247f0000 	ldrbtcs	r0, [pc], #-0	; 3524 <__code_start__-0x4adc>
    3520:	3c0e0000 	stccc	0, cr0, [lr], {-0}
    3524:	96000002 	strls	r0, [r0], -r2
    3528:	94000024 	strls	r0, [r0], #-36	; 0xffffffdc
    352c:	0f000024 	svceq	0x00000024
    3530:	00000255 	andeq	r0, r0, r5, asr r2
    3534:	00009878 	andeq	r9, r0, r8, ror r8
    3538:	00987802 	addseq	r7, r8, r2, lsl #16
    353c:	00001400 	andeq	r1, r0, r0, lsl #8
    3540:	13130100 	tstne	r3, #0
    3544:	000004bc 			; <UNDEFINED> instruction: 0x000004bc
    3548:	0002660e 	andeq	r6, r2, lr, lsl #12
    354c:	0024ad00 	eoreq	sl, r4, r0, lsl #26
    3550:	0024a900 	eoreq	sl, r4, r0, lsl #18
    3554:	02710f00 	rsbseq	r0, r1, #0, 30
    3558:	987c0000 	ldmdals	ip!, {}^	; <UNPREDICTABLE>
    355c:	7c010000 	stcvc	0, cr0, [r1], {-0}
    3560:	0c000098 	stceq	0, cr0, [r0], {152}	; 0x98
    3564:	01000000 	mrseq	r0, (UNDEF: 0)
    3568:	04a9120d 	strteq	r1, [r9], #525	; 0x20d
    356c:	84100000 	ldrhi	r0, [r0], #-0
    3570:	2a000098 	bcs	37d8 <__code_start__-0x4828>
    3574:	11000005 	tstne	r0, r5
    3578:	0c055001 	stceq	0, cr5, [r5], {1}
    357c:	20003004 	andcs	r3, r0, r4
    3580:	7c120000 	ldcvc	0, cr0, [r2], {-0}
    3584:	36000098 			; <UNDEFINED> instruction: 0x36000098
    3588:	12000005 	andne	r0, r0, #5, 0
    358c:	0000988c 	andeq	r9, r0, ip, lsl #17
    3590:	00000536 	andeq	r0, r0, r6, lsr r5
    3594:	02471300 	subeq	r1, r7, #0, 6
    3598:	02f80000 	rscseq	r0, r8, #0, 0
    359c:	48140000 	ldmdami	r4, {}	; <UNPREDICTABLE>
    35a0:	0b000002 	bleq	35b0 <__code_start__-0x4a50>
    35a4:	00000255 	andeq	r0, r0, r5, asr r2
    35a8:	00009890 	muleq	r0, r0, r8
    35ac:	00031002 	andeq	r1, r3, r2
    35b0:	17150100 	ldrne	r0, [r5, -r0, lsl #2]
    35b4:	00031015 	andeq	r1, r3, r5, lsl r0
    35b8:	02660e00 	rsbeq	r0, r6, #0, 28
    35bc:	24cd0000 	strbcs	r0, [sp], #0
    35c0:	24cb0000 	strbcs	r0, [fp], #0
    35c4:	71160000 	tstvc	r6, r0
    35c8:	94000002 	strls	r0, [r0], #-2
    35cc:	01000098 	swpeq	r0, r8, [r0]	; <UNPREDICTABLE>
    35d0:	00000330 	andeq	r0, r0, r0, lsr r3
    35d4:	13120d01 	tstne	r2, #64	; 0x40
    35d8:	10000005 	andne	r0, r0, r5
    35dc:	0000989c 	muleq	r0, ip, r8
    35e0:	0000052a 	andeq	r0, r0, sl, lsr #10
    35e4:	02500111 	subseq	r0, r0, #1073741828	; 0x40000004
    35e8:	00000077 	andeq	r0, r0, r7, ror r0
    35ec:	00989412 	addseq	r9, r8, r2, lsl r4
    35f0:	00053600 	andeq	r3, r5, r0, lsl #12
    35f4:	98a81200 	stmials	r8!, {r9, ip}
    35f8:	05360000 	ldreq	r0, [r6, #-0]!
    35fc:	00000000 	andeq	r0, r0, r0
    3600:	1f000000 	svcne	0x00000000
    3604:	000007a1 	andeq	r0, r0, r1, lsr #15
    3608:	000007a1 	andeq	r0, r0, r1, lsr #15
    360c:	1f0ac202 	svcne	0x000ac202
    3610:	00000777 	andeq	r0, r0, r7, ror r7
    3614:	00000777 	andeq	r0, r0, r7, ror r7
    3618:	00069c02 	andeq	r9, r6, r2, lsl #24
    361c:	000005cd 	andeq	r0, r0, sp, asr #11
    3620:	13580004 	cmpne	r8, #4, 0
    3624:	01040000 	mrseq	r0, (UNDEF: 4)
    3628:	000008d2 	ldrdeq	r0, [r0], -r2
    362c:	0008110c 	andeq	r1, r8, ip, lsl #2
    3630:	00088200 	andeq	r8, r8, r0, lsl #4
    3634:	00990c00 	addseq	r0, r9, r0, lsl #24
    3638:	0001f000 	andeq	pc, r1, r0
    363c:	001c8800 	andseq	r8, ip, r0, lsl #16
    3640:	05040200 	streq	r0, [r4, #-512]	; 0xfffffe00
    3644:	00746e69 	rsbseq	r6, r4, r9, ror #28
    3648:	97070403 	strls	r0, [r7, -r3, lsl #8]
    364c:	04000000 	streq	r0, [r0], #-0
    3650:	0000002c 	andeq	r0, r0, ip, lsr #32
    3654:	48060103 	stmdami	r6, {r0, r1, r8}
    3658:	03000000 	movweq	r0, #0
    365c:	00e40502 	rsceq	r0, r4, r2, lsl #10
    3660:	04030000 	streq	r0, [r3], #-0
    3664:	0000a905 	andeq	sl, r0, r5, lsl #18
    3668:	05080300 	streq	r0, [r8, #-768]	; 0xfffffd00
    366c:	000000a4 	andeq	r0, r0, r4, lsr #1
    3670:	46080103 	strmi	r0, [r8], -r3, lsl #2
    3674:	03000000 	movweq	r0, #0
    3678:	00540702 	subseq	r0, r4, r2, lsl #14
    367c:	43050000 	movwmi	r0, #20480	; 0x5000
    3680:	05000002 	streq	r0, [r0, #-2]
    3684:	006e1934 	rsbeq	r1, lr, r4, lsr r9
    3688:	04030000 	streq	r0, [r3], #-0
    368c:	00009207 	andeq	r9, r0, r7, lsl #4
    3690:	07080300 	streq	r0, [r8, -r0, lsl #6]
    3694:	0000008d 	andeq	r0, r0, sp, lsl #1
    3698:	4f080103 	svcmi	0x00080103
    369c:	06000000 	streq	r0, [r0], -r0
    36a0:	00540107 	subseq	r0, r4, r7, lsl #2
    36a4:	0c040000 	stceq	0, cr0, [r4], {-0}
    36a8:	0000c20e 	andeq	ip, r0, lr, lsl #4
    36ac:	09bc0700 	ldmibeq	ip!, {r8, r9, sl}
    36b0:	07000000 	streq	r0, [r0, -r0]
    36b4:	000007f4 	strdeq	r0, [r0], -r4
    36b8:	08370701 	ldmdaeq	r7!, {r0, r8, r9, sl}
    36bc:	07040000 	streq	r0, [r4, -r0]
    36c0:	00000846 	andeq	r0, r0, r6, asr #16
    36c4:	08550705 	ldmdaeq	r5, {r0, r2, r8, r9, sl}^
    36c8:	07060000 	streq	r0, [r6, -r0]
    36cc:	00000864 	andeq	r0, r0, r4, ror #16
    36d0:	09850707 	stmibeq	r5, {r0, r1, r2, r8, r9, sl}
    36d4:	07030000 	streq	r0, [r3, -r0]
    36d8:	00000873 	andeq	r0, r0, r3, ror r8
    36dc:	05080002 	streq	r0, [r8, #-2]
    36e0:	2c000008 	stccs	0, cr0, [r0], {8}
    36e4:	5e080602 	cfmadd32pl	mvax0, mvfx0, mvfx8, mvfx2
    36e8:	09000001 	stmdbeq	r0, {r0}
    36ec:	02006f69 	andeq	r6, r0, #420	; 0x1a4
    36f0:	00330909 	eorseq	r0, r3, r9, lsl #18
    36f4:	09000000 	stmdbeq	r0, {}	; <UNPREDICTABLE>
    36f8:	00726569 	rsbseq	r6, r2, r9, ror #10
    36fc:	33090a02 	movwcc	r0, #39426	; 0x9a02
    3700:	04000000 	streq	r0, [r0], #-0
    3704:	72696909 	rsbvc	r6, r9, #147456	; 0x24000
    3708:	09110200 	ldmdbeq	r1, {r9}
    370c:	00000033 	andeq	r0, r0, r3, lsr r0
    3710:	636c0908 	cmnvs	ip, #8, 18	; 0x20000
    3714:	13020072 	movwne	r0, #8306	; 0x2072
    3718:	00003309 	andeq	r3, r0, r9, lsl #6
    371c:	6d090c00 	stcvs	12, cr0, [r9, #-0]
    3720:	02007263 	andeq	r7, r0, #805306374	; 0x30000006
    3724:	00330914 	eorseq	r0, r3, r4, lsl r9
    3728:	09100000 	ldmdbeq	r0, {}	; <UNPREDICTABLE>
    372c:	0072736c 	rsbseq	r7, r2, ip, ror #6
    3730:	33091502 	movwcc	r1, #38146	; 0x9502
    3734:	14000000 	strne	r0, [r0], #-0
    3738:	72736d09 	rsbsvc	r6, r3, #576	; 0x240
    373c:	09160200 	ldmdbeq	r6, {r9}
    3740:	00000033 	andeq	r0, r0, r3, lsr r0
    3744:	099c0a18 	ldmibeq	ip, {r3, r4, r9, fp}
    3748:	17020000 	strne	r0, [r2, -r0]
    374c:	00003309 	andeq	r3, r0, r9, lsl #6
    3750:	650a1c00 	strvs	r1, [sl, #-3072]	; 0xfffff400
    3754:	02000009 	andeq	r0, r0, #9, 0
    3758:	0033091b 	eorseq	r0, r3, fp, lsl r9
    375c:	0a200000 	beq	803764 <__bss_end__+0x7f89b4>
    3760:	000007e1 	andeq	r0, r0, r1, ror #15
    3764:	33091d02 	movwcc	r1, #40194	; 0x9d02
    3768:	24000000 	strcs	r0, [r0], #-0
    376c:	0008b70a 	andeq	fp, r8, sl, lsl #14
    3770:	091e0200 	ldmdbeq	lr, {r9}
    3774:	00000033 	andeq	r0, r0, r3, lsr r0
    3778:	bc0b0028 	stclt	0, cr0, [fp], {40}	; 0x28
    377c:	01000008 	tsteq	r0, r8
    3780:	01740908 	cmneq	r4, r8, lsl #18
    3784:	50040000 	andpl	r0, r4, r0
    3788:	040c2021 	streq	r2, [ip], #-33	; 0xffffffdf
    378c:	00000033 	andeq	r0, r0, r3, lsr r0
    3790:	00016e0d 	andeq	r6, r1, sp, lsl #28
    3794:	09a40b00 	stmibeq	r4!, {r8, r9, fp}
    3798:	29010000 	stmdbcs	r1, {}	; <UNPREDICTABLE>
    379c:	00018f23 	andeq	r8, r1, r3, lsr #30
    37a0:	21504000 	cmpcs	r0, r0
    37a4:	c2040c20 	andgt	r0, r4, #32, 24	; 0x2000
    37a8:	0d000000 	stceq	0, cr0, [r0, #-0]
    37ac:	00000189 	andeq	r0, r0, r9, lsl #3
    37b0:	00068f0e 	andeq	r8, r6, lr, lsl #30
    37b4:	06cc0100 	strbeq	r0, [ip], r0, lsl #2
    37b8:	00009ac4 	andeq	r9, r0, r4, asr #21
    37bc:	00000014 	andeq	r0, r0, r4, lsl r0
    37c0:	01b49c01 			; <UNDEFINED> instruction: 0x01b49c01
    37c4:	cc0f0000 	stcgt	0, cr0, [pc], {-0}
    37c8:	b400009a 	strlt	r0, [r0], #-154	; 0xffffff66
    37cc:	00000001 	andeq	r0, r0, r1
    37d0:	00082610 	andeq	r2, r8, r0, lsl r6
    37d4:	05b60100 	ldreq	r0, [r6, #256]!	; 0x100
    37d8:	00000025 	andeq	r0, r0, r5, lsr #32
    37dc:	00009aa4 	andeq	r9, r0, r4, lsr #21
    37e0:	00000020 	andeq	r0, r0, r0, lsr #32
    37e4:	01eb9c01 	mvneq	r9, r1, lsl #24
    37e8:	ac0f0000 	stcge	0, cr0, [pc], {-0}
    37ec:	a000009a 	mulge	r0, sl, r0
    37f0:	11000005 	tstne	r0, r5
    37f4:	00009ab4 			; <UNDEFINED> instruction: 0x00009ab4
    37f8:	000005ac 	andeq	r0, r0, ip, lsr #11
    37fc:	05500112 	ldrbeq	r0, [r0, #-274]	; 0xfffffeee
    3800:	2150640c 	cmpcs	r0, ip, lsl #8
    3804:	10000020 	andne	r0, r0, r0, lsr #32
    3808:	00000977 	andeq	r0, r0, r7, ror r9
    380c:	2505b301 	strcs	fp, [r5, #-769]	; 0xfffffcff
    3810:	94000000 	strls	r0, [r0], #-0
    3814:	1000009a 	mulne	r0, sl, r0
    3818:	01000000 	mrseq	r0, (UNDEF: 0)
    381c:	0002189c 	muleq	r2, ip, r8
    3820:	9a9c0f00 	bls	fe707428 <__bss_end__+0xfe6fc678>
    3824:	05a00000 	streq	r0, [r0, #0]!
    3828:	a00f0000 	andge	r0, pc, r0
    382c:	0900009a 	stmdbeq	r0, {r1, r3, r4, r7}
    3830:	00000003 	andeq	r0, r0, r3
    3834:	0009b20e 	andeq	fp, r9, lr, lsl #4
    3838:	06ab0100 	strteq	r0, [fp], r0, lsl #2
    383c:	00009a64 	andeq	r9, r0, r4, ror #20
    3840:	00000030 	andeq	r0, r0, r0, lsr r0
    3844:	027c9c01 	rsbseq	r9, ip, #256	; 0x100
    3848:	63130000 	tstvs	r3, #0, 0
    384c:	19ab0100 	stmibne	fp!, {r8}
    3850:	0000002c 	andeq	r0, r0, ip, lsr #32
    3854:	000024e4 	andeq	r2, r0, r4, ror #9
    3858:	000024e0 	andeq	r2, r0, r0, ror #9
    385c:	009a700f 	addseq	r7, sl, pc
    3860:	0005a000 	andeq	sl, r5, r0
    3864:	9a740f00 	bls	1d0746c <__bss_end__+0x1cfc6bc>
    3868:	02db0000 	sbcseq	r0, fp, #0, 0
    386c:	88140000 	ldmdahi	r4, {}	; <UNPREDICTABLE>
    3870:	b800009a 	stmdalt	r0, {r1, r3, r4, r7}
    3874:	72000005 	andvc	r0, r0, #5, 0
    3878:	12000002 	andne	r0, r0, #2, 0
    387c:	0c055001 	stceq	0, cr5, [r5], {1}
    3880:	20215040 	eorcs	r5, r1, r0, asr #32
    3884:	05510112 	ldrbeq	r0, [r1, #-274]	; 0xfffffeee
    3888:	ff080074 			; <UNDEFINED> instruction: 0xff080074
    388c:	8c0f001a 	stchi	0, cr0, [pc], {26}
    3890:	a000009a 	mulge	r0, sl, r0
    3894:	00000005 	andeq	r0, r0, r5
    3898:	0008c810 	andeq	ip, r8, r0, lsl r8
    389c:	05a30100 	streq	r0, [r3, #256]!	; 0x100
    38a0:	00000025 	andeq	r0, r0, r5, lsr #32
    38a4:	00009a34 	andeq	r9, r0, r4, lsr sl
    38a8:	00000030 	andeq	r0, r0, r0, lsr r0
    38ac:	02db9c01 	sbcseq	r9, fp, #256	; 0x100
    38b0:	63150000 	tstvs	r5, #0, 0
    38b4:	09a70100 	stmibeq	r7!, {r8}
    38b8:	00000025 	andeq	r0, r0, r5, lsr #32
    38bc:	00002504 	andeq	r2, r0, r4, lsl #10
    38c0:	00002502 	andeq	r2, r0, r2, lsl #10
    38c4:	009a3c0f 	addseq	r3, sl, pc, lsl #24
    38c8:	0005a000 	andeq	sl, r5, r0
    38cc:	9a400f00 	bls	10074d4 <__bss_end__+0xffc724>
    38d0:	03090000 	movweq	r0, #36864	; 0x9000
    38d4:	50140000 	andspl	r0, r4, r0
    38d8:	ac00009a 	stcge	0, cr0, [r0], {154}	; 0x9a
    38dc:	d1000005 	tstle	r0, r5
    38e0:	12000002 	andne	r0, r0, #2, 0
    38e4:	0c055001 	stceq	0, cr5, [r5], {1}
    38e8:	20215040 	eorcs	r5, r1, r0, asr #32
    38ec:	9a580f00 	bls	16074f4 <__bss_end__+0x15fc744>
    38f0:	05a00000 	streq	r0, [r0, #0]!
    38f4:	10000000 	andne	r0, r0, r0
    38f8:	00000818 	andeq	r0, r0, r8, lsl r8
    38fc:	25059401 	strcs	r9, [r5, #-1025]	; 0xfffffbff
    3900:	14000000 	strne	r0, [r0], #-0
    3904:	2000009a 	mulcs	r0, sl, r0
    3908:	01000000 	mrseq	r0, (UNDEF: 0)
    390c:	0003099c 	muleq	r3, ip, r9
    3910:	9a201100 	bls	807d18 <__bss_end__+0x7fcf68>
    3914:	05ac0000 	streq	r0, [ip, #0]!
    3918:	01120000 	tsteq	r2, r0
    391c:	640c0550 	strvs	r0, [ip], #-1360	; 0xfffffab0
    3920:	00202150 	eoreq	r2, r0, r0, asr r1
    3924:	07e61000 	strbeq	r1, [r6, r0]!
    3928:	8b010000 	blhi	43930 <__bss_end__+0x38b80>
    392c:	00002505 	andeq	r2, r0, r5, lsl #10
    3930:	0099fc00 	addseq	pc, r9, r0, lsl #24
    3934:	00001800 	andeq	r1, r0, r0, lsl #16
    3938:	379c0100 	ldrcc	r0, [ip, r0, lsl #2]
    393c:	11000003 	tstne	r0, r3
    3940:	00009a08 	andeq	r9, r0, r8, lsl #20
    3944:	000005ac 	andeq	r0, r0, ip, lsr #11
    3948:	05500112 	ldrbeq	r0, [r0, #-274]	; 0xfffffeee
    394c:	2150640c 	cmpcs	r0, ip, lsl #8
    3950:	0e000020 	cdpeq	0, 0, cr0, cr0, cr0, {1}
    3954:	000006ad 	andeq	r0, r0, sp, lsr #13
    3958:	4c064501 	cfstr32mi	mvfx4, [r6], {1}
    395c:	b0000099 	mullt	r0, r9, r0
    3960:	01000000 	mrseq	r0, (UNDEF: 0)
    3964:	0004849c 	muleq	r4, ip, r4
    3968:	07d81600 	ldrbeq	r1, [r8, r0, lsl #12]
    396c:	7e010000 	cdpvc	0, 0, cr0, cr1, cr0, {0}
    3970:	0000620e 	andeq	r6, r0, lr, lsl #4
    3974:	14010e00 	strne	r0, [r1], #-3584	; 0xfffff200
    3978:	0000995c 	andeq	r9, r0, ip, asr r9
    397c:	000005c4 	andeq	r0, r0, r4, asr #11
    3980:	00000373 	andeq	r0, r0, r3, ror r3
    3984:	01500112 	cmpeq	r0, r2, lsl r1
    3988:	5101123e 	tstpl	r1, lr, lsr r2
    398c:	14003201 	strne	r3, [r0], #-513	; 0xfffffdff
    3990:	00009968 	andeq	r9, r0, r8, ror #18
    3994:	000005c4 	andeq	r0, r0, r4, asr #11
    3998:	0000038b 	andeq	r0, r0, fp, lsl #7
    399c:	01500112 	cmpeq	r0, r2, lsl r1
    39a0:	5101123f 	tstpl	r1, pc, lsr r2
    39a4:	0f003201 	svceq	0x00003201
    39a8:	0000996c 	andeq	r9, r0, ip, ror #18
    39ac:	000005a0 	andeq	r0, r0, r0, lsr #11
    39b0:	00997814 	addseq	r7, r9, r4, lsl r8
    39b4:	00053d00 	andeq	r3, r5, r0, lsl #26
    39b8:	0003b000 	andeq	fp, r3, r0
    39bc:	50011200 	andpl	r1, r1, r0, lsl #4
    39c0:	50040c05 	andpl	r0, r4, r5, lsl #24
    39c4:	01122021 	tsteq	r2, r1, lsr #32
    39c8:	00310151 	eorseq	r0, r1, r1, asr r1
    39cc:	00997c0f 	addseq	r7, r9, pc, lsl #24
    39d0:	0005a000 	andeq	sl, r5, r0
    39d4:	998c1400 	stmibls	ip, {sl, ip}
    39d8:	05b80000 	ldreq	r0, [r8, #0]!
    39dc:	03d20000 	bicseq	r0, r2, #0, 0
    39e0:	01120000 	tsteq	r2, r0
    39e4:	00740250 	rsbseq	r0, r4, r0, asr r2
    39e8:	01510112 	cmpeq	r1, r2, lsl r1
    39ec:	98140030 	ldmdals	r4, {r4, r5}
    39f0:	b8000099 	stmdalt	r0, {r0, r3, r4, r7}
    39f4:	ee000005 	cdp	0, 0, cr0, cr0, cr5, {0}
    39f8:	12000003 	andne	r0, r0, #3, 0
    39fc:	0c055001 	stceq	0, cr5, [r5], {1}
    3a00:	20215044 	eorcs	r5, r1, r4, asr #32
    3a04:	01510112 	cmpeq	r1, r2, lsl r1
    3a08:	a4140030 	ldrge	r0, [r4], #-48	; 0xffffffd0
    3a0c:	b8000099 	stmdalt	r0, {r0, r3, r4, r7}
    3a10:	0a000005 	beq	3a2c <__code_start__-0x45d4>
    3a14:	12000004 	andne	r0, r0, #4, 0
    3a18:	0c055001 	stceq	0, cr5, [r5], {1}
    3a1c:	2021504c 	eorcs	r5, r1, ip, asr #32
    3a20:	01510112 	cmpeq	r1, r2, lsl r1
    3a24:	b0140033 	andslt	r0, r4, r3, lsr r0
    3a28:	b8000099 	stmdalt	r0, {r0, r3, r4, r7}
    3a2c:	26000005 	strcs	r0, [r0], -r5
    3a30:	12000004 	andne	r0, r0, #4, 0
    3a34:	0c055001 	stceq	0, cr5, [r5], {1}
    3a38:	20215050 	eorcs	r5, r1, r0, asr r0
    3a3c:	01510112 	cmpeq	r1, r2, lsl r1
    3a40:	bc140030 	ldclt	0, cr0, [r4], {48}	; 0x30
    3a44:	b8000099 	stmdalt	r0, {r0, r3, r4, r7}
    3a48:	43000005 	movwmi	r0, #5
    3a4c:	12000004 	andne	r0, r0, #4, 0
    3a50:	0c055001 	stceq	0, cr5, [r5], {1}
    3a54:	20215048 	eorcs	r5, r1, r8, asr #32
    3a58:	02510112 	subseq	r0, r1, #-2147483644	; 0x80000004
    3a5c:	1400c708 	strne	ip, [r0], #-1800	; 0xfffff8f8
    3a60:	000099c8 	andeq	r9, r0, r8, asr #19
    3a64:	000005b8 			; <UNDEFINED> instruction: 0x000005b8
    3a68:	00000461 	andeq	r0, r0, r1, ror #8
    3a6c:	05500112 	ldrbeq	r0, [r0, #-274]	; 0xfffffeee
    3a70:	2150680c 	cmpcs	r0, ip, lsl #16
    3a74:	51011220 	tstpl	r1, r0, lsr #4
    3a78:	010e0a03 	tsteq	lr, r3, lsl #20
    3a7c:	99d41400 	ldmibls	r4, {sl, ip}^
    3a80:	05b80000 	ldreq	r0, [r8, #0]!
    3a84:	047a0000 	ldrbteq	r0, [sl], #-0
    3a88:	01120000 	tsteq	r2, r0
    3a8c:	00740250 	rsbseq	r0, r4, r0, asr r2
    3a90:	01510112 	cmpeq	r1, r2, lsl r1
    3a94:	d80f0033 	stmdale	pc, {r0, r1, r4, r5}	; <UNPREDICTABLE>
    3a98:	a0000099 	mulge	r0, r9, r0
    3a9c:	00000005 	andeq	r0, r0, r5
    3aa0:	00096a0e 	andeq	r6, r9, lr, lsl #20
    3aa4:	06350100 	ldrteq	r0, [r5], -r0, lsl #2
    3aa8:	00009ad8 	ldrdeq	r9, [r0], -r8
    3aac:	00000024 	andeq	r0, r0, r4, lsr #32
    3ab0:	04d39c01 	ldrbeq	r9, [r3], #3073	; 0xc01
    3ab4:	e00f0000 	and	r0, pc, r0
    3ab8:	9400009a 	strls	r0, [r0], #-154	; 0xffffff66
    3abc:	0f000001 	svceq	0x00000001
    3ac0:	00009ae4 	andeq	r9, r0, r4, ror #21
    3ac4:	000005a0 	andeq	r0, r0, r0, lsr #11
    3ac8:	009af014 	addseq	pc, sl, r4, lsl r0	; <UNPREDICTABLE>
    3acc:	0004d300 	andeq	sp, r4, r0, lsl #6
    3ad0:	0004c900 	andeq	ip, r4, r0, lsl #18
    3ad4:	50011200 	andpl	r1, r1, r0, lsl #4
    3ad8:	50040c05 	andpl	r0, r4, r5, lsl #24
    3adc:	01122021 	tsteq	r2, r1, lsr #32
    3ae0:	fe090251 	mcr2	2, 0, r0, cr9, cr1, {2}
    3ae4:	9af40f00 	bls	ffd076ec <__bss_end__+0xffcfc93c>
    3ae8:	05a00000 	streq	r0, [r0, #0]!
    3aec:	17000000 	strne	r0, [r0, -r0]
    3af0:	000009a9 	andeq	r0, r0, r9, lsr #19
    3af4:	0c0d3101 	stfeqs	f3, [sp], {1}
    3af8:	20000099 	mulcs	r0, r9, r0
    3afc:	01000000 	mrseq	r0, (UNDEF: 0)
    3b00:	0005369c 	muleq	r5, ip, r6
    3b04:	0a031800 	beq	c9b0c <__bss_end__+0xbed5c>
    3b08:	31010000 	mrscc	r0, (UNDEF: 1)
    3b0c:	00053625 	andeq	r3, r5, r5, lsr #12
    3b10:	00251b00 	eoreq	r1, r5, r0, lsl #22
    3b14:	00251700 	eoreq	r1, r5, r0, lsl #14
    3b18:	61761300 	cmnvs	r6, r0, lsl #6
    3b1c:	3101006c 	tstcc	r1, ip, rrx
    3b20:	00002c34 	andeq	r2, r0, r4, lsr ip
    3b24:	00253d00 	eoreq	r3, r5, r0, lsl #26
    3b28:	00253900 	eoreq	r3, r5, r0, lsl #18
    3b2c:	991c1400 	ldmdbls	ip, {sl, ip}
    3b30:	05ac0000 	streq	r0, [ip, #0]!
    3b34:	05250000 	streq	r0, [r5, #-0]!
    3b38:	01120000 	tsteq	r2, r0
    3b3c:	00740250 	rsbseq	r0, r4, r0, asr r2
    3b40:	99281100 	stmdbls	r8!, {r8, ip}
    3b44:	05b80000 	ldreq	r0, [r8, #0]!
    3b48:	01120000 	tsteq	r2, r0
    3b4c:	00740250 	rsbseq	r0, r4, r0, asr r2
    3b50:	040c0000 	streq	r0, [ip], #-0
    3b54:	0000053c 	andeq	r0, r0, ip, lsr r5
    3b58:	09941719 	ldmibeq	r4, {r0, r3, r4, r8, r9, sl, ip}
    3b5c:	2e010000 	cdpcs	0, 0, cr0, cr1, cr0, {0}
    3b60:	00992c0d 	addseq	r2, r9, sp, lsl #24
    3b64:	00002000 	andeq	r2, r0, r0
    3b68:	a09c0100 	addsge	r0, ip, r0, lsl #2
    3b6c:	18000005 	stmdane	r0, {r0, r2}
    3b70:	00000a03 	andeq	r0, r0, r3, lsl #20
    3b74:	36242e01 	strtcc	r2, [r4], -r1, lsl #28
    3b78:	5f000005 	svcpl	0x00000005
    3b7c:	5b000025 	blpl	3c18 <__code_start__-0x43e8>
    3b80:	13000025 	movwne	r0, #37	; 0x25
    3b84:	006c6176 	rsbeq	r6, ip, r6, ror r1
    3b88:	2c332e01 	ldccs	14, cr2, [r3], #-4
    3b8c:	81000000 	mrshi	r0, (UNDEF: 0)
    3b90:	7d000025 	stcvc	0, cr0, [r0, #-148]	; 0xffffff6c
    3b94:	14000025 	strne	r0, [r0], #-37	; 0xffffffdb
    3b98:	0000993c 	andeq	r9, r0, ip, lsr r9
    3b9c:	000005ac 	andeq	r0, r0, ip, lsr #11
    3ba0:	0000058f 	andeq	r0, r0, pc, lsl #11
    3ba4:	02500112 	subseq	r0, r0, #-2147483644	; 0x80000004
    3ba8:	11000074 	tstne	r0, r4, ror r0
    3bac:	00009948 	andeq	r9, r0, r8, asr #18
    3bb0:	000005b8 			; <UNDEFINED> instruction: 0x000005b8
    3bb4:	02500112 	subseq	r0, r0, #-2147483644	; 0x80000004
    3bb8:	00000074 	andeq	r0, r0, r4, ror r0
    3bbc:	0007771a 	andeq	r7, r7, sl, lsl r7
    3bc0:	00077700 	andeq	r7, r7, r0, lsl #14
    3bc4:	069c0300 	ldreq	r0, [ip], r0, lsl #6
    3bc8:	0009de1a 	andeq	sp, r9, sl, lsl lr
    3bcc:	0009de00 	andeq	sp, r9, r0, lsl #28
    3bd0:	0bc30300 	bleq	ff0c47d8 <__bss_end__+0xff0b9a28>
    3bd4:	0007d21a 	andeq	sp, r7, sl, lsl r2
    3bd8:	0007d200 	andeq	sp, r7, r0, lsl #4
    3bdc:	06ae0300 	strteq	r0, [lr], r0, lsl #6
    3be0:	0009cc1a 	andeq	ip, r9, sl, lsl ip
    3be4:	0009cc00 	andeq	ip, r9, r0, lsl #24
    3be8:	06190400 	ldreq	r0, [r9], -r0, lsl #8
    3bec:	0008e900 	andeq	lr, r8, r0, lsl #18
    3bf0:	f0000400 			; <UNDEFINED> instruction: 0xf0000400
    3bf4:	04000014 	streq	r0, [r0], #-20	; 0xffffffec
    3bf8:	0008d201 	andeq	sp, r8, r1, lsl #4
    3bfc:	0a6e0c00 	beq	1b86c04 <__bss_end__+0x1b7be54>
    3c00:	08820000 	stmeq	r2, {}	; <UNPREDICTABLE>
    3c04:	9afc0000 	bls	fff03c0c <__bss_end__+0xffef8e5c>
    3c08:	03b00000 	movseq	r0, #0, 0
    3c0c:	1e900000 	cdpne	0, 9, cr0, cr0, cr0, {0}
    3c10:	04020000 	streq	r0, [r2], #-0
    3c14:	746e6905 	strbtvc	r6, [lr], #-2309	; 0xfffff6fb
    3c18:	07040300 	streq	r0, [r4, -r0, lsl #6]
    3c1c:	00000097 	muleq	r0, r7, r0
    3c20:	48060103 	stmdami	r6, {r0, r1, r8}
    3c24:	03000000 	movweq	r0, #0
    3c28:	00e40502 	rsceq	r0, r4, r2, lsl #10
    3c2c:	04030000 	streq	r0, [r3], #-0
    3c30:	0000a905 	andeq	sl, r0, r5, lsl #18
    3c34:	05080300 	streq	r0, [r8, #-768]	; 0xfffffd00
    3c38:	000000a4 	andeq	r0, r0, r4, lsr #1
    3c3c:	46080103 	strmi	r0, [r8], -r3, lsl #2
    3c40:	03000000 	movweq	r0, #0
    3c44:	00540702 	subseq	r0, r4, r2, lsl #14
    3c48:	43040000 	movwmi	r0, #16384	; 0x4000
    3c4c:	03000002 	movweq	r0, #2
    3c50:	00691934 	rsbeq	r1, r9, r4, lsr r9
    3c54:	04030000 	streq	r0, [r3], #-0
    3c58:	00009207 	andeq	r9, r0, r7, lsl #4
    3c5c:	07080300 	streq	r0, [r8, -r0, lsl #6]
    3c60:	0000008d 	andeq	r0, r0, sp, lsl #1
    3c64:	4f080103 	svcmi	0x00080103
    3c68:	05000000 	streq	r0, [r0, #-0]
    3c6c:	00000077 	andeq	r0, r0, r7, ror r0
    3c70:	ef040803 	svc	0x00040803
    3c74:	06000002 	streq	r0, [r0], -r2
    3c78:	04070704 	streq	r0, [r7], #-1796	; 0xfffff8fc
    3c7c:	0000002c 	andeq	r0, r0, ip, lsr #32
    3c80:	a4061f01 	strge	r1, [r6], #-3841	; 0xfffff0ff
    3c84:	08000000 	stmdaeq	r0, {}	; <UNPREDICTABLE>
    3c88:	00000a08 	andeq	r0, r0, r8, lsl #20
    3c8c:	00200000 	eoreq	r0, r0, r0
    3c90:	05d80900 	ldrbeq	r0, [r8, #2304]	; 0x900
    3c94:	22010000 	andcs	r0, r1, #0, 0
    3c98:	0000770d 	andeq	r7, r0, sp, lsl #14
    3c9c:	03c40a00 	biceq	r0, r4, #0, 20
    3ca0:	23010000 	movwcs	r0, #4096	; 0x1000
    3ca4:	0000c20e 	andeq	ip, r0, lr, lsl #4
    3ca8:	78030500 	stmdavc	r3, {r8, sl}
    3cac:	0b0000a9 	bleq	3f58 <__code_start__-0x40a8>
    3cb0:	00007704 	andeq	r7, r0, r4, lsl #14
    3cb4:	09ec0a00 	stmibeq	ip!, {r9, fp}^
    3cb8:	24010000 	strcs	r0, [r1], #-0
    3cbc:	0000c20e 	andeq	ip, r0, lr, lsl #4
    3cc0:	7c030500 	cfstr32vc	mvfx0, [r3], {-0}
    3cc4:	0a0000a9 	beq	3f70 <__code_start__-0x4090>
    3cc8:	00000a4d 	andeq	r0, r0, sp, asr #20
    3ccc:	c20e2501 	andgt	r2, lr, #4194304	; 0x400000
    3cd0:	05000000 	streq	r0, [r0, #-0]
    3cd4:	00a98003 	adceq	r8, r9, r3
    3cd8:	0a230c00 	beq	8c6ce0 <__bss_end__+0x8bbf30>
    3cdc:	75010000 	strvc	r0, [r1, #-0]
    3ce0:	009e4c06 	addseq	r4, lr, r6, lsl #24
    3ce4:	00006000 	andeq	r6, r0, r0
    3ce8:	649c0100 	ldrvs	r0, [ip], #256	; 0x100
    3cec:	0d000001 	stceq	0, cr0, [r0, #-4]
    3cf0:	75010070 	strvc	r0, [r1, #-112]	; 0xffffff90
    3cf4:	00008a16 	andeq	r8, r0, r6, lsl sl
    3cf8:	0025a500 	eoreq	sl, r5, r0, lsl #10
    3cfc:	00259f00 	eoreq	r9, r5, r0, lsl #30
    3d00:	00730e00 	rsbseq	r0, r3, r0, lsl #28
    3d04:	01740000 	cmneq	r4, r0
    3d08:	03050000 	movweq	r0, #20480	; 0x5000
    3d0c:	0000a968 	andeq	sl, r0, r8, ror #18
    3d10:	009e980f 	addseq	r9, lr, pc, lsl #16
    3d14:	0008bc00 	andeq	fp, r8, r0, lsl #24
    3d18:	00015a00 	andeq	r5, r1, r0, lsl #20
    3d1c:	50011000 	andpl	r1, r1, r0
    3d20:	a8e00305 	stmiage	r0!, {r0, r2, r8, r9}^
    3d24:	01100000 	tsteq	r0, r0
    3d28:	78030551 	stmdavc	r3, {r0, r4, r6, r8, sl}
    3d2c:	100000a7 	andne	r0, r0, r7, lsr #1
    3d30:	03055201 	movweq	r5, #20993	; 0x5201
    3d34:	0000a968 	andeq	sl, r0, r8, ror #18
    3d38:	02530110 	subseq	r0, r3, #4
    3d3c:	02107708 	andseq	r7, r0, #8, 14	; 0x200000
    3d40:	f303007d 	vqadd.u8	q0, <illegal reg q1.5>, <illegal reg q14.5>
    3d44:	11005001 	tstne	r0, r1
    3d48:	00009e9c 	muleq	r0, ip, lr
    3d4c:	000008c8 	andeq	r0, r0, r8, asr #17
    3d50:	007e1200 	rsbseq	r1, lr, r0, lsl #4
    3d54:	01740000 	cmneq	r4, r0
    3d58:	2c130000 	ldccs	0, cr0, [r3], {-0}
    3d5c:	09000000 	stmdbeq	r0, {}	; <UNPREDICTABLE>
    3d60:	01640500 	cmneq	r4, r0, lsl #10
    3d64:	11140000 	tstne	r4, r0
    3d68:	0100000a 	tsteq	r0, sl
    3d6c:	9e380672 	mrcls	6, 1, r0, cr8, cr2, {3}
    3d70:	00140000 	andseq	r0, r4, r0
    3d74:	9c010000 	stcls	0, cr0, [r1], {-0}
    3d78:	0001f70c 	andeq	pc, r1, ip, lsl #14
    3d7c:	066f0100 	strbteq	r0, [pc], -r0, lsl #2
    3d80:	00009e34 	andeq	r9, r0, r4, lsr lr
    3d84:	00000004 	andeq	r0, r0, r4
    3d88:	01ae9c01 			; <UNDEFINED> instruction: 0x01ae9c01
    3d8c:	70150000 	andsvc	r0, r5, r0
    3d90:	126f0100 	rsbne	r0, pc, #0
    3d94:	0000008a 	andeq	r0, r0, sl, lsl #1
    3d98:	16005001 	strne	r5, [r0], -r1
    3d9c:	00000ab0 			; <UNDEFINED> instruction: 0x00000ab0
    3da0:	8a075e01 	bhi	1db5ac <__bss_end__+0x1d07fc>
    3da4:	1c000000 	stcne	0, cr0, [r0], {-0}
    3da8:	1800009d 	stmdane	r0, {r0, r2, r3, r4, r7}
    3dac:	01000001 	tsteq	r0, r1
    3db0:	00042c9c 	muleq	r4, ip, ip
    3db4:	02b21700 	adcseq	r1, r2, #0, 14
    3db8:	5e010000 	cdppl	0, 0, cr0, cr1, cr0, {0}
    3dbc:	00002c20 	andeq	r2, r0, r0, lsr #24
    3dc0:	0025e600 	eoreq	lr, r5, r0, lsl #12
    3dc4:	0025d200 	eoreq	sp, r5, r0, lsl #4
    3dc8:	0a2d1700 	beq	b499d0 <__bss_end__+0xb3ec20>
    3dcc:	5e010000 	cdppl	0, 0, cr0, cr1, cr0, {0}
    3dd0:	00002c31 	andeq	r2, r0, r1, lsr ip
    3dd4:	00267f00 	eoreq	r7, r6, r0, lsl #30
    3dd8:	00266b00 	eoreq	r6, r6, r0, lsl #22
    3ddc:	00730e00 	rsbseq	r0, r3, r0, lsl #28
    3de0:	043c0000 	ldrteq	r0, [ip], #-0
    3de4:	03050000 	movweq	r0, #20480	; 0x5000
    3de8:	0000a950 	andeq	sl, r0, r0, asr r9
    3dec:	01006818 	tsteq	r0, r8, lsl r8
    3df0:	002c0e66 	eoreq	r0, ip, r6, ror #28
    3df4:	27350000 	ldrcs	r0, [r5, -r0]!
    3df8:	27290000 	strcs	r0, [r9, -r0]!
    3dfc:	54190000 	ldrpl	r0, [r9], #-0
    3e00:	2c000008 	stccs	0, cr0, [r0], {8}
    3e04:	0400009d 	streq	r0, [r0], #-157	; 0xffffff63
    3e08:	00009d2c 	andeq	r9, r0, ip, lsr #26
    3e0c:	00000004 	andeq	r0, r0, r4
    3e10:	38056001 	stmdacc	r5, {r0, sp, lr}
    3e14:	1a000002 	bne	3e24 <__code_start__-0x41dc>
    3e18:	00000865 	andeq	r0, r0, r5, ror #16
    3e1c:	00002789 	andeq	r2, r0, r9, lsl #15
    3e20:	00002787 	andeq	r2, r0, r7, lsl #15
    3e24:	08961900 	ldmeq	r6, {r8, fp, ip}
    3e28:	9d380000 	ldcls	0, cr0, [r8, #-0]
    3e2c:	38020000 	stmdacc	r2, {}	; <UNPREDICTABLE>
    3e30:	0800009d 	stmdaeq	r0, {r0, r2, r3, r4, r7}
    3e34:	01000000 	mrseq	r0, (UNDEF: 0)
    3e38:	026c1161 	rsbeq	r1, ip, #1073741848	; 0x40000018
    3e3c:	b11a0000 	tstlt	sl, r0
    3e40:	9e000008 	cdpls	0, 0, cr0, cr0, cr8, {0}
    3e44:	9c000027 	stcls	0, cr0, [r0], {39}	; 0x27
    3e48:	1a000027 	bne	3eec <__code_start__-0x4114>
    3e4c:	000008a7 	andeq	r0, r0, r7, lsr #17
    3e50:	000027b4 			; <UNDEFINED> instruction: 0x000027b4
    3e54:	000027b2 			; <UNDEFINED> instruction: 0x000027b2
    3e58:	081f1b00 	ldmdaeq	pc, {r8, r9, fp, ip}	; <UNPREDICTABLE>
    3e5c:	9d480000 	stclls	0, cr0, [r8, #-0]
    3e60:	c8010000 	stmdagt	r1, {}	; <UNPREDICTABLE>
    3e64:	01000003 	tsteq	r0, r3
    3e68:	030a0967 	movweq	r0, #43367	; 0xa967
    3e6c:	3a1a0000 	bcc	683e74 <__bss_end__+0x6790c4>
    3e70:	cd000008 	stcgt	0, cr0, [r0, #-32]	; 0xffffffe0
    3e74:	c7000027 	strgt	r0, [r0, -r7, lsr #32]
    3e78:	1a000027 	bne	3f1c <__code_start__-0x40e4>
    3e7c:	00000830 	andeq	r0, r0, r0, lsr r8
    3e80:	00002814 	andeq	r2, r0, r4, lsl r8
    3e84:	0000280c 	andeq	r2, r0, ip, lsl #16
    3e88:	0003c81c 	andeq	ip, r3, ip, lsl r8
    3e8c:	08541900 	ldmdaeq	r4, {r8, fp, ip}^
    3e90:	9d480000 	stclls	0, cr0, [r8, #-0]
    3e94:	48040000 	stmdami	r4, {}	; <UNPREDICTABLE>
    3e98:	0400009d 	streq	r0, [r0], #-157	; 0xffffff63
    3e9c:	01000000 	mrseq	r0, (UNDEF: 0)
    3ea0:	02c70511 	sbceq	r0, r7, #71303168	; 0x4400000
    3ea4:	651a0000 	ldrvs	r0, [sl, #-0]
    3ea8:	52000008 	andpl	r0, r0, #8, 0
    3eac:	50000028 	andpl	r0, r0, r8, lsr #32
    3eb0:	00000028 	andeq	r0, r0, r8, lsr #32
    3eb4:	009de00f 	addseq	lr, sp, pc
    3eb8:	0008bc00 	andeq	fp, r8, r0, lsl #24
    3ebc:	0002ff00 	andeq	pc, r2, r0, lsl #30
    3ec0:	50011000 	andpl	r1, r1, r0
    3ec4:	a1d40305 	bicsge	r0, r4, r5, lsl #6
    3ec8:	01100000 	tsteq	r0, r0
    3ecc:	78030551 	stmdavc	r3, {r0, r4, r6, r8, sl}
    3ed0:	100000a7 	andne	r0, r0, r7, lsr #1
    3ed4:	03055201 	movweq	r5, #20993	; 0x5201
    3ed8:	0000a960 	andeq	sl, r0, r0, ror #18
    3edc:	01530110 	cmpeq	r3, r0, lsl r1
    3ee0:	7d021041 	stcvc	0, cr1, [r2, #-260]	; 0xfffffefc
    3ee4:	8c030500 	cfstr32hi	mvfx0, [r3], {-0}
    3ee8:	000000a8 	andeq	r0, r0, r8, lsr #1
    3eec:	009de411 	addseq	lr, sp, r1, lsl r4
    3ef0:	0008c800 	andeq	ip, r8, r0, lsl #16
    3ef4:	19000000 	stmdbne	r0, {}	; <UNPREDICTABLE>
    3ef8:	00000870 	andeq	r0, r0, r0, ror r8
    3efc:	00009d60 	andeq	r9, r0, r0, ror #26
    3f00:	009d6003 	addseq	r6, sp, r3
    3f04:	00000400 	andeq	r0, r0, r0, lsl #8
    3f08:	05680100 	strbeq	r0, [r8, #-256]!	; 0xffffff00
    3f0c:	0000033e 	andeq	r0, r0, lr, lsr r3
    3f10:	00088b1a 	andeq	r8, r8, sl, lsl fp
    3f14:	00286700 	eoreq	r6, r8, r0, lsl #14
    3f18:	00286500 	eoreq	r6, r8, r0, lsl #10
    3f1c:	08811a00 	stmeq	r1, {r9, fp, ip}
    3f20:	287c0000 	ldmdacs	ip!, {}^	; <UNPREDICTABLE>
    3f24:	287a0000 	ldmdacs	sl!, {}^	; <UNPREDICTABLE>
    3f28:	0f000000 	svceq	0x00000000
    3f2c:	00009d78 	andeq	r9, r0, r8, ror sp
    3f30:	00000441 	andeq	r0, r0, r1, asr #8
    3f34:	00000353 	andeq	r0, r0, r3, asr r3
    3f38:	03500110 	cmpeq	r0, #4
    3f3c:	005001f3 	ldrsheq	r0, [r0], #-19	; 0xffffffed
    3f40:	009d9c0f 	addseq	r9, sp, pc, lsl #24
    3f44:	0008bc00 	andeq	fp, r8, r0, lsl #24
    3f48:	00038c00 	andeq	r8, r3, r0, lsl #24
    3f4c:	50011000 	andpl	r1, r1, r0
    3f50:	a1d40305 	bicsge	r0, r4, r5, lsl #6
    3f54:	01100000 	tsteq	r0, r0
    3f58:	78030551 	stmdavc	r3, {r0, r4, r6, r8, sl}
    3f5c:	100000a7 	andne	r0, r0, r7, lsr #1
    3f60:	03055201 	movweq	r5, #20993	; 0x5201
    3f64:	0000a950 	andeq	sl, r0, r0, asr r9
    3f68:	02530110 	subseq	r0, r3, #4
    3f6c:	02105f08 	andseq	r5, r0, #8, 30
    3f70:	0305007d 	movweq	r0, #20605	; 0x507d
    3f74:	0000a788 	andeq	sl, r0, r8, lsl #15
    3f78:	9da01100 	stflss	f1, [r0]
    3f7c:	08c80000 	stmiaeq	r8, {}^	; <UNPREDICTABLE>
    3f80:	a4110000 	ldrge	r0, [r1], #-0
    3f84:	d400009d 	strle	r0, [r0], #-157	; 0xffffff63
    3f88:	0f000008 	svceq	0x00000008
    3f8c:	00009dc0 	andeq	r9, r0, r0, asr #27
    3f90:	000008bc 			; <UNDEFINED> instruction: 0x000008bc
    3f94:	000003d7 	ldrdeq	r0, [r0], -r7
    3f98:	05500110 	ldrbeq	r0, [r0, #-272]	; 0xfffffef0
    3f9c:	00a84403 	adceq	r4, r8, r3, lsl #8
    3fa0:	51011000 	mrspl	r1, (UNDEF: 1)
    3fa4:	a7780305 	ldrbge	r0, [r8, -r5, lsl #6]!
    3fa8:	01100000 	tsteq	r0, r0
    3fac:	50030552 	andpl	r0, r3, r2, asr r5
    3fb0:	100000a9 	andne	r0, r0, r9, lsr #1
    3fb4:	08025301 	stmdaeq	r2, {r0, r8, r9, ip, lr}
    3fb8:	7d021060 	stcvc	0, cr1, [r2, #-384]	; 0xfffffe80
    3fbc:	78030500 	stmdavc	r3, {r8, sl}
    3fc0:	000000a8 	andeq	r0, r0, r8, lsr #1
    3fc4:	009dc411 	addseq	ip, sp, r1, lsl r4
    3fc8:	0008c800 	andeq	ip, r8, r0, lsl #16
    3fcc:	9de81100 	stflse	f1, [r8]
    3fd0:	08d40000 	ldmeq	r4, {}^	; <UNPREDICTABLE>
    3fd4:	040f0000 	streq	r0, [pc], #-0	; 3fdc <__code_start__-0x4024>
    3fd8:	bc00009e 	stclt	0, cr0, [r0], {158}	; 0x9e
    3fdc:	22000008 	andcs	r0, r0, #8, 0
    3fe0:	10000004 	andne	r0, r0, r4
    3fe4:	03055001 	movweq	r5, #20481	; 0x5001
    3fe8:	0000a898 	muleq	r0, r8, r8
    3fec:	05510110 	ldrbeq	r0, [r1, #-272]	; 0xfffffef0
    3ff0:	00a77803 	adceq	r7, r7, r3, lsl #16
    3ff4:	52011000 	andpl	r1, r1, #0, 0
    3ff8:	a9500305 	ldmdbge	r0, {r0, r2, r8, r9}^
    3ffc:	01100000 	tsteq	r0, r0
    4000:	68080253 	stmdavs	r8, {r0, r1, r4, r6, r9}
    4004:	007d0210 	rsbseq	r0, sp, r0, lsl r2
    4008:	a8c40305 	stmiage	r4, {r0, r2, r8, r9}^
    400c:	11000000 	mrsne	r0, (UNDEF: 0)
    4010:	00009e08 	andeq	r9, r0, r8, lsl #28
    4014:	000008c8 	andeq	r0, r0, r8, asr #17
    4018:	007e1200 	rsbseq	r1, lr, r0, lsl #4
    401c:	043c0000 	ldrteq	r0, [ip], #-0
    4020:	2c130000 	ldccs	0, cr0, [r3], {-0}
    4024:	0f000000 	svceq	0x00000000
    4028:	042c0500 	strteq	r0, [ip], #-1280	; 0xfffffb00
    402c:	f5160000 			; <UNDEFINED> instruction: 0xf5160000
    4030:	01000003 	tsteq	r0, r3
    4034:	008a0753 	addeq	r0, sl, r3, asr r7
    4038:	9cb80000 	ldcls	0, cr0, [r8]
    403c:	00640000 	rsbeq	r0, r4, r0
    4040:	9c010000 	stcls	0, cr0, [r1], {-0}
    4044:	00000508 	andeq	r0, r0, r8, lsl #10
    4048:	0002b217 	andeq	fp, r2, r7, lsl r2
    404c:	18530100 	ldmdane	r3, {r8}^
    4050:	0000002c 	andeq	r0, r0, ip, lsr #32
    4054:	00002897 	muleq	r0, r7, r8
    4058:	0000288f 	andeq	r2, r0, pc, lsl #17
    405c:	0000730e 	andeq	r7, r0, lr, lsl #6
    4060:	00051800 	andeq	r1, r5, r0, lsl #16
    4064:	48030500 	stmdami	r3, {r8, sl}
    4068:	1d0000a9 	stcne	0, cr0, [r0, #-676]	; 0xfffffd5c
    406c:	00000a03 	andeq	r0, r0, r3, lsl #20
    4070:	8a0b5501 	bhi	2d947c <__bss_end__+0x2ce6cc>
    4074:	cf000000 	svcgt	0x00000000
    4078:	cb000028 	blgt	4120 <__code_start__-0x3ee0>
    407c:	0f000028 	svceq	0x00000028
    4080:	00009cd0 	ldrdeq	r9, [r0], -r0
    4084:	0000051d 	andeq	r0, r0, sp, lsl r5
    4088:	000004a6 	andeq	r0, r0, r6, lsr #9
    408c:	02500110 	subseq	r0, r0, #4
    4090:	0f000074 	svceq	0x00000074
    4094:	00009ce0 	andeq	r9, r0, r0, ror #25
    4098:	000008e0 	andeq	r0, r0, r0, ror #17
    409c:	000004c5 	andeq	r0, r0, r5, asr #9
    40a0:	02500110 	subseq	r0, r0, #4
    40a4:	01100075 	tsteq	r0, r5, ror r0
    40a8:	10300151 	eorsne	r0, r0, r1, asr r1
    40ac:	74025201 	strvc	r5, [r2], #-513	; 0xfffffdff
    40b0:	080f0000 	stmdaeq	pc, {}	; <UNPREDICTABLE>
    40b4:	bc00009d 	stclt	0, cr0, [r0], {157}	; 0x9d
    40b8:	fe000008 	cdp2	0, 0, cr0, cr0, cr8, {0}
    40bc:	10000004 	andne	r0, r0, r4
    40c0:	03055001 	movweq	r5, #20481	; 0x5001
    40c4:	0000a1d4 	ldrdeq	sl, [r0], -r4
    40c8:	05510110 	ldrbeq	r0, [r1, #-272]	; 0xfffffef0
    40cc:	00a77803 	adceq	r7, r7, r3, lsl #16
    40d0:	52011000 	andpl	r1, r1, #0, 0
    40d4:	a9480305 	stmdbge	r8, {r0, r2, r8, r9}^
    40d8:	01100000 	tsteq	r0, r0
    40dc:	54080253 	strpl	r0, [r8], #-595	; 0xfffffdad
    40e0:	007d0210 	rsbseq	r0, sp, r0, lsl r2
    40e4:	a7880305 	strge	r0, [r8, r5, lsl #6]
    40e8:	11000000 	mrsne	r0, (UNDEF: 0)
    40ec:	00009d0c 	andeq	r9, r0, ip, lsl #26
    40f0:	000008c8 	andeq	r0, r0, r8, asr #17
    40f4:	007e1200 	rsbseq	r1, lr, r0, lsl #4
    40f8:	05180000 	ldreq	r0, [r8, #-0]
    40fc:	2c130000 	ldccs	0, cr0, [r3], {-0}
    4100:	07000000 	streq	r0, [r0, -r0]
    4104:	05080500 	streq	r0, [r8, #-1280]	; 0xfffffb00
    4108:	56160000 	ldrpl	r0, [r6], -r0
    410c:	0100000a 	tsteq	r0, sl
    4110:	008a0747 	addeq	r0, sl, r7, asr #14
    4114:	9c200000 	stcls	0, cr0, [r0], #-0
    4118:	00980000 	addseq	r0, r8, r0
    411c:	9c010000 	stcls	0, cr0, [r1], {-0}
    4120:	0000062b 	andeq	r0, r0, fp, lsr #12
    4124:	0002b217 	andeq	fp, r2, r7, lsl r2
    4128:	20470100 	subcs	r0, r7, r0, lsl #2
    412c:	0000002c 	andeq	r0, r0, ip, lsr #32
    4130:	000028fd 	strdeq	r2, [r0], -sp
    4134:	000028ed 	andeq	r2, r0, sp, ror #17
    4138:	0000730e 	andeq	r7, r0, lr, lsl #6
    413c:	00043c00 	andeq	r3, r4, r0, lsl #24
    4140:	38030500 	stmdacc	r3, {r8, sl}
    4144:	1d0000a9 	stcne	0, cr0, [r0, #-676]	; 0xfffffd5c
    4148:	00000a03 	andeq	r0, r0, r3, lsl #20
    414c:	8a0b4b01 	bhi	2d6d58 <__bss_end__+0x2cbfa8>
    4150:	6f000000 	svcvs	0x00000000
    4154:	6b000029 	blvs	4200 <__code_start__-0x3e00>
    4158:	1b000029 	blne	4204 <__code_start__-0x3dfc>
    415c:	0000081f 	andeq	r0, r0, pc, lsl r8
    4160:	00009c30 	andeq	r9, r0, r0, lsr ip
    4164:	0003b003 	andeq	fp, r3, r3
    4168:	0e490100 	dvfeqe	f0, f1, f0
    416c:	000005a3 	andeq	r0, r0, r3, lsr #11
    4170:	00083a1a 	andeq	r3, r8, sl, lsl sl
    4174:	00298f00 	eoreq	r8, r9, r0, lsl #30
    4178:	00298d00 	eoreq	r8, r9, r0, lsl #26
    417c:	08301a00 	ldmdaeq	r0!, {r9, fp, ip}
    4180:	29a70000 	stmibcs	r7!, {}	; <UNPREDICTABLE>
    4184:	29a30000 	stmibcs	r3!, {}	; <UNPREDICTABLE>
    4188:	b01e0000 	andslt	r0, lr, r0
    418c:	00000003 	andeq	r0, r0, r3
    4190:	009c780f 	addseq	r7, ip, pc, lsl #16
    4194:	0008bc00 	andeq	fp, r8, r0, lsl #24
    4198:	0005dc00 	andeq	sp, r5, r0, lsl #24
    419c:	50011000 	andpl	r1, r1, r0
    41a0:	a1d40305 	bicsge	r0, r4, r5, lsl #6
    41a4:	01100000 	tsteq	r0, r0
    41a8:	78030551 	stmdavc	r3, {r0, r4, r6, r8, sl}
    41ac:	100000a7 	andne	r0, r0, r7, lsr #1
    41b0:	03055201 	movweq	r5, #20993	; 0x5201
    41b4:	0000a938 	andeq	sl, r0, r8, lsr r9
    41b8:	02530110 	subseq	r0, r3, #4
    41bc:	02104808 	andseq	r4, r0, #8, 16	; 0x80000
    41c0:	0305007d 	movweq	r0, #20605	; 0x507d
    41c4:	0000a788 	andeq	sl, r0, r8, lsl #15
    41c8:	9c7c1100 	ldflse	f1, [ip], #-0
    41cc:	08c80000 	stmiaeq	r8, {}^	; <UNPREDICTABLE>
    41d0:	9c0f0000 	stcls	0, cr0, [pc], {-0}
    41d4:	bc00009c 	stclt	0, cr0, [r0], {156}	; 0x9c
    41d8:	21000008 	tstcs	r0, r8
    41dc:	10000006 	andne	r0, r0, r6
    41e0:	03055001 	movweq	r5, #20481	; 0x5001
    41e4:	0000a804 	andeq	sl, r0, r4, lsl #16
    41e8:	05510110 	ldrbeq	r0, [r1, #-272]	; 0xfffffef0
    41ec:	00a77803 	adceq	r7, r7, r3, lsl #16
    41f0:	52011000 	andpl	r1, r1, #0, 0
    41f4:	a9380305 	ldmdbge	r8!, {r0, r2, r8, r9}
    41f8:	01100000 	tsteq	r0, r0
    41fc:	4e080253 	mcrmi	2, 0, r0, cr8, cr3, {2}
    4200:	007d0210 	rsbseq	r0, sp, r0, lsl r2
    4204:	5001f308 	andpl	pc, r1, r8, lsl #6
    4208:	f8090723 			; <UNDEFINED> instruction: 0xf8090723
    420c:	a011001a 	andsge	r0, r1, sl, lsl r0
    4210:	c800009c 	stmdagt	r0, {r2, r3, r4, r7}
    4214:	00000008 	andeq	r0, r0, r8
    4218:	000a780c 	andeq	r7, sl, ip, lsl #16
    421c:	063c0100 	ldrteq	r0, [ip], -r0, lsl #2
    4220:	00009bc8 	andeq	r9, r0, r8, asr #23
    4224:	00000058 	andeq	r0, r0, r8, asr r0
    4228:	06cf9c01 	strbeq	r9, [pc], r1, lsl #24
    422c:	4d0a0000 	stcmi	0, cr0, [sl, #-0]
    4230:	01000003 	tsteq	r0, r3
    4234:	0025103d 	eoreq	r1, r5, sp, lsr r0
    4238:	03050000 	movweq	r0, #20480	; 0x5000
    423c:	0000adac 	andeq	sl, r0, ip, lsr #27
    4240:	0000730e 	andeq	r7, r0, lr, lsl #6
    4244:	0006df00 	andeq	sp, r6, r0, lsl #30
    4248:	28030500 	stmdacs	r3, {r8, sl}
    424c:	070000a9 	streq	r0, [r0, -r9, lsr #1]
    4250:	002c0407 	eoreq	r0, ip, r7, lsl #8
    4254:	42010000 	andmi	r0, r1, #0, 0
    4258:	00067a0a 	andeq	r7, r6, sl, lsl #20
    425c:	0a3f0800 	beq	fc6264 <__bss_end__+0xfbb4b4>
    4260:	00000000 	andeq	r0, r0, r0
    4264:	0f000010 	svceq	0x00000010
    4268:	00009bf4 	strdeq	r9, [r0], -r4
    426c:	000006e4 	andeq	r0, r0, r4, ror #13
    4270:	00000696 	muleq	r0, r6, r6
    4274:	03500110 	cmpeq	r0, #4
    4278:	10244040 	eorne	r4, r4, r0, asr #32
    427c:	40035101 	andmi	r5, r3, r1, lsl #2
    4280:	0f002448 	svceq	0x00002448
    4284:	00009c0c 	andeq	r9, r0, ip, lsl #24
    4288:	000008bc 			; <UNDEFINED> instruction: 0x000008bc
    428c:	000006c5 	andeq	r0, r0, r5, asr #13
    4290:	05500110 	ldrbeq	r0, [r0, #-272]	; 0xfffffef0
    4294:	00a7d403 	adceq	sp, r7, r3, lsl #8
    4298:	51011000 	mrspl	r1, (UNDEF: 1)
    429c:	a7780305 	ldrbge	r0, [r8, -r5, lsl #6]!
    42a0:	01100000 	tsteq	r0, r0
    42a4:	28030552 	stmdacs	r3, {r1, r4, r6, r8, sl}
    42a8:	100000a9 	andne	r0, r0, r9, lsr #1
    42ac:	08025301 	stmdaeq	r2, {r0, r8, r9, ip, lr}
    42b0:	10110040 	andsne	r0, r1, r0, asr #32
    42b4:	c800009c 	stmdagt	r0, {r2, r3, r4, r7}
    42b8:	00000008 	andeq	r0, r0, r8
    42bc:	00007e12 	andeq	r7, r0, r2, lsl lr
    42c0:	0006df00 	andeq	sp, r6, r0, lsl #30
    42c4:	002c1300 	eoreq	r1, ip, r0, lsl #6
    42c8:	000c0000 	andeq	r0, ip, r0
    42cc:	0006cf05 	andeq	ip, r6, r5, lsl #30
    42d0:	03fd0c00 	mvnseq	r0, #0, 24
    42d4:	2d010000 	stccs	0, cr0, [r1, #-0]
    42d8:	009b2c06 	addseq	r2, fp, r6, lsl #24
    42dc:	00009c00 	andeq	r9, r0, r0, lsl #24
    42e0:	c89c0100 	ldmgt	ip, {r8}
    42e4:	17000007 	strne	r0, [r0, -r7]
    42e8:	00000a02 	andeq	r0, r0, r2, lsl #20
    42ec:	2c262d01 	stccs	13, cr2, [r6], #-4
    42f0:	d5000000 	strle	r0, [r0, #-0]
    42f4:	c7000029 	strgt	r0, [r0, -r9, lsr #32]
    42f8:	17000029 	strne	r0, [r0, -r9, lsr #32]
    42fc:	000009f7 	strdeq	r0, [r0], -r7
    4300:	2c362d01 	ldccs	13, cr2, [r6], #-4
    4304:	3d000000 	stccc	0, cr0, [r0, #-0]
    4308:	3500002a 	strcc	r0, [r0, #-42]	; 0xffffffd6
    430c:	1d00002a 	stcne	0, cr0, [r0, #-168]	; 0xffffff58
    4310:	00000a03 	andeq	r0, r0, r3, lsl #20
    4314:	c20b2e01 	andgt	r2, fp, #1, 28
    4318:	85000000 	strhi	r0, [r0, #-0]
    431c:	7700002a 	strvc	r0, [r0, -sl, lsr #32]
    4320:	0e00002a 	cdpeq	0, 0, cr0, cr0, cr10, {1}
    4324:	00000073 	andeq	r0, r0, r3, ror r0
    4328:	000007d8 	ldrdeq	r0, [r0], -r8
    432c:	a9100305 	ldmdbge	r0, {r0, r2, r8, r9}
    4330:	840f0000 	strhi	r0, [pc], #-0	; 4338 <__code_start__-0x3cc8>
    4334:	bc00009b 	stclt	0, cr0, [r0], {155}	; 0x9b
    4338:	7e000008 	cdpvc	0, 0, cr0, cr0, cr8, {0}
    433c:	10000007 	andne	r0, r0, r7
    4340:	03055001 	movweq	r5, #20481	; 0x5001
    4344:	0000a1d4 	ldrdeq	sl, [r0], -r4
    4348:	05510110 	ldrbeq	r0, [r1, #-272]	; 0xfffffef0
    434c:	00a77803 	adceq	r7, r7, r3, lsl #16
    4350:	52011000 	andpl	r1, r1, #0, 0
    4354:	a9100305 	ldmdbge	r0, {r0, r2, r8, r9}
    4358:	01100000 	tsteq	r0, r0
    435c:	30080253 	andcc	r0, r8, r3, asr r2
    4360:	007d0210 	rsbseq	r0, sp, r0, lsl r2
    4364:	a7840305 	strge	r0, [r4, r5, lsl #6]
    4368:	11000000 	mrsne	r0, (UNDEF: 0)
    436c:	00009b88 	andeq	r9, r0, r8, lsl #23
    4370:	000008c8 	andeq	r0, r0, r8, asr #17
    4374:	009bac0f 	addseq	sl, fp, pc, lsl #24
    4378:	0008bc00 	andeq	fp, r8, r0, lsl #24
    437c:	0007be00 	andeq	fp, r7, r0, lsl #28
    4380:	50011000 	andpl	r1, r1, r0
    4384:	a7900305 	ldrge	r0, [r0, r5, lsl #6]
    4388:	01100000 	tsteq	r0, r0
    438c:	78030551 	stmdavc	r3, {r0, r4, r6, r8, sl}
    4390:	100000a7 	andne	r0, r0, r7, lsr #1
    4394:	03055201 	movweq	r5, #20993	; 0x5201
    4398:	0000a910 	andeq	sl, r0, r0, lsl r9
    439c:	02530110 	subseq	r0, r3, #4
    43a0:	02103408 	andseq	r3, r0, #8, 8	; 0x8000000
    43a4:	f303007d 	vqadd.u8	q0, <illegal reg q1.5>, <illegal reg q14.5>
    43a8:	11005001 	tstne	r0, r1
    43ac:	00009bb0 			; <UNDEFINED> instruction: 0x00009bb0
    43b0:	000008c8 	andeq	r0, r0, r8, asr #17
    43b4:	007e1200 	rsbseq	r1, lr, r0, lsl #4
    43b8:	07d80000 	ldrbeq	r0, [r8, r0]
    43bc:	2c130000 	ldccs	0, cr0, [r3], {-0}
    43c0:	16000000 	strne	r0, [r0], -r0
    43c4:	07c80500 	strbeq	r0, [r8, r0, lsl #10]
    43c8:	901f0000 	andsls	r0, pc, r0
    43cc:	0100000a 	tsteq	r0, sl
    43d0:	008a072a 	addeq	r0, sl, sl, lsr #14
    43d4:	9b1c0000 	blls	7043dc <__bss_end__+0x6f962c>
    43d8:	00100000 	andseq	r0, r0, r0
    43dc:	9c010000 	stcls	0, cr0, [r1], {-0}
    43e0:	0009e41f 	andeq	lr, r9, pc, lsl r4
    43e4:	07290100 	streq	r0, [r9, -r0, lsl #2]!
    43e8:	0000008a 	andeq	r0, r0, sl, lsl #1
    43ec:	00009b0c 	andeq	r9, r0, ip, lsl #22
    43f0:	00000010 	andeq	r0, r0, r0, lsl r0
    43f4:	451f9c01 	ldrmi	r9, [pc, #-3073]	; 37fb <__code_start__-0x4805>
    43f8:	0100000a 	tsteq	r0, sl
    43fc:	008a0728 	addeq	r0, sl, r8, lsr #14
    4400:	9afc0000 	bls	fff04408 <__bss_end__+0xffef9658>
    4404:	00100000 	andseq	r0, r0, r0
    4408:	9c010000 	stcls	0, cr0, [r1], {-0}
    440c:	000a1b20 	andeq	r1, sl, r0, lsr #22
    4410:	18100100 	ldmdane	r0, {r8}
    4414:	0000002c 	andeq	r0, r0, ip, lsr #32
    4418:	00085403 	andeq	r5, r8, r3, lsl #8
    441c:	00782100 	rsbseq	r2, r8, r0, lsl #2
    4420:	2c291001 	stccs	0, cr1, [r9], #-4
    4424:	21000000 	mrscs	r0, (UNDEF: 0)
    4428:	1001006e 	andne	r0, r1, lr, rrx
    442c:	00002c35 	andeq	r2, r0, r5, lsr ip
    4430:	00730e00 	rsbseq	r0, r3, r0, lsl #28
    4434:	05180000 	ldreq	r0, [r8, #-0]
    4438:	03050000 	movweq	r0, #20480	; 0x5000
    443c:	0000a960 	andeq	sl, r0, r0, ror #18
    4440:	0a662000 	beq	198c448 <__bss_end__+0x1981698>
    4444:	0d010000 	stceq	0, cr0, [r1, #-0]
    4448:	00002c18 	andeq	r2, r0, r8, lsl ip
    444c:	08700300 	ldmdaeq	r0!, {r8, r9}^
    4450:	78210000 	stmdavc	r1!, {}	; <UNPREDICTABLE>
    4454:	290d0100 	stmdbcs	sp, {r8}
    4458:	0000002c 	andeq	r0, r0, ip, lsr #32
    445c:	0a852000 	beq	fe14c464 <__bss_end__+0xfe1416b4>
    4460:	07010000 	streq	r0, [r1, -r0]
    4464:	00002c18 	andeq	r2, r0, r8, lsl ip
    4468:	08960300 	ldmeq	r6, {r8, r9}
    446c:	78210000 	stmdavc	r1!, {}	; <UNPREDICTABLE>
    4470:	2c070100 	stfcss	f0, [r7], {-0}
    4474:	0000002c 	andeq	r0, r0, ip, lsr #32
    4478:	01006e21 	tsteq	r0, r1, lsr #28
    447c:	002c3807 	eoreq	r3, ip, r7, lsl #16
    4480:	20000000 	andcs	r0, r0, r0
    4484:	00000a37 	andeq	r0, r0, r7, lsr sl
    4488:	5d180401 	cfldrspl	mvf0, [r8, #-4]
    448c:	03000000 	movweq	r0, #0
    4490:	000008bc 			; <UNDEFINED> instruction: 0x000008bc
    4494:	01007821 	tsteq	r0, r1, lsr #16
    4498:	005d2904 	subseq	r2, sp, r4, lsl #18
    449c:	79210000 	stmdbvc	r1!, {}	; <UNPREDICTABLE>
    44a0:	35040100 	strcc	r0, [r4, #-256]	; 0xffffff00
    44a4:	0000005d 	andeq	r0, r0, sp, asr r0
    44a8:	05462200 	strbeq	r2, [r6, #-512]	; 0xfffffe00
    44ac:	05460000 	strbeq	r0, [r6, #-0]
    44b0:	28020000 	stmdacs	r2, {}	; <UNPREDICTABLE>
    44b4:	02252206 	eoreq	r2, r5, #1610612736	; 0x60000000
    44b8:	02250000 	eoreq	r0, r5, #0, 0
    44bc:	6e020000 	cdpvs	0, 0, cr0, cr2, cr0, {0}
    44c0:	0aa12206 	beq	fe84cce0 <__bss_end__+0xfe841f30>
    44c4:	0aa10000 	beq	fe8444cc <__bss_end__+0xfe83971c>
    44c8:	1d020000 	stcne	0, cr0, [r2, #-0]
    44cc:	00672206 	rsbeq	r2, r7, r6, lsl #4
    44d0:	00670000 	rsbeq	r0, r7, r0
    44d4:	f2020000 	vhadd.s8	d0, d2, d0
    44d8:	06730007 	ldrbteq	r0, [r3], -r7
    44dc:	00040000 	andeq	r0, r4, r0
    44e0:	00001713 	andeq	r1, r0, r3, lsl r7
    44e4:	04640104 	strbteq	r0, [r4], #-260	; 0xfffffefc
    44e8:	f30c0000 	vhadd.u8	d0, d12, d0
    44ec:	1c00000a 	stcne	0, cr0, [r0], {10}
    44f0:	ac000005 	stcge	0, cr0, [r0], {5}
    44f4:	9800009e 	stmdals	r0, {r1, r2, r3, r4, r7}
    44f8:	26000001 	strcs	r0, [r0], -r1
    44fc:	02000022 	andeq	r0, r0, #34, 0	; 0x22
    4500:	008d0708 	addeq	r0, sp, r8, lsl #14
    4504:	04020000 	streq	r0, [r2], #-0
    4508:	00009707 	andeq	r9, r0, r7, lsl #14
    450c:	05040300 	streq	r0, [r4, #-768]	; 0xfffffd00
    4510:	00746e69 	rsbseq	r6, r4, r9, ror #28
    4514:	00002c04 	andeq	r2, r0, r4, lsl #24
    4518:	06010200 	streq	r0, [r1], -r0, lsl #4
    451c:	00000048 	andeq	r0, r0, r8, asr #32
    4520:	e4050202 	str	r0, [r5], #-514	; 0xfffffdfe
    4524:	02000000 	andeq	r0, r0, #0, 0
    4528:	00a90504 	adceq	r0, r9, r4, lsl #10
    452c:	08020000 	stmdaeq	r2, {}	; <UNPREDICTABLE>
    4530:	0000a405 	andeq	sl, r0, r5, lsl #8
    4534:	08010200 	stmdaeq	r1, {r9}
    4538:	00000046 	andeq	r0, r0, r6, asr #32
    453c:	54070202 	strpl	r0, [r7], #-514	; 0xfffffdfe
    4540:	05000000 	streq	r0, [r0, #-0]
    4544:	00000243 	andeq	r0, r0, r3, asr #4
    4548:	75193403 	ldrvc	r3, [r9, #-1027]	; 0xfffffbfd
    454c:	02000000 	andeq	r0, r0, #0, 0
    4550:	00920704 	addseq	r0, r2, r4, lsl #14
    4554:	33060000 	movwcc	r0, #24576	; 0x6000
    4558:	8b000000 	blhi	4560 <__code_start__-0x3aa0>
    455c:	07000000 	streq	r0, [r0, -r0]
    4560:	00000033 	andeq	r0, r0, r3, lsr r0
    4564:	00f80800 	rscseq	r0, r8, r0, lsl #16
    4568:	1c020000 	stcne	0, cr0, [r2], {-0}
    456c:	0000970e 	andeq	r9, r0, lr, lsl #14
    4570:	7c040900 			; <UNDEFINED> instruction: 0x7c040900
    4574:	06000000 	streq	r0, [r0], -r0
    4578:	00000033 	andeq	r0, r0, r3, lsr r0
    457c:	000000ac 	andeq	r0, r0, ip, lsr #1
    4580:	0000ac07 	andeq	sl, r0, r7, lsl #24
    4584:	04090000 	streq	r0, [r9], #-0
    4588:	000000b9 	strheq	r0, [r0], -r9
    458c:	4f080102 	svcmi	0x00080102
    4590:	04000000 	streq	r0, [r0], #-0
    4594:	000000b2 	strheq	r0, [r0], -r2
    4598:	00058408 	andeq	r8, r5, r8, lsl #8
    459c:	0e210200 	cdpeq	2, 2, cr0, cr1, cr0, {0}
    45a0:	000000ca 	andeq	r0, r0, sl, asr #1
    45a4:	009d0409 	addseq	r0, sp, r9, lsl #8
    45a8:	070a0000 	streq	r0, [sl, -r0]
    45ac:	00005b01 	andeq	r5, r0, r1, lsl #22
    45b0:	0e0c0400 	cfcpyseq	mvf0, mvf12
    45b4:	0000010f 	andeq	r0, r0, pc, lsl #2
    45b8:	0009bc0b 	andeq	fp, r9, fp, lsl #24
    45bc:	f40b0000 	vst4.8	{d0-d3}, [fp], r0
    45c0:	01000007 	tsteq	r0, r7
    45c4:	0008370b 	andeq	r3, r8, fp, lsl #14
    45c8:	460b0400 	strmi	r0, [fp], -r0, lsl #8
    45cc:	05000008 	streq	r0, [r0, #-8]
    45d0:	0008550b 	andeq	r5, r8, fp, lsl #10
    45d4:	640b0600 	strvs	r0, [fp], #-1536	; 0xfffffa00
    45d8:	07000008 	streq	r0, [r0, -r8]
    45dc:	0009850b 	andeq	r8, r9, fp, lsl #10
    45e0:	730b0300 	movwvc	r0, #45824	; 0xb300
    45e4:	02000008 	andeq	r0, r0, #8, 0
    45e8:	0b2c0500 	bleq	b059f0 <__bss_end__+0xafac40>
    45ec:	15040000 	strne	r0, [r4, #-0]
    45f0:	0000d003 	andeq	sp, r0, r3
    45f4:	0aca0c00 	beq	ff2875fc <__bss_end__+0xff27c84c>
    45f8:	1d010000 	stcne	0, cr0, [r1, #-0]
    45fc:	00003a17 	andeq	r3, r0, r7, lsl sl
    4600:	20001c00 	andcs	r1, r0, r0, lsl #24
    4604:	0ac00c20 	beq	ff00768c <__bss_end__+0xfeffc8dc>
    4608:	1e010000 	cdpne	0, 0, cr0, cr1, cr0, {0}
    460c:	00003a17 	andeq	r3, r0, r7, lsl sl
    4610:	20002800 	andcs	r2, r0, r0, lsl #16
    4614:	0b380c20 	bleq	e0769c <__bss_end__+0xdfc8ec>
    4618:	1f010000 	svcne	0x00010000
    461c:	00003a17 	andeq	r3, r0, r7, lsl sl
    4620:	20003400 	andcs	r3, r0, r0, lsl #8
    4624:	0ae90d20 	beq	ffa47aac <__bss_end__+0xffa3ccfc>
    4628:	51010000 	mrspl	r0, (UNDEF: 1)
    462c:	00003305 	andeq	r3, r0, r5, lsl #6
    4630:	00a01c00 	adceq	r1, r0, r0, lsl #24
    4634:	00002800 	andeq	r2, r0, r0, lsl #16
    4638:	ba9c0100 	blt	fe704a40 <__bss_end__+0xfe6f9c90>
    463c:	0e000001 	cdpeq	0, 0, cr0, cr0, cr1, {0}
    4640:	006e6970 	rsbeq	r6, lr, r0, ror r9
    4644:	2c185101 	ldfcss	f5, [r8], {1}
    4648:	eb000000 	bl	4650 <__code_start__-0x39b0>
    464c:	e500002a 	str	r0, [r0, #-42]	; 0xffffffd6
    4650:	0f00002a 	svceq	0x0000002a
    4654:	00000b42 	andeq	r0, r0, r2, asr #22
    4658:	2c0e5201 	sfmcs	f5, 4, [lr], {1}
    465c:	21000000 	mrscs	r0, (UNDEF: 0)
    4660:	1700002b 	strne	r0, [r0, -fp, lsr #32]
    4664:	1000002b 	andne	r0, r0, fp, lsr #32
    4668:	0066666f 	rsbeq	r6, r6, pc, ror #12
    466c:	2c0e5301 	stccs	3, cr5, [lr], {1}
    4670:	8f000000 	svchi	0x00000000
    4674:	8900002b 	stmdbhi	r0, {r0, r1, r3, r5}
    4678:	1100002b 	tstne	r0, fp, lsr #32
    467c:	0000a030 	andeq	sl, r0, r0, lsr r0
    4680:	0000065e 	andeq	r0, r0, lr, asr r6
    4684:	0a500112 	beq	1404ad4 <__bss_end__+0x13f9d24>
    4688:	25350074 	ldrcs	r0, [r5, #-116]!	; 0xffffff8c
    468c:	8080b423 	addhi	fp, r0, r3, lsr #8
    4690:	00000281 	andeq	r0, r0, r1, lsl #5
    4694:	000ad413 	andeq	sp, sl, r3, lsl r4
    4698:	064a0100 	strbeq	r0, [sl], -r0, lsl #2
    469c:	00009fec 	andeq	r9, r0, ip, ror #31
    46a0:	00000030 	andeq	r0, r0, r0, lsr r0
    46a4:	02759c01 	rsbseq	r9, r5, #256	; 0x100
    46a8:	700e0000 	andvc	r0, lr, r0
    46ac:	01006e69 	tsteq	r0, r9, ror #28
    46b0:	002c1a4a 	eoreq	r1, ip, sl, asr #20
    46b4:	2bcc0000 	blcs	ff3046bc <__bss_end__+0xff2f990c>
    46b8:	2bc00000 	blcs	ff0046c0 <__bss_end__+0xfeff9910>
    46bc:	760e0000 	strvc	r0, [lr], -r0
    46c0:	284a0100 	stmdacs	sl, {r8}^
    46c4:	0000002c 	andeq	r0, r0, ip, lsr #32
    46c8:	00002c20 	andeq	r2, r0, r0, lsr #24
    46cc:	00002c1c 	andeq	r2, r0, ip, lsl ip
    46d0:	00038d14 	andeq	r8, r3, r4, lsl sp
    46d4:	009ffc00 	addseq	pc, pc, r0, lsl #24
    46d8:	04800100 	streq	r0, [r0], #256	; 0x100
    46dc:	4c010000 	stcmi	0, cr0, [r1], {-0}
    46e0:	00023509 	andeq	r3, r2, r9, lsl #10
    46e4:	039a1500 	orrseq	r1, sl, #0, 10
    46e8:	2c470000 	marcs	acc0, r0, r7
    46ec:	2c410000 	marcs	acc0, r0, r1
    46f0:	08160000 	ldmdaeq	r6, {}	; <UNPREDICTABLE>
    46f4:	6a0000a0 	bvs	497c <__code_start__-0x3684>
    46f8:	12000006 	andne	r0, r0, #6, 0
    46fc:	0c055001 	stceq	0, cr5, [r5], {1}
    4700:	2020001c 	eorcs	r0, r0, ip, lsl r0
    4704:	05510112 	ldrbeq	r0, [r1, #-274]	; 0xfffffeee
    4708:	5001f331 	andpl	pc, r1, r1, lsr r3	; <UNPREDICTABLE>
    470c:	17000024 	strne	r0, [r0, -r4, lsr #32]
    4710:	00000373 	andeq	r0, r0, r3, ror r3
    4714:	0000a008 	andeq	sl, r0, r8
    4718:	00a00802 	adceq	r0, r0, r2, lsl #16
    471c:	00001400 	andeq	r1, r0, r0, lsl #8
    4720:	094e0100 	stmdbeq	lr, {r8}^
    4724:	00038015 	andeq	r8, r3, r5, lsl r0
    4728:	002c7900 	eoreq	r7, ip, r0, lsl #18
    472c:	002c7300 	eoreq	r7, ip, r0, lsl #6
    4730:	a0141600 	andsge	r1, r4, r0, lsl #12
    4734:	066a0000 	strbteq	r0, [sl], -r0
    4738:	01120000 	tsteq	r2, r0
    473c:	280c0550 	stmdacs	ip, {r4, r6, r8, sl}
    4740:	12202000 	eorne	r2, r0, #0, 0
    4744:	31055101 	tstcc	r5, r1, lsl #2
    4748:	245001f3 	ldrbcs	r0, [r0], #-499	; 0xfffffe0d
    474c:	13000000 	movwne	r0, #0
    4750:	00000b00 	andeq	r0, r0, r0, lsl #22
    4754:	94064501 	strls	r4, [r6], #-1281	; 0xfffffaff
    4758:	5800009f 	stmdapl	r0, {r0, r1, r2, r3, r4, r7}
    475c:	01000000 	mrseq	r0, (UNDEF: 0)
    4760:	0003739c 	muleq	r3, ip, r3
    4764:	69700e00 	ldmdbvs	r0!, {r9, sl, fp}^
    4768:	4501006e 	strmi	r0, [r1, #-110]	; 0xffffff92
    476c:	00002c1e 	andeq	r2, r0, lr, lsl ip
    4770:	002cab00 	eoreq	sl, ip, r0, lsl #22
    4774:	002ca500 	eoreq	sl, ip, r0, lsl #10
    4778:	04a51800 	strteq	r1, [r5], #2048	; 0x800
    477c:	9f940000 	svcls	0x00940000
    4780:	40020000 	andmi	r0, r2, r0
    4784:	01000004 	tsteq	r0, r4
    4788:	be190546 	cfmac32lt	mvfx0, mvfx9, mvfx6
    478c:	00000004 	andeq	r0, r0, r4
    4790:	0004b215 	andeq	fp, r4, r5, lsl r2
    4794:	002cdd00 	eoreq	sp, ip, r0, lsl #26
    4798:	002cd700 	eoreq	sp, ip, r0, lsl #14
    479c:	04401a00 	strbeq	r1, [r0], #-2560	; 0xfffff600
    47a0:	ca1b0000 	bgt	6c47a8 <__bss_end__+0x6b99f8>
    47a4:	1b000004 	blne	47bc <__code_start__-0x3844>
    47a8:	000004d6 	ldrdeq	r0, [r0], -r6
    47ac:	0004e01b 	andeq	lr, r4, fp, lsl r0
    47b0:	04a51800 	strteq	r1, [r5], #2048	; 0x800
    47b4:	9f9c0000 	svcls	0x009c0000
    47b8:	60000000 	andvs	r0, r0, r0
    47bc:	01000004 	tsteq	r0, r4
    47c0:	be190628 	cfmsub32lt	mvax1, mvfx0, mvfx9, mvfx8
    47c4:	00000004 	andeq	r0, r0, r4
    47c8:	0004b215 	andeq	fp, r4, r5, lsl r2
    47cc:	002d0f00 	eoreq	r0, sp, r0, lsl #30
    47d0:	002d0900 	eoreq	r0, sp, r0, lsl #18
    47d4:	04601a00 	strbteq	r1, [r0], #-2560	; 0xfffff600
    47d8:	ca1c0000 	bgt	7047e0 <__bss_end__+0x6f9a30>
    47dc:	41000004 	tstmi	r0, r4
    47e0:	3b00002d 	blcc	489c <__code_start__-0x3764>
    47e4:	1c00002d 	stcne	0, cr0, [r0], {45}	; 0x2d
    47e8:	000004d6 	ldrdeq	r0, [r0], -r6
    47ec:	00002d83 	andeq	r2, r0, r3, lsl #27
    47f0:	00002d7d 	andeq	r2, r0, sp, ror sp
    47f4:	0004e01c 	andeq	lr, r4, ip, lsl r0
    47f8:	002dd900 	eoreq	sp, sp, r0, lsl #18
    47fc:	002dd100 	eoreq	sp, sp, r0, lsl #2
    4800:	9fc41d00 	svcls	0x00c41d00
    4804:	065e0000 	ldrbeq	r0, [lr], -r0
    4808:	033b0000 	teqeq	fp, #0, 0
    480c:	01120000 	tsteq	r2, r0
    4810:	00760250 	rsbseq	r0, r6, r0, asr r2
    4814:	9fe81600 	svcls	0x00e81600
    4818:	066a0000 	strbteq	r0, [sl], -r0
    481c:	01120000 	tsteq	r2, r0
    4820:	01f32550 	mvnseq	r2, r0, asr r5
    4824:	f72cf750 			; <UNDEFINED> instruction: 0xf72cf750
    4828:	0825f425 	stmdaeq	r5!, {r0, r2, r5, sl, ip, sp, lr, pc}
    482c:	cccccccd 	stclgt	12, cr12, [ip], {205}	; 0xcd
    4830:	00000000 	andeq	r0, r0, r0
    4834:	f720081e 			; <UNDEFINED> instruction: 0xf720081e
    4838:	2cf72525 	cfldr64cs	mvdx2, [r7], #148	; 0x94
    483c:	253300f7 	ldrcs	r0, [r3, #-247]!	; 0xffffff09
    4840:	a0808023 	addge	r8, r0, r3, lsr #32
    4844:	00243240 	eoreq	r3, r4, r0, asr #4
    4848:	00000000 	andeq	r0, r0, r0
    484c:	0b0f1e00 	bleq	3cc054 <__bss_end__+0x3c12a4>
    4850:	40010000 	andmi	r0, r1, r0
    4854:	038d030d 	orreq	r0, sp, #872415232	; 0x34000000
    4858:	701f0000 	andsvc	r0, pc, r0
    485c:	01006e69 	tsteq	r0, r9, ror #28
    4860:	002c2340 	eoreq	r2, ip, r0, asr #6
    4864:	1e000000 	cdpne	0, 0, cr0, cr0, cr0, {0}
    4868:	00000b47 	andeq	r0, r0, r7, asr #22
    486c:	030d3b01 	movweq	r3, #56065	; 0xdb01
    4870:	000003a7 	andeq	r0, r0, r7, lsr #7
    4874:	6e69701f 	mcrvs	0, 3, r7, cr9, cr15, {0}
    4878:	223b0100 	eorscs	r0, fp, #0
    487c:	0000002c 	andeq	r0, r0, ip, lsr #32
    4880:	0b1c1300 	bleq	709488 <__bss_end__+0x6fe6d8>
    4884:	36010000 	strcc	r0, [r1], -r0
    4888:	009f0c06 	addseq	r0, pc, r6, lsl #24
    488c:	00005800 	andeq	r5, r0, r0, lsl #16
    4890:	a59c0100 	ldrge	r0, [ip, #256]	; 0x100
    4894:	0e000004 	cdpeq	0, 0, cr0, cr0, cr4, {0}
    4898:	006e6970 	rsbeq	r6, lr, r0, ror r9
    489c:	2c1f3601 	ldccs	6, cr3, [pc], {1}
    48a0:	37000000 	strcc	r0, [r0, -r0]
    48a4:	3300002e 	movwcc	r0, #46	; 0x2e
    48a8:	1800002e 	stmdane	r0, {r1, r2, r3, r5}
    48ac:	000004a5 	andeq	r0, r0, r5, lsr #9
    48b0:	00009f0c 	andeq	r9, r0, ip, lsl #30
    48b4:	00040002 	andeq	r0, r4, r2
    48b8:	05370100 	ldreq	r0, [r7, #-256]!	; 0xffffff00
    48bc:	0004be19 	andeq	fp, r4, r9, lsl lr
    48c0:	b2150100 	andslt	r0, r5, #0
    48c4:	5c000004 	stcpl	0, cr0, [r0], {4}
    48c8:	5800002e 	stmdapl	r0, {r1, r2, r3, r5}
    48cc:	1a00002e 	bne	498c <__code_start__-0x3674>
    48d0:	00000400 	andeq	r0, r0, r0, lsl #8
    48d4:	0004ca1b 	andeq	ip, r4, fp, lsl sl
    48d8:	04d61b00 	ldrbeq	r1, [r6], #2816	; 0xb00
    48dc:	e01b0000 	ands	r0, fp, r0
    48e0:	18000004 	stmdane	r0, {r2}
    48e4:	000004a5 	andeq	r0, r0, r5, lsr #9
    48e8:	00009f14 	andeq	r9, r0, r4, lsl pc
    48ec:	00042000 	andeq	r2, r4, r0
    48f0:	06280100 	strteq	r0, [r8], -r0, lsl #2
    48f4:	0004be19 	andeq	fp, r4, r9, lsl lr
    48f8:	b2150100 	andslt	r0, r5, #0
    48fc:	81000004 	tsthi	r0, r4
    4900:	7d00002e 	stcvc	0, cr0, [r0, #-184]	; 0xffffff48
    4904:	1a00002e 	bne	49c4 <__code_start__-0x363c>
    4908:	00000420 	andeq	r0, r0, r0, lsr #8
    490c:	0004ca1c 	andeq	ip, r4, ip, lsl sl
    4910:	002ea600 	eoreq	sl, lr, r0, lsl #12
    4914:	002ea200 	eoreq	sl, lr, r0, lsl #4
    4918:	04d61c00 	ldrbeq	r1, [r6], #3072	; 0xc00
    491c:	2ef20000 	cdpcs	0, 15, cr0, cr2, cr0, {0}
    4920:	2eec0000 	cdpcs	0, 14, cr0, cr12, cr0, {0}
    4924:	e01c0000 	ands	r0, ip, r0
    4928:	48000004 	stmdami	r0, {r2}
    492c:	4000002f 	andmi	r0, r0, pc, lsr #32
    4930:	1d00002f 	stcne	0, cr0, [r0, #-188]	; 0xffffff44
    4934:	00009f40 	andeq	r9, r0, r0, asr #30
    4938:	0000065e 	andeq	r0, r0, lr, asr r6
    493c:	0000046d 	andeq	r0, r0, sp, ror #8
    4940:	02500112 	subseq	r0, r0, #-2147483644	; 0x80000004
    4944:	16000075 			; <UNDEFINED> instruction: 0x16000075
    4948:	00009f60 	andeq	r9, r0, r0, ror #30
    494c:	0000066a 	andeq	r0, r0, sl, ror #12
    4950:	25500112 	ldrbcs	r0, [r0, #-274]	; 0xfffffeee
    4954:	f75001f3 			; <UNDEFINED> instruction: 0xf75001f3
    4958:	f425f72c 	vld1.8	{d15}, [r5 :128], ip
    495c:	cccd0825 	stclgt	8, cr0, [sp], {37}	; 0x25
    4960:	0000cccc 	andeq	ip, r0, ip, asr #25
    4964:	081e0000 	ldmdaeq	lr, {}	; <UNPREDICTABLE>
    4968:	2525f720 	strcs	pc, [r5, #-1824]!	; 0xfffff8e0
    496c:	00f72cf7 	ldrshteq	r2, [r7], #199	; 0xc7
    4970:	80232533 	eorhi	r2, r3, r3, lsr r5
    4974:	3240a080 	subcc	sl, r0, #128, 0	; 0x80
    4978:	00000024 	andeq	r0, r0, r4, lsr #32
    497c:	1e000000 	cdpne	0, 0, cr0, cr0, cr0, {0}
    4980:	000009cc 	andeq	r0, r0, ip, asr #19
    4984:	01062801 	tsteq	r6, r1, lsl #16
    4988:	000004eb 	andeq	r0, r0, fp, ror #9
    498c:	6e69701f 	mcrvs	0, 3, r7, cr9, cr15, {0}
    4990:	21280100 			; <UNDEFINED> instruction: 0x21280100
    4994:	0000002c 	andeq	r0, r0, ip, lsr #32
    4998:	00006e20 	andeq	r6, r0, r0, lsr #28
    499c:	32280100 	eorcc	r0, r8, #0
    49a0:	0000010f 	andeq	r0, r0, pc, lsl #2
    49a4:	66666f21 	strbtvs	r6, [r6], -r1, lsr #30
    49a8:	0e2d0100 	sufeqe	f0, f5, f0
    49ac:	0000002c 	andeq	r0, r0, ip, lsr #32
    49b0:	01006721 	tsteq	r0, r1, lsr #14
    49b4:	002c0e2e 	eoreq	r0, ip, lr, lsr #28
    49b8:	76210000 	strtvc	r0, [r1], -r0
    49bc:	0e300100 	rsfeqs	f0, f0, f0
    49c0:	0000002c 	andeq	r0, r0, ip, lsr #32
    49c4:	0adf2200 	beq	ff7cd1cc <__bss_end__+0xff7c241c>
    49c8:	b1020000 	mrslt	r0, (UNDEF: 2)
    49cc:	00006918 	andeq	r6, r0, r8, lsl r9
    49d0:	05070300 	streq	r0, [r7, #-768]	; 0xfffffd00
    49d4:	781f0000 	ldmdavc	pc, {}	; <UNPREDICTABLE>
    49d8:	2bb10200 	blcs	fec451e0 <__bss_end__+0xfec3a430>
    49dc:	00000069 	andeq	r0, r0, r9, rrx
    49e0:	04a52300 	strteq	r2, [r5], #768	; 0x300
    49e4:	9eac0000 	cdpls	0, 10, cr0, cr12, cr0, {0}
    49e8:	00600000 	rsbeq	r0, r0, r0
    49ec:	9c010000 	stcls	0, cr0, [r1], {-0}
    49f0:	000005e4 	andeq	r0, r0, r4, ror #11
    49f4:	0004b215 	andeq	fp, r4, r5, lsl r2
    49f8:	002f8700 	eoreq	r8, pc, r0, lsl #14
    49fc:	002f8300 	eoreq	r8, pc, r0, lsl #6
    4a00:	04be1500 	ldrteq	r1, [lr], #1280	; 0x500
    4a04:	2fac0000 	svccs	0x00ac0000
    4a08:	2fa80000 	svccs	0x00a80000
    4a0c:	ca1b0000 	bgt	6c4a14 <__bss_end__+0x6b9c64>
    4a10:	1b000004 	blne	4a28 <__code_start__-0x35d8>
    4a14:	000004d6 	ldrdeq	r0, [r0], -r6
    4a18:	0004e01b 	andeq	lr, r4, fp, lsl r0
    4a1c:	04a51800 	strteq	r1, [r5], #2048	; 0x800
    4a20:	9eb40000 	cdpls	0, 11, cr0, cr4, cr0, {0}
    4a24:	e0000000 	and	r0, r0, r0
    4a28:	01000003 	tsteq	r0, r3
    4a2c:	be150628 	cfmsub32lt	mvax1, mvfx0, mvfx5, mvfx8
    4a30:	d1000004 	tstle	r0, r4
    4a34:	cd00002f 	stcgt	0, cr0, [r0, #-188]	; 0xffffff44
    4a38:	1500002f 	strne	r0, [r0, #-47]	; 0xffffffd1
    4a3c:	000004b2 			; <UNDEFINED> instruction: 0x000004b2
    4a40:	00002ff6 	strdeq	r2, [r0], -r6
    4a44:	00002ff2 	strdeq	r2, [r0], -r2	; <UNPREDICTABLE>
    4a48:	0003e01a 	andeq	lr, r3, sl, lsl r0
    4a4c:	04ca1c00 	strbeq	r1, [sl], #3072	; 0xc00
    4a50:	301b0000 	andscc	r0, fp, r0
    4a54:	30170000 	andscc	r0, r7, r0
    4a58:	d61c0000 	ldrle	r0, [ip], -r0
    4a5c:	67000004 	strvs	r0, [r0, -r4]
    4a60:	61000030 	tstvs	r0, r0, lsr r0
    4a64:	1c000030 	stcne	0, cr0, [r0], {48}	; 0x30
    4a68:	000004e0 	andeq	r0, r0, r0, ror #9
    4a6c:	000030bd 	strheq	r3, [r0], -sp
    4a70:	000030b5 	strheq	r3, [r0], -r5
    4a74:	009eec1d 	addseq	lr, lr, sp, lsl ip
    4a78:	00065e00 	andeq	r5, r6, r0, lsl #28
    4a7c:	0005ae00 	andeq	sl, r5, r0, lsl #28
    4a80:	50011200 	andpl	r1, r1, r0, lsl #4
    4a84:	00007602 	andeq	r7, r0, r2, lsl #12
    4a88:	009f0816 	addseq	r0, pc, r6, lsl r8	; <UNPREDICTABLE>
    4a8c:	00066a00 	andeq	r6, r6, r0, lsl #20
    4a90:	50011200 	andpl	r1, r1, r0, lsl #4
    4a94:	5001f325 	andpl	pc, r1, r5, lsr #6
    4a98:	25f72cf7 	ldrbcs	r2, [r7, #3319]!	; 0xcf7
    4a9c:	cd0825f4 	cfstr32gt	mvfx2, [r8, #-976]	; 0xfffffc30
    4aa0:	00cccccc 	sbceq	ip, ip, ip, asr #25
    4aa4:	1e000000 	cdpne	0, 0, cr0, cr0, cr0, {0}
    4aa8:	25f72008 	ldrbcs	r2, [r7, #8]!
    4aac:	f72cf725 			; <UNDEFINED> instruction: 0xf72cf725
    4ab0:	23253300 			; <UNDEFINED> instruction: 0x23253300
    4ab4:	40a08080 	adcmi	r8, r0, r0, lsl #1
    4ab8:	00002432 	andeq	r2, r0, r2, lsr r4
    4abc:	8d230000 	stchi	0, cr0, [r3, #-0]
    4ac0:	64000003 	strvs	r0, [r0], #-3
    4ac4:	1800009f 	stmdane	r0, {r0, r1, r2, r3, r4, r7}
    4ac8:	01000000 	mrseq	r0, (UNDEF: 0)
    4acc:	0006219c 	muleq	r6, ip, r1
    4ad0:	039a1500 	orrseq	r1, sl, #0, 10
    4ad4:	31130000 	tstcc	r3, r0
    4ad8:	310d0000 	mrscc	r0, (UNDEF: 13)
    4adc:	78160000 	ldmdavc	r6, {}	; <UNPREDICTABLE>
    4ae0:	6a00009f 	bvs	4d64 <__code_start__-0x329c>
    4ae4:	12000006 	andne	r0, r0, #6, 0
    4ae8:	0c055001 	stceq	0, cr5, [r5], {1}
    4aec:	2020001c 	eorcs	r0, r0, ip, lsl r0
    4af0:	05510112 	ldrbeq	r0, [r1, #-274]	; 0xfffffeee
    4af4:	5001f331 	andpl	pc, r1, r1, lsr r3	; <UNPREDICTABLE>
    4af8:	23000024 	movwcs	r0, #36	; 0x24
    4afc:	00000373 	andeq	r0, r0, r3, ror r3
    4b00:	00009f7c 	andeq	r9, r0, ip, ror pc
    4b04:	00000018 	andeq	r0, r0, r8, lsl r0
    4b08:	065e9c01 	ldrbeq	r9, [lr], -r1, lsl #24
    4b0c:	80150000 	andshi	r0, r5, r0
    4b10:	45000003 	strmi	r0, [r0, #-3]
    4b14:	3f000031 	svccc	0x00000031
    4b18:	16000031 			; <UNDEFINED> instruction: 0x16000031
    4b1c:	00009f90 	muleq	r0, r0, pc	; <UNPREDICTABLE>
    4b20:	0000066a 	andeq	r0, r0, sl, ror #12
    4b24:	05500112 	ldrbeq	r0, [r0, #-274]	; 0xfffffeee
    4b28:	2000280c 	andcs	r2, r0, ip, lsl #16
    4b2c:	51011220 	tstpl	r1, r0, lsr #4
    4b30:	01f33105 	mvnseq	r3, r5, lsl #2
    4b34:	00002450 	andeq	r2, r0, r0, asr r4
    4b38:	0007a124 	andeq	sl, r7, r4, lsr #2
    4b3c:	0007a100 	andeq	sl, r7, r0, lsl #2
    4b40:	0ac20200 	beq	ff085348 <__bss_end__+0xff07a598>
    4b44:	00070d24 	andeq	r0, r7, r4, lsr #26
    4b48:	00070d00 	andeq	r0, r7, r0, lsl #26
    4b4c:	06ad0200 	strteq	r0, [sp], r0, lsl #4
    4b50:	00014900 	andeq	r4, r1, r0, lsl #18
    4b54:	41000400 	tstmi	r0, r0, lsl #8
    4b58:	04000019 	streq	r0, [r0], #-25	; 0xffffffe7
    4b5c:	00046401 	andeq	r6, r4, r1, lsl #8
    4b60:	0b710c00 	bleq	1c47b68 <__bss_end__+0x1c3cdb8>
    4b64:	051c0000 	ldreq	r0, [ip, #-0]
    4b68:	a0440000 	subge	r0, r4, r0
    4b6c:	003c0000 	eorseq	r0, ip, r0
    4b70:	24b30000 	ldrtcs	r0, [r3], #0
    4b74:	04020000 	streq	r0, [r2], #-0
    4b78:	746e6905 	strbtvc	r6, [lr], #-2309	; 0xfffff6fb
    4b7c:	07040300 	streq	r0, [r4, -r0, lsl #6]
    4b80:	00000097 	muleq	r0, r7, r0
    4b84:	48060103 	stmdami	r6, {r0, r1, r8}
    4b88:	03000000 	movweq	r0, #0
    4b8c:	00e40502 	rsceq	r0, r4, r2, lsl #10
    4b90:	04030000 	streq	r0, [r3], #-0
    4b94:	0000a905 	andeq	sl, r0, r5, lsl #18
    4b98:	05080300 	streq	r0, [r8, #-768]	; 0xfffffd00
    4b9c:	000000a4 	andeq	r0, r0, r4, lsr #1
    4ba0:	46080103 	strmi	r0, [r8], -r3, lsl #2
    4ba4:	03000000 	movweq	r0, #0
    4ba8:	00540702 	subseq	r0, r4, r2, lsl #14
    4bac:	04030000 	streq	r0, [r3], #-0
    4bb0:	00009207 	andeq	r9, r0, r7, lsl #4
    4bb4:	07080300 	streq	r0, [r8, -r0, lsl #6]
    4bb8:	0000008d 	andeq	r0, r0, sp, lsl #1
    4bbc:	00002504 	andeq	r2, r0, r4, lsl #10
    4bc0:	00007a00 	andeq	r7, r0, r0, lsl #20
    4bc4:	00250500 	eoreq	r0, r5, r0, lsl #10
    4bc8:	06000000 	streq	r0, [r0], -r0
    4bcc:	000000f8 	strdeq	r0, [r0], -r8
    4bd0:	860e1c02 	strhi	r1, [lr], -r2, lsl #24
    4bd4:	07000000 	streq	r0, [r0, -r0]
    4bd8:	00006b04 	andeq	r6, r0, r4, lsl #22
    4bdc:	00250400 	eoreq	r0, r5, r0, lsl #8
    4be0:	009b0000 	addseq	r0, fp, r0
    4be4:	9b050000 	blls	144bec <__bss_end__+0x139e3c>
    4be8:	00000000 	andeq	r0, r0, r0
    4bec:	00a80407 	adceq	r0, r8, r7, lsl #8
    4bf0:	01030000 	mrseq	r0, (UNDEF: 3)
    4bf4:	00004f08 	andeq	r4, r0, r8, lsl #30
    4bf8:	00a10800 	adceq	r0, r1, r0, lsl #16
    4bfc:	84060000 	strhi	r0, [r6], #-0
    4c00:	02000005 	andeq	r0, r0, #5, 0
    4c04:	00b90e21 	adcseq	r0, r9, r1, lsr #28
    4c08:	04070000 	streq	r0, [r7], #-0
    4c0c:	0000008c 	andeq	r0, r0, ip, lsl #1
    4c10:	00007a09 	andeq	r7, r0, r9, lsl #20
    4c14:	07060100 	streq	r0, [r6, -r0, lsl #2]
    4c18:	a9840305 	stmibge	r4, {r0, r2, r8, r9}
    4c1c:	640a0000 	strvs	r0, [sl], #-0
    4c20:	0100000b 	tsteq	r0, fp
    4c24:	a070060b 	rsbsge	r0, r0, fp, lsl #12
    4c28:	00100000 	andseq	r0, r0, r0
    4c2c:	9c010000 	stcls	0, cr0, [r1], {-0}
    4c30:	000000f1 	strdeq	r0, [r0], -r1
    4c34:	0070660b 	rsbseq	r6, r0, fp, lsl #12
    4c38:	86190b01 	ldrhi	r0, [r9], -r1, lsl #22
    4c3c:	01000000 	mrseq	r0, (UNDEF: 0)
    4c40:	a10c0050 	qaddge	r0, r0, ip
    4c44:	0100000a 	tsteq	r0, sl
    4c48:	a0580608 	subsge	r0, r8, r8, lsl #12
    4c4c:	00180000 	andseq	r0, r8, r0
    4c50:	9c010000 	stcls	0, cr0, [r1], {-0}
    4c54:	000b530d 	andeq	r5, fp, sp, lsl #6
    4c58:	0c030100 	stfeqs	f0, [r3], {-0}
    4c5c:	00000025 	andeq	r0, r0, r5, lsr #32
    4c60:	0000a044 	andeq	sl, r0, r4, asr #32
    4c64:	00000014 	andeq	r0, r0, r4, lsl r0
    4c68:	01409c01 	cmpeq	r0, r1, lsl #24
    4c6c:	630e0000 	movwvs	r0, #57344	; 0xe000
    4c70:	21030100 	mrscs	r0, (UNDEF: 19)
    4c74:	00000025 	andeq	r0, r0, r5, lsr #32
    4c78:	00003175 	andeq	r3, r0, r5, ror r1
    4c7c:	00003171 	andeq	r3, r0, r1, ror r1
    4c80:	00a0500f 	adceq	r5, r0, pc
    4c84:	00014000 	andeq	r4, r1, r0
    4c88:	50011000 	andpl	r1, r1, r0
    4c8c:	00007402 	andeq	r7, r0, r2, lsl #8
    4c90:	09b21100 	ldmibeq	r2!, {r8, ip}
    4c94:	09b20000 	ldmibeq	r2!, {}	; <UNPREDICTABLE>
    4c98:	42020000 	andmi	r0, r2, #0, 0
    4c9c:	01370006 	teqeq	r7, r6
    4ca0:	00040000 	andeq	r0, r4, r0
    4ca4:	00001a50 	andeq	r1, r0, r0, asr sl
    4ca8:	04640104 	strbteq	r0, [r4], #-260	; 0xfffffefc
    4cac:	820c0000 	andhi	r0, ip, #0, 0
    4cb0:	1c00000b 	stcne	0, cr0, [r0], {11}
    4cb4:	80000005 	andhi	r0, r0, r5
    4cb8:	2c0000a0 	stccs	0, cr0, [r0], {160}	; 0xa0
    4cbc:	55000000 	strpl	r0, [r0, #-0]
    4cc0:	02000025 	andeq	r0, r0, #37, 0	; 0x25
    4cc4:	6e690504 	cdpvs	5, 6, cr0, cr9, cr4, {0}
    4cc8:	04030074 	streq	r0, [r3], #-116	; 0xffffff8c
    4ccc:	00009707 	andeq	r9, r0, r7, lsl #14
    4cd0:	06010300 	streq	r0, [r1], -r0, lsl #6
    4cd4:	00000048 	andeq	r0, r0, r8, asr #32
    4cd8:	e4050203 	str	r0, [r5], #-515	; 0xfffffdfd
    4cdc:	03000000 	movweq	r0, #0
    4ce0:	00a90504 	adceq	r0, r9, r4, lsl #10
    4ce4:	08030000 	stmdaeq	r3, {}	; <UNPREDICTABLE>
    4ce8:	0000a405 	andeq	sl, r0, r5, lsl #8
    4cec:	08010300 	stmdaeq	r1, {r8, r9}
    4cf0:	00000046 	andeq	r0, r0, r6, asr #32
    4cf4:	54070203 	strpl	r0, [r7], #-515	; 0xfffffdfd
    4cf8:	03000000 	movweq	r0, #0
    4cfc:	00920704 	addseq	r0, r2, r4, lsl #14
    4d00:	08030000 	stmdaeq	r3, {}	; <UNPREDICTABLE>
    4d04:	00008d07 	andeq	r8, r0, r7, lsl #26
    4d08:	00250400 	eoreq	r0, r5, r0, lsl #8
    4d0c:	007a0000 	rsbseq	r0, sl, r0
    4d10:	25050000 	strcs	r0, [r5, #-0]
    4d14:	00000000 	andeq	r0, r0, r0
    4d18:	0000f806 	andeq	pc, r0, r6, lsl #16
    4d1c:	0e1c0200 	cdpeq	2, 1, cr0, cr12, cr0, {0}
    4d20:	00000086 	andeq	r0, r0, r6, lsl #1
    4d24:	006b0407 	rsbeq	r0, fp, r7, lsl #8
    4d28:	25040000 	strcs	r0, [r4, #-0]
    4d2c:	9b000000 	blls	4d34 <__code_start__-0x32cc>
    4d30:	05000000 	streq	r0, [r0, #-0]
    4d34:	0000009b 	muleq	r0, fp, r0
    4d38:	a8040700 	stmdage	r4, {r8, r9, sl}
    4d3c:	03000000 	movweq	r0, #0
    4d40:	004f0801 	subeq	r0, pc, r1, lsl #16
    4d44:	a1080000 	mrsge	r0, (UNDEF: 8)
    4d48:	06000000 	streq	r0, [r0], -r0
    4d4c:	00000584 	andeq	r0, r0, r4, lsl #11
    4d50:	b90e2102 	stmdblt	lr, {r1, r8, sp}
    4d54:	07000000 	streq	r0, [r0, -r0]
    4d58:	00008c04 	andeq	r8, r0, r4, lsl #24
    4d5c:	06000900 	streq	r0, [r0], -r0, lsl #18
    4d60:	04010000 	streq	r0, [r1], #-0
    4d64:	00013407 	andeq	r3, r1, r7, lsl #8
    4d68:	00a08000 	adceq	r8, r0, r0
    4d6c:	00002c00 	andeq	r2, r0, r0, lsl #24
    4d70:	349c0100 	ldrcc	r0, [ip], #256	; 0x100
    4d74:	0a000001 	beq	4d80 <__code_start__-0x3280>
    4d78:	00000b92 	muleq	r0, r2, fp
    4d7c:	34150401 	ldrcc	r0, [r5], #-1025	; 0xfffffbff
    4d80:	01000001 	tsteq	r0, r1
    4d84:	72730b50 	rsbsvc	r0, r3, #80, 22	; 0x14000
    4d88:	04010063 	streq	r0, [r1], #-99	; 0xffffff9d
    4d8c:	00009b27 	andeq	r9, r0, r7, lsr #22
    4d90:	00319700 	eorseq	r9, r1, r0, lsl #14
    4d94:	00319300 	eorseq	r9, r1, r0, lsl #6
    4d98:	31730c00 	cmncc	r3, r0, lsl #24
    4d9c:	0b050100 	bleq	1451a4 <__bss_end__+0x13a3f4>
    4da0:	00000134 	andeq	r0, r0, r4, lsr r1
    4da4:	000031c6 	andeq	r3, r0, r6, asr #3
    4da8:	000031b8 			; <UNDEFINED> instruction: 0x000031b8
    4dac:	0032730c 	eorseq	r7, r2, ip, lsl #6
    4db0:	9b110601 	blls	4465bc <__bss_end__+0x43b80c>
    4db4:	25000000 	strcs	r0, [r0, #-0]
    4db8:	1f000032 	svcne	0x00000032
    4dbc:	0c000032 	stceq	0, cr0, [r0], {50}	; 0x32
    4dc0:	07010063 	streq	r0, [r1, -r3, rrx]
    4dc4:	0000a10a 	andeq	sl, r0, sl, lsl #2
    4dc8:	00325600 	eorseq	r5, r2, r0, lsl #12
    4dcc:	00325000 	eorseq	r5, r2, r0
    4dd0:	04070000 	streq	r0, [r7], #-0
    4dd4:	000000a1 	andeq	r0, r0, r1, lsr #1
    4dd8:	0000f700 	andeq	pc, r0, r0, lsl #14
    4ddc:	06000400 	streq	r0, [r0], -r0, lsl #8
    4de0:	0400001b 	streq	r0, [r0], #-27	; 0xffffffe5
    4de4:	00046401 	andeq	r6, r4, r1, lsl #8
    4de8:	0b970c00 	bleq	fe5c7df0 <__bss_end__+0xfe5bd040>
    4dec:	051c0000 	ldreq	r0, [ip, #-0]
    4df0:	a0ac0000 	adcge	r0, ip, r0
    4df4:	00440000 	subeq	r0, r4, r0
    4df8:	263b0000 	ldrtcs	r0, [fp], -r0
    4dfc:	04020000 	streq	r0, [r2], #-0
    4e00:	746e6905 	strbtvc	r6, [lr], #-2309	; 0xfffff6fb
    4e04:	07040300 	streq	r0, [r4, -r0, lsl #6]
    4e08:	00000097 	muleq	r0, r7, r0
    4e0c:	48060103 	stmdami	r6, {r0, r1, r8}
    4e10:	03000000 	movweq	r0, #0
    4e14:	00e40502 	rsceq	r0, r4, r2, lsl #10
    4e18:	04030000 	streq	r0, [r3], #-0
    4e1c:	0000a905 	andeq	sl, r0, r5, lsl #18
    4e20:	05080300 	streq	r0, [r8, #-768]	; 0xfffffd00
    4e24:	000000a4 	andeq	r0, r0, r4, lsr #1
    4e28:	46080103 	strmi	r0, [r8], -r3, lsl #2
    4e2c:	03000000 	movweq	r0, #0
    4e30:	00540702 	subseq	r0, r4, r2, lsl #14
    4e34:	04030000 	streq	r0, [r3], #-0
    4e38:	00009207 	andeq	r9, r0, r7, lsl #4
    4e3c:	07080300 	streq	r0, [r8, -r0, lsl #6]
    4e40:	0000008d 	andeq	r0, r0, sp, lsl #1
    4e44:	00002504 	andeq	r2, r0, r4, lsl #10
    4e48:	00007a00 	andeq	r7, r0, r0, lsl #20
    4e4c:	00250500 	eoreq	r0, r5, r0, lsl #10
    4e50:	06000000 	streq	r0, [r0], -r0
    4e54:	000000f8 	strdeq	r0, [r0], -r8
    4e58:	860e1c02 	strhi	r1, [lr], -r2, lsl #24
    4e5c:	07000000 	streq	r0, [r0, -r0]
    4e60:	00006b04 	andeq	r6, r0, r4, lsl #22
    4e64:	00250400 	eoreq	r0, r5, r0, lsl #8
    4e68:	009b0000 	addseq	r0, fp, r0
    4e6c:	9b050000 	blls	144e74 <__bss_end__+0x13a0c4>
    4e70:	00000000 	andeq	r0, r0, r0
    4e74:	00a80407 	adceq	r0, r8, r7, lsl #8
    4e78:	01030000 	mrseq	r0, (UNDEF: 3)
    4e7c:	00004f08 	andeq	r4, r0, r8, lsl #30
    4e80:	00a10800 	adceq	r0, r1, r0, lsl #16
    4e84:	84060000 	strhi	r0, [r6], #-0
    4e88:	02000005 	andeq	r0, r0, #5, 0
    4e8c:	00b90e21 	adcseq	r0, r9, r1, lsr #28
    4e90:	04070000 	streq	r0, [r7], #-0
    4e94:	0000008c 	andeq	r0, r0, ip, lsl #1
    4e98:	00062e09 	andeq	r2, r6, r9, lsl #28
    4e9c:	05030100 	streq	r0, [r3, #-256]	; 0xffffff00
    4ea0:	00000025 	andeq	r0, r0, r5, lsr #32
    4ea4:	0000a0ac 	andeq	sl, r0, ip, lsr #1
    4ea8:	00000044 	andeq	r0, r0, r4, asr #32
    4eac:	610a9c01 	tstvs	sl, r1, lsl #24
    4eb0:	18030100 	stmdane	r3, {r8}
    4eb4:	0000009b 	muleq	r0, fp, r0
    4eb8:	0000328d 	andeq	r3, r0, sp, lsl #5
    4ebc:	00003281 	andeq	r3, r0, r1, lsl #5
    4ec0:	0100620a 	tsteq	r0, sl, lsl #4
    4ec4:	009b2703 	addseq	r2, fp, r3, lsl #14
    4ec8:	32e10000 	rsccc	r0, r1, #0, 0
    4ecc:	32db0000 	sbcscc	r0, fp, #0, 0
    4ed0:	00000000 	andeq	r0, r0, r0
    4ed4:	0000010f 	andeq	r0, r0, pc, lsl #2
    4ed8:	1b950004 	blne	fe544ef0 <__bss_end__+0xfe53a140>
    4edc:	01040000 	mrseq	r0, (UNDEF: 4)
    4ee0:	00000464 	andeq	r0, r0, r4, ror #8
    4ee4:	000ba70c 	andeq	sl, fp, ip, lsl #14
    4ee8:	00051c00 	andeq	r1, r5, r0, lsl #24
    4eec:	00a0f000 	adceq	pc, r0, r0
    4ef0:	00001800 	andeq	r1, r0, r0, lsl #16
    4ef4:	0026f100 	eoreq	pc, r6, r0, lsl #2
    4ef8:	05040200 	streq	r0, [r4, #-512]	; 0xfffffe00
    4efc:	00746e69 	rsbseq	r6, r4, r9, ror #28
    4f00:	97070403 	strls	r0, [r7, -r3, lsl #8]
    4f04:	03000000 	movweq	r0, #0
    4f08:	00480601 	subeq	r0, r8, r1, lsl #12
    4f0c:	02030000 	andeq	r0, r3, #0, 0
    4f10:	0000e405 	andeq	lr, r0, r5, lsl #8
    4f14:	05040300 	streq	r0, [r4, #-768]	; 0xfffffd00
    4f18:	000000a9 	andeq	r0, r0, r9, lsr #1
    4f1c:	a4050803 	strge	r0, [r5], #-2051	; 0xfffff7fd
    4f20:	03000000 	movweq	r0, #0
    4f24:	00460801 	subeq	r0, r6, r1, lsl #16
    4f28:	02030000 	andeq	r0, r3, #0, 0
    4f2c:	00005407 	andeq	r5, r0, r7, lsl #8
    4f30:	07040300 	streq	r0, [r4, -r0, lsl #6]
    4f34:	00000092 	muleq	r0, r2, r0
    4f38:	8d070803 	stchi	8, cr0, [r7, #-12]
    4f3c:	04000000 	streq	r0, [r0], #-0
    4f40:	00000025 	andeq	r0, r0, r5, lsr #32
    4f44:	0000007a 	andeq	r0, r0, sl, ror r0
    4f48:	00002505 	andeq	r2, r0, r5, lsl #10
    4f4c:	f8060000 			; <UNDEFINED> instruction: 0xf8060000
    4f50:	02000000 	andeq	r0, r0, #0, 0
    4f54:	00860e1c 	addeq	r0, r6, ip, lsl lr
    4f58:	04070000 	streq	r0, [r7], #-0
    4f5c:	0000006b 	andeq	r0, r0, fp, rrx
    4f60:	00002504 	andeq	r2, r0, r4, lsl #10
    4f64:	00009b00 	andeq	r9, r0, r0, lsl #22
    4f68:	009b0500 	addseq	r0, fp, r0, lsl #10
    4f6c:	07000000 	streq	r0, [r0, -r0]
    4f70:	0000a804 	andeq	sl, r0, r4, lsl #16
    4f74:	08010300 	stmdaeq	r1, {r8, r9}
    4f78:	0000004f 	andeq	r0, r0, pc, asr #32
    4f7c:	0000a108 	andeq	sl, r0, r8, lsl #2
    4f80:	05840600 	streq	r0, [r4, #1536]	; 0x600
    4f84:	21020000 	mrscs	r0, (UNDEF: 2)
    4f88:	0000b90e 	andeq	fp, r0, lr, lsl #18
    4f8c:	8c040700 	stchi	7, cr0, [r4], {-0}
    4f90:	09000000 	stmdbeq	r0, {}	; <UNPREDICTABLE>
    4f94:	00000607 	andeq	r0, r0, r7, lsl #12
    4f98:	0c070301 	stceq	3, cr0, [r7], {1}
    4f9c:	f0000001 			; <UNDEFINED> instruction: 0xf0000001
    4fa0:	180000a0 	stmdane	r0, {r5, r7}
    4fa4:	01000000 	mrseq	r0, (UNDEF: 0)
    4fa8:	00010c9c 	muleq	r1, ip, ip
    4fac:	31730a00 	cmncc	r3, r0, lsl #20
    4fb0:	15030100 	strne	r0, [r3, #-256]	; 0xffffff00
    4fb4:	0000010c 	andeq	r0, r0, ip, lsl #2
    4fb8:	730b5001 	movwvc	r5, #45057	; 0xb001
    4fbc:	03010032 	movweq	r0, #4146	; 0x1032
    4fc0:	00009b26 	andeq	r9, r0, r6, lsr #22
    4fc4:	00331000 	eorseq	r1, r3, r0
    4fc8:	00330a00 	eorseq	r0, r3, r0, lsl #20
    4fcc:	00730c00 	rsbseq	r0, r3, r0, lsl #24
    4fd0:	0c140401 	cfldrseq	mvf0, [r4], {1}
    4fd4:	3d000001 	stccc	0, cr0, [r0, #-4]
    4fd8:	3b000033 	blcc	50ac <__code_start__-0x2f54>
    4fdc:	00000033 	andeq	r0, r0, r3, lsr r0
    4fe0:	00a10407 	adceq	r0, r1, r7, lsl #8
    4fe4:	4e000000 	cdpmi	0, 0, cr0, cr0, cr0, {0}
    4fe8:	04000001 	streq	r0, [r0], #-1
    4fec:	001c4b00 	andseq	r4, ip, r0, lsl #22
    4ff0:	64010400 	strvs	r0, [r1], #-1024	; 0xfffffc00
    4ff4:	0c000004 	stceq	0, cr0, [r0], {4}
    4ff8:	00000bb7 			; <UNDEFINED> instruction: 0x00000bb7
    4ffc:	0000051c 	andeq	r0, r0, ip, lsl r5
    5000:	0000a108 	andeq	sl, r0, r8, lsl #2
    5004:	00000030 	andeq	r0, r0, r0, lsr r0
    5008:	00002792 	muleq	r0, r2, r7
    500c:	69050402 	stmdbvs	r5, {r1, sl}
    5010:	0300746e 	movweq	r7, #1134	; 0x46e
    5014:	0000044d 	andeq	r0, r0, sp, asr #8
    5018:	3817d103 	ldmdacc	r7, {r0, r1, r8, ip, lr, pc}
    501c:	04000000 	streq	r0, [r0], #-0
    5020:	00970704 	addseq	r0, r7, r4, lsl #14
    5024:	01040000 	mrseq	r0, (UNDEF: 4)
    5028:	00004806 	andeq	r4, r0, r6, lsl #16
    502c:	05020400 	streq	r0, [r2, #-1024]	; 0xfffffc00
    5030:	000000e4 	andeq	r0, r0, r4, ror #1
    5034:	a9050404 	stmdbge	r5, {r2, sl}
    5038:	04000000 	streq	r0, [r0], #-0
    503c:	00a40508 	adceq	r0, r4, r8, lsl #10
    5040:	01040000 	mrseq	r0, (UNDEF: 4)
    5044:	00004608 	andeq	r4, r0, r8, lsl #12
    5048:	005b0500 	subseq	r0, fp, r0, lsl #10
    504c:	02040000 	andeq	r0, r4, #0, 0
    5050:	00005407 	andeq	r5, r0, r7, lsl #8
    5054:	07040400 	streq	r0, [r4, -r0, lsl #8]
    5058:	00000092 	muleq	r0, r2, r0
    505c:	8d070804 	stchi	8, cr0, [r7, #-16]
    5060:	06000000 	streq	r0, [r0], -r0
    5064:	00000025 	andeq	r0, r0, r5, lsr #32
    5068:	0000008b 	andeq	r0, r0, fp, lsl #1
    506c:	00002507 	andeq	r2, r0, r7, lsl #10
    5070:	f8080000 			; <UNDEFINED> instruction: 0xf8080000
    5074:	02000000 	andeq	r0, r0, #0, 0
    5078:	00970e1c 	addseq	r0, r7, ip, lsl lr
    507c:	04090000 	streq	r0, [r9], #-0
    5080:	0000007c 	andeq	r0, r0, ip, ror r0
    5084:	00002506 	andeq	r2, r0, r6, lsl #10
    5088:	0000ac00 	andeq	sl, r0, r0, lsl #24
    508c:	00ac0700 	adceq	r0, ip, r0, lsl #14
    5090:	09000000 	stmdbeq	r0, {}	; <UNPREDICTABLE>
    5094:	0000b904 	andeq	fp, r0, r4, lsl #18
    5098:	08010400 	stmdaeq	r1, {sl}
    509c:	0000004f 	andeq	r0, r0, pc, asr #32
    50a0:	0000b205 	andeq	fp, r0, r5, lsl #4
    50a4:	05840800 	streq	r0, [r4, #2048]	; 0x800
    50a8:	21020000 	mrscs	r0, (UNDEF: 2)
    50ac:	0000ca0e 	andeq	ip, r0, lr, lsl #20
    50b0:	9d040900 	vstrls.16	s0, [r4, #-0]	; <UNPREDICTABLE>
    50b4:	0a000000 	beq	50bc <__code_start__-0x2f44>
    50b8:	0000064f 	andeq	r0, r0, pc, asr #12
    50bc:	25050401 	strcs	r0, [r5, #-1025]	; 0xfffffbff
    50c0:	08000000 	stmdaeq	r0, {}	; <UNPREDICTABLE>
    50c4:	300000a1 	andcc	r0, r0, r1, lsr #1
    50c8:	01000000 	mrseq	r0, (UNDEF: 0)
    50cc:	00014b9c 	muleq	r1, ip, fp
    50d0:	735f0b00 	cmpvc	pc, #0, 22
    50d4:	04010031 	streq	r0, [r1], #-49	; 0xffffffcf
    50d8:	0000ac19 	andeq	sl, r0, r9, lsl ip
    50dc:	00335400 	eorseq	r5, r3, r0, lsl #8
    50e0:	00335000 	eorseq	r5, r3, r0
    50e4:	735f0b00 	cmpvc	pc, #0, 22
    50e8:	04010032 	streq	r0, [r1], #-50	; 0xffffffce
    50ec:	0000ac2a 	andeq	sl, r0, sl, lsr #24
    50f0:	00337900 	eorseq	r7, r3, r0, lsl #18
    50f4:	00337500 	eorseq	r7, r3, r0, lsl #10
    50f8:	006e0b00 	rsbeq	r0, lr, r0, lsl #22
    50fc:	2c360401 	cfldrscs	mvf0, [r6], #-4
    5100:	a4000000 	strge	r0, [r0], #-0
    5104:	9a000033 	bls	51d8 <__code_start__-0x2e28>
    5108:	0c000033 	stceq	0, cr0, [r0], {51}	; 0x33
    510c:	01003173 	tsteq	r0, r3, ror r1
    5110:	014b1a05 	cmpeq	fp, r5, lsl #20
    5114:	33fb0000 	mvnscc	r0, #0, 0
    5118:	33f30000 	mvnscc	r0, #0, 0
    511c:	730c0000 	movwvc	r0, #49152	; 0xc000
    5120:	05010032 	streq	r0, [r1, #-50]	; 0xffffffce
    5124:	00014b2c 	andeq	r4, r1, ip, lsr #22
    5128:	00343900 	eorseq	r3, r4, r0, lsl #18
    512c:	00343300 	eorseq	r3, r4, r0, lsl #6
    5130:	04090000 	streq	r0, [r9], #-0
    5134:	00000062 	andeq	r0, r0, r2, rrx
    5138:	0000ce00 	andeq	ip, r0, r0, lsl #28
    513c:	ff000400 			; <UNDEFINED> instruction: 0xff000400
    5140:	0400001c 	streq	r0, [r0], #-28	; 0xffffffe4
    5144:	00046401 	andeq	r6, r4, r1, lsl #8
    5148:	0bc80c00 	bleq	ff208150 <__bss_end__+0xff1fd3a0>
    514c:	051c0000 	ldreq	r0, [ip, #-0]
    5150:	a1380000 	teqge	r8, r0
    5154:	00040000 	andeq	r0, r4, r0
    5158:	28930000 	ldmcs	r3, {}	; <UNPREDICTABLE>
    515c:	04020000 	streq	r0, [r2], #-0
    5160:	746e6905 	strbtvc	r6, [lr], #-2309	; 0xfffff6fb
    5164:	07040300 	streq	r0, [r4, -r0, lsl #6]
    5168:	00000097 	muleq	r0, r7, r0
    516c:	48060103 	stmdami	r6, {r0, r1, r8}
    5170:	03000000 	movweq	r0, #0
    5174:	00e40502 	rsceq	r0, r4, r2, lsl #10
    5178:	04030000 	streq	r0, [r3], #-0
    517c:	0000a905 	andeq	sl, r0, r5, lsl #18
    5180:	05080300 	streq	r0, [r8, #-768]	; 0xfffffd00
    5184:	000000a4 	andeq	r0, r0, r4, lsr #1
    5188:	46080103 	strmi	r0, [r8], -r3, lsl #2
    518c:	03000000 	movweq	r0, #0
    5190:	00540702 	subseq	r0, r4, r2, lsl #14
    5194:	04030000 	streq	r0, [r3], #-0
    5198:	00009207 	andeq	r9, r0, r7, lsl #4
    519c:	07080300 	streq	r0, [r8, -r0, lsl #6]
    51a0:	0000008d 	andeq	r0, r0, sp, lsl #1
    51a4:	00002504 	andeq	r2, r0, r4, lsl #10
    51a8:	00007a00 	andeq	r7, r0, r0, lsl #20
    51ac:	00250500 	eoreq	r0, r5, r0, lsl #10
    51b0:	06000000 	streq	r0, [r0], -r0
    51b4:	000000f8 	strdeq	r0, [r0], -r8
    51b8:	860e1c02 	strhi	r1, [lr], -r2, lsl #24
    51bc:	07000000 	streq	r0, [r0, -r0]
    51c0:	00006b04 	andeq	r6, r0, r4, lsl #22
    51c4:	00250400 	eoreq	r0, r5, r0, lsl #8
    51c8:	009b0000 	addseq	r0, fp, r0
    51cc:	9b050000 	blls	1451d4 <__bss_end__+0x13a424>
    51d0:	00000000 	andeq	r0, r0, r0
    51d4:	00a80407 	adceq	r0, r8, r7, lsl #8
    51d8:	01030000 	mrseq	r0, (UNDEF: 3)
    51dc:	00004f08 	andeq	r4, r0, r8, lsl #30
    51e0:	00a10800 	adceq	r0, r1, r0, lsl #16
    51e4:	84060000 	strhi	r0, [r6], #-0
    51e8:	02000005 	andeq	r0, r0, #5, 0
    51ec:	00b90e21 	adcseq	r0, r9, r1, lsr #28
    51f0:	04070000 	streq	r0, [r7], #-0
    51f4:	0000008c 	andeq	r0, r0, ip, lsl #1
    51f8:	0006f609 	andeq	pc, r6, r9, lsl #12
    51fc:	06030100 	streq	r0, [r3], -r0, lsl #2
    5200:	0000a138 	andeq	sl, r0, r8, lsr r1
    5204:	00000004 	andeq	r0, r0, r4
    5208:	Address 0x0000000000005208 is out of bounds.


Disassembly of section .debug_abbrev:

00000000 <.debug_abbrev>:
       0:	25011101 	strcs	r1, [r1, #-257]	; 0xfffffeff
       4:	030b130e 	movweq	r1, #45838	; 0xb30e
       8:	110e1b0e 	tstne	lr, lr, lsl #22
       c:	10061201 	andne	r1, r6, r1, lsl #4
      10:	02000017 	andeq	r0, r0, #23, 0
      14:	0b0b0024 	bleq	2c00ac <__bss_end__+0x2b52fc>
      18:	08030b3e 	stmdaeq	r3, {r1, r2, r3, r4, r5, r8, r9, fp}
      1c:	24030000 	strcs	r0, [r3], #-0
      20:	3e0b0b00 	vmlacc.f64	d0, d11, d0
      24:	000e030b 	andeq	r0, lr, fp, lsl #6
      28:	01150400 	tsteq	r5, r0, lsl #8
      2c:	13491927 	movtne	r1, #39207	; 0x9927
      30:	00001301 	andeq	r1, r0, r1, lsl #6
      34:	49000505 	stmdbmi	r0, {r0, r2, r8, sl}
      38:	06000013 			; <UNDEFINED> instruction: 0x06000013
      3c:	0e030034 	mcreq	0, 0, r0, cr3, cr4, {1}
      40:	0b3b0b3a 	bleq	ec2d30 <__bss_end__+0xeb7f80>
      44:	13490b39 	movtne	r0, #39737	; 0x9b39
      48:	193c193f 	ldmdbne	ip!, {r0, r1, r2, r3, r4, r5, r8, fp, ip}
      4c:	0f070000 	svceq	0x00070000
      50:	490b0b00 	stmdbmi	fp, {r8, r9, fp}
      54:	08000013 	stmdaeq	r0, {r0, r1, r4}
      58:	13490026 	movtne	r0, #36902	; 0x9026
      5c:	13090000 	movwne	r0, #36864	; 0x9000
      60:	3a0b0b01 	bcc	2c2c6c <__bss_end__+0x2b7ebc>
      64:	390b3b0b 	stmdbcc	fp, {r0, r1, r3, r8, r9, fp, ip, sp}
      68:	0013010b 	andseq	r0, r3, fp, lsl #2
      6c:	000d0a00 	andeq	r0, sp, r0, lsl #20
      70:	0b3a0e03 	bleq	e83884 <__bss_end__+0xe78ad4>
      74:	0b390b3b 	bleq	e42d68 <__bss_end__+0xe37fb8>
      78:	0b381349 	bleq	e04da4 <__bss_end__+0xdf9ff4>
      7c:	160b0000 	strne	r0, [fp], -r0
      80:	3a0e0300 	bcc	380c88 <__bss_end__+0x375ed8>
      84:	390b3b0b 	stmdbcc	fp, {r0, r1, r3, r8, r9, fp, ip, sp}
      88:	0013490b 	andseq	r4, r3, fp, lsl #18
      8c:	000f0c00 	andeq	r0, pc, r0, lsl #24
      90:	00000b0b 	andeq	r0, r0, fp, lsl #22
      94:	3f012e0d 	svccc	0x00012e0d
      98:	3a0e0319 	bcc	380d04 <__bss_end__+0x375f54>
      9c:	390b3b0b 	stmdbcc	fp, {r0, r1, r3, r8, r9, fp, ip, sp}
      a0:	1119270b 	tstne	r9, fp, lsl #14
      a4:	40061201 	andmi	r1, r6, r1, lsl #4
      a8:	19429718 	stmdbne	r2, {r3, r4, r8, r9, sl, ip, pc}^
      ac:	00001301 	andeq	r1, r0, r1, lsl #6
      b0:	0182890e 	orreq	r8, r2, lr, lsl #18
      b4:	31011101 	tstcc	r1, r1, lsl #2
      b8:	00130113 	andseq	r0, r3, r3, lsl r1
      bc:	828a0f00 	addhi	r0, sl, #0, 30
      c0:	18020001 	stmdane	r2, {r0}
      c4:	00184291 	mulseq	r8, r1, r2
      c8:	82891000 	addhi	r1, r9, #0, 0
      cc:	01110001 	tsteq	r1, r1
      d0:	00001331 	andeq	r1, r0, r1, lsr r3
      d4:	01828911 	orreq	r8, r2, r1, lsl r9
      d8:	31011101 	tstcc	r1, r1, lsl #2
      dc:	12000013 	andne	r0, r0, #19, 0
      e0:	193f012e 	ldmdbne	pc!, {r1, r2, r3, r5, r8}	; <UNPREDICTABLE>
      e4:	0b3a0e03 	bleq	e838f8 <__bss_end__+0xe78b48>
      e8:	0b390b3b 	bleq	e42ddc <__bss_end__+0xe3802c>
      ec:	13491927 	movtne	r1, #39207	; 0x9927
      f0:	06120111 			; <UNDEFINED> instruction: 0x06120111
      f4:	42971840 	addsmi	r1, r7, #64, 16	; 0x400000
      f8:	00130119 	andseq	r0, r3, r9, lsl r1
      fc:	01131300 	tsteq	r3, r0, lsl #6
     100:	0b0b0e03 	bleq	2c3914 <__bss_end__+0x2b8b64>
     104:	0b3b0b3a 	bleq	ec2df4 <__bss_end__+0xeb8044>
     108:	13010b39 	movwne	r0, #6969	; 0x1b39
     10c:	0d140000 	ldceq	0, cr0, [r4, #-0]
     110:	3a080300 	bcc	200d18 <__bss_end__+0x1f5f68>
     114:	390b3b0b 	stmdbcc	fp, {r0, r1, r3, r8, r9, fp, ip, sp}
     118:	3813490b 	ldmdacc	r3, {r0, r1, r3, r8, fp, lr}
     11c:	1500000b 	strne	r0, [r0, #-11]
     120:	08030034 	stmdaeq	r3, {r2, r4, r5}
     124:	0b3b0b3a 	bleq	ec2e14 <__bss_end__+0xeb8064>
     128:	13490b39 	movtne	r0, #39737	; 0x9b39
     12c:	42b71702 	adcsmi	r1, r7, #524288	; 0x80000
     130:	16000017 			; <UNDEFINED> instruction: 0x16000017
     134:	0e030034 	mcreq	0, 0, r0, cr3, cr4, {1}
     138:	19341349 	ldmdbne	r4!, {r0, r3, r6, r8, r9, ip}
     13c:	00001802 	andeq	r1, r0, r2, lsl #16
     140:	55010b17 	strpl	r0, [r1, #-2839]	; 0xfffff4e9
     144:	00130117 	andseq	r0, r3, r7, lsl r1
     148:	010b1800 	tsteq	fp, r0, lsl #16
     14c:	00001755 	andeq	r1, r0, r5, asr r7
     150:	31011d19 	tstcc	r1, r9, lsl sp
     154:	b8015213 	stmdalt	r1, {r0, r1, r4, r9, ip, lr}
     158:	01110b42 	tsteq	r1, r2, asr #22
     15c:	0b580612 	bleq	16019ac <__bss_end__+0x15f6bfc>
     160:	0b570b59 	bleq	15c2ecc <__bss_end__+0x15b811c>
     164:	00001301 	andeq	r1, r0, r1, lsl #6
     168:	3100051a 	tstcc	r0, sl, lsl r5
     16c:	b7170213 			; <UNDEFINED> instruction: 0xb7170213
     170:	00001742 	andeq	r1, r0, r2, asr #14
     174:	4901011b 	stmdbmi	r1, {r0, r1, r3, r4, r8}
     178:	00130113 	andseq	r0, r3, r3, lsl r1
     17c:	00211c00 	eoreq	r1, r1, r0, lsl #24
     180:	0b2f1349 	bleq	bc4eac <__bss_end__+0xbba0fc>
     184:	2e1d0000 	cdpcs	0, 1, cr0, cr13, cr0, {0}
     188:	3a0e0301 	bcc	380d94 <__bss_end__+0x375fe4>
     18c:	390b3b0b 	stmdbcc	fp, {r0, r1, r3, r8, r9, fp, ip, sp}
     190:	4919270b 	ldmdbmi	r9, {r0, r1, r3, r8, r9, sl, sp}
     194:	010b2013 	tsteq	fp, r3, lsl r0
     198:	1e000013 	mcrne	0, 0, r0, cr0, cr3, {0}
     19c:	0e030005 	cdpeq	0, 0, cr0, cr3, cr5, {0}
     1a0:	0b3b0b3a 	bleq	ec2e90 <__bss_end__+0xeb80e0>
     1a4:	13490b39 	movtne	r0, #39737	; 0x9b39
     1a8:	2e1f0000 	cdpcs	0, 1, cr0, cr15, cr0, {0}
     1ac:	3c193f00 	ldccc	15, cr3, [r9], {-0}
     1b0:	030e6e19 	movweq	r6, #60953	; 0xee19
     1b4:	3b0b3a0e 	blcc	2ce9f4 <__bss_end__+0x2c3c44>
     1b8:	000b390b 	andeq	r3, fp, fp, lsl #18
     1bc:	00362000 	eorseq	r2, r6, r0
     1c0:	00001802 	andeq	r1, r0, r2, lsl #16
     1c4:	01110100 	tsteq	r1, r0, lsl #2
     1c8:	0b130e25 	bleq	4c3a64 <__bss_end__+0x4b8cb4>
     1cc:	0e1b0e03 	cdpeq	14, 1, cr0, cr11, cr3, {0}
     1d0:	06120111 			; <UNDEFINED> instruction: 0x06120111
     1d4:	00001710 	andeq	r1, r0, r0, lsl r7
     1d8:	0b002402 	bleq	91e8 <va_printk+0x1d8>
     1dc:	030b3e0b 	movweq	r3, #48651	; 0xbe0b
     1e0:	03000008 	movweq	r0, #8
     1e4:	0b0b0024 	bleq	2c027c <__bss_end__+0x2b54cc>
     1e8:	0e030b3e 	vmoveq.16	d3[0], r0
     1ec:	16040000 	strne	r0, [r4], -r0
     1f0:	3a0e0300 	bcc	380df8 <__bss_end__+0x376048>
     1f4:	390b3b0b 	stmdbcc	fp, {r0, r1, r3, r8, r9, fp, ip, sp}
     1f8:	0013490b 	andseq	r4, r3, fp, lsl #18
     1fc:	01150500 	tsteq	r5, r0, lsl #10
     200:	13491927 	movtne	r1, #39207	; 0x9927
     204:	00001301 	andeq	r1, r0, r1, lsl #6
     208:	49000506 	stmdbmi	r0, {r1, r2, r8, sl}
     20c:	07000013 	smladeq	r0, r3, r0, r0
     210:	0e030034 	mcreq	0, 0, r0, cr3, cr4, {1}
     214:	0b3b0b3a 	bleq	ec2f04 <__bss_end__+0xeb8154>
     218:	13490b39 	movtne	r0, #39737	; 0x9b39
     21c:	193c193f 	ldmdbne	ip!, {r0, r1, r2, r3, r4, r5, r8, fp, ip}
     220:	0f080000 	svceq	0x00080000
     224:	490b0b00 	stmdbmi	fp, {r8, r9, fp}
     228:	09000013 	stmdbeq	r0, {r0, r1, r4}
     22c:	13490026 	movtne	r0, #36902	; 0x9026
     230:	130a0000 	movwne	r0, #40960	; 0xa000
     234:	3a0b0b01 	bcc	2c2e40 <__bss_end__+0x2b8090>
     238:	390b3b0b 	stmdbcc	fp, {r0, r1, r3, r8, r9, fp, ip, sp}
     23c:	0013010b 	andseq	r0, r3, fp, lsl #2
     240:	000d0b00 	andeq	r0, sp, r0, lsl #22
     244:	0b3a0e03 	bleq	e83a58 <__bss_end__+0xe78ca8>
     248:	0b390b3b 	bleq	e42f3c <__bss_end__+0xe3818c>
     24c:	0b381349 	bleq	e04f78 <__bss_end__+0xdfa1c8>
     250:	040c0000 	streq	r0, [ip], #-0
     254:	0b0b3e01 	bleq	2cfa60 <__bss_end__+0x2c4cb0>
     258:	3a13490b 	bcc	4d268c <__bss_end__+0x4c78dc>
     25c:	390b3b0b 	stmdbcc	fp, {r0, r1, r3, r8, r9, fp, ip, sp}
     260:	0013010b 	andseq	r0, r3, fp, lsl #2
     264:	00280d00 	eoreq	r0, r8, r0, lsl #26
     268:	0b1c0e03 	bleq	703a7c <__bss_end__+0x6f8ccc>
     26c:	130e0000 	movwne	r0, #57344	; 0xe000
     270:	0b0e0301 	bleq	380e7c <__bss_end__+0x3760cc>
     274:	3b0b3a0b 	blcc	2ceaa8 <__bss_end__+0x2c3cf8>
     278:	010b390b 	tsteq	fp, fp, lsl #18
     27c:	0f000013 	svceq	0x00000013
     280:	0b0b000f 	bleq	2c02c4 <__bss_end__+0x2b5514>
     284:	34100000 	ldrcc	r0, [r0], #-0
     288:	3a0e0300 	bcc	380e90 <__bss_end__+0x3760e0>
     28c:	390b3b0b 	stmdbcc	fp, {r0, r1, r3, r8, r9, fp, ip, sp}
     290:	0213490b 	andseq	r4, r3, #180224	; 0x2c000
     294:	11000018 	tstne	r0, r8, lsl r0
     298:	193f012e 	ldmdbne	pc!, {r1, r2, r3, r5, r8}	; <UNPREDICTABLE>
     29c:	0b3a0e03 	bleq	e83ab0 <__bss_end__+0xe78d00>
     2a0:	0b390b3b 	bleq	e42f94 <__bss_end__+0xe381e4>
     2a4:	13491927 	movtne	r1, #39207	; 0x9927
     2a8:	06120111 			; <UNDEFINED> instruction: 0x06120111
     2ac:	42971840 	addsmi	r1, r7, #64, 16	; 0x400000
     2b0:	00130119 	andseq	r0, r3, r9, lsl r1
     2b4:	00051200 	andeq	r1, r5, r0, lsl #4
     2b8:	0b3a0e03 	bleq	e83acc <__bss_end__+0xe78d1c>
     2bc:	0b390b3b 	bleq	e42fb0 <__bss_end__+0xe38200>
     2c0:	17021349 	strne	r1, [r2, -r9, asr #6]
     2c4:	001742b7 			; <UNDEFINED> instruction: 0x001742b7
     2c8:	00051300 	andeq	r1, r5, r0, lsl #6
     2cc:	0b3a0803 	bleq	e822e0 <__bss_end__+0xe77530>
     2d0:	0b390b3b 	bleq	e42fc4 <__bss_end__+0xe38214>
     2d4:	18021349 	stmdane	r2, {r0, r3, r6, r8, r9, ip}
     2d8:	34140000 	ldrcc	r0, [r4], #-0
     2dc:	3a080300 	bcc	200ee4 <__bss_end__+0x1f6134>
     2e0:	390b3b0b 	stmdbcc	fp, {r0, r1, r3, r8, r9, fp, ip, sp}
     2e4:	0213490b 	andseq	r4, r3, #180224	; 0x2c000
     2e8:	1742b717 	smlaldne	fp, r2, r7, r7
     2ec:	89150000 	ldmdbhi	r5, {}	; <UNPREDICTABLE>
     2f0:	11010182 	smlabbne	r1, r2, r1, r0
     2f4:	01133101 	tsteq	r3, r1, lsl #2
     2f8:	16000013 			; <UNDEFINED> instruction: 0x16000013
     2fc:	0001828a 	andeq	r8, r1, sl, lsl #5
     300:	42911802 	addsmi	r1, r1, #131072	; 0x20000
     304:	17000018 	smladne	r0, r8, r0, r0
     308:	01018289 	smlabbeq	r1, r9, r2, r8
     30c:	13310111 	teqne	r1, #1073741828	; 0x40000004
     310:	2e180000 	cdpcs	0, 1, cr0, cr8, cr0, {0}
     314:	03193f01 	tsteq	r9, #1, 30
     318:	3b0b3a0e 	blcc	2ceb58 <__bss_end__+0x2c3da8>
     31c:	270b390b 	strcs	r3, [fp, -fp, lsl #18]
     320:	12011119 	andne	r1, r1, #1073741830	; 0x40000006
     324:	97184006 	ldrls	r4, [r8, -r6]
     328:	13011942 	movwne	r1, #6466	; 0x1942
     32c:	34190000 	ldrcc	r0, [r9], #-0
     330:	490e0300 	stmdbmi	lr, {r8, r9}
     334:	02193413 	andseq	r3, r9, #318767104	; 0x13000000
     338:	1a000018 	bne	3a0 <__code_start__-0x7c60>
     33c:	00018289 	andeq	r8, r1, r9, lsl #5
     340:	13310111 	teqne	r1, #1073741828	; 0x40000004
     344:	011b0000 	tsteq	fp, r0
     348:	01134901 	tsteq	r3, r1, lsl #18
     34c:	1c000013 	stcne	0, cr0, [r0], {19}
     350:	13490021 	movtne	r0, #36897	; 0x9021
     354:	00000b2f 	andeq	r0, r0, pc, lsr #22
     358:	03012e1d 	movweq	r2, #7709	; 0x1e1d
     35c:	3b0b3a0e 	blcc	2ceb9c <__bss_end__+0x2c3dec>
     360:	270b390b 	strcs	r3, [fp, -fp, lsl #18]
     364:	12011119 	andne	r1, r1, #1073741830	; 0x40000006
     368:	97184006 	ldrls	r4, [r8, -r6]
     36c:	13011942 	movwne	r1, #6466	; 0x1942
     370:	051e0000 	ldreq	r0, [lr, #-0]
     374:	3a080300 	bcc	200f7c <__bss_end__+0x1f61cc>
     378:	390b3b0b 	stmdbcc	fp, {r0, r1, r3, r8, r9, fp, ip, sp}
     37c:	0213490b 	andseq	r4, r3, #180224	; 0x2c000
     380:	1742b717 	smlaldne	fp, r2, r7, r7
     384:	341f0000 	ldrcc	r0, [pc], #-0	; 38c <__code_start__-0x7c74>
     388:	3a0e0300 	bcc	380f90 <__bss_end__+0x3761e0>
     38c:	390b3b0b 	stmdbcc	fp, {r0, r1, r3, r8, r9, fp, ip, sp}
     390:	0213490b 	andseq	r4, r3, #180224	; 0x2c000
     394:	1742b717 	smlaldne	fp, r2, r7, r7
     398:	0b200000 	bleq	8003a0 <__bss_end__+0x7f55f0>
     39c:	12011101 	andne	r1, r1, #1073741824	; 0x40000000
     3a0:	21000006 	tstcs	r0, r6
     3a4:	1331011d 	teqne	r1, #1073741831	; 0x40000007
     3a8:	42b80152 	adcsmi	r0, r8, #-2147483628	; 0x80000014
     3ac:	1201110b 	andne	r1, r1, #-1073741822	; 0xc0000002
     3b0:	590b5806 	stmdbpl	fp, {r1, r2, fp, ip, lr}
     3b4:	010b570b 	tsteq	fp, fp, lsl #14
     3b8:	22000013 	andcs	r0, r0, #19, 0
     3bc:	13310005 	teqne	r1, #5, 0
     3c0:	42b71702 	adcsmi	r1, r7, #524288	; 0x80000
     3c4:	23000017 	movwcs	r0, #23
     3c8:	193f002e 	ldmdbne	pc!, {r1, r2, r3, r5}	; <UNPREDICTABLE>
     3cc:	0b3a0e03 	bleq	e83be0 <__bss_end__+0xe78e30>
     3d0:	0b390b3b 	bleq	e430c4 <__bss_end__+0xe38314>
     3d4:	13491927 	movtne	r1, #39207	; 0x9927
     3d8:	06120111 			; <UNDEFINED> instruction: 0x06120111
     3dc:	42971840 	addsmi	r1, r7, #64, 16	; 0x400000
     3e0:	24000019 	strcs	r0, [r0], #-25	; 0xffffffe7
     3e4:	0e03012e 	adfeqsp	f0, f3, #0.5
     3e8:	0b3b0b3a 	bleq	ec30d8 <__bss_end__+0xeb8328>
     3ec:	19270b39 	stmdbne	r7!, {r0, r3, r4, r5, r8, r9, fp}
     3f0:	0b201349 	bleq	80511c <__bss_end__+0x7fa36c>
     3f4:	00001301 	andeq	r1, r0, r1, lsl #6
     3f8:	03000525 	movweq	r0, #1317	; 0x525
     3fc:	3b0b3a08 	blcc	2cec24 <__bss_end__+0x2c3e74>
     400:	490b390b 	stmdbmi	fp, {r0, r1, r3, r8, fp, ip, sp}
     404:	26000013 			; <UNDEFINED> instruction: 0x26000013
     408:	193f002e 	ldmdbne	pc!, {r1, r2, r3, r5}	; <UNPREDICTABLE>
     40c:	0e6e193c 			; <UNDEFINED> instruction: 0x0e6e193c
     410:	0b3a0e03 	bleq	e83c24 <__bss_end__+0xe78e74>
     414:	0b390b3b 	bleq	e43108 <__bss_end__+0xe38358>
     418:	01000000 	mrseq	r0, (UNDEF: 0)
     41c:	0e250111 	mcreq	1, 1, r0, cr5, cr1, {0}
     420:	0e030b13 	vmoveq.32	d3[0], r0
     424:	01110e1b 	tsteq	r1, fp, lsl lr
     428:	17100612 			; <UNDEFINED> instruction: 0x17100612
     42c:	24020000 	strcs	r0, [r2], #-0
     430:	3e0b0b00 	vmlacc.f64	d0, d11, d0
     434:	0008030b 	andeq	r0, r8, fp, lsl #6
     438:	00240300 	eoreq	r0, r4, r0, lsl #6
     43c:	0b3e0b0b 	bleq	f83070 <__bss_end__+0xf782c0>
     440:	00000e03 	andeq	r0, r0, r3, lsl #28
     444:	27011504 	strcs	r1, [r1, -r4, lsl #10]
     448:	01134919 	tsteq	r3, r9, lsl r9
     44c:	05000013 	streq	r0, [r0, #-19]	; 0xffffffed
     450:	13490005 	movtne	r0, #36869	; 0x9005
     454:	34060000 	strcc	r0, [r6], #-0
     458:	3a0e0300 	bcc	381060 <__bss_end__+0x3762b0>
     45c:	390b3b0b 	stmdbcc	fp, {r0, r1, r3, r8, r9, fp, ip, sp}
     460:	3f13490b 	svccc	0x0013490b
     464:	00193c19 	andseq	r3, r9, r9, lsl ip
     468:	000f0700 	andeq	r0, pc, r0, lsl #14
     46c:	13490b0b 	movtne	r0, #39691	; 0x9b0b
     470:	26080000 	strcs	r0, [r8], -r0
     474:	00134900 	andseq	r4, r3, r0, lsl #18
     478:	01170900 	tsteq	r7, r0, lsl #18
     47c:	0b0b0e03 	bleq	2c3c90 <__bss_end__+0x2b8ee0>
     480:	0b3b0b3a 	bleq	ec3170 <__bss_end__+0xeb83c0>
     484:	13010b39 	movwne	r0, #6969	; 0x1b39
     488:	0d0a0000 	stceq	0, cr0, [sl, #-0]
     48c:	3a080300 	bcc	201094 <__bss_end__+0x1f62e4>
     490:	390b3b0b 	stmdbcc	fp, {r0, r1, r3, r8, r9, fp, ip, sp}
     494:	0013490b 	andseq	r4, r3, fp, lsl #18
     498:	000f0b00 	andeq	r0, pc, r0, lsl #22
     49c:	00000b0b 	andeq	r0, r0, fp, lsl #22
     4a0:	2700150c 	strcs	r1, [r0, -ip, lsl #10]
     4a4:	0d000019 	stceq	0, cr0, [r0, #-100]	; 0xffffff9c
     4a8:	0b0b0113 	bleq	2c08fc <__bss_end__+0x2b5b4c>
     4ac:	0b3b0b3a 	bleq	ec319c <__bss_end__+0xeb83ec>
     4b0:	13010b39 	movwne	r0, #6969	; 0x1b39
     4b4:	0d0e0000 	stceq	0, cr0, [lr, #-0]
     4b8:	3a080300 	bcc	2010c0 <__bss_end__+0x1f6310>
     4bc:	390b3b0b 	stmdbcc	fp, {r0, r1, r3, r8, r9, fp, ip, sp}
     4c0:	3813490b 	ldmdacc	r3, {r0, r1, r3, r8, fp, lr}
     4c4:	0f00000b 	svceq	0x0000000b
     4c8:	0e03000d 	cdpeq	0, 0, cr0, cr3, cr13, {0}
     4cc:	0b3b0b3a 	bleq	ec31bc <__bss_end__+0xeb840c>
     4d0:	13490b39 	movtne	r0, #39737	; 0x9b39
     4d4:	00000b38 	andeq	r0, r0, r8, lsr fp
     4d8:	03001610 	movweq	r1, #1552	; 0x610
     4dc:	3b0b3a0e 	blcc	2ced1c <__bss_end__+0x2c3f6c>
     4e0:	490b390b 	stmdbmi	fp, {r0, r1, r3, r8, fp, ip, sp}
     4e4:	11000013 	tstne	r0, r3, lsl r0
     4e8:	0e030034 	mcreq	0, 0, r0, cr3, cr4, {1}
     4ec:	0b3b0b3a 	bleq	ec31dc <__bss_end__+0xeb842c>
     4f0:	13490b39 	movtne	r0, #39737	; 0x9b39
     4f4:	00001802 	andeq	r1, r0, r2, lsl #16
     4f8:	3f012e12 	svccc	0x00012e12
     4fc:	3a0e0319 	bcc	381168 <__bss_end__+0x3763b8>
     500:	390b3b0b 	stmdbcc	fp, {r0, r1, r3, r8, r9, fp, ip, sp}
     504:	1119270b 	tstne	r9, fp, lsl #14
     508:	40061201 	andmi	r1, r6, r1, lsl #4
     50c:	19429718 	stmdbne	r2, {r3, r4, r8, r9, sl, ip, pc}^
     510:	00001301 	andeq	r1, r0, r1, lsl #6
     514:	03000513 	movweq	r0, #1299	; 0x513
     518:	3b0b3a08 	blcc	2ced40 <__bss_end__+0x2c3f90>
     51c:	490b390b 	stmdbmi	fp, {r0, r1, r3, r8, fp, ip, sp}
     520:	00180213 	andseq	r0, r8, r3, lsl r2
     524:	00341400 	eorseq	r1, r4, r0, lsl #8
     528:	0b3a0803 	bleq	e8253c <__bss_end__+0xe7778c>
     52c:	0b390b3b 	bleq	e43220 <__bss_end__+0xe38470>
     530:	17021349 	strne	r1, [r2, -r9, asr #6]
     534:	001742b7 			; <UNDEFINED> instruction: 0x001742b7
     538:	012e1500 			; <UNDEFINED> instruction: 0x012e1500
     53c:	0e03193f 			; <UNDEFINED> instruction: 0x0e03193f
     540:	0b3b0b3a 	bleq	ec3230 <__bss_end__+0xeb8480>
     544:	19270b39 	stmdbne	r7!, {r0, r3, r4, r5, r8, r9, fp}
     548:	01111349 	tsteq	r1, r9, asr #6
     54c:	18400612 	stmdane	r0, {r1, r4, r9, sl}^
     550:	01194297 			; <UNDEFINED> instruction: 0x01194297
     554:	16000013 			; <UNDEFINED> instruction: 0x16000013
     558:	0e030005 	cdpeq	0, 0, cr0, cr3, cr5, {0}
     55c:	0b3b0b3a 	bleq	ec324c <__bss_end__+0xeb849c>
     560:	13490b39 	movtne	r0, #39737	; 0x9b39
     564:	42b71702 	adcsmi	r1, r7, #524288	; 0x80000
     568:	17000017 	smladne	r0, r7, r0, r0
     56c:	0e030034 	mcreq	0, 0, r0, cr3, cr4, {1}
     570:	0b3b0b3a 	bleq	ec3260 <__bss_end__+0xeb84b0>
     574:	13490b39 	movtne	r0, #39737	; 0x9b39
     578:	42b71702 	adcsmi	r1, r7, #524288	; 0x80000
     57c:	18000017 	stmdane	r0, {r0, r1, r2, r4}
     580:	01018289 	smlabbeq	r1, r9, r2, r8
     584:	13310111 	teqne	r1, #1073741828	; 0x40000004
     588:	8a190000 	bhi	640590 <__bss_end__+0x6357e0>
     58c:	02000182 	andeq	r0, r0, #-2147483616	; 0x80000020
     590:	18429118 	stmdane	r2, {r3, r4, r8, ip, pc}^
     594:	2e1a0000 	cdpcs	0, 1, cr0, cr10, cr0, {0}
     598:	3a0e0301 	bcc	3811a4 <__bss_end__+0x3763f4>
     59c:	390b3b0b 	stmdbcc	fp, {r0, r1, r3, r8, r9, fp, ip, sp}
     5a0:	4919270b 	ldmdbmi	r9, {r0, r1, r3, r8, r9, sl, sp}
     5a4:	12011113 	andne	r1, r1, #-1073741820	; 0xc0000004
     5a8:	97184006 	ldrls	r4, [r8, -r6]
     5ac:	13011942 	movwne	r1, #6466	; 0x1942
     5b0:	051b0000 	ldreq	r0, [fp, #-0]
     5b4:	3a080300 	bcc	2011bc <__bss_end__+0x1f640c>
     5b8:	390b3b0b 	stmdbcc	fp, {r0, r1, r3, r8, r9, fp, ip, sp}
     5bc:	0213490b 	andseq	r4, r3, #180224	; 0x2c000
     5c0:	1742b717 	smlaldne	fp, r2, r7, r7
     5c4:	891c0000 	ldmdbhi	ip, {}	; <UNPREDICTABLE>
     5c8:	11010182 	smlabbne	r1, r2, r1, r0
     5cc:	01133101 	tsteq	r3, r1, lsl #2
     5d0:	1d000013 	stcne	0, cr0, [r0, #-76]	; 0xffffffb4
     5d4:	00018289 	andeq	r8, r1, r9, lsl #5
     5d8:	13310111 	teqne	r1, #1073741828	; 0x40000004
     5dc:	2e1e0000 	cdpcs	0, 1, cr0, cr14, cr0, {0}
     5e0:	3c193f00 	ldccc	15, cr3, [r9], {-0}
     5e4:	030e6e19 	movweq	r6, #60953	; 0xee19
     5e8:	3b0b3a0e 	blcc	2cee28 <__bss_end__+0x2c4078>
     5ec:	000b390b 	andeq	r3, fp, fp, lsl #18
     5f0:	11010000 	mrsne	r0, (UNDEF: 1)
     5f4:	130e2501 	movwne	r2, #58625	; 0xe501
     5f8:	1b0e030b 	blne	38122c <__bss_end__+0x37647c>
     5fc:	1201110e 	andne	r1, r1, #-2147483645	; 0x80000003
     600:	00171006 	andseq	r1, r7, r6
     604:	00240200 	eoreq	r0, r4, r0, lsl #4
     608:	0b3e0b0b 	bleq	f8323c <__bss_end__+0xf7848c>
     60c:	00000803 	andeq	r0, r0, r3, lsl #16
     610:	0b002403 	bleq	9624 <va_printk+0x614>
     614:	030b3e0b 	movweq	r3, #48651	; 0xbe0b
     618:	0400000e 	streq	r0, [r0], #-14
     61c:	0e030016 	mcreq	0, 0, r0, cr3, cr6, {0}
     620:	0b3b0b3a 	bleq	ec3310 <__bss_end__+0xeb8560>
     624:	13490b39 	movtne	r0, #39737	; 0x9b39
     628:	15050000 	strne	r0, [r5, #-0]
     62c:	49192701 	ldmdbmi	r9, {r0, r8, r9, sl, sp}
     630:	00130113 	andseq	r0, r3, r3, lsl r1
     634:	00050600 	andeq	r0, r5, r0, lsl #12
     638:	00001349 	andeq	r1, r0, r9, asr #6
     63c:	03003407 	movweq	r3, #1031	; 0x407
     640:	3b0b3a0e 	blcc	2cee80 <__bss_end__+0x2c40d0>
     644:	490b390b 	stmdbmi	fp, {r0, r1, r3, r8, fp, ip, sp}
     648:	3c193f13 	ldccc	15, cr3, [r9], {19}
     64c:	08000019 	stmdaeq	r0, {r0, r3, r4}
     650:	0b0b000f 	bleq	2c0694 <__bss_end__+0x2b58e4>
     654:	00001349 	andeq	r1, r0, r9, asr #6
     658:	49002609 	stmdbmi	r0, {r0, r3, r9, sl, sp}
     65c:	0a000013 	beq	6b0 <__code_start__-0x7950>
     660:	0b0b0113 	bleq	2c0ab4 <__bss_end__+0x2b5d04>
     664:	0b3b0b3a 	bleq	ec3354 <__bss_end__+0xeb85a4>
     668:	13010b39 	movwne	r0, #6969	; 0x1b39
     66c:	0d0b0000 	stceq	0, cr0, [fp, #-0]
     670:	3a0e0300 	bcc	381278 <__bss_end__+0x3764c8>
     674:	390b3b0b 	stmdbcc	fp, {r0, r1, r3, r8, r9, fp, ip, sp}
     678:	3813490b 	ldmdacc	r3, {r0, r1, r3, r8, fp, lr}
     67c:	0c00000b 	stceq	0, cr0, [r0], {11}
     680:	0e030113 	mcreq	1, 0, r0, cr3, cr3, {0}
     684:	0b3a0b0b 	bleq	e832b8 <__bss_end__+0xe78508>
     688:	0b390b3b 	bleq	e4337c <__bss_end__+0xe385cc>
     68c:	00001301 	andeq	r1, r0, r1, lsl #6
     690:	0b000f0d 	bleq	42cc <__code_start__-0x3d34>
     694:	0e00000b 	cdpeq	0, 0, cr0, cr0, cr11, {0}
     698:	0e030034 	mcreq	0, 0, r0, cr3, cr4, {1}
     69c:	0b3b0b3a 	bleq	ec338c <__bss_end__+0xeb85dc>
     6a0:	13490b39 	movtne	r0, #39737	; 0x9b39
     6a4:	00001802 	andeq	r1, r0, r2, lsl #16
     6a8:	3f012e0f 	svccc	0x00012e0f
     6ac:	3a0e0319 	bcc	381318 <__bss_end__+0x376568>
     6b0:	39053b0b 	stmdbcc	r5, {r0, r1, r3, r8, r9, fp, ip, sp}
     6b4:	1119270b 	tstne	r9, fp, lsl #14
     6b8:	40061201 	andmi	r1, r6, r1, lsl #4
     6bc:	19429718 	stmdbne	r2, {r3, r4, r8, r9, sl, ip, pc}^
     6c0:	00001301 	andeq	r1, r0, r1, lsl #6
     6c4:	03003410 	movweq	r3, #1040	; 0x410
     6c8:	3413490e 	ldrcc	r4, [r3], #-2318	; 0xfffff6f2
     6cc:	00180219 	andseq	r0, r8, r9, lsl r2
     6d0:	82891100 	addhi	r1, r9, #0
     6d4:	01110101 	tsteq	r1, r1, lsl #2
     6d8:	13011331 	movwne	r1, #4913	; 0x1331
     6dc:	8a120000 	bhi	4806e4 <__bss_end__+0x475934>
     6e0:	02000182 	andeq	r0, r0, #-2147483616	; 0x80000020
     6e4:	18429118 	stmdane	r2, {r3, r4, r8, ip, pc}^
     6e8:	89130000 	ldmdbhi	r3, {}	; <UNPREDICTABLE>
     6ec:	11000182 	smlabbne	r0, r2, r1, r0
     6f0:	00133101 	andseq	r3, r3, r1, lsl #2
     6f4:	01011400 	tsteq	r1, r0, lsl #8
     6f8:	13011349 	movwne	r1, #4937	; 0x1349
     6fc:	21150000 	tstcs	r5, r0
     700:	2f134900 	svccs	0x00134900
     704:	1600000b 	strne	r0, [r0], -fp
     708:	193f012e 	ldmdbne	pc!, {r1, r2, r3, r5, r8}	; <UNPREDICTABLE>
     70c:	0b3a0e03 	bleq	e83f20 <__bss_end__+0xe79170>
     710:	0b39053b 	bleq	e41c04 <__bss_end__+0xe36e54>
     714:	13491927 	movtne	r1, #39207	; 0x9927
     718:	06120111 			; <UNDEFINED> instruction: 0x06120111
     71c:	42971840 	addsmi	r1, r7, #64, 16	; 0x400000
     720:	00130119 	andseq	r0, r3, r9, lsl r1
     724:	00341700 	eorseq	r1, r4, r0, lsl #14
     728:	0b3a0e03 	bleq	e83f3c <__bss_end__+0xe7918c>
     72c:	0b39053b 	bleq	e41c20 <__bss_end__+0xe36e70>
     730:	17021349 	strne	r1, [r2, -r9, asr #6]
     734:	001742b7 			; <UNDEFINED> instruction: 0x001742b7
     738:	012e1800 			; <UNDEFINED> instruction: 0x012e1800
     73c:	0b3a0e03 	bleq	e83f50 <__bss_end__+0xe791a0>
     740:	0b390b3b 	bleq	e43434 <__bss_end__+0xe38684>
     744:	13491927 	movtne	r1, #39207	; 0x9927
     748:	06120111 			; <UNDEFINED> instruction: 0x06120111
     74c:	42971840 	addsmi	r1, r7, #64, 16	; 0x400000
     750:	00130119 	andseq	r0, r3, r9, lsl r1
     754:	00341900 	eorseq	r1, r4, r0, lsl #18
     758:	0b3a0e03 	bleq	e83f6c <__bss_end__+0xe791bc>
     75c:	0b390b3b 	bleq	e43450 <__bss_end__+0xe386a0>
     760:	17021349 	strne	r1, [r2, -r9, asr #6]
     764:	001742b7 			; <UNDEFINED> instruction: 0x001742b7
     768:	010b1a00 	tsteq	fp, r0, lsl #20
     76c:	13011755 	movwne	r1, #5973	; 0x1755
     770:	341b0000 	ldrcc	r0, [fp], #-0
     774:	3a080300 	bcc	20137c <__bss_end__+0x1f65cc>
     778:	390b3b0b 	stmdbcc	fp, {r0, r1, r3, r8, r9, fp, ip, sp}
     77c:	0213490b 	andseq	r4, r3, #180224	; 0x2c000
     780:	1742b717 	smlaldne	fp, r2, r7, r7
     784:	1d1c0000 	ldcne	0, cr0, [ip, #-0]
     788:	52133101 	andspl	r3, r3, #1073741824	; 0x40000000
     78c:	0b42b801 	bleq	10ae798 <__bss_end__+0x10a39e8>
     790:	06120111 			; <UNDEFINED> instruction: 0x06120111
     794:	05590b58 	ldrbeq	r0, [r9, #-2904]	; 0xfffff4a8
     798:	13010b57 	movwne	r0, #6999	; 0x1b57
     79c:	051d0000 	ldreq	r0, [sp, #-0]
     7a0:	02133100 	andseq	r3, r3, #0
     7a4:	1742b717 	smlaldne	fp, r2, r7, r7
     7a8:	891e0000 	ldmdbhi	lr, {}	; <UNPREDICTABLE>
     7ac:	11010182 	smlabbne	r1, r2, r1, r0
     7b0:	00133101 	andseq	r3, r3, r1, lsl #2
     7b4:	012e1f00 			; <UNDEFINED> instruction: 0x012e1f00
     7b8:	0e03193f 			; <UNDEFINED> instruction: 0x0e03193f
     7bc:	0b3b0b3a 	bleq	ec34ac <__bss_end__+0xeb86fc>
     7c0:	19270b39 	stmdbne	r7!, {r0, r3, r4, r5, r8, r9, fp}
     7c4:	01111349 	tsteq	r1, r9, asr #6
     7c8:	18400612 	stmdane	r0, {r1, r4, r9, sl}^
     7cc:	01194297 			; <UNDEFINED> instruction: 0x01194297
     7d0:	20000013 	andcs	r0, r0, r3, lsl r0
     7d4:	193f012e 	ldmdbne	pc!, {r1, r2, r3, r5, r8}	; <UNPREDICTABLE>
     7d8:	0b3a0e03 	bleq	e83fec <__bss_end__+0xe7923c>
     7dc:	0b390b3b 	bleq	e434d0 <__bss_end__+0xe38720>
     7e0:	01111927 	tsteq	r1, r7, lsr #18
     7e4:	18400612 	stmdane	r0, {r1, r4, r9, sl}^
     7e8:	01194297 			; <UNDEFINED> instruction: 0x01194297
     7ec:	21000013 	tstcs	r0, r3, lsl r0
     7f0:	0e030005 	cdpeq	0, 0, cr0, cr3, cr5, {0}
     7f4:	0b3b0b3a 	bleq	ec34e4 <__bss_end__+0xeb8734>
     7f8:	13490b39 	movtne	r0, #39737	; 0x9b39
     7fc:	42b71702 	adcsmi	r1, r7, #524288	; 0x80000
     800:	22000017 	andcs	r0, r0, #23, 0
     804:	0e03012e 	adfeqsp	f0, f3, #0.5
     808:	0b3b0b3a 	bleq	ec34f8 <__bss_end__+0xeb8748>
     80c:	19270b39 	stmdbne	r7!, {r0, r3, r4, r5, r8, r9, fp}
     810:	06120111 			; <UNDEFINED> instruction: 0x06120111
     814:	42971840 	addsmi	r1, r7, #64, 16	; 0x400000
     818:	00130119 	andseq	r0, r3, r9, lsl r1
     81c:	00342300 	eorseq	r2, r4, r0, lsl #6
     820:	0b3a0e03 	bleq	e84034 <__bss_end__+0xe79284>
     824:	0b390b3b 	bleq	e43518 <__bss_end__+0xe38768>
     828:	061c1349 	ldreq	r1, [ip], -r9, asr #6
     82c:	0b240000 	bleq	900834 <__bss_end__+0x8f5a84>
     830:	12011101 	andne	r1, r1, #1073741824	; 0x40000000
     834:	00130106 	andseq	r0, r3, r6, lsl #2
     838:	00052500 	andeq	r2, r5, r0, lsl #10
     83c:	0b3a0803 	bleq	e82850 <__bss_end__+0xe77aa0>
     840:	0b390b3b 	bleq	e43534 <__bss_end__+0xe38784>
     844:	17021349 	strne	r1, [r2, -r9, asr #6]
     848:	001742b7 			; <UNDEFINED> instruction: 0x001742b7
     84c:	010b2600 	tsteq	fp, r0, lsl #12
     850:	00001755 	andeq	r1, r0, r5, asr r7
     854:	03012e27 	movweq	r2, #7719	; 0x1e27
     858:	3b0b3a0e 	blcc	2cf098 <__bss_end__+0x2c42e8>
     85c:	270b390b 	strcs	r3, [fp, -fp, lsl #18]
     860:	20134919 	andscs	r4, r3, r9, lsl r9
     864:	0013010b 	andseq	r0, r3, fp, lsl #2
     868:	00052800 	andeq	r2, r5, r0, lsl #16
     86c:	0b3a0e03 	bleq	e84080 <__bss_end__+0xe792d0>
     870:	0b390b3b 	bleq	e43564 <__bss_end__+0xe387b4>
     874:	00001349 	andeq	r1, r0, r9, asr #6
     878:	3f002e29 	svccc	0x00002e29
     87c:	6e193c19 	mrcvs	12, 0, r3, cr9, cr9, {0}
     880:	3a0e030e 	bcc	3814c0 <__bss_end__+0x376710>
     884:	390b3b0b 	stmdbcc	fp, {r0, r1, r3, r8, r9, fp, ip, sp}
     888:	2a00000b 	bcs	8bc <__code_start__-0x7744>
     88c:	18020036 	stmdane	r2, {r1, r2, r4, r5}
     890:	01000000 	mrseq	r0, (UNDEF: 0)
     894:	0e250111 	mcreq	1, 1, r0, cr5, cr1, {0}
     898:	0e030b13 	vmoveq.32	d3[0], r0
     89c:	01110e1b 	tsteq	r1, fp, lsl lr
     8a0:	17100612 			; <UNDEFINED> instruction: 0x17100612
     8a4:	24020000 	strcs	r0, [r2], #-0
     8a8:	3e0b0b00 	vmlacc.f64	d0, d11, d0
     8ac:	0008030b 	andeq	r0, r8, fp, lsl #6
     8b0:	00160300 	andseq	r0, r6, r0, lsl #6
     8b4:	0b3a0e03 	bleq	e840c8 <__bss_end__+0xe79318>
     8b8:	0b390b3b 	bleq	e435ac <__bss_end__+0xe387fc>
     8bc:	00001349 	andeq	r1, r0, r9, asr #6
     8c0:	0b002404 	bleq	98d8 <delay_sec+0x20>
     8c4:	030b3e0b 	movweq	r3, #48651	; 0xbe0b
     8c8:	0500000e 	streq	r0, [r0, #-14]
     8cc:	19270115 	stmdbne	r7!, {r0, r2, r4, r8}
     8d0:	13011349 	movwne	r1, #4937	; 0x1349
     8d4:	05060000 	streq	r0, [r6, #-0]
     8d8:	00134900 	andseq	r4, r3, r0, lsl #18
     8dc:	00340700 	eorseq	r0, r4, r0, lsl #14
     8e0:	0b3a0e03 	bleq	e840f4 <__bss_end__+0xe79344>
     8e4:	0b390b3b 	bleq	e435d8 <__bss_end__+0xe38828>
     8e8:	193f1349 	ldmdbne	pc!, {r0, r3, r6, r8, r9, ip}	; <UNPREDICTABLE>
     8ec:	0000193c 	andeq	r1, r0, ip, lsr r9
     8f0:	0b000f08 	bleq	4518 <__code_start__-0x3ae8>
     8f4:	0013490b 	andseq	r4, r3, fp, lsl #18
     8f8:	00260900 	eoreq	r0, r6, r0, lsl #18
     8fc:	00001349 	andeq	r1, r0, r9, asr #6
     900:	3f012e0a 	svccc	0x00012e0a
     904:	3a0e0319 	bcc	381570 <__bss_end__+0x3767c0>
     908:	390b3b0b 	stmdbcc	fp, {r0, r1, r3, r8, r9, fp, ip, sp}
     90c:	4919270b 	ldmdbmi	r9, {r0, r1, r3, r8, r9, sl, sp}
     910:	12011113 	andne	r1, r1, #-1073741820	; 0xc0000004
     914:	97184006 	ldrls	r4, [r8, -r6]
     918:	13011942 	movwne	r1, #6466	; 0x1942
     91c:	050b0000 	streq	r0, [fp, #-0]
     920:	3a080300 	bcc	201528 <__bss_end__+0x1f6778>
     924:	390b3b0b 	stmdbcc	fp, {r0, r1, r3, r8, r9, fp, ip, sp}
     928:	0213490b 	andseq	r4, r3, #180224	; 0x2c000
     92c:	0c000018 	stceq	0, cr0, [r0], {24}
     930:	08030005 	stmdaeq	r3, {r0, r2}
     934:	0b3b0b3a 	bleq	ec3624 <__bss_end__+0xeb8874>
     938:	13490b39 	movtne	r0, #39737	; 0x9b39
     93c:	42b71702 	adcsmi	r1, r7, #524288	; 0x80000
     940:	0d000017 	stceq	0, cr0, [r0, #-92]	; 0xffffffa4
     944:	08030034 	stmdaeq	r3, {r2, r4, r5}
     948:	0b3b0b3a 	bleq	ec3638 <__bss_end__+0xeb8888>
     94c:	13490b39 	movtne	r0, #39737	; 0x9b39
     950:	42b71702 	adcsmi	r1, r7, #524288	; 0x80000
     954:	0e000017 	mcreq	0, 0, r0, cr0, cr7, {0}
     958:	0b0b000f 	bleq	2c099c <__bss_end__+0x2b5bec>
     95c:	01000000 	mrseq	r0, (UNDEF: 0)
     960:	0e250111 	mcreq	1, 1, r0, cr5, cr1, {0}
     964:	0e030b13 	vmoveq.32	d3[0], r0
     968:	01110e1b 	tsteq	r1, fp, lsl lr
     96c:	17100612 			; <UNDEFINED> instruction: 0x17100612
     970:	16020000 	strne	r0, [r2], -r0
     974:	3a0e0300 	bcc	38157c <__bss_end__+0x3767cc>
     978:	390b3b0b 	stmdbcc	fp, {r0, r1, r3, r8, r9, fp, ip, sp}
     97c:	0013490b 	andseq	r4, r3, fp, lsl #18
     980:	01130300 	tsteq	r3, r0, lsl #6
     984:	0b0b0e03 	bleq	2c4198 <__bss_end__+0x2b93e8>
     988:	0b3b0b3a 	bleq	ec3678 <__bss_end__+0xeb88c8>
     98c:	00001301 	andeq	r1, r0, r1, lsl #6
     990:	03000d04 	movweq	r0, #3332	; 0xd04
     994:	3813490e 	ldmdacc	r3, {r1, r2, r3, r8, fp, lr}
     998:	0019340b 	andseq	r3, r9, fp, lsl #8
     99c:	000f0500 	andeq	r0, pc, r0, lsl #10
     9a0:	00000b0b 	andeq	r0, r0, fp, lsl #22
     9a4:	0b002406 	bleq	99c4 <uart_init+0x78>
     9a8:	030b3e0b 	movweq	r3, #48651	; 0xbe0b
     9ac:	07000008 	streq	r0, [r0, -r8]
     9b0:	0b0b0024 	bleq	2c0a48 <__bss_end__+0x2b5c98>
     9b4:	0e030b3e 	vmoveq.16	d3[0], r0
     9b8:	15080000 	strne	r0, [r8, #-0]
     9bc:	49192701 	ldmdbmi	r9, {r0, r8, r9, sl, sp}
     9c0:	00130113 	andseq	r0, r3, r3, lsl r1
     9c4:	00050900 	andeq	r0, r5, r0, lsl #18
     9c8:	00001349 	andeq	r1, r0, r9, asr #6
     9cc:	0300340a 	movweq	r3, #1034	; 0x40a
     9d0:	3b0b3a0e 	blcc	2cf210 <__bss_end__+0x2c4460>
     9d4:	490b390b 	stmdbmi	fp, {r0, r1, r3, r8, fp, ip, sp}
     9d8:	3c193f13 	ldccc	15, cr3, [r9], {19}
     9dc:	0b000019 	bleq	a48 <__code_start__-0x75b8>
     9e0:	0b0b000f 	bleq	2c0a24 <__bss_end__+0x2b5c74>
     9e4:	00001349 	andeq	r1, r0, r9, asr #6
     9e8:	4900260c 	stmdbmi	r0, {r2, r3, r9, sl, sp}
     9ec:	0d000013 	stceq	0, cr0, [r0, #-76]	; 0xffffffb4
     9f0:	193f012e 	ldmdbne	pc!, {r1, r2, r3, r5, r8}	; <UNPREDICTABLE>
     9f4:	0b3a0e03 	bleq	e84208 <__bss_end__+0xe79458>
     9f8:	0b390b3b 	bleq	e436ec <__bss_end__+0xe3893c>
     9fc:	13491927 	movtne	r1, #39207	; 0x9927
     a00:	06120111 			; <UNDEFINED> instruction: 0x06120111
     a04:	42971840 	addsmi	r1, r7, #64, 16	; 0x400000
     a08:	00130119 	andseq	r0, r3, r9, lsl r1
     a0c:	00050e00 	andeq	r0, r5, r0, lsl #28
     a10:	0b3a0803 	bleq	e82a24 <__bss_end__+0xe77c74>
     a14:	0b390b3b 	bleq	e43708 <__bss_end__+0xe38958>
     a18:	18021349 	stmdane	r2, {r0, r3, r6, r8, r9, ip}
     a1c:	180f0000 	stmdane	pc, {}	; <UNPREDICTABLE>
     a20:	10000000 	andne	r0, r0, r0
     a24:	08030034 	stmdaeq	r3, {r2, r4, r5}
     a28:	0b3b0b3a 	bleq	ec3718 <__bss_end__+0xeb8968>
     a2c:	13490b39 	movtne	r0, #39737	; 0x9b39
     a30:	00001802 	andeq	r1, r0, r2, lsl #16
     a34:	03003411 	movweq	r3, #1041	; 0x411
     a38:	3b0b3a0e 	blcc	2cf278 <__bss_end__+0x2c44c8>
     a3c:	490b390b 	stmdbmi	fp, {r0, r1, r3, r8, fp, ip, sp}
     a40:	00180213 	andseq	r0, r8, r3, lsl r2
     a44:	00341200 	eorseq	r1, r4, r0, lsl #4
     a48:	0b3a0803 	bleq	e82a5c <__bss_end__+0xe77cac>
     a4c:	0b390b3b 	bleq	e43740 <__bss_end__+0xe38990>
     a50:	17021349 	strne	r1, [r2, -r9, asr #6]
     a54:	001742b7 			; <UNDEFINED> instruction: 0x001742b7
     a58:	82891300 	addhi	r1, r9, #0, 6
     a5c:	01110101 	tsteq	r1, r1, lsl #2
     a60:	13011331 	movwne	r1, #4913	; 0x1331
     a64:	8a140000 	bhi	500a6c <__bss_end__+0x4f5cbc>
     a68:	02000182 	andeq	r0, r0, #-2147483616	; 0x80000020
     a6c:	18429118 	stmdane	r2, {r3, r4, r8, ip, pc}^
     a70:	89150000 	ldmdbhi	r5, {}	; <UNPREDICTABLE>
     a74:	11010182 	smlabbne	r1, r2, r1, r0
     a78:	16000001 	strne	r0, [r0], -r1
     a7c:	13490101 	movtne	r0, #37121	; 0x9101
     a80:	00001301 	andeq	r1, r0, r1, lsl #6
     a84:	49002117 	stmdbmi	r0, {r0, r1, r2, r4, r8, sp}
     a88:	00052f13 	andeq	r2, r5, r3, lsl pc
     a8c:	002e1800 	eoreq	r1, lr, r0, lsl #16
     a90:	193c193f 	ldmdbne	ip!, {r0, r1, r2, r3, r4, r5, r8, fp, ip}
     a94:	0e030e6e 	cdpeq	14, 0, cr0, cr3, cr14, {3}
     a98:	0b3b0b3a 	bleq	ec3788 <__bss_end__+0xeb89d8>
     a9c:	00000b39 	andeq	r0, r0, r9, lsr fp
     aa0:	01110100 	tsteq	r1, r0, lsl #2
     aa4:	0b130e25 	bleq	4c4340 <__bss_end__+0x4b9590>
     aa8:	0e1b0e03 	cdpeq	14, 1, cr0, cr11, cr3, {0}
     aac:	06120111 			; <UNDEFINED> instruction: 0x06120111
     ab0:	00001710 	andeq	r1, r0, r0, lsl r7
     ab4:	0b002402 	bleq	9ac4 <uart_flush_tx>
     ab8:	030b3e0b 	movweq	r3, #48651	; 0xbe0b
     abc:	03000008 	movweq	r0, #8
     ac0:	0b0b0024 	bleq	2c0b58 <__bss_end__+0x2b5da8>
     ac4:	0e030b3e 	vmoveq.16	d3[0], r0
     ac8:	15040000 	strne	r0, [r4, #-0]
     acc:	49192701 	ldmdbmi	r9, {r0, r8, r9, sl, sp}
     ad0:	00130113 	andseq	r0, r3, r3, lsl r1
     ad4:	00050500 	andeq	r0, r5, r0, lsl #10
     ad8:	00001349 	andeq	r1, r0, r9, asr #6
     adc:	03003406 	movweq	r3, #1030	; 0x406
     ae0:	3b0b3a0e 	blcc	2cf320 <__bss_end__+0x2c4570>
     ae4:	490b390b 	stmdbmi	fp, {r0, r1, r3, r8, fp, ip, sp}
     ae8:	3c193f13 	ldccc	15, cr3, [r9], {19}
     aec:	07000019 	smladeq	r0, r9, r0, r0
     af0:	0b0b000f 	bleq	2c0b34 <__bss_end__+0x2b5d84>
     af4:	00001349 	andeq	r1, r0, r9, asr #6
     af8:	49002608 	stmdbmi	r0, {r3, r9, sl, sp}
     afc:	09000013 	stmdbeq	r0, {r0, r1, r4}
     b00:	13470034 	movtne	r0, #28724	; 0x7034
     b04:	0b3b0b3a 	bleq	ec37f4 <__bss_end__+0xeb8a44>
     b08:	18020b39 	stmdane	r2, {r0, r3, r4, r5, r8, r9, fp}
     b0c:	2e0a0000 	cdpcs	0, 0, cr0, cr10, cr0, {0}
     b10:	03193f01 	tsteq	r9, #1, 30
     b14:	3b0b3a0e 	blcc	2cf354 <__bss_end__+0x2c45a4>
     b18:	270b390b 	strcs	r3, [fp, -fp, lsl #18]
     b1c:	11134919 	tstne	r3, r9, lsl r9
     b20:	40061201 	andmi	r1, r6, r1, lsl #4
     b24:	19429618 	stmdbne	r2, {r3, r4, r9, sl, ip, pc}^
     b28:	050b0000 	streq	r0, [fp, #-0]
     b2c:	3a080300 	bcc	201734 <__bss_end__+0x1f6984>
     b30:	390b3b0b 	stmdbcc	fp, {r0, r1, r3, r8, r9, fp, ip, sp}
     b34:	0213490b 	andseq	r4, r3, #180224	; 0x2c000
     b38:	1742b717 	smlaldne	fp, r2, r7, r7
     b3c:	01000000 	mrseq	r0, (UNDEF: 0)
     b40:	0e250111 	mcreq	1, 1, r0, cr5, cr1, {0}
     b44:	0e030b13 	vmoveq.32	d3[0], r0
     b48:	01110e1b 	tsteq	r1, fp, lsl lr
     b4c:	17100612 			; <UNDEFINED> instruction: 0x17100612
     b50:	24020000 	strcs	r0, [r2], #-0
     b54:	3e0b0b00 	vmlacc.f64	d0, d11, d0
     b58:	000e030b 	andeq	r0, lr, fp, lsl #6
     b5c:	00240300 	eoreq	r0, r4, r0, lsl #6
     b60:	0b3e0b0b 	bleq	f83794 <__bss_end__+0xf789e4>
     b64:	00000803 	andeq	r0, r0, r3, lsl #16
     b68:	03001604 	movweq	r1, #1540	; 0x604
     b6c:	3b0b3a0e 	blcc	2cf3ac <__bss_end__+0x2c45fc>
     b70:	490b390b 	stmdbmi	fp, {r0, r1, r3, r8, fp, ip, sp}
     b74:	05000013 	streq	r0, [r0, #-19]	; 0xffffffed
     b78:	19270115 	stmdbne	r7!, {r0, r2, r4, r8}
     b7c:	13011349 	movwne	r1, #4937	; 0x1349
     b80:	05060000 	streq	r0, [r6, #-0]
     b84:	00134900 	andseq	r4, r3, r0, lsl #18
     b88:	00340700 	eorseq	r0, r4, r0, lsl #14
     b8c:	0b3a0e03 	bleq	e843a0 <__bss_end__+0xe795f0>
     b90:	0b390b3b 	bleq	e43884 <__bss_end__+0xe38ad4>
     b94:	193f1349 	ldmdbne	pc!, {r0, r3, r6, r8, r9, ip}	; <UNPREDICTABLE>
     b98:	0000193c 	andeq	r1, r0, ip, lsr r9
     b9c:	0b000f08 	bleq	47c4 <__code_start__-0x383c>
     ba0:	0013490b 	andseq	r4, r3, fp, lsl #18
     ba4:	00260900 	eoreq	r0, r6, r0, lsl #18
     ba8:	00001349 	andeq	r1, r0, r9, asr #6
     bac:	0301130a 	movweq	r1, #4874	; 0x130a
     bb0:	3a0b0b0e 	bcc	2c37f0 <__bss_end__+0x2b8a40>
     bb4:	010b3b0b 	tsteq	fp, fp, lsl #22
     bb8:	0b000013 	bleq	c0c <__code_start__-0x73f4>
     bbc:	0e03000d 	cdpeq	0, 0, cr0, cr3, cr13, {0}
     bc0:	0b381349 	bleq	e058ec <__bss_end__+0xdfab3c>
     bc4:	00001934 	andeq	r1, r0, r4, lsr r9
     bc8:	0b000f0c 	bleq	4800 <__code_start__-0x3800>
     bcc:	0d00000b 	stceq	0, cr0, [r0, #-44]	; 0xffffffd4
     bd0:	193f012e 	ldmdbne	pc!, {r1, r2, r3, r5, r8}	; <UNPREDICTABLE>
     bd4:	0b3a0e03 	bleq	e843e8 <__bss_end__+0xe79638>
     bd8:	0b390b3b 	bleq	e438cc <__bss_end__+0xe38b1c>
     bdc:	13491927 	movtne	r1, #39207	; 0x9927
     be0:	06120111 			; <UNDEFINED> instruction: 0x06120111
     be4:	42971840 	addsmi	r1, r7, #64, 16	; 0x400000
     be8:	00130119 	andseq	r0, r3, r9, lsl r1
     bec:	00050e00 	andeq	r0, r5, r0, lsl #28
     bf0:	0b3a0803 	bleq	e82c04 <__bss_end__+0xe77e54>
     bf4:	0b390b3b 	bleq	e438e8 <__bss_end__+0xe38b38>
     bf8:	17021349 	strne	r1, [r2, -r9, asr #6]
     bfc:	001742b7 			; <UNDEFINED> instruction: 0x001742b7
     c00:	00050f00 	andeq	r0, r5, r0, lsl #30
     c04:	0b3a0e03 	bleq	e84418 <__bss_end__+0xe79668>
     c08:	0b390b3b 	bleq	e438fc <__bss_end__+0xe38b4c>
     c0c:	17021349 	strne	r1, [r2, -r9, asr #6]
     c10:	001742b7 			; <UNDEFINED> instruction: 0x001742b7
     c14:	00341000 	eorseq	r1, r4, r0
     c18:	0b3a0803 	bleq	e82c2c <__bss_end__+0xe77e7c>
     c1c:	0b390b3b 	bleq	e43910 <__bss_end__+0xe38b60>
     c20:	17021349 	strne	r1, [r2, -r9, asr #6]
     c24:	001742b7 			; <UNDEFINED> instruction: 0x001742b7
     c28:	00341100 	eorseq	r1, r4, r0, lsl #2
     c2c:	0b3a0e03 	bleq	e84440 <__bss_end__+0xe79690>
     c30:	0b390b3b 	bleq	e43924 <__bss_end__+0xe38b74>
     c34:	17021349 	strne	r1, [r2, -r9, asr #6]
     c38:	001742b7 			; <UNDEFINED> instruction: 0x001742b7
     c3c:	00341200 	eorseq	r1, r4, r0, lsl #4
     c40:	13490e03 	movtne	r0, #40451	; 0x9e03
     c44:	18021934 	stmdane	r2, {r2, r4, r5, r8, fp, ip}
     c48:	0b130000 	bleq	4c0c50 <__bss_end__+0x4b5ea0>
     c4c:	00175501 	andseq	r5, r7, r1, lsl #10
     c50:	00341400 	eorseq	r1, r4, r0, lsl #8
     c54:	0b3a0803 	bleq	e82c68 <__bss_end__+0xe77eb8>
     c58:	0b390b3b 	bleq	e4394c <__bss_end__+0xe38b9c>
     c5c:	18021349 	stmdane	r2, {r0, r3, r6, r8, r9, ip}
     c60:	34150000 	ldrcc	r0, [r5], #-0
     c64:	3a0e0300 	bcc	38186c <__bss_end__+0x376abc>
     c68:	390b3b0b 	stmdbcc	fp, {r0, r1, r3, r8, r9, fp, ip, sp}
     c6c:	0213490b 	andseq	r4, r3, #180224	; 0x2c000
     c70:	16000018 			; <UNDEFINED> instruction: 0x16000018
     c74:	1755010b 	ldrbne	r0, [r5, -fp, lsl #2]
     c78:	00001301 	andeq	r1, r0, r1, lsl #6
     c7c:	01828917 	orreq	r8, r2, r7, lsl r9
     c80:	31011101 	tstcc	r1, r1, lsl #2
     c84:	00130113 	andseq	r0, r3, r3, lsl r1
     c88:	828a1800 	addhi	r1, sl, #0, 16
     c8c:	18020001 	stmdane	r2, {r0}
     c90:	00184291 	mulseq	r8, r1, r2
     c94:	82891900 	addhi	r1, r9, #0, 18
     c98:	01110001 	tsteq	r1, r1
     c9c:	00001331 	andeq	r1, r0, r1, lsr r3
     ca0:	31011d1a 	tstcc	r1, sl, lsl sp
     ca4:	b8015213 	stmdalt	r1, {r0, r1, r4, r9, ip, lr}
     ca8:	17550542 	ldrbne	r0, [r5, -r2, asr #10]
     cac:	0b590b58 	bleq	1643a14 <__bss_end__+0x1638c64>
     cb0:	13010b57 	movwne	r0, #6999	; 0x1b57
     cb4:	051b0000 	ldreq	r0, [fp, #-0]
     cb8:	02133100 	andseq	r3, r3, #0
     cbc:	1742b717 	smlaldne	fp, r2, r7, r7
     cc0:	051c0000 	ldreq	r0, [ip, #-0]
     cc4:	00133100 	andseq	r3, r3, r0, lsl #2
     cc8:	00341d00 	eorseq	r1, r4, r0, lsl #26
     ccc:	18021331 	stmdane	r2, {r0, r4, r5, r8, r9, ip}
     cd0:	341e0000 	ldrcc	r0, [lr], #-0
     cd4:	02133100 	andseq	r3, r3, #0
     cd8:	1742b717 	smlaldne	fp, r2, r7, r7
     cdc:	341f0000 	ldrcc	r0, [pc], #-0	; ce4 <__code_start__-0x731c>
     ce0:	00133100 	andseq	r3, r3, r0, lsl #2
     ce4:	011d2000 	tsteq	sp, r0
     ce8:	01521331 	cmpeq	r2, r1, lsr r3
     cec:	550542b8 	strpl	r4, [r5, #-696]	; 0xfffffd48
     cf0:	590b5817 	stmdbpl	fp, {r0, r1, r2, r4, fp, ip, lr}
     cf4:	000b570b 	andeq	r5, fp, fp, lsl #14
     cf8:	82892100 	addhi	r2, r9, #0
     cfc:	01110101 	tsteq	r1, r1, lsl #2
     d00:	00001301 	andeq	r1, r0, r1, lsl #6
     d04:	49010122 	stmdbmi	r1, {r1, r5, r8}
     d08:	00130113 	andseq	r0, r3, r3, lsl r1
     d0c:	00212300 	eoreq	r2, r1, r0, lsl #6
     d10:	0b2f1349 	bleq	bc5a3c <__bss_end__+0xbbac8c>
     d14:	2e240000 	cdpcs	0, 2, cr0, cr4, cr0, {0}
     d18:	3a0e0301 	bcc	381924 <__bss_end__+0x376b74>
     d1c:	390b3b0b 	stmdbcc	fp, {r0, r1, r3, r8, r9, fp, ip, sp}
     d20:	4919270b 	ldmdbmi	r9, {r0, r1, r3, r8, r9, sl, sp}
     d24:	010b2013 	tsteq	fp, r3, lsl r0
     d28:	25000013 	strcs	r0, [r0, #-19]	; 0xffffffed
     d2c:	0e030005 	cdpeq	0, 0, cr0, cr3, cr5, {0}
     d30:	0b3b0b3a 	bleq	ec3a20 <__bss_end__+0xeb8c70>
     d34:	13490b39 	movtne	r0, #39737	; 0x9b39
     d38:	05260000 	streq	r0, [r6, #-0]!
     d3c:	3a080300 	bcc	201944 <__bss_end__+0x1f6b94>
     d40:	390b3b0b 	stmdbcc	fp, {r0, r1, r3, r8, r9, fp, ip, sp}
     d44:	0013490b 	andseq	r4, r3, fp, lsl #18
     d48:	00342700 	eorseq	r2, r4, r0, lsl #14
     d4c:	0b3a0803 	bleq	e82d60 <__bss_end__+0xe77fb0>
     d50:	0b390b3b 	bleq	e43a44 <__bss_end__+0xe38c94>
     d54:	00001349 	andeq	r1, r0, r9, asr #6
     d58:	00010b28 	andeq	r0, r1, r8, lsr #22
     d5c:	00342900 	eorseq	r2, r4, r0, lsl #18
     d60:	0b3a0e03 	bleq	e84574 <__bss_end__+0xe797c4>
     d64:	0b390b3b 	bleq	e43a58 <__bss_end__+0xe38ca8>
     d68:	00001349 	andeq	r1, r0, r9, asr #6
     d6c:	03012e2a 	movweq	r2, #7722	; 0x1e2a
     d70:	3b0b3a08 	blcc	2cf598 <__bss_end__+0x2c47e8>
     d74:	270b390b 	strcs	r3, [fp, -fp, lsl #18]
     d78:	20134919 	andscs	r4, r3, r9, lsl r9
     d7c:	0013010b 	andseq	r0, r3, fp, lsl #2
     d80:	012e2b00 			; <UNDEFINED> instruction: 0x012e2b00
     d84:	0e03193f 			; <UNDEFINED> instruction: 0x0e03193f
     d88:	0b3b0b3a 	bleq	ec3a78 <__bss_end__+0xeb8cc8>
     d8c:	19270b39 	stmdbne	r7!, {r0, r3, r4, r5, r8, r9, fp}
     d90:	06120111 			; <UNDEFINED> instruction: 0x06120111
     d94:	42971840 	addsmi	r1, r7, #64, 16	; 0x400000
     d98:	00130119 	andseq	r0, r3, r9, lsl r1
     d9c:	012e2c00 			; <UNDEFINED> instruction: 0x012e2c00
     da0:	01111331 	tsteq	r1, r1, lsr r3
     da4:	18400612 	stmdane	r0, {r1, r4, r9, sl}^
     da8:	01194297 			; <UNDEFINED> instruction: 0x01194297
     dac:	2d000013 	stccs	0, cr0, [r0, #-76]	; 0xffffffb4
     db0:	13310005 	teqne	r1, #5, 0
     db4:	00001802 	andeq	r1, r0, r2, lsl #16
     db8:	3100052e 	tstcc	r0, lr, lsr #10
     dbc:	000b1c13 	andeq	r1, fp, r3, lsl ip
     dc0:	010b2f00 	tsteq	fp, r0, lsl #30
     dc4:	01111331 	tsteq	r1, r1, lsr r3
     dc8:	13010612 	movwne	r0, #5650	; 0x1612
     dcc:	2e300000 	cdpcs	0, 3, cr0, cr0, cr0, {0}
     dd0:	3c193f00 	ldccc	15, cr3, [r9], {-0}
     dd4:	030e6e19 	movweq	r6, #60953	; 0xee19
     dd8:	3b0b3a0e 	blcc	2cf618 <__bss_end__+0x2c4868>
     ddc:	000b390b 	andeq	r3, fp, fp, lsl #18
     de0:	11010000 	mrsne	r0, (UNDEF: 1)
     de4:	130e2501 	movwne	r2, #58625	; 0xe501
     de8:	1b0e030b 	blne	381a1c <__bss_end__+0x376c6c>
     dec:	1201110e 	andne	r1, r1, #-2147483645	; 0x80000003
     df0:	00171006 	andseq	r1, r7, r6
     df4:	00240200 	eoreq	r0, r4, r0, lsl #4
     df8:	0b3e0b0b 	bleq	f83a2c <__bss_end__+0xf78c7c>
     dfc:	00000803 	andeq	r0, r0, r3, lsl #16
     e00:	0b002403 	bleq	9e14 <kmalloc_aligned+0xf8>
     e04:	030b3e0b 	movweq	r3, #48651	; 0xbe0b
     e08:	0400000e 	streq	r0, [r0], #-14
     e0c:	19270115 	stmdbne	r7!, {r0, r2, r4, r8}
     e10:	13011349 	movwne	r1, #4937	; 0x1349
     e14:	05050000 	streq	r0, [r5, #-0]
     e18:	00134900 	andseq	r4, r3, r0, lsl #18
     e1c:	00340600 	eorseq	r0, r4, r0, lsl #12
     e20:	0b3a0e03 	bleq	e84634 <__bss_end__+0xe79884>
     e24:	0b390b3b 	bleq	e43b18 <__bss_end__+0xe38d68>
     e28:	193f1349 	ldmdbne	pc!, {r0, r3, r6, r8, r9, ip}	; <UNPREDICTABLE>
     e2c:	0000193c 	andeq	r1, r0, ip, lsr r9
     e30:	0b000f07 	bleq	4a54 <__code_start__-0x35ac>
     e34:	0013490b 	andseq	r4, r3, fp, lsl #18
     e38:	00260800 	eoreq	r0, r6, r0, lsl #16
     e3c:	00001349 	andeq	r1, r0, r9, asr #6
     e40:	3f012e09 	svccc	0x00012e09
     e44:	3a0e0319 	bcc	381ab0 <__bss_end__+0x376d00>
     e48:	390b3b0b 	stmdbcc	fp, {r0, r1, r3, r8, r9, fp, ip, sp}
     e4c:	8719270b 	ldrhi	r2, [r9, -fp, lsl #14]
     e50:	01111901 	tsteq	r1, r1, lsl #18
     e54:	18400612 	stmdane	r0, {r1, r4, r9, sl}^
     e58:	01194297 			; <UNDEFINED> instruction: 0x01194297
     e5c:	0a000013 	beq	eb0 <__code_start__-0x7150>
     e60:	01018289 	smlabbeq	r1, r9, r2, r8
     e64:	13010111 	movwne	r0, #4369	; 0x1111
     e68:	8a0b0000 	bhi	2c0e70 <__bss_end__+0x2b60c0>
     e6c:	02000182 	andeq	r0, r0, #-2147483616	; 0x80000020
     e70:	18429118 	stmdane	r2, {r3, r4, r8, ip, pc}^
     e74:	890c0000 	stmdbhi	ip, {}	; <UNPREDICTABLE>
     e78:	11000182 	smlabbne	r0, r2, r1, r0
     e7c:	00133101 	andseq	r3, r3, r1, lsl #2
     e80:	82890d00 	addhi	r0, r9, #0, 26
     e84:	01110101 	tsteq	r1, r1, lsl #2
     e88:	13011331 	movwne	r1, #4913	; 0x1331
     e8c:	2e0e0000 	cdpcs	0, 0, cr0, cr14, cr0, {0}
     e90:	3c193f00 	ldccc	15, cr3, [r9], {-0}
     e94:	030e6e19 	movweq	r6, #60953	; 0xee19
     e98:	3b0b3a0e 	blcc	2cf6d8 <__bss_end__+0x2c4928>
     e9c:	000b390b 	andeq	r3, fp, fp, lsl #18
     ea0:	11010000 	mrsne	r0, (UNDEF: 1)
     ea4:	130e2501 	movwne	r2, #58625	; 0xe501
     ea8:	1b0e030b 	blne	381adc <__bss_end__+0x376d2c>
     eac:	1201110e 	andne	r1, r1, #-2147483645	; 0x80000003
     eb0:	00171006 	andseq	r1, r7, r6
     eb4:	00240200 	eoreq	r0, r4, r0, lsl #4
     eb8:	0b3e0b0b 	bleq	f83aec <__bss_end__+0xf78d3c>
     ebc:	00000803 	andeq	r0, r0, r3, lsl #16
     ec0:	0b002403 	bleq	9ed4 <gpio_set_function+0x28>
     ec4:	030b3e0b 	movweq	r3, #48651	; 0xbe0b
     ec8:	0400000e 	streq	r0, [r0], #-14
     ecc:	19270115 	stmdbne	r7!, {r0, r2, r4, r8}
     ed0:	13011349 	movwne	r1, #4937	; 0x1349
     ed4:	05050000 	streq	r0, [r5, #-0]
     ed8:	00134900 	andseq	r4, r3, r0, lsl #18
     edc:	00340600 	eorseq	r0, r4, r0, lsl #12
     ee0:	0b3a0e03 	bleq	e846f4 <__bss_end__+0xe79944>
     ee4:	0b390b3b 	bleq	e43bd8 <__bss_end__+0xe38e28>
     ee8:	193f1349 	ldmdbne	pc!, {r0, r3, r6, r8, r9, ip}	; <UNPREDICTABLE>
     eec:	0000193c 	andeq	r1, r0, ip, lsr r9
     ef0:	0b000f07 	bleq	4b14 <__code_start__-0x34ec>
     ef4:	0013490b 	andseq	r4, r3, fp, lsl #18
     ef8:	00260800 	eoreq	r0, r6, r0, lsl #16
     efc:	00001349 	andeq	r1, r0, r9, asr #6
     f00:	3f012e09 	svccc	0x00012e09
     f04:	3a0e0319 	bcc	381b70 <__bss_end__+0x376dc0>
     f08:	390b3b0b 	stmdbcc	fp, {r0, r1, r3, r8, r9, fp, ip, sp}
     f0c:	1201110b 	andne	r1, r1, #-1073741822	; 0xc0000002
     f10:	97184006 	ldrls	r4, [r8, -r6]
     f14:	13011942 	movwne	r1, #6466	; 0x1942
     f18:	2e0a0000 	cdpcs	0, 0, cr0, cr10, cr0, {0}
     f1c:	03193f00 	tsteq	r9, #0, 30
     f20:	3b0b3a0e 	blcc	2cf760 <__bss_end__+0x2c49b0>
     f24:	270b390b 	strcs	r3, [fp, -fp, lsl #18]
     f28:	00193c19 	andseq	r3, r9, r9, lsl ip
     f2c:	00340b00 	eorseq	r0, r4, r0, lsl #22
     f30:	0b3a0803 	bleq	e82f44 <__bss_end__+0xe78194>
     f34:	0b390b3b 	bleq	e43c28 <__bss_end__+0xe38e78>
     f38:	17021349 	strne	r1, [r2, -r9, asr #6]
     f3c:	001742b7 			; <UNDEFINED> instruction: 0x001742b7
     f40:	00340c00 	eorseq	r0, r4, r0, lsl #24
     f44:	0b3a0e03 	bleq	e84758 <__bss_end__+0xe799a8>
     f48:	0b390b3b 	bleq	e43c3c <__bss_end__+0xe38e8c>
     f4c:	00001349 	andeq	r1, r0, r9, asr #6
     f50:	11010b0d 	tstne	r1, sp, lsl #22
     f54:	01061201 	tsteq	r6, r1, lsl #4
     f58:	0e000013 	mcreq	0, 0, r0, cr0, cr3, {0}
     f5c:	00018289 	andeq	r8, r1, r9, lsl #5
     f60:	13310111 	teqne	r1, #1073741828	; 0x40000004
     f64:	2e0f0000 	cdpcs	0, 0, cr0, cr15, cr0, {0}
     f68:	3c193f00 	ldccc	15, cr3, [r9], {-0}
     f6c:	030e6e19 	movweq	r6, #60953	; 0xee19
     f70:	3b0b3a0e 	blcc	2cf7b0 <__bss_end__+0x2c4a00>
     f74:	000b3905 	andeq	r3, fp, r5, lsl #18
     f78:	002e1000 	eoreq	r1, lr, r0
     f7c:	193c193f 	ldmdbne	ip!, {r0, r1, r2, r3, r4, r5, r8, fp, ip}
     f80:	0e030e6e 	cdpeq	14, 0, cr0, cr3, cr14, {3}
     f84:	0b3b0b3a 	bleq	ec3c74 <__bss_end__+0xeb8ec4>
     f88:	00000b39 	andeq	r0, r0, r9, lsr fp
     f8c:	01110100 	tsteq	r1, r0, lsl #2
     f90:	0b130e25 	bleq	4c482c <__bss_end__+0x4b9a7c>
     f94:	0e1b0e03 	cdpeq	14, 1, cr0, cr11, cr3, {0}
     f98:	06120111 			; <UNDEFINED> instruction: 0x06120111
     f9c:	00001710 	andeq	r1, r0, r0, lsl r7
     fa0:	0b002402 	bleq	9fb0 <gpio_set_input+0x1c>
     fa4:	030b3e0b 	movweq	r3, #48651	; 0xbe0b
     fa8:	03000008 	movweq	r0, #8
     fac:	0b0b0024 	bleq	2c1044 <__bss_end__+0x2b6294>
     fb0:	0e030b3e 	vmoveq.16	d3[0], r0
     fb4:	15040000 	strne	r0, [r4, #-0]
     fb8:	49192701 	ldmdbmi	r9, {r0, r8, r9, sl, sp}
     fbc:	00130113 	andseq	r0, r3, r3, lsl r1
     fc0:	00050500 	andeq	r0, r5, r0, lsl #10
     fc4:	00001349 	andeq	r1, r0, r9, asr #6
     fc8:	03003406 	movweq	r3, #1030	; 0x406
     fcc:	3b0b3a0e 	blcc	2cf80c <__bss_end__+0x2c4a5c>
     fd0:	490b390b 	stmdbmi	fp, {r0, r1, r3, r8, fp, ip, sp}
     fd4:	3c193f13 	ldccc	15, cr3, [r9], {19}
     fd8:	07000019 	smladeq	r0, r9, r0, r0
     fdc:	0b0b000f 	bleq	2c1020 <__bss_end__+0x2b6270>
     fe0:	00001349 	andeq	r1, r0, r9, asr #6
     fe4:	49002608 	stmdbmi	r0, {r3, r9, sl, sp}
     fe8:	09000013 	stmdbeq	r0, {r0, r1, r4}
     fec:	193f002e 	ldmdbne	pc!, {r1, r2, r3, r5}	; <UNPREDICTABLE>
     ff0:	0b3a0e03 	bleq	e84804 <__bss_end__+0xe79a54>
     ff4:	0b390b3b 	bleq	e43ce8 <__bss_end__+0xe38f38>
     ff8:	01111927 	tsteq	r1, r7, lsr #18
     ffc:	18400612 	stmdane	r0, {r1, r4, r9, sl}^
    1000:	00194297 	mulseq	r9, r7, r2
    1004:	11010000 	mrsne	r0, (UNDEF: 1)
    1008:	130e2501 	movwne	r2, #58625	; 0xe501
    100c:	1b0e030b 	blne	381c40 <__bss_end__+0x376e90>
    1010:	1117550e 	tstne	r7, lr, lsl #10
    1014:	00171001 	andseq	r1, r7, r1
    1018:	00240200 	eoreq	r0, r4, r0, lsl #4
    101c:	0b3e0b0b 	bleq	f83c50 <__bss_end__+0xf78ea0>
    1020:	00000803 	andeq	r0, r0, r3, lsl #16
    1024:	49002603 	stmdbmi	r0, {r0, r1, r9, sl, sp}
    1028:	04000013 	streq	r0, [r0], #-19	; 0xffffffed
    102c:	0b0b0024 	bleq	2c10c4 <__bss_end__+0x2b6314>
    1030:	0e030b3e 	vmoveq.16	d3[0], r0
    1034:	15050000 	strne	r0, [r5, #-0]
    1038:	49192701 	ldmdbmi	r9, {r0, r8, r9, sl, sp}
    103c:	00130113 	andseq	r0, r3, r3, lsl r1
    1040:	00050600 	andeq	r0, r5, r0, lsl #12
    1044:	00001349 	andeq	r1, r0, r9, asr #6
    1048:	03003407 	movweq	r3, #1031	; 0x407
    104c:	3b0b3a0e 	blcc	2cf88c <__bss_end__+0x2c4adc>
    1050:	490b390b 	stmdbmi	fp, {r0, r1, r3, r8, fp, ip, sp}
    1054:	3c193f13 	ldccc	15, cr3, [r9], {19}
    1058:	08000019 	stmdaeq	r0, {r0, r3, r4}
    105c:	0b0b000f 	bleq	2c10a0 <__bss_end__+0x2b62f0>
    1060:	00001349 	andeq	r1, r0, r9, asr #6
    1064:	03003409 	movweq	r3, #1033	; 0x409
    1068:	3b0b3a0e 	blcc	2cf8a8 <__bss_end__+0x2c4af8>
    106c:	490b390b 	stmdbmi	fp, {r0, r1, r3, r8, fp, ip, sp}
    1070:	0a000013 	beq	10c4 <__code_start__-0x6f3c>
    1074:	193f012e 	ldmdbne	pc!, {r1, r2, r3, r5, r8}	; <UNPREDICTABLE>
    1078:	0b3a0e03 	bleq	e8488c <__bss_end__+0xe79adc>
    107c:	0b390b3b 	bleq	e43d70 <__bss_end__+0xe38fc0>
    1080:	01871927 	orreq	r1, r7, r7, lsr #18
    1084:	12011119 	andne	r1, r1, #1073741830	; 0x40000006
    1088:	97184006 	ldrls	r4, [r8, -r6]
    108c:	13011942 	movwne	r1, #6466	; 0x1942
    1090:	340b0000 	strcc	r0, [fp], #-0
    1094:	3a0e0300 	bcc	381c9c <__bss_end__+0x376eec>
    1098:	390b3b0b 	stmdbcc	fp, {r0, r1, r3, r8, r9, fp, ip, sp}
    109c:	1c13490b 			; <UNDEFINED> instruction: 0x1c13490b
    10a0:	0c000006 	stceq	0, cr0, [r0], {6}
    10a4:	0e030034 	mcreq	0, 0, r0, cr3, cr4, {1}
    10a8:	0b3b0b3a 	bleq	ec3d98 <__bss_end__+0xeb8fe8>
    10ac:	13490b39 	movtne	r0, #39737	; 0x9b39
    10b0:	00000b1c 	andeq	r0, r0, ip, lsl fp
    10b4:	31011d0d 	tstcc	r1, sp, lsl #26
    10b8:	b8015213 	stmdalt	r1, {r0, r1, r4, r9, ip, lr}
    10bc:	17550b42 	ldrbne	r0, [r5, -r2, asr #22]
    10c0:	0b590b58 	bleq	1643e28 <__bss_end__+0x1639078>
    10c4:	13010b57 	movwne	r0, #6999	; 0x1b57
    10c8:	0b0e0000 	bleq	3810d0 <__bss_end__+0x376320>
    10cc:	00175501 	andseq	r5, r7, r1, lsl #10
    10d0:	00340f00 	eorseq	r0, r4, r0, lsl #30
    10d4:	17021331 	smladxne	r2, r1, r3, r1
    10d8:	001742b7 			; <UNDEFINED> instruction: 0x001742b7
    10dc:	011d1000 	tsteq	sp, r0
    10e0:	01521331 	cmpeq	r2, r1, lsr r3
    10e4:	110b42b8 			; <UNDEFINED> instruction: 0x110b42b8
    10e8:	58061201 	stmdapl	r6, {r0, r9, ip}
    10ec:	570b590b 	strpl	r5, [fp, -fp, lsl #18]
    10f0:	0013010b 	andseq	r0, r3, fp, lsl #2
    10f4:	82891100 	addhi	r1, r9, #0
    10f8:	01110001 	tsteq	r1, r1
    10fc:	00001331 	andeq	r1, r0, r1, lsr r3
    1100:	01828912 	orreq	r8, r2, r2, lsl r9
    1104:	31011101 	tstcc	r1, r1, lsl #2
    1108:	00130113 	andseq	r0, r3, r3, lsl r1
    110c:	828a1300 	addhi	r1, sl, #0, 6
    1110:	18020001 	stmdane	r2, {r0}
    1114:	00184291 	mulseq	r8, r1, r2
    1118:	82891400 	addhi	r1, r9, #0, 8
    111c:	01110101 	tsteq	r1, r1, lsl #2
    1120:	00001331 	andeq	r1, r0, r1, lsr r3
    1124:	3f012e15 	svccc	0x00012e15
    1128:	3a0e0319 	bcc	381d94 <__bss_end__+0x376fe4>
    112c:	390b3b0b 	stmdbcc	fp, {r0, r1, r3, r8, r9, fp, ip, sp}
    1130:	2019270b 	andscs	r2, r9, fp, lsl #14
    1134:	0013010b 	andseq	r0, r3, fp, lsl #2
    1138:	012e1600 			; <UNDEFINED> instruction: 0x012e1600
    113c:	0e03193f 			; <UNDEFINED> instruction: 0x0e03193f
    1140:	0b3b0b3a 	bleq	ec3e30 <__bss_end__+0xeb9080>
    1144:	19270b39 	stmdbne	r7!, {r0, r3, r4, r5, r8, r9, fp}
    1148:	0b201349 	bleq	805e74 <__bss_end__+0x7fb0c4>
    114c:	00001301 	andeq	r1, r0, r1, lsl #6
    1150:	31012e17 	tstcc	r1, r7, lsl lr
    1154:	12011113 	andne	r1, r1, #-1073741820	; 0xc0000004
    1158:	97184006 	ldrls	r4, [r8, -r6]
    115c:	13011942 	movwne	r1, #6466	; 0x1942
    1160:	2e180000 	cdpcs	0, 1, cr0, cr8, cr0, {0}
    1164:	3c193f00 	ldccc	15, cr3, [r9], {-0}
    1168:	030e6e19 	movweq	r6, #60953	; 0xee19
    116c:	3b0b3a0e 	blcc	2cf9ac <__bss_end__+0x2c4bfc>
    1170:	000b3905 	andeq	r3, fp, r5, lsl #18
    1174:	002e1900 	eoreq	r1, lr, r0, lsl #18
    1178:	193c193f 	ldmdbne	ip!, {r0, r1, r2, r3, r4, r5, r8, fp, ip}
    117c:	0e030e6e 	cdpeq	14, 0, cr0, cr3, cr14, {3}
    1180:	0b3b0b3a 	bleq	ec3e70 <__bss_end__+0xeb90c0>
    1184:	00000b39 	andeq	r0, r0, r9, lsr fp
    1188:	01110100 	tsteq	r1, r0, lsl #2
    118c:	0b130e25 	bleq	4c4a28 <__bss_end__+0x4b9c78>
    1190:	0e1b0e03 	cdpeq	14, 1, cr0, cr11, cr3, {0}
    1194:	06120111 			; <UNDEFINED> instruction: 0x06120111
    1198:	00001710 	andeq	r1, r0, r0, lsl r7
    119c:	0b002402 	bleq	a1ac <__code_end__+0x58>
    11a0:	030b3e0b 	movweq	r3, #48651	; 0xbe0b
    11a4:	03000008 	movweq	r0, #8
    11a8:	0b0b0024 	bleq	2c1240 <__bss_end__+0x2b6490>
    11ac:	0e030b3e 	vmoveq.16	d3[0], r0
    11b0:	15040000 	strne	r0, [r4, #-0]
    11b4:	49192701 	ldmdbmi	r9, {r0, r8, r9, sl, sp}
    11b8:	00130113 	andseq	r0, r3, r3, lsl r1
    11bc:	00050500 	andeq	r0, r5, r0, lsl #10
    11c0:	00001349 	andeq	r1, r0, r9, asr #6
    11c4:	03003406 	movweq	r3, #1030	; 0x406
    11c8:	3b0b3a0e 	blcc	2cfa08 <__bss_end__+0x2c4c58>
    11cc:	490b390b 	stmdbmi	fp, {r0, r1, r3, r8, fp, ip, sp}
    11d0:	3c193f13 	ldccc	15, cr3, [r9], {19}
    11d4:	07000019 	smladeq	r0, r9, r0, r0
    11d8:	0b0b000f 	bleq	2c121c <__bss_end__+0x2b646c>
    11dc:	00001349 	andeq	r1, r0, r9, asr #6
    11e0:	49002608 	stmdbmi	r0, {r3, r9, sl, sp}
    11e4:	09000013 	stmdbeq	r0, {r0, r1, r4}
    11e8:	193f012e 	ldmdbne	pc!, {r1, r2, r3, r5, r8}	; <UNPREDICTABLE>
    11ec:	0b3a0e03 	bleq	e84a00 <__bss_end__+0xe79c50>
    11f0:	0b390b3b 	bleq	e43ee4 <__bss_end__+0xe39134>
    11f4:	01111927 	tsteq	r1, r7, lsr #18
    11f8:	18400612 	stmdane	r0, {r1, r4, r9, sl}^
    11fc:	01194297 			; <UNDEFINED> instruction: 0x01194297
    1200:	0a000013 	beq	1254 <__code_start__-0x6dac>
    1204:	08030005 	stmdaeq	r3, {r0, r2}
    1208:	0b3b0b3a 	bleq	ec3ef8 <__bss_end__+0xeb9148>
    120c:	13490b39 	movtne	r0, #39737	; 0x9b39
    1210:	42b71702 	adcsmi	r1, r7, #524288	; 0x80000
    1214:	0b000017 	bleq	1278 <__code_start__-0x6d88>
    1218:	1331011d 	teqne	r1, #1073741831	; 0x40000007
    121c:	42b80152 	adcsmi	r0, r8, #-2147483628	; 0x80000014
    1220:	5817550b 	ldmdapl	r7, {r0, r1, r3, r8, sl, ip, lr}
    1224:	570b590b 	strpl	r5, [fp, -fp, lsl #18]
    1228:	0c00000b 	stceq	0, cr0, [r0], {11}
    122c:	13310005 	teqne	r1, #5, 0
    1230:	42b71702 	adcsmi	r1, r7, #524288	; 0x80000
    1234:	0d000017 	stceq	0, cr0, [r0, #-92]	; 0xffffffa4
    1238:	1331011d 	teqne	r1, #1073741831	; 0x40000007
    123c:	42b80152 	adcsmi	r0, r8, #-2147483628	; 0x80000014
    1240:	1201110b 	andne	r1, r1, #-1073741822	; 0xc0000002
    1244:	590b5806 	stmdbpl	fp, {r1, r2, fp, ip, lr}
    1248:	000b570b 	andeq	r5, fp, fp, lsl #14
    124c:	00340e00 	eorseq	r0, r4, r0, lsl #28
    1250:	17021331 	smladxne	r2, r1, r3, r1
    1254:	001742b7 			; <UNDEFINED> instruction: 0x001742b7
    1258:	011d0f00 	tsteq	sp, r0, lsl #30
    125c:	01521331 	cmpeq	r2, r1, lsr r3
    1260:	110b42b8 			; <UNDEFINED> instruction: 0x110b42b8
    1264:	58061201 	stmdapl	r6, {r0, r9, ip}
    1268:	570b590b 	strpl	r5, [fp, -fp, lsl #18]
    126c:	0013010b 	andseq	r0, r3, fp, lsl #2
    1270:	82891000 	addhi	r1, r9, #0, 0
    1274:	01110101 	tsteq	r1, r1, lsl #2
    1278:	00001331 	andeq	r1, r0, r1, lsr r3
    127c:	01828a11 	orreq	r8, r2, r1, lsl sl
    1280:	91180200 	tstls	r8, r0, lsl #4
    1284:	00001842 	andeq	r1, r0, r2, asr #16
    1288:	01828912 	orreq	r8, r2, r2, lsl r9
    128c:	31011100 	mrscc	r1, (UNDEF: 17)
    1290:	13000013 	movwne	r0, #19
    1294:	1331010b 	teqne	r1, #-1073741822	; 0xc0000002
    1298:	00001755 	andeq	r1, r0, r5, asr r7
    129c:	31003414 	tstcc	r0, r4, lsl r4
    12a0:	15000013 	strne	r0, [r0, #-19]	; 0xffffffed
    12a4:	1755010b 	ldrbne	r0, [r5, -fp, lsl #2]
    12a8:	1d160000 	ldcne	0, cr0, [r6, #-0]
    12ac:	52133101 	andspl	r3, r3, #1073741824	; 0x40000000
    12b0:	0b42b801 	bleq	10af2bc <__bss_end__+0x10a450c>
    12b4:	0b581755 	bleq	1607010 <__bss_end__+0x15fc260>
    12b8:	0b570b59 	bleq	15c4024 <__bss_end__+0x15b9274>
    12bc:	00001301 	andeq	r1, r0, r1, lsl #6
    12c0:	3f012e17 	svccc	0x00012e17
    12c4:	3a0e0319 	bcc	381f30 <__bss_end__+0x377180>
    12c8:	390b3b0b 	stmdbcc	fp, {r0, r1, r3, r8, r9, fp, ip, sp}
    12cc:	2019270b 	andscs	r2, r9, fp, lsl #14
    12d0:	0013010b 	andseq	r0, r3, fp, lsl #2
    12d4:	00051800 	andeq	r1, r5, r0, lsl #16
    12d8:	0b3a0803 	bleq	e832ec <__bss_end__+0xe7853c>
    12dc:	0b390b3b 	bleq	e43fd0 <__bss_end__+0xe39220>
    12e0:	00001349 	andeq	r1, r0, r9, asr #6
    12e4:	03003419 	movweq	r3, #1049	; 0x419
    12e8:	3b0b3a08 	blcc	2cfb10 <__bss_end__+0x2c4d60>
    12ec:	490b390b 	stmdbmi	fp, {r0, r1, r3, r8, fp, ip, sp}
    12f0:	1a000013 	bne	1344 <__code_start__-0x6cbc>
    12f4:	0000010b 	andeq	r0, r0, fp, lsl #2
    12f8:	3f012e1b 	svccc	0x00012e1b
    12fc:	3a0e0319 	bcc	381f68 <__bss_end__+0x3771b8>
    1300:	390b3b0b 	stmdbcc	fp, {r0, r1, r3, r8, r9, fp, ip, sp}
    1304:	4919270b 	ldmdbmi	r9, {r0, r1, r3, r8, r9, sl, sp}
    1308:	010b2013 	tsteq	fp, r3, lsl r0
    130c:	1c000013 	stcne	0, cr0, [r0], {19}
    1310:	193f002e 	ldmdbne	pc!, {r1, r2, r3, r5}	; <UNPREDICTABLE>
    1314:	0b3a0e03 	bleq	e84b28 <__bss_end__+0xe79d78>
    1318:	0b390b3b 	bleq	e4400c <__bss_end__+0xe3925c>
    131c:	13491927 	movtne	r1, #39207	; 0x9927
    1320:	00000b20 	andeq	r0, r0, r0, lsr #22
    1324:	31012e1d 	tstcc	r1, sp, lsl lr
    1328:	12011113 	andne	r1, r1, #-1073741820	; 0xc0000004
    132c:	97184006 	ldrls	r4, [r8, -r6]
    1330:	13011942 	movwne	r1, #6466	; 0x1942
    1334:	891e0000 	ldmdbhi	lr, {}	; <UNPREDICTABLE>
    1338:	11010182 	smlabbne	r1, r2, r1, r0
    133c:	19429501 	stmdbne	r2, {r0, r8, sl, ip, pc}^
    1340:	00001331 	andeq	r1, r0, r1, lsr r3
    1344:	3f002e1f 	svccc	0x00002e1f
    1348:	6e193c19 	mrcvs	12, 0, r3, cr9, cr9, {0}
    134c:	3a0e030e 	bcc	381f8c <__bss_end__+0x3771dc>
    1350:	390b3b0b 	stmdbcc	fp, {r0, r1, r3, r8, r9, fp, ip, sp}
    1354:	0000000b 	andeq	r0, r0, fp
    1358:	25011101 	strcs	r1, [r1, #-257]	; 0xfffffeff
    135c:	030b130e 	movweq	r1, #45838	; 0xb30e
    1360:	110e1b0e 	tstne	lr, lr, lsl #22
    1364:	10061201 	andne	r1, r6, r1, lsl #4
    1368:	02000017 	andeq	r0, r0, #23, 0
    136c:	0b0b0024 	bleq	2c1404 <__bss_end__+0x2b6654>
    1370:	08030b3e 	stmdaeq	r3, {r1, r2, r3, r4, r5, r8, r9, fp}
    1374:	24030000 	strcs	r0, [r3], #-0
    1378:	3e0b0b00 	vmlacc.f64	d0, d11, d0
    137c:	000e030b 	andeq	r0, lr, fp, lsl #6
    1380:	00350400 	eorseq	r0, r5, r0, lsl #8
    1384:	00001349 	andeq	r1, r0, r9, asr #6
    1388:	03001605 	movweq	r1, #1541	; 0x605
    138c:	3b0b3a0e 	blcc	2cfbcc <__bss_end__+0x2c4e1c>
    1390:	490b390b 	stmdbmi	fp, {r0, r1, r3, r8, fp, ip, sp}
    1394:	06000013 			; <UNDEFINED> instruction: 0x06000013
    1398:	0b3e0104 	bleq	f817b0 <__bss_end__+0xf76a00>
    139c:	13490b0b 	movtne	r0, #39691	; 0x9b0b
    13a0:	0b3b0b3a 	bleq	ec4090 <__bss_end__+0xeb92e0>
    13a4:	13010b39 	movwne	r0, #6969	; 0x1b39
    13a8:	28070000 	stmdacs	r7, {}	; <UNPREDICTABLE>
    13ac:	1c0e0300 	stcne	3, cr0, [lr], {-0}
    13b0:	0800000b 	stmdaeq	r0, {r0, r1, r3}
    13b4:	0e030113 	mcreq	1, 0, r0, cr3, cr3, {0}
    13b8:	0b3a0b0b 	bleq	e83fec <__bss_end__+0xe7923c>
    13bc:	0b390b3b 	bleq	e440b0 <__bss_end__+0xe39300>
    13c0:	00001301 	andeq	r1, r0, r1, lsl #6
    13c4:	03000d09 	movweq	r0, #3337	; 0xd09
    13c8:	3b0b3a08 	blcc	2cfbf0 <__bss_end__+0x2c4e40>
    13cc:	490b390b 	stmdbmi	fp, {r0, r1, r3, r8, fp, ip, sp}
    13d0:	000b3813 	andeq	r3, fp, r3, lsl r8
    13d4:	000d0a00 	andeq	r0, sp, r0, lsl #20
    13d8:	0b3a0e03 	bleq	e84bec <__bss_end__+0xe79e3c>
    13dc:	0b390b3b 	bleq	e440d0 <__bss_end__+0xe39320>
    13e0:	0b381349 	bleq	e0610c <__bss_end__+0xdfb35c>
    13e4:	340b0000 	strcc	r0, [fp], #-0
    13e8:	3a0e0300 	bcc	381ff0 <__bss_end__+0x377240>
    13ec:	390b3b0b 	stmdbcc	fp, {r0, r1, r3, r8, r9, fp, ip, sp}
    13f0:	1c13490b 			; <UNDEFINED> instruction: 0x1c13490b
    13f4:	0c000006 	stceq	0, cr0, [r0], {6}
    13f8:	0b0b000f 	bleq	2c143c <__bss_end__+0x2b668c>
    13fc:	00001349 	andeq	r1, r0, r9, asr #6
    1400:	4900260d 	stmdbmi	r0, {r0, r2, r3, r9, sl, sp}
    1404:	0e000013 	mcreq	0, 0, r0, cr0, cr3, {0}
    1408:	193f012e 	ldmdbne	pc!, {r1, r2, r3, r5, r8}	; <UNPREDICTABLE>
    140c:	0b3a0e03 	bleq	e84c20 <__bss_end__+0xe79e70>
    1410:	0b390b3b 	bleq	e44104 <__bss_end__+0xe39354>
    1414:	01111927 	tsteq	r1, r7, lsr #18
    1418:	18400612 	stmdane	r0, {r1, r4, r9, sl}^
    141c:	01194297 			; <UNDEFINED> instruction: 0x01194297
    1420:	0f000013 	svceq	0x00000013
    1424:	00018289 	andeq	r8, r1, r9, lsl #5
    1428:	13310111 	teqne	r1, #1073741828	; 0x40000004
    142c:	2e100000 	cdpcs	0, 1, cr0, cr0, cr0, {0}
    1430:	03193f01 	tsteq	r9, #1, 30
    1434:	3b0b3a0e 	blcc	2cfc74 <__bss_end__+0x2c4ec4>
    1438:	270b390b 	strcs	r3, [fp, -fp, lsl #18]
    143c:	11134919 	tstne	r3, r9, lsl r9
    1440:	40061201 	andmi	r1, r6, r1, lsl #4
    1444:	19429718 	stmdbne	r2, {r3, r4, r8, r9, sl, ip, pc}^
    1448:	00001301 	andeq	r1, r0, r1, lsl #6
    144c:	01828911 	orreq	r8, r2, r1, lsl r9
    1450:	31011101 	tstcc	r1, r1, lsl #2
    1454:	12000013 	andne	r0, r0, #19, 0
    1458:	0001828a 	andeq	r8, r1, sl, lsl #5
    145c:	42911802 	addsmi	r1, r1, #131072	; 0x20000
    1460:	13000018 	movwne	r0, #24
    1464:	08030005 	stmdaeq	r3, {r0, r2}
    1468:	0b3b0b3a 	bleq	ec4158 <__bss_end__+0xeb93a8>
    146c:	13490b39 	movtne	r0, #39737	; 0x9b39
    1470:	42b71702 	adcsmi	r1, r7, #524288	; 0x80000
    1474:	14000017 	strne	r0, [r0], #-23	; 0xffffffe9
    1478:	01018289 	smlabbeq	r1, r9, r2, r8
    147c:	13310111 	teqne	r1, #1073741828	; 0x40000004
    1480:	00001301 	andeq	r1, r0, r1, lsl #6
    1484:	03003415 	movweq	r3, #1045	; 0x415
    1488:	3b0b3a08 	blcc	2cfcb0 <__bss_end__+0x2c4f00>
    148c:	490b390b 	stmdbmi	fp, {r0, r1, r3, r8, fp, ip, sp}
    1490:	b7170213 			; <UNDEFINED> instruction: 0xb7170213
    1494:	00001742 	andeq	r1, r0, r2, asr #14
    1498:	03003416 	movweq	r3, #1046	; 0x416
    149c:	3b0b3a0e 	blcc	2cfcdc <__bss_end__+0x2c4f2c>
    14a0:	490b390b 	stmdbmi	fp, {r0, r1, r3, r8, fp, ip, sp}
    14a4:	00051c13 	andeq	r1, r5, r3, lsl ip
    14a8:	012e1700 			; <UNDEFINED> instruction: 0x012e1700
    14ac:	0b3a0e03 	bleq	e84cc0 <__bss_end__+0xe79f10>
    14b0:	0b390b3b 	bleq	e441a4 <__bss_end__+0xe393f4>
    14b4:	01111927 	tsteq	r1, r7, lsr #18
    14b8:	18400612 	stmdane	r0, {r1, r4, r9, sl}^
    14bc:	01194297 			; <UNDEFINED> instruction: 0x01194297
    14c0:	18000013 	stmdane	r0, {r0, r1, r4}
    14c4:	0e030005 	cdpeq	0, 0, cr0, cr3, cr5, {0}
    14c8:	0b3b0b3a 	bleq	ec41b8 <__bss_end__+0xeb9408>
    14cc:	13490b39 	movtne	r0, #39737	; 0x9b39
    14d0:	42b71702 	adcsmi	r1, r7, #524288	; 0x80000
    14d4:	19000017 	stmdbne	r0, {r0, r1, r2, r4}
    14d8:	00000035 	andeq	r0, r0, r5, lsr r0
    14dc:	3f002e1a 	svccc	0x00002e1a
    14e0:	6e193c19 	mrcvs	12, 0, r3, cr9, cr9, {0}
    14e4:	3a0e030e 	bcc	382124 <__bss_end__+0x377374>
    14e8:	390b3b0b 	stmdbcc	fp, {r0, r1, r3, r8, r9, fp, ip, sp}
    14ec:	0000000b 	andeq	r0, r0, fp
    14f0:	25011101 	strcs	r1, [r1, #-257]	; 0xfffffeff
    14f4:	030b130e 	movweq	r1, #45838	; 0xb30e
    14f8:	110e1b0e 	tstne	lr, lr, lsl #22
    14fc:	10061201 	andne	r1, r6, r1, lsl #4
    1500:	02000017 	andeq	r0, r0, #23, 0
    1504:	0b0b0024 	bleq	2c159c <__bss_end__+0x2b67ec>
    1508:	08030b3e 	stmdaeq	r3, {r1, r2, r3, r4, r5, r8, r9, fp}
    150c:	24030000 	strcs	r0, [r3], #-0
    1510:	3e0b0b00 	vmlacc.f64	d0, d11, d0
    1514:	000e030b 	andeq	r0, lr, fp, lsl #6
    1518:	00160400 	andseq	r0, r6, r0, lsl #8
    151c:	0b3a0e03 	bleq	e84d30 <__bss_end__+0xe79f80>
    1520:	0b390b3b 	bleq	e44214 <__bss_end__+0xe39464>
    1524:	00001349 	andeq	r1, r0, r9, asr #6
    1528:	49002605 	stmdbmi	r0, {r0, r2, r9, sl, sp}
    152c:	06000013 			; <UNDEFINED> instruction: 0x06000013
    1530:	0b0b000f 	bleq	2c1574 <__bss_end__+0x2b67c4>
    1534:	04070000 	streq	r0, [r7], #-0
    1538:	0b0b3e01 	bleq	2d0d44 <__bss_end__+0x2c5f94>
    153c:	3a13490b 	bcc	4d3970 <__bss_end__+0x4c8bc0>
    1540:	390b3b0b 	stmdbcc	fp, {r0, r1, r3, r8, r9, fp, ip, sp}
    1544:	0013010b 	andseq	r0, r3, fp, lsl #2
    1548:	00280800 	eoreq	r0, r8, r0, lsl #16
    154c:	061c0e03 	ldreq	r0, [ip], -r3, lsl #28
    1550:	34090000 	strcc	r0, [r9], #-0
    1554:	3a0e0300 	bcc	38215c <__bss_end__+0x3773ac>
    1558:	390b3b0b 	stmdbcc	fp, {r0, r1, r3, r8, r9, fp, ip, sp}
    155c:	3f13490b 	svccc	0x0013490b
    1560:	00193c19 	andseq	r3, r9, r9, lsl ip
    1564:	00340a00 	eorseq	r0, r4, r0, lsl #20
    1568:	0b3a0e03 	bleq	e84d7c <__bss_end__+0xe79fcc>
    156c:	0b390b3b 	bleq	e44260 <__bss_end__+0xe394b0>
    1570:	18021349 	stmdane	r2, {r0, r3, r6, r8, r9, ip}
    1574:	0f0b0000 	svceq	0x000b0000
    1578:	490b0b00 	stmdbmi	fp, {r8, r9, fp}
    157c:	0c000013 	stceq	0, cr0, [r0], {19}
    1580:	193f012e 	ldmdbne	pc!, {r1, r2, r3, r5, r8}	; <UNPREDICTABLE>
    1584:	0b3a0e03 	bleq	e84d98 <__bss_end__+0xe79fe8>
    1588:	0b390b3b 	bleq	e4427c <__bss_end__+0xe394cc>
    158c:	01111927 	tsteq	r1, r7, lsr #18
    1590:	18400612 	stmdane	r0, {r1, r4, r9, sl}^
    1594:	01194297 			; <UNDEFINED> instruction: 0x01194297
    1598:	0d000013 	stceq	0, cr0, [r0, #-76]	; 0xffffffb4
    159c:	08030005 	stmdaeq	r3, {r0, r2}
    15a0:	0b3b0b3a 	bleq	ec4290 <__bss_end__+0xeb94e0>
    15a4:	13490b39 	movtne	r0, #39737	; 0x9b39
    15a8:	42b71702 	adcsmi	r1, r7, #524288	; 0x80000
    15ac:	0e000017 	mcreq	0, 0, r0, cr0, cr7, {0}
    15b0:	0e030034 	mcreq	0, 0, r0, cr3, cr4, {1}
    15b4:	19341349 	ldmdbne	r4!, {r0, r3, r6, r8, r9, ip}
    15b8:	00001802 	andeq	r1, r0, r2, lsl #16
    15bc:	0182890f 	orreq	r8, r2, pc, lsl #18
    15c0:	31011101 	tstcc	r1, r1, lsl #2
    15c4:	00130113 	andseq	r0, r3, r3, lsl r1
    15c8:	828a1000 	addhi	r1, sl, #0, 0
    15cc:	18020001 	stmdane	r2, {r0}
    15d0:	00184291 	mulseq	r8, r1, r2
    15d4:	82891100 	addhi	r1, r9, #0
    15d8:	01110001 	tsteq	r1, r1
    15dc:	00001331 	andeq	r1, r0, r1, lsr r3
    15e0:	49010112 	stmdbmi	r1, {r1, r4, r8}
    15e4:	00130113 	andseq	r0, r3, r3, lsl r1
    15e8:	00211300 	eoreq	r1, r1, r0, lsl #6
    15ec:	0b2f1349 	bleq	bc6318 <__bss_end__+0xbbb568>
    15f0:	2e140000 	cdpcs	0, 1, cr0, cr4, cr0, {0}
    15f4:	03193f00 	tsteq	r9, #0, 30
    15f8:	3b0b3a0e 	blcc	2cfe38 <__bss_end__+0x2c5088>
    15fc:	270b390b 	strcs	r3, [fp, -fp, lsl #18]
    1600:	12011119 	andne	r1, r1, #1073741830	; 0x40000006
    1604:	97184006 	ldrls	r4, [r8, -r6]
    1608:	00001942 	andeq	r1, r0, r2, asr #18
    160c:	03000515 	movweq	r0, #1301	; 0x515
    1610:	3b0b3a08 	blcc	2cfe38 <__bss_end__+0x2c5088>
    1614:	490b390b 	stmdbmi	fp, {r0, r1, r3, r8, fp, ip, sp}
    1618:	00180213 	andseq	r0, r8, r3, lsl r2
    161c:	012e1600 			; <UNDEFINED> instruction: 0x012e1600
    1620:	0e03193f 			; <UNDEFINED> instruction: 0x0e03193f
    1624:	0b3b0b3a 	bleq	ec4314 <__bss_end__+0xeb9564>
    1628:	19270b39 	stmdbne	r7!, {r0, r3, r4, r5, r8, r9, fp}
    162c:	01111349 	tsteq	r1, r9, asr #6
    1630:	18400612 	stmdane	r0, {r1, r4, r9, sl}^
    1634:	01194297 			; <UNDEFINED> instruction: 0x01194297
    1638:	17000013 	smladne	r0, r3, r0, r0
    163c:	0e030005 	cdpeq	0, 0, cr0, cr3, cr5, {0}
    1640:	0b3b0b3a 	bleq	ec4330 <__bss_end__+0xeb9580>
    1644:	13490b39 	movtne	r0, #39737	; 0x9b39
    1648:	42b71702 	adcsmi	r1, r7, #524288	; 0x80000
    164c:	18000017 	stmdane	r0, {r0, r1, r2, r4}
    1650:	08030034 	stmdaeq	r3, {r2, r4, r5}
    1654:	0b3b0b3a 	bleq	ec4344 <__bss_end__+0xeb9594>
    1658:	13490b39 	movtne	r0, #39737	; 0x9b39
    165c:	42b71702 	adcsmi	r1, r7, #524288	; 0x80000
    1660:	19000017 	stmdbne	r0, {r0, r1, r2, r4}
    1664:	1331011d 	teqne	r1, #1073741831	; 0x40000007
    1668:	42b80152 	adcsmi	r0, r8, #-2147483628	; 0x80000014
    166c:	1201110b 	andne	r1, r1, #-1073741822	; 0xc0000002
    1670:	590b5806 	stmdbpl	fp, {r1, r2, fp, ip, lr}
    1674:	010b570b 	tsteq	fp, fp, lsl #14
    1678:	1a000013 	bne	16cc <__code_start__-0x6934>
    167c:	13310005 	teqne	r1, #5, 0
    1680:	42b71702 	adcsmi	r1, r7, #524288	; 0x80000
    1684:	1b000017 	blne	16e8 <__code_start__-0x6918>
    1688:	1331011d 	teqne	r1, #1073741831	; 0x40000007
    168c:	42b80152 	adcsmi	r0, r8, #-2147483628	; 0x80000014
    1690:	5817550b 	ldmdapl	r7, {r0, r1, r3, r8, sl, ip, lr}
    1694:	570b590b 	strpl	r5, [fp, -fp, lsl #18]
    1698:	0013010b 	andseq	r0, r3, fp, lsl #2
    169c:	010b1c00 	tsteq	fp, r0, lsl #24
    16a0:	00001755 	andeq	r1, r0, r5, asr r7
    16a4:	0300341d 	movweq	r3, #1053	; 0x41d
    16a8:	3b0b3a0e 	blcc	2cfee8 <__bss_end__+0x2c5138>
    16ac:	490b390b 	stmdbmi	fp, {r0, r1, r3, r8, fp, ip, sp}
    16b0:	b7170213 			; <UNDEFINED> instruction: 0xb7170213
    16b4:	00001742 	andeq	r1, r0, r2, asr #14
    16b8:	55000b1e 	strpl	r0, [r0, #-2846]	; 0xfffff4e2
    16bc:	1f000017 	svcne	0x00000017
    16c0:	193f002e 	ldmdbne	pc!, {r1, r2, r3, r5}	; <UNPREDICTABLE>
    16c4:	0b3a0e03 	bleq	e84ed8 <__bss_end__+0xe7a128>
    16c8:	0b390b3b 	bleq	e443bc <__bss_end__+0xe3960c>
    16cc:	13491927 	movtne	r1, #39207	; 0x9927
    16d0:	06120111 			; <UNDEFINED> instruction: 0x06120111
    16d4:	42971840 	addsmi	r1, r7, #64, 16	; 0x400000
    16d8:	20000019 	andcs	r0, r0, r9, lsl r0
    16dc:	0e03012e 	adfeqsp	f0, f3, #0.5
    16e0:	0b3b0b3a 	bleq	ec43d0 <__bss_end__+0xeb9620>
    16e4:	19270b39 	stmdbne	r7!, {r0, r3, r4, r5, r8, r9, fp}
    16e8:	0b201349 	bleq	806414 <__bss_end__+0x7fb664>
    16ec:	00001301 	andeq	r1, r0, r1, lsl #6
    16f0:	03000521 	movweq	r0, #1313	; 0x521
    16f4:	3b0b3a08 	blcc	2cff1c <__bss_end__+0x2c516c>
    16f8:	490b390b 	stmdbmi	fp, {r0, r1, r3, r8, fp, ip, sp}
    16fc:	22000013 	andcs	r0, r0, #19, 0
    1700:	193f002e 	ldmdbne	pc!, {r1, r2, r3, r5}	; <UNPREDICTABLE>
    1704:	0e6e193c 			; <UNDEFINED> instruction: 0x0e6e193c
    1708:	0b3a0e03 	bleq	e84f1c <__bss_end__+0xe7a16c>
    170c:	0b390b3b 	bleq	e44400 <__bss_end__+0xe39650>
    1710:	01000000 	mrseq	r0, (UNDEF: 0)
    1714:	0e250111 	mcreq	1, 1, r0, cr5, cr1, {0}
    1718:	0e030b13 	vmoveq.32	d3[0], r0
    171c:	01110e1b 	tsteq	r1, fp, lsl lr
    1720:	17100612 			; <UNDEFINED> instruction: 0x17100612
    1724:	24020000 	strcs	r0, [r2], #-0
    1728:	3e0b0b00 	vmlacc.f64	d0, d11, d0
    172c:	000e030b 	andeq	r0, lr, fp, lsl #6
    1730:	00240300 	eoreq	r0, r4, r0, lsl #6
    1734:	0b3e0b0b 	bleq	f84368 <__bss_end__+0xf795b8>
    1738:	00000803 	andeq	r0, r0, r3, lsl #16
    173c:	49002604 	stmdbmi	r0, {r2, r9, sl, sp}
    1740:	05000013 	streq	r0, [r0, #-19]	; 0xffffffed
    1744:	0e030016 	mcreq	0, 0, r0, cr3, cr6, {0}
    1748:	0b3b0b3a 	bleq	ec4438 <__bss_end__+0xeb9688>
    174c:	13490b39 	movtne	r0, #39737	; 0x9b39
    1750:	15060000 	strne	r0, [r6, #-0]
    1754:	49192701 	ldmdbmi	r9, {r0, r8, r9, sl, sp}
    1758:	00130113 	andseq	r0, r3, r3, lsl r1
    175c:	00050700 	andeq	r0, r5, r0, lsl #14
    1760:	00001349 	andeq	r1, r0, r9, asr #6
    1764:	03003408 	movweq	r3, #1032	; 0x408
    1768:	3b0b3a0e 	blcc	2cffa8 <__bss_end__+0x2c51f8>
    176c:	490b390b 	stmdbmi	fp, {r0, r1, r3, r8, fp, ip, sp}
    1770:	3c193f13 	ldccc	15, cr3, [r9], {19}
    1774:	09000019 	stmdbeq	r0, {r0, r3, r4}
    1778:	0b0b000f 	bleq	2c17bc <__bss_end__+0x2b6a0c>
    177c:	00001349 	andeq	r1, r0, r9, asr #6
    1780:	3e01040a 	cdpcc	4, 0, cr0, cr1, cr10, {0}
    1784:	490b0b0b 	stmdbmi	fp, {r0, r1, r3, r8, r9, fp}
    1788:	3b0b3a13 	blcc	2cffdc <__bss_end__+0x2c522c>
    178c:	010b390b 	tsteq	fp, fp, lsl #18
    1790:	0b000013 	bleq	17e4 <__code_start__-0x681c>
    1794:	0e030028 	cdpeq	0, 0, cr0, cr3, cr8, {1}
    1798:	00000b1c 	andeq	r0, r0, ip, lsl fp
    179c:	0300340c 	movweq	r3, #1036	; 0x40c
    17a0:	3b0b3a0e 	blcc	2cffe0 <__bss_end__+0x2c5230>
    17a4:	490b390b 	stmdbmi	fp, {r0, r1, r3, r8, fp, ip, sp}
    17a8:	00061c13 	andeq	r1, r6, r3, lsl ip
    17ac:	012e0d00 			; <UNDEFINED> instruction: 0x012e0d00
    17b0:	0e03193f 			; <UNDEFINED> instruction: 0x0e03193f
    17b4:	0b3b0b3a 	bleq	ec44a4 <__bss_end__+0xeb96f4>
    17b8:	19270b39 	stmdbne	r7!, {r0, r3, r4, r5, r8, r9, fp}
    17bc:	01111349 	tsteq	r1, r9, asr #6
    17c0:	18400612 	stmdane	r0, {r1, r4, r9, sl}^
    17c4:	01194297 			; <UNDEFINED> instruction: 0x01194297
    17c8:	0e000013 	mcreq	0, 0, r0, cr0, cr3, {0}
    17cc:	08030005 	stmdaeq	r3, {r0, r2}
    17d0:	0b3b0b3a 	bleq	ec44c0 <__bss_end__+0xeb9710>
    17d4:	13490b39 	movtne	r0, #39737	; 0x9b39
    17d8:	42b71702 	adcsmi	r1, r7, #524288	; 0x80000
    17dc:	0f000017 	svceq	0x00000017
    17e0:	0e030034 	mcreq	0, 0, r0, cr3, cr4, {1}
    17e4:	0b3b0b3a 	bleq	ec44d4 <__bss_end__+0xeb9724>
    17e8:	13490b39 	movtne	r0, #39737	; 0x9b39
    17ec:	42b71702 	adcsmi	r1, r7, #524288	; 0x80000
    17f0:	10000017 	andne	r0, r0, r7, lsl r0
    17f4:	08030034 	stmdaeq	r3, {r2, r4, r5}
    17f8:	0b3b0b3a 	bleq	ec44e8 <__bss_end__+0xeb9738>
    17fc:	13490b39 	movtne	r0, #39737	; 0x9b39
    1800:	42b71702 	adcsmi	r1, r7, #524288	; 0x80000
    1804:	11000017 	tstne	r0, r7, lsl r0
    1808:	01018289 	smlabbeq	r1, r9, r2, r8
    180c:	13310111 	teqne	r1, #1073741828	; 0x40000004
    1810:	8a120000 	bhi	481818 <__bss_end__+0x476a68>
    1814:	02000182 	andeq	r0, r0, #-2147483616	; 0x80000020
    1818:	18429118 	stmdane	r2, {r3, r4, r8, ip, pc}^
    181c:	2e130000 	cdpcs	0, 1, cr0, cr3, cr0, {0}
    1820:	03193f01 	tsteq	r9, #1, 30
    1824:	3b0b3a0e 	blcc	2d0064 <__bss_end__+0x2c52b4>
    1828:	270b390b 	strcs	r3, [fp, -fp, lsl #18]
    182c:	12011119 	andne	r1, r1, #1073741830	; 0x40000006
    1830:	97184006 	ldrls	r4, [r8, -r6]
    1834:	13011942 	movwne	r1, #6466	; 0x1942
    1838:	1d140000 	ldcne	0, cr0, [r4, #-0]
    183c:	52133101 	andspl	r3, r3, #1073741824	; 0x40000000
    1840:	0b42b801 	bleq	10af84c <__bss_end__+0x10a4a9c>
    1844:	0b581755 	bleq	16075a0 <__bss_end__+0x15fc7f0>
    1848:	0b570b59 	bleq	15c45b4 <__bss_end__+0x15b9804>
    184c:	00001301 	andeq	r1, r0, r1, lsl #6
    1850:	31000515 	tstcc	r0, r5, lsl r5
    1854:	b7170213 			; <UNDEFINED> instruction: 0xb7170213
    1858:	00001742 	andeq	r1, r0, r2, asr #14
    185c:	01828916 	orreq	r8, r2, r6, lsl r9
    1860:	95011101 	strls	r1, [r1, #-257]	; 0xfffffeff
    1864:	13311942 	teqne	r1, #1081344	; 0x108000
    1868:	1d170000 	ldcne	0, cr0, [r7, #-0]
    186c:	52133101 	andspl	r3, r3, #1073741824	; 0x40000000
    1870:	0b42b801 	bleq	10af87c <__bss_end__+0x10a4acc>
    1874:	06120111 			; <UNDEFINED> instruction: 0x06120111
    1878:	0b590b58 	bleq	16445e0 <__bss_end__+0x1639830>
    187c:	00000b57 	andeq	r0, r0, r7, asr fp
    1880:	31011d18 	tstcc	r1, r8, lsl sp
    1884:	b8015213 	stmdalt	r1, {r0, r1, r4, r9, ip, lr}
    1888:	17550b42 	ldrbne	r0, [r5, -r2, asr #22]
    188c:	0b590b58 	bleq	16445f4 <__bss_end__+0x1639844>
    1890:	00000b57 	andeq	r0, r0, r7, asr fp
    1894:	31000519 	tstcc	r0, r9, lsl r5
    1898:	000b1c13 	andeq	r1, fp, r3, lsl ip
    189c:	010b1a00 	tsteq	fp, r0, lsl #20
    18a0:	00001755 	andeq	r1, r0, r5, asr r7
    18a4:	3100341b 	tstcc	r0, fp, lsl r4
    18a8:	1c000013 	stcne	0, cr0, [r0], {19}
    18ac:	13310034 	teqne	r1, #52, 0	; 0x34
    18b0:	42b71702 	adcsmi	r1, r7, #524288	; 0x80000
    18b4:	1d000017 	stcne	0, cr0, [r0, #-92]	; 0xffffffa4
    18b8:	01018289 	smlabbeq	r1, r9, r2, r8
    18bc:	13310111 	teqne	r1, #1073741828	; 0x40000004
    18c0:	00001301 	andeq	r1, r0, r1, lsl #6
    18c4:	3f012e1e 	svccc	0x00012e1e
    18c8:	3a0e0319 	bcc	382534 <__bss_end__+0x377784>
    18cc:	390b3b0b 	stmdbcc	fp, {r0, r1, r3, r8, r9, fp, ip, sp}
    18d0:	2019270b 	andscs	r2, r9, fp, lsl #14
    18d4:	0013010b 	andseq	r0, r3, fp, lsl #2
    18d8:	00051f00 	andeq	r1, r5, r0, lsl #30
    18dc:	0b3a0803 	bleq	e838f0 <__bss_end__+0xe78b40>
    18e0:	0b390b3b 	bleq	e445d4 <__bss_end__+0xe39824>
    18e4:	00001349 	andeq	r1, r0, r9, asr #6
    18e8:	03000520 	movweq	r0, #1312	; 0x520
    18ec:	3b0b3a0e 	blcc	2d012c <__bss_end__+0x2c537c>
    18f0:	490b390b 	stmdbmi	fp, {r0, r1, r3, r8, fp, ip, sp}
    18f4:	21000013 	tstcs	r0, r3, lsl r0
    18f8:	08030034 	stmdaeq	r3, {r2, r4, r5}
    18fc:	0b3b0b3a 	bleq	ec45ec <__bss_end__+0xeb983c>
    1900:	13490b39 	movtne	r0, #39737	; 0x9b39
    1904:	2e220000 	cdpcs	0, 2, cr0, cr2, cr0, {0}
    1908:	3a0e0301 	bcc	382514 <__bss_end__+0x377764>
    190c:	390b3b0b 	stmdbcc	fp, {r0, r1, r3, r8, r9, fp, ip, sp}
    1910:	4919270b 	ldmdbmi	r9, {r0, r1, r3, r8, r9, sl, sp}
    1914:	010b2013 	tsteq	fp, r3, lsl r0
    1918:	23000013 	movwcs	r0, #19
    191c:	1331012e 	teqne	r1, #-2147483637	; 0x8000000b
    1920:	06120111 			; <UNDEFINED> instruction: 0x06120111
    1924:	42971840 	addsmi	r1, r7, #64, 16	; 0x400000
    1928:	00130119 	andseq	r0, r3, r9, lsl r1
    192c:	002e2400 	eoreq	r2, lr, r0, lsl #8
    1930:	193c193f 	ldmdbne	ip!, {r0, r1, r2, r3, r4, r5, r8, fp, ip}
    1934:	0e030e6e 	cdpeq	14, 0, cr0, cr3, cr14, {3}
    1938:	0b3b0b3a 	bleq	ec4628 <__bss_end__+0xeb9878>
    193c:	00000b39 	andeq	r0, r0, r9, lsr fp
    1940:	01110100 	tsteq	r1, r0, lsl #2
    1944:	0b130e25 	bleq	4c51e0 <__bss_end__+0x4ba430>
    1948:	0e1b0e03 	cdpeq	14, 1, cr0, cr11, cr3, {0}
    194c:	06120111 			; <UNDEFINED> instruction: 0x06120111
    1950:	00001710 	andeq	r1, r0, r0, lsl r7
    1954:	0b002402 	bleq	a964 <__FUNCTION__.3+0x4>
    1958:	030b3e0b 	movweq	r3, #48651	; 0xbe0b
    195c:	03000008 	movweq	r0, #8
    1960:	0b0b0024 	bleq	2c19f8 <__bss_end__+0x2b6c48>
    1964:	0e030b3e 	vmoveq.16	d3[0], r0
    1968:	15040000 	strne	r0, [r4, #-0]
    196c:	49192701 	ldmdbmi	r9, {r0, r8, r9, sl, sp}
    1970:	00130113 	andseq	r0, r3, r3, lsl r1
    1974:	00050500 	andeq	r0, r5, r0, lsl #10
    1978:	00001349 	andeq	r1, r0, r9, asr #6
    197c:	03003406 	movweq	r3, #1030	; 0x406
    1980:	3b0b3a0e 	blcc	2d01c0 <__bss_end__+0x2c5410>
    1984:	490b390b 	stmdbmi	fp, {r0, r1, r3, r8, fp, ip, sp}
    1988:	3c193f13 	ldccc	15, cr3, [r9], {19}
    198c:	07000019 	smladeq	r0, r9, r0, r0
    1990:	0b0b000f 	bleq	2c19d4 <__bss_end__+0x2b6c24>
    1994:	00001349 	andeq	r1, r0, r9, asr #6
    1998:	49002608 	stmdbmi	r0, {r3, r9, sl, sp}
    199c:	09000013 	stmdbeq	r0, {r0, r1, r4}
    19a0:	13470034 	movtne	r0, #28724	; 0x7034
    19a4:	0b3b0b3a 	bleq	ec4694 <__bss_end__+0xeb98e4>
    19a8:	18020b39 	stmdane	r2, {r0, r3, r4, r5, r8, r9, fp}
    19ac:	2e0a0000 	cdpcs	0, 0, cr0, cr10, cr0, {0}
    19b0:	03193f01 	tsteq	r9, #1, 30
    19b4:	3b0b3a0e 	blcc	2d01f4 <__bss_end__+0x2c5444>
    19b8:	270b390b 	strcs	r3, [fp, -fp, lsl #18]
    19bc:	12011119 	andne	r1, r1, #1073741830	; 0x40000006
    19c0:	97184006 	ldrls	r4, [r8, -r6]
    19c4:	13011942 	movwne	r1, #6466	; 0x1942
    19c8:	050b0000 	streq	r0, [fp, #-0]
    19cc:	3a080300 	bcc	2025d4 <__bss_end__+0x1f7824>
    19d0:	390b3b0b 	stmdbcc	fp, {r0, r1, r3, r8, r9, fp, ip, sp}
    19d4:	0213490b 	andseq	r4, r3, #180224	; 0x2c000
    19d8:	0c000018 	stceq	0, cr0, [r0], {24}
    19dc:	193f002e 	ldmdbne	pc!, {r1, r2, r3, r5}	; <UNPREDICTABLE>
    19e0:	0b3a0e03 	bleq	e851f4 <__bss_end__+0xe7a444>
    19e4:	0b390b3b 	bleq	e446d8 <__bss_end__+0xe39928>
    19e8:	01111927 	tsteq	r1, r7, lsr #18
    19ec:	18400612 	stmdane	r0, {r1, r4, r9, sl}^
    19f0:	00194297 	mulseq	r9, r7, r2
    19f4:	012e0d00 			; <UNDEFINED> instruction: 0x012e0d00
    19f8:	0b3a0e03 	bleq	e8520c <__bss_end__+0xe7a45c>
    19fc:	0b390b3b 	bleq	e446f0 <__bss_end__+0xe39940>
    1a00:	13491927 	movtne	r1, #39207	; 0x9927
    1a04:	06120111 			; <UNDEFINED> instruction: 0x06120111
    1a08:	42971840 	addsmi	r1, r7, #64, 16	; 0x400000
    1a0c:	00130119 	andseq	r0, r3, r9, lsl r1
    1a10:	00050e00 	andeq	r0, r5, r0, lsl #28
    1a14:	0b3a0803 	bleq	e83a28 <__bss_end__+0xe78c78>
    1a18:	0b390b3b 	bleq	e4470c <__bss_end__+0xe3995c>
    1a1c:	17021349 	strne	r1, [r2, -r9, asr #6]
    1a20:	001742b7 			; <UNDEFINED> instruction: 0x001742b7
    1a24:	82890f00 	addhi	r0, r9, #0, 30
    1a28:	01110101 	tsteq	r1, r1, lsl #2
    1a2c:	00001331 	andeq	r1, r0, r1, lsr r3
    1a30:	01828a10 	orreq	r8, r2, r0, lsl sl
    1a34:	91180200 	tstls	r8, r0, lsl #4
    1a38:	00001842 	andeq	r1, r0, r2, asr #16
    1a3c:	3f002e11 	svccc	0x00002e11
    1a40:	6e193c19 	mrcvs	12, 0, r3, cr9, cr9, {0}
    1a44:	3a0e030e 	bcc	382684 <__bss_end__+0x3778d4>
    1a48:	390b3b0b 	stmdbcc	fp, {r0, r1, r3, r8, r9, fp, ip, sp}
    1a4c:	0000000b 	andeq	r0, r0, fp
    1a50:	25011101 	strcs	r1, [r1, #-257]	; 0xfffffeff
    1a54:	030b130e 	movweq	r1, #45838	; 0xb30e
    1a58:	110e1b0e 	tstne	lr, lr, lsl #22
    1a5c:	10061201 	andne	r1, r6, r1, lsl #4
    1a60:	02000017 	andeq	r0, r0, #23, 0
    1a64:	0b0b0024 	bleq	2c1afc <__bss_end__+0x2b6d4c>
    1a68:	08030b3e 	stmdaeq	r3, {r1, r2, r3, r4, r5, r8, r9, fp}
    1a6c:	24030000 	strcs	r0, [r3], #-0
    1a70:	3e0b0b00 	vmlacc.f64	d0, d11, d0
    1a74:	000e030b 	andeq	r0, lr, fp, lsl #6
    1a78:	01150400 	tsteq	r5, r0, lsl #8
    1a7c:	13491927 	movtne	r1, #39207	; 0x9927
    1a80:	00001301 	andeq	r1, r0, r1, lsl #6
    1a84:	49000505 	stmdbmi	r0, {r0, r2, r8, sl}
    1a88:	06000013 			; <UNDEFINED> instruction: 0x06000013
    1a8c:	0e030034 	mcreq	0, 0, r0, cr3, cr4, {1}
    1a90:	0b3b0b3a 	bleq	ec4780 <__bss_end__+0xeb99d0>
    1a94:	13490b39 	movtne	r0, #39737	; 0x9b39
    1a98:	193c193f 	ldmdbne	ip!, {r0, r1, r2, r3, r4, r5, r8, fp, ip}
    1a9c:	0f070000 	svceq	0x00070000
    1aa0:	490b0b00 	stmdbmi	fp, {r8, r9, fp}
    1aa4:	08000013 	stmdaeq	r0, {r0, r1, r4}
    1aa8:	13490026 	movtne	r0, #36902	; 0x9026
    1aac:	2e090000 	cdpcs	0, 0, cr0, cr9, cr0, {0}
    1ab0:	03193f01 	tsteq	r9, #1, 30
    1ab4:	3b0b3a0e 	blcc	2d02f4 <__bss_end__+0x2c5544>
    1ab8:	270b390b 	strcs	r3, [fp, -fp, lsl #18]
    1abc:	11134919 	tstne	r3, r9, lsl r9
    1ac0:	40061201 	andmi	r1, r6, r1, lsl #4
    1ac4:	19429718 	stmdbne	r2, {r3, r4, r8, r9, sl, ip, pc}^
    1ac8:	00001301 	andeq	r1, r0, r1, lsl #6
    1acc:	0300050a 	movweq	r0, #1290	; 0x50a
    1ad0:	3b0b3a0e 	blcc	2d0310 <__bss_end__+0x2c5560>
    1ad4:	490b390b 	stmdbmi	fp, {r0, r1, r3, r8, fp, ip, sp}
    1ad8:	00180213 	andseq	r0, r8, r3, lsl r2
    1adc:	00050b00 	andeq	r0, r5, r0, lsl #22
    1ae0:	0b3a0803 	bleq	e83af4 <__bss_end__+0xe78d44>
    1ae4:	0b390b3b 	bleq	e447d8 <__bss_end__+0xe39a28>
    1ae8:	17021349 	strne	r1, [r2, -r9, asr #6]
    1aec:	001742b7 			; <UNDEFINED> instruction: 0x001742b7
    1af0:	00340c00 	eorseq	r0, r4, r0, lsl #24
    1af4:	0b3a0803 	bleq	e83b08 <__bss_end__+0xe78d58>
    1af8:	0b390b3b 	bleq	e447ec <__bss_end__+0xe39a3c>
    1afc:	17021349 	strne	r1, [r2, -r9, asr #6]
    1b00:	001742b7 			; <UNDEFINED> instruction: 0x001742b7
    1b04:	11010000 	mrsne	r0, (UNDEF: 1)
    1b08:	130e2501 	movwne	r2, #58625	; 0xe501
    1b0c:	1b0e030b 	blne	382740 <__bss_end__+0x377990>
    1b10:	1201110e 	andne	r1, r1, #-2147483645	; 0x80000003
    1b14:	00171006 	andseq	r1, r7, r6
    1b18:	00240200 	eoreq	r0, r4, r0, lsl #4
    1b1c:	0b3e0b0b 	bleq	f84750 <__bss_end__+0xf799a0>
    1b20:	00000803 	andeq	r0, r0, r3, lsl #16
    1b24:	0b002403 	bleq	ab38 <buf.3944+0x18c>
    1b28:	030b3e0b 	movweq	r3, #48651	; 0xbe0b
    1b2c:	0400000e 	streq	r0, [r0], #-14
    1b30:	19270115 	stmdbne	r7!, {r0, r2, r4, r8}
    1b34:	13011349 	movwne	r1, #4937	; 0x1349
    1b38:	05050000 	streq	r0, [r5, #-0]
    1b3c:	00134900 	andseq	r4, r3, r0, lsl #18
    1b40:	00340600 	eorseq	r0, r4, r0, lsl #12
    1b44:	0b3a0e03 	bleq	e85358 <__bss_end__+0xe7a5a8>
    1b48:	0b390b3b 	bleq	e4483c <__bss_end__+0xe39a8c>
    1b4c:	193f1349 	ldmdbne	pc!, {r0, r3, r6, r8, r9, ip}	; <UNPREDICTABLE>
    1b50:	0000193c 	andeq	r1, r0, ip, lsr r9
    1b54:	0b000f07 	bleq	5778 <__code_start__-0x2888>
    1b58:	0013490b 	andseq	r4, r3, fp, lsl #18
    1b5c:	00260800 	eoreq	r0, r6, r0, lsl #16
    1b60:	00001349 	andeq	r1, r0, r9, asr #6
    1b64:	3f012e09 	svccc	0x00012e09
    1b68:	3a0e0319 	bcc	3827d4 <__bss_end__+0x377a24>
    1b6c:	390b3b0b 	stmdbcc	fp, {r0, r1, r3, r8, r9, fp, ip, sp}
    1b70:	4919270b 	ldmdbmi	r9, {r0, r1, r3, r8, r9, sl, sp}
    1b74:	12011113 	andne	r1, r1, #-1073741820	; 0xc0000004
    1b78:	97184006 	ldrls	r4, [r8, -r6]
    1b7c:	00001942 	andeq	r1, r0, r2, asr #18
    1b80:	0300050a 	movweq	r0, #1290	; 0x50a
    1b84:	3b0b3a08 	blcc	2d03ac <__bss_end__+0x2c55fc>
    1b88:	490b390b 	stmdbmi	fp, {r0, r1, r3, r8, fp, ip, sp}
    1b8c:	b7170213 			; <UNDEFINED> instruction: 0xb7170213
    1b90:	00001742 	andeq	r1, r0, r2, asr #14
    1b94:	01110100 	tsteq	r1, r0, lsl #2
    1b98:	0b130e25 	bleq	4c5434 <__bss_end__+0x4ba684>
    1b9c:	0e1b0e03 	cdpeq	14, 1, cr0, cr11, cr3, {0}
    1ba0:	06120111 			; <UNDEFINED> instruction: 0x06120111
    1ba4:	00001710 	andeq	r1, r0, r0, lsl r7
    1ba8:	0b002402 	bleq	abb8 <buf.3944+0x20c>
    1bac:	030b3e0b 	movweq	r3, #48651	; 0xbe0b
    1bb0:	03000008 	movweq	r0, #8
    1bb4:	0b0b0024 	bleq	2c1c4c <__bss_end__+0x2b6e9c>
    1bb8:	0e030b3e 	vmoveq.16	d3[0], r0
    1bbc:	15040000 	strne	r0, [r4, #-0]
    1bc0:	49192701 	ldmdbmi	r9, {r0, r8, r9, sl, sp}
    1bc4:	00130113 	andseq	r0, r3, r3, lsl r1
    1bc8:	00050500 	andeq	r0, r5, r0, lsl #10
    1bcc:	00001349 	andeq	r1, r0, r9, asr #6
    1bd0:	03003406 	movweq	r3, #1030	; 0x406
    1bd4:	3b0b3a0e 	blcc	2d0414 <__bss_end__+0x2c5664>
    1bd8:	490b390b 	stmdbmi	fp, {r0, r1, r3, r8, fp, ip, sp}
    1bdc:	3c193f13 	ldccc	15, cr3, [r9], {19}
    1be0:	07000019 	smladeq	r0, r9, r0, r0
    1be4:	0b0b000f 	bleq	2c1c28 <__bss_end__+0x2b6e78>
    1be8:	00001349 	andeq	r1, r0, r9, asr #6
    1bec:	49002608 	stmdbmi	r0, {r3, r9, sl, sp}
    1bf0:	09000013 	stmdbeq	r0, {r0, r1, r4}
    1bf4:	193f012e 	ldmdbne	pc!, {r1, r2, r3, r5, r8}	; <UNPREDICTABLE>
    1bf8:	0b3a0e03 	bleq	e8540c <__bss_end__+0xe7a65c>
    1bfc:	0b390b3b 	bleq	e448f0 <__bss_end__+0xe39b40>
    1c00:	13491927 	movtne	r1, #39207	; 0x9927
    1c04:	06120111 			; <UNDEFINED> instruction: 0x06120111
    1c08:	42971840 	addsmi	r1, r7, #64, 16	; 0x400000
    1c0c:	00130119 	andseq	r0, r3, r9, lsl r1
    1c10:	00050a00 	andeq	r0, r5, r0, lsl #20
    1c14:	0b3a0803 	bleq	e83c28 <__bss_end__+0xe78e78>
    1c18:	0b390b3b 	bleq	e4490c <__bss_end__+0xe39b5c>
    1c1c:	18021349 	stmdane	r2, {r0, r3, r6, r8, r9, ip}
    1c20:	050b0000 	streq	r0, [fp, #-0]
    1c24:	3a080300 	bcc	20282c <__bss_end__+0x1f7a7c>
    1c28:	390b3b0b 	stmdbcc	fp, {r0, r1, r3, r8, r9, fp, ip, sp}
    1c2c:	0213490b 	andseq	r4, r3, #180224	; 0x2c000
    1c30:	1742b717 	smlaldne	fp, r2, r7, r7
    1c34:	340c0000 	strcc	r0, [ip], #-0
    1c38:	3a080300 	bcc	202840 <__bss_end__+0x1f7a90>
    1c3c:	390b3b0b 	stmdbcc	fp, {r0, r1, r3, r8, r9, fp, ip, sp}
    1c40:	0213490b 	andseq	r4, r3, #180224	; 0x2c000
    1c44:	1742b717 	smlaldne	fp, r2, r7, r7
    1c48:	01000000 	mrseq	r0, (UNDEF: 0)
    1c4c:	0e250111 	mcreq	1, 1, r0, cr5, cr1, {0}
    1c50:	0e030b13 	vmoveq.32	d3[0], r0
    1c54:	01110e1b 	tsteq	r1, fp, lsl lr
    1c58:	17100612 			; <UNDEFINED> instruction: 0x17100612
    1c5c:	24020000 	strcs	r0, [r2], #-0
    1c60:	3e0b0b00 	vmlacc.f64	d0, d11, d0
    1c64:	0008030b 	andeq	r0, r8, fp, lsl #6
    1c68:	00160300 	andseq	r0, r6, r0, lsl #6
    1c6c:	0b3a0e03 	bleq	e85480 <__bss_end__+0xe7a6d0>
    1c70:	0b390b3b 	bleq	e44964 <__bss_end__+0xe39bb4>
    1c74:	00001349 	andeq	r1, r0, r9, asr #6
    1c78:	0b002404 	bleq	ac90 <buf.3944+0x2e4>
    1c7c:	030b3e0b 	movweq	r3, #48651	; 0xbe0b
    1c80:	0500000e 	streq	r0, [r0, #-14]
    1c84:	13490026 	movtne	r0, #36902	; 0x9026
    1c88:	15060000 	strne	r0, [r6, #-0]
    1c8c:	49192701 	ldmdbmi	r9, {r0, r8, r9, sl, sp}
    1c90:	00130113 	andseq	r0, r3, r3, lsl r1
    1c94:	00050700 	andeq	r0, r5, r0, lsl #14
    1c98:	00001349 	andeq	r1, r0, r9, asr #6
    1c9c:	03003408 	movweq	r3, #1032	; 0x408
    1ca0:	3b0b3a0e 	blcc	2d04e0 <__bss_end__+0x2c5730>
    1ca4:	490b390b 	stmdbmi	fp, {r0, r1, r3, r8, fp, ip, sp}
    1ca8:	3c193f13 	ldccc	15, cr3, [r9], {19}
    1cac:	09000019 	stmdbeq	r0, {r0, r3, r4}
    1cb0:	0b0b000f 	bleq	2c1cf4 <__bss_end__+0x2b6f44>
    1cb4:	00001349 	andeq	r1, r0, r9, asr #6
    1cb8:	3f012e0a 	svccc	0x00012e0a
    1cbc:	3a0e0319 	bcc	382928 <__bss_end__+0x377b78>
    1cc0:	390b3b0b 	stmdbcc	fp, {r0, r1, r3, r8, r9, fp, ip, sp}
    1cc4:	4919270b 	ldmdbmi	r9, {r0, r1, r3, r8, r9, sl, sp}
    1cc8:	12011113 	andne	r1, r1, #-1073741820	; 0xc0000004
    1ccc:	97184006 	ldrls	r4, [r8, -r6]
    1cd0:	13011942 	movwne	r1, #6466	; 0x1942
    1cd4:	050b0000 	streq	r0, [fp, #-0]
    1cd8:	3a080300 	bcc	2028e0 <__bss_end__+0x1f7b30>
    1cdc:	390b3b0b 	stmdbcc	fp, {r0, r1, r3, r8, r9, fp, ip, sp}
    1ce0:	0213490b 	andseq	r4, r3, #180224	; 0x2c000
    1ce4:	1742b717 	smlaldne	fp, r2, r7, r7
    1ce8:	340c0000 	strcc	r0, [ip], #-0
    1cec:	3a080300 	bcc	2028f4 <__bss_end__+0x1f7b44>
    1cf0:	390b3b0b 	stmdbcc	fp, {r0, r1, r3, r8, r9, fp, ip, sp}
    1cf4:	0213490b 	andseq	r4, r3, #180224	; 0x2c000
    1cf8:	1742b717 	smlaldne	fp, r2, r7, r7
    1cfc:	01000000 	mrseq	r0, (UNDEF: 0)
    1d00:	0e250111 	mcreq	1, 1, r0, cr5, cr1, {0}
    1d04:	0e030b13 	vmoveq.32	d3[0], r0
    1d08:	01110e1b 	tsteq	r1, fp, lsl lr
    1d0c:	17100612 			; <UNDEFINED> instruction: 0x17100612
    1d10:	24020000 	strcs	r0, [r2], #-0
    1d14:	3e0b0b00 	vmlacc.f64	d0, d11, d0
    1d18:	0008030b 	andeq	r0, r8, fp, lsl #6
    1d1c:	00240300 	eoreq	r0, r4, r0, lsl #6
    1d20:	0b3e0b0b 	bleq	f84954 <__bss_end__+0xf79ba4>
    1d24:	00000e03 	andeq	r0, r0, r3, lsl #28
    1d28:	27011504 	strcs	r1, [r1, -r4, lsl #10]
    1d2c:	01134919 	tsteq	r3, r9, lsl r9
    1d30:	05000013 	streq	r0, [r0, #-19]	; 0xffffffed
    1d34:	13490005 	movtne	r0, #36869	; 0x9005
    1d38:	34060000 	strcc	r0, [r6], #-0
    1d3c:	3a0e0300 	bcc	382944 <__bss_end__+0x377b94>
    1d40:	390b3b0b 	stmdbcc	fp, {r0, r1, r3, r8, r9, fp, ip, sp}
    1d44:	3f13490b 	svccc	0x0013490b
    1d48:	00193c19 	andseq	r3, r9, r9, lsl ip
    1d4c:	000f0700 	andeq	r0, pc, r0, lsl #14
    1d50:	13490b0b 	movtne	r0, #39691	; 0x9b0b
    1d54:	26080000 	strcs	r0, [r8], -r0
    1d58:	00134900 	andseq	r4, r3, r0, lsl #18
    1d5c:	002e0900 	eoreq	r0, lr, r0, lsl #18
    1d60:	0e03193f 			; <UNDEFINED> instruction: 0x0e03193f
    1d64:	0b3b0b3a 	bleq	ec4a54 <__bss_end__+0xeb9ca4>
    1d68:	19270b39 	stmdbne	r7!, {r0, r3, r4, r5, r8, r9, fp}
    1d6c:	06120111 			; <UNDEFINED> instruction: 0x06120111
    1d70:	42971840 	addsmi	r1, r7, #64, 16	; 0x400000
    1d74:	00000019 	andeq	r0, r0, r9, lsl r0

Disassembly of section .debug_loc:

00000000 <.debug_loc>:
       0:	01000001 	tsteq	r0, r1
       4:	00000001 	andeq	r0, r0, r1
       8:	00080000 	andeq	r0, r8, r0
       c:	00100000 	andseq	r0, r0, r0
      10:	00020000 	andeq	r0, r2, r0
      14:	00109f30 	andseq	r9, r0, r0, lsr pc
      18:	005c0000 	subseq	r0, ip, r0
      1c:	00010000 	andeq	r0, r1, r0
      20:	00005c56 	andeq	r5, r0, r6, asr ip
      24:	00006800 	andeq	r6, r0, r0, lsl #16
      28:	54000100 	strpl	r0, [r0], #-256	; 0xffffff00
      2c:	00000068 	andeq	r0, r0, r8, rrx
      30:	00000078 	andeq	r0, r0, r8, ror r0
      34:	78560001 	ldmdavc	r6, {r0}^
      38:	80000000 	andhi	r0, r0, r0
      3c:	01000000 	mrseq	r0, (UNDEF: 0)
      40:	00005000 	andeq	r5, r0, r0
      44:	00000000 	andeq	r0, r0, r0
      48:	00030000 	andeq	r0, r3, r0
      4c:	00080000 	andeq	r0, r8, r0
      50:	00100000 	andseq	r0, r0, r0
      54:	00020000 	andeq	r0, r2, r0
      58:	00109f30 	andseq	r9, r0, r0, lsr pc
      5c:	00780000 	rsbseq	r0, r8, r0
      60:	00010000 	andeq	r0, r1, r0
      64:	00000055 	andeq	r0, r0, r5, asr r0
	...
      70:	00004400 	andeq	r4, r0, r0, lsl #8
      74:	00004f00 	andeq	r4, r0, r0, lsl #30
      78:	50000100 	andpl	r0, r0, r0, lsl #2
      7c:	0000004f 	andeq	r0, r0, pc, asr #32
      80:	00000068 	andeq	r0, r0, r8, rrx
      84:	00540001 	subseq	r0, r4, r1
      88:	00000000 	andeq	r0, r0, r0
      8c:	01000000 	mrseq	r0, (UNDEF: 0)
      90:	00001800 	andeq	r1, r0, r0, lsl #16
      94:	00003000 	andeq	r3, r0, r0
      98:	42000200 	andmi	r0, r0, #0, 4
      9c:	0000009f 	muleq	r0, pc, r0	; <UNPREDICTABLE>
      a0:	00000000 	andeq	r0, r0, r0
      a4:	18000100 	stmdane	r0, {r8}
      a8:	30000000 	andcc	r0, r0, r0
      ac:	06000000 	streq	r0, [r0], -r0
      b0:	02b2f200 	adcseq	pc, r2, #0, 4
	...
      bc:	01000000 	mrseq	r0, (UNDEF: 0)
      c0:	00001800 	andeq	r1, r0, r0, lsl #16
      c4:	00003000 	andeq	r3, r0, r0
      c8:	03000600 	movweq	r0, #1536	; 0x600
      cc:	0000a158 	andeq	sl, r0, r8, asr r1
      d0:	0000009f 	muleq	r0, pc, r0	; <UNPREDICTABLE>
	...
      dc:	58000000 	stmdapl	r0, {}	; <UNPREDICTABLE>
      e0:	70000002 	andvc	r0, r0, r2
      e4:	01000002 	tsteq	r0, r2
      e8:	02705000 	rsbseq	r5, r0, #0, 0
      ec:	02dc0000 	sbcseq	r0, ip, #0, 0
      f0:	00010000 	andeq	r0, r1, r0
      f4:	0002dc56 	andeq	sp, r2, r6, asr ip
      f8:	0002e800 	andeq	lr, r2, r0, lsl #16
      fc:	f3000400 	vshl.u8	d0, d0, d0
     100:	009f5001 	addseq	r5, pc, r1
	...
     110:	00027800 	andeq	r7, r2, r0, lsl #16
     114:	00028300 	andeq	r8, r2, r0, lsl #6
     118:	50000100 	andpl	r0, r0, r0, lsl #2
     11c:	00000283 	andeq	r0, r0, r3, lsl #5
     120:	000002dc 	ldrdeq	r0, [r0], -ip
     124:	dc540001 	mrrcle	0, 0, r0, r4, cr1
     128:	e8000002 	stmda	r0, {r1}
     12c:	05000002 	streq	r0, [r0, #-2]
     130:	a9880300 	stmibge	r8, {r8, r9}
	...
     140:	016c0000 	cmneq	ip, r0
     144:	017c0000 	cmneq	ip, r0
     148:	00010000 	andeq	r0, r1, r0
     14c:	00017c50 	andeq	r7, r1, r0, asr ip
     150:	00025800 	andeq	r5, r2, r0, lsl #16
     154:	54000100 	strpl	r0, [r0], #-256	; 0xffffff00
	...
     160:	00020201 	andeq	r0, r2, r1, lsl #4
     164:	00000000 	andeq	r0, r0, r0
     168:	01800000 	orreq	r0, r0, r0
     16c:	01800000 	orreq	r0, r0, r0
     170:	00010000 	andeq	r0, r1, r0
     174:	00018054 	andeq	r8, r1, r4, asr r0
     178:	0001bc00 	andeq	fp, r1, r0, lsl #24
     17c:	74000300 	strvc	r0, [r0], #-768	; 0xfffffd00
     180:	01bc9f5c 			; <UNDEFINED> instruction: 0x01bc9f5c
     184:	01f00000 	mvnseq	r0, r0
     188:	00010000 	andeq	r0, r1, r0
     18c:	0001f055 	andeq	pc, r1, r5, asr r0	; <UNPREDICTABLE>
     190:	00021400 	andeq	r1, r2, r0, lsl #8
     194:	74000300 	strvc	r0, [r0], #-768	; 0xfffffd00
     198:	02149f5c 	andseq	r9, r4, #92, 30	; 0x170
     19c:	02580000 	subseq	r0, r8, #0, 0
     1a0:	00010000 	andeq	r0, r1, r0
     1a4:	00000055 	andeq	r0, r0, r5, asr r0
	...
     1b8:	20000000 	andcs	r0, r0, r0
     1bc:	38000000 	stmdacc	r0, {}	; <UNPREDICTABLE>
     1c0:	01000000 	mrseq	r0, (UNDEF: 0)
     1c4:	00385000 	eorseq	r5, r8, r0
     1c8:	00400000 	subeq	r0, r0, r0
     1cc:	00010000 	andeq	r0, r1, r0
     1d0:	00004053 	andeq	r4, r0, r3, asr r0
     1d4:	00006800 	andeq	r6, r0, r0, lsl #16
     1d8:	f3000400 	vshl.u8	d0, d0, d0
     1dc:	689f5001 	ldmvs	pc, {r0, ip, lr}	; <UNPREDICTABLE>
     1e0:	80000000 	andhi	r0, r0, r0
     1e4:	01000000 	mrseq	r0, (UNDEF: 0)
     1e8:	00805000 	addeq	r5, r0, r0
     1ec:	00880000 	addeq	r0, r8, r0
     1f0:	00040000 	andeq	r0, r4, r0
     1f4:	9f5001f3 	svcls	0x005001f3
     1f8:	00000088 	andeq	r0, r0, r8, lsl #1
     1fc:	00000094 	muleq	r0, r4, r0
     200:	94530001 	ldrbls	r0, [r3], #-1
     204:	c4000000 	strgt	r0, [r0], #-0
     208:	04000000 	streq	r0, [r0], #-0
     20c:	5001f300 	andpl	pc, r1, r0, lsl #6
     210:	0000009f 	muleq	r0, pc, r0	; <UNPREDICTABLE>
	...
     224:	00002000 	andeq	r2, r0, r0
     228:	00004000 	andeq	r4, r0, r0
     22c:	51000100 	mrspl	r0, (UNDEF: 16)
     230:	00000040 	andeq	r0, r0, r0, asr #32
     234:	00000068 	andeq	r0, r0, r8, rrx
     238:	68540001 	ldmdavs	r4, {r0}^
     23c:	7c000000 	stcvc	0, cr0, [r0], {-0}
     240:	01000000 	mrseq	r0, (UNDEF: 0)
     244:	007c5100 	rsbseq	r5, ip, r0, lsl #2
     248:	00880000 	addeq	r0, r8, r0
     24c:	00040000 	andeq	r0, r4, r0
     250:	9f5101f3 	svcls	0x005101f3
     254:	00000088 	andeq	r0, r0, r8, lsl #1
     258:	00000094 	muleq	r0, r4, r0
     25c:	94510001 	ldrbls	r0, [r1], #-1
     260:	c4000000 	strgt	r0, [r0], #-0
     264:	01000000 	mrseq	r0, (UNDEF: 0)
     268:	00005400 	andeq	r5, r0, r0, lsl #8
	...
     274:	00000100 	andeq	r0, r0, r0, lsl #2
     278:	00380000 	eorseq	r0, r8, r0
     27c:	00470000 	subeq	r0, r7, r0
     280:	00010000 	andeq	r0, r1, r0
     284:	00004750 	andeq	r4, r0, r0, asr r7
     288:	00006000 	andeq	r6, r0, r0
     28c:	55000100 	strpl	r0, [r0, #-256]	; 0xffffff00
     290:	00000088 	andeq	r0, r0, r8, lsl #1
     294:	00000094 	muleq	r0, r4, r0
     298:	94500001 	ldrbls	r0, [r0], #-1
     29c:	c4000000 	strgt	r0, [r0], #-0
     2a0:	01000000 	mrseq	r0, (UNDEF: 0)
     2a4:	00005500 	andeq	r5, r0, r0, lsl #10
     2a8:	00000000 	andeq	r0, r0, r0
     2ac:	01000000 	mrseq	r0, (UNDEF: 0)
     2b0:	00480000 	subeq	r0, r8, r0
     2b4:	00600000 	rsbeq	r0, r0, r0
     2b8:	00010000 	andeq	r0, r1, r0
     2bc:	00009450 	andeq	r9, r0, r0, asr r4
     2c0:	0000a800 	andeq	sl, r0, r0, lsl #16
     2c4:	50000100 	andpl	r0, r0, r0, lsl #2
	...
     2d4:	00000114 	andeq	r0, r0, r4, lsl r1
     2d8:	0000011f 	andeq	r0, r0, pc, lsl r1
     2dc:	1f500001 	svcne	0x00500001
     2e0:	6c000001 	stcvs	0, cr0, [r0], {1}
     2e4:	01000001 	tsteq	r0, r1
     2e8:	00005500 	andeq	r5, r0, r0, lsl #10
	...
     2f8:	01240000 			; <UNDEFINED> instruction: 0x01240000
     2fc:	01370000 	teqeq	r7, r0
     300:	00010000 	andeq	r0, r1, r0
     304:	00013750 	andeq	r3, r1, r0, asr r7
     308:	00014c00 	andeq	r4, r1, r0, lsl #24
     30c:	54000100 	strpl	r0, [r0], #-256	; 0xffffff00
     310:	0000014c 	andeq	r0, r0, ip, asr #2
     314:	00000150 	andeq	r0, r0, r0, asr r1
     318:	50500001 	subspl	r0, r0, r1
     31c:	6c000001 	stcvs	0, cr0, [r0], {1}
     320:	01000001 	tsteq	r0, r1
     324:	00005400 	andeq	r5, r0, r0, lsl #8
	...
     330:	00e40000 	rsceq	r0, r4, r0
     334:	00f30000 	rscseq	r0, r3, r0
     338:	00010000 	andeq	r0, r1, r0
     33c:	0000f350 	andeq	pc, r0, r0, asr r3	; <UNPREDICTABLE>
     340:	00011400 	andeq	r1, r1, r0, lsl #8
     344:	56000100 	strpl	r0, [r0], -r0, lsl #2
	...
     354:	000000e4 	andeq	r0, r0, r4, ror #1
     358:	000000f3 	strdeq	r0, [r0], -r3
     35c:	f3510001 	vhadd.u16	d16, d1, d1
     360:	14000000 	strne	r0, [r0], #-0
     364:	01000001 	tsteq	r0, r1
     368:	00005400 	andeq	r5, r0, r0, lsl #8
	...
     374:	00f80000 	rscseq	r0, r8, r0
     378:	00fc0000 	rscseq	r0, ip, r0
     37c:	00010000 	andeq	r0, r1, r0
     380:	0000fc50 	andeq	pc, r0, r0, asr ip	; <UNPREDICTABLE>
     384:	00011400 	andeq	r1, r1, r0, lsl #8
     388:	55000100 	strpl	r0, [r0, #-256]	; 0xffffff00
	...
     394:	01000000 	mrseq	r0, (UNDEF: 0)
     398:	010c0000 	mrseq	r0, (UNDEF: 12)
     39c:	00010000 	andeq	r0, r1, r0
     3a0:	00000050 	andeq	r0, r0, r0, asr r0
	...
     3ac:	0000cc00 	andeq	ip, r0, r0, lsl #24
     3b0:	0000d700 	andeq	sp, r0, r0, lsl #14
     3b4:	50000100 	andpl	r0, r0, r0, lsl #2
     3b8:	000000d7 	ldrdeq	r0, [r0], -r7
     3bc:	000000e4 	andeq	r0, r0, r4, ror #1
     3c0:	00540001 	subseq	r0, r4, r1
	...
     3cc:	0000d800 	andeq	sp, r0, r0, lsl #16
     3d0:	0000dc00 	andeq	sp, r0, r0, lsl #24
     3d4:	54000100 	strpl	r0, [r0], #-256	; 0xffffff00
	...
     3e4:	000000c4 	andeq	r0, r0, r4, asr #1
     3e8:	000000c8 	andeq	r0, r0, r8, asr #1
     3ec:	c8500001 	ldmdagt	r0, {r0}^
     3f0:	cc000000 	stcgt	0, cr0, [r0], {-0}
     3f4:	03000000 	movweq	r0, #0
     3f8:	9f5c7000 	svcls	0x005c7000
	...
     408:	00000010 	andeq	r0, r0, r0, lsl r0
     40c:	0000001c 	andeq	r0, r0, ip, lsl r0
     410:	1c500001 	mrrcne	0, 0, r0, r0, cr1	; <UNPREDICTABLE>
     414:	20000000 	andcs	r0, r0, r0
     418:	04000000 	streq	r0, [r0], #-0
     41c:	5001f300 	andpl	pc, r1, r0, lsl #6
     420:	0000009f 	muleq	r0, pc, r0	; <UNPREDICTABLE>
	...
     430:	00000800 	andeq	r0, r0, r0, lsl #16
     434:	00007800 	andeq	r7, r0, r0, lsl #16
     438:	51000100 	mrspl	r0, (UNDEF: 16)
     43c:	00000078 	andeq	r0, r0, r8, ror r0
     440:	00000084 	andeq	r0, r0, r4, lsl #1
     444:	78700003 	ldmdavc	r0!, {r0, r1}^
     448:	0000849f 	muleq	r0, pc, r4	; <UNPREDICTABLE>
     44c:	0000a400 	andeq	sl, r0, r0, lsl #8
     450:	51000100 	mrspl	r0, (UNDEF: 16)
     454:	000000a4 	andeq	r0, r0, r4, lsr #1
     458:	000000bc 	strheq	r0, [r0], -ip
     45c:	78700003 	ldmdavc	r0!, {r0, r1}^
     460:	0000009f 	muleq	r0, pc, r0	; <UNPREDICTABLE>
	...
     46c:	00001000 	andeq	r1, r0, r0
     470:	00004800 	andeq	r4, r0, r0, lsl #16
     474:	53000100 	movwpl	r0, #256	; 0x100
     478:	0000004c 	andeq	r0, r0, ip, asr #32
     47c:	000000bc 	strheq	r0, [r0], -ip
     480:	00530001 	subseq	r0, r3, r1
	...
     494:	24000001 	strcs	r0, [r0], #-1
     498:	01000001 	tsteq	r0, r1
     49c:	01245000 			; <UNDEFINED> instruction: 0x01245000
     4a0:	01280000 			; <UNDEFINED> instruction: 0x01280000
     4a4:	00040000 	andeq	r0, r4, r0
     4a8:	9f5001f3 	svcls	0x005001f3
     4ac:	00000128 	andeq	r0, r0, r8, lsr #2
     4b0:	00000140 	andeq	r0, r0, r0, asr #2
     4b4:	40500001 	subsmi	r0, r0, r1
     4b8:	ac000001 	stcge	0, cr0, [r0], {1}
     4bc:	04000001 	streq	r0, [r0], #-1
     4c0:	5001f300 	andpl	pc, r1, r0, lsl #6
     4c4:	0000009f 	muleq	r0, pc, r0	; <UNPREDICTABLE>
	...
     4d4:	00000101 	andeq	r0, r0, r1, lsl #2
     4d8:	24000000 	strcs	r0, [r0], #-0
     4dc:	28000001 	stmdacs	r0, {r0}
     4e0:	01000001 	tsteq	r0, r1
     4e4:	01405000 	mrseq	r5, (UNDEF: 64)
     4e8:	01600000 	cmneq	r0, r0
     4ec:	00010000 	andeq	r0, r1, r0
     4f0:	00016050 	andeq	r6, r1, r0, asr r0
     4f4:	00016400 	andeq	r6, r1, r0, lsl #8
     4f8:	70000300 	andvc	r0, r0, r0, lsl #6
     4fc:	01649f78 	smceq	18936	; 0x49f8
     500:	01700000 	cmneq	r0, r0
     504:	00010000 	andeq	r0, r1, r0
     508:	00017050 	andeq	r7, r1, r0, asr r0
     50c:	00017800 	andeq	r7, r1, r0, lsl #16
     510:	70000200 	andvc	r0, r0, r0, lsl #4
     514:	00017800 	andeq	r7, r1, r0, lsl #16
     518:	00019800 	andeq	r9, r1, r0, lsl #16
     51c:	50000100 	andpl	r0, r0, r0, lsl #2
     520:	0000019c 	muleq	r0, ip, r1
     524:	000001ac 	andeq	r0, r0, ip, lsr #3
     528:	00500001 	subseq	r0, r0, r1
	...
     534:	00000101 	andeq	r0, r0, r1, lsl #2
     538:	00000100 	andeq	r0, r0, r0, lsl #2
     53c:	00011800 	andeq	r1, r1, r0, lsl #16
     540:	00012800 	andeq	r2, r1, r0, lsl #16
     544:	52000100 	andpl	r0, r0, #0
     548:	00000128 	andeq	r0, r0, r8, lsr #2
     54c:	00000140 	andeq	r0, r0, r0, asr #2
     550:	98030006 	stmdals	r3, {r1, r2}
     554:	9f0000a9 	svcls	0x000000a9
     558:	00000140 	andeq	r0, r0, r0, asr #2
     55c:	00000170 	andeq	r0, r0, r0, ror r1
     560:	70520001 	subsvc	r0, r2, r1
     564:	78000001 	stmdavc	r0, {r0}
     568:	01000001 	tsteq	r0, r1
     56c:	01785000 	cmneq	r8, r0
     570:	019b0000 	orrseq	r0, fp, r0
     574:	00010000 	andeq	r0, r1, r0
     578:	00000052 	andeq	r0, r0, r2, asr r0
     57c:	00000000 	andeq	r0, r0, r0
     580:	10000000 	andne	r0, r0, r0
     584:	ac000001 	stcge	0, cr0, [r0], {1}
     588:	01000001 	tsteq	r0, r1
     58c:	00005400 	andeq	r5, r0, r0, lsl #8
	...
     598:	00bc0000 	adcseq	r0, ip, r0
     59c:	00cc0000 	sbceq	r0, ip, r0
     5a0:	00010000 	andeq	r0, r1, r0
     5a4:	0000cc50 	andeq	ip, r0, r0, asr ip
     5a8:	00010000 	andeq	r0, r1, r0
     5ac:	54000100 	strpl	r0, [r0], #-256	; 0xffffff00
	...
     5bc:	00d40000 	sbcseq	r0, r4, r0
     5c0:	00e40000 	rsceq	r0, r4, r0
     5c4:	00010000 	andeq	r0, r1, r0
     5c8:	0000e450 	andeq	lr, r0, r0, asr r4
     5cc:	0000e700 	andeq	lr, r0, r0, lsl #14
     5d0:	70000300 	andvc	r0, r0, r0, lsl #6
     5d4:	00f49f78 	rscseq	r9, r4, r8, ror pc
     5d8:	00f80000 	rscseq	r0, r8, r0
     5dc:	00010000 	andeq	r0, r1, r0
     5e0:	00000050 	andeq	r0, r0, r0, asr r0
     5e4:	00000000 	andeq	r0, r0, r0
     5e8:	00000100 	andeq	r0, r0, r0, lsl #2
     5ec:	0000dc00 	andeq	sp, r0, r0, lsl #24
     5f0:	0000e400 	andeq	lr, r0, r0, lsl #8
     5f4:	50000100 	andpl	r0, r0, r0, lsl #2
     5f8:	000000e4 	andeq	r0, r0, r4, ror #1
     5fc:	000000e7 	andeq	r0, r0, r7, ror #1
     600:	78700003 	ldmdavc	r0!, {r0, r1}^
     604:	0000009f 	muleq	r0, pc, r0	; <UNPREDICTABLE>
     608:	00000000 	andeq	r0, r0, r0
     60c:	d4000000 	strle	r0, [r0], #-0
     610:	d8000005 	stmdale	r0, {r0, r2}
     614:	01000005 	tsteq	r0, r5
     618:	00005000 	andeq	r5, r0, r0
     61c:	00000000 	andeq	r0, r0, r0
     620:	00010000 	andeq	r0, r1, r0
     624:	03880000 	orreq	r0, r8, #0, 0
     628:	03b40000 			; <UNDEFINED> instruction: 0x03b40000
     62c:	00020000 	andeq	r0, r2, r0
     630:	03b49f30 			; <UNDEFINED> instruction: 0x03b49f30
     634:	04480000 	strbeq	r0, [r8], #-0
     638:	00010000 	andeq	r0, r1, r0
     63c:	00000055 	andeq	r0, r0, r5, asr r0
     640:	00000000 	andeq	r0, r0, r0
     644:	00000100 	andeq	r0, r0, r0, lsl #2
     648:	00038800 	andeq	r8, r3, r0, lsl #16
     64c:	0003b400 	andeq	fp, r3, r0, lsl #8
     650:	30000200 	andcc	r0, r0, r0, lsl #4
     654:	0003b49f 	muleq	r3, pc, r4	; <UNPREDICTABLE>
     658:	00044800 	andeq	r4, r4, r0, lsl #16
     65c:	58000100 	stmdapl	r0, {r8}
	...
     668:	00000001 	andeq	r0, r0, r1
     66c:	03880000 	orreq	r0, r8, #0, 0
     670:	03b40000 			; <UNDEFINED> instruction: 0x03b40000
     674:	00020000 	andeq	r0, r2, r0
     678:	03b49f30 			; <UNDEFINED> instruction: 0x03b49f30
     67c:	04480000 	strbeq	r0, [r8], #-0
     680:	00010000 	andeq	r0, r1, r0
     684:	00044857 	andeq	r4, r4, r7, asr r8
     688:	00046800 	andeq	r6, r4, r0, lsl #16
     68c:	50000100 	andpl	r0, r0, r0, lsl #2
	...
     6a0:	000003a4 	andeq	r0, r0, r4, lsr #7
     6a4:	000003e8 	andeq	r0, r0, r8, ror #7
     6a8:	e8500001 	ldmda	r0, {r0}^
     6ac:	04000003 	streq	r0, [r0], #-3
     6b0:	01000004 	tsteq	r0, r4
     6b4:	04045400 	streq	r5, [r4], #-1024	; 0xfffffc00
     6b8:	04240000 	strteq	r0, [r4], #-0
     6bc:	00010000 	andeq	r0, r1, r0
     6c0:	00042450 	andeq	r2, r4, r0, asr r4
     6c4:	00044800 	andeq	r4, r4, r0, lsl #16
     6c8:	54000100 	strpl	r0, [r0], #-256	; 0xffffff00
	...
     6d4:	03c40000 	biceq	r0, r4, #0, 0
     6d8:	03dc0000 	bicseq	r0, ip, #0, 0
     6dc:	00040000 	andeq	r0, r4, r0
     6e0:	9f01010a 	svcls	0x0001010a
	...
     6ec:	03c40000 	biceq	r0, r4, #0, 0
     6f0:	03dc0000 	bicseq	r0, ip, #0, 0
     6f4:	00060000 	andeq	r0, r6, r0
     6f8:	0019f0f2 	ldrsheq	pc, [r9], -r2	; <UNPREDICTABLE>
	...
     708:	000003c4 	andeq	r0, r0, r4, asr #7
     70c:	000003dc 	ldrdeq	r0, [r0], -ip
     710:	c0030006 	andgt	r0, r3, r6
     714:	9f0000a2 	svcls	0x000000a2
	...
     724:	00000578 	andeq	r0, r0, r8, ror r5
     728:	00000584 	andeq	r0, r0, r4, lsl #11
     72c:	84500001 	ldrbhi	r0, [r0], #-1
     730:	c8000005 	stmdagt	r0, {r0, r2}
     734:	01000005 	tsteq	r0, r5
     738:	00005400 	andeq	r5, r0, r0, lsl #8
	...
     744:	050c0000 	streq	r0, [ip, #-0]
     748:	05130000 	ldreq	r0, [r3, #-0]
     74c:	00010000 	andeq	r0, r1, r0
     750:	00051350 	andeq	r1, r5, r0, asr r3
     754:	00051800 	andeq	r1, r5, r0, lsl #16
     758:	f3000400 	vshl.u8	d0, d0, d0
     75c:	009f5001 	addseq	r5, pc, r1
	...
     768:	70000000 	andvc	r0, r0, r0
     76c:	7c000002 	stcvc	0, cr0, [r0], {2}
     770:	01000002 	tsteq	r0, r2
     774:	027c5000 	rsbseq	r5, ip, #0, 0
     778:	03800000 	orreq	r0, r0, #0, 0
     77c:	00010000 	andeq	r0, r1, r0
     780:	00000058 	andeq	r0, r0, r8, asr r0
     784:	00000000 	andeq	r0, r0, r0
     788:	00000100 	andeq	r0, r0, r0, lsl #2
     78c:	00027800 	andeq	r7, r2, r0, lsl #16
     790:	0002a400 	andeq	sl, r2, r0, lsl #8
     794:	30000200 	andcc	r0, r0, r0, lsl #4
     798:	0002a49f 	muleq	r2, pc, r4	; <UNPREDICTABLE>
     79c:	00038000 	andeq	r8, r3, r0
     7a0:	55000100 	strpl	r0, [r0, #-256]	; 0xffffff00
	...
     7ac:	00000001 	andeq	r0, r0, r1
     7b0:	02780000 	rsbseq	r0, r8, #0, 0
     7b4:	02a40000 	adceq	r0, r4, #0, 0
     7b8:	00020000 	andeq	r0, r2, r0
     7bc:	02a49f30 	adceq	r9, r4, #48, 30	; 0xc0
     7c0:	03380000 	teqeq	r8, #0, 0
     7c4:	00010000 	andeq	r0, r1, r0
     7c8:	00034056 	andeq	r4, r3, r6, asr r0
     7cc:	00038000 	andeq	r8, r3, r0
     7d0:	56000100 	strpl	r0, [r0], -r0, lsl #2
	...
     7dc:	00000001 	andeq	r0, r0, r1
     7e0:	00000278 	andeq	r0, r0, r8, ror r2
     7e4:	000002a4 	andeq	r0, r0, r4, lsr #5
     7e8:	9f300002 	svcls	0x00300002
     7ec:	000002a4 	andeq	r0, r0, r4, lsr #5
     7f0:	00000380 	andeq	r0, r0, r0, lsl #7
     7f4:	00570001 	subseq	r0, r7, r1
	...
     80c:	00029400 	andeq	r9, r2, r0, lsl #8
     810:	0002b400 	andeq	fp, r2, r0, lsl #8
     814:	50000100 	andpl	r0, r0, r0, lsl #2
     818:	000002b4 			; <UNDEFINED> instruction: 0x000002b4
     81c:	000002c4 	andeq	r0, r0, r4, asr #5
     820:	c4540001 	ldrbgt	r0, [r4], #-1
     824:	f4000002 	vst4.8	{d0-d3}, [r0], r2
     828:	01000002 	tsteq	r0, r2
     82c:	02f45000 	rscseq	r5, r4, #0, 0
     830:	02f70000 	rscseq	r0, r7, #0, 0
     834:	00010000 	andeq	r0, r1, r0
     838:	0002f752 	andeq	pc, r2, r2, asr r7	; <UNPREDICTABLE>
     83c:	0002fc00 	andeq	pc, r2, r0, lsl #24
     840:	54000100 	strpl	r0, [r0], #-256	; 0xffffff00
     844:	000002fc 	strdeq	r0, [r0], -ip
     848:	00000300 	andeq	r0, r0, r0, lsl #6
     84c:	00500001 	subseq	r0, r0, r1
     850:	80000003 	andhi	r0, r0, r3
     854:	01000003 	tsteq	r0, r3
     858:	00005400 	andeq	r5, r0, r0, lsl #8
	...
     864:	01d80000 	bicseq	r0, r8, r0
     868:	01f30000 	mvnseq	r0, r0
     86c:	00010000 	andeq	r0, r1, r0
     870:	0001f450 	andeq	pc, r1, r0, asr r4	; <UNPREDICTABLE>
     874:	0001fc00 	andeq	pc, r1, r0, lsl #24
     878:	50000100 	andpl	r0, r0, r0, lsl #2
	...
     890:	00640000 	rsbeq	r0, r4, r0
     894:	00a40000 	adceq	r0, r4, r0
     898:	00010000 	andeq	r0, r1, r0
     89c:	0000a450 	andeq	sl, r0, r0, asr r4
     8a0:	0000ac00 	andeq	sl, r0, r0, lsl #24
     8a4:	54000100 	strpl	r0, [r0], #-256	; 0xffffff00
     8a8:	000000ac 	andeq	r0, r0, ip, lsr #1
     8ac:	000000c4 	andeq	r0, r0, r4, asr #1
     8b0:	c4500001 	ldrbgt	r0, [r0], #-1
     8b4:	cc000000 	stcgt	0, cr0, [r0], {-0}
     8b8:	04000000 	streq	r0, [r0], #-0
     8bc:	5001f300 	andpl	pc, r1, r0, lsl #6
     8c0:	0000cc9f 	muleq	r0, pc, ip	; <UNPREDICTABLE>
     8c4:	0000e400 	andeq	lr, r0, r0, lsl #8
     8c8:	50000100 	andpl	r0, r0, r0, lsl #2
     8cc:	000000e4 	andeq	r0, r0, r4, ror #1
     8d0:	000000ec 	andeq	r0, r0, ip, ror #1
     8d4:	ec540001 	mrrc	0, 0, r0, r4, cr1
     8d8:	cc000000 	stcgt	0, cr0, [r0], {-0}
     8dc:	04000001 	streq	r0, [r0], #-1
     8e0:	5001f300 	andpl	pc, r1, r0, lsl #6
     8e4:	0000009f 	muleq	r0, pc, r0	; <UNPREDICTABLE>
	...
     8f8:	64000000 	strvs	r0, [r0], #-0
     8fc:	a0000000 	andge	r0, r0, r0
     900:	01000000 	mrseq	r0, (UNDEF: 0)
     904:	00a05100 	adceq	r5, r0, r0, lsl #2
     908:	00ac0000 	adceq	r0, ip, r0
     90c:	00010000 	andeq	r0, r1, r0
     910:	0000ac56 	andeq	sl, r0, r6, asr ip
     914:	0000c000 	andeq	ip, r0, r0
     918:	51000100 	mrspl	r0, (UNDEF: 16)
     91c:	000000c0 	andeq	r0, r0, r0, asr #1
     920:	000000cc 	andeq	r0, r0, ip, asr #1
     924:	01f30004 	mvnseq	r0, r4
     928:	00cc9f51 	sbceq	r9, ip, r1, asr pc
     92c:	00e00000 	rsceq	r0, r0, r0
     930:	00010000 	andeq	r0, r1, r0
     934:	0000e051 	andeq	lr, r0, r1, asr r0
     938:	0001a800 	andeq	sl, r1, r0, lsl #16
     93c:	56000100 	strpl	r0, [r0], -r0, lsl #2
     940:	000001a8 	andeq	r0, r0, r8, lsr #3
     944:	000001cc 	andeq	r0, r0, ip, asr #3
     948:	01f30004 	mvnseq	r0, r4
     94c:	00009f51 	andeq	r9, r0, r1, asr pc
	...
     958:	000000ec 	andeq	r0, r0, ip, ror #1
     95c:	000001a8 	andeq	r0, r0, r8, lsr #3
     960:	00540001 	subseq	r0, r4, r1
	...
     970:	0000ec00 	andeq	lr, r0, r0, lsl #24
     974:	00010c00 	andeq	r0, r1, r0, lsl #24
     978:	55000100 	strpl	r0, [r0, #-256]	; 0xffffff00
     97c:	0000011c 	andeq	r0, r0, ip, lsl r1
     980:	00000133 	andeq	r0, r0, r3, lsr r1
     984:	33500001 	cmpcc	r0, #1, 0
     988:	a0000001 	andge	r0, r0, r1
     98c:	01000001 	tsteq	r0, r1
     990:	00005500 	andeq	r5, r0, r0, lsl #10
	...
     99c:	00ec0000 	rsceq	r0, ip, r0
     9a0:	01080000 	mrseq	r0, (UNDEF: 8)
     9a4:	00010000 	andeq	r0, r1, r0
     9a8:	00012857 	andeq	r2, r1, r7, asr r8
     9ac:	0001a000 	andeq	sl, r1, r0
     9b0:	57000100 	strpl	r0, [r0, -r0, lsl #2]
	...
     9c0:	000000ec 	andeq	r0, r0, ip, ror #1
     9c4:	00000108 	andeq	r0, r0, r8, lsl #2
     9c8:	2c580001 	mrrccs	0, 0, r0, r8, cr1
     9cc:	a0000001 	andge	r0, r0, r1
     9d0:	01000001 	tsteq	r0, r1
     9d4:	00005800 	andeq	r5, r0, r0, lsl #16
	...
     9e0:	003c0000 	eorseq	r0, ip, r0
     9e4:	00470000 	subeq	r0, r7, r0
     9e8:	00010000 	andeq	r0, r1, r0
     9ec:	00004750 	andeq	r4, r0, r0, asr r7
     9f0:	00006400 	andeq	r6, r0, r0, lsl #8
     9f4:	54000100 	strpl	r0, [r0], #-256	; 0xffffff00
	...
     a00:	00000001 	andeq	r0, r0, r1
     a04:	00000044 	andeq	r0, r0, r4, asr #32
     a08:	00000047 	andeq	r0, r0, r7, asr #32
     a0c:	47500001 	ldrbmi	r0, [r0, -r1]
     a10:	64000000 	strvs	r0, [r0], #-0
     a14:	01000000 	mrseq	r0, (UNDEF: 0)
     a18:	00005400 	andeq	r5, r0, r0, lsl #8
	...
     a30:	00240000 	eoreq	r0, r4, r0
     a34:	00010000 	andeq	r0, r1, r0
     a38:	00002450 	andeq	r2, r0, r0, asr r4
     a3c:	00002800 	andeq	r2, r0, r0, lsl #16
     a40:	f3000400 	vshl.u8	d0, d0, d0
     a44:	289f5001 	ldmcs	pc, {r0, ip, lr}	; <UNPREDICTABLE>
     a48:	2c000000 	stccs	0, cr0, [r0], {-0}
     a4c:	01000000 	mrseq	r0, (UNDEF: 0)
     a50:	002c5000 	eoreq	r5, ip, r0
     a54:	00300000 	eorseq	r0, r0, r0
     a58:	00040000 	andeq	r0, r4, r0
     a5c:	9f5001f3 	svcls	0x005001f3
     a60:	00000030 	andeq	r0, r0, r0, lsr r0
     a64:	00000034 	andeq	r0, r0, r4, lsr r0
     a68:	34500001 	ldrbcc	r0, [r0], #-1
     a6c:	3c000000 	stccc	0, cr0, [r0], {-0}
     a70:	04000000 	streq	r0, [r0], #-0
     a74:	5001f300 	andpl	pc, r1, r0, lsl #6
     a78:	0000009f 	muleq	r0, pc, r0	; <UNPREDICTABLE>
	...
     a8c:	00046800 	andeq	r6, r4, r0, lsl #16
     a90:	00049000 	andeq	r9, r4, r0
     a94:	50000100 	andpl	r0, r0, r0, lsl #2
     a98:	00000490 	muleq	r0, r0, r4
     a9c:	000004bc 			; <UNDEFINED> instruction: 0x000004bc
     aa0:	bc540001 	mrrclt	0, 0, r0, r4, cr1
     aa4:	d4000004 	strle	r0, [r0], #-4
     aa8:	01000004 	tsteq	r0, r4
     aac:	04d45000 	ldrbeq	r5, [r4], #0
     ab0:	04dc0000 	ldrbeq	r0, [ip], #0
     ab4:	00010000 	andeq	r0, r1, r0
     ab8:	0004dc54 	andeq	sp, r4, r4, asr ip
     abc:	0004ec00 	andeq	lr, r4, r0, lsl #24
     ac0:	50000100 	andpl	r0, r0, r0, lsl #2
     ac4:	000004ec 	andeq	r0, r0, ip, ror #9
     ac8:	0000050c 	andeq	r0, r0, ip, lsl #10
     acc:	00540001 	subseq	r0, r4, r1
     ad0:	00000000 	andeq	r0, r0, r0
     ad4:	02000000 	andeq	r0, r0, #0, 0
     ad8:	00048800 	andeq	r8, r4, r0, lsl #16
     adc:	0004bc00 	andeq	fp, r4, r0, lsl #24
     ae0:	40000400 	andmi	r0, r0, r0, lsl #8
     ae4:	009f2440 	addseq	r2, pc, r0, asr #8
	...
     af4:	1c000000 	stcne	0, cr0, [r0], {-0}
     af8:	01000000 	mrseq	r0, (UNDEF: 0)
     afc:	001c5100 	andseq	r5, ip, r0, lsl #2
     b00:	00780000 	rsbseq	r0, r8, r0
     b04:	00040000 	andeq	r0, r4, r0
     b08:	9f5101f3 	svcls	0x005101f3
	...
     b1c:	00000058 	andeq	r0, r0, r8, asr r0
     b20:	58520001 	ldmdapl	r2, {r0}^
     b24:	78000000 	stmdavc	r0, {}	; <UNPREDICTABLE>
     b28:	04000000 	streq	r0, [r0], #-0
     b2c:	5201f300 	andpl	pc, r1, #0, 6
     b30:	0000009f 	muleq	r0, pc, r0	; <UNPREDICTABLE>
     b34:	00000000 	andeq	r0, r0, r0
     b38:	00000200 	andeq	r0, r0, r0, lsl #4
     b3c:	00000101 	andeq	r0, r0, r1, lsl #2
     b40:	00000101 	andeq	r0, r0, r1, lsl #2
     b44:	00000101 	andeq	r0, r0, r1, lsl #2
     b48:	38000000 	stmdacc	r0, {}	; <UNPREDICTABLE>
     b4c:	01000000 	mrseq	r0, (UNDEF: 0)
     b50:	00545000 	subseq	r5, r4, r0
     b54:	00540000 	subseq	r0, r4, r0
     b58:	00010000 	andeq	r0, r1, r0
     b5c:	00005453 	andeq	r5, r0, r3, asr r4
     b60:	00005c00 	andeq	r5, r0, r0, lsl #24
     b64:	73000300 	movwvc	r0, #768	; 0x300
     b68:	005c9f01 	subseq	r9, ip, r1, lsl #30
     b6c:	00640000 	rsbeq	r0, r4, r0
     b70:	00010000 	andeq	r0, r1, r0
     b74:	00006452 	andeq	r6, r0, r2, asr r4
     b78:	00006800 	andeq	r6, r0, r0, lsl #16
     b7c:	73000300 	movwvc	r0, #768	; 0x300
     b80:	00689f02 	rsbeq	r9, r8, r2, lsl #30
     b84:	00740000 	rsbseq	r0, r4, r0
     b88:	00010000 	andeq	r0, r1, r0
     b8c:	00007452 	andeq	r7, r0, r2, asr r4
     b90:	00007800 	andeq	r7, r0, r0, lsl #16
     b94:	72000300 	andvc	r0, r0, #0, 6
     b98:	00009f01 	andeq	r9, r0, r1, lsl #30
	...
     ba4:	00000008 	andeq	r0, r0, r8
     ba8:	00000078 	andeq	r0, r0, r8, ror r0
     bac:	00540001 	subseq	r0, r4, r1
	...
     bbc:	00002c00 	andeq	r2, r0, r0, lsl #24
     bc0:	00003400 	andeq	r3, r0, r0, lsl #8
     bc4:	50000100 	andpl	r0, r0, r0, lsl #2
     bc8:	00000034 	andeq	r0, r0, r4, lsr r0
     bcc:	00000048 	andeq	r0, r0, r8, asr #32
     bd0:	48540001 	ldmdami	r4, {r0}^
     bd4:	58000000 	stmdapl	r0, {}	; <UNPREDICTABLE>
     bd8:	01000000 	mrseq	r0, (UNDEF: 0)
     bdc:	00005000 	andeq	r5, r0, r0
	...
     be8:	00010100 	andeq	r0, r1, r0, lsl #2
     bec:	00000000 	andeq	r0, r0, r0
     bf0:	000c0000 	andeq	r0, ip, r0
     bf4:	00010000 	andeq	r0, r1, r0
     bf8:	00000c50 	andeq	r0, r0, r0, asr ip
     bfc:	00002000 	andeq	r2, r0, r0
     c00:	54000100 	strpl	r0, [r0], #-256	; 0xffffff00
     c04:	00000020 	andeq	r0, r0, r0, lsr #32
     c08:	00000024 	andeq	r0, r0, r4, lsr #32
     c0c:	01740003 	cmneq	r4, r3
     c10:	0000249f 	muleq	r0, pc, r4	; <UNPREDICTABLE>
     c14:	00003800 	andeq	r3, r0, r0, lsl #16
     c18:	54000100 	strpl	r0, [r0], #-256	; 0xffffff00
	...
     c2c:	03880000 	orreq	r0, r8, #0, 0
     c30:	03940000 	orrseq	r0, r4, #0, 0
     c34:	00010000 	andeq	r0, r1, r0
     c38:	00039450 	andeq	r9, r3, r0, asr r4
     c3c:	0003d000 	andeq	sp, r3, r0
     c40:	5b000100 	blpl	1048 <__code_start__-0x6fb8>
     c44:	000003d0 	ldrdeq	r0, [r0], -r0	; <UNPREDICTABLE>
     c48:	00000920 	andeq	r0, r0, r0, lsr #18
     c4c:	01f30004 	mvnseq	r0, r4
     c50:	09209f50 	stmdbeq	r0!, {r4, r6, r8, r9, sl, fp, ip, pc}
     c54:	09280000 	stmdbeq	r8!, {}	; <UNPREDICTABLE>
     c58:	00010000 	andeq	r0, r1, r0
     c5c:	0009285b 	andeq	r2, r9, fp, asr r8
     c60:	0009b400 	andeq	fp, r9, r0, lsl #8
     c64:	f3000400 	vshl.u8	d0, d0, d0
     c68:	009f5001 	addseq	r5, pc, r1
	...
     c78:	88000000 	stmdahi	r0, {}	; <UNPREDICTABLE>
     c7c:	d0000003 	andle	r0, r0, r3
     c80:	01000003 	tsteq	r0, r3
     c84:	03d05100 	bicseq	r5, r0, #0
     c88:	09200000 	stmdbeq	r0!, {}	; <UNPREDICTABLE>
     c8c:	00040000 	andeq	r0, r4, r0
     c90:	9f5101f3 	svcls	0x005101f3
     c94:	00000920 	andeq	r0, r0, r0, lsr #18
     c98:	00000928 	andeq	r0, r0, r8, lsr #18
     c9c:	28510001 	ldmdacs	r1, {r0}^
     ca0:	b4000009 	strlt	r0, [r0], #-9
     ca4:	04000009 	streq	r0, [r0], #-9
     ca8:	5101f300 	mrspl	pc, SP_irq	; <UNPREDICTABLE>
     cac:	0000009f 	muleq	r0, pc, r0	; <UNPREDICTABLE>
	...
     cbc:	01000001 	tsteq	r0, r1
	...
     ccc:	00038800 	andeq	r8, r3, r0, lsl #16
     cd0:	0003d000 	andeq	sp, r3, r0
     cd4:	52000100 	andpl	r0, r0, #0
     cd8:	000003d0 	ldrdeq	r0, [r0], -r0	; <UNPREDICTABLE>
     cdc:	00000400 	andeq	r0, r0, r0, lsl #8
     ce0:	14560001 	ldrbne	r0, [r6], #-1
     ce4:	24000004 	strcs	r0, [r0], #-4
     ce8:	01000004 	tsteq	r0, r4
     cec:	04245600 	strteq	r5, [r4], #-1536	; 0xfffffa00
     cf0:	04280000 	strteq	r0, [r8], #-0
     cf4:	00030000 	andeq	r0, r3, r0
     cf8:	a89f7f76 	ldmge	pc, {r1, r2, r4, r5, r6, r8, r9, sl, fp, ip, sp, lr}	; <UNPREDICTABLE>
     cfc:	ac000004 	stcge	0, cr0, [r0], {4}
     d00:	01000004 	tsteq	r0, r4
     d04:	04e05600 	strbteq	r5, [r0], #1536	; 0x600
     d08:	05040000 	streq	r0, [r4, #-0]
     d0c:	00010000 	andeq	r0, r1, r0
     d10:	00057c56 	andeq	r7, r5, r6, asr ip
     d14:	00058800 	andeq	r8, r5, r0, lsl #16
     d18:	53000100 	movwpl	r0, #256	; 0x100
     d1c:	00000588 	andeq	r0, r0, r8, lsl #11
     d20:	000005d0 	ldrdeq	r0, [r0], -r0	; <UNPREDICTABLE>
     d24:	cc910003 	ldcgt	0, cr0, [r1], {3}
     d28:	0008007d 	andeq	r0, r8, sp, ror r0
     d2c:	00080f00 	andeq	r0, r8, r0, lsl #30
     d30:	53000100 	movwpl	r0, #256	; 0x100
     d34:	0000080f 	andeq	r0, r0, pc, lsl #16
     d38:	00000888 	andeq	r0, r0, r8, lsl #17
     d3c:	cc910003 	ldcgt	0, cr0, [r1], {3}
     d40:	0009207d 	andeq	r2, r9, sp, ror r0
     d44:	00092800 	andeq	r2, r9, r0, lsl #16
     d48:	52000100 	andpl	r0, r0, #0
     d4c:	00000948 	andeq	r0, r0, r8, asr #18
     d50:	00000964 	andeq	r0, r0, r4, ror #18
     d54:	cc910003 	ldcgt	0, cr0, [r1], {3}
     d58:	0000007d 	andeq	r0, r0, sp, ror r0
	...
     d68:	01010000 	mrseq	r0, (UNDEF: 1)
     d6c:	01010000 	mrseq	r0, (UNDEF: 1)
     d70:	00000000 	andeq	r0, r0, r0
     d74:	00000202 	andeq	r0, r0, r2, lsl #4
     d78:	00000202 	andeq	r0, r0, r2, lsl #4
     d7c:	00000101 	andeq	r0, r0, r1, lsl #2
     d80:	00000202 	andeq	r0, r0, r2, lsl #4
     d84:	00000101 	andeq	r0, r0, r1, lsl #2
     d88:	00000000 	andeq	r0, r0, r0
     d8c:	88000000 	stmdahi	r0, {}	; <UNPREDICTABLE>
     d90:	ac000003 	stcge	0, cr0, [r0], {3}
     d94:	01000003 	tsteq	r0, r3
     d98:	03ac5300 			; <UNDEFINED> instruction: 0x03ac5300
     d9c:	03c00000 	biceq	r0, r0, #0, 0
     da0:	00030000 	andeq	r0, r3, r0
     da4:	d0049353 	andle	r9, r4, r3, asr r3
     da8:	e8000003 	stmda	r0, {r0, r1}
     dac:	03000003 	movweq	r0, #3
     db0:	04935800 	ldreq	r5, [r3], #2048	; 0x800
     db4:	000003e8 	andeq	r0, r0, r8, ror #7
     db8:	000004ac 	andeq	r0, r0, ip, lsr #9
     dbc:	93580003 	cmpls	r8, #3, 0
     dc0:	0004c004 	andeq	ip, r4, r4
     dc4:	0004c000 	andeq	ip, r4, r0
     dc8:	58000300 	stmdapl	r0, {r8, r9}
     dcc:	04c00493 	strbeq	r0, [r0], #1171	; 0x493
     dd0:	04cc0000 	strbeq	r0, [ip], #0
     dd4:	00050000 	andeq	r0, r5, r0
     dd8:	939f0478 	orrsls	r0, pc, #120, 8	; 0x78000000
     ddc:	0004cc04 	andeq	ip, r4, r4, lsl #24
     de0:	0004e000 	andeq	lr, r4, r0
     de4:	58000300 	stmdapl	r0, {r8, r9}
     de8:	04e00493 	strbteq	r0, [r0], #1171	; 0x493
     dec:	05380000 	ldreq	r0, [r8, #-0]!
     df0:	00030000 	andeq	r0, r3, r0
     df4:	38049358 	stmdacc	r4, {r3, r4, r6, r8, r9, ip, pc}
     df8:	3c000005 	stccc	0, cr0, [r0], {5}
     dfc:	05000005 	streq	r0, [r0, #-5]
     e00:	9f797800 	svcls	0x00797800
     e04:	05d00493 	ldrbeq	r0, [r0, #1171]	; 0x493
     e08:	05d00000 	ldrbeq	r0, [r0]
     e0c:	00030000 	andeq	r0, r3, r0
     e10:	d0049358 	andle	r9, r4, r8, asr r3
     e14:	d4000005 	strle	r0, [r0], #-5
     e18:	05000005 	streq	r0, [r0, #-5]
     e1c:	9f047800 	svcls	0x00047800
     e20:	05f40493 	ldrbeq	r0, [r4, #1171]!	; 0x493
     e24:	05f40000 	ldrbeq	r0, [r4, #0]!
     e28:	00030000 	andeq	r0, r3, r0
     e2c:	f4049358 	vst2.16	{d9-d12}, [r4 :64], r8
     e30:	fc000005 	stc2	0, cr0, [r0], {5}
     e34:	05000005 	streq	r0, [r0, #-5]
     e38:	9f047800 	svcls	0x00047800
     e3c:	05fc0493 	ldrbeq	r0, [ip, #1171]!	; 0x493
     e40:	05fc0000 	ldrbeq	r0, [ip, #0]!
     e44:	00030000 	andeq	r0, r3, r0
     e48:	fc049358 	stc2	3, cr9, [r4], {88}	; 0x58
     e4c:	00000005 	andeq	r0, r0, r5
     e50:	05000006 	streq	r0, [r0, #-6]
     e54:	9f047800 	svcls	0x00047800
     e58:	06000493 			; <UNDEFINED> instruction: 0x06000493
     e5c:	07000000 	streq	r0, [r0, -r0]
     e60:	00030000 	andeq	r0, r3, r0
     e64:	00049358 	andeq	r9, r4, r8, asr r3
     e68:	0c000007 	stceq	0, cr0, [r0], {7}
     e6c:	05000007 	streq	r0, [r0, #-7]
     e70:	9f047800 	svcls	0x00047800
     e74:	070c0493 			; <UNDEFINED> instruction: 0x070c0493
     e78:	07f80000 	ldrbeq	r0, [r8, r0]!
     e7c:	00030000 	andeq	r0, r3, r0
     e80:	f8049358 			; <UNDEFINED> instruction: 0xf8049358
     e84:	fc000007 	stc2	0, cr0, [r0], {7}
     e88:	05000007 	streq	r0, [r0, #-7]
     e8c:	9f047800 	svcls	0x00047800
     e90:	07fc0493 			; <UNDEFINED> instruction: 0x07fc0493
     e94:	08000000 	stmdaeq	r0, {}	; <UNPREDICTABLE>
     e98:	00030000 	andeq	r0, r3, r0
     e9c:	88049358 	stmdahi	r4, {r3, r4, r6, r8, r9, ip, pc}
     ea0:	20000008 	andcs	r0, r0, r8
     ea4:	03000009 	movweq	r0, #9
     ea8:	04935800 	ldreq	r5, [r3], #2048	; 0x800
     eac:	00000920 	andeq	r0, r0, r0, lsr #18
     eb0:	00000928 	andeq	r0, r0, r8, lsr #18
     eb4:	64530001 	ldrbvs	r0, [r3], #-1
     eb8:	b4000009 	strlt	r0, [r0], #-9
     ebc:	03000009 	movweq	r0, #9
     ec0:	04935800 	ldreq	r5, [r3], #2048	; 0x800
	...
     ecc:	00000001 	andeq	r0, r0, r1
     ed0:	00000000 	andeq	r0, r0, r0
     ed4:	00020200 	andeq	r0, r2, r0, lsl #4
     ed8:	01010000 	mrseq	r0, (UNDEF: 1)
     edc:	00000001 	andeq	r0, r0, r1
     ee0:	03ac0000 			; <UNDEFINED> instruction: 0x03ac0000
     ee4:	03d00000 	bicseq	r0, r0, #0, 0
     ee8:	00010000 	andeq	r0, r1, r0
     eec:	0003d05b 	andeq	sp, r3, fp, asr r0
     ef0:	0003d400 	andeq	sp, r3, r0, lsl #8
     ef4:	54000100 	strpl	r0, [r0], #-256	; 0xffffff00
     ef8:	000003d4 	ldrdeq	r0, [r0], -r4
     efc:	000003d8 	ldrdeq	r0, [r0], -r8
     f00:	7f740003 	svcvc	0x00740003
     f04:	0003d89f 	muleq	r3, pc, r8	; <UNPREDICTABLE>
     f08:	0003fc00 	andeq	pc, r3, r0, lsl #24
     f0c:	54000100 	strpl	r0, [r0], #-256	; 0xffffff00
     f10:	000004a8 	andeq	r0, r0, r8, lsr #9
     f14:	000004ac 	andeq	r0, r0, ip, lsr #9
     f18:	ac540001 	mrrcge	0, 0, r0, r4, cr1
     f1c:	b4000004 	strlt	r0, [r0], #-4
     f20:	03000004 	movweq	r0, #4
     f24:	9f017400 	svcls	0x00017400
     f28:	000004b4 			; <UNDEFINED> instruction: 0x000004b4
     f2c:	000004c0 	andeq	r0, r0, r0, asr #9
     f30:	e4540001 	ldrb	r0, [r4], #-1
     f34:	f4000004 	vst4.8	{d0-d3}, [r0], r4
     f38:	01000004 	tsteq	r0, r4
     f3c:	04f45400 	ldrbteq	r5, [r4], #1024	; 0x400
     f40:	04f80000 	ldrbteq	r0, [r8], #0
     f44:	00030000 	andeq	r0, r3, r0
     f48:	f89f0174 			; <UNDEFINED> instruction: 0xf89f0174
     f4c:	04000004 	streq	r0, [r0], #-4
     f50:	01000005 	tsteq	r0, r5
     f54:	09205400 	stmdbeq	r0!, {sl, ip, lr}
     f58:	09280000 	stmdbeq	r8!, {}	; <UNPREDICTABLE>
     f5c:	00010000 	andeq	r0, r1, r0
     f60:	0000005b 	andeq	r0, r0, fp, asr r0
     f64:	00000000 	andeq	r0, r0, r0
     f68:	ac000100 	stfges	f0, [r0], {-0}
     f6c:	b4000003 	strlt	r0, [r0], #-3
     f70:	01000009 	tsteq	r0, r9
     f74:	00005700 	andeq	r5, r0, r0, lsl #14
     f78:	00000000 	andeq	r0, r0, r0
     f7c:	00020000 	andeq	r0, r2, r0
     f80:	00000000 	andeq	r0, r0, r0
     f84:	0000057c 	andeq	r0, r0, ip, ror r5
     f88:	000005d0 	ldrdeq	r0, [r0], -r0	; <UNPREDICTABLE>
     f8c:	005b0001 	subseq	r0, fp, r1
     f90:	88000008 	stmdahi	r0, {r3}
     f94:	01000008 	tsteq	r0, r8
     f98:	09485b00 	stmdbeq	r8, {r8, r9, fp, ip, lr}^
     f9c:	09640000 	stmdbeq	r4!, {}^	; <UNPREDICTABLE>
     fa0:	00010000 	andeq	r0, r1, r0
     fa4:	0000005b 	andeq	r0, r0, fp, asr r0
     fa8:	00000000 	andeq	r0, r0, r0
     fac:	00000300 	andeq	r0, r0, r0, lsl #6
     fb0:	7c000000 	stcvc	0, cr0, [r0], {-0}
     fb4:	d0000005 	andle	r0, r0, r5
     fb8:	01000005 	tsteq	r0, r5
     fbc:	08005900 	stmdaeq	r0, {r8, fp, ip, lr}
     fc0:	08880000 	stmeq	r8, {}	; <UNPREDICTABLE>
     fc4:	00010000 	andeq	r0, r1, r0
     fc8:	00094859 	andeq	r4, r9, r9, asr r8
     fcc:	00096400 	andeq	r6, r9, r0, lsl #8
     fd0:	59000100 	stmdbpl	r0, {r8}
	...
     fdc:	00000004 	andeq	r0, r0, r4
     fe0:	00000000 	andeq	r0, r0, r0
     fe4:	000003ac 	andeq	r0, r0, ip, lsr #7
     fe8:	000003d0 	ldrdeq	r0, [r0], -r0	; <UNPREDICTABLE>
     fec:	d0520001 	subsle	r0, r2, r1
     ff0:	20000003 	andcs	r0, r0, r3
     ff4:	04000009 	streq	r0, [r0], #-9
     ff8:	5201f300 	andpl	pc, r1, #0, 6
     ffc:	0009209f 	muleq	r9, pc, r0	; <UNPREDICTABLE>
    1000:	00092800 	andeq	r2, r9, r0, lsl #16
    1004:	52000100 	andpl	r0, r0, #0
    1008:	00000928 	andeq	r0, r0, r8, lsr #18
    100c:	000009b4 			; <UNDEFINED> instruction: 0x000009b4
    1010:	01f30004 	mvnseq	r0, r4
    1014:	00009f52 	andeq	r9, r0, r2, asr pc
    1018:	00000000 	andeq	r0, r0, r0
    101c:	01000000 	mrseq	r0, (UNDEF: 0)
    1020:	00000001 	andeq	r0, r0, r1
    1024:	00010000 	andeq	r0, r1, r0
    1028:	04e00000 	strbteq	r0, [r0], #0
    102c:	04e00000 	strbteq	r0, [r0], #0
    1030:	00010000 	andeq	r0, r1, r0
    1034:	0004e050 	andeq	lr, r4, r0, asr r0
    1038:	0004e800 	andeq	lr, r4, r0, lsl #16
    103c:	55000100 	strpl	r0, [r0, #-256]	; 0xffffff00
    1040:	000005b8 			; <UNDEFINED> instruction: 0x000005b8
    1044:	000005d0 	ldrdeq	r0, [r0], -r0	; <UNPREDICTABLE>
    1048:	f0550001 			; <UNDEFINED> instruction: 0xf0550001
    104c:	f4000005 	vst4.8	{d0-d3}, [r0], r5
    1050:	01000005 	tsteq	r0, r5
    1054:	07f45000 	ldrbeq	r5, [r4, r0]!
    1058:	07f80000 	ldrbeq	r0, [r8, r0]!
    105c:	00010000 	andeq	r0, r1, r0
    1060:	00085055 	andeq	r5, r8, r5, asr r0
    1064:	00088800 	andeq	r8, r8, r0, lsl #16
    1068:	55000100 	strpl	r0, [r0, #-256]	; 0xffffff00
	...
    1074:	00000002 	andeq	r0, r0, r2
    1078:	00000000 	andeq	r0, r0, r0
    107c:	00000414 	andeq	r0, r0, r4, lsl r4
    1080:	00000418 	andeq	r0, r0, r8, lsl r4
    1084:	9f300002 	svcls	0x00300002
    1088:	00000418 	andeq	r0, r0, r8, lsl r4
    108c:	0000041c 	andeq	r0, r0, ip, lsl r4
    1090:	28550001 	ldmdacs	r5, {r0}^
    1094:	3c000004 	stccc	0, cr0, [r0], {4}
    1098:	01000004 	tsteq	r0, r4
    109c:	09285500 	stmdbeq	r8!, {r8, sl, ip, lr}
    10a0:	09300000 	ldmdbeq	r0!, {}	; <UNPREDICTABLE>
    10a4:	00010000 	andeq	r0, r1, r0
    10a8:	00000055 	andeq	r0, r0, r5, asr r0
    10ac:	00000000 	andeq	r0, r0, r0
    10b0:	00000100 	andeq	r0, r0, r0, lsl #2
	...
    10bc:	00050400 	andeq	r0, r5, r0, lsl #8
    10c0:	00058400 	andeq	r8, r5, r0, lsl #8
    10c4:	56000100 	strpl	r0, [r0], -r0, lsl #2
    10c8:	00000584 	andeq	r0, r0, r4, lsl #11
    10cc:	00000588 	andeq	r0, r0, r8, lsl #11
    10d0:	7e730003 	cdpvc	0, 7, cr0, cr3, cr3, {0}
    10d4:	0005889f 	muleq	r5, pc, r8	; <UNPREDICTABLE>
    10d8:	0005d000 	andeq	sp, r5, r0
    10dc:	91000700 	tstls	r0, r0, lsl #14
    10e0:	32067dcc 	andcc	r7, r6, #204, 26	; 0x3300
    10e4:	08009f1c 	stmdaeq	r0, {r2, r3, r4, r8, r9, sl, fp, ip, pc}
    10e8:	081c0000 	ldmdaeq	ip, {}	; <UNPREDICTABLE>
    10ec:	00010000 	andeq	r0, r1, r0
    10f0:	00081c56 	andeq	r1, r8, r6, asr ip
    10f4:	00088800 	andeq	r8, r8, r0, lsl #16
    10f8:	91000700 	tstls	r0, r0, lsl #14
    10fc:	32067dcc 	andcc	r7, r6, #204, 26	; 0x3300
    1100:	09489f1c 	stmdbeq	r8, {r2, r3, r4, r8, r9, sl, fp, ip, pc}^
    1104:	09b40000 	ldmibeq	r4!, {}	; <UNPREDICTABLE>
    1108:	00010000 	andeq	r0, r1, r0
    110c:	00000056 	andeq	r0, r0, r6, asr r0
    1110:	00000000 	andeq	r0, r0, r0
    1114:	02060400 	andeq	r0, r6, #0, 8
    1118:	00041404 	andeq	r1, r4, r4, lsl #8
    111c:	00041400 	andeq	r1, r4, r0, lsl #8
    1120:	72000600 	andvc	r0, r0, #0, 12
    1124:	1aff0800 	bne	fffc312c <__bss_end__+0xfffb837c>
    1128:	0004289f 	muleq	r4, pc, r8	; <UNPREDICTABLE>
    112c:	00042800 	andeq	r2, r4, r0, lsl #16
    1130:	72000600 	andvc	r0, r0, #0, 12
    1134:	1aff0800 	bne	fffc313c <__bss_end__+0xfffb838c>
    1138:	0000009f 	muleq	r0, pc, r0	; <UNPREDICTABLE>
    113c:	00000000 	andeq	r0, r0, r0
    1140:	00000200 	andeq	r0, r0, r0, lsl #4
    1144:	fc000000 	stc2	0, cr0, [r0], {-0}
    1148:	00000005 	andeq	r0, r0, r5
    114c:	03000007 	movweq	r0, #7
    1150:	9f800800 	svcls	0x00800800
    1154:	000008a8 	andeq	r0, r0, r8, lsr #17
    1158:	000008bc 			; <UNDEFINED> instruction: 0x000008bc
    115c:	80080003 	andhi	r0, r8, r3
    1160:	0009109f 	muleq	r9, pc, r0	; <UNPREDICTABLE>
    1164:	00092000 	andeq	r2, r9, r0
    1168:	08000300 	stmdaeq	r0, {r8, r9}
    116c:	00009f80 	andeq	r9, r0, r0, lsl #31
    1170:	00000000 	andeq	r0, r0, r0
    1174:	00010000 	andeq	r0, r1, r0
    1178:	00000000 	andeq	r0, r0, r0
    117c:	000005fc 	strdeq	r0, [r0], -ip
    1180:	00000700 	andeq	r0, r0, r0, lsl #14
    1184:	9f300002 	svcls	0x00300002
    1188:	000008a8 	andeq	r0, r0, r8, lsr #17
    118c:	000008bc 			; <UNDEFINED> instruction: 0x000008bc
    1190:	9f300002 	svcls	0x00300002
    1194:	00000910 	andeq	r0, r0, r0, lsl r9
    1198:	00000920 	andeq	r0, r0, r0, lsr #18
    119c:	9f300002 	svcls	0x00300002
	...
    11a8:	00000001 	andeq	r0, r0, r1
    11ac:	05fc0000 	ldrbeq	r0, [ip, #0]!
    11b0:	06e00000 	strbteq	r0, [r0], r0
    11b4:	00010000 	andeq	r0, r1, r0
    11b8:	0008a855 	andeq	sl, r8, r5, asr r8
    11bc:	0008bc00 	andeq	fp, r8, r0, lsl #24
    11c0:	55000100 	strpl	r0, [r0, #-256]	; 0xffffff00
    11c4:	00000910 	andeq	r0, r0, r0, lsl r9
    11c8:	00000920 	andeq	r0, r0, r0, lsr #18
    11cc:	00550001 	subseq	r0, r5, r1
    11d0:	00000000 	andeq	r0, r0, r0
    11d4:	01000000 	mrseq	r0, (UNDEF: 0)
    11d8:	00000000 	andeq	r0, r0, r0
    11dc:	fc000000 	stc2	0, cr0, [r0], {-0}
    11e0:	e0000005 	and	r0, r0, r5
    11e4:	04000006 	streq	r0, [r0], #-6
    11e8:	7dd09100 	ldfvcp	f1, [r0]
    11ec:	0006e09f 	muleq	r6, pc, r0	; <UNPREDICTABLE>
    11f0:	00070000 	andeq	r0, r7, r0
    11f4:	55000100 	strpl	r0, [r0, #-256]	; 0xffffff00
    11f8:	000008a8 	andeq	r0, r0, r8, lsr #17
    11fc:	000008bc 			; <UNDEFINED> instruction: 0x000008bc
    1200:	d0910004 	addsle	r0, r1, r4
    1204:	09109f7d 	ldmdbeq	r0, {r0, r2, r3, r4, r5, r6, r8, r9, sl, fp, ip, pc}
    1208:	09200000 	stmdbeq	r0!, {}	; <UNPREDICTABLE>
    120c:	00040000 	andeq	r0, r4, r0
    1210:	9f7dd091 	svcls	0x007dd091
	...
    121c:	00000001 	andeq	r0, r0, r1
    1220:	05fc0000 	ldrbeq	r0, [ip, #0]!
    1224:	07000000 	streq	r0, [r0, -r0]
    1228:	00020000 	andeq	r0, r2, r0
    122c:	08a89f38 	stmiaeq	r8!, {r3, r4, r5, r8, r9, sl, fp, ip, pc}
    1230:	08bc0000 	ldmeq	ip!, {}	; <UNPREDICTABLE>
    1234:	00020000 	andeq	r0, r2, r0
    1238:	09109f38 	ldmdbeq	r0, {r3, r4, r5, r8, r9, sl, fp, ip, pc}
    123c:	09200000 	stmdbeq	r0!, {}	; <UNPREDICTABLE>
    1240:	00020000 	andeq	r0, r2, r0
    1244:	00009f38 	andeq	r9, r0, r8, lsr pc
    1248:	00000000 	andeq	r0, r0, r0
    124c:	07040000 	streq	r0, [r4, -r0]
    1250:	00000007 	andeq	r0, r0, r7
	...
    125c:	000005fc 	strdeq	r0, [r0], -ip
    1260:	000005fc 	strdeq	r0, [r0], -ip
    1264:	d0910004 	addsle	r0, r1, r4
    1268:	05fc9f7e 	ldrbeq	r9, [ip, #3966]!	; 0xf7e
    126c:	06780000 	ldrbteq	r0, [r8], -r0
    1270:	00040000 	andeq	r0, r4, r0
    1274:	9f7ed191 	svcls	0x007ed191
    1278:	00000678 	andeq	r0, r0, r8, ror r6
    127c:	000006d4 	ldrdeq	r0, [r0], -r4
    1280:	d45c0001 	ldrble	r0, [ip], #-1
    1284:	00000006 	andeq	r0, r0, r6
    1288:	04000007 	streq	r0, [r0], #-7
    128c:	7ed19100 	atnvcs	f1, f0
    1290:	0008a89f 	muleq	r8, pc, r8	; <UNPREDICTABLE>
    1294:	0008bc00 	andeq	fp, r8, r0, lsl #24
    1298:	91000400 	tstls	r0, r0, lsl #8
    129c:	109f7ed1 			; <UNDEFINED> instruction: 0x109f7ed1
    12a0:	14000009 	strne	r0, [r0], #-9
    12a4:	04000009 	streq	r0, [r0], #-9
    12a8:	7ed19100 	atnvcs	f1, f0
    12ac:	0009149f 	muleq	r9, pc, r4	; <UNPREDICTABLE>
    12b0:	00092000 	andeq	r2, r9, r0
    12b4:	5c000100 	stfpls	f0, [r0], {-0}
	...
    12c0:	01000104 	tsteq	r0, r4, lsl #2
    12c4:	06080000 	streq	r0, [r8], -r0
    12c8:	06d00000 	ldrbeq	r0, [r0], r0
    12cc:	00010000 	andeq	r0, r1, r0
    12d0:	0008a855 	andeq	sl, r8, r5, asr r8
    12d4:	0008b800 	andeq	fp, r8, r0, lsl #16
    12d8:	55000100 	strpl	r0, [r0, #-256]	; 0xffffff00
    12dc:	00000910 	andeq	r0, r0, r0, lsl r9
    12e0:	00000920 	andeq	r0, r0, r0, lsr #18
    12e4:	00550001 	subseq	r0, r5, r1
    12e8:	00000000 	andeq	r0, r0, r0
    12ec:	04000000 	streq	r0, [r0], #-0
    12f0:	00000000 	andeq	r0, r0, r0
    12f4:	00000001 	andeq	r0, r0, r1
    12f8:	08000001 	stmdaeq	r0, {r0}
    12fc:	b0000006 	andlt	r0, r0, r6
    1300:	04000006 	streq	r0, [r0], #-6
    1304:	7ed09100 	atnvcs	f1, f0
    1308:	0006b09f 	muleq	r6, pc, r0	; <UNPREDICTABLE>
    130c:	0006c800 	andeq	ip, r6, r0, lsl #16
    1310:	50000100 	andpl	r0, r0, r0, lsl #2
    1314:	000006c8 	andeq	r0, r0, r8, asr #13
    1318:	000006d0 	ldrdeq	r0, [r0], -r0	; <UNPREDICTABLE>
    131c:	d0910004 	addsle	r0, r1, r4
    1320:	08a89f7e 	stmiaeq	r8!, {r1, r2, r3, r4, r5, r6, r8, r9, sl, fp, ip, pc}
    1324:	08b00000 	ldmeq	r0!, {}	; <UNPREDICTABLE>
    1328:	00040000 	andeq	r0, r4, r0
    132c:	9f7ed091 	svcls	0x007ed091
    1330:	000008b0 			; <UNDEFINED> instruction: 0x000008b0
    1334:	000008b8 			; <UNDEFINED> instruction: 0x000008b8
    1338:	10530001 	subsne	r0, r3, r1
    133c:	20000009 	andcs	r0, r0, r9
    1340:	04000009 	streq	r0, [r0], #-9
    1344:	7ed09100 	atnvcs	f1, f0
    1348:	0000009f 	muleq	r0, pc, r0	; <UNPREDICTABLE>
    134c:	00000000 	andeq	r0, r0, r0
    1350:	00000400 	andeq	r0, r0, r0, lsl #8
    1354:	01010101 	tsteq	r1, r1, lsl #2
    1358:	00020303 	andeq	r0, r2, r3, lsl #6
    135c:	00000001 	andeq	r0, r0, r1
    1360:	00060800 	andeq	r0, r6, r0, lsl #16
    1364:	00062400 	andeq	r2, r6, r0, lsl #8
    1368:	91000400 	tstls	r0, r0, lsl #8
    136c:	849f7ed1 	ldrhi	r7, [pc], #3793	; 1374 <__code_start__-0x6c8c>
    1370:	84000006 	strhi	r0, [r0], #-6
    1374:	01000006 	tsteq	r0, r6
    1378:	06845000 	streq	r5, [r4], r0
    137c:	06980000 	ldreq	r0, [r8], r0
    1380:	00030000 	andeq	r0, r3, r0
    1384:	989f0170 	ldmls	pc, {r4, r5, r6, r8}	; <UNPREDICTABLE>
    1388:	a4000006 	strge	r0, [r0], #-6
    138c:	03000006 	movweq	r0, #6
    1390:	9f027000 	svcls	0x00027000
    1394:	000006a4 	andeq	r0, r0, r4, lsr #13
    1398:	000006a8 	andeq	r0, r0, r8, lsr #13
    139c:	03700003 	cmneq	r0, #3, 0
    13a0:	0008a89f 	muleq	r8, pc, r8	; <UNPREDICTABLE>
    13a4:	0008b800 	andeq	fp, r8, r0, lsl #16
    13a8:	91000400 	tstls	r0, r0, lsl #8
    13ac:	109f7ed1 			; <UNDEFINED> instruction: 0x109f7ed1
    13b0:	14000009 	strne	r0, [r0], #-9
    13b4:	04000009 	streq	r0, [r0], #-9
    13b8:	7ed19100 	atnvcs	f1, f0
    13bc:	0009149f 	muleq	r9, pc, r4	; <UNPREDICTABLE>
    13c0:	00092000 	andeq	r2, r9, r0
    13c4:	5c000100 	stfpls	f0, [r0], {-0}
	...
    13d0:	01000006 	tsteq	r0, r6
    13d4:	01010101 	tsteq	r1, r1, lsl #2
    13d8:	01000201 	tsteq	r0, r1, lsl #4
    13dc:	06080000 	streq	r0, [r8], -r0
    13e0:	06240000 	strteq	r0, [r4], -r0
    13e4:	00020000 	andeq	r0, r2, r0
    13e8:	06849f31 			; <UNDEFINED> instruction: 0x06849f31
    13ec:	06940000 	ldreq	r0, [r4], r0
    13f0:	00010000 	andeq	r0, r1, r0
    13f4:	00069452 	andeq	r9, r6, r2, asr r4
    13f8:	0006a400 	andeq	sl, r6, r0, lsl #8
    13fc:	59000100 	stmdbpl	r0, {r8}
    1400:	000006a4 	andeq	r0, r0, r4, lsr #13
    1404:	000006a8 	andeq	r0, r0, r8, lsr #13
    1408:	a8520001 	ldmdage	r2, {r0}^
    140c:	a8000006 	stmdage	r0, {r1, r2}
    1410:	03000006 	movweq	r0, #6
    1414:	9f017200 	svcls	0x00017200
    1418:	000008a8 	andeq	r0, r0, r8, lsr #17
    141c:	000008b8 			; <UNDEFINED> instruction: 0x000008b8
    1420:	9f310002 	svcls	0x00310002
    1424:	00000910 	andeq	r0, r0, r0, lsl r9
    1428:	00000920 	andeq	r0, r0, r0, lsr #18
    142c:	9f310002 	svcls	0x00310002
	...
    1438:	00060601 	andeq	r0, r6, r1, lsl #12
    143c:	06d00001 	ldrbeq	r0, [r0], r1
    1440:	06d00000 	ldrbeq	r0, [r0], r0
    1444:	00040000 	andeq	r0, r4, r0
    1448:	9f7ed091 	svcls	0x007ed091
    144c:	000006d0 	ldrdeq	r0, [r0], -r0	; <UNPREDICTABLE>
    1450:	00000700 	andeq	r0, r0, r0, lsl #14
    1454:	b8500001 	ldmdalt	r0, {r0}^
    1458:	bc000008 	stclt	0, cr0, [r0], {8}
    145c:	01000008 	tsteq	r0, r8
    1460:	00005300 	andeq	r5, r0, r0, lsl #6
    1464:	00000000 	andeq	r0, r0, r0
    1468:	08010000 	stmdaeq	r1, {}	; <UNPREDICTABLE>
    146c:	01000000 	mrseq	r0, (UNDEF: 0)
    1470:	07010001 	streq	r0, [r1, -r1]
    1474:	000006d0 	ldrdeq	r0, [r0], -r0	; <UNPREDICTABLE>
    1478:	000006d0 	ldrdeq	r0, [r0], -r0	; <UNPREDICTABLE>
    147c:	007c0006 	rsbseq	r0, ip, r6
    1480:	9f220071 	svcls	0x00220071
    1484:	000006e4 	andeq	r0, r0, r4, ror #13
    1488:	000006e8 	andeq	r0, r0, r8, ror #13
    148c:	7f730003 	svcvc	0x00730003
    1490:	0006e89f 	muleq	r6, pc, r8	; <UNPREDICTABLE>
    1494:	0006f000 	andeq	pc, r6, r0
    1498:	53000100 	movwpl	r0, #256	; 0x100
    149c:	000006f0 	strdeq	r0, [r0], -r0	; <UNPREDICTABLE>
    14a0:	000006f8 	strdeq	r0, [r0], -r8
    14a4:	7f730003 	svcvc	0x00730003
    14a8:	0008b89f 	muleq	r8, pc, r8	; <UNPREDICTABLE>
    14ac:	0008b800 	andeq	fp, r8, r0, lsl #16
    14b0:	91000400 	tstls	r0, r0, lsl #8
    14b4:	009f7ed1 			; <UNDEFINED> instruction: 0x009f7ed1
    14b8:	00000000 	andeq	r0, r0, r0
    14bc:	01000000 	mrseq	r0, (UNDEF: 0)
    14c0:	d0000100 	andle	r0, r0, r0, lsl #2
    14c4:	00000006 	andeq	r0, r0, r6
    14c8:	03000007 	movweq	r0, #7
    14cc:	9f800800 	svcls	0x00800800
    14d0:	000008b8 			; <UNDEFINED> instruction: 0x000008b8
    14d4:	000008bc 			; <UNDEFINED> instruction: 0x000008bc
    14d8:	80080003 	andhi	r0, r8, r3
    14dc:	0000009f 	muleq	r0, pc, r0	; <UNPREDICTABLE>
    14e0:	00000000 	andeq	r0, r0, r0
    14e4:	00000100 	andeq	r0, r0, r0, lsl #2
    14e8:	01010000 	mrseq	r0, (UNDEF: 1)
    14ec:	02000000 	andeq	r0, r0, #0, 0
    14f0:	d0000101 	andle	r0, r0, r1, lsl #2
    14f4:	e0000006 	and	r0, r0, r6
    14f8:	04000006 	streq	r0, [r0], #-6
    14fc:	7dd09100 	ldfvcp	f1, [r0]
    1500:	0006e09f 	muleq	r6, pc, r0	; <UNPREDICTABLE>
    1504:	0006e400 	andeq	lr, r6, r0, lsl #8
    1508:	55000100 	strpl	r0, [r0, #-256]	; 0xffffff00
    150c:	000006e4 	andeq	r0, r0, r4, ror #13
    1510:	000006e4 	andeq	r0, r0, r4, ror #13
    1514:	01720003 	cmneq	r2, r3
    1518:	0006e49f 	muleq	r6, pc, r4	; <UNPREDICTABLE>
    151c:	0006f000 	andeq	pc, r6, r0
    1520:	72000300 	andvc	r0, r0, #0, 6
    1524:	06f09f02 	ldrbteq	r9, [r0], r2, lsl #30
    1528:	07000000 	streq	r0, [r0, -r0]
    152c:	00030000 	andeq	r0, r3, r0
    1530:	ec9f0172 	ldfs	f0, [pc], {114}	; 0x72
    1534:	f4000007 	vst4.8	{d0-d3}, [r0], r7
    1538:	03000007 	movweq	r0, #7
    153c:	9f017300 	svcls	0x00017300
    1540:	000008b8 			; <UNDEFINED> instruction: 0x000008b8
    1544:	000008bc 			; <UNDEFINED> instruction: 0x000008bc
    1548:	d0910004 	addsle	r0, r1, r4
    154c:	00009f7d 	andeq	r9, r0, sp, ror pc
    1550:	00000000 	andeq	r0, r0, r0
    1554:	00040000 	andeq	r0, r4, r0
    1558:	000008b8 			; <UNDEFINED> instruction: 0x000008b8
    155c:	000008bc 			; <UNDEFINED> instruction: 0x000008bc
    1560:	9f320002 	svcls	0x00320002
	...
    156c:	00000007 	andeq	r0, r0, r7
    1570:	06d00006 	ldrbeq	r0, [r0], r6
    1574:	06e00000 	strbteq	r0, [r0], r0
    1578:	00040000 	andeq	r0, r4, r0
    157c:	9f7dd091 	svcls	0x007dd091
    1580:	000006e0 	andeq	r0, r0, r0, ror #13
    1584:	00000700 	andeq	r0, r0, r0, lsl #14
    1588:	b8550001 	ldmdalt	r5, {r0}^
    158c:	bc000008 	stclt	0, cr0, [r0], {8}
    1590:	04000008 	streq	r0, [r0], #-8
    1594:	7dd09100 	ldfvcp	f1, [r0]
    1598:	0000009f 	muleq	r0, pc, r0	; <UNPREDICTABLE>
    159c:	00000000 	andeq	r0, r0, r0
    15a0:	00000100 	andeq	r0, r0, r0, lsl #2
    15a4:	00070c00 	andeq	r0, r7, r0, lsl #24
    15a8:	0007ec00 	andeq	lr, r7, r0, lsl #24
    15ac:	08000300 	stmdaeq	r0, {r8, r9}
    15b0:	08949f80 	ldmeq	r4, {r7, r8, r9, sl, fp, ip, pc}
    15b4:	08a80000 	stmiaeq	r8!, {}	; <UNPREDICTABLE>
    15b8:	00030000 	andeq	r0, r3, r0
    15bc:	009f8008 	addseq	r8, pc, r8
	...
    15c8:	0c000000 	stceq	0, cr0, [r0], {-0}
    15cc:	ec000007 	stc	0, cr0, [r0], {7}
    15d0:	02000007 	andeq	r0, r0, #7, 0
    15d4:	949f3000 	ldrls	r3, [pc], #0	; 15dc <__code_start__-0x6a24>
    15d8:	a8000008 	stmdage	r0, {r3}
    15dc:	02000008 	andeq	r0, r0, #8, 0
    15e0:	009f3000 	addseq	r3, pc, r0
	...
    15ec:	0c000000 	stceq	0, cr0, [r0], {-0}
    15f0:	d0000007 	andle	r0, r0, r7
    15f4:	01000007 	tsteq	r0, r7
    15f8:	08945500 	ldmeq	r4, {r8, sl, ip, lr}
    15fc:	08a80000 	stmiaeq	r8!, {}	; <UNPREDICTABLE>
    1600:	00010000 	andeq	r0, r1, r0
    1604:	00000055 	andeq	r0, r0, r5, asr r0
	...
    1610:	0c000000 	stceq	0, cr0, [r0], {-0}
    1614:	d0000007 	andle	r0, r0, r7
    1618:	04000007 	streq	r0, [r0], #-7
    161c:	7dd09100 	ldfvcp	f1, [r0]
    1620:	0007d09f 	muleq	r7, pc, r0	; <UNPREDICTABLE>
    1624:	0007ec00 	andeq	lr, r7, r0, lsl #24
    1628:	55000100 	strpl	r0, [r0, #-256]	; 0xffffff00
    162c:	00000894 	muleq	r0, r4, r8
    1630:	000008a8 	andeq	r0, r0, r8, lsr #17
    1634:	d0910004 	addsle	r0, r1, r4
    1638:	00009f7d 	andeq	r9, r0, sp, ror pc
	...
    1644:	070c0000 	streq	r0, [ip, -r0]
    1648:	07ec0000 	strbeq	r0, [ip, r0]!
    164c:	00020000 	andeq	r0, r2, r0
    1650:	08949f32 	ldmeq	r4, {r1, r4, r5, r8, r9, sl, fp, ip, pc}
    1654:	08a80000 	stmiaeq	r8!, {}	; <UNPREDICTABLE>
    1658:	00020000 	andeq	r0, r2, r0
    165c:	00009f32 	andeq	r9, r0, r2, lsr pc
    1660:	00000000 	andeq	r0, r0, r0
    1664:	05030000 	streq	r0, [r3, #-0]
    1668:	00000005 	andeq	r0, r0, r5
    166c:	00000000 	andeq	r0, r0, r0
    1670:	0000070c 	andeq	r0, r0, ip, lsl #14
    1674:	0000070c 	andeq	r0, r0, ip, lsl #14
    1678:	0c510001 	mrrceq	0, 0, r0, r1, cr1
    167c:	1c000007 	stcne	0, cr0, [r0], {7}
    1680:	01000007 	tsteq	r0, r7
    1684:	071c5300 	ldreq	r5, [ip, -r0, lsl #6]
    1688:	07240000 	streq	r0, [r4, -r0]!
    168c:	00030000 	andeq	r0, r3, r0
    1690:	249f0172 	ldrcs	r0, [pc], #370	; 1698 <__code_start__-0x6968>
    1694:	cc000007 	stcgt	0, cr0, [r0], {7}
    1698:	01000007 	tsteq	r0, r7
    169c:	08945300 	ldmeq	r4, {r8, r9, ip, lr}
    16a0:	08a80000 	stmiaeq	r8!, {}	; <UNPREDICTABLE>
    16a4:	00010000 	andeq	r0, r1, r0
    16a8:	00000053 	andeq	r0, r0, r3, asr r0
    16ac:	00000000 	andeq	r0, r0, r0
    16b0:	01000500 	tsteq	r0, r0, lsl #10
    16b4:	00070c00 	andeq	r0, r7, r0, lsl #24
    16b8:	00072000 	andeq	r2, r7, r0
    16bc:	50000100 	andpl	r0, r0, r0, lsl #2
    16c0:	00000724 	andeq	r0, r0, r4, lsr #14
    16c4:	0000072c 	andeq	r0, r0, ip, lsr #14
    16c8:	00500001 	subseq	r0, r0, r1
    16cc:	00000000 	andeq	r0, r0, r0
    16d0:	03000000 	movweq	r0, #0
    16d4:	28010001 	stmdacs	r1, {r0}
    16d8:	b0000007 	andlt	r0, r0, r7
    16dc:	01000007 	tsteq	r0, r7
    16e0:	08945500 	ldmeq	r4, {r8, sl, ip, lr}
    16e4:	08a00000 	stmiaeq	r0!, {}	; <UNPREDICTABLE>
    16e8:	00010000 	andeq	r0, r1, r0
    16ec:	00000055 	andeq	r0, r0, r5, asr r0
    16f0:	00000000 	andeq	r0, r0, r0
    16f4:	00010300 	andeq	r0, r1, r0, lsl #6
    16f8:	00072801 	andeq	r2, r7, r1, lsl #16
    16fc:	0007b000 	andeq	fp, r7, r0
    1700:	51000100 	mrspl	r0, (UNDEF: 16)
    1704:	00000894 	muleq	r0, r4, r8
    1708:	000008a0 	andeq	r0, r0, r0, lsr #17
    170c:	00510001 	subseq	r0, r1, r1
    1710:	00000000 	andeq	r0, r0, r0
    1714:	03000000 	movweq	r0, #0
    1718:	01010000 	mrseq	r0, (UNDEF: 1)
    171c:	03030101 	movweq	r0, #12545	; 0x3101
    1720:	28010002 	stmdacs	r1, {r1}
    1724:	50000007 	andpl	r0, r0, r7
    1728:	01000007 	tsteq	r0, r7
    172c:	07745300 	ldrbeq	r5, [r4, -r0, lsl #6]!
    1730:	07740000 	ldrbeq	r0, [r4, -r0]!
    1734:	00010000 	andeq	r0, r1, r0
    1738:	0007745e 	andeq	r7, r7, lr, asr r4
    173c:	00078800 	andeq	r8, r7, r0, lsl #16
    1740:	7e000300 	cdpvc	3, 0, cr0, cr0, cr0, {0}
    1744:	07889f01 	streq	r9, [r8, r1, lsl #30]
    1748:	07940000 	ldreq	r0, [r4, r0]
    174c:	00030000 	andeq	r0, r3, r0
    1750:	949f027e 	ldrls	r0, [pc], #638	; 1758 <__code_start__-0x68a8>
    1754:	98000007 	stmdals	r0, {r0, r1, r2}
    1758:	03000007 	movweq	r0, #7
    175c:	9f037e00 	svcls	0x00037e00
    1760:	00000894 	muleq	r0, r4, r8
    1764:	000008a0 	andeq	r0, r0, r0, lsr #17
    1768:	00530001 	subseq	r0, r3, r1
	...
    1774:	01010000 	mrseq	r0, (UNDEF: 1)
    1778:	01010101 	tsteq	r1, r1, lsl #2
    177c:	2c010002 	stccs	0, cr0, [r1], {2}
    1780:	50000007 	andpl	r0, r0, r7
    1784:	01000007 	tsteq	r0, r7
    1788:	07745000 	ldrbeq	r5, [r4, -r0]!
    178c:	07840000 	streq	r0, [r4, r0]
    1790:	00010000 	andeq	r0, r1, r0
    1794:	00078450 	andeq	r8, r7, r0, asr r4
    1798:	00079400 	andeq	r9, r7, r0, lsl #8
    179c:	5b000100 	blpl	1ba4 <__code_start__-0x645c>
    17a0:	00000794 	muleq	r0, r4, r7
    17a4:	00000798 	muleq	r0, r8, r7
    17a8:	98500001 	ldmdals	r0, {r0}^
    17ac:	98000007 	stmdals	r0, {r0, r1, r2}
    17b0:	03000007 	movweq	r0, #7
    17b4:	9f017000 	svcls	0x00017000
    17b8:	00000894 	muleq	r0, r4, r8
    17bc:	000008a0 	andeq	r0, r0, r0, lsr #17
    17c0:	00500001 	subseq	r0, r0, r1
    17c4:	00000000 	andeq	r0, r0, r0
    17c8:	01000000 	mrseq	r0, (UNDEF: 0)
    17cc:	b0000100 	andlt	r0, r0, r0, lsl #2
    17d0:	ec000007 	stc	0, cr0, [r0], {7}
    17d4:	01000007 	tsteq	r0, r7
    17d8:	08a05100 	stmiaeq	r0!, {r8, ip, lr}
    17dc:	08a80000 	stmiaeq	r8!, {}	; <UNPREDICTABLE>
    17e0:	00010000 	andeq	r0, r1, r0
    17e4:	00000051 	andeq	r0, r0, r1, asr r0
    17e8:	00000000 	andeq	r0, r0, r0
    17ec:	00000100 	andeq	r0, r0, r0, lsl #2
    17f0:	01010000 	mrseq	r0, (UNDEF: 1)
    17f4:	b0000100 	andlt	r0, r0, r0, lsl #2
    17f8:	b4000007 	strlt	r0, [r0], #-7
    17fc:	06000007 	streq	r0, [r0], -r7
    1800:	7c007300 	stcvc	3, cr7, [r0], {-0}
    1804:	d49f2200 	ldrle	r2, [pc], #512	; 180c <__code_start__-0x67f4>
    1808:	d8000007 	stmdale	r0, {r0, r1, r2}
    180c:	03000007 	movweq	r0, #7
    1810:	9f7f7300 	svcls	0x007f7300
    1814:	000007d8 	ldrdeq	r0, [r0], -r8
    1818:	000007e0 	andeq	r0, r0, r0, ror #15
    181c:	e0530001 	subs	r0, r3, r1
    1820:	e8000007 	stmda	r0, {r0, r1, r2}
    1824:	03000007 	movweq	r0, #7
    1828:	9f7f7300 	svcls	0x007f7300
    182c:	000008a0 	andeq	r0, r0, r0, lsr #17
    1830:	000008a8 	andeq	r0, r0, r8, lsr #17
    1834:	00530001 	subseq	r0, r3, r1
    1838:	00000000 	andeq	r0, r0, r0
    183c:	01000000 	mrseq	r0, (UNDEF: 0)
    1840:	b0000100 	andlt	r0, r0, r0, lsl #2
    1844:	ec000007 	stc	0, cr0, [r0], {7}
    1848:	03000007 	movweq	r0, #7
    184c:	9f800800 	svcls	0x00800800
    1850:	000008a0 	andeq	r0, r0, r0, lsr #17
    1854:	000008a8 	andeq	r0, r0, r8, lsr #17
    1858:	80080003 	andhi	r0, r8, r3
    185c:	0000009f 	muleq	r0, pc, r0	; <UNPREDICTABLE>
    1860:	00000000 	andeq	r0, r0, r0
    1864:	00000100 	andeq	r0, r0, r0, lsl #2
    1868:	01010000 	mrseq	r0, (UNDEF: 1)
    186c:	01000000 	mrseq	r0, (UNDEF: 0)
    1870:	0007b000 	andeq	fp, r7, r0
    1874:	0007d000 	andeq	sp, r7, r0
    1878:	91000400 	tstls	r0, r0, lsl #8
    187c:	d09f7dd0 			; <UNDEFINED> instruction: 0xd09f7dd0
    1880:	d4000007 	strle	r0, [r0], #-7
    1884:	01000007 	tsteq	r0, r7
    1888:	07d45500 	ldrbeq	r5, [r4, r0, lsl #10]
    188c:	07d40000 	ldrbeq	r0, [r4, r0]
    1890:	00030000 	andeq	r0, r3, r0
    1894:	d49f017c 	ldrle	r0, [pc], #380	; 189c <__code_start__-0x6764>
    1898:	e0000007 	and	r0, r0, r7
    189c:	03000007 	movweq	r0, #7
    18a0:	9f027c00 	svcls	0x00027c00
    18a4:	000007e0 	andeq	r0, r0, r0, ror #15
    18a8:	000007ec 	andeq	r0, r0, ip, ror #15
    18ac:	017c0003 	cmneq	ip, r3
    18b0:	0008a09f 	muleq	r8, pc, r0	; <UNPREDICTABLE>
    18b4:	0008a800 	andeq	sl, r8, r0, lsl #16
    18b8:	91000400 	tstls	r0, r0, lsl #8
    18bc:	009f7dd0 			; <UNDEFINED> instruction: 0x009f7dd0
    18c0:	00000000 	andeq	r0, r0, r0
    18c4:	04000000 	streq	r0, [r0], #-0
    18c8:	b0000400 	andlt	r0, r0, r0, lsl #8
    18cc:	b4000007 	strlt	r0, [r0], #-7
    18d0:	03000007 	movweq	r0, #7
    18d4:	9f017000 	svcls	0x00017000
    18d8:	000008a0 	andeq	r0, r0, r0, lsr #17
    18dc:	000008a8 	andeq	r0, r0, r8, lsr #17
    18e0:	01700003 	cmneq	r0, r3
    18e4:	0000009f 	muleq	r0, pc, r0	; <UNPREDICTABLE>
    18e8:	00000000 	andeq	r0, r0, r0
    18ec:	00000100 	andeq	r0, r0, r0, lsl #2
    18f0:	0007bc00 	andeq	fp, r7, r0, lsl #24
    18f4:	0007d000 	andeq	sp, r7, r0
    18f8:	91000400 	tstls	r0, r0, lsl #8
    18fc:	d09f7dd0 			; <UNDEFINED> instruction: 0xd09f7dd0
    1900:	ec000007 	stc	0, cr0, [r0], {7}
    1904:	01000007 	tsteq	r0, r7
    1908:	00005500 	andeq	r5, r0, r0, lsl #10
	...
    1914:	03280000 			; <UNDEFINED> instruction: 0x03280000
    1918:	03640000 	cmneq	r4, #0, 0
    191c:	00010000 	andeq	r0, r1, r0
    1920:	00036450 	andeq	r6, r3, r0, asr r4
    1924:	00038800 	andeq	r8, r3, r0, lsl #16
    1928:	f3000400 	vshl.u8	d0, d0, d0
    192c:	009f5001 	addseq	r5, pc, r1
	...
    1938:	28000000 	stmdacs	r0, {}	; <UNPREDICTABLE>
    193c:	5c000003 	stcpl	0, cr0, [r0], {3}
    1940:	01000003 	tsteq	r0, r3
    1944:	035c5100 	cmpeq	ip, #0
    1948:	03880000 	orreq	r0, r8, #0, 0
    194c:	00040000 	andeq	r0, r4, r0
    1950:	9f5101f3 	svcls	0x005101f3
	...
    1978:	00000014 	andeq	r0, r0, r4, lsl r0
    197c:	14500001 	ldrbne	r0, [r0], #-1
    1980:	20000000 	andcs	r0, r0, r0
    1984:	01000000 	mrseq	r0, (UNDEF: 0)
    1988:	00205c00 	eoreq	r5, r0, r0, lsl #24
    198c:	00680000 	rsbeq	r0, r8, r0
    1990:	00030000 	andeq	r0, r3, r0
    1994:	689f0271 	ldmvs	pc, {r0, r4, r5, r6, r9}	; <UNPREDICTABLE>
    1998:	6c000000 	stcvs	0, cr0, [r0], {-0}
    199c:	03000000 	movweq	r0, #0
    19a0:	9f027300 	svcls	0x00027300
    19a4:	0000006c 	andeq	r0, r0, ip, rrx
    19a8:	00000194 	muleq	r0, r4, r1
    19ac:	01f30004 	mvnseq	r0, r4
    19b0:	01949f50 	orrseq	r9, r4, r0, asr pc
    19b4:	01980000 	orrseq	r0, r8, r0
    19b8:	00030000 	andeq	r0, r3, r0
    19bc:	989f0273 	ldmls	pc, {r0, r1, r4, r5, r6, r9}	; <UNPREDICTABLE>
    19c0:	c0000001 	andgt	r0, r0, r1
    19c4:	04000001 	streq	r0, [r0], #-1
    19c8:	5001f300 	andpl	pc, r1, r0, lsl #6
    19cc:	0001c09f 	muleq	r1, pc, r0	; <UNPREDICTABLE>
    19d0:	0001c800 	andeq	ip, r1, r0, lsl #16
    19d4:	5c000100 	stfpls	f0, [r0], {-0}
    19d8:	000001c8 	andeq	r0, r0, r8, asr #3
    19dc:	00000214 	andeq	r0, r0, r4, lsl r2
    19e0:	02730003 	rsbseq	r0, r3, #3, 0
    19e4:	0002149f 	muleq	r2, pc, r4	; <UNPREDICTABLE>
    19e8:	0002ec00 	andeq	lr, r2, r0, lsl #24
    19ec:	f3000400 	vshl.u8	d0, d0, d0
    19f0:	ec9f5001 	ldc	0, cr5, [pc], {1}
    19f4:	f4000002 	vst4.8	{d0-d3}, [r0], r2
    19f8:	03000002 	movweq	r0, #2
    19fc:	9f027300 	svcls	0x00027300
    1a00:	000002f4 	strdeq	r0, [r0], -r4
    1a04:	00000328 	andeq	r0, r0, r8, lsr #6
    1a08:	01f30004 	mvnseq	r0, r4
    1a0c:	00009f50 	andeq	r9, r0, r0, asr pc
	...
    1a20:	001c0000 	andseq	r0, ip, r0
    1a24:	00010000 	andeq	r0, r1, r0
    1a28:	00001c51 	andeq	r1, r0, r1, asr ip
    1a2c:	0002e000 	andeq	lr, r2, r0
    1a30:	50000100 	andpl	r0, r0, r0, lsl #2
    1a34:	000002e0 	andeq	r0, r0, r0, ror #5
    1a38:	000002ec 	andeq	r0, r0, ip, ror #5
    1a3c:	01f30004 	mvnseq	r0, r4
    1a40:	02ec9f51 	rsceq	r9, ip, #324	; 0x144
    1a44:	03280000 			; <UNDEFINED> instruction: 0x03280000
    1a48:	00010000 	andeq	r0, r1, r0
    1a4c:	00000050 	andeq	r0, r0, r0, asr r0
	...
    1a58:	00010000 	andeq	r0, r1, r0
    1a5c:	00000000 	andeq	r0, r0, r0
    1a60:	02020000 	andeq	r0, r2, #0, 0
	...
    1a78:	00007000 	andeq	r7, r0, r0
    1a7c:	52000100 	andpl	r0, r0, #0
    1a80:	00000070 	andeq	r0, r0, r0, ror r0
    1a84:	00000078 	andeq	r0, r0, r8, ror r0
    1a88:	785c0001 	ldmdavc	ip, {r0}^
    1a8c:	a4000000 	strge	r0, [r0], #-0
    1a90:	04000000 	streq	r0, [r0], #-0
    1a94:	5201f300 	andpl	pc, r1, #0, 6
    1a98:	0001949f 	muleq	r1, pc, r4	; <UNPREDICTABLE>
    1a9c:	00019c00 	andeq	r9, r1, r0, lsl #24
    1aa0:	52000100 	andpl	r0, r0, #0
    1aa4:	0000019c 	muleq	r0, ip, r1
    1aa8:	000001a4 	andeq	r0, r0, r4, lsr #3
    1aac:	a45c0001 	ldrbge	r0, [ip], #-1
    1ab0:	c0000001 	andgt	r0, r0, r1
    1ab4:	04000001 	streq	r0, [r0], #-1
    1ab8:	5201f300 	andpl	pc, r1, #0, 6
    1abc:	0001c09f 	muleq	r1, pc, r0	; <UNPREDICTABLE>
    1ac0:	00022000 	andeq	r2, r2, r0
    1ac4:	52000100 	andpl	r0, r0, #0
    1ac8:	00000220 	andeq	r0, r0, r0, lsr #4
    1acc:	00000228 	andeq	r0, r0, r8, lsr #4
    1ad0:	00720004 	rsbseq	r0, r2, r4
    1ad4:	02289f1f 	eoreq	r9, r8, #124	; 0x7c
    1ad8:	02740000 	rsbseq	r0, r4, #0, 0
    1adc:	00050000 	andeq	r0, r5, r0
    1ae0:	1f5201f3 	svcne	0x005201f3
    1ae4:	0002749f 	muleq	r2, pc, r4	; <UNPREDICTABLE>
    1ae8:	00028800 	andeq	r8, r2, r0, lsl #16
    1aec:	52000100 	andpl	r0, r0, #0
    1af0:	00000288 	andeq	r0, r0, r8, lsl #5
    1af4:	000002a0 	andeq	r0, r0, r0, lsr #5
    1af8:	cc5c0001 	mrrcgt	0, 0, r0, ip, cr1
    1afc:	d0000002 	andle	r0, r0, r2
    1b00:	01000002 	tsteq	r0, r2
    1b04:	02d05200 	sbcseq	r5, r0, #0, 4
    1b08:	02e70000 	rsceq	r0, r7, #0, 0
    1b0c:	00010000 	andeq	r0, r1, r0
    1b10:	0002e75c 	andeq	lr, r2, ip, asr r7
    1b14:	0002ec00 	andeq	lr, r2, r0, lsl #24
    1b18:	f3000400 	vshl.u8	d0, d0, d0
    1b1c:	ec9f5201 	lfm	f5, 4, [pc], {1}
    1b20:	00000002 	andeq	r0, r0, r2
    1b24:	01000003 	tsteq	r0, r3
    1b28:	03005200 	movweq	r5, #512	; 0x200
    1b2c:	03280000 			; <UNDEFINED> instruction: 0x03280000
    1b30:	00010000 	andeq	r0, r1, r0
    1b34:	0000005c 	andeq	r0, r0, ip, asr r0
	...
    1b4c:	68000000 	stmdavs	r0, {}	; <UNPREDICTABLE>
    1b50:	01000000 	mrseq	r0, (UNDEF: 0)
    1b54:	00685300 	rsbeq	r5, r8, r0, lsl #6
    1b58:	006c0000 	rsbeq	r0, ip, r0
    1b5c:	00030000 	andeq	r0, r3, r0
    1b60:	949f7f08 	ldrls	r7, [pc], #3848	; 1b68 <__code_start__-0x6498>
    1b64:	98000001 	stmdals	r0, {r0}
    1b68:	03000001 	movweq	r0, #1
    1b6c:	9f7f0800 	svcls	0x007f0800
    1b70:	000001c0 	andeq	r0, r0, r0, asr #3
    1b74:	00000214 	andeq	r0, r0, r4, lsl r2
    1b78:	7f080003 	svcvc	0x00080003
    1b7c:	0002749f 	muleq	r2, pc, r4	; <UNPREDICTABLE>
    1b80:	00029000 	andeq	r9, r2, r0
    1b84:	53000100 	movwpl	r0, #256	; 0x100
    1b88:	00000290 	muleq	r0, r0, r2
    1b8c:	000002a0 	andeq	r0, r0, r0, lsr #5
    1b90:	01f30004 	mvnseq	r0, r4
    1b94:	02ec9f53 	rsceq	r9, ip, #332	; 0x14c
    1b98:	03280000 			; <UNDEFINED> instruction: 0x03280000
    1b9c:	00030000 	andeq	r0, r3, r0
    1ba0:	009f7f08 	addseq	r7, pc, r8, lsl #30
    1ba4:	00000000 	andeq	r0, r0, r0
    1ba8:	01000000 	mrseq	r0, (UNDEF: 0)
    1bac:	00000000 	andeq	r0, r0, r0
    1bb0:	00000202 	andeq	r0, r0, r2, lsl #4
    1bb4:	00000101 	andeq	r0, r0, r1, lsl #2
    1bb8:	00000000 	andeq	r0, r0, r0
    1bbc:	02020000 	andeq	r0, r2, #0, 0
    1bc0:	01000000 	mrseq	r0, (UNDEF: 0)
	...
    1bcc:	00000101 	andeq	r0, r0, r1, lsl #2
    1bd0:	02020000 	andeq	r0, r2, #0, 0
    1bd4:	00000000 	andeq	r0, r0, r0
    1bd8:	01010000 	mrseq	r0, (UNDEF: 1)
    1bdc:	18000000 	stmdane	r0, {}	; <UNPREDICTABLE>
    1be0:	70000000 	andvc	r0, r0, r0
    1be4:	04000000 	streq	r0, [r0], #-0
    1be8:	7fa09100 	svcvc	0x00a09100
    1bec:	0000709f 	muleq	r0, pc, r0	; <UNPREDICTABLE>
    1bf0:	00007800 	andeq	r7, r0, r0, lsl #16
    1bf4:	52000100 	andpl	r0, r0, #0
    1bf8:	00000078 	andeq	r0, r0, r8, ror r0
    1bfc:	00000078 	andeq	r0, r0, r8, ror r0
    1c00:	78540001 	ldmdavc	r4, {r0}^
    1c04:	88000000 	stmdahi	r0, {}	; <UNPREDICTABLE>
    1c08:	03000000 	movweq	r0, #0
    1c0c:	9f017400 	svcls	0x00017400
    1c10:	00000088 	andeq	r0, r0, r8, lsl #1
    1c14:	00000090 	muleq	r0, r0, r0
    1c18:	90540001 	subsls	r0, r4, r1
    1c1c:	a0000000 	andge	r0, r0, r0
    1c20:	03000000 	movweq	r0, #0
    1c24:	9f027400 	svcls	0x00027400
    1c28:	000000a0 	andeq	r0, r0, r0, lsr #1
    1c2c:	000000b0 	strheq	r0, [r0], -r0	; <UNPREDICTABLE>
    1c30:	945e0001 	ldrbls	r0, [lr], #-1
    1c34:	9c000001 	stcls	0, cr0, [r0], {1}
    1c38:	04000001 	streq	r0, [r0], #-1
    1c3c:	7fa09100 	svcvc	0x00a09100
    1c40:	00019c9f 	muleq	r1, pc, ip	; <UNPREDICTABLE>
    1c44:	0001a400 	andeq	sl, r1, r0, lsl #8
    1c48:	52000100 	andpl	r0, r0, #0
    1c4c:	000001a4 	andeq	r0, r0, r4, lsr #3
    1c50:	000001a4 	andeq	r0, r0, r4, lsr #3
    1c54:	a45e0001 	ldrbge	r0, [lr], #-1
    1c58:	b4000001 	strlt	r0, [r0], #-1
    1c5c:	03000001 	movweq	r0, #1
    1c60:	9f017e00 	svcls	0x00017e00
    1c64:	000001b4 			; <UNDEFINED> instruction: 0x000001b4
    1c68:	000001c0 	andeq	r0, r0, r0, asr #3
    1c6c:	c05e0001 	subsgt	r0, lr, r1
    1c70:	28000001 	stmdacs	r0, {r0}
    1c74:	04000002 	streq	r0, [r0], #-2
    1c78:	7fa09100 	svcvc	0x00a09100
    1c7c:	0002289f 	muleq	r2, pc, r8	; <UNPREDICTABLE>
    1c80:	00023400 	andeq	r3, r2, r0, lsl #8
    1c84:	52000100 	andpl	r0, r0, #0
    1c88:	00000234 	andeq	r0, r0, r4, lsr r2
    1c8c:	00000258 	andeq	r0, r0, r8, asr r2
    1c90:	585e0001 	ldmdapl	lr, {r0}^
    1c94:	5c000002 	stcpl	0, cr0, [r0], {2}
    1c98:	03000002 	movweq	r0, #2
    1c9c:	9f017e00 	svcls	0x00017e00
    1ca0:	0000025c 	andeq	r0, r0, ip, asr r2
    1ca4:	00000264 	andeq	r0, r0, r4, ror #4
    1ca8:	645e0001 	ldrbvs	r0, [lr], #-1
    1cac:	70000002 	andvc	r0, r0, r2
    1cb0:	03000002 	movweq	r0, #2
    1cb4:	9f027100 	svcls	0x00027100
    1cb8:	00000270 	andeq	r0, r0, r0, ror r2
    1cbc:	00000274 	andeq	r0, r0, r4, ror r2
    1cc0:	745e0001 	ldrbvc	r0, [lr], #-1
    1cc4:	74000002 	strvc	r0, [r0], #-2
    1cc8:	04000002 	streq	r0, [r0], #-2
    1ccc:	7fa09100 	svcvc	0x00a09100
    1cd0:	0002749f 	muleq	r2, pc, r4	; <UNPREDICTABLE>
    1cd4:	0002a000 	andeq	sl, r2, r0
    1cd8:	91000400 	tstls	r0, r0, lsl #8
    1cdc:	c09f7fa1 	addsgt	r7, pc, r1, lsr #31
    1ce0:	c8000002 	stmdagt	r0, {r1}
    1ce4:	01000002 	tsteq	r0, r2
    1ce8:	02c85e00 	sbceq	r5, r8, #0, 28
    1cec:	02cc0000 	sbceq	r0, ip, #0, 0
    1cf0:	00010000 	andeq	r0, r1, r0
    1cf4:	0002cc56 	andeq	ip, r2, r6, asr ip
    1cf8:	0002ec00 	andeq	lr, r2, r0, lsl #24
    1cfc:	91000400 	tstls	r0, r0, lsl #8
    1d00:	ec9f7fa0 	ldc	15, cr7, [pc], {160}	; 0xa0
    1d04:	fc000002 	stc2	0, cr0, [r0], {2}
    1d08:	04000002 	streq	r0, [r0], #-2
    1d0c:	7fa19100 	svcvc	0x00a19100
    1d10:	0002fc9f 	muleq	r2, pc, ip	; <UNPREDICTABLE>
    1d14:	00032800 	andeq	r2, r3, r0, lsl #16
    1d18:	5e000100 	adfpls	f0, f0, f0
	...
    1d30:	01000000 	mrseq	r0, (UNDEF: 0)
    1d34:	00000001 	andeq	r0, r0, r1
	...
    1d44:	00200000 	eoreq	r0, r0, r0
    1d48:	00700000 	rsbseq	r0, r0, r0
    1d4c:	00010000 	andeq	r0, r1, r0
    1d50:	00007052 	andeq	r7, r0, r2, asr r0
    1d54:	00009400 	andeq	r9, r0, r0, lsl #8
    1d58:	5c000100 	stfpls	f0, [r0], {-0}
    1d5c:	00000194 	muleq	r0, r4, r1
    1d60:	0000019c 	muleq	r0, ip, r1
    1d64:	9c520001 	mrrcls	0, 0, r0, r2, cr1
    1d68:	c0000001 	andgt	r0, r0, r1
    1d6c:	01000001 	tsteq	r0, r1
    1d70:	01c85c00 	biceq	r5, r8, r0, lsl #24
    1d74:	02100000 	andseq	r0, r0, #0, 0
    1d78:	00010000 	andeq	r0, r1, r0
    1d7c:	0002105c 	andeq	r1, r2, ip, asr r0
    1d80:	00022400 	andeq	r2, r2, r0, lsl #8
    1d84:	52000100 	andpl	r0, r0, #0
    1d88:	00000224 	andeq	r0, r0, r4, lsr #4
    1d8c:	00000248 	andeq	r0, r0, r8, asr #4
    1d90:	485c0001 	ldmdami	ip, {r0}^
    1d94:	5c000002 	stcpl	0, cr0, [r0], {2}
    1d98:	01000002 	tsteq	r0, r2
    1d9c:	025c5500 	subseq	r5, ip, #0, 10
    1da0:	02680000 	rsbeq	r0, r8, #0, 0
    1da4:	00010000 	andeq	r0, r1, r0
    1da8:	0002685c 	andeq	r6, r2, ip, asr r8
    1dac:	00027400 	andeq	r7, r2, r0, lsl #8
    1db0:	75001900 	strvc	r1, [r0, #-2304]	; 0xfffff700
    1db4:	f72cf700 			; <UNDEFINED> instruction: 0xf72cf700
    1db8:	f7007625 			; <UNDEFINED> instruction: 0xf7007625
    1dbc:	1e25f72c 	cdpne	7, 2, cr15, cr5, cr12, {1}
    1dc0:	25f72008 	ldrbcs	r2, [r7, #8]!
    1dc4:	f72cf725 			; <UNDEFINED> instruction: 0xf72cf725
    1dc8:	9f253300 	svcls	0x00253300
    1dcc:	00000274 	andeq	r0, r0, r4, ror r2
    1dd0:	00000288 	andeq	r0, r0, r8, lsl #5
    1dd4:	88520001 	ldmdahi	r2, {r0}^
    1dd8:	a0000002 	andge	r0, r0, r2
    1ddc:	01000002 	tsteq	r0, r2
    1de0:	02cc5c00 	sbceq	r5, ip, #0, 24
    1de4:	02d00000 	sbcseq	r0, r0, #0, 0
    1de8:	00010000 	andeq	r0, r1, r0
    1dec:	0002d052 	andeq	sp, r2, r2, asr r0
    1df0:	0002e700 	andeq	lr, r2, r0, lsl #14
    1df4:	5c000100 	stfpls	f0, [r0], {-0}
    1df8:	000002e7 	andeq	r0, r0, r7, ror #5
    1dfc:	000002ec 	andeq	r0, r0, ip, ror #5
    1e00:	01f30004 	mvnseq	r0, r4
    1e04:	02ec9f52 	rsceq	r9, ip, #328	; 0x148
    1e08:	03000000 	movweq	r0, #0
    1e0c:	00010000 	andeq	r0, r1, r0
    1e10:	00030052 	andeq	r0, r3, r2, asr r0
    1e14:	00032800 	andeq	r2, r3, r0, lsl #16
    1e18:	5c000100 	stfpls	f0, [r0], {-0}
	...
    1e24:	00040004 	andeq	r0, r4, r4
    1e28:	00000100 	andeq	r0, r0, r0, lsl #2
    1e2c:	00a40004 	adceq	r0, r4, r4
    1e30:	00b00000 	adcseq	r0, r0, r0
    1e34:	00010000 	andeq	r0, r1, r0
    1e38:	00027c53 	andeq	r7, r2, r3, asr ip
    1e3c:	00029000 	andeq	r9, r2, r0
    1e40:	53000100 	movwpl	r0, #256	; 0x100
    1e44:	00000290 	muleq	r0, r0, r2
    1e48:	0000029c 	muleq	r0, ip, r2
    1e4c:	01f30004 	mvnseq	r0, r4
    1e50:	02c09f53 	sbceq	r9, r0, #332	; 0x14c
    1e54:	02cc0000 	sbceq	r0, ip, #0, 0
    1e58:	00010000 	andeq	r0, r1, r0
    1e5c:	0002f053 	andeq	pc, r2, r3, asr r0	; <UNPREDICTABLE>
    1e60:	00032800 	andeq	r2, r3, r0, lsl #16
    1e64:	08000300 	stmdaeq	r0, {r8, r9}
    1e68:	00009f7f 	andeq	r9, r0, pc, ror pc
    1e6c:	00000000 	andeq	r0, r0, r0
    1e70:	00040000 	andeq	r0, r4, r0
    1e74:	00040100 	andeq	r0, r4, r0, lsl #2
    1e78:	00000100 	andeq	r0, r0, r0, lsl #2
    1e7c:	00040000 	andeq	r0, r4, r0
    1e80:	00a40000 	adceq	r0, r4, r0
    1e84:	00b00000 	adcseq	r0, r0, r0
    1e88:	00010000 	andeq	r0, r1, r0
    1e8c:	0000b052 	andeq	fp, r0, r2, asr r0
    1e90:	00015c00 	andeq	r5, r1, r0, lsl #24
    1e94:	91000400 	tstls	r0, r0, lsl #8
    1e98:	7c9f7fa0 	ldcvc	15, cr7, [pc], {160}	; 0xa0
    1e9c:	94000002 	strls	r0, [r0], #-2
    1ea0:	04000002 	streq	r0, [r0], #-2
    1ea4:	7fa09100 	svcvc	0x00a09100
    1ea8:	0002949f 	muleq	r2, pc, r4	; <UNPREDICTABLE>
    1eac:	00029c00 	andeq	r9, r2, r0, lsl #24
    1eb0:	5e000100 	adfpls	f0, f0, f0
    1eb4:	000002b4 			; <UNDEFINED> instruction: 0x000002b4
    1eb8:	000002c0 	andeq	r0, r0, r0, asr #5
    1ebc:	a0910004 	addsge	r0, r1, r4
    1ec0:	02c09f7f 	sbceq	r9, r0, #508	; 0x1fc
    1ec4:	02cc0000 	sbceq	r0, ip, #0, 0
    1ec8:	00010000 	andeq	r0, r1, r0
    1ecc:	0002f052 	andeq	pc, r2, r2, asr r0	; <UNPREDICTABLE>
    1ed0:	00030000 	andeq	r0, r3, r0
    1ed4:	91000400 	tstls	r0, r0, lsl #8
    1ed8:	009f7fa0 	addseq	r7, pc, r0, lsr #31
    1edc:	28000003 	stmdacs	r0, {r0, r1}
    1ee0:	01000003 	tsteq	r0, r3
    1ee4:	00005200 	andeq	r5, r0, r0, lsl #4
    1ee8:	00000000 	andeq	r0, r0, r0
    1eec:	00040000 	andeq	r0, r4, r0
    1ef0:	01010100 	mrseq	r0, (UNDEF: 17)
    1ef4:	02030301 	andeq	r0, r3, #67108864	; 0x4000000
    1ef8:	00000104 	andeq	r0, r0, r4, lsl #2
    1efc:	00040000 	andeq	r0, r4, r0
    1f00:	00a40000 	adceq	r0, r4, r0
    1f04:	00b00000 	adcseq	r0, r0, r0
    1f08:	00010000 	andeq	r0, r1, r0
    1f0c:	00010c5e 	andeq	r0, r1, lr, asr ip
    1f10:	00010c00 	andeq	r0, r1, r0, lsl #24
    1f14:	55000100 	strpl	r0, [r0, #-256]	; 0xffffff00
    1f18:	0000010c 	andeq	r0, r0, ip, lsl #2
    1f1c:	00000120 	andeq	r0, r0, r0, lsr #2
    1f20:	01750003 	cmneq	r5, r3
    1f24:	0001209f 	muleq	r1, pc, r0	; <UNPREDICTABLE>
    1f28:	00012c00 	andeq	r2, r1, r0, lsl #24
    1f2c:	75000300 	strvc	r0, [r0, #-768]	; 0xfffffd00
    1f30:	012c9f02 			; <UNDEFINED> instruction: 0x012c9f02
    1f34:	01300000 	teqeq	r0, r0
    1f38:	00030000 	andeq	r0, r3, r0
    1f3c:	7c9f0375 	ldcvc	3, cr0, [pc], {117}	; 0x75
    1f40:	9c000002 	stcls	0, cr0, [r0], {2}
    1f44:	04000002 	streq	r0, [r0], #-2
    1f48:	7fa19100 	svcvc	0x00a19100
    1f4c:	0002c09f 	muleq	r2, pc, r0	; <UNPREDICTABLE>
    1f50:	0002c800 	andeq	ip, r2, r0, lsl #16
    1f54:	5e000100 	adfpls	f0, f0, f0
    1f58:	000002c8 	andeq	r0, r0, r8, asr #5
    1f5c:	000002cc 	andeq	r0, r0, ip, asr #5
    1f60:	f0560001 			; <UNDEFINED> instruction: 0xf0560001
    1f64:	fc000002 	stc2	0, cr0, [r0], {2}
    1f68:	04000002 	streq	r0, [r0], #-2
    1f6c:	7fa19100 	svcvc	0x00a19100
    1f70:	0002fc9f 	muleq	r2, pc, ip	; <UNPREDICTABLE>
    1f74:	00032800 	andeq	r2, r3, r0, lsl #16
    1f78:	5e000100 	adfpls	f0, f0, f0
	...
    1f84:	01000000 	mrseq	r0, (UNDEF: 0)
    1f88:	01010101 	tsteq	r1, r1, lsl #2
    1f8c:	01060201 	tsteq	r6, r1, lsl #4
    1f90:	00060000 	andeq	r0, r6, r0
    1f94:	000000a8 	andeq	r0, r0, r8, lsr #1
    1f98:	000000b0 	strheq	r0, [r0], -r0	; <UNPREDICTABLE>
    1f9c:	0c510001 	mrrceq	0, 0, r0, r1, cr1
    1fa0:	1c000001 	stcne	0, cr0, [r0], {1}
    1fa4:	01000001 	tsteq	r0, r1
    1fa8:	011c5c00 	tsteq	ip, r0, lsl #24
    1fac:	012c0000 			; <UNDEFINED> instruction: 0x012c0000
    1fb0:	00010000 	andeq	r0, r1, r0
    1fb4:	00012c58 	andeq	r2, r1, r8, asr ip
    1fb8:	00013000 	andeq	r3, r1, r0
    1fbc:	5c000100 	stfpls	f0, [r0], {-0}
    1fc0:	00000130 	andeq	r0, r0, r0, lsr r1
    1fc4:	00000130 	andeq	r0, r0, r0, lsr r1
    1fc8:	017c0003 	cmneq	ip, r3
    1fcc:	00027c9f 	muleq	r2, pc, ip	; <UNPREDICTABLE>
    1fd0:	00029c00 	andeq	r9, r2, r0, lsl #24
    1fd4:	31000200 	mrscc	r0, R8_usr
    1fd8:	0002c09f 	muleq	r2, pc, r0	; <UNPREDICTABLE>
    1fdc:	0002cc00 	andeq	ip, r2, r0, lsl #24
    1fe0:	51000100 	mrspl	r0, (UNDEF: 16)
    1fe4:	000002f0 	strdeq	r0, [r0], -r0	; <UNPREDICTABLE>
    1fe8:	00000328 	andeq	r0, r0, r8, lsr #6
    1fec:	9f310002 	svcls	0x00310002
	...
    1ff8:	01060601 	tsteq	r6, r1, lsl #12
    1ffc:	01000001 	tsteq	r0, r1
    2000:	0000015c 	andeq	r0, r0, ip, asr r1
    2004:	0000015c 	andeq	r0, r0, ip, asr r1
    2008:	a0910004 	addsge	r0, r1, r4
    200c:	015c9f7f 	cmpeq	ip, pc, ror pc
    2010:	018c0000 	orreq	r0, ip, r0
    2014:	00010000 	andeq	r0, r1, r0
    2018:	00029c52 	andeq	r9, r2, r2, asr ip
    201c:	0002a000 	andeq	sl, r2, r0
    2020:	5e000100 	adfpls	f0, f0, f0
    2024:	000002a0 	andeq	r0, r0, r0, lsr #5
    2028:	000002ac 	andeq	r0, r0, ip, lsr #5
    202c:	00520001 	subseq	r0, r2, r1
	...
    2038:	01010000 	mrseq	r0, (UNDEF: 1)
    203c:	6c070100 	stfvss	f0, [r7], {-0}
    2040:	70000001 	andvc	r0, r0, r1
    2044:	03000001 	movweq	r0, #1
    2048:	9f7f7300 	svcls	0x007f7300
    204c:	00000170 	andeq	r0, r0, r0, ror r1
    2050:	00000178 	andeq	r0, r0, r8, ror r1
    2054:	78530001 	ldmdavc	r3, {r0}^
    2058:	84000001 	strhi	r0, [r0], #-1
    205c:	03000001 	movweq	r0, #1
    2060:	9f7f7300 	svcls	0x007f7300
    2064:	0000029c 	muleq	r0, ip, r2
    2068:	0000029c 	muleq	r0, ip, r2
    206c:	a1910004 	orrsge	r0, r1, r4
    2070:	00009f7f 	andeq	r9, r0, pc, ror pc
    2074:	00000000 	andeq	r0, r0, r0
    2078:	01010000 	mrseq	r0, (UNDEF: 1)
    207c:	015c0101 	cmpeq	ip, r1, lsl #2
    2080:	018c0000 	orreq	r0, ip, r0
    2084:	00030000 	andeq	r0, r3, r0
    2088:	9c9f8008 	ldcls	0, cr8, [pc], {8}
    208c:	ac000002 	stcge	0, cr0, [r0], {2}
    2090:	03000002 	movweq	r0, #2
    2094:	9f800800 	svcls	0x00800800
	...
    20a0:	01000001 	tsteq	r0, r1
    20a4:	01000001 	tsteq	r0, r1
    20a8:	01010101 	tsteq	r1, r1, lsl #2
    20ac:	015c0101 	cmpeq	ip, r1, lsl #2
    20b0:	016c0000 	cmneq	ip, r0
    20b4:	00010000 	andeq	r0, r1, r0
    20b8:	00016c50 	andeq	r6, r1, r0, asr ip
    20bc:	00016c00 	andeq	r6, r1, r0, lsl #24
    20c0:	7c000300 	stcvc	3, cr0, [r0], {-0}
    20c4:	016c9f01 	cmneq	ip, r1, lsl #30
    20c8:	01780000 	cmneq	r8, r0
    20cc:	00030000 	andeq	r0, r3, r0
    20d0:	789f027c 	ldmvc	pc, {r2, r3, r4, r5, r6, r9}	; <UNPREDICTABLE>
    20d4:	88000001 	stmdahi	r0, {r0}
    20d8:	03000001 	movweq	r0, #1
    20dc:	9f017c00 	svcls	0x00017c00
    20e0:	00000188 	andeq	r0, r0, r8, lsl #3
    20e4:	0000018c 	andeq	r0, r0, ip, lsl #3
    20e8:	017e0003 	cmneq	lr, r3
    20ec:	00029c9f 	muleq	r2, pc, ip	; <UNPREDICTABLE>
    20f0:	0002a400 	andeq	sl, r2, r0, lsl #8
    20f4:	50000100 	andpl	r0, r0, r0, lsl #2
    20f8:	000002a4 	andeq	r0, r0, r4, lsr #5
    20fc:	000002ac 	andeq	r0, r0, ip, lsr #5
    2100:	017e0003 	cmneq	lr, r3
    2104:	0000009f 	muleq	r0, pc, r0	; <UNPREDICTABLE>
    2108:	00000000 	andeq	r0, r0, r0
    210c:	04000400 	streq	r0, [r0], #-1024	; 0xfffffc00
    2110:	5c010000 	stcpl	0, cr0, [r1], {-0}
    2114:	60000001 	andvs	r0, r0, r1
    2118:	03000001 	movweq	r0, #1
    211c:	9f017100 	svcls	0x00017100
    2120:	0000029c 	muleq	r0, ip, r2
    2124:	000002a0 	andeq	r0, r0, r0, lsr #5
    2128:	9f320002 	svcls	0x00320002
    212c:	000002a0 	andeq	r0, r0, r0, lsr #5
    2130:	000002ac 	andeq	r0, r0, ip, lsr #5
    2134:	01710003 	cmneq	r1, r3
    2138:	0000009f 	muleq	r0, pc, r0	; <UNPREDICTABLE>
    213c:	00000000 	andeq	r0, r0, r0
    2140:	06000700 	streq	r0, [r0], -r0, lsl #14
    2144:	00015c00 	andeq	r5, r1, r0, lsl #24
    2148:	00019400 	andeq	r9, r1, r0, lsl #8
    214c:	50000100 	andpl	r0, r0, r0, lsl #2
    2150:	0000029c 	muleq	r0, ip, r2
    2154:	000002b4 			; <UNDEFINED> instruction: 0x000002b4
    2158:	00500001 	subseq	r0, r0, r1
    215c:	00000000 	andeq	r0, r0, r0
    2160:	01000000 	mrseq	r0, (UNDEF: 0)
    2164:	14000101 	strne	r0, [r0], #-257	; 0xfffffeff
    2168:	20000002 	andcs	r0, r0, r2
    216c:	02000002 	andeq	r0, r0, #2, 0
    2170:	209f3000 	addscs	r3, pc, r0
    2174:	34000002 	strcc	r0, [r0], #-2
    2178:	02000002 	andeq	r0, r0, #2, 0
    217c:	009f3100 	addseq	r3, pc, r0, lsl #2
	...
    2188:	00000101 	andeq	r0, r0, r1, lsl #2
    218c:	00000101 	andeq	r0, r0, r1, lsl #2
    2190:	00000101 	andeq	r0, r0, r1, lsl #2
    2194:	00000101 	andeq	r0, r0, r1, lsl #2
    2198:	00000101 	andeq	r0, r0, r1, lsl #2
    219c:	80010202 	andhi	r0, r1, r2, lsl #4
    21a0:	80000000 	andhi	r0, r0, r0
    21a4:	01000000 	mrseq	r0, (UNDEF: 0)
    21a8:	00805300 	addeq	r5, r0, r0, lsl #6
    21ac:	008c0000 	addeq	r0, ip, r0
    21b0:	00030000 	andeq	r0, r3, r0
    21b4:	8c9f0473 	cfldrshi	mvf0, [pc], {115}	; 0x73
    21b8:	94000000 	strls	r0, [r0], #-0
    21bc:	01000000 	mrseq	r0, (UNDEF: 0)
    21c0:	00945100 	addseq	r5, r4, r0, lsl #2
    21c4:	00980000 	addseq	r0, r8, r0
    21c8:	00030000 	andeq	r0, r3, r0
    21cc:	989f0873 	ldmls	pc, {r0, r1, r4, r5, r6, fp}	; <UNPREDICTABLE>
    21d0:	a4000000 	strge	r0, [r0], #-0
    21d4:	01000000 	mrseq	r0, (UNDEF: 0)
    21d8:	00a45100 	adceq	r5, r4, r0, lsl #2
    21dc:	00a80000 	adceq	r0, r8, r0
    21e0:	00030000 	andeq	r0, r3, r0
    21e4:	a89f0c73 	ldmge	pc, {r0, r1, r4, r5, r6, sl, fp}	; <UNPREDICTABLE>
    21e8:	b4000000 	strlt	r0, [r0], #-0
    21ec:	01000000 	mrseq	r0, (UNDEF: 0)
    21f0:	00b45100 	adcseq	r5, r4, r0, lsl #2
    21f4:	00b80000 	adcseq	r0, r8, r0
    21f8:	00030000 	andeq	r0, r3, r0
    21fc:	b89f1073 	ldmlt	pc, {r0, r1, r4, r5, r6, ip}	; <UNPREDICTABLE>
    2200:	c4000000 	strgt	r0, [r0], #-0
    2204:	01000000 	mrseq	r0, (UNDEF: 0)
    2208:	00c45100 	sbceq	r5, r4, r0, lsl #2
    220c:	00c80000 	sbceq	r0, r8, r0
    2210:	00030000 	andeq	r0, r3, r0
    2214:	c89f1473 	ldmgt	pc, {r0, r1, r4, r5, r6, sl, ip}	; <UNPREDICTABLE>
    2218:	d0000000 	andle	r0, r0, r0
    221c:	01000000 	mrseq	r0, (UNDEF: 0)
    2220:	00d05100 	sbcseq	r5, r0, r0, lsl #2
    2224:	00d40000 	sbcseq	r0, r4, r0
    2228:	00030000 	andeq	r0, r3, r0
    222c:	009f0471 	addseq	r0, pc, r1, ror r4	; <UNPREDICTABLE>
    2230:	00000000 	andeq	r0, r0, r0
    2234:	02000000 	andeq	r0, r0, #0, 0
    2238:	0000d800 	andeq	sp, r0, r0, lsl #16
    223c:	0000e800 	andeq	lr, r0, r0, lsl #16
    2240:	31000200 	mrscc	r0, R8_usr
    2244:	0000009f 	muleq	r0, pc, r0	; <UNPREDICTABLE>
    2248:	00000000 	andeq	r0, r0, r0
    224c:	00000400 	andeq	r0, r0, r0, lsl #8
    2250:	00979001 	addseq	r9, r7, r1
    2254:	00979800 	addseq	r9, r7, r0, lsl #16
    2258:	30000200 	andcc	r0, r0, r0, lsl #4
    225c:	0097989f 	umullseq	r9, r7, pc, r8	; <UNPREDICTABLE>
    2260:	00979800 	addseq	r9, r7, r0, lsl #16
    2264:	53000100 	movwpl	r0, #256	; 0x100
	...
    2270:	00000003 	andeq	r0, r0, r3
    2274:	00000000 	andeq	r0, r0, r0
    2278:	000097a4 	andeq	r9, r0, r4, lsr #15
    227c:	000097a8 	andeq	r9, r0, r8, lsr #15
    2280:	9f300002 	svcls	0x00300002
    2284:	000097a8 	andeq	r9, r0, r8, lsr #15
    2288:	000097ac 	andeq	r9, r0, ip, lsr #15
    228c:	ac530001 	mrrcge	0, 0, r0, r3, cr1
    2290:	b0000097 	mullt	r0, r7, r0
    2294:	05000097 	streq	r0, [r0, #-151]	; 0xffffff69
    2298:	40007300 	andmi	r7, r0, r0, lsl #6
    229c:	97b09f21 	ldrls	r9, [r0, r1, lsr #30]!
    22a0:	97b40000 	ldrls	r0, [r4, r0]!
    22a4:	00010000 	andeq	r0, r1, r0
    22a8:	00000053 	andeq	r0, r0, r3, asr r0
    22ac:	00000000 	andeq	r0, r0, r0
    22b0:	00000200 	andeq	r0, r0, r0, lsl #4
    22b4:	00976400 	addseq	r6, r7, r0, lsl #8
    22b8:	00976800 	addseq	r6, r7, r0, lsl #16
    22bc:	30000200 	andcc	r0, r0, r0, lsl #4
    22c0:	0097689f 	umullseq	r6, r7, pc, r8	; <UNPREDICTABLE>
    22c4:	00976c00 	addseq	r6, r7, r0, lsl #24
    22c8:	50000100 	andpl	r0, r0, r0, lsl #2
	...
    22d4:	00000002 	andeq	r0, r0, r2
    22d8:	00000000 	andeq	r0, r0, r0
    22dc:	0000977c 	andeq	r9, r0, ip, ror r7
    22e0:	00009780 	andeq	r9, r0, r0, lsl #15
    22e4:	9f300002 	svcls	0x00300002
    22e8:	00009780 	andeq	r9, r0, r0, lsl #15
    22ec:	00009784 	andeq	r9, r0, r4, lsl #15
    22f0:	84530001 	ldrbhi	r0, [r3], #-1
    22f4:	88000097 	stmdahi	r0, {r0, r1, r2, r4, r7}
    22f8:	05000097 	streq	r0, [r0, #-151]	; 0xffffff69
    22fc:	40007300 	andmi	r7, r0, r0, lsl #6
    2300:	97889f21 	strls	r9, [r8, r1, lsr #30]
    2304:	97900000 	ldrls	r0, [r0, r0]
    2308:	00010000 	andeq	r0, r1, r0
    230c:	00000053 	andeq	r0, r0, r3, asr r0
	...
    2318:	0000c800 	andeq	ip, r0, r0, lsl #16
    231c:	0000d800 	andeq	sp, r0, r0, lsl #16
    2320:	50000100 	andpl	r0, r0, r0, lsl #2
    2324:	000000d8 	ldrdeq	r0, [r0], -r8
    2328:	0000011c 	andeq	r0, r0, ip, lsl r1
    232c:	01f30004 	mvnseq	r0, r4
    2330:	00009f50 	andeq	r9, r0, r0, asr pc
    2334:	00000000 	andeq	r0, r0, r0
    2338:	00020000 	andeq	r0, r2, r0
    233c:	00c80000 	sbceq	r0, r8, r0
    2340:	00d80000 	sbcseq	r0, r8, r0
    2344:	00070000 	andeq	r0, r7, r0
    2348:	e80a0070 	stmda	sl, {r4, r5, r6}
    234c:	d89f1e03 	ldmle	pc, {r0, r1, r9, sl, fp, ip}	; <UNPREDICTABLE>
    2350:	1c000000 	stcne	0, cr0, [r0], {-0}
    2354:	08000001 	stmdaeq	r0, {r0}
    2358:	5001f300 	andpl	pc, r1, r0, lsl #6
    235c:	1e03e80a 	cdpne	8, 0, cr14, cr3, cr10, {0}
    2360:	0000009f 	muleq	r0, pc, r0	; <UNPREDICTABLE>
    2364:	00000000 	andeq	r0, r0, r0
    2368:	dc000000 	stcle	0, cr0, [r0], {-0}
    236c:	1c000000 	stcne	0, cr0, [r0], {-0}
    2370:	01000001 	tsteq	r0, r1
    2374:	00005400 	andeq	r5, r0, r0, lsl #8
    2378:	00000000 	andeq	r0, r0, r0
    237c:	00010000 	andeq	r0, r1, r0
    2380:	000000f0 	strdeq	r0, [r0], -r0	; <UNPREDICTABLE>
    2384:	0000011c 	andeq	r0, r0, ip, lsl r1
    2388:	00560001 	subseq	r0, r6, r1
	...
    2394:	ec000000 	stc	0, cr0, [r0], {-0}
    2398:	ef000000 	svc	0x00000000
    239c:	01000000 	mrseq	r0, (UNDEF: 0)
    23a0:	00ef5000 	rsceq	r5, pc, r0
    23a4:	011c0000 	tsteq	ip, r0
    23a8:	00010000 	andeq	r0, r1, r0
    23ac:	00000056 	andeq	r0, r0, r6, asr r0
    23b0:	00000000 	andeq	r0, r0, r0
    23b4:	04000000 	streq	r0, [r0], #-0
    23b8:	0b000001 	bleq	23c4 <__code_start__-0x5c3c>
    23bc:	01000001 	tsteq	r0, r1
    23c0:	00005000 	andeq	r5, r0, r0
	...
    23cc:	00200000 	eoreq	r0, r0, r0
    23d0:	00230000 	eoreq	r0, r3, r0
    23d4:	00010000 	andeq	r0, r1, r0
    23d8:	00002350 	andeq	r2, r0, r0, asr r3
    23dc:	00003000 	andeq	r3, r0, r0
    23e0:	54000100 	strpl	r0, [r0], #-256	; 0xffffff00
	...
    23f0:	00000030 	andeq	r0, r0, r0, lsr r0
    23f4:	0000003b 	andeq	r0, r0, fp, lsr r0
    23f8:	3b500001 	blcc	1402404 <__bss_end__+0x13f7654>
    23fc:	78000000 	stmdavc	r0, {}	; <UNPREDICTABLE>
    2400:	01000000 	mrseq	r0, (UNDEF: 0)
    2404:	00005600 	andeq	r5, r0, r0, lsl #12
    2408:	00000000 	andeq	r0, r0, r0
    240c:	00010000 	andeq	r0, r1, r0
    2410:	0000004c 	andeq	r0, r0, ip, asr #32
    2414:	00000078 	andeq	r0, r0, r8, ror r0
    2418:	00550001 	subseq	r0, r5, r1
	...
    2424:	48000000 	stmdami	r0, {}	; <UNPREDICTABLE>
    2428:	4b000000 	blmi	2430 <__code_start__-0x5bd0>
    242c:	01000000 	mrseq	r0, (UNDEF: 0)
    2430:	004b5000 	subeq	r5, fp, r0
    2434:	00780000 	rsbseq	r0, r8, r0
    2438:	00010000 	andeq	r0, r1, r0
    243c:	00000055 	andeq	r0, r0, r5, asr r0
    2440:	00000000 	andeq	r0, r0, r0
    2444:	60000000 	andvs	r0, r0, r0
    2448:	67000000 	strvs	r0, [r0, -r0]
    244c:	01000000 	mrseq	r0, (UNDEF: 0)
    2450:	00005000 	andeq	r5, r0, r0
	...
    245c:	00780000 	rsbseq	r0, r8, r0
    2460:	00840000 	addeq	r0, r4, r0
    2464:	00010000 	andeq	r0, r1, r0
    2468:	00008450 	andeq	r8, r0, r0, asr r4
    246c:	0000c800 	andeq	ip, r0, r0, lsl #16
    2470:	f3000400 	vshl.u8	d0, d0, d0
    2474:	009f5001 	addseq	r5, pc, r1
	...
    2480:	00008800 	andeq	r8, r0, r0, lsl #16
    2484:	0000c800 	andeq	ip, r0, r0, lsl #16
    2488:	54000100 	strpl	r0, [r0], #-256	; 0xffffff00
	...
    2494:	009c0001 	addseq	r0, ip, r1
    2498:	00c80000 	sbceq	r0, r8, r0
    249c:	00010000 	andeq	r0, r1, r0
    24a0:	00000056 	andeq	r0, r0, r6, asr r0
	...
    24ac:	00009800 	andeq	r9, r0, r0, lsl #16
    24b0:	00009b00 	andeq	r9, r0, r0, lsl #22
    24b4:	50000100 	andpl	r0, r0, r0, lsl #2
    24b8:	0000009b 	muleq	r0, fp, r0
    24bc:	000000c8 	andeq	r0, r0, r8, asr #1
    24c0:	00560001 	subseq	r0, r6, r1
	...
    24cc:	0000b000 	andeq	fp, r0, r0
    24d0:	0000b700 	andeq	fp, r0, r0, lsl #14
    24d4:	50000100 	andpl	r0, r0, r0, lsl #2
	...
    24e4:	00000158 	andeq	r0, r0, r8, asr r1
    24e8:	00000163 	andeq	r0, r0, r3, ror #2
    24ec:	63500001 	cmpvs	r0, #1, 0
    24f0:	88000001 	stmdahi	r0, {r0}
    24f4:	01000001 	tsteq	r0, r1
    24f8:	00005400 	andeq	r5, r0, r0, lsl #8
	...
    2504:	00000148 	andeq	r0, r0, r8, asr #2
    2508:	00000158 	andeq	r0, r0, r8, asr r1
    250c:	00540001 	subseq	r0, r4, r1
	...
    251c:	0f000000 	svceq	0x00000000
    2520:	01000000 	mrseq	r0, (UNDEF: 0)
    2524:	000f5000 	andeq	r5, pc, r0
    2528:	00200000 	eoreq	r0, r0, r0
    252c:	00010000 	andeq	r0, r1, r0
    2530:	00000054 	andeq	r0, r0, r4, asr r0
	...
    2540:	00000f00 	andeq	r0, r0, r0, lsl #30
    2544:	51000100 	mrspl	r0, (UNDEF: 16)
    2548:	0000000f 	andeq	r0, r0, pc
    254c:	00000020 	andeq	r0, r0, r0, lsr #32
    2550:	00550001 	subseq	r0, r5, r1
	...
    255c:	20000000 	andcs	r0, r0, r0
    2560:	2f000000 	svccs	0x00000000
    2564:	01000000 	mrseq	r0, (UNDEF: 0)
    2568:	002f5000 	eoreq	r5, pc, r0
    256c:	00400000 	subeq	r0, r0, r0
    2570:	00010000 	andeq	r0, r1, r0
    2574:	00000054 	andeq	r0, r0, r4, asr r0
	...
    2580:	00002000 	andeq	r2, r0, r0
    2584:	00002f00 	andeq	r2, r0, r0, lsl #30
    2588:	51000100 	mrspl	r0, (UNDEF: 16)
    258c:	0000002f 	andeq	r0, r0, pc, lsr #32
    2590:	00000040 	andeq	r0, r0, r0, asr #32
    2594:	00550001 	subseq	r0, r5, r1
	...
    25a4:	00035000 	andeq	r5, r3, r0
    25a8:	00039800 	andeq	r9, r3, r0, lsl #16
    25ac:	50000100 	andpl	r0, r0, r0, lsl #2
    25b0:	00000398 	muleq	r0, r8, r3
    25b4:	0000039b 	muleq	r0, fp, r3
    25b8:	68910002 	ldmvs	r1, {r1}
    25bc:	0000039b 	muleq	r0, fp, r3
    25c0:	000003b0 			; <UNDEFINED> instruction: 0x000003b0
    25c4:	01f30004 	mvnseq	r0, r4
    25c8:	00009f50 	andeq	r9, r0, r0, asr pc
	...
    25e4:	02200000 	eoreq	r0, r0, #0, 0
    25e8:	027b0000 	rsbseq	r0, fp, #0, 0
    25ec:	00010000 	andeq	r0, r1, r0
    25f0:	00027b50 	andeq	r7, r2, r0, asr fp
    25f4:	00028400 	andeq	r8, r2, r0, lsl #8
    25f8:	f3000400 	vshl.u8	d0, d0, d0
    25fc:	849f5001 	ldrhi	r5, [pc], #1	; 2604 <__code_start__-0x59fc>
    2600:	9c000002 	stcls	0, cr0, [r0], {2}
    2604:	01000002 	tsteq	r0, r2
    2608:	029c5000 	addseq	r5, ip, #0, 0
    260c:	02a40000 	adceq	r0, r4, #0, 0
    2610:	00040000 	andeq	r0, r4, r0
    2614:	9f5001f3 	svcls	0x005001f3
    2618:	000002a4 	andeq	r0, r0, r4, lsr #5
    261c:	000002a7 	andeq	r0, r0, r7, lsr #5
    2620:	a7500001 	ldrbge	r0, [r0, -r1]
    2624:	c8000002 	stmdagt	r0, {r1}
    2628:	04000002 	streq	r0, [r0], #-2
    262c:	5001f300 	andpl	pc, r1, r0, lsl #6
    2630:	0002c89f 	muleq	r2, pc, r8	; <UNPREDICTABLE>
    2634:	0002e000 	andeq	lr, r2, r0
    2638:	50000100 	andpl	r0, r0, r0, lsl #2
    263c:	000002e0 	andeq	r0, r0, r0, ror #5
    2640:	000002e8 	andeq	r0, r0, r8, ror #5
    2644:	01f30004 	mvnseq	r0, r4
    2648:	02e89f50 	rsceq	r9, r8, #80, 30	; 0x140
    264c:	02eb0000 	rsceq	r0, fp, #0, 0
    2650:	00010000 	andeq	r0, r1, r0
    2654:	0002eb50 	andeq	lr, r2, r0, asr fp
    2658:	00033800 	andeq	r3, r3, r0, lsl #16
    265c:	f3000400 	vshl.u8	d0, d0, d0
    2660:	009f5001 	addseq	r5, pc, r1
	...
    267c:	20000000 	andcs	r0, r0, r0
    2680:	44000002 	strmi	r0, [r0], #-2
    2684:	01000002 	tsteq	r0, r2
    2688:	02445100 	subeq	r5, r4, #0
    268c:	02680000 	rsbeq	r0, r8, #0, 0
    2690:	00010000 	andeq	r0, r1, r0
    2694:	00026851 	andeq	r6, r2, r1, asr r8
    2698:	00027b00 	andeq	r7, r2, r0, lsl #22
    269c:	71000300 	mrsvc	r0, LR_irq
    26a0:	027b9f01 	rsbseq	r9, fp, #1, 30
    26a4:	02840000 	addeq	r0, r4, #0, 0
    26a8:	00170000 	andseq	r0, r7, r0
    26ac:	5101f338 	tstpl	r1, r8, lsr r3	; <UNPREDICTABLE>
    26b0:	405101f3 	ldrshmi	r0, [r1], #-19	; 0xffffffed
    26b4:	0c22244b 	cfstrseq	mvf2, [r2], #-300	; 0xfffffed4
    26b8:	80000008 	andhi	r0, r0, r8
    26bc:	0001282d 	andeq	r2, r1, sp, lsr #16
    26c0:	849f1316 	ldrhi	r1, [pc], #790	; 26c8 <__code_start__-0x5938>
    26c4:	98000002 	stmdals	r0, {r1}
    26c8:	01000002 	tsteq	r0, r2
    26cc:	02985100 	addseq	r5, r8, #0
    26d0:	02a40000 	adceq	r0, r4, #0, 0
    26d4:	00040000 	andeq	r0, r4, r0
    26d8:	9f5101f3 	svcls	0x005101f3
    26dc:	000002a4 	andeq	r0, r0, r4, lsr #5
    26e0:	000002a7 	andeq	r0, r0, r7, lsr #5
    26e4:	a7510001 	ldrbge	r0, [r1, -r1]
    26e8:	c8000002 	stmdagt	r0, {r1}
    26ec:	04000002 	streq	r0, [r0], #-2
    26f0:	5101f300 	mrspl	pc, SP_irq	; <UNPREDICTABLE>
    26f4:	0002c89f 	muleq	r2, pc, r8	; <UNPREDICTABLE>
    26f8:	0002dc00 	andeq	sp, r2, r0, lsl #24
    26fc:	51000100 	mrspl	r0, (UNDEF: 16)
    2700:	000002dc 	ldrdeq	r0, [r0], -ip
    2704:	00000338 	andeq	r0, r0, r8, lsr r3
    2708:	f3380017 	vqadd.u64	d0, d8, d7
    270c:	01f35101 	mvnseq	r5, r1, lsl #2
    2710:	244b4051 	strbcs	r4, [fp], #-81	; 0xffffffaf
    2714:	00080c22 	andeq	r0, r8, r2, lsr #24
    2718:	282d8000 	stmdacs	sp!, {pc}
    271c:	13160001 	tstne	r6, #1, 0
    2720:	0000009f 	muleq	r0, pc, r0	; <UNPREDICTABLE>
	...
    2734:	00024c00 	andeq	r4, r2, r0, lsl #24
    2738:	00025c00 	andeq	r5, r2, r0, lsl #24
    273c:	52000100 	andpl	r0, r0, #0
    2740:	0000025c 	andeq	r0, r0, ip, asr r2
    2744:	00000264 	andeq	r0, r0, r4, ror #4
    2748:	78030005 	stmdavc	r3, {r0, r2}
    274c:	640000a9 	strvs	r0, [r0], #-169	; 0xffffff57
    2750:	7b000002 	blvc	2760 <__code_start__-0x58a0>
    2754:	01000002 	tsteq	r0, r2
    2758:	02c85300 	sbceq	r5, r8, #0, 6
    275c:	02d80000 	sbcseq	r0, r8, #0, 0
    2760:	00010000 	andeq	r0, r1, r0
    2764:	0002d852 	andeq	sp, r2, r2, asr r8
    2768:	0002e300 	andeq	lr, r2, r0, lsl #6
    276c:	03000500 	movweq	r0, #1280	; 0x500
    2770:	0000a978 	andeq	sl, r0, r8, ror r9
    2774:	000002e8 	andeq	r0, r0, r8, ror #5
    2778:	000002eb 	andeq	r0, r0, fp, ror #5
    277c:	00530001 	subseq	r0, r3, r1
    2780:	00000000 	andeq	r0, r0, r0
    2784:	04000000 	streq	r0, [r0], #-0
    2788:	00023000 	andeq	r3, r2, r0
    278c:	00023400 	andeq	r3, r2, r0, lsl #8
    2790:	51000100 	mrspl	r0, (UNDEF: 16)
	...
    279c:	023c0002 	eorseq	r0, ip, #2, 0
    27a0:	02440000 	subeq	r0, r4, #0, 0
    27a4:	00020000 	andeq	r0, r2, r0
    27a8:	00009f38 	andeq	r9, r0, r8, lsr pc
    27ac:	00000000 	andeq	r0, r0, r0
    27b0:	00020000 	andeq	r0, r2, r0
    27b4:	0000023c 	andeq	r0, r0, ip, lsr r2
    27b8:	00000244 	andeq	r0, r0, r4, asr #4
    27bc:	00510001 	subseq	r0, r1, r1
    27c0:	00000000 	andeq	r0, r0, r0
    27c4:	01000000 	mrseq	r0, (UNDEF: 0)
    27c8:	00000000 	andeq	r0, r0, r0
    27cc:	00024c00 	andeq	r4, r2, r0, lsl #24
    27d0:	00026400 	andeq	r6, r2, r0, lsl #8
    27d4:	51000100 	mrspl	r0, (UNDEF: 16)
    27d8:	000002c8 	andeq	r0, r0, r8, asr #5
    27dc:	000002dc 	ldrdeq	r0, [r0], -ip
    27e0:	dc510001 	mrrcle	0, 0, r0, r1, cr1
    27e4:	e8000002 	stmda	r0, {r1}
    27e8:	17000002 	strne	r0, [r0, -r2]
    27ec:	01f33800 	mvnseq	r3, r0, lsl #16
    27f0:	5101f351 	tstpl	r1, r1, asr r3	; <UNPREDICTABLE>
    27f4:	22244b40 	eorcs	r4, r4, #64, 22	; 0x10000
    27f8:	0000080c 	andeq	r0, r0, ip, lsl #16
    27fc:	01282d80 	smlawbeq	r8, r0, sp, r2
    2800:	9f131600 	svcls	0x00131600
	...
    280c:	00000001 	andeq	r0, r0, r1
    2810:	00000000 	andeq	r0, r0, r0
    2814:	0000024c 	andeq	r0, r0, ip, asr #4
    2818:	0000025c 	andeq	r0, r0, ip, asr r2
    281c:	5c520001 	mrrcpl	0, 0, r0, r2, cr1
    2820:	64000002 	strvs	r0, [r0], #-2
    2824:	05000002 	streq	r0, [r0, #-2]
    2828:	a9780300 	ldmdbge	r8!, {r8, r9}^
    282c:	02c80000 	sbceq	r0, r8, #0, 0
    2830:	02d80000 	sbcseq	r0, r8, #0, 0
    2834:	00010000 	andeq	r0, r1, r0
    2838:	0002d852 	andeq	sp, r2, r2, asr r8
    283c:	0002e300 	andeq	lr, r2, r0, lsl #6
    2840:	03000500 	movweq	r0, #1280	; 0x500
    2844:	0000a978 	andeq	sl, r0, r8, ror r9
	...
    2850:	024c0004 	subeq	r0, ip, #4, 0
    2854:	02500000 	subseq	r0, r0, #0, 0
    2858:	00010000 	andeq	r0, r1, r0
    285c:	00000051 	andeq	r0, r0, r1, asr r0
    2860:	00000000 	andeq	r0, r0, r0
    2864:	64000300 	strvs	r0, [r0], #-768	; 0xfffffd00
    2868:	68000002 	stmdavs	r0, {r1}
    286c:	01000002 	tsteq	r0, r2
    2870:	00005100 	andeq	r5, r0, r0, lsl #2
    2874:	00000000 	andeq	r0, r0, r0
    2878:	00030000 	andeq	r0, r3, r0
    287c:	00000264 	andeq	r0, r0, r4, ror #4
    2880:	00000268 	andeq	r0, r0, r8, ror #4
    2884:	00530001 	subseq	r0, r3, r1
	...
    2894:	bc000000 	stclt	0, cr0, [r0], {-0}
    2898:	d3000001 	movwle	r0, #1
    289c:	01000001 	tsteq	r0, r1
    28a0:	01d35000 	bicseq	r5, r3, r0
    28a4:	01f00000 	mvnseq	r0, r0
    28a8:	00010000 	andeq	r0, r1, r0
    28ac:	0001f054 	andeq	pc, r1, r4, asr r0	; <UNPREDICTABLE>
    28b0:	00020800 	andeq	r0, r2, r0, lsl #16
    28b4:	50000100 	andpl	r0, r0, r0, lsl #2
    28b8:	00000208 	andeq	r0, r0, r8, lsl #4
    28bc:	00000220 	andeq	r0, r0, r0, lsr #4
    28c0:	00540001 	subseq	r0, r4, r1
	...
    28cc:	d8000000 	stmdale	r0, {}	; <UNPREDICTABLE>
    28d0:	e3000001 	movw	r0, #1
    28d4:	01000001 	tsteq	r0, r1
    28d8:	01e35000 	mvneq	r5, r0
    28dc:	01f00000 	mvnseq	r0, r0
    28e0:	00010000 	andeq	r0, r1, r0
    28e4:	00000055 	andeq	r0, r0, r5, asr r0
	...
    28fc:	00012400 	andeq	r2, r1, r0, lsl #8
    2900:	00013800 	andeq	r3, r1, r0, lsl #16
    2904:	50000100 	andpl	r0, r0, r0, lsl #2
    2908:	00000138 	andeq	r0, r0, r8, lsr r1
    290c:	0000013c 	andeq	r0, r0, ip, lsr r1
    2910:	79700003 	ldmdbvc	r0!, {r0, r1}^
    2914:	00013c9f 	muleq	r1, pc, ip	; <UNPREDICTABLE>
    2918:	00016000 	andeq	r6, r1, r0
    291c:	53000100 	movwpl	r0, #256	; 0x100
    2920:	00000160 	andeq	r0, r0, r0, ror #2
    2924:	00000178 	andeq	r0, r0, r8, ror r1
    2928:	78500001 	ldmdavc	r0, {r0}^
    292c:	80000001 	andhi	r0, r0, r1
    2930:	04000001 	streq	r0, [r0], #-1
    2934:	5001f300 	andpl	pc, r1, r0, lsl #6
    2938:	0001809f 	muleq	r1, pc, r0	; <UNPREDICTABLE>
    293c:	00019000 	andeq	r9, r1, r0
    2940:	53000100 	movwpl	r0, #256	; 0x100
    2944:	00000190 	muleq	r0, r0, r1
    2948:	0000019f 	muleq	r0, pc, r1	; <UNPREDICTABLE>
    294c:	68910002 	ldmvs	r1, {r1}
    2950:	0000019f 	muleq	r0, pc, r1	; <UNPREDICTABLE>
    2954:	000001bc 			; <UNDEFINED> instruction: 0x000001bc
    2958:	01f30009 	mvnseq	r0, r9
    295c:	09072350 	stmdbeq	r7, {r4, r6, r8, r9, sp}
    2960:	009f1af8 			; <UNDEFINED> instruction: 0x009f1af8
	...
    296c:	44000000 	strmi	r0, [r0], #-0
    2970:	60000001 	andvs	r0, r0, r1
    2974:	01000001 	tsteq	r0, r1
    2978:	01805000 	orreq	r5, r0, r0
    297c:	019c0000 	orrseq	r0, ip, r0
    2980:	00010000 	andeq	r0, r1, r0
    2984:	00000050 	andeq	r0, r0, r0, asr r0
    2988:	00000000 	andeq	r0, r0, r0
    298c:	34000300 	strcc	r0, [r0], #-768	; 0xfffffd00
    2990:	3c000001 	stccc	0, cr0, [r0], {1}
    2994:	02000001 	andeq	r0, r0, #1, 0
    2998:	009f3800 	addseq	r3, pc, r0, lsl #16
    299c:	00000000 	andeq	r0, r0, r0
    29a0:	03000000 	movweq	r0, #0
    29a4:	34000000 	strcc	r0, [r0], #-0
    29a8:	38000001 	stmdacc	r0, {r0}
    29ac:	01000001 	tsteq	r0, r1
    29b0:	01385000 	teqeq	r8, r0
    29b4:	013c0000 	teqeq	ip, r0
    29b8:	00030000 	andeq	r0, r3, r0
    29bc:	009f7970 	addseq	r7, pc, r0, ror r9	; <UNPREDICTABLE>
	...
    29d4:	00003000 	andeq	r3, r0, r0
    29d8:	00006000 	andeq	r6, r0, r0
    29dc:	50000100 	andpl	r0, r0, r0, lsl #2
    29e0:	00000060 	andeq	r0, r0, r0, rrx
    29e4:	0000006c 	andeq	r0, r0, ip, rrx
    29e8:	78030005 	stmdavc	r3, {r0, r2}
    29ec:	6c0000a9 	stcvs	0, cr0, [r0], {169}	; 0xa9
    29f0:	84000000 	strhi	r0, [r0], #-0
    29f4:	01000000 	mrseq	r0, (UNDEF: 0)
    29f8:	00845000 	addeq	r5, r4, r0
    29fc:	008c0000 	addeq	r0, ip, r0
    2a00:	00040000 	andeq	r0, r4, r0
    2a04:	9f5001f3 	svcls	0x005001f3
    2a08:	0000008c 	andeq	r0, r0, ip, lsl #1
    2a0c:	000000ac 	andeq	r0, r0, ip, lsr #1
    2a10:	ac500001 	mrrcge	0, 0, r0, r0, cr1	; <UNPREDICTABLE>
    2a14:	af000000 	svcge	0x00000000
    2a18:	02000000 	andeq	r0, r0, #0, 0
    2a1c:	af689100 	svcge	0x00689100
    2a20:	cc000000 	stcgt	0, cr0, [r0], {-0}
    2a24:	04000000 	streq	r0, [r0], #-0
    2a28:	5001f300 	andpl	pc, r1, r0, lsl #6
    2a2c:	0000009f 	muleq	r0, pc, r0	; <UNPREDICTABLE>
	...
    2a3c:	00003000 	andeq	r3, r0, r0
    2a40:	00008000 	andeq	r8, r0, r0
    2a44:	51000100 	mrspl	r0, (UNDEF: 16)
    2a48:	00000080 	andeq	r0, r0, r0, lsl #1
    2a4c:	0000008c 	andeq	r0, r0, ip, lsl #1
    2a50:	01f30004 	mvnseq	r0, r4
    2a54:	008c9f51 	addeq	r9, ip, r1, asr pc
    2a58:	00a80000 	adceq	r0, r8, r0
    2a5c:	00010000 	andeq	r0, r1, r0
    2a60:	0000a851 	andeq	sl, r0, r1, asr r8
    2a64:	0000cc00 	andeq	ip, r0, r0, lsl #24
    2a68:	f3000400 	vshl.u8	d0, d0, d0
    2a6c:	009f5101 	addseq	r5, pc, r1, lsl #2
    2a70:	00000000 	andeq	r0, r0, r0
    2a74:	01000000 	mrseq	r0, (UNDEF: 0)
	...
    2a84:	00003800 	andeq	r3, r0, r0, lsl #16
    2a88:	00006000 	andeq	r6, r0, r0
    2a8c:	50000100 	andpl	r0, r0, r0, lsl #2
    2a90:	00000060 	andeq	r0, r0, r0, rrx
    2a94:	0000006c 	andeq	r0, r0, ip, rrx
    2a98:	78030005 	stmdavc	r3, {r0, r2}
    2a9c:	6c0000a9 	stcvs	0, cr0, [r0], {169}	; 0xa9
    2aa0:	84000000 	strhi	r0, [r0], #-0
    2aa4:	01000000 	mrseq	r0, (UNDEF: 0)
    2aa8:	00845000 	addeq	r5, r4, r0
    2aac:	008c0000 	addeq	r0, ip, r0
    2ab0:	00040000 	andeq	r0, r4, r0
    2ab4:	9f5001f3 	svcls	0x005001f3
    2ab8:	0000008c 	andeq	r0, r0, ip, lsl #1
    2abc:	000000ac 	andeq	r0, r0, ip, lsr #1
    2ac0:	ac500001 	mrrcge	0, 0, r0, r0, cr1	; <UNPREDICTABLE>
    2ac4:	af000000 	svcge	0x00000000
    2ac8:	02000000 	andeq	r0, r0, #0, 0
    2acc:	af689100 	svcge	0x00689100
    2ad0:	cc000000 	stcgt	0, cr0, [r0], {-0}
    2ad4:	04000000 	streq	r0, [r0], #-0
    2ad8:	5001f300 	andpl	pc, r1, r0, lsl #6
    2adc:	0000009f 	muleq	r0, pc, r0	; <UNPREDICTABLE>
	...
    2ae8:	70000000 	andvc	r0, r0, r0
    2aec:	7c000001 	stcvc	0, cr0, [r0], {1}
    2af0:	01000001 	tsteq	r0, r1
    2af4:	017c5000 	cmneq	ip, r0
    2af8:	01880000 	orreq	r0, r8, r0
    2afc:	00010000 	andeq	r0, r1, r0
    2b00:	00018854 	andeq	r8, r1, r4, asr r8
    2b04:	00019800 	andeq	r9, r1, r0, lsl #16
    2b08:	f3000400 	vshl.u8	d0, d0, d0
    2b0c:	009f5001 	addseq	r5, pc, r1
	...
    2b20:	00017800 	andeq	r7, r1, r0, lsl #16
    2b24:	00017c00 	andeq	r7, r1, r0, lsl #24
    2b28:	70000b00 	andvc	r0, r0, r0, lsl #22
    2b2c:	23253500 			; <UNDEFINED> instruction: 0x23253500
    2b30:	818080b4 	strhhi	r8, [r0, r4]
    2b34:	017c9f02 	cmneq	ip, r2, lsl #30
    2b38:	01800000 	orreq	r0, r0, r0
    2b3c:	000b0000 	andeq	r0, fp, r0
    2b40:	25350074 	ldrcs	r0, [r5, #-116]!	; 0xffffff8c
    2b44:	8080b423 	addhi	fp, r0, r3, lsr #8
    2b48:	809f0281 	addshi	r0, pc, r1, lsl #5
    2b4c:	83000001 	movwhi	r0, #1
    2b50:	01000001 	tsteq	r0, r1
    2b54:	01835000 	orreq	r5, r3, r0
    2b58:	01880000 	orreq	r0, r8, r0
    2b5c:	000b0000 	andeq	r0, fp, r0
    2b60:	25350074 	ldrcs	r0, [r5, #-116]!	; 0xffffff8c
    2b64:	8080b423 	addhi	fp, r0, r3, lsr #8
    2b68:	889f0281 	ldmhi	pc, {r0, r7, r9}	; <UNPREDICTABLE>
    2b6c:	98000001 	stmdals	r0, {r0}
    2b70:	0c000001 	stceq	0, cr0, [r0], {1}
    2b74:	5001f300 	andpl	pc, r1, r0, lsl #6
    2b78:	b4232535 	strtlt	r2, [r3], #-1333	; 0xfffffacb
    2b7c:	02818080 	addeq	r8, r1, #128, 0	; 0x80
    2b80:	0000009f 	muleq	r0, pc, r0	; <UNPREDICTABLE>
    2b84:	00000000 	andeq	r0, r0, r0
    2b88:	00000100 	andeq	r0, r0, r0, lsl #2
    2b8c:	78000000 	stmdavc	r0, {}	; <UNPREDICTABLE>
    2b90:	7c000001 	stcvc	0, cr0, [r0], {1}
    2b94:	05000001 	streq	r0, [r0, #-1]
    2b98:	4f007000 	svcmi	0x00007000
    2b9c:	017c9f1a 	cmneq	ip, sl, lsl pc
    2ba0:	01880000 	orreq	r0, r8, r0
    2ba4:	00050000 	andeq	r0, r5, r0
    2ba8:	1a4f0074 	bne	13c2d80 <__bss_end__+0x13b7fd0>
    2bac:	0001889f 	muleq	r1, pc, r8	; <UNPREDICTABLE>
    2bb0:	00019800 	andeq	r9, r1, r0, lsl #16
    2bb4:	54000100 	strpl	r0, [r0], #-256	; 0xffffff00
	...
    2bcc:	00000140 	andeq	r0, r0, r0, asr #2
    2bd0:	00000154 	andeq	r0, r0, r4, asr r1
    2bd4:	54500001 	ldrbpl	r0, [r0], #-1
    2bd8:	58000001 	stmdapl	r0, {r0}
    2bdc:	01000001 	tsteq	r0, r1
    2be0:	01585100 	cmpeq	r8, r0, lsl #2
    2be4:	015c0000 	cmpeq	ip, r0
    2be8:	00040000 	andeq	r0, r4, r0
    2bec:	9f5001f3 	svcls	0x005001f3
    2bf0:	0000015c 	andeq	r0, r0, ip, asr r1
    2bf4:	00000160 	andeq	r0, r0, r0, ror #2
    2bf8:	60500001 	subsvs	r0, r0, r1
    2bfc:	64000001 	strvs	r0, [r0], #-1
    2c00:	01000001 	tsteq	r0, r1
    2c04:	01645100 	cmneq	r4, r0, lsl #2
    2c08:	01700000 	cmneq	r0, r0
    2c0c:	00040000 	andeq	r0, r4, r0
    2c10:	9f5001f3 	svcls	0x005001f3
	...
    2c20:	00000140 	andeq	r0, r0, r0, asr #2
    2c24:	0000014c 	andeq	r0, r0, ip, asr #2
    2c28:	4c510001 	mrrcmi	0, 0, r0, r1, cr1
    2c2c:	70000001 	andvc	r0, r0, r1
    2c30:	04000001 	streq	r0, [r0], #-1
    2c34:	5101f300 	mrspl	pc, SP_irq	; <UNPREDICTABLE>
    2c38:	0000009f 	muleq	r0, pc, r0	; <UNPREDICTABLE>
    2c3c:	00000000 	andeq	r0, r0, r0
    2c40:	00000100 	andeq	r0, r0, r0, lsl #2
    2c44:	50000000 	andpl	r0, r0, r0
    2c48:	54000001 	strpl	r0, [r0], #-1
    2c4c:	01000001 	tsteq	r0, r1
    2c50:	01545000 	cmpeq	r4, r0
    2c54:	01580000 	cmpeq	r8, r0
    2c58:	00010000 	andeq	r0, r1, r0
    2c5c:	00015851 	andeq	r5, r1, r1, asr r8
    2c60:	00015c00 	andeq	r5, r1, r0, lsl #24
    2c64:	f3000400 	vshl.u8	d0, d0, d0
    2c68:	009f5001 	addseq	r5, pc, r1
    2c6c:	00000000 	andeq	r0, r0, r0
    2c70:	02000000 	andeq	r0, r0, #0, 0
    2c74:	00000000 	andeq	r0, r0, r0
    2c78:	00015c00 	andeq	r5, r1, r0, lsl #24
    2c7c:	00016000 	andeq	r6, r1, r0
    2c80:	50000100 	andpl	r0, r0, r0, lsl #2
    2c84:	00000160 	andeq	r0, r0, r0, ror #2
    2c88:	00000164 	andeq	r0, r0, r4, ror #2
    2c8c:	64510001 	ldrbvs	r0, [r1], #-1
    2c90:	70000001 	andvc	r0, r0, r1
    2c94:	04000001 	streq	r0, [r0], #-1
    2c98:	5001f300 	andpl	pc, r1, r0, lsl #6
    2c9c:	0000009f 	muleq	r0, pc, r0	; <UNPREDICTABLE>
	...
    2ca8:	e8000000 	stmda	r0, {}	; <UNPREDICTABLE>
    2cac:	08000000 	stmdaeq	r0, {}	; <UNPREDICTABLE>
    2cb0:	01000001 	tsteq	r0, r1
    2cb4:	01085000 	mrseq	r5, (UNDEF: 8)
    2cb8:	01280000 			; <UNDEFINED> instruction: 0x01280000
    2cbc:	00010000 	andeq	r0, r1, r0
    2cc0:	00012854 	andeq	r2, r1, r4, asr r8
    2cc4:	00014000 	andeq	r4, r1, r0
    2cc8:	f3000400 	vshl.u8	d0, d0, d0
    2ccc:	009f5001 	addseq	r5, pc, r1
    2cd0:	00000000 	andeq	r0, r0, r0
    2cd4:	02000000 	andeq	r0, r0, #0, 0
    2cd8:	00000000 	andeq	r0, r0, r0
    2cdc:	0000e800 	andeq	lr, r0, r0, lsl #16
    2ce0:	00010800 	andeq	r0, r1, r0, lsl #16
    2ce4:	50000100 	andpl	r0, r0, r0, lsl #2
    2ce8:	00000108 	andeq	r0, r0, r8, lsl #2
    2cec:	00000128 	andeq	r0, r0, r8, lsr #2
    2cf0:	28540001 	ldmdacs	r4, {r0}^
    2cf4:	40000001 	andmi	r0, r0, r1
    2cf8:	04000001 	streq	r0, [r0], #-1
    2cfc:	5001f300 	andpl	pc, r1, r0, lsl #6
    2d00:	0000009f 	muleq	r0, pc, r0	; <UNPREDICTABLE>
	...
    2d0c:	f0000000 			; <UNDEFINED> instruction: 0xf0000000
    2d10:	08000000 	stmdaeq	r0, {}	; <UNPREDICTABLE>
    2d14:	01000001 	tsteq	r0, r1
    2d18:	01085000 	mrseq	r5, (UNDEF: 8)
    2d1c:	01280000 			; <UNDEFINED> instruction: 0x01280000
    2d20:	00010000 	andeq	r0, r1, r0
    2d24:	00012854 	andeq	r2, r1, r4, asr r8
    2d28:	00014000 	andeq	r4, r1, r0
    2d2c:	f3000400 	vshl.u8	d0, d0, d0
    2d30:	009f5001 	addseq	r5, pc, r1
    2d34:	00000000 	andeq	r0, r0, r0
    2d38:	03000000 	movweq	r0, #0
    2d3c:	00000000 	andeq	r0, r0, r0
    2d40:	0000f000 	andeq	pc, r0, r0
    2d44:	00010800 	andeq	r0, r1, r0, lsl #16
    2d48:	70000700 	andvc	r0, r0, r0, lsl #14
    2d4c:	331d3a00 	tstcc	sp, #0, 20
    2d50:	01089f1e 	tsteq	r8, lr, lsl pc
    2d54:	01280000 			; <UNDEFINED> instruction: 0x01280000
    2d58:	00070000 	andeq	r0, r7, r0
    2d5c:	1d3a0074 	ldcne	0, cr0, [sl, #-464]!	; 0xfffffe30
    2d60:	289f1e33 	ldmcs	pc, {r0, r1, r4, r5, r9, sl, fp, ip}	; <UNPREDICTABLE>
    2d64:	40000001 	andmi	r0, r0, r1
    2d68:	08000001 	stmdaeq	r0, {r0}
    2d6c:	5001f300 	andpl	pc, r1, r0, lsl #6
    2d70:	1e331d3a 	mrcne	13, 1, r1, cr3, cr10, {1}
    2d74:	0000009f 	muleq	r0, pc, r0	; <UNPREDICTABLE>
	...
    2d80:	10000000 	andne	r0, r0, r0
    2d84:	38000001 	stmdacc	r0, {r0}
    2d88:	01000001 	tsteq	r0, r1
    2d8c:	01385600 	teqeq	r8, r0, lsl #12
    2d90:	013b0000 	teqeq	fp, r0
    2d94:	00010000 	andeq	r0, r1, r0
    2d98:	00013b50 	andeq	r3, r1, r0, asr fp
    2d9c:	00014000 	andeq	r4, r1, r0
    2da0:	f3002600 	vmax.u8	d2, d0, d0
    2da4:	2cf75001 	ldclcs	0, cr5, [r7], #4
    2da8:	25f425f7 	ldrbcs	r2, [r4, #1527]!	; 0x5f7
    2dac:	cccccd08 	stclgt	13, cr12, [ip], {8}
    2db0:	000000cc 	andeq	r0, r0, ip, asr #1
    2db4:	20081e00 	andcs	r1, r8, r0, lsl #28
    2db8:	f72525f7 			; <UNDEFINED> instruction: 0xf72525f7
    2dbc:	3300f72c 	movwcc	pc, #1836	; 0x72c	; <UNPREDICTABLE>
    2dc0:	80802325 	addhi	r2, r0, r5, lsr #6
    2dc4:	243240a0 	ldrtcs	r4, [r2], #-160	; 0xffffff60
    2dc8:	0000009f 	muleq	r0, pc, r0	; <UNPREDICTABLE>
    2dcc:	00000000 	andeq	r0, r0, r0
    2dd0:	01010000 	mrseq	r0, (UNDEF: 1)
    2dd4:	00000000 	andeq	r0, r0, r0
    2dd8:	00012000 	andeq	r2, r1, r0
    2ddc:	00012000 	andeq	r2, r1, r0
    2de0:	50000100 	andpl	r0, r0, r0, lsl #2
    2de4:	00000120 	andeq	r0, r0, r0, lsr #2
    2de8:	00000128 	andeq	r0, r0, r8, lsr #2
    2dec:	7437000d 	ldrtvc	r0, [r7], #-13
    2df0:	331d3a00 	tstcc	sp, #0, 20
    2df4:	7020241e 	eorvc	r2, r0, lr, lsl r4
    2df8:	289f1a00 	ldmcs	pc, {r9, fp, ip}	; <UNPREDICTABLE>
    2dfc:	30000001 	andcc	r0, r0, r1
    2e00:	0e000001 	cdpeq	0, 0, cr0, cr0, cr1, {0}
    2e04:	01f33700 	mvnseq	r3, r0, lsl #14
    2e08:	331d3a50 	tstcc	sp, #80, 20	; 0x50000
    2e0c:	7020241e 	eorvc	r2, r0, lr, lsl r4
    2e10:	309f1a00 	addscc	r1, pc, r0, lsl #20
    2e14:	3b000001 	blcc	2e20 <__code_start__-0x51e0>
    2e18:	0e000001 	cdpeq	0, 0, cr0, cr0, cr1, {0}
    2e1c:	01f33700 	mvnseq	r3, r0, lsl #14
    2e20:	331d3a50 	tstcc	sp, #80, 20	; 0x50000
    2e24:	7320241e 			; <UNDEFINED> instruction: 0x7320241e
    2e28:	009f1a00 	addseq	r1, pc, r0, lsl #20
	...
    2e34:	60000000 	andvs	r0, r0, r0
    2e38:	90000000 	andls	r0, r0, r0
    2e3c:	01000000 	mrseq	r0, (UNDEF: 0)
    2e40:	00905000 	addseq	r5, r0, r0
    2e44:	00b80000 	adcseq	r0, r8, r0
    2e48:	00040000 	andeq	r0, r4, r0
    2e4c:	9f5001f3 	svcls	0x005001f3
	...
    2e58:	00000002 	andeq	r0, r0, r2
    2e5c:	00000060 	andeq	r0, r0, r0, rrx
    2e60:	00000090 	muleq	r0, r0, r0
    2e64:	90500001 	subsls	r0, r0, r1
    2e68:	b8000000 	stmdalt	r0, {}	; <UNPREDICTABLE>
    2e6c:	04000000 	streq	r0, [r0], #-0
    2e70:	5001f300 	andpl	pc, r1, r0, lsl #6
    2e74:	0000009f 	muleq	r0, pc, r0	; <UNPREDICTABLE>
	...
    2e80:	00006800 	andeq	r6, r0, r0, lsl #16
    2e84:	00009000 	andeq	r9, r0, r0
    2e88:	50000100 	andpl	r0, r0, r0, lsl #2
    2e8c:	00000090 	muleq	r0, r0, r0
    2e90:	000000b8 	strheq	r0, [r0], -r8
    2e94:	01f30004 	mvnseq	r0, r4
    2e98:	00009f50 	andeq	r9, r0, r0, asr pc
	...
    2ea4:	00a00000 	adceq	r0, r0, r0
    2ea8:	00b00000 	adcseq	r0, r0, r0
    2eac:	00010000 	andeq	r0, r1, r0
    2eb0:	0000b054 	andeq	fp, r0, r4, asr r0
    2eb4:	0000b800 	andeq	fp, r0, r0, lsl #16
    2eb8:	f3002900 	vmls.i8	d2, d0, d0
    2ebc:	01f35001 	mvnseq	r5, r1
    2ec0:	f72cf750 			; <UNDEFINED> instruction: 0xf72cf750
    2ec4:	0825f425 	stmdaeq	r5!, {r0, r2, r5, sl, ip, sp, lr, pc}
    2ec8:	cccccccd 	stclgt	12, cr12, [ip], {205}	; 0xcd
    2ecc:	00000000 	andeq	r0, r0, r0
    2ed0:	f720081e 			; <UNDEFINED> instruction: 0xf720081e
    2ed4:	2cf72525 	cfldr64cs	mvdx2, [r7], #148	; 0x94
    2ed8:	253300f7 	ldrcs	r0, [r3, #-247]!	; 0xffffff09
    2edc:	24311e35 	ldrtcs	r1, [r1], #-3637	; 0xfffff1cb
    2ee0:	9f1e331c 	svcls	0x001e331c
	...
    2eec:	00000001 	andeq	r0, r0, r1
    2ef0:	00a00000 	adceq	r0, r0, r0
    2ef4:	00b00000 	adcseq	r0, r0, r0
    2ef8:	00010000 	andeq	r0, r1, r0
    2efc:	0000b055 	andeq	fp, r0, r5, asr r0
    2f00:	0000b300 	andeq	fp, r0, r0, lsl #6
    2f04:	50000100 	andpl	r0, r0, r0, lsl #2
    2f08:	000000b3 	strheq	r0, [r0], -r3
    2f0c:	000000b8 	strheq	r0, [r0], -r8
    2f10:	01f30026 	mvnseq	r0, r6, lsr #32
    2f14:	f72cf750 			; <UNDEFINED> instruction: 0xf72cf750
    2f18:	0825f425 	stmdaeq	r5!, {r0, r2, r5, sl, ip, sp, lr, pc}
    2f1c:	cccccccd 	stclgt	12, cr12, [ip], {205}	; 0xcd
    2f20:	00000000 	andeq	r0, r0, r0
    2f24:	f720081e 			; <UNDEFINED> instruction: 0xf720081e
    2f28:	2cf72525 	cfldr64cs	mvdx2, [r7], #148	; 0x94
    2f2c:	253300f7 	ldrcs	r0, [r3, #-247]!	; 0xffffff09
    2f30:	a0808023 	addge	r8, r0, r3, lsr #32
    2f34:	9f243240 	svcls	0x00243240
	...
    2f40:	01000002 	tsteq	r0, r2
    2f44:	00000001 	andeq	r0, r0, r1
    2f48:	000000a0 	andeq	r0, r0, r0, lsr #1
    2f4c:	000000a4 	andeq	r0, r0, r4, lsr #1
    2f50:	a4500001 	ldrbge	r0, [r0], #-1
    2f54:	a4000000 	strge	r0, [r0], #-0
    2f58:	01000000 	mrseq	r0, (UNDEF: 0)
    2f5c:	00a45300 	adceq	r5, r4, r0, lsl #6
    2f60:	00a80000 	adceq	r0, r8, r0
    2f64:	00080000 	andeq	r0, r8, r0
    2f68:	24007431 	strcs	r7, [r0], #-1073	; 0xfffffbcf
    2f6c:	9f210073 	svcls	0x00210073
    2f70:	000000a8 	andeq	r0, r0, r8, lsr #1
    2f74:	000000b3 	strheq	r0, [r0], -r3
    2f78:	00510001 	subseq	r0, r1, r1
	...
    2f88:	3c000000 	stccc	0, cr0, [r0], {-0}
    2f8c:	01000000 	mrseq	r0, (UNDEF: 0)
    2f90:	003c5000 	eorseq	r5, ip, r0
    2f94:	00600000 	rsbeq	r0, r0, r0
    2f98:	00040000 	andeq	r0, r4, r0
    2f9c:	9f5001f3 	svcls	0x005001f3
	...
    2fb0:	0000003f 	andeq	r0, r0, pc, lsr r0
    2fb4:	3f510001 	svccc	0x00510001
    2fb8:	60000000 	andvs	r0, r0, r0
    2fbc:	04000000 	streq	r0, [r0], #-0
    2fc0:	5101f300 	mrspl	pc, SP_irq	; <UNPREDICTABLE>
    2fc4:	0000009f 	muleq	r0, pc, r0	; <UNPREDICTABLE>
	...
    2fd0:	00000800 	andeq	r0, r0, r0, lsl #16
    2fd4:	00003f00 	andeq	r3, r0, r0, lsl #30
    2fd8:	51000100 	mrspl	r0, (UNDEF: 16)
    2fdc:	0000003f 	andeq	r0, r0, pc, lsr r0
    2fe0:	00000060 	andeq	r0, r0, r0, rrx
    2fe4:	01f30004 	mvnseq	r0, r4
    2fe8:	00009f51 	andeq	r9, r0, r1, asr pc
	...
    2ff4:	00080000 	andeq	r0, r8, r0
    2ff8:	003c0000 	eorseq	r0, ip, r0
    2ffc:	00010000 	andeq	r0, r1, r0
    3000:	00003c50 	andeq	r3, r0, r0, asr ip
    3004:	00006000 	andeq	r6, r0, r0
    3008:	f3000400 	vshl.u8	d0, d0, d0
    300c:	009f5001 	addseq	r5, pc, r1
	...
    3018:	48000000 	stmdami	r0, {}	; <UNPREDICTABLE>
    301c:	58000000 	stmdapl	r0, {}	; <UNPREDICTABLE>
    3020:	01000000 	mrseq	r0, (UNDEF: 0)
    3024:	00585400 	subseq	r5, r8, r0, lsl #8
    3028:	00600000 	rsbeq	r0, r0, r0
    302c:	00290000 	eoreq	r0, r9, r0
    3030:	f35001f3 	vbsl	q8, q8, <illegal reg q9.5>
    3034:	2cf75001 	ldclcs	0, cr5, [r7], #4
    3038:	25f425f7 	ldrbcs	r2, [r4, #1527]!	; 0x5f7
    303c:	cccccd08 	stclgt	13, cr12, [ip], {8}
    3040:	000000cc 	andeq	r0, r0, ip, asr #1
    3044:	20081e00 	andcs	r1, r8, r0, lsl #28
    3048:	f72525f7 			; <UNDEFINED> instruction: 0xf72525f7
    304c:	3300f72c 	movwcc	pc, #1836	; 0x72c	; <UNPREDICTABLE>
    3050:	311e3525 	tstcc	lr, r5, lsr #10
    3054:	1e331c24 	cdpne	12, 3, cr1, cr3, cr4, {1}
    3058:	0000009f 	muleq	r0, pc, r0	; <UNPREDICTABLE>
    305c:	00000000 	andeq	r0, r0, r0
    3060:	00000100 	andeq	r0, r0, r0, lsl #2
    3064:	48000000 	stmdami	r0, {}	; <UNPREDICTABLE>
    3068:	58000000 	stmdapl	r0, {}	; <UNPREDICTABLE>
    306c:	01000000 	mrseq	r0, (UNDEF: 0)
    3070:	00585600 	subseq	r5, r8, r0, lsl #12
    3074:	005b0000 	subseq	r0, fp, r0
    3078:	00010000 	andeq	r0, r1, r0
    307c:	00005b50 	andeq	r5, r0, r0, asr fp
    3080:	00006000 	andeq	r6, r0, r0
    3084:	f3002600 	vmax.u8	d2, d0, d0
    3088:	2cf75001 	ldclcs	0, cr5, [r7], #4
    308c:	25f425f7 	ldrbcs	r2, [r4, #1527]!	; 0x5f7
    3090:	cccccd08 	stclgt	13, cr12, [ip], {8}
    3094:	000000cc 	andeq	r0, r0, ip, asr #1
    3098:	20081e00 	andcs	r1, r8, r0, lsl #28
    309c:	f72525f7 			; <UNDEFINED> instruction: 0xf72525f7
    30a0:	3300f72c 	movwcc	pc, #1836	; 0x72c	; <UNPREDICTABLE>
    30a4:	80802325 	addhi	r2, r0, r5, lsr #6
    30a8:	243240a0 	ldrtcs	r4, [r2], #-160	; 0xffffff60
    30ac:	0000009f 	muleq	r0, pc, r0	; <UNPREDICTABLE>
    30b0:	00000000 	andeq	r0, r0, r0
    30b4:	00000200 	andeq	r0, r0, r0, lsl #4
    30b8:	00000101 	andeq	r0, r0, r1, lsl #2
    30bc:	00004800 	andeq	r4, r0, r0, lsl #16
    30c0:	00004c00 	andeq	r4, r0, r0, lsl #24
    30c4:	50000100 	andpl	r0, r0, r0, lsl #2
    30c8:	0000004c 	andeq	r0, r0, ip, asr #32
    30cc:	0000004c 	andeq	r0, r0, ip, asr #32
    30d0:	4c510001 	mrrcmi	0, 0, r0, r1, cr1
    30d4:	50000000 	andpl	r0, r0, r0
    30d8:	0c000000 	stceq	0, cr0, [r0], {-0}
    30dc:	08007500 	stmdaeq	r0, {r8, sl, ip, sp, lr}
    30e0:	00741aff 	ldrshteq	r1, [r4], #-175	; 0xffffff51
    30e4:	21007124 	tstcs	r0, r4, lsr #2
    30e8:	0000509f 	muleq	r0, pc, r0	; <UNPREDICTABLE>
    30ec:	00005400 	andeq	r5, r0, r0, lsl #8
    30f0:	37001200 	strcc	r1, [r0, -r0, lsl #4]
    30f4:	20240074 	eorcs	r0, r4, r4, ror r0
    30f8:	751a0070 	ldrvc	r0, [sl, #-112]	; 0xffffff90
    30fc:	1aff0800 	bne	fffc5104 <__bss_end__+0xfffba354>
    3100:	21240074 			; <UNDEFINED> instruction: 0x21240074
    3104:	0000009f 	muleq	r0, pc, r0	; <UNPREDICTABLE>
	...
    3110:	b8000000 	stmdalt	r0, {}	; <UNPREDICTABLE>
    3114:	c4000000 	strgt	r0, [r0], #-0
    3118:	01000000 	mrseq	r0, (UNDEF: 0)
    311c:	00c45000 	sbceq	r5, r4, r0
    3120:	00cb0000 	sbceq	r0, fp, r0
    3124:	00010000 	andeq	r0, r1, r0
    3128:	0000cb53 	andeq	ip, r0, r3, asr fp
    312c:	0000d000 	andeq	sp, r0, r0
    3130:	f3000400 	vshl.u8	d0, d0, d0
    3134:	009f5001 	addseq	r5, pc, r1
	...
    3144:	0000d000 	andeq	sp, r0, r0
    3148:	0000dc00 	andeq	sp, r0, r0, lsl #24
    314c:	50000100 	andpl	r0, r0, r0, lsl #2
    3150:	000000dc 	ldrdeq	r0, [r0], -ip
    3154:	000000e3 	andeq	r0, r0, r3, ror #1
    3158:	e3530001 	cmp	r3, #1, 0
    315c:	e8000000 	stmda	r0, {}	; <UNPREDICTABLE>
    3160:	04000000 	streq	r0, [r0], #-0
    3164:	5001f300 	andpl	pc, r1, r0, lsl #6
    3168:	0000009f 	muleq	r0, pc, r0	; <UNPREDICTABLE>
	...
    3178:	00000b00 	andeq	r0, r0, r0, lsl #22
    317c:	50000100 	andpl	r0, r0, r0, lsl #2
    3180:	0000000b 	andeq	r0, r0, fp
    3184:	00000014 	andeq	r0, r0, r4, lsl r0
    3188:	00540001 	subseq	r0, r4, r1
	...
    3198:	18000000 	stmdane	r0, {}	; <UNPREDICTABLE>
    319c:	01000000 	mrseq	r0, (UNDEF: 0)
    31a0:	00185100 	andseq	r5, r8, r0, lsl #2
    31a4:	002c0000 	eoreq	r0, ip, r0
    31a8:	00040000 	andeq	r0, r4, r0
    31ac:	9f5101f3 	svcls	0x005101f3
	...
    31b8:	00000002 	andeq	r0, r0, r2
    31bc:	00000000 	andeq	r0, r0, r0
    31c0:	00010100 	andeq	r0, r1, r0, lsl #2
    31c4:	00000000 	andeq	r0, r0, r0
    31c8:	00040000 	andeq	r0, r4, r0
    31cc:	00010000 	andeq	r0, r1, r0
    31d0:	00000450 	andeq	r0, r0, r0, asr r4
    31d4:	00000800 	andeq	r0, r0, r0, lsl #16
    31d8:	52000100 	andpl	r0, r0, #0
    31dc:	00000008 	andeq	r0, r0, r8
    31e0:	0000000c 	andeq	r0, r0, ip
    31e4:	01720003 	cmneq	r2, r3
    31e8:	00000c9f 	muleq	r0, pc, ip	; <UNPREDICTABLE>
    31ec:	00001800 	andeq	r1, r0, r0, lsl #16
    31f0:	52000100 	andpl	r0, r0, #0
    31f4:	00000018 	andeq	r0, r0, r8, lsl r0
    31f8:	0000001c 	andeq	r0, r0, ip, lsl r0
    31fc:	1c530001 	mrrcne	0, 0, r0, r3, cr1
    3200:	24000000 	strcs	r0, [r0], #-0
    3204:	03000000 	movweq	r0, #0
    3208:	9f017300 	svcls	0x00017300
    320c:	00000024 	andeq	r0, r0, r4, lsr #32
    3210:	0000002c 	andeq	r0, r0, ip, lsr #32
    3214:	00530001 	subseq	r0, r3, r1
    3218:	00000000 	andeq	r0, r0, r0
    321c:	03000000 	movweq	r0, #0
    3220:	00000202 	andeq	r0, r0, r2, lsl #4
    3224:	00000000 	andeq	r0, r0, r0
    3228:	00001800 	andeq	r1, r0, r0, lsl #16
    322c:	51000100 	mrspl	r0, (UNDEF: 16)
    3230:	00000018 	andeq	r0, r0, r8, lsl r0
    3234:	0000001c 	andeq	r0, r0, ip, lsl r0
    3238:	01710003 	cmneq	r1, r3
    323c:	00001c9f 	muleq	r0, pc, ip	; <UNPREDICTABLE>
    3240:	00002c00 	andeq	r2, r0, r0, lsl #24
    3244:	51000100 	mrspl	r0, (UNDEF: 16)
	...
    3254:	00080000 	andeq	r0, r8, r0
    3258:	000c0000 	andeq	r0, ip, r0
    325c:	00020000 	andeq	r0, r2, r0
    3260:	000c0072 	andeq	r0, ip, r2, ror r0
    3264:	00180000 	andseq	r0, r8, r0
    3268:	00020000 	andeq	r0, r2, r0
    326c:	001c0073 	andseq	r0, ip, r3, ror r0
    3270:	002c0000 	eoreq	r0, ip, r0
    3274:	00010000 	andeq	r0, r1, r0
    3278:	00000052 	andeq	r0, r0, r2, asr r0
	...
    3290:	00001400 	andeq	r1, r0, r0, lsl #8
    3294:	50000100 	andpl	r0, r0, r0, lsl #2
    3298:	00000014 	andeq	r0, r0, r4, lsl r0
    329c:	00000018 	andeq	r0, r0, r8, lsl r0
    32a0:	01700003 	cmneq	r0, r3
    32a4:	0000189f 	muleq	r0, pc, r8	; <UNPREDICTABLE>
    32a8:	00002000 	andeq	r2, r0, r0
    32ac:	50000100 	andpl	r0, r0, r0, lsl #2
    32b0:	00000024 	andeq	r0, r0, r4, lsr #32
    32b4:	00000028 	andeq	r0, r0, r8, lsr #32
    32b8:	28500001 	ldmdacs	r0, {r0}^
    32bc:	30000000 	andcc	r0, r0, r0
    32c0:	03000000 	movweq	r0, #0
    32c4:	9f017000 	svcls	0x00017000
    32c8:	00000038 	andeq	r0, r0, r8, lsr r0
    32cc:	00000040 	andeq	r0, r0, r0, asr #32
    32d0:	00500001 	subseq	r0, r0, r1
	...
    32e4:	00002400 	andeq	r2, r0, r0, lsl #8
    32e8:	51000100 	mrspl	r0, (UNDEF: 16)
    32ec:	00000024 	andeq	r0, r0, r4, lsr #32
    32f0:	00000028 	andeq	r0, r0, r8, lsr #32
    32f4:	285c0001 	ldmdacs	ip, {r0}^
    32f8:	44000000 	strmi	r0, [r0], #-0
    32fc:	01000000 	mrseq	r0, (UNDEF: 0)
    3300:	00005100 	andeq	r5, r0, r0, lsl #2
    3304:	00000000 	andeq	r0, r0, r0
    3308:	02000000 	andeq	r0, r0, #0, 0
    330c:	00000002 	andeq	r0, r0, r2
    3310:	00000000 	andeq	r0, r0, r0
    3314:	00000004 	andeq	r0, r0, r4
    3318:	04510001 	ldrbeq	r0, [r1], #-1
    331c:	08000000 	stmdaeq	r0, {}	; <UNPREDICTABLE>
    3320:	03000000 	movweq	r0, #0
    3324:	9f017100 	svcls	0x00017100
    3328:	00000008 	andeq	r0, r0, r8
    332c:	00000018 	andeq	r0, r0, r8, lsl r0
    3330:	00510001 	subseq	r0, r1, r1
    3334:	00000000 	andeq	r0, r0, r0
    3338:	02000000 	andeq	r0, r0, #0, 0
    333c:	00000000 	andeq	r0, r0, r0
    3340:	00000400 	andeq	r0, r0, r0, lsl #8
    3344:	50000100 	andpl	r0, r0, r0, lsl #2
	...
    3358:	00000008 	andeq	r0, r0, r8
    335c:	08500001 	ldmdaeq	r0, {r0}^
    3360:	30000000 	andcc	r0, r0, r0
    3364:	04000000 	streq	r0, [r0], #-0
    3368:	5001f300 	andpl	pc, r1, r0, lsl #6
    336c:	0000009f 	muleq	r0, pc, r0	; <UNPREDICTABLE>
	...
    337c:	00000800 	andeq	r0, r0, r0, lsl #16
    3380:	51000100 	mrspl	r0, (UNDEF: 16)
    3384:	00000008 	andeq	r0, r0, r8
    3388:	00000030 	andeq	r0, r0, r0, lsr r0
    338c:	01f30004 	mvnseq	r0, r4
    3390:	00009f51 	andeq	r9, r0, r1, asr pc
	...
    33a0:	00020201 	andeq	r0, r2, r1, lsl #4
    33a4:	00000000 	andeq	r0, r0, r0
    33a8:	00000004 	andeq	r0, r0, r4
    33ac:	04520001 	ldrbeq	r0, [r2], #-1
    33b0:	08000000 	stmdaeq	r0, {}	; <UNPREDICTABLE>
    33b4:	04000000 	streq	r0, [r0], #-0
    33b8:	5201f300 	andpl	pc, r1, #0, 6
    33bc:	0000089f 	muleq	r0, pc, r8	; <UNPREDICTABLE>
    33c0:	00001800 	andeq	r1, r0, r0, lsl #16
    33c4:	f3000600 	vmax.u8	d0, d0, d0
    33c8:	1c315201 	lfmne	f5, 4, [r1], #-4
    33cc:	0000189f 	muleq	r0, pc, r8	; <UNPREDICTABLE>
    33d0:	00001800 	andeq	r1, r0, r0, lsl #16
    33d4:	f3000400 	vshl.u8	d0, d0, d0
    33d8:	189f5201 	ldmne	pc, {r0, r9, ip, lr}	; <UNPREDICTABLE>
    33dc:	30000000 	andcc	r0, r0, r0
    33e0:	06000000 	streq	r0, [r0], -r0
    33e4:	5201f300 	andpl	pc, r1, #0, 6
    33e8:	009f1c31 	addseq	r1, pc, r1, lsr ip	; <UNPREDICTABLE>
    33ec:	00000000 	andeq	r0, r0, r0
    33f0:	02000000 	andeq	r0, r0, #0, 0
    33f4:	01000000 	mrseq	r0, (UNDEF: 0)
    33f8:	00000000 	andeq	r0, r0, r0
    33fc:	0c000000 	stceq	0, cr0, [r0], {-0}
    3400:	01000000 	mrseq	r0, (UNDEF: 0)
    3404:	000c5000 	andeq	r5, ip, r0
    3408:	00180000 	andseq	r0, r8, r0
    340c:	00030000 	andeq	r0, r3, r0
    3410:	189f7f70 	ldmne	pc, {r4, r5, r6, r8, r9, sl, fp, ip, sp, lr}	; <UNPREDICTABLE>
    3414:	24000000 	strcs	r0, [r0], #-0
    3418:	01000000 	mrseq	r0, (UNDEF: 0)
    341c:	00285000 	eoreq	r5, r8, r0
    3420:	002c0000 	eoreq	r0, ip, r0
    3424:	00030000 	andeq	r0, r3, r0
    3428:	009f7f70 	addseq	r7, pc, r0, ror pc	; <UNPREDICTABLE>
    342c:	00000000 	andeq	r0, r0, r0
    3430:	02000000 	andeq	r0, r0, #0, 0
	...
    343c:	00000c00 	andeq	r0, r0, r0, lsl #24
    3440:	51000100 	mrspl	r0, (UNDEF: 16)
    3444:	0000000c 	andeq	r0, r0, ip
    3448:	00000010 	andeq	r0, r0, r0, lsl r0
    344c:	01710003 	cmneq	r1, r3
    3450:	0000109f 	muleq	r0, pc, r0	; <UNPREDICTABLE>
    3454:	00003000 	andeq	r3, r0, r0
    3458:	51000100 	mrspl	r0, (UNDEF: 16)
	...

Disassembly of section .debug_aranges:

00000000 <.debug_aranges>:
   0:	0000001c 	andeq	r0, r0, ip, lsl r0
   4:	00000002 	andeq	r0, r0, r2
   8:	00040000 	andeq	r0, r4, r0
   c:	00000000 	andeq	r0, r0, r0
  10:	00008038 	andeq	r8, r0, r8, lsr r0
  14:	000000a8 	andeq	r0, r0, r8, lsr #1
	...
  20:	0000001c 	andeq	r0, r0, ip, lsl r0
  24:	02e00002 	rsceq	r0, r0, #2, 0
  28:	00040000 	andeq	r0, r4, r0
  2c:	00000000 	andeq	r0, r0, r0
  30:	000080e0 	andeq	r8, r0, r0, ror #1
  34:	000002e8 	andeq	r0, r0, r8, ror #5
	...
  40:	0000001c 	andeq	r0, r0, ip, lsl r0
  44:	0a690002 	beq	1a40054 <__bss_end__+0x1a352a4>
  48:	00040000 	andeq	r0, r4, r0
  4c:	00000000 	andeq	r0, r0, r0
  50:	000083c8 	andeq	r8, r0, r8, asr #7
  54:	000001ac 	andeq	r0, r0, ip, lsr #3
	...
  60:	0000001c 	andeq	r0, r0, ip, lsl r0
  64:	0d2f0002 	stceq	0, cr0, [pc, #-8]!	; 64 <__code_start__-0x7f9c>
  68:	00040000 	andeq	r0, r4, r0
  6c:	00000000 	andeq	r0, r0, r0
  70:	00008574 	andeq	r8, r0, r4, ror r5
  74:	00000604 	andeq	r0, r0, r4, lsl #12
	...
  80:	0000001c 	andeq	r0, r0, ip, lsl r0
  84:	1a600002 	bne	1800094 <__bss_end__+0x17f52e4>
  88:	00040000 	andeq	r0, r4, r0
  8c:	00000000 	andeq	r0, r0, r0
  90:	00008b80 	andeq	r8, r0, r0, lsl #23
  94:	00000078 	andeq	r0, r0, r8, ror r0
	...
  a0:	0000001c 	andeq	r0, r0, ip, lsl r0
  a4:	1ba40002 	blne	fe9000b4 <__bss_end__+0xfe8f5304>
  a8:	00040000 	andeq	r0, r4, r0
  ac:	00000000 	andeq	r0, r0, r0
  b0:	00008bf8 	strdeq	r8, [r0], -r8	; <UNPREDICTABLE>
  b4:	00000058 	andeq	r0, r0, r8, asr r0
	...
  c0:	0000001c 	andeq	r0, r0, ip, lsl r0
  c4:	1d450002 	stclne	0, cr0, [r5, #-8]
  c8:	00040000 	andeq	r0, r4, r0
  cc:	00000000 	andeq	r0, r0, r0
  d0:	00008c50 	andeq	r8, r0, r0, asr ip
  d4:	00000038 	andeq	r0, r0, r8, lsr r0
	...
  e0:	0000001c 	andeq	r0, r0, ip, lsl r0
  e4:	1e3c0002 	cdpne	0, 3, cr0, cr12, cr2, {0}
  e8:	00040000 	andeq	r0, r4, r0
  ec:	00000000 	andeq	r0, r0, r0
  f0:	00008c88 	andeq	r8, r0, r8, lsl #25
  f4:	000009b4 			; <UNDEFINED> instruction: 0x000009b4
	...
 100:	0000001c 	andeq	r0, r0, ip, lsl r0
 104:	2abf0002 	bcs	fefc0114 <__bss_end__+0xfefb5364>
 108:	00040000 	andeq	r0, r4, r0
 10c:	00000000 	andeq	r0, r0, r0
 110:	0000963c 	andeq	r9, r0, ip, lsr r6
 114:	0000002c 	andeq	r0, r0, ip, lsr #32
	...
 120:	0000001c 	andeq	r0, r0, ip, lsl r0
 124:	2bf20002 	blcs	ffc80134 <__bss_end__+0xffc75384>
 128:	00040000 	andeq	r0, r4, r0
 12c:	00000000 	andeq	r0, r0, r0
 130:	00009668 	andeq	r9, r0, r8, ror #12
 134:	000000f8 	strdeq	r0, [r0], -r8
	...
 140:	0000001c 	andeq	r0, r0, ip, lsl r0
 144:	2d860002 	stccs	0, cr0, [r6, #8]
 148:	00040000 	andeq	r0, r4, r0
 14c:	00000000 	andeq	r0, r0, r0
 150:	00009760 	andeq	r9, r0, r0, ror #14
 154:	00000004 	andeq	r0, r0, r4
	...
 160:	0000001c 	andeq	r0, r0, ip, lsl r0
 164:	2e580002 	cdpcs	0, 5, cr0, cr8, cr2, {0}
 168:	00040000 	andeq	r0, r4, r0
 16c:	00000000 	andeq	r0, r0, r0
 170:	00009764 	andeq	r9, r0, r4, ror #14
 174:	0000008c 	andeq	r0, r0, ip, lsl #1
	...
 180:	0000001c 	andeq	r0, r0, ip, lsl r0
 184:	30d90002 	sbcscc	r0, r9, r2
 188:	00040000 	andeq	r0, r4, r0
 18c:	00000000 	andeq	r0, r0, r0
 190:	000097f0 	strdeq	r9, [r0], -r0
 194:	0000011c 	andeq	r0, r0, ip, lsl r1
	...
 1a0:	0000001c 	andeq	r0, r0, ip, lsl r0
 1a4:	361c0002 	ldrcc	r0, [ip], -r2
 1a8:	00040000 	andeq	r0, r4, r0
 1ac:	00000000 	andeq	r0, r0, r0
 1b0:	0000990c 	andeq	r9, r0, ip, lsl #18
 1b4:	000001f0 	strdeq	r0, [r0], -r0	; <UNPREDICTABLE>
	...
 1c0:	0000001c 	andeq	r0, r0, ip, lsl r0
 1c4:	3bed0002 	blcc	ffb401d4 <__bss_end__+0xffb35424>
 1c8:	00040000 	andeq	r0, r4, r0
 1cc:	00000000 	andeq	r0, r0, r0
 1d0:	00009afc 	strdeq	r9, [r0], -ip
 1d4:	000003b0 			; <UNDEFINED> instruction: 0x000003b0
	...
 1e0:	0000001c 	andeq	r0, r0, ip, lsl r0
 1e4:	44da0002 	ldrbmi	r0, [sl], #2
 1e8:	00040000 	andeq	r0, r4, r0
 1ec:	00000000 	andeq	r0, r0, r0
 1f0:	00009eac 	andeq	r9, r0, ip, lsr #29
 1f4:	00000198 	muleq	r0, r8, r1
	...
 200:	0000001c 	andeq	r0, r0, ip, lsl r0
 204:	4b510002 	blmi	1440214 <__bss_end__+0x1435464>
 208:	00040000 	andeq	r0, r4, r0
 20c:	00000000 	andeq	r0, r0, r0
 210:	0000a044 	andeq	sl, r0, r4, asr #32
 214:	0000003c 	andeq	r0, r0, ip, lsr r0
	...
 220:	0000001c 	andeq	r0, r0, ip, lsl r0
 224:	4c9e0002 	ldcmi	0, cr0, [lr], {2}
 228:	00040000 	andeq	r0, r4, r0
 22c:	00000000 	andeq	r0, r0, r0
 230:	0000a080 	andeq	sl, r0, r0, lsl #1
 234:	0000002c 	andeq	r0, r0, ip, lsr #32
	...
 240:	0000001c 	andeq	r0, r0, ip, lsl r0
 244:	4dd90002 	ldclmi	0, cr0, [r9, #8]
 248:	00040000 	andeq	r0, r4, r0
 24c:	00000000 	andeq	r0, r0, r0
 250:	0000a0ac 	andeq	sl, r0, ip, lsr #1
 254:	00000044 	andeq	r0, r0, r4, asr #32
	...
 260:	0000001c 	andeq	r0, r0, ip, lsl r0
 264:	4ed40002 	cdpmi	0, 13, cr0, cr4, cr2, {0}
 268:	00040000 	andeq	r0, r4, r0
 26c:	00000000 	andeq	r0, r0, r0
 270:	0000a0f0 	strdeq	sl, [r0], -r0
 274:	00000018 	andeq	r0, r0, r8, lsl r0
	...
 280:	0000001c 	andeq	r0, r0, ip, lsl r0
 284:	4fe70002 	svcmi	0x00e70002
 288:	00040000 	andeq	r0, r4, r0
 28c:	00000000 	andeq	r0, r0, r0
 290:	0000a108 	andeq	sl, r0, r8, lsl #2
 294:	00000030 	andeq	r0, r0, r0, lsr r0
	...
 2a0:	0000001c 	andeq	r0, r0, ip, lsl r0
 2a4:	51390002 	teqpl	r9, r2
 2a8:	00040000 	andeq	r0, r4, r0
 2ac:	00000000 	andeq	r0, r0, r0
 2b0:	0000a138 	andeq	sl, r0, r8, lsr r1
 2b4:	00000004 	andeq	r0, r0, r4
	...

Disassembly of section .debug_ranges:

00000000 <.debug_ranges>:
   0:	00000008 	andeq	r0, r0, r8
   4:	0000000c 	andeq	r0, r0, ip
   8:	00000010 	andeq	r0, r0, r0, lsl r0
   c:	00000068 	andeq	r0, r0, r8, rrx
	...
  18:	00000018 	andeq	r0, r0, r8, lsl r0
  1c:	0000005c 	andeq	r0, r0, ip, asr r0
  20:	00000060 	andeq	r0, r0, r0, rrx
  24:	00000068 	andeq	r0, r0, r8, rrx
	...
  30:	000000ec 	andeq	r0, r0, ip, ror #1
  34:	00000108 	andeq	r0, r0, r8, lsl #2
  38:	00000114 	andeq	r0, r0, r4, lsl r1
  3c:	000001a0 	andeq	r0, r0, r0, lsr #3
	...
  48:	000000ec 	andeq	r0, r0, ip, ror #1
  4c:	00000108 	andeq	r0, r0, r8, lsl #2
  50:	00000124 	andeq	r0, r0, r4, lsr #2
  54:	000001a0 	andeq	r0, r0, r0, lsr #3
	...
  60:	0000028c 	andeq	r0, r0, ip, lsl #5
  64:	00000294 	muleq	r0, r4, r2
  68:	000002a0 	andeq	r0, r0, r0, lsr #5
  6c:	000002fc 	strdeq	r0, [r0], -ip
	...
  78:	0000039c 	muleq	r0, ip, r3
  7c:	000003a4 	andeq	r0, r0, r4, lsr #7
  80:	000003b0 			; <UNDEFINED> instruction: 0x000003b0
  84:	00000420 	andeq	r0, r0, r0, lsr #8
	...
  90:	000000a4 	andeq	r0, r0, r4, lsr #1
  94:	00000148 	andeq	r0, r0, r8, asr #2
  98:	00000158 	andeq	r0, r0, r8, asr r1
  9c:	0000015c 	andeq	r0, r0, ip, asr r1
  a0:	00000274 	andeq	r0, r0, r4, ror r2
  a4:	00000278 	andeq	r0, r0, r8, ror r2
  a8:	0000027c 	andeq	r0, r0, ip, ror r2
  ac:	00000280 	andeq	r0, r0, r0, lsl #5
  b0:	00000288 	andeq	r0, r0, r8, lsl #5
  b4:	0000029c 	muleq	r0, ip, r2
  b8:	000002c0 	andeq	r0, r0, r0, asr #5
  bc:	000002cc 	andeq	r0, r0, ip, asr #5
  c0:	000002f0 	strdeq	r0, [r0], -r0	; <UNPREDICTABLE>
  c4:	000002f0 	strdeq	r0, [r0], -r0	; <UNPREDICTABLE>
  c8:	000002f4 	strdeq	r0, [r0], -r4
  cc:	000002f8 	strdeq	r0, [r0], -r8
	...
  d8:	00000148 	andeq	r0, r0, r8, asr #2
  dc:	00000158 	andeq	r0, r0, r8, asr r1
  e0:	0000015c 	andeq	r0, r0, ip, asr r1
  e4:	0000018c 	andeq	r0, r0, ip, lsl #3
  e8:	0000029c 	muleq	r0, ip, r2
  ec:	000002ac 	andeq	r0, r0, ip, lsr #5
	...
  f8:	000003c8 	andeq	r0, r0, r8, asr #7
  fc:	000003d0 	ldrdeq	r0, [r0], -r0	; <UNPREDICTABLE>
 100:	00000404 	andeq	r0, r0, r4, lsl #8
 104:	000004ac 	andeq	r0, r0, ip, lsr #9
 108:	000004c0 	andeq	r0, r0, r0, asr #9
 10c:	00000920 	andeq	r0, r0, r0, lsr #18
 110:	00000928 	andeq	r0, r0, r8, lsr #18
 114:	000009b4 			; <UNDEFINED> instruction: 0x000009b4
	...
 120:	000003c8 	andeq	r0, r0, r8, asr #7
 124:	000003d0 	ldrdeq	r0, [r0], -r0	; <UNPREDICTABLE>
 128:	00000504 	andeq	r0, r0, r4, lsl #10
 12c:	000005d0 	ldrdeq	r0, [r0], -r0	; <UNPREDICTABLE>
 130:	00000800 	andeq	r0, r0, r0, lsl #16
 134:	00000888 	andeq	r0, r0, r8, lsl #17
 138:	00000930 	andeq	r0, r0, r0, lsr r9
 13c:	000009b4 			; <UNDEFINED> instruction: 0x000009b4
	...
 148:	00000404 	andeq	r0, r0, r4, lsl #8
 14c:	00000408 	andeq	r0, r0, r8, lsl #8
 150:	00000414 	andeq	r0, r0, r4, lsl r4
 154:	00000414 	andeq	r0, r0, r4, lsl r4
 158:	00000428 	andeq	r0, r0, r8, lsr #8
 15c:	0000042c 	andeq	r0, r0, ip, lsr #8
	...
 168:	000005fc 	strdeq	r0, [r0], -ip
 16c:	00000700 	andeq	r0, r0, r0, lsl #14
 170:	000007ec 	andeq	r0, r0, ip, ror #15
 174:	000007f4 	strdeq	r0, [r0], -r4
 178:	00000888 	andeq	r0, r0, r8, lsl #17
 17c:	00000894 	muleq	r0, r4, r8
 180:	000008a8 	andeq	r0, r0, r8, lsr #17
 184:	000008bc 			; <UNDEFINED> instruction: 0x000008bc
 188:	00000910 	andeq	r0, r0, r0, lsl r9
 18c:	00000920 	andeq	r0, r0, r0, lsr #18
	...
 198:	00000600 	andeq	r0, r0, r0, lsl #12
 19c:	00000604 	andeq	r0, r0, r4, lsl #12
 1a0:	00000608 	andeq	r0, r0, r8, lsl #12
 1a4:	000006b4 			; <UNDEFINED> instruction: 0x000006b4
 1a8:	000006cc 	andeq	r0, r0, ip, asr #13
 1ac:	000006d0 	ldrdeq	r0, [r0], -r0	; <UNPREDICTABLE>
 1b0:	000008a8 	andeq	r0, r0, r8, lsr #17
 1b4:	000008b8 			; <UNDEFINED> instruction: 0x000008b8
 1b8:	00000910 	andeq	r0, r0, r0, lsl r9
 1bc:	00000920 	andeq	r0, r0, r0, lsr #18
	...
 1c8:	000006b4 			; <UNDEFINED> instruction: 0x000006b4
 1cc:	000006cc 	andeq	r0, r0, ip, asr #13
 1d0:	000006d0 	ldrdeq	r0, [r0], -r0	; <UNPREDICTABLE>
 1d4:	00000700 	andeq	r0, r0, r0, lsl #14
 1d8:	000007ec 	andeq	r0, r0, ip, ror #15
 1dc:	000007f4 	strdeq	r0, [r0], -r4
 1e0:	00000888 	andeq	r0, r0, r8, lsl #17
 1e4:	00000894 	muleq	r0, r4, r8
 1e8:	000008b8 			; <UNDEFINED> instruction: 0x000008b8
 1ec:	000008bc 			; <UNDEFINED> instruction: 0x000008bc
	...
 1f8:	00000700 	andeq	r0, r0, r0, lsl #14
 1fc:	00000708 	andeq	r0, r0, r8, lsl #14
 200:	0000070c 	andeq	r0, r0, ip, lsl #14
 204:	000007ec 	andeq	r0, r0, ip, ror #15
 208:	00000894 	muleq	r0, r4, r8
 20c:	000008a8 	andeq	r0, r0, r8, lsr #17
	...
 218:	00000728 	andeq	r0, r0, r8, lsr #14
 21c:	000007a4 	andeq	r0, r0, r4, lsr #15
 220:	000007ac 	andeq	r0, r0, ip, lsr #15
 224:	000007b0 			; <UNDEFINED> instruction: 0x000007b0
 228:	00000894 	muleq	r0, r4, r8
 22c:	00000898 	muleq	r0, r8, r8
 230:	0000089c 	muleq	r0, ip, r8
 234:	000008a0 	andeq	r0, r0, r0, lsr #17
	...
 240:	000007a4 	andeq	r0, r0, r4, lsr #15
 244:	000007ac 	andeq	r0, r0, ip, lsr #15
 248:	000007b0 			; <UNDEFINED> instruction: 0x000007b0
 24c:	000007ec 	andeq	r0, r0, ip, ror #15
 250:	00000898 	muleq	r0, r8, r8
 254:	0000089c 	muleq	r0, ip, r8
 258:	000008a0 	andeq	r0, r0, r0, lsr #17
 25c:	000008a8 	andeq	r0, r0, r8, lsr #17
	...
 268:	00009790 	muleq	r0, r0, r7
 26c:	00009790 	muleq	r0, r0, r7
 270:	00009794 	muleq	r0, r4, r7
 274:	0000979c 	muleq	r0, ip, r7
	...
 280:	00009764 	andeq	r9, r0, r4, ror #14
 284:	000097f0 	strdeq	r9, [r0], -r0
	...
 290:	00000030 	andeq	r0, r0, r0, lsr r0
 294:	00000030 	andeq	r0, r0, r0, lsr r0
 298:	00000038 	andeq	r0, r0, r8, lsr r0
 29c:	0000004c 	andeq	r0, r0, ip, asr #32
	...
 2a8:	0000004c 	andeq	r0, r0, ip, asr #32
 2ac:	00000050 	andeq	r0, r0, r0, asr r0
 2b0:	00000050 	andeq	r0, r0, r0, asr r0
 2b4:	00000078 	andeq	r0, r0, r8, ror r0
	...
 2c0:	0000004c 	andeq	r0, r0, ip, asr #32
 2c4:	00000050 	andeq	r0, r0, r0, asr r0
 2c8:	00000050 	andeq	r0, r0, r0, asr r0
 2cc:	00000060 	andeq	r0, r0, r0, rrx
 2d0:	00000064 	andeq	r0, r0, r4, rrx
 2d4:	00000068 	andeq	r0, r0, r8, rrx
	...
 2e0:	0000004c 	andeq	r0, r0, ip, asr #32
 2e4:	00000050 	andeq	r0, r0, r0, asr r0
 2e8:	00000054 	andeq	r0, r0, r4, asr r0
 2ec:	00000060 	andeq	r0, r0, r0, rrx
	...
 2f8:	0000009c 	muleq	r0, ip, r0
 2fc:	000000a0 	andeq	r0, r0, r0, lsr #1
 300:	000000a0 	andeq	r0, r0, r0, lsr #1
 304:	000000c8 	andeq	r0, r0, r8, asr #1
	...
 310:	0000009c 	muleq	r0, ip, r0
 314:	000000a0 	andeq	r0, r0, r0, lsr #1
 318:	000000a0 	andeq	r0, r0, r0, lsr #1
 31c:	000000b0 	strheq	r0, [r0], -r0	; <UNPREDICTABLE>
 320:	000000b4 	strheq	r0, [r0], -r4
 324:	000000b8 	strheq	r0, [r0], -r8
	...
 330:	0000009c 	muleq	r0, ip, r0
 334:	000000a0 	andeq	r0, r0, r0, lsr #1
 338:	000000a4 	andeq	r0, r0, r4, lsr #1
 33c:	000000b0 	strheq	r0, [r0], -r0	; <UNPREDICTABLE>
	...
 348:	000000c8 	andeq	r0, r0, r8, asr #1
 34c:	000000c8 	andeq	r0, r0, r8, asr #1
 350:	000000cc 	andeq	r0, r0, ip, asr #1
 354:	0000011c 	andeq	r0, r0, ip, lsl r1
	...
 360:	000000f0 	strdeq	r0, [r0], -r0	; <UNPREDICTABLE>
 364:	000000f4 	strdeq	r0, [r0], -r4
 368:	000000f4 	strdeq	r0, [r0], -r4
 36c:	0000011c 	andeq	r0, r0, ip, lsl r1
	...
 378:	000000f0 	strdeq	r0, [r0], -r0	; <UNPREDICTABLE>
 37c:	000000f4 	strdeq	r0, [r0], -r4
 380:	000000f4 	strdeq	r0, [r0], -r4
 384:	00000104 	andeq	r0, r0, r4, lsl #2
 388:	00000108 	andeq	r0, r0, r8, lsl #2
 38c:	0000010c 	andeq	r0, r0, ip, lsl #2
	...
 398:	000000f0 	strdeq	r0, [r0], -r0	; <UNPREDICTABLE>
 39c:	000000f4 	strdeq	r0, [r0], -r4
 3a0:	000000f8 	strdeq	r0, [r0], -r8
 3a4:	00000104 	andeq	r0, r0, r4, lsl #2
	...
 3b0:	00000134 	andeq	r0, r0, r4, lsr r1
 3b4:	00000134 	andeq	r0, r0, r4, lsr r1
 3b8:	00000134 	andeq	r0, r0, r4, lsr r1
 3bc:	0000013c 	andeq	r0, r0, ip, lsr r1
	...
 3c8:	0000024c 	andeq	r0, r0, ip, asr #4
 3cc:	00000264 	andeq	r0, r0, r4, ror #4
 3d0:	000002c8 	andeq	r0, r0, r8, asr #5
 3d4:	000002e8 	andeq	r0, r0, r8, ror #5
	...
 3e0:	00000008 	andeq	r0, r0, r8
 3e4:	0000000c 	andeq	r0, r0, ip
 3e8:	00000014 	andeq	r0, r0, r4, lsl r0
 3ec:	00000054 	andeq	r0, r0, r4, asr r0
 3f0:	00000058 	andeq	r0, r0, r8, asr r0
 3f4:	00000060 	andeq	r0, r0, r0, rrx
	...
 400:	00000060 	andeq	r0, r0, r0, rrx
 404:	00000068 	andeq	r0, r0, r8, rrx
 408:	0000006c 	andeq	r0, r0, ip, rrx
 40c:	000000ac 	andeq	r0, r0, ip, lsr #1
 410:	000000b0 	strheq	r0, [r0], -r0	; <UNPREDICTABLE>
 414:	000000b8 	strheq	r0, [r0], -r8
	...
 420:	00000068 	andeq	r0, r0, r8, rrx
 424:	00000068 	andeq	r0, r0, r8, rrx
 428:	0000006c 	andeq	r0, r0, ip, rrx
 42c:	000000ac 	andeq	r0, r0, ip, lsr #1
 430:	000000b0 	strheq	r0, [r0], -r0	; <UNPREDICTABLE>
 434:	000000b8 	strheq	r0, [r0], -r8
	...
 440:	000000e8 	andeq	r0, r0, r8, ror #1
 444:	000000f0 	strdeq	r0, [r0], -r0	; <UNPREDICTABLE>
 448:	000000f4 	strdeq	r0, [r0], -r4
 44c:	00000134 	andeq	r0, r0, r4, lsr r1
 450:	00000138 	andeq	r0, r0, r8, lsr r1
 454:	00000140 	andeq	r0, r0, r0, asr #2
	...
 460:	000000f0 	strdeq	r0, [r0], -r0	; <UNPREDICTABLE>
 464:	000000f0 	strdeq	r0, [r0], -r0	; <UNPREDICTABLE>
 468:	000000f4 	strdeq	r0, [r0], -r4
 46c:	00000134 	andeq	r0, r0, r4, lsr r1
 470:	00000138 	andeq	r0, r0, r8, lsr r1
 474:	00000140 	andeq	r0, r0, r0, asr #2
	...
 480:	00000144 	andeq	r0, r0, r4, asr #2
 484:	00000148 	andeq	r0, r0, r8, asr #2
 488:	00000150 	andeq	r0, r0, r0, asr r1
 48c:	0000015c 	andeq	r0, r0, ip, asr r1
	...

Disassembly of section .debug_line:

00000000 <.debug_line>:
       0:	00000106 	andeq	r0, r0, r6, lsl #2
       4:	00790003 	rsbseq	r0, r9, r3
       8:	01020000 	mrseq	r0, (UNDEF: 2)
       c:	000d0efb 	strdeq	r0, [sp], -fp
      10:	01010101 	tsteq	r1, r1, lsl #2
      14:	01000000 	mrseq	r0, (UNDEF: 0)
      18:	74010000 	strvc	r0, [r1], #-0
      1c:	73747365 	cmnvc	r4, #-1811939327	; 0x94000001
      20:	2f002e00 	svccs	0x00002e00
      24:	72657355 	rsbvc	r7, r5, #1409286145	; 0x54000001
      28:	696d2f73 	stmdbvs	sp!, {r0, r1, r4, r5, r6, r8, r9, sl, fp, sp}^
      2c:	2f73656c 	svccs	0x0073656c
      30:	72756f53 	rsbsvc	r6, r5, #332	; 0x14c
      34:	632f6563 			; <UNDEFINED> instruction: 0x632f6563
      38:	30343273 	eorscc	r3, r4, r3, ror r2
      3c:	6c2f786c 	stcvs	8, cr7, [pc], #-432	; fffffe94 <__bss_end__+0xffff50e4>
      40:	69706269 	ldmdbvs	r0!, {r0, r3, r5, r6, r9, sp, lr}^
      44:	636e692f 	cmnvs	lr, #770048	; 0xbc000
      48:	6564756c 	strbvs	r7, [r4, #-1388]!	; 0xfffffa94
      4c:	61700000 	cmnvs	r0, r0
      50:	2d327472 	cfldrscs	mvf7, [r2, #-456]!	; 0xfffffe38
      54:	74736574 	ldrbtvc	r6, [r3], #-1396	; 0xfffffa8c
      58:	00632e33 	rsbeq	r2, r3, r3, lsr lr
      5c:	73000001 	movwvc	r0, #1
      60:	6c2d6372 	stcvs	3, cr6, [sp], #-456	; 0xfffffe38
      64:	682e636f 	stmdavs	lr!, {r0, r1, r2, r3, r5, r6, r8, r9, sp, lr}
      68:	00000200 	andeq	r0, r0, r0, lsl #4
      6c:	2e697072 	mcrcs	0, 3, r7, cr9, cr2, {3}
      70:	00030068 	andeq	r0, r3, r8, rrx
      74:	616b6300 	cmnvs	fp, r0, lsl #6
      78:	636f6c6c 	cmnvs	pc, #108, 24	; 0x6c00
      7c:	0200682e 	andeq	r6, r0, #3014656	; 0x2e0000
      80:	05000000 	streq	r0, [r0, #-0]
      84:	02050012 	andeq	r0, r5, #18, 0
      88:	00008038 	andeq	r8, r0, r8, lsr r0
      8c:	05010a03 	streq	r0, [r1, #-2563]	; 0xfffff5fd
      90:	05174b05 	ldreq	r4, [r7, #-2821]	; 0xfffff4fb
      94:	0d050109 	stfeqs	f0, [r5, #-36]	; 0xffffffdc
      98:	08050106 	stmdaeq	r5, {r1, r2, r8}
      9c:	0014052c 	andseq	r0, r4, ip, lsr #10
      a0:	06010402 	streq	r0, [r1], -r2, lsl #8
      a4:	00050530 	andeq	r0, r5, r0, lsr r5
      a8:	06010402 	streq	r0, [r1], -r2, lsl #8
      ac:	06090501 	streq	r0, [r9], -r1, lsl #10
      b0:	0502044b 	streq	r0, [r2, #-1099]	; 0xfffffbb5
      b4:	017a030b 	cmneq	sl, fp, lsl #6
      b8:	05130505 	ldreq	r0, [r3, #-1285]	; 0xfffffafb
      bc:	ba01060c 	blt	418f4 <__bss_end__+0x36b44>
      c0:	1a050104 	bne	1404d8 <__bss_end__+0x135728>
      c4:	06090517 			; <UNDEFINED> instruction: 0x06090517
      c8:	0e05679f 	mcreq	7, 0, r6, cr5, cr15, {4}
      cc:	09050106 	stmdbeq	r5, {r1, r2, r8}
      d0:	11054b06 	tstne	r5, r6, lsl #22
      d4:	09050106 	stmdbeq	r5, {r1, r2, r8}
      d8:	01062f06 	tsteq	r6, r6, lsl #30
      dc:	0d061d05 	stceq	13, cr1, [r6, #-20]	; 0xffffffec
      e0:	01061e05 	tsteq	r6, r5, lsl #28
      e4:	4a330b05 	bmi	cc2d00 <__bss_end__+0xcb7f50>
      e8:	19060505 	stmdbne	r6, {r0, r2, r8, sl}
      ec:	06010530 			; <UNDEFINED> instruction: 0x06010530
      f0:	14056613 	strne	r6, [r5], #-1555	; 0xfffff9ed
      f4:	02050006 	andeq	r0, r5, #6, 0
      f8:	000080b8 	strheq	r8, [r0], -r8	; <UNPREDICTABLE>
      fc:	2f050515 	svccs	0x00050515
     100:	0601054e 	streq	r0, [r1], -lr, asr #10
     104:	00060283 	andeq	r0, r6, r3, lsl #5
     108:	02e40101 	rsceq	r0, r4, #1073741824	; 0x40000000
     10c:	00030000 	andeq	r0, r3, r0
     110:	000000e5 	andeq	r0, r0, r5, ror #1
     114:	0efb0102 	cdpeq	1, 15, cr0, cr11, cr2, {0}
     118:	0101000d 	tsteq	r1, sp
     11c:	00000101 	andeq	r0, r0, r1, lsl #2
     120:	00000100 	andeq	r0, r0, r0, lsl #2
     124:	706f2f01 	rsbvc	r2, pc, r1, lsl #30
     128:	6f682f74 	svcvs	0x00682f74
     12c:	7262656d 	rsbvc	r6, r2, #457179136	; 0x1b400000
     130:	432f7765 			; <UNDEFINED> instruction: 0x432f7765
     134:	616c6c65 	cmnvs	ip, r5, ror #24
     138:	72612f72 	rsbvc	r2, r1, #456	; 0x1c8
     13c:	6f6e2d6d 	svcvs	0x006e2d6d
     140:	652d656e 	strvs	r6, [sp, #-1390]!	; 0xfffffa92
     144:	2d696261 	sfmcs	f6, 2, [r9, #-388]!	; 0xfffffe7c
     148:	2d392f39 	ldccs	15, cr2, [r9, #-228]!	; 0xffffff1c
     14c:	39313032 	ldmdbcc	r1!, {r1, r4, r5, ip, sp}
     150:	632d3471 			; <UNDEFINED> instruction: 0x632d3471
     154:	37303173 			; <UNDEFINED> instruction: 0x37303173
     158:	696c2f65 	stmdbvs	ip!, {r0, r2, r5, r6, r8, r9, sl, fp, sp}^
     15c:	63672f62 	cmnvs	r7, #392	; 0x188
     160:	72612f63 	rsbvc	r2, r1, #396	; 0x18c
     164:	6f6e2d6d 	svcvs	0x006e2d6d
     168:	652d656e 	strvs	r6, [sp, #-1390]!	; 0xfffffa92
     16c:	2f696261 	svccs	0x00696261
     170:	2e322e39 	mrccs	14, 1, r2, cr2, cr9, {1}
     174:	6e692f31 	mcrvs	15, 3, r2, cr9, cr1, {1}
     178:	64756c63 	ldrbtvs	r6, [r5], #-3171	; 0xfffff39d
     17c:	552f0065 	strpl	r0, [pc, #-101]!	; 11f <__code_start__-0x7ee1>
     180:	73726573 	cmnvc	r2, #482344960	; 0x1cc00000
     184:	6c696d2f 	stclvs	13, cr6, [r9], #-188	; 0xffffff44
     188:	532f7365 			; <UNDEFINED> instruction: 0x532f7365
     18c:	6372756f 	cmnvs	r2, #465567744	; 0x1bc00000
     190:	73632f65 	cmnvc	r3, #404	; 0x194
     194:	6c303432 	cfldrsvs	mvf3, [r0], #-200	; 0xffffff38
     198:	696c2f78 	stmdbvs	ip!, {r3, r4, r5, r6, r8, r9, sl, fp, sp}^
     19c:	2f697062 	svccs	0x00697062
     1a0:	6c636e69 	stclvs	14, cr6, [r3], #-420	; 0xfffffe5c
     1a4:	00656475 	rsbeq	r6, r5, r5, ror r4
     1a8:	616b6300 	cmnvs	fp, r0, lsl #6
     1ac:	636f6c6c 	cmnvs	pc, #108, 24	; 0x6c00
     1b0:	0000632e 	andeq	r6, r0, lr, lsr #6
     1b4:	6b630000 	blvs	18c01bc <__bss_end__+0x18b540c>
     1b8:	6f6c6c61 	svcvs	0x006c6c61
     1bc:	00682e63 	rsbeq	r2, r8, r3, ror #28
     1c0:	73000000 	movwvc	r0, #0
     1c4:	6e696474 	mcrvs	4, 3, r6, cr9, cr4, {3}
     1c8:	63672d74 	cmnvs	r7, #116, 26	; 0x1d00
     1cc:	00682e63 	rsbeq	r2, r8, r3, ror #28
     1d0:	72000001 	andvc	r0, r0, #1, 0
     1d4:	682e6970 	stmdavs	lr!, {r4, r5, r6, r8, fp, sp, lr}
     1d8:	00000200 	andeq	r0, r0, r0, lsl #4
     1dc:	2d637273 	sfmcs	f7, 2, [r3, #-460]!	; 0xfffffe34
     1e0:	2e636f6c 	cdpcs	15, 6, cr6, cr3, cr12, {3}
     1e4:	00000068 	andeq	r0, r0, r8, rrx
     1e8:	2d726b00 	vldmdbcs	r2!, {d22-d21}
     1ec:	6c6c616d 	stfvse	f6, [ip], #-436	; 0xfffffe4c
     1f0:	682e636f 	stmdavs	lr!, {r0, r1, r2, r3, r5, r6, r8, r9, sp, lr}
     1f4:	00000000 	andeq	r0, r0, r0
     1f8:	00010500 	andeq	r0, r1, r0, lsl #10
     1fc:	80e00205 	rschi	r0, r0, r5, lsl #4
     200:	0b030000 	bleq	c0208 <__bss_end__+0xb5458>
     204:	13050501 	movwne	r0, #21761	; 0x5501
     208:	13060105 	movwne	r0, #24837	; 0x6105
     20c:	05058606 	streq	r8, [r5, #-1542]	; 0xfffff9fa
     210:	06080513 			; <UNDEFINED> instruction: 0x06080513
     214:	09052e01 	stmdbeq	r5, {r0, r9, sl, fp, sp}
     218:	11052f06 	tstne	r5, r6, lsl #30
     21c:	01050106 	tsteq	r5, r6, lsl #2
     220:	25030630 	strcs	r0, [r3, #-1584]	; 0xfffff9d0
     224:	0501062e 	streq	r0, [r1, #-1582]	; 0xfffff9d2
     228:	014b0605 	cmpeq	fp, r5, lsl #12
     22c:	02040200 	andeq	r0, r4, #0, 4
     230:	04020066 	streq	r0, [r2], #-102	; 0xffffff9a
     234:	02000102 	andeq	r0, r0, #-2147483648	; 0x80000000
     238:	05130204 	ldreq	r0, [r3, #-516]	; 0xfffffdfc
     23c:	0402000c 	streq	r0, [r2], #-12
     240:	05010602 	streq	r0, [r1, #-1538]	; 0xfffff9fe
     244:	04020005 	streq	r0, [r2], #-5
     248:	05300602 	ldreq	r0, [r0, #-1538]!	; 0xfffff9fe
     24c:	04020008 	streq	r0, [r2], #-8
     250:	05010602 	streq	r0, [r1, #-1538]	; 0xfffff9fe
     254:	0551060b 	ldrbeq	r0, [r1, #-1547]	; 0xfffff9f5
     258:	052e0611 	streq	r0, [lr, #-1553]!	; 0xfffff9ef
     25c:	052e2e0b 	streq	r2, [lr, #-3595]!	; 0xfffff1f5
     260:	05300609 	ldreq	r0, [r0, #-1545]!	; 0xfffff9f7
     264:	0501060c 	streq	r0, [r1, #-1548]	; 0xfffff9f4
     268:	054c060d 	strbeq	r0, [ip, #-1549]	; 0xfffff9f3
     26c:	0501061b 	streq	r0, [r1, #-1563]	; 0xfffff9e5
     270:	0d052e18 	stceq	14, cr2, [r5, #-96]	; 0xffffffa0
     274:	01052f06 	tsteq	r5, r6, lsl #30
     278:	05051706 	streq	r1, [r5, #-1798]	; 0xfffff8fa
     27c:	01040200 	mrseq	r0, R12_usr
     280:	4a6c0306 	bmi	1b00ea0 <__bss_end__+0x1af60f0>
     284:	01040200 	mrseq	r0, R12_usr
     288:	04020001 	streq	r0, [r2], #-1
     28c:	009e0601 	addseq	r0, lr, r1, lsl #12
     290:	2e010402 	cdpcs	4, 0, cr0, cr1, cr2, {0}
     294:	01040200 	mrseq	r0, R12_usr
     298:	09052e06 	stmdbeq	r5, {r1, r2, r9, sl, fp, sp}
     29c:	060f0533 			; <UNDEFINED> instruction: 0x060f0533
     2a0:	2e0c0501 	cfsh32cs	mvfx0, mvfx12, #1
     2a4:	2f060905 	svccs	0x00060905
     2a8:	0d030505 	cfstr32eq	mvfx0, [r3, #-20]	; 0xffffffec
     2ac:	9e06012e 	adflssp	f0, f6, #0.5
     2b0:	01052e06 	tsteq	r5, r6, lsl #28
     2b4:	05ba4a03 	ldreq	r4, [sl, #2563]!	; 0xa03
     2b8:	01051305 	tsteq	r5, r5, lsl #6
     2bc:	062e1306 	strteq	r1, [lr], -r6, lsl #6
     2c0:	05010632 	streq	r0, [r1, #-1586]	; 0xfffff9ce
     2c4:	054b0605 	strbeq	r0, [fp, #-1541]	; 0xfffff9fb
     2c8:	04010614 	streq	r0, [r1], #-1556	; 0xfffff9ec
     2cc:	06180502 	ldreq	r0, [r8], -r2, lsl #10
     2d0:	1305052f 	movwne	r0, #21807	; 0x552f
     2d4:	01060d05 	tsteq	r6, r5, lsl #26
     2d8:	0501042e 	streq	r0, [r1, #-1070]	; 0xfffffbd2
     2dc:	4e061101 	adfmis	f1, f6, f1
     2e0:	05050106 	streq	r0, [r5, #-262]	; 0xfffffefa
     2e4:	11056706 	tstne	r5, r6, lsl #14
     2e8:	052e0106 	streq	r0, [lr, #-262]!	; 0xfffffefa
     2ec:	052f0605 	streq	r0, [pc, #-1541]!	; fffffcef <__bss_end__+0xffff4f3f>
     2f0:	2e010611 	mcrcs	6, 0, r0, cr1, cr1, {0}
     2f4:	2f060505 	svccs	0x00060505
     2f8:	13060105 	movwne	r0, #24837	; 0x6105
     2fc:	064d0666 	strbeq	r0, [sp], -r6, ror #12
     300:	06050501 	streq	r0, [r5], -r1, lsl #10
     304:	010a054c 	tsteq	sl, ip, asr #10
     308:	01061505 	tsteq	r6, r5, lsl #10
     30c:	0025052e 	eoreq	r0, r5, lr, lsr #10
     310:	06010402 	streq	r0, [r1], -r2, lsl #8
     314:	0005052e 	andeq	r0, r5, lr, lsr #10
     318:	06010402 	streq	r0, [r1], -r2, lsl #8
     31c:	06090501 	streq	r0, [r9], -r1, lsl #10
     320:	060d054d 	streq	r0, [sp], -sp, asr #10
     324:	0c054a01 			; <UNDEFINED> instruction: 0x0c054a01
     328:	0028052e 	eoreq	r0, r8, lr, lsr #10
     32c:	06020402 	streq	r0, [r2], -r2, lsl #8
     330:	002c0547 	eoreq	r0, ip, r7, asr #10
     334:	06020402 	streq	r0, [r2], -r2, lsl #8
     338:	04020001 	streq	r0, [r2], #-1
     33c:	0d056602 	stceq	6, cr6, [r5, #-8]
     340:	06833306 	streq	r3, [r3], r6, lsl #6
     344:	16010501 	strne	r0, [r1], -r1, lsl #10
     348:	661c0306 	ldrvs	r0, [ip], -r6, lsl #6
     34c:	05820106 	streq	r0, [r2, #262]	; 0x106
     350:	132f0605 			; <UNDEFINED> instruction: 0x132f0605
     354:	66f20114 	usatvs	r0, #18, r4, lsl #2
     358:	060a0513 			; <UNDEFINED> instruction: 0x060a0513
     35c:	2e080501 	cfsh32cs	mvfx0, mvfx8, #1
     360:	67060905 	strvs	r0, [r6, -r5, lsl #18]
     364:	05140505 	ldreq	r0, [r4, #-1285]	; 0xfffffafb
     368:	0501060e 	streq	r0, [r1, #-1550]	; 0xfffff9f2
     36c:	014b0605 	cmpeq	fp, r5, lsl #12
     370:	02040200 	andeq	r0, r4, #0, 4
     374:	04020082 	streq	r0, [r2], #-130	; 0xffffff7e
     378:	02000102 	andeq	r0, r0, #-2147483648	; 0x80000000
     37c:	00140204 	andseq	r0, r4, r4, lsl #4
     380:	67020402 	strvs	r0, [r2, -r2, lsl #8]
     384:	02000105 	andeq	r0, r0, #1073741825	; 0x40000001
     388:	4b060204 	blmi	180ba0 <__bss_end__+0x175df0>
     38c:	03060905 	movweq	r0, #26885	; 0x6905
     390:	9e014a79 			; <UNDEFINED> instruction: 0x9e014a79
     394:	00050566 	andeq	r0, r5, r6, ror #10
     398:	31010402 	tstcc	r1, r2, lsl #8
     39c:	01040200 	mrseq	r0, R12_usr
     3a0:	04020001 	streq	r0, [r2], #-1
     3a4:	0105d601 	tsteq	r5, r1, lsl #12
     3a8:	3c080a03 			; <UNDEFINED> instruction: 0x3c080a03
     3ac:	05050106 	streq	r0, [r5, #-262]	; 0xfffffefa
     3b0:	10059f06 	andne	r9, r5, r6, lsl #30
     3b4:	052e0106 	streq	r0, [lr, #-262]!	; 0xfffffefa
     3b8:	684b0605 	stmdavs	fp, {r0, r2, r9, sl}^
     3bc:	01061505 	tsteq	r6, r5, lsl #10
     3c0:	2f060505 	svccs	0x00060505
     3c4:	01060e05 	tsteq	r6, r5, lsl #28
     3c8:	4b060505 	blmi	1817e4 <__bss_end__+0x176a34>
     3cc:	01061205 	tsteq	r6, r5, lsl #4
     3d0:	68060505 	stmdavs	r6, {r0, r2, r8, sl}
     3d4:	14829e01 	strne	r9, [r2], #3585	; 0xe01
     3d8:	01060d05 	tsteq	r6, r5, lsl #26
     3dc:	67060505 	strvs	r0, [r6, -r5, lsl #10]
     3e0:	01061005 	tsteq	r6, r5
     3e4:	30060505 	andcc	r0, r6, r5, lsl #10
     3e8:	13060105 	movwne	r0, #24837	; 0x6105
     3ec:	00060266 	andeq	r0, r6, r6, ror #4
     3f0:	02270101 	eoreq	r0, r7, #1073741824	; 0x40000000
     3f4:	00030000 	andeq	r0, r3, r0
     3f8:	00000064 	andeq	r0, r0, r4, rrx
     3fc:	0efb0102 	cdpeq	1, 15, cr0, cr11, cr2, {0}
     400:	0101000d 	tsteq	r1, sp
     404:	00000101 	andeq	r0, r0, r1, lsl #2
     408:	00000100 	andeq	r0, r0, r0, lsl #2
     40c:	73552f01 	cmpvc	r5, #1, 30
     410:	2f737265 	svccs	0x00737265
     414:	656c696d 	strbvs	r6, [ip, #-2413]!	; 0xfffff693
     418:	6f532f73 	svcvs	0x00532f73
     41c:	65637275 	strbvs	r7, [r3, #-629]!	; 0xfffffd8b
     420:	3273632f 	rsbscc	r6, r3, #-1140850688	; 0xbc000000
     424:	786c3034 	stmdavc	ip!, {r2, r4, r5, ip, sp}^
     428:	62696c2f 	rsbvs	r6, r9, #12032	; 0x2f00
     42c:	692f6970 	stmdbvs	pc!, {r4, r5, r6, r8, fp, sp, lr}	; <UNPREDICTABLE>
     430:	756c636e 	strbvc	r6, [ip, #-878]!	; 0xfffffc92
     434:	00006564 	andeq	r6, r0, r4, ror #10
     438:	6d2d726b 	sfmvs	f7, 4, [sp, #-428]!	; 0xfffffe54
     43c:	6f6c6c61 	svcvs	0x006c6c61
     440:	00632e63 	rsbeq	r2, r3, r3, ror #28
     444:	72000000 	andvc	r0, r0, #0, 0
     448:	682e6970 	stmdavs	lr!, {r4, r5, r6, r8, fp, sp, lr}
     44c:	00000100 	andeq	r0, r0, r0, lsl #2
     450:	6d2d726b 	sfmvs	f7, 4, [sp, #-428]!	; 0xfffffe54
     454:	6f6c6c61 	svcvs	0x006c6c61
     458:	00682e63 	rsbeq	r2, r8, r3, ror #28
     45c:	00000000 	andeq	r0, r0, r0
     460:	05000105 	streq	r0, [r0, #-261]	; 0xfffffefb
     464:	0083c802 	addeq	ip, r3, r2, lsl #16
     468:	00d20300 	sbcseq	r0, r2, r0, lsl #6
     46c:	05010601 	streq	r0, [r1, #-1537]	; 0xfffff9ff
     470:	132f0602 			; <UNDEFINED> instruction: 0x132f0602
     474:	01060505 	tsteq	r6, r5, lsl #10
     478:	2f060205 	svccs	0x00060205
     47c:	01060905 	tsteq	r6, r5, lsl #18
     480:	2e4a0205 	cdpcs	2, 4, cr0, cr10, cr5, {0}
     484:	02001205 	andeq	r1, r0, #1342177280	; 0x50000000
     488:	2e060104 	adfcss	f0, f6, f4
     48c:	02000205 	andeq	r0, r0, #1342177280	; 0x50000000
     490:	01060104 	tsteq	r6, r4, lsl #2
     494:	02002705 	andeq	r2, r0, #1310720	; 0x140000
     498:	054a0304 	strbeq	r0, [sl, #-772]	; 0xfffffcfc
     49c:	04020012 	streq	r0, [r2], #-18	; 0xffffffee
     4a0:	03052e03 	movweq	r2, #24067	; 0x5e03
     4a4:	10054b06 	andne	r4, r5, r6, lsl #22
     4a8:	06050106 	streq	r0, [r5], -r6, lsl #2
     4ac:	0015052e 	andseq	r0, r5, lr, lsr #10
     4b0:	4a010402 	bmi	414c0 <__bss_end__+0x36710>
     4b4:	02002005 	andeq	r2, r0, #5, 0
     4b8:	004a0204 	subeq	r0, sl, r4, lsl #4
     4bc:	4a020402 	bmi	814cc <__bss_end__+0x7671c>
     4c0:	30060205 	andcc	r0, r6, r5, lsl #4
     4c4:	01061005 	tsteq	r6, r5
     4c8:	052e0905 	streq	r0, [lr, #-2309]!	; 0xfffff6fb
     4cc:	05052e1d 	streq	r2, [r5, #-3613]	; 0xfffff1e3
     4d0:	0603052e 	streq	r0, [r3], -lr, lsr #10
     4d4:	060d0550 			; <UNDEFINED> instruction: 0x060d0550
     4d8:	06020501 	streq	r0, [r2], -r1, lsl #10
     4dc:	060e052f 	streq	r0, [lr], -pc, lsr #10
     4e0:	2e080501 	cfsh32cs	mvfx0, mvfx8, #1
     4e4:	052e0505 	streq	r0, [lr, #-1285]!	; 0xfffffafb
     4e8:	05500603 	ldrbeq	r0, [r0, #-1539]	; 0xfffff9fd
     4ec:	0501060c 	streq	r0, [r1, #-1548]	; 0xfffff9f4
     4f0:	052f0602 	streq	r0, [pc, #-1538]!	; fffffef6 <__bss_end__+0xffff5146>
     4f4:	05010608 	streq	r0, [r1, #-1544]	; 0xfffff9f8
     4f8:	03054b01 	movweq	r4, #23297	; 0x5b01
     4fc:	2e730306 	cdpcs	3, 7, cr0, cr3, cr6, {0}
     500:	01061c05 	tsteq	r6, r5, lsl #24
     504:	052e0e05 	streq	r0, [lr, #-3589]!	; 0xfffff1fb
     508:	054b0603 	strbeq	r0, [fp, #-1539]	; 0xfffff9fd
     50c:	05010613 	streq	r0, [r1, #-1555]	; 0xfffff9ed
     510:	0d052e1a 	stceq	14, cr2, [r5, #-104]	; 0xffffff98
     514:	0603052e 	streq	r0, [r3], -lr, lsr #10
     518:	06150550 			; <UNDEFINED> instruction: 0x06150550
     51c:	2e0d0501 	cfsh32cs	mvfx0, mvfx13, #1
     520:	4b060305 	blmi	18113c <__bss_end__+0x17638c>
     524:	01061305 	tsteq	r6, r5, lsl #6
     528:	052e0c05 	streq	r0, [lr, #-3077]!	; 0xfffff3fb
     52c:	ba030601 	blt	c1d38 <__bss_end__+0xb6f88>
     530:	0106667f 	tsteq	r6, pc, ror r6
     534:	4b060205 	blmi	180d50 <__bss_end__+0x175fa0>
     538:	01060505 	tsteq	r6, r5, lsl #10
     53c:	052f0605 	streq	r0, [pc, #-1541]!	; ffffff3f <__bss_end__+0xffff518f>
     540:	052f0602 	streq	r0, [pc, #-1538]!	; ffffff46 <__bss_end__+0xffff5196>
     544:	0501060d 	streq	r0, [r1, #-1549]	; 0xfffff9f3
     548:	054b0602 	strbeq	r0, [fp, #-1538]	; 0xfffff9fe
     54c:	05010605 	streq	r0, [r1, #-1541]	; 0xfffff9fb
     550:	134c0602 	movtne	r0, #50690	; 0xc602
     554:	01060d05 	tsteq	r6, r5, lsl #26
     558:	2f060205 	svccs	0x00060205
     55c:	2f062e06 	svccs	0x00062e06
     560:	01060905 	tsteq	r6, r5, lsl #18
     564:	05620a05 	strbeq	r0, [r2, #-2565]!	; 0xfffff5fb
     568:	4e063301 	cdpmi	3, 0, cr3, cr6, cr1, {0}
     56c:	02050106 	andeq	r0, r5, #-2147483647	; 0x80000001
     570:	14132f06 	ldrne	r2, [r3], #-3846	; 0xfffff0fa
     574:	01062405 	tsteq	r6, r5, lsl #8
     578:	052e2905 	streq	r2, [lr, #-2309]!	; 0xfffff6fb
     57c:	02052e09 	andeq	r2, r5, #144	; 0x90
     580:	0d052f06 	stceq	15, cr2, [r5, #-24]	; 0xffffffe8
     584:	05050106 	streq	r0, [r5, #-262]	; 0xfffffefa
     588:	0602054a 	streq	r0, [r2], -sl, asr #10
     58c:	06090550 			; <UNDEFINED> instruction: 0x06090550
     590:	03052e01 	movweq	r2, #24065	; 0x5e01
     594:	16052a06 	strne	r2, [r5], -r6, lsl #20
     598:	0e050106 	adfeqs	f0, f5, f6
     59c:	0603054a 	streq	r0, [r3], -sl, asr #10
     5a0:	060f052f 	streq	r0, [pc], -pc, lsr #10
     5a4:	06040501 	streq	r0, [r4], -r1, lsl #10
     5a8:	0607056d 	streq	r0, [r7], -sp, ror #10
     5ac:	06050501 	streq	r0, [r5], -r1, lsl #10
     5b0:	060f0534 			; <UNDEFINED> instruction: 0x060f0534
     5b4:	06050501 	streq	r0, [r5], -r1, lsl #10
     5b8:	0607054b 	streq	r0, [r7], -fp, asr #10
     5bc:	06050501 	streq	r0, [r5], -r1, lsl #10
     5c0:	060f052f 	streq	r0, [pc], -pc, lsr #10
     5c4:	06040501 	streq	r0, [r4], -r1, lsl #10
     5c8:	060a0530 			; <UNDEFINED> instruction: 0x060a0530
     5cc:	06040501 	streq	r0, [r4], -r1, lsl #10
     5d0:	060b054b 	streq	r0, [fp], -fp, asr #10
     5d4:	05052e01 	streq	r2, [r5, #-3585]	; 0xfffff1ff
     5d8:	2e770306 	cdpcs	3, 7, cr0, cr7, cr6, {0}
     5dc:	01061805 	tsteq	r6, r5, lsl #16
     5e0:	052e1205 	streq	r1, [lr, #-517]!	; 0xfffffdfb
     5e4:	7a03061a 	bvc	c1e54 <__bss_end__+0xb70a4>
     5e8:	0118054a 	tsteq	r8, sl, asr #10
     5ec:	01062005 	tsteq	r6, r5
     5f0:	052e2705 	streq	r2, [lr, #-1797]!	; 0xfffff8fb
     5f4:	05300603 	ldreq	r0, [r0, #-1539]!	; 0xfffff9fd
     5f8:	0501060b 	streq	r0, [r1, #-1547]	; 0xfffff9f5
     5fc:	03052e06 	movweq	r2, #24070	; 0x5e06
     600:	4a0f0306 	bmi	3c1220 <__bss_end__+0x3b6470>
     604:	01060905 	tsteq	r6, r5, lsl #18
     608:	054a0605 	strbeq	r0, [sl, #-1541]	; 0xfffff9fb
     60c:	054c0604 	strbeq	r0, [ip, #-1540]	; 0xfffff9fc
     610:	2e01060d 	cfmadd32cs	mvax0, mvfx0, mvfx1, mvfx13
     614:	2e2e0705 	cdpcs	7, 2, cr0, cr14, cr5, {0}
     618:	01000602 	tsteq	r0, r2, lsl #12
     61c:	00054401 	andeq	r4, r5, r1, lsl #8
     620:	d4000300 	strle	r0, [r0], #-768	; 0xfffffd00
     624:	02000000 	andeq	r0, r0, #0, 0
     628:	0d0efb01 	vstreq	d15, [lr, #-4]
     62c:	01010100 	mrseq	r0, (UNDEF: 17)
     630:	00000001 	andeq	r0, r0, r1
     634:	01000001 	tsteq	r0, r1
     638:	74706f2f 	ldrbtvc	r6, [r0], #-3887	; 0xfffff0d1
     63c:	6d6f682f 	stclvs	8, cr6, [pc, #-188]!	; 588 <__code_start__-0x7a78>
     640:	65726265 	ldrbvs	r6, [r2, #-613]!	; 0xfffffd9b
     644:	65432f77 	strbvs	r2, [r3, #-3959]	; 0xfffff089
     648:	72616c6c 	rsbvc	r6, r1, #108, 24	; 0x6c00
     64c:	6d72612f 	ldfvse	f6, [r2, #-188]!	; 0xffffff44
     650:	6e6f6e2d 	cdpvs	14, 6, cr6, cr15, cr13, {1}
     654:	61652d65 	cmnvs	r5, r5, ror #26
     658:	392d6962 	pushcc	{r1, r5, r6, r8, fp, sp, lr}
     65c:	322d392f 	eorcc	r3, sp, #770048	; 0xbc000
     660:	71393130 	teqvc	r9, r0, lsr r1
     664:	73632d34 	cmnvc	r3, #52, 26	; 0xd00
     668:	65373031 	ldrvs	r3, [r7, #-49]!	; 0xffffffcf
     66c:	62696c2f 	rsbvs	r6, r9, #12032	; 0x2f00
     670:	6363672f 	cmnvs	r3, #12320768	; 0xbc0000
     674:	6d72612f 	ldfvse	f6, [r2, #-188]!	; 0xffffff44
     678:	6e6f6e2d 	cdpvs	14, 6, cr6, cr15, cr13, {1}
     67c:	61652d65 	cmnvs	r5, r5, ror #26
     680:	392f6962 	stmdbcc	pc!, {r1, r5, r6, r8, fp, sp, lr}	; <UNPREDICTABLE>
     684:	312e322e 			; <UNDEFINED> instruction: 0x312e322e
     688:	636e692f 	cmnvs	lr, #770048	; 0xbc000
     68c:	6564756c 	strbvs	r7, [r4, #-1388]!	; 0xfffffa94
     690:	73552f00 	cmpvc	r5, #0, 30
     694:	2f737265 	svccs	0x00737265
     698:	656c696d 	strbvs	r6, [ip, #-2413]!	; 0xfffff693
     69c:	6f532f73 	svcvs	0x00532f73
     6a0:	65637275 	strbvs	r7, [r3, #-629]!	; 0xfffffd8b
     6a4:	3273632f 	rsbscc	r6, r3, #-1140850688	; 0xbc000000
     6a8:	786c3034 	stmdavc	ip!, {r2, r4, r5, ip, sp}^
     6ac:	62696c2f 	rsbvs	r6, r9, #12032	; 0x2f00
     6b0:	692f6970 	stmdbvs	pc!, {r4, r5, r6, r8, fp, sp, lr}	; <UNPREDICTABLE>
     6b4:	756c636e 	strbvc	r6, [ip, #-878]!	; 0xfffffc92
     6b8:	00006564 	andeq	r6, r0, r4, ror #10
     6bc:	672d6b63 	strvs	r6, [sp, -r3, ror #22]!
     6c0:	00632e63 	rsbeq	r2, r3, r3, ror #28
     6c4:	73000000 	movwvc	r0, #0
     6c8:	6c2d6372 	stcvs	3, cr6, [sp], #-456	; 0xfffffe38
     6cc:	682e636f 	stmdavs	lr!, {r0, r1, r2, r3, r5, r6, r8, r9, sp, lr}
     6d0:	00000000 	andeq	r0, r0, r0
     6d4:	69647473 	stmdbvs	r4!, {r0, r1, r4, r5, r6, sl, ip, sp, lr}^
     6d8:	672d746e 	strvs	r7, [sp, -lr, ror #8]!
     6dc:	682e6363 	stmdavs	lr!, {r0, r1, r5, r6, r8, r9, sp, lr}
     6e0:	00000100 	andeq	r0, r0, r0, lsl #2
     6e4:	2e697072 	mcrcs	0, 3, r7, cr9, cr2, {3}
     6e8:	00020068 	andeq	r0, r2, r8, rrx
     6ec:	616b6300 	cmnvs	fp, r0, lsl #6
     6f0:	636f6c6c 	cmnvs	pc, #108, 24	; 0x6c00
     6f4:	0000682e 	andeq	r6, r0, lr, lsr #16
     6f8:	05000000 	streq	r0, [r0, #-0]
     6fc:	02050001 	andeq	r0, r5, #1, 0
     700:	00008574 	andeq	r8, r0, r4, ror r5
     704:	05012b03 	streq	r2, [r1, #-2819]	; 0xfffff4fd
     708:	0b051405 	bleq	145724 <__bss_end__+0x13a974>
     70c:	08050106 	stmdaeq	r5, {r1, r2, r8}
     710:	001d054a 	andseq	r0, sp, sl, asr #10
     714:	4a010402 	bmi	41724 <__bss_end__+0x36974>
     718:	02001805 	andeq	r1, r0, #327680	; 0x50000
     71c:	054a0104 	strbeq	r0, [sl, #-260]	; 0xfffffefc
     720:	052e4d0c 	streq	r4, [lr, #-3340]!	; 0xfffff2f4
     724:	2e2e2c10 	mcrcs	12, 1, r2, cr14, cr0, {0}
     728:	06310105 	ldrteq	r0, [r1], -r5, lsl #2
     72c:	064a0b03 	strbeq	r0, [sl], -r3, lsl #22
     730:	06050501 	streq	r0, [r5], -r1, lsl #10
     734:	0a05144b 	beq	145868 <__bss_end__+0x13aab8>
     738:	08050106 	stmdaeq	r5, {r1, r2, r8}
     73c:	0605052e 	streq	r0, [r5], -lr, lsr #10
     740:	060c054c 	streq	r0, [ip], -ip, asr #10
     744:	65100501 	ldrvs	r0, [r0, #-1281]	; 0xfffffaff
     748:	06300105 	ldrteq	r0, [r0], -r5, lsl #2
     74c:	062e0e03 	strteq	r0, [lr], -r3, lsl #28
     750:	06050501 	streq	r0, [r5], -r1, lsl #10
     754:	0200014b 	andeq	r0, r0, #-1073741806	; 0xc0000012
     758:	00820204 	addeq	r0, r2, r4, lsl #4
     75c:	01020402 	tsteq	r2, r2, lsl #8
     760:	02040200 	andeq	r0, r4, #0, 4
     764:	04020015 	streq	r0, [r2], #-21	; 0xffffffeb
     768:	02000102 	andeq	r0, r0, #-2147483648	; 0x80000000
     76c:	004a0204 	subeq	r0, sl, r4, lsl #4
     770:	01020402 	tsteq	r2, r2, lsl #8
     774:	02040200 	andeq	r0, r4, #0, 4
     778:	04020013 	streq	r0, [r2], #-19	; 0xffffffed
     77c:	02000102 	andeq	r0, r0, #-2147483648	; 0x80000000
     780:	004a0104 	subeq	r0, sl, r4, lsl #2
     784:	01010402 	tsteq	r1, r2, lsl #8
     788:	01040200 	mrseq	r0, R12_usr
     78c:	02009e06 	andeq	r9, r0, #96	; 0x60
     790:	002e0104 	eoreq	r0, lr, r4, lsl #2
     794:	06010402 	streq	r0, [r1], -r2, lsl #8
     798:	0402002e 	streq	r0, [r2], #-46	; 0xffffffd2
     79c:	02002a01 	andeq	r2, r0, #4096	; 0x1000
     7a0:	00010104 	andeq	r0, r1, r4, lsl #2
     7a4:	06010402 	streq	r0, [r1], -r2, lsl #8
     7a8:	0402009e 	streq	r0, [r2], #-158	; 0xffffff62
     7ac:	02002e01 	andeq	r2, r0, #1, 28
     7b0:	2e060104 	adfcss	f0, f6, f4
     7b4:	01040200 	mrseq	r0, R12_usr
     7b8:	04020031 	streq	r0, [r2], #-49	; 0xffffffcf
     7bc:	02000101 	andeq	r0, r0, #1073741824	; 0x40000000
     7c0:	9e060104 	adflss	f0, f6, f4
     7c4:	01040200 	mrseq	r0, R12_usr
     7c8:	0402002e 	streq	r0, [r2], #-46	; 0xffffffd2
     7cc:	052e0601 	streq	r0, [lr, #-1537]!	; 0xfffff9ff
     7d0:	0d030619 	stceq	6, cr0, [r3, #-100]	; 0xffffff9c
     7d4:	4b11052e 	blmi	441c94 <__bss_end__+0x436ee4>
     7d8:	04040200 	streq	r0, [r4], #-512	; 0xfffffe00
     7dc:	0402002e 	streq	r0, [r2], #-46	; 0xffffffd2
     7e0:	054d0604 	strbeq	r0, [sp, #-1540]	; 0xfffff9fc
     7e4:	04020014 	streq	r0, [r2], #-20	; 0xffffffec
     7e8:	00010604 	andeq	r0, r1, r4, lsl #12
     7ec:	4a040402 	bmi	1017fc <__bss_end__+0xf6a4c>
     7f0:	02002305 	andeq	r2, r0, #335544320	; 0x14000000
     7f4:	03060204 	movweq	r0, #25092	; 0x6204
     7f8:	24050172 	strcs	r0, [r5], #-370	; 0xfffffe8e
     7fc:	02040200 	andeq	r0, r4, #0, 4
     800:	1b050106 	blne	140c20 <__bss_end__+0x135e70>
     804:	01040200 	mrseq	r0, R12_usr
     808:	05052e06 	streq	r2, [r5, #-3590]	; 0xfffff1fa
     80c:	01040200 	mrseq	r0, R12_usr
     810:	09050106 	stmdbeq	r5, {r1, r2, r8}
     814:	14054c06 	strne	r4, [r5], #-3078	; 0xfffff3fa
     818:	09050106 	stmdbeq	r5, {r1, r2, r8}
     81c:	0c054b06 			; <UNDEFINED> instruction: 0x0c054b06
     820:	0d050106 	stfeqs	f0, [r5, #-24]	; 0xffffffe8
     824:	29054c06 	stmdbcs	r5, {r1, r2, sl, fp, lr}
     828:	0d050106 	stfeqs	f0, [r5, #-24]	; 0xffffffe8
     82c:	16052f06 	strne	r2, [r5], -r6, lsl #30
     830:	0d050106 	stfeqs	f0, [r5, #-24]	; 0xffffffe8
     834:	2e062f06 	cdpcs	15, 0, cr2, cr6, cr6, {0}
     838:	05bb062e 	ldreq	r0, [fp, #1582]!	; 0x62e
     83c:	05010610 	streq	r0, [r1, #-1552]	; 0xfffff9f0
     840:	054c0611 	strbeq	r0, [ip, #-1553]	; 0xfffff9ef
     844:	0501061c 	streq	r0, [r1, #-1564]	; 0xfffff9e4
     848:	02002e19 	andeq	r2, r0, #400	; 0x190
     84c:	05660404 	strbeq	r0, [r6, #-1028]!	; 0xfffffbfc
     850:	04020011 	streq	r0, [r2], #-17	; 0xffffffef
     854:	052f0604 	streq	r0, [pc, #-1540]!	; 258 <__code_start__-0x7da8>
     858:	0402002c 	streq	r0, [r2], #-44	; 0xffffffd4
     85c:	05010604 	streq	r0, [r1, #-1540]	; 0xfffff9fc
     860:	04020011 	streq	r0, [r2], #-17	; 0xffffffef
     864:	054a2e04 	strbeq	r2, [sl, #-3588]	; 0xfffff1fc
     868:	054f0615 	strbeq	r0, [pc, #-1557]	; 25b <__code_start__-0x7da5>
     86c:	0501064d 	streq	r0, [r1, #-1613]	; 0xfffff9b3
     870:	11052e15 	tstne	r5, r5, lsl lr
     874:	6606a306 	strvs	sl, [r6], -r6, lsl #6
     878:	4a160105 	bmi	580c94 <__bss_end__+0x575ee4>
     87c:	02050006 	andeq	r0, r5, #6, 0
     880:	00008740 	andeq	r8, r0, r0, asr #14
     884:	05010903 	streq	r0, [r1, #-2307]	; 0xfffff6fd
     888:	0a054e05 	beq	1540a4 <__bss_end__+0x1492f4>
     88c:	06150501 	ldreq	r0, [r5], -r1, lsl #10
     890:	00250501 	eoreq	r0, r5, r1, lsl #10
     894:	06010402 	streq	r0, [r1], -r2, lsl #8
     898:	0005052e 	andeq	r0, r5, lr, lsr #10
     89c:	06010402 	streq	r0, [r1], -r2, lsl #8
     8a0:	00090501 	andeq	r0, r9, r1, lsl #10
     8a4:	06030402 	streq	r0, [r3], -r2, lsl #8
     8a8:	0032054c 	eorseq	r0, r2, ip, asr #10
     8ac:	06030402 	streq	r0, [r3], -r2, lsl #8
     8b0:	00210501 	eoreq	r0, r1, r1, lsl #10
     8b4:	4a030402 	bmi	c18c4 <__bss_end__+0xb6b14>
     8b8:	02001105 	andeq	r1, r0, #1073741825	; 0x40000001
     8bc:	052e0304 	streq	r0, [lr, #-772]!	; 0xfffffcfc
     8c0:	04020028 	streq	r0, [r2], #-40	; 0xffffffd8
     8c4:	052c0603 	streq	r0, [ip, #-1539]!	; 0xfffff9fd
     8c8:	0402002c 	streq	r0, [r2], #-44	; 0xffffffd4
     8cc:	00010603 	andeq	r0, r1, r3, lsl #12
     8d0:	2e030402 	cdpcs	4, 0, cr0, cr3, cr2, {0}
     8d4:	03040200 	movweq	r0, #16896	; 0x4200
     8d8:	0605052e 	streq	r0, [r5], -lr, lsr #10
     8dc:	2e061319 	mcrcs	3, 0, r1, cr6, cr9, {0}
     8e0:	0d053006 	stceq	0, cr3, [r5, #-24]	; 0xffffffe8
     8e4:	05050106 	streq	r0, [r5, #-262]	; 0xfffffefa
     8e8:	0d054b06 	vstreq	d4, [r5, #-24]	; 0xffffffe8
     8ec:	05050106 	streq	r0, [r5, #-262]	; 0xfffffefa
     8f0:	0d052f06 	stceq	15, cr2, [r5, #-24]	; 0xffffffe8
     8f4:	05050106 	streq	r0, [r5, #-262]	; 0xfffffefa
     8f8:	0d052f06 	stceq	15, cr2, [r5, #-24]	; 0xffffffe8
     8fc:	05050106 	streq	r0, [r5, #-262]	; 0xfffffefa
     900:	136a3506 	cmnne	sl, #25165824	; 0x1800000
     904:	68136983 	ldmdavs	r3, {r0, r1, r7, r8, fp, sp, lr}
     908:	06010513 			; <UNDEFINED> instruction: 0x06010513
     90c:	06dc0667 	ldrbeq	r0, [ip], r7, ror #12
     910:	06050501 	streq	r0, [r5], -r1, lsl #10
     914:	2e06134b 	cdpcs	3, 0, cr1, cr6, cr11, {2}
     918:	2f4c2f06 	svccs	0x004c2f06
     91c:	05010a05 	streq	r0, [r1, #-2565]	; 0xfffff5fb
     920:	4a010615 	bmi	4217c <__bss_end__+0x373cc>
     924:	050d2705 	streq	r2, [sp, #-1797]	; 0xfffff8fb
     928:	0e052e1b 	mcreq	14, 0, r2, cr5, cr11, {0}
     92c:	3305052e 	movwcc	r0, #21806	; 0x552e
     930:	33060d05 	movwcc	r0, #27909	; 0x6d05
     934:	01061305 	tsteq	r6, r5, lsl #6
     938:	2f060d05 	svccs	0x00060d05
     93c:	28056606 	stmdacs	r5, {r1, r2, r9, sl, sp, lr}
     940:	02040200 	andeq	r0, r4, #0, 4
     944:	2e7a0306 	cdpcs	3, 7, cr0, cr10, cr6, {0}
     948:	02002c05 	andeq	r2, r0, #1280	; 0x500
     94c:	01060204 	tsteq	r6, r4, lsl #4
     950:	02002505 	andeq	r2, r0, #20971520	; 0x1400000
     954:	66060104 	strvs	r0, [r6], -r4, lsl #2
     958:	02000505 	andeq	r0, r0, #20971520	; 0x1400000
     95c:	01060104 	tsteq	r6, r4, lsl #2
     960:	4c060905 			; <UNDEFINED> instruction: 0x4c060905
     964:	01061005 	tsteq	r6, r5
     968:	2f060905 	svccs	0x00060905
     96c:	01060e05 	tsteq	r6, r5, lsl #28
     970:	052e0c05 	streq	r0, [lr, #-3077]!	; 0xfffff3fb
     974:	054f060e 	strbeq	r0, [pc, #-1550]	; 36e <__code_start__-0x7c92>
     978:	05010611 	streq	r0, [r1, #-1553]	; 0xfffff9ef
     97c:	054c060d 	strbeq	r0, [ip, #-1549]	; 0xfffff9f3
     980:	05010619 	streq	r0, [r1, #-1561]	; 0xfffff9e7
     984:	062f060d 	strteq	r0, [pc], -sp, lsl #12
     988:	052e2e66 	streq	r2, [lr, #-3686]!	; 0xfffff19a
     98c:	01160605 	tsteq	r6, r5, lsl #12
     990:	2e062e06 	cdpcs	14, 0, cr2, cr6, cr6, {0}
     994:	08051366 	stmdaeq	r5, {r1, r2, r5, r6, r8, r9, ip}
     998:	09050106 	stmdbeq	r5, {r1, r2, r8}
     99c:	4a014b06 	bmi	535bc <__bss_end__+0x4880c>
     9a0:	0402004a 	streq	r0, [r2], #-74	; 0xffffffb6
     9a4:	05051401 	streq	r1, [r5, #-1025]	; 0xfffffbff
     9a8:	01040200 	mrseq	r0, R12_usr
     9ac:	04020014 	streq	r0, [r2], #-20	; 0xffffffec
     9b0:	08054b01 	stmdaeq	r5, {r0, r8, r9, fp, lr}
     9b4:	01040200 	mrseq	r0, R12_usr
     9b8:	09050106 	stmdbeq	r5, {r1, r2, r8}
     9bc:	17053006 	strne	r3, [r5, -r6]
     9c0:	01050106 	tsteq	r5, r6, lsl #2
     9c4:	06090534 			; <UNDEFINED> instruction: 0x06090534
     9c8:	014a7503 	cmpeq	sl, r3, lsl #10
     9cc:	0301054a 	movweq	r0, #5450	; 0x154a
     9d0:	05ac0835 	streq	r0, [ip, #2101]!	; 0x835
     9d4:	4b134b05 	blmi	4d35f0 <__bss_end__+0x4c8840>
     9d8:	0a052f4c 	beq	14c710 <__bss_end__+0x141960>
     9dc:	06150501 	ldreq	r0, [r5], -r1, lsl #10
     9e0:	27054a01 	strcs	r4, [r5, -r1, lsl #20]
     9e4:	2e1b050d 	cfmul32cs	mvfx0, mvfx11, mvfx13
     9e8:	052e0e05 	streq	r0, [lr, #-3589]!	; 0xfffff1fb
     9ec:	0d053305 	stceq	3, cr3, [r5, #-20]	; 0xffffffec
     9f0:	13053306 	movwne	r3, #21254	; 0x5306
     9f4:	0d050106 	stfeqs	f0, [r5, #-24]	; 0xffffffe8
     9f8:	1e052f06 	cdpne	15, 0, cr2, cr5, cr6, {0}
     9fc:	1a050106 	bne	140e1c <__bss_end__+0x13606c>
     a00:	060d052e 	streq	r0, [sp], -lr, lsr #10
     a04:	0502042f 	streq	r0, [r2, #-1071]	; 0xfffffbd1
     a08:	7e8b030b 	cdpvc	3, 8, cr0, cr11, cr11, {0}
     a0c:	1305052e 	movwne	r0, #21806	; 0x552e
     a10:	01060c05 	tsteq	r6, r5, lsl #24
     a14:	050104ba 	streq	r0, [r1, #-1210]	; 0xfffffb46
     a18:	01f4030d 	mvnseq	r0, sp, lsl #6
     a1c:	2f066601 	svccs	0x00066601
     a20:	02002805 	andeq	r2, r0, #327680	; 0x50000
     a24:	78030204 	stmdavc	r3, {r2, r9}
     a28:	002c0566 	eoreq	r0, ip, r6, ror #10
     a2c:	06020402 	streq	r0, [r2], -r2, lsl #8
     a30:	00250501 	eoreq	r0, r5, r1, lsl #10
     a34:	06010402 	streq	r0, [r1], -r2, lsl #8
     a38:	00050566 	andeq	r0, r5, r6, ror #10
     a3c:	06010402 	streq	r0, [r1], -r2, lsl #8
     a40:	06090501 	streq	r0, [r9], -r1, lsl #10
     a44:	0610054c 	ldreq	r0, [r0], -ip, asr #10
     a48:	06090501 	streq	r0, [r9], -r1, lsl #10
     a4c:	060e052f 	streq	r0, [lr], -pc, lsr #10
     a50:	2e0c0501 	cfsh32cs	mvfx0, mvfx12, #1
     a54:	06050566 	streq	r0, [r5], -r6, ror #10
     a58:	01010903 	tsteq	r1, r3, lsl #18
     a5c:	2e062e06 	cdpcs	14, 0, cr2, cr6, cr6, {0}
     a60:	0105149e 			; <UNDEFINED> instruction: 0x0105149e
     a64:	06661306 	strbteq	r1, [r6], -r6, lsl #6
     a68:	dc020500 	cfstr32le	mvfx0, [r2], {-0}
     a6c:	03000089 	movweq	r0, #137	; 0x89
     a70:	06017e8b 	streq	r7, [r1], -fp, lsl #29
     a74:	06050501 	streq	r0, [r5], -r1, lsl #10
     a78:	0001144b 	andeq	r1, r1, fp, asr #8
     a7c:	4a020402 	bmi	81a8c <__bss_end__+0x76cdc>
     a80:	02040200 	andeq	r0, r4, #0, 4
     a84:	04020001 	streq	r0, [r2], #-1
     a88:	09051302 	stmdbeq	r5, {r1, r8, r9, ip}
     a8c:	02040200 	andeq	r0, r4, #0, 4
     a90:	08050106 	stmdaeq	r5, {r1, r2, r8}
     a94:	02040200 	andeq	r0, r4, #0, 4
     a98:	0609054a 	streq	r0, [r9], -sl, asr #10
     a9c:	0513154b 	ldreq	r1, [r3, #-1355]	; 0xfffffab5
     aa0:	4a010614 	bmi	422f8 <__bss_end__+0x37548>
     aa4:	2f060905 	svccs	0x00060905
     aa8:	01061205 	tsteq	r6, r5, lsl #4
     aac:	4b060905 	blmi	182ec8 <__bss_end__+0x178118>
     ab0:	0610054b 	ldreq	r0, [r0], -fp, asr #10
     ab4:	06050501 	streq	r0, [r5], -r1, lsl #10
     ab8:	060c054c 	streq	r0, [ip], -ip, asr #10
     abc:	4b010501 	blmi	41ec8 <__bss_end__+0x37118>
     ac0:	02000505 	andeq	r0, r0, #20971520	; 0x1400000
     ac4:	03060104 	movweq	r0, #24836	; 0x6104
     ac8:	02004a74 	andeq	r4, r0, #116, 20	; 0x74000
     acc:	00010104 	andeq	r0, r1, r4, lsl #2
     ad0:	06010402 	streq	r0, [r1], -r2, lsl #8
     ad4:	040200ba 	streq	r0, [r2], #-186	; 0xffffff46
     ad8:	052e0601 	streq	r0, [lr, #-1537]!	; 0xfffff9ff
     adc:	06013009 	streq	r3, [r1], -r9
     ae0:	052e0682 	streq	r0, [lr, #-1666]!	; 0xfffff97e
     ae4:	01b60301 			; <UNDEFINED> instruction: 0x01b60301
     ae8:	050106d6 	streq	r0, [r1, #-1750]	; 0xfffff92a
     aec:	05300605 	ldreq	r0, [r0, #-1541]!	; 0xfffff9fb
     af0:	0501060c 	streq	r0, [r1, #-1548]	; 0xfffff9f4
     af4:	32062f01 	andcc	r2, r6, #1, 30
     af8:	13320505 	teqne	r2, #20971520	; 0x1400000
     afc:	01060905 	tsteq	r6, r5, lsl #18
     b00:	054a0805 	strbeq	r0, [sl, #-2053]	; 0xfffff7fb
     b04:	144b0609 	strbne	r0, [fp], #-1545	; 0xfffff9f7
     b08:	054a4a01 	strbeq	r4, [sl, #-2561]	; 0xfffff5ff
     b0c:	01051305 	tsteq	r5, r5, lsl #6
     b10:	09051306 	stmdbeq	r5, {r1, r2, r8, r9, ip}
     b14:	9e012a06 	vmlals.f32	s4, s2, s12
     b18:	05c20105 	strbeq	r0, [r2, #261]	; 0x105
     b1c:	05133205 	ldreq	r3, [r3, #-517]	; 0xfffffdfb
     b20:	05010617 	streq	r0, [r1, #-1559]	; 0xfffff9e9
     b24:	054b0605 	strbeq	r0, [fp, #-1541]	; 0xfffff9fb
     b28:	05010608 	streq	r0, [r1, #-1544]	; 0xfffff9f8
     b2c:	144b0609 	strbne	r0, [fp], #-1545	; 0xfffff9f7
     b30:	062e0601 	strteq	r0, [lr], -r1, lsl #12
     b34:	0505662e 	streq	r6, [r5, #-1582]	; 0xfffff9d2
     b38:	01051313 	tsteq	r5, r3, lsl r3
     b3c:	09051306 	stmdbeq	r5, {r1, r2, r8, r9, ip}
     b40:	9e014506 	cfsh32ls	mvfx4, mvfx1, #6
     b44:	21030105 	tstcs	r3, r5, lsl #2
     b48:	2f0505ba 	svccs	0x000505ba
     b4c:	0617052f 	ldreq	r0, [r7], -pc, lsr #10
     b50:	06050501 	streq	r0, [r5], -r1, lsl #10
     b54:	06010532 			; <UNDEFINED> instruction: 0x06010532
     b58:	05310613 	ldreq	r0, [r1, #-1555]!	; 0xfffff9ed
     b5c:	9e012f05 	cdpls	15, 0, cr2, cr1, cr5, {0}
     b60:	01000a02 	tsteq	r0, r2, lsl #20
     b64:	00012101 	andeq	r2, r1, r1, lsl #2
     b68:	be000300 	cdplt	3, 0, cr0, cr0, cr0, {0}
     b6c:	02000000 	andeq	r0, r0, #0, 0
     b70:	0d0efb01 	vstreq	d15, [lr, #-4]
     b74:	01010100 	mrseq	r0, (UNDEF: 17)
     b78:	00000001 	andeq	r0, r0, r1
     b7c:	01000001 	tsteq	r0, r1
     b80:	696c2f2e 	stmdbvs	ip!, {r1, r2, r3, r5, r8, r9, sl, fp, sp}^
     b84:	2f006362 	svccs	0x00006362
     b88:	72657355 	rsbvc	r7, r5, #1409286145	; 0x54000001
     b8c:	696d2f73 	stmdbvs	sp!, {r0, r1, r4, r5, r6, r8, r9, sl, fp, sp}^
     b90:	2f73656c 	svccs	0x0073656c
     b94:	72756f53 	rsbsvc	r6, r5, #332	; 0x14c
     b98:	632f6563 			; <UNDEFINED> instruction: 0x632f6563
     b9c:	30343273 	eorscc	r3, r4, r3, ror r2
     ba0:	6c2f786c 	stcvs	8, cr7, [pc], #-432	; 9f8 <__code_start__-0x7608>
     ba4:	69706269 	ldmdbvs	r0!, {r0, r3, r5, r6, r9, sp, lr}^
     ba8:	636e692f 	cmnvs	lr, #770048	; 0xbc000
     bac:	6564756c 	strbvs	r7, [r4, #-1388]!	; 0xfffffa94
     bb0:	706f2f00 	rsbvc	r2, pc, r0, lsl #30
     bb4:	6f682f74 	svcvs	0x00682f74
     bb8:	7262656d 	rsbvc	r6, r2, #457179136	; 0x1b400000
     bbc:	432f7765 			; <UNDEFINED> instruction: 0x432f7765
     bc0:	616c6c65 	cmnvs	ip, r5, ror #24
     bc4:	72612f72 	rsbvc	r2, r1, #456	; 0x1c8
     bc8:	6f6e2d6d 	svcvs	0x006e2d6d
     bcc:	652d656e 	strvs	r6, [sp, #-1390]!	; 0xfffffa92
     bd0:	2d696261 	sfmcs	f6, 2, [r9, #-388]!	; 0xfffffe7c
     bd4:	2d392f39 	ldccs	15, cr2, [r9, #-228]!	; 0xffffff1c
     bd8:	39313032 	ldmdbcc	r1!, {r1, r4, r5, ip, sp}
     bdc:	632d3471 			; <UNDEFINED> instruction: 0x632d3471
     be0:	37303173 			; <UNDEFINED> instruction: 0x37303173
     be4:	696c2f65 	stmdbvs	ip!, {r0, r2, r5, r6, r8, r9, sl, fp, sp}^
     be8:	63672f62 	cmnvs	r7, #392	; 0x188
     bec:	72612f63 	rsbvc	r2, r1, #396	; 0x18c
     bf0:	6f6e2d6d 	svcvs	0x006e2d6d
     bf4:	652d656e 	strvs	r6, [sp, #-1390]!	; 0xfffffa92
     bf8:	2f696261 	svccs	0x00696261
     bfc:	2e322e39 	mrccs	14, 1, r2, cr2, cr9, {1}
     c00:	6e692f31 	mcrvs	15, 3, r2, cr9, cr1, {1}
     c04:	64756c63 	ldrbtvs	r6, [r5], #-3171	; 0xfffff39d
     c08:	6d000065 	stcvs	0, cr0, [r0, #-404]	; 0xfffffe6c
     c0c:	65736d65 	ldrbvs	r6, [r3, #-3429]!	; 0xfffff29b
     c10:	00632e74 	rsbeq	r2, r3, r4, ror lr
     c14:	72000001 	andvc	r0, r0, #1, 0
     c18:	682e6970 	stmdavs	lr!, {r4, r5, r6, r8, fp, sp, lr}
     c1c:	00000200 	andeq	r0, r0, r0, lsl #4
     c20:	64647473 	strbtvs	r7, [r4], #-1139	; 0xfffffb8d
     c24:	682e6665 	stmdavs	lr!, {r0, r2, r5, r6, r9, sl, sp, lr}
     c28:	00000300 	andeq	r0, r0, r0, lsl #6
     c2c:	00290500 	eoreq	r0, r9, r0, lsl #10
     c30:	8b800205 	blhi	fe00144c <__bss_end__+0xfdff669c>
     c34:	05150000 	ldreq	r0, [r5, #-0]
     c38:	29051305 	stmdbcs	r5, {r0, r2, r8, r9, ip}
     c3c:	14051106 	strne	r1, [r5], #-262	; 0xfffffefa
     c40:	0605052f 	streq	r0, [r5], -pc, lsr #10
     c44:	010a0530 	tsteq	sl, r0, lsr r5
     c48:	09059e06 	stmdbeq	r5, {r1, r2, r9, sl, fp, ip, pc}
     c4c:	0e05d706 	cdpeq	7, 0, cr13, cr5, cr6, {0}
     c50:	0a050106 	beq	141070 <__bss_end__+0x1362c0>
     c54:	09052d06 	stmdbeq	r5, {r1, r2, r8, sl, fp, sp}
     c58:	060e05bb 			; <UNDEFINED> instruction: 0x060e05bb
     c5c:	0a052e01 	beq	14c468 <__bss_end__+0x1416b8>
     c60:	09052d06 	stmdbeq	r5, {r1, r2, r8, sl, fp, sp}
     c64:	060b054b 	streq	r0, [fp], -fp, asr #10
     c68:	2d0a0501 	cfstr32cs	mvfx0, [sl, #-4]
     c6c:	052f0e05 	streq	r0, [pc, #-3589]!	; fffffe6f <__bss_end__+0xffff50bf>
     c70:	052d060a 	streq	r0, [sp, #-1546]!	; 0xfffff9f6
     c74:	0513060e 	ldreq	r0, [r3, #-1550]	; 0xfffff9f2
     c78:	052e0609 	streq	r0, [lr, #-1545]!	; 0xfffff9f7
     c7c:	0505110a 	streq	r1, [r5, #-266]	; 0xfffffef6
     c80:	06010514 			; <UNDEFINED> instruction: 0x06010514
     c84:	00020213 	andeq	r0, r2, r3, lsl r2
     c88:	01200101 			; <UNDEFINED> instruction: 0x01200101
     c8c:	00030000 	andeq	r0, r3, r0
     c90:	000000db 	ldrdeq	r0, [r0], -fp
     c94:	0efb0102 	cdpeq	1, 15, cr0, cr11, cr2, {0}
     c98:	0101000d 	tsteq	r1, sp
     c9c:	00000101 	andeq	r0, r0, r1, lsl #2
     ca0:	00000100 	andeq	r0, r0, r0, lsl #2
     ca4:	6c2f2e01 	stcvs	14, cr2, [pc], #-4	; ca8 <__code_start__-0x7358>
     ca8:	00636269 	rsbeq	r6, r3, r9, ror #4
     cac:	74706f2f 	ldrbtvc	r6, [r0], #-3887	; 0xfffff0d1
     cb0:	6d6f682f 	stclvs	8, cr6, [pc, #-188]!	; bfc <__code_start__-0x7404>
     cb4:	65726265 	ldrbvs	r6, [r2, #-613]!	; 0xfffffd9b
     cb8:	65432f77 	strbvs	r2, [r3, #-3959]	; 0xfffff089
     cbc:	72616c6c 	rsbvc	r6, r1, #108, 24	; 0x6c00
     cc0:	6d72612f 	ldfvse	f6, [r2, #-188]!	; 0xffffff44
     cc4:	6e6f6e2d 	cdpvs	14, 6, cr6, cr15, cr13, {1}
     cc8:	61652d65 	cmnvs	r5, r5, ror #26
     ccc:	392d6962 	pushcc	{r1, r5, r6, r8, fp, sp, lr}
     cd0:	322d392f 	eorcc	r3, sp, #770048	; 0xbc000
     cd4:	71393130 	teqvc	r9, r0, lsr r1
     cd8:	73632d34 	cmnvc	r3, #52, 26	; 0xd00
     cdc:	65373031 	ldrvs	r3, [r7, #-49]!	; 0xffffffcf
     ce0:	62696c2f 	rsbvs	r6, r9, #12032	; 0x2f00
     ce4:	6363672f 	cmnvs	r3, #12320768	; 0xbc0000
     ce8:	6d72612f 	ldfvse	f6, [r2, #-188]!	; 0xffffff44
     cec:	6e6f6e2d 	cdpvs	14, 6, cr6, cr15, cr13, {1}
     cf0:	61652d65 	cmnvs	r5, r5, ror #26
     cf4:	392f6962 	stmdbcc	pc!, {r1, r5, r6, r8, fp, sp, lr}	; <UNPREDICTABLE>
     cf8:	312e322e 			; <UNDEFINED> instruction: 0x312e322e
     cfc:	636e692f 	cmnvs	lr, #770048	; 0xbc000
     d00:	6564756c 	strbvs	r7, [r4, #-1388]!	; 0xfffffa94
     d04:	73552f00 	cmpvc	r5, #0, 30
     d08:	2f737265 	svccs	0x00737265
     d0c:	656c696d 	strbvs	r6, [ip, #-2413]!	; 0xfffff693
     d10:	6f532f73 	svcvs	0x00532f73
     d14:	65637275 	strbvs	r7, [r3, #-629]!	; 0xfffffd8b
     d18:	3273632f 	rsbscc	r6, r3, #-1140850688	; 0xbc000000
     d1c:	786c3034 	stmdavc	ip!, {r2, r4, r5, ip, sp}^
     d20:	62696c2f 	rsbvs	r6, r9, #12032	; 0x2f00
     d24:	692f6970 	stmdbvs	pc!, {r4, r5, r6, r8, fp, sp, lr}	; <UNPREDICTABLE>
     d28:	756c636e 	strbvc	r6, [ip, #-878]!	; 0xfffffc92
     d2c:	00006564 	andeq	r6, r0, r4, ror #10
     d30:	6e697270 	mcrvs	2, 3, r7, cr9, cr0, {3}
     d34:	632e6b74 			; <UNDEFINED> instruction: 0x632e6b74
     d38:	00000100 	andeq	r0, r0, r0, lsl #2
     d3c:	61647473 	smcvs	18243	; 0x4743
     d40:	682e6772 	stmdavs	lr!, {r1, r4, r5, r6, r8, r9, sl, sp, lr}
     d44:	00000200 	andeq	r0, r0, r0, lsl #4
     d48:	2e697072 	mcrcs	0, 3, r7, cr9, cr2, {3}
     d4c:	00030068 	andeq	r0, r3, r8, rrx
     d50:	75623c00 	strbvc	r3, [r2, #-3072]!	; 0xfffff400
     d54:	2d746c69 	ldclcs	12, cr6, [r4, #-420]!	; 0xfffffe5c
     d58:	003e6e69 	eorseq	r6, lr, r9, ror #28
     d5c:	76000000 	strvc	r0, [r0], -r0
     d60:	72702d61 	rsbsvc	r2, r0, #6208	; 0x1840
     d64:	6b746e69 	blvs	1d1c710 <__bss_end__+0x1d11960>
     d68:	0100682e 	tsteq	r0, lr, lsr #16
     d6c:	05000000 	streq	r0, [r0, #-0]
     d70:	02050022 	andeq	r0, r5, #34, 0	; 0x22
     d74:	00008bf8 	strdeq	r8, [r0], -r8	; <UNPREDICTABLE>
     d78:	14050517 	strne	r0, [r5], #-1303	; 0xfffffae9
     d7c:	22051413 	andcs	r1, r5, #318767104	; 0x13000000
     d80:	12050d06 	andne	r0, r5, #384	; 0x180
     d84:	03220550 			; <UNDEFINED> instruction: 0x03220550
     d88:	05052e7a 	streq	r2, [r5, #-3706]	; 0xfffff186
     d8c:	2f120533 	svccs	0x00120533
     d90:	05650505 	strbeq	r0, [r5, #-1285]!	; 0xfffffafb
     d94:	052f0609 	streq	r0, [pc, #-1545]!	; 793 <__code_start__-0x786d>
     d98:	05010612 	streq	r0, [r1, #-1554]	; 0xfffff9ee
     d9c:	164b0605 	strbne	r0, [fp], -r5, lsl #12
     da0:	50064a06 	andpl	r4, r6, r6, lsl #20
     da4:	13060105 	movwne	r0, #24837	; 0x6105
     da8:	00080266 	andeq	r0, r8, r6, ror #4
     dac:	00a00101 	adceq	r0, r0, r1, lsl #2
     db0:	00030000 	andeq	r0, r3, r0
     db4:	00000057 	andeq	r0, r0, r7, asr r0
     db8:	0efb0102 	cdpeq	1, 15, cr0, cr11, cr2, {0}
     dbc:	0101000d 	tsteq	r1, sp
     dc0:	00000101 	andeq	r0, r0, r1, lsl #2
     dc4:	00000100 	andeq	r0, r0, r0, lsl #2
     dc8:	6c2f2e01 	stcvs	14, cr2, [pc], #-4	; dcc <__code_start__-0x7234>
     dcc:	00636269 	rsbeq	r6, r3, r9, ror #4
     dd0:	6573552f 	ldrbvs	r5, [r3, #-1327]!	; 0xfffffad1
     dd4:	6d2f7372 	stcvs	3, cr7, [pc, #-456]!	; c14 <__code_start__-0x73ec>
     dd8:	73656c69 	cmnvc	r5, #26880	; 0x6900
     ddc:	756f532f 	strbvc	r5, [pc, #-815]!	; ab5 <__code_start__-0x754b>
     de0:	2f656372 	svccs	0x00656372
     de4:	34327363 	ldrtcc	r7, [r2], #-867	; 0xfffffc9d
     de8:	2f786c30 	svccs	0x00786c30
     dec:	7062696c 	rsbvc	r6, r2, ip, ror #18
     df0:	6e692f69 	cdpvs	15, 6, cr2, cr9, cr9, {3}
     df4:	64756c63 	ldrbtvs	r6, [r5], #-3171	; 0xfffff39d
     df8:	70000065 	andvc	r0, r0, r5, rrx
     dfc:	2e6b7475 	mcrcs	4, 3, r7, cr11, cr5, {3}
     e00:	00010063 	andeq	r0, r1, r3, rrx
     e04:	69707200 	ldmdbvs	r0!, {r9, ip, sp, lr}^
     e08:	0200682e 	andeq	r6, r0, #3014656	; 0x2e0000
     e0c:	05000000 	streq	r0, [r0, #-0]
     e10:	02050022 	andeq	r0, r5, #34, 0	; 0x22
     e14:	00008c50 	andeq	r8, r0, r0, asr ip
     e18:	13050515 	movwne	r0, #21781	; 0x5515
     e1c:	11062205 	tstne	r6, r5, lsl #4
     e20:	060b052e 	streq	r0, [fp], -lr, lsr #10
     e24:	0605052f 	streq	r0, [r5], -pc, lsr #10
     e28:	0009052e 	andeq	r0, r9, lr, lsr #10
     e2c:	06020402 	streq	r0, [r2], -r2, lsl #8
     e30:	000f0567 	andeq	r0, pc, r7, ror #10
     e34:	49020402 	stmdbmi	r2, {r1, sl}
     e38:	02000b05 	andeq	r0, r0, #5120	; 0x1400
     e3c:	05010204 	streq	r0, [r1, #-516]	; 0xfffffdfc
     e40:	04020005 	streq	r0, [r2], #-5
     e44:	062e0602 	strteq	r0, [lr], -r2, lsl #12
     e48:	0601054e 	streq	r0, [r1], -lr, asr #10
     e4c:	00060213 	andeq	r0, r6, r3, lsl r2
     e50:	08fa0101 	ldmeq	sl!, {r0, r8}^
     e54:	00030000 	andeq	r0, r3, r0
     e58:	000000f1 	strdeq	r0, [r0], -r1
     e5c:	0efb0102 	cdpeq	1, 15, cr0, cr11, cr2, {0}
     e60:	0101000d 	tsteq	r1, sp
     e64:	00000101 	andeq	r0, r0, r1, lsl #2
     e68:	00000100 	andeq	r0, r0, r0, lsl #2
     e6c:	6c2f2e01 	stcvs	14, cr2, [pc], #-4	; e70 <__code_start__-0x7190>
     e70:	00636269 	rsbeq	r6, r3, r9, ror #4
     e74:	74706f2f 	ldrbtvc	r6, [r0], #-3887	; 0xfffff0d1
     e78:	6d6f682f 	stclvs	8, cr6, [pc, #-188]!	; dc4 <__code_start__-0x723c>
     e7c:	65726265 	ldrbvs	r6, [r2, #-613]!	; 0xfffffd9b
     e80:	65432f77 	strbvs	r2, [r3, #-3959]	; 0xfffff089
     e84:	72616c6c 	rsbvc	r6, r1, #108, 24	; 0x6c00
     e88:	6d72612f 	ldfvse	f6, [r2, #-188]!	; 0xffffff44
     e8c:	6e6f6e2d 	cdpvs	14, 6, cr6, cr15, cr13, {1}
     e90:	61652d65 	cmnvs	r5, r5, ror #26
     e94:	392d6962 	pushcc	{r1, r5, r6, r8, fp, sp, lr}
     e98:	322d392f 	eorcc	r3, sp, #770048	; 0xbc000
     e9c:	71393130 	teqvc	r9, r0, lsr r1
     ea0:	73632d34 	cmnvc	r3, #52, 26	; 0xd00
     ea4:	65373031 	ldrvs	r3, [r7, #-49]!	; 0xffffffcf
     ea8:	62696c2f 	rsbvs	r6, r9, #12032	; 0x2f00
     eac:	6363672f 	cmnvs	r3, #12320768	; 0xbc0000
     eb0:	6d72612f 	ldfvse	f6, [r2, #-188]!	; 0xffffff44
     eb4:	6e6f6e2d 	cdpvs	14, 6, cr6, cr15, cr13, {1}
     eb8:	61652d65 	cmnvs	r5, r5, ror #26
     ebc:	392f6962 	stmdbcc	pc!, {r1, r5, r6, r8, fp, sp, lr}	; <UNPREDICTABLE>
     ec0:	312e322e 			; <UNDEFINED> instruction: 0x312e322e
     ec4:	636e692f 	cmnvs	lr, #770048	; 0xbc000
     ec8:	6564756c 	strbvs	r7, [r4, #-1388]!	; 0xfffffa94
     ecc:	73552f00 	cmpvc	r5, #0, 30
     ed0:	2f737265 	svccs	0x00737265
     ed4:	656c696d 	strbvs	r6, [ip, #-2413]!	; 0xfffff693
     ed8:	6f532f73 	svcvs	0x00532f73
     edc:	65637275 	strbvs	r7, [r3, #-629]!	; 0xfffffd8b
     ee0:	3273632f 	rsbscc	r6, r3, #-1140850688	; 0xbc000000
     ee4:	786c3034 	stmdavc	ip!, {r2, r4, r5, ip, sp}^
     ee8:	62696c2f 	rsbvs	r6, r9, #12032	; 0x2f00
     eec:	692f6970 	stmdbvs	pc!, {r4, r5, r6, r8, fp, sp, lr}	; <UNPREDICTABLE>
     ef0:	756c636e 	strbvc	r6, [ip, #-878]!	; 0xfffffc92
     ef4:	00006564 	andeq	r6, r0, r4, ror #10
     ef8:	702d6176 	eorvc	r6, sp, r6, ror r1
     efc:	746e6972 	strbtvc	r6, [lr], #-2418	; 0xfffff68e
     f00:	00632e6b 	rsbeq	r2, r3, fp, ror #28
     f04:	73000001 	movwvc	r0, #1
     f08:	6e696474 	mcrvs	4, 3, r6, cr9, cr4, {3}
     f0c:	63672d74 	cmnvs	r7, #116, 26	; 0x1d00
     f10:	00682e63 	rsbeq	r2, r8, r3, ror #28
     f14:	72000002 	andvc	r0, r0, #2, 0
     f18:	682e6970 	stmdavs	lr!, {r4, r5, r6, r8, fp, sp, lr}
     f1c:	00000300 	andeq	r0, r0, r0, lsl #6
     f20:	2d697072 	stclcs	0, cr7, [r9, #-456]!	; 0xfffffe38
     f24:	65746e69 	ldrbvs	r6, [r4, #-3689]!	; 0xfffff197
     f28:	6c616e72 	stclvs	14, cr6, [r1], #-456	; 0xfffffe38
     f2c:	0300682e 	movweq	r6, #2094	; 0x82e
     f30:	74730000 	ldrbtvc	r0, [r3], #-0
     f34:	67726164 	ldrbvs	r6, [r2, -r4, ror #2]!
     f38:	0200682e 	andeq	r6, r0, #3014656	; 0x2e0000
     f3c:	623c0000 	eorsvs	r0, ip, #0, 0
     f40:	746c6975 	strbtvc	r6, [ip], #-2421	; 0xfffff68b
     f44:	3e6e692d 	vmulcc.f16	s13, s28, s27	; <UNPREDICTABLE>
     f48:	00000000 	andeq	r0, r0, r0
     f4c:	00010500 	andeq	r0, r1, r0, lsl #10
     f50:	8c880205 	sfmhi	f0, 4, [r8], {5}
     f54:	c8030000 	stmdagt	r3, {}	; <UNPREDICTABLE>
     f58:	02050100 	andeq	r0, r5, #0
     f5c:	06010514 			; <UNDEFINED> instruction: 0x06010514
     f60:	30040510 	andcc	r0, r4, r0, lsl r5
     f64:	4a2c0105 	bmi	b01380 <__bss_end__+0xaf65d0>
     f68:	05300405 	ldreq	r0, [r0, #-1029]!	; 0xfffffbfb
     f6c:	13310602 	teqne	r1, #2097152	; 0x200000
     f70:	2e060b05 	vmlacs.f64	d0, d6, d5
     f74:	30060205 	andcc	r0, r6, r5, lsl #4
     f78:	02060905 	andeq	r0, r6, #81920	; 0x14000
     f7c:	2e2e0d24 	cdpcs	13, 2, cr0, cr14, cr4, {1}
     f80:	03060d05 	movweq	r0, #27909	; 0x6d05
     f84:	11054a17 	tstne	r5, r7, lsl sl
     f88:	062d0513 			; <UNDEFINED> instruction: 0x062d0513
     f8c:	2e160501 	cfmul32cs	mvfx0, mvfx6, mvfx1
     f90:	052f0d05 	streq	r0, [pc, #-3333]!	; 293 <__code_start__-0x7d6d>
     f94:	14052d16 	strne	r2, [r5], #-3350	; 0xfffff2ea
     f98:	17052f06 	strne	r2, [r5, -r6, lsl #30]
     f9c:	0d050106 	stfeqs	f0, [r5, #-24]	; 0xffffffe8
     fa0:	052f062e 	streq	r0, [pc, #-1582]!	; 97a <__code_start__-0x7686>
     fa4:	2e010612 	mcrcs	6, 0, r0, cr1, cr2, {0}
     fa8:	0d052d2f 	stceq	13, cr2, [r5, #-188]	; 0xffffff44
     fac:	12052f06 	andne	r2, r5, #6, 30
     fb0:	19050106 	stmdbne	r5, {r1, r2, r8}
     fb4:	04052f06 	streq	r2, [r5], #-3846	; 0xfffff0fa
     fb8:	01011103 	tsteq	r1, r3, lsl #2
     fbc:	05150205 	ldreq	r0, [r5, #-517]	; 0xfffffdfb
     fc0:	7fb2030e 	svcvc	0x00b2030e
     fc4:	13020501 	movwne	r0, #9473	; 0x2501
     fc8:	01060605 	tsteq	r6, r5, lsl #12
     fcc:	30060205 	andcc	r0, r6, r5, lsl #4
     fd0:	05010805 	streq	r0, [r1, #-2053]	; 0xfffff7fb
     fd4:	4a010602 	bmi	427e4 <__bss_end__+0x37a34>
     fd8:	91080805 	tstls	r8, r5, lsl #16
     fdc:	4a060305 	bmi	181bf8 <__bss_end__+0x176e48>
     fe0:	01060805 	tsteq	r6, r5, lsl #16
     fe4:	2d061505 	cfstr32cs	mvfx1, [r6, #-20]	; 0xffffffec
     fe8:	05010805 	streq	r0, [r1, #-2053]	; 0xfffff7fb
     fec:	0805d703 	stmdaeq	r5, {r0, r1, r8, r9, sl, ip, lr, pc}
     ff0:	18050106 	stmdane	r5, {r1, r2, r8}
     ff4:	2e02052d 	cfsh32cs	mvfx0, mvfx2, #29
     ff8:	052f0805 	streq	r0, [pc, #-2053]!	; 7fb <__code_start__-0x7805>
     ffc:	052d0615 	streq	r0, [sp, #-1557]!	; 0xfffff9eb
    1000:	02050108 	andeq	r0, r5, #2
    1004:	03050106 	movweq	r0, #20742	; 0x5106
    1008:	18052f06 	stmdane	r5, {r1, r2, r8, r9, sl, fp, sp}
    100c:	02051106 	andeq	r1, r5, #-2147483647	; 0x80000001
    1010:	2f08052e 	svccs	0x0008052e
    1014:	2d061505 	cfstr32cs	mvfx1, [r6, #-20]	; 0xffffffec
    1018:	05010805 	streq	r0, [r1, #-2053]	; 0xfffff7fb
    101c:	08051303 	stmdaeq	r5, {r0, r1, r8, r9, ip}
    1020:	15050106 	strne	r0, [r5, #-262]	; 0xfffffefa
    1024:	08052d06 	stmdaeq	r5, {r1, r2, r8, sl, fp, sp}
    1028:	05010601 	streq	r0, [r1, #-1537]	; 0xfffff9ff
    102c:	05a00602 	streq	r0, [r0, #1538]!	; 0x602
    1030:	05010605 	streq	r0, [r1, #-1541]	; 0xfffff9fb
    1034:	11053604 	tstne	r5, r4, lsl #12
    1038:	2e09052f 	cfsh32cs	mvfx0, mvfx9, #31
    103c:	05330205 	ldreq	r0, [r3, #-517]!	; 0xfffffdfb
    1040:	2e720305 	cdpcs	3, 7, cr0, cr2, cr5, {0}
    1044:	2f060205 	svccs	0x00060205
    1048:	0e050106 	adfeqs	f0, f5, f6
    104c:	02051606 	andeq	r1, r5, #6291456	; 0x600000
    1050:	03051314 	movweq	r1, #21268	; 0x5314
    1054:	14020513 	strne	r0, [r2], #-1299	; 0xfffffaed
    1058:	010b0515 	tsteq	fp, r5, lsl r5
    105c:	01060205 	tsteq	r6, r5, lsl #4
    1060:	0603052e 	streq	r0, [r3], -lr, lsr #10
    1064:	060a0567 	streq	r0, [sl], -r7, ror #10
    1068:	2d020501 	cfstr32cs	mvfx0, [r2, #-4]
    106c:	052f0a05 	streq	r0, [pc, #-2565]!	; 66f <__code_start__-0x7991>
    1070:	052d0617 	streq	r0, [sp, #-1559]!	; 0xfffff9e9
    1074:	0205010b 	andeq	r0, r5, #-1073741822	; 0xc0000002
    1078:	09050106 	stmdbeq	r5, {r1, r2, r8}
    107c:	02052e4c 	andeq	r2, r5, #76, 28	; 0x4c0
    1080:	09052e06 	stmdbeq	r5, {r1, r2, r9, sl, fp, sp}
    1084:	02050106 	andeq	r0, r5, #-2147483647	; 0x80000001
    1088:	01063006 	tsteq	r6, r6
    108c:	38030105 	stmdacc	r3, {r0, r2, r8}
    1090:	03090501 	movweq	r0, #38145	; 0x9501
    1094:	2e2e4a4f 	vnmulcs.f32	s8, s28, s30
    1098:	03061905 	movweq	r1, #26885	; 0x6905
    109c:	1a054a27 	bne	153940 <__bss_end__+0x148b90>
    10a0:	06280513 			; <UNDEFINED> instruction: 0x06280513
    10a4:	2e1f0501 	cfmul32cs	mvfx0, mvfx15, mvfx1
    10a8:	052f0405 	streq	r0, [pc, #-1029]!	; cab <__code_start__-0x7355>
    10ac:	0b052d1f 	bleq	14c530 <__bss_end__+0x141780>
    10b0:	0e052f06 	cdpeq	15, 0, cr2, cr5, cr6, {0}
    10b4:	04050106 	streq	r0, [r5], #-262	; 0xfffffefa
    10b8:	0602052e 	streq	r0, [r2], -lr, lsr #10
    10bc:	134a5903 	movtne	r5, #43267	; 0xa903
    10c0:	2e060b05 	vmlacs.f64	d0, d6, d5
    10c4:	30060205 	andcc	r0, r6, r5, lsl #4
    10c8:	02060905 	andeq	r0, r6, #81920	; 0x14000
    10cc:	04050d24 	streq	r0, [r5], #-3364	; 0xfffff2dc
    10d0:	05133606 	ldreq	r3, [r3, #-1542]	; 0xfffff9fa
    10d4:	05010606 	streq	r0, [r1, #-1542]	; 0xfffff9fa
    10d8:	13670605 	cmnne	r7, #5242880	; 0x500000
    10dc:	06090513 			; <UNDEFINED> instruction: 0x06090513
    10e0:	2b0d0511 	blcs	34252c <__bss_end__+0x33777c>
    10e4:	05300b05 	ldreq	r0, [r0, #-2821]!	; 0xfffff4fb
    10e8:	1b052c0d 	blne	14c124 <__bss_end__+0x141374>
    10ec:	06040535 			; <UNDEFINED> instruction: 0x06040535
    10f0:	1305052d 	movwne	r0, #21805	; 0x552d
    10f4:	2e061b05 	vmlacs.f64	d1, d6, d5
    10f8:	05820a05 	streq	r0, [r2, #2565]	; 0xa05
    10fc:	0e052f04 	cdpeq	15, 0, cr2, cr5, cr4, {0}
    1100:	490a052e 	stmdbmi	sl, {r1, r2, r3, r5, r8, sl}
    1104:	2f060b05 	svccs	0x00060b05
    1108:	01060405 	tsteq	r6, r5, lsl #8
    110c:	06052f06 	streq	r2, [r5], -r6, lsl #30
    1110:	05050106 	streq	r0, [r5, #-262]	; 0xfffffefa
    1114:	0a052f06 	beq	14cd34 <__bss_end__+0x141f84>
    1118:	052e0106 	streq	r0, [lr, #-262]!	; 0xfffffefa
    111c:	2e2e2e07 	cdpcs	14, 2, cr2, cr14, cr7, {0}
    1120:	03060405 	movweq	r0, #25605	; 0x6405
    1124:	0205010d 	andeq	r0, r5, #1073741827	; 0x40000003
    1128:	01460306 	cmpeq	r6, r6, lsl #6
    112c:	3a030905 	bcc	c3548 <__bss_end__+0xb8798>
    1130:	0604052e 	streq	r0, [r4], -lr, lsr #10
    1134:	010d032f 	tsteq	sp, pc, lsr #6
    1138:	15020501 	strne	r0, [r2, #-1281]	; 0xfffffaff
    113c:	b2030e05 	andlt	r0, r3, #80	; 0x50
    1140:	0205017f 	andeq	r0, r5, #-1073741793	; 0xc000001f
    1144:	08051413 	stmdaeq	r5, {r0, r1, r4, sl, ip}
    1148:	06060501 	streq	r0, [r6], -r1, lsl #10
    114c:	2e3c0310 	mrccs	3, 1, r0, cr12, cr0, {0}
    1150:	46030205 	strmi	r0, [r3], -r5, lsl #4
    1154:	0530064a 	ldreq	r0, [r0, #-1610]!	; 0xfffff9b6
    1158:	2e010605 	cfmadd32cs	mvax0, mvfx0, mvfx1, mvfx5
    115c:	0602052e 	streq	r0, [r2], -lr, lsr #10
    1160:	0501064b 	streq	r0, [r1, #-1611]	; 0xfffff9b5
    1164:	0516060e 	ldreq	r0, [r6, #-1550]	; 0xfffff9f2
    1168:	15131402 	ldrne	r1, [r3, #-1026]	; 0xfffffbfe
    116c:	010b0515 	tsteq	fp, r5, lsl r5
    1170:	2e060205 	cdpcs	2, 0, cr0, cr6, cr5, {0}
    1174:	09053006 	stmdbeq	r5, {r1, r2, ip, sp}
    1178:	02050106 	andeq	r0, r5, #-2147483647	; 0x80000001
    117c:	01064c06 	tsteq	r6, r6, lsl #24
    1180:	38030105 	stmdacc	r3, {r0, r2, r8}
    1184:	03060501 	movweq	r0, #25857	; 0x6501
    1188:	02054a6e 	andeq	r4, r5, #450560	; 0x6e000
    118c:	4a664603 	bmi	19929a0 <__bss_end__+0x1987bf0>
    1190:	0604052e 	streq	r0, [r4], -lr, lsr #10
    1194:	0100c803 	tsteq	r0, r3, lsl #16
    1198:	06010101 	streq	r0, [r1], -r1, lsl #2
    119c:	4a06822e 	bmi	1a1a5c <__bss_end__+0x196cac>
    11a0:	052e7203 	streq	r7, [lr, #-515]!	; 0xfffffdfd
    11a4:	05010609 	streq	r0, [r1, #-1545]	; 0xfffff9f7
    11a8:	032f0604 			; <UNDEFINED> instruction: 0x032f0604
    11ac:	0501010d 	streq	r0, [r1, #-269]	; 0xfffffef3
    11b0:	0e051502 	cfsh32eq	mvfx1, mvfx5, #2
    11b4:	017fb203 	cmneq	pc, r3, lsl #4
    11b8:	14130205 	ldrne	r0, [r3], #-517	; 0xfffffdfb
    11bc:	05010805 	streq	r0, [r1, #-2053]	; 0xfffff7fb
    11c0:	1b030609 	blne	c29ec <__bss_end__+0xb7c3c>
    11c4:	03060501 	movweq	r0, #25857	; 0x6501
    11c8:	3c032e63 	stccc	14, cr2, [r3], {99}	; 0x63
    11cc:	052e2e2e 	streq	r2, [lr, #-3630]!	; 0xfffff1d2
    11d0:	b4030648 	strlt	r0, [r3], #-1608	; 0xfffff9b8
    11d4:	053c087f 	ldreq	r0, [ip, #-2175]!	; 0xfffff781
    11d8:	06011305 	streq	r1, [r1], -r5, lsl #6
    11dc:	0402002e 	streq	r0, [r2], #-46	; 0xffffffd2
    11e0:	002e0602 	eoreq	r0, lr, r2, lsl #12
    11e4:	01020402 	tsteq	r2, r2, lsl #8
    11e8:	02040200 	andeq	r0, r4, #0, 4
    11ec:	00110513 	andseq	r0, r1, r3, lsl r5
    11f0:	06020402 	streq	r0, [r2], -r2, lsl #8
    11f4:	00070501 	andeq	r0, r7, r1, lsl #10
    11f8:	2f020402 	svccs	0x00020402
    11fc:	02001105 	andeq	r1, r0, #1073741825	; 0x40000001
    1200:	052d0204 	streq	r0, [sp, #-516]!	; 0xfffffdfc
    1204:	04020005 	streq	r0, [r2], #-5
    1208:	052f0602 	streq	r0, [pc, #-1538]!	; c0e <__code_start__-0x73f2>
    120c:	04020009 	streq	r0, [r2], #-9
    1210:	0e051302 	cdpeq	3, 0, cr1, cr5, cr2, {0}
    1214:	02040200 	andeq	r0, r4, #0, 4
    1218:	05050106 	streq	r0, [r5, #-262]	; 0xfffffefa
    121c:	01040200 	mrseq	r0, R12_usr
    1220:	02006306 	andeq	r6, r0, #402653184	; 0x18000000
    1224:	05010104 	streq	r0, [r1, #-260]	; 0xfffffefc
    1228:	04020048 	streq	r0, [r2], #-72	; 0xffffffb8
    122c:	05110601 	ldreq	r0, [r1, #-1537]	; 0xfffff9ff
    1230:	04020005 	streq	r0, [r2], #-5
    1234:	48052f01 	stmdami	r5, {r0, r8, r9, sl, fp, sp}
    1238:	01040200 	mrseq	r0, R12_usr
    123c:	0005052d 	andeq	r0, r5, sp, lsr #10
    1240:	2f010402 	svccs	0x00010402
    1244:	01040200 	mrseq	r0, R12_usr
    1248:	0402004a 	streq	r0, [r2], #-74	; 0xffffffb6
    124c:	02004a01 	andeq	r4, r0, #4096	; 0x1000
    1250:	4a060104 	bmi	181668 <__bss_end__+0x1768b8>
    1254:	e1034005 	tst	r3, r5
    1258:	0106d600 	tsteq	r6, r0, lsl #12
    125c:	2e4e0905 	vmlacs.f16	s1, s28, s10	; <UNPREDICTABLE>
    1260:	05300805 	ldreq	r0, [r0, #-2053]!	; 0xfffff7fb
    1264:	1205291e 	andne	r2, r5, #491520	; 0x78000
    1268:	330d052e 	movwcc	r0, #54574	; 0xd52e
    126c:	45060205 	strmi	r0, [r6, #-517]	; 0xfffffdfb
    1270:	05130505 	ldreq	r0, [r3, #-1285]	; 0xfffffafb
    1274:	05051402 	streq	r1, [r5, #-1026]	; 0xfffffbfe
    1278:	13020513 	movwne	r0, #9491	; 0x2513
    127c:	05010805 	streq	r0, [r1, #-2053]	; 0xfffff7fb
    1280:	7a030640 	bvc	c2b88 <__bss_end__+0xb7dd8>
    1284:	0d052e01 	stceq	14, cr2, [r5, #-4]
    1288:	11056634 	tstne	r5, r4, lsr r6
    128c:	4a4a2003 	bmi	12892a0 <__bss_end__+0x127e4f0>
    1290:	03060405 	movweq	r0, #25605	; 0x6405
    1294:	09050162 	stmdbeq	r5, {r1, r5, r6, r8}
    1298:	0f050106 	svceq	0x00050106
    129c:	0608052e 	streq	r0, [r8], -lr, lsr #10
    12a0:	060d052c 	streq	r0, [sp], -ip, lsr #10
    12a4:	0603052e 	streq	r0, [r3], -lr, lsr #10
    12a8:	06050567 	streq	r0, [r5], -r7, ror #10
    12ac:	06080501 	streq	r0, [r8], -r1, lsl #10
    12b0:	060e054d 	streq	r0, [lr], -sp, asr #10
    12b4:	2e0a0501 	cfsh32cs	mvfx0, mvfx10, #1
    12b8:	052f0905 	streq	r0, [pc, #-2309]!	; 9bb <__code_start__-0x7645>
    12bc:	052f0604 	streq	r0, [pc, #-1540]!	; cc0 <__code_start__-0x7340>
    12c0:	05010607 	streq	r0, [r1, #-1543]	; 0xfffff9f9
    12c4:	04052c0a 	streq	r2, [r5], #-3082	; 0xfffff3f6
    12c8:	2d053206 	sfmcs	f3, 4, [r5, #-24]	; 0xffffffe8
    12cc:	7f980306 	svcvc	0x00980306
    12d0:	03090501 	movweq	r0, #38145	; 0x9501
    12d4:	052e00ed 	streq	r0, [lr, #-237]!	; 0xffffff13
    12d8:	07052c0d 	streq	r2, [r5, -sp, lsl #24]
    12dc:	0604052b 	streq	r0, [r4], -fp, lsr #10
    12e0:	05141330 	ldreq	r1, [r4, #-816]	; 0xfffffcd0
    12e4:	0c050109 	stfeqs	f0, [r5], {9}
    12e8:	017f9303 	cmneq	pc, r3, lsl #6
    12ec:	06011d05 	streq	r1, [r1], -r5, lsl #26
    12f0:	03090501 	movweq	r0, #38145	; 0x9501
    12f4:	050100ed 	streq	r0, [r1, #-237]	; 0xffffff13
    12f8:	052f0605 	streq	r0, [pc, #-1541]!	; cfb <__code_start__-0x7305>
    12fc:	2e010612 	mcrcs	6, 0, r0, cr1, cr2, {0}
    1300:	2f0b052d 	svccs	0x000b052d
    1304:	2f060505 	svccs	0x00060505
    1308:	05100905 	ldreq	r0, [r0, #-2309]	; 0xfffff6fb
    130c:	7f93030c 	svcvc	0x0093030c
    1310:	011d0501 	tsteq	sp, r1, lsl #10
    1314:	01062d05 	tsteq	r6, r5, lsl #26
    1318:	ed030905 	vstr.16	s0, [r3, #-10]
    131c:	04052e00 	streq	r2, [r5], #-3584	; 0xfffff200
    1320:	00014e06 	andeq	r4, r1, r6, lsl #28
    1324:	4a020402 	bmi	82334 <__bss_end__+0x77584>
    1328:	02040200 	andeq	r0, r4, #0, 4
    132c:	04020001 	streq	r0, [r2], #-1
    1330:	02001502 	andeq	r1, r0, #8388608	; 0x800000
    1334:	02060204 	andeq	r0, r6, #4, 4	; 0x40000000
    1338:	02001236 	andeq	r1, r0, #1610612739	; 0x60000003
    133c:	052e0204 	streq	r0, [lr, #-516]!	; 0xfffffdfc
    1340:	d1030602 	tstle	r3, r2, lsl #12
    1344:	07050100 	streq	r0, [r5, -r0, lsl #2]
    1348:	052e0106 	streq	r0, [lr, #-262]!	; 0xfffffefa
    134c:	052f0602 	streq	r0, [pc, #-1538]!	; d52 <__code_start__-0x72ae>
    1350:	0501060b 	streq	r0, [r1, #-1547]	; 0xfffff9f5
    1354:	05052f01 	streq	r2, [r5, #-3841]	; 0xfffff0ff
    1358:	4a650306 	bmi	1941f78 <__bss_end__+0x19371c8>
    135c:	01060905 	tsteq	r6, r5, lsl #18
    1360:	06050566 	streq	r0, [r5], -r6, ror #10
    1364:	0304059f 	movweq	r0, #17823	; 0x459f
    1368:	07050111 	smladeq	r5, r1, r1, r0
    136c:	04050106 	streq	r0, [r5], #-262	; 0xfffffefa
    1370:	0a053106 	beq	14d790 <__bss_end__+0x1429e0>
    1374:	00130501 	andseq	r0, r3, r1, lsl #10
    1378:	06010402 	streq	r0, [r1], -r2, lsl #8
    137c:	0010052e 	andseq	r0, r0, lr, lsr #10
    1380:	2e010402 	cdpcs	4, 0, cr0, cr1, cr2, {0}
    1384:	4b060505 	blmi	1827a0 <__bss_end__+0x1779f0>
    1388:	01060a05 	tsteq	r6, r5, lsl #20
    138c:	04052d06 	streq	r2, [r5], #-3334	; 0xfffff2fa
    1390:	11050106 	tstne	r5, r6, lsl #2
    1394:	7fb60306 	svcvc	0x00b60306
    1398:	00011366 	andeq	r1, r1, r6, ror #6
    139c:	06020402 	streq	r0, [r2], -r2, lsl #8
    13a0:	01ba06ba 			; <UNDEFINED> instruction: 0x01ba06ba
    13a4:	061a0514 			; <UNDEFINED> instruction: 0x061a0514
    13a8:	052e2e13 	streq	r2, [lr, #-3603]!	; 0xfffff1ed
    13ac:	05674e11 	strbeq	r4, [r7, #-3601]!	; 0xfffff1ef
    13b0:	13056814 	movwne	r6, #22548	; 0x5814
    13b4:	03150582 	tsteq	r5, #545259520	; 0x20800000
    13b8:	11054a78 	tstne	r5, r8, ror sl
    13bc:	13134b06 	tstne	r3, #6144	; 0x1800
    13c0:	05141314 	ldreq	r1, [r4, #-788]	; 0xfffffcec
    13c4:	05010613 	streq	r0, [r1, #-1555]	; 0xfffff9ed
    13c8:	052f0609 	streq	r0, [pc, #-1545]!	; dc7 <__code_start__-0x7239>
    13cc:	2e01060d 	cfmadd32cs	mvax0, mvfx0, mvfx1, mvfx13
    13d0:	bb09052e 	bllt	242890 <__bss_end__+0x237ae0>
    13d4:	059d0d05 	ldreq	r0, [sp, #3333]	; 0xd05
    13d8:	052f0609 	streq	r0, [pc, #-1545]!	; dd7 <__code_start__-0x7229>
    13dc:	03062f15 	movweq	r2, #28437	; 0x6f15
    13e0:	0b034a75 	bleq	d3dbc <__bss_end__+0xc900c>
    13e4:	05054a2e 	streq	r4, [r5, #-2606]	; 0xfffff5d2
    13e8:	01230306 			; <UNDEFINED> instruction: 0x01230306
    13ec:	01060905 	tsteq	r6, r5, lsl #18
    13f0:	0605052e 	streq	r0, [r5], -lr, lsr #10
    13f4:	2e6e03d7 	mcrcs	3, 3, r0, cr14, cr7, {6}
    13f8:	05010e03 	streq	r0, [r1, #-3587]	; 0xfffff1fd
    13fc:	05010609 	streq	r0, [r1, #-1545]	; 0xfffff9f7
    1400:	10030605 	andne	r0, r3, r5, lsl #12
    1404:	0301054a 	movweq	r0, #5450	; 0x154a
    1408:	05017eed 	streq	r7, [r1, #-3821]	; 0xfffff113
    140c:	13151402 	tstne	r5, #33554432	; 0x2000000
    1410:	03040514 	movweq	r0, #17684	; 0x4514
    1414:	0905011a 	stmdbeq	r5, {r1, r3, r4, r8}
    1418:	02050106 	andeq	r0, r5, #-2147483647	; 0x80000001
    141c:	052e4603 	streq	r4, [lr, #-1539]!	; 0xfffff9fd
    1420:	2e3a0309 	cdpcs	3, 3, cr0, cr10, cr9, {0}
    1424:	2f060405 	svccs	0x00060405
    1428:	01010d03 	tsteq	r1, r3, lsl #26
    142c:	05150205 	ldreq	r0, [r5, #-517]	; 0xfffffdfb
    1430:	7fb2030e 	svcvc	0x00b2030e
    1434:	13020501 	movwne	r0, #9473	; 0x2501
    1438:	01080514 	tsteq	r8, r4, lsl r5
    143c:	01060205 	tsteq	r6, r5, lsl #4
    1440:	059f0805 	ldreq	r0, [pc, #2053]	; 1c4d <__code_start__-0x63b3>
    1444:	064a0603 	strbeq	r0, [sl], -r3, lsl #12
    1448:	2e080501 	cfsh32cs	mvfx0, mvfx8, #1
    144c:	2d061505 	cfstr32cs	mvfx1, [r6, #-20]	; 0xffffffec
    1450:	05010805 	streq	r0, [r1, #-2053]	; 0xfffff7fb
    1454:	01062f03 	tsteq	r6, r3, lsl #30
    1458:	052e0805 	streq	r0, [lr, #-2053]!	; 0xfffff7fb
    145c:	052d0615 	streq	r0, [sp, #-1557]!	; 0xfffff9eb
    1460:	03050108 	movweq	r0, #20744	; 0x5108
    1464:	0501062f 	streq	r0, [r1, #-1583]	; 0xfffff9d1
    1468:	15052e08 	strne	r2, [r5, #-3592]	; 0xfffff1f8
    146c:	08052d06 	stmdaeq	r5, {r1, r2, r8, sl, fp, sp}
    1470:	2f030501 	svccs	0x00030501
    1474:	08050106 	stmdaeq	r5, {r1, r2, r8}
    1478:	0615052e 	ldreq	r0, [r5], -lr, lsr #10
    147c:	0108052d 	tsteq	r8, sp, lsr #10
    1480:	062f0305 	strteq	r0, [pc], -r5, lsl #6
    1484:	2e080501 	cfsh32cs	mvfx0, mvfx8, #1
    1488:	2d061505 	cfstr32cs	mvfx1, [r6, #-20]	; 0xffffffec
    148c:	05010805 	streq	r0, [r1, #-2053]	; 0xfffff7fb
    1490:	01062f03 	tsteq	r6, r3, lsl #30
    1494:	052e0805 	streq	r0, [lr, #-2053]!	; 0xfffff7fb
    1498:	052d0615 	streq	r0, [sp, #-1557]!	; 0xfffff9eb
    149c:	03050108 	movweq	r0, #20744	; 0x5108
    14a0:	06080513 			; <UNDEFINED> instruction: 0x06080513
    14a4:	06150501 	ldreq	r0, [r5], -r1, lsl #10
    14a8:	0108052d 	tsteq	r8, sp, lsr #10
    14ac:	03056606 	movweq	r6, #22022	; 0x5606
    14b0:	08056706 	stmdaeq	r5, {r1, r2, r8, r9, sl, sp, lr}
    14b4:	18050106 	stmdane	r5, {r1, r2, r8}
    14b8:	2e02052d 	cfsh32cs	mvfx0, mvfx2, #29
    14bc:	052f0805 	streq	r0, [pc, #-2053]!	; cbf <__code_start__-0x7341>
    14c0:	052d0615 	streq	r0, [sp, #-1557]!	; 0xfffff9eb
    14c4:	02050108 	andeq	r0, r5, #2
    14c8:	03050106 	movweq	r0, #20742	; 0x5106
    14cc:	18052f06 	stmdane	r5, {r1, r2, r8, r9, sl, fp, sp}
    14d0:	02051106 	andeq	r1, r5, #-2147483647	; 0x80000001
    14d4:	2f08052e 	svccs	0x0008052e
    14d8:	2d061505 	cfstr32cs	mvfx1, [r6, #-20]	; 0xffffffec
    14dc:	05010805 	streq	r0, [r1, #-2053]	; 0xfffff7fb
    14e0:	08051303 	stmdaeq	r5, {r0, r1, r8, r9, ip}
    14e4:	15050106 	strne	r0, [r5, #-262]	; 0xfffffefa
    14e8:	08052d06 	stmdaeq	r5, {r1, r2, r8, sl, fp, sp}
    14ec:	06050501 	streq	r0, [r5], -r1, lsl #10
    14f0:	02054a14 	andeq	r4, r5, #20, 20	; 0x14000
    14f4:	0e052e06 	cdpeq	14, 0, cr2, cr5, cr6, {0}
    14f8:	04051906 	streq	r1, [r5], #-2310	; 0xfffff6fa
    14fc:	2f11052f 	svccs	0x0011052f
    1500:	054a0905 	strbeq	r0, [sl, #-2309]	; 0xfffff6fb
    1504:	05053302 	streq	r3, [r5, #-770]	; 0xfffffcfe
    1508:	052e7203 	streq	r7, [lr, #-515]!	; 0xfffffdfd
    150c:	062f0602 	strteq	r0, [pc], -r2, lsl #12
    1510:	060e0501 	streq	r0, [lr], -r1, lsl #10
    1514:	14020516 	strne	r0, [r2], #-1302	; 0xfffffaea
    1518:	13030513 	movwne	r0, #13587	; 0x3513
    151c:	15140205 	ldrne	r0, [r4, #-517]	; 0xfffffdfb
    1520:	05010b05 	streq	r0, [r1, #-2821]	; 0xfffff4fb
    1524:	2e010602 	cfmadd32cs	mvax0, mvfx0, mvfx1, mvfx2
    1528:	06030566 	streq	r0, [r3], -r6, ror #10
    152c:	060a052f 	streq	r0, [sl], -pc, lsr #10
    1530:	2d020501 	cfstr32cs	mvfx0, [r2, #-4]
    1534:	052f0a05 	streq	r0, [pc, #-2565]!	; b37 <__code_start__-0x74c9>
    1538:	052d0617 	streq	r0, [sp, #-1559]!	; 0xfffff9e9
    153c:	0205010b 	andeq	r0, r5, #-1073741822	; 0xc0000002
    1540:	4a4a0106 	bmi	1281960 <__bss_end__+0x1276bb0>
    1544:	03060505 	movweq	r0, #25861	; 0x6505
    1548:	05010195 	streq	r0, [r1, #-405]	; 0xfffffe6b
    154c:	f8030611 			; <UNDEFINED> instruction: 0xf8030611
    1550:	1b05017e 	blne	141b50 <__bss_end__+0x136da0>
    1554:	4a018803 	bmi	63568 <__bss_end__+0x587b8>
    1558:	03060105 	movweq	r0, #24837	; 0x6105
    155c:	052e7ef3 	streq	r7, [lr, #-3827]!	; 0xfffff10d
    1560:	13151402 	tstne	r5, #33554432	; 0x2000000
    1564:	03190514 	tsteq	r9, #20, 10	; 0x5000000
    1568:	1a050122 	bne	1419f8 <__bss_end__+0x136c48>
    156c:	06280513 			; <UNDEFINED> instruction: 0x06280513
    1570:	2e1f0501 	cfmul32cs	mvfx0, mvfx15, mvfx1
    1574:	052f0405 	streq	r0, [pc, #-1029]!	; 1177 <__code_start__-0x6e89>
    1578:	1f054a0e 	svcne	0x00054a0e
    157c:	060b052d 	streq	r0, [fp], -sp, lsr #10
    1580:	0604052f 	streq	r0, [r4], -pc, lsr #10
    1584:	01320601 	teqeq	r2, r1, lsl #12
    1588:	05150205 	ldreq	r0, [r5, #-517]	; 0xfffffdfb
    158c:	7fb2030e 	svcvc	0x00b2030e
    1590:	13020501 	movwne	r0, #9473	; 0x2501
    1594:	01060605 	tsteq	r6, r5, lsl #12
    1598:	30060205 	andcc	r0, r6, r5, lsl #4
    159c:	05010805 	streq	r0, [r1, #-2053]	; 0xfffff7fb
    15a0:	05010602 	streq	r0, [r1, #-1538]	; 0xfffff9fe
    15a4:	21080603 	tstcs	r8, r3, lsl #12
    15a8:	01060805 	tsteq	r6, r5, lsl #16
    15ac:	49061505 	stmdbmi	r6, {r0, r2, r8, sl, ip}
    15b0:	05010805 	streq	r0, [r1, #-2053]	; 0xfffff7fb
    15b4:	0805d703 	stmdaeq	r5, {r0, r1, r8, r9, sl, ip, lr, pc}
    15b8:	18050106 	stmdane	r5, {r1, r2, r8}
    15bc:	2e02052d 	cfsh32cs	mvfx0, mvfx2, #29
    15c0:	052f0805 	streq	r0, [pc, #-2053]!	; dc3 <__code_start__-0x723d>
    15c4:	052d0615 	streq	r0, [sp, #-1557]!	; 0xfffff9eb
    15c8:	02050108 	andeq	r0, r5, #2
    15cc:	03050106 	movweq	r0, #20742	; 0x5106
    15d0:	18052f06 	stmdane	r5, {r1, r2, r8, r9, sl, fp, sp}
    15d4:	02051106 	andeq	r1, r5, #-2147483647	; 0x80000001
    15d8:	2f08052e 	svccs	0x0008052e
    15dc:	2d061505 	cfstr32cs	mvfx1, [r6, #-20]	; 0xffffffec
    15e0:	05010805 	streq	r0, [r1, #-2053]	; 0xfffff7fb
    15e4:	08051303 	stmdaeq	r5, {r0, r1, r8, r9, ip}
    15e8:	15050106 	strne	r0, [r5, #-262]	; 0xfffffefa
    15ec:	08052d06 	stmdaeq	r5, {r1, r2, r8, sl, fp, sp}
    15f0:	06050501 	streq	r0, [r5], -r1, lsl #10
    15f4:	06020514 			; <UNDEFINED> instruction: 0x06020514
    15f8:	06040566 	streq	r0, [r4], -r6, ror #10
    15fc:	0305051a 	movweq	r0, #21786	; 0x551a
    1600:	02054a78 	andeq	r4, r5, #120, 20	; 0x78000
    1604:	01062f06 	tsteq	r6, r6, lsl #30
    1608:	16060e05 	strne	r0, [r6], -r5, lsl #28
    160c:	13140205 	tstne	r4, #1342177280	; 0x50000000
    1610:	01060405 	tsteq	r6, r5, lsl #8
    1614:	2f060305 	svccs	0x00060305
    1618:	01061105 	tsteq	r6, r5, lsl #2
    161c:	052e0905 	streq	r0, [lr, #-2309]!	; 0xfffff6fb
    1620:	15300602 	ldrne	r0, [r0, #-1538]!	; 0xfffff9fe
    1624:	05010b05 	streq	r0, [r1, #-2821]	; 0xfffff4fb
    1628:	4a010602 	bmi	42e38 <__bss_end__+0x38088>
    162c:	03052e4a 	movweq	r2, #24138	; 0x5e4a
    1630:	0a052f06 	beq	14d250 <__bss_end__+0x1424a0>
    1634:	02050106 	andeq	r0, r5, #-2147483647	; 0x80000001
    1638:	2f0a052d 	svccs	0x000a052d
    163c:	2d061705 	stccs	7, cr1, [r6, #-20]	; 0xffffffec
    1640:	05010b05 	streq	r0, [r1, #-2821]	; 0xfffff4fb
    1644:	4a010602 	bmi	42e54 <__bss_end__+0x380a4>
    1648:	0514062e 	ldreq	r0, [r4, #-1582]	; 0xfffff9d2
    164c:	05010609 	streq	r0, [r1, #-1545]	; 0xfffff9f7
    1650:	064c0602 	strbeq	r0, [ip], -r2, lsl #12
    1654:	06050501 	streq	r0, [r5], -r1, lsl #10
    1658:	01019803 	tsteq	r1, r3, lsl #16
    165c:	0607052a 	streq	r0, [r7], -sl, lsr #10
    1660:	06050501 	streq	r0, [r5], -r1, lsl #10
    1664:	0318052f 	tsteq	r8, #197132288	; 0xbc00000
    1668:	1b052e53 	blne	14cfbc <__bss_end__+0x14220c>
    166c:	1a050106 	bne	141a8c <__bss_end__+0x136cdc>
    1670:	06090582 	streq	r0, [r9], -r2, lsl #11
    1674:	060d054b 	streq	r0, [sp], -fp, asr #10
    1678:	09052e01 	stmdbeq	r5, {r0, r9, sl, fp, sp}
    167c:	9d0d05d7 	cfstr32ls	mvfx0, [sp, #-860]	; 0xfffffca4
    1680:	2f060905 	svccs	0x00060905
    1684:	05301505 	ldreq	r1, [r0, #-1285]!	; 0xfffffafb
    1688:	05010618 	streq	r0, [r1, #-1560]	; 0xfffff9e8
    168c:	19056617 	stmdbne	r5, {r0, r1, r2, r4, r9, sl, sp, lr}
    1690:	4917052f 	ldmdbmi	r7, {r0, r1, r2, r3, r5, r8, sl}
    1694:	2f061905 	svccs	0x00061905
    1698:	03061505 	movweq	r1, #25861	; 0x6505
    169c:	19052e6f 	stmdbne	r5, {r0, r1, r2, r3, r5, r6, r9, sl, fp, sp}
    16a0:	4a130306 	bmi	4c22c0 <__bss_end__+0x4b7510>
    16a4:	03061505 	movweq	r1, #25861	; 0x6505
    16a8:	054a2e6d 	strbeq	r2, [sl, #-3693]	; 0xfffff193
    16ac:	7fa00302 	svcvc	0x00a00302
    16b0:	03066601 	movweq	r6, #26113	; 0x6601
    16b4:	05050172 	streq	r0, [r5, #-370]	; 0xfffffe8e
    16b8:	04050106 	streq	r0, [r5], #-262	; 0xfffffefa
    16bc:	03050536 	movweq	r0, #21814	; 0x5536
    16c0:	02052e78 	andeq	r2, r5, #120, 28	; 0x780
    16c4:	01062f06 	tsteq	r6, r6, lsl #30
    16c8:	16060e05 	strne	r0, [r6], -r5, lsl #28
    16cc:	13140205 	tstne	r4, #1342177280	; 0x50000000
    16d0:	01060405 	tsteq	r6, r5, lsl #8
    16d4:	0602054a 	streq	r0, [r2], -sl, asr #10
    16d8:	05017803 	streq	r7, [r1, #-2051]	; 0xfffff7fd
    16dc:	4a010605 	bmi	42ef8 <__bss_end__+0x38148>
    16e0:	4b060205 	blmi	181efc <__bss_end__+0x17714c>
    16e4:	0e050106 	adfeqs	f0, f5, f6
    16e8:	02051606 	andeq	r1, r5, #6291456	; 0x600000
    16ec:	15151314 	ldrne	r1, [r5, #-788]	; 0xfffffcec
    16f0:	06010b05 	streq	r0, [r1], -r5, lsl #22
    16f4:	0611052e 	ldreq	r0, [r1], -lr, lsr #10
    16f8:	01019e03 	tsteq	r1, r3, lsl #28
    16fc:	01062205 	tsteq	r6, r5, lsl #4
    1700:	052f0505 	streq	r0, [pc, #-1285]!	; 1203 <__code_start__-0x6dfd>
    1704:	05052d22 	streq	r2, [r5, #-3362]	; 0xfffff2de
    1708:	11052f06 	tstne	r5, r6, lsl #30
    170c:	8305054b 	movwhi	r0, #21835	; 0x554b
    1710:	5c039e01 	stcpl	14, cr9, [r3], {1}
    1714:	059e012e 	ldreq	r0, [lr, #302]	; 0x12e
    1718:	f3030602 	vmax.u8	d0, d3, d2
    171c:	052e2e7e 	streq	r2, [lr, #-3710]!	; 0xfffff182
    1720:	054a2c06 	strbeq	r2, [sl, #-3078]	; 0xfffff3fa
    1724:	00d8030d 	sbcseq	r0, r8, sp, lsl #6
    1728:	00040501 	andeq	r0, r4, r1, lsl #10
    172c:	06010402 	streq	r0, [r1], -r2, lsl #8
    1730:	004a1103 	subeq	r1, sl, r3, lsl #2
    1734:	01010402 	tsteq	r1, r2, lsl #8
    1738:	51061105 	tstpl	r6, r5, lsl #2
    173c:	15059e06 	strne	r9, [r5, #-3590]	; 0xfffff1fa
    1740:	012e1703 			; <UNDEFINED> instruction: 0x012e1703
    1744:	031105ba 	tsteq	r1, #780140544	; 0x2e800000
    1748:	02012e69 	andeq	r2, r1, #1680	; 0x690
    174c:	01010028 	tsteq	r1, r8, lsr #32
    1750:	00000087 	andeq	r0, r0, r7, lsl #1
    1754:	00640003 	rsbeq	r0, r4, r3
    1758:	01020000 	mrseq	r0, (UNDEF: 2)
    175c:	000d0efb 	strdeq	r0, [sp], -fp
    1760:	01010101 	tsteq	r1, r1, lsl #2
    1764:	01000000 	mrseq	r0, (UNDEF: 0)
    1768:	2e010000 	cdpcs	0, 0, cr0, cr1, cr0, {0}
    176c:	6174732f 	cmnvs	r4, pc, lsr #6
    1770:	732d6666 			; <UNDEFINED> instruction: 0x732d6666
    1774:	2f006372 	svccs	0x00006372
    1778:	72657355 	rsbvc	r7, r5, #1409286145	; 0x54000001
    177c:	696d2f73 	stmdbvs	sp!, {r0, r1, r4, r5, r6, r8, r9, sl, fp, sp}^
    1780:	2f73656c 	svccs	0x0073656c
    1784:	72756f53 	rsbsvc	r6, r5, #332	; 0x14c
    1788:	632f6563 			; <UNDEFINED> instruction: 0x632f6563
    178c:	30343273 	eorscc	r3, r4, r3, ror r2
    1790:	6c2f786c 	stcvs	8, cr7, [pc], #-432	; 15e8 <__code_start__-0x6a18>
    1794:	69706269 	ldmdbvs	r0!, {r0, r3, r5, r6, r9, sp, lr}^
    1798:	636e692f 	cmnvs	lr, #770048	; 0xbc000
    179c:	6564756c 	strbvs	r7, [r4, #-1388]!	; 0xfffffa94
    17a0:	6c630000 	stclvs	0, cr0, [r3], #-0
    17a4:	2d6e6165 	stfcse	f6, [lr, #-404]!	; 0xfffffe6c
    17a8:	6f626572 	svcvs	0x00626572
    17ac:	632e746f 			; <UNDEFINED> instruction: 0x632e746f
    17b0:	00000100 	andeq	r0, r0, r0, lsl #2
    17b4:	2e697072 	mcrcs	0, 3, r7, cr9, cr2, {3}
    17b8:	00020068 	andeq	r0, r2, r8, rrx
    17bc:	19050000 	stmdbne	r5, {}	; <UNPREDICTABLE>
    17c0:	3c020500 	cfstr32cc	mvfx0, [r2], {-0}
    17c4:	15000096 	strne	r0, [r0, #-150]	; 0xffffff6a
    17c8:	05130505 	ldreq	r0, [r3, #-1285]	; 0xfffffafb
    17cc:	052d0619 	streq	r0, [sp, #-1561]!	; 0xfffff9e7
    17d0:	67062f05 	strvs	r2, [r6, -r5, lsl #30]
    17d4:	06024b2f 	streq	r4, [r2], -pc, lsr #22
    17d8:	12010100 	andne	r0, r1, #0
    17dc:	03000001 	movweq	r0, #1
    17e0:	00005e00 	andeq	r5, r0, r0, lsl #28
    17e4:	fb010200 	blx	41fee <__bss_end__+0x3723e>
    17e8:	01000d0e 	tsteq	r0, lr, lsl #26
    17ec:	00010101 	andeq	r0, r1, r1, lsl #2
    17f0:	00010000 	andeq	r0, r1, r0
    17f4:	2f2e0100 	svccs	0x002e0100
    17f8:	66617473 			; <UNDEFINED> instruction: 0x66617473
    17fc:	72732d66 	rsbsvc	r2, r3, #6528	; 0x1980
    1800:	552f0063 	strpl	r0, [pc, #-99]!	; 17a5 <__code_start__-0x685b>
    1804:	73726573 	cmnvc	r2, #482344960	; 0x1cc00000
    1808:	6c696d2f 	stclvs	13, cr6, [r9], #-188	; 0xffffff44
    180c:	532f7365 			; <UNDEFINED> instruction: 0x532f7365
    1810:	6372756f 	cmnvs	r2, #465567744	; 0x1bc00000
    1814:	73632f65 	cmnvc	r3, #404	; 0x194
    1818:	6c303432 	cfldrsvs	mvf3, [r0], #-200	; 0xffffff38
    181c:	696c2f78 	stmdbvs	ip!, {r3, r4, r5, r6, r8, r9, sl, fp, sp}^
    1820:	2f697062 	svccs	0x00697062
    1824:	6c636e69 	stclvs	14, cr6, [r3], #-420	; 0xfffffe5c
    1828:	00656475 	rsbeq	r6, r5, r5, ror r4
    182c:	74736300 	ldrbtvc	r6, [r3], #-768	; 0xfffffd00
    1830:	2e747261 	cdpcs	2, 7, cr7, cr4, cr1, {3}
    1834:	00010063 	andeq	r0, r1, r3, rrx
    1838:	69707200 	ldmdbvs	r0!, {r9, ip, sp, lr}^
    183c:	0200682e 	andeq	r6, r0, #3014656	; 0x2e0000
    1840:	05000000 	streq	r0, [r0, #-0]
    1844:	02050010 	andeq	r0, r5, #16, 0
    1848:	00009668 	andeq	r9, r0, r8, ror #12
    184c:	13050515 	movwne	r0, #21781	; 0x5515
    1850:	05130205 	ldreq	r0, [r3, #-517]	; 0xfffffdfb
    1854:	10051405 	andne	r1, r5, r5, lsl #8
    1858:	05050e06 	streq	r0, [r5, #-3590]	; 0xfffff1fa
    185c:	13300632 	teqne	r0, #52428800	; 0x3200000
    1860:	010a0514 	tsteq	sl, r4, lsl r5
    1864:	91080905 	tstls	r8, r5, lsl #18
    1868:	01061005 	tsteq	r6, r5
    186c:	059a0a05 	ldreq	r0, [sl, #2565]	; 0xa05
    1870:	0a056a10 	beq	15c0b8 <__bss_end__+0x151308>
    1874:	09052d06 	stmdbeq	r5, {r1, r2, r8, sl, fp, sp}
    1878:	0610052f 	ldreq	r0, [r0], -pc, lsr #10
    187c:	060a0501 	streq	r0, [sl], -r1, lsl #10
    1880:	bb09052d 	bllt	242d3c <__bss_end__+0x237f8c>
    1884:	01061005 	tsteq	r6, r5
    1888:	65060a05 	strvs	r0, [r6, #-2565]	; 0xfffff5fb
    188c:	054b0905 	strbeq	r0, [fp, #-2309]	; 0xfffff6fb
    1890:	0501060d 	streq	r0, [r1, #-1549]	; 0xfffff9f3
    1894:	10052d0a 	andne	r2, r5, sl, lsl #26
    1898:	060a052f 	streq	r0, [sl], -pc, lsr #10
    189c:	2f09052d 	svccs	0x0009052d
    18a0:	01060d05 	tsteq	r6, r5, lsl #26
    18a4:	052d0a05 	streq	r0, [sp, #-2565]!	; 0xfffff5fb
    18a8:	0a052f10 	beq	14d4f0 <__bss_end__+0x142740>
    18ac:	09052d06 	stmdbeq	r5, {r1, r2, r8, sl, fp, sp}
    18b0:	060d052f 	streq	r0, [sp], -pc, lsr #10
    18b4:	2d0a0501 	cfstr32cs	mvfx0, [sl, #-4]
    18b8:	052f1005 	streq	r1, [pc, #-5]!	; 18bb <__code_start__-0x6745>
    18bc:	052d060a 	streq	r0, [sp, #-1546]!	; 0xfffff9f6
    18c0:	0d052f09 	stceq	15, cr2, [r5, #-36]	; 0xffffffdc
    18c4:	0a050106 	beq	141ce4 <__bss_end__+0x136f34>
    18c8:	2f10052d 	svccs	0x0010052d
    18cc:	2d060a05 	vstrcs	s0, [r6, #-20]	; 0xffffffec
    18d0:	05130905 	ldreq	r0, [r3, #-2309]	; 0xfffff6fb
    18d4:	05010610 	streq	r0, [r1, #-1552]	; 0xfffff9f0
    18d8:	052d060a 	streq	r0, [sp, #-1546]!	; 0xfffff9f6
    18dc:	01321505 	teqeq	r2, r5, lsl #10
    18e0:	05144a01 	ldreq	r4, [r4, #-2561]	; 0xfffff5ff
    18e4:	0a052f02 	beq	14d4f4 <__bss_end__+0x142744>
    18e8:	2e730306 	cdpcs	3, 7, cr0, cr3, cr6, {0}
    18ec:	01000802 	tsteq	r0, r2, lsl #16
    18f0:	00007d01 	andeq	r7, r0, r1, lsl #26
    18f4:	65000300 	strvs	r0, [r0, #-768]	; 0xfffffd00
    18f8:	02000000 	andeq	r0, r0, #0, 0
    18fc:	0d0efb01 	vstreq	d15, [lr, #-4]
    1900:	01010100 	mrseq	r0, (UNDEF: 17)
    1904:	00000001 	andeq	r0, r0, r1
    1908:	01000001 	tsteq	r0, r1
    190c:	74732f2e 	ldrbtvc	r2, [r3], #-3886	; 0xfffff0d2
    1910:	2d666661 	stclcs	6, cr6, [r6, #-388]!	; 0xfffffe7c
    1914:	00637273 	rsbeq	r7, r3, r3, ror r2
    1918:	6573552f 	ldrbvs	r5, [r3, #-1327]!	; 0xfffffad1
    191c:	6d2f7372 	stcvs	3, cr7, [pc, #-456]!	; 175c <__code_start__-0x68a4>
    1920:	73656c69 	cmnvc	r5, #26880	; 0x6900
    1924:	756f532f 	strbvc	r5, [pc, #-815]!	; 15fd <__code_start__-0x6a03>
    1928:	2f656372 	svccs	0x00656372
    192c:	34327363 	ldrtcc	r7, [r2], #-867	; 0xfffffc9d
    1930:	2f786c30 	svccs	0x00786c30
    1934:	7062696c 	rsbvc	r6, r2, ip, ror #18
    1938:	6e692f69 	cdpvs	15, 6, cr2, cr9, cr9, {3}
    193c:	64756c63 	ldrbtvs	r6, [r5], #-3171	; 0xfffff39d
    1940:	63000065 	movwvs	r0, #101	; 0x65
    1944:	6f747375 	svcvs	0x00747375
    1948:	6f6c2d6d 	svcvs	0x006c2d6d
    194c:	72656461 	rsbvc	r6, r5, #1627389952	; 0x61000000
    1950:	0100632e 	tsteq	r0, lr, lsr #6
    1954:	70720000 	rsbsvc	r0, r2, r0
    1958:	00682e69 	rsbeq	r2, r8, r9, ror #28
    195c:	00000002 	andeq	r0, r0, r2
    1960:	05001a05 	streq	r1, [r0, #-2565]	; 0xfffff5fb
    1964:	00976002 	addseq	r6, r7, r2
    1968:	01051500 	tsteq	r5, r0, lsl #10
    196c:	00020214 	andeq	r0, r2, r4, lsl r2
    1970:	01140101 	tsteq	r4, r1, lsl #2
    1974:	00030000 	andeq	r0, r3, r0
    1978:	0000005e 	andeq	r0, r0, lr, asr r0
    197c:	0efb0102 	cdpeq	1, 15, cr0, cr11, cr2, {0}
    1980:	0101000d 	tsteq	r1, sp
    1984:	00000101 	andeq	r0, r0, r1, lsl #2
    1988:	00000100 	andeq	r0, r0, r0, lsl #2
    198c:	732f2e01 			; <UNDEFINED> instruction: 0x732f2e01
    1990:	66666174 			; <UNDEFINED> instruction: 0x66666174
    1994:	6372732d 	cmnvs	r2, #-1275068416	; 0xb4000000
    1998:	73552f00 	cmpvc	r5, #0, 30
    199c:	2f737265 	svccs	0x00737265
    19a0:	656c696d 	strbvs	r6, [ip, #-2413]!	; 0xfffff693
    19a4:	6f532f73 	svcvs	0x00532f73
    19a8:	65637275 	strbvs	r7, [r3, #-629]!	; 0xfffffd8b
    19ac:	3273632f 	rsbscc	r6, r3, #-1140850688	; 0xbc000000
    19b0:	786c3034 	stmdavc	ip!, {r2, r4, r5, ip, sp}^
    19b4:	62696c2f 	rsbvs	r6, r9, #12032	; 0x2f00
    19b8:	692f6970 	stmdbvs	pc!, {r4, r5, r6, r8, fp, sp, lr}	; <UNPREDICTABLE>
    19bc:	756c636e 	strbvc	r6, [ip, #-878]!	; 0xfffffc92
    19c0:	00006564 	andeq	r6, r0, r4, ror #10
    19c4:	6f626572 	svcvs	0x00626572
    19c8:	632e746f 			; <UNDEFINED> instruction: 0x632e746f
    19cc:	00000100 	andeq	r0, r0, r0, lsl #2
    19d0:	2e697072 	mcrcs	0, 3, r7, cr9, cr2, {3}
    19d4:	00020068 	andeq	r0, r2, r8, rrx
    19d8:	19050000 	stmdbne	r5, {}	; <UNPREDICTABLE>
    19dc:	64020500 	strvs	r0, [r2], #-1280	; 0xfffffb00
    19e0:	03000097 	movweq	r0, #151	; 0x97
    19e4:	0505010d 	streq	r0, [r5, #-269]	; 0xfffffef3
    19e8:	05311313 	ldreq	r1, [r1, #-787]!	; 0xfffffced
    19ec:	05010613 	streq	r0, [r1, #-1555]	; 0xfffff9ed
    19f0:	1b052f01 	blne	14d5fc <__bss_end__+0x14284c>
    19f4:	05058506 	streq	r8, [r5, #-1286]	; 0xfffffafa
    19f8:	09051413 	stmdbeq	r5, {r0, r1, r4, sl, ip}
    19fc:	0616052f 	ldreq	r0, [r6], -pc, lsr #10
    1a00:	06050501 	streq	r0, [r5], -r1, lsl #10
    1a04:	060e052f 	streq	r0, [lr], -pc, lsr #10
    1a08:	2f050511 	svccs	0x00050511
    1a0c:	052f0105 	streq	r0, [pc, #-261]!	; 190f <__code_start__-0x66f1>
    1a10:	05300617 	ldreq	r0, [r0, #-1559]!	; 0xfffff9e9
    1a14:	6e031305 	cdpvs	3, 0, cr1, cr3, cr5, {0}
    1a18:	05131301 	ldreq	r1, [r3, #-769]	; 0xfffffcff
    1a1c:	0f030617 	svceq	0x00030617
    1a20:	03050501 	movweq	r0, #21761	; 0x5501
    1a24:	31062e71 	tstcc	r6, r1, ror lr
    1a28:	01061305 	tsteq	r6, r5, lsl #6
    1a2c:	0d030705 	stceq	7, cr0, [r3, #-20]	; 0xffffffec
    1a30:	0609052e 	streq	r0, [r9], -lr, lsr #10
    1a34:	0306054b 	movweq	r0, #25931	; 0x654b
    1a38:	05050176 	streq	r0, [r5, #-374]	; 0xfffffe8a
    1a3c:	09051413 	stmdbeq	r5, {r0, r1, r4, sl, ip}
    1a40:	0616052f 	ldreq	r0, [r6], -pc, lsr #10
    1a44:	06050501 	streq	r0, [r5], -r1, lsl #10
    1a48:	060e052f 	streq	r0, [lr], -pc, lsr #10
    1a4c:	2f050511 	svccs	0x00050511
    1a50:	0a03062e 	beq	c3310 <__bss_end__+0xb8560>
    1a54:	4d2f3001 	stcmi	0, cr3, [pc, #-4]!	; 1a58 <__code_start__-0x65a8>
    1a58:	15131313 	ldrne	r1, [r3, #-787]	; 0xfffffced
    1a5c:	04020067 	streq	r0, [r2], #-103	; 0xffffff99
    1a60:	0d056701 	stceq	7, cr6, [r5, #-4]
    1a64:	01040200 	mrseq	r0, R12_usr
    1a68:	000a0501 	andeq	r0, sl, r1, lsl #10
    1a6c:	01010402 	tsteq	r1, r2, lsl #8
    1a70:	02000505 	andeq	r0, r0, #20971520	; 0x1400000
    1a74:	05010104 	streq	r0, [r1, #-260]	; 0xfffffefc
    1a78:	0402000d 	streq	r0, [r2], #-13
    1a7c:	0a050101 	beq	141e88 <__bss_end__+0x1370d8>
    1a80:	01040200 	mrseq	r0, R12_usr
    1a84:	000a0201 	andeq	r0, sl, r1, lsl #4
    1a88:	01fa0101 	mvnseq	r0, r1, lsl #2
    1a8c:	00030000 	andeq	r0, r3, r0
    1a90:	0000005d 	andeq	r0, r0, sp, asr r0
    1a94:	0efb0102 	cdpeq	1, 15, cr0, cr11, cr2, {0}
    1a98:	0101000d 	tsteq	r1, sp
    1a9c:	00000101 	andeq	r0, r0, r1, lsl #2
    1aa0:	00000100 	andeq	r0, r0, r0, lsl #2
    1aa4:	732f2e01 			; <UNDEFINED> instruction: 0x732f2e01
    1aa8:	66666174 			; <UNDEFINED> instruction: 0x66666174
    1aac:	6372732d 	cmnvs	r2, #-1275068416	; 0xb4000000
    1ab0:	73552f00 	cmpvc	r5, #0, 30
    1ab4:	2f737265 	svccs	0x00737265
    1ab8:	656c696d 	strbvs	r6, [ip, #-2413]!	; 0xfffff693
    1abc:	6f532f73 	svcvs	0x00532f73
    1ac0:	65637275 	strbvs	r7, [r3, #-629]!	; 0xfffffd8b
    1ac4:	3273632f 	rsbscc	r6, r3, #-1140850688	; 0xbc000000
    1ac8:	786c3034 	stmdavc	ip!, {r2, r4, r5, ip, sp}^
    1acc:	62696c2f 	rsbvs	r6, r9, #12032	; 0x2f00
    1ad0:	692f6970 	stmdbvs	pc!, {r4, r5, r6, r8, fp, sp, lr}	; <UNPREDICTABLE>
    1ad4:	756c636e 	strbvc	r6, [ip, #-878]!	; 0xfffffc92
    1ad8:	00006564 	andeq	r6, r0, r4, ror #10
    1adc:	656d6974 	strbvs	r6, [sp, #-2420]!	; 0xfffff68c
    1ae0:	00632e72 	rsbeq	r2, r3, r2, ror lr
    1ae4:	72000001 	andvc	r0, r0, #1, 0
    1ae8:	682e6970 	stmdavs	lr!, {r4, r5, r6, r8, fp, sp, lr}
    1aec:	00000200 	andeq	r0, r0, r0, lsl #4
    1af0:	00230500 	eoreq	r0, r3, r0, lsl #10
    1af4:	97f00205 	ldrbls	r0, [r0, r5, lsl #4]!
    1af8:	05150000 	ldreq	r0, [r5, #-0]
    1afc:	0c051305 	stceq	3, cr1, [r5], {5}
    1b00:	1f050106 	svcne	0x00050106
    1b04:	05056a06 	streq	r6, [r5, #-2566]	; 0xfffff5fa
    1b08:	061f0515 			; <UNDEFINED> instruction: 0x061f0515
    1b0c:	3105050f 	tstcc	r5, pc, lsl #10
    1b10:	0a052f06 	beq	14d730 <__bss_end__+0x142980>
    1b14:	05017703 	streq	r7, [r1, #-1795]	; 0xfffff8fd
    1b18:	0c051305 	stceq	3, cr1, [r5], {5}
    1b1c:	05660106 	strbeq	r0, [r6, #-262]!	; 0xfffffefa
    1b20:	09030605 	stmdbeq	r3, {r0, r2, r9, sl}
    1b24:	01052f01 	tsteq	r5, r1, lsl #30
    1b28:	1c051306 	stcne	3, cr1, [r5], {6}
    1b2c:	05056806 	streq	r6, [r5, #-2054]	; 0xfffff7fa
    1b30:	030a0513 	movweq	r0, #42259	; 0xa513
    1b34:	05050176 	streq	r0, [r5, #-374]	; 0xfffffe8a
    1b38:	061c0515 			; <UNDEFINED> instruction: 0x061c0515
    1b3c:	05052e18 	streq	r2, [r5, #-3608]	; 0xfffff1e8
    1b40:	062e7a03 	strteq	r7, [lr], -r3, lsl #20
    1b44:	030a052f 	movweq	r0, #42287	; 0xa52f
    1b48:	05050177 	streq	r0, [r5, #-375]	; 0xfffffe89
    1b4c:	060c0513 			; <UNDEFINED> instruction: 0x060c0513
    1b50:	05056601 	streq	r6, [r5, #-1537]	; 0xfffff9ff
    1b54:	01090306 	tsteq	r9, r6, lsl #6
    1b58:	0501062f 	streq	r0, [r1, #-1583]	; 0xfffff9d1
    1b5c:	0176030c 	cmneq	r6, ip, lsl #6
    1b60:	03060505 	movweq	r0, #25861	; 0x6505
    1b64:	09052e0f 	stmdbeq	r5, {r0, r1, r2, r3, r9, sl, fp, sp}
    1b68:	030a0513 	movweq	r0, #42259	; 0xa513
    1b6c:	05050174 	streq	r0, [r5, #-372]	; 0xfffffe8c
    1b70:	0a052f15 	beq	14d7cc <__bss_end__+0x142a1c>
    1b74:	05017703 	streq	r7, [r1, #-1795]	; 0xfffff8fd
    1b78:	0c051305 	stceq	3, cr1, [r5], {5}
    1b7c:	05660106 	strbeq	r0, [r6, #-262]!	; 0xfffffefa
    1b80:	09030605 	stmdbeq	r3, {r0, r2, r9, sl}
    1b84:	06110501 	ldreq	r0, [r1], -r1, lsl #10
    1b88:	0305051a 	movweq	r0, #21786	; 0x551a
    1b8c:	2f062e78 	svccs	0x00062e78
    1b90:	05190905 	ldreq	r0, [r9, #-2309]	; 0xfffff6fb
    1b94:	0501060c 	streq	r0, [r1, #-1548]	; 0xfffff9f4
    1b98:	0587061c 	streq	r0, [r7, #1564]	; 0x61c
    1b9c:	1c051305 	stcne	3, cr1, [r5], {5}
    1ba0:	05051106 	streq	r1, [r5, #-262]	; 0xfffffefa
    1ba4:	06054a2f 	streq	r4, [r5], -pc, lsr #20
    1ba8:	2e760306 	cdpcs	3, 7, cr0, cr6, cr6, {0}
    1bac:	05130505 	ldreq	r0, [r3, #-1285]	; 0xfffffafb
    1bb0:	0176030a 	cmneq	r6, sl, lsl #6
    1bb4:	2f150505 	svccs	0x00150505
    1bb8:	77030a05 	strvc	r0, [r3, -r5, lsl #20]
    1bbc:	13050501 	movwne	r0, #21761	; 0x5501
    1bc0:	01060c05 	tsteq	r6, r5, lsl #24
    1bc4:	06050566 	streq	r0, [r5], -r6, ror #10
    1bc8:	2f010903 	svccs	0x00010903
    1bcc:	0c050106 	stfeqs	f0, [r5], {6}
    1bd0:	05017603 	streq	r7, [r1, #-1539]	; 0xfffff9fd
    1bd4:	0f030605 	svceq	0x00030605
    1bd8:	1309052e 	movwne	r0, #38190	; 0x952e
    1bdc:	74030a05 	strvc	r0, [r3], #-2565	; 0xfffff5fb
    1be0:	15050501 	strne	r0, [r5, #-1281]	; 0xfffffaff
    1be4:	030a052f 	movweq	r0, #42287	; 0xa52f
    1be8:	05050177 	streq	r0, [r5, #-375]	; 0xfffffe89
    1bec:	060c0513 			; <UNDEFINED> instruction: 0x060c0513
    1bf0:	05056601 	streq	r6, [r5, #-1537]	; 0xfffff9ff
    1bf4:	01090306 	tsteq	r9, r6, lsl #6
    1bf8:	1a061105 	bne	186014 <__bss_end__+0x17b264>
    1bfc:	78030505 	stmdavc	r3, {r0, r2, r8, sl}
    1c00:	052f062e 	streq	r0, [pc, #-1582]!	; 15da <__code_start__-0x6a26>
    1c04:	0c051909 			; <UNDEFINED> instruction: 0x0c051909
    1c08:	1e050106 	adfnes	f0, f5, f6
    1c0c:	05058a06 	streq	r8, [r5, #-2566]	; 0xfffff5fa
    1c10:	0e060513 	mcreq	5, 0, r0, cr6, cr3, {0}
    1c14:	05130505 	ldreq	r0, [r3, #-1285]	; 0xfffffafb
    1c18:	0514061e 	ldreq	r0, [r4, #-1566]	; 0xfffff9e2
    1c1c:	05662c05 	strbeq	r2, [r6, #-3077]!	; 0xfffff3fb
    1c20:	76030606 	strvc	r0, [r3], -r6, lsl #12
    1c24:	1305052e 	movwne	r0, #21806	; 0x552e
    1c28:	76030a05 	strvc	r0, [r3], -r5, lsl #20
    1c2c:	15050501 	strne	r0, [r5, #-1281]	; 0xfffffaff
    1c30:	030a052f 	movweq	r0, #42287	; 0xa52f
    1c34:	05050177 	streq	r0, [r5, #-375]	; 0xfffffe89
    1c38:	060c0513 			; <UNDEFINED> instruction: 0x060c0513
    1c3c:	05056601 	streq	r6, [r5, #-1537]	; 0xfffff9ff
    1c40:	01090306 	tsteq	r9, r6, lsl #6
    1c44:	0501062f 	streq	r0, [r1, #-1583]	; 0xfffff9d1
    1c48:	0176030c 	cmneq	r6, ip, lsl #6
    1c4c:	03060505 	movweq	r0, #25861	; 0x6505
    1c50:	09052e0f 	stmdbeq	r5, {r0, r1, r2, r3, r9, sl, fp, sp}
    1c54:	030a0513 	movweq	r0, #42259	; 0xa513
    1c58:	05050174 	streq	r0, [r5, #-372]	; 0xfffffe8c
    1c5c:	0a052f15 	beq	14d8b8 <__bss_end__+0x142b08>
    1c60:	05017703 	streq	r7, [r1, #-1795]	; 0xfffff8fd
    1c64:	0c051305 	stceq	3, cr1, [r5], {5}
    1c68:	05660106 	strbeq	r0, [r6, #-262]!	; 0xfffffefa
    1c6c:	09030605 	stmdbeq	r3, {r0, r2, r9, sl}
    1c70:	06110501 	ldreq	r0, [r1], -r1, lsl #10
    1c74:	0305051a 	movweq	r0, #21786	; 0x551a
    1c78:	2f062e78 	svccs	0x00062e78
    1c7c:	05190905 	ldreq	r0, [r9, #-2309]	; 0xfffff6fb
    1c80:	0201060c 	andeq	r0, r1, #12, 12	; 0xc00000
    1c84:	01010008 	tsteq	r1, r8
    1c88:	00000204 	andeq	r0, r0, r4, lsl #4
    1c8c:	00c80003 	sbceq	r0, r8, r3
    1c90:	01020000 	mrseq	r0, (UNDEF: 2)
    1c94:	000d0efb 	strdeq	r0, [sp], -fp
    1c98:	01010101 	tsteq	r1, r1, lsl #2
    1c9c:	01000000 	mrseq	r0, (UNDEF: 0)
    1ca0:	2f010000 	svccs	0x00010000
    1ca4:	656d6f68 	strbvs	r6, [sp, #-3944]!	; 0xfffff098
    1ca8:	676e652f 	strbvs	r6, [lr, -pc, lsr #10]!
    1cac:	2f72656c 	svccs	0x0072656c
    1cb0:	73616c63 	cmnvc	r1, #25344	; 0x6300
    1cb4:	73632f73 	cmnvc	r3, #460	; 0x1cc
    1cb8:	65303431 	ldrvs	r3, [r0, #-1073]!	; 0xfffffbcf
    1cbc:	7732322d 	ldrvc	r3, [r2, -sp, lsr #4]!
    1cc0:	2f2f6e69 	svccs	0x002f6e69
    1cc4:	7062696c 	rsbvc	r6, r2, ip, ror #18
    1cc8:	6e692f69 	cdpvs	15, 6, cr2, cr9, cr9, {3}
    1ccc:	64756c63 	ldrbtvs	r6, [r5], #-3171	; 0xfffff39d
    1cd0:	752f0065 	strvc	r0, [pc, #-101]!	; 1c73 <__code_start__-0x638d>
    1cd4:	732f7273 			; <UNDEFINED> instruction: 0x732f7273
    1cd8:	65726168 	ldrbvs	r6, [r2, #-360]!	; 0xfffffe98
    1cdc:	6363672f 	cmnvs	r3, #12320768	; 0xbc0000
    1ce0:	6d72612d 	ldfvse	f6, [r2, #-180]!	; 0xffffff4c
    1ce4:	6e6f6e2d 	cdpvs	14, 6, cr6, cr15, cr13, {1}
    1ce8:	61652d65 	cmnvs	r5, r5, ror #26
    1cec:	312d6962 			; <UNDEFINED> instruction: 0x312d6962
    1cf0:	2d332e30 	ldccs	14, cr2, [r3, #-192]!	; 0xffffff40
    1cf4:	31323032 	teqcc	r2, r2, lsr r0
    1cf8:	2f30312e 	svccs	0x0030312e
    1cfc:	2f62696c 	svccs	0x0062696c
    1d00:	2f636367 	svccs	0x00636367
    1d04:	2d6d7261 	sfmcs	f7, 2, [sp, #-388]!	; 0xfffffe7c
    1d08:	656e6f6e 	strbvs	r6, [lr, #-3950]!	; 0xfffff092
    1d0c:	6261652d 	rsbvs	r6, r1, #188743680	; 0xb400000
    1d10:	30312f69 	eorscc	r2, r1, r9, ror #30
    1d14:	312e332e 			; <UNDEFINED> instruction: 0x312e332e
    1d18:	636e692f 	cmnvs	lr, #770048	; 0xbc000
    1d1c:	6564756c 	strbvs	r7, [r4, #-1388]!	; 0xfffffa94
    1d20:	61750000 	cmnvs	r5, r0
    1d24:	632e7472 			; <UNDEFINED> instruction: 0x632e7472
    1d28:	00000000 	andeq	r0, r0, r0
    1d2c:	74726175 	ldrbtvc	r6, [r2], #-373	; 0xfffffe8b
    1d30:	0100682e 	tsteq	r0, lr, lsr #16
    1d34:	70720000 	rsbsvc	r0, r2, r0
    1d38:	00682e69 	rsbeq	r2, r8, r9, ror #28
    1d3c:	67000001 	strvs	r0, [r0, -r1]
    1d40:	2e6f6970 			; <UNDEFINED> instruction: 0x2e6f6970
    1d44:	00010068 	andeq	r0, r1, r8, rrx
    1d48:	64747300 	ldrbtvs	r7, [r4], #-768	; 0xfffffd00
    1d4c:	2d746e69 	ldclcs	14, cr6, [r4, #-420]!	; 0xfffffe5c
    1d50:	2e636367 	cdpcs	3, 6, cr6, cr3, cr7, {3}
    1d54:	00020068 	andeq	r0, r2, r8, rrx
    1d58:	39050000 	stmdbcc	r5, {}	; <UNPREDICTABLE>
    1d5c:	0c020500 	cfstr32eq	mvfx0, [r2], {-0}
    1d60:	03000099 	movweq	r0, #153	; 0x99
    1d64:	01060130 	tsteq	r6, r0, lsr r1
    1d68:	67060505 	strvs	r0, [r6, -r5, lsl #10]
    1d6c:	01061105 	tsteq	r6, r5, lsl #2
    1d70:	052e0505 	streq	r0, [lr, #-1285]!	; 0xfffffafb
    1d74:	38056701 	stmdacc	r5, {r0, r8, r9, sl, sp, lr}
    1d78:	01062906 	tsteq	r6, r6, lsl #18
    1d7c:	67060505 	strvs	r0, [r6, -r5, lsl #10]
    1d80:	01061105 	tsteq	r6, r5, lsl #2
    1d84:	052e0505 	streq	r0, [lr, #-1285]!	; 0xfffffafb
    1d88:	16056701 	strne	r6, [r5], -r1, lsl #14
    1d8c:	2e150306 	cdpcs	3, 1, cr0, cr5, cr6, {0}
    1d90:	67350505 	ldrvs	r0, [r5, -r5, lsl #10]!
    1d94:	03683568 	cmneq	r8, #104, 10	; 0x1a000000
    1d98:	6b852e0c 	blvs	fe14d5d0 <__bss_end__+0xfe142820>
    1d9c:	0c036969 			; <UNDEFINED> instruction: 0x0c036969
    1da0:	676b1366 	strbvs	r1, [fp, -r6, ror #6]!
    1da4:	2f060105 	svccs	0x00060105
    1da8:	08061905 	stmdaeq	r6, {r0, r2, r8, fp, ip}
    1dac:	34050525 	strcc	r0, [r5], #-1317	; 0xfffffadb
    1db0:	01060d05 	tsteq	r6, r5, lsl #26
    1db4:	054c0105 	strbeq	r0, [ip, #-261]	; 0xfffffefb
    1db8:	05670619 	strbeq	r0, [r7, #-1561]!	; 0xfffff9e7
    1dbc:	0d053605 	stceq	6, cr3, [r5, #-20]	; 0xffffffec
    1dc0:	28050106 	stmdacs	r5, {r1, r2, r8}
    1dc4:	3001054a 	andcc	r0, r1, sl, asr #10
    1dc8:	87061505 	strhi	r1, [r6, -r5, lsl #10]
    1dcc:	2f2f0505 	svccs	0x002f0505
    1dd0:	02000905 	andeq	r0, r0, #81920	; 0x14000
    1dd4:	05130104 	ldreq	r0, [r3, #-260]	; 0xfffffefc
    1dd8:	0402000a 	streq	r0, [r2], #-10
    1ddc:	0c051101 	stfeqs	f1, [r5], {1}
    1de0:	01040200 	mrseq	r0, R12_usr
    1de4:	0a050106 	beq	142204 <__bss_end__+0x137454>
    1de8:	01040200 	mrseq	r0, R12_usr
    1dec:	0605052e 	streq	r0, [r5], -lr, lsr #10
    1df0:	060e054c 	streq	r0, [lr], -ip, asr #10
    1df4:	4a090501 	bmi	243200 <__bss_end__+0x238450>
    1df8:	2f060505 	svccs	0x00060505
    1dfc:	0601052f 	streq	r0, [r1], -pc, lsr #10
    1e00:	061c0513 			; <UNDEFINED> instruction: 0x061c0513
    1e04:	05010667 	streq	r0, [r1, #-1639]	; 0xfffff999
    1e08:	2f4b0605 	svccs	0x004b0605
    1e0c:	02000905 	andeq	r0, r0, #81920	; 0x14000
    1e10:	05130104 	ldreq	r0, [r3, #-260]	; 0xfffffefc
    1e14:	0402000a 	streq	r0, [r2], #-10
    1e18:	0c051101 	stfeqs	f1, [r5], {1}
    1e1c:	01040200 	mrseq	r0, R12_usr
    1e20:	0a050106 	beq	142240 <__bss_end__+0x137490>
    1e24:	01040200 	mrseq	r0, R12_usr
    1e28:	0605052e 	streq	r0, [r5], -lr, lsr #10
    1e2c:	0105674c 	tsteq	r5, ip, asr #14
    1e30:	19052f06 	stmdbne	r5, {r1, r2, r8, r9, sl, fp, sp}
    1e34:	1b054c06 	blne	154e54 <__bss_end__+0x14a0a4>
    1e38:	2e2a052e 	cfsh64cs	mvdx0, mvdx10, #30
    1e3c:	01063105 	tsteq	r6, r5, lsl #2
    1e40:	052e4205 	streq	r4, [lr, #-517]!	; 0xfffffdfb
    1e44:	0531061c 	ldreq	r0, [r1, #-1564]!	; 0xfffff9e4
    1e48:	09032f05 	stmdbeq	r3, {r0, r2, r8, r9, sl, fp, sp}
    1e4c:	060e052e 	streq	r0, [lr], -lr, lsr #10
    1e50:	4a210501 	bmi	84325c <__bss_end__+0x8384ac>
    1e54:	0a030105 	beq	c2270 <__bss_end__+0xb74c0>
    1e58:	061a052e 	ldreq	r0, [sl], -lr, lsr #10
    1e5c:	00090568 	andeq	r0, r9, r8, ror #10
    1e60:	30010402 	andcc	r0, r1, r2, lsl #8
    1e64:	02000a05 	andeq	r0, r0, #20480	; 0x5000
    1e68:	05110104 	ldreq	r0, [r1, #-260]	; 0xfffffefc
    1e6c:	0402000c 	streq	r0, [r2], #-12
    1e70:	05010601 	streq	r0, [r1, #-1537]	; 0xfffff9ff
    1e74:	0402000a 	streq	r0, [r2], #-10
    1e78:	19052e01 	stmdbne	r5, {r0, r9, sl, fp, sp}
    1e7c:	7ee80306 	cdpvc	3, 14, cr0, cr8, cr6, {0}
    1e80:	2f050566 	svccs	0x00050566
    1e84:	05672f2f 	strbeq	r2, [r7, #-3887]!	; 0xfffff0d1
    1e88:	022f0601 	eoreq	r0, pc, #1048576	; 0x100000
    1e8c:	01010004 	tsteq	r1, r4
    1e90:	00000392 	muleq	r0, r2, r3
    1e94:	00b70003 	adcseq	r0, r7, r3
    1e98:	01020000 	mrseq	r0, (UNDEF: 2)
    1e9c:	000d0efb 	strdeq	r0, [sp], -fp
    1ea0:	01010101 	tsteq	r1, r1, lsl #2
    1ea4:	01000000 	mrseq	r0, (UNDEF: 0)
    1ea8:	2f010000 	svccs	0x00010000
    1eac:	656d6f68 	strbvs	r6, [sp, #-3944]!	; 0xfffff098
    1eb0:	676e652f 	strbvs	r6, [lr, -pc, lsr #10]!
    1eb4:	2f72656c 	svccs	0x0072656c
    1eb8:	73616c63 	cmnvc	r1, #25344	; 0x6300
    1ebc:	73632f73 	cmnvc	r3, #460	; 0x1cc
    1ec0:	65303431 	ldrvs	r3, [r0, #-1073]!	; 0xfffffbcf
    1ec4:	7732322d 	ldrvc	r3, [r2, -sp, lsr #4]!
    1ec8:	2f2f6e69 	svccs	0x002f6e69
    1ecc:	7062696c 	rsbvc	r6, r2, ip, ror #18
    1ed0:	6e692f69 	cdpvs	15, 6, cr2, cr9, cr9, {3}
    1ed4:	64756c63 	ldrbtvs	r6, [r5], #-3171	; 0xfffff39d
    1ed8:	752f0065 	strvc	r0, [pc, #-101]!	; 1e7b <__code_start__-0x6185>
    1edc:	732f7273 			; <UNDEFINED> instruction: 0x732f7273
    1ee0:	65726168 	ldrbvs	r6, [r2, #-360]!	; 0xfffffe98
    1ee4:	6363672f 	cmnvs	r3, #12320768	; 0xbc0000
    1ee8:	6d72612d 	ldfvse	f6, [r2, #-180]!	; 0xffffff4c
    1eec:	6e6f6e2d 	cdpvs	14, 6, cr6, cr15, cr13, {1}
    1ef0:	61652d65 	cmnvs	r5, r5, ror #26
    1ef4:	312d6962 			; <UNDEFINED> instruction: 0x312d6962
    1ef8:	2d332e30 	ldccs	14, cr2, [r3, #-192]!	; 0xffffff40
    1efc:	31323032 	teqcc	r2, r2, lsr r0
    1f00:	2f30312e 	svccs	0x0030312e
    1f04:	2f62696c 	svccs	0x0062696c
    1f08:	2f636367 	svccs	0x00636367
    1f0c:	2d6d7261 	sfmcs	f7, 2, [sp, #-388]!	; 0xfffffe7c
    1f10:	656e6f6e 	strbvs	r6, [lr, #-3950]!	; 0xfffff092
    1f14:	6261652d 	rsbvs	r6, r1, #188743680	; 0xb400000
    1f18:	30312f69 	eorscc	r2, r1, r9, ror #30
    1f1c:	312e332e 			; <UNDEFINED> instruction: 0x312e332e
    1f20:	636e692f 	cmnvs	lr, #770048	; 0xbc000
    1f24:	6564756c 	strbvs	r7, [r4, #-1388]!	; 0xfffffa94
    1f28:	6d6b0000 	stclvs	0, cr0, [fp, #-0]
    1f2c:	6f6c6c61 	svcvs	0x006c6c61
    1f30:	00632e63 	rsbeq	r2, r3, r3, ror #28
    1f34:	72000000 	andvc	r0, r0, #0, 0
    1f38:	682e6970 	stmdavs	lr!, {r4, r5, r6, r8, fp, sp, lr}
    1f3c:	00000100 	andeq	r0, r0, r0, lsl #2
    1f40:	69647473 	stmdbvs	r4!, {r0, r1, r4, r5, r6, sl, ip, sp, lr}^
    1f44:	672d746e 	strvs	r7, [sp, -lr, ror #8]!
    1f48:	682e6363 	stmdavs	lr!, {r0, r1, r5, r6, r8, r9, sp, lr}
    1f4c:	00000200 	andeq	r0, r0, r0, lsl #4
    1f50:	001e0500 	andseq	r0, lr, r0, lsl #10
    1f54:	9afc0205 	bls	fff02770 <__bss_end__+0xffef79c0>
    1f58:	27030000 	strcs	r0, [r3, -r0]
    1f5c:	01200501 			; <UNDEFINED> instruction: 0x01200501
    1f60:	01062d05 	tsteq	r6, r5, lsl #26
    1f64:	83062005 	movwhi	r2, #24581	; 0x6005
    1f68:	05012205 	streq	r2, [r1, #-517]	; 0xfffffdfb
    1f6c:	05010635 	streq	r0, [r1, #-1589]	; 0xfffff9cb
    1f70:	0583061e 	streq	r0, [r3, #1566]	; 0x61e
    1f74:	2d050120 	stfcss	f0, [r5, #-128]	; 0xffffff80
    1f78:	42050106 	andmi	r0, r5, #-2147483647	; 0x80000001
    1f7c:	01068506 	tsteq	r6, r6, lsl #10
    1f80:	4b060505 	blmi	18339c <__bss_end__+0x1785ec>
    1f84:	2e060114 	mcrcs	1, 0, r0, cr6, cr4, {0}
    1f88:	02040200 	andeq	r0, r4, #0, 4
    1f8c:	02002e06 	andeq	r2, r0, #96	; 0x60
    1f90:	00010204 	andeq	r0, r1, r4, lsl #4
    1f94:	15020402 	strne	r0, [r2, #-1026]	; 0xfffffbfe
    1f98:	02000d05 	andeq	r0, r0, #320	; 0x140
    1f9c:	01060204 	tsteq	r6, r4, lsl #4
    1fa0:	02000705 	andeq	r0, r0, #1310720	; 0x140000
    1fa4:	054a0204 	strbeq	r0, [sl, #-516]	; 0xfffffdfc
    1fa8:	054b0609 	strbeq	r0, [fp, #-1545]	; 0xfffff9f7
    1fac:	17051505 	strne	r1, [r5, -r5, lsl #10]
    1fb0:	10050106 	andne	r0, r5, r6, lsl #2
    1fb4:	0605054a 	streq	r0, [r5], -sl, asr #10
    1fb8:	061b052f 	ldreq	r0, [fp], -pc, lsr #10
    1fbc:	2e0e0501 	cfsh32cs	mvfx0, mvfx14, #1
    1fc0:	052f0105 	streq	r0, [pc, #-261]!	; 1ec3 <__code_start__-0x613d>
    1fc4:	04020005 	streq	r0, [r2], #-5
    1fc8:	77030601 	strvc	r0, [r3, -r1, lsl #12]
    1fcc:	0402004a 	streq	r0, [r2], #-74	; 0xffffffb6
    1fd0:	02000101 	andeq	r0, r0, #1073741824	; 0x40000000
    1fd4:	9e060104 	adflss	f0, f6, f4
    1fd8:	01040200 	mrseq	r0, R12_usr
    1fdc:	0402002e 	streq	r0, [r2], #-46	; 0xffffffd2
    1fe0:	052e0601 	streq	r0, [lr, #-1537]!	; 0xfffff9ff
    1fe4:	06013209 	streq	r3, [r1], -r9, lsl #4
    1fe8:	2e062ed6 	mcrcs	14, 0, r2, cr6, cr6, {6}
    1fec:	05de1905 	ldrbeq	r1, [lr, #2309]	; 0x905
    1ff0:	05142f05 	ldreq	r2, [r4, #-3845]	; 0xfffff0fb
    1ff4:	05010608 	streq	r0, [r1, #-1544]	; 0xfffff9f8
    1ff8:	09054a07 	stmdbeq	r5, {r0, r1, r2, r9, fp, lr}
    1ffc:	05054b06 	streq	r4, [r5, #-2822]	; 0xfffff4fa
    2000:	060c0513 			; <UNDEFINED> instruction: 0x060c0513
    2004:	06050501 	streq	r0, [r5], -r1, lsl #10
    2008:	01051367 	tsteq	r5, r7, ror #6
    200c:	09056706 	stmdbeq	r5, {r1, r2, r8, r9, sl, sp, lr}
    2010:	9e012a06 	vmlals.f32	s4, s2, s12
    2014:	06a52805 	strteq	r2, [r5], r5, lsl #16
    2018:	06050501 	streq	r0, [r5], -r1, lsl #10
    201c:	2e06014b 	adfcssm	f0, f6, #3.0
    2020:	13012e06 	movwne	r2, #7686	; 0x1e06
    2024:	47031805 	strmi	r1, [r3, -r5, lsl #16]
    2028:	13050501 	movwne	r0, #21761	; 0x5501
    202c:	06010601 	streq	r0, [r1], -r1, lsl #12
    2030:	1301150f 	movwne	r1, #5391	; 0x150f
    2034:	01060e05 	tsteq	r6, r5, lsl #28
    2038:	2e2e1605 	cfmadda32cs	mvax0, mvax1, mvfx14, mvfx5
    203c:	03060505 	movweq	r0, #25861	; 0x6505
    2040:	0b050139 	bleq	14252c <__bss_end__+0x13777c>
    2044:	05050106 	streq	r0, [r5, #-262]	; 0xfffffefa
    2048:	0a054b06 	beq	154c68 <__bss_end__+0x149eb8>
    204c:	05050106 	streq	r0, [r5, #-262]	; 0xfffffefa
    2050:	0d054b06 	vstreq	d4, [r5, #-24]	; 0xffffffe8
    2054:	07050106 	streq	r0, [r5, -r6, lsl #2]
    2058:	4d01052e 	cfstr32mi	mvfx0, [r1, #-184]	; 0xffffff48
    205c:	02000505 	andeq	r0, r0, #20971520	; 0x1400000
    2060:	03060104 	movweq	r0, #24836	; 0x6104
    2064:	02004a78 	andeq	r4, r0, #120, 20	; 0x78000
    2068:	00010104 	andeq	r0, r1, r4, lsl #2
    206c:	06010402 	streq	r0, [r1], -r2, lsl #8
    2070:	040200ba 	streq	r0, [r2], #-186	; 0xffffff46
    2074:	052e0601 	streq	r0, [lr, #-1537]!	; 0xfffff9ff
    2078:	06013409 	streq	r3, [r1], -r9, lsl #8
    207c:	2e066682 	cfmadd32cs	mvax4, mvfx6, mvfx6, mvfx2
    2080:	06db2005 	ldrbeq	r2, [fp], r5
    2084:	06050501 	streq	r0, [r5], -r1, lsl #10
    2088:	0200014b 	andeq	r0, r0, #-1073741806	; 0xc0000012
    208c:	004a0204 	subeq	r0, sl, r4, lsl #4
    2090:	01020402 	tsteq	r2, r2, lsl #8
    2094:	02040200 	andeq	r0, r4, #0, 4
    2098:	00120513 	andseq	r0, r2, r3, lsl r5
    209c:	06020402 	streq	r0, [r2], -r2, lsl #8
    20a0:	04020001 	streq	r0, [r2], #-1
    20a4:	02002e02 	andeq	r2, r0, #2, 28
    20a8:	052e0204 	streq	r0, [lr, #-516]!	; 0xfffffdfc
    20ac:	04020005 	streq	r0, [r2], #-5
    20b0:	002f0602 	eoreq	r0, pc, r2, lsl #12
    20b4:	67020402 	strvs	r0, [r2, -r2, lsl #8]
    20b8:	02000105 	andeq	r0, r0, #1073741825	; 0x40000001
    20bc:	13060204 	movwne	r0, #25092	; 0x6204
    20c0:	02000505 	andeq	r0, r0, #20971520	; 0x1400000
    20c4:	62060104 	andvs	r0, r6, #1
    20c8:	01040200 	mrseq	r0, R12_usr
    20cc:	04020001 	streq	r0, [r2], #-1
    20d0:	00ba0601 	adcseq	r0, sl, r1, lsl #12
    20d4:	06010402 	streq	r0, [r1], -r2, lsl #8
    20d8:	033c052e 	teqeq	ip, #192937984	; 0xb800000
    20dc:	01069e0a 	tsteq	r6, sl, lsl #28
    20e0:	4b060505 	blmi	1834fc <__bss_end__+0x17874c>
    20e4:	062e0601 	strteq	r0, [lr], -r1, lsl #12
    20e8:	0113012e 	tsteq	r3, lr, lsr #2
    20ec:	ad031805 	stcge	8, cr1, [r3, #-20]	; 0xffffffec
    20f0:	0505017f 	streq	r0, [r5, #-383]	; 0xfffffe81
    20f4:	06110513 			; <UNDEFINED> instruction: 0x06110513
    20f8:	05052e01 	streq	r2, [r5, #-3585]	; 0xfffff1ff
    20fc:	0100d203 	tsteq	r0, r3, lsl #4
    2100:	05134a06 	ldreq	r4, [r3, #-2566]	; 0xfffff5fa
    2104:	7fa30318 	svcvc	0x00a30318
    2108:	13050501 	movwne	r0, #21761	; 0x5501
    210c:	01061605 	tsteq	r6, r5, lsl #12
    2110:	0605054a 	streq	r0, [r5], -sl, asr #10
    2114:	0100e103 	tsteq	r0, r3, lsl #2
    2118:	01061205 	tsteq	r6, r5, lsl #4
    211c:	4b060505 	blmi	183538 <__bss_end__+0x178788>
    2120:	a9031805 	stmdbge	r3, {r0, r2, fp, ip}
    2124:	0505017f 	streq	r0, [r5, #-383]	; 0xfffffe81
    2128:	18050113 	stmdane	r5, {r0, r1, r4, r8}
    212c:	1305050e 	movwne	r0, #21774	; 0x550e
    2130:	01061105 	tsteq	r6, r5, lsl #2
    2134:	1505052e 	strne	r0, [r5, #-1326]	; 0xfffffad2
    2138:	13014a06 	movwne	r4, #6662	; 0x1a06
    213c:	01060e05 	tsteq	r6, r5, lsl #28
    2140:	2e16052e 	cfmul64cs	mvdx0, mvdx6, mvdx14
    2144:	0605052e 	streq	r0, [r5], -lr, lsr #10
    2148:	0100d603 	tsteq	r0, r3, lsl #12
    214c:	03180501 	tsteq	r8, #4194304	; 0x400000
    2150:	05017f9f 	streq	r7, [r1, #-3999]	; 0xfffff061
    2154:	19051305 	stmdbne	r5, {r0, r2, r8, r9, ip}
    2158:	052e0106 	streq	r0, [lr, #-262]!	; 0xfffffefa
    215c:	00e00305 	rsceq	r0, r0, r5, lsl #6
    2160:	04020001 	streq	r0, [r2], #-1
    2164:	004a0602 	subeq	r0, sl, r2, lsl #12
    2168:	14020402 	strne	r0, [r2], #-1026	; 0xfffffbfe
    216c:	02000a05 	andeq	r0, r0, #20480	; 0x5000
    2170:	01060204 	tsteq	r6, r4, lsl #4
    2174:	02000505 	andeq	r0, r0, #20971520	; 0x1400000
    2178:	4b060204 	blmi	182990 <__bss_end__+0x177be0>
    217c:	02000c05 	andeq	r0, r0, #1280	; 0x500
    2180:	01060204 	tsteq	r6, r4, lsl #4
    2184:	02000105 	andeq	r0, r0, #1073741825	; 0x40000001
    2188:	052f0204 	streq	r0, [pc, #-516]!	; 1f8c <__code_start__-0x6074>
    218c:	04020005 	streq	r0, [r2], #-5
    2190:	73030601 	movwvc	r0, #13825	; 0x3601
    2194:	0402004a 	streq	r0, [r2], #-74	; 0xffffffb6
    2198:	02000101 	andeq	r0, r0, #1073741824	; 0x40000000
    219c:	9e060104 	adflss	f0, f6, f4
    21a0:	01040200 	mrseq	r0, R12_usr
    21a4:	0402002e 	streq	r0, [r2], #-46	; 0xffffffd2
    21a8:	002e0601 	eoreq	r0, lr, r1, lsl #12
    21ac:	2f010402 	svccs	0x00010402
    21b0:	01040200 	mrseq	r0, R12_usr
    21b4:	0402002e 	streq	r0, [r2], #-46	; 0xffffffd2
    21b8:	b103d601 	tstlt	r3, r1, lsl #12
    21bc:	06012e7f 			; <UNDEFINED> instruction: 0x06012e7f
    21c0:	062e2e82 	strteq	r2, [lr], -r2, lsl #29
    21c4:	002e062e 	eoreq	r0, lr, lr, lsr #12
    21c8:	06010402 	streq	r0, [r1], -r2, lsl #8
    21cc:	0100d703 	tsteq	r0, r3, lsl #14
    21d0:	01040200 	mrseq	r0, R12_usr
    21d4:	0402002e 	streq	r0, [r2], #-46	; 0xffffffd2
    21d8:	1505d601 	strne	sp, [r5, #-1537]	; 0xfffff9ff
    21dc:	17057b08 	strne	r7, [r5, -r8, lsl #22]
    21e0:	31160501 	tstcc	r6, r1, lsl #10
    21e4:	05011805 	streq	r1, [r1, #-2053]	; 0xfffff7fb
    21e8:	0501061d 	streq	r0, [r1, #-1565]	; 0xfffff9e3
    21ec:	1905662b 	stmdbne	r5, {r0, r1, r3, r5, r9, sl, sp, lr}
    21f0:	05054d06 	streq	r4, [r5, #-3334]	; 0xfffff2fa
    21f4:	060c0513 			; <UNDEFINED> instruction: 0x060c0513
    21f8:	4a070501 	bmi	1c3604 <__bss_end__+0x1b8854>
    21fc:	02002505 	andeq	r2, r0, #20971520	; 0x1400000
    2200:	054a0104 	strbeq	r0, [sl, #-260]	; 0xfffffefc
    2204:	0402001e 	streq	r0, [r2], #-30	; 0xffffffe2
    2208:	09054a01 	stmdbeq	r5, {r0, r9, fp, lr}
    220c:	05054b06 	streq	r4, [r5, #-2822]	; 0xfffff4fa
    2210:	060a0513 			; <UNDEFINED> instruction: 0x060a0513
    2214:	63190501 	tstvs	r9, #4194304	; 0x400000
    2218:	4c060905 			; <UNDEFINED> instruction: 0x4c060905
    221c:	069e0601 	ldreq	r0, [lr], r1, lsl #12
    2220:	000a022e 	andeq	r0, sl, lr, lsr #4
    2224:	02890101 	addeq	r0, r9, #1073741824	; 0x40000000
    2228:	00030000 	andeq	r0, r3, r0
    222c:	000000c9 	andeq	r0, r0, r9, asr #1
    2230:	0efb0102 	cdpeq	1, 15, cr0, cr11, cr2, {0}
    2234:	0101000d 	tsteq	r1, sp
    2238:	00000101 	andeq	r0, r0, r1, lsl #2
    223c:	00000100 	andeq	r0, r0, r0, lsl #2
    2240:	732f2e01 			; <UNDEFINED> instruction: 0x732f2e01
    2244:	2f006372 	svccs	0x00006372
    2248:	72657355 	rsbvc	r7, r5, #1409286145	; 0x54000001
    224c:	696d2f73 	stmdbvs	sp!, {r0, r1, r4, r5, r6, r8, r9, sl, fp, sp}^
    2250:	2f73656c 	svccs	0x0073656c
    2254:	72756f53 	rsbsvc	r6, r5, #332	; 0x14c
    2258:	632f6563 			; <UNDEFINED> instruction: 0x632f6563
    225c:	30343273 	eorscc	r3, r4, r3, ror r2
    2260:	6c2f786c 	stcvs	8, cr7, [pc], #-432	; 20b8 <__code_start__-0x5f48>
    2264:	69706269 	ldmdbvs	r0!, {r0, r3, r5, r6, r9, sp, lr}^
    2268:	636e692f 	cmnvs	lr, #770048	; 0xbc000
    226c:	6564756c 	strbvs	r7, [r4, #-1388]!	; 0xfffffa94
    2270:	706f2f00 	rsbvc	r2, pc, r0, lsl #30
    2274:	6f682f74 	svcvs	0x00682f74
    2278:	7262656d 	rsbvc	r6, r2, #457179136	; 0x1b400000
    227c:	432f7765 			; <UNDEFINED> instruction: 0x432f7765
    2280:	616c6c65 	cmnvs	ip, r5, ror #24
    2284:	72612f72 	rsbvc	r2, r1, #456	; 0x1c8
    2288:	6f6e2d6d 	svcvs	0x006e2d6d
    228c:	652d656e 	strvs	r6, [sp, #-1390]!	; 0xfffffa92
    2290:	2d696261 	sfmcs	f6, 2, [r9, #-388]!	; 0xfffffe7c
    2294:	2d392f39 	ldccs	15, cr2, [r9, #-228]!	; 0xffffff1c
    2298:	39313032 	ldmdbcc	r1!, {r1, r4, r5, ip, sp}
    229c:	632d3471 			; <UNDEFINED> instruction: 0x632d3471
    22a0:	37303173 			; <UNDEFINED> instruction: 0x37303173
    22a4:	696c2f65 	stmdbvs	ip!, {r0, r2, r5, r6, r8, r9, sl, fp, sp}^
    22a8:	63672f62 	cmnvs	r7, #392	; 0x188
    22ac:	72612f63 	rsbvc	r2, r1, #396	; 0x18c
    22b0:	6f6e2d6d 	svcvs	0x006e2d6d
    22b4:	652d656e 	strvs	r6, [sp, #-1390]!	; 0xfffffa92
    22b8:	2f696261 	svccs	0x00696261
    22bc:	2e322e39 	mrccs	14, 1, r2, cr2, cr9, {1}
    22c0:	6e692f31 	mcrvs	15, 3, r2, cr9, cr1, {1}
    22c4:	64756c63 	ldrbtvs	r6, [r5], #-3171	; 0xfffff39d
    22c8:	67000065 	strvs	r0, [r0, -r5, rrx]
    22cc:	2e6f6970 			; <UNDEFINED> instruction: 0x2e6f6970
    22d0:	00010063 	andeq	r0, r1, r3, rrx
    22d4:	69707200 	ldmdbvs	r0!, {r9, ip, sp, lr}^
    22d8:	0200682e 	andeq	r6, r0, #3014656	; 0x2e0000
    22dc:	74730000 	ldrbtvc	r0, [r3], #-0
    22e0:	746e6964 	strbtvc	r6, [lr], #-2404	; 0xfffff69c
    22e4:	6363672d 	cmnvs	r3, #11796480	; 0xb40000
    22e8:	0300682e 	movweq	r6, #2094	; 0x82e
    22ec:	70670000 	rsbvc	r0, r7, r0
    22f0:	682e6f69 	stmdavs	lr!, {r0, r3, r5, r6, r8, r9, sl, fp, sp, lr}
    22f4:	00000200 	andeq	r0, r0, r0, lsl #4
    22f8:	00380500 	eorseq	r0, r8, r0, lsl #10
    22fc:	9eac0205 	cdpls	2, 10, cr0, cr12, cr5, {0}
    2300:	27030000 	strcs	r0, [r3, -r0]
    2304:	13050501 	movwne	r0, #21761	; 0x5501
    2308:	01060705 	tsteq	r6, r5, lsl #14
    230c:	49060605 	stmdbmi	r6, {r0, r2, r9, sl}
    2310:	05150505 	ldreq	r0, [r5, #-1285]	; 0xfffffafb
    2314:	05010607 	streq	r0, [r1, #-1543]	; 0xfffff9f9
    2318:	07052b38 	smladxeq	r5, r8, fp, r2
    231c:	0605054d 	streq	r0, [r5], -sp, asr #10
    2320:	06180530 			; <UNDEFINED> instruction: 0x06180530
    2324:	671c0501 	ldrvs	r0, [ip, -r1, lsl #10]
    2328:	054a0e05 	strbeq	r0, [sl, #-3589]	; 0xfffff1fb
    232c:	12052d18 	andne	r2, r5, #24, 26	; 0x600
    2330:	052f2e4d 	streq	r2, [pc, #-3661]!	; 14eb <__code_start__-0x6b15>
    2334:	05052a0e 	streq	r2, [r5, #-2574]	; 0xfffff5f2
    2338:	13142f06 	tstne	r4, #6, 30
    233c:	01060705 	tsteq	r6, r5, lsl #14
    2340:	2f060505 	svccs	0x00060505
    2344:	2e2e0613 	mcrcs	6, 1, r0, cr14, cr3, {0}
    2348:	05130105 	ldreq	r0, [r3, #-261]	; 0xfffffefb
    234c:	052e2d05 	streq	r2, [lr, #-3333]!	; 0xfffff2fb
    2350:	05000624 	streq	r0, [r0, #-1572]	; 0xfffff9dc
    2354:	009f0c02 	addseq	r0, pc, r2, lsl #24
    2358:	05051500 	streq	r1, [r5, #-1280]	; 0xfffffb00
    235c:	03060513 	movweq	r0, #25875	; 0x6513
    2360:	05050171 	streq	r0, [r5, #-369]	; 0xfffffe8f
    2364:	06070513 			; <UNDEFINED> instruction: 0x06070513
    2368:	06060501 	streq	r0, [r6], -r1, lsl #10
    236c:	15050549 	strne	r0, [r5, #-1353]	; 0xfffffab7
    2370:	06240514 			; <UNDEFINED> instruction: 0x06240514
    2374:	05010903 	streq	r0, [r1, #-2307]	; 0xfffff6fd
    2378:	2e770318 	mrccs	3, 3, r0, cr7, cr8, {0}
    237c:	05671c05 	strbeq	r1, [r7, #-3077]!	; 0xfffff3fb
    2380:	18054a0e 	stmdane	r5, {r1, r2, r3, r9, fp, lr}
    2384:	4d12052d 	cfldr32mi	mvfx0, [r2, #-180]	; 0xffffff4c
    2388:	0f052f2e 	svceq	0x00052f2e
    238c:	290e052f 	stmdbcs	lr, {r0, r1, r2, r3, r5, r8, sl}
    2390:	2f060505 	svccs	0x00060505
    2394:	07051314 	smladeq	r5, r4, r3, r1
    2398:	05050106 	streq	r0, [r5, #-262]	; 0xfffffefa
    239c:	06132f06 	ldreq	r2, [r3], -r6, lsl #30
    23a0:	3301052e 	movwcc	r0, #5422	; 0x152e
    23a4:	2e290505 	cfsh64cs	mvdx0, mvdx9, #5
    23a8:	00062705 	andeq	r2, r6, r5, lsl #14
    23ac:	9f640205 	svcls	0x00640205
    23b0:	051a0000 	ldreq	r0, [sl, #-0]
    23b4:	27051305 	strcs	r1, [r5, -r5, lsl #6]
    23b8:	18051106 	stmdane	r5, {r1, r2, r8, ip}
    23bc:	2e05052f 	cfsh32cs	mvfx0, mvfx5, #31
    23c0:	28054a2e 	stmdacs	r5, {r1, r2, r3, r5, r9, fp, lr}
    23c4:	02050006 	andeq	r0, r5, #6, 0
    23c8:	00009f7c 	andeq	r9, r0, ip, ror pc
    23cc:	13050516 	movwne	r0, #21782	; 0x5516
    23d0:	11062805 	tstne	r6, r5, lsl #16
    23d4:	052f1805 	streq	r1, [pc, #-2053]!	; 1bd7 <__code_start__-0x6429>
    23d8:	4a2e2e05 	bmi	b8dbf4 <__bss_end__+0xb82e44>
    23dc:	00062305 	andeq	r2, r6, r5, lsl #6
    23e0:	9f940205 	svcls	0x00940205
    23e4:	05160000 	ldreq	r0, [r6, #-0]
    23e8:	06051305 	streq	r1, [r5], -r5, lsl #6
    23ec:	05016203 	streq	r6, [r1, #-515]	; 0xfffffdfd
    23f0:	07051305 	streq	r1, [r5, -r5, lsl #6]
    23f4:	06050106 	streq	r0, [r5], -r6, lsl #2
    23f8:	05054906 	streq	r4, [r5, #-2310]	; 0xfffff6fa
    23fc:	05131415 	ldreq	r1, [r3, #-1045]	; 0xfffffbeb
    2400:	17030623 	strne	r0, [r3, -r3, lsr #12]
    2404:	03220501 			; <UNDEFINED> instruction: 0x03220501
    2408:	1c052e69 	stcne	14, cr2, [r5], {105}	; 0x69
    240c:	0e052e82 	cdpeq	14, 0, cr2, cr5, cr2, {4}
    2410:	0605052e 	streq	r0, [r5], -lr, lsr #10
    2414:	06120530 			; <UNDEFINED> instruction: 0x06120530
    2418:	052d4b01 	streq	r4, [sp, #-2817]!	; 0xfffff4ff
    241c:	132f0605 			; <UNDEFINED> instruction: 0x132f0605
    2420:	06180513 			; <UNDEFINED> instruction: 0x06180513
    2424:	05017a03 	streq	r7, [r1, #-2563]	; 0xfffff5fd
    2428:	05054a0e 	streq	r4, [r5, #-2574]	; 0xfffff5f2
    242c:	01052e34 	tsteq	r5, r4, lsr lr
    2430:	052e1403 	streq	r1, [lr, #-1027]!	; 0xfffffbfd
    2434:	2e6c0305 	cdpcs	3, 6, cr0, cr12, cr5, {0}
    2438:	062b052e 	strteq	r0, [fp], -lr, lsr #10
    243c:	ec020500 	cfstr32	mvfx0, [r2], {-0}
    2440:	0300009f 	movweq	r0, #159	; 0x9f
    2444:	05050117 	streq	r0, [r5, #-279]	; 0xfffffee9
    2448:	06070513 			; <UNDEFINED> instruction: 0x06070513
    244c:	03180501 	tsteq	r8, #4194304	; 0x400000
    2450:	2b052e71 	blcs	14de1c <__bss_end__+0x14306c>
    2454:	052e0e03 	streq	r0, [lr, #-3587]!	; 0xfffff1fd
    2458:	09052f07 	stmdbeq	r5, {r0, r1, r2, r8, r9, sl, fp, sp}
    245c:	0d052f06 	stceq	15, cr2, [r5, #-24]	; 0xffffffe8
    2460:	05016f03 	streq	r6, [r1, #-3843]	; 0xfffff0fd
    2464:	2e061305 	cdpcs	3, 0, cr1, cr6, cr5, {0}
    2468:	09052e2e 	stmdbeq	r5, {r1, r2, r3, r5, r9, sl, fp, sp}
    246c:	01120306 	tsteq	r2, r6, lsl #6
    2470:	72030d05 	andvc	r0, r3, #320	; 0x140
    2474:	13050501 	movwne	r0, #21761	; 0x5501
    2478:	052e2e06 	streq	r2, [lr, #-3590]!	; 0xfffff1fa
    247c:	1003061d 	andne	r0, r3, sp, lsl r6
    2480:	13050566 	movwne	r0, #21862	; 0x5566
    2484:	11061d05 	tstne	r6, r5, lsl #26
    2488:	0605052e 	streq	r0, [r5], -lr, lsr #10
    248c:	0e051330 	mcreq	3, 0, r1, cr5, cr0, {1}
    2490:	17051006 	strne	r1, [r5, -r6]
    2494:	02042e30 	andeq	r2, r4, #48, 28	; 0x300
    2498:	03063005 	movweq	r3, #24581	; 0x6005
    249c:	042e00dd 	strteq	r0, [lr], #-221	; 0xffffff23
    24a0:	060e0501 	streq	r0, [lr], -r1, lsl #10
    24a4:	017fa203 	cmneq	pc, r3, lsl #4
    24a8:	052f2305 	streq	r2, [pc, #-773]!	; 21ab <__code_start__-0x5e55>
    24ac:	06022f01 	streq	r2, [r2], -r1, lsl #30
    24b0:	9e010100 	adflss	f0, f1, f0
    24b4:	03000000 	movweq	r0, #0
    24b8:	00005a00 	andeq	r5, r0, r0, lsl #20
    24bc:	fb010200 	blx	42cc6 <__bss_end__+0x37f16>
    24c0:	01000d0e 	tsteq	r0, lr, lsl #26
    24c4:	00010101 	andeq	r0, r1, r1, lsl #2
    24c8:	00010000 	andeq	r0, r1, r0
    24cc:	2f2e0100 	svccs	0x002e0100
    24d0:	6362696c 	cmnvs	r2, #108, 18	; 0x1b0000
    24d4:	73552f00 	cmpvc	r5, #0, 30
    24d8:	2f737265 	svccs	0x00737265
    24dc:	656c696d 	strbvs	r6, [ip, #-2413]!	; 0xfffff693
    24e0:	6f532f73 	svcvs	0x00532f73
    24e4:	65637275 	strbvs	r7, [r3, #-629]!	; 0xfffffd8b
    24e8:	3273632f 	rsbscc	r6, r3, #-1140850688	; 0xbc000000
    24ec:	786c3034 	stmdavc	ip!, {r2, r4, r5, ip, sp}^
    24f0:	62696c2f 	rsbvs	r6, r9, #12032	; 0x2f00
    24f4:	692f6970 	stmdbvs	pc!, {r4, r5, r6, r8, fp, sp, lr}	; <UNPREDICTABLE>
    24f8:	756c636e 	strbvc	r6, [ip, #-878]!	; 0xfffffc92
    24fc:	00006564 	andeq	r6, r0, r4, ror #10
    2500:	63747570 	cmnvs	r4, #112, 10	; 0x1c000000
    2504:	2e726168 	rpwcssz	f6, f2, #0.0
    2508:	00010063 	andeq	r0, r1, r3, rrx
    250c:	69707200 	ldmdbvs	r0!, {r9, ip, sp, lr}^
    2510:	0200682e 	andeq	r6, r0, #3014656	; 0x2e0000
    2514:	05000000 	streq	r0, [r0, #-0]
    2518:	02050024 	andeq	r0, r5, #36, 0	; 0x24
    251c:	0000a044 	andeq	sl, r0, r4, asr #32
    2520:	01260514 			; <UNDEFINED> instruction: 0x01260514
    2524:	01062405 	tsteq	r6, r5, lsl #8
    2528:	2e26052e 	cfsh64cs	mvdx0, mvdx6, #30
    252c:	2e063405 	cdpcs	4, 0, cr3, cr6, cr5, {0}
    2530:	01060105 	tsteq	r6, r5, lsl #2
    2534:	4f061b05 	svcmi	0x00061b05
    2538:	05130505 	ldreq	r0, [r3, #-1285]	; 0xfffffafb
    253c:	05010611 	streq	r0, [r1, #-1553]	; 0xfffff9ef
    2540:	23056701 	movwcs	r6, #22273	; 0x5701
    2544:	05056706 	streq	r6, [r5, #-1798]	; 0xfffff8fa
    2548:	06110513 			; <UNDEFINED> instruction: 0x06110513
    254c:	4b010501 	blmi	43958 <__bss_end__+0x38ba8>
    2550:	01000402 	tsteq	r0, r2, lsl #8
    2554:	0000e201 	andeq	lr, r0, r1, lsl #4
    2558:	59000300 	stmdbpl	r0, {r8, r9}
    255c:	02000000 	andeq	r0, r0, #0, 0
    2560:	0d0efb01 	vstreq	d15, [lr, #-4]
    2564:	01010100 	mrseq	r0, (UNDEF: 17)
    2568:	00000001 	andeq	r0, r0, r1
    256c:	01000001 	tsteq	r0, r1
    2570:	696c2f2e 	stmdbvs	ip!, {r1, r2, r3, r5, r8, r9, sl, fp, sp}^
    2574:	2f006362 	svccs	0x00006362
    2578:	72657355 	rsbvc	r7, r5, #1409286145	; 0x54000001
    257c:	696d2f73 	stmdbvs	sp!, {r0, r1, r4, r5, r6, r8, r9, sl, fp, sp}^
    2580:	2f73656c 	svccs	0x0073656c
    2584:	72756f53 	rsbsvc	r6, r5, #332	; 0x14c
    2588:	632f6563 			; <UNDEFINED> instruction: 0x632f6563
    258c:	30343273 	eorscc	r3, r4, r3, ror r2
    2590:	6c2f786c 	stcvs	8, cr7, [pc], #-432	; 23e8 <__code_start__-0x5c18>
    2594:	69706269 	ldmdbvs	r0!, {r0, r3, r5, r6, r9, sp, lr}^
    2598:	636e692f 	cmnvs	lr, #770048	; 0xbc000
    259c:	6564756c 	strbvs	r7, [r4, #-1388]!	; 0xfffffa94
    25a0:	74730000 	ldrbtvc	r0, [r3], #-0
    25a4:	74616372 	strbtvc	r6, [r1], #-882	; 0xfffffc8e
    25a8:	0100632e 	tsteq	r0, lr, lsr #6
    25ac:	70720000 	rsbsvc	r0, r2, r0
    25b0:	00682e69 	rsbeq	r2, r8, r9, ror #28
    25b4:	00000002 	andeq	r0, r0, r2
    25b8:	05002c05 	streq	r2, [r0, #-3077]	; 0xfffff3fb
    25bc:	00a08002 	adceq	r8, r0, r2
    25c0:	05051500 	streq	r1, [r5, #-1280]	; 0xfffffb00
    25c4:	0b051313 	bleq	147218 <__bss_end__+0x13c468>
    25c8:	05051106 	streq	r1, [r5, #-262]	; 0xfffffefa
    25cc:	01040200 	mrseq	r0, R12_usr
    25d0:	02003006 	andeq	r3, r0, #6, 0
    25d4:	05150104 	ldreq	r0, [r5, #-260]	; 0xfffffefc
    25d8:	04020009 	streq	r0, [r2], #-9
    25dc:	0b051301 	bleq	1471e8 <__bss_end__+0x13c438>
    25e0:	01040200 	mrseq	r0, R12_usr
    25e4:	0005052f 	andeq	r0, r5, pc, lsr #10
    25e8:	06010402 	streq	r0, [r1], -r2, lsl #8
    25ec:	04020001 	streq	r0, [r2], #-1
    25f0:	4e062e01 	cdpmi	14, 0, cr2, cr6, cr1, {0}
    25f4:	01060805 	tsteq	r6, r5, lsl #16
    25f8:	02000505 	andeq	r0, r0, #20971520	; 0x1400000
    25fc:	2f060104 	svccs	0x00060104
    2600:	02000905 	andeq	r0, r0, #81920	; 0x14000
    2604:	05130104 	ldreq	r0, [r3, #-260]	; 0xfffffefc
    2608:	0402000b 	streq	r0, [r2], #-11
    260c:	05010601 	streq	r0, [r1, #-1537]	; 0xfffff9ff
    2610:	04020009 	streq	r0, [r2], #-9
    2614:	052f0601 	streq	r0, [pc, #-1537]!	; 201b <__code_start__-0x5fe5>
    2618:	04020005 	streq	r0, [r2], #-5
    261c:	05130601 	ldreq	r0, [r3, #-1537]	; 0xfffff9ff
    2620:	0402000f 	streq	r0, [r2], #-15
    2624:	0d052d01 	stceq	13, cr2, [r5, #-4]
    2628:	01040200 	mrseq	r0, R12_usr
    262c:	05052f06 	streq	r2, [r5, #-3846]	; 0xfffff0fa
    2630:	01040200 	mrseq	r0, R12_usr
    2634:	04020106 	streq	r0, [r2], #-262	; 0xfffffefa
    2638:	b2010100 	andlt	r0, r1, #0
    263c:	03000000 	movweq	r0, #0
    2640:	00005900 	andeq	r5, r0, r0, lsl #18
    2644:	fb010200 	blx	42e4e <__bss_end__+0x3809e>
    2648:	01000d0e 	tsteq	r0, lr, lsl #26
    264c:	00010101 	andeq	r0, r1, r1, lsl #2
    2650:	00010000 	andeq	r0, r1, r0
    2654:	2f2e0100 	svccs	0x002e0100
    2658:	6362696c 	cmnvs	r2, #108, 18	; 0x1b0000
    265c:	73552f00 	cmpvc	r5, #0, 30
    2660:	2f737265 	svccs	0x00737265
    2664:	656c696d 	strbvs	r6, [ip, #-2413]!	; 0xfffff693
    2668:	6f532f73 	svcvs	0x00532f73
    266c:	65637275 	strbvs	r7, [r3, #-629]!	; 0xfffffd8b
    2670:	3273632f 	rsbscc	r6, r3, #-1140850688	; 0xbc000000
    2674:	786c3034 	stmdavc	ip!, {r2, r4, r5, ip, sp}^
    2678:	62696c2f 	rsbvs	r6, r9, #12032	; 0x2f00
    267c:	692f6970 	stmdbvs	pc!, {r4, r5, r6, r8, fp, sp, lr}	; <UNPREDICTABLE>
    2680:	756c636e 	strbvc	r6, [ip, #-878]!	; 0xfffffc92
    2684:	00006564 	andeq	r6, r0, r4, ror #10
    2688:	63727473 	cmnvs	r2, #1929379840	; 0x73000000
    268c:	632e706d 			; <UNDEFINED> instruction: 0x632e706d
    2690:	00000100 	andeq	r0, r0, r0, lsl #2
    2694:	2e697072 	mcrcs	0, 3, r7, cr9, cr2, {3}
    2698:	00020068 	andeq	r0, r2, r8, rrx
    269c:	2a050000 	bcs	1426a4 <__bss_end__+0x1378f4>
    26a0:	ac020500 	cfstr32ge	mvfx0, [r2], {-0}
    26a4:	140000a0 	strne	r0, [r0], #-160	; 0xffffff60
    26a8:	05130905 	ldreq	r0, [r3, #-2309]	; 0xfffff6fb
    26ac:	05010610 	streq	r0, [r1, #-1552]	; 0xfffff9f0
    26b0:	052e060f 	streq	r0, [lr, #-1551]!	; 0xfffff9f1
    26b4:	05820610 	streq	r0, [r2, #1552]	; 0x610
    26b8:	11052e0f 	tstne	r5, pc, lsl #28
    26bc:	01040200 	mrseq	r0, R12_usr
    26c0:	1c054b06 			; <UNDEFINED> instruction: 0x1c054b06
    26c4:	01040200 	mrseq	r0, R12_usr
    26c8:	0f052d06 	svceq	0x00052d06
    26cc:	01040200 	mrseq	r0, R12_usr
    26d0:	13052e06 	movwne	r2, #24070	; 0x5e06
    26d4:	01040200 	mrseq	r0, R12_usr
    26d8:	09050106 	stmdbeq	r5, {r1, r2, r8}
    26dc:	01054c06 	tsteq	r5, r6, lsl #24
    26e0:	054a1306 	strbeq	r1, [sl, #-774]	; 0xfffffcfa
    26e4:	052d0609 	streq	r0, [sp, #-1545]!	; 0xfffff9f7
    26e8:	2e130601 	cfmsub32cs	mvax0, mvfx0, mvfx3, mvfx1
    26ec:	01000202 	tsteq	r0, r2, lsl #4
    26f0:	00009d01 	andeq	r9, r0, r1, lsl #26
    26f4:	59000300 	stmdbpl	r0, {r8, r9}
    26f8:	02000000 	andeq	r0, r0, #0, 0
    26fc:	0d0efb01 	vstreq	d15, [lr, #-4]
    2700:	01010100 	mrseq	r0, (UNDEF: 17)
    2704:	00000001 	andeq	r0, r0, r1
    2708:	01000001 	tsteq	r0, r1
    270c:	696c2f2e 	stmdbvs	ip!, {r1, r2, r3, r5, r8, r9, sl, fp, sp}^
    2710:	2f006362 	svccs	0x00006362
    2714:	72657355 	rsbvc	r7, r5, #1409286145	; 0x54000001
    2718:	696d2f73 	stmdbvs	sp!, {r0, r1, r4, r5, r6, r8, r9, sl, fp, sp}^
    271c:	2f73656c 	svccs	0x0073656c
    2720:	72756f53 	rsbsvc	r6, r5, #332	; 0x14c
    2724:	632f6563 			; <UNDEFINED> instruction: 0x632f6563
    2728:	30343273 	eorscc	r3, r4, r3, ror r2
    272c:	6c2f786c 	stcvs	8, cr7, [pc], #-432	; 2584 <__code_start__-0x5a7c>
    2730:	69706269 	ldmdbvs	r0!, {r0, r3, r5, r6, r9, sp, lr}^
    2734:	636e692f 	cmnvs	lr, #770048	; 0xbc000
    2738:	6564756c 	strbvs	r7, [r4, #-1388]!	; 0xfffffa94
    273c:	74730000 	ldrbtvc	r0, [r3], #-0
    2740:	79706372 	ldmdbvc	r0!, {r1, r4, r5, r6, r8, r9, sp, lr}^
    2744:	0100632e 	tsteq	r0, lr, lsr #6
    2748:	70720000 	rsbsvc	r0, r2, r0
    274c:	00682e69 	rsbeq	r2, r8, r9, ror #28
    2750:	00000002 	andeq	r0, r0, r2
    2754:	05002a05 	streq	r2, [r0, #-2565]	; 0xfffff5fb
    2758:	00a0f002 	adceq	pc, r0, r2
    275c:	05051400 	streq	r1, [r5, #-1024]	; 0xfffffc00
    2760:	22051313 	andcs	r1, r5, #1275068416	; 0x4c000000
    2764:	01040200 	mrseq	r0, R12_usr
    2768:	000b052e 	andeq	r0, fp, lr, lsr #10
    276c:	01010402 	tsteq	r1, r2, lsl #8
    2770:	02001505 	andeq	r1, r0, #20971520	; 0x1400000
    2774:	01060104 	tsteq	r6, r4, lsl #2
    2778:	02000b05 	andeq	r0, r0, #5120	; 0x1400
    277c:	052e0104 	streq	r0, [lr, #-260]!	; 0xfffffefc
    2780:	04020013 	streq	r0, [r2], #-19	; 0xffffffed
    2784:	0b052e01 	bleq	14df90 <__bss_end__+0x1431e0>
    2788:	01040200 	mrseq	r0, R12_usr
    278c:	0004022e 	andeq	r0, r4, lr, lsr #4
    2790:	00fd0101 	rscseq	r0, sp, r1, lsl #2
    2794:	00030000 	andeq	r0, r3, r0
    2798:	000000bf 	strheq	r0, [r0], -pc	; <UNPREDICTABLE>
    279c:	0efb0102 	cdpeq	1, 15, cr0, cr11, cr2, {0}
    27a0:	0101000d 	tsteq	r1, sp
    27a4:	00000101 	andeq	r0, r0, r1, lsl #2
    27a8:	00000100 	andeq	r0, r0, r0, lsl #2
    27ac:	6c2f2e01 	stcvs	14, cr2, [pc], #-4	; 27b0 <__code_start__-0x5850>
    27b0:	00636269 	rsbeq	r6, r3, r9, ror #4
    27b4:	6573552f 	ldrbvs	r5, [r3, #-1327]!	; 0xfffffad1
    27b8:	6d2f7372 	stcvs	3, cr7, [pc, #-456]!	; 25f8 <__code_start__-0x5a08>
    27bc:	73656c69 	cmnvc	r5, #26880	; 0x6900
    27c0:	756f532f 	strbvc	r5, [pc, #-815]!	; 2499 <__code_start__-0x5b67>
    27c4:	2f656372 	svccs	0x00656372
    27c8:	34327363 	ldrtcc	r7, [r2], #-867	; 0xfffffc9d
    27cc:	2f786c30 	svccs	0x00786c30
    27d0:	7062696c 	rsbvc	r6, r2, ip, ror #18
    27d4:	6e692f69 	cdpvs	15, 6, cr2, cr9, cr9, {3}
    27d8:	64756c63 	ldrbtvs	r6, [r5], #-3171	; 0xfffff39d
    27dc:	6f2f0065 	svcvs	0x002f0065
    27e0:	682f7470 	stmdavs	pc!, {r4, r5, r6, sl, ip, sp, lr}	; <UNPREDICTABLE>
    27e4:	62656d6f 	rsbvs	r6, r5, #7104	; 0x1bc0
    27e8:	2f776572 	svccs	0x00776572
    27ec:	6c6c6543 	cfstr64vs	mvdx6, [ip], #-268	; 0xfffffef4
    27f0:	612f7261 			; <UNDEFINED> instruction: 0x612f7261
    27f4:	6e2d6d72 	mcrvs	13, 1, r6, cr13, cr2, {3}
    27f8:	2d656e6f 	stclcs	14, cr6, [r5, #-444]!	; 0xfffffe44
    27fc:	69626165 	stmdbvs	r2!, {r0, r2, r5, r6, r8, sp, lr}^
    2800:	392f392d 	stmdbcc	pc!, {r0, r2, r3, r5, r8, fp, ip, sp}	; <UNPREDICTABLE>
    2804:	3130322d 	teqcc	r0, sp, lsr #4
    2808:	2d347139 	ldfcss	f7, [r4, #-228]!	; 0xffffff1c
    280c:	30317363 	eorscc	r7, r1, r3, ror #6
    2810:	6c2f6537 	cfstr32vs	mvfx6, [pc], #-220	; 273c <__code_start__-0x58c4>
    2814:	672f6269 	strvs	r6, [pc, -r9, ror #4]!
    2818:	612f6363 			; <UNDEFINED> instruction: 0x612f6363
    281c:	6e2d6d72 	mcrvs	13, 1, r6, cr13, cr2, {3}
    2820:	2d656e6f 	stclcs	14, cr6, [r5, #-444]!	; 0xfffffe44
    2824:	69626165 	stmdbvs	r2!, {r0, r2, r5, r6, r8, sp, lr}^
    2828:	322e392f 	eorcc	r3, lr, #770048	; 0xbc000
    282c:	692f312e 	stmdbvs	pc!, {r1, r2, r3, r5, r8, ip, sp}	; <UNPREDICTABLE>
    2830:	756c636e 	strbvc	r6, [ip, #-878]!	; 0xfffffc92
    2834:	00006564 	andeq	r6, r0, r4, ror #10
    2838:	6e727473 	mrcvs	4, 3, r7, cr2, cr3, {3}
    283c:	2e706d63 	cdpcs	13, 7, cr6, cr0, cr3, {3}
    2840:	00010063 	andeq	r0, r1, r3, rrx
    2844:	69707200 	ldmdbvs	r0!, {r9, ip, sp, lr}^
    2848:	0200682e 	andeq	r6, r0, #3014656	; 0x2e0000
    284c:	74730000 	ldrbtvc	r0, [r3], #-0
    2850:	66656464 	strbtvs	r6, [r5], -r4, ror #8
    2854:	0300682e 	movweq	r6, #2094	; 0x82e
    2858:	05000000 	streq	r0, [r0, #-0]
    285c:	02050039 	andeq	r0, r5, #57, 0	; 0x39
    2860:	0000a108 	andeq	sl, r0, r8, lsl #2
    2864:	13050515 	movwne	r0, #21781	; 0x5515
    2868:	060a0513 			; <UNDEFINED> instruction: 0x060a0513
    286c:	2f0c052e 	svccs	0x000c052e
    2870:	052e1305 	streq	r1, [lr, #-773]!	; 0xfffffcfb
    2874:	09052e0b 	stmdbeq	r5, {r0, r1, r3, r9, sl, fp, sp}
    2878:	0a054a06 	beq	155098 <__bss_end__+0x14a2e8>
    287c:	05010611 	streq	r0, [r1, #-1553]	; 0xfffff9ef
    2880:	01054e0c 	tsteq	r5, ip, lsl #28
    2884:	060d052f 	streq	r0, [sp], -pc, lsr #10
    2888:	061b052b 	ldreq	r0, [fp], -fp, lsr #10
    288c:	02022e01 	andeq	r2, r2, #1, 28
    2890:	8a010100 	bhi	42c98 <__bss_end__+0x37ee8>
    2894:	03000000 	movweq	r0, #0
    2898:	00006e00 	andeq	r6, r0, r0, lsl #28
    289c:	fb010200 	blx	430a6 <__bss_end__+0x382f6>
    28a0:	01000d0e 	tsteq	r0, lr, lsl #26
    28a4:	00010101 	andeq	r0, r1, r1, lsl #2
    28a8:	00010000 	andeq	r0, r1, r0
    28ac:	2f2e0100 	svccs	0x002e0100
    28b0:	66617473 			; <UNDEFINED> instruction: 0x66617473
    28b4:	72732d66 	rsbsvc	r2, r3, #6528	; 0x1980
    28b8:	552f0063 	strpl	r0, [pc, #-99]!	; 285d <__code_start__-0x57a3>
    28bc:	73726573 	cmnvc	r2, #482344960	; 0x1cc00000
    28c0:	6c696d2f 	stclvs	13, cr6, [r9], #-188	; 0xffffff44
    28c4:	532f7365 			; <UNDEFINED> instruction: 0x532f7365
    28c8:	6372756f 	cmnvs	r2, #465567744	; 0x1bc00000
    28cc:	73632f65 	cmnvc	r3, #404	; 0x194
    28d0:	6c303432 	cfldrsvs	mvf3, [r0], #-200	; 0xffffff38
    28d4:	696c2f78 	stmdbvs	ip!, {r3, r4, r5, r6, r8, r9, sl, fp, sp}^
    28d8:	2f697062 	svccs	0x00697062
    28dc:	6c636e69 	stclvs	14, cr6, [r3], #-420	; 0xfffffe5c
    28e0:	00656475 	rsbeq	r6, r5, r5, ror r4
    28e4:	66656400 	strbtvs	r6, [r5], -r0, lsl #8
    28e8:	746c7561 	strbtvc	r7, [ip], #-1377	; 0xfffffa9f
    28ec:	6265722d 	rsbvs	r7, r5, #-805306366	; 0xd0000002
    28f0:	2d746f6f 	ldclcs	15, cr6, [r4, #-444]!	; 0xfffffe44
    28f4:	6c6c6163 	stfvse	f6, [ip], #-396	; 0xfffffe74
    28f8:	2e74756f 	cdpcs	5, 7, cr7, cr4, cr15, {3}
    28fc:	00010063 	andeq	r0, r1, r3, rrx
    2900:	69707200 	ldmdbvs	r0!, {r9, ip, sp, lr}^
    2904:	0200682e 	andeq	r6, r0, #3014656	; 0x2e0000
    2908:	05000000 	streq	r0, [r0, #-0]
    290c:	0205001b 	andeq	r0, r5, #27, 0
    2910:	0000a138 	andeq	sl, r0, r8, lsr r1
    2914:	011c0514 	tsteq	ip, r4, lsl r5
    2918:	01060105 	tsteq	r6, r5, lsl #2
    291c:	01000202 	tsteq	r0, r2, lsl #4
    2920:	Address 0x0000000000002920 is out of bounds.


Disassembly of section .debug_str:

00000000 <.debug_str>:
   0:	7478656e 	ldrbtvc	r6, [r8], #-1390	; 0xfffffa92
   4:	63727300 	cmnvs	r2, #0, 6
   8:	636f6c5f 	cmnvs	pc, #24320	; 0x5f00
   c:	006b6d5f 	rsbeq	r6, fp, pc, asr sp
  10:	656e696c 	strbvs	r6, [lr, #-2412]!	; 0xfffff694
  14:	6e006f6e 	cdpvs	15, 0, cr6, cr0, cr14, {3}
  18:	616d746f 	cmnvs	sp, pc, ror #8
  1c:	63006e69 	movwvs	r6, #3689	; 0xe69
  20:	6b636568 	blvs	18d95c8 <__bss_end__+0x18ce818>
  24:	5f6f6e5f 	svcpl	0x006f6e5f
  28:	6b61656c 	blvs	18595e0 <__bss_end__+0x184e830>
  2c:	73657400 	cmnvc	r5, #0, 8
  30:	702f7374 	eorvc	r7, pc, r4, ror r3	; <UNPREDICTABLE>
  34:	32747261 	rsbscc	r7, r4, #268435462	; 0x10000006
  38:	7365742d 	cmnvc	r5, #754974720	; 0x2d000000
  3c:	632e3374 			; <UNDEFINED> instruction: 0x632e3374
  40:	6c696600 	stclvs	6, cr6, [r9], #-0
  44:	6e750065 	cdpvs	0, 7, cr0, cr5, cr5, {3}
  48:	6e676973 			; <UNDEFINED> instruction: 0x6e676973
  4c:	63206465 			; <UNDEFINED> instruction: 0x63206465
  50:	00726168 	rsbseq	r6, r2, r8, ror #2
  54:	726f6873 	rsbvc	r6, pc, #7536640	; 0x730000
  58:	6e752074 	mrcvs	0, 3, r2, cr5, cr4, {3}
  5c:	6e676973 			; <UNDEFINED> instruction: 0x6e676973
  60:	69206465 	stmdbvs	r0!, {r0, r2, r5, r6, sl, sp, lr}
  64:	6d00746e 	cfstrsvs	mvf7, [r0, #-440]	; 0xfffffe48
  68:	65736d65 	ldrbvs	r6, [r3, #-3429]!	; 0xfffff29b
  6c:	75660074 	strbvc	r0, [r6, #-116]!	; 0xffffff8c
  70:	5f00636e 	svcpl	0x0000636e
  74:	4e55465f 	mrcmi	6, 2, r4, cr5, cr15, {2}
  78:	4f495443 	svcmi	0x00495443
  7c:	005f5f4e 	subseq	r5, pc, lr, asr #30
  80:	6c616b63 			; <UNDEFINED> instruction: 0x6c616b63
  84:	00636f6c 	rsbeq	r6, r3, ip, ror #30
  88:	74736574 	ldrbtvc	r6, [r3], #-1396	; 0xfffffa8c
  8c:	6e6f6c00 	cdpvs	12, 6, cr6, cr15, cr0, {0}
  90:	6f6c2067 	svcvs	0x006c2067
  94:	7520676e 	strvc	r6, [r0, #-1902]!	; 0xfffff892
  98:	6769736e 	strbvs	r7, [r9, -lr, ror #6]!
  9c:	2064656e 	rsbcs	r6, r4, lr, ror #10
  a0:	00746e69 	rsbseq	r6, r4, r9, ror #28
  a4:	676e6f6c 	strbvs	r6, [lr, -ip, ror #30]!
  a8:	6e6f6c20 	cdpvs	12, 6, cr6, cr15, cr0, {1}
  ac:	6e692067 	cdpvs	0, 6, cr2, cr9, cr7, {3}
  b0:	552f0074 	strpl	r0, [pc, #-116]!	; 44 <__code_start__-0x7fbc>
  b4:	73726573 	cmnvc	r2, #482344960	; 0x1cc00000
  b8:	6c696d2f 	stclvs	13, cr6, [r9], #-188	; 0xffffff44
  bc:	532f7365 			; <UNDEFINED> instruction: 0x532f7365
  c0:	6372756f 	cmnvs	r2, #465567744	; 0x1bc00000
  c4:	73632f65 	cmnvc	r3, #404	; 0x194
  c8:	6c303432 	cfldrsvs	mvf3, [r0], #-200	; 0xffffff38
  cc:	616c2f78 	smcvs	49912	; 0xc2f8
  d0:	352f7362 	strcc	r7, [pc, #-866]!	; fffffd76 <__bss_end__+0xffff4fc6>
  d4:	6c616d2d 	stclvs	13, cr6, [r1], #-180	; 0xffffff4c
  d8:	2b636f6c 	blcs	18dbe90 <__bss_end__+0x18d10e0>
  dc:	632f6367 			; <UNDEFINED> instruction: 0x632f6367
  e0:	0065646f 	rsbeq	r6, r5, pc, ror #8
  e4:	726f6873 	rsbvc	r6, pc, #7536640	; 0x730000
  e8:	6e692074 	mcrvs	0, 3, r2, cr9, cr4, {3}
  ec:	72730074 	rsbsvc	r0, r3, #116, 0	; 0x74
  f0:	6f6c5f63 	svcvs	0x006c5f63
  f4:	00745f63 	rsbseq	r5, r4, r3, ror #30
  f8:	5f697072 	svcpl	0x00697072
  fc:	63747570 	cmnvs	r4, #112, 10	; 0x1c000000
 100:	00726168 	rsbseq	r6, r2, r8, ror #2
 104:	20554e47 	subscs	r4, r5, r7, asr #28
 108:	20393943 	eorscs	r3, r9, r3, asr #18
 10c:	2e322e39 	mrccs	14, 1, r2, cr2, cr9, {1}
 110:	30322031 	eorscc	r2, r2, r1, lsr r0
 114:	30313931 	eorscc	r3, r1, r1, lsr r9
 118:	28203532 	stmdacs	r0!, {r1, r4, r5, r8, sl, ip, sp}
 11c:	656c6572 	strbvs	r6, [ip, #-1394]!	; 0xfffffa8e
 120:	29657361 	stmdbcs	r5!, {r0, r5, r6, r8, r9, ip, sp, lr}^
 124:	52415b20 	subpl	r5, r1, #32, 22	; 0x8000
 128:	72612f4d 	rsbvc	r2, r1, #308	; 0x134
 12c:	2d392d6d 	ldccs	13, cr2, [r9, #-436]!	; 0xfffffe4c
 130:	6e617262 	cdpvs	2, 6, cr7, cr1, cr2, {3}
 134:	72206863 	eorvc	r6, r0, #6488064	; 0x630000
 138:	73697665 	cmnvc	r9, #105906176	; 0x6500000
 13c:	206e6f69 	rsbcs	r6, lr, r9, ror #30
 140:	35373732 	ldrcc	r3, [r7, #-1842]!	; 0xfffff8ce
 144:	205d3939 	subscs	r3, sp, r9, lsr r9
 148:	70636d2d 	rsbvc	r6, r3, sp, lsr #26
 14c:	72613d75 	rsbvc	r3, r1, #7488	; 0x1d40
 150:	3731316d 	ldrcc	r3, [r1, -sp, ror #2]!
 154:	667a6a36 			; <UNDEFINED> instruction: 0x667a6a36
 158:	2d20732d 	stccs	3, cr7, [r0, #-180]!	; 0xffffff4c
 15c:	6e75746d 	cdpvs	4, 7, cr7, cr5, cr13, {3}
 160:	72613d65 	rsbvc	r3, r1, #6464	; 0x1940
 164:	3731316d 	ldrcc	r3, [r1, -sp, ror #2]!
 168:	667a6a36 			; <UNDEFINED> instruction: 0x667a6a36
 16c:	2d20732d 	stccs	3, cr7, [r0, #-180]!	; 0xffffff4c
 170:	6f6c666d 	svcvs	0x006c666d
 174:	612d7461 			; <UNDEFINED> instruction: 0x612d7461
 178:	733d6962 	teqvc	sp, #1605632	; 0x188000
 17c:	2074666f 	rsbscs	r6, r4, pc, ror #12
 180:	72616d2d 	rsbvc	r6, r1, #2880	; 0xb40
 184:	6d2d206d 	stcvs	0, cr2, [sp, #-436]!	; 0xfffffe4c
 188:	68637261 	stmdavs	r3!, {r0, r5, r6, r9, ip, sp, lr}^
 18c:	6d72613d 	ldfvse	f6, [r2, #-244]!	; 0xffffff0c
 190:	7a6b3676 	bvc	1acdb70 <__bss_end__+0x1ac2dc0>
 194:	67672d20 	strbvs	r2, [r7, -r0, lsr #26]!
 198:	2d206264 	sfmcs	f6, 4, [r0, #-400]!	; 0xfffffe70
 19c:	2d20674f 	stccs	7, cr6, [r0, #-316]!	; 0xfffffec4
 1a0:	3d647473 	cfstrdcc	mvd7, [r4, #-460]!	; 0xfffffe34
 1a4:	39756e67 	ldmdbcc	r5!, {r0, r1, r2, r5, r6, r9, sl, fp, sp, lr}^
 1a8:	662d2039 			; <UNDEFINED> instruction: 0x662d2039
 1ac:	65657266 	strbvs	r7, [r5, #-614]!	; 0xfffffd9a
 1b0:	6e617473 	mcrvs	4, 3, r7, cr1, cr3, {3}
 1b4:	676e6964 	strbvs	r6, [lr, -r4, ror #18]!
 1b8:	5f6b6300 	svcpl	0x006b6300
 1bc:	5f727470 	svcpl	0x00727470
 1c0:	625f6e69 	subsvs	r6, pc, #1680	; 0x690
 1c4:	6b636f6c 	blvs	18dbf7c <__bss_end__+0x18d11cc>
 1c8:	72646800 	rsbvc	r6, r4, #0, 16
 1cc:	4600745f 			; <UNDEFINED> instruction: 0x4600745f
 1d0:	44454552 	strbmi	r4, [r5], #-1362	; 0xfffffaae
 1d4:	66657200 	strbtvs	r7, [r5], -r0, lsl #4
 1d8:	696d5f73 	stmdbvs	sp!, {r0, r1, r4, r5, r6, r8, r9, sl, fp, ip, lr}^
 1dc:	656c6464 	strbvs	r6, [ip, #-1124]!	; 0xfffffb9c
 1e0:	5f726b00 	svcpl	0x00726b00
 1e4:	65657266 	strbvs	r7, [r5, #-614]!	; 0xfffffd9a
 1e8:	5f6b6300 	svcpl	0x006b6300
 1ec:	73726966 	cmnvc	r2, #1671168	; 0x198000
 1f0:	64685f74 	strbtvs	r5, [r8], #-3956	; 0xfffff08c
 1f4:	6b630072 	blvs	18c03c4 <__bss_end__+0x18b5614>
 1f8:	65657266 	strbvs	r7, [r5, #-614]!	; 0xfffffd9a
 1fc:	6c6c6100 	stfvse	f6, [ip], #-0
 200:	6c5f636f 	mrrcvs	3, 6, r6, pc, cr15	; <UNPREDICTABLE>
 204:	00747369 	rsbseq	r7, r4, r9, ror #6
 208:	7473696c 	ldrbtvc	r6, [r3], #-2412	; 0xfffff694
 20c:	6d65725f 	sfmvs	f7, 2, [r5, #-380]!	; 0xfffffe84
 210:	0065766f 	rsbeq	r7, r5, pc, ror #12
 214:	685f6b63 	ldmdavs	pc, {r0, r1, r5, r6, r8, r9, fp, sp, lr}^	; <UNPREDICTABLE>
 218:	61007264 	tstvs	r0, r4, ror #4
 21c:	636f6c6c 	cmnvs	pc, #108, 24	; 0x6c00
 220:	636f6c5f 	cmnvs	pc, #24320	; 0x5f00
 224:	656c6300 	strbvs	r6, [ip, #-768]!	; 0xfffffd00
 228:	725f6e61 	subsvc	r6, pc, #1552	; 0x610
 22c:	6f6f6265 	svcvs	0x006f6265
 230:	74730074 	ldrbtvc	r0, [r3], #-116	; 0xffffff8c
 234:	00657461 	rsbeq	r7, r5, r1, ror #8
 238:	73666572 	cmnvc	r6, #478150656	; 0x1c800000
 23c:	6174735f 	cmnvs	r4, pc, asr r3
 240:	75007472 	strvc	r7, [r0, #-1138]	; 0xfffffb8e
 244:	33746e69 	cmncc	r4, #1680	; 0x690
 248:	00745f32 	rsbseq	r5, r4, r2, lsr pc
 24c:	746e6975 	strbtvc	r6, [lr], #-2421	; 0xfffff68b
 250:	745f3631 	ldrbvc	r3, [pc], #-1585	; 258 <__code_start__-0x7da8>
 254:	5f6b6300 	svcpl	0x006b6300
 258:	5f727470 	svcpl	0x00727470
 25c:	615f7369 	cmpvs	pc, r9, ror #6
 260:	636f6c6c 	cmnvs	pc, #108, 24	; 0x6c00
 264:	63006465 	movwvs	r6, #1125	; 0x465
 268:	656e5f6b 	strbvs	r5, [lr, #-3947]!	; 0xfffff095
 26c:	685f7478 	ldmdavs	pc, {r3, r4, r5, r6, sl, ip, sp, lr}^	; <UNPREDICTABLE>
 270:	63007264 	movwvs	r7, #612	; 0x264
 274:	6c6c616b 	stfvse	f6, [ip], #-428	; 0xfffffe54
 278:	632e636f 			; <UNDEFINED> instruction: 0x632e636f
 27c:	4c4c4100 	stfmie	f4, [ip], {-0}
 280:	4445434f 	strbmi	r4, [r5], #-847	; 0xfffffcb1
 284:	79626e00 	stmdbvc	r2!, {r9, sl, fp, sp, lr}^
 288:	5f736574 	svcpl	0x00736574
 28c:	6f6c6c61 	svcvs	0x006c6c61
 290:	6b630063 	blvs	18c0424 <__bss_end__+0x18b5674>
 294:	7264685f 	rsbvc	r6, r4, #6225920	; 0x5f0000
 298:	6174735f 	cmnvs	r4, pc, asr r3
 29c:	63007472 	movwvs	r7, #1138	; 0x472
 2a0:	64685f6b 	strbtvs	r5, [r8], #-3947	; 0xfffff095
 2a4:	6e655f72 	mcrvs	15, 3, r5, cr5, cr2, {3}
 2a8:	72700064 	rsbsvc	r0, r0, #100, 0	; 0x64
 2ac:	63007665 	movwvs	r7, #1637	; 0x665
 2b0:	626e5f6b 	rsbvs	r5, lr, #428	; 0x1ac
 2b4:	73657479 	cmnvc	r5, #2030043136	; 0x79000000
 2b8:	5f726b00 	svcpl	0x00726b00
 2bc:	6c6c616d 	stfvse	f6, [ip], #-436	; 0xfffffe4c
 2c0:	6800636f 	stmdavs	r0, {r0, r1, r2, r3, r5, r6, r8, r9, sp, lr}
 2c4:	65646165 	strbvs	r6, [r4, #-357]!	; 0xfffffe9b
 2c8:	72700072 	rsbsvc	r0, r0, #114, 0	; 0x72
 2cc:	00707665 	rsbseq	r7, r0, r5, ror #12
 2d0:	67696c61 	strbvs	r6, [r9, -r1, ror #24]!
 2d4:	7266006e 	rsbvc	r0, r6, #110, 0	; 0x6e
 2d8:	00706565 	rsbseq	r6, r0, r5, ror #10
 2dc:	696e756e 	stmdbvs	lr!, {r1, r2, r3, r5, r6, r8, sl, ip, sp, lr}^
 2e0:	6b007374 	blvs	1d0b8 <__bss_end__+0x12308>
 2e4:	616d2d72 	smcvs	53970	; 0xd2d2
 2e8:	636f6c6c 	cmnvs	pc, #108, 24	; 0x6c00
 2ec:	6400632e 	strvs	r6, [r0], #-814	; 0xfffffcd2
 2f0:	6c62756f 	cfstr64vs	mvdx7, [r2], #-444	; 0xfffffe44
 2f4:	61620065 	cmnvs	r2, r5, rrx
 2f8:	73006573 	movwvc	r6, #1395	; 0x573
 2fc:	006b7262 	rsbeq	r7, fp, r2, ror #4
 300:	65726f6d 	ldrbvs	r6, [r2, #-3949]!	; 0xfffff093
 304:	65726f63 	ldrbvs	r6, [r2, #-3939]!	; 0xfffff09d
 308:	7a697300 	bvc	1a5cf10 <__bss_end__+0x1a52160>
 30c:	65480065 	strbvs	r0, [r8, #-101]	; 0xffffff9b
 310:	72656461 	rsbvc	r6, r5, #1627389952	; 0x61000000
 314:	61747300 	cmnvs	r4, r0, lsl #6
 318:	745f6b63 	ldrbvc	r6, [pc], #-2915	; 320 <__code_start__-0x7ce0>
 31c:	6d00706f 	stcvs	0, cr7, [r0, #-444]	; 0xfffffe44
 320:	5f6b7261 	svcpl	0x006b7261
 324:	006c6c61 	rsbeq	r6, ip, r1, ror #24
 328:	6c706d69 	ldclvs	13, cr6, [r0], #-420	; 0xfffffe5c
 32c:	6e656d65 	cdpvs	13, 6, cr6, cr5, cr5, {3}
 330:	68745f74 	ldmdavs	r4!, {r2, r4, r5, r6, r8, r9, sl, fp, ip, lr}^
 334:	5f007369 	svcpl	0x00007369
 338:	7373625f 	cmnvc	r3, #-268435451	; 0xf0000005
 33c:	6174735f 	cmnvs	r4, pc, asr r3
 340:	5f5f7472 	svcpl	0x005f7472
 344:	6c626e00 	stclvs	14, cr6, [r2], #-0
 348:	736b636f 	cmnvc	fp, #-1140850687	; 0xbc000001
 34c:	696e6900 	stmdbvs	lr!, {r8, fp, sp, lr}^
 350:	00705f74 	rsbseq	r5, r0, r4, ror pc
 354:	7479626e 	ldrbtvc	r6, [r9], #-622	; 0xfffffd92
 358:	665f7365 	ldrbvs	r7, [pc], -r5, ror #6
 35c:	64656572 	strbtvs	r6, [r5], #-1394	; 0xfffffa8e
 360:	646c6f00 	strbtvs	r6, [ip], #-3840	; 0xfffff100
 364:	72616d5f 	rsbvc	r6, r1, #6080	; 0x17c0
 368:	6b63006b 	blvs	18c051c <__bss_end__+0x18b576c>
 36c:	6e69665f 	mcrvs	6, 3, r6, cr9, cr15, {2}
 370:	656c5f64 	strbvs	r5, [ip, #-3940]!	; 0xfffff09c
 374:	00736b61 	rsbseq	r6, r3, r1, ror #22
 378:	6279616d 	rsbsvs	r6, r9, #1073741851	; 0x4000001b
 37c:	72655f65 	rsbvc	r5, r5, #404	; 0x194
 380:	73726f72 	cmnvc	r2, #456	; 0x1c8
 384:	5f6b6300 	svcpl	0x006b6300
 388:	64006367 	strvs	r6, [r0], #-871	; 0xfffffc99
 38c:	5f706d75 	svcpl	0x00706d75
 390:	73676572 	cmnvc	r7, #478150656	; 0x1c800000
 394:	656c6e00 	strbvs	r6, [ip, #-3584]!	; 0xfffff200
 398:	00736b61 	rsbseq	r6, r3, r1, ror #22
 39c:	72636e69 	rsbvc	r6, r3, #1680	; 0x690
 3a0:	6e656d65 	cdpvs	13, 6, cr6, cr5, cr5, {3}
 3a4:	5f5f0074 	svcpl	0x005f0074
 3a8:	61746164 	cmnvs	r4, r4, ror #2
 3ac:	646e655f 	strbtvs	r6, [lr], #-1375	; 0xfffffaa1
 3b0:	69005f5f 	stmdbvs	r0, {r0, r1, r2, r3, r4, r6, r8, r9, sl, fp, ip, lr}
 3b4:	74705f73 	ldrbtvc	r5, [r0], #-3955	; 0xfffff08d
 3b8:	666e0072 			; <UNDEFINED> instruction: 0x666e0072
 3bc:	64656572 	strbtvs	r6, [r5], #-1394	; 0xfffffa8e
 3c0:	5f6e6900 	svcpl	0x006e6900
 3c4:	70616568 	rsbvc	r6, r1, r8, ror #10
 3c8:	656e6f00 	strbvs	r6, [lr, #-3840]!	; 0xfffff100
 3cc:	6300626d 	movwvs	r6, #621	; 0x26d
 3d0:	63672d6b 	cmnvs	r7, #6848	; 0x1ac0
 3d4:	6300632e 	movwvs	r6, #814	; 0x32e
 3d8:	6b636568 	blvs	18d9980 <__bss_end__+0x18cebd0>
 3dc:	6f68735f 	svcvs	0x0068735f
 3e0:	5f646c75 	svcpl	0x00646c75
 3e4:	6b61656c 	blvs	185999c <__bss_end__+0x184ebec>
 3e8:	625f5f00 	subsvs	r5, pc, #0, 30
 3ec:	655f7373 	ldrbvs	r7, [pc, #-883]	; 81 <__code_start__-0x7f7f>
 3f0:	5f5f646e 	svcpl	0x005f646e
 3f4:	616d6b00 	cmnvs	sp, r0, lsl #22
 3f8:	636f6c6c 	cmnvs	pc, #108, 24	; 0x6c00
 3fc:	616d6b00 	cmnvs	sp, r0, lsl #22
 400:	636f6c6c 	cmnvs	pc, #108, 24	; 0x6c00
 404:	696e695f 	stmdbvs	lr!, {r0, r1, r2, r3, r4, r6, r8, fp, sp, lr}^
 408:	65735f74 	ldrbvs	r5, [r3, #-3956]!	; 0xfffff08c
 40c:	74735f74 	ldrbtvc	r5, [r3], #-3956	; 0xfffff08c
 410:	00747261 	rsbseq	r7, r4, r1, ror #4
 414:	65657773 	strbvs	r7, [r5, #-1907]!	; 0xfffff88d
 418:	656c5f70 	strbvs	r5, [ip, #-3952]!	; 0xfffff090
 41c:	5f006b61 	svcpl	0x00006b61
 420:	7461645f 	strbtvc	r6, [r1], #-1119	; 0xfffffba1
 424:	74735f61 	ldrbtvc	r5, [r3], #-3937	; 0xfffff09f
 428:	5f747261 	svcpl	0x00747261
 42c:	7773005f 			; <UNDEFINED> instruction: 0x7773005f
 430:	5f706565 	svcpl	0x00706565
 434:	65657266 	strbvs	r7, [r5, #-614]!	; 0xfffffd9a
 438:	72617700 	rsbvc	r7, r1, #0, 14
 43c:	6f6e5f6e 	svcvs	0x006e5f6e
 440:	6174735f 	cmnvs	r4, pc, asr r3
 444:	725f7472 	subsvc	r7, pc, #1912602624	; 0x72000000
 448:	705f6665 	subsvc	r6, pc, r5, ror #12
 44c:	7a697300 	bvc	1a5d054 <__bss_end__+0x1a522a4>
 450:	00745f65 	rsbseq	r5, r4, r5, ror #30
 454:	696c2f2e 	stmdbvs	ip!, {r1, r2, r3, r5, r8, r9, sl, fp, sp}^
 458:	6d2f6362 	stcvs	3, cr6, [pc, #-392]!	; 2d8 <__code_start__-0x7d28>
 45c:	65736d65 	ldrbvs	r6, [r3, #-3429]!	; 0xfffff29b
 460:	00632e74 	rsbeq	r2, r3, r4, ror lr
 464:	20554e47 	subscs	r4, r5, r7, asr #28
 468:	20393943 	eorscs	r3, r9, r3, asr #18
 46c:	2e322e39 	mrccs	14, 1, r2, cr2, cr9, {1}
 470:	30322031 	eorscc	r2, r2, r1, lsr r0
 474:	30313931 	eorscc	r3, r1, r1, lsr r9
 478:	28203532 	stmdacs	r0!, {r1, r4, r5, r8, sl, ip, sp}
 47c:	656c6572 	strbvs	r6, [ip, #-1394]!	; 0xfffffa8e
 480:	29657361 	stmdbcs	r5!, {r0, r5, r6, r8, r9, ip, sp, lr}^
 484:	52415b20 	subpl	r5, r1, #32, 22	; 0x8000
 488:	72612f4d 	rsbvc	r2, r1, #308	; 0x134
 48c:	2d392d6d 	ldccs	13, cr2, [r9, #-436]!	; 0xfffffe4c
 490:	6e617262 	cdpvs	2, 6, cr7, cr1, cr2, {3}
 494:	72206863 	eorvc	r6, r0, #6488064	; 0x630000
 498:	73697665 	cmnvc	r9, #105906176	; 0x6500000
 49c:	206e6f69 	rsbcs	r6, lr, r9, ror #30
 4a0:	35373732 	ldrcc	r3, [r7, #-1842]!	; 0xfffff8ce
 4a4:	205d3939 	subscs	r3, sp, r9, lsr r9
 4a8:	70636d2d 	rsbvc	r6, r3, sp, lsr #26
 4ac:	72613d75 	rsbvc	r3, r1, #7488	; 0x1d40
 4b0:	3731316d 	ldrcc	r3, [r1, -sp, ror #2]!
 4b4:	667a6a36 			; <UNDEFINED> instruction: 0x667a6a36
 4b8:	2d20732d 	stccs	3, cr7, [r0, #-180]!	; 0xffffff4c
 4bc:	6e75746d 	cdpvs	4, 7, cr7, cr5, cr13, {3}
 4c0:	72613d65 	rsbvc	r3, r1, #6464	; 0x1940
 4c4:	3731316d 	ldrcc	r3, [r1, -sp, ror #2]!
 4c8:	667a6a36 			; <UNDEFINED> instruction: 0x667a6a36
 4cc:	2d20732d 	stccs	3, cr7, [r0, #-180]!	; 0xffffff4c
 4d0:	6f6c666d 	svcvs	0x006c666d
 4d4:	612d7461 			; <UNDEFINED> instruction: 0x612d7461
 4d8:	733d6962 	teqvc	sp, #1605632	; 0x188000
 4dc:	2074666f 	rsbscs	r6, r4, pc, ror #12
 4e0:	72616d2d 	rsbvc	r6, r1, #2880	; 0xb40
 4e4:	6d2d206d 	stcvs	0, cr2, [sp, #-436]!	; 0xfffffe4c
 4e8:	68637261 	stmdavs	r3!, {r0, r5, r6, r9, ip, sp, lr}^
 4ec:	6d72613d 	ldfvse	f6, [r2, #-244]!	; 0xffffff0c
 4f0:	7a6b3676 	bvc	1acded0 <__bss_end__+0x1ac3120>
 4f4:	67672d20 	strbvs	r2, [r7, -r0, lsr #26]!
 4f8:	2d206264 	sfmcs	f6, 4, [r0, #-400]!	; 0xfffffe70
 4fc:	7361664f 	cmnvc	r1, #82837504	; 0x4f00000
 500:	732d2074 			; <UNDEFINED> instruction: 0x732d2074
 504:	673d6474 			; <UNDEFINED> instruction: 0x673d6474
 508:	3939756e 	ldmdbcc	r9!, {r1, r2, r3, r5, r6, r8, sl, ip, sp, lr}
 50c:	66662d20 	strbtvs	r2, [r6], -r0, lsr #26
 510:	73656572 	cmnvc	r5, #478150656	; 0x1c800000
 514:	646e6174 	strbtvs	r6, [lr], #-372	; 0xfffffe8c
 518:	00676e69 	rsbeq	r6, r7, r9, ror #28
 51c:	6573552f 	ldrbvs	r5, [r3, #-1327]!	; 0xfffffad1
 520:	6d2f7372 	stcvs	3, cr7, [pc, #-456]!	; 360 <__code_start__-0x7ca0>
 524:	73656c69 	cmnvc	r5, #26880	; 0x6900
 528:	756f532f 	strbvc	r5, [pc, #-815]!	; 201 <__code_start__-0x7dff>
 52c:	2f656372 	svccs	0x00656372
 530:	34327363 	ldrtcc	r7, [r2], #-867	; 0xfffffc9d
 534:	2f786c30 	svccs	0x00786c30
 538:	7062696c 	rsbvc	r6, r2, ip, ror #18
 53c:	72610069 	rsbvc	r0, r1, #105, 0	; 0x69
 540:	76007367 	strvc	r7, [r0], -r7, ror #6
 544:	72705f61 	rsbsvc	r5, r0, #388	; 0x184
 548:	6b746e69 	blvs	1d1bef4 <__bss_end__+0x1d11144>
 54c:	675f5f00 	ldrbvs	r5, [pc, -r0, lsl #30]
 550:	5f63756e 	svcpl	0x0063756e
 554:	6c5f6176 	ldfvse	f6, [pc], {118}	; 0x76
 558:	00747369 	rsbseq	r7, r4, r9, ror #6
 55c:	70615f5f 	rsbvc	r5, r1, pc, asr pc
 560:	6c2f2e00 	stcvs	14, cr2, [pc], #-0	; 568 <__code_start__-0x7a98>
 564:	2f636269 	svccs	0x00636269
 568:	6e697270 	mcrvs	2, 3, r7, cr9, cr0, {3}
 56c:	632e6b74 			; <UNDEFINED> instruction: 0x632e6b74
 570:	765f5f00 	ldrbvc	r5, [pc], -r0, lsl #30
 574:	696c5f61 	stmdbvs	ip!, {r0, r5, r6, r8, r9, sl, fp, ip, lr}^
 578:	69007473 	stmdbvs	r0, {r0, r1, r4, r5, r6, sl, ip, sp, lr}
 57c:	7265746e 	rsbvc	r7, r5, #1845493760	; 0x6e000000
 580:	5f6c616e 	svcpl	0x006c616e
 584:	6b747570 	blvs	1d1db4c <__bss_end__+0x1d12d9c>
 588:	6c2f2e00 	stcvs	14, cr2, [pc], #-0	; 590 <__code_start__-0x7a70>
 58c:	2f636269 	svccs	0x00636269
 590:	6b747570 	blvs	1d1db58 <__bss_end__+0x1d12da8>
 594:	6900632e 	stmdbvs	r0, {r1, r2, r3, r5, r8, r9, sp, lr}
 598:	67696473 			; <UNDEFINED> instruction: 0x67696473
 59c:	75007469 	strvc	r7, [r0, #-1129]	; 0xfffffb97
 5a0:	36746e69 	ldrbtcc	r6, [r4], -r9, ror #28
 5a4:	00745f34 	rsbseq	r5, r4, r4, lsr pc
 5a8:	696c2f2e 	stmdbvs	ip!, {r1, r2, r3, r5, r8, r9, sl, fp, sp}^
 5ac:	762f6362 	strtvc	r6, [pc], -r2, ror #6
 5b0:	72702d61 	rsbsvc	r2, r0, #6208	; 0x1840
 5b4:	6b746e69 	blvs	1d1bf60 <__bss_end__+0x1d111b0>
 5b8:	5f00632e 	svcpl	0x0000632e
 5bc:	646f635f 	strbtvs	r6, [pc], #-863	; 5c4 <__code_start__-0x7a3c>
 5c0:	74735f65 	ldrbtvc	r5, [r3], #-3941	; 0xfffff09b
 5c4:	5f747261 	svcpl	0x00747261
 5c8:	6977005f 	ldmdbvs	r7!, {r0, r1, r2, r3, r4, r6}^
 5cc:	00687464 	rsbeq	r7, r8, r4, ror #8
 5d0:	63747570 	cmnvs	r4, #112, 10	; 0x1c000000
 5d4:	0070665f 	rsbseq	r6, r0, pc, asr r6
 5d8:	65685f5f 	strbvs	r5, [r8, #-3935]!	; 0xfffff0a1
 5dc:	735f7061 	cmpvc	pc, #97, 0	; 0x61
 5e0:	74726174 	ldrbtvc	r6, [r2], #-372	; 0xfffffe8c
 5e4:	72005f5f 	andvc	r5, r0, #380	; 0x17c
 5e8:	735f6970 	cmpvc	pc, #112, 18	; 0x1c0000
 5ec:	6f5f7465 	svcvs	0x005f7465
 5f0:	75707475 	ldrbvc	r7, [r0, #-1141]!	; 0xfffffb8b
 5f4:	6d660074 	stclvs	0, cr0, [r6, #-464]!	; 0xfffffe30
 5f8:	74735f74 	ldrbtvc	r5, [r3], #-3956	; 0xfffff08c
 5fc:	00747261 	rsbseq	r7, r4, r1, ror #4
 600:	63727473 	cmnvs	r2, #1929379840	; 0x73000000
 604:	73007461 	movwvc	r7, #1121	; 0x461
 608:	70637274 	rsbvc	r7, r3, r4, ror r2
 60c:	656e0079 	strbvs	r0, [lr, #-121]!	; 0xffffff87
 610:	00705f67 	rsbseq	r5, r0, r7, ror #30
 614:	6f635f5f 	svcvs	0x00635f5f
 618:	655f6564 	ldrbvs	r6, [pc, #-1380]	; bc <__code_start__-0x7f44>
 61c:	5f5f646e 	svcpl	0x005f646e
 620:	696d6500 	stmdbvs	sp!, {r8, sl, sp, lr}^
 624:	65720074 	ldrbvs	r0, [r2, #-116]!	; 0xffffff8c
 628:	73726576 	cmnvc	r2, #494927872	; 0x1d800000
 62c:	74730065 	ldrbtvc	r0, [r3], #-101	; 0xffffff9b
 630:	706d6372 	rsbvc	r6, sp, r2, ror r3
 634:	74757000 	ldrbtvc	r7, [r5], #-0
 638:	70665f73 	rsbvc	r5, r6, r3, ror pc
 63c:	705f5f00 	subsvc	r5, pc, r0, lsl #30
 640:	5f676f72 	svcpl	0x00676f72
 644:	5f646e65 	svcpl	0x00646e65
 648:	756e005f 	strbvc	r0, [lr, #-95]!	; 0xffffffa1
 64c:	7300316d 	movwvc	r3, #365	; 0x16d
 650:	636e7274 	cmnvs	lr, #116, 4	; 0x40000007
 654:	7300706d 	movwvc	r7, #109	; 0x6d
 658:	656e6769 	strbvs	r6, [lr, #-1897]!	; 0xfffff897
 65c:	00705f64 	rsbseq	r5, r0, r4, ror #30
 660:	5f697072 	svcpl	0x00697072
 664:	6f626572 	svcvs	0x00626572
 668:	6400746f 	strvs	r7, [r0], #-1135	; 0xfffffb91
 66c:	79616c65 	stmdbvc	r1!, {r0, r2, r5, r6, sl, fp, sp, lr}^
 670:	00736d5f 	rsbseq	r6, r3, pc, asr sp
 674:	74732f2e 	ldrbtvc	r2, [r3], #-3886	; 0xfffff0d2
 678:	2d666661 	stclcs	6, cr6, [r6, #-388]!	; 0xfffffe7c
 67c:	2f637273 	svccs	0x00637273
 680:	61656c63 	cmnvs	r5, r3, ror #24
 684:	65722d6e 	ldrbvs	r2, [r2, #-3438]!	; 0xfffff292
 688:	746f6f62 	strbtvc	r6, [pc], #-3938	; 690 <__code_start__-0x7970>
 68c:	7500632e 	strvc	r6, [r0, #-814]	; 0xfffffcd2
 690:	5f747261 	svcpl	0x00747261
 694:	73756c66 	cmnvc	r5, #26112	; 0x6600
 698:	78745f68 	ldmdavc	r4!, {r3, r5, r6, r8, r9, sl, fp, ip, lr}^
 69c:	73635f00 	cmnvc	r3, #0, 30
 6a0:	74726174 	ldrbtvc	r6, [r2], #-372	; 0xfffffe8c
 6a4:	73736200 	cmnvc	r3, #0, 4
 6a8:	646e655f 	strbtvs	r6, [lr], #-1375	; 0xfffffaa1
 6ac:	72617500 	rsbvc	r7, r1, #0, 10
 6b0:	6e695f74 	mcrvs	15, 3, r5, cr9, cr4, {3}
 6b4:	63007469 	movwvs	r7, #1129	; 0x469
 6b8:	6f747375 	svcvs	0x00747375
 6bc:	6f6c5f6d 	svcvs	0x006c5f6d
 6c0:	72656461 	rsbvc	r6, r5, #1627389952	; 0x61000000
 6c4:	732f2e00 			; <UNDEFINED> instruction: 0x732f2e00
 6c8:	66666174 			; <UNDEFINED> instruction: 0x66666174
 6cc:	6372732d 	cmnvs	r2, #-1275068416	; 0xb4000000
 6d0:	7473632f 	ldrbtvc	r6, [r3], #-815	; 0xfffffcd1
 6d4:	2e747261 	cdpcs	2, 7, cr7, cr4, cr1, {3}
 6d8:	2f2e0063 	svccs	0x002e0063
 6dc:	66617473 			; <UNDEFINED> instruction: 0x66617473
 6e0:	72732d66 	rsbsvc	r2, r3, #6528	; 0x1980
 6e4:	75632f63 	strbvc	r2, [r3, #-3939]!	; 0xfffff09d
 6e8:	6d6f7473 	cfstrdvs	mvd7, [pc, #-460]!	; 524 <__code_start__-0x7adc>
 6ec:	616f6c2d 	cmnvs	pc, sp, lsr #24
 6f0:	2e726564 	cdpcs	5, 7, cr6, cr2, cr4, {3}
 6f4:	65720063 	ldrbvs	r0, [r2, #-99]!	; 0xffffff9d
 6f8:	746f6f62 	strbtvc	r6, [pc], #-3938	; 700 <__code_start__-0x7900>
 6fc:	6c61635f 	stclvs	3, cr6, [r1], #-380	; 0xfffffe84
 700:	74756f6c 	ldrbtvc	r6, [r5], #-3948	; 0xfffff094
 704:	5f4d5000 	svcpl	0x004d5000
 708:	474f4457 	smlsldmi	r4, pc, r7, r4	; <UNPREDICTABLE>
 70c:	54555000 	ldrbpl	r5, [r5], #-0
 710:	73003233 	movwvc	r3, #563	; 0x233
 714:	755f7465 	ldrbvc	r7, [pc, #-1125]	; 2b7 <__code_start__-0x7d49>
 718:	5f726573 	svcpl	0x00726573
 71c:	6576656c 	ldrbvs	r6, [r6, #-1388]!	; 0xfffffa94
 720:	2f2e006c 	svccs	0x002e006c
 724:	66617473 			; <UNDEFINED> instruction: 0x66617473
 728:	72732d66 	rsbsvc	r2, r3, #6528	; 0x1980
 72c:	65722f63 	ldrbvs	r2, [r2, #-3939]!	; 0xfffff09d
 730:	746f6f62 	strbtvc	r6, [pc], #-3938	; 738 <__code_start__-0x78c8>
 734:	5000632e 	andpl	r6, r0, lr, lsr #6
 738:	41505f4d 	cmpmi	r0, sp, asr #30
 73c:	4f575353 	svcmi	0x00575353
 740:	61004452 	tstvs	r0, r2, asr r4
 744:	73755f74 	cmnvc	r5, #116, 30	; 0x1d0
 748:	6c5f7265 	lfmvs	f7, 2, [pc], {101}	; 0x65
 74c:	6c657665 	stclvs	6, cr7, [r5], #-404	; 0xfffffe6c
 750:	5f4d5000 	svcpl	0x004d5000
 754:	43545352 	cmpmi	r4, #1207959553	; 0x48000001
 758:	4352575f 	cmpmi	r2, #24903680	; 0x17c0000
 75c:	465f4746 	ldrbmi	r4, [pc], -r6, asr #14
 760:	5f4c4c55 	svcpl	0x004c4c55
 764:	45534552 	ldrbmi	r4, [r3, #-1362]	; 0xfffffaae
 768:	4d500054 	ldclmi	0, cr0, [r0, #-336]	; 0xfffffeb0
 76c:	5453525f 	ldrbpl	r5, [r3], #-607	; 0xfffffda1
 770:	70630043 	rsbvc	r0, r3, r3, asr #32
 774:	64007273 	strvs	r7, [r0], #-627	; 0xfffffd8d
 778:	625f7665 	subsvs	r7, pc, #105906176	; 0x6500000
 77c:	69727261 	ldmdbvs	r2!, {r0, r5, r6, r9, ip, sp, lr}^
 780:	64007265 	strvs	r7, [r0], #-613	; 0xfffffd9b
 784:	79616c65 	stmdbvc	r1!, {r0, r2, r5, r6, sl, fp, sp, lr}^
 788:	6365735f 	cmnvs	r5, #2080374785	; 0x7c000001
 78c:	732f2e00 			; <UNDEFINED> instruction: 0x732f2e00
 790:	66666174 			; <UNDEFINED> instruction: 0x66666174
 794:	6372732d 	cmnvs	r2, #-1275068416	; 0xb4000000
 798:	6d69742f 	cfstrdvs	mvd7, [r9, #-188]!	; 0xffffff44
 79c:	632e7265 			; <UNDEFINED> instruction: 0x632e7265
 7a0:	54454700 	strbpl	r4, [r5], #-1792	; 0xfffff900
 7a4:	74003233 	strvc	r3, [r0], #-563	; 0xfffffdcd
 7a8:	72656d69 	rsbvc	r6, r5, #6720	; 0x1a40
 7ac:	7465675f 	strbtvc	r6, [r5], #-1887	; 0xfffff8a1
 7b0:	6573755f 	ldrbvs	r7, [r3, #-1375]!	; 0xfffffaa1
 7b4:	65640063 	strbvs	r0, [r4, #-99]!	; 0xffffff9d
 7b8:	5f79616c 	svcpl	0x0079616c
 7bc:	74007375 	strvc	r7, [r0], #-885	; 0xfffffc8b
 7c0:	72656d69 	rsbvc	r6, r5, #6720	; 0x1a40
 7c4:	7465675f 	strbtvc	r6, [r5], #-1887	; 0xfffff8a1
 7c8:	6573755f 	ldrbvs	r7, [r3, #-1375]!	; 0xfffffaa1
 7cc:	61725f63 	cmnvs	r2, r3, ror #30
 7d0:	75700077 	ldrbvc	r0, [r0, #-119]!	; 0xffffff89
 7d4:	00323374 	eorseq	r3, r2, r4, ror r3
 7d8:	64756162 	ldrbtvs	r6, [r5], #-354	; 0xfffffe9e
 7dc:	6c61765f 	stclvs	6, cr7, [r1], #-380	; 0xfffffe84
 7e0:	61747300 	cmnvs	r4, r0, lsl #6
 7e4:	61750074 	cmnvs	r5, r4, ror r0
 7e8:	635f7472 	cmpvs	pc, #1912602624	; 0x72000000
 7ec:	675f6e61 	ldrbvs	r6, [pc, -r1, ror #28]
 7f0:	00637465 	rsbeq	r7, r3, r5, ror #8
 7f4:	4f495047 	svcmi	0x00495047
 7f8:	4e55465f 	mrcmi	6, 2, r4, cr5, cr15, {2}
 7fc:	554f5f43 	strbpl	r5, [pc, #-3907]	; fffff8c1 <__bss_end__+0xffff4b11>
 800:	54555054 	ldrbpl	r5, [r5], #-84	; 0xffffffac
 804:	78756100 	ldmdavc	r5!, {r8, sp, lr}^
 808:	7265705f 	rsbvc	r7, r5, #95, 0	; 0x5f
 80c:	73687069 	cmnvc	r8, #105, 0	; 0x69
 810:	72617500 	rsbvc	r7, r1, #0, 10
 814:	00632e74 	rsbeq	r2, r3, r4, ror lr
 818:	74726175 	ldrbtvc	r6, [r2], #-373	; 0xfffffe8b
 81c:	6e61635f 	mcrvs	3, 3, r6, cr1, cr15, {2}
 820:	7475705f 	ldrbtvc	r7, [r5], #-95	; 0xffffffa1
 824:	61750063 	cmnvs	r5, r3, rrx
 828:	745f7472 	ldrbvc	r7, [pc], #-1138	; 830 <__code_start__-0x77d0>
 82c:	73695f78 	cmnvc	r9, #120, 30	; 0x1e0
 830:	706d655f 	rsbvc	r6, sp, pc, asr r5
 834:	47007974 	smlsdxmi	r0, r4, r9, r7
 838:	5f4f4950 	svcpl	0x004f4950
 83c:	434e5546 	movtmi	r5, #58694	; 0xe546
 840:	544c415f 	strbpl	r4, [ip], #-351	; 0xfffffea1
 844:	50470030 	subpl	r0, r7, r0, lsr r0
 848:	465f4f49 	ldrbmi	r4, [pc], -r9, asr #30
 84c:	5f434e55 	svcpl	0x00434e55
 850:	31544c41 	cmpcc	r4, r1, asr #24
 854:	49504700 	ldmdbmi	r0, {r8, r9, sl, lr}^
 858:	55465f4f 	strbpl	r5, [r6, #-3919]	; 0xfffff0b1
 85c:	415f434e 	cmpmi	pc, lr, asr #6
 860:	0032544c 	eorseq	r5, r2, ip, asr #8
 864:	4f495047 	svcmi	0x00495047
 868:	4e55465f 	mrcmi	6, 2, r4, cr5, cr15, {2}
 86c:	4c415f43 	mcrrmi	15, 4, r5, r1, cr3
 870:	47003354 	smlsdmi	r0, r4, r3, r3
 874:	5f4f4950 	svcpl	0x004f4950
 878:	434e5546 	movtmi	r5, #58694	; 0xe546
 87c:	544c415f 	strbpl	r4, [ip], #-351	; 0xfffffea1
 880:	682f0035 	stmdavs	pc!, {r0, r2, r4, r5}	; <UNPREDICTABLE>
 884:	2f656d6f 	svccs	0x00656d6f
 888:	6c676e65 	stclvs	14, cr6, [r7], #-404	; 0xfffffe6c
 88c:	632f7265 			; <UNDEFINED> instruction: 0x632f7265
 890:	7373616c 	cmnvc	r3, #27
 894:	3273632f 	rsbscc	r6, r3, #-1140850688	; 0xbc000000
 898:	786c3034 	stmdavc	ip!, {r2, r4, r5, ip, sp}^
 89c:	7332322d 	teqvc	r2, #-805306366	; 0xd0000002
 8a0:	6c2f7270 	sfmvs	f7, 4, [pc], #-448	; 6e8 <__code_start__-0x7918>
 8a4:	69706269 	ldmdbvs	r0!, {r0, r3, r5, r6, r9, sp, lr}^
 8a8:	6174732f 	cmnvs	r4, pc, lsr #6
 8ac:	702d6666 	eorvc	r6, sp, r6, ror #12
 8b0:	61766972 	cmnvs	r6, r2, ror r9
 8b4:	62006574 	andvs	r6, r0, #116, 10	; 0x1d000000
 8b8:	00647561 	rsbeq	r7, r4, r1, ror #10
 8bc:	5f787561 	svcpl	0x00787561
 8c0:	62616e65 	rsbvs	r6, r1, #1616	; 0x650
 8c4:	0073656c 	rsbseq	r6, r3, ip, ror #10
 8c8:	74726175 	ldrbtvc	r6, [r2], #-373	; 0xfffffe8b
 8cc:	7465675f 	strbtvc	r6, [r5], #-1887	; 0xfffff8a1
 8d0:	4e470063 	cdpmi	0, 4, cr0, cr7, cr3, {3}
 8d4:	39432055 	stmdbcc	r3, {r0, r2, r4, r6, sp}^
 8d8:	30312039 	eorscc	r2, r1, r9, lsr r0
 8dc:	312e332e 			; <UNDEFINED> instruction: 0x312e332e
 8e0:	32303220 	eorscc	r3, r0, #32, 4
 8e4:	32383031 	eorscc	r3, r8, #49, 0	; 0x31
 8e8:	72282034 	eorvc	r2, r8, #52, 0	; 0x34
 8ec:	61656c65 	cmnvs	r5, r5, ror #24
 8f0:	20296573 	eorcs	r6, r9, r3, ror r5
 8f4:	70636d2d 	rsbvc	r6, r3, sp, lsr #26
 8f8:	72613d75 	rsbvc	r3, r1, #7488	; 0x1d40
 8fc:	3731316d 	ldrcc	r3, [r1, -sp, ror #2]!
 900:	667a6a36 			; <UNDEFINED> instruction: 0x667a6a36
 904:	2d20732d 	stccs	3, cr7, [r0, #-180]!	; 0xffffff4c
 908:	6e75746d 	cdpvs	4, 7, cr7, cr5, cr13, {3}
 90c:	72613d65 	rsbvc	r3, r1, #6464	; 0x1940
 910:	3731316d 	ldrcc	r3, [r1, -sp, ror #2]!
 914:	667a6a36 			; <UNDEFINED> instruction: 0x667a6a36
 918:	2d20732d 	stccs	3, cr7, [r0, #-180]!	; 0xffffff4c
 91c:	6f6c666d 	svcvs	0x006c666d
 920:	612d7461 			; <UNDEFINED> instruction: 0x612d7461
 924:	733d6962 	teqvc	sp, #1605632	; 0x188000
 928:	2074666f 	rsbscs	r6, r4, pc, ror #12
 92c:	72616d2d 	rsbvc	r6, r1, #2880	; 0xb40
 930:	6d2d206d 	stcvs	0, cr2, [sp, #-436]!	; 0xfffffe4c
 934:	68637261 	stmdavs	r3!, {r0, r5, r6, r9, ip, sp, lr}^
 938:	6d72613d 	ldfvse	f6, [r2, #-244]!	; 0xffffff0c
 93c:	7a6b3676 	bvc	1ace31c <__bss_end__+0x1ac356c>
 940:	67672d20 	strbvs	r2, [r7, -r0, lsr #26]!
 944:	2d206264 	sfmcs	f6, 4, [r0, #-400]!	; 0xfffffe70
 948:	2d20674f 	stccs	7, cr6, [r0, #-316]!	; 0xfffffec4
 94c:	3d647473 	cfstrdcc	mvd7, [r4, #-460]!	; 0xfffffe34
 950:	39756e67 	ldmdbcc	r5!, {r0, r1, r2, r5, r6, r9, sl, fp, sp, lr}^
 954:	662d2039 			; <UNDEFINED> instruction: 0x662d2039
 958:	65657266 	strbvs	r7, [r5, #-614]!	; 0xfffffd9a
 95c:	6e617473 	mcrvs	4, 3, r7, cr1, cr3, {3}
 960:	676e6964 	strbvs	r6, [lr, -r4, ror #18]!
 964:	746e6300 	strbtvc	r6, [lr], #-768	; 0xfffffd00
 968:	6175006c 	cmnvs	r5, ip, rrx
 96c:	645f7472 	ldrbvs	r7, [pc], #-1138	; 974 <__code_start__-0x768c>
 970:	62617369 	rsbvs	r7, r1, #-1543503871	; 0xa4000001
 974:	7500656c 	strvc	r6, [r0, #-1388]	; 0xfffffa94
 978:	5f747261 	svcpl	0x00747261
 97c:	5f736168 	svcpl	0x00736168
 980:	61746164 	cmnvs	r4, r4, ror #2
 984:	49504700 	ldmdbmi	r0, {r8, r9, sl, lr}^
 988:	55465f4f 	strbpl	r5, [r6, #-3919]	; 0xfffff0b1
 98c:	415f434e 	cmpmi	pc, lr, asr #6
 990:	0034544c 	eorseq	r5, r4, ip, asr #8
 994:	695f726f 	ldmdbvs	pc, {r0, r1, r2, r3, r5, r6, r9, ip, sp, lr}^	; <UNPREDICTABLE>
 998:	0032336e 	eorseq	r3, r2, lr, ror #6
 99c:	61726373 	cmnvs	r2, r3, ror r3
 9a0:	00686374 	rsbeq	r6, r8, r4, ror r3
 9a4:	74726175 	ldrbtvc	r6, [r2], #-373	; 0xfffffe8b
 9a8:	646e6100 	strbtvs	r6, [lr], #-256	; 0xffffff00
 9ac:	336e695f 	cmncc	lr, #1556480	; 0x17c000
 9b0:	61750032 	cmnvs	r5, r2, lsr r0
 9b4:	705f7472 	subsvc	r7, pc, r2, ror r4	; <UNPREDICTABLE>
 9b8:	00637475 	rsbeq	r7, r3, r5, ror r4
 9bc:	4f495047 	svcmi	0x00495047
 9c0:	4e55465f 	mrcmi	6, 2, r4, cr5, cr15, {2}
 9c4:	4e495f43 	cdpmi	15, 4, cr5, cr9, cr3, {2}
 9c8:	00545550 	subseq	r5, r4, r0, asr r5
 9cc:	6f697067 	svcvs	0x00697067
 9d0:	7465735f 	strbtvc	r7, [r5], #-863	; 0xfffffca1
 9d4:	6e75665f 	mrcvs	6, 3, r6, cr5, cr15, {2}
 9d8:	6f697463 	svcvs	0x00697463
 9dc:	6567006e 	strbvs	r0, [r7, #-110]!	; 0xffffff92
 9e0:	00323374 	eorseq	r3, r2, r4, ror r3
 9e4:	6c616d6b 	stclvs	13, cr6, [r1], #-428	; 0xfffffe54
 9e8:	5f636f6c 	svcpl	0x00636f6c
 9ec:	70616568 	rsbvc	r6, r1, r8, ror #10
 9f0:	6174735f 	cmnvs	r4, pc, asr r3
 9f4:	6d007472 	cfstrsvs	mvf7, [r0, #-456]	; 0xfffffe38
 9f8:	6e5f7861 	cdpvs	8, 5, cr7, cr15, cr1, {3}
 9fc:	65747962 	ldrbvs	r7, [r4, #-2402]!	; 0xfffff69e
 a00:	615f0073 	cmpvs	pc, r3, ror r0	; <UNPREDICTABLE>
 a04:	00726464 	rsbseq	r6, r2, r4, ror #8
 a08:	70616568 	rsbvc	r6, r1, r8, ror #10
 a0c:	78616d5f 	stmdavc	r1!, {r0, r1, r2, r3, r4, r6, r8, sl, fp, sp, lr}^
 a10:	72666b00 	rsbvc	r6, r6, #0, 22
 a14:	615f6565 	cmpvs	pc, r5, ror #10
 a18:	72006c6c 	andvc	r6, r0, #108, 24	; 0x6c00
 a1c:	646e756f 	strbtvs	r7, [lr], #-1391	; 0xfffffa91
 a20:	6b007075 	blvs	1cbfc <__bss_end__+0x11e4c>
 a24:	65657266 	strbvs	r7, [r5, #-614]!	; 0xfffffd9a
 a28:	706f705f 	rsbvc	r7, pc, pc, asr r0	; <UNPREDICTABLE>
 a2c:	696c6100 	stmdbvs	ip!, {r8, sp, lr}^
 a30:	656d6e67 	strbvs	r6, [sp, #-3687]!	; 0xfffff199
 a34:	6d00746e 	cfstrsvs	mvf7, [r0, #-440]	; 0xfffffe48
 a38:	755f7861 	ldrbvc	r7, [pc, #-2145]	; 1df <__code_start__-0x7e21>
 a3c:	4f003233 	svcmi	0x00003233
 a40:	424d656e 	submi	r6, sp, #461373440	; 0x1b800000
 a44:	616d6b00 	cmnvs	sp, r0, lsl #22
 a48:	636f6c6c 	cmnvs	pc, #108, 24	; 0x6c00
 a4c:	6165685f 	cmnvs	r5, pc, asr r8
 a50:	6e655f70 	mcrvs	15, 3, r5, cr5, cr0, {3}
 a54:	6d6b0064 	stclvs	0, cr0, [fp, #-400]!	; 0xfffffe70
 a58:	6f6c6c61 	svcvs	0x006c6c61
 a5c:	6f6e5f63 	svcvs	0x006e5f63
 a60:	72657a74 	rsbvc	r7, r5, #116, 20	; 0x74000
 a64:	7369006f 	cmnvc	r9, #111, 0	; 0x6f
 a68:	776f705f 			; <UNDEFINED> instruction: 0x776f705f
 a6c:	6d6b0032 	stclvs	0, cr0, [fp, #-200]!	; 0xffffff38
 a70:	6f6c6c61 	svcvs	0x006c6c61
 a74:	00632e63 	rsbeq	r2, r3, r3, ror #28
 a78:	6c616d6b 	stclvs	13, cr6, [r1], #-428	; 0xfffffe54
 a7c:	5f636f6c 	svcpl	0x00636f6c
 a80:	74696e69 	strbtvc	r6, [r9], #-3689	; 0xfffff197
 a84:	5f736900 	svcpl	0x00736900
 a88:	67696c61 	strbvs	r6, [r9, -r1, ror #24]!
 a8c:	0064656e 	rsbeq	r6, r4, lr, ror #10
 a90:	6c616d6b 	stclvs	13, cr6, [r1], #-428	; 0xfffffe54
 a94:	5f636f6c 	svcpl	0x00636f6c
 a98:	70616568 	rsbvc	r6, r1, r8, ror #10
 a9c:	7274705f 	rsbsvc	r7, r4, #95, 0	; 0x5f
 aa0:	69707200 	ldmdbvs	r0!, {r9, ip, sp, lr}^
 aa4:	7365725f 	cmnvc	r5, #-268435451	; 0xf0000005
 aa8:	705f7465 	subsvc	r7, pc, r5, ror #8
 aac:	00637475 	rsbeq	r7, r3, r5, ror r4
 ab0:	6c616d6b 	stclvs	13, cr6, [r1], #-428	; 0xfffffe54
 ab4:	5f636f6c 	svcpl	0x00636f6c
 ab8:	67696c61 	strbvs	r6, [r9, -r1, ror #24]!
 abc:	0064656e 	rsbeq	r6, r4, lr, ror #10
 ac0:	6f697067 	svcvs	0x00697067
 ac4:	726c635f 	rsbvc	r6, ip, #2080374785	; 0x7c000001
 ac8:	70670030 	rsbvc	r0, r7, r0, lsr r0
 acc:	735f6f69 	cmpvc	pc, #420	; 0x1a4
 ad0:	00307465 	eorseq	r7, r0, r5, ror #8
 ad4:	6f697067 	svcvs	0x00697067
 ad8:	6972775f 	ldmdbvs	r2!, {r0, r1, r2, r3, r4, r6, r8, r9, sl, ip, sp, lr}^
 adc:	44006574 	strmi	r6, [r0], #-1396	; 0xfffffa8c
 ae0:	565f5645 	ldrbpl	r5, [pc], -r5, asr #12
 ae4:	32334c41 	eorscc	r4, r3, #16640	; 0x4100
 ae8:	69706700 	ldmdbvs	r0!, {r8, r9, sl, sp, lr}^
 aec:	65725f6f 	ldrbvs	r5, [r2, #-3951]!	; 0xfffff091
 af0:	2e006461 	cdpcs	4, 0, cr6, cr0, cr1, {3}
 af4:	6372732f 	cmnvs	r2, #-1140850688	; 0xbc000000
 af8:	6970672f 	ldmdbvs	r0!, {r0, r1, r2, r3, r5, r8, r9, sl, sp, lr}^
 afc:	00632e6f 	rsbeq	r2, r3, pc, ror #28
 b00:	6f697067 	svcvs	0x00697067
 b04:	7465735f 	strbtvc	r7, [r5], #-863	; 0xfffffca1
 b08:	706e695f 	rsbvc	r6, lr, pc, asr r9
 b0c:	67007475 	smlsdxvs	r0, r5, r4, r7
 b10:	5f6f6970 	svcpl	0x006f6970
 b14:	5f746573 	svcpl	0x00746573
 b18:	0066666f 	rsbeq	r6, r6, pc, ror #12
 b1c:	6f697067 	svcvs	0x00697067
 b20:	7465735f 	strbtvc	r7, [r5], #-863	; 0xfffffca1
 b24:	74756f5f 	ldrbtvc	r6, [r5], #-3935	; 0xfffff0a1
 b28:	00747570 	rsbseq	r7, r4, r0, ror r5
 b2c:	6f697067 	svcvs	0x00697067
 b30:	6e75665f 	mrcvs	6, 3, r6, cr5, cr15, {2}
 b34:	00745f63 	rsbseq	r5, r4, r3, ror #30
 b38:	6f697067 	svcvs	0x00697067
 b3c:	76656c5f 			; <UNDEFINED> instruction: 0x76656c5f
 b40:	61620030 	cmnvs	r2, r0, lsr r0
 b44:	67006b6e 	strvs	r6, [r0, -lr, ror #22]
 b48:	5f6f6970 	svcpl	0x006f6970
 b4c:	5f746573 	svcpl	0x00746573
 b50:	69006e6f 	stmdbvs	r0, {r0, r1, r2, r3, r5, r6, r9, sl, fp, sp, lr}
 b54:	7265746e 	rsbvc	r7, r5, #1845493760	; 0x6e000000
 b58:	5f6c616e 	svcpl	0x006c616e
 b5c:	63747570 	cmnvs	r4, #112, 10	; 0x1c000000
 b60:	00726168 	rsbseq	r6, r2, r8, ror #2
 b64:	5f697072 	svcpl	0x00697072
 b68:	5f746573 	svcpl	0x00746573
 b6c:	63747570 	cmnvs	r4, #112, 10	; 0x1c000000
 b70:	6c2f2e00 	stcvs	14, cr2, [pc], #-0	; b78 <__code_start__-0x7488>
 b74:	2f636269 	svccs	0x00636269
 b78:	63747570 	cmnvs	r4, #112, 10	; 0x1c000000
 b7c:	2e726168 	rpwcssz	f6, f2, #0.0
 b80:	2f2e0063 	svccs	0x002e0063
 b84:	6362696c 	cmnvs	r2, #108, 18	; 0x1b0000
 b88:	7274732f 	rsbsvc	r7, r4, #-1140850688	; 0xbc000000
 b8c:	2e746163 	rpwcssz	f6, f4, f3
 b90:	65640063 	strbvs	r0, [r4, #-99]!	; 0xffffff9d
 b94:	2e007473 	mcrcs	4, 0, r7, cr0, cr3, {3}
 b98:	62696c2f 	rsbvs	r6, r9, #12032	; 0x2f00
 b9c:	74732f63 	ldrbtvc	r2, [r3], #-3939	; 0xfffff09d
 ba0:	706d6372 	rsbvc	r6, sp, r2, ror r3
 ba4:	2e00632e 	cdpcs	3, 0, cr6, cr0, cr14, {1}
 ba8:	62696c2f 	rsbvs	r6, r9, #12032	; 0x2f00
 bac:	74732f63 	ldrbtvc	r2, [r3], #-3939	; 0xfffff09d
 bb0:	79706372 	ldmdbvc	r0!, {r1, r4, r5, r6, r8, r9, sp, lr}^
 bb4:	2e00632e 	cdpcs	3, 0, cr6, cr0, cr14, {1}
 bb8:	62696c2f 	rsbvs	r6, r9, #12032	; 0x2f00
 bbc:	74732f63 	ldrbtvc	r2, [r3], #-3939	; 0xfffff09d
 bc0:	6d636e72 	stclvs	14, cr6, [r3, #-456]!	; 0xfffffe38
 bc4:	00632e70 	rsbeq	r2, r3, r0, ror lr
 bc8:	74732f2e 	ldrbtvc	r2, [r3], #-3886	; 0xfffff0d2
 bcc:	2d666661 	stclcs	6, cr6, [r6, #-388]!	; 0xfffffe7c
 bd0:	2f637273 	svccs	0x00637273
 bd4:	61666564 	cmnvs	r6, r4, ror #10
 bd8:	2d746c75 	ldclcs	12, cr6, [r4, #-468]!	; 0xfffffe2c
 bdc:	6f626572 	svcvs	0x00626572
 be0:	632d746f 			; <UNDEFINED> instruction: 0x632d746f
 be4:	6f6c6c61 	svcvs	0x006c6c61
 be8:	632e7475 			; <UNDEFINED> instruction: 0x632e7475
	...

Disassembly of section .debug_frame:

00000000 <.debug_frame>:
   0:	0000000c 	andeq	r0, r0, ip
   4:	ffffffff 			; <UNDEFINED> instruction: 0xffffffff
   8:	7c020001 	stcvc	0, cr0, [r2], {1}
   c:	000d0c0e 	andeq	r0, sp, lr, lsl #24
  10:	00000020 	andeq	r0, r0, r0, lsr #32
  14:	00000000 	andeq	r0, r0, r0
  18:	00008038 	andeq	r8, r0, r8, lsr r0
  1c:	00000080 	andeq	r0, r0, r0, lsl #1
  20:	84100e42 	ldrhi	r0, [r0], #-3650	; 0xfffff1be
  24:	86038504 	strhi	r8, [r3], -r4, lsl #10
  28:	42018e02 	andmi	r8, r1, #2, 28
  2c:	0e76200e 	cdpeq	0, 7, cr2, cr6, cr14, {0}
  30:	00000010 	andeq	r0, r0, r0, lsl r0
  34:	00000014 	andeq	r0, r0, r4, lsl r0
  38:	00000000 	andeq	r0, r0, r0
  3c:	000080b8 	strheq	r8, [r0], -r8	; <UNPREDICTABLE>
  40:	00000028 	andeq	r0, r0, r8, lsr #32
  44:	84080e42 	strhi	r0, [r8], #-3650	; 0xfffff1be
  48:	00018e02 	andeq	r8, r1, r2, lsl #28
  4c:	0000000c 	andeq	r0, r0, ip
  50:	ffffffff 			; <UNDEFINED> instruction: 0xffffffff
  54:	7c020001 	stcvc	0, cr0, [r2], {1}
  58:	000d0c0e 	andeq	r0, sp, lr, lsl #24
  5c:	0000000c 	andeq	r0, r0, ip
  60:	0000004c 	andeq	r0, r0, ip, asr #32
  64:	000080e0 	andeq	r8, r0, r0, ror #1
  68:	00000010 	andeq	r0, r0, r0, lsl r0
  6c:	0000000c 	andeq	r0, r0, ip
  70:	0000004c 	andeq	r0, r0, ip, asr #32
  74:	000080f0 	strdeq	r8, [r0], -r0
  78:	00000010 	andeq	r0, r0, r0, lsl r0
  7c:	00000020 	andeq	r0, r0, r0, lsr #32
  80:	0000004c 	andeq	r0, r0, ip, asr #32
  84:	00008100 	andeq	r8, r0, r0, lsl #2
  88:	000000a4 	andeq	r0, r0, r4, lsr #1
  8c:	840c0e42 	strhi	r0, [ip], #-3650	; 0xfffff1be
  90:	8e028503 	cfsh32hi	mvfx8, mvfx2, #3
  94:	180e4201 	stmdane	lr, {r0, r9, lr}
  98:	0c0e0a5e 			; <UNDEFINED> instruction: 0x0c0e0a5e
  9c:	00000b42 	andeq	r0, r0, r2, asr #22
  a0:	0000000c 	andeq	r0, r0, ip
  a4:	0000004c 	andeq	r0, r0, ip, asr #32
  a8:	000081a4 	andeq	r8, r0, r4, lsr #3
  ac:	00000008 	andeq	r0, r0, r8
  b0:	00000014 	andeq	r0, r0, r4, lsl r0
  b4:	0000004c 	andeq	r0, r0, ip, asr #32
  b8:	000081ac 	andeq	r8, r0, ip, lsr #3
  bc:	00000018 	andeq	r0, r0, r8, lsl r0
  c0:	84080e42 	strhi	r0, [r8], #-3650	; 0xfffff1be
  c4:	00018e02 	andeq	r8, r1, r2, lsl #28
  c8:	00000018 	andeq	r0, r0, r8, lsl r0
  cc:	0000004c 	andeq	r0, r0, ip, asr #32
  d0:	000081c4 	andeq	r8, r0, r4, asr #3
  d4:	00000030 	andeq	r0, r0, r0, lsr r0
  d8:	84100e42 	ldrhi	r0, [r0], #-3650	; 0xfffff1be
  dc:	86038504 	strhi	r8, [r3], -r4, lsl #10
  e0:	00018e02 	andeq	r8, r1, r2, lsl #28
  e4:	00000018 	andeq	r0, r0, r8, lsl r0
  e8:	0000004c 	andeq	r0, r0, ip, asr #32
  ec:	000081f4 	strdeq	r8, [r0], -r4
  f0:	00000058 	andeq	r0, r0, r8, asr r0
  f4:	84100e42 	ldrhi	r0, [r0], #-3650	; 0xfffff1be
  f8:	86038504 	strhi	r8, [r3], -r4, lsl #10
  fc:	00018e02 	andeq	r8, r1, r2, lsl #28
 100:	00000024 	andeq	r0, r0, r4, lsr #32
 104:	0000004c 	andeq	r0, r0, ip, asr #32
 108:	0000824c 	andeq	r8, r0, ip, asr #4
 10c:	000000ec 	andeq	r0, r0, ip, ror #1
 110:	84180e42 	ldrhi	r0, [r8], #-3650	; 0xfffff1be
 114:	86058506 	strhi	r8, [r5], -r6, lsl #10
 118:	88038704 	stmdahi	r3, {r2, r8, r9, sl, pc}
 11c:	42018e02 	andmi	r8, r1, #2, 28
 120:	0a7c300e 	beq	1f0c160 <__bss_end__+0x1f013b0>
 124:	0b42180e 	bleq	1086164 <__bss_end__+0x107b3b4>
 128:	00000020 	andeq	r0, r0, r0, lsr #32
 12c:	0000004c 	andeq	r0, r0, ip, asr #32
 130:	00008338 	andeq	r8, r0, r8, lsr r3
 134:	00000090 	muleq	r0, r0, r0
 138:	84100e42 	ldrhi	r0, [r0], #-3650	; 0xfffff1be
 13c:	86038504 	strhi	r8, [r3], -r4, lsl #10
 140:	42018e02 	andmi	r8, r1, #2, 28
 144:	0e7c200e 	cdpeq	0, 7, cr2, cr12, cr14, {0}
 148:	00000010 	andeq	r0, r0, r0, lsl r0
 14c:	0000000c 	andeq	r0, r0, ip
 150:	ffffffff 			; <UNDEFINED> instruction: 0xffffffff
 154:	7c020001 	stcvc	0, cr0, [r2], {1}
 158:	000d0c0e 	andeq	r0, sp, lr, lsl #24
 15c:	00000014 	andeq	r0, r0, r4, lsl r0
 160:	0000014c 	andeq	r0, r0, ip, asr #2
 164:	000083c8 	andeq	r8, r0, r8, asr #7
 168:	000000bc 	strheq	r0, [r0], -ip
 16c:	8e040e42 	cdphi	14, 0, cr0, cr4, cr2, {2}
 170:	00000001 	andeq	r0, r0, r1
 174:	00000014 	andeq	r0, r0, r4, lsl r0
 178:	0000014c 	andeq	r0, r0, ip, asr #2
 17c:	00008484 	andeq	r8, r0, r4, lsl #9
 180:	00000044 	andeq	r0, r0, r4, asr #32
 184:	84080e42 	strhi	r0, [r8], #-3650	; 0xfffff1be
 188:	00018e02 	andeq	r8, r1, r2, lsl #28
 18c:	00000014 	andeq	r0, r0, r4, lsl r0
 190:	0000014c 	andeq	r0, r0, ip, asr #2
 194:	000084c8 	andeq	r8, r0, r8, asr #9
 198:	000000ac 	andeq	r0, r0, ip, lsr #1
 19c:	84080e42 	strhi	r0, [r8], #-3650	; 0xfffff1be
 1a0:	00018e02 	andeq	r8, r1, r2, lsl #28
 1a4:	0000000c 	andeq	r0, r0, ip
 1a8:	ffffffff 			; <UNDEFINED> instruction: 0xffffffff
 1ac:	7c020001 	stcvc	0, cr0, [r2], {1}
 1b0:	000d0c0e 	andeq	r0, sp, lr, lsl #24
 1b4:	0000000c 	andeq	r0, r0, ip
 1b8:	000001a4 	andeq	r0, r0, r4, lsr #3
 1bc:	00008574 	andeq	r8, r0, r4, ror r5
 1c0:	0000003c 	andeq	r0, r0, ip, lsr r0
 1c4:	00000014 	andeq	r0, r0, r4, lsl r0
 1c8:	000001a4 	andeq	r0, r0, r4, lsr #3
 1cc:	000085b0 			; <UNDEFINED> instruction: 0x000085b0
 1d0:	00000028 	andeq	r0, r0, r8, lsr #32
 1d4:	84080e42 	strhi	r0, [r8], #-3650	; 0xfffff1be
 1d8:	00018e02 	andeq	r8, r1, r2, lsl #28
 1dc:	00000024 	andeq	r0, r0, r4, lsr #32
 1e0:	000001a4 	andeq	r0, r0, r4, lsr #3
 1e4:	000085d8 	ldrdeq	r8, [r0], -r8	; <UNPREDICTABLE>
 1e8:	00000168 	andeq	r0, r0, r8, ror #2
 1ec:	84180e42 	ldrhi	r0, [r8], #-3650	; 0xfffff1be
 1f0:	86058506 	strhi	r8, [r5], -r6, lsl #10
 1f4:	88038704 	stmdahi	r3, {r2, r8, r9, sl, pc}
 1f8:	42018e02 	andmi	r8, r1, #2, 28
 1fc:	9c02200e 	stcls	0, cr2, [r2], {14}
 200:	0000180e 	andeq	r1, r0, lr, lsl #16
 204:	00000018 	andeq	r0, r0, r8, lsl r0
 208:	000001a4 	andeq	r0, r0, r4, lsr #3
 20c:	00008740 	andeq	r8, r0, r0, asr #14
 210:	000000a4 	andeq	r0, r0, r4, lsr #1
 214:	8e040e42 	cdphi	14, 0, cr0, cr4, cr2, {2}
 218:	480e4201 	stmdami	lr, {r0, r9, lr}
 21c:	040e4202 	streq	r4, [lr], #-514	; 0xfffffdfe
 220:	0000001c 	andeq	r0, r0, ip, lsl r0
 224:	000001a4 	andeq	r0, r0, r4, lsr #3
 228:	000087e4 	andeq	r8, r0, r4, ror #15
 22c:	00000110 	andeq	r0, r0, r0, lsl r1
 230:	84180e42 	ldrhi	r0, [r8], #-3650	; 0xfffff1be
 234:	86058506 	strhi	r8, [r5], -r6, lsl #10
 238:	88038704 	stmdahi	r3, {r2, r8, r9, sl, pc}
 23c:	00018e02 	andeq	r8, r1, r2, lsl #28
 240:	00000024 	andeq	r0, r0, r4, lsr #32
 244:	000001a4 	andeq	r0, r0, r4, lsr #3
 248:	000088f4 	strdeq	r8, [r0], -r4
 24c:	000000e8 	andeq	r0, r0, r8, ror #1
 250:	84180e42 	ldrhi	r0, [r8], #-3650	; 0xfffff1be
 254:	86058506 	strhi	r8, [r5], -r6, lsl #10
 258:	88038704 	stmdahi	r3, {r2, r8, r9, sl, pc}
 25c:	42018e02 	andmi	r8, r1, #2, 28
 260:	5e02280e 	cdppl	8, 0, cr2, cr2, cr14, {0}
 264:	0000180e 	andeq	r1, r0, lr, lsl #16
 268:	00000020 	andeq	r0, r0, r0, lsr #32
 26c:	000001a4 	andeq	r0, r0, r4, lsr #3
 270:	000089dc 	ldrdeq	r8, [r0], -ip
 274:	000000a4 	andeq	r0, r0, r4, lsr #1
 278:	840c0e42 	strhi	r0, [ip], #-3650	; 0xfffff1be
 27c:	8e028503 	cfsh32hi	mvfx8, mvfx2, #3
 280:	180e4201 	stmdane	lr, {r0, r9, lr}
 284:	0c0e0a64 			; <UNDEFINED> instruction: 0x0c0e0a64
 288:	00000b42 	andeq	r0, r0, r2, asr #22
 28c:	00000014 	andeq	r0, r0, r4, lsl r0
 290:	000001a4 	andeq	r0, r0, r4, lsr #3
 294:	00008a80 	andeq	r8, r0, r0, lsl #21
 298:	0000000c 	andeq	r0, r0, ip
 29c:	84080e42 	strhi	r0, [r8], #-3650	; 0xfffff1be
 2a0:	00018e02 	andeq	r8, r1, r2, lsl #28
 2a4:	00000014 	andeq	r0, r0, r4, lsl r0
 2a8:	000001a4 	andeq	r0, r0, r4, lsr #3
 2ac:	00008a8c 	andeq	r8, r0, ip, lsl #21
 2b0:	00000054 	andeq	r0, r0, r4, asr r0
 2b4:	84080e42 	strhi	r0, [r8], #-3650	; 0xfffff1be
 2b8:	00018e02 	andeq	r8, r1, r2, lsl #28
 2bc:	00000014 	andeq	r0, r0, r4, lsl r0
 2c0:	000001a4 	andeq	r0, r0, r4, lsr #3
 2c4:	00008ae0 	andeq	r8, r0, r0, ror #21
 2c8:	0000005c 	andeq	r0, r0, ip, asr r0
 2cc:	84080e42 	strhi	r0, [r8], #-3650	; 0xfffff1be
 2d0:	00018e02 	andeq	r8, r1, r2, lsl #28
 2d4:	00000014 	andeq	r0, r0, r4, lsl r0
 2d8:	000001a4 	andeq	r0, r0, r4, lsr #3
 2dc:	00008b3c 	andeq	r8, r0, ip, lsr fp
 2e0:	00000010 	andeq	r0, r0, r0, lsl r0
 2e4:	84080e42 	strhi	r0, [r8], #-3650	; 0xfffff1be
 2e8:	00018e02 	andeq	r8, r1, r2, lsl #28
 2ec:	00000014 	andeq	r0, r0, r4, lsl r0
 2f0:	000001a4 	andeq	r0, r0, r4, lsr #3
 2f4:	00008b4c 	andeq	r8, r0, ip, asr #22
 2f8:	0000002c 	andeq	r0, r0, ip, lsr #32
 2fc:	84080e42 	strhi	r0, [r8], #-3650	; 0xfffff1be
 300:	00018e02 	andeq	r8, r1, r2, lsl #28
 304:	0000000c 	andeq	r0, r0, ip
 308:	ffffffff 			; <UNDEFINED> instruction: 0xffffffff
 30c:	7c020001 	stcvc	0, cr0, [r2], {1}
 310:	000d0c0e 	andeq	r0, sp, lr, lsl #24
 314:	00000014 	andeq	r0, r0, r4, lsl r0
 318:	00000304 	andeq	r0, r0, r4, lsl #6
 31c:	00008b80 	andeq	r8, r0, r0, lsl #23
 320:	00000078 	andeq	r0, r0, r8, ror r0
 324:	84080e42 	strhi	r0, [r8], #-3650	; 0xfffff1be
 328:	00018e02 	andeq	r8, r1, r2, lsl #28
 32c:	0000000c 	andeq	r0, r0, ip
 330:	ffffffff 			; <UNDEFINED> instruction: 0xffffffff
 334:	7c020001 	stcvc	0, cr0, [r2], {1}
 338:	000d0c0e 	andeq	r0, sp, lr, lsl #24
 33c:	00000034 	andeq	r0, r0, r4, lsr r0
 340:	0000032c 	andeq	r0, r0, ip, lsr #6
 344:	00008bf8 	strdeq	r8, [r0], -r8	; <UNPREDICTABLE>
 348:	00000058 	andeq	r0, r0, r8, asr r0
 34c:	80100e42 	andshi	r0, r0, r2, asr #28
 350:	82038104 	andhi	r8, r3, #1
 354:	42018302 	andmi	r8, r1, #134217728	; 0x8000000
 358:	07841c0e 	streq	r1, [r4, lr, lsl #24]
 35c:	058e0685 	streq	r0, [lr, #1669]	; 0x685
 360:	5a280e44 	bpl	a03c78 <__bss_end__+0x9f8ec8>
 364:	ce421c0e 	cdpgt	12, 4, cr1, cr2, cr14, {0}
 368:	100ec4c5 	andne	ip, lr, r5, asr #9
 36c:	c1c2c342 	bicgt	ip, r2, r2, asr #6
 370:	00000ec0 	andeq	r0, r0, r0, asr #29
 374:	0000000c 	andeq	r0, r0, ip
 378:	ffffffff 			; <UNDEFINED> instruction: 0xffffffff
 37c:	7c020001 	stcvc	0, cr0, [r2], {1}
 380:	000d0c0e 	andeq	r0, sp, lr, lsl #24
 384:	00000018 	andeq	r0, r0, r8, lsl r0
 388:	00000374 	andeq	r0, r0, r4, ror r3
 38c:	00008c50 	andeq	r8, r0, r0, asr ip
 390:	00000038 	andeq	r0, r0, r8, lsr r0
 394:	84100e42 	ldrhi	r0, [r0], #-3650	; 0xfffff1be
 398:	86038504 	strhi	r8, [r3], -r4, lsl #10
 39c:	00018e02 	andeq	r8, r1, r2, lsl #28
 3a0:	0000000c 	andeq	r0, r0, ip
 3a4:	ffffffff 			; <UNDEFINED> instruction: 0xffffffff
 3a8:	7c020001 	stcvc	0, cr0, [r2], {1}
 3ac:	000d0c0e 	andeq	r0, sp, lr, lsl #24
 3b0:	0000002c 	andeq	r0, r0, ip, lsr #32
 3b4:	000003a0 	andeq	r0, r0, r0, lsr #7
 3b8:	00008c88 	andeq	r8, r0, r8, lsl #25
 3bc:	00000328 	andeq	r0, r0, r8, lsr #6
 3c0:	84180e42 	ldrhi	r0, [r8], #-3650	; 0xfffff1be
 3c4:	86058506 	strhi	r8, [r5], -r6, lsl #10
 3c8:	88038704 	stmdahi	r3, {r2, r8, r9, sl, pc}
 3cc:	46018e02 	strmi	r8, [r1], -r2, lsl #28
 3d0:	c002600e 	andgt	r6, r2, lr
 3d4:	42180e0a 	andsmi	r0, r8, #160	; 0xa0
 3d8:	0a8e020b 	beq	fe380c0c <__bss_end__+0xfe375e5c>
 3dc:	0b42180e 	bleq	108641c <__bss_end__+0x107b66c>
 3e0:	00000014 	andeq	r0, r0, r4, lsl r0
 3e4:	000003a0 	andeq	r0, r0, r0, lsr #7
 3e8:	00008fb0 			; <UNDEFINED> instruction: 0x00008fb0
 3ec:	00000060 	andeq	r0, r0, r0, rrx
 3f0:	8e040e52 	mcrhi	14, 0, r0, cr4, cr2, {2}
 3f4:	100e4401 	andne	r4, lr, r1, lsl #8
 3f8:	0000002c 	andeq	r0, r0, ip, lsr #32
 3fc:	000003a0 	andeq	r0, r0, r0, lsr #7
 400:	00009010 	andeq	r9, r0, r0, lsl r0
 404:	0000062c 	andeq	r0, r0, ip, lsr #12
 408:	84240e42 	strthi	r0, [r4], #-3650	; 0xfffff1be
 40c:	86088509 	strhi	r8, [r8], -r9, lsl #10
 410:	88068707 	stmdahi	r6, {r0, r1, r2, r8, r9, sl, pc}
 414:	8a048905 	bhi	122830 <__bss_end__+0x117a80>
 418:	8e028b03 	vmlahi.f64	d8, d2, d3
 41c:	c00e5201 	andgt	r5, lr, r1, lsl #4
 420:	0a860202 	beq	fe180c30 <__bss_end__+0xfe175e80>
 424:	0b42240e 	bleq	1089464 <__bss_end__+0x107e6b4>
 428:	0000000c 	andeq	r0, r0, ip
 42c:	ffffffff 			; <UNDEFINED> instruction: 0xffffffff
 430:	7c020001 	stcvc	0, cr0, [r2], {1}
 434:	000d0c0e 	andeq	r0, sp, lr, lsl #24
 438:	00000014 	andeq	r0, r0, r4, lsl r0
 43c:	00000428 	andeq	r0, r0, r8, lsr #8
 440:	0000963c 	andeq	r9, r0, ip, lsr r6
 444:	0000002c 	andeq	r0, r0, ip, lsr #32
 448:	84080e44 	strhi	r0, [r8], #-3652	; 0xfffff1bc
 44c:	00018e02 	andeq	r8, r1, r2, lsl #28
 450:	0000000c 	andeq	r0, r0, ip
 454:	ffffffff 			; <UNDEFINED> instruction: 0xffffffff
 458:	7c020001 	stcvc	0, cr0, [r2], {1}
 45c:	000d0c0e 	andeq	r0, sp, lr, lsl #24
 460:	00000018 	andeq	r0, r0, r8, lsl r0
 464:	00000450 	andeq	r0, r0, r0, asr r4
 468:	00009668 	andeq	r9, r0, r8, ror #12
 46c:	000000f8 	strdeq	r0, [r0], -r8
 470:	84100e42 	ldrhi	r0, [r0], #-3650	; 0xfffff1be
 474:	86038504 	strhi	r8, [r3], -r4, lsl #10
 478:	00018e02 	andeq	r8, r1, r2, lsl #28
 47c:	0000000c 	andeq	r0, r0, ip
 480:	ffffffff 			; <UNDEFINED> instruction: 0xffffffff
 484:	7c020001 	stcvc	0, cr0, [r2], {1}
 488:	000d0c0e 	andeq	r0, sp, lr, lsl #24
 48c:	0000000c 	andeq	r0, r0, ip
 490:	0000047c 	andeq	r0, r0, ip, ror r4
 494:	00009760 	andeq	r9, r0, r0, ror #14
 498:	00000004 	andeq	r0, r0, r4
 49c:	0000000c 	andeq	r0, r0, ip
 4a0:	ffffffff 			; <UNDEFINED> instruction: 0xffffffff
 4a4:	7c020001 	stcvc	0, cr0, [r2], {1}
 4a8:	000d0c0e 	andeq	r0, sp, lr, lsl #24
 4ac:	0000000c 	andeq	r0, r0, ip
 4b0:	0000049c 	muleq	r0, ip, r4
 4b4:	00009764 	andeq	r9, r0, r4, ror #14
 4b8:	00000018 	andeq	r0, r0, r8, lsl r0
 4bc:	0000000c 	andeq	r0, r0, ip
 4c0:	0000049c 	muleq	r0, ip, r4
 4c4:	0000977c 	andeq	r9, r0, ip, ror r7
 4c8:	00000014 	andeq	r0, r0, r4, lsl r0
 4cc:	00000014 	andeq	r0, r0, r4, lsl r0
 4d0:	0000049c 	muleq	r0, ip, r4
 4d4:	00009790 	muleq	r0, r0, r7
 4d8:	00000060 	andeq	r0, r0, r0, rrx
 4dc:	84080e42 	strhi	r0, [r8], #-3650	; 0xfffff1be
 4e0:	00018e02 	andeq	r8, r1, r2, lsl #28
 4e4:	0000000c 	andeq	r0, r0, ip
 4e8:	ffffffff 			; <UNDEFINED> instruction: 0xffffffff
 4ec:	7c020001 	stcvc	0, cr0, [r2], {1}
 4f0:	000d0c0e 	andeq	r0, sp, lr, lsl #24
 4f4:	0000000c 	andeq	r0, r0, ip
 4f8:	000004e4 	andeq	r0, r0, r4, ror #9
 4fc:	000097f0 	strdeq	r9, [r0], -r0
 500:	0000000c 	andeq	r0, r0, ip
 504:	00000014 	andeq	r0, r0, r4, lsl r0
 508:	000004e4 	andeq	r0, r0, r4, ror #9
 50c:	000097fc 	strdeq	r9, [r0], -ip
 510:	00000024 	andeq	r0, r0, r4, lsr #32
 514:	84080e42 	strhi	r0, [r8], #-3650	; 0xfffff1be
 518:	00018e02 	andeq	r8, r1, r2, lsl #28
 51c:	0000001c 	andeq	r0, r0, ip, lsl r0
 520:	000004e4 	andeq	r0, r0, r4, ror #9
 524:	00009820 	andeq	r9, r0, r0, lsr #16
 528:	00000048 	andeq	r0, r0, r8, asr #32
 52c:	84180e42 	ldrhi	r0, [r8], #-3650	; 0xfffff1be
 530:	86058506 	strhi	r8, [r5], -r6, lsl #10
 534:	88038704 	stmdahi	r3, {r2, r8, r9, sl, pc}
 538:	00018e02 	andeq	r8, r1, r2, lsl #28
 53c:	0000001c 	andeq	r0, r0, ip, lsl r0
 540:	000004e4 	andeq	r0, r0, r4, ror #9
 544:	00009868 	andeq	r9, r0, r8, ror #16
 548:	00000050 	andeq	r0, r0, r0, asr r0
 54c:	84180e42 	ldrhi	r0, [r8], #-3650	; 0xfffff1be
 550:	86058506 	strhi	r8, [r5], -r6, lsl #10
 554:	88038704 	stmdahi	r3, {r2, r8, r9, sl, pc}
 558:	00018e02 	andeq	r8, r1, r2, lsl #28
 55c:	0000001c 	andeq	r0, r0, ip, lsl r0
 560:	000004e4 	andeq	r0, r0, r4, ror #9
 564:	000098b8 			; <UNDEFINED> instruction: 0x000098b8
 568:	00000054 	andeq	r0, r0, r4, asr r0
 56c:	84180e42 	ldrhi	r0, [r8], #-3650	; 0xfffff1be
 570:	86058506 	strhi	r8, [r5], -r6, lsl #10
 574:	88038704 	stmdahi	r3, {r2, r8, r9, sl, pc}
 578:	00018e02 	andeq	r8, r1, r2, lsl #28
 57c:	0000000c 	andeq	r0, r0, ip
 580:	ffffffff 			; <UNDEFINED> instruction: 0xffffffff
 584:	7c020001 	stcvc	0, cr0, [r2], {1}
 588:	000d0c0e 	andeq	r0, sp, lr, lsl #24
 58c:	00000018 	andeq	r0, r0, r8, lsl r0
 590:	0000057c 	andeq	r0, r0, ip, ror r5
 594:	0000990c 	andeq	r9, r0, ip, lsl #18
 598:	00000020 	andeq	r0, r0, r0, lsr #32
 59c:	84100e42 	ldrhi	r0, [r0], #-3650	; 0xfffff1be
 5a0:	86038504 	strhi	r8, [r3], -r4, lsl #10
 5a4:	00018e02 	andeq	r8, r1, r2, lsl #28
 5a8:	00000018 	andeq	r0, r0, r8, lsl r0
 5ac:	0000057c 	andeq	r0, r0, ip, ror r5
 5b0:	0000992c 	andeq	r9, r0, ip, lsr #18
 5b4:	00000020 	andeq	r0, r0, r0, lsr #32
 5b8:	84100e42 	ldrhi	r0, [r0], #-3650	; 0xfffff1be
 5bc:	86038504 	strhi	r8, [r3], -r4, lsl #10
 5c0:	00018e02 	andeq	r8, r1, r2, lsl #28
 5c4:	00000014 	andeq	r0, r0, r4, lsl r0
 5c8:	0000057c 	andeq	r0, r0, ip, ror r5
 5cc:	0000994c 	andeq	r9, r0, ip, asr #18
 5d0:	000000b0 	strheq	r0, [r0], -r0	; <UNPREDICTABLE>
 5d4:	84080e42 	strhi	r0, [r8], #-3650	; 0xfffff1be
 5d8:	00018e02 	andeq	r8, r1, r2, lsl #28
 5dc:	00000014 	andeq	r0, r0, r4, lsl r0
 5e0:	0000057c 	andeq	r0, r0, ip, ror r5
 5e4:	000099fc 	strdeq	r9, [r0], -ip
 5e8:	00000018 	andeq	r0, r0, r8, lsl r0
 5ec:	84080e42 	strhi	r0, [r8], #-3650	; 0xfffff1be
 5f0:	00018e02 	andeq	r8, r1, r2, lsl #28
 5f4:	00000014 	andeq	r0, r0, r4, lsl r0
 5f8:	0000057c 	andeq	r0, r0, ip, ror r5
 5fc:	00009a14 	andeq	r9, r0, r4, lsl sl
 600:	00000020 	andeq	r0, r0, r0, lsr #32
 604:	84080e42 	strhi	r0, [r8], #-3650	; 0xfffff1be
 608:	00018e02 	andeq	r8, r1, r2, lsl #28
 60c:	00000014 	andeq	r0, r0, r4, lsl r0
 610:	0000057c 	andeq	r0, r0, ip, ror r5
 614:	00009a34 	andeq	r9, r0, r4, lsr sl
 618:	00000030 	andeq	r0, r0, r0, lsr r0
 61c:	84080e42 	strhi	r0, [r8], #-3650	; 0xfffff1be
 620:	00018e02 	andeq	r8, r1, r2, lsl #28
 624:	00000014 	andeq	r0, r0, r4, lsl r0
 628:	0000057c 	andeq	r0, r0, ip, ror r5
 62c:	00009a64 	andeq	r9, r0, r4, ror #20
 630:	00000030 	andeq	r0, r0, r0, lsr r0
 634:	84080e42 	strhi	r0, [r8], #-3650	; 0xfffff1be
 638:	00018e02 	andeq	r8, r1, r2, lsl #28
 63c:	00000014 	andeq	r0, r0, r4, lsl r0
 640:	0000057c 	andeq	r0, r0, ip, ror r5
 644:	00009a94 	muleq	r0, r4, sl
 648:	00000010 	andeq	r0, r0, r0, lsl r0
 64c:	84080e42 	strhi	r0, [r8], #-3650	; 0xfffff1be
 650:	00018e02 	andeq	r8, r1, r2, lsl #28
 654:	00000014 	andeq	r0, r0, r4, lsl r0
 658:	0000057c 	andeq	r0, r0, ip, ror r5
 65c:	00009aa4 	andeq	r9, r0, r4, lsr #21
 660:	00000020 	andeq	r0, r0, r0, lsr #32
 664:	84080e42 	strhi	r0, [r8], #-3650	; 0xfffff1be
 668:	00018e02 	andeq	r8, r1, r2, lsl #28
 66c:	00000014 	andeq	r0, r0, r4, lsl r0
 670:	0000057c 	andeq	r0, r0, ip, ror r5
 674:	00009ac4 	andeq	r9, r0, r4, asr #21
 678:	00000014 	andeq	r0, r0, r4, lsl r0
 67c:	84080e42 	strhi	r0, [r8], #-3650	; 0xfffff1be
 680:	00018e02 	andeq	r8, r1, r2, lsl #28
 684:	00000014 	andeq	r0, r0, r4, lsl r0
 688:	0000057c 	andeq	r0, r0, ip, ror r5
 68c:	00009ad8 	ldrdeq	r9, [r0], -r8
 690:	00000024 	andeq	r0, r0, r4, lsr #32
 694:	84080e42 	strhi	r0, [r8], #-3650	; 0xfffff1be
 698:	00018e02 	andeq	r8, r1, r2, lsl #28
 69c:	0000000c 	andeq	r0, r0, ip
 6a0:	ffffffff 			; <UNDEFINED> instruction: 0xffffffff
 6a4:	7c020001 	stcvc	0, cr0, [r2], {1}
 6a8:	000d0c0e 	andeq	r0, sp, lr, lsl #24
 6ac:	0000000c 	andeq	r0, r0, ip
 6b0:	0000069c 	muleq	r0, ip, r6
 6b4:	00009afc 	strdeq	r9, [r0], -ip
 6b8:	00000010 	andeq	r0, r0, r0, lsl r0
 6bc:	0000000c 	andeq	r0, r0, ip
 6c0:	0000069c 	muleq	r0, ip, r6
 6c4:	00009b0c 	andeq	r9, r0, ip, lsl #22
 6c8:	00000010 	andeq	r0, r0, r0, lsl r0
 6cc:	0000000c 	andeq	r0, r0, ip
 6d0:	0000069c 	muleq	r0, ip, r6
 6d4:	00009b1c 	andeq	r9, r0, ip, lsl fp
 6d8:	00000010 	andeq	r0, r0, r0, lsl r0
 6dc:	0000001c 	andeq	r0, r0, ip, lsl r0
 6e0:	0000069c 	muleq	r0, ip, r6
 6e4:	00009b2c 	andeq	r9, r0, ip, lsr #22
 6e8:	0000009c 	muleq	r0, ip, r0
 6ec:	8e040e42 	cdphi	14, 0, cr0, cr4, cr2, {2}
 6f0:	100e4201 	andne	r4, lr, r1, lsl #4
 6f4:	040e0a58 	streq	r0, [lr], #-2648	; 0xfffff5a8
 6f8:	00000b42 	andeq	r0, r0, r2, asr #22
 6fc:	00000014 	andeq	r0, r0, r4, lsl r0
 700:	0000069c 	muleq	r0, ip, r6
 704:	00009bc8 	andeq	r9, r0, r8, asr #23
 708:	00000058 	andeq	r0, r0, r8, asr r0
 70c:	84080e42 	strhi	r0, [r8], #-3650	; 0xfffff1be
 710:	00018e02 	andeq	r8, r1, r2, lsl #28
 714:	0000001c 	andeq	r0, r0, ip, lsl r0
 718:	0000069c 	muleq	r0, ip, r6
 71c:	00009c20 	andeq	r9, r0, r0, lsr #24
 720:	00000098 	muleq	r0, r8, r0
 724:	8e040e42 	cdphi	14, 0, cr0, cr4, cr2, {2}
 728:	100e4201 	andne	r4, lr, r1, lsl #4
 72c:	040e0a58 	streq	r0, [lr], #-2648	; 0xfffff5a8
 730:	00000b42 	andeq	r0, r0, r2, asr #22
 734:	00000020 	andeq	r0, r0, r0, lsr #32
 738:	0000069c 	muleq	r0, ip, r6
 73c:	00009cb8 			; <UNDEFINED> instruction: 0x00009cb8
 740:	00000064 	andeq	r0, r0, r4, rrx
 744:	840c0e42 	strhi	r0, [ip], #-3650	; 0xfffff1be
 748:	8e028503 	cfsh32hi	mvfx8, mvfx2, #3
 74c:	180e4201 	stmdane	lr, {r0, r9, lr}
 750:	0c0e0a54 			; <UNDEFINED> instruction: 0x0c0e0a54
 754:	00000b42 	andeq	r0, r0, r2, asr #22
 758:	0000001c 	andeq	r0, r0, ip, lsl r0
 75c:	0000069c 	muleq	r0, ip, r6
 760:	00009d1c 	andeq	r9, r0, ip, lsl sp
 764:	00000118 	andeq	r0, r0, r8, lsl r1
 768:	8e040e42 	cdphi	14, 0, cr0, cr4, cr2, {2}
 76c:	100e4201 	andne	r4, lr, r1, lsl #4
 770:	040e0a6c 	streq	r0, [lr], #-2668	; 0xfffff594
 774:	00000b42 	andeq	r0, r0, r2, asr #22
 778:	0000000c 	andeq	r0, r0, ip
 77c:	0000069c 	muleq	r0, ip, r6
 780:	00009e34 	andeq	r9, r0, r4, lsr lr
 784:	00000004 	andeq	r0, r0, r4
 788:	0000000c 	andeq	r0, r0, ip
 78c:	0000069c 	muleq	r0, ip, r6
 790:	00009e38 	andeq	r9, r0, r8, lsr lr
 794:	00000014 	andeq	r0, r0, r4, lsl r0
 798:	00000014 	andeq	r0, r0, r4, lsl r0
 79c:	0000069c 	muleq	r0, ip, r6
 7a0:	00009e4c 	andeq	r9, r0, ip, asr #28
 7a4:	00000060 	andeq	r0, r0, r0, rrx
 7a8:	8e040e58 	mcrhi	14, 0, r0, cr4, cr8, {2}
 7ac:	100e4201 	andne	r4, lr, r1, lsl #4
 7b0:	0000000c 	andeq	r0, r0, ip
 7b4:	ffffffff 			; <UNDEFINED> instruction: 0xffffffff
 7b8:	7c020001 	stcvc	0, cr0, [r2], {1}
 7bc:	000d0c0e 	andeq	r0, sp, lr, lsl #24
 7c0:	00000020 	andeq	r0, r0, r0, lsr #32
 7c4:	000007b0 			; <UNDEFINED> instruction: 0x000007b0
 7c8:	00009eac 	andeq	r9, r0, ip, lsr #29
 7cc:	00000060 	andeq	r0, r0, r0, rrx
 7d0:	84100e48 	ldrhi	r0, [r0], #-3656	; 0xfffff1b8
 7d4:	86038504 	strhi	r8, [r3], -r4, lsl #10
 7d8:	64018e02 	strvs	r8, [r1], #-3586	; 0xfffff1fe
 7dc:	c4c5c6ce 	strbgt	ip, [r5], #1742	; 0x6ce
 7e0:	0000000e 	andeq	r0, r0, lr
 7e4:	00000020 	andeq	r0, r0, r0, lsr #32
 7e8:	000007b0 			; <UNDEFINED> instruction: 0x000007b0
 7ec:	00009f0c 	andeq	r9, r0, ip, lsl #30
 7f0:	00000058 	andeq	r0, r0, r8, asr r0
 7f4:	84100e46 	ldrhi	r0, [r0], #-3654	; 0xfffff1ba
 7f8:	86038504 	strhi	r8, [r3], -r4, lsl #10
 7fc:	62018e02 	andvs	r8, r1, #2, 28
 800:	c4c5c6ce 	strbgt	ip, [r5], #1742	; 0x6ce
 804:	0000000e 	andeq	r0, r0, lr
 808:	0000000c 	andeq	r0, r0, ip
 80c:	000007b0 			; <UNDEFINED> instruction: 0x000007b0
 810:	00009f64 	andeq	r9, r0, r4, ror #30
 814:	00000018 	andeq	r0, r0, r8, lsl r0
 818:	0000000c 	andeq	r0, r0, ip
 81c:	000007b0 			; <UNDEFINED> instruction: 0x000007b0
 820:	00009f7c 	andeq	r9, r0, ip, ror pc
 824:	00000018 	andeq	r0, r0, r8, lsl r0
 828:	00000020 	andeq	r0, r0, r0, lsr #32
 82c:	000007b0 			; <UNDEFINED> instruction: 0x000007b0
 830:	00009f94 	muleq	r0, r4, pc	; <UNPREDICTABLE>
 834:	00000058 	andeq	r0, r0, r8, asr r0
 838:	84100e46 	ldrhi	r0, [r0], #-3654	; 0xfffff1ba
 83c:	86038504 	strhi	r8, [r3], -r4, lsl #10
 840:	62018e02 	andvs	r8, r1, #2, 28
 844:	c4c5c6ce 	strbgt	ip, [r5], #1742	; 0x6ce
 848:	0000000e 	andeq	r0, r0, lr
 84c:	0000000c 	andeq	r0, r0, ip
 850:	000007b0 			; <UNDEFINED> instruction: 0x000007b0
 854:	00009fec 	andeq	r9, r0, ip, ror #31
 858:	00000030 	andeq	r0, r0, r0, lsr r0
 85c:	00000014 	andeq	r0, r0, r4, lsl r0
 860:	000007b0 			; <UNDEFINED> instruction: 0x000007b0
 864:	0000a01c 	andeq	sl, r0, ip, lsl r0
 868:	00000028 	andeq	r0, r0, r8, lsr #32
 86c:	84080e42 	strhi	r0, [r8], #-3650	; 0xfffff1be
 870:	00018e02 	andeq	r8, r1, r2, lsl #28
 874:	0000000c 	andeq	r0, r0, ip
 878:	ffffffff 			; <UNDEFINED> instruction: 0xffffffff
 87c:	7c020001 	stcvc	0, cr0, [r2], {1}
 880:	000d0c0e 	andeq	r0, sp, lr, lsl #24
 884:	00000014 	andeq	r0, r0, r4, lsl r0
 888:	00000874 	andeq	r0, r0, r4, ror r8
 88c:	0000a044 	andeq	sl, r0, r4, asr #32
 890:	00000014 	andeq	r0, r0, r4, lsl r0
 894:	84080e42 	strhi	r0, [r8], #-3650	; 0xfffff1be
 898:	00018e02 	andeq	r8, r1, r2, lsl #28
 89c:	0000000c 	andeq	r0, r0, ip
 8a0:	00000874 	andeq	r0, r0, r4, ror r8
 8a4:	0000a058 	andeq	sl, r0, r8, asr r0
 8a8:	00000018 	andeq	r0, r0, r8, lsl r0
 8ac:	0000000c 	andeq	r0, r0, ip
 8b0:	00000874 	andeq	r0, r0, r4, ror r8
 8b4:	0000a070 	andeq	sl, r0, r0, ror r0
 8b8:	00000010 	andeq	r0, r0, r0, lsl r0
 8bc:	0000000c 	andeq	r0, r0, ip
 8c0:	ffffffff 			; <UNDEFINED> instruction: 0xffffffff
 8c4:	7c020001 	stcvc	0, cr0, [r2], {1}
 8c8:	000d0c0e 	andeq	r0, sp, lr, lsl #24
 8cc:	0000000c 	andeq	r0, r0, ip
 8d0:	000008bc 			; <UNDEFINED> instruction: 0x000008bc
 8d4:	0000a080 	andeq	sl, r0, r0, lsl #1
 8d8:	0000002c 	andeq	r0, r0, ip, lsr #32
 8dc:	0000000c 	andeq	r0, r0, ip
 8e0:	ffffffff 			; <UNDEFINED> instruction: 0xffffffff
 8e4:	7c020001 	stcvc	0, cr0, [r2], {1}
 8e8:	000d0c0e 	andeq	r0, sp, lr, lsl #24
 8ec:	0000000c 	andeq	r0, r0, ip
 8f0:	000008dc 	ldrdeq	r0, [r0], -ip
 8f4:	0000a0ac 	andeq	sl, r0, ip, lsr #1
 8f8:	00000044 	andeq	r0, r0, r4, asr #32
 8fc:	0000000c 	andeq	r0, r0, ip
 900:	ffffffff 			; <UNDEFINED> instruction: 0xffffffff
 904:	7c020001 	stcvc	0, cr0, [r2], {1}
 908:	000d0c0e 	andeq	r0, sp, lr, lsl #24
 90c:	0000000c 	andeq	r0, r0, ip
 910:	000008fc 	strdeq	r0, [r0], -ip
 914:	0000a0f0 	strdeq	sl, [r0], -r0
 918:	00000018 	andeq	r0, r0, r8, lsl r0
 91c:	0000000c 	andeq	r0, r0, ip
 920:	ffffffff 			; <UNDEFINED> instruction: 0xffffffff
 924:	7c020001 	stcvc	0, cr0, [r2], {1}
 928:	000d0c0e 	andeq	r0, sp, lr, lsl #24
 92c:	0000000c 	andeq	r0, r0, ip
 930:	0000091c 	andeq	r0, r0, ip, lsl r9
 934:	0000a108 	andeq	sl, r0, r8, lsl #2
 938:	00000030 	andeq	r0, r0, r0, lsr r0
 93c:	0000000c 	andeq	r0, r0, ip
 940:	ffffffff 			; <UNDEFINED> instruction: 0xffffffff
 944:	7c020001 	stcvc	0, cr0, [r2], {1}
 948:	000d0c0e 	andeq	r0, sp, lr, lsl #24
 94c:	0000000c 	andeq	r0, r0, ip
 950:	0000093c 	andeq	r0, r0, ip, lsr r9
 954:	0000a138 	andeq	sl, r0, r8, lsr r1
 958:	00000004 	andeq	r0, r0, r4
