
tests/part2-test2.elf:     file format elf32-littlearm


Disassembly of section .text:

00008000 <__code_start__>:
    8000:	e3a00013 	mov	r0, #19, 0
    8004:	e3800080 	orr	r0, r0, #128, 0	; 0x80
    8008:	e129f000 	msr	CPSR_fc, r0
    800c:	e3a01000 	mov	r1, #0, 0
    8010:	ee071f95 	mcr	15, 0, r1, cr7, cr5, {4}
    8014:	e3a0d302 	mov	sp, #134217728	; 0x8000000
    8018:	e3a0b000 	mov	fp, #0, 0
    801c:	eb000471 	bl	91e8 <_cstart>
    8020:	eb0004ba 	bl	9310 <rpi_reboot>

00008024 <PUT32>:
    8024:	e5801000 	str	r1, [r0]
    8028:	e12fff1e 	bx	lr

0000802c <GET32>:
    802c:	e5900000 	ldr	r0, [r0]
    8030:	e12fff1e 	bx	lr

00008034 <BRANCHTO>:
    8034:	e12fff10 	bx	r0

00008038 <test>:
    8038:	e92d4070 	push	{r4, r5, r6, lr}
    803c:	e24dd018 	sub	sp, sp, #24, 0
    8040:	e59f607c 	ldr	r6, [pc, #124]	; 80c4 <test+0x8c>
    8044:	e59f307c 	ldr	r3, [pc, #124]	; 80c8 <test+0x90>
    8048:	e59f207c 	ldr	r2, [pc, #124]	; 80cc <test+0x94>
    804c:	e1a01006 	mov	r1, r6
    8050:	e59f0078 	ldr	r0, [pc, #120]	; 80d0 <test+0x98>
    8054:	eb0001c7 	bl	8778 <printk>
    8058:	e59f5074 	ldr	r5, [pc, #116]	; 80d4 <test+0x9c>
    805c:	e58d5000 	str	r5, [sp]
    8060:	e59f4070 	ldr	r4, [pc, #112]	; 80d8 <test+0xa0>
    8064:	e58d4004 	str	r4, [sp, #4]
    8068:	e3a0301a 	mov	r3, #26, 0
    806c:	e58d3008 	str	r3, [sp, #8]
    8070:	e1a0300d 	mov	r3, sp
    8074:	e893000e 	ldm	r3, {r1, r2, r3}
    8078:	e3a00004 	mov	r0, #4, 0
    807c:	eb0000b9 	bl	8368 <ckalloc>
    8080:	e5860000 	str	r0, [r6]
    8084:	e3a02004 	mov	r2, #4, 0
    8088:	e3a01000 	mov	r1, #0, 0
    808c:	eb00019b 	bl	8700 <memset>
    8090:	e58d500c 	str	r5, [sp, #12]
    8094:	e58d4010 	str	r4, [sp, #16]
    8098:	e3a0301d 	mov	r3, #29, 0
    809c:	e58d3014 	str	r3, [sp, #20]
    80a0:	e28d3018 	add	r3, sp, #24, 0
    80a4:	e913000e 	ldmdb	r3, {r1, r2, r3}
    80a8:	e3a00004 	mov	r0, #4, 0
    80ac:	eb0000ad 	bl	8368 <ckalloc>
    80b0:	e1a04000 	mov	r4, r0
    80b4:	eb00017d 	bl	86b0 <check_no_leak>
    80b8:	e1a00004 	mov	r0, r4
    80bc:	e28dd018 	add	sp, sp, #24, 0
    80c0:	e8bd8070 	pop	{r4, r5, r6, pc}
    80c4:	0000a6c8 	andeq	sl, r0, r8, asr #13
    80c8:	0000a2a4 	andeq	sl, r0, r4, lsr #5
    80cc:	0000a290 	muleq	r0, r0, r2
    80d0:	00009cd8 	ldrdeq	r9, [r0], -r8
    80d4:	00009d00 	andeq	r9, r0, r0, lsl #26
    80d8:	00009d6c 	andeq	r9, r0, ip, ror #26

000080dc <notmain>:
    80dc:	e92d4010 	push	{r4, lr}
    80e0:	e59f0014 	ldr	r0, [pc, #20]	; 80fc <notmain+0x20>
    80e4:	eb0001a3 	bl	8778 <printk>
    80e8:	ebffffd2 	bl	8038 <test>
    80ec:	e1a01000 	mov	r1, r0
    80f0:	e59f0008 	ldr	r0, [pc, #8]	; 8100 <notmain+0x24>
    80f4:	eb00019f 	bl	8778 <printk>
    80f8:	e8bd8010 	pop	{r4, pc}
    80fc:	00009d14 	andeq	r9, r0, r4, lsl sp
    8100:	00009d5c 	andeq	r9, r0, ip, asr sp

00008104 <ck_first_hdr>:
    8104:	e59f3004 	ldr	r3, [pc, #4]	; 8110 <ck_first_hdr+0xc>
    8108:	e5930000 	ldr	r0, [r3]
    810c:	e12fff1e 	bx	lr
    8110:	0000a2a8 	andeq	sl, r0, r8, lsr #5

00008114 <ck_next_hdr>:
    8114:	e3500000 	cmp	r0, #0, 0
    8118:	012fff1e 	bxeq	lr
    811c:	e5900000 	ldr	r0, [r0]
    8120:	e12fff1e 	bx	lr

00008124 <list_remove>:
    8124:	e92d4030 	push	{r4, r5, lr}
    8128:	e24dd00c 	sub	sp, sp, #12, 0
    812c:	e2503000 	subs	r3, r0, #0, 0
    8130:	0a00000d 	beq	816c <list_remove+0x48>
    8134:	e1a04001 	mov	r4, r1
    8138:	e5930000 	ldr	r0, [r3]
    813c:	e1500001 	cmp	r0, r1
    8140:	0a000011 	beq	818c <list_remove+0x68>
    8144:	e1a05000 	mov	r5, r0
    8148:	ebfffff1 	bl	8114 <ck_next_hdr>
    814c:	e3500000 	cmp	r0, #0, 0
    8150:	0a000010 	beq	8198 <list_remove+0x74>
    8154:	e1540000 	cmp	r4, r0
    8158:	1afffff9 	bne	8144 <list_remove+0x20>
    815c:	e5903000 	ldr	r3, [r0]
    8160:	e5853000 	str	r3, [r5]
    8164:	e28dd00c 	add	sp, sp, #12, 0
    8168:	e8bd8030 	pop	{r4, r5, pc}
    816c:	e59f3040 	ldr	r3, [pc, #64]	; 81b4 <list_remove+0x90>
    8170:	e58d3000 	str	r3, [sp]
    8174:	e3a0303a 	mov	r3, #58, 0	; 0x3a
    8178:	e59f2038 	ldr	r2, [pc, #56]	; 81b8 <list_remove+0x94>
    817c:	e59f1038 	ldr	r1, [pc, #56]	; 81bc <list_remove+0x98>
    8180:	e59f0038 	ldr	r0, [pc, #56]	; 81c0 <list_remove+0x9c>
    8184:	eb00017b 	bl	8778 <printk>
    8188:	eb00040b 	bl	91bc <clean_reboot>
    818c:	e5912000 	ldr	r2, [r1]
    8190:	e5832000 	str	r2, [r3]
    8194:	eafffff2 	b	8164 <list_remove+0x40>
    8198:	e58d4000 	str	r4, [sp]
    819c:	e3a0304d 	mov	r3, #77, 0	; 0x4d
    81a0:	e59f2010 	ldr	r2, [pc, #16]	; 81b8 <list_remove+0x94>
    81a4:	e59f1010 	ldr	r1, [pc, #16]	; 81bc <list_remove+0x98>
    81a8:	e59f0014 	ldr	r0, [pc, #20]	; 81c4 <list_remove+0xa0>
    81ac:	eb000171 	bl	8778 <printk>
    81b0:	eb000401 	bl	91bc <clean_reboot>
    81b4:	00009d94 	muleq	r0, r4, sp
    81b8:	00009e58 	andeq	r9, r0, r8, asr lr
    81bc:	00009d74 	andeq	r9, r0, r4, ror sp
    81c0:	00009d80 	andeq	r9, r0, r0, lsl #27
    81c4:	00009d98 	muleq	r0, r8, sp

000081c8 <ck_hdr_start>:
    81c8:	e2800024 	add	r0, r0, #36, 0	; 0x24
    81cc:	e12fff1e 	bx	lr

000081d0 <ck_hdr_end>:
    81d0:	e92d4010 	push	{r4, lr}
    81d4:	e1a04000 	mov	r4, r0
    81d8:	ebfffffa 	bl	81c8 <ck_hdr_start>
    81dc:	e5943004 	ldr	r3, [r4, #4]
    81e0:	e0800003 	add	r0, r0, r3
    81e4:	e8bd8010 	pop	{r4, pc}

000081e8 <ck_ptr_in_block>:
    81e8:	e1510000 	cmp	r1, r0
    81ec:	3a000008 	bcc	8214 <ck_ptr_in_block+0x2c>
    81f0:	e5903004 	ldr	r3, [r0, #4]
    81f4:	e0833183 	add	r3, r3, r3, lsl #3
    81f8:	e1a03103 	lsl	r3, r3, #2
    81fc:	e2833090 	add	r3, r3, #144, 0	; 0x90
    8200:	e0800003 	add	r0, r0, r3
    8204:	e1500001 	cmp	r0, r1
    8208:	2a000003 	bcs	821c <ck_ptr_in_block+0x34>
    820c:	e3a00000 	mov	r0, #0, 0
    8210:	e12fff1e 	bx	lr
    8214:	e3a00000 	mov	r0, #0, 0
    8218:	e12fff1e 	bx	lr
    821c:	e3a00001 	mov	r0, #1, 0
    8220:	e12fff1e 	bx	lr

00008224 <ck_ptr_is_alloced>:
    8224:	e92d4070 	push	{r4, r5, r6, lr}
    8228:	e1a05000 	mov	r5, r0
    822c:	ebffffb4 	bl	8104 <ck_first_hdr>
    8230:	e1a04000 	mov	r4, r0
    8234:	e3540000 	cmp	r4, #0, 0
    8238:	0a00000c 	beq	8270 <ck_ptr_is_alloced+0x4c>
    823c:	e1a01005 	mov	r1, r5
    8240:	e1a00004 	mov	r0, r4
    8244:	ebffffe7 	bl	81e8 <ck_ptr_in_block>
    8248:	e3500000 	cmp	r0, #0, 0
    824c:	1a000003 	bne	8260 <ck_ptr_is_alloced+0x3c>
    8250:	e1a00004 	mov	r0, r4
    8254:	ebffffae 	bl	8114 <ck_next_hdr>
    8258:	e1a04000 	mov	r4, r0
    825c:	eafffff4 	b	8234 <ck_ptr_is_alloced+0x10>
    8260:	e1a02004 	mov	r2, r4
    8264:	e1a01005 	mov	r1, r5
    8268:	e59f0008 	ldr	r0, [pc, #8]	; 8278 <ck_ptr_is_alloced+0x54>
    826c:	eb000141 	bl	8778 <printk>
    8270:	e1a00004 	mov	r0, r4
    8274:	e8bd8070 	pop	{r4, r5, r6, pc}
    8278:	00009dc4 	andeq	r9, r0, r4, asr #27

0000827c <ckfree>:
    827c:	e92d41f0 	push	{r4, r5, r6, r7, r8, lr}
    8280:	e24dd018 	sub	sp, sp, #24, 0
    8284:	e1a04000 	mov	r4, r0
    8288:	e28d0018 	add	r0, sp, #24, 0
    828c:	e900000e 	stmdb	r0, {r1, r2, r3}
    8290:	e59d600c 	ldr	r6, [sp, #12]
    8294:	e59d7010 	ldr	r7, [sp, #16]
    8298:	e59d8014 	ldr	r8, [sp, #20]
    829c:	e1a03008 	mov	r3, r8
    82a0:	e1a02007 	mov	r2, r7
    82a4:	e1a01006 	mov	r1, r6
    82a8:	e59f0094 	ldr	r0, [pc, #148]	; 8344 <ckfree+0xc8>
    82ac:	eb000131 	bl	8778 <printk>
    82b0:	e1a01004 	mov	r1, r4
    82b4:	e59f008c 	ldr	r0, [pc, #140]	; 8348 <ckfree+0xcc>
    82b8:	eb00012e 	bl	8778 <printk>
    82bc:	e514301c 	ldr	r3, [r4, #-28]	; 0xffffffe4
    82c0:	e353000b 	cmp	r3, #11, 0
    82c4:	1a00000d 	bne	8300 <ckfree+0x84>
    82c8:	e2445024 	sub	r5, r4, #36, 0	; 0x24
    82cc:	e3a0300c 	mov	r3, #12, 0
    82d0:	e504301c 	str	r3, [r4, #-28]	; 0xffffffe4
    82d4:	e1a00004 	mov	r0, r4
    82d8:	ebffffd1 	bl	8224 <ck_ptr_is_alloced>
    82dc:	e3500000 	cmp	r0, #0, 0
    82e0:	0a00000f 	beq	8324 <ckfree+0xa8>
    82e4:	e1a01005 	mov	r1, r5
    82e8:	e59f005c 	ldr	r0, [pc, #92]	; 834c <ckfree+0xd0>
    82ec:	ebffff8c 	bl	8124 <list_remove>
    82f0:	e1a00005 	mov	r0, r5
    82f4:	eb00003f 	bl	83f8 <kr_free>
    82f8:	e28dd018 	add	sp, sp, #24, 0
    82fc:	e8bd81f0 	pop	{r4, r5, r6, r7, r8, pc}
    8300:	e1a03008 	mov	r3, r8
    8304:	e1a02007 	mov	r2, r7
    8308:	e1a01006 	mov	r1, r6
    830c:	e59f003c 	ldr	r0, [pc, #60]	; 8350 <ckfree+0xd4>
    8310:	eb000118 	bl	8778 <printk>
    8314:	e514101c 	ldr	r1, [r4, #-28]	; 0xffffffe4
    8318:	e59f0034 	ldr	r0, [pc, #52]	; 8354 <ckfree+0xd8>
    831c:	eb000115 	bl	8778 <printk>
    8320:	eb0003a5 	bl	91bc <clean_reboot>
    8324:	e59f302c 	ldr	r3, [pc, #44]	; 8358 <ckfree+0xdc>
    8328:	e58d3000 	str	r3, [sp]
    832c:	e3a0305b 	mov	r3, #91, 0	; 0x5b
    8330:	e59f2024 	ldr	r2, [pc, #36]	; 835c <ckfree+0xe0>
    8334:	e59f1024 	ldr	r1, [pc, #36]	; 8360 <ckfree+0xe4>
    8338:	e59f0024 	ldr	r0, [pc, #36]	; 8364 <ckfree+0xe8>
    833c:	eb00010d 	bl	8778 <printk>
    8340:	eb00039d 	bl	91bc <clean_reboot>
    8344:	00009dd4 	ldrdeq	r9, [r0], -r4
    8348:	00009de0 	andeq	r9, r0, r0, ror #27
    834c:	0000a2a8 	andeq	sl, r0, r8, lsr #5
    8350:	00009df0 	strdeq	r9, [r0], -r0
    8354:	00009e08 	andeq	r9, r0, r8, lsl #28
    8358:	00009e30 	andeq	r9, r0, r0, lsr lr
    835c:	00009e64 	andeq	r9, r0, r4, ror #28
    8360:	00009d74 	andeq	r9, r0, r4, ror sp
    8364:	00009d80 	andeq	r9, r0, r0, lsl #27

00008368 <ckalloc>:
    8368:	e92d4070 	push	{r4, r5, r6, lr}
    836c:	e24dd010 	sub	sp, sp, #16, 0
    8370:	e1a06000 	mov	r6, r0
    8374:	e28d5004 	add	r5, sp, #4, 0
    8378:	e885000e 	stm	r5, {r1, r2, r3}
    837c:	e2800024 	add	r0, r0, #36, 0	; 0x24
    8380:	eb00005c 	bl	84f8 <kr_malloc>
    8384:	e1a04000 	mov	r4, r0
    8388:	e3a02024 	mov	r2, #36, 0	; 0x24
    838c:	e3a01000 	mov	r1, #0, 0
    8390:	eb0000da 	bl	8700 <memset>
    8394:	e5846004 	str	r6, [r4, #4]
    8398:	e3a0300b 	mov	r3, #11, 0
    839c:	e5843008 	str	r3, [r4, #8]
    83a0:	e284300c 	add	r3, r4, #12, 0
    83a4:	e8950007 	ldm	r5, {r0, r1, r2}
    83a8:	e8830007 	stm	r3, {r0, r1, r2}
    83ac:	e59d300c 	ldr	r3, [sp, #12]
    83b0:	e59d2008 	ldr	r2, [sp, #8]
    83b4:	e59d1004 	ldr	r1, [sp, #4]
    83b8:	e59f002c 	ldr	r0, [pc, #44]	; 83ec <ckalloc+0x84>
    83bc:	eb0000ed 	bl	8778 <printk>
    83c0:	e2845024 	add	r5, r4, #36, 0	; 0x24
    83c4:	e1a01005 	mov	r1, r5
    83c8:	e59f0020 	ldr	r0, [pc, #32]	; 83f0 <ckalloc+0x88>
    83cc:	eb0000e9 	bl	8778 <printk>
    83d0:	e59f301c 	ldr	r3, [pc, #28]	; 83f4 <ckalloc+0x8c>
    83d4:	e5932000 	ldr	r2, [r3]
    83d8:	e5842000 	str	r2, [r4]
    83dc:	e5834000 	str	r4, [r3]
    83e0:	e1a00005 	mov	r0, r5
    83e4:	e28dd010 	add	sp, sp, #16, 0
    83e8:	e8bd8070 	pop	{r4, r5, r6, pc}
    83ec:	00009dd4 	ldrdeq	r9, [r0], -r4
    83f0:	00009e48 	andeq	r9, r0, r8, asr #28
    83f4:	0000a2a8 	andeq	sl, r0, r8, lsr #5

000083f8 <kr_free>:
    83f8:	e52de004 	push	{lr}		; (str lr, [sp, #-4]!)
    83fc:	e2401008 	sub	r1, r0, #8, 0
    8400:	e59f30a8 	ldr	r3, [pc, #168]	; 84b0 <kr_free+0xb8>
    8404:	e5933000 	ldr	r3, [r3]
    8408:	ea000000 	b	8410 <kr_free+0x18>
    840c:	e1a03002 	mov	r3, r2
    8410:	e1530001 	cmp	r3, r1
    8414:	2a000002 	bcs	8424 <kr_free+0x2c>
    8418:	e5932000 	ldr	r2, [r3]
    841c:	e1520001 	cmp	r2, r1
    8420:	8a000007 	bhi	8444 <kr_free+0x4c>
    8424:	e5932000 	ldr	r2, [r3]
    8428:	e1520003 	cmp	r2, r3
    842c:	8afffff6 	bhi	840c <kr_free+0x14>
    8430:	e1530001 	cmp	r3, r1
    8434:	3a000002 	bcc	8444 <kr_free+0x4c>
    8438:	e1520001 	cmp	r2, r1
    843c:	91a03002 	movls	r3, r2
    8440:	9afffff2 	bls	8410 <kr_free+0x18>
    8444:	e510c004 	ldr	ip, [r0, #-4]
    8448:	e081e18c 	add	lr, r1, ip, lsl #3
    844c:	e5932000 	ldr	r2, [r3]
    8450:	e15e0002 	cmp	lr, r2
    8454:	0a000008 	beq	847c <kr_free+0x84>
    8458:	e5002008 	str	r2, [r0, #-8]
    845c:	e5932004 	ldr	r2, [r3, #4]
    8460:	e083c182 	add	ip, r3, r2, lsl #3
    8464:	e15c0001 	cmp	ip, r1
    8468:	0a00000a 	beq	8498 <kr_free+0xa0>
    846c:	e5831000 	str	r1, [r3]
    8470:	e59f2038 	ldr	r2, [pc, #56]	; 84b0 <kr_free+0xb8>
    8474:	e5823000 	str	r3, [r2]
    8478:	e49df004 	pop	{pc}		; (ldr pc, [sp], #4)
    847c:	e5922004 	ldr	r2, [r2, #4]
    8480:	e08cc002 	add	ip, ip, r2
    8484:	e500c004 	str	ip, [r0, #-4]
    8488:	e5932000 	ldr	r2, [r3]
    848c:	e5922000 	ldr	r2, [r2]
    8490:	e5002008 	str	r2, [r0, #-8]
    8494:	eafffff0 	b	845c <kr_free+0x64>
    8498:	e5101004 	ldr	r1, [r0, #-4]
    849c:	e0822001 	add	r2, r2, r1
    84a0:	e5832004 	str	r2, [r3, #4]
    84a4:	e5102008 	ldr	r2, [r0, #-8]
    84a8:	e5832000 	str	r2, [r3]
    84ac:	eaffffef 	b	8470 <kr_free+0x78>
    84b0:	0000a2b0 			; <UNDEFINED> instruction: 0x0000a2b0

000084b4 <morecore>:
    84b4:	e92d4010 	push	{r4, lr}
    84b8:	e1a04000 	mov	r4, r0
    84bc:	e3500b01 	cmp	r0, #1024	; 0x400
    84c0:	33a04b01 	movcc	r4, #1024	; 0x400
    84c4:	e1a00184 	lsl	r0, r4, #3
    84c8:	eb000050 	bl	8610 <sbrk>
    84cc:	e3700001 	cmn	r0, #1, 0
    84d0:	0a000005 	beq	84ec <morecore+0x38>
    84d4:	e5804004 	str	r4, [r0, #4]
    84d8:	e2800008 	add	r0, r0, #8, 0
    84dc:	ebffffc5 	bl	83f8 <kr_free>
    84e0:	e59f300c 	ldr	r3, [pc, #12]	; 84f4 <morecore+0x40>
    84e4:	e5930000 	ldr	r0, [r3]
    84e8:	e8bd8010 	pop	{r4, pc}
    84ec:	e3a00000 	mov	r0, #0, 0
    84f0:	e8bd8010 	pop	{r4, pc}
    84f4:	0000a2b0 			; <UNDEFINED> instruction: 0x0000a2b0

000084f8 <kr_malloc>:
    84f8:	e92d4010 	push	{r4, lr}
    84fc:	e2804007 	add	r4, r0, #7, 0
    8500:	e1a041a4 	lsr	r4, r4, #3
    8504:	e2844001 	add	r4, r4, #1, 0
    8508:	e59f3090 	ldr	r3, [pc, #144]	; 85a0 <kr_malloc+0xa8>
    850c:	e5932000 	ldr	r2, [r3]
    8510:	e3520000 	cmp	r2, #0, 0
    8514:	0a000001 	beq	8520 <kr_malloc+0x28>
    8518:	e5920000 	ldr	r0, [r2]
    851c:	ea000013 	b	8570 <kr_malloc+0x78>
    8520:	e2832008 	add	r2, r3, #8, 0
    8524:	e5832000 	str	r2, [r3]
    8528:	e5832008 	str	r2, [r3, #8]
    852c:	e3a01000 	mov	r1, #0, 0
    8530:	e583100c 	str	r1, [r3, #12]
    8534:	eafffff7 	b	8518 <kr_malloc+0x20>
    8538:	0a000007 	beq	855c <kr_malloc+0x64>
    853c:	e0433004 	sub	r3, r3, r4
    8540:	e5803004 	str	r3, [r0, #4]
    8544:	e0800183 	add	r0, r0, r3, lsl #3
    8548:	e5804004 	str	r4, [r0, #4]
    854c:	e59f304c 	ldr	r3, [pc, #76]	; 85a0 <kr_malloc+0xa8>
    8550:	e5832000 	str	r2, [r3]
    8554:	e2800008 	add	r0, r0, #8, 0
    8558:	e8bd8010 	pop	{r4, pc}
    855c:	e5903000 	ldr	r3, [r0]
    8560:	e5823000 	str	r3, [r2]
    8564:	eafffff8 	b	854c <kr_malloc+0x54>
    8568:	e1a02000 	mov	r2, r0
    856c:	e5900000 	ldr	r0, [r0]
    8570:	e5903004 	ldr	r3, [r0, #4]
    8574:	e1530004 	cmp	r3, r4
    8578:	2affffee 	bcs	8538 <kr_malloc+0x40>
    857c:	e59f301c 	ldr	r3, [pc, #28]	; 85a0 <kr_malloc+0xa8>
    8580:	e5933000 	ldr	r3, [r3]
    8584:	e1530000 	cmp	r3, r0
    8588:	1afffff6 	bne	8568 <kr_malloc+0x70>
    858c:	e1a00004 	mov	r0, r4
    8590:	ebffffc7 	bl	84b4 <morecore>
    8594:	e3500000 	cmp	r0, #0, 0
    8598:	1afffff2 	bne	8568 <kr_malloc+0x70>
    859c:	e8bd8010 	pop	{r4, pc}
    85a0:	0000a2b0 			; <UNDEFINED> instruction: 0x0000a2b0

000085a4 <mark_all>:
    85a4:	e52de004 	push	{lr}		; (str lr, [sp, #-4]!)
    85a8:	e24dd044 	sub	sp, sp, #68, 0	; 0x44
    85ac:	ebfffed4 	bl	8104 <ck_first_hdr>
    85b0:	e3500000 	cmp	r0, #0, 0
    85b4:	0a000005 	beq	85d0 <mark_all+0x2c>
    85b8:	e3a03000 	mov	r3, #0, 0
    85bc:	e580301c 	str	r3, [r0, #28]
    85c0:	e5803018 	str	r3, [r0, #24]
    85c4:	e1c032b0 	strh	r3, [r0, #32]
    85c8:	ebfffed1 	bl	8114 <ck_next_hdr>
    85cc:	eafffff7 	b	85b0 <mark_all+0xc>
    85d0:	e1a0000d 	mov	r0, sp
    85d4:	eb000047 	bl	86f8 <dump_regs>
    85d8:	e3a03000 	mov	r3, #0, 0
    85dc:	e58d3000 	str	r3, [sp]
    85e0:	e58d3004 	str	r3, [sp, #4]
    85e4:	e58d3008 	str	r3, [sp, #8]
    85e8:	e58d300c 	str	r3, [sp, #12]
    85ec:	e3a03083 	mov	r3, #131, 0	; 0x83
    85f0:	e59f200c 	ldr	r2, [pc, #12]	; 8604 <mark_all+0x60>
    85f4:	e59f100c 	ldr	r1, [pc, #12]	; 8608 <mark_all+0x64>
    85f8:	e59f000c 	ldr	r0, [pc, #12]	; 860c <mark_all+0x68>
    85fc:	eb00005d 	bl	8778 <printk>
    8600:	eb0002ed 	bl	91bc <clean_reboot>
    8604:	00009f00 	andeq	r9, r0, r0, lsl #30
    8608:	00009e6c 	andeq	r9, r0, ip, ror #28
    860c:	00009e74 	andeq	r9, r0, r4, ror lr

00008610 <sbrk>:
    8610:	e92d4010 	push	{r4, lr}
    8614:	e24dd008 	sub	sp, sp, #8, 0
    8618:	e2504000 	subs	r4, r0, #0, 0
    861c:	da00000d 	ble	8658 <sbrk+0x48>
    8620:	e59f3068 	ldr	r3, [pc, #104]	; 8690 <sbrk+0x80>
    8624:	e5933000 	ldr	r3, [r3]
    8628:	e3530000 	cmp	r3, #0, 0
    862c:	1a000011 	bne	8678 <sbrk+0x68>
    8630:	e3a01601 	mov	r1, #1048576	; 0x100000
    8634:	e1a00001 	mov	r0, r1
    8638:	eb00041b 	bl	96ac <kmalloc_init_set_start>
    863c:	e59f304c 	ldr	r3, [pc, #76]	; 8690 <sbrk+0x80>
    8640:	e3a02001 	mov	r2, #1, 0
    8644:	e5832000 	str	r2, [r3]
    8648:	e1a00004 	mov	r0, r4
    864c:	eb000479 	bl	9838 <kmalloc>
    8650:	e28dd008 	add	sp, sp, #8, 0
    8654:	e8bd8010 	pop	{r4, pc}
    8658:	e59f3034 	ldr	r3, [pc, #52]	; 8694 <sbrk+0x84>
    865c:	e58d3000 	str	r3, [sp]
    8660:	e3a03016 	mov	r3, #22, 0
    8664:	e59f202c 	ldr	r2, [pc, #44]	; 8698 <sbrk+0x88>
    8668:	e59f102c 	ldr	r1, [pc, #44]	; 869c <sbrk+0x8c>
    866c:	e59f002c 	ldr	r0, [pc, #44]	; 86a0 <sbrk+0x90>
    8670:	eb000040 	bl	8778 <printk>
    8674:	eb0002d0 	bl	91bc <clean_reboot>
    8678:	e3a03018 	mov	r3, #24, 0
    867c:	e59f2014 	ldr	r2, [pc, #20]	; 8698 <sbrk+0x88>
    8680:	e59f1014 	ldr	r1, [pc, #20]	; 869c <sbrk+0x8c>
    8684:	e59f0018 	ldr	r0, [pc, #24]	; 86a4 <sbrk+0x94>
    8688:	eb00003a 	bl	8778 <printk>
    868c:	eb0002ca 	bl	91bc <clean_reboot>
    8690:	0000a2c0 	andeq	sl, r0, r0, asr #5
    8694:	00009ea0 	andeq	r9, r0, r0, lsr #29
    8698:	00009f0c 	andeq	r9, r0, ip, lsl #30
    869c:	00009e6c 	andeq	r9, r0, ip, ror #28
    86a0:	00009d80 	andeq	r9, r0, r0, lsl #27
    86a4:	00009eb0 			; <UNDEFINED> instruction: 0x00009eb0

000086a8 <ck_find_leaks>:
    86a8:	e92d4010 	push	{r4, lr}
    86ac:	ebffffbc 	bl	85a4 <mark_all>

000086b0 <check_no_leak>:
    86b0:	e92d4010 	push	{r4, lr}
    86b4:	e3a00001 	mov	r0, #1, 0
    86b8:	ebfffffa 	bl	86a8 <ck_find_leaks>

000086bc <check_should_leak>:
    86bc:	e92d4010 	push	{r4, lr}
    86c0:	e3a00001 	mov	r0, #1, 0
    86c4:	ebfffff7 	bl	86a8 <ck_find_leaks>

000086c8 <ck_gc>:
    86c8:	e92d4010 	push	{r4, lr}
    86cc:	ebffffb4 	bl	85a4 <mark_all>

000086d0 <implement_this>:
    86d0:	e92d4010 	push	{r4, lr}
    86d4:	e3a030d1 	mov	r3, #209, 0	; 0xd1
    86d8:	e59f200c 	ldr	r2, [pc, #12]	; 86ec <implement_this+0x1c>
    86dc:	e59f100c 	ldr	r1, [pc, #12]	; 86f0 <implement_this+0x20>
    86e0:	e59f000c 	ldr	r0, [pc, #12]	; 86f4 <implement_this+0x24>
    86e4:	eb000023 	bl	8778 <printk>
    86e8:	eb0002b3 	bl	91bc <clean_reboot>
    86ec:	00009f14 	andeq	r9, r0, r4, lsl pc
    86f0:	00009e6c 	andeq	r9, r0, ip, ror #28
    86f4:	00009ed0 	ldrdeq	r9, [r0], -r0

000086f8 <dump_regs>:
    86f8:	ebfffff4 	bl	86d0 <implement_this>
    86fc:	e12fff1e 	bx	lr

00008700 <memset>:
    8700:	e92d4010 	push	{r4, lr}
    8704:	e0804002 	add	r4, r0, r2
    8708:	e1500004 	cmp	r0, r4
    870c:	28bd8010 	popcs	{r4, pc}
    8710:	e2423001 	sub	r3, r2, #1, 0
    8714:	e3530002 	cmp	r3, #2, 0
    8718:	e6ef1071 	uxtb	r1, r1
    871c:	e1a03000 	mov	r3, r0
    8720:	9a00000b 	bls	8754 <memset+0x54>
    8724:	e181e401 	orr	lr, r1, r1, lsl #8
    8728:	e18ee801 	orr	lr, lr, r1, lsl #16
    872c:	e3c2c003 	bic	ip, r2, #3, 0
    8730:	e18eec01 	orr	lr, lr, r1, lsl #24
    8734:	e08cc000 	add	ip, ip, r0
    8738:	e483e004 	str	lr, [r3], #4
    873c:	e153000c 	cmp	r3, ip
    8740:	1afffffc 	bne	8738 <memset+0x38>
    8744:	e3c23003 	bic	r3, r2, #3, 0
    8748:	e1520003 	cmp	r2, r3
    874c:	e0803003 	add	r3, r0, r3
    8750:	08bd8010 	popeq	{r4, pc}
    8754:	e1a02003 	mov	r2, r3
    8758:	e4c21001 	strb	r1, [r2], #1
    875c:	e1540002 	cmp	r4, r2
    8760:	98bd8010 	popls	{r4, pc}
    8764:	e2832002 	add	r2, r3, #2, 0
    8768:	e1540002 	cmp	r4, r2
    876c:	e5c31001 	strb	r1, [r3, #1]
    8770:	85c31002 	strbhi	r1, [r3, #2]
    8774:	e8bd8010 	pop	{r4, pc}

00008778 <printk>:
    8778:	e92d000f 	push	{r0, r1, r2, r3}
    877c:	e92d4030 	push	{r4, r5, lr}
    8780:	e59f5040 	ldr	r5, [pc, #64]	; 87c8 <printk+0x50>
    8784:	e24dd00c 	sub	sp, sp, #12, 0
    8788:	e28d301c 	add	r3, sp, #28, 0
    878c:	e3a01b01 	mov	r1, #1024	; 0x400
    8790:	e59d2018 	ldr	r2, [sp, #24]
    8794:	e1a00005 	mov	r0, r5
    8798:	e58d3004 	str	r3, [sp, #4]
    879c:	eb0000fb 	bl	8b90 <va_printk>
    87a0:	e1a04000 	mov	r4, r0
    87a4:	e59f3020 	ldr	r3, [pc, #32]	; 87cc <printk+0x54>
    87a8:	e1a00005 	mov	r0, r5
    87ac:	e5933000 	ldr	r3, [r3]
    87b0:	e12fff33 	blx	r3
    87b4:	e1a00004 	mov	r0, r4
    87b8:	e28dd00c 	add	sp, sp, #12, 0
    87bc:	e8bd4030 	pop	{r4, r5, lr}
    87c0:	e28dd010 	add	sp, sp, #16, 0
    87c4:	e12fff1e 	bx	lr
    87c8:	0000a2c4 	andeq	sl, r0, r4, asr #5
    87cc:	0000a290 	muleq	r0, r0, r2

000087d0 <internal_putk>:
    87d0:	e92d4070 	push	{r4, r5, r6, lr}
    87d4:	e1a04000 	mov	r4, r0
    87d8:	e5d00000 	ldrb	r0, [r0]
    87dc:	e3500000 	cmp	r0, #0, 0
    87e0:	0a000005 	beq	87fc <internal_putk+0x2c>
    87e4:	e59f5018 	ldr	r5, [pc, #24]	; 8804 <internal_putk+0x34>
    87e8:	e5953000 	ldr	r3, [r5]
    87ec:	e12fff33 	blx	r3
    87f0:	e5f40001 	ldrb	r0, [r4, #1]!
    87f4:	e3500000 	cmp	r0, #0, 0
    87f8:	1afffffa 	bne	87e8 <internal_putk+0x18>
    87fc:	e3a00001 	mov	r0, #1, 0
    8800:	e8bd8070 	pop	{r4, r5, r6, pc}
    8804:	0000a2a0 	andeq	sl, r0, r0, lsr #5

00008808 <emit.constprop.0>:
    8808:	e92d41f0 	push	{r4, r5, r6, r7, r8, lr}
    880c:	e3530080 	cmp	r3, #128, 0	; 0x80
    8810:	e1a0c000 	mov	ip, r0
    8814:	e24dd048 	sub	sp, sp, #72, 0	; 0x48
    8818:	e1a00001 	mov	r0, r1
    881c:	ca000069 	bgt	89c8 <emit.constprop.0+0x1c0>
    8820:	e24c1002 	sub	r1, ip, #2, 0
    8824:	e1a0c002 	mov	ip, r2
    8828:	e351000e 	cmp	r1, #14, 0
    882c:	979ff101 	ldrls	pc, [pc, r1, lsl #2]
    8830:	ea0000a7 	b	8ad4 <emit.constprop.0+0x2cc>
    8834:	000089a0 	andeq	r8, r0, r0, lsr #19
    8838:	00008ad4 	ldrdeq	r8, [r0], -r4
    883c:	00008ad4 	ldrdeq	r8, [r0], -r4
    8840:	00008ad4 	ldrdeq	r8, [r0], -r4
    8844:	00008ad4 	ldrdeq	r8, [r0], -r4
    8848:	00008ad4 	ldrdeq	r8, [r0], -r4
    884c:	00008a7c 	andeq	r8, r0, ip, ror sl
    8850:	00008ad4 	ldrdeq	r8, [r0], -r4
    8854:	00008a1c 	andeq	r8, r0, ip, lsl sl
    8858:	00008ad4 	ldrdeq	r8, [r0], -r4
    885c:	00008ad4 	ldrdeq	r8, [r0], -r4
    8860:	00008ad4 	ldrdeq	r8, [r0], -r4
    8864:	00008ad4 	ldrdeq	r8, [r0], -r4
    8868:	00008ad4 	ldrdeq	r8, [r0], -r4
    886c:	00008874 	andeq	r8, r0, r4, ror r8
    8870:	e3a0307f 	mov	r3, #127, 0	; 0x7f
    8874:	e28d2008 	add	r2, sp, #8, 0
    8878:	e1a04002 	mov	r4, r2
    887c:	e59f1288 	ldr	r1, [pc, #648]	; 8b0c <emit.constprop.0+0x304>
    8880:	e20ce00f 	and	lr, ip, #15, 0
    8884:	e7d1e00e 	ldrb	lr, [r1, lr]
    8888:	e35c000f 	cmp	ip, #15, 0
    888c:	e4c4e001 	strb	lr, [r4], #1
    8890:	e1a0c22c 	lsr	ip, ip, #4
    8894:	8afffff9 	bhi	8880 <emit.constprop.0+0x78>
    8898:	e3a0c078 	mov	ip, #120, 0	; 0x78
    889c:	e1a0e004 	mov	lr, r4
    88a0:	e3a01030 	mov	r1, #48, 0	; 0x30
    88a4:	e4cec002 	strb	ip, [lr], #2
    88a8:	e5c41001 	strb	r1, [r4, #1]
    88ac:	e04e1002 	sub	r1, lr, r2
    88b0:	e1510003 	cmp	r1, r3
    88b4:	aa000083 	bge	8ac8 <emit.constprop.0+0x2c0>
    88b8:	e1510003 	cmp	r1, r3
    88bc:	a3a0c001 	movge	ip, #1, 0
    88c0:	b3a0c000 	movlt	ip, #0, 0
    88c4:	e2434001 	sub	r4, r3, #1, 0
    88c8:	e0444001 	sub	r4, r4, r1
    88cc:	b0436001 	sublt	r6, r3, r1
    88d0:	a3a06001 	movge	r6, #1, 0
    88d4:	e3540002 	cmp	r4, #2, 0
    88d8:	938cc001 	orrls	ip, ip, #1, 0
    88dc:	e35c0000 	cmp	ip, #0, 0
    88e0:	1a000075 	bne	8abc <emit.constprop.0+0x2b4>
    88e4:	e1a0c00e 	mov	ip, lr
    88e8:	e3c65003 	bic	r5, r6, #3, 0
    88ec:	e59f721c 	ldr	r7, [pc, #540]	; 8b10 <emit.constprop.0+0x308>
    88f0:	e085500e 	add	r5, r5, lr
    88f4:	e48c7004 	str	r7, [ip], #4
    88f8:	e15c0005 	cmp	ip, r5
    88fc:	1afffffc 	bne	88f4 <emit.constprop.0+0xec>
    8900:	e3c6c003 	bic	ip, r6, #3, 0
    8904:	e156000c 	cmp	r6, ip
    8908:	e08e500c 	add	r5, lr, ip
    890c:	e08cc001 	add	ip, ip, r1
    8910:	0a000008 	beq	8938 <emit.constprop.0+0x130>
    8914:	e3a07020 	mov	r7, #32, 0
    8918:	e28c8001 	add	r8, ip, #1, 0
    891c:	e1580003 	cmp	r8, r3
    8920:	e5c57000 	strb	r7, [r5]
    8924:	aa000003 	bge	8938 <emit.constprop.0+0x130>
    8928:	e28cc002 	add	ip, ip, #2, 0
    892c:	e15c0003 	cmp	ip, r3
    8930:	e5c57001 	strb	r7, [r5, #1]
    8934:	b5c57002 	strblt	r7, [r5, #2]
    8938:	e1510003 	cmp	r1, r3
    893c:	a3a04000 	movge	r4, #0, 0
    8940:	e08e6006 	add	r6, lr, r6
    8944:	e0461002 	sub	r1, r6, r2
    8948:	e08ee004 	add	lr, lr, r4
    894c:	e3a03000 	mov	r3, #0, 0
    8950:	e351007f 	cmp	r1, #127, 0	; 0x7f
    8954:	c241407f 	subgt	r4, r1, #127, 0	; 0x7f
    8958:	c0822004 	addgt	r2, r2, r4
    895c:	e152000e 	cmp	r2, lr
    8960:	e5c63000 	strb	r3, [r6]
    8964:	8a00004f 	bhi	8aa8 <emit.constprop.0+0x2a0>
    8968:	e28ee001 	add	lr, lr, #1, 0
    896c:	e1a0300e 	mov	r3, lr
    8970:	e240c001 	sub	ip, r0, #1, 0
    8974:	e5734001 	ldrb	r4, [r3, #-1]!
    8978:	e1530002 	cmp	r3, r2
    897c:	e5ec4001 	strb	r4, [ip, #1]!
    8980:	1afffffb 	bne	8974 <emit.constprop.0+0x16c>
    8984:	e04ee003 	sub	lr, lr, r3
    8988:	e3a03000 	mov	r3, #0, 0
    898c:	e080e00e 	add	lr, r0, lr
    8990:	e5ce3000 	strb	r3, [lr]
    8994:	e28dd048 	add	sp, sp, #72, 0	; 0x48
    8998:	e8bd81f0 	pop	{r4, r5, r6, r7, r8, pc}
    899c:	e3a0307f 	mov	r3, #127, 0	; 0x7f
    89a0:	e28d2008 	add	r2, sp, #8, 0
    89a4:	e1a0e002 	mov	lr, r2
    89a8:	e59f1164 	ldr	r1, [pc, #356]	; 8b14 <emit.constprop.0+0x30c>
    89ac:	e20c4001 	and	r4, ip, #1, 0
    89b0:	e7d14004 	ldrb	r4, [r1, r4]
    89b4:	e35c0001 	cmp	ip, #1, 0
    89b8:	e4ce4001 	strb	r4, [lr], #1
    89bc:	e1a0c0ac 	lsr	ip, ip, #1
    89c0:	8afffff9 	bhi	89ac <emit.constprop.0+0x1a4>
    89c4:	eaffffb8 	b	88ac <emit.constprop.0+0xa4>
    89c8:	e24c3002 	sub	r3, ip, #2, 0
    89cc:	e1a0c002 	mov	ip, r2
    89d0:	e353000e 	cmp	r3, #14, 0
    89d4:	979ff103 	ldrls	pc, [pc, r3, lsl #2]
    89d8:	ea00003d 	b	8ad4 <emit.constprop.0+0x2cc>
    89dc:	0000899c 	muleq	r0, ip, r9
    89e0:	00008ad4 	ldrdeq	r8, [r0], -r4
    89e4:	00008ad4 	ldrdeq	r8, [r0], -r4
    89e8:	00008ad4 	ldrdeq	r8, [r0], -r4
    89ec:	00008ad4 	ldrdeq	r8, [r0], -r4
    89f0:	00008ad4 	ldrdeq	r8, [r0], -r4
    89f4:	00008af4 	strdeq	r8, [r0], -r4
    89f8:	00008ad4 	ldrdeq	r8, [r0], -r4
    89fc:	00008a18 	andeq	r8, r0, r8, lsl sl
    8a00:	00008ad4 	ldrdeq	r8, [r0], -r4
    8a04:	00008ad4 	ldrdeq	r8, [r0], -r4
    8a08:	00008ad4 	ldrdeq	r8, [r0], -r4
    8a0c:	00008ad4 	ldrdeq	r8, [r0], -r4
    8a10:	00008ad4 	ldrdeq	r8, [r0], -r4
    8a14:	00008870 	andeq	r8, r0, r0, ror r8
    8a18:	e3a0307f 	mov	r3, #127, 0	; 0x7f
    8a1c:	e59d1060 	ldr	r1, [sp, #96]	; 0x60
    8a20:	e59f70f0 	ldr	r7, [pc, #240]	; 8b18 <emit.constprop.0+0x310>
    8a24:	e0118fa2 	ands	r8, r1, r2, lsr #31
    8a28:	1262c000 	rsbne	ip, r2, #0, 0
    8a2c:	e28d2008 	add	r2, sp, #8, 0
    8a30:	13a08001 	movne	r8, #1, 0
    8a34:	e1a0e002 	mov	lr, r2
    8a38:	e59f60dc 	ldr	r6, [pc, #220]	; 8b1c <emit.constprop.0+0x314>
    8a3c:	e1a0500c 	mov	r5, ip
    8a40:	e0814c96 	umull	r4, r1, r6, ip
    8a44:	e1a011a1 	lsr	r1, r1, #3
    8a48:	e0814101 	add	r4, r1, r1, lsl #2
    8a4c:	e04cc084 	sub	ip, ip, r4, lsl #1
    8a50:	e7d7400c 	ldrb	r4, [r7, ip]
    8a54:	e3550009 	cmp	r5, #9, 0
    8a58:	e1a0c001 	mov	ip, r1
    8a5c:	e1a0100e 	mov	r1, lr
    8a60:	e4ce4001 	strb	r4, [lr], #1
    8a64:	8afffff4 	bhi	8a3c <emit.constprop.0+0x234>
    8a68:	e3580000 	cmp	r8, #0, 0
    8a6c:	13a0c02d 	movne	ip, #45, 0	; 0x2d
    8a70:	15cec000 	strbne	ip, [lr]
    8a74:	1281e002 	addne	lr, r1, #2, 0
    8a78:	eaffff8b 	b	88ac <emit.constprop.0+0xa4>
    8a7c:	e3530001 	cmp	r3, #1, 0
    8a80:	e5cd2008 	strb	r2, [sp, #8]
    8a84:	c3a01001 	movgt	r1, #1, 0
    8a88:	c28de009 	addgt	lr, sp, #9, 0
    8a8c:	c28d2008 	addgt	r2, sp, #8, 0
    8a90:	caffff88 	bgt	88b8 <emit.constprop.0+0xb0>
    8a94:	e3a03000 	mov	r3, #0, 0
    8a98:	e28de008 	add	lr, sp, #8, 0
    8a9c:	e1a0200e 	mov	r2, lr
    8aa0:	e5cd3009 	strb	r3, [sp, #9]
    8aa4:	eaffffaf 	b	8968 <emit.constprop.0+0x160>
    8aa8:	e1a0e000 	mov	lr, r0
    8aac:	e3a03000 	mov	r3, #0, 0
    8ab0:	e5ce3000 	strb	r3, [lr]
    8ab4:	e28dd048 	add	sp, sp, #72, 0	; 0x48
    8ab8:	e8bd81f0 	pop	{r4, r5, r6, r7, r8, pc}
    8abc:	e1a0c001 	mov	ip, r1
    8ac0:	e1a0500e 	mov	r5, lr
    8ac4:	eaffff92 	b	8914 <emit.constprop.0+0x10c>
    8ac8:	e1a0600e 	mov	r6, lr
    8acc:	e24ee001 	sub	lr, lr, #1, 0
    8ad0:	eaffff9d 	b	894c <emit.constprop.0+0x144>
    8ad4:	e59f2044 	ldr	r2, [pc, #68]	; 8b20 <emit.constprop.0+0x318>
    8ad8:	e3a03079 	mov	r3, #121, 0	; 0x79
    8adc:	e59f1040 	ldr	r1, [pc, #64]	; 8b24 <emit.constprop.0+0x31c>
    8ae0:	e58d2000 	str	r2, [sp]
    8ae4:	e59f003c 	ldr	r0, [pc, #60]	; 8b28 <emit.constprop.0+0x320>
    8ae8:	e59f203c 	ldr	r2, [pc, #60]	; 8b2c <emit.constprop.0+0x324>
    8aec:	ebffff21 	bl	8778 <printk>
    8af0:	eb0001b1 	bl	91bc <clean_reboot>
    8af4:	e5cd2008 	strb	r2, [sp, #8]
    8af8:	e3a0307f 	mov	r3, #127, 0	; 0x7f
    8afc:	e3a01001 	mov	r1, #1, 0
    8b00:	e28de009 	add	lr, sp, #9, 0
    8b04:	e28d2008 	add	r2, sp, #8, 0
    8b08:	eaffff6a 	b	88b8 <emit.constprop.0+0xb0>
    8b0c:	00009f38 	andeq	r9, r0, r8, lsr pc
    8b10:	20202020 	eorcs	r2, r0, r0, lsr #32
    8b14:	00009f4c 	andeq	r9, r0, ip, asr #30
    8b18:	00009f50 	andeq	r9, r0, r0, asr pc
    8b1c:	cccccccd 	stclgt	12, cr12, [ip], {205}	; 0xcd
    8b20:	00009eac 	andeq	r9, r0, ip, lsr #29
    8b24:	00009f24 	andeq	r9, r0, r4, lsr #30
    8b28:	00009d80 	andeq	r9, r0, r0, lsl #27
    8b2c:	0000a064 	andeq	sl, r0, r4, rrx

00008b30 <rpi_set_output>:
    8b30:	e3500000 	cmp	r0, #0, 0
    8b34:	0a000005 	beq	8b50 <rpi_set_output+0x20>
    8b38:	e59f3038 	ldr	r3, [pc, #56]	; 8b78 <rpi_set_output+0x48>
    8b3c:	e3510000 	cmp	r1, #0, 0
    8b40:	e5830000 	str	r0, [r3]
    8b44:	159f3030 	ldrne	r3, [pc, #48]	; 8b7c <rpi_set_output+0x4c>
    8b48:	15831000 	strne	r1, [r3]
    8b4c:	e12fff1e 	bx	lr
    8b50:	e52de004 	push	{lr}		; (str lr, [sp, #-4]!)
    8b54:	e59f2024 	ldr	r2, [pc, #36]	; 8b80 <rpi_set_output+0x50>
    8b58:	e24dd00c 	sub	sp, sp, #12, 0
    8b5c:	e3a03020 	mov	r3, #32, 0
    8b60:	e59f101c 	ldr	r1, [pc, #28]	; 8b84 <rpi_set_output+0x54>
    8b64:	e58d2000 	str	r2, [sp]
    8b68:	e59f0018 	ldr	r0, [pc, #24]	; 8b88 <rpi_set_output+0x58>
    8b6c:	e59f2018 	ldr	r2, [pc, #24]	; 8b8c <rpi_set_output+0x5c>
    8b70:	ebffff00 	bl	8778 <printk>
    8b74:	eb000190 	bl	91bc <clean_reboot>
    8b78:	0000a2a0 	andeq	sl, r0, r0, lsr #5
    8b7c:	0000a290 	muleq	r0, r0, r2
    8b80:	00009f5c 	andeq	r9, r0, ip, asr pc
    8b84:	00009f24 	andeq	r9, r0, r4, lsr #30
    8b88:	00009d80 	andeq	r9, r0, r0, lsl #27
    8b8c:	0000a06c 	andeq	sl, r0, ip, rrx

00008b90 <va_printk>:
    8b90:	e92d4ff0 	push	{r4, r5, r6, r7, r8, r9, sl, fp, lr}
    8b94:	e1a0b000 	mov	fp, r0
    8b98:	e3a00000 	mov	r0, #0, 0
    8b9c:	e5cb0000 	strb	r0, [fp]
    8ba0:	e5d2c000 	ldrb	ip, [r2]
    8ba4:	e2417001 	sub	r7, r1, #1, 0
    8ba8:	e08b7007 	add	r7, fp, r7
    8bac:	e15c0000 	cmp	ip, r0
    8bb0:	115b0007 	cmpne	fp, r7
    8bb4:	e24ddf47 	sub	sp, sp, #284	; 0x11c
    8bb8:	e58d2010 	str	r2, [sp, #16]
    8bbc:	2a000159 	bcs	9128 <va_printk+0x598>
    8bc0:	e1a06002 	mov	r6, r2
    8bc4:	e1a08003 	mov	r8, r3
    8bc8:	e1a0400b 	mov	r4, fp
    8bcc:	e59fa5a4 	ldr	sl, [pc, #1444]	; 9178 <va_printk+0x5e8>
    8bd0:	e58db00c 	str	fp, [sp, #12]
    8bd4:	ea000005 	b	8bf0 <va_printk+0x60>
    8bd8:	e4c4c001 	strb	ip, [r4], #1
    8bdc:	e2866001 	add	r6, r6, #1, 0
    8be0:	e5d6c000 	ldrb	ip, [r6]
    8be4:	e35c0000 	cmp	ip, #0, 0
    8be8:	11570004 	cmpne	r7, r4
    8bec:	9a00002f 	bls	8cb0 <va_printk+0x120>
    8bf0:	e35c0025 	cmp	ip, #37, 0	; 0x25
    8bf4:	1afffff7 	bne	8bd8 <va_printk+0x48>
    8bf8:	e5d62001 	ldrb	r2, [r6, #1]
    8bfc:	e3520025 	cmp	r2, #37, 0	; 0x25
    8c00:	04c4c001 	strbeq	ip, [r4], #1
    8c04:	02866002 	addeq	r6, r6, #2, 0
    8c08:	0afffff4 	beq	8be0 <va_printk+0x50>
    8c0c:	e2423030 	sub	r3, r2, #48, 0	; 0x30
    8c10:	e3530009 	cmp	r3, #9, 0
    8c14:	e3a05000 	mov	r5, #0, 0
    8c18:	e2866001 	add	r6, r6, #1, 0
    8c1c:	8a000008 	bhi	8c44 <va_printk+0xb4>
    8c20:	e0855105 	add	r5, r5, r5, lsl #2
    8c24:	e0825085 	add	r5, r2, r5, lsl #1
    8c28:	e5f62001 	ldrb	r2, [r6, #1]!
    8c2c:	e2455030 	sub	r5, r5, #48, 0	; 0x30
    8c30:	e2423030 	sub	r3, r2, #48, 0	; 0x30
    8c34:	e3530009 	cmp	r3, #9, 0
    8c38:	9afffff8 	bls	8c20 <va_printk+0x90>
    8c3c:	e355001f 	cmp	r5, #31, 0
    8c40:	8a00013a 	bhi	9130 <va_printk+0x5a0>
    8c44:	e2423062 	sub	r3, r2, #98, 0	; 0x62
    8c48:	e3530016 	cmp	r3, #22, 0
    8c4c:	979ff103 	ldrls	pc, [pc, r3, lsl #2]
    8c50:	ea00011b 	b	90c4 <va_printk+0x534>
    8c54:	00008f08 	andeq	r8, r0, r8, lsl #30
    8c58:	00008e04 	andeq	r8, r0, r4, lsl #28
    8c5c:	00008dfc 	strdeq	r8, [r0], -ip
    8c60:	000090c4 	andeq	r9, r0, r4, asr #1
    8c64:	00009100 	andeq	r9, r0, r0, lsl #2
    8c68:	000090c4 	andeq	r9, r0, r4, asr #1
    8c6c:	000090c4 	andeq	r9, r0, r4, asr #1
    8c70:	000090c4 	andeq	r9, r0, r4, asr #1
    8c74:	000090c4 	andeq	r9, r0, r4, asr #1
    8c78:	000090c4 	andeq	r9, r0, r4, asr #1
    8c7c:	00008d0c 	andeq	r8, r0, ip, lsl #26
    8c80:	000090c4 	andeq	r9, r0, r4, asr #1
    8c84:	000090c4 	andeq	r9, r0, r4, asr #1
    8c88:	000090c4 	andeq	r9, r0, r4, asr #1
    8c8c:	00008cc8 	andeq	r8, r0, r8, asr #25
    8c90:	000090c4 	andeq	r9, r0, r4, asr #1
    8c94:	000090c4 	andeq	r9, r0, r4, asr #1
    8c98:	00009000 	andeq	r9, r0, r0
    8c9c:	000090c4 	andeq	r9, r0, r4, asr #1
    8ca0:	00008dd8 	ldrdeq	r8, [r0], -r8	; <UNPREDICTABLE>
    8ca4:	000090c4 	andeq	r9, r0, r4, asr #1
    8ca8:	000090c4 	andeq	r9, r0, r4, asr #1
    8cac:	00008cc8 	andeq	r8, r0, r8, asr #25
    8cb0:	e59db00c 	ldr	fp, [sp, #12]
    8cb4:	e3a03000 	mov	r3, #0, 0
    8cb8:	e4c43001 	strb	r3, [r4], #1
    8cbc:	e044000b 	sub	r0, r4, fp
    8cc0:	e28ddf47 	add	sp, sp, #284	; 0x11c
    8cc4:	e8bd8ff0 	pop	{r4, r5, r6, r7, r8, r9, sl, fp, pc}
    8cc8:	e3a01000 	mov	r1, #0, 0
    8ccc:	e1a03005 	mov	r3, r5
    8cd0:	e4982004 	ldr	r2, [r8], #4
    8cd4:	e3a00010 	mov	r0, #16, 0
    8cd8:	e58d1000 	str	r1, [sp]
    8cdc:	e28d1018 	add	r1, sp, #24, 0
    8ce0:	ebfffec8 	bl	8808 <emit.constprop.0>
    8ce4:	e1a05000 	mov	r5, r0
    8ce8:	e2866001 	add	r6, r6, #1, 0
    8cec:	e2455001 	sub	r5, r5, #1, 0
    8cf0:	e5f53001 	ldrb	r3, [r5, #1]!
    8cf4:	e3530000 	cmp	r3, #0, 0
    8cf8:	0affffb8 	beq	8be0 <va_printk+0x50>
    8cfc:	e4c43001 	strb	r3, [r4], #1
    8d00:	e1570004 	cmp	r7, r4
    8d04:	8afffff9 	bhi	8cf0 <va_printk+0x160>
    8d08:	eaffffb4 	b	8be0 <va_printk+0x50>
    8d0c:	e3a02003 	mov	r2, #3, 0
    8d10:	e1a00006 	mov	r0, r6
    8d14:	e59f1460 	ldr	r1, [pc, #1120]	; 917c <va_printk+0x5ec>
    8d18:	eb0003da 	bl	9c88 <strncmp>
    8d1c:	e3500000 	cmp	r0, #0, 0
    8d20:	0a000005 	beq	8d3c <va_printk+0x1ac>
    8d24:	e3a02003 	mov	r2, #3, 0
    8d28:	e1a00006 	mov	r0, r6
    8d2c:	e59f144c 	ldr	r1, [pc, #1100]	; 9180 <va_printk+0x5f0>
    8d30:	eb0003d4 	bl	9c88 <strncmp>
    8d34:	e3500000 	cmp	r0, #0, 0
    8d38:	1a00010b 	bne	916c <va_printk+0x5dc>
    8d3c:	e2888007 	add	r8, r8, #7, 0
    8d40:	e3c88007 	bic	r8, r8, #7, 0
    8d44:	e598b004 	ldr	fp, [r8, #4]
    8d48:	e4989008 	ldr	r9, [r8], #8
    8d4c:	e1a0100b 	mov	r1, fp
    8d50:	e59f042c 	ldr	r0, [pc, #1068]	; 9184 <va_printk+0x5f4>
    8d54:	ebfffe87 	bl	8778 <printk>
    8d58:	e1a01009 	mov	r1, r9
    8d5c:	e59f0424 	ldr	r0, [pc, #1060]	; 9188 <va_printk+0x5f8>
    8d60:	ebfffe84 	bl	8778 <printk>
    8d64:	e3a02003 	mov	r2, #3, 0
    8d68:	e1a00006 	mov	r0, r6
    8d6c:	e59f1408 	ldr	r1, [pc, #1032]	; 917c <va_printk+0x5ec>
    8d70:	eb0003c4 	bl	9c88 <strncmp>
    8d74:	e2503000 	subs	r3, r0, #0, 0
    8d78:	e1a02003 	mov	r2, r3
    8d7c:	e2863002 	add	r3, r6, #2, 0
    8d80:	e58d3014 	str	r3, [sp, #20]
    8d84:	1a00009f 	bne	9008 <va_printk+0x478>
    8d88:	e1a06002 	mov	r6, r2
    8d8c:	e1a03005 	mov	r3, r5
    8d90:	e58d2000 	str	r2, [sp]
    8d94:	e28d1018 	add	r1, sp, #24, 0
    8d98:	e1a0200b 	mov	r2, fp
    8d9c:	e3a00010 	mov	r0, #16, 0
    8da0:	ebfffe98 	bl	8808 <emit.constprop.0>
    8da4:	e1a0c000 	mov	ip, r0
    8da8:	e1a03005 	mov	r3, r5
    8dac:	e58d6000 	str	r6, [sp]
    8db0:	e28d1098 	add	r1, sp, #152, 0	; 0x98
    8db4:	e1a02009 	mov	r2, r9
    8db8:	e3a00010 	mov	r0, #16, 0
    8dbc:	e1a0500c 	mov	r5, ip
    8dc0:	ebfffe90 	bl	8808 <emit.constprop.0>
    8dc4:	e28d0018 	add	r0, sp, #24, 0
    8dc8:	e28d109a 	add	r1, sp, #154, 0	; 0x9a
    8dcc:	e59d6014 	ldr	r6, [sp, #20]
    8dd0:	eb00038a 	bl	9c00 <strcat>
    8dd4:	eaffffc3 	b	8ce8 <va_printk+0x158>
    8dd8:	e3a01000 	mov	r1, #0, 0
    8ddc:	e1a03005 	mov	r3, r5
    8de0:	e4982004 	ldr	r2, [r8], #4
    8de4:	e3a0000a 	mov	r0, #10, 0
    8de8:	e58d1000 	str	r1, [sp]
    8dec:	e28d1018 	add	r1, sp, #24, 0
    8df0:	ebfffe84 	bl	8808 <emit.constprop.0>
    8df4:	e1a05000 	mov	r5, r0
    8df8:	eaffffba 	b	8ce8 <va_printk+0x158>
    8dfc:	e3a01001 	mov	r1, #1, 0
    8e00:	eafffff5 	b	8ddc <va_printk+0x24c>
    8e04:	e4983004 	ldr	r3, [r8], #4
    8e08:	e3550001 	cmp	r5, #1, 0
    8e0c:	e5cd3098 	strb	r3, [sp, #152]	; 0x98
    8e10:	9a0000a6 	bls	90b0 <va_printk+0x520>
    8e14:	e2453002 	sub	r3, r5, #2, 0
    8e18:	e3530002 	cmp	r3, #2, 0
    8e1c:	e2451001 	sub	r1, r5, #1, 0
    8e20:	9a0000bc 	bls	9118 <va_printk+0x588>
    8e24:	e59f0360 	ldr	r0, [pc, #864]	; 918c <va_printk+0x5fc>
    8e28:	e1a02121 	lsr	r2, r1, #2
    8e2c:	e3520001 	cmp	r2, #1, 0
    8e30:	e58d0099 	str	r0, [sp, #153]	; 0x99
    8e34:	0a00000e 	beq	8e74 <va_printk+0x2e4>
    8e38:	e3520002 	cmp	r2, #2, 0
    8e3c:	e58d009d 	str	r0, [sp, #157]	; 0x9d
    8e40:	0a00000b 	beq	8e74 <va_printk+0x2e4>
    8e44:	e3520003 	cmp	r2, #3, 0
    8e48:	e58d00a1 	str	r0, [sp, #161]	; 0xa1
    8e4c:	0a000008 	beq	8e74 <va_printk+0x2e4>
    8e50:	e3520004 	cmp	r2, #4, 0
    8e54:	e58d00a5 	str	r0, [sp, #165]	; 0xa5
    8e58:	0a000005 	beq	8e74 <va_printk+0x2e4>
    8e5c:	e3520005 	cmp	r2, #5, 0
    8e60:	e58d00a9 	str	r0, [sp, #169]	; 0xa9
    8e64:	0a000002 	beq	8e74 <va_printk+0x2e4>
    8e68:	e3520007 	cmp	r2, #7, 0
    8e6c:	e58d00ad 	str	r0, [sp, #173]	; 0xad
    8e70:	058d00b1 	streq	r0, [sp, #177]	; 0xb1
    8e74:	e3c12003 	bic	r2, r1, #3, 0
    8e78:	e1510002 	cmp	r1, r2
    8e7c:	e28dc099 	add	ip, sp, #153, 0	; 0x99
    8e80:	e08c0002 	add	r0, ip, r2
    8e84:	e2822001 	add	r2, r2, #1, 0
    8e88:	0a000008 	beq	8eb0 <va_printk+0x320>
    8e8c:	e3a0e020 	mov	lr, #32, 0
    8e90:	e2829001 	add	r9, r2, #1, 0
    8e94:	e1550009 	cmp	r5, r9
    8e98:	e5c0e000 	strb	lr, [r0]
    8e9c:	da000003 	ble	8eb0 <va_printk+0x320>
    8ea0:	e2822002 	add	r2, r2, #2, 0
    8ea4:	e1550002 	cmp	r5, r2
    8ea8:	e5c0e001 	strb	lr, [r0, #1]
    8eac:	c5c0e002 	strbgt	lr, [r0, #2]
    8eb0:	e3a0e000 	mov	lr, #0, 0
    8eb4:	e28d0098 	add	r0, sp, #152, 0	; 0x98
    8eb8:	e08c2001 	add	r2, ip, r1
    8ebc:	e0422000 	sub	r2, r2, r0
    8ec0:	e352007f 	cmp	r2, #127, 0	; 0x7f
    8ec4:	c242207f 	subgt	r2, r2, #127, 0	; 0x7f
    8ec8:	e08c3003 	add	r3, ip, r3
    8ecc:	c0800002 	addgt	r0, r0, r2
    8ed0:	e1530000 	cmp	r3, r0
    8ed4:	e7cce001 	strb	lr, [ip, r1]
    8ed8:	3a00006c 	bcc	9090 <va_printk+0x500>
    8edc:	e283c001 	add	ip, r3, #1, 0
    8ee0:	e1a0300c 	mov	r3, ip
    8ee4:	e28d5018 	add	r5, sp, #24, 0
    8ee8:	e2452001 	sub	r2, r5, #1, 0
    8eec:	e5731001 	ldrb	r1, [r3, #-1]!
    8ef0:	e1500003 	cmp	r0, r3
    8ef4:	e5e21001 	strb	r1, [r2, #1]!
    8ef8:	1afffffb 	bne	8eec <va_printk+0x35c>
    8efc:	e04c3000 	sub	r3, ip, r0
    8f00:	e0853003 	add	r3, r5, r3
    8f04:	ea00003a 	b	8ff4 <va_printk+0x464>
    8f08:	e28d1098 	add	r1, sp, #152, 0	; 0x98
    8f0c:	e1a03001 	mov	r3, r1
    8f10:	e4980004 	ldr	r0, [r8], #4
    8f14:	e200c001 	and	ip, r0, #1, 0
    8f18:	e7dac00c 	ldrb	ip, [sl, ip]
    8f1c:	e3500001 	cmp	r0, #1, 0
    8f20:	e1a02003 	mov	r2, r3
    8f24:	e1a000a0 	lsr	r0, r0, #1
    8f28:	e4c3c001 	strb	ip, [r3], #1
    8f2c:	8afffff8 	bhi	8f14 <va_printk+0x384>
    8f30:	e0430001 	sub	r0, r3, r1
    8f34:	e1550000 	cmp	r5, r0
    8f38:	da000057 	ble	909c <va_printk+0x50c>
    8f3c:	e045c000 	sub	ip, r5, r0
    8f40:	e24ce001 	sub	lr, ip, #1, 0
    8f44:	e35e0002 	cmp	lr, #2, 0
    8f48:	e1a0e003 	mov	lr, r3
    8f4c:	9a00000a 	bls	8f7c <va_printk+0x3ec>
    8f50:	e3cc9003 	bic	r9, ip, #3, 0
    8f54:	e0899003 	add	r9, r9, r3
    8f58:	e59fb22c 	ldr	fp, [pc, #556]	; 918c <va_printk+0x5fc>
    8f5c:	e48eb004 	str	fp, [lr], #4
    8f60:	e15e0009 	cmp	lr, r9
    8f64:	1afffffb 	bne	8f58 <va_printk+0x3c8>
    8f68:	e3cce003 	bic	lr, ip, #3, 0
    8f6c:	e15e000c 	cmp	lr, ip
    8f70:	e080000e 	add	r0, r0, lr
    8f74:	e083e00e 	add	lr, r3, lr
    8f78:	0a000008 	beq	8fa0 <va_printk+0x410>
    8f7c:	e3a09020 	mov	r9, #32, 0
    8f80:	e280b001 	add	fp, r0, #1, 0
    8f84:	e155000b 	cmp	r5, fp
    8f88:	e5ce9000 	strb	r9, [lr]
    8f8c:	da000003 	ble	8fa0 <va_printk+0x410>
    8f90:	e2800002 	add	r0, r0, #2, 0
    8f94:	e1550000 	cmp	r5, r0
    8f98:	e5ce9001 	strb	r9, [lr, #1]
    8f9c:	c5ce9002 	strbgt	r9, [lr, #2]
    8fa0:	e3a0e000 	mov	lr, #0, 0
    8fa4:	e083000c 	add	r0, r3, ip
    8fa8:	e0400001 	sub	r0, r0, r1
    8fac:	e350007f 	cmp	r0, #127, 0	; 0x7f
    8fb0:	e082200c 	add	r2, r2, ip
    8fb4:	e7c3e00c 	strb	lr, [r3, ip]
    8fb8:	da000001 	ble	8fc4 <va_printk+0x434>
    8fbc:	e240007f 	sub	r0, r0, #127, 0	; 0x7f
    8fc0:	e0811000 	add	r1, r1, r0
    8fc4:	e1510002 	cmp	r1, r2
    8fc8:	8a000030 	bhi	9090 <va_printk+0x500>
    8fcc:	e2822001 	add	r2, r2, #1, 0
    8fd0:	e1a03002 	mov	r3, r2
    8fd4:	e28d5018 	add	r5, sp, #24, 0
    8fd8:	e245c001 	sub	ip, r5, #1, 0
    8fdc:	e5730001 	ldrb	r0, [r3, #-1]!
    8fe0:	e1530001 	cmp	r3, r1
    8fe4:	e5ec0001 	strb	r0, [ip, #1]!
    8fe8:	1afffffb 	bne	8fdc <va_printk+0x44c>
    8fec:	e0423003 	sub	r3, r2, r3
    8ff0:	e0853003 	add	r3, r5, r3
    8ff4:	e3a02000 	mov	r2, #0, 0
    8ff8:	e5c32000 	strb	r2, [r3]
    8ffc:	eaffff39 	b	8ce8 <va_printk+0x158>
    9000:	e4985004 	ldr	r5, [r8], #4
    9004:	eaffff37 	b	8ce8 <va_printk+0x158>
    9008:	e3a02003 	mov	r2, #3, 0
    900c:	e1a00006 	mov	r0, r6
    9010:	e59f1168 	ldr	r1, [pc, #360]	; 9180 <va_printk+0x5f0>
    9014:	eb00031b 	bl	9c88 <strncmp>
    9018:	e2503000 	subs	r3, r0, #0, 0
    901c:	1a00004b 	bne	9150 <va_printk+0x5c0>
    9020:	e1a06003 	mov	r6, r3
    9024:	e1a0200b 	mov	r2, fp
    9028:	e58d3000 	str	r3, [sp]
    902c:	e28d1018 	add	r1, sp, #24, 0
    9030:	e1a03005 	mov	r3, r5
    9034:	e3a0000a 	mov	r0, #10, 0
    9038:	ebfffdf2 	bl	8808 <emit.constprop.0>
    903c:	e1a0c000 	mov	ip, r0
    9040:	e1a03005 	mov	r3, r5
    9044:	e1a02009 	mov	r2, r9
    9048:	e28d1098 	add	r1, sp, #152, 0	; 0x98
    904c:	e3a0000a 	mov	r0, #10, 0
    9050:	e58d6000 	str	r6, [sp]
    9054:	e1a0500c 	mov	r5, ip
    9058:	ebfffdea 	bl	8808 <emit.constprop.0>
    905c:	e59f112c 	ldr	r1, [pc, #300]	; 9190 <va_printk+0x600>
    9060:	e28d0018 	add	r0, sp, #24, 0
    9064:	eb0002f0 	bl	9c2c <strcmp>
    9068:	e3500000 	cmp	r0, #0, 0
    906c:	e28d1098 	add	r1, sp, #152, 0	; 0x98
    9070:	e28d0018 	add	r0, sp, #24, 0
    9074:	1a000002 	bne	9084 <va_printk+0x4f4>
    9078:	eb0002fc 	bl	9c70 <strcpy>
    907c:	e59d6014 	ldr	r6, [sp, #20]
    9080:	eaffff18 	b	8ce8 <va_printk+0x158>
    9084:	eb0002dd 	bl	9c00 <strcat>
    9088:	e59d6014 	ldr	r6, [sp, #20]
    908c:	eaffff15 	b	8ce8 <va_printk+0x158>
    9090:	e28d5018 	add	r5, sp, #24, 0
    9094:	e1a03005 	mov	r3, r5
    9098:	eaffffd5 	b	8ff4 <va_printk+0x464>
    909c:	e3a0c000 	mov	ip, #0, 0
    90a0:	e350007f 	cmp	r0, #127, 0	; 0x7f
    90a4:	e5c3c000 	strb	ip, [r3]
    90a8:	caffffc3 	bgt	8fbc <va_printk+0x42c>
    90ac:	eaffffc6 	b	8fcc <va_printk+0x43c>
    90b0:	e3a02000 	mov	r2, #0, 0
    90b4:	e28d3098 	add	r3, sp, #152, 0	; 0x98
    90b8:	e1a00003 	mov	r0, r3
    90bc:	e5cd2099 	strb	r2, [sp, #153]	; 0x99
    90c0:	eaffff85 	b	8edc <va_printk+0x34c>
    90c4:	e3a03000 	mov	r3, #0, 0
    90c8:	e1a01002 	mov	r1, r2
    90cc:	e5c63001 	strb	r3, [r6, #1]
    90d0:	e59f00bc 	ldr	r0, [pc, #188]	; 9194 <va_printk+0x604>
    90d4:	ebfffda7 	bl	8778 <printk>
    90d8:	e59f30b8 	ldr	r3, [pc, #184]	; 9198 <va_printk+0x608>
    90dc:	e59d0010 	ldr	r0, [sp, #16]
    90e0:	e5933000 	ldr	r3, [r3]
    90e4:	e12fff33 	blx	r3
    90e8:	e3a030e2 	mov	r3, #226, 0	; 0xe2
    90ec:	e59f20a8 	ldr	r2, [pc, #168]	; 919c <va_printk+0x60c>
    90f0:	e59f10a8 	ldr	r1, [pc, #168]	; 91a0 <va_printk+0x610>
    90f4:	e59f00a8 	ldr	r0, [pc, #168]	; 91a4 <va_printk+0x614>
    90f8:	ebfffd9e 	bl	8778 <printk>
    90fc:	eb00002e 	bl	91bc <clean_reboot>
    9100:	e3a030be 	mov	r3, #190, 0	; 0xbe
    9104:	e59f2090 	ldr	r2, [pc, #144]	; 919c <va_printk+0x60c>
    9108:	e59f1090 	ldr	r1, [pc, #144]	; 91a0 <va_printk+0x610>
    910c:	e59f0094 	ldr	r0, [pc, #148]	; 91a8 <va_printk+0x618>
    9110:	ebfffd98 	bl	8778 <printk>
    9114:	eb000028 	bl	91bc <clean_reboot>
    9118:	e28dc099 	add	ip, sp, #153, 0	; 0x99
    911c:	e1a0000c 	mov	r0, ip
    9120:	e3a02001 	mov	r2, #1, 0
    9124:	eaffff58 	b	8e8c <va_printk+0x2fc>
    9128:	e1a0400b 	mov	r4, fp
    912c:	eafffee0 	b	8cb4 <va_printk+0x124>
    9130:	e3a03098 	mov	r3, #152, 0	; 0x98
    9134:	e59f2070 	ldr	r2, [pc, #112]	; 91ac <va_printk+0x61c>
    9138:	e59f1060 	ldr	r1, [pc, #96]	; 91a0 <va_printk+0x610>
    913c:	e58d2000 	str	r2, [sp]
    9140:	e59f0068 	ldr	r0, [pc, #104]	; 91b0 <va_printk+0x620>
    9144:	e59f2050 	ldr	r2, [pc, #80]	; 919c <va_printk+0x60c>
    9148:	ebfffd8a 	bl	8778 <printk>
    914c:	eb00001a 	bl	91bc <clean_reboot>
    9150:	e3a030b6 	mov	r3, #182, 0	; 0xb6
    9154:	e59f2040 	ldr	r2, [pc, #64]	; 919c <va_printk+0x60c>
    9158:	e59f1040 	ldr	r1, [pc, #64]	; 91a0 <va_printk+0x610>
    915c:	e59f0050 	ldr	r0, [pc, #80]	; 91b4 <va_printk+0x624>
    9160:	e58d6000 	str	r6, [sp]
    9164:	ebfffd83 	bl	8778 <printk>
    9168:	eb000013 	bl	91bc <clean_reboot>
    916c:	e3a0309f 	mov	r3, #159, 0	; 0x9f
    9170:	e59f2040 	ldr	r2, [pc, #64]	; 91b8 <va_printk+0x628>
    9174:	eaffffef 	b	9138 <va_printk+0x5a8>
    9178:	00009f4c 	andeq	r9, r0, ip, asr #30
    917c:	00009f70 	andeq	r9, r0, r0, ror pc
    9180:	00009f84 	andeq	r9, r0, r4, lsl #31
    9184:	00009f74 	andeq	r9, r0, r4, ror pc
    9188:	00009f7c 	andeq	r9, r0, ip, ror pc
    918c:	20202020 	eorcs	r2, r0, r0, lsr #32
    9190:	00009eac 	andeq	r9, r0, ip, lsr #29
    9194:	0000a014 	andeq	sl, r0, r4, lsl r0
    9198:	0000a290 	muleq	r0, r0, r2
    919c:	0000a07c 	andeq	sl, r0, ip, ror r0
    91a0:	00009f24 	andeq	r9, r0, r4, lsr #30
    91a4:	0000a044 	andeq	sl, r0, r4, asr #32
    91a8:	00009fec 	andeq	r9, r0, ip, ror #31
    91ac:	00009f64 	andeq	r9, r0, r4, ror #30
    91b0:	00009d80 	andeq	r9, r0, r0, lsl #27
    91b4:	00009fc4 	andeq	r9, r0, r4, asr #31
    91b8:	00009f88 	andeq	r9, r0, r8, lsl #31

000091bc <clean_reboot>:
    91bc:	e59f301c 	ldr	r3, [pc, #28]	; 91e0 <clean_reboot+0x24>
    91c0:	e92d4010 	push	{r4, lr}
    91c4:	e5933000 	ldr	r3, [r3]
    91c8:	e59f0014 	ldr	r0, [pc, #20]	; 91e4 <clean_reboot+0x28>
    91cc:	e12fff33 	blx	r3
    91d0:	eb00011b 	bl	9644 <uart_flush_tx>
    91d4:	e3a0000a 	mov	r0, #10, 0
    91d8:	eb000082 	bl	93e8 <delay_ms>
    91dc:	eb00004b 	bl	9310 <rpi_reboot>
    91e0:	0000a290 	muleq	r0, r0, r2
    91e4:	0000a088 	andeq	sl, r0, r8, lsl #1

000091e8 <_cstart>:
    91e8:	e92d4070 	push	{r4, r5, r6, lr}
    91ec:	eb00003b 	bl	92e0 <custom_loader>
    91f0:	e59f20e0 	ldr	r2, [pc, #224]	; 92d8 <_cstart+0xf0>
    91f4:	e59fc0e0 	ldr	ip, [pc, #224]	; 92dc <_cstart+0xf4>
    91f8:	e152000c 	cmp	r2, ip
    91fc:	2a00002e 	bcs	92bc <_cstart+0xd4>
    9200:	e24c1001 	sub	r1, ip, #1, 0
    9204:	e0411002 	sub	r1, r1, r2
    9208:	e3510017 	cmp	r1, #23, 0
    920c:	e1a03122 	lsr	r3, r2, #2
    9210:	e1a01121 	lsr	r1, r1, #2
    9214:	e2811001 	add	r1, r1, #1, 0
    9218:	e2033001 	and	r3, r3, #1, 0
    921c:	9a00002b 	bls	92d0 <_cstart+0xe8>
    9220:	e3530000 	cmp	r3, #0, 0
    9224:	11a00002 	movne	r0, r2
    9228:	13a0e000 	movne	lr, #0, 0
    922c:	e3a04000 	mov	r4, #0, 0
    9230:	e3a05000 	mov	r5, #0, 0
    9234:	e0411003 	sub	r1, r1, r3
    9238:	01a00002 	moveq	r0, r2
    923c:	e0823103 	add	r3, r2, r3, lsl #2
    9240:	e1a020a1 	lsr	r2, r1, #1
    9244:	1480e004 	strne	lr, [r0], #4
    9248:	e0832182 	add	r2, r3, r2, lsl #3
    924c:	e0c340f8 	strd	r4, [r3], #8
    9250:	e1520003 	cmp	r2, r3
    9254:	1afffffc 	bne	924c <_cstart+0x64>
    9258:	e3c13001 	bic	r3, r1, #1, 0
    925c:	e1510003 	cmp	r1, r3
    9260:	e0803103 	add	r3, r0, r3, lsl #2
    9264:	0a000014 	beq	92bc <_cstart+0xd4>
    9268:	e1a01003 	mov	r1, r3
    926c:	e3a02000 	mov	r2, #0, 0
    9270:	e4812004 	str	r2, [r1], #4
    9274:	e151000c 	cmp	r1, ip
    9278:	2a00000f 	bcs	92bc <_cstart+0xd4>
    927c:	e2831008 	add	r1, r3, #8, 0
    9280:	e151000c 	cmp	r1, ip
    9284:	e5832004 	str	r2, [r3, #4]
    9288:	2a00000b 	bcs	92bc <_cstart+0xd4>
    928c:	e283100c 	add	r1, r3, #12, 0
    9290:	e151000c 	cmp	r1, ip
    9294:	e5832008 	str	r2, [r3, #8]
    9298:	2a000007 	bcs	92bc <_cstart+0xd4>
    929c:	e2831010 	add	r1, r3, #16, 0
    92a0:	e151000c 	cmp	r1, ip
    92a4:	e583200c 	str	r2, [r3, #12]
    92a8:	2a000003 	bcs	92bc <_cstart+0xd4>
    92ac:	e2831014 	add	r1, r3, #20, 0
    92b0:	e151000c 	cmp	r1, ip
    92b4:	e5832010 	str	r2, [r3, #16]
    92b8:	35832014 	strcc	r2, [r3, #20]
    92bc:	eb000082 	bl	94cc <uart_init>
    92c0:	e3a03001 	mov	r3, #1, 0
    92c4:	ee0f3f1c 	mcr	15, 0, r3, cr15, cr12, {0}
    92c8:	ebfffb83 	bl	80dc <notmain>
    92cc:	ebffffba 	bl	91bc <clean_reboot>
    92d0:	e1a03002 	mov	r3, r2
    92d4:	eaffffe3 	b	9268 <_cstart+0x80>
    92d8:	0000a2a8 	andeq	sl, r0, r8, lsr #5
    92dc:	0000a6d0 	ldrdeq	sl, [r0], -r0

000092e0 <custom_loader>:
    92e0:	e12fff1e 	bx	lr

000092e4 <at_user_level>:
    92e4:	e10f0000 	mrs	r0, CPSR
    92e8:	e200001f 	and	r0, r0, #31, 0
    92ec:	e2400010 	sub	r0, r0, #16, 0
    92f0:	e16f0f10 	clz	r0, r0
    92f4:	e1a002a0 	lsr	r0, r0, #5
    92f8:	e12fff1e 	bx	lr

000092fc <set_user_level>:
    92fc:	e10f3000 	mrs	r3, CPSR
    9300:	e3c3301f 	bic	r3, r3, #31, 0
    9304:	e3833010 	orr	r3, r3, #16, 0
    9308:	e129f003 	msr	CPSR_fc, r3
    930c:	e12fff1e 	bx	lr

00009310 <rpi_reboot>:
    9310:	e92d4010 	push	{r4, lr}
    9314:	e10f3000 	mrs	r3, CPSR
    9318:	e203301f 	and	r3, r3, #31, 0
    931c:	e3530010 	cmp	r3, #16, 0
    9320:	1a000003 	bne	9334 <rpi_reboot+0x24>
    9324:	e10f3000 	mrs	r3, CPSR
    9328:	e3c3301f 	bic	r3, r3, #31, 0
    932c:	e3833010 	orr	r3, r3, #16, 0
    9330:	e129f003 	msr	CPSR_fc, r3
    9334:	eb00025f 	bl	9cb8 <reboot_callout>
    9338:	eb0000c1 	bl	9644 <uart_flush_tx>
    933c:	e3a0000a 	mov	r0, #10, 0
    9340:	eb000028 	bl	93e8 <delay_ms>
    9344:	e59f1014 	ldr	r1, [pc, #20]	; 9360 <rpi_reboot+0x50>
    9348:	e59f0014 	ldr	r0, [pc, #20]	; 9364 <rpi_reboot+0x54>
    934c:	ebfffb34 	bl	8024 <PUT32>
    9350:	e59f1010 	ldr	r1, [pc, #16]	; 9368 <rpi_reboot+0x58>
    9354:	e59f0010 	ldr	r0, [pc, #16]	; 936c <rpi_reboot+0x5c>
    9358:	ebfffb31 	bl	8024 <PUT32>
    935c:	eafffffe 	b	935c <rpi_reboot+0x4c>
    9360:	5a000001 	bpl	936c <rpi_reboot+0x5c>
    9364:	20100024 	andscs	r0, r0, r4, lsr #32
    9368:	5a000020 	bpl	93f0 <delay_ms+0x8>
    936c:	2010001c 	andscs	r0, r0, ip, lsl r0

00009370 <timer_get_usec_raw>:
    9370:	e59f0000 	ldr	r0, [pc]	; 9378 <timer_get_usec_raw+0x8>
    9374:	eafffb2c 	b	802c <GET32>
    9378:	20003004 	andcs	r3, r0, r4

0000937c <timer_get_usec>:
    937c:	e92d4010 	push	{r4, lr}
    9380:	eb00024d 	bl	9cbc <dev_barrier>
    9384:	e59f0010 	ldr	r0, [pc, #16]	; 939c <timer_get_usec+0x20>
    9388:	ebfffb27 	bl	802c <GET32>
    938c:	e1a04000 	mov	r4, r0
    9390:	eb000249 	bl	9cbc <dev_barrier>
    9394:	e1a00004 	mov	r0, r4
    9398:	e8bd8010 	pop	{r4, pc}
    939c:	20003004 	andcs	r3, r0, r4

000093a0 <delay_us>:
    93a0:	e92d41f0 	push	{r4, r5, r6, r7, r8, lr}
    93a4:	e1a06000 	mov	r6, r0
    93a8:	eb000243 	bl	9cbc <dev_barrier>
    93ac:	e59f0030 	ldr	r0, [pc, #48]	; 93e4 <delay_us+0x44>
    93b0:	ebfffb1d 	bl	802c <GET32>
    93b4:	e1a05000 	mov	r5, r0
    93b8:	eb00023f 	bl	9cbc <dev_barrier>
    93bc:	e59f7020 	ldr	r7, [pc, #32]	; 93e4 <delay_us+0x44>
    93c0:	eb00023d 	bl	9cbc <dev_barrier>
    93c4:	e1a00007 	mov	r0, r7
    93c8:	ebfffb17 	bl	802c <GET32>
    93cc:	e1a04000 	mov	r4, r0
    93d0:	e0444005 	sub	r4, r4, r5
    93d4:	eb000238 	bl	9cbc <dev_barrier>
    93d8:	e1540006 	cmp	r4, r6
    93dc:	3afffff7 	bcc	93c0 <delay_us+0x20>
    93e0:	e8bd81f0 	pop	{r4, r5, r6, r7, r8, pc}
    93e4:	20003004 	andcs	r3, r0, r4

000093e8 <delay_ms>:
    93e8:	e92d41f0 	push	{r4, r5, r6, r7, r8, lr}
    93ec:	e0604280 	rsb	r4, r0, r0, lsl #5
    93f0:	e0800104 	add	r0, r0, r4, lsl #2
    93f4:	e1a04180 	lsl	r4, r0, #3
    93f8:	eb00022f 	bl	9cbc <dev_barrier>
    93fc:	e59f0030 	ldr	r0, [pc, #48]	; 9434 <delay_ms+0x4c>
    9400:	ebfffb09 	bl	802c <GET32>
    9404:	e1a06000 	mov	r6, r0
    9408:	eb00022b 	bl	9cbc <dev_barrier>
    940c:	e59f7020 	ldr	r7, [pc, #32]	; 9434 <delay_ms+0x4c>
    9410:	eb000229 	bl	9cbc <dev_barrier>
    9414:	e1a00007 	mov	r0, r7
    9418:	ebfffb03 	bl	802c <GET32>
    941c:	e1a05000 	mov	r5, r0
    9420:	e0455006 	sub	r5, r5, r6
    9424:	eb000224 	bl	9cbc <dev_barrier>
    9428:	e1540005 	cmp	r4, r5
    942c:	8afffff7 	bhi	9410 <delay_ms+0x28>
    9430:	e8bd81f0 	pop	{r4, r5, r6, r7, r8, pc}
    9434:	20003004 	andcs	r3, r0, r4

00009438 <delay_sec>:
    9438:	e92d41f0 	push	{r4, r5, r6, r7, r8, lr}
    943c:	e0604280 	rsb	r4, r0, r0, lsl #5
    9440:	e0644304 	rsb	r4, r4, r4, lsl #6
    9444:	e0800184 	add	r0, r0, r4, lsl #3
    9448:	e1a04300 	lsl	r4, r0, #6
    944c:	eb00021a 	bl	9cbc <dev_barrier>
    9450:	e59f0030 	ldr	r0, [pc, #48]	; 9488 <delay_sec+0x50>
    9454:	ebfffaf4 	bl	802c <GET32>
    9458:	e1a06000 	mov	r6, r0
    945c:	eb000216 	bl	9cbc <dev_barrier>
    9460:	e59f7020 	ldr	r7, [pc, #32]	; 9488 <delay_sec+0x50>
    9464:	eb000214 	bl	9cbc <dev_barrier>
    9468:	e1a00007 	mov	r0, r7
    946c:	ebfffaee 	bl	802c <GET32>
    9470:	e1a05000 	mov	r5, r0
    9474:	e0455006 	sub	r5, r5, r6
    9478:	eb00020f 	bl	9cbc <dev_barrier>
    947c:	e1540005 	cmp	r4, r5
    9480:	8afffff7 	bhi	9464 <delay_sec+0x2c>
    9484:	e8bd81f0 	pop	{r4, r5, r6, r7, r8, pc}
    9488:	20003004 	andcs	r3, r0, r4

0000948c <and_in32>:
    948c:	e92d4070 	push	{r4, r5, r6, lr}
    9490:	e1a04000 	mov	r4, r0
    9494:	e1a05001 	mov	r5, r1
    9498:	ebfffae3 	bl	802c <GET32>
    949c:	e0001005 	and	r1, r0, r5
    94a0:	e1a00004 	mov	r0, r4
    94a4:	ebfffade 	bl	8024 <PUT32>
    94a8:	e8bd8070 	pop	{r4, r5, r6, pc}

000094ac <or_in32>:
    94ac:	e92d4070 	push	{r4, r5, r6, lr}
    94b0:	e1a04000 	mov	r4, r0
    94b4:	e1a05001 	mov	r5, r1
    94b8:	ebfffadb 	bl	802c <GET32>
    94bc:	e1801005 	orr	r1, r0, r5
    94c0:	e1a00004 	mov	r0, r4
    94c4:	ebfffad6 	bl	8024 <PUT32>
    94c8:	e8bd8070 	pop	{r4, r5, r6, pc}

000094cc <uart_init>:
    94cc:	e92d4010 	push	{r4, lr}
    94d0:	e3a01002 	mov	r1, #2, 0
    94d4:	e3a0000e 	mov	r0, #14, 0
    94d8:	eb000153 	bl	9a2c <gpio_set_function>
    94dc:	e3a01002 	mov	r1, #2, 0
    94e0:	e3a0000f 	mov	r0, #15, 0
    94e4:	eb000150 	bl	9a2c <gpio_set_function>
    94e8:	eb0001f3 	bl	9cbc <dev_barrier>
    94ec:	e3a01001 	mov	r1, #1, 0
    94f0:	e59f0064 	ldr	r0, [pc, #100]	; 955c <uart_init+0x90>
    94f4:	ebffffec 	bl	94ac <or_in32>
    94f8:	eb0001ef 	bl	9cbc <dev_barrier>
    94fc:	e59f405c 	ldr	r4, [pc, #92]	; 9560 <uart_init+0x94>
    9500:	e3a01000 	mov	r1, #0, 0
    9504:	e1a00004 	mov	r0, r4
    9508:	ebfffac5 	bl	8024 <PUT32>
    950c:	e3a01000 	mov	r1, #0, 0
    9510:	e59f004c 	ldr	r0, [pc, #76]	; 9564 <uart_init+0x98>
    9514:	ebfffac2 	bl	8024 <PUT32>
    9518:	e3a01003 	mov	r1, #3, 0
    951c:	e59f0044 	ldr	r0, [pc, #68]	; 9568 <uart_init+0x9c>
    9520:	ebfffabf 	bl	8024 <PUT32>
    9524:	e3a01000 	mov	r1, #0, 0
    9528:	e59f003c 	ldr	r0, [pc, #60]	; 956c <uart_init+0xa0>
    952c:	ebfffabc 	bl	8024 <PUT32>
    9530:	e3a010c7 	mov	r1, #199, 0	; 0xc7
    9534:	e59f0034 	ldr	r0, [pc, #52]	; 9570 <uart_init+0xa4>
    9538:	ebfffab9 	bl	8024 <PUT32>
    953c:	e59f1030 	ldr	r1, [pc, #48]	; 9574 <uart_init+0xa8>
    9540:	e59f0030 	ldr	r0, [pc, #48]	; 9578 <uart_init+0xac>
    9544:	ebfffab6 	bl	8024 <PUT32>
    9548:	e3a01003 	mov	r1, #3, 0
    954c:	e1a00004 	mov	r0, r4
    9550:	ebfffab3 	bl	8024 <PUT32>
    9554:	eb0001d8 	bl	9cbc <dev_barrier>
    9558:	e8bd8010 	pop	{r4, pc}
    955c:	20215004 	eorcs	r5, r1, r4
    9560:	20215060 	eorcs	r5, r1, r0, rrx
    9564:	20215044 	eorcs	r5, r1, r4, asr #32
    9568:	2021504c 	eorcs	r5, r1, ip, asr #32
    956c:	20215050 	eorcs	r5, r1, r0, asr r0
    9570:	20215048 	eorcs	r5, r1, r8, asr #32
    9574:	0000010e 	andeq	r0, r0, lr, lsl #2
    9578:	20215068 	eorcs	r5, r1, r8, rrx

0000957c <uart_can_getc>:
    957c:	e92d4010 	push	{r4, lr}
    9580:	e59f0008 	ldr	r0, [pc, #8]	; 9590 <uart_can_getc+0x14>
    9584:	ebfffaa8 	bl	802c <GET32>
    9588:	e2000001 	and	r0, r0, #1, 0
    958c:	e8bd8010 	pop	{r4, pc}
    9590:	20215064 	eorcs	r5, r1, r4, rrx

00009594 <uart_can_putc>:
    9594:	e92d4010 	push	{r4, lr}
    9598:	e59f0010 	ldr	r0, [pc, #16]	; 95b0 <uart_can_putc+0x1c>
    959c:	ebfffaa2 	bl	802c <GET32>
    95a0:	e3100002 	tst	r0, #2, 0
    95a4:	13a00001 	movne	r0, #1, 0
    95a8:	03a00000 	moveq	r0, #0, 0
    95ac:	e8bd8010 	pop	{r4, pc}
    95b0:	20215064 	eorcs	r5, r1, r4, rrx

000095b4 <uart_getc>:
    95b4:	e92d4010 	push	{r4, lr}
    95b8:	eb0001bf 	bl	9cbc <dev_barrier>
    95bc:	ebffffee 	bl	957c <uart_can_getc>
    95c0:	e3500000 	cmp	r0, #0, 0
    95c4:	0afffffc 	beq	95bc <uart_getc+0x8>
    95c8:	e59f0010 	ldr	r0, [pc, #16]	; 95e0 <uart_getc+0x2c>
    95cc:	ebfffa96 	bl	802c <GET32>
    95d0:	e6ef4070 	uxtb	r4, r0
    95d4:	eb0001b8 	bl	9cbc <dev_barrier>
    95d8:	e1a00004 	mov	r0, r4
    95dc:	e8bd8010 	pop	{r4, pc}
    95e0:	20215040 	eorcs	r5, r1, r0, asr #32

000095e4 <uart_putc>:
    95e4:	e92d4010 	push	{r4, lr}
    95e8:	e1a04000 	mov	r4, r0
    95ec:	eb0001b2 	bl	9cbc <dev_barrier>
    95f0:	ebffffe7 	bl	9594 <uart_can_putc>
    95f4:	e3500000 	cmp	r0, #0, 0
    95f8:	0afffffc 	beq	95f0 <uart_putc+0xc>
    95fc:	e6ef1074 	uxtb	r1, r4
    9600:	e59f0008 	ldr	r0, [pc, #8]	; 9610 <uart_putc+0x2c>
    9604:	ebfffa86 	bl	8024 <PUT32>
    9608:	eb0001ab 	bl	9cbc <dev_barrier>
    960c:	e8bd8010 	pop	{r4, pc}
    9610:	20215040 	eorcs	r5, r1, r0, asr #32

00009614 <uart_has_data>:
    9614:	e92d4010 	push	{r4, lr}
    9618:	eb0001a7 	bl	9cbc <dev_barrier>
    961c:	ebffffd6 	bl	957c <uart_can_getc>
    9620:	e8bd8010 	pop	{r4, pc}

00009624 <uart_tx_is_empty>:
    9624:	e92d4010 	push	{r4, lr}
    9628:	eb0001a3 	bl	9cbc <dev_barrier>
    962c:	e59f000c 	ldr	r0, [pc, #12]	; 9640 <uart_tx_is_empty+0x1c>
    9630:	ebfffa7d 	bl	802c <GET32>
    9634:	e1a004a0 	lsr	r0, r0, #9
    9638:	e2000001 	and	r0, r0, #1, 0
    963c:	e8bd8010 	pop	{r4, pc}
    9640:	20215064 	eorcs	r5, r1, r4, rrx

00009644 <uart_flush_tx>:
    9644:	e92d4010 	push	{r4, lr}
    9648:	ebfffff5 	bl	9624 <uart_tx_is_empty>
    964c:	e3500000 	cmp	r0, #0, 0
    9650:	0afffffc 	beq	9648 <uart_flush_tx+0x4>
    9654:	e8bd8010 	pop	{r4, pc}

00009658 <uart_disable>:
    9658:	e92d4010 	push	{r4, lr}
    965c:	ebfffff8 	bl	9644 <uart_flush_tx>
    9660:	eb000195 	bl	9cbc <dev_barrier>
    9664:	e3e01001 	mvn	r1, #1, 0
    9668:	e59f0008 	ldr	r0, [pc, #8]	; 9678 <uart_disable+0x20>
    966c:	ebffff86 	bl	948c <and_in32>
    9670:	eb000191 	bl	9cbc <dev_barrier>
    9674:	e8bd8010 	pop	{r4, pc}
    9678:	20215004 	eorcs	r5, r1, r4

0000967c <kmalloc_heap_end>:
    967c:	e59f3004 	ldr	r3, [pc, #4]	; 9688 <kmalloc_heap_end+0xc>
    9680:	e5930000 	ldr	r0, [r3]
    9684:	e12fff1e 	bx	lr
    9688:	0000a294 	muleq	r0, r4, r2

0000968c <kmalloc_heap_start>:
    968c:	e59f3004 	ldr	r3, [pc, #4]	; 9698 <kmalloc_heap_start+0xc>
    9690:	e5930004 	ldr	r0, [r3, #4]
    9694:	e12fff1e 	bx	lr
    9698:	0000a294 	muleq	r0, r4, r2

0000969c <kmalloc_heap_ptr>:
    969c:	e59f3004 	ldr	r3, [pc, #4]	; 96a8 <kmalloc_heap_ptr+0xc>
    96a0:	e5930000 	ldr	r0, [r3]
    96a4:	e12fff1e 	bx	lr
    96a8:	0000a294 	muleq	r0, r4, r2

000096ac <kmalloc_init_set_start>:
    96ac:	e52de004 	push	{lr}		; (str lr, [sp, #-4]!)
    96b0:	e24dd00c 	sub	sp, sp, #12, 0
    96b4:	e3510000 	cmp	r1, #0, 0
    96b8:	0a00000a 	beq	96e8 <kmalloc_init_set_start+0x3c>
    96bc:	e59f306c 	ldr	r3, [pc, #108]	; 9730 <kmalloc_init_set_start+0x84>
    96c0:	e5933000 	ldr	r3, [r3]
    96c4:	e1530000 	cmp	r3, r0
    96c8:	8a00000e 	bhi	9708 <kmalloc_init_set_start+0x5c>
    96cc:	e59f305c 	ldr	r3, [pc, #92]	; 9730 <kmalloc_init_set_start+0x84>
    96d0:	e5830000 	str	r0, [r3]
    96d4:	e5830004 	str	r0, [r3, #4]
    96d8:	e0800001 	add	r0, r0, r1
    96dc:	e5830008 	str	r0, [r3, #8]
    96e0:	e28dd00c 	add	sp, sp, #12, 0
    96e4:	e49df004 	pop	{pc}		; (ldr pc, [sp], #4)
    96e8:	e59f3044 	ldr	r3, [pc, #68]	; 9734 <kmalloc_init_set_start+0x88>
    96ec:	e58d3000 	str	r3, [sp]
    96f0:	e3a03030 	mov	r3, #48, 0	; 0x30
    96f4:	e59f203c 	ldr	r2, [pc, #60]	; 9738 <kmalloc_init_set_start+0x8c>
    96f8:	e59f103c 	ldr	r1, [pc, #60]	; 973c <kmalloc_init_set_start+0x90>
    96fc:	e59f003c 	ldr	r0, [pc, #60]	; 9740 <kmalloc_init_set_start+0x94>
    9700:	ebfffc1c 	bl	8778 <printk>
    9704:	ebfffeac 	bl	91bc <clean_reboot>
    9708:	e59f3020 	ldr	r3, [pc, #32]	; 9730 <kmalloc_init_set_start+0x84>
    970c:	e5933008 	ldr	r3, [r3, #8]
    9710:	e58d3004 	str	r3, [sp, #4]
    9714:	e58d0000 	str	r0, [sp]
    9718:	e3a03034 	mov	r3, #52, 0	; 0x34
    971c:	e59f2014 	ldr	r2, [pc, #20]	; 9738 <kmalloc_init_set_start+0x8c>
    9720:	e59f1014 	ldr	r1, [pc, #20]	; 973c <kmalloc_init_set_start+0x90>
    9724:	e59f0018 	ldr	r0, [pc, #24]	; 9744 <kmalloc_init_set_start+0x98>
    9728:	ebfffc12 	bl	8778 <printk>
    972c:	ebfffea2 	bl	91bc <clean_reboot>
    9730:	0000a294 	muleq	r0, r4, r2
    9734:	0000a0a0 	andeq	sl, r0, r0, lsr #1
    9738:	0000a22c 	andeq	sl, r0, ip, lsr #4
    973c:	0000a094 	muleq	r0, r4, r0
    9740:	00009d80 	andeq	r9, r0, r0, lsl #27
    9744:	0000a0ac 	andeq	sl, r0, ip, lsr #1

00009748 <kmalloc_init>:
    9748:	e92d4010 	push	{r4, lr}
    974c:	e59f303c 	ldr	r3, [pc, #60]	; 9790 <kmalloc_init+0x48>
    9750:	e5933000 	ldr	r3, [r3]
    9754:	e3530000 	cmp	r3, #0, 0
    9758:	1a000006 	bne	9778 <kmalloc_init+0x30>
    975c:	e59f302c 	ldr	r3, [pc, #44]	; 9790 <kmalloc_init+0x48>
    9760:	e3a02001 	mov	r2, #1, 0
    9764:	e5832000 	str	r2, [r3]
    9768:	e3a01201 	mov	r1, #268435456	; 0x10000000
    976c:	e3a00601 	mov	r0, #1048576	; 0x100000
    9770:	ebffffcd 	bl	96ac <kmalloc_init_set_start>
    9774:	e8bd8010 	pop	{r4, pc}
    9778:	e3a03040 	mov	r3, #64, 0	; 0x40
    977c:	e59f2010 	ldr	r2, [pc, #16]	; 9794 <kmalloc_init+0x4c>
    9780:	e59f1010 	ldr	r1, [pc, #16]	; 9798 <kmalloc_init+0x50>
    9784:	e59f0010 	ldr	r0, [pc, #16]	; 979c <kmalloc_init+0x54>
    9788:	ebfffbfa 	bl	8778 <printk>
    978c:	ebfffe8a 	bl	91bc <clean_reboot>
    9790:	0000a6c4 	andeq	sl, r0, r4, asr #13
    9794:	0000a244 	andeq	sl, r0, r4, asr #4
    9798:	0000a094 	muleq	r0, r4, r0
    979c:	0000a0f0 	strdeq	sl, [r0], -r0

000097a0 <kmalloc_notzero>:
    97a0:	e52de004 	push	{lr}		; (str lr, [sp, #-4]!)
    97a4:	e24dd00c 	sub	sp, sp, #12, 0
    97a8:	e3500000 	cmp	r0, #0, 0
    97ac:	0a00000a 	beq	97dc <kmalloc_notzero+0x3c>
    97b0:	e2800007 	add	r0, r0, #7, 0
    97b4:	e3c03007 	bic	r3, r0, #7, 0
    97b8:	e59f2060 	ldr	r2, [pc, #96]	; 9820 <kmalloc_notzero+0x80>
    97bc:	e5920000 	ldr	r0, [r2]
    97c0:	e0801003 	add	r1, r0, r3
    97c4:	e5821000 	str	r1, [r2]
    97c8:	e5922008 	ldr	r2, [r2, #8]
    97cc:	e1510002 	cmp	r1, r2
    97d0:	8a000009 	bhi	97fc <kmalloc_notzero+0x5c>
    97d4:	e28dd00c 	add	sp, sp, #12, 0
    97d8:	e49df004 	pop	{pc}		; (ldr pc, [sp], #4)
    97dc:	e59f3040 	ldr	r3, [pc, #64]	; 9824 <kmalloc_notzero+0x84>
    97e0:	e58d3000 	str	r3, [sp]
    97e4:	e3a03048 	mov	r3, #72, 0	; 0x48
    97e8:	e59f2038 	ldr	r2, [pc, #56]	; 9828 <kmalloc_notzero+0x88>
    97ec:	e59f1038 	ldr	r1, [pc, #56]	; 982c <kmalloc_notzero+0x8c>
    97f0:	e59f0038 	ldr	r0, [pc, #56]	; 9830 <kmalloc_notzero+0x90>
    97f4:	ebfffbdf 	bl	8778 <printk>
    97f8:	ebfffe6f 	bl	91bc <clean_reboot>
    97fc:	e0422000 	sub	r2, r2, r0
    9800:	e58d2004 	str	r2, [sp, #4]
    9804:	e58d3000 	str	r3, [sp]
    9808:	e3a0304e 	mov	r3, #78, 0	; 0x4e
    980c:	e59f2014 	ldr	r2, [pc, #20]	; 9828 <kmalloc_notzero+0x88>
    9810:	e59f1014 	ldr	r1, [pc, #20]	; 982c <kmalloc_notzero+0x8c>
    9814:	e59f0018 	ldr	r0, [pc, #24]	; 9834 <kmalloc_notzero+0x94>
    9818:	ebfffbd6 	bl	8778 <printk>
    981c:	ebfffe66 	bl	91bc <clean_reboot>
    9820:	0000a294 	muleq	r0, r4, r2
    9824:	0000a0a4 	andeq	sl, r0, r4, lsr #1
    9828:	0000a254 	andeq	sl, r0, r4, asr r2
    982c:	0000a094 	muleq	r0, r4, r0
    9830:	00009d80 	andeq	r9, r0, r0, lsl #27
    9834:	0000a120 	andeq	sl, r0, r0, lsr #2

00009838 <kmalloc>:
    9838:	e92d4030 	push	{r4, r5, lr}
    983c:	e24dd00c 	sub	sp, sp, #12, 0
    9840:	e2504000 	subs	r4, r0, #0, 0
    9844:	0a000008 	beq	986c <kmalloc+0x34>
    9848:	e1a00004 	mov	r0, r4
    984c:	ebffffd3 	bl	97a0 <kmalloc_notzero>
    9850:	e1a05000 	mov	r5, r0
    9854:	e1a02004 	mov	r2, r4
    9858:	e3a01000 	mov	r1, #0, 0
    985c:	ebfffba7 	bl	8700 <memset>
    9860:	e1a00005 	mov	r0, r5
    9864:	e28dd00c 	add	sp, sp, #12, 0
    9868:	e8bd8030 	pop	{r4, r5, pc}
    986c:	e59f3018 	ldr	r3, [pc, #24]	; 988c <kmalloc+0x54>
    9870:	e58d3000 	str	r3, [sp]
    9874:	e3a03054 	mov	r3, #84, 0	; 0x54
    9878:	e59f2010 	ldr	r2, [pc, #16]	; 9890 <kmalloc+0x58>
    987c:	e59f1010 	ldr	r1, [pc, #16]	; 9894 <kmalloc+0x5c>
    9880:	e59f0010 	ldr	r0, [pc, #16]	; 9898 <kmalloc+0x60>
    9884:	ebfffbbb 	bl	8778 <printk>
    9888:	ebfffe4b 	bl	91bc <clean_reboot>
    988c:	0000a0a4 	andeq	sl, r0, r4, lsr #1
    9890:	0000a264 	andeq	sl, r0, r4, ror #4
    9894:	0000a094 	muleq	r0, r4, r0
    9898:	00009d80 	andeq	r9, r0, r0, lsl #27

0000989c <kmalloc_aligned>:
    989c:	e52de004 	push	{lr}		; (str lr, [sp, #-4]!)
    98a0:	e24dd00c 	sub	sp, sp, #12, 0
    98a4:	e3500000 	cmp	r0, #0, 0
    98a8:	0a000014 	beq	9900 <kmalloc_aligned+0x64>
    98ac:	e2613000 	rsb	r3, r1, #0, 0
    98b0:	e1d13003 	bics	r3, r1, r3
    98b4:	1a000019 	bne	9920 <kmalloc_aligned+0x84>
    98b8:	e3510008 	cmp	r1, #8, 0
    98bc:	33a01008 	movcc	r1, #8, 0
    98c0:	e59f30c0 	ldr	r3, [pc, #192]	; 9988 <kmalloc_aligned+0xec>
    98c4:	e5932000 	ldr	r2, [r3]
    98c8:	e2613000 	rsb	r3, r1, #0, 0
    98cc:	e1d1c003 	bics	ip, r1, r3
    98d0:	1a00001b 	bne	9944 <kmalloc_aligned+0xa8>
    98d4:	e0822001 	add	r2, r2, r1
    98d8:	e2422001 	sub	r2, r2, #1, 0
    98dc:	e0033002 	and	r3, r3, r2
    98e0:	e2411001 	sub	r1, r1, #1, 0
    98e4:	e1110003 	tst	r1, r3
    98e8:	1a00001d 	bne	9964 <kmalloc_aligned+0xc8>
    98ec:	e59f2094 	ldr	r2, [pc, #148]	; 9988 <kmalloc_aligned+0xec>
    98f0:	e5823000 	str	r3, [r2]
    98f4:	ebffffcf 	bl	9838 <kmalloc>
    98f8:	e28dd00c 	add	sp, sp, #12, 0
    98fc:	e49df004 	pop	{pc}		; (ldr pc, [sp], #4)
    9900:	e59f3084 	ldr	r3, [pc, #132]	; 998c <kmalloc_aligned+0xf0>
    9904:	e58d3000 	str	r3, [sp]
    9908:	e3a0305f 	mov	r3, #95, 0	; 0x5f
    990c:	e59f207c 	ldr	r2, [pc, #124]	; 9990 <kmalloc_aligned+0xf4>
    9910:	e59f107c 	ldr	r1, [pc, #124]	; 9994 <kmalloc_aligned+0xf8>
    9914:	e59f007c 	ldr	r0, [pc, #124]	; 9998 <kmalloc_aligned+0xfc>
    9918:	ebfffb96 	bl	8778 <printk>
    991c:	ebfffe26 	bl	91bc <clean_reboot>
    9920:	eb0000ac 	bl	9bd8 <rpi_reset_putc>
    9924:	e59f3070 	ldr	r3, [pc, #112]	; 999c <kmalloc_aligned+0x100>
    9928:	e58d3000 	str	r3, [sp]
    992c:	e3a03060 	mov	r3, #96, 0	; 0x60
    9930:	e59f2058 	ldr	r2, [pc, #88]	; 9990 <kmalloc_aligned+0xf4>
    9934:	e59f1058 	ldr	r1, [pc, #88]	; 9994 <kmalloc_aligned+0xf8>
    9938:	e59f0060 	ldr	r0, [pc, #96]	; 99a0 <kmalloc_aligned+0x104>
    993c:	ebfffb8d 	bl	8778 <printk>
    9940:	ebfffe1d 	bl	91bc <clean_reboot>
    9944:	e59f3058 	ldr	r3, [pc, #88]	; 99a4 <kmalloc_aligned+0x108>
    9948:	e58d3000 	str	r3, [sp]
    994c:	e3a03011 	mov	r3, #17, 0
    9950:	e59f2050 	ldr	r2, [pc, #80]	; 99a8 <kmalloc_aligned+0x10c>
    9954:	e59f1038 	ldr	r1, [pc, #56]	; 9994 <kmalloc_aligned+0xf8>
    9958:	e59f0038 	ldr	r0, [pc, #56]	; 9998 <kmalloc_aligned+0xfc>
    995c:	ebfffb85 	bl	8778 <printk>
    9960:	ebfffe15 	bl	91bc <clean_reboot>
    9964:	eb00009b 	bl	9bd8 <rpi_reset_putc>
    9968:	e59f303c 	ldr	r3, [pc, #60]	; 99ac <kmalloc_aligned+0x110>
    996c:	e58d3000 	str	r3, [sp]
    9970:	e3a03068 	mov	r3, #104, 0	; 0x68
    9974:	e59f2014 	ldr	r2, [pc, #20]	; 9990 <kmalloc_aligned+0xf4>
    9978:	e59f1014 	ldr	r1, [pc, #20]	; 9994 <kmalloc_aligned+0xf8>
    997c:	e59f002c 	ldr	r0, [pc, #44]	; 99b0 <kmalloc_aligned+0x114>
    9980:	ebfffb7c 	bl	8778 <printk>
    9984:	ebfffe0c 	bl	91bc <clean_reboot>
    9988:	0000a294 	muleq	r0, r4, r2
    998c:	0000a0a4 	andeq	sl, r0, r4, lsr #1
    9990:	0000a26c 	andeq	sl, r0, ip, ror #4
    9994:	0000a094 	muleq	r0, r4, r0
    9998:	00009d80 	andeq	r9, r0, r0, lsl #27
    999c:	0000a194 	muleq	r0, r4, r1
    99a0:	0000a160 	andeq	sl, r0, r0, ror #2
    99a4:	0000a1a8 	andeq	sl, r0, r8, lsr #3
    99a8:	0000a27c 	andeq	sl, r0, ip, ror r2
    99ac:	0000a1e0 	andeq	sl, r0, r0, ror #3
    99b0:	0000a1b4 			; <UNDEFINED> instruction: 0x0000a1b4

000099b4 <kfree>:
    99b4:	e12fff1e 	bx	lr

000099b8 <kfree_all>:
    99b8:	e59f3008 	ldr	r3, [pc, #8]	; 99c8 <kfree_all+0x10>
    99bc:	e5932004 	ldr	r2, [r3, #4]
    99c0:	e5832000 	str	r2, [r3]
    99c4:	e12fff1e 	bx	lr
    99c8:	0000a294 	muleq	r0, r4, r2

000099cc <kfree_pop>:
    99cc:	e59f3048 	ldr	r3, [pc, #72]	; 9a1c <kfree_pop+0x50>
    99d0:	e5933004 	ldr	r3, [r3, #4]
    99d4:	e1530000 	cmp	r3, r0
    99d8:	8a000006 	bhi	99f8 <kfree_pop+0x2c>
    99dc:	e59f3038 	ldr	r3, [pc, #56]	; 9a1c <kfree_pop+0x50>
    99e0:	e5933008 	ldr	r3, [r3, #8]
    99e4:	e1530000 	cmp	r3, r0
    99e8:	3a000002 	bcc	99f8 <kfree_pop+0x2c>
    99ec:	e59f3028 	ldr	r3, [pc, #40]	; 9a1c <kfree_pop+0x50>
    99f0:	e5830000 	str	r0, [r3]
    99f4:	e12fff1e 	bx	lr
    99f8:	e52de004 	push	{lr}		; (str lr, [sp, #-4]!)
    99fc:	e24dd00c 	sub	sp, sp, #12, 0
    9a00:	e58d0000 	str	r0, [sp]
    9a04:	e3a03077 	mov	r3, #119, 0	; 0x77
    9a08:	e59f2010 	ldr	r2, [pc, #16]	; 9a20 <kfree_pop+0x54>
    9a0c:	e59f1010 	ldr	r1, [pc, #16]	; 9a24 <kfree_pop+0x58>
    9a10:	e59f0010 	ldr	r0, [pc, #16]	; 9a28 <kfree_pop+0x5c>
    9a14:	ebfffb57 	bl	8778 <printk>
    9a18:	ebfffde7 	bl	91bc <clean_reboot>
    9a1c:	0000a294 	muleq	r0, r4, r2
    9a20:	0000a284 	andeq	sl, r0, r4, lsl #5
    9a24:	0000a094 	muleq	r0, r4, r0
    9a28:	0000a1fc 	strdeq	sl, [r0], -ip

00009a2c <gpio_set_function>:
    9a2c:	e350001f 	cmp	r0, #31, 0
    9a30:	812fff1e 	bxhi	lr
    9a34:	e3d13007 	bics	r3, r1, #7, 0
    9a38:	e92d4070 	push	{r4, r5, r6, lr}
    9a3c:	e1a05001 	mov	r5, r1
    9a40:	18bd8070 	popne	{r4, r5, r6, pc}
    9a44:	e59f403c 	ldr	r4, [pc, #60]	; 9a88 <gpio_set_function+0x5c>
    9a48:	e0843094 	umull	r3, r4, r4, r0
    9a4c:	e1a041a4 	lsr	r4, r4, #3
    9a50:	e2843302 	add	r3, r4, #134217728	; 0x8000000
    9a54:	e2833702 	add	r3, r3, #524288	; 0x80000
    9a58:	e1a06103 	lsl	r6, r3, #2
    9a5c:	e0844104 	add	r4, r4, r4, lsl #2
    9a60:	e0404084 	sub	r4, r0, r4, lsl #1
    9a64:	e1a00006 	mov	r0, r6
    9a68:	ebfff96f 	bl	802c <GET32>
    9a6c:	e3a01007 	mov	r1, #7, 0
    9a70:	e0844084 	add	r4, r4, r4, lsl #1
    9a74:	e1c01411 	bic	r1, r0, r1, lsl r4
    9a78:	e1811415 	orr	r1, r1, r5, lsl r4
    9a7c:	e1a00006 	mov	r0, r6
    9a80:	e8bd4070 	pop	{r4, r5, r6, lr}
    9a84:	eafff966 	b	8024 <PUT32>
    9a88:	cccccccd 	stclgt	12, cr12, [ip], {205}	; 0xcd

00009a8c <gpio_set_output>:
    9a8c:	e350001f 	cmp	r0, #31, 0
    9a90:	812fff1e 	bxhi	lr
    9a94:	e92d4070 	push	{r4, r5, r6, lr}
    9a98:	e59f4040 	ldr	r4, [pc, #64]	; 9ae0 <gpio_set_output+0x54>
    9a9c:	e0843094 	umull	r3, r4, r4, r0
    9aa0:	e1a041a4 	lsr	r4, r4, #3
    9aa4:	e2843302 	add	r3, r4, #134217728	; 0x8000000
    9aa8:	e2833702 	add	r3, r3, #524288	; 0x80000
    9aac:	e1a05103 	lsl	r5, r3, #2
    9ab0:	e0844104 	add	r4, r4, r4, lsl #2
    9ab4:	e0404084 	sub	r4, r0, r4, lsl #1
    9ab8:	e1a00005 	mov	r0, r5
    9abc:	ebfff95a 	bl	802c <GET32>
    9ac0:	e3a03007 	mov	r3, #7, 0
    9ac4:	e3a01001 	mov	r1, #1, 0
    9ac8:	e0844084 	add	r4, r4, r4, lsl #1
    9acc:	e1c03413 	bic	r3, r0, r3, lsl r4
    9ad0:	e1831411 	orr	r1, r3, r1, lsl r4
    9ad4:	e1a00005 	mov	r0, r5
    9ad8:	e8bd4070 	pop	{r4, r5, r6, lr}
    9adc:	eafff950 	b	8024 <PUT32>
    9ae0:	cccccccd 	stclgt	12, cr12, [ip], {205}	; 0xcd

00009ae4 <gpio_set_on>:
    9ae4:	e1a03000 	mov	r3, r0
    9ae8:	e3a01001 	mov	r1, #1, 0
    9aec:	e59f0004 	ldr	r0, [pc, #4]	; 9af8 <gpio_set_on+0x14>
    9af0:	e1a01311 	lsl	r1, r1, r3
    9af4:	eafff94a 	b	8024 <PUT32>
    9af8:	2020001c 	eorcs	r0, r0, ip, lsl r0

00009afc <gpio_set_off>:
    9afc:	e1a03000 	mov	r3, r0
    9b00:	e3a01001 	mov	r1, #1, 0
    9b04:	e59f0004 	ldr	r0, [pc, #4]	; 9b10 <gpio_set_off+0x14>
    9b08:	e1a01311 	lsl	r1, r1, r3
    9b0c:	eafff944 	b	8024 <PUT32>
    9b10:	20200028 	eorcs	r0, r0, r8, lsr #32

00009b14 <gpio_set_input>:
    9b14:	e350001f 	cmp	r0, #31, 0
    9b18:	812fff1e 	bxhi	lr
    9b1c:	e92d4070 	push	{r4, r5, r6, lr}
    9b20:	e59f5040 	ldr	r5, [pc, #64]	; 9b68 <gpio_set_input+0x54>
    9b24:	e1a04000 	mov	r4, r0
    9b28:	e0853095 	umull	r3, r5, r5, r0
    9b2c:	e1a051a5 	lsr	r5, r5, #3
    9b30:	e2850302 	add	r0, r5, #134217728	; 0x8000000
    9b34:	e2800702 	add	r0, r0, #524288	; 0x80000
    9b38:	e1a06100 	lsl	r6, r0, #2
    9b3c:	e1a00006 	mov	r0, r6
    9b40:	ebfff939 	bl	802c <GET32>
    9b44:	e3a01007 	mov	r1, #7, 0
    9b48:	e1a03000 	mov	r3, r0
    9b4c:	e0855105 	add	r5, r5, r5, lsl #2
    9b50:	e0444085 	sub	r4, r4, r5, lsl #1
    9b54:	e0844084 	add	r4, r4, r4, lsl #1
    9b58:	e1a00006 	mov	r0, r6
    9b5c:	e1c31411 	bic	r1, r3, r1, lsl r4
    9b60:	e8bd4070 	pop	{r4, r5, r6, lr}
    9b64:	eafff92e 	b	8024 <PUT32>
    9b68:	cccccccd 	stclgt	12, cr12, [ip], {205}	; 0xcd

00009b6c <gpio_write>:
    9b6c:	e3510000 	cmp	r1, #0, 0
    9b70:	e3a03001 	mov	r3, #1, 0
    9b74:	e1a01000 	mov	r1, r0
    9b78:	0a000002 	beq	9b88 <gpio_write+0x1c>
    9b7c:	e59f0010 	ldr	r0, [pc, #16]	; 9b94 <gpio_write+0x28>
    9b80:	e1a01113 	lsl	r1, r3, r1
    9b84:	eafff926 	b	8024 <PUT32>
    9b88:	e59f0008 	ldr	r0, [pc, #8]	; 9b98 <gpio_write+0x2c>
    9b8c:	e1a01113 	lsl	r1, r3, r1
    9b90:	eafff923 	b	8024 <PUT32>
    9b94:	2020001c 	eorcs	r0, r0, ip, lsl r0
    9b98:	20200028 	eorcs	r0, r0, r8, lsr #32

00009b9c <gpio_read>:
    9b9c:	e92d4010 	push	{r4, lr}
    9ba0:	e1a04000 	mov	r4, r0
    9ba4:	e59f0014 	ldr	r0, [pc, #20]	; 9bc0 <gpio_read+0x24>
    9ba8:	e08002a4 	add	r0, r0, r4, lsr #5
    9bac:	ebfff91e 	bl	802c <GET32>
    9bb0:	e204401f 	and	r4, r4, #31, 0
    9bb4:	e1a00430 	lsr	r0, r0, r4
    9bb8:	e2000001 	and	r0, r0, #1, 0
    9bbc:	e8bd8010 	pop	{r4, pc}
    9bc0:	20200034 	eorcs	r0, r0, r4, lsr r0

00009bc4 <internal_putchar>:
    9bc4:	e92d4010 	push	{r4, lr}
    9bc8:	e1a04000 	mov	r4, r0
    9bcc:	ebfffe84 	bl	95e4 <uart_putc>
    9bd0:	e1a00004 	mov	r0, r4
    9bd4:	e8bd8010 	pop	{r4, pc}

00009bd8 <rpi_reset_putc>:
    9bd8:	e59f3008 	ldr	r3, [pc, #8]	; 9be8 <rpi_reset_putc+0x10>
    9bdc:	e59f2008 	ldr	r2, [pc, #8]	; 9bec <rpi_reset_putc+0x14>
    9be0:	e5832000 	str	r2, [r3]
    9be4:	e12fff1e 	bx	lr
    9be8:	0000a2a0 	andeq	sl, r0, r0, lsr #5
    9bec:	00009bc4 	andeq	r9, r0, r4, asr #23

00009bf0 <rpi_set_putc>:
    9bf0:	e59f3004 	ldr	r3, [pc, #4]	; 9bfc <rpi_set_putc+0xc>
    9bf4:	e5830000 	str	r0, [r3]
    9bf8:	e12fff1e 	bx	lr
    9bfc:	0000a2a0 	andeq	sl, r0, r0, lsr #5

00009c00 <strcat>:
    9c00:	e1a02000 	mov	r2, r0
    9c04:	e1a03002 	mov	r3, r2
    9c08:	e4d2c001 	ldrb	ip, [r2], #1
    9c0c:	e35c0000 	cmp	ip, #0, 0
    9c10:	1afffffb 	bne	9c04 <strcat+0x4>
    9c14:	e2433001 	sub	r3, r3, #1, 0
    9c18:	e4d12001 	ldrb	r2, [r1], #1
    9c1c:	e3520000 	cmp	r2, #0, 0
    9c20:	e5e32001 	strb	r2, [r3, #1]!
    9c24:	1afffffb 	bne	9c18 <strcat+0x18>
    9c28:	e12fff1e 	bx	lr

00009c2c <strcmp>:
    9c2c:	e5d03000 	ldrb	r3, [r0]
    9c30:	e3530000 	cmp	r3, #0, 0
    9c34:	05d12000 	ldrbeq	r2, [r1]
    9c38:	1a000003 	bne	9c4c <strcmp+0x20>
    9c3c:	ea000006 	b	9c5c <strcmp+0x30>
    9c40:	e5f03001 	ldrb	r3, [r0, #1]!
    9c44:	e3530000 	cmp	r3, #0, 0
    9c48:	0a000005 	beq	9c64 <strcmp+0x38>
    9c4c:	e1a0c001 	mov	ip, r1
    9c50:	e4d12001 	ldrb	r2, [r1], #1
    9c54:	e1520003 	cmp	r2, r3
    9c58:	0afffff8 	beq	9c40 <strcmp+0x14>
    9c5c:	e0430002 	sub	r0, r3, r2
    9c60:	e12fff1e 	bx	lr
    9c64:	e5dc2001 	ldrb	r2, [ip, #1]
    9c68:	e0430002 	sub	r0, r3, r2
    9c6c:	e12fff1e 	bx	lr

00009c70 <strcpy>:
    9c70:	e2402001 	sub	r2, r0, #1, 0
    9c74:	e4d13001 	ldrb	r3, [r1], #1
    9c78:	e3530000 	cmp	r3, #0, 0
    9c7c:	e5e23001 	strb	r3, [r2, #1]!
    9c80:	1afffffb 	bne	9c74 <strcpy+0x4>
    9c84:	e12fff1e 	bx	lr

00009c88 <strncmp>:
    9c88:	e0802002 	add	r2, r0, r2
    9c8c:	ea000003 	b	9ca0 <strncmp+0x18>
    9c90:	e4d03001 	ldrb	r3, [r0], #1
    9c94:	e4d1c001 	ldrb	ip, [r1], #1
    9c98:	e153000c 	cmp	r3, ip
    9c9c:	1a000003 	bne	9cb0 <strncmp+0x28>
    9ca0:	e1500002 	cmp	r0, r2
    9ca4:	1afffff9 	bne	9c90 <strncmp+0x8>
    9ca8:	e3a00000 	mov	r0, #0, 0
    9cac:	e12fff1e 	bx	lr
    9cb0:	e043000c 	sub	r0, r3, ip
    9cb4:	e12fff1e 	bx	lr

00009cb8 <reboot_callout>:
    9cb8:	e12fff1e 	bx	lr

00009cbc <dev_barrier>:
    9cbc:	ea000002 	b	9ccc <dsb>

00009cc0 <dmb>:
    9cc0:	e3a00000 	mov	r0, #0, 0
    9cc4:	ee070fba 	mcr	15, 0, r0, cr7, cr10, {5}
    9cc8:	e12fff1e 	bx	lr

00009ccc <dsb>:
    9ccc:	ee070f9a 	mcr	15, 0, r0, cr7, cr10, {4}
    9cd0:	e12fff1e 	bx	lr

00009cd4 <__code_end__>:
    9cd4:	00000000 	andeq	r0, r0, r0

Disassembly of section .rodata:

00009cd8 <__FUNCTION__.4007-0x94>:
    9cd8:	626f6c67 	rsbvs	r6, pc, #26368	; 0x6700
    9cdc:	705f6c61 	subsvc	r6, pc, r1, ror #24
    9ce0:	2070253d 	rsbscs	r2, r0, sp, lsr r5
    9ce4:	61746164 	cmnvs	r4, r4, ror #2
    9ce8:	72617473 	rsbvc	r7, r1, #1929379840	; 0x73000000
    9cec:	70253d74 	eorvc	r3, r5, r4, ror sp
    9cf0:	6164202c 	cmnvs	r4, ip, lsr #32
    9cf4:	6e656174 	mcrvs	1, 3, r6, cr5, cr4, {3}
    9cf8:	70253d64 	eorvc	r3, r5, r4, ror #26
    9cfc:	0000000a 	andeq	r0, r0, sl
    9d00:	74736574 	ldrbtvc	r6, [r3], #-1396	; 0xfffffa8c
    9d04:	61702f73 	cmnvs	r0, r3, ror pc
    9d08:	2d327472 	cfldrscs	mvf7, [r2, #-456]!	; 0xfffffe38
    9d0c:	74736574 	ldrbtvc	r6, [r3], #-1396	; 0xfffffa8c
    9d10:	00632e32 	rsbeq	r2, r3, r2, lsr lr
    9d14:	74204347 	strtvc	r4, [r0], #-839	; 0xfffffcb9
    9d18:	32747365 	rsbscc	r7, r4, #-1811939327	; 0x94000001
    9d1c:	6863203a 	stmdavs	r3!, {r1, r3, r4, r5, sp}^
    9d20:	696b6365 	stmdbvs	fp!, {r0, r2, r5, r6, r8, r9, sp, lr}^
    9d24:	7420676e 	strtvc	r6, [r0], #-1902	; 0xfffff892
    9d28:	20746168 	rsbscs	r6, r4, r8, ror #2
    9d2c:	61636f6c 	cmnvs	r3, ip, ror #30
    9d30:	7328206c 			; <UNDEFINED> instruction: 0x7328206c
    9d34:	6b636174 	blvs	18e230c <__bss_end__+0x18d7c3c>
    9d38:	20726f20 	rsbscs	r6, r2, r0, lsr #30
    9d3c:	29676572 	stmdbcs	r7!, {r1, r4, r5, r6, r8, sl, sp, lr}^
    9d40:	696f7020 	stmdbvs	pc!, {r5, ip, sp, lr}^	; <UNPREDICTABLE>
    9d44:	7265746e 	rsbvc	r7, r5, #1845493760	; 0x6e000000
    9d48:	72612073 	rsbvc	r2, r1, #115, 0	; 0x73
    9d4c:	65642065 	strbvs	r2, [r4, #-101]!	; 0xffffff9b
    9d50:	74636574 	strbtvc	r6, [r3], #-1396	; 0xfffffa8c
    9d54:	0a2e6465 	beq	ba2ef0 <__bss_end__+0xb98820>
    9d58:	00000000 	andeq	r0, r0, r0
    9d5c:	7473616c 	ldrbtvc	r6, [r3], #-364	; 0xfffffe94
    9d60:	6c6c6120 	stfvse	f6, [ip], #-128	; 0xffffff80
    9d64:	3d20636f 	stccc	3, cr6, [r0, #-444]!	; 0xfffffe44
    9d68:	000a7025 	andeq	r7, sl, r5, lsr #32

00009d6c <__FUNCTION__.4007>:
    9d6c:	74736574 	ldrbtvc	r6, [r3], #-1396	; 0xfffffa8c
    9d70:	00000000 	andeq	r0, r0, r0
    9d74:	6c616b63 			; <UNDEFINED> instruction: 0x6c616b63
    9d78:	2e636f6c 	cdpcs	15, 6, cr6, cr3, cr12, {3}
    9d7c:	00000063 	andeq	r0, r0, r3, rrx
    9d80:	494e4150 	stmdbmi	lr, {r4, r6, r8, lr}^
    9d84:	73253a43 			; <UNDEFINED> instruction: 0x73253a43
    9d88:	3a73253a 	bcc	1cd3278 <__bss_end__+0x1cc8ba8>
    9d8c:	253a6425 	ldrcs	r6, [sl, #-1061]!	; 0xfffffbdb
    9d90:	00000a73 	andeq	r0, r0, r3, ror sl
    9d94:	0000006c 	andeq	r0, r0, ip, rrx
    9d98:	494e4150 	stmdbmi	lr, {r4, r6, r8, lr}^
    9d9c:	73253a43 			; <UNDEFINED> instruction: 0x73253a43
    9da0:	3a73253a 	bcc	1cd3290 <__bss_end__+0x1cc8bc0>
    9da4:	643a6425 	ldrtvs	r6, [sl], #-1061	; 0xfffffbdb
    9da8:	6e206469 	cdpvs	4, 2, cr6, cr0, cr9, {3}
    9dac:	6620746f 	strtvs	r7, [r0], -pc, ror #8
    9db0:	20646e69 	rsbcs	r6, r4, r9, ror #28
    9db4:	69207025 	stmdbvs	r0!, {r0, r2, r5, ip, sp, lr}
    9db8:	696c206e 	stmdbvs	ip!, {r1, r2, r3, r5, r6, sp}^
    9dbc:	0a0a7473 	beq	2a6f90 <__bss_end__+0x29c8c0>
    9dc0:	00000000 	andeq	r0, r0, r0
    9dc4:	6e756f66 	cdpvs	15, 7, cr6, cr5, cr6, {3}
    9dc8:	70252064 	eorvc	r2, r5, r4, rrx
    9dcc:	206e6920 	rsbcs	r6, lr, r0, lsr #18
    9dd0:	000a7025 	andeq	r7, sl, r5, lsr #32
    9dd4:	253a7325 	ldrcs	r7, [sl, #-805]!	; 0xfffffcdb
    9dd8:	64253a73 	strtvs	r3, [r5], #-2675	; 0xfffff58d
    9ddc:	0000003a 	andeq	r0, r0, sl, lsr r0
    9de0:	65657266 	strbvs	r7, [r5, #-614]!	; 0xfffffd9a
    9de4:	20676e69 	rsbcs	r6, r7, r9, ror #28
    9de8:	0a702509 	beq	1c13214 <__bss_end__+0x1c08b44>
    9dec:	00000000 	andeq	r0, r0, r0
    9df0:	5f434f4c 	svcpl	0x00434f4c
    9df4:	494e4150 	stmdbmi	lr, {r4, r6, r8, lr}^
    9df8:	25203a43 	strcs	r3, [r0, #-2627]!	; 0xfffff5bd
    9dfc:	73253a73 			; <UNDEFINED> instruction: 0x73253a73
    9e00:	3a64253a 	bcc	19132f0 <__bss_end__+0x1908c20>
    9e04:	00000000 	andeq	r0, r0, r0
    9e08:	65657266 	strbvs	r7, [r5, #-614]!	; 0xfffffd9a
    9e0c:	20676e69 	rsbcs	r6, r7, r9, ror #28
    9e10:	6c616e75 	stclvs	14, cr6, [r1], #-468	; 0xfffffe2c
    9e14:	61636f6c 	cmnvs	r3, ip, ror #30
    9e18:	20646574 	rsbcs	r6, r4, r4, ror r5
    9e1c:	6f6d656d 	svcvs	0x006d656d
    9e20:	203a7972 	eorscs	r7, sl, r2, ror r9
    9e24:	74617473 	strbtvc	r7, [r1], #-1139	; 0xfffffb8d
    9e28:	64253d65 	strtvs	r3, [r5], #-3429	; 0xfffff29b
    9e2c:	0000000a 	andeq	r0, r0, sl
    9e30:	705f6b63 	subsvc	r6, pc, r3, ror #22
    9e34:	695f7274 	ldmdbvs	pc, {r2, r4, r5, r6, r9, ip, sp, lr}^	; <UNPREDICTABLE>
    9e38:	6c615f73 	stclvs	15, cr5, [r1], #-460	; 0xfffffe34
    9e3c:	65636f6c 	strbvs	r6, [r3, #-3948]!	; 0xfffff094
    9e40:	64612864 	strbtvs	r2, [r1], #-2148	; 0xfffff79c
    9e44:	00297264 	eoreq	r7, r9, r4, ror #4
    9e48:	6f6c6c61 	svcvs	0x006c6c61
    9e4c:	69746163 	ldmdbvs	r4!, {r0, r1, r5, r6, r8, sp, lr}^
    9e50:	0920676e 	stmdbeq	r0!, {r1, r2, r3, r5, r6, r8, r9, sl, sp, lr}
    9e54:	000a7025 	andeq	r7, sl, r5, lsr #32

00009e58 <__FUNCTION__.4037>:
    9e58:	7473696c 	ldrbtvc	r6, [r3], #-2412	; 0xfffff694
    9e5c:	6d65725f 	sfmvs	f7, 2, [r5, #-380]!	; 0xfffffe84
    9e60:	0065766f 	rsbeq	r7, r5, pc, ror #12

00009e64 <__FUNCTION__.4048>:
    9e64:	72666b63 	rsbvc	r6, r6, #101376	; 0x18c00
    9e68:	00006565 	andeq	r6, r0, r5, ror #10
    9e6c:	672d6b63 	strvs	r6, [sp, -r3, ror #22]!
    9e70:	00632e63 	rsbeq	r2, r3, r3, ror #28
    9e74:	494e4150 	stmdbmi	lr, {r4, r6, r8, lr}^
    9e78:	73253a43 			; <UNDEFINED> instruction: 0x73253a43
    9e7c:	3a73253a 	bcc	1cd336c <__bss_end__+0x1cc8c9c>
    9e80:	693a6425 	ldmdbvs	sl!, {r0, r2, r5, sl, sp, lr}
    9e84:	656c706d 	strbvs	r7, [ip, #-109]!	; 0xffffff93
    9e88:	746e656d 	strbtvc	r6, [lr], #-1389	; 0xfffffa93
    9e8c:	69687420 	stmdbvs	r8!, {r5, sl, ip, sp, lr}^
    9e90:	75662073 	strbvc	r2, [r6, #-115]!	; 0xffffff8d
    9e94:	6974636e 	ldmdbvs	r4!, {r1, r2, r3, r5, r6, r8, r9, sp, lr}^
    9e98:	0a216e6f 	beq	86585c <__bss_end__+0x85b18c>
    9e9c:	0000000a 	andeq	r0, r0, sl
    9ea0:	72636e69 	rsbvc	r6, r3, #1680	; 0x690
    9ea4:	6e656d65 	cdpvs	13, 6, cr6, cr5, cr5, {3}
    9ea8:	203e2074 	eorscs	r2, lr, r4, ror r0
    9eac:	00000030 	andeq	r0, r0, r0, lsr r0
    9eb0:	494e4150 	stmdbmi	lr, {r4, r6, r8, lr}^
    9eb4:	73253a43 			; <UNDEFINED> instruction: 0x73253a43
    9eb8:	3a73253a 	bcc	1cd33a8 <__bss_end__+0x1cc8cd8>
    9ebc:	6e3a6425 	cdpvs	4, 3, cr6, cr10, cr5, {1}
    9ec0:	6820746f 	stmdavs	r0!, {r0, r1, r2, r3, r5, r6, sl, ip, sp, lr}
    9ec4:	6c646e61 	stclvs	14, cr6, [r4], #-388	; 0xfffffe7c
    9ec8:	0a676e69 	beq	19e5874 <__bss_end__+0x19db1a4>
    9ecc:	0000000a 	andeq	r0, r0, sl
    9ed0:	494e4150 	stmdbmi	lr, {r4, r6, r8, lr}^
    9ed4:	73253a43 			; <UNDEFINED> instruction: 0x73253a43
    9ed8:	3a73253a 	bcc	1cd33c8 <__bss_end__+0x1cc8cf8>
    9edc:	643a6425 	ldrtvs	r6, [sl], #-1061	; 0xfffffbdb
    9ee0:	6e206469 	cdpvs	4, 2, cr6, cr0, cr9, {3}
    9ee4:	6920746f 	stmdbvs	r0!, {r0, r1, r2, r3, r5, r6, sl, ip, sp, lr}
    9ee8:	656c706d 	strbvs	r7, [ip, #-109]!	; 0xffffff93
    9eec:	746e656d 	strbtvc	r6, [lr], #-1389	; 0xfffffa93
    9ef0:	6d756420 	cfldrdvs	mvd6, [r5, #-128]!	; 0xffffff80
    9ef4:	65725f70 	ldrbvs	r5, [r2, #-3952]!	; 0xfffff090
    9ef8:	0a217367 	beq	866c9c <__bss_end__+0x85c5cc>
    9efc:	0000000a 	andeq	r0, r0, sl

00009f00 <__FUNCTION__.4044>:
    9f00:	6b72616d 	blvs	1ca24bc <__bss_end__+0x1c97dec>
    9f04:	6c6c615f 	stfvse	f6, [ip], #-380	; 0xfffffe84
    9f08:	00000000 	andeq	r0, r0, r0

00009f0c <__FUNCTION__.4013>:
    9f0c:	6b726273 	blvs	1ca28e0 <__bss_end__+0x1c98210>
    9f10:	00000000 	andeq	r0, r0, r0

00009f14 <__FUNCTION__.4080>:
    9f14:	6c706d69 	ldclvs	13, cr6, [r0], #-420	; 0xfffffe5c
    9f18:	6e656d65 	cdpvs	13, 6, cr6, cr5, cr5, {3}
    9f1c:	68745f74 	ldmdavs	r4!, {r2, r4, r5, r6, r8, r9, sl, fp, ip, lr}^
    9f20:	00007369 	andeq	r7, r0, r9, ror #6
    9f24:	696c2f2e 	stmdbvs	ip!, {r1, r2, r3, r5, r8, r9, sl, fp, sp}^
    9f28:	762f6362 	strtvc	r6, [pc], -r2, ror #6
    9f2c:	72702d61 	rsbsvc	r2, r0, #6208	; 0x1840
    9f30:	6b746e69 	blvs	1d258dc <__bss_end__+0x1d1b20c>
    9f34:	0000632e 	andeq	r6, r0, lr, lsr #6
    9f38:	33323130 	teqcc	r2, #12
    9f3c:	37363534 			; <UNDEFINED> instruction: 0x37363534
    9f40:	62613938 	rsbvs	r3, r1, #56, 18	; 0xe0000
    9f44:	66656463 	strbtvs	r6, [r5], -r3, ror #8
    9f48:	00000000 	andeq	r0, r0, r0
    9f4c:	00003130 	andeq	r3, r0, r0, lsr r1
    9f50:	33323130 	teqcc	r2, #12
    9f54:	37363534 			; <UNDEFINED> instruction: 0x37363534
    9f58:	00003938 	andeq	r3, r0, r8, lsr r9
    9f5c:	63747570 	cmnvs	r4, #112, 10	; 0x1c000000
    9f60:	0070665f 	rsbseq	r6, r0, pc, asr r6
    9f64:	74646977 	strbtvc	r6, [r4], #-2423	; 0xfffff689
    9f68:	203c2068 	eorscs	r2, ip, r8, rrx
    9f6c:	00003233 	andeq	r3, r0, r3, lsr r2
    9f70:	00786c6c 	rsbseq	r6, r8, ip, ror #24
    9f74:	253d3078 	ldrcs	r3, [sp, #-120]!	; 0xffffff88
    9f78:	00000a78 	andeq	r0, r0, r8, ror sl
    9f7c:	253d3178 	ldrcs	r3, [sp, #-376]!	; 0xfffffe88
    9f80:	00000a78 	andeq	r0, r0, r8, ror sl
    9f84:	00646c6c 	rsbeq	r6, r4, ip, ror #24
    9f88:	6e727473 	mrcvs	4, 3, r7, cr2, cr3, {3}
    9f8c:	28706d63 	ldmdacs	r0!, {r0, r1, r5, r6, r8, sl, fp, sp, lr}^
    9f90:	202c7974 	eorcs	r7, ip, r4, ror r9
    9f94:	786c6c22 	stmdavc	ip!, {r1, r5, sl, fp, sp, lr}^
    9f98:	33202c22 			; <UNDEFINED> instruction: 0x33202c22
    9f9c:	3d3d2029 	ldccc	0, cr2, [sp, #-164]!	; 0xffffff5c
    9fa0:	7c203020 	stcvc	0, cr3, [r0], #-128	; 0xffffff80
    9fa4:	7473207c 	ldrbtvc	r2, [r3], #-124	; 0xffffff84
    9fa8:	6d636e72 	stclvs	14, cr6, [r3, #-456]!	; 0xfffffe38
    9fac:	79742870 	ldmdbvc	r4!, {r4, r5, r6, fp, sp}^
    9fb0:	6c22202c 	stcvs	0, cr2, [r2], #-176	; 0xffffff50
    9fb4:	2c22646c 	cfstrscs	mvf6, [r2], #-432	; 0xfffffe50
    9fb8:	20293320 	eorcs	r3, r9, r0, lsr #6
    9fbc:	30203d3d 	eorcc	r3, r0, sp, lsr sp
    9fc0:	00000000 	andeq	r0, r0, r0
    9fc4:	494e4150 	stmdbmi	lr, {r4, r6, r8, lr}^
    9fc8:	73253a43 			; <UNDEFINED> instruction: 0x73253a43
    9fcc:	3a73253a 	bcc	1cd34bc <__bss_end__+0x1cc8dec>
    9fd0:	693a6425 	ldmdbvs	sl!, {r0, r2, r5, sl, sp, lr}
    9fd4:	736f706d 	cmnvc	pc, #109, 0	; 0x6d
    9fd8:	6c626973 			; <UNDEFINED> instruction: 0x6c626973
    9fdc:	66203a65 	strtvs	r3, [r0], -r5, ror #20
    9fe0:	3c3d746d 	cfldrscc	mvf7, [sp], #-436	; 0xfffffe4c
    9fe4:	0a3e7325 	beq	fa6c80 <__bss_end__+0xf9c5b0>
    9fe8:	0000000a 	andeq	r0, r0, sl
    9fec:	494e4150 	stmdbmi	lr, {r4, r6, r8, lr}^
    9ff0:	73253a43 			; <UNDEFINED> instruction: 0x73253a43
    9ff4:	3a73253a 	bcc	1cd34e4 <__bss_end__+0x1cc8e14>
    9ff8:	663a6425 	ldrtvs	r6, [sl], -r5, lsr #8
    9ffc:	74616f6c 	strbtvc	r6, [r1], #-3948	; 0xfffff094
    a000:	746f6e20 	strbtvc	r6, [pc], #-3616	; a008 <__FUNCTION__.4080+0xf4>
    a004:	616e6520 	cmnvs	lr, r0, lsr #10
    a008:	64656c62 	strbtvs	r6, [r5], #-3170	; 0xfffff39e
    a00c:	0a212121 	beq	852498 <__bss_end__+0x847dc8>
    a010:	00000000 	andeq	r0, r0, r0
    a014:	6e697270 	mcrvs	2, 3, r7, cr9, cr0, {3}
    a018:	203a6b74 	eorscs	r6, sl, r4, ror fp
    a01c:	20746f6e 	rsbscs	r6, r4, lr, ror #30
    a020:	646e6168 	strbtvs	r6, [lr], #-360	; 0xfffffe98
    a024:	676e696c 	strbvs	r6, [lr, -ip, ror #18]!
    a028:	65707320 	ldrbvs	r7, [r0, #-800]!	; 0xfffffce0
    a02c:	69666963 	stmdbvs	r6!, {r0, r1, r5, r6, r8, fp, sp, lr}^
    a030:	27207265 	strcs	r7, [r0, -r5, ror #4]!
    a034:	20276325 	eorcs	r6, r7, r5, lsr #6
    a038:	63736128 	cmnvs	r3, #10
    a03c:	253d6969 	ldrcs	r6, [sp, #-2409]!	; 0xfffff697
    a040:	000a2964 	andeq	r2, sl, r4, ror #18
    a044:	494e4150 	stmdbmi	lr, {r4, r6, r8, lr}^
    a048:	73253a43 			; <UNDEFINED> instruction: 0x73253a43
    a04c:	3a73253a 	bcc	1cd353c <__bss_end__+0x1cc8e6c>
    a050:	703a6425 	eorsvc	r6, sl, r5, lsr #8
    a054:	746e6972 	strbtvc	r6, [lr], #-2418	; 0xfffff68e
    a058:	7265206b 	rsbvc	r2, r5, #107, 0	; 0x6b
    a05c:	0a726f72 	beq	1ca5e2c <__bss_end__+0x1c9b75c>
    a060:	0000000a 	andeq	r0, r0, sl

0000a064 <__FUNCTION__.4004>:
    a064:	74696d65 	strbtvc	r6, [r9], #-3429	; 0xfffff29b
    a068:	00000000 	andeq	r0, r0, r0

0000a06c <__FUNCTION__.3952>:
    a06c:	5f697072 	svcpl	0x00697072
    a070:	5f746573 	svcpl	0x00746573
    a074:	7074756f 	rsbsvc	r7, r4, pc, ror #10
    a078:	00007475 	andeq	r7, r0, r5, ror r4

0000a07c <__FUNCTION__.4030>:
    a07c:	705f6176 	subsvc	r6, pc, r6, ror r1	; <UNPREDICTABLE>
    a080:	746e6972 	strbtvc	r6, [lr], #-2418	; 0xfffff68e
    a084:	0000006b 	andeq	r0, r0, fp, rrx
    a088:	454e4f44 	strbmi	r4, [lr, #-3908]	; 0xfffff0bc
    a08c:	0a212121 	beq	852518 <__bss_end__+0x847e48>
    a090:	00000000 	andeq	r0, r0, r0
    a094:	6c616d6b 	stclvs	13, cr6, [r1], #-428	; 0xfffffe54
    a098:	2e636f6c 	cdpcs	15, 6, cr6, cr3, cr12, {3}
    a09c:	00000063 	andeq	r0, r0, r3, rrx
    a0a0:	5f78616d 	svcpl	0x0078616d
    a0a4:	7479626e 	ldrbtvc	r6, [r9], #-622	; 0xfffffd92
    a0a8:	00007365 	andeq	r7, r0, r5, ror #6
    a0ac:	494e4150 	stmdbmi	lr, {r4, r6, r8, lr}^
    a0b0:	73253a43 			; <UNDEFINED> instruction: 0x73253a43
    a0b4:	3a73253a 	bcc	1cd35a4 <__bss_end__+0x1cc8ed4>
    a0b8:	733a6425 	teqvc	sl, #620756992	; 0x25000000
    a0bc:	69747465 	ldmdbvs	r4!, {r0, r2, r5, r6, sl, ip, sp, lr}^
    a0c0:	6820676e 	stmdavs	r0!, {r1, r2, r3, r5, r6, r8, r9, sl, sp, lr}
    a0c4:	20706165 	rsbscs	r6, r0, r5, ror #2
    a0c8:	25206f74 	strcs	r6, [r0, #-3956]!	; 0xfffff08c
    a0cc:	77203a70 			; <UNDEFINED> instruction: 0x77203a70
    a0d0:	206c6c69 	rsbcs	r6, ip, r9, ror #24
    a0d4:	20746968 	rsbscs	r6, r4, r8, ror #18
    a0d8:	20656874 	rsbcs	r6, r5, r4, ror r8
    a0dc:	20646c6f 	rsbcs	r6, r4, pc, ror #24
    a0e0:	70616568 	rsbvc	r6, r1, r8, ror #10
    a0e4:	20746120 	rsbscs	r6, r4, r0, lsr #2
    a0e8:	0a0a7025 	beq	2a6184 <__bss_end__+0x29bab4>
    a0ec:	00000000 	andeq	r0, r0, r0
    a0f0:	494e4150 	stmdbmi	lr, {r4, r6, r8, lr}^
    a0f4:	73253a43 			; <UNDEFINED> instruction: 0x73253a43
    a0f8:	3a73253a 	bcc	1cd35e8 <__bss_end__+0x1cc8f18>
    a0fc:	613a6425 	teqvs	sl, r5, lsr #8
    a100:	6165726c 	cmnvs	r5, ip, ror #4
    a104:	63207964 			; <UNDEFINED> instruction: 0x63207964
    a108:	656c6c61 	strbvs	r6, [ip, #-3169]!	; 0xfffff39f
    a10c:	6d6b2064 	stclvs	0, cr2, [fp, #-400]!	; 0xfffffe70
    a110:	6f6c6c61 	svcvs	0x006c6c61
    a114:	6e695f63 	cdpvs	15, 6, cr5, cr9, cr3, {3}
    a118:	0a0a7469 	beq	2a72c4 <__bss_end__+0x29cbf4>
    a11c:	00000000 	andeq	r0, r0, r0
    a120:	494e4150 	stmdbmi	lr, {r4, r6, r8, lr}^
    a124:	73253a43 			; <UNDEFINED> instruction: 0x73253a43
    a128:	3a73253a 	bcc	1cd3618 <__bss_end__+0x1cc8f48>
    a12c:	253a6425 	ldrcs	r6, [sl, #-1061]!	; 0xfffffbdb
    a130:	626e2064 	rsbvs	r2, lr, #100, 0	; 0x64
    a134:	73657479 	cmnvc	r5, #2030043136	; 0x79000000
    a138:	63786520 	cmnvs	r8, #32, 10	; 0x8000000
    a13c:	65646565 	strbvs	r6, [r4, #-1381]!	; 0xfffffa9b
    a140:	69732064 	ldmdbvs	r3!, {r2, r5, r6, sp}^
    a144:	6f20657a 	svcvs	0x0020657a
    a148:	65682066 	strbvs	r2, [r8, #-102]!	; 0xffffff9a
    a14c:	62207061 	eorvs	r7, r0, #97, 0	; 0x61
    a150:	75252079 	strvc	r2, [r5, #-121]!	; 0xffffff87
    a154:	79626e20 	stmdbvc	r2!, {r5, r9, sl, fp, sp, lr}^
    a158:	0a736574 	beq	1ce3730 <__bss_end__+0x1cd9060>
    a15c:	0000000a 	andeq	r0, r0, sl
    a160:	4f525245 	svcmi	0x00525245
    a164:	73253a52 			; <UNDEFINED> instruction: 0x73253a52
    a168:	3a73253a 	bcc	1cd3658 <__bss_end__+0x1cc8f88>
    a16c:	203a6425 	eorscs	r6, sl, r5, lsr #8
    a170:	534c4146 	movtpl	r4, #49478	; 0xc146
    a174:	253c2845 	ldrcs	r2, [ip, #-2117]!	; 0xfffff7bb
    a178:	3a293e73 	bcc	a59b4c <__bss_end__+0xa4f47c>
    a17c:	73736120 	cmnvc	r3, #8
    a180:	6e696d75 	mcrvs	13, 3, r6, cr9, cr5, {3}
    a184:	6f702067 	svcvs	0x00702067
    a188:	20726577 	rsbscs	r6, r2, r7, ror r5
    a18c:	7420666f 	strtvc	r6, [r0], #-1647	; 0xfffff991
    a190:	000a6f77 	andeq	r6, sl, r7, ror pc
    a194:	705f7369 	subsvc	r7, pc, r9, ror #6
    a198:	2832776f 	ldmdacs	r2!, {r0, r1, r2, r3, r5, r6, r8, r9, sl, ip, sp, lr}
    a19c:	67696c61 	strbvs	r6, [r9, -r1, ror #24]!
    a1a0:	6e656d6e 	cdpvs	13, 6, cr6, cr5, cr14, {3}
    a1a4:	00002974 	andeq	r2, r0, r4, ror r9
    a1a8:	705f7369 	subsvc	r7, pc, r9, ror #6
    a1ac:	2832776f 	ldmdacs	r2!, {r0, r1, r2, r3, r5, r6, r8, r9, sl, ip, sp, lr}
    a1b0:	0000296e 	andeq	r2, r0, lr, ror #18
    a1b4:	4f525245 	svcmi	0x00525245
    a1b8:	73253a52 			; <UNDEFINED> instruction: 0x73253a52
    a1bc:	3a73253a 	bcc	1cd36ac <__bss_end__+0x1cc8fdc>
    a1c0:	203a6425 	eorscs	r6, sl, r5, lsr #8
    a1c4:	534c4146 	movtpl	r4, #49478	; 0xc146
    a1c8:	253c2845 	ldrcs	r2, [ip, #-2117]!	; 0xfffff7bb
    a1cc:	3a293e73 	bcc	a59ba0 <__bss_end__+0xa4f4d0>
    a1d0:	706d6920 	rsbvc	r6, sp, r0, lsr #18
    a1d4:	6973736f 	ldmdbvs	r3!, {r0, r1, r2, r3, r5, r6, r8, r9, ip, sp, lr}^
    a1d8:	0a656c62 	beq	1965368 <__bss_end__+0x195ac98>
    a1dc:	00000000 	andeq	r0, r0, r0
    a1e0:	615f7369 	cmpvs	pc, r9, ror #6
    a1e4:	6e67696c 	vnmulvs.f16	s13, s14, s25	; <UNPREDICTABLE>
    a1e8:	68286465 	stmdavs	r8!, {r0, r2, r5, r6, sl, sp, lr}
    a1ec:	6c61202c 	stclvs	0, cr2, [r1], #-176	; 0xffffff50
    a1f0:	6d6e6769 	stclvs	7, cr6, [lr, #-420]!	; 0xfffffe5c
    a1f4:	29746e65 	ldmdbcs	r4!, {r0, r2, r5, r6, r9, sl, fp, sp, lr}^
    a1f8:	00000000 	andeq	r0, r0, r0
    a1fc:	494e4150 	stmdbmi	lr, {r4, r6, r8, lr}^
    a200:	73253a43 			; <UNDEFINED> instruction: 0x73253a43
    a204:	3a73253a 	bcc	1cd36f4 <__bss_end__+0x1cc9024>
    a208:	703a6425 	eorsvc	r6, sl, r5, lsr #8
    a20c:	746e696f 	strbtvc	r6, [lr], #-2415	; 0xfffff691
    a210:	25207265 	strcs	r7, [r0, #-613]!	; 0xfffffd9b
    a214:	61772070 	cmnvs	r7, r0, ror r0
    a218:	656e2073 	strbvs	r2, [lr, #-115]!	; 0xffffff8d
    a21c:	20726576 	rsbscs	r6, r2, r6, ror r5
    a220:	6f6c6c61 	svcvs	0x006c6c61
    a224:	65746163 	ldrbvs	r6, [r4, #-355]!	; 0xfffffe9d
    a228:	000a0a64 	andeq	r0, sl, r4, ror #20

0000a22c <__FUNCTION__.7>:
    a22c:	6c616d6b 	stclvs	13, cr6, [r1], #-428	; 0xfffffe54
    a230:	5f636f6c 	svcpl	0x00636f6c
    a234:	74696e69 	strbtvc	r6, [r9], #-3689	; 0xfffff197
    a238:	7465735f 	strbtvc	r7, [r5], #-863	; 0xfffffca1
    a23c:	6174735f 	cmnvs	r4, pc, asr r3
    a240:	00007472 	andeq	r7, r0, r2, ror r4

0000a244 <__FUNCTION__.5>:
    a244:	6c616d6b 	stclvs	13, cr6, [r1], #-428	; 0xfffffe54
    a248:	5f636f6c 	svcpl	0x00636f6c
    a24c:	74696e69 	strbtvc	r6, [r9], #-3689	; 0xfffff197
    a250:	00000000 	andeq	r0, r0, r0

0000a254 <__FUNCTION__.4>:
    a254:	6c616d6b 	stclvs	13, cr6, [r1], #-428	; 0xfffffe54
    a258:	5f636f6c 	svcpl	0x00636f6c
    a25c:	7a746f6e 	bvc	1d2601c <__bss_end__+0x1d1b94c>
    a260:	006f7265 	rsbeq	r7, pc, r5, ror #4

0000a264 <__FUNCTION__.2>:
    a264:	6c616d6b 	stclvs	13, cr6, [r1], #-428	; 0xfffffe54
    a268:	00636f6c 	rsbeq	r6, r3, ip, ror #30

0000a26c <__FUNCTION__.1>:
    a26c:	6c616d6b 	stclvs	13, cr6, [r1], #-428	; 0xfffffe54
    a270:	5f636f6c 	svcpl	0x00636f6c
    a274:	67696c61 	strbvs	r6, [r9, -r1, ror #24]!
    a278:	0064656e 	rsbeq	r6, r4, lr, ror #10

0000a27c <__FUNCTION__.3>:
    a27c:	6e756f72 	mrcvs	15, 3, r6, cr5, cr2, {3}
    a280:	00707564 	rsbseq	r7, r0, r4, ror #10

0000a284 <__FUNCTION__.0>:
    a284:	6572666b 	ldrbvs	r6, [r2, #-1643]!	; 0xfffff995
    a288:	6f705f65 	svcvs	0x00705f65
    a28c:	Address 0x000000000000a28c is out of bounds.


Disassembly of section .data:

0000a290 <putk>:
    a290:	000087d0 	ldrdeq	r8, [r0], -r0

0000a294 <heap>:
    a294:	0000a6d0 	ldrdeq	sl, [r0], -r0

0000a298 <heap_start>:
    a298:	0000a6d0 	ldrdeq	sl, [r0], -r0

0000a29c <heap_end>:
    a29c:	0020a6d0 	ldrdeq	sl, [r0], -r0	; <UNPREDICTABLE>

0000a2a0 <rpi_putchar>:
    a2a0:	00009bc4 	andeq	r9, r0, r4, asr #23

Disassembly of section .bss:

0000a2a8 <__bss_start__>:
	...

0000a2b0 <freep>:
	...

0000a2b8 <base>:
	...

0000a2c0 <init_p.4012>:
    a2c0:	00000000 	andeq	r0, r0, r0

0000a2c4 <buf.3944>:
	...

0000a6c4 <init_p.6>:
    a6c4:	00000000 	andeq	r0, r0, r0

0000a6c8 <global_p>:
	...

Disassembly of section .ARM.attributes:

00000000 <.ARM.attributes>:
   0:	00002a41 	andeq	r2, r0, r1, asr #20
   4:	61656100 	cmnvs	r5, r0, lsl #2
   8:	01006962 	tsteq	r0, r2, ror #18
   c:	00000020 	andeq	r0, r0, r0, lsr #32
  10:	4b5a3605 	blmi	168d82c <__bss_end__+0x168315c>
  14:	08070600 	stmdaeq	r7, {r9, sl}
  18:	12010901 	andne	r0, r1, #16384	; 0x4000
  1c:	15011404 	strne	r1, [r1, #-1028]	; 0xfffffbfc
  20:	18031701 	stmdane	r3, {r0, r8, r9, sl, ip}
  24:	22011a01 	andcs	r1, r1, #4096	; 0x1000
  28:	Address 0x0000000000000028 is out of bounds.


Disassembly of section .comment:

00000000 <.comment>:
   0:	3a434347 	bcc	10d0d24 <__bss_end__+0x10c6654>
   4:	4e472820 	cdpmi	8, 4, cr2, cr7, cr0, {1}
   8:	6f542055 	svcvs	0x00542055
   c:	20736c6f 	rsbscs	r6, r3, pc, ror #24
  10:	20726f66 	rsbscs	r6, r2, r6, ror #30
  14:	206d7241 	rsbcs	r7, sp, r1, asr #4
  18:	65626d45 	strbvs	r6, [r2, #-3397]!	; 0xfffff2bb
  1c:	64656464 	strbtvs	r6, [r5], #-1124	; 0xfffffb9c
  20:	6f725020 	svcvs	0x00725020
  24:	73736563 	cmnvc	r3, #415236096	; 0x18c00000
  28:	2073726f 	rsbscs	r7, r3, pc, ror #4
  2c:	30322d39 	eorscc	r2, r2, r9, lsr sp
  30:	712d3931 			; <UNDEFINED> instruction: 0x712d3931
  34:	616d2d34 	cmnvs	sp, r4, lsr sp
  38:	29726f6a 	ldmdbcs	r2!, {r1, r3, r5, r6, r8, r9, sl, fp, sp, lr}^
  3c:	322e3920 	eorcc	r3, lr, #32, 18	; 0x80000
  40:	3220312e 	eorcc	r3, r0, #-2147483637	; 0x8000000b
  44:	31393130 	teqcc	r9, r0, lsr r1
  48:	20353230 	eorscs	r3, r5, r0, lsr r2
  4c:	6c657228 	sfmvs	f7, 2, [r5], #-160	; 0xffffff60
  50:	65736165 	ldrbvs	r6, [r3, #-357]!	; 0xfffffe9b
  54:	415b2029 	cmpmi	fp, r9, lsr #32
  58:	612f4d52 			; <UNDEFINED> instruction: 0x612f4d52
  5c:	392d6d72 	pushcc	{r1, r4, r5, r6, r8, sl, fp, sp, lr}
  60:	6172622d 	cmnvs	r2, sp, lsr #4
  64:	2068636e 	rsbcs	r6, r8, lr, ror #6
  68:	69766572 	ldmdbvs	r6!, {r1, r4, r5, r6, r8, sl, sp, lr}^
  6c:	6e6f6973 			; <UNDEFINED> instruction: 0x6e6f6973
  70:	37373220 	ldrcc	r3, [r7, -r0, lsr #4]!
  74:	5d393935 			; <UNDEFINED> instruction: 0x5d393935
  78:	43434700 	movtmi	r4, #14080	; 0x3700
  7c:	4728203a 			; <UNDEFINED> instruction: 0x4728203a
  80:	4120554e 			; <UNDEFINED> instruction: 0x4120554e
  84:	45206d72 	strmi	r6, [r0, #-3442]!	; 0xfffff28e
  88:	6465626d 	strbtvs	r6, [r5], #-621	; 0xfffffd93
  8c:	20646564 	rsbcs	r6, r4, r4, ror #10
  90:	6c6f6f54 	stclvs	15, cr6, [pc], #-336	; ffffff48 <__bss_end__+0xffff5878>
  94:	69616863 	stmdbvs	r1!, {r0, r1, r5, r6, fp, sp, lr}^
  98:	3031206e 	eorscc	r2, r1, lr, rrx
  9c:	322d332e 	eorcc	r3, sp, #-1207959552	; 0xb8000000
  a0:	2e313230 	mrccs	2, 1, r3, cr1, cr0, {1}
  a4:	20293031 	eorcs	r3, r9, r1, lsr r0
  a8:	332e3031 			; <UNDEFINED> instruction: 0x332e3031
  ac:	3220312e 	eorcc	r3, r0, #-2147483637	; 0x8000000b
  b0:	30313230 	eorscc	r3, r1, r0, lsr r2
  b4:	20343238 	eorscs	r3, r4, r8, lsr r2
  b8:	6c657228 	sfmvs	f7, 2, [r5], #-160	; 0xffffff60
  bc:	65736165 	ldrbvs	r6, [r3, #-357]!	; 0xfffffe9b
  c0:	Address 0x00000000000000c0 is out of bounds.


Disassembly of section .debug_info:

00000000 <.debug_info>:
       0:	00000327 	andeq	r0, r0, r7, lsr #6
       4:	00000004 	andeq	r0, r0, r4
       8:	01040000 	mrseq	r0, (UNDEF: 4)
       c:	00000111 	andeq	r0, r0, r1, lsl r1
      10:	0000fd0c 	andeq	pc, r0, ip, lsl #26
      14:	0000a200 	andeq	sl, r0, r0, lsl #4
      18:	00803800 	addeq	r3, r0, r0, lsl #16
      1c:	0000cc00 	andeq	ip, r0, r0, lsl #24
      20:	00000000 	andeq	r0, r0, r0
      24:	05040200 	streq	r0, [r4, #-512]	; 0xfffffe00
      28:	00746e69 	rsbseq	r6, r4, r9, ror #28
      2c:	7e070403 	cdpvc	4, 0, cr0, cr7, cr3, {0}
      30:	03000000 	movweq	r0, #0
      34:	002c0601 	eoreq	r0, ip, r1, lsl #12
      38:	02030000 	andeq	r0, r3, #0, 0
      3c:	0000d405 	andeq	sp, r0, r5, lsl #8
      40:	05040300 	streq	r0, [r4, #-768]	; 0xfffffd00
      44:	00000099 	muleq	r0, r9, r0
      48:	94050803 	strls	r0, [r5], #-2051	; 0xfffff7fd
      4c:	03000000 	movweq	r0, #0
      50:	002a0801 	eoreq	r0, sl, r1, lsl #16
      54:	02030000 	andeq	r0, r3, #0, 0
      58:	00003807 	andeq	r3, r0, r7, lsl #16
      5c:	00e80400 	rsceq	r0, r8, r0, lsl #8
      60:	34040000 	strcc	r0, [r4], #-0
      64:	00006919 	andeq	r6, r0, r9, lsl r9
      68:	07040300 	streq	r0, [r4, -r0, lsl #6]
      6c:	00000079 	andeq	r0, r0, r9, ror r0
      70:	74070803 	strvc	r0, [r7], #-2051	; 0xfffff7fd
      74:	05000000 	streq	r0, [r0, #-0]
      78:	00000025 	andeq	r0, r0, r5, lsr #32
      7c:	00000086 	andeq	r0, r0, r6, lsl #1
      80:	00002506 	andeq	r2, r0, r6, lsl #10
      84:	f1070000 			; <UNDEFINED> instruction: 0xf1070000
      88:	03000000 	movweq	r0, #0
      8c:	00920e1c 	addseq	r0, r2, ip, lsl lr
      90:	04080000 	streq	r0, [r8], #-0
      94:	00000077 	andeq	r0, r0, r7, ror r0
      98:	00002505 	andeq	r2, r0, r5, lsl #10
      9c:	0000a700 	andeq	sl, r0, r0, lsl #14
      a0:	00a70600 	adceq	r0, r7, r0, lsl #12
      a4:	08000000 	stmdaeq	r0, {}	; <UNPREDICTABLE>
      a8:	0000b404 	andeq	fp, r0, r4, lsl #8
      ac:	08010300 	stmdaeq	r1, {r8, r9}
      b0:	00000033 	andeq	r0, r0, r3, lsr r0
      b4:	0000ad09 	andeq	sl, r0, r9, lsl #26
      b8:	057a0700 	ldrbeq	r0, [sl, #-1792]!	; 0xfffff900
      bc:	21030000 	mrscs	r0, (UNDEF: 3)
      c0:	0000c50e 	andeq	ip, r0, lr, lsl #10
      c4:	98040800 	stmdals	r4, {fp}
      c8:	0a000000 	beq	d0 <__code_start__-0x7f30>
      cc:	0904020c 	stmdbeq	r4, {r2, r3, r9}
      d0:	000000fc 	strdeq	r0, [r0], -ip
      d4:	0000250b 	andeq	r2, r0, fp, lsl #10
      d8:	11060200 	mrsne	r0, LR_usr
      dc:	000000a7 	andeq	r0, r0, r7, lsr #1
      e0:	005d0b00 	subseq	r0, sp, r0, lsl #22
      e4:	07020000 	streq	r0, [r2, -r0]
      e8:	0000a711 	andeq	sl, r0, r1, lsl r7
      ec:	080b0400 	stmdaeq	fp, {sl}
      f0:	02000000 	andeq	r0, r0, #0, 0
      f4:	002c0e08 	eoreq	r0, ip, r8, lsl #28
      f8:	00080000 	andeq	r0, r8, r0
      fc:	0000de04 	andeq	sp, r0, r4, lsl #28
     100:	03090200 	movweq	r0, #37376	; 0x9200
     104:	000000cb 	andeq	r0, r0, fp, asr #1
     108:	8b0d040c 	blhi	341140 <__bss_end__+0x336a70>
     10c:	01000000 	mrseq	r0, (UNDEF: 0)
     110:	011c0715 	tsteq	ip, r5, lsl r7
     114:	03050000 	movweq	r0, #20480	; 0x5000
     118:	0000a6c8 	andeq	sl, r0, r8, asr #13
     11c:	00ad0408 	adceq	r0, sp, r8, lsl #8
     120:	0f0e0000 	svceq	0x000e0000
     124:	01000000 	mrseq	r0, (UNDEF: 0)
     128:	80dc0626 	sbcshi	r0, ip, r6, lsr #12
     12c:	00280000 	eoreq	r0, r8, r0
     130:	9c010000 	stcls	0, cr0, [r1], {-0}
     134:	0000016c 	andeq	r0, r0, ip, ror #2
     138:	0080e80f 	addeq	lr, r0, pc, lsl #16
     13c:	0002f100 	andeq	pc, r2, r0, lsl #2
     140:	00014f00 	andeq	r4, r1, r0, lsl #30
     144:	50011000 	andpl	r1, r1, r0
     148:	9d140305 	ldcls	3, cr0, [r4, #-20]	; 0xffffffec
     14c:	11000000 	mrsne	r0, (UNDEF: 0)
     150:	000080ec 	andeq	r8, r0, ip, ror #1
     154:	0000016c 	andeq	r0, r0, ip, ror #2
     158:	0080f812 	addeq	pc, r0, r2, lsl r8	; <UNPREDICTABLE>
     15c:	0002f100 	andeq	pc, r2, r0, lsl #2
     160:	50011000 	andpl	r1, r1, r0
     164:	9d5c0305 	ldclls	3, cr0, [ip, #-20]	; 0xffffffec
     168:	00000000 	andeq	r0, r0, r0
     16c:	00006f13 	andeq	r6, r0, r3, lsl pc
     170:	08160100 	ldmdaeq	r6, {r8}
     174:	00000108 	andeq	r0, r0, r8, lsl #2
     178:	00008038 	andeq	r8, r0, r8, lsr r0
     17c:	000000a4 	andeq	r0, r0, r4, lsr #1
     180:	02a69c01 	adceq	r9, r6, #256	; 0x100
     184:	c6070000 	strgt	r0, [r7], -r0
     188:	01000001 	tsteq	r0, r1
     18c:	005d1217 	subseq	r1, sp, r7, lsl r2
     190:	d5070000 	strle	r0, [r7, #-0]
     194:	01000001 	tsteq	r0, r1
     198:	005d2217 	subseq	r2, sp, r7, lsl r2
     19c:	62140000 	andsvs	r0, r4, #0, 0
     1a0:	b6000000 	strlt	r0, [r0], -r0
     1a4:	05000002 	streq	r0, [r0, #-2]
     1a8:	009d6c03 	addseq	r6, sp, r3, lsl #24
     1ac:	00701500 	rsbseq	r1, r0, r0, lsl #10
     1b0:	080b1d01 	stmdaeq	fp, {r0, r8, sl, fp, ip}
     1b4:	06000001 	streq	r0, [r0], -r1
     1b8:	00000000 	andeq	r0, r0, r0
     1bc:	16000000 	strne	r0, [r0], -r0
     1c0:	000002bb 			; <UNDEFINED> instruction: 0x000002bb
     1c4:	00008058 	andeq	r8, r0, r8, asr r0
     1c8:	00805801 	addeq	r5, r0, r1, lsl #16
     1cc:	00001800 	andeq	r1, r0, r0, lsl #16
     1d0:	101a0100 	andsne	r0, sl, r0, lsl #2
     1d4:	00000200 	andeq	r0, r0, r0, lsl #4
     1d8:	0002e417 	andeq	lr, r2, r7, lsl r4
     1dc:	00003100 	andeq	r3, r0, r0, lsl #2
     1e0:	00002f00 	andeq	r2, r0, r0, lsl #30
     1e4:	02d81700 	sbcseq	r1, r8, #0, 14
     1e8:	00470000 	subeq	r0, r7, r0
     1ec:	00450000 	subeq	r0, r5, r0
     1f0:	cc170000 	ldcgt	0, cr0, [r7], {-0}
     1f4:	61000002 	tstvs	r0, r2
     1f8:	5f000000 	svcpl	0x00000000
     1fc:	00000000 	andeq	r0, r0, r0
     200:	0002bb16 	andeq	fp, r2, r6, lsl fp
     204:	00809000 	addeq	r9, r0, r0
     208:	80900100 	addshi	r0, r0, r0, lsl #2
     20c:	00100000 	andseq	r0, r0, r0
     210:	1d010000 	stcne	0, cr0, [r1, #-0]
     214:	0002410e 	andeq	r4, r2, lr, lsl #2
     218:	02e41700 	rsceq	r1, r4, #0, 14
     21c:	007b0000 	rsbseq	r0, fp, r0
     220:	00790000 	rsbseq	r0, r9, r0
     224:	d8170000 	ldmdale	r7, {}	; <UNPREDICTABLE>
     228:	91000002 	tstls	r0, r2
     22c:	8f000000 	svchi	0x00000000
     230:	17000000 	strne	r0, [r0, -r0]
     234:	000002cc 	andeq	r0, r0, ip, asr #5
     238:	000000ab 	andeq	r0, r0, fp, lsr #1
     23c:	000000a9 	andeq	r0, r0, r9, lsr #1
     240:	80580f00 	subshi	r0, r8, r0, lsl #30
     244:	02f10000 	rscseq	r0, r1, #0, 0
     248:	025e0000 	subseq	r0, lr, #0, 0
     24c:	01100000 	tsteq	r0, r0
     250:	d8030550 	stmdale	r3, {r4, r6, r8, sl}
     254:	1000009c 	mulne	r0, ip, r0
     258:	76025101 	strvc	r5, [r2], -r1, lsl #2
     25c:	800f0000 	andhi	r0, pc, r0
     260:	06000080 	streq	r0, [r0], -r0, lsl #1
     264:	71000003 	tstvc	r0, r3
     268:	10000002 	andne	r0, r0, r2
     26c:	34015001 	strcc	r5, [r1], #-1
     270:	80900f00 	addshi	r0, r0, r0, lsl #30
     274:	03120000 	tsteq	r2, #0, 0
     278:	02890000 	addeq	r0, r9, #0, 0
     27c:	01100000 	tsteq	r0, r0
     280:	10300151 	eorsne	r0, r0, r1, asr r1
     284:	34015201 	strcc	r5, [r1], #-513	; 0xfffffdff
     288:	80b00f00 	adcshi	r0, r0, r0, lsl #30
     28c:	03060000 	movweq	r0, #24576	; 0x6000
     290:	029c0000 	addseq	r0, ip, #0, 0
     294:	01100000 	tsteq	r0, r0
     298:	00340150 	eorseq	r0, r4, r0, asr r1
     29c:	0080b811 	addeq	fp, r0, r1, lsl r8
     2a0:	00031e00 	andeq	r1, r3, r0, lsl #28
     2a4:	b4180000 	ldrlt	r0, [r8], #-0
     2a8:	b6000000 	strlt	r0, [r0], -r0
     2ac:	19000002 	stmdbne	r0, {r1}
     2b0:	0000002c 	andeq	r0, r0, ip, lsr #32
     2b4:	a6090004 	strge	r0, [r9], -r4
     2b8:	1a000002 	bne	2c8 <__code_start__-0x7d38>
     2bc:	0000004b 	andeq	r0, r0, fp, asr #32
     2c0:	fc0b0c02 	stc2	12, cr0, [fp], {2}
     2c4:	03000000 	movweq	r0, #0
     2c8:	000002f1 	strdeq	r0, [r0], -r1
     2cc:	0000251b 	andeq	r2, r0, fp, lsl r5
     2d0:	220c0200 	andcs	r0, ip, #0, 4
     2d4:	000000a7 	andeq	r0, r0, r7, lsr #1
     2d8:	00005d1b 	andeq	r5, r0, fp, lsl sp
     2dc:	340c0200 	strcc	r0, [ip], #-512	; 0xfffffe00
     2e0:	000000a7 	andeq	r0, r0, r7, lsr #1
     2e4:	0000081b 	andeq	r0, r0, fp, lsl r8
     2e8:	430c0200 	movwmi	r0, #49664	; 0xc200
     2ec:	0000002c 	andeq	r0, r0, ip, lsr #32
     2f0:	053c1c00 	ldreq	r1, [ip, #-3072]!	; 0xfffff400
     2f4:	053c0000 	ldreq	r0, [ip, #-0]!
     2f8:	28030000 	stmdacs	r3, {}	; <UNPREDICTABLE>
     2fc:	9e071d06 	cdpls	13, 0, cr1, cr7, cr6, {0}
     300:	73657405 	cmnvc	r5, #83886080	; 0x5000000
     304:	001c0074 	andseq	r0, ip, r4, ror r0
     308:	00000000 	andeq	r0, r0, r0
     30c:	05000000 	streq	r0, [r0, #-0]
     310:	561c0832 			; <UNDEFINED> instruction: 0x561c0832
     314:	56000000 	strpl	r0, [r0], -r0
     318:	03000000 	movweq	r0, #0
     31c:	171c07f2 			; <UNDEFINED> instruction: 0x171c07f2
     320:	17000000 	strne	r0, [r0, -r0]
     324:	05000000 	streq	r0, [r0, #-0]
     328:	33000656 	movwcc	r0, #1622	; 0x656
     32c:	04000007 	streq	r0, [r0], #-7
     330:	0001a600 	andeq	sl, r1, r0, lsl #12
     334:	11010400 	tstne	r1, r0, lsl #8
     338:	0c000001 	stceq	0, cr0, [r0], {1}
     33c:	00000298 	muleq	r0, r8, r2
     340:	000000a2 	andeq	r0, r0, r2, lsr #1
     344:	00008104 	andeq	r8, r0, r4, lsl #2
     348:	000002f4 	strdeq	r0, [r0], -r4
     34c:	00000155 	andeq	r0, r0, r5, asr r1
     350:	69050402 	stmdbvs	r5, {r1, sl}
     354:	0300746e 	movweq	r7, #1134	; 0x46e
     358:	007e0704 	rsbseq	r0, lr, r4, lsl #14
     35c:	01030000 	mrseq	r0, (UNDEF: 3)
     360:	00002c06 	andeq	r2, r0, r6, lsl #24
     364:	05020300 	streq	r0, [r2, #-768]	; 0xfffffd00
     368:	000000d4 	ldrdeq	r0, [r0], -r4
     36c:	99050403 	stmdbls	r5, {r0, r1, sl}
     370:	03000000 	movweq	r0, #0
     374:	00940508 	addseq	r0, r4, r8, lsl #10
     378:	01030000 	mrseq	r0, (UNDEF: 3)
     37c:	00002a08 	andeq	r2, r0, r8, lsl #20
     380:	02710400 	rsbseq	r0, r1, #0, 8
     384:	31030000 	mrscc	r0, (UNDEF: 3)
     388:	00006219 	andeq	r6, r0, r9, lsl r2
     38c:	07020300 	streq	r0, [r2, -r0, lsl #6]
     390:	00000038 	andeq	r0, r0, r8, lsr r0
     394:	0000e804 	andeq	lr, r0, r4, lsl #16
     398:	19340300 	ldmdbne	r4!, {r8, r9}
     39c:	00000075 	andeq	r0, r0, r5, ror r0
     3a0:	79070403 	stmdbvc	r7, {r0, r1, sl}
     3a4:	03000000 	movweq	r0, #0
     3a8:	00740708 	rsbseq	r0, r4, r8, lsl #14
     3ac:	25050000 	strcs	r0, [r5, #-0]
     3b0:	92000000 	andls	r0, r0, #0, 0
     3b4:	06000000 	streq	r0, [r0], -r0
     3b8:	00000025 	andeq	r0, r0, r5, lsr #32
     3bc:	00f10700 	rscseq	r0, r1, r0, lsl #14
     3c0:	1c040000 	stcne	0, cr0, [r4], {-0}
     3c4:	00009e0e 	andeq	r9, r0, lr, lsl #28
     3c8:	83040800 	movwhi	r0, #18432	; 0x4800
     3cc:	05000000 	streq	r0, [r0, #-0]
     3d0:	00000025 	andeq	r0, r0, r5, lsr #32
     3d4:	000000b3 	strheq	r0, [r0], -r3
     3d8:	0000b306 	andeq	fp, r0, r6, lsl #6
     3dc:	04080000 	streq	r0, [r8], #-0
     3e0:	000000c0 	andeq	r0, r0, r0, asr #1
     3e4:	33080103 	movwcc	r0, #33027	; 0x8103
     3e8:	09000000 	stmdbeq	r0, {}	; <UNPREDICTABLE>
     3ec:	000000b9 	strheq	r0, [r0], -r9
     3f0:	00057a07 	andeq	r7, r5, r7, lsl #20
     3f4:	0e210400 	cdpeq	4, 2, cr0, cr1, cr0, {0}
     3f8:	000000d1 	ldrdeq	r0, [r0], -r1
     3fc:	00a40408 	adceq	r0, r4, r8, lsl #8
     400:	0c0a0000 	stceq	0, cr0, [sl], {-0}
     404:	08090405 	stmdaeq	r9, {r0, r2, sl}
     408:	0b000001 	bleq	414 <__code_start__-0x7bec>
     40c:	00000025 	andeq	r0, r0, r5, lsr #32
     410:	b3110605 	tstlt	r1, #5242880	; 0x500000
     414:	00000000 	andeq	r0, r0, r0
     418:	00005d0b 	andeq	r5, r0, fp, lsl #26
     41c:	11070500 	tstne	r7, r0, lsl #10
     420:	000000b3 	strheq	r0, [r0], -r3
     424:	00080b04 	andeq	r0, r8, r4, lsl #22
     428:	08050000 	stmdaeq	r5, {}	; <UNPREDICTABLE>
     42c:	00002c0e 	andeq	r2, r0, lr, lsl #24
     430:	04000800 	streq	r0, [r0], #-2048	; 0xfffff800
     434:	000000de 	ldrdeq	r0, [r0], -lr
     438:	d7030905 	strle	r0, [r3, -r5, lsl #18]
     43c:	0c000000 	stceq	0, cr0, [r0], {-0}
     440:	004f0107 	subeq	r0, pc, r7, lsl #2
     444:	09020000 	stmdbeq	r2, {}	; <UNPREDICTABLE>
     448:	00012f0e 	andeq	r2, r1, lr, lsl #30
     44c:	02a20d00 	adceq	r0, r2, #0, 26
     450:	0d0b0000 	stceq	0, cr0, [fp, #-0]
     454:	000001f8 	strdeq	r0, [r0], -r8
     458:	3d0e000c 	stccc	0, cr0, [lr, #-48]	; 0xffffffd0
     45c:	24000002 	strcs	r0, [r0], #-2
     460:	98100c02 	ldmdals	r0, {r1, sl, fp}
     464:	0b000001 	bleq	470 <__code_start__-0x7b90>
     468:	000002e8 	andeq	r0, r0, r8, ror #5
     46c:	98140d02 	ldmdals	r4, {r1, r8, sl, fp}
     470:	00000001 	andeq	r0, r0, r1
     474:	0002aa0b 	andeq	sl, r2, fp, lsl #20
     478:	0e0e0200 	cdpeq	2, 0, cr0, cr14, cr0, {0}
     47c:	00000069 	andeq	r0, r0, r9, rrx
     480:	025b0b04 	subseq	r0, fp, #4, 22	; 0x1000
     484:	0f020000 	svceq	0x00020000
     488:	0000690e 	andeq	r6, r0, lr, lsl #18
     48c:	440b0800 	strmi	r0, [fp], #-2048	; 0xfffff800
     490:	02000002 	andeq	r0, r0, #2, 0
     494:	01080f11 	tsteq	r8, r1, lsl pc
     498:	0b0c0000 	bleq	3004a0 <__bss_end__+0x2f5dd0>
     49c:	00000266 	andeq	r0, r0, r6, ror #4
     4a0:	690e1402 	stmdbvs	lr, {r1, sl, ip}
     4a4:	18000000 	stmdane	r0, {}	; <UNPREDICTABLE>
     4a8:	0001fe0b 	andeq	pc, r1, fp, lsl #28
     4ac:	0e150200 	cdpeq	2, 1, cr0, cr5, cr0, {0}
     4b0:	00000069 	andeq	r0, r0, r9, rrx
     4b4:	02610b1c 	rsbeq	r0, r1, #28, 22	; 0x7000
     4b8:	17020000 	strne	r0, [r2, -r0]
     4bc:	0000560e 	andeq	r5, r0, lr, lsl #12
     4c0:	08002000 	stmdaeq	r0, {sp}
     4c4:	00012f04 	andeq	r2, r1, r4, lsl #30
     4c8:	01f20400 	mvnseq	r0, r0, lsl #8
     4cc:	18020000 	stmdane	r2, {}	; <UNPREDICTABLE>
     4d0:	00012f03 	andeq	r2, r1, r3, lsl #30
     4d4:	10040f00 	andne	r0, r4, r0, lsl #30
     4d8:	00000226 	andeq	r0, r0, r6, lsr #4
     4dc:	be0f0801 	cdplt	8, 0, cr0, cr15, cr1, {0}
     4e0:	05000001 	streq	r0, [r0, #-1]
     4e4:	00a2a803 	adceq	sl, r2, r3, lsl #16
     4e8:	9e040800 	cdpls	8, 0, cr0, cr4, cr0, {0}
     4ec:	11000001 	tstne	r0, r1
     4f0:	00000000 	andeq	r0, r0, r0
     4f4:	aa086401 	bge	219500 <__bss_end__+0x20ee30>
     4f8:	68000001 	stmdavs	r0, {r0}
     4fc:	90000083 	andls	r0, r0, r3, lsl #1
     500:	01000000 	mrseq	r0, (UNDEF: 0)
     504:	00028a9c 	muleq	r2, ip, sl
     508:	02d71200 	sbcseq	r1, r7, #0, 4
     50c:	64010000 	strvs	r0, [r1], #-0
     510:	00002c1a 	andeq	r2, r0, sl, lsl ip
     514:	0000c900 	andeq	ip, r0, r0, lsl #18
     518:	0000c300 	andeq	ip, r0, r0, lsl #6
     51c:	006c1300 	rsbeq	r1, ip, r0, lsl #6
     520:	082c6401 	stmdaeq	ip!, {r0, sl, sp, lr}
     524:	02000001 	andeq	r0, r0, #1, 0
     528:	68146491 	ldmdavs	r4, {r0, r4, r7, sl, sp, lr}
     52c:	0c660100 	stfeqe	f0, [r6], #-0
     530:	000001be 			; <UNDEFINED> instruction: 0x000001be
     534:	000000fb 	strdeq	r0, [r0], -fp
     538:	000000f5 	strdeq	r0, [r0], -r5
     53c:	00838415 	addeq	r8, r3, r5, lsl r4
     540:	0006fa00 	andeq	pc, r6, r0, lsl #20
     544:	00022500 	andeq	r2, r2, r0, lsl #10
     548:	50011600 	andpl	r1, r1, r0, lsl #12
     54c:	00247602 	eoreq	r7, r4, r2, lsl #12
     550:	00839415 	addeq	r9, r3, r5, lsl r4
     554:	00070600 	andeq	r0, r7, r0, lsl #12
     558:	00024400 	andeq	r4, r2, r0, lsl #8
     55c:	50011600 	andpl	r1, r1, r0, lsl #12
     560:	16007402 	strne	r7, [r0], -r2, lsl #8
     564:	30015101 	andcc	r5, r1, r1, lsl #2
     568:	02520116 	subseq	r0, r2, #-2147483643	; 0x80000005
     56c:	15002408 	strne	r2, [r0, #-1032]	; 0xfffffbf8
     570:	000083c0 	andeq	r8, r0, r0, asr #7
     574:	00000712 	andeq	r0, r0, r2, lsl r7
     578:	00000270 	andeq	r0, r0, r0, ror r2
     57c:	05500116 	ldrbeq	r0, [r0, #-278]	; 0xfffffeea
     580:	009dd403 	addseq	sp, sp, r3, lsl #8
     584:	51011600 	tstpl	r1, r0, lsl #12
     588:	06007503 	streq	r7, [r0], -r3, lsl #10
     58c:	03520116 	cmpeq	r2, #-2147483643	; 0x80000005
     590:	16066091 			; <UNDEFINED> instruction: 0x16066091
     594:	91035301 	tstls	r3, r1, lsl #6
     598:	17000664 	strne	r0, [r0, -r4, ror #12]
     59c:	000083d0 	ldrdeq	r8, [r0], -r0
     5a0:	00000712 	andeq	r0, r0, r2, lsl r7
     5a4:	05500116 	ldrbeq	r0, [r0, #-278]	; 0xfffffeea
     5a8:	009e4803 	addseq	r4, lr, r3, lsl #16
     5ac:	51011600 	tstpl	r1, r0, lsl #12
     5b0:	00007502 	andeq	r7, r0, r2, lsl #10
     5b4:	021f1800 	andseq	r1, pc, #0, 16
     5b8:	51010000 	mrspl	r0, (UNDEF: 1)
     5bc:	00827c06 	addeq	r7, r2, r6, lsl #24
     5c0:	0000ec00 	andeq	lr, r0, r0, lsl #24
     5c4:	f99c0100 			; <UNDEFINED> instruction: 0xf99c0100
     5c8:	12000003 	andne	r0, r0, #3, 0
     5cc:	000009f9 	strdeq	r0, [r0], -r9
     5d0:	aa145101 	bge	5149dc <__bss_end__+0x50a30c>
     5d4:	2c000001 	stccs	0, cr0, [r0], {1}
     5d8:	28000001 	stmdacs	r0, {r0}
     5dc:	13000001 	movwne	r0, #1
     5e0:	5101006c 	tstpl	r1, ip, rrx
     5e4:	00010824 	andeq	r0, r1, r4, lsr #16
     5e8:	5c910200 	lfmpl	f0, 4, [r1], {0}
     5ec:	01006814 	tsteq	r0, r4, lsl r8
     5f0:	01be0c53 			; <UNDEFINED> instruction: 0x01be0c53
     5f4:	01540000 	cmpeq	r4, r0
     5f8:	014a0000 	mrseq	r0, (UNDEF: 74)
     5fc:	62190000 	andsvs	r0, r9, #0, 0
     600:	09000000 	stmdbeq	r0, {}	; <UNPREDICTABLE>
     604:	05000004 	streq	r0, [r0, #-4]
     608:	009e6403 	addseq	r6, lr, r3, lsl #8
     60c:	82b01500 	adcshi	r1, r0, #0, 10
     610:	07120000 	ldreq	r0, [r2, -r0]
     614:	030b0000 	movweq	r0, #45056	; 0xb000
     618:	01160000 	tsteq	r6, r0
     61c:	d4030550 	strle	r0, [r3], #-1360	; 0xfffffab0
     620:	1600009d 			; <UNDEFINED> instruction: 0x1600009d
     624:	76025101 	strvc	r5, [r2], -r1, lsl #2
     628:	52011600 	andpl	r1, r1, #0, 12
     62c:	16007702 	strne	r7, [r0], -r2, lsl #14
     630:	78025301 	stmdavc	r2, {r0, r8, r9, ip, lr}
     634:	bc150000 	ldclt	0, cr0, [r5], {-0}
     638:	12000082 	andne	r0, r0, #130, 0	; 0x82
     63c:	28000007 	stmdacs	r0, {r0, r1, r2}
     640:	16000003 	strne	r0, [r0], -r3
     644:	03055001 	movweq	r5, #20481	; 0x5001
     648:	00009de0 	andeq	r9, r0, r0, ror #27
     64c:	02510116 	subseq	r0, r1, #-2147483643	; 0x80000005
     650:	15000074 	strne	r0, [r0, #-116]	; 0xffffff8c
     654:	000082dc 	ldrdeq	r8, [r0], -ip
     658:	0000052e 	andeq	r0, r0, lr, lsr #10
     65c:	0000033c 	andeq	r0, r0, ip, lsr r3
     660:	02500116 	subseq	r0, r0, #-2147483643	; 0x80000005
     664:	15000074 	strne	r0, [r0, #-116]	; 0xffffff8c
     668:	000082f0 	strdeq	r8, [r0], -r0
     66c:	0000040e 	andeq	r0, r0, lr, lsl #8
     670:	00000359 	andeq	r0, r0, r9, asr r3
     674:	05500116 	ldrbeq	r0, [r0, #-278]	; 0xfffffeea
     678:	00a2a803 	adceq	sl, r2, r3, lsl #16
     67c:	51011600 	tstpl	r1, r0, lsl #12
     680:	00007502 	andeq	r7, r0, r2, lsl #10
     684:	0082f815 	addeq	pc, r2, r5, lsl r8	; <UNPREDICTABLE>
     688:	00071e00 	andeq	r1, r7, r0, lsl #28
     68c:	00036d00 	andeq	r6, r3, r0, lsl #26
     690:	50011600 	andpl	r1, r1, r0, lsl #12
     694:	00007502 	andeq	r7, r0, r2, lsl #10
     698:	00831415 	addeq	r1, r3, r5, lsl r4
     69c:	00071200 	andeq	r1, r7, r0, lsl #4
     6a0:	00039600 	andeq	r9, r3, r0, lsl #12
     6a4:	50011600 	andpl	r1, r1, r0, lsl #12
     6a8:	9df00305 	ldclls	3, cr0, [r0, #20]!
     6ac:	01160000 	tsteq	r6, r0
     6b0:	00760251 	rsbseq	r0, r6, r1, asr r2
     6b4:	02520116 	subseq	r0, r2, #-2147483643	; 0x80000005
     6b8:	01160077 	tsteq	r6, r7, ror r0
     6bc:	00780253 	rsbseq	r0, r8, r3, asr r2
     6c0:	83201500 	nophi	{0}	; <UNPREDICTABLE>
     6c4:	07120000 	ldreq	r0, [r2, -r0]
     6c8:	03ad0000 			; <UNDEFINED> instruction: 0x03ad0000
     6cc:	01160000 	tsteq	r6, r0
     6d0:	08030550 	stmdaeq	r3, {r4, r6, r8, sl}
     6d4:	0000009e 	muleq	r0, lr, r0
     6d8:	0083241a 	addeq	r2, r3, sl, lsl r4
     6dc:	00072a00 	andeq	r2, r7, r0, lsl #20
     6e0:	83401500 	movthi	r1, #1280	; 0x500
     6e4:	07120000 	ldreq	r0, [r2, -r0]
     6e8:	03ef0000 	mvneq	r0, #0, 0
     6ec:	01160000 	tsteq	r6, r0
     6f0:	80030550 	andhi	r0, r3, r0, asr r5
     6f4:	1600009d 			; <UNDEFINED> instruction: 0x1600009d
     6f8:	03055101 	movweq	r5, #20737	; 0x5101
     6fc:	00009d74 	andeq	r9, r0, r4, ror sp
     700:	05520116 	ldrbeq	r0, [r2, #-278]	; 0xfffffeea
     704:	009e6403 	addseq	r6, lr, r3, lsl #8
     708:	53011600 	movwpl	r1, #5632	; 0x1600
     70c:	165b0802 	ldrbne	r0, [fp], -r2, lsl #16
     710:	05007d02 	streq	r7, [r0, #-3330]	; 0xfffff2fe
     714:	009e3003 	addseq	r3, lr, r3
     718:	441a0000 	ldrmi	r0, [sl], #-0
     71c:	2a000083 	bcs	930 <__code_start__-0x76d0>
     720:	00000007 	andeq	r0, r0, r7
     724:	0000c01b 	andeq	ip, r0, fp, lsl r0
     728:	00040900 	andeq	r0, r4, r0, lsl #18
     72c:	002c1c00 	eoreq	r1, ip, r0, lsl #24
     730:	00060000 	andeq	r0, r6, r0
     734:	0003f909 	andeq	pc, r3, r9, lsl #18
     738:	02311d00 	eorseq	r1, r1, #0, 26
     73c:	38010000 	stmdacc	r1, {}	; <UNPREDICTABLE>
     740:	0081240d 	addeq	r2, r1, sp, lsl #8
     744:	0000a400 	andeq	sl, r0, r0, lsl #8
     748:	139c0100 	orrsne	r0, ip, #0
     74c:	1e000005 	cdpne	0, 0, cr0, cr0, cr5, {0}
     750:	3801006c 	stmdacc	r1, {r2, r3, r5, r6}
     754:	00051321 	andeq	r1, r5, r1, lsr #6
     758:	0001a500 	andeq	sl, r1, r0, lsl #10
     75c:	00019700 	andeq	r9, r1, r0, lsl #14
     760:	00681e00 	rsbeq	r1, r8, r0, lsl #28
     764:	be2b3801 	cdplt	8, 2, cr3, cr11, cr1, {0}
     768:	0f000001 	svceq	0x00000001
     76c:	03000002 	movweq	r0, #2
     770:	19000002 	stmdbne	r0, {r1}
     774:	00000062 	andeq	r0, r0, r2, rrx
     778:	00000529 	andeq	r0, r0, r9, lsr #10
     77c:	9e580305 	cdpls	3, 5, cr0, cr8, cr5, {0}
     780:	cf1f0000 	svcgt	0x001f0000
     784:	01000002 	tsteq	r0, r2
     788:	01be0c3b 			; <UNDEFINED> instruction: 0x01be0c3b
     78c:	02640000 	rsbeq	r0, r4, #0, 0
     790:	025c0000 	subseq	r0, ip, #0, 0
     794:	70140000 	andsvc	r0, r4, r0
     798:	0c430100 	stfeqe	f0, [r3], {-0}
     79c:	000001be 			; <UNDEFINED> instruction: 0x000001be
     7a0:	0000029c 	muleq	r0, ip, r2
     7a4:	00000298 	muleq	r0, r8, r2
     7a8:	00814c15 	addeq	r4, r1, r5, lsl ip
     7ac:	00069b00 	andeq	r9, r6, r0, lsl #22
     7b0:	00049100 	andeq	r9, r4, r0, lsl #2
     7b4:	50011600 	andpl	r1, r1, r0, lsl #12
     7b8:	00007502 	andeq	r7, r0, r2, lsl #10
     7bc:	00818815 	addeq	r8, r1, r5, lsl r8
     7c0:	00071200 	andeq	r1, r7, r0, lsl #4
     7c4:	0004ca00 	andeq	ip, r4, r0, lsl #20
     7c8:	50011600 	andpl	r1, r1, r0, lsl #12
     7cc:	9d800305 	stcls	3, cr0, [r0, #20]
     7d0:	01160000 	tsteq	r6, r0
     7d4:	74030551 	strvc	r0, [r3], #-1361	; 0xfffffaaf
     7d8:	1600009d 			; <UNDEFINED> instruction: 0x1600009d
     7dc:	03055201 	movweq	r5, #20993	; 0x5201
     7e0:	00009e58 	andeq	r9, r0, r8, asr lr
     7e4:	02530116 	subseq	r0, r3, #-2147483643	; 0x80000005
     7e8:	02163a08 	andseq	r3, r6, #8, 20	; 0x8000
     7ec:	0305007d 	movweq	r0, #20605	; 0x507d
     7f0:	00009d94 	muleq	r0, r4, sp
     7f4:	818c1a00 	orrhi	r1, ip, r0, lsl #20
     7f8:	072a0000 	streq	r0, [sl, -r0]!
     7fc:	b0150000 	andslt	r0, r5, r0
     800:	12000081 	andne	r0, r0, #129, 0	; 0x81
     804:	09000007 	stmdbeq	r0, {r0, r1, r2}
     808:	16000005 	strne	r0, [r0], -r5
     80c:	03055001 	movweq	r5, #20481	; 0x5001
     810:	00009d98 	muleq	r0, r8, sp
     814:	05510116 	ldrbeq	r0, [r1, #-278]	; 0xfffffeea
     818:	009d7403 	addseq	r7, sp, r3, lsl #8
     81c:	52011600 	andpl	r1, r1, #0, 12
     820:	9e580305 	cdpls	3, 5, cr0, cr8, cr5, {0}
     824:	01160000 	tsteq	r6, r0
     828:	4d080253 	sfmmi	f0, 4, [r8, #-332]	; 0xfffffeb4
     82c:	007d0216 	rsbseq	r0, sp, r6, lsl r2
     830:	00007402 	andeq	r7, r0, r2, lsl #8
     834:	0081b41a 	addeq	fp, r1, sl, lsl r4
     838:	00072a00 	andeq	r2, r7, r0, lsl #20
     83c:	04080000 	streq	r0, [r8], #-0
     840:	000001be 			; <UNDEFINED> instruction: 0x000001be
     844:	0000c01b 	andeq	ip, r0, fp, lsl r0
     848:	00052900 	andeq	r2, r5, r0, lsl #18
     84c:	002c1c00 	eoreq	r1, ip, r0, lsl #24
     850:	000b0000 	andeq	r0, fp, r0
     854:	00051909 	andeq	r1, r5, r9, lsl #18
     858:	027a1100 	rsbseq	r1, sl, #0
     85c:	29010000 	stmdbcs	r1, {}	; <UNPREDICTABLE>
     860:	0001be08 	andeq	fp, r1, r8, lsl #28
     864:	00822400 	addeq	r2, r2, r0, lsl #8
     868:	00005800 	andeq	r5, r0, r0, lsl #16
     86c:	cf9c0100 	svcgt	0x009c0100
     870:	1e000005 	cdpne	0, 0, cr0, cr0, cr5, {0}
     874:	00727470 	rsbseq	r7, r2, r0, ror r4
     878:	aa202901 	bge	80ac84 <__bss_end__+0x8005b4>
     87c:	be000001 	cdplt	0, 0, cr0, cr0, cr1, {0}
     880:	ba000002 	blt	890 <__code_start__-0x7770>
     884:	20000002 	andcs	r0, r0, r2
     888:	0000822c 	andeq	r8, r0, ip, lsr #4
     88c:	00000044 	andeq	r0, r0, r4, asr #32
     890:	01006814 	tsteq	r0, r4, lsl r8
     894:	01be112c 			; <UNDEFINED> instruction: 0x01be112c
     898:	02e40000 	rsceq	r0, r4, #0, 0
     89c:	02dc0000 	sbcseq	r0, ip, #0, 0
     8a0:	301a0000 	andscc	r0, sl, r0
     8a4:	c8000082 	stmdagt	r0, {r1, r7}
     8a8:	15000006 	strne	r0, [r0, #-6]
     8ac:	00008248 	andeq	r8, r0, r8, asr #4
     8b0:	000005cf 	andeq	r0, r0, pc, asr #11
     8b4:	0000059a 	muleq	r0, sl, r5
     8b8:	02500116 	subseq	r0, r0, #-2147483643	; 0x80000005
     8bc:	01160074 	tsteq	r6, r4, ror r0
     8c0:	00750251 	rsbseq	r0, r5, r1, asr r2
     8c4:	82581500 	subshi	r1, r8, #0, 10
     8c8:	069b0000 	ldreq	r0, [fp], r0
     8cc:	05ae0000 	streq	r0, [lr, #0]!
     8d0:	01160000 	tsteq	r6, r0
     8d4:	00740250 	rsbseq	r0, r4, r0, asr r2
     8d8:	82701700 	rsbshi	r1, r0, #0, 14
     8dc:	07120000 	ldreq	r0, [r2, -r0]
     8e0:	01160000 	tsteq	r6, r0
     8e4:	c4030550 	strgt	r0, [r3], #-1360	; 0xfffffab0
     8e8:	1600009d 			; <UNDEFINED> instruction: 0x1600009d
     8ec:	75025101 	strvc	r5, [r2, #-257]	; 0xfffffeff
     8f0:	52011600 	andpl	r1, r1, #0, 12
     8f4:	00007402 	andeq	r7, r0, r2, lsl #8
     8f8:	e2110000 	ands	r0, r1, #0, 0
     8fc:	01000001 	tsteq	r0, r1
     900:	002c0a24 	eoreq	r0, ip, r4, lsr #20
     904:	81e80000 	mvnhi	r0, r0
     908:	003c0000 	eorseq	r0, ip, r0
     90c:	9c010000 	stcls	0, cr0, [r1], {-0}
     910:	0000060a 	andeq	r0, r0, sl, lsl #12
     914:	0100681e 	tsteq	r0, lr, lsl r8
     918:	01be2124 			; <UNDEFINED> instruction: 0x01be2124
     91c:	03200000 	nopeq	{0}	; <UNPREDICTABLE>
     920:	03180000 	tsteq	r8, #0, 0
     924:	70130000 	andsvc	r0, r3, r0
     928:	01007274 	tsteq	r0, r4, ror r2
     92c:	01aa2a24 			; <UNDEFINED> instruction: 0x01aa2a24
     930:	51010000 	mrspl	r0, (UNDEF: 1)
     934:	02c41100 	sbceq	r1, r4, #0
     938:	1e010000 	cdpne	0, 0, cr0, cr1, cr0, {0}
     93c:	0001aa07 	andeq	sl, r1, r7, lsl #20
     940:	0081d000 	addeq	sp, r1, r0
     944:	00001800 	andeq	r1, r0, r0, lsl #16
     948:	6e9c0100 	fmlvse	f0, f4, f0
     94c:	1e000006 	cdpne	0, 0, cr0, cr0, cr6, {0}
     950:	1e010068 	cdpne	0, 0, cr0, cr1, cr8, {3}
     954:	0001be19 	andeq	fp, r1, r9, lsl lr
     958:	00035e00 	andeq	r5, r3, r0, lsl #28
     95c:	00035a00 	andeq	r5, r3, r0, lsl #20
     960:	06de2100 	ldrbeq	r2, [lr], r0, lsl #2
     964:	81dc0000 	bicshi	r0, ip, r0
     968:	dc000000 	stcle	0, cr0, [r0], {-0}
     96c:	04000081 	streq	r0, [r0], #-129	; 0xffffff7f
     970:	01000000 	mrseq	r0, (UNDEF: 0)
     974:	065d2620 	ldrbeq	r2, [sp], -r0, lsr #12
     978:	ef220000 	svc	0x00220000
     97c:	7e000006 	cdpvc	0, 0, cr0, cr0, cr6, {0}
     980:	7c000003 	stcvc	0, cr0, [r0], {3}
     984:	00000003 	andeq	r0, r0, r3
     988:	0081dc17 	addeq	sp, r1, r7, lsl ip
     98c:	00066e00 	andeq	r6, r6, r0, lsl #28
     990:	50011600 	andpl	r1, r1, r0, lsl #12
     994:	00007402 	andeq	r7, r0, r2, lsl #8
     998:	02b71100 	adcseq	r1, r7, #0
     99c:	18010000 	stmdane	r1, {}	; <UNPREDICTABLE>
     9a0:	0001aa07 	andeq	sl, r1, r7, lsl #20
     9a4:	0081c800 	addeq	ip, r1, r0, lsl #16
     9a8:	00000800 	andeq	r0, r0, r0, lsl #16
     9ac:	9b9c0100 	blls	fe700db4 <__bss_end__+0xfe6f66e4>
     9b0:	1e000006 	cdpne	0, 0, cr0, cr0, cr6, {0}
     9b4:	18010068 	stmdane	r1, {r3, r5, r6}
     9b8:	0001be1b 	andeq	fp, r1, fp, lsl lr
     9bc:	00039500 	andeq	r9, r3, r0, lsl #10
     9c0:	00039100 	andeq	r9, r3, r0, lsl #2
     9c4:	8c110000 	ldchi	0, cr0, [r1], {-0}
     9c8:	01000002 	tsteq	r0, r2
     9cc:	01be0811 			; <UNDEFINED> instruction: 0x01be0811
     9d0:	81140000 	tsthi	r4, r0
     9d4:	00100000 	andseq	r0, r0, r0
     9d8:	9c010000 	stcls	0, cr0, [r1], {-0}
     9dc:	000006c8 	andeq	r0, r0, r8, asr #13
     9e0:	0100701e 	tsteq	r0, lr, lsl r0
     9e4:	01be1b11 			; <UNDEFINED> instruction: 0x01be1b11
     9e8:	03b90000 			; <UNDEFINED> instruction: 0x03b90000
     9ec:	03b50000 			; <UNDEFINED> instruction: 0x03b50000
     9f0:	23000000 	movwcs	r0, #0
     9f4:	00000212 	andeq	r0, r0, r2, lsl r2
     9f8:	be080b01 	vmlalt.f64	d0, d8, d1
     9fc:	04000001 	streq	r0, [r0], #-1
     a00:	10000081 	andne	r0, r0, r1, lsl #1
     a04:	01000000 	mrseq	r0, (UNDEF: 0)
     a08:	02d4249c 	sbcseq	r2, r4, #156, 8	; 0x9c000000
     a0c:	21020000 	mrscs	r0, (UNDEF: 2)
     a10:	00002c18 	andeq	r2, r0, r8, lsl ip
     a14:	06fa0300 	ldrbteq	r0, [sl], r0, lsl #6
     a18:	68250000 	stmdavs	r5!, {}	; <UNPREDICTABLE>
     a1c:	29210200 	stmdbcs	r1!, {r9}
     a20:	000001be 			; <UNDEFINED> instruction: 0x000001be
     a24:	02de2600 	sbcseq	r2, lr, #0, 12
     a28:	02de0000 	sbcseq	r0, lr, #0, 0
     a2c:	1e060000 	cdpne	0, 0, cr0, cr6, cr0, {0}
     a30:	00562607 	subseq	r2, r6, r7, lsl #12
     a34:	00560000 	subseq	r0, r6, r0
     a38:	f2040000 	vhadd.s8	d0, d4, d0
     a3c:	053c2607 	ldreq	r2, [ip, #-1543]!	; 0xfffff9f9
     a40:	053c0000 	ldreq	r0, [ip, #-0]!
     a44:	28040000 	stmdacs	r4, {}	; <UNPREDICTABLE>
     a48:	020a2606 	andeq	r2, sl, #6291456	; 0x600000
     a4c:	020a0000 	andeq	r0, sl, #0, 0
     a50:	1f060000 	svcne	0x00060000
     a54:	024e2606 	subeq	r2, lr, #6291456	; 0x600000
     a58:	024e0000 	subeq	r0, lr, #0, 0
     a5c:	6e040000 	cdpvs	0, 0, cr0, cr4, cr0, {0}
     a60:	02c20006 	sbceq	r0, r2, #6, 0
     a64:	00040000 	andeq	r0, r4, r0
     a68:	000003fc 	strdeq	r0, [r0], -ip
     a6c:	01110104 	tsteq	r1, r4, lsl #2
     a70:	0d0c0000 	stceq	0, cr0, [ip, #-0]
     a74:	a2000003 	andge	r0, r0, #3, 0
     a78:	f8000000 			; <UNDEFINED> instruction: 0xf8000000
     a7c:	ac000083 	stcge	0, cr0, [r0], {131}	; 0x83
     a80:	49000001 	stmdbmi	r0, {r0}
     a84:	02000004 	andeq	r0, r0, #4, 0
     a88:	6e690504 	cdpvs	5, 6, cr0, cr9, cr4, {0}
     a8c:	04030074 	streq	r0, [r3], #-116	; 0xffffff8c
     a90:	00007e07 	andeq	r7, r0, r7, lsl #28
     a94:	06010300 	streq	r0, [r1], -r0, lsl #6
     a98:	0000002c 	andeq	r0, r0, ip, lsr #32
     a9c:	d4050203 	strle	r0, [r5], #-515	; 0xfffffdfd
     aa0:	03000000 	movweq	r0, #0
     aa4:	00990504 	addseq	r0, r9, r4, lsl #10
     aa8:	08030000 	stmdaeq	r3, {}	; <UNPREDICTABLE>
     aac:	00009405 	andeq	r9, r0, r5, lsl #8
     ab0:	08010300 	stmdaeq	r1, {r8, r9}
     ab4:	0000002a 	andeq	r0, r0, sl, lsr #32
     ab8:	38070203 	stmdacc	r7, {r0, r1, r9}
     abc:	03000000 	movweq	r0, #0
     ac0:	00790704 	rsbseq	r0, r9, r4, lsl #14
     ac4:	08030000 	stmdaeq	r3, {}	; <UNPREDICTABLE>
     ac8:	00007407 	andeq	r7, r0, r7, lsl #8
     acc:	00250400 	eoreq	r0, r5, r0, lsl #8
     ad0:	007a0000 	rsbseq	r0, sl, r0
     ad4:	25050000 	strcs	r0, [r5, #-0]
     ad8:	00000000 	andeq	r0, r0, r0
     adc:	0000f106 	andeq	pc, r0, r6, lsl #2
     ae0:	0e1c0200 	cdpeq	2, 1, cr0, cr12, cr0, {0}
     ae4:	00000086 	andeq	r0, r0, r6, lsl #1
     ae8:	006b0407 	rsbeq	r0, fp, r7, lsl #8
     aec:	25040000 	strcs	r0, [r4, #-0]
     af0:	9b000000 	blls	af8 <__code_start__-0x7508>
     af4:	05000000 	streq	r0, [r0, #-0]
     af8:	0000009b 	muleq	r0, fp, r0
     afc:	a8040700 	stmdage	r4, {r8, r9, sl}
     b00:	03000000 	movweq	r0, #0
     b04:	00330801 	eorseq	r0, r3, r1, lsl #16
     b08:	a1080000 	mrsge	r0, (UNDEF: 8)
     b0c:	06000000 	streq	r0, [r0], -r0
     b10:	0000057a 	andeq	r0, r0, sl, ror r5
     b14:	b90e2102 	stmdblt	lr, {r1, r8, sp}
     b18:	07000000 	streq	r0, [r0, -r0]
     b1c:	00008c04 	andeq	r8, r0, r4, lsl #24
     b20:	02fa0900 	rscseq	r0, sl, #0, 18
     b24:	01080000 	mrseq	r0, (UNDEF: 8)
     b28:	00ec0705 	rsceq	r0, ip, r5, lsl #14
     b2c:	640a0000 	strvs	r0, [sl], #-0
     b30:	09070100 	stmdbeq	r7, {r8}
     b34:	000000ec 	andeq	r0, r0, ip, ror #1
     b38:	0100700a 	tsteq	r0, sl
     b3c:	00f30808 	rscseq	r0, r3, r8, lsl #16
     b40:	660a0000 	strvs	r0, [sl], -r0
     b44:	09010070 	stmdbeq	r1, {r4, r5, r6}
     b48:	0000f609 	andeq	pc, r0, r9, lsl #12
     b4c:	08030000 	stmdaeq	r3, {}	; <UNPREDICTABLE>
     b50:	00031904 	andeq	r1, r3, r4, lsl #18
     b54:	0c040b00 			; <UNDEFINED> instruction: 0x0c040b00
     b58:	00f50407 	rscseq	r0, r5, r7, lsl #8
     b5c:	080d0000 	stmdaeq	sp, {}	; <UNPREDICTABLE>
     b60:	20020e01 	andcs	r0, r2, r1, lsl #28
     b64:	0e000001 	cdpeq	0, 0, cr0, cr0, cr1, {0}
     b68:	00727470 	rsbseq	r7, r2, r0, ror r4
     b6c:	42111001 	andsmi	r1, r1, #1, 0
     b70:	00000001 	andeq	r0, r0, r1
     b74:	0003330f 	andeq	r3, r3, pc, lsl #6
     b78:	0c110100 	ldfeqs	f0, [r1], {-0}
     b7c:	0000002c 	andeq	r0, r0, ip, lsr #32
     b80:	ed090004 	stc	0, cr0, [r9, #-16]
     b84:	08000002 	stmdaeq	r0, {r1}
     b88:	420f0c01 	andmi	r0, pc, #256	; 0x100
     b8c:	0a000001 	beq	b98 <__code_start__-0x7468>
     b90:	12010073 	andne	r0, r1, #115, 0	; 0x73
     b94:	0000fc04 	andeq	pc, r0, r4, lsl #24
     b98:	00780a00 	rsbseq	r0, r8, r0, lsl #20
     b9c:	bf0e1301 	svclt	0x000e1301
     ba0:	00000000 	andeq	r0, r0, r0
     ba4:	01200407 			; <UNDEFINED> instruction: 0x01200407
     ba8:	38100000 	ldmdacc	r0, {}	; <UNPREDICTABLE>
     bac:	01000003 	tsteq	r0, r3
     bb0:	01200314 			; <UNDEFINED> instruction: 0x01200314
     bb4:	20110000 	andscs	r0, r1, r0
     bb8:	01000003 	tsteq	r0, r3
     bbc:	01480f18 	cmpeq	r8, r8, lsl pc
     bc0:	03050000 	movweq	r0, #20480	; 0x5000
     bc4:	0000a2b8 			; <UNDEFINED> instruction: 0x0000a2b8
     bc8:	00030011 	andeq	r0, r3, r1, lsl r0
     bcc:	10190100 	andsne	r0, r9, r0, lsl #2
     bd0:	00000178 	andeq	r0, r0, r8, ror r1
     bd4:	a2b00305 	adcsge	r0, r0, #335544320	; 0x14000000
     bd8:	04070000 	streq	r0, [r7], #-0
     bdc:	00000148 	andeq	r0, r0, r8, asr #2
     be0:	00020a12 	andeq	r0, r2, r2, lsl sl
     be4:	06520100 	ldrbeq	r0, [r2], -r0, lsl #2
     be8:	000083f8 	strdeq	r8, [r0], -r8	; <UNPREDICTABLE>
     bec:	000000bc 	strheq	r0, [r0], -ip
     bf0:	01c79c01 	biceq	r9, r7, r1, lsl #24
     bf4:	61130000 	tstvs	r3, r0
     bf8:	52010070 	andpl	r0, r1, #112, 0	; 0x70
     bfc:	0000f314 	andeq	pc, r0, r4, lsl r3	; <UNPREDICTABLE>
     c00:	14500100 	ldrbne	r0, [r0], #-256	; 0xffffff00
     c04:	01007062 	tsteq	r0, r2, rrx
     c08:	01780a54 	cmneq	r8, r4, asr sl
     c0c:	03e20000 	mvneq	r0, #0, 0
     c10:	03da0000 	bicseq	r0, sl, #0, 0
     c14:	70140000 	andsvc	r0, r4, r0
     c18:	0f540100 	svceq	0x00540100
     c1c:	00000178 	andeq	r0, r0, r8, ror r1
     c20:	0000041e 	andeq	r0, r0, lr, lsl r4
     c24:	0000041a 	andeq	r0, r0, sl, lsl r4
     c28:	02de1500 	sbcseq	r1, lr, #0, 10
     c2c:	2a010000 	bcs	40c34 <__bss_end__+0x36564>
     c30:	0000f307 	andeq	pc, r0, r7, lsl #6
     c34:	0084f800 	addeq	pc, r4, r0, lsl #16
     c38:	0000ac00 	andeq	sl, r0, r0, lsl #24
     c3c:	409c0100 	addsmi	r0, ip, r0, lsl #2
     c40:	16000002 	strne	r0, [r0], -r2
     c44:	000002d7 	ldrdeq	r0, [r0], -r7
     c48:	2c1a2a01 			; <UNDEFINED> instruction: 0x2c1a2a01
     c4c:	44000000 	strmi	r0, [r0], #-0
     c50:	3c000004 	stccc	0, cr0, [r0], {4}
     c54:	14000004 	strne	r0, [r0], #-4
     c58:	2c010070 	stccs	0, cr0, [r1], {112}	; 0x70
     c5c:	0001780a 	andeq	r7, r1, sl, lsl #16
     c60:	00048c00 	andeq	r8, r4, r0, lsl #24
     c64:	00047e00 	andeq	r7, r4, r0, lsl #28
     c68:	02f41700 	rscseq	r1, r4, #0, 14
     c6c:	2c010000 	stccs	0, cr0, [r1], {-0}
     c70:	0001780e 	andeq	r7, r1, lr, lsl #16
     c74:	0004ee00 	andeq	lr, r4, r0, lsl #28
     c78:	0004e400 	andeq	lr, r4, r0, lsl #8
     c7c:	03061700 	movweq	r1, #26368	; 0x6700
     c80:	2d010000 	stccs	0, cr0, [r1, #-0]
     c84:	00002c0b 	andeq	r2, r0, fp, lsl #24
     c88:	00053400 	andeq	r3, r5, r0, lsl #8
     c8c:	00053200 	andeq	r3, r5, r0, lsl #4
     c90:	85941800 	ldrhi	r1, [r4, #2048]	; 0x800
     c94:	02400000 	subeq	r0, r0, #0, 0
     c98:	01190000 	tsteq	r9, r0
     c9c:	00740250 	rsbseq	r0, r4, r0, asr r2
     ca0:	2a1a0000 	bcs	680ca8 <__bss_end__+0x6765d8>
     ca4:	01000003 	tsteq	r0, r3
     ca8:	0178101c 	cmneq	r8, ip, lsl r0
     cac:	84b40000 	ldrthi	r0, [r4], #0
     cb0:	00440000 	subeq	r0, r4, r0
     cb4:	9c010000 	stcls	0, cr0, [r1], {-0}
     cb8:	000002b3 			; <UNDEFINED> instruction: 0x000002b3
     cbc:	00756e1b 	rsbseq	r6, r5, fp, lsl lr
     cc0:	2c221c01 	stccs	12, cr1, [r2], #-4
     cc4:	4b000000 	blmi	ccc <__code_start__-0x7334>
     cc8:	47000005 	strmi	r0, [r0, -r5]
     ccc:	14000005 	strne	r0, [r0], #-5
     cd0:	01007063 	tsteq	r0, r3, rrx
     cd4:	02b30820 	adcseq	r0, r3, #32, 16	; 0x200000
     cd8:	056f0000 	strbeq	r0, [pc, #-0]!	; ce0 <__code_start__-0x7320>
     cdc:	05690000 	strbeq	r0, [r9, #-0]!
     ce0:	75140000 	ldrvc	r0, [r4, #-0]
     ce4:	23010070 	movwcs	r0, #4208	; 0x1070
     ce8:	0001780a 	andeq	r7, r1, sl, lsl #16
     cec:	00059e00 	andeq	r9, r5, r0, lsl #28
     cf0:	00059a00 	andeq	r9, r5, r0, lsl #20
     cf4:	84cc1c00 	strbhi	r1, [ip], #3072	; 0xc00
     cf8:	02b90000 	adcseq	r0, r9, #0, 0
     cfc:	02a90000 	adceq	r0, r9, #0, 0
     d00:	01190000 	tsteq	r9, r0
     d04:	00740450 	rsbseq	r0, r4, r0, asr r4
     d08:	1d002433 	cfstrsne	mvf2, [r0, #-204]	; 0xffffff34
     d0c:	000084e0 	andeq	r8, r0, r0, ror #9
     d10:	0000017e 	andeq	r0, r0, lr, ror r1
     d14:	a1040700 	tstge	r4, r0, lsl #14
     d18:	1e000000 	cdpne	0, 0, cr0, cr0, cr0, {0}
     d1c:	00000325 	andeq	r0, r0, r5, lsr #6
     d20:	00000325 	andeq	r0, r0, r5, lsr #6
     d24:	000b1a03 	andeq	r1, fp, r3, lsl #20
     d28:	00000666 	andeq	r0, r0, r6, ror #12
     d2c:	05d30004 	ldrbeq	r0, [r3, #4]
     d30:	01040000 	mrseq	r0, (UNDEF: 4)
     d34:	00000111 	andeq	r0, r0, r1, lsl r1
     d38:	0003d40c 	andeq	sp, r3, ip, lsl #8
     d3c:	0000a200 	andeq	sl, r0, r0, lsl #4
     d40:	0085a400 	addeq	sl, r5, r0, lsl #8
     d44:	00015400 	andeq	r5, r1, r0, lsl #8
     d48:	00067400 	andeq	r7, r6, r0, lsl #8
     d4c:	05040200 	streq	r0, [r4, #-512]	; 0xfffffe00
     d50:	00746e69 	rsbseq	r6, r4, r9, ror #28
     d54:	7e070403 	cdpvc	4, 0, cr0, cr7, cr3, {0}
     d58:	03000000 	movweq	r0, #0
     d5c:	002c0601 	eoreq	r0, ip, r1, lsl #12
     d60:	02030000 	andeq	r0, r3, #0, 0
     d64:	0000d405 	andeq	sp, r0, r5, lsl #8
     d68:	05040300 	streq	r0, [r4, #-768]	; 0xfffffd00
     d6c:	00000099 	muleq	r0, r9, r0
     d70:	94050803 	strls	r0, [r5], #-2051	; 0xfffff7fd
     d74:	03000000 	movweq	r0, #0
     d78:	002a0801 	eoreq	r0, sl, r1, lsl #16
     d7c:	71040000 	mrsvc	r0, (UNDEF: 4)
     d80:	02000002 	andeq	r0, r0, #2, 0
     d84:	00621931 	rsbeq	r1, r2, r1, lsr r9
     d88:	02030000 	andeq	r0, r3, #0, 0
     d8c:	00003807 	andeq	r3, r0, r7, lsl #16
     d90:	00e80400 	rsceq	r0, r8, r0, lsl #8
     d94:	34020000 	strcc	r0, [r2], #-0
     d98:	00007519 	andeq	r7, r0, r9, lsl r5
     d9c:	07040300 	streq	r0, [r4, -r0, lsl #6]
     da0:	00000079 	andeq	r0, r0, r9, ror r0
     da4:	74070803 	strvc	r0, [r7], #-2051	; 0xfffff7fd
     da8:	05000000 	streq	r0, [r0, #-0]
     dac:	00000025 	andeq	r0, r0, r5, lsr #32
     db0:	00000092 	muleq	r0, r2, r0
     db4:	00002506 	andeq	r2, r0, r6, lsl #10
     db8:	f1070000 			; <UNDEFINED> instruction: 0xf1070000
     dbc:	03000000 	movweq	r0, #0
     dc0:	009e0e1c 	addseq	r0, lr, ip, lsl lr
     dc4:	04080000 	streq	r0, [r8], #-0
     dc8:	00000083 	andeq	r0, r0, r3, lsl #1
     dcc:	00002505 	andeq	r2, r0, r5, lsl #10
     dd0:	0000b300 	andeq	fp, r0, r0, lsl #6
     dd4:	00b30600 	adcseq	r0, r3, r0, lsl #12
     dd8:	08000000 	stmdaeq	r0, {}	; <UNPREDICTABLE>
     ddc:	0000c004 	andeq	ip, r0, r4
     de0:	08010300 	stmdaeq	r1, {r8, r9}
     de4:	00000033 	andeq	r0, r0, r3, lsr r0
     de8:	0000b909 	andeq	fp, r0, r9, lsl #18
     dec:	057a0700 	ldrbeq	r0, [sl, #-1792]!	; 0xfffff900
     df0:	21030000 	mrscs	r0, (UNDEF: 3)
     df4:	0000d10e 	andeq	sp, r0, lr, lsl #2
     df8:	a4040800 	strge	r0, [r4], #-2048	; 0xfffff800
     dfc:	0a000000 	beq	e04 <__code_start__-0x71fc>
     e00:	0904040c 	stmdbeq	r4, {r2, r3, sl}
     e04:	00000108 	andeq	r0, r0, r8, lsl #2
     e08:	0000250b 	andeq	r2, r0, fp, lsl #10
     e0c:	11060400 	tstne	r6, r0, lsl #8
     e10:	000000b3 	strheq	r0, [r0], -r3
     e14:	005d0b00 	subseq	r0, sp, r0, lsl #22
     e18:	07040000 	streq	r0, [r4, -r0]
     e1c:	0000b311 	andeq	fp, r0, r1, lsl r3
     e20:	080b0400 	stmdaeq	fp, {sl}
     e24:	04000000 	streq	r0, [r0], #-0
     e28:	002c0e08 	eoreq	r0, ip, r8, lsl #28
     e2c:	00080000 	andeq	r0, r8, r0
     e30:	0000de04 	andeq	sp, r0, r4, lsl #28
     e34:	03090400 	movweq	r0, #37888	; 0x9400
     e38:	000000d7 	ldrdeq	r0, [r0], -r7
     e3c:	00023d0c 	andeq	r3, r2, ip, lsl #26
     e40:	0c052400 	cfstrseq	mvf2, [r5], {-0}
     e44:	00017d10 	andeq	r7, r1, r0, lsl sp
     e48:	02e80b00 	rsceq	r0, r8, #0, 22
     e4c:	0d050000 	stceq	0, cr0, [r5, #-0]
     e50:	00017d14 	andeq	r7, r1, r4, lsl sp
     e54:	aa0b0000 	bge	2c0e5c <__bss_end__+0x2b678c>
     e58:	05000002 	streq	r0, [r0, #-2]
     e5c:	00690e0e 	rsbeq	r0, r9, lr, lsl #28
     e60:	0b040000 	bleq	100e68 <__bss_end__+0xf6798>
     e64:	0000025b 	andeq	r0, r0, fp, asr r2
     e68:	690e0f05 	stmdbvs	lr, {r0, r2, r8, r9, sl, fp}
     e6c:	08000000 	stmdaeq	r0, {}	; <UNPREDICTABLE>
     e70:	0002440b 	andeq	r4, r2, fp, lsl #8
     e74:	0f110500 	svceq	0x00110500
     e78:	00000108 	andeq	r0, r0, r8, lsl #2
     e7c:	02660b0c 	rsbeq	r0, r6, #12, 22	; 0x3000
     e80:	14050000 	strne	r0, [r5], #-0
     e84:	0000690e 	andeq	r6, r0, lr, lsl #18
     e88:	fe0b1800 	vcmla.f16	d1, d11, d0[0], #0
     e8c:	05000001 	streq	r0, [r0, #-1]
     e90:	00690e15 	rsbeq	r0, r9, r5, lsl lr
     e94:	0b1c0000 	bleq	700e9c <__bss_end__+0x6f67cc>
     e98:	00000261 	andeq	r0, r0, r1, ror #4
     e9c:	560e1705 	strpl	r1, [lr], -r5, lsl #14
     ea0:	20000000 	andcs	r0, r0, r0
     ea4:	14040800 	strne	r0, [r4], #-2048	; 0xfffff800
     ea8:	04000001 	streq	r0, [r0], #-1
     eac:	000001f2 	strdeq	r0, [r0], -r2
     eb0:	14031805 	strne	r1, [r3], #-2053	; 0xfffff7fb
     eb4:	0d000001 	stceq	0, cr0, [r0, #-4]
     eb8:	09e20e04 	stmibeq	r2!, {r2, r9, sl, fp}^
     ebc:	10010000 	andne	r0, r1, r0
     ec0:	00018f0f 	andeq	r8, r1, pc, lsl #30
     ec4:	0a480e00 	beq	12046cc <__bss_end__+0x11f9ffc>
     ec8:	11010000 	mrsne	r0, (UNDEF: 1)
     ecc:	00018f0f 	andeq	r8, r1, pc, lsl #30
     ed0:	03520f00 	cmpeq	r2, #0, 30
     ed4:	d0010000 	andle	r0, r1, r0
     ed8:	0086d006 	addeq	sp, r6, r6
     edc:	00002800 	andeq	r2, r0, r0, lsl #16
     ee0:	079c0100 	ldreq	r0, [ip, r0, lsl #2]
     ee4:	10000002 	andne	r0, r0, r2
     ee8:	00000062 	andeq	r0, r0, r2, rrx
     eec:	00000217 	andeq	r0, r0, r7, lsl r2
     ef0:	9f140305 	svcls	0x00140305
     ef4:	e8110000 	ldmda	r1, {}	; <UNPREDICTABLE>
     ef8:	15000086 	strne	r0, [r0, #-134]	; 0xffffff7a
     efc:	fd000006 	stc2	0, cr0, [r0, #-24]	; 0xffffffe8
     f00:	12000001 	andne	r0, r0, #1, 0
     f04:	03055001 	movweq	r5, #20481	; 0x5001
     f08:	00009ed0 	ldrdeq	r9, [r0], -r0
     f0c:	05510112 	ldrbeq	r0, [r1, #-274]	; 0xfffffeee
     f10:	009e6c03 	addseq	r6, lr, r3, lsl #24
     f14:	52011200 	andpl	r1, r1, #0, 4
     f18:	9f140305 	svcls	0x00140305
     f1c:	01120000 	tsteq	r2, r0
     f20:	d1080253 	tstle	r8, r3, asr r2
     f24:	86ec1300 	strbthi	r1, [ip], r0, lsl #6
     f28:	06210000 	strteq	r0, [r1], -r0
     f2c:	14000000 	strne	r0, [r0], #-0
     f30:	000000c0 	andeq	r0, r0, r0, asr #1
     f34:	00000217 	andeq	r0, r0, r7, lsl r2
     f38:	00002c15 	andeq	r2, r0, r5, lsl ip
     f3c:	09000e00 	stmdbeq	r0, {r9, sl, fp}
     f40:	00000207 	andeq	r0, r0, r7, lsl #4
     f44:	00039816 	andeq	r9, r3, r6, lsl r8
     f48:	0ac70100 	beq	ff1c1350 <__bss_end__+0xff1b6c80>
     f4c:	0000002c 	andeq	r0, r0, ip, lsr #32
     f50:	000086c8 	andeq	r8, r0, r8, asr #13
     f54:	00000008 	andeq	r0, r0, r8
     f58:	024c9c01 	subeq	r9, ip, #256	; 0x100
     f5c:	d70e0000 	strle	r0, [lr, -r0]
     f60:	01000002 	tsteq	r0, r2
     f64:	002c0ec9 	eoreq	r0, ip, r9, asr #29
     f68:	d0130000 	andsle	r0, r3, r0
     f6c:	7b000086 	blvc	118c <__code_start__-0x6e74>
     f70:	00000003 	andeq	r0, r0, r3
     f74:	00042417 	andeq	r2, r4, r7, lsl r4
     f78:	11bb0100 			; <UNDEFINED> instruction: 0x11bb0100
     f7c:	0000002c 	andeq	r0, r0, ip, lsr #32
     f80:	0000028e 	andeq	r0, r0, lr, lsl #5
     f84:	00036f0e 	andeq	r6, r3, lr, lsl #30
     f88:	0bbc0100 	bleq	fef01390 <__bss_end__+0xfeef6cc0>
     f8c:	0000002c 	andeq	r0, r0, ip, lsr #32
     f90:	0003c70e 	andeq	ip, r3, lr, lsl #14
     f94:	18bc0100 	ldmne	ip!, {r8}
     f98:	0000002c 	andeq	r0, r0, ip, lsr #32
     f9c:	00037e0e 	andeq	r7, r3, lr, lsl #28
     fa0:	22bc0100 	adcscs	r0, ip, #0
     fa4:	0000002c 	andeq	r0, r0, ip, lsr #32
     fa8:	00006218 	andeq	r6, r0, r8, lsl r2
     fac:	00029e00 	andeq	r9, r2, r0, lsl #28
     fb0:	00042400 	andeq	r2, r4, r0, lsl #8
     fb4:	c0140000 	andsgt	r0, r4, r0
     fb8:	9e000000 	cdpls	0, 0, cr0, cr0, cr0, {0}
     fbc:	15000002 	strne	r0, [r0, #-2]
     fc0:	0000002c 	andeq	r0, r0, ip, lsr #32
     fc4:	8e09000a 	cdphi	0, 0, cr0, cr9, cr10, {0}
     fc8:	16000002 	strne	r0, [r0], -r2
     fcc:	000003dc 	ldrdeq	r0, [r0], -ip
     fd0:	2c0aac01 	stccs	12, cr10, [sl], {1}
     fd4:	bc000000 	stclt	0, cr0, [r0], {-0}
     fd8:	0c000086 	stceq	0, cr0, [r0], {134}	; 0x86
     fdc:	01000000 	mrseq	r0, (UNDEF: 0)
     fe0:	0002e69c 	muleq	r2, ip, r6
     fe4:	03a80e00 			; <UNDEFINED> instruction: 0x03a80e00
     fe8:	b1010000 	mrslt	r0, (UNDEF: 1)
     fec:	00002c0e 	andeq	r2, r0, lr, lsl #24
     ff0:	00621800 	rsbeq	r1, r2, r0, lsl #16
     ff4:	02f60000 	rscseq	r0, r6, #0, 0
     ff8:	03dc0000 	bicseq	r0, ip, #0, 0
     ffc:	c8190000 	ldmdagt	r9, {}	; <UNPREDICTABLE>
    1000:	43000086 	movwmi	r0, #134	; 0x86
    1004:	12000003 	andne	r0, r0, #3, 0
    1008:	31015001 	tstcc	r1, r1
    100c:	c0140000 	andsgt	r0, r4, r0
    1010:	f6000000 			; <UNDEFINED> instruction: 0xf6000000
    1014:	15000002 	strne	r0, [r0, #-2]
    1018:	0000002c 	andeq	r0, r0, ip, lsr #32
    101c:	e6090011 			; <UNDEFINED> instruction: 0xe6090011
    1020:	0f000002 	svceq	0x00000002
    1024:	00000017 	andeq	r0, r0, r7, lsl r0
    1028:	b0069f01 	andlt	r9, r6, r1, lsl #30
    102c:	0c000086 	stceq	0, cr0, [r0], {134}	; 0x86
    1030:	01000000 	mrseq	r0, (UNDEF: 0)
    1034:	00032e9c 	muleq	r3, ip, lr
    1038:	00621800 	rsbeq	r1, r2, r0, lsl #16
    103c:	033e0000 	teqeq	lr, #0, 0
    1040:	00170000 	andseq	r0, r7, r0
    1044:	bc190000 	ldclt	0, cr0, [r9], {-0}
    1048:	43000086 	movwmi	r0, #134	; 0x86
    104c:	12000003 	andne	r0, r0, #3, 0
    1050:	31015001 	tstcc	r1, r1
    1054:	c0140000 	andsgt	r0, r4, r0
    1058:	3e000000 	cdpcc	0, 0, cr0, cr0, cr0, {0}
    105c:	15000003 	strne	r0, [r0, #-3]
    1060:	0000002c 	andeq	r0, r0, ip, lsr #32
    1064:	2e09000d 	cdpcs	0, 0, cr0, cr9, cr13, {0}
    1068:	16000003 	strne	r0, [r0], -r3
    106c:	000003b9 			; <UNDEFINED> instruction: 0x000003b9
    1070:	2c0a9901 			; <UNDEFINED> instruction: 0x2c0a9901
    1074:	a8000000 	stmdage	r0, {}	; <UNPREDICTABLE>
    1078:	08000086 	stmdaeq	r0, {r1, r2, r7}
    107c:	01000000 	mrseq	r0, (UNDEF: 0)
    1080:	00037b9c 	muleq	r3, ip, fp
    1084:	042f1a00 	strteq	r1, [pc], #-2560	; 108c <__code_start__-0x6f74>
    1088:	99010000 	stmdbls	r1, {}	; <UNPREDICTABLE>
    108c:	0000251c 	andeq	r2, r0, ip, lsl r5
    1090:	0005c200 	andeq	ip, r5, r0, lsl #4
    1094:	0005be00 	andeq	fp, r5, r0, lsl #28
    1098:	86b01300 	ldrthi	r1, [r0], r0, lsl #6
    109c:	037b0000 	cmneq	fp, #0, 0
    10a0:	1b000000 	blne	10a8 <__code_start__-0x6f58>
    10a4:	00000349 	andeq	r0, r0, r9, asr #6
    10a8:	a40d7101 	strge	r7, [sp], #-257	; 0xfffffeff
    10ac:	6c000085 	stcvs	0, cr0, [r0], {133}	; 0x85
    10b0:	01000000 	mrseq	r0, (UNDEF: 0)
    10b4:	00046b9c 	muleq	r4, ip, fp
    10b8:	03a31c00 			; <UNDEFINED> instruction: 0x03a31c00
    10bc:	7b010000 	blvc	410c4 <__bss_end__+0x369f4>
    10c0:	00046b0e 	andeq	r6, r4, lr, lsl #22
    10c4:	b8910300 	ldmlt	r1, {r8, r9}
    10c8:	0062107f 	rsbeq	r1, r2, pc, ror r0
    10cc:	048b0000 	streq	r0, [fp], #0
    10d0:	03050000 	movweq	r0, #20480	; 0x5000
    10d4:	00009f00 	andeq	r9, r0, r0, lsl #30
    10d8:	00033f0e 	andeq	r3, r3, lr, lsl #30
    10dc:	0f8c0100 	svceq	0x008c0100
    10e0:	00000490 	muleq	r0, r0, r4
    10e4:	00036107 	andeq	r6, r3, r7, lsl #2
    10e8:	15900100 	ldrne	r0, [r0, #256]	; 0x100
    10ec:	00000069 	andeq	r0, r0, r9, rrx
    10f0:	0003ee07 	andeq	lr, r3, r7, lsl #28
    10f4:	24900100 	ldrcs	r0, [r0], #256	; 0x100
    10f8:	00000069 	andeq	r0, r0, r9, rrx
    10fc:	0001c607 	andeq	ip, r1, r7, lsl #12
    1100:	15930100 	ldrne	r0, [r3, #256]	; 0x100
    1104:	00000069 	andeq	r0, r0, r9, rrx
    1108:	0001d507 	andeq	sp, r1, r7, lsl #10
    110c:	25930100 	ldrcs	r0, [r3, #256]	; 0x100
    1110:	00000069 	andeq	r0, r0, r9, rrx
    1114:	0085ac1d 	addeq	sl, r5, sp, lsl ip
    1118:	00002400 	andeq	r2, r0, r0, lsl #8
    111c:	00041e00 	andeq	r1, r4, r0, lsl #28
    1120:	00681e00 	rsbeq	r1, r8, r0, lsl #28
    1124:	96107501 	ldrls	r7, [r0], -r1, lsl #10
    1128:	e7000004 	str	r0, [r0, -r4]
    112c:	e3000005 	movw	r0, #5
    1130:	13000005 	movwne	r0, #5
    1134:	000085b0 			; <UNDEFINED> instruction: 0x000085b0
    1138:	0000062d 	andeq	r0, r0, sp, lsr #12
    113c:	0085cc13 	addeq	ip, r5, r3, lsl ip
    1140:	00063900 	andeq	r3, r6, r0, lsl #18
    1144:	d8110000 	ldmdale	r1, {}	; <UNPREDICTABLE>
    1148:	45000085 	strmi	r0, [r0, #-133]	; 0xffffff7b
    114c:	32000006 	andcc	r0, r0, #6, 0
    1150:	12000004 	andne	r0, r0, #4, 0
    1154:	7d025001 	stcvc	0, cr5, [r2, #-4]
    1158:	00110000 	andseq	r0, r1, r0
    115c:	15000086 	strne	r0, [r0, #-134]	; 0xffffff7a
    1160:	61000006 	tstvs	r0, r6
    1164:	12000004 	andne	r0, r0, #4, 0
    1168:	03055001 	movweq	r5, #20481	; 0x5001
    116c:	00009e74 	andeq	r9, r0, r4, ror lr
    1170:	05510112 	ldrbeq	r0, [r1, #-274]	; 0xfffffeee
    1174:	009e6c03 	addseq	r6, lr, r3, lsl #24
    1178:	52011200 	andpl	r1, r1, #0, 4
    117c:	9f000305 	svcls	0x00000305
    1180:	01120000 	tsteq	r2, r0
    1184:	83080253 	movwhi	r0, #33363	; 0x8253
    1188:	86041300 	strhi	r1, [r4], -r0, lsl #6
    118c:	06210000 	strteq	r0, [r1], -r0
    1190:	14000000 	strne	r0, [r0], #-0
    1194:	00000069 	andeq	r0, r0, r9, rrx
    1198:	0000047b 	andeq	r0, r0, fp, ror r4
    119c:	00002c15 	andeq	r2, r0, r5, lsl ip
    11a0:	14000f00 	strne	r0, [r0], #-3840	; 0xfffff100
    11a4:	000000c0 	andeq	r0, r0, r0, asr #1
    11a8:	0000048b 	andeq	r0, r0, fp, lsl #9
    11ac:	00002c15 	andeq	r2, r0, r5, lsl ip
    11b0:	09000800 	stmdbeq	r0, {fp}
    11b4:	0000047b 	andeq	r0, r0, fp, ror r4
    11b8:	00690408 	rsbeq	r0, r9, r8, lsl #8
    11bc:	04080000 	streq	r0, [r8], #-0
    11c0:	00000183 	andeq	r0, r0, r3, lsl #3
    11c4:	00041917 	andeq	r1, r4, r7, lsl r9
    11c8:	11590100 	cmpne	r9, r0, lsl #2
    11cc:	0000002c 	andeq	r0, r0, ip, lsr #32
    11d0:	000004ea 	andeq	r0, r0, sl, ror #9
    11d4:	00042f1f 	andeq	r2, r4, pc, lsl pc
    11d8:	20590100 	subscs	r0, r9, r0, lsl #2
    11dc:	00000025 	andeq	r0, r0, r5, lsr #32
    11e0:	00036f0e 	andeq	r6, r3, lr, lsl #30
    11e4:	0b5a0100 	bleq	16815ec <__bss_end__+0x1676f1c>
    11e8:	0000002c 	andeq	r0, r0, ip, lsr #32
    11ec:	0003910e 	andeq	r9, r3, lr, lsl #2
    11f0:	185a0100 	ldmdane	sl, {r8}^
    11f4:	0000002c 	andeq	r0, r0, ip, lsr #32
    11f8:	00038b0e 	andeq	r8, r3, lr, lsl #22
    11fc:	245a0100 	ldrbcs	r0, [sl], #-256	; 0xffffff00
    1200:	0000002c 	andeq	r0, r0, ip, lsr #32
    1204:	00006218 	andeq	r6, r0, r8, lsl r2
    1208:	00029e00 	andeq	r9, r2, r0, lsl #28
    120c:	00041900 	andeq	r1, r4, r0, lsl #18
    1210:	25160000 	ldrcs	r0, [r6, #-0]
    1214:	01000003 	tsteq	r0, r3
    1218:	018f0713 	orreq	r0, pc, r3, lsl r7	; <UNPREDICTABLE>
    121c:	86100000 	ldrhi	r0, [r0], -r0
    1220:	00980000 	addseq	r0, r8, r0
    1224:	9c010000 	stcls	0, cr0, [r1], {-0}
    1228:	00000600 	andeq	r0, r0, r0, lsl #12
    122c:	0003af1a 	andeq	sl, r3, sl, lsl pc
    1230:	11130100 	tstne	r3, r0, lsl #2
    1234:	00000041 	andeq	r0, r0, r1, asr #32
    1238:	00000611 	andeq	r0, r0, r1, lsl r6
    123c:	00000605 	andeq	r0, r0, r5, lsl #12
    1240:	0003771c 	andeq	r7, r3, ip, lsl r7
    1244:	10140100 	andsne	r0, r4, r0, lsl #2
    1248:	00000025 	andeq	r0, r0, r5, lsr #32
    124c:	a2c00305 	sbcge	r0, r0, #335544320	; 0x14000000
    1250:	62100000 	andsvs	r0, r0, #0, 0
    1254:	10000000 	andne	r0, r0, r0
    1258:	05000006 	streq	r0, [r0, #-6]
    125c:	009f0c03 	addseq	r0, pc, r3, lsl #24
    1260:	86301d00 	ldrthi	r1, [r0], -r0, lsl #26
    1264:	00180000 	andseq	r0, r8, r0
    1268:	05730000 	ldrbeq	r0, [r3, #-0]!
    126c:	ce200000 	cdpgt	0, 2, cr0, cr0, cr0, {0}
    1270:	01000003 	tsteq	r0, r3
    1274:	002c121a 	eoreq	r1, ip, sl, lsl r2
    1278:	065d0000 	ldrbeq	r0, [sp], -r0
    127c:	065b0000 	ldrbeq	r0, [fp], -r0
    1280:	3c190000 	ldccc	0, cr0, [r9], {-0}
    1284:	51000086 	smlabbpl	r0, r6, r0, r0
    1288:	12000006 	andne	r0, r0, #6, 0
    128c:	40035001 	andmi	r5, r3, r1
    1290:	01122440 	tsteq	r2, r0, asr #8
    1294:	40400351 	submi	r0, r0, r1, asr r3
    1298:	11000024 	tstne	r0, r4, lsr #32
    129c:	00008650 	andeq	r8, r0, r0, asr r6
    12a0:	0000065d 	andeq	r0, r0, sp, asr r6
    12a4:	00000587 	andeq	r0, r0, r7, lsl #11
    12a8:	02500112 	subseq	r0, r0, #-2147483644	; 0x80000004
    12ac:	11000074 	tstne	r0, r4, ror r0
    12b0:	00008674 	andeq	r8, r0, r4, ror r6
    12b4:	00000615 	andeq	r0, r0, r5, lsl r6
    12b8:	000005bf 			; <UNDEFINED> instruction: 0x000005bf
    12bc:	05500112 	ldrbeq	r0, [r0, #-274]	; 0xfffffeee
    12c0:	009d8003 	addseq	r8, sp, r3
    12c4:	51011200 	mrspl	r1, R9_usr
    12c8:	9e6c0305 	cdpls	3, 6, cr0, cr12, cr5, {0}
    12cc:	01120000 	tsteq	r2, r0
    12d0:	0c030552 	cfstr32eq	mvfx0, [r3], {82}	; 0x52
    12d4:	1200009f 	andne	r0, r0, #159, 0	; 0x9f
    12d8:	46015301 	strmi	r5, [r1], -r1, lsl #6
    12dc:	007d0212 	rsbseq	r0, sp, r2, lsl r2
    12e0:	9ea00305 	cdpls	3, 10, cr0, cr0, cr5, {0}
    12e4:	13000000 	movwne	r0, #0
    12e8:	00008678 	andeq	r8, r0, r8, ror r6
    12ec:	00000621 	andeq	r0, r0, r1, lsr #12
    12f0:	00868c11 	addeq	r8, r6, r1, lsl ip
    12f4:	00061500 	andeq	r1, r6, r0, lsl #10
    12f8:	0005f600 	andeq	pc, r5, r0, lsl #12
    12fc:	50011200 	andpl	r1, r1, r0, lsl #4
    1300:	9eb00305 	cdpls	3, 11, cr0, cr0, cr5, {0}
    1304:	01120000 	tsteq	r2, r0
    1308:	6c030551 	cfstr32vs	mvfx0, [r3], {81}	; 0x51
    130c:	1200009e 	andne	r0, r0, #158, 0	; 0x9e
    1310:	03055201 	movweq	r5, #20993	; 0x5201
    1314:	00009f0c 	andeq	r9, r0, ip, lsl #30
    1318:	01530112 	cmpeq	r3, r2, lsl r1
    131c:	90130048 	andsls	r0, r3, r8, asr #32
    1320:	21000086 	smlabbcs	r0, r6, r0, r0
    1324:	00000006 	andeq	r0, r0, r6
    1328:	0000c014 	andeq	ip, r0, r4, lsl r0
    132c:	00061000 	andeq	r1, r6, r0
    1330:	002c1500 	eoreq	r1, ip, r0, lsl #10
    1334:	00040000 	andeq	r0, r4, r0
    1338:	00060009 	andeq	r0, r6, r9
    133c:	053c2100 	ldreq	r2, [ip, #-256]!	; 0xffffff00
    1340:	053c0000 	ldreq	r0, [ip, #-0]!
    1344:	28030000 	stmdacs	r3, {}	; <UNPREDICTABLE>
    1348:	024e2106 	subeq	r2, lr, #-2147483647	; 0x80000001
    134c:	024e0000 	subeq	r0, lr, #0, 0
    1350:	6e030000 	cdpvs	0, 0, cr0, cr3, cr0, {0}
    1354:	02122106 	andseq	r2, r2, #-2147483647	; 0x80000001
    1358:	02120000 	andseq	r0, r2, #0, 0
    135c:	1b050000 	blne	141364 <__bss_end__+0x136c94>
    1360:	028c2108 	addeq	r2, ip, #2
    1364:	028c0000 	addeq	r0, ip, #0, 0
    1368:	1e050000 	cdpne	0, 0, cr0, cr5, cr0, {0}
    136c:	039e2108 	orrseq	r2, lr, #2
    1370:	039e0000 	orrseq	r0, lr, #0, 0
    1374:	6e010000 	cdpvs	0, 0, cr0, cr1, cr0, {0}
    1378:	04022106 	streq	r2, [r2], #-262	; 0xfffffefa
    137c:	04020000 	streq	r0, [r2], #-0
    1380:	82030000 	andhi	r0, r3, #0, 0
    1384:	03fa2106 	mvnseq	r2, #-2147483647	; 0x80000001
    1388:	03fa0000 	mvnseq	r0, #0, 0
    138c:	7b030000 	blvc	c1394 <__bss_end__+0xb6cc4>
    1390:	01400007 	cmpeq	r0, r7
    1394:	00040000 	andeq	r0, r4, r0
    1398:	000007c4 	andeq	r0, r0, r4, asr #15
    139c:	045a0104 	ldrbeq	r0, [sl], #-260	; 0xfffffefc
    13a0:	4a0c0000 	bmi	3013a8 <__bss_end__+0x2f6cd8>
    13a4:	12000004 	andne	r0, r0, #4, 0
    13a8:	00000005 	andeq	r0, r0, r5
    13ac:	78000087 	stmdavc	r0, {r0, r1, r2, r7}
    13b0:	89000000 	stmdbhi	r0, {}	; <UNPREDICTABLE>
    13b4:	02000008 	andeq	r0, r0, #8, 0
    13b8:	6e690504 	cdpvs	5, 6, cr0, cr9, cr4, {0}
    13bc:	43030074 	movwmi	r0, #12404	; 0x3074
    13c0:	03000004 	movweq	r0, #4
    13c4:	003817d1 	ldrsbteq	r1, [r8], -r1
    13c8:	04040000 	streq	r0, [r4], #-0
    13cc:	00007e07 	andeq	r7, r0, r7, lsl #28
    13d0:	06010400 	streq	r0, [r1], -r0, lsl #8
    13d4:	0000002c 	andeq	r0, r0, ip, lsr #32
    13d8:	d4050204 	strle	r0, [r5], #-516	; 0xfffffdfc
    13dc:	04000000 	streq	r0, [r0], #-0
    13e0:	00990504 	addseq	r0, r9, r4, lsl #10
    13e4:	08040000 	stmdaeq	r4, {}	; <UNPREDICTABLE>
    13e8:	00009405 	andeq	r9, r0, r5, lsl #8
    13ec:	08010400 	stmdaeq	r1, {sl}
    13f0:	0000002a 	andeq	r0, r0, sl, lsr #32
    13f4:	38070204 	stmdacc	r7, {r2, r9}
    13f8:	04000000 	streq	r0, [r0], #-0
    13fc:	00790704 	rsbseq	r0, r9, r4, lsl #14
    1400:	08040000 	stmdaeq	r4, {}	; <UNPREDICTABLE>
    1404:	00007407 	andeq	r7, r0, r7, lsl #8
    1408:	00250500 	eoreq	r0, r5, r0, lsl #10
    140c:	00860000 	addeq	r0, r6, r0
    1410:	25060000 	strcs	r0, [r6, #-0]
    1414:	00000000 	andeq	r0, r0, r0
    1418:	0000f107 	andeq	pc, r0, r7, lsl #2
    141c:	0e1c0200 	cdpeq	2, 1, cr0, cr12, cr0, {0}
    1420:	00000092 	muleq	r0, r2, r0
    1424:	00770408 	rsbseq	r0, r7, r8, lsl #8
    1428:	25050000 	strcs	r0, [r5, #-0]
    142c:	a7000000 	strge	r0, [r0, -r0]
    1430:	06000000 	streq	r0, [r0], -r0
    1434:	000000a7 	andeq	r0, r0, r7, lsr #1
    1438:	b4040800 	strlt	r0, [r4], #-2048	; 0xfffff800
    143c:	04000000 	streq	r0, [r0], #-0
    1440:	00330801 	eorseq	r0, r3, r1, lsl #16
    1444:	ad090000 	stcge	0, cr0, [r9, #-0]
    1448:	07000000 	streq	r0, [r0, -r0]
    144c:	0000057a 	andeq	r0, r0, sl, ror r5
    1450:	c50e2102 	strgt	r2, [lr, #-258]	; 0xfffffefe
    1454:	08000000 	stmdaeq	r0, {}	; <UNPREDICTABLE>
    1458:	00009804 	andeq	r9, r0, r4, lsl #16
    145c:	00560a00 	subseq	r0, r6, r0, lsl #20
    1460:	04010000 	streq	r0, [r1], #-0
    1464:	00013b07 	andeq	r3, r1, r7, lsl #22
    1468:	00870000 	addeq	r0, r7, r0
    146c:	00007800 	andeq	r7, r0, r0, lsl #16
    1470:	3b9c0100 	blcc	fe701878 <__bss_end__+0xfe6f71a8>
    1474:	0b000001 	bleq	1480 <__code_start__-0x6b80>
    1478:	0100705f 	qaddeq	r7, pc, r0	; <UNPREDICTABLE>
    147c:	013b1404 	teqeq	fp, r4, lsl #8
    1480:	50010000 	andpl	r0, r1, r0
    1484:	0100630c 	tsteq	r0, ip, lsl #6
    1488:	00251c04 	eoreq	r1, r5, r4, lsl #24
    148c:	06770000 	ldrbteq	r0, [r7], -r0
    1490:	06730000 	ldrbteq	r0, [r3], -r0
    1494:	6e0c0000 	cdpvs	0, 0, cr0, cr12, cr0, {0}
    1498:	26040100 	strcs	r0, [r4], -r0, lsl #2
    149c:	0000002c 	andeq	r0, r0, ip, lsr #32
    14a0:	0000069c 	muleq	r0, ip, r6
    14a4:	00000698 	muleq	r0, r8, r6
    14a8:	0100700d 	tsteq	r0, sp
    14ac:	013d0b05 	teqeq	sp, r5, lsl #22
    14b0:	06cb0000 	strbeq	r0, [fp], r0
    14b4:	06bd0000 	ldrteq	r0, [sp], r0
    14b8:	650d0000 	strvs	r0, [sp, #-0]
    14bc:	14050100 	strne	r0, [r5], #-256	; 0xffffff00
    14c0:	0000013d 	andeq	r0, r0, sp, lsr r1
    14c4:	00000728 	andeq	r0, r0, r8, lsr #14
    14c8:	00000726 	andeq	r0, r0, r6, lsr #14
    14cc:	08040e00 	stmdaeq	r4, {r9, sl, fp}
    14d0:	0000ad04 	andeq	sl, r0, r4, lsl #26
    14d4:	019d0000 	orrseq	r0, sp, r0
    14d8:	00040000 	andeq	r0, r4, r0
    14dc:	00000890 	muleq	r0, r0, r8
    14e0:	045a0104 	ldrbeq	r0, [sl], #-260	; 0xfffffefc
    14e4:	570c0000 	strpl	r0, [ip, -r0]
    14e8:	12000005 	andne	r0, r0, #5, 0
    14ec:	78000005 	stmdavc	r0, {r0, r2}
    14f0:	58000087 	stmdapl	r0, {r0, r1, r2, r7}
    14f4:	ae000000 	cdpge	0, 0, cr0, cr0, cr0, {0}
    14f8:	02000009 	andeq	r0, r0, #9, 0
    14fc:	00000543 	andeq	r0, r0, r3, asr #10
    1500:	311b2802 	tstcc	fp, r2, lsl #16
    1504:	03000000 	movweq	r0, #0
    1508:	00000567 	andeq	r0, r0, r7, ror #10
    150c:	48000404 	stmdami	r0, {r2, sl}
    1510:	04000000 	streq	r0, [r0], #-0
    1514:	00000552 	andeq	r0, r0, r2, asr r5
    1518:	00000048 	andeq	r0, r0, r8, asr #32
    151c:	04050000 	streq	r0, [r5], #-0
    1520:	00056902 	andeq	r6, r5, r2, lsl #18
    1524:	18630200 	stmdane	r3!, {r9}^
    1528:	00000025 	andeq	r0, r0, r5, lsr #32
    152c:	69050406 	stmdbvs	r5, {r1, r2, sl}
    1530:	0700746e 	streq	r7, [r0, -lr, ror #8]
    1534:	007e0704 	rsbseq	r0, lr, r4, lsl #14
    1538:	01070000 	mrseq	r0, (UNDEF: 7)
    153c:	00002c06 	andeq	r2, r0, r6, lsl #24
    1540:	05020700 	streq	r0, [r2, #-1792]	; 0xfffff900
    1544:	000000d4 	ldrdeq	r0, [r0], -r4
    1548:	99050407 	stmdbls	r5, {r0, r1, r2, sl}
    154c:	07000000 	streq	r0, [r0, -r0]
    1550:	00940508 	addseq	r0, r4, r8, lsl #10
    1554:	01070000 	mrseq	r0, (UNDEF: 7)
    1558:	00002a08 	andeq	r2, r0, r8, lsl #20
    155c:	07020700 	streq	r0, [r2, -r0, lsl #14]
    1560:	00000038 	andeq	r0, r0, r8, lsr r0
    1564:	79070407 	stmdbvc	r7, {r0, r1, r2, sl}
    1568:	07000000 	streq	r0, [r0, -r0]
    156c:	00740708 	rsbseq	r0, r4, r8, lsl #14
    1570:	56080000 	strpl	r0, [r8], -r0
    1574:	ab000000 	blge	157c <__code_start__-0x6a84>
    1578:	09000000 	stmdbeq	r0, {}	; <UNPREDICTABLE>
    157c:	00000056 	andeq	r0, r0, r6, asr r0
    1580:	00f10a00 	rscseq	r0, r1, r0, lsl #20
    1584:	1c030000 	stcne	0, cr0, [r3], {-0}
    1588:	0000b70e 	andeq	fp, r0, lr, lsl #14
    158c:	9c040b00 			; <UNDEFINED> instruction: 0x9c040b00
    1590:	08000000 	stmdaeq	r0, {}	; <UNPREDICTABLE>
    1594:	00000056 	andeq	r0, r0, r6, asr r0
    1598:	000000cc 	andeq	r0, r0, ip, asr #1
    159c:	0000cc09 	andeq	ip, r0, r9, lsl #24
    15a0:	040b0000 	streq	r0, [fp], #-0
    15a4:	000000d9 	ldrdeq	r0, [r0], -r9
    15a8:	33080107 	movwcc	r0, #33031	; 0x8107
    15ac:	0c000000 	stceq	0, cr0, [r0], {-0}
    15b0:	000000d2 	ldrdeq	r0, [r0], -r2
    15b4:	00057a0a 	andeq	r7, r5, sl, lsl #20
    15b8:	0e210300 	cdpeq	3, 2, cr0, cr1, cr0, {0}
    15bc:	000000ea 	andeq	r0, r0, sl, ror #1
    15c0:	00bd040b 	adcseq	r0, sp, fp, lsl #8
    15c4:	3c0d0000 	stccc	0, cr0, [sp], {-0}
    15c8:	01000005 	tsteq	r0, r5
    15cc:	00560506 	subseq	r0, r6, r6, lsl #10
    15d0:	87780000 	ldrbhi	r0, [r8, -r0]!
    15d4:	00580000 	subseq	r0, r8, r0
    15d8:	9c010000 	stcls	0, cr0, [r1], {-0}
    15dc:	00000183 	andeq	r0, r0, r3, lsl #3
    15e0:	746d660e 	strbtvc	r6, [sp], #-1550	; 0xfffff9f2
    15e4:	18060100 	stmdane	r6, {r8}
    15e8:	000000cc 	andeq	r0, r0, ip, asr #1
    15ec:	0f709102 	svceq	0x00709102
    15f0:	66756210 			; <UNDEFINED> instruction: 0x66756210
    15f4:	11080100 	mrsne	r0, (UNDEF: 24)
    15f8:	00000183 	andeq	r0, r0, r3, lsl #3
    15fc:	a2c40305 	sbcge	r0, r4, #335544320	; 0x14000000
    1600:	34110000 	ldrcc	r0, [r1], #-0
    1604:	01000005 	tsteq	r0, r5
    1608:	004a0d09 	subeq	r0, sl, r9, lsl #26
    160c:	91020000 	mrsls	r0, (UNDEF: 2)
    1610:	7a73125c 	bvc	1cc5f88 <__bss_end__+0x1cbb8b8>
    1614:	0d0c0100 	stfeqs	f0, [ip, #-0]
    1618:	00000056 	andeq	r0, r0, r6, asr r0
    161c:	00000741 	andeq	r0, r0, r1, asr #14
    1620:	0000073b 	andeq	r0, r0, fp, lsr r7
    1624:	0087a013 	addeq	sl, r7, r3, lsl r0
    1628:	00019400 	andeq	r9, r1, r0, lsl #8
    162c:	00017600 	andeq	r7, r1, r0, lsl #12
    1630:	50011400 	andpl	r1, r1, r0, lsl #8
    1634:	14007502 	strne	r7, [r0], #-1282	; 0xfffffafe
    1638:	0a035101 	beq	d5a44 <__bss_end__+0xcb374>
    163c:	01140400 	tsteq	r4, r0, lsl #8
    1640:	48910352 	ldmmi	r1, {r1, r4, r6, r8, r9}
    1644:	53011406 	movwpl	r1, #5126	; 0x1406
    1648:	004c9102 	subeq	r9, ip, r2, lsl #2
    164c:	0087b415 	addeq	fp, r7, r5, lsl r4
    1650:	50011400 	andpl	r1, r1, r0, lsl #8
    1654:	00007502 	andeq	r7, r0, r2, lsl #10
    1658:	00d21600 	sbcseq	r1, r2, r0, lsl #12
    165c:	01940000 	orrseq	r0, r4, r0
    1660:	5d170000 	ldcpl	0, cr0, [r7, #-0]
    1664:	ff000000 			; <UNDEFINED> instruction: 0xff000000
    1668:	39180003 	ldmdbcc	r8, {r0, r1}
    166c:	39000005 	stmdbcc	r0, {r0, r2}
    1670:	05000005 	streq	r0, [r0, #-5]
    1674:	f3000502 	vrshl.u8	d0, d2, d0
    1678:	04000000 	streq	r0, [r0], #-0
    167c:	0009d200 	andeq	sp, r9, r0, lsl #4
    1680:	5a010400 	bpl	42688 <__bss_end__+0x37fb8>
    1684:	0c000004 	stceq	0, cr0, [r0], {4}
    1688:	0000057f 	andeq	r0, r0, pc, ror r5
    168c:	00000512 	andeq	r0, r0, r2, lsl r5
    1690:	000087d0 	ldrdeq	r8, [r0], -r0
    1694:	00000038 	andeq	r0, r0, r8, lsr r0
    1698:	00000ad2 	ldrdeq	r0, [r0], -r2
    169c:	69050402 	stmdbvs	r5, {r1, sl}
    16a0:	0300746e 	movweq	r7, #1134	; 0x46e
    16a4:	007e0704 	rsbseq	r0, lr, r4, lsl #14
    16a8:	01030000 	mrseq	r0, (UNDEF: 3)
    16ac:	00002c06 	andeq	r2, r0, r6, lsl #24
    16b0:	05020300 	streq	r0, [r2, #-768]	; 0xfffffd00
    16b4:	000000d4 	ldrdeq	r0, [r0], -r4
    16b8:	99050403 	stmdbls	r5, {r0, r1, sl}
    16bc:	03000000 	movweq	r0, #0
    16c0:	00940508 	addseq	r0, r4, r8, lsl #10
    16c4:	01030000 	mrseq	r0, (UNDEF: 3)
    16c8:	00002a08 	andeq	r2, r0, r8, lsl #20
    16cc:	07020300 	streq	r0, [r2, -r0, lsl #6]
    16d0:	00000038 	andeq	r0, r0, r8, lsr r0
    16d4:	79070403 	stmdbvc	r7, {r0, r1, sl}
    16d8:	03000000 	movweq	r0, #0
    16dc:	00740708 	rsbseq	r0, r4, r8, lsl #14
    16e0:	25040000 	strcs	r0, [r4, #-0]
    16e4:	7a000000 	bvc	16ec <__code_start__-0x6914>
    16e8:	05000000 	streq	r0, [r0, #-0]
    16ec:	00000025 	andeq	r0, r0, r5, lsr #32
    16f0:	00f10600 	rscseq	r0, r1, r0, lsl #12
    16f4:	1c020000 	stcne	0, cr0, [r2], {-0}
    16f8:	0000860e 	andeq	r8, r0, lr, lsl #12
    16fc:	6b040700 	blvs	103304 <__bss_end__+0xf8c34>
    1700:	04000000 	streq	r0, [r0], #-0
    1704:	00000025 	andeq	r0, r0, r5, lsr #32
    1708:	0000009b 	muleq	r0, fp, r0
    170c:	00009b05 	andeq	r9, r0, r5, lsl #22
    1710:	04070000 	streq	r0, [r7], #-0
    1714:	000000a8 	andeq	r0, r0, r8, lsr #1
    1718:	33080103 	movwcc	r0, #33027	; 0x8103
    171c:	08000000 	stmdaeq	r0, {}	; <UNPREDICTABLE>
    1720:	000000a1 	andeq	r0, r0, r1, lsr #1
    1724:	00057a06 	andeq	r7, r5, r6, lsl #20
    1728:	0e210200 	cdpeq	2, 2, cr0, cr1, cr0, {0}
    172c:	000000b9 	strheq	r0, [r0], -r9
    1730:	008c0407 	addeq	r0, ip, r7, lsl #8
    1734:	ad090000 	stcge	0, cr0, [r9, #-0]
    1738:	01000000 	mrseq	r0, (UNDEF: 0)
    173c:	0305070c 	movweq	r0, #22284	; 0x570c
    1740:	0000a290 	muleq	r0, r0, r2
    1744:	0005710a 	andeq	r7, r5, sl, lsl #2
    1748:	05040100 	streq	r0, [r4, #-256]	; 0xffffff00
    174c:	00000025 	andeq	r0, r0, r5, lsr #32
    1750:	000087d0 	ldrdeq	r8, [r0], -r0
    1754:	00000038 	andeq	r0, r0, r8, lsr r0
    1758:	700b9c01 	andvc	r9, fp, r1, lsl #24
    175c:	1f040100 	svcne	0x00040100
    1760:	0000009b 	muleq	r0, fp, r0
    1764:	00000772 	andeq	r0, r0, r2, ror r7
    1768:	0000076a 	andeq	r0, r0, sl, ror #14
    176c:	0c7f0000 	ldcleq	0, cr0, [pc], #-0	; 1774 <__code_start__-0x688c>
    1770:	00040000 	andeq	r0, r4, r0
    1774:	00000a70 	andeq	r0, r0, r0, ror sl
    1778:	045a0104 	ldrbeq	r0, [sl], #-260	; 0xfffffefc
    177c:	9e0c0000 	cdpls	0, 0, cr0, cr12, cr0, {0}
    1780:	12000005 	andne	r0, r0, #5, 0
    1784:	08000005 	stmdaeq	r0, {r0, r2}
    1788:	b4000088 	strlt	r0, [r0], #-136	; 0xffffff78
    178c:	76000009 	strvc	r0, [r0], -r9
    1790:	0200000b 	andeq	r0, r0, #11, 0
    1794:	00740708 	rsbseq	r0, r4, r8, lsl #14
    1798:	04020000 	streq	r0, [r2], #-0
    179c:	00007e07 	andeq	r7, r0, r7, lsl #28
    17a0:	05040300 	streq	r0, [r4, #-768]	; 0xfffffd00
    17a4:	00746e69 	rsbseq	r6, r4, r9, ror #28
    17a8:	2c060102 	stfcss	f0, [r6], {2}
    17ac:	02000000 	andeq	r0, r0, #0, 0
    17b0:	00d40502 	sbcseq	r0, r4, r2, lsl #10
    17b4:	04020000 	streq	r0, [r2], #-0
    17b8:	00009905 	andeq	r9, r0, r5, lsl #18
    17bc:	05080200 	streq	r0, [r8, #-512]	; 0xfffffe00
    17c0:	00000094 	muleq	r0, r4, r0
    17c4:	2a080102 	bcs	201bd4 <__bss_end__+0x1f7504>
    17c8:	02000000 	andeq	r0, r0, #0, 0
    17cc:	00380702 	eorseq	r0, r8, r2, lsl #14
    17d0:	e8040000 	stmda	r4, {}	; <UNPREDICTABLE>
    17d4:	02000000 	andeq	r0, r0, #0, 0
    17d8:	00701934 	rsbseq	r1, r0, r4, lsr r9
    17dc:	04020000 	streq	r0, [r2], #-0
    17e0:	00007907 	andeq	r7, r0, r7, lsl #18
    17e4:	05950400 	ldreq	r0, [r5, #1024]	; 0x400
    17e8:	37020000 	strcc	r0, [r2, -r0]
    17ec:	00002519 	andeq	r2, r0, r9, lsl r5
    17f0:	00330500 	eorseq	r0, r3, r0, lsl #10
    17f4:	00920000 	addseq	r0, r2, r0
    17f8:	33060000 	movwcc	r0, #24576	; 0x6000
    17fc:	00000000 	andeq	r0, r0, r0
    1800:	0000f107 	andeq	pc, r0, r7, lsl #2
    1804:	0e1c0300 	cdpeq	3, 1, cr0, cr12, cr0, {0}
    1808:	0000009e 	muleq	r0, lr, r0
    180c:	00830408 	addeq	r0, r3, r8, lsl #8
    1810:	33050000 	movwcc	r0, #20480	; 0x5000
    1814:	b3000000 	movwlt	r0, #0
    1818:	06000000 	streq	r0, [r0], -r0
    181c:	000000b3 	strheq	r0, [r0], -r3
    1820:	c0040800 	andgt	r0, r4, r0, lsl #16
    1824:	02000000 	andeq	r0, r0, #0, 0
    1828:	00330801 	eorseq	r0, r3, r1, lsl #16
    182c:	b9090000 	stmdblt	r9, {}	; <UNPREDICTABLE>
    1830:	07000000 	streq	r0, [r0, -r0]
    1834:	0000057a 	andeq	r0, r0, sl, ror r5
    1838:	d10e2103 	tstle	lr, r3, lsl #2
    183c:	08000000 	stmdaeq	r0, {}	; <UNPREDICTABLE>
    1840:	0000a404 	andeq	sl, r0, r4, lsl #8
    1844:	05b10700 	ldreq	r0, [r1, #1792]!	; 0x700
    1848:	0b040000 	bleq	101850 <__bss_end__+0xf7180>
    184c:	0000b90d 	andeq	fp, r0, sp, lsl #18
    1850:	060a0700 	streq	r0, [sl], -r0, lsl #14
    1854:	0c040000 	stceq	0, cr0, [r4], {-0}
    1858:	0000b90d 	andeq	fp, r0, sp, lsl #18
    185c:	03610700 	cmneq	r1, #0, 14
    1860:	0d040000 	stceq	0, cr0, [r4, #-0]
    1864:	0000b90d 	andeq	fp, r0, sp, lsl #18
    1868:	03ee0700 	mvneq	r0, #0, 14
    186c:	0e040000 	cdpeq	0, 0, cr0, cr4, cr0, {0}
    1870:	0000b90d 	andeq	fp, r0, sp, lsl #18
    1874:	01c60700 	biceq	r0, r6, r0, lsl #14
    1878:	0f040000 	svceq	0x00040000
    187c:	0000b90d 	andeq	fp, r0, sp, lsl #18
    1880:	01d50700 	bicseq	r0, r5, r0, lsl #14
    1884:	10040000 	andne	r0, r4, r0
    1888:	0000b90d 	andeq	fp, r0, sp, lsl #18
    188c:	06330700 	ldrteq	r0, [r3], -r0, lsl #14
    1890:	11040000 	mrsne	r0, (UNDEF: 4)
    1894:	0000b90d 	andeq	fp, r0, sp, lsl #18
    1898:	05ce0700 	strbeq	r0, [lr, #1792]	; 0x700
    189c:	12040000 	andne	r0, r4, #0, 0
    18a0:	0000b90d 	andeq	fp, r0, sp, lsl #18
    18a4:	05430400 	strbeq	r0, [r3, #-1024]	; 0xfffffc00
    18a8:	28050000 	stmdacs	r5, {}	; <UNPREDICTABLE>
    18ac:	0001431b 	andeq	r4, r1, fp, lsl r3
    18b0:	05670a00 	strbeq	r0, [r7, #-2560]!	; 0xfffff600
    18b4:	06040000 	streq	r0, [r4], -r0
    18b8:	00015a00 	andeq	r5, r1, r0, lsl #20
    18bc:	05520b00 	ldrbeq	r0, [r2, #-2816]	; 0xfffff500
    18c0:	015a0000 	cmpeq	sl, r0
    18c4:	00000000 	andeq	r0, r0, r0
    18c8:	6904040c 	stmdbvs	r4, {r2, r3, sl}
    18cc:	05000005 	streq	r0, [r0, #-5]
    18d0:	01371863 	teqeq	r7, r3, ror #16
    18d4:	390d0000 	stmdbcc	sp, {}	; <UNPREDICTABLE>
    18d8:	01000005 	tsteq	r0, r5
    18dc:	00330581 	eorseq	r0, r3, r1, lsl #11
    18e0:	8b900000 	blhi	fe4018e8 <__bss_end__+0xfe3f7218>
    18e4:	062c0000 	strteq	r0, [ip], -r0
    18e8:	9c010000 	stcls	0, cr0, [r1], {-0}
    18ec:	0000086a 	andeq	r0, r0, sl, ror #16
    18f0:	6675620e 	ldrbtvs	r6, [r5], -lr, lsl #4
    18f4:	15810100 	strne	r0, [r1, #256]	; 0x100
    18f8:	0000086a 	andeq	r0, r0, sl, ror #16
    18fc:	000007b2 			; <UNDEFINED> instruction: 0x000007b2
    1900:	000007a8 	andeq	r0, r0, r8, lsr #15
    1904:	01006e0e 	tsteq	r0, lr, lsl #28
    1908:	00331e81 	eorseq	r1, r3, r1, lsl #29
    190c:	07ff0000 	ldrbeq	r0, [pc, r0]!
    1910:	07f70000 	ldrbeq	r0, [r7, r0]!
    1914:	660e0000 	strvs	r0, [lr], -r0
    1918:	0100746d 	tsteq	r0, sp, ror #8
    191c:	00b32d81 	adcseq	r2, r3, r1, lsl #27
    1920:	08510000 	ldmdaeq	r1, {}^	; <UNPREDICTABLE>
    1924:	08390000 	ldmdaeq	r9!, {}	; <UNPREDICTABLE>
    1928:	340f0000 	strcc	r0, [pc], #-0	; 1930 <__code_start__-0x66d0>
    192c:	01000005 	tsteq	r0, r5
    1930:	015c3a81 	cmpeq	ip, r1, lsl #21
    1934:	09130000 	ldmdbeq	r3, {}	; <UNPREDICTABLE>
    1938:	08e50000 	stmiaeq	r5!, {}^	; <UNPREDICTABLE>
    193c:	70100000 	andsvc	r0, r0, r0
    1940:	08820100 	stmeq	r2, {r8}
    1944:	0000086a 	andeq	r0, r0, sl, ror #16
    1948:	00000a66 	andeq	r0, r0, r6, ror #20
    194c:	00000a50 	andeq	r0, r0, r0, asr sl
    1950:	01006510 	tsteq	r0, r0, lsl r5
    1954:	086a1282 	stmdaeq	sl!, {r1, r7, r9, ip}^
    1958:	0aef0000 	beq	ffbc1960 <__bss_end__+0xffbb7290>
    195c:	0aed0000 	beq	ffb41964 <__bss_end__+0xffb37294>
    1960:	78100000 	ldmdavc	r0, {}	; <UNPREDICTABLE>
    1964:	83010030 	movwhi	r0, #4144	; 0x1030
    1968:	0000640e 	andeq	r6, r0, lr, lsl #8
    196c:	000b0800 	andeq	r0, fp, r0, lsl #16
    1970:	000b0200 	andeq	r0, fp, r0, lsl #4
    1974:	31781000 	cmncc	r8, r0
    1978:	11830100 	orrne	r0, r3, r0, lsl #2
    197c:	00000064 	andeq	r0, r0, r4, rrx
    1980:	00000b37 	andeq	r0, r0, r7, lsr fp
    1984:	00000b31 	andeq	r0, r0, r1, lsr fp
    1988:	0005ec11 	andeq	lr, r5, r1, lsl ip
    198c:	11860100 	orrne	r0, r6, r0, lsl #2
    1990:	000000b3 	strheq	r0, [r0], -r3
    1994:	00000b68 	andeq	r0, r0, r8, ror #22
    1998:	00000b60 	andeq	r0, r0, r0, ror #22
    199c:	00006212 	andeq	r6, r0, r2, lsl r2
    19a0:	00088000 	andeq	r8, r8, r0
    19a4:	7c030500 	cfstr32vc	mvfx0, [r3], {-0}
    19a8:	130000a0 	movwne	r0, #160	; 0xa0
    19ac:	00000068 	andeq	r0, r0, r8, rrx
    19b0:	01007310 	tsteq	r0, r0, lsl r3
    19b4:	086a0a91 	stmdaeq	sl!, {r0, r4, r7, r9, fp}^
    19b8:	0bae0000 	bleq	feb819c0 <__bss_end__+0xfeb772f0>
    19bc:	0ba20000 	bleq	fe8819c4 <__bss_end__+0xfe8772f4>
    19c0:	6e140000 	cdpvs	0, 1, cr0, cr4, cr0, {0}
    19c4:	01006d75 	tsteq	r0, r5, ror sp
    19c8:	08850d91 	stmeq	r5, {r0, r4, r7, r8, sl, fp}
    19cc:	91030000 	mrsls	r0, (UNDEF: 3)
    19d0:	40157dd8 			; <UNDEFINED> instruction: 0x40157dd8
    19d4:	01000006 	tsteq	r0, r6
    19d8:	08851791 	stmeq	r5, {r0, r4, r7, r8, r9, sl, ip}
    19dc:	91030000 	mrsls	r0, (UNDEF: 3)
    19e0:	c0117ed8 			; <UNDEFINED> instruction: 0xc0117ed8
    19e4:	01000005 	tsteq	r0, r5
    19e8:	002c0d92 	mlaeq	ip, r2, sp, r0
    19ec:	0c000000 	stceq	0, cr0, [r0], {-0}
    19f0:	0bf80000 	bleq	ffe019f8 <__bss_end__+0xffdf7328>
    19f4:	90160000 	andsls	r0, r6, r0
    19f8:	f1000000 	cps	#0
    19fc:	10000004 	andne	r0, r0, r4
    1a00:	01007974 	tsteq	r0, r4, ror r9
    1a04:	00b31d9e 	umlalseq	r1, r3, lr, sp
    1a08:	0c410000 	mareq	acc0, r0, r1
    1a0c:	0c350000 	ldceq	0, cr0, [r5], #-0
    1a10:	78140000 	ldmdavc	r4, {}	; <UNPREDICTABLE>
    1a14:	a2010078 	andge	r0, r1, #120, 0	; 0x78
    1a18:	0000771a 	andeq	r7, r0, sl, lsl r7
    1a1c:	93590600 	cmpls	r9, #0, 12
    1a20:	04935b04 	ldreq	r5, [r3], #2820	; 0xb04
    1a24:	008d1c17 	addeq	r1, sp, r7, lsl ip
    1a28:	000c3a00 	andeq	r3, ip, r0, lsl #20
    1a2c:	0002d800 	andeq	sp, r2, r0, lsl #16
    1a30:	50011800 	andpl	r1, r1, r0, lsl #16
    1a34:	18007602 	stmdane	r0, {r1, r9, sl, ip, sp, lr}
    1a38:	03055101 	movweq	r5, #20737	; 0x5101
    1a3c:	00009f70 	andeq	r9, r0, r0, ror pc
    1a40:	01520118 	cmpeq	r2, r8, lsl r1
    1a44:	34170033 	ldrcc	r0, [r7], #-51	; 0xffffffcd
    1a48:	3a00008d 	bcc	1c84 <__code_start__-0x637c>
    1a4c:	fa00000c 	blx	1a84 <__code_start__-0x657c>
    1a50:	18000002 	stmdane	r0, {r1}
    1a54:	76025001 	strvc	r5, [r2], -r1
    1a58:	51011800 	tstpl	r1, r0, lsl #16
    1a5c:	9f840305 	svcls	0x00840305
    1a60:	01180000 	tsteq	r8, r0
    1a64:	00330152 	eorseq	r0, r3, r2, asr r1
    1a68:	008d5817 	addeq	r5, sp, r7, lsl r8
    1a6c:	000c4600 	andeq	r4, ip, r0, lsl #12
    1a70:	00031700 	andeq	r1, r3, r0, lsl #14
    1a74:	50011800 	andpl	r1, r1, r0, lsl #16
    1a78:	9f740305 	svcls	0x00740305
    1a7c:	01180000 	tsteq	r8, r0
    1a80:	007b0251 	rsbseq	r0, fp, r1, asr r2
    1a84:	8d641700 	stclhi	7, cr1, [r4, #-0]
    1a88:	0c460000 	mareq	acc0, r0, r6
    1a8c:	03340000 	teqeq	r4, #0, 0
    1a90:	01180000 	tsteq	r8, r0
    1a94:	7c030550 	cfstr32vc	mvfx0, [r3], {80}	; 0x50
    1a98:	1800009f 	stmdane	r0, {r0, r1, r2, r3, r4, r7}
    1a9c:	79025101 	stmdbvc	r2, {r0, r8, ip, lr}
    1aa0:	74170000 	ldrvc	r0, [r7], #-0
    1aa4:	3a00008d 	bcc	1ce0 <__code_start__-0x6320>
    1aa8:	5600000c 	strpl	r0, [r0], -ip
    1aac:	18000003 	stmdane	r0, {r0, r1}
    1ab0:	76025001 	strvc	r5, [r2], -r1
    1ab4:	51011800 	tstpl	r1, r0, lsl #16
    1ab8:	9f700305 	svcls	0x00700305
    1abc:	01180000 	tsteq	r8, r0
    1ac0:	00330152 	eorseq	r0, r3, r2, asr r1
    1ac4:	008da417 	addeq	sl, sp, r7, lsl r4
    1ac8:	000aa400 	andeq	sl, sl, r0, lsl #8
    1acc:	00038300 	andeq	r8, r3, r0, lsl #6
    1ad0:	50011800 	andpl	r1, r1, r0, lsl #16
    1ad4:	01184001 	tsteq	r8, r1
    1ad8:	d0910351 	addsle	r0, r1, r1, asr r3
    1adc:	5201187d 	andpl	r1, r1, #8192000	; 0x7d0000
    1ae0:	18007b02 	stmdane	r0, {r1, r8, r9, fp, ip, sp, lr}
    1ae4:	75025301 	strvc	r5, [r2, #-769]	; 0xfffffcff
    1ae8:	7d021800 	stcvc	8, cr1, [r2, #-0]
    1aec:	00760200 	rsbseq	r0, r6, r0, lsl #4
    1af0:	8dc41700 	stclhi	7, cr1, [r4]
    1af4:	0aa40000 	beq	fe901afc <__bss_end__+0xfe8f742c>
    1af8:	03aa0000 			; <UNDEFINED> instruction: 0x03aa0000
    1afc:	01180000 	tsteq	r8, r0
    1b00:	18400150 	stmdane	r0, {r4, r6, r8}^
    1b04:	91035101 	tstls	r3, r1, lsl #2
    1b08:	01187ed0 			; <UNDEFINED> instruction: 0x01187ed0
    1b0c:	00790252 	rsbseq	r0, r9, r2, asr r2
    1b10:	007d0218 	rsbseq	r0, sp, r8, lsl r2
    1b14:	00007602 	andeq	r7, r0, r2, lsl #12
    1b18:	008dd417 	addeq	sp, sp, r7, lsl r4
    1b1c:	000c5200 	andeq	r5, ip, r0, lsl #4
    1b20:	0003c600 	andeq	ip, r3, r0, lsl #12
    1b24:	50011800 	andpl	r1, r1, r0, lsl #16
    1b28:	7dd09103 	ldfvcp	f1, [r0, #12]
    1b2c:	03510118 	cmpeq	r1, #6
    1b30:	007ed291 			; <UNDEFINED> instruction: 0x007ed291
    1b34:	00901817 	addseq	r1, r0, r7, lsl r8
    1b38:	000c3a00 	andeq	r3, ip, r0, lsl #20
    1b3c:	0003e800 	andeq	lr, r3, r0, lsl #16
    1b40:	50011800 	andpl	r1, r1, r0, lsl #16
    1b44:	18007602 	stmdane	r0, {r1, r9, sl, ip, sp, lr}
    1b48:	03055101 	movweq	r5, #20737	; 0x5101
    1b4c:	00009f84 	andeq	r9, r0, r4, lsl #31
    1b50:	01520118 	cmpeq	r2, r8, lsl r1
    1b54:	3c170033 	ldccc	0, cr0, [r7], {51}	; 0x33
    1b58:	a4000090 	strge	r0, [r0], #-144	; 0xffffff70
    1b5c:	1500000a 	strne	r0, [r0, #-10]
    1b60:	18000004 	stmdane	r0, {r2}
    1b64:	3a015001 	bcc	55b70 <__bss_end__+0x4b4a0>
    1b68:	03510118 	cmpeq	r1, #6
    1b6c:	187dd091 	ldmdane	sp!, {r0, r4, r7, ip, lr, pc}^
    1b70:	7b025201 	blvc	9637c <__bss_end__+0x8bcac>
    1b74:	53011800 	movwpl	r1, #6144	; 0x1800
    1b78:	18007502 	stmdane	r0, {r1, r8, sl, ip, sp, lr}
    1b7c:	02007d02 	andeq	r7, r0, #128	; 0x80
    1b80:	17000076 	smlsdxne	r0, r6, r0, r0
    1b84:	0000905c 	andeq	r9, r0, ip, asr r0
    1b88:	00000aa4 	andeq	r0, r0, r4, lsr #21
    1b8c:	0000043c 	andeq	r0, r0, ip, lsr r4
    1b90:	01500118 	cmpeq	r0, r8, lsl r1
    1b94:	5101183a 	tstpl	r1, sl, lsr r8
    1b98:	7ed09103 	atnvcs	f1, f3
    1b9c:	02520118 	subseq	r0, r2, #6
    1ba0:	02180079 	andseq	r0, r8, #121, 0	; 0x79
    1ba4:	7602007d 			; <UNDEFINED> instruction: 0x7602007d
    1ba8:	68170000 	ldmdavs	r7, {}	; <UNPREDICTABLE>
    1bac:	5e000090 	mcrpl	0, 0, r0, cr0, cr0, {4}
    1bb0:	5a00000c 	bpl	1be8 <__code_start__-0x6418>
    1bb4:	18000004 	stmdane	r0, {r2}
    1bb8:	91035001 	tstls	r3, r1
    1bbc:	01187dd0 			; <UNDEFINED> instruction: 0x01187dd0
    1bc0:	ac030551 	cfstr32ge	mvfx0, [r3], {81}	; 0x51
    1bc4:	0000009e 	muleq	r0, lr, r0
    1bc8:	00907c17 	addseq	r7, r0, r7, lsl ip
    1bcc:	000c6a00 	andeq	r6, ip, r0, lsl #20
    1bd0:	00047600 	andeq	r7, r4, r0, lsl #12
    1bd4:	50011800 	andpl	r1, r1, r0, lsl #16
    1bd8:	7dd09103 	ldfvcp	f1, [r0, #12]
    1bdc:	03510118 	cmpeq	r1, #6
    1be0:	007ed091 			; <UNDEFINED> instruction: 0x007ed091
    1be4:	00908819 	addseq	r8, r0, r9, lsl r8
    1be8:	000c5200 	andeq	r5, ip, r0, lsl #4
    1bec:	914c1700 	cmpls	ip, r0, lsl #14
    1bf0:	0c460000 	mareq	acc0, r0, r6
    1bf4:	04a80000 	strteq	r0, [r8], #0
    1bf8:	01180000 	tsteq	r8, r0
    1bfc:	80030550 	andhi	r0, r3, r0, asr r5
    1c00:	1800009d 	stmdane	r0, {r0, r2, r3, r4, r7}
    1c04:	03055101 	movweq	r5, #20737	; 0x5101
    1c08:	00009f24 	andeq	r9, r0, r4, lsr #30
    1c0c:	05520118 	ldrbeq	r0, [r2, #-280]	; 0xfffffee8
    1c10:	00a07c03 	adceq	r7, r0, r3, lsl #24
    1c14:	50190000 	andspl	r0, r9, r0
    1c18:	76000091 			; <UNDEFINED> instruction: 0x76000091
    1c1c:	1700000c 	strne	r0, [r0, -ip]
    1c20:	00009168 	andeq	r9, r0, r8, ror #2
    1c24:	00000c46 	andeq	r0, r0, r6, asr #24
    1c28:	000004e7 	andeq	r0, r0, r7, ror #9
    1c2c:	05500118 	ldrbeq	r0, [r0, #-280]	; 0xfffffee8
    1c30:	009fc403 	addseq	ip, pc, r3, lsl #8
    1c34:	51011800 	tstpl	r1, r0, lsl #16
    1c38:	9f240305 	svcls	0x00240305
    1c3c:	01180000 	tsteq	r8, r0
    1c40:	7c030552 	cfstr32vc	mvfx0, [r3], {82}	; 0x52
    1c44:	180000a0 	stmdane	r0, {r5, r7}
    1c48:	08025301 	stmdaeq	r2, {r0, r8, r9, ip, lr}
    1c4c:	7d0218b6 	stcvc	8, cr1, [r2, #-728]	; 0xfffffd28
    1c50:	00760200 	rsbseq	r0, r6, r0, lsl #4
    1c54:	916c1900 	cmnls	ip, r0, lsl #18
    1c58:	0c760000 	ldcleq	0, cr0, [r6], #-0
    1c5c:	1a000000 	bne	1c64 <__code_start__-0x639c>
    1c60:	000009e3 	andeq	r0, r0, r3, ror #19
    1c64:	00008c1c 	andeq	r8, r0, ip, lsl ip
    1c68:	00b80004 	adcseq	r0, r8, r4
    1c6c:	94010000 	strls	r0, [r1], #-0
    1c70:	0005150a 	andeq	r1, r5, sl, lsl #10
    1c74:	09f41b00 	ldmibeq	r4!, {r8, r9, fp, ip}^
    1c78:	0c9d0000 	ldceq	0, cr0, [sp], {0}
    1c7c:	0c990000 	ldceq	0, cr0, [r9], {0}
    1c80:	1a000000 	bne	1c88 <__code_start__-0x6378>
    1c84:	00000895 	muleq	r0, r5, r8
    1c88:	00008e04 	andeq	r8, r0, r4, lsl #28
    1c8c:	00d80001 	sbcseq	r0, r8, r1
    1c90:	dc010000 	stcle	0, cr0, [r1], {-0}
    1c94:	00064b09 	andeq	r4, r6, r9, lsl #22
    1c98:	08be1b00 	ldmeq	lr!, {r8, r9, fp, ip}
    1c9c:	0ccb0000 	stcleq	0, cr0, [fp], {0}
    1ca0:	0cc50000 	stcleq	0, cr0, [r5], {0}
    1ca4:	e01b0000 	ands	r0, fp, r0
    1ca8:	00000008 	andeq	r0, r0, r8
    1cac:	fa00000d 	blx	1ce8 <__code_start__-0x6318>
    1cb0:	1b00000c 	blne	1ce8 <__code_start__-0x6318>
    1cb4:	000008d4 	ldrdeq	r0, [r0], -r4
    1cb8:	00000d32 	andeq	r0, r0, r2, lsr sp
    1cbc:	00000d2c 	andeq	r0, r0, ip, lsr #26
    1cc0:	0008c81c 	andeq	ip, r8, ip, lsl r8
    1cc4:	08b21b00 	ldmeq	r2!, {r8, r9, fp, ip}
    1cc8:	0d630000 	stcleq	0, cr0, [r3, #-0]
    1ccc:	0d5b0000 	ldcleq	0, cr0, [fp, #-0]
    1cd0:	a61b0000 	ldrge	r0, [fp], -r0
    1cd4:	a6000008 	strge	r0, [r0], -r8
    1cd8:	a000000d 	andge	r0, r0, sp
    1cdc:	1300000d 	movwne	r0, #13
    1ce0:	000000d8 	ldrdeq	r0, [r0], -r8
    1ce4:	0008ec1d 	andeq	lr, r8, sp, lsl ip
    1ce8:	d8910300 	ldmle	r1, {r8, r9}
    1cec:	08f81e7e 	ldmeq	r8!, {r1, r2, r3, r4, r5, r6, r9, sl, fp, ip}^
    1cf0:	0de00000 	stcleq	0, cr0, [r0]
    1cf4:	0dd20000 	ldcleq	0, cr0, [r2]
    1cf8:	021f0000 	andseq	r0, pc, #0, 0
    1cfc:	1a000009 	bne	1d28 <__code_start__-0x62d8>
    1d00:	000009a3 	andeq	r0, r0, r3, lsr #19
    1d04:	00008e10 	andeq	r8, r0, r0, lsl lr
    1d08:	01080004 	tsteq	r8, r4
    1d0c:	7c010000 	stcvc	0, cr0, [r1], {-0}
    1d10:	0005e209 	andeq	lr, r5, r9, lsl #4
    1d14:	09ca1b00 	stmibeq	sl, {r8, r9, fp, ip}^
    1d18:	0e4a0000 	cdpeq	0, 4, cr0, cr10, cr0, {0}
    1d1c:	0e440000 	cdpeq	0, 4, cr0, cr4, cr0, {0}
    1d20:	be1b0000 	cdplt	0, 1, cr0, cr11, cr0, {0}
    1d24:	7f000009 	svcvc	0x00000009
    1d28:	7300000e 	movwvc	r0, #14
    1d2c:	1b00000e 	blne	1d6c <__code_start__-0x6294>
    1d30:	000009b4 			; <UNDEFINED> instruction: 0x000009b4
    1d34:	00000ee5 	andeq	r0, r0, r5, ror #29
    1d38:	00000ed5 	ldrdeq	r0, [r0], -r5
    1d3c:	00010813 	andeq	r0, r1, r3, lsl r8
    1d40:	09d61e00 	ldmibeq	r6, {r9, sl, fp, ip}^
    1d44:	0f620000 	svceq	0x00620000
    1d48:	0f540000 	svceq	0x00540000
    1d4c:	00000000 	andeq	r0, r0, r0
    1d50:	00094f20 	andeq	r4, r9, r0, lsr #30
    1d54:	008ed800 	addeq	sp, lr, r0, lsl #16
    1d58:	38000200 	stmdacc	r0, {r9}
    1d5c:	01000001 	tsteq	r0, r1
    1d60:	801b097c 	andshi	r0, fp, ip, ror r9
    1d64:	c2000009 	andgt	r0, r0, #9, 0
    1d68:	bc00000f 	stclt	0, cr0, [r0], {15}
    1d6c:	1b00000f 	blne	1db0 <__code_start__-0x6250>
    1d70:	00000976 	andeq	r0, r0, r6, ror r9
    1d74:	00000ff8 	strdeq	r0, [r0], -r8
    1d78:	00000fee 	andeq	r0, r0, lr, ror #31
    1d7c:	00096c1b 	andeq	r6, r9, fp, lsl ip
    1d80:	00104700 	andseq	r4, r0, r0, lsl #14
    1d84:	00104300 	andseq	r4, r0, r0, lsl #6
    1d88:	09601b00 	stmdbeq	r0!, {r8, r9, fp, ip}^
    1d8c:	10770000 	rsbsne	r0, r7, r0
    1d90:	10690000 	rsbne	r0, r9, r0
    1d94:	38130000 	ldmdacc	r3, {}	; <UNPREDICTABLE>
    1d98:	1e000001 	cdpne	0, 0, cr0, cr0, cr1, {0}
    1d9c:	0000098c 	andeq	r0, r0, ip, lsl #19
    1da0:	000010dc 	ldrdeq	r1, [r0], -ip
    1da4:	000010da 	ldrdeq	r1, [r0], -sl
    1da8:	0009981e 	andeq	r9, r9, lr, lsl r8
    1dac:	0010f600 	andseq	pc, r0, r0, lsl #12
    1db0:	0010f000 	andseq	pc, r0, r0
    1db4:	00000000 	andeq	r0, r0, r0
    1db8:	08951a00 	ldmeq	r5, {r9, fp, ip}
    1dbc:	8f140000 	svchi	0x00140000
    1dc0:	00000000 	andeq	r0, r0, r0
    1dc4:	00000168 	andeq	r0, r0, r8, ror #2
    1dc8:	8909d601 	stmdbhi	r9, {r0, r9, sl, ip, lr, pc}
    1dcc:	1b000007 	blne	1df0 <__code_start__-0x6210>
    1dd0:	000008be 			; <UNDEFINED> instruction: 0x000008be
    1dd4:	00001129 	andeq	r1, r0, r9, lsr #2
    1dd8:	00001125 	andeq	r1, r0, r5, lsr #2
    1ddc:	0008e01b 	andeq	lr, r8, fp, lsl r0
    1de0:	00114f00 	andseq	r4, r1, r0, lsl #30
    1de4:	00114b00 	andseq	r4, r1, r0, lsl #22
    1de8:	08d41b00 	ldmeq	r4, {r8, r9, fp, ip}^
    1dec:	11730000 	cmnne	r3, r0
    1df0:	116f0000 	cmnne	pc, r0
    1df4:	c81c0000 	ldmdagt	ip, {}	; <UNPREDICTABLE>
    1df8:	1b000008 	blne	1e20 <__code_start__-0x61e0>
    1dfc:	000008b2 			; <UNDEFINED> instruction: 0x000008b2
    1e00:	00001197 	muleq	r0, r7, r1
    1e04:	00001191 	muleq	r0, r1, r1
    1e08:	0008a61b 	andeq	sl, r8, fp, lsl r6
    1e0c:	0011ca00 	andseq	ip, r1, r0, lsl #20
    1e10:	0011c600 	andseq	ip, r1, r0, lsl #12
    1e14:	01681300 	cmneq	r8, r0, lsl #6
    1e18:	ec1d0000 	ldc	0, cr0, [sp], {-0}
    1e1c:	03000008 	movweq	r0, #8
    1e20:	1e7ed891 	mrcne	8, 3, sp, cr14, cr1, {4}
    1e24:	000008f8 	strdeq	r0, [r0], -r8
    1e28:	000011f4 	strdeq	r1, [r0], -r4
    1e2c:	000011ea 	andeq	r1, r0, sl, ror #3
    1e30:	0009021e 	andeq	r0, r9, lr, lsl r2
    1e34:	00123900 	andseq	r3, r2, r0, lsl #18
    1e38:	00123500 	andseq	r3, r2, r0, lsl #10
    1e3c:	09a31a00 	stmibeq	r3!, {r9, fp, ip}
    1e40:	8f300000 	svchi	0x00300000
    1e44:	00030000 	andeq	r0, r3, r0
    1e48:	00000188 	andeq	r0, r0, r8, lsl #3
    1e4c:	20097c01 	andcs	r7, r9, r1, lsl #24
    1e50:	1b000007 	blne	1e74 <__code_start__-0x618c>
    1e54:	000009ca 	andeq	r0, r0, sl, asr #19
    1e58:	0000125b 	andeq	r1, r0, fp, asr r2
    1e5c:	00001257 	andeq	r1, r0, r7, asr r2
    1e60:	0009be1b 	andeq	fp, r9, fp, lsl lr
    1e64:	00127d00 	andseq	r7, r2, r0, lsl #26
    1e68:	00127900 	andseq	r7, r2, r0, lsl #18
    1e6c:	09b41b00 	ldmibeq	r4!, {r8, r9, fp, ip}
    1e70:	12a70000 	adcne	r0, r7, #0, 0
    1e74:	129b0000 	addsne	r0, fp, #0, 0
    1e78:	88130000 	ldmdahi	r3, {}	; <UNPREDICTABLE>
    1e7c:	1e000001 	cdpne	0, 0, cr0, cr0, cr1, {0}
    1e80:	000009d6 	ldrdeq	r0, [r0], -r6
    1e84:	00001303 	andeq	r1, r0, r3, lsl #6
    1e88:	000012f7 	strdeq	r1, [r0], -r7
    1e8c:	4f200000 	svcmi	0x00200000
    1e90:	b8000009 	stmdalt	r0, {r0, r3}
    1e94:	0200008f 	andeq	r0, r0, #143, 0	; 0x8f
    1e98:	0001b000 	andeq	fp, r1, r0
    1e9c:	097c0100 	ldmdbeq	ip!, {r8}^
    1ea0:	0009801b 	andeq	r8, r9, fp, lsl r0
    1ea4:	00135300 	andseq	r5, r3, r0, lsl #6
    1ea8:	00134f00 	andseq	r4, r3, r0, lsl #30
    1eac:	09761b00 	ldmdbeq	r6!, {r8, r9, fp, ip}^
    1eb0:	137b0000 	cmnne	fp, #0, 0
    1eb4:	13710000 	cmnne	r1, #0, 0
    1eb8:	6c1b0000 	ldcvs	0, cr0, [fp], {-0}
    1ebc:	c7000009 	strgt	r0, [r0, -r9]
    1ec0:	c3000013 	movwgt	r0, #19
    1ec4:	1b000013 	blne	1f18 <__code_start__-0x60e8>
    1ec8:	00000960 	andeq	r0, r0, r0, ror #18
    1ecc:	000013f5 	strdeq	r1, [r0], -r5
    1ed0:	000013e9 	andeq	r1, r0, r9, ror #7
    1ed4:	0001b013 	andeq	fp, r1, r3, lsl r0
    1ed8:	098c1e00 	stmibeq	ip, {r9, sl, fp, ip}
    1edc:	144f0000 	strbne	r0, [pc], #-0	; 1ee4 <__code_start__-0x611c>
    1ee0:	144b0000 	strbne	r0, [fp], #-0
    1ee4:	981e0000 	ldmdals	lr, {}	; <UNPREDICTABLE>
    1ee8:	75000009 	strvc	r0, [r0, #-9]
    1eec:	71000014 	tstvc	r0, r4, lsl r0
    1ef0:	00000014 	andeq	r0, r0, r4, lsl r0
    1ef4:	17000000 	strne	r0, [r0, -r0]
    1ef8:	00008ce4 	andeq	r8, r0, r4, ror #25
    1efc:	00000aa4 	andeq	r0, r0, r4, lsr #21
    1f00:	000007af 	andeq	r0, r0, pc, lsr #15
    1f04:	01500118 	cmpeq	r0, r8, lsl r1
    1f08:	51011840 	tstpl	r1, r0, asr #16
    1f0c:	7dd09103 	ldfvcp	f1, [r0, #12]
    1f10:	02530118 	subseq	r0, r3, #6
    1f14:	02180075 	andseq	r0, r8, #117, 0	; 0x75
    1f18:	3001007d 	andcc	r0, r1, sp, ror r0
    1f1c:	8df41700 	ldclhi	7, cr1, [r4]
    1f20:	0aa40000 	beq	fe901f28 <__bss_end__+0xfe8f7858>
    1f24:	07cf0000 	strbeq	r0, [pc, r0]
    1f28:	01180000 	tsteq	r8, r0
    1f2c:	183a0150 	ldmdane	sl!, {r4, r6, r8}
    1f30:	91035101 	tstls	r3, r1, lsl #2
    1f34:	01187dd0 			; <UNDEFINED> instruction: 0x01187dd0
    1f38:	00750253 	rsbseq	r0, r5, r3, asr r2
    1f3c:	90d81700 	sbcsls	r1, r8, r0, lsl #14
    1f40:	0c460000 	mareq	acc0, r0, r6
    1f44:	07e60000 	strbeq	r0, [r6, r0]!
    1f48:	01180000 	tsteq	r8, r0
    1f4c:	14030550 	strne	r0, [r3], #-1360	; 0xfffffab0
    1f50:	000000a0 	andeq	r0, r0, r0, lsr #1
    1f54:	0090e821 	addseq	lr, r0, r1, lsr #16
    1f58:	0007f800 	andeq	pc, r7, r0, lsl #16
    1f5c:	50011800 	andpl	r1, r1, r0, lsl #16
    1f60:	7dc89104 	stfvcp	f1, [r8, #16]
    1f64:	fc170006 	ldc2	0, cr0, [r7], {6}
    1f68:	46000090 			; <UNDEFINED> instruction: 0x46000090
    1f6c:	2700000c 	strcs	r0, [r0, -ip]
    1f70:	18000008 	stmdane	r0, {r3}
    1f74:	03055001 	movweq	r5, #20481	; 0x5001
    1f78:	0000a044 	andeq	sl, r0, r4, asr #32
    1f7c:	05510118 	ldrbeq	r0, [r1, #-280]	; 0xfffffee8
    1f80:	009f2403 	addseq	r2, pc, r3, lsl #8
    1f84:	52011800 	andpl	r1, r1, #0, 16
    1f88:	a07c0305 	rsbsge	r0, ip, r5, lsl #6
    1f8c:	01180000 	tsteq	r8, r0
    1f90:	e2080253 	and	r0, r8, #805306373	; 0x30000005
    1f94:	91001900 	tstls	r0, r0, lsl #18
    1f98:	0c760000 	ldcleq	0, cr0, [r6], #-0
    1f9c:	14170000 	ldrne	r0, [r7], #-0
    1fa0:	46000091 			; <UNDEFINED> instruction: 0x46000091
    1fa4:	5f00000c 	svcpl	0x0000000c
    1fa8:	18000008 	stmdane	r0, {r3}
    1fac:	03055001 	movweq	r5, #20481	; 0x5001
    1fb0:	00009fec 	andeq	r9, r0, ip, ror #31
    1fb4:	05510118 	ldrbeq	r0, [r1, #-280]	; 0xfffffee8
    1fb8:	009f2403 	addseq	r2, pc, r3, lsl #8
    1fbc:	52011800 	andpl	r1, r1, #0, 16
    1fc0:	a07c0305 	rsbsge	r0, ip, r5, lsl #6
    1fc4:	01180000 	tsteq	r8, r0
    1fc8:	be080253 	mcrlt	2, 0, r0, cr8, cr3, {2}
    1fcc:	91181900 	tstls	r8, r0, lsl #18
    1fd0:	0c760000 	ldcleq	0, cr0, [r6], #-0
    1fd4:	00000000 	andeq	r0, r0, r0
    1fd8:	00b90408 	adcseq	r0, r9, r8, lsl #8
    1fdc:	c0220000 	eorgt	r0, r2, r0
    1fe0:	80000000 	andhi	r0, r0, r0
    1fe4:	23000008 	movwcs	r0, #8
    1fe8:	0000002c 	andeq	r0, r0, ip, lsr #32
    1fec:	70090009 	andvc	r0, r9, r9
    1ff0:	22000008 	andcs	r0, r0, #8, 0
    1ff4:	000000b9 	strheq	r0, [r0], -r9
    1ff8:	00000895 	muleq	r0, r5, r8
    1ffc:	00002c23 	andeq	r2, r0, r3, lsr #24
    2000:	24007f00 	strcs	r7, [r0], #-3840	; 0xfffff100
    2004:	00000617 	andeq	r0, r0, r7, lsl r6
    2008:	6a014901 	bvs	54414 <__bss_end__+0x49d44>
    200c:	01000008 	tsteq	r0, r8
    2010:	0000092a 	andeq	r0, r0, sl, lsr #18
    2014:	00032025 	andeq	r2, r3, r5, lsr #32
    2018:	0f490100 	svceq	0x00490100
    201c:	0000002c 	andeq	r0, r0, ip, lsr #32
    2020:	74736426 	ldrbtvc	r6, [r3], #-1062	; 0xfffffbda
    2024:	1b490100 	blne	124242c <__bss_end__+0x1237d5c>
    2028:	0000086a 	andeq	r0, r0, sl, ror #16
    202c:	01006e26 	tsteq	r0, r6, lsr #28
    2030:	00332449 	eorseq	r2, r3, r9, asr #8
    2034:	76260000 	strtvc	r0, [r6], -r0
    2038:	01006c61 	tsteq	r0, r1, ror #24
    203c:	00332b49 	eorseq	r2, r3, r9, asr #22
    2040:	c0250000 	eorgt	r0, r5, r0
    2044:	01000005 	tsteq	r0, r5
    2048:	00333449 	eorseq	r3, r3, r9, asr #8
    204c:	4d250000 	stcmi	0, cr0, [r5, #-0]
    2050:	01000006 	tsteq	r0, r6
    2054:	00333f49 	eorseq	r3, r3, r9, asr #30
    2058:	62270000 	eorvs	r0, r7, #0, 0
    205c:	01006675 	tsteq	r0, r5, ror r6
    2060:	092a074e 	stmdbeq	sl!, {r1, r2, r3, r6, r8, r9, sl}
    2064:	70270000 	eorvc	r0, r7, r0
    2068:	114e0100 	mrsne	r0, (UNDEF: 94)
    206c:	0000086a 	andeq	r0, r0, sl, ror #16
    2070:	01007527 	tsteq	r0, r7, lsr #10
    2074:	002c0b4f 	eoreq	r0, ip, pc, asr #22
    2078:	62120000 	andsvs	r0, r2, #0, 0
    207c:	4a000000 	bmi	2084 <__code_start__-0x5f7c>
    2080:	05000009 	streq	r0, [r0, #-9]
    2084:	00a06403 	adceq	r6, r0, r3, lsl #8
    2088:	04292800 	strteq	r2, [r9], #-2048	; 0xfffff800
    208c:	01000006 	tsteq	r0, r6
    2090:	002c0d54 	eoreq	r0, ip, r4, asr sp
    2094:	00000000 	andeq	r0, r0, r0
    2098:	0000b922 	andeq	fp, r0, r2, lsr #18
    209c:	00093a00 	andeq	r3, r9, r0, lsl #20
    20a0:	002c2300 	eoreq	r2, ip, r0, lsl #6
    20a4:	003f0000 	eorseq	r0, pc, r0
    20a8:	0000c022 	andeq	ip, r0, r2, lsr #32
    20ac:	00094a00 	andeq	r4, r9, r0, lsl #20
    20b0:	002c2300 	eoreq	r2, ip, r0, lsl #6
    20b4:	00040000 	andeq	r0, r4, r0
    20b8:	00093a09 	andeq	r3, r9, r9, lsl #20
    20bc:	061c2400 	ldreq	r2, [ip], -r0, lsl #8
    20c0:	38010000 	stmdacc	r1, {}	; <UNPREDICTABLE>
    20c4:	00086a0e 	andeq	r6, r8, lr, lsl #20
    20c8:	09a30100 	stmibeq	r3!, {r8}
    20cc:	64260000 	strtvs	r0, [r6], #-0
    20d0:	01007473 	tsteq	r0, r3, ror r4
    20d4:	086a1c38 	stmdaeq	sl!, {r3, r4, r5, sl, fp, ip}^
    20d8:	6e260000 	cdpvs	0, 2, cr0, cr6, cr0, {0}
    20dc:	25380100 	ldrcs	r0, [r8, #-256]!	; 0xffffff00
    20e0:	00000033 	andeq	r0, r0, r3, lsr r0
    20e4:	01007026 	tsteq	r0, r6, lsr #32
    20e8:	086a2e38 	stmdaeq	sl!, {r3, r4, r5, r9, sl, fp, sp}^
    20ec:	e7250000 	str	r0, [r5, -r0]!
    20f0:	01000009 	tsteq	r0, r9
    20f4:	086a3738 	stmdaeq	sl!, {r3, r4, r5, r8, r9, sl, ip, sp}^
    20f8:	6c270000 	stcvs	0, cr0, [r7], #-0
    20fc:	01006e65 	tsteq	r0, r5, ror #28
    2100:	0033063a 	eorseq	r0, r3, sl, lsr r6
    2104:	73270000 			; <UNDEFINED> instruction: 0x73270000
    2108:	083e0100 	ldmdaeq	lr!, {r8}
    210c:	0000086a 	andeq	r0, r0, sl, ror #16
    2110:	61702a00 	cmnvs	r0, r0, lsl #20
    2114:	2e010064 	cdpcs	0, 0, cr0, cr1, cr4, {3}
    2118:	00086a0e 	andeq	r6, r8, lr, lsl #20
    211c:	09e30100 	stmibeq	r3!, {r8}^
    2120:	70260000 	eorvc	r0, r6, r0
    2124:	182e0100 	stmdane	lr!, {r8}
    2128:	0000086a 	andeq	r0, r0, sl, ror #16
    212c:	00032025 	andeq	r2, r3, r5, lsr #32
    2130:	222e0100 	eorcs	r0, lr, #0
    2134:	0000086a 	andeq	r0, r0, sl, ror #16
    2138:	0005c025 	andeq	ip, r5, r5, lsr #32
    213c:	2c2e0100 	stfcss	f0, [lr], #-0
    2140:	00000033 	andeq	r0, r0, r3, lsr r0
    2144:	6e656c27 	cdpvs	12, 6, cr6, cr5, cr7, {1}
    2148:	062f0100 	strteq	r0, [pc], -r0, lsl #2
    214c:	00000033 	andeq	r0, r0, r3, lsr r0
    2150:	058d2400 	streq	r2, [sp, #1024]	; 0x400
    2154:	27010000 	strcs	r0, [r1, -r0]
    2158:	0000330c 	andeq	r3, r0, ip, lsl #6
    215c:	09ff0100 	ldmibeq	pc!, {r8}^	; <UNPREDICTABLE>
    2160:	63260000 			; <UNDEFINED> instruction: 0x63260000
    2164:	18270100 	stmdane	r7!, {r8}
    2168:	00000033 	andeq	r0, r0, r3, lsr r0
    216c:	05dd2b00 	ldrbeq	r2, [sp, #2816]	; 0xb00
    2170:	1f010000 	svcne	0x00010000
    2174:	008b3006 	addeq	r3, fp, r6
    2178:	00006000 	andeq	r6, r0, r0
    217c:	8f9c0100 	svchi	0x009c0100
    2180:	0f00000a 	svceq	0x0000000a
    2184:	000005c6 	andeq	r0, r0, r6, asr #11
    2188:	9e1b1f01 	cdpls	15, 1, cr1, cr11, cr1, {0}
    218c:	9a000000 	bls	2194 <__code_start__-0x5e6c>
    2190:	96000014 			; <UNDEFINED> instruction: 0x96000014
    2194:	0f000014 	svceq	0x00000014
    2198:	0000062b 	andeq	r0, r0, fp, lsr #12
    219c:	d1301f01 	teqle	r0, r1, lsl #30
    21a0:	bf000000 	svclt	0x00000000
    21a4:	bb000014 	bllt	21fc <__code_start__-0x5e04>
    21a8:	12000014 	andne	r0, r0, #20, 0
    21ac:	00000062 	andeq	r0, r0, r2, rrx
    21b0:	00000a9f 	muleq	r0, pc, sl	; <UNPREDICTABLE>
    21b4:	a06c0305 	rsbge	r0, ip, r5, lsl #6
    21b8:	74170000 	ldrvc	r0, [r7], #-0
    21bc:	4600008b 	strmi	r0, [r0], -fp, lsl #1
    21c0:	8500000c 	strhi	r0, [r0, #-12]
    21c4:	1800000a 	stmdane	r0, {r1, r3}
    21c8:	03055001 	movweq	r5, #20481	; 0x5001
    21cc:	00009d80 	andeq	r9, r0, r0, lsl #27
    21d0:	05510118 	ldrbeq	r0, [r1, #-280]	; 0xfffffee8
    21d4:	009f2403 	addseq	r2, pc, r3, lsl #8
    21d8:	52011800 	andpl	r1, r1, #0, 16
    21dc:	a06c0305 	rsbge	r0, ip, r5, lsl #6
    21e0:	01180000 	tsteq	r8, r0
    21e4:	20080253 	andcs	r0, r8, r3, asr r2
    21e8:	007d0218 	rsbseq	r0, sp, r8, lsl r2
    21ec:	9f5c0305 	svcls	0x005c0305
    21f0:	19000000 	stmdbne	r0, {}	; <UNPREDICTABLE>
    21f4:	00008b78 	andeq	r8, r0, r8, ror fp
    21f8:	00000c76 	andeq	r0, r0, r6, ror ip
    21fc:	00c02200 	sbceq	r2, r0, r0, lsl #4
    2200:	0a9f0000 	beq	fe7c2208 <__bss_end__+0xfe7b7b38>
    2204:	2c230000 	stccs	0, cr0, [r3], #-0
    2208:	0e000000 	cdpeq	0, 0, cr0, cr0, cr0, {0}
    220c:	0a8f0900 	beq	fe3c4614 <__bss_end__+0xfe3b9f44>
    2210:	952c0000 	strls	r0, [ip, #-0]!
    2214:	08000008 	stmdaeq	r0, {r3}
    2218:	28000088 	stmdacs	r0, {r3, r7}
    221c:	01000003 	tsteq	r0, r3
    2220:	000c3a9c 	muleq	ip, ip, sl
    2224:	08a61b00 	stmiaeq	r6!, {r8, r9, fp, ip}
    2228:	14f80000 	ldrbtne	r0, [r8], #0
    222c:	14e00000 	strbtne	r0, [r0], #0
    2230:	b21b0000 	andslt	r0, fp, #0, 0
    2234:	a2000008 	andge	r0, r0, #8, 0
    2238:	9a000015 	bls	2294 <__code_start__-0x5d6c>
    223c:	1b000015 	blne	2298 <__code_start__-0x5d68>
    2240:	000008c8 	andeq	r0, r0, r8, asr #17
    2244:	000015f9 	strdeq	r1, [r0], -r9
    2248:	000015d9 	ldrdeq	r1, [r0], -r9
    224c:	0008d41b 	andeq	sp, r8, fp, lsl r4
    2250:	0016cf00 	andseq	ip, r6, r0, lsl #30
    2254:	0016c100 	andseq	ip, r6, r0, lsl #2
    2258:	08e02d00 	stmiaeq	r0!, {r8, sl, fp, sp}^
    225c:	91020000 	mrsls	r0, (UNDEF: 2)
    2260:	08ec1d00 	stmiaeq	ip!, {r8, sl, fp, ip}^
    2264:	91030000 	mrsls	r0, (UNDEF: 3)
    2268:	f81e7fa8 			; <UNDEFINED> instruction: 0xf81e7fa8
    226c:	63000008 	movwvs	r0, #8
    2270:	2f000017 	svccs	0x00000017
    2274:	1e000017 	mcrne	0, 0, r0, cr0, cr7, {0}
    2278:	00000902 	andeq	r0, r0, r2, lsl #18
    227c:	000018ca 	andeq	r1, r0, sl, asr #17
    2280:	000018a8 	andeq	r1, r0, r8, lsr #17
    2284:	0008be2e 	andeq	fp, r8, lr, lsr #28
    2288:	a31a8000 	tstge	sl, #0, 0
    228c:	ac000009 	stcge	0, cr0, [r0], {9}
    2290:	04000088 	streq	r0, [r0], #-136	; 0xffffff78
    2294:	00000000 	andeq	r0, r0, r0
    2298:	097c0100 	ldmdbeq	ip!, {r8}^
    229c:	00000b6d 	andeq	r0, r0, sp, ror #22
    22a0:	0009ca1b 	andeq	ip, r9, fp, lsl sl
    22a4:	0019b200 	andseq	fp, r9, r0, lsl #4
    22a8:	0019a800 	andseq	sl, r9, r0, lsl #16
    22ac:	09be1b00 	ldmibeq	lr!, {r8, r9, fp, ip}
    22b0:	1a060000 	bne	1822b8 <__bss_end__+0x177be8>
    22b4:	19f60000 	ldmibne	r6!, {}^	; <UNPREDICTABLE>
    22b8:	b41b0000 	ldrlt	r0, [fp], #-0
    22bc:	86000009 	strhi	r0, [r0], -r9
    22c0:	7200001a 	andvc	r0, r0, #26, 0
    22c4:	1300001a 	movwne	r0, #26
    22c8:	00000000 	andeq	r0, r0, r0
    22cc:	0009d61e 	andeq	sp, r9, lr, lsl r6
    22d0:	001b1800 	andseq	r1, fp, r0, lsl #16
    22d4:	001b0800 	andseq	r0, fp, r0, lsl #16
    22d8:	1a000000 	bne	22e0 <__code_start__-0x5d20>
    22dc:	0000094f 	andeq	r0, r0, pc, asr #18
    22e0:	00008964 	andeq	r8, r0, r4, ror #18
    22e4:	00480002 	subeq	r0, r8, r2
    22e8:	7c010000 	stcvc	0, cr0, [r1], {-0}
    22ec:	000bd809 	andeq	sp, fp, r9, lsl #16
    22f0:	09801b00 	stmibeq	r0, {r8, r9, fp, ip}
    22f4:	1b840000 	blne	fe1022fc <__bss_end__+0xfe0f7c2c>
    22f8:	1b7c0000 	blne	1f02300 <__bss_end__+0x1ef7c30>
    22fc:	761b0000 	ldrvc	r0, [fp], -r0
    2300:	c3000009 	movwgt	r0, #9
    2304:	bb00001b 	bllt	2378 <__code_start__-0x5c88>
    2308:	1b00001b 	blne	237c <__code_start__-0x5c84>
    230c:	0000096c 	andeq	r0, r0, ip, ror #18
    2310:	00001c02 	andeq	r1, r0, r2, lsl #24
    2314:	00001bfe 	strdeq	r1, [r0], -lr
    2318:	0009601b 	andeq	r6, r9, fp, lsl r0
    231c:	001c3200 	andseq	r3, ip, r0, lsl #4
    2320:	001c2400 	andseq	r2, ip, r0, lsl #8
    2324:	00481300 	subeq	r1, r8, r0, lsl #6
    2328:	8c1e0000 	ldchi	0, cr0, [lr], {-0}
    232c:	97000009 	strls	r0, [r0, -r9]
    2330:	9100001c 	tstls	r0, ip, lsl r0
    2334:	1e00001c 	mcrne	0, 0, r0, cr0, cr12, {0}
    2338:	00000998 	muleq	r0, r8, r9
    233c:	00001cc9 	andeq	r1, r0, r9, asr #25
    2340:	00001cc5 	andeq	r1, r0, r5, asr #25
    2344:	1b2f0000 	blne	bc234c <__bss_end__+0xbb7c7c>
    2348:	1c000009 	stcne	0, cr0, [r0], {9}
    234c:	6000008a 	andvs	r0, r0, sl, lsl #1
    2350:	f7000000 			; <UNDEFINED> instruction: 0xf7000000
    2354:	1e00000b 	cdpne	0, 0, cr0, cr0, cr11, {0}
    2358:	0000091c 	andeq	r0, r0, ip, lsl r9
    235c:	00001ceb 	andeq	r1, r0, fp, ror #25
    2360:	00001ce7 	andeq	r1, r0, r7, ror #25
    2364:	8af01700 	bhi	ffc07f6c <__bss_end__+0xffbfd89c>
    2368:	0c460000 	mareq	acc0, r0, r6
    236c:	0c300000 	ldceq	0, cr0, [r0], #-0
    2370:	01180000 	tsteq	r8, r0
    2374:	80030550 	andhi	r0, r3, r0, asr r5
    2378:	1800009d 	stmdane	r0, {r0, r2, r3, r4, r7}
    237c:	03055101 	movweq	r5, #20737	; 0x5101
    2380:	00009f24 	andeq	r9, r0, r4, lsr #30
    2384:	05520118 	ldrbeq	r0, [r2, #-280]	; 0xfffffee8
    2388:	00a06403 	adceq	r6, r0, r3, lsl #8
    238c:	53011800 	movwpl	r1, #6144	; 0x1800
    2390:	18790802 	ldmdane	r9!, {r1, fp}^
    2394:	05007d02 	streq	r7, [r0, #-3330]	; 0xfffff2fe
    2398:	009eac03 	addseq	sl, lr, r3, lsl #24
    239c:	f4190000 			; <UNDEFINED> instruction: 0xf4190000
    23a0:	7600008a 	strvc	r0, [r0], -sl, lsl #1
    23a4:	0000000c 	andeq	r0, r0, ip
    23a8:	00064530 	andeq	r4, r6, r0, lsr r5
    23ac:	00064500 	andeq	r4, r6, r0, lsl #10
    23b0:	05eb0300 	strbeq	r0, [fp, #768]!	; 0x300
    23b4:	00053c30 	andeq	r3, r5, r0, lsr ip
    23b8:	00053c00 	andeq	r3, r5, r0, lsl #24
    23bc:	06280300 	strteq	r0, [r8], -r0, lsl #6
    23c0:	0005f630 	andeq	pc, r5, r0, lsr r6	; <UNPREDICTABLE>
    23c4:	0005f600 	andeq	pc, r5, r0, lsl #12
    23c8:	07ee0300 	strbeq	r0, [lr, r0, lsl #6]!
    23cc:	00062430 	andeq	r2, r6, r0, lsr r4
    23d0:	00062400 	andeq	r2, r6, r0, lsl #8
    23d4:	05ea0300 	strbeq	r0, [sl, #768]!	; 0x300
    23d8:	0005fd30 	andeq	pc, r5, r0, lsr sp	; <UNPREDICTABLE>
    23dc:	0005fd00 	andeq	pc, r5, r0, lsl #26
    23e0:	07ed0300 	strbeq	r0, [sp, r0, lsl #6]!
    23e4:	00024e30 	andeq	r4, r2, r0, lsr lr
    23e8:	00024e00 	andeq	r4, r2, r0, lsl #28
    23ec:	066e0300 	strbteq	r0, [lr], -r0, lsl #6
    23f0:	00012f00 	andeq	r2, r1, r0, lsl #30
    23f4:	13000400 	movwne	r0, #1024	; 0x400
    23f8:	0400000d 	streq	r0, [r0], #-13
    23fc:	00045a01 	andeq	r5, r4, r1, lsl #20
    2400:	066a0c00 	strbteq	r0, [sl], -r0, lsl #24
    2404:	05120000 	ldreq	r0, [r2, #-0]
    2408:	91bc0000 			; <UNDEFINED> instruction: 0x91bc0000
    240c:	002c0000 	eoreq	r0, ip, r0
    2410:	14740000 	ldrbtne	r0, [r4], #-0
    2414:	04020000 	streq	r0, [r2], #-0
    2418:	746e6905 	strbtvc	r6, [lr], #-2309	; 0xfffff6fb
    241c:	07040300 	streq	r0, [r4, -r0, lsl #6]
    2420:	0000007e 	andeq	r0, r0, lr, ror r0
    2424:	2c060103 	stfcss	f0, [r6], {3}
    2428:	03000000 	movweq	r0, #0
    242c:	00d40502 	sbcseq	r0, r4, r2, lsl #10
    2430:	04030000 	streq	r0, [r3], #-0
    2434:	00009905 	andeq	r9, r0, r5, lsl #18
    2438:	05080300 	streq	r0, [r8, #-768]	; 0xfffffd00
    243c:	00000094 	muleq	r0, r4, r0
    2440:	2a080103 	bcs	202854 <__bss_end__+0x1f8184>
    2444:	03000000 	movweq	r0, #0
    2448:	00380702 	eorseq	r0, r8, r2, lsl #14
    244c:	04030000 	streq	r0, [r3], #-0
    2450:	00007907 	andeq	r7, r0, r7, lsl #18
    2454:	07080300 	streq	r0, [r8, -r0, lsl #6]
    2458:	00000074 	andeq	r0, r0, r4, ror r0
    245c:	00002504 	andeq	r2, r0, r4, lsl #10
    2460:	00007a00 	andeq	r7, r0, r0, lsl #20
    2464:	00250500 	eoreq	r0, r5, r0, lsl #10
    2468:	06000000 	streq	r0, [r0], -r0
    246c:	000000f1 	strdeq	r0, [r0], -r1
    2470:	860e1c02 	strhi	r1, [lr], -r2, lsl #24
    2474:	07000000 	streq	r0, [r0, -r0]
    2478:	00006b04 	andeq	r6, r0, r4, lsl #22
    247c:	00250400 	eoreq	r0, r5, r0, lsl #8
    2480:	009b0000 	addseq	r0, fp, r0
    2484:	9b050000 	blls	14248c <__bss_end__+0x137dbc>
    2488:	00000000 	andeq	r0, r0, r0
    248c:	00a80407 	adceq	r0, r8, r7, lsl #8
    2490:	01030000 	mrseq	r0, (UNDEF: 3)
    2494:	00003308 	andeq	r3, r0, r8, lsl #6
    2498:	00a10800 	adceq	r0, r1, r0, lsl #16
    249c:	7a060000 	bvc	1824a4 <__bss_end__+0x177dd4>
    24a0:	02000005 	andeq	r0, r0, #5, 0
    24a4:	00b90e21 	adcseq	r0, r9, r1, lsr #28
    24a8:	04070000 	streq	r0, [r7], #-0
    24ac:	0000008c 	andeq	r0, r0, ip, lsl #1
    24b0:	00024e09 	andeq	r4, r2, r9, lsl #28
    24b4:	06040100 	streq	r0, [r4], -r0, lsl #2
    24b8:	000091bc 			; <UNDEFINED> instruction: 0x000091bc
    24bc:	0000002c 	andeq	r0, r0, ip, lsr #32
    24c0:	010e9c01 	tsteq	lr, r1, lsl #24
    24c4:	d00a0000 	andle	r0, sl, r0
    24c8:	e8000091 	stmda	r0, {r0, r4, r7}
    24cc:	0b000000 	bleq	24d4 <__code_start__-0x5b2c>
    24d0:	03055001 	movweq	r5, #20481	; 0x5001
    24d4:	0000a088 	andeq	sl, r0, r8, lsl #1
    24d8:	91d40c00 	bicsls	r0, r4, r0, lsl #24
    24dc:	010e0000 	mrseq	r0, (UNDEF: 14)
    24e0:	dc0d0000 	stcle	0, cr0, [sp], {-0}
    24e4:	1a000091 	bne	2730 <__code_start__-0x58d0>
    24e8:	04000001 	streq	r0, [r0], #-1
    24ec:	0b000001 	bleq	24f8 <__code_start__-0x5b08>
    24f0:	3a015001 	bcc	564fc <__bss_end__+0x4be2c>
    24f4:	91e00c00 	mvnls	r0, r0, lsl #24
    24f8:	01260000 			; <UNDEFINED> instruction: 0x01260000
    24fc:	0e000000 	cdpeq	0, 0, cr0, cr0, cr0, {0}
    2500:	00000685 	andeq	r0, r0, r5, lsl #13
    2504:	00000685 	andeq	r0, r0, r5, lsl #13
    2508:	0e064d02 	cdpeq	13, 0, cr4, cr6, cr2, {0}
    250c:	00000661 	andeq	r0, r0, r1, ror #12
    2510:	00000661 	andeq	r0, r0, r1, ror #12
    2514:	0e065802 	cdpeq	8, 0, cr5, cr6, cr2, {0}
    2518:	00000656 	andeq	r0, r0, r6, asr r6
    251c:	00000656 	andeq	r0, r0, r6, asr r6
    2520:	00066b02 	andeq	r6, r6, r2, lsl #22
    2524:	00000190 	muleq	r0, r0, r1
    2528:	0dd30004 	ldcleq	0, cr0, [r3, #16]
    252c:	01040000 	mrseq	r0, (UNDEF: 4)
    2530:	0000045a 	andeq	r0, r0, sl, asr r4
    2534:	0006bb0c 	andeq	fp, r6, ip, lsl #22
    2538:	00051200 	andeq	r1, r5, r0, lsl #4
    253c:	0091e800 	addseq	lr, r1, r0, lsl #16
    2540:	0000f800 	andeq	pc, r0, r0, lsl #16
    2544:	0014ff00 	andseq	pc, r4, r0, lsl #30
    2548:	05040200 	streq	r0, [r4, #-512]	; 0xfffffe00
    254c:	00746e69 	rsbseq	r6, r4, r9, ror #28
    2550:	7e070403 	cdpvc	4, 0, cr0, cr7, cr3, {0}
    2554:	03000000 	movweq	r0, #0
    2558:	002c0601 	eoreq	r0, ip, r1, lsl #12
    255c:	02030000 	andeq	r0, r3, #0, 0
    2560:	0000d405 	andeq	sp, r0, r5, lsl #8
    2564:	05040300 	streq	r0, [r4, #-768]	; 0xfffffd00
    2568:	00000099 	muleq	r0, r9, r0
    256c:	94050803 	strls	r0, [r5], #-2051	; 0xfffff7fd
    2570:	03000000 	movweq	r0, #0
    2574:	002a0801 	eoreq	r0, sl, r1, lsl #16
    2578:	02030000 	andeq	r0, r3, #0, 0
    257c:	00003807 	andeq	r3, r0, r7, lsl #16
    2580:	07040300 	streq	r0, [r4, -r0, lsl #6]
    2584:	00000079 	andeq	r0, r0, r9, ror r0
    2588:	74070803 	strvc	r0, [r7], #-2051	; 0xfffff7fd
    258c:	04000000 	streq	r0, [r0], #-0
    2590:	00000025 	andeq	r0, r0, r5, lsr #32
    2594:	0000007a 	andeq	r0, r0, sl, ror r0
    2598:	00002505 	andeq	r2, r0, r5, lsl #10
    259c:	f1060000 	cps	#0
    25a0:	02000000 	andeq	r0, r0, #0, 0
    25a4:	00860e1c 	addeq	r0, r6, ip, lsl lr
    25a8:	04070000 	streq	r0, [r7], #-0
    25ac:	0000006b 	andeq	r0, r0, fp, rrx
    25b0:	00002504 	andeq	r2, r0, r4, lsl #10
    25b4:	00009b00 	andeq	r9, r0, r0, lsl #22
    25b8:	009b0500 	addseq	r0, fp, r0, lsl #10
    25bc:	07000000 	streq	r0, [r0, -r0]
    25c0:	0000a804 	andeq	sl, r0, r4, lsl #16
    25c4:	08010300 	stmdaeq	r1, {r8, r9}
    25c8:	00000033 	andeq	r0, r0, r3, lsr r0
    25cc:	0000a108 	andeq	sl, r0, r8, lsl #2
    25d0:	057a0600 	ldrbeq	r0, [sl, #-1536]!	; 0xfffffa00
    25d4:	21020000 	mrscs	r0, (UNDEF: 2)
    25d8:	0000b90e 	andeq	fp, r0, lr, lsl #18
    25dc:	8c040700 	stchi	7, cr0, [r4], {-0}
    25e0:	09000000 	stmdbeq	r0, {}	; <UNPREDICTABLE>
    25e4:	00000693 	muleq	r0, r3, r6
    25e8:	e8060401 	stmda	r6, {r0, sl}
    25ec:	f8000091 			; <UNDEFINED> instruction: 0xf8000091
    25f0:	01000000 	mrseq	r0, (UNDEF: 0)
    25f4:	00015b9c 	muleq	r1, ip, fp
    25f8:	03610600 	cmneq	r1, #0, 12
    25fc:	05010000 	streq	r0, [r1, #-0]
    2600:	00002510 	andeq	r2, r0, r0, lsl r5
    2604:	03ee0600 	mvneq	r0, #0, 12
    2608:	05010000 	streq	r0, [r1, #-0]
    260c:	0000251f 	andeq	r2, r0, pc, lsl r5
    2610:	000f0a00 	andeq	r0, pc, r0, lsl #20
    2614:	06010000 	streq	r0, [r1], -r0
    2618:	73620b07 	cmnvc	r2, #7168	; 0x1c00
    261c:	0a010073 	beq	427f0 <__bss_end__+0x38120>
    2620:	00015b0a 	andeq	r5, r1, sl, lsl #22
    2624:	001d2300 	andseq	r2, sp, r0, lsl #6
    2628:	001d0b00 	andseq	r0, sp, r0, lsl #22
    262c:	069b0c00 	ldreq	r0, [fp], r0, lsl #24
    2630:	0b010000 	bleq	42638 <__bss_end__+0x37f68>
    2634:	00015b0a 	andeq	r5, r1, sl, lsl #22
    2638:	92c00d00 	sbcls	r0, r0, #0, 26
    263c:	00080000 	andeq	r0, r8, r0
    2640:	01360000 	teqeq	r6, r0
    2644:	690b0000 	stmdbvs	fp, {}	; <UNPREDICTABLE>
    2648:	1401006e 	strne	r0, [r1], #-110	; 0xffffff92
    264c:	00002c05 	andeq	r2, r0, r5, lsl #24
    2650:	001dbd00 	andseq	fp, sp, r0, lsl #26
    2654:	001dbb00 	andseq	fp, sp, r0, lsl #22
    2658:	f00e0000 			; <UNDEFINED> instruction: 0xf00e0000
    265c:	61000091 	swpvs	r0, r1, [r0]	; <UNPREDICTABLE>
    2660:	0e000001 	cdpeq	0, 0, cr0, cr0, cr1, {0}
    2664:	000092c0 	andeq	r9, r0, r0, asr #5
    2668:	0000016e 	andeq	r0, r0, lr, ror #2
    266c:	0092cc0e 	addseq	ip, r2, lr, lsl #24
    2670:	00017a00 	andeq	r7, r1, r0, lsl #20
    2674:	92d00e00 	sbcsls	r0, r0, #0, 28
    2678:	01870000 	orreq	r0, r7, r0
    267c:	07000000 	streq	r0, [r0, -r0]
    2680:	00002504 	andeq	r2, r0, r4, lsl #10
    2684:	06ad0f00 	strteq	r0, [sp], r0, lsl #30
    2688:	06ad0000 	strteq	r0, [sp], r0
    268c:	31020000 	mrscc	r0, (UNDEF: 2)
    2690:	a3100601 	tstge	r0, #1048576	; 0x100000
    2694:	a3000006 	movwge	r0, #6
    2698:	02000006 	andeq	r0, r0, #6, 0
    269c:	0f0f063b 	svceq	0x000f063b
    26a0:	0f000000 	svceq	0x00000000
    26a4:	02000000 	andeq	r0, r0, #0, 0
    26a8:	10060105 	andne	r0, r6, r5, lsl #2
    26ac:	0000024e 	andeq	r0, r0, lr, asr #4
    26b0:	0000024e 	andeq	r0, r0, lr, asr #4
    26b4:	00066e02 	andeq	r6, r6, r2, lsl #28
    26b8:	000000ce 	andeq	r0, r0, lr, asr #1
    26bc:	0ebe0004 	cdpeq	0, 11, cr0, cr14, cr4, {0}
    26c0:	01040000 	mrseq	r0, (UNDEF: 4)
    26c4:	0000045a 	andeq	r0, r0, sl, asr r4
    26c8:	0006d00c 	andeq	sp, r6, ip
    26cc:	00051200 	andeq	r1, r5, r0, lsl #4
    26d0:	0092e000 	addseq	lr, r2, r0
    26d4:	00000400 	andeq	r0, r0, r0, lsl #8
    26d8:	00161500 	andseq	r1, r6, r0, lsl #10
    26dc:	05040200 	streq	r0, [r4, #-512]	; 0xfffffe00
    26e0:	00746e69 	rsbseq	r6, r4, r9, ror #28
    26e4:	7e070403 	cdpvc	4, 0, cr0, cr7, cr3, {0}
    26e8:	03000000 	movweq	r0, #0
    26ec:	002c0601 	eoreq	r0, ip, r1, lsl #12
    26f0:	02030000 	andeq	r0, r3, #0, 0
    26f4:	0000d405 	andeq	sp, r0, r5, lsl #8
    26f8:	05040300 	streq	r0, [r4, #-768]	; 0xfffffd00
    26fc:	00000099 	muleq	r0, r9, r0
    2700:	94050803 	strls	r0, [r5], #-2051	; 0xfffff7fd
    2704:	03000000 	movweq	r0, #0
    2708:	002a0801 	eoreq	r0, sl, r1, lsl #16
    270c:	02030000 	andeq	r0, r3, #0, 0
    2710:	00003807 	andeq	r3, r0, r7, lsl #16
    2714:	07040300 	streq	r0, [r4, -r0, lsl #6]
    2718:	00000079 	andeq	r0, r0, r9, ror r0
    271c:	74070803 	strvc	r0, [r7], #-2051	; 0xfffff7fd
    2720:	04000000 	streq	r0, [r0], #-0
    2724:	00000025 	andeq	r0, r0, r5, lsr #32
    2728:	0000007a 	andeq	r0, r0, sl, ror r0
    272c:	00002505 	andeq	r2, r0, r5, lsl #10
    2730:	f1060000 	cps	#0
    2734:	02000000 	andeq	r0, r0, #0, 0
    2738:	00860e1c 	addeq	r0, r6, ip, lsl lr
    273c:	04070000 	streq	r0, [r7], #-0
    2740:	0000006b 	andeq	r0, r0, fp, rrx
    2744:	00002504 	andeq	r2, r0, r4, lsl #10
    2748:	00009b00 	andeq	r9, r0, r0, lsl #22
    274c:	009b0500 	addseq	r0, fp, r0, lsl #10
    2750:	07000000 	streq	r0, [r0, -r0]
    2754:	0000a804 	andeq	sl, r0, r4, lsl #16
    2758:	08010300 	stmdaeq	r1, {r8, r9}
    275c:	00000033 	andeq	r0, r0, r3, lsr r0
    2760:	0000a108 	andeq	sl, r0, r8, lsl #2
    2764:	057a0600 	ldrbeq	r0, [sl, #-1536]!	; 0xfffffa00
    2768:	21020000 	mrscs	r0, (UNDEF: 2)
    276c:	0000b90e 	andeq	fp, r0, lr, lsl #18
    2770:	8c040700 	stchi	7, cr0, [r4], {-0}
    2774:	09000000 	stmdbeq	r0, {}	; <UNPREDICTABLE>
    2778:	000006ad 	andeq	r0, r0, sp, lsr #13
    277c:	e0060401 	and	r0, r6, r1, lsl #8
    2780:	04000092 	streq	r0, [r0], #-146	; 0xffffff6e
    2784:	01000000 	mrseq	r0, (UNDEF: 0)
    2788:	027d009c 	rsbseq	r0, sp, #156, 0	; 0x9c
    278c:	00040000 	andeq	r0, r4, r0
    2790:	00000f37 	andeq	r0, r0, r7, lsr pc
    2794:	045a0104 	ldrbeq	r0, [sl], #-260	; 0xfffffefc
    2798:	180c0000 	stmdane	ip, {}	; <UNPREDICTABLE>
    279c:	12000007 	andne	r0, r0, #7, 0
    27a0:	f0000005 			; <UNDEFINED> instruction: 0xf0000005
    27a4:	00000001 	andeq	r0, r0, r1
    27a8:	96000000 	strls	r0, [r0], -r0
    27ac:	02000016 	andeq	r0, r0, #22, 0
    27b0:	6e690504 	cdpvs	5, 6, cr0, cr9, cr4, {0}
    27b4:	25030074 	strcs	r0, [r3, #-116]	; 0xffffff8c
    27b8:	04000000 	streq	r0, [r0], #-0
    27bc:	007e0704 	rsbseq	r0, lr, r4, lsl #14
    27c0:	01040000 	mrseq	r0, (UNDEF: 4)
    27c4:	00002c06 	andeq	r2, r0, r6, lsl #24
    27c8:	05020400 	streq	r0, [r2, #-1024]	; 0xfffffc00
    27cc:	000000d4 	ldrdeq	r0, [r0], -r4
    27d0:	99050404 	stmdbls	r5, {r2, sl}
    27d4:	04000000 	streq	r0, [r0], #-0
    27d8:	00940508 	addseq	r0, r4, r8, lsl #10
    27dc:	01040000 	mrseq	r0, (UNDEF: 4)
    27e0:	00002a08 	andeq	r2, r0, r8, lsl #20
    27e4:	07020400 	streq	r0, [r2, -r0, lsl #8]
    27e8:	00000038 	andeq	r0, r0, r8, lsr r0
    27ec:	79070404 	stmdbvc	r7, {r2, sl}
    27f0:	04000000 	streq	r0, [r0], #-0
    27f4:	00740708 	rsbseq	r0, r4, r8, lsl #14
    27f8:	25050000 	strcs	r0, [r5, #-0]
    27fc:	7f000000 	svcvc	0x00000000
    2800:	06000000 	streq	r0, [r0], -r0
    2804:	00000025 	andeq	r0, r0, r5, lsr #32
    2808:	00f10700 	rscseq	r0, r1, r0, lsl #14
    280c:	1c020000 	stcne	0, cr0, [r2], {-0}
    2810:	00008b0e 	andeq	r8, r0, lr, lsl #22
    2814:	70040800 	andvc	r0, r4, r0, lsl #16
    2818:	05000000 	streq	r0, [r0, #-0]
    281c:	00000025 	andeq	r0, r0, r5, lsr #32
    2820:	000000a0 	andeq	r0, r0, r0, lsr #1
    2824:	0000a006 	andeq	sl, r0, r6
    2828:	04080000 	streq	r0, [r8], #-0
    282c:	000000ad 	andeq	r0, r0, sp, lsr #1
    2830:	33080104 	movwcc	r0, #33028	; 0x8104
    2834:	03000000 	movweq	r0, #0
    2838:	000000a6 	andeq	r0, r0, r6, lsr #1
    283c:	00057a07 	andeq	r7, r5, r7, lsl #20
    2840:	0e210200 	cdpeq	2, 2, cr0, cr1, cr0, {0}
    2844:	000000be 	strheq	r0, [r0], -lr
    2848:	00910408 	addseq	r0, r1, r8, lsl #8
    284c:	3c090000 	stccc	0, cr0, [r9], {-0}
    2850:	01000007 	tsteq	r0, r7
    2854:	0031110d 	eorseq	r1, r1, sp, lsl #2
    2858:	560a0000 	strpl	r0, [sl], -r0
    285c:	01000006 	tsteq	r0, r6
    2860:	9310061f 	tstls	r0, #32505856	; 0x1f00000
    2864:	00600000 	rsbeq	r0, r0, r0
    2868:	9c010000 	stcls	0, cr0, [r1], {-0}
    286c:	000001d5 	ldrdeq	r0, [r0], -r5
    2870:	0007600b 	andeq	r6, r7, fp
    2874:	0f2c0100 	svceq	0x002c0100
    2878:	0000002c 	andeq	r0, r0, ip, lsr #32
    287c:	2010001c 	andscs	r0, r0, ip, lsl r0
    2880:	0006fb0b 	andeq	pc, r6, fp, lsl #22
    2884:	0f2d0100 	svceq	0x002d0100
    2888:	0000002c 	andeq	r0, r0, ip, lsr #32
    288c:	20100024 	andscs	r0, r0, r4, lsr #32
    2890:	00072d0b 	andeq	r2, r7, fp, lsl #26
    2894:	0f2e0100 	svceq	0x002e0100
    2898:	0000002c 	andeq	r0, r0, ip, lsr #32
    289c:	5a000000 	bpl	28a4 <__code_start__-0x575c>
    28a0:	0007470c 	andeq	r4, r7, ip, lsl #14
    28a4:	0f2f0100 	svceq	0x002f0100
    28a8:	0000002c 	andeq	r0, r0, ip, lsr #32
    28ac:	01ef0d20 	mvneq	r0, r0, lsr #26
    28b0:	93100000 	tstls	r0, #0, 0
    28b4:	d8020000 	stmdale	r2, {}	; <UNPREDICTABLE>
    28b8:	01000001 	tsteq	r0, r1
    28bc:	014c0820 	cmpeq	ip, r0, lsr #16
    28c0:	d80e0000 	stmdale	lr, {}	; <UNPREDICTABLE>
    28c4:	0f000001 	svceq	0x00000001
    28c8:	00000200 	andeq	r0, r0, r0, lsl #4
    28cc:	00001dd5 	ldrdeq	r1, [r0], -r5
    28d0:	00001dd1 	ldrdeq	r1, [r0], -r1	; <UNPREDICTABLE>
    28d4:	d5100000 	ldrle	r0, [r0, #-0]
    28d8:	24000001 	strcs	r0, [r0], #-1
    28dc:	01000093 	swpeq	r0, r3, [r0]	; <UNPREDICTABLE>
    28e0:	00009324 	andeq	r9, r0, r4, lsr #6
    28e4:	00000010 	andeq	r0, r0, r0, lsl r0
    28e8:	73092101 	movwvc	r2, #37121	; 0x9101
    28ec:	0f000001 	svceq	0x00000001
    28f0:	000001e2 	andeq	r0, r0, r2, ror #3
    28f4:	00001dfc 	strdeq	r1, [r0], -ip
    28f8:	00001df4 	strdeq	r1, [r0], -r4
    28fc:	93381100 	teqls	r8, #0
    2900:	024f0000 	subeq	r0, pc, #0, 0
    2904:	3c110000 	ldccc	0, cr0, [r1], {-0}
    2908:	5c000093 	stcpl	0, cr0, [r0], {147}	; 0x93
    290c:	12000002 	andne	r0, r0, #2, 0
    2910:	00009344 	andeq	r9, r0, r4, asr #6
    2914:	00000268 	andeq	r0, r0, r8, ror #4
    2918:	00000198 	muleq	r0, r8, r1
    291c:	01500113 	cmpeq	r0, r3, lsl r1
    2920:	5012003a 	andspl	r0, r2, sl, lsr r0
    2924:	74000093 	strvc	r0, [r0], #-147	; 0xffffff6d
    2928:	b8000002 	stmdalt	r0, {r1}
    292c:	13000001 	movwne	r0, #1
    2930:	0c055001 	stceq	0, cr5, [r5], {1}
    2934:	20100024 	andscs	r0, r0, r4, lsr #32
    2938:	05510113 	ldrbeq	r0, [r1, #-275]	; 0xfffffeed
    293c:	0000010c 	andeq	r0, r0, ip, lsl #2
    2940:	5c14005a 	ldcpl	0, cr0, [r4], {90}	; 0x5a
    2944:	74000093 	strvc	r0, [r0], #-147	; 0xffffff6d
    2948:	13000002 	movwne	r0, #2
    294c:	0c055001 	stceq	0, cr5, [r5], {1}
    2950:	2010001c 	andscs	r0, r0, ip, lsl r0
    2954:	05510113 	ldrbeq	r0, [r1, #-275]	; 0xfffffeed
    2958:	0000200c 	andeq	r2, r0, ip
    295c:	1500005a 	strne	r0, [r0, #-90]	; 0xffffffa6
    2960:	00000709 	andeq	r0, r0, r9, lsl #14
    2964:	01061701 	tsteq	r6, r1, lsl #14
    2968:	000001ef 	andeq	r0, r0, pc, ror #3
    296c:	00076809 	andeq	r6, r7, r9, lsl #16
    2970:	0e180100 	mufeqe	f0, f0, f0
    2974:	00000031 	andeq	r0, r0, r1, lsr r0
    2978:	07391600 	ldreq	r1, [r9, -r0, lsl #12]!
    297c:	0e010000 	cdpeq	0, 0, cr0, cr1, cr0, {0}
    2980:	00002505 	andeq	r2, r0, r5, lsl #10
    2984:	020d0100 	andeq	r0, sp, #0
    2988:	68090000 	stmdavs	r9, {}	; <UNPREDICTABLE>
    298c:	01000007 	tsteq	r0, r7
    2990:	00310e0f 	eorseq	r0, r1, pc, lsl #28
    2994:	17000000 	strne	r0, [r0, -r0]
    2998:	000001ef 	andeq	r0, r0, pc, ror #3
    299c:	000092e4 	andeq	r9, r0, r4, ror #5
    29a0:	00000018 	andeq	r0, r0, r8, lsl r0
    29a4:	022e9c01 	eoreq	r9, lr, #256	; 0x100
    29a8:	000f0000 	andeq	r0, pc, r0
    29ac:	39000002 	stmdbcc	r0, {r1}
    29b0:	3500001e 	strcc	r0, [r0, #-30]	; 0xffffffe2
    29b4:	0000001e 	andeq	r0, r0, lr, lsl r0
    29b8:	0001d517 	andeq	sp, r1, r7, lsl r5
    29bc:	0092fc00 	addseq	pc, r2, r0, lsl #24
    29c0:	00001400 	andeq	r1, r0, r0, lsl #8
    29c4:	4f9c0100 	svcmi	0x009c0100
    29c8:	0f000002 	svceq	0x00000002
    29cc:	000001e2 	andeq	r0, r0, r2, ror #3
    29d0:	00001e60 	andeq	r1, r0, r0, ror #28
    29d4:	00001e58 	andeq	r1, r0, r8, asr lr
    29d8:	06ec1800 	strbteq	r1, [ip], r0, lsl #16
    29dc:	06ec0000 	strbteq	r0, [ip], r0
    29e0:	36020000 	strcc	r0, [r2], -r0
    29e4:	85190601 	ldrhi	r0, [r9, #-1537]	; 0xfffff9ff
    29e8:	85000006 	strhi	r0, [r0, #-6]
    29ec:	02000006 	andeq	r0, r0, #6, 0
    29f0:	6119064d 	tstvs	r9, sp, asr #12
    29f4:	61000006 	tstvs	r0, r6
    29f8:	02000006 	andeq	r0, r0, #6, 0
    29fc:	03190658 	tsteq	r9, #88, 12	; 0x5800000
    2a00:	03000007 	movweq	r0, #7
    2a04:	02000007 	andeq	r0, r0, #7, 0
    2a08:	3f0006ad 	svccc	0x000006ad
    2a0c:	04000005 	streq	r0, [r0], #-5
    2a10:	0010ba00 	andseq	fp, r0, r0, lsl #20
    2a14:	5a010400 	bpl	43a1c <__bss_end__+0x3934c>
    2a18:	0c000004 	stceq	0, cr0, [r0], {4}
    2a1c:	00000783 	andeq	r0, r0, r3, lsl #15
    2a20:	00000512 	andeq	r0, r0, r2, lsl r5
    2a24:	00009370 	andeq	r9, r0, r0, ror r3
    2a28:	0000011c 	andeq	r0, r0, ip, lsl r1
    2a2c:	000017ae 	andeq	r1, r0, lr, lsr #15
    2a30:	69050402 	stmdbvs	r5, {r1, sl}
    2a34:	0300746e 	movweq	r7, #1134	; 0x46e
    2a38:	007e0704 	rsbseq	r0, lr, r4, lsl #14
    2a3c:	01030000 	mrseq	r0, (UNDEF: 3)
    2a40:	00002c06 	andeq	r2, r0, r6, lsl #24
    2a44:	05020300 	streq	r0, [r2, #-768]	; 0xfffffd00
    2a48:	000000d4 	ldrdeq	r0, [r0], -r4
    2a4c:	99050403 	stmdbls	r5, {r0, r1, sl}
    2a50:	03000000 	movweq	r0, #0
    2a54:	00940508 	addseq	r0, r4, r8, lsl #10
    2a58:	01030000 	mrseq	r0, (UNDEF: 3)
    2a5c:	00002a08 	andeq	r2, r0, r8, lsl #20
    2a60:	07020300 	streq	r0, [r2, -r0, lsl #6]
    2a64:	00000038 	andeq	r0, r0, r8, lsr r0
    2a68:	79070403 	stmdbvc	r7, {r0, r1, sl}
    2a6c:	03000000 	movweq	r0, #0
    2a70:	00740708 	rsbseq	r0, r4, r8, lsl #14
    2a74:	25040000 	strcs	r0, [r4, #-0]
    2a78:	7a000000 	bvc	2a80 <__code_start__-0x5580>
    2a7c:	05000000 	streq	r0, [r0, #-0]
    2a80:	00000025 	andeq	r0, r0, r5, lsr #32
    2a84:	00f10600 	rscseq	r0, r1, r0, lsl #12
    2a88:	1c020000 	stcne	0, cr0, [r2], {-0}
    2a8c:	0000860e 	andeq	r8, r0, lr, lsl #12
    2a90:	6b040700 	blvs	104698 <__bss_end__+0xf9fc8>
    2a94:	04000000 	streq	r0, [r0], #-0
    2a98:	00000025 	andeq	r0, r0, r5, lsr #32
    2a9c:	0000009b 	muleq	r0, fp, r0
    2aa0:	00009b05 	andeq	r9, r0, r5, lsl #22
    2aa4:	04070000 	streq	r0, [r7], #-0
    2aa8:	000000a8 	andeq	r0, r0, r8, lsr #1
    2aac:	33080103 	movwcc	r0, #33027	; 0x8103
    2ab0:	08000000 	stmdaeq	r0, {}	; <UNPREDICTABLE>
    2ab4:	000000a1 	andeq	r0, r0, r1, lsr #1
    2ab8:	00057a06 	andeq	r7, r5, r6, lsl #20
    2abc:	0e210200 	cdpeq	2, 2, cr0, cr1, cr0, {0}
    2ac0:	000000b9 	strheq	r0, [r0], -r9
    2ac4:	008c0407 	addeq	r0, ip, r7, lsl #8
    2ac8:	79090000 	stmdbvc	r9, {}	; <UNPREDICTABLE>
    2acc:	01000007 	tsteq	r0, r7
    2ad0:	9438061e 	ldrtls	r0, [r8], #-1566	; 0xfffff9e2
    2ad4:	00540000 	subseq	r0, r4, r0
    2ad8:	9c010000 	stcls	0, cr0, [r1], {-0}
    2adc:	0000020b 	andeq	r0, r0, fp, lsl #4
    2ae0:	6365730a 	cmnvs	r5, #671088640	; 0x28000000
    2ae4:	191e0100 	ldmdbne	lr, {r8}
    2ae8:	0000002c 	andeq	r0, r0, ip, lsr #32
    2aec:	00001e9d 	muleq	r0, sp, lr
    2af0:	00001e99 	muleq	r0, r9, lr
    2af4:	00020b0b 	andeq	r0, r2, fp, lsl #22
    2af8:	00943800 	addseq	r3, r4, r0, lsl #16
    2afc:	02b80200 	adcseq	r0, r8, #0, 4
    2b00:	1f010000 	svcne	0x00010000
    2b04:	02180c05 	andseq	r0, r8, #1280	; 0x500
    2b08:	1ec20000 	cdpne	0, 12, cr0, cr2, cr0, {0}
    2b0c:	1ebe0000 	cdpne	0, 11, cr0, cr14, cr0, {0}
    2b10:	240d0000 	strcs	r0, [sp], #-0
    2b14:	4c000002 	stcmi	0, cr0, [r0], {2}
    2b18:	00000094 	muleq	r0, r4, r0
    2b1c:	0000944c 	andeq	r9, r0, ip, asr #8
    2b20:	00000040 	andeq	r0, r0, r0, asr #32
    2b24:	0c051c01 	stceq	12, cr1, [r5], {1}
    2b28:	00000231 	andeq	r0, r0, r1, lsr r2
    2b2c:	00001eef 	andeq	r1, r0, pc, ror #29
    2b30:	00001eed 	andeq	r1, r0, sp, ror #29
    2b34:	00023c0e 	andeq	r3, r2, lr, lsl #24
    2b38:	001f0400 	andseq	r0, pc, r0, lsl #8
    2b3c:	001f0200 	andseq	r0, pc, r0, lsl #4
    2b40:	02550f00 	subseq	r0, r5, #0, 30
    2b44:	944c0000 	strbls	r0, [ip], #-0
    2b48:	4c020000 	stcmi	0, cr0, [r2], {-0}
    2b4c:	14000094 	strne	r0, [r0], #-148	; 0xffffff6c
    2b50:	01000000 	mrseq	r0, (UNDEF: 0)
    2b54:	019c1313 	orrseq	r1, ip, r3, lsl r3
    2b58:	660e0000 	strvs	r0, [lr], -r0
    2b5c:	1b000002 	blne	2b6c <__code_start__-0x5494>
    2b60:	1700001f 	smladne	r0, pc, r0, r0	; <UNPREDICTABLE>
    2b64:	0f00001f 	svceq	0x0000001f
    2b68:	00000271 	andeq	r0, r0, r1, ror r2
    2b6c:	00009450 	andeq	r9, r0, r0, asr r4
    2b70:	00945001 	addseq	r5, r4, r1
    2b74:	00000c00 	andeq	r0, r0, r0, lsl #24
    2b78:	120d0100 	andne	r0, sp, #0
    2b7c:	00000189 	andeq	r0, r0, r9, lsl #3
    2b80:	00945810 	addseq	r5, r4, r0, lsl r8
    2b84:	00052a00 	andeq	r2, r5, r0, lsl #20
    2b88:	50011100 	andpl	r1, r1, r0, lsl #2
    2b8c:	30040c05 	andcc	r0, r4, r5, lsl #24
    2b90:	00002000 	andeq	r2, r0, r0
    2b94:	00945012 	addseq	r5, r4, r2, lsl r0
    2b98:	00053600 	andeq	r3, r5, r0, lsl #12
    2b9c:	94601200 	strbtls	r1, [r0], #-512	; 0xfffffe00
    2ba0:	05360000 	ldreq	r0, [r6, #-0]!
    2ba4:	13000000 	movwne	r0, #0
    2ba8:	00000247 	andeq	r0, r0, r7, asr #4
    2bac:	000002d0 	ldrdeq	r0, [r0], -r0	; <UNPREDICTABLE>
    2bb0:	00024814 	andeq	r4, r2, r4, lsl r8
    2bb4:	02550b00 	subseq	r0, r5, #0, 22
    2bb8:	94640000 	strbtls	r0, [r4], #-0
    2bbc:	e8020000 	stmda	r2, {}	; <UNPREDICTABLE>
    2bc0:	01000002 	tsteq	r0, r2
    2bc4:	e8151715 	ldmda	r5, {r0, r2, r4, r8, r9, sl, ip}
    2bc8:	0e000002 	cdpeq	0, 0, cr0, cr0, cr2, {0}
    2bcc:	00000266 	andeq	r0, r0, r6, ror #4
    2bd0:	00001f3b 	andeq	r1, r0, fp, lsr pc
    2bd4:	00001f39 	andeq	r1, r0, r9, lsr pc
    2bd8:	00027116 	andeq	r7, r2, r6, lsl r1
    2bdc:	00946800 	addseq	r6, r4, r0, lsl #16
    2be0:	03080100 	movweq	r0, #33024	; 0x8100
    2be4:	0d010000 	stceq	0, cr0, [r1, #-0]
    2be8:	0001f312 	andeq	pc, r1, r2, lsl r3	; <UNPREDICTABLE>
    2bec:	94701000 	ldrbtls	r1, [r0], #-0
    2bf0:	052a0000 	streq	r0, [sl, #-0]!
    2bf4:	01110000 	tsteq	r1, r0
    2bf8:	00770250 	rsbseq	r0, r7, r0, asr r2
    2bfc:	68120000 	ldmdavs	r2, {}	; <UNPREDICTABLE>
    2c00:	36000094 			; <UNDEFINED> instruction: 0x36000094
    2c04:	12000005 	andne	r0, r0, #5, 0
    2c08:	0000947c 	andeq	r9, r0, ip, ror r4
    2c0c:	00000536 	andeq	r0, r0, r6, lsr r5
    2c10:	00000000 	andeq	r0, r0, r0
    2c14:	61170000 	tstvs	r7, r0
    2c18:	01000006 	tsteq	r0, r6
    2c1c:	2401061b 	strcs	r0, [r1], #-1563	; 0xfffff9e5
    2c20:	18000002 	stmdane	r0, {r1}
    2c24:	0100736d 	tsteq	r0, sp, ror #6
    2c28:	002c181b 	eoreq	r1, ip, fp, lsl r8
    2c2c:	17000000 	strne	r0, [r0, -r0]
    2c30:	000007ac 	andeq	r0, r0, ip, lsr #15
    2c34:	01061201 	tsteq	r6, r1, lsl #4
    2c38:	00000255 	andeq	r0, r0, r5, asr r2
    2c3c:	00737518 	rsbseq	r7, r3, r8, lsl r5
    2c40:	2c181201 	lfmcs	f1, 4, [r8], {1}
    2c44:	19000000 	stmdbne	r0, {}	; <UNPREDICTABLE>
    2c48:	01006272 	tsteq	r0, r2, ror r2
    2c4c:	002c0e13 	eoreq	r0, ip, r3, lsl lr
    2c50:	191a0000 	ldmdbne	sl, {}	; <UNPREDICTABLE>
    2c54:	01006172 	tsteq	r0, r2, ror r1
    2c58:	002c1215 	eoreq	r1, ip, r5, lsl r2
    2c5c:	00000000 	andeq	r0, r0, r0
    2c60:	00079d1b 	andeq	r9, r7, fp, lsl sp
    2c64:	0a090100 	beq	24306c <__bss_end__+0x23899c>
    2c68:	0000002c 	andeq	r0, r0, ip, lsr #32
    2c6c:	00027101 	andeq	r7, r2, r1, lsl #2
    2c70:	00751900 	rsbseq	r1, r5, r0, lsl #18
    2c74:	2c0e0d01 	stccs	13, cr0, [lr], {1}
    2c78:	00000000 	andeq	r0, r0, r0
    2c7c:	0007b51c 	andeq	fp, r7, ip, lsl r5
    2c80:	0a040100 	beq	103088 <__bss_end__+0xf89b8>
    2c84:	0000002c 	andeq	r0, r0, ip, lsr #32
    2c88:	02711d01 	rsbseq	r1, r1, #64	; 0x40
    2c8c:	93700000 	cmnls	r0, #0, 0
    2c90:	000c0000 	andeq	r0, ip, r0
    2c94:	9c010000 	stcls	0, cr0, [r1], {-0}
    2c98:	000002a5 	andeq	r0, r0, r5, lsr #5
    2c9c:	0093781e 	addseq	r7, r3, lr, lsl r8
    2ca0:	00052a00 	andeq	r2, r5, r0, lsl #20
    2ca4:	50011100 	andpl	r1, r1, r0, lsl #2
    2ca8:	30040c05 	andcc	r0, r4, r5, lsl #24
    2cac:	00002000 	andeq	r2, r0, r0
    2cb0:	0002551d 	andeq	r5, r2, sp, lsl r5
    2cb4:	00937c00 	addseq	r7, r3, r0, lsl #24
    2cb8:	00002400 	andeq	r2, r0, r0, lsl #8
    2cbc:	059c0100 	ldreq	r0, [ip, #256]	; 0x100
    2cc0:	0e000003 	cdpeq	0, 0, cr0, cr0, cr3, {0}
    2cc4:	00000266 	andeq	r0, r0, r6, ror #4
    2cc8:	00001f52 	andeq	r1, r0, r2, asr pc
    2ccc:	00001f4e 	andeq	r1, r0, lr, asr #30
    2cd0:	0002710f 	andeq	r7, r2, pc, lsl #2
    2cd4:	00938400 	addseq	r8, r3, r0, lsl #8
    2cd8:	93840100 	orrls	r0, r4, #0
    2cdc:	000c0000 	andeq	r0, ip, r0
    2ce0:	0d010000 	stceq	0, cr0, [r1, #-0]
    2ce4:	0002f212 	andeq	pc, r2, r2, lsl r2	; <UNPREDICTABLE>
    2ce8:	938c1000 	orrls	r1, ip, #0, 0
    2cec:	052a0000 	streq	r0, [sl, #-0]!
    2cf0:	01110000 	tsteq	r1, r0
    2cf4:	040c0550 	streq	r0, [ip], #-1360	; 0xfffffab0
    2cf8:	00200030 	eoreq	r0, r0, r0, lsr r0
    2cfc:	93841200 	orrls	r1, r4, #0, 4
    2d00:	05360000 	ldreq	r0, [r6, #-0]!
    2d04:	94120000 	ldrls	r0, [r2], #-0
    2d08:	36000093 			; <UNDEFINED> instruction: 0x36000093
    2d0c:	00000005 	andeq	r0, r0, r5
    2d10:	0002241d 	andeq	r2, r2, sp, lsl r4
    2d14:	0093a000 	addseq	sl, r3, r0
    2d18:	00004800 	andeq	r4, r0, r0, lsl #16
    2d1c:	079c0100 	ldreq	r0, [ip, r0, lsl #2]
    2d20:	0c000004 	stceq	0, cr0, [r0], {4}
    2d24:	00000231 	andeq	r0, r0, r1, lsr r2
    2d28:	00001f74 	andeq	r1, r0, r4, ror pc
    2d2c:	00001f70 	andeq	r1, r0, r0, ror pc
    2d30:	00023c0e 	andeq	r3, r2, lr, lsl #24
    2d34:	001f9400 	andseq	r9, pc, r0, lsl #8
    2d38:	001f9200 	andseq	r9, pc, r0, lsl #4
    2d3c:	02551600 	subseq	r1, r5, #0, 12
    2d40:	93a00000 	movls	r0, #0, 0
    2d44:	00020000 	andeq	r0, r2, r0
    2d48:	01000002 	tsteq	r0, r2
    2d4c:	039a1313 	orrseq	r1, sl, #1275068416	; 0x4c000000
    2d50:	00150000 	andseq	r0, r5, r0
    2d54:	0e000002 	cdpeq	0, 0, cr0, cr0, cr2, {0}
    2d58:	00000266 	andeq	r0, r0, r6, ror #4
    2d5c:	00001fab 	andeq	r1, r0, fp, lsr #31
    2d60:	00001fa7 	andeq	r1, r0, r7, lsr #31
    2d64:	0002710f 	andeq	r7, r2, pc, lsl #2
    2d68:	0093ac00 	addseq	sl, r3, r0, lsl #24
    2d6c:	93ac0100 			; <UNDEFINED> instruction: 0x93ac0100
    2d70:	000c0000 	andeq	r0, ip, r0
    2d74:	0d010000 	stceq	0, cr0, [r1, #-0]
    2d78:	00038612 	andeq	r8, r3, r2, lsl r6
    2d7c:	93b41000 			; <UNDEFINED> instruction: 0x93b41000
    2d80:	052a0000 	streq	r0, [sl, #-0]!
    2d84:	01110000 	tsteq	r1, r0
    2d88:	040c0550 	streq	r0, [ip], #-1360	; 0xfffffab0
    2d8c:	00200030 	eoreq	r0, r0, r0, lsr r0
    2d90:	93ac1200 			; <UNDEFINED> instruction: 0x93ac1200
    2d94:	05360000 	ldreq	r0, [r6, #-0]!
    2d98:	bc120000 	ldclt	0, cr0, [r2], {-0}
    2d9c:	36000093 			; <UNDEFINED> instruction: 0x36000093
    2da0:	00000005 	andeq	r0, r0, r5
    2da4:	02471300 	subeq	r1, r7, #0, 6
    2da8:	02180000 	andseq	r0, r8, #0, 0
    2dac:	48140000 	ldmdami	r4, {}	; <UNPREDICTABLE>
    2db0:	0b000002 	bleq	2dc0 <__code_start__-0x5240>
    2db4:	00000255 	andeq	r0, r0, r5, asr r2
    2db8:	000093c0 	andeq	r9, r0, r0, asr #7
    2dbc:	00023002 	andeq	r3, r2, r2
    2dc0:	17150100 	ldrne	r0, [r5, -r0, lsl #2]
    2dc4:	00023015 	andeq	r3, r2, r5, lsl r0
    2dc8:	02660e00 	rsbeq	r0, r6, #0, 28
    2dcc:	1fcb0000 	svcne	0x00cb0000
    2dd0:	1fc90000 	svcne	0x00c90000
    2dd4:	71160000 	tstvc	r6, r0
    2dd8:	c4000002 	strgt	r0, [r0], #-2
    2ddc:	01000093 	swpeq	r0, r3, [r0]	; <UNPREDICTABLE>
    2de0:	00000250 	andeq	r0, r0, r0, asr r2
    2de4:	f1120d01 			; <UNDEFINED> instruction: 0xf1120d01
    2de8:	10000003 	andne	r0, r0, r3
    2dec:	000093cc 	andeq	r9, r0, ip, asr #7
    2df0:	0000052a 	andeq	r0, r0, sl, lsr #10
    2df4:	02500111 	subseq	r0, r0, #1073741828	; 0x40000004
    2df8:	00000077 	andeq	r0, r0, r7, ror r0
    2dfc:	0093c412 	addseq	ip, r3, r2, lsl r4
    2e00:	00053600 	andeq	r3, r5, r0, lsl #12
    2e04:	93d81200 	bicsls	r1, r8, #0, 4
    2e08:	05360000 	ldreq	r0, [r6, #-0]!
    2e0c:	00000000 	andeq	r0, r0, r0
    2e10:	0b1d0000 	bleq	742e18 <__bss_end__+0x738748>
    2e14:	e8000002 	stmda	r0, {r1}
    2e18:	50000093 	mulpl	r0, r3, r0
    2e1c:	01000000 	mrseq	r0, (UNDEF: 0)
    2e20:	00052a9c 	muleq	r5, ip, sl
    2e24:	02180c00 	andseq	r0, r8, #0, 24
    2e28:	1fe20000 	svcne	0x00e20000
    2e2c:	1fde0000 	svcne	0x00de0000
    2e30:	240d0000 	strcs	r0, [sp], #-0
    2e34:	f8000002 			; <UNDEFINED> instruction: 0xf8000002
    2e38:	00000093 	muleq	r0, r3, r0
    2e3c:	000093f8 	strdeq	r9, [r0], -r8
    2e40:	00000040 	andeq	r0, r0, r0, asr #32
    2e44:	0c051c01 	stceq	12, cr1, [r5], {1}
    2e48:	00000231 	andeq	r0, r0, r1, lsr r2
    2e4c:	00002005 	andeq	r2, r0, r5
    2e50:	00002003 	andeq	r2, r0, r3
    2e54:	00023c0e 	andeq	r3, r2, lr, lsl #24
    2e58:	00201a00 	eoreq	r1, r0, r0, lsl #20
    2e5c:	00201800 	eoreq	r1, r0, r0, lsl #16
    2e60:	02550f00 	subseq	r0, r5, #0, 30
    2e64:	93f80000 	mvnsls	r0, #0, 0
    2e68:	f8020000 			; <UNDEFINED> instruction: 0xf8020000
    2e6c:	14000093 	strne	r0, [r0], #-147	; 0xffffff6d
    2e70:	01000000 	mrseq	r0, (UNDEF: 0)
    2e74:	04bc1313 	ldrteq	r1, [ip], #787	; 0x313
    2e78:	660e0000 	strvs	r0, [lr], -r0
    2e7c:	31000002 	tstcc	r0, r2
    2e80:	2d000020 	stccs	0, cr0, [r0, #-128]	; 0xffffff80
    2e84:	0f000020 	svceq	0x00000020
    2e88:	00000271 	andeq	r0, r0, r1, ror r2
    2e8c:	000093fc 	strdeq	r9, [r0], -ip
    2e90:	0093fc01 	addseq	pc, r3, r1, lsl #24
    2e94:	00000c00 	andeq	r0, r0, r0, lsl #24
    2e98:	120d0100 	andne	r0, sp, #0
    2e9c:	000004a9 	andeq	r0, r0, r9, lsr #9
    2ea0:	00940410 	addseq	r0, r4, r0, lsl r4
    2ea4:	00052a00 	andeq	r2, r5, r0, lsl #20
    2ea8:	50011100 	andpl	r1, r1, r0, lsl #2
    2eac:	30040c05 	andcc	r0, r4, r5, lsl #24
    2eb0:	00002000 	andeq	r2, r0, r0
    2eb4:	0093fc12 	addseq	pc, r3, r2, lsl ip	; <UNPREDICTABLE>
    2eb8:	00053600 	andeq	r3, r5, r0, lsl #12
    2ebc:	940c1200 	strls	r1, [ip], #-512	; 0xfffffe00
    2ec0:	05360000 	ldreq	r0, [r6, #-0]!
    2ec4:	13000000 	movwne	r0, #0
    2ec8:	00000247 	andeq	r0, r0, r7, asr #4
    2ecc:	00000268 	andeq	r0, r0, r8, ror #4
    2ed0:	00024814 	andeq	r4, r2, r4, lsl r8
    2ed4:	02550b00 	subseq	r0, r5, #0, 22
    2ed8:	94100000 	ldrls	r0, [r0], #-0
    2edc:	80020000 	andhi	r0, r2, r0
    2ee0:	01000002 	tsteq	r0, r2
    2ee4:	80151715 	andshi	r1, r5, r5, lsl r7
    2ee8:	0e000002 	cdpeq	0, 0, cr0, cr0, cr2, {0}
    2eec:	00000266 	andeq	r0, r0, r6, ror #4
    2ef0:	00002051 	andeq	r2, r0, r1, asr r0
    2ef4:	0000204f 	andeq	r2, r0, pc, asr #32
    2ef8:	00027116 	andeq	r7, r2, r6, lsl r1
    2efc:	00941400 	addseq	r1, r4, r0, lsl #8
    2f00:	02a00100 	adceq	r0, r0, #0
    2f04:	0d010000 	stceq	0, cr0, [r1, #-0]
    2f08:	00051312 	andeq	r1, r5, r2, lsl r3
    2f0c:	941c1000 	ldrls	r1, [ip], #-0
    2f10:	052a0000 	streq	r0, [sl, #-0]!
    2f14:	01110000 	tsteq	r1, r0
    2f18:	00770250 	rsbseq	r0, r7, r0, asr r2
    2f1c:	14120000 	ldrne	r0, [r2], #-0
    2f20:	36000094 			; <UNDEFINED> instruction: 0x36000094
    2f24:	12000005 	andne	r0, r0, #5, 0
    2f28:	00009428 	andeq	r9, r0, r8, lsr #8
    2f2c:	00000536 	andeq	r0, r0, r6, lsr r5
    2f30:	00000000 	andeq	r0, r0, r0
    2f34:	07971f00 	ldreq	r1, [r7, r0, lsl #30]
    2f38:	07970000 	ldreq	r0, [r7, r0]
    2f3c:	c2020000 	andgt	r0, r2, #0, 0
    2f40:	076d1f0a 	strbeq	r1, [sp, -sl, lsl #30]!
    2f44:	076d0000 	strbeq	r0, [sp, -r0]!
    2f48:	9c020000 	stcls	0, cr0, [r2], {-0}
    2f4c:	05cd0006 	strbeq	r0, [sp, #6]
    2f50:	00040000 	andeq	r0, r4, r0
    2f54:	00001289 	andeq	r1, r0, r9, lsl #5
    2f58:	08c80104 	stmiaeq	r8, {r2, r8}^
    2f5c:	070c0000 	streq	r0, [ip, -r0]
    2f60:	78000008 	stmdavc	r0, {r3}
    2f64:	8c000008 	stchi	0, cr0, [r0], {8}
    2f68:	f0000094 			; <UNDEFINED> instruction: 0xf0000094
    2f6c:	ac000001 	stcge	0, cr0, [r0], {1}
    2f70:	02000019 	andeq	r0, r0, #25, 0
    2f74:	6e690504 	cdpvs	5, 6, cr0, cr9, cr4, {0}
    2f78:	04030074 	streq	r0, [r3], #-116	; 0xffffff8c
    2f7c:	00007e07 	andeq	r7, r0, r7, lsl #28
    2f80:	002c0400 	eoreq	r0, ip, r0, lsl #8
    2f84:	01030000 	mrseq	r0, (UNDEF: 3)
    2f88:	00002c06 	andeq	r2, r0, r6, lsl #24
    2f8c:	05020300 	streq	r0, [r2, #-768]	; 0xfffffd00
    2f90:	000000d4 	ldrdeq	r0, [r0], -r4
    2f94:	99050403 	stmdbls	r5, {r0, r1, sl}
    2f98:	03000000 	movweq	r0, #0
    2f9c:	00940508 	addseq	r0, r4, r8, lsl #10
    2fa0:	01030000 	mrseq	r0, (UNDEF: 3)
    2fa4:	00002a08 	andeq	r2, r0, r8, lsl #20
    2fa8:	07020300 	streq	r0, [r2, -r0, lsl #6]
    2fac:	00000038 	andeq	r0, r0, r8, lsr r0
    2fb0:	0000e805 	andeq	lr, r0, r5, lsl #16
    2fb4:	19340500 	ldmdbne	r4!, {r8, sl}
    2fb8:	0000006e 	andeq	r0, r0, lr, rrx
    2fbc:	79070403 	stmdbvc	r7, {r0, r1, sl}
    2fc0:	03000000 	movweq	r0, #0
    2fc4:	00740708 	rsbseq	r0, r4, r8, lsl #14
    2fc8:	01030000 	mrseq	r0, (UNDEF: 3)
    2fcc:	00003308 	andeq	r3, r0, r8, lsl #6
    2fd0:	01070600 	tsteq	r7, r0, lsl #12
    2fd4:	00000054 	andeq	r0, r0, r4, asr r0
    2fd8:	c20e0c04 	andgt	r0, lr, #4, 24	; 0x400
    2fdc:	07000000 	streq	r0, [r0, -r0]
    2fe0:	000009b2 			; <UNDEFINED> instruction: 0x000009b2
    2fe4:	07ea0700 	strbeq	r0, [sl, r0, lsl #14]!
    2fe8:	07010000 	streq	r0, [r1, -r0]
    2fec:	0000082d 	andeq	r0, r0, sp, lsr #16
    2ff0:	083c0704 	ldmdaeq	ip!, {r2, r8, r9, sl}
    2ff4:	07050000 	streq	r0, [r5, -r0]
    2ff8:	0000084b 	andeq	r0, r0, fp, asr #16
    2ffc:	085a0706 	ldmdaeq	sl, {r1, r2, r8, r9, sl}^
    3000:	07070000 	streq	r0, [r7, -r0]
    3004:	0000097b 	andeq	r0, r0, fp, ror r9
    3008:	08690703 	stmdaeq	r9!, {r0, r1, r8, r9, sl}^
    300c:	00020000 	andeq	r0, r2, r0
    3010:	0007fb08 	andeq	pc, r7, r8, lsl #22
    3014:	06022c00 	streq	r2, [r2], -r0, lsl #24
    3018:	00015e08 	andeq	r5, r1, r8, lsl #28
    301c:	6f690900 	svcvs	0x00690900
    3020:	09090200 	stmdbeq	r9, {r9}
    3024:	00000033 	andeq	r0, r0, r3, lsr r0
    3028:	65690900 	strbvs	r0, [r9, #-2304]!	; 0xfffff700
    302c:	0a020072 	beq	831fc <__bss_end__+0x78b2c>
    3030:	00003309 	andeq	r3, r0, r9, lsl #6
    3034:	69090400 	stmdbvs	r9, {sl}
    3038:	02007269 	andeq	r7, r0, #-1879048186	; 0x90000006
    303c:	00330911 	eorseq	r0, r3, r1, lsl r9
    3040:	09080000 	stmdbeq	r8, {}	; <UNPREDICTABLE>
    3044:	0072636c 	rsbseq	r6, r2, ip, ror #6
    3048:	33091302 	movwcc	r1, #37634	; 0x9302
    304c:	0c000000 	stceq	0, cr0, [r0], {-0}
    3050:	72636d09 	rsbvc	r6, r3, #576	; 0x240
    3054:	09140200 	ldmdbeq	r4, {r9}
    3058:	00000033 	andeq	r0, r0, r3, lsr r0
    305c:	736c0910 	cmnvc	ip, #16, 18	; 0x40000
    3060:	15020072 	strne	r0, [r2, #-114]	; 0xffffff8e
    3064:	00003309 	andeq	r3, r0, r9, lsl #6
    3068:	6d091400 	cfstrsvs	mvf1, [r9, #-0]
    306c:	02007273 	andeq	r7, r0, #805306375	; 0x30000007
    3070:	00330916 	eorseq	r0, r3, r6, lsl r9
    3074:	0a180000 	beq	60307c <__bss_end__+0x5f89ac>
    3078:	00000992 	muleq	r0, r2, r9
    307c:	33091702 	movwcc	r1, #38658	; 0x9702
    3080:	1c000000 	stcne	0, cr0, [r0], {-0}
    3084:	00095b0a 	andeq	r5, r9, sl, lsl #22
    3088:	091b0200 	ldmdbeq	fp, {r9}
    308c:	00000033 	andeq	r0, r0, r3, lsr r0
    3090:	07d70a20 	ldrbeq	r0, [r7, r0, lsr #20]
    3094:	1d020000 	stcne	0, cr0, [r2, #-0]
    3098:	00003309 	andeq	r3, r0, r9, lsl #6
    309c:	ad0a2400 	cfstrsge	mvf2, [sl, #-0]
    30a0:	02000008 	andeq	r0, r0, #8, 0
    30a4:	0033091e 	eorseq	r0, r3, lr, lsl r9
    30a8:	00280000 	eoreq	r0, r8, r0
    30ac:	0008b20b 	andeq	fp, r8, fp, lsl #4
    30b0:	09080100 	stmdbeq	r8, {r8}
    30b4:	00000174 	andeq	r0, r0, r4, ror r1
    30b8:	20215004 	eorcs	r5, r1, r4
    30bc:	0033040c 	eorseq	r0, r3, ip, lsl #8
    30c0:	6e0d0000 	cdpvs	0, 0, cr0, cr13, cr0, {0}
    30c4:	0b000001 	bleq	30d0 <__code_start__-0x4f30>
    30c8:	0000099a 	muleq	r0, sl, r9
    30cc:	8f232901 	svchi	0x00232901
    30d0:	40000001 	andmi	r0, r0, r1
    30d4:	0c202150 	stfeqs	f2, [r0], #-320	; 0xfffffec0
    30d8:	0000c204 	andeq	ip, r0, r4, lsl #4
    30dc:	01890d00 	orreq	r0, r9, r0, lsl #26
    30e0:	850e0000 	strhi	r0, [lr, #-0]
    30e4:	01000006 	tsteq	r0, r6
    30e8:	964406cc 	strbls	r0, [r4], -ip, asr #13
    30ec:	00140000 	andseq	r0, r4, r0
    30f0:	9c010000 	stcls	0, cr0, [r1], {-0}
    30f4:	000001b4 			; <UNDEFINED> instruction: 0x000001b4
    30f8:	00964c0f 	addseq	r4, r6, pc, lsl #24
    30fc:	0001b400 	andeq	fp, r1, r0, lsl #8
    3100:	1c100000 	ldcne	0, cr0, [r0], {-0}
    3104:	01000008 	tsteq	r0, r8
    3108:	002505b6 	strhteq	r0, [r5], -r6
    310c:	96240000 	strtls	r0, [r4], -r0
    3110:	00200000 	eoreq	r0, r0, r0
    3114:	9c010000 	stcls	0, cr0, [r1], {-0}
    3118:	000001eb 	andeq	r0, r0, fp, ror #3
    311c:	00962c0f 	addseq	r2, r6, pc, lsl #24
    3120:	0005a000 	andeq	sl, r5, r0
    3124:	96341100 	ldrtls	r1, [r4], -r0, lsl #2
    3128:	05ac0000 	streq	r0, [ip, #0]!
    312c:	01120000 	tsteq	r2, r0
    3130:	640c0550 	strvs	r0, [ip], #-1360	; 0xfffffab0
    3134:	00202150 	eoreq	r2, r0, r0, asr r1
    3138:	096d1000 	stmdbeq	sp!, {ip}^
    313c:	b3010000 	movwlt	r0, #4096	; 0x1000
    3140:	00002505 	andeq	r2, r0, r5, lsl #10
    3144:	00961400 	addseq	r1, r6, r0, lsl #8
    3148:	00001000 	andeq	r1, r0, r0
    314c:	189c0100 	ldmne	ip, {r8}
    3150:	0f000002 	svceq	0x00000002
    3154:	0000961c 	andeq	r9, r0, ip, lsl r6
    3158:	000005a0 	andeq	r0, r0, r0, lsr #11
    315c:	0096200f 	addseq	r2, r6, pc
    3160:	00030900 	andeq	r0, r3, r0, lsl #18
    3164:	a80e0000 	stmdage	lr, {}	; <UNPREDICTABLE>
    3168:	01000009 	tsteq	r0, r9
    316c:	95e406ab 	strbls	r0, [r4, #1707]!	; 0x6ab
    3170:	00300000 	eorseq	r0, r0, r0
    3174:	9c010000 	stcls	0, cr0, [r1], {-0}
    3178:	0000027c 	andeq	r0, r0, ip, ror r2
    317c:	01006313 	tsteq	r0, r3, lsl r3
    3180:	002c19ab 	eoreq	r1, ip, fp, lsr #19
    3184:	20680000 	rsbcs	r0, r8, r0
    3188:	20640000 	rsbcs	r0, r4, r0
    318c:	f00f0000 			; <UNDEFINED> instruction: 0xf00f0000
    3190:	a0000095 	mulge	r0, r5, r0
    3194:	0f000005 	svceq	0x00000005
    3198:	000095f4 	strdeq	r9, [r0], -r4
    319c:	000002db 	ldrdeq	r0, [r0], -fp
    31a0:	00960814 	addseq	r0, r6, r4, lsl r8
    31a4:	0005b800 	andeq	fp, r5, r0, lsl #16
    31a8:	00027200 	andeq	r7, r2, r0, lsl #4
    31ac:	50011200 	andpl	r1, r1, r0, lsl #4
    31b0:	50400c05 	subpl	r0, r0, r5, lsl #24
    31b4:	01122021 	tsteq	r2, r1, lsr #32
    31b8:	00740551 	rsbseq	r0, r4, r1, asr r5
    31bc:	001aff08 	andseq	pc, sl, r8, lsl #30
    31c0:	00960c0f 	addseq	r0, r6, pc, lsl #24
    31c4:	0005a000 	andeq	sl, r5, r0
    31c8:	be100000 	cdplt	0, 1, cr0, cr0, cr0, {0}
    31cc:	01000008 	tsteq	r0, r8
    31d0:	002505a3 	eoreq	r0, r5, r3, lsr #11
    31d4:	95b40000 	ldrls	r0, [r4, #0]!
    31d8:	00300000 	eorseq	r0, r0, r0
    31dc:	9c010000 	stcls	0, cr0, [r1], {-0}
    31e0:	000002db 	ldrdeq	r0, [r0], -fp
    31e4:	01006315 	tsteq	r0, r5, lsl r3
    31e8:	002509a7 	eoreq	r0, r5, r7, lsr #19
    31ec:	20880000 	addcs	r0, r8, r0
    31f0:	20860000 	addcs	r0, r6, r0
    31f4:	bc0f0000 	stclt	0, cr0, [pc], {-0}
    31f8:	a0000095 	mulge	r0, r5, r0
    31fc:	0f000005 	svceq	0x00000005
    3200:	000095c0 	andeq	r9, r0, r0, asr #11
    3204:	00000309 	andeq	r0, r0, r9, lsl #6
    3208:	0095d014 	addseq	sp, r5, r4, lsl r0
    320c:	0005ac00 	andeq	sl, r5, r0, lsl #24
    3210:	0002d100 	andeq	sp, r2, r0, lsl #2
    3214:	50011200 	andpl	r1, r1, r0, lsl #4
    3218:	50400c05 	subpl	r0, r0, r5, lsl #24
    321c:	0f002021 	svceq	0x00002021
    3220:	000095d8 	ldrdeq	r9, [r0], -r8
    3224:	000005a0 	andeq	r0, r0, r0, lsr #11
    3228:	080e1000 	stmdaeq	lr, {ip}
    322c:	94010000 	strls	r0, [r1], #-0
    3230:	00002505 	andeq	r2, r0, r5, lsl #10
    3234:	00959400 	addseq	r9, r5, r0, lsl #8
    3238:	00002000 	andeq	r2, r0, r0
    323c:	099c0100 	ldmibeq	ip, {r8}
    3240:	11000003 	tstne	r0, r3
    3244:	000095a0 	andeq	r9, r0, r0, lsr #11
    3248:	000005ac 	andeq	r0, r0, ip, lsr #11
    324c:	05500112 	ldrbeq	r0, [r0, #-274]	; 0xfffffeee
    3250:	2150640c 	cmpcs	r0, ip, lsl #8
    3254:	10000020 	andne	r0, r0, r0, lsr #32
    3258:	000007dc 	ldrdeq	r0, [r0], -ip
    325c:	25058b01 	strcs	r8, [r5, #-2817]	; 0xfffff4ff
    3260:	7c000000 	stcvc	0, cr0, [r0], {-0}
    3264:	18000095 	stmdane	r0, {r0, r2, r4, r7}
    3268:	01000000 	mrseq	r0, (UNDEF: 0)
    326c:	0003379c 	muleq	r3, ip, r7
    3270:	95881100 	strls	r1, [r8, #256]	; 0x100
    3274:	05ac0000 	streq	r0, [ip, #0]!
    3278:	01120000 	tsteq	r2, r0
    327c:	640c0550 	strvs	r0, [ip], #-1360	; 0xfffffab0
    3280:	00202150 	eoreq	r2, r0, r0, asr r1
    3284:	06a30e00 	strteq	r0, [r3], r0, lsl #28
    3288:	45010000 	strmi	r0, [r1, #-0]
    328c:	0094cc06 	addseq	ip, r4, r6, lsl #24
    3290:	0000b000 	andeq	fp, r0, r0
    3294:	849c0100 	ldrhi	r0, [ip], #256	; 0x100
    3298:	16000004 	strne	r0, [r0], -r4
    329c:	000007ce 	andeq	r0, r0, lr, asr #15
    32a0:	620e7e01 	andvs	r7, lr, #1, 28
    32a4:	0e000000 	cdpeq	0, 0, cr0, cr0, cr0, {0}
    32a8:	94dc1401 	ldrbls	r1, [ip], #1025	; 0x401
    32ac:	05c40000 	strbeq	r0, [r4]
    32b0:	03730000 	cmneq	r3, #0, 0
    32b4:	01120000 	tsteq	r2, r0
    32b8:	123e0150 	eorsne	r0, lr, #20
    32bc:	32015101 	andcc	r5, r1, #1073741824	; 0x40000000
    32c0:	94e81400 	strbtls	r1, [r8], #1024	; 0x400
    32c4:	05c40000 	strbeq	r0, [r4]
    32c8:	038b0000 	orreq	r0, fp, #0, 0
    32cc:	01120000 	tsteq	r2, r0
    32d0:	123f0150 	eorsne	r0, pc, #20
    32d4:	32015101 	andcc	r5, r1, #1073741824	; 0x40000000
    32d8:	94ec0f00 	strbtls	r0, [ip], #3840	; 0xf00
    32dc:	05a00000 	streq	r0, [r0, #0]!
    32e0:	f8140000 			; <UNDEFINED> instruction: 0xf8140000
    32e4:	3d000094 	stccc	0, cr0, [r0, #-592]	; 0xfffffdb0
    32e8:	b0000005 	andlt	r0, r0, r5
    32ec:	12000003 	andne	r0, r0, #3, 0
    32f0:	0c055001 	stceq	0, cr5, [r5], {1}
    32f4:	20215004 	eorcs	r5, r1, r4
    32f8:	01510112 	cmpeq	r1, r2, lsl r1
    32fc:	fc0f0031 	stc2	0, cr0, [pc], {49}	; 0x31
    3300:	a0000094 	mulge	r0, r4, r0
    3304:	14000005 	strne	r0, [r0], #-5
    3308:	0000950c 	andeq	r9, r0, ip, lsl #10
    330c:	000005b8 			; <UNDEFINED> instruction: 0x000005b8
    3310:	000003d2 	ldrdeq	r0, [r0], -r2
    3314:	02500112 	subseq	r0, r0, #-2147483644	; 0x80000004
    3318:	01120074 	tsteq	r2, r4, ror r0
    331c:	00300151 	eorseq	r0, r0, r1, asr r1
    3320:	00951814 	addseq	r1, r5, r4, lsl r8
    3324:	0005b800 	andeq	fp, r5, r0, lsl #16
    3328:	0003ee00 	andeq	lr, r3, r0, lsl #28
    332c:	50011200 	andpl	r1, r1, r0, lsl #4
    3330:	50440c05 	subpl	r0, r4, r5, lsl #24
    3334:	01122021 	tsteq	r2, r1, lsr #32
    3338:	00300151 	eorseq	r0, r0, r1, asr r1
    333c:	00952414 	addseq	r2, r5, r4, lsl r4
    3340:	0005b800 	andeq	fp, r5, r0, lsl #16
    3344:	00040a00 	andeq	r0, r4, r0, lsl #20
    3348:	50011200 	andpl	r1, r1, r0, lsl #4
    334c:	504c0c05 	subpl	r0, ip, r5, lsl #24
    3350:	01122021 	tsteq	r2, r1, lsr #32
    3354:	00330151 	eorseq	r0, r3, r1, asr r1
    3358:	00953014 	addseq	r3, r5, r4, lsl r0
    335c:	0005b800 	andeq	fp, r5, r0, lsl #16
    3360:	00042600 	andeq	r2, r4, r0, lsl #12
    3364:	50011200 	andpl	r1, r1, r0, lsl #4
    3368:	50500c05 	subspl	r0, r0, r5, lsl #24
    336c:	01122021 	tsteq	r2, r1, lsr #32
    3370:	00300151 	eorseq	r0, r0, r1, asr r1
    3374:	00953c14 	addseq	r3, r5, r4, lsl ip
    3378:	0005b800 	andeq	fp, r5, r0, lsl #16
    337c:	00044300 	andeq	r4, r4, r0, lsl #6
    3380:	50011200 	andpl	r1, r1, r0, lsl #4
    3384:	50480c05 	subpl	r0, r8, r5, lsl #24
    3388:	01122021 	tsteq	r2, r1, lsr #32
    338c:	c7080251 	smlsdgt	r8, r1, r2, r0
    3390:	95481400 	strbls	r1, [r8, #-1024]	; 0xfffffc00
    3394:	05b80000 	ldreq	r0, [r8, #0]!
    3398:	04610000 	strbteq	r0, [r1], #-0
    339c:	01120000 	tsteq	r2, r0
    33a0:	680c0550 	stmdavs	ip, {r4, r6, r8, sl}
    33a4:	12202150 	eorne	r2, r0, #20
    33a8:	0a035101 	beq	d77b4 <__bss_end__+0xcd0e4>
    33ac:	1400010e 	strne	r0, [r0], #-270	; 0xfffffef2
    33b0:	00009554 	andeq	r9, r0, r4, asr r5
    33b4:	000005b8 			; <UNDEFINED> instruction: 0x000005b8
    33b8:	0000047a 	andeq	r0, r0, sl, ror r4
    33bc:	02500112 	subseq	r0, r0, #-2147483644	; 0x80000004
    33c0:	01120074 	tsteq	r2, r4, ror r0
    33c4:	00330151 	eorseq	r0, r3, r1, asr r1
    33c8:	0095580f 	addseq	r5, r5, pc, lsl #16
    33cc:	0005a000 	andeq	sl, r5, r0
    33d0:	600e0000 	andvs	r0, lr, r0
    33d4:	01000009 	tsteq	r0, r9
    33d8:	96580635 			; <UNDEFINED> instruction: 0x96580635
    33dc:	00240000 	eoreq	r0, r4, r0
    33e0:	9c010000 	stcls	0, cr0, [r1], {-0}
    33e4:	000004d3 	ldrdeq	r0, [r0], -r3
    33e8:	0096600f 	addseq	r6, r6, pc
    33ec:	00019400 	andeq	r9, r1, r0, lsl #8
    33f0:	96640f00 	strbtls	r0, [r4], -r0, lsl #30
    33f4:	05a00000 	streq	r0, [r0, #0]!
    33f8:	70140000 	andsvc	r0, r4, r0
    33fc:	d3000096 	movwle	r0, #150	; 0x96
    3400:	c9000004 	stmdbgt	r0, {r2}
    3404:	12000004 	andne	r0, r0, #4, 0
    3408:	0c055001 	stceq	0, cr5, [r5], {1}
    340c:	20215004 	eorcs	r5, r1, r4
    3410:	02510112 	subseq	r0, r1, #-2147483644	; 0x80000004
    3414:	0f00fe09 	svceq	0x0000fe09
    3418:	00009674 	andeq	r9, r0, r4, ror r6
    341c:	000005a0 	andeq	r0, r0, r0, lsr #11
    3420:	099f1700 	ldmibeq	pc, {r8, r9, sl, ip}	; <UNPREDICTABLE>
    3424:	31010000 	mrscc	r0, (UNDEF: 1)
    3428:	00948c0d 	addseq	r8, r4, sp, lsl #24
    342c:	00002000 	andeq	r2, r0, r0
    3430:	369c0100 	ldrcc	r0, [ip], r0, lsl #2
    3434:	18000005 	stmdane	r0, {r0, r2}
    3438:	000009f9 	strdeq	r0, [r0], -r9
    343c:	36253101 	strtcc	r3, [r5], -r1, lsl #2
    3440:	9f000005 	svcls	0x00000005
    3444:	9b000020 	blls	34cc <__code_start__-0x4b34>
    3448:	13000020 	movwne	r0, #32
    344c:	006c6176 	rsbeq	r6, ip, r6, ror r1
    3450:	2c343101 	ldfcss	f3, [r4], #-4
    3454:	c1000000 	mrsgt	r0, (UNDEF: 0)
    3458:	bd000020 	stclt	0, cr0, [r0, #-128]	; 0xffffff80
    345c:	14000020 	strne	r0, [r0], #-32	; 0xffffffe0
    3460:	0000949c 	muleq	r0, ip, r4
    3464:	000005ac 	andeq	r0, r0, ip, lsr #11
    3468:	00000525 	andeq	r0, r0, r5, lsr #10
    346c:	02500112 	subseq	r0, r0, #-2147483644	; 0x80000004
    3470:	11000074 	tstne	r0, r4, ror r0
    3474:	000094a8 	andeq	r9, r0, r8, lsr #9
    3478:	000005b8 			; <UNDEFINED> instruction: 0x000005b8
    347c:	02500112 	subseq	r0, r0, #-2147483644	; 0x80000004
    3480:	00000074 	andeq	r0, r0, r4, ror r0
    3484:	053c040c 	ldreq	r0, [ip, #-1036]!	; 0xfffffbf4
    3488:	17190000 	ldrne	r0, [r9, -r0]
    348c:	0000098a 	andeq	r0, r0, sl, lsl #19
    3490:	ac0d2e01 	stcge	14, cr2, [sp], {1}
    3494:	20000094 	mulcs	r0, r4, r0
    3498:	01000000 	mrseq	r0, (UNDEF: 0)
    349c:	0005a09c 	muleq	r5, ip, r0
    34a0:	09f91800 	ldmibeq	r9!, {fp, ip}^
    34a4:	2e010000 	cdpcs	0, 0, cr0, cr1, cr0, {0}
    34a8:	00053624 	andeq	r3, r5, r4, lsr #12
    34ac:	0020e300 	eoreq	lr, r0, r0, lsl #6
    34b0:	0020df00 	eoreq	sp, r0, r0, lsl #30
    34b4:	61761300 	cmnvs	r6, r0, lsl #6
    34b8:	2e01006c 	cdpcs	0, 0, cr0, cr1, cr12, {3}
    34bc:	00002c33 	andeq	r2, r0, r3, lsr ip
    34c0:	00210500 	eoreq	r0, r1, r0, lsl #10
    34c4:	00210100 	eoreq	r0, r1, r0, lsl #2
    34c8:	94bc1400 	ldrtls	r1, [ip], #1024	; 0x400
    34cc:	05ac0000 	streq	r0, [ip, #0]!
    34d0:	058f0000 	streq	r0, [pc]	; 34d8 <__code_start__-0x4b28>
    34d4:	01120000 	tsteq	r2, r0
    34d8:	00740250 	rsbseq	r0, r4, r0, asr r2
    34dc:	94c81100 	strbls	r1, [r8], #256	; 0x100
    34e0:	05b80000 	ldreq	r0, [r8, #0]!
    34e4:	01120000 	tsteq	r2, r0
    34e8:	00740250 	rsbseq	r0, r4, r0, asr r2
    34ec:	6d1a0000 	ldcvs	0, cr0, [sl, #-0]
    34f0:	6d000007 	stcvs	0, cr0, [r0, #-28]	; 0xffffffe4
    34f4:	03000007 	movweq	r0, #7
    34f8:	d41a069c 	ldrle	r0, [sl], #-1692	; 0xfffff964
    34fc:	d4000009 	strle	r0, [r0], #-9
    3500:	03000009 	movweq	r0, #9
    3504:	c81a0bc3 	ldmdagt	sl, {r0, r1, r6, r7, r8, r9, fp}
    3508:	c8000007 	stmdagt	r0, {r0, r1, r2}
    350c:	03000007 	movweq	r0, #7
    3510:	c21a06ae 	andsgt	r0, sl, #182452224	; 0xae00000
    3514:	c2000009 	andgt	r0, r0, #9, 0
    3518:	04000009 	streq	r0, [r0], #-9
    351c:	e9000619 	stmdb	r0, {r0, r3, r4, r9, sl}
    3520:	04000008 	streq	r0, [r0], #-8
    3524:	00142100 	andseq	r2, r4, r0, lsl #2
    3528:	c8010400 	stmdagt	r1, {sl}
    352c:	0c000008 	stceq	0, cr0, [r0], {8}
    3530:	00000a69 	andeq	r0, r0, r9, ror #20
    3534:	00000878 	andeq	r0, r0, r8, ror r8
    3538:	0000967c 	andeq	r9, r0, ip, ror r6
    353c:	000003b0 			; <UNDEFINED> instruction: 0x000003b0
    3540:	00001bb4 			; <UNDEFINED> instruction: 0x00001bb4
    3544:	69050402 	stmdbvs	r5, {r1, sl}
    3548:	0300746e 	movweq	r7, #1134	; 0x46e
    354c:	007e0704 	rsbseq	r0, lr, r4, lsl #14
    3550:	01030000 	mrseq	r0, (UNDEF: 3)
    3554:	00002c06 	andeq	r2, r0, r6, lsl #24
    3558:	05020300 	streq	r0, [r2, #-768]	; 0xfffffd00
    355c:	000000d4 	ldrdeq	r0, [r0], -r4
    3560:	99050403 	stmdbls	r5, {r0, r1, sl}
    3564:	03000000 	movweq	r0, #0
    3568:	00940508 	addseq	r0, r4, r8, lsl #10
    356c:	01030000 	mrseq	r0, (UNDEF: 3)
    3570:	00002a08 	andeq	r2, r0, r8, lsl #20
    3574:	07020300 	streq	r0, [r2, -r0, lsl #6]
    3578:	00000038 	andeq	r0, r0, r8, lsr r0
    357c:	0000e804 	andeq	lr, r0, r4, lsl #16
    3580:	19340300 	ldmdbne	r4!, {r8, r9}
    3584:	00000069 	andeq	r0, r0, r9, rrx
    3588:	79070403 	stmdbvc	r7, {r0, r1, sl}
    358c:	03000000 	movweq	r0, #0
    3590:	00740708 	rsbseq	r0, r4, r8, lsl #14
    3594:	01030000 	mrseq	r0, (UNDEF: 3)
    3598:	00003308 	andeq	r3, r0, r8, lsl #6
    359c:	00770500 	rsbseq	r0, r7, r0, lsl #10
    35a0:	08030000 	stmdaeq	r3, {}	; <UNPREDICTABLE>
    35a4:	00031904 	andeq	r1, r3, r4, lsl #18
    35a8:	07040600 	streq	r0, [r4, -r0, lsl #12]
    35ac:	002c0407 	eoreq	r0, ip, r7, lsl #8
    35b0:	1f010000 	svcne	0x00010000
    35b4:	0000a406 	andeq	sl, r0, r6, lsl #8
    35b8:	09fe0800 	ldmibeq	lr!, {fp}^
    35bc:	00000000 	andeq	r0, r0, r0
    35c0:	09000020 	stmdbeq	r0, {r5}
    35c4:	000005ce 	andeq	r0, r0, lr, asr #11
    35c8:	770d2201 	strvc	r2, [sp, -r1, lsl #4]
    35cc:	0a000000 	beq	35d4 <__code_start__-0x4a2c>
    35d0:	00000a19 	andeq	r0, r0, r9, lsl sl
    35d4:	c20e2301 	andgt	r2, lr, #67108864	; 0x4000000
    35d8:	05000000 	streq	r0, [r0, #-0]
    35dc:	00a29403 	adceq	r9, r2, r3, lsl #8
    35e0:	77040b00 	strvc	r0, [r4, -r0, lsl #22]
    35e4:	0a000000 	beq	35ec <__code_start__-0x4a14>
    35e8:	000009e2 	andeq	r0, r0, r2, ror #19
    35ec:	c20e2401 	andgt	r2, lr, #16777216	; 0x1000000
    35f0:	05000000 	streq	r0, [r0, #-0]
    35f4:	00a29803 	adceq	r9, r2, r3, lsl #16
    35f8:	0a480a00 	beq	1205e00 <__bss_end__+0x11fb730>
    35fc:	25010000 	strcs	r0, [r1, #-0]
    3600:	0000c20e 	andeq	ip, r0, lr, lsl #4
    3604:	9c030500 	cfstr32ls	mvfx0, [r3], {-0}
    3608:	0c0000a2 	stceq	0, cr0, [r0], {162}	; 0xa2
    360c:	00000a1e 	andeq	r0, r0, lr, lsl sl
    3610:	cc067501 	cfstr32gt	mvfx7, [r6], {1}
    3614:	60000099 	mulvs	r0, r9, r0
    3618:	01000000 	mrseq	r0, (UNDEF: 0)
    361c:	0001649c 	muleq	r1, ip, r4
    3620:	00700d00 	rsbseq	r0, r0, r0, lsl #26
    3624:	8a167501 	bhi	5a0a30 <__bss_end__+0x596360>
    3628:	29000000 	stmdbcs	r0, {}	; <UNPREDICTABLE>
    362c:	23000021 	movwcs	r0, #33	; 0x21
    3630:	0e000021 	cdpeq	0, 0, cr0, cr0, cr1, {1}
    3634:	00000062 	andeq	r0, r0, r2, rrx
    3638:	00000174 	andeq	r0, r0, r4, ror r1
    363c:	a2840305 	addge	r0, r4, #335544320	; 0x14000000
    3640:	180f0000 	stmdane	pc, {}	; <UNPREDICTABLE>
    3644:	bc00009a 	stclt	0, cr0, [r0], {154}	; 0x9a
    3648:	5a000008 	bpl	3670 <__code_start__-0x4990>
    364c:	10000001 	andne	r0, r0, r1
    3650:	03055001 	movweq	r5, #20481	; 0x5001
    3654:	0000a1fc 	strdeq	sl, [r0], -ip
    3658:	05510110 	ldrbeq	r0, [r1, #-272]	; 0xfffffef0
    365c:	00a09403 	adceq	r9, r0, r3, lsl #8
    3660:	52011000 	andpl	r1, r1, #0, 0
    3664:	a2840305 	addge	r0, r4, #335544320	; 0x14000000
    3668:	01100000 	tsteq	r0, r0
    366c:	77080253 	smlsdvc	r8, r3, r2, r0
    3670:	007d0210 	rsbseq	r0, sp, r0, lsl r2
    3674:	5001f303 	andpl	pc, r1, r3, lsl #6
    3678:	9a1c1100 	bls	707a80 <__bss_end__+0x6fd3b0>
    367c:	08c80000 	stmiaeq	r8, {}^	; <UNPREDICTABLE>
    3680:	12000000 	andne	r0, r0, #0, 0
    3684:	0000007e 	andeq	r0, r0, lr, ror r0
    3688:	00000174 	andeq	r0, r0, r4, ror r1
    368c:	00002c13 	andeq	r2, r0, r3, lsl ip
    3690:	05000900 	streq	r0, [r0, #-2304]	; 0xfffff700
    3694:	00000164 	andeq	r0, r0, r4, ror #2
    3698:	000a0714 	andeq	r0, sl, r4, lsl r7
    369c:	06720100 	ldrbteq	r0, [r2], -r0, lsl #2
    36a0:	000099b8 			; <UNDEFINED> instruction: 0x000099b8
    36a4:	00000014 	andeq	r0, r0, r4, lsl r0
    36a8:	200c9c01 	andcs	r9, ip, r1, lsl #24
    36ac:	01000002 	tsteq	r0, r2
    36b0:	99b4066f 	ldmibls	r4!, {r0, r1, r2, r3, r5, r6, r9, sl}
    36b4:	00040000 	andeq	r0, r4, r0
    36b8:	9c010000 	stcls	0, cr0, [r1], {-0}
    36bc:	000001ae 	andeq	r0, r0, lr, lsr #3
    36c0:	01007015 	tsteq	r0, r5, lsl r0
    36c4:	008a126f 	addeq	r1, sl, pc, ror #4
    36c8:	50010000 	andpl	r0, r1, r0
    36cc:	0aab1600 	beq	feac8ed4 <__bss_end__+0xfeabe804>
    36d0:	5e010000 	cdppl	0, 0, cr0, cr1, cr0, {0}
    36d4:	00008a07 	andeq	r8, r0, r7, lsl #20
    36d8:	00989c00 	addseq	r9, r8, r0, lsl #24
    36dc:	00011800 	andeq	r1, r1, r0, lsl #16
    36e0:	2c9c0100 	ldfcss	f0, [ip], {0}
    36e4:	17000004 	strne	r0, [r0, -r4]
    36e8:	000002d7 	ldrdeq	r0, [r0], -r7
    36ec:	2c205e01 	stccs	14, cr5, [r0], #-4
    36f0:	6a000000 	bvs	36f8 <__code_start__-0x4908>
    36f4:	56000021 	strpl	r0, [r0], -r1, lsr #32
    36f8:	17000021 	strne	r0, [r0, -r1, lsr #32]
    36fc:	00000a28 	andeq	r0, r0, r8, lsr #20
    3700:	2c315e01 	ldccs	14, cr5, [r1], #-4
    3704:	03000000 	movweq	r0, #0
    3708:	ef000022 	svc	0x00000022
    370c:	0e000021 	cdpeq	0, 0, cr0, cr0, cr1, {1}
    3710:	00000062 	andeq	r0, r0, r2, rrx
    3714:	0000043c 	andeq	r0, r0, ip, lsr r4
    3718:	a26c0305 	rsbge	r0, ip, #335544320	; 0x14000000
    371c:	68180000 	ldmdavs	r8, {}	; <UNPREDICTABLE>
    3720:	0e660100 	poweqs	f0, f6, f0
    3724:	0000002c 	andeq	r0, r0, ip, lsr #32
    3728:	000022b9 			; <UNDEFINED> instruction: 0x000022b9
    372c:	000022ad 	andeq	r2, r0, sp, lsr #5
    3730:	00085419 	andeq	r5, r8, r9, lsl r4
    3734:	0098ac00 	addseq	sl, r8, r0, lsl #24
    3738:	98ac0400 	stmials	ip!, {sl}
    373c:	00040000 	andeq	r0, r4, r0
    3740:	60010000 	andvs	r0, r1, r0
    3744:	00023805 	andeq	r3, r2, r5, lsl #16
    3748:	08651a00 	stmdaeq	r5!, {r9, fp, ip}^
    374c:	230d0000 	movwcs	r0, #53248	; 0xd000
    3750:	230b0000 	movwcs	r0, #45056	; 0xb000
    3754:	19000000 	stmdbne	r0, {}	; <UNPREDICTABLE>
    3758:	00000896 	muleq	r0, r6, r8
    375c:	000098b8 			; <UNDEFINED> instruction: 0x000098b8
    3760:	0098b802 	addseq	fp, r8, r2, lsl #16
    3764:	00000800 	andeq	r0, r0, r0, lsl #16
    3768:	11610100 	cmnne	r1, r0, lsl #2
    376c:	0000026c 	andeq	r0, r0, ip, ror #4
    3770:	0008b11a 	andeq	fp, r8, sl, lsl r1
    3774:	00232200 	eoreq	r2, r3, r0, lsl #4
    3778:	00232000 	eoreq	r2, r3, r0
    377c:	08a71a00 	stmiaeq	r7!, {r9, fp, ip}
    3780:	23380000 	teqcs	r8, #0, 0
    3784:	23360000 	teqcs	r6, #0, 0
    3788:	1b000000 	blne	3790 <__code_start__-0x4870>
    378c:	0000081f 	andeq	r0, r0, pc, lsl r8
    3790:	000098c8 	andeq	r9, r0, r8, asr #17
    3794:	00033801 	andeq	r3, r3, r1, lsl #16
    3798:	09670100 	stmdbeq	r7!, {r8}^
    379c:	0000030a 	andeq	r0, r0, sl, lsl #6
    37a0:	00083a1a 	andeq	r3, r8, sl, lsl sl
    37a4:	00235100 	eoreq	r5, r3, r0, lsl #2
    37a8:	00234b00 	eoreq	r4, r3, r0, lsl #22
    37ac:	08301a00 	ldmdaeq	r0!, {r9, fp, ip}
    37b0:	23980000 	orrscs	r0, r8, #0, 0
    37b4:	23900000 	orrscs	r0, r0, #0, 0
    37b8:	381c0000 	ldmdacc	ip, {}	; <UNPREDICTABLE>
    37bc:	19000003 	stmdbne	r0, {r0, r1}
    37c0:	00000854 	andeq	r0, r0, r4, asr r8
    37c4:	000098c8 	andeq	r9, r0, r8, asr #17
    37c8:	0098c804 	addseq	ip, r8, r4, lsl #16
    37cc:	00000400 	andeq	r0, r0, r0, lsl #8
    37d0:	05110100 	ldreq	r0, [r1, #-256]	; 0xffffff00
    37d4:	000002c7 	andeq	r0, r0, r7, asr #5
    37d8:	0008651a 	andeq	r6, r8, sl, lsl r5
    37dc:	0023d600 	eoreq	sp, r3, r0, lsl #12
    37e0:	0023d400 	eoreq	sp, r3, r0, lsl #8
    37e4:	600f0000 	andvs	r0, pc, r0
    37e8:	bc000099 	stclt	0, cr0, [r0], {153}	; 0x99
    37ec:	ff000008 			; <UNDEFINED> instruction: 0xff000008
    37f0:	10000002 	andne	r0, r0, r2
    37f4:	03055001 	movweq	r5, #20481	; 0x5001
    37f8:	00009d80 	andeq	r9, r0, r0, lsl #27
    37fc:	05510110 	ldrbeq	r0, [r1, #-272]	; 0xfffffef0
    3800:	00a09403 	adceq	r9, r0, r3, lsl #8
    3804:	52011000 	andpl	r1, r1, #0, 0
    3808:	a27c0305 	rsbsge	r0, ip, #335544320	; 0x14000000
    380c:	01100000 	tsteq	r0, r0
    3810:	10410153 	subne	r0, r1, r3, asr r1
    3814:	05007d02 	streq	r7, [r0, #-3330]	; 0xfffff2fe
    3818:	00a1a803 	adceq	sl, r1, r3, lsl #16
    381c:	64110000 	ldrvs	r0, [r1], #-0
    3820:	c8000099 	stmdagt	r0, {r0, r3, r4, r7}
    3824:	00000008 	andeq	r0, r0, r8
    3828:	08701900 	ldmdaeq	r0!, {r8, fp, ip}^
    382c:	98e00000 	stmials	r0!, {}^	; <UNPREDICTABLE>
    3830:	e0030000 	and	r0, r3, r0
    3834:	04000098 	streq	r0, [r0], #-152	; 0xffffff68
    3838:	01000000 	mrseq	r0, (UNDEF: 0)
    383c:	033e0568 	teqeq	lr, #104, 10	; 0x1a000000
    3840:	8b1a0000 	blhi	683848 <__bss_end__+0x679178>
    3844:	eb000008 	bl	386c <__code_start__-0x4794>
    3848:	e9000023 	stmdb	r0, {r0, r1, r5}
    384c:	1a000023 	bne	38e0 <__code_start__-0x4720>
    3850:	00000881 	andeq	r0, r0, r1, lsl #17
    3854:	00002400 	andeq	r2, r0, r0, lsl #8
    3858:	000023fe 	strdeq	r2, [r0], -lr
    385c:	98f80f00 	ldmls	r8!, {r8, r9, sl, fp}^
    3860:	04410000 	strbeq	r0, [r1], #-0
    3864:	03530000 	cmpeq	r3, #0, 0
    3868:	01100000 	tsteq	r0, r0
    386c:	01f30350 	mvnseq	r0, r0, asr r3
    3870:	1c0f0050 	stcne	0, cr0, [pc], {80}	; 0x50
    3874:	bc000099 	stclt	0, cr0, [r0], {153}	; 0x99
    3878:	8c000008 	stchi	0, cr0, [r0], {8}
    387c:	10000003 	andne	r0, r0, r3
    3880:	03055001 	movweq	r5, #20481	; 0x5001
    3884:	00009d80 	andeq	r9, r0, r0, lsl #27
    3888:	05510110 	ldrbeq	r0, [r1, #-272]	; 0xfffffef0
    388c:	00a09403 	adceq	r9, r0, r3, lsl #8
    3890:	52011000 	andpl	r1, r1, #0, 0
    3894:	a26c0305 	rsbge	r0, ip, #335544320	; 0x14000000
    3898:	01100000 	tsteq	r0, r0
    389c:	5f080253 	svcpl	0x00080253
    38a0:	007d0210 	rsbseq	r0, sp, r0, lsl r2
    38a4:	a0a40305 	adcge	r0, r4, r5, lsl #6
    38a8:	11000000 	mrsne	r0, (UNDEF: 0)
    38ac:	00009920 	andeq	r9, r0, r0, lsr #18
    38b0:	000008c8 	andeq	r0, r0, r8, asr #17
    38b4:	00992411 	addseq	r2, r9, r1, lsl r4
    38b8:	0008d400 	andeq	sp, r8, r0, lsl #8
    38bc:	99400f00 	stmdbls	r0, {r8, r9, sl, fp}^
    38c0:	08bc0000 	ldmeq	ip!, {}	; <UNPREDICTABLE>
    38c4:	03d70000 	bicseq	r0, r7, #0, 0
    38c8:	01100000 	tsteq	r0, r0
    38cc:	60030550 	andvs	r0, r3, r0, asr r5
    38d0:	100000a1 	andne	r0, r0, r1, lsr #1
    38d4:	03055101 	movweq	r5, #20737	; 0x5101
    38d8:	0000a094 	muleq	r0, r4, r0
    38dc:	05520110 	ldrbeq	r0, [r2, #-272]	; 0xfffffef0
    38e0:	00a26c03 	adceq	r6, r2, r3, lsl #24
    38e4:	53011000 	movwpl	r1, #4096	; 0x1000
    38e8:	10600802 	rsbne	r0, r0, r2, lsl #16
    38ec:	05007d02 	streq	r7, [r0, #-3330]	; 0xfffff2fe
    38f0:	00a19403 	adceq	r9, r1, r3, lsl #8
    38f4:	44110000 	ldrmi	r0, [r1], #-0
    38f8:	c8000099 	stmdagt	r0, {r0, r3, r4, r7}
    38fc:	11000008 	tstne	r0, r8
    3900:	00009968 	andeq	r9, r0, r8, ror #18
    3904:	000008d4 	ldrdeq	r0, [r0], -r4
    3908:	0099840f 	addseq	r8, r9, pc, lsl #8
    390c:	0008bc00 	andeq	fp, r8, r0, lsl #24
    3910:	00042200 	andeq	r2, r4, r0, lsl #4
    3914:	50011000 	andpl	r1, r1, r0
    3918:	a1b40305 			; <UNDEFINED> instruction: 0xa1b40305
    391c:	01100000 	tsteq	r0, r0
    3920:	94030551 	strls	r0, [r3], #-1361	; 0xfffffaaf
    3924:	100000a0 	andne	r0, r0, r0, lsr #1
    3928:	03055201 	movweq	r5, #20993	; 0x5201
    392c:	0000a26c 	andeq	sl, r0, ip, ror #4
    3930:	02530110 	subseq	r0, r3, #4
    3934:	02106808 	andseq	r6, r0, #8, 16	; 0x80000
    3938:	0305007d 	movweq	r0, #20605	; 0x507d
    393c:	0000a1e0 	andeq	sl, r0, r0, ror #3
    3940:	99881100 	stmibls	r8, {r8, ip}
    3944:	08c80000 	stmiaeq	r8, {}^	; <UNPREDICTABLE>
    3948:	12000000 	andne	r0, r0, #0, 0
    394c:	0000007e 	andeq	r0, r0, lr, ror r0
    3950:	0000043c 	andeq	r0, r0, ip, lsr r4
    3954:	00002c13 	andeq	r2, r0, r3, lsl ip
    3958:	05000f00 	streq	r0, [r0, #-3840]	; 0xfffff100
    395c:	0000042c 	andeq	r0, r0, ip, lsr #8
    3960:	0003fa16 	andeq	pc, r3, r6, lsl sl	; <UNPREDICTABLE>
    3964:	07530100 	ldrbeq	r0, [r3, -r0, lsl #2]
    3968:	0000008a 	andeq	r0, r0, sl, lsl #1
    396c:	00009838 	andeq	r9, r0, r8, lsr r8
    3970:	00000064 	andeq	r0, r0, r4, rrx
    3974:	05089c01 	streq	r9, [r8, #-3073]	; 0xfffff3ff
    3978:	d7170000 	ldrle	r0, [r7, -r0]
    397c:	01000002 	tsteq	r0, r2
    3980:	002c1853 	eoreq	r1, ip, r3, asr r8
    3984:	241b0000 	ldrcs	r0, [fp], #-0
    3988:	24130000 	ldrcs	r0, [r3], #-0
    398c:	620e0000 	andvs	r0, lr, #0, 0
    3990:	18000000 	stmdane	r0, {}	; <UNPREDICTABLE>
    3994:	05000005 	streq	r0, [r0, #-5]
    3998:	00a26403 	adceq	r6, r2, r3, lsl #8
    399c:	09f91d00 	ldmibeq	r9!, {r8, sl, fp, ip}^
    39a0:	55010000 	strpl	r0, [r1, #-0]
    39a4:	00008a0b 	andeq	r8, r0, fp, lsl #20
    39a8:	00245300 	eoreq	r5, r4, r0, lsl #6
    39ac:	00244f00 	eoreq	r4, r4, r0, lsl #30
    39b0:	98500f00 	ldmdals	r0, {r8, r9, sl, fp}^
    39b4:	051d0000 	ldreq	r0, [sp, #-0]
    39b8:	04a60000 	strteq	r0, [r6], #0
    39bc:	01100000 	tsteq	r0, r0
    39c0:	00740250 	rsbseq	r0, r4, r0, asr r2
    39c4:	98600f00 	stmdals	r0!, {r8, r9, sl, fp}^
    39c8:	08e00000 	stmiaeq	r0!, {}^	; <UNPREDICTABLE>
    39cc:	04c50000 	strbeq	r0, [r5], #0
    39d0:	01100000 	tsteq	r0, r0
    39d4:	00750250 	rsbseq	r0, r5, r0, asr r2
    39d8:	01510110 	cmpeq	r1, r0, lsl r1
    39dc:	52011030 	andpl	r1, r1, #48, 0	; 0x30
    39e0:	00007402 	andeq	r7, r0, r2, lsl #8
    39e4:	0098880f 	addseq	r8, r8, pc, lsl #16
    39e8:	0008bc00 	andeq	fp, r8, r0, lsl #24
    39ec:	0004fe00 	andeq	pc, r4, r0, lsl #28
    39f0:	50011000 	andpl	r1, r1, r0
    39f4:	9d800305 	stcls	3, cr0, [r0, #20]
    39f8:	01100000 	tsteq	r0, r0
    39fc:	94030551 	strls	r0, [r3], #-1361	; 0xfffffaaf
    3a00:	100000a0 	andne	r0, r0, r0, lsr #1
    3a04:	03055201 	movweq	r5, #20993	; 0x5201
    3a08:	0000a264 	andeq	sl, r0, r4, ror #4
    3a0c:	02530110 	subseq	r0, r3, #4
    3a10:	02105408 	andseq	r5, r0, #8, 8	; 0x8000000
    3a14:	0305007d 	movweq	r0, #20605	; 0x507d
    3a18:	0000a0a4 	andeq	sl, r0, r4, lsr #1
    3a1c:	988c1100 	stmls	ip, {r8, ip}
    3a20:	08c80000 	stmiaeq	r8, {}^	; <UNPREDICTABLE>
    3a24:	12000000 	andne	r0, r0, #0, 0
    3a28:	0000007e 	andeq	r0, r0, lr, ror r0
    3a2c:	00000518 	andeq	r0, r0, r8, lsl r5
    3a30:	00002c13 	andeq	r2, r0, r3, lsl ip
    3a34:	05000700 	streq	r0, [r0, #-1792]	; 0xfffff900
    3a38:	00000508 	andeq	r0, r0, r8, lsl #10
    3a3c:	000a5116 	andeq	r5, sl, r6, lsl r1
    3a40:	07470100 	strbeq	r0, [r7, -r0, lsl #2]
    3a44:	0000008a 	andeq	r0, r0, sl, lsl #1
    3a48:	000097a0 	andeq	r9, r0, r0, lsr #15
    3a4c:	00000098 	muleq	r0, r8, r0
    3a50:	062b9c01 	strteq	r9, [fp], -r1, lsl #24
    3a54:	d7170000 	ldrle	r0, [r7, -r0]
    3a58:	01000002 	tsteq	r0, r2
    3a5c:	002c2047 	eoreq	r2, ip, r7, asr #32
    3a60:	24810000 	strcs	r0, [r1], #0
    3a64:	24710000 	ldrbtcs	r0, [r1], #-0
    3a68:	620e0000 	andvs	r0, lr, #0, 0
    3a6c:	3c000000 	stccc	0, cr0, [r0], {-0}
    3a70:	05000004 	streq	r0, [r0, #-4]
    3a74:	00a25403 	adceq	r5, r2, r3, lsl #8
    3a78:	09f91d00 	ldmibeq	r9!, {r8, sl, fp, ip}^
    3a7c:	4b010000 	blmi	43a84 <__bss_end__+0x393b4>
    3a80:	00008a0b 	andeq	r8, r0, fp, lsl #20
    3a84:	0024f300 	eoreq	pc, r4, r0, lsl #6
    3a88:	0024ef00 	eoreq	lr, r4, r0, lsl #30
    3a8c:	081f1b00 	ldmdaeq	pc, {r8, r9, fp, ip}	; <UNPREDICTABLE>
    3a90:	97b00000 	ldrls	r0, [r0, r0]!
    3a94:	20030000 	andcs	r0, r3, r0
    3a98:	01000003 	tsteq	r0, r3
    3a9c:	05a30e49 	streq	r0, [r3, #3657]!	; 0xe49
    3aa0:	3a1a0000 	bcc	683aa8 <__bss_end__+0x6793d8>
    3aa4:	13000008 	movwne	r0, #8
    3aa8:	11000025 	tstne	r0, r5, lsr #32
    3aac:	1a000025 	bne	3b48 <__code_start__-0x44b8>
    3ab0:	00000830 	andeq	r0, r0, r0, lsr r8
    3ab4:	0000252b 	andeq	r2, r0, fp, lsr #10
    3ab8:	00002527 	andeq	r2, r0, r7, lsr #10
    3abc:	0003201e 	andeq	r2, r3, lr, lsl r0
    3ac0:	f80f0000 			; <UNDEFINED> instruction: 0xf80f0000
    3ac4:	bc000097 	stclt	0, cr0, [r0], {151}	; 0x97
    3ac8:	dc000008 	stcle	0, cr0, [r0], {8}
    3acc:	10000005 	andne	r0, r0, r5
    3ad0:	03055001 	movweq	r5, #20481	; 0x5001
    3ad4:	00009d80 	andeq	r9, r0, r0, lsl #27
    3ad8:	05510110 	ldrbeq	r0, [r1, #-272]	; 0xfffffef0
    3adc:	00a09403 	adceq	r9, r0, r3, lsl #8
    3ae0:	52011000 	andpl	r1, r1, #0, 0
    3ae4:	a2540305 	subsge	r0, r4, #335544320	; 0x14000000
    3ae8:	01100000 	tsteq	r0, r0
    3aec:	48080253 	stmdami	r8, {r0, r1, r4, r6, r9}
    3af0:	007d0210 	rsbseq	r0, sp, r0, lsl r2
    3af4:	a0a40305 	adcge	r0, r4, r5, lsl #6
    3af8:	11000000 	mrsne	r0, (UNDEF: 0)
    3afc:	000097fc 	strdeq	r9, [r0], -ip
    3b00:	000008c8 	andeq	r0, r0, r8, asr #17
    3b04:	00981c0f 	addseq	r1, r8, pc, lsl #24
    3b08:	0008bc00 	andeq	fp, r8, r0, lsl #24
    3b0c:	00062100 	andeq	r2, r6, r0, lsl #2
    3b10:	50011000 	andpl	r1, r1, r0
    3b14:	a1200305 			; <UNDEFINED> instruction: 0xa1200305
    3b18:	01100000 	tsteq	r0, r0
    3b1c:	94030551 	strls	r0, [r3], #-1361	; 0xfffffaaf
    3b20:	100000a0 	andne	r0, r0, r0, lsr #1
    3b24:	03055201 	movweq	r5, #20993	; 0x5201
    3b28:	0000a254 	andeq	sl, r0, r4, asr r2
    3b2c:	02530110 	subseq	r0, r3, #4
    3b30:	02104e08 	andseq	r4, r0, #8, 28	; 0x80
    3b34:	f308007d 	vqadd.u8	q0, q4, <illegal reg q14.5>
    3b38:	07235001 	streq	r5, [r3, -r1]!
    3b3c:	001af809 	andseq	pc, sl, r9, lsl #16
    3b40:	00982011 	addseq	r2, r8, r1, lsl r0
    3b44:	0008c800 	andeq	ip, r8, r0, lsl #16
    3b48:	730c0000 	movwvc	r0, #49152	; 0xc000
    3b4c:	0100000a 	tsteq	r0, sl
    3b50:	9748063c 	smlaldxls	r0, r8, ip, r6
    3b54:	00580000 	subseq	r0, r8, r0
    3b58:	9c010000 	stcls	0, cr0, [r1], {-0}
    3b5c:	000006cf 	andeq	r0, r0, pc, asr #13
    3b60:	0003770a 	andeq	r7, r3, sl, lsl #14
    3b64:	103d0100 	eorsne	r0, sp, r0, lsl #2
    3b68:	00000025 	andeq	r0, r0, r5, lsr #32
    3b6c:	a6c40305 	strbge	r0, [r4], r5, lsl #6
    3b70:	620e0000 	andvs	r0, lr, #0, 0
    3b74:	df000000 	svcle	0x00000000
    3b78:	05000006 	streq	r0, [r0, #-6]
    3b7c:	00a24403 	adceq	r4, r2, r3, lsl #8
    3b80:	04070700 	streq	r0, [r7], #-1792	; 0xfffff900
    3b84:	0000002c 	andeq	r0, r0, ip, lsr #32
    3b88:	7a0a4201 	bvc	294394 <__bss_end__+0x289cc4>
    3b8c:	08000006 	stmdaeq	r0, {r1, r2}
    3b90:	00000a3a 	andeq	r0, r0, sl, lsr sl
    3b94:	00100000 	andseq	r0, r0, r0
    3b98:	97740f00 	ldrbls	r0, [r4, -r0, lsl #30]!
    3b9c:	06e40000 	strbteq	r0, [r4], r0
    3ba0:	06960000 	ldreq	r0, [r6], r0
    3ba4:	01100000 	tsteq	r0, r0
    3ba8:	40400350 	submi	r0, r0, r0, asr r3
    3bac:	51011024 	tstpl	r1, r4, lsr #32
    3bb0:	24484003 	strbcs	r4, [r8], #-3
    3bb4:	978c0f00 	strls	r0, [ip, r0, lsl #30]
    3bb8:	08bc0000 	ldmeq	ip!, {}	; <UNPREDICTABLE>
    3bbc:	06c50000 	strbeq	r0, [r5], r0
    3bc0:	01100000 	tsteq	r0, r0
    3bc4:	f0030550 			; <UNDEFINED> instruction: 0xf0030550
    3bc8:	100000a0 	andne	r0, r0, r0, lsr #1
    3bcc:	03055101 	movweq	r5, #20737	; 0x5101
    3bd0:	0000a094 	muleq	r0, r4, r0
    3bd4:	05520110 	ldrbeq	r0, [r2, #-272]	; 0xfffffef0
    3bd8:	00a24403 	adceq	r4, r2, r3, lsl #8
    3bdc:	53011000 	movwpl	r1, #4096	; 0x1000
    3be0:	00400802 	subeq	r0, r0, r2, lsl #16
    3be4:	00979011 	addseq	r9, r7, r1, lsl r0
    3be8:	0008c800 	andeq	ip, r8, r0, lsl #16
    3bec:	7e120000 	cdpvc	0, 1, cr0, cr2, cr0, {0}
    3bf0:	df000000 	svcle	0x00000000
    3bf4:	13000006 	movwne	r0, #6
    3bf8:	0000002c 	andeq	r0, r0, ip, lsr #32
    3bfc:	cf05000c 	svcgt	0x0005000c
    3c00:	0c000006 	stceq	0, cr0, [r0], {6}
    3c04:	00000402 	andeq	r0, r0, r2, lsl #8
    3c08:	ac062d01 	stcge	13, cr2, [r6], {1}
    3c0c:	9c000096 	stcls	0, cr0, [r0], {150}	; 0x96
    3c10:	01000000 	mrseq	r0, (UNDEF: 0)
    3c14:	0007c89c 	muleq	r7, ip, r8
    3c18:	09f81700 	ldmibeq	r8!, {r8, r9, sl, ip}^
    3c1c:	2d010000 	stccs	0, cr0, [r1, #-0]
    3c20:	00002c26 	andeq	r2, r0, r6, lsr #24
    3c24:	00255900 	eoreq	r5, r5, r0, lsl #18
    3c28:	00254b00 	eoreq	r4, r5, r0, lsl #22
    3c2c:	09ed1700 	stmibeq	sp!, {r8, r9, sl, ip}^
    3c30:	2d010000 	stccs	0, cr0, [r1, #-0]
    3c34:	00002c36 	andeq	r2, r0, r6, lsr ip
    3c38:	0025c100 	eoreq	ip, r5, r0, lsl #2
    3c3c:	0025b900 	eoreq	fp, r5, r0, lsl #18
    3c40:	09f91d00 	ldmibeq	r9!, {r8, sl, fp, ip}^
    3c44:	2e010000 	cdpcs	0, 0, cr0, cr1, cr0, {0}
    3c48:	0000c20b 	andeq	ip, r0, fp, lsl #4
    3c4c:	00260900 	eoreq	r0, r6, r0, lsl #18
    3c50:	0025fb00 	eoreq	pc, r5, r0, lsl #22
    3c54:	00620e00 	rsbeq	r0, r2, r0, lsl #28
    3c58:	07d80000 	ldrbeq	r0, [r8, r0]
    3c5c:	03050000 	movweq	r0, #20480	; 0x5000
    3c60:	0000a22c 	andeq	sl, r0, ip, lsr #4
    3c64:	0097040f 	addseq	r0, r7, pc, lsl #8
    3c68:	0008bc00 	andeq	fp, r8, r0, lsl #24
    3c6c:	00077e00 	andeq	r7, r7, r0, lsl #28
    3c70:	50011000 	andpl	r1, r1, r0
    3c74:	9d800305 	stcls	3, cr0, [r0, #20]
    3c78:	01100000 	tsteq	r0, r0
    3c7c:	94030551 	strls	r0, [r3], #-1361	; 0xfffffaaf
    3c80:	100000a0 	andne	r0, r0, r0, lsr #1
    3c84:	03055201 	movweq	r5, #20993	; 0x5201
    3c88:	0000a22c 	andeq	sl, r0, ip, lsr #4
    3c8c:	02530110 	subseq	r0, r3, #4
    3c90:	02103008 	andseq	r3, r0, #8, 0
    3c94:	0305007d 	movweq	r0, #20605	; 0x507d
    3c98:	0000a0a0 	andeq	sl, r0, r0, lsr #1
    3c9c:	97081100 	strls	r1, [r8, -r0, lsl #2]
    3ca0:	08c80000 	stmiaeq	r8, {}^	; <UNPREDICTABLE>
    3ca4:	2c0f0000 	stccs	0, cr0, [pc], {-0}
    3ca8:	bc000097 	stclt	0, cr0, [r0], {151}	; 0x97
    3cac:	be000008 	cdplt	0, 0, cr0, cr0, cr8, {0}
    3cb0:	10000007 	andne	r0, r0, r7
    3cb4:	03055001 	movweq	r5, #20481	; 0x5001
    3cb8:	0000a0ac 	andeq	sl, r0, ip, lsr #1
    3cbc:	05510110 	ldrbeq	r0, [r1, #-272]	; 0xfffffef0
    3cc0:	00a09403 	adceq	r9, r0, r3, lsl #8
    3cc4:	52011000 	andpl	r1, r1, #0, 0
    3cc8:	a22c0305 	eorge	r0, ip, #335544320	; 0x14000000
    3ccc:	01100000 	tsteq	r0, r0
    3cd0:	34080253 	strcc	r0, [r8], #-595	; 0xfffffdad
    3cd4:	007d0210 	rsbseq	r0, sp, r0, lsl r2
    3cd8:	5001f303 	andpl	pc, r1, r3, lsl #6
    3cdc:	97301100 	ldrls	r1, [r0, -r0, lsl #2]!
    3ce0:	08c80000 	stmiaeq	r8, {}^	; <UNPREDICTABLE>
    3ce4:	12000000 	andne	r0, r0, #0, 0
    3ce8:	0000007e 	andeq	r0, r0, lr, ror r0
    3cec:	000007d8 	ldrdeq	r0, [r0], -r8
    3cf0:	00002c13 	andeq	r2, r0, r3, lsl ip
    3cf4:	05001600 	streq	r1, [r0, #-1536]	; 0xfffffa00
    3cf8:	000007c8 	andeq	r0, r0, r8, asr #15
    3cfc:	000a8b1f 	andeq	r8, sl, pc, lsl fp
    3d00:	072a0100 	streq	r0, [sl, -r0, lsl #2]!
    3d04:	0000008a 	andeq	r0, r0, sl, lsl #1
    3d08:	0000969c 	muleq	r0, ip, r6
    3d0c:	00000010 	andeq	r0, r0, r0, lsl r0
    3d10:	da1f9c01 	ble	7ead1c <__bss_end__+0x7e064c>
    3d14:	01000009 	tsteq	r0, r9
    3d18:	008a0729 	addeq	r0, sl, r9, lsr #14
    3d1c:	968c0000 	strls	r0, [ip], r0
    3d20:	00100000 	andseq	r0, r0, r0
    3d24:	9c010000 	stcls	0, cr0, [r1], {-0}
    3d28:	000a401f 	andeq	r4, sl, pc, lsl r0
    3d2c:	07280100 	streq	r0, [r8, -r0, lsl #2]!
    3d30:	0000008a 	andeq	r0, r0, sl, lsl #1
    3d34:	0000967c 	andeq	r9, r0, ip, ror r6
    3d38:	00000010 	andeq	r0, r0, r0, lsl r0
    3d3c:	11209c01 			; <UNDEFINED> instruction: 0x11209c01
    3d40:	0100000a 	tsteq	r0, sl
    3d44:	002c1810 	eoreq	r1, ip, r0, lsl r8
    3d48:	54030000 	strpl	r0, [r3], #-0
    3d4c:	21000008 	tstcs	r0, r8
    3d50:	10010078 	andne	r0, r1, r8, ror r0
    3d54:	00002c29 	andeq	r2, r0, r9, lsr #24
    3d58:	006e2100 	rsbeq	r2, lr, r0, lsl #2
    3d5c:	2c351001 	ldccs	0, cr1, [r5], #-4
    3d60:	0e000000 	cdpeq	0, 0, cr0, cr0, cr0, {0}
    3d64:	00000062 	andeq	r0, r0, r2, rrx
    3d68:	00000518 	andeq	r0, r0, r8, lsl r5
    3d6c:	a27c0305 	rsbsge	r0, ip, #335544320	; 0x14000000
    3d70:	20000000 	andcs	r0, r0, r0
    3d74:	00000a61 	andeq	r0, r0, r1, ror #20
    3d78:	2c180d01 	ldccs	13, cr0, [r8], {1}
    3d7c:	03000000 	movweq	r0, #0
    3d80:	00000870 	andeq	r0, r0, r0, ror r8
    3d84:	01007821 	tsteq	r0, r1, lsr #16
    3d88:	002c290d 	eoreq	r2, ip, sp, lsl #18
    3d8c:	20000000 	andcs	r0, r0, r0
    3d90:	00000a80 	andeq	r0, r0, r0, lsl #21
    3d94:	2c180701 	ldccs	7, cr0, [r8], {1}
    3d98:	03000000 	movweq	r0, #0
    3d9c:	00000896 	muleq	r0, r6, r8
    3da0:	01007821 	tsteq	r0, r1, lsr #16
    3da4:	002c2c07 	eoreq	r2, ip, r7, lsl #24
    3da8:	6e210000 	cdpvs	0, 2, cr0, cr1, cr0, {0}
    3dac:	38070100 	stmdacc	r7, {r8}
    3db0:	0000002c 	andeq	r0, r0, ip, lsr #32
    3db4:	0a322000 	beq	c8bdbc <__bss_end__+0xc816ec>
    3db8:	04010000 	streq	r0, [r1], #-0
    3dbc:	00005d18 	andeq	r5, r0, r8, lsl sp
    3dc0:	08bc0300 	ldmeq	ip!, {r8, r9}
    3dc4:	78210000 	stmdavc	r1!, {}	; <UNPREDICTABLE>
    3dc8:	29040100 	stmdbcs	r4, {r8}
    3dcc:	0000005d 	andeq	r0, r0, sp, asr r0
    3dd0:	01007921 	tsteq	r0, r1, lsr #18
    3dd4:	005d3504 	subseq	r3, sp, r4, lsl #10
    3dd8:	22000000 	andcs	r0, r0, #0, 0
    3ddc:	0000053c 	andeq	r0, r0, ip, lsr r5
    3de0:	0000053c 	andeq	r0, r0, ip, lsr r5
    3de4:	22062802 	andcs	r2, r6, #131072	; 0x20000
    3de8:	0000024e 	andeq	r0, r0, lr, asr #4
    3dec:	0000024e 	andeq	r0, r0, lr, asr #4
    3df0:	22066e02 	andcs	r6, r6, #2, 28
    3df4:	00000a9c 	muleq	r0, ip, sl
    3df8:	00000a9c 	muleq	r0, ip, sl
    3dfc:	22061d02 	andcs	r1, r6, #128	; 0x80
    3e00:	00000056 	andeq	r0, r0, r6, asr r0
    3e04:	00000056 	andeq	r0, r0, r6, asr r0
    3e08:	0007f202 	andeq	pc, r7, r2, lsl #4
    3e0c:	00000673 	andeq	r0, r0, r3, ror r6
    3e10:	16440004 	strbne	r0, [r4], -r4
    3e14:	01040000 	mrseq	r0, (UNDEF: 4)
    3e18:	0000045a 	andeq	r0, r0, sl, asr r4
    3e1c:	000aee0c 	andeq	lr, sl, ip, lsl #28
    3e20:	00051200 	andeq	r1, r5, r0, lsl #4
    3e24:	009a2c00 	addseq	r2, sl, r0, lsl #24
    3e28:	00019800 	andeq	r9, r1, r0, lsl #16
    3e2c:	001f4a00 	andseq	r4, pc, r0, lsl #20
    3e30:	07080200 	streq	r0, [r8, -r0, lsl #4]
    3e34:	00000074 	andeq	r0, r0, r4, ror r0
    3e38:	7e070402 	cdpvc	4, 0, cr0, cr7, cr2, {0}
    3e3c:	03000000 	movweq	r0, #0
    3e40:	6e690504 	cdpvs	5, 6, cr0, cr9, cr4, {0}
    3e44:	2c040074 	stccs	0, cr0, [r4], {116}	; 0x74
    3e48:	02000000 	andeq	r0, r0, #0, 0
    3e4c:	002c0601 	eoreq	r0, ip, r1, lsl #12
    3e50:	02020000 	andeq	r0, r2, #0, 0
    3e54:	0000d405 	andeq	sp, r0, r5, lsl #8
    3e58:	05040200 	streq	r0, [r4, #-512]	; 0xfffffe00
    3e5c:	00000099 	muleq	r0, r9, r0
    3e60:	94050802 	strls	r0, [r5], #-2050	; 0xfffff7fe
    3e64:	02000000 	andeq	r0, r0, #0, 0
    3e68:	002a0801 	eoreq	r0, sl, r1, lsl #16
    3e6c:	02020000 	andeq	r0, r2, #0, 0
    3e70:	00003807 	andeq	r3, r0, r7, lsl #16
    3e74:	00e80500 	rsceq	r0, r8, r0, lsl #10
    3e78:	34030000 	strcc	r0, [r3], #-0
    3e7c:	00007519 	andeq	r7, r0, r9, lsl r5
    3e80:	07040200 	streq	r0, [r4, -r0, lsl #4]
    3e84:	00000079 	andeq	r0, r0, r9, ror r0
    3e88:	00003306 	andeq	r3, r0, r6, lsl #6
    3e8c:	00008b00 	andeq	r8, r0, r0, lsl #22
    3e90:	00330700 	eorseq	r0, r3, r0, lsl #14
    3e94:	08000000 	stmdaeq	r0, {}	; <UNPREDICTABLE>
    3e98:	000000f1 	strdeq	r0, [r0], -r1
    3e9c:	970e1c02 	strls	r1, [lr, -r2, lsl #24]
    3ea0:	09000000 	stmdbeq	r0, {}	; <UNPREDICTABLE>
    3ea4:	00007c04 	andeq	r7, r0, r4, lsl #24
    3ea8:	00330600 	eorseq	r0, r3, r0, lsl #12
    3eac:	00ac0000 	adceq	r0, ip, r0
    3eb0:	ac070000 	stcge	0, cr0, [r7], {-0}
    3eb4:	00000000 	andeq	r0, r0, r0
    3eb8:	00b90409 	adcseq	r0, r9, r9, lsl #8
    3ebc:	01020000 	mrseq	r0, (UNDEF: 2)
    3ec0:	00003308 	andeq	r3, r0, r8, lsl #6
    3ec4:	00b20400 	adcseq	r0, r2, r0, lsl #8
    3ec8:	7a080000 	bvc	203ed0 <__bss_end__+0x1f9800>
    3ecc:	02000005 	andeq	r0, r0, #5, 0
    3ed0:	00ca0e21 	sbceq	r0, sl, r1, lsr #28
    3ed4:	04090000 	streq	r0, [r9], #-0
    3ed8:	0000009d 	muleq	r0, sp, r0
    3edc:	5b01070a 	blpl	45b0c <__bss_end__+0x3b43c>
    3ee0:	04000000 	streq	r0, [r0], #-0
    3ee4:	010f0e0c 	tsteq	pc, ip, lsl #28
    3ee8:	b20b0000 	andlt	r0, fp, #0, 0
    3eec:	00000009 	andeq	r0, r0, r9
    3ef0:	0007ea0b 	andeq	lr, r7, fp, lsl #20
    3ef4:	2d0b0100 	stfcss	f0, [fp, #-0]
    3ef8:	04000008 	streq	r0, [r0], #-8
    3efc:	00083c0b 	andeq	r3, r8, fp, lsl #24
    3f00:	4b0b0500 	blmi	2c5308 <__bss_end__+0x2bac38>
    3f04:	06000008 	streq	r0, [r0], -r8
    3f08:	00085a0b 	andeq	r5, r8, fp, lsl #20
    3f0c:	7b0b0700 	blvc	2c5b14 <__bss_end__+0x2bb444>
    3f10:	03000009 	movweq	r0, #9
    3f14:	0008690b 	andeq	r6, r8, fp, lsl #18
    3f18:	05000200 	streq	r0, [r0, #-512]	; 0xfffffe00
    3f1c:	00000b27 	andeq	r0, r0, r7, lsr #22
    3f20:	d0031504 	andle	r1, r3, r4, lsl #10
    3f24:	0c000000 	stceq	0, cr0, [r0], {-0}
    3f28:	00000ac5 	andeq	r0, r0, r5, asr #21
    3f2c:	3a171d01 	bcc	5cb338 <__bss_end__+0x5c0c68>
    3f30:	1c000000 	stcne	0, cr0, [r0], {-0}
    3f34:	0c202000 	stceq	0, cr2, [r0], #-0
    3f38:	00000abb 			; <UNDEFINED> instruction: 0x00000abb
    3f3c:	3a171e01 	bcc	5cb748 <__bss_end__+0x5c1078>
    3f40:	28000000 	stmdacs	r0, {}	; <UNPREDICTABLE>
    3f44:	0c202000 	stceq	0, cr2, [r0], #-0
    3f48:	00000b33 	andeq	r0, r0, r3, lsr fp
    3f4c:	3a171f01 	bcc	5cbb58 <__bss_end__+0x5c1488>
    3f50:	34000000 	strcc	r0, [r0], #-0
    3f54:	0d202000 	stceq	0, cr2, [r0, #-0]
    3f58:	00000ae4 	andeq	r0, r0, r4, ror #21
    3f5c:	33055101 	movwcc	r5, #20737	; 0x5101
    3f60:	9c000000 	stcls	0, cr0, [r0], {-0}
    3f64:	2800009b 	stmdacs	r0, {r0, r1, r3, r4, r7}
    3f68:	01000000 	mrseq	r0, (UNDEF: 0)
    3f6c:	0001ba9c 	muleq	r1, ip, sl
    3f70:	69700e00 	ldmdbvs	r0!, {r9, sl, fp}^
    3f74:	5101006e 	tstpl	r1, lr, rrx
    3f78:	00002c18 	andeq	r2, r0, r8, lsl ip
    3f7c:	00266f00 	eoreq	r6, r6, r0, lsl #30
    3f80:	00266900 	eoreq	r6, r6, r0, lsl #18
    3f84:	0b3d0f00 	bleq	f47b8c <__bss_end__+0xf3d4bc>
    3f88:	52010000 	andpl	r0, r1, #0, 0
    3f8c:	00002c0e 	andeq	r2, r0, lr, lsl #24
    3f90:	0026a500 	eoreq	sl, r6, r0, lsl #10
    3f94:	00269b00 	eoreq	r9, r6, r0, lsl #22
    3f98:	666f1000 	strbtvs	r1, [pc], -r0
    3f9c:	53010066 	movwpl	r0, #4198	; 0x1066
    3fa0:	00002c0e 	andeq	r2, r0, lr, lsl #24
    3fa4:	00271300 	eoreq	r1, r7, r0, lsl #6
    3fa8:	00270d00 	eoreq	r0, r7, r0, lsl #26
    3fac:	9bb01100 	blls	fec083b4 <__bss_end__+0xfebfdce4>
    3fb0:	065e0000 	ldrbeq	r0, [lr], -r0
    3fb4:	01120000 	tsteq	r2, r0
    3fb8:	00740a50 	rsbseq	r0, r4, r0, asr sl
    3fbc:	b4232535 	strtlt	r2, [r3], #-1333	; 0xfffffacb
    3fc0:	02818080 	addeq	r8, r1, #128, 0	; 0x80
    3fc4:	cf130000 	svcgt	0x00130000
    3fc8:	0100000a 	tsteq	r0, sl
    3fcc:	9b6c064a 	blls	1b058fc <__bss_end__+0x1afb22c>
    3fd0:	00300000 	eorseq	r0, r0, r0
    3fd4:	9c010000 	stcls	0, cr0, [r1], {-0}
    3fd8:	00000275 	andeq	r0, r0, r5, ror r2
    3fdc:	6e69700e 	cdpvs	0, 6, cr7, cr9, cr14, {0}
    3fe0:	1a4a0100 	bne	12843e8 <__bss_end__+0x1279d18>
    3fe4:	0000002c 	andeq	r0, r0, ip, lsr #32
    3fe8:	00002750 	andeq	r2, r0, r0, asr r7
    3fec:	00002744 	andeq	r2, r0, r4, asr #14
    3ff0:	0100760e 	tsteq	r0, lr, lsl #12
    3ff4:	002c284a 	eoreq	r2, ip, sl, asr #16
    3ff8:	27a40000 	strcs	r0, [r4, r0]!
    3ffc:	27a00000 	strcs	r0, [r0, r0]!
    4000:	8d140000 	ldchi	0, cr0, [r4, #-0]
    4004:	7c000003 	stcvc	0, cr0, [r0], {3}
    4008:	0100009b 	swpeq	r0, fp, [r0]	; <UNPREDICTABLE>
    400c:	000003f0 	strdeq	r0, [r0], -r0	; <UNPREDICTABLE>
    4010:	35094c01 	strcc	r4, [r9, #-3073]	; 0xfffff3ff
    4014:	15000002 	strne	r0, [r0, #-2]
    4018:	0000039a 	muleq	r0, sl, r3
    401c:	000027cb 	andeq	r2, r0, fp, asr #15
    4020:	000027c5 	andeq	r2, r0, r5, asr #15
    4024:	009b8816 	addseq	r8, fp, r6, lsl r8
    4028:	00066a00 	andeq	r6, r6, r0, lsl #20
    402c:	50011200 	andpl	r1, r1, r0, lsl #4
    4030:	001c0c05 	andseq	r0, ip, r5, lsl #24
    4034:	01122020 	tsteq	r2, r0, lsr #32
    4038:	f3310551 	vqrshl.u64	q0, <illegal reg q0.5>, <illegal reg q0.5>
    403c:	00245001 	eoreq	r5, r4, r1
    4040:	03731700 	cmneq	r3, #0, 14
    4044:	9b880000 	blls	fe20404c <__bss_end__+0xfe1f997c>
    4048:	88020000 	stmdahi	r2, {}	; <UNPREDICTABLE>
    404c:	1400009b 	strne	r0, [r0], #-155	; 0xffffff65
    4050:	01000000 	mrseq	r0, (UNDEF: 0)
    4054:	8015094e 	andshi	r0, r5, lr, asr #18
    4058:	fd000003 	stc2	0, cr0, [r0, #-12]
    405c:	f7000027 			; <UNDEFINED> instruction: 0xf7000027
    4060:	16000027 	strne	r0, [r0], -r7, lsr #32
    4064:	00009b94 	muleq	r0, r4, fp
    4068:	0000066a 	andeq	r0, r0, sl, ror #12
    406c:	05500112 	ldrbeq	r0, [r0, #-274]	; 0xfffffeee
    4070:	2000280c 	andcs	r2, r0, ip, lsl #16
    4074:	51011220 	tstpl	r1, r0, lsr #4
    4078:	01f33105 	mvnseq	r3, r5, lsl #2
    407c:	00002450 	andeq	r2, r0, r0, asr r4
    4080:	0afb1300 	beq	ffec8c88 <__bss_end__+0xffebe5b8>
    4084:	45010000 	strmi	r0, [r1, #-0]
    4088:	009b1406 	addseq	r1, fp, r6, lsl #8
    408c:	00005800 	andeq	r5, r0, r0, lsl #16
    4090:	739c0100 	orrsvc	r0, ip, #0
    4094:	0e000003 	cdpeq	0, 0, cr0, cr0, cr3, {0}
    4098:	006e6970 	rsbeq	r6, lr, r0, ror r9
    409c:	2c1e4501 	cfldr32cs	mvfx4, [lr], {1}
    40a0:	2f000000 	svccs	0x00000000
    40a4:	29000028 	stmdbcs	r0, {r3, r5}
    40a8:	18000028 	stmdane	r0, {r3, r5}
    40ac:	000004a5 	andeq	r0, r0, r5, lsr #9
    40b0:	00009b14 	andeq	r9, r0, r4, lsl fp
    40b4:	0003b002 	andeq	fp, r3, r2
    40b8:	05460100 	strbeq	r0, [r6, #-256]	; 0xffffff00
    40bc:	0004be19 	andeq	fp, r4, r9, lsl lr
    40c0:	b2150000 	andslt	r0, r5, #0, 0
    40c4:	61000004 	tstvs	r0, r4
    40c8:	5b000028 	blpl	4170 <__code_start__-0x3e90>
    40cc:	1a000028 	bne	4174 <__code_start__-0x3e8c>
    40d0:	000003b0 			; <UNDEFINED> instruction: 0x000003b0
    40d4:	0004ca1b 	andeq	ip, r4, fp, lsl sl
    40d8:	04d61b00 	ldrbeq	r1, [r6], #2816	; 0xb00
    40dc:	e01b0000 	ands	r0, fp, r0
    40e0:	18000004 	stmdane	r0, {r2}
    40e4:	000004a5 	andeq	r0, r0, r5, lsr #9
    40e8:	00009b1c 	andeq	r9, r0, ip, lsl fp
    40ec:	0003d000 	andeq	sp, r3, r0
    40f0:	06280100 	strteq	r0, [r8], -r0, lsl #2
    40f4:	0004be19 	andeq	fp, r4, r9, lsl lr
    40f8:	b2150000 	andslt	r0, r5, #0, 0
    40fc:	93000004 	movwls	r0, #4
    4100:	8d000028 	stchi	0, cr0, [r0, #-160]	; 0xffffff60
    4104:	1a000028 	bne	41ac <__code_start__-0x3e54>
    4108:	000003d0 	ldrdeq	r0, [r0], -r0	; <UNPREDICTABLE>
    410c:	0004ca1c 	andeq	ip, r4, ip, lsl sl
    4110:	0028c500 	eoreq	ip, r8, r0, lsl #10
    4114:	0028bf00 	eoreq	fp, r8, r0, lsl #30
    4118:	04d61c00 	ldrbeq	r1, [r6], #3072	; 0xc00
    411c:	29070000 	stmdbcs	r7, {}	; <UNPREDICTABLE>
    4120:	29010000 	stmdbcs	r1, {}	; <UNPREDICTABLE>
    4124:	e01c0000 	ands	r0, ip, r0
    4128:	5d000004 	stcpl	0, cr0, [r0, #-16]
    412c:	55000029 	strpl	r0, [r0, #-41]	; 0xffffffd7
    4130:	1d000029 	stcne	0, cr0, [r0, #-164]	; 0xffffff5c
    4134:	00009b44 	andeq	r9, r0, r4, asr #22
    4138:	0000065e 	andeq	r0, r0, lr, asr r6
    413c:	0000033b 	andeq	r0, r0, fp, lsr r3
    4140:	02500112 	subseq	r0, r0, #-2147483644	; 0x80000004
    4144:	16000076 			; <UNDEFINED> instruction: 0x16000076
    4148:	00009b68 	andeq	r9, r0, r8, ror #22
    414c:	0000066a 	andeq	r0, r0, sl, ror #12
    4150:	25500112 	ldrbcs	r0, [r0, #-274]	; 0xfffffeee
    4154:	f75001f3 			; <UNDEFINED> instruction: 0xf75001f3
    4158:	f425f72c 	vld1.8	{d15}, [r5 :128], ip
    415c:	cccd0825 	stclgt	8, cr0, [sp], {37}	; 0x25
    4160:	0000cccc 	andeq	ip, r0, ip, asr #25
    4164:	081e0000 	ldmdaeq	lr, {}	; <UNPREDICTABLE>
    4168:	2525f720 	strcs	pc, [r5, #-1824]!	; 0xfffff8e0
    416c:	00f72cf7 	ldrshteq	r2, [r7], #199	; 0xc7
    4170:	80232533 	eorhi	r2, r3, r3, lsr r5
    4174:	3240a080 	subcc	sl, r0, #128, 0	; 0x80
    4178:	00000024 	andeq	r0, r0, r4, lsr #32
    417c:	1e000000 	cdpne	0, 0, cr0, cr0, cr0, {0}
    4180:	00000b0a 	andeq	r0, r0, sl, lsl #22
    4184:	030d4001 	movweq	r4, #53249	; 0xd001
    4188:	0000038d 	andeq	r0, r0, sp, lsl #7
    418c:	6e69701f 	mcrvs	0, 3, r7, cr9, cr15, {0}
    4190:	23400100 	movtcs	r0, #256	; 0x100
    4194:	0000002c 	andeq	r0, r0, ip, lsr #32
    4198:	0b421e00 	bleq	108b9a0 <__bss_end__+0x10812d0>
    419c:	3b010000 	blcc	441a4 <__bss_end__+0x39ad4>
    41a0:	03a7030d 			; <UNDEFINED> instruction: 0x03a7030d
    41a4:	701f0000 	andsvc	r0, pc, r0
    41a8:	01006e69 	tsteq	r0, r9, ror #28
    41ac:	002c223b 	eoreq	r2, ip, fp, lsr r2
    41b0:	13000000 	movwne	r0, #0
    41b4:	00000b17 	andeq	r0, r0, r7, lsl fp
    41b8:	8c063601 	stchi	6, cr3, [r6], {1}
    41bc:	5800009a 	stmdapl	r0, {r1, r3, r4, r7}
    41c0:	01000000 	mrseq	r0, (UNDEF: 0)
    41c4:	0004a59c 	muleq	r4, ip, r5
    41c8:	69700e00 	ldmdbvs	r0!, {r9, sl, fp}^
    41cc:	3601006e 	strcc	r0, [r1], -lr, rrx
    41d0:	00002c1f 	andeq	r2, r0, pc, lsl ip
    41d4:	0029bb00 	eoreq	fp, r9, r0, lsl #22
    41d8:	0029b700 	eoreq	fp, r9, r0, lsl #14
    41dc:	04a51800 	strteq	r1, [r5], #2048	; 0x800
    41e0:	9a8c0000 	bls	fe3041e8 <__bss_end__+0xfe2f9b18>
    41e4:	70020000 	andvc	r0, r2, r0
    41e8:	01000003 	tsteq	r0, r3
    41ec:	be190537 	mrclt	5, 0, r0, cr9, cr7, {1}
    41f0:	01000004 	tsteq	r0, r4
    41f4:	0004b215 	andeq	fp, r4, r5, lsl r2
    41f8:	0029e000 	eoreq	lr, r9, r0
    41fc:	0029dc00 	eoreq	sp, r9, r0, lsl #24
    4200:	03701a00 	cmneq	r0, #0, 20
    4204:	ca1b0000 	bgt	6c420c <__bss_end__+0x6b9b3c>
    4208:	1b000004 	blne	4220 <__code_start__-0x3de0>
    420c:	000004d6 	ldrdeq	r0, [r0], -r6
    4210:	0004e01b 	andeq	lr, r4, fp, lsl r0
    4214:	04a51800 	strteq	r1, [r5], #2048	; 0x800
    4218:	9a940000 	bls	fe504220 <__bss_end__+0xfe4f9b50>
    421c:	90000000 	andls	r0, r0, r0
    4220:	01000003 	tsteq	r0, r3
    4224:	be190628 	cfmsub32lt	mvax1, mvfx0, mvfx9, mvfx8
    4228:	01000004 	tsteq	r0, r4
    422c:	0004b215 	andeq	fp, r4, r5, lsl r2
    4230:	002a0500 	eoreq	r0, sl, r0, lsl #10
    4234:	002a0100 	eoreq	r0, sl, r0, lsl #2
    4238:	03901a00 	orrseq	r1, r0, #0, 20
    423c:	ca1c0000 	bgt	704244 <__bss_end__+0x6f9b74>
    4240:	2a000004 	bcs	4258 <__code_start__-0x3da8>
    4244:	2600002a 	strcs	r0, [r0], -sl, lsr #32
    4248:	1c00002a 	stcne	0, cr0, [r0], {42}	; 0x2a
    424c:	000004d6 	ldrdeq	r0, [r0], -r6
    4250:	00002a76 	andeq	r2, r0, r6, ror sl
    4254:	00002a70 	andeq	r2, r0, r0, ror sl
    4258:	0004e01c 	andeq	lr, r4, ip, lsl r0
    425c:	002acc00 	eoreq	ip, sl, r0, lsl #24
    4260:	002ac400 	eoreq	ip, sl, r0, lsl #8
    4264:	9ac01d00 	bls	ff00b66c <__bss_end__+0xff000f9c>
    4268:	065e0000 	ldrbeq	r0, [lr], -r0
    426c:	046d0000 	strbteq	r0, [sp], #-0
    4270:	01120000 	tsteq	r2, r0
    4274:	00750250 	rsbseq	r0, r5, r0, asr r2
    4278:	9ae01600 	bls	ff809a80 <__bss_end__+0xff7ff3b0>
    427c:	066a0000 	strbteq	r0, [sl], -r0
    4280:	01120000 	tsteq	r2, r0
    4284:	01f32550 	mvnseq	r2, r0, asr r5
    4288:	f72cf750 			; <UNDEFINED> instruction: 0xf72cf750
    428c:	0825f425 	stmdaeq	r5!, {r0, r2, r5, sl, ip, sp, lr, pc}
    4290:	cccccccd 	stclgt	12, cr12, [ip], {205}	; 0xcd
    4294:	00000000 	andeq	r0, r0, r0
    4298:	f720081e 			; <UNDEFINED> instruction: 0xf720081e
    429c:	2cf72525 	cfldr64cs	mvdx2, [r7], #148	; 0x94
    42a0:	253300f7 	ldrcs	r0, [r3, #-247]!	; 0xffffff09
    42a4:	a0808023 	addge	r8, r0, r3, lsr #32
    42a8:	00243240 	eoreq	r3, r4, r0, asr #4
    42ac:	00000000 	andeq	r0, r0, r0
    42b0:	09c21e00 	stmibeq	r2, {r9, sl, fp, ip}^
    42b4:	28010000 	stmdacs	r1, {}	; <UNPREDICTABLE>
    42b8:	04eb0106 	strbteq	r0, [fp], #262	; 0x106
    42bc:	701f0000 	andsvc	r0, pc, r0
    42c0:	01006e69 	tsteq	r0, r9, ror #28
    42c4:	002c2128 	eoreq	r2, ip, r8, lsr #2
    42c8:	5d200000 	stcpl	0, cr0, [r0, #-0]
    42cc:	01000000 	mrseq	r0, (UNDEF: 0)
    42d0:	010f3228 	tsteq	pc, r8, lsr #4
    42d4:	6f210000 	svcvs	0x00210000
    42d8:	01006666 	tsteq	r0, r6, ror #12
    42dc:	002c0e2d 	eoreq	r0, ip, sp, lsr #28
    42e0:	67210000 	strvs	r0, [r1, -r0]!
    42e4:	0e2e0100 	sufeqe	f0, f6, f0
    42e8:	0000002c 	andeq	r0, r0, ip, lsr #32
    42ec:	01007621 	tsteq	r0, r1, lsr #12
    42f0:	002c0e30 	eoreq	r0, ip, r0, lsr lr
    42f4:	22000000 	andcs	r0, r0, #0, 0
    42f8:	00000ada 	ldrdeq	r0, [r0], -sl
    42fc:	6918b102 	ldmdbvs	r8, {r1, r8, ip, sp, pc}
    4300:	03000000 	movweq	r0, #0
    4304:	00000507 	andeq	r0, r0, r7, lsl #10
    4308:	0200781f 	andeq	r7, r0, #2031616	; 0x1f0000
    430c:	00692bb1 	strhteq	r2, [r9], #-177	; 0xffffff4f
    4310:	23000000 	movwcs	r0, #0
    4314:	000004a5 	andeq	r0, r0, r5, lsr #9
    4318:	00009a2c 	andeq	r9, r0, ip, lsr #20
    431c:	00000060 	andeq	r0, r0, r0, rrx
    4320:	05e49c01 	strbeq	r9, [r4, #3073]!	; 0xc01
    4324:	b2150000 	andslt	r0, r5, #0, 0
    4328:	0b000004 	bleq	4340 <__code_start__-0x3cc0>
    432c:	0700002b 	streq	r0, [r0, -fp, lsr #32]
    4330:	1500002b 	strne	r0, [r0, #-43]	; 0xffffffd5
    4334:	000004be 			; <UNDEFINED> instruction: 0x000004be
    4338:	00002b30 	andeq	r2, r0, r0, lsr fp
    433c:	00002b2c 	andeq	r2, r0, ip, lsr #22
    4340:	0004ca1b 	andeq	ip, r4, fp, lsl sl
    4344:	04d61b00 	ldrbeq	r1, [r6], #2816	; 0xb00
    4348:	e01b0000 	ands	r0, fp, r0
    434c:	18000004 	stmdane	r0, {r2}
    4350:	000004a5 	andeq	r0, r0, r5, lsr #9
    4354:	00009a34 	andeq	r9, r0, r4, lsr sl
    4358:	00035000 	andeq	r5, r3, r0
    435c:	06280100 	strteq	r0, [r8], -r0, lsl #2
    4360:	0004be15 	andeq	fp, r4, r5, lsl lr
    4364:	002b5500 	eoreq	r5, fp, r0, lsl #10
    4368:	002b5100 	eoreq	r5, fp, r0, lsl #2
    436c:	04b21500 	ldrteq	r1, [r2], #1280	; 0x500
    4370:	2b7a0000 	blcs	1e84378 <__bss_end__+0x1e79ca8>
    4374:	2b760000 	blcs	1d8437c <__bss_end__+0x1d79cac>
    4378:	501a0000 	andspl	r0, sl, r0
    437c:	1c000003 	stcne	0, cr0, [r0], {3}
    4380:	000004ca 	andeq	r0, r0, sl, asr #9
    4384:	00002b9f 	muleq	r0, pc, fp	; <UNPREDICTABLE>
    4388:	00002b9b 	muleq	r0, fp, fp
    438c:	0004d61c 	andeq	sp, r4, ip, lsl r6
    4390:	002beb00 	eoreq	lr, fp, r0, lsl #22
    4394:	002be500 	eoreq	lr, fp, r0, lsl #10
    4398:	04e01c00 	strbteq	r1, [r0], #3072	; 0xc00
    439c:	2c410000 	marcs	acc0, r0, r1
    43a0:	2c390000 	ldccs	0, cr0, [r9], #-0
    43a4:	6c1d0000 	ldcvs	0, cr0, [sp], {-0}
    43a8:	5e00009a 	mcrpl	0, 0, r0, cr0, cr10, {4}
    43ac:	ae000006 	cdpge	0, 0, cr0, cr0, cr6, {0}
    43b0:	12000005 	andne	r0, r0, #5, 0
    43b4:	76025001 	strvc	r5, [r2], -r1
    43b8:	88160000 	ldmdahi	r6, {}	; <UNPREDICTABLE>
    43bc:	6a00009a 	bvs	462c <__code_start__-0x39d4>
    43c0:	12000006 	andne	r0, r0, #6, 0
    43c4:	f3255001 	vhadd.u32	d5, d5, d1
    43c8:	2cf75001 	ldclcs	0, cr5, [r7], #4
    43cc:	25f425f7 	ldrbcs	r2, [r4, #1527]!	; 0x5f7
    43d0:	cccccd08 	stclgt	13, cr12, [ip], {8}
    43d4:	000000cc 	andeq	r0, r0, ip, asr #1
    43d8:	20081e00 	andcs	r1, r8, r0, lsl #28
    43dc:	f72525f7 			; <UNDEFINED> instruction: 0xf72525f7
    43e0:	3300f72c 	movwcc	pc, #1836	; 0x72c	; <UNPREDICTABLE>
    43e4:	80802325 	addhi	r2, r0, r5, lsr #6
    43e8:	243240a0 	ldrtcs	r4, [r2], #-160	; 0xffffff60
    43ec:	00000000 	andeq	r0, r0, r0
    43f0:	00038d23 	andeq	r8, r3, r3, lsr #26
    43f4:	009ae400 	addseq	lr, sl, r0, lsl #8
    43f8:	00001800 	andeq	r1, r0, r0, lsl #16
    43fc:	219c0100 	orrscs	r0, ip, r0, lsl #2
    4400:	15000006 	strne	r0, [r0, #-6]
    4404:	0000039a 	muleq	r0, sl, r3
    4408:	00002c97 	muleq	r0, r7, ip
    440c:	00002c91 	muleq	r0, r1, ip
    4410:	009af816 	addseq	pc, sl, r6, lsl r8	; <UNPREDICTABLE>
    4414:	00066a00 	andeq	r6, r6, r0, lsl #20
    4418:	50011200 	andpl	r1, r1, r0, lsl #4
    441c:	001c0c05 	andseq	r0, ip, r5, lsl #24
    4420:	01122020 	tsteq	r2, r0, lsr #32
    4424:	f3310551 	vqrshl.u64	q0, <illegal reg q0.5>, <illegal reg q0.5>
    4428:	00245001 	eoreq	r5, r4, r1
    442c:	03732300 	cmneq	r3, #0, 6
    4430:	9afc0000 	bls	fff04438 <__bss_end__+0xffef9d68>
    4434:	00180000 	andseq	r0, r8, r0
    4438:	9c010000 	stcls	0, cr0, [r1], {-0}
    443c:	0000065e 	andeq	r0, r0, lr, asr r6
    4440:	00038015 	andeq	r8, r3, r5, lsl r0
    4444:	002cc900 	eoreq	ip, ip, r0, lsl #18
    4448:	002cc300 	eoreq	ip, ip, r0, lsl #6
    444c:	9b101600 	blls	409c54 <__bss_end__+0x3ff584>
    4450:	066a0000 	strbteq	r0, [sl], -r0
    4454:	01120000 	tsteq	r2, r0
    4458:	280c0550 	stmdacs	ip, {r4, r6, r8, sl}
    445c:	12202000 	eorne	r2, r0, #0, 0
    4460:	31055101 	tstcc	r5, r1, lsl #2
    4464:	245001f3 	ldrbcs	r0, [r0], #-499	; 0xfffffe0d
    4468:	97240000 	strls	r0, [r4, -r0]!
    446c:	97000007 	strls	r0, [r0, -r7]
    4470:	02000007 	andeq	r0, r0, #7, 0
    4474:	03240ac2 			; <UNDEFINED> instruction: 0x03240ac2
    4478:	03000007 	movweq	r0, #7
    447c:	02000007 	andeq	r0, r0, #7, 0
    4480:	490006ad 	stmdbmi	r0, {r0, r2, r3, r5, r7, r9, sl}
    4484:	04000001 	streq	r0, [r0], #-1
    4488:	00187200 	andseq	r7, r8, r0, lsl #4
    448c:	5a010400 	bpl	45494 <__bss_end__+0x3adc4>
    4490:	0c000004 	stceq	0, cr0, [r0], {4}
    4494:	00000b6c 	andeq	r0, r0, ip, ror #22
    4498:	00000512 	andeq	r0, r0, r2, lsl r5
    449c:	00009bc4 	andeq	r9, r0, r4, asr #23
    44a0:	0000003c 	andeq	r0, r0, ip, lsr r0
    44a4:	000021d7 	ldrdeq	r2, [r0], -r7
    44a8:	69050402 	stmdbvs	r5, {r1, sl}
    44ac:	0300746e 	movweq	r7, #1134	; 0x46e
    44b0:	007e0704 	rsbseq	r0, lr, r4, lsl #14
    44b4:	01030000 	mrseq	r0, (UNDEF: 3)
    44b8:	00002c06 	andeq	r2, r0, r6, lsl #24
    44bc:	05020300 	streq	r0, [r2, #-768]	; 0xfffffd00
    44c0:	000000d4 	ldrdeq	r0, [r0], -r4
    44c4:	99050403 	stmdbls	r5, {r0, r1, sl}
    44c8:	03000000 	movweq	r0, #0
    44cc:	00940508 	addseq	r0, r4, r8, lsl #10
    44d0:	01030000 	mrseq	r0, (UNDEF: 3)
    44d4:	00002a08 	andeq	r2, r0, r8, lsl #20
    44d8:	07020300 	streq	r0, [r2, -r0, lsl #6]
    44dc:	00000038 	andeq	r0, r0, r8, lsr r0
    44e0:	79070403 	stmdbvc	r7, {r0, r1, sl}
    44e4:	03000000 	movweq	r0, #0
    44e8:	00740708 	rsbseq	r0, r4, r8, lsl #14
    44ec:	25040000 	strcs	r0, [r4, #-0]
    44f0:	7a000000 	bvc	44f8 <__code_start__-0x3b08>
    44f4:	05000000 	streq	r0, [r0, #-0]
    44f8:	00000025 	andeq	r0, r0, r5, lsr #32
    44fc:	00f10600 	rscseq	r0, r1, r0, lsl #12
    4500:	1c020000 	stcne	0, cr0, [r2], {-0}
    4504:	0000860e 	andeq	r8, r0, lr, lsl #12
    4508:	6b040700 	blvs	106110 <__bss_end__+0xfba40>
    450c:	04000000 	streq	r0, [r0], #-0
    4510:	00000025 	andeq	r0, r0, r5, lsr #32
    4514:	0000009b 	muleq	r0, fp, r0
    4518:	00009b05 	andeq	r9, r0, r5, lsl #22
    451c:	04070000 	streq	r0, [r7], #-0
    4520:	000000a8 	andeq	r0, r0, r8, lsr #1
    4524:	33080103 	movwcc	r0, #33027	; 0x8103
    4528:	08000000 	stmdaeq	r0, {}	; <UNPREDICTABLE>
    452c:	000000a1 	andeq	r0, r0, r1, lsr #1
    4530:	00057a06 	andeq	r7, r5, r6, lsl #20
    4534:	0e210200 	cdpeq	2, 2, cr0, cr1, cr0, {0}
    4538:	000000b9 	strheq	r0, [r0], -r9
    453c:	008c0407 	addeq	r0, ip, r7, lsl #8
    4540:	7a090000 	bvc	244548 <__bss_end__+0x239e78>
    4544:	01000000 	mrseq	r0, (UNDEF: 0)
    4548:	03050706 	movweq	r0, #22278	; 0x5706
    454c:	0000a2a0 	andeq	sl, r0, r0, lsr #5
    4550:	000b5f0a 	andeq	r5, fp, sl, lsl #30
    4554:	060b0100 	streq	r0, [fp], -r0, lsl #2
    4558:	00009bf0 	strdeq	r9, [r0], -r0
    455c:	00000010 	andeq	r0, r0, r0, lsl r0
    4560:	00f19c01 	rscseq	r9, r1, r1, lsl #24
    4564:	660b0000 	strvs	r0, [fp], -r0
    4568:	0b010070 	bleq	44730 <__bss_end__+0x3a060>
    456c:	00008619 	andeq	r8, r0, r9, lsl r6
    4570:	00500100 	subseq	r0, r0, r0, lsl #2
    4574:	000a9c0c 	andeq	r9, sl, ip, lsl #24
    4578:	06080100 	streq	r0, [r8], -r0, lsl #2
    457c:	00009bd8 	ldrdeq	r9, [r0], -r8
    4580:	00000018 	andeq	r0, r0, r8, lsl r0
    4584:	4e0d9c01 	cdpmi	12, 0, cr9, cr13, cr1, {0}
    4588:	0100000b 	tsteq	r0, fp
    458c:	00250c03 	eoreq	r0, r5, r3, lsl #24
    4590:	9bc40000 	blls	ff104598 <__bss_end__+0xff0f9ec8>
    4594:	00140000 	andseq	r0, r4, r0
    4598:	9c010000 	stcls	0, cr0, [r1], {-0}
    459c:	00000140 	andeq	r0, r0, r0, asr #2
    45a0:	0100630e 	tsteq	r0, lr, lsl #6
    45a4:	00252103 	eoreq	r2, r5, r3, lsl #2
    45a8:	2cf90000 	ldclcs	0, cr0, [r9]
    45ac:	2cf50000 	ldclcs	0, cr0, [r5]
    45b0:	d00f0000 	andle	r0, pc, r0
    45b4:	4000009b 	mulmi	r0, fp, r0
    45b8:	10000001 	andne	r0, r0, r1
    45bc:	74025001 	strvc	r5, [r2], #-1
    45c0:	11000000 	mrsne	r0, (UNDEF: 0)
    45c4:	000009a8 	andeq	r0, r0, r8, lsr #19
    45c8:	000009a8 	andeq	r0, r0, r8, lsr #19
    45cc:	00064202 	andeq	r4, r6, r2, lsl #4
    45d0:	00000137 	andeq	r0, r0, r7, lsr r1
    45d4:	19810004 	stmibne	r1, {r2}
    45d8:	01040000 	mrseq	r0, (UNDEF: 4)
    45dc:	0000045a 	andeq	r0, r0, sl, asr r4
    45e0:	000b7d0c 	andeq	r7, fp, ip, lsl #26
    45e4:	00051200 	andeq	r1, r5, r0, lsl #4
    45e8:	009c0000 	addseq	r0, ip, r0
    45ec:	00002c00 	andeq	r2, r0, r0, lsl #24
    45f0:	00227900 	eoreq	r7, r2, r0, lsl #18
    45f4:	05040200 	streq	r0, [r4, #-512]	; 0xfffffe00
    45f8:	00746e69 	rsbseq	r6, r4, r9, ror #28
    45fc:	7e070403 	cdpvc	4, 0, cr0, cr7, cr3, {0}
    4600:	03000000 	movweq	r0, #0
    4604:	002c0601 	eoreq	r0, ip, r1, lsl #12
    4608:	02030000 	andeq	r0, r3, #0, 0
    460c:	0000d405 	andeq	sp, r0, r5, lsl #8
    4610:	05040300 	streq	r0, [r4, #-768]	; 0xfffffd00
    4614:	00000099 	muleq	r0, r9, r0
    4618:	94050803 	strls	r0, [r5], #-2051	; 0xfffff7fd
    461c:	03000000 	movweq	r0, #0
    4620:	002a0801 	eoreq	r0, sl, r1, lsl #16
    4624:	02030000 	andeq	r0, r3, #0, 0
    4628:	00003807 	andeq	r3, r0, r7, lsl #16
    462c:	07040300 	streq	r0, [r4, -r0, lsl #6]
    4630:	00000079 	andeq	r0, r0, r9, ror r0
    4634:	74070803 	strvc	r0, [r7], #-2051	; 0xfffff7fd
    4638:	04000000 	streq	r0, [r0], #-0
    463c:	00000025 	andeq	r0, r0, r5, lsr #32
    4640:	0000007a 	andeq	r0, r0, sl, ror r0
    4644:	00002505 	andeq	r2, r0, r5, lsl #10
    4648:	f1060000 	cps	#0
    464c:	02000000 	andeq	r0, r0, #0, 0
    4650:	00860e1c 	addeq	r0, r6, ip, lsl lr
    4654:	04070000 	streq	r0, [r7], #-0
    4658:	0000006b 	andeq	r0, r0, fp, rrx
    465c:	00002504 	andeq	r2, r0, r4, lsl #10
    4660:	00009b00 	andeq	r9, r0, r0, lsl #22
    4664:	009b0500 	addseq	r0, fp, r0, lsl #10
    4668:	07000000 	streq	r0, [r0, -r0]
    466c:	0000a804 	andeq	sl, r0, r4, lsl #16
    4670:	08010300 	stmdaeq	r1, {r8, r9}
    4674:	00000033 	andeq	r0, r0, r3, lsr r0
    4678:	0000a108 	andeq	sl, r0, r8, lsl #2
    467c:	057a0600 	ldrbeq	r0, [sl, #-1536]!	; 0xfffffa00
    4680:	21020000 	mrscs	r0, (UNDEF: 2)
    4684:	0000b90e 	andeq	fp, r0, lr, lsl #18
    4688:	8c040700 	stchi	7, cr0, [r4], {-0}
    468c:	09000000 	stmdbeq	r0, {}	; <UNPREDICTABLE>
    4690:	000005f6 	strdeq	r0, [r0], -r6
    4694:	34070401 	strcc	r0, [r7], #-1025	; 0xfffffbff
    4698:	00000001 	andeq	r0, r0, r1
    469c:	2c00009c 	stccs	0, cr0, [r0], {156}	; 0x9c
    46a0:	01000000 	mrseq	r0, (UNDEF: 0)
    46a4:	0001349c 	muleq	r1, ip, r4
    46a8:	0b8d0a00 	bleq	fe346eb0 <__bss_end__+0xfe33c7e0>
    46ac:	04010000 	streq	r0, [r1], #-0
    46b0:	00013415 	andeq	r3, r1, r5, lsl r4
    46b4:	0b500100 	bleq	1404abc <__bss_end__+0x13fa3ec>
    46b8:	00637273 	rsbeq	r7, r3, r3, ror r2
    46bc:	9b270401 	blls	9c56c8 <__bss_end__+0x9baff8>
    46c0:	1b000000 	blne	46c8 <__code_start__-0x3938>
    46c4:	1700002d 	strne	r0, [r0, -sp, lsr #32]
    46c8:	0c00002d 	stceq	0, cr0, [r0], {45}	; 0x2d
    46cc:	01003173 	tsteq	r0, r3, ror r1
    46d0:	01340b05 	teqeq	r4, r5, lsl #22
    46d4:	2d4a0000 	stclcs	0, cr0, [sl, #-0]
    46d8:	2d3c0000 	ldccs	0, cr0, [ip, #-0]
    46dc:	730c0000 	movwvc	r0, #49152	; 0xc000
    46e0:	06010032 			; <UNDEFINED> instruction: 0x06010032
    46e4:	00009b11 	andeq	r9, r0, r1, lsl fp
    46e8:	002da900 	eoreq	sl, sp, r0, lsl #18
    46ec:	002da300 	eoreq	sl, sp, r0, lsl #6
    46f0:	00630c00 	rsbeq	r0, r3, r0, lsl #24
    46f4:	a10a0701 	tstge	sl, r1, lsl #14
    46f8:	da000000 	ble	4700 <__code_start__-0x3900>
    46fc:	d400002d 	strle	r0, [r0], #-45	; 0xffffffd3
    4700:	0000002d 	andeq	r0, r0, sp, lsr #32
    4704:	00a10407 	adceq	r0, r1, r7, lsl #8
    4708:	f7000000 			; <UNDEFINED> instruction: 0xf7000000
    470c:	04000000 	streq	r0, [r0], #-0
    4710:	001a3700 	andseq	r3, sl, r0, lsl #14
    4714:	5a010400 	bpl	4571c <__bss_end__+0x3b04c>
    4718:	0c000004 	stceq	0, cr0, [r0], {4}
    471c:	00000b92 	muleq	r0, r2, fp
    4720:	00000512 	andeq	r0, r0, r2, lsl r5
    4724:	00009c2c 	andeq	r9, r0, ip, lsr #24
    4728:	00000044 	andeq	r0, r0, r4, asr #32
    472c:	0000235f 	andeq	r2, r0, pc, asr r3
    4730:	69050402 	stmdbvs	r5, {r1, sl}
    4734:	0300746e 	movweq	r7, #1134	; 0x46e
    4738:	007e0704 	rsbseq	r0, lr, r4, lsl #14
    473c:	01030000 	mrseq	r0, (UNDEF: 3)
    4740:	00002c06 	andeq	r2, r0, r6, lsl #24
    4744:	05020300 	streq	r0, [r2, #-768]	; 0xfffffd00
    4748:	000000d4 	ldrdeq	r0, [r0], -r4
    474c:	99050403 	stmdbls	r5, {r0, r1, sl}
    4750:	03000000 	movweq	r0, #0
    4754:	00940508 	addseq	r0, r4, r8, lsl #10
    4758:	01030000 	mrseq	r0, (UNDEF: 3)
    475c:	00002a08 	andeq	r2, r0, r8, lsl #20
    4760:	07020300 	streq	r0, [r2, -r0, lsl #6]
    4764:	00000038 	andeq	r0, r0, r8, lsr r0
    4768:	79070403 	stmdbvc	r7, {r0, r1, sl}
    476c:	03000000 	movweq	r0, #0
    4770:	00740708 	rsbseq	r0, r4, r8, lsl #14
    4774:	25040000 	strcs	r0, [r4, #-0]
    4778:	7a000000 	bvc	4780 <__code_start__-0x3880>
    477c:	05000000 	streq	r0, [r0, #-0]
    4780:	00000025 	andeq	r0, r0, r5, lsr #32
    4784:	00f10600 	rscseq	r0, r1, r0, lsl #12
    4788:	1c020000 	stcne	0, cr0, [r2], {-0}
    478c:	0000860e 	andeq	r8, r0, lr, lsl #12
    4790:	6b040700 	blvs	106398 <__bss_end__+0xfbcc8>
    4794:	04000000 	streq	r0, [r0], #-0
    4798:	00000025 	andeq	r0, r0, r5, lsr #32
    479c:	0000009b 	muleq	r0, fp, r0
    47a0:	00009b05 	andeq	r9, r0, r5, lsl #22
    47a4:	04070000 	streq	r0, [r7], #-0
    47a8:	000000a8 	andeq	r0, r0, r8, lsr #1
    47ac:	33080103 	movwcc	r0, #33027	; 0x8103
    47b0:	08000000 	stmdaeq	r0, {}	; <UNPREDICTABLE>
    47b4:	000000a1 	andeq	r0, r0, r1, lsr #1
    47b8:	00057a06 	andeq	r7, r5, r6, lsl #20
    47bc:	0e210200 	cdpeq	2, 2, cr0, cr1, cr0, {0}
    47c0:	000000b9 	strheq	r0, [r0], -r9
    47c4:	008c0407 	addeq	r0, ip, r7, lsl #8
    47c8:	24090000 	strcs	r0, [r9], #-0
    47cc:	01000006 	tsteq	r0, r6
    47d0:	00250503 	eoreq	r0, r5, r3, lsl #10
    47d4:	9c2c0000 	stcls	0, cr0, [ip], #-0
    47d8:	00440000 	subeq	r0, r4, r0
    47dc:	9c010000 	stcls	0, cr0, [r1], {-0}
    47e0:	0100610a 	tsteq	r0, sl, lsl #2
    47e4:	009b1803 	addseq	r1, fp, r3, lsl #16
    47e8:	2e110000 	cdpcs	0, 1, cr0, cr1, cr0, {0}
    47ec:	2e050000 	cdpcs	0, 0, cr0, cr5, cr0, {0}
    47f0:	620a0000 	andvs	r0, sl, #0, 0
    47f4:	27030100 	strcs	r0, [r3, -r0, lsl #2]
    47f8:	0000009b 	muleq	r0, fp, r0
    47fc:	00002e65 	andeq	r2, r0, r5, ror #28
    4800:	00002e5f 	andeq	r2, r0, pc, asr lr
    4804:	010f0000 	mrseq	r0, CPSR
    4808:	00040000 	andeq	r0, r4, r0
    480c:	00001ac6 	andeq	r1, r0, r6, asr #21
    4810:	045a0104 	ldrbeq	r0, [sl], #-260	; 0xfffffefc
    4814:	a20c0000 	andge	r0, ip, #0, 0
    4818:	1200000b 	andne	r0, r0, #11, 0
    481c:	70000005 	andvc	r0, r0, r5
    4820:	1800009c 	stmdane	r0, {r2, r3, r4, r7}
    4824:	15000000 	strne	r0, [r0, #-0]
    4828:	02000024 	andeq	r0, r0, #36, 0	; 0x24
    482c:	6e690504 	cdpvs	5, 6, cr0, cr9, cr4, {0}
    4830:	04030074 	streq	r0, [r3], #-116	; 0xffffff8c
    4834:	00007e07 	andeq	r7, r0, r7, lsl #28
    4838:	06010300 	streq	r0, [r1], -r0, lsl #6
    483c:	0000002c 	andeq	r0, r0, ip, lsr #32
    4840:	d4050203 	strle	r0, [r5], #-515	; 0xfffffdfd
    4844:	03000000 	movweq	r0, #0
    4848:	00990504 	addseq	r0, r9, r4, lsl #10
    484c:	08030000 	stmdaeq	r3, {}	; <UNPREDICTABLE>
    4850:	00009405 	andeq	r9, r0, r5, lsl #8
    4854:	08010300 	stmdaeq	r1, {r8, r9}
    4858:	0000002a 	andeq	r0, r0, sl, lsr #32
    485c:	38070203 	stmdacc	r7, {r0, r1, r9}
    4860:	03000000 	movweq	r0, #0
    4864:	00790704 	rsbseq	r0, r9, r4, lsl #14
    4868:	08030000 	stmdaeq	r3, {}	; <UNPREDICTABLE>
    486c:	00007407 	andeq	r7, r0, r7, lsl #8
    4870:	00250400 	eoreq	r0, r5, r0, lsl #8
    4874:	007a0000 	rsbseq	r0, sl, r0
    4878:	25050000 	strcs	r0, [r5, #-0]
    487c:	00000000 	andeq	r0, r0, r0
    4880:	0000f106 	andeq	pc, r0, r6, lsl #2
    4884:	0e1c0200 	cdpeq	2, 1, cr0, cr12, cr0, {0}
    4888:	00000086 	andeq	r0, r0, r6, lsl #1
    488c:	006b0407 	rsbeq	r0, fp, r7, lsl #8
    4890:	25040000 	strcs	r0, [r4, #-0]
    4894:	9b000000 	blls	489c <__code_start__-0x3764>
    4898:	05000000 	streq	r0, [r0, #-0]
    489c:	0000009b 	muleq	r0, fp, r0
    48a0:	a8040700 	stmdage	r4, {r8, r9, sl}
    48a4:	03000000 	movweq	r0, #0
    48a8:	00330801 	eorseq	r0, r3, r1, lsl #16
    48ac:	a1080000 	mrsge	r0, (UNDEF: 8)
    48b0:	06000000 	streq	r0, [r0], -r0
    48b4:	0000057a 	andeq	r0, r0, sl, ror r5
    48b8:	b90e2102 	stmdblt	lr, {r1, r8, sp}
    48bc:	07000000 	streq	r0, [r0, -r0]
    48c0:	00008c04 	andeq	r8, r0, r4, lsl #24
    48c4:	05fd0900 	ldrbeq	r0, [sp, #2304]!	; 0x900
    48c8:	03010000 	movweq	r0, #4096	; 0x1000
    48cc:	00010c07 	andeq	r0, r1, r7, lsl #24
    48d0:	009c7000 	addseq	r7, ip, r0
    48d4:	00001800 	andeq	r1, r0, r0, lsl #16
    48d8:	0c9c0100 	ldfeqs	f0, [ip], {0}
    48dc:	0a000001 	beq	48e8 <__code_start__-0x3718>
    48e0:	01003173 	tsteq	r0, r3, ror r1
    48e4:	010c1503 	tsteq	ip, r3, lsl #10
    48e8:	50010000 	andpl	r0, r1, r0
    48ec:	0032730b 	eorseq	r7, r2, fp, lsl #6
    48f0:	9b260301 	blls	9854fc <__bss_end__+0x97ae2c>
    48f4:	94000000 	strls	r0, [r0], #-0
    48f8:	8e00002e 	cdphi	0, 0, cr0, cr0, cr14, {1}
    48fc:	0c00002e 	stceq	0, cr0, [r0], {46}	; 0x2e
    4900:	04010073 	streq	r0, [r1], #-115	; 0xffffff8d
    4904:	00010c14 	andeq	r0, r1, r4, lsl ip
    4908:	002ec100 	eoreq	ip, lr, r0, lsl #2
    490c:	002ebf00 	eoreq	fp, lr, r0, lsl #30
    4910:	04070000 	streq	r0, [r7], #-0
    4914:	000000a1 	andeq	r0, r0, r1, lsr #1
    4918:	00014e00 	andeq	r4, r1, r0, lsl #28
    491c:	7c000400 	cfstrsvc	mvf0, [r0], {-0}
    4920:	0400001b 	streq	r0, [r0], #-27	; 0xffffffe5
    4924:	00045a01 	andeq	r5, r4, r1, lsl #20
    4928:	0bb20c00 	bleq	fec87930 <__bss_end__+0xfec7d260>
    492c:	05120000 	ldreq	r0, [r2, #-0]
    4930:	9c880000 	stcls	0, cr0, [r8], {0}
    4934:	00300000 	eorseq	r0, r0, r0
    4938:	24b60000 	ldrtcs	r0, [r6], #0
    493c:	04020000 	streq	r0, [r2], #-0
    4940:	746e6905 	strbtvc	r6, [lr], #-2309	; 0xfffff6fb
    4944:	04430300 	strbeq	r0, [r3], #-768	; 0xfffffd00
    4948:	d1030000 	mrsle	r0, (UNDEF: 3)
    494c:	00003817 	andeq	r3, r0, r7, lsl r8
    4950:	07040400 	streq	r0, [r4, -r0, lsl #8]
    4954:	0000007e 	andeq	r0, r0, lr, ror r0
    4958:	2c060104 	stfcss	f0, [r6], {4}
    495c:	04000000 	streq	r0, [r0], #-0
    4960:	00d40502 	sbcseq	r0, r4, r2, lsl #10
    4964:	04040000 	streq	r0, [r4], #-0
    4968:	00009905 	andeq	r9, r0, r5, lsl #18
    496c:	05080400 	streq	r0, [r8, #-1024]	; 0xfffffc00
    4970:	00000094 	muleq	r0, r4, r0
    4974:	2a080104 	bcs	204d8c <__bss_end__+0x1fa6bc>
    4978:	05000000 	streq	r0, [r0, #-0]
    497c:	0000005b 	andeq	r0, r0, fp, asr r0
    4980:	38070204 	stmdacc	r7, {r2, r9}
    4984:	04000000 	streq	r0, [r0], #-0
    4988:	00790704 	rsbseq	r0, r9, r4, lsl #14
    498c:	08040000 	stmdaeq	r4, {}	; <UNPREDICTABLE>
    4990:	00007407 	andeq	r7, r0, r7, lsl #8
    4994:	00250600 	eoreq	r0, r5, r0, lsl #12
    4998:	008b0000 	addeq	r0, fp, r0
    499c:	25070000 	strcs	r0, [r7, #-0]
    49a0:	00000000 	andeq	r0, r0, r0
    49a4:	0000f108 	andeq	pc, r0, r8, lsl #2
    49a8:	0e1c0200 	cdpeq	2, 1, cr0, cr12, cr0, {0}
    49ac:	00000097 	muleq	r0, r7, r0
    49b0:	007c0409 	rsbseq	r0, ip, r9, lsl #8
    49b4:	25060000 	strcs	r0, [r6, #-0]
    49b8:	ac000000 	stcge	0, cr0, [r0], {-0}
    49bc:	07000000 	streq	r0, [r0, -r0]
    49c0:	000000ac 	andeq	r0, r0, ip, lsr #1
    49c4:	b9040900 	stmdblt	r4, {r8, fp}
    49c8:	04000000 	streq	r0, [r0], #-0
    49cc:	00330801 	eorseq	r0, r3, r1, lsl #16
    49d0:	b2050000 	andlt	r0, r5, #0, 0
    49d4:	08000000 	stmdaeq	r0, {}	; <UNPREDICTABLE>
    49d8:	0000057a 	andeq	r0, r0, sl, ror r5
    49dc:	ca0e2102 	bgt	38cdec <__bss_end__+0x38271c>
    49e0:	09000000 	stmdbeq	r0, {}	; <UNPREDICTABLE>
    49e4:	00009d04 	andeq	r9, r0, r4, lsl #26
    49e8:	06450a00 	strbeq	r0, [r5], -r0, lsl #20
    49ec:	04010000 	streq	r0, [r1], #-0
    49f0:	00002505 	andeq	r2, r0, r5, lsl #10
    49f4:	009c8800 	addseq	r8, ip, r0, lsl #16
    49f8:	00003000 	andeq	r3, r0, r0
    49fc:	4b9c0100 	blmi	fe704e04 <__bss_end__+0xfe6fa734>
    4a00:	0b000001 	bleq	4a0c <__code_start__-0x35f4>
    4a04:	0031735f 	eorseq	r7, r1, pc, asr r3
    4a08:	ac190401 	cfldrsge	mvf0, [r9], {1}
    4a0c:	d8000000 	stmdale	r0, {}	; <UNPREDICTABLE>
    4a10:	d400002e 	strle	r0, [r0], #-46	; 0xffffffd2
    4a14:	0b00002e 	bleq	4ad4 <__code_start__-0x352c>
    4a18:	0032735f 	eorseq	r7, r2, pc, asr r3
    4a1c:	ac2a0401 	cfstrsge	mvf0, [sl], #-4
    4a20:	fd000000 	stc2	0, cr0, [r0, #-0]
    4a24:	f900002e 			; <UNDEFINED> instruction: 0xf900002e
    4a28:	0b00002e 	bleq	4ae8 <__code_start__-0x3518>
    4a2c:	0401006e 	streq	r0, [r1], #-110	; 0xffffff92
    4a30:	00002c36 	andeq	r2, r0, r6, lsr ip
    4a34:	002f2800 	eoreq	r2, pc, r0, lsl #16
    4a38:	002f1e00 	eoreq	r1, pc, r0, lsl #28
    4a3c:	31730c00 	cmncc	r3, r0, lsl #24
    4a40:	1a050100 	bne	144e48 <__bss_end__+0x13a778>
    4a44:	0000014b 	andeq	r0, r0, fp, asr #2
    4a48:	00002f7f 	andeq	r2, r0, pc, ror pc
    4a4c:	00002f77 	andeq	r2, r0, r7, ror pc
    4a50:	0032730c 	eorseq	r7, r2, ip, lsl #6
    4a54:	4b2c0501 	blmi	b05e60 <__bss_end__+0xafb790>
    4a58:	bd000001 	stclt	0, cr0, [r0, #-4]
    4a5c:	b700002f 	strlt	r0, [r0, -pc, lsr #32]
    4a60:	0000002f 	andeq	r0, r0, pc, lsr #32
    4a64:	00620409 	rsbeq	r0, r2, r9, lsl #8
    4a68:	ce000000 	cdpgt	0, 0, cr0, cr0, cr0, {0}
    4a6c:	04000000 	streq	r0, [r0], #-0
    4a70:	001c3000 	andseq	r3, ip, r0
    4a74:	5a010400 	bpl	45a7c <__bss_end__+0x3b3ac>
    4a78:	0c000004 	stceq	0, cr0, [r0], {4}
    4a7c:	00000bc3 	andeq	r0, r0, r3, asr #23
    4a80:	00000512 	andeq	r0, r0, r2, lsl r5
    4a84:	00009cb8 			; <UNDEFINED> instruction: 0x00009cb8
    4a88:	00000004 	andeq	r0, r0, r4
    4a8c:	000025b7 			; <UNDEFINED> instruction: 0x000025b7
    4a90:	69050402 	stmdbvs	r5, {r1, sl}
    4a94:	0300746e 	movweq	r7, #1134	; 0x46e
    4a98:	007e0704 	rsbseq	r0, lr, r4, lsl #14
    4a9c:	01030000 	mrseq	r0, (UNDEF: 3)
    4aa0:	00002c06 	andeq	r2, r0, r6, lsl #24
    4aa4:	05020300 	streq	r0, [r2, #-768]	; 0xfffffd00
    4aa8:	000000d4 	ldrdeq	r0, [r0], -r4
    4aac:	99050403 	stmdbls	r5, {r0, r1, sl}
    4ab0:	03000000 	movweq	r0, #0
    4ab4:	00940508 	addseq	r0, r4, r8, lsl #10
    4ab8:	01030000 	mrseq	r0, (UNDEF: 3)
    4abc:	00002a08 	andeq	r2, r0, r8, lsl #20
    4ac0:	07020300 	streq	r0, [r2, -r0, lsl #6]
    4ac4:	00000038 	andeq	r0, r0, r8, lsr r0
    4ac8:	79070403 	stmdbvc	r7, {r0, r1, sl}
    4acc:	03000000 	movweq	r0, #0
    4ad0:	00740708 	rsbseq	r0, r4, r8, lsl #14
    4ad4:	25040000 	strcs	r0, [r4, #-0]
    4ad8:	7a000000 	bvc	4ae0 <__code_start__-0x3520>
    4adc:	05000000 	streq	r0, [r0, #-0]
    4ae0:	00000025 	andeq	r0, r0, r5, lsr #32
    4ae4:	00f10600 	rscseq	r0, r1, r0, lsl #12
    4ae8:	1c020000 	stcne	0, cr0, [r2], {-0}
    4aec:	0000860e 	andeq	r8, r0, lr, lsl #12
    4af0:	6b040700 	blvs	1066f8 <__bss_end__+0xfc028>
    4af4:	04000000 	streq	r0, [r0], #-0
    4af8:	00000025 	andeq	r0, r0, r5, lsr #32
    4afc:	0000009b 	muleq	r0, fp, r0
    4b00:	00009b05 	andeq	r9, r0, r5, lsl #22
    4b04:	04070000 	streq	r0, [r7], #-0
    4b08:	000000a8 	andeq	r0, r0, r8, lsr #1
    4b0c:	33080103 	movwcc	r0, #33027	; 0x8103
    4b10:	08000000 	stmdaeq	r0, {}	; <UNPREDICTABLE>
    4b14:	000000a1 	andeq	r0, r0, r1, lsr #1
    4b18:	00057a06 	andeq	r7, r5, r6, lsl #20
    4b1c:	0e210200 	cdpeq	2, 2, cr0, cr1, cr0, {0}
    4b20:	000000b9 	strheq	r0, [r0], -r9
    4b24:	008c0407 	addeq	r0, ip, r7, lsl #8
    4b28:	ec090000 	stc	0, cr0, [r9], {-0}
    4b2c:	01000006 	tsteq	r0, r6
    4b30:	9cb80603 	ldcls	6, cr0, [r8], #12
    4b34:	00040000 	andeq	r0, r4, r0
    4b38:	9c010000 	stcls	0, cr0, [r1], {-0}
	...

Disassembly of section .debug_abbrev:

00000000 <.debug_abbrev>:
       0:	25011101 	strcs	r1, [r1, #-257]	; 0xfffffeff
       4:	030b130e 	movweq	r1, #45838	; 0xb30e
       8:	110e1b0e 	tstne	lr, lr, lsl #22
       c:	10061201 	andne	r1, r6, r1, lsl #4
      10:	02000017 	andeq	r0, r0, #23, 0
      14:	0b0b0024 	bleq	2c00ac <__bss_end__+0x2b59dc>
      18:	08030b3e 	stmdaeq	r3, {r1, r2, r3, r4, r5, r8, r9, fp}
      1c:	24030000 	strcs	r0, [r3], #-0
      20:	3e0b0b00 	vmlacc.f64	d0, d11, d0
      24:	000e030b 	andeq	r0, lr, fp, lsl #6
      28:	00160400 	andseq	r0, r6, r0, lsl #8
      2c:	0b3a0e03 	bleq	e83840 <__bss_end__+0xe79170>
      30:	0b390b3b 	bleq	e42d24 <__bss_end__+0xe38654>
      34:	00001349 	andeq	r1, r0, r9, asr #6
      38:	27011505 	strcs	r1, [r1, -r5, lsl #10]
      3c:	01134919 	tsteq	r3, r9, lsl r9
      40:	06000013 			; <UNDEFINED> instruction: 0x06000013
      44:	13490005 	movtne	r0, #36869	; 0x9005
      48:	34070000 	strcc	r0, [r7], #-0
      4c:	3a0e0300 	bcc	380c54 <__bss_end__+0x376584>
      50:	390b3b0b 	stmdbcc	fp, {r0, r1, r3, r8, r9, fp, ip, sp}
      54:	3f13490b 	svccc	0x0013490b
      58:	00193c19 	andseq	r3, r9, r9, lsl ip
      5c:	000f0800 	andeq	r0, pc, r0, lsl #16
      60:	13490b0b 	movtne	r0, #39691	; 0x9b0b
      64:	26090000 	strcs	r0, [r9], -r0
      68:	00134900 	andseq	r4, r3, r0, lsl #18
      6c:	01130a00 	tsteq	r3, r0, lsl #20
      70:	0b3a0b0b 	bleq	e82ca4 <__bss_end__+0xe785d4>
      74:	0b390b3b 	bleq	e42d68 <__bss_end__+0xe38698>
      78:	00001301 	andeq	r1, r0, r1, lsl #6
      7c:	03000d0b 	movweq	r0, #3339	; 0xd0b
      80:	3b0b3a0e 	blcc	2ce8c0 <__bss_end__+0x2c41f0>
      84:	490b390b 	stmdbmi	fp, {r0, r1, r3, r8, fp, ip, sp}
      88:	000b3813 	andeq	r3, fp, r3, lsl r8
      8c:	000f0c00 	andeq	r0, pc, r0, lsl #24
      90:	00000b0b 	andeq	r0, r0, fp, lsl #22
      94:	0300340d 	movweq	r3, #1037	; 0x40d
      98:	3b0b3a0e 	blcc	2ce8d8 <__bss_end__+0x2c4208>
      9c:	490b390b 	stmdbmi	fp, {r0, r1, r3, r8, fp, ip, sp}
      a0:	02193f13 	andseq	r3, r9, #76	; 0x4c
      a4:	0e000018 	mcreq	0, 0, r0, cr0, cr8, {0}
      a8:	193f012e 	ldmdbne	pc!, {r1, r2, r3, r5, r8}	; <UNPREDICTABLE>
      ac:	0b3a0e03 	bleq	e838c0 <__bss_end__+0xe791f0>
      b0:	0b390b3b 	bleq	e42da4 <__bss_end__+0xe386d4>
      b4:	01111927 	tsteq	r1, r7, lsr #18
      b8:	18400612 	stmdane	r0, {r1, r4, r9, sl}^
      bc:	01194297 			; <UNDEFINED> instruction: 0x01194297
      c0:	0f000013 	svceq	0x00000013
      c4:	01018289 	smlabbeq	r1, r9, r2, r8
      c8:	13310111 	teqne	r1, #1073741828	; 0x40000004
      cc:	00001301 	andeq	r1, r0, r1, lsl #6
      d0:	01828a10 	orreq	r8, r2, r0, lsl sl
      d4:	91180200 	tstls	r8, r0, lsl #4
      d8:	00001842 	andeq	r1, r0, r2, asr #16
      dc:	01828911 	orreq	r8, r2, r1, lsl r9
      e0:	31011100 	mrscc	r1, (UNDEF: 17)
      e4:	12000013 	andne	r0, r0, #19, 0
      e8:	01018289 	smlabbeq	r1, r9, r2, r8
      ec:	13310111 	teqne	r1, #1073741828	; 0x40000004
      f0:	2e130000 	cdpcs	0, 1, cr0, cr3, cr0, {0}
      f4:	03193f01 	tsteq	r9, #1, 30
      f8:	3b0b3a0e 	blcc	2ce938 <__bss_end__+0x2c4268>
      fc:	270b390b 	strcs	r3, [fp, -fp, lsl #18]
     100:	11134919 	tstne	r3, r9, lsl r9
     104:	40061201 	andmi	r1, r6, r1, lsl #4
     108:	19429718 	stmdbne	r2, {r3, r4, r8, r9, sl, ip, pc}^
     10c:	00001301 	andeq	r1, r0, r1, lsl #6
     110:	03003414 	movweq	r3, #1044	; 0x414
     114:	3413490e 	ldrcc	r4, [r3], #-2318	; 0xfffff6f2
     118:	00180219 	andseq	r0, r8, r9, lsl r2
     11c:	00341500 	eorseq	r1, r4, r0, lsl #10
     120:	0b3a0803 	bleq	e82134 <__bss_end__+0xe77a64>
     124:	0b390b3b 	bleq	e42e18 <__bss_end__+0xe38748>
     128:	17021349 	strne	r1, [r2, -r9, asr #6]
     12c:	001742b7 			; <UNDEFINED> instruction: 0x001742b7
     130:	011d1600 	tsteq	sp, r0, lsl #12
     134:	01521331 	cmpeq	r2, r1, lsr r3
     138:	110b42b8 			; <UNDEFINED> instruction: 0x110b42b8
     13c:	58061201 	stmdapl	r6, {r0, r9, ip}
     140:	570b590b 	strpl	r5, [fp, -fp, lsl #18]
     144:	0013010b 	andseq	r0, r3, fp, lsl #2
     148:	00051700 	andeq	r1, r5, r0, lsl #14
     14c:	17021331 	smladxne	r2, r1, r3, r1
     150:	001742b7 			; <UNDEFINED> instruction: 0x001742b7
     154:	01011800 	tsteq	r1, r0, lsl #16
     158:	13011349 	movwne	r1, #4937	; 0x1349
     15c:	21190000 	tstcs	r9, r0
     160:	2f134900 	svccs	0x00134900
     164:	1a00000b 	bne	198 <__code_start__-0x7e68>
     168:	0e03012e 	adfeqsp	f0, f3, #0.5
     16c:	0b3b0b3a 	bleq	ec2e5c <__bss_end__+0xeb878c>
     170:	19270b39 	stmdbne	r7!, {r0, r3, r4, r5, r8, r9, fp}
     174:	0b201349 	bleq	804ea0 <__bss_end__+0x7fa7d0>
     178:	00001301 	andeq	r1, r0, r1, lsl #6
     17c:	0300051b 	movweq	r0, #1307	; 0x51b
     180:	3b0b3a0e 	blcc	2ce9c0 <__bss_end__+0x2c42f0>
     184:	490b390b 	stmdbmi	fp, {r0, r1, r3, r8, fp, ip, sp}
     188:	1c000013 	stcne	0, cr0, [r0], {19}
     18c:	193f002e 	ldmdbne	pc!, {r1, r2, r3, r5}	; <UNPREDICTABLE>
     190:	0e6e193c 			; <UNDEFINED> instruction: 0x0e6e193c
     194:	0b3a0e03 	bleq	e839a8 <__bss_end__+0xe792d8>
     198:	0b390b3b 	bleq	e42e8c <__bss_end__+0xe387bc>
     19c:	361d0000 	ldrcc	r0, [sp], -r0
     1a0:	00180200 	andseq	r0, r8, r0, lsl #4
     1a4:	11010000 	mrsne	r0, (UNDEF: 1)
     1a8:	130e2501 	movwne	r2, #58625	; 0xe501
     1ac:	1b0e030b 	blne	380de0 <__bss_end__+0x376710>
     1b0:	1201110e 	andne	r1, r1, #-2147483645	; 0x80000003
     1b4:	00171006 	andseq	r1, r7, r6
     1b8:	00240200 	eoreq	r0, r4, r0, lsl #4
     1bc:	0b3e0b0b 	bleq	f82df0 <__bss_end__+0xf78720>
     1c0:	00000803 	andeq	r0, r0, r3, lsl #16
     1c4:	0b002403 	bleq	91d8 <clean_reboot+0x1c>
     1c8:	030b3e0b 	movweq	r3, #48651	; 0xbe0b
     1cc:	0400000e 	streq	r0, [r0], #-14
     1d0:	0e030016 	mcreq	0, 0, r0, cr3, cr6, {0}
     1d4:	0b3b0b3a 	bleq	ec2ec4 <__bss_end__+0xeb87f4>
     1d8:	13490b39 	movtne	r0, #39737	; 0x9b39
     1dc:	15050000 	strne	r0, [r5, #-0]
     1e0:	49192701 	ldmdbmi	r9, {r0, r8, r9, sl, sp}
     1e4:	00130113 	andseq	r0, r3, r3, lsl r1
     1e8:	00050600 	andeq	r0, r5, r0, lsl #12
     1ec:	00001349 	andeq	r1, r0, r9, asr #6
     1f0:	03003407 	movweq	r3, #1031	; 0x407
     1f4:	3b0b3a0e 	blcc	2cea34 <__bss_end__+0x2c4364>
     1f8:	490b390b 	stmdbmi	fp, {r0, r1, r3, r8, fp, ip, sp}
     1fc:	3c193f13 	ldccc	15, cr3, [r9], {19}
     200:	08000019 	stmdaeq	r0, {r0, r3, r4}
     204:	0b0b000f 	bleq	2c0248 <__bss_end__+0x2b5b78>
     208:	00001349 	andeq	r1, r0, r9, asr #6
     20c:	49002609 	stmdbmi	r0, {r0, r3, r9, sl, sp}
     210:	0a000013 	beq	264 <__code_start__-0x7d9c>
     214:	0b0b0113 	bleq	2c0668 <__bss_end__+0x2b5f98>
     218:	0b3b0b3a 	bleq	ec2f08 <__bss_end__+0xeb8838>
     21c:	13010b39 	movwne	r0, #6969	; 0x1b39
     220:	0d0b0000 	stceq	0, cr0, [fp, #-0]
     224:	3a0e0300 	bcc	380e2c <__bss_end__+0x37675c>
     228:	390b3b0b 	stmdbcc	fp, {r0, r1, r3, r8, r9, fp, ip, sp}
     22c:	3813490b 	ldmdacc	r3, {r0, r1, r3, r8, fp, lr}
     230:	0c00000b 	stceq	0, cr0, [r0], {11}
     234:	0b3e0104 	bleq	f8064c <__bss_end__+0xf75f7c>
     238:	13490b0b 	movtne	r0, #39691	; 0x9b0b
     23c:	0b3b0b3a 	bleq	ec2f2c <__bss_end__+0xeb885c>
     240:	13010b39 	movwne	r0, #6969	; 0x1b39
     244:	280d0000 	stmdacs	sp, {}	; <UNPREDICTABLE>
     248:	1c0e0300 	stcne	3, cr0, [lr], {-0}
     24c:	0e00000b 	cdpeq	0, 0, cr0, cr0, cr11, {0}
     250:	0e030113 	mcreq	1, 0, r0, cr3, cr3, {0}
     254:	0b3a0b0b 	bleq	e82e88 <__bss_end__+0xe787b8>
     258:	0b390b3b 	bleq	e42f4c <__bss_end__+0xe3887c>
     25c:	00001301 	andeq	r1, r0, r1, lsl #6
     260:	0b000f0f 	bleq	3ea4 <__code_start__-0x415c>
     264:	1000000b 	andne	r0, r0, fp
     268:	0e030034 	mcreq	0, 0, r0, cr3, cr4, {1}
     26c:	0b3b0b3a 	bleq	ec2f5c <__bss_end__+0xeb888c>
     270:	13490b39 	movtne	r0, #39737	; 0x9b39
     274:	00001802 	andeq	r1, r0, r2, lsl #16
     278:	3f012e11 	svccc	0x00012e11
     27c:	3a0e0319 	bcc	380ee8 <__bss_end__+0x376818>
     280:	390b3b0b 	stmdbcc	fp, {r0, r1, r3, r8, r9, fp, ip, sp}
     284:	4919270b 	ldmdbmi	r9, {r0, r1, r3, r8, r9, sl, sp}
     288:	12011113 	andne	r1, r1, #-1073741820	; 0xc0000004
     28c:	97184006 	ldrls	r4, [r8, -r6]
     290:	13011942 	movwne	r1, #6466	; 0x1942
     294:	05120000 	ldreq	r0, [r2, #-0]
     298:	3a0e0300 	bcc	380ea0 <__bss_end__+0x3767d0>
     29c:	390b3b0b 	stmdbcc	fp, {r0, r1, r3, r8, r9, fp, ip, sp}
     2a0:	0213490b 	andseq	r4, r3, #180224	; 0x2c000
     2a4:	1742b717 	smlaldne	fp, r2, r7, r7
     2a8:	05130000 	ldreq	r0, [r3, #-0]
     2ac:	3a080300 	bcc	200eb4 <__bss_end__+0x1f67e4>
     2b0:	390b3b0b 	stmdbcc	fp, {r0, r1, r3, r8, r9, fp, ip, sp}
     2b4:	0213490b 	andseq	r4, r3, #180224	; 0x2c000
     2b8:	14000018 	strne	r0, [r0], #-24	; 0xffffffe8
     2bc:	08030034 	stmdaeq	r3, {r2, r4, r5}
     2c0:	0b3b0b3a 	bleq	ec2fb0 <__bss_end__+0xeb88e0>
     2c4:	13490b39 	movtne	r0, #39737	; 0x9b39
     2c8:	42b71702 	adcsmi	r1, r7, #524288	; 0x80000
     2cc:	15000017 	strne	r0, [r0, #-23]	; 0xffffffe9
     2d0:	01018289 	smlabbeq	r1, r9, r2, r8
     2d4:	13310111 	teqne	r1, #1073741828	; 0x40000004
     2d8:	00001301 	andeq	r1, r0, r1, lsl #6
     2dc:	01828a16 	orreq	r8, r2, r6, lsl sl
     2e0:	91180200 	tstls	r8, r0, lsl #4
     2e4:	00001842 	andeq	r1, r0, r2, asr #16
     2e8:	01828917 	orreq	r8, r2, r7, lsl r9
     2ec:	31011101 	tstcc	r1, r1, lsl #2
     2f0:	18000013 	stmdane	r0, {r0, r1, r4}
     2f4:	193f012e 	ldmdbne	pc!, {r1, r2, r3, r5, r8}	; <UNPREDICTABLE>
     2f8:	0b3a0e03 	bleq	e83b0c <__bss_end__+0xe7943c>
     2fc:	0b390b3b 	bleq	e42ff0 <__bss_end__+0xe38920>
     300:	01111927 	tsteq	r1, r7, lsr #18
     304:	18400612 	stmdane	r0, {r1, r4, r9, sl}^
     308:	01194297 			; <UNDEFINED> instruction: 0x01194297
     30c:	19000013 	stmdbne	r0, {r0, r1, r4}
     310:	0e030034 	mcreq	0, 0, r0, cr3, cr4, {1}
     314:	19341349 	ldmdbne	r4!, {r0, r3, r6, r8, r9, ip}
     318:	00001802 	andeq	r1, r0, r2, lsl #16
     31c:	0182891a 	orreq	r8, r2, sl, lsl r9
     320:	31011100 	mrscc	r1, (UNDEF: 17)
     324:	1b000013 	blne	378 <__code_start__-0x7c88>
     328:	13490101 	movtne	r0, #37121	; 0x9101
     32c:	00001301 	andeq	r1, r0, r1, lsl #6
     330:	4900211c 	stmdbmi	r0, {r2, r3, r4, r8, sp}
     334:	000b2f13 	andeq	r2, fp, r3, lsl pc
     338:	012e1d00 			; <UNDEFINED> instruction: 0x012e1d00
     33c:	0b3a0e03 	bleq	e83b50 <__bss_end__+0xe79480>
     340:	0b390b3b 	bleq	e43034 <__bss_end__+0xe38964>
     344:	01111927 	tsteq	r1, r7, lsr #18
     348:	18400612 	stmdane	r0, {r1, r4, r9, sl}^
     34c:	01194297 			; <UNDEFINED> instruction: 0x01194297
     350:	1e000013 	mcrne	0, 0, r0, cr0, cr3, {0}
     354:	08030005 	stmdaeq	r3, {r0, r2}
     358:	0b3b0b3a 	bleq	ec3048 <__bss_end__+0xeb8978>
     35c:	13490b39 	movtne	r0, #39737	; 0x9b39
     360:	42b71702 	adcsmi	r1, r7, #524288	; 0x80000
     364:	1f000017 	svcne	0x00000017
     368:	0e030034 	mcreq	0, 0, r0, cr3, cr4, {1}
     36c:	0b3b0b3a 	bleq	ec305c <__bss_end__+0xeb898c>
     370:	13490b39 	movtne	r0, #39737	; 0x9b39
     374:	42b71702 	adcsmi	r1, r7, #524288	; 0x80000
     378:	20000017 	andcs	r0, r0, r7, lsl r0
     37c:	0111010b 	tsteq	r1, fp, lsl #2
     380:	00000612 	andeq	r0, r0, r2, lsl r6
     384:	31011d21 	tstcc	r1, r1, lsr #26
     388:	b8015213 	stmdalt	r1, {r0, r1, r4, r9, ip, lr}
     38c:	01110b42 	tsteq	r1, r2, asr #22
     390:	0b580612 	bleq	1601be0 <__bss_end__+0x15f7510>
     394:	0b570b59 	bleq	15c3100 <__bss_end__+0x15b8a30>
     398:	00001301 	andeq	r1, r0, r1, lsl #6
     39c:	31000522 	tstcc	r0, r2, lsr #10
     3a0:	b7170213 			; <UNDEFINED> instruction: 0xb7170213
     3a4:	00001742 	andeq	r1, r0, r2, asr #14
     3a8:	3f002e23 	svccc	0x00002e23
     3ac:	3a0e0319 	bcc	381018 <__bss_end__+0x376948>
     3b0:	390b3b0b 	stmdbcc	fp, {r0, r1, r3, r8, r9, fp, ip, sp}
     3b4:	4919270b 	ldmdbmi	r9, {r0, r1, r3, r8, r9, sl, sp}
     3b8:	12011113 	andne	r1, r1, #-1073741820	; 0xc0000004
     3bc:	97184006 	ldrls	r4, [r8, -r6]
     3c0:	00001942 	andeq	r1, r0, r2, asr #18
     3c4:	03012e24 	movweq	r2, #7716	; 0x1e24
     3c8:	3b0b3a0e 	blcc	2cec08 <__bss_end__+0x2c4538>
     3cc:	270b390b 	strcs	r3, [fp, -fp, lsl #18]
     3d0:	20134919 	andscs	r4, r3, r9, lsl r9
     3d4:	0013010b 	andseq	r0, r3, fp, lsl #2
     3d8:	00052500 	andeq	r2, r5, r0, lsl #10
     3dc:	0b3a0803 	bleq	e823f0 <__bss_end__+0xe77d20>
     3e0:	0b390b3b 	bleq	e430d4 <__bss_end__+0xe38a04>
     3e4:	00001349 	andeq	r1, r0, r9, asr #6
     3e8:	3f002e26 	svccc	0x00002e26
     3ec:	6e193c19 	mrcvs	12, 0, r3, cr9, cr9, {0}
     3f0:	3a0e030e 	bcc	381030 <__bss_end__+0x376960>
     3f4:	390b3b0b 	stmdbcc	fp, {r0, r1, r3, r8, r9, fp, ip, sp}
     3f8:	0000000b 	andeq	r0, r0, fp
     3fc:	25011101 	strcs	r1, [r1, #-257]	; 0xfffffeff
     400:	030b130e 	movweq	r1, #45838	; 0xb30e
     404:	110e1b0e 	tstne	lr, lr, lsl #22
     408:	10061201 	andne	r1, r6, r1, lsl #4
     40c:	02000017 	andeq	r0, r0, #23, 0
     410:	0b0b0024 	bleq	2c04a8 <__bss_end__+0x2b5dd8>
     414:	08030b3e 	stmdaeq	r3, {r1, r2, r3, r4, r5, r8, r9, fp}
     418:	24030000 	strcs	r0, [r3], #-0
     41c:	3e0b0b00 	vmlacc.f64	d0, d11, d0
     420:	000e030b 	andeq	r0, lr, fp, lsl #6
     424:	01150400 	tsteq	r5, r0, lsl #8
     428:	13491927 	movtne	r1, #39207	; 0x9927
     42c:	00001301 	andeq	r1, r0, r1, lsl #6
     430:	49000505 	stmdbmi	r0, {r0, r2, r8, sl}
     434:	06000013 			; <UNDEFINED> instruction: 0x06000013
     438:	0e030034 	mcreq	0, 0, r0, cr3, cr4, {1}
     43c:	0b3b0b3a 	bleq	ec312c <__bss_end__+0xeb8a5c>
     440:	13490b39 	movtne	r0, #39737	; 0x9b39
     444:	193c193f 	ldmdbne	ip!, {r0, r1, r2, r3, r4, r5, r8, fp, ip}
     448:	0f070000 	svceq	0x00070000
     44c:	490b0b00 	stmdbmi	fp, {r8, r9, fp}
     450:	08000013 	stmdaeq	r0, {r0, r1, r4}
     454:	13490026 	movtne	r0, #36902	; 0x9026
     458:	17090000 	strne	r0, [r9, -r0]
     45c:	0b0e0301 	bleq	381068 <__bss_end__+0x376998>
     460:	3b0b3a0b 	blcc	2cec94 <__bss_end__+0x2c45c4>
     464:	010b390b 	tsteq	fp, fp, lsl #18
     468:	0a000013 	beq	4bc <__code_start__-0x7b44>
     46c:	0803000d 	stmdaeq	r3, {r0, r2, r3}
     470:	0b3b0b3a 	bleq	ec3160 <__bss_end__+0xeb8a90>
     474:	13490b39 	movtne	r0, #39737	; 0x9b39
     478:	0f0b0000 	svceq	0x000b0000
     47c:	000b0b00 	andeq	r0, fp, r0, lsl #22
     480:	00150c00 	andseq	r0, r5, r0, lsl #24
     484:	00001927 	andeq	r1, r0, r7, lsr #18
     488:	0b01130d 	bleq	450c4 <__bss_end__+0x3a9f4>
     48c:	3b0b3a0b 	blcc	2cecc0 <__bss_end__+0x2c45f0>
     490:	010b390b 	tsteq	fp, fp, lsl #18
     494:	0e000013 	mcreq	0, 0, r0, cr0, cr3, {0}
     498:	0803000d 	stmdaeq	r3, {r0, r2, r3}
     49c:	0b3b0b3a 	bleq	ec318c <__bss_end__+0xeb8abc>
     4a0:	13490b39 	movtne	r0, #39737	; 0x9b39
     4a4:	00000b38 	andeq	r0, r0, r8, lsr fp
     4a8:	03000d0f 	movweq	r0, #3343	; 0xd0f
     4ac:	3b0b3a0e 	blcc	2cecec <__bss_end__+0x2c461c>
     4b0:	490b390b 	stmdbmi	fp, {r0, r1, r3, r8, fp, ip, sp}
     4b4:	000b3813 	andeq	r3, fp, r3, lsl r8
     4b8:	00161000 	andseq	r1, r6, r0
     4bc:	0b3a0e03 	bleq	e83cd0 <__bss_end__+0xe79600>
     4c0:	0b390b3b 	bleq	e431b4 <__bss_end__+0xe38ae4>
     4c4:	00001349 	andeq	r1, r0, r9, asr #6
     4c8:	03003411 	movweq	r3, #1041	; 0x411
     4cc:	3b0b3a0e 	blcc	2ced0c <__bss_end__+0x2c463c>
     4d0:	490b390b 	stmdbmi	fp, {r0, r1, r3, r8, fp, ip, sp}
     4d4:	00180213 	andseq	r0, r8, r3, lsl r2
     4d8:	012e1200 			; <UNDEFINED> instruction: 0x012e1200
     4dc:	0e03193f 			; <UNDEFINED> instruction: 0x0e03193f
     4e0:	0b3b0b3a 	bleq	ec31d0 <__bss_end__+0xeb8b00>
     4e4:	19270b39 	stmdbne	r7!, {r0, r3, r4, r5, r8, r9, fp}
     4e8:	06120111 			; <UNDEFINED> instruction: 0x06120111
     4ec:	42971840 	addsmi	r1, r7, #64, 16	; 0x400000
     4f0:	00130119 	andseq	r0, r3, r9, lsl r1
     4f4:	00051300 	andeq	r1, r5, r0, lsl #6
     4f8:	0b3a0803 	bleq	e8250c <__bss_end__+0xe77e3c>
     4fc:	0b390b3b 	bleq	e431f0 <__bss_end__+0xe38b20>
     500:	18021349 	stmdane	r2, {r0, r3, r6, r8, r9, ip}
     504:	34140000 	ldrcc	r0, [r4], #-0
     508:	3a080300 	bcc	201110 <__bss_end__+0x1f6a40>
     50c:	390b3b0b 	stmdbcc	fp, {r0, r1, r3, r8, r9, fp, ip, sp}
     510:	0213490b 	andseq	r4, r3, #180224	; 0x2c000
     514:	1742b717 	smlaldne	fp, r2, r7, r7
     518:	2e150000 	cdpcs	0, 1, cr0, cr5, cr0, {0}
     51c:	03193f01 	tsteq	r9, #1, 30
     520:	3b0b3a0e 	blcc	2ced60 <__bss_end__+0x2c4690>
     524:	270b390b 	strcs	r3, [fp, -fp, lsl #18]
     528:	11134919 	tstne	r3, r9, lsl r9
     52c:	40061201 	andmi	r1, r6, r1, lsl #4
     530:	19429718 	stmdbne	r2, {r3, r4, r8, r9, sl, ip, pc}^
     534:	00001301 	andeq	r1, r0, r1, lsl #6
     538:	03000516 	movweq	r0, #1302	; 0x516
     53c:	3b0b3a0e 	blcc	2ced7c <__bss_end__+0x2c46ac>
     540:	490b390b 	stmdbmi	fp, {r0, r1, r3, r8, fp, ip, sp}
     544:	b7170213 			; <UNDEFINED> instruction: 0xb7170213
     548:	00001742 	andeq	r1, r0, r2, asr #14
     54c:	03003417 	movweq	r3, #1047	; 0x417
     550:	3b0b3a0e 	blcc	2ced90 <__bss_end__+0x2c46c0>
     554:	490b390b 	stmdbmi	fp, {r0, r1, r3, r8, fp, ip, sp}
     558:	b7170213 			; <UNDEFINED> instruction: 0xb7170213
     55c:	00001742 	andeq	r1, r0, r2, asr #14
     560:	01828918 	orreq	r8, r2, r8, lsl r9
     564:	31011101 	tstcc	r1, r1, lsl #2
     568:	19000013 	stmdbne	r0, {r0, r1, r4}
     56c:	0001828a 	andeq	r8, r1, sl, lsl #5
     570:	42911802 	addsmi	r1, r1, #131072	; 0x20000
     574:	1a000018 	bne	5dc <__code_start__-0x7a24>
     578:	0e03012e 	adfeqsp	f0, f3, #0.5
     57c:	0b3b0b3a 	bleq	ec326c <__bss_end__+0xeb8b9c>
     580:	19270b39 	stmdbne	r7!, {r0, r3, r4, r5, r8, r9, fp}
     584:	01111349 	tsteq	r1, r9, asr #6
     588:	18400612 	stmdane	r0, {r1, r4, r9, sl}^
     58c:	01194297 			; <UNDEFINED> instruction: 0x01194297
     590:	1b000013 	blne	5e4 <__code_start__-0x7a1c>
     594:	08030005 	stmdaeq	r3, {r0, r2}
     598:	0b3b0b3a 	bleq	ec3288 <__bss_end__+0xeb8bb8>
     59c:	13490b39 	movtne	r0, #39737	; 0x9b39
     5a0:	42b71702 	adcsmi	r1, r7, #524288	; 0x80000
     5a4:	1c000017 	stcne	0, cr0, [r0], {23}
     5a8:	01018289 	smlabbeq	r1, r9, r2, r8
     5ac:	13310111 	teqne	r1, #1073741828	; 0x40000004
     5b0:	00001301 	andeq	r1, r0, r1, lsl #6
     5b4:	0182891d 	orreq	r8, r2, sp, lsl r9
     5b8:	31011100 	mrscc	r1, (UNDEF: 17)
     5bc:	1e000013 	mcrne	0, 0, r0, cr0, cr3, {0}
     5c0:	193f002e 	ldmdbne	pc!, {r1, r2, r3, r5}	; <UNPREDICTABLE>
     5c4:	0e6e193c 			; <UNDEFINED> instruction: 0x0e6e193c
     5c8:	0b3a0e03 	bleq	e83ddc <__bss_end__+0xe7970c>
     5cc:	0b390b3b 	bleq	e432c0 <__bss_end__+0xe38bf0>
     5d0:	01000000 	mrseq	r0, (UNDEF: 0)
     5d4:	0e250111 	mcreq	1, 1, r0, cr5, cr1, {0}
     5d8:	0e030b13 	vmoveq.32	d3[0], r0
     5dc:	01110e1b 	tsteq	r1, fp, lsl lr
     5e0:	17100612 			; <UNDEFINED> instruction: 0x17100612
     5e4:	24020000 	strcs	r0, [r2], #-0
     5e8:	3e0b0b00 	vmlacc.f64	d0, d11, d0
     5ec:	0008030b 	andeq	r0, r8, fp, lsl #6
     5f0:	00240300 	eoreq	r0, r4, r0, lsl #6
     5f4:	0b3e0b0b 	bleq	f83228 <__bss_end__+0xf78b58>
     5f8:	00000e03 	andeq	r0, r0, r3, lsl #28
     5fc:	03001604 	movweq	r1, #1540	; 0x604
     600:	3b0b3a0e 	blcc	2cee40 <__bss_end__+0x2c4770>
     604:	490b390b 	stmdbmi	fp, {r0, r1, r3, r8, fp, ip, sp}
     608:	05000013 	streq	r0, [r0, #-19]	; 0xffffffed
     60c:	19270115 	stmdbne	r7!, {r0, r2, r4, r8}
     610:	13011349 	movwne	r1, #4937	; 0x1349
     614:	05060000 	streq	r0, [r6, #-0]
     618:	00134900 	andseq	r4, r3, r0, lsl #18
     61c:	00340700 	eorseq	r0, r4, r0, lsl #14
     620:	0b3a0e03 	bleq	e83e34 <__bss_end__+0xe79764>
     624:	0b390b3b 	bleq	e43318 <__bss_end__+0xe38c48>
     628:	193f1349 	ldmdbne	pc!, {r0, r3, r6, r8, r9, ip}	; <UNPREDICTABLE>
     62c:	0000193c 	andeq	r1, r0, ip, lsr r9
     630:	0b000f08 	bleq	4258 <__code_start__-0x3da8>
     634:	0013490b 	andseq	r4, r3, fp, lsl #18
     638:	00260900 	eoreq	r0, r6, r0, lsl #18
     63c:	00001349 	andeq	r1, r0, r9, asr #6
     640:	0b01130a 	bleq	45270 <__bss_end__+0x3aba0>
     644:	3b0b3a0b 	blcc	2cee78 <__bss_end__+0x2c47a8>
     648:	010b390b 	tsteq	fp, fp, lsl #18
     64c:	0b000013 	bleq	6a0 <__code_start__-0x7960>
     650:	0e03000d 	cdpeq	0, 0, cr0, cr3, cr13, {0}
     654:	0b3b0b3a 	bleq	ec3344 <__bss_end__+0xeb8c74>
     658:	13490b39 	movtne	r0, #39737	; 0x9b39
     65c:	00000b38 	andeq	r0, r0, r8, lsr fp
     660:	0301130c 	movweq	r1, #4876	; 0x130c
     664:	3a0b0b0e 	bcc	2c32a4 <__bss_end__+0x2b8bd4>
     668:	390b3b0b 	stmdbcc	fp, {r0, r1, r3, r8, r9, fp, ip, sp}
     66c:	0013010b 	andseq	r0, r3, fp, lsl #2
     670:	000f0d00 	andeq	r0, pc, r0, lsl #26
     674:	00000b0b 	andeq	r0, r0, fp, lsl #22
     678:	0300340e 	movweq	r3, #1038	; 0x40e
     67c:	3b0b3a0e 	blcc	2ceebc <__bss_end__+0x2c47ec>
     680:	490b390b 	stmdbmi	fp, {r0, r1, r3, r8, fp, ip, sp}
     684:	0f000013 	svceq	0x00000013
     688:	193f012e 	ldmdbne	pc!, {r1, r2, r3, r5, r8}	; <UNPREDICTABLE>
     68c:	0b3a0e03 	bleq	e83ea0 <__bss_end__+0xe797d0>
     690:	0b390b3b 	bleq	e43384 <__bss_end__+0xe38cb4>
     694:	01111927 	tsteq	r1, r7, lsr #18
     698:	18400612 	stmdane	r0, {r1, r4, r9, sl}^
     69c:	01194297 			; <UNDEFINED> instruction: 0x01194297
     6a0:	10000013 	andne	r0, r0, r3, lsl r0
     6a4:	0e030034 	mcreq	0, 0, r0, cr3, cr4, {1}
     6a8:	19341349 	ldmdbne	r4!, {r0, r3, r6, r8, r9, ip}
     6ac:	00001802 	andeq	r1, r0, r2, lsl #16
     6b0:	01828911 	orreq	r8, r2, r1, lsl r9
     6b4:	31011101 	tstcc	r1, r1, lsl #2
     6b8:	00130113 	andseq	r0, r3, r3, lsl r1
     6bc:	828a1200 	addhi	r1, sl, #0, 4
     6c0:	18020001 	stmdane	r2, {r0}
     6c4:	00184291 	mulseq	r8, r1, r2
     6c8:	82891300 	addhi	r1, r9, #0, 6
     6cc:	01110001 	tsteq	r1, r1
     6d0:	00001331 	andeq	r1, r0, r1, lsr r3
     6d4:	49010114 	stmdbmi	r1, {r2, r4, r8}
     6d8:	00130113 	andseq	r0, r3, r3, lsl r1
     6dc:	00211500 	eoreq	r1, r1, r0, lsl #10
     6e0:	0b2f1349 	bleq	bc540c <__bss_end__+0xbbad3c>
     6e4:	2e160000 	cdpcs	0, 1, cr0, cr6, cr0, {0}
     6e8:	03193f01 	tsteq	r9, #1, 30
     6ec:	3b0b3a0e 	blcc	2cef2c <__bss_end__+0x2c485c>
     6f0:	270b390b 	strcs	r3, [fp, -fp, lsl #18]
     6f4:	11134919 	tstne	r3, r9, lsl r9
     6f8:	40061201 	andmi	r1, r6, r1, lsl #4
     6fc:	19429718 	stmdbne	r2, {r3, r4, r8, r9, sl, ip, pc}^
     700:	00001301 	andeq	r1, r0, r1, lsl #6
     704:	03012e17 	movweq	r2, #7703	; 0x1e17
     708:	3b0b3a0e 	blcc	2cef48 <__bss_end__+0x2c4878>
     70c:	270b390b 	strcs	r3, [fp, -fp, lsl #18]
     710:	01134919 	tsteq	r3, r9, lsl r9
     714:	18000013 	stmdane	r0, {r0, r1, r4}
     718:	0e030034 	mcreq	0, 0, r0, cr3, cr4, {1}
     71c:	19341349 	ldmdbne	r4!, {r0, r3, r6, r8, r9, ip}
     720:	00000e1c 	andeq	r0, r0, ip, lsl lr
     724:	01828919 	orreq	r8, r2, r9, lsl r9
     728:	31011101 	tstcc	r1, r1, lsl #2
     72c:	1a000013 	bne	780 <__code_start__-0x7880>
     730:	0e030005 	cdpeq	0, 0, cr0, cr3, cr5, {0}
     734:	0b3b0b3a 	bleq	ec3424 <__bss_end__+0xeb8d54>
     738:	13490b39 	movtne	r0, #39737	; 0x9b39
     73c:	42b71702 	adcsmi	r1, r7, #524288	; 0x80000
     740:	1b000017 	blne	7a4 <__code_start__-0x785c>
     744:	0e03012e 	adfeqsp	f0, f3, #0.5
     748:	0b3b0b3a 	bleq	ec3438 <__bss_end__+0xeb8d68>
     74c:	19270b39 	stmdbne	r7!, {r0, r3, r4, r5, r8, r9, fp}
     750:	06120111 			; <UNDEFINED> instruction: 0x06120111
     754:	42971840 	addsmi	r1, r7, #64, 16	; 0x400000
     758:	00130119 	andseq	r0, r3, r9, lsl r1
     75c:	00341c00 	eorseq	r1, r4, r0, lsl #24
     760:	0b3a0e03 	bleq	e83f74 <__bss_end__+0xe798a4>
     764:	0b390b3b 	bleq	e43458 <__bss_end__+0xe38d88>
     768:	18021349 	stmdane	r2, {r0, r3, r6, r8, r9, ip}
     76c:	0b1d0000 	bleq	740774 <__bss_end__+0x7360a4>
     770:	12011101 	andne	r1, r1, #1073741824	; 0x40000000
     774:	00130106 	andseq	r0, r3, r6, lsl #2
     778:	00341e00 	eorseq	r1, r4, r0, lsl #28
     77c:	0b3a0803 	bleq	e82790 <__bss_end__+0xe780c0>
     780:	0b390b3b 	bleq	e43474 <__bss_end__+0xe38da4>
     784:	17021349 	strne	r1, [r2, -r9, asr #6]
     788:	001742b7 			; <UNDEFINED> instruction: 0x001742b7
     78c:	00051f00 	andeq	r1, r5, r0, lsl #30
     790:	0b3a0e03 	bleq	e83fa4 <__bss_end__+0xe798d4>
     794:	0b390b3b 	bleq	e43488 <__bss_end__+0xe38db8>
     798:	00001349 	andeq	r1, r0, r9, asr #6
     79c:	03003420 	movweq	r3, #1056	; 0x420
     7a0:	3b0b3a0e 	blcc	2cefe0 <__bss_end__+0x2c4910>
     7a4:	490b390b 	stmdbmi	fp, {r0, r1, r3, r8, fp, ip, sp}
     7a8:	b7170213 			; <UNDEFINED> instruction: 0xb7170213
     7ac:	00001742 	andeq	r1, r0, r2, asr #14
     7b0:	3f002e21 	svccc	0x00002e21
     7b4:	6e193c19 	mrcvs	12, 0, r3, cr9, cr9, {0}
     7b8:	3a0e030e 	bcc	3813f8 <__bss_end__+0x376d28>
     7bc:	390b3b0b 	stmdbcc	fp, {r0, r1, r3, r8, r9, fp, ip, sp}
     7c0:	0000000b 	andeq	r0, r0, fp
     7c4:	25011101 	strcs	r1, [r1, #-257]	; 0xfffffeff
     7c8:	030b130e 	movweq	r1, #45838	; 0xb30e
     7cc:	110e1b0e 	tstne	lr, lr, lsl #22
     7d0:	10061201 	andne	r1, r6, r1, lsl #4
     7d4:	02000017 	andeq	r0, r0, #23, 0
     7d8:	0b0b0024 	bleq	2c0870 <__bss_end__+0x2b61a0>
     7dc:	08030b3e 	stmdaeq	r3, {r1, r2, r3, r4, r5, r8, r9, fp}
     7e0:	16030000 	strne	r0, [r3], -r0
     7e4:	3a0e0300 	bcc	3813ec <__bss_end__+0x376d1c>
     7e8:	390b3b0b 	stmdbcc	fp, {r0, r1, r3, r8, r9, fp, ip, sp}
     7ec:	0013490b 	andseq	r4, r3, fp, lsl #18
     7f0:	00240400 	eoreq	r0, r4, r0, lsl #8
     7f4:	0b3e0b0b 	bleq	f83428 <__bss_end__+0xf78d58>
     7f8:	00000e03 	andeq	r0, r0, r3, lsl #28
     7fc:	27011505 	strcs	r1, [r1, -r5, lsl #10]
     800:	01134919 	tsteq	r3, r9, lsl r9
     804:	06000013 			; <UNDEFINED> instruction: 0x06000013
     808:	13490005 	movtne	r0, #36869	; 0x9005
     80c:	34070000 	strcc	r0, [r7], #-0
     810:	3a0e0300 	bcc	381418 <__bss_end__+0x376d48>
     814:	390b3b0b 	stmdbcc	fp, {r0, r1, r3, r8, r9, fp, ip, sp}
     818:	3f13490b 	svccc	0x0013490b
     81c:	00193c19 	andseq	r3, r9, r9, lsl ip
     820:	000f0800 	andeq	r0, pc, r0, lsl #16
     824:	13490b0b 	movtne	r0, #39691	; 0x9b0b
     828:	26090000 	strcs	r0, [r9], -r0
     82c:	00134900 	andseq	r4, r3, r0, lsl #18
     830:	012e0a00 			; <UNDEFINED> instruction: 0x012e0a00
     834:	0e03193f 			; <UNDEFINED> instruction: 0x0e03193f
     838:	0b3b0b3a 	bleq	ec3528 <__bss_end__+0xeb8e58>
     83c:	19270b39 	stmdbne	r7!, {r0, r3, r4, r5, r8, r9, fp}
     840:	01111349 	tsteq	r1, r9, asr #6
     844:	18400612 	stmdane	r0, {r1, r4, r9, sl}^
     848:	01194297 			; <UNDEFINED> instruction: 0x01194297
     84c:	0b000013 	bleq	8a0 <__code_start__-0x7760>
     850:	08030005 	stmdaeq	r3, {r0, r2}
     854:	0b3b0b3a 	bleq	ec3544 <__bss_end__+0xeb8e74>
     858:	13490b39 	movtne	r0, #39737	; 0x9b39
     85c:	00001802 	andeq	r1, r0, r2, lsl #16
     860:	0300050c 	movweq	r0, #1292	; 0x50c
     864:	3b0b3a08 	blcc	2cf08c <__bss_end__+0x2c49bc>
     868:	490b390b 	stmdbmi	fp, {r0, r1, r3, r8, fp, ip, sp}
     86c:	b7170213 			; <UNDEFINED> instruction: 0xb7170213
     870:	00001742 	andeq	r1, r0, r2, asr #14
     874:	0300340d 	movweq	r3, #1037	; 0x40d
     878:	3b0b3a08 	blcc	2cf0a0 <__bss_end__+0x2c49d0>
     87c:	490b390b 	stmdbmi	fp, {r0, r1, r3, r8, fp, ip, sp}
     880:	b7170213 			; <UNDEFINED> instruction: 0xb7170213
     884:	00001742 	andeq	r1, r0, r2, asr #14
     888:	0b000f0e 	bleq	44c8 <__code_start__-0x3b38>
     88c:	0000000b 	andeq	r0, r0, fp
     890:	25011101 	strcs	r1, [r1, #-257]	; 0xfffffeff
     894:	030b130e 	movweq	r1, #45838	; 0xb30e
     898:	110e1b0e 	tstne	lr, lr, lsl #22
     89c:	10061201 	andne	r1, r6, r1, lsl #4
     8a0:	02000017 	andeq	r0, r0, #23, 0
     8a4:	0e030016 	mcreq	0, 0, r0, cr3, cr6, {0}
     8a8:	0b3b0b3a 	bleq	ec3598 <__bss_end__+0xeb8ec8>
     8ac:	13490b39 	movtne	r0, #39737	; 0x9b39
     8b0:	13030000 	movwne	r0, #12288	; 0x3000
     8b4:	0b0e0301 	bleq	3814c0 <__bss_end__+0x376df0>
     8b8:	3b0b3a0b 	blcc	2cf0ec <__bss_end__+0x2c4a1c>
     8bc:	0013010b 	andseq	r0, r3, fp, lsl #2
     8c0:	000d0400 	andeq	r0, sp, r0, lsl #8
     8c4:	13490e03 	movtne	r0, #40451	; 0x9e03
     8c8:	19340b38 	ldmdbne	r4!, {r3, r4, r5, r8, r9, fp}
     8cc:	0f050000 	svceq	0x00050000
     8d0:	000b0b00 	andeq	r0, fp, r0, lsl #22
     8d4:	00240600 	eoreq	r0, r4, r0, lsl #12
     8d8:	0b3e0b0b 	bleq	f8350c <__bss_end__+0xf78e3c>
     8dc:	00000803 	andeq	r0, r0, r3, lsl #16
     8e0:	0b002407 	bleq	9904 <kmalloc_aligned+0x68>
     8e4:	030b3e0b 	movweq	r3, #48651	; 0xbe0b
     8e8:	0800000e 	stmdaeq	r0, {r1, r2, r3}
     8ec:	19270115 	stmdbne	r7!, {r0, r2, r4, r8}
     8f0:	13011349 	movwne	r1, #4937	; 0x1349
     8f4:	05090000 	streq	r0, [r9, #-0]
     8f8:	00134900 	andseq	r4, r3, r0, lsl #18
     8fc:	00340a00 	eorseq	r0, r4, r0, lsl #20
     900:	0b3a0e03 	bleq	e84114 <__bss_end__+0xe79a44>
     904:	0b390b3b 	bleq	e435f8 <__bss_end__+0xe38f28>
     908:	193f1349 	ldmdbne	pc!, {r0, r3, r6, r8, r9, ip}	; <UNPREDICTABLE>
     90c:	0000193c 	andeq	r1, r0, ip, lsr r9
     910:	0b000f0b 	bleq	4544 <__code_start__-0x3abc>
     914:	0013490b 	andseq	r4, r3, fp, lsl #18
     918:	00260c00 	eoreq	r0, r6, r0, lsl #24
     91c:	00001349 	andeq	r1, r0, r9, asr #6
     920:	3f012e0d 	svccc	0x00012e0d
     924:	3a0e0319 	bcc	381590 <__bss_end__+0x376ec0>
     928:	390b3b0b 	stmdbcc	fp, {r0, r1, r3, r8, r9, fp, ip, sp}
     92c:	4919270b 	ldmdbmi	r9, {r0, r1, r3, r8, r9, sl, sp}
     930:	12011113 	andne	r1, r1, #-1073741820	; 0xc0000004
     934:	97184006 	ldrls	r4, [r8, -r6]
     938:	13011942 	movwne	r1, #6466	; 0x1942
     93c:	050e0000 	streq	r0, [lr, #-0]
     940:	3a080300 	bcc	201548 <__bss_end__+0x1f6e78>
     944:	390b3b0b 	stmdbcc	fp, {r0, r1, r3, r8, r9, fp, ip, sp}
     948:	0213490b 	andseq	r4, r3, #180224	; 0x2c000
     94c:	0f000018 	svceq	0x00000018
     950:	00000018 	andeq	r0, r0, r8, lsl r0
     954:	03003410 	movweq	r3, #1040	; 0x410
     958:	3b0b3a08 	blcc	2cf180 <__bss_end__+0x2c4ab0>
     95c:	490b390b 	stmdbmi	fp, {r0, r1, r3, r8, fp, ip, sp}
     960:	00180213 	andseq	r0, r8, r3, lsl r2
     964:	00341100 	eorseq	r1, r4, r0, lsl #2
     968:	0b3a0e03 	bleq	e8417c <__bss_end__+0xe79aac>
     96c:	0b390b3b 	bleq	e43660 <__bss_end__+0xe38f90>
     970:	18021349 	stmdane	r2, {r0, r3, r6, r8, r9, ip}
     974:	34120000 	ldrcc	r0, [r2], #-0
     978:	3a080300 	bcc	201580 <__bss_end__+0x1f6eb0>
     97c:	390b3b0b 	stmdbcc	fp, {r0, r1, r3, r8, r9, fp, ip, sp}
     980:	0213490b 	andseq	r4, r3, #180224	; 0x2c000
     984:	1742b717 	smlaldne	fp, r2, r7, r7
     988:	89130000 	ldmdbhi	r3, {}	; <UNPREDICTABLE>
     98c:	11010182 	smlabbne	r1, r2, r1, r0
     990:	01133101 	tsteq	r3, r1, lsl #2
     994:	14000013 	strne	r0, [r0], #-19	; 0xffffffed
     998:	0001828a 	andeq	r8, r1, sl, lsl #5
     99c:	42911802 	addsmi	r1, r1, #131072	; 0x20000
     9a0:	15000018 	strne	r0, [r0, #-24]	; 0xffffffe8
     9a4:	01018289 	smlabbeq	r1, r9, r2, r8
     9a8:	00000111 	andeq	r0, r0, r1, lsl r1
     9ac:	49010116 	stmdbmi	r1, {r1, r2, r4, r8}
     9b0:	00130113 	andseq	r0, r3, r3, lsl r1
     9b4:	00211700 	eoreq	r1, r1, r0, lsl #14
     9b8:	052f1349 	streq	r1, [pc, #-841]!	; 677 <__code_start__-0x7989>
     9bc:	2e180000 	cdpcs	0, 1, cr0, cr8, cr0, {0}
     9c0:	3c193f00 	ldccc	15, cr3, [r9], {-0}
     9c4:	030e6e19 	movweq	r6, #60953	; 0xee19
     9c8:	3b0b3a0e 	blcc	2cf208 <__bss_end__+0x2c4b38>
     9cc:	000b390b 	andeq	r3, fp, fp, lsl #18
     9d0:	11010000 	mrsne	r0, (UNDEF: 1)
     9d4:	130e2501 	movwne	r2, #58625	; 0xe501
     9d8:	1b0e030b 	blne	38160c <__bss_end__+0x376f3c>
     9dc:	1201110e 	andne	r1, r1, #-2147483645	; 0x80000003
     9e0:	00171006 	andseq	r1, r7, r6
     9e4:	00240200 	eoreq	r0, r4, r0, lsl #4
     9e8:	0b3e0b0b 	bleq	f8361c <__bss_end__+0xf78f4c>
     9ec:	00000803 	andeq	r0, r0, r3, lsl #16
     9f0:	0b002403 	bleq	9a04 <kfree_pop+0x38>
     9f4:	030b3e0b 	movweq	r3, #48651	; 0xbe0b
     9f8:	0400000e 	streq	r0, [r0], #-14
     9fc:	19270115 	stmdbne	r7!, {r0, r2, r4, r8}
     a00:	13011349 	movwne	r1, #4937	; 0x1349
     a04:	05050000 	streq	r0, [r5, #-0]
     a08:	00134900 	andseq	r4, r3, r0, lsl #18
     a0c:	00340600 	eorseq	r0, r4, r0, lsl #12
     a10:	0b3a0e03 	bleq	e84224 <__bss_end__+0xe79b54>
     a14:	0b390b3b 	bleq	e43708 <__bss_end__+0xe39038>
     a18:	193f1349 	ldmdbne	pc!, {r0, r3, r6, r8, r9, ip}	; <UNPREDICTABLE>
     a1c:	0000193c 	andeq	r1, r0, ip, lsr r9
     a20:	0b000f07 	bleq	4644 <__code_start__-0x39bc>
     a24:	0013490b 	andseq	r4, r3, fp, lsl #18
     a28:	00260800 	eoreq	r0, r6, r0, lsl #16
     a2c:	00001349 	andeq	r1, r0, r9, asr #6
     a30:	47003409 	strmi	r3, [r0, -r9, lsl #8]
     a34:	3b0b3a13 	blcc	2cf288 <__bss_end__+0x2c4bb8>
     a38:	020b390b 	andeq	r3, fp, #180224	; 0x2c000
     a3c:	0a000018 	beq	aa4 <__code_start__-0x755c>
     a40:	193f012e 	ldmdbne	pc!, {r1, r2, r3, r5, r8}	; <UNPREDICTABLE>
     a44:	0b3a0e03 	bleq	e84258 <__bss_end__+0xe79b88>
     a48:	0b390b3b 	bleq	e4373c <__bss_end__+0xe3906c>
     a4c:	13491927 	movtne	r1, #39207	; 0x9927
     a50:	06120111 			; <UNDEFINED> instruction: 0x06120111
     a54:	42961840 	addsmi	r1, r6, #64, 16	; 0x400000
     a58:	0b000019 	bleq	ac4 <__code_start__-0x753c>
     a5c:	08030005 	stmdaeq	r3, {r0, r2}
     a60:	0b3b0b3a 	bleq	ec3750 <__bss_end__+0xeb9080>
     a64:	13490b39 	movtne	r0, #39737	; 0x9b39
     a68:	42b71702 	adcsmi	r1, r7, #524288	; 0x80000
     a6c:	00000017 	andeq	r0, r0, r7, lsl r0
     a70:	25011101 	strcs	r1, [r1, #-257]	; 0xfffffeff
     a74:	030b130e 	movweq	r1, #45838	; 0xb30e
     a78:	110e1b0e 	tstne	lr, lr, lsl #22
     a7c:	10061201 	andne	r1, r6, r1, lsl #4
     a80:	02000017 	andeq	r0, r0, #23, 0
     a84:	0b0b0024 	bleq	2c0b1c <__bss_end__+0x2b644c>
     a88:	0e030b3e 	vmoveq.16	d3[0], r0
     a8c:	24030000 	strcs	r0, [r3], #-0
     a90:	3e0b0b00 	vmlacc.f64	d0, d11, d0
     a94:	0008030b 	andeq	r0, r8, fp, lsl #6
     a98:	00160400 	andseq	r0, r6, r0, lsl #8
     a9c:	0b3a0e03 	bleq	e842b0 <__bss_end__+0xe79be0>
     aa0:	0b390b3b 	bleq	e43794 <__bss_end__+0xe390c4>
     aa4:	00001349 	andeq	r1, r0, r9, asr #6
     aa8:	27011505 	strcs	r1, [r1, -r5, lsl #10]
     aac:	01134919 	tsteq	r3, r9, lsl r9
     ab0:	06000013 			; <UNDEFINED> instruction: 0x06000013
     ab4:	13490005 	movtne	r0, #36869	; 0x9005
     ab8:	34070000 	strcc	r0, [r7], #-0
     abc:	3a0e0300 	bcc	3816c4 <__bss_end__+0x376ff4>
     ac0:	390b3b0b 	stmdbcc	fp, {r0, r1, r3, r8, r9, fp, ip, sp}
     ac4:	3f13490b 	svccc	0x0013490b
     ac8:	00193c19 	andseq	r3, r9, r9, lsl ip
     acc:	000f0800 	andeq	r0, pc, r0, lsl #16
     ad0:	13490b0b 	movtne	r0, #39691	; 0x9b0b
     ad4:	26090000 	strcs	r0, [r9], -r0
     ad8:	00134900 	andseq	r4, r3, r0, lsl #18
     adc:	01130a00 	tsteq	r3, r0, lsl #20
     ae0:	0b0b0e03 	bleq	2c42f4 <__bss_end__+0x2b9c24>
     ae4:	0b3b0b3a 	bleq	ec37d4 <__bss_end__+0xeb9104>
     ae8:	00001301 	andeq	r1, r0, r1, lsl #6
     aec:	03000d0b 	movweq	r0, #3339	; 0xd0b
     af0:	3813490e 	ldmdacc	r3, {r1, r2, r3, r8, fp, lr}
     af4:	0019340b 	andseq	r3, r9, fp, lsl #8
     af8:	000f0c00 	andeq	r0, pc, r0, lsl #24
     afc:	00000b0b 	andeq	r0, r0, fp, lsl #22
     b00:	3f012e0d 	svccc	0x00012e0d
     b04:	3a0e0319 	bcc	381770 <__bss_end__+0x3770a0>
     b08:	390b3b0b 	stmdbcc	fp, {r0, r1, r3, r8, r9, fp, ip, sp}
     b0c:	4919270b 	ldmdbmi	r9, {r0, r1, r3, r8, r9, sl, sp}
     b10:	12011113 	andne	r1, r1, #-1073741820	; 0xc0000004
     b14:	97184006 	ldrls	r4, [r8, -r6]
     b18:	13011942 	movwne	r1, #6466	; 0x1942
     b1c:	050e0000 	streq	r0, [lr, #-0]
     b20:	3a080300 	bcc	201728 <__bss_end__+0x1f7058>
     b24:	390b3b0b 	stmdbcc	fp, {r0, r1, r3, r8, r9, fp, ip, sp}
     b28:	0213490b 	andseq	r4, r3, #180224	; 0x2c000
     b2c:	1742b717 	smlaldne	fp, r2, r7, r7
     b30:	050f0000 	streq	r0, [pc, #-0]	; b38 <__code_start__-0x74c8>
     b34:	3a0e0300 	bcc	38173c <__bss_end__+0x37706c>
     b38:	390b3b0b 	stmdbcc	fp, {r0, r1, r3, r8, r9, fp, ip, sp}
     b3c:	0213490b 	andseq	r4, r3, #180224	; 0x2c000
     b40:	1742b717 	smlaldne	fp, r2, r7, r7
     b44:	34100000 	ldrcc	r0, [r0], #-0
     b48:	3a080300 	bcc	201750 <__bss_end__+0x1f7080>
     b4c:	390b3b0b 	stmdbcc	fp, {r0, r1, r3, r8, r9, fp, ip, sp}
     b50:	0213490b 	andseq	r4, r3, #180224	; 0x2c000
     b54:	1742b717 	smlaldne	fp, r2, r7, r7
     b58:	34110000 	ldrcc	r0, [r1], #-0
     b5c:	3a0e0300 	bcc	381764 <__bss_end__+0x377094>
     b60:	390b3b0b 	stmdbcc	fp, {r0, r1, r3, r8, r9, fp, ip, sp}
     b64:	0213490b 	andseq	r4, r3, #180224	; 0x2c000
     b68:	1742b717 	smlaldne	fp, r2, r7, r7
     b6c:	34120000 	ldrcc	r0, [r2], #-0
     b70:	490e0300 	stmdbmi	lr, {r8, r9}
     b74:	02193413 	andseq	r3, r9, #318767104	; 0x13000000
     b78:	13000018 	movwne	r0, #24
     b7c:	1755010b 	ldrbne	r0, [r5, -fp, lsl #2]
     b80:	34140000 	ldrcc	r0, [r4], #-0
     b84:	3a080300 	bcc	20178c <__bss_end__+0x1f70bc>
     b88:	390b3b0b 	stmdbcc	fp, {r0, r1, r3, r8, r9, fp, ip, sp}
     b8c:	0213490b 	andseq	r4, r3, #180224	; 0x2c000
     b90:	15000018 	strne	r0, [r0, #-24]	; 0xffffffe8
     b94:	0e030034 	mcreq	0, 0, r0, cr3, cr4, {1}
     b98:	0b3b0b3a 	bleq	ec3888 <__bss_end__+0xeb91b8>
     b9c:	13490b39 	movtne	r0, #39737	; 0x9b39
     ba0:	00001802 	andeq	r1, r0, r2, lsl #16
     ba4:	55010b16 	strpl	r0, [r1, #-2838]	; 0xfffff4ea
     ba8:	00130117 	andseq	r0, r3, r7, lsl r1
     bac:	82891700 	addhi	r1, r9, #0, 14
     bb0:	01110101 	tsteq	r1, r1, lsl #2
     bb4:	13011331 	movwne	r1, #4913	; 0x1331
     bb8:	8a180000 	bhi	600bc0 <__bss_end__+0x5f64f0>
     bbc:	02000182 	andeq	r0, r0, #-2147483616	; 0x80000020
     bc0:	18429118 	stmdane	r2, {r3, r4, r8, ip, pc}^
     bc4:	89190000 	ldmdbhi	r9, {}	; <UNPREDICTABLE>
     bc8:	11000182 	smlabbne	r0, r2, r1, r0
     bcc:	00133101 	andseq	r3, r3, r1, lsl #2
     bd0:	011d1a00 	tsteq	sp, r0, lsl #20
     bd4:	01521331 	cmpeq	r2, r1, lsr r3
     bd8:	550542b8 	strpl	r4, [r5, #-696]	; 0xfffffd48
     bdc:	590b5817 	stmdbpl	fp, {r0, r1, r2, r4, fp, ip, lr}
     be0:	010b570b 	tsteq	fp, fp, lsl #14
     be4:	1b000013 	blne	c38 <__code_start__-0x73c8>
     be8:	13310005 	teqne	r1, #5, 0
     bec:	42b71702 	adcsmi	r1, r7, #524288	; 0x80000
     bf0:	1c000017 	stcne	0, cr0, [r0], {23}
     bf4:	13310005 	teqne	r1, #5, 0
     bf8:	341d0000 	ldrcc	r0, [sp], #-0
     bfc:	02133100 	andseq	r3, r3, #0
     c00:	1e000018 	mcrne	0, 0, r0, cr0, cr8, {0}
     c04:	13310034 	teqne	r1, #52, 0	; 0x34
     c08:	42b71702 	adcsmi	r1, r7, #524288	; 0x80000
     c0c:	1f000017 	svcne	0x00000017
     c10:	13310034 	teqne	r1, #52, 0	; 0x34
     c14:	1d200000 	stcne	0, cr0, [r0, #-0]
     c18:	52133101 	andspl	r3, r3, #1073741824	; 0x40000000
     c1c:	0542b801 	strbeq	fp, [r2, #-2049]	; 0xfffff7ff
     c20:	0b581755 	bleq	160697c <__bss_end__+0x15fc2ac>
     c24:	0b570b59 	bleq	15c3990 <__bss_end__+0x15b92c0>
     c28:	89210000 	stmdbhi	r1!, {}	; <UNPREDICTABLE>
     c2c:	11010182 	smlabbne	r1, r2, r1, r0
     c30:	00130101 	andseq	r0, r3, r1, lsl #2
     c34:	01012200 	mrseq	r2, R9_usr
     c38:	13011349 	movwne	r1, #4937	; 0x1349
     c3c:	21230000 			; <UNDEFINED> instruction: 0x21230000
     c40:	2f134900 	svccs	0x00134900
     c44:	2400000b 	strcs	r0, [r0], #-11
     c48:	0e03012e 	adfeqsp	f0, f3, #0.5
     c4c:	0b3b0b3a 	bleq	ec393c <__bss_end__+0xeb926c>
     c50:	19270b39 	stmdbne	r7!, {r0, r3, r4, r5, r8, r9, fp}
     c54:	0b201349 	bleq	805980 <__bss_end__+0x7fb2b0>
     c58:	00001301 	andeq	r1, r0, r1, lsl #6
     c5c:	03000525 	movweq	r0, #1317	; 0x525
     c60:	3b0b3a0e 	blcc	2cf4a0 <__bss_end__+0x2c4dd0>
     c64:	490b390b 	stmdbmi	fp, {r0, r1, r3, r8, fp, ip, sp}
     c68:	26000013 			; <UNDEFINED> instruction: 0x26000013
     c6c:	08030005 	stmdaeq	r3, {r0, r2}
     c70:	0b3b0b3a 	bleq	ec3960 <__bss_end__+0xeb9290>
     c74:	13490b39 	movtne	r0, #39737	; 0x9b39
     c78:	34270000 	strtcc	r0, [r7], #-0
     c7c:	3a080300 	bcc	201884 <__bss_end__+0x1f71b4>
     c80:	390b3b0b 	stmdbcc	fp, {r0, r1, r3, r8, r9, fp, ip, sp}
     c84:	0013490b 	andseq	r4, r3, fp, lsl #18
     c88:	010b2800 	tsteq	fp, r0, lsl #16
     c8c:	34290000 	strtcc	r0, [r9], #-0
     c90:	3a0e0300 	bcc	381898 <__bss_end__+0x3771c8>
     c94:	390b3b0b 	stmdbcc	fp, {r0, r1, r3, r8, r9, fp, ip, sp}
     c98:	0013490b 	andseq	r4, r3, fp, lsl #18
     c9c:	012e2a00 			; <UNDEFINED> instruction: 0x012e2a00
     ca0:	0b3a0803 	bleq	e82cb4 <__bss_end__+0xe785e4>
     ca4:	0b390b3b 	bleq	e43998 <__bss_end__+0xe392c8>
     ca8:	13491927 	movtne	r1, #39207	; 0x9927
     cac:	13010b20 	movwne	r0, #6944	; 0x1b20
     cb0:	2e2b0000 	cdpcs	0, 2, cr0, cr11, cr0, {0}
     cb4:	03193f01 	tsteq	r9, #1, 30
     cb8:	3b0b3a0e 	blcc	2cf4f8 <__bss_end__+0x2c4e28>
     cbc:	270b390b 	strcs	r3, [fp, -fp, lsl #18]
     cc0:	12011119 	andne	r1, r1, #1073741830	; 0x40000006
     cc4:	97184006 	ldrls	r4, [r8, -r6]
     cc8:	13011942 	movwne	r1, #6466	; 0x1942
     ccc:	2e2c0000 	cdpcs	0, 2, cr0, cr12, cr0, {0}
     cd0:	11133101 	tstne	r3, r1, lsl #2
     cd4:	40061201 	andmi	r1, r6, r1, lsl #4
     cd8:	19429718 	stmdbne	r2, {r3, r4, r8, r9, sl, ip, pc}^
     cdc:	00001301 	andeq	r1, r0, r1, lsl #6
     ce0:	3100052d 	tstcc	r0, sp, lsr #10
     ce4:	00180213 	andseq	r0, r8, r3, lsl r2
     ce8:	00052e00 	andeq	r2, r5, r0, lsl #28
     cec:	0b1c1331 	bleq	7059b8 <__bss_end__+0x6fb2e8>
     cf0:	0b2f0000 	bleq	bc0cf8 <__bss_end__+0xbb6628>
     cf4:	11133101 	tstne	r3, r1, lsl #2
     cf8:	01061201 	tsteq	r6, r1, lsl #4
     cfc:	30000013 	andcc	r0, r0, r3, lsl r0
     d00:	193f002e 	ldmdbne	pc!, {r1, r2, r3, r5}	; <UNPREDICTABLE>
     d04:	0e6e193c 			; <UNDEFINED> instruction: 0x0e6e193c
     d08:	0b3a0e03 	bleq	e8451c <__bss_end__+0xe79e4c>
     d0c:	0b390b3b 	bleq	e43a00 <__bss_end__+0xe39330>
     d10:	01000000 	mrseq	r0, (UNDEF: 0)
     d14:	0e250111 	mcreq	1, 1, r0, cr5, cr1, {0}
     d18:	0e030b13 	vmoveq.32	d3[0], r0
     d1c:	01110e1b 	tsteq	r1, fp, lsl lr
     d20:	17100612 			; <UNDEFINED> instruction: 0x17100612
     d24:	24020000 	strcs	r0, [r2], #-0
     d28:	3e0b0b00 	vmlacc.f64	d0, d11, d0
     d2c:	0008030b 	andeq	r0, r8, fp, lsl #6
     d30:	00240300 	eoreq	r0, r4, r0, lsl #6
     d34:	0b3e0b0b 	bleq	f83968 <__bss_end__+0xf79298>
     d38:	00000e03 	andeq	r0, r0, r3, lsl #28
     d3c:	27011504 	strcs	r1, [r1, -r4, lsl #10]
     d40:	01134919 	tsteq	r3, r9, lsl r9
     d44:	05000013 	streq	r0, [r0, #-19]	; 0xffffffed
     d48:	13490005 	movtne	r0, #36869	; 0x9005
     d4c:	34060000 	strcc	r0, [r6], #-0
     d50:	3a0e0300 	bcc	381958 <__bss_end__+0x377288>
     d54:	390b3b0b 	stmdbcc	fp, {r0, r1, r3, r8, r9, fp, ip, sp}
     d58:	3f13490b 	svccc	0x0013490b
     d5c:	00193c19 	andseq	r3, r9, r9, lsl ip
     d60:	000f0700 	andeq	r0, pc, r0, lsl #14
     d64:	13490b0b 	movtne	r0, #39691	; 0x9b0b
     d68:	26080000 	strcs	r0, [r8], -r0
     d6c:	00134900 	andseq	r4, r3, r0, lsl #18
     d70:	012e0900 			; <UNDEFINED> instruction: 0x012e0900
     d74:	0e03193f 			; <UNDEFINED> instruction: 0x0e03193f
     d78:	0b3b0b3a 	bleq	ec3a68 <__bss_end__+0xeb9398>
     d7c:	19270b39 	stmdbne	r7!, {r0, r3, r4, r5, r8, r9, fp}
     d80:	11190187 	tstne	r9, r7, lsl #3
     d84:	40061201 	andmi	r1, r6, r1, lsl #4
     d88:	19429718 	stmdbne	r2, {r3, r4, r8, r9, sl, ip, pc}^
     d8c:	00001301 	andeq	r1, r0, r1, lsl #6
     d90:	0182890a 	orreq	r8, r2, sl, lsl #18
     d94:	01011101 	tsteq	r1, r1, lsl #2
     d98:	0b000013 	bleq	dec <__code_start__-0x7214>
     d9c:	0001828a 	andeq	r8, r1, sl, lsl #5
     da0:	42911802 	addsmi	r1, r1, #131072	; 0x20000
     da4:	0c000018 	stceq	0, cr0, [r0], {24}
     da8:	00018289 	andeq	r8, r1, r9, lsl #5
     dac:	13310111 	teqne	r1, #1073741828	; 0x40000004
     db0:	890d0000 	stmdbhi	sp, {}	; <UNPREDICTABLE>
     db4:	11010182 	smlabbne	r1, r2, r1, r0
     db8:	01133101 	tsteq	r3, r1, lsl #2
     dbc:	0e000013 	mcreq	0, 0, r0, cr0, cr3, {0}
     dc0:	193f002e 	ldmdbne	pc!, {r1, r2, r3, r5}	; <UNPREDICTABLE>
     dc4:	0e6e193c 			; <UNDEFINED> instruction: 0x0e6e193c
     dc8:	0b3a0e03 	bleq	e845dc <__bss_end__+0xe79f0c>
     dcc:	0b390b3b 	bleq	e43ac0 <__bss_end__+0xe393f0>
     dd0:	01000000 	mrseq	r0, (UNDEF: 0)
     dd4:	0e250111 	mcreq	1, 1, r0, cr5, cr1, {0}
     dd8:	0e030b13 	vmoveq.32	d3[0], r0
     ddc:	01110e1b 	tsteq	r1, fp, lsl lr
     de0:	17100612 			; <UNDEFINED> instruction: 0x17100612
     de4:	24020000 	strcs	r0, [r2], #-0
     de8:	3e0b0b00 	vmlacc.f64	d0, d11, d0
     dec:	0008030b 	andeq	r0, r8, fp, lsl #6
     df0:	00240300 	eoreq	r0, r4, r0, lsl #6
     df4:	0b3e0b0b 	bleq	f83a28 <__bss_end__+0xf79358>
     df8:	00000e03 	andeq	r0, r0, r3, lsl #28
     dfc:	27011504 	strcs	r1, [r1, -r4, lsl #10]
     e00:	01134919 	tsteq	r3, r9, lsl r9
     e04:	05000013 	streq	r0, [r0, #-19]	; 0xffffffed
     e08:	13490005 	movtne	r0, #36869	; 0x9005
     e0c:	34060000 	strcc	r0, [r6], #-0
     e10:	3a0e0300 	bcc	381a18 <__bss_end__+0x377348>
     e14:	390b3b0b 	stmdbcc	fp, {r0, r1, r3, r8, r9, fp, ip, sp}
     e18:	3f13490b 	svccc	0x0013490b
     e1c:	00193c19 	andseq	r3, r9, r9, lsl ip
     e20:	000f0700 	andeq	r0, pc, r0, lsl #14
     e24:	13490b0b 	movtne	r0, #39691	; 0x9b0b
     e28:	26080000 	strcs	r0, [r8], -r0
     e2c:	00134900 	andseq	r4, r3, r0, lsl #18
     e30:	012e0900 			; <UNDEFINED> instruction: 0x012e0900
     e34:	0e03193f 			; <UNDEFINED> instruction: 0x0e03193f
     e38:	0b3b0b3a 	bleq	ec3b28 <__bss_end__+0xeb9458>
     e3c:	01110b39 	tsteq	r1, r9, lsr fp
     e40:	18400612 	stmdane	r0, {r1, r4, r9, sl}^
     e44:	01194297 			; <UNDEFINED> instruction: 0x01194297
     e48:	0a000013 	beq	e9c <__code_start__-0x7164>
     e4c:	193f002e 	ldmdbne	pc!, {r1, r2, r3, r5}	; <UNPREDICTABLE>
     e50:	0b3a0e03 	bleq	e84664 <__bss_end__+0xe79f94>
     e54:	0b390b3b 	bleq	e43b48 <__bss_end__+0xe39478>
     e58:	193c1927 	ldmdbne	ip!, {r0, r1, r2, r5, r8, fp, ip}
     e5c:	340b0000 	strcc	r0, [fp], #-0
     e60:	3a080300 	bcc	201a68 <__bss_end__+0x1f7398>
     e64:	390b3b0b 	stmdbcc	fp, {r0, r1, r3, r8, r9, fp, ip, sp}
     e68:	0213490b 	andseq	r4, r3, #180224	; 0x2c000
     e6c:	1742b717 	smlaldne	fp, r2, r7, r7
     e70:	340c0000 	strcc	r0, [ip], #-0
     e74:	3a0e0300 	bcc	381a7c <__bss_end__+0x3773ac>
     e78:	390b3b0b 	stmdbcc	fp, {r0, r1, r3, r8, r9, fp, ip, sp}
     e7c:	0013490b 	andseq	r4, r3, fp, lsl #18
     e80:	010b0d00 	tsteq	fp, r0, lsl #26
     e84:	06120111 			; <UNDEFINED> instruction: 0x06120111
     e88:	00001301 	andeq	r1, r0, r1, lsl #6
     e8c:	0182890e 	orreq	r8, r2, lr, lsl #18
     e90:	31011100 	mrscc	r1, (UNDEF: 17)
     e94:	0f000013 	svceq	0x00000013
     e98:	193f002e 	ldmdbne	pc!, {r1, r2, r3, r5}	; <UNPREDICTABLE>
     e9c:	0e6e193c 			; <UNDEFINED> instruction: 0x0e6e193c
     ea0:	0b3a0e03 	bleq	e846b4 <__bss_end__+0xe79fe4>
     ea4:	0b39053b 	bleq	e42398 <__bss_end__+0xe37cc8>
     ea8:	2e100000 	cdpcs	0, 1, cr0, cr0, cr0, {0}
     eac:	3c193f00 	ldccc	15, cr3, [r9], {-0}
     eb0:	030e6e19 	movweq	r6, #60953	; 0xee19
     eb4:	3b0b3a0e 	blcc	2cf6f4 <__bss_end__+0x2c5024>
     eb8:	000b390b 	andeq	r3, fp, fp, lsl #18
     ebc:	11010000 	mrsne	r0, (UNDEF: 1)
     ec0:	130e2501 	movwne	r2, #58625	; 0xe501
     ec4:	1b0e030b 	blne	381af8 <__bss_end__+0x377428>
     ec8:	1201110e 	andne	r1, r1, #-2147483645	; 0x80000003
     ecc:	00171006 	andseq	r1, r7, r6
     ed0:	00240200 	eoreq	r0, r4, r0, lsl #4
     ed4:	0b3e0b0b 	bleq	f83b08 <__bss_end__+0xf79438>
     ed8:	00000803 	andeq	r0, r0, r3, lsl #16
     edc:	0b002403 	bleq	9ef0 <__FUNCTION__.4048+0x8c>
     ee0:	030b3e0b 	movweq	r3, #48651	; 0xbe0b
     ee4:	0400000e 	streq	r0, [r0], #-14
     ee8:	19270115 	stmdbne	r7!, {r0, r2, r4, r8}
     eec:	13011349 	movwne	r1, #4937	; 0x1349
     ef0:	05050000 	streq	r0, [r5, #-0]
     ef4:	00134900 	andseq	r4, r3, r0, lsl #18
     ef8:	00340600 	eorseq	r0, r4, r0, lsl #12
     efc:	0b3a0e03 	bleq	e84710 <__bss_end__+0xe7a040>
     f00:	0b390b3b 	bleq	e43bf4 <__bss_end__+0xe39524>
     f04:	193f1349 	ldmdbne	pc!, {r0, r3, r6, r8, r9, ip}	; <UNPREDICTABLE>
     f08:	0000193c 	andeq	r1, r0, ip, lsr r9
     f0c:	0b000f07 	bleq	4b30 <__code_start__-0x34d0>
     f10:	0013490b 	andseq	r4, r3, fp, lsl #18
     f14:	00260800 	eoreq	r0, r6, r0, lsl #16
     f18:	00001349 	andeq	r1, r0, r9, asr #6
     f1c:	3f002e09 	svccc	0x00002e09
     f20:	3a0e0319 	bcc	381b8c <__bss_end__+0x3774bc>
     f24:	390b3b0b 	stmdbcc	fp, {r0, r1, r3, r8, r9, fp, ip, sp}
     f28:	1119270b 	tstne	r9, fp, lsl #14
     f2c:	40061201 	andmi	r1, r6, r1, lsl #4
     f30:	19429718 	stmdbne	r2, {r3, r4, r8, r9, sl, ip, pc}^
     f34:	01000000 	mrseq	r0, (UNDEF: 0)
     f38:	0e250111 	mcreq	1, 1, r0, cr5, cr1, {0}
     f3c:	0e030b13 	vmoveq.32	d3[0], r0
     f40:	17550e1b 	smmlane	r5, fp, lr, r0
     f44:	17100111 			; <UNDEFINED> instruction: 0x17100111
     f48:	24020000 	strcs	r0, [r2], #-0
     f4c:	3e0b0b00 	vmlacc.f64	d0, d11, d0
     f50:	0008030b 	andeq	r0, r8, fp, lsl #6
     f54:	00260300 	eoreq	r0, r6, r0, lsl #6
     f58:	00001349 	andeq	r1, r0, r9, asr #6
     f5c:	0b002404 	bleq	9f74 <__FUNCTION__.4080+0x60>
     f60:	030b3e0b 	movweq	r3, #48651	; 0xbe0b
     f64:	0500000e 	streq	r0, [r0, #-14]
     f68:	19270115 	stmdbne	r7!, {r0, r2, r4, r8}
     f6c:	13011349 	movwne	r1, #4937	; 0x1349
     f70:	05060000 	streq	r0, [r6, #-0]
     f74:	00134900 	andseq	r4, r3, r0, lsl #18
     f78:	00340700 	eorseq	r0, r4, r0, lsl #14
     f7c:	0b3a0e03 	bleq	e84790 <__bss_end__+0xe7a0c0>
     f80:	0b390b3b 	bleq	e43c74 <__bss_end__+0xe395a4>
     f84:	193f1349 	ldmdbne	pc!, {r0, r3, r6, r8, r9, ip}	; <UNPREDICTABLE>
     f88:	0000193c 	andeq	r1, r0, ip, lsr r9
     f8c:	0b000f08 	bleq	4bb4 <__code_start__-0x344c>
     f90:	0013490b 	andseq	r4, r3, fp, lsl #18
     f94:	00340900 	eorseq	r0, r4, r0, lsl #18
     f98:	0b3a0e03 	bleq	e847ac <__bss_end__+0xe7a0dc>
     f9c:	0b390b3b 	bleq	e43c90 <__bss_end__+0xe395c0>
     fa0:	00001349 	andeq	r1, r0, r9, asr #6
     fa4:	3f012e0a 	svccc	0x00012e0a
     fa8:	3a0e0319 	bcc	381c14 <__bss_end__+0x377544>
     fac:	390b3b0b 	stmdbcc	fp, {r0, r1, r3, r8, r9, fp, ip, sp}
     fb0:	8719270b 	ldrhi	r2, [r9, -fp, lsl #14]
     fb4:	01111901 	tsteq	r1, r1, lsl #18
     fb8:	18400612 	stmdane	r0, {r1, r4, r9, sl}^
     fbc:	01194297 			; <UNDEFINED> instruction: 0x01194297
     fc0:	0b000013 	bleq	1014 <__code_start__-0x6fec>
     fc4:	0e030034 	mcreq	0, 0, r0, cr3, cr4, {1}
     fc8:	0b3b0b3a 	bleq	ec3cb8 <__bss_end__+0xeb95e8>
     fcc:	13490b39 	movtne	r0, #39737	; 0x9b39
     fd0:	0000061c 	andeq	r0, r0, ip, lsl r6
     fd4:	0300340c 	movweq	r3, #1036	; 0x40c
     fd8:	3b0b3a0e 	blcc	2cf818 <__bss_end__+0x2c5148>
     fdc:	490b390b 	stmdbmi	fp, {r0, r1, r3, r8, fp, ip, sp}
     fe0:	000b1c13 	andeq	r1, fp, r3, lsl ip
     fe4:	011d0d00 	tsteq	sp, r0, lsl #26
     fe8:	01521331 	cmpeq	r2, r1, lsr r3
     fec:	550b42b8 	strpl	r4, [fp, #-696]	; 0xfffffd48
     ff0:	590b5817 	stmdbpl	fp, {r0, r1, r2, r4, fp, ip, lr}
     ff4:	010b570b 	tsteq	fp, fp, lsl #14
     ff8:	0e000013 	mcreq	0, 0, r0, cr0, cr3, {0}
     ffc:	1755010b 	ldrbne	r0, [r5, -fp, lsl #2]
    1000:	340f0000 	strcc	r0, [pc], #-0	; 1008 <__code_start__-0x6ff8>
    1004:	02133100 	andseq	r3, r3, #0
    1008:	1742b717 	smlaldne	fp, r2, r7, r7
    100c:	1d100000 	ldcne	0, cr0, [r0, #-0]
    1010:	52133101 	andspl	r3, r3, #1073741824	; 0x40000000
    1014:	0b42b801 	bleq	10af020 <__bss_end__+0x10a4950>
    1018:	06120111 			; <UNDEFINED> instruction: 0x06120111
    101c:	0b590b58 	bleq	1643d84 <__bss_end__+0x16396b4>
    1020:	13010b57 	movwne	r0, #6999	; 0x1b57
    1024:	89110000 	ldmdbhi	r1, {}	; <UNPREDICTABLE>
    1028:	11000182 	smlabbne	r0, r2, r1, r0
    102c:	00133101 	andseq	r3, r3, r1, lsl #2
    1030:	82891200 	addhi	r1, r9, #0, 4
    1034:	01110101 	tsteq	r1, r1, lsl #2
    1038:	13011331 	movwne	r1, #4913	; 0x1331
    103c:	8a130000 	bhi	4c1044 <__bss_end__+0x4b6974>
    1040:	02000182 	andeq	r0, r0, #-2147483616	; 0x80000020
    1044:	18429118 	stmdane	r2, {r3, r4, r8, ip, pc}^
    1048:	89140000 	ldmdbhi	r4, {}	; <UNPREDICTABLE>
    104c:	11010182 	smlabbne	r1, r2, r1, r0
    1050:	00133101 	andseq	r3, r3, r1, lsl #2
    1054:	012e1500 			; <UNDEFINED> instruction: 0x012e1500
    1058:	0e03193f 			; <UNDEFINED> instruction: 0x0e03193f
    105c:	0b3b0b3a 	bleq	ec3d4c <__bss_end__+0xeb967c>
    1060:	19270b39 	stmdbne	r7!, {r0, r3, r4, r5, r8, r9, fp}
    1064:	13010b20 	movwne	r0, #6944	; 0x1b20
    1068:	2e160000 	cdpcs	0, 1, cr0, cr6, cr0, {0}
    106c:	03193f01 	tsteq	r9, #1, 30
    1070:	3b0b3a0e 	blcc	2cf8b0 <__bss_end__+0x2c51e0>
    1074:	270b390b 	strcs	r3, [fp, -fp, lsl #18]
    1078:	20134919 	andscs	r4, r3, r9, lsl r9
    107c:	0013010b 	andseq	r0, r3, fp, lsl #2
    1080:	012e1700 			; <UNDEFINED> instruction: 0x012e1700
    1084:	01111331 	tsteq	r1, r1, lsr r3
    1088:	18400612 	stmdane	r0, {r1, r4, r9, sl}^
    108c:	01194297 			; <UNDEFINED> instruction: 0x01194297
    1090:	18000013 	stmdane	r0, {r0, r1, r4}
    1094:	193f002e 	ldmdbne	pc!, {r1, r2, r3, r5}	; <UNPREDICTABLE>
    1098:	0e6e193c 			; <UNDEFINED> instruction: 0x0e6e193c
    109c:	0b3a0e03 	bleq	e848b0 <__bss_end__+0xe7a1e0>
    10a0:	0b39053b 	bleq	e42594 <__bss_end__+0xe37ec4>
    10a4:	2e190000 	cdpcs	0, 1, cr0, cr9, cr0, {0}
    10a8:	3c193f00 	ldccc	15, cr3, [r9], {-0}
    10ac:	030e6e19 	movweq	r6, #60953	; 0xee19
    10b0:	3b0b3a0e 	blcc	2cf8f0 <__bss_end__+0x2c5220>
    10b4:	000b390b 	andeq	r3, fp, fp, lsl #18
    10b8:	11010000 	mrsne	r0, (UNDEF: 1)
    10bc:	130e2501 	movwne	r2, #58625	; 0xe501
    10c0:	1b0e030b 	blne	381cf4 <__bss_end__+0x377624>
    10c4:	1201110e 	andne	r1, r1, #-2147483645	; 0x80000003
    10c8:	00171006 	andseq	r1, r7, r6
    10cc:	00240200 	eoreq	r0, r4, r0, lsl #4
    10d0:	0b3e0b0b 	bleq	f83d04 <__bss_end__+0xf79634>
    10d4:	00000803 	andeq	r0, r0, r3, lsl #16
    10d8:	0b002403 	bleq	a0ec <__FUNCTION__.4030+0x70>
    10dc:	030b3e0b 	movweq	r3, #48651	; 0xbe0b
    10e0:	0400000e 	streq	r0, [r0], #-14
    10e4:	19270115 	stmdbne	r7!, {r0, r2, r4, r8}
    10e8:	13011349 	movwne	r1, #4937	; 0x1349
    10ec:	05050000 	streq	r0, [r5, #-0]
    10f0:	00134900 	andseq	r4, r3, r0, lsl #18
    10f4:	00340600 	eorseq	r0, r4, r0, lsl #12
    10f8:	0b3a0e03 	bleq	e8490c <__bss_end__+0xe7a23c>
    10fc:	0b390b3b 	bleq	e43df0 <__bss_end__+0xe39720>
    1100:	193f1349 	ldmdbne	pc!, {r0, r3, r6, r8, r9, ip}	; <UNPREDICTABLE>
    1104:	0000193c 	andeq	r1, r0, ip, lsr r9
    1108:	0b000f07 	bleq	4d2c <__code_start__-0x32d4>
    110c:	0013490b 	andseq	r4, r3, fp, lsl #18
    1110:	00260800 	eoreq	r0, r6, r0, lsl #16
    1114:	00001349 	andeq	r1, r0, r9, asr #6
    1118:	3f012e09 	svccc	0x00012e09
    111c:	3a0e0319 	bcc	381d88 <__bss_end__+0x3776b8>
    1120:	390b3b0b 	stmdbcc	fp, {r0, r1, r3, r8, r9, fp, ip, sp}
    1124:	1119270b 	tstne	r9, fp, lsl #14
    1128:	40061201 	andmi	r1, r6, r1, lsl #4
    112c:	19429718 	stmdbne	r2, {r3, r4, r8, r9, sl, ip, pc}^
    1130:	00001301 	andeq	r1, r0, r1, lsl #6
    1134:	0300050a 	movweq	r0, #1290	; 0x50a
    1138:	3b0b3a08 	blcc	2cf960 <__bss_end__+0x2c5290>
    113c:	490b390b 	stmdbmi	fp, {r0, r1, r3, r8, fp, ip, sp}
    1140:	b7170213 			; <UNDEFINED> instruction: 0xb7170213
    1144:	00001742 	andeq	r1, r0, r2, asr #14
    1148:	31011d0b 	tstcc	r1, fp, lsl #26
    114c:	b8015213 	stmdalt	r1, {r0, r1, r4, r9, ip, lr}
    1150:	17550b42 	ldrbne	r0, [r5, -r2, asr #22]
    1154:	0b590b58 	bleq	1643ebc <__bss_end__+0x16397ec>
    1158:	00000b57 	andeq	r0, r0, r7, asr fp
    115c:	3100050c 	tstcc	r0, ip, lsl #10
    1160:	b7170213 			; <UNDEFINED> instruction: 0xb7170213
    1164:	00001742 	andeq	r1, r0, r2, asr #14
    1168:	31011d0d 	tstcc	r1, sp, lsl #26
    116c:	b8015213 	stmdalt	r1, {r0, r1, r4, r9, ip, lr}
    1170:	01110b42 	tsteq	r1, r2, asr #22
    1174:	0b580612 	bleq	16029c4 <__bss_end__+0x15f82f4>
    1178:	0b570b59 	bleq	15c3ee4 <__bss_end__+0x15b9814>
    117c:	340e0000 	strcc	r0, [lr], #-0
    1180:	02133100 	andseq	r3, r3, #0
    1184:	1742b717 	smlaldne	fp, r2, r7, r7
    1188:	1d0f0000 	stcne	0, cr0, [pc, #-0]	; 1190 <__code_start__-0x6e70>
    118c:	52133101 	andspl	r3, r3, #1073741824	; 0x40000000
    1190:	0b42b801 	bleq	10af19c <__bss_end__+0x10a4acc>
    1194:	06120111 			; <UNDEFINED> instruction: 0x06120111
    1198:	0b590b58 	bleq	1643f00 <__bss_end__+0x1639830>
    119c:	13010b57 	movwne	r0, #6999	; 0x1b57
    11a0:	89100000 	ldmdbhi	r0, {}	; <UNPREDICTABLE>
    11a4:	11010182 	smlabbne	r1, r2, r1, r0
    11a8:	00133101 	andseq	r3, r3, r1, lsl #2
    11ac:	828a1100 	addhi	r1, sl, #0
    11b0:	18020001 	stmdane	r2, {r0}
    11b4:	00184291 	mulseq	r8, r1, r2
    11b8:	82891200 	addhi	r1, r9, #0, 4
    11bc:	01110001 	tsteq	r1, r1
    11c0:	00001331 	andeq	r1, r0, r1, lsr r3
    11c4:	31010b13 	tstcc	r1, r3, lsl fp
    11c8:	00175513 	andseq	r5, r7, r3, lsl r5
    11cc:	00341400 	eorseq	r1, r4, r0, lsl #8
    11d0:	00001331 	andeq	r1, r0, r1, lsr r3
    11d4:	55010b15 	strpl	r0, [r1, #-2837]	; 0xfffff4eb
    11d8:	16000017 			; <UNDEFINED> instruction: 0x16000017
    11dc:	1331011d 	teqne	r1, #1073741831	; 0x40000007
    11e0:	42b80152 	adcsmi	r0, r8, #-2147483628	; 0x80000014
    11e4:	5817550b 	ldmdapl	r7, {r0, r1, r3, r8, sl, ip, lr}
    11e8:	570b590b 	strpl	r5, [fp, -fp, lsl #18]
    11ec:	0013010b 	andseq	r0, r3, fp, lsl #2
    11f0:	012e1700 			; <UNDEFINED> instruction: 0x012e1700
    11f4:	0e03193f 			; <UNDEFINED> instruction: 0x0e03193f
    11f8:	0b3b0b3a 	bleq	ec3ee8 <__bss_end__+0xeb9818>
    11fc:	19270b39 	stmdbne	r7!, {r0, r3, r4, r5, r8, r9, fp}
    1200:	13010b20 	movwne	r0, #6944	; 0x1b20
    1204:	05180000 	ldreq	r0, [r8, #-0]
    1208:	3a080300 	bcc	201e10 <__bss_end__+0x1f7740>
    120c:	390b3b0b 	stmdbcc	fp, {r0, r1, r3, r8, r9, fp, ip, sp}
    1210:	0013490b 	andseq	r4, r3, fp, lsl #18
    1214:	00341900 	eorseq	r1, r4, r0, lsl #18
    1218:	0b3a0803 	bleq	e8322c <__bss_end__+0xe78b5c>
    121c:	0b390b3b 	bleq	e43f10 <__bss_end__+0xe39840>
    1220:	00001349 	andeq	r1, r0, r9, asr #6
    1224:	00010b1a 	andeq	r0, r1, sl, lsl fp
    1228:	012e1b00 			; <UNDEFINED> instruction: 0x012e1b00
    122c:	0e03193f 			; <UNDEFINED> instruction: 0x0e03193f
    1230:	0b3b0b3a 	bleq	ec3f20 <__bss_end__+0xeb9850>
    1234:	19270b39 	stmdbne	r7!, {r0, r3, r4, r5, r8, r9, fp}
    1238:	0b201349 	bleq	805f64 <__bss_end__+0x7fb894>
    123c:	00001301 	andeq	r1, r0, r1, lsl #6
    1240:	3f002e1c 	svccc	0x00002e1c
    1244:	3a0e0319 	bcc	381eb0 <__bss_end__+0x3777e0>
    1248:	390b3b0b 	stmdbcc	fp, {r0, r1, r3, r8, r9, fp, ip, sp}
    124c:	4919270b 	ldmdbmi	r9, {r0, r1, r3, r8, r9, sl, sp}
    1250:	000b2013 	andeq	r2, fp, r3, lsl r0
    1254:	012e1d00 			; <UNDEFINED> instruction: 0x012e1d00
    1258:	01111331 	tsteq	r1, r1, lsr r3
    125c:	18400612 	stmdane	r0, {r1, r4, r9, sl}^
    1260:	01194297 			; <UNDEFINED> instruction: 0x01194297
    1264:	1e000013 	mcrne	0, 0, r0, cr0, cr3, {0}
    1268:	01018289 	smlabbeq	r1, r9, r2, r8
    126c:	42950111 	addsmi	r0, r5, #1073741828	; 0x40000004
    1270:	00133119 	andseq	r3, r3, r9, lsl r1
    1274:	002e1f00 	eoreq	r1, lr, r0, lsl #30
    1278:	193c193f 	ldmdbne	ip!, {r0, r1, r2, r3, r4, r5, r8, fp, ip}
    127c:	0e030e6e 	cdpeq	14, 0, cr0, cr3, cr14, {3}
    1280:	0b3b0b3a 	bleq	ec3f70 <__bss_end__+0xeb98a0>
    1284:	00000b39 	andeq	r0, r0, r9, lsr fp
    1288:	01110100 	tsteq	r1, r0, lsl #2
    128c:	0b130e25 	bleq	4c4b28 <__bss_end__+0x4ba458>
    1290:	0e1b0e03 	cdpeq	14, 1, cr0, cr11, cr3, {0}
    1294:	06120111 			; <UNDEFINED> instruction: 0x06120111
    1298:	00001710 	andeq	r1, r0, r0, lsl r7
    129c:	0b002402 	bleq	a2ac <__bss_start__+0x4>
    12a0:	030b3e0b 	movweq	r3, #48651	; 0xbe0b
    12a4:	03000008 	movweq	r0, #8
    12a8:	0b0b0024 	bleq	2c1340 <__bss_end__+0x2b6c70>
    12ac:	0e030b3e 	vmoveq.16	d3[0], r0
    12b0:	35040000 	strcc	r0, [r4, #-0]
    12b4:	00134900 	andseq	r4, r3, r0, lsl #18
    12b8:	00160500 	andseq	r0, r6, r0, lsl #10
    12bc:	0b3a0e03 	bleq	e84ad0 <__bss_end__+0xe7a400>
    12c0:	0b390b3b 	bleq	e43fb4 <__bss_end__+0xe398e4>
    12c4:	00001349 	andeq	r1, r0, r9, asr #6
    12c8:	3e010406 	cdpcc	4, 0, cr0, cr1, cr6, {0}
    12cc:	490b0b0b 	stmdbmi	fp, {r0, r1, r3, r8, r9, fp}
    12d0:	3b0b3a13 	blcc	2cfb24 <__bss_end__+0x2c5454>
    12d4:	010b390b 	tsteq	fp, fp, lsl #18
    12d8:	07000013 	smladeq	r0, r3, r0, r0
    12dc:	0e030028 	cdpeq	0, 0, cr0, cr3, cr8, {1}
    12e0:	00000b1c 	andeq	r0, r0, ip, lsl fp
    12e4:	03011308 	movweq	r1, #4872	; 0x1308
    12e8:	3a0b0b0e 	bcc	2c3f28 <__bss_end__+0x2b9858>
    12ec:	390b3b0b 	stmdbcc	fp, {r0, r1, r3, r8, r9, fp, ip, sp}
    12f0:	0013010b 	andseq	r0, r3, fp, lsl #2
    12f4:	000d0900 	andeq	r0, sp, r0, lsl #18
    12f8:	0b3a0803 	bleq	e8330c <__bss_end__+0xe78c3c>
    12fc:	0b390b3b 	bleq	e43ff0 <__bss_end__+0xe39920>
    1300:	0b381349 	bleq	e0602c <__bss_end__+0xdfb95c>
    1304:	0d0a0000 	stceq	0, cr0, [sl, #-0]
    1308:	3a0e0300 	bcc	381f10 <__bss_end__+0x377840>
    130c:	390b3b0b 	stmdbcc	fp, {r0, r1, r3, r8, r9, fp, ip, sp}
    1310:	3813490b 	ldmdacc	r3, {r0, r1, r3, r8, fp, lr}
    1314:	0b00000b 	bleq	1348 <__code_start__-0x6cb8>
    1318:	0e030034 	mcreq	0, 0, r0, cr3, cr4, {1}
    131c:	0b3b0b3a 	bleq	ec400c <__bss_end__+0xeb993c>
    1320:	13490b39 	movtne	r0, #39737	; 0x9b39
    1324:	0000061c 	andeq	r0, r0, ip, lsl r6
    1328:	0b000f0c 	bleq	4f60 <__code_start__-0x30a0>
    132c:	0013490b 	andseq	r4, r3, fp, lsl #18
    1330:	00260d00 	eoreq	r0, r6, r0, lsl #26
    1334:	00001349 	andeq	r1, r0, r9, asr #6
    1338:	3f012e0e 	svccc	0x00012e0e
    133c:	3a0e0319 	bcc	381fa8 <__bss_end__+0x3778d8>
    1340:	390b3b0b 	stmdbcc	fp, {r0, r1, r3, r8, r9, fp, ip, sp}
    1344:	1119270b 	tstne	r9, fp, lsl #14
    1348:	40061201 	andmi	r1, r6, r1, lsl #4
    134c:	19429718 	stmdbne	r2, {r3, r4, r8, r9, sl, ip, pc}^
    1350:	00001301 	andeq	r1, r0, r1, lsl #6
    1354:	0182890f 	orreq	r8, r2, pc, lsl #18
    1358:	31011100 	mrscc	r1, (UNDEF: 17)
    135c:	10000013 	andne	r0, r0, r3, lsl r0
    1360:	193f012e 	ldmdbne	pc!, {r1, r2, r3, r5, r8}	; <UNPREDICTABLE>
    1364:	0b3a0e03 	bleq	e84b78 <__bss_end__+0xe7a4a8>
    1368:	0b390b3b 	bleq	e4405c <__bss_end__+0xe3998c>
    136c:	13491927 	movtne	r1, #39207	; 0x9927
    1370:	06120111 			; <UNDEFINED> instruction: 0x06120111
    1374:	42971840 	addsmi	r1, r7, #64, 16	; 0x400000
    1378:	00130119 	andseq	r0, r3, r9, lsl r1
    137c:	82891100 	addhi	r1, r9, #0
    1380:	01110101 	tsteq	r1, r1, lsl #2
    1384:	00001331 	andeq	r1, r0, r1, lsr r3
    1388:	01828a12 	orreq	r8, r2, r2, lsl sl
    138c:	91180200 	tstls	r8, r0, lsl #4
    1390:	00001842 	andeq	r1, r0, r2, asr #16
    1394:	03000513 	movweq	r0, #1299	; 0x513
    1398:	3b0b3a08 	blcc	2cfbc0 <__bss_end__+0x2c54f0>
    139c:	490b390b 	stmdbmi	fp, {r0, r1, r3, r8, fp, ip, sp}
    13a0:	b7170213 			; <UNDEFINED> instruction: 0xb7170213
    13a4:	00001742 	andeq	r1, r0, r2, asr #14
    13a8:	01828914 	orreq	r8, r2, r4, lsl r9
    13ac:	31011101 	tstcc	r1, r1, lsl #2
    13b0:	00130113 	andseq	r0, r3, r3, lsl r1
    13b4:	00341500 	eorseq	r1, r4, r0, lsl #10
    13b8:	0b3a0803 	bleq	e833cc <__bss_end__+0xe78cfc>
    13bc:	0b390b3b 	bleq	e440b0 <__bss_end__+0xe399e0>
    13c0:	17021349 	strne	r1, [r2, -r9, asr #6]
    13c4:	001742b7 			; <UNDEFINED> instruction: 0x001742b7
    13c8:	00341600 	eorseq	r1, r4, r0, lsl #12
    13cc:	0b3a0e03 	bleq	e84be0 <__bss_end__+0xe7a510>
    13d0:	0b390b3b 	bleq	e440c4 <__bss_end__+0xe399f4>
    13d4:	051c1349 	ldreq	r1, [ip, #-841]	; 0xfffffcb7
    13d8:	2e170000 	cdpcs	0, 1, cr0, cr7, cr0, {0}
    13dc:	3a0e0301 	bcc	381fe8 <__bss_end__+0x377918>
    13e0:	390b3b0b 	stmdbcc	fp, {r0, r1, r3, r8, r9, fp, ip, sp}
    13e4:	1119270b 	tstne	r9, fp, lsl #14
    13e8:	40061201 	andmi	r1, r6, r1, lsl #4
    13ec:	19429718 	stmdbne	r2, {r3, r4, r8, r9, sl, ip, pc}^
    13f0:	00001301 	andeq	r1, r0, r1, lsl #6
    13f4:	03000518 	movweq	r0, #1304	; 0x518
    13f8:	3b0b3a0e 	blcc	2cfc38 <__bss_end__+0x2c5568>
    13fc:	490b390b 	stmdbmi	fp, {r0, r1, r3, r8, fp, ip, sp}
    1400:	b7170213 			; <UNDEFINED> instruction: 0xb7170213
    1404:	00001742 	andeq	r1, r0, r2, asr #14
    1408:	00003519 	andeq	r3, r0, r9, lsl r5
    140c:	002e1a00 	eoreq	r1, lr, r0, lsl #20
    1410:	193c193f 	ldmdbne	ip!, {r0, r1, r2, r3, r4, r5, r8, fp, ip}
    1414:	0e030e6e 	cdpeq	14, 0, cr0, cr3, cr14, {3}
    1418:	0b3b0b3a 	bleq	ec4108 <__bss_end__+0xeb9a38>
    141c:	00000b39 	andeq	r0, r0, r9, lsr fp
    1420:	01110100 	tsteq	r1, r0, lsl #2
    1424:	0b130e25 	bleq	4c4cc0 <__bss_end__+0x4ba5f0>
    1428:	0e1b0e03 	cdpeq	14, 1, cr0, cr11, cr3, {0}
    142c:	06120111 			; <UNDEFINED> instruction: 0x06120111
    1430:	00001710 	andeq	r1, r0, r0, lsl r7
    1434:	0b002402 	bleq	a444 <buf.3944+0x180>
    1438:	030b3e0b 	movweq	r3, #48651	; 0xbe0b
    143c:	03000008 	movweq	r0, #8
    1440:	0b0b0024 	bleq	2c14d8 <__bss_end__+0x2b6e08>
    1444:	0e030b3e 	vmoveq.16	d3[0], r0
    1448:	16040000 	strne	r0, [r4], -r0
    144c:	3a0e0300 	bcc	382054 <__bss_end__+0x377984>
    1450:	390b3b0b 	stmdbcc	fp, {r0, r1, r3, r8, r9, fp, ip, sp}
    1454:	0013490b 	andseq	r4, r3, fp, lsl #18
    1458:	00260500 	eoreq	r0, r6, r0, lsl #10
    145c:	00001349 	andeq	r1, r0, r9, asr #6
    1460:	0b000f06 	bleq	5080 <__code_start__-0x2f80>
    1464:	0700000b 	streq	r0, [r0, -fp]
    1468:	0b3e0104 	bleq	f81880 <__bss_end__+0xf771b0>
    146c:	13490b0b 	movtne	r0, #39691	; 0x9b0b
    1470:	0b3b0b3a 	bleq	ec4160 <__bss_end__+0xeb9a90>
    1474:	13010b39 	movwne	r0, #6969	; 0x1b39
    1478:	28080000 	stmdacs	r8, {}	; <UNPREDICTABLE>
    147c:	1c0e0300 	stcne	3, cr0, [lr], {-0}
    1480:	09000006 	stmdbeq	r0, {r1, r2}
    1484:	0e030034 	mcreq	0, 0, r0, cr3, cr4, {1}
    1488:	0b3b0b3a 	bleq	ec4178 <__bss_end__+0xeb9aa8>
    148c:	13490b39 	movtne	r0, #39737	; 0x9b39
    1490:	193c193f 	ldmdbne	ip!, {r0, r1, r2, r3, r4, r5, r8, fp, ip}
    1494:	340a0000 	strcc	r0, [sl], #-0
    1498:	3a0e0300 	bcc	3820a0 <__bss_end__+0x3779d0>
    149c:	390b3b0b 	stmdbcc	fp, {r0, r1, r3, r8, r9, fp, ip, sp}
    14a0:	0213490b 	andseq	r4, r3, #180224	; 0x2c000
    14a4:	0b000018 	bleq	150c <__code_start__-0x6af4>
    14a8:	0b0b000f 	bleq	2c14ec <__bss_end__+0x2b6e1c>
    14ac:	00001349 	andeq	r1, r0, r9, asr #6
    14b0:	3f012e0c 	svccc	0x00012e0c
    14b4:	3a0e0319 	bcc	382120 <__bss_end__+0x377a50>
    14b8:	390b3b0b 	stmdbcc	fp, {r0, r1, r3, r8, r9, fp, ip, sp}
    14bc:	1119270b 	tstne	r9, fp, lsl #14
    14c0:	40061201 	andmi	r1, r6, r1, lsl #4
    14c4:	19429718 	stmdbne	r2, {r3, r4, r8, r9, sl, ip, pc}^
    14c8:	00001301 	andeq	r1, r0, r1, lsl #6
    14cc:	0300050d 	movweq	r0, #1293	; 0x50d
    14d0:	3b0b3a08 	blcc	2cfcf8 <__bss_end__+0x2c5628>
    14d4:	490b390b 	stmdbmi	fp, {r0, r1, r3, r8, fp, ip, sp}
    14d8:	b7170213 			; <UNDEFINED> instruction: 0xb7170213
    14dc:	00001742 	andeq	r1, r0, r2, asr #14
    14e0:	0300340e 	movweq	r3, #1038	; 0x40e
    14e4:	3413490e 	ldrcc	r4, [r3], #-2318	; 0xfffff6f2
    14e8:	00180219 	andseq	r0, r8, r9, lsl r2
    14ec:	82890f00 	addhi	r0, r9, #0, 30
    14f0:	01110101 	tsteq	r1, r1, lsl #2
    14f4:	13011331 	movwne	r1, #4913	; 0x1331
    14f8:	8a100000 	bhi	401500 <__bss_end__+0x3f6e30>
    14fc:	02000182 	andeq	r0, r0, #-2147483616	; 0x80000020
    1500:	18429118 	stmdane	r2, {r3, r4, r8, ip, pc}^
    1504:	89110000 	ldmdbhi	r1, {}	; <UNPREDICTABLE>
    1508:	11000182 	smlabbne	r0, r2, r1, r0
    150c:	00133101 	andseq	r3, r3, r1, lsl #2
    1510:	01011200 	mrseq	r1, R9_usr
    1514:	13011349 	movwne	r1, #4937	; 0x1349
    1518:	21130000 	tstcs	r3, r0
    151c:	2f134900 	svccs	0x00134900
    1520:	1400000b 	strne	r0, [r0], #-11
    1524:	193f002e 	ldmdbne	pc!, {r1, r2, r3, r5}	; <UNPREDICTABLE>
    1528:	0b3a0e03 	bleq	e84d3c <__bss_end__+0xe7a66c>
    152c:	0b390b3b 	bleq	e44220 <__bss_end__+0xe39b50>
    1530:	01111927 	tsteq	r1, r7, lsr #18
    1534:	18400612 	stmdane	r0, {r1, r4, r9, sl}^
    1538:	00194297 	mulseq	r9, r7, r2
    153c:	00051500 	andeq	r1, r5, r0, lsl #10
    1540:	0b3a0803 	bleq	e83554 <__bss_end__+0xe78e84>
    1544:	0b390b3b 	bleq	e44238 <__bss_end__+0xe39b68>
    1548:	18021349 	stmdane	r2, {r0, r3, r6, r8, r9, ip}
    154c:	2e160000 	cdpcs	0, 1, cr0, cr6, cr0, {0}
    1550:	03193f01 	tsteq	r9, #1, 30
    1554:	3b0b3a0e 	blcc	2cfd94 <__bss_end__+0x2c56c4>
    1558:	270b390b 	strcs	r3, [fp, -fp, lsl #18]
    155c:	11134919 	tstne	r3, r9, lsl r9
    1560:	40061201 	andmi	r1, r6, r1, lsl #4
    1564:	19429718 	stmdbne	r2, {r3, r4, r8, r9, sl, ip, pc}^
    1568:	00001301 	andeq	r1, r0, r1, lsl #6
    156c:	03000517 	movweq	r0, #1303	; 0x517
    1570:	3b0b3a0e 	blcc	2cfdb0 <__bss_end__+0x2c56e0>
    1574:	490b390b 	stmdbmi	fp, {r0, r1, r3, r8, fp, ip, sp}
    1578:	b7170213 			; <UNDEFINED> instruction: 0xb7170213
    157c:	00001742 	andeq	r1, r0, r2, asr #14
    1580:	03003418 	movweq	r3, #1048	; 0x418
    1584:	3b0b3a08 	blcc	2cfdac <__bss_end__+0x2c56dc>
    1588:	490b390b 	stmdbmi	fp, {r0, r1, r3, r8, fp, ip, sp}
    158c:	b7170213 			; <UNDEFINED> instruction: 0xb7170213
    1590:	00001742 	andeq	r1, r0, r2, asr #14
    1594:	31011d19 	tstcc	r1, r9, lsl sp
    1598:	b8015213 	stmdalt	r1, {r0, r1, r4, r9, ip, lr}
    159c:	01110b42 	tsteq	r1, r2, asr #22
    15a0:	0b580612 	bleq	1602df0 <__bss_end__+0x15f8720>
    15a4:	0b570b59 	bleq	15c4310 <__bss_end__+0x15b9c40>
    15a8:	00001301 	andeq	r1, r0, r1, lsl #6
    15ac:	3100051a 	tstcc	r0, sl, lsl r5
    15b0:	b7170213 			; <UNDEFINED> instruction: 0xb7170213
    15b4:	00001742 	andeq	r1, r0, r2, asr #14
    15b8:	31011d1b 	tstcc	r1, fp, lsl sp
    15bc:	b8015213 	stmdalt	r1, {r0, r1, r4, r9, ip, lr}
    15c0:	17550b42 	ldrbne	r0, [r5, -r2, asr #22]
    15c4:	0b590b58 	bleq	164432c <__bss_end__+0x1639c5c>
    15c8:	13010b57 	movwne	r0, #6999	; 0x1b57
    15cc:	0b1c0000 	bleq	7015d4 <__bss_end__+0x6f6f04>
    15d0:	00175501 	andseq	r5, r7, r1, lsl #10
    15d4:	00341d00 	eorseq	r1, r4, r0, lsl #26
    15d8:	0b3a0e03 	bleq	e84dec <__bss_end__+0xe7a71c>
    15dc:	0b390b3b 	bleq	e442d0 <__bss_end__+0xe39c00>
    15e0:	17021349 	strne	r1, [r2, -r9, asr #6]
    15e4:	001742b7 			; <UNDEFINED> instruction: 0x001742b7
    15e8:	000b1e00 	andeq	r1, fp, r0, lsl #28
    15ec:	00001755 	andeq	r1, r0, r5, asr r7
    15f0:	3f002e1f 	svccc	0x00002e1f
    15f4:	3a0e0319 	bcc	382260 <__bss_end__+0x377b90>
    15f8:	390b3b0b 	stmdbcc	fp, {r0, r1, r3, r8, r9, fp, ip, sp}
    15fc:	4919270b 	ldmdbmi	r9, {r0, r1, r3, r8, r9, sl, sp}
    1600:	12011113 	andne	r1, r1, #-1073741820	; 0xc0000004
    1604:	97184006 	ldrls	r4, [r8, -r6]
    1608:	00001942 	andeq	r1, r0, r2, asr #18
    160c:	03012e20 	movweq	r2, #7712	; 0x1e20
    1610:	3b0b3a0e 	blcc	2cfe50 <__bss_end__+0x2c5780>
    1614:	270b390b 	strcs	r3, [fp, -fp, lsl #18]
    1618:	20134919 	andscs	r4, r3, r9, lsl r9
    161c:	0013010b 	andseq	r0, r3, fp, lsl #2
    1620:	00052100 	andeq	r2, r5, r0, lsl #2
    1624:	0b3a0803 	bleq	e83638 <__bss_end__+0xe78f68>
    1628:	0b390b3b 	bleq	e4431c <__bss_end__+0xe39c4c>
    162c:	00001349 	andeq	r1, r0, r9, asr #6
    1630:	3f002e22 	svccc	0x00002e22
    1634:	6e193c19 	mrcvs	12, 0, r3, cr9, cr9, {0}
    1638:	3a0e030e 	bcc	382278 <__bss_end__+0x377ba8>
    163c:	390b3b0b 	stmdbcc	fp, {r0, r1, r3, r8, r9, fp, ip, sp}
    1640:	0000000b 	andeq	r0, r0, fp
    1644:	25011101 	strcs	r1, [r1, #-257]	; 0xfffffeff
    1648:	030b130e 	movweq	r1, #45838	; 0xb30e
    164c:	110e1b0e 	tstne	lr, lr, lsl #22
    1650:	10061201 	andne	r1, r6, r1, lsl #4
    1654:	02000017 	andeq	r0, r0, #23, 0
    1658:	0b0b0024 	bleq	2c16f0 <__bss_end__+0x2b7020>
    165c:	0e030b3e 	vmoveq.16	d3[0], r0
    1660:	24030000 	strcs	r0, [r3], #-0
    1664:	3e0b0b00 	vmlacc.f64	d0, d11, d0
    1668:	0008030b 	andeq	r0, r8, fp, lsl #6
    166c:	00260400 	eoreq	r0, r6, r0, lsl #8
    1670:	00001349 	andeq	r1, r0, r9, asr #6
    1674:	03001605 	movweq	r1, #1541	; 0x605
    1678:	3b0b3a0e 	blcc	2cfeb8 <__bss_end__+0x2c57e8>
    167c:	490b390b 	stmdbmi	fp, {r0, r1, r3, r8, fp, ip, sp}
    1680:	06000013 			; <UNDEFINED> instruction: 0x06000013
    1684:	19270115 	stmdbne	r7!, {r0, r2, r4, r8}
    1688:	13011349 	movwne	r1, #4937	; 0x1349
    168c:	05070000 	streq	r0, [r7, #-0]
    1690:	00134900 	andseq	r4, r3, r0, lsl #18
    1694:	00340800 	eorseq	r0, r4, r0, lsl #16
    1698:	0b3a0e03 	bleq	e84eac <__bss_end__+0xe7a7dc>
    169c:	0b390b3b 	bleq	e44390 <__bss_end__+0xe39cc0>
    16a0:	193f1349 	ldmdbne	pc!, {r0, r3, r6, r8, r9, ip}	; <UNPREDICTABLE>
    16a4:	0000193c 	andeq	r1, r0, ip, lsr r9
    16a8:	0b000f09 	bleq	52d4 <__code_start__-0x2d2c>
    16ac:	0013490b 	andseq	r4, r3, fp, lsl #18
    16b0:	01040a00 	tsteq	r4, r0, lsl #20
    16b4:	0b0b0b3e 	bleq	2c43b4 <__bss_end__+0x2b9ce4>
    16b8:	0b3a1349 	bleq	e863e4 <__bss_end__+0xe7bd14>
    16bc:	0b390b3b 	bleq	e443b0 <__bss_end__+0xe39ce0>
    16c0:	00001301 	andeq	r1, r0, r1, lsl #6
    16c4:	0300280b 	movweq	r2, #2059	; 0x80b
    16c8:	000b1c0e 	andeq	r1, fp, lr, lsl #24
    16cc:	00340c00 	eorseq	r0, r4, r0, lsl #24
    16d0:	0b3a0e03 	bleq	e84ee4 <__bss_end__+0xe7a814>
    16d4:	0b390b3b 	bleq	e443c8 <__bss_end__+0xe39cf8>
    16d8:	061c1349 	ldreq	r1, [ip], -r9, asr #6
    16dc:	2e0d0000 	cdpcs	0, 0, cr0, cr13, cr0, {0}
    16e0:	03193f01 	tsteq	r9, #1, 30
    16e4:	3b0b3a0e 	blcc	2cff24 <__bss_end__+0x2c5854>
    16e8:	270b390b 	strcs	r3, [fp, -fp, lsl #18]
    16ec:	11134919 	tstne	r3, r9, lsl r9
    16f0:	40061201 	andmi	r1, r6, r1, lsl #4
    16f4:	19429718 	stmdbne	r2, {r3, r4, r8, r9, sl, ip, pc}^
    16f8:	00001301 	andeq	r1, r0, r1, lsl #6
    16fc:	0300050e 	movweq	r0, #1294	; 0x50e
    1700:	3b0b3a08 	blcc	2cff28 <__bss_end__+0x2c5858>
    1704:	490b390b 	stmdbmi	fp, {r0, r1, r3, r8, fp, ip, sp}
    1708:	b7170213 			; <UNDEFINED> instruction: 0xb7170213
    170c:	00001742 	andeq	r1, r0, r2, asr #14
    1710:	0300340f 	movweq	r3, #1039	; 0x40f
    1714:	3b0b3a0e 	blcc	2cff54 <__bss_end__+0x2c5884>
    1718:	490b390b 	stmdbmi	fp, {r0, r1, r3, r8, fp, ip, sp}
    171c:	b7170213 			; <UNDEFINED> instruction: 0xb7170213
    1720:	00001742 	andeq	r1, r0, r2, asr #14
    1724:	03003410 	movweq	r3, #1040	; 0x410
    1728:	3b0b3a08 	blcc	2cff50 <__bss_end__+0x2c5880>
    172c:	490b390b 	stmdbmi	fp, {r0, r1, r3, r8, fp, ip, sp}
    1730:	b7170213 			; <UNDEFINED> instruction: 0xb7170213
    1734:	00001742 	andeq	r1, r0, r2, asr #14
    1738:	01828911 	orreq	r8, r2, r1, lsl r9
    173c:	31011101 	tstcc	r1, r1, lsl #2
    1740:	12000013 	andne	r0, r0, #19, 0
    1744:	0001828a 	andeq	r8, r1, sl, lsl #5
    1748:	42911802 	addsmi	r1, r1, #131072	; 0x20000
    174c:	13000018 	movwne	r0, #24
    1750:	193f012e 	ldmdbne	pc!, {r1, r2, r3, r5, r8}	; <UNPREDICTABLE>
    1754:	0b3a0e03 	bleq	e84f68 <__bss_end__+0xe7a898>
    1758:	0b390b3b 	bleq	e4444c <__bss_end__+0xe39d7c>
    175c:	01111927 	tsteq	r1, r7, lsr #18
    1760:	18400612 	stmdane	r0, {r1, r4, r9, sl}^
    1764:	01194297 			; <UNDEFINED> instruction: 0x01194297
    1768:	14000013 	strne	r0, [r0], #-19	; 0xffffffed
    176c:	1331011d 	teqne	r1, #1073741831	; 0x40000007
    1770:	42b80152 	adcsmi	r0, r8, #-2147483628	; 0x80000014
    1774:	5817550b 	ldmdapl	r7, {r0, r1, r3, r8, sl, ip, lr}
    1778:	570b590b 	strpl	r5, [fp, -fp, lsl #18]
    177c:	0013010b 	andseq	r0, r3, fp, lsl #2
    1780:	00051500 	andeq	r1, r5, r0, lsl #10
    1784:	17021331 	smladxne	r2, r1, r3, r1
    1788:	001742b7 			; <UNDEFINED> instruction: 0x001742b7
    178c:	82891600 	addhi	r1, r9, #0, 12
    1790:	01110101 	tsteq	r1, r1, lsl #2
    1794:	31194295 			; <UNDEFINED> instruction: 0x31194295
    1798:	17000013 	smladne	r0, r3, r0, r0
    179c:	1331011d 	teqne	r1, #1073741831	; 0x40000007
    17a0:	42b80152 	adcsmi	r0, r8, #-2147483628	; 0x80000014
    17a4:	1201110b 	andne	r1, r1, #-1073741822	; 0xc0000002
    17a8:	590b5806 	stmdbpl	fp, {r1, r2, fp, ip, lr}
    17ac:	000b570b 	andeq	r5, fp, fp, lsl #14
    17b0:	011d1800 	tsteq	sp, r0, lsl #16
    17b4:	01521331 	cmpeq	r2, r1, lsr r3
    17b8:	550b42b8 	strpl	r4, [fp, #-696]	; 0xfffffd48
    17bc:	590b5817 	stmdbpl	fp, {r0, r1, r2, r4, fp, ip, lr}
    17c0:	000b570b 	andeq	r5, fp, fp, lsl #14
    17c4:	00051900 	andeq	r1, r5, r0, lsl #18
    17c8:	0b1c1331 	bleq	706494 <__bss_end__+0x6fbdc4>
    17cc:	0b1a0000 	bleq	6817d4 <__bss_end__+0x677104>
    17d0:	00175501 	andseq	r5, r7, r1, lsl #10
    17d4:	00341b00 	eorseq	r1, r4, r0, lsl #22
    17d8:	00001331 	andeq	r1, r0, r1, lsr r3
    17dc:	3100341c 	tstcc	r0, ip, lsl r4
    17e0:	b7170213 			; <UNDEFINED> instruction: 0xb7170213
    17e4:	00001742 	andeq	r1, r0, r2, asr #14
    17e8:	0182891d 	orreq	r8, r2, sp, lsl r9
    17ec:	31011101 	tstcc	r1, r1, lsl #2
    17f0:	00130113 	andseq	r0, r3, r3, lsl r1
    17f4:	012e1e00 			; <UNDEFINED> instruction: 0x012e1e00
    17f8:	0e03193f 			; <UNDEFINED> instruction: 0x0e03193f
    17fc:	0b3b0b3a 	bleq	ec44ec <__bss_end__+0xeb9e1c>
    1800:	19270b39 	stmdbne	r7!, {r0, r3, r4, r5, r8, r9, fp}
    1804:	13010b20 	movwne	r0, #6944	; 0x1b20
    1808:	051f0000 	ldreq	r0, [pc, #-0]	; 1810 <__code_start__-0x67f0>
    180c:	3a080300 	bcc	202414 <__bss_end__+0x1f7d44>
    1810:	390b3b0b 	stmdbcc	fp, {r0, r1, r3, r8, r9, fp, ip, sp}
    1814:	0013490b 	andseq	r4, r3, fp, lsl #18
    1818:	00052000 	andeq	r2, r5, r0
    181c:	0b3a0e03 	bleq	e85030 <__bss_end__+0xe7a960>
    1820:	0b390b3b 	bleq	e44514 <__bss_end__+0xe39e44>
    1824:	00001349 	andeq	r1, r0, r9, asr #6
    1828:	03003421 	movweq	r3, #1057	; 0x421
    182c:	3b0b3a08 	blcc	2d0054 <__bss_end__+0x2c5984>
    1830:	490b390b 	stmdbmi	fp, {r0, r1, r3, r8, fp, ip, sp}
    1834:	22000013 	andcs	r0, r0, #19, 0
    1838:	0e03012e 	adfeqsp	f0, f3, #0.5
    183c:	0b3b0b3a 	bleq	ec452c <__bss_end__+0xeb9e5c>
    1840:	19270b39 	stmdbne	r7!, {r0, r3, r4, r5, r8, r9, fp}
    1844:	0b201349 	bleq	806570 <__bss_end__+0x7fbea0>
    1848:	00001301 	andeq	r1, r0, r1, lsl #6
    184c:	31012e23 	tstcc	r1, r3, lsr #28
    1850:	12011113 	andne	r1, r1, #-1073741820	; 0xc0000004
    1854:	97184006 	ldrls	r4, [r8, -r6]
    1858:	13011942 	movwne	r1, #6466	; 0x1942
    185c:	2e240000 	cdpcs	0, 2, cr0, cr4, cr0, {0}
    1860:	3c193f00 	ldccc	15, cr3, [r9], {-0}
    1864:	030e6e19 	movweq	r6, #60953	; 0xee19
    1868:	3b0b3a0e 	blcc	2d00a8 <__bss_end__+0x2c59d8>
    186c:	000b390b 	andeq	r3, fp, fp, lsl #18
    1870:	11010000 	mrsne	r0, (UNDEF: 1)
    1874:	130e2501 	movwne	r2, #58625	; 0xe501
    1878:	1b0e030b 	blne	3824ac <__bss_end__+0x377ddc>
    187c:	1201110e 	andne	r1, r1, #-2147483645	; 0x80000003
    1880:	00171006 	andseq	r1, r7, r6
    1884:	00240200 	eoreq	r0, r4, r0, lsl #4
    1888:	0b3e0b0b 	bleq	f844bc <__bss_end__+0xf79dec>
    188c:	00000803 	andeq	r0, r0, r3, lsl #16
    1890:	0b002403 	bleq	a8a4 <__bss_end__+0x1d4>
    1894:	030b3e0b 	movweq	r3, #48651	; 0xbe0b
    1898:	0400000e 	streq	r0, [r0], #-14
    189c:	19270115 	stmdbne	r7!, {r0, r2, r4, r8}
    18a0:	13011349 	movwne	r1, #4937	; 0x1349
    18a4:	05050000 	streq	r0, [r5, #-0]
    18a8:	00134900 	andseq	r4, r3, r0, lsl #18
    18ac:	00340600 	eorseq	r0, r4, r0, lsl #12
    18b0:	0b3a0e03 	bleq	e850c4 <__bss_end__+0xe7a9f4>
    18b4:	0b390b3b 	bleq	e445a8 <__bss_end__+0xe39ed8>
    18b8:	193f1349 	ldmdbne	pc!, {r0, r3, r6, r8, r9, ip}	; <UNPREDICTABLE>
    18bc:	0000193c 	andeq	r1, r0, ip, lsr r9
    18c0:	0b000f07 	bleq	54e4 <__code_start__-0x2b1c>
    18c4:	0013490b 	andseq	r4, r3, fp, lsl #18
    18c8:	00260800 	eoreq	r0, r6, r0, lsl #16
    18cc:	00001349 	andeq	r1, r0, r9, asr #6
    18d0:	47003409 	strmi	r3, [r0, -r9, lsl #8]
    18d4:	3b0b3a13 	blcc	2d0128 <__bss_end__+0x2c5a58>
    18d8:	020b390b 	andeq	r3, fp, #180224	; 0x2c000
    18dc:	0a000018 	beq	1944 <__code_start__-0x66bc>
    18e0:	193f012e 	ldmdbne	pc!, {r1, r2, r3, r5, r8}	; <UNPREDICTABLE>
    18e4:	0b3a0e03 	bleq	e850f8 <__bss_end__+0xe7aa28>
    18e8:	0b390b3b 	bleq	e445dc <__bss_end__+0xe39f0c>
    18ec:	01111927 	tsteq	r1, r7, lsr #18
    18f0:	18400612 	stmdane	r0, {r1, r4, r9, sl}^
    18f4:	01194297 			; <UNDEFINED> instruction: 0x01194297
    18f8:	0b000013 	bleq	194c <__code_start__-0x66b4>
    18fc:	08030005 	stmdaeq	r3, {r0, r2}
    1900:	0b3b0b3a 	bleq	ec45f0 <__bss_end__+0xeb9f20>
    1904:	13490b39 	movtne	r0, #39737	; 0x9b39
    1908:	00001802 	andeq	r1, r0, r2, lsl #16
    190c:	3f002e0c 	svccc	0x00002e0c
    1910:	3a0e0319 	bcc	38257c <__bss_end__+0x377eac>
    1914:	390b3b0b 	stmdbcc	fp, {r0, r1, r3, r8, r9, fp, ip, sp}
    1918:	1119270b 	tstne	r9, fp, lsl #14
    191c:	40061201 	andmi	r1, r6, r1, lsl #4
    1920:	19429718 	stmdbne	r2, {r3, r4, r8, r9, sl, ip, pc}^
    1924:	2e0d0000 	cdpcs	0, 0, cr0, cr13, cr0, {0}
    1928:	3a0e0301 	bcc	382534 <__bss_end__+0x377e64>
    192c:	390b3b0b 	stmdbcc	fp, {r0, r1, r3, r8, r9, fp, ip, sp}
    1930:	4919270b 	ldmdbmi	r9, {r0, r1, r3, r8, r9, sl, sp}
    1934:	12011113 	andne	r1, r1, #-1073741820	; 0xc0000004
    1938:	97184006 	ldrls	r4, [r8, -r6]
    193c:	13011942 	movwne	r1, #6466	; 0x1942
    1940:	050e0000 	streq	r0, [lr, #-0]
    1944:	3a080300 	bcc	20254c <__bss_end__+0x1f7e7c>
    1948:	390b3b0b 	stmdbcc	fp, {r0, r1, r3, r8, r9, fp, ip, sp}
    194c:	0213490b 	andseq	r4, r3, #180224	; 0x2c000
    1950:	1742b717 	smlaldne	fp, r2, r7, r7
    1954:	890f0000 	stmdbhi	pc, {}	; <UNPREDICTABLE>
    1958:	11010182 	smlabbne	r1, r2, r1, r0
    195c:	00133101 	andseq	r3, r3, r1, lsl #2
    1960:	828a1000 	addhi	r1, sl, #0, 0
    1964:	18020001 	stmdane	r2, {r0}
    1968:	00184291 	mulseq	r8, r1, r2
    196c:	002e1100 	eoreq	r1, lr, r0, lsl #2
    1970:	193c193f 	ldmdbne	ip!, {r0, r1, r2, r3, r4, r5, r8, fp, ip}
    1974:	0e030e6e 	cdpeq	14, 0, cr0, cr3, cr14, {3}
    1978:	0b3b0b3a 	bleq	ec4668 <__bss_end__+0xeb9f98>
    197c:	00000b39 	andeq	r0, r0, r9, lsr fp
    1980:	01110100 	tsteq	r1, r0, lsl #2
    1984:	0b130e25 	bleq	4c5220 <__bss_end__+0x4bab50>
    1988:	0e1b0e03 	cdpeq	14, 1, cr0, cr11, cr3, {0}
    198c:	06120111 			; <UNDEFINED> instruction: 0x06120111
    1990:	00001710 	andeq	r1, r0, r0, lsl r7
    1994:	0b002402 	bleq	a9a4 <__bss_end__+0x2d4>
    1998:	030b3e0b 	movweq	r3, #48651	; 0xbe0b
    199c:	03000008 	movweq	r0, #8
    19a0:	0b0b0024 	bleq	2c1a38 <__bss_end__+0x2b7368>
    19a4:	0e030b3e 	vmoveq.16	d3[0], r0
    19a8:	15040000 	strne	r0, [r4, #-0]
    19ac:	49192701 	ldmdbmi	r9, {r0, r8, r9, sl, sp}
    19b0:	00130113 	andseq	r0, r3, r3, lsl r1
    19b4:	00050500 	andeq	r0, r5, r0, lsl #10
    19b8:	00001349 	andeq	r1, r0, r9, asr #6
    19bc:	03003406 	movweq	r3, #1030	; 0x406
    19c0:	3b0b3a0e 	blcc	2d0200 <__bss_end__+0x2c5b30>
    19c4:	490b390b 	stmdbmi	fp, {r0, r1, r3, r8, fp, ip, sp}
    19c8:	3c193f13 	ldccc	15, cr3, [r9], {19}
    19cc:	07000019 	smladeq	r0, r9, r0, r0
    19d0:	0b0b000f 	bleq	2c1a14 <__bss_end__+0x2b7344>
    19d4:	00001349 	andeq	r1, r0, r9, asr #6
    19d8:	49002608 	stmdbmi	r0, {r3, r9, sl, sp}
    19dc:	09000013 	stmdbeq	r0, {r0, r1, r4}
    19e0:	193f012e 	ldmdbne	pc!, {r1, r2, r3, r5, r8}	; <UNPREDICTABLE>
    19e4:	0b3a0e03 	bleq	e851f8 <__bss_end__+0xe7ab28>
    19e8:	0b390b3b 	bleq	e446dc <__bss_end__+0xe3a00c>
    19ec:	13491927 	movtne	r1, #39207	; 0x9927
    19f0:	06120111 			; <UNDEFINED> instruction: 0x06120111
    19f4:	42971840 	addsmi	r1, r7, #64, 16	; 0x400000
    19f8:	00130119 	andseq	r0, r3, r9, lsl r1
    19fc:	00050a00 	andeq	r0, r5, r0, lsl #20
    1a00:	0b3a0e03 	bleq	e85214 <__bss_end__+0xe7ab44>
    1a04:	0b390b3b 	bleq	e446f8 <__bss_end__+0xe3a028>
    1a08:	18021349 	stmdane	r2, {r0, r3, r6, r8, r9, ip}
    1a0c:	050b0000 	streq	r0, [fp, #-0]
    1a10:	3a080300 	bcc	202618 <__bss_end__+0x1f7f48>
    1a14:	390b3b0b 	stmdbcc	fp, {r0, r1, r3, r8, r9, fp, ip, sp}
    1a18:	0213490b 	andseq	r4, r3, #180224	; 0x2c000
    1a1c:	1742b717 	smlaldne	fp, r2, r7, r7
    1a20:	340c0000 	strcc	r0, [ip], #-0
    1a24:	3a080300 	bcc	20262c <__bss_end__+0x1f7f5c>
    1a28:	390b3b0b 	stmdbcc	fp, {r0, r1, r3, r8, r9, fp, ip, sp}
    1a2c:	0213490b 	andseq	r4, r3, #180224	; 0x2c000
    1a30:	1742b717 	smlaldne	fp, r2, r7, r7
    1a34:	01000000 	mrseq	r0, (UNDEF: 0)
    1a38:	0e250111 	mcreq	1, 1, r0, cr5, cr1, {0}
    1a3c:	0e030b13 	vmoveq.32	d3[0], r0
    1a40:	01110e1b 	tsteq	r1, fp, lsl lr
    1a44:	17100612 			; <UNDEFINED> instruction: 0x17100612
    1a48:	24020000 	strcs	r0, [r2], #-0
    1a4c:	3e0b0b00 	vmlacc.f64	d0, d11, d0
    1a50:	0008030b 	andeq	r0, r8, fp, lsl #6
    1a54:	00240300 	eoreq	r0, r4, r0, lsl #6
    1a58:	0b3e0b0b 	bleq	f8468c <__bss_end__+0xf79fbc>
    1a5c:	00000e03 	andeq	r0, r0, r3, lsl #28
    1a60:	27011504 	strcs	r1, [r1, -r4, lsl #10]
    1a64:	01134919 	tsteq	r3, r9, lsl r9
    1a68:	05000013 	streq	r0, [r0, #-19]	; 0xffffffed
    1a6c:	13490005 	movtne	r0, #36869	; 0x9005
    1a70:	34060000 	strcc	r0, [r6], #-0
    1a74:	3a0e0300 	bcc	38267c <__bss_end__+0x377fac>
    1a78:	390b3b0b 	stmdbcc	fp, {r0, r1, r3, r8, r9, fp, ip, sp}
    1a7c:	3f13490b 	svccc	0x0013490b
    1a80:	00193c19 	andseq	r3, r9, r9, lsl ip
    1a84:	000f0700 	andeq	r0, pc, r0, lsl #14
    1a88:	13490b0b 	movtne	r0, #39691	; 0x9b0b
    1a8c:	26080000 	strcs	r0, [r8], -r0
    1a90:	00134900 	andseq	r4, r3, r0, lsl #18
    1a94:	012e0900 			; <UNDEFINED> instruction: 0x012e0900
    1a98:	0e03193f 			; <UNDEFINED> instruction: 0x0e03193f
    1a9c:	0b3b0b3a 	bleq	ec478c <__bss_end__+0xeba0bc>
    1aa0:	19270b39 	stmdbne	r7!, {r0, r3, r4, r5, r8, r9, fp}
    1aa4:	01111349 	tsteq	r1, r9, asr #6
    1aa8:	18400612 	stmdane	r0, {r1, r4, r9, sl}^
    1aac:	00194297 	mulseq	r9, r7, r2
    1ab0:	00050a00 	andeq	r0, r5, r0, lsl #20
    1ab4:	0b3a0803 	bleq	e83ac8 <__bss_end__+0xe793f8>
    1ab8:	0b390b3b 	bleq	e447ac <__bss_end__+0xe3a0dc>
    1abc:	17021349 	strne	r1, [r2, -r9, asr #6]
    1ac0:	001742b7 			; <UNDEFINED> instruction: 0x001742b7
    1ac4:	11010000 	mrsne	r0, (UNDEF: 1)
    1ac8:	130e2501 	movwne	r2, #58625	; 0xe501
    1acc:	1b0e030b 	blne	382700 <__bss_end__+0x378030>
    1ad0:	1201110e 	andne	r1, r1, #-2147483645	; 0x80000003
    1ad4:	00171006 	andseq	r1, r7, r6
    1ad8:	00240200 	eoreq	r0, r4, r0, lsl #4
    1adc:	0b3e0b0b 	bleq	f84710 <__bss_end__+0xf7a040>
    1ae0:	00000803 	andeq	r0, r0, r3, lsl #16
    1ae4:	0b002403 	bleq	aaf8 <__bss_end__+0x428>
    1ae8:	030b3e0b 	movweq	r3, #48651	; 0xbe0b
    1aec:	0400000e 	streq	r0, [r0], #-14
    1af0:	19270115 	stmdbne	r7!, {r0, r2, r4, r8}
    1af4:	13011349 	movwne	r1, #4937	; 0x1349
    1af8:	05050000 	streq	r0, [r5, #-0]
    1afc:	00134900 	andseq	r4, r3, r0, lsl #18
    1b00:	00340600 	eorseq	r0, r4, r0, lsl #12
    1b04:	0b3a0e03 	bleq	e85318 <__bss_end__+0xe7ac48>
    1b08:	0b390b3b 	bleq	e447fc <__bss_end__+0xe3a12c>
    1b0c:	193f1349 	ldmdbne	pc!, {r0, r3, r6, r8, r9, ip}	; <UNPREDICTABLE>
    1b10:	0000193c 	andeq	r1, r0, ip, lsr r9
    1b14:	0b000f07 	bleq	5738 <__code_start__-0x28c8>
    1b18:	0013490b 	andseq	r4, r3, fp, lsl #18
    1b1c:	00260800 	eoreq	r0, r6, r0, lsl #16
    1b20:	00001349 	andeq	r1, r0, r9, asr #6
    1b24:	3f012e09 	svccc	0x00012e09
    1b28:	3a0e0319 	bcc	382794 <__bss_end__+0x3780c4>
    1b2c:	390b3b0b 	stmdbcc	fp, {r0, r1, r3, r8, r9, fp, ip, sp}
    1b30:	4919270b 	ldmdbmi	r9, {r0, r1, r3, r8, r9, sl, sp}
    1b34:	12011113 	andne	r1, r1, #-1073741820	; 0xc0000004
    1b38:	97184006 	ldrls	r4, [r8, -r6]
    1b3c:	13011942 	movwne	r1, #6466	; 0x1942
    1b40:	050a0000 	streq	r0, [sl, #-0]
    1b44:	3a080300 	bcc	20274c <__bss_end__+0x1f807c>
    1b48:	390b3b0b 	stmdbcc	fp, {r0, r1, r3, r8, r9, fp, ip, sp}
    1b4c:	0213490b 	andseq	r4, r3, #180224	; 0x2c000
    1b50:	0b000018 	bleq	1bb8 <__code_start__-0x6448>
    1b54:	08030005 	stmdaeq	r3, {r0, r2}
    1b58:	0b3b0b3a 	bleq	ec4848 <__bss_end__+0xeba178>
    1b5c:	13490b39 	movtne	r0, #39737	; 0x9b39
    1b60:	42b71702 	adcsmi	r1, r7, #524288	; 0x80000
    1b64:	0c000017 	stceq	0, cr0, [r0], {23}
    1b68:	08030034 	stmdaeq	r3, {r2, r4, r5}
    1b6c:	0b3b0b3a 	bleq	ec485c <__bss_end__+0xeba18c>
    1b70:	13490b39 	movtne	r0, #39737	; 0x9b39
    1b74:	42b71702 	adcsmi	r1, r7, #524288	; 0x80000
    1b78:	00000017 	andeq	r0, r0, r7, lsl r0
    1b7c:	25011101 	strcs	r1, [r1, #-257]	; 0xfffffeff
    1b80:	030b130e 	movweq	r1, #45838	; 0xb30e
    1b84:	110e1b0e 	tstne	lr, lr, lsl #22
    1b88:	10061201 	andne	r1, r6, r1, lsl #4
    1b8c:	02000017 	andeq	r0, r0, #23, 0
    1b90:	0b0b0024 	bleq	2c1c28 <__bss_end__+0x2b7558>
    1b94:	08030b3e 	stmdaeq	r3, {r1, r2, r3, r4, r5, r8, r9, fp}
    1b98:	16030000 	strne	r0, [r3], -r0
    1b9c:	3a0e0300 	bcc	3827a4 <__bss_end__+0x3780d4>
    1ba0:	390b3b0b 	stmdbcc	fp, {r0, r1, r3, r8, r9, fp, ip, sp}
    1ba4:	0013490b 	andseq	r4, r3, fp, lsl #18
    1ba8:	00240400 	eoreq	r0, r4, r0, lsl #8
    1bac:	0b3e0b0b 	bleq	f847e0 <__bss_end__+0xf7a110>
    1bb0:	00000e03 	andeq	r0, r0, r3, lsl #28
    1bb4:	49002605 	stmdbmi	r0, {r0, r2, r9, sl, sp}
    1bb8:	06000013 			; <UNDEFINED> instruction: 0x06000013
    1bbc:	19270115 	stmdbne	r7!, {r0, r2, r4, r8}
    1bc0:	13011349 	movwne	r1, #4937	; 0x1349
    1bc4:	05070000 	streq	r0, [r7, #-0]
    1bc8:	00134900 	andseq	r4, r3, r0, lsl #18
    1bcc:	00340800 	eorseq	r0, r4, r0, lsl #16
    1bd0:	0b3a0e03 	bleq	e853e4 <__bss_end__+0xe7ad14>
    1bd4:	0b390b3b 	bleq	e448c8 <__bss_end__+0xe3a1f8>
    1bd8:	193f1349 	ldmdbne	pc!, {r0, r3, r6, r8, r9, ip}	; <UNPREDICTABLE>
    1bdc:	0000193c 	andeq	r1, r0, ip, lsr r9
    1be0:	0b000f09 	bleq	580c <__code_start__-0x27f4>
    1be4:	0013490b 	andseq	r4, r3, fp, lsl #18
    1be8:	012e0a00 			; <UNDEFINED> instruction: 0x012e0a00
    1bec:	0e03193f 			; <UNDEFINED> instruction: 0x0e03193f
    1bf0:	0b3b0b3a 	bleq	ec48e0 <__bss_end__+0xeba210>
    1bf4:	19270b39 	stmdbne	r7!, {r0, r3, r4, r5, r8, r9, fp}
    1bf8:	01111349 	tsteq	r1, r9, asr #6
    1bfc:	18400612 	stmdane	r0, {r1, r4, r9, sl}^
    1c00:	01194297 			; <UNDEFINED> instruction: 0x01194297
    1c04:	0b000013 	bleq	1c58 <__code_start__-0x63a8>
    1c08:	08030005 	stmdaeq	r3, {r0, r2}
    1c0c:	0b3b0b3a 	bleq	ec48fc <__bss_end__+0xeba22c>
    1c10:	13490b39 	movtne	r0, #39737	; 0x9b39
    1c14:	42b71702 	adcsmi	r1, r7, #524288	; 0x80000
    1c18:	0c000017 	stceq	0, cr0, [r0], {23}
    1c1c:	08030034 	stmdaeq	r3, {r2, r4, r5}
    1c20:	0b3b0b3a 	bleq	ec4910 <__bss_end__+0xeba240>
    1c24:	13490b39 	movtne	r0, #39737	; 0x9b39
    1c28:	42b71702 	adcsmi	r1, r7, #524288	; 0x80000
    1c2c:	00000017 	andeq	r0, r0, r7, lsl r0
    1c30:	25011101 	strcs	r1, [r1, #-257]	; 0xfffffeff
    1c34:	030b130e 	movweq	r1, #45838	; 0xb30e
    1c38:	110e1b0e 	tstne	lr, lr, lsl #22
    1c3c:	10061201 	andne	r1, r6, r1, lsl #4
    1c40:	02000017 	andeq	r0, r0, #23, 0
    1c44:	0b0b0024 	bleq	2c1cdc <__bss_end__+0x2b760c>
    1c48:	08030b3e 	stmdaeq	r3, {r1, r2, r3, r4, r5, r8, r9, fp}
    1c4c:	24030000 	strcs	r0, [r3], #-0
    1c50:	3e0b0b00 	vmlacc.f64	d0, d11, d0
    1c54:	000e030b 	andeq	r0, lr, fp, lsl #6
    1c58:	01150400 	tsteq	r5, r0, lsl #8
    1c5c:	13491927 	movtne	r1, #39207	; 0x9927
    1c60:	00001301 	andeq	r1, r0, r1, lsl #6
    1c64:	49000505 	stmdbmi	r0, {r0, r2, r8, sl}
    1c68:	06000013 			; <UNDEFINED> instruction: 0x06000013
    1c6c:	0e030034 	mcreq	0, 0, r0, cr3, cr4, {1}
    1c70:	0b3b0b3a 	bleq	ec4960 <__bss_end__+0xeba290>
    1c74:	13490b39 	movtne	r0, #39737	; 0x9b39
    1c78:	193c193f 	ldmdbne	ip!, {r0, r1, r2, r3, r4, r5, r8, fp, ip}
    1c7c:	0f070000 	svceq	0x00070000
    1c80:	490b0b00 	stmdbmi	fp, {r8, r9, fp}
    1c84:	08000013 	stmdaeq	r0, {r0, r1, r4}
    1c88:	13490026 	movtne	r0, #36902	; 0x9026
    1c8c:	2e090000 	cdpcs	0, 0, cr0, cr9, cr0, {0}
    1c90:	03193f00 	tsteq	r9, #0, 30
    1c94:	3b0b3a0e 	blcc	2d04d4 <__bss_end__+0x2c5e04>
    1c98:	270b390b 	strcs	r3, [fp, -fp, lsl #18]
    1c9c:	12011119 	andne	r1, r1, #1073741830	; 0x40000006
    1ca0:	97184006 	ldrls	r4, [r8, -r6]
    1ca4:	00001942 	andeq	r1, r0, r2, asr #18
	...

Disassembly of section .debug_loc:

00000000 <.debug_loc>:
       0:	00000000 	andeq	r0, r0, r0
       4:	007c0000 	rsbseq	r0, ip, r0
       8:	007f0000 	rsbseq	r0, pc, r0
       c:	00010000 	andeq	r0, r1, r0
      10:	00007f50 	andeq	r7, r0, r0, asr pc
      14:	00008c00 	andeq	r8, r0, r0, lsl #24
      18:	54000100 	strpl	r0, [r0], #-256	; 0xffffff00
      1c:	0000008c 	andeq	r0, r0, ip, lsl #1
      20:	000000a4 	andeq	r0, r0, r4, lsr #1
      24:	00500001 	subseq	r0, r0, r1
      28:	00000000 	andeq	r0, r0, r0
      2c:	01000000 	mrseq	r0, (UNDEF: 0)
      30:	00002000 	andeq	r2, r0, r0
      34:	00003800 	andeq	r3, r0, r0, lsl #16
      38:	4a000200 	bmi	840 <__code_start__-0x77c0>
      3c:	0000009f 	muleq	r0, pc, r0	; <UNPREDICTABLE>
      40:	00000000 	andeq	r0, r0, r0
      44:	20000100 	andcs	r0, r0, r0, lsl #2
      48:	38000000 	stmdacc	r0, {}	; <UNPREDICTABLE>
      4c:	06000000 	streq	r0, [r0], -r0
      50:	02fdf200 	rscseq	pc, sp, #0, 4
	...
      5c:	01000000 	mrseq	r0, (UNDEF: 0)
      60:	00002000 	andeq	r2, r0, r0
      64:	00003800 	andeq	r3, r0, r0, lsl #16
      68:	03000600 	movweq	r0, #1536	; 0x600
      6c:	00009d00 	andeq	r9, r0, r0, lsl #26
      70:	0000009f 	muleq	r0, pc, r0	; <UNPREDICTABLE>
      74:	00000000 	andeq	r0, r0, r0
      78:	58000100 	stmdapl	r0, {r8}
      7c:	68000000 	stmdavs	r0, {}	; <UNPREDICTABLE>
      80:	02000000 	andeq	r0, r0, #0, 0
      84:	009f4d00 	addseq	r4, pc, r0, lsl #26
      88:	00000000 	andeq	r0, r0, r0
      8c:	01000000 	mrseq	r0, (UNDEF: 0)
      90:	00005800 	andeq	r5, r0, r0, lsl #16
      94:	00006800 	andeq	r6, r0, r0, lsl #16
      98:	f2000600 	vmax.s8	d0, d0, d0
      9c:	000002fd 	strdeq	r0, [r0], -sp
	...
      a8:	58000100 	stmdapl	r0, {r8}
      ac:	68000000 	stmdavs	r0, {}	; <UNPREDICTABLE>
      b0:	06000000 	streq	r0, [r0], -r0
      b4:	9d000300 	stcls	3, cr0, [r0, #-0]
      b8:	009f0000 	addseq	r0, pc, r0
	...
      c8:	00026400 	andeq	r6, r2, r0, lsl #8
      cc:	00027c00 	andeq	r7, r2, r0, lsl #24
      d0:	50000100 	andpl	r0, r0, r0, lsl #2
      d4:	0000027c 	andeq	r0, r0, ip, ror r2
      d8:	000002e8 	andeq	r0, r0, r8, ror #5
      dc:	e8560001 	ldmda	r6, {r0}^
      e0:	f4000002 	vst4.8	{d0-d3}, [r0], r2
      e4:	04000002 	streq	r0, [r0], #-2
      e8:	5001f300 	andpl	pc, r1, r0, lsl #6
      ec:	0000009f 	muleq	r0, pc, r0	; <UNPREDICTABLE>
	...
      f8:	84000000 	strhi	r0, [r0], #-0
      fc:	8f000002 	svchi	0x00000002
     100:	01000002 	tsteq	r0, r2
     104:	028f5000 	addeq	r5, pc, #0, 0
     108:	02e80000 	rsceq	r0, r8, #0, 0
     10c:	00010000 	andeq	r0, r1, r0
     110:	0002e854 	andeq	lr, r2, r4, asr r8
     114:	0002f400 	andeq	pc, r2, r0, lsl #8
     118:	03000500 	movweq	r0, #1280	; 0x500
     11c:	0000a2a8 	andeq	sl, r0, r8, lsr #5
	...
     12c:	00000178 	andeq	r0, r0, r8, ror r1
     130:	00000188 	andeq	r0, r0, r8, lsl #3
     134:	88500001 	ldmdahi	r0, {r0}^
     138:	64000001 	strvs	r0, [r0], #-1
     13c:	01000002 	tsteq	r0, r2
     140:	00005400 	andeq	r5, r0, r0, lsl #8
     144:	00000000 	andeq	r0, r0, r0
     148:	02010000 	andeq	r0, r1, #0, 0
     14c:	00000002 	andeq	r0, r0, r2
     150:	00000000 	andeq	r0, r0, r0
     154:	0000018c 	andeq	r0, r0, ip, lsl #3
     158:	0000018c 	andeq	r0, r0, ip, lsl #3
     15c:	8c540001 	mrrchi	0, 0, r0, r4, cr1
     160:	c8000001 	stmdagt	r0, {r0}
     164:	03000001 	movweq	r0, #1
     168:	9f5c7400 	svcls	0x005c7400
     16c:	000001c8 	andeq	r0, r0, r8, asr #3
     170:	000001fc 	strdeq	r0, [r0], -ip
     174:	fc550001 	mrrc2	0, 0, r0, r5, cr1
     178:	20000001 	andcs	r0, r0, r1
     17c:	03000002 	movweq	r0, #2
     180:	9f5c7400 	svcls	0x005c7400
     184:	00000220 	andeq	r0, r0, r0, lsr #4
     188:	00000264 	andeq	r0, r0, r4, ror #4
     18c:	00550001 	subseq	r0, r5, r1
	...
     1a4:	00002000 	andeq	r2, r0, r0
     1a8:	00003800 	andeq	r3, r0, r0, lsl #16
     1ac:	50000100 	andpl	r0, r0, r0, lsl #2
     1b0:	00000038 	andeq	r0, r0, r8, lsr r0
     1b4:	00000040 	andeq	r0, r0, r0, asr #32
     1b8:	40530001 	subsmi	r0, r3, r1
     1bc:	68000000 	stmdavs	r0, {}	; <UNPREDICTABLE>
     1c0:	04000000 	streq	r0, [r0], #-0
     1c4:	5001f300 	andpl	pc, r1, r0, lsl #6
     1c8:	0000689f 	muleq	r0, pc, r8	; <UNPREDICTABLE>
     1cc:	00008000 	andeq	r8, r0, r0
     1d0:	50000100 	andpl	r0, r0, r0, lsl #2
     1d4:	00000080 	andeq	r0, r0, r0, lsl #1
     1d8:	00000088 	andeq	r0, r0, r8, lsl #1
     1dc:	01f30004 	mvnseq	r0, r4
     1e0:	00889f50 	addeq	r9, r8, r0, asr pc
     1e4:	00940000 	addseq	r0, r4, r0
     1e8:	00010000 	andeq	r0, r1, r0
     1ec:	00009453 	andeq	r9, r0, r3, asr r4
     1f0:	0000c400 	andeq	ip, r0, r0, lsl #8
     1f4:	f3000400 	vshl.u8	d0, d0, d0
     1f8:	009f5001 	addseq	r5, pc, r1
	...
     20c:	20000000 	andcs	r0, r0, r0
     210:	40000000 	andmi	r0, r0, r0
     214:	01000000 	mrseq	r0, (UNDEF: 0)
     218:	00405100 	subeq	r5, r0, r0, lsl #2
     21c:	00680000 	rsbeq	r0, r8, r0
     220:	00010000 	andeq	r0, r1, r0
     224:	00006854 	andeq	r6, r0, r4, asr r8
     228:	00007c00 	andeq	r7, r0, r0, lsl #24
     22c:	51000100 	mrspl	r0, (UNDEF: 16)
     230:	0000007c 	andeq	r0, r0, ip, ror r0
     234:	00000088 	andeq	r0, r0, r8, lsl #1
     238:	01f30004 	mvnseq	r0, r4
     23c:	00889f51 	addeq	r9, r8, r1, asr pc
     240:	00940000 	addseq	r0, r4, r0
     244:	00010000 	andeq	r0, r1, r0
     248:	00009451 	andeq	r9, r0, r1, asr r4
     24c:	0000c400 	andeq	ip, r0, r0, lsl #8
     250:	54000100 	strpl	r0, [r0], #-256	; 0xffffff00
	...
     25c:	01000000 	mrseq	r0, (UNDEF: 0)
     260:	00000000 	andeq	r0, r0, r0
     264:	00000038 	andeq	r0, r0, r8, lsr r0
     268:	00000047 	andeq	r0, r0, r7, asr #32
     26c:	47500001 	ldrbmi	r0, [r0, -r1]
     270:	60000000 	andvs	r0, r0, r0
     274:	01000000 	mrseq	r0, (UNDEF: 0)
     278:	00885500 	addeq	r5, r8, r0, lsl #10
     27c:	00940000 	addseq	r0, r4, r0
     280:	00010000 	andeq	r0, r1, r0
     284:	00009450 	andeq	r9, r0, r0, asr r4
     288:	0000c400 	andeq	ip, r0, r0, lsl #8
     28c:	55000100 	strpl	r0, [r0, #-256]	; 0xffffff00
	...
     298:	00000100 	andeq	r0, r0, r0, lsl #2
     29c:	00000048 	andeq	r0, r0, r8, asr #32
     2a0:	00000060 	andeq	r0, r0, r0, rrx
     2a4:	94500001 	ldrbls	r0, [r0], #-1
     2a8:	a8000000 	stmdage	r0, {}	; <UNPREDICTABLE>
     2ac:	01000000 	mrseq	r0, (UNDEF: 0)
     2b0:	00005000 	andeq	r5, r0, r0
	...
     2bc:	01200000 			; <UNDEFINED> instruction: 0x01200000
     2c0:	012b0000 			; <UNDEFINED> instruction: 0x012b0000
     2c4:	00010000 	andeq	r0, r1, r0
     2c8:	00012b50 	andeq	r2, r1, r0, asr fp
     2cc:	00017800 	andeq	r7, r1, r0, lsl #16
     2d0:	55000100 	strpl	r0, [r0, #-256]	; 0xffffff00
	...
     2e4:	00000130 	andeq	r0, r0, r0, lsr r1
     2e8:	00000143 	andeq	r0, r0, r3, asr #2
     2ec:	43500001 	cmpmi	r0, #1, 0
     2f0:	58000001 	stmdapl	r0, {r0}
     2f4:	01000001 	tsteq	r0, r1
     2f8:	01585400 	cmpeq	r8, r0, lsl #8
     2fc:	015c0000 	cmpeq	ip, r0
     300:	00010000 	andeq	r0, r1, r0
     304:	00015c50 	andeq	r5, r1, r0, asr ip
     308:	00017800 	andeq	r7, r1, r0, lsl #16
     30c:	54000100 	strpl	r0, [r0], #-256	; 0xffffff00
	...
     320:	000000e4 	andeq	r0, r0, r4, ror #1
     324:	00000100 	andeq	r0, r0, r0, lsl #2
     328:	00500001 	subseq	r0, r0, r1
     32c:	10000001 	andne	r0, r0, r1
     330:	04000001 	streq	r0, [r0], #-1
     334:	5001f300 	andpl	pc, r1, r0, lsl #6
     338:	0001109f 	muleq	r1, pc, r0	; <UNPREDICTABLE>
     33c:	00011400 	andeq	r1, r1, r0, lsl #8
     340:	50000100 	andpl	r0, r0, r0, lsl #2
     344:	00000114 	andeq	r0, r0, r4, lsl r1
     348:	00000120 	andeq	r0, r0, r0, lsr #2
     34c:	01f30004 	mvnseq	r0, r4
     350:	00009f50 	andeq	r9, r0, r0, asr pc
	...
     35c:	00cc0000 	sbceq	r0, ip, r0
     360:	00d70000 	sbcseq	r0, r7, r0
     364:	00010000 	andeq	r0, r1, r0
     368:	0000d750 	andeq	sp, r0, r0, asr r7
     36c:	0000e400 	andeq	lr, r0, r0, lsl #8
     370:	54000100 	strpl	r0, [r0], #-256	; 0xffffff00
	...
     37c:	00d80000 	sbcseq	r0, r8, r0
     380:	00dc0000 	sbcseq	r0, ip, r0
     384:	00010000 	andeq	r0, r1, r0
     388:	00000054 	andeq	r0, r0, r4, asr r0
	...
     394:	0000c400 	andeq	ip, r0, r0, lsl #8
     398:	0000c800 	andeq	ip, r0, r0, lsl #16
     39c:	50000100 	andpl	r0, r0, r0, lsl #2
     3a0:	000000c8 	andeq	r0, r0, r8, asr #1
     3a4:	000000cc 	andeq	r0, r0, ip, asr #1
     3a8:	5c700003 	ldclpl	0, cr0, [r0], #-12
     3ac:	0000009f 	muleq	r0, pc, r0	; <UNPREDICTABLE>
	...
     3b8:	00001000 	andeq	r1, r0, r0
     3bc:	00001c00 	andeq	r1, r0, r0, lsl #24
     3c0:	50000100 	andpl	r0, r0, r0, lsl #2
     3c4:	0000001c 	andeq	r0, r0, ip, lsl r0
     3c8:	00000020 	andeq	r0, r0, r0, lsr #32
     3cc:	01f30004 	mvnseq	r0, r4
     3d0:	00009f50 	andeq	r9, r0, r0, asr pc
	...
     3e0:	00080000 	andeq	r0, r8, r0
     3e4:	00780000 	rsbseq	r0, r8, r0
     3e8:	00010000 	andeq	r0, r1, r0
     3ec:	00007851 	andeq	r7, r0, r1, asr r8
     3f0:	00008400 	andeq	r8, r0, r0, lsl #8
     3f4:	70000300 	andvc	r0, r0, r0, lsl #6
     3f8:	00849f78 	addeq	r9, r4, r8, ror pc
     3fc:	00a40000 	adceq	r0, r4, r0
     400:	00010000 	andeq	r0, r1, r0
     404:	0000a451 	andeq	sl, r0, r1, asr r4
     408:	0000bc00 	andeq	fp, r0, r0, lsl #24
     40c:	70000300 	andvc	r0, r0, r0, lsl #6
     410:	00009f78 	andeq	r9, r0, r8, ror pc
	...
     41c:	00100000 	andseq	r0, r0, r0
     420:	00480000 	subeq	r0, r8, r0
     424:	00010000 	andeq	r0, r1, r0
     428:	00004c53 	andeq	r4, r0, r3, asr ip
     42c:	0000bc00 	andeq	fp, r0, r0, lsl #24
     430:	53000100 	movwpl	r0, #256	; 0x100
	...
     444:	00000100 	andeq	r0, r0, r0, lsl #2
     448:	00000124 	andeq	r0, r0, r4, lsr #2
     44c:	24500001 	ldrbcs	r0, [r0], #-1
     450:	28000001 	stmdacs	r0, {r0}
     454:	04000001 	streq	r0, [r0], #-1
     458:	5001f300 	andpl	pc, r1, r0, lsl #6
     45c:	0001289f 	muleq	r1, pc, r8	; <UNPREDICTABLE>
     460:	00014000 	andeq	r4, r1, r0
     464:	50000100 	andpl	r0, r0, r0, lsl #2
     468:	00000140 	andeq	r0, r0, r0, asr #2
     46c:	000001ac 	andeq	r0, r0, ip, lsr #3
     470:	01f30004 	mvnseq	r0, r4
     474:	00009f50 	andeq	r9, r0, r0, asr pc
	...
     484:	00010100 	andeq	r0, r1, r0, lsl #2
     488:	00000000 	andeq	r0, r0, r0
     48c:	00000124 	andeq	r0, r0, r4, lsr #2
     490:	00000128 	andeq	r0, r0, r8, lsr #2
     494:	40500001 	subsmi	r0, r0, r1
     498:	60000001 	andvs	r0, r0, r1
     49c:	01000001 	tsteq	r0, r1
     4a0:	01605000 	cmneq	r0, r0
     4a4:	01640000 	cmneq	r4, r0
     4a8:	00030000 	andeq	r0, r3, r0
     4ac:	649f7870 	ldrvs	r7, [pc], #2160	; 4b4 <__code_start__-0x7b4c>
     4b0:	70000001 	andvc	r0, r0, r1
     4b4:	01000001 	tsteq	r0, r1
     4b8:	01705000 	cmneq	r0, r0
     4bc:	01780000 	cmneq	r8, r0
     4c0:	00020000 	andeq	r0, r2, r0
     4c4:	01780070 	cmneq	r8, r0, ror r0
     4c8:	01980000 	orrseq	r0, r8, r0
     4cc:	00010000 	andeq	r0, r1, r0
     4d0:	00019c50 	andeq	r9, r1, r0, asr ip
     4d4:	0001ac00 	andeq	sl, r1, r0, lsl #24
     4d8:	50000100 	andpl	r0, r0, r0, lsl #2
	...
     4e4:	00010100 	andeq	r0, r1, r0, lsl #2
     4e8:	00010000 	andeq	r0, r1, r0
     4ec:	01180000 	tsteq	r8, r0
     4f0:	01280000 			; <UNDEFINED> instruction: 0x01280000
     4f4:	00010000 	andeq	r0, r1, r0
     4f8:	00012852 	andeq	r2, r1, r2, asr r8
     4fc:	00014000 	andeq	r4, r1, r0
     500:	03000600 	movweq	r0, #1536	; 0x600
     504:	0000a2b8 			; <UNDEFINED> instruction: 0x0000a2b8
     508:	0001409f 	muleq	r1, pc, r0	; <UNPREDICTABLE>
     50c:	00017000 	andeq	r7, r1, r0
     510:	52000100 	andpl	r0, r0, #0
     514:	00000170 	andeq	r0, r0, r0, ror r1
     518:	00000178 	andeq	r0, r0, r8, ror r1
     51c:	78500001 	ldmdavc	r0, {r0}^
     520:	9b000001 	blls	52c <__code_start__-0x7ad4>
     524:	01000001 	tsteq	r0, r1
     528:	00005200 	andeq	r5, r0, r0, lsl #4
	...
     534:	00000110 	andeq	r0, r0, r0, lsl r1
     538:	000001ac 	andeq	r0, r0, ip, lsr #3
     53c:	00540001 	subseq	r0, r4, r1
	...
     548:	bc000000 	stclt	0, cr0, [r0], {-0}
     54c:	cc000000 	stcgt	0, cr0, [r0], {-0}
     550:	01000000 	mrseq	r0, (UNDEF: 0)
     554:	00cc5000 	sbceq	r5, ip, r0
     558:	01000000 	mrseq	r0, (UNDEF: 0)
     55c:	00010000 	andeq	r0, r1, r0
     560:	00000054 	andeq	r0, r0, r4, asr r0
	...
     56c:	d4000000 	strle	r0, [r0], #-0
     570:	e4000000 	str	r0, [r0], #-0
     574:	01000000 	mrseq	r0, (UNDEF: 0)
     578:	00e45000 	rsceq	r5, r4, r0
     57c:	00e70000 	rsceq	r0, r7, r0
     580:	00030000 	andeq	r0, r3, r0
     584:	f49f7870 			; <UNDEFINED> instruction: 0xf49f7870
     588:	f8000000 			; <UNDEFINED> instruction: 0xf8000000
     58c:	01000000 	mrseq	r0, (UNDEF: 0)
     590:	00005000 	andeq	r5, r0, r0
     594:	00000000 	andeq	r0, r0, r0
     598:	00010000 	andeq	r0, r1, r0
     59c:	00dc0000 	sbcseq	r0, ip, r0
     5a0:	00e40000 	rsceq	r0, r4, r0
     5a4:	00010000 	andeq	r0, r1, r0
     5a8:	0000e450 	andeq	lr, r0, r0, asr r4
     5ac:	0000e700 	andeq	lr, r0, r0, lsl #14
     5b0:	70000300 	andvc	r0, r0, r0, lsl #6
     5b4:	00009f78 	andeq	r9, r0, r8, ror pc
	...
     5c0:	01040000 	mrseq	r0, (UNDEF: 4)
     5c4:	010b0000 	mrseq	r0, (UNDEF: 11)
     5c8:	00010000 	andeq	r0, r1, r0
     5cc:	00010b50 	andeq	r0, r1, r0, asr fp
     5d0:	00010c00 	andeq	r0, r1, r0, lsl #24
     5d4:	f3000400 	vshl.u8	d0, d0, d0
     5d8:	009f5001 	addseq	r5, pc, r1
	...
     5e4:	0c000000 	stceq	0, cr0, [r0], {-0}
     5e8:	27000000 	strcs	r0, [r0, -r0]
     5ec:	01000000 	mrseq	r0, (UNDEF: 0)
     5f0:	00285000 	eoreq	r5, r8, r0
     5f4:	00300000 	eorseq	r0, r0, r0
     5f8:	00010000 	andeq	r0, r1, r0
     5fc:	00000050 	andeq	r0, r0, r0, asr r0
	...
     610:	00006c00 	andeq	r6, r0, r0, lsl #24
     614:	00009400 	andeq	r9, r0, r0, lsl #8
     618:	50000100 	andpl	r0, r0, r0, lsl #2
     61c:	00000094 	muleq	r0, r4, r0
     620:	000000b4 	strheq	r0, [r0], -r4
     624:	b4540001 	ldrblt	r0, [r4], #-1
     628:	cc000000 	stcgt	0, cr0, [r0], {-0}
     62c:	01000000 	mrseq	r0, (UNDEF: 0)
     630:	00cc5000 	sbceq	r5, ip, r0
     634:	00d40000 	sbcseq	r0, r4, r0
     638:	00010000 	andeq	r0, r1, r0
     63c:	0000d454 	andeq	sp, r0, r4, asr r4
     640:	0000e400 	andeq	lr, r0, r0, lsl #8
     644:	50000100 	andpl	r0, r0, r0, lsl #2
     648:	000000e4 	andeq	r0, r0, r4, ror #1
     64c:	00000104 	andeq	r0, r0, r4, lsl #2
     650:	00540001 	subseq	r0, r4, r1
     654:	00000000 	andeq	r0, r0, r0
     658:	02000000 	andeq	r0, r0, #0, 0
     65c:	00008c00 	andeq	r8, r0, r0, lsl #24
     660:	0000b400 	andeq	fp, r0, r0, lsl #8
     664:	40000400 	andmi	r0, r0, r0, lsl #8
     668:	009f2440 	addseq	r2, pc, r0, asr #8
	...
     678:	1c000000 	stcne	0, cr0, [r0], {-0}
     67c:	01000000 	mrseq	r0, (UNDEF: 0)
     680:	001c5100 	andseq	r5, ip, r0, lsl #2
     684:	00780000 	rsbseq	r0, r8, r0
     688:	00040000 	andeq	r0, r4, r0
     68c:	9f5101f3 	svcls	0x005101f3
	...
     6a0:	00000058 	andeq	r0, r0, r8, asr r0
     6a4:	58520001 	ldmdapl	r2, {r0}^
     6a8:	78000000 	stmdavc	r0, {}	; <UNPREDICTABLE>
     6ac:	04000000 	streq	r0, [r0], #-0
     6b0:	5201f300 	andpl	pc, r1, #0, 6
     6b4:	0000009f 	muleq	r0, pc, r0	; <UNPREDICTABLE>
     6b8:	00000000 	andeq	r0, r0, r0
     6bc:	00000200 	andeq	r0, r0, r0, lsl #4
     6c0:	00000101 	andeq	r0, r0, r1, lsl #2
     6c4:	00000101 	andeq	r0, r0, r1, lsl #2
     6c8:	00000101 	andeq	r0, r0, r1, lsl #2
     6cc:	38000000 	stmdacc	r0, {}	; <UNPREDICTABLE>
     6d0:	01000000 	mrseq	r0, (UNDEF: 0)
     6d4:	00545000 	subseq	r5, r4, r0
     6d8:	00540000 	subseq	r0, r4, r0
     6dc:	00010000 	andeq	r0, r1, r0
     6e0:	00005453 	andeq	r5, r0, r3, asr r4
     6e4:	00005c00 	andeq	r5, r0, r0, lsl #24
     6e8:	73000300 	movwvc	r0, #768	; 0x300
     6ec:	005c9f01 	subseq	r9, ip, r1, lsl #30
     6f0:	00640000 	rsbeq	r0, r4, r0
     6f4:	00010000 	andeq	r0, r1, r0
     6f8:	00006452 	andeq	r6, r0, r2, asr r4
     6fc:	00006800 	andeq	r6, r0, r0, lsl #16
     700:	73000300 	movwvc	r0, #768	; 0x300
     704:	00689f02 	rsbeq	r9, r8, r2, lsl #30
     708:	00740000 	rsbseq	r0, r4, r0
     70c:	00010000 	andeq	r0, r1, r0
     710:	00007452 	andeq	r7, r0, r2, asr r4
     714:	00007800 	andeq	r7, r0, r0, lsl #16
     718:	72000300 	andvc	r0, r0, #0, 6
     71c:	00009f01 	andeq	r9, r0, r1, lsl #30
	...
     728:	00000008 	andeq	r0, r0, r8
     72c:	00000078 	andeq	r0, r0, r8, ror r0
     730:	00540001 	subseq	r0, r4, r1
	...
     740:	00002c00 	andeq	r2, r0, r0, lsl #24
     744:	00003400 	andeq	r3, r0, r0, lsl #8
     748:	50000100 	andpl	r0, r0, r0, lsl #2
     74c:	00000034 	andeq	r0, r0, r4, lsr r0
     750:	00000048 	andeq	r0, r0, r8, asr #32
     754:	48540001 	ldmdami	r4, {r0}^
     758:	58000000 	stmdapl	r0, {}	; <UNPREDICTABLE>
     75c:	01000000 	mrseq	r0, (UNDEF: 0)
     760:	00005000 	andeq	r5, r0, r0
	...
     76c:	00010100 	andeq	r0, r1, r0, lsl #2
     770:	00000000 	andeq	r0, r0, r0
     774:	000c0000 	andeq	r0, ip, r0
     778:	00010000 	andeq	r0, r1, r0
     77c:	00000c50 	andeq	r0, r0, r0, asr ip
     780:	00002000 	andeq	r2, r0, r0
     784:	54000100 	strpl	r0, [r0], #-256	; 0xffffff00
     788:	00000020 	andeq	r0, r0, r0, lsr #32
     78c:	00000024 	andeq	r0, r0, r4, lsr #32
     790:	01740003 	cmneq	r4, r3
     794:	0000249f 	muleq	r0, pc, r4	; <UNPREDICTABLE>
     798:	00003800 	andeq	r3, r0, r0, lsl #16
     79c:	54000100 	strpl	r0, [r0], #-256	; 0xffffff00
	...
     7b0:	03880000 	orreq	r0, r8, #0, 0
     7b4:	03940000 	orrseq	r0, r4, #0, 0
     7b8:	00010000 	andeq	r0, r1, r0
     7bc:	00039450 	andeq	r9, r3, r0, asr r4
     7c0:	0003d000 	andeq	sp, r3, r0
     7c4:	5b000100 	blpl	bcc <__code_start__-0x7434>
     7c8:	000003d0 	ldrdeq	r0, [r0], -r0	; <UNPREDICTABLE>
     7cc:	00000920 	andeq	r0, r0, r0, lsr #18
     7d0:	01f30004 	mvnseq	r0, r4
     7d4:	09209f50 	stmdbeq	r0!, {r4, r6, r8, r9, sl, fp, ip, pc}
     7d8:	09280000 	stmdbeq	r8!, {}	; <UNPREDICTABLE>
     7dc:	00010000 	andeq	r0, r1, r0
     7e0:	0009285b 	andeq	r2, r9, fp, asr r8
     7e4:	0009b400 	andeq	fp, r9, r0, lsl #8
     7e8:	f3000400 	vshl.u8	d0, d0, d0
     7ec:	009f5001 	addseq	r5, pc, r1
	...
     7fc:	88000000 	stmdahi	r0, {}	; <UNPREDICTABLE>
     800:	d0000003 	andle	r0, r0, r3
     804:	01000003 	tsteq	r0, r3
     808:	03d05100 	bicseq	r5, r0, #0
     80c:	09200000 	stmdbeq	r0!, {}	; <UNPREDICTABLE>
     810:	00040000 	andeq	r0, r4, r0
     814:	9f5101f3 	svcls	0x005101f3
     818:	00000920 	andeq	r0, r0, r0, lsr #18
     81c:	00000928 	andeq	r0, r0, r8, lsr #18
     820:	28510001 	ldmdacs	r1, {r0}^
     824:	b4000009 	strlt	r0, [r0], #-9
     828:	04000009 	streq	r0, [r0], #-9
     82c:	5101f300 	mrspl	pc, SP_irq	; <UNPREDICTABLE>
     830:	0000009f 	muleq	r0, pc, r0	; <UNPREDICTABLE>
	...
     840:	01000001 	tsteq	r0, r1
	...
     850:	00038800 	andeq	r8, r3, r0, lsl #16
     854:	0003d000 	andeq	sp, r3, r0
     858:	52000100 	andpl	r0, r0, #0
     85c:	000003d0 	ldrdeq	r0, [r0], -r0	; <UNPREDICTABLE>
     860:	00000400 	andeq	r0, r0, r0, lsl #8
     864:	14560001 	ldrbne	r0, [r6], #-1
     868:	24000004 	strcs	r0, [r0], #-4
     86c:	01000004 	tsteq	r0, r4
     870:	04245600 	strteq	r5, [r4], #-1536	; 0xfffffa00
     874:	04280000 	strteq	r0, [r8], #-0
     878:	00030000 	andeq	r0, r3, r0
     87c:	a89f7f76 	ldmge	pc, {r1, r2, r4, r5, r6, r8, r9, sl, fp, ip, sp, lr}	; <UNPREDICTABLE>
     880:	ac000004 	stcge	0, cr0, [r0], {4}
     884:	01000004 	tsteq	r0, r4
     888:	04e05600 	strbteq	r5, [r0], #1536	; 0x600
     88c:	05040000 	streq	r0, [r4, #-0]
     890:	00010000 	andeq	r0, r1, r0
     894:	00057c56 	andeq	r7, r5, r6, asr ip
     898:	00058800 	andeq	r8, r5, r0, lsl #16
     89c:	53000100 	movwpl	r0, #256	; 0x100
     8a0:	00000588 	andeq	r0, r0, r8, lsl #11
     8a4:	000005d0 	ldrdeq	r0, [r0], -r0	; <UNPREDICTABLE>
     8a8:	cc910003 	ldcgt	0, cr0, [r1], {3}
     8ac:	0008007d 	andeq	r0, r8, sp, ror r0
     8b0:	00080f00 	andeq	r0, r8, r0, lsl #30
     8b4:	53000100 	movwpl	r0, #256	; 0x100
     8b8:	0000080f 	andeq	r0, r0, pc, lsl #16
     8bc:	00000888 	andeq	r0, r0, r8, lsl #17
     8c0:	cc910003 	ldcgt	0, cr0, [r1], {3}
     8c4:	0009207d 	andeq	r2, r9, sp, ror r0
     8c8:	00092800 	andeq	r2, r9, r0, lsl #16
     8cc:	52000100 	andpl	r0, r0, #0
     8d0:	00000948 	andeq	r0, r0, r8, asr #18
     8d4:	00000964 	andeq	r0, r0, r4, ror #18
     8d8:	cc910003 	ldcgt	0, cr0, [r1], {3}
     8dc:	0000007d 	andeq	r0, r0, sp, ror r0
	...
     8ec:	01010000 	mrseq	r0, (UNDEF: 1)
     8f0:	01010000 	mrseq	r0, (UNDEF: 1)
     8f4:	00000000 	andeq	r0, r0, r0
     8f8:	00000202 	andeq	r0, r0, r2, lsl #4
     8fc:	00000202 	andeq	r0, r0, r2, lsl #4
     900:	00000101 	andeq	r0, r0, r1, lsl #2
     904:	00000202 	andeq	r0, r0, r2, lsl #4
     908:	00000101 	andeq	r0, r0, r1, lsl #2
     90c:	00000000 	andeq	r0, r0, r0
     910:	88000000 	stmdahi	r0, {}	; <UNPREDICTABLE>
     914:	ac000003 	stcge	0, cr0, [r0], {3}
     918:	01000003 	tsteq	r0, r3
     91c:	03ac5300 			; <UNDEFINED> instruction: 0x03ac5300
     920:	03c00000 	biceq	r0, r0, #0, 0
     924:	00030000 	andeq	r0, r3, r0
     928:	d0049353 	andle	r9, r4, r3, asr r3
     92c:	e8000003 	stmda	r0, {r0, r1}
     930:	03000003 	movweq	r0, #3
     934:	04935800 	ldreq	r5, [r3], #2048	; 0x800
     938:	000003e8 	andeq	r0, r0, r8, ror #7
     93c:	000004ac 	andeq	r0, r0, ip, lsr #9
     940:	93580003 	cmpls	r8, #3, 0
     944:	0004c004 	andeq	ip, r4, r4
     948:	0004c000 	andeq	ip, r4, r0
     94c:	58000300 	stmdapl	r0, {r8, r9}
     950:	04c00493 	strbeq	r0, [r0], #1171	; 0x493
     954:	04cc0000 	strbeq	r0, [ip], #0
     958:	00050000 	andeq	r0, r5, r0
     95c:	939f0478 	orrsls	r0, pc, #120, 8	; 0x78000000
     960:	0004cc04 	andeq	ip, r4, r4, lsl #24
     964:	0004e000 	andeq	lr, r4, r0
     968:	58000300 	stmdapl	r0, {r8, r9}
     96c:	04e00493 	strbteq	r0, [r0], #1171	; 0x493
     970:	05380000 	ldreq	r0, [r8, #-0]!
     974:	00030000 	andeq	r0, r3, r0
     978:	38049358 	stmdacc	r4, {r3, r4, r6, r8, r9, ip, pc}
     97c:	3c000005 	stccc	0, cr0, [r0], {5}
     980:	05000005 	streq	r0, [r0, #-5]
     984:	9f797800 	svcls	0x00797800
     988:	05d00493 	ldrbeq	r0, [r0, #1171]	; 0x493
     98c:	05d00000 	ldrbeq	r0, [r0]
     990:	00030000 	andeq	r0, r3, r0
     994:	d0049358 	andle	r9, r4, r8, asr r3
     998:	d4000005 	strle	r0, [r0], #-5
     99c:	05000005 	streq	r0, [r0, #-5]
     9a0:	9f047800 	svcls	0x00047800
     9a4:	05f40493 	ldrbeq	r0, [r4, #1171]!	; 0x493
     9a8:	05f40000 	ldrbeq	r0, [r4, #0]!
     9ac:	00030000 	andeq	r0, r3, r0
     9b0:	f4049358 	vst2.16	{d9-d12}, [r4 :64], r8
     9b4:	fc000005 	stc2	0, cr0, [r0], {5}
     9b8:	05000005 	streq	r0, [r0, #-5]
     9bc:	9f047800 	svcls	0x00047800
     9c0:	05fc0493 	ldrbeq	r0, [ip, #1171]!	; 0x493
     9c4:	05fc0000 	ldrbeq	r0, [ip, #0]!
     9c8:	00030000 	andeq	r0, r3, r0
     9cc:	fc049358 	stc2	3, cr9, [r4], {88}	; 0x58
     9d0:	00000005 	andeq	r0, r0, r5
     9d4:	05000006 	streq	r0, [r0, #-6]
     9d8:	9f047800 	svcls	0x00047800
     9dc:	06000493 			; <UNDEFINED> instruction: 0x06000493
     9e0:	07000000 	streq	r0, [r0, -r0]
     9e4:	00030000 	andeq	r0, r3, r0
     9e8:	00049358 	andeq	r9, r4, r8, asr r3
     9ec:	0c000007 	stceq	0, cr0, [r0], {7}
     9f0:	05000007 	streq	r0, [r0, #-7]
     9f4:	9f047800 	svcls	0x00047800
     9f8:	070c0493 			; <UNDEFINED> instruction: 0x070c0493
     9fc:	07f80000 	ldrbeq	r0, [r8, r0]!
     a00:	00030000 	andeq	r0, r3, r0
     a04:	f8049358 			; <UNDEFINED> instruction: 0xf8049358
     a08:	fc000007 	stc2	0, cr0, [r0], {7}
     a0c:	05000007 	streq	r0, [r0, #-7]
     a10:	9f047800 	svcls	0x00047800
     a14:	07fc0493 			; <UNDEFINED> instruction: 0x07fc0493
     a18:	08000000 	stmdaeq	r0, {}	; <UNPREDICTABLE>
     a1c:	00030000 	andeq	r0, r3, r0
     a20:	88049358 	stmdahi	r4, {r3, r4, r6, r8, r9, ip, pc}
     a24:	20000008 	andcs	r0, r0, r8
     a28:	03000009 	movweq	r0, #9
     a2c:	04935800 	ldreq	r5, [r3], #2048	; 0x800
     a30:	00000920 	andeq	r0, r0, r0, lsr #18
     a34:	00000928 	andeq	r0, r0, r8, lsr #18
     a38:	64530001 	ldrbvs	r0, [r3], #-1
     a3c:	b4000009 	strlt	r0, [r0], #-9
     a40:	03000009 	movweq	r0, #9
     a44:	04935800 	ldreq	r5, [r3], #2048	; 0x800
	...
     a50:	00000001 	andeq	r0, r0, r1
     a54:	00000000 	andeq	r0, r0, r0
     a58:	00020200 	andeq	r0, r2, r0, lsl #4
     a5c:	01010000 	mrseq	r0, (UNDEF: 1)
     a60:	00000001 	andeq	r0, r0, r1
     a64:	03ac0000 			; <UNDEFINED> instruction: 0x03ac0000
     a68:	03d00000 	bicseq	r0, r0, #0, 0
     a6c:	00010000 	andeq	r0, r1, r0
     a70:	0003d05b 	andeq	sp, r3, fp, asr r0
     a74:	0003d400 	andeq	sp, r3, r0, lsl #8
     a78:	54000100 	strpl	r0, [r0], #-256	; 0xffffff00
     a7c:	000003d4 	ldrdeq	r0, [r0], -r4
     a80:	000003d8 	ldrdeq	r0, [r0], -r8
     a84:	7f740003 	svcvc	0x00740003
     a88:	0003d89f 	muleq	r3, pc, r8	; <UNPREDICTABLE>
     a8c:	0003fc00 	andeq	pc, r3, r0, lsl #24
     a90:	54000100 	strpl	r0, [r0], #-256	; 0xffffff00
     a94:	000004a8 	andeq	r0, r0, r8, lsr #9
     a98:	000004ac 	andeq	r0, r0, ip, lsr #9
     a9c:	ac540001 	mrrcge	0, 0, r0, r4, cr1
     aa0:	b4000004 	strlt	r0, [r0], #-4
     aa4:	03000004 	movweq	r0, #4
     aa8:	9f017400 	svcls	0x00017400
     aac:	000004b4 			; <UNDEFINED> instruction: 0x000004b4
     ab0:	000004c0 	andeq	r0, r0, r0, asr #9
     ab4:	e4540001 	ldrb	r0, [r4], #-1
     ab8:	f4000004 	vst4.8	{d0-d3}, [r0], r4
     abc:	01000004 	tsteq	r0, r4
     ac0:	04f45400 	ldrbteq	r5, [r4], #1024	; 0x400
     ac4:	04f80000 	ldrbteq	r0, [r8], #0
     ac8:	00030000 	andeq	r0, r3, r0
     acc:	f89f0174 			; <UNDEFINED> instruction: 0xf89f0174
     ad0:	04000004 	streq	r0, [r0], #-4
     ad4:	01000005 	tsteq	r0, r5
     ad8:	09205400 	stmdbeq	r0!, {sl, ip, lr}
     adc:	09280000 	stmdbeq	r8!, {}	; <UNPREDICTABLE>
     ae0:	00010000 	andeq	r0, r1, r0
     ae4:	0000005b 	andeq	r0, r0, fp, asr r0
     ae8:	00000000 	andeq	r0, r0, r0
     aec:	ac000100 	stfges	f0, [r0], {-0}
     af0:	b4000003 	strlt	r0, [r0], #-3
     af4:	01000009 	tsteq	r0, r9
     af8:	00005700 	andeq	r5, r0, r0, lsl #14
     afc:	00000000 	andeq	r0, r0, r0
     b00:	00020000 	andeq	r0, r2, r0
     b04:	00000000 	andeq	r0, r0, r0
     b08:	0000057c 	andeq	r0, r0, ip, ror r5
     b0c:	000005d0 	ldrdeq	r0, [r0], -r0	; <UNPREDICTABLE>
     b10:	005b0001 	subseq	r0, fp, r1
     b14:	88000008 	stmdahi	r0, {r3}
     b18:	01000008 	tsteq	r0, r8
     b1c:	09485b00 	stmdbeq	r8, {r8, r9, fp, ip, lr}^
     b20:	09640000 	stmdbeq	r4!, {}^	; <UNPREDICTABLE>
     b24:	00010000 	andeq	r0, r1, r0
     b28:	0000005b 	andeq	r0, r0, fp, asr r0
     b2c:	00000000 	andeq	r0, r0, r0
     b30:	00000300 	andeq	r0, r0, r0, lsl #6
     b34:	7c000000 	stcvc	0, cr0, [r0], {-0}
     b38:	d0000005 	andle	r0, r0, r5
     b3c:	01000005 	tsteq	r0, r5
     b40:	08005900 	stmdaeq	r0, {r8, fp, ip, lr}
     b44:	08880000 	stmeq	r8, {}	; <UNPREDICTABLE>
     b48:	00010000 	andeq	r0, r1, r0
     b4c:	00094859 	andeq	r4, r9, r9, asr r8
     b50:	00096400 	andeq	r6, r9, r0, lsl #8
     b54:	59000100 	stmdbpl	r0, {r8}
	...
     b60:	00000004 	andeq	r0, r0, r4
     b64:	00000000 	andeq	r0, r0, r0
     b68:	000003ac 	andeq	r0, r0, ip, lsr #7
     b6c:	000003d0 	ldrdeq	r0, [r0], -r0	; <UNPREDICTABLE>
     b70:	d0520001 	subsle	r0, r2, r1
     b74:	20000003 	andcs	r0, r0, r3
     b78:	04000009 	streq	r0, [r0], #-9
     b7c:	5201f300 	andpl	pc, r1, #0, 6
     b80:	0009209f 	muleq	r9, pc, r0	; <UNPREDICTABLE>
     b84:	00092800 	andeq	r2, r9, r0, lsl #16
     b88:	52000100 	andpl	r0, r0, #0
     b8c:	00000928 	andeq	r0, r0, r8, lsr #18
     b90:	000009b4 			; <UNDEFINED> instruction: 0x000009b4
     b94:	01f30004 	mvnseq	r0, r4
     b98:	00009f52 	andeq	r9, r0, r2, asr pc
     b9c:	00000000 	andeq	r0, r0, r0
     ba0:	01000000 	mrseq	r0, (UNDEF: 0)
     ba4:	00000001 	andeq	r0, r0, r1
     ba8:	00010000 	andeq	r0, r1, r0
     bac:	04e00000 	strbteq	r0, [r0], #0
     bb0:	04e00000 	strbteq	r0, [r0], #0
     bb4:	00010000 	andeq	r0, r1, r0
     bb8:	0004e050 	andeq	lr, r4, r0, asr r0
     bbc:	0004e800 	andeq	lr, r4, r0, lsl #16
     bc0:	55000100 	strpl	r0, [r0, #-256]	; 0xffffff00
     bc4:	000005b8 			; <UNDEFINED> instruction: 0x000005b8
     bc8:	000005d0 	ldrdeq	r0, [r0], -r0	; <UNPREDICTABLE>
     bcc:	f0550001 			; <UNDEFINED> instruction: 0xf0550001
     bd0:	f4000005 	vst4.8	{d0-d3}, [r0], r5
     bd4:	01000005 	tsteq	r0, r5
     bd8:	07f45000 	ldrbeq	r5, [r4, r0]!
     bdc:	07f80000 	ldrbeq	r0, [r8, r0]!
     be0:	00010000 	andeq	r0, r1, r0
     be4:	00085055 	andeq	r5, r8, r5, asr r0
     be8:	00088800 	andeq	r8, r8, r0, lsl #16
     bec:	55000100 	strpl	r0, [r0, #-256]	; 0xffffff00
	...
     bf8:	00000002 	andeq	r0, r0, r2
     bfc:	00000000 	andeq	r0, r0, r0
     c00:	00000414 	andeq	r0, r0, r4, lsl r4
     c04:	00000418 	andeq	r0, r0, r8, lsl r4
     c08:	9f300002 	svcls	0x00300002
     c0c:	00000418 	andeq	r0, r0, r8, lsl r4
     c10:	0000041c 	andeq	r0, r0, ip, lsl r4
     c14:	28550001 	ldmdacs	r5, {r0}^
     c18:	3c000004 	stccc	0, cr0, [r0], {4}
     c1c:	01000004 	tsteq	r0, r4
     c20:	09285500 	stmdbeq	r8!, {r8, sl, ip, lr}
     c24:	09300000 	ldmdbeq	r0!, {}	; <UNPREDICTABLE>
     c28:	00010000 	andeq	r0, r1, r0
     c2c:	00000055 	andeq	r0, r0, r5, asr r0
     c30:	00000000 	andeq	r0, r0, r0
     c34:	00000100 	andeq	r0, r0, r0, lsl #2
	...
     c40:	00050400 	andeq	r0, r5, r0, lsl #8
     c44:	00058400 	andeq	r8, r5, r0, lsl #8
     c48:	56000100 	strpl	r0, [r0], -r0, lsl #2
     c4c:	00000584 	andeq	r0, r0, r4, lsl #11
     c50:	00000588 	andeq	r0, r0, r8, lsl #11
     c54:	7e730003 	cdpvc	0, 7, cr0, cr3, cr3, {0}
     c58:	0005889f 	muleq	r5, pc, r8	; <UNPREDICTABLE>
     c5c:	0005d000 	andeq	sp, r5, r0
     c60:	91000700 	tstls	r0, r0, lsl #14
     c64:	32067dcc 	andcc	r7, r6, #204, 26	; 0x3300
     c68:	08009f1c 	stmdaeq	r0, {r2, r3, r4, r8, r9, sl, fp, ip, pc}
     c6c:	081c0000 	ldmdaeq	ip, {}	; <UNPREDICTABLE>
     c70:	00010000 	andeq	r0, r1, r0
     c74:	00081c56 	andeq	r1, r8, r6, asr ip
     c78:	00088800 	andeq	r8, r8, r0, lsl #16
     c7c:	91000700 	tstls	r0, r0, lsl #14
     c80:	32067dcc 	andcc	r7, r6, #204, 26	; 0x3300
     c84:	09489f1c 	stmdbeq	r8, {r2, r3, r4, r8, r9, sl, fp, ip, pc}^
     c88:	09b40000 	ldmibeq	r4!, {}	; <UNPREDICTABLE>
     c8c:	00010000 	andeq	r0, r1, r0
     c90:	00000056 	andeq	r0, r0, r6, asr r0
     c94:	00000000 	andeq	r0, r0, r0
     c98:	02060400 	andeq	r0, r6, #0, 8
     c9c:	00041404 	andeq	r1, r4, r4, lsl #8
     ca0:	00041400 	andeq	r1, r4, r0, lsl #8
     ca4:	72000600 	andvc	r0, r0, #0, 12
     ca8:	1aff0800 	bne	fffc2cb0 <__bss_end__+0xfffb85e0>
     cac:	0004289f 	muleq	r4, pc, r8	; <UNPREDICTABLE>
     cb0:	00042800 	andeq	r2, r4, r0, lsl #16
     cb4:	72000600 	andvc	r0, r0, #0, 12
     cb8:	1aff0800 	bne	fffc2cc0 <__bss_end__+0xfffb85f0>
     cbc:	0000009f 	muleq	r0, pc, r0	; <UNPREDICTABLE>
     cc0:	00000000 	andeq	r0, r0, r0
     cc4:	00000200 	andeq	r0, r0, r0, lsl #4
     cc8:	fc000000 	stc2	0, cr0, [r0], {-0}
     ccc:	00000005 	andeq	r0, r0, r5
     cd0:	03000007 	movweq	r0, #7
     cd4:	9f800800 	svcls	0x00800800
     cd8:	000008a8 	andeq	r0, r0, r8, lsr #17
     cdc:	000008bc 			; <UNDEFINED> instruction: 0x000008bc
     ce0:	80080003 	andhi	r0, r8, r3
     ce4:	0009109f 	muleq	r9, pc, r0	; <UNPREDICTABLE>
     ce8:	00092000 	andeq	r2, r9, r0
     cec:	08000300 	stmdaeq	r0, {r8, r9}
     cf0:	00009f80 	andeq	r9, r0, r0, lsl #31
     cf4:	00000000 	andeq	r0, r0, r0
     cf8:	00010000 	andeq	r0, r1, r0
     cfc:	00000000 	andeq	r0, r0, r0
     d00:	000005fc 	strdeq	r0, [r0], -ip
     d04:	00000700 	andeq	r0, r0, r0, lsl #14
     d08:	9f300002 	svcls	0x00300002
     d0c:	000008a8 	andeq	r0, r0, r8, lsr #17
     d10:	000008bc 			; <UNDEFINED> instruction: 0x000008bc
     d14:	9f300002 	svcls	0x00300002
     d18:	00000910 	andeq	r0, r0, r0, lsl r9
     d1c:	00000920 	andeq	r0, r0, r0, lsr #18
     d20:	9f300002 	svcls	0x00300002
	...
     d2c:	00000001 	andeq	r0, r0, r1
     d30:	05fc0000 	ldrbeq	r0, [ip, #0]!
     d34:	06e00000 	strbteq	r0, [r0], r0
     d38:	00010000 	andeq	r0, r1, r0
     d3c:	0008a855 	andeq	sl, r8, r5, asr r8
     d40:	0008bc00 	andeq	fp, r8, r0, lsl #24
     d44:	55000100 	strpl	r0, [r0, #-256]	; 0xffffff00
     d48:	00000910 	andeq	r0, r0, r0, lsl r9
     d4c:	00000920 	andeq	r0, r0, r0, lsr #18
     d50:	00550001 	subseq	r0, r5, r1
     d54:	00000000 	andeq	r0, r0, r0
     d58:	01000000 	mrseq	r0, (UNDEF: 0)
     d5c:	00000000 	andeq	r0, r0, r0
     d60:	fc000000 	stc2	0, cr0, [r0], {-0}
     d64:	e0000005 	and	r0, r0, r5
     d68:	04000006 	streq	r0, [r0], #-6
     d6c:	7dd09100 	ldfvcp	f1, [r0]
     d70:	0006e09f 	muleq	r6, pc, r0	; <UNPREDICTABLE>
     d74:	00070000 	andeq	r0, r7, r0
     d78:	55000100 	strpl	r0, [r0, #-256]	; 0xffffff00
     d7c:	000008a8 	andeq	r0, r0, r8, lsr #17
     d80:	000008bc 			; <UNDEFINED> instruction: 0x000008bc
     d84:	d0910004 	addsle	r0, r1, r4
     d88:	09109f7d 	ldmdbeq	r0, {r0, r2, r3, r4, r5, r6, r8, r9, sl, fp, ip, pc}
     d8c:	09200000 	stmdbeq	r0!, {}	; <UNPREDICTABLE>
     d90:	00040000 	andeq	r0, r4, r0
     d94:	9f7dd091 	svcls	0x007dd091
	...
     da0:	00000001 	andeq	r0, r0, r1
     da4:	05fc0000 	ldrbeq	r0, [ip, #0]!
     da8:	07000000 	streq	r0, [r0, -r0]
     dac:	00020000 	andeq	r0, r2, r0
     db0:	08a89f38 	stmiaeq	r8!, {r3, r4, r5, r8, r9, sl, fp, ip, pc}
     db4:	08bc0000 	ldmeq	ip!, {}	; <UNPREDICTABLE>
     db8:	00020000 	andeq	r0, r2, r0
     dbc:	09109f38 	ldmdbeq	r0, {r3, r4, r5, r8, r9, sl, fp, ip, pc}
     dc0:	09200000 	stmdbeq	r0!, {}	; <UNPREDICTABLE>
     dc4:	00020000 	andeq	r0, r2, r0
     dc8:	00009f38 	andeq	r9, r0, r8, lsr pc
     dcc:	00000000 	andeq	r0, r0, r0
     dd0:	07040000 	streq	r0, [r4, -r0]
     dd4:	00000007 	andeq	r0, r0, r7
	...
     de0:	000005fc 	strdeq	r0, [r0], -ip
     de4:	000005fc 	strdeq	r0, [r0], -ip
     de8:	d0910004 	addsle	r0, r1, r4
     dec:	05fc9f7e 	ldrbeq	r9, [ip, #3966]!	; 0xf7e
     df0:	06780000 	ldrbteq	r0, [r8], -r0
     df4:	00040000 	andeq	r0, r4, r0
     df8:	9f7ed191 	svcls	0x007ed191
     dfc:	00000678 	andeq	r0, r0, r8, ror r6
     e00:	000006d4 	ldrdeq	r0, [r0], -r4
     e04:	d45c0001 	ldrble	r0, [ip], #-1
     e08:	00000006 	andeq	r0, r0, r6
     e0c:	04000007 	streq	r0, [r0], #-7
     e10:	7ed19100 	atnvcs	f1, f0
     e14:	0008a89f 	muleq	r8, pc, r8	; <UNPREDICTABLE>
     e18:	0008bc00 	andeq	fp, r8, r0, lsl #24
     e1c:	91000400 	tstls	r0, r0, lsl #8
     e20:	109f7ed1 			; <UNDEFINED> instruction: 0x109f7ed1
     e24:	14000009 	strne	r0, [r0], #-9
     e28:	04000009 	streq	r0, [r0], #-9
     e2c:	7ed19100 	atnvcs	f1, f0
     e30:	0009149f 	muleq	r9, pc, r4	; <UNPREDICTABLE>
     e34:	00092000 	andeq	r2, r9, r0
     e38:	5c000100 	stfpls	f0, [r0], {-0}
	...
     e44:	01000104 	tsteq	r0, r4, lsl #2
     e48:	06080000 	streq	r0, [r8], -r0
     e4c:	06d00000 	ldrbeq	r0, [r0], r0
     e50:	00010000 	andeq	r0, r1, r0
     e54:	0008a855 	andeq	sl, r8, r5, asr r8
     e58:	0008b800 	andeq	fp, r8, r0, lsl #16
     e5c:	55000100 	strpl	r0, [r0, #-256]	; 0xffffff00
     e60:	00000910 	andeq	r0, r0, r0, lsl r9
     e64:	00000920 	andeq	r0, r0, r0, lsr #18
     e68:	00550001 	subseq	r0, r5, r1
     e6c:	00000000 	andeq	r0, r0, r0
     e70:	04000000 	streq	r0, [r0], #-0
     e74:	00000000 	andeq	r0, r0, r0
     e78:	00000001 	andeq	r0, r0, r1
     e7c:	08000001 	stmdaeq	r0, {r0}
     e80:	b0000006 	andlt	r0, r0, r6
     e84:	04000006 	streq	r0, [r0], #-6
     e88:	7ed09100 	atnvcs	f1, f0
     e8c:	0006b09f 	muleq	r6, pc, r0	; <UNPREDICTABLE>
     e90:	0006c800 	andeq	ip, r6, r0, lsl #16
     e94:	50000100 	andpl	r0, r0, r0, lsl #2
     e98:	000006c8 	andeq	r0, r0, r8, asr #13
     e9c:	000006d0 	ldrdeq	r0, [r0], -r0	; <UNPREDICTABLE>
     ea0:	d0910004 	addsle	r0, r1, r4
     ea4:	08a89f7e 	stmiaeq	r8!, {r1, r2, r3, r4, r5, r6, r8, r9, sl, fp, ip, pc}
     ea8:	08b00000 	ldmeq	r0!, {}	; <UNPREDICTABLE>
     eac:	00040000 	andeq	r0, r4, r0
     eb0:	9f7ed091 	svcls	0x007ed091
     eb4:	000008b0 			; <UNDEFINED> instruction: 0x000008b0
     eb8:	000008b8 			; <UNDEFINED> instruction: 0x000008b8
     ebc:	10530001 	subsne	r0, r3, r1
     ec0:	20000009 	andcs	r0, r0, r9
     ec4:	04000009 	streq	r0, [r0], #-9
     ec8:	7ed09100 	atnvcs	f1, f0
     ecc:	0000009f 	muleq	r0, pc, r0	; <UNPREDICTABLE>
     ed0:	00000000 	andeq	r0, r0, r0
     ed4:	00000400 	andeq	r0, r0, r0, lsl #8
     ed8:	01010101 	tsteq	r1, r1, lsl #2
     edc:	00020303 	andeq	r0, r2, r3, lsl #6
     ee0:	00000001 	andeq	r0, r0, r1
     ee4:	00060800 	andeq	r0, r6, r0, lsl #16
     ee8:	00062400 	andeq	r2, r6, r0, lsl #8
     eec:	91000400 	tstls	r0, r0, lsl #8
     ef0:	849f7ed1 	ldrhi	r7, [pc], #3793	; ef8 <__code_start__-0x7108>
     ef4:	84000006 	strhi	r0, [r0], #-6
     ef8:	01000006 	tsteq	r0, r6
     efc:	06845000 	streq	r5, [r4], r0
     f00:	06980000 	ldreq	r0, [r8], r0
     f04:	00030000 	andeq	r0, r3, r0
     f08:	989f0170 	ldmls	pc, {r4, r5, r6, r8}	; <UNPREDICTABLE>
     f0c:	a4000006 	strge	r0, [r0], #-6
     f10:	03000006 	movweq	r0, #6
     f14:	9f027000 	svcls	0x00027000
     f18:	000006a4 	andeq	r0, r0, r4, lsr #13
     f1c:	000006a8 	andeq	r0, r0, r8, lsr #13
     f20:	03700003 	cmneq	r0, #3, 0
     f24:	0008a89f 	muleq	r8, pc, r8	; <UNPREDICTABLE>
     f28:	0008b800 	andeq	fp, r8, r0, lsl #16
     f2c:	91000400 	tstls	r0, r0, lsl #8
     f30:	109f7ed1 			; <UNDEFINED> instruction: 0x109f7ed1
     f34:	14000009 	strne	r0, [r0], #-9
     f38:	04000009 	streq	r0, [r0], #-9
     f3c:	7ed19100 	atnvcs	f1, f0
     f40:	0009149f 	muleq	r9, pc, r4	; <UNPREDICTABLE>
     f44:	00092000 	andeq	r2, r9, r0
     f48:	5c000100 	stfpls	f0, [r0], {-0}
	...
     f54:	01000006 	tsteq	r0, r6
     f58:	01010101 	tsteq	r1, r1, lsl #2
     f5c:	01000201 	tsteq	r0, r1, lsl #4
     f60:	06080000 	streq	r0, [r8], -r0
     f64:	06240000 	strteq	r0, [r4], -r0
     f68:	00020000 	andeq	r0, r2, r0
     f6c:	06849f31 			; <UNDEFINED> instruction: 0x06849f31
     f70:	06940000 	ldreq	r0, [r4], r0
     f74:	00010000 	andeq	r0, r1, r0
     f78:	00069452 	andeq	r9, r6, r2, asr r4
     f7c:	0006a400 	andeq	sl, r6, r0, lsl #8
     f80:	59000100 	stmdbpl	r0, {r8}
     f84:	000006a4 	andeq	r0, r0, r4, lsr #13
     f88:	000006a8 	andeq	r0, r0, r8, lsr #13
     f8c:	a8520001 	ldmdage	r2, {r0}^
     f90:	a8000006 	stmdage	r0, {r1, r2}
     f94:	03000006 	movweq	r0, #6
     f98:	9f017200 	svcls	0x00017200
     f9c:	000008a8 	andeq	r0, r0, r8, lsr #17
     fa0:	000008b8 			; <UNDEFINED> instruction: 0x000008b8
     fa4:	9f310002 	svcls	0x00310002
     fa8:	00000910 	andeq	r0, r0, r0, lsl r9
     fac:	00000920 	andeq	r0, r0, r0, lsr #18
     fb0:	9f310002 	svcls	0x00310002
	...
     fbc:	00060601 	andeq	r0, r6, r1, lsl #12
     fc0:	06d00001 	ldrbeq	r0, [r0], r1
     fc4:	06d00000 	ldrbeq	r0, [r0], r0
     fc8:	00040000 	andeq	r0, r4, r0
     fcc:	9f7ed091 	svcls	0x007ed091
     fd0:	000006d0 	ldrdeq	r0, [r0], -r0	; <UNPREDICTABLE>
     fd4:	00000700 	andeq	r0, r0, r0, lsl #14
     fd8:	b8500001 	ldmdalt	r0, {r0}^
     fdc:	bc000008 	stclt	0, cr0, [r0], {8}
     fe0:	01000008 	tsteq	r0, r8
     fe4:	00005300 	andeq	r5, r0, r0, lsl #6
     fe8:	00000000 	andeq	r0, r0, r0
     fec:	08010000 	stmdaeq	r1, {}	; <UNPREDICTABLE>
     ff0:	01000000 	mrseq	r0, (UNDEF: 0)
     ff4:	07010001 	streq	r0, [r1, -r1]
     ff8:	000006d0 	ldrdeq	r0, [r0], -r0	; <UNPREDICTABLE>
     ffc:	000006d0 	ldrdeq	r0, [r0], -r0	; <UNPREDICTABLE>
    1000:	007c0006 	rsbseq	r0, ip, r6
    1004:	9f220071 	svcls	0x00220071
    1008:	000006e4 	andeq	r0, r0, r4, ror #13
    100c:	000006e8 	andeq	r0, r0, r8, ror #13
    1010:	7f730003 	svcvc	0x00730003
    1014:	0006e89f 	muleq	r6, pc, r8	; <UNPREDICTABLE>
    1018:	0006f000 	andeq	pc, r6, r0
    101c:	53000100 	movwpl	r0, #256	; 0x100
    1020:	000006f0 	strdeq	r0, [r0], -r0	; <UNPREDICTABLE>
    1024:	000006f8 	strdeq	r0, [r0], -r8
    1028:	7f730003 	svcvc	0x00730003
    102c:	0008b89f 	muleq	r8, pc, r8	; <UNPREDICTABLE>
    1030:	0008b800 	andeq	fp, r8, r0, lsl #16
    1034:	91000400 	tstls	r0, r0, lsl #8
    1038:	009f7ed1 			; <UNDEFINED> instruction: 0x009f7ed1
    103c:	00000000 	andeq	r0, r0, r0
    1040:	01000000 	mrseq	r0, (UNDEF: 0)
    1044:	d0000100 	andle	r0, r0, r0, lsl #2
    1048:	00000006 	andeq	r0, r0, r6
    104c:	03000007 	movweq	r0, #7
    1050:	9f800800 	svcls	0x00800800
    1054:	000008b8 			; <UNDEFINED> instruction: 0x000008b8
    1058:	000008bc 			; <UNDEFINED> instruction: 0x000008bc
    105c:	80080003 	andhi	r0, r8, r3
    1060:	0000009f 	muleq	r0, pc, r0	; <UNPREDICTABLE>
    1064:	00000000 	andeq	r0, r0, r0
    1068:	00000100 	andeq	r0, r0, r0, lsl #2
    106c:	01010000 	mrseq	r0, (UNDEF: 1)
    1070:	02000000 	andeq	r0, r0, #0, 0
    1074:	d0000101 	andle	r0, r0, r1, lsl #2
    1078:	e0000006 	and	r0, r0, r6
    107c:	04000006 	streq	r0, [r0], #-6
    1080:	7dd09100 	ldfvcp	f1, [r0]
    1084:	0006e09f 	muleq	r6, pc, r0	; <UNPREDICTABLE>
    1088:	0006e400 	andeq	lr, r6, r0, lsl #8
    108c:	55000100 	strpl	r0, [r0, #-256]	; 0xffffff00
    1090:	000006e4 	andeq	r0, r0, r4, ror #13
    1094:	000006e4 	andeq	r0, r0, r4, ror #13
    1098:	01720003 	cmneq	r2, r3
    109c:	0006e49f 	muleq	r6, pc, r4	; <UNPREDICTABLE>
    10a0:	0006f000 	andeq	pc, r6, r0
    10a4:	72000300 	andvc	r0, r0, #0, 6
    10a8:	06f09f02 	ldrbteq	r9, [r0], r2, lsl #30
    10ac:	07000000 	streq	r0, [r0, -r0]
    10b0:	00030000 	andeq	r0, r3, r0
    10b4:	ec9f0172 	ldfs	f0, [pc], {114}	; 0x72
    10b8:	f4000007 	vst4.8	{d0-d3}, [r0], r7
    10bc:	03000007 	movweq	r0, #7
    10c0:	9f017300 	svcls	0x00017300
    10c4:	000008b8 			; <UNDEFINED> instruction: 0x000008b8
    10c8:	000008bc 			; <UNDEFINED> instruction: 0x000008bc
    10cc:	d0910004 	addsle	r0, r1, r4
    10d0:	00009f7d 	andeq	r9, r0, sp, ror pc
    10d4:	00000000 	andeq	r0, r0, r0
    10d8:	00040000 	andeq	r0, r4, r0
    10dc:	000008b8 			; <UNDEFINED> instruction: 0x000008b8
    10e0:	000008bc 			; <UNDEFINED> instruction: 0x000008bc
    10e4:	9f320002 	svcls	0x00320002
	...
    10f0:	00000007 	andeq	r0, r0, r7
    10f4:	06d00006 	ldrbeq	r0, [r0], r6
    10f8:	06e00000 	strbteq	r0, [r0], r0
    10fc:	00040000 	andeq	r0, r4, r0
    1100:	9f7dd091 	svcls	0x007dd091
    1104:	000006e0 	andeq	r0, r0, r0, ror #13
    1108:	00000700 	andeq	r0, r0, r0, lsl #14
    110c:	b8550001 	ldmdalt	r5, {r0}^
    1110:	bc000008 	stclt	0, cr0, [r0], {8}
    1114:	04000008 	streq	r0, [r0], #-8
    1118:	7dd09100 	ldfvcp	f1, [r0]
    111c:	0000009f 	muleq	r0, pc, r0	; <UNPREDICTABLE>
    1120:	00000000 	andeq	r0, r0, r0
    1124:	00000100 	andeq	r0, r0, r0, lsl #2
    1128:	00070c00 	andeq	r0, r7, r0, lsl #24
    112c:	0007ec00 	andeq	lr, r7, r0, lsl #24
    1130:	08000300 	stmdaeq	r0, {r8, r9}
    1134:	08949f80 	ldmeq	r4, {r7, r8, r9, sl, fp, ip, pc}
    1138:	08a80000 	stmiaeq	r8!, {}	; <UNPREDICTABLE>
    113c:	00030000 	andeq	r0, r3, r0
    1140:	009f8008 	addseq	r8, pc, r8
	...
    114c:	0c000000 	stceq	0, cr0, [r0], {-0}
    1150:	ec000007 	stc	0, cr0, [r0], {7}
    1154:	02000007 	andeq	r0, r0, #7, 0
    1158:	949f3000 	ldrls	r3, [pc], #0	; 1160 <__code_start__-0x6ea0>
    115c:	a8000008 	stmdage	r0, {r3}
    1160:	02000008 	andeq	r0, r0, #8, 0
    1164:	009f3000 	addseq	r3, pc, r0
	...
    1170:	0c000000 	stceq	0, cr0, [r0], {-0}
    1174:	d0000007 	andle	r0, r0, r7
    1178:	01000007 	tsteq	r0, r7
    117c:	08945500 	ldmeq	r4, {r8, sl, ip, lr}
    1180:	08a80000 	stmiaeq	r8!, {}	; <UNPREDICTABLE>
    1184:	00010000 	andeq	r0, r1, r0
    1188:	00000055 	andeq	r0, r0, r5, asr r0
	...
    1194:	0c000000 	stceq	0, cr0, [r0], {-0}
    1198:	d0000007 	andle	r0, r0, r7
    119c:	04000007 	streq	r0, [r0], #-7
    11a0:	7dd09100 	ldfvcp	f1, [r0]
    11a4:	0007d09f 	muleq	r7, pc, r0	; <UNPREDICTABLE>
    11a8:	0007ec00 	andeq	lr, r7, r0, lsl #24
    11ac:	55000100 	strpl	r0, [r0, #-256]	; 0xffffff00
    11b0:	00000894 	muleq	r0, r4, r8
    11b4:	000008a8 	andeq	r0, r0, r8, lsr #17
    11b8:	d0910004 	addsle	r0, r1, r4
    11bc:	00009f7d 	andeq	r9, r0, sp, ror pc
	...
    11c8:	070c0000 	streq	r0, [ip, -r0]
    11cc:	07ec0000 	strbeq	r0, [ip, r0]!
    11d0:	00020000 	andeq	r0, r2, r0
    11d4:	08949f32 	ldmeq	r4, {r1, r4, r5, r8, r9, sl, fp, ip, pc}
    11d8:	08a80000 	stmiaeq	r8!, {}	; <UNPREDICTABLE>
    11dc:	00020000 	andeq	r0, r2, r0
    11e0:	00009f32 	andeq	r9, r0, r2, lsr pc
    11e4:	00000000 	andeq	r0, r0, r0
    11e8:	05030000 	streq	r0, [r3, #-0]
    11ec:	00000005 	andeq	r0, r0, r5
    11f0:	00000000 	andeq	r0, r0, r0
    11f4:	0000070c 	andeq	r0, r0, ip, lsl #14
    11f8:	0000070c 	andeq	r0, r0, ip, lsl #14
    11fc:	0c510001 	mrrceq	0, 0, r0, r1, cr1
    1200:	1c000007 	stcne	0, cr0, [r0], {7}
    1204:	01000007 	tsteq	r0, r7
    1208:	071c5300 	ldreq	r5, [ip, -r0, lsl #6]
    120c:	07240000 	streq	r0, [r4, -r0]!
    1210:	00030000 	andeq	r0, r3, r0
    1214:	249f0172 	ldrcs	r0, [pc], #370	; 121c <__code_start__-0x6de4>
    1218:	cc000007 	stcgt	0, cr0, [r0], {7}
    121c:	01000007 	tsteq	r0, r7
    1220:	08945300 	ldmeq	r4, {r8, r9, ip, lr}
    1224:	08a80000 	stmiaeq	r8!, {}	; <UNPREDICTABLE>
    1228:	00010000 	andeq	r0, r1, r0
    122c:	00000053 	andeq	r0, r0, r3, asr r0
    1230:	00000000 	andeq	r0, r0, r0
    1234:	01000500 	tsteq	r0, r0, lsl #10
    1238:	00070c00 	andeq	r0, r7, r0, lsl #24
    123c:	00072000 	andeq	r2, r7, r0
    1240:	50000100 	andpl	r0, r0, r0, lsl #2
    1244:	00000724 	andeq	r0, r0, r4, lsr #14
    1248:	0000072c 	andeq	r0, r0, ip, lsr #14
    124c:	00500001 	subseq	r0, r0, r1
    1250:	00000000 	andeq	r0, r0, r0
    1254:	03000000 	movweq	r0, #0
    1258:	28010001 	stmdacs	r1, {r0}
    125c:	b0000007 	andlt	r0, r0, r7
    1260:	01000007 	tsteq	r0, r7
    1264:	08945500 	ldmeq	r4, {r8, sl, ip, lr}
    1268:	08a00000 	stmiaeq	r0!, {}	; <UNPREDICTABLE>
    126c:	00010000 	andeq	r0, r1, r0
    1270:	00000055 	andeq	r0, r0, r5, asr r0
    1274:	00000000 	andeq	r0, r0, r0
    1278:	00010300 	andeq	r0, r1, r0, lsl #6
    127c:	00072801 	andeq	r2, r7, r1, lsl #16
    1280:	0007b000 	andeq	fp, r7, r0
    1284:	51000100 	mrspl	r0, (UNDEF: 16)
    1288:	00000894 	muleq	r0, r4, r8
    128c:	000008a0 	andeq	r0, r0, r0, lsr #17
    1290:	00510001 	subseq	r0, r1, r1
    1294:	00000000 	andeq	r0, r0, r0
    1298:	03000000 	movweq	r0, #0
    129c:	01010000 	mrseq	r0, (UNDEF: 1)
    12a0:	03030101 	movweq	r0, #12545	; 0x3101
    12a4:	28010002 	stmdacs	r1, {r1}
    12a8:	50000007 	andpl	r0, r0, r7
    12ac:	01000007 	tsteq	r0, r7
    12b0:	07745300 	ldrbeq	r5, [r4, -r0, lsl #6]!
    12b4:	07740000 	ldrbeq	r0, [r4, -r0]!
    12b8:	00010000 	andeq	r0, r1, r0
    12bc:	0007745e 	andeq	r7, r7, lr, asr r4
    12c0:	00078800 	andeq	r8, r7, r0, lsl #16
    12c4:	7e000300 	cdpvc	3, 0, cr0, cr0, cr0, {0}
    12c8:	07889f01 	streq	r9, [r8, r1, lsl #30]
    12cc:	07940000 	ldreq	r0, [r4, r0]
    12d0:	00030000 	andeq	r0, r3, r0
    12d4:	949f027e 	ldrls	r0, [pc], #638	; 12dc <__code_start__-0x6d24>
    12d8:	98000007 	stmdals	r0, {r0, r1, r2}
    12dc:	03000007 	movweq	r0, #7
    12e0:	9f037e00 	svcls	0x00037e00
    12e4:	00000894 	muleq	r0, r4, r8
    12e8:	000008a0 	andeq	r0, r0, r0, lsr #17
    12ec:	00530001 	subseq	r0, r3, r1
	...
    12f8:	01010000 	mrseq	r0, (UNDEF: 1)
    12fc:	01010101 	tsteq	r1, r1, lsl #2
    1300:	2c010002 	stccs	0, cr0, [r1], {2}
    1304:	50000007 	andpl	r0, r0, r7
    1308:	01000007 	tsteq	r0, r7
    130c:	07745000 	ldrbeq	r5, [r4, -r0]!
    1310:	07840000 	streq	r0, [r4, r0]
    1314:	00010000 	andeq	r0, r1, r0
    1318:	00078450 	andeq	r8, r7, r0, asr r4
    131c:	00079400 	andeq	r9, r7, r0, lsl #8
    1320:	5b000100 	blpl	1728 <__code_start__-0x68d8>
    1324:	00000794 	muleq	r0, r4, r7
    1328:	00000798 	muleq	r0, r8, r7
    132c:	98500001 	ldmdals	r0, {r0}^
    1330:	98000007 	stmdals	r0, {r0, r1, r2}
    1334:	03000007 	movweq	r0, #7
    1338:	9f017000 	svcls	0x00017000
    133c:	00000894 	muleq	r0, r4, r8
    1340:	000008a0 	andeq	r0, r0, r0, lsr #17
    1344:	00500001 	subseq	r0, r0, r1
    1348:	00000000 	andeq	r0, r0, r0
    134c:	01000000 	mrseq	r0, (UNDEF: 0)
    1350:	b0000100 	andlt	r0, r0, r0, lsl #2
    1354:	ec000007 	stc	0, cr0, [r0], {7}
    1358:	01000007 	tsteq	r0, r7
    135c:	08a05100 	stmiaeq	r0!, {r8, ip, lr}
    1360:	08a80000 	stmiaeq	r8!, {}	; <UNPREDICTABLE>
    1364:	00010000 	andeq	r0, r1, r0
    1368:	00000051 	andeq	r0, r0, r1, asr r0
    136c:	00000000 	andeq	r0, r0, r0
    1370:	00000100 	andeq	r0, r0, r0, lsl #2
    1374:	01010000 	mrseq	r0, (UNDEF: 1)
    1378:	b0000100 	andlt	r0, r0, r0, lsl #2
    137c:	b4000007 	strlt	r0, [r0], #-7
    1380:	06000007 	streq	r0, [r0], -r7
    1384:	7c007300 	stcvc	3, cr7, [r0], {-0}
    1388:	d49f2200 	ldrle	r2, [pc], #512	; 1390 <__code_start__-0x6c70>
    138c:	d8000007 	stmdale	r0, {r0, r1, r2}
    1390:	03000007 	movweq	r0, #7
    1394:	9f7f7300 	svcls	0x007f7300
    1398:	000007d8 	ldrdeq	r0, [r0], -r8
    139c:	000007e0 	andeq	r0, r0, r0, ror #15
    13a0:	e0530001 	subs	r0, r3, r1
    13a4:	e8000007 	stmda	r0, {r0, r1, r2}
    13a8:	03000007 	movweq	r0, #7
    13ac:	9f7f7300 	svcls	0x007f7300
    13b0:	000008a0 	andeq	r0, r0, r0, lsr #17
    13b4:	000008a8 	andeq	r0, r0, r8, lsr #17
    13b8:	00530001 	subseq	r0, r3, r1
    13bc:	00000000 	andeq	r0, r0, r0
    13c0:	01000000 	mrseq	r0, (UNDEF: 0)
    13c4:	b0000100 	andlt	r0, r0, r0, lsl #2
    13c8:	ec000007 	stc	0, cr0, [r0], {7}
    13cc:	03000007 	movweq	r0, #7
    13d0:	9f800800 	svcls	0x00800800
    13d4:	000008a0 	andeq	r0, r0, r0, lsr #17
    13d8:	000008a8 	andeq	r0, r0, r8, lsr #17
    13dc:	80080003 	andhi	r0, r8, r3
    13e0:	0000009f 	muleq	r0, pc, r0	; <UNPREDICTABLE>
    13e4:	00000000 	andeq	r0, r0, r0
    13e8:	00000100 	andeq	r0, r0, r0, lsl #2
    13ec:	01010000 	mrseq	r0, (UNDEF: 1)
    13f0:	01000000 	mrseq	r0, (UNDEF: 0)
    13f4:	0007b000 	andeq	fp, r7, r0
    13f8:	0007d000 	andeq	sp, r7, r0
    13fc:	91000400 	tstls	r0, r0, lsl #8
    1400:	d09f7dd0 			; <UNDEFINED> instruction: 0xd09f7dd0
    1404:	d4000007 	strle	r0, [r0], #-7
    1408:	01000007 	tsteq	r0, r7
    140c:	07d45500 	ldrbeq	r5, [r4, r0, lsl #10]
    1410:	07d40000 	ldrbeq	r0, [r4, r0]
    1414:	00030000 	andeq	r0, r3, r0
    1418:	d49f017c 	ldrle	r0, [pc], #380	; 1420 <__code_start__-0x6be0>
    141c:	e0000007 	and	r0, r0, r7
    1420:	03000007 	movweq	r0, #7
    1424:	9f027c00 	svcls	0x00027c00
    1428:	000007e0 	andeq	r0, r0, r0, ror #15
    142c:	000007ec 	andeq	r0, r0, ip, ror #15
    1430:	017c0003 	cmneq	ip, r3
    1434:	0008a09f 	muleq	r8, pc, r0	; <UNPREDICTABLE>
    1438:	0008a800 	andeq	sl, r8, r0, lsl #16
    143c:	91000400 	tstls	r0, r0, lsl #8
    1440:	009f7dd0 			; <UNDEFINED> instruction: 0x009f7dd0
    1444:	00000000 	andeq	r0, r0, r0
    1448:	04000000 	streq	r0, [r0], #-0
    144c:	b0000400 	andlt	r0, r0, r0, lsl #8
    1450:	b4000007 	strlt	r0, [r0], #-7
    1454:	03000007 	movweq	r0, #7
    1458:	9f017000 	svcls	0x00017000
    145c:	000008a0 	andeq	r0, r0, r0, lsr #17
    1460:	000008a8 	andeq	r0, r0, r8, lsr #17
    1464:	01700003 	cmneq	r0, r3
    1468:	0000009f 	muleq	r0, pc, r0	; <UNPREDICTABLE>
    146c:	00000000 	andeq	r0, r0, r0
    1470:	00000100 	andeq	r0, r0, r0, lsl #2
    1474:	0007bc00 	andeq	fp, r7, r0, lsl #24
    1478:	0007d000 	andeq	sp, r7, r0
    147c:	91000400 	tstls	r0, r0, lsl #8
    1480:	d09f7dd0 			; <UNDEFINED> instruction: 0xd09f7dd0
    1484:	ec000007 	stc	0, cr0, [r0], {7}
    1488:	01000007 	tsteq	r0, r7
    148c:	00005500 	andeq	r5, r0, r0, lsl #10
	...
    1498:	03280000 			; <UNDEFINED> instruction: 0x03280000
    149c:	03640000 	cmneq	r4, #0, 0
    14a0:	00010000 	andeq	r0, r1, r0
    14a4:	00036450 	andeq	r6, r3, r0, asr r4
    14a8:	00038800 	andeq	r8, r3, r0, lsl #16
    14ac:	f3000400 	vshl.u8	d0, d0, d0
    14b0:	009f5001 	addseq	r5, pc, r1
	...
    14bc:	28000000 	stmdacs	r0, {}	; <UNPREDICTABLE>
    14c0:	5c000003 	stcpl	0, cr0, [r0], {3}
    14c4:	01000003 	tsteq	r0, r3
    14c8:	035c5100 	cmpeq	ip, #0
    14cc:	03880000 	orreq	r0, r8, #0, 0
    14d0:	00040000 	andeq	r0, r4, r0
    14d4:	9f5101f3 	svcls	0x005101f3
	...
    14fc:	00000014 	andeq	r0, r0, r4, lsl r0
    1500:	14500001 	ldrbne	r0, [r0], #-1
    1504:	20000000 	andcs	r0, r0, r0
    1508:	01000000 	mrseq	r0, (UNDEF: 0)
    150c:	00205c00 	eoreq	r5, r0, r0, lsl #24
    1510:	00680000 	rsbeq	r0, r8, r0
    1514:	00030000 	andeq	r0, r3, r0
    1518:	689f0271 	ldmvs	pc, {r0, r4, r5, r6, r9}	; <UNPREDICTABLE>
    151c:	6c000000 	stcvs	0, cr0, [r0], {-0}
    1520:	03000000 	movweq	r0, #0
    1524:	9f027300 	svcls	0x00027300
    1528:	0000006c 	andeq	r0, r0, ip, rrx
    152c:	00000194 	muleq	r0, r4, r1
    1530:	01f30004 	mvnseq	r0, r4
    1534:	01949f50 	orrseq	r9, r4, r0, asr pc
    1538:	01980000 	orrseq	r0, r8, r0
    153c:	00030000 	andeq	r0, r3, r0
    1540:	989f0273 	ldmls	pc, {r0, r1, r4, r5, r6, r9}	; <UNPREDICTABLE>
    1544:	c0000001 	andgt	r0, r0, r1
    1548:	04000001 	streq	r0, [r0], #-1
    154c:	5001f300 	andpl	pc, r1, r0, lsl #6
    1550:	0001c09f 	muleq	r1, pc, r0	; <UNPREDICTABLE>
    1554:	0001c800 	andeq	ip, r1, r0, lsl #16
    1558:	5c000100 	stfpls	f0, [r0], {-0}
    155c:	000001c8 	andeq	r0, r0, r8, asr #3
    1560:	00000214 	andeq	r0, r0, r4, lsl r2
    1564:	02730003 	rsbseq	r0, r3, #3, 0
    1568:	0002149f 	muleq	r2, pc, r4	; <UNPREDICTABLE>
    156c:	0002ec00 	andeq	lr, r2, r0, lsl #24
    1570:	f3000400 	vshl.u8	d0, d0, d0
    1574:	ec9f5001 	ldc	0, cr5, [pc], {1}
    1578:	f4000002 	vst4.8	{d0-d3}, [r0], r2
    157c:	03000002 	movweq	r0, #2
    1580:	9f027300 	svcls	0x00027300
    1584:	000002f4 	strdeq	r0, [r0], -r4
    1588:	00000328 	andeq	r0, r0, r8, lsr #6
    158c:	01f30004 	mvnseq	r0, r4
    1590:	00009f50 	andeq	r9, r0, r0, asr pc
	...
    15a4:	001c0000 	andseq	r0, ip, r0
    15a8:	00010000 	andeq	r0, r1, r0
    15ac:	00001c51 	andeq	r1, r0, r1, asr ip
    15b0:	0002e000 	andeq	lr, r2, r0
    15b4:	50000100 	andpl	r0, r0, r0, lsl #2
    15b8:	000002e0 	andeq	r0, r0, r0, ror #5
    15bc:	000002ec 	andeq	r0, r0, ip, ror #5
    15c0:	01f30004 	mvnseq	r0, r4
    15c4:	02ec9f51 	rsceq	r9, ip, #324	; 0x144
    15c8:	03280000 			; <UNDEFINED> instruction: 0x03280000
    15cc:	00010000 	andeq	r0, r1, r0
    15d0:	00000050 	andeq	r0, r0, r0, asr r0
	...
    15dc:	00010000 	andeq	r0, r1, r0
    15e0:	00000000 	andeq	r0, r0, r0
    15e4:	02020000 	andeq	r0, r2, #0, 0
	...
    15fc:	00007000 	andeq	r7, r0, r0
    1600:	52000100 	andpl	r0, r0, #0
    1604:	00000070 	andeq	r0, r0, r0, ror r0
    1608:	00000078 	andeq	r0, r0, r8, ror r0
    160c:	785c0001 	ldmdavc	ip, {r0}^
    1610:	a4000000 	strge	r0, [r0], #-0
    1614:	04000000 	streq	r0, [r0], #-0
    1618:	5201f300 	andpl	pc, r1, #0, 6
    161c:	0001949f 	muleq	r1, pc, r4	; <UNPREDICTABLE>
    1620:	00019c00 	andeq	r9, r1, r0, lsl #24
    1624:	52000100 	andpl	r0, r0, #0
    1628:	0000019c 	muleq	r0, ip, r1
    162c:	000001a4 	andeq	r0, r0, r4, lsr #3
    1630:	a45c0001 	ldrbge	r0, [ip], #-1
    1634:	c0000001 	andgt	r0, r0, r1
    1638:	04000001 	streq	r0, [r0], #-1
    163c:	5201f300 	andpl	pc, r1, #0, 6
    1640:	0001c09f 	muleq	r1, pc, r0	; <UNPREDICTABLE>
    1644:	00022000 	andeq	r2, r2, r0
    1648:	52000100 	andpl	r0, r0, #0
    164c:	00000220 	andeq	r0, r0, r0, lsr #4
    1650:	00000228 	andeq	r0, r0, r8, lsr #4
    1654:	00720004 	rsbseq	r0, r2, r4
    1658:	02289f1f 	eoreq	r9, r8, #124	; 0x7c
    165c:	02740000 	rsbseq	r0, r4, #0, 0
    1660:	00050000 	andeq	r0, r5, r0
    1664:	1f5201f3 	svcne	0x005201f3
    1668:	0002749f 	muleq	r2, pc, r4	; <UNPREDICTABLE>
    166c:	00028800 	andeq	r8, r2, r0, lsl #16
    1670:	52000100 	andpl	r0, r0, #0
    1674:	00000288 	andeq	r0, r0, r8, lsl #5
    1678:	000002a0 	andeq	r0, r0, r0, lsr #5
    167c:	cc5c0001 	mrrcgt	0, 0, r0, ip, cr1
    1680:	d0000002 	andle	r0, r0, r2
    1684:	01000002 	tsteq	r0, r2
    1688:	02d05200 	sbcseq	r5, r0, #0, 4
    168c:	02e70000 	rsceq	r0, r7, #0, 0
    1690:	00010000 	andeq	r0, r1, r0
    1694:	0002e75c 	andeq	lr, r2, ip, asr r7
    1698:	0002ec00 	andeq	lr, r2, r0, lsl #24
    169c:	f3000400 	vshl.u8	d0, d0, d0
    16a0:	ec9f5201 	lfm	f5, 4, [pc], {1}
    16a4:	00000002 	andeq	r0, r0, r2
    16a8:	01000003 	tsteq	r0, r3
    16ac:	03005200 	movweq	r5, #512	; 0x200
    16b0:	03280000 			; <UNDEFINED> instruction: 0x03280000
    16b4:	00010000 	andeq	r0, r1, r0
    16b8:	0000005c 	andeq	r0, r0, ip, asr r0
	...
    16d0:	68000000 	stmdavs	r0, {}	; <UNPREDICTABLE>
    16d4:	01000000 	mrseq	r0, (UNDEF: 0)
    16d8:	00685300 	rsbeq	r5, r8, r0, lsl #6
    16dc:	006c0000 	rsbeq	r0, ip, r0
    16e0:	00030000 	andeq	r0, r3, r0
    16e4:	949f7f08 	ldrls	r7, [pc], #3848	; 16ec <__code_start__-0x6914>
    16e8:	98000001 	stmdals	r0, {r0}
    16ec:	03000001 	movweq	r0, #1
    16f0:	9f7f0800 	svcls	0x007f0800
    16f4:	000001c0 	andeq	r0, r0, r0, asr #3
    16f8:	00000214 	andeq	r0, r0, r4, lsl r2
    16fc:	7f080003 	svcvc	0x00080003
    1700:	0002749f 	muleq	r2, pc, r4	; <UNPREDICTABLE>
    1704:	00029000 	andeq	r9, r2, r0
    1708:	53000100 	movwpl	r0, #256	; 0x100
    170c:	00000290 	muleq	r0, r0, r2
    1710:	000002a0 	andeq	r0, r0, r0, lsr #5
    1714:	01f30004 	mvnseq	r0, r4
    1718:	02ec9f53 	rsceq	r9, ip, #332	; 0x14c
    171c:	03280000 			; <UNDEFINED> instruction: 0x03280000
    1720:	00030000 	andeq	r0, r3, r0
    1724:	009f7f08 	addseq	r7, pc, r8, lsl #30
    1728:	00000000 	andeq	r0, r0, r0
    172c:	01000000 	mrseq	r0, (UNDEF: 0)
    1730:	00000000 	andeq	r0, r0, r0
    1734:	00000202 	andeq	r0, r0, r2, lsl #4
    1738:	00000101 	andeq	r0, r0, r1, lsl #2
    173c:	00000000 	andeq	r0, r0, r0
    1740:	02020000 	andeq	r0, r2, #0, 0
    1744:	01000000 	mrseq	r0, (UNDEF: 0)
	...
    1750:	00000101 	andeq	r0, r0, r1, lsl #2
    1754:	02020000 	andeq	r0, r2, #0, 0
    1758:	00000000 	andeq	r0, r0, r0
    175c:	01010000 	mrseq	r0, (UNDEF: 1)
    1760:	18000000 	stmdane	r0, {}	; <UNPREDICTABLE>
    1764:	70000000 	andvc	r0, r0, r0
    1768:	04000000 	streq	r0, [r0], #-0
    176c:	7fa09100 	svcvc	0x00a09100
    1770:	0000709f 	muleq	r0, pc, r0	; <UNPREDICTABLE>
    1774:	00007800 	andeq	r7, r0, r0, lsl #16
    1778:	52000100 	andpl	r0, r0, #0
    177c:	00000078 	andeq	r0, r0, r8, ror r0
    1780:	00000078 	andeq	r0, r0, r8, ror r0
    1784:	78540001 	ldmdavc	r4, {r0}^
    1788:	88000000 	stmdahi	r0, {}	; <UNPREDICTABLE>
    178c:	03000000 	movweq	r0, #0
    1790:	9f017400 	svcls	0x00017400
    1794:	00000088 	andeq	r0, r0, r8, lsl #1
    1798:	00000090 	muleq	r0, r0, r0
    179c:	90540001 	subsls	r0, r4, r1
    17a0:	a0000000 	andge	r0, r0, r0
    17a4:	03000000 	movweq	r0, #0
    17a8:	9f027400 	svcls	0x00027400
    17ac:	000000a0 	andeq	r0, r0, r0, lsr #1
    17b0:	000000b0 	strheq	r0, [r0], -r0	; <UNPREDICTABLE>
    17b4:	945e0001 	ldrbls	r0, [lr], #-1
    17b8:	9c000001 	stcls	0, cr0, [r0], {1}
    17bc:	04000001 	streq	r0, [r0], #-1
    17c0:	7fa09100 	svcvc	0x00a09100
    17c4:	00019c9f 	muleq	r1, pc, ip	; <UNPREDICTABLE>
    17c8:	0001a400 	andeq	sl, r1, r0, lsl #8
    17cc:	52000100 	andpl	r0, r0, #0
    17d0:	000001a4 	andeq	r0, r0, r4, lsr #3
    17d4:	000001a4 	andeq	r0, r0, r4, lsr #3
    17d8:	a45e0001 	ldrbge	r0, [lr], #-1
    17dc:	b4000001 	strlt	r0, [r0], #-1
    17e0:	03000001 	movweq	r0, #1
    17e4:	9f017e00 	svcls	0x00017e00
    17e8:	000001b4 			; <UNDEFINED> instruction: 0x000001b4
    17ec:	000001c0 	andeq	r0, r0, r0, asr #3
    17f0:	c05e0001 	subsgt	r0, lr, r1
    17f4:	28000001 	stmdacs	r0, {r0}
    17f8:	04000002 	streq	r0, [r0], #-2
    17fc:	7fa09100 	svcvc	0x00a09100
    1800:	0002289f 	muleq	r2, pc, r8	; <UNPREDICTABLE>
    1804:	00023400 	andeq	r3, r2, r0, lsl #8
    1808:	52000100 	andpl	r0, r0, #0
    180c:	00000234 	andeq	r0, r0, r4, lsr r2
    1810:	00000258 	andeq	r0, r0, r8, asr r2
    1814:	585e0001 	ldmdapl	lr, {r0}^
    1818:	5c000002 	stcpl	0, cr0, [r0], {2}
    181c:	03000002 	movweq	r0, #2
    1820:	9f017e00 	svcls	0x00017e00
    1824:	0000025c 	andeq	r0, r0, ip, asr r2
    1828:	00000264 	andeq	r0, r0, r4, ror #4
    182c:	645e0001 	ldrbvs	r0, [lr], #-1
    1830:	70000002 	andvc	r0, r0, r2
    1834:	03000002 	movweq	r0, #2
    1838:	9f027100 	svcls	0x00027100
    183c:	00000270 	andeq	r0, r0, r0, ror r2
    1840:	00000274 	andeq	r0, r0, r4, ror r2
    1844:	745e0001 	ldrbvc	r0, [lr], #-1
    1848:	74000002 	strvc	r0, [r0], #-2
    184c:	04000002 	streq	r0, [r0], #-2
    1850:	7fa09100 	svcvc	0x00a09100
    1854:	0002749f 	muleq	r2, pc, r4	; <UNPREDICTABLE>
    1858:	0002a000 	andeq	sl, r2, r0
    185c:	91000400 	tstls	r0, r0, lsl #8
    1860:	c09f7fa1 	addsgt	r7, pc, r1, lsr #31
    1864:	c8000002 	stmdagt	r0, {r1}
    1868:	01000002 	tsteq	r0, r2
    186c:	02c85e00 	sbceq	r5, r8, #0, 28
    1870:	02cc0000 	sbceq	r0, ip, #0, 0
    1874:	00010000 	andeq	r0, r1, r0
    1878:	0002cc56 	andeq	ip, r2, r6, asr ip
    187c:	0002ec00 	andeq	lr, r2, r0, lsl #24
    1880:	91000400 	tstls	r0, r0, lsl #8
    1884:	ec9f7fa0 	ldc	15, cr7, [pc], {160}	; 0xa0
    1888:	fc000002 	stc2	0, cr0, [r0], {2}
    188c:	04000002 	streq	r0, [r0], #-2
    1890:	7fa19100 	svcvc	0x00a19100
    1894:	0002fc9f 	muleq	r2, pc, ip	; <UNPREDICTABLE>
    1898:	00032800 	andeq	r2, r3, r0, lsl #16
    189c:	5e000100 	adfpls	f0, f0, f0
	...
    18b4:	01000000 	mrseq	r0, (UNDEF: 0)
    18b8:	00000001 	andeq	r0, r0, r1
	...
    18c8:	00200000 	eoreq	r0, r0, r0
    18cc:	00700000 	rsbseq	r0, r0, r0
    18d0:	00010000 	andeq	r0, r1, r0
    18d4:	00007052 	andeq	r7, r0, r2, asr r0
    18d8:	00009400 	andeq	r9, r0, r0, lsl #8
    18dc:	5c000100 	stfpls	f0, [r0], {-0}
    18e0:	00000194 	muleq	r0, r4, r1
    18e4:	0000019c 	muleq	r0, ip, r1
    18e8:	9c520001 	mrrcls	0, 0, r0, r2, cr1
    18ec:	c0000001 	andgt	r0, r0, r1
    18f0:	01000001 	tsteq	r0, r1
    18f4:	01c85c00 	biceq	r5, r8, r0, lsl #24
    18f8:	02100000 	andseq	r0, r0, #0, 0
    18fc:	00010000 	andeq	r0, r1, r0
    1900:	0002105c 	andeq	r1, r2, ip, asr r0
    1904:	00022400 	andeq	r2, r2, r0, lsl #8
    1908:	52000100 	andpl	r0, r0, #0
    190c:	00000224 	andeq	r0, r0, r4, lsr #4
    1910:	00000248 	andeq	r0, r0, r8, asr #4
    1914:	485c0001 	ldmdami	ip, {r0}^
    1918:	5c000002 	stcpl	0, cr0, [r0], {2}
    191c:	01000002 	tsteq	r0, r2
    1920:	025c5500 	subseq	r5, ip, #0, 10
    1924:	02680000 	rsbeq	r0, r8, #0, 0
    1928:	00010000 	andeq	r0, r1, r0
    192c:	0002685c 	andeq	r6, r2, ip, asr r8
    1930:	00027400 	andeq	r7, r2, r0, lsl #8
    1934:	75001900 	strvc	r1, [r0, #-2304]	; 0xfffff700
    1938:	f72cf700 			; <UNDEFINED> instruction: 0xf72cf700
    193c:	f7007625 			; <UNDEFINED> instruction: 0xf7007625
    1940:	1e25f72c 	cdpne	7, 2, cr15, cr5, cr12, {1}
    1944:	25f72008 	ldrbcs	r2, [r7, #8]!
    1948:	f72cf725 			; <UNDEFINED> instruction: 0xf72cf725
    194c:	9f253300 	svcls	0x00253300
    1950:	00000274 	andeq	r0, r0, r4, ror r2
    1954:	00000288 	andeq	r0, r0, r8, lsl #5
    1958:	88520001 	ldmdahi	r2, {r0}^
    195c:	a0000002 	andge	r0, r0, r2
    1960:	01000002 	tsteq	r0, r2
    1964:	02cc5c00 	sbceq	r5, ip, #0, 24
    1968:	02d00000 	sbcseq	r0, r0, #0, 0
    196c:	00010000 	andeq	r0, r1, r0
    1970:	0002d052 	andeq	sp, r2, r2, asr r0
    1974:	0002e700 	andeq	lr, r2, r0, lsl #14
    1978:	5c000100 	stfpls	f0, [r0], {-0}
    197c:	000002e7 	andeq	r0, r0, r7, ror #5
    1980:	000002ec 	andeq	r0, r0, ip, ror #5
    1984:	01f30004 	mvnseq	r0, r4
    1988:	02ec9f52 	rsceq	r9, ip, #328	; 0x148
    198c:	03000000 	movweq	r0, #0
    1990:	00010000 	andeq	r0, r1, r0
    1994:	00030052 	andeq	r0, r3, r2, asr r0
    1998:	00032800 	andeq	r2, r3, r0, lsl #16
    199c:	5c000100 	stfpls	f0, [r0], {-0}
	...
    19a8:	00040004 	andeq	r0, r4, r4
    19ac:	00000100 	andeq	r0, r0, r0, lsl #2
    19b0:	00a40004 	adceq	r0, r4, r4
    19b4:	00b00000 	adcseq	r0, r0, r0
    19b8:	00010000 	andeq	r0, r1, r0
    19bc:	00027c53 	andeq	r7, r2, r3, asr ip
    19c0:	00029000 	andeq	r9, r2, r0
    19c4:	53000100 	movwpl	r0, #256	; 0x100
    19c8:	00000290 	muleq	r0, r0, r2
    19cc:	0000029c 	muleq	r0, ip, r2
    19d0:	01f30004 	mvnseq	r0, r4
    19d4:	02c09f53 	sbceq	r9, r0, #332	; 0x14c
    19d8:	02cc0000 	sbceq	r0, ip, #0, 0
    19dc:	00010000 	andeq	r0, r1, r0
    19e0:	0002f053 	andeq	pc, r2, r3, asr r0	; <UNPREDICTABLE>
    19e4:	00032800 	andeq	r2, r3, r0, lsl #16
    19e8:	08000300 	stmdaeq	r0, {r8, r9}
    19ec:	00009f7f 	andeq	r9, r0, pc, ror pc
    19f0:	00000000 	andeq	r0, r0, r0
    19f4:	00040000 	andeq	r0, r4, r0
    19f8:	00040100 	andeq	r0, r4, r0, lsl #2
    19fc:	00000100 	andeq	r0, r0, r0, lsl #2
    1a00:	00040000 	andeq	r0, r4, r0
    1a04:	00a40000 	adceq	r0, r4, r0
    1a08:	00b00000 	adcseq	r0, r0, r0
    1a0c:	00010000 	andeq	r0, r1, r0
    1a10:	0000b052 	andeq	fp, r0, r2, asr r0
    1a14:	00015c00 	andeq	r5, r1, r0, lsl #24
    1a18:	91000400 	tstls	r0, r0, lsl #8
    1a1c:	7c9f7fa0 	ldcvc	15, cr7, [pc], {160}	; 0xa0
    1a20:	94000002 	strls	r0, [r0], #-2
    1a24:	04000002 	streq	r0, [r0], #-2
    1a28:	7fa09100 	svcvc	0x00a09100
    1a2c:	0002949f 	muleq	r2, pc, r4	; <UNPREDICTABLE>
    1a30:	00029c00 	andeq	r9, r2, r0, lsl #24
    1a34:	5e000100 	adfpls	f0, f0, f0
    1a38:	000002b4 			; <UNDEFINED> instruction: 0x000002b4
    1a3c:	000002c0 	andeq	r0, r0, r0, asr #5
    1a40:	a0910004 	addsge	r0, r1, r4
    1a44:	02c09f7f 	sbceq	r9, r0, #508	; 0x1fc
    1a48:	02cc0000 	sbceq	r0, ip, #0, 0
    1a4c:	00010000 	andeq	r0, r1, r0
    1a50:	0002f052 	andeq	pc, r2, r2, asr r0	; <UNPREDICTABLE>
    1a54:	00030000 	andeq	r0, r3, r0
    1a58:	91000400 	tstls	r0, r0, lsl #8
    1a5c:	009f7fa0 	addseq	r7, pc, r0, lsr #31
    1a60:	28000003 	stmdacs	r0, {r0, r1}
    1a64:	01000003 	tsteq	r0, r3
    1a68:	00005200 	andeq	r5, r0, r0, lsl #4
    1a6c:	00000000 	andeq	r0, r0, r0
    1a70:	00040000 	andeq	r0, r4, r0
    1a74:	01010100 	mrseq	r0, (UNDEF: 17)
    1a78:	02030301 	andeq	r0, r3, #67108864	; 0x4000000
    1a7c:	00000104 	andeq	r0, r0, r4, lsl #2
    1a80:	00040000 	andeq	r0, r4, r0
    1a84:	00a40000 	adceq	r0, r4, r0
    1a88:	00b00000 	adcseq	r0, r0, r0
    1a8c:	00010000 	andeq	r0, r1, r0
    1a90:	00010c5e 	andeq	r0, r1, lr, asr ip
    1a94:	00010c00 	andeq	r0, r1, r0, lsl #24
    1a98:	55000100 	strpl	r0, [r0, #-256]	; 0xffffff00
    1a9c:	0000010c 	andeq	r0, r0, ip, lsl #2
    1aa0:	00000120 	andeq	r0, r0, r0, lsr #2
    1aa4:	01750003 	cmneq	r5, r3
    1aa8:	0001209f 	muleq	r1, pc, r0	; <UNPREDICTABLE>
    1aac:	00012c00 	andeq	r2, r1, r0, lsl #24
    1ab0:	75000300 	strvc	r0, [r0, #-768]	; 0xfffffd00
    1ab4:	012c9f02 			; <UNDEFINED> instruction: 0x012c9f02
    1ab8:	01300000 	teqeq	r0, r0
    1abc:	00030000 	andeq	r0, r3, r0
    1ac0:	7c9f0375 	ldcvc	3, cr0, [pc], {117}	; 0x75
    1ac4:	9c000002 	stcls	0, cr0, [r0], {2}
    1ac8:	04000002 	streq	r0, [r0], #-2
    1acc:	7fa19100 	svcvc	0x00a19100
    1ad0:	0002c09f 	muleq	r2, pc, r0	; <UNPREDICTABLE>
    1ad4:	0002c800 	andeq	ip, r2, r0, lsl #16
    1ad8:	5e000100 	adfpls	f0, f0, f0
    1adc:	000002c8 	andeq	r0, r0, r8, asr #5
    1ae0:	000002cc 	andeq	r0, r0, ip, asr #5
    1ae4:	f0560001 			; <UNDEFINED> instruction: 0xf0560001
    1ae8:	fc000002 	stc2	0, cr0, [r0], {2}
    1aec:	04000002 	streq	r0, [r0], #-2
    1af0:	7fa19100 	svcvc	0x00a19100
    1af4:	0002fc9f 	muleq	r2, pc, ip	; <UNPREDICTABLE>
    1af8:	00032800 	andeq	r2, r3, r0, lsl #16
    1afc:	5e000100 	adfpls	f0, f0, f0
	...
    1b08:	01000000 	mrseq	r0, (UNDEF: 0)
    1b0c:	01010101 	tsteq	r1, r1, lsl #2
    1b10:	01060201 	tsteq	r6, r1, lsl #4
    1b14:	00060000 	andeq	r0, r6, r0
    1b18:	000000a8 	andeq	r0, r0, r8, lsr #1
    1b1c:	000000b0 	strheq	r0, [r0], -r0	; <UNPREDICTABLE>
    1b20:	0c510001 	mrrceq	0, 0, r0, r1, cr1
    1b24:	1c000001 	stcne	0, cr0, [r0], {1}
    1b28:	01000001 	tsteq	r0, r1
    1b2c:	011c5c00 	tsteq	ip, r0, lsl #24
    1b30:	012c0000 			; <UNDEFINED> instruction: 0x012c0000
    1b34:	00010000 	andeq	r0, r1, r0
    1b38:	00012c58 	andeq	r2, r1, r8, asr ip
    1b3c:	00013000 	andeq	r3, r1, r0
    1b40:	5c000100 	stfpls	f0, [r0], {-0}
    1b44:	00000130 	andeq	r0, r0, r0, lsr r1
    1b48:	00000130 	andeq	r0, r0, r0, lsr r1
    1b4c:	017c0003 	cmneq	ip, r3
    1b50:	00027c9f 	muleq	r2, pc, ip	; <UNPREDICTABLE>
    1b54:	00029c00 	andeq	r9, r2, r0, lsl #24
    1b58:	31000200 	mrscc	r0, R8_usr
    1b5c:	0002c09f 	muleq	r2, pc, r0	; <UNPREDICTABLE>
    1b60:	0002cc00 	andeq	ip, r2, r0, lsl #24
    1b64:	51000100 	mrspl	r0, (UNDEF: 16)
    1b68:	000002f0 	strdeq	r0, [r0], -r0	; <UNPREDICTABLE>
    1b6c:	00000328 	andeq	r0, r0, r8, lsr #6
    1b70:	9f310002 	svcls	0x00310002
	...
    1b7c:	01060601 	tsteq	r6, r1, lsl #12
    1b80:	01000001 	tsteq	r0, r1
    1b84:	0000015c 	andeq	r0, r0, ip, asr r1
    1b88:	0000015c 	andeq	r0, r0, ip, asr r1
    1b8c:	a0910004 	addsge	r0, r1, r4
    1b90:	015c9f7f 	cmpeq	ip, pc, ror pc
    1b94:	018c0000 	orreq	r0, ip, r0
    1b98:	00010000 	andeq	r0, r1, r0
    1b9c:	00029c52 	andeq	r9, r2, r2, asr ip
    1ba0:	0002a000 	andeq	sl, r2, r0
    1ba4:	5e000100 	adfpls	f0, f0, f0
    1ba8:	000002a0 	andeq	r0, r0, r0, lsr #5
    1bac:	000002ac 	andeq	r0, r0, ip, lsr #5
    1bb0:	00520001 	subseq	r0, r2, r1
	...
    1bbc:	01010000 	mrseq	r0, (UNDEF: 1)
    1bc0:	6c070100 	stfvss	f0, [r7], {-0}
    1bc4:	70000001 	andvc	r0, r0, r1
    1bc8:	03000001 	movweq	r0, #1
    1bcc:	9f7f7300 	svcls	0x007f7300
    1bd0:	00000170 	andeq	r0, r0, r0, ror r1
    1bd4:	00000178 	andeq	r0, r0, r8, ror r1
    1bd8:	78530001 	ldmdavc	r3, {r0}^
    1bdc:	84000001 	strhi	r0, [r0], #-1
    1be0:	03000001 	movweq	r0, #1
    1be4:	9f7f7300 	svcls	0x007f7300
    1be8:	0000029c 	muleq	r0, ip, r2
    1bec:	0000029c 	muleq	r0, ip, r2
    1bf0:	a1910004 	orrsge	r0, r1, r4
    1bf4:	00009f7f 	andeq	r9, r0, pc, ror pc
    1bf8:	00000000 	andeq	r0, r0, r0
    1bfc:	01010000 	mrseq	r0, (UNDEF: 1)
    1c00:	015c0101 	cmpeq	ip, r1, lsl #2
    1c04:	018c0000 	orreq	r0, ip, r0
    1c08:	00030000 	andeq	r0, r3, r0
    1c0c:	9c9f8008 	ldcls	0, cr8, [pc], {8}
    1c10:	ac000002 	stcge	0, cr0, [r0], {2}
    1c14:	03000002 	movweq	r0, #2
    1c18:	9f800800 	svcls	0x00800800
	...
    1c24:	01000001 	tsteq	r0, r1
    1c28:	01000001 	tsteq	r0, r1
    1c2c:	01010101 	tsteq	r1, r1, lsl #2
    1c30:	015c0101 	cmpeq	ip, r1, lsl #2
    1c34:	016c0000 	cmneq	ip, r0
    1c38:	00010000 	andeq	r0, r1, r0
    1c3c:	00016c50 	andeq	r6, r1, r0, asr ip
    1c40:	00016c00 	andeq	r6, r1, r0, lsl #24
    1c44:	7c000300 	stcvc	3, cr0, [r0], {-0}
    1c48:	016c9f01 	cmneq	ip, r1, lsl #30
    1c4c:	01780000 	cmneq	r8, r0
    1c50:	00030000 	andeq	r0, r3, r0
    1c54:	789f027c 	ldmvc	pc, {r2, r3, r4, r5, r6, r9}	; <UNPREDICTABLE>
    1c58:	88000001 	stmdahi	r0, {r0}
    1c5c:	03000001 	movweq	r0, #1
    1c60:	9f017c00 	svcls	0x00017c00
    1c64:	00000188 	andeq	r0, r0, r8, lsl #3
    1c68:	0000018c 	andeq	r0, r0, ip, lsl #3
    1c6c:	017e0003 	cmneq	lr, r3
    1c70:	00029c9f 	muleq	r2, pc, ip	; <UNPREDICTABLE>
    1c74:	0002a400 	andeq	sl, r2, r0, lsl #8
    1c78:	50000100 	andpl	r0, r0, r0, lsl #2
    1c7c:	000002a4 	andeq	r0, r0, r4, lsr #5
    1c80:	000002ac 	andeq	r0, r0, ip, lsr #5
    1c84:	017e0003 	cmneq	lr, r3
    1c88:	0000009f 	muleq	r0, pc, r0	; <UNPREDICTABLE>
    1c8c:	00000000 	andeq	r0, r0, r0
    1c90:	04000400 	streq	r0, [r0], #-1024	; 0xfffffc00
    1c94:	5c010000 	stcpl	0, cr0, [r1], {-0}
    1c98:	60000001 	andvs	r0, r0, r1
    1c9c:	03000001 	movweq	r0, #1
    1ca0:	9f017100 	svcls	0x00017100
    1ca4:	0000029c 	muleq	r0, ip, r2
    1ca8:	000002a0 	andeq	r0, r0, r0, lsr #5
    1cac:	9f320002 	svcls	0x00320002
    1cb0:	000002a0 	andeq	r0, r0, r0, lsr #5
    1cb4:	000002ac 	andeq	r0, r0, ip, lsr #5
    1cb8:	01710003 	cmneq	r1, r3
    1cbc:	0000009f 	muleq	r0, pc, r0	; <UNPREDICTABLE>
    1cc0:	00000000 	andeq	r0, r0, r0
    1cc4:	06000700 	streq	r0, [r0], -r0, lsl #14
    1cc8:	00015c00 	andeq	r5, r1, r0, lsl #24
    1ccc:	00019400 	andeq	r9, r1, r0, lsl #8
    1cd0:	50000100 	andpl	r0, r0, r0, lsl #2
    1cd4:	0000029c 	muleq	r0, ip, r2
    1cd8:	000002b4 			; <UNDEFINED> instruction: 0x000002b4
    1cdc:	00500001 	subseq	r0, r0, r1
    1ce0:	00000000 	andeq	r0, r0, r0
    1ce4:	01000000 	mrseq	r0, (UNDEF: 0)
    1ce8:	14000101 	strne	r0, [r0], #-257	; 0xfffffeff
    1cec:	20000002 	andcs	r0, r0, r2
    1cf0:	02000002 	andeq	r0, r0, #2, 0
    1cf4:	209f3000 	addscs	r3, pc, r0
    1cf8:	34000002 	strcc	r0, [r0], #-2
    1cfc:	02000002 	andeq	r0, r0, #2, 0
    1d00:	009f3100 	addseq	r3, pc, r0, lsl #2
	...
    1d0c:	00000101 	andeq	r0, r0, r1, lsl #2
    1d10:	00000101 	andeq	r0, r0, r1, lsl #2
    1d14:	00000101 	andeq	r0, r0, r1, lsl #2
    1d18:	00000101 	andeq	r0, r0, r1, lsl #2
    1d1c:	00000101 	andeq	r0, r0, r1, lsl #2
    1d20:	80010202 	andhi	r0, r1, r2, lsl #4
    1d24:	80000000 	andhi	r0, r0, r0
    1d28:	01000000 	mrseq	r0, (UNDEF: 0)
    1d2c:	00805300 	addeq	r5, r0, r0, lsl #6
    1d30:	008c0000 	addeq	r0, ip, r0
    1d34:	00030000 	andeq	r0, r3, r0
    1d38:	8c9f0473 	cfldrshi	mvf0, [pc], {115}	; 0x73
    1d3c:	94000000 	strls	r0, [r0], #-0
    1d40:	01000000 	mrseq	r0, (UNDEF: 0)
    1d44:	00945100 	addseq	r5, r4, r0, lsl #2
    1d48:	00980000 	addseq	r0, r8, r0
    1d4c:	00030000 	andeq	r0, r3, r0
    1d50:	989f0873 	ldmls	pc, {r0, r1, r4, r5, r6, fp}	; <UNPREDICTABLE>
    1d54:	a4000000 	strge	r0, [r0], #-0
    1d58:	01000000 	mrseq	r0, (UNDEF: 0)
    1d5c:	00a45100 	adceq	r5, r4, r0, lsl #2
    1d60:	00a80000 	adceq	r0, r8, r0
    1d64:	00030000 	andeq	r0, r3, r0
    1d68:	a89f0c73 	ldmge	pc, {r0, r1, r4, r5, r6, sl, fp}	; <UNPREDICTABLE>
    1d6c:	b4000000 	strlt	r0, [r0], #-0
    1d70:	01000000 	mrseq	r0, (UNDEF: 0)
    1d74:	00b45100 	adcseq	r5, r4, r0, lsl #2
    1d78:	00b80000 	adcseq	r0, r8, r0
    1d7c:	00030000 	andeq	r0, r3, r0
    1d80:	b89f1073 	ldmlt	pc, {r0, r1, r4, r5, r6, ip}	; <UNPREDICTABLE>
    1d84:	c4000000 	strgt	r0, [r0], #-0
    1d88:	01000000 	mrseq	r0, (UNDEF: 0)
    1d8c:	00c45100 	sbceq	r5, r4, r0, lsl #2
    1d90:	00c80000 	sbceq	r0, r8, r0
    1d94:	00030000 	andeq	r0, r3, r0
    1d98:	c89f1473 	ldmgt	pc, {r0, r1, r4, r5, r6, sl, ip}	; <UNPREDICTABLE>
    1d9c:	d0000000 	andle	r0, r0, r0
    1da0:	01000000 	mrseq	r0, (UNDEF: 0)
    1da4:	00d05100 	sbcseq	r5, r0, r0, lsl #2
    1da8:	00d40000 	sbcseq	r0, r4, r0
    1dac:	00030000 	andeq	r0, r3, r0
    1db0:	009f0471 	addseq	r0, pc, r1, ror r4	; <UNPREDICTABLE>
    1db4:	00000000 	andeq	r0, r0, r0
    1db8:	02000000 	andeq	r0, r0, #0, 0
    1dbc:	0000d800 	andeq	sp, r0, r0, lsl #16
    1dc0:	0000e800 	andeq	lr, r0, r0, lsl #16
    1dc4:	31000200 	mrscc	r0, R8_usr
    1dc8:	0000009f 	muleq	r0, pc, r0	; <UNPREDICTABLE>
    1dcc:	00000000 	andeq	r0, r0, r0
    1dd0:	00000400 	andeq	r0, r0, r0, lsl #8
    1dd4:	00931001 	addseq	r1, r3, r1
    1dd8:	00931800 	addseq	r1, r3, r0, lsl #16
    1ddc:	30000200 	andcc	r0, r0, r0, lsl #4
    1de0:	0093189f 	umullseq	r1, r3, pc, r8	; <UNPREDICTABLE>
    1de4:	00931800 	addseq	r1, r3, r0, lsl #16
    1de8:	53000100 	movwpl	r0, #256	; 0x100
	...
    1df4:	00000003 	andeq	r0, r0, r3
    1df8:	00000000 	andeq	r0, r0, r0
    1dfc:	00009324 	andeq	r9, r0, r4, lsr #6
    1e00:	00009328 	andeq	r9, r0, r8, lsr #6
    1e04:	9f300002 	svcls	0x00300002
    1e08:	00009328 	andeq	r9, r0, r8, lsr #6
    1e0c:	0000932c 	andeq	r9, r0, ip, lsr #6
    1e10:	2c530001 	mrrccs	0, 0, r0, r3, cr1
    1e14:	30000093 	mulcc	r0, r3, r0
    1e18:	05000093 	streq	r0, [r0, #-147]	; 0xffffff6d
    1e1c:	40007300 	andmi	r7, r0, r0, lsl #6
    1e20:	93309f21 	teqls	r0, #132	; 0x84
    1e24:	93340000 	teqls	r4, #0, 0
    1e28:	00010000 	andeq	r0, r1, r0
    1e2c:	00000053 	andeq	r0, r0, r3, asr r0
    1e30:	00000000 	andeq	r0, r0, r0
    1e34:	00000200 	andeq	r0, r0, r0, lsl #4
    1e38:	0092e400 	addseq	lr, r2, r0, lsl #8
    1e3c:	0092e800 	addseq	lr, r2, r0, lsl #16
    1e40:	30000200 	andcc	r0, r0, r0, lsl #4
    1e44:	0092e89f 	umullseq	lr, r2, pc, r8	; <UNPREDICTABLE>
    1e48:	0092ec00 	addseq	lr, r2, r0, lsl #24
    1e4c:	50000100 	andpl	r0, r0, r0, lsl #2
	...
    1e58:	00000002 	andeq	r0, r0, r2
    1e5c:	00000000 	andeq	r0, r0, r0
    1e60:	000092fc 	strdeq	r9, [r0], -ip
    1e64:	00009300 	andeq	r9, r0, r0, lsl #6
    1e68:	9f300002 	svcls	0x00300002
    1e6c:	00009300 	andeq	r9, r0, r0, lsl #6
    1e70:	00009304 	andeq	r9, r0, r4, lsl #6
    1e74:	04530001 	ldrbeq	r0, [r3], #-1
    1e78:	08000093 	stmdaeq	r0, {r0, r1, r4, r7}
    1e7c:	05000093 	streq	r0, [r0, #-147]	; 0xffffff6d
    1e80:	40007300 	andmi	r7, r0, r0, lsl #6
    1e84:	93089f21 	movwls	r9, #36641	; 0x8f21
    1e88:	93100000 	tstls	r0, #0, 0
    1e8c:	00010000 	andeq	r0, r1, r0
    1e90:	00000053 	andeq	r0, r0, r3, asr r0
	...
    1e9c:	0000c800 	andeq	ip, r0, r0, lsl #16
    1ea0:	0000d800 	andeq	sp, r0, r0, lsl #16
    1ea4:	50000100 	andpl	r0, r0, r0, lsl #2
    1ea8:	000000d8 	ldrdeq	r0, [r0], -r8
    1eac:	0000011c 	andeq	r0, r0, ip, lsl r1
    1eb0:	01f30004 	mvnseq	r0, r4
    1eb4:	00009f50 	andeq	r9, r0, r0, asr pc
    1eb8:	00000000 	andeq	r0, r0, r0
    1ebc:	00020000 	andeq	r0, r2, r0
    1ec0:	00c80000 	sbceq	r0, r8, r0
    1ec4:	00d80000 	sbcseq	r0, r8, r0
    1ec8:	00070000 	andeq	r0, r7, r0
    1ecc:	e80a0070 	stmda	sl, {r4, r5, r6}
    1ed0:	d89f1e03 	ldmle	pc, {r0, r1, r9, sl, fp, ip}	; <UNPREDICTABLE>
    1ed4:	1c000000 	stcne	0, cr0, [r0], {-0}
    1ed8:	08000001 	stmdaeq	r0, {r0}
    1edc:	5001f300 	andpl	pc, r1, r0, lsl #6
    1ee0:	1e03e80a 	cdpne	8, 0, cr14, cr3, cr10, {0}
    1ee4:	0000009f 	muleq	r0, pc, r0	; <UNPREDICTABLE>
    1ee8:	00000000 	andeq	r0, r0, r0
    1eec:	dc000000 	stcle	0, cr0, [r0], {-0}
    1ef0:	1c000000 	stcne	0, cr0, [r0], {-0}
    1ef4:	01000001 	tsteq	r0, r1
    1ef8:	00005400 	andeq	r5, r0, r0, lsl #8
    1efc:	00000000 	andeq	r0, r0, r0
    1f00:	00010000 	andeq	r0, r1, r0
    1f04:	000000f0 	strdeq	r0, [r0], -r0	; <UNPREDICTABLE>
    1f08:	0000011c 	andeq	r0, r0, ip, lsl r1
    1f0c:	00560001 	subseq	r0, r6, r1
	...
    1f18:	ec000000 	stc	0, cr0, [r0], {-0}
    1f1c:	ef000000 	svc	0x00000000
    1f20:	01000000 	mrseq	r0, (UNDEF: 0)
    1f24:	00ef5000 	rsceq	r5, pc, r0
    1f28:	011c0000 	tsteq	ip, r0
    1f2c:	00010000 	andeq	r0, r1, r0
    1f30:	00000056 	andeq	r0, r0, r6, asr r0
    1f34:	00000000 	andeq	r0, r0, r0
    1f38:	04000000 	streq	r0, [r0], #-0
    1f3c:	0b000001 	bleq	1f48 <__code_start__-0x60b8>
    1f40:	01000001 	tsteq	r0, r1
    1f44:	00005000 	andeq	r5, r0, r0
	...
    1f50:	00200000 	eoreq	r0, r0, r0
    1f54:	00230000 	eoreq	r0, r3, r0
    1f58:	00010000 	andeq	r0, r1, r0
    1f5c:	00002350 	andeq	r2, r0, r0, asr r3
    1f60:	00003000 	andeq	r3, r0, r0
    1f64:	54000100 	strpl	r0, [r0], #-256	; 0xffffff00
	...
    1f74:	00000030 	andeq	r0, r0, r0, lsr r0
    1f78:	0000003b 	andeq	r0, r0, fp, lsr r0
    1f7c:	3b500001 	blcc	1401f88 <__bss_end__+0x13f78b8>
    1f80:	78000000 	stmdavc	r0, {}	; <UNPREDICTABLE>
    1f84:	01000000 	mrseq	r0, (UNDEF: 0)
    1f88:	00005600 	andeq	r5, r0, r0, lsl #12
    1f8c:	00000000 	andeq	r0, r0, r0
    1f90:	00010000 	andeq	r0, r1, r0
    1f94:	0000004c 	andeq	r0, r0, ip, asr #32
    1f98:	00000078 	andeq	r0, r0, r8, ror r0
    1f9c:	00550001 	subseq	r0, r5, r1
	...
    1fa8:	48000000 	stmdami	r0, {}	; <UNPREDICTABLE>
    1fac:	4b000000 	blmi	1fb4 <__code_start__-0x604c>
    1fb0:	01000000 	mrseq	r0, (UNDEF: 0)
    1fb4:	004b5000 	subeq	r5, fp, r0
    1fb8:	00780000 	rsbseq	r0, r8, r0
    1fbc:	00010000 	andeq	r0, r1, r0
    1fc0:	00000055 	andeq	r0, r0, r5, asr r0
    1fc4:	00000000 	andeq	r0, r0, r0
    1fc8:	60000000 	andvs	r0, r0, r0
    1fcc:	67000000 	strvs	r0, [r0, -r0]
    1fd0:	01000000 	mrseq	r0, (UNDEF: 0)
    1fd4:	00005000 	andeq	r5, r0, r0
	...
    1fe0:	00780000 	rsbseq	r0, r8, r0
    1fe4:	00840000 	addeq	r0, r4, r0
    1fe8:	00010000 	andeq	r0, r1, r0
    1fec:	00008450 	andeq	r8, r0, r0, asr r4
    1ff0:	0000c800 	andeq	ip, r0, r0, lsl #16
    1ff4:	f3000400 	vshl.u8	d0, d0, d0
    1ff8:	009f5001 	addseq	r5, pc, r1
	...
    2004:	00008800 	andeq	r8, r0, r0, lsl #16
    2008:	0000c800 	andeq	ip, r0, r0, lsl #16
    200c:	54000100 	strpl	r0, [r0], #-256	; 0xffffff00
	...
    2018:	009c0001 	addseq	r0, ip, r1
    201c:	00c80000 	sbceq	r0, r8, r0
    2020:	00010000 	andeq	r0, r1, r0
    2024:	00000056 	andeq	r0, r0, r6, asr r0
	...
    2030:	00009800 	andeq	r9, r0, r0, lsl #16
    2034:	00009b00 	andeq	r9, r0, r0, lsl #22
    2038:	50000100 	andpl	r0, r0, r0, lsl #2
    203c:	0000009b 	muleq	r0, fp, r0
    2040:	000000c8 	andeq	r0, r0, r8, asr #1
    2044:	00560001 	subseq	r0, r6, r1
	...
    2050:	0000b000 	andeq	fp, r0, r0
    2054:	0000b700 	andeq	fp, r0, r0, lsl #14
    2058:	50000100 	andpl	r0, r0, r0, lsl #2
	...
    2068:	00000158 	andeq	r0, r0, r8, asr r1
    206c:	00000163 	andeq	r0, r0, r3, ror #2
    2070:	63500001 	cmpvs	r0, #1, 0
    2074:	88000001 	stmdahi	r0, {r0}
    2078:	01000001 	tsteq	r0, r1
    207c:	00005400 	andeq	r5, r0, r0, lsl #8
	...
    2088:	00000148 	andeq	r0, r0, r8, asr #2
    208c:	00000158 	andeq	r0, r0, r8, asr r1
    2090:	00540001 	subseq	r0, r4, r1
	...
    20a0:	0f000000 	svceq	0x00000000
    20a4:	01000000 	mrseq	r0, (UNDEF: 0)
    20a8:	000f5000 	andeq	r5, pc, r0
    20ac:	00200000 	eoreq	r0, r0, r0
    20b0:	00010000 	andeq	r0, r1, r0
    20b4:	00000054 	andeq	r0, r0, r4, asr r0
	...
    20c4:	00000f00 	andeq	r0, r0, r0, lsl #30
    20c8:	51000100 	mrspl	r0, (UNDEF: 16)
    20cc:	0000000f 	andeq	r0, r0, pc
    20d0:	00000020 	andeq	r0, r0, r0, lsr #32
    20d4:	00550001 	subseq	r0, r5, r1
	...
    20e0:	20000000 	andcs	r0, r0, r0
    20e4:	2f000000 	svccs	0x00000000
    20e8:	01000000 	mrseq	r0, (UNDEF: 0)
    20ec:	002f5000 	eoreq	r5, pc, r0
    20f0:	00400000 	subeq	r0, r0, r0
    20f4:	00010000 	andeq	r0, r1, r0
    20f8:	00000054 	andeq	r0, r0, r4, asr r0
	...
    2104:	00002000 	andeq	r2, r0, r0
    2108:	00002f00 	andeq	r2, r0, r0, lsl #30
    210c:	51000100 	mrspl	r0, (UNDEF: 16)
    2110:	0000002f 	andeq	r0, r0, pc, lsr #32
    2114:	00000040 	andeq	r0, r0, r0, asr #32
    2118:	00550001 	subseq	r0, r5, r1
	...
    2128:	00035000 	andeq	r5, r3, r0
    212c:	00039800 	andeq	r9, r3, r0, lsl #16
    2130:	50000100 	andpl	r0, r0, r0, lsl #2
    2134:	00000398 	muleq	r0, r8, r3
    2138:	0000039b 	muleq	r0, fp, r3
    213c:	68910002 	ldmvs	r1, {r1}
    2140:	0000039b 	muleq	r0, fp, r3
    2144:	000003b0 			; <UNDEFINED> instruction: 0x000003b0
    2148:	01f30004 	mvnseq	r0, r4
    214c:	00009f50 	andeq	r9, r0, r0, asr pc
	...
    2168:	02200000 	eoreq	r0, r0, #0, 0
    216c:	027b0000 	rsbseq	r0, fp, #0, 0
    2170:	00010000 	andeq	r0, r1, r0
    2174:	00027b50 	andeq	r7, r2, r0, asr fp
    2178:	00028400 	andeq	r8, r2, r0, lsl #8
    217c:	f3000400 	vshl.u8	d0, d0, d0
    2180:	849f5001 	ldrhi	r5, [pc], #1	; 2188 <__code_start__-0x5e78>
    2184:	9c000002 	stcls	0, cr0, [r0], {2}
    2188:	01000002 	tsteq	r0, r2
    218c:	029c5000 	addseq	r5, ip, #0, 0
    2190:	02a40000 	adceq	r0, r4, #0, 0
    2194:	00040000 	andeq	r0, r4, r0
    2198:	9f5001f3 	svcls	0x005001f3
    219c:	000002a4 	andeq	r0, r0, r4, lsr #5
    21a0:	000002a7 	andeq	r0, r0, r7, lsr #5
    21a4:	a7500001 	ldrbge	r0, [r0, -r1]
    21a8:	c8000002 	stmdagt	r0, {r1}
    21ac:	04000002 	streq	r0, [r0], #-2
    21b0:	5001f300 	andpl	pc, r1, r0, lsl #6
    21b4:	0002c89f 	muleq	r2, pc, r8	; <UNPREDICTABLE>
    21b8:	0002e000 	andeq	lr, r2, r0
    21bc:	50000100 	andpl	r0, r0, r0, lsl #2
    21c0:	000002e0 	andeq	r0, r0, r0, ror #5
    21c4:	000002e8 	andeq	r0, r0, r8, ror #5
    21c8:	01f30004 	mvnseq	r0, r4
    21cc:	02e89f50 	rsceq	r9, r8, #80, 30	; 0x140
    21d0:	02eb0000 	rsceq	r0, fp, #0, 0
    21d4:	00010000 	andeq	r0, r1, r0
    21d8:	0002eb50 	andeq	lr, r2, r0, asr fp
    21dc:	00033800 	andeq	r3, r3, r0, lsl #16
    21e0:	f3000400 	vshl.u8	d0, d0, d0
    21e4:	009f5001 	addseq	r5, pc, r1
	...
    2200:	20000000 	andcs	r0, r0, r0
    2204:	44000002 	strmi	r0, [r0], #-2
    2208:	01000002 	tsteq	r0, r2
    220c:	02445100 	subeq	r5, r4, #0
    2210:	02680000 	rsbeq	r0, r8, #0, 0
    2214:	00010000 	andeq	r0, r1, r0
    2218:	00026851 	andeq	r6, r2, r1, asr r8
    221c:	00027b00 	andeq	r7, r2, r0, lsl #22
    2220:	71000300 	mrsvc	r0, LR_irq
    2224:	027b9f01 	rsbseq	r9, fp, #1, 30
    2228:	02840000 	addeq	r0, r4, #0, 0
    222c:	00170000 	andseq	r0, r7, r0
    2230:	5101f338 	tstpl	r1, r8, lsr r3	; <UNPREDICTABLE>
    2234:	405101f3 	ldrshmi	r0, [r1], #-19	; 0xffffffed
    2238:	0c22244b 	cfstrseq	mvf2, [r2], #-300	; 0xfffffed4
    223c:	80000008 	andhi	r0, r0, r8
    2240:	0001282d 	andeq	r2, r1, sp, lsr #16
    2244:	849f1316 	ldrhi	r1, [pc], #790	; 224c <__code_start__-0x5db4>
    2248:	98000002 	stmdals	r0, {r1}
    224c:	01000002 	tsteq	r0, r2
    2250:	02985100 	addseq	r5, r8, #0
    2254:	02a40000 	adceq	r0, r4, #0, 0
    2258:	00040000 	andeq	r0, r4, r0
    225c:	9f5101f3 	svcls	0x005101f3
    2260:	000002a4 	andeq	r0, r0, r4, lsr #5
    2264:	000002a7 	andeq	r0, r0, r7, lsr #5
    2268:	a7510001 	ldrbge	r0, [r1, -r1]
    226c:	c8000002 	stmdagt	r0, {r1}
    2270:	04000002 	streq	r0, [r0], #-2
    2274:	5101f300 	mrspl	pc, SP_irq	; <UNPREDICTABLE>
    2278:	0002c89f 	muleq	r2, pc, r8	; <UNPREDICTABLE>
    227c:	0002dc00 	andeq	sp, r2, r0, lsl #24
    2280:	51000100 	mrspl	r0, (UNDEF: 16)
    2284:	000002dc 	ldrdeq	r0, [r0], -ip
    2288:	00000338 	andeq	r0, r0, r8, lsr r3
    228c:	f3380017 	vqadd.u64	d0, d8, d7
    2290:	01f35101 	mvnseq	r5, r1, lsl #2
    2294:	244b4051 	strbcs	r4, [fp], #-81	; 0xffffffaf
    2298:	00080c22 	andeq	r0, r8, r2, lsr #24
    229c:	282d8000 	stmdacs	sp!, {pc}
    22a0:	13160001 	tstne	r6, #1, 0
    22a4:	0000009f 	muleq	r0, pc, r0	; <UNPREDICTABLE>
	...
    22b8:	00024c00 	andeq	r4, r2, r0, lsl #24
    22bc:	00025c00 	andeq	r5, r2, r0, lsl #24
    22c0:	52000100 	andpl	r0, r0, #0
    22c4:	0000025c 	andeq	r0, r0, ip, asr r2
    22c8:	00000264 	andeq	r0, r0, r4, ror #4
    22cc:	94030005 	strls	r0, [r3], #-5
    22d0:	640000a2 	strvs	r0, [r0], #-162	; 0xffffff5e
    22d4:	7b000002 	blvc	22e4 <__code_start__-0x5d1c>
    22d8:	01000002 	tsteq	r0, r2
    22dc:	02c85300 	sbceq	r5, r8, #0, 6
    22e0:	02d80000 	sbcseq	r0, r8, #0, 0
    22e4:	00010000 	andeq	r0, r1, r0
    22e8:	0002d852 	andeq	sp, r2, r2, asr r8
    22ec:	0002e300 	andeq	lr, r2, r0, lsl #6
    22f0:	03000500 	movweq	r0, #1280	; 0x500
    22f4:	0000a294 	muleq	r0, r4, r2
    22f8:	000002e8 	andeq	r0, r0, r8, ror #5
    22fc:	000002eb 	andeq	r0, r0, fp, ror #5
    2300:	00530001 	subseq	r0, r3, r1
    2304:	00000000 	andeq	r0, r0, r0
    2308:	04000000 	streq	r0, [r0], #-0
    230c:	00023000 	andeq	r3, r2, r0
    2310:	00023400 	andeq	r3, r2, r0, lsl #8
    2314:	51000100 	mrspl	r0, (UNDEF: 16)
	...
    2320:	023c0002 	eorseq	r0, ip, #2, 0
    2324:	02440000 	subeq	r0, r4, #0, 0
    2328:	00020000 	andeq	r0, r2, r0
    232c:	00009f38 	andeq	r9, r0, r8, lsr pc
    2330:	00000000 	andeq	r0, r0, r0
    2334:	00020000 	andeq	r0, r2, r0
    2338:	0000023c 	andeq	r0, r0, ip, lsr r2
    233c:	00000244 	andeq	r0, r0, r4, asr #4
    2340:	00510001 	subseq	r0, r1, r1
    2344:	00000000 	andeq	r0, r0, r0
    2348:	01000000 	mrseq	r0, (UNDEF: 0)
    234c:	00000000 	andeq	r0, r0, r0
    2350:	00024c00 	andeq	r4, r2, r0, lsl #24
    2354:	00026400 	andeq	r6, r2, r0, lsl #8
    2358:	51000100 	mrspl	r0, (UNDEF: 16)
    235c:	000002c8 	andeq	r0, r0, r8, asr #5
    2360:	000002dc 	ldrdeq	r0, [r0], -ip
    2364:	dc510001 	mrrcle	0, 0, r0, r1, cr1
    2368:	e8000002 	stmda	r0, {r1}
    236c:	17000002 	strne	r0, [r0, -r2]
    2370:	01f33800 	mvnseq	r3, r0, lsl #16
    2374:	5101f351 	tstpl	r1, r1, asr r3	; <UNPREDICTABLE>
    2378:	22244b40 	eorcs	r4, r4, #64, 22	; 0x10000
    237c:	0000080c 	andeq	r0, r0, ip, lsl #16
    2380:	01282d80 	smlawbeq	r8, r0, sp, r2
    2384:	9f131600 	svcls	0x00131600
	...
    2390:	00000001 	andeq	r0, r0, r1
    2394:	00000000 	andeq	r0, r0, r0
    2398:	0000024c 	andeq	r0, r0, ip, asr #4
    239c:	0000025c 	andeq	r0, r0, ip, asr r2
    23a0:	5c520001 	mrrcpl	0, 0, r0, r2, cr1
    23a4:	64000002 	strvs	r0, [r0], #-2
    23a8:	05000002 	streq	r0, [r0, #-2]
    23ac:	a2940300 	addsge	r0, r4, #0, 6
    23b0:	02c80000 	sbceq	r0, r8, #0, 0
    23b4:	02d80000 	sbcseq	r0, r8, #0, 0
    23b8:	00010000 	andeq	r0, r1, r0
    23bc:	0002d852 	andeq	sp, r2, r2, asr r8
    23c0:	0002e300 	andeq	lr, r2, r0, lsl #6
    23c4:	03000500 	movweq	r0, #1280	; 0x500
    23c8:	0000a294 	muleq	r0, r4, r2
	...
    23d4:	024c0004 	subeq	r0, ip, #4, 0
    23d8:	02500000 	subseq	r0, r0, #0, 0
    23dc:	00010000 	andeq	r0, r1, r0
    23e0:	00000051 	andeq	r0, r0, r1, asr r0
    23e4:	00000000 	andeq	r0, r0, r0
    23e8:	64000300 	strvs	r0, [r0], #-768	; 0xfffffd00
    23ec:	68000002 	stmdavs	r0, {r1}
    23f0:	01000002 	tsteq	r0, r2
    23f4:	00005100 	andeq	r5, r0, r0, lsl #2
    23f8:	00000000 	andeq	r0, r0, r0
    23fc:	00030000 	andeq	r0, r3, r0
    2400:	00000264 	andeq	r0, r0, r4, ror #4
    2404:	00000268 	andeq	r0, r0, r8, ror #4
    2408:	00530001 	subseq	r0, r3, r1
	...
    2418:	bc000000 	stclt	0, cr0, [r0], {-0}
    241c:	d3000001 	movwle	r0, #1
    2420:	01000001 	tsteq	r0, r1
    2424:	01d35000 	bicseq	r5, r3, r0
    2428:	01f00000 	mvnseq	r0, r0
    242c:	00010000 	andeq	r0, r1, r0
    2430:	0001f054 	andeq	pc, r1, r4, asr r0	; <UNPREDICTABLE>
    2434:	00020800 	andeq	r0, r2, r0, lsl #16
    2438:	50000100 	andpl	r0, r0, r0, lsl #2
    243c:	00000208 	andeq	r0, r0, r8, lsl #4
    2440:	00000220 	andeq	r0, r0, r0, lsr #4
    2444:	00540001 	subseq	r0, r4, r1
	...
    2450:	d8000000 	stmdale	r0, {}	; <UNPREDICTABLE>
    2454:	e3000001 	movw	r0, #1
    2458:	01000001 	tsteq	r0, r1
    245c:	01e35000 	mvneq	r5, r0
    2460:	01f00000 	mvnseq	r0, r0
    2464:	00010000 	andeq	r0, r1, r0
    2468:	00000055 	andeq	r0, r0, r5, asr r0
	...
    2480:	00012400 	andeq	r2, r1, r0, lsl #8
    2484:	00013800 	andeq	r3, r1, r0, lsl #16
    2488:	50000100 	andpl	r0, r0, r0, lsl #2
    248c:	00000138 	andeq	r0, r0, r8, lsr r1
    2490:	0000013c 	andeq	r0, r0, ip, lsr r1
    2494:	79700003 	ldmdbvc	r0!, {r0, r1}^
    2498:	00013c9f 	muleq	r1, pc, ip	; <UNPREDICTABLE>
    249c:	00016000 	andeq	r6, r1, r0
    24a0:	53000100 	movwpl	r0, #256	; 0x100
    24a4:	00000160 	andeq	r0, r0, r0, ror #2
    24a8:	00000178 	andeq	r0, r0, r8, ror r1
    24ac:	78500001 	ldmdavc	r0, {r0}^
    24b0:	80000001 	andhi	r0, r0, r1
    24b4:	04000001 	streq	r0, [r0], #-1
    24b8:	5001f300 	andpl	pc, r1, r0, lsl #6
    24bc:	0001809f 	muleq	r1, pc, r0	; <UNPREDICTABLE>
    24c0:	00019000 	andeq	r9, r1, r0
    24c4:	53000100 	movwpl	r0, #256	; 0x100
    24c8:	00000190 	muleq	r0, r0, r1
    24cc:	0000019f 	muleq	r0, pc, r1	; <UNPREDICTABLE>
    24d0:	68910002 	ldmvs	r1, {r1}
    24d4:	0000019f 	muleq	r0, pc, r1	; <UNPREDICTABLE>
    24d8:	000001bc 			; <UNDEFINED> instruction: 0x000001bc
    24dc:	01f30009 	mvnseq	r0, r9
    24e0:	09072350 	stmdbeq	r7, {r4, r6, r8, r9, sp}
    24e4:	009f1af8 			; <UNDEFINED> instruction: 0x009f1af8
	...
    24f0:	44000000 	strmi	r0, [r0], #-0
    24f4:	60000001 	andvs	r0, r0, r1
    24f8:	01000001 	tsteq	r0, r1
    24fc:	01805000 	orreq	r5, r0, r0
    2500:	019c0000 	orrseq	r0, ip, r0
    2504:	00010000 	andeq	r0, r1, r0
    2508:	00000050 	andeq	r0, r0, r0, asr r0
    250c:	00000000 	andeq	r0, r0, r0
    2510:	34000300 	strcc	r0, [r0], #-768	; 0xfffffd00
    2514:	3c000001 	stccc	0, cr0, [r0], {1}
    2518:	02000001 	andeq	r0, r0, #1, 0
    251c:	009f3800 	addseq	r3, pc, r0, lsl #16
    2520:	00000000 	andeq	r0, r0, r0
    2524:	03000000 	movweq	r0, #0
    2528:	34000000 	strcc	r0, [r0], #-0
    252c:	38000001 	stmdacc	r0, {r0}
    2530:	01000001 	tsteq	r0, r1
    2534:	01385000 	teqeq	r8, r0
    2538:	013c0000 	teqeq	ip, r0
    253c:	00030000 	andeq	r0, r3, r0
    2540:	009f7970 	addseq	r7, pc, r0, ror r9	; <UNPREDICTABLE>
	...
    2558:	00003000 	andeq	r3, r0, r0
    255c:	00006000 	andeq	r6, r0, r0
    2560:	50000100 	andpl	r0, r0, r0, lsl #2
    2564:	00000060 	andeq	r0, r0, r0, rrx
    2568:	0000006c 	andeq	r0, r0, ip, rrx
    256c:	94030005 	strls	r0, [r3], #-5
    2570:	6c0000a2 	stcvs	0, cr0, [r0], {162}	; 0xa2
    2574:	84000000 	strhi	r0, [r0], #-0
    2578:	01000000 	mrseq	r0, (UNDEF: 0)
    257c:	00845000 	addeq	r5, r4, r0
    2580:	008c0000 	addeq	r0, ip, r0
    2584:	00040000 	andeq	r0, r4, r0
    2588:	9f5001f3 	svcls	0x005001f3
    258c:	0000008c 	andeq	r0, r0, ip, lsl #1
    2590:	000000ac 	andeq	r0, r0, ip, lsr #1
    2594:	ac500001 	mrrcge	0, 0, r0, r0, cr1	; <UNPREDICTABLE>
    2598:	af000000 	svcge	0x00000000
    259c:	02000000 	andeq	r0, r0, #0, 0
    25a0:	af689100 	svcge	0x00689100
    25a4:	cc000000 	stcgt	0, cr0, [r0], {-0}
    25a8:	04000000 	streq	r0, [r0], #-0
    25ac:	5001f300 	andpl	pc, r1, r0, lsl #6
    25b0:	0000009f 	muleq	r0, pc, r0	; <UNPREDICTABLE>
	...
    25c0:	00003000 	andeq	r3, r0, r0
    25c4:	00008000 	andeq	r8, r0, r0
    25c8:	51000100 	mrspl	r0, (UNDEF: 16)
    25cc:	00000080 	andeq	r0, r0, r0, lsl #1
    25d0:	0000008c 	andeq	r0, r0, ip, lsl #1
    25d4:	01f30004 	mvnseq	r0, r4
    25d8:	008c9f51 	addeq	r9, ip, r1, asr pc
    25dc:	00a80000 	adceq	r0, r8, r0
    25e0:	00010000 	andeq	r0, r1, r0
    25e4:	0000a851 	andeq	sl, r0, r1, asr r8
    25e8:	0000cc00 	andeq	ip, r0, r0, lsl #24
    25ec:	f3000400 	vshl.u8	d0, d0, d0
    25f0:	009f5101 	addseq	r5, pc, r1, lsl #2
    25f4:	00000000 	andeq	r0, r0, r0
    25f8:	01000000 	mrseq	r0, (UNDEF: 0)
	...
    2608:	00003800 	andeq	r3, r0, r0, lsl #16
    260c:	00006000 	andeq	r6, r0, r0
    2610:	50000100 	andpl	r0, r0, r0, lsl #2
    2614:	00000060 	andeq	r0, r0, r0, rrx
    2618:	0000006c 	andeq	r0, r0, ip, rrx
    261c:	94030005 	strls	r0, [r3], #-5
    2620:	6c0000a2 	stcvs	0, cr0, [r0], {162}	; 0xa2
    2624:	84000000 	strhi	r0, [r0], #-0
    2628:	01000000 	mrseq	r0, (UNDEF: 0)
    262c:	00845000 	addeq	r5, r4, r0
    2630:	008c0000 	addeq	r0, ip, r0
    2634:	00040000 	andeq	r0, r4, r0
    2638:	9f5001f3 	svcls	0x005001f3
    263c:	0000008c 	andeq	r0, r0, ip, lsl #1
    2640:	000000ac 	andeq	r0, r0, ip, lsr #1
    2644:	ac500001 	mrrcge	0, 0, r0, r0, cr1	; <UNPREDICTABLE>
    2648:	af000000 	svcge	0x00000000
    264c:	02000000 	andeq	r0, r0, #0, 0
    2650:	af689100 	svcge	0x00689100
    2654:	cc000000 	stcgt	0, cr0, [r0], {-0}
    2658:	04000000 	streq	r0, [r0], #-0
    265c:	5001f300 	andpl	pc, r1, r0, lsl #6
    2660:	0000009f 	muleq	r0, pc, r0	; <UNPREDICTABLE>
	...
    266c:	70000000 	andvc	r0, r0, r0
    2670:	7c000001 	stcvc	0, cr0, [r0], {1}
    2674:	01000001 	tsteq	r0, r1
    2678:	017c5000 	cmneq	ip, r0
    267c:	01880000 	orreq	r0, r8, r0
    2680:	00010000 	andeq	r0, r1, r0
    2684:	00018854 	andeq	r8, r1, r4, asr r8
    2688:	00019800 	andeq	r9, r1, r0, lsl #16
    268c:	f3000400 	vshl.u8	d0, d0, d0
    2690:	009f5001 	addseq	r5, pc, r1
	...
    26a4:	00017800 	andeq	r7, r1, r0, lsl #16
    26a8:	00017c00 	andeq	r7, r1, r0, lsl #24
    26ac:	70000b00 	andvc	r0, r0, r0, lsl #22
    26b0:	23253500 			; <UNDEFINED> instruction: 0x23253500
    26b4:	818080b4 	strhhi	r8, [r0, r4]
    26b8:	017c9f02 	cmneq	ip, r2, lsl #30
    26bc:	01800000 	orreq	r0, r0, r0
    26c0:	000b0000 	andeq	r0, fp, r0
    26c4:	25350074 	ldrcs	r0, [r5, #-116]!	; 0xffffff8c
    26c8:	8080b423 	addhi	fp, r0, r3, lsr #8
    26cc:	809f0281 	addshi	r0, pc, r1, lsl #5
    26d0:	83000001 	movwhi	r0, #1
    26d4:	01000001 	tsteq	r0, r1
    26d8:	01835000 	orreq	r5, r3, r0
    26dc:	01880000 	orreq	r0, r8, r0
    26e0:	000b0000 	andeq	r0, fp, r0
    26e4:	25350074 	ldrcs	r0, [r5, #-116]!	; 0xffffff8c
    26e8:	8080b423 	addhi	fp, r0, r3, lsr #8
    26ec:	889f0281 	ldmhi	pc, {r0, r7, r9}	; <UNPREDICTABLE>
    26f0:	98000001 	stmdals	r0, {r0}
    26f4:	0c000001 	stceq	0, cr0, [r0], {1}
    26f8:	5001f300 	andpl	pc, r1, r0, lsl #6
    26fc:	b4232535 	strtlt	r2, [r3], #-1333	; 0xfffffacb
    2700:	02818080 	addeq	r8, r1, #128, 0	; 0x80
    2704:	0000009f 	muleq	r0, pc, r0	; <UNPREDICTABLE>
    2708:	00000000 	andeq	r0, r0, r0
    270c:	00000100 	andeq	r0, r0, r0, lsl #2
    2710:	78000000 	stmdavc	r0, {}	; <UNPREDICTABLE>
    2714:	7c000001 	stcvc	0, cr0, [r0], {1}
    2718:	05000001 	streq	r0, [r0, #-1]
    271c:	4f007000 	svcmi	0x00007000
    2720:	017c9f1a 	cmneq	ip, sl, lsl pc
    2724:	01880000 	orreq	r0, r8, r0
    2728:	00050000 	andeq	r0, r5, r0
    272c:	1a4f0074 	bne	13c2904 <__bss_end__+0x13b8234>
    2730:	0001889f 	muleq	r1, pc, r8	; <UNPREDICTABLE>
    2734:	00019800 	andeq	r9, r1, r0, lsl #16
    2738:	54000100 	strpl	r0, [r0], #-256	; 0xffffff00
	...
    2750:	00000140 	andeq	r0, r0, r0, asr #2
    2754:	00000154 	andeq	r0, r0, r4, asr r1
    2758:	54500001 	ldrbpl	r0, [r0], #-1
    275c:	58000001 	stmdapl	r0, {r0}
    2760:	01000001 	tsteq	r0, r1
    2764:	01585100 	cmpeq	r8, r0, lsl #2
    2768:	015c0000 	cmpeq	ip, r0
    276c:	00040000 	andeq	r0, r4, r0
    2770:	9f5001f3 	svcls	0x005001f3
    2774:	0000015c 	andeq	r0, r0, ip, asr r1
    2778:	00000160 	andeq	r0, r0, r0, ror #2
    277c:	60500001 	subsvs	r0, r0, r1
    2780:	64000001 	strvs	r0, [r0], #-1
    2784:	01000001 	tsteq	r0, r1
    2788:	01645100 	cmneq	r4, r0, lsl #2
    278c:	01700000 	cmneq	r0, r0
    2790:	00040000 	andeq	r0, r4, r0
    2794:	9f5001f3 	svcls	0x005001f3
	...
    27a4:	00000140 	andeq	r0, r0, r0, asr #2
    27a8:	0000014c 	andeq	r0, r0, ip, asr #2
    27ac:	4c510001 	mrrcmi	0, 0, r0, r1, cr1
    27b0:	70000001 	andvc	r0, r0, r1
    27b4:	04000001 	streq	r0, [r0], #-1
    27b8:	5101f300 	mrspl	pc, SP_irq	; <UNPREDICTABLE>
    27bc:	0000009f 	muleq	r0, pc, r0	; <UNPREDICTABLE>
    27c0:	00000000 	andeq	r0, r0, r0
    27c4:	00000100 	andeq	r0, r0, r0, lsl #2
    27c8:	50000000 	andpl	r0, r0, r0
    27cc:	54000001 	strpl	r0, [r0], #-1
    27d0:	01000001 	tsteq	r0, r1
    27d4:	01545000 	cmpeq	r4, r0
    27d8:	01580000 	cmpeq	r8, r0
    27dc:	00010000 	andeq	r0, r1, r0
    27e0:	00015851 	andeq	r5, r1, r1, asr r8
    27e4:	00015c00 	andeq	r5, r1, r0, lsl #24
    27e8:	f3000400 	vshl.u8	d0, d0, d0
    27ec:	009f5001 	addseq	r5, pc, r1
    27f0:	00000000 	andeq	r0, r0, r0
    27f4:	02000000 	andeq	r0, r0, #0, 0
    27f8:	00000000 	andeq	r0, r0, r0
    27fc:	00015c00 	andeq	r5, r1, r0, lsl #24
    2800:	00016000 	andeq	r6, r1, r0
    2804:	50000100 	andpl	r0, r0, r0, lsl #2
    2808:	00000160 	andeq	r0, r0, r0, ror #2
    280c:	00000164 	andeq	r0, r0, r4, ror #2
    2810:	64510001 	ldrbvs	r0, [r1], #-1
    2814:	70000001 	andvc	r0, r0, r1
    2818:	04000001 	streq	r0, [r0], #-1
    281c:	5001f300 	andpl	pc, r1, r0, lsl #6
    2820:	0000009f 	muleq	r0, pc, r0	; <UNPREDICTABLE>
	...
    282c:	e8000000 	stmda	r0, {}	; <UNPREDICTABLE>
    2830:	08000000 	stmdaeq	r0, {}	; <UNPREDICTABLE>
    2834:	01000001 	tsteq	r0, r1
    2838:	01085000 	mrseq	r5, (UNDEF: 8)
    283c:	01280000 			; <UNDEFINED> instruction: 0x01280000
    2840:	00010000 	andeq	r0, r1, r0
    2844:	00012854 	andeq	r2, r1, r4, asr r8
    2848:	00014000 	andeq	r4, r1, r0
    284c:	f3000400 	vshl.u8	d0, d0, d0
    2850:	009f5001 	addseq	r5, pc, r1
    2854:	00000000 	andeq	r0, r0, r0
    2858:	02000000 	andeq	r0, r0, #0, 0
    285c:	00000000 	andeq	r0, r0, r0
    2860:	0000e800 	andeq	lr, r0, r0, lsl #16
    2864:	00010800 	andeq	r0, r1, r0, lsl #16
    2868:	50000100 	andpl	r0, r0, r0, lsl #2
    286c:	00000108 	andeq	r0, r0, r8, lsl #2
    2870:	00000128 	andeq	r0, r0, r8, lsr #2
    2874:	28540001 	ldmdacs	r4, {r0}^
    2878:	40000001 	andmi	r0, r0, r1
    287c:	04000001 	streq	r0, [r0], #-1
    2880:	5001f300 	andpl	pc, r1, r0, lsl #6
    2884:	0000009f 	muleq	r0, pc, r0	; <UNPREDICTABLE>
	...
    2890:	f0000000 			; <UNDEFINED> instruction: 0xf0000000
    2894:	08000000 	stmdaeq	r0, {}	; <UNPREDICTABLE>
    2898:	01000001 	tsteq	r0, r1
    289c:	01085000 	mrseq	r5, (UNDEF: 8)
    28a0:	01280000 			; <UNDEFINED> instruction: 0x01280000
    28a4:	00010000 	andeq	r0, r1, r0
    28a8:	00012854 	andeq	r2, r1, r4, asr r8
    28ac:	00014000 	andeq	r4, r1, r0
    28b0:	f3000400 	vshl.u8	d0, d0, d0
    28b4:	009f5001 	addseq	r5, pc, r1
    28b8:	00000000 	andeq	r0, r0, r0
    28bc:	03000000 	movweq	r0, #0
    28c0:	00000000 	andeq	r0, r0, r0
    28c4:	0000f000 	andeq	pc, r0, r0
    28c8:	00010800 	andeq	r0, r1, r0, lsl #16
    28cc:	70000700 	andvc	r0, r0, r0, lsl #14
    28d0:	331d3a00 	tstcc	sp, #0, 20
    28d4:	01089f1e 	tsteq	r8, lr, lsl pc
    28d8:	01280000 			; <UNDEFINED> instruction: 0x01280000
    28dc:	00070000 	andeq	r0, r7, r0
    28e0:	1d3a0074 	ldcne	0, cr0, [sl, #-464]!	; 0xfffffe30
    28e4:	289f1e33 	ldmcs	pc, {r0, r1, r4, r5, r9, sl, fp, ip}	; <UNPREDICTABLE>
    28e8:	40000001 	andmi	r0, r0, r1
    28ec:	08000001 	stmdaeq	r0, {r0}
    28f0:	5001f300 	andpl	pc, r1, r0, lsl #6
    28f4:	1e331d3a 	mrcne	13, 1, r1, cr3, cr10, {1}
    28f8:	0000009f 	muleq	r0, pc, r0	; <UNPREDICTABLE>
	...
    2904:	10000000 	andne	r0, r0, r0
    2908:	38000001 	stmdacc	r0, {r0}
    290c:	01000001 	tsteq	r0, r1
    2910:	01385600 	teqeq	r8, r0, lsl #12
    2914:	013b0000 	teqeq	fp, r0
    2918:	00010000 	andeq	r0, r1, r0
    291c:	00013b50 	andeq	r3, r1, r0, asr fp
    2920:	00014000 	andeq	r4, r1, r0
    2924:	f3002600 	vmax.u8	d2, d0, d0
    2928:	2cf75001 	ldclcs	0, cr5, [r7], #4
    292c:	25f425f7 	ldrbcs	r2, [r4, #1527]!	; 0x5f7
    2930:	cccccd08 	stclgt	13, cr12, [ip], {8}
    2934:	000000cc 	andeq	r0, r0, ip, asr #1
    2938:	20081e00 	andcs	r1, r8, r0, lsl #28
    293c:	f72525f7 			; <UNDEFINED> instruction: 0xf72525f7
    2940:	3300f72c 	movwcc	pc, #1836	; 0x72c	; <UNPREDICTABLE>
    2944:	80802325 	addhi	r2, r0, r5, lsr #6
    2948:	243240a0 	ldrtcs	r4, [r2], #-160	; 0xffffff60
    294c:	0000009f 	muleq	r0, pc, r0	; <UNPREDICTABLE>
    2950:	00000000 	andeq	r0, r0, r0
    2954:	01010000 	mrseq	r0, (UNDEF: 1)
    2958:	00000000 	andeq	r0, r0, r0
    295c:	00012000 	andeq	r2, r1, r0
    2960:	00012000 	andeq	r2, r1, r0
    2964:	50000100 	andpl	r0, r0, r0, lsl #2
    2968:	00000120 	andeq	r0, r0, r0, lsr #2
    296c:	00000128 	andeq	r0, r0, r8, lsr #2
    2970:	7437000d 	ldrtvc	r0, [r7], #-13
    2974:	331d3a00 	tstcc	sp, #0, 20
    2978:	7020241e 	eorvc	r2, r0, lr, lsl r4
    297c:	289f1a00 	ldmcs	pc, {r9, fp, ip}	; <UNPREDICTABLE>
    2980:	30000001 	andcc	r0, r0, r1
    2984:	0e000001 	cdpeq	0, 0, cr0, cr0, cr1, {0}
    2988:	01f33700 	mvnseq	r3, r0, lsl #14
    298c:	331d3a50 	tstcc	sp, #80, 20	; 0x50000
    2990:	7020241e 	eorvc	r2, r0, lr, lsl r4
    2994:	309f1a00 	addscc	r1, pc, r0, lsl #20
    2998:	3b000001 	blcc	29a4 <__code_start__-0x565c>
    299c:	0e000001 	cdpeq	0, 0, cr0, cr0, cr1, {0}
    29a0:	01f33700 	mvnseq	r3, r0, lsl #14
    29a4:	331d3a50 	tstcc	sp, #80, 20	; 0x50000
    29a8:	7320241e 			; <UNDEFINED> instruction: 0x7320241e
    29ac:	009f1a00 	addseq	r1, pc, r0, lsl #20
	...
    29b8:	60000000 	andvs	r0, r0, r0
    29bc:	90000000 	andls	r0, r0, r0
    29c0:	01000000 	mrseq	r0, (UNDEF: 0)
    29c4:	00905000 	addseq	r5, r0, r0
    29c8:	00b80000 	adcseq	r0, r8, r0
    29cc:	00040000 	andeq	r0, r4, r0
    29d0:	9f5001f3 	svcls	0x005001f3
	...
    29dc:	00000002 	andeq	r0, r0, r2
    29e0:	00000060 	andeq	r0, r0, r0, rrx
    29e4:	00000090 	muleq	r0, r0, r0
    29e8:	90500001 	subsls	r0, r0, r1
    29ec:	b8000000 	stmdalt	r0, {}	; <UNPREDICTABLE>
    29f0:	04000000 	streq	r0, [r0], #-0
    29f4:	5001f300 	andpl	pc, r1, r0, lsl #6
    29f8:	0000009f 	muleq	r0, pc, r0	; <UNPREDICTABLE>
	...
    2a04:	00006800 	andeq	r6, r0, r0, lsl #16
    2a08:	00009000 	andeq	r9, r0, r0
    2a0c:	50000100 	andpl	r0, r0, r0, lsl #2
    2a10:	00000090 	muleq	r0, r0, r0
    2a14:	000000b8 	strheq	r0, [r0], -r8
    2a18:	01f30004 	mvnseq	r0, r4
    2a1c:	00009f50 	andeq	r9, r0, r0, asr pc
	...
    2a28:	00a00000 	adceq	r0, r0, r0
    2a2c:	00b00000 	adcseq	r0, r0, r0
    2a30:	00010000 	andeq	r0, r1, r0
    2a34:	0000b054 	andeq	fp, r0, r4, asr r0
    2a38:	0000b800 	andeq	fp, r0, r0, lsl #16
    2a3c:	f3002900 	vmls.i8	d2, d0, d0
    2a40:	01f35001 	mvnseq	r5, r1
    2a44:	f72cf750 			; <UNDEFINED> instruction: 0xf72cf750
    2a48:	0825f425 	stmdaeq	r5!, {r0, r2, r5, sl, ip, sp, lr, pc}
    2a4c:	cccccccd 	stclgt	12, cr12, [ip], {205}	; 0xcd
    2a50:	00000000 	andeq	r0, r0, r0
    2a54:	f720081e 			; <UNDEFINED> instruction: 0xf720081e
    2a58:	2cf72525 	cfldr64cs	mvdx2, [r7], #148	; 0x94
    2a5c:	253300f7 	ldrcs	r0, [r3, #-247]!	; 0xffffff09
    2a60:	24311e35 	ldrtcs	r1, [r1], #-3637	; 0xfffff1cb
    2a64:	9f1e331c 	svcls	0x001e331c
	...
    2a70:	00000001 	andeq	r0, r0, r1
    2a74:	00a00000 	adceq	r0, r0, r0
    2a78:	00b00000 	adcseq	r0, r0, r0
    2a7c:	00010000 	andeq	r0, r1, r0
    2a80:	0000b055 	andeq	fp, r0, r5, asr r0
    2a84:	0000b300 	andeq	fp, r0, r0, lsl #6
    2a88:	50000100 	andpl	r0, r0, r0, lsl #2
    2a8c:	000000b3 	strheq	r0, [r0], -r3
    2a90:	000000b8 	strheq	r0, [r0], -r8
    2a94:	01f30026 	mvnseq	r0, r6, lsr #32
    2a98:	f72cf750 			; <UNDEFINED> instruction: 0xf72cf750
    2a9c:	0825f425 	stmdaeq	r5!, {r0, r2, r5, sl, ip, sp, lr, pc}
    2aa0:	cccccccd 	stclgt	12, cr12, [ip], {205}	; 0xcd
    2aa4:	00000000 	andeq	r0, r0, r0
    2aa8:	f720081e 			; <UNDEFINED> instruction: 0xf720081e
    2aac:	2cf72525 	cfldr64cs	mvdx2, [r7], #148	; 0x94
    2ab0:	253300f7 	ldrcs	r0, [r3, #-247]!	; 0xffffff09
    2ab4:	a0808023 	addge	r8, r0, r3, lsr #32
    2ab8:	9f243240 	svcls	0x00243240
	...
    2ac4:	01000002 	tsteq	r0, r2
    2ac8:	00000001 	andeq	r0, r0, r1
    2acc:	000000a0 	andeq	r0, r0, r0, lsr #1
    2ad0:	000000a4 	andeq	r0, r0, r4, lsr #1
    2ad4:	a4500001 	ldrbge	r0, [r0], #-1
    2ad8:	a4000000 	strge	r0, [r0], #-0
    2adc:	01000000 	mrseq	r0, (UNDEF: 0)
    2ae0:	00a45300 	adceq	r5, r4, r0, lsl #6
    2ae4:	00a80000 	adceq	r0, r8, r0
    2ae8:	00080000 	andeq	r0, r8, r0
    2aec:	24007431 	strcs	r7, [r0], #-1073	; 0xfffffbcf
    2af0:	9f210073 	svcls	0x00210073
    2af4:	000000a8 	andeq	r0, r0, r8, lsr #1
    2af8:	000000b3 	strheq	r0, [r0], -r3
    2afc:	00510001 	subseq	r0, r1, r1
	...
    2b0c:	3c000000 	stccc	0, cr0, [r0], {-0}
    2b10:	01000000 	mrseq	r0, (UNDEF: 0)
    2b14:	003c5000 	eorseq	r5, ip, r0
    2b18:	00600000 	rsbeq	r0, r0, r0
    2b1c:	00040000 	andeq	r0, r4, r0
    2b20:	9f5001f3 	svcls	0x005001f3
	...
    2b34:	0000003f 	andeq	r0, r0, pc, lsr r0
    2b38:	3f510001 	svccc	0x00510001
    2b3c:	60000000 	andvs	r0, r0, r0
    2b40:	04000000 	streq	r0, [r0], #-0
    2b44:	5101f300 	mrspl	pc, SP_irq	; <UNPREDICTABLE>
    2b48:	0000009f 	muleq	r0, pc, r0	; <UNPREDICTABLE>
	...
    2b54:	00000800 	andeq	r0, r0, r0, lsl #16
    2b58:	00003f00 	andeq	r3, r0, r0, lsl #30
    2b5c:	51000100 	mrspl	r0, (UNDEF: 16)
    2b60:	0000003f 	andeq	r0, r0, pc, lsr r0
    2b64:	00000060 	andeq	r0, r0, r0, rrx
    2b68:	01f30004 	mvnseq	r0, r4
    2b6c:	00009f51 	andeq	r9, r0, r1, asr pc
	...
    2b78:	00080000 	andeq	r0, r8, r0
    2b7c:	003c0000 	eorseq	r0, ip, r0
    2b80:	00010000 	andeq	r0, r1, r0
    2b84:	00003c50 	andeq	r3, r0, r0, asr ip
    2b88:	00006000 	andeq	r6, r0, r0
    2b8c:	f3000400 	vshl.u8	d0, d0, d0
    2b90:	009f5001 	addseq	r5, pc, r1
	...
    2b9c:	48000000 	stmdami	r0, {}	; <UNPREDICTABLE>
    2ba0:	58000000 	stmdapl	r0, {}	; <UNPREDICTABLE>
    2ba4:	01000000 	mrseq	r0, (UNDEF: 0)
    2ba8:	00585400 	subseq	r5, r8, r0, lsl #8
    2bac:	00600000 	rsbeq	r0, r0, r0
    2bb0:	00290000 	eoreq	r0, r9, r0
    2bb4:	f35001f3 	vbsl	q8, q8, <illegal reg q9.5>
    2bb8:	2cf75001 	ldclcs	0, cr5, [r7], #4
    2bbc:	25f425f7 	ldrbcs	r2, [r4, #1527]!	; 0x5f7
    2bc0:	cccccd08 	stclgt	13, cr12, [ip], {8}
    2bc4:	000000cc 	andeq	r0, r0, ip, asr #1
    2bc8:	20081e00 	andcs	r1, r8, r0, lsl #28
    2bcc:	f72525f7 			; <UNDEFINED> instruction: 0xf72525f7
    2bd0:	3300f72c 	movwcc	pc, #1836	; 0x72c	; <UNPREDICTABLE>
    2bd4:	311e3525 	tstcc	lr, r5, lsr #10
    2bd8:	1e331c24 	cdpne	12, 3, cr1, cr3, cr4, {1}
    2bdc:	0000009f 	muleq	r0, pc, r0	; <UNPREDICTABLE>
    2be0:	00000000 	andeq	r0, r0, r0
    2be4:	00000100 	andeq	r0, r0, r0, lsl #2
    2be8:	48000000 	stmdami	r0, {}	; <UNPREDICTABLE>
    2bec:	58000000 	stmdapl	r0, {}	; <UNPREDICTABLE>
    2bf0:	01000000 	mrseq	r0, (UNDEF: 0)
    2bf4:	00585600 	subseq	r5, r8, r0, lsl #12
    2bf8:	005b0000 	subseq	r0, fp, r0
    2bfc:	00010000 	andeq	r0, r1, r0
    2c00:	00005b50 	andeq	r5, r0, r0, asr fp
    2c04:	00006000 	andeq	r6, r0, r0
    2c08:	f3002600 	vmax.u8	d2, d0, d0
    2c0c:	2cf75001 	ldclcs	0, cr5, [r7], #4
    2c10:	25f425f7 	ldrbcs	r2, [r4, #1527]!	; 0x5f7
    2c14:	cccccd08 	stclgt	13, cr12, [ip], {8}
    2c18:	000000cc 	andeq	r0, r0, ip, asr #1
    2c1c:	20081e00 	andcs	r1, r8, r0, lsl #28
    2c20:	f72525f7 			; <UNDEFINED> instruction: 0xf72525f7
    2c24:	3300f72c 	movwcc	pc, #1836	; 0x72c	; <UNPREDICTABLE>
    2c28:	80802325 	addhi	r2, r0, r5, lsr #6
    2c2c:	243240a0 	ldrtcs	r4, [r2], #-160	; 0xffffff60
    2c30:	0000009f 	muleq	r0, pc, r0	; <UNPREDICTABLE>
    2c34:	00000000 	andeq	r0, r0, r0
    2c38:	00000200 	andeq	r0, r0, r0, lsl #4
    2c3c:	00000101 	andeq	r0, r0, r1, lsl #2
    2c40:	00004800 	andeq	r4, r0, r0, lsl #16
    2c44:	00004c00 	andeq	r4, r0, r0, lsl #24
    2c48:	50000100 	andpl	r0, r0, r0, lsl #2
    2c4c:	0000004c 	andeq	r0, r0, ip, asr #32
    2c50:	0000004c 	andeq	r0, r0, ip, asr #32
    2c54:	4c510001 	mrrcmi	0, 0, r0, r1, cr1
    2c58:	50000000 	andpl	r0, r0, r0
    2c5c:	0c000000 	stceq	0, cr0, [r0], {-0}
    2c60:	08007500 	stmdaeq	r0, {r8, sl, ip, sp, lr}
    2c64:	00741aff 	ldrshteq	r1, [r4], #-175	; 0xffffff51
    2c68:	21007124 	tstcs	r0, r4, lsr #2
    2c6c:	0000509f 	muleq	r0, pc, r0	; <UNPREDICTABLE>
    2c70:	00005400 	andeq	r5, r0, r0, lsl #8
    2c74:	37001200 	strcc	r1, [r0, -r0, lsl #4]
    2c78:	20240074 	eorcs	r0, r4, r4, ror r0
    2c7c:	751a0070 	ldrvc	r0, [sl, #-112]	; 0xffffff90
    2c80:	1aff0800 	bne	fffc4c88 <__bss_end__+0xfffba5b8>
    2c84:	21240074 			; <UNDEFINED> instruction: 0x21240074
    2c88:	0000009f 	muleq	r0, pc, r0	; <UNPREDICTABLE>
	...
    2c94:	b8000000 	stmdalt	r0, {}	; <UNPREDICTABLE>
    2c98:	c4000000 	strgt	r0, [r0], #-0
    2c9c:	01000000 	mrseq	r0, (UNDEF: 0)
    2ca0:	00c45000 	sbceq	r5, r4, r0
    2ca4:	00cb0000 	sbceq	r0, fp, r0
    2ca8:	00010000 	andeq	r0, r1, r0
    2cac:	0000cb53 	andeq	ip, r0, r3, asr fp
    2cb0:	0000d000 	andeq	sp, r0, r0
    2cb4:	f3000400 	vshl.u8	d0, d0, d0
    2cb8:	009f5001 	addseq	r5, pc, r1
	...
    2cc8:	0000d000 	andeq	sp, r0, r0
    2ccc:	0000dc00 	andeq	sp, r0, r0, lsl #24
    2cd0:	50000100 	andpl	r0, r0, r0, lsl #2
    2cd4:	000000dc 	ldrdeq	r0, [r0], -ip
    2cd8:	000000e3 	andeq	r0, r0, r3, ror #1
    2cdc:	e3530001 	cmp	r3, #1, 0
    2ce0:	e8000000 	stmda	r0, {}	; <UNPREDICTABLE>
    2ce4:	04000000 	streq	r0, [r0], #-0
    2ce8:	5001f300 	andpl	pc, r1, r0, lsl #6
    2cec:	0000009f 	muleq	r0, pc, r0	; <UNPREDICTABLE>
	...
    2cfc:	00000b00 	andeq	r0, r0, r0, lsl #22
    2d00:	50000100 	andpl	r0, r0, r0, lsl #2
    2d04:	0000000b 	andeq	r0, r0, fp
    2d08:	00000014 	andeq	r0, r0, r4, lsl r0
    2d0c:	00540001 	subseq	r0, r4, r1
	...
    2d1c:	18000000 	stmdane	r0, {}	; <UNPREDICTABLE>
    2d20:	01000000 	mrseq	r0, (UNDEF: 0)
    2d24:	00185100 	andseq	r5, r8, r0, lsl #2
    2d28:	002c0000 	eoreq	r0, ip, r0
    2d2c:	00040000 	andeq	r0, r4, r0
    2d30:	9f5101f3 	svcls	0x005101f3
	...
    2d3c:	00000002 	andeq	r0, r0, r2
    2d40:	00000000 	andeq	r0, r0, r0
    2d44:	00010100 	andeq	r0, r1, r0, lsl #2
    2d48:	00000000 	andeq	r0, r0, r0
    2d4c:	00040000 	andeq	r0, r4, r0
    2d50:	00010000 	andeq	r0, r1, r0
    2d54:	00000450 	andeq	r0, r0, r0, asr r4
    2d58:	00000800 	andeq	r0, r0, r0, lsl #16
    2d5c:	52000100 	andpl	r0, r0, #0
    2d60:	00000008 	andeq	r0, r0, r8
    2d64:	0000000c 	andeq	r0, r0, ip
    2d68:	01720003 	cmneq	r2, r3
    2d6c:	00000c9f 	muleq	r0, pc, ip	; <UNPREDICTABLE>
    2d70:	00001800 	andeq	r1, r0, r0, lsl #16
    2d74:	52000100 	andpl	r0, r0, #0
    2d78:	00000018 	andeq	r0, r0, r8, lsl r0
    2d7c:	0000001c 	andeq	r0, r0, ip, lsl r0
    2d80:	1c530001 	mrrcne	0, 0, r0, r3, cr1
    2d84:	24000000 	strcs	r0, [r0], #-0
    2d88:	03000000 	movweq	r0, #0
    2d8c:	9f017300 	svcls	0x00017300
    2d90:	00000024 	andeq	r0, r0, r4, lsr #32
    2d94:	0000002c 	andeq	r0, r0, ip, lsr #32
    2d98:	00530001 	subseq	r0, r3, r1
    2d9c:	00000000 	andeq	r0, r0, r0
    2da0:	03000000 	movweq	r0, #0
    2da4:	00000202 	andeq	r0, r0, r2, lsl #4
    2da8:	00000000 	andeq	r0, r0, r0
    2dac:	00001800 	andeq	r1, r0, r0, lsl #16
    2db0:	51000100 	mrspl	r0, (UNDEF: 16)
    2db4:	00000018 	andeq	r0, r0, r8, lsl r0
    2db8:	0000001c 	andeq	r0, r0, ip, lsl r0
    2dbc:	01710003 	cmneq	r1, r3
    2dc0:	00001c9f 	muleq	r0, pc, ip	; <UNPREDICTABLE>
    2dc4:	00002c00 	andeq	r2, r0, r0, lsl #24
    2dc8:	51000100 	mrspl	r0, (UNDEF: 16)
	...
    2dd8:	00080000 	andeq	r0, r8, r0
    2ddc:	000c0000 	andeq	r0, ip, r0
    2de0:	00020000 	andeq	r0, r2, r0
    2de4:	000c0072 	andeq	r0, ip, r2, ror r0
    2de8:	00180000 	andseq	r0, r8, r0
    2dec:	00020000 	andeq	r0, r2, r0
    2df0:	001c0073 	andseq	r0, ip, r3, ror r0
    2df4:	002c0000 	eoreq	r0, ip, r0
    2df8:	00010000 	andeq	r0, r1, r0
    2dfc:	00000052 	andeq	r0, r0, r2, asr r0
	...
    2e14:	00001400 	andeq	r1, r0, r0, lsl #8
    2e18:	50000100 	andpl	r0, r0, r0, lsl #2
    2e1c:	00000014 	andeq	r0, r0, r4, lsl r0
    2e20:	00000018 	andeq	r0, r0, r8, lsl r0
    2e24:	01700003 	cmneq	r0, r3
    2e28:	0000189f 	muleq	r0, pc, r8	; <UNPREDICTABLE>
    2e2c:	00002000 	andeq	r2, r0, r0
    2e30:	50000100 	andpl	r0, r0, r0, lsl #2
    2e34:	00000024 	andeq	r0, r0, r4, lsr #32
    2e38:	00000028 	andeq	r0, r0, r8, lsr #32
    2e3c:	28500001 	ldmdacs	r0, {r0}^
    2e40:	30000000 	andcc	r0, r0, r0
    2e44:	03000000 	movweq	r0, #0
    2e48:	9f017000 	svcls	0x00017000
    2e4c:	00000038 	andeq	r0, r0, r8, lsr r0
    2e50:	00000040 	andeq	r0, r0, r0, asr #32
    2e54:	00500001 	subseq	r0, r0, r1
	...
    2e68:	00002400 	andeq	r2, r0, r0, lsl #8
    2e6c:	51000100 	mrspl	r0, (UNDEF: 16)
    2e70:	00000024 	andeq	r0, r0, r4, lsr #32
    2e74:	00000028 	andeq	r0, r0, r8, lsr #32
    2e78:	285c0001 	ldmdacs	ip, {r0}^
    2e7c:	44000000 	strmi	r0, [r0], #-0
    2e80:	01000000 	mrseq	r0, (UNDEF: 0)
    2e84:	00005100 	andeq	r5, r0, r0, lsl #2
    2e88:	00000000 	andeq	r0, r0, r0
    2e8c:	02000000 	andeq	r0, r0, #0, 0
    2e90:	00000002 	andeq	r0, r0, r2
    2e94:	00000000 	andeq	r0, r0, r0
    2e98:	00000004 	andeq	r0, r0, r4
    2e9c:	04510001 	ldrbeq	r0, [r1], #-1
    2ea0:	08000000 	stmdaeq	r0, {}	; <UNPREDICTABLE>
    2ea4:	03000000 	movweq	r0, #0
    2ea8:	9f017100 	svcls	0x00017100
    2eac:	00000008 	andeq	r0, r0, r8
    2eb0:	00000018 	andeq	r0, r0, r8, lsl r0
    2eb4:	00510001 	subseq	r0, r1, r1
    2eb8:	00000000 	andeq	r0, r0, r0
    2ebc:	02000000 	andeq	r0, r0, #0, 0
    2ec0:	00000000 	andeq	r0, r0, r0
    2ec4:	00000400 	andeq	r0, r0, r0, lsl #8
    2ec8:	50000100 	andpl	r0, r0, r0, lsl #2
	...
    2edc:	00000008 	andeq	r0, r0, r8
    2ee0:	08500001 	ldmdaeq	r0, {r0}^
    2ee4:	30000000 	andcc	r0, r0, r0
    2ee8:	04000000 	streq	r0, [r0], #-0
    2eec:	5001f300 	andpl	pc, r1, r0, lsl #6
    2ef0:	0000009f 	muleq	r0, pc, r0	; <UNPREDICTABLE>
	...
    2f00:	00000800 	andeq	r0, r0, r0, lsl #16
    2f04:	51000100 	mrspl	r0, (UNDEF: 16)
    2f08:	00000008 	andeq	r0, r0, r8
    2f0c:	00000030 	andeq	r0, r0, r0, lsr r0
    2f10:	01f30004 	mvnseq	r0, r4
    2f14:	00009f51 	andeq	r9, r0, r1, asr pc
	...
    2f24:	00020201 	andeq	r0, r2, r1, lsl #4
    2f28:	00000000 	andeq	r0, r0, r0
    2f2c:	00000004 	andeq	r0, r0, r4
    2f30:	04520001 	ldrbeq	r0, [r2], #-1
    2f34:	08000000 	stmdaeq	r0, {}	; <UNPREDICTABLE>
    2f38:	04000000 	streq	r0, [r0], #-0
    2f3c:	5201f300 	andpl	pc, r1, #0, 6
    2f40:	0000089f 	muleq	r0, pc, r8	; <UNPREDICTABLE>
    2f44:	00001800 	andeq	r1, r0, r0, lsl #16
    2f48:	f3000600 	vmax.u8	d0, d0, d0
    2f4c:	1c315201 	lfmne	f5, 4, [r1], #-4
    2f50:	0000189f 	muleq	r0, pc, r8	; <UNPREDICTABLE>
    2f54:	00001800 	andeq	r1, r0, r0, lsl #16
    2f58:	f3000400 	vshl.u8	d0, d0, d0
    2f5c:	189f5201 	ldmne	pc, {r0, r9, ip, lr}	; <UNPREDICTABLE>
    2f60:	30000000 	andcc	r0, r0, r0
    2f64:	06000000 	streq	r0, [r0], -r0
    2f68:	5201f300 	andpl	pc, r1, #0, 6
    2f6c:	009f1c31 	addseq	r1, pc, r1, lsr ip	; <UNPREDICTABLE>
    2f70:	00000000 	andeq	r0, r0, r0
    2f74:	02000000 	andeq	r0, r0, #0, 0
    2f78:	01000000 	mrseq	r0, (UNDEF: 0)
    2f7c:	00000000 	andeq	r0, r0, r0
    2f80:	0c000000 	stceq	0, cr0, [r0], {-0}
    2f84:	01000000 	mrseq	r0, (UNDEF: 0)
    2f88:	000c5000 	andeq	r5, ip, r0
    2f8c:	00180000 	andseq	r0, r8, r0
    2f90:	00030000 	andeq	r0, r3, r0
    2f94:	189f7f70 	ldmne	pc, {r4, r5, r6, r8, r9, sl, fp, ip, sp, lr}	; <UNPREDICTABLE>
    2f98:	24000000 	strcs	r0, [r0], #-0
    2f9c:	01000000 	mrseq	r0, (UNDEF: 0)
    2fa0:	00285000 	eoreq	r5, r8, r0
    2fa4:	002c0000 	eoreq	r0, ip, r0
    2fa8:	00030000 	andeq	r0, r3, r0
    2fac:	009f7f70 	addseq	r7, pc, r0, ror pc	; <UNPREDICTABLE>
    2fb0:	00000000 	andeq	r0, r0, r0
    2fb4:	02000000 	andeq	r0, r0, #0, 0
	...
    2fc0:	00000c00 	andeq	r0, r0, r0, lsl #24
    2fc4:	51000100 	mrspl	r0, (UNDEF: 16)
    2fc8:	0000000c 	andeq	r0, r0, ip
    2fcc:	00000010 	andeq	r0, r0, r0, lsl r0
    2fd0:	01710003 	cmneq	r1, r3
    2fd4:	0000109f 	muleq	r0, pc, r0	; <UNPREDICTABLE>
    2fd8:	00003000 	andeq	r3, r0, r0
    2fdc:	51000100 	mrspl	r0, (UNDEF: 16)
	...

Disassembly of section .debug_aranges:

00000000 <.debug_aranges>:
   0:	0000001c 	andeq	r0, r0, ip, lsl r0
   4:	00000002 	andeq	r0, r0, r2
   8:	00040000 	andeq	r0, r4, r0
   c:	00000000 	andeq	r0, r0, r0
  10:	00008038 	andeq	r8, r0, r8, lsr r0
  14:	000000cc 	andeq	r0, r0, ip, asr #1
	...
  20:	0000001c 	andeq	r0, r0, ip, lsl r0
  24:	032b0002 			; <UNDEFINED> instruction: 0x032b0002
  28:	00040000 	andeq	r0, r4, r0
  2c:	00000000 	andeq	r0, r0, r0
  30:	00008104 	andeq	r8, r0, r4, lsl #2
  34:	000002f4 	strdeq	r0, [r0], -r4
	...
  40:	0000001c 	andeq	r0, r0, ip, lsl r0
  44:	0a620002 	beq	1880054 <__bss_end__+0x1875984>
  48:	00040000 	andeq	r0, r4, r0
  4c:	00000000 	andeq	r0, r0, r0
  50:	000083f8 	strdeq	r8, [r0], -r8	; <UNPREDICTABLE>
  54:	000001ac 	andeq	r0, r0, ip, lsr #3
	...
  60:	0000001c 	andeq	r0, r0, ip, lsl r0
  64:	0d280002 	stceq	0, cr0, [r8, #-8]!
  68:	00040000 	andeq	r0, r4, r0
  6c:	00000000 	andeq	r0, r0, r0
  70:	000085a4 	andeq	r8, r0, r4, lsr #11
  74:	00000154 	andeq	r0, r0, r4, asr r1
	...
  80:	0000001c 	andeq	r0, r0, ip, lsl r0
  84:	13920002 	orrsne	r0, r2, #2, 0
  88:	00040000 	andeq	r0, r4, r0
  8c:	00000000 	andeq	r0, r0, r0
  90:	00008700 	andeq	r8, r0, r0, lsl #14
  94:	00000078 	andeq	r0, r0, r8, ror r0
	...
  a0:	0000001c 	andeq	r0, r0, ip, lsl r0
  a4:	14d60002 	ldrbne	r0, [r6], #2
  a8:	00040000 	andeq	r0, r4, r0
  ac:	00000000 	andeq	r0, r0, r0
  b0:	00008778 	andeq	r8, r0, r8, ror r7
  b4:	00000058 	andeq	r0, r0, r8, asr r0
	...
  c0:	0000001c 	andeq	r0, r0, ip, lsl r0
  c4:	16770002 	ldrbtne	r0, [r7], -r2
  c8:	00040000 	andeq	r0, r4, r0
  cc:	00000000 	andeq	r0, r0, r0
  d0:	000087d0 	ldrdeq	r8, [r0], -r0
  d4:	00000038 	andeq	r0, r0, r8, lsr r0
	...
  e0:	0000001c 	andeq	r0, r0, ip, lsl r0
  e4:	176e0002 	strbne	r0, [lr, -r2]!
  e8:	00040000 	andeq	r0, r4, r0
  ec:	00000000 	andeq	r0, r0, r0
  f0:	00008808 	andeq	r8, r0, r8, lsl #16
  f4:	000009b4 			; <UNDEFINED> instruction: 0x000009b4
	...
 100:	0000001c 	andeq	r0, r0, ip, lsl r0
 104:	23f10002 	mvnscs	r0, #2, 0
 108:	00040000 	andeq	r0, r4, r0
 10c:	00000000 	andeq	r0, r0, r0
 110:	000091bc 			; <UNDEFINED> instruction: 0x000091bc
 114:	0000002c 	andeq	r0, r0, ip, lsr #32
	...
 120:	0000001c 	andeq	r0, r0, ip, lsl r0
 124:	25240002 	strcs	r0, [r4, #-2]!
 128:	00040000 	andeq	r0, r4, r0
 12c:	00000000 	andeq	r0, r0, r0
 130:	000091e8 	andeq	r9, r0, r8, ror #3
 134:	000000f8 	strdeq	r0, [r0], -r8
	...
 140:	0000001c 	andeq	r0, r0, ip, lsl r0
 144:	26b80002 	ldrtcs	r0, [r8], r2
 148:	00040000 	andeq	r0, r4, r0
 14c:	00000000 	andeq	r0, r0, r0
 150:	000092e0 	andeq	r9, r0, r0, ror #5
 154:	00000004 	andeq	r0, r0, r4
	...
 160:	0000001c 	andeq	r0, r0, ip, lsl r0
 164:	278a0002 	strcs	r0, [sl, r2]
 168:	00040000 	andeq	r0, r4, r0
 16c:	00000000 	andeq	r0, r0, r0
 170:	000092e4 	andeq	r9, r0, r4, ror #5
 174:	0000008c 	andeq	r0, r0, ip, lsl #1
	...
 180:	0000001c 	andeq	r0, r0, ip, lsl r0
 184:	2a0b0002 	bcs	2c0194 <__bss_end__+0x2b5ac4>
 188:	00040000 	andeq	r0, r4, r0
 18c:	00000000 	andeq	r0, r0, r0
 190:	00009370 	andeq	r9, r0, r0, ror r3
 194:	0000011c 	andeq	r0, r0, ip, lsl r1
	...
 1a0:	0000001c 	andeq	r0, r0, ip, lsl r0
 1a4:	2f4e0002 	svccs	0x004e0002
 1a8:	00040000 	andeq	r0, r4, r0
 1ac:	00000000 	andeq	r0, r0, r0
 1b0:	0000948c 	andeq	r9, r0, ip, lsl #9
 1b4:	000001f0 	strdeq	r0, [r0], -r0	; <UNPREDICTABLE>
	...
 1c0:	0000001c 	andeq	r0, r0, ip, lsl r0
 1c4:	351f0002 	ldrcc	r0, [pc, #-2]	; 1ca <__code_start__-0x7e36>
 1c8:	00040000 	andeq	r0, r4, r0
 1cc:	00000000 	andeq	r0, r0, r0
 1d0:	0000967c 	andeq	r9, r0, ip, ror r6
 1d4:	000003b0 			; <UNDEFINED> instruction: 0x000003b0
	...
 1e0:	0000001c 	andeq	r0, r0, ip, lsl r0
 1e4:	3e0c0002 	cdpcc	0, 0, cr0, cr12, cr2, {0}
 1e8:	00040000 	andeq	r0, r4, r0
 1ec:	00000000 	andeq	r0, r0, r0
 1f0:	00009a2c 	andeq	r9, r0, ip, lsr #20
 1f4:	00000198 	muleq	r0, r8, r1
	...
 200:	0000001c 	andeq	r0, r0, ip, lsl r0
 204:	44830002 	strmi	r0, [r3], #2
 208:	00040000 	andeq	r0, r4, r0
 20c:	00000000 	andeq	r0, r0, r0
 210:	00009bc4 	andeq	r9, r0, r4, asr #23
 214:	0000003c 	andeq	r0, r0, ip, lsr r0
	...
 220:	0000001c 	andeq	r0, r0, ip, lsl r0
 224:	45d00002 	ldrbmi	r0, [r0, #2]
 228:	00040000 	andeq	r0, r4, r0
 22c:	00000000 	andeq	r0, r0, r0
 230:	00009c00 	andeq	r9, r0, r0, lsl #24
 234:	0000002c 	andeq	r0, r0, ip, lsr #32
	...
 240:	0000001c 	andeq	r0, r0, ip, lsl r0
 244:	470b0002 	strmi	r0, [fp, -r2]
 248:	00040000 	andeq	r0, r4, r0
 24c:	00000000 	andeq	r0, r0, r0
 250:	00009c2c 	andeq	r9, r0, ip, lsr #24
 254:	00000044 	andeq	r0, r0, r4, asr #32
	...
 260:	0000001c 	andeq	r0, r0, ip, lsl r0
 264:	48060002 	stmdami	r6, {r1}
 268:	00040000 	andeq	r0, r4, r0
 26c:	00000000 	andeq	r0, r0, r0
 270:	00009c70 	andeq	r9, r0, r0, ror ip
 274:	00000018 	andeq	r0, r0, r8, lsl r0
	...
 280:	0000001c 	andeq	r0, r0, ip, lsl r0
 284:	49190002 	ldmdbmi	r9, {r1}
 288:	00040000 	andeq	r0, r4, r0
 28c:	00000000 	andeq	r0, r0, r0
 290:	00009c88 	andeq	r9, r0, r8, lsl #25
 294:	00000030 	andeq	r0, r0, r0, lsr r0
	...
 2a0:	0000001c 	andeq	r0, r0, ip, lsl r0
 2a4:	4a6b0002 	bmi	1ac02b4 <__bss_end__+0x1ab5be4>
 2a8:	00040000 	andeq	r0, r4, r0
 2ac:	00000000 	andeq	r0, r0, r0
 2b0:	00009cb8 			; <UNDEFINED> instruction: 0x00009cb8
 2b4:	00000004 	andeq	r0, r0, r4
	...

Disassembly of section .debug_line:

00000000 <.debug_line>:
       0:	00000151 	andeq	r0, r0, r1, asr r1
       4:	00e20003 	rsceq	r0, r2, r3
       8:	01020000 	mrseq	r0, (UNDEF: 2)
       c:	000d0efb 	strdeq	r0, [sp], -fp
      10:	01010101 	tsteq	r1, r1, lsl #2
      14:	01000000 	mrseq	r0, (UNDEF: 0)
      18:	74010000 	strvc	r0, [r1], #-0
      1c:	73747365 	cmnvc	r4, #-1811939327	; 0x94000001
      20:	2f002e00 	svccs	0x00002e00
      24:	72657355 	rsbvc	r7, r5, #1409286145	; 0x54000001
      28:	696d2f73 	stmdbvs	sp!, {r0, r1, r4, r5, r6, r8, r9, sl, fp, sp}^
      2c:	2f73656c 	svccs	0x0073656c
      30:	72756f53 	rsbsvc	r6, r5, #332	; 0x14c
      34:	632f6563 			; <UNDEFINED> instruction: 0x632f6563
      38:	30343273 	eorscc	r3, r4, r3, ror r2
      3c:	6c2f786c 	stcvs	8, cr7, [pc], #-432	; fffffe94 <__bss_end__+0xffff57c4>
      40:	69706269 	ldmdbvs	r0!, {r0, r3, r5, r6, r9, sp, lr}^
      44:	636e692f 	cmnvs	lr, #770048	; 0xbc000
      48:	6564756c 	strbvs	r7, [r4, #-1388]!	; 0xfffffa94
      4c:	706f2f00 	rsbvc	r2, pc, r0, lsl #30
      50:	6f682f74 	svcvs	0x00682f74
      54:	7262656d 	rsbvc	r6, r2, #457179136	; 0x1b400000
      58:	432f7765 			; <UNDEFINED> instruction: 0x432f7765
      5c:	616c6c65 	cmnvs	ip, r5, ror #24
      60:	72612f72 	rsbvc	r2, r1, #456	; 0x1c8
      64:	6f6e2d6d 	svcvs	0x006e2d6d
      68:	652d656e 	strvs	r6, [sp, #-1390]!	; 0xfffffa92
      6c:	2d696261 	sfmcs	f6, 2, [r9, #-388]!	; 0xfffffe7c
      70:	2d392f39 	ldccs	15, cr2, [r9, #-228]!	; 0xffffff1c
      74:	39313032 	ldmdbcc	r1!, {r1, r4, r5, ip, sp}
      78:	632d3471 			; <UNDEFINED> instruction: 0x632d3471
      7c:	37303173 			; <UNDEFINED> instruction: 0x37303173
      80:	696c2f65 	stmdbvs	ip!, {r0, r2, r5, r6, r8, r9, sl, fp, sp}^
      84:	63672f62 	cmnvs	r7, #392	; 0x188
      88:	72612f63 	rsbvc	r2, r1, #396	; 0x18c
      8c:	6f6e2d6d 	svcvs	0x006e2d6d
      90:	652d656e 	strvs	r6, [sp, #-1390]!	; 0xfffffa92
      94:	2f696261 	svccs	0x00696261
      98:	2e322e39 	mrccs	14, 1, r2, cr2, cr9, {1}
      9c:	6e692f31 	mcrvs	15, 3, r2, cr9, cr1, {1}
      a0:	64756c63 	ldrbtvs	r6, [r5], #-3171	; 0xfffff39d
      a4:	70000065 	andvc	r0, r0, r5, rrx
      a8:	32747261 	rsbscc	r7, r4, #268435462	; 0x10000006
      ac:	7365742d 	cmnvc	r5, #754974720	; 0x2d000000
      b0:	632e3274 			; <UNDEFINED> instruction: 0x632e3274
      b4:	00000100 	andeq	r0, r0, r0, lsl #2
      b8:	2d637273 	sfmcs	f7, 2, [r3, #-460]!	; 0xfffffe34
      bc:	2e636f6c 	cdpcs	15, 6, cr6, cr3, cr12, {3}
      c0:	00020068 	andeq	r0, r2, r8, rrx
      c4:	69707200 	ldmdbvs	r0!, {r9, ip, sp, lr}^
      c8:	0300682e 	movweq	r6, #2094	; 0x82e
      cc:	74730000 	ldrbtvc	r0, [r3], #-0
      d0:	746e6964 	strbtvc	r6, [lr], #-2404	; 0xfffff69c
      d4:	6363672d 	cmnvs	r3, #11796480	; 0xb40000
      d8:	0400682e 	streq	r6, [r0], #-2094	; 0xfffff7d2
      dc:	6b630000 	blvs	18c00e4 <__bss_end__+0x18b5a14>
      e0:	6f6c6c61 	svcvs	0x006c6c61
      e4:	00682e63 	rsbeq	r2, r8, r3, ror #28
      e8:	00000002 	andeq	r0, r0, r2
      ec:	05001305 	streq	r1, [r0, #-773]	; 0xfffffcfb
      f0:	00803802 	addeq	r3, r0, r2, lsl #16
      f4:	01150300 	tsteq	r5, r0, lsl #6
      f8:	054b0205 	strbeq	r0, [fp, #-517]	; 0xfffffdfb
      fc:	04bb1405 	ldrteq	r1, [fp], #1029	; 0x405
     100:	030b0502 	movweq	r0, #46338	; 0xb502
     104:	05050172 	streq	r0, [r5, #-370]	; 0xfffffe8e
     108:	060c0513 			; <UNDEFINED> instruction: 0x060c0513
     10c:	0104ba01 	tsteq	r4, r1, lsl #20
     110:	0d031005 	stceq	0, cr1, [r3, #-20]	; 0xffffffec
     114:	820e0501 	andhi	r0, lr, #4194304	; 0x400000
     118:	2f060505 	svccs	0x00060505
     11c:	05020468 	streq	r0, [r2, #-1128]	; 0xfffffb98
     120:	016f030b 	cmneq	pc, fp, lsl #6
     124:	05130505 	ldreq	r0, [r3, #-1285]	; 0xfffffafb
     128:	8201060c 	andhi	r0, r1, #12, 12	; 0xc00000
     12c:	0e050104 	adfeqs	f0, f5, f4
     130:	05011003 	streq	r1, [r1, #-3]
     134:	31a00605 	lslcc	r0, r5, #12
     138:	13060105 	movwne	r0, #24837	; 0x6105
     13c:	06140566 	ldreq	r0, [r4], -r6, ror #10
     140:	dc020500 	cfstr32le	mvfx0, [r2], {-0}
     144:	15000080 	strne	r0, [r0, #-128]	; 0xffffff80
     148:	4e2f0505 	cfsh64mi	mvdx0, mvdx15, #5
     14c:	83060105 	movwhi	r0, #24837	; 0x6105
     150:	01000602 	tsteq	r0, r2, lsl #12
     154:	0002f001 	andeq	pc, r2, r1
     158:	e5000300 	str	r0, [r0, #-768]	; 0xfffffd00
     15c:	02000000 	andeq	r0, r0, #0, 0
     160:	0d0efb01 	vstreq	d15, [lr, #-4]
     164:	01010100 	mrseq	r0, (UNDEF: 17)
     168:	00000001 	andeq	r0, r0, r1
     16c:	01000001 	tsteq	r0, r1
     170:	74706f2f 	ldrbtvc	r6, [r0], #-3887	; 0xfffff0d1
     174:	6d6f682f 	stclvs	8, cr6, [pc, #-188]!	; c0 <__code_start__-0x7f40>
     178:	65726265 	ldrbvs	r6, [r2, #-613]!	; 0xfffffd9b
     17c:	65432f77 	strbvs	r2, [r3, #-3959]	; 0xfffff089
     180:	72616c6c 	rsbvc	r6, r1, #108, 24	; 0x6c00
     184:	6d72612f 	ldfvse	f6, [r2, #-188]!	; 0xffffff44
     188:	6e6f6e2d 	cdpvs	14, 6, cr6, cr15, cr13, {1}
     18c:	61652d65 	cmnvs	r5, r5, ror #26
     190:	392d6962 	pushcc	{r1, r5, r6, r8, fp, sp, lr}
     194:	322d392f 	eorcc	r3, sp, #770048	; 0xbc000
     198:	71393130 	teqvc	r9, r0, lsr r1
     19c:	73632d34 	cmnvc	r3, #52, 26	; 0xd00
     1a0:	65373031 	ldrvs	r3, [r7, #-49]!	; 0xffffffcf
     1a4:	62696c2f 	rsbvs	r6, r9, #12032	; 0x2f00
     1a8:	6363672f 	cmnvs	r3, #12320768	; 0xbc0000
     1ac:	6d72612f 	ldfvse	f6, [r2, #-188]!	; 0xffffff44
     1b0:	6e6f6e2d 	cdpvs	14, 6, cr6, cr15, cr13, {1}
     1b4:	61652d65 	cmnvs	r5, r5, ror #26
     1b8:	392f6962 	stmdbcc	pc!, {r1, r5, r6, r8, fp, sp, lr}	; <UNPREDICTABLE>
     1bc:	312e322e 			; <UNDEFINED> instruction: 0x312e322e
     1c0:	636e692f 	cmnvs	lr, #770048	; 0xbc000
     1c4:	6564756c 	strbvs	r7, [r4, #-1388]!	; 0xfffffa94
     1c8:	73552f00 	cmpvc	r5, #0, 30
     1cc:	2f737265 	svccs	0x00737265
     1d0:	656c696d 	strbvs	r6, [ip, #-2413]!	; 0xfffff693
     1d4:	6f532f73 	svcvs	0x00532f73
     1d8:	65637275 	strbvs	r7, [r3, #-629]!	; 0xfffffd8b
     1dc:	3273632f 	rsbscc	r6, r3, #-1140850688	; 0xbc000000
     1e0:	786c3034 	stmdavc	ip!, {r2, r4, r5, ip, sp}^
     1e4:	62696c2f 	rsbvs	r6, r9, #12032	; 0x2f00
     1e8:	692f6970 	stmdbvs	pc!, {r4, r5, r6, r8, fp, sp, lr}	; <UNPREDICTABLE>
     1ec:	756c636e 	strbvc	r6, [ip, #-878]!	; 0xfffffc92
     1f0:	00006564 	andeq	r6, r0, r4, ror #10
     1f4:	6c616b63 			; <UNDEFINED> instruction: 0x6c616b63
     1f8:	2e636f6c 	cdpcs	15, 6, cr6, cr3, cr12, {3}
     1fc:	00000063 	andeq	r0, r0, r3, rrx
     200:	616b6300 	cmnvs	fp, r0, lsl #6
     204:	636f6c6c 	cmnvs	pc, #108, 24	; 0x6c00
     208:	0000682e 	andeq	r6, r0, lr, lsr #16
     20c:	74730000 	ldrbtvc	r0, [r3], #-0
     210:	746e6964 	strbtvc	r6, [lr], #-2404	; 0xfffff69c
     214:	6363672d 	cmnvs	r3, #11796480	; 0xb40000
     218:	0100682e 	tsteq	r0, lr, lsr #16
     21c:	70720000 	rsbsvc	r0, r2, r0
     220:	00682e69 	rsbeq	r2, r8, r9, ror #28
     224:	73000002 	movwvc	r0, #2
     228:	6c2d6372 	stcvs	3, cr6, [sp], #-456	; 0xfffffe38
     22c:	682e636f 	stmdavs	lr!, {r0, r1, r2, r3, r5, r6, r8, r9, sp, lr}
     230:	00000000 	andeq	r0, r0, r0
     234:	6d2d726b 	sfmvs	f7, 4, [sp, #-428]!	; 0xfffffe54
     238:	6f6c6c61 	svcvs	0x006c6c61
     23c:	00682e63 	rsbeq	r2, r8, r3, ror #28
     240:	00000000 	andeq	r0, r0, r0
     244:	05000105 	streq	r0, [r0, #-261]	; 0xfffffefb
     248:	00810402 	addeq	r0, r1, r2, lsl #8
     24c:	010b0300 	mrseq	r0, (UNDEF: 59)
     250:	05130505 	ldreq	r0, [r3, #-1285]	; 0xfffffafb
     254:	06130601 	ldreq	r0, [r3], -r1, lsl #12
     258:	13050586 	movwne	r0, #21894	; 0x5586
     25c:	01060805 	tsteq	r6, r5, lsl #16
     260:	0609052e 	streq	r0, [r9], -lr, lsr #10
     264:	0611052f 	ldreq	r0, [r1], -pc, lsr #10
     268:	30010501 	andcc	r0, r1, r1, lsl #10
     26c:	2e230306 	cdpcs	3, 2, cr0, cr3, cr6, {0}
     270:	05050106 	streq	r0, [r5, #-262]	; 0xfffffefa
     274:	00014b06 	andeq	r4, r1, r6, lsl #22
     278:	66020402 	strvs	r0, [r2], -r2, lsl #8
     27c:	02040200 	andeq	r0, r4, #0, 4
     280:	04020001 	streq	r0, [r2], #-1
     284:	0c051302 	stceq	3, cr1, [r5], {2}
     288:	02040200 	andeq	r0, r4, #0, 4
     28c:	05050106 	streq	r0, [r5, #-262]	; 0xfffffefa
     290:	02040200 	andeq	r0, r4, #0, 4
     294:	08053006 	stmdaeq	r5, {r1, r2, ip, sp}
     298:	02040200 	andeq	r0, r4, #0, 4
     29c:	0b050106 	bleq	1406bc <__bss_end__+0x135fec>
     2a0:	11055106 	tstne	r5, r6, lsl #2
     2a4:	0b052e06 	bleq	14bac4 <__bss_end__+0x1413f4>
     2a8:	09052e2e 	stmdbeq	r5, {r1, r2, r3, r5, r9, sl, fp, sp}
     2ac:	0c053006 	stceq	0, cr3, [r5], {6}
     2b0:	0d050106 	stfeqs	f0, [r5, #-24]	; 0xffffffe8
     2b4:	1b054c06 	blne	1532d4 <__bss_end__+0x148c04>
     2b8:	18050106 	stmdane	r5, {r1, r2, r8}
     2bc:	060d052e 	streq	r0, [sp], -lr, lsr #10
     2c0:	0601052f 	streq	r0, [r1], -pc, lsr #10
     2c4:	00050517 	andeq	r0, r5, r7, lsl r5
     2c8:	06010402 	streq	r0, [r1], -r2, lsl #8
     2cc:	004a6c03 	subeq	r6, sl, r3, lsl #24
     2d0:	01010402 	tsteq	r1, r2, lsl #8
     2d4:	01040200 	mrseq	r0, R12_usr
     2d8:	02009e06 	andeq	r9, r0, #96	; 0x60
     2dc:	002e0104 	eoreq	r0, lr, r4, lsl #2
     2e0:	06010402 	streq	r0, [r1], -r2, lsl #8
     2e4:	3309052e 	movwcc	r0, #38190	; 0x952e
     2e8:	01060f05 	tsteq	r6, r5, lsl #30
     2ec:	052e0c05 	streq	r0, [lr, #-3077]!	; 0xfffff3fb
     2f0:	052f0609 	streq	r0, [pc, #-1545]!	; fffffcef <__bss_end__+0xffff561f>
     2f4:	2e0d0305 	cdpcs	3, 0, cr0, cr13, cr5, {0}
     2f8:	069e0601 	ldreq	r0, [lr], r1, lsl #12
     2fc:	0301052e 	movweq	r0, #5422	; 0x152e
     300:	0505ba4c 	streq	fp, [r5, #-2636]	; 0xfffff5b4
     304:	06010513 			; <UNDEFINED> instruction: 0x06010513
     308:	32062e13 	andcc	r2, r6, #304	; 0x130
     30c:	05050106 	streq	r0, [r5, #-262]	; 0xfffffefa
     310:	14054b06 	strne	r4, [r5], #-2822	; 0xfffff4fa
     314:	02040106 	andeq	r0, r4, #-2147483647	; 0x80000001
     318:	2f061805 	svccs	0x00061805
     31c:	05130505 	ldreq	r0, [r3, #-1285]	; 0xfffffafb
     320:	2e01060d 	cfmadd32cs	mvax0, mvfx0, mvfx1, mvfx13
     324:	01050104 	tsteq	r5, r4, lsl #2
     328:	054e0611 	strbeq	r0, [lr, #-1553]	; 0xfffff9ef
     32c:	27051305 	strcs	r1, [r5, -r5, lsl #6]
     330:	48050106 	stmdami	r5, {r1, r2, r8}
     334:	01040200 	mrseq	r0, R12_usr
     338:	0045054a 	subeq	r0, r5, sl, asr #10
     33c:	2e010402 	cdpcs	4, 0, cr0, cr1, cr2, {0}
     340:	02005705 	andeq	r5, r0, #1310720	; 0x140000
     344:	054a0104 	strbeq	r0, [sl, #-260]	; 0xfffffefc
     348:	04020027 	streq	r0, [r2], #-39	; 0xffffffd9
     34c:	4a4a4a01 	bmi	1292b58 <__bss_end__+0x1288488>
     350:	4b01052e 	blmi	41810 <__bss_end__+0x37140>
     354:	01063106 	tsteq	r6, r6, lsl #2
     358:	4c060505 	cfstr32mi	mvfx0, [r6], {5}
     35c:	05010a05 	streq	r0, [r1, #-2565]	; 0xfffff5fb
     360:	2e010615 	mcrcs	6, 0, r0, cr1, cr5, {0}
     364:	02002505 	andeq	r2, r0, #20971520	; 0x1400000
     368:	2e060104 	adfcss	f0, f6, f4
     36c:	02000505 	andeq	r0, r0, #20971520	; 0x1400000
     370:	01060104 	tsteq	r6, r4, lsl #2
     374:	4d060905 	vstrmi.16	s0, [r6, #-10]	; <UNPREDICTABLE>
     378:	01060d05 	tsteq	r6, r5, lsl #26
     37c:	2e0c054a 	cfsh32cs	mvfx0, mvfx12, #42
     380:	02002805 	andeq	r2, r0, #327680	; 0x50000
     384:	47060204 	strmi	r0, [r6, -r4, lsl #4]
     388:	02002c05 	andeq	r2, r0, #1280	; 0x500
     38c:	01060204 	tsteq	r6, r4, lsl #4
     390:	02040200 	andeq	r0, r4, #0, 4
     394:	060d0566 	streq	r0, [sp], -r6, ror #10
     398:	01068333 	tsteq	r6, r3, lsr r3
     39c:	06160105 	ldreq	r0, [r6], -r5, lsl #2
     3a0:	06661c03 	strbteq	r1, [r6], -r3, lsl #24
     3a4:	05058201 	streq	r8, [r5, #-513]	; 0xfffffdff
     3a8:	14132f06 	ldrne	r2, [r3], #-3846	; 0xfffff0fa
     3ac:	1366f201 	msrne	SPSR_sx, #268435456	; 0x10000000
     3b0:	01060a05 	tsteq	r6, r5, lsl #20
     3b4:	052e0805 	streq	r0, [lr, #-2053]!	; 0xfffff7fb
     3b8:	05670609 	strbeq	r0, [r7, #-1545]!	; 0xfffff9f7
     3bc:	0e051405 	cdpeq	4, 0, cr1, cr5, cr5, {0}
     3c0:	05050106 	streq	r0, [r5, #-262]	; 0xfffffefa
     3c4:	00014b06 	andeq	r4, r1, r6, lsl #22
     3c8:	82020402 	andhi	r0, r2, #33554432	; 0x2000000
     3cc:	02040200 	andeq	r0, r4, #0, 4
     3d0:	04020001 	streq	r0, [r2], #-1
     3d4:	02001402 	andeq	r1, r0, #33554432	; 0x2000000
     3d8:	05670204 	strbeq	r0, [r7, #-516]!	; 0xfffffdfc
     3dc:	04020001 	streq	r0, [r2], #-1
     3e0:	054b0602 	strbeq	r0, [fp, #-1538]	; 0xfffff9fe
     3e4:	79030609 	stmdbvc	r3, {r0, r3, r9, sl}
     3e8:	669e014a 	ldrvs	r0, [lr], sl, asr #2
     3ec:	02000505 	andeq	r0, r0, #20971520	; 0x1400000
     3f0:	00310104 	eorseq	r0, r1, r4, lsl #2
     3f4:	01010402 	tsteq	r1, r2, lsl #8
     3f8:	01040200 	mrseq	r0, R12_usr
     3fc:	030105d6 	movweq	r0, #5590	; 0x15d6
     400:	063c080a 	ldrteq	r0, [ip], -sl, lsl #16
     404:	06050501 	streq	r0, [r5], -r1, lsl #10
     408:	0610059f 			; <UNDEFINED> instruction: 0x0610059f
     40c:	05052e01 	streq	r2, [r5, #-3585]	; 0xfffff1ff
     410:	05684b06 	strbeq	r4, [r8, #-2822]!	; 0xfffff4fa
     414:	05010615 	streq	r0, [r1, #-1557]	; 0xfffff9eb
     418:	052f0605 	streq	r0, [pc, #-1541]!	; fffffe1b <__bss_end__+0xffff574b>
     41c:	0501060e 	streq	r0, [r1, #-1550]	; 0xfffff9f2
     420:	054b0605 	strbeq	r0, [fp, #-1541]	; 0xfffff9fb
     424:	05010612 	streq	r0, [r1, #-1554]	; 0xfffff9ee
     428:	01680605 	cmneq	r8, r5, lsl #12
     42c:	0513829e 	ldreq	r8, [r3, #-670]	; 0xfffffd62
     430:	0501060d 	streq	r0, [r1, #-1549]	; 0xfffff9f3
     434:	05670605 	strbeq	r0, [r7, #-1541]!	; 0xfffff9fb
     438:	05010610 	streq	r0, [r1, #-1552]	; 0xfffff9f0
     43c:	05300605 	ldreq	r0, [r0, #-1541]!	; 0xfffff9fb
     440:	66130601 	ldrvs	r0, [r3], -r1, lsl #12
     444:	01000602 	tsteq	r0, r2, lsl #12
     448:	00022701 	andeq	r2, r2, r1, lsl #14
     44c:	64000300 	strvs	r0, [r0], #-768	; 0xfffffd00
     450:	02000000 	andeq	r0, r0, #0, 0
     454:	0d0efb01 	vstreq	d15, [lr, #-4]
     458:	01010100 	mrseq	r0, (UNDEF: 17)
     45c:	00000001 	andeq	r0, r0, r1
     460:	01000001 	tsteq	r0, r1
     464:	6573552f 	ldrbvs	r5, [r3, #-1327]!	; 0xfffffad1
     468:	6d2f7372 	stcvs	3, cr7, [pc, #-456]!	; 2a8 <__code_start__-0x7d58>
     46c:	73656c69 	cmnvc	r5, #26880	; 0x6900
     470:	756f532f 	strbvc	r5, [pc, #-815]!	; 149 <__code_start__-0x7eb7>
     474:	2f656372 	svccs	0x00656372
     478:	34327363 	ldrtcc	r7, [r2], #-867	; 0xfffffc9d
     47c:	2f786c30 	svccs	0x00786c30
     480:	7062696c 	rsbvc	r6, r2, ip, ror #18
     484:	6e692f69 	cdpvs	15, 6, cr2, cr9, cr9, {3}
     488:	64756c63 	ldrbtvs	r6, [r5], #-3171	; 0xfffff39d
     48c:	6b000065 	blvs	628 <__code_start__-0x79d8>
     490:	616d2d72 	smcvs	53970	; 0xd2d2
     494:	636f6c6c 	cmnvs	pc, #108, 24	; 0x6c00
     498:	0000632e 	andeq	r6, r0, lr, lsr #6
     49c:	70720000 	rsbsvc	r0, r2, r0
     4a0:	00682e69 	rsbeq	r2, r8, r9, ror #28
     4a4:	6b000001 	blvs	4b0 <__code_start__-0x7b50>
     4a8:	616d2d72 	smcvs	53970	; 0xd2d2
     4ac:	636f6c6c 	cmnvs	pc, #108, 24	; 0x6c00
     4b0:	0000682e 	andeq	r6, r0, lr, lsr #16
     4b4:	05000000 	streq	r0, [r0, #-0]
     4b8:	02050001 	andeq	r0, r5, #1, 0
     4bc:	000083f8 	strdeq	r8, [r0], -r8	; <UNPREDICTABLE>
     4c0:	0100d203 	tsteq	r0, r3, lsl #4
     4c4:	02050106 	andeq	r0, r5, #-2147483647	; 0x80000001
     4c8:	05132f06 	ldreq	r2, [r3, #-3846]	; 0xfffff0fa
     4cc:	05010605 	streq	r0, [r1, #-1541]	; 0xfffff9fb
     4d0:	052f0602 	streq	r0, [pc, #-1538]!	; fffffed6 <__bss_end__+0xffff5806>
     4d4:	05010609 	streq	r0, [r1, #-1545]	; 0xfffff9f7
     4d8:	052e4a02 	streq	r4, [lr, #-2562]!	; 0xfffff5fe
     4dc:	04020012 	streq	r0, [r2], #-18	; 0xffffffee
     4e0:	052e0601 	streq	r0, [lr, #-1537]!	; 0xfffff9ff
     4e4:	04020002 	streq	r0, [r2], #-2
     4e8:	05010601 	streq	r0, [r1, #-1537]	; 0xfffff9ff
     4ec:	04020027 	streq	r0, [r2], #-39	; 0xffffffd9
     4f0:	12054a03 	andne	r4, r5, #12288	; 0x3000
     4f4:	03040200 	movweq	r0, #16896	; 0x4200
     4f8:	0603052e 	streq	r0, [r3], -lr, lsr #10
     4fc:	0610054b 	ldreq	r0, [r0], -fp, asr #10
     500:	2e060501 	cfsh32cs	mvfx0, mvfx6, #1
     504:	02001505 	andeq	r1, r0, #20971520	; 0x1400000
     508:	054a0104 	strbeq	r0, [sl, #-260]	; 0xfffffefc
     50c:	04020020 	streq	r0, [r2], #-32	; 0xffffffe0
     510:	02004a02 	andeq	r4, r0, #8192	; 0x2000
     514:	054a0204 	strbeq	r0, [sl, #-516]	; 0xfffffdfc
     518:	05300602 	ldreq	r0, [r0, #-1538]!	; 0xfffff9fe
     51c:	05010610 	streq	r0, [r1, #-1552]	; 0xfffff9f0
     520:	1d052e09 	stcne	14, cr2, [r5, #-36]	; 0xffffffdc
     524:	2e05052e 	cfsh32cs	mvfx0, mvfx5, #30
     528:	50060305 	andpl	r0, r6, r5, lsl #6
     52c:	01060d05 	tsteq	r6, r5, lsl #26
     530:	2f060205 	svccs	0x00060205
     534:	01060e05 	tsteq	r6, r5, lsl #28
     538:	052e0805 	streq	r0, [lr, #-2053]!	; 0xfffff7fb
     53c:	03052e05 	movweq	r2, #24069	; 0x5e05
     540:	0c055006 	stceq	0, cr5, [r5], {6}
     544:	02050106 	andeq	r0, r5, #-2147483647	; 0x80000001
     548:	08052f06 	stmdaeq	r5, {r1, r2, r8, r9, sl, fp, sp}
     54c:	01050106 	tsteq	r5, r6, lsl #2
     550:	0603054b 	streq	r0, [r3], -fp, asr #10
     554:	052e7303 	streq	r7, [lr, #-771]!	; 0xfffffcfd
     558:	0501061c 	streq	r0, [r1, #-1564]	; 0xfffff9e4
     55c:	03052e0e 	movweq	r2, #24078	; 0x5e0e
     560:	13054b06 	movwne	r4, #23302	; 0x5b06
     564:	1a050106 	bne	140984 <__bss_end__+0x1362b4>
     568:	2e0d052e 	cfsh32cs	mvfx0, mvfx13, #30
     56c:	50060305 	andpl	r0, r6, r5, lsl #6
     570:	01061505 	tsteq	r6, r5, lsl #10
     574:	052e0d05 	streq	r0, [lr, #-3333]!	; 0xfffff2fb
     578:	054b0603 	strbeq	r0, [fp, #-1539]	; 0xfffff9fd
     57c:	05010613 	streq	r0, [r1, #-1555]	; 0xfffff9ed
     580:	01052e0c 	tsteq	r5, ip, lsl #28
     584:	7fba0306 	svcvc	0x00ba0306
     588:	05010666 	streq	r0, [r1, #-1638]	; 0xfffff99a
     58c:	054b0602 	strbeq	r0, [fp, #-1538]	; 0xfffff9fe
     590:	05010605 	streq	r0, [r1, #-1541]	; 0xfffff9fb
     594:	02052f06 	andeq	r2, r5, #6, 30
     598:	0d052f06 	stceq	15, cr2, [r5, #-24]	; 0xffffffe8
     59c:	02050106 	andeq	r0, r5, #-2147483647	; 0x80000001
     5a0:	05054b06 	streq	r4, [r5, #-2822]	; 0xfffff4fa
     5a4:	02050106 	andeq	r0, r5, #-2147483647	; 0x80000001
     5a8:	05134c06 	ldreq	r4, [r3, #-3078]	; 0xfffff3fa
     5ac:	0501060d 	streq	r0, [r1, #-1549]	; 0xfffff9f3
     5b0:	062f0602 	strteq	r0, [pc], -r2, lsl #12
     5b4:	052f062e 	streq	r0, [pc, #-1582]!	; ffffff8e <__bss_end__+0xffff58be>
     5b8:	05010609 	streq	r0, [r1, #-1545]	; 0xfffff9f7
     5bc:	0105620a 	tsteq	r5, sl, lsl #4
     5c0:	064e0633 			; <UNDEFINED> instruction: 0x064e0633
     5c4:	06020501 	streq	r0, [r2], -r1, lsl #10
     5c8:	0514132f 	ldreq	r1, [r4, #-815]	; 0xfffffcd1
     5cc:	05010624 	streq	r0, [r1, #-1572]	; 0xfffff9dc
     5d0:	09052e29 	stmdbeq	r5, {r0, r3, r5, r9, sl, fp, sp}
     5d4:	0602052e 	streq	r0, [r2], -lr, lsr #10
     5d8:	060d052f 	streq	r0, [sp], -pc, lsr #10
     5dc:	4a050501 	bmi	1419e8 <__bss_end__+0x137318>
     5e0:	50060205 	andpl	r0, r6, r5, lsl #4
     5e4:	01060905 	tsteq	r6, r5, lsl #18
     5e8:	0603052e 	streq	r0, [r3], -lr, lsr #10
     5ec:	0616052a 	ldreq	r0, [r6], -sl, lsr #10
     5f0:	4a0e0501 	bmi	3819fc <__bss_end__+0x37732c>
     5f4:	2f060305 	svccs	0x00060305
     5f8:	01060f05 	tsteq	r6, r5, lsl #30
     5fc:	6d060405 	cfstrsvs	mvf0, [r6, #-20]	; 0xffffffec
     600:	01060705 	tsteq	r6, r5, lsl #14
     604:	34060505 	strcc	r0, [r6], #-1285	; 0xfffffafb
     608:	01060f05 	tsteq	r6, r5, lsl #30
     60c:	4b060505 	blmi	181a28 <__bss_end__+0x177358>
     610:	01060705 	tsteq	r6, r5, lsl #14
     614:	2f060505 	svccs	0x00060505
     618:	01060f05 	tsteq	r6, r5, lsl #30
     61c:	30060405 	andcc	r0, r6, r5, lsl #8
     620:	01060a05 	tsteq	r6, r5, lsl #20
     624:	4b060405 	blmi	181640 <__bss_end__+0x176f70>
     628:	01060b05 	tsteq	r6, r5, lsl #22
     62c:	0605052e 	streq	r0, [r5], -lr, lsr #10
     630:	052e7703 	streq	r7, [lr, #-1795]!	; 0xfffff8fd
     634:	05010618 	streq	r0, [r1, #-1560]	; 0xfffff9e8
     638:	1a052e12 	bne	14be88 <__bss_end__+0x1417b8>
     63c:	4a7a0306 	bmi	1e8125c <__bss_end__+0x1e76b8c>
     640:	05011805 	streq	r1, [r1, #-2053]	; 0xfffff7fb
     644:	05010620 	streq	r0, [r1, #-1568]	; 0xfffff9e0
     648:	03052e27 	movweq	r2, #24103	; 0x5e27
     64c:	0b053006 	bleq	14c66c <__bss_end__+0x141f9c>
     650:	06050106 	streq	r0, [r5], -r6, lsl #2
     654:	0603052e 	streq	r0, [r3], -lr, lsr #10
     658:	054a0f03 	strbeq	r0, [sl, #-3843]	; 0xfffff0fd
     65c:	05010609 	streq	r0, [r1, #-1545]	; 0xfffff9f7
     660:	04054a06 	streq	r4, [r5], #-2566	; 0xfffff5fa
     664:	0d054c06 	stceq	12, cr4, [r5, #-24]	; 0xffffffe8
     668:	052e0106 	streq	r0, [lr, #-262]!	; 0xfffffefa
     66c:	022e2e07 	eoreq	r2, lr, #112	; 0x70
     670:	01010006 	tsteq	r1, r6
     674:	00000211 	andeq	r0, r0, r1, lsl r2
     678:	00d40003 	sbcseq	r0, r4, r3
     67c:	01020000 	mrseq	r0, (UNDEF: 2)
     680:	000d0efb 	strdeq	r0, [sp], -fp
     684:	01010101 	tsteq	r1, r1, lsl #2
     688:	01000000 	mrseq	r0, (UNDEF: 0)
     68c:	2f010000 	svccs	0x00010000
     690:	2f74706f 	svccs	0x0074706f
     694:	656d6f68 	strbvs	r6, [sp, #-3944]!	; 0xfffff098
     698:	77657262 	strbvc	r7, [r5, -r2, ror #4]!
     69c:	6c65432f 	stclvs	3, cr4, [r5], #-188	; 0xffffff44
     6a0:	2f72616c 	svccs	0x0072616c
     6a4:	2d6d7261 	sfmcs	f7, 2, [sp, #-388]!	; 0xfffffe7c
     6a8:	656e6f6e 	strbvs	r6, [lr, #-3950]!	; 0xfffff092
     6ac:	6261652d 	rsbvs	r6, r1, #188743680	; 0xb400000
     6b0:	2f392d69 	svccs	0x00392d69
     6b4:	30322d39 	eorscc	r2, r2, r9, lsr sp
     6b8:	34713931 	ldrbtcc	r3, [r1], #-2353	; 0xfffff6cf
     6bc:	3173632d 	cmncc	r3, sp, lsr #6
     6c0:	2f653730 	svccs	0x00653730
     6c4:	2f62696c 	svccs	0x0062696c
     6c8:	2f636367 	svccs	0x00636367
     6cc:	2d6d7261 	sfmcs	f7, 2, [sp, #-388]!	; 0xfffffe7c
     6d0:	656e6f6e 	strbvs	r6, [lr, #-3950]!	; 0xfffff092
     6d4:	6261652d 	rsbvs	r6, r1, #188743680	; 0xb400000
     6d8:	2e392f69 	cdpcs	15, 3, cr2, cr9, cr9, {3}
     6dc:	2f312e32 	svccs	0x00312e32
     6e0:	6c636e69 	stclvs	14, cr6, [r3], #-420	; 0xfffffe5c
     6e4:	00656475 	rsbeq	r6, r5, r5, ror r4
     6e8:	6573552f 	ldrbvs	r5, [r3, #-1327]!	; 0xfffffad1
     6ec:	6d2f7372 	stcvs	3, cr7, [pc, #-456]!	; 52c <__code_start__-0x7ad4>
     6f0:	73656c69 	cmnvc	r5, #26880	; 0x6900
     6f4:	756f532f 	strbvc	r5, [pc, #-815]!	; 3cd <__code_start__-0x7c33>
     6f8:	2f656372 	svccs	0x00656372
     6fc:	34327363 	ldrtcc	r7, [r2], #-867	; 0xfffffc9d
     700:	2f786c30 	svccs	0x00786c30
     704:	7062696c 	rsbvc	r6, r2, ip, ror #18
     708:	6e692f69 	cdpvs	15, 6, cr2, cr9, cr9, {3}
     70c:	64756c63 	ldrbtvs	r6, [r5], #-3171	; 0xfffff39d
     710:	63000065 	movwvs	r0, #101	; 0x65
     714:	63672d6b 	cmnvs	r7, #6848	; 0x1ac0
     718:	0000632e 	andeq	r6, r0, lr, lsr #6
     71c:	74730000 	ldrbtvc	r0, [r3], #-0
     720:	746e6964 	strbtvc	r6, [lr], #-2404	; 0xfffff69c
     724:	6363672d 	cmnvs	r3, #11796480	; 0xb40000
     728:	0100682e 	tsteq	r0, lr, lsr #16
     72c:	70720000 	rsbsvc	r0, r2, r0
     730:	00682e69 	rsbeq	r2, r8, r9, ror #28
     734:	73000002 	movwvc	r0, #2
     738:	6c2d6372 	stcvs	3, cr6, [sp], #-456	; 0xfffffe38
     73c:	682e636f 	stmdavs	lr!, {r0, r1, r2, r3, r5, r6, r8, r9, sp, lr}
     740:	00000000 	andeq	r0, r0, r0
     744:	6c616b63 			; <UNDEFINED> instruction: 0x6c616b63
     748:	2e636f6c 	cdpcs	15, 6, cr6, cr3, cr12, {3}
     74c:	00000068 	andeq	r0, r0, r8, rrx
     750:	1c050000 	stcne	0, cr0, [r5], {-0}
     754:	a4020500 	strge	r0, [r2], #-1280	; 0xfffffb00
     758:	03000085 	movweq	r0, #133	; 0x85
     75c:	050100f0 	streq	r0, [r1, #-240]	; 0xffffff10
     760:	09054e05 	stmdbeq	r5, {r0, r2, r9, sl, fp, lr}
     764:	06140501 	ldreq	r0, [r4], -r1, lsl #10
     768:	00240501 	eoreq	r0, r4, r1, lsl #10
     76c:	06010402 	streq	r0, [r1], -r2, lsl #8
     770:	0005052e 	andeq	r0, r5, lr, lsr #10
     774:	06010402 	streq	r0, [r1], -r2, lsl #8
     778:	00090501 	andeq	r0, r9, r1, lsl #10
     77c:	06030402 	streq	r0, [r3], -r2, lsl #8
     780:	0032054b 	eorseq	r0, r2, fp, asr #10
     784:	06030402 	streq	r0, [r3], -r2, lsl #8
     788:	00210501 	eoreq	r0, r1, r1, lsl #10
     78c:	4a030402 	bmi	c179c <__bss_end__+0xb70cc>
     790:	02001105 	andeq	r1, r0, #1073741825	; 0x40000001
     794:	052e0304 	streq	r0, [lr, #-772]!	; 0xfffffcfc
     798:	04020027 	streq	r0, [r2], #-39	; 0xffffffd9
     79c:	052d0603 	streq	r0, [sp, #-1539]!	; 0xfffff9fd
     7a0:	0402002b 	streq	r0, [r2], #-43	; 0xffffffd5
     7a4:	00010603 	andeq	r0, r1, r3, lsl #12
     7a8:	2e030402 	cdpcs	4, 0, cr0, cr3, cr2, {0}
     7ac:	03040200 	movweq	r0, #16896	; 0x4200
     7b0:	0605052e 	streq	r0, [r5], -lr, lsr #10
     7b4:	2e061318 	mcrcs	3, 0, r1, cr6, cr8, {0}
     7b8:	0d053006 	stceq	0, cr3, [r5, #-24]	; 0xffffffe8
     7bc:	05050106 	streq	r0, [r5, #-262]	; 0xfffffefa
     7c0:	0d054b06 	vstreq	d4, [r5, #-24]	; 0xffffffe8
     7c4:	05050106 	streq	r0, [r5, #-262]	; 0xfffffefa
     7c8:	0d052f06 	stceq	15, cr2, [r5, #-24]	; 0xffffffe8
     7cc:	05050106 	streq	r0, [r5, #-262]	; 0xfffffefa
     7d0:	0d052f06 	stceq	15, cr2, [r5, #-24]	; 0xffffffe8
     7d4:	05050106 	streq	r0, [r5, #-262]	; 0xfffffefa
     7d8:	9e013006 	cdpls	0, 0, cr3, cr1, cr6, {0}
     7dc:	90031c05 	andls	r1, r3, r5, lsl #24
     7e0:	0106827f 	tsteq	r6, pc, ror r2
     7e4:	4b060505 	blmi	181c00 <__bss_end__+0x177530>
     7e8:	02000114 	andeq	r0, r0, #5
     7ec:	004a0204 	subeq	r0, sl, r4, lsl #4
     7f0:	01020402 	tsteq	r2, r2, lsl #8
     7f4:	02040200 	andeq	r0, r4, #0, 4
     7f8:	00080513 	andeq	r0, r8, r3, lsl r5
     7fc:	06020402 	streq	r0, [r2], -r2, lsl #8
     800:	00070501 	andeq	r0, r7, r1, lsl #10
     804:	4a020402 	bmi	81814 <__bss_end__+0x77144>
     808:	4b060905 	blmi	182c24 <__bss_end__+0x178554>
     80c:	13131314 	tstne	r3, #20, 6	; 0x50000000
     810:	2f064a06 	svccs	0x00064a06
     814:	01061005 	tsteq	r6, r5
     818:	68060505 	stmdavs	r6, {r0, r2, r8, sl}
     81c:	01060c05 	tsteq	r6, r5, lsl #24
     820:	054b0105 	strbeq	r0, [fp, #-261]	; 0xfffffefb
     824:	04020005 	streq	r0, [r2], #-5
     828:	75030601 	strvc	r0, [r3, #-1537]	; 0xfffff9ff
     82c:	0402004a 	streq	r0, [r2], #-74	; 0xffffffb6
     830:	02000101 	andeq	r0, r0, #1073741824	; 0x40000000
     834:	ba060104 	blt	180c4c <__bss_end__+0x17657c>
     838:	01040200 	mrseq	r0, R12_usr
     83c:	09052e06 	stmdbeq	r5, {r1, r2, r9, sl, fp, sp}
     840:	82060130 	andhi	r0, r6, #12
     844:	31052e06 	tstcc	r5, r6, lsl #28
     848:	d6018103 	strle	r8, [r1], -r3, lsl #2
     84c:	05050106 	streq	r0, [r5, #-262]	; 0xfffffefa
     850:	2e062f06 	cdpcs	15, 0, cr2, cr6, cr6, {0}
     854:	00061a05 	andeq	r1, r6, r5, lsl #20
     858:	86b00205 	ldrthi	r0, [r0], r5, lsl #4
     85c:	05170000 	ldreq	r0, [r7, #-0]
     860:	05133205 	ldreq	r3, [r3, #-517]	; 0xfffffdfb
     864:	05010608 	streq	r0, [r1, #-1544]	; 0xfffff9f8
     868:	05520622 	ldrbeq	r0, [r2, #-1570]	; 0xfffff9de
     86c:	05133205 	ldreq	r3, [r3, #-517]	; 0xfffffdfb
     870:	05010617 	streq	r0, [r1, #-1559]	; 0xfffff9e9
     874:	16030616 			; <UNDEFINED> instruction: 0x16030616
     878:	2f05054a 	svccs	0x0005054a
     87c:	05361b05 	ldreq	r1, [r6, #-2821]!	; 0xfffff4fb
     880:	9e012f05 	cdpls	15, 0, cr2, cr1, cr5, {0}
     884:	01000802 	tsteq	r0, r2, lsl #16
     888:	00012101 	andeq	r2, r1, r1, lsl #2
     88c:	be000300 	cdplt	3, 0, cr0, cr0, cr0, {0}
     890:	02000000 	andeq	r0, r0, #0, 0
     894:	0d0efb01 	vstreq	d15, [lr, #-4]
     898:	01010100 	mrseq	r0, (UNDEF: 17)
     89c:	00000001 	andeq	r0, r0, r1
     8a0:	01000001 	tsteq	r0, r1
     8a4:	696c2f2e 	stmdbvs	ip!, {r1, r2, r3, r5, r8, r9, sl, fp, sp}^
     8a8:	2f006362 	svccs	0x00006362
     8ac:	72657355 	rsbvc	r7, r5, #1409286145	; 0x54000001
     8b0:	696d2f73 	stmdbvs	sp!, {r0, r1, r4, r5, r6, r8, r9, sl, fp, sp}^
     8b4:	2f73656c 	svccs	0x0073656c
     8b8:	72756f53 	rsbsvc	r6, r5, #332	; 0x14c
     8bc:	632f6563 			; <UNDEFINED> instruction: 0x632f6563
     8c0:	30343273 	eorscc	r3, r4, r3, ror r2
     8c4:	6c2f786c 	stcvs	8, cr7, [pc], #-432	; 71c <__code_start__-0x78e4>
     8c8:	69706269 	ldmdbvs	r0!, {r0, r3, r5, r6, r9, sp, lr}^
     8cc:	636e692f 	cmnvs	lr, #770048	; 0xbc000
     8d0:	6564756c 	strbvs	r7, [r4, #-1388]!	; 0xfffffa94
     8d4:	706f2f00 	rsbvc	r2, pc, r0, lsl #30
     8d8:	6f682f74 	svcvs	0x00682f74
     8dc:	7262656d 	rsbvc	r6, r2, #457179136	; 0x1b400000
     8e0:	432f7765 			; <UNDEFINED> instruction: 0x432f7765
     8e4:	616c6c65 	cmnvs	ip, r5, ror #24
     8e8:	72612f72 	rsbvc	r2, r1, #456	; 0x1c8
     8ec:	6f6e2d6d 	svcvs	0x006e2d6d
     8f0:	652d656e 	strvs	r6, [sp, #-1390]!	; 0xfffffa92
     8f4:	2d696261 	sfmcs	f6, 2, [r9, #-388]!	; 0xfffffe7c
     8f8:	2d392f39 	ldccs	15, cr2, [r9, #-228]!	; 0xffffff1c
     8fc:	39313032 	ldmdbcc	r1!, {r1, r4, r5, ip, sp}
     900:	632d3471 			; <UNDEFINED> instruction: 0x632d3471
     904:	37303173 			; <UNDEFINED> instruction: 0x37303173
     908:	696c2f65 	stmdbvs	ip!, {r0, r2, r5, r6, r8, r9, sl, fp, sp}^
     90c:	63672f62 	cmnvs	r7, #392	; 0x188
     910:	72612f63 	rsbvc	r2, r1, #396	; 0x18c
     914:	6f6e2d6d 	svcvs	0x006e2d6d
     918:	652d656e 	strvs	r6, [sp, #-1390]!	; 0xfffffa92
     91c:	2f696261 	svccs	0x00696261
     920:	2e322e39 	mrccs	14, 1, r2, cr2, cr9, {1}
     924:	6e692f31 	mcrvs	15, 3, r2, cr9, cr1, {1}
     928:	64756c63 	ldrbtvs	r6, [r5], #-3171	; 0xfffff39d
     92c:	6d000065 	stcvs	0, cr0, [r0, #-404]	; 0xfffffe6c
     930:	65736d65 	ldrbvs	r6, [r3, #-3429]!	; 0xfffff29b
     934:	00632e74 	rsbeq	r2, r3, r4, ror lr
     938:	72000001 	andvc	r0, r0, #1, 0
     93c:	682e6970 	stmdavs	lr!, {r4, r5, r6, r8, fp, sp, lr}
     940:	00000200 	andeq	r0, r0, r0, lsl #4
     944:	64647473 	strbtvs	r7, [r4], #-1139	; 0xfffffb8d
     948:	682e6665 	stmdavs	lr!, {r0, r2, r5, r6, r9, sl, sp, lr}
     94c:	00000300 	andeq	r0, r0, r0, lsl #6
     950:	00290500 	eoreq	r0, r9, r0, lsl #10
     954:	87000205 	strhi	r0, [r0, -r5, lsl #4]
     958:	05150000 	ldreq	r0, [r5, #-0]
     95c:	29051305 	stmdbcs	r5, {r0, r2, r8, r9, ip}
     960:	14051106 	strne	r1, [r5], #-262	; 0xfffffefa
     964:	0605052f 	streq	r0, [r5], -pc, lsr #10
     968:	010a0530 	tsteq	sl, r0, lsr r5
     96c:	09059e06 	stmdbeq	r5, {r1, r2, r9, sl, fp, ip, pc}
     970:	0e05d706 	cdpeq	7, 0, cr13, cr5, cr6, {0}
     974:	0a050106 	beq	140d94 <__bss_end__+0x1366c4>
     978:	09052d06 	stmdbeq	r5, {r1, r2, r8, sl, fp, sp}
     97c:	060e05bb 			; <UNDEFINED> instruction: 0x060e05bb
     980:	0a052e01 	beq	14c18c <__bss_end__+0x141abc>
     984:	09052d06 	stmdbeq	r5, {r1, r2, r8, sl, fp, sp}
     988:	060b054b 	streq	r0, [fp], -fp, asr #10
     98c:	2d0a0501 	cfstr32cs	mvfx0, [sl, #-4]
     990:	052f0e05 	streq	r0, [pc, #-3589]!	; fffffb93 <__bss_end__+0xffff54c3>
     994:	052d060a 	streq	r0, [sp, #-1546]!	; 0xfffff9f6
     998:	0513060e 	ldreq	r0, [r3, #-1550]	; 0xfffff9f2
     99c:	052e0609 	streq	r0, [lr, #-1545]!	; 0xfffff9f7
     9a0:	0505110a 	streq	r1, [r5, #-266]	; 0xfffffef6
     9a4:	06010514 			; <UNDEFINED> instruction: 0x06010514
     9a8:	00020213 	andeq	r0, r2, r3, lsl r2
     9ac:	01200101 			; <UNDEFINED> instruction: 0x01200101
     9b0:	00030000 	andeq	r0, r3, r0
     9b4:	000000db 	ldrdeq	r0, [r0], -fp
     9b8:	0efb0102 	cdpeq	1, 15, cr0, cr11, cr2, {0}
     9bc:	0101000d 	tsteq	r1, sp
     9c0:	00000101 	andeq	r0, r0, r1, lsl #2
     9c4:	00000100 	andeq	r0, r0, r0, lsl #2
     9c8:	6c2f2e01 	stcvs	14, cr2, [pc], #-4	; 9cc <__code_start__-0x7634>
     9cc:	00636269 	rsbeq	r6, r3, r9, ror #4
     9d0:	74706f2f 	ldrbtvc	r6, [r0], #-3887	; 0xfffff0d1
     9d4:	6d6f682f 	stclvs	8, cr6, [pc, #-188]!	; 920 <__code_start__-0x76e0>
     9d8:	65726265 	ldrbvs	r6, [r2, #-613]!	; 0xfffffd9b
     9dc:	65432f77 	strbvs	r2, [r3, #-3959]	; 0xfffff089
     9e0:	72616c6c 	rsbvc	r6, r1, #108, 24	; 0x6c00
     9e4:	6d72612f 	ldfvse	f6, [r2, #-188]!	; 0xffffff44
     9e8:	6e6f6e2d 	cdpvs	14, 6, cr6, cr15, cr13, {1}
     9ec:	61652d65 	cmnvs	r5, r5, ror #26
     9f0:	392d6962 	pushcc	{r1, r5, r6, r8, fp, sp, lr}
     9f4:	322d392f 	eorcc	r3, sp, #770048	; 0xbc000
     9f8:	71393130 	teqvc	r9, r0, lsr r1
     9fc:	73632d34 	cmnvc	r3, #52, 26	; 0xd00
     a00:	65373031 	ldrvs	r3, [r7, #-49]!	; 0xffffffcf
     a04:	62696c2f 	rsbvs	r6, r9, #12032	; 0x2f00
     a08:	6363672f 	cmnvs	r3, #12320768	; 0xbc0000
     a0c:	6d72612f 	ldfvse	f6, [r2, #-188]!	; 0xffffff44
     a10:	6e6f6e2d 	cdpvs	14, 6, cr6, cr15, cr13, {1}
     a14:	61652d65 	cmnvs	r5, r5, ror #26
     a18:	392f6962 	stmdbcc	pc!, {r1, r5, r6, r8, fp, sp, lr}	; <UNPREDICTABLE>
     a1c:	312e322e 			; <UNDEFINED> instruction: 0x312e322e
     a20:	636e692f 	cmnvs	lr, #770048	; 0xbc000
     a24:	6564756c 	strbvs	r7, [r4, #-1388]!	; 0xfffffa94
     a28:	73552f00 	cmpvc	r5, #0, 30
     a2c:	2f737265 	svccs	0x00737265
     a30:	656c696d 	strbvs	r6, [ip, #-2413]!	; 0xfffff693
     a34:	6f532f73 	svcvs	0x00532f73
     a38:	65637275 	strbvs	r7, [r3, #-629]!	; 0xfffffd8b
     a3c:	3273632f 	rsbscc	r6, r3, #-1140850688	; 0xbc000000
     a40:	786c3034 	stmdavc	ip!, {r2, r4, r5, ip, sp}^
     a44:	62696c2f 	rsbvs	r6, r9, #12032	; 0x2f00
     a48:	692f6970 	stmdbvs	pc!, {r4, r5, r6, r8, fp, sp, lr}	; <UNPREDICTABLE>
     a4c:	756c636e 	strbvc	r6, [ip, #-878]!	; 0xfffffc92
     a50:	00006564 	andeq	r6, r0, r4, ror #10
     a54:	6e697270 	mcrvs	2, 3, r7, cr9, cr0, {3}
     a58:	632e6b74 			; <UNDEFINED> instruction: 0x632e6b74
     a5c:	00000100 	andeq	r0, r0, r0, lsl #2
     a60:	61647473 	smcvs	18243	; 0x4743
     a64:	682e6772 	stmdavs	lr!, {r1, r4, r5, r6, r8, r9, sl, sp, lr}
     a68:	00000200 	andeq	r0, r0, r0, lsl #4
     a6c:	2e697072 	mcrcs	0, 3, r7, cr9, cr2, {3}
     a70:	00030068 	andeq	r0, r3, r8, rrx
     a74:	75623c00 	strbvc	r3, [r2, #-3072]!	; 0xfffff400
     a78:	2d746c69 	ldclcs	12, cr6, [r4, #-420]!	; 0xfffffe5c
     a7c:	003e6e69 	eorseq	r6, lr, r9, ror #28
     a80:	76000000 	strvc	r0, [r0], -r0
     a84:	72702d61 	rsbsvc	r2, r0, #6208	; 0x1840
     a88:	6b746e69 	blvs	1d1c434 <__bss_end__+0x1d11d64>
     a8c:	0100682e 	tsteq	r0, lr, lsr #16
     a90:	05000000 	streq	r0, [r0, #-0]
     a94:	02050022 	andeq	r0, r5, #34, 0	; 0x22
     a98:	00008778 	andeq	r8, r0, r8, ror r7
     a9c:	14050517 	strne	r0, [r5], #-1303	; 0xfffffae9
     aa0:	22051413 	andcs	r1, r5, #318767104	; 0x13000000
     aa4:	12050d06 	andne	r0, r5, #384	; 0x180
     aa8:	03220550 			; <UNDEFINED> instruction: 0x03220550
     aac:	05052e7a 	streq	r2, [r5, #-3706]	; 0xfffff186
     ab0:	2f120533 	svccs	0x00120533
     ab4:	05650505 	strbeq	r0, [r5, #-1285]!	; 0xfffffafb
     ab8:	052f0609 	streq	r0, [pc, #-1545]!	; 4b7 <__code_start__-0x7b49>
     abc:	05010612 	streq	r0, [r1, #-1554]	; 0xfffff9ee
     ac0:	164b0605 	strbne	r0, [fp], -r5, lsl #12
     ac4:	50064a06 	andpl	r4, r6, r6, lsl #20
     ac8:	13060105 	movwne	r0, #24837	; 0x6105
     acc:	00080266 	andeq	r0, r8, r6, ror #4
     ad0:	00a00101 	adceq	r0, r0, r1, lsl #2
     ad4:	00030000 	andeq	r0, r3, r0
     ad8:	00000057 	andeq	r0, r0, r7, asr r0
     adc:	0efb0102 	cdpeq	1, 15, cr0, cr11, cr2, {0}
     ae0:	0101000d 	tsteq	r1, sp
     ae4:	00000101 	andeq	r0, r0, r1, lsl #2
     ae8:	00000100 	andeq	r0, r0, r0, lsl #2
     aec:	6c2f2e01 	stcvs	14, cr2, [pc], #-4	; af0 <__code_start__-0x7510>
     af0:	00636269 	rsbeq	r6, r3, r9, ror #4
     af4:	6573552f 	ldrbvs	r5, [r3, #-1327]!	; 0xfffffad1
     af8:	6d2f7372 	stcvs	3, cr7, [pc, #-456]!	; 938 <__code_start__-0x76c8>
     afc:	73656c69 	cmnvc	r5, #26880	; 0x6900
     b00:	756f532f 	strbvc	r5, [pc, #-815]!	; 7d9 <__code_start__-0x7827>
     b04:	2f656372 	svccs	0x00656372
     b08:	34327363 	ldrtcc	r7, [r2], #-867	; 0xfffffc9d
     b0c:	2f786c30 	svccs	0x00786c30
     b10:	7062696c 	rsbvc	r6, r2, ip, ror #18
     b14:	6e692f69 	cdpvs	15, 6, cr2, cr9, cr9, {3}
     b18:	64756c63 	ldrbtvs	r6, [r5], #-3171	; 0xfffff39d
     b1c:	70000065 	andvc	r0, r0, r5, rrx
     b20:	2e6b7475 	mcrcs	4, 3, r7, cr11, cr5, {3}
     b24:	00010063 	andeq	r0, r1, r3, rrx
     b28:	69707200 	ldmdbvs	r0!, {r9, ip, sp, lr}^
     b2c:	0200682e 	andeq	r6, r0, #3014656	; 0x2e0000
     b30:	05000000 	streq	r0, [r0, #-0]
     b34:	02050022 	andeq	r0, r5, #34, 0	; 0x22
     b38:	000087d0 	ldrdeq	r8, [r0], -r0
     b3c:	13050515 	movwne	r0, #21781	; 0x5515
     b40:	11062205 	tstne	r6, r5, lsl #4
     b44:	060b052e 	streq	r0, [fp], -lr, lsr #10
     b48:	0605052f 	streq	r0, [r5], -pc, lsr #10
     b4c:	0009052e 	andeq	r0, r9, lr, lsr #10
     b50:	06020402 	streq	r0, [r2], -r2, lsl #8
     b54:	000f0567 	andeq	r0, pc, r7, ror #10
     b58:	49020402 	stmdbmi	r2, {r1, sl}
     b5c:	02000b05 	andeq	r0, r0, #5120	; 0x1400
     b60:	05010204 	streq	r0, [r1, #-516]	; 0xfffffdfc
     b64:	04020005 	streq	r0, [r2], #-5
     b68:	062e0602 	strteq	r0, [lr], -r2, lsl #12
     b6c:	0601054e 	streq	r0, [r1], -lr, asr #10
     b70:	00060213 	andeq	r0, r6, r3, lsl r2
     b74:	08fa0101 	ldmeq	sl!, {r0, r8}^
     b78:	00030000 	andeq	r0, r3, r0
     b7c:	000000f1 	strdeq	r0, [r0], -r1
     b80:	0efb0102 	cdpeq	1, 15, cr0, cr11, cr2, {0}
     b84:	0101000d 	tsteq	r1, sp
     b88:	00000101 	andeq	r0, r0, r1, lsl #2
     b8c:	00000100 	andeq	r0, r0, r0, lsl #2
     b90:	6c2f2e01 	stcvs	14, cr2, [pc], #-4	; b94 <__code_start__-0x746c>
     b94:	00636269 	rsbeq	r6, r3, r9, ror #4
     b98:	74706f2f 	ldrbtvc	r6, [r0], #-3887	; 0xfffff0d1
     b9c:	6d6f682f 	stclvs	8, cr6, [pc, #-188]!	; ae8 <__code_start__-0x7518>
     ba0:	65726265 	ldrbvs	r6, [r2, #-613]!	; 0xfffffd9b
     ba4:	65432f77 	strbvs	r2, [r3, #-3959]	; 0xfffff089
     ba8:	72616c6c 	rsbvc	r6, r1, #108, 24	; 0x6c00
     bac:	6d72612f 	ldfvse	f6, [r2, #-188]!	; 0xffffff44
     bb0:	6e6f6e2d 	cdpvs	14, 6, cr6, cr15, cr13, {1}
     bb4:	61652d65 	cmnvs	r5, r5, ror #26
     bb8:	392d6962 	pushcc	{r1, r5, r6, r8, fp, sp, lr}
     bbc:	322d392f 	eorcc	r3, sp, #770048	; 0xbc000
     bc0:	71393130 	teqvc	r9, r0, lsr r1
     bc4:	73632d34 	cmnvc	r3, #52, 26	; 0xd00
     bc8:	65373031 	ldrvs	r3, [r7, #-49]!	; 0xffffffcf
     bcc:	62696c2f 	rsbvs	r6, r9, #12032	; 0x2f00
     bd0:	6363672f 	cmnvs	r3, #12320768	; 0xbc0000
     bd4:	6d72612f 	ldfvse	f6, [r2, #-188]!	; 0xffffff44
     bd8:	6e6f6e2d 	cdpvs	14, 6, cr6, cr15, cr13, {1}
     bdc:	61652d65 	cmnvs	r5, r5, ror #26
     be0:	392f6962 	stmdbcc	pc!, {r1, r5, r6, r8, fp, sp, lr}	; <UNPREDICTABLE>
     be4:	312e322e 			; <UNDEFINED> instruction: 0x312e322e
     be8:	636e692f 	cmnvs	lr, #770048	; 0xbc000
     bec:	6564756c 	strbvs	r7, [r4, #-1388]!	; 0xfffffa94
     bf0:	73552f00 	cmpvc	r5, #0, 30
     bf4:	2f737265 	svccs	0x00737265
     bf8:	656c696d 	strbvs	r6, [ip, #-2413]!	; 0xfffff693
     bfc:	6f532f73 	svcvs	0x00532f73
     c00:	65637275 	strbvs	r7, [r3, #-629]!	; 0xfffffd8b
     c04:	3273632f 	rsbscc	r6, r3, #-1140850688	; 0xbc000000
     c08:	786c3034 	stmdavc	ip!, {r2, r4, r5, ip, sp}^
     c0c:	62696c2f 	rsbvs	r6, r9, #12032	; 0x2f00
     c10:	692f6970 	stmdbvs	pc!, {r4, r5, r6, r8, fp, sp, lr}	; <UNPREDICTABLE>
     c14:	756c636e 	strbvc	r6, [ip, #-878]!	; 0xfffffc92
     c18:	00006564 	andeq	r6, r0, r4, ror #10
     c1c:	702d6176 	eorvc	r6, sp, r6, ror r1
     c20:	746e6972 	strbtvc	r6, [lr], #-2418	; 0xfffff68e
     c24:	00632e6b 	rsbeq	r2, r3, fp, ror #28
     c28:	73000001 	movwvc	r0, #1
     c2c:	6e696474 	mcrvs	4, 3, r6, cr9, cr4, {3}
     c30:	63672d74 	cmnvs	r7, #116, 26	; 0x1d00
     c34:	00682e63 	rsbeq	r2, r8, r3, ror #28
     c38:	72000002 	andvc	r0, r0, #2, 0
     c3c:	682e6970 	stmdavs	lr!, {r4, r5, r6, r8, fp, sp, lr}
     c40:	00000300 	andeq	r0, r0, r0, lsl #6
     c44:	2d697072 	stclcs	0, cr7, [r9, #-456]!	; 0xfffffe38
     c48:	65746e69 	ldrbvs	r6, [r4, #-3689]!	; 0xfffff197
     c4c:	6c616e72 	stclvs	14, cr6, [r1], #-456	; 0xfffffe38
     c50:	0300682e 	movweq	r6, #2094	; 0x82e
     c54:	74730000 	ldrbtvc	r0, [r3], #-0
     c58:	67726164 	ldrbvs	r6, [r2, -r4, ror #2]!
     c5c:	0200682e 	andeq	r6, r0, #3014656	; 0x2e0000
     c60:	623c0000 	eorsvs	r0, ip, #0, 0
     c64:	746c6975 	strbtvc	r6, [ip], #-2421	; 0xfffff68b
     c68:	3e6e692d 	vmulcc.f16	s13, s28, s27	; <UNPREDICTABLE>
     c6c:	00000000 	andeq	r0, r0, r0
     c70:	00010500 	andeq	r0, r1, r0, lsl #10
     c74:	88080205 	stmdahi	r8, {r0, r2, r9}
     c78:	c8030000 	stmdagt	r3, {}	; <UNPREDICTABLE>
     c7c:	02050100 	andeq	r0, r5, #0
     c80:	06010514 			; <UNDEFINED> instruction: 0x06010514
     c84:	30040510 	andcc	r0, r4, r0, lsl r5
     c88:	4a2c0105 	bmi	b010a4 <__bss_end__+0xaf69d4>
     c8c:	05300405 	ldreq	r0, [r0, #-1029]!	; 0xfffffbfb
     c90:	13310602 	teqne	r1, #2097152	; 0x200000
     c94:	2e060b05 	vmlacs.f64	d0, d6, d5
     c98:	30060205 	andcc	r0, r6, r5, lsl #4
     c9c:	02060905 	andeq	r0, r6, #81920	; 0x14000
     ca0:	2e2e0d24 	cdpcs	13, 2, cr0, cr14, cr4, {1}
     ca4:	03060d05 	movweq	r0, #27909	; 0x6d05
     ca8:	11054a17 	tstne	r5, r7, lsl sl
     cac:	062d0513 			; <UNDEFINED> instruction: 0x062d0513
     cb0:	2e160501 	cfmul32cs	mvfx0, mvfx6, mvfx1
     cb4:	052f0d05 	streq	r0, [pc, #-3333]!	; ffffffb7 <__bss_end__+0xffff58e7>
     cb8:	14052d16 	strne	r2, [r5], #-3350	; 0xfffff2ea
     cbc:	17052f06 	strne	r2, [r5, -r6, lsl #30]
     cc0:	0d050106 	stfeqs	f0, [r5, #-24]	; 0xffffffe8
     cc4:	052f062e 	streq	r0, [pc, #-1582]!	; 69e <__code_start__-0x7962>
     cc8:	2e010612 	mcrcs	6, 0, r0, cr1, cr2, {0}
     ccc:	0d052d2f 	stceq	13, cr2, [r5, #-188]	; 0xffffff44
     cd0:	12052f06 	andne	r2, r5, #6, 30
     cd4:	19050106 	stmdbne	r5, {r1, r2, r8}
     cd8:	04052f06 	streq	r2, [r5], #-3846	; 0xfffff0fa
     cdc:	01011103 	tsteq	r1, r3, lsl #2
     ce0:	05150205 	ldreq	r0, [r5, #-517]	; 0xfffffdfb
     ce4:	7fb2030e 	svcvc	0x00b2030e
     ce8:	13020501 	movwne	r0, #9473	; 0x2501
     cec:	01060605 	tsteq	r6, r5, lsl #12
     cf0:	30060205 	andcc	r0, r6, r5, lsl #4
     cf4:	05010805 	streq	r0, [r1, #-2053]	; 0xfffff7fb
     cf8:	4a010602 	bmi	42508 <__bss_end__+0x37e38>
     cfc:	91080805 	tstls	r8, r5, lsl #16
     d00:	4a060305 	bmi	18191c <__bss_end__+0x17724c>
     d04:	01060805 	tsteq	r6, r5, lsl #16
     d08:	2d061505 	cfstr32cs	mvfx1, [r6, #-20]	; 0xffffffec
     d0c:	05010805 	streq	r0, [r1, #-2053]	; 0xfffff7fb
     d10:	0805d703 	stmdaeq	r5, {r0, r1, r8, r9, sl, ip, lr, pc}
     d14:	18050106 	stmdane	r5, {r1, r2, r8}
     d18:	2e02052d 	cfsh32cs	mvfx0, mvfx2, #29
     d1c:	052f0805 	streq	r0, [pc, #-2053]!	; 51f <__code_start__-0x7ae1>
     d20:	052d0615 	streq	r0, [sp, #-1557]!	; 0xfffff9eb
     d24:	02050108 	andeq	r0, r5, #2
     d28:	03050106 	movweq	r0, #20742	; 0x5106
     d2c:	18052f06 	stmdane	r5, {r1, r2, r8, r9, sl, fp, sp}
     d30:	02051106 	andeq	r1, r5, #-2147483647	; 0x80000001
     d34:	2f08052e 	svccs	0x0008052e
     d38:	2d061505 	cfstr32cs	mvfx1, [r6, #-20]	; 0xffffffec
     d3c:	05010805 	streq	r0, [r1, #-2053]	; 0xfffff7fb
     d40:	08051303 	stmdaeq	r5, {r0, r1, r8, r9, ip}
     d44:	15050106 	strne	r0, [r5, #-262]	; 0xfffffefa
     d48:	08052d06 	stmdaeq	r5, {r1, r2, r8, sl, fp, sp}
     d4c:	05010601 	streq	r0, [r1, #-1537]	; 0xfffff9ff
     d50:	05a00602 	streq	r0, [r0, #1538]!	; 0x602
     d54:	05010605 	streq	r0, [r1, #-1541]	; 0xfffff9fb
     d58:	11053604 	tstne	r5, r4, lsl #12
     d5c:	2e09052f 	cfsh32cs	mvfx0, mvfx9, #31
     d60:	05330205 	ldreq	r0, [r3, #-517]!	; 0xfffffdfb
     d64:	2e720305 	cdpcs	3, 7, cr0, cr2, cr5, {0}
     d68:	2f060205 	svccs	0x00060205
     d6c:	0e050106 	adfeqs	f0, f5, f6
     d70:	02051606 	andeq	r1, r5, #6291456	; 0x600000
     d74:	03051314 	movweq	r1, #21268	; 0x5314
     d78:	14020513 	strne	r0, [r2], #-1299	; 0xfffffaed
     d7c:	010b0515 	tsteq	fp, r5, lsl r5
     d80:	01060205 	tsteq	r6, r5, lsl #4
     d84:	0603052e 	streq	r0, [r3], -lr, lsr #10
     d88:	060a0567 	streq	r0, [sl], -r7, ror #10
     d8c:	2d020501 	cfstr32cs	mvfx0, [r2, #-4]
     d90:	052f0a05 	streq	r0, [pc, #-2565]!	; 393 <__code_start__-0x7c6d>
     d94:	052d0617 	streq	r0, [sp, #-1559]!	; 0xfffff9e9
     d98:	0205010b 	andeq	r0, r5, #-1073741822	; 0xc0000002
     d9c:	09050106 	stmdbeq	r5, {r1, r2, r8}
     da0:	02052e4c 	andeq	r2, r5, #76, 28	; 0x4c0
     da4:	09052e06 	stmdbeq	r5, {r1, r2, r9, sl, fp, sp}
     da8:	02050106 	andeq	r0, r5, #-2147483647	; 0x80000001
     dac:	01063006 	tsteq	r6, r6
     db0:	38030105 	stmdacc	r3, {r0, r2, r8}
     db4:	03090501 	movweq	r0, #38145	; 0x9501
     db8:	2e2e4a4f 	vnmulcs.f32	s8, s28, s30
     dbc:	03061905 	movweq	r1, #26885	; 0x6905
     dc0:	1a054a27 	bne	153664 <__bss_end__+0x148f94>
     dc4:	06280513 			; <UNDEFINED> instruction: 0x06280513
     dc8:	2e1f0501 	cfmul32cs	mvfx0, mvfx15, mvfx1
     dcc:	052f0405 	streq	r0, [pc, #-1029]!	; 9cf <__code_start__-0x7631>
     dd0:	0b052d1f 	bleq	14c254 <__bss_end__+0x141b84>
     dd4:	0e052f06 	cdpeq	15, 0, cr2, cr5, cr6, {0}
     dd8:	04050106 	streq	r0, [r5], #-262	; 0xfffffefa
     ddc:	0602052e 	streq	r0, [r2], -lr, lsr #10
     de0:	134a5903 	movtne	r5, #43267	; 0xa903
     de4:	2e060b05 	vmlacs.f64	d0, d6, d5
     de8:	30060205 	andcc	r0, r6, r5, lsl #4
     dec:	02060905 	andeq	r0, r6, #81920	; 0x14000
     df0:	04050d24 	streq	r0, [r5], #-3364	; 0xfffff2dc
     df4:	05133606 	ldreq	r3, [r3, #-1542]	; 0xfffff9fa
     df8:	05010606 	streq	r0, [r1, #-1542]	; 0xfffff9fa
     dfc:	13670605 	cmnne	r7, #5242880	; 0x500000
     e00:	06090513 			; <UNDEFINED> instruction: 0x06090513
     e04:	2b0d0511 	blcs	342250 <__bss_end__+0x337b80>
     e08:	05300b05 	ldreq	r0, [r0, #-2821]!	; 0xfffff4fb
     e0c:	1b052c0d 	blne	14be48 <__bss_end__+0x141778>
     e10:	06040535 			; <UNDEFINED> instruction: 0x06040535
     e14:	1305052d 	movwne	r0, #21805	; 0x552d
     e18:	2e061b05 	vmlacs.f64	d1, d6, d5
     e1c:	05820a05 	streq	r0, [r2, #2565]	; 0xa05
     e20:	0e052f04 	cdpeq	15, 0, cr2, cr5, cr4, {0}
     e24:	490a052e 	stmdbmi	sl, {r1, r2, r3, r5, r8, sl}
     e28:	2f060b05 	svccs	0x00060b05
     e2c:	01060405 	tsteq	r6, r5, lsl #8
     e30:	06052f06 	streq	r2, [r5], -r6, lsl #30
     e34:	05050106 	streq	r0, [r5, #-262]	; 0xfffffefa
     e38:	0a052f06 	beq	14ca58 <__bss_end__+0x142388>
     e3c:	052e0106 	streq	r0, [lr, #-262]!	; 0xfffffefa
     e40:	2e2e2e07 	cdpcs	14, 2, cr2, cr14, cr7, {0}
     e44:	03060405 	movweq	r0, #25605	; 0x6405
     e48:	0205010d 	andeq	r0, r5, #1073741827	; 0x40000003
     e4c:	01460306 	cmpeq	r6, r6, lsl #6
     e50:	3a030905 	bcc	c326c <__bss_end__+0xb8b9c>
     e54:	0604052e 	streq	r0, [r4], -lr, lsr #10
     e58:	010d032f 	tsteq	sp, pc, lsr #6
     e5c:	15020501 	strne	r0, [r2, #-1281]	; 0xfffffaff
     e60:	b2030e05 	andlt	r0, r3, #80	; 0x50
     e64:	0205017f 	andeq	r0, r5, #-1073741793	; 0xc000001f
     e68:	08051413 	stmdaeq	r5, {r0, r1, r4, sl, ip}
     e6c:	06060501 	streq	r0, [r6], -r1, lsl #10
     e70:	2e3c0310 	mrccs	3, 1, r0, cr12, cr0, {0}
     e74:	46030205 	strmi	r0, [r3], -r5, lsl #4
     e78:	0530064a 	ldreq	r0, [r0, #-1610]!	; 0xfffff9b6
     e7c:	2e010605 	cfmadd32cs	mvax0, mvfx0, mvfx1, mvfx5
     e80:	0602052e 	streq	r0, [r2], -lr, lsr #10
     e84:	0501064b 	streq	r0, [r1, #-1611]	; 0xfffff9b5
     e88:	0516060e 	ldreq	r0, [r6, #-1550]	; 0xfffff9f2
     e8c:	15131402 	ldrne	r1, [r3, #-1026]	; 0xfffffbfe
     e90:	010b0515 	tsteq	fp, r5, lsl r5
     e94:	2e060205 	cdpcs	2, 0, cr0, cr6, cr5, {0}
     e98:	09053006 	stmdbeq	r5, {r1, r2, ip, sp}
     e9c:	02050106 	andeq	r0, r5, #-2147483647	; 0x80000001
     ea0:	01064c06 	tsteq	r6, r6, lsl #24
     ea4:	38030105 	stmdacc	r3, {r0, r2, r8}
     ea8:	03060501 	movweq	r0, #25857	; 0x6501
     eac:	02054a6e 	andeq	r4, r5, #450560	; 0x6e000
     eb0:	4a664603 	bmi	19926c4 <__bss_end__+0x1987ff4>
     eb4:	0604052e 	streq	r0, [r4], -lr, lsr #10
     eb8:	0100c803 	tsteq	r0, r3, lsl #16
     ebc:	06010101 	streq	r0, [r1], -r1, lsl #2
     ec0:	4a06822e 	bmi	1a1780 <__bss_end__+0x1970b0>
     ec4:	052e7203 	streq	r7, [lr, #-515]!	; 0xfffffdfd
     ec8:	05010609 	streq	r0, [r1, #-1545]	; 0xfffff9f7
     ecc:	032f0604 			; <UNDEFINED> instruction: 0x032f0604
     ed0:	0501010d 	streq	r0, [r1, #-269]	; 0xfffffef3
     ed4:	0e051502 	cfsh32eq	mvfx1, mvfx5, #2
     ed8:	017fb203 	cmneq	pc, r3, lsl #4
     edc:	14130205 	ldrne	r0, [r3], #-517	; 0xfffffdfb
     ee0:	05010805 	streq	r0, [r1, #-2053]	; 0xfffff7fb
     ee4:	1b030609 	blne	c2710 <__bss_end__+0xb8040>
     ee8:	03060501 	movweq	r0, #25857	; 0x6501
     eec:	3c032e63 	stccc	14, cr2, [r3], {99}	; 0x63
     ef0:	052e2e2e 	streq	r2, [lr, #-3630]!	; 0xfffff1d2
     ef4:	b4030648 	strlt	r0, [r3], #-1608	; 0xfffff9b8
     ef8:	053c087f 	ldreq	r0, [ip, #-2175]!	; 0xfffff781
     efc:	06011305 	streq	r1, [r1], -r5, lsl #6
     f00:	0402002e 	streq	r0, [r2], #-46	; 0xffffffd2
     f04:	002e0602 	eoreq	r0, lr, r2, lsl #12
     f08:	01020402 	tsteq	r2, r2, lsl #8
     f0c:	02040200 	andeq	r0, r4, #0, 4
     f10:	00110513 	andseq	r0, r1, r3, lsl r5
     f14:	06020402 	streq	r0, [r2], -r2, lsl #8
     f18:	00070501 	andeq	r0, r7, r1, lsl #10
     f1c:	2f020402 	svccs	0x00020402
     f20:	02001105 	andeq	r1, r0, #1073741825	; 0x40000001
     f24:	052d0204 	streq	r0, [sp, #-516]!	; 0xfffffdfc
     f28:	04020005 	streq	r0, [r2], #-5
     f2c:	052f0602 	streq	r0, [pc, #-1538]!	; 932 <__code_start__-0x76ce>
     f30:	04020009 	streq	r0, [r2], #-9
     f34:	0e051302 	cdpeq	3, 0, cr1, cr5, cr2, {0}
     f38:	02040200 	andeq	r0, r4, #0, 4
     f3c:	05050106 	streq	r0, [r5, #-262]	; 0xfffffefa
     f40:	01040200 	mrseq	r0, R12_usr
     f44:	02006306 	andeq	r6, r0, #402653184	; 0x18000000
     f48:	05010104 	streq	r0, [r1, #-260]	; 0xfffffefc
     f4c:	04020048 	streq	r0, [r2], #-72	; 0xffffffb8
     f50:	05110601 	ldreq	r0, [r1, #-1537]	; 0xfffff9ff
     f54:	04020005 	streq	r0, [r2], #-5
     f58:	48052f01 	stmdami	r5, {r0, r8, r9, sl, fp, sp}
     f5c:	01040200 	mrseq	r0, R12_usr
     f60:	0005052d 	andeq	r0, r5, sp, lsr #10
     f64:	2f010402 	svccs	0x00010402
     f68:	01040200 	mrseq	r0, R12_usr
     f6c:	0402004a 	streq	r0, [r2], #-74	; 0xffffffb6
     f70:	02004a01 	andeq	r4, r0, #4096	; 0x1000
     f74:	4a060104 	bmi	18138c <__bss_end__+0x176cbc>
     f78:	e1034005 	tst	r3, r5
     f7c:	0106d600 	tsteq	r6, r0, lsl #12
     f80:	2e4e0905 	vmlacs.f16	s1, s28, s10	; <UNPREDICTABLE>
     f84:	05300805 	ldreq	r0, [r0, #-2053]!	; 0xfffff7fb
     f88:	1205291e 	andne	r2, r5, #491520	; 0x78000
     f8c:	330d052e 	movwcc	r0, #54574	; 0xd52e
     f90:	45060205 	strmi	r0, [r6, #-517]	; 0xfffffdfb
     f94:	05130505 	ldreq	r0, [r3, #-1285]	; 0xfffffafb
     f98:	05051402 	streq	r1, [r5, #-1026]	; 0xfffffbfe
     f9c:	13020513 	movwne	r0, #9491	; 0x2513
     fa0:	05010805 	streq	r0, [r1, #-2053]	; 0xfffff7fb
     fa4:	7a030640 	bvc	c28ac <__bss_end__+0xb81dc>
     fa8:	0d052e01 	stceq	14, cr2, [r5, #-4]
     fac:	11056634 	tstne	r5, r4, lsr r6
     fb0:	4a4a2003 	bmi	1288fc4 <__bss_end__+0x127e8f4>
     fb4:	03060405 	movweq	r0, #25605	; 0x6405
     fb8:	09050162 	stmdbeq	r5, {r1, r5, r6, r8}
     fbc:	0f050106 	svceq	0x00050106
     fc0:	0608052e 	streq	r0, [r8], -lr, lsr #10
     fc4:	060d052c 	streq	r0, [sp], -ip, lsr #10
     fc8:	0603052e 	streq	r0, [r3], -lr, lsr #10
     fcc:	06050567 	streq	r0, [r5], -r7, ror #10
     fd0:	06080501 	streq	r0, [r8], -r1, lsl #10
     fd4:	060e054d 	streq	r0, [lr], -sp, asr #10
     fd8:	2e0a0501 	cfsh32cs	mvfx0, mvfx10, #1
     fdc:	052f0905 	streq	r0, [pc, #-2309]!	; 6df <__code_start__-0x7921>
     fe0:	052f0604 	streq	r0, [pc, #-1540]!	; 9e4 <__code_start__-0x761c>
     fe4:	05010607 	streq	r0, [r1, #-1543]	; 0xfffff9f9
     fe8:	04052c0a 	streq	r2, [r5], #-3082	; 0xfffff3f6
     fec:	2d053206 	sfmcs	f3, 4, [r5, #-24]	; 0xffffffe8
     ff0:	7f980306 	svcvc	0x00980306
     ff4:	03090501 	movweq	r0, #38145	; 0x9501
     ff8:	052e00ed 	streq	r0, [lr, #-237]!	; 0xffffff13
     ffc:	07052c0d 	streq	r2, [r5, -sp, lsl #24]
    1000:	0604052b 	streq	r0, [r4], -fp, lsr #10
    1004:	05141330 	ldreq	r1, [r4, #-816]	; 0xfffffcd0
    1008:	0c050109 	stfeqs	f0, [r5], {9}
    100c:	017f9303 	cmneq	pc, r3, lsl #6
    1010:	06011d05 	streq	r1, [r1], -r5, lsl #26
    1014:	03090501 	movweq	r0, #38145	; 0x9501
    1018:	050100ed 	streq	r0, [r1, #-237]	; 0xffffff13
    101c:	052f0605 	streq	r0, [pc, #-1541]!	; a1f <__code_start__-0x75e1>
    1020:	2e010612 	mcrcs	6, 0, r0, cr1, cr2, {0}
    1024:	2f0b052d 	svccs	0x000b052d
    1028:	2f060505 	svccs	0x00060505
    102c:	05100905 	ldreq	r0, [r0, #-2309]	; 0xfffff6fb
    1030:	7f93030c 	svcvc	0x0093030c
    1034:	011d0501 	tsteq	sp, r1, lsl #10
    1038:	01062d05 	tsteq	r6, r5, lsl #26
    103c:	ed030905 	vstr.16	s0, [r3, #-10]
    1040:	04052e00 	streq	r2, [r5], #-3584	; 0xfffff200
    1044:	00014e06 	andeq	r4, r1, r6, lsl #28
    1048:	4a020402 	bmi	82058 <__bss_end__+0x77988>
    104c:	02040200 	andeq	r0, r4, #0, 4
    1050:	04020001 	streq	r0, [r2], #-1
    1054:	02001502 	andeq	r1, r0, #8388608	; 0x800000
    1058:	02060204 	andeq	r0, r6, #4, 4	; 0x40000000
    105c:	02001236 	andeq	r1, r0, #1610612739	; 0x60000003
    1060:	052e0204 	streq	r0, [lr, #-516]!	; 0xfffffdfc
    1064:	d1030602 	tstle	r3, r2, lsl #12
    1068:	07050100 	streq	r0, [r5, -r0, lsl #2]
    106c:	052e0106 	streq	r0, [lr, #-262]!	; 0xfffffefa
    1070:	052f0602 	streq	r0, [pc, #-1538]!	; a76 <__code_start__-0x758a>
    1074:	0501060b 	streq	r0, [r1, #-1547]	; 0xfffff9f5
    1078:	05052f01 	streq	r2, [r5, #-3841]	; 0xfffff0ff
    107c:	4a650306 	bmi	1941c9c <__bss_end__+0x19375cc>
    1080:	01060905 	tsteq	r6, r5, lsl #18
    1084:	06050566 	streq	r0, [r5], -r6, ror #10
    1088:	0304059f 	movweq	r0, #17823	; 0x459f
    108c:	07050111 	smladeq	r5, r1, r1, r0
    1090:	04050106 	streq	r0, [r5], #-262	; 0xfffffefa
    1094:	0a053106 	beq	14d4b4 <__bss_end__+0x142de4>
    1098:	00130501 	andseq	r0, r3, r1, lsl #10
    109c:	06010402 	streq	r0, [r1], -r2, lsl #8
    10a0:	0010052e 	andseq	r0, r0, lr, lsr #10
    10a4:	2e010402 	cdpcs	4, 0, cr0, cr1, cr2, {0}
    10a8:	4b060505 	blmi	1824c4 <__bss_end__+0x177df4>
    10ac:	01060a05 	tsteq	r6, r5, lsl #20
    10b0:	04052d06 	streq	r2, [r5], #-3334	; 0xfffff2fa
    10b4:	11050106 	tstne	r5, r6, lsl #2
    10b8:	7fb60306 	svcvc	0x00b60306
    10bc:	00011366 	andeq	r1, r1, r6, ror #6
    10c0:	06020402 	streq	r0, [r2], -r2, lsl #8
    10c4:	01ba06ba 			; <UNDEFINED> instruction: 0x01ba06ba
    10c8:	061a0514 			; <UNDEFINED> instruction: 0x061a0514
    10cc:	052e2e13 	streq	r2, [lr, #-3603]!	; 0xfffff1ed
    10d0:	05674e11 	strbeq	r4, [r7, #-3601]!	; 0xfffff1ef
    10d4:	13056814 	movwne	r6, #22548	; 0x5814
    10d8:	03150582 	tsteq	r5, #545259520	; 0x20800000
    10dc:	11054a78 	tstne	r5, r8, ror sl
    10e0:	13134b06 	tstne	r3, #6144	; 0x1800
    10e4:	05141314 	ldreq	r1, [r4, #-788]	; 0xfffffcec
    10e8:	05010613 	streq	r0, [r1, #-1555]	; 0xfffff9ed
    10ec:	052f0609 	streq	r0, [pc, #-1545]!	; aeb <__code_start__-0x7515>
    10f0:	2e01060d 	cfmadd32cs	mvax0, mvfx0, mvfx1, mvfx13
    10f4:	bb09052e 	bllt	2425b4 <__bss_end__+0x237ee4>
    10f8:	059d0d05 	ldreq	r0, [sp, #3333]	; 0xd05
    10fc:	052f0609 	streq	r0, [pc, #-1545]!	; afb <__code_start__-0x7505>
    1100:	03062f15 	movweq	r2, #28437	; 0x6f15
    1104:	0b034a75 	bleq	d3ae0 <__bss_end__+0xc9410>
    1108:	05054a2e 	streq	r4, [r5, #-2606]	; 0xfffff5d2
    110c:	01230306 			; <UNDEFINED> instruction: 0x01230306
    1110:	01060905 	tsteq	r6, r5, lsl #18
    1114:	0605052e 	streq	r0, [r5], -lr, lsr #10
    1118:	2e6e03d7 	mcrcs	3, 3, r0, cr14, cr7, {6}
    111c:	05010e03 	streq	r0, [r1, #-3587]	; 0xfffff1fd
    1120:	05010609 	streq	r0, [r1, #-1545]	; 0xfffff9f7
    1124:	10030605 	andne	r0, r3, r5, lsl #12
    1128:	0301054a 	movweq	r0, #5450	; 0x154a
    112c:	05017eed 	streq	r7, [r1, #-3821]	; 0xfffff113
    1130:	13151402 	tstne	r5, #33554432	; 0x2000000
    1134:	03040514 	movweq	r0, #17684	; 0x4514
    1138:	0905011a 	stmdbeq	r5, {r1, r3, r4, r8}
    113c:	02050106 	andeq	r0, r5, #-2147483647	; 0x80000001
    1140:	052e4603 	streq	r4, [lr, #-1539]!	; 0xfffff9fd
    1144:	2e3a0309 	cdpcs	3, 3, cr0, cr10, cr9, {0}
    1148:	2f060405 	svccs	0x00060405
    114c:	01010d03 	tsteq	r1, r3, lsl #26
    1150:	05150205 	ldreq	r0, [r5, #-517]	; 0xfffffdfb
    1154:	7fb2030e 	svcvc	0x00b2030e
    1158:	13020501 	movwne	r0, #9473	; 0x2501
    115c:	01080514 	tsteq	r8, r4, lsl r5
    1160:	01060205 	tsteq	r6, r5, lsl #4
    1164:	059f0805 	ldreq	r0, [pc, #2053]	; 1971 <__code_start__-0x668f>
    1168:	064a0603 	strbeq	r0, [sl], -r3, lsl #12
    116c:	2e080501 	cfsh32cs	mvfx0, mvfx8, #1
    1170:	2d061505 	cfstr32cs	mvfx1, [r6, #-20]	; 0xffffffec
    1174:	05010805 	streq	r0, [r1, #-2053]	; 0xfffff7fb
    1178:	01062f03 	tsteq	r6, r3, lsl #30
    117c:	052e0805 	streq	r0, [lr, #-2053]!	; 0xfffff7fb
    1180:	052d0615 	streq	r0, [sp, #-1557]!	; 0xfffff9eb
    1184:	03050108 	movweq	r0, #20744	; 0x5108
    1188:	0501062f 	streq	r0, [r1, #-1583]	; 0xfffff9d1
    118c:	15052e08 	strne	r2, [r5, #-3592]	; 0xfffff1f8
    1190:	08052d06 	stmdaeq	r5, {r1, r2, r8, sl, fp, sp}
    1194:	2f030501 	svccs	0x00030501
    1198:	08050106 	stmdaeq	r5, {r1, r2, r8}
    119c:	0615052e 	ldreq	r0, [r5], -lr, lsr #10
    11a0:	0108052d 	tsteq	r8, sp, lsr #10
    11a4:	062f0305 	strteq	r0, [pc], -r5, lsl #6
    11a8:	2e080501 	cfsh32cs	mvfx0, mvfx8, #1
    11ac:	2d061505 	cfstr32cs	mvfx1, [r6, #-20]	; 0xffffffec
    11b0:	05010805 	streq	r0, [r1, #-2053]	; 0xfffff7fb
    11b4:	01062f03 	tsteq	r6, r3, lsl #30
    11b8:	052e0805 	streq	r0, [lr, #-2053]!	; 0xfffff7fb
    11bc:	052d0615 	streq	r0, [sp, #-1557]!	; 0xfffff9eb
    11c0:	03050108 	movweq	r0, #20744	; 0x5108
    11c4:	06080513 			; <UNDEFINED> instruction: 0x06080513
    11c8:	06150501 	ldreq	r0, [r5], -r1, lsl #10
    11cc:	0108052d 	tsteq	r8, sp, lsr #10
    11d0:	03056606 	movweq	r6, #22022	; 0x5606
    11d4:	08056706 	stmdaeq	r5, {r1, r2, r8, r9, sl, sp, lr}
    11d8:	18050106 	stmdane	r5, {r1, r2, r8}
    11dc:	2e02052d 	cfsh32cs	mvfx0, mvfx2, #29
    11e0:	052f0805 	streq	r0, [pc, #-2053]!	; 9e3 <__code_start__-0x761d>
    11e4:	052d0615 	streq	r0, [sp, #-1557]!	; 0xfffff9eb
    11e8:	02050108 	andeq	r0, r5, #2
    11ec:	03050106 	movweq	r0, #20742	; 0x5106
    11f0:	18052f06 	stmdane	r5, {r1, r2, r8, r9, sl, fp, sp}
    11f4:	02051106 	andeq	r1, r5, #-2147483647	; 0x80000001
    11f8:	2f08052e 	svccs	0x0008052e
    11fc:	2d061505 	cfstr32cs	mvfx1, [r6, #-20]	; 0xffffffec
    1200:	05010805 	streq	r0, [r1, #-2053]	; 0xfffff7fb
    1204:	08051303 	stmdaeq	r5, {r0, r1, r8, r9, ip}
    1208:	15050106 	strne	r0, [r5, #-262]	; 0xfffffefa
    120c:	08052d06 	stmdaeq	r5, {r1, r2, r8, sl, fp, sp}
    1210:	06050501 	streq	r0, [r5], -r1, lsl #10
    1214:	02054a14 	andeq	r4, r5, #20, 20	; 0x14000
    1218:	0e052e06 	cdpeq	14, 0, cr2, cr5, cr6, {0}
    121c:	04051906 	streq	r1, [r5], #-2310	; 0xfffff6fa
    1220:	2f11052f 	svccs	0x0011052f
    1224:	054a0905 	strbeq	r0, [sl, #-2309]	; 0xfffff6fb
    1228:	05053302 	streq	r3, [r5, #-770]	; 0xfffffcfe
    122c:	052e7203 	streq	r7, [lr, #-515]!	; 0xfffffdfd
    1230:	062f0602 	strteq	r0, [pc], -r2, lsl #12
    1234:	060e0501 	streq	r0, [lr], -r1, lsl #10
    1238:	14020516 	strne	r0, [r2], #-1302	; 0xfffffaea
    123c:	13030513 	movwne	r0, #13587	; 0x3513
    1240:	15140205 	ldrne	r0, [r4, #-517]	; 0xfffffdfb
    1244:	05010b05 	streq	r0, [r1, #-2821]	; 0xfffff4fb
    1248:	2e010602 	cfmadd32cs	mvax0, mvfx0, mvfx1, mvfx2
    124c:	06030566 	streq	r0, [r3], -r6, ror #10
    1250:	060a052f 	streq	r0, [sl], -pc, lsr #10
    1254:	2d020501 	cfstr32cs	mvfx0, [r2, #-4]
    1258:	052f0a05 	streq	r0, [pc, #-2565]!	; 85b <__code_start__-0x77a5>
    125c:	052d0617 	streq	r0, [sp, #-1559]!	; 0xfffff9e9
    1260:	0205010b 	andeq	r0, r5, #-1073741822	; 0xc0000002
    1264:	4a4a0106 	bmi	1281684 <__bss_end__+0x1276fb4>
    1268:	03060505 	movweq	r0, #25861	; 0x6505
    126c:	05010195 	streq	r0, [r1, #-405]	; 0xfffffe6b
    1270:	f8030611 			; <UNDEFINED> instruction: 0xf8030611
    1274:	1b05017e 	blne	141874 <__bss_end__+0x1371a4>
    1278:	4a018803 	bmi	6328c <__bss_end__+0x58bbc>
    127c:	03060105 	movweq	r0, #24837	; 0x6105
    1280:	052e7ef3 	streq	r7, [lr, #-3827]!	; 0xfffff10d
    1284:	13151402 	tstne	r5, #33554432	; 0x2000000
    1288:	03190514 	tsteq	r9, #20, 10	; 0x5000000
    128c:	1a050122 	bne	14171c <__bss_end__+0x13704c>
    1290:	06280513 			; <UNDEFINED> instruction: 0x06280513
    1294:	2e1f0501 	cfmul32cs	mvfx0, mvfx15, mvfx1
    1298:	052f0405 	streq	r0, [pc, #-1029]!	; e9b <__code_start__-0x7165>
    129c:	1f054a0e 	svcne	0x00054a0e
    12a0:	060b052d 	streq	r0, [fp], -sp, lsr #10
    12a4:	0604052f 	streq	r0, [r4], -pc, lsr #10
    12a8:	01320601 	teqeq	r2, r1, lsl #12
    12ac:	05150205 	ldreq	r0, [r5, #-517]	; 0xfffffdfb
    12b0:	7fb2030e 	svcvc	0x00b2030e
    12b4:	13020501 	movwne	r0, #9473	; 0x2501
    12b8:	01060605 	tsteq	r6, r5, lsl #12
    12bc:	30060205 	andcc	r0, r6, r5, lsl #4
    12c0:	05010805 	streq	r0, [r1, #-2053]	; 0xfffff7fb
    12c4:	05010602 	streq	r0, [r1, #-1538]	; 0xfffff9fe
    12c8:	21080603 	tstcs	r8, r3, lsl #12
    12cc:	01060805 	tsteq	r6, r5, lsl #16
    12d0:	49061505 	stmdbmi	r6, {r0, r2, r8, sl, ip}
    12d4:	05010805 	streq	r0, [r1, #-2053]	; 0xfffff7fb
    12d8:	0805d703 	stmdaeq	r5, {r0, r1, r8, r9, sl, ip, lr, pc}
    12dc:	18050106 	stmdane	r5, {r1, r2, r8}
    12e0:	2e02052d 	cfsh32cs	mvfx0, mvfx2, #29
    12e4:	052f0805 	streq	r0, [pc, #-2053]!	; ae7 <__code_start__-0x7519>
    12e8:	052d0615 	streq	r0, [sp, #-1557]!	; 0xfffff9eb
    12ec:	02050108 	andeq	r0, r5, #2
    12f0:	03050106 	movweq	r0, #20742	; 0x5106
    12f4:	18052f06 	stmdane	r5, {r1, r2, r8, r9, sl, fp, sp}
    12f8:	02051106 	andeq	r1, r5, #-2147483647	; 0x80000001
    12fc:	2f08052e 	svccs	0x0008052e
    1300:	2d061505 	cfstr32cs	mvfx1, [r6, #-20]	; 0xffffffec
    1304:	05010805 	streq	r0, [r1, #-2053]	; 0xfffff7fb
    1308:	08051303 	stmdaeq	r5, {r0, r1, r8, r9, ip}
    130c:	15050106 	strne	r0, [r5, #-262]	; 0xfffffefa
    1310:	08052d06 	stmdaeq	r5, {r1, r2, r8, sl, fp, sp}
    1314:	06050501 	streq	r0, [r5], -r1, lsl #10
    1318:	06020514 			; <UNDEFINED> instruction: 0x06020514
    131c:	06040566 	streq	r0, [r4], -r6, ror #10
    1320:	0305051a 	movweq	r0, #21786	; 0x551a
    1324:	02054a78 	andeq	r4, r5, #120, 20	; 0x78000
    1328:	01062f06 	tsteq	r6, r6, lsl #30
    132c:	16060e05 	strne	r0, [r6], -r5, lsl #28
    1330:	13140205 	tstne	r4, #1342177280	; 0x50000000
    1334:	01060405 	tsteq	r6, r5, lsl #8
    1338:	2f060305 	svccs	0x00060305
    133c:	01061105 	tsteq	r6, r5, lsl #2
    1340:	052e0905 	streq	r0, [lr, #-2309]!	; 0xfffff6fb
    1344:	15300602 	ldrne	r0, [r0, #-1538]!	; 0xfffff9fe
    1348:	05010b05 	streq	r0, [r1, #-2821]	; 0xfffff4fb
    134c:	4a010602 	bmi	42b5c <__bss_end__+0x3848c>
    1350:	03052e4a 	movweq	r2, #24138	; 0x5e4a
    1354:	0a052f06 	beq	14cf74 <__bss_end__+0x1428a4>
    1358:	02050106 	andeq	r0, r5, #-2147483647	; 0x80000001
    135c:	2f0a052d 	svccs	0x000a052d
    1360:	2d061705 	stccs	7, cr1, [r6, #-20]	; 0xffffffec
    1364:	05010b05 	streq	r0, [r1, #-2821]	; 0xfffff4fb
    1368:	4a010602 	bmi	42b78 <__bss_end__+0x384a8>
    136c:	0514062e 	ldreq	r0, [r4, #-1582]	; 0xfffff9d2
    1370:	05010609 	streq	r0, [r1, #-1545]	; 0xfffff9f7
    1374:	064c0602 	strbeq	r0, [ip], -r2, lsl #12
    1378:	06050501 	streq	r0, [r5], -r1, lsl #10
    137c:	01019803 	tsteq	r1, r3, lsl #16
    1380:	0607052a 	streq	r0, [r7], -sl, lsr #10
    1384:	06050501 	streq	r0, [r5], -r1, lsl #10
    1388:	0318052f 	tsteq	r8, #197132288	; 0xbc00000
    138c:	1b052e53 	blne	14cce0 <__bss_end__+0x142610>
    1390:	1a050106 	bne	1417b0 <__bss_end__+0x1370e0>
    1394:	06090582 	streq	r0, [r9], -r2, lsl #11
    1398:	060d054b 	streq	r0, [sp], -fp, asr #10
    139c:	09052e01 	stmdbeq	r5, {r0, r9, sl, fp, sp}
    13a0:	9d0d05d7 	cfstr32ls	mvfx0, [sp, #-860]	; 0xfffffca4
    13a4:	2f060905 	svccs	0x00060905
    13a8:	05301505 	ldreq	r1, [r0, #-1285]!	; 0xfffffafb
    13ac:	05010618 	streq	r0, [r1, #-1560]	; 0xfffff9e8
    13b0:	19056617 	stmdbne	r5, {r0, r1, r2, r4, r9, sl, sp, lr}
    13b4:	4917052f 	ldmdbmi	r7, {r0, r1, r2, r3, r5, r8, sl}
    13b8:	2f061905 	svccs	0x00061905
    13bc:	03061505 	movweq	r1, #25861	; 0x6505
    13c0:	19052e6f 	stmdbne	r5, {r0, r1, r2, r3, r5, r6, r9, sl, fp, sp}
    13c4:	4a130306 	bmi	4c1fe4 <__bss_end__+0x4b7914>
    13c8:	03061505 	movweq	r1, #25861	; 0x6505
    13cc:	054a2e6d 	strbeq	r2, [sl, #-3693]	; 0xfffff193
    13d0:	7fa00302 	svcvc	0x00a00302
    13d4:	03066601 	movweq	r6, #26113	; 0x6601
    13d8:	05050172 	streq	r0, [r5, #-370]	; 0xfffffe8e
    13dc:	04050106 	streq	r0, [r5], #-262	; 0xfffffefa
    13e0:	03050536 	movweq	r0, #21814	; 0x5536
    13e4:	02052e78 	andeq	r2, r5, #120, 28	; 0x780
    13e8:	01062f06 	tsteq	r6, r6, lsl #30
    13ec:	16060e05 	strne	r0, [r6], -r5, lsl #28
    13f0:	13140205 	tstne	r4, #1342177280	; 0x50000000
    13f4:	01060405 	tsteq	r6, r5, lsl #8
    13f8:	0602054a 	streq	r0, [r2], -sl, asr #10
    13fc:	05017803 	streq	r7, [r1, #-2051]	; 0xfffff7fd
    1400:	4a010605 	bmi	42c1c <__bss_end__+0x3854c>
    1404:	4b060205 	blmi	181c20 <__bss_end__+0x177550>
    1408:	0e050106 	adfeqs	f0, f5, f6
    140c:	02051606 	andeq	r1, r5, #6291456	; 0x600000
    1410:	15151314 	ldrne	r1, [r5, #-788]	; 0xfffffcec
    1414:	06010b05 	streq	r0, [r1], -r5, lsl #22
    1418:	0611052e 	ldreq	r0, [r1], -lr, lsr #10
    141c:	01019e03 	tsteq	r1, r3, lsl #28
    1420:	01062205 	tsteq	r6, r5, lsl #4
    1424:	052f0505 	streq	r0, [pc, #-1285]!	; f27 <__code_start__-0x70d9>
    1428:	05052d22 	streq	r2, [r5, #-3362]	; 0xfffff2de
    142c:	11052f06 	tstne	r5, r6, lsl #30
    1430:	8305054b 	movwhi	r0, #21835	; 0x554b
    1434:	5c039e01 	stcpl	14, cr9, [r3], {1}
    1438:	059e012e 	ldreq	r0, [lr, #302]	; 0x12e
    143c:	f3030602 	vmax.u8	d0, d3, d2
    1440:	052e2e7e 	streq	r2, [lr, #-3710]!	; 0xfffff182
    1444:	054a2c06 	strbeq	r2, [sl, #-3078]	; 0xfffff3fa
    1448:	00d8030d 	sbcseq	r0, r8, sp, lsl #6
    144c:	00040501 	andeq	r0, r4, r1, lsl #10
    1450:	06010402 	streq	r0, [r1], -r2, lsl #8
    1454:	004a1103 	subeq	r1, sl, r3, lsl #2
    1458:	01010402 	tsteq	r1, r2, lsl #8
    145c:	51061105 	tstpl	r6, r5, lsl #2
    1460:	15059e06 	strne	r9, [r5, #-3590]	; 0xfffff1fa
    1464:	012e1703 			; <UNDEFINED> instruction: 0x012e1703
    1468:	031105ba 	tsteq	r1, #780140544	; 0x2e800000
    146c:	02012e69 	andeq	r2, r1, #1680	; 0x690
    1470:	01010028 	tsteq	r1, r8, lsr #32
    1474:	00000087 	andeq	r0, r0, r7, lsl #1
    1478:	00640003 	rsbeq	r0, r4, r3
    147c:	01020000 	mrseq	r0, (UNDEF: 2)
    1480:	000d0efb 	strdeq	r0, [sp], -fp
    1484:	01010101 	tsteq	r1, r1, lsl #2
    1488:	01000000 	mrseq	r0, (UNDEF: 0)
    148c:	2e010000 	cdpcs	0, 0, cr0, cr1, cr0, {0}
    1490:	6174732f 	cmnvs	r4, pc, lsr #6
    1494:	732d6666 			; <UNDEFINED> instruction: 0x732d6666
    1498:	2f006372 	svccs	0x00006372
    149c:	72657355 	rsbvc	r7, r5, #1409286145	; 0x54000001
    14a0:	696d2f73 	stmdbvs	sp!, {r0, r1, r4, r5, r6, r8, r9, sl, fp, sp}^
    14a4:	2f73656c 	svccs	0x0073656c
    14a8:	72756f53 	rsbsvc	r6, r5, #332	; 0x14c
    14ac:	632f6563 			; <UNDEFINED> instruction: 0x632f6563
    14b0:	30343273 	eorscc	r3, r4, r3, ror r2
    14b4:	6c2f786c 	stcvs	8, cr7, [pc], #-432	; 130c <__code_start__-0x6cf4>
    14b8:	69706269 	ldmdbvs	r0!, {r0, r3, r5, r6, r9, sp, lr}^
    14bc:	636e692f 	cmnvs	lr, #770048	; 0xbc000
    14c0:	6564756c 	strbvs	r7, [r4, #-1388]!	; 0xfffffa94
    14c4:	6c630000 	stclvs	0, cr0, [r3], #-0
    14c8:	2d6e6165 	stfcse	f6, [lr, #-404]!	; 0xfffffe6c
    14cc:	6f626572 	svcvs	0x00626572
    14d0:	632e746f 			; <UNDEFINED> instruction: 0x632e746f
    14d4:	00000100 	andeq	r0, r0, r0, lsl #2
    14d8:	2e697072 	mcrcs	0, 3, r7, cr9, cr2, {3}
    14dc:	00020068 	andeq	r0, r2, r8, rrx
    14e0:	19050000 	stmdbne	r5, {}	; <UNPREDICTABLE>
    14e4:	bc020500 	cfstr32lt	mvfx0, [r2], {-0}
    14e8:	15000091 	strne	r0, [r0, #-145]	; 0xffffff6f
    14ec:	05130505 	ldreq	r0, [r3, #-1285]	; 0xfffffafb
    14f0:	052d0619 	streq	r0, [sp, #-1561]!	; 0xfffff9e7
    14f4:	67062f05 	strvs	r2, [r6, -r5, lsl #30]
    14f8:	06024b2f 	streq	r4, [r2], -pc, lsr #22
    14fc:	12010100 	andne	r0, r1, #0
    1500:	03000001 	movweq	r0, #1
    1504:	00005e00 	andeq	r5, r0, r0, lsl #28
    1508:	fb010200 	blx	41d12 <__bss_end__+0x37642>
    150c:	01000d0e 	tsteq	r0, lr, lsl #26
    1510:	00010101 	andeq	r0, r1, r1, lsl #2
    1514:	00010000 	andeq	r0, r1, r0
    1518:	2f2e0100 	svccs	0x002e0100
    151c:	66617473 			; <UNDEFINED> instruction: 0x66617473
    1520:	72732d66 	rsbsvc	r2, r3, #6528	; 0x1980
    1524:	552f0063 	strpl	r0, [pc, #-99]!	; 14c9 <__code_start__-0x6b37>
    1528:	73726573 	cmnvc	r2, #482344960	; 0x1cc00000
    152c:	6c696d2f 	stclvs	13, cr6, [r9], #-188	; 0xffffff44
    1530:	532f7365 			; <UNDEFINED> instruction: 0x532f7365
    1534:	6372756f 	cmnvs	r2, #465567744	; 0x1bc00000
    1538:	73632f65 	cmnvc	r3, #404	; 0x194
    153c:	6c303432 	cfldrsvs	mvf3, [r0], #-200	; 0xffffff38
    1540:	696c2f78 	stmdbvs	ip!, {r3, r4, r5, r6, r8, r9, sl, fp, sp}^
    1544:	2f697062 	svccs	0x00697062
    1548:	6c636e69 	stclvs	14, cr6, [r3], #-420	; 0xfffffe5c
    154c:	00656475 	rsbeq	r6, r5, r5, ror r4
    1550:	74736300 	ldrbtvc	r6, [r3], #-768	; 0xfffffd00
    1554:	2e747261 	cdpcs	2, 7, cr7, cr4, cr1, {3}
    1558:	00010063 	andeq	r0, r1, r3, rrx
    155c:	69707200 	ldmdbvs	r0!, {r9, ip, sp, lr}^
    1560:	0200682e 	andeq	r6, r0, #3014656	; 0x2e0000
    1564:	05000000 	streq	r0, [r0, #-0]
    1568:	02050010 	andeq	r0, r5, #16, 0
    156c:	000091e8 	andeq	r9, r0, r8, ror #3
    1570:	13050515 	movwne	r0, #21781	; 0x5515
    1574:	05130205 	ldreq	r0, [r3, #-517]	; 0xfffffdfb
    1578:	10051405 	andne	r1, r5, r5, lsl #8
    157c:	05050e06 	streq	r0, [r5, #-3590]	; 0xfffff1fa
    1580:	13300632 	teqne	r0, #52428800	; 0x3200000
    1584:	010a0514 	tsteq	sl, r4, lsl r5
    1588:	91080905 	tstls	r8, r5, lsl #18
    158c:	01061005 	tsteq	r6, r5
    1590:	059a0a05 	ldreq	r0, [sl, #2565]	; 0xa05
    1594:	0a056a10 	beq	15bddc <__bss_end__+0x15170c>
    1598:	09052d06 	stmdbeq	r5, {r1, r2, r8, sl, fp, sp}
    159c:	0610052f 	ldreq	r0, [r0], -pc, lsr #10
    15a0:	060a0501 	streq	r0, [sl], -r1, lsl #10
    15a4:	bb09052d 	bllt	242a60 <__bss_end__+0x238390>
    15a8:	01061005 	tsteq	r6, r5
    15ac:	65060a05 	strvs	r0, [r6, #-2565]	; 0xfffff5fb
    15b0:	054b0905 	strbeq	r0, [fp, #-2309]	; 0xfffff6fb
    15b4:	0501060d 	streq	r0, [r1, #-1549]	; 0xfffff9f3
    15b8:	10052d0a 	andne	r2, r5, sl, lsl #26
    15bc:	060a052f 	streq	r0, [sl], -pc, lsr #10
    15c0:	2f09052d 	svccs	0x0009052d
    15c4:	01060d05 	tsteq	r6, r5, lsl #26
    15c8:	052d0a05 	streq	r0, [sp, #-2565]!	; 0xfffff5fb
    15cc:	0a052f10 	beq	14d214 <__bss_end__+0x142b44>
    15d0:	09052d06 	stmdbeq	r5, {r1, r2, r8, sl, fp, sp}
    15d4:	060d052f 	streq	r0, [sp], -pc, lsr #10
    15d8:	2d0a0501 	cfstr32cs	mvfx0, [sl, #-4]
    15dc:	052f1005 	streq	r1, [pc, #-5]!	; 15df <__code_start__-0x6a21>
    15e0:	052d060a 	streq	r0, [sp, #-1546]!	; 0xfffff9f6
    15e4:	0d052f09 	stceq	15, cr2, [r5, #-36]	; 0xffffffdc
    15e8:	0a050106 	beq	141a08 <__bss_end__+0x137338>
    15ec:	2f10052d 	svccs	0x0010052d
    15f0:	2d060a05 	vstrcs	s0, [r6, #-20]	; 0xffffffec
    15f4:	05130905 	ldreq	r0, [r3, #-2309]	; 0xfffff6fb
    15f8:	05010610 	streq	r0, [r1, #-1552]	; 0xfffff9f0
    15fc:	052d060a 	streq	r0, [sp, #-1546]!	; 0xfffff9f6
    1600:	01321505 	teqeq	r2, r5, lsl #10
    1604:	05144a01 	ldreq	r4, [r4, #-2561]	; 0xfffff5ff
    1608:	0a052f02 	beq	14d218 <__bss_end__+0x142b48>
    160c:	2e730306 	cdpcs	3, 7, cr0, cr3, cr6, {0}
    1610:	01000802 	tsteq	r0, r2, lsl #16
    1614:	00007d01 	andeq	r7, r0, r1, lsl #26
    1618:	65000300 	strvs	r0, [r0, #-768]	; 0xfffffd00
    161c:	02000000 	andeq	r0, r0, #0, 0
    1620:	0d0efb01 	vstreq	d15, [lr, #-4]
    1624:	01010100 	mrseq	r0, (UNDEF: 17)
    1628:	00000001 	andeq	r0, r0, r1
    162c:	01000001 	tsteq	r0, r1
    1630:	74732f2e 	ldrbtvc	r2, [r3], #-3886	; 0xfffff0d2
    1634:	2d666661 	stclcs	6, cr6, [r6, #-388]!	; 0xfffffe7c
    1638:	00637273 	rsbeq	r7, r3, r3, ror r2
    163c:	6573552f 	ldrbvs	r5, [r3, #-1327]!	; 0xfffffad1
    1640:	6d2f7372 	stcvs	3, cr7, [pc, #-456]!	; 1480 <__code_start__-0x6b80>
    1644:	73656c69 	cmnvc	r5, #26880	; 0x6900
    1648:	756f532f 	strbvc	r5, [pc, #-815]!	; 1321 <__code_start__-0x6cdf>
    164c:	2f656372 	svccs	0x00656372
    1650:	34327363 	ldrtcc	r7, [r2], #-867	; 0xfffffc9d
    1654:	2f786c30 	svccs	0x00786c30
    1658:	7062696c 	rsbvc	r6, r2, ip, ror #18
    165c:	6e692f69 	cdpvs	15, 6, cr2, cr9, cr9, {3}
    1660:	64756c63 	ldrbtvs	r6, [r5], #-3171	; 0xfffff39d
    1664:	63000065 	movwvs	r0, #101	; 0x65
    1668:	6f747375 	svcvs	0x00747375
    166c:	6f6c2d6d 	svcvs	0x006c2d6d
    1670:	72656461 	rsbvc	r6, r5, #1627389952	; 0x61000000
    1674:	0100632e 	tsteq	r0, lr, lsr #6
    1678:	70720000 	rsbsvc	r0, r2, r0
    167c:	00682e69 	rsbeq	r2, r8, r9, ror #28
    1680:	00000002 	andeq	r0, r0, r2
    1684:	05001a05 	streq	r1, [r0, #-2565]	; 0xfffff5fb
    1688:	0092e002 	addseq	lr, r2, r2
    168c:	01051500 	tsteq	r5, r0, lsl #10
    1690:	00020214 	andeq	r0, r2, r4, lsl r2
    1694:	01140101 	tsteq	r4, r1, lsl #2
    1698:	00030000 	andeq	r0, r3, r0
    169c:	0000005e 	andeq	r0, r0, lr, asr r0
    16a0:	0efb0102 	cdpeq	1, 15, cr0, cr11, cr2, {0}
    16a4:	0101000d 	tsteq	r1, sp
    16a8:	00000101 	andeq	r0, r0, r1, lsl #2
    16ac:	00000100 	andeq	r0, r0, r0, lsl #2
    16b0:	732f2e01 			; <UNDEFINED> instruction: 0x732f2e01
    16b4:	66666174 			; <UNDEFINED> instruction: 0x66666174
    16b8:	6372732d 	cmnvs	r2, #-1275068416	; 0xb4000000
    16bc:	73552f00 	cmpvc	r5, #0, 30
    16c0:	2f737265 	svccs	0x00737265
    16c4:	656c696d 	strbvs	r6, [ip, #-2413]!	; 0xfffff693
    16c8:	6f532f73 	svcvs	0x00532f73
    16cc:	65637275 	strbvs	r7, [r3, #-629]!	; 0xfffffd8b
    16d0:	3273632f 	rsbscc	r6, r3, #-1140850688	; 0xbc000000
    16d4:	786c3034 	stmdavc	ip!, {r2, r4, r5, ip, sp}^
    16d8:	62696c2f 	rsbvs	r6, r9, #12032	; 0x2f00
    16dc:	692f6970 	stmdbvs	pc!, {r4, r5, r6, r8, fp, sp, lr}	; <UNPREDICTABLE>
    16e0:	756c636e 	strbvc	r6, [ip, #-878]!	; 0xfffffc92
    16e4:	00006564 	andeq	r6, r0, r4, ror #10
    16e8:	6f626572 	svcvs	0x00626572
    16ec:	632e746f 			; <UNDEFINED> instruction: 0x632e746f
    16f0:	00000100 	andeq	r0, r0, r0, lsl #2
    16f4:	2e697072 	mcrcs	0, 3, r7, cr9, cr2, {3}
    16f8:	00020068 	andeq	r0, r2, r8, rrx
    16fc:	19050000 	stmdbne	r5, {}	; <UNPREDICTABLE>
    1700:	e4020500 	str	r0, [r2], #-1280	; 0xfffffb00
    1704:	03000092 	movweq	r0, #146	; 0x92
    1708:	0505010d 	streq	r0, [r5, #-269]	; 0xfffffef3
    170c:	05311313 	ldreq	r1, [r1, #-787]!	; 0xfffffced
    1710:	05010613 	streq	r0, [r1, #-1555]	; 0xfffff9ed
    1714:	1b052f01 	blne	14d320 <__bss_end__+0x142c50>
    1718:	05058506 	streq	r8, [r5, #-1286]	; 0xfffffafa
    171c:	09051413 	stmdbeq	r5, {r0, r1, r4, sl, ip}
    1720:	0616052f 	ldreq	r0, [r6], -pc, lsr #10
    1724:	06050501 	streq	r0, [r5], -r1, lsl #10
    1728:	060e052f 	streq	r0, [lr], -pc, lsr #10
    172c:	2f050511 	svccs	0x00050511
    1730:	052f0105 	streq	r0, [pc, #-261]!	; 1633 <__code_start__-0x69cd>
    1734:	05300617 	ldreq	r0, [r0, #-1559]!	; 0xfffff9e9
    1738:	6e031305 	cdpvs	3, 0, cr1, cr3, cr5, {0}
    173c:	05131301 	ldreq	r1, [r3, #-769]	; 0xfffffcff
    1740:	0f030617 	svceq	0x00030617
    1744:	03050501 	movweq	r0, #21761	; 0x5501
    1748:	31062e71 	tstcc	r6, r1, ror lr
    174c:	01061305 	tsteq	r6, r5, lsl #6
    1750:	0d030705 	stceq	7, cr0, [r3, #-20]	; 0xffffffec
    1754:	0609052e 	streq	r0, [r9], -lr, lsr #10
    1758:	0306054b 	movweq	r0, #25931	; 0x654b
    175c:	05050176 	streq	r0, [r5, #-374]	; 0xfffffe8a
    1760:	09051413 	stmdbeq	r5, {r0, r1, r4, sl, ip}
    1764:	0616052f 	ldreq	r0, [r6], -pc, lsr #10
    1768:	06050501 	streq	r0, [r5], -r1, lsl #10
    176c:	060e052f 	streq	r0, [lr], -pc, lsr #10
    1770:	2f050511 	svccs	0x00050511
    1774:	0a03062e 	beq	c3034 <__bss_end__+0xb8964>
    1778:	4d2f3001 	stcmi	0, cr3, [pc, #-4]!	; 177c <__code_start__-0x6884>
    177c:	15131313 	ldrne	r1, [r3, #-787]	; 0xfffffced
    1780:	04020067 	streq	r0, [r2], #-103	; 0xffffff99
    1784:	0d056701 	stceq	7, cr6, [r5, #-4]
    1788:	01040200 	mrseq	r0, R12_usr
    178c:	000a0501 	andeq	r0, sl, r1, lsl #10
    1790:	01010402 	tsteq	r1, r2, lsl #8
    1794:	02000505 	andeq	r0, r0, #20971520	; 0x1400000
    1798:	05010104 	streq	r0, [r1, #-260]	; 0xfffffefc
    179c:	0402000d 	streq	r0, [r2], #-13
    17a0:	0a050101 	beq	141bac <__bss_end__+0x1374dc>
    17a4:	01040200 	mrseq	r0, R12_usr
    17a8:	000a0201 	andeq	r0, sl, r1, lsl #4
    17ac:	01fa0101 	mvnseq	r0, r1, lsl #2
    17b0:	00030000 	andeq	r0, r3, r0
    17b4:	0000005d 	andeq	r0, r0, sp, asr r0
    17b8:	0efb0102 	cdpeq	1, 15, cr0, cr11, cr2, {0}
    17bc:	0101000d 	tsteq	r1, sp
    17c0:	00000101 	andeq	r0, r0, r1, lsl #2
    17c4:	00000100 	andeq	r0, r0, r0, lsl #2
    17c8:	732f2e01 			; <UNDEFINED> instruction: 0x732f2e01
    17cc:	66666174 			; <UNDEFINED> instruction: 0x66666174
    17d0:	6372732d 	cmnvs	r2, #-1275068416	; 0xb4000000
    17d4:	73552f00 	cmpvc	r5, #0, 30
    17d8:	2f737265 	svccs	0x00737265
    17dc:	656c696d 	strbvs	r6, [ip, #-2413]!	; 0xfffff693
    17e0:	6f532f73 	svcvs	0x00532f73
    17e4:	65637275 	strbvs	r7, [r3, #-629]!	; 0xfffffd8b
    17e8:	3273632f 	rsbscc	r6, r3, #-1140850688	; 0xbc000000
    17ec:	786c3034 	stmdavc	ip!, {r2, r4, r5, ip, sp}^
    17f0:	62696c2f 	rsbvs	r6, r9, #12032	; 0x2f00
    17f4:	692f6970 	stmdbvs	pc!, {r4, r5, r6, r8, fp, sp, lr}	; <UNPREDICTABLE>
    17f8:	756c636e 	strbvc	r6, [ip, #-878]!	; 0xfffffc92
    17fc:	00006564 	andeq	r6, r0, r4, ror #10
    1800:	656d6974 	strbvs	r6, [sp, #-2420]!	; 0xfffff68c
    1804:	00632e72 	rsbeq	r2, r3, r2, ror lr
    1808:	72000001 	andvc	r0, r0, #1, 0
    180c:	682e6970 	stmdavs	lr!, {r4, r5, r6, r8, fp, sp, lr}
    1810:	00000200 	andeq	r0, r0, r0, lsl #4
    1814:	00230500 	eoreq	r0, r3, r0, lsl #10
    1818:	93700205 	cmnls	r0, #1342177280	; 0x50000000
    181c:	05150000 	ldreq	r0, [r5, #-0]
    1820:	0c051305 	stceq	3, cr1, [r5], {5}
    1824:	1f050106 	svcne	0x00050106
    1828:	05056a06 	streq	r6, [r5, #-2566]	; 0xfffff5fa
    182c:	061f0515 			; <UNDEFINED> instruction: 0x061f0515
    1830:	3105050f 	tstcc	r5, pc, lsl #10
    1834:	0a052f06 	beq	14d454 <__bss_end__+0x142d84>
    1838:	05017703 	streq	r7, [r1, #-1795]	; 0xfffff8fd
    183c:	0c051305 	stceq	3, cr1, [r5], {5}
    1840:	05660106 	strbeq	r0, [r6, #-262]!	; 0xfffffefa
    1844:	09030605 	stmdbeq	r3, {r0, r2, r9, sl}
    1848:	01052f01 	tsteq	r5, r1, lsl #30
    184c:	1c051306 	stcne	3, cr1, [r5], {6}
    1850:	05056806 	streq	r6, [r5, #-2054]	; 0xfffff7fa
    1854:	030a0513 	movweq	r0, #42259	; 0xa513
    1858:	05050176 	streq	r0, [r5, #-374]	; 0xfffffe8a
    185c:	061c0515 			; <UNDEFINED> instruction: 0x061c0515
    1860:	05052e18 	streq	r2, [r5, #-3608]	; 0xfffff1e8
    1864:	062e7a03 	strteq	r7, [lr], -r3, lsl #20
    1868:	030a052f 	movweq	r0, #42287	; 0xa52f
    186c:	05050177 	streq	r0, [r5, #-375]	; 0xfffffe89
    1870:	060c0513 			; <UNDEFINED> instruction: 0x060c0513
    1874:	05056601 	streq	r6, [r5, #-1537]	; 0xfffff9ff
    1878:	01090306 	tsteq	r9, r6, lsl #6
    187c:	0501062f 	streq	r0, [r1, #-1583]	; 0xfffff9d1
    1880:	0176030c 	cmneq	r6, ip, lsl #6
    1884:	03060505 	movweq	r0, #25861	; 0x6505
    1888:	09052e0f 	stmdbeq	r5, {r0, r1, r2, r3, r9, sl, fp, sp}
    188c:	030a0513 	movweq	r0, #42259	; 0xa513
    1890:	05050174 	streq	r0, [r5, #-372]	; 0xfffffe8c
    1894:	0a052f15 	beq	14d4f0 <__bss_end__+0x142e20>
    1898:	05017703 	streq	r7, [r1, #-1795]	; 0xfffff8fd
    189c:	0c051305 	stceq	3, cr1, [r5], {5}
    18a0:	05660106 	strbeq	r0, [r6, #-262]!	; 0xfffffefa
    18a4:	09030605 	stmdbeq	r3, {r0, r2, r9, sl}
    18a8:	06110501 	ldreq	r0, [r1], -r1, lsl #10
    18ac:	0305051a 	movweq	r0, #21786	; 0x551a
    18b0:	2f062e78 	svccs	0x00062e78
    18b4:	05190905 	ldreq	r0, [r9, #-2309]	; 0xfffff6fb
    18b8:	0501060c 	streq	r0, [r1, #-1548]	; 0xfffff9f4
    18bc:	0587061c 	streq	r0, [r7, #1564]	; 0x61c
    18c0:	1c051305 	stcne	3, cr1, [r5], {5}
    18c4:	05051106 	streq	r1, [r5, #-262]	; 0xfffffefa
    18c8:	06054a2f 	streq	r4, [r5], -pc, lsr #20
    18cc:	2e760306 	cdpcs	3, 7, cr0, cr6, cr6, {0}
    18d0:	05130505 	ldreq	r0, [r3, #-1285]	; 0xfffffafb
    18d4:	0176030a 	cmneq	r6, sl, lsl #6
    18d8:	2f150505 	svccs	0x00150505
    18dc:	77030a05 	strvc	r0, [r3, -r5, lsl #20]
    18e0:	13050501 	movwne	r0, #21761	; 0x5501
    18e4:	01060c05 	tsteq	r6, r5, lsl #24
    18e8:	06050566 	streq	r0, [r5], -r6, ror #10
    18ec:	2f010903 	svccs	0x00010903
    18f0:	0c050106 	stfeqs	f0, [r5], {6}
    18f4:	05017603 	streq	r7, [r1, #-1539]	; 0xfffff9fd
    18f8:	0f030605 	svceq	0x00030605
    18fc:	1309052e 	movwne	r0, #38190	; 0x952e
    1900:	74030a05 	strvc	r0, [r3], #-2565	; 0xfffff5fb
    1904:	15050501 	strne	r0, [r5, #-1281]	; 0xfffffaff
    1908:	030a052f 	movweq	r0, #42287	; 0xa52f
    190c:	05050177 	streq	r0, [r5, #-375]	; 0xfffffe89
    1910:	060c0513 			; <UNDEFINED> instruction: 0x060c0513
    1914:	05056601 	streq	r6, [r5, #-1537]	; 0xfffff9ff
    1918:	01090306 	tsteq	r9, r6, lsl #6
    191c:	1a061105 	bne	185d38 <__bss_end__+0x17b668>
    1920:	78030505 	stmdavc	r3, {r0, r2, r8, sl}
    1924:	052f062e 	streq	r0, [pc, #-1582]!	; 12fe <__code_start__-0x6d02>
    1928:	0c051909 			; <UNDEFINED> instruction: 0x0c051909
    192c:	1e050106 	adfnes	f0, f5, f6
    1930:	05058a06 	streq	r8, [r5, #-2566]	; 0xfffff5fa
    1934:	0e060513 	mcreq	5, 0, r0, cr6, cr3, {0}
    1938:	05130505 	ldreq	r0, [r3, #-1285]	; 0xfffffafb
    193c:	0514061e 	ldreq	r0, [r4, #-1566]	; 0xfffff9e2
    1940:	05662c05 	strbeq	r2, [r6, #-3077]!	; 0xfffff3fb
    1944:	76030606 	strvc	r0, [r3], -r6, lsl #12
    1948:	1305052e 	movwne	r0, #21806	; 0x552e
    194c:	76030a05 	strvc	r0, [r3], -r5, lsl #20
    1950:	15050501 	strne	r0, [r5, #-1281]	; 0xfffffaff
    1954:	030a052f 	movweq	r0, #42287	; 0xa52f
    1958:	05050177 	streq	r0, [r5, #-375]	; 0xfffffe89
    195c:	060c0513 			; <UNDEFINED> instruction: 0x060c0513
    1960:	05056601 	streq	r6, [r5, #-1537]	; 0xfffff9ff
    1964:	01090306 	tsteq	r9, r6, lsl #6
    1968:	0501062f 	streq	r0, [r1, #-1583]	; 0xfffff9d1
    196c:	0176030c 	cmneq	r6, ip, lsl #6
    1970:	03060505 	movweq	r0, #25861	; 0x6505
    1974:	09052e0f 	stmdbeq	r5, {r0, r1, r2, r3, r9, sl, fp, sp}
    1978:	030a0513 	movweq	r0, #42259	; 0xa513
    197c:	05050174 	streq	r0, [r5, #-372]	; 0xfffffe8c
    1980:	0a052f15 	beq	14d5dc <__bss_end__+0x142f0c>
    1984:	05017703 	streq	r7, [r1, #-1795]	; 0xfffff8fd
    1988:	0c051305 	stceq	3, cr1, [r5], {5}
    198c:	05660106 	strbeq	r0, [r6, #-262]!	; 0xfffffefa
    1990:	09030605 	stmdbeq	r3, {r0, r2, r9, sl}
    1994:	06110501 	ldreq	r0, [r1], -r1, lsl #10
    1998:	0305051a 	movweq	r0, #21786	; 0x551a
    199c:	2f062e78 	svccs	0x00062e78
    19a0:	05190905 	ldreq	r0, [r9, #-2309]	; 0xfffff6fb
    19a4:	0201060c 	andeq	r0, r1, #12, 12	; 0xc00000
    19a8:	01010008 	tsteq	r1, r8
    19ac:	00000204 	andeq	r0, r0, r4, lsl #4
    19b0:	00c80003 	sbceq	r0, r8, r3
    19b4:	01020000 	mrseq	r0, (UNDEF: 2)
    19b8:	000d0efb 	strdeq	r0, [sp], -fp
    19bc:	01010101 	tsteq	r1, r1, lsl #2
    19c0:	01000000 	mrseq	r0, (UNDEF: 0)
    19c4:	2f010000 	svccs	0x00010000
    19c8:	656d6f68 	strbvs	r6, [sp, #-3944]!	; 0xfffff098
    19cc:	676e652f 	strbvs	r6, [lr, -pc, lsr #10]!
    19d0:	2f72656c 	svccs	0x0072656c
    19d4:	73616c63 	cmnvc	r1, #25344	; 0x6300
    19d8:	73632f73 	cmnvc	r3, #460	; 0x1cc
    19dc:	65303431 	ldrvs	r3, [r0, #-1073]!	; 0xfffffbcf
    19e0:	7732322d 	ldrvc	r3, [r2, -sp, lsr #4]!
    19e4:	2f2f6e69 	svccs	0x002f6e69
    19e8:	7062696c 	rsbvc	r6, r2, ip, ror #18
    19ec:	6e692f69 	cdpvs	15, 6, cr2, cr9, cr9, {3}
    19f0:	64756c63 	ldrbtvs	r6, [r5], #-3171	; 0xfffff39d
    19f4:	752f0065 	strvc	r0, [pc, #-101]!	; 1997 <__code_start__-0x6669>
    19f8:	732f7273 			; <UNDEFINED> instruction: 0x732f7273
    19fc:	65726168 	ldrbvs	r6, [r2, #-360]!	; 0xfffffe98
    1a00:	6363672f 	cmnvs	r3, #12320768	; 0xbc0000
    1a04:	6d72612d 	ldfvse	f6, [r2, #-180]!	; 0xffffff4c
    1a08:	6e6f6e2d 	cdpvs	14, 6, cr6, cr15, cr13, {1}
    1a0c:	61652d65 	cmnvs	r5, r5, ror #26
    1a10:	312d6962 			; <UNDEFINED> instruction: 0x312d6962
    1a14:	2d332e30 	ldccs	14, cr2, [r3, #-192]!	; 0xffffff40
    1a18:	31323032 	teqcc	r2, r2, lsr r0
    1a1c:	2f30312e 	svccs	0x0030312e
    1a20:	2f62696c 	svccs	0x0062696c
    1a24:	2f636367 	svccs	0x00636367
    1a28:	2d6d7261 	sfmcs	f7, 2, [sp, #-388]!	; 0xfffffe7c
    1a2c:	656e6f6e 	strbvs	r6, [lr, #-3950]!	; 0xfffff092
    1a30:	6261652d 	rsbvs	r6, r1, #188743680	; 0xb400000
    1a34:	30312f69 	eorscc	r2, r1, r9, ror #30
    1a38:	312e332e 			; <UNDEFINED> instruction: 0x312e332e
    1a3c:	636e692f 	cmnvs	lr, #770048	; 0xbc000
    1a40:	6564756c 	strbvs	r7, [r4, #-1388]!	; 0xfffffa94
    1a44:	61750000 	cmnvs	r5, r0
    1a48:	632e7472 			; <UNDEFINED> instruction: 0x632e7472
    1a4c:	00000000 	andeq	r0, r0, r0
    1a50:	74726175 	ldrbtvc	r6, [r2], #-373	; 0xfffffe8b
    1a54:	0100682e 	tsteq	r0, lr, lsr #16
    1a58:	70720000 	rsbsvc	r0, r2, r0
    1a5c:	00682e69 	rsbeq	r2, r8, r9, ror #28
    1a60:	67000001 	strvs	r0, [r0, -r1]
    1a64:	2e6f6970 			; <UNDEFINED> instruction: 0x2e6f6970
    1a68:	00010068 	andeq	r0, r1, r8, rrx
    1a6c:	64747300 	ldrbtvs	r7, [r4], #-768	; 0xfffffd00
    1a70:	2d746e69 	ldclcs	14, cr6, [r4, #-420]!	; 0xfffffe5c
    1a74:	2e636367 	cdpcs	3, 6, cr6, cr3, cr7, {3}
    1a78:	00020068 	andeq	r0, r2, r8, rrx
    1a7c:	39050000 	stmdbcc	r5, {}	; <UNPREDICTABLE>
    1a80:	8c020500 	cfstr32hi	mvfx0, [r2], {-0}
    1a84:	03000094 	movweq	r0, #148	; 0x94
    1a88:	01060130 	tsteq	r6, r0, lsr r1
    1a8c:	67060505 	strvs	r0, [r6, -r5, lsl #10]
    1a90:	01061105 	tsteq	r6, r5, lsl #2
    1a94:	052e0505 	streq	r0, [lr, #-1285]!	; 0xfffffafb
    1a98:	38056701 	stmdacc	r5, {r0, r8, r9, sl, sp, lr}
    1a9c:	01062906 	tsteq	r6, r6, lsl #18
    1aa0:	67060505 	strvs	r0, [r6, -r5, lsl #10]
    1aa4:	01061105 	tsteq	r6, r5, lsl #2
    1aa8:	052e0505 	streq	r0, [lr, #-1285]!	; 0xfffffafb
    1aac:	16056701 	strne	r6, [r5], -r1, lsl #14
    1ab0:	2e150306 	cdpcs	3, 1, cr0, cr5, cr6, {0}
    1ab4:	67350505 	ldrvs	r0, [r5, -r5, lsl #10]!
    1ab8:	03683568 	cmneq	r8, #104, 10	; 0x1a000000
    1abc:	6b852e0c 	blvs	fe14d2f4 <__bss_end__+0xfe142c24>
    1ac0:	0c036969 			; <UNDEFINED> instruction: 0x0c036969
    1ac4:	676b1366 	strbvs	r1, [fp, -r6, ror #6]!
    1ac8:	2f060105 	svccs	0x00060105
    1acc:	08061905 	stmdaeq	r6, {r0, r2, r8, fp, ip}
    1ad0:	34050525 	strcc	r0, [r5], #-1317	; 0xfffffadb
    1ad4:	01060d05 	tsteq	r6, r5, lsl #26
    1ad8:	054c0105 	strbeq	r0, [ip, #-261]	; 0xfffffefb
    1adc:	05670619 	strbeq	r0, [r7, #-1561]!	; 0xfffff9e7
    1ae0:	0d053605 	stceq	6, cr3, [r5, #-20]	; 0xffffffec
    1ae4:	28050106 	stmdacs	r5, {r1, r2, r8}
    1ae8:	3001054a 	andcc	r0, r1, sl, asr #10
    1aec:	87061505 	strhi	r1, [r6, -r5, lsl #10]
    1af0:	2f2f0505 	svccs	0x002f0505
    1af4:	02000905 	andeq	r0, r0, #81920	; 0x14000
    1af8:	05130104 	ldreq	r0, [r3, #-260]	; 0xfffffefc
    1afc:	0402000a 	streq	r0, [r2], #-10
    1b00:	0c051101 	stfeqs	f1, [r5], {1}
    1b04:	01040200 	mrseq	r0, R12_usr
    1b08:	0a050106 	beq	141f28 <__bss_end__+0x137858>
    1b0c:	01040200 	mrseq	r0, R12_usr
    1b10:	0605052e 	streq	r0, [r5], -lr, lsr #10
    1b14:	060e054c 	streq	r0, [lr], -ip, asr #10
    1b18:	4a090501 	bmi	242f24 <__bss_end__+0x238854>
    1b1c:	2f060505 	svccs	0x00060505
    1b20:	0601052f 	streq	r0, [r1], -pc, lsr #10
    1b24:	061c0513 			; <UNDEFINED> instruction: 0x061c0513
    1b28:	05010667 	streq	r0, [r1, #-1639]	; 0xfffff999
    1b2c:	2f4b0605 	svccs	0x004b0605
    1b30:	02000905 	andeq	r0, r0, #81920	; 0x14000
    1b34:	05130104 	ldreq	r0, [r3, #-260]	; 0xfffffefc
    1b38:	0402000a 	streq	r0, [r2], #-10
    1b3c:	0c051101 	stfeqs	f1, [r5], {1}
    1b40:	01040200 	mrseq	r0, R12_usr
    1b44:	0a050106 	beq	141f64 <__bss_end__+0x137894>
    1b48:	01040200 	mrseq	r0, R12_usr
    1b4c:	0605052e 	streq	r0, [r5], -lr, lsr #10
    1b50:	0105674c 	tsteq	r5, ip, asr #14
    1b54:	19052f06 	stmdbne	r5, {r1, r2, r8, r9, sl, fp, sp}
    1b58:	1b054c06 	blne	154b78 <__bss_end__+0x14a4a8>
    1b5c:	2e2a052e 	cfsh64cs	mvdx0, mvdx10, #30
    1b60:	01063105 	tsteq	r6, r5, lsl #2
    1b64:	052e4205 	streq	r4, [lr, #-517]!	; 0xfffffdfb
    1b68:	0531061c 	ldreq	r0, [r1, #-1564]!	; 0xfffff9e4
    1b6c:	09032f05 	stmdbeq	r3, {r0, r2, r8, r9, sl, fp, sp}
    1b70:	060e052e 	streq	r0, [lr], -lr, lsr #10
    1b74:	4a210501 	bmi	842f80 <__bss_end__+0x8388b0>
    1b78:	0a030105 	beq	c1f94 <__bss_end__+0xb78c4>
    1b7c:	061a052e 	ldreq	r0, [sl], -lr, lsr #10
    1b80:	00090568 	andeq	r0, r9, r8, ror #10
    1b84:	30010402 	andcc	r0, r1, r2, lsl #8
    1b88:	02000a05 	andeq	r0, r0, #20480	; 0x5000
    1b8c:	05110104 	ldreq	r0, [r1, #-260]	; 0xfffffefc
    1b90:	0402000c 	streq	r0, [r2], #-12
    1b94:	05010601 	streq	r0, [r1, #-1537]	; 0xfffff9ff
    1b98:	0402000a 	streq	r0, [r2], #-10
    1b9c:	19052e01 	stmdbne	r5, {r0, r9, sl, fp, sp}
    1ba0:	7ee80306 	cdpvc	3, 14, cr0, cr8, cr6, {0}
    1ba4:	2f050566 	svccs	0x00050566
    1ba8:	05672f2f 	strbeq	r2, [r7, #-3887]!	; 0xfffff0d1
    1bac:	022f0601 	eoreq	r0, pc, #1048576	; 0x100000
    1bb0:	01010004 	tsteq	r1, r4
    1bb4:	00000392 	muleq	r0, r2, r3
    1bb8:	00b70003 	adcseq	r0, r7, r3
    1bbc:	01020000 	mrseq	r0, (UNDEF: 2)
    1bc0:	000d0efb 	strdeq	r0, [sp], -fp
    1bc4:	01010101 	tsteq	r1, r1, lsl #2
    1bc8:	01000000 	mrseq	r0, (UNDEF: 0)
    1bcc:	2f010000 	svccs	0x00010000
    1bd0:	656d6f68 	strbvs	r6, [sp, #-3944]!	; 0xfffff098
    1bd4:	676e652f 	strbvs	r6, [lr, -pc, lsr #10]!
    1bd8:	2f72656c 	svccs	0x0072656c
    1bdc:	73616c63 	cmnvc	r1, #25344	; 0x6300
    1be0:	73632f73 	cmnvc	r3, #460	; 0x1cc
    1be4:	65303431 	ldrvs	r3, [r0, #-1073]!	; 0xfffffbcf
    1be8:	7732322d 	ldrvc	r3, [r2, -sp, lsr #4]!
    1bec:	2f2f6e69 	svccs	0x002f6e69
    1bf0:	7062696c 	rsbvc	r6, r2, ip, ror #18
    1bf4:	6e692f69 	cdpvs	15, 6, cr2, cr9, cr9, {3}
    1bf8:	64756c63 	ldrbtvs	r6, [r5], #-3171	; 0xfffff39d
    1bfc:	752f0065 	strvc	r0, [pc, #-101]!	; 1b9f <__code_start__-0x6461>
    1c00:	732f7273 			; <UNDEFINED> instruction: 0x732f7273
    1c04:	65726168 	ldrbvs	r6, [r2, #-360]!	; 0xfffffe98
    1c08:	6363672f 	cmnvs	r3, #12320768	; 0xbc0000
    1c0c:	6d72612d 	ldfvse	f6, [r2, #-180]!	; 0xffffff4c
    1c10:	6e6f6e2d 	cdpvs	14, 6, cr6, cr15, cr13, {1}
    1c14:	61652d65 	cmnvs	r5, r5, ror #26
    1c18:	312d6962 			; <UNDEFINED> instruction: 0x312d6962
    1c1c:	2d332e30 	ldccs	14, cr2, [r3, #-192]!	; 0xffffff40
    1c20:	31323032 	teqcc	r2, r2, lsr r0
    1c24:	2f30312e 	svccs	0x0030312e
    1c28:	2f62696c 	svccs	0x0062696c
    1c2c:	2f636367 	svccs	0x00636367
    1c30:	2d6d7261 	sfmcs	f7, 2, [sp, #-388]!	; 0xfffffe7c
    1c34:	656e6f6e 	strbvs	r6, [lr, #-3950]!	; 0xfffff092
    1c38:	6261652d 	rsbvs	r6, r1, #188743680	; 0xb400000
    1c3c:	30312f69 	eorscc	r2, r1, r9, ror #30
    1c40:	312e332e 			; <UNDEFINED> instruction: 0x312e332e
    1c44:	636e692f 	cmnvs	lr, #770048	; 0xbc000
    1c48:	6564756c 	strbvs	r7, [r4, #-1388]!	; 0xfffffa94
    1c4c:	6d6b0000 	stclvs	0, cr0, [fp, #-0]
    1c50:	6f6c6c61 	svcvs	0x006c6c61
    1c54:	00632e63 	rsbeq	r2, r3, r3, ror #28
    1c58:	72000000 	andvc	r0, r0, #0, 0
    1c5c:	682e6970 	stmdavs	lr!, {r4, r5, r6, r8, fp, sp, lr}
    1c60:	00000100 	andeq	r0, r0, r0, lsl #2
    1c64:	69647473 	stmdbvs	r4!, {r0, r1, r4, r5, r6, sl, ip, sp, lr}^
    1c68:	672d746e 	strvs	r7, [sp, -lr, ror #8]!
    1c6c:	682e6363 	stmdavs	lr!, {r0, r1, r5, r6, r8, r9, sp, lr}
    1c70:	00000200 	andeq	r0, r0, r0, lsl #4
    1c74:	001e0500 	andseq	r0, lr, r0, lsl #10
    1c78:	967c0205 	ldrbtls	r0, [ip], -r5, lsl #4
    1c7c:	27030000 	strcs	r0, [r3, -r0]
    1c80:	01200501 			; <UNDEFINED> instruction: 0x01200501
    1c84:	01062d05 	tsteq	r6, r5, lsl #26
    1c88:	83062005 	movwhi	r2, #24581	; 0x6005
    1c8c:	05012205 	streq	r2, [r1, #-517]	; 0xfffffdfb
    1c90:	05010635 	streq	r0, [r1, #-1589]	; 0xfffff9cb
    1c94:	0583061e 	streq	r0, [r3, #1566]	; 0x61e
    1c98:	2d050120 	stfcss	f0, [r5, #-128]	; 0xffffff80
    1c9c:	42050106 	andmi	r0, r5, #-2147483647	; 0x80000001
    1ca0:	01068506 	tsteq	r6, r6, lsl #10
    1ca4:	4b060505 	blmi	1830c0 <__bss_end__+0x1789f0>
    1ca8:	2e060114 	mcrcs	1, 0, r0, cr6, cr4, {0}
    1cac:	02040200 	andeq	r0, r4, #0, 4
    1cb0:	02002e06 	andeq	r2, r0, #96	; 0x60
    1cb4:	00010204 	andeq	r0, r1, r4, lsl #4
    1cb8:	15020402 	strne	r0, [r2, #-1026]	; 0xfffffbfe
    1cbc:	02000d05 	andeq	r0, r0, #320	; 0x140
    1cc0:	01060204 	tsteq	r6, r4, lsl #4
    1cc4:	02000705 	andeq	r0, r0, #1310720	; 0x140000
    1cc8:	054a0204 	strbeq	r0, [sl, #-516]	; 0xfffffdfc
    1ccc:	054b0609 	strbeq	r0, [fp, #-1545]	; 0xfffff9f7
    1cd0:	17051505 	strne	r1, [r5, -r5, lsl #10]
    1cd4:	10050106 	andne	r0, r5, r6, lsl #2
    1cd8:	0605054a 	streq	r0, [r5], -sl, asr #10
    1cdc:	061b052f 	ldreq	r0, [fp], -pc, lsr #10
    1ce0:	2e0e0501 	cfsh32cs	mvfx0, mvfx14, #1
    1ce4:	052f0105 	streq	r0, [pc, #-261]!	; 1be7 <__code_start__-0x6419>
    1ce8:	04020005 	streq	r0, [r2], #-5
    1cec:	77030601 	strvc	r0, [r3, -r1, lsl #12]
    1cf0:	0402004a 	streq	r0, [r2], #-74	; 0xffffffb6
    1cf4:	02000101 	andeq	r0, r0, #1073741824	; 0x40000000
    1cf8:	9e060104 	adflss	f0, f6, f4
    1cfc:	01040200 	mrseq	r0, R12_usr
    1d00:	0402002e 	streq	r0, [r2], #-46	; 0xffffffd2
    1d04:	052e0601 	streq	r0, [lr, #-1537]!	; 0xfffff9ff
    1d08:	06013209 	streq	r3, [r1], -r9, lsl #4
    1d0c:	2e062ed6 	mcrcs	14, 0, r2, cr6, cr6, {6}
    1d10:	05de1905 	ldrbeq	r1, [lr, #2309]	; 0x905
    1d14:	05142f05 	ldreq	r2, [r4, #-3845]	; 0xfffff0fb
    1d18:	05010608 	streq	r0, [r1, #-1544]	; 0xfffff9f8
    1d1c:	09054a07 	stmdbeq	r5, {r0, r1, r2, r9, fp, lr}
    1d20:	05054b06 	streq	r4, [r5, #-2822]	; 0xfffff4fa
    1d24:	060c0513 			; <UNDEFINED> instruction: 0x060c0513
    1d28:	06050501 	streq	r0, [r5], -r1, lsl #10
    1d2c:	01051367 	tsteq	r5, r7, ror #6
    1d30:	09056706 	stmdbeq	r5, {r1, r2, r8, r9, sl, sp, lr}
    1d34:	9e012a06 	vmlals.f32	s4, s2, s12
    1d38:	06a52805 	strteq	r2, [r5], r5, lsl #16
    1d3c:	06050501 	streq	r0, [r5], -r1, lsl #10
    1d40:	2e06014b 	adfcssm	f0, f6, #3.0
    1d44:	13012e06 	movwne	r2, #7686	; 0x1e06
    1d48:	47031805 	strmi	r1, [r3, -r5, lsl #16]
    1d4c:	13050501 	movwne	r0, #21761	; 0x5501
    1d50:	06010601 	streq	r0, [r1], -r1, lsl #12
    1d54:	1301150f 	movwne	r1, #5391	; 0x150f
    1d58:	01060e05 	tsteq	r6, r5, lsl #28
    1d5c:	2e2e1605 	cfmadda32cs	mvax0, mvax1, mvfx14, mvfx5
    1d60:	03060505 	movweq	r0, #25861	; 0x6505
    1d64:	0b050139 	bleq	142250 <__bss_end__+0x137b80>
    1d68:	05050106 	streq	r0, [r5, #-262]	; 0xfffffefa
    1d6c:	0a054b06 	beq	15498c <__bss_end__+0x14a2bc>
    1d70:	05050106 	streq	r0, [r5, #-262]	; 0xfffffefa
    1d74:	0d054b06 	vstreq	d4, [r5, #-24]	; 0xffffffe8
    1d78:	07050106 	streq	r0, [r5, -r6, lsl #2]
    1d7c:	4d01052e 	cfstr32mi	mvfx0, [r1, #-184]	; 0xffffff48
    1d80:	02000505 	andeq	r0, r0, #20971520	; 0x1400000
    1d84:	03060104 	movweq	r0, #24836	; 0x6104
    1d88:	02004a78 	andeq	r4, r0, #120, 20	; 0x78000
    1d8c:	00010104 	andeq	r0, r1, r4, lsl #2
    1d90:	06010402 	streq	r0, [r1], -r2, lsl #8
    1d94:	040200ba 	streq	r0, [r2], #-186	; 0xffffff46
    1d98:	052e0601 	streq	r0, [lr, #-1537]!	; 0xfffff9ff
    1d9c:	06013409 	streq	r3, [r1], -r9, lsl #8
    1da0:	2e066682 	cfmadd32cs	mvax4, mvfx6, mvfx6, mvfx2
    1da4:	06db2005 	ldrbeq	r2, [fp], r5
    1da8:	06050501 	streq	r0, [r5], -r1, lsl #10
    1dac:	0200014b 	andeq	r0, r0, #-1073741806	; 0xc0000012
    1db0:	004a0204 	subeq	r0, sl, r4, lsl #4
    1db4:	01020402 	tsteq	r2, r2, lsl #8
    1db8:	02040200 	andeq	r0, r4, #0, 4
    1dbc:	00120513 	andseq	r0, r2, r3, lsl r5
    1dc0:	06020402 	streq	r0, [r2], -r2, lsl #8
    1dc4:	04020001 	streq	r0, [r2], #-1
    1dc8:	02002e02 	andeq	r2, r0, #2, 28
    1dcc:	052e0204 	streq	r0, [lr, #-516]!	; 0xfffffdfc
    1dd0:	04020005 	streq	r0, [r2], #-5
    1dd4:	002f0602 	eoreq	r0, pc, r2, lsl #12
    1dd8:	67020402 	strvs	r0, [r2, -r2, lsl #8]
    1ddc:	02000105 	andeq	r0, r0, #1073741825	; 0x40000001
    1de0:	13060204 	movwne	r0, #25092	; 0x6204
    1de4:	02000505 	andeq	r0, r0, #20971520	; 0x1400000
    1de8:	62060104 	andvs	r0, r6, #1
    1dec:	01040200 	mrseq	r0, R12_usr
    1df0:	04020001 	streq	r0, [r2], #-1
    1df4:	00ba0601 	adcseq	r0, sl, r1, lsl #12
    1df8:	06010402 	streq	r0, [r1], -r2, lsl #8
    1dfc:	033c052e 	teqeq	ip, #192937984	; 0xb800000
    1e00:	01069e0a 	tsteq	r6, sl, lsl #28
    1e04:	4b060505 	blmi	183220 <__bss_end__+0x178b50>
    1e08:	062e0601 	strteq	r0, [lr], -r1, lsl #12
    1e0c:	0113012e 	tsteq	r3, lr, lsr #2
    1e10:	ad031805 	stcge	8, cr1, [r3, #-20]	; 0xffffffec
    1e14:	0505017f 	streq	r0, [r5, #-383]	; 0xfffffe81
    1e18:	06110513 			; <UNDEFINED> instruction: 0x06110513
    1e1c:	05052e01 	streq	r2, [r5, #-3585]	; 0xfffff1ff
    1e20:	0100d203 	tsteq	r0, r3, lsl #4
    1e24:	05134a06 	ldreq	r4, [r3, #-2566]	; 0xfffff5fa
    1e28:	7fa30318 	svcvc	0x00a30318
    1e2c:	13050501 	movwne	r0, #21761	; 0x5501
    1e30:	01061605 	tsteq	r6, r5, lsl #12
    1e34:	0605054a 	streq	r0, [r5], -sl, asr #10
    1e38:	0100e103 	tsteq	r0, r3, lsl #2
    1e3c:	01061205 	tsteq	r6, r5, lsl #4
    1e40:	4b060505 	blmi	18325c <__bss_end__+0x178b8c>
    1e44:	a9031805 	stmdbge	r3, {r0, r2, fp, ip}
    1e48:	0505017f 	streq	r0, [r5, #-383]	; 0xfffffe81
    1e4c:	18050113 	stmdane	r5, {r0, r1, r4, r8}
    1e50:	1305050e 	movwne	r0, #21774	; 0x550e
    1e54:	01061105 	tsteq	r6, r5, lsl #2
    1e58:	1505052e 	strne	r0, [r5, #-1326]	; 0xfffffad2
    1e5c:	13014a06 	movwne	r4, #6662	; 0x1a06
    1e60:	01060e05 	tsteq	r6, r5, lsl #28
    1e64:	2e16052e 	cfmul64cs	mvdx0, mvdx6, mvdx14
    1e68:	0605052e 	streq	r0, [r5], -lr, lsr #10
    1e6c:	0100d603 	tsteq	r0, r3, lsl #12
    1e70:	03180501 	tsteq	r8, #4194304	; 0x400000
    1e74:	05017f9f 	streq	r7, [r1, #-3999]	; 0xfffff061
    1e78:	19051305 	stmdbne	r5, {r0, r2, r8, r9, ip}
    1e7c:	052e0106 	streq	r0, [lr, #-262]!	; 0xfffffefa
    1e80:	00e00305 	rsceq	r0, r0, r5, lsl #6
    1e84:	04020001 	streq	r0, [r2], #-1
    1e88:	004a0602 	subeq	r0, sl, r2, lsl #12
    1e8c:	14020402 	strne	r0, [r2], #-1026	; 0xfffffbfe
    1e90:	02000a05 	andeq	r0, r0, #20480	; 0x5000
    1e94:	01060204 	tsteq	r6, r4, lsl #4
    1e98:	02000505 	andeq	r0, r0, #20971520	; 0x1400000
    1e9c:	4b060204 	blmi	1826b4 <__bss_end__+0x177fe4>
    1ea0:	02000c05 	andeq	r0, r0, #1280	; 0x500
    1ea4:	01060204 	tsteq	r6, r4, lsl #4
    1ea8:	02000105 	andeq	r0, r0, #1073741825	; 0x40000001
    1eac:	052f0204 	streq	r0, [pc, #-516]!	; 1cb0 <__code_start__-0x6350>
    1eb0:	04020005 	streq	r0, [r2], #-5
    1eb4:	73030601 	movwvc	r0, #13825	; 0x3601
    1eb8:	0402004a 	streq	r0, [r2], #-74	; 0xffffffb6
    1ebc:	02000101 	andeq	r0, r0, #1073741824	; 0x40000000
    1ec0:	9e060104 	adflss	f0, f6, f4
    1ec4:	01040200 	mrseq	r0, R12_usr
    1ec8:	0402002e 	streq	r0, [r2], #-46	; 0xffffffd2
    1ecc:	002e0601 	eoreq	r0, lr, r1, lsl #12
    1ed0:	2f010402 	svccs	0x00010402
    1ed4:	01040200 	mrseq	r0, R12_usr
    1ed8:	0402002e 	streq	r0, [r2], #-46	; 0xffffffd2
    1edc:	b103d601 	tstlt	r3, r1, lsl #12
    1ee0:	06012e7f 			; <UNDEFINED> instruction: 0x06012e7f
    1ee4:	062e2e82 	strteq	r2, [lr], -r2, lsl #29
    1ee8:	002e062e 	eoreq	r0, lr, lr, lsr #12
    1eec:	06010402 	streq	r0, [r1], -r2, lsl #8
    1ef0:	0100d703 	tsteq	r0, r3, lsl #14
    1ef4:	01040200 	mrseq	r0, R12_usr
    1ef8:	0402002e 	streq	r0, [r2], #-46	; 0xffffffd2
    1efc:	1505d601 	strne	sp, [r5, #-1537]	; 0xfffff9ff
    1f00:	17057b08 	strne	r7, [r5, -r8, lsl #22]
    1f04:	31160501 	tstcc	r6, r1, lsl #10
    1f08:	05011805 	streq	r1, [r1, #-2053]	; 0xfffff7fb
    1f0c:	0501061d 	streq	r0, [r1, #-1565]	; 0xfffff9e3
    1f10:	1905662b 	stmdbne	r5, {r0, r1, r3, r5, r9, sl, sp, lr}
    1f14:	05054d06 	streq	r4, [r5, #-3334]	; 0xfffff2fa
    1f18:	060c0513 			; <UNDEFINED> instruction: 0x060c0513
    1f1c:	4a070501 	bmi	1c3328 <__bss_end__+0x1b8c58>
    1f20:	02002505 	andeq	r2, r0, #20971520	; 0x1400000
    1f24:	054a0104 	strbeq	r0, [sl, #-260]	; 0xfffffefc
    1f28:	0402001e 	streq	r0, [r2], #-30	; 0xffffffe2
    1f2c:	09054a01 	stmdbeq	r5, {r0, r9, fp, lr}
    1f30:	05054b06 	streq	r4, [r5, #-2822]	; 0xfffff4fa
    1f34:	060a0513 			; <UNDEFINED> instruction: 0x060a0513
    1f38:	63190501 	tstvs	r9, #4194304	; 0x400000
    1f3c:	4c060905 			; <UNDEFINED> instruction: 0x4c060905
    1f40:	069e0601 	ldreq	r0, [lr], r1, lsl #12
    1f44:	000a022e 	andeq	r0, sl, lr, lsr #4
    1f48:	02890101 	addeq	r0, r9, #1073741824	; 0x40000000
    1f4c:	00030000 	andeq	r0, r3, r0
    1f50:	000000c9 	andeq	r0, r0, r9, asr #1
    1f54:	0efb0102 	cdpeq	1, 15, cr0, cr11, cr2, {0}
    1f58:	0101000d 	tsteq	r1, sp
    1f5c:	00000101 	andeq	r0, r0, r1, lsl #2
    1f60:	00000100 	andeq	r0, r0, r0, lsl #2
    1f64:	732f2e01 			; <UNDEFINED> instruction: 0x732f2e01
    1f68:	2f006372 	svccs	0x00006372
    1f6c:	72657355 	rsbvc	r7, r5, #1409286145	; 0x54000001
    1f70:	696d2f73 	stmdbvs	sp!, {r0, r1, r4, r5, r6, r8, r9, sl, fp, sp}^
    1f74:	2f73656c 	svccs	0x0073656c
    1f78:	72756f53 	rsbsvc	r6, r5, #332	; 0x14c
    1f7c:	632f6563 			; <UNDEFINED> instruction: 0x632f6563
    1f80:	30343273 	eorscc	r3, r4, r3, ror r2
    1f84:	6c2f786c 	stcvs	8, cr7, [pc], #-432	; 1ddc <__code_start__-0x6224>
    1f88:	69706269 	ldmdbvs	r0!, {r0, r3, r5, r6, r9, sp, lr}^
    1f8c:	636e692f 	cmnvs	lr, #770048	; 0xbc000
    1f90:	6564756c 	strbvs	r7, [r4, #-1388]!	; 0xfffffa94
    1f94:	706f2f00 	rsbvc	r2, pc, r0, lsl #30
    1f98:	6f682f74 	svcvs	0x00682f74
    1f9c:	7262656d 	rsbvc	r6, r2, #457179136	; 0x1b400000
    1fa0:	432f7765 			; <UNDEFINED> instruction: 0x432f7765
    1fa4:	616c6c65 	cmnvs	ip, r5, ror #24
    1fa8:	72612f72 	rsbvc	r2, r1, #456	; 0x1c8
    1fac:	6f6e2d6d 	svcvs	0x006e2d6d
    1fb0:	652d656e 	strvs	r6, [sp, #-1390]!	; 0xfffffa92
    1fb4:	2d696261 	sfmcs	f6, 2, [r9, #-388]!	; 0xfffffe7c
    1fb8:	2d392f39 	ldccs	15, cr2, [r9, #-228]!	; 0xffffff1c
    1fbc:	39313032 	ldmdbcc	r1!, {r1, r4, r5, ip, sp}
    1fc0:	632d3471 			; <UNDEFINED> instruction: 0x632d3471
    1fc4:	37303173 			; <UNDEFINED> instruction: 0x37303173
    1fc8:	696c2f65 	stmdbvs	ip!, {r0, r2, r5, r6, r8, r9, sl, fp, sp}^
    1fcc:	63672f62 	cmnvs	r7, #392	; 0x188
    1fd0:	72612f63 	rsbvc	r2, r1, #396	; 0x18c
    1fd4:	6f6e2d6d 	svcvs	0x006e2d6d
    1fd8:	652d656e 	strvs	r6, [sp, #-1390]!	; 0xfffffa92
    1fdc:	2f696261 	svccs	0x00696261
    1fe0:	2e322e39 	mrccs	14, 1, r2, cr2, cr9, {1}
    1fe4:	6e692f31 	mcrvs	15, 3, r2, cr9, cr1, {1}
    1fe8:	64756c63 	ldrbtvs	r6, [r5], #-3171	; 0xfffff39d
    1fec:	67000065 	strvs	r0, [r0, -r5, rrx]
    1ff0:	2e6f6970 			; <UNDEFINED> instruction: 0x2e6f6970
    1ff4:	00010063 	andeq	r0, r1, r3, rrx
    1ff8:	69707200 	ldmdbvs	r0!, {r9, ip, sp, lr}^
    1ffc:	0200682e 	andeq	r6, r0, #3014656	; 0x2e0000
    2000:	74730000 	ldrbtvc	r0, [r3], #-0
    2004:	746e6964 	strbtvc	r6, [lr], #-2404	; 0xfffff69c
    2008:	6363672d 	cmnvs	r3, #11796480	; 0xb40000
    200c:	0300682e 	movweq	r6, #2094	; 0x82e
    2010:	70670000 	rsbvc	r0, r7, r0
    2014:	682e6f69 	stmdavs	lr!, {r0, r3, r5, r6, r8, r9, sl, fp, sp, lr}
    2018:	00000200 	andeq	r0, r0, r0, lsl #4
    201c:	00380500 	eorseq	r0, r8, r0, lsl #10
    2020:	9a2c0205 	bls	b0283c <__bss_end__+0xaf816c>
    2024:	27030000 	strcs	r0, [r3, -r0]
    2028:	13050501 	movwne	r0, #21761	; 0x5501
    202c:	01060705 	tsteq	r6, r5, lsl #14
    2030:	49060605 	stmdbmi	r6, {r0, r2, r9, sl}
    2034:	05150505 	ldreq	r0, [r5, #-1285]	; 0xfffffafb
    2038:	05010607 	streq	r0, [r1, #-1543]	; 0xfffff9f9
    203c:	07052b38 	smladxeq	r5, r8, fp, r2
    2040:	0605054d 	streq	r0, [r5], -sp, asr #10
    2044:	06180530 			; <UNDEFINED> instruction: 0x06180530
    2048:	671c0501 	ldrvs	r0, [ip, -r1, lsl #10]
    204c:	054a0e05 	strbeq	r0, [sl, #-3589]	; 0xfffff1fb
    2050:	12052d18 	andne	r2, r5, #24, 26	; 0x600
    2054:	052f2e4d 	streq	r2, [pc, #-3661]!	; 120f <__code_start__-0x6df1>
    2058:	05052a0e 	streq	r2, [r5, #-2574]	; 0xfffff5f2
    205c:	13142f06 	tstne	r4, #6, 30
    2060:	01060705 	tsteq	r6, r5, lsl #14
    2064:	2f060505 	svccs	0x00060505
    2068:	2e2e0613 	mcrcs	6, 1, r0, cr14, cr3, {0}
    206c:	05130105 	ldreq	r0, [r3, #-261]	; 0xfffffefb
    2070:	052e2d05 	streq	r2, [lr, #-3333]!	; 0xfffff2fb
    2074:	05000624 	streq	r0, [r0, #-1572]	; 0xfffff9dc
    2078:	009a8c02 	addseq	r8, sl, r2, lsl #24
    207c:	05051500 	streq	r1, [r5, #-1280]	; 0xfffffb00
    2080:	03060513 	movweq	r0, #25875	; 0x6513
    2084:	05050171 	streq	r0, [r5, #-369]	; 0xfffffe8f
    2088:	06070513 			; <UNDEFINED> instruction: 0x06070513
    208c:	06060501 	streq	r0, [r6], -r1, lsl #10
    2090:	15050549 	strne	r0, [r5, #-1353]	; 0xfffffab7
    2094:	06240514 			; <UNDEFINED> instruction: 0x06240514
    2098:	05010903 	streq	r0, [r1, #-2307]	; 0xfffff6fd
    209c:	2e770318 	mrccs	3, 3, r0, cr7, cr8, {0}
    20a0:	05671c05 	strbeq	r1, [r7, #-3077]!	; 0xfffff3fb
    20a4:	18054a0e 	stmdane	r5, {r1, r2, r3, r9, fp, lr}
    20a8:	4d12052d 	cfldr32mi	mvfx0, [r2, #-180]	; 0xffffff4c
    20ac:	0f052f2e 	svceq	0x00052f2e
    20b0:	290e052f 	stmdbcs	lr, {r0, r1, r2, r3, r5, r8, sl}
    20b4:	2f060505 	svccs	0x00060505
    20b8:	07051314 	smladeq	r5, r4, r3, r1
    20bc:	05050106 	streq	r0, [r5, #-262]	; 0xfffffefa
    20c0:	06132f06 	ldreq	r2, [r3], -r6, lsl #30
    20c4:	3301052e 	movwcc	r0, #5422	; 0x152e
    20c8:	2e290505 	cfsh64cs	mvdx0, mvdx9, #5
    20cc:	00062705 	andeq	r2, r6, r5, lsl #14
    20d0:	9ae40205 	bls	ff9028ec <__bss_end__+0xff8f821c>
    20d4:	051a0000 	ldreq	r0, [sl, #-0]
    20d8:	27051305 	strcs	r1, [r5, -r5, lsl #6]
    20dc:	18051106 	stmdane	r5, {r1, r2, r8, ip}
    20e0:	2e05052f 	cfsh32cs	mvfx0, mvfx5, #31
    20e4:	28054a2e 	stmdacs	r5, {r1, r2, r3, r5, r9, fp, lr}
    20e8:	02050006 	andeq	r0, r5, #6, 0
    20ec:	00009afc 	strdeq	r9, [r0], -ip
    20f0:	13050516 	movwne	r0, #21782	; 0x5516
    20f4:	11062805 	tstne	r6, r5, lsl #16
    20f8:	052f1805 	streq	r1, [pc, #-2053]!	; 18fb <__code_start__-0x6705>
    20fc:	4a2e2e05 	bmi	b8d918 <__bss_end__+0xb83248>
    2100:	00062305 	andeq	r2, r6, r5, lsl #6
    2104:	9b140205 	blls	502920 <__bss_end__+0x4f8250>
    2108:	05160000 	ldreq	r0, [r6, #-0]
    210c:	06051305 	streq	r1, [r5], -r5, lsl #6
    2110:	05016203 	streq	r6, [r1, #-515]	; 0xfffffdfd
    2114:	07051305 	streq	r1, [r5, -r5, lsl #6]
    2118:	06050106 	streq	r0, [r5], -r6, lsl #2
    211c:	05054906 	streq	r4, [r5, #-2310]	; 0xfffff6fa
    2120:	05131415 	ldreq	r1, [r3, #-1045]	; 0xfffffbeb
    2124:	17030623 	strne	r0, [r3, -r3, lsr #12]
    2128:	03220501 			; <UNDEFINED> instruction: 0x03220501
    212c:	1c052e69 	stcne	14, cr2, [r5], {105}	; 0x69
    2130:	0e052e82 	cdpeq	14, 0, cr2, cr5, cr2, {4}
    2134:	0605052e 	streq	r0, [r5], -lr, lsr #10
    2138:	06120530 			; <UNDEFINED> instruction: 0x06120530
    213c:	052d4b01 	streq	r4, [sp, #-2817]!	; 0xfffff4ff
    2140:	132f0605 			; <UNDEFINED> instruction: 0x132f0605
    2144:	06180513 			; <UNDEFINED> instruction: 0x06180513
    2148:	05017a03 	streq	r7, [r1, #-2563]	; 0xfffff5fd
    214c:	05054a0e 	streq	r4, [r5, #-2574]	; 0xfffff5f2
    2150:	01052e34 	tsteq	r5, r4, lsr lr
    2154:	052e1403 	streq	r1, [lr, #-1027]!	; 0xfffffbfd
    2158:	2e6c0305 	cdpcs	3, 6, cr0, cr12, cr5, {0}
    215c:	062b052e 	strteq	r0, [fp], -lr, lsr #10
    2160:	6c020500 	cfstr32vs	mvfx0, [r2], {-0}
    2164:	0300009b 	movweq	r0, #155	; 0x9b
    2168:	05050117 	streq	r0, [r5, #-279]	; 0xfffffee9
    216c:	06070513 			; <UNDEFINED> instruction: 0x06070513
    2170:	03180501 	tsteq	r8, #4194304	; 0x400000
    2174:	2b052e71 	blcs	14db40 <__bss_end__+0x143470>
    2178:	052e0e03 	streq	r0, [lr, #-3587]!	; 0xfffff1fd
    217c:	09052f07 	stmdbeq	r5, {r0, r1, r2, r8, r9, sl, fp, sp}
    2180:	0d052f06 	stceq	15, cr2, [r5, #-24]	; 0xffffffe8
    2184:	05016f03 	streq	r6, [r1, #-3843]	; 0xfffff0fd
    2188:	2e061305 	cdpcs	3, 0, cr1, cr6, cr5, {0}
    218c:	09052e2e 	stmdbeq	r5, {r1, r2, r3, r5, r9, sl, fp, sp}
    2190:	01120306 	tsteq	r2, r6, lsl #6
    2194:	72030d05 	andvc	r0, r3, #320	; 0x140
    2198:	13050501 	movwne	r0, #21761	; 0x5501
    219c:	052e2e06 	streq	r2, [lr, #-3590]!	; 0xfffff1fa
    21a0:	1003061d 	andne	r0, r3, sp, lsl r6
    21a4:	13050566 	movwne	r0, #21862	; 0x5566
    21a8:	11061d05 	tstne	r6, r5, lsl #26
    21ac:	0605052e 	streq	r0, [r5], -lr, lsr #10
    21b0:	0e051330 	mcreq	3, 0, r1, cr5, cr0, {1}
    21b4:	17051006 	strne	r1, [r5, -r6]
    21b8:	02042e30 	andeq	r2, r4, #48, 28	; 0x300
    21bc:	03063005 	movweq	r3, #24581	; 0x6005
    21c0:	042e00dd 	strteq	r0, [lr], #-221	; 0xffffff23
    21c4:	060e0501 	streq	r0, [lr], -r1, lsl #10
    21c8:	017fa203 	cmneq	pc, r3, lsl #4
    21cc:	052f2305 	streq	r2, [pc, #-773]!	; 1ecf <__code_start__-0x6131>
    21d0:	06022f01 	streq	r2, [r2], -r1, lsl #30
    21d4:	9e010100 	adflss	f0, f1, f0
    21d8:	03000000 	movweq	r0, #0
    21dc:	00005a00 	andeq	r5, r0, r0, lsl #20
    21e0:	fb010200 	blx	429ea <__bss_end__+0x3831a>
    21e4:	01000d0e 	tsteq	r0, lr, lsl #26
    21e8:	00010101 	andeq	r0, r1, r1, lsl #2
    21ec:	00010000 	andeq	r0, r1, r0
    21f0:	2f2e0100 	svccs	0x002e0100
    21f4:	6362696c 	cmnvs	r2, #108, 18	; 0x1b0000
    21f8:	73552f00 	cmpvc	r5, #0, 30
    21fc:	2f737265 	svccs	0x00737265
    2200:	656c696d 	strbvs	r6, [ip, #-2413]!	; 0xfffff693
    2204:	6f532f73 	svcvs	0x00532f73
    2208:	65637275 	strbvs	r7, [r3, #-629]!	; 0xfffffd8b
    220c:	3273632f 	rsbscc	r6, r3, #-1140850688	; 0xbc000000
    2210:	786c3034 	stmdavc	ip!, {r2, r4, r5, ip, sp}^
    2214:	62696c2f 	rsbvs	r6, r9, #12032	; 0x2f00
    2218:	692f6970 	stmdbvs	pc!, {r4, r5, r6, r8, fp, sp, lr}	; <UNPREDICTABLE>
    221c:	756c636e 	strbvc	r6, [ip, #-878]!	; 0xfffffc92
    2220:	00006564 	andeq	r6, r0, r4, ror #10
    2224:	63747570 	cmnvs	r4, #112, 10	; 0x1c000000
    2228:	2e726168 	rpwcssz	f6, f2, #0.0
    222c:	00010063 	andeq	r0, r1, r3, rrx
    2230:	69707200 	ldmdbvs	r0!, {r9, ip, sp, lr}^
    2234:	0200682e 	andeq	r6, r0, #3014656	; 0x2e0000
    2238:	05000000 	streq	r0, [r0, #-0]
    223c:	02050024 	andeq	r0, r5, #36, 0	; 0x24
    2240:	00009bc4 	andeq	r9, r0, r4, asr #23
    2244:	01260514 			; <UNDEFINED> instruction: 0x01260514
    2248:	01062405 	tsteq	r6, r5, lsl #8
    224c:	2e26052e 	cfsh64cs	mvdx0, mvdx6, #30
    2250:	2e063405 	cdpcs	4, 0, cr3, cr6, cr5, {0}
    2254:	01060105 	tsteq	r6, r5, lsl #2
    2258:	4f061b05 	svcmi	0x00061b05
    225c:	05130505 	ldreq	r0, [r3, #-1285]	; 0xfffffafb
    2260:	05010611 	streq	r0, [r1, #-1553]	; 0xfffff9ef
    2264:	23056701 	movwcs	r6, #22273	; 0x5701
    2268:	05056706 	streq	r6, [r5, #-1798]	; 0xfffff8fa
    226c:	06110513 			; <UNDEFINED> instruction: 0x06110513
    2270:	4b010501 	blmi	4367c <__bss_end__+0x38fac>
    2274:	01000402 	tsteq	r0, r2, lsl #8
    2278:	0000e201 	andeq	lr, r0, r1, lsl #4
    227c:	59000300 	stmdbpl	r0, {r8, r9}
    2280:	02000000 	andeq	r0, r0, #0, 0
    2284:	0d0efb01 	vstreq	d15, [lr, #-4]
    2288:	01010100 	mrseq	r0, (UNDEF: 17)
    228c:	00000001 	andeq	r0, r0, r1
    2290:	01000001 	tsteq	r0, r1
    2294:	696c2f2e 	stmdbvs	ip!, {r1, r2, r3, r5, r8, r9, sl, fp, sp}^
    2298:	2f006362 	svccs	0x00006362
    229c:	72657355 	rsbvc	r7, r5, #1409286145	; 0x54000001
    22a0:	696d2f73 	stmdbvs	sp!, {r0, r1, r4, r5, r6, r8, r9, sl, fp, sp}^
    22a4:	2f73656c 	svccs	0x0073656c
    22a8:	72756f53 	rsbsvc	r6, r5, #332	; 0x14c
    22ac:	632f6563 			; <UNDEFINED> instruction: 0x632f6563
    22b0:	30343273 	eorscc	r3, r4, r3, ror r2
    22b4:	6c2f786c 	stcvs	8, cr7, [pc], #-432	; 210c <__code_start__-0x5ef4>
    22b8:	69706269 	ldmdbvs	r0!, {r0, r3, r5, r6, r9, sp, lr}^
    22bc:	636e692f 	cmnvs	lr, #770048	; 0xbc000
    22c0:	6564756c 	strbvs	r7, [r4, #-1388]!	; 0xfffffa94
    22c4:	74730000 	ldrbtvc	r0, [r3], #-0
    22c8:	74616372 	strbtvc	r6, [r1], #-882	; 0xfffffc8e
    22cc:	0100632e 	tsteq	r0, lr, lsr #6
    22d0:	70720000 	rsbsvc	r0, r2, r0
    22d4:	00682e69 	rsbeq	r2, r8, r9, ror #28
    22d8:	00000002 	andeq	r0, r0, r2
    22dc:	05002c05 	streq	r2, [r0, #-3077]	; 0xfffff3fb
    22e0:	009c0002 	addseq	r0, ip, r2
    22e4:	05051500 	streq	r1, [r5, #-1280]	; 0xfffffb00
    22e8:	0b051313 	bleq	146f3c <__bss_end__+0x13c86c>
    22ec:	05051106 	streq	r1, [r5, #-262]	; 0xfffffefa
    22f0:	01040200 	mrseq	r0, R12_usr
    22f4:	02003006 	andeq	r3, r0, #6, 0
    22f8:	05150104 	ldreq	r0, [r5, #-260]	; 0xfffffefc
    22fc:	04020009 	streq	r0, [r2], #-9
    2300:	0b051301 	bleq	146f0c <__bss_end__+0x13c83c>
    2304:	01040200 	mrseq	r0, R12_usr
    2308:	0005052f 	andeq	r0, r5, pc, lsr #10
    230c:	06010402 	streq	r0, [r1], -r2, lsl #8
    2310:	04020001 	streq	r0, [r2], #-1
    2314:	4e062e01 	cdpmi	14, 0, cr2, cr6, cr1, {0}
    2318:	01060805 	tsteq	r6, r5, lsl #16
    231c:	02000505 	andeq	r0, r0, #20971520	; 0x1400000
    2320:	2f060104 	svccs	0x00060104
    2324:	02000905 	andeq	r0, r0, #81920	; 0x14000
    2328:	05130104 	ldreq	r0, [r3, #-260]	; 0xfffffefc
    232c:	0402000b 	streq	r0, [r2], #-11
    2330:	05010601 	streq	r0, [r1, #-1537]	; 0xfffff9ff
    2334:	04020009 	streq	r0, [r2], #-9
    2338:	052f0601 	streq	r0, [pc, #-1537]!	; 1d3f <__code_start__-0x62c1>
    233c:	04020005 	streq	r0, [r2], #-5
    2340:	05130601 	ldreq	r0, [r3, #-1537]	; 0xfffff9ff
    2344:	0402000f 	streq	r0, [r2], #-15
    2348:	0d052d01 	stceq	13, cr2, [r5, #-4]
    234c:	01040200 	mrseq	r0, R12_usr
    2350:	05052f06 	streq	r2, [r5, #-3846]	; 0xfffff0fa
    2354:	01040200 	mrseq	r0, R12_usr
    2358:	04020106 	streq	r0, [r2], #-262	; 0xfffffefa
    235c:	b2010100 	andlt	r0, r1, #0
    2360:	03000000 	movweq	r0, #0
    2364:	00005900 	andeq	r5, r0, r0, lsl #18
    2368:	fb010200 	blx	42b72 <__bss_end__+0x384a2>
    236c:	01000d0e 	tsteq	r0, lr, lsl #26
    2370:	00010101 	andeq	r0, r1, r1, lsl #2
    2374:	00010000 	andeq	r0, r1, r0
    2378:	2f2e0100 	svccs	0x002e0100
    237c:	6362696c 	cmnvs	r2, #108, 18	; 0x1b0000
    2380:	73552f00 	cmpvc	r5, #0, 30
    2384:	2f737265 	svccs	0x00737265
    2388:	656c696d 	strbvs	r6, [ip, #-2413]!	; 0xfffff693
    238c:	6f532f73 	svcvs	0x00532f73
    2390:	65637275 	strbvs	r7, [r3, #-629]!	; 0xfffffd8b
    2394:	3273632f 	rsbscc	r6, r3, #-1140850688	; 0xbc000000
    2398:	786c3034 	stmdavc	ip!, {r2, r4, r5, ip, sp}^
    239c:	62696c2f 	rsbvs	r6, r9, #12032	; 0x2f00
    23a0:	692f6970 	stmdbvs	pc!, {r4, r5, r6, r8, fp, sp, lr}	; <UNPREDICTABLE>
    23a4:	756c636e 	strbvc	r6, [ip, #-878]!	; 0xfffffc92
    23a8:	00006564 	andeq	r6, r0, r4, ror #10
    23ac:	63727473 	cmnvs	r2, #1929379840	; 0x73000000
    23b0:	632e706d 			; <UNDEFINED> instruction: 0x632e706d
    23b4:	00000100 	andeq	r0, r0, r0, lsl #2
    23b8:	2e697072 	mcrcs	0, 3, r7, cr9, cr2, {3}
    23bc:	00020068 	andeq	r0, r2, r8, rrx
    23c0:	2a050000 	bcs	1423c8 <__bss_end__+0x137cf8>
    23c4:	2c020500 	cfstr32cs	mvfx0, [r2], {-0}
    23c8:	1400009c 	strne	r0, [r0], #-156	; 0xffffff64
    23cc:	05130905 	ldreq	r0, [r3, #-2309]	; 0xfffff6fb
    23d0:	05010610 	streq	r0, [r1, #-1552]	; 0xfffff9f0
    23d4:	052e060f 	streq	r0, [lr, #-1551]!	; 0xfffff9f1
    23d8:	05820610 	streq	r0, [r2, #1552]	; 0x610
    23dc:	11052e0f 	tstne	r5, pc, lsl #28
    23e0:	01040200 	mrseq	r0, R12_usr
    23e4:	1c054b06 			; <UNDEFINED> instruction: 0x1c054b06
    23e8:	01040200 	mrseq	r0, R12_usr
    23ec:	0f052d06 	svceq	0x00052d06
    23f0:	01040200 	mrseq	r0, R12_usr
    23f4:	13052e06 	movwne	r2, #24070	; 0x5e06
    23f8:	01040200 	mrseq	r0, R12_usr
    23fc:	09050106 	stmdbeq	r5, {r1, r2, r8}
    2400:	01054c06 	tsteq	r5, r6, lsl #24
    2404:	054a1306 	strbeq	r1, [sl, #-774]	; 0xfffffcfa
    2408:	052d0609 	streq	r0, [sp, #-1545]!	; 0xfffff9f7
    240c:	2e130601 	cfmsub32cs	mvax0, mvfx0, mvfx3, mvfx1
    2410:	01000202 	tsteq	r0, r2, lsl #4
    2414:	00009d01 	andeq	r9, r0, r1, lsl #26
    2418:	59000300 	stmdbpl	r0, {r8, r9}
    241c:	02000000 	andeq	r0, r0, #0, 0
    2420:	0d0efb01 	vstreq	d15, [lr, #-4]
    2424:	01010100 	mrseq	r0, (UNDEF: 17)
    2428:	00000001 	andeq	r0, r0, r1
    242c:	01000001 	tsteq	r0, r1
    2430:	696c2f2e 	stmdbvs	ip!, {r1, r2, r3, r5, r8, r9, sl, fp, sp}^
    2434:	2f006362 	svccs	0x00006362
    2438:	72657355 	rsbvc	r7, r5, #1409286145	; 0x54000001
    243c:	696d2f73 	stmdbvs	sp!, {r0, r1, r4, r5, r6, r8, r9, sl, fp, sp}^
    2440:	2f73656c 	svccs	0x0073656c
    2444:	72756f53 	rsbsvc	r6, r5, #332	; 0x14c
    2448:	632f6563 			; <UNDEFINED> instruction: 0x632f6563
    244c:	30343273 	eorscc	r3, r4, r3, ror r2
    2450:	6c2f786c 	stcvs	8, cr7, [pc], #-432	; 22a8 <__code_start__-0x5d58>
    2454:	69706269 	ldmdbvs	r0!, {r0, r3, r5, r6, r9, sp, lr}^
    2458:	636e692f 	cmnvs	lr, #770048	; 0xbc000
    245c:	6564756c 	strbvs	r7, [r4, #-1388]!	; 0xfffffa94
    2460:	74730000 	ldrbtvc	r0, [r3], #-0
    2464:	79706372 	ldmdbvc	r0!, {r1, r4, r5, r6, r8, r9, sp, lr}^
    2468:	0100632e 	tsteq	r0, lr, lsr #6
    246c:	70720000 	rsbsvc	r0, r2, r0
    2470:	00682e69 	rsbeq	r2, r8, r9, ror #28
    2474:	00000002 	andeq	r0, r0, r2
    2478:	05002a05 	streq	r2, [r0, #-2565]	; 0xfffff5fb
    247c:	009c7002 	addseq	r7, ip, r2
    2480:	05051400 	streq	r1, [r5, #-1024]	; 0xfffffc00
    2484:	22051313 	andcs	r1, r5, #1275068416	; 0x4c000000
    2488:	01040200 	mrseq	r0, R12_usr
    248c:	000b052e 	andeq	r0, fp, lr, lsr #10
    2490:	01010402 	tsteq	r1, r2, lsl #8
    2494:	02001505 	andeq	r1, r0, #20971520	; 0x1400000
    2498:	01060104 	tsteq	r6, r4, lsl #2
    249c:	02000b05 	andeq	r0, r0, #5120	; 0x1400
    24a0:	052e0104 	streq	r0, [lr, #-260]!	; 0xfffffefc
    24a4:	04020013 	streq	r0, [r2], #-19	; 0xffffffed
    24a8:	0b052e01 	bleq	14dcb4 <__bss_end__+0x1435e4>
    24ac:	01040200 	mrseq	r0, R12_usr
    24b0:	0004022e 	andeq	r0, r4, lr, lsr #4
    24b4:	00fd0101 	rscseq	r0, sp, r1, lsl #2
    24b8:	00030000 	andeq	r0, r3, r0
    24bc:	000000bf 	strheq	r0, [r0], -pc	; <UNPREDICTABLE>
    24c0:	0efb0102 	cdpeq	1, 15, cr0, cr11, cr2, {0}
    24c4:	0101000d 	tsteq	r1, sp
    24c8:	00000101 	andeq	r0, r0, r1, lsl #2
    24cc:	00000100 	andeq	r0, r0, r0, lsl #2
    24d0:	6c2f2e01 	stcvs	14, cr2, [pc], #-4	; 24d4 <__code_start__-0x5b2c>
    24d4:	00636269 	rsbeq	r6, r3, r9, ror #4
    24d8:	6573552f 	ldrbvs	r5, [r3, #-1327]!	; 0xfffffad1
    24dc:	6d2f7372 	stcvs	3, cr7, [pc, #-456]!	; 231c <__code_start__-0x5ce4>
    24e0:	73656c69 	cmnvc	r5, #26880	; 0x6900
    24e4:	756f532f 	strbvc	r5, [pc, #-815]!	; 21bd <__code_start__-0x5e43>
    24e8:	2f656372 	svccs	0x00656372
    24ec:	34327363 	ldrtcc	r7, [r2], #-867	; 0xfffffc9d
    24f0:	2f786c30 	svccs	0x00786c30
    24f4:	7062696c 	rsbvc	r6, r2, ip, ror #18
    24f8:	6e692f69 	cdpvs	15, 6, cr2, cr9, cr9, {3}
    24fc:	64756c63 	ldrbtvs	r6, [r5], #-3171	; 0xfffff39d
    2500:	6f2f0065 	svcvs	0x002f0065
    2504:	682f7470 	stmdavs	pc!, {r4, r5, r6, sl, ip, sp, lr}	; <UNPREDICTABLE>
    2508:	62656d6f 	rsbvs	r6, r5, #7104	; 0x1bc0
    250c:	2f776572 	svccs	0x00776572
    2510:	6c6c6543 	cfstr64vs	mvdx6, [ip], #-268	; 0xfffffef4
    2514:	612f7261 			; <UNDEFINED> instruction: 0x612f7261
    2518:	6e2d6d72 	mcrvs	13, 1, r6, cr13, cr2, {3}
    251c:	2d656e6f 	stclcs	14, cr6, [r5, #-444]!	; 0xfffffe44
    2520:	69626165 	stmdbvs	r2!, {r0, r2, r5, r6, r8, sp, lr}^
    2524:	392f392d 	stmdbcc	pc!, {r0, r2, r3, r5, r8, fp, ip, sp}	; <UNPREDICTABLE>
    2528:	3130322d 	teqcc	r0, sp, lsr #4
    252c:	2d347139 	ldfcss	f7, [r4, #-228]!	; 0xffffff1c
    2530:	30317363 	eorscc	r7, r1, r3, ror #6
    2534:	6c2f6537 	cfstr32vs	mvfx6, [pc], #-220	; 2460 <__code_start__-0x5ba0>
    2538:	672f6269 	strvs	r6, [pc, -r9, ror #4]!
    253c:	612f6363 			; <UNDEFINED> instruction: 0x612f6363
    2540:	6e2d6d72 	mcrvs	13, 1, r6, cr13, cr2, {3}
    2544:	2d656e6f 	stclcs	14, cr6, [r5, #-444]!	; 0xfffffe44
    2548:	69626165 	stmdbvs	r2!, {r0, r2, r5, r6, r8, sp, lr}^
    254c:	322e392f 	eorcc	r3, lr, #770048	; 0xbc000
    2550:	692f312e 	stmdbvs	pc!, {r1, r2, r3, r5, r8, ip, sp}	; <UNPREDICTABLE>
    2554:	756c636e 	strbvc	r6, [ip, #-878]!	; 0xfffffc92
    2558:	00006564 	andeq	r6, r0, r4, ror #10
    255c:	6e727473 	mrcvs	4, 3, r7, cr2, cr3, {3}
    2560:	2e706d63 	cdpcs	13, 7, cr6, cr0, cr3, {3}
    2564:	00010063 	andeq	r0, r1, r3, rrx
    2568:	69707200 	ldmdbvs	r0!, {r9, ip, sp, lr}^
    256c:	0200682e 	andeq	r6, r0, #3014656	; 0x2e0000
    2570:	74730000 	ldrbtvc	r0, [r3], #-0
    2574:	66656464 	strbtvs	r6, [r5], -r4, ror #8
    2578:	0300682e 	movweq	r6, #2094	; 0x82e
    257c:	05000000 	streq	r0, [r0, #-0]
    2580:	02050039 	andeq	r0, r5, #57, 0	; 0x39
    2584:	00009c88 	andeq	r9, r0, r8, lsl #25
    2588:	13050515 	movwne	r0, #21781	; 0x5515
    258c:	060a0513 			; <UNDEFINED> instruction: 0x060a0513
    2590:	2f0c052e 	svccs	0x000c052e
    2594:	052e1305 	streq	r1, [lr, #-773]!	; 0xfffffcfb
    2598:	09052e0b 	stmdbeq	r5, {r0, r1, r3, r9, sl, fp, sp}
    259c:	0a054a06 	beq	154dbc <__bss_end__+0x14a6ec>
    25a0:	05010611 	streq	r0, [r1, #-1553]	; 0xfffff9ef
    25a4:	01054e0c 	tsteq	r5, ip, lsl #28
    25a8:	060d052f 	streq	r0, [sp], -pc, lsr #10
    25ac:	061b052b 	ldreq	r0, [fp], -fp, lsr #10
    25b0:	02022e01 	andeq	r2, r2, #1, 28
    25b4:	8a010100 	bhi	429bc <__bss_end__+0x382ec>
    25b8:	03000000 	movweq	r0, #0
    25bc:	00006e00 	andeq	r6, r0, r0, lsl #28
    25c0:	fb010200 	blx	42dca <__bss_end__+0x386fa>
    25c4:	01000d0e 	tsteq	r0, lr, lsl #26
    25c8:	00010101 	andeq	r0, r1, r1, lsl #2
    25cc:	00010000 	andeq	r0, r1, r0
    25d0:	2f2e0100 	svccs	0x002e0100
    25d4:	66617473 			; <UNDEFINED> instruction: 0x66617473
    25d8:	72732d66 	rsbsvc	r2, r3, #6528	; 0x1980
    25dc:	552f0063 	strpl	r0, [pc, #-99]!	; 2581 <__code_start__-0x5a7f>
    25e0:	73726573 	cmnvc	r2, #482344960	; 0x1cc00000
    25e4:	6c696d2f 	stclvs	13, cr6, [r9], #-188	; 0xffffff44
    25e8:	532f7365 			; <UNDEFINED> instruction: 0x532f7365
    25ec:	6372756f 	cmnvs	r2, #465567744	; 0x1bc00000
    25f0:	73632f65 	cmnvc	r3, #404	; 0x194
    25f4:	6c303432 	cfldrsvs	mvf3, [r0], #-200	; 0xffffff38
    25f8:	696c2f78 	stmdbvs	ip!, {r3, r4, r5, r6, r8, r9, sl, fp, sp}^
    25fc:	2f697062 	svccs	0x00697062
    2600:	6c636e69 	stclvs	14, cr6, [r3], #-420	; 0xfffffe5c
    2604:	00656475 	rsbeq	r6, r5, r5, ror r4
    2608:	66656400 	strbtvs	r6, [r5], -r0, lsl #8
    260c:	746c7561 	strbtvc	r7, [ip], #-1377	; 0xfffffa9f
    2610:	6265722d 	rsbvs	r7, r5, #-805306366	; 0xd0000002
    2614:	2d746f6f 	ldclcs	15, cr6, [r4, #-444]!	; 0xfffffe44
    2618:	6c6c6163 	stfvse	f6, [ip], #-396	; 0xfffffe74
    261c:	2e74756f 	cdpcs	5, 7, cr7, cr4, cr15, {3}
    2620:	00010063 	andeq	r0, r1, r3, rrx
    2624:	69707200 	ldmdbvs	r0!, {r9, ip, sp, lr}^
    2628:	0200682e 	andeq	r6, r0, #3014656	; 0x2e0000
    262c:	05000000 	streq	r0, [r0, #-0]
    2630:	0205001b 	andeq	r0, r5, #27, 0
    2634:	00009cb8 			; <UNDEFINED> instruction: 0x00009cb8
    2638:	011c0514 	tsteq	ip, r4, lsl r5
    263c:	01060105 	tsteq	r6, r5, lsl #2
    2640:	01000202 	tsteq	r0, r2, lsl #4
    2644:	Address 0x0000000000002644 is out of bounds.


Disassembly of section .debug_str:

00000000 <.debug_str>:
   0:	6c616b63 			; <UNDEFINED> instruction: 0x6c616b63
   4:	00636f6c 	rsbeq	r6, r3, ip, ror #30
   8:	656e696c 	strbvs	r6, [lr, #-2412]!	; 0xfffff694
   c:	6e006f6e 	cdpvs	15, 0, cr6, cr0, cr14, {3}
  10:	616d746f 	cmnvs	sp, pc, ror #8
  14:	63006e69 	movwvs	r6, #3689	; 0xe69
  18:	6b636568 	blvs	18d95c0 <__bss_end__+0x18ceef0>
  1c:	5f6f6e5f 	svcpl	0x006f6e5f
  20:	6b61656c 	blvs	18595d8 <__bss_end__+0x184ef08>
  24:	6c696600 	stclvs	6, cr6, [r9], #-0
  28:	6e750065 	cdpvs	0, 7, cr0, cr5, cr5, {3}
  2c:	6e676973 			; <UNDEFINED> instruction: 0x6e676973
  30:	63206465 			; <UNDEFINED> instruction: 0x63206465
  34:	00726168 	rsbseq	r6, r2, r8, ror #2
  38:	726f6873 	rsbvc	r6, pc, #7536640	; 0x730000
  3c:	6e752074 	mrcvs	0, 3, r2, cr5, cr4, {3}
  40:	6e676973 			; <UNDEFINED> instruction: 0x6e676973
  44:	69206465 	stmdbvs	r0!, {r0, r2, r5, r6, sl, sp, lr}
  48:	7300746e 	movwvc	r7, #1134	; 0x46e
  4c:	6c5f6372 	mrrcvs	3, 7, r6, pc, cr2	; <UNPREDICTABLE>
  50:	6d5f636f 	ldclvs	3, cr6, [pc, #-444]	; fffffe9c <__bss_end__+0xffff57cc>
  54:	656d006b 	strbvs	r0, [sp, #-107]!	; 0xffffff95
  58:	7465736d 	strbtvc	r7, [r5], #-877	; 0xfffffc93
  5c:	6e756600 	cdpvs	6, 7, cr6, cr5, cr0, {0}
  60:	5f5f0063 	svcpl	0x005f0063
  64:	434e5546 	movtmi	r5, #58694	; 0xe546
  68:	4e4f4954 			; <UNDEFINED> instruction: 0x4e4f4954
  6c:	74005f5f 	strvc	r5, [r0], #-3935	; 0xfffff0a1
  70:	00747365 	rsbseq	r7, r4, r5, ror #6
  74:	676e6f6c 	strbvs	r6, [lr, -ip, ror #30]!
  78:	6e6f6c20 	cdpvs	12, 6, cr6, cr15, cr0, {1}
  7c:	6e752067 	cdpvs	0, 7, cr2, cr5, cr7, {3}
  80:	6e676973 			; <UNDEFINED> instruction: 0x6e676973
  84:	69206465 	stmdbvs	r0!, {r0, r2, r5, r6, sl, sp, lr}
  88:	6700746e 	strvs	r7, [r0, -lr, ror #8]
  8c:	61626f6c 	cmnvs	r2, ip, ror #30
  90:	00705f6c 	rsbseq	r5, r0, ip, ror #30
  94:	676e6f6c 	strbvs	r6, [lr, -ip, ror #30]!
  98:	6e6f6c20 	cdpvs	12, 6, cr6, cr15, cr0, {1}
  9c:	6e692067 	cdpvs	0, 6, cr2, cr9, cr7, {3}
  a0:	552f0074 	strpl	r0, [pc, #-116]!	; 34 <__code_start__-0x7fcc>
  a4:	73726573 	cmnvc	r2, #482344960	; 0x1cc00000
  a8:	6c696d2f 	stclvs	13, cr6, [r9], #-188	; 0xffffff44
  ac:	532f7365 			; <UNDEFINED> instruction: 0x532f7365
  b0:	6372756f 	cmnvs	r2, #465567744	; 0x1bc00000
  b4:	73632f65 	cmnvc	r3, #404	; 0x194
  b8:	6c303432 	cfldrsvs	mvf3, [r0], #-200	; 0xffffff38
  bc:	616c2f78 	smcvs	49912	; 0xc2f8
  c0:	352f7362 	strcc	r7, [pc, #-866]!	; fffffd66 <__bss_end__+0xffff5696>
  c4:	6c616d2d 	stclvs	13, cr6, [r1], #-180	; 0xffffff4c
  c8:	2b636f6c 	blcs	18dbe80 <__bss_end__+0x18d17b0>
  cc:	632f6367 			; <UNDEFINED> instruction: 0x632f6367
  d0:	0065646f 	rsbeq	r6, r5, pc, ror #8
  d4:	726f6873 	rsbvc	r6, pc, #7536640	; 0x730000
  d8:	6e692074 	mcrvs	0, 3, r2, cr9, cr4, {3}
  dc:	72730074 	rsbsvc	r0, r3, #116, 0	; 0x74
  e0:	6f6c5f63 	svcvs	0x006c5f63
  e4:	00745f63 	rsbseq	r5, r4, r3, ror #30
  e8:	746e6975 	strbtvc	r6, [lr], #-2421	; 0xfffff68b
  ec:	745f3233 	ldrbvc	r3, [pc], #-563	; f4 <__code_start__-0x7f0c>
  f0:	69707200 	ldmdbvs	r0!, {r9, ip, sp, lr}^
  f4:	7475705f 	ldrbtvc	r7, [r5], #-95	; 0xffffffa1
  f8:	72616863 	rsbvc	r6, r1, #6488064	; 0x630000
  fc:	73657400 	cmnvc	r5, #0, 8
 100:	702f7374 	eorvc	r7, pc, r4, ror r3	; <UNPREDICTABLE>
 104:	32747261 	rsbscc	r7, r4, #268435462	; 0x10000006
 108:	7365742d 	cmnvc	r5, #754974720	; 0x2d000000
 10c:	632e3274 			; <UNDEFINED> instruction: 0x632e3274
 110:	554e4700 	strbpl	r4, [lr, #-1792]	; 0xfffff900
 114:	39394320 	ldmdbcc	r9!, {r5, r8, r9, lr}
 118:	322e3920 	eorcc	r3, lr, #32, 18	; 0x80000
 11c:	3220312e 	eorcc	r3, r0, #-2147483637	; 0x8000000b
 120:	31393130 	teqcc	r9, r0, lsr r1
 124:	20353230 	eorscs	r3, r5, r0, lsr r2
 128:	6c657228 	sfmvs	f7, 2, [r5], #-160	; 0xffffff60
 12c:	65736165 	ldrbvs	r6, [r3, #-357]!	; 0xfffffe9b
 130:	415b2029 	cmpmi	fp, r9, lsr #32
 134:	612f4d52 			; <UNDEFINED> instruction: 0x612f4d52
 138:	392d6d72 	pushcc	{r1, r4, r5, r6, r8, sl, fp, sp, lr}
 13c:	6172622d 	cmnvs	r2, sp, lsr #4
 140:	2068636e 	rsbcs	r6, r8, lr, ror #6
 144:	69766572 	ldmdbvs	r6!, {r1, r4, r5, r6, r8, sl, sp, lr}^
 148:	6e6f6973 			; <UNDEFINED> instruction: 0x6e6f6973
 14c:	37373220 	ldrcc	r3, [r7, -r0, lsr #4]!
 150:	5d393935 			; <UNDEFINED> instruction: 0x5d393935
 154:	636d2d20 	cmnvs	sp, #32, 26	; 0x800
 158:	613d7570 	teqvs	sp, r0, ror r5
 15c:	31316d72 	teqcc	r1, r2, ror sp
 160:	7a6a3637 	bvc	1a8da44 <__bss_end__+0x1a83374>
 164:	20732d66 	rsbscs	r2, r3, r6, ror #26
 168:	75746d2d 	ldrbvc	r6, [r4, #-3373]!	; 0xfffff2d3
 16c:	613d656e 	teqvs	sp, lr, ror #10
 170:	31316d72 	teqcc	r1, r2, ror sp
 174:	7a6a3637 	bvc	1a8da58 <__bss_end__+0x1a83388>
 178:	20732d66 	rsbscs	r2, r3, r6, ror #26
 17c:	6c666d2d 	stclvs	13, cr6, [r6], #-180	; 0xffffff4c
 180:	2d74616f 	ldfcse	f6, [r4, #-444]!	; 0xfffffe44
 184:	3d696261 	sfmcc	f6, 2, [r9, #-388]!	; 0xfffffe7c
 188:	74666f73 	strbtvc	r6, [r6], #-3955	; 0xfffff08d
 18c:	616d2d20 	cmnvs	sp, r0, lsr #26
 190:	2d206d72 	stccs	13, cr6, [r0, #-456]!	; 0xfffffe38
 194:	6372616d 	cmnvs	r2, #1073741851	; 0x4000001b
 198:	72613d68 	rsbvc	r3, r1, #104, 26	; 0x1a00
 19c:	6b36766d 	blvs	d9db58 <__bss_end__+0xd93488>
 1a0:	672d207a 			; <UNDEFINED> instruction: 0x672d207a
 1a4:	20626467 	rsbcs	r6, r2, r7, ror #8
 1a8:	20674f2d 	rsbcs	r4, r7, sp, lsr #30
 1ac:	6474732d 	ldrbtvs	r7, [r4], #-813	; 0xfffffcd3
 1b0:	756e673d 	strbvc	r6, [lr, #-1853]!	; 0xfffff8c3
 1b4:	2d203939 			; <UNDEFINED> instruction: 0x2d203939
 1b8:	65726666 	ldrbvs	r6, [r2, #-1638]!	; 0xfffff99a
 1bc:	61747365 	cmnvs	r4, r5, ror #6
 1c0:	6e69646e 	cdpvs	4, 6, cr6, cr9, cr14, {3}
 1c4:	5f5f0067 	svcpl	0x005f0067
 1c8:	61746164 	cmnvs	r4, r4, ror #2
 1cc:	6174735f 	cmnvs	r4, pc, asr r3
 1d0:	5f5f7472 	svcpl	0x005f7472
 1d4:	645f5f00 	ldrbvs	r5, [pc], #-3840	; 1dc <__code_start__-0x7e24>
 1d8:	5f617461 	svcpl	0x00617461
 1dc:	5f646e65 	svcpl	0x00646e65
 1e0:	6b63005f 	blvs	18c0364 <__bss_end__+0x18b5c94>
 1e4:	7274705f 	rsbsvc	r7, r4, #95, 0	; 0x5f
 1e8:	5f6e695f 	svcpl	0x006e695f
 1ec:	636f6c62 	cmnvs	pc, #25088	; 0x6200
 1f0:	6468006b 	strbtvs	r0, [r8], #-107	; 0xffffff95
 1f4:	00745f72 	rsbseq	r5, r4, r2, ror pc
 1f8:	45455246 	strbmi	r5, [r5, #-582]	; 0xfffffdba
 1fc:	65720044 	ldrbvs	r0, [r2, #-68]!	; 0xffffffbc
 200:	6d5f7366 	ldclvs	3, cr7, [pc, #-408]	; 70 <__code_start__-0x7f90>
 204:	6c646469 	cfstrdvs	mvd6, [r4], #-420	; 0xfffffe5c
 208:	726b0065 	rsbvc	r0, fp, #101, 0	; 0x65
 20c:	6572665f 	ldrbvs	r6, [r2, #-1631]!	; 0xfffff9a1
 210:	6b630065 	blvs	18c03ac <__bss_end__+0x18b5cdc>
 214:	7269665f 	rsbvc	r6, r9, #99614720	; 0x5f00000
 218:	685f7473 	ldmdavs	pc, {r0, r1, r4, r5, r6, sl, ip, sp, lr}^	; <UNPREDICTABLE>
 21c:	63007264 	movwvs	r7, #612	; 0x264
 220:	6572666b 	ldrbvs	r6, [r2, #-1643]!	; 0xfffff995
 224:	6c610065 	stclvs	0, cr0, [r1], #-404	; 0xfffffe6c
 228:	5f636f6c 	svcpl	0x00636f6c
 22c:	7473696c 	ldrbtvc	r6, [r3], #-2412	; 0xfffff694
 230:	73696c00 	cmnvc	r9, #0, 24
 234:	65725f74 	ldrbvs	r5, [r2, #-3956]!	; 0xfffff08c
 238:	65766f6d 	ldrbvs	r6, [r6, #-3949]!	; 0xfffff093
 23c:	5f6b6300 	svcpl	0x006b6300
 240:	00726468 	rsbseq	r6, r2, r8, ror #8
 244:	6f6c6c61 	svcvs	0x006c6c61
 248:	6f6c5f63 	svcvs	0x006c5f63
 24c:	6c630063 	stclvs	0, cr0, [r3], #-396	; 0xfffffe74
 250:	5f6e6165 	svcpl	0x006e6165
 254:	6f626572 	svcvs	0x00626572
 258:	7300746f 	movwvc	r7, #1135	; 0x46f
 25c:	65746174 	ldrbvs	r6, [r4, #-372]!	; 0xfffffe8c
 260:	72616d00 	rsbvc	r6, r1, #0, 26
 264:	6572006b 	ldrbvs	r0, [r2, #-107]!	; 0xffffff95
 268:	735f7366 	cmpvc	pc, #-1744830463	; 0x98000001
 26c:	74726174 	ldrbtvc	r6, [r2], #-372	; 0xfffffe8c
 270:	6e697500 	cdpvs	5, 6, cr7, cr9, cr0, {0}
 274:	5f363174 	svcpl	0x00363174
 278:	6b630074 	blvs	18c0450 <__bss_end__+0x18b5d80>
 27c:	7274705f 	rsbsvc	r7, r4, #95, 0	; 0x5f
 280:	5f73695f 	svcpl	0x0073695f
 284:	6f6c6c61 	svcvs	0x006c6c61
 288:	00646563 	rsbeq	r6, r4, r3, ror #10
 28c:	6e5f6b63 	vnmlavs.f64	d22, d15, d19
 290:	5f747865 	svcpl	0x00747865
 294:	00726468 	rsbseq	r6, r2, r8, ror #8
 298:	6c616b63 			; <UNDEFINED> instruction: 0x6c616b63
 29c:	2e636f6c 	cdpcs	15, 6, cr6, cr3, cr12, {3}
 2a0:	4c410063 	mcrrmi	0, 6, r0, r1, cr3
 2a4:	45434f4c 	strbmi	r4, [r3, #-3916]	; 0xfffff0b4
 2a8:	626e0044 	rsbvs	r0, lr, #68, 0	; 0x44
 2ac:	73657479 	cmnvc	r5, #2030043136	; 0x79000000
 2b0:	6c6c615f 	stfvse	f6, [ip], #-380	; 0xfffffe84
 2b4:	6300636f 	movwvs	r6, #879	; 0x36f
 2b8:	64685f6b 	strbtvs	r5, [r8], #-3947	; 0xfffff095
 2bc:	74735f72 	ldrbtvc	r5, [r3], #-3954	; 0xfffff08e
 2c0:	00747261 	rsbseq	r7, r4, r1, ror #4
 2c4:	685f6b63 	ldmdavs	pc, {r0, r1, r5, r6, r8, r9, fp, sp, lr}^	; <UNPREDICTABLE>
 2c8:	655f7264 	ldrbvs	r7, [pc, #-612]	; 6c <__code_start__-0x7f94>
 2cc:	7000646e 	andvc	r6, r0, lr, ror #8
 2d0:	00766572 	rsbseq	r6, r6, r2, ror r5
 2d4:	6e5f6b63 	vnmlavs.f64	d22, d15, d19
 2d8:	65747962 	ldrbvs	r7, [r4, #-2402]!	; 0xfffff69e
 2dc:	726b0073 	rsbvc	r0, fp, #115, 0	; 0x73
 2e0:	6c616d5f 	stclvs	13, cr6, [r1], #-380	; 0xfffffe84
 2e4:	00636f6c 	rsbeq	r6, r3, ip, ror #30
 2e8:	7478656e 	ldrbtvc	r6, [r8], #-1390	; 0xfffffa92
 2ec:	61656800 	cmnvs	r5, r0, lsl #16
 2f0:	00726564 	rsbseq	r6, r2, r4, ror #10
 2f4:	76657270 			; <UNDEFINED> instruction: 0x76657270
 2f8:	6c610070 	stclvs	0, cr0, [r1], #-448	; 0xfffffe40
 2fc:	006e6769 	rsbeq	r6, lr, r9, ror #14
 300:	65657266 	strbvs	r7, [r5, #-614]!	; 0xfffffd9a
 304:	756e0070 	strbvc	r0, [lr, #-112]!	; 0xffffff90
 308:	7374696e 	cmnvc	r4, #1802240	; 0x1b8000
 30c:	2d726b00 	vldmdbcs	r2!, {d22-d21}
 310:	6c6c616d 	stfvse	f6, [ip], #-436	; 0xfffffe4c
 314:	632e636f 			; <UNDEFINED> instruction: 0x632e636f
 318:	756f6400 	strbvc	r6, [pc, #-1024]!	; ffffff20 <__bss_end__+0xffff5850>
 31c:	00656c62 	rsbeq	r6, r5, r2, ror #24
 320:	65736162 	ldrbvs	r6, [r3, #-354]!	; 0xfffffe9e
 324:	72627300 	rsbvc	r7, r2, #0, 6
 328:	6f6d006b 	svcvs	0x006d006b
 32c:	6f636572 	svcvs	0x00636572
 330:	73006572 	movwvc	r6, #1394	; 0x572
 334:	00657a69 	rsbeq	r7, r5, r9, ror #20
 338:	64616548 	strbtvs	r6, [r1], #-1352	; 0xfffffab8
 33c:	73007265 	movwvc	r7, #613	; 0x265
 340:	6b636174 	blvs	18d8918 <__bss_end__+0x18ce248>
 344:	706f745f 	rsbvc	r7, pc, pc, asr r4	; <UNPREDICTABLE>
 348:	72616d00 	rsbvc	r6, r1, #0, 26
 34c:	6c615f6b 	stclvs	15, cr5, [r1], #-428	; 0xfffffe54
 350:	6d69006c 	stclvs	0, cr0, [r9, #-432]!	; 0xfffffe50
 354:	6d656c70 	stclvs	12, cr6, [r5, #-448]!	; 0xfffffe40
 358:	5f746e65 	svcpl	0x00746e65
 35c:	73696874 	cmnvc	r9, #116, 16	; 0x740000
 360:	625f5f00 	subsvs	r5, pc, #0, 30
 364:	735f7373 	cmpvc	pc, #-872415231	; 0xcc000001
 368:	74726174 	ldrbtvc	r6, [r2], #-372	; 0xfffffe8c
 36c:	6e005f5f 	mcrvs	15, 0, r5, cr0, cr15, {2}
 370:	636f6c62 	cmnvs	pc, #25088	; 0x6200
 374:	6900736b 	stmdbvs	r0, {r0, r1, r3, r5, r6, r8, r9, ip, sp, lr}
 378:	5f74696e 	svcpl	0x0074696e
 37c:	626e0070 	rsbvs	r0, lr, #112, 0	; 0x70
 380:	73657479 	cmnvc	r5, #2030043136	; 0x79000000
 384:	6572665f 	ldrbvs	r6, [r2, #-1631]!	; 0xfffff9a1
 388:	6d006465 	cfstrsvs	mvf6, [r0, #-404]	; 0xfffffe6c
 38c:	65627961 	strbvs	r7, [r2, #-2401]!	; 0xfffff69f
 390:	7272655f 	rsbsvc	r6, r2, #398458880	; 0x17c00000
 394:	0073726f 	rsbseq	r7, r3, pc, ror #4
 398:	675f6b63 	ldrbvs	r6, [pc, -r3, ror #22]
 39c:	75640063 	strbvc	r0, [r4, #-99]!	; 0xffffff9d
 3a0:	725f706d 	subsvc	r7, pc, #109, 0	; 0x6d
 3a4:	00736765 	rsbseq	r6, r3, r5, ror #14
 3a8:	61656c6e 	cmnvs	r5, lr, ror #24
 3ac:	6900736b 	stmdbvs	r0, {r0, r1, r3, r5, r6, r8, r9, ip, sp, lr}
 3b0:	6572636e 	ldrbvs	r6, [r2, #-878]!	; 0xfffffc92
 3b4:	746e656d 	strbtvc	r6, [lr], #-1389	; 0xfffffa93
 3b8:	5f6b6300 	svcpl	0x006b6300
 3bc:	646e6966 	strbtvs	r6, [lr], #-2406	; 0xfffff69a
 3c0:	61656c5f 	cmnvs	r5, pc, asr ip
 3c4:	6e00736b 	cdpvs	3, 0, cr7, cr0, cr11, {3}
 3c8:	65657266 	strbvs	r7, [r5, #-614]!	; 0xfffffd9a
 3cc:	6e6f0064 	cdpvs	0, 6, cr0, cr15, cr4, {3}
 3d0:	00626d65 	rsbeq	r6, r2, r5, ror #26
 3d4:	672d6b63 	strvs	r6, [sp, -r3, ror #22]!
 3d8:	00632e63 	rsbeq	r2, r3, r3, ror #28
 3dc:	63656863 	cmnvs	r5, #6488064	; 0x630000
 3e0:	68735f6b 	ldmdavs	r3!, {r0, r1, r3, r5, r6, r8, r9, sl, fp, ip, lr}^
 3e4:	646c756f 	strbtvs	r7, [ip], #-1391	; 0xfffffa91
 3e8:	61656c5f 	cmnvs	r5, pc, asr ip
 3ec:	5f5f006b 	svcpl	0x005f006b
 3f0:	5f737362 	svcpl	0x00737362
 3f4:	5f646e65 	svcpl	0x00646e65
 3f8:	6d6b005f 	stclvs	0, cr0, [fp, #-380]!	; 0xfffffe84
 3fc:	6f6c6c61 	svcvs	0x006c6c61
 400:	6d6b0063 	stclvs	0, cr0, [fp, #-396]!	; 0xfffffe74
 404:	6f6c6c61 	svcvs	0x006c6c61
 408:	6e695f63 	cdpvs	15, 6, cr5, cr9, cr3, {3}
 40c:	735f7469 	cmpvc	pc, #1761607680	; 0x69000000
 410:	735f7465 	cmpvc	pc, #1694498816	; 0x65000000
 414:	74726174 	ldrbtvc	r6, [r2], #-372	; 0xfffffe8c
 418:	65777300 	ldrbvs	r7, [r7, #-768]!	; 0xfffffd00
 41c:	6c5f7065 	mrrcvs	0, 6, r7, pc, cr5	; <UNPREDICTABLE>
 420:	006b6165 	rsbeq	r6, fp, r5, ror #2
 424:	65657773 	strbvs	r7, [r5, #-1907]!	; 0xfffff88d
 428:	72665f70 	rsbvc	r5, r6, #112, 30	; 0x1c0
 42c:	77006565 	strvc	r6, [r0, -r5, ror #10]
 430:	5f6e7261 	svcpl	0x006e7261
 434:	735f6f6e 	cmpvc	pc, #440	; 0x1b8
 438:	74726174 	ldrbtvc	r6, [r2], #-372	; 0xfffffe8c
 43c:	6665725f 			; <UNDEFINED> instruction: 0x6665725f
 440:	7300705f 	movwvc	r7, #95	; 0x5f
 444:	5f657a69 	svcpl	0x00657a69
 448:	2f2e0074 	svccs	0x002e0074
 44c:	6362696c 	cmnvs	r2, #108, 18	; 0x1b0000
 450:	6d656d2f 	stclvs	13, cr6, [r5, #-188]!	; 0xffffff44
 454:	2e746573 	mrccs	5, 3, r6, cr4, cr3, {3}
 458:	4e470063 	cdpmi	0, 4, cr0, cr7, cr3, {3}
 45c:	39432055 	stmdbcc	r3, {r0, r2, r4, r6, sp}^
 460:	2e392039 	mrccs	0, 1, r2, cr9, cr9, {1}
 464:	20312e32 	eorscs	r2, r1, r2, lsr lr
 468:	39313032 	ldmdbcc	r1!, {r1, r4, r5, ip, sp}
 46c:	35323031 	ldrcc	r3, [r2, #-49]!	; 0xffffffcf
 470:	65722820 	ldrbvs	r2, [r2, #-2080]!	; 0xfffff7e0
 474:	7361656c 	cmnvc	r1, #108, 10	; 0x1b000000
 478:	5b202965 	blpl	80aa14 <__bss_end__+0x800344>
 47c:	2f4d5241 	svccs	0x004d5241
 480:	2d6d7261 	sfmcs	f7, 2, [sp, #-388]!	; 0xfffffe7c
 484:	72622d39 	rsbvc	r2, r2, #3648	; 0xe40
 488:	68636e61 	stmdavs	r3!, {r0, r5, r6, r9, sl, fp, sp, lr}^
 48c:	76657220 	strbtvc	r7, [r5], -r0, lsr #4
 490:	6f697369 	svcvs	0x00697369
 494:	3732206e 	ldrcc	r2, [r2, -lr, rrx]!
 498:	39393537 	ldmdbcc	r9!, {r0, r1, r2, r4, r5, r8, sl, ip, sp}
 49c:	6d2d205d 	stcvs	0, cr2, [sp, #-372]!	; 0xfffffe8c
 4a0:	3d757063 	ldclcc	0, cr7, [r5, #-396]!	; 0xfffffe74
 4a4:	316d7261 	cmncc	sp, r1, ror #4
 4a8:	6a363731 	bvs	d8e174 <__bss_end__+0xd83aa4>
 4ac:	732d667a 			; <UNDEFINED> instruction: 0x732d667a
 4b0:	746d2d20 	strbtvc	r2, [sp], #-3360	; 0xfffff2e0
 4b4:	3d656e75 	stclcc	14, cr6, [r5, #-468]!	; 0xfffffe2c
 4b8:	316d7261 	cmncc	sp, r1, ror #4
 4bc:	6a363731 	bvs	d8e188 <__bss_end__+0xd83ab8>
 4c0:	732d667a 			; <UNDEFINED> instruction: 0x732d667a
 4c4:	666d2d20 	strbtvs	r2, [sp], -r0, lsr #26
 4c8:	74616f6c 	strbtvc	r6, [r1], #-3948	; 0xfffff094
 4cc:	6962612d 	stmdbvs	r2!, {r0, r2, r3, r5, r8, sp, lr}^
 4d0:	666f733d 			; <UNDEFINED> instruction: 0x666f733d
 4d4:	6d2d2074 	stcvs	0, cr2, [sp, #-464]!	; 0xfffffe30
 4d8:	206d7261 	rsbcs	r7, sp, r1, ror #4
 4dc:	72616d2d 	rsbvc	r6, r1, #2880	; 0xb40
 4e0:	613d6863 	teqvs	sp, r3, ror #16
 4e4:	36766d72 			; <UNDEFINED> instruction: 0x36766d72
 4e8:	2d207a6b 	vstmdbcs	r0!, {s14-s120}
 4ec:	62646767 	rsbvs	r6, r4, #27000832	; 0x19c0000
 4f0:	664f2d20 	strbvs	r2, [pc], -r0, lsr #26
 4f4:	20747361 	rsbscs	r7, r4, r1, ror #6
 4f8:	6474732d 	ldrbtvs	r7, [r4], #-813	; 0xfffffcd3
 4fc:	756e673d 	strbvc	r6, [lr, #-1853]!	; 0xfffff8c3
 500:	2d203939 			; <UNDEFINED> instruction: 0x2d203939
 504:	65726666 	ldrbvs	r6, [r2, #-1638]!	; 0xfffff99a
 508:	61747365 	cmnvs	r4, r5, ror #6
 50c:	6e69646e 	cdpvs	4, 6, cr6, cr9, cr14, {3}
 510:	552f0067 	strpl	r0, [pc, #-103]!	; 4b1 <__code_start__-0x7b4f>
 514:	73726573 	cmnvc	r2, #482344960	; 0x1cc00000
 518:	6c696d2f 	stclvs	13, cr6, [r9], #-188	; 0xffffff44
 51c:	532f7365 			; <UNDEFINED> instruction: 0x532f7365
 520:	6372756f 	cmnvs	r2, #465567744	; 0x1bc00000
 524:	73632f65 	cmnvc	r3, #404	; 0x194
 528:	6c303432 	cfldrsvs	mvf3, [r0], #-200	; 0xffffff38
 52c:	696c2f78 	stmdbvs	ip!, {r3, r4, r5, r6, r8, r9, sl, fp, sp}^
 530:	00697062 	rsbeq	r7, r9, r2, rrx
 534:	73677261 	cmnvc	r7, #268435462	; 0x10000006
 538:	5f617600 	svcpl	0x00617600
 53c:	6e697270 	mcrvs	2, 3, r7, cr9, cr0, {3}
 540:	5f006b74 	svcpl	0x00006b74
 544:	756e675f 	strbvc	r6, [lr, #-1887]!	; 0xfffff8a1
 548:	61765f63 	cmnvs	r6, r3, ror #30
 54c:	73696c5f 	cmnvc	r9, #24320	; 0x5f00
 550:	5f5f0074 	svcpl	0x005f0074
 554:	2e007061 	cdpcs	0, 0, cr7, cr0, cr1, {3}
 558:	62696c2f 	rsbvs	r6, r9, #12032	; 0x2f00
 55c:	72702f63 	rsbsvc	r2, r0, #396	; 0x18c
 560:	6b746e69 	blvs	1d1bf0c <__bss_end__+0x1d1183c>
 564:	5f00632e 	svcpl	0x0000632e
 568:	5f61765f 	svcpl	0x0061765f
 56c:	7473696c 	ldrbtvc	r6, [r3], #-2412	; 0xfffff694
 570:	746e6900 	strbtvc	r6, [lr], #-2304	; 0xfffff700
 574:	616e7265 	cmnvs	lr, r5, ror #4
 578:	75705f6c 	ldrbvc	r5, [r0, #-3948]!	; 0xfffff094
 57c:	2e006b74 	vmovcs.16	d0[1], r6
 580:	62696c2f 	rsbvs	r6, r9, #12032	; 0x2f00
 584:	75702f63 	ldrbvc	r2, [r0, #-3939]!	; 0xfffff09d
 588:	632e6b74 			; <UNDEFINED> instruction: 0x632e6b74
 58c:	64736900 	ldrbtvs	r6, [r3], #-2304	; 0xfffff700
 590:	74696769 	strbtvc	r6, [r9], #-1897	; 0xfffff897
 594:	6e697500 	cdpvs	5, 6, cr7, cr9, cr0, {0}
 598:	5f343674 	svcpl	0x00343674
 59c:	2f2e0074 	svccs	0x002e0074
 5a0:	6362696c 	cmnvs	r2, #108, 18	; 0x1b0000
 5a4:	2d61762f 	stclcs	6, cr7, [r1, #-188]!	; 0xffffff44
 5a8:	6e697270 	mcrvs	2, 3, r7, cr9, cr0, {3}
 5ac:	632e6b74 			; <UNDEFINED> instruction: 0x632e6b74
 5b0:	635f5f00 	cmpvs	pc, #0, 30
 5b4:	5f65646f 	svcpl	0x0065646f
 5b8:	72617473 	rsbvc	r7, r1, #1929379840	; 0x73000000
 5bc:	005f5f74 	subseq	r5, pc, r4, ror pc	; <UNPREDICTABLE>
 5c0:	74646977 	strbtvc	r6, [r4], #-2423	; 0xfffff689
 5c4:	75700068 	ldrbvc	r0, [r0, #-104]!	; 0xffffff98
 5c8:	665f6374 			; <UNDEFINED> instruction: 0x665f6374
 5cc:	5f5f0070 	svcpl	0x005f0070
 5d0:	70616568 	rsbvc	r6, r1, r8, ror #10
 5d4:	6174735f 	cmnvs	r4, pc, asr r3
 5d8:	5f5f7472 	svcpl	0x005f7472
 5dc:	69707200 	ldmdbvs	r0!, {r9, ip, sp, lr}^
 5e0:	7465735f 	strbtvc	r7, [r5], #-863	; 0xfffffca1
 5e4:	74756f5f 	ldrbtvc	r6, [r5], #-3935	; 0xfffff0a1
 5e8:	00747570 	rsbseq	r7, r4, r0, ror r5
 5ec:	5f746d66 	svcpl	0x00746d66
 5f0:	72617473 	rsbvc	r7, r1, #1929379840	; 0x73000000
 5f4:	74730074 	ldrbtvc	r0, [r3], #-116	; 0xffffff8c
 5f8:	74616372 	strbtvc	r6, [r1], #-882	; 0xfffffc8e
 5fc:	72747300 	rsbsvc	r7, r4, #0, 6
 600:	00797063 	rsbseq	r7, r9, r3, rrx
 604:	5f67656e 	svcpl	0x0067656e
 608:	5f5f0070 	svcpl	0x005f0070
 60c:	65646f63 	strbvs	r6, [r4, #-3939]!	; 0xfffff09d
 610:	646e655f 	strbtvs	r6, [lr], #-1375	; 0xfffffaa1
 614:	65005f5f 	strvs	r5, [r0, #-3935]	; 0xfffff0a1
 618:	0074696d 	rsbseq	r6, r4, sp, ror #18
 61c:	65766572 	ldrbvs	r6, [r6, #-1394]!	; 0xfffffa8e
 620:	00657372 	rsbeq	r7, r5, r2, ror r3
 624:	63727473 	cmnvs	r2, #1929379840	; 0x73000000
 628:	7000706d 	andvc	r7, r0, sp, rrx
 62c:	5f737475 	svcpl	0x00737475
 630:	5f007066 	svcpl	0x00007066
 634:	6f72705f 	svcvs	0x0072705f
 638:	6e655f67 	cdpvs	15, 6, cr5, cr5, cr7, {3}
 63c:	005f5f64 	subseq	r5, pc, r4, ror #30
 640:	316d756e 	cmncc	sp, lr, ror #10
 644:	72747300 	rsbsvc	r7, r4, #0, 6
 648:	706d636e 	rsbvc	r6, sp, lr, ror #6
 64c:	67697300 	strbvs	r7, [r9, -r0, lsl #6]!
 650:	5f64656e 	svcpl	0x0064656e
 654:	70720070 	rsbsvc	r0, r2, r0, ror r0
 658:	65725f69 	ldrbvs	r5, [r2, #-3945]!	; 0xfffff097
 65c:	746f6f62 	strbtvc	r6, [pc], #-3938	; 664 <__code_start__-0x799c>
 660:	6c656400 	cfstrdvs	mvd6, [r5], #-0
 664:	6d5f7961 	vldrvs.16	s15, [pc, #-194]	; 5aa <__code_start__-0x7a56>	; <UNPREDICTABLE>
 668:	2f2e0073 	svccs	0x002e0073
 66c:	66617473 			; <UNDEFINED> instruction: 0x66617473
 670:	72732d66 	rsbsvc	r2, r3, #6528	; 0x1980
 674:	6c632f63 	stclvs	15, cr2, [r3], #-396	; 0xfffffe74
 678:	2d6e6165 	stfcse	f6, [lr, #-404]!	; 0xfffffe6c
 67c:	6f626572 	svcvs	0x00626572
 680:	632e746f 			; <UNDEFINED> instruction: 0x632e746f
 684:	72617500 	rsbvc	r7, r1, #0, 10
 688:	6c665f74 	stclvs	15, cr5, [r6], #-464	; 0xfffffe30
 68c:	5f687375 	svcpl	0x00687375
 690:	5f007874 	svcpl	0x00007874
 694:	61747363 	cmnvs	r4, r3, ror #6
 698:	62007472 	andvs	r7, r0, #1912602624	; 0x72000000
 69c:	655f7373 	ldrbvs	r7, [pc, #-883]	; 331 <__code_start__-0x7ccf>
 6a0:	7500646e 	strvc	r6, [r0, #-1134]	; 0xfffffb92
 6a4:	5f747261 	svcpl	0x00747261
 6a8:	74696e69 	strbtvc	r6, [r9], #-3689	; 0xfffff197
 6ac:	73756300 	cmnvc	r5, #0, 6
 6b0:	5f6d6f74 	svcpl	0x006d6f74
 6b4:	64616f6c 	strbtvs	r6, [r1], #-3948	; 0xfffff094
 6b8:	2e007265 	cdpcs	2, 0, cr7, cr0, cr5, {3}
 6bc:	6174732f 	cmnvs	r4, pc, lsr #6
 6c0:	732d6666 			; <UNDEFINED> instruction: 0x732d6666
 6c4:	632f6372 			; <UNDEFINED> instruction: 0x632f6372
 6c8:	72617473 	rsbvc	r7, r1, #1929379840	; 0x73000000
 6cc:	00632e74 	rsbeq	r2, r3, r4, ror lr
 6d0:	74732f2e 	ldrbtvc	r2, [r3], #-3886	; 0xfffff0d2
 6d4:	2d666661 	stclcs	6, cr6, [r6, #-388]!	; 0xfffffe7c
 6d8:	2f637273 	svccs	0x00637273
 6dc:	74737563 	ldrbtvc	r7, [r3], #-1379	; 0xfffffa9d
 6e0:	6c2d6d6f 	stcvs	13, cr6, [sp], #-444	; 0xfffffe44
 6e4:	6564616f 	strbvs	r6, [r4, #-367]!	; 0xfffffe91
 6e8:	00632e72 	rsbeq	r2, r3, r2, ror lr
 6ec:	6f626572 	svcvs	0x00626572
 6f0:	635f746f 	cmpvs	pc, #1862270976	; 0x6f000000
 6f4:	6f6c6c61 	svcvs	0x006c6c61
 6f8:	50007475 	andpl	r7, r0, r5, ror r4
 6fc:	44575f4d 	ldrbmi	r5, [r7], #-3917	; 0xfffff0b3
 700:	5000474f 	andpl	r4, r0, pc, asr #14
 704:	32335455 	eorscc	r5, r3, #1426063360	; 0x55000000
 708:	74657300 	strbtvc	r7, [r5], #-768	; 0xfffffd00
 70c:	6573755f 	ldrbvs	r7, [r3, #-1375]!	; 0xfffffaa1
 710:	656c5f72 	strbvs	r5, [ip, #-3954]!	; 0xfffff08e
 714:	006c6576 	rsbeq	r6, ip, r6, ror r5
 718:	74732f2e 	ldrbtvc	r2, [r3], #-3886	; 0xfffff0d2
 71c:	2d666661 	stclcs	6, cr6, [r6, #-388]!	; 0xfffffe7c
 720:	2f637273 	svccs	0x00637273
 724:	6f626572 	svcvs	0x00626572
 728:	632e746f 			; <UNDEFINED> instruction: 0x632e746f
 72c:	5f4d5000 	svcpl	0x004d5000
 730:	53534150 	cmppl	r3, #20
 734:	44524f57 	ldrbmi	r4, [r2], #-3927	; 0xfffff0a9
 738:	5f746100 	svcpl	0x00746100
 73c:	72657375 	rsbvc	r7, r5, #-738197503	; 0xd4000001
 740:	76656c5f 			; <UNDEFINED> instruction: 0x76656c5f
 744:	50006c65 	andpl	r6, r0, r5, ror #24
 748:	53525f4d 	cmppl	r2, #308	; 0x134
 74c:	575f4354 			; <UNDEFINED> instruction: 0x575f4354
 750:	47464352 	smlsldmi	r4, r6, r2, r3
 754:	4c55465f 	mrrcmi	6, 5, r4, r5, cr15
 758:	45525f4c 	ldrbmi	r5, [r2, #-3916]	; 0xfffff0b4
 75c:	00544553 	subseq	r4, r4, r3, asr r5
 760:	525f4d50 	subspl	r4, pc, #80, 26	; 0x1400
 764:	00435453 	subeq	r5, r3, r3, asr r4
 768:	72737063 	rsbsvc	r7, r3, #99, 0	; 0x63
 76c:	76656400 	strbtvc	r6, [r5], -r0, lsl #8
 770:	7261625f 	rsbvc	r6, r1, #-268435451	; 0xf0000005
 774:	72656972 	rsbvc	r6, r5, #1867776	; 0x1c8000
 778:	6c656400 	cfstrdvs	mvd6, [r5], #-0
 77c:	735f7961 	cmpvc	pc, #1589248	; 0x184000
 780:	2e006365 	cdpcs	3, 0, cr6, cr0, cr5, {3}
 784:	6174732f 	cmnvs	r4, pc, lsr #6
 788:	732d6666 			; <UNDEFINED> instruction: 0x732d6666
 78c:	742f6372 	strtvc	r6, [pc], #-882	; 794 <__code_start__-0x786c>
 790:	72656d69 	rsbvc	r6, r5, #6720	; 0x1a40
 794:	4700632e 	strmi	r6, [r0, -lr, lsr #6]
 798:	32335445 	eorscc	r5, r3, #1157627904	; 0x45000000
 79c:	6d697400 	cfstrdvs	mvd7, [r9, #-0]
 7a0:	675f7265 	ldrbvs	r7, [pc, -r5, ror #4]
 7a4:	755f7465 	ldrbvc	r7, [pc, #-1125]	; 347 <__code_start__-0x7cb9>
 7a8:	00636573 	rsbeq	r6, r3, r3, ror r5
 7ac:	616c6564 	cmnvs	ip, r4, ror #10
 7b0:	73755f79 	cmnvc	r5, #484	; 0x1e4
 7b4:	6d697400 	cfstrdvs	mvd7, [r9, #-0]
 7b8:	675f7265 	ldrbvs	r7, [pc, -r5, ror #4]
 7bc:	755f7465 	ldrbvc	r7, [pc, #-1125]	; 35f <__code_start__-0x7ca1>
 7c0:	5f636573 	svcpl	0x00636573
 7c4:	00776172 	rsbseq	r6, r7, r2, ror r1
 7c8:	33747570 	cmncc	r4, #112, 10	; 0x1c000000
 7cc:	61620032 	cmnvs	r2, r2, lsr r0
 7d0:	765f6475 			; <UNDEFINED> instruction: 0x765f6475
 7d4:	73006c61 	movwvc	r6, #3169	; 0xc61
 7d8:	00746174 	rsbseq	r6, r4, r4, ror r1
 7dc:	74726175 	ldrbtvc	r6, [r2], #-373	; 0xfffffe8b
 7e0:	6e61635f 	mcrvs	3, 3, r6, cr1, cr15, {2}
 7e4:	7465675f 	strbtvc	r6, [r5], #-1887	; 0xfffff8a1
 7e8:	50470063 	subpl	r0, r7, r3, rrx
 7ec:	465f4f49 	ldrbmi	r4, [pc], -r9, asr #30
 7f0:	5f434e55 	svcpl	0x00434e55
 7f4:	5054554f 	subspl	r5, r4, pc, asr #10
 7f8:	61005455 	tstvs	r0, r5, asr r4
 7fc:	705f7875 	subsvc	r7, pc, r5, ror r8	; <UNPREDICTABLE>
 800:	70697265 	rsbvc	r7, r9, r5, ror #4
 804:	75007368 	strvc	r7, [r0, #-872]	; 0xfffffc98
 808:	2e747261 	cdpcs	2, 7, cr7, cr4, cr1, {3}
 80c:	61750063 	cmnvs	r5, r3, rrx
 810:	635f7472 	cmpvs	pc, #1912602624	; 0x72000000
 814:	705f6e61 	subsvc	r6, pc, r1, ror #28
 818:	00637475 	rsbeq	r7, r3, r5, ror r4
 81c:	74726175 	ldrbtvc	r6, [r2], #-373	; 0xfffffe8b
 820:	5f78745f 	svcpl	0x0078745f
 824:	655f7369 	ldrbvs	r7, [pc, #-873]	; 4c3 <__code_start__-0x7b3d>
 828:	7974706d 	ldmdbvc	r4!, {r0, r2, r3, r5, r6, ip, sp, lr}^
 82c:	49504700 	ldmdbmi	r0, {r8, r9, sl, lr}^
 830:	55465f4f 	strbpl	r5, [r6, #-3919]	; 0xfffff0b1
 834:	415f434e 	cmpmi	pc, lr, asr #6
 838:	0030544c 	eorseq	r5, r0, ip, asr #8
 83c:	4f495047 	svcmi	0x00495047
 840:	4e55465f 	mrcmi	6, 2, r4, cr5, cr15, {2}
 844:	4c415f43 	mcrrmi	15, 4, r5, r1, cr3
 848:	47003154 	smlsdmi	r0, r4, r1, r3
 84c:	5f4f4950 	svcpl	0x004f4950
 850:	434e5546 	movtmi	r5, #58694	; 0xe546
 854:	544c415f 	strbpl	r4, [ip], #-351	; 0xfffffea1
 858:	50470032 	subpl	r0, r7, r2, lsr r0
 85c:	465f4f49 	ldrbmi	r4, [pc], -r9, asr #30
 860:	5f434e55 	svcpl	0x00434e55
 864:	33544c41 	cmpcc	r4, #16640	; 0x4100
 868:	49504700 	ldmdbmi	r0, {r8, r9, sl, lr}^
 86c:	55465f4f 	strbpl	r5, [r6, #-3919]	; 0xfffff0b1
 870:	415f434e 	cmpmi	pc, lr, asr #6
 874:	0035544c 	eorseq	r5, r5, ip, asr #8
 878:	6d6f682f 	stclvs	8, cr6, [pc, #-188]!	; 7c4 <__code_start__-0x783c>
 87c:	6e652f65 	cdpvs	15, 6, cr2, cr5, cr5, {3}
 880:	72656c67 	rsbvc	r6, r5, #26368	; 0x6700
 884:	616c632f 	cmnvs	ip, pc, lsr #6
 888:	632f7373 			; <UNDEFINED> instruction: 0x632f7373
 88c:	30343273 	eorscc	r3, r4, r3, ror r2
 890:	322d786c 	eorcc	r7, sp, #108, 16	; 0x6c0000
 894:	72707332 	rsbsvc	r7, r0, #-939524096	; 0xc8000000
 898:	62696c2f 	rsbvs	r6, r9, #12032	; 0x2f00
 89c:	732f6970 			; <UNDEFINED> instruction: 0x732f6970
 8a0:	66666174 			; <UNDEFINED> instruction: 0x66666174
 8a4:	6972702d 	ldmdbvs	r2!, {r0, r2, r3, r5, ip, sp, lr}^
 8a8:	65746176 	ldrbvs	r6, [r4, #-374]!	; 0xfffffe8a
 8ac:	75616200 	strbvc	r6, [r1, #-512]!	; 0xfffffe00
 8b0:	75610064 	strbvc	r0, [r1, #-100]!	; 0xffffff9c
 8b4:	6e655f78 	mcrvs	15, 3, r5, cr5, cr8, {3}
 8b8:	656c6261 	strbvs	r6, [ip, #-609]!	; 0xfffffd9f
 8bc:	61750073 	cmnvs	r5, r3, ror r0
 8c0:	675f7472 			; <UNDEFINED> instruction: 0x675f7472
 8c4:	00637465 	rsbeq	r7, r3, r5, ror #8
 8c8:	20554e47 	subscs	r4, r5, r7, asr #28
 8cc:	20393943 	eorscs	r3, r9, r3, asr #18
 8d0:	332e3031 			; <UNDEFINED> instruction: 0x332e3031
 8d4:	3220312e 	eorcc	r3, r0, #-2147483637	; 0x8000000b
 8d8:	30313230 	eorscc	r3, r1, r0, lsr r2
 8dc:	20343238 	eorscs	r3, r4, r8, lsr r2
 8e0:	6c657228 	sfmvs	f7, 2, [r5], #-160	; 0xffffff60
 8e4:	65736165 	ldrbvs	r6, [r3, #-357]!	; 0xfffffe9b
 8e8:	6d2d2029 	stcvs	0, cr2, [sp, #-164]!	; 0xffffff5c
 8ec:	3d757063 	ldclcc	0, cr7, [r5, #-396]!	; 0xfffffe74
 8f0:	316d7261 	cmncc	sp, r1, ror #4
 8f4:	6a363731 	bvs	d8e5c0 <__bss_end__+0xd83ef0>
 8f8:	732d667a 			; <UNDEFINED> instruction: 0x732d667a
 8fc:	746d2d20 	strbtvc	r2, [sp], #-3360	; 0xfffff2e0
 900:	3d656e75 	stclcc	14, cr6, [r5, #-468]!	; 0xfffffe2c
 904:	316d7261 	cmncc	sp, r1, ror #4
 908:	6a363731 	bvs	d8e5d4 <__bss_end__+0xd83f04>
 90c:	732d667a 			; <UNDEFINED> instruction: 0x732d667a
 910:	666d2d20 	strbtvs	r2, [sp], -r0, lsr #26
 914:	74616f6c 	strbtvc	r6, [r1], #-3948	; 0xfffff094
 918:	6962612d 	stmdbvs	r2!, {r0, r2, r3, r5, r8, sp, lr}^
 91c:	666f733d 			; <UNDEFINED> instruction: 0x666f733d
 920:	6d2d2074 	stcvs	0, cr2, [sp, #-464]!	; 0xfffffe30
 924:	206d7261 	rsbcs	r7, sp, r1, ror #4
 928:	72616d2d 	rsbvc	r6, r1, #2880	; 0xb40
 92c:	613d6863 	teqvs	sp, r3, ror #16
 930:	36766d72 			; <UNDEFINED> instruction: 0x36766d72
 934:	2d207a6b 	vstmdbcs	r0!, {s14-s120}
 938:	62646767 	rsbvs	r6, r4, #27000832	; 0x19c0000
 93c:	674f2d20 	strbvs	r2, [pc, -r0, lsr #26]
 940:	74732d20 	ldrbtvc	r2, [r3], #-3360	; 0xfffff2e0
 944:	6e673d64 	cdpvs	13, 6, cr3, cr7, cr4, {3}
 948:	20393975 	eorscs	r3, r9, r5, ror r9
 94c:	7266662d 	rsbvc	r6, r6, #47185920	; 0x2d00000
 950:	74736565 	ldrbtvc	r6, [r3], #-1381	; 0xfffffa9b
 954:	69646e61 	stmdbvs	r4!, {r0, r5, r6, r9, sl, fp, sp, lr}^
 958:	6300676e 	movwvs	r6, #1902	; 0x76e
 95c:	006c746e 	rsbeq	r7, ip, lr, ror #8
 960:	74726175 	ldrbtvc	r6, [r2], #-373	; 0xfffffe8b
 964:	7369645f 	cmnvc	r9, #1593835520	; 0x5f000000
 968:	656c6261 	strbvs	r6, [ip, #-609]!	; 0xfffffd9f
 96c:	72617500 	rsbvc	r7, r1, #0, 10
 970:	61685f74 	smcvs	34292	; 0x85f4
 974:	61645f73 	smcvs	17907	; 0x45f3
 978:	47006174 	smlsdxmi	r0, r4, r1, r6
 97c:	5f4f4950 	svcpl	0x004f4950
 980:	434e5546 	movtmi	r5, #58694	; 0xe546
 984:	544c415f 	strbpl	r4, [ip], #-351	; 0xfffffea1
 988:	726f0034 	rsbvc	r0, pc, #52, 0	; 0x34
 98c:	336e695f 	cmncc	lr, #1556480	; 0x17c000
 990:	63730032 	cmnvs	r3, #50, 0	; 0x32
 994:	63746172 	cmnvs	r4, #-2147483620	; 0x8000001c
 998:	61750068 	cmnvs	r5, r8, rrx
 99c:	61007472 	tstvs	r0, r2, ror r4
 9a0:	695f646e 	ldmdbvs	pc, {r1, r2, r3, r5, r6, sl, sp, lr}^	; <UNPREDICTABLE>
 9a4:	0032336e 	eorseq	r3, r2, lr, ror #6
 9a8:	74726175 	ldrbtvc	r6, [r2], #-373	; 0xfffffe8b
 9ac:	7475705f 	ldrbtvc	r7, [r5], #-95	; 0xffffffa1
 9b0:	50470063 	subpl	r0, r7, r3, rrx
 9b4:	465f4f49 	ldrbmi	r4, [pc], -r9, asr #30
 9b8:	5f434e55 	svcpl	0x00434e55
 9bc:	55504e49 	ldrbpl	r4, [r0, #-3657]	; 0xfffff1b7
 9c0:	70670054 	rsbvc	r0, r7, r4, asr r0
 9c4:	735f6f69 	cmpvc	pc, #420	; 0x1a4
 9c8:	665f7465 	ldrbvs	r7, [pc], -r5, ror #8
 9cc:	74636e75 	strbtvc	r6, [r3], #-3701	; 0xfffff18b
 9d0:	006e6f69 	rsbeq	r6, lr, r9, ror #30
 9d4:	33746567 	cmncc	r4, #432013312	; 0x19c00000
 9d8:	6d6b0032 	stclvs	0, cr0, [fp, #-200]!	; 0xffffff38
 9dc:	6f6c6c61 	svcvs	0x006c6c61
 9e0:	65685f63 	strbvs	r5, [r8, #-3939]!	; 0xfffff09d
 9e4:	735f7061 	cmpvc	pc, #97, 0	; 0x61
 9e8:	74726174 	ldrbtvc	r6, [r2], #-372	; 0xfffffe8c
 9ec:	78616d00 	stmdavc	r1!, {r8, sl, fp, sp, lr}^
 9f0:	79626e5f 	stmdbvc	r2!, {r0, r1, r2, r3, r4, r6, r9, sl, fp, sp, lr}^
 9f4:	00736574 	rsbseq	r6, r3, r4, ror r5
 9f8:	6464615f 	strbtvs	r6, [r4], #-351	; 0xfffffea1
 9fc:	65680072 	strbvs	r0, [r8, #-114]!	; 0xffffff8e
 a00:	6d5f7061 	ldclvs	0, cr7, [pc, #-388]	; 884 <__code_start__-0x777c>
 a04:	6b007861 	blvs	1eb90 <__bss_end__+0x144c0>
 a08:	65657266 	strbvs	r7, [r5, #-614]!	; 0xfffffd9a
 a0c:	6c6c615f 	stfvse	f6, [ip], #-380	; 0xfffffe84
 a10:	756f7200 	strbvc	r7, [pc, #-512]!	; 818 <__code_start__-0x77e8>
 a14:	7075646e 	rsbsvc	r6, r5, lr, ror #8
 a18:	61656800 	cmnvs	r5, r0, lsl #16
 a1c:	666b0070 			; <UNDEFINED> instruction: 0x666b0070
 a20:	5f656572 	svcpl	0x00656572
 a24:	00706f70 	rsbseq	r6, r0, r0, ror pc
 a28:	67696c61 	strbvs	r6, [r9, -r1, ror #24]!
 a2c:	6e656d6e 	cdpvs	13, 6, cr6, cr5, cr14, {3}
 a30:	616d0074 	smcvs	53252	; 0xd004
 a34:	33755f78 	cmncc	r5, #120, 30	; 0x1e0
 a38:	6e4f0032 	mcrvs	0, 2, r0, cr15, cr2, {1}
 a3c:	00424d65 	subeq	r4, r2, r5, ror #26
 a40:	6c616d6b 	stclvs	13, cr6, [r1], #-428	; 0xfffffe54
 a44:	5f636f6c 	svcpl	0x00636f6c
 a48:	70616568 	rsbvc	r6, r1, r8, ror #10
 a4c:	646e655f 	strbtvs	r6, [lr], #-1375	; 0xfffffaa1
 a50:	616d6b00 	cmnvs	sp, r0, lsl #22
 a54:	636f6c6c 	cmnvs	pc, #108, 24	; 0x6c00
 a58:	746f6e5f 	strbtvc	r6, [pc], #-3679	; a60 <__code_start__-0x75a0>
 a5c:	6f72657a 	svcvs	0x0072657a
 a60:	5f736900 	svcpl	0x00736900
 a64:	32776f70 	rsbscc	r6, r7, #112, 30	; 0x1c0
 a68:	616d6b00 	cmnvs	sp, r0, lsl #22
 a6c:	636f6c6c 	cmnvs	pc, #108, 24	; 0x6c00
 a70:	6b00632e 	blvs	19730 <__bss_end__+0xf060>
 a74:	6c6c616d 	stfvse	f6, [ip], #-436	; 0xfffffe4c
 a78:	695f636f 	ldmdbvs	pc, {r0, r1, r2, r3, r5, r6, r8, r9, sp, lr}^	; <UNPREDICTABLE>
 a7c:	0074696e 	rsbseq	r6, r4, lr, ror #18
 a80:	615f7369 	cmpvs	pc, r9, ror #6
 a84:	6e67696c 	vnmulvs.f16	s13, s14, s25	; <UNPREDICTABLE>
 a88:	6b006465 	blvs	19c24 <__bss_end__+0xf554>
 a8c:	6c6c616d 	stfvse	f6, [ip], #-436	; 0xfffffe4c
 a90:	685f636f 	ldmdavs	pc, {r0, r1, r2, r3, r5, r6, r8, r9, sp, lr}^	; <UNPREDICTABLE>
 a94:	5f706165 	svcpl	0x00706165
 a98:	00727470 	rsbseq	r7, r2, r0, ror r4
 a9c:	5f697072 	svcpl	0x00697072
 aa0:	65736572 	ldrbvs	r6, [r3, #-1394]!	; 0xfffffa8e
 aa4:	75705f74 	ldrbvc	r5, [r0, #-3956]!	; 0xfffff08c
 aa8:	6b006374 	blvs	19880 <__bss_end__+0xf1b0>
 aac:	6c6c616d 	stfvse	f6, [ip], #-436	; 0xfffffe4c
 ab0:	615f636f 	cmpvs	pc, pc, ror #6
 ab4:	6e67696c 	vnmulvs.f16	s13, s14, s25	; <UNPREDICTABLE>
 ab8:	67006465 	strvs	r6, [r0, -r5, ror #8]
 abc:	5f6f6970 	svcpl	0x006f6970
 ac0:	30726c63 	rsbscc	r6, r2, r3, ror #24
 ac4:	69706700 	ldmdbvs	r0!, {r8, r9, sl, sp, lr}^
 ac8:	65735f6f 	ldrbvs	r5, [r3, #-3951]!	; 0xfffff091
 acc:	67003074 	smlsdxvs	r0, r4, r0, r3
 ad0:	5f6f6970 	svcpl	0x006f6970
 ad4:	74697277 	strbtvc	r7, [r9], #-631	; 0xfffffd89
 ad8:	45440065 	strbmi	r0, [r4, #-101]	; 0xffffff9b
 adc:	41565f56 	cmpmi	r6, r6, asr pc
 ae0:	0032334c 	eorseq	r3, r2, ip, asr #6
 ae4:	6f697067 	svcvs	0x00697067
 ae8:	6165725f 	cmnvs	r5, pc, asr r2
 aec:	2f2e0064 	svccs	0x002e0064
 af0:	2f637273 	svccs	0x00637273
 af4:	6f697067 	svcvs	0x00697067
 af8:	6700632e 	strvs	r6, [r0, -lr, lsr #6]
 afc:	5f6f6970 	svcpl	0x006f6970
 b00:	5f746573 	svcpl	0x00746573
 b04:	75706e69 	ldrbvc	r6, [r0, #-3689]!	; 0xfffff197
 b08:	70670074 	rsbvc	r0, r7, r4, ror r0
 b0c:	735f6f69 	cmpvc	pc, #420	; 0x1a4
 b10:	6f5f7465 	svcvs	0x005f7465
 b14:	67006666 	strvs	r6, [r0, -r6, ror #12]
 b18:	5f6f6970 	svcpl	0x006f6970
 b1c:	5f746573 	svcpl	0x00746573
 b20:	7074756f 	rsbsvc	r7, r4, pc, ror #10
 b24:	67007475 	smlsdxvs	r0, r5, r4, r7
 b28:	5f6f6970 	svcpl	0x006f6970
 b2c:	636e7566 	cmnvs	lr, #427819008	; 0x19800000
 b30:	6700745f 	smlsdvs	r0, pc, r4, r7	; <UNPREDICTABLE>
 b34:	5f6f6970 	svcpl	0x006f6970
 b38:	3076656c 	rsbscc	r6, r6, ip, ror #10
 b3c:	6e616200 	cdpvs	2, 6, cr6, cr1, cr0, {0}
 b40:	7067006b 	rsbvc	r0, r7, fp, rrx
 b44:	735f6f69 	cmpvc	pc, #420	; 0x1a4
 b48:	6f5f7465 	svcvs	0x005f7465
 b4c:	6e69006e 	cdpvs	0, 6, cr0, cr9, cr14, {3}
 b50:	6e726574 	mrcvs	5, 3, r6, cr2, cr4, {3}
 b54:	705f6c61 	subsvc	r6, pc, r1, ror #24
 b58:	68637475 	stmdavs	r3!, {r0, r2, r4, r5, r6, sl, ip, sp, lr}^
 b5c:	72007261 	andvc	r7, r0, #268435462	; 0x10000006
 b60:	735f6970 	cmpvc	pc, #112, 18	; 0x1c0000
 b64:	705f7465 	subsvc	r7, pc, r5, ror #8
 b68:	00637475 	rsbeq	r7, r3, r5, ror r4
 b6c:	696c2f2e 	stmdbvs	ip!, {r1, r2, r3, r5, r8, r9, sl, fp, sp}^
 b70:	702f6362 	eorvc	r6, pc, r2, ror #6
 b74:	68637475 	stmdavs	r3!, {r0, r2, r4, r5, r6, sl, ip, sp, lr}^
 b78:	632e7261 			; <UNDEFINED> instruction: 0x632e7261
 b7c:	6c2f2e00 	stcvs	14, cr2, [pc], #-0	; b84 <__code_start__-0x747c>
 b80:	2f636269 	svccs	0x00636269
 b84:	63727473 	cmnvs	r2, #1929379840	; 0x73000000
 b88:	632e7461 			; <UNDEFINED> instruction: 0x632e7461
 b8c:	73656400 	cmnvc	r5, #0, 8
 b90:	2f2e0074 	svccs	0x002e0074
 b94:	6362696c 	cmnvs	r2, #108, 18	; 0x1b0000
 b98:	7274732f 	rsbsvc	r7, r4, #-1140850688	; 0xbc000000
 b9c:	2e706d63 	cdpcs	13, 7, cr6, cr0, cr3, {3}
 ba0:	2f2e0063 	svccs	0x002e0063
 ba4:	6362696c 	cmnvs	r2, #108, 18	; 0x1b0000
 ba8:	7274732f 	rsbsvc	r7, r4, #-1140850688	; 0xbc000000
 bac:	2e797063 	cdpcs	0, 7, cr7, cr9, cr3, {3}
 bb0:	2f2e0063 	svccs	0x002e0063
 bb4:	6362696c 	cmnvs	r2, #108, 18	; 0x1b0000
 bb8:	7274732f 	rsbsvc	r7, r4, #-1140850688	; 0xbc000000
 bbc:	706d636e 	rsbvc	r6, sp, lr, ror #6
 bc0:	2e00632e 	cdpcs	3, 0, cr6, cr0, cr14, {1}
 bc4:	6174732f 	cmnvs	r4, pc, lsr #6
 bc8:	732d6666 			; <UNDEFINED> instruction: 0x732d6666
 bcc:	642f6372 	strtvs	r6, [pc], #-882	; bd4 <__code_start__-0x742c>
 bd0:	75616665 	strbvc	r6, [r1, #-1637]!	; 0xfffff99b
 bd4:	722d746c 	eorvc	r7, sp, #108, 8	; 0x6c000000
 bd8:	6f6f6265 	svcvs	0x006f6265
 bdc:	61632d74 	smcvs	13012	; 0x32d4
 be0:	756f6c6c 	strbvc	r6, [pc, #-3180]!	; ffffff7c <__bss_end__+0xffff58ac>
 be4:	00632e74 	rsbeq	r2, r3, r4, ror lr

Disassembly of section .debug_frame:

00000000 <.debug_frame>:
   0:	0000000c 	andeq	r0, r0, ip
   4:	ffffffff 			; <UNDEFINED> instruction: 0xffffffff
   8:	7c020001 	stcvc	0, cr0, [r2], {1}
   c:	000d0c0e 	andeq	r0, sp, lr, lsl #24
  10:	00000020 	andeq	r0, r0, r0, lsr #32
  14:	00000000 	andeq	r0, r0, r0
  18:	00008038 	andeq	r8, r0, r8, lsr r0
  1c:	000000a4 	andeq	r0, r0, r4, lsr #1
  20:	84100e42 	ldrhi	r0, [r0], #-3650	; 0xfffff1be
  24:	86038504 	strhi	r8, [r3], -r4, lsl #10
  28:	42018e02 	andmi	r8, r1, #2, 28
  2c:	4002280e 	andmi	r2, r2, lr, lsl #16
  30:	0000100e 	andeq	r1, r0, lr
  34:	00000014 	andeq	r0, r0, r4, lsl r0
  38:	00000000 	andeq	r0, r0, r0
  3c:	000080dc 	ldrdeq	r8, [r0], -ip
  40:	00000028 	andeq	r0, r0, r8, lsr #32
  44:	84080e42 	strhi	r0, [r8], #-3650	; 0xfffff1be
  48:	00018e02 	andeq	r8, r1, r2, lsl #28
  4c:	0000000c 	andeq	r0, r0, ip
  50:	ffffffff 			; <UNDEFINED> instruction: 0xffffffff
  54:	7c020001 	stcvc	0, cr0, [r2], {1}
  58:	000d0c0e 	andeq	r0, sp, lr, lsl #24
  5c:	0000000c 	andeq	r0, r0, ip
  60:	0000004c 	andeq	r0, r0, ip, asr #32
  64:	00008104 	andeq	r8, r0, r4, lsl #2
  68:	00000010 	andeq	r0, r0, r0, lsl r0
  6c:	0000000c 	andeq	r0, r0, ip
  70:	0000004c 	andeq	r0, r0, ip, asr #32
  74:	00008114 	andeq	r8, r0, r4, lsl r1
  78:	00000010 	andeq	r0, r0, r0, lsl r0
  7c:	00000020 	andeq	r0, r0, r0, lsr #32
  80:	0000004c 	andeq	r0, r0, ip, asr #32
  84:	00008124 	andeq	r8, r0, r4, lsr #2
  88:	000000a4 	andeq	r0, r0, r4, lsr #1
  8c:	840c0e42 	strhi	r0, [ip], #-3650	; 0xfffff1be
  90:	8e028503 	cfsh32hi	mvfx8, mvfx2, #3
  94:	180e4201 	stmdane	lr, {r0, r9, lr}
  98:	0c0e0a5e 			; <UNDEFINED> instruction: 0x0c0e0a5e
  9c:	00000b42 	andeq	r0, r0, r2, asr #22
  a0:	0000000c 	andeq	r0, r0, ip
  a4:	0000004c 	andeq	r0, r0, ip, asr #32
  a8:	000081c8 	andeq	r8, r0, r8, asr #3
  ac:	00000008 	andeq	r0, r0, r8
  b0:	00000014 	andeq	r0, r0, r4, lsl r0
  b4:	0000004c 	andeq	r0, r0, ip, asr #32
  b8:	000081d0 	ldrdeq	r8, [r0], -r0
  bc:	00000018 	andeq	r0, r0, r8, lsl r0
  c0:	84080e42 	strhi	r0, [r8], #-3650	; 0xfffff1be
  c4:	00018e02 	andeq	r8, r1, r2, lsl #28
  c8:	0000000c 	andeq	r0, r0, ip
  cc:	0000004c 	andeq	r0, r0, ip, asr #32
  d0:	000081e8 	andeq	r8, r0, r8, ror #3
  d4:	0000003c 	andeq	r0, r0, ip, lsr r0
  d8:	00000018 	andeq	r0, r0, r8, lsl r0
  dc:	0000004c 	andeq	r0, r0, ip, asr #32
  e0:	00008224 	andeq	r8, r0, r4, lsr #4
  e4:	00000058 	andeq	r0, r0, r8, asr r0
  e8:	84100e42 	ldrhi	r0, [r0], #-3650	; 0xfffff1be
  ec:	86038504 	strhi	r8, [r3], -r4, lsl #10
  f0:	00018e02 	andeq	r8, r1, r2, lsl #28
  f4:	00000024 	andeq	r0, r0, r4, lsr #32
  f8:	0000004c 	andeq	r0, r0, ip, asr #32
  fc:	0000827c 	andeq	r8, r0, ip, ror r2
 100:	000000ec 	andeq	r0, r0, ip, ror #1
 104:	84180e42 	ldrhi	r0, [r8], #-3650	; 0xfffff1be
 108:	86058506 	strhi	r8, [r5], -r6, lsl #10
 10c:	88038704 	stmdahi	r3, {r2, r8, r9, sl, pc}
 110:	42018e02 	andmi	r8, r1, #2, 28
 114:	0a7c300e 	beq	1f0c154 <__bss_end__+0x1f01a84>
 118:	0b42180e 	bleq	1086158 <__bss_end__+0x107ba88>
 11c:	00000020 	andeq	r0, r0, r0, lsr #32
 120:	0000004c 	andeq	r0, r0, ip, asr #32
 124:	00008368 	andeq	r8, r0, r8, ror #6
 128:	00000090 	muleq	r0, r0, r0
 12c:	84100e42 	ldrhi	r0, [r0], #-3650	; 0xfffff1be
 130:	86038504 	strhi	r8, [r3], -r4, lsl #10
 134:	42018e02 	andmi	r8, r1, #2, 28
 138:	0e7c200e 	cdpeq	0, 7, cr2, cr12, cr14, {0}
 13c:	00000010 	andeq	r0, r0, r0, lsl r0
 140:	0000000c 	andeq	r0, r0, ip
 144:	ffffffff 			; <UNDEFINED> instruction: 0xffffffff
 148:	7c020001 	stcvc	0, cr0, [r2], {1}
 14c:	000d0c0e 	andeq	r0, sp, lr, lsl #24
 150:	00000014 	andeq	r0, r0, r4, lsl r0
 154:	00000140 	andeq	r0, r0, r0, asr #2
 158:	000083f8 	strdeq	r8, [r0], -r8	; <UNPREDICTABLE>
 15c:	000000bc 	strheq	r0, [r0], -ip
 160:	8e040e42 	cdphi	14, 0, cr0, cr4, cr2, {2}
 164:	00000001 	andeq	r0, r0, r1
 168:	00000014 	andeq	r0, r0, r4, lsl r0
 16c:	00000140 	andeq	r0, r0, r0, asr #2
 170:	000084b4 			; <UNDEFINED> instruction: 0x000084b4
 174:	00000044 	andeq	r0, r0, r4, asr #32
 178:	84080e42 	strhi	r0, [r8], #-3650	; 0xfffff1be
 17c:	00018e02 	andeq	r8, r1, r2, lsl #28
 180:	00000014 	andeq	r0, r0, r4, lsl r0
 184:	00000140 	andeq	r0, r0, r0, asr #2
 188:	000084f8 	strdeq	r8, [r0], -r8	; <UNPREDICTABLE>
 18c:	000000ac 	andeq	r0, r0, ip, lsr #1
 190:	84080e42 	strhi	r0, [r8], #-3650	; 0xfffff1be
 194:	00018e02 	andeq	r8, r1, r2, lsl #28
 198:	0000000c 	andeq	r0, r0, ip
 19c:	ffffffff 			; <UNDEFINED> instruction: 0xffffffff
 1a0:	7c020001 	stcvc	0, cr0, [r2], {1}
 1a4:	000d0c0e 	andeq	r0, sp, lr, lsl #24
 1a8:	00000014 	andeq	r0, r0, r4, lsl r0
 1ac:	00000198 	muleq	r0, r8, r1
 1b0:	000085a4 	andeq	r8, r0, r4, lsr #11
 1b4:	0000006c 	andeq	r0, r0, ip, rrx
 1b8:	8e040e42 	cdphi	14, 0, cr0, cr4, cr2, {2}
 1bc:	480e4201 	stmdami	lr, {r0, r9, lr}
 1c0:	0000001c 	andeq	r0, r0, ip, lsl r0
 1c4:	00000198 	muleq	r0, r8, r1
 1c8:	00008610 	andeq	r8, r0, r0, lsl r6
 1cc:	00000098 	muleq	r0, r8, r0
 1d0:	84080e42 	strhi	r0, [r8], #-3650	; 0xfffff1be
 1d4:	42018e02 	andmi	r8, r1, #2, 28
 1d8:	0a5e100e 	beq	1784218 <__bss_end__+0x1779b48>
 1dc:	0b42080e 	bleq	108221c <__bss_end__+0x1077b4c>
 1e0:	00000014 	andeq	r0, r0, r4, lsl r0
 1e4:	00000198 	muleq	r0, r8, r1
 1e8:	000086a8 	andeq	r8, r0, r8, lsr #13
 1ec:	00000008 	andeq	r0, r0, r8
 1f0:	84080e42 	strhi	r0, [r8], #-3650	; 0xfffff1be
 1f4:	00018e02 	andeq	r8, r1, r2, lsl #28
 1f8:	00000014 	andeq	r0, r0, r4, lsl r0
 1fc:	00000198 	muleq	r0, r8, r1
 200:	000086b0 			; <UNDEFINED> instruction: 0x000086b0
 204:	0000000c 	andeq	r0, r0, ip
 208:	84080e42 	strhi	r0, [r8], #-3650	; 0xfffff1be
 20c:	00018e02 	andeq	r8, r1, r2, lsl #28
 210:	00000014 	andeq	r0, r0, r4, lsl r0
 214:	00000198 	muleq	r0, r8, r1
 218:	000086bc 			; <UNDEFINED> instruction: 0x000086bc
 21c:	0000000c 	andeq	r0, r0, ip
 220:	84080e42 	strhi	r0, [r8], #-3650	; 0xfffff1be
 224:	00018e02 	andeq	r8, r1, r2, lsl #28
 228:	00000014 	andeq	r0, r0, r4, lsl r0
 22c:	00000198 	muleq	r0, r8, r1
 230:	000086c8 	andeq	r8, r0, r8, asr #13
 234:	00000008 	andeq	r0, r0, r8
 238:	84080e42 	strhi	r0, [r8], #-3650	; 0xfffff1be
 23c:	00018e02 	andeq	r8, r1, r2, lsl #28
 240:	00000014 	andeq	r0, r0, r4, lsl r0
 244:	00000198 	muleq	r0, r8, r1
 248:	000086d0 	ldrdeq	r8, [r0], -r0
 24c:	00000028 	andeq	r0, r0, r8, lsr #32
 250:	84080e42 	strhi	r0, [r8], #-3650	; 0xfffff1be
 254:	00018e02 	andeq	r8, r1, r2, lsl #28
 258:	0000000c 	andeq	r0, r0, ip
 25c:	ffffffff 			; <UNDEFINED> instruction: 0xffffffff
 260:	7c020001 	stcvc	0, cr0, [r2], {1}
 264:	000d0c0e 	andeq	r0, sp, lr, lsl #24
 268:	00000014 	andeq	r0, r0, r4, lsl r0
 26c:	00000258 	andeq	r0, r0, r8, asr r2
 270:	00008700 	andeq	r8, r0, r0, lsl #14
 274:	00000078 	andeq	r0, r0, r8, ror r0
 278:	84080e42 	strhi	r0, [r8], #-3650	; 0xfffff1be
 27c:	00018e02 	andeq	r8, r1, r2, lsl #28
 280:	0000000c 	andeq	r0, r0, ip
 284:	ffffffff 			; <UNDEFINED> instruction: 0xffffffff
 288:	7c020001 	stcvc	0, cr0, [r2], {1}
 28c:	000d0c0e 	andeq	r0, sp, lr, lsl #24
 290:	00000034 	andeq	r0, r0, r4, lsr r0
 294:	00000280 	andeq	r0, r0, r0, lsl #5
 298:	00008778 	andeq	r8, r0, r8, ror r7
 29c:	00000058 	andeq	r0, r0, r8, asr r0
 2a0:	80100e42 	andshi	r0, r0, r2, asr #28
 2a4:	82038104 	andhi	r8, r3, #1
 2a8:	42018302 	andmi	r8, r1, #134217728	; 0x8000000
 2ac:	07841c0e 	streq	r1, [r4, lr, lsl #24]
 2b0:	058e0685 	streq	r0, [lr, #1669]	; 0x685
 2b4:	5a280e44 	bpl	a03bcc <__bss_end__+0x9f94fc>
 2b8:	ce421c0e 	cdpgt	12, 4, cr1, cr2, cr14, {0}
 2bc:	100ec4c5 	andne	ip, lr, r5, asr #9
 2c0:	c1c2c342 	bicgt	ip, r2, r2, asr #6
 2c4:	00000ec0 	andeq	r0, r0, r0, asr #29
 2c8:	0000000c 	andeq	r0, r0, ip
 2cc:	ffffffff 			; <UNDEFINED> instruction: 0xffffffff
 2d0:	7c020001 	stcvc	0, cr0, [r2], {1}
 2d4:	000d0c0e 	andeq	r0, sp, lr, lsl #24
 2d8:	00000018 	andeq	r0, r0, r8, lsl r0
 2dc:	000002c8 	andeq	r0, r0, r8, asr #5
 2e0:	000087d0 	ldrdeq	r8, [r0], -r0
 2e4:	00000038 	andeq	r0, r0, r8, lsr r0
 2e8:	84100e42 	ldrhi	r0, [r0], #-3650	; 0xfffff1be
 2ec:	86038504 	strhi	r8, [r3], -r4, lsl #10
 2f0:	00018e02 	andeq	r8, r1, r2, lsl #28
 2f4:	0000000c 	andeq	r0, r0, ip
 2f8:	ffffffff 			; <UNDEFINED> instruction: 0xffffffff
 2fc:	7c020001 	stcvc	0, cr0, [r2], {1}
 300:	000d0c0e 	andeq	r0, sp, lr, lsl #24
 304:	0000002c 	andeq	r0, r0, ip, lsr #32
 308:	000002f4 	strdeq	r0, [r0], -r4
 30c:	00008808 	andeq	r8, r0, r8, lsl #16
 310:	00000328 	andeq	r0, r0, r8, lsr #6
 314:	84180e42 	ldrhi	r0, [r8], #-3650	; 0xfffff1be
 318:	86058506 	strhi	r8, [r5], -r6, lsl #10
 31c:	88038704 	stmdahi	r3, {r2, r8, r9, sl, pc}
 320:	46018e02 	strmi	r8, [r1], -r2, lsl #28
 324:	c002600e 	andgt	r6, r2, lr
 328:	42180e0a 	andsmi	r0, r8, #160	; 0xa0
 32c:	0a8e020b 	beq	fe380b60 <__bss_end__+0xfe376490>
 330:	0b42180e 	bleq	1086370 <__bss_end__+0x107bca0>
 334:	00000014 	andeq	r0, r0, r4, lsl r0
 338:	000002f4 	strdeq	r0, [r0], -r4
 33c:	00008b30 	andeq	r8, r0, r0, lsr fp
 340:	00000060 	andeq	r0, r0, r0, rrx
 344:	8e040e52 	mcrhi	14, 0, r0, cr4, cr2, {2}
 348:	100e4401 	andne	r4, lr, r1, lsl #8
 34c:	0000002c 	andeq	r0, r0, ip, lsr #32
 350:	000002f4 	strdeq	r0, [r0], -r4
 354:	00008b90 	muleq	r0, r0, fp
 358:	0000062c 	andeq	r0, r0, ip, lsr #12
 35c:	84240e42 	strthi	r0, [r4], #-3650	; 0xfffff1be
 360:	86088509 	strhi	r8, [r8], -r9, lsl #10
 364:	88068707 	stmdahi	r6, {r0, r1, r2, r8, r9, sl, pc}
 368:	8a048905 	bhi	122784 <__bss_end__+0x1180b4>
 36c:	8e028b03 	vmlahi.f64	d8, d2, d3
 370:	c00e5201 	andgt	r5, lr, r1, lsl #4
 374:	0a860202 	beq	fe180b84 <__bss_end__+0xfe1764b4>
 378:	0b42240e 	bleq	10893b8 <__bss_end__+0x107ece8>
 37c:	0000000c 	andeq	r0, r0, ip
 380:	ffffffff 			; <UNDEFINED> instruction: 0xffffffff
 384:	7c020001 	stcvc	0, cr0, [r2], {1}
 388:	000d0c0e 	andeq	r0, sp, lr, lsl #24
 38c:	00000014 	andeq	r0, r0, r4, lsl r0
 390:	0000037c 	andeq	r0, r0, ip, ror r3
 394:	000091bc 			; <UNDEFINED> instruction: 0x000091bc
 398:	0000002c 	andeq	r0, r0, ip, lsr #32
 39c:	84080e44 	strhi	r0, [r8], #-3652	; 0xfffff1bc
 3a0:	00018e02 	andeq	r8, r1, r2, lsl #28
 3a4:	0000000c 	andeq	r0, r0, ip
 3a8:	ffffffff 			; <UNDEFINED> instruction: 0xffffffff
 3ac:	7c020001 	stcvc	0, cr0, [r2], {1}
 3b0:	000d0c0e 	andeq	r0, sp, lr, lsl #24
 3b4:	00000018 	andeq	r0, r0, r8, lsl r0
 3b8:	000003a4 	andeq	r0, r0, r4, lsr #7
 3bc:	000091e8 	andeq	r9, r0, r8, ror #3
 3c0:	000000f8 	strdeq	r0, [r0], -r8
 3c4:	84100e42 	ldrhi	r0, [r0], #-3650	; 0xfffff1be
 3c8:	86038504 	strhi	r8, [r3], -r4, lsl #10
 3cc:	00018e02 	andeq	r8, r1, r2, lsl #28
 3d0:	0000000c 	andeq	r0, r0, ip
 3d4:	ffffffff 			; <UNDEFINED> instruction: 0xffffffff
 3d8:	7c020001 	stcvc	0, cr0, [r2], {1}
 3dc:	000d0c0e 	andeq	r0, sp, lr, lsl #24
 3e0:	0000000c 	andeq	r0, r0, ip
 3e4:	000003d0 	ldrdeq	r0, [r0], -r0	; <UNPREDICTABLE>
 3e8:	000092e0 	andeq	r9, r0, r0, ror #5
 3ec:	00000004 	andeq	r0, r0, r4
 3f0:	0000000c 	andeq	r0, r0, ip
 3f4:	ffffffff 			; <UNDEFINED> instruction: 0xffffffff
 3f8:	7c020001 	stcvc	0, cr0, [r2], {1}
 3fc:	000d0c0e 	andeq	r0, sp, lr, lsl #24
 400:	0000000c 	andeq	r0, r0, ip
 404:	000003f0 	strdeq	r0, [r0], -r0	; <UNPREDICTABLE>
 408:	000092e4 	andeq	r9, r0, r4, ror #5
 40c:	00000018 	andeq	r0, r0, r8, lsl r0
 410:	0000000c 	andeq	r0, r0, ip
 414:	000003f0 	strdeq	r0, [r0], -r0	; <UNPREDICTABLE>
 418:	000092fc 	strdeq	r9, [r0], -ip
 41c:	00000014 	andeq	r0, r0, r4, lsl r0
 420:	00000014 	andeq	r0, r0, r4, lsl r0
 424:	000003f0 	strdeq	r0, [r0], -r0	; <UNPREDICTABLE>
 428:	00009310 	andeq	r9, r0, r0, lsl r3
 42c:	00000060 	andeq	r0, r0, r0, rrx
 430:	84080e42 	strhi	r0, [r8], #-3650	; 0xfffff1be
 434:	00018e02 	andeq	r8, r1, r2, lsl #28
 438:	0000000c 	andeq	r0, r0, ip
 43c:	ffffffff 			; <UNDEFINED> instruction: 0xffffffff
 440:	7c020001 	stcvc	0, cr0, [r2], {1}
 444:	000d0c0e 	andeq	r0, sp, lr, lsl #24
 448:	0000000c 	andeq	r0, r0, ip
 44c:	00000438 	andeq	r0, r0, r8, lsr r4
 450:	00009370 	andeq	r9, r0, r0, ror r3
 454:	0000000c 	andeq	r0, r0, ip
 458:	00000014 	andeq	r0, r0, r4, lsl r0
 45c:	00000438 	andeq	r0, r0, r8, lsr r4
 460:	0000937c 	andeq	r9, r0, ip, ror r3
 464:	00000024 	andeq	r0, r0, r4, lsr #32
 468:	84080e42 	strhi	r0, [r8], #-3650	; 0xfffff1be
 46c:	00018e02 	andeq	r8, r1, r2, lsl #28
 470:	0000001c 	andeq	r0, r0, ip, lsl r0
 474:	00000438 	andeq	r0, r0, r8, lsr r4
 478:	000093a0 	andeq	r9, r0, r0, lsr #7
 47c:	00000048 	andeq	r0, r0, r8, asr #32
 480:	84180e42 	ldrhi	r0, [r8], #-3650	; 0xfffff1be
 484:	86058506 	strhi	r8, [r5], -r6, lsl #10
 488:	88038704 	stmdahi	r3, {r2, r8, r9, sl, pc}
 48c:	00018e02 	andeq	r8, r1, r2, lsl #28
 490:	0000001c 	andeq	r0, r0, ip, lsl r0
 494:	00000438 	andeq	r0, r0, r8, lsr r4
 498:	000093e8 	andeq	r9, r0, r8, ror #7
 49c:	00000050 	andeq	r0, r0, r0, asr r0
 4a0:	84180e42 	ldrhi	r0, [r8], #-3650	; 0xfffff1be
 4a4:	86058506 	strhi	r8, [r5], -r6, lsl #10
 4a8:	88038704 	stmdahi	r3, {r2, r8, r9, sl, pc}
 4ac:	00018e02 	andeq	r8, r1, r2, lsl #28
 4b0:	0000001c 	andeq	r0, r0, ip, lsl r0
 4b4:	00000438 	andeq	r0, r0, r8, lsr r4
 4b8:	00009438 	andeq	r9, r0, r8, lsr r4
 4bc:	00000054 	andeq	r0, r0, r4, asr r0
 4c0:	84180e42 	ldrhi	r0, [r8], #-3650	; 0xfffff1be
 4c4:	86058506 	strhi	r8, [r5], -r6, lsl #10
 4c8:	88038704 	stmdahi	r3, {r2, r8, r9, sl, pc}
 4cc:	00018e02 	andeq	r8, r1, r2, lsl #28
 4d0:	0000000c 	andeq	r0, r0, ip
 4d4:	ffffffff 			; <UNDEFINED> instruction: 0xffffffff
 4d8:	7c020001 	stcvc	0, cr0, [r2], {1}
 4dc:	000d0c0e 	andeq	r0, sp, lr, lsl #24
 4e0:	00000018 	andeq	r0, r0, r8, lsl r0
 4e4:	000004d0 	ldrdeq	r0, [r0], -r0	; <UNPREDICTABLE>
 4e8:	0000948c 	andeq	r9, r0, ip, lsl #9
 4ec:	00000020 	andeq	r0, r0, r0, lsr #32
 4f0:	84100e42 	ldrhi	r0, [r0], #-3650	; 0xfffff1be
 4f4:	86038504 	strhi	r8, [r3], -r4, lsl #10
 4f8:	00018e02 	andeq	r8, r1, r2, lsl #28
 4fc:	00000018 	andeq	r0, r0, r8, lsl r0
 500:	000004d0 	ldrdeq	r0, [r0], -r0	; <UNPREDICTABLE>
 504:	000094ac 	andeq	r9, r0, ip, lsr #9
 508:	00000020 	andeq	r0, r0, r0, lsr #32
 50c:	84100e42 	ldrhi	r0, [r0], #-3650	; 0xfffff1be
 510:	86038504 	strhi	r8, [r3], -r4, lsl #10
 514:	00018e02 	andeq	r8, r1, r2, lsl #28
 518:	00000014 	andeq	r0, r0, r4, lsl r0
 51c:	000004d0 	ldrdeq	r0, [r0], -r0	; <UNPREDICTABLE>
 520:	000094cc 	andeq	r9, r0, ip, asr #9
 524:	000000b0 	strheq	r0, [r0], -r0	; <UNPREDICTABLE>
 528:	84080e42 	strhi	r0, [r8], #-3650	; 0xfffff1be
 52c:	00018e02 	andeq	r8, r1, r2, lsl #28
 530:	00000014 	andeq	r0, r0, r4, lsl r0
 534:	000004d0 	ldrdeq	r0, [r0], -r0	; <UNPREDICTABLE>
 538:	0000957c 	andeq	r9, r0, ip, ror r5
 53c:	00000018 	andeq	r0, r0, r8, lsl r0
 540:	84080e42 	strhi	r0, [r8], #-3650	; 0xfffff1be
 544:	00018e02 	andeq	r8, r1, r2, lsl #28
 548:	00000014 	andeq	r0, r0, r4, lsl r0
 54c:	000004d0 	ldrdeq	r0, [r0], -r0	; <UNPREDICTABLE>
 550:	00009594 	muleq	r0, r4, r5
 554:	00000020 	andeq	r0, r0, r0, lsr #32
 558:	84080e42 	strhi	r0, [r8], #-3650	; 0xfffff1be
 55c:	00018e02 	andeq	r8, r1, r2, lsl #28
 560:	00000014 	andeq	r0, r0, r4, lsl r0
 564:	000004d0 	ldrdeq	r0, [r0], -r0	; <UNPREDICTABLE>
 568:	000095b4 			; <UNDEFINED> instruction: 0x000095b4
 56c:	00000030 	andeq	r0, r0, r0, lsr r0
 570:	84080e42 	strhi	r0, [r8], #-3650	; 0xfffff1be
 574:	00018e02 	andeq	r8, r1, r2, lsl #28
 578:	00000014 	andeq	r0, r0, r4, lsl r0
 57c:	000004d0 	ldrdeq	r0, [r0], -r0	; <UNPREDICTABLE>
 580:	000095e4 	andeq	r9, r0, r4, ror #11
 584:	00000030 	andeq	r0, r0, r0, lsr r0
 588:	84080e42 	strhi	r0, [r8], #-3650	; 0xfffff1be
 58c:	00018e02 	andeq	r8, r1, r2, lsl #28
 590:	00000014 	andeq	r0, r0, r4, lsl r0
 594:	000004d0 	ldrdeq	r0, [r0], -r0	; <UNPREDICTABLE>
 598:	00009614 	andeq	r9, r0, r4, lsl r6
 59c:	00000010 	andeq	r0, r0, r0, lsl r0
 5a0:	84080e42 	strhi	r0, [r8], #-3650	; 0xfffff1be
 5a4:	00018e02 	andeq	r8, r1, r2, lsl #28
 5a8:	00000014 	andeq	r0, r0, r4, lsl r0
 5ac:	000004d0 	ldrdeq	r0, [r0], -r0	; <UNPREDICTABLE>
 5b0:	00009624 	andeq	r9, r0, r4, lsr #12
 5b4:	00000020 	andeq	r0, r0, r0, lsr #32
 5b8:	84080e42 	strhi	r0, [r8], #-3650	; 0xfffff1be
 5bc:	00018e02 	andeq	r8, r1, r2, lsl #28
 5c0:	00000014 	andeq	r0, r0, r4, lsl r0
 5c4:	000004d0 	ldrdeq	r0, [r0], -r0	; <UNPREDICTABLE>
 5c8:	00009644 	andeq	r9, r0, r4, asr #12
 5cc:	00000014 	andeq	r0, r0, r4, lsl r0
 5d0:	84080e42 	strhi	r0, [r8], #-3650	; 0xfffff1be
 5d4:	00018e02 	andeq	r8, r1, r2, lsl #28
 5d8:	00000014 	andeq	r0, r0, r4, lsl r0
 5dc:	000004d0 	ldrdeq	r0, [r0], -r0	; <UNPREDICTABLE>
 5e0:	00009658 	andeq	r9, r0, r8, asr r6
 5e4:	00000024 	andeq	r0, r0, r4, lsr #32
 5e8:	84080e42 	strhi	r0, [r8], #-3650	; 0xfffff1be
 5ec:	00018e02 	andeq	r8, r1, r2, lsl #28
 5f0:	0000000c 	andeq	r0, r0, ip
 5f4:	ffffffff 			; <UNDEFINED> instruction: 0xffffffff
 5f8:	7c020001 	stcvc	0, cr0, [r2], {1}
 5fc:	000d0c0e 	andeq	r0, sp, lr, lsl #24
 600:	0000000c 	andeq	r0, r0, ip
 604:	000005f0 	strdeq	r0, [r0], -r0	; <UNPREDICTABLE>
 608:	0000967c 	andeq	r9, r0, ip, ror r6
 60c:	00000010 	andeq	r0, r0, r0, lsl r0
 610:	0000000c 	andeq	r0, r0, ip
 614:	000005f0 	strdeq	r0, [r0], -r0	; <UNPREDICTABLE>
 618:	0000968c 	andeq	r9, r0, ip, lsl #13
 61c:	00000010 	andeq	r0, r0, r0, lsl r0
 620:	0000000c 	andeq	r0, r0, ip
 624:	000005f0 	strdeq	r0, [r0], -r0	; <UNPREDICTABLE>
 628:	0000969c 	muleq	r0, ip, r6
 62c:	00000010 	andeq	r0, r0, r0, lsl r0
 630:	0000001c 	andeq	r0, r0, ip, lsl r0
 634:	000005f0 	strdeq	r0, [r0], -r0	; <UNPREDICTABLE>
 638:	000096ac 	andeq	r9, r0, ip, lsr #13
 63c:	0000009c 	muleq	r0, ip, r0
 640:	8e040e42 	cdphi	14, 0, cr0, cr4, cr2, {2}
 644:	100e4201 	andne	r4, lr, r1, lsl #4
 648:	040e0a58 	streq	r0, [lr], #-2648	; 0xfffff5a8
 64c:	00000b42 	andeq	r0, r0, r2, asr #22
 650:	00000014 	andeq	r0, r0, r4, lsl r0
 654:	000005f0 	strdeq	r0, [r0], -r0	; <UNPREDICTABLE>
 658:	00009748 	andeq	r9, r0, r8, asr #14
 65c:	00000058 	andeq	r0, r0, r8, asr r0
 660:	84080e42 	strhi	r0, [r8], #-3650	; 0xfffff1be
 664:	00018e02 	andeq	r8, r1, r2, lsl #28
 668:	0000001c 	andeq	r0, r0, ip, lsl r0
 66c:	000005f0 	strdeq	r0, [r0], -r0	; <UNPREDICTABLE>
 670:	000097a0 	andeq	r9, r0, r0, lsr #15
 674:	00000098 	muleq	r0, r8, r0
 678:	8e040e42 	cdphi	14, 0, cr0, cr4, cr2, {2}
 67c:	100e4201 	andne	r4, lr, r1, lsl #4
 680:	040e0a58 	streq	r0, [lr], #-2648	; 0xfffff5a8
 684:	00000b42 	andeq	r0, r0, r2, asr #22
 688:	00000020 	andeq	r0, r0, r0, lsr #32
 68c:	000005f0 	strdeq	r0, [r0], -r0	; <UNPREDICTABLE>
 690:	00009838 	andeq	r9, r0, r8, lsr r8
 694:	00000064 	andeq	r0, r0, r4, rrx
 698:	840c0e42 	strhi	r0, [ip], #-3650	; 0xfffff1be
 69c:	8e028503 	cfsh32hi	mvfx8, mvfx2, #3
 6a0:	180e4201 	stmdane	lr, {r0, r9, lr}
 6a4:	0c0e0a54 			; <UNDEFINED> instruction: 0x0c0e0a54
 6a8:	00000b42 	andeq	r0, r0, r2, asr #22
 6ac:	0000001c 	andeq	r0, r0, ip, lsl r0
 6b0:	000005f0 	strdeq	r0, [r0], -r0	; <UNPREDICTABLE>
 6b4:	0000989c 	muleq	r0, ip, r8
 6b8:	00000118 	andeq	r0, r0, r8, lsl r1
 6bc:	8e040e42 	cdphi	14, 0, cr0, cr4, cr2, {2}
 6c0:	100e4201 	andne	r4, lr, r1, lsl #4
 6c4:	040e0a6c 	streq	r0, [lr], #-2668	; 0xfffff594
 6c8:	00000b42 	andeq	r0, r0, r2, asr #22
 6cc:	0000000c 	andeq	r0, r0, ip
 6d0:	000005f0 	strdeq	r0, [r0], -r0	; <UNPREDICTABLE>
 6d4:	000099b4 			; <UNDEFINED> instruction: 0x000099b4
 6d8:	00000004 	andeq	r0, r0, r4
 6dc:	0000000c 	andeq	r0, r0, ip
 6e0:	000005f0 	strdeq	r0, [r0], -r0	; <UNPREDICTABLE>
 6e4:	000099b8 			; <UNDEFINED> instruction: 0x000099b8
 6e8:	00000014 	andeq	r0, r0, r4, lsl r0
 6ec:	00000014 	andeq	r0, r0, r4, lsl r0
 6f0:	000005f0 	strdeq	r0, [r0], -r0	; <UNPREDICTABLE>
 6f4:	000099cc 	andeq	r9, r0, ip, asr #19
 6f8:	00000060 	andeq	r0, r0, r0, rrx
 6fc:	8e040e58 	mcrhi	14, 0, r0, cr4, cr8, {2}
 700:	100e4201 	andne	r4, lr, r1, lsl #4
 704:	0000000c 	andeq	r0, r0, ip
 708:	ffffffff 			; <UNDEFINED> instruction: 0xffffffff
 70c:	7c020001 	stcvc	0, cr0, [r2], {1}
 710:	000d0c0e 	andeq	r0, sp, lr, lsl #24
 714:	00000020 	andeq	r0, r0, r0, lsr #32
 718:	00000704 	andeq	r0, r0, r4, lsl #14
 71c:	00009a2c 	andeq	r9, r0, ip, lsr #20
 720:	00000060 	andeq	r0, r0, r0, rrx
 724:	84100e48 	ldrhi	r0, [r0], #-3656	; 0xfffff1b8
 728:	86038504 	strhi	r8, [r3], -r4, lsl #10
 72c:	64018e02 	strvs	r8, [r1], #-3586	; 0xfffff1fe
 730:	c4c5c6ce 	strbgt	ip, [r5], #1742	; 0x6ce
 734:	0000000e 	andeq	r0, r0, lr
 738:	00000020 	andeq	r0, r0, r0, lsr #32
 73c:	00000704 	andeq	r0, r0, r4, lsl #14
 740:	00009a8c 	andeq	r9, r0, ip, lsl #21
 744:	00000058 	andeq	r0, r0, r8, asr r0
 748:	84100e46 	ldrhi	r0, [r0], #-3654	; 0xfffff1ba
 74c:	86038504 	strhi	r8, [r3], -r4, lsl #10
 750:	62018e02 	andvs	r8, r1, #2, 28
 754:	c4c5c6ce 	strbgt	ip, [r5], #1742	; 0x6ce
 758:	0000000e 	andeq	r0, r0, lr
 75c:	0000000c 	andeq	r0, r0, ip
 760:	00000704 	andeq	r0, r0, r4, lsl #14
 764:	00009ae4 	andeq	r9, r0, r4, ror #21
 768:	00000018 	andeq	r0, r0, r8, lsl r0
 76c:	0000000c 	andeq	r0, r0, ip
 770:	00000704 	andeq	r0, r0, r4, lsl #14
 774:	00009afc 	strdeq	r9, [r0], -ip
 778:	00000018 	andeq	r0, r0, r8, lsl r0
 77c:	00000020 	andeq	r0, r0, r0, lsr #32
 780:	00000704 	andeq	r0, r0, r4, lsl #14
 784:	00009b14 	andeq	r9, r0, r4, lsl fp
 788:	00000058 	andeq	r0, r0, r8, asr r0
 78c:	84100e46 	ldrhi	r0, [r0], #-3654	; 0xfffff1ba
 790:	86038504 	strhi	r8, [r3], -r4, lsl #10
 794:	62018e02 	andvs	r8, r1, #2, 28
 798:	c4c5c6ce 	strbgt	ip, [r5], #1742	; 0x6ce
 79c:	0000000e 	andeq	r0, r0, lr
 7a0:	0000000c 	andeq	r0, r0, ip
 7a4:	00000704 	andeq	r0, r0, r4, lsl #14
 7a8:	00009b6c 	andeq	r9, r0, ip, ror #22
 7ac:	00000030 	andeq	r0, r0, r0, lsr r0
 7b0:	00000014 	andeq	r0, r0, r4, lsl r0
 7b4:	00000704 	andeq	r0, r0, r4, lsl #14
 7b8:	00009b9c 	muleq	r0, ip, fp
 7bc:	00000028 	andeq	r0, r0, r8, lsr #32
 7c0:	84080e42 	strhi	r0, [r8], #-3650	; 0xfffff1be
 7c4:	00018e02 	andeq	r8, r1, r2, lsl #28
 7c8:	0000000c 	andeq	r0, r0, ip
 7cc:	ffffffff 			; <UNDEFINED> instruction: 0xffffffff
 7d0:	7c020001 	stcvc	0, cr0, [r2], {1}
 7d4:	000d0c0e 	andeq	r0, sp, lr, lsl #24
 7d8:	00000014 	andeq	r0, r0, r4, lsl r0
 7dc:	000007c8 	andeq	r0, r0, r8, asr #15
 7e0:	00009bc4 	andeq	r9, r0, r4, asr #23
 7e4:	00000014 	andeq	r0, r0, r4, lsl r0
 7e8:	84080e42 	strhi	r0, [r8], #-3650	; 0xfffff1be
 7ec:	00018e02 	andeq	r8, r1, r2, lsl #28
 7f0:	0000000c 	andeq	r0, r0, ip
 7f4:	000007c8 	andeq	r0, r0, r8, asr #15
 7f8:	00009bd8 	ldrdeq	r9, [r0], -r8
 7fc:	00000018 	andeq	r0, r0, r8, lsl r0
 800:	0000000c 	andeq	r0, r0, ip
 804:	000007c8 	andeq	r0, r0, r8, asr #15
 808:	00009bf0 	strdeq	r9, [r0], -r0
 80c:	00000010 	andeq	r0, r0, r0, lsl r0
 810:	0000000c 	andeq	r0, r0, ip
 814:	ffffffff 			; <UNDEFINED> instruction: 0xffffffff
 818:	7c020001 	stcvc	0, cr0, [r2], {1}
 81c:	000d0c0e 	andeq	r0, sp, lr, lsl #24
 820:	0000000c 	andeq	r0, r0, ip
 824:	00000810 	andeq	r0, r0, r0, lsl r8
 828:	00009c00 	andeq	r9, r0, r0, lsl #24
 82c:	0000002c 	andeq	r0, r0, ip, lsr #32
 830:	0000000c 	andeq	r0, r0, ip
 834:	ffffffff 			; <UNDEFINED> instruction: 0xffffffff
 838:	7c020001 	stcvc	0, cr0, [r2], {1}
 83c:	000d0c0e 	andeq	r0, sp, lr, lsl #24
 840:	0000000c 	andeq	r0, r0, ip
 844:	00000830 	andeq	r0, r0, r0, lsr r8
 848:	00009c2c 	andeq	r9, r0, ip, lsr #24
 84c:	00000044 	andeq	r0, r0, r4, asr #32
 850:	0000000c 	andeq	r0, r0, ip
 854:	ffffffff 			; <UNDEFINED> instruction: 0xffffffff
 858:	7c020001 	stcvc	0, cr0, [r2], {1}
 85c:	000d0c0e 	andeq	r0, sp, lr, lsl #24
 860:	0000000c 	andeq	r0, r0, ip
 864:	00000850 	andeq	r0, r0, r0, asr r8
 868:	00009c70 	andeq	r9, r0, r0, ror ip
 86c:	00000018 	andeq	r0, r0, r8, lsl r0
 870:	0000000c 	andeq	r0, r0, ip
 874:	ffffffff 			; <UNDEFINED> instruction: 0xffffffff
 878:	7c020001 	stcvc	0, cr0, [r2], {1}
 87c:	000d0c0e 	andeq	r0, sp, lr, lsl #24
 880:	0000000c 	andeq	r0, r0, ip
 884:	00000870 	andeq	r0, r0, r0, ror r8
 888:	00009c88 	andeq	r9, r0, r8, lsl #25
 88c:	00000030 	andeq	r0, r0, r0, lsr r0
 890:	0000000c 	andeq	r0, r0, ip
 894:	ffffffff 			; <UNDEFINED> instruction: 0xffffffff
 898:	7c020001 	stcvc	0, cr0, [r2], {1}
 89c:	000d0c0e 	andeq	r0, sp, lr, lsl #24
 8a0:	0000000c 	andeq	r0, r0, ip
 8a4:	00000890 	muleq	r0, r0, r8
 8a8:	00009cb8 			; <UNDEFINED> instruction: 0x00009cb8
 8ac:	00000004 	andeq	r0, r0, r4

Disassembly of section .debug_ranges:

00000000 <.debug_ranges>:
   0:	000000a4 	andeq	r0, r0, r4, lsr #1
   4:	00000148 	andeq	r0, r0, r8, asr #2
   8:	00000158 	andeq	r0, r0, r8, asr r1
   c:	0000015c 	andeq	r0, r0, ip, asr r1
  10:	00000274 	andeq	r0, r0, r4, ror r2
  14:	00000278 	andeq	r0, r0, r8, ror r2
  18:	0000027c 	andeq	r0, r0, ip, ror r2
  1c:	00000280 	andeq	r0, r0, r0, lsl #5
  20:	00000288 	andeq	r0, r0, r8, lsl #5
  24:	0000029c 	muleq	r0, ip, r2
  28:	000002c0 	andeq	r0, r0, r0, asr #5
  2c:	000002cc 	andeq	r0, r0, ip, asr #5
  30:	000002f0 	strdeq	r0, [r0], -r0	; <UNPREDICTABLE>
  34:	000002f0 	strdeq	r0, [r0], -r0	; <UNPREDICTABLE>
  38:	000002f4 	strdeq	r0, [r0], -r4
  3c:	000002f8 	strdeq	r0, [r0], -r8
	...
  48:	00000148 	andeq	r0, r0, r8, asr #2
  4c:	00000158 	andeq	r0, r0, r8, asr r1
  50:	0000015c 	andeq	r0, r0, ip, asr r1
  54:	0000018c 	andeq	r0, r0, ip, lsl #3
  58:	0000029c 	muleq	r0, ip, r2
  5c:	000002ac 	andeq	r0, r0, ip, lsr #5
	...
  68:	000003c8 	andeq	r0, r0, r8, asr #7
  6c:	000003d0 	ldrdeq	r0, [r0], -r0	; <UNPREDICTABLE>
  70:	00000404 	andeq	r0, r0, r4, lsl #8
  74:	000004ac 	andeq	r0, r0, ip, lsr #9
  78:	000004c0 	andeq	r0, r0, r0, asr #9
  7c:	00000920 	andeq	r0, r0, r0, lsr #18
  80:	00000928 	andeq	r0, r0, r8, lsr #18
  84:	000009b4 			; <UNDEFINED> instruction: 0x000009b4
	...
  90:	000003c8 	andeq	r0, r0, r8, asr #7
  94:	000003d0 	ldrdeq	r0, [r0], -r0	; <UNPREDICTABLE>
  98:	00000504 	andeq	r0, r0, r4, lsl #10
  9c:	000005d0 	ldrdeq	r0, [r0], -r0	; <UNPREDICTABLE>
  a0:	00000800 	andeq	r0, r0, r0, lsl #16
  a4:	00000888 	andeq	r0, r0, r8, lsl #17
  a8:	00000930 	andeq	r0, r0, r0, lsr r9
  ac:	000009b4 			; <UNDEFINED> instruction: 0x000009b4
	...
  b8:	00000404 	andeq	r0, r0, r4, lsl #8
  bc:	00000408 	andeq	r0, r0, r8, lsl #8
  c0:	00000414 	andeq	r0, r0, r4, lsl r4
  c4:	00000414 	andeq	r0, r0, r4, lsl r4
  c8:	00000428 	andeq	r0, r0, r8, lsr #8
  cc:	0000042c 	andeq	r0, r0, ip, lsr #8
	...
  d8:	000005fc 	strdeq	r0, [r0], -ip
  dc:	00000700 	andeq	r0, r0, r0, lsl #14
  e0:	000007ec 	andeq	r0, r0, ip, ror #15
  e4:	000007f4 	strdeq	r0, [r0], -r4
  e8:	00000888 	andeq	r0, r0, r8, lsl #17
  ec:	00000894 	muleq	r0, r4, r8
  f0:	000008a8 	andeq	r0, r0, r8, lsr #17
  f4:	000008bc 			; <UNDEFINED> instruction: 0x000008bc
  f8:	00000910 	andeq	r0, r0, r0, lsl r9
  fc:	00000920 	andeq	r0, r0, r0, lsr #18
	...
 108:	00000600 	andeq	r0, r0, r0, lsl #12
 10c:	00000604 	andeq	r0, r0, r4, lsl #12
 110:	00000608 	andeq	r0, r0, r8, lsl #12
 114:	000006b4 			; <UNDEFINED> instruction: 0x000006b4
 118:	000006cc 	andeq	r0, r0, ip, asr #13
 11c:	000006d0 	ldrdeq	r0, [r0], -r0	; <UNPREDICTABLE>
 120:	000008a8 	andeq	r0, r0, r8, lsr #17
 124:	000008b8 			; <UNDEFINED> instruction: 0x000008b8
 128:	00000910 	andeq	r0, r0, r0, lsl r9
 12c:	00000920 	andeq	r0, r0, r0, lsr #18
	...
 138:	000006b4 			; <UNDEFINED> instruction: 0x000006b4
 13c:	000006cc 	andeq	r0, r0, ip, asr #13
 140:	000006d0 	ldrdeq	r0, [r0], -r0	; <UNPREDICTABLE>
 144:	00000700 	andeq	r0, r0, r0, lsl #14
 148:	000007ec 	andeq	r0, r0, ip, ror #15
 14c:	000007f4 	strdeq	r0, [r0], -r4
 150:	00000888 	andeq	r0, r0, r8, lsl #17
 154:	00000894 	muleq	r0, r4, r8
 158:	000008b8 			; <UNDEFINED> instruction: 0x000008b8
 15c:	000008bc 			; <UNDEFINED> instruction: 0x000008bc
	...
 168:	00000700 	andeq	r0, r0, r0, lsl #14
 16c:	00000708 	andeq	r0, r0, r8, lsl #14
 170:	0000070c 	andeq	r0, r0, ip, lsl #14
 174:	000007ec 	andeq	r0, r0, ip, ror #15
 178:	00000894 	muleq	r0, r4, r8
 17c:	000008a8 	andeq	r0, r0, r8, lsr #17
	...
 188:	00000728 	andeq	r0, r0, r8, lsr #14
 18c:	000007a4 	andeq	r0, r0, r4, lsr #15
 190:	000007ac 	andeq	r0, r0, ip, lsr #15
 194:	000007b0 			; <UNDEFINED> instruction: 0x000007b0
 198:	00000894 	muleq	r0, r4, r8
 19c:	00000898 	muleq	r0, r8, r8
 1a0:	0000089c 	muleq	r0, ip, r8
 1a4:	000008a0 	andeq	r0, r0, r0, lsr #17
	...
 1b0:	000007a4 	andeq	r0, r0, r4, lsr #15
 1b4:	000007ac 	andeq	r0, r0, ip, lsr #15
 1b8:	000007b0 			; <UNDEFINED> instruction: 0x000007b0
 1bc:	000007ec 	andeq	r0, r0, ip, ror #15
 1c0:	00000898 	muleq	r0, r8, r8
 1c4:	0000089c 	muleq	r0, ip, r8
 1c8:	000008a0 	andeq	r0, r0, r0, lsr #17
 1cc:	000008a8 	andeq	r0, r0, r8, lsr #17
	...
 1d8:	00009310 	andeq	r9, r0, r0, lsl r3
 1dc:	00009310 	andeq	r9, r0, r0, lsl r3
 1e0:	00009314 	andeq	r9, r0, r4, lsl r3
 1e4:	0000931c 	andeq	r9, r0, ip, lsl r3
	...
 1f0:	000092e4 	andeq	r9, r0, r4, ror #5
 1f4:	00009370 	andeq	r9, r0, r0, ror r3
	...
 200:	00000030 	andeq	r0, r0, r0, lsr r0
 204:	00000030 	andeq	r0, r0, r0, lsr r0
 208:	00000038 	andeq	r0, r0, r8, lsr r0
 20c:	0000004c 	andeq	r0, r0, ip, asr #32
	...
 218:	0000004c 	andeq	r0, r0, ip, asr #32
 21c:	00000050 	andeq	r0, r0, r0, asr r0
 220:	00000050 	andeq	r0, r0, r0, asr r0
 224:	00000078 	andeq	r0, r0, r8, ror r0
	...
 230:	0000004c 	andeq	r0, r0, ip, asr #32
 234:	00000050 	andeq	r0, r0, r0, asr r0
 238:	00000050 	andeq	r0, r0, r0, asr r0
 23c:	00000060 	andeq	r0, r0, r0, rrx
 240:	00000064 	andeq	r0, r0, r4, rrx
 244:	00000068 	andeq	r0, r0, r8, rrx
	...
 250:	0000004c 	andeq	r0, r0, ip, asr #32
 254:	00000050 	andeq	r0, r0, r0, asr r0
 258:	00000054 	andeq	r0, r0, r4, asr r0
 25c:	00000060 	andeq	r0, r0, r0, rrx
	...
 268:	0000009c 	muleq	r0, ip, r0
 26c:	000000a0 	andeq	r0, r0, r0, lsr #1
 270:	000000a0 	andeq	r0, r0, r0, lsr #1
 274:	000000c8 	andeq	r0, r0, r8, asr #1
	...
 280:	0000009c 	muleq	r0, ip, r0
 284:	000000a0 	andeq	r0, r0, r0, lsr #1
 288:	000000a0 	andeq	r0, r0, r0, lsr #1
 28c:	000000b0 	strheq	r0, [r0], -r0	; <UNPREDICTABLE>
 290:	000000b4 	strheq	r0, [r0], -r4
 294:	000000b8 	strheq	r0, [r0], -r8
	...
 2a0:	0000009c 	muleq	r0, ip, r0
 2a4:	000000a0 	andeq	r0, r0, r0, lsr #1
 2a8:	000000a4 	andeq	r0, r0, r4, lsr #1
 2ac:	000000b0 	strheq	r0, [r0], -r0	; <UNPREDICTABLE>
	...
 2b8:	000000c8 	andeq	r0, r0, r8, asr #1
 2bc:	000000c8 	andeq	r0, r0, r8, asr #1
 2c0:	000000cc 	andeq	r0, r0, ip, asr #1
 2c4:	0000011c 	andeq	r0, r0, ip, lsl r1
	...
 2d0:	000000f0 	strdeq	r0, [r0], -r0	; <UNPREDICTABLE>
 2d4:	000000f4 	strdeq	r0, [r0], -r4
 2d8:	000000f4 	strdeq	r0, [r0], -r4
 2dc:	0000011c 	andeq	r0, r0, ip, lsl r1
	...
 2e8:	000000f0 	strdeq	r0, [r0], -r0	; <UNPREDICTABLE>
 2ec:	000000f4 	strdeq	r0, [r0], -r4
 2f0:	000000f4 	strdeq	r0, [r0], -r4
 2f4:	00000104 	andeq	r0, r0, r4, lsl #2
 2f8:	00000108 	andeq	r0, r0, r8, lsl #2
 2fc:	0000010c 	andeq	r0, r0, ip, lsl #2
	...
 308:	000000f0 	strdeq	r0, [r0], -r0	; <UNPREDICTABLE>
 30c:	000000f4 	strdeq	r0, [r0], -r4
 310:	000000f8 	strdeq	r0, [r0], -r8
 314:	00000104 	andeq	r0, r0, r4, lsl #2
	...
 320:	00000134 	andeq	r0, r0, r4, lsr r1
 324:	00000134 	andeq	r0, r0, r4, lsr r1
 328:	00000134 	andeq	r0, r0, r4, lsr r1
 32c:	0000013c 	andeq	r0, r0, ip, lsr r1
	...
 338:	0000024c 	andeq	r0, r0, ip, asr #4
 33c:	00000264 	andeq	r0, r0, r4, ror #4
 340:	000002c8 	andeq	r0, r0, r8, asr #5
 344:	000002e8 	andeq	r0, r0, r8, ror #5
	...
 350:	00000008 	andeq	r0, r0, r8
 354:	0000000c 	andeq	r0, r0, ip
 358:	00000014 	andeq	r0, r0, r4, lsl r0
 35c:	00000054 	andeq	r0, r0, r4, asr r0
 360:	00000058 	andeq	r0, r0, r8, asr r0
 364:	00000060 	andeq	r0, r0, r0, rrx
	...
 370:	00000060 	andeq	r0, r0, r0, rrx
 374:	00000068 	andeq	r0, r0, r8, rrx
 378:	0000006c 	andeq	r0, r0, ip, rrx
 37c:	000000ac 	andeq	r0, r0, ip, lsr #1
 380:	000000b0 	strheq	r0, [r0], -r0	; <UNPREDICTABLE>
 384:	000000b8 	strheq	r0, [r0], -r8
	...
 390:	00000068 	andeq	r0, r0, r8, rrx
 394:	00000068 	andeq	r0, r0, r8, rrx
 398:	0000006c 	andeq	r0, r0, ip, rrx
 39c:	000000ac 	andeq	r0, r0, ip, lsr #1
 3a0:	000000b0 	strheq	r0, [r0], -r0	; <UNPREDICTABLE>
 3a4:	000000b8 	strheq	r0, [r0], -r8
	...
 3b0:	000000e8 	andeq	r0, r0, r8, ror #1
 3b4:	000000f0 	strdeq	r0, [r0], -r0	; <UNPREDICTABLE>
 3b8:	000000f4 	strdeq	r0, [r0], -r4
 3bc:	00000134 	andeq	r0, r0, r4, lsr r1
 3c0:	00000138 	andeq	r0, r0, r8, lsr r1
 3c4:	00000140 	andeq	r0, r0, r0, asr #2
	...
 3d0:	000000f0 	strdeq	r0, [r0], -r0	; <UNPREDICTABLE>
 3d4:	000000f0 	strdeq	r0, [r0], -r0	; <UNPREDICTABLE>
 3d8:	000000f4 	strdeq	r0, [r0], -r4
 3dc:	00000134 	andeq	r0, r0, r4, lsr r1
 3e0:	00000138 	andeq	r0, r0, r8, lsr r1
 3e4:	00000140 	andeq	r0, r0, r0, asr #2
	...
 3f0:	00000144 	andeq	r0, r0, r4, asr #2
 3f4:	00000148 	andeq	r0, r0, r8, asr #2
 3f8:	00000150 	andeq	r0, r0, r0, asr r1
 3fc:	0000015c 	andeq	r0, r0, ip, asr r1
	...
