
tests/part2-test1.elf:     file format elf32-littlearm


Disassembly of section .text:

00008000 <__code_start__>:
    8000:	e3a00013 	mov	r0, #19, 0
    8004:	e3800080 	orr	r0, r0, #128, 0	; 0x80
    8008:	e129f000 	msr	CPSR_fc, r0
    800c:	e3a01000 	mov	r1, #0, 0
    8010:	ee071f95 	mcr	15, 0, r1, cr7, cr5, {4}
    8014:	e3a0d302 	mov	sp, #134217728	; 0x8000000
    8018:	e3a0b000 	mov	fp, #0, 0
    801c:	eb00047b 	bl	9210 <_cstart>
    8020:	eb0004c4 	bl	9338 <rpi_reboot>

00008024 <PUT32>:
    8024:	e5801000 	str	r1, [r0]
    8028:	e12fff1e 	bx	lr

0000802c <GET32>:
    802c:	e5900000 	ldr	r0, [r0]
    8030:	e12fff1e 	bx	lr

00008034 <BRANCHTO>:
    8034:	e12fff10 	bx	r0

00008038 <test1>:
    8038:	e92d4070 	push	{r4, r5, r6, lr}
    803c:	e24dd018 	sub	sp, sp, #24, 0
    8040:	e59f6070 	ldr	r6, [pc, #112]	; 80b8 <test1+0x80>
    8044:	e58d6000 	str	r6, [sp]
    8048:	e59f506c 	ldr	r5, [pc, #108]	; 80bc <test1+0x84>
    804c:	e58d5004 	str	r5, [sp, #4]
    8050:	e3a03009 	mov	r3, #9, 0
    8054:	e58d3008 	str	r3, [sp, #8]
    8058:	e1a0300d 	mov	r3, sp
    805c:	e893000e 	ldm	r3, {r1, r2, r3}
    8060:	e3a00004 	mov	r0, #4, 0
    8064:	eb0000c9 	bl	8390 <ckalloc>
    8068:	e1a04000 	mov	r4, r0
    806c:	e59f004c 	ldr	r0, [pc, #76]	; 80c0 <test1+0x88>
    8070:	eb0001ca 	bl	87a0 <printk>
    8074:	e1a01004 	mov	r1, r4
    8078:	e59f0044 	ldr	r0, [pc, #68]	; 80c4 <test1+0x8c>
    807c:	eb0001c7 	bl	87a0 <printk>
    8080:	e3a02004 	mov	r2, #4, 0
    8084:	e3a01000 	mov	r1, #0, 0
    8088:	e1a00004 	mov	r0, r4
    808c:	eb0001a5 	bl	8728 <memset>
    8090:	e58d600c 	str	r6, [sp, #12]
    8094:	e58d5010 	str	r5, [sp, #16]
    8098:	e3a0300c 	mov	r3, #12, 0
    809c:	e58d3014 	str	r3, [sp, #20]
    80a0:	e28d3018 	add	r3, sp, #24, 0
    80a4:	e913000e 	ldmdb	r3, {r1, r2, r3}
    80a8:	e1a00004 	mov	r0, r4
    80ac:	eb00007c 	bl	82a4 <ckfree>
    80b0:	e28dd018 	add	sp, sp, #24, 0
    80b4:	e8bd8070 	pop	{r4, r5, r6, pc}
    80b8:	00009d00 	andeq	r9, r0, r0, lsl #26
    80bc:	00009d78 	andeq	r9, r0, r8, ror sp
    80c0:	00009d14 	andeq	r9, r0, r4, lsl sp
    80c4:	00009d1c 	andeq	r9, r0, ip, lsl sp

000080c8 <notmain>:
    80c8:	e92d4010 	push	{r4, lr}
    80cc:	e59f0040 	ldr	r0, [pc, #64]	; 8114 <notmain+0x4c>
    80d0:	eb0001b2 	bl	87a0 <printk>
    80d4:	ebffffd7 	bl	8038 <test1>
    80d8:	e3a00001 	mov	r0, #1, 0
    80dc:	eb00017b 	bl	86d0 <ck_find_leaks>
    80e0:	e3500000 	cmp	r0, #0, 0
    80e4:	1a000004 	bne	80fc <notmain+0x34>
    80e8:	e59f0028 	ldr	r0, [pc, #40]	; 8118 <notmain+0x50>
    80ec:	eb0001ab 	bl	87a0 <printk>
    80f0:	e59f0024 	ldr	r0, [pc, #36]	; 811c <notmain+0x54>
    80f4:	eb0001a9 	bl	87a0 <printk>
    80f8:	e8bd8010 	pop	{r4, pc}
    80fc:	e3a0301f 	mov	r3, #31, 0
    8100:	e59f2018 	ldr	r2, [pc, #24]	; 8120 <notmain+0x58>
    8104:	e59f1018 	ldr	r1, [pc, #24]	; 8124 <notmain+0x5c>
    8108:	e59f0018 	ldr	r0, [pc, #24]	; 8128 <notmain+0x60>
    810c:	eb0001a3 	bl	87a0 <printk>
    8110:	eb000433 	bl	91e4 <clean_reboot>
    8114:	00009d30 	andeq	r9, r0, r0, lsr sp
    8118:	00009d14 	andeq	r9, r0, r4, lsl sp
    811c:	00009d64 	andeq	r9, r0, r4, ror #26
    8120:	00009d80 	andeq	r9, r0, r0, lsl #27
    8124:	00009d00 	andeq	r9, r0, r0, lsl #26
    8128:	00009d3c 	andeq	r9, r0, ip, lsr sp

0000812c <ck_first_hdr>:
    812c:	e59f3004 	ldr	r3, [pc, #4]	; 8138 <ck_first_hdr+0xc>
    8130:	e5930000 	ldr	r0, [r3]
    8134:	e12fff1e 	bx	lr
    8138:	0000a2b8 			; <UNDEFINED> instruction: 0x0000a2b8

0000813c <ck_next_hdr>:
    813c:	e3500000 	cmp	r0, #0, 0
    8140:	012fff1e 	bxeq	lr
    8144:	e5900000 	ldr	r0, [r0]
    8148:	e12fff1e 	bx	lr

0000814c <list_remove>:
    814c:	e92d4030 	push	{r4, r5, lr}
    8150:	e24dd00c 	sub	sp, sp, #12, 0
    8154:	e2503000 	subs	r3, r0, #0, 0
    8158:	0a00000d 	beq	8194 <list_remove+0x48>
    815c:	e1a04001 	mov	r4, r1
    8160:	e5930000 	ldr	r0, [r3]
    8164:	e1500001 	cmp	r0, r1
    8168:	0a000011 	beq	81b4 <list_remove+0x68>
    816c:	e1a05000 	mov	r5, r0
    8170:	ebfffff1 	bl	813c <ck_next_hdr>
    8174:	e3500000 	cmp	r0, #0, 0
    8178:	0a000010 	beq	81c0 <list_remove+0x74>
    817c:	e1540000 	cmp	r4, r0
    8180:	1afffff9 	bne	816c <list_remove+0x20>
    8184:	e5903000 	ldr	r3, [r0]
    8188:	e5853000 	str	r3, [r5]
    818c:	e28dd00c 	add	sp, sp, #12, 0
    8190:	e8bd8030 	pop	{r4, r5, pc}
    8194:	e59f3040 	ldr	r3, [pc, #64]	; 81dc <list_remove+0x90>
    8198:	e58d3000 	str	r3, [sp]
    819c:	e3a0303a 	mov	r3, #58, 0	; 0x3a
    81a0:	e59f2038 	ldr	r2, [pc, #56]	; 81e0 <list_remove+0x94>
    81a4:	e59f1038 	ldr	r1, [pc, #56]	; 81e4 <list_remove+0x98>
    81a8:	e59f0038 	ldr	r0, [pc, #56]	; 81e8 <list_remove+0x9c>
    81ac:	eb00017b 	bl	87a0 <printk>
    81b0:	eb00040b 	bl	91e4 <clean_reboot>
    81b4:	e5912000 	ldr	r2, [r1]
    81b8:	e5832000 	str	r2, [r3]
    81bc:	eafffff2 	b	818c <list_remove+0x40>
    81c0:	e58d4000 	str	r4, [sp]
    81c4:	e3a0304d 	mov	r3, #77, 0	; 0x4d
    81c8:	e59f2010 	ldr	r2, [pc, #16]	; 81e0 <list_remove+0x94>
    81cc:	e59f1010 	ldr	r1, [pc, #16]	; 81e4 <list_remove+0x98>
    81d0:	e59f0014 	ldr	r0, [pc, #20]	; 81ec <list_remove+0xa0>
    81d4:	eb000171 	bl	87a0 <printk>
    81d8:	eb000401 	bl	91e4 <clean_reboot>
    81dc:	00009da8 	andeq	r9, r0, r8, lsr #27
    81e0:	00009e6c 	andeq	r9, r0, ip, ror #28
    81e4:	00009d88 	andeq	r9, r0, r8, lsl #27
    81e8:	00009d94 	muleq	r0, r4, sp
    81ec:	00009dac 	andeq	r9, r0, ip, lsr #27

000081f0 <ck_hdr_start>:
    81f0:	e2800024 	add	r0, r0, #36, 0	; 0x24
    81f4:	e12fff1e 	bx	lr

000081f8 <ck_hdr_end>:
    81f8:	e92d4010 	push	{r4, lr}
    81fc:	e1a04000 	mov	r4, r0
    8200:	ebfffffa 	bl	81f0 <ck_hdr_start>
    8204:	e5943004 	ldr	r3, [r4, #4]
    8208:	e0800003 	add	r0, r0, r3
    820c:	e8bd8010 	pop	{r4, pc}

00008210 <ck_ptr_in_block>:
    8210:	e1510000 	cmp	r1, r0
    8214:	3a000008 	bcc	823c <ck_ptr_in_block+0x2c>
    8218:	e5903004 	ldr	r3, [r0, #4]
    821c:	e0833183 	add	r3, r3, r3, lsl #3
    8220:	e1a03103 	lsl	r3, r3, #2
    8224:	e2833090 	add	r3, r3, #144, 0	; 0x90
    8228:	e0800003 	add	r0, r0, r3
    822c:	e1500001 	cmp	r0, r1
    8230:	2a000003 	bcs	8244 <ck_ptr_in_block+0x34>
    8234:	e3a00000 	mov	r0, #0, 0
    8238:	e12fff1e 	bx	lr
    823c:	e3a00000 	mov	r0, #0, 0
    8240:	e12fff1e 	bx	lr
    8244:	e3a00001 	mov	r0, #1, 0
    8248:	e12fff1e 	bx	lr

0000824c <ck_ptr_is_alloced>:
    824c:	e92d4070 	push	{r4, r5, r6, lr}
    8250:	e1a05000 	mov	r5, r0
    8254:	ebffffb4 	bl	812c <ck_first_hdr>
    8258:	e1a04000 	mov	r4, r0
    825c:	e3540000 	cmp	r4, #0, 0
    8260:	0a00000c 	beq	8298 <ck_ptr_is_alloced+0x4c>
    8264:	e1a01005 	mov	r1, r5
    8268:	e1a00004 	mov	r0, r4
    826c:	ebffffe7 	bl	8210 <ck_ptr_in_block>
    8270:	e3500000 	cmp	r0, #0, 0
    8274:	1a000003 	bne	8288 <ck_ptr_is_alloced+0x3c>
    8278:	e1a00004 	mov	r0, r4
    827c:	ebffffae 	bl	813c <ck_next_hdr>
    8280:	e1a04000 	mov	r4, r0
    8284:	eafffff4 	b	825c <ck_ptr_is_alloced+0x10>
    8288:	e1a02004 	mov	r2, r4
    828c:	e1a01005 	mov	r1, r5
    8290:	e59f0008 	ldr	r0, [pc, #8]	; 82a0 <ck_ptr_is_alloced+0x54>
    8294:	eb000141 	bl	87a0 <printk>
    8298:	e1a00004 	mov	r0, r4
    829c:	e8bd8070 	pop	{r4, r5, r6, pc}
    82a0:	00009dd8 	ldrdeq	r9, [r0], -r8

000082a4 <ckfree>:
    82a4:	e92d41f0 	push	{r4, r5, r6, r7, r8, lr}
    82a8:	e24dd018 	sub	sp, sp, #24, 0
    82ac:	e1a04000 	mov	r4, r0
    82b0:	e28d0018 	add	r0, sp, #24, 0
    82b4:	e900000e 	stmdb	r0, {r1, r2, r3}
    82b8:	e59d600c 	ldr	r6, [sp, #12]
    82bc:	e59d7010 	ldr	r7, [sp, #16]
    82c0:	e59d8014 	ldr	r8, [sp, #20]
    82c4:	e1a03008 	mov	r3, r8
    82c8:	e1a02007 	mov	r2, r7
    82cc:	e1a01006 	mov	r1, r6
    82d0:	e59f0094 	ldr	r0, [pc, #148]	; 836c <ckfree+0xc8>
    82d4:	eb000131 	bl	87a0 <printk>
    82d8:	e1a01004 	mov	r1, r4
    82dc:	e59f008c 	ldr	r0, [pc, #140]	; 8370 <ckfree+0xcc>
    82e0:	eb00012e 	bl	87a0 <printk>
    82e4:	e514301c 	ldr	r3, [r4, #-28]	; 0xffffffe4
    82e8:	e353000b 	cmp	r3, #11, 0
    82ec:	1a00000d 	bne	8328 <ckfree+0x84>
    82f0:	e2445024 	sub	r5, r4, #36, 0	; 0x24
    82f4:	e3a0300c 	mov	r3, #12, 0
    82f8:	e504301c 	str	r3, [r4, #-28]	; 0xffffffe4
    82fc:	e1a00004 	mov	r0, r4
    8300:	ebffffd1 	bl	824c <ck_ptr_is_alloced>
    8304:	e3500000 	cmp	r0, #0, 0
    8308:	0a00000f 	beq	834c <ckfree+0xa8>
    830c:	e1a01005 	mov	r1, r5
    8310:	e59f005c 	ldr	r0, [pc, #92]	; 8374 <ckfree+0xd0>
    8314:	ebffff8c 	bl	814c <list_remove>
    8318:	e1a00005 	mov	r0, r5
    831c:	eb00003f 	bl	8420 <kr_free>
    8320:	e28dd018 	add	sp, sp, #24, 0
    8324:	e8bd81f0 	pop	{r4, r5, r6, r7, r8, pc}
    8328:	e1a03008 	mov	r3, r8
    832c:	e1a02007 	mov	r2, r7
    8330:	e1a01006 	mov	r1, r6
    8334:	e59f003c 	ldr	r0, [pc, #60]	; 8378 <ckfree+0xd4>
    8338:	eb000118 	bl	87a0 <printk>
    833c:	e514101c 	ldr	r1, [r4, #-28]	; 0xffffffe4
    8340:	e59f0034 	ldr	r0, [pc, #52]	; 837c <ckfree+0xd8>
    8344:	eb000115 	bl	87a0 <printk>
    8348:	eb0003a5 	bl	91e4 <clean_reboot>
    834c:	e59f302c 	ldr	r3, [pc, #44]	; 8380 <ckfree+0xdc>
    8350:	e58d3000 	str	r3, [sp]
    8354:	e3a0305b 	mov	r3, #91, 0	; 0x5b
    8358:	e59f2024 	ldr	r2, [pc, #36]	; 8384 <ckfree+0xe0>
    835c:	e59f1024 	ldr	r1, [pc, #36]	; 8388 <ckfree+0xe4>
    8360:	e59f0024 	ldr	r0, [pc, #36]	; 838c <ckfree+0xe8>
    8364:	eb00010d 	bl	87a0 <printk>
    8368:	eb00039d 	bl	91e4 <clean_reboot>
    836c:	00009de8 	andeq	r9, r0, r8, ror #27
    8370:	00009df4 	strdeq	r9, [r0], -r4
    8374:	0000a2b8 			; <UNDEFINED> instruction: 0x0000a2b8
    8378:	00009e04 	andeq	r9, r0, r4, lsl #28
    837c:	00009e1c 	andeq	r9, r0, ip, lsl lr
    8380:	00009e44 	andeq	r9, r0, r4, asr #28
    8384:	00009e78 	andeq	r9, r0, r8, ror lr
    8388:	00009d88 	andeq	r9, r0, r8, lsl #27
    838c:	00009d94 	muleq	r0, r4, sp

00008390 <ckalloc>:
    8390:	e92d4070 	push	{r4, r5, r6, lr}
    8394:	e24dd010 	sub	sp, sp, #16, 0
    8398:	e1a06000 	mov	r6, r0
    839c:	e28d5004 	add	r5, sp, #4, 0
    83a0:	e885000e 	stm	r5, {r1, r2, r3}
    83a4:	e2800024 	add	r0, r0, #36, 0	; 0x24
    83a8:	eb00005c 	bl	8520 <kr_malloc>
    83ac:	e1a04000 	mov	r4, r0
    83b0:	e3a02024 	mov	r2, #36, 0	; 0x24
    83b4:	e3a01000 	mov	r1, #0, 0
    83b8:	eb0000da 	bl	8728 <memset>
    83bc:	e5846004 	str	r6, [r4, #4]
    83c0:	e3a0300b 	mov	r3, #11, 0
    83c4:	e5843008 	str	r3, [r4, #8]
    83c8:	e284300c 	add	r3, r4, #12, 0
    83cc:	e8950007 	ldm	r5, {r0, r1, r2}
    83d0:	e8830007 	stm	r3, {r0, r1, r2}
    83d4:	e59d300c 	ldr	r3, [sp, #12]
    83d8:	e59d2008 	ldr	r2, [sp, #8]
    83dc:	e59d1004 	ldr	r1, [sp, #4]
    83e0:	e59f002c 	ldr	r0, [pc, #44]	; 8414 <ckalloc+0x84>
    83e4:	eb0000ed 	bl	87a0 <printk>
    83e8:	e2845024 	add	r5, r4, #36, 0	; 0x24
    83ec:	e1a01005 	mov	r1, r5
    83f0:	e59f0020 	ldr	r0, [pc, #32]	; 8418 <ckalloc+0x88>
    83f4:	eb0000e9 	bl	87a0 <printk>
    83f8:	e59f301c 	ldr	r3, [pc, #28]	; 841c <ckalloc+0x8c>
    83fc:	e5932000 	ldr	r2, [r3]
    8400:	e5842000 	str	r2, [r4]
    8404:	e5834000 	str	r4, [r3]
    8408:	e1a00005 	mov	r0, r5
    840c:	e28dd010 	add	sp, sp, #16, 0
    8410:	e8bd8070 	pop	{r4, r5, r6, pc}
    8414:	00009de8 	andeq	r9, r0, r8, ror #27
    8418:	00009e5c 	andeq	r9, r0, ip, asr lr
    841c:	0000a2b8 			; <UNDEFINED> instruction: 0x0000a2b8

00008420 <kr_free>:
    8420:	e52de004 	push	{lr}		; (str lr, [sp, #-4]!)
    8424:	e2401008 	sub	r1, r0, #8, 0
    8428:	e59f30a8 	ldr	r3, [pc, #168]	; 84d8 <kr_free+0xb8>
    842c:	e5933000 	ldr	r3, [r3]
    8430:	ea000000 	b	8438 <kr_free+0x18>
    8434:	e1a03002 	mov	r3, r2
    8438:	e1530001 	cmp	r3, r1
    843c:	2a000002 	bcs	844c <kr_free+0x2c>
    8440:	e5932000 	ldr	r2, [r3]
    8444:	e1520001 	cmp	r2, r1
    8448:	8a000007 	bhi	846c <kr_free+0x4c>
    844c:	e5932000 	ldr	r2, [r3]
    8450:	e1520003 	cmp	r2, r3
    8454:	8afffff6 	bhi	8434 <kr_free+0x14>
    8458:	e1530001 	cmp	r3, r1
    845c:	3a000002 	bcc	846c <kr_free+0x4c>
    8460:	e1520001 	cmp	r2, r1
    8464:	91a03002 	movls	r3, r2
    8468:	9afffff2 	bls	8438 <kr_free+0x18>
    846c:	e510c004 	ldr	ip, [r0, #-4]
    8470:	e081e18c 	add	lr, r1, ip, lsl #3
    8474:	e5932000 	ldr	r2, [r3]
    8478:	e15e0002 	cmp	lr, r2
    847c:	0a000008 	beq	84a4 <kr_free+0x84>
    8480:	e5002008 	str	r2, [r0, #-8]
    8484:	e5932004 	ldr	r2, [r3, #4]
    8488:	e083c182 	add	ip, r3, r2, lsl #3
    848c:	e15c0001 	cmp	ip, r1
    8490:	0a00000a 	beq	84c0 <kr_free+0xa0>
    8494:	e5831000 	str	r1, [r3]
    8498:	e59f2038 	ldr	r2, [pc, #56]	; 84d8 <kr_free+0xb8>
    849c:	e5823000 	str	r3, [r2]
    84a0:	e49df004 	pop	{pc}		; (ldr pc, [sp], #4)
    84a4:	e5922004 	ldr	r2, [r2, #4]
    84a8:	e08cc002 	add	ip, ip, r2
    84ac:	e500c004 	str	ip, [r0, #-4]
    84b0:	e5932000 	ldr	r2, [r3]
    84b4:	e5922000 	ldr	r2, [r2]
    84b8:	e5002008 	str	r2, [r0, #-8]
    84bc:	eafffff0 	b	8484 <kr_free+0x64>
    84c0:	e5101004 	ldr	r1, [r0, #-4]
    84c4:	e0822001 	add	r2, r2, r1
    84c8:	e5832004 	str	r2, [r3, #4]
    84cc:	e5102008 	ldr	r2, [r0, #-8]
    84d0:	e5832000 	str	r2, [r3]
    84d4:	eaffffef 	b	8498 <kr_free+0x78>
    84d8:	0000a2c0 	andeq	sl, r0, r0, asr #5

000084dc <morecore>:
    84dc:	e92d4010 	push	{r4, lr}
    84e0:	e1a04000 	mov	r4, r0
    84e4:	e3500b01 	cmp	r0, #1024	; 0x400
    84e8:	33a04b01 	movcc	r4, #1024	; 0x400
    84ec:	e1a00184 	lsl	r0, r4, #3
    84f0:	eb000050 	bl	8638 <sbrk>
    84f4:	e3700001 	cmn	r0, #1, 0
    84f8:	0a000005 	beq	8514 <morecore+0x38>
    84fc:	e5804004 	str	r4, [r0, #4]
    8500:	e2800008 	add	r0, r0, #8, 0
    8504:	ebffffc5 	bl	8420 <kr_free>
    8508:	e59f300c 	ldr	r3, [pc, #12]	; 851c <morecore+0x40>
    850c:	e5930000 	ldr	r0, [r3]
    8510:	e8bd8010 	pop	{r4, pc}
    8514:	e3a00000 	mov	r0, #0, 0
    8518:	e8bd8010 	pop	{r4, pc}
    851c:	0000a2c0 	andeq	sl, r0, r0, asr #5

00008520 <kr_malloc>:
    8520:	e92d4010 	push	{r4, lr}
    8524:	e2804007 	add	r4, r0, #7, 0
    8528:	e1a041a4 	lsr	r4, r4, #3
    852c:	e2844001 	add	r4, r4, #1, 0
    8530:	e59f3090 	ldr	r3, [pc, #144]	; 85c8 <kr_malloc+0xa8>
    8534:	e5932000 	ldr	r2, [r3]
    8538:	e3520000 	cmp	r2, #0, 0
    853c:	0a000001 	beq	8548 <kr_malloc+0x28>
    8540:	e5920000 	ldr	r0, [r2]
    8544:	ea000013 	b	8598 <kr_malloc+0x78>
    8548:	e2832008 	add	r2, r3, #8, 0
    854c:	e5832000 	str	r2, [r3]
    8550:	e5832008 	str	r2, [r3, #8]
    8554:	e3a01000 	mov	r1, #0, 0
    8558:	e583100c 	str	r1, [r3, #12]
    855c:	eafffff7 	b	8540 <kr_malloc+0x20>
    8560:	0a000007 	beq	8584 <kr_malloc+0x64>
    8564:	e0433004 	sub	r3, r3, r4
    8568:	e5803004 	str	r3, [r0, #4]
    856c:	e0800183 	add	r0, r0, r3, lsl #3
    8570:	e5804004 	str	r4, [r0, #4]
    8574:	e59f304c 	ldr	r3, [pc, #76]	; 85c8 <kr_malloc+0xa8>
    8578:	e5832000 	str	r2, [r3]
    857c:	e2800008 	add	r0, r0, #8, 0
    8580:	e8bd8010 	pop	{r4, pc}
    8584:	e5903000 	ldr	r3, [r0]
    8588:	e5823000 	str	r3, [r2]
    858c:	eafffff8 	b	8574 <kr_malloc+0x54>
    8590:	e1a02000 	mov	r2, r0
    8594:	e5900000 	ldr	r0, [r0]
    8598:	e5903004 	ldr	r3, [r0, #4]
    859c:	e1530004 	cmp	r3, r4
    85a0:	2affffee 	bcs	8560 <kr_malloc+0x40>
    85a4:	e59f301c 	ldr	r3, [pc, #28]	; 85c8 <kr_malloc+0xa8>
    85a8:	e5933000 	ldr	r3, [r3]
    85ac:	e1530000 	cmp	r3, r0
    85b0:	1afffff6 	bne	8590 <kr_malloc+0x70>
    85b4:	e1a00004 	mov	r0, r4
    85b8:	ebffffc7 	bl	84dc <morecore>
    85bc:	e3500000 	cmp	r0, #0, 0
    85c0:	1afffff2 	bne	8590 <kr_malloc+0x70>
    85c4:	e8bd8010 	pop	{r4, pc}
    85c8:	0000a2c0 	andeq	sl, r0, r0, asr #5

000085cc <mark_all>:
    85cc:	e52de004 	push	{lr}		; (str lr, [sp, #-4]!)
    85d0:	e24dd044 	sub	sp, sp, #68, 0	; 0x44
    85d4:	ebfffed4 	bl	812c <ck_first_hdr>
    85d8:	e3500000 	cmp	r0, #0, 0
    85dc:	0a000005 	beq	85f8 <mark_all+0x2c>
    85e0:	e3a03000 	mov	r3, #0, 0
    85e4:	e580301c 	str	r3, [r0, #28]
    85e8:	e5803018 	str	r3, [r0, #24]
    85ec:	e1c032b0 	strh	r3, [r0, #32]
    85f0:	ebfffed1 	bl	813c <ck_next_hdr>
    85f4:	eafffff7 	b	85d8 <mark_all+0xc>
    85f8:	e1a0000d 	mov	r0, sp
    85fc:	eb000047 	bl	8720 <dump_regs>
    8600:	e3a03000 	mov	r3, #0, 0
    8604:	e58d3000 	str	r3, [sp]
    8608:	e58d3004 	str	r3, [sp, #4]
    860c:	e58d3008 	str	r3, [sp, #8]
    8610:	e58d300c 	str	r3, [sp, #12]
    8614:	e3a03083 	mov	r3, #131, 0	; 0x83
    8618:	e59f200c 	ldr	r2, [pc, #12]	; 862c <mark_all+0x60>
    861c:	e59f100c 	ldr	r1, [pc, #12]	; 8630 <mark_all+0x64>
    8620:	e59f000c 	ldr	r0, [pc, #12]	; 8634 <mark_all+0x68>
    8624:	eb00005d 	bl	87a0 <printk>
    8628:	eb0002ed 	bl	91e4 <clean_reboot>
    862c:	00009f14 	andeq	r9, r0, r4, lsl pc
    8630:	00009e80 	andeq	r9, r0, r0, lsl #29
    8634:	00009e88 	andeq	r9, r0, r8, lsl #29

00008638 <sbrk>:
    8638:	e92d4010 	push	{r4, lr}
    863c:	e24dd008 	sub	sp, sp, #8, 0
    8640:	e2504000 	subs	r4, r0, #0, 0
    8644:	da00000d 	ble	8680 <sbrk+0x48>
    8648:	e59f3068 	ldr	r3, [pc, #104]	; 86b8 <sbrk+0x80>
    864c:	e5933000 	ldr	r3, [r3]
    8650:	e3530000 	cmp	r3, #0, 0
    8654:	1a000011 	bne	86a0 <sbrk+0x68>
    8658:	e3a01601 	mov	r1, #1048576	; 0x100000
    865c:	e1a00001 	mov	r0, r1
    8660:	eb00041b 	bl	96d4 <kmalloc_init_set_start>
    8664:	e59f304c 	ldr	r3, [pc, #76]	; 86b8 <sbrk+0x80>
    8668:	e3a02001 	mov	r2, #1, 0
    866c:	e5832000 	str	r2, [r3]
    8670:	e1a00004 	mov	r0, r4
    8674:	eb000479 	bl	9860 <kmalloc>
    8678:	e28dd008 	add	sp, sp, #8, 0
    867c:	e8bd8010 	pop	{r4, pc}
    8680:	e59f3034 	ldr	r3, [pc, #52]	; 86bc <sbrk+0x84>
    8684:	e58d3000 	str	r3, [sp]
    8688:	e3a03016 	mov	r3, #22, 0
    868c:	e59f202c 	ldr	r2, [pc, #44]	; 86c0 <sbrk+0x88>
    8690:	e59f102c 	ldr	r1, [pc, #44]	; 86c4 <sbrk+0x8c>
    8694:	e59f002c 	ldr	r0, [pc, #44]	; 86c8 <sbrk+0x90>
    8698:	eb000040 	bl	87a0 <printk>
    869c:	eb0002d0 	bl	91e4 <clean_reboot>
    86a0:	e3a03018 	mov	r3, #24, 0
    86a4:	e59f2014 	ldr	r2, [pc, #20]	; 86c0 <sbrk+0x88>
    86a8:	e59f1014 	ldr	r1, [pc, #20]	; 86c4 <sbrk+0x8c>
    86ac:	e59f0018 	ldr	r0, [pc, #24]	; 86cc <sbrk+0x94>
    86b0:	eb00003a 	bl	87a0 <printk>
    86b4:	eb0002ca 	bl	91e4 <clean_reboot>
    86b8:	0000a2d0 	ldrdeq	sl, [r0], -r0
    86bc:	00009eb4 			; <UNDEFINED> instruction: 0x00009eb4
    86c0:	00009f20 	andeq	r9, r0, r0, lsr #30
    86c4:	00009e80 	andeq	r9, r0, r0, lsl #29
    86c8:	00009d94 	muleq	r0, r4, sp
    86cc:	00009ec4 	andeq	r9, r0, r4, asr #29

000086d0 <ck_find_leaks>:
    86d0:	e92d4010 	push	{r4, lr}
    86d4:	ebffffbc 	bl	85cc <mark_all>

000086d8 <check_no_leak>:
    86d8:	e92d4010 	push	{r4, lr}
    86dc:	e3a00001 	mov	r0, #1, 0
    86e0:	ebfffffa 	bl	86d0 <ck_find_leaks>

000086e4 <check_should_leak>:
    86e4:	e92d4010 	push	{r4, lr}
    86e8:	e3a00001 	mov	r0, #1, 0
    86ec:	ebfffff7 	bl	86d0 <ck_find_leaks>

000086f0 <ck_gc>:
    86f0:	e92d4010 	push	{r4, lr}
    86f4:	ebffffb4 	bl	85cc <mark_all>

000086f8 <implement_this>:
    86f8:	e92d4010 	push	{r4, lr}
    86fc:	e3a030d1 	mov	r3, #209, 0	; 0xd1
    8700:	e59f200c 	ldr	r2, [pc, #12]	; 8714 <implement_this+0x1c>
    8704:	e59f100c 	ldr	r1, [pc, #12]	; 8718 <implement_this+0x20>
    8708:	e59f000c 	ldr	r0, [pc, #12]	; 871c <implement_this+0x24>
    870c:	eb000023 	bl	87a0 <printk>
    8710:	eb0002b3 	bl	91e4 <clean_reboot>
    8714:	00009f28 	andeq	r9, r0, r8, lsr #30
    8718:	00009e80 	andeq	r9, r0, r0, lsl #29
    871c:	00009ee4 	andeq	r9, r0, r4, ror #29

00008720 <dump_regs>:
    8720:	ebfffff4 	bl	86f8 <implement_this>
    8724:	e12fff1e 	bx	lr

00008728 <memset>:
    8728:	e92d4010 	push	{r4, lr}
    872c:	e0804002 	add	r4, r0, r2
    8730:	e1500004 	cmp	r0, r4
    8734:	28bd8010 	popcs	{r4, pc}
    8738:	e2423001 	sub	r3, r2, #1, 0
    873c:	e3530002 	cmp	r3, #2, 0
    8740:	e6ef1071 	uxtb	r1, r1
    8744:	e1a03000 	mov	r3, r0
    8748:	9a00000b 	bls	877c <memset+0x54>
    874c:	e181e401 	orr	lr, r1, r1, lsl #8
    8750:	e18ee801 	orr	lr, lr, r1, lsl #16
    8754:	e3c2c003 	bic	ip, r2, #3, 0
    8758:	e18eec01 	orr	lr, lr, r1, lsl #24
    875c:	e08cc000 	add	ip, ip, r0
    8760:	e483e004 	str	lr, [r3], #4
    8764:	e153000c 	cmp	r3, ip
    8768:	1afffffc 	bne	8760 <memset+0x38>
    876c:	e3c23003 	bic	r3, r2, #3, 0
    8770:	e1520003 	cmp	r2, r3
    8774:	e0803003 	add	r3, r0, r3
    8778:	08bd8010 	popeq	{r4, pc}
    877c:	e1a02003 	mov	r2, r3
    8780:	e4c21001 	strb	r1, [r2], #1
    8784:	e1540002 	cmp	r4, r2
    8788:	98bd8010 	popls	{r4, pc}
    878c:	e2832002 	add	r2, r3, #2, 0
    8790:	e1540002 	cmp	r4, r2
    8794:	e5c31001 	strb	r1, [r3, #1]
    8798:	85c31002 	strbhi	r1, [r3, #2]
    879c:	e8bd8010 	pop	{r4, pc}

000087a0 <printk>:
    87a0:	e92d000f 	push	{r0, r1, r2, r3}
    87a4:	e92d4030 	push	{r4, r5, lr}
    87a8:	e59f5040 	ldr	r5, [pc, #64]	; 87f0 <printk+0x50>
    87ac:	e24dd00c 	sub	sp, sp, #12, 0
    87b0:	e28d301c 	add	r3, sp, #28, 0
    87b4:	e3a01b01 	mov	r1, #1024	; 0x400
    87b8:	e59d2018 	ldr	r2, [sp, #24]
    87bc:	e1a00005 	mov	r0, r5
    87c0:	e58d3004 	str	r3, [sp, #4]
    87c4:	eb0000fb 	bl	8bb8 <va_printk>
    87c8:	e1a04000 	mov	r4, r0
    87cc:	e59f3020 	ldr	r3, [pc, #32]	; 87f4 <printk+0x54>
    87d0:	e1a00005 	mov	r0, r5
    87d4:	e5933000 	ldr	r3, [r3]
    87d8:	e12fff33 	blx	r3
    87dc:	e1a00004 	mov	r0, r4
    87e0:	e28dd00c 	add	sp, sp, #12, 0
    87e4:	e8bd4030 	pop	{r4, r5, lr}
    87e8:	e28dd010 	add	sp, sp, #16, 0
    87ec:	e12fff1e 	bx	lr
    87f0:	0000a2d4 	ldrdeq	sl, [r0], -r4
    87f4:	0000a2a4 	andeq	sl, r0, r4, lsr #5

000087f8 <internal_putk>:
    87f8:	e92d4070 	push	{r4, r5, r6, lr}
    87fc:	e1a04000 	mov	r4, r0
    8800:	e5d00000 	ldrb	r0, [r0]
    8804:	e3500000 	cmp	r0, #0, 0
    8808:	0a000005 	beq	8824 <internal_putk+0x2c>
    880c:	e59f5018 	ldr	r5, [pc, #24]	; 882c <internal_putk+0x34>
    8810:	e5953000 	ldr	r3, [r5]
    8814:	e12fff33 	blx	r3
    8818:	e5f40001 	ldrb	r0, [r4, #1]!
    881c:	e3500000 	cmp	r0, #0, 0
    8820:	1afffffa 	bne	8810 <internal_putk+0x18>
    8824:	e3a00001 	mov	r0, #1, 0
    8828:	e8bd8070 	pop	{r4, r5, r6, pc}
    882c:	0000a2b4 			; <UNDEFINED> instruction: 0x0000a2b4

00008830 <emit.constprop.0>:
    8830:	e92d41f0 	push	{r4, r5, r6, r7, r8, lr}
    8834:	e3530080 	cmp	r3, #128, 0	; 0x80
    8838:	e1a0c000 	mov	ip, r0
    883c:	e24dd048 	sub	sp, sp, #72, 0	; 0x48
    8840:	e1a00001 	mov	r0, r1
    8844:	ca000069 	bgt	89f0 <emit.constprop.0+0x1c0>
    8848:	e24c1002 	sub	r1, ip, #2, 0
    884c:	e1a0c002 	mov	ip, r2
    8850:	e351000e 	cmp	r1, #14, 0
    8854:	979ff101 	ldrls	pc, [pc, r1, lsl #2]
    8858:	ea0000a7 	b	8afc <emit.constprop.0+0x2cc>
    885c:	000089c8 	andeq	r8, r0, r8, asr #19
    8860:	00008afc 	strdeq	r8, [r0], -ip
    8864:	00008afc 	strdeq	r8, [r0], -ip
    8868:	00008afc 	strdeq	r8, [r0], -ip
    886c:	00008afc 	strdeq	r8, [r0], -ip
    8870:	00008afc 	strdeq	r8, [r0], -ip
    8874:	00008aa4 	andeq	r8, r0, r4, lsr #21
    8878:	00008afc 	strdeq	r8, [r0], -ip
    887c:	00008a44 	andeq	r8, r0, r4, asr #20
    8880:	00008afc 	strdeq	r8, [r0], -ip
    8884:	00008afc 	strdeq	r8, [r0], -ip
    8888:	00008afc 	strdeq	r8, [r0], -ip
    888c:	00008afc 	strdeq	r8, [r0], -ip
    8890:	00008afc 	strdeq	r8, [r0], -ip
    8894:	0000889c 	muleq	r0, ip, r8
    8898:	e3a0307f 	mov	r3, #127, 0	; 0x7f
    889c:	e28d2008 	add	r2, sp, #8, 0
    88a0:	e1a04002 	mov	r4, r2
    88a4:	e59f1288 	ldr	r1, [pc, #648]	; 8b34 <emit.constprop.0+0x304>
    88a8:	e20ce00f 	and	lr, ip, #15, 0
    88ac:	e7d1e00e 	ldrb	lr, [r1, lr]
    88b0:	e35c000f 	cmp	ip, #15, 0
    88b4:	e4c4e001 	strb	lr, [r4], #1
    88b8:	e1a0c22c 	lsr	ip, ip, #4
    88bc:	8afffff9 	bhi	88a8 <emit.constprop.0+0x78>
    88c0:	e3a0c078 	mov	ip, #120, 0	; 0x78
    88c4:	e1a0e004 	mov	lr, r4
    88c8:	e3a01030 	mov	r1, #48, 0	; 0x30
    88cc:	e4cec002 	strb	ip, [lr], #2
    88d0:	e5c41001 	strb	r1, [r4, #1]
    88d4:	e04e1002 	sub	r1, lr, r2
    88d8:	e1510003 	cmp	r1, r3
    88dc:	aa000083 	bge	8af0 <emit.constprop.0+0x2c0>
    88e0:	e1510003 	cmp	r1, r3
    88e4:	a3a0c001 	movge	ip, #1, 0
    88e8:	b3a0c000 	movlt	ip, #0, 0
    88ec:	e2434001 	sub	r4, r3, #1, 0
    88f0:	e0444001 	sub	r4, r4, r1
    88f4:	b0436001 	sublt	r6, r3, r1
    88f8:	a3a06001 	movge	r6, #1, 0
    88fc:	e3540002 	cmp	r4, #2, 0
    8900:	938cc001 	orrls	ip, ip, #1, 0
    8904:	e35c0000 	cmp	ip, #0, 0
    8908:	1a000075 	bne	8ae4 <emit.constprop.0+0x2b4>
    890c:	e1a0c00e 	mov	ip, lr
    8910:	e3c65003 	bic	r5, r6, #3, 0
    8914:	e59f721c 	ldr	r7, [pc, #540]	; 8b38 <emit.constprop.0+0x308>
    8918:	e085500e 	add	r5, r5, lr
    891c:	e48c7004 	str	r7, [ip], #4
    8920:	e15c0005 	cmp	ip, r5
    8924:	1afffffc 	bne	891c <emit.constprop.0+0xec>
    8928:	e3c6c003 	bic	ip, r6, #3, 0
    892c:	e156000c 	cmp	r6, ip
    8930:	e08e500c 	add	r5, lr, ip
    8934:	e08cc001 	add	ip, ip, r1
    8938:	0a000008 	beq	8960 <emit.constprop.0+0x130>
    893c:	e3a07020 	mov	r7, #32, 0
    8940:	e28c8001 	add	r8, ip, #1, 0
    8944:	e1580003 	cmp	r8, r3
    8948:	e5c57000 	strb	r7, [r5]
    894c:	aa000003 	bge	8960 <emit.constprop.0+0x130>
    8950:	e28cc002 	add	ip, ip, #2, 0
    8954:	e15c0003 	cmp	ip, r3
    8958:	e5c57001 	strb	r7, [r5, #1]
    895c:	b5c57002 	strblt	r7, [r5, #2]
    8960:	e1510003 	cmp	r1, r3
    8964:	a3a04000 	movge	r4, #0, 0
    8968:	e08e6006 	add	r6, lr, r6
    896c:	e0461002 	sub	r1, r6, r2
    8970:	e08ee004 	add	lr, lr, r4
    8974:	e3a03000 	mov	r3, #0, 0
    8978:	e351007f 	cmp	r1, #127, 0	; 0x7f
    897c:	c241407f 	subgt	r4, r1, #127, 0	; 0x7f
    8980:	c0822004 	addgt	r2, r2, r4
    8984:	e152000e 	cmp	r2, lr
    8988:	e5c63000 	strb	r3, [r6]
    898c:	8a00004f 	bhi	8ad0 <emit.constprop.0+0x2a0>
    8990:	e28ee001 	add	lr, lr, #1, 0
    8994:	e1a0300e 	mov	r3, lr
    8998:	e240c001 	sub	ip, r0, #1, 0
    899c:	e5734001 	ldrb	r4, [r3, #-1]!
    89a0:	e1530002 	cmp	r3, r2
    89a4:	e5ec4001 	strb	r4, [ip, #1]!
    89a8:	1afffffb 	bne	899c <emit.constprop.0+0x16c>
    89ac:	e04ee003 	sub	lr, lr, r3
    89b0:	e3a03000 	mov	r3, #0, 0
    89b4:	e080e00e 	add	lr, r0, lr
    89b8:	e5ce3000 	strb	r3, [lr]
    89bc:	e28dd048 	add	sp, sp, #72, 0	; 0x48
    89c0:	e8bd81f0 	pop	{r4, r5, r6, r7, r8, pc}
    89c4:	e3a0307f 	mov	r3, #127, 0	; 0x7f
    89c8:	e28d2008 	add	r2, sp, #8, 0
    89cc:	e1a0e002 	mov	lr, r2
    89d0:	e59f1164 	ldr	r1, [pc, #356]	; 8b3c <emit.constprop.0+0x30c>
    89d4:	e20c4001 	and	r4, ip, #1, 0
    89d8:	e7d14004 	ldrb	r4, [r1, r4]
    89dc:	e35c0001 	cmp	ip, #1, 0
    89e0:	e4ce4001 	strb	r4, [lr], #1
    89e4:	e1a0c0ac 	lsr	ip, ip, #1
    89e8:	8afffff9 	bhi	89d4 <emit.constprop.0+0x1a4>
    89ec:	eaffffb8 	b	88d4 <emit.constprop.0+0xa4>
    89f0:	e24c3002 	sub	r3, ip, #2, 0
    89f4:	e1a0c002 	mov	ip, r2
    89f8:	e353000e 	cmp	r3, #14, 0
    89fc:	979ff103 	ldrls	pc, [pc, r3, lsl #2]
    8a00:	ea00003d 	b	8afc <emit.constprop.0+0x2cc>
    8a04:	000089c4 	andeq	r8, r0, r4, asr #19
    8a08:	00008afc 	strdeq	r8, [r0], -ip
    8a0c:	00008afc 	strdeq	r8, [r0], -ip
    8a10:	00008afc 	strdeq	r8, [r0], -ip
    8a14:	00008afc 	strdeq	r8, [r0], -ip
    8a18:	00008afc 	strdeq	r8, [r0], -ip
    8a1c:	00008b1c 	andeq	r8, r0, ip, lsl fp
    8a20:	00008afc 	strdeq	r8, [r0], -ip
    8a24:	00008a40 	andeq	r8, r0, r0, asr #20
    8a28:	00008afc 	strdeq	r8, [r0], -ip
    8a2c:	00008afc 	strdeq	r8, [r0], -ip
    8a30:	00008afc 	strdeq	r8, [r0], -ip
    8a34:	00008afc 	strdeq	r8, [r0], -ip
    8a38:	00008afc 	strdeq	r8, [r0], -ip
    8a3c:	00008898 	muleq	r0, r8, r8
    8a40:	e3a0307f 	mov	r3, #127, 0	; 0x7f
    8a44:	e59d1060 	ldr	r1, [sp, #96]	; 0x60
    8a48:	e59f70f0 	ldr	r7, [pc, #240]	; 8b40 <emit.constprop.0+0x310>
    8a4c:	e0118fa2 	ands	r8, r1, r2, lsr #31
    8a50:	1262c000 	rsbne	ip, r2, #0, 0
    8a54:	e28d2008 	add	r2, sp, #8, 0
    8a58:	13a08001 	movne	r8, #1, 0
    8a5c:	e1a0e002 	mov	lr, r2
    8a60:	e59f60dc 	ldr	r6, [pc, #220]	; 8b44 <emit.constprop.0+0x314>
    8a64:	e1a0500c 	mov	r5, ip
    8a68:	e0814c96 	umull	r4, r1, r6, ip
    8a6c:	e1a011a1 	lsr	r1, r1, #3
    8a70:	e0814101 	add	r4, r1, r1, lsl #2
    8a74:	e04cc084 	sub	ip, ip, r4, lsl #1
    8a78:	e7d7400c 	ldrb	r4, [r7, ip]
    8a7c:	e3550009 	cmp	r5, #9, 0
    8a80:	e1a0c001 	mov	ip, r1
    8a84:	e1a0100e 	mov	r1, lr
    8a88:	e4ce4001 	strb	r4, [lr], #1
    8a8c:	8afffff4 	bhi	8a64 <emit.constprop.0+0x234>
    8a90:	e3580000 	cmp	r8, #0, 0
    8a94:	13a0c02d 	movne	ip, #45, 0	; 0x2d
    8a98:	15cec000 	strbne	ip, [lr]
    8a9c:	1281e002 	addne	lr, r1, #2, 0
    8aa0:	eaffff8b 	b	88d4 <emit.constprop.0+0xa4>
    8aa4:	e3530001 	cmp	r3, #1, 0
    8aa8:	e5cd2008 	strb	r2, [sp, #8]
    8aac:	c3a01001 	movgt	r1, #1, 0
    8ab0:	c28de009 	addgt	lr, sp, #9, 0
    8ab4:	c28d2008 	addgt	r2, sp, #8, 0
    8ab8:	caffff88 	bgt	88e0 <emit.constprop.0+0xb0>
    8abc:	e3a03000 	mov	r3, #0, 0
    8ac0:	e28de008 	add	lr, sp, #8, 0
    8ac4:	e1a0200e 	mov	r2, lr
    8ac8:	e5cd3009 	strb	r3, [sp, #9]
    8acc:	eaffffaf 	b	8990 <emit.constprop.0+0x160>
    8ad0:	e1a0e000 	mov	lr, r0
    8ad4:	e3a03000 	mov	r3, #0, 0
    8ad8:	e5ce3000 	strb	r3, [lr]
    8adc:	e28dd048 	add	sp, sp, #72, 0	; 0x48
    8ae0:	e8bd81f0 	pop	{r4, r5, r6, r7, r8, pc}
    8ae4:	e1a0c001 	mov	ip, r1
    8ae8:	e1a0500e 	mov	r5, lr
    8aec:	eaffff92 	b	893c <emit.constprop.0+0x10c>
    8af0:	e1a0600e 	mov	r6, lr
    8af4:	e24ee001 	sub	lr, lr, #1, 0
    8af8:	eaffff9d 	b	8974 <emit.constprop.0+0x144>
    8afc:	e59f2044 	ldr	r2, [pc, #68]	; 8b48 <emit.constprop.0+0x318>
    8b00:	e3a03079 	mov	r3, #121, 0	; 0x79
    8b04:	e59f1040 	ldr	r1, [pc, #64]	; 8b4c <emit.constprop.0+0x31c>
    8b08:	e58d2000 	str	r2, [sp]
    8b0c:	e59f003c 	ldr	r0, [pc, #60]	; 8b50 <emit.constprop.0+0x320>
    8b10:	e59f203c 	ldr	r2, [pc, #60]	; 8b54 <emit.constprop.0+0x324>
    8b14:	ebffff21 	bl	87a0 <printk>
    8b18:	eb0001b1 	bl	91e4 <clean_reboot>
    8b1c:	e5cd2008 	strb	r2, [sp, #8]
    8b20:	e3a0307f 	mov	r3, #127, 0	; 0x7f
    8b24:	e3a01001 	mov	r1, #1, 0
    8b28:	e28de009 	add	lr, sp, #9, 0
    8b2c:	e28d2008 	add	r2, sp, #8, 0
    8b30:	eaffff6a 	b	88e0 <emit.constprop.0+0xb0>
    8b34:	00009f4c 	andeq	r9, r0, ip, asr #30
    8b38:	20202020 	eorcs	r2, r0, r0, lsr #32
    8b3c:	00009f60 	andeq	r9, r0, r0, ror #30
    8b40:	00009f64 	andeq	r9, r0, r4, ror #30
    8b44:	cccccccd 	stclgt	12, cr12, [ip], {205}	; 0xcd
    8b48:	00009ec0 	andeq	r9, r0, r0, asr #29
    8b4c:	00009f38 	andeq	r9, r0, r8, lsr pc
    8b50:	00009d94 	muleq	r0, r4, sp
    8b54:	0000a078 	andeq	sl, r0, r8, ror r0

00008b58 <rpi_set_output>:
    8b58:	e3500000 	cmp	r0, #0, 0
    8b5c:	0a000005 	beq	8b78 <rpi_set_output+0x20>
    8b60:	e59f3038 	ldr	r3, [pc, #56]	; 8ba0 <rpi_set_output+0x48>
    8b64:	e3510000 	cmp	r1, #0, 0
    8b68:	e5830000 	str	r0, [r3]
    8b6c:	159f3030 	ldrne	r3, [pc, #48]	; 8ba4 <rpi_set_output+0x4c>
    8b70:	15831000 	strne	r1, [r3]
    8b74:	e12fff1e 	bx	lr
    8b78:	e52de004 	push	{lr}		; (str lr, [sp, #-4]!)
    8b7c:	e59f2024 	ldr	r2, [pc, #36]	; 8ba8 <rpi_set_output+0x50>
    8b80:	e24dd00c 	sub	sp, sp, #12, 0
    8b84:	e3a03020 	mov	r3, #32, 0
    8b88:	e59f101c 	ldr	r1, [pc, #28]	; 8bac <rpi_set_output+0x54>
    8b8c:	e58d2000 	str	r2, [sp]
    8b90:	e59f0018 	ldr	r0, [pc, #24]	; 8bb0 <rpi_set_output+0x58>
    8b94:	e59f2018 	ldr	r2, [pc, #24]	; 8bb4 <rpi_set_output+0x5c>
    8b98:	ebffff00 	bl	87a0 <printk>
    8b9c:	eb000190 	bl	91e4 <clean_reboot>
    8ba0:	0000a2b4 			; <UNDEFINED> instruction: 0x0000a2b4
    8ba4:	0000a2a4 	andeq	sl, r0, r4, lsr #5
    8ba8:	00009f70 	andeq	r9, r0, r0, ror pc
    8bac:	00009f38 	andeq	r9, r0, r8, lsr pc
    8bb0:	00009d94 	muleq	r0, r4, sp
    8bb4:	0000a080 	andeq	sl, r0, r0, lsl #1

00008bb8 <va_printk>:
    8bb8:	e92d4ff0 	push	{r4, r5, r6, r7, r8, r9, sl, fp, lr}
    8bbc:	e1a0b000 	mov	fp, r0
    8bc0:	e3a00000 	mov	r0, #0, 0
    8bc4:	e5cb0000 	strb	r0, [fp]
    8bc8:	e5d2c000 	ldrb	ip, [r2]
    8bcc:	e2417001 	sub	r7, r1, #1, 0
    8bd0:	e08b7007 	add	r7, fp, r7
    8bd4:	e15c0000 	cmp	ip, r0
    8bd8:	115b0007 	cmpne	fp, r7
    8bdc:	e24ddf47 	sub	sp, sp, #284	; 0x11c
    8be0:	e58d2010 	str	r2, [sp, #16]
    8be4:	2a000159 	bcs	9150 <va_printk+0x598>
    8be8:	e1a06002 	mov	r6, r2
    8bec:	e1a08003 	mov	r8, r3
    8bf0:	e1a0400b 	mov	r4, fp
    8bf4:	e59fa5a4 	ldr	sl, [pc, #1444]	; 91a0 <va_printk+0x5e8>
    8bf8:	e58db00c 	str	fp, [sp, #12]
    8bfc:	ea000005 	b	8c18 <va_printk+0x60>
    8c00:	e4c4c001 	strb	ip, [r4], #1
    8c04:	e2866001 	add	r6, r6, #1, 0
    8c08:	e5d6c000 	ldrb	ip, [r6]
    8c0c:	e35c0000 	cmp	ip, #0, 0
    8c10:	11570004 	cmpne	r7, r4
    8c14:	9a00002f 	bls	8cd8 <va_printk+0x120>
    8c18:	e35c0025 	cmp	ip, #37, 0	; 0x25
    8c1c:	1afffff7 	bne	8c00 <va_printk+0x48>
    8c20:	e5d62001 	ldrb	r2, [r6, #1]
    8c24:	e3520025 	cmp	r2, #37, 0	; 0x25
    8c28:	04c4c001 	strbeq	ip, [r4], #1
    8c2c:	02866002 	addeq	r6, r6, #2, 0
    8c30:	0afffff4 	beq	8c08 <va_printk+0x50>
    8c34:	e2423030 	sub	r3, r2, #48, 0	; 0x30
    8c38:	e3530009 	cmp	r3, #9, 0
    8c3c:	e3a05000 	mov	r5, #0, 0
    8c40:	e2866001 	add	r6, r6, #1, 0
    8c44:	8a000008 	bhi	8c6c <va_printk+0xb4>
    8c48:	e0855105 	add	r5, r5, r5, lsl #2
    8c4c:	e0825085 	add	r5, r2, r5, lsl #1
    8c50:	e5f62001 	ldrb	r2, [r6, #1]!
    8c54:	e2455030 	sub	r5, r5, #48, 0	; 0x30
    8c58:	e2423030 	sub	r3, r2, #48, 0	; 0x30
    8c5c:	e3530009 	cmp	r3, #9, 0
    8c60:	9afffff8 	bls	8c48 <va_printk+0x90>
    8c64:	e355001f 	cmp	r5, #31, 0
    8c68:	8a00013a 	bhi	9158 <va_printk+0x5a0>
    8c6c:	e2423062 	sub	r3, r2, #98, 0	; 0x62
    8c70:	e3530016 	cmp	r3, #22, 0
    8c74:	979ff103 	ldrls	pc, [pc, r3, lsl #2]
    8c78:	ea00011b 	b	90ec <va_printk+0x534>
    8c7c:	00008f30 	andeq	r8, r0, r0, lsr pc
    8c80:	00008e2c 	andeq	r8, r0, ip, lsr #28
    8c84:	00008e24 	andeq	r8, r0, r4, lsr #28
    8c88:	000090ec 	andeq	r9, r0, ip, ror #1
    8c8c:	00009128 	andeq	r9, r0, r8, lsr #2
    8c90:	000090ec 	andeq	r9, r0, ip, ror #1
    8c94:	000090ec 	andeq	r9, r0, ip, ror #1
    8c98:	000090ec 	andeq	r9, r0, ip, ror #1
    8c9c:	000090ec 	andeq	r9, r0, ip, ror #1
    8ca0:	000090ec 	andeq	r9, r0, ip, ror #1
    8ca4:	00008d34 	andeq	r8, r0, r4, lsr sp
    8ca8:	000090ec 	andeq	r9, r0, ip, ror #1
    8cac:	000090ec 	andeq	r9, r0, ip, ror #1
    8cb0:	000090ec 	andeq	r9, r0, ip, ror #1
    8cb4:	00008cf0 	strdeq	r8, [r0], -r0
    8cb8:	000090ec 	andeq	r9, r0, ip, ror #1
    8cbc:	000090ec 	andeq	r9, r0, ip, ror #1
    8cc0:	00009028 	andeq	r9, r0, r8, lsr #32
    8cc4:	000090ec 	andeq	r9, r0, ip, ror #1
    8cc8:	00008e00 	andeq	r8, r0, r0, lsl #28
    8ccc:	000090ec 	andeq	r9, r0, ip, ror #1
    8cd0:	000090ec 	andeq	r9, r0, ip, ror #1
    8cd4:	00008cf0 	strdeq	r8, [r0], -r0
    8cd8:	e59db00c 	ldr	fp, [sp, #12]
    8cdc:	e3a03000 	mov	r3, #0, 0
    8ce0:	e4c43001 	strb	r3, [r4], #1
    8ce4:	e044000b 	sub	r0, r4, fp
    8ce8:	e28ddf47 	add	sp, sp, #284	; 0x11c
    8cec:	e8bd8ff0 	pop	{r4, r5, r6, r7, r8, r9, sl, fp, pc}
    8cf0:	e3a01000 	mov	r1, #0, 0
    8cf4:	e1a03005 	mov	r3, r5
    8cf8:	e4982004 	ldr	r2, [r8], #4
    8cfc:	e3a00010 	mov	r0, #16, 0
    8d00:	e58d1000 	str	r1, [sp]
    8d04:	e28d1018 	add	r1, sp, #24, 0
    8d08:	ebfffec8 	bl	8830 <emit.constprop.0>
    8d0c:	e1a05000 	mov	r5, r0
    8d10:	e2866001 	add	r6, r6, #1, 0
    8d14:	e2455001 	sub	r5, r5, #1, 0
    8d18:	e5f53001 	ldrb	r3, [r5, #1]!
    8d1c:	e3530000 	cmp	r3, #0, 0
    8d20:	0affffb8 	beq	8c08 <va_printk+0x50>
    8d24:	e4c43001 	strb	r3, [r4], #1
    8d28:	e1570004 	cmp	r7, r4
    8d2c:	8afffff9 	bhi	8d18 <va_printk+0x160>
    8d30:	eaffffb4 	b	8c08 <va_printk+0x50>
    8d34:	e3a02003 	mov	r2, #3, 0
    8d38:	e1a00006 	mov	r0, r6
    8d3c:	e59f1460 	ldr	r1, [pc, #1120]	; 91a4 <va_printk+0x5ec>
    8d40:	eb0003da 	bl	9cb0 <strncmp>
    8d44:	e3500000 	cmp	r0, #0, 0
    8d48:	0a000005 	beq	8d64 <va_printk+0x1ac>
    8d4c:	e3a02003 	mov	r2, #3, 0
    8d50:	e1a00006 	mov	r0, r6
    8d54:	e59f144c 	ldr	r1, [pc, #1100]	; 91a8 <va_printk+0x5f0>
    8d58:	eb0003d4 	bl	9cb0 <strncmp>
    8d5c:	e3500000 	cmp	r0, #0, 0
    8d60:	1a00010b 	bne	9194 <va_printk+0x5dc>
    8d64:	e2888007 	add	r8, r8, #7, 0
    8d68:	e3c88007 	bic	r8, r8, #7, 0
    8d6c:	e598b004 	ldr	fp, [r8, #4]
    8d70:	e4989008 	ldr	r9, [r8], #8
    8d74:	e1a0100b 	mov	r1, fp
    8d78:	e59f042c 	ldr	r0, [pc, #1068]	; 91ac <va_printk+0x5f4>
    8d7c:	ebfffe87 	bl	87a0 <printk>
    8d80:	e1a01009 	mov	r1, r9
    8d84:	e59f0424 	ldr	r0, [pc, #1060]	; 91b0 <va_printk+0x5f8>
    8d88:	ebfffe84 	bl	87a0 <printk>
    8d8c:	e3a02003 	mov	r2, #3, 0
    8d90:	e1a00006 	mov	r0, r6
    8d94:	e59f1408 	ldr	r1, [pc, #1032]	; 91a4 <va_printk+0x5ec>
    8d98:	eb0003c4 	bl	9cb0 <strncmp>
    8d9c:	e2503000 	subs	r3, r0, #0, 0
    8da0:	e1a02003 	mov	r2, r3
    8da4:	e2863002 	add	r3, r6, #2, 0
    8da8:	e58d3014 	str	r3, [sp, #20]
    8dac:	1a00009f 	bne	9030 <va_printk+0x478>
    8db0:	e1a06002 	mov	r6, r2
    8db4:	e1a03005 	mov	r3, r5
    8db8:	e58d2000 	str	r2, [sp]
    8dbc:	e28d1018 	add	r1, sp, #24, 0
    8dc0:	e1a0200b 	mov	r2, fp
    8dc4:	e3a00010 	mov	r0, #16, 0
    8dc8:	ebfffe98 	bl	8830 <emit.constprop.0>
    8dcc:	e1a0c000 	mov	ip, r0
    8dd0:	e1a03005 	mov	r3, r5
    8dd4:	e58d6000 	str	r6, [sp]
    8dd8:	e28d1098 	add	r1, sp, #152, 0	; 0x98
    8ddc:	e1a02009 	mov	r2, r9
    8de0:	e3a00010 	mov	r0, #16, 0
    8de4:	e1a0500c 	mov	r5, ip
    8de8:	ebfffe90 	bl	8830 <emit.constprop.0>
    8dec:	e28d0018 	add	r0, sp, #24, 0
    8df0:	e28d109a 	add	r1, sp, #154, 0	; 0x9a
    8df4:	e59d6014 	ldr	r6, [sp, #20]
    8df8:	eb00038a 	bl	9c28 <strcat>
    8dfc:	eaffffc3 	b	8d10 <va_printk+0x158>
    8e00:	e3a01000 	mov	r1, #0, 0
    8e04:	e1a03005 	mov	r3, r5
    8e08:	e4982004 	ldr	r2, [r8], #4
    8e0c:	e3a0000a 	mov	r0, #10, 0
    8e10:	e58d1000 	str	r1, [sp]
    8e14:	e28d1018 	add	r1, sp, #24, 0
    8e18:	ebfffe84 	bl	8830 <emit.constprop.0>
    8e1c:	e1a05000 	mov	r5, r0
    8e20:	eaffffba 	b	8d10 <va_printk+0x158>
    8e24:	e3a01001 	mov	r1, #1, 0
    8e28:	eafffff5 	b	8e04 <va_printk+0x24c>
    8e2c:	e4983004 	ldr	r3, [r8], #4
    8e30:	e3550001 	cmp	r5, #1, 0
    8e34:	e5cd3098 	strb	r3, [sp, #152]	; 0x98
    8e38:	9a0000a6 	bls	90d8 <va_printk+0x520>
    8e3c:	e2453002 	sub	r3, r5, #2, 0
    8e40:	e3530002 	cmp	r3, #2, 0
    8e44:	e2451001 	sub	r1, r5, #1, 0
    8e48:	9a0000bc 	bls	9140 <va_printk+0x588>
    8e4c:	e59f0360 	ldr	r0, [pc, #864]	; 91b4 <va_printk+0x5fc>
    8e50:	e1a02121 	lsr	r2, r1, #2
    8e54:	e3520001 	cmp	r2, #1, 0
    8e58:	e58d0099 	str	r0, [sp, #153]	; 0x99
    8e5c:	0a00000e 	beq	8e9c <va_printk+0x2e4>
    8e60:	e3520002 	cmp	r2, #2, 0
    8e64:	e58d009d 	str	r0, [sp, #157]	; 0x9d
    8e68:	0a00000b 	beq	8e9c <va_printk+0x2e4>
    8e6c:	e3520003 	cmp	r2, #3, 0
    8e70:	e58d00a1 	str	r0, [sp, #161]	; 0xa1
    8e74:	0a000008 	beq	8e9c <va_printk+0x2e4>
    8e78:	e3520004 	cmp	r2, #4, 0
    8e7c:	e58d00a5 	str	r0, [sp, #165]	; 0xa5
    8e80:	0a000005 	beq	8e9c <va_printk+0x2e4>
    8e84:	e3520005 	cmp	r2, #5, 0
    8e88:	e58d00a9 	str	r0, [sp, #169]	; 0xa9
    8e8c:	0a000002 	beq	8e9c <va_printk+0x2e4>
    8e90:	e3520007 	cmp	r2, #7, 0
    8e94:	e58d00ad 	str	r0, [sp, #173]	; 0xad
    8e98:	058d00b1 	streq	r0, [sp, #177]	; 0xb1
    8e9c:	e3c12003 	bic	r2, r1, #3, 0
    8ea0:	e1510002 	cmp	r1, r2
    8ea4:	e28dc099 	add	ip, sp, #153, 0	; 0x99
    8ea8:	e08c0002 	add	r0, ip, r2
    8eac:	e2822001 	add	r2, r2, #1, 0
    8eb0:	0a000008 	beq	8ed8 <va_printk+0x320>
    8eb4:	e3a0e020 	mov	lr, #32, 0
    8eb8:	e2829001 	add	r9, r2, #1, 0
    8ebc:	e1550009 	cmp	r5, r9
    8ec0:	e5c0e000 	strb	lr, [r0]
    8ec4:	da000003 	ble	8ed8 <va_printk+0x320>
    8ec8:	e2822002 	add	r2, r2, #2, 0
    8ecc:	e1550002 	cmp	r5, r2
    8ed0:	e5c0e001 	strb	lr, [r0, #1]
    8ed4:	c5c0e002 	strbgt	lr, [r0, #2]
    8ed8:	e3a0e000 	mov	lr, #0, 0
    8edc:	e28d0098 	add	r0, sp, #152, 0	; 0x98
    8ee0:	e08c2001 	add	r2, ip, r1
    8ee4:	e0422000 	sub	r2, r2, r0
    8ee8:	e352007f 	cmp	r2, #127, 0	; 0x7f
    8eec:	c242207f 	subgt	r2, r2, #127, 0	; 0x7f
    8ef0:	e08c3003 	add	r3, ip, r3
    8ef4:	c0800002 	addgt	r0, r0, r2
    8ef8:	e1530000 	cmp	r3, r0
    8efc:	e7cce001 	strb	lr, [ip, r1]
    8f00:	3a00006c 	bcc	90b8 <va_printk+0x500>
    8f04:	e283c001 	add	ip, r3, #1, 0
    8f08:	e1a0300c 	mov	r3, ip
    8f0c:	e28d5018 	add	r5, sp, #24, 0
    8f10:	e2452001 	sub	r2, r5, #1, 0
    8f14:	e5731001 	ldrb	r1, [r3, #-1]!
    8f18:	e1500003 	cmp	r0, r3
    8f1c:	e5e21001 	strb	r1, [r2, #1]!
    8f20:	1afffffb 	bne	8f14 <va_printk+0x35c>
    8f24:	e04c3000 	sub	r3, ip, r0
    8f28:	e0853003 	add	r3, r5, r3
    8f2c:	ea00003a 	b	901c <va_printk+0x464>
    8f30:	e28d1098 	add	r1, sp, #152, 0	; 0x98
    8f34:	e1a03001 	mov	r3, r1
    8f38:	e4980004 	ldr	r0, [r8], #4
    8f3c:	e200c001 	and	ip, r0, #1, 0
    8f40:	e7dac00c 	ldrb	ip, [sl, ip]
    8f44:	e3500001 	cmp	r0, #1, 0
    8f48:	e1a02003 	mov	r2, r3
    8f4c:	e1a000a0 	lsr	r0, r0, #1
    8f50:	e4c3c001 	strb	ip, [r3], #1
    8f54:	8afffff8 	bhi	8f3c <va_printk+0x384>
    8f58:	e0430001 	sub	r0, r3, r1
    8f5c:	e1550000 	cmp	r5, r0
    8f60:	da000057 	ble	90c4 <va_printk+0x50c>
    8f64:	e045c000 	sub	ip, r5, r0
    8f68:	e24ce001 	sub	lr, ip, #1, 0
    8f6c:	e35e0002 	cmp	lr, #2, 0
    8f70:	e1a0e003 	mov	lr, r3
    8f74:	9a00000a 	bls	8fa4 <va_printk+0x3ec>
    8f78:	e3cc9003 	bic	r9, ip, #3, 0
    8f7c:	e0899003 	add	r9, r9, r3
    8f80:	e59fb22c 	ldr	fp, [pc, #556]	; 91b4 <va_printk+0x5fc>
    8f84:	e48eb004 	str	fp, [lr], #4
    8f88:	e15e0009 	cmp	lr, r9
    8f8c:	1afffffb 	bne	8f80 <va_printk+0x3c8>
    8f90:	e3cce003 	bic	lr, ip, #3, 0
    8f94:	e15e000c 	cmp	lr, ip
    8f98:	e080000e 	add	r0, r0, lr
    8f9c:	e083e00e 	add	lr, r3, lr
    8fa0:	0a000008 	beq	8fc8 <va_printk+0x410>
    8fa4:	e3a09020 	mov	r9, #32, 0
    8fa8:	e280b001 	add	fp, r0, #1, 0
    8fac:	e155000b 	cmp	r5, fp
    8fb0:	e5ce9000 	strb	r9, [lr]
    8fb4:	da000003 	ble	8fc8 <va_printk+0x410>
    8fb8:	e2800002 	add	r0, r0, #2, 0
    8fbc:	e1550000 	cmp	r5, r0
    8fc0:	e5ce9001 	strb	r9, [lr, #1]
    8fc4:	c5ce9002 	strbgt	r9, [lr, #2]
    8fc8:	e3a0e000 	mov	lr, #0, 0
    8fcc:	e083000c 	add	r0, r3, ip
    8fd0:	e0400001 	sub	r0, r0, r1
    8fd4:	e350007f 	cmp	r0, #127, 0	; 0x7f
    8fd8:	e082200c 	add	r2, r2, ip
    8fdc:	e7c3e00c 	strb	lr, [r3, ip]
    8fe0:	da000001 	ble	8fec <va_printk+0x434>
    8fe4:	e240007f 	sub	r0, r0, #127, 0	; 0x7f
    8fe8:	e0811000 	add	r1, r1, r0
    8fec:	e1510002 	cmp	r1, r2
    8ff0:	8a000030 	bhi	90b8 <va_printk+0x500>
    8ff4:	e2822001 	add	r2, r2, #1, 0
    8ff8:	e1a03002 	mov	r3, r2
    8ffc:	e28d5018 	add	r5, sp, #24, 0
    9000:	e245c001 	sub	ip, r5, #1, 0
    9004:	e5730001 	ldrb	r0, [r3, #-1]!
    9008:	e1530001 	cmp	r3, r1
    900c:	e5ec0001 	strb	r0, [ip, #1]!
    9010:	1afffffb 	bne	9004 <va_printk+0x44c>
    9014:	e0423003 	sub	r3, r2, r3
    9018:	e0853003 	add	r3, r5, r3
    901c:	e3a02000 	mov	r2, #0, 0
    9020:	e5c32000 	strb	r2, [r3]
    9024:	eaffff39 	b	8d10 <va_printk+0x158>
    9028:	e4985004 	ldr	r5, [r8], #4
    902c:	eaffff37 	b	8d10 <va_printk+0x158>
    9030:	e3a02003 	mov	r2, #3, 0
    9034:	e1a00006 	mov	r0, r6
    9038:	e59f1168 	ldr	r1, [pc, #360]	; 91a8 <va_printk+0x5f0>
    903c:	eb00031b 	bl	9cb0 <strncmp>
    9040:	e2503000 	subs	r3, r0, #0, 0
    9044:	1a00004b 	bne	9178 <va_printk+0x5c0>
    9048:	e1a06003 	mov	r6, r3
    904c:	e1a0200b 	mov	r2, fp
    9050:	e58d3000 	str	r3, [sp]
    9054:	e28d1018 	add	r1, sp, #24, 0
    9058:	e1a03005 	mov	r3, r5
    905c:	e3a0000a 	mov	r0, #10, 0
    9060:	ebfffdf2 	bl	8830 <emit.constprop.0>
    9064:	e1a0c000 	mov	ip, r0
    9068:	e1a03005 	mov	r3, r5
    906c:	e1a02009 	mov	r2, r9
    9070:	e28d1098 	add	r1, sp, #152, 0	; 0x98
    9074:	e3a0000a 	mov	r0, #10, 0
    9078:	e58d6000 	str	r6, [sp]
    907c:	e1a0500c 	mov	r5, ip
    9080:	ebfffdea 	bl	8830 <emit.constprop.0>
    9084:	e59f112c 	ldr	r1, [pc, #300]	; 91b8 <va_printk+0x600>
    9088:	e28d0018 	add	r0, sp, #24, 0
    908c:	eb0002f0 	bl	9c54 <strcmp>
    9090:	e3500000 	cmp	r0, #0, 0
    9094:	e28d1098 	add	r1, sp, #152, 0	; 0x98
    9098:	e28d0018 	add	r0, sp, #24, 0
    909c:	1a000002 	bne	90ac <va_printk+0x4f4>
    90a0:	eb0002fc 	bl	9c98 <strcpy>
    90a4:	e59d6014 	ldr	r6, [sp, #20]
    90a8:	eaffff18 	b	8d10 <va_printk+0x158>
    90ac:	eb0002dd 	bl	9c28 <strcat>
    90b0:	e59d6014 	ldr	r6, [sp, #20]
    90b4:	eaffff15 	b	8d10 <va_printk+0x158>
    90b8:	e28d5018 	add	r5, sp, #24, 0
    90bc:	e1a03005 	mov	r3, r5
    90c0:	eaffffd5 	b	901c <va_printk+0x464>
    90c4:	e3a0c000 	mov	ip, #0, 0
    90c8:	e350007f 	cmp	r0, #127, 0	; 0x7f
    90cc:	e5c3c000 	strb	ip, [r3]
    90d0:	caffffc3 	bgt	8fe4 <va_printk+0x42c>
    90d4:	eaffffc6 	b	8ff4 <va_printk+0x43c>
    90d8:	e3a02000 	mov	r2, #0, 0
    90dc:	e28d3098 	add	r3, sp, #152, 0	; 0x98
    90e0:	e1a00003 	mov	r0, r3
    90e4:	e5cd2099 	strb	r2, [sp, #153]	; 0x99
    90e8:	eaffff85 	b	8f04 <va_printk+0x34c>
    90ec:	e3a03000 	mov	r3, #0, 0
    90f0:	e1a01002 	mov	r1, r2
    90f4:	e5c63001 	strb	r3, [r6, #1]
    90f8:	e59f00bc 	ldr	r0, [pc, #188]	; 91bc <va_printk+0x604>
    90fc:	ebfffda7 	bl	87a0 <printk>
    9100:	e59f30b8 	ldr	r3, [pc, #184]	; 91c0 <va_printk+0x608>
    9104:	e59d0010 	ldr	r0, [sp, #16]
    9108:	e5933000 	ldr	r3, [r3]
    910c:	e12fff33 	blx	r3
    9110:	e3a030e2 	mov	r3, #226, 0	; 0xe2
    9114:	e59f20a8 	ldr	r2, [pc, #168]	; 91c4 <va_printk+0x60c>
    9118:	e59f10a8 	ldr	r1, [pc, #168]	; 91c8 <va_printk+0x610>
    911c:	e59f00a8 	ldr	r0, [pc, #168]	; 91cc <va_printk+0x614>
    9120:	ebfffd9e 	bl	87a0 <printk>
    9124:	eb00002e 	bl	91e4 <clean_reboot>
    9128:	e3a030be 	mov	r3, #190, 0	; 0xbe
    912c:	e59f2090 	ldr	r2, [pc, #144]	; 91c4 <va_printk+0x60c>
    9130:	e59f1090 	ldr	r1, [pc, #144]	; 91c8 <va_printk+0x610>
    9134:	e59f0094 	ldr	r0, [pc, #148]	; 91d0 <va_printk+0x618>
    9138:	ebfffd98 	bl	87a0 <printk>
    913c:	eb000028 	bl	91e4 <clean_reboot>
    9140:	e28dc099 	add	ip, sp, #153, 0	; 0x99
    9144:	e1a0000c 	mov	r0, ip
    9148:	e3a02001 	mov	r2, #1, 0
    914c:	eaffff58 	b	8eb4 <va_printk+0x2fc>
    9150:	e1a0400b 	mov	r4, fp
    9154:	eafffee0 	b	8cdc <va_printk+0x124>
    9158:	e3a03098 	mov	r3, #152, 0	; 0x98
    915c:	e59f2070 	ldr	r2, [pc, #112]	; 91d4 <va_printk+0x61c>
    9160:	e59f1060 	ldr	r1, [pc, #96]	; 91c8 <va_printk+0x610>
    9164:	e58d2000 	str	r2, [sp]
    9168:	e59f0068 	ldr	r0, [pc, #104]	; 91d8 <va_printk+0x620>
    916c:	e59f2050 	ldr	r2, [pc, #80]	; 91c4 <va_printk+0x60c>
    9170:	ebfffd8a 	bl	87a0 <printk>
    9174:	eb00001a 	bl	91e4 <clean_reboot>
    9178:	e3a030b6 	mov	r3, #182, 0	; 0xb6
    917c:	e59f2040 	ldr	r2, [pc, #64]	; 91c4 <va_printk+0x60c>
    9180:	e59f1040 	ldr	r1, [pc, #64]	; 91c8 <va_printk+0x610>
    9184:	e59f0050 	ldr	r0, [pc, #80]	; 91dc <va_printk+0x624>
    9188:	e58d6000 	str	r6, [sp]
    918c:	ebfffd83 	bl	87a0 <printk>
    9190:	eb000013 	bl	91e4 <clean_reboot>
    9194:	e3a0309f 	mov	r3, #159, 0	; 0x9f
    9198:	e59f2040 	ldr	r2, [pc, #64]	; 91e0 <va_printk+0x628>
    919c:	eaffffef 	b	9160 <va_printk+0x5a8>
    91a0:	00009f60 	andeq	r9, r0, r0, ror #30
    91a4:	00009f84 	andeq	r9, r0, r4, lsl #31
    91a8:	00009f98 	muleq	r0, r8, pc	; <UNPREDICTABLE>
    91ac:	00009f88 	andeq	r9, r0, r8, lsl #31
    91b0:	00009f90 	muleq	r0, r0, pc	; <UNPREDICTABLE>
    91b4:	20202020 	eorcs	r2, r0, r0, lsr #32
    91b8:	00009ec0 	andeq	r9, r0, r0, asr #29
    91bc:	0000a028 	andeq	sl, r0, r8, lsr #32
    91c0:	0000a2a4 	andeq	sl, r0, r4, lsr #5
    91c4:	0000a090 	muleq	r0, r0, r0
    91c8:	00009f38 	andeq	r9, r0, r8, lsr pc
    91cc:	0000a058 	andeq	sl, r0, r8, asr r0
    91d0:	0000a000 	andeq	sl, r0, r0
    91d4:	00009f78 	andeq	r9, r0, r8, ror pc
    91d8:	00009d94 	muleq	r0, r4, sp
    91dc:	00009fd8 	ldrdeq	r9, [r0], -r8
    91e0:	00009f9c 	muleq	r0, ip, pc	; <UNPREDICTABLE>

000091e4 <clean_reboot>:
    91e4:	e59f301c 	ldr	r3, [pc, #28]	; 9208 <clean_reboot+0x24>
    91e8:	e92d4010 	push	{r4, lr}
    91ec:	e5933000 	ldr	r3, [r3]
    91f0:	e59f0014 	ldr	r0, [pc, #20]	; 920c <clean_reboot+0x28>
    91f4:	e12fff33 	blx	r3
    91f8:	eb00011b 	bl	966c <uart_flush_tx>
    91fc:	e3a0000a 	mov	r0, #10, 0
    9200:	eb000082 	bl	9410 <delay_ms>
    9204:	eb00004b 	bl	9338 <rpi_reboot>
    9208:	0000a2a4 	andeq	sl, r0, r4, lsr #5
    920c:	0000a09c 	muleq	r0, ip, r0

00009210 <_cstart>:
    9210:	e92d4070 	push	{r4, r5, r6, lr}
    9214:	eb00003b 	bl	9308 <custom_loader>
    9218:	e59f20e0 	ldr	r2, [pc, #224]	; 9300 <_cstart+0xf0>
    921c:	e59fc0e0 	ldr	ip, [pc, #224]	; 9304 <_cstart+0xf4>
    9220:	e152000c 	cmp	r2, ip
    9224:	2a00002e 	bcs	92e4 <_cstart+0xd4>
    9228:	e24c1001 	sub	r1, ip, #1, 0
    922c:	e0411002 	sub	r1, r1, r2
    9230:	e3510017 	cmp	r1, #23, 0
    9234:	e1a03122 	lsr	r3, r2, #2
    9238:	e1a01121 	lsr	r1, r1, #2
    923c:	e2811001 	add	r1, r1, #1, 0
    9240:	e2033001 	and	r3, r3, #1, 0
    9244:	9a00002b 	bls	92f8 <_cstart+0xe8>
    9248:	e3530000 	cmp	r3, #0, 0
    924c:	11a00002 	movne	r0, r2
    9250:	13a0e000 	movne	lr, #0, 0
    9254:	e3a04000 	mov	r4, #0, 0
    9258:	e3a05000 	mov	r5, #0, 0
    925c:	e0411003 	sub	r1, r1, r3
    9260:	01a00002 	moveq	r0, r2
    9264:	e0823103 	add	r3, r2, r3, lsl #2
    9268:	e1a020a1 	lsr	r2, r1, #1
    926c:	1480e004 	strne	lr, [r0], #4
    9270:	e0832182 	add	r2, r3, r2, lsl #3
    9274:	e0c340f8 	strd	r4, [r3], #8
    9278:	e1520003 	cmp	r2, r3
    927c:	1afffffc 	bne	9274 <_cstart+0x64>
    9280:	e3c13001 	bic	r3, r1, #1, 0
    9284:	e1510003 	cmp	r1, r3
    9288:	e0803103 	add	r3, r0, r3, lsl #2
    928c:	0a000014 	beq	92e4 <_cstart+0xd4>
    9290:	e1a01003 	mov	r1, r3
    9294:	e3a02000 	mov	r2, #0, 0
    9298:	e4812004 	str	r2, [r1], #4
    929c:	e151000c 	cmp	r1, ip
    92a0:	2a00000f 	bcs	92e4 <_cstart+0xd4>
    92a4:	e2831008 	add	r1, r3, #8, 0
    92a8:	e151000c 	cmp	r1, ip
    92ac:	e5832004 	str	r2, [r3, #4]
    92b0:	2a00000b 	bcs	92e4 <_cstart+0xd4>
    92b4:	e283100c 	add	r1, r3, #12, 0
    92b8:	e151000c 	cmp	r1, ip
    92bc:	e5832008 	str	r2, [r3, #8]
    92c0:	2a000007 	bcs	92e4 <_cstart+0xd4>
    92c4:	e2831010 	add	r1, r3, #16, 0
    92c8:	e151000c 	cmp	r1, ip
    92cc:	e583200c 	str	r2, [r3, #12]
    92d0:	2a000003 	bcs	92e4 <_cstart+0xd4>
    92d4:	e2831014 	add	r1, r3, #20, 0
    92d8:	e151000c 	cmp	r1, ip
    92dc:	e5832010 	str	r2, [r3, #16]
    92e0:	35832014 	strcc	r2, [r3, #20]
    92e4:	eb000082 	bl	94f4 <uart_init>
    92e8:	e3a03001 	mov	r3, #1, 0
    92ec:	ee0f3f1c 	mcr	15, 0, r3, cr15, cr12, {0}
    92f0:	ebfffb74 	bl	80c8 <notmain>
    92f4:	ebffffba 	bl	91e4 <clean_reboot>
    92f8:	e1a03002 	mov	r3, r2
    92fc:	eaffffe3 	b	9290 <_cstart+0x80>
    9300:	0000a2b8 			; <UNDEFINED> instruction: 0x0000a2b8
    9304:	0000a6d8 	ldrdeq	sl, [r0], -r8

00009308 <custom_loader>:
    9308:	e12fff1e 	bx	lr

0000930c <at_user_level>:
    930c:	e10f0000 	mrs	r0, CPSR
    9310:	e200001f 	and	r0, r0, #31, 0
    9314:	e2400010 	sub	r0, r0, #16, 0
    9318:	e16f0f10 	clz	r0, r0
    931c:	e1a002a0 	lsr	r0, r0, #5
    9320:	e12fff1e 	bx	lr

00009324 <set_user_level>:
    9324:	e10f3000 	mrs	r3, CPSR
    9328:	e3c3301f 	bic	r3, r3, #31, 0
    932c:	e3833010 	orr	r3, r3, #16, 0
    9330:	e129f003 	msr	CPSR_fc, r3
    9334:	e12fff1e 	bx	lr

00009338 <rpi_reboot>:
    9338:	e92d4010 	push	{r4, lr}
    933c:	e10f3000 	mrs	r3, CPSR
    9340:	e203301f 	and	r3, r3, #31, 0
    9344:	e3530010 	cmp	r3, #16, 0
    9348:	1a000003 	bne	935c <rpi_reboot+0x24>
    934c:	e10f3000 	mrs	r3, CPSR
    9350:	e3c3301f 	bic	r3, r3, #31, 0
    9354:	e3833010 	orr	r3, r3, #16, 0
    9358:	e129f003 	msr	CPSR_fc, r3
    935c:	eb00025f 	bl	9ce0 <reboot_callout>
    9360:	eb0000c1 	bl	966c <uart_flush_tx>
    9364:	e3a0000a 	mov	r0, #10, 0
    9368:	eb000028 	bl	9410 <delay_ms>
    936c:	e59f1014 	ldr	r1, [pc, #20]	; 9388 <rpi_reboot+0x50>
    9370:	e59f0014 	ldr	r0, [pc, #20]	; 938c <rpi_reboot+0x54>
    9374:	ebfffb2a 	bl	8024 <PUT32>
    9378:	e59f1010 	ldr	r1, [pc, #16]	; 9390 <rpi_reboot+0x58>
    937c:	e59f0010 	ldr	r0, [pc, #16]	; 9394 <rpi_reboot+0x5c>
    9380:	ebfffb27 	bl	8024 <PUT32>
    9384:	eafffffe 	b	9384 <rpi_reboot+0x4c>
    9388:	5a000001 	bpl	9394 <rpi_reboot+0x5c>
    938c:	20100024 	andscs	r0, r0, r4, lsr #32
    9390:	5a000020 	bpl	9418 <delay_ms+0x8>
    9394:	2010001c 	andscs	r0, r0, ip, lsl r0

00009398 <timer_get_usec_raw>:
    9398:	e59f0000 	ldr	r0, [pc]	; 93a0 <timer_get_usec_raw+0x8>
    939c:	eafffb22 	b	802c <GET32>
    93a0:	20003004 	andcs	r3, r0, r4

000093a4 <timer_get_usec>:
    93a4:	e92d4010 	push	{r4, lr}
    93a8:	eb00024d 	bl	9ce4 <dev_barrier>
    93ac:	e59f0010 	ldr	r0, [pc, #16]	; 93c4 <timer_get_usec+0x20>
    93b0:	ebfffb1d 	bl	802c <GET32>
    93b4:	e1a04000 	mov	r4, r0
    93b8:	eb000249 	bl	9ce4 <dev_barrier>
    93bc:	e1a00004 	mov	r0, r4
    93c0:	e8bd8010 	pop	{r4, pc}
    93c4:	20003004 	andcs	r3, r0, r4

000093c8 <delay_us>:
    93c8:	e92d41f0 	push	{r4, r5, r6, r7, r8, lr}
    93cc:	e1a06000 	mov	r6, r0
    93d0:	eb000243 	bl	9ce4 <dev_barrier>
    93d4:	e59f0030 	ldr	r0, [pc, #48]	; 940c <delay_us+0x44>
    93d8:	ebfffb13 	bl	802c <GET32>
    93dc:	e1a05000 	mov	r5, r0
    93e0:	eb00023f 	bl	9ce4 <dev_barrier>
    93e4:	e59f7020 	ldr	r7, [pc, #32]	; 940c <delay_us+0x44>
    93e8:	eb00023d 	bl	9ce4 <dev_barrier>
    93ec:	e1a00007 	mov	r0, r7
    93f0:	ebfffb0d 	bl	802c <GET32>
    93f4:	e1a04000 	mov	r4, r0
    93f8:	e0444005 	sub	r4, r4, r5
    93fc:	eb000238 	bl	9ce4 <dev_barrier>
    9400:	e1540006 	cmp	r4, r6
    9404:	3afffff7 	bcc	93e8 <delay_us+0x20>
    9408:	e8bd81f0 	pop	{r4, r5, r6, r7, r8, pc}
    940c:	20003004 	andcs	r3, r0, r4

00009410 <delay_ms>:
    9410:	e92d41f0 	push	{r4, r5, r6, r7, r8, lr}
    9414:	e0604280 	rsb	r4, r0, r0, lsl #5
    9418:	e0800104 	add	r0, r0, r4, lsl #2
    941c:	e1a04180 	lsl	r4, r0, #3
    9420:	eb00022f 	bl	9ce4 <dev_barrier>
    9424:	e59f0030 	ldr	r0, [pc, #48]	; 945c <delay_ms+0x4c>
    9428:	ebfffaff 	bl	802c <GET32>
    942c:	e1a06000 	mov	r6, r0
    9430:	eb00022b 	bl	9ce4 <dev_barrier>
    9434:	e59f7020 	ldr	r7, [pc, #32]	; 945c <delay_ms+0x4c>
    9438:	eb000229 	bl	9ce4 <dev_barrier>
    943c:	e1a00007 	mov	r0, r7
    9440:	ebfffaf9 	bl	802c <GET32>
    9444:	e1a05000 	mov	r5, r0
    9448:	e0455006 	sub	r5, r5, r6
    944c:	eb000224 	bl	9ce4 <dev_barrier>
    9450:	e1540005 	cmp	r4, r5
    9454:	8afffff7 	bhi	9438 <delay_ms+0x28>
    9458:	e8bd81f0 	pop	{r4, r5, r6, r7, r8, pc}
    945c:	20003004 	andcs	r3, r0, r4

00009460 <delay_sec>:
    9460:	e92d41f0 	push	{r4, r5, r6, r7, r8, lr}
    9464:	e0604280 	rsb	r4, r0, r0, lsl #5
    9468:	e0644304 	rsb	r4, r4, r4, lsl #6
    946c:	e0800184 	add	r0, r0, r4, lsl #3
    9470:	e1a04300 	lsl	r4, r0, #6
    9474:	eb00021a 	bl	9ce4 <dev_barrier>
    9478:	e59f0030 	ldr	r0, [pc, #48]	; 94b0 <delay_sec+0x50>
    947c:	ebfffaea 	bl	802c <GET32>
    9480:	e1a06000 	mov	r6, r0
    9484:	eb000216 	bl	9ce4 <dev_barrier>
    9488:	e59f7020 	ldr	r7, [pc, #32]	; 94b0 <delay_sec+0x50>
    948c:	eb000214 	bl	9ce4 <dev_barrier>
    9490:	e1a00007 	mov	r0, r7
    9494:	ebfffae4 	bl	802c <GET32>
    9498:	e1a05000 	mov	r5, r0
    949c:	e0455006 	sub	r5, r5, r6
    94a0:	eb00020f 	bl	9ce4 <dev_barrier>
    94a4:	e1540005 	cmp	r4, r5
    94a8:	8afffff7 	bhi	948c <delay_sec+0x2c>
    94ac:	e8bd81f0 	pop	{r4, r5, r6, r7, r8, pc}
    94b0:	20003004 	andcs	r3, r0, r4

000094b4 <and_in32>:
    94b4:	e92d4070 	push	{r4, r5, r6, lr}
    94b8:	e1a04000 	mov	r4, r0
    94bc:	e1a05001 	mov	r5, r1
    94c0:	ebfffad9 	bl	802c <GET32>
    94c4:	e0001005 	and	r1, r0, r5
    94c8:	e1a00004 	mov	r0, r4
    94cc:	ebfffad4 	bl	8024 <PUT32>
    94d0:	e8bd8070 	pop	{r4, r5, r6, pc}

000094d4 <or_in32>:
    94d4:	e92d4070 	push	{r4, r5, r6, lr}
    94d8:	e1a04000 	mov	r4, r0
    94dc:	e1a05001 	mov	r5, r1
    94e0:	ebfffad1 	bl	802c <GET32>
    94e4:	e1801005 	orr	r1, r0, r5
    94e8:	e1a00004 	mov	r0, r4
    94ec:	ebfffacc 	bl	8024 <PUT32>
    94f0:	e8bd8070 	pop	{r4, r5, r6, pc}

000094f4 <uart_init>:
    94f4:	e92d4010 	push	{r4, lr}
    94f8:	e3a01002 	mov	r1, #2, 0
    94fc:	e3a0000e 	mov	r0, #14, 0
    9500:	eb000153 	bl	9a54 <gpio_set_function>
    9504:	e3a01002 	mov	r1, #2, 0
    9508:	e3a0000f 	mov	r0, #15, 0
    950c:	eb000150 	bl	9a54 <gpio_set_function>
    9510:	eb0001f3 	bl	9ce4 <dev_barrier>
    9514:	e3a01001 	mov	r1, #1, 0
    9518:	e59f0064 	ldr	r0, [pc, #100]	; 9584 <uart_init+0x90>
    951c:	ebffffec 	bl	94d4 <or_in32>
    9520:	eb0001ef 	bl	9ce4 <dev_barrier>
    9524:	e59f405c 	ldr	r4, [pc, #92]	; 9588 <uart_init+0x94>
    9528:	e3a01000 	mov	r1, #0, 0
    952c:	e1a00004 	mov	r0, r4
    9530:	ebfffabb 	bl	8024 <PUT32>
    9534:	e3a01000 	mov	r1, #0, 0
    9538:	e59f004c 	ldr	r0, [pc, #76]	; 958c <uart_init+0x98>
    953c:	ebfffab8 	bl	8024 <PUT32>
    9540:	e3a01003 	mov	r1, #3, 0
    9544:	e59f0044 	ldr	r0, [pc, #68]	; 9590 <uart_init+0x9c>
    9548:	ebfffab5 	bl	8024 <PUT32>
    954c:	e3a01000 	mov	r1, #0, 0
    9550:	e59f003c 	ldr	r0, [pc, #60]	; 9594 <uart_init+0xa0>
    9554:	ebfffab2 	bl	8024 <PUT32>
    9558:	e3a010c7 	mov	r1, #199, 0	; 0xc7
    955c:	e59f0034 	ldr	r0, [pc, #52]	; 9598 <uart_init+0xa4>
    9560:	ebfffaaf 	bl	8024 <PUT32>
    9564:	e59f1030 	ldr	r1, [pc, #48]	; 959c <uart_init+0xa8>
    9568:	e59f0030 	ldr	r0, [pc, #48]	; 95a0 <uart_init+0xac>
    956c:	ebfffaac 	bl	8024 <PUT32>
    9570:	e3a01003 	mov	r1, #3, 0
    9574:	e1a00004 	mov	r0, r4
    9578:	ebfffaa9 	bl	8024 <PUT32>
    957c:	eb0001d8 	bl	9ce4 <dev_barrier>
    9580:	e8bd8010 	pop	{r4, pc}
    9584:	20215004 	eorcs	r5, r1, r4
    9588:	20215060 	eorcs	r5, r1, r0, rrx
    958c:	20215044 	eorcs	r5, r1, r4, asr #32
    9590:	2021504c 	eorcs	r5, r1, ip, asr #32
    9594:	20215050 	eorcs	r5, r1, r0, asr r0
    9598:	20215048 	eorcs	r5, r1, r8, asr #32
    959c:	0000010e 	andeq	r0, r0, lr, lsl #2
    95a0:	20215068 	eorcs	r5, r1, r8, rrx

000095a4 <uart_can_getc>:
    95a4:	e92d4010 	push	{r4, lr}
    95a8:	e59f0008 	ldr	r0, [pc, #8]	; 95b8 <uart_can_getc+0x14>
    95ac:	ebfffa9e 	bl	802c <GET32>
    95b0:	e2000001 	and	r0, r0, #1, 0
    95b4:	e8bd8010 	pop	{r4, pc}
    95b8:	20215064 	eorcs	r5, r1, r4, rrx

000095bc <uart_can_putc>:
    95bc:	e92d4010 	push	{r4, lr}
    95c0:	e59f0010 	ldr	r0, [pc, #16]	; 95d8 <uart_can_putc+0x1c>
    95c4:	ebfffa98 	bl	802c <GET32>
    95c8:	e3100002 	tst	r0, #2, 0
    95cc:	13a00001 	movne	r0, #1, 0
    95d0:	03a00000 	moveq	r0, #0, 0
    95d4:	e8bd8010 	pop	{r4, pc}
    95d8:	20215064 	eorcs	r5, r1, r4, rrx

000095dc <uart_getc>:
    95dc:	e92d4010 	push	{r4, lr}
    95e0:	eb0001bf 	bl	9ce4 <dev_barrier>
    95e4:	ebffffee 	bl	95a4 <uart_can_getc>
    95e8:	e3500000 	cmp	r0, #0, 0
    95ec:	0afffffc 	beq	95e4 <uart_getc+0x8>
    95f0:	e59f0010 	ldr	r0, [pc, #16]	; 9608 <uart_getc+0x2c>
    95f4:	ebfffa8c 	bl	802c <GET32>
    95f8:	e6ef4070 	uxtb	r4, r0
    95fc:	eb0001b8 	bl	9ce4 <dev_barrier>
    9600:	e1a00004 	mov	r0, r4
    9604:	e8bd8010 	pop	{r4, pc}
    9608:	20215040 	eorcs	r5, r1, r0, asr #32

0000960c <uart_putc>:
    960c:	e92d4010 	push	{r4, lr}
    9610:	e1a04000 	mov	r4, r0
    9614:	eb0001b2 	bl	9ce4 <dev_barrier>
    9618:	ebffffe7 	bl	95bc <uart_can_putc>
    961c:	e3500000 	cmp	r0, #0, 0
    9620:	0afffffc 	beq	9618 <uart_putc+0xc>
    9624:	e6ef1074 	uxtb	r1, r4
    9628:	e59f0008 	ldr	r0, [pc, #8]	; 9638 <uart_putc+0x2c>
    962c:	ebfffa7c 	bl	8024 <PUT32>
    9630:	eb0001ab 	bl	9ce4 <dev_barrier>
    9634:	e8bd8010 	pop	{r4, pc}
    9638:	20215040 	eorcs	r5, r1, r0, asr #32

0000963c <uart_has_data>:
    963c:	e92d4010 	push	{r4, lr}
    9640:	eb0001a7 	bl	9ce4 <dev_barrier>
    9644:	ebffffd6 	bl	95a4 <uart_can_getc>
    9648:	e8bd8010 	pop	{r4, pc}

0000964c <uart_tx_is_empty>:
    964c:	e92d4010 	push	{r4, lr}
    9650:	eb0001a3 	bl	9ce4 <dev_barrier>
    9654:	e59f000c 	ldr	r0, [pc, #12]	; 9668 <uart_tx_is_empty+0x1c>
    9658:	ebfffa73 	bl	802c <GET32>
    965c:	e1a004a0 	lsr	r0, r0, #9
    9660:	e2000001 	and	r0, r0, #1, 0
    9664:	e8bd8010 	pop	{r4, pc}
    9668:	20215064 	eorcs	r5, r1, r4, rrx

0000966c <uart_flush_tx>:
    966c:	e92d4010 	push	{r4, lr}
    9670:	ebfffff5 	bl	964c <uart_tx_is_empty>
    9674:	e3500000 	cmp	r0, #0, 0
    9678:	0afffffc 	beq	9670 <uart_flush_tx+0x4>
    967c:	e8bd8010 	pop	{r4, pc}

00009680 <uart_disable>:
    9680:	e92d4010 	push	{r4, lr}
    9684:	ebfffff8 	bl	966c <uart_flush_tx>
    9688:	eb000195 	bl	9ce4 <dev_barrier>
    968c:	e3e01001 	mvn	r1, #1, 0
    9690:	e59f0008 	ldr	r0, [pc, #8]	; 96a0 <uart_disable+0x20>
    9694:	ebffff86 	bl	94b4 <and_in32>
    9698:	eb000191 	bl	9ce4 <dev_barrier>
    969c:	e8bd8010 	pop	{r4, pc}
    96a0:	20215004 	eorcs	r5, r1, r4

000096a4 <kmalloc_heap_end>:
    96a4:	e59f3004 	ldr	r3, [pc, #4]	; 96b0 <kmalloc_heap_end+0xc>
    96a8:	e5930000 	ldr	r0, [r3]
    96ac:	e12fff1e 	bx	lr
    96b0:	0000a2a8 	andeq	sl, r0, r8, lsr #5

000096b4 <kmalloc_heap_start>:
    96b4:	e59f3004 	ldr	r3, [pc, #4]	; 96c0 <kmalloc_heap_start+0xc>
    96b8:	e5930004 	ldr	r0, [r3, #4]
    96bc:	e12fff1e 	bx	lr
    96c0:	0000a2a8 	andeq	sl, r0, r8, lsr #5

000096c4 <kmalloc_heap_ptr>:
    96c4:	e59f3004 	ldr	r3, [pc, #4]	; 96d0 <kmalloc_heap_ptr+0xc>
    96c8:	e5930000 	ldr	r0, [r3]
    96cc:	e12fff1e 	bx	lr
    96d0:	0000a2a8 	andeq	sl, r0, r8, lsr #5

000096d4 <kmalloc_init_set_start>:
    96d4:	e52de004 	push	{lr}		; (str lr, [sp, #-4]!)
    96d8:	e24dd00c 	sub	sp, sp, #12, 0
    96dc:	e3510000 	cmp	r1, #0, 0
    96e0:	0a00000a 	beq	9710 <kmalloc_init_set_start+0x3c>
    96e4:	e59f306c 	ldr	r3, [pc, #108]	; 9758 <kmalloc_init_set_start+0x84>
    96e8:	e5933000 	ldr	r3, [r3]
    96ec:	e1530000 	cmp	r3, r0
    96f0:	8a00000e 	bhi	9730 <kmalloc_init_set_start+0x5c>
    96f4:	e59f305c 	ldr	r3, [pc, #92]	; 9758 <kmalloc_init_set_start+0x84>
    96f8:	e5830000 	str	r0, [r3]
    96fc:	e5830004 	str	r0, [r3, #4]
    9700:	e0800001 	add	r0, r0, r1
    9704:	e5830008 	str	r0, [r3, #8]
    9708:	e28dd00c 	add	sp, sp, #12, 0
    970c:	e49df004 	pop	{pc}		; (ldr pc, [sp], #4)
    9710:	e59f3044 	ldr	r3, [pc, #68]	; 975c <kmalloc_init_set_start+0x88>
    9714:	e58d3000 	str	r3, [sp]
    9718:	e3a03030 	mov	r3, #48, 0	; 0x30
    971c:	e59f203c 	ldr	r2, [pc, #60]	; 9760 <kmalloc_init_set_start+0x8c>
    9720:	e59f103c 	ldr	r1, [pc, #60]	; 9764 <kmalloc_init_set_start+0x90>
    9724:	e59f003c 	ldr	r0, [pc, #60]	; 9768 <kmalloc_init_set_start+0x94>
    9728:	ebfffc1c 	bl	87a0 <printk>
    972c:	ebfffeac 	bl	91e4 <clean_reboot>
    9730:	e59f3020 	ldr	r3, [pc, #32]	; 9758 <kmalloc_init_set_start+0x84>
    9734:	e5933008 	ldr	r3, [r3, #8]
    9738:	e58d3004 	str	r3, [sp, #4]
    973c:	e58d0000 	str	r0, [sp]
    9740:	e3a03034 	mov	r3, #52, 0	; 0x34
    9744:	e59f2014 	ldr	r2, [pc, #20]	; 9760 <kmalloc_init_set_start+0x8c>
    9748:	e59f1014 	ldr	r1, [pc, #20]	; 9764 <kmalloc_init_set_start+0x90>
    974c:	e59f0018 	ldr	r0, [pc, #24]	; 976c <kmalloc_init_set_start+0x98>
    9750:	ebfffc12 	bl	87a0 <printk>
    9754:	ebfffea2 	bl	91e4 <clean_reboot>
    9758:	0000a2a8 	andeq	sl, r0, r8, lsr #5
    975c:	0000a0b4 	strheq	sl, [r0], -r4
    9760:	0000a240 	andeq	sl, r0, r0, asr #4
    9764:	0000a0a8 	andeq	sl, r0, r8, lsr #1
    9768:	00009d94 	muleq	r0, r4, sp
    976c:	0000a0c0 	andeq	sl, r0, r0, asr #1

00009770 <kmalloc_init>:
    9770:	e92d4010 	push	{r4, lr}
    9774:	e59f303c 	ldr	r3, [pc, #60]	; 97b8 <kmalloc_init+0x48>
    9778:	e5933000 	ldr	r3, [r3]
    977c:	e3530000 	cmp	r3, #0, 0
    9780:	1a000006 	bne	97a0 <kmalloc_init+0x30>
    9784:	e59f302c 	ldr	r3, [pc, #44]	; 97b8 <kmalloc_init+0x48>
    9788:	e3a02001 	mov	r2, #1, 0
    978c:	e5832000 	str	r2, [r3]
    9790:	e3a01201 	mov	r1, #268435456	; 0x10000000
    9794:	e3a00601 	mov	r0, #1048576	; 0x100000
    9798:	ebffffcd 	bl	96d4 <kmalloc_init_set_start>
    979c:	e8bd8010 	pop	{r4, pc}
    97a0:	e3a03040 	mov	r3, #64, 0	; 0x40
    97a4:	e59f2010 	ldr	r2, [pc, #16]	; 97bc <kmalloc_init+0x4c>
    97a8:	e59f1010 	ldr	r1, [pc, #16]	; 97c0 <kmalloc_init+0x50>
    97ac:	e59f0010 	ldr	r0, [pc, #16]	; 97c4 <kmalloc_init+0x54>
    97b0:	ebfffbfa 	bl	87a0 <printk>
    97b4:	ebfffe8a 	bl	91e4 <clean_reboot>
    97b8:	0000a6d4 	ldrdeq	sl, [r0], -r4
    97bc:	0000a258 	andeq	sl, r0, r8, asr r2
    97c0:	0000a0a8 	andeq	sl, r0, r8, lsr #1
    97c4:	0000a104 	andeq	sl, r0, r4, lsl #2

000097c8 <kmalloc_notzero>:
    97c8:	e52de004 	push	{lr}		; (str lr, [sp, #-4]!)
    97cc:	e24dd00c 	sub	sp, sp, #12, 0
    97d0:	e3500000 	cmp	r0, #0, 0
    97d4:	0a00000a 	beq	9804 <kmalloc_notzero+0x3c>
    97d8:	e2800007 	add	r0, r0, #7, 0
    97dc:	e3c03007 	bic	r3, r0, #7, 0
    97e0:	e59f2060 	ldr	r2, [pc, #96]	; 9848 <kmalloc_notzero+0x80>
    97e4:	e5920000 	ldr	r0, [r2]
    97e8:	e0801003 	add	r1, r0, r3
    97ec:	e5821000 	str	r1, [r2]
    97f0:	e5922008 	ldr	r2, [r2, #8]
    97f4:	e1510002 	cmp	r1, r2
    97f8:	8a000009 	bhi	9824 <kmalloc_notzero+0x5c>
    97fc:	e28dd00c 	add	sp, sp, #12, 0
    9800:	e49df004 	pop	{pc}		; (ldr pc, [sp], #4)
    9804:	e59f3040 	ldr	r3, [pc, #64]	; 984c <kmalloc_notzero+0x84>
    9808:	e58d3000 	str	r3, [sp]
    980c:	e3a03048 	mov	r3, #72, 0	; 0x48
    9810:	e59f2038 	ldr	r2, [pc, #56]	; 9850 <kmalloc_notzero+0x88>
    9814:	e59f1038 	ldr	r1, [pc, #56]	; 9854 <kmalloc_notzero+0x8c>
    9818:	e59f0038 	ldr	r0, [pc, #56]	; 9858 <kmalloc_notzero+0x90>
    981c:	ebfffbdf 	bl	87a0 <printk>
    9820:	ebfffe6f 	bl	91e4 <clean_reboot>
    9824:	e0422000 	sub	r2, r2, r0
    9828:	e58d2004 	str	r2, [sp, #4]
    982c:	e58d3000 	str	r3, [sp]
    9830:	e3a0304e 	mov	r3, #78, 0	; 0x4e
    9834:	e59f2014 	ldr	r2, [pc, #20]	; 9850 <kmalloc_notzero+0x88>
    9838:	e59f1014 	ldr	r1, [pc, #20]	; 9854 <kmalloc_notzero+0x8c>
    983c:	e59f0018 	ldr	r0, [pc, #24]	; 985c <kmalloc_notzero+0x94>
    9840:	ebfffbd6 	bl	87a0 <printk>
    9844:	ebfffe66 	bl	91e4 <clean_reboot>
    9848:	0000a2a8 	andeq	sl, r0, r8, lsr #5
    984c:	0000a0b8 	strheq	sl, [r0], -r8
    9850:	0000a268 	andeq	sl, r0, r8, ror #4
    9854:	0000a0a8 	andeq	sl, r0, r8, lsr #1
    9858:	00009d94 	muleq	r0, r4, sp
    985c:	0000a134 	andeq	sl, r0, r4, lsr r1

00009860 <kmalloc>:
    9860:	e92d4030 	push	{r4, r5, lr}
    9864:	e24dd00c 	sub	sp, sp, #12, 0
    9868:	e2504000 	subs	r4, r0, #0, 0
    986c:	0a000008 	beq	9894 <kmalloc+0x34>
    9870:	e1a00004 	mov	r0, r4
    9874:	ebffffd3 	bl	97c8 <kmalloc_notzero>
    9878:	e1a05000 	mov	r5, r0
    987c:	e1a02004 	mov	r2, r4
    9880:	e3a01000 	mov	r1, #0, 0
    9884:	ebfffba7 	bl	8728 <memset>
    9888:	e1a00005 	mov	r0, r5
    988c:	e28dd00c 	add	sp, sp, #12, 0
    9890:	e8bd8030 	pop	{r4, r5, pc}
    9894:	e59f3018 	ldr	r3, [pc, #24]	; 98b4 <kmalloc+0x54>
    9898:	e58d3000 	str	r3, [sp]
    989c:	e3a03054 	mov	r3, #84, 0	; 0x54
    98a0:	e59f2010 	ldr	r2, [pc, #16]	; 98b8 <kmalloc+0x58>
    98a4:	e59f1010 	ldr	r1, [pc, #16]	; 98bc <kmalloc+0x5c>
    98a8:	e59f0010 	ldr	r0, [pc, #16]	; 98c0 <kmalloc+0x60>
    98ac:	ebfffbbb 	bl	87a0 <printk>
    98b0:	ebfffe4b 	bl	91e4 <clean_reboot>
    98b4:	0000a0b8 	strheq	sl, [r0], -r8
    98b8:	0000a278 	andeq	sl, r0, r8, ror r2
    98bc:	0000a0a8 	andeq	sl, r0, r8, lsr #1
    98c0:	00009d94 	muleq	r0, r4, sp

000098c4 <kmalloc_aligned>:
    98c4:	e52de004 	push	{lr}		; (str lr, [sp, #-4]!)
    98c8:	e24dd00c 	sub	sp, sp, #12, 0
    98cc:	e3500000 	cmp	r0, #0, 0
    98d0:	0a000014 	beq	9928 <kmalloc_aligned+0x64>
    98d4:	e2613000 	rsb	r3, r1, #0, 0
    98d8:	e1d13003 	bics	r3, r1, r3
    98dc:	1a000019 	bne	9948 <kmalloc_aligned+0x84>
    98e0:	e3510008 	cmp	r1, #8, 0
    98e4:	33a01008 	movcc	r1, #8, 0
    98e8:	e59f30c0 	ldr	r3, [pc, #192]	; 99b0 <kmalloc_aligned+0xec>
    98ec:	e5932000 	ldr	r2, [r3]
    98f0:	e2613000 	rsb	r3, r1, #0, 0
    98f4:	e1d1c003 	bics	ip, r1, r3
    98f8:	1a00001b 	bne	996c <kmalloc_aligned+0xa8>
    98fc:	e0822001 	add	r2, r2, r1
    9900:	e2422001 	sub	r2, r2, #1, 0
    9904:	e0033002 	and	r3, r3, r2
    9908:	e2411001 	sub	r1, r1, #1, 0
    990c:	e1110003 	tst	r1, r3
    9910:	1a00001d 	bne	998c <kmalloc_aligned+0xc8>
    9914:	e59f2094 	ldr	r2, [pc, #148]	; 99b0 <kmalloc_aligned+0xec>
    9918:	e5823000 	str	r3, [r2]
    991c:	ebffffcf 	bl	9860 <kmalloc>
    9920:	e28dd00c 	add	sp, sp, #12, 0
    9924:	e49df004 	pop	{pc}		; (ldr pc, [sp], #4)
    9928:	e59f3084 	ldr	r3, [pc, #132]	; 99b4 <kmalloc_aligned+0xf0>
    992c:	e58d3000 	str	r3, [sp]
    9930:	e3a0305f 	mov	r3, #95, 0	; 0x5f
    9934:	e59f207c 	ldr	r2, [pc, #124]	; 99b8 <kmalloc_aligned+0xf4>
    9938:	e59f107c 	ldr	r1, [pc, #124]	; 99bc <kmalloc_aligned+0xf8>
    993c:	e59f007c 	ldr	r0, [pc, #124]	; 99c0 <kmalloc_aligned+0xfc>
    9940:	ebfffb96 	bl	87a0 <printk>
    9944:	ebfffe26 	bl	91e4 <clean_reboot>
    9948:	eb0000ac 	bl	9c00 <rpi_reset_putc>
    994c:	e59f3070 	ldr	r3, [pc, #112]	; 99c4 <kmalloc_aligned+0x100>
    9950:	e58d3000 	str	r3, [sp]
    9954:	e3a03060 	mov	r3, #96, 0	; 0x60
    9958:	e59f2058 	ldr	r2, [pc, #88]	; 99b8 <kmalloc_aligned+0xf4>
    995c:	e59f1058 	ldr	r1, [pc, #88]	; 99bc <kmalloc_aligned+0xf8>
    9960:	e59f0060 	ldr	r0, [pc, #96]	; 99c8 <kmalloc_aligned+0x104>
    9964:	ebfffb8d 	bl	87a0 <printk>
    9968:	ebfffe1d 	bl	91e4 <clean_reboot>
    996c:	e59f3058 	ldr	r3, [pc, #88]	; 99cc <kmalloc_aligned+0x108>
    9970:	e58d3000 	str	r3, [sp]
    9974:	e3a03011 	mov	r3, #17, 0
    9978:	e59f2050 	ldr	r2, [pc, #80]	; 99d0 <kmalloc_aligned+0x10c>
    997c:	e59f1038 	ldr	r1, [pc, #56]	; 99bc <kmalloc_aligned+0xf8>
    9980:	e59f0038 	ldr	r0, [pc, #56]	; 99c0 <kmalloc_aligned+0xfc>
    9984:	ebfffb85 	bl	87a0 <printk>
    9988:	ebfffe15 	bl	91e4 <clean_reboot>
    998c:	eb00009b 	bl	9c00 <rpi_reset_putc>
    9990:	e59f303c 	ldr	r3, [pc, #60]	; 99d4 <kmalloc_aligned+0x110>
    9994:	e58d3000 	str	r3, [sp]
    9998:	e3a03068 	mov	r3, #104, 0	; 0x68
    999c:	e59f2014 	ldr	r2, [pc, #20]	; 99b8 <kmalloc_aligned+0xf4>
    99a0:	e59f1014 	ldr	r1, [pc, #20]	; 99bc <kmalloc_aligned+0xf8>
    99a4:	e59f002c 	ldr	r0, [pc, #44]	; 99d8 <kmalloc_aligned+0x114>
    99a8:	ebfffb7c 	bl	87a0 <printk>
    99ac:	ebfffe0c 	bl	91e4 <clean_reboot>
    99b0:	0000a2a8 	andeq	sl, r0, r8, lsr #5
    99b4:	0000a0b8 	strheq	sl, [r0], -r8
    99b8:	0000a280 	andeq	sl, r0, r0, lsl #5
    99bc:	0000a0a8 	andeq	sl, r0, r8, lsr #1
    99c0:	00009d94 	muleq	r0, r4, sp
    99c4:	0000a1a8 	andeq	sl, r0, r8, lsr #3
    99c8:	0000a174 	andeq	sl, r0, r4, ror r1
    99cc:	0000a1bc 			; <UNDEFINED> instruction: 0x0000a1bc
    99d0:	0000a290 	muleq	r0, r0, r2
    99d4:	0000a1f4 	strdeq	sl, [r0], -r4
    99d8:	0000a1c8 	andeq	sl, r0, r8, asr #3

000099dc <kfree>:
    99dc:	e12fff1e 	bx	lr

000099e0 <kfree_all>:
    99e0:	e59f3008 	ldr	r3, [pc, #8]	; 99f0 <kfree_all+0x10>
    99e4:	e5932004 	ldr	r2, [r3, #4]
    99e8:	e5832000 	str	r2, [r3]
    99ec:	e12fff1e 	bx	lr
    99f0:	0000a2a8 	andeq	sl, r0, r8, lsr #5

000099f4 <kfree_pop>:
    99f4:	e59f3048 	ldr	r3, [pc, #72]	; 9a44 <kfree_pop+0x50>
    99f8:	e5933004 	ldr	r3, [r3, #4]
    99fc:	e1530000 	cmp	r3, r0
    9a00:	8a000006 	bhi	9a20 <kfree_pop+0x2c>
    9a04:	e59f3038 	ldr	r3, [pc, #56]	; 9a44 <kfree_pop+0x50>
    9a08:	e5933008 	ldr	r3, [r3, #8]
    9a0c:	e1530000 	cmp	r3, r0
    9a10:	3a000002 	bcc	9a20 <kfree_pop+0x2c>
    9a14:	e59f3028 	ldr	r3, [pc, #40]	; 9a44 <kfree_pop+0x50>
    9a18:	e5830000 	str	r0, [r3]
    9a1c:	e12fff1e 	bx	lr
    9a20:	e52de004 	push	{lr}		; (str lr, [sp, #-4]!)
    9a24:	e24dd00c 	sub	sp, sp, #12, 0
    9a28:	e58d0000 	str	r0, [sp]
    9a2c:	e3a03077 	mov	r3, #119, 0	; 0x77
    9a30:	e59f2010 	ldr	r2, [pc, #16]	; 9a48 <kfree_pop+0x54>
    9a34:	e59f1010 	ldr	r1, [pc, #16]	; 9a4c <kfree_pop+0x58>
    9a38:	e59f0010 	ldr	r0, [pc, #16]	; 9a50 <kfree_pop+0x5c>
    9a3c:	ebfffb57 	bl	87a0 <printk>
    9a40:	ebfffde7 	bl	91e4 <clean_reboot>
    9a44:	0000a2a8 	andeq	sl, r0, r8, lsr #5
    9a48:	0000a298 	muleq	r0, r8, r2
    9a4c:	0000a0a8 	andeq	sl, r0, r8, lsr #1
    9a50:	0000a210 	andeq	sl, r0, r0, lsl r2

00009a54 <gpio_set_function>:
    9a54:	e350001f 	cmp	r0, #31, 0
    9a58:	812fff1e 	bxhi	lr
    9a5c:	e3d13007 	bics	r3, r1, #7, 0
    9a60:	e92d4070 	push	{r4, r5, r6, lr}
    9a64:	e1a05001 	mov	r5, r1
    9a68:	18bd8070 	popne	{r4, r5, r6, pc}
    9a6c:	e59f403c 	ldr	r4, [pc, #60]	; 9ab0 <gpio_set_function+0x5c>
    9a70:	e0843094 	umull	r3, r4, r4, r0
    9a74:	e1a041a4 	lsr	r4, r4, #3
    9a78:	e2843302 	add	r3, r4, #134217728	; 0x8000000
    9a7c:	e2833702 	add	r3, r3, #524288	; 0x80000
    9a80:	e1a06103 	lsl	r6, r3, #2
    9a84:	e0844104 	add	r4, r4, r4, lsl #2
    9a88:	e0404084 	sub	r4, r0, r4, lsl #1
    9a8c:	e1a00006 	mov	r0, r6
    9a90:	ebfff965 	bl	802c <GET32>
    9a94:	e3a01007 	mov	r1, #7, 0
    9a98:	e0844084 	add	r4, r4, r4, lsl #1
    9a9c:	e1c01411 	bic	r1, r0, r1, lsl r4
    9aa0:	e1811415 	orr	r1, r1, r5, lsl r4
    9aa4:	e1a00006 	mov	r0, r6
    9aa8:	e8bd4070 	pop	{r4, r5, r6, lr}
    9aac:	eafff95c 	b	8024 <PUT32>
    9ab0:	cccccccd 	stclgt	12, cr12, [ip], {205}	; 0xcd

00009ab4 <gpio_set_output>:
    9ab4:	e350001f 	cmp	r0, #31, 0
    9ab8:	812fff1e 	bxhi	lr
    9abc:	e92d4070 	push	{r4, r5, r6, lr}
    9ac0:	e59f4040 	ldr	r4, [pc, #64]	; 9b08 <gpio_set_output+0x54>
    9ac4:	e0843094 	umull	r3, r4, r4, r0
    9ac8:	e1a041a4 	lsr	r4, r4, #3
    9acc:	e2843302 	add	r3, r4, #134217728	; 0x8000000
    9ad0:	e2833702 	add	r3, r3, #524288	; 0x80000
    9ad4:	e1a05103 	lsl	r5, r3, #2
    9ad8:	e0844104 	add	r4, r4, r4, lsl #2
    9adc:	e0404084 	sub	r4, r0, r4, lsl #1
    9ae0:	e1a00005 	mov	r0, r5
    9ae4:	ebfff950 	bl	802c <GET32>
    9ae8:	e3a03007 	mov	r3, #7, 0
    9aec:	e3a01001 	mov	r1, #1, 0
    9af0:	e0844084 	add	r4, r4, r4, lsl #1
    9af4:	e1c03413 	bic	r3, r0, r3, lsl r4
    9af8:	e1831411 	orr	r1, r3, r1, lsl r4
    9afc:	e1a00005 	mov	r0, r5
    9b00:	e8bd4070 	pop	{r4, r5, r6, lr}
    9b04:	eafff946 	b	8024 <PUT32>
    9b08:	cccccccd 	stclgt	12, cr12, [ip], {205}	; 0xcd

00009b0c <gpio_set_on>:
    9b0c:	e1a03000 	mov	r3, r0
    9b10:	e3a01001 	mov	r1, #1, 0
    9b14:	e59f0004 	ldr	r0, [pc, #4]	; 9b20 <gpio_set_on+0x14>
    9b18:	e1a01311 	lsl	r1, r1, r3
    9b1c:	eafff940 	b	8024 <PUT32>
    9b20:	2020001c 	eorcs	r0, r0, ip, lsl r0

00009b24 <gpio_set_off>:
    9b24:	e1a03000 	mov	r3, r0
    9b28:	e3a01001 	mov	r1, #1, 0
    9b2c:	e59f0004 	ldr	r0, [pc, #4]	; 9b38 <gpio_set_off+0x14>
    9b30:	e1a01311 	lsl	r1, r1, r3
    9b34:	eafff93a 	b	8024 <PUT32>
    9b38:	20200028 	eorcs	r0, r0, r8, lsr #32

00009b3c <gpio_set_input>:
    9b3c:	e350001f 	cmp	r0, #31, 0
    9b40:	812fff1e 	bxhi	lr
    9b44:	e92d4070 	push	{r4, r5, r6, lr}
    9b48:	e59f5040 	ldr	r5, [pc, #64]	; 9b90 <gpio_set_input+0x54>
    9b4c:	e1a04000 	mov	r4, r0
    9b50:	e0853095 	umull	r3, r5, r5, r0
    9b54:	e1a051a5 	lsr	r5, r5, #3
    9b58:	e2850302 	add	r0, r5, #134217728	; 0x8000000
    9b5c:	e2800702 	add	r0, r0, #524288	; 0x80000
    9b60:	e1a06100 	lsl	r6, r0, #2
    9b64:	e1a00006 	mov	r0, r6
    9b68:	ebfff92f 	bl	802c <GET32>
    9b6c:	e3a01007 	mov	r1, #7, 0
    9b70:	e1a03000 	mov	r3, r0
    9b74:	e0855105 	add	r5, r5, r5, lsl #2
    9b78:	e0444085 	sub	r4, r4, r5, lsl #1
    9b7c:	e0844084 	add	r4, r4, r4, lsl #1
    9b80:	e1a00006 	mov	r0, r6
    9b84:	e1c31411 	bic	r1, r3, r1, lsl r4
    9b88:	e8bd4070 	pop	{r4, r5, r6, lr}
    9b8c:	eafff924 	b	8024 <PUT32>
    9b90:	cccccccd 	stclgt	12, cr12, [ip], {205}	; 0xcd

00009b94 <gpio_write>:
    9b94:	e3510000 	cmp	r1, #0, 0
    9b98:	e3a03001 	mov	r3, #1, 0
    9b9c:	e1a01000 	mov	r1, r0
    9ba0:	0a000002 	beq	9bb0 <gpio_write+0x1c>
    9ba4:	e59f0010 	ldr	r0, [pc, #16]	; 9bbc <gpio_write+0x28>
    9ba8:	e1a01113 	lsl	r1, r3, r1
    9bac:	eafff91c 	b	8024 <PUT32>
    9bb0:	e59f0008 	ldr	r0, [pc, #8]	; 9bc0 <gpio_write+0x2c>
    9bb4:	e1a01113 	lsl	r1, r3, r1
    9bb8:	eafff919 	b	8024 <PUT32>
    9bbc:	2020001c 	eorcs	r0, r0, ip, lsl r0
    9bc0:	20200028 	eorcs	r0, r0, r8, lsr #32

00009bc4 <gpio_read>:
    9bc4:	e92d4010 	push	{r4, lr}
    9bc8:	e1a04000 	mov	r4, r0
    9bcc:	e59f0014 	ldr	r0, [pc, #20]	; 9be8 <gpio_read+0x24>
    9bd0:	e08002a4 	add	r0, r0, r4, lsr #5
    9bd4:	ebfff914 	bl	802c <GET32>
    9bd8:	e204401f 	and	r4, r4, #31, 0
    9bdc:	e1a00430 	lsr	r0, r0, r4
    9be0:	e2000001 	and	r0, r0, #1, 0
    9be4:	e8bd8010 	pop	{r4, pc}
    9be8:	20200034 	eorcs	r0, r0, r4, lsr r0

00009bec <internal_putchar>:
    9bec:	e92d4010 	push	{r4, lr}
    9bf0:	e1a04000 	mov	r4, r0
    9bf4:	ebfffe84 	bl	960c <uart_putc>
    9bf8:	e1a00004 	mov	r0, r4
    9bfc:	e8bd8010 	pop	{r4, pc}

00009c00 <rpi_reset_putc>:
    9c00:	e59f3008 	ldr	r3, [pc, #8]	; 9c10 <rpi_reset_putc+0x10>
    9c04:	e59f2008 	ldr	r2, [pc, #8]	; 9c14 <rpi_reset_putc+0x14>
    9c08:	e5832000 	str	r2, [r3]
    9c0c:	e12fff1e 	bx	lr
    9c10:	0000a2b4 			; <UNDEFINED> instruction: 0x0000a2b4
    9c14:	00009bec 	andeq	r9, r0, ip, ror #23

00009c18 <rpi_set_putc>:
    9c18:	e59f3004 	ldr	r3, [pc, #4]	; 9c24 <rpi_set_putc+0xc>
    9c1c:	e5830000 	str	r0, [r3]
    9c20:	e12fff1e 	bx	lr
    9c24:	0000a2b4 			; <UNDEFINED> instruction: 0x0000a2b4

00009c28 <strcat>:
    9c28:	e1a02000 	mov	r2, r0
    9c2c:	e1a03002 	mov	r3, r2
    9c30:	e4d2c001 	ldrb	ip, [r2], #1
    9c34:	e35c0000 	cmp	ip, #0, 0
    9c38:	1afffffb 	bne	9c2c <strcat+0x4>
    9c3c:	e2433001 	sub	r3, r3, #1, 0
    9c40:	e4d12001 	ldrb	r2, [r1], #1
    9c44:	e3520000 	cmp	r2, #0, 0
    9c48:	e5e32001 	strb	r2, [r3, #1]!
    9c4c:	1afffffb 	bne	9c40 <strcat+0x18>
    9c50:	e12fff1e 	bx	lr

00009c54 <strcmp>:
    9c54:	e5d03000 	ldrb	r3, [r0]
    9c58:	e3530000 	cmp	r3, #0, 0
    9c5c:	05d12000 	ldrbeq	r2, [r1]
    9c60:	1a000003 	bne	9c74 <strcmp+0x20>
    9c64:	ea000006 	b	9c84 <strcmp+0x30>
    9c68:	e5f03001 	ldrb	r3, [r0, #1]!
    9c6c:	e3530000 	cmp	r3, #0, 0
    9c70:	0a000005 	beq	9c8c <strcmp+0x38>
    9c74:	e1a0c001 	mov	ip, r1
    9c78:	e4d12001 	ldrb	r2, [r1], #1
    9c7c:	e1520003 	cmp	r2, r3
    9c80:	0afffff8 	beq	9c68 <strcmp+0x14>
    9c84:	e0430002 	sub	r0, r3, r2
    9c88:	e12fff1e 	bx	lr
    9c8c:	e5dc2001 	ldrb	r2, [ip, #1]
    9c90:	e0430002 	sub	r0, r3, r2
    9c94:	e12fff1e 	bx	lr

00009c98 <strcpy>:
    9c98:	e2402001 	sub	r2, r0, #1, 0
    9c9c:	e4d13001 	ldrb	r3, [r1], #1
    9ca0:	e3530000 	cmp	r3, #0, 0
    9ca4:	e5e23001 	strb	r3, [r2, #1]!
    9ca8:	1afffffb 	bne	9c9c <strcpy+0x4>
    9cac:	e12fff1e 	bx	lr

00009cb0 <strncmp>:
    9cb0:	e0802002 	add	r2, r0, r2
    9cb4:	ea000003 	b	9cc8 <strncmp+0x18>
    9cb8:	e4d03001 	ldrb	r3, [r0], #1
    9cbc:	e4d1c001 	ldrb	ip, [r1], #1
    9cc0:	e153000c 	cmp	r3, ip
    9cc4:	1a000003 	bne	9cd8 <strncmp+0x28>
    9cc8:	e1500002 	cmp	r0, r2
    9ccc:	1afffff9 	bne	9cb8 <strncmp+0x8>
    9cd0:	e3a00000 	mov	r0, #0, 0
    9cd4:	e12fff1e 	bx	lr
    9cd8:	e043000c 	sub	r0, r3, ip
    9cdc:	e12fff1e 	bx	lr

00009ce0 <reboot_callout>:
    9ce0:	e12fff1e 	bx	lr

00009ce4 <dev_barrier>:
    9ce4:	ea000002 	b	9cf4 <dsb>

00009ce8 <dmb>:
    9ce8:	e3a00000 	mov	r0, #0, 0
    9cec:	ee070fba 	mcr	15, 0, r0, cr7, cr10, {5}
    9cf0:	e12fff1e 	bx	lr

00009cf4 <dsb>:
    9cf4:	ee070f9a 	mcr	15, 0, r0, cr7, cr10, {4}
    9cf8:	e12fff1e 	bx	lr

00009cfc <__code_end__>:
    9cfc:	00000000 	andeq	r0, r0, r0

Disassembly of section .rodata:

00009d00 <__FUNCTION__.4005-0x78>:
    9d00:	74736574 	ldrbtvc	r6, [r3], #-1396	; 0xfffffa8c
    9d04:	61702f73 	cmnvs	r0, r3, ror pc
    9d08:	2d327472 	cfldrscs	mvf7, [r2, #-456]!	; 0xfffffe38
    9d0c:	74736574 	ldrbtvc	r6, [r3], #-1396	; 0xfffffa8c
    9d10:	00632e31 	rsbeq	r2, r3, r1, lsr lr
    9d14:	43415254 	movtmi	r5, #4692	; 0x1254
    9d18:	00003a45 	andeq	r3, r0, r5, asr #20
    9d1c:	6f6c6c61 	svcvs	0x006c6c61
    9d20:	65722063 	ldrbvs	r2, [r2, #-99]!	; 0xffffff9d
    9d24:	6e727574 	mrcvs	5, 3, r7, cr2, cr4, {3}
    9d28:	25206465 	strcs	r6, [r0, #-1125]!	; 0xfffffb9b
    9d2c:	00000a70 	andeq	r0, r0, r0, ror sl
    9d30:	74204347 	strtvc	r4, [r0], #-839	; 0xfffffcb9
    9d34:	31747365 	cmncc	r4, r5, ror #6
    9d38:	0000000a 	andeq	r0, r0, sl
    9d3c:	494e4150 	stmdbmi	lr, {r4, r6, r8, lr}^
    9d40:	73253a43 			; <UNDEFINED> instruction: 0x73253a43
    9d44:	3a73253a 	bcc	1cd3234 <__bss_end__+0x1cc8b5c>
    9d48:	733a6425 	teqvc	sl, #620756992	; 0x25000000
    9d4c:	6c756f68 	ldclvs	15, cr6, [r5], #-416	; 0xfffffe60
    9d50:	61682064 	cmnvs	r8, r4, rrx
    9d54:	6e206576 	mcrvs	5, 1, r6, cr0, cr6, {3}
    9d58:	656c206f 	strbvs	r2, [ip, #-111]!	; 0xffffff91
    9d5c:	21736b61 	cmncs	r3, r1, ror #22
    9d60:	00000a0a 	andeq	r0, r0, sl, lsl #20
    9d64:	43435553 	movtmi	r5, #13651	; 0x3553
    9d68:	3a535345 	bcc	14dea84 <__bss_end__+0x14d43ac>
    9d6c:	206f6e20 	rsbcs	r6, pc, r0, lsr #28
    9d70:	6b61656c 	blvs	1863328 <__bss_end__+0x1858c50>
    9d74:	000a2173 	andeq	r2, sl, r3, ror r1

00009d78 <__FUNCTION__.4005>:
    9d78:	74736574 	ldrbtvc	r6, [r3], #-1396	; 0xfffffa8c
    9d7c:	00000031 	andeq	r0, r0, r1, lsr r0

00009d80 <__FUNCTION__.4009>:
    9d80:	6d746f6e 	ldclvs	15, cr6, [r4, #-440]!	; 0xfffffe48
    9d84:	006e6961 	rsbeq	r6, lr, r1, ror #18
    9d88:	6c616b63 			; <UNDEFINED> instruction: 0x6c616b63
    9d8c:	2e636f6c 	cdpcs	15, 6, cr6, cr3, cr12, {3}
    9d90:	00000063 	andeq	r0, r0, r3, rrx
    9d94:	494e4150 	stmdbmi	lr, {r4, r6, r8, lr}^
    9d98:	73253a43 			; <UNDEFINED> instruction: 0x73253a43
    9d9c:	3a73253a 	bcc	1cd328c <__bss_end__+0x1cc8bb4>
    9da0:	253a6425 	ldrcs	r6, [sl, #-1061]!	; 0xfffffbdb
    9da4:	00000a73 	andeq	r0, r0, r3, ror sl
    9da8:	0000006c 	andeq	r0, r0, ip, rrx
    9dac:	494e4150 	stmdbmi	lr, {r4, r6, r8, lr}^
    9db0:	73253a43 			; <UNDEFINED> instruction: 0x73253a43
    9db4:	3a73253a 	bcc	1cd32a4 <__bss_end__+0x1cc8bcc>
    9db8:	643a6425 	ldrtvs	r6, [sl], #-1061	; 0xfffffbdb
    9dbc:	6e206469 	cdpvs	4, 2, cr6, cr0, cr9, {3}
    9dc0:	6620746f 	strtvs	r7, [r0], -pc, ror #8
    9dc4:	20646e69 	rsbcs	r6, r4, r9, ror #28
    9dc8:	69207025 	stmdbvs	r0!, {r0, r2, r5, ip, sp, lr}
    9dcc:	696c206e 	stmdbvs	ip!, {r1, r2, r3, r5, r6, sp}^
    9dd0:	0a0a7473 	beq	2a6fa4 <__bss_end__+0x29c8cc>
    9dd4:	00000000 	andeq	r0, r0, r0
    9dd8:	6e756f66 	cdpvs	15, 7, cr6, cr5, cr6, {3}
    9ddc:	70252064 	eorvc	r2, r5, r4, rrx
    9de0:	206e6920 	rsbcs	r6, lr, r0, lsr #18
    9de4:	000a7025 	andeq	r7, sl, r5, lsr #32
    9de8:	253a7325 	ldrcs	r7, [sl, #-805]!	; 0xfffffcdb
    9dec:	64253a73 	strtvs	r3, [r5], #-2675	; 0xfffff58d
    9df0:	0000003a 	andeq	r0, r0, sl, lsr r0
    9df4:	65657266 	strbvs	r7, [r5, #-614]!	; 0xfffffd9a
    9df8:	20676e69 	rsbcs	r6, r7, r9, ror #28
    9dfc:	0a702509 	beq	1c13228 <__bss_end__+0x1c08b50>
    9e00:	00000000 	andeq	r0, r0, r0
    9e04:	5f434f4c 	svcpl	0x00434f4c
    9e08:	494e4150 	stmdbmi	lr, {r4, r6, r8, lr}^
    9e0c:	25203a43 	strcs	r3, [r0, #-2627]!	; 0xfffff5bd
    9e10:	73253a73 			; <UNDEFINED> instruction: 0x73253a73
    9e14:	3a64253a 	bcc	1913304 <__bss_end__+0x1908c2c>
    9e18:	00000000 	andeq	r0, r0, r0
    9e1c:	65657266 	strbvs	r7, [r5, #-614]!	; 0xfffffd9a
    9e20:	20676e69 	rsbcs	r6, r7, r9, ror #28
    9e24:	6c616e75 	stclvs	14, cr6, [r1], #-468	; 0xfffffe2c
    9e28:	61636f6c 	cmnvs	r3, ip, ror #30
    9e2c:	20646574 	rsbcs	r6, r4, r4, ror r5
    9e30:	6f6d656d 	svcvs	0x006d656d
    9e34:	203a7972 	eorscs	r7, sl, r2, ror r9
    9e38:	74617473 	strbtvc	r7, [r1], #-1139	; 0xfffffb8d
    9e3c:	64253d65 	strtvs	r3, [r5], #-3429	; 0xfffff29b
    9e40:	0000000a 	andeq	r0, r0, sl
    9e44:	705f6b63 	subsvc	r6, pc, r3, ror #22
    9e48:	695f7274 	ldmdbvs	pc, {r2, r4, r5, r6, r9, ip, sp, lr}^	; <UNPREDICTABLE>
    9e4c:	6c615f73 	stclvs	15, cr5, [r1], #-460	; 0xfffffe34
    9e50:	65636f6c 	strbvs	r6, [r3, #-3948]!	; 0xfffff094
    9e54:	64612864 	strbtvs	r2, [r1], #-2148	; 0xfffff79c
    9e58:	00297264 	eoreq	r7, r9, r4, ror #4
    9e5c:	6f6c6c61 	svcvs	0x006c6c61
    9e60:	69746163 	ldmdbvs	r4!, {r0, r1, r5, r6, r8, sp, lr}^
    9e64:	0920676e 	stmdbeq	r0!, {r1, r2, r3, r5, r6, r8, r9, sl, sp, lr}
    9e68:	000a7025 	andeq	r7, sl, r5, lsr #32

00009e6c <__FUNCTION__.4037>:
    9e6c:	7473696c 	ldrbtvc	r6, [r3], #-2412	; 0xfffff694
    9e70:	6d65725f 	sfmvs	f7, 2, [r5, #-380]!	; 0xfffffe84
    9e74:	0065766f 	rsbeq	r7, r5, pc, ror #12

00009e78 <__FUNCTION__.4048>:
    9e78:	72666b63 	rsbvc	r6, r6, #101376	; 0x18c00
    9e7c:	00006565 	andeq	r6, r0, r5, ror #10
    9e80:	672d6b63 	strvs	r6, [sp, -r3, ror #22]!
    9e84:	00632e63 	rsbeq	r2, r3, r3, ror #28
    9e88:	494e4150 	stmdbmi	lr, {r4, r6, r8, lr}^
    9e8c:	73253a43 			; <UNDEFINED> instruction: 0x73253a43
    9e90:	3a73253a 	bcc	1cd3380 <__bss_end__+0x1cc8ca8>
    9e94:	693a6425 	ldmdbvs	sl!, {r0, r2, r5, sl, sp, lr}
    9e98:	656c706d 	strbvs	r7, [ip, #-109]!	; 0xffffff93
    9e9c:	746e656d 	strbtvc	r6, [lr], #-1389	; 0xfffffa93
    9ea0:	69687420 	stmdbvs	r8!, {r5, sl, ip, sp, lr}^
    9ea4:	75662073 	strbvc	r2, [r6, #-115]!	; 0xffffff8d
    9ea8:	6974636e 	ldmdbvs	r4!, {r1, r2, r3, r5, r6, r8, r9, sp, lr}^
    9eac:	0a216e6f 	beq	865870 <__bss_end__+0x85b198>
    9eb0:	0000000a 	andeq	r0, r0, sl
    9eb4:	72636e69 	rsbvc	r6, r3, #1680	; 0x690
    9eb8:	6e656d65 	cdpvs	13, 6, cr6, cr5, cr5, {3}
    9ebc:	203e2074 	eorscs	r2, lr, r4, ror r0
    9ec0:	00000030 	andeq	r0, r0, r0, lsr r0
    9ec4:	494e4150 	stmdbmi	lr, {r4, r6, r8, lr}^
    9ec8:	73253a43 			; <UNDEFINED> instruction: 0x73253a43
    9ecc:	3a73253a 	bcc	1cd33bc <__bss_end__+0x1cc8ce4>
    9ed0:	6e3a6425 	cdpvs	4, 3, cr6, cr10, cr5, {1}
    9ed4:	6820746f 	stmdavs	r0!, {r0, r1, r2, r3, r5, r6, sl, ip, sp, lr}
    9ed8:	6c646e61 	stclvs	14, cr6, [r4], #-388	; 0xfffffe7c
    9edc:	0a676e69 	beq	19e5888 <__bss_end__+0x19db1b0>
    9ee0:	0000000a 	andeq	r0, r0, sl
    9ee4:	494e4150 	stmdbmi	lr, {r4, r6, r8, lr}^
    9ee8:	73253a43 			; <UNDEFINED> instruction: 0x73253a43
    9eec:	3a73253a 	bcc	1cd33dc <__bss_end__+0x1cc8d04>
    9ef0:	643a6425 	ldrtvs	r6, [sl], #-1061	; 0xfffffbdb
    9ef4:	6e206469 	cdpvs	4, 2, cr6, cr0, cr9, {3}
    9ef8:	6920746f 	stmdbvs	r0!, {r0, r1, r2, r3, r5, r6, sl, ip, sp, lr}
    9efc:	656c706d 	strbvs	r7, [ip, #-109]!	; 0xffffff93
    9f00:	746e656d 	strbtvc	r6, [lr], #-1389	; 0xfffffa93
    9f04:	6d756420 	cfldrdvs	mvd6, [r5, #-128]!	; 0xffffff80
    9f08:	65725f70 	ldrbvs	r5, [r2, #-3952]!	; 0xfffff090
    9f0c:	0a217367 	beq	866cb0 <__bss_end__+0x85c5d8>
    9f10:	0000000a 	andeq	r0, r0, sl

00009f14 <__FUNCTION__.4044>:
    9f14:	6b72616d 	blvs	1ca24d0 <__bss_end__+0x1c97df8>
    9f18:	6c6c615f 	stfvse	f6, [ip], #-380	; 0xfffffe84
    9f1c:	00000000 	andeq	r0, r0, r0

00009f20 <__FUNCTION__.4013>:
    9f20:	6b726273 	blvs	1ca28f4 <__bss_end__+0x1c9821c>
    9f24:	00000000 	andeq	r0, r0, r0

00009f28 <__FUNCTION__.4080>:
    9f28:	6c706d69 	ldclvs	13, cr6, [r0], #-420	; 0xfffffe5c
    9f2c:	6e656d65 	cdpvs	13, 6, cr6, cr5, cr5, {3}
    9f30:	68745f74 	ldmdavs	r4!, {r2, r4, r5, r6, r8, r9, sl, fp, ip, lr}^
    9f34:	00007369 	andeq	r7, r0, r9, ror #6
    9f38:	696c2f2e 	stmdbvs	ip!, {r1, r2, r3, r5, r8, r9, sl, fp, sp}^
    9f3c:	762f6362 	strtvc	r6, [pc], -r2, ror #6
    9f40:	72702d61 	rsbsvc	r2, r0, #6208	; 0x1840
    9f44:	6b746e69 	blvs	1d258f0 <__bss_end__+0x1d1b218>
    9f48:	0000632e 	andeq	r6, r0, lr, lsr #6
    9f4c:	33323130 	teqcc	r2, #12
    9f50:	37363534 			; <UNDEFINED> instruction: 0x37363534
    9f54:	62613938 	rsbvs	r3, r1, #56, 18	; 0xe0000
    9f58:	66656463 	strbtvs	r6, [r5], -r3, ror #8
    9f5c:	00000000 	andeq	r0, r0, r0
    9f60:	00003130 	andeq	r3, r0, r0, lsr r1
    9f64:	33323130 	teqcc	r2, #12
    9f68:	37363534 			; <UNDEFINED> instruction: 0x37363534
    9f6c:	00003938 	andeq	r3, r0, r8, lsr r9
    9f70:	63747570 	cmnvs	r4, #112, 10	; 0x1c000000
    9f74:	0070665f 	rsbseq	r6, r0, pc, asr r6
    9f78:	74646977 	strbtvc	r6, [r4], #-2423	; 0xfffff689
    9f7c:	203c2068 	eorscs	r2, ip, r8, rrx
    9f80:	00003233 	andeq	r3, r0, r3, lsr r2
    9f84:	00786c6c 	rsbseq	r6, r8, ip, ror #24
    9f88:	253d3078 	ldrcs	r3, [sp, #-120]!	; 0xffffff88
    9f8c:	00000a78 	andeq	r0, r0, r8, ror sl
    9f90:	253d3178 	ldrcs	r3, [sp, #-376]!	; 0xfffffe88
    9f94:	00000a78 	andeq	r0, r0, r8, ror sl
    9f98:	00646c6c 	rsbeq	r6, r4, ip, ror #24
    9f9c:	6e727473 	mrcvs	4, 3, r7, cr2, cr3, {3}
    9fa0:	28706d63 	ldmdacs	r0!, {r0, r1, r5, r6, r8, sl, fp, sp, lr}^
    9fa4:	202c7974 	eorcs	r7, ip, r4, ror r9
    9fa8:	786c6c22 	stmdavc	ip!, {r1, r5, sl, fp, sp, lr}^
    9fac:	33202c22 			; <UNDEFINED> instruction: 0x33202c22
    9fb0:	3d3d2029 	ldccc	0, cr2, [sp, #-164]!	; 0xffffff5c
    9fb4:	7c203020 	stcvc	0, cr3, [r0], #-128	; 0xffffff80
    9fb8:	7473207c 	ldrbtvc	r2, [r3], #-124	; 0xffffff84
    9fbc:	6d636e72 	stclvs	14, cr6, [r3, #-456]!	; 0xfffffe38
    9fc0:	79742870 	ldmdbvc	r4!, {r4, r5, r6, fp, sp}^
    9fc4:	6c22202c 	stcvs	0, cr2, [r2], #-176	; 0xffffff50
    9fc8:	2c22646c 	cfstrscs	mvf6, [r2], #-432	; 0xfffffe50
    9fcc:	20293320 	eorcs	r3, r9, r0, lsr #6
    9fd0:	30203d3d 	eorcc	r3, r0, sp, lsr sp
    9fd4:	00000000 	andeq	r0, r0, r0
    9fd8:	494e4150 	stmdbmi	lr, {r4, r6, r8, lr}^
    9fdc:	73253a43 			; <UNDEFINED> instruction: 0x73253a43
    9fe0:	3a73253a 	bcc	1cd34d0 <__bss_end__+0x1cc8df8>
    9fe4:	693a6425 	ldmdbvs	sl!, {r0, r2, r5, sl, sp, lr}
    9fe8:	736f706d 	cmnvc	pc, #109, 0	; 0x6d
    9fec:	6c626973 			; <UNDEFINED> instruction: 0x6c626973
    9ff0:	66203a65 	strtvs	r3, [r0], -r5, ror #20
    9ff4:	3c3d746d 	cfldrscc	mvf7, [sp], #-436	; 0xfffffe4c
    9ff8:	0a3e7325 	beq	fa6c94 <__bss_end__+0xf9c5bc>
    9ffc:	0000000a 	andeq	r0, r0, sl
    a000:	494e4150 	stmdbmi	lr, {r4, r6, r8, lr}^
    a004:	73253a43 			; <UNDEFINED> instruction: 0x73253a43
    a008:	3a73253a 	bcc	1cd34f8 <__bss_end__+0x1cc8e20>
    a00c:	663a6425 	ldrtvs	r6, [sl], -r5, lsr #8
    a010:	74616f6c 	strbtvc	r6, [r1], #-3948	; 0xfffff094
    a014:	746f6e20 	strbtvc	r6, [pc], #-3616	; a01c <__FUNCTION__.4080+0xf4>
    a018:	616e6520 	cmnvs	lr, r0, lsr #10
    a01c:	64656c62 	strbtvs	r6, [r5], #-3170	; 0xfffff39e
    a020:	0a212121 	beq	8524ac <__bss_end__+0x847dd4>
    a024:	00000000 	andeq	r0, r0, r0
    a028:	6e697270 	mcrvs	2, 3, r7, cr9, cr0, {3}
    a02c:	203a6b74 	eorscs	r6, sl, r4, ror fp
    a030:	20746f6e 	rsbscs	r6, r4, lr, ror #30
    a034:	646e6168 	strbtvs	r6, [lr], #-360	; 0xfffffe98
    a038:	676e696c 	strbvs	r6, [lr, -ip, ror #18]!
    a03c:	65707320 	ldrbvs	r7, [r0, #-800]!	; 0xfffffce0
    a040:	69666963 	stmdbvs	r6!, {r0, r1, r5, r6, r8, fp, sp, lr}^
    a044:	27207265 	strcs	r7, [r0, -r5, ror #4]!
    a048:	20276325 	eorcs	r6, r7, r5, lsr #6
    a04c:	63736128 	cmnvs	r3, #10
    a050:	253d6969 	ldrcs	r6, [sp, #-2409]!	; 0xfffff697
    a054:	000a2964 	andeq	r2, sl, r4, ror #18
    a058:	494e4150 	stmdbmi	lr, {r4, r6, r8, lr}^
    a05c:	73253a43 			; <UNDEFINED> instruction: 0x73253a43
    a060:	3a73253a 	bcc	1cd3550 <__bss_end__+0x1cc8e78>
    a064:	703a6425 	eorsvc	r6, sl, r5, lsr #8
    a068:	746e6972 	strbtvc	r6, [lr], #-2418	; 0xfffff68e
    a06c:	7265206b 	rsbvc	r2, r5, #107, 0	; 0x6b
    a070:	0a726f72 	beq	1ca5e40 <__bss_end__+0x1c9b768>
    a074:	0000000a 	andeq	r0, r0, sl

0000a078 <__FUNCTION__.4004>:
    a078:	74696d65 	strbtvc	r6, [r9], #-3429	; 0xfffff29b
    a07c:	00000000 	andeq	r0, r0, r0

0000a080 <__FUNCTION__.3952>:
    a080:	5f697072 	svcpl	0x00697072
    a084:	5f746573 	svcpl	0x00746573
    a088:	7074756f 	rsbsvc	r7, r4, pc, ror #10
    a08c:	00007475 	andeq	r7, r0, r5, ror r4

0000a090 <__FUNCTION__.4030>:
    a090:	705f6176 	subsvc	r6, pc, r6, ror r1	; <UNPREDICTABLE>
    a094:	746e6972 	strbtvc	r6, [lr], #-2418	; 0xfffff68e
    a098:	0000006b 	andeq	r0, r0, fp, rrx
    a09c:	454e4f44 	strbmi	r4, [lr, #-3908]	; 0xfffff0bc
    a0a0:	0a212121 	beq	85252c <__bss_end__+0x847e54>
    a0a4:	00000000 	andeq	r0, r0, r0
    a0a8:	6c616d6b 	stclvs	13, cr6, [r1], #-428	; 0xfffffe54
    a0ac:	2e636f6c 	cdpcs	15, 6, cr6, cr3, cr12, {3}
    a0b0:	00000063 	andeq	r0, r0, r3, rrx
    a0b4:	5f78616d 	svcpl	0x0078616d
    a0b8:	7479626e 	ldrbtvc	r6, [r9], #-622	; 0xfffffd92
    a0bc:	00007365 	andeq	r7, r0, r5, ror #6
    a0c0:	494e4150 	stmdbmi	lr, {r4, r6, r8, lr}^
    a0c4:	73253a43 			; <UNDEFINED> instruction: 0x73253a43
    a0c8:	3a73253a 	bcc	1cd35b8 <__bss_end__+0x1cc8ee0>
    a0cc:	733a6425 	teqvc	sl, #620756992	; 0x25000000
    a0d0:	69747465 	ldmdbvs	r4!, {r0, r2, r5, r6, sl, ip, sp, lr}^
    a0d4:	6820676e 	stmdavs	r0!, {r1, r2, r3, r5, r6, r8, r9, sl, sp, lr}
    a0d8:	20706165 	rsbscs	r6, r0, r5, ror #2
    a0dc:	25206f74 	strcs	r6, [r0, #-3956]!	; 0xfffff08c
    a0e0:	77203a70 			; <UNDEFINED> instruction: 0x77203a70
    a0e4:	206c6c69 	rsbcs	r6, ip, r9, ror #24
    a0e8:	20746968 	rsbscs	r6, r4, r8, ror #18
    a0ec:	20656874 	rsbcs	r6, r5, r4, ror r8
    a0f0:	20646c6f 	rsbcs	r6, r4, pc, ror #24
    a0f4:	70616568 	rsbvc	r6, r1, r8, ror #10
    a0f8:	20746120 	rsbscs	r6, r4, r0, lsr #2
    a0fc:	0a0a7025 	beq	2a6198 <__bss_end__+0x29bac0>
    a100:	00000000 	andeq	r0, r0, r0
    a104:	494e4150 	stmdbmi	lr, {r4, r6, r8, lr}^
    a108:	73253a43 			; <UNDEFINED> instruction: 0x73253a43
    a10c:	3a73253a 	bcc	1cd35fc <__bss_end__+0x1cc8f24>
    a110:	613a6425 	teqvs	sl, r5, lsr #8
    a114:	6165726c 	cmnvs	r5, ip, ror #4
    a118:	63207964 			; <UNDEFINED> instruction: 0x63207964
    a11c:	656c6c61 	strbvs	r6, [ip, #-3169]!	; 0xfffff39f
    a120:	6d6b2064 	stclvs	0, cr2, [fp, #-400]!	; 0xfffffe70
    a124:	6f6c6c61 	svcvs	0x006c6c61
    a128:	6e695f63 	cdpvs	15, 6, cr5, cr9, cr3, {3}
    a12c:	0a0a7469 	beq	2a72d8 <__bss_end__+0x29cc00>
    a130:	00000000 	andeq	r0, r0, r0
    a134:	494e4150 	stmdbmi	lr, {r4, r6, r8, lr}^
    a138:	73253a43 			; <UNDEFINED> instruction: 0x73253a43
    a13c:	3a73253a 	bcc	1cd362c <__bss_end__+0x1cc8f54>
    a140:	253a6425 	ldrcs	r6, [sl, #-1061]!	; 0xfffffbdb
    a144:	626e2064 	rsbvs	r2, lr, #100, 0	; 0x64
    a148:	73657479 	cmnvc	r5, #2030043136	; 0x79000000
    a14c:	63786520 	cmnvs	r8, #32, 10	; 0x8000000
    a150:	65646565 	strbvs	r6, [r4, #-1381]!	; 0xfffffa9b
    a154:	69732064 	ldmdbvs	r3!, {r2, r5, r6, sp}^
    a158:	6f20657a 	svcvs	0x0020657a
    a15c:	65682066 	strbvs	r2, [r8, #-102]!	; 0xffffff9a
    a160:	62207061 	eorvs	r7, r0, #97, 0	; 0x61
    a164:	75252079 	strvc	r2, [r5, #-121]!	; 0xffffff87
    a168:	79626e20 	stmdbvc	r2!, {r5, r9, sl, fp, sp, lr}^
    a16c:	0a736574 	beq	1ce3744 <__bss_end__+0x1cd906c>
    a170:	0000000a 	andeq	r0, r0, sl
    a174:	4f525245 	svcmi	0x00525245
    a178:	73253a52 			; <UNDEFINED> instruction: 0x73253a52
    a17c:	3a73253a 	bcc	1cd366c <__bss_end__+0x1cc8f94>
    a180:	203a6425 	eorscs	r6, sl, r5, lsr #8
    a184:	534c4146 	movtpl	r4, #49478	; 0xc146
    a188:	253c2845 	ldrcs	r2, [ip, #-2117]!	; 0xfffff7bb
    a18c:	3a293e73 	bcc	a59b60 <__bss_end__+0xa4f488>
    a190:	73736120 	cmnvc	r3, #8
    a194:	6e696d75 	mcrvs	13, 3, r6, cr9, cr5, {3}
    a198:	6f702067 	svcvs	0x00702067
    a19c:	20726577 	rsbscs	r6, r2, r7, ror r5
    a1a0:	7420666f 	strtvc	r6, [r0], #-1647	; 0xfffff991
    a1a4:	000a6f77 	andeq	r6, sl, r7, ror pc
    a1a8:	705f7369 	subsvc	r7, pc, r9, ror #6
    a1ac:	2832776f 	ldmdacs	r2!, {r0, r1, r2, r3, r5, r6, r8, r9, sl, ip, sp, lr}
    a1b0:	67696c61 	strbvs	r6, [r9, -r1, ror #24]!
    a1b4:	6e656d6e 	cdpvs	13, 6, cr6, cr5, cr14, {3}
    a1b8:	00002974 	andeq	r2, r0, r4, ror r9
    a1bc:	705f7369 	subsvc	r7, pc, r9, ror #6
    a1c0:	2832776f 	ldmdacs	r2!, {r0, r1, r2, r3, r5, r6, r8, r9, sl, ip, sp, lr}
    a1c4:	0000296e 	andeq	r2, r0, lr, ror #18
    a1c8:	4f525245 	svcmi	0x00525245
    a1cc:	73253a52 			; <UNDEFINED> instruction: 0x73253a52
    a1d0:	3a73253a 	bcc	1cd36c0 <__bss_end__+0x1cc8fe8>
    a1d4:	203a6425 	eorscs	r6, sl, r5, lsr #8
    a1d8:	534c4146 	movtpl	r4, #49478	; 0xc146
    a1dc:	253c2845 	ldrcs	r2, [ip, #-2117]!	; 0xfffff7bb
    a1e0:	3a293e73 	bcc	a59bb4 <__bss_end__+0xa4f4dc>
    a1e4:	706d6920 	rsbvc	r6, sp, r0, lsr #18
    a1e8:	6973736f 	ldmdbvs	r3!, {r0, r1, r2, r3, r5, r6, r8, r9, ip, sp, lr}^
    a1ec:	0a656c62 	beq	196537c <__bss_end__+0x195aca4>
    a1f0:	00000000 	andeq	r0, r0, r0
    a1f4:	615f7369 	cmpvs	pc, r9, ror #6
    a1f8:	6e67696c 	vnmulvs.f16	s13, s14, s25	; <UNPREDICTABLE>
    a1fc:	68286465 	stmdavs	r8!, {r0, r2, r5, r6, sl, sp, lr}
    a200:	6c61202c 	stclvs	0, cr2, [r1], #-176	; 0xffffff50
    a204:	6d6e6769 	stclvs	7, cr6, [lr, #-420]!	; 0xfffffe5c
    a208:	29746e65 	ldmdbcs	r4!, {r0, r2, r5, r6, r9, sl, fp, sp, lr}^
    a20c:	00000000 	andeq	r0, r0, r0
    a210:	494e4150 	stmdbmi	lr, {r4, r6, r8, lr}^
    a214:	73253a43 			; <UNDEFINED> instruction: 0x73253a43
    a218:	3a73253a 	bcc	1cd3708 <__bss_end__+0x1cc9030>
    a21c:	703a6425 	eorsvc	r6, sl, r5, lsr #8
    a220:	746e696f 	strbtvc	r6, [lr], #-2415	; 0xfffff691
    a224:	25207265 	strcs	r7, [r0, #-613]!	; 0xfffffd9b
    a228:	61772070 	cmnvs	r7, r0, ror r0
    a22c:	656e2073 	strbvs	r2, [lr, #-115]!	; 0xffffff8d
    a230:	20726576 	rsbscs	r6, r2, r6, ror r5
    a234:	6f6c6c61 	svcvs	0x006c6c61
    a238:	65746163 	ldrbvs	r6, [r4, #-355]!	; 0xfffffe9d
    a23c:	000a0a64 	andeq	r0, sl, r4, ror #20

0000a240 <__FUNCTION__.7>:
    a240:	6c616d6b 	stclvs	13, cr6, [r1], #-428	; 0xfffffe54
    a244:	5f636f6c 	svcpl	0x00636f6c
    a248:	74696e69 	strbtvc	r6, [r9], #-3689	; 0xfffff197
    a24c:	7465735f 	strbtvc	r7, [r5], #-863	; 0xfffffca1
    a250:	6174735f 	cmnvs	r4, pc, asr r3
    a254:	00007472 	andeq	r7, r0, r2, ror r4

0000a258 <__FUNCTION__.5>:
    a258:	6c616d6b 	stclvs	13, cr6, [r1], #-428	; 0xfffffe54
    a25c:	5f636f6c 	svcpl	0x00636f6c
    a260:	74696e69 	strbtvc	r6, [r9], #-3689	; 0xfffff197
    a264:	00000000 	andeq	r0, r0, r0

0000a268 <__FUNCTION__.4>:
    a268:	6c616d6b 	stclvs	13, cr6, [r1], #-428	; 0xfffffe54
    a26c:	5f636f6c 	svcpl	0x00636f6c
    a270:	7a746f6e 	bvc	1d26030 <__bss_end__+0x1d1b958>
    a274:	006f7265 	rsbeq	r7, pc, r5, ror #4

0000a278 <__FUNCTION__.2>:
    a278:	6c616d6b 	stclvs	13, cr6, [r1], #-428	; 0xfffffe54
    a27c:	00636f6c 	rsbeq	r6, r3, ip, ror #30

0000a280 <__FUNCTION__.1>:
    a280:	6c616d6b 	stclvs	13, cr6, [r1], #-428	; 0xfffffe54
    a284:	5f636f6c 	svcpl	0x00636f6c
    a288:	67696c61 	strbvs	r6, [r9, -r1, ror #24]!
    a28c:	0064656e 	rsbeq	r6, r4, lr, ror #10

0000a290 <__FUNCTION__.3>:
    a290:	6e756f72 	mrcvs	15, 3, r6, cr5, cr2, {3}
    a294:	00707564 	rsbseq	r7, r0, r4, ror #10

0000a298 <__FUNCTION__.0>:
    a298:	6572666b 	ldrbvs	r6, [r2, #-1643]!	; 0xfffff995
    a29c:	6f705f65 	svcvs	0x00705f65
    a2a0:	Address 0x000000000000a2a0 is out of bounds.


Disassembly of section .data:

0000a2a4 <putk>:
    a2a4:	000087f8 	strdeq	r8, [r0], -r8	; <UNPREDICTABLE>

0000a2a8 <heap>:
    a2a8:	0000a6d8 	ldrdeq	sl, [r0], -r8

0000a2ac <heap_start>:
    a2ac:	0000a6d8 	ldrdeq	sl, [r0], -r8

0000a2b0 <heap_end>:
    a2b0:	0020a6d8 	ldrdeq	sl, [r0], -r8	; <UNPREDICTABLE>

0000a2b4 <rpi_putchar>:
    a2b4:	00009bec 	andeq	r9, r0, ip, ror #23

Disassembly of section .bss:

0000a2b8 <__bss_start__>:
	...

0000a2c0 <freep>:
	...

0000a2c8 <base>:
	...

0000a2d0 <init_p.4012>:
    a2d0:	00000000 	andeq	r0, r0, r0

0000a2d4 <buf.3944>:
	...

0000a6d4 <init_p.6>:
    a6d4:	00000000 	andeq	r0, r0, r0

Disassembly of section .ARM.attributes:

00000000 <.ARM.attributes>:
   0:	00002a41 	andeq	r2, r0, r1, asr #20
   4:	61656100 	cmnvs	r5, r0, lsl #2
   8:	01006962 	tsteq	r0, r2, ror #18
   c:	00000020 	andeq	r0, r0, r0, lsr #32
  10:	4b5a3605 	blmi	168d82c <__bss_end__+0x1683154>
  14:	08070600 	stmdaeq	r7, {r9, sl}
  18:	12010901 	andne	r0, r1, #16384	; 0x4000
  1c:	15011404 	strne	r1, [r1, #-1028]	; 0xfffffbfc
  20:	18031701 	stmdane	r3, {r0, r8, r9, sl, ip}
  24:	22011a01 	andcs	r1, r1, #4096	; 0x1000
  28:	Address 0x0000000000000028 is out of bounds.


Disassembly of section .comment:

00000000 <.comment>:
   0:	3a434347 	bcc	10d0d24 <__bss_end__+0x10c664c>
   4:	4e472820 	cdpmi	8, 4, cr2, cr7, cr0, {1}
   8:	6f542055 	svcvs	0x00542055
   c:	20736c6f 	rsbscs	r6, r3, pc, ror #24
  10:	20726f66 	rsbscs	r6, r2, r6, ror #30
  14:	206d7241 	rsbcs	r7, sp, r1, asr #4
  18:	65626d45 	strbvs	r6, [r2, #-3397]!	; 0xfffff2bb
  1c:	64656464 	strbtvs	r6, [r5], #-1124	; 0xfffffb9c
  20:	6f725020 	svcvs	0x00725020
  24:	73736563 	cmnvc	r3, #415236096	; 0x18c00000
  28:	2073726f 	rsbscs	r7, r3, pc, ror #4
  2c:	30322d39 	eorscc	r2, r2, r9, lsr sp
  30:	712d3931 			; <UNDEFINED> instruction: 0x712d3931
  34:	616d2d34 	cmnvs	sp, r4, lsr sp
  38:	29726f6a 	ldmdbcs	r2!, {r1, r3, r5, r6, r8, r9, sl, fp, sp, lr}^
  3c:	322e3920 	eorcc	r3, lr, #32, 18	; 0x80000
  40:	3220312e 	eorcc	r3, r0, #-2147483637	; 0x8000000b
  44:	31393130 	teqcc	r9, r0, lsr r1
  48:	20353230 	eorscs	r3, r5, r0, lsr r2
  4c:	6c657228 	sfmvs	f7, 2, [r5], #-160	; 0xffffff60
  50:	65736165 	ldrbvs	r6, [r3, #-357]!	; 0xfffffe9b
  54:	415b2029 	cmpmi	fp, r9, lsr #32
  58:	612f4d52 			; <UNDEFINED> instruction: 0x612f4d52
  5c:	392d6d72 	pushcc	{r1, r4, r5, r6, r8, sl, fp, sp, lr}
  60:	6172622d 	cmnvs	r2, sp, lsr #4
  64:	2068636e 	rsbcs	r6, r8, lr, ror #6
  68:	69766572 	ldmdbvs	r6!, {r1, r4, r5, r6, r8, sl, sp, lr}^
  6c:	6e6f6973 			; <UNDEFINED> instruction: 0x6e6f6973
  70:	37373220 	ldrcc	r3, [r7, -r0, lsr #4]!
  74:	5d393935 			; <UNDEFINED> instruction: 0x5d393935
  78:	43434700 	movtmi	r4, #14080	; 0x3700
  7c:	4728203a 			; <UNDEFINED> instruction: 0x4728203a
  80:	4120554e 			; <UNDEFINED> instruction: 0x4120554e
  84:	45206d72 	strmi	r6, [r0, #-3442]!	; 0xfffff28e
  88:	6465626d 	strbtvs	r6, [r5], #-621	; 0xfffffd93
  8c:	20646564 	rsbcs	r6, r4, r4, ror #10
  90:	6c6f6f54 	stclvs	15, cr6, [pc], #-336	; ffffff48 <__bss_end__+0xffff5870>
  94:	69616863 	stmdbvs	r1!, {r0, r1, r5, r6, fp, sp, lr}^
  98:	3031206e 	eorscc	r2, r1, lr, rrx
  9c:	322d332e 	eorcc	r3, sp, #-1207959552	; 0xb8000000
  a0:	2e313230 	mrccs	2, 1, r3, cr1, cr0, {1}
  a4:	20293031 	eorcs	r3, r9, r1, lsr r0
  a8:	332e3031 			; <UNDEFINED> instruction: 0x332e3031
  ac:	3220312e 	eorcc	r3, r0, #-2147483637	; 0x8000000b
  b0:	30313230 	eorscc	r3, r1, r0, lsr r2
  b4:	20343238 	eorscs	r3, r4, r8, lsr r2
  b8:	6c657228 	sfmvs	f7, 2, [r5], #-160	; 0xffffff60
  bc:	65736165 	ldrbvs	r6, [r3, #-357]!	; 0xfffffe9b
  c0:	Address 0x00000000000000c0 is out of bounds.


Disassembly of section .debug_info:

00000000 <.debug_info>:
       0:	0000039e 	muleq	r0, lr, r3
       4:	00000004 	andeq	r0, r0, r4
       8:	01040000 	mrseq	r0, (UNDEF: 4)
       c:	0000010e 	andeq	r0, r0, lr, lsl #2
      10:	00007c0c 	andeq	r7, r0, ip, lsl #24
      14:	0000b500 	andeq	fp, r0, r0, lsl #10
      18:	00803800 	addeq	r3, r0, r0, lsl #16
      1c:	0000f400 	andeq	pc, r0, r0, lsl #8
      20:	00000000 	andeq	r0, r0, r0
      24:	05040200 	streq	r0, [r4, #-512]	; 0xfffffe00
      28:	00746e69 	rsbseq	r6, r4, r9, ror #28
      2c:	9a070403 	bls	1c1040 <__bss_end__+0x1b6968>
      30:	03000000 	movweq	r0, #0
      34:	002c0601 	eoreq	r0, ip, r1, lsl #12
      38:	02030000 	andeq	r0, r3, #0, 0
      3c:	0000ee05 	andeq	lr, r0, r5, lsl #28
      40:	05040300 	streq	r0, [r4, #-768]	; 0xfffffd00
      44:	000000ac 	andeq	r0, r0, ip, lsr #1
      48:	a7050803 	strge	r0, [r5, -r3, lsl #16]
      4c:	03000000 	movweq	r0, #0
      50:	002a0801 	eoreq	r0, sl, r1, lsl #16
      54:	02030000 	andeq	r0, r3, #0, 0
      58:	00004507 	andeq	r4, r0, r7, lsl #10
      5c:	07040300 	streq	r0, [r4, -r0, lsl #6]
      60:	00000095 	muleq	r0, r5, r0
      64:	90070803 	andls	r0, r7, r3, lsl #16
      68:	04000000 	streq	r0, [r0], #-0
      6c:	00000025 	andeq	r0, r0, r5, lsr #32
      70:	0000007a 	andeq	r0, r0, sl, ror r0
      74:	00002505 	andeq	r2, r0, r5, lsl #10
      78:	02060000 	andeq	r0, r6, #0, 0
      7c:	03000001 	movweq	r0, #1
      80:	00860e1c 	addeq	r0, r6, ip, lsl lr
      84:	04070000 	streq	r0, [r7], #-0
      88:	0000006b 	andeq	r0, r0, fp, rrx
      8c:	00002504 	andeq	r2, r0, r4, lsl #10
      90:	00009b00 	andeq	r9, r0, r0, lsl #22
      94:	009b0500 	addseq	r0, fp, r0, lsl #10
      98:	07000000 	streq	r0, [r0, -r0]
      9c:	0000a804 	andeq	sl, r0, r4, lsl #16
      a0:	08010300 	stmdaeq	r1, {r8, r9}
      a4:	00000033 	andeq	r0, r0, r3, lsr r0
      a8:	0000a108 	andeq	sl, r0, r8, lsl #2
      ac:	05720600 	ldrbeq	r0, [r2, #-1536]!	; 0xfffffa00
      b0:	21030000 	mrscs	r0, (UNDEF: 3)
      b4:	0000b90e 	andeq	fp, r0, lr, lsl #18
      b8:	8c040700 	stchi	7, cr0, [r4], {-0}
      bc:	09000000 	stmdbeq	r0, {}	; <UNPREDICTABLE>
      c0:	0904020c 	stmdbeq	r4, {r2, r3, r9}
      c4:	000000f0 	strdeq	r0, [r0], -r0	; <UNPREDICTABLE>
      c8:	0000250a 	andeq	r2, r0, sl, lsl #10
      cc:	11060200 	mrsne	r0, LR_usr
      d0:	0000009b 	muleq	r0, fp, r0
      d4:	006a0a00 	rsbeq	r0, sl, r0, lsl #20
      d8:	07020000 	streq	r0, [r2, -r0]
      dc:	00009b11 	andeq	r9, r0, r1, lsl fp
      e0:	080a0400 	stmdaeq	sl, {sl}
      e4:	02000000 	andeq	r0, r0, #0, 0
      e8:	002c0e08 	eoreq	r0, ip, r8, lsl #28
      ec:	00080000 	andeq	r0, r8, r0
      f0:	0000f80b 	andeq	pc, r0, fp, lsl #16
      f4:	03090200 	movweq	r0, #37376	; 0x9200
      f8:	000000bf 	strheq	r0, [r0], -pc	; <UNPREDICTABLE>
      fc:	00001d0c 	andeq	r1, r0, ip, lsl #26
     100:	060f0100 	streq	r0, [pc], -r0, lsl #2
     104:	000080c8 	andeq	r8, r0, r8, asr #1
     108:	00000064 	andeq	r0, r0, r4, rrx
     10c:	01ba9c01 			; <UNDEFINED> instruction: 0x01ba9c01
     110:	6f0d0000 	svcvs	0x000d0000
     114:	ca000000 	bgt	11c <__code_start__-0x7ee4>
     118:	05000001 	streq	r0, [r0, #-1]
     11c:	009d8003 	addseq	r8, sp, r3
     120:	80d40e00 	sbcshi	r0, r4, r0, lsl #28
     124:	034f0000 	movteq	r0, #61440	; 0xf000
     128:	01380000 	teqeq	r8, r0
     12c:	010f0000 	mrseq	r0, CPSR
     130:	30030550 	andcc	r0, r3, r0, asr r5
     134:	0000009d 	muleq	r0, sp, r0
     138:	0080d810 	addeq	sp, r0, r0, lsl r8
     13c:	0001cf00 	andeq	ip, r1, r0, lsl #30
     140:	80e00e00 	rschi	r0, r0, r0, lsl #28
     144:	035b0000 	cmpeq	fp, #0, 0
     148:	01540000 	cmpeq	r4, r0
     14c:	010f0000 	mrseq	r0, CPSR
     150:	00310150 	eorseq	r0, r1, r0, asr r1
     154:	0080f00e 	addeq	pc, r0, lr
     158:	00034f00 	andeq	r4, r3, r0, lsl #30
     15c:	00016b00 	andeq	r6, r1, r0, lsl #22
     160:	50010f00 	andpl	r0, r1, r0, lsl #30
     164:	9d140305 	ldcls	3, cr0, [r4, #-20]	; 0xffffffec
     168:	0e000000 	cdpeq	0, 0, cr0, cr0, cr0, {0}
     16c:	000080f8 	strdeq	r8, [r0], -r8	; <UNPREDICTABLE>
     170:	0000034f 	andeq	r0, r0, pc, asr #6
     174:	00000182 	andeq	r0, r0, r2, lsl #3
     178:	0550010f 	ldrbeq	r0, [r0, #-271]	; 0xfffffef1
     17c:	009d6403 	addseq	r6, sp, r3, lsl #8
     180:	100e0000 	andne	r0, lr, r0
     184:	4f000081 	svcmi	0x00000081
     188:	b0000003 	andlt	r0, r0, r3
     18c:	0f000001 	svceq	0x00000001
     190:	03055001 	movweq	r5, #20481	; 0x5001
     194:	00009d3c 	andeq	r9, r0, ip, lsr sp
     198:	0551010f 	ldrbeq	r0, [r1, #-271]	; 0xfffffef1
     19c:	009d0003 	addseq	r0, sp, r3
     1a0:	52010f00 	andpl	r0, r1, #0, 30
     1a4:	9d800305 	stcls	3, cr0, [r0, #20]
     1a8:	010f0000 	mrseq	r0, CPSR
     1ac:	004f0153 	subeq	r0, pc, r3, asr r1	; <UNPREDICTABLE>
     1b0:	00811410 	addeq	r1, r1, r0, lsl r4
     1b4:	00036700 	andeq	r6, r3, r0, lsl #14
     1b8:	a8110000 	ldmdage	r1, {}	; <UNPREDICTABLE>
     1bc:	ca000000 	bgt	1c4 <__code_start__-0x7e3c>
     1c0:	12000001 	andne	r0, r0, #1, 0
     1c4:	0000002c 	andeq	r0, r0, ip, lsr #32
     1c8:	ba080007 	blt	2001ec <__bss_end__+0x1f5b14>
     1cc:	0c000001 	stceq	0, cr0, [r0], {1}
     1d0:	000001c3 	andeq	r0, r0, r3, asr #3
     1d4:	38060801 	stmdacc	r6, {r0, fp}
     1d8:	90000080 	andls	r0, r0, r0, lsl #1
     1dc:	01000000 	mrseq	r0, (UNDEF: 0)
     1e0:	0002fe9c 	muleq	r2, ip, lr
     1e4:	00701300 	rsbseq	r1, r0, r0, lsl #6
     1e8:	fe0b0901 	vseleq.f16	s0, s22, s2
     1ec:	04000002 	streq	r0, [r0], #-2
     1f0:	00000000 	andeq	r0, r0, r0
     1f4:	0d000000 	stceq	0, cr0, [r0, #-0]
     1f8:	0000006f 	andeq	r0, r0, pc, rrx
     1fc:	00000314 	andeq	r0, r0, r4, lsl r3
     200:	9d780305 	ldclls	3, cr0, [r8, #-20]!	; 0xffffffec
     204:	19140000 	ldmdbne	r4, {}	; <UNPREDICTABLE>
     208:	40000003 	andmi	r0, r0, r3
     20c:	01000080 	smlabbeq	r0, r0, r0, r0
     210:	00008040 	andeq	r8, r0, r0, asr #32
     214:	00000018 	andeq	r0, r0, r8, lsl r0
     218:	470f0901 	strmi	r0, [pc, -r1, lsl #18]
     21c:	15000002 	strne	r0, [r0, #-2]
     220:	00000342 	andeq	r0, r0, r2, asr #6
     224:	00000024 	andeq	r0, r0, r4, lsr #32
     228:	00000022 	andeq	r0, r0, r2, lsr #32
     22c:	00033615 	andeq	r3, r3, r5, lsl r6
     230:	00003a00 	andeq	r3, r0, r0, lsl #20
     234:	00003800 	andeq	r3, r0, r0, lsl #16
     238:	032a1500 			; <UNDEFINED> instruction: 0x032a1500
     23c:	00540000 	subseq	r0, r4, r0
     240:	00520000 	subseq	r0, r2, r0
     244:	14000000 	strne	r0, [r0], #-0
     248:	00000319 	andeq	r0, r0, r9, lsl r3
     24c:	00008090 	muleq	r0, r0, r0
     250:	00809001 	addeq	r9, r0, r1
     254:	00001000 	andeq	r1, r0, r0
     258:	050c0100 	streq	r0, [ip, #-256]	; 0xffffff00
     25c:	00000288 	andeq	r0, r0, r8, lsl #5
     260:	00034215 	andeq	r4, r3, r5, lsl r2
     264:	00006e00 	andeq	r6, r0, r0, lsl #28
     268:	00006c00 	andeq	r6, r0, r0, lsl #24
     26c:	03361500 	teqeq	r6, #0, 10
     270:	00840000 	addeq	r0, r4, r0
     274:	00820000 	addeq	r0, r2, r0
     278:	2a150000 	bcs	540280 <__bss_end__+0x535ba8>
     27c:	9e000003 	cdpls	0, 0, cr0, cr0, cr3, {0}
     280:	9c000000 	stcls	0, cr0, [r0], {-0}
     284:	00000000 	andeq	r0, r0, r0
     288:	0080680e 	addeq	r6, r0, lr, lsl #16
     28c:	00037d00 	andeq	r7, r3, r0, lsl #26
     290:	00029b00 	andeq	r9, r2, r0, lsl #22
     294:	50010f00 	andpl	r0, r1, r0, lsl #30
     298:	0e003401 	cdpeq	4, 0, cr3, cr0, cr1, {0}
     29c:	00008074 	andeq	r8, r0, r4, ror r0
     2a0:	0000034f 	andeq	r0, r0, pc, asr #6
     2a4:	000002b2 			; <UNDEFINED> instruction: 0x000002b2
     2a8:	0550010f 	ldrbeq	r0, [r0, #-271]	; 0xfffffef1
     2ac:	009d1403 	addseq	r1, sp, r3, lsl #8
     2b0:	800e0000 	andhi	r0, lr, r0
     2b4:	4f000080 	svcmi	0x00000080
     2b8:	cf000003 	svcgt	0x00000003
     2bc:	0f000002 	svceq	0x00000002
     2c0:	03055001 	movweq	r5, #20481	; 0x5001
     2c4:	00009d1c 	andeq	r9, r0, ip, lsl sp
     2c8:	0251010f 	subseq	r0, r1, #-1073741821	; 0xc0000003
     2cc:	0e000074 	mcreq	0, 0, r0, cr0, cr4, {3}
     2d0:	00008090 	muleq	r0, r0, r0
     2d4:	00000389 	andeq	r0, r0, r9, lsl #7
     2d8:	000002ed 	andeq	r0, r0, sp, ror #5
     2dc:	0250010f 	subseq	r0, r0, #-1073741821	; 0xc0000003
     2e0:	010f0074 	tsteq	pc, r4, ror r0	; <UNPREDICTABLE>
     2e4:	0f300151 	svceq	0x00300151
     2e8:	34015201 	strcc	r5, [r1], #-513	; 0xfffffdff
     2ec:	80b01600 	adcshi	r1, r0, r0, lsl #12
     2f0:	03950000 	orrseq	r0, r5, #0, 0
     2f4:	010f0000 	mrseq	r0, CPSR
     2f8:	00740250 	rsbseq	r0, r4, r0, asr r2
     2fc:	04070000 	streq	r0, [r7], #-0
     300:	000000a1 	andeq	r0, r0, r1, lsr #1
     304:	0000a811 	andeq	sl, r0, r1, lsl r8
     308:	00031400 	andeq	r1, r3, r0, lsl #8
     30c:	002c1200 	eoreq	r1, ip, r0, lsl #4
     310:	00050000 	andeq	r0, r5, r0
     314:	00030408 	andeq	r0, r3, r8, lsl #8
     318:	00581700 	subseq	r1, r8, r0, lsl #14
     31c:	0c020000 	stceq	0, cr0, [r2], {-0}
     320:	0000f00b 	andeq	pc, r0, fp
     324:	034f0300 	movteq	r0, #62208	; 0xf300
     328:	25180000 	ldrcs	r0, [r8, #-0]
     32c:	02000000 	andeq	r0, r0, #0, 0
     330:	009b220c 	addseq	r2, fp, ip, lsl #4
     334:	6a180000 	bvs	60033c <__bss_end__+0x5f5c64>
     338:	02000000 	andeq	r0, r0, #0, 0
     33c:	009b340c 	addseq	r3, fp, ip, lsl #8
     340:	08180000 	ldmdaeq	r8, {}	; <UNPREDICTABLE>
     344:	02000000 	andeq	r0, r0, #0, 0
     348:	002c430c 	eoreq	r4, ip, ip, lsl #6
     34c:	19000000 	stmdbne	r0, {}	; <UNPREDICTABLE>
     350:	00000534 	andeq	r0, r0, r4, lsr r5
     354:	00000534 	andeq	r0, r0, r4, lsr r5
     358:	19062803 	stmdbne	r6, {r0, r1, fp, sp}
     35c:	0000000f 	andeq	r0, r0, pc
     360:	0000000f 	andeq	r0, r0, pc
     364:	190a4804 	stmdbne	sl, {r2, fp, lr}
     368:	00000038 	andeq	r0, r0, r8, lsr r0
     36c:	00000038 	andeq	r0, r0, r8, lsr r0
     370:	1a066e03 	bne	19bb84 <__bss_end__+0x1914ac>
     374:	74069e08 	strvc	r9, [r6], #-3592	; 0xfffff1f8
     378:	31747365 	cmncc	r4, r5, ror #6
     37c:	00001900 	andeq	r1, r0, r0, lsl #18
     380:	00000000 	andeq	r0, r0, r0
     384:	32040000 	andcc	r0, r4, #0, 0
     388:	00631908 	rsbeq	r1, r3, r8, lsl #18
     38c:	00630000 	rsbeq	r0, r3, r0
     390:	f2030000 	vhadd.s8	d0, d3, d0
     394:	00e71907 	rsceq	r1, r7, r7, lsl #18
     398:	00e70000 	rsceq	r0, r7, r0
     39c:	33040000 	movwcc	r0, #16384	; 0x4000
     3a0:	07330007 	ldreq	r0, [r3, -r7]!
     3a4:	00040000 	andeq	r0, r4, r0
     3a8:	0000016e 	andeq	r0, r0, lr, ror #2
     3ac:	010e0104 	tsteq	lr, r4, lsl #2
     3b0:	740c0000 	strvc	r0, [ip], #-0
     3b4:	b5000002 	strlt	r0, [r0, #-2]
     3b8:	2c000000 	stccs	0, cr0, [r0], {-0}
     3bc:	f4000081 	vst4.32	{d0-d3}, [r0], r1
     3c0:	f4000002 	vst4.8	{d0-d3}, [r0], r2
     3c4:	02000000 	andeq	r0, r0, #0, 0
     3c8:	6e690504 	cdpvs	5, 6, cr0, cr9, cr4, {0}
     3cc:	04030074 	streq	r0, [r3], #-116	; 0xffffff8c
     3d0:	00009a07 	andeq	r9, r0, r7, lsl #20
     3d4:	06010300 	streq	r0, [r1], -r0, lsl #6
     3d8:	0000002c 	andeq	r0, r0, ip, lsr #32
     3dc:	ee050203 	cdp	2, 0, cr0, cr5, cr3, {0}
     3e0:	03000000 	movweq	r0, #0
     3e4:	00ac0504 	adceq	r0, ip, r4, lsl #10
     3e8:	08030000 	stmdaeq	r3, {}	; <UNPREDICTABLE>
     3ec:	0000a705 	andeq	sl, r0, r5, lsl #14
     3f0:	08010300 	stmdaeq	r1, {r8, r9}
     3f4:	0000002a 	andeq	r0, r0, sl, lsr #32
     3f8:	00024d04 	andeq	r4, r2, r4, lsl #26
     3fc:	19310300 	ldmdbne	r1!, {r8, r9}
     400:	00000062 	andeq	r0, r0, r2, rrx
     404:	45070203 	strmi	r0, [r7, #-515]	; 0xfffffdfd
     408:	04000000 	streq	r0, [r0], #-0
     40c:	00000244 	andeq	r0, r0, r4, asr #4
     410:	75193403 	ldrvc	r3, [r9, #-1027]	; 0xfffffbfd
     414:	03000000 	movweq	r0, #0
     418:	00950704 	addseq	r0, r5, r4, lsl #14
     41c:	08030000 	stmdaeq	r3, {}	; <UNPREDICTABLE>
     420:	00009007 	andeq	r9, r0, r7
     424:	00250500 	eoreq	r0, r5, r0, lsl #10
     428:	00920000 	addseq	r0, r2, r0
     42c:	25060000 	strcs	r0, [r6, #-0]
     430:	00000000 	andeq	r0, r0, r0
     434:	00010207 	andeq	r0, r1, r7, lsl #4
     438:	0e1c0400 	cfmulseq	mvf0, mvf12, mvf0
     43c:	0000009e 	muleq	r0, lr, r0
     440:	00830408 	addeq	r0, r3, r8, lsl #8
     444:	25050000 	strcs	r0, [r5, #-0]
     448:	b3000000 	movwlt	r0, #0
     44c:	06000000 	streq	r0, [r0], -r0
     450:	000000b3 	strheq	r0, [r0], -r3
     454:	c0040800 	andgt	r0, r4, r0, lsl #16
     458:	03000000 	movweq	r0, #0
     45c:	00330801 	eorseq	r0, r3, r1, lsl #16
     460:	b9090000 	stmdblt	r9, {}	; <UNPREDICTABLE>
     464:	07000000 	streq	r0, [r0, -r0]
     468:	00000572 	andeq	r0, r0, r2, ror r5
     46c:	d10e2104 	tstle	lr, r4, lsl #2
     470:	08000000 	stmdaeq	r0, {}	; <UNPREDICTABLE>
     474:	0000a404 	andeq	sl, r0, r4, lsl #8
     478:	050c0a00 	streq	r0, [ip, #-2560]	; 0xfffff600
     47c:	01080904 	tsteq	r8, r4, lsl #18
     480:	250b0000 	strcs	r0, [fp, #-0]
     484:	05000000 	streq	r0, [r0, #-0]
     488:	00b31106 	adcseq	r1, r3, r6, lsl #2
     48c:	0b000000 	bleq	494 <__code_start__-0x7b6c>
     490:	0000006a 	andeq	r0, r0, sl, rrx
     494:	b3110705 	tstlt	r1, #1310720	; 0x140000
     498:	04000000 	streq	r0, [r0], #-0
     49c:	0000080b 	andeq	r0, r0, fp, lsl #16
     4a0:	0e080500 	cfsh32eq	mvfx0, mvfx8, #0
     4a4:	0000002c 	andeq	r0, r0, ip, lsr #32
     4a8:	f8040008 			; <UNDEFINED> instruction: 0xf8040008
     4ac:	05000000 	streq	r0, [r0, #-0]
     4b0:	00d70309 	sbcseq	r0, r7, r9, lsl #6
     4b4:	070c0000 	streq	r0, [ip, -r0]
     4b8:	00004f01 	andeq	r4, r0, r1, lsl #30
     4bc:	0e090200 	cdpeq	2, 0, cr0, cr9, cr0, {0}
     4c0:	0000012f 	andeq	r0, r0, pc, lsr #2
     4c4:	00027e0d 	andeq	r7, r2, sp, lsl #28
     4c8:	df0d0b00 	svcle	0x000d0b00
     4cc:	0c000001 	stceq	0, cr0, [r0], {1}
     4d0:	021d0e00 	andseq	r0, sp, #0, 28
     4d4:	02240000 	eoreq	r0, r4, #0, 0
     4d8:	0198100c 	orrseq	r1, r8, ip
     4dc:	c40b0000 	strgt	r0, [fp], #-0
     4e0:	02000002 	andeq	r0, r0, #2, 0
     4e4:	0198140d 	orrseq	r1, r8, sp, lsl #8
     4e8:	0b000000 	bleq	4f0 <__code_start__-0x7b10>
     4ec:	00000286 	andeq	r0, r0, r6, lsl #5
     4f0:	690e0e02 	stmdbvs	lr, {r1, r9, sl, fp}
     4f4:	04000000 	streq	r0, [r0], #-0
     4f8:	00022e0b 	andeq	r2, r2, fp, lsl #28
     4fc:	0e0f0200 	cdpeq	2, 0, cr0, cr15, cr0, {0}
     500:	00000069 	andeq	r0, r0, r9, rrx
     504:	02240b08 	eoreq	r0, r4, #8, 22	; 0x2000
     508:	11020000 	mrsne	r0, (UNDEF: 2)
     50c:	0001080f 	andeq	r0, r1, pc, lsl #16
     510:	390b0c00 	stmdbcc	fp, {sl, fp}
     514:	02000002 	andeq	r0, r0, #2, 0
     518:	00690e14 	rsbeq	r0, r9, r4, lsl lr
     51c:	0b180000 	bleq	600524 <__bss_end__+0x5f5e4c>
     520:	000001e5 	andeq	r0, r0, r5, ror #3
     524:	690e1502 	stmdbvs	lr, {r1, r8, sl, ip}
     528:	1c000000 	stcne	0, cr0, [r0], {-0}
     52c:	0002340b 	andeq	r3, r2, fp, lsl #8
     530:	0e170200 	cdpeq	2, 1, cr0, cr7, cr0, {0}
     534:	00000056 	andeq	r0, r0, r6, asr r0
     538:	04080020 	streq	r0, [r8], #-32	; 0xffffffe0
     53c:	0000012f 	andeq	r0, r0, pc, lsr #2
     540:	0001d904 	andeq	sp, r1, r4, lsl #18
     544:	03180200 	tsteq	r8, #0, 4
     548:	0000012f 	andeq	r0, r0, pc, lsr #2
     54c:	0610040f 	ldreq	r0, [r0], -pc, lsl #8
     550:	01000002 	tsteq	r0, r2
     554:	01be0f08 			; <UNDEFINED> instruction: 0x01be0f08
     558:	03050000 	movweq	r0, #20480	; 0x5000
     55c:	0000a2b8 			; <UNDEFINED> instruction: 0x0000a2b8
     560:	019e0408 	orrseq	r0, lr, r8, lsl #8
     564:	00110000 	andseq	r0, r1, r0
     568:	01000000 	mrseq	r0, (UNDEF: 0)
     56c:	01aa0864 			; <UNDEFINED> instruction: 0x01aa0864
     570:	83900000 	orrshi	r0, r0, #0, 0
     574:	00900000 	addseq	r0, r0, r0
     578:	9c010000 	stcls	0, cr0, [r1], {-0}
     57c:	0000028a 	andeq	r0, r0, sl, lsl #5
     580:	0002b312 	andeq	fp, r2, r2, lsl r3
     584:	1a640100 	bne	190098c <__bss_end__+0x18f62b4>
     588:	0000002c 	andeq	r0, r0, ip, lsr #32
     58c:	000000bc 	strheq	r0, [r0], -ip
     590:	000000b6 	strheq	r0, [r0], -r6
     594:	01006c13 	tsteq	r0, r3, lsl ip
     598:	01082c64 	tsteq	r8, r4, ror #24
     59c:	91020000 	mrsls	r0, (UNDEF: 2)
     5a0:	00681464 	rsbeq	r1, r8, r4, ror #8
     5a4:	be0c6601 	cfmadd32lt	mvax0, mvfx6, mvfx12, mvfx1
     5a8:	ee000001 	cdp	0, 0, cr0, cr0, cr1, {0}
     5ac:	e8000000 	stmda	r0, {}	; <UNPREDICTABLE>
     5b0:	15000000 	strne	r0, [r0, #-0]
     5b4:	000083ac 	andeq	r8, r0, ip, lsr #7
     5b8:	000006fa 	strdeq	r0, [r0], -sl
     5bc:	00000225 	andeq	r0, r0, r5, lsr #4
     5c0:	02500116 	subseq	r0, r0, #-2147483643	; 0x80000005
     5c4:	15002476 	strne	r2, [r0, #-1142]	; 0xfffffb8a
     5c8:	000083bc 			; <UNDEFINED> instruction: 0x000083bc
     5cc:	00000706 	andeq	r0, r0, r6, lsl #14
     5d0:	00000244 	andeq	r0, r0, r4, asr #4
     5d4:	02500116 	subseq	r0, r0, #-2147483643	; 0x80000005
     5d8:	01160074 	tsteq	r6, r4, ror r0
     5dc:	16300151 			; <UNDEFINED> instruction: 0x16300151
     5e0:	08025201 	stmdaeq	r2, {r0, r9, ip, lr}
     5e4:	e8150024 	ldmda	r5, {r2, r5}
     5e8:	12000083 	andne	r0, r0, #131, 0	; 0x83
     5ec:	70000007 	andvc	r0, r0, r7
     5f0:	16000002 	strne	r0, [r0], -r2
     5f4:	03055001 	movweq	r5, #20481	; 0x5001
     5f8:	00009de8 	andeq	r9, r0, r8, ror #27
     5fc:	03510116 	cmpeq	r1, #-2147483643	; 0x80000005
     600:	16060075 			; <UNDEFINED> instruction: 0x16060075
     604:	91035201 	tstls	r3, r1, lsl #4
     608:	01160660 	tsteq	r6, r0, ror #12
     60c:	64910353 	ldrvs	r0, [r1], #851	; 0x353
     610:	f8170006 			; <UNDEFINED> instruction: 0xf8170006
     614:	12000083 	andne	r0, r0, #131, 0	; 0x83
     618:	16000007 	strne	r0, [r0], -r7
     61c:	03055001 	movweq	r5, #20481	; 0x5001
     620:	00009e5c 	andeq	r9, r0, ip, asr lr
     624:	02510116 	subseq	r0, r1, #-2147483643	; 0x80000005
     628:	00000075 	andeq	r0, r0, r5, ror r0
     62c:	0000e718 	andeq	lr, r0, r8, lsl r7
     630:	06510100 	ldrbeq	r0, [r1], -r0, lsl #2
     634:	000082a4 	andeq	r8, r0, r4, lsr #5
     638:	000000ec 	andeq	r0, r0, ip, ror #1
     63c:	03f99c01 	mvnseq	r9, #256	; 0x100
     640:	f1120000 			; <UNDEFINED> instruction: 0xf1120000
     644:	01000009 	tsteq	r0, r9
     648:	01aa1451 			; <UNDEFINED> instruction: 0x01aa1451
     64c:	011f0000 	tsteq	pc, r0
     650:	011b0000 	tsteq	fp, r0
     654:	6c130000 	ldcvs	0, cr0, [r3], {-0}
     658:	24510100 	ldrbcs	r0, [r1], #-256	; 0xffffff00
     65c:	00000108 	andeq	r0, r0, r8, lsl #2
     660:	145c9102 	ldrbne	r9, [ip], #-258	; 0xfffffefe
     664:	53010068 	movwpl	r0, #4200	; 0x1068
     668:	0001be0c 	andeq	fp, r1, ip, lsl #28
     66c:	00014700 	andeq	r4, r1, r0, lsl #14
     670:	00013d00 	andeq	r3, r1, r0, lsl #26
     674:	006f1900 	rsbeq	r1, pc, r0, lsl #18
     678:	04090000 	streq	r0, [r9], #-0
     67c:	03050000 	movweq	r0, #20480	; 0x5000
     680:	00009e78 	andeq	r9, r0, r8, ror lr
     684:	0082d815 	addeq	sp, r2, r5, lsl r8
     688:	00071200 	andeq	r1, r7, r0, lsl #4
     68c:	00030b00 	andeq	r0, r3, r0, lsl #22
     690:	50011600 	andpl	r1, r1, r0, lsl #12
     694:	9de80305 	stclls	3, cr0, [r8, #20]!
     698:	01160000 	tsteq	r6, r0
     69c:	00760251 	rsbseq	r0, r6, r1, asr r2
     6a0:	02520116 	subseq	r0, r2, #-2147483643	; 0x80000005
     6a4:	01160077 	tsteq	r6, r7, ror r0
     6a8:	00780253 	rsbseq	r0, r8, r3, asr r2
     6ac:	82e41500 	rschi	r1, r4, #0, 10
     6b0:	07120000 	ldreq	r0, [r2, -r0]
     6b4:	03280000 			; <UNDEFINED> instruction: 0x03280000
     6b8:	01160000 	tsteq	r6, r0
     6bc:	f4030550 	vst3.16	{d0,d2,d4}, [r3 :64], r0
     6c0:	1600009d 			; <UNDEFINED> instruction: 0x1600009d
     6c4:	74025101 	strvc	r5, [r2], #-257	; 0xfffffeff
     6c8:	04150000 	ldreq	r0, [r5], #-0
     6cc:	2e000083 	cdpcs	0, 0, cr0, cr0, cr3, {4}
     6d0:	3c000005 	stccc	0, cr0, [r0], {5}
     6d4:	16000003 	strne	r0, [r0], -r3
     6d8:	74025001 	strvc	r5, [r2], #-1
     6dc:	18150000 	ldmdane	r5, {}	; <UNPREDICTABLE>
     6e0:	0e000083 	cdpeq	0, 0, cr0, cr0, cr3, {4}
     6e4:	59000004 	stmdbpl	r0, {r2}
     6e8:	16000003 	strne	r0, [r0], -r3
     6ec:	03055001 	movweq	r5, #20481	; 0x5001
     6f0:	0000a2b8 			; <UNDEFINED> instruction: 0x0000a2b8
     6f4:	02510116 	subseq	r0, r1, #-2147483643	; 0x80000005
     6f8:	15000075 	strne	r0, [r0, #-117]	; 0xffffff8b
     6fc:	00008320 	andeq	r8, r0, r0, lsr #6
     700:	0000071e 	andeq	r0, r0, lr, lsl r7
     704:	0000036d 	andeq	r0, r0, sp, ror #6
     708:	02500116 	subseq	r0, r0, #-2147483643	; 0x80000005
     70c:	15000075 	strne	r0, [r0, #-117]	; 0xffffff8b
     710:	0000833c 	andeq	r8, r0, ip, lsr r3
     714:	00000712 	andeq	r0, r0, r2, lsl r7
     718:	00000396 	muleq	r0, r6, r3
     71c:	05500116 	ldrbeq	r0, [r0, #-278]	; 0xfffffeea
     720:	009e0403 	addseq	r0, lr, r3, lsl #8
     724:	51011600 	tstpl	r1, r0, lsl #12
     728:	16007602 	strne	r7, [r0], -r2, lsl #12
     72c:	77025201 	strvc	r5, [r2, -r1, lsl #4]
     730:	53011600 	movwpl	r1, #5632	; 0x1600
     734:	00007802 	andeq	r7, r0, r2, lsl #16
     738:	00834815 	addeq	r4, r3, r5, lsl r8
     73c:	00071200 	andeq	r1, r7, r0, lsl #4
     740:	0003ad00 	andeq	sl, r3, r0, lsl #26
     744:	50011600 	andpl	r1, r1, r0, lsl #12
     748:	9e1c0305 	cdpls	3, 1, cr0, cr12, cr5, {0}
     74c:	1a000000 	bne	754 <__code_start__-0x78ac>
     750:	0000834c 	andeq	r8, r0, ip, asr #6
     754:	0000072a 	andeq	r0, r0, sl, lsr #14
     758:	00836815 	addeq	r6, r3, r5, lsl r8
     75c:	00071200 	andeq	r1, r7, r0, lsl #4
     760:	0003ef00 	andeq	lr, r3, r0, lsl #30
     764:	50011600 	andpl	r1, r1, r0, lsl #12
     768:	9d940305 	ldcls	3, cr0, [r4, #20]
     76c:	01160000 	tsteq	r6, r0
     770:	88030551 	stmdahi	r3, {r0, r4, r6, r8, sl}
     774:	1600009d 			; <UNDEFINED> instruction: 0x1600009d
     778:	03055201 	movweq	r5, #20993	; 0x5201
     77c:	00009e78 	andeq	r9, r0, r8, ror lr
     780:	02530116 	subseq	r0, r3, #-2147483643	; 0x80000005
     784:	02165b08 	andseq	r5, r6, #8, 22	; 0x2000
     788:	0305007d 	movweq	r0, #20605	; 0x507d
     78c:	00009e44 	andeq	r9, r0, r4, asr #28
     790:	836c1a00 	cmnhi	ip, #0, 20
     794:	072a0000 	streq	r0, [sl, -r0]!
     798:	1b000000 	blne	7a0 <__code_start__-0x7860>
     79c:	000000c0 	andeq	r0, r0, r0, asr #1
     7a0:	00000409 	andeq	r0, r0, r9, lsl #8
     7a4:	00002c1c 	andeq	r2, r0, ip, lsl ip
     7a8:	09000600 	stmdbeq	r0, {r9, sl}
     7ac:	000003f9 	strdeq	r0, [r0], -r9
     7b0:	0002111d 	andeq	r1, r2, sp, lsl r1
     7b4:	0d380100 	ldfeqs	f0, [r8, #-0]
     7b8:	0000814c 	andeq	r8, r0, ip, asr #2
     7bc:	000000a4 	andeq	r0, r0, r4, lsr #1
     7c0:	05139c01 	ldreq	r9, [r3, #-3073]	; 0xfffff3ff
     7c4:	6c1e0000 	ldcvs	0, cr0, [lr], {-0}
     7c8:	21380100 	teqcs	r8, r0, lsl #2
     7cc:	00000513 	andeq	r0, r0, r3, lsl r5
     7d0:	00000198 	muleq	r0, r8, r1
     7d4:	0000018a 	andeq	r0, r0, sl, lsl #3
     7d8:	0100681e 	tsteq	r0, lr, lsl r8
     7dc:	01be2b38 			; <UNDEFINED> instruction: 0x01be2b38
     7e0:	02020000 	andeq	r0, r2, #0, 0
     7e4:	01f60000 	mvnseq	r0, r0
     7e8:	6f190000 	svcvs	0x00190000
     7ec:	29000000 	stmdbcs	r0, {}	; <UNPREDICTABLE>
     7f0:	05000005 	streq	r0, [r0, #-5]
     7f4:	009e6c03 	addseq	r6, lr, r3, lsl #24
     7f8:	02ab1f00 	adceq	r1, fp, #0, 30
     7fc:	3b010000 	blcc	40804 <__bss_end__+0x3612c>
     800:	0001be0c 	andeq	fp, r1, ip, lsl #28
     804:	00025700 	andeq	r5, r2, r0, lsl #14
     808:	00024f00 	andeq	r4, r2, r0, lsl #30
     80c:	00701400 	rsbseq	r1, r0, r0, lsl #8
     810:	be0c4301 	cdplt	3, 0, cr4, cr12, cr1, {0}
     814:	8f000001 	svchi	0x00000001
     818:	8b000002 	blhi	828 <__code_start__-0x77d8>
     81c:	15000002 	strne	r0, [r0, #-2]
     820:	00008174 	andeq	r8, r0, r4, ror r1
     824:	0000069b 	muleq	r0, fp, r6
     828:	00000491 	muleq	r0, r1, r4
     82c:	02500116 	subseq	r0, r0, #-2147483643	; 0x80000005
     830:	15000075 	strne	r0, [r0, #-117]	; 0xffffff8b
     834:	000081b0 			; <UNDEFINED> instruction: 0x000081b0
     838:	00000712 	andeq	r0, r0, r2, lsl r7
     83c:	000004ca 	andeq	r0, r0, sl, asr #9
     840:	05500116 	ldrbeq	r0, [r0, #-278]	; 0xfffffeea
     844:	009d9403 	addseq	r9, sp, r3, lsl #8
     848:	51011600 	tstpl	r1, r0, lsl #12
     84c:	9d880305 	stcls	3, cr0, [r8, #20]
     850:	01160000 	tsteq	r6, r0
     854:	6c030552 	cfstr32vs	mvfx0, [r3], {82}	; 0x52
     858:	1600009e 			; <UNDEFINED> instruction: 0x1600009e
     85c:	08025301 	stmdaeq	r2, {r0, r8, r9, ip, lr}
     860:	7d02163a 	stcvc	6, cr1, [r2, #-232]	; 0xffffff18
     864:	a8030500 	stmdage	r3, {r8, sl}
     868:	0000009d 	muleq	r0, sp, r0
     86c:	0081b41a 	addeq	fp, r1, sl, lsl r4
     870:	00072a00 	andeq	r2, r7, r0, lsl #20
     874:	81d81500 	bicshi	r1, r8, r0, lsl #10
     878:	07120000 	ldreq	r0, [r2, -r0]
     87c:	05090000 	streq	r0, [r9, #-0]
     880:	01160000 	tsteq	r6, r0
     884:	ac030550 	cfstr32ge	mvfx0, [r3], {80}	; 0x50
     888:	1600009d 			; <UNDEFINED> instruction: 0x1600009d
     88c:	03055101 	movweq	r5, #20737	; 0x5101
     890:	00009d88 	andeq	r9, r0, r8, lsl #27
     894:	05520116 	ldrbeq	r0, [r2, #-278]	; 0xfffffeea
     898:	009e6c03 	addseq	r6, lr, r3, lsl #24
     89c:	53011600 	movwpl	r1, #5632	; 0x1600
     8a0:	164d0802 	strbne	r0, [sp], -r2, lsl #16
     8a4:	02007d02 	andeq	r7, r0, #128	; 0x80
     8a8:	1a000074 	bne	a80 <__code_start__-0x7580>
     8ac:	000081dc 	ldrdeq	r8, [r0], -ip
     8b0:	0000072a 	andeq	r0, r0, sl, lsr #14
     8b4:	be040800 	cdplt	8, 0, cr0, cr4, cr0, {0}
     8b8:	1b000001 	blne	8c4 <__code_start__-0x773c>
     8bc:	000000c0 	andeq	r0, r0, r0, asr #1
     8c0:	00000529 	andeq	r0, r0, r9, lsr #10
     8c4:	00002c1c 	andeq	r2, r0, ip, lsl ip
     8c8:	09000b00 	stmdbeq	r0, {r8, r9, fp}
     8cc:	00000519 	andeq	r0, r0, r9, lsl r5
     8d0:	00025611 	andeq	r5, r2, r1, lsl r6
     8d4:	08290100 	stmdaeq	r9!, {r8}
     8d8:	000001be 			; <UNDEFINED> instruction: 0x000001be
     8dc:	0000824c 	andeq	r8, r0, ip, asr #4
     8e0:	00000058 	andeq	r0, r0, r8, asr r0
     8e4:	05cf9c01 	strbeq	r9, [pc, #3073]	; 14ed <__code_start__-0x6b13>
     8e8:	701e0000 	andsvc	r0, lr, r0
     8ec:	01007274 	tsteq	r0, r4, ror r2
     8f0:	01aa2029 			; <UNDEFINED> instruction: 0x01aa2029
     8f4:	02b10000 	adcseq	r0, r1, #0, 0
     8f8:	02ad0000 	adceq	r0, sp, #0, 0
     8fc:	54200000 	strtpl	r0, [r0], #-0
     900:	44000082 	strmi	r0, [r0], #-130	; 0xffffff7e
     904:	14000000 	strne	r0, [r0], #-0
     908:	2c010068 	stccs	0, cr0, [r1], {104}	; 0x68
     90c:	0001be11 	andeq	fp, r1, r1, lsl lr
     910:	0002d700 	andeq	sp, r2, r0, lsl #14
     914:	0002cf00 	andeq	ip, r2, r0, lsl #30
     918:	82581a00 	subshi	r1, r8, #0, 20
     91c:	06c80000 	strbeq	r0, [r8], r0
     920:	70150000 	andsvc	r0, r5, r0
     924:	cf000082 	svcgt	0x00000082
     928:	9a000005 	bls	944 <__code_start__-0x76bc>
     92c:	16000005 	strne	r0, [r0], -r5
     930:	74025001 	strvc	r5, [r2], #-1
     934:	51011600 	tstpl	r1, r0, lsl #12
     938:	00007502 	andeq	r7, r0, r2, lsl #10
     93c:	00828015 	addeq	r8, r2, r5, lsl r0
     940:	00069b00 	andeq	r9, r6, r0, lsl #22
     944:	0005ae00 	andeq	sl, r5, r0, lsl #28
     948:	50011600 	andpl	r1, r1, r0, lsl #12
     94c:	00007402 	andeq	r7, r0, r2, lsl #8
     950:	00829817 	addeq	r9, r2, r7, lsl r8
     954:	00071200 	andeq	r1, r7, r0, lsl #4
     958:	50011600 	andpl	r1, r1, r0, lsl #12
     95c:	9dd80305 	ldclls	3, cr0, [r8, #20]
     960:	01160000 	tsteq	r6, r0
     964:	00750251 	rsbseq	r0, r5, r1, asr r2
     968:	02520116 	subseq	r0, r2, #-2147483643	; 0x80000005
     96c:	00000074 	andeq	r0, r0, r4, ror r0
     970:	01c91100 	biceq	r1, r9, r0, lsl #2
     974:	24010000 	strcs	r0, [r1], #-0
     978:	00002c0a 	andeq	r2, r0, sl, lsl #24
     97c:	00821000 	addeq	r1, r2, r0
     980:	00003c00 	andeq	r3, r0, r0, lsl #24
     984:	0a9c0100 	beq	fe700d8c <__bss_end__+0xfe6f66b4>
     988:	1e000006 	cdpne	0, 0, cr0, cr0, cr6, {0}
     98c:	24010068 	strcs	r0, [r1], #-104	; 0xffffff98
     990:	0001be21 	andeq	fp, r1, r1, lsr #28
     994:	00031300 	andeq	r1, r3, r0, lsl #6
     998:	00030b00 	andeq	r0, r3, r0, lsl #22
     99c:	74701300 	ldrbtvc	r1, [r0], #-768	; 0xfffffd00
     9a0:	24010072 	strcs	r0, [r1], #-114	; 0xffffff8e
     9a4:	0001aa2a 	andeq	sl, r1, sl, lsr #20
     9a8:	00510100 	subseq	r0, r1, r0, lsl #2
     9ac:	0002a011 	andeq	sl, r2, r1, lsl r0
     9b0:	071e0100 	ldreq	r0, [lr, -r0, lsl #2]
     9b4:	000001aa 	andeq	r0, r0, sl, lsr #3
     9b8:	000081f8 	strdeq	r8, [r0], -r8	; <UNPREDICTABLE>
     9bc:	00000018 	andeq	r0, r0, r8, lsl r0
     9c0:	066e9c01 	strbteq	r9, [lr], -r1, lsl #24
     9c4:	681e0000 	ldmdavs	lr, {}	; <UNPREDICTABLE>
     9c8:	191e0100 	ldmdbne	lr, {r8}
     9cc:	000001be 			; <UNDEFINED> instruction: 0x000001be
     9d0:	00000351 	andeq	r0, r0, r1, asr r3
     9d4:	0000034d 	andeq	r0, r0, sp, asr #6
     9d8:	0006de21 	andeq	sp, r6, r1, lsr #28
     9dc:	00820400 	addeq	r0, r2, r0, lsl #8
     9e0:	82040000 	andhi	r0, r4, #0, 0
     9e4:	00040000 	andeq	r0, r4, r0
     9e8:	20010000 	andcs	r0, r1, r0
     9ec:	00065d26 	andeq	r5, r6, r6, lsr #26
     9f0:	06ef2200 	strbteq	r2, [pc], r0, lsl #4
     9f4:	03710000 	cmneq	r1, #0, 0
     9f8:	036f0000 	cmneq	pc, #0, 0
     9fc:	17000000 	strne	r0, [r0, -r0]
     a00:	00008204 	andeq	r8, r0, r4, lsl #4
     a04:	0000066e 	andeq	r0, r0, lr, ror #12
     a08:	02500116 	subseq	r0, r0, #-2147483643	; 0x80000005
     a0c:	00000074 	andeq	r0, r0, r4, ror r0
     a10:	00029311 	andeq	r9, r2, r1, lsl r3
     a14:	07180100 	ldreq	r0, [r8, -r0, lsl #2]
     a18:	000001aa 	andeq	r0, r0, sl, lsr #3
     a1c:	000081f0 	strdeq	r8, [r0], -r0
     a20:	00000008 	andeq	r0, r0, r8
     a24:	069b9c01 	ldreq	r9, [fp], r1, lsl #24
     a28:	681e0000 	ldmdavs	lr, {}	; <UNPREDICTABLE>
     a2c:	1b180100 	blne	600e34 <__bss_end__+0x5f675c>
     a30:	000001be 			; <UNDEFINED> instruction: 0x000001be
     a34:	00000388 	andeq	r0, r0, r8, lsl #7
     a38:	00000384 	andeq	r0, r0, r4, lsl #7
     a3c:	02681100 	rsbeq	r1, r8, #0
     a40:	11010000 	mrsne	r0, (UNDEF: 1)
     a44:	0001be08 	andeq	fp, r1, r8, lsl #28
     a48:	00813c00 	addeq	r3, r1, r0, lsl #24
     a4c:	00001000 	andeq	r1, r0, r0
     a50:	c89c0100 	ldmgt	ip, {r8}
     a54:	1e000006 	cdpne	0, 0, cr0, cr0, cr6, {0}
     a58:	11010070 	tstne	r1, r0, ror r0
     a5c:	0001be1b 	andeq	fp, r1, fp, lsl lr
     a60:	0003ac00 	andeq	sl, r3, r0, lsl #24
     a64:	0003a800 	andeq	sl, r3, r0, lsl #16
     a68:	f9230000 			; <UNDEFINED> instruction: 0xf9230000
     a6c:	01000001 	tsteq	r0, r1
     a70:	01be080b 			; <UNDEFINED> instruction: 0x01be080b
     a74:	812c0000 			; <UNDEFINED> instruction: 0x812c0000
     a78:	00100000 	andseq	r0, r0, r0
     a7c:	9c010000 	stcls	0, cr0, [r1], {-0}
     a80:	0002b024 	andeq	fp, r2, r4, lsr #32
     a84:	18210200 	stmdane	r1!, {r9}
     a88:	0000002c 	andeq	r0, r0, ip, lsr #32
     a8c:	0006fa03 	andeq	pc, r6, r3, lsl #20
     a90:	00682500 	rsbeq	r2, r8, r0, lsl #10
     a94:	be292102 	suflte	f2, f1, f2
     a98:	00000001 	andeq	r0, r0, r1
     a9c:	0002ba26 	andeq	fp, r2, r6, lsr #20
     aa0:	0002ba00 	andeq	fp, r2, r0, lsl #20
     aa4:	071e0600 	ldreq	r0, [lr, -r0, lsl #12]
     aa8:	00006326 	andeq	r6, r0, r6, lsr #6
     aac:	00006300 	andeq	r6, r0, r0, lsl #6
     ab0:	07f20400 	ldrbeq	r0, [r2, r0, lsl #8]!
     ab4:	00053426 	andeq	r3, r5, r6, lsr #8
     ab8:	00053400 	andeq	r3, r5, r0, lsl #8
     abc:	06280400 	strteq	r0, [r8], -r0, lsl #8
     ac0:	0001f126 	andeq	pc, r1, r6, lsr #2
     ac4:	0001f100 	andeq	pc, r1, r0, lsl #2
     ac8:	061f0600 	ldreq	r0, [pc], -r0, lsl #12
     acc:	00003826 	andeq	r3, r0, r6, lsr #16
     ad0:	00003800 	andeq	r3, r0, r0, lsl #16
     ad4:	066e0400 	strbteq	r0, [lr], -r0, lsl #8
     ad8:	0002c200 	andeq	ip, r2, r0, lsl #4
     adc:	c4000400 	strgt	r0, [r0], #-1024	; 0xfffffc00
     ae0:	04000003 	streq	r0, [r0], #-3
     ae4:	00010e01 	andeq	r0, r1, r1, lsl #28
     ae8:	02e90c00 	rsceq	r0, r9, #0, 24
     aec:	00b50000 	adcseq	r0, r5, r0
     af0:	84200000 	strthi	r0, [r0], #-0
     af4:	01ac0000 			; <UNDEFINED> instruction: 0x01ac0000
     af8:	03e80000 	mvneq	r0, #0, 0
     afc:	04020000 	streq	r0, [r2], #-0
     b00:	746e6905 	strbtvc	r6, [lr], #-2309	; 0xfffff6fb
     b04:	07040300 	streq	r0, [r4, -r0, lsl #6]
     b08:	0000009a 	muleq	r0, sl, r0
     b0c:	2c060103 	stfcss	f0, [r6], {3}
     b10:	03000000 	movweq	r0, #0
     b14:	00ee0502 	rsceq	r0, lr, r2, lsl #10
     b18:	04030000 	streq	r0, [r3], #-0
     b1c:	0000ac05 	andeq	sl, r0, r5, lsl #24
     b20:	05080300 	streq	r0, [r8, #-768]	; 0xfffffd00
     b24:	000000a7 	andeq	r0, r0, r7, lsr #1
     b28:	2a080103 	bcs	200f3c <__bss_end__+0x1f6864>
     b2c:	03000000 	movweq	r0, #0
     b30:	00450702 	subeq	r0, r5, r2, lsl #14
     b34:	04030000 	streq	r0, [r3], #-0
     b38:	00009507 	andeq	r9, r0, r7, lsl #10
     b3c:	07080300 	streq	r0, [r8, -r0, lsl #6]
     b40:	00000090 	muleq	r0, r0, r0
     b44:	00002504 	andeq	r2, r0, r4, lsl #10
     b48:	00007a00 	andeq	r7, r0, r0, lsl #20
     b4c:	00250500 	eoreq	r0, r5, r0, lsl #10
     b50:	06000000 	streq	r0, [r0], -r0
     b54:	00000102 	andeq	r0, r0, r2, lsl #2
     b58:	860e1c02 	strhi	r1, [lr], -r2, lsl #24
     b5c:	07000000 	streq	r0, [r0, -r0]
     b60:	00006b04 	andeq	r6, r0, r4, lsl #22
     b64:	00250400 	eoreq	r0, r5, r0, lsl #8
     b68:	009b0000 	addseq	r0, fp, r0
     b6c:	9b050000 	blls	140b74 <__bss_end__+0x13649c>
     b70:	00000000 	andeq	r0, r0, r0
     b74:	00a80407 	adceq	r0, r8, r7, lsl #8
     b78:	01030000 	mrseq	r0, (UNDEF: 3)
     b7c:	00003308 	andeq	r3, r0, r8, lsl #6
     b80:	00a10800 	adceq	r0, r1, r0, lsl #16
     b84:	72060000 	andvc	r0, r6, #0, 0
     b88:	02000005 	andeq	r0, r0, #5, 0
     b8c:	00b90e21 	adcseq	r0, r9, r1, lsr #28
     b90:	04070000 	streq	r0, [r7], #-0
     b94:	0000008c 	andeq	r0, r0, ip, lsl #1
     b98:	0002d609 	andeq	sp, r2, r9, lsl #12
     b9c:	05010800 	streq	r0, [r1, #-2048]	; 0xfffff800
     ba0:	0000ec07 	andeq	lr, r0, r7, lsl #24
     ba4:	00640a00 	rsbeq	r0, r4, r0, lsl #20
     ba8:	ec090701 	stc	7, cr0, [r9], {1}
     bac:	0a000000 	beq	bb4 <__code_start__-0x744c>
     bb0:	08010070 	stmdaeq	r1, {r4, r5, r6}
     bb4:	0000f308 	andeq	pc, r0, r8, lsl #6
     bb8:	70660a00 	rsbvc	r0, r6, r0, lsl #20
     bbc:	09090100 	stmdbeq	r9, {r8}
     bc0:	000000f6 	strdeq	r0, [r0], -r6
     bc4:	04080300 	streq	r0, [r8], #-768	; 0xfffffd00
     bc8:	000002f5 	strdeq	r0, [r0], -r5
     bcc:	070c040b 	streq	r0, [ip, -fp, lsl #8]
     bd0:	0000f504 	andeq	pc, r0, r4, lsl #10
     bd4:	01080d00 	tsteq	r8, r0, lsl #26
     bd8:	0120020e 			; <UNDEFINED> instruction: 0x0120020e
     bdc:	700e0000 	andvc	r0, lr, r0
     be0:	01007274 	tsteq	r0, r4, ror r2
     be4:	01421110 	cmpeq	r2, r0, lsl r1
     be8:	0f000000 	svceq	0x00000000
     bec:	0000030f 	andeq	r0, r0, pc, lsl #6
     bf0:	2c0c1101 	stfcss	f1, [ip], {1}
     bf4:	04000000 	streq	r0, [r0], #-0
     bf8:	02c90900 	sbceq	r0, r9, #0, 18
     bfc:	01080000 	mrseq	r0, (UNDEF: 8)
     c00:	01420f0c 	cmpeq	r2, ip, lsl #30
     c04:	730a0000 	movwvc	r0, #40960	; 0xa000
     c08:	04120100 	ldreq	r0, [r2], #-256	; 0xffffff00
     c0c:	000000fc 	strdeq	r0, [r0], -ip
     c10:	0100780a 	tsteq	r0, sl, lsl #16
     c14:	00bf0e13 	adcseq	r0, pc, r3, lsl lr	; <UNPREDICTABLE>
     c18:	07000000 	streq	r0, [r0, -r0]
     c1c:	00012004 	andeq	r2, r1, r4
     c20:	03141000 	tsteq	r4, #0, 0
     c24:	14010000 	strne	r0, [r1], #-0
     c28:	00012003 	andeq	r2, r1, r3
     c2c:	02fc1100 	rscseq	r1, ip, #0
     c30:	18010000 	stmdane	r1, {}	; <UNPREDICTABLE>
     c34:	0001480f 	andeq	r4, r1, pc, lsl #16
     c38:	c8030500 	stmdagt	r3, {r8, sl}
     c3c:	110000a2 	smlatbne	r0, r2, r0, r0
     c40:	000002dc 	ldrdeq	r0, [r0], -ip
     c44:	78101901 	ldmdavc	r0, {r0, r8, fp, ip}
     c48:	05000001 	streq	r0, [r0, #-1]
     c4c:	00a2c003 	adceq	ip, r2, r3
     c50:	48040700 	stmdami	r4, {r8, r9, sl}
     c54:	12000001 	andne	r0, r0, #1, 0
     c58:	000001f1 	strdeq	r0, [r0], -r1
     c5c:	20065201 	andcs	r5, r6, r1, lsl #4
     c60:	bc000084 	stclt	0, cr0, [r0], {132}	; 0x84
     c64:	01000000 	mrseq	r0, (UNDEF: 0)
     c68:	0001c79c 	muleq	r1, ip, r7
     c6c:	70611300 	rsbvc	r1, r1, r0, lsl #6
     c70:	14520100 	ldrbne	r0, [r2], #-256	; 0xffffff00
     c74:	000000f3 	strdeq	r0, [r0], -r3
     c78:	62145001 	andsvs	r5, r4, #1, 0
     c7c:	54010070 	strpl	r0, [r1], #-112	; 0xffffff90
     c80:	0001780a 	andeq	r7, r1, sl, lsl #16
     c84:	0003d500 	andeq	sp, r3, r0, lsl #10
     c88:	0003cd00 	andeq	ip, r3, r0, lsl #26
     c8c:	00701400 	rsbseq	r1, r0, r0, lsl #8
     c90:	780f5401 	stmdavc	pc, {r0, sl, ip, lr}	; <UNPREDICTABLE>
     c94:	11000001 	tstne	r0, r1
     c98:	0d000004 	stceq	0, cr0, [r0, #-16]
     c9c:	00000004 	andeq	r0, r0, r4
     ca0:	0002ba15 	andeq	fp, r2, r5, lsl sl
     ca4:	072a0100 	streq	r0, [sl, -r0, lsl #2]!
     ca8:	000000f3 	strdeq	r0, [r0], -r3
     cac:	00008520 	andeq	r8, r0, r0, lsr #10
     cb0:	000000ac 	andeq	r0, r0, ip, lsr #1
     cb4:	02409c01 	subeq	r9, r0, #256	; 0x100
     cb8:	b3160000 	tstlt	r6, #0, 0
     cbc:	01000002 	tsteq	r0, r2
     cc0:	002c1a2a 	eoreq	r1, ip, sl, lsr #20
     cc4:	04370000 	ldrteq	r0, [r7], #-0
     cc8:	042f0000 	strteq	r0, [pc], #-0	; cd0 <__code_start__-0x7330>
     ccc:	70140000 	andsvc	r0, r4, r0
     cd0:	0a2c0100 	beq	b010d8 <__bss_end__+0xaf6a00>
     cd4:	00000178 	andeq	r0, r0, r8, ror r1
     cd8:	0000047f 	andeq	r0, r0, pc, ror r4
     cdc:	00000471 	andeq	r0, r0, r1, ror r4
     ce0:	0002d017 	andeq	sp, r2, r7, lsl r0
     ce4:	0e2c0100 	sufeqe	f0, f4, f0
     ce8:	00000178 	andeq	r0, r0, r8, ror r1
     cec:	000004e1 	andeq	r0, r0, r1, ror #9
     cf0:	000004d7 	ldrdeq	r0, [r0], -r7
     cf4:	0002e217 	andeq	lr, r2, r7, lsl r2
     cf8:	0b2d0100 	bleq	b41100 <__bss_end__+0xb36a28>
     cfc:	0000002c 	andeq	r0, r0, ip, lsr #32
     d00:	00000527 	andeq	r0, r0, r7, lsr #10
     d04:	00000525 	andeq	r0, r0, r5, lsr #10
     d08:	0085bc18 	addeq	fp, r5, r8, lsl ip
     d0c:	00024000 	andeq	r4, r2, r0
     d10:	50011900 	andpl	r1, r1, r0, lsl #18
     d14:	00007402 	andeq	r7, r0, r2, lsl #8
     d18:	03061a00 	movweq	r1, #27136	; 0x6a00
     d1c:	1c010000 	stcne	0, cr0, [r1], {-0}
     d20:	00017810 	andeq	r7, r1, r0, lsl r8
     d24:	0084dc00 	addeq	sp, r4, r0, lsl #24
     d28:	00004400 	andeq	r4, r0, r0, lsl #8
     d2c:	b39c0100 	orrslt	r0, ip, #0
     d30:	1b000002 	blne	d40 <__code_start__-0x72c0>
     d34:	0100756e 	tsteq	r0, lr, ror #10
     d38:	002c221c 	eoreq	r2, ip, ip, lsl r2
     d3c:	053e0000 	ldreq	r0, [lr, #-0]!
     d40:	053a0000 	ldreq	r0, [sl, #-0]!
     d44:	63140000 	tstvs	r4, #0, 0
     d48:	20010070 	andcs	r0, r1, r0, ror r0
     d4c:	0002b308 	andeq	fp, r2, r8, lsl #6
     d50:	00056200 	andeq	r6, r5, r0, lsl #4
     d54:	00055c00 	andeq	r5, r5, r0, lsl #24
     d58:	70751400 	rsbsvc	r1, r5, r0, lsl #8
     d5c:	0a230100 	beq	8c1164 <__bss_end__+0x8b6a8c>
     d60:	00000178 	andeq	r0, r0, r8, ror r1
     d64:	00000591 	muleq	r0, r1, r5
     d68:	0000058d 	andeq	r0, r0, sp, lsl #11
     d6c:	0084f41c 	addeq	pc, r4, ip, lsl r4	; <UNPREDICTABLE>
     d70:	0002b900 	andeq	fp, r2, r0, lsl #18
     d74:	0002a900 	andeq	sl, r2, r0, lsl #18
     d78:	50011900 	andpl	r1, r1, r0, lsl #18
     d7c:	33007404 	movwcc	r7, #1028	; 0x404
     d80:	081d0024 	ldmdaeq	sp, {r2, r5}
     d84:	7e000085 	cdpvc	0, 0, cr0, cr0, cr5, {4}
     d88:	00000001 	andeq	r0, r0, r1
     d8c:	00a10407 	adceq	r0, r1, r7, lsl #8
     d90:	011e0000 	tsteq	lr, r0
     d94:	01000003 	tsteq	r0, r3
     d98:	03000003 	movweq	r0, #3
     d9c:	66000b1a 			; <UNDEFINED> instruction: 0x66000b1a
     da0:	04000006 	streq	r0, [r0], #-6
     da4:	00059b00 	andeq	r9, r5, r0, lsl #22
     da8:	0e010400 	cfcpyseq	mvf0, mvf1
     dac:	0c000001 	stceq	0, cr0, [r0], {1}
     db0:	000003bd 			; <UNDEFINED> instruction: 0x000003bd
     db4:	000000b5 	strheq	r0, [r0], -r5
     db8:	000085cc 	andeq	r8, r0, ip, asr #11
     dbc:	00000154 	andeq	r0, r0, r4, asr r1
     dc0:	00000613 	andeq	r0, r0, r3, lsl r6
     dc4:	69050402 	stmdbvs	r5, {r1, sl}
     dc8:	0300746e 	movweq	r7, #1134	; 0x46e
     dcc:	009a0704 	addseq	r0, sl, r4, lsl #14
     dd0:	01030000 	mrseq	r0, (UNDEF: 3)
     dd4:	00002c06 	andeq	r2, r0, r6, lsl #24
     dd8:	05020300 	streq	r0, [r2, #-768]	; 0xfffffd00
     ddc:	000000ee 	andeq	r0, r0, lr, ror #1
     de0:	ac050403 	cfstrsge	mvf0, [r5], {3}
     de4:	03000000 	movweq	r0, #0
     de8:	00a70508 	adceq	r0, r7, r8, lsl #10
     dec:	01030000 	mrseq	r0, (UNDEF: 3)
     df0:	00002a08 	andeq	r2, r0, r8, lsl #20
     df4:	024d0400 	subeq	r0, sp, #0, 8
     df8:	31020000 	mrscc	r0, (UNDEF: 2)
     dfc:	00006219 	andeq	r6, r0, r9, lsl r2
     e00:	07020300 	streq	r0, [r2, -r0, lsl #6]
     e04:	00000045 	andeq	r0, r0, r5, asr #32
     e08:	00024404 	andeq	r4, r2, r4, lsl #8
     e0c:	19340200 	ldmdbne	r4!, {r9}
     e10:	00000075 	andeq	r0, r0, r5, ror r0
     e14:	95070403 	strls	r0, [r7, #-1027]	; 0xfffffbfd
     e18:	03000000 	movweq	r0, #0
     e1c:	00900708 	addseq	r0, r0, r8, lsl #14
     e20:	25050000 	strcs	r0, [r5, #-0]
     e24:	92000000 	andls	r0, r0, #0, 0
     e28:	06000000 	streq	r0, [r0], -r0
     e2c:	00000025 	andeq	r0, r0, r5, lsr #32
     e30:	01020700 	tsteq	r2, r0, lsl #14
     e34:	1c030000 	stcne	0, cr0, [r3], {-0}
     e38:	00009e0e 	andeq	r9, r0, lr, lsl #28
     e3c:	83040800 	movwhi	r0, #18432	; 0x4800
     e40:	05000000 	streq	r0, [r0, #-0]
     e44:	00000025 	andeq	r0, r0, r5, lsr #32
     e48:	000000b3 	strheq	r0, [r0], -r3
     e4c:	0000b306 	andeq	fp, r0, r6, lsl #6
     e50:	04080000 	streq	r0, [r8], #-0
     e54:	000000c0 	andeq	r0, r0, r0, asr #1
     e58:	33080103 	movwcc	r0, #33027	; 0x8103
     e5c:	09000000 	stmdbeq	r0, {}	; <UNPREDICTABLE>
     e60:	000000b9 	strheq	r0, [r0], -r9
     e64:	00057207 	andeq	r7, r5, r7, lsl #4
     e68:	0e210300 	cdpeq	3, 2, cr0, cr1, cr0, {0}
     e6c:	000000d1 	ldrdeq	r0, [r0], -r1
     e70:	00a40408 	adceq	r0, r4, r8, lsl #8
     e74:	0c0a0000 	stceq	0, cr0, [sl], {-0}
     e78:	08090404 	stmdaeq	r9, {r2, sl}
     e7c:	0b000001 	bleq	e88 <__code_start__-0x7178>
     e80:	00000025 	andeq	r0, r0, r5, lsr #32
     e84:	b3110604 	tstlt	r1, #4, 12	; 0x400000
     e88:	00000000 	andeq	r0, r0, r0
     e8c:	00006a0b 	andeq	r6, r0, fp, lsl #20
     e90:	11070400 	tstne	r7, r0, lsl #8
     e94:	000000b3 	strheq	r0, [r0], -r3
     e98:	00080b04 	andeq	r0, r8, r4, lsl #22
     e9c:	08040000 	stmdaeq	r4, {}	; <UNPREDICTABLE>
     ea0:	00002c0e 	andeq	r2, r0, lr, lsl #24
     ea4:	04000800 	streq	r0, [r0], #-2048	; 0xfffff800
     ea8:	000000f8 	strdeq	r0, [r0], -r8
     eac:	d7030904 	strle	r0, [r3, -r4, lsl #18]
     eb0:	0c000000 	stceq	0, cr0, [r0], {-0}
     eb4:	0000021d 	andeq	r0, r0, sp, lsl r2
     eb8:	100c0524 	andne	r0, ip, r4, lsr #10
     ebc:	0000017d 	andeq	r0, r0, sp, ror r1
     ec0:	0002c40b 	andeq	ip, r2, fp, lsl #8
     ec4:	140d0500 	strne	r0, [sp], #-1280	; 0xfffffb00
     ec8:	0000017d 	andeq	r0, r0, sp, ror r1
     ecc:	02860b00 	addeq	r0, r6, #0, 22
     ed0:	0e050000 	cdpeq	0, 0, cr0, cr5, cr0, {0}
     ed4:	0000690e 	andeq	r6, r0, lr, lsl #18
     ed8:	2e0b0400 	cfcpyscs	mvf0, mvf11
     edc:	05000002 	streq	r0, [r0, #-2]
     ee0:	00690e0f 	rsbeq	r0, r9, pc, lsl #28
     ee4:	0b080000 	bleq	200eec <__bss_end__+0x1f6814>
     ee8:	00000224 	andeq	r0, r0, r4, lsr #4
     eec:	080f1105 	stmdaeq	pc, {r0, r2, r8, ip}	; <UNPREDICTABLE>
     ef0:	0c000001 	stceq	0, cr0, [r0], {1}
     ef4:	0002390b 	andeq	r3, r2, fp, lsl #18
     ef8:	0e140500 	cfmul32eq	mvfx0, mvfx4, mvfx0
     efc:	00000069 	andeq	r0, r0, r9, rrx
     f00:	01e50b18 	mvneq	r0, r8, lsl fp
     f04:	15050000 	strne	r0, [r5, #-0]
     f08:	0000690e 	andeq	r6, r0, lr, lsl #18
     f0c:	340b1c00 	strcc	r1, [fp], #-3072	; 0xfffff400
     f10:	05000002 	streq	r0, [r0, #-2]
     f14:	00560e17 	subseq	r0, r6, r7, lsl lr
     f18:	00200000 	eoreq	r0, r0, r0
     f1c:	01140408 	tsteq	r4, r8, lsl #8
     f20:	d9040000 	stmdble	r4, {}	; <UNPREDICTABLE>
     f24:	05000001 	streq	r0, [r0, #-1]
     f28:	01140318 	tsteq	r4, r8, lsl r3
     f2c:	040d0000 	streq	r0, [sp], #-0
     f30:	0009da0e 	andeq	sp, r9, lr, lsl #20
     f34:	0f100100 	svceq	0x00100100
     f38:	0000018f 	andeq	r0, r0, pc, lsl #3
     f3c:	000a400e 	andeq	r4, sl, lr
     f40:	0f110100 	svceq	0x00110100
     f44:	0000018f 	andeq	r0, r0, pc, lsl #3
     f48:	00032e0f 	andeq	r2, r3, pc, lsl #28
     f4c:	06d00100 	ldrbeq	r0, [r0], r0, lsl #2
     f50:	000086f8 	strdeq	r8, [r0], -r8	; <UNPREDICTABLE>
     f54:	00000028 	andeq	r0, r0, r8, lsr #32
     f58:	02079c01 	andeq	r9, r7, #256	; 0x100
     f5c:	6f100000 	svcvs	0x00100000
     f60:	17000000 	strne	r0, [r0, -r0]
     f64:	05000002 	streq	r0, [r0, #-2]
     f68:	009f2803 	addseq	r2, pc, r3, lsl #16
     f6c:	87101100 	ldrhi	r1, [r0, -r0, lsl #2]
     f70:	06150000 	ldreq	r0, [r5], -r0
     f74:	01fd0000 	mvnseq	r0, r0
     f78:	01120000 	tsteq	r2, r0
     f7c:	e4030550 	str	r0, [r3], #-1360	; 0xfffffab0
     f80:	1200009e 	andne	r0, r0, #158, 0	; 0x9e
     f84:	03055101 	movweq	r5, #20737	; 0x5101
     f88:	00009e80 	andeq	r9, r0, r0, lsl #29
     f8c:	05520112 	ldrbeq	r0, [r2, #-274]	; 0xfffffeee
     f90:	009f2803 	addseq	r2, pc, r3, lsl #16
     f94:	53011200 	movwpl	r1, #4608	; 0x1200
     f98:	00d10802 	sbcseq	r0, r1, r2, lsl #16
     f9c:	00871413 	addeq	r1, r7, r3, lsl r4
     fa0:	00062100 	andeq	r2, r6, r0, lsl #2
     fa4:	c0140000 	andsgt	r0, r4, r0
     fa8:	17000000 	strne	r0, [r0, -r0]
     fac:	15000002 	strne	r0, [r0, #-2]
     fb0:	0000002c 	andeq	r0, r0, ip, lsr #32
     fb4:	0709000e 	streq	r0, [r9, -lr]
     fb8:	16000002 	strne	r0, [r0], -r2
     fbc:	00000374 	andeq	r0, r0, r4, ror r3
     fc0:	2c0ac701 	stccs	7, cr12, [sl], {1}
     fc4:	f0000000 			; <UNDEFINED> instruction: 0xf0000000
     fc8:	08000086 	stmdaeq	r0, {r1, r2, r7}
     fcc:	01000000 	mrseq	r0, (UNDEF: 0)
     fd0:	00024c9c 	muleq	r2, ip, ip
     fd4:	02b30e00 	adcseq	r0, r3, #0, 28
     fd8:	c9010000 	stmdbgt	r1, {}	; <UNPREDICTABLE>
     fdc:	00002c0e 	andeq	r2, r0, lr, lsl #24
     fe0:	86f81300 	ldrbthi	r1, [r8], r0, lsl #6
     fe4:	037b0000 	cmneq	fp, #0, 0
     fe8:	17000000 	strne	r0, [r0, -r0]
     fec:	0000041c 	andeq	r0, r0, ip, lsl r4
     ff0:	2c11bb01 			; <UNDEFINED> instruction: 0x2c11bb01
     ff4:	8e000000 	cdphi	0, 0, cr0, cr0, cr0, {0}
     ff8:	0e000002 	cdpeq	0, 0, cr0, cr0, cr2, {0}
     ffc:	0000034b 	andeq	r0, r0, fp, asr #6
    1000:	2c0bbc01 	stccs	12, cr11, [fp], {1}
    1004:	0e000000 	cdpeq	0, 0, cr0, cr0, cr0, {0}
    1008:	000003b0 			; <UNDEFINED> instruction: 0x000003b0
    100c:	2c18bc01 	ldccs	12, cr11, [r8], {1}
    1010:	0e000000 	cdpeq	0, 0, cr0, cr0, cr0, {0}
    1014:	0000035a 	andeq	r0, r0, sl, asr r3
    1018:	2c22bc01 	stccs	12, cr11, [r2], #-4
    101c:	18000000 	stmdane	r0, {}	; <UNPREDICTABLE>
    1020:	0000006f 	andeq	r0, r0, pc, rrx
    1024:	0000029e 	muleq	r0, lr, r2
    1028:	0000041c 	andeq	r0, r0, ip, lsl r4
    102c:	00c01400 	sbceq	r1, r0, r0, lsl #8
    1030:	029e0000 	addseq	r0, lr, #0, 0
    1034:	2c150000 	ldccs	0, cr0, [r5], {-0}
    1038:	0a000000 	beq	1040 <__code_start__-0x6fc0>
    103c:	028e0900 	addeq	r0, lr, #0, 18
    1040:	c5160000 	ldrgt	r0, [r6, #-0]
    1044:	01000003 	tsteq	r0, r3
    1048:	002c0aac 	eoreq	r0, ip, ip, lsr #21
    104c:	86e40000 	strbthi	r0, [r4], r0
    1050:	000c0000 	andeq	r0, ip, r0
    1054:	9c010000 	stcls	0, cr0, [r1], {-0}
    1058:	000002e6 	andeq	r0, r0, r6, ror #5
    105c:	0003840e 	andeq	r8, r3, lr, lsl #8
    1060:	0eb10100 	frdeqs	f0, f1, f0
    1064:	0000002c 	andeq	r0, r0, ip, lsr #32
    1068:	00006f18 	andeq	r6, r0, r8, lsl pc
    106c:	0002f600 	andeq	pc, r2, r0, lsl #12
    1070:	0003c500 	andeq	ip, r3, r0, lsl #10
    1074:	86f01900 	ldrbthi	r1, [r0], r0, lsl #18
    1078:	03430000 	movteq	r0, #12288	; 0x3000
    107c:	01120000 	tsteq	r2, r0
    1080:	00310150 	eorseq	r0, r1, r0, asr r1
    1084:	00c01400 	sbceq	r1, r0, r0, lsl #8
    1088:	02f60000 	rscseq	r0, r6, #0, 0
    108c:	2c150000 	ldccs	0, cr0, [r5], {-0}
    1090:	11000000 	mrsne	r0, (UNDEF: 0)
    1094:	02e60900 	rsceq	r0, r6, #0, 18
    1098:	a20f0000 	andge	r0, pc, #0, 0
    109c:	01000003 	tsteq	r0, r3
    10a0:	86d8069f 			; <UNDEFINED> instruction: 0x86d8069f
    10a4:	000c0000 	andeq	r0, ip, r0
    10a8:	9c010000 	stcls	0, cr0, [r1], {-0}
    10ac:	0000032e 	andeq	r0, r0, lr, lsr #6
    10b0:	00006f18 	andeq	r6, r0, r8, lsl pc
    10b4:	00033e00 	andeq	r3, r3, r0, lsl #28
    10b8:	0003a200 	andeq	sl, r3, r0, lsl #4
    10bc:	86e41900 	strbthi	r1, [r4], r0, lsl #18
    10c0:	03430000 	movteq	r0, #12288	; 0x3000
    10c4:	01120000 	tsteq	r2, r0
    10c8:	00310150 	eorseq	r0, r1, r0, asr r1
    10cc:	00c01400 	sbceq	r1, r0, r0, lsl #8
    10d0:	033e0000 	teqeq	lr, #0, 0
    10d4:	2c150000 	ldccs	0, cr0, [r5], {-0}
    10d8:	0d000000 	stceq	0, cr0, [r0, #-0]
    10dc:	032e0900 			; <UNDEFINED> instruction: 0x032e0900
    10e0:	0f160000 	svceq	0x00160000
    10e4:	01000000 	mrseq	r0, (UNDEF: 0)
    10e8:	002c0a99 	mlaeq	ip, r9, sl, r0
    10ec:	86d00000 	ldrbhi	r0, [r0], r0
    10f0:	00080000 	andeq	r0, r8, r0
    10f4:	9c010000 	stcls	0, cr0, [r1], {-0}
    10f8:	0000037b 	andeq	r0, r0, fp, ror r3
    10fc:	0004271a 	andeq	r2, r4, sl, lsl r7
    1100:	1c990100 	ldfnes	f0, [r9], {0}
    1104:	00000025 	andeq	r0, r0, r5, lsr #32
    1108:	000005b5 			; <UNDEFINED> instruction: 0x000005b5
    110c:	000005b1 			; <UNDEFINED> instruction: 0x000005b1
    1110:	0086d813 	addeq	sp, r6, r3, lsl r8
    1114:	00037b00 	andeq	r7, r3, r0, lsl #22
    1118:	251b0000 	ldrcs	r0, [fp, #-0]
    111c:	01000003 	tsteq	r0, r3
    1120:	85cc0d71 	strbhi	r0, [ip, #3441]	; 0xd71
    1124:	006c0000 	rsbeq	r0, ip, r0
    1128:	9c010000 	stcls	0, cr0, [r1], {-0}
    112c:	0000046b 	andeq	r0, r0, fp, ror #8
    1130:	00037f1c 	andeq	r7, r3, ip, lsl pc
    1134:	0e7b0100 	rpweqe	f0, f3, f0
    1138:	0000046b 	andeq	r0, r0, fp, ror #8
    113c:	7fb89103 	svcvc	0x00b89103
    1140:	00006f10 	andeq	r6, r0, r0, lsl pc
    1144:	00048b00 	andeq	r8, r4, r0, lsl #22
    1148:	14030500 	strne	r0, [r3], #-1280	; 0xfffffb00
    114c:	0e00009f 	mcreq	0, 0, r0, cr0, cr15, {4}
    1150:	0000031b 	andeq	r0, r0, fp, lsl r3
    1154:	900f8c01 	andls	r8, pc, r1, lsl #24
    1158:	07000004 	streq	r0, [r0, -r4]
    115c:	0000033d 	andeq	r0, r0, sp, lsr r3
    1160:	69159001 	ldmdbvs	r5, {r0, ip, pc}
    1164:	07000000 	streq	r0, [r0, -r0]
    1168:	000003d7 	ldrdeq	r0, [r0], -r7
    116c:	69249001 	stmdbvs	r4!, {r0, ip, pc}
    1170:	07000000 	streq	r0, [r0, -r0]
    1174:	0000040d 	andeq	r0, r0, sp, lsl #8
    1178:	69159301 	ldmdbvs	r5, {r0, r8, r9, ip, pc}
    117c:	07000000 	streq	r0, [r0, -r0]
    1180:	00000395 	muleq	r0, r5, r3
    1184:	69259301 	stmdbvs	r5!, {r0, r8, r9, ip, pc}
    1188:	1d000000 	stcne	0, cr0, [r0, #-0]
    118c:	000085d4 	ldrdeq	r8, [r0], -r4
    1190:	00000024 	andeq	r0, r0, r4, lsr #32
    1194:	0000041e 	andeq	r0, r0, lr, lsl r4
    1198:	0100681e 	tsteq	r0, lr, lsl r8
    119c:	04961075 	ldreq	r1, [r6], #117	; 0x75
    11a0:	05da0000 	ldrbeq	r0, [sl]
    11a4:	05d60000 	ldrbeq	r0, [r6]
    11a8:	d8130000 	ldmdale	r3, {}	; <UNPREDICTABLE>
    11ac:	2d000085 	stccs	0, cr0, [r0, #-532]	; 0xfffffdec
    11b0:	13000006 	movwne	r0, #6
    11b4:	000085f4 	strdeq	r8, [r0], -r4
    11b8:	00000639 	andeq	r0, r0, r9, lsr r6
    11bc:	86001100 	strhi	r1, [r0], -r0, lsl #2
    11c0:	06450000 	strbeq	r0, [r5], -r0
    11c4:	04320000 	ldrteq	r0, [r2], #-0
    11c8:	01120000 	tsteq	r2, r0
    11cc:	007d0250 	rsbseq	r0, sp, r0, asr r2
    11d0:	86281100 	strthi	r1, [r8], -r0, lsl #2
    11d4:	06150000 	ldreq	r0, [r5], -r0
    11d8:	04610000 	strbteq	r0, [r1], #-0
    11dc:	01120000 	tsteq	r2, r0
    11e0:	88030550 	stmdahi	r3, {r4, r6, r8, sl}
    11e4:	1200009e 	andne	r0, r0, #158, 0	; 0x9e
    11e8:	03055101 	movweq	r5, #20737	; 0x5101
    11ec:	00009e80 	andeq	r9, r0, r0, lsl #29
    11f0:	05520112 	ldrbeq	r0, [r2, #-274]	; 0xfffffeee
    11f4:	009f1403 	addseq	r1, pc, r3, lsl #8
    11f8:	53011200 	movwpl	r1, #4608	; 0x1200
    11fc:	00830802 	addeq	r0, r3, r2, lsl #16
    1200:	00862c13 	addeq	r2, r6, r3, lsl ip
    1204:	00062100 	andeq	r2, r6, r0, lsl #2
    1208:	69140000 	ldmdbvs	r4, {}	; <UNPREDICTABLE>
    120c:	7b000000 	blvc	1214 <__code_start__-0x6dec>
    1210:	15000004 	strne	r0, [r0, #-4]
    1214:	0000002c 	andeq	r0, r0, ip, lsr #32
    1218:	c014000f 	andsgt	r0, r4, pc
    121c:	8b000000 	blhi	1224 <__code_start__-0x6ddc>
    1220:	15000004 	strne	r0, [r0, #-4]
    1224:	0000002c 	andeq	r0, r0, ip, lsr #32
    1228:	7b090008 	blvc	241250 <__bss_end__+0x236b78>
    122c:	08000004 	stmdaeq	r0, {r2}
    1230:	00006904 	andeq	r6, r0, r4, lsl #18
    1234:	83040800 	movwhi	r0, #18432	; 0x4800
    1238:	17000001 	strne	r0, [r0, -r1]
    123c:	00000402 	andeq	r0, r0, r2, lsl #8
    1240:	2c115901 			; <UNDEFINED> instruction: 0x2c115901
    1244:	ea000000 	b	124c <__code_start__-0x6db4>
    1248:	1f000004 	svcne	0x00000004
    124c:	00000427 	andeq	r0, r0, r7, lsr #8
    1250:	25205901 	strcs	r5, [r0, #-2305]!	; 0xfffff6ff
    1254:	0e000000 	cdpeq	0, 0, cr0, cr0, cr0, {0}
    1258:	0000034b 	andeq	r0, r0, fp, asr #6
    125c:	2c0b5a01 			; <UNDEFINED> instruction: 0x2c0b5a01
    1260:	0e000000 	cdpeq	0, 0, cr0, cr0, cr0, {0}
    1264:	0000036d 	andeq	r0, r0, sp, ror #6
    1268:	2c185a01 			; <UNDEFINED> instruction: 0x2c185a01
    126c:	0e000000 	cdpeq	0, 0, cr0, cr0, cr0, {0}
    1270:	00000367 	andeq	r0, r0, r7, ror #6
    1274:	2c245a01 			; <UNDEFINED> instruction: 0x2c245a01
    1278:	18000000 	stmdane	r0, {}	; <UNPREDICTABLE>
    127c:	0000006f 	andeq	r0, r0, pc, rrx
    1280:	0000029e 	muleq	r0, lr, r2
    1284:	00000402 	andeq	r0, r0, r2, lsl #8
    1288:	03011600 	movweq	r1, #5632	; 0x1600
    128c:	13010000 	movwne	r0, #4096	; 0x1000
    1290:	00018f07 	andeq	r8, r1, r7, lsl #30
    1294:	00863800 	addeq	r3, r6, r0, lsl #16
    1298:	00009800 	andeq	r9, r0, r0, lsl #16
    129c:	009c0100 	addseq	r0, ip, r0, lsl #2
    12a0:	1a000006 	bne	12c0 <__code_start__-0x6d40>
    12a4:	0000038b 	andeq	r0, r0, fp, lsl #7
    12a8:	41111301 	tstmi	r1, r1, lsl #6
    12ac:	04000000 	streq	r0, [r0], #-0
    12b0:	f8000006 			; <UNDEFINED> instruction: 0xf8000006
    12b4:	1c000005 	stcne	0, cr0, [r0], {5}
    12b8:	00000353 	andeq	r0, r0, r3, asr r3
    12bc:	25101401 	ldrcs	r1, [r0, #-1025]	; 0xfffffbff
    12c0:	05000000 	streq	r0, [r0, #-0]
    12c4:	00a2d003 	adceq	sp, r2, r3
    12c8:	006f1000 	rsbeq	r1, pc, r0
    12cc:	06100000 	ldreq	r0, [r0], -r0
    12d0:	03050000 	movweq	r0, #20480	; 0x5000
    12d4:	00009f20 	andeq	r9, r0, r0, lsr #30
    12d8:	0086581d 	addeq	r5, r6, sp, lsl r8
    12dc:	00001800 	andeq	r1, r0, r0, lsl #16
    12e0:	00057300 	andeq	r7, r5, r0, lsl #6
    12e4:	03b72000 			; <UNDEFINED> instruction: 0x03b72000
    12e8:	1a010000 	bne	412f0 <__bss_end__+0x36c18>
    12ec:	00002c12 	andeq	r2, r0, r2, lsl ip
    12f0:	00065000 	andeq	r5, r6, r0
    12f4:	00064e00 	andeq	r4, r6, r0, lsl #28
    12f8:	86641900 	strbthi	r1, [r4], -r0, lsl #18
    12fc:	06510000 	ldrbeq	r0, [r1], -r0
    1300:	01120000 	tsteq	r2, r0
    1304:	40400350 	submi	r0, r0, r0, asr r3
    1308:	51011224 	tstpl	r1, r4, lsr #4
    130c:	24404003 	strbcs	r4, [r0], #-3
    1310:	78110000 	ldmdavc	r1, {}	; <UNPREDICTABLE>
    1314:	5d000086 	stcpl	0, cr0, [r0, #-536]	; 0xfffffde8
    1318:	87000006 	strhi	r0, [r0, -r6]
    131c:	12000005 	andne	r0, r0, #5, 0
    1320:	74025001 	strvc	r5, [r2], #-1
    1324:	9c110000 	ldcls	0, cr0, [r1], {-0}
    1328:	15000086 	strne	r0, [r0, #-134]	; 0xffffff7a
    132c:	bf000006 	svclt	0x00000006
    1330:	12000005 	andne	r0, r0, #5, 0
    1334:	03055001 	movweq	r5, #20481	; 0x5001
    1338:	00009d94 	muleq	r0, r4, sp
    133c:	05510112 	ldrbeq	r0, [r1, #-274]	; 0xfffffeee
    1340:	009e8003 	addseq	r8, lr, r3
    1344:	52011200 	andpl	r1, r1, #0, 4
    1348:	9f200305 	svcls	0x00200305
    134c:	01120000 	tsteq	r2, r0
    1350:	12460153 	subne	r0, r6, #-1073741804	; 0xc0000014
    1354:	05007d02 	streq	r7, [r0, #-3330]	; 0xfffff2fe
    1358:	009eb403 	addseq	fp, lr, r3, lsl #8
    135c:	a0130000 	andsge	r0, r3, r0
    1360:	21000086 	smlabbcs	r0, r6, r0, r0
    1364:	11000006 	tstne	r0, r6
    1368:	000086b4 			; <UNDEFINED> instruction: 0x000086b4
    136c:	00000615 	andeq	r0, r0, r5, lsl r6
    1370:	000005f6 	strdeq	r0, [r0], -r6
    1374:	05500112 	ldrbeq	r0, [r0, #-274]	; 0xfffffeee
    1378:	009ec403 	addseq	ip, lr, r3, lsl #8
    137c:	51011200 	mrspl	r1, R9_usr
    1380:	9e800305 	cdpls	3, 8, cr0, cr0, cr5, {0}
    1384:	01120000 	tsteq	r2, r0
    1388:	20030552 	andcs	r0, r3, r2, asr r5
    138c:	1200009f 	andne	r0, r0, #159, 0	; 0x9f
    1390:	48015301 	stmdami	r1, {r0, r8, r9, ip, lr}
    1394:	86b81300 	ldrthi	r1, [r8], r0, lsl #6
    1398:	06210000 	strteq	r0, [r1], -r0
    139c:	14000000 	strne	r0, [r0], #-0
    13a0:	000000c0 	andeq	r0, r0, r0, asr #1
    13a4:	00000610 	andeq	r0, r0, r0, lsl r6
    13a8:	00002c15 	andeq	r2, r0, r5, lsl ip
    13ac:	09000400 	stmdbeq	r0, {sl}
    13b0:	00000600 	andeq	r0, r0, r0, lsl #12
    13b4:	00053421 	andeq	r3, r5, r1, lsr #8
    13b8:	00053400 	andeq	r3, r5, r0, lsl #8
    13bc:	06280300 	strteq	r0, [r8], -r0, lsl #6
    13c0:	00003821 	andeq	r3, r0, r1, lsr #16
    13c4:	00003800 	andeq	r3, r0, r0, lsl #16
    13c8:	066e0300 	strbteq	r0, [lr], -r0, lsl #6
    13cc:	0001f921 	andeq	pc, r1, r1, lsr #18
    13d0:	0001f900 	andeq	pc, r1, r0, lsl #18
    13d4:	081b0500 	ldmdaeq	fp, {r8, sl}
    13d8:	00026821 	andeq	r6, r2, r1, lsr #16
    13dc:	00026800 	andeq	r6, r2, r0, lsl #16
    13e0:	081e0500 	ldmdaeq	lr, {r8, sl}
    13e4:	00037a21 	andeq	r7, r3, r1, lsr #20
    13e8:	00037a00 	andeq	r7, r3, r0, lsl #20
    13ec:	066e0100 	strbteq	r0, [lr], -r0, lsl #2
    13f0:	0003eb21 	andeq	lr, r3, r1, lsr #22
    13f4:	0003eb00 	andeq	lr, r3, r0, lsl #22
    13f8:	06820300 	streq	r0, [r2], r0, lsl #6
    13fc:	0003e321 	andeq	lr, r3, r1, lsr #6
    1400:	0003e300 	andeq	lr, r3, r0, lsl #6
    1404:	077b0300 	ldrbeq	r0, [fp, -r0, lsl #6]!
    1408:	00014000 	andeq	r4, r1, r0
    140c:	8c000400 	cfstrshi	mvf0, [r0], {-0}
    1410:	04000007 	streq	r0, [r0], #-7
    1414:	00045201 	andeq	r5, r4, r1, lsl #4
    1418:	04420c00 	strbeq	r0, [r2], #-3072	; 0xfffff400
    141c:	050a0000 	streq	r0, [sl, #-0]
    1420:	87280000 	strhi	r0, [r8, -r0]!
    1424:	00780000 	rsbseq	r0, r8, r0
    1428:	08280000 	stmdaeq	r8!, {}	; <UNPREDICTABLE>
    142c:	04020000 	streq	r0, [r2], #-0
    1430:	746e6905 	strbtvc	r6, [lr], #-2309	; 0xfffff6fb
    1434:	043b0300 	ldrteq	r0, [fp], #-768	; 0xfffffd00
    1438:	d1030000 	mrsle	r0, (UNDEF: 3)
    143c:	00003817 	andeq	r3, r0, r7, lsl r8
    1440:	07040400 	streq	r0, [r4, -r0, lsl #8]
    1444:	0000009a 	muleq	r0, sl, r0
    1448:	2c060104 	stfcss	f0, [r6], {4}
    144c:	04000000 	streq	r0, [r0], #-0
    1450:	00ee0502 	rsceq	r0, lr, r2, lsl #10
    1454:	04040000 	streq	r0, [r4], #-0
    1458:	0000ac05 	andeq	sl, r0, r5, lsl #24
    145c:	05080400 	streq	r0, [r8, #-1024]	; 0xfffffc00
    1460:	000000a7 	andeq	r0, r0, r7, lsr #1
    1464:	2a080104 	bcs	20187c <__bss_end__+0x1f71a4>
    1468:	04000000 	streq	r0, [r0], #-0
    146c:	00450702 	subeq	r0, r5, r2, lsl #14
    1470:	04040000 	streq	r0, [r4], #-0
    1474:	00009507 	andeq	r9, r0, r7, lsl #10
    1478:	07080400 	streq	r0, [r8, -r0, lsl #8]
    147c:	00000090 	muleq	r0, r0, r0
    1480:	00002505 	andeq	r2, r0, r5, lsl #10
    1484:	00008600 	andeq	r8, r0, r0, lsl #12
    1488:	00250600 	eoreq	r0, r5, r0, lsl #12
    148c:	07000000 	streq	r0, [r0, -r0]
    1490:	00000102 	andeq	r0, r0, r2, lsl #2
    1494:	920e1c02 	andls	r1, lr, #512	; 0x200
    1498:	08000000 	stmdaeq	r0, {}	; <UNPREDICTABLE>
    149c:	00007704 	andeq	r7, r0, r4, lsl #14
    14a0:	00250500 	eoreq	r0, r5, r0, lsl #10
    14a4:	00a70000 	adceq	r0, r7, r0
    14a8:	a7060000 	strge	r0, [r6, -r0]
    14ac:	00000000 	andeq	r0, r0, r0
    14b0:	00b40408 	adcseq	r0, r4, r8, lsl #8
    14b4:	01040000 	mrseq	r0, (UNDEF: 4)
    14b8:	00003308 	andeq	r3, r0, r8, lsl #6
    14bc:	00ad0900 	adceq	r0, sp, r0, lsl #18
    14c0:	72070000 	andvc	r0, r7, #0, 0
    14c4:	02000005 	andeq	r0, r0, #5, 0
    14c8:	00c50e21 	sbceq	r0, r5, r1, lsr #28
    14cc:	04080000 	streq	r0, [r8], #-0
    14d0:	00000098 	muleq	r0, r8, r0
    14d4:	0000630a 	andeq	r6, r0, sl, lsl #6
    14d8:	07040100 	streq	r0, [r4, -r0, lsl #2]
    14dc:	0000013b 	andeq	r0, r0, fp, lsr r1
    14e0:	00008728 	andeq	r8, r0, r8, lsr #14
    14e4:	00000078 	andeq	r0, r0, r8, ror r0
    14e8:	013b9c01 	teqeq	fp, r1, lsl #24
    14ec:	5f0b0000 	svcpl	0x000b0000
    14f0:	04010070 	streq	r0, [r1], #-112	; 0xffffff90
    14f4:	00013b14 	andeq	r3, r1, r4, lsl fp
    14f8:	0c500100 	ldfeqe	f0, [r0], {-0}
    14fc:	04010063 	streq	r0, [r1], #-99	; 0xffffff9d
    1500:	0000251c 	andeq	r2, r0, ip, lsl r5
    1504:	00066a00 	andeq	r6, r6, r0, lsl #20
    1508:	00066600 	andeq	r6, r6, r0, lsl #12
    150c:	006e0c00 	rsbeq	r0, lr, r0, lsl #24
    1510:	2c260401 	cfstrscs	mvf0, [r6], #-4
    1514:	8f000000 	svchi	0x00000000
    1518:	8b000006 	blhi	1538 <__code_start__-0x6ac8>
    151c:	0d000006 	stceq	0, cr0, [r0, #-24]	; 0xffffffe8
    1520:	05010070 	streq	r0, [r1, #-112]	; 0xffffff90
    1524:	00013d0b 	andeq	r3, r1, fp, lsl #26
    1528:	0006be00 	andeq	fp, r6, r0, lsl #28
    152c:	0006b000 	andeq	fp, r6, r0
    1530:	00650d00 	rsbeq	r0, r5, r0, lsl #26
    1534:	3d140501 	cfldr32cc	mvfx0, [r4, #-4]
    1538:	1b000001 	blne	1544 <__code_start__-0x6abc>
    153c:	19000007 	stmdbne	r0, {r0, r1, r2}
    1540:	00000007 	andeq	r0, r0, r7
    1544:	0408040e 	streq	r0, [r8], #-1038	; 0xfffffbf2
    1548:	000000ad 	andeq	r0, r0, sp, lsr #1
    154c:	00019d00 	andeq	r9, r1, r0, lsl #26
    1550:	58000400 	stmdapl	r0, {sl}
    1554:	04000008 	streq	r0, [r0], #-8
    1558:	00045201 	andeq	r5, r4, r1, lsl #4
    155c:	054f0c00 	strbeq	r0, [pc, #-3072]	; 964 <__code_start__-0x769c>
    1560:	050a0000 	streq	r0, [sl, #-0]
    1564:	87a00000 	strhi	r0, [r0, r0]!
    1568:	00580000 	subseq	r0, r8, r0
    156c:	094d0000 	stmdbeq	sp, {}^	; <UNPREDICTABLE>
    1570:	3b020000 	blcc	81578 <__bss_end__+0x76ea0>
    1574:	02000005 	andeq	r0, r0, #5, 0
    1578:	00311b28 	eorseq	r1, r1, r8, lsr #22
    157c:	5f030000 	svcpl	0x00030000
    1580:	04000005 	streq	r0, [r0], #-5
    1584:	00480004 	subeq	r0, r8, r4
    1588:	4a040000 	bmi	101590 <__bss_end__+0xf6eb8>
    158c:	48000005 	stmdami	r0, {r0, r2}
    1590:	00000000 	andeq	r0, r0, r0
    1594:	02040500 	andeq	r0, r4, #0, 10
    1598:	00000561 	andeq	r0, r0, r1, ror #10
    159c:	25186302 	ldrcs	r6, [r8, #-770]	; 0xfffffcfe
    15a0:	06000000 	streq	r0, [r0], -r0
    15a4:	6e690504 	cdpvs	5, 6, cr0, cr9, cr4, {0}
    15a8:	04070074 	streq	r0, [r7], #-116	; 0xffffff8c
    15ac:	00009a07 	andeq	r9, r0, r7, lsl #20
    15b0:	06010700 	streq	r0, [r1], -r0, lsl #14
    15b4:	0000002c 	andeq	r0, r0, ip, lsr #32
    15b8:	ee050207 	cdp	2, 0, cr0, cr5, cr7, {0}
    15bc:	07000000 	streq	r0, [r0, -r0]
    15c0:	00ac0504 	adceq	r0, ip, r4, lsl #10
    15c4:	08070000 	stmdaeq	r7, {}	; <UNPREDICTABLE>
    15c8:	0000a705 	andeq	sl, r0, r5, lsl #14
    15cc:	08010700 	stmdaeq	r1, {r8, r9, sl}
    15d0:	0000002a 	andeq	r0, r0, sl, lsr #32
    15d4:	45070207 	strmi	r0, [r7, #-519]	; 0xfffffdf9
    15d8:	07000000 	streq	r0, [r0, -r0]
    15dc:	00950704 	addseq	r0, r5, r4, lsl #14
    15e0:	08070000 	stmdaeq	r7, {}	; <UNPREDICTABLE>
    15e4:	00009007 	andeq	r9, r0, r7
    15e8:	00560800 	subseq	r0, r6, r0, lsl #16
    15ec:	00ab0000 	adceq	r0, fp, r0
    15f0:	56090000 	strpl	r0, [r9], -r0
    15f4:	00000000 	andeq	r0, r0, r0
    15f8:	0001020a 	andeq	r0, r1, sl, lsl #4
    15fc:	0e1c0300 	cdpeq	3, 1, cr0, cr12, cr0, {0}
    1600:	000000b7 	strheq	r0, [r0], -r7
    1604:	009c040b 	addseq	r0, ip, fp, lsl #8
    1608:	56080000 	strpl	r0, [r8], -r0
    160c:	cc000000 	stcgt	0, cr0, [r0], {-0}
    1610:	09000000 	stmdbeq	r0, {}	; <UNPREDICTABLE>
    1614:	000000cc 	andeq	r0, r0, ip, asr #1
    1618:	d9040b00 	stmdble	r4, {r8, r9, fp}
    161c:	07000000 	streq	r0, [r0, -r0]
    1620:	00330801 	eorseq	r0, r3, r1, lsl #16
    1624:	d20c0000 	andle	r0, ip, #0, 0
    1628:	0a000000 	beq	1630 <__code_start__-0x69d0>
    162c:	00000572 	andeq	r0, r0, r2, ror r5
    1630:	ea0e2103 	b	389a44 <__bss_end__+0x37f36c>
    1634:	0b000000 	bleq	163c <__code_start__-0x69c4>
    1638:	0000bd04 	andeq	fp, r0, r4, lsl #26
    163c:	05340d00 	ldreq	r0, [r4, #-3328]!	; 0xfffff300
    1640:	06010000 	streq	r0, [r1], -r0
    1644:	00005605 	andeq	r5, r0, r5, lsl #12
    1648:	0087a000 	addeq	sl, r7, r0
    164c:	00005800 	andeq	r5, r0, r0, lsl #16
    1650:	839c0100 	orrshi	r0, ip, #0
    1654:	0e000001 	cdpeq	0, 0, cr0, cr0, cr1, {0}
    1658:	00746d66 	rsbseq	r6, r4, r6, ror #26
    165c:	cc180601 	ldcgt	6, cr0, [r8], {1}
    1660:	02000000 	andeq	r0, r0, #0, 0
    1664:	100f7091 	mulne	pc, r1, r0	; <UNPREDICTABLE>
    1668:	00667562 	rsbeq	r7, r6, r2, ror #10
    166c:	83110801 	tsthi	r1, #65536	; 0x10000
    1670:	05000001 	streq	r0, [r0, #-1]
    1674:	00a2d403 	adceq	sp, r2, r3, lsl #8
    1678:	052c1100 	streq	r1, [ip, #-256]!	; 0xffffff00
    167c:	09010000 	stmdbeq	r1, {}	; <UNPREDICTABLE>
    1680:	00004a0d 	andeq	r4, r0, sp, lsl #20
    1684:	5c910200 	lfmpl	f0, 4, [r1], {0}
    1688:	007a7312 	rsbseq	r7, sl, r2, lsl r3
    168c:	560d0c01 	strpl	r0, [sp], -r1, lsl #24
    1690:	34000000 	strcc	r0, [r0], #-0
    1694:	2e000007 	cdpcs	0, 0, cr0, cr0, cr7, {0}
    1698:	13000007 	movwne	r0, #7
    169c:	000087c8 	andeq	r8, r0, r8, asr #15
    16a0:	00000194 	muleq	r0, r4, r1
    16a4:	00000176 	andeq	r0, r0, r6, ror r1
    16a8:	02500114 	subseq	r0, r0, #5
    16ac:	01140075 	tsteq	r4, r5, ror r0
    16b0:	000a0351 	andeq	r0, sl, r1, asr r3
    16b4:	52011404 	andpl	r1, r1, #4, 8	; 0x4000000
    16b8:	06489103 	strbeq	r9, [r8], -r3, lsl #2
    16bc:	02530114 	subseq	r0, r3, #5
    16c0:	15004c91 	strne	r4, [r0, #-3217]	; 0xfffff36f
    16c4:	000087dc 	ldrdeq	r8, [r0], -ip
    16c8:	02500114 	subseq	r0, r0, #5
    16cc:	00000075 	andeq	r0, r0, r5, ror r0
    16d0:	0000d216 	andeq	sp, r0, r6, lsl r2
    16d4:	00019400 	andeq	r9, r1, r0, lsl #8
    16d8:	005d1700 	subseq	r1, sp, r0, lsl #14
    16dc:	03ff0000 	mvnseq	r0, #0, 0
    16e0:	05311800 	ldreq	r1, [r1, #-2048]!	; 0xfffff800
    16e4:	05310000 	ldreq	r0, [r1, #-0]!
    16e8:	02050000 	andeq	r0, r5, #0, 0
    16ec:	00f30005 	rscseq	r0, r3, r5
    16f0:	00040000 	andeq	r0, r4, r0
    16f4:	0000099a 	muleq	r0, sl, r9
    16f8:	04520104 	ldrbeq	r0, [r2], #-260	; 0xfffffefc
    16fc:	770c0000 	strvc	r0, [ip, -r0]
    1700:	0a000005 	beq	171c <__code_start__-0x68e4>
    1704:	f8000005 			; <UNDEFINED> instruction: 0xf8000005
    1708:	38000087 	stmdacc	r0, {r0, r1, r2, r7}
    170c:	71000000 	mrsvc	r0, (UNDEF: 0)
    1710:	0200000a 	andeq	r0, r0, #10, 0
    1714:	6e690504 	cdpvs	5, 6, cr0, cr9, cr4, {0}
    1718:	04030074 	streq	r0, [r3], #-116	; 0xffffff8c
    171c:	00009a07 	andeq	r9, r0, r7, lsl #20
    1720:	06010300 	streq	r0, [r1], -r0, lsl #6
    1724:	0000002c 	andeq	r0, r0, ip, lsr #32
    1728:	ee050203 	cdp	2, 0, cr0, cr5, cr3, {0}
    172c:	03000000 	movweq	r0, #0
    1730:	00ac0504 	adceq	r0, ip, r4, lsl #10
    1734:	08030000 	stmdaeq	r3, {}	; <UNPREDICTABLE>
    1738:	0000a705 	andeq	sl, r0, r5, lsl #14
    173c:	08010300 	stmdaeq	r1, {r8, r9}
    1740:	0000002a 	andeq	r0, r0, sl, lsr #32
    1744:	45070203 	strmi	r0, [r7, #-515]	; 0xfffffdfd
    1748:	03000000 	movweq	r0, #0
    174c:	00950704 	addseq	r0, r5, r4, lsl #14
    1750:	08030000 	stmdaeq	r3, {}	; <UNPREDICTABLE>
    1754:	00009007 	andeq	r9, r0, r7
    1758:	00250400 	eoreq	r0, r5, r0, lsl #8
    175c:	007a0000 	rsbseq	r0, sl, r0
    1760:	25050000 	strcs	r0, [r5, #-0]
    1764:	00000000 	andeq	r0, r0, r0
    1768:	00010206 	andeq	r0, r1, r6, lsl #4
    176c:	0e1c0200 	cdpeq	2, 1, cr0, cr12, cr0, {0}
    1770:	00000086 	andeq	r0, r0, r6, lsl #1
    1774:	006b0407 	rsbeq	r0, fp, r7, lsl #8
    1778:	25040000 	strcs	r0, [r4, #-0]
    177c:	9b000000 	blls	1784 <__code_start__-0x687c>
    1780:	05000000 	streq	r0, [r0, #-0]
    1784:	0000009b 	muleq	r0, fp, r0
    1788:	a8040700 	stmdage	r4, {r8, r9, sl}
    178c:	03000000 	movweq	r0, #0
    1790:	00330801 	eorseq	r0, r3, r1, lsl #16
    1794:	a1080000 	mrsge	r0, (UNDEF: 8)
    1798:	06000000 	streq	r0, [r0], -r0
    179c:	00000572 	andeq	r0, r0, r2, ror r5
    17a0:	b90e2102 	stmdblt	lr, {r1, r8, sp}
    17a4:	07000000 	streq	r0, [r0, -r0]
    17a8:	00008c04 	andeq	r8, r0, r4, lsl #24
    17ac:	00ad0900 	adceq	r0, sp, r0, lsl #18
    17b0:	0c010000 	stceq	0, cr0, [r1], {-0}
    17b4:	a4030507 	strge	r0, [r3], #-1287	; 0xfffffaf9
    17b8:	0a0000a2 	beq	1a48 <__code_start__-0x65b8>
    17bc:	00000569 	andeq	r0, r0, r9, ror #10
    17c0:	25050401 	strcs	r0, [r5, #-1025]	; 0xfffffbff
    17c4:	f8000000 			; <UNDEFINED> instruction: 0xf8000000
    17c8:	38000087 	stmdacc	r0, {r0, r1, r2, r7}
    17cc:	01000000 	mrseq	r0, (UNDEF: 0)
    17d0:	00700b9c 			; <UNDEFINED> instruction: 0x00700b9c
    17d4:	9b1f0401 	blls	7c27e0 <__bss_end__+0x7b8108>
    17d8:	65000000 	strvs	r0, [r0, #-0]
    17dc:	5d000007 	stcpl	0, cr0, [r0, #-28]	; 0xffffffe4
    17e0:	00000007 	andeq	r0, r0, r7
    17e4:	000c7f00 	andeq	r7, ip, r0, lsl #30
    17e8:	38000400 	stmdacc	r0, {sl}
    17ec:	0400000a 	streq	r0, [r0], #-10
    17f0:	00045201 	andeq	r5, r4, r1, lsl #4
    17f4:	05960c00 	ldreq	r0, [r6, #3072]	; 0xc00
    17f8:	050a0000 	streq	r0, [sl, #-0]
    17fc:	88300000 	ldmdahi	r0!, {}	; <UNPREDICTABLE>
    1800:	09b40000 	ldmibeq	r4!, {}	; <UNPREDICTABLE>
    1804:	0b150000 	bleq	54180c <__bss_end__+0x537134>
    1808:	08020000 	stmdaeq	r2, {}	; <UNPREDICTABLE>
    180c:	00009007 	andeq	r9, r0, r7
    1810:	07040200 	streq	r0, [r4, -r0, lsl #4]
    1814:	0000009a 	muleq	r0, sl, r0
    1818:	69050403 	stmdbvs	r5, {r0, r1, sl}
    181c:	0200746e 	andeq	r7, r0, #1845493760	; 0x6e000000
    1820:	002c0601 	eoreq	r0, ip, r1, lsl #12
    1824:	02020000 	andeq	r0, r2, #0, 0
    1828:	0000ee05 	andeq	lr, r0, r5, lsl #28
    182c:	05040200 	streq	r0, [r4, #-512]	; 0xfffffe00
    1830:	000000ac 	andeq	r0, r0, ip, lsr #1
    1834:	a7050802 	strge	r0, [r5, -r2, lsl #16]
    1838:	02000000 	andeq	r0, r0, #0, 0
    183c:	002a0801 	eoreq	r0, sl, r1, lsl #16
    1840:	02020000 	andeq	r0, r2, #0, 0
    1844:	00004507 	andeq	r4, r0, r7, lsl #10
    1848:	02440400 	subeq	r0, r4, #0, 8
    184c:	34020000 	strcc	r0, [r2], #-0
    1850:	00007019 	andeq	r7, r0, r9, lsl r0
    1854:	07040200 	streq	r0, [r4, -r0, lsl #4]
    1858:	00000095 	muleq	r0, r5, r0
    185c:	00058d04 	andeq	r8, r5, r4, lsl #26
    1860:	19370200 	ldmdbne	r7!, {r9}
    1864:	00000025 	andeq	r0, r0, r5, lsr #32
    1868:	00003305 	andeq	r3, r0, r5, lsl #6
    186c:	00009200 	andeq	r9, r0, r0, lsl #4
    1870:	00330600 	eorseq	r0, r3, r0, lsl #12
    1874:	07000000 	streq	r0, [r0, -r0]
    1878:	00000102 	andeq	r0, r0, r2, lsl #2
    187c:	9e0e1c03 	cdpls	12, 0, cr1, cr14, cr3, {0}
    1880:	08000000 	stmdaeq	r0, {}	; <UNPREDICTABLE>
    1884:	00008304 	andeq	r8, r0, r4, lsl #6
    1888:	00330500 	eorseq	r0, r3, r0, lsl #10
    188c:	00b30000 	adcseq	r0, r3, r0
    1890:	b3060000 	movwlt	r0, #24576	; 0x6000
    1894:	00000000 	andeq	r0, r0, r0
    1898:	00c00408 	sbceq	r0, r0, r8, lsl #8
    189c:	01020000 	mrseq	r0, (UNDEF: 2)
    18a0:	00003308 	andeq	r3, r0, r8, lsl #6
    18a4:	00b90900 	adcseq	r0, r9, r0, lsl #18
    18a8:	72070000 	andvc	r0, r7, #0, 0
    18ac:	03000005 	movweq	r0, #5
    18b0:	00d10e21 	sbcseq	r0, r1, r1, lsr #28
    18b4:	04080000 	streq	r0, [r8], #-0
    18b8:	000000a4 	andeq	r0, r0, r4, lsr #1
    18bc:	0005a907 	andeq	sl, r5, r7, lsl #18
    18c0:	0d0b0400 	cfstrseq	mvf0, [fp, #-0]
    18c4:	000000b9 	strheq	r0, [r0], -r9
    18c8:	00060207 	andeq	r0, r6, r7, lsl #4
    18cc:	0d0c0400 	cfstrseq	mvf0, [ip, #-0]
    18d0:	000000b9 	strheq	r0, [r0], -r9
    18d4:	00033d07 	andeq	r3, r3, r7, lsl #26
    18d8:	0d0d0400 	cfstrseq	mvf0, [sp, #-0]
    18dc:	000000b9 	strheq	r0, [r0], -r9
    18e0:	0003d707 	andeq	sp, r3, r7, lsl #14
    18e4:	0d0e0400 	cfstrseq	mvf0, [lr, #-0]
    18e8:	000000b9 	strheq	r0, [r0], -r9
    18ec:	00040d07 	andeq	r0, r4, r7, lsl #26
    18f0:	0d0f0400 	cfstrseq	mvf0, [pc, #-0]	; 18f8 <__code_start__-0x6708>
    18f4:	000000b9 	strheq	r0, [r0], -r9
    18f8:	00039507 	andeq	r9, r3, r7, lsl #10
    18fc:	0d100400 	cfldrseq	mvf0, [r0, #-0]
    1900:	000000b9 	strheq	r0, [r0], -r9
    1904:	00062b07 	andeq	r2, r6, r7, lsl #22
    1908:	0d110400 	cfldrseq	mvf0, [r1, #-0]
    190c:	000000b9 	strheq	r0, [r0], -r9
    1910:	0005c607 	andeq	ip, r5, r7, lsl #12
    1914:	0d120400 	cfldrseq	mvf0, [r2, #-0]
    1918:	000000b9 	strheq	r0, [r0], -r9
    191c:	00053b04 	andeq	r3, r5, r4, lsl #22
    1920:	1b280500 	blne	a02d28 <__bss_end__+0x9f8650>
    1924:	00000143 	andeq	r0, r0, r3, asr #2
    1928:	00055f0a 	andeq	r5, r5, sl, lsl #30
    192c:	00060400 	andeq	r0, r6, r0, lsl #8
    1930:	0000015a 	andeq	r0, r0, sl, asr r1
    1934:	00054a0b 	andeq	r4, r5, fp, lsl #20
    1938:	00015a00 	andeq	r5, r1, r0, lsl #20
    193c:	0c000000 	stceq	0, cr0, [r0], {-0}
    1940:	05610404 	strbeq	r0, [r1, #-1028]!	; 0xfffffbfc
    1944:	63050000 	movwvs	r0, #20480	; 0x5000
    1948:	00013718 	andeq	r3, r1, r8, lsl r7
    194c:	05310d00 	ldreq	r0, [r1, #-3328]!	; 0xfffff300
    1950:	81010000 	mrshi	r0, (UNDEF: 1)
    1954:	00003305 	andeq	r3, r0, r5, lsl #6
    1958:	008bb800 	addeq	fp, fp, r0, lsl #16
    195c:	00062c00 	andeq	r2, r6, r0, lsl #24
    1960:	6a9c0100 	bvs	fe701d68 <__bss_end__+0xfe6f7690>
    1964:	0e000008 	cdpeq	0, 0, cr0, cr0, cr8, {0}
    1968:	00667562 	rsbeq	r7, r6, r2, ror #10
    196c:	6a158101 	bvs	561d78 <__bss_end__+0x5576a0>
    1970:	a5000008 	strge	r0, [r0, #-8]
    1974:	9b000007 	blls	1998 <__code_start__-0x6668>
    1978:	0e000007 	cdpeq	0, 0, cr0, cr0, cr7, {0}
    197c:	8101006e 	tsthi	r1, lr, rrx
    1980:	0000331e 	andeq	r3, r0, lr, lsl r3
    1984:	0007f200 	andeq	pc, r7, r0, lsl #4
    1988:	0007ea00 	andeq	lr, r7, r0, lsl #20
    198c:	6d660e00 	stclvs	14, cr0, [r6, #-0]
    1990:	81010074 	tsthi	r1, r4, ror r0
    1994:	0000b32d 	andeq	fp, r0, sp, lsr #6
    1998:	00084400 	andeq	r4, r8, r0, lsl #8
    199c:	00082c00 	andeq	r2, r8, r0, lsl #24
    19a0:	052c0f00 	streq	r0, [ip, #-3840]!	; 0xfffff100
    19a4:	81010000 	mrshi	r0, (UNDEF: 1)
    19a8:	00015c3a 	andeq	r5, r1, sl, lsr ip
    19ac:	00090600 	andeq	r0, r9, r0, lsl #12
    19b0:	0008d800 	andeq	sp, r8, r0, lsl #16
    19b4:	00701000 	rsbseq	r1, r0, r0
    19b8:	6a088201 	bvs	2221c4 <__bss_end__+0x217aec>
    19bc:	59000008 	stmdbpl	r0, {r3}
    19c0:	4300000a 	movwmi	r0, #10
    19c4:	1000000a 	andne	r0, r0, sl
    19c8:	82010065 	andhi	r0, r1, #101, 0	; 0x65
    19cc:	00086a12 	andeq	r6, r8, r2, lsl sl
    19d0:	000ae200 	andeq	lr, sl, r0, lsl #4
    19d4:	000ae000 	andeq	lr, sl, r0
    19d8:	30781000 	rsbscc	r1, r8, r0
    19dc:	0e830100 	rmfeqs	f0, f3, f0
    19e0:	00000064 	andeq	r0, r0, r4, rrx
    19e4:	00000afb 	strdeq	r0, [r0], -fp
    19e8:	00000af5 	strdeq	r0, [r0], -r5
    19ec:	00317810 	eorseq	r7, r1, r0, lsl r8
    19f0:	64118301 	ldrvs	r8, [r1], #-769	; 0xfffffcff
    19f4:	2a000000 	bcs	19fc <__code_start__-0x6604>
    19f8:	2400000b 	strcs	r0, [r0], #-11
    19fc:	1100000b 	tstne	r0, fp
    1a00:	000005e4 	andeq	r0, r0, r4, ror #11
    1a04:	b3118601 	tstlt	r1, #1048576	; 0x100000
    1a08:	5b000000 	blpl	1a10 <__code_start__-0x65f0>
    1a0c:	5300000b 	movwpl	r0, #11
    1a10:	1200000b 	andne	r0, r0, #11, 0
    1a14:	0000006f 	andeq	r0, r0, pc, rrx
    1a18:	00000880 	andeq	r0, r0, r0, lsl #17
    1a1c:	a0900305 	addsge	r0, r0, r5, lsl #6
    1a20:	68130000 	ldmdavs	r3, {}	; <UNPREDICTABLE>
    1a24:	10000000 	andne	r0, r0, r0
    1a28:	91010073 	tstls	r1, r3, ror r0
    1a2c:	00086a0a 	andeq	r6, r8, sl, lsl #20
    1a30:	000ba100 	andeq	sl, fp, r0, lsl #2
    1a34:	000b9500 	andeq	r9, fp, r0, lsl #10
    1a38:	756e1400 	strbvc	r1, [lr, #-1024]!	; 0xfffffc00
    1a3c:	9101006d 	tstls	r1, sp, rrx
    1a40:	0008850d 	andeq	r8, r8, sp, lsl #10
    1a44:	d8910300 	ldmle	r1, {r8, r9}
    1a48:	0638157d 			; <UNDEFINED> instruction: 0x0638157d
    1a4c:	91010000 	mrsls	r0, (UNDEF: 1)
    1a50:	00088517 	andeq	r8, r8, r7, lsl r5
    1a54:	d8910300 	ldmle	r1, {r8, r9}
    1a58:	05b8117e 	ldreq	r1, [r8, #382]!	; 0x17e
    1a5c:	92010000 	andls	r0, r1, #0, 0
    1a60:	00002c0d 	andeq	r2, r0, sp, lsl #24
    1a64:	000bf300 	andeq	pc, fp, r0, lsl #6
    1a68:	000beb00 	andeq	lr, fp, r0, lsl #22
    1a6c:	00901600 	addseq	r1, r0, r0, lsl #12
    1a70:	04f10000 	ldrbteq	r0, [r1], #0
    1a74:	74100000 	ldrvc	r0, [r0], #-0
    1a78:	9e010079 	mcrls	0, 0, r0, cr1, cr9, {3}
    1a7c:	0000b31d 	andeq	fp, r0, sp, lsl r3
    1a80:	000c3400 	andeq	r3, ip, r0, lsl #8
    1a84:	000c2800 	andeq	r2, ip, r0, lsl #16
    1a88:	78781400 	ldmdavc	r8!, {sl, ip}^
    1a8c:	1aa20100 	bne	fe881e94 <__bss_end__+0xfe8777bc>
    1a90:	00000077 	andeq	r0, r0, r7, ror r0
    1a94:	04935906 	ldreq	r5, [r3], #2310	; 0x906
    1a98:	1704935b 	smlsdne	r4, fp, r3, r9
    1a9c:	00008d44 	andeq	r8, r0, r4, asr #26
    1aa0:	00000c3a 	andeq	r0, r0, sl, lsr ip
    1aa4:	000002d8 	ldrdeq	r0, [r0], -r8
    1aa8:	02500118 	subseq	r0, r0, #6
    1aac:	01180076 	tsteq	r8, r6, ror r0
    1ab0:	84030551 	strhi	r0, [r3], #-1361	; 0xfffffaaf
    1ab4:	1800009f 	stmdane	r0, {r0, r1, r2, r3, r4, r7}
    1ab8:	33015201 	movwcc	r5, #4609	; 0x1201
    1abc:	8d5c1700 	ldclhi	7, cr1, [ip, #-0]
    1ac0:	0c3a0000 	ldceq	0, cr0, [sl], #-0
    1ac4:	02fa0000 	rscseq	r0, sl, #0, 0
    1ac8:	01180000 	tsteq	r8, r0
    1acc:	00760250 	rsbseq	r0, r6, r0, asr r2
    1ad0:	05510118 	ldrbeq	r0, [r1, #-280]	; 0xfffffee8
    1ad4:	009f9803 	addseq	r9, pc, r3, lsl #16
    1ad8:	52011800 	andpl	r1, r1, #0, 16
    1adc:	17003301 	strne	r3, [r0, -r1, lsl #6]
    1ae0:	00008d80 	andeq	r8, r0, r0, lsl #27
    1ae4:	00000c46 	andeq	r0, r0, r6, asr #24
    1ae8:	00000317 	andeq	r0, r0, r7, lsl r3
    1aec:	05500118 	ldrbeq	r0, [r0, #-280]	; 0xfffffee8
    1af0:	009f8803 	addseq	r8, pc, r3, lsl #16
    1af4:	51011800 	tstpl	r1, r0, lsl #16
    1af8:	00007b02 	andeq	r7, r0, r2, lsl #22
    1afc:	008d8c17 	addeq	r8, sp, r7, lsl ip
    1b00:	000c4600 	andeq	r4, ip, r0, lsl #12
    1b04:	00033400 	andeq	r3, r3, r0, lsl #8
    1b08:	50011800 	andpl	r1, r1, r0, lsl #16
    1b0c:	9f900305 	svcls	0x00900305
    1b10:	01180000 	tsteq	r8, r0
    1b14:	00790251 	rsbseq	r0, r9, r1, asr r2
    1b18:	8d9c1700 	ldchi	7, cr1, [ip]
    1b1c:	0c3a0000 	ldceq	0, cr0, [sl], #-0
    1b20:	03560000 	cmpeq	r6, #0, 0
    1b24:	01180000 	tsteq	r8, r0
    1b28:	00760250 	rsbseq	r0, r6, r0, asr r2
    1b2c:	05510118 	ldrbeq	r0, [r1, #-280]	; 0xfffffee8
    1b30:	009f8403 	addseq	r8, pc, r3, lsl #8
    1b34:	52011800 	andpl	r1, r1, #0, 16
    1b38:	17003301 	strne	r3, [r0, -r1, lsl #6]
    1b3c:	00008dcc 	andeq	r8, r0, ip, asr #27
    1b40:	00000aa4 	andeq	r0, r0, r4, lsr #21
    1b44:	00000383 	andeq	r0, r0, r3, lsl #7
    1b48:	01500118 	cmpeq	r0, r8, lsl r1
    1b4c:	51011840 	tstpl	r1, r0, asr #16
    1b50:	7dd09103 	ldfvcp	f1, [r0, #12]
    1b54:	02520118 	subseq	r0, r2, #6
    1b58:	0118007b 	tsteq	r8, fp, ror r0
    1b5c:	00750253 	rsbseq	r0, r5, r3, asr r2
    1b60:	007d0218 	rsbseq	r0, sp, r8, lsl r2
    1b64:	00007602 	andeq	r7, r0, r2, lsl #12
    1b68:	008dec17 	addeq	lr, sp, r7, lsl ip
    1b6c:	000aa400 	andeq	sl, sl, r0, lsl #8
    1b70:	0003aa00 	andeq	sl, r3, r0, lsl #20
    1b74:	50011800 	andpl	r1, r1, r0, lsl #16
    1b78:	01184001 	tsteq	r8, r1
    1b7c:	d0910351 	addsle	r0, r1, r1, asr r3
    1b80:	5201187e 	andpl	r1, r1, #8257536	; 0x7e0000
    1b84:	18007902 	stmdane	r0, {r1, r8, fp, ip, sp, lr}
    1b88:	02007d02 	andeq	r7, r0, #128	; 0x80
    1b8c:	17000076 	smlsdxne	r0, r6, r0, r0
    1b90:	00008dfc 	strdeq	r8, [r0], -ip
    1b94:	00000c52 	andeq	r0, r0, r2, asr ip
    1b98:	000003c6 	andeq	r0, r0, r6, asr #7
    1b9c:	03500118 	cmpeq	r0, #6
    1ba0:	187dd091 	ldmdane	sp!, {r0, r4, r7, ip, lr, pc}^
    1ba4:	91035101 	tstls	r3, r1, lsl #2
    1ba8:	17007ed2 			; <UNDEFINED> instruction: 0x17007ed2
    1bac:	00009040 	andeq	r9, r0, r0, asr #32
    1bb0:	00000c3a 	andeq	r0, r0, sl, lsr ip
    1bb4:	000003e8 	andeq	r0, r0, r8, ror #7
    1bb8:	02500118 	subseq	r0, r0, #6
    1bbc:	01180076 	tsteq	r8, r6, ror r0
    1bc0:	98030551 	stmdals	r3, {r0, r4, r6, r8, sl}
    1bc4:	1800009f 	stmdane	r0, {r0, r1, r2, r3, r4, r7}
    1bc8:	33015201 	movwcc	r5, #4609	; 0x1201
    1bcc:	90641700 	rsbls	r1, r4, r0, lsl #14
    1bd0:	0aa40000 	beq	fe901bd8 <__bss_end__+0xfe8f7500>
    1bd4:	04150000 	ldreq	r0, [r5], #-0
    1bd8:	01180000 	tsteq	r8, r0
    1bdc:	183a0150 	ldmdane	sl!, {r4, r6, r8}
    1be0:	91035101 	tstls	r3, r1, lsl #2
    1be4:	01187dd0 			; <UNDEFINED> instruction: 0x01187dd0
    1be8:	007b0252 	rsbseq	r0, fp, r2, asr r2
    1bec:	02530118 	subseq	r0, r3, #6
    1bf0:	02180075 	andseq	r0, r8, #117, 0	; 0x75
    1bf4:	7602007d 			; <UNDEFINED> instruction: 0x7602007d
    1bf8:	84170000 	ldrhi	r0, [r7], #-0
    1bfc:	a4000090 	strge	r0, [r0], #-144	; 0xffffff70
    1c00:	3c00000a 	stccc	0, cr0, [r0], {10}
    1c04:	18000004 	stmdane	r0, {r2}
    1c08:	3a015001 	bcc	55c14 <__bss_end__+0x4b53c>
    1c0c:	03510118 	cmpeq	r1, #6
    1c10:	187ed091 	ldmdane	lr!, {r0, r4, r7, ip, lr, pc}^
    1c14:	79025201 	stmdbvc	r2, {r0, r9, ip, lr}
    1c18:	7d021800 	stcvc	8, cr1, [r2, #-0]
    1c1c:	00760200 	rsbseq	r0, r6, r0, lsl #4
    1c20:	90901700 	addsls	r1, r0, r0, lsl #14
    1c24:	0c5e0000 	mraeq	r0, lr, acc0
    1c28:	045a0000 	ldrbeq	r0, [sl], #-0
    1c2c:	01180000 	tsteq	r8, r0
    1c30:	d0910350 	addsle	r0, r1, r0, asr r3
    1c34:	5101187d 	tstpl	r1, sp, ror r8
    1c38:	9ec00305 	cdpls	3, 12, cr0, cr0, cr5, {0}
    1c3c:	17000000 	strne	r0, [r0, -r0]
    1c40:	000090a4 	andeq	r9, r0, r4, lsr #1
    1c44:	00000c6a 	andeq	r0, r0, sl, ror #24
    1c48:	00000476 	andeq	r0, r0, r6, ror r4
    1c4c:	03500118 	cmpeq	r0, #6
    1c50:	187dd091 	ldmdane	sp!, {r0, r4, r7, ip, lr, pc}^
    1c54:	91035101 	tstls	r3, r1, lsl #2
    1c58:	19007ed0 	stmdbne	r0, {r4, r6, r7, r9, sl, fp, ip, sp, lr}
    1c5c:	000090b0 	strheq	r9, [r0], -r0
    1c60:	00000c52 	andeq	r0, r0, r2, asr ip
    1c64:	00917417 	addseq	r7, r1, r7, lsl r4
    1c68:	000c4600 	andeq	r4, ip, r0, lsl #12
    1c6c:	0004a800 	andeq	sl, r4, r0, lsl #16
    1c70:	50011800 	andpl	r1, r1, r0, lsl #16
    1c74:	9d940305 	ldcls	3, cr0, [r4, #20]
    1c78:	01180000 	tsteq	r8, r0
    1c7c:	38030551 	stmdacc	r3, {r0, r4, r6, r8, sl}
    1c80:	1800009f 	stmdane	r0, {r0, r1, r2, r3, r4, r7}
    1c84:	03055201 	movweq	r5, #20993	; 0x5201
    1c88:	0000a090 	muleq	r0, r0, r0
    1c8c:	91781900 	cmnls	r8, r0, lsl #18
    1c90:	0c760000 	ldcleq	0, cr0, [r6], #-0
    1c94:	90170000 	andsls	r0, r7, r0
    1c98:	46000091 			; <UNDEFINED> instruction: 0x46000091
    1c9c:	e700000c 	str	r0, [r0, -ip]
    1ca0:	18000004 	stmdane	r0, {r2}
    1ca4:	03055001 	movweq	r5, #20481	; 0x5001
    1ca8:	00009fd8 	ldrdeq	r9, [r0], -r8
    1cac:	05510118 	ldrbeq	r0, [r1, #-280]	; 0xfffffee8
    1cb0:	009f3803 	addseq	r3, pc, r3, lsl #16
    1cb4:	52011800 	andpl	r1, r1, #0, 16
    1cb8:	a0900305 	addsge	r0, r0, r5, lsl #6
    1cbc:	01180000 	tsteq	r8, r0
    1cc0:	b6080253 			; <UNDEFINED> instruction: 0xb6080253
    1cc4:	007d0218 	rsbseq	r0, sp, r8, lsl r2
    1cc8:	00007602 	andeq	r7, r0, r2, lsl #12
    1ccc:	00919419 	addseq	r9, r1, r9, lsl r4
    1cd0:	000c7600 	andeq	r7, ip, r0, lsl #12
    1cd4:	e31a0000 	tst	sl, #0, 0
    1cd8:	44000009 	strmi	r0, [r0], #-9
    1cdc:	0400008c 	streq	r0, [r0], #-140	; 0xffffff74
    1ce0:	0000b800 	andeq	fp, r0, r0, lsl #16
    1ce4:	0a940100 	beq	fe5020ec <__bss_end__+0xfe4f7a14>
    1ce8:	00000515 	andeq	r0, r0, r5, lsl r5
    1cec:	0009f41b 	andeq	pc, r9, fp, lsl r4	; <UNPREDICTABLE>
    1cf0:	000c9000 	andeq	r9, ip, r0
    1cf4:	000c8c00 	andeq	r8, ip, r0, lsl #24
    1cf8:	951a0000 	ldrls	r0, [sl, #-0]
    1cfc:	2c000008 	stccs	0, cr0, [r0], {8}
    1d00:	0100008e 	smlabbeq	r0, lr, r0, r0
    1d04:	0000d800 	andeq	sp, r0, r0, lsl #16
    1d08:	09dc0100 	ldmibeq	ip, {r8}^
    1d0c:	0000064b 	andeq	r0, r0, fp, asr #12
    1d10:	0008be1b 	andeq	fp, r8, fp, lsl lr
    1d14:	000cbe00 	andeq	fp, ip, r0, lsl #28
    1d18:	000cb800 	andeq	fp, ip, r0, lsl #16
    1d1c:	08e01b00 	stmiaeq	r0!, {r8, r9, fp, ip}^
    1d20:	0cf30000 	ldcleq	0, cr0, [r3]
    1d24:	0ced0000 	stcleq	0, cr0, [sp]
    1d28:	d41b0000 	ldrle	r0, [fp], #-0
    1d2c:	25000008 	strcs	r0, [r0, #-8]
    1d30:	1f00000d 	svcne	0x0000000d
    1d34:	1c00000d 	stcne	0, cr0, [r0], {13}
    1d38:	000008c8 	andeq	r0, r0, r8, asr #17
    1d3c:	0008b21b 	andeq	fp, r8, fp, lsl r2
    1d40:	000d5600 	andeq	r5, sp, r0, lsl #12
    1d44:	000d4e00 	andeq	r4, sp, r0, lsl #28
    1d48:	08a61b00 	stmiaeq	r6!, {r8, r9, fp, ip}
    1d4c:	0d990000 	ldceq	0, cr0, [r9]
    1d50:	0d930000 	ldceq	0, cr0, [r3]
    1d54:	d8130000 	ldmdale	r3, {}	; <UNPREDICTABLE>
    1d58:	1d000000 	stcne	0, cr0, [r0, #-0]
    1d5c:	000008ec 	andeq	r0, r0, ip, ror #17
    1d60:	7ed89103 	atnvce	f1, f3
    1d64:	0008f81e 	andeq	pc, r8, lr, lsl r8	; <UNPREDICTABLE>
    1d68:	000dd300 	andeq	sp, sp, r0, lsl #6
    1d6c:	000dc500 	andeq	ip, sp, r0, lsl #10
    1d70:	09021f00 	stmdbeq	r2, {r8, r9, sl, fp, ip}
    1d74:	a31a0000 	tstge	sl, #0, 0
    1d78:	38000009 	stmdacc	r0, {r0, r3}
    1d7c:	0400008e 	streq	r0, [r0], #-142	; 0xffffff72
    1d80:	00010800 	andeq	r0, r1, r0, lsl #16
    1d84:	097c0100 	ldmdbeq	ip!, {r8}^
    1d88:	000005e2 	andeq	r0, r0, r2, ror #11
    1d8c:	0009ca1b 	andeq	ip, r9, fp, lsl sl
    1d90:	000e3d00 	andeq	r3, lr, r0, lsl #26
    1d94:	000e3700 	andeq	r3, lr, r0, lsl #14
    1d98:	09be1b00 	ldmibeq	lr!, {r8, r9, fp, ip}
    1d9c:	0e720000 	cdpeq	0, 7, cr0, cr2, cr0, {0}
    1da0:	0e660000 	cdpeq	0, 6, cr0, cr6, cr0, {0}
    1da4:	b41b0000 	ldrlt	r0, [fp], #-0
    1da8:	d8000009 	stmdale	r0, {r0, r3}
    1dac:	c800000e 	stmdagt	r0, {r1, r2, r3}
    1db0:	1300000e 	movwne	r0, #14
    1db4:	00000108 	andeq	r0, r0, r8, lsl #2
    1db8:	0009d61e 	andeq	sp, r9, lr, lsl r6
    1dbc:	000f5500 	andeq	r5, pc, r0, lsl #10
    1dc0:	000f4700 	andeq	r4, pc, r0, lsl #14
    1dc4:	20000000 	andcs	r0, r0, r0
    1dc8:	0000094f 	andeq	r0, r0, pc, asr #18
    1dcc:	00008f00 	andeq	r8, r0, r0, lsl #30
    1dd0:	01380002 	teqeq	r8, r2
    1dd4:	7c010000 	stcvc	0, cr0, [r1], {-0}
    1dd8:	09801b09 	stmibeq	r0, {r0, r3, r8, r9, fp, ip}
    1ddc:	0fb50000 	svceq	0x00b50000
    1de0:	0faf0000 	svceq	0x00af0000
    1de4:	761b0000 	ldrvc	r0, [fp], -r0
    1de8:	eb000009 	bl	1e14 <__code_start__-0x61ec>
    1dec:	e100000f 	tst	r0, pc
    1df0:	1b00000f 	blne	1e34 <__code_start__-0x61cc>
    1df4:	0000096c 	andeq	r0, r0, ip, ror #18
    1df8:	0000103a 	andeq	r1, r0, sl, lsr r0
    1dfc:	00001036 	andeq	r1, r0, r6, lsr r0
    1e00:	0009601b 	andeq	r6, r9, fp, lsl r0
    1e04:	00106a00 	andseq	r6, r0, r0, lsl #20
    1e08:	00105c00 	andseq	r5, r0, r0, lsl #24
    1e0c:	01381300 	teqeq	r8, r0, lsl #6
    1e10:	8c1e0000 	ldchi	0, cr0, [lr], {-0}
    1e14:	cf000009 	svcgt	0x00000009
    1e18:	cd000010 	stcgt	0, cr0, [r0, #-64]	; 0xffffffc0
    1e1c:	1e000010 	mcrne	0, 0, r0, cr0, cr0, {0}
    1e20:	00000998 	muleq	r0, r8, r9
    1e24:	000010e9 	andeq	r1, r0, r9, ror #1
    1e28:	000010e3 	andeq	r1, r0, r3, ror #1
    1e2c:	00000000 	andeq	r0, r0, r0
    1e30:	0008951a 	andeq	r9, r8, sl, lsl r5
    1e34:	008f3c00 	addeq	r3, pc, r0, lsl #24
    1e38:	68000000 	stmdavs	r0, {}	; <UNPREDICTABLE>
    1e3c:	01000001 	tsteq	r0, r1
    1e40:	078909d6 			; <UNDEFINED> instruction: 0x078909d6
    1e44:	be1b0000 	cdplt	0, 1, cr0, cr11, cr0, {0}
    1e48:	1c000008 	stcne	0, cr0, [r0], {8}
    1e4c:	18000011 	stmdane	r0, {r0, r4}
    1e50:	1b000011 	blne	1e9c <__code_start__-0x6164>
    1e54:	000008e0 	andeq	r0, r0, r0, ror #17
    1e58:	00001142 	andeq	r1, r0, r2, asr #2
    1e5c:	0000113e 	andeq	r1, r0, lr, lsr r1
    1e60:	0008d41b 	andeq	sp, r8, fp, lsl r4
    1e64:	00116600 	andseq	r6, r1, r0, lsl #12
    1e68:	00116200 	andseq	r6, r1, r0, lsl #4
    1e6c:	08c81c00 	stmiaeq	r8, {sl, fp, ip}^
    1e70:	b21b0000 	andslt	r0, fp, #0, 0
    1e74:	8a000008 	bhi	1e9c <__code_start__-0x6164>
    1e78:	84000011 	strhi	r0, [r0], #-17	; 0xffffffef
    1e7c:	1b000011 	blne	1ec8 <__code_start__-0x6138>
    1e80:	000008a6 	andeq	r0, r0, r6, lsr #17
    1e84:	000011bd 			; <UNDEFINED> instruction: 0x000011bd
    1e88:	000011b9 			; <UNDEFINED> instruction: 0x000011b9
    1e8c:	00016813 	andeq	r6, r1, r3, lsl r8
    1e90:	08ec1d00 	stmiaeq	ip!, {r8, sl, fp, ip}^
    1e94:	91030000 	mrsls	r0, (UNDEF: 3)
    1e98:	f81e7ed8 			; <UNDEFINED> instruction: 0xf81e7ed8
    1e9c:	e7000008 	str	r0, [r0, -r8]
    1ea0:	dd000011 	stcle	0, cr0, [r0, #-68]	; 0xffffffbc
    1ea4:	1e000011 	mcrne	0, 0, r0, cr0, cr1, {0}
    1ea8:	00000902 	andeq	r0, r0, r2, lsl #18
    1eac:	0000122c 	andeq	r1, r0, ip, lsr #4
    1eb0:	00001228 	andeq	r1, r0, r8, lsr #4
    1eb4:	0009a31a 	andeq	sl, r9, sl, lsl r3
    1eb8:	008f5800 	addeq	r5, pc, r0, lsl #16
    1ebc:	88000300 	stmdahi	r0, {r8, r9}
    1ec0:	01000001 	tsteq	r0, r1
    1ec4:	0720097c 			; <UNDEFINED> instruction: 0x0720097c
    1ec8:	ca1b0000 	bgt	6c1ed0 <__bss_end__+0x6b77f8>
    1ecc:	4e000009 	cdpmi	0, 0, cr0, cr0, cr9, {0}
    1ed0:	4a000012 	bmi	1f20 <__code_start__-0x60e0>
    1ed4:	1b000012 	blne	1f24 <__code_start__-0x60dc>
    1ed8:	000009be 			; <UNDEFINED> instruction: 0x000009be
    1edc:	00001270 	andeq	r1, r0, r0, ror r2
    1ee0:	0000126c 	andeq	r1, r0, ip, ror #4
    1ee4:	0009b41b 	andeq	fp, r9, fp, lsl r4
    1ee8:	00129a00 	andseq	r9, r2, r0, lsl #20
    1eec:	00128e00 	andseq	r8, r2, r0, lsl #28
    1ef0:	01881300 	orreq	r1, r8, r0, lsl #6
    1ef4:	d61e0000 	ldrle	r0, [lr], -r0
    1ef8:	f6000009 			; <UNDEFINED> instruction: 0xf6000009
    1efc:	ea000012 	b	1f4c <__code_start__-0x60b4>
    1f00:	00000012 	andeq	r0, r0, r2, lsl r0
    1f04:	094f2000 	stmdbeq	pc, {sp}^	; <UNPREDICTABLE>
    1f08:	8fe00000 	svchi	0x00e00000
    1f0c:	00020000 	andeq	r0, r2, r0
    1f10:	000001b0 			; <UNDEFINED> instruction: 0x000001b0
    1f14:	1b097c01 	blne	260f20 <__bss_end__+0x256848>
    1f18:	00000980 	andeq	r0, r0, r0, lsl #19
    1f1c:	00001346 	andeq	r1, r0, r6, asr #6
    1f20:	00001342 	andeq	r1, r0, r2, asr #6
    1f24:	0009761b 	andeq	r7, r9, fp, lsl r6
    1f28:	00136e00 	andseq	r6, r3, r0, lsl #28
    1f2c:	00136400 	andseq	r6, r3, r0, lsl #8
    1f30:	096c1b00 	stmdbeq	ip!, {r8, r9, fp, ip}^
    1f34:	13ba0000 			; <UNDEFINED> instruction: 0x13ba0000
    1f38:	13b60000 			; <UNDEFINED> instruction: 0x13b60000
    1f3c:	601b0000 	andsvs	r0, fp, r0
    1f40:	e8000009 	stmda	r0, {r0, r3}
    1f44:	dc000013 	stcle	0, cr0, [r0], {19}
    1f48:	13000013 	movwne	r0, #19
    1f4c:	000001b0 			; <UNDEFINED> instruction: 0x000001b0
    1f50:	00098c1e 	andeq	r8, r9, lr, lsl ip
    1f54:	00144200 	andseq	r4, r4, r0, lsl #4
    1f58:	00143e00 	andseq	r3, r4, r0, lsl #28
    1f5c:	09981e00 	ldmibeq	r8, {r9, sl, fp, ip}
    1f60:	14680000 	strbtne	r0, [r8], #-0
    1f64:	14640000 	strbtne	r0, [r4], #-0
    1f68:	00000000 	andeq	r0, r0, r0
    1f6c:	0c170000 	ldceq	0, cr0, [r7], {-0}
    1f70:	a400008d 	strge	r0, [r0], #-141	; 0xffffff73
    1f74:	af00000a 	svcge	0x0000000a
    1f78:	18000007 	stmdane	r0, {r0, r1, r2}
    1f7c:	40015001 	andmi	r5, r1, r1
    1f80:	03510118 	cmpeq	r1, #6
    1f84:	187dd091 	ldmdane	sp!, {r0, r4, r7, ip, lr, pc}^
    1f88:	75025301 	strvc	r5, [r2, #-769]	; 0xfffffcff
    1f8c:	7d021800 	stcvc	8, cr1, [r2, #-0]
    1f90:	00300100 	eorseq	r0, r0, r0, lsl #2
    1f94:	008e1c17 	addeq	r1, lr, r7, lsl ip
    1f98:	000aa400 	andeq	sl, sl, r0, lsl #8
    1f9c:	0007cf00 	andeq	ip, r7, r0, lsl #30
    1fa0:	50011800 	andpl	r1, r1, r0, lsl #16
    1fa4:	01183a01 	tsteq	r8, r1, lsl #20
    1fa8:	d0910351 	addsle	r0, r1, r1, asr r3
    1fac:	5301187d 	movwpl	r1, #6269	; 0x187d
    1fb0:	00007502 	andeq	r7, r0, r2, lsl #10
    1fb4:	00910017 	addseq	r0, r1, r7, lsl r0
    1fb8:	000c4600 	andeq	r4, ip, r0, lsl #12
    1fbc:	0007e600 	andeq	lr, r7, r0, lsl #12
    1fc0:	50011800 	andpl	r1, r1, r0, lsl #16
    1fc4:	a0280305 	eorge	r0, r8, r5, lsl #6
    1fc8:	21000000 	mrscs	r0, (UNDEF: 0)
    1fcc:	00009110 	andeq	r9, r0, r0, lsl r1
    1fd0:	000007f8 	strdeq	r0, [r0], -r8
    1fd4:	04500118 	ldrbeq	r0, [r0], #-280	; 0xfffffee8
    1fd8:	067dc891 			; <UNDEFINED> instruction: 0x067dc891
    1fdc:	91241700 			; <UNDEFINED> instruction: 0x91241700
    1fe0:	0c460000 	mareq	acc0, r0, r6
    1fe4:	08270000 	stmdaeq	r7!, {}	; <UNPREDICTABLE>
    1fe8:	01180000 	tsteq	r8, r0
    1fec:	58030550 	stmdapl	r3, {r4, r6, r8, sl}
    1ff0:	180000a0 	stmdane	r0, {r5, r7}
    1ff4:	03055101 	movweq	r5, #20737	; 0x5101
    1ff8:	00009f38 	andeq	r9, r0, r8, lsr pc
    1ffc:	05520118 	ldrbeq	r0, [r2, #-280]	; 0xfffffee8
    2000:	00a09003 	adceq	r9, r0, r3
    2004:	53011800 	movwpl	r1, #6144	; 0x1800
    2008:	00e20802 	rsceq	r0, r2, r2, lsl #16
    200c:	00912819 	addseq	r2, r1, r9, lsl r8
    2010:	000c7600 	andeq	r7, ip, r0, lsl #12
    2014:	913c1700 	teqls	ip, r0, lsl #14
    2018:	0c460000 	mareq	acc0, r0, r6
    201c:	085f0000 	ldmdaeq	pc, {}^	; <UNPREDICTABLE>
    2020:	01180000 	tsteq	r8, r0
    2024:	00030550 	andeq	r0, r3, r0, asr r5
    2028:	180000a0 	stmdane	r0, {r5, r7}
    202c:	03055101 	movweq	r5, #20737	; 0x5101
    2030:	00009f38 	andeq	r9, r0, r8, lsr pc
    2034:	05520118 	ldrbeq	r0, [r2, #-280]	; 0xfffffee8
    2038:	00a09003 	adceq	r9, r0, r3
    203c:	53011800 	movwpl	r1, #6144	; 0x1800
    2040:	00be0802 	adcseq	r0, lr, r2, lsl #16
    2044:	00914019 	addseq	r4, r1, r9, lsl r0
    2048:	000c7600 	andeq	r7, ip, r0, lsl #12
    204c:	08000000 	stmdaeq	r0, {}	; <UNPREDICTABLE>
    2050:	0000b904 	andeq	fp, r0, r4, lsl #18
    2054:	00c02200 	sbceq	r2, r0, r0, lsl #4
    2058:	08800000 	stmeq	r0, {}	; <UNPREDICTABLE>
    205c:	2c230000 	stccs	0, cr0, [r3], #-0
    2060:	09000000 	stmdbeq	r0, {}	; <UNPREDICTABLE>
    2064:	08700900 	ldmdaeq	r0!, {r8, fp}^
    2068:	b9220000 	stmdblt	r2!, {}	; <UNPREDICTABLE>
    206c:	95000000 	strls	r0, [r0, #-0]
    2070:	23000008 	movwcs	r0, #8
    2074:	0000002c 	andeq	r0, r0, ip, lsr #32
    2078:	0f24007f 	svceq	0x0024007f
    207c:	01000006 	tsteq	r0, r6
    2080:	086a0149 	stmdaeq	sl!, {r0, r3, r6, r8}^
    2084:	2a010000 	bcs	4208c <__bss_end__+0x379b4>
    2088:	25000009 	strcs	r0, [r0, #-9]
    208c:	000002fc 	strdeq	r0, [r0], -ip
    2090:	2c0f4901 			; <UNDEFINED> instruction: 0x2c0f4901
    2094:	26000000 	strcs	r0, [r0], -r0
    2098:	00747364 	rsbseq	r7, r4, r4, ror #6
    209c:	6a1b4901 	bvs	6d44a8 <__bss_end__+0x6c9dd0>
    20a0:	26000008 	strcs	r0, [r0], -r8
    20a4:	4901006e 	stmdbmi	r1, {r1, r2, r3, r5, r6}
    20a8:	00003324 	andeq	r3, r0, r4, lsr #6
    20ac:	61762600 	cmnvs	r6, r0, lsl #12
    20b0:	4901006c 	stmdbmi	r1, {r2, r3, r5, r6}
    20b4:	0000332b 	andeq	r3, r0, fp, lsr #6
    20b8:	05b82500 	ldreq	r2, [r8, #1280]!	; 0x500
    20bc:	49010000 	stmdbmi	r1, {}	; <UNPREDICTABLE>
    20c0:	00003334 	andeq	r3, r0, r4, lsr r3
    20c4:	06452500 	strbeq	r2, [r5], -r0, lsl #10
    20c8:	49010000 	stmdbmi	r1, {}	; <UNPREDICTABLE>
    20cc:	0000333f 	andeq	r3, r0, pc, lsr r3
    20d0:	75622700 	strbvc	r2, [r2, #-1792]!	; 0xfffff900
    20d4:	4e010066 	cdpmi	0, 0, cr0, cr1, cr6, {3}
    20d8:	00092a07 	andeq	r2, r9, r7, lsl #20
    20dc:	00702700 	rsbseq	r2, r0, r0, lsl #14
    20e0:	6a114e01 	bvs	4558ec <__bss_end__+0x44b214>
    20e4:	27000008 	strcs	r0, [r0, -r8]
    20e8:	4f010075 	svcmi	0x00010075
    20ec:	00002c0b 	andeq	r2, r0, fp, lsl #24
    20f0:	006f1200 	rsbeq	r1, pc, r0, lsl #4
    20f4:	094a0000 	stmdbeq	sl, {}^	; <UNPREDICTABLE>
    20f8:	03050000 	movweq	r0, #20480	; 0x5000
    20fc:	0000a078 	andeq	sl, r0, r8, ror r0
    2100:	05fc2928 	ldrbeq	r2, [ip, #2344]!	; 0x928
    2104:	54010000 	strpl	r0, [r1], #-0
    2108:	00002c0d 	andeq	r2, r0, sp, lsl #24
    210c:	22000000 	andcs	r0, r0, #0, 0
    2110:	000000b9 	strheq	r0, [r0], -r9
    2114:	0000093a 	andeq	r0, r0, sl, lsr r9
    2118:	00002c23 	andeq	r2, r0, r3, lsr #24
    211c:	22003f00 	andcs	r3, r0, #0, 30
    2120:	000000c0 	andeq	r0, r0, r0, asr #1
    2124:	0000094a 	andeq	r0, r0, sl, asr #18
    2128:	00002c23 	andeq	r2, r0, r3, lsr #24
    212c:	09000400 	stmdbeq	r0, {sl}
    2130:	0000093a 	andeq	r0, r0, sl, lsr r9
    2134:	00061424 	andeq	r1, r6, r4, lsr #8
    2138:	0e380100 	rsfeqe	f0, f0, f0
    213c:	0000086a 	andeq	r0, r0, sl, ror #16
    2140:	0009a301 	andeq	sl, r9, r1, lsl #6
    2144:	73642600 	cmnvc	r4, #0, 12
    2148:	38010074 	stmdacc	r1, {r2, r4, r5, r6}
    214c:	00086a1c 	andeq	r6, r8, ip, lsl sl
    2150:	006e2600 	rsbeq	r2, lr, r0, lsl #12
    2154:	33253801 			; <UNDEFINED> instruction: 0x33253801
    2158:	26000000 	strcs	r0, [r0], -r0
    215c:	38010070 	stmdacc	r1, {r4, r5, r6}
    2160:	00086a2e 	andeq	r6, r8, lr, lsr #20
    2164:	09df2500 	ldmibeq	pc, {r8, sl, sp}^	; <UNPREDICTABLE>
    2168:	38010000 	stmdacc	r1, {}	; <UNPREDICTABLE>
    216c:	00086a37 	andeq	r6, r8, r7, lsr sl
    2170:	656c2700 	strbvs	r2, [ip, #-1792]!	; 0xfffff900
    2174:	3a01006e 	bcc	42334 <__bss_end__+0x37c5c>
    2178:	00003306 	andeq	r3, r0, r6, lsl #6
    217c:	00732700 	rsbseq	r2, r3, r0, lsl #14
    2180:	6a083e01 	bvs	21198c <__bss_end__+0x2072b4>
    2184:	00000008 	andeq	r0, r0, r8
    2188:	6461702a 	strbtvs	r7, [r1], #-42	; 0xffffffd6
    218c:	0e2e0100 	sufeqe	f0, f6, f0
    2190:	0000086a 	andeq	r0, r0, sl, ror #16
    2194:	0009e301 	andeq	lr, r9, r1, lsl #6
    2198:	00702600 	rsbseq	r2, r0, r0, lsl #12
    219c:	6a182e01 	bvs	60d9a8 <__bss_end__+0x6032d0>
    21a0:	25000008 	strcs	r0, [r0, #-8]
    21a4:	000002fc 	strdeq	r0, [r0], -ip
    21a8:	6a222e01 	bvs	88d9b4 <__bss_end__+0x8832dc>
    21ac:	25000008 	strcs	r0, [r0, #-8]
    21b0:	000005b8 			; <UNDEFINED> instruction: 0x000005b8
    21b4:	332c2e01 			; <UNDEFINED> instruction: 0x332c2e01
    21b8:	27000000 	strcs	r0, [r0, -r0]
    21bc:	006e656c 	rsbeq	r6, lr, ip, ror #10
    21c0:	33062f01 	movwcc	r2, #28417	; 0x6f01
    21c4:	00000000 	andeq	r0, r0, r0
    21c8:	00058524 	andeq	r8, r5, r4, lsr #10
    21cc:	0c270100 	stfeqs	f0, [r7], #-0
    21d0:	00000033 	andeq	r0, r0, r3, lsr r0
    21d4:	0009ff01 	andeq	pc, r9, r1, lsl #30
    21d8:	00632600 	rsbeq	r2, r3, r0, lsl #12
    21dc:	33182701 	tstcc	r8, #262144	; 0x40000
    21e0:	00000000 	andeq	r0, r0, r0
    21e4:	0005d52b 	andeq	sp, r5, fp, lsr #10
    21e8:	061f0100 	ldreq	r0, [pc], -r0, lsl #2
    21ec:	00008b58 	andeq	r8, r0, r8, asr fp
    21f0:	00000060 	andeq	r0, r0, r0, rrx
    21f4:	0a8f9c01 	beq	fe3e9200 <__bss_end__+0xfe3deb28>
    21f8:	be0f0000 	cdplt	0, 0, cr0, cr15, cr0, {0}
    21fc:	01000005 	tsteq	r0, r5
    2200:	009e1b1f 	addseq	r1, lr, pc, lsl fp
    2204:	148d0000 	strne	r0, [sp], #0
    2208:	14890000 	strne	r0, [r9], #0
    220c:	230f0000 	movwcs	r0, #61440	; 0xf000
    2210:	01000006 	tsteq	r0, r6
    2214:	00d1301f 	sbcseq	r3, r1, pc, lsl r0
    2218:	14b20000 	ldrtne	r0, [r2], #0
    221c:	14ae0000 	strtne	r0, [lr], #0
    2220:	6f120000 	svcvs	0x00120000
    2224:	9f000000 	svcls	0x00000000
    2228:	0500000a 	streq	r0, [r0, #-10]
    222c:	00a08003 	adceq	r8, r0, r3
    2230:	8b9c1700 	blhi	fe707e38 <__bss_end__+0xfe6fd760>
    2234:	0c460000 	mareq	acc0, r0, r6
    2238:	0a850000 	beq	fe142240 <__bss_end__+0xfe137b68>
    223c:	01180000 	tsteq	r8, r0
    2240:	94030550 	strls	r0, [r3], #-1360	; 0xfffffab0
    2244:	1800009d 	stmdane	r0, {r0, r2, r3, r4, r7}
    2248:	03055101 	movweq	r5, #20737	; 0x5101
    224c:	00009f38 	andeq	r9, r0, r8, lsr pc
    2250:	05520118 	ldrbeq	r0, [r2, #-280]	; 0xfffffee8
    2254:	00a08003 	adceq	r8, r0, r3
    2258:	53011800 	movwpl	r1, #6144	; 0x1800
    225c:	18200802 	stmdane	r0!, {r1, fp}
    2260:	05007d02 	streq	r7, [r0, #-3330]	; 0xfffff2fe
    2264:	009f7003 	addseq	r7, pc, r3
    2268:	a0190000 	andsge	r0, r9, r0
    226c:	7600008b 	strvc	r0, [r0], -fp, lsl #1
    2270:	0000000c 	andeq	r0, r0, ip
    2274:	0000c022 	andeq	ip, r0, r2, lsr #32
    2278:	000a9f00 	andeq	r9, sl, r0, lsl #30
    227c:	002c2300 	eoreq	r2, ip, r0, lsl #6
    2280:	000e0000 	andeq	r0, lr, r0
    2284:	000a8f09 	andeq	r8, sl, r9, lsl #30
    2288:	08952c00 	ldmeq	r5, {sl, fp, sp}
    228c:	88300000 	ldmdahi	r0!, {}	; <UNPREDICTABLE>
    2290:	03280000 			; <UNDEFINED> instruction: 0x03280000
    2294:	9c010000 	stcls	0, cr0, [r1], {-0}
    2298:	00000c3a 	andeq	r0, r0, sl, lsr ip
    229c:	0008a61b 	andeq	sl, r8, fp, lsl r6
    22a0:	0014eb00 	andseq	lr, r4, r0, lsl #22
    22a4:	0014d300 	andseq	sp, r4, r0, lsl #6
    22a8:	08b21b00 	ldmeq	r2!, {r8, r9, fp, ip}
    22ac:	15950000 	ldrne	r0, [r5]
    22b0:	158d0000 	strne	r0, [sp]
    22b4:	c81b0000 	ldmdagt	fp, {}	; <UNPREDICTABLE>
    22b8:	ec000008 	stc	0, cr0, [r0], {8}
    22bc:	cc000015 	stcgt	0, cr0, [r0], {21}
    22c0:	1b000015 	blne	231c <__code_start__-0x5ce4>
    22c4:	000008d4 	ldrdeq	r0, [r0], -r4
    22c8:	000016c2 	andeq	r1, r0, r2, asr #13
    22cc:	000016b4 			; <UNDEFINED> instruction: 0x000016b4
    22d0:	0008e02d 	andeq	lr, r8, sp, lsr #32
    22d4:	00910200 	addseq	r0, r1, r0, lsl #4
    22d8:	0008ec1d 	andeq	lr, r8, sp, lsl ip
    22dc:	a8910300 	ldmge	r1, {r8, r9}
    22e0:	08f81e7f 	ldmeq	r8!, {r0, r1, r2, r3, r4, r5, r6, r9, sl, fp, ip}^
    22e4:	17560000 	ldrbne	r0, [r6, -r0]
    22e8:	17220000 	strne	r0, [r2, -r0]!
    22ec:	021e0000 	andseq	r0, lr, #0, 0
    22f0:	bd000009 	stclt	0, cr0, [r0, #-36]	; 0xffffffdc
    22f4:	9b000018 	blls	235c <__code_start__-0x5ca4>
    22f8:	2e000018 	mcrcs	0, 0, r0, cr0, cr8, {0}
    22fc:	000008be 			; <UNDEFINED> instruction: 0x000008be
    2300:	09a31a80 	stmibeq	r3!, {r7, r9, fp, ip}
    2304:	88d40000 	ldmhi	r4, {}^	; <UNPREDICTABLE>
    2308:	00040000 	andeq	r0, r4, r0
    230c:	00000000 	andeq	r0, r0, r0
    2310:	6d097c01 	stcvs	12, cr7, [r9, #-4]
    2314:	1b00000b 	blne	2348 <__code_start__-0x5cb8>
    2318:	000009ca 	andeq	r0, r0, sl, asr #19
    231c:	000019a5 	andeq	r1, r0, r5, lsr #19
    2320:	0000199b 	muleq	r0, fp, r9
    2324:	0009be1b 	andeq	fp, r9, fp, lsl lr
    2328:	0019f900 	andseq	pc, r9, r0, lsl #18
    232c:	0019e900 	andseq	lr, r9, r0, lsl #18
    2330:	09b41b00 	ldmibeq	r4!, {r8, r9, fp, ip}
    2334:	1a790000 	bne	1e4233c <__bss_end__+0x1e37c64>
    2338:	1a650000 	bne	1942340 <__bss_end__+0x1937c68>
    233c:	00130000 	andseq	r0, r3, r0
    2340:	1e000000 	cdpne	0, 0, cr0, cr0, cr0, {0}
    2344:	000009d6 	ldrdeq	r0, [r0], -r6
    2348:	00001b0b 	andeq	r1, r0, fp, lsl #22
    234c:	00001afb 	strdeq	r1, [r0], -fp
    2350:	4f1a0000 	svcmi	0x001a0000
    2354:	8c000009 	stchi	0, cr0, [r0], {9}
    2358:	02000089 	andeq	r0, r0, #137, 0	; 0x89
    235c:	00004800 	andeq	r4, r0, r0, lsl #16
    2360:	097c0100 	ldmdbeq	ip!, {r8}^
    2364:	00000bd8 	ldrdeq	r0, [r0], -r8
    2368:	0009801b 	andeq	r8, r9, fp, lsl r0
    236c:	001b7700 	andseq	r7, fp, r0, lsl #14
    2370:	001b6f00 	andseq	r6, fp, r0, lsl #30
    2374:	09761b00 	ldmdbeq	r6!, {r8, r9, fp, ip}^
    2378:	1bb60000 	blne	fed82380 <__bss_end__+0xfed77ca8>
    237c:	1bae0000 	blne	feb82384 <__bss_end__+0xfeb77cac>
    2380:	6c1b0000 	ldcvs	0, cr0, [fp], {-0}
    2384:	f5000009 			; <UNDEFINED> instruction: 0xf5000009
    2388:	f100001b 	cps	#27
    238c:	1b00001b 	blne	2400 <__code_start__-0x5c00>
    2390:	00000960 	andeq	r0, r0, r0, ror #18
    2394:	00001c25 	andeq	r1, r0, r5, lsr #24
    2398:	00001c17 	andeq	r1, r0, r7, lsl ip
    239c:	00004813 	andeq	r4, r0, r3, lsl r8
    23a0:	098c1e00 	stmibeq	ip, {r9, sl, fp, ip}
    23a4:	1c8a0000 	stcne	0, cr0, [sl], {0}
    23a8:	1c840000 	stcne	0, cr0, [r4], {0}
    23ac:	981e0000 	ldmdals	lr, {}	; <UNPREDICTABLE>
    23b0:	bc000009 	stclt	0, cr0, [r0], {9}
    23b4:	b800001c 	stmdalt	r0, {r2, r3, r4}
    23b8:	0000001c 	andeq	r0, r0, ip, lsl r0
    23bc:	091b2f00 	ldmdbeq	fp, {r8, r9, sl, fp, sp}
    23c0:	8a440000 	bhi	11023c8 <__bss_end__+0x10f7cf0>
    23c4:	00600000 	rsbeq	r0, r0, r0
    23c8:	0bf70000 	bleq	ffdc23d0 <__bss_end__+0xffdb7cf8>
    23cc:	1c1e0000 	ldcne	0, cr0, [lr], {-0}
    23d0:	de000009 	cdple	0, 0, cr0, cr0, cr9, {0}
    23d4:	da00001c 	ble	244c <__code_start__-0x5bb4>
    23d8:	0000001c 	andeq	r0, r0, ip, lsl r0
    23dc:	008b1817 	addeq	r1, fp, r7, lsl r8
    23e0:	000c4600 	andeq	r4, ip, r0, lsl #12
    23e4:	000c3000 	andeq	r3, ip, r0
    23e8:	50011800 	andpl	r1, r1, r0, lsl #16
    23ec:	9d940305 	ldcls	3, cr0, [r4, #20]
    23f0:	01180000 	tsteq	r8, r0
    23f4:	38030551 	stmdacc	r3, {r0, r4, r6, r8, sl}
    23f8:	1800009f 	stmdane	r0, {r0, r1, r2, r3, r4, r7}
    23fc:	03055201 	movweq	r5, #20993	; 0x5201
    2400:	0000a078 	andeq	sl, r0, r8, ror r0
    2404:	02530118 	subseq	r0, r3, #6
    2408:	02187908 	andseq	r7, r8, #8, 18	; 0x20000
    240c:	0305007d 	movweq	r0, #20605	; 0x507d
    2410:	00009ec0 	andeq	r9, r0, r0, asr #29
    2414:	8b1c1900 	blhi	70881c <__bss_end__+0x6fe144>
    2418:	0c760000 	ldcleq	0, cr0, [r6], #-0
    241c:	30000000 	andcc	r0, r0, r0
    2420:	0000063d 	andeq	r0, r0, sp, lsr r6
    2424:	0000063d 	andeq	r0, r0, sp, lsr r6
    2428:	3005eb03 	andcc	lr, r5, r3, lsl #22
    242c:	00000534 	andeq	r0, r0, r4, lsr r5
    2430:	00000534 	andeq	r0, r0, r4, lsr r5
    2434:	30062803 	andcc	r2, r6, r3, lsl #16
    2438:	000005ee 	andeq	r0, r0, lr, ror #11
    243c:	000005ee 	andeq	r0, r0, lr, ror #11
    2440:	3007ee03 	andcc	lr, r7, r3, lsl #28
    2444:	0000061c 	andeq	r0, r0, ip, lsl r6
    2448:	0000061c 	andeq	r0, r0, ip, lsl r6
    244c:	3005ea03 	andcc	lr, r5, r3, lsl #20
    2450:	000005f5 	strdeq	r0, [r0], -r5
    2454:	000005f5 	strdeq	r0, [r0], -r5
    2458:	3007ed03 	andcc	lr, r7, r3, lsl #26
    245c:	00000038 	andeq	r0, r0, r8, lsr r0
    2460:	00000038 	andeq	r0, r0, r8, lsr r0
    2464:	00066e03 	andeq	r6, r6, r3, lsl #28
    2468:	0000012f 	andeq	r0, r0, pc, lsr #2
    246c:	0cdb0004 	ldcleq	0, cr0, [fp], {4}
    2470:	01040000 	mrseq	r0, (UNDEF: 4)
    2474:	00000452 	andeq	r0, r0, r2, asr r4
    2478:	0006620c 	andeq	r6, r6, ip, lsl #4
    247c:	00050a00 	andeq	r0, r5, r0, lsl #20
    2480:	0091e400 	addseq	lr, r1, r0, lsl #8
    2484:	00002c00 	andeq	r2, r0, r0, lsl #24
    2488:	00141300 	andseq	r1, r4, r0, lsl #6
    248c:	05040200 	streq	r0, [r4, #-512]	; 0xfffffe00
    2490:	00746e69 	rsbseq	r6, r4, r9, ror #28
    2494:	9a070403 	bls	1c34a8 <__bss_end__+0x1b8dd0>
    2498:	03000000 	movweq	r0, #0
    249c:	002c0601 	eoreq	r0, ip, r1, lsl #12
    24a0:	02030000 	andeq	r0, r3, #0, 0
    24a4:	0000ee05 	andeq	lr, r0, r5, lsl #28
    24a8:	05040300 	streq	r0, [r4, #-768]	; 0xfffffd00
    24ac:	000000ac 	andeq	r0, r0, ip, lsr #1
    24b0:	a7050803 	strge	r0, [r5, -r3, lsl #16]
    24b4:	03000000 	movweq	r0, #0
    24b8:	002a0801 	eoreq	r0, sl, r1, lsl #16
    24bc:	02030000 	andeq	r0, r3, #0, 0
    24c0:	00004507 	andeq	r4, r0, r7, lsl #10
    24c4:	07040300 	streq	r0, [r4, -r0, lsl #6]
    24c8:	00000095 	muleq	r0, r5, r0
    24cc:	90070803 	andls	r0, r7, r3, lsl #16
    24d0:	04000000 	streq	r0, [r0], #-0
    24d4:	00000025 	andeq	r0, r0, r5, lsr #32
    24d8:	0000007a 	andeq	r0, r0, sl, ror r0
    24dc:	00002505 	andeq	r2, r0, r5, lsl #10
    24e0:	02060000 	andeq	r0, r6, #0, 0
    24e4:	02000001 	andeq	r0, r0, #1, 0
    24e8:	00860e1c 	addeq	r0, r6, ip, lsl lr
    24ec:	04070000 	streq	r0, [r7], #-0
    24f0:	0000006b 	andeq	r0, r0, fp, rrx
    24f4:	00002504 	andeq	r2, r0, r4, lsl #10
    24f8:	00009b00 	andeq	r9, r0, r0, lsl #22
    24fc:	009b0500 	addseq	r0, fp, r0, lsl #10
    2500:	07000000 	streq	r0, [r0, -r0]
    2504:	0000a804 	andeq	sl, r0, r4, lsl #16
    2508:	08010300 	stmdaeq	r1, {r8, r9}
    250c:	00000033 	andeq	r0, r0, r3, lsr r0
    2510:	0000a108 	andeq	sl, r0, r8, lsl #2
    2514:	05720600 	ldrbeq	r0, [r2, #-1536]!	; 0xfffffa00
    2518:	21020000 	mrscs	r0, (UNDEF: 2)
    251c:	0000b90e 	andeq	fp, r0, lr, lsl #18
    2520:	8c040700 	stchi	7, cr0, [r4], {-0}
    2524:	09000000 	stmdbeq	r0, {}	; <UNPREDICTABLE>
    2528:	00000038 	andeq	r0, r0, r8, lsr r0
    252c:	e4060401 	str	r0, [r6], #-1025	; 0xfffffbff
    2530:	2c000091 	stccs	0, cr0, [r0], {145}	; 0x91
    2534:	01000000 	mrseq	r0, (UNDEF: 0)
    2538:	00010e9c 	muleq	r1, ip, lr
    253c:	91f80a00 	mvnsls	r0, r0, lsl #20
    2540:	00e80000 	rsceq	r0, r8, r0
    2544:	010b0000 	mrseq	r0, (UNDEF: 11)
    2548:	9c030550 	cfstr32ls	mvfx0, [r3], {80}	; 0x50
    254c:	000000a0 	andeq	r0, r0, r0, lsr #1
    2550:	0091fc0c 	addseq	pc, r1, ip, lsl #24
    2554:	00010e00 	andeq	r0, r1, r0, lsl #28
    2558:	92040d00 	andls	r0, r4, #0, 26
    255c:	011a0000 	tsteq	sl, r0
    2560:	01040000 	mrseq	r0, (UNDEF: 4)
    2564:	010b0000 	mrseq	r0, (UNDEF: 11)
    2568:	003a0150 	eorseq	r0, sl, r0, asr r1
    256c:	0092080c 	addseq	r0, r2, ip, lsl #16
    2570:	00012600 	andeq	r2, r1, r0, lsl #12
    2574:	7d0e0000 	stcvc	0, cr0, [lr, #-0]
    2578:	7d000006 	stcvc	0, cr0, [r0, #-24]	; 0xffffffe8
    257c:	02000006 	andeq	r0, r0, #6, 0
    2580:	590e064d 	stmdbpl	lr, {r0, r2, r3, r6, r9, sl}
    2584:	59000006 	stmdbpl	r0, {r1, r2}
    2588:	02000006 	andeq	r0, r0, #6, 0
    258c:	4e0e0658 	mcrmi	6, 0, r0, cr14, cr8, {2}
    2590:	4e000006 	cdpmi	0, 0, cr0, cr0, cr6, {0}
    2594:	02000006 	andeq	r0, r0, #6, 0
    2598:	9000066b 	andls	r0, r0, fp, ror #12
    259c:	04000001 	streq	r0, [r0], #-1
    25a0:	000d9b00 	andeq	r9, sp, r0, lsl #22
    25a4:	52010400 	andpl	r0, r1, #0, 8
    25a8:	0c000004 	stceq	0, cr0, [r0], {4}
    25ac:	000006b3 			; <UNDEFINED> instruction: 0x000006b3
    25b0:	0000050a 	andeq	r0, r0, sl, lsl #10
    25b4:	00009210 	andeq	r9, r0, r0, lsl r2
    25b8:	000000f8 	strdeq	r0, [r0], -r8
    25bc:	0000149e 	muleq	r0, lr, r4
    25c0:	69050402 	stmdbvs	r5, {r1, sl}
    25c4:	0300746e 	movweq	r7, #1134	; 0x46e
    25c8:	009a0704 	addseq	r0, sl, r4, lsl #14
    25cc:	01030000 	mrseq	r0, (UNDEF: 3)
    25d0:	00002c06 	andeq	r2, r0, r6, lsl #24
    25d4:	05020300 	streq	r0, [r2, #-768]	; 0xfffffd00
    25d8:	000000ee 	andeq	r0, r0, lr, ror #1
    25dc:	ac050403 	cfstrsge	mvf0, [r5], {3}
    25e0:	03000000 	movweq	r0, #0
    25e4:	00a70508 	adceq	r0, r7, r8, lsl #10
    25e8:	01030000 	mrseq	r0, (UNDEF: 3)
    25ec:	00002a08 	andeq	r2, r0, r8, lsl #20
    25f0:	07020300 	streq	r0, [r2, -r0, lsl #6]
    25f4:	00000045 	andeq	r0, r0, r5, asr #32
    25f8:	95070403 	strls	r0, [r7, #-1027]	; 0xfffffbfd
    25fc:	03000000 	movweq	r0, #0
    2600:	00900708 	addseq	r0, r0, r8, lsl #14
    2604:	25040000 	strcs	r0, [r4, #-0]
    2608:	7a000000 	bvc	2610 <__code_start__-0x59f0>
    260c:	05000000 	streq	r0, [r0, #-0]
    2610:	00000025 	andeq	r0, r0, r5, lsr #32
    2614:	01020600 	tsteq	r2, r0, lsl #12
    2618:	1c020000 	stcne	0, cr0, [r2], {-0}
    261c:	0000860e 	andeq	r8, r0, lr, lsl #12
    2620:	6b040700 	blvs	104228 <__bss_end__+0xf9b50>
    2624:	04000000 	streq	r0, [r0], #-0
    2628:	00000025 	andeq	r0, r0, r5, lsr #32
    262c:	0000009b 	muleq	r0, fp, r0
    2630:	00009b05 	andeq	r9, r0, r5, lsl #22
    2634:	04070000 	streq	r0, [r7], #-0
    2638:	000000a8 	andeq	r0, r0, r8, lsr #1
    263c:	33080103 	movwcc	r0, #33027	; 0x8103
    2640:	08000000 	stmdaeq	r0, {}	; <UNPREDICTABLE>
    2644:	000000a1 	andeq	r0, r0, r1, lsr #1
    2648:	00057206 	andeq	r7, r5, r6, lsl #4
    264c:	0e210200 	cdpeq	2, 2, cr0, cr1, cr0, {0}
    2650:	000000b9 	strheq	r0, [r0], -r9
    2654:	008c0407 	addeq	r0, ip, r7, lsl #8
    2658:	8b090000 	blhi	242660 <__bss_end__+0x237f88>
    265c:	01000006 	tsteq	r0, r6
    2660:	92100604 	andsls	r0, r0, #4, 12	; 0x400000
    2664:	00f80000 	rscseq	r0, r8, r0
    2668:	9c010000 	stcls	0, cr0, [r1], {-0}
    266c:	0000015b 	andeq	r0, r0, fp, asr r1
    2670:	00033d06 	andeq	r3, r3, r6, lsl #26
    2674:	10050100 	andne	r0, r5, r0, lsl #2
    2678:	00000025 	andeq	r0, r0, r5, lsr #32
    267c:	0003d706 	andeq	sp, r3, r6, lsl #14
    2680:	1f050100 	svcne	0x00050100
    2684:	00000025 	andeq	r0, r0, r5, lsr #32
    2688:	00001d0a 	andeq	r1, r0, sl, lsl #26
    268c:	07060100 	streq	r0, [r6, -r0, lsl #2]
    2690:	7373620b 	cmnvc	r3, #-1342177280	; 0xb0000000
    2694:	0a0a0100 	beq	282a9c <__bss_end__+0x2783c4>
    2698:	0000015b 	andeq	r0, r0, fp, asr r1
    269c:	00001d16 	andeq	r1, r0, r6, lsl sp
    26a0:	00001cfe 	strdeq	r1, [r0], -lr
    26a4:	0006930c 	andeq	r9, r6, ip, lsl #6
    26a8:	0a0b0100 	beq	2c2ab0 <__bss_end__+0x2b83d8>
    26ac:	0000015b 	andeq	r0, r0, fp, asr r1
    26b0:	0092e80d 	addseq	lr, r2, sp, lsl #16
    26b4:	00000800 	andeq	r0, r0, r0, lsl #16
    26b8:	00013600 	andeq	r3, r1, r0, lsl #12
    26bc:	6e690b00 	vmulvs.f64	d16, d9, d0
    26c0:	05140100 	ldreq	r0, [r4, #-256]	; 0xffffff00
    26c4:	0000002c 	andeq	r0, r0, ip, lsr #32
    26c8:	00001db0 			; <UNDEFINED> instruction: 0x00001db0
    26cc:	00001dae 	andeq	r1, r0, lr, lsr #27
    26d0:	92180e00 	andsls	r0, r8, #0, 28
    26d4:	01610000 	cmneq	r1, r0
    26d8:	e80e0000 	stmda	lr, {}	; <UNPREDICTABLE>
    26dc:	6e000092 	mcrvs	0, 0, r0, cr0, cr2, {4}
    26e0:	0e000001 	cdpeq	0, 0, cr0, cr0, cr1, {0}
    26e4:	000092f4 	strdeq	r9, [r0], -r4
    26e8:	0000017a 	andeq	r0, r0, sl, ror r1
    26ec:	0092f80e 	addseq	pc, r2, lr, lsl #16
    26f0:	00018700 	andeq	r8, r1, r0, lsl #14
    26f4:	04070000 	streq	r0, [r7], #-0
    26f8:	00000025 	andeq	r0, r0, r5, lsr #32
    26fc:	0006a50f 	andeq	sl, r6, pc, lsl #10
    2700:	0006a500 	andeq	sl, r6, r0, lsl #10
    2704:	01310200 	teqeq	r1, r0, lsl #4
    2708:	069b1006 	ldreq	r1, [fp], r6
    270c:	069b0000 	ldreq	r0, [fp], r0
    2710:	3b020000 	blcc	82718 <__bss_end__+0x78040>
    2714:	001d0f06 	andseq	r0, sp, r6, lsl #30
    2718:	001d0000 	andseq	r0, sp, r0
    271c:	05020000 	streq	r0, [r2, #-0]
    2720:	38100601 	ldmdacc	r0, {r0, r9, sl}
    2724:	38000000 	stmdacc	r0, {}	; <UNPREDICTABLE>
    2728:	02000000 	andeq	r0, r0, #0, 0
    272c:	ce00066e 	cfmadd32gt	mvax3, mvfx0, mvfx0, mvfx14
    2730:	04000000 	streq	r0, [r0], #-0
    2734:	000e8600 	andeq	r8, lr, r0, lsl #12
    2738:	52010400 	andpl	r0, r1, #0, 8
    273c:	0c000004 	stceq	0, cr0, [r0], {4}
    2740:	000006c8 	andeq	r0, r0, r8, asr #13
    2744:	0000050a 	andeq	r0, r0, sl, lsl #10
    2748:	00009308 	andeq	r9, r0, r8, lsl #6
    274c:	00000004 	andeq	r0, r0, r4
    2750:	000015b4 			; <UNDEFINED> instruction: 0x000015b4
    2754:	69050402 	stmdbvs	r5, {r1, sl}
    2758:	0300746e 	movweq	r7, #1134	; 0x46e
    275c:	009a0704 	addseq	r0, sl, r4, lsl #14
    2760:	01030000 	mrseq	r0, (UNDEF: 3)
    2764:	00002c06 	andeq	r2, r0, r6, lsl #24
    2768:	05020300 	streq	r0, [r2, #-768]	; 0xfffffd00
    276c:	000000ee 	andeq	r0, r0, lr, ror #1
    2770:	ac050403 	cfstrsge	mvf0, [r5], {3}
    2774:	03000000 	movweq	r0, #0
    2778:	00a70508 	adceq	r0, r7, r8, lsl #10
    277c:	01030000 	mrseq	r0, (UNDEF: 3)
    2780:	00002a08 	andeq	r2, r0, r8, lsl #20
    2784:	07020300 	streq	r0, [r2, -r0, lsl #6]
    2788:	00000045 	andeq	r0, r0, r5, asr #32
    278c:	95070403 	strls	r0, [r7, #-1027]	; 0xfffffbfd
    2790:	03000000 	movweq	r0, #0
    2794:	00900708 	addseq	r0, r0, r8, lsl #14
    2798:	25040000 	strcs	r0, [r4, #-0]
    279c:	7a000000 	bvc	27a4 <__code_start__-0x585c>
    27a0:	05000000 	streq	r0, [r0, #-0]
    27a4:	00000025 	andeq	r0, r0, r5, lsr #32
    27a8:	01020600 	tsteq	r2, r0, lsl #12
    27ac:	1c020000 	stcne	0, cr0, [r2], {-0}
    27b0:	0000860e 	andeq	r8, r0, lr, lsl #12
    27b4:	6b040700 	blvs	1043bc <__bss_end__+0xf9ce4>
    27b8:	04000000 	streq	r0, [r0], #-0
    27bc:	00000025 	andeq	r0, r0, r5, lsr #32
    27c0:	0000009b 	muleq	r0, fp, r0
    27c4:	00009b05 	andeq	r9, r0, r5, lsl #22
    27c8:	04070000 	streq	r0, [r7], #-0
    27cc:	000000a8 	andeq	r0, r0, r8, lsr #1
    27d0:	33080103 	movwcc	r0, #33027	; 0x8103
    27d4:	08000000 	stmdaeq	r0, {}	; <UNPREDICTABLE>
    27d8:	000000a1 	andeq	r0, r0, r1, lsr #1
    27dc:	00057206 	andeq	r7, r5, r6, lsl #4
    27e0:	0e210200 	cdpeq	2, 2, cr0, cr1, cr0, {0}
    27e4:	000000b9 	strheq	r0, [r0], -r9
    27e8:	008c0407 	addeq	r0, ip, r7, lsl #8
    27ec:	a5090000 	strge	r0, [r9, #-0]
    27f0:	01000006 	tsteq	r0, r6
    27f4:	93080604 	movwls	r0, #34308	; 0x8604
    27f8:	00040000 	andeq	r0, r4, r0
    27fc:	9c010000 	stcls	0, cr0, [r1], {-0}
    2800:	00027d00 	andeq	r7, r2, r0, lsl #26
    2804:	ff000400 			; <UNDEFINED> instruction: 0xff000400
    2808:	0400000e 	streq	r0, [r0], #-14
    280c:	00045201 	andeq	r5, r4, r1, lsl #4
    2810:	07100c00 	ldreq	r0, [r0, -r0, lsl #24]
    2814:	050a0000 	streq	r0, [sl, #-0]
    2818:	01f00000 	mvnseq	r0, r0
    281c:	00000000 	andeq	r0, r0, r0
    2820:	16350000 	ldrtne	r0, [r5], -r0
    2824:	04020000 	streq	r0, [r2], #-0
    2828:	746e6905 	strbtvc	r6, [lr], #-2309	; 0xfffff6fb
    282c:	00250300 	eoreq	r0, r5, r0, lsl #6
    2830:	04040000 	streq	r0, [r4], #-0
    2834:	00009a07 	andeq	r9, r0, r7, lsl #20
    2838:	06010400 	streq	r0, [r1], -r0, lsl #8
    283c:	0000002c 	andeq	r0, r0, ip, lsr #32
    2840:	ee050204 	cdp	2, 0, cr0, cr5, cr4, {0}
    2844:	04000000 	streq	r0, [r0], #-0
    2848:	00ac0504 	adceq	r0, ip, r4, lsl #10
    284c:	08040000 	stmdaeq	r4, {}	; <UNPREDICTABLE>
    2850:	0000a705 	andeq	sl, r0, r5, lsl #14
    2854:	08010400 	stmdaeq	r1, {sl}
    2858:	0000002a 	andeq	r0, r0, sl, lsr #32
    285c:	45070204 	strmi	r0, [r7, #-516]	; 0xfffffdfc
    2860:	04000000 	streq	r0, [r0], #-0
    2864:	00950704 	addseq	r0, r5, r4, lsl #14
    2868:	08040000 	stmdaeq	r4, {}	; <UNPREDICTABLE>
    286c:	00009007 	andeq	r9, r0, r7
    2870:	00250500 	eoreq	r0, r5, r0, lsl #10
    2874:	007f0000 	rsbseq	r0, pc, r0
    2878:	25060000 	strcs	r0, [r6, #-0]
    287c:	00000000 	andeq	r0, r0, r0
    2880:	00010207 	andeq	r0, r1, r7, lsl #4
    2884:	0e1c0200 	cdpeq	2, 1, cr0, cr12, cr0, {0}
    2888:	0000008b 	andeq	r0, r0, fp, lsl #1
    288c:	00700408 	rsbseq	r0, r0, r8, lsl #8
    2890:	25050000 	strcs	r0, [r5, #-0]
    2894:	a0000000 	andge	r0, r0, r0
    2898:	06000000 	streq	r0, [r0], -r0
    289c:	000000a0 	andeq	r0, r0, r0, lsr #1
    28a0:	ad040800 	stcge	8, cr0, [r4, #-0]
    28a4:	04000000 	streq	r0, [r0], #-0
    28a8:	00330801 	eorseq	r0, r3, r1, lsl #16
    28ac:	a6030000 	strge	r0, [r3], -r0
    28b0:	07000000 	streq	r0, [r0, -r0]
    28b4:	00000572 	andeq	r0, r0, r2, ror r5
    28b8:	be0e2102 	adflte	f2, f6, f2
    28bc:	08000000 	stmdaeq	r0, {}	; <UNPREDICTABLE>
    28c0:	00009104 	andeq	r9, r0, r4, lsl #2
    28c4:	07340900 	ldreq	r0, [r4, -r0, lsl #18]!
    28c8:	0d010000 	stceq	0, cr0, [r1, #-0]
    28cc:	00003111 	andeq	r3, r0, r1, lsl r1
    28d0:	064e0a00 	strbeq	r0, [lr], -r0, lsl #20
    28d4:	1f010000 	svcne	0x00010000
    28d8:	00933806 	addseq	r3, r3, r6, lsl #16
    28dc:	00006000 	andeq	r6, r0, r0
    28e0:	d59c0100 	ldrle	r0, [ip, #256]	; 0x100
    28e4:	0b000001 	bleq	28f0 <__code_start__-0x5710>
    28e8:	00000758 	andeq	r0, r0, r8, asr r7
    28ec:	2c0f2c01 	stccs	12, cr2, [pc], {1}
    28f0:	1c000000 	stcne	0, cr0, [r0], {-0}
    28f4:	0b201000 	bleq	8068fc <__bss_end__+0x7fc224>
    28f8:	000006f3 	strdeq	r0, [r0], -r3
    28fc:	2c0f2d01 	stccs	13, cr2, [pc], {1}
    2900:	24000000 	strcs	r0, [r0], #-0
    2904:	0b201000 	bleq	80690c <__bss_end__+0x7fc234>
    2908:	00000725 	andeq	r0, r0, r5, lsr #14
    290c:	2c0f2e01 	stccs	14, cr2, [pc], {1}
    2910:	00000000 	andeq	r0, r0, r0
    2914:	0c5a0000 	mraeq	r0, sl, acc0
    2918:	0000073f 	andeq	r0, r0, pc, lsr r7
    291c:	2c0f2f01 	stccs	15, cr2, [pc], {1}
    2920:	20000000 	andcs	r0, r0, r0
    2924:	0001ef0d 	andeq	lr, r1, sp, lsl #30
    2928:	00933800 	addseq	r3, r3, r0, lsl #16
    292c:	01d80200 	bicseq	r0, r8, r0, lsl #4
    2930:	20010000 	andcs	r0, r1, r0
    2934:	00014c08 	andeq	r4, r1, r8, lsl #24
    2938:	01d80e00 	bicseq	r0, r8, r0, lsl #28
    293c:	000f0000 	andeq	r0, pc, r0
    2940:	c8000002 	stmdagt	r0, {r1}
    2944:	c400001d 	strgt	r0, [r0], #-29	; 0xffffffe3
    2948:	0000001d 	andeq	r0, r0, sp, lsl r0
    294c:	01d51000 	bicseq	r1, r5, r0
    2950:	934c0000 	movtls	r0, #49152	; 0xc000
    2954:	4c010000 	stcmi	0, cr0, [r1], {-0}
    2958:	10000093 	mulne	r0, r3, r0
    295c:	01000000 	mrseq	r0, (UNDEF: 0)
    2960:	01730921 	cmneq	r3, r1, lsr #18
    2964:	e20f0000 	and	r0, pc, #0, 0
    2968:	ef000001 	svc	0x00000001
    296c:	e700001d 	smlad	r0, sp, r0, r0
    2970:	0000001d 	andeq	r0, r0, sp, lsl r0
    2974:	00936011 	addseq	r6, r3, r1, lsl r0
    2978:	00024f00 	andeq	r4, r2, r0, lsl #30
    297c:	93641100 	cmnls	r4, #0
    2980:	025c0000 	subseq	r0, ip, #0, 0
    2984:	6c120000 	ldcvs	0, cr0, [r2], {-0}
    2988:	68000093 	stmdavs	r0, {r0, r1, r4, r7}
    298c:	98000002 	stmdals	r0, {r1}
    2990:	13000001 	movwne	r0, #1
    2994:	3a015001 	bcc	569a0 <__bss_end__+0x4c2c8>
    2998:	93781200 	cmnls	r8, #0, 4
    299c:	02740000 	rsbseq	r0, r4, #0, 0
    29a0:	01b80000 			; <UNDEFINED> instruction: 0x01b80000
    29a4:	01130000 	tsteq	r3, r0
    29a8:	240c0550 	strcs	r0, [ip], #-1360	; 0xfffffab0
    29ac:	13201000 	nopne	{0}	; <UNPREDICTABLE>
    29b0:	0c055101 	stfeqs	f5, [r5], {1}
    29b4:	5a000001 	bpl	29c0 <__code_start__-0x5640>
    29b8:	93841400 	orrls	r1, r4, #0, 8
    29bc:	02740000 	rsbseq	r0, r4, #0, 0
    29c0:	01130000 	tsteq	r3, r0
    29c4:	1c0c0550 	cfstr32ne	mvfx0, [ip], {80}	; 0x50
    29c8:	13201000 	nopne	{0}	; <UNPREDICTABLE>
    29cc:	0c055101 	stfeqs	f5, [r5], {1}
    29d0:	5a000020 	bpl	2a58 <__code_start__-0x55a8>
    29d4:	01150000 	tsteq	r5, r0
    29d8:	01000007 	tsteq	r0, r7
    29dc:	ef010617 	svc	0x00010617
    29e0:	09000001 	stmdbeq	r0, {r0}
    29e4:	00000760 	andeq	r0, r0, r0, ror #14
    29e8:	310e1801 	tstcc	lr, r1, lsl #16
    29ec:	00000000 	andeq	r0, r0, r0
    29f0:	00073116 	andeq	r3, r7, r6, lsl r1
    29f4:	050e0100 	streq	r0, [lr, #-256]	; 0xffffff00
    29f8:	00000025 	andeq	r0, r0, r5, lsr #32
    29fc:	00020d01 	andeq	r0, r2, r1, lsl #26
    2a00:	07600900 	strbeq	r0, [r0, -r0, lsl #18]!
    2a04:	0f010000 	svceq	0x00010000
    2a08:	0000310e 	andeq	r3, r0, lr, lsl #2
    2a0c:	ef170000 	svc	0x00170000
    2a10:	0c000001 	stceq	0, cr0, [r0], {1}
    2a14:	18000093 	stmdane	r0, {r0, r1, r4, r7}
    2a18:	01000000 	mrseq	r0, (UNDEF: 0)
    2a1c:	00022e9c 	muleq	r2, ip, lr
    2a20:	02000f00 	andeq	r0, r0, #0, 30
    2a24:	1e2c0000 	cdpne	0, 2, cr0, cr12, cr0, {0}
    2a28:	1e280000 	cdpne	0, 2, cr0, cr8, cr0, {0}
    2a2c:	17000000 	strne	r0, [r0, -r0]
    2a30:	000001d5 	ldrdeq	r0, [r0], -r5
    2a34:	00009324 	andeq	r9, r0, r4, lsr #6
    2a38:	00000014 	andeq	r0, r0, r4, lsl r0
    2a3c:	024f9c01 	subeq	r9, pc, #256	; 0x100
    2a40:	e20f0000 	and	r0, pc, #0, 0
    2a44:	53000001 	movwpl	r0, #1
    2a48:	4b00001e 	blmi	2ac8 <__code_start__-0x5538>
    2a4c:	0000001e 	andeq	r0, r0, lr, lsl r0
    2a50:	0006e418 	andeq	lr, r6, r8, lsl r4
    2a54:	0006e400 	andeq	lr, r6, r0, lsl #8
    2a58:	01360200 	teqeq	r6, r0, lsl #4
    2a5c:	067d1906 	ldrbteq	r1, [sp], -r6, lsl #18
    2a60:	067d0000 	ldrbteq	r0, [sp], -r0
    2a64:	4d020000 	stcmi	0, cr0, [r2, #-0]
    2a68:	06591906 	ldrbeq	r1, [r9], -r6, lsl #18
    2a6c:	06590000 	ldrbeq	r0, [r9], -r0
    2a70:	58020000 	stmdapl	r2, {}	; <UNPREDICTABLE>
    2a74:	06fb1906 	ldrbteq	r1, [fp], r6, lsl #18
    2a78:	06fb0000 	ldrbteq	r0, [fp], r0
    2a7c:	ad020000 	stcge	0, cr0, [r2, #-0]
    2a80:	053f0006 	ldreq	r0, [pc, #-6]!	; 2a82 <__code_start__-0x557e>
    2a84:	00040000 	andeq	r0, r4, r0
    2a88:	00001082 	andeq	r1, r0, r2, lsl #1
    2a8c:	04520104 	ldrbeq	r0, [r2], #-260	; 0xfffffefc
    2a90:	7b0c0000 	blvc	302a98 <__bss_end__+0x2f83c0>
    2a94:	0a000007 	beq	2ab8 <__code_start__-0x5548>
    2a98:	98000005 	stmdals	r0, {r0, r2}
    2a9c:	1c000093 	stcne	0, cr0, [r0], {147}	; 0x93
    2aa0:	4d000001 	stcmi	0, cr0, [r0, #-4]
    2aa4:	02000017 	andeq	r0, r0, #23, 0
    2aa8:	6e690504 	cdpvs	5, 6, cr0, cr9, cr4, {0}
    2aac:	04030074 	streq	r0, [r3], #-116	; 0xffffff8c
    2ab0:	00009a07 	andeq	r9, r0, r7, lsl #20
    2ab4:	06010300 	streq	r0, [r1], -r0, lsl #6
    2ab8:	0000002c 	andeq	r0, r0, ip, lsr #32
    2abc:	ee050203 	cdp	2, 0, cr0, cr5, cr3, {0}
    2ac0:	03000000 	movweq	r0, #0
    2ac4:	00ac0504 	adceq	r0, ip, r4, lsl #10
    2ac8:	08030000 	stmdaeq	r3, {}	; <UNPREDICTABLE>
    2acc:	0000a705 	andeq	sl, r0, r5, lsl #14
    2ad0:	08010300 	stmdaeq	r1, {r8, r9}
    2ad4:	0000002a 	andeq	r0, r0, sl, lsr #32
    2ad8:	45070203 	strmi	r0, [r7, #-515]	; 0xfffffdfd
    2adc:	03000000 	movweq	r0, #0
    2ae0:	00950704 	addseq	r0, r5, r4, lsl #14
    2ae4:	08030000 	stmdaeq	r3, {}	; <UNPREDICTABLE>
    2ae8:	00009007 	andeq	r9, r0, r7
    2aec:	00250400 	eoreq	r0, r5, r0, lsl #8
    2af0:	007a0000 	rsbseq	r0, sl, r0
    2af4:	25050000 	strcs	r0, [r5, #-0]
    2af8:	00000000 	andeq	r0, r0, r0
    2afc:	00010206 	andeq	r0, r1, r6, lsl #4
    2b00:	0e1c0200 	cdpeq	2, 1, cr0, cr12, cr0, {0}
    2b04:	00000086 	andeq	r0, r0, r6, lsl #1
    2b08:	006b0407 	rsbeq	r0, fp, r7, lsl #8
    2b0c:	25040000 	strcs	r0, [r4, #-0]
    2b10:	9b000000 	blls	2b18 <__code_start__-0x54e8>
    2b14:	05000000 	streq	r0, [r0, #-0]
    2b18:	0000009b 	muleq	r0, fp, r0
    2b1c:	a8040700 	stmdage	r4, {r8, r9, sl}
    2b20:	03000000 	movweq	r0, #0
    2b24:	00330801 	eorseq	r0, r3, r1, lsl #16
    2b28:	a1080000 	mrsge	r0, (UNDEF: 8)
    2b2c:	06000000 	streq	r0, [r0], -r0
    2b30:	00000572 	andeq	r0, r0, r2, ror r5
    2b34:	b90e2102 	stmdblt	lr, {r1, r8, sp}
    2b38:	07000000 	streq	r0, [r0, -r0]
    2b3c:	00008c04 	andeq	r8, r0, r4, lsl #24
    2b40:	07710900 	ldrbeq	r0, [r1, -r0, lsl #18]!
    2b44:	1e010000 	cdpne	0, 0, cr0, cr1, cr0, {0}
    2b48:	00946006 	addseq	r6, r4, r6
    2b4c:	00005400 	andeq	r5, r0, r0, lsl #8
    2b50:	0b9c0100 	bleq	fe702f58 <__bss_end__+0xfe6f8880>
    2b54:	0a000002 	beq	2b64 <__code_start__-0x549c>
    2b58:	00636573 	rsbeq	r6, r3, r3, ror r5
    2b5c:	2c191e01 	ldccs	14, cr1, [r9], {1}
    2b60:	90000000 	andls	r0, r0, r0
    2b64:	8c00001e 	stchi	0, cr0, [r0], {30}
    2b68:	0b00001e 	bleq	2be8 <__code_start__-0x5418>
    2b6c:	0000020b 	andeq	r0, r0, fp, lsl #4
    2b70:	00009460 	andeq	r9, r0, r0, ror #8
    2b74:	0002b802 	andeq	fp, r2, r2, lsl #16
    2b78:	051f0100 	ldreq	r0, [pc, #-256]	; 2a80 <__code_start__-0x5580>
    2b7c:	0002180c 	andeq	r1, r2, ip, lsl #16
    2b80:	001eb500 	andseq	fp, lr, r0, lsl #10
    2b84:	001eb100 	andseq	fp, lr, r0, lsl #2
    2b88:	02240d00 	eoreq	r0, r4, #0, 26
    2b8c:	94740000 	ldrbtls	r0, [r4], #-0
    2b90:	74000000 	strvc	r0, [r0], #-0
    2b94:	40000094 	mulmi	r0, r4, r0
    2b98:	01000000 	mrseq	r0, (UNDEF: 0)
    2b9c:	310c051c 	tstcc	ip, ip, lsl r5
    2ba0:	e2000002 	and	r0, r0, #2, 0
    2ba4:	e000001e 	and	r0, r0, lr, lsl r0
    2ba8:	0e00001e 	mcreq	0, 0, r0, cr0, cr14, {0}
    2bac:	0000023c 	andeq	r0, r0, ip, lsr r2
    2bb0:	00001ef7 	strdeq	r1, [r0], -r7
    2bb4:	00001ef5 	strdeq	r1, [r0], -r5
    2bb8:	0002550f 	andeq	r5, r2, pc, lsl #10
    2bbc:	00947400 	addseq	r7, r4, r0, lsl #8
    2bc0:	94740200 	ldrbtls	r0, [r4], #-512	; 0xfffffe00
    2bc4:	00140000 	andseq	r0, r4, r0
    2bc8:	13010000 	movwne	r0, #4096	; 0x1000
    2bcc:	00019c13 	andeq	r9, r1, r3, lsl ip
    2bd0:	02660e00 	rsbeq	r0, r6, #0, 28
    2bd4:	1f0e0000 	svcne	0x000e0000
    2bd8:	1f0a0000 	svcne	0x000a0000
    2bdc:	710f0000 	mrsvc	r0, CPSR
    2be0:	78000002 	stmdavc	r0, {r1}
    2be4:	01000094 	swpeq	r0, r4, [r0]	; <UNPREDICTABLE>
    2be8:	00009478 	andeq	r9, r0, r8, ror r4
    2bec:	0000000c 	andeq	r0, r0, ip
    2bf0:	89120d01 	ldmdbhi	r2, {r0, r8, sl, fp}
    2bf4:	10000001 	andne	r0, r0, r1
    2bf8:	00009480 	andeq	r9, r0, r0, lsl #9
    2bfc:	0000052a 	andeq	r0, r0, sl, lsr #10
    2c00:	05500111 	ldrbeq	r0, [r0, #-273]	; 0xfffffeef
    2c04:	0030040c 	eorseq	r0, r0, ip, lsl #8
    2c08:	12000020 	andne	r0, r0, #32, 0
    2c0c:	00009478 	andeq	r9, r0, r8, ror r4
    2c10:	00000536 	andeq	r0, r0, r6, lsr r5
    2c14:	00948812 	addseq	r8, r4, r2, lsl r8
    2c18:	00053600 	andeq	r3, r5, r0, lsl #12
    2c1c:	47130000 	ldrmi	r0, [r3, -r0]
    2c20:	d0000002 	andle	r0, r0, r2
    2c24:	14000002 	strne	r0, [r0], #-2
    2c28:	00000248 	andeq	r0, r0, r8, asr #4
    2c2c:	0002550b 	andeq	r5, r2, fp, lsl #10
    2c30:	00948c00 	addseq	r8, r4, r0, lsl #24
    2c34:	02e80200 	rsceq	r0, r8, #0, 4
    2c38:	15010000 	strne	r0, [r1, #-0]
    2c3c:	02e81517 	rsceq	r1, r8, #96468992	; 0x5c00000
    2c40:	660e0000 	strvs	r0, [lr], -r0
    2c44:	2e000002 	cdpcs	0, 0, cr0, cr0, cr2, {0}
    2c48:	2c00001f 	stccs	0, cr0, [r0], {31}
    2c4c:	1600001f 			; <UNDEFINED> instruction: 0x1600001f
    2c50:	00000271 	andeq	r0, r0, r1, ror r2
    2c54:	00009490 	muleq	r0, r0, r4
    2c58:	00030801 	andeq	r0, r3, r1, lsl #16
    2c5c:	120d0100 	andne	r0, sp, #0
    2c60:	000001f3 	strdeq	r0, [r0], -r3
    2c64:	00949810 	addseq	r9, r4, r0, lsl r8
    2c68:	00052a00 	andeq	r2, r5, r0, lsl #20
    2c6c:	50011100 	andpl	r1, r1, r0, lsl #2
    2c70:	00007702 	andeq	r7, r0, r2, lsl #14
    2c74:	94901200 	ldrls	r1, [r0], #512	; 0x200
    2c78:	05360000 	ldreq	r0, [r6, #-0]!
    2c7c:	a4120000 	ldrge	r0, [r2], #-0
    2c80:	36000094 			; <UNDEFINED> instruction: 0x36000094
    2c84:	00000005 	andeq	r0, r0, r5
    2c88:	00000000 	andeq	r0, r0, r0
    2c8c:	06591700 	ldrbeq	r1, [r9], -r0, lsl #14
    2c90:	1b010000 	blne	42c98 <__bss_end__+0x385c0>
    2c94:	02240106 	eoreq	r0, r4, #-2147483647	; 0x80000001
    2c98:	6d180000 	ldcvs	0, cr0, [r8, #-0]
    2c9c:	1b010073 	blne	42e70 <__bss_end__+0x38798>
    2ca0:	00002c18 	andeq	r2, r0, r8, lsl ip
    2ca4:	a4170000 	ldrge	r0, [r7], #-0
    2ca8:	01000007 	tsteq	r0, r7
    2cac:	55010612 	strpl	r0, [r1, #-1554]	; 0xfffff9ee
    2cb0:	18000002 	stmdane	r0, {r1}
    2cb4:	01007375 	tsteq	r0, r5, ror r3
    2cb8:	002c1812 	eoreq	r1, ip, r2, lsl r8
    2cbc:	72190000 	andsvc	r0, r9, #0, 0
    2cc0:	13010062 	movwne	r0, #4194	; 0x1062
    2cc4:	00002c0e 	andeq	r2, r0, lr, lsl #24
    2cc8:	72191a00 	andsvc	r1, r9, #0, 20
    2ccc:	15010061 	strne	r0, [r1, #-97]	; 0xffffff9f
    2cd0:	00002c12 	andeq	r2, r0, r2, lsl ip
    2cd4:	1b000000 	blne	2cdc <__code_start__-0x5324>
    2cd8:	00000795 	muleq	r0, r5, r7
    2cdc:	2c0a0901 			; <UNDEFINED> instruction: 0x2c0a0901
    2ce0:	01000000 	mrseq	r0, (UNDEF: 0)
    2ce4:	00000271 	andeq	r0, r0, r1, ror r2
    2ce8:	01007519 	tsteq	r0, r9, lsl r5
    2cec:	002c0e0d 	eoreq	r0, ip, sp, lsl #28
    2cf0:	1c000000 	stcne	0, cr0, [r0], {-0}
    2cf4:	000007ad 	andeq	r0, r0, sp, lsr #15
    2cf8:	2c0a0401 	cfstrscs	mvf0, [sl], {1}
    2cfc:	01000000 	mrseq	r0, (UNDEF: 0)
    2d00:	0002711d 	andeq	r7, r2, sp, lsl r1
    2d04:	00939800 	addseq	r9, r3, r0, lsl #16
    2d08:	00000c00 	andeq	r0, r0, r0, lsl #24
    2d0c:	a59c0100 	ldrge	r0, [ip, #256]	; 0x100
    2d10:	1e000002 	cdpne	0, 0, cr0, cr0, cr2, {0}
    2d14:	000093a0 	andeq	r9, r0, r0, lsr #7
    2d18:	0000052a 	andeq	r0, r0, sl, lsr #10
    2d1c:	05500111 	ldrbeq	r0, [r0, #-273]	; 0xfffffeef
    2d20:	0030040c 	eorseq	r0, r0, ip, lsl #8
    2d24:	1d000020 	stcne	0, cr0, [r0, #-128]	; 0xffffff80
    2d28:	00000255 	andeq	r0, r0, r5, asr r2
    2d2c:	000093a4 	andeq	r9, r0, r4, lsr #7
    2d30:	00000024 	andeq	r0, r0, r4, lsr #32
    2d34:	03059c01 	movweq	r9, #23553	; 0x5c01
    2d38:	660e0000 	strvs	r0, [lr], -r0
    2d3c:	45000002 	strmi	r0, [r0, #-2]
    2d40:	4100001f 	tstmi	r0, pc, lsl r0
    2d44:	0f00001f 	svceq	0x0000001f
    2d48:	00000271 	andeq	r0, r0, r1, ror r2
    2d4c:	000093ac 	andeq	r9, r0, ip, lsr #7
    2d50:	0093ac01 	addseq	sl, r3, r1, lsl #24
    2d54:	00000c00 	andeq	r0, r0, r0, lsl #24
    2d58:	120d0100 	andne	r0, sp, #0
    2d5c:	000002f2 	strdeq	r0, [r0], -r2
    2d60:	0093b410 	addseq	fp, r3, r0, lsl r4
    2d64:	00052a00 	andeq	r2, r5, r0, lsl #20
    2d68:	50011100 	andpl	r1, r1, r0, lsl #2
    2d6c:	30040c05 	andcc	r0, r4, r5, lsl #24
    2d70:	00002000 	andeq	r2, r0, r0
    2d74:	0093ac12 	addseq	sl, r3, r2, lsl ip
    2d78:	00053600 	andeq	r3, r5, r0, lsl #12
    2d7c:	93bc1200 			; <UNDEFINED> instruction: 0x93bc1200
    2d80:	05360000 	ldreq	r0, [r6, #-0]!
    2d84:	1d000000 	stcne	0, cr0, [r0, #-0]
    2d88:	00000224 	andeq	r0, r0, r4, lsr #4
    2d8c:	000093c8 	andeq	r9, r0, r8, asr #7
    2d90:	00000048 	andeq	r0, r0, r8, asr #32
    2d94:	04079c01 	streq	r9, [r7], #-3073	; 0xfffff3ff
    2d98:	310c0000 	mrscc	r0, (UNDEF: 12)
    2d9c:	67000002 	strvs	r0, [r0, -r2]
    2da0:	6300001f 	movwvs	r0, #31
    2da4:	0e00001f 	mcreq	0, 0, r0, cr0, cr15, {0}
    2da8:	0000023c 	andeq	r0, r0, ip, lsr r2
    2dac:	00001f87 	andeq	r1, r0, r7, lsl #31
    2db0:	00001f85 	andeq	r1, r0, r5, lsl #31
    2db4:	00025516 	andeq	r5, r2, r6, lsl r5
    2db8:	0093c800 	addseq	ip, r3, r0, lsl #16
    2dbc:	02000200 	andeq	r0, r0, #0, 4
    2dc0:	13010000 	movwne	r0, #4096	; 0x1000
    2dc4:	00039a13 	andeq	r9, r3, r3, lsl sl
    2dc8:	02001500 	andeq	r1, r0, #0, 10
    2dcc:	660e0000 	strvs	r0, [lr], -r0
    2dd0:	9e000002 	cdpls	0, 0, cr0, cr0, cr2, {0}
    2dd4:	9a00001f 	bls	2e58 <__code_start__-0x51a8>
    2dd8:	0f00001f 	svceq	0x0000001f
    2ddc:	00000271 	andeq	r0, r0, r1, ror r2
    2de0:	000093d4 	ldrdeq	r9, [r0], -r4
    2de4:	0093d401 	addseq	sp, r3, r1, lsl #8
    2de8:	00000c00 	andeq	r0, r0, r0, lsl #24
    2dec:	120d0100 	andne	r0, sp, #0
    2df0:	00000386 	andeq	r0, r0, r6, lsl #7
    2df4:	0093dc10 	addseq	sp, r3, r0, lsl ip
    2df8:	00052a00 	andeq	r2, r5, r0, lsl #20
    2dfc:	50011100 	andpl	r1, r1, r0, lsl #2
    2e00:	30040c05 	andcc	r0, r4, r5, lsl #24
    2e04:	00002000 	andeq	r2, r0, r0
    2e08:	0093d412 	addseq	sp, r3, r2, lsl r4
    2e0c:	00053600 	andeq	r3, r5, r0, lsl #12
    2e10:	93e41200 	mvnls	r1, #0, 4
    2e14:	05360000 	ldreq	r0, [r6, #-0]!
    2e18:	00000000 	andeq	r0, r0, r0
    2e1c:	00024713 	andeq	r4, r2, r3, lsl r7
    2e20:	00021800 	andeq	r1, r2, r0, lsl #16
    2e24:	02481400 	subeq	r1, r8, #0, 8
    2e28:	550b0000 	strpl	r0, [fp, #-0]
    2e2c:	e8000002 	stmda	r0, {r1}
    2e30:	02000093 	andeq	r0, r0, #147, 0	; 0x93
    2e34:	00000230 	andeq	r0, r0, r0, lsr r2
    2e38:	15171501 	ldrne	r1, [r7, #-1281]	; 0xfffffaff
    2e3c:	00000230 	andeq	r0, r0, r0, lsr r2
    2e40:	0002660e 	andeq	r6, r2, lr, lsl #12
    2e44:	001fbe00 	andseq	fp, pc, r0, lsl #28
    2e48:	001fbc00 	andseq	fp, pc, r0, lsl #24
    2e4c:	02711600 	rsbseq	r1, r1, #0, 12
    2e50:	93ec0000 	mvnls	r0, #0, 0
    2e54:	50010000 	andpl	r0, r1, r0
    2e58:	01000002 	tsteq	r0, r2
    2e5c:	03f1120d 	mvnseq	r1, #-805306368	; 0xd0000000
    2e60:	f4100000 			; <UNDEFINED> instruction: 0xf4100000
    2e64:	2a000093 	bcs	30b8 <__code_start__-0x4f48>
    2e68:	11000005 	tstne	r0, r5
    2e6c:	77025001 	strvc	r5, [r2, -r1]
    2e70:	12000000 	andne	r0, r0, #0, 0
    2e74:	000093ec 	andeq	r9, r0, ip, ror #7
    2e78:	00000536 	andeq	r0, r0, r6, lsr r5
    2e7c:	00940012 	addseq	r0, r4, r2, lsl r0
    2e80:	00053600 	andeq	r3, r5, r0, lsl #12
    2e84:	00000000 	andeq	r0, r0, r0
    2e88:	020b1d00 	andeq	r1, fp, #0, 26
    2e8c:	94100000 	ldrls	r0, [r0], #-0
    2e90:	00500000 	subseq	r0, r0, r0
    2e94:	9c010000 	stcls	0, cr0, [r1], {-0}
    2e98:	0000052a 	andeq	r0, r0, sl, lsr #10
    2e9c:	0002180c 	andeq	r1, r2, ip, lsl #16
    2ea0:	001fd500 	andseq	sp, pc, r0, lsl #10
    2ea4:	001fd100 	andseq	sp, pc, r0, lsl #2
    2ea8:	02240d00 	eoreq	r0, r4, #0, 26
    2eac:	94200000 	strtls	r0, [r0], #-0
    2eb0:	20000000 	andcs	r0, r0, r0
    2eb4:	40000094 	mulmi	r0, r4, r0
    2eb8:	01000000 	mrseq	r0, (UNDEF: 0)
    2ebc:	310c051c 	tstcc	ip, ip, lsl r5
    2ec0:	f8000002 			; <UNDEFINED> instruction: 0xf8000002
    2ec4:	f600001f 			; <UNDEFINED> instruction: 0xf600001f
    2ec8:	0e00001f 	mcreq	0, 0, r0, cr0, cr15, {0}
    2ecc:	0000023c 	andeq	r0, r0, ip, lsr r2
    2ed0:	0000200d 	andeq	r2, r0, sp
    2ed4:	0000200b 	andeq	r2, r0, fp
    2ed8:	0002550f 	andeq	r5, r2, pc, lsl #10
    2edc:	00942000 	addseq	r2, r4, r0
    2ee0:	94200200 	strtls	r0, [r0], #-512	; 0xfffffe00
    2ee4:	00140000 	andseq	r0, r4, r0
    2ee8:	13010000 	movwne	r0, #4096	; 0x1000
    2eec:	0004bc13 	andeq	fp, r4, r3, lsl ip
    2ef0:	02660e00 	rsbeq	r0, r6, #0, 28
    2ef4:	20240000 	eorcs	r0, r4, r0
    2ef8:	20200000 	eorcs	r0, r0, r0
    2efc:	710f0000 	mrsvc	r0, CPSR
    2f00:	24000002 	strcs	r0, [r0], #-2
    2f04:	01000094 	swpeq	r0, r4, [r0]	; <UNPREDICTABLE>
    2f08:	00009424 	andeq	r9, r0, r4, lsr #8
    2f0c:	0000000c 	andeq	r0, r0, ip
    2f10:	a9120d01 	ldmdbge	r2, {r0, r8, sl, fp}
    2f14:	10000004 	andne	r0, r0, r4
    2f18:	0000942c 	andeq	r9, r0, ip, lsr #8
    2f1c:	0000052a 	andeq	r0, r0, sl, lsr #10
    2f20:	05500111 	ldrbeq	r0, [r0, #-273]	; 0xfffffeef
    2f24:	0030040c 	eorseq	r0, r0, ip, lsl #8
    2f28:	12000020 	andne	r0, r0, #32, 0
    2f2c:	00009424 	andeq	r9, r0, r4, lsr #8
    2f30:	00000536 	andeq	r0, r0, r6, lsr r5
    2f34:	00943412 	addseq	r3, r4, r2, lsl r4
    2f38:	00053600 	andeq	r3, r5, r0, lsl #12
    2f3c:	47130000 	ldrmi	r0, [r3, -r0]
    2f40:	68000002 	stmdavs	r0, {r1}
    2f44:	14000002 	strne	r0, [r0], #-2
    2f48:	00000248 	andeq	r0, r0, r8, asr #4
    2f4c:	0002550b 	andeq	r5, r2, fp, lsl #10
    2f50:	00943800 	addseq	r3, r4, r0, lsl #16
    2f54:	02800200 	addeq	r0, r0, #0, 4
    2f58:	15010000 	strne	r0, [r1, #-0]
    2f5c:	02801517 	addeq	r1, r0, #96468992	; 0x5c00000
    2f60:	660e0000 	strvs	r0, [lr], -r0
    2f64:	44000002 	strmi	r0, [r0], #-2
    2f68:	42000020 	andmi	r0, r0, #32, 0
    2f6c:	16000020 	strne	r0, [r0], -r0, lsr #32
    2f70:	00000271 	andeq	r0, r0, r1, ror r2
    2f74:	0000943c 	andeq	r9, r0, ip, lsr r4
    2f78:	0002a001 	andeq	sl, r2, r1
    2f7c:	120d0100 	andne	r0, sp, #0
    2f80:	00000513 	andeq	r0, r0, r3, lsl r5
    2f84:	00944410 	addseq	r4, r4, r0, lsl r4
    2f88:	00052a00 	andeq	r2, r5, r0, lsl #20
    2f8c:	50011100 	andpl	r1, r1, r0, lsl #2
    2f90:	00007702 	andeq	r7, r0, r2, lsl #14
    2f94:	943c1200 	ldrtls	r1, [ip], #-512	; 0xfffffe00
    2f98:	05360000 	ldreq	r0, [r6, #-0]!
    2f9c:	50120000 	andspl	r0, r2, r0
    2fa0:	36000094 			; <UNDEFINED> instruction: 0x36000094
    2fa4:	00000005 	andeq	r0, r0, r5
    2fa8:	00000000 	andeq	r0, r0, r0
    2fac:	00078f1f 	andeq	r8, r7, pc, lsl pc
    2fb0:	00078f00 	andeq	r8, r7, r0, lsl #30
    2fb4:	0ac20200 	beq	ff0837bc <__bss_end__+0xff0790e4>
    2fb8:	0007651f 	andeq	r6, r7, pc, lsl r5
    2fbc:	00076500 	andeq	r6, r7, r0, lsl #10
    2fc0:	069c0200 	ldreq	r0, [ip], r0, lsl #4
    2fc4:	0005cd00 	andeq	ip, r5, r0, lsl #26
    2fc8:	51000400 	tstpl	r0, r0, lsl #8
    2fcc:	04000012 	streq	r0, [r0], #-18	; 0xffffffee
    2fd0:	0008c001 	andeq	ip, r8, r1
    2fd4:	07ff0c00 	ldrbeq	r0, [pc, r0, lsl #24]!
    2fd8:	08700000 	ldmdaeq	r0!, {}^	; <UNPREDICTABLE>
    2fdc:	94b40000 	ldrtls	r0, [r4], #0
    2fe0:	01f00000 	mvnseq	r0, r0
    2fe4:	194b0000 	stmdbne	fp, {}^	; <UNPREDICTABLE>
    2fe8:	04020000 	streq	r0, [r2], #-0
    2fec:	746e6905 	strbtvc	r6, [lr], #-2309	; 0xfffff6fb
    2ff0:	07040300 	streq	r0, [r4, -r0, lsl #6]
    2ff4:	0000009a 	muleq	r0, sl, r0
    2ff8:	00002c04 	andeq	r2, r0, r4, lsl #24
    2ffc:	06010300 	streq	r0, [r1], -r0, lsl #6
    3000:	0000002c 	andeq	r0, r0, ip, lsr #32
    3004:	ee050203 	cdp	2, 0, cr0, cr5, cr3, {0}
    3008:	03000000 	movweq	r0, #0
    300c:	00ac0504 	adceq	r0, ip, r4, lsl #10
    3010:	08030000 	stmdaeq	r3, {}	; <UNPREDICTABLE>
    3014:	0000a705 	andeq	sl, r0, r5, lsl #14
    3018:	08010300 	stmdaeq	r1, {r8, r9}
    301c:	0000002a 	andeq	r0, r0, sl, lsr #32
    3020:	45070203 	strmi	r0, [r7, #-515]	; 0xfffffdfd
    3024:	05000000 	streq	r0, [r0, #-0]
    3028:	00000244 	andeq	r0, r0, r4, asr #4
    302c:	6e193405 	cfmulsvs	mvf3, mvf9, mvf5
    3030:	03000000 	movweq	r0, #0
    3034:	00950704 	addseq	r0, r5, r4, lsl #14
    3038:	08030000 	stmdaeq	r3, {}	; <UNPREDICTABLE>
    303c:	00009007 	andeq	r9, r0, r7
    3040:	08010300 	stmdaeq	r1, {r8, r9}
    3044:	00000033 	andeq	r0, r0, r3, lsr r0
    3048:	54010706 	strpl	r0, [r1], #-1798	; 0xfffff8fa
    304c:	04000000 	streq	r0, [r0], #-0
    3050:	00c20e0c 	sbceq	r0, r2, ip, lsl #28
    3054:	aa070000 	bge	1c305c <__bss_end__+0x1b8984>
    3058:	00000009 	andeq	r0, r0, r9
    305c:	0007e207 	andeq	lr, r7, r7, lsl #4
    3060:	25070100 	strcs	r0, [r7, #-256]	; 0xffffff00
    3064:	04000008 	streq	r0, [r0], #-8
    3068:	00083407 	andeq	r3, r8, r7, lsl #8
    306c:	43070500 	movwmi	r0, #29952	; 0x7500
    3070:	06000008 	streq	r0, [r0], -r8
    3074:	00085207 	andeq	r5, r8, r7, lsl #4
    3078:	73070700 	movwvc	r0, #30464	; 0x7700
    307c:	03000009 	movweq	r0, #9
    3080:	00086107 	andeq	r6, r8, r7, lsl #2
    3084:	08000200 	stmdaeq	r0, {r9}
    3088:	000007f3 	strdeq	r0, [r0], -r3
    308c:	0806022c 	stmdaeq	r6, {r2, r3, r5, r9}
    3090:	0000015e 	andeq	r0, r0, lr, asr r1
    3094:	006f6909 	rsbeq	r6, pc, r9, lsl #18
    3098:	33090902 	movwcc	r0, #39170	; 0x9902
    309c:	00000000 	andeq	r0, r0, r0
    30a0:	72656909 	rsbvc	r6, r5, #147456	; 0x24000
    30a4:	090a0200 	stmdbeq	sl, {r9}
    30a8:	00000033 	andeq	r0, r0, r3, lsr r0
    30ac:	69690904 	stmdbvs	r9!, {r2, r8, fp}^
    30b0:	11020072 	tstne	r2, r2, ror r0
    30b4:	00003309 	andeq	r3, r0, r9, lsl #6
    30b8:	6c090800 	stcvs	8, cr0, [r9], {-0}
    30bc:	02007263 	andeq	r7, r0, #805306374	; 0x30000006
    30c0:	00330913 	eorseq	r0, r3, r3, lsl r9
    30c4:	090c0000 	stmdbeq	ip, {}	; <UNPREDICTABLE>
    30c8:	0072636d 	rsbseq	r6, r2, sp, ror #6
    30cc:	33091402 	movwcc	r1, #37890	; 0x9402
    30d0:	10000000 	andne	r0, r0, r0
    30d4:	72736c09 	rsbsvc	r6, r3, #2304	; 0x900
    30d8:	09150200 	ldmdbeq	r5, {r9}
    30dc:	00000033 	andeq	r0, r0, r3, lsr r0
    30e0:	736d0914 	cmnvc	sp, #20, 18	; 0x50000
    30e4:	16020072 			; <UNDEFINED> instruction: 0x16020072
    30e8:	00003309 	andeq	r3, r0, r9, lsl #6
    30ec:	8a0a1800 	bhi	2890f4 <__bss_end__+0x27ea1c>
    30f0:	02000009 	andeq	r0, r0, #9, 0
    30f4:	00330917 	eorseq	r0, r3, r7, lsl r9
    30f8:	0a1c0000 	beq	703100 <__bss_end__+0x6f8a28>
    30fc:	00000953 	andeq	r0, r0, r3, asr r9
    3100:	33091b02 	movwcc	r1, #39682	; 0x9b02
    3104:	20000000 	andcs	r0, r0, r0
    3108:	0007cf0a 	andeq	ip, r7, sl, lsl #30
    310c:	091d0200 	ldmdbeq	sp, {r9}
    3110:	00000033 	andeq	r0, r0, r3, lsr r0
    3114:	08a50a24 	stmiaeq	r5!, {r2, r5, r9, fp}
    3118:	1e020000 	cdpne	0, 0, cr0, cr2, cr0, {0}
    311c:	00003309 	andeq	r3, r0, r9, lsl #6
    3120:	0b002800 	bleq	d128 <__bss_end__+0x2a50>
    3124:	000008aa 	andeq	r0, r0, sl, lsr #17
    3128:	74090801 	strvc	r0, [r9], #-2049	; 0xfffff7ff
    312c:	04000001 	streq	r0, [r0], #-1
    3130:	0c202150 	stfeqs	f2, [r0], #-320	; 0xfffffec0
    3134:	00003304 	andeq	r3, r0, r4, lsl #6
    3138:	016e0d00 	cmneq	lr, r0, lsl #26
    313c:	920b0000 	andls	r0, fp, #0, 0
    3140:	01000009 	tsteq	r0, r9
    3144:	018f2329 	orreq	r2, pc, r9, lsr #6
    3148:	50400000 	subpl	r0, r0, r0
    314c:	040c2021 	streq	r2, [ip], #-33	; 0xffffffdf
    3150:	000000c2 	andeq	r0, r0, r2, asr #1
    3154:	0001890d 	andeq	r8, r1, sp, lsl #18
    3158:	067d0e00 	ldrbteq	r0, [sp], -r0, lsl #28
    315c:	cc010000 	stcgt	0, cr0, [r1], {-0}
    3160:	00966c06 	addseq	r6, r6, r6, lsl #24
    3164:	00001400 	andeq	r1, r0, r0, lsl #8
    3168:	b49c0100 	ldrlt	r0, [ip], #256	; 0x100
    316c:	0f000001 	svceq	0x00000001
    3170:	00009674 	andeq	r9, r0, r4, ror r6
    3174:	000001b4 			; <UNDEFINED> instruction: 0x000001b4
    3178:	08141000 	ldmdaeq	r4, {ip}
    317c:	b6010000 	strlt	r0, [r1], -r0
    3180:	00002505 	andeq	r2, r0, r5, lsl #10
    3184:	00964c00 	addseq	r4, r6, r0, lsl #24
    3188:	00002000 	andeq	r2, r0, r0
    318c:	eb9c0100 	bl	fe703594 <__bss_end__+0xfe6f8ebc>
    3190:	0f000001 	svceq	0x00000001
    3194:	00009654 	andeq	r9, r0, r4, asr r6
    3198:	000005a0 	andeq	r0, r0, r0, lsr #11
    319c:	00965c11 	addseq	r5, r6, r1, lsl ip
    31a0:	0005ac00 	andeq	sl, r5, r0, lsl #24
    31a4:	50011200 	andpl	r1, r1, r0, lsl #4
    31a8:	50640c05 	rsbpl	r0, r4, r5, lsl #24
    31ac:	00002021 	andeq	r2, r0, r1, lsr #32
    31b0:	00096510 	andeq	r6, r9, r0, lsl r5
    31b4:	05b30100 	ldreq	r0, [r3, #256]!	; 0x100
    31b8:	00000025 	andeq	r0, r0, r5, lsr #32
    31bc:	0000963c 	andeq	r9, r0, ip, lsr r6
    31c0:	00000010 	andeq	r0, r0, r0, lsl r0
    31c4:	02189c01 	andseq	r9, r8, #256	; 0x100
    31c8:	440f0000 	strmi	r0, [pc], #-0	; 31d0 <__code_start__-0x4e30>
    31cc:	a0000096 	mulge	r0, r6, r0
    31d0:	0f000005 	svceq	0x00000005
    31d4:	00009648 	andeq	r9, r0, r8, asr #12
    31d8:	00000309 	andeq	r0, r0, r9, lsl #6
    31dc:	09a00e00 	stmibeq	r0!, {r9, sl, fp}
    31e0:	ab010000 	blge	431e8 <__bss_end__+0x38b10>
    31e4:	00960c06 	addseq	r0, r6, r6, lsl #24
    31e8:	00003000 	andeq	r3, r0, r0
    31ec:	7c9c0100 	ldfvcs	f0, [ip], {0}
    31f0:	13000002 	movwne	r0, #2
    31f4:	ab010063 	blge	43388 <__bss_end__+0x38cb0>
    31f8:	00002c19 	andeq	r2, r0, r9, lsl ip
    31fc:	00205b00 	eoreq	r5, r0, r0, lsl #22
    3200:	00205700 	eoreq	r5, r0, r0, lsl #14
    3204:	96180f00 	ldrls	r0, [r8], -r0, lsl #30
    3208:	05a00000 	streq	r0, [r0, #0]!
    320c:	1c0f0000 	stcne	0, cr0, [pc], {-0}
    3210:	db000096 	blle	3470 <__code_start__-0x4b90>
    3214:	14000002 	strne	r0, [r0], #-2
    3218:	00009630 	andeq	r9, r0, r0, lsr r6
    321c:	000005b8 			; <UNDEFINED> instruction: 0x000005b8
    3220:	00000272 	andeq	r0, r0, r2, ror r2
    3224:	05500112 	ldrbeq	r0, [r0, #-274]	; 0xfffffeee
    3228:	2150400c 	cmpcs	r0, ip
    322c:	51011220 	tstpl	r1, r0, lsr #4
    3230:	08007405 	stmdaeq	r0, {r0, r2, sl, ip, sp, lr}
    3234:	0f001aff 	svceq	0x00001aff
    3238:	00009634 	andeq	r9, r0, r4, lsr r6
    323c:	000005a0 	andeq	r0, r0, r0, lsr #11
    3240:	08b61000 	ldmeq	r6!, {ip}
    3244:	a3010000 	movwge	r0, #4096	; 0x1000
    3248:	00002505 	andeq	r2, r0, r5, lsl #10
    324c:	0095dc00 	addseq	sp, r5, r0, lsl #24
    3250:	00003000 	andeq	r3, r0, r0
    3254:	db9c0100 	blle	fe70365c <__bss_end__+0xfe6f8f84>
    3258:	15000002 	strne	r0, [r0, #-2]
    325c:	a7010063 	strge	r0, [r1, -r3, rrx]
    3260:	00002509 	andeq	r2, r0, r9, lsl #10
    3264:	00207b00 	eoreq	r7, r0, r0, lsl #22
    3268:	00207900 	eoreq	r7, r0, r0, lsl #18
    326c:	95e40f00 	strbls	r0, [r4, #3840]!	; 0xf00
    3270:	05a00000 	streq	r0, [r0, #0]!
    3274:	e80f0000 	stmda	pc, {}	; <UNPREDICTABLE>
    3278:	09000095 	stmdbeq	r0, {r0, r2, r4, r7}
    327c:	14000003 	strne	r0, [r0], #-3
    3280:	000095f8 	strdeq	r9, [r0], -r8
    3284:	000005ac 	andeq	r0, r0, ip, lsr #11
    3288:	000002d1 	ldrdeq	r0, [r0], -r1
    328c:	05500112 	ldrbeq	r0, [r0, #-274]	; 0xfffffeee
    3290:	2150400c 	cmpcs	r0, ip
    3294:	000f0020 	andeq	r0, pc, r0, lsr #32
    3298:	a0000096 	mulge	r0, r6, r0
    329c:	00000005 	andeq	r0, r0, r5
    32a0:	00080610 	andeq	r0, r8, r0, lsl r6
    32a4:	05940100 	ldreq	r0, [r4, #256]	; 0x100
    32a8:	00000025 	andeq	r0, r0, r5, lsr #32
    32ac:	000095bc 			; <UNDEFINED> instruction: 0x000095bc
    32b0:	00000020 	andeq	r0, r0, r0, lsr #32
    32b4:	03099c01 	movweq	r9, #39937	; 0x9c01
    32b8:	c8110000 	ldmdagt	r1, {}	; <UNPREDICTABLE>
    32bc:	ac000095 	stcge	0, cr0, [r0], {149}	; 0x95
    32c0:	12000005 	andne	r0, r0, #5, 0
    32c4:	0c055001 	stceq	0, cr5, [r5], {1}
    32c8:	20215064 	eorcs	r5, r1, r4, rrx
    32cc:	d4100000 	ldrle	r0, [r0], #-0
    32d0:	01000007 	tsteq	r0, r7
    32d4:	0025058b 	eoreq	r0, r5, fp, lsl #11
    32d8:	95a40000 	strls	r0, [r4, #0]!
    32dc:	00180000 	andseq	r0, r8, r0
    32e0:	9c010000 	stcls	0, cr0, [r1], {-0}
    32e4:	00000337 	andeq	r0, r0, r7, lsr r3
    32e8:	0095b011 	addseq	fp, r5, r1, lsl r0
    32ec:	0005ac00 	andeq	sl, r5, r0, lsl #24
    32f0:	50011200 	andpl	r1, r1, r0, lsl #4
    32f4:	50640c05 	rsbpl	r0, r4, r5, lsl #24
    32f8:	00002021 	andeq	r2, r0, r1, lsr #32
    32fc:	00069b0e 	andeq	r9, r6, lr, lsl #22
    3300:	06450100 	strbeq	r0, [r5], -r0, lsl #2
    3304:	000094f4 	strdeq	r9, [r0], -r4
    3308:	000000b0 	strheq	r0, [r0], -r0	; <UNPREDICTABLE>
    330c:	04849c01 	streq	r9, [r4], #3073	; 0xc01
    3310:	c6160000 	ldrgt	r0, [r6], -r0
    3314:	01000007 	tsteq	r0, r7
    3318:	00620e7e 	rsbeq	r0, r2, lr, ror lr
    331c:	010e0000 	mrseq	r0, (UNDEF: 14)
    3320:	00950414 	addseq	r0, r5, r4, lsl r4
    3324:	0005c400 	andeq	ip, r5, r0, lsl #8
    3328:	00037300 	andeq	r7, r3, r0, lsl #6
    332c:	50011200 	andpl	r1, r1, r0, lsl #4
    3330:	01123e01 	tsteq	r2, r1, lsl #28
    3334:	00320151 	eorseq	r0, r2, r1, asr r1
    3338:	00951014 	addseq	r1, r5, r4, lsl r0
    333c:	0005c400 	andeq	ip, r5, r0, lsl #8
    3340:	00038b00 	andeq	r8, r3, r0, lsl #22
    3344:	50011200 	andpl	r1, r1, r0, lsl #4
    3348:	01123f01 	tsteq	r2, r1, lsl #30
    334c:	00320151 	eorseq	r0, r2, r1, asr r1
    3350:	0095140f 	addseq	r1, r5, pc, lsl #8
    3354:	0005a000 	andeq	sl, r5, r0
    3358:	95201400 	strls	r1, [r0, #-1024]!	; 0xfffffc00
    335c:	053d0000 	ldreq	r0, [sp, #-0]!
    3360:	03b00000 	movseq	r0, #0, 0
    3364:	01120000 	tsteq	r2, r0
    3368:	040c0550 	streq	r0, [ip], #-1360	; 0xfffffab0
    336c:	12202150 	eorne	r2, r0, #20
    3370:	31015101 	tstcc	r1, r1, lsl #2
    3374:	95240f00 	strls	r0, [r4, #-3840]!	; 0xfffff100
    3378:	05a00000 	streq	r0, [r0, #0]!
    337c:	34140000 	ldrcc	r0, [r4], #-0
    3380:	b8000095 	stmdalt	r0, {r0, r2, r4, r7}
    3384:	d2000005 	andle	r0, r0, #5, 0
    3388:	12000003 	andne	r0, r0, #3, 0
    338c:	74025001 	strvc	r5, [r2], #-1
    3390:	51011200 	mrspl	r1, R9_usr
    3394:	14003001 	strne	r3, [r0], #-1
    3398:	00009540 	andeq	r9, r0, r0, asr #10
    339c:	000005b8 			; <UNDEFINED> instruction: 0x000005b8
    33a0:	000003ee 	andeq	r0, r0, lr, ror #7
    33a4:	05500112 	ldrbeq	r0, [r0, #-274]	; 0xfffffeee
    33a8:	2150440c 	cmpcs	r0, ip, lsl #8
    33ac:	51011220 	tstpl	r1, r0, lsr #4
    33b0:	14003001 	strne	r3, [r0], #-1
    33b4:	0000954c 	andeq	r9, r0, ip, asr #10
    33b8:	000005b8 			; <UNDEFINED> instruction: 0x000005b8
    33bc:	0000040a 	andeq	r0, r0, sl, lsl #8
    33c0:	05500112 	ldrbeq	r0, [r0, #-274]	; 0xfffffeee
    33c4:	21504c0c 	cmpcs	r0, ip, lsl #24
    33c8:	51011220 	tstpl	r1, r0, lsr #4
    33cc:	14003301 	strne	r3, [r0], #-769	; 0xfffffcff
    33d0:	00009558 	andeq	r9, r0, r8, asr r5
    33d4:	000005b8 			; <UNDEFINED> instruction: 0x000005b8
    33d8:	00000426 	andeq	r0, r0, r6, lsr #8
    33dc:	05500112 	ldrbeq	r0, [r0, #-274]	; 0xfffffeee
    33e0:	2150500c 	cmpcs	r0, ip
    33e4:	51011220 	tstpl	r1, r0, lsr #4
    33e8:	14003001 	strne	r3, [r0], #-1
    33ec:	00009564 	andeq	r9, r0, r4, ror #10
    33f0:	000005b8 			; <UNDEFINED> instruction: 0x000005b8
    33f4:	00000443 	andeq	r0, r0, r3, asr #8
    33f8:	05500112 	ldrbeq	r0, [r0, #-274]	; 0xfffffeee
    33fc:	2150480c 	cmpcs	r0, ip, lsl #16
    3400:	51011220 	tstpl	r1, r0, lsr #4
    3404:	00c70802 	sbceq	r0, r7, r2, lsl #16
    3408:	00957014 	addseq	r7, r5, r4, lsl r0
    340c:	0005b800 	andeq	fp, r5, r0, lsl #16
    3410:	00046100 	andeq	r6, r4, r0, lsl #2
    3414:	50011200 	andpl	r1, r1, r0, lsl #4
    3418:	50680c05 	rsbpl	r0, r8, r5, lsl #24
    341c:	01122021 	tsteq	r2, r1, lsr #32
    3420:	0e0a0351 	mcreq	3, 0, r0, cr10, cr1, {2}
    3424:	7c140001 	ldcvc	0, cr0, [r4], {1}
    3428:	b8000095 	stmdalt	r0, {r0, r2, r4, r7}
    342c:	7a000005 	bvc	3448 <__code_start__-0x4bb8>
    3430:	12000004 	andne	r0, r0, #4, 0
    3434:	74025001 	strvc	r5, [r2], #-1
    3438:	51011200 	mrspl	r1, R9_usr
    343c:	0f003301 	svceq	0x00003301
    3440:	00009580 	andeq	r9, r0, r0, lsl #11
    3444:	000005a0 	andeq	r0, r0, r0, lsr #11
    3448:	09580e00 	ldmdbeq	r8, {r9, sl, fp}^
    344c:	35010000 	strcc	r0, [r1, #-0]
    3450:	00968006 	addseq	r8, r6, r6
    3454:	00002400 	andeq	r2, r0, r0, lsl #8
    3458:	d39c0100 	orrsle	r0, ip, #0
    345c:	0f000004 	svceq	0x00000004
    3460:	00009688 	andeq	r9, r0, r8, lsl #13
    3464:	00000194 	muleq	r0, r4, r1
    3468:	00968c0f 	addseq	r8, r6, pc, lsl #24
    346c:	0005a000 	andeq	sl, r5, r0
    3470:	96981400 	ldrls	r1, [r8], r0, lsl #8
    3474:	04d30000 	ldrbeq	r0, [r3], #0
    3478:	04c90000 	strbeq	r0, [r9], #0
    347c:	01120000 	tsteq	r2, r0
    3480:	040c0550 	streq	r0, [ip], #-1360	; 0xfffffab0
    3484:	12202150 	eorne	r2, r0, #20
    3488:	09025101 	stmdbeq	r2, {r0, r8, ip, lr}
    348c:	9c0f00fe 	stcls	0, cr0, [pc], {254}	; 0xfe
    3490:	a0000096 	mulge	r0, r6, r0
    3494:	00000005 	andeq	r0, r0, r5
    3498:	00099717 	andeq	r9, r9, r7, lsl r7
    349c:	0d310100 	ldfeqs	f0, [r1, #-0]
    34a0:	000094b4 			; <UNDEFINED> instruction: 0x000094b4
    34a4:	00000020 	andeq	r0, r0, r0, lsr #32
    34a8:	05369c01 	ldreq	r9, [r6, #-3073]!	; 0xfffff3ff
    34ac:	f1180000 			; <UNDEFINED> instruction: 0xf1180000
    34b0:	01000009 	tsteq	r0, r9
    34b4:	05362531 	ldreq	r2, [r6, #-1329]!	; 0xfffffacf
    34b8:	20920000 	addscs	r0, r2, r0
    34bc:	208e0000 	addcs	r0, lr, r0
    34c0:	76130000 	ldrvc	r0, [r3], -r0
    34c4:	01006c61 	tsteq	r0, r1, ror #24
    34c8:	002c3431 	eoreq	r3, ip, r1, lsr r4
    34cc:	20b40000 	adcscs	r0, r4, r0
    34d0:	20b00000 	adcscs	r0, r0, r0
    34d4:	c4140000 	ldrgt	r0, [r4], #-0
    34d8:	ac000094 	stcge	0, cr0, [r0], {148}	; 0x94
    34dc:	25000005 	strcs	r0, [r0, #-5]
    34e0:	12000005 	andne	r0, r0, #5, 0
    34e4:	74025001 	strvc	r5, [r2], #-1
    34e8:	d0110000 	andsle	r0, r1, r0
    34ec:	b8000094 	stmdalt	r0, {r2, r4, r7}
    34f0:	12000005 	andne	r0, r0, #5, 0
    34f4:	74025001 	strvc	r5, [r2], #-1
    34f8:	0c000000 	stceq	0, cr0, [r0], {-0}
    34fc:	00053c04 	andeq	r3, r5, r4, lsl #24
    3500:	82171900 	andshi	r1, r7, #0, 18
    3504:	01000009 	tsteq	r0, r9
    3508:	94d40d2e 	ldrbls	r0, [r4], #3374	; 0xd2e
    350c:	00200000 	eoreq	r0, r0, r0
    3510:	9c010000 	stcls	0, cr0, [r1], {-0}
    3514:	000005a0 	andeq	r0, r0, r0, lsr #11
    3518:	0009f118 	andeq	pc, r9, r8, lsl r1	; <UNPREDICTABLE>
    351c:	242e0100 	strtcs	r0, [lr], #-256	; 0xffffff00
    3520:	00000536 	andeq	r0, r0, r6, lsr r5
    3524:	000020d6 	ldrdeq	r2, [r0], -r6
    3528:	000020d2 	ldrdeq	r2, [r0], -r2	; <UNPREDICTABLE>
    352c:	6c617613 	stclvs	6, cr7, [r1], #-76	; 0xffffffb4
    3530:	332e0100 			; <UNDEFINED> instruction: 0x332e0100
    3534:	0000002c 	andeq	r0, r0, ip, lsr #32
    3538:	000020f8 	strdeq	r2, [r0], -r8
    353c:	000020f4 	strdeq	r2, [r0], -r4
    3540:	0094e414 	addseq	lr, r4, r4, lsl r4
    3544:	0005ac00 	andeq	sl, r5, r0, lsl #24
    3548:	00058f00 	andeq	r8, r5, r0, lsl #30
    354c:	50011200 	andpl	r1, r1, r0, lsl #4
    3550:	00007402 	andeq	r7, r0, r2, lsl #8
    3554:	0094f011 	addseq	pc, r4, r1, lsl r0	; <UNPREDICTABLE>
    3558:	0005b800 	andeq	fp, r5, r0, lsl #16
    355c:	50011200 	andpl	r1, r1, r0, lsl #4
    3560:	00007402 	andeq	r7, r0, r2, lsl #8
    3564:	07651a00 	strbeq	r1, [r5, -r0, lsl #20]!
    3568:	07650000 	strbeq	r0, [r5, -r0]!
    356c:	9c030000 	stcls	0, cr0, [r3], {-0}
    3570:	09cc1a06 	stmibeq	ip, {r1, r2, r9, fp, ip}^
    3574:	09cc0000 	stmibeq	ip, {}^	; <UNPREDICTABLE>
    3578:	c3030000 	movwgt	r0, #12288	; 0x3000
    357c:	07c01a0b 	strbeq	r1, [r0, fp, lsl #20]
    3580:	07c00000 	strbeq	r0, [r0, r0]
    3584:	ae030000 	cdpge	0, 0, cr0, cr3, cr0, {0}
    3588:	09ba1a06 	ldmibeq	sl!, {r1, r2, r9, fp, ip}
    358c:	09ba0000 	ldmibeq	sl!, {}	; <UNPREDICTABLE>
    3590:	19040000 	stmdbne	r4, {}	; <UNPREDICTABLE>
    3594:	08e90006 	stmiaeq	r9!, {r1, r2}^
    3598:	00040000 	andeq	r0, r4, r0
    359c:	000013e9 	andeq	r1, r0, r9, ror #7
    35a0:	08c00104 	stmiaeq	r0, {r2, r8}^
    35a4:	610c0000 	mrsvs	r0, (UNDEF: 12)
    35a8:	7000000a 	andvc	r0, r0, sl
    35ac:	a4000008 	strge	r0, [r0], #-8
    35b0:	b0000096 	mullt	r0, r6, r0
    35b4:	53000003 	movwpl	r0, #3
    35b8:	0200001b 	andeq	r0, r0, #27, 0
    35bc:	6e690504 	cdpvs	5, 6, cr0, cr9, cr4, {0}
    35c0:	04030074 	streq	r0, [r3], #-116	; 0xffffff8c
    35c4:	00009a07 	andeq	r9, r0, r7, lsl #20
    35c8:	06010300 	streq	r0, [r1], -r0, lsl #6
    35cc:	0000002c 	andeq	r0, r0, ip, lsr #32
    35d0:	ee050203 	cdp	2, 0, cr0, cr5, cr3, {0}
    35d4:	03000000 	movweq	r0, #0
    35d8:	00ac0504 	adceq	r0, ip, r4, lsl #10
    35dc:	08030000 	stmdaeq	r3, {}	; <UNPREDICTABLE>
    35e0:	0000a705 	andeq	sl, r0, r5, lsl #14
    35e4:	08010300 	stmdaeq	r1, {r8, r9}
    35e8:	0000002a 	andeq	r0, r0, sl, lsr #32
    35ec:	45070203 	strmi	r0, [r7, #-515]	; 0xfffffdfd
    35f0:	04000000 	streq	r0, [r0], #-0
    35f4:	00000244 	andeq	r0, r0, r4, asr #4
    35f8:	69193403 	ldmdbvs	r9, {r0, r1, sl, ip, sp}
    35fc:	03000000 	movweq	r0, #0
    3600:	00950704 	addseq	r0, r5, r4, lsl #14
    3604:	08030000 	stmdaeq	r3, {}	; <UNPREDICTABLE>
    3608:	00009007 	andeq	r9, r0, r7
    360c:	08010300 	stmdaeq	r1, {r8, r9}
    3610:	00000033 	andeq	r0, r0, r3, lsr r0
    3614:	00007705 	andeq	r7, r0, r5, lsl #14
    3618:	04080300 	streq	r0, [r8], #-768	; 0xfffffd00
    361c:	000002f5 	strdeq	r0, [r0], -r5
    3620:	07070406 	streq	r0, [r7, -r6, lsl #8]
    3624:	00002c04 	andeq	r2, r0, r4, lsl #24
    3628:	061f0100 	ldreq	r0, [pc], -r0, lsl #2
    362c:	000000a4 	andeq	r0, r0, r4, lsr #1
    3630:	0009f608 	andeq	pc, r9, r8, lsl #12
    3634:	20000000 	andcs	r0, r0, r0
    3638:	c6090000 	strgt	r0, [r9], -r0
    363c:	01000005 	tsteq	r0, r5
    3640:	00770d22 	rsbseq	r0, r7, r2, lsr #26
    3644:	110a0000 	mrsne	r0, (UNDEF: 10)
    3648:	0100000a 	tsteq	r0, sl
    364c:	00c20e23 	sbceq	r0, r2, r3, lsr #28
    3650:	03050000 	movweq	r0, #20480	; 0x5000
    3654:	0000a2a8 	andeq	sl, r0, r8, lsr #5
    3658:	0077040b 	rsbseq	r0, r7, fp, lsl #8
    365c:	da0a0000 	ble	283664 <__bss_end__+0x278f8c>
    3660:	01000009 	tsteq	r0, r9
    3664:	00c20e24 	sbceq	r0, r2, r4, lsr #28
    3668:	03050000 	movweq	r0, #20480	; 0x5000
    366c:	0000a2ac 	andeq	sl, r0, ip, lsr #5
    3670:	000a400a 	andeq	r4, sl, sl
    3674:	0e250100 	sufeqs	f0, f5, f0
    3678:	000000c2 	andeq	r0, r0, r2, asr #1
    367c:	a2b00305 	adcsge	r0, r0, #335544320	; 0x14000000
    3680:	160c0000 	strne	r0, [ip], -r0
    3684:	0100000a 	tsteq	r0, sl
    3688:	99f40675 	ldmibls	r4!, {r0, r2, r4, r5, r6, r9, sl}^
    368c:	00600000 	rsbeq	r0, r0, r0
    3690:	9c010000 	stcls	0, cr0, [r1], {-0}
    3694:	00000164 	andeq	r0, r0, r4, ror #2
    3698:	0100700d 	tsteq	r0, sp
    369c:	008a1675 	addeq	r1, sl, r5, ror r6
    36a0:	211c0000 	tstcs	ip, r0
    36a4:	21160000 	tstcs	r6, r0
    36a8:	6f0e0000 	svcvs	0x000e0000
    36ac:	74000000 	strvc	r0, [r0], #-0
    36b0:	05000001 	streq	r0, [r0, #-1]
    36b4:	00a29803 	adceq	r9, r2, r3, lsl #16
    36b8:	9a400f00 	bls	10072c0 <__bss_end__+0xffcbe8>
    36bc:	08bc0000 	ldmeq	ip!, {}	; <UNPREDICTABLE>
    36c0:	015a0000 	cmpeq	sl, r0
    36c4:	01100000 	tsteq	r0, r0
    36c8:	10030550 	andne	r0, r3, r0, asr r5
    36cc:	100000a2 	andne	r0, r0, r2, lsr #1
    36d0:	03055101 	movweq	r5, #20737	; 0x5101
    36d4:	0000a0a8 	andeq	sl, r0, r8, lsr #1
    36d8:	05520110 	ldrbeq	r0, [r2, #-272]	; 0xfffffef0
    36dc:	00a29803 	adceq	r9, r2, r3, lsl #16
    36e0:	53011000 	movwpl	r1, #4096	; 0x1000
    36e4:	10770802 	rsbsne	r0, r7, r2, lsl #16
    36e8:	03007d02 	movweq	r7, #3330	; 0xd02
    36ec:	005001f3 	ldrsheq	r0, [r0], #-19	; 0xffffffed
    36f0:	009a4411 	addseq	r4, sl, r1, lsl r4
    36f4:	0008c800 	andeq	ip, r8, r0, lsl #16
    36f8:	7e120000 	cdpvc	0, 1, cr0, cr2, cr0, {0}
    36fc:	74000000 	strvc	r0, [r0], #-0
    3700:	13000001 	movwne	r0, #1
    3704:	0000002c 	andeq	r0, r0, ip, lsr #32
    3708:	64050009 	strvs	r0, [r5], #-9
    370c:	14000001 	strne	r0, [r0], #-1
    3710:	000009ff 	strdeq	r0, [r0], -pc	; <UNPREDICTABLE>
    3714:	e0067201 	and	r7, r6, r1, lsl #4
    3718:	14000099 	strne	r0, [r0], #-153	; 0xffffff67
    371c:	01000000 	mrseq	r0, (UNDEF: 0)
    3720:	00e80c9c 	smlaleq	r0, r8, ip, ip
    3724:	6f010000 	svcvs	0x00010000
    3728:	0099dc06 	addseq	sp, r9, r6, lsl #24
    372c:	00000400 	andeq	r0, r0, r0, lsl #8
    3730:	ae9c0100 	fmlgee	f0, f4, f0
    3734:	15000001 	strne	r0, [r0, #-1]
    3738:	6f010070 	svcvs	0x00010070
    373c:	00008a12 	andeq	r8, r0, r2, lsl sl
    3740:	00500100 	subseq	r0, r0, r0, lsl #2
    3744:	000aa316 	andeq	sl, sl, r6, lsl r3
    3748:	075e0100 	ldrbeq	r0, [lr, -r0, lsl #2]
    374c:	0000008a 	andeq	r0, r0, sl, lsl #1
    3750:	000098c4 	andeq	r9, r0, r4, asr #17
    3754:	00000118 	andeq	r0, r0, r8, lsl r1
    3758:	042c9c01 	strteq	r9, [ip], #-3073	; 0xfffff3ff
    375c:	b3170000 	tstlt	r7, #0, 0
    3760:	01000002 	tsteq	r0, r2
    3764:	002c205e 	eoreq	r2, ip, lr, asr r0
    3768:	215d0000 	cmpcs	sp, r0
    376c:	21490000 	mrscs	r0, (UNDEF: 73)
    3770:	20170000 	andscs	r0, r7, r0
    3774:	0100000a 	tsteq	r0, sl
    3778:	002c315e 	eoreq	r3, ip, lr, asr r1
    377c:	21f60000 	mvnscs	r0, r0
    3780:	21e20000 	mvncs	r0, r0
    3784:	6f0e0000 	svcvs	0x000e0000
    3788:	3c000000 	stccc	0, cr0, [r0], {-0}
    378c:	05000004 	streq	r0, [r0, #-4]
    3790:	00a28003 	adceq	r8, r2, r3
    3794:	00681800 	rsbeq	r1, r8, r0, lsl #16
    3798:	2c0e6601 	stccs	6, cr6, [lr], {1}
    379c:	ac000000 	stcge	0, cr0, [r0], {-0}
    37a0:	a0000022 	andge	r0, r0, r2, lsr #32
    37a4:	19000022 	stmdbne	r0, {r1, r5}
    37a8:	00000854 	andeq	r0, r0, r4, asr r8
    37ac:	000098d4 	ldrdeq	r9, [r0], -r4
    37b0:	0098d404 	addseq	sp, r8, r4, lsl #8
    37b4:	00000400 	andeq	r0, r0, r0, lsl #8
    37b8:	05600100 	strbeq	r0, [r0, #-256]!	; 0xffffff00
    37bc:	00000238 	andeq	r0, r0, r8, lsr r2
    37c0:	0008651a 	andeq	r6, r8, sl, lsl r5
    37c4:	00230000 	eoreq	r0, r3, r0
    37c8:	0022fe00 	eoreq	pc, r2, r0, lsl #28
    37cc:	96190000 	ldrls	r0, [r9], -r0
    37d0:	e0000008 	and	r0, r0, r8
    37d4:	02000098 	andeq	r0, r0, #152, 0	; 0x98
    37d8:	000098e0 	andeq	r9, r0, r0, ror #17
    37dc:	00000008 	andeq	r0, r0, r8
    37e0:	6c116101 	ldfvss	f6, [r1], {1}
    37e4:	1a000002 	bne	37f4 <__code_start__-0x480c>
    37e8:	000008b1 			; <UNDEFINED> instruction: 0x000008b1
    37ec:	00002315 	andeq	r2, r0, r5, lsl r3
    37f0:	00002313 	andeq	r2, r0, r3, lsl r3
    37f4:	0008a71a 	andeq	sl, r8, sl, lsl r7
    37f8:	00232b00 	eoreq	r2, r3, r0, lsl #22
    37fc:	00232900 	eoreq	r2, r3, r0, lsl #18
    3800:	1f1b0000 	svcne	0x001b0000
    3804:	f0000008 			; <UNDEFINED> instruction: 0xf0000008
    3808:	01000098 	swpeq	r0, r8, [r0]	; <UNPREDICTABLE>
    380c:	00000338 	andeq	r0, r0, r8, lsr r3
    3810:	0a096701 	beq	25d41c <__bss_end__+0x252d44>
    3814:	1a000003 	bne	3828 <__code_start__-0x47d8>
    3818:	0000083a 	andeq	r0, r0, sl, lsr r8
    381c:	00002344 	andeq	r2, r0, r4, asr #6
    3820:	0000233e 	andeq	r2, r0, lr, lsr r3
    3824:	0008301a 	andeq	r3, r8, sl, lsl r0
    3828:	00238b00 	eoreq	r8, r3, r0, lsl #22
    382c:	00238300 	eoreq	r8, r3, r0, lsl #6
    3830:	03381c00 	teqeq	r8, #0, 24
    3834:	54190000 	ldrpl	r0, [r9], #-0
    3838:	f0000008 			; <UNDEFINED> instruction: 0xf0000008
    383c:	04000098 	streq	r0, [r0], #-152	; 0xffffff68
    3840:	000098f0 	strdeq	r9, [r0], -r0
    3844:	00000004 	andeq	r0, r0, r4
    3848:	c7051101 	strgt	r1, [r5, -r1, lsl #2]
    384c:	1a000002 	bne	385c <__code_start__-0x47a4>
    3850:	00000865 	andeq	r0, r0, r5, ror #16
    3854:	000023c9 	andeq	r2, r0, r9, asr #7
    3858:	000023c7 	andeq	r2, r0, r7, asr #7
    385c:	99880f00 	stmibls	r8, {r8, r9, sl, fp}
    3860:	08bc0000 	ldmeq	ip!, {}	; <UNPREDICTABLE>
    3864:	02ff0000 	rscseq	r0, pc, #0, 0
    3868:	01100000 	tsteq	r0, r0
    386c:	94030550 	strls	r0, [r3], #-1360	; 0xfffffab0
    3870:	1000009d 	mulne	r0, sp, r0
    3874:	03055101 	movweq	r5, #20737	; 0x5101
    3878:	0000a0a8 	andeq	sl, r0, r8, lsr #1
    387c:	05520110 	ldrbeq	r0, [r2, #-272]	; 0xfffffef0
    3880:	00a29003 	adceq	r9, r2, r3
    3884:	53011000 	movwpl	r1, #4096	; 0x1000
    3888:	02104101 	andseq	r4, r0, #1073741824	; 0x40000000
    388c:	0305007d 	movweq	r0, #20605	; 0x507d
    3890:	0000a1bc 			; <UNDEFINED> instruction: 0x0000a1bc
    3894:	998c1100 	stmibls	ip, {r8, ip}
    3898:	08c80000 	stmiaeq	r8, {}^	; <UNPREDICTABLE>
    389c:	00000000 	andeq	r0, r0, r0
    38a0:	00087019 	andeq	r7, r8, r9, lsl r0
    38a4:	00990800 	addseq	r0, r9, r0, lsl #16
    38a8:	99080300 	stmdbls	r8, {r8, r9}
    38ac:	00040000 	andeq	r0, r4, r0
    38b0:	68010000 	stmdavs	r1, {}	; <UNPREDICTABLE>
    38b4:	00033e05 	andeq	r3, r3, r5, lsl #28
    38b8:	088b1a00 	stmeq	fp, {r9, fp, ip}
    38bc:	23de0000 	bicscs	r0, lr, #0, 0
    38c0:	23dc0000 	bicscs	r0, ip, #0, 0
    38c4:	811a0000 	tsthi	sl, r0
    38c8:	f3000008 	vhadd.u8	d0, d0, d8
    38cc:	f1000023 			; <UNDEFINED> instruction: 0xf1000023
    38d0:	00000023 	andeq	r0, r0, r3, lsr #32
    38d4:	0099200f 	addseq	r2, r9, pc
    38d8:	00044100 	andeq	r4, r4, r0, lsl #2
    38dc:	00035300 	andeq	r5, r3, r0, lsl #6
    38e0:	50011000 	andpl	r1, r1, r0
    38e4:	5001f303 	andpl	pc, r1, r3, lsl #6
    38e8:	99440f00 	stmdbls	r4, {r8, r9, sl, fp}^
    38ec:	08bc0000 	ldmeq	ip!, {}	; <UNPREDICTABLE>
    38f0:	038c0000 	orreq	r0, ip, #0, 0
    38f4:	01100000 	tsteq	r0, r0
    38f8:	94030550 	strls	r0, [r3], #-1360	; 0xfffffab0
    38fc:	1000009d 	mulne	r0, sp, r0
    3900:	03055101 	movweq	r5, #20737	; 0x5101
    3904:	0000a0a8 	andeq	sl, r0, r8, lsr #1
    3908:	05520110 	ldrbeq	r0, [r2, #-272]	; 0xfffffef0
    390c:	00a28003 	adceq	r8, r2, r3
    3910:	53011000 	movwpl	r1, #4096	; 0x1000
    3914:	105f0802 	subsne	r0, pc, r2, lsl #16
    3918:	05007d02 	streq	r7, [r0, #-3330]	; 0xfffff2fe
    391c:	00a0b803 	adceq	fp, r0, r3, lsl #16
    3920:	48110000 	ldmdami	r1, {}	; <UNPREDICTABLE>
    3924:	c8000099 	stmdagt	r0, {r0, r3, r4, r7}
    3928:	11000008 	tstne	r0, r8
    392c:	0000994c 	andeq	r9, r0, ip, asr #18
    3930:	000008d4 	ldrdeq	r0, [r0], -r4
    3934:	0099680f 	addseq	r6, r9, pc, lsl #16
    3938:	0008bc00 	andeq	fp, r8, r0, lsl #24
    393c:	0003d700 	andeq	sp, r3, r0, lsl #14
    3940:	50011000 	andpl	r1, r1, r0
    3944:	a1740305 	cmnge	r4, r5, lsl #6
    3948:	01100000 	tsteq	r0, r0
    394c:	a8030551 	stmdage	r3, {r0, r4, r6, r8, sl}
    3950:	100000a0 	andne	r0, r0, r0, lsr #1
    3954:	03055201 	movweq	r5, #20993	; 0x5201
    3958:	0000a280 	andeq	sl, r0, r0, lsl #5
    395c:	02530110 	subseq	r0, r3, #4
    3960:	02106008 	andseq	r6, r0, #8, 0
    3964:	0305007d 	movweq	r0, #20605	; 0x507d
    3968:	0000a1a8 	andeq	sl, r0, r8, lsr #3
    396c:	996c1100 	stmdbls	ip!, {r8, ip}^
    3970:	08c80000 	stmiaeq	r8, {}^	; <UNPREDICTABLE>
    3974:	90110000 	andsls	r0, r1, r0
    3978:	d4000099 	strle	r0, [r0], #-153	; 0xffffff67
    397c:	0f000008 	svceq	0x00000008
    3980:	000099ac 	andeq	r9, r0, ip, lsr #19
    3984:	000008bc 			; <UNDEFINED> instruction: 0x000008bc
    3988:	00000422 	andeq	r0, r0, r2, lsr #8
    398c:	05500110 	ldrbeq	r0, [r0, #-272]	; 0xfffffef0
    3990:	00a1c803 	adceq	ip, r1, r3, lsl #16
    3994:	51011000 	mrspl	r1, (UNDEF: 1)
    3998:	a0a80305 	adcge	r0, r8, r5, lsl #6
    399c:	01100000 	tsteq	r0, r0
    39a0:	80030552 	andhi	r0, r3, r2, asr r5
    39a4:	100000a2 	andne	r0, r0, r2, lsr #1
    39a8:	08025301 	stmdaeq	r2, {r0, r8, r9, ip, lr}
    39ac:	7d021068 	stcvc	0, cr1, [r2, #-416]	; 0xfffffe60
    39b0:	f4030500 	vst3.8	{d0,d2,d4}, [r3], r0
    39b4:	000000a1 	andeq	r0, r0, r1, lsr #1
    39b8:	0099b011 	addseq	fp, r9, r1, lsl r0
    39bc:	0008c800 	andeq	ip, r8, r0, lsl #16
    39c0:	7e120000 	cdpvc	0, 1, cr0, cr2, cr0, {0}
    39c4:	3c000000 	stccc	0, cr0, [r0], {-0}
    39c8:	13000004 	movwne	r0, #4
    39cc:	0000002c 	andeq	r0, r0, ip, lsr #32
    39d0:	2c05000f 	stccs	0, cr0, [r5], {15}
    39d4:	16000004 	strne	r0, [r0], -r4
    39d8:	000003e3 	andeq	r0, r0, r3, ror #7
    39dc:	8a075301 	bhi	1d85e8 <__bss_end__+0x1cdf10>
    39e0:	60000000 	andvs	r0, r0, r0
    39e4:	64000098 	strvs	r0, [r0], #-152	; 0xffffff68
    39e8:	01000000 	mrseq	r0, (UNDEF: 0)
    39ec:	0005089c 	muleq	r5, ip, r8
    39f0:	02b31700 	adcseq	r1, r3, #0, 14
    39f4:	53010000 	movwpl	r0, #4096	; 0x1000
    39f8:	00002c18 	andeq	r2, r0, r8, lsl ip
    39fc:	00240e00 	eoreq	r0, r4, r0, lsl #28
    3a00:	00240600 	eoreq	r0, r4, r0, lsl #12
    3a04:	006f0e00 	rsbeq	r0, pc, r0, lsl #28
    3a08:	05180000 	ldreq	r0, [r8, #-0]
    3a0c:	03050000 	movweq	r0, #20480	; 0x5000
    3a10:	0000a278 	andeq	sl, r0, r8, ror r2
    3a14:	0009f11d 	andeq	pc, r9, sp, lsl r1	; <UNPREDICTABLE>
    3a18:	0b550100 	bleq	1543e20 <__bss_end__+0x1539748>
    3a1c:	0000008a 	andeq	r0, r0, sl, lsl #1
    3a20:	00002446 	andeq	r2, r0, r6, asr #8
    3a24:	00002442 	andeq	r2, r0, r2, asr #8
    3a28:	0098780f 	addseq	r7, r8, pc, lsl #16
    3a2c:	00051d00 	andeq	r1, r5, r0, lsl #26
    3a30:	0004a600 	andeq	sl, r4, r0, lsl #12
    3a34:	50011000 	andpl	r1, r1, r0
    3a38:	00007402 	andeq	r7, r0, r2, lsl #8
    3a3c:	0098880f 	addseq	r8, r8, pc, lsl #16
    3a40:	0008e000 	andeq	lr, r8, r0
    3a44:	0004c500 	andeq	ip, r4, r0, lsl #10
    3a48:	50011000 	andpl	r1, r1, r0
    3a4c:	10007502 	andne	r7, r0, r2, lsl #10
    3a50:	30015101 	andcc	r5, r1, r1, lsl #2
    3a54:	02520110 	subseq	r0, r2, #4
    3a58:	0f000074 	svceq	0x00000074
    3a5c:	000098b0 			; <UNDEFINED> instruction: 0x000098b0
    3a60:	000008bc 			; <UNDEFINED> instruction: 0x000008bc
    3a64:	000004fe 	strdeq	r0, [r0], -lr
    3a68:	05500110 	ldrbeq	r0, [r0, #-272]	; 0xfffffef0
    3a6c:	009d9403 	addseq	r9, sp, r3, lsl #8
    3a70:	51011000 	mrspl	r1, (UNDEF: 1)
    3a74:	a0a80305 	adcge	r0, r8, r5, lsl #6
    3a78:	01100000 	tsteq	r0, r0
    3a7c:	78030552 	stmdavc	r3, {r1, r4, r6, r8, sl}
    3a80:	100000a2 	andne	r0, r0, r2, lsr #1
    3a84:	08025301 	stmdaeq	r2, {r0, r8, r9, ip, lr}
    3a88:	7d021054 	stcvc	0, cr1, [r2, #-336]	; 0xfffffeb0
    3a8c:	b8030500 	stmdalt	r3, {r8, sl}
    3a90:	000000a0 	andeq	r0, r0, r0, lsr #1
    3a94:	0098b411 	addseq	fp, r8, r1, lsl r4
    3a98:	0008c800 	andeq	ip, r8, r0, lsl #16
    3a9c:	7e120000 	cdpvc	0, 1, cr0, cr2, cr0, {0}
    3aa0:	18000000 	stmdane	r0, {}	; <UNPREDICTABLE>
    3aa4:	13000005 	movwne	r0, #5
    3aa8:	0000002c 	andeq	r0, r0, ip, lsr #32
    3aac:	08050007 	stmdaeq	r5, {r0, r1, r2}
    3ab0:	16000005 	strne	r0, [r0], -r5
    3ab4:	00000a49 	andeq	r0, r0, r9, asr #20
    3ab8:	8a074701 	bhi	1d56c4 <__bss_end__+0x1cafec>
    3abc:	c8000000 	stmdagt	r0, {}	; <UNPREDICTABLE>
    3ac0:	98000097 	stmdals	r0, {r0, r1, r2, r4, r7}
    3ac4:	01000000 	mrseq	r0, (UNDEF: 0)
    3ac8:	00062b9c 	muleq	r6, ip, fp
    3acc:	02b31700 	adcseq	r1, r3, #0, 14
    3ad0:	47010000 	strmi	r0, [r1, -r0]
    3ad4:	00002c20 	andeq	r2, r0, r0, lsr #24
    3ad8:	00247400 	eoreq	r7, r4, r0, lsl #8
    3adc:	00246400 	eoreq	r6, r4, r0, lsl #8
    3ae0:	006f0e00 	rsbeq	r0, pc, r0, lsl #28
    3ae4:	043c0000 	ldrteq	r0, [ip], #-0
    3ae8:	03050000 	movweq	r0, #20480	; 0x5000
    3aec:	0000a268 	andeq	sl, r0, r8, ror #4
    3af0:	0009f11d 	andeq	pc, r9, sp, lsl r1	; <UNPREDICTABLE>
    3af4:	0b4b0100 	bleq	12c3efc <__bss_end__+0x12b9824>
    3af8:	0000008a 	andeq	r0, r0, sl, lsl #1
    3afc:	000024e6 	andeq	r2, r0, r6, ror #9
    3b00:	000024e2 	andeq	r2, r0, r2, ror #9
    3b04:	00081f1b 	andeq	r1, r8, fp, lsl pc
    3b08:	0097d800 	addseq	sp, r7, r0, lsl #16
    3b0c:	03200300 	nopeq	{0}	; <UNPREDICTABLE>
    3b10:	49010000 	stmdbmi	r1, {}	; <UNPREDICTABLE>
    3b14:	0005a30e 	andeq	sl, r5, lr, lsl #6
    3b18:	083a1a00 	ldmdaeq	sl!, {r9, fp, ip}
    3b1c:	25060000 	strcs	r0, [r6, #-0]
    3b20:	25040000 	strcs	r0, [r4, #-0]
    3b24:	301a0000 	andscc	r0, sl, r0
    3b28:	1e000008 	cdpne	0, 0, cr0, cr0, cr8, {0}
    3b2c:	1a000025 	bne	3bc8 <__code_start__-0x4438>
    3b30:	1e000025 	cdpne	0, 0, cr0, cr0, cr5, {1}
    3b34:	00000320 	andeq	r0, r0, r0, lsr #6
    3b38:	98200f00 	stmdals	r0!, {r8, r9, sl, fp}
    3b3c:	08bc0000 	ldmeq	ip!, {}	; <UNPREDICTABLE>
    3b40:	05dc0000 	ldrbeq	r0, [ip]
    3b44:	01100000 	tsteq	r0, r0
    3b48:	94030550 	strls	r0, [r3], #-1360	; 0xfffffab0
    3b4c:	1000009d 	mulne	r0, sp, r0
    3b50:	03055101 	movweq	r5, #20737	; 0x5101
    3b54:	0000a0a8 	andeq	sl, r0, r8, lsr #1
    3b58:	05520110 	ldrbeq	r0, [r2, #-272]	; 0xfffffef0
    3b5c:	00a26803 	adceq	r6, r2, r3, lsl #16
    3b60:	53011000 	movwpl	r1, #4096	; 0x1000
    3b64:	10480802 	subne	r0, r8, r2, lsl #16
    3b68:	05007d02 	streq	r7, [r0, #-3330]	; 0xfffff2fe
    3b6c:	00a0b803 	adceq	fp, r0, r3, lsl #16
    3b70:	24110000 	ldrcs	r0, [r1], #-0
    3b74:	c8000098 	stmdagt	r0, {r3, r4, r7}
    3b78:	0f000008 	svceq	0x00000008
    3b7c:	00009844 	andeq	r9, r0, r4, asr #16
    3b80:	000008bc 			; <UNDEFINED> instruction: 0x000008bc
    3b84:	00000621 	andeq	r0, r0, r1, lsr #12
    3b88:	05500110 	ldrbeq	r0, [r0, #-272]	; 0xfffffef0
    3b8c:	00a13403 	adceq	r3, r1, r3, lsl #8
    3b90:	51011000 	mrspl	r1, (UNDEF: 1)
    3b94:	a0a80305 	adcge	r0, r8, r5, lsl #6
    3b98:	01100000 	tsteq	r0, r0
    3b9c:	68030552 	stmdavs	r3, {r1, r4, r6, r8, sl}
    3ba0:	100000a2 	andne	r0, r0, r2, lsr #1
    3ba4:	08025301 	stmdaeq	r2, {r0, r8, r9, ip, lr}
    3ba8:	7d02104e 	stcvc	0, cr1, [r2, #-312]	; 0xfffffec8
    3bac:	01f30800 	mvnseq	r0, r0, lsl #16
    3bb0:	09072350 	stmdbeq	r7, {r4, r6, r8, r9, sp}
    3bb4:	11001af8 	strdne	r1, [r0, -r8]
    3bb8:	00009848 	andeq	r9, r0, r8, asr #16
    3bbc:	000008c8 	andeq	r0, r0, r8, asr #17
    3bc0:	0a6b0c00 	beq	1ac6bc8 <__bss_end__+0x1abc4f0>
    3bc4:	3c010000 	stccc	0, cr0, [r1], {-0}
    3bc8:	00977006 	addseq	r7, r7, r6
    3bcc:	00005800 	andeq	r5, r0, r0, lsl #16
    3bd0:	cf9c0100 	svcgt	0x009c0100
    3bd4:	0a000006 	beq	3bf4 <__code_start__-0x440c>
    3bd8:	00000353 	andeq	r0, r0, r3, asr r3
    3bdc:	25103d01 	ldrcs	r3, [r0, #-3329]	; 0xfffff2ff
    3be0:	05000000 	streq	r0, [r0, #-0]
    3be4:	00a6d403 	adceq	sp, r6, r3, lsl #8
    3be8:	006f0e00 	rsbeq	r0, pc, r0, lsl #28
    3bec:	06df0000 	ldrbeq	r0, [pc], r0
    3bf0:	03050000 	movweq	r0, #20480	; 0x5000
    3bf4:	0000a258 	andeq	sl, r0, r8, asr r2
    3bf8:	2c040707 	stccs	7, cr0, [r4], {7}
    3bfc:	01000000 	mrseq	r0, (UNDEF: 0)
    3c00:	067a0a42 	ldrbteq	r0, [sl], -r2, asr #20
    3c04:	32080000 	andcc	r0, r8, #0, 0
    3c08:	0000000a 	andeq	r0, r0, sl
    3c0c:	00001000 	andeq	r1, r0, r0
    3c10:	00979c0f 	addseq	r9, r7, pc, lsl #24
    3c14:	0006e400 	andeq	lr, r6, r0, lsl #8
    3c18:	00069600 	andeq	r9, r6, r0, lsl #12
    3c1c:	50011000 	andpl	r1, r1, r0
    3c20:	24404003 	strbcs	r4, [r0], #-3
    3c24:	03510110 	cmpeq	r1, #4
    3c28:	00244840 	eoreq	r4, r4, r0, asr #16
    3c2c:	0097b40f 	addseq	fp, r7, pc, lsl #8
    3c30:	0008bc00 	andeq	fp, r8, r0, lsl #24
    3c34:	0006c500 	andeq	ip, r6, r0, lsl #10
    3c38:	50011000 	andpl	r1, r1, r0
    3c3c:	a1040305 	tstge	r4, r5, lsl #6
    3c40:	01100000 	tsteq	r0, r0
    3c44:	a8030551 	stmdage	r3, {r0, r4, r6, r8, sl}
    3c48:	100000a0 	andne	r0, r0, r0, lsr #1
    3c4c:	03055201 	movweq	r5, #20993	; 0x5201
    3c50:	0000a258 	andeq	sl, r0, r8, asr r2
    3c54:	02530110 	subseq	r0, r3, #4
    3c58:	11004008 	tstne	r0, r8
    3c5c:	000097b8 			; <UNDEFINED> instruction: 0x000097b8
    3c60:	000008c8 	andeq	r0, r0, r8, asr #17
    3c64:	007e1200 	rsbseq	r1, lr, r0, lsl #4
    3c68:	06df0000 	ldrbeq	r0, [pc], r0
    3c6c:	2c130000 	ldccs	0, cr0, [r3], {-0}
    3c70:	0c000000 	stceq	0, cr0, [r0], {-0}
    3c74:	06cf0500 	strbeq	r0, [pc], r0, lsl #10
    3c78:	eb0c0000 	bl	303c80 <__bss_end__+0x2f95a8>
    3c7c:	01000003 	tsteq	r0, r3
    3c80:	96d4062d 	ldrbls	r0, [r4], sp, lsr #12
    3c84:	009c0000 	addseq	r0, ip, r0
    3c88:	9c010000 	stcls	0, cr0, [r1], {-0}
    3c8c:	000007c8 	andeq	r0, r0, r8, asr #15
    3c90:	0009f017 	andeq	pc, r9, r7, lsl r0	; <UNPREDICTABLE>
    3c94:	262d0100 	strtcs	r0, [sp], -r0, lsl #2
    3c98:	0000002c 	andeq	r0, r0, ip, lsr #32
    3c9c:	0000254c 	andeq	r2, r0, ip, asr #10
    3ca0:	0000253e 	andeq	r2, r0, lr, lsr r5
    3ca4:	0009e517 	andeq	lr, r9, r7, lsl r5
    3ca8:	362d0100 	strtcc	r0, [sp], -r0, lsl #2
    3cac:	0000002c 	andeq	r0, r0, ip, lsr #32
    3cb0:	000025b4 			; <UNDEFINED> instruction: 0x000025b4
    3cb4:	000025ac 	andeq	r2, r0, ip, lsr #11
    3cb8:	0009f11d 	andeq	pc, r9, sp, lsl r1	; <UNPREDICTABLE>
    3cbc:	0b2e0100 	bleq	b840c4 <__bss_end__+0xb799ec>
    3cc0:	000000c2 	andeq	r0, r0, r2, asr #1
    3cc4:	000025fc 	strdeq	r2, [r0], -ip
    3cc8:	000025ee 	andeq	r2, r0, lr, ror #11
    3ccc:	00006f0e 	andeq	r6, r0, lr, lsl #30
    3cd0:	0007d800 	andeq	sp, r7, r0, lsl #16
    3cd4:	40030500 	andmi	r0, r3, r0, lsl #10
    3cd8:	0f0000a2 	svceq	0x000000a2
    3cdc:	0000972c 	andeq	r9, r0, ip, lsr #14
    3ce0:	000008bc 			; <UNDEFINED> instruction: 0x000008bc
    3ce4:	0000077e 	andeq	r0, r0, lr, ror r7
    3ce8:	05500110 	ldrbeq	r0, [r0, #-272]	; 0xfffffef0
    3cec:	009d9403 	addseq	r9, sp, r3, lsl #8
    3cf0:	51011000 	mrspl	r1, (UNDEF: 1)
    3cf4:	a0a80305 	adcge	r0, r8, r5, lsl #6
    3cf8:	01100000 	tsteq	r0, r0
    3cfc:	40030552 	andmi	r0, r3, r2, asr r5
    3d00:	100000a2 	andne	r0, r0, r2, lsr #1
    3d04:	08025301 	stmdaeq	r2, {r0, r8, r9, ip, lr}
    3d08:	7d021030 	stcvc	0, cr1, [r2, #-192]	; 0xffffff40
    3d0c:	b4030500 	strlt	r0, [r3], #-1280	; 0xfffffb00
    3d10:	000000a0 	andeq	r0, r0, r0, lsr #1
    3d14:	00973011 	addseq	r3, r7, r1, lsl r0
    3d18:	0008c800 	andeq	ip, r8, r0, lsl #16
    3d1c:	97540f00 	ldrbls	r0, [r4, -r0, lsl #30]
    3d20:	08bc0000 	ldmeq	ip!, {}	; <UNPREDICTABLE>
    3d24:	07be0000 	ldreq	r0, [lr, r0]!
    3d28:	01100000 	tsteq	r0, r0
    3d2c:	c0030550 	andgt	r0, r3, r0, asr r5
    3d30:	100000a0 	andne	r0, r0, r0, lsr #1
    3d34:	03055101 	movweq	r5, #20737	; 0x5101
    3d38:	0000a0a8 	andeq	sl, r0, r8, lsr #1
    3d3c:	05520110 	ldrbeq	r0, [r2, #-272]	; 0xfffffef0
    3d40:	00a24003 	adceq	r4, r2, r3
    3d44:	53011000 	movwpl	r1, #4096	; 0x1000
    3d48:	10340802 	eorsne	r0, r4, r2, lsl #16
    3d4c:	03007d02 	movweq	r7, #3330	; 0xd02
    3d50:	005001f3 	ldrsheq	r0, [r0], #-19	; 0xffffffed
    3d54:	00975811 	addseq	r5, r7, r1, lsl r8
    3d58:	0008c800 	andeq	ip, r8, r0, lsl #16
    3d5c:	7e120000 	cdpvc	0, 1, cr0, cr2, cr0, {0}
    3d60:	d8000000 	stmdale	r0, {}	; <UNPREDICTABLE>
    3d64:	13000007 	movwne	r0, #7
    3d68:	0000002c 	andeq	r0, r0, ip, lsr #32
    3d6c:	c8050016 	stmdagt	r5, {r1, r2, r4}
    3d70:	1f000007 	svcne	0x00000007
    3d74:	00000a83 	andeq	r0, r0, r3, lsl #21
    3d78:	8a072a01 	bhi	1ce584 <__bss_end__+0x1c3eac>
    3d7c:	c4000000 	strgt	r0, [r0], #-0
    3d80:	10000096 	mulne	r0, r6, r0
    3d84:	01000000 	mrseq	r0, (UNDEF: 0)
    3d88:	09d21f9c 	ldmibeq	r2, {r2, r3, r4, r7, r8, r9, sl, fp, ip}^
    3d8c:	29010000 	stmdbcs	r1, {}	; <UNPREDICTABLE>
    3d90:	00008a07 	andeq	r8, r0, r7, lsl #20
    3d94:	0096b400 	addseq	fp, r6, r0, lsl #8
    3d98:	00001000 	andeq	r1, r0, r0
    3d9c:	1f9c0100 	svcne	0x009c0100
    3da0:	00000a38 	andeq	r0, r0, r8, lsr sl
    3da4:	8a072801 	bhi	1cddb0 <__bss_end__+0x1c36d8>
    3da8:	a4000000 	strge	r0, [r0], #-0
    3dac:	10000096 	mulne	r0, r6, r0
    3db0:	01000000 	mrseq	r0, (UNDEF: 0)
    3db4:	0a09209c 	beq	24c02c <__bss_end__+0x241954>
    3db8:	10010000 	andne	r0, r1, r0
    3dbc:	00002c18 	andeq	r2, r0, r8, lsl ip
    3dc0:	08540300 	ldmdaeq	r4, {r8, r9}^
    3dc4:	78210000 	stmdavc	r1!, {}	; <UNPREDICTABLE>
    3dc8:	29100100 	ldmdbcs	r0, {r8}
    3dcc:	0000002c 	andeq	r0, r0, ip, lsr #32
    3dd0:	01006e21 	tsteq	r0, r1, lsr #28
    3dd4:	002c3510 	eoreq	r3, ip, r0, lsl r5
    3dd8:	6f0e0000 	svcvs	0x000e0000
    3ddc:	18000000 	stmdane	r0, {}	; <UNPREDICTABLE>
    3de0:	05000005 	streq	r0, [r0, #-5]
    3de4:	00a29003 	adceq	r9, r2, r3
    3de8:	59200000 	stmdbpl	r0!, {}	; <UNPREDICTABLE>
    3dec:	0100000a 	tsteq	r0, sl
    3df0:	002c180d 	eoreq	r1, ip, sp, lsl #16
    3df4:	70030000 	andvc	r0, r3, r0
    3df8:	21000008 	tstcs	r0, r8
    3dfc:	0d010078 	stceq	0, cr0, [r1, #-480]	; 0xfffffe20
    3e00:	00002c29 	andeq	r2, r0, r9, lsr #24
    3e04:	78200000 	stmdavc	r0!, {}	; <UNPREDICTABLE>
    3e08:	0100000a 	tsteq	r0, sl
    3e0c:	002c1807 	eoreq	r1, ip, r7, lsl #16
    3e10:	96030000 	strls	r0, [r3], -r0
    3e14:	21000008 	tstcs	r0, r8
    3e18:	07010078 	smlsdxeq	r1, r8, r0, r0
    3e1c:	00002c2c 	andeq	r2, r0, ip, lsr #24
    3e20:	006e2100 	rsbeq	r2, lr, r0, lsl #2
    3e24:	2c380701 	ldccs	7, cr0, [r8], #-4
    3e28:	00000000 	andeq	r0, r0, r0
    3e2c:	000a2a20 	andeq	r2, sl, r0, lsr #20
    3e30:	18040100 	stmdane	r4, {r8}
    3e34:	0000005d 	andeq	r0, r0, sp, asr r0
    3e38:	0008bc03 	andeq	fp, r8, r3, lsl #24
    3e3c:	00782100 	rsbseq	r2, r8, r0, lsl #2
    3e40:	5d290401 	cfstrspl	mvf0, [r9, #-4]!
    3e44:	21000000 	mrscs	r0, (UNDEF: 0)
    3e48:	04010079 	streq	r0, [r1], #-121	; 0xffffff87
    3e4c:	00005d35 	andeq	r5, r0, r5, lsr sp
    3e50:	34220000 	strtcc	r0, [r2], #-0
    3e54:	34000005 	strcc	r0, [r0], #-5
    3e58:	02000005 	andeq	r0, r0, #5, 0
    3e5c:	38220628 	stmdacc	r2!, {r3, r5, r9, sl}
    3e60:	38000000 	stmdacc	r0, {}	; <UNPREDICTABLE>
    3e64:	02000000 	andeq	r0, r0, #0, 0
    3e68:	9422066e 	strtls	r0, [r2], #-1646	; 0xfffff992
    3e6c:	9400000a 	strls	r0, [r0], #-10
    3e70:	0200000a 	andeq	r0, r0, #10, 0
    3e74:	6322061d 			; <UNDEFINED> instruction: 0x6322061d
    3e78:	63000000 	movwvs	r0, #0
    3e7c:	02000000 	andeq	r0, r0, #0, 0
    3e80:	730007f2 	movwvc	r0, #2034	; 0x7f2
    3e84:	04000006 	streq	r0, [r0], #-6
    3e88:	00160c00 	andseq	r0, r6, r0, lsl #24
    3e8c:	52010400 	andpl	r0, r1, #0, 8
    3e90:	0c000004 	stceq	0, cr0, [r0], {4}
    3e94:	00000ae6 	andeq	r0, r0, r6, ror #21
    3e98:	0000050a 	andeq	r0, r0, sl, lsl #10
    3e9c:	00009a54 	andeq	r9, r0, r4, asr sl
    3ea0:	00000198 	muleq	r0, r8, r1
    3ea4:	00001ee9 	andeq	r1, r0, r9, ror #29
    3ea8:	90070802 	andls	r0, r7, r2, lsl #16
    3eac:	02000000 	andeq	r0, r0, #0, 0
    3eb0:	009a0704 	addseq	r0, sl, r4, lsl #14
    3eb4:	04030000 	streq	r0, [r3], #-0
    3eb8:	746e6905 	strbtvc	r6, [lr], #-2309	; 0xfffff6fb
    3ebc:	002c0400 	eoreq	r0, ip, r0, lsl #8
    3ec0:	01020000 	mrseq	r0, (UNDEF: 2)
    3ec4:	00002c06 	andeq	r2, r0, r6, lsl #24
    3ec8:	05020200 	streq	r0, [r2, #-512]	; 0xfffffe00
    3ecc:	000000ee 	andeq	r0, r0, lr, ror #1
    3ed0:	ac050402 	cfstrsge	mvf0, [r5], {2}
    3ed4:	02000000 	andeq	r0, r0, #0, 0
    3ed8:	00a70508 	adceq	r0, r7, r8, lsl #10
    3edc:	01020000 	mrseq	r0, (UNDEF: 2)
    3ee0:	00002a08 	andeq	r2, r0, r8, lsl #20
    3ee4:	07020200 	streq	r0, [r2, -r0, lsl #4]
    3ee8:	00000045 	andeq	r0, r0, r5, asr #32
    3eec:	00024405 	andeq	r4, r2, r5, lsl #8
    3ef0:	19340300 	ldmdbne	r4!, {r8, r9}
    3ef4:	00000075 	andeq	r0, r0, r5, ror r0
    3ef8:	95070402 	strls	r0, [r7, #-1026]	; 0xfffffbfe
    3efc:	06000000 	streq	r0, [r0], -r0
    3f00:	00000033 	andeq	r0, r0, r3, lsr r0
    3f04:	0000008b 	andeq	r0, r0, fp, lsl #1
    3f08:	00003307 	andeq	r3, r0, r7, lsl #6
    3f0c:	02080000 	andeq	r0, r8, #0, 0
    3f10:	02000001 	andeq	r0, r0, #1, 0
    3f14:	00970e1c 	addseq	r0, r7, ip, lsl lr
    3f18:	04090000 	streq	r0, [r9], #-0
    3f1c:	0000007c 	andeq	r0, r0, ip, ror r0
    3f20:	00003306 	andeq	r3, r0, r6, lsl #6
    3f24:	0000ac00 	andeq	sl, r0, r0, lsl #24
    3f28:	00ac0700 	adceq	r0, ip, r0, lsl #14
    3f2c:	09000000 	stmdbeq	r0, {}	; <UNPREDICTABLE>
    3f30:	0000b904 	andeq	fp, r0, r4, lsl #18
    3f34:	08010200 	stmdaeq	r1, {r9}
    3f38:	00000033 	andeq	r0, r0, r3, lsr r0
    3f3c:	0000b204 	andeq	fp, r0, r4, lsl #4
    3f40:	05720800 	ldrbeq	r0, [r2, #-2048]!	; 0xfffff800
    3f44:	21020000 	mrscs	r0, (UNDEF: 2)
    3f48:	0000ca0e 	andeq	ip, r0, lr, lsl #20
    3f4c:	9d040900 	vstrls.16	s0, [r4, #-0]	; <UNPREDICTABLE>
    3f50:	0a000000 	beq	3f58 <__code_start__-0x40a8>
    3f54:	005b0107 	subseq	r0, fp, r7, lsl #2
    3f58:	0c040000 	stceq	0, cr0, [r4], {-0}
    3f5c:	00010f0e 	andeq	r0, r1, lr, lsl #30
    3f60:	09aa0b00 	stmibeq	sl!, {r8, r9, fp}
    3f64:	0b000000 	bleq	3f6c <__code_start__-0x4094>
    3f68:	000007e2 	andeq	r0, r0, r2, ror #15
    3f6c:	08250b01 	stmdaeq	r5!, {r0, r8, r9, fp}
    3f70:	0b040000 	bleq	103f78 <__bss_end__+0xf98a0>
    3f74:	00000834 	andeq	r0, r0, r4, lsr r8
    3f78:	08430b05 	stmdaeq	r3, {r0, r2, r8, r9, fp}^
    3f7c:	0b060000 	bleq	183f84 <__bss_end__+0x1798ac>
    3f80:	00000852 	andeq	r0, r0, r2, asr r8
    3f84:	09730b07 	ldmdbeq	r3!, {r0, r1, r2, r8, r9, fp}^
    3f88:	0b030000 	bleq	c3f90 <__bss_end__+0xb98b8>
    3f8c:	00000861 	andeq	r0, r0, r1, ror #16
    3f90:	1f050002 	svcne	0x00050002
    3f94:	0400000b 	streq	r0, [r0], #-11
    3f98:	00d00315 	sbcseq	r0, r0, r5, lsl r3
    3f9c:	bd0c0000 	stclt	0, cr0, [ip, #-0]
    3fa0:	0100000a 	tsteq	r0, sl
    3fa4:	003a171d 	eorseq	r1, sl, sp, lsl r7
    3fa8:	001c0000 	andseq	r0, ip, r0
    3fac:	b30c2020 	movwlt	r2, #49184	; 0xc020
    3fb0:	0100000a 	tsteq	r0, sl
    3fb4:	003a171e 	eorseq	r1, sl, lr, lsl r7
    3fb8:	00280000 	eoreq	r0, r8, r0
    3fbc:	2b0c2020 	blcs	30c044 <__bss_end__+0x30196c>
    3fc0:	0100000b 	tsteq	r0, fp
    3fc4:	003a171f 	eorseq	r1, sl, pc, lsl r7
    3fc8:	00340000 	eorseq	r0, r4, r0
    3fcc:	dc0d2020 	stcle	0, cr2, [sp], {32}
    3fd0:	0100000a 	tsteq	r0, sl
    3fd4:	00330551 	eorseq	r0, r3, r1, asr r5
    3fd8:	9bc40000 	blls	ff103fe0 <__bss_end__+0xff0f9908>
    3fdc:	00280000 	eoreq	r0, r8, r0
    3fe0:	9c010000 	stcls	0, cr0, [r1], {-0}
    3fe4:	000001ba 			; <UNDEFINED> instruction: 0x000001ba
    3fe8:	6e69700e 	cdpvs	0, 6, cr7, cr9, cr14, {0}
    3fec:	18510100 	ldmdane	r1, {r8}^
    3ff0:	0000002c 	andeq	r0, r0, ip, lsr #32
    3ff4:	00002662 	andeq	r2, r0, r2, ror #12
    3ff8:	0000265c 	andeq	r2, r0, ip, asr r6
    3ffc:	000b350f 	andeq	r3, fp, pc, lsl #10
    4000:	0e520100 	rdfeqs	f0, f2, f0
    4004:	0000002c 	andeq	r0, r0, ip, lsr #32
    4008:	00002698 	muleq	r0, r8, r6
    400c:	0000268e 	andeq	r2, r0, lr, lsl #13
    4010:	66666f10 	uqadd16vs	r6, r6, r0
    4014:	0e530100 	rdfeqs	f0, f3, f0
    4018:	0000002c 	andeq	r0, r0, ip, lsr #32
    401c:	00002706 	andeq	r2, r0, r6, lsl #14
    4020:	00002700 	andeq	r2, r0, r0, lsl #14
    4024:	009bd811 	addseq	sp, fp, r1, lsl r8
    4028:	00065e00 	andeq	r5, r6, r0, lsl #28
    402c:	50011200 	andpl	r1, r1, r0, lsl #4
    4030:	3500740a 	strcc	r7, [r0, #-1034]	; 0xfffffbf6
    4034:	80b42325 	adcshi	r2, r4, r5, lsr #6
    4038:	00028180 	andeq	r8, r2, r0, lsl #3
    403c:	0ac71300 	beq	ff1c8c44 <__bss_end__+0xff1be56c>
    4040:	4a010000 	bmi	44048 <__bss_end__+0x39970>
    4044:	009b9406 	addseq	r9, fp, r6, lsl #8
    4048:	00003000 	andeq	r3, r0, r0
    404c:	759c0100 	ldrvc	r0, [ip, #256]	; 0x100
    4050:	0e000002 	cdpeq	0, 0, cr0, cr0, cr2, {0}
    4054:	006e6970 	rsbeq	r6, lr, r0, ror r9
    4058:	2c1a4a01 			; <UNDEFINED> instruction: 0x2c1a4a01
    405c:	43000000 	movwmi	r0, #0
    4060:	37000027 	strcc	r0, [r0, -r7, lsr #32]
    4064:	0e000027 	cdpeq	0, 0, cr0, cr0, cr7, {1}
    4068:	4a010076 	bmi	44248 <__bss_end__+0x39b70>
    406c:	00002c28 	andeq	r2, r0, r8, lsr #24
    4070:	00279700 	eoreq	r9, r7, r0, lsl #14
    4074:	00279300 	eoreq	r9, r7, r0, lsl #6
    4078:	038d1400 	orreq	r1, sp, #0, 8
    407c:	9ba40000 	blls	fe904084 <__bss_end__+0xfe8f99ac>
    4080:	f0010000 			; <UNDEFINED> instruction: 0xf0010000
    4084:	01000003 	tsteq	r0, r3
    4088:	0235094c 	eorseq	r0, r5, #76, 18	; 0x130000
    408c:	9a150000 	bls	544094 <__bss_end__+0x5399bc>
    4090:	be000003 	cdplt	0, 0, cr0, cr0, cr3, {0}
    4094:	b8000027 	stmdalt	r0, {r0, r1, r2, r5}
    4098:	16000027 	strne	r0, [r0], -r7, lsr #32
    409c:	00009bb0 			; <UNDEFINED> instruction: 0x00009bb0
    40a0:	0000066a 	andeq	r0, r0, sl, ror #12
    40a4:	05500112 	ldrbeq	r0, [r0, #-274]	; 0xfffffeee
    40a8:	20001c0c 	andcs	r1, r0, ip, lsl #24
    40ac:	51011220 	tstpl	r1, r0, lsr #4
    40b0:	01f33105 	mvnseq	r3, r5, lsl #2
    40b4:	00002450 	andeq	r2, r0, r0, asr r4
    40b8:	00037317 	andeq	r7, r3, r7, lsl r3
    40bc:	009bb000 	addseq	fp, fp, r0
    40c0:	9bb00200 	blls	fec048c8 <__bss_end__+0xfebfa1f0>
    40c4:	00140000 	andseq	r0, r4, r0
    40c8:	4e010000 	cdpmi	0, 0, cr0, cr1, cr0, {0}
    40cc:	03801509 	orreq	r1, r0, #37748736	; 0x2400000
    40d0:	27f00000 	ldrbcs	r0, [r0, r0]!
    40d4:	27ea0000 	strbcs	r0, [sl, r0]!
    40d8:	bc160000 	ldclt	0, cr0, [r6], {-0}
    40dc:	6a00009b 	bvs	4350 <__code_start__-0x3cb0>
    40e0:	12000006 	andne	r0, r0, #6, 0
    40e4:	0c055001 	stceq	0, cr5, [r5], {1}
    40e8:	20200028 	eorcs	r0, r0, r8, lsr #32
    40ec:	05510112 	ldrbeq	r0, [r1, #-274]	; 0xfffffeee
    40f0:	5001f331 	andpl	pc, r1, r1, lsr r3	; <UNPREDICTABLE>
    40f4:	00000024 	andeq	r0, r0, r4, lsr #32
    40f8:	000af313 	andeq	pc, sl, r3, lsl r3	; <UNPREDICTABLE>
    40fc:	06450100 	strbeq	r0, [r5], -r0, lsl #2
    4100:	00009b3c 	andeq	r9, r0, ip, lsr fp
    4104:	00000058 	andeq	r0, r0, r8, asr r0
    4108:	03739c01 	cmneq	r3, #256	; 0x100
    410c:	700e0000 	andvc	r0, lr, r0
    4110:	01006e69 	tsteq	r0, r9, ror #28
    4114:	002c1e45 	eoreq	r1, ip, r5, asr #28
    4118:	28220000 	stmdacs	r2!, {}	; <UNPREDICTABLE>
    411c:	281c0000 	ldmdacs	ip, {}	; <UNPREDICTABLE>
    4120:	a5180000 	ldrge	r0, [r8, #-0]
    4124:	3c000004 	stccc	0, cr0, [r0], {4}
    4128:	0200009b 	andeq	r0, r0, #155, 0	; 0x9b
    412c:	000003b0 			; <UNDEFINED> instruction: 0x000003b0
    4130:	19054601 	stmdbne	r5, {r0, r9, sl, lr}
    4134:	000004be 			; <UNDEFINED> instruction: 0x000004be
    4138:	04b21500 	ldrteq	r1, [r2], #1280	; 0x500
    413c:	28540000 	ldmdacs	r4, {}^	; <UNPREDICTABLE>
    4140:	284e0000 	stmdacs	lr, {}^	; <UNPREDICTABLE>
    4144:	b01a0000 	andslt	r0, sl, r0
    4148:	1b000003 	blne	415c <__code_start__-0x3ea4>
    414c:	000004ca 	andeq	r0, r0, sl, asr #9
    4150:	0004d61b 	andeq	sp, r4, fp, lsl r6
    4154:	04e01b00 	strbteq	r1, [r0], #2816	; 0xb00
    4158:	a5180000 	ldrge	r0, [r8, #-0]
    415c:	44000004 	strmi	r0, [r0], #-4
    4160:	0000009b 	muleq	r0, fp, r0
    4164:	000003d0 	ldrdeq	r0, [r0], -r0	; <UNPREDICTABLE>
    4168:	19062801 	stmdbne	r6, {r0, fp, sp}
    416c:	000004be 			; <UNDEFINED> instruction: 0x000004be
    4170:	04b21500 	ldrteq	r1, [r2], #1280	; 0x500
    4174:	28860000 	stmcs	r6, {}	; <UNPREDICTABLE>
    4178:	28800000 	stmcs	r0, {}	; <UNPREDICTABLE>
    417c:	d01a0000 	andsle	r0, sl, r0
    4180:	1c000003 	stcne	0, cr0, [r0], {3}
    4184:	000004ca 	andeq	r0, r0, sl, asr #9
    4188:	000028b8 			; <UNDEFINED> instruction: 0x000028b8
    418c:	000028b2 			; <UNDEFINED> instruction: 0x000028b2
    4190:	0004d61c 	andeq	sp, r4, ip, lsl r6
    4194:	0028fa00 	eoreq	pc, r8, r0, lsl #20
    4198:	0028f400 	eoreq	pc, r8, r0, lsl #8
    419c:	04e01c00 	strbteq	r1, [r0], #3072	; 0xc00
    41a0:	29500000 	ldmdbcs	r0, {}^	; <UNPREDICTABLE>
    41a4:	29480000 	stmdbcs	r8, {}^	; <UNPREDICTABLE>
    41a8:	6c1d0000 	ldcvs	0, cr0, [sp], {-0}
    41ac:	5e00009b 	mcrpl	0, 0, r0, cr0, cr11, {4}
    41b0:	3b000006 	blcc	41d0 <__code_start__-0x3e30>
    41b4:	12000003 	andne	r0, r0, #3, 0
    41b8:	76025001 	strvc	r5, [r2], -r1
    41bc:	90160000 	andsls	r0, r6, r0
    41c0:	6a00009b 	bvs	4434 <__code_start__-0x3bcc>
    41c4:	12000006 	andne	r0, r0, #6, 0
    41c8:	f3255001 	vhadd.u32	d5, d5, d1
    41cc:	2cf75001 	ldclcs	0, cr5, [r7], #4
    41d0:	25f425f7 	ldrbcs	r2, [r4, #1527]!	; 0x5f7
    41d4:	cccccd08 	stclgt	13, cr12, [ip], {8}
    41d8:	000000cc 	andeq	r0, r0, ip, asr #1
    41dc:	20081e00 	andcs	r1, r8, r0, lsl #28
    41e0:	f72525f7 			; <UNDEFINED> instruction: 0xf72525f7
    41e4:	3300f72c 	movwcc	pc, #1836	; 0x72c	; <UNPREDICTABLE>
    41e8:	80802325 	addhi	r2, r0, r5, lsr #6
    41ec:	243240a0 	ldrtcs	r4, [r2], #-160	; 0xffffff60
    41f0:	00000000 	andeq	r0, r0, r0
    41f4:	021e0000 	andseq	r0, lr, #0, 0
    41f8:	0100000b 	tsteq	r0, fp
    41fc:	8d030d40 	stchi	13, cr0, [r3, #-256]	; 0xffffff00
    4200:	1f000003 	svcne	0x00000003
    4204:	006e6970 	rsbeq	r6, lr, r0, ror r9
    4208:	2c234001 	stccs	0, cr4, [r3], #-4
    420c:	00000000 	andeq	r0, r0, r0
    4210:	000b3a1e 	andeq	r3, fp, lr, lsl sl
    4214:	0d3b0100 	ldfeqs	f0, [fp, #-0]
    4218:	0003a703 	andeq	sl, r3, r3, lsl #14
    421c:	69701f00 	ldmdbvs	r0!, {r8, r9, sl, fp, ip}^
    4220:	3b01006e 	blcc	443e0 <__bss_end__+0x39d08>
    4224:	00002c22 	andeq	r2, r0, r2, lsr #24
    4228:	0f130000 	svceq	0x00130000
    422c:	0100000b 	tsteq	r0, fp
    4230:	9ab40636 	bls	fed05b10 <__bss_end__+0xfecfb438>
    4234:	00580000 	subseq	r0, r8, r0
    4238:	9c010000 	stcls	0, cr0, [r1], {-0}
    423c:	000004a5 	andeq	r0, r0, r5, lsr #9
    4240:	6e69700e 	cdpvs	0, 6, cr7, cr9, cr14, {0}
    4244:	1f360100 	svcne	0x00360100
    4248:	0000002c 	andeq	r0, r0, ip, lsr #32
    424c:	000029ae 	andeq	r2, r0, lr, lsr #19
    4250:	000029aa 	andeq	r2, r0, sl, lsr #19
    4254:	0004a518 	andeq	sl, r4, r8, lsl r5
    4258:	009ab400 	addseq	fp, sl, r0, lsl #8
    425c:	03700200 	cmneq	r0, #0, 4
    4260:	37010000 	strcc	r0, [r1, -r0]
    4264:	04be1905 	ldrteq	r1, [lr], #2309	; 0x905
    4268:	15010000 	strne	r0, [r1, #-0]
    426c:	000004b2 			; <UNDEFINED> instruction: 0x000004b2
    4270:	000029d3 	ldrdeq	r2, [r0], -r3
    4274:	000029cf 	andeq	r2, r0, pc, asr #19
    4278:	0003701a 	andeq	r7, r3, sl, lsl r0
    427c:	04ca1b00 	strbeq	r1, [sl], #2816	; 0xb00
    4280:	d61b0000 	ldrle	r0, [fp], -r0
    4284:	1b000004 	blne	429c <__code_start__-0x3d64>
    4288:	000004e0 	andeq	r0, r0, r0, ror #9
    428c:	0004a518 	andeq	sl, r4, r8, lsl r5
    4290:	009abc00 	addseq	fp, sl, r0, lsl #24
    4294:	03900000 	orrseq	r0, r0, #0, 0
    4298:	28010000 	stmdacs	r1, {}	; <UNPREDICTABLE>
    429c:	04be1906 	ldrteq	r1, [lr], #2310	; 0x906
    42a0:	15010000 	strne	r0, [r1, #-0]
    42a4:	000004b2 			; <UNDEFINED> instruction: 0x000004b2
    42a8:	000029f8 	strdeq	r2, [r0], -r8
    42ac:	000029f4 	strdeq	r2, [r0], -r4
    42b0:	0003901a 	andeq	r9, r3, sl, lsl r0
    42b4:	04ca1c00 	strbeq	r1, [sl], #3072	; 0xc00
    42b8:	2a1d0000 	bcs	7442c0 <__bss_end__+0x739be8>
    42bc:	2a190000 	bcs	6442c4 <__bss_end__+0x639bec>
    42c0:	d61c0000 	ldrle	r0, [ip], -r0
    42c4:	69000004 	stmdbvs	r0, {r2}
    42c8:	6300002a 	movwvs	r0, #42	; 0x2a
    42cc:	1c00002a 	stcne	0, cr0, [r0], {42}	; 0x2a
    42d0:	000004e0 	andeq	r0, r0, r0, ror #9
    42d4:	00002abf 			; <UNDEFINED> instruction: 0x00002abf
    42d8:	00002ab7 			; <UNDEFINED> instruction: 0x00002ab7
    42dc:	009ae81d 	addseq	lr, sl, sp, lsl r8
    42e0:	00065e00 	andeq	r5, r6, r0, lsl #28
    42e4:	00046d00 	andeq	r6, r4, r0, lsl #26
    42e8:	50011200 	andpl	r1, r1, r0, lsl #4
    42ec:	00007502 	andeq	r7, r0, r2, lsl #10
    42f0:	009b0816 	addseq	r0, fp, r6, lsl r8
    42f4:	00066a00 	andeq	r6, r6, r0, lsl #20
    42f8:	50011200 	andpl	r1, r1, r0, lsl #4
    42fc:	5001f325 	andpl	pc, r1, r5, lsr #6
    4300:	25f72cf7 	ldrbcs	r2, [r7, #3319]!	; 0xcf7
    4304:	cd0825f4 	cfstr32gt	mvfx2, [r8, #-976]	; 0xfffffc30
    4308:	00cccccc 	sbceq	ip, ip, ip, asr #25
    430c:	1e000000 	cdpne	0, 0, cr0, cr0, cr0, {0}
    4310:	25f72008 	ldrbcs	r2, [r7, #8]!
    4314:	f72cf725 			; <UNDEFINED> instruction: 0xf72cf725
    4318:	23253300 			; <UNDEFINED> instruction: 0x23253300
    431c:	40a08080 	adcmi	r8, r0, r0, lsl #1
    4320:	00002432 	andeq	r2, r0, r2, lsr r4
    4324:	00000000 	andeq	r0, r0, r0
    4328:	0009ba1e 	andeq	fp, r9, lr, lsl sl
    432c:	06280100 	strteq	r0, [r8], -r0, lsl #2
    4330:	0004eb01 	andeq	lr, r4, r1, lsl #22
    4334:	69701f00 	ldmdbvs	r0!, {r8, r9, sl, fp, ip}^
    4338:	2801006e 	stmdacs	r1, {r1, r2, r3, r5, r6}
    433c:	00002c21 	andeq	r2, r0, r1, lsr #24
    4340:	006a2000 	rsbeq	r2, sl, r0
    4344:	28010000 	stmdacs	r1, {}	; <UNPREDICTABLE>
    4348:	00010f32 	andeq	r0, r1, r2, lsr pc
    434c:	666f2100 	strbtvs	r2, [pc], -r0, lsl #2
    4350:	2d010066 	stccs	0, cr0, [r1, #-408]	; 0xfffffe68
    4354:	00002c0e 	andeq	r2, r0, lr, lsl #24
    4358:	00672100 	rsbeq	r2, r7, r0, lsl #2
    435c:	2c0e2e01 	stccs	14, cr2, [lr], {1}
    4360:	21000000 	mrscs	r0, (UNDEF: 0)
    4364:	30010076 	andcc	r0, r1, r6, ror r0
    4368:	00002c0e 	andeq	r2, r0, lr, lsl #24
    436c:	d2220000 	eorle	r0, r2, #0, 0
    4370:	0200000a 	andeq	r0, r0, #10, 0
    4374:	006918b1 	strhteq	r1, [r9], #-129	; 0xffffff7f
    4378:	07030000 	streq	r0, [r3, -r0]
    437c:	1f000005 	svcne	0x00000005
    4380:	b1020078 	tstlt	r2, r8, ror r0
    4384:	0000692b 	andeq	r6, r0, fp, lsr #18
    4388:	a5230000 	strge	r0, [r3, #-0]!
    438c:	54000004 	strpl	r0, [r0], #-4
    4390:	6000009a 	mulvs	r0, sl, r0
    4394:	01000000 	mrseq	r0, (UNDEF: 0)
    4398:	0005e49c 	muleq	r5, ip, r4
    439c:	04b21500 	ldrteq	r1, [r2], #1280	; 0x500
    43a0:	2afe0000 	bcs	fff843a8 <__bss_end__+0xfff79cd0>
    43a4:	2afa0000 	bcs	ffe843ac <__bss_end__+0xffe79cd4>
    43a8:	be150000 	cdplt	0, 1, cr0, cr5, cr0, {0}
    43ac:	23000004 	movwcs	r0, #4
    43b0:	1f00002b 	svcne	0x0000002b
    43b4:	1b00002b 	blne	4468 <__code_start__-0x3b98>
    43b8:	000004ca 	andeq	r0, r0, sl, asr #9
    43bc:	0004d61b 	andeq	sp, r4, fp, lsl r6
    43c0:	04e01b00 	strbteq	r1, [r0], #2816	; 0xb00
    43c4:	a5180000 	ldrge	r0, [r8, #-0]
    43c8:	5c000004 	stcpl	0, cr0, [r0], {4}
    43cc:	0000009a 	muleq	r0, sl, r0
    43d0:	00000350 	andeq	r0, r0, r0, asr r3
    43d4:	15062801 	strne	r2, [r6, #-2049]	; 0xfffff7ff
    43d8:	000004be 			; <UNDEFINED> instruction: 0x000004be
    43dc:	00002b48 	andeq	r2, r0, r8, asr #22
    43e0:	00002b44 	andeq	r2, r0, r4, asr #22
    43e4:	0004b215 	andeq	fp, r4, r5, lsl r2
    43e8:	002b6d00 	eoreq	r6, fp, r0, lsl #26
    43ec:	002b6900 	eoreq	r6, fp, r0, lsl #18
    43f0:	03501a00 	cmpeq	r0, #0, 20
    43f4:	ca1c0000 	bgt	7043fc <__bss_end__+0x6f9d24>
    43f8:	92000004 	andls	r0, r0, #4, 0
    43fc:	8e00002b 	cdphi	0, 0, cr0, cr0, cr11, {1}
    4400:	1c00002b 	stcne	0, cr0, [r0], {43}	; 0x2b
    4404:	000004d6 	ldrdeq	r0, [r0], -r6
    4408:	00002bde 	ldrdeq	r2, [r0], -lr
    440c:	00002bd8 	ldrdeq	r2, [r0], -r8
    4410:	0004e01c 	andeq	lr, r4, ip, lsl r0
    4414:	002c3400 	eoreq	r3, ip, r0, lsl #8
    4418:	002c2c00 	eoreq	r2, ip, r0, lsl #24
    441c:	9a941d00 	bls	fe50b824 <__bss_end__+0xfe50114c>
    4420:	065e0000 	ldrbeq	r0, [lr], -r0
    4424:	05ae0000 	streq	r0, [lr, #0]!
    4428:	01120000 	tsteq	r2, r0
    442c:	00760250 	rsbseq	r0, r6, r0, asr r2
    4430:	9ab01600 	bls	fec09c38 <__bss_end__+0xfebff560>
    4434:	066a0000 	strbteq	r0, [sl], -r0
    4438:	01120000 	tsteq	r2, r0
    443c:	01f32550 	mvnseq	r2, r0, asr r5
    4440:	f72cf750 			; <UNDEFINED> instruction: 0xf72cf750
    4444:	0825f425 	stmdaeq	r5!, {r0, r2, r5, sl, ip, sp, lr, pc}
    4448:	cccccccd 	stclgt	12, cr12, [ip], {205}	; 0xcd
    444c:	00000000 	andeq	r0, r0, r0
    4450:	f720081e 			; <UNDEFINED> instruction: 0xf720081e
    4454:	2cf72525 	cfldr64cs	mvdx2, [r7], #148	; 0x94
    4458:	253300f7 	ldrcs	r0, [r3, #-247]!	; 0xffffff09
    445c:	a0808023 	addge	r8, r0, r3, lsr #32
    4460:	00243240 	eoreq	r3, r4, r0, asr #4
    4464:	23000000 	movwcs	r0, #0
    4468:	0000038d 	andeq	r0, r0, sp, lsl #7
    446c:	00009b0c 	andeq	r9, r0, ip, lsl #22
    4470:	00000018 	andeq	r0, r0, r8, lsl r0
    4474:	06219c01 	strteq	r9, [r1], -r1, lsl #24
    4478:	9a150000 	bls	544480 <__bss_end__+0x539da8>
    447c:	8a000003 	bhi	4490 <__code_start__-0x3b70>
    4480:	8400002c 	strhi	r0, [r0], #-44	; 0xffffffd4
    4484:	1600002c 	strne	r0, [r0], -ip, lsr #32
    4488:	00009b20 	andeq	r9, r0, r0, lsr #22
    448c:	0000066a 	andeq	r0, r0, sl, ror #12
    4490:	05500112 	ldrbeq	r0, [r0, #-274]	; 0xfffffeee
    4494:	20001c0c 	andcs	r1, r0, ip, lsl #24
    4498:	51011220 	tstpl	r1, r0, lsr #4
    449c:	01f33105 	mvnseq	r3, r5, lsl #2
    44a0:	00002450 	andeq	r2, r0, r0, asr r4
    44a4:	00037323 	andeq	r7, r3, r3, lsr #6
    44a8:	009b2400 	addseq	r2, fp, r0, lsl #8
    44ac:	00001800 	andeq	r1, r0, r0, lsl #16
    44b0:	5e9c0100 	fmlple	f0, f4, f0
    44b4:	15000006 	strne	r0, [r0, #-6]
    44b8:	00000380 	andeq	r0, r0, r0, lsl #7
    44bc:	00002cbc 			; <UNDEFINED> instruction: 0x00002cbc
    44c0:	00002cb6 			; <UNDEFINED> instruction: 0x00002cb6
    44c4:	009b3816 	addseq	r3, fp, r6, lsl r8
    44c8:	00066a00 	andeq	r6, r6, r0, lsl #20
    44cc:	50011200 	andpl	r1, r1, r0, lsl #4
    44d0:	00280c05 	eoreq	r0, r8, r5, lsl #24
    44d4:	01122020 	tsteq	r2, r0, lsr #32
    44d8:	f3310551 	vqrshl.u64	q0, <illegal reg q0.5>, <illegal reg q0.5>
    44dc:	00245001 	eoreq	r5, r4, r1
    44e0:	078f2400 	streq	r2, [pc, r0, lsl #8]
    44e4:	078f0000 	streq	r0, [pc, r0]
    44e8:	c2020000 	andgt	r0, r2, #0, 0
    44ec:	06fb240a 	ldrbteq	r2, [fp], sl, lsl #8
    44f0:	06fb0000 	ldrbteq	r0, [fp], r0
    44f4:	ad020000 	stcge	0, cr0, [r2, #-0]
    44f8:	01490006 	cmpeq	r9, r6
    44fc:	00040000 	andeq	r0, r4, r0
    4500:	0000183a 	andeq	r1, r0, sl, lsr r8
    4504:	04520104 	ldrbeq	r0, [r2], #-260	; 0xfffffefc
    4508:	640c0000 	strvs	r0, [ip], #-0
    450c:	0a00000b 	beq	4540 <__code_start__-0x3ac0>
    4510:	ec000005 	stc	0, cr0, [r0], {5}
    4514:	3c00009b 	stccc	0, cr0, [r0], {155}	; 0x9b
    4518:	76000000 	strvc	r0, [r0], -r0
    451c:	02000021 	andeq	r0, r0, #33, 0	; 0x21
    4520:	6e690504 	cdpvs	5, 6, cr0, cr9, cr4, {0}
    4524:	04030074 	streq	r0, [r3], #-116	; 0xffffff8c
    4528:	00009a07 	andeq	r9, r0, r7, lsl #20
    452c:	06010300 	streq	r0, [r1], -r0, lsl #6
    4530:	0000002c 	andeq	r0, r0, ip, lsr #32
    4534:	ee050203 	cdp	2, 0, cr0, cr5, cr3, {0}
    4538:	03000000 	movweq	r0, #0
    453c:	00ac0504 	adceq	r0, ip, r4, lsl #10
    4540:	08030000 	stmdaeq	r3, {}	; <UNPREDICTABLE>
    4544:	0000a705 	andeq	sl, r0, r5, lsl #14
    4548:	08010300 	stmdaeq	r1, {r8, r9}
    454c:	0000002a 	andeq	r0, r0, sl, lsr #32
    4550:	45070203 	strmi	r0, [r7, #-515]	; 0xfffffdfd
    4554:	03000000 	movweq	r0, #0
    4558:	00950704 	addseq	r0, r5, r4, lsl #14
    455c:	08030000 	stmdaeq	r3, {}	; <UNPREDICTABLE>
    4560:	00009007 	andeq	r9, r0, r7
    4564:	00250400 	eoreq	r0, r5, r0, lsl #8
    4568:	007a0000 	rsbseq	r0, sl, r0
    456c:	25050000 	strcs	r0, [r5, #-0]
    4570:	00000000 	andeq	r0, r0, r0
    4574:	00010206 	andeq	r0, r1, r6, lsl #4
    4578:	0e1c0200 	cdpeq	2, 1, cr0, cr12, cr0, {0}
    457c:	00000086 	andeq	r0, r0, r6, lsl #1
    4580:	006b0407 	rsbeq	r0, fp, r7, lsl #8
    4584:	25040000 	strcs	r0, [r4, #-0]
    4588:	9b000000 	blls	4590 <__code_start__-0x3a70>
    458c:	05000000 	streq	r0, [r0, #-0]
    4590:	0000009b 	muleq	r0, fp, r0
    4594:	a8040700 	stmdage	r4, {r8, r9, sl}
    4598:	03000000 	movweq	r0, #0
    459c:	00330801 	eorseq	r0, r3, r1, lsl #16
    45a0:	a1080000 	mrsge	r0, (UNDEF: 8)
    45a4:	06000000 	streq	r0, [r0], -r0
    45a8:	00000572 	andeq	r0, r0, r2, ror r5
    45ac:	b90e2102 	stmdblt	lr, {r1, r8, sp}
    45b0:	07000000 	streq	r0, [r0, -r0]
    45b4:	00008c04 	andeq	r8, r0, r4, lsl #24
    45b8:	007a0900 	rsbseq	r0, sl, r0, lsl #18
    45bc:	06010000 	streq	r0, [r1], -r0
    45c0:	b4030507 	strlt	r0, [r3], #-1287	; 0xfffffaf9
    45c4:	0a0000a2 	beq	4854 <__code_start__-0x37ac>
    45c8:	00000b57 	andeq	r0, r0, r7, asr fp
    45cc:	18060b01 	stmdane	r6, {r0, r8, r9, fp}
    45d0:	1000009c 	mulne	r0, ip, r0
    45d4:	01000000 	mrseq	r0, (UNDEF: 0)
    45d8:	0000f19c 	muleq	r0, ip, r1
    45dc:	70660b00 	rsbvc	r0, r6, r0, lsl #22
    45e0:	190b0100 	stmdbne	fp, {r8}
    45e4:	00000086 	andeq	r0, r0, r6, lsl #1
    45e8:	0c005001 	stceq	0, cr5, [r0], {1}
    45ec:	00000a94 	muleq	r0, r4, sl
    45f0:	00060801 	andeq	r0, r6, r1, lsl #16
    45f4:	1800009c 	stmdane	r0, {r2, r3, r4, r7}
    45f8:	01000000 	mrseq	r0, (UNDEF: 0)
    45fc:	0b460d9c 	bleq	1187c74 <__bss_end__+0x117d59c>
    4600:	03010000 	movweq	r0, #4096	; 0x1000
    4604:	0000250c 	andeq	r2, r0, ip, lsl #10
    4608:	009bec00 	addseq	lr, fp, r0, lsl #24
    460c:	00001400 	andeq	r1, r0, r0, lsl #8
    4610:	409c0100 	addsmi	r0, ip, r0, lsl #2
    4614:	0e000001 	cdpeq	0, 0, cr0, cr0, cr1, {0}
    4618:	03010063 	movweq	r0, #4195	; 0x1063
    461c:	00002521 	andeq	r2, r0, r1, lsr #10
    4620:	002cec00 	eoreq	lr, ip, r0, lsl #24
    4624:	002ce800 	eoreq	lr, ip, r0, lsl #16
    4628:	9bf80f00 	blls	ffe08230 <__bss_end__+0xffdfdb58>
    462c:	01400000 	mrseq	r0, (UNDEF: 64)
    4630:	01100000 	tsteq	r0, r0
    4634:	00740250 	rsbseq	r0, r4, r0, asr r2
    4638:	a0110000 	andsge	r0, r1, r0
    463c:	a0000009 	andge	r0, r0, r9
    4640:	02000009 	andeq	r0, r0, #9, 0
    4644:	37000642 	strcc	r0, [r0, -r2, asr #12]
    4648:	04000001 	streq	r0, [r0], #-1
    464c:	00194900 	andseq	r4, r9, r0, lsl #18
    4650:	52010400 	andpl	r0, r1, #0, 8
    4654:	0c000004 	stceq	0, cr0, [r0], {4}
    4658:	00000b75 	andeq	r0, r0, r5, ror fp
    465c:	0000050a 	andeq	r0, r0, sl, lsl #10
    4660:	00009c28 	andeq	r9, r0, r8, lsr #24
    4664:	0000002c 	andeq	r0, r0, ip, lsr #32
    4668:	00002218 	andeq	r2, r0, r8, lsl r2
    466c:	69050402 	stmdbvs	r5, {r1, sl}
    4670:	0300746e 	movweq	r7, #1134	; 0x46e
    4674:	009a0704 	addseq	r0, sl, r4, lsl #14
    4678:	01030000 	mrseq	r0, (UNDEF: 3)
    467c:	00002c06 	andeq	r2, r0, r6, lsl #24
    4680:	05020300 	streq	r0, [r2, #-768]	; 0xfffffd00
    4684:	000000ee 	andeq	r0, r0, lr, ror #1
    4688:	ac050403 	cfstrsge	mvf0, [r5], {3}
    468c:	03000000 	movweq	r0, #0
    4690:	00a70508 	adceq	r0, r7, r8, lsl #10
    4694:	01030000 	mrseq	r0, (UNDEF: 3)
    4698:	00002a08 	andeq	r2, r0, r8, lsl #20
    469c:	07020300 	streq	r0, [r2, -r0, lsl #6]
    46a0:	00000045 	andeq	r0, r0, r5, asr #32
    46a4:	95070403 	strls	r0, [r7, #-1027]	; 0xfffffbfd
    46a8:	03000000 	movweq	r0, #0
    46ac:	00900708 	addseq	r0, r0, r8, lsl #14
    46b0:	25040000 	strcs	r0, [r4, #-0]
    46b4:	7a000000 	bvc	46bc <__code_start__-0x3944>
    46b8:	05000000 	streq	r0, [r0, #-0]
    46bc:	00000025 	andeq	r0, r0, r5, lsr #32
    46c0:	01020600 	tsteq	r2, r0, lsl #12
    46c4:	1c020000 	stcne	0, cr0, [r2], {-0}
    46c8:	0000860e 	andeq	r8, r0, lr, lsl #12
    46cc:	6b040700 	blvs	1062d4 <__bss_end__+0xfbbfc>
    46d0:	04000000 	streq	r0, [r0], #-0
    46d4:	00000025 	andeq	r0, r0, r5, lsr #32
    46d8:	0000009b 	muleq	r0, fp, r0
    46dc:	00009b05 	andeq	r9, r0, r5, lsl #22
    46e0:	04070000 	streq	r0, [r7], #-0
    46e4:	000000a8 	andeq	r0, r0, r8, lsr #1
    46e8:	33080103 	movwcc	r0, #33027	; 0x8103
    46ec:	08000000 	stmdaeq	r0, {}	; <UNPREDICTABLE>
    46f0:	000000a1 	andeq	r0, r0, r1, lsr #1
    46f4:	00057206 	andeq	r7, r5, r6, lsl #4
    46f8:	0e210200 	cdpeq	2, 2, cr0, cr1, cr0, {0}
    46fc:	000000b9 	strheq	r0, [r0], -r9
    4700:	008c0407 	addeq	r0, ip, r7, lsl #8
    4704:	ee090000 	cdp	0, 0, cr0, cr9, cr0, {0}
    4708:	01000005 	tsteq	r0, r5
    470c:	01340704 	teqeq	r4, r4, lsl #14
    4710:	9c280000 	stcls	0, cr0, [r8], #-0
    4714:	002c0000 	eoreq	r0, ip, r0
    4718:	9c010000 	stcls	0, cr0, [r1], {-0}
    471c:	00000134 	andeq	r0, r0, r4, lsr r1
    4720:	000b850a 	andeq	r8, fp, sl, lsl #10
    4724:	15040100 	strne	r0, [r4, #-256]	; 0xffffff00
    4728:	00000134 	andeq	r0, r0, r4, lsr r1
    472c:	730b5001 	movwvc	r5, #45057	; 0xb001
    4730:	01006372 	tsteq	r0, r2, ror r3
    4734:	009b2704 	addseq	r2, fp, r4, lsl #14
    4738:	2d0e0000 	stccs	0, cr0, [lr, #-0]
    473c:	2d0a0000 	stccs	0, cr0, [sl, #-0]
    4740:	730c0000 	movwvc	r0, #49152	; 0xc000
    4744:	05010031 	streq	r0, [r1, #-49]	; 0xffffffcf
    4748:	0001340b 	andeq	r3, r1, fp, lsl #8
    474c:	002d3d00 	eoreq	r3, sp, r0, lsl #26
    4750:	002d2f00 	eoreq	r2, sp, r0, lsl #30
    4754:	32730c00 	rsbscc	r0, r3, #0, 24
    4758:	11060100 	mrsne	r0, (UNDEF: 22)
    475c:	0000009b 	muleq	r0, fp, r0
    4760:	00002d9c 	muleq	r0, ip, sp
    4764:	00002d96 	muleq	r0, r6, sp
    4768:	0100630c 	tsteq	r0, ip, lsl #6
    476c:	00a10a07 	adceq	r0, r1, r7, lsl #20
    4770:	2dcd0000 	stclcs	0, cr0, [sp]
    4774:	2dc70000 	stclcs	0, cr0, [r7]
    4778:	07000000 	streq	r0, [r0, -r0]
    477c:	0000a104 	andeq	sl, r0, r4, lsl #2
    4780:	00f70000 	rscseq	r0, r7, r0
    4784:	00040000 	andeq	r0, r4, r0
    4788:	000019ff 	strdeq	r1, [r0], -pc	; <UNPREDICTABLE>
    478c:	04520104 	ldrbeq	r0, [r2], #-260	; 0xfffffefc
    4790:	8a0c0000 	bhi	304798 <__bss_end__+0x2fa0c0>
    4794:	0a00000b 	beq	47c8 <__code_start__-0x3838>
    4798:	54000005 	strpl	r0, [r0], #-5
    479c:	4400009c 	strmi	r0, [r0], #-156	; 0xffffff64
    47a0:	fe000000 	cdp2	0, 0, cr0, cr0, cr0, {0}
    47a4:	02000022 	andeq	r0, r0, #34, 0	; 0x22
    47a8:	6e690504 	cdpvs	5, 6, cr0, cr9, cr4, {0}
    47ac:	04030074 	streq	r0, [r3], #-116	; 0xffffff8c
    47b0:	00009a07 	andeq	r9, r0, r7, lsl #20
    47b4:	06010300 	streq	r0, [r1], -r0, lsl #6
    47b8:	0000002c 	andeq	r0, r0, ip, lsr #32
    47bc:	ee050203 	cdp	2, 0, cr0, cr5, cr3, {0}
    47c0:	03000000 	movweq	r0, #0
    47c4:	00ac0504 	adceq	r0, ip, r4, lsl #10
    47c8:	08030000 	stmdaeq	r3, {}	; <UNPREDICTABLE>
    47cc:	0000a705 	andeq	sl, r0, r5, lsl #14
    47d0:	08010300 	stmdaeq	r1, {r8, r9}
    47d4:	0000002a 	andeq	r0, r0, sl, lsr #32
    47d8:	45070203 	strmi	r0, [r7, #-515]	; 0xfffffdfd
    47dc:	03000000 	movweq	r0, #0
    47e0:	00950704 	addseq	r0, r5, r4, lsl #14
    47e4:	08030000 	stmdaeq	r3, {}	; <UNPREDICTABLE>
    47e8:	00009007 	andeq	r9, r0, r7
    47ec:	00250400 	eoreq	r0, r5, r0, lsl #8
    47f0:	007a0000 	rsbseq	r0, sl, r0
    47f4:	25050000 	strcs	r0, [r5, #-0]
    47f8:	00000000 	andeq	r0, r0, r0
    47fc:	00010206 	andeq	r0, r1, r6, lsl #4
    4800:	0e1c0200 	cdpeq	2, 1, cr0, cr12, cr0, {0}
    4804:	00000086 	andeq	r0, r0, r6, lsl #1
    4808:	006b0407 	rsbeq	r0, fp, r7, lsl #8
    480c:	25040000 	strcs	r0, [r4, #-0]
    4810:	9b000000 	blls	4818 <__code_start__-0x37e8>
    4814:	05000000 	streq	r0, [r0, #-0]
    4818:	0000009b 	muleq	r0, fp, r0
    481c:	a8040700 	stmdage	r4, {r8, r9, sl}
    4820:	03000000 	movweq	r0, #0
    4824:	00330801 	eorseq	r0, r3, r1, lsl #16
    4828:	a1080000 	mrsge	r0, (UNDEF: 8)
    482c:	06000000 	streq	r0, [r0], -r0
    4830:	00000572 	andeq	r0, r0, r2, ror r5
    4834:	b90e2102 	stmdblt	lr, {r1, r8, sp}
    4838:	07000000 	streq	r0, [r0, -r0]
    483c:	00008c04 	andeq	r8, r0, r4, lsl #24
    4840:	061c0900 	ldreq	r0, [ip], -r0, lsl #18
    4844:	03010000 	movweq	r0, #4096	; 0x1000
    4848:	00002505 	andeq	r2, r0, r5, lsl #10
    484c:	009c5400 	addseq	r5, ip, r0, lsl #8
    4850:	00004400 	andeq	r4, r0, r0, lsl #8
    4854:	0a9c0100 	beq	fe704c5c <__bss_end__+0xfe6fa584>
    4858:	03010061 	movweq	r0, #4193	; 0x1061
    485c:	00009b18 	andeq	r9, r0, r8, lsl fp
    4860:	002e0400 	eoreq	r0, lr, r0, lsl #8
    4864:	002df800 	eoreq	pc, sp, r0, lsl #16
    4868:	00620a00 	rsbeq	r0, r2, r0, lsl #20
    486c:	9b270301 	blls	9c5478 <__bss_end__+0x9bada0>
    4870:	58000000 	stmdapl	r0, {}	; <UNPREDICTABLE>
    4874:	5200002e 	andpl	r0, r0, #46, 0	; 0x2e
    4878:	0000002e 	andeq	r0, r0, lr, lsr #32
    487c:	00010f00 	andeq	r0, r1, r0, lsl #30
    4880:	8e000400 	cfcpyshi	mvf0, mvf0
    4884:	0400001a 	streq	r0, [r0], #-26	; 0xffffffe6
    4888:	00045201 	andeq	r5, r4, r1, lsl #4
    488c:	0b9a0c00 	bleq	fe687894 <__bss_end__+0xfe67d1bc>
    4890:	050a0000 	streq	r0, [sl, #-0]
    4894:	9c980000 	ldcls	0, cr0, [r8], {0}
    4898:	00180000 	andseq	r0, r8, r0
    489c:	23b40000 			; <UNDEFINED> instruction: 0x23b40000
    48a0:	04020000 	streq	r0, [r2], #-0
    48a4:	746e6905 	strbtvc	r6, [lr], #-2309	; 0xfffff6fb
    48a8:	07040300 	streq	r0, [r4, -r0, lsl #6]
    48ac:	0000009a 	muleq	r0, sl, r0
    48b0:	2c060103 	stfcss	f0, [r6], {3}
    48b4:	03000000 	movweq	r0, #0
    48b8:	00ee0502 	rsceq	r0, lr, r2, lsl #10
    48bc:	04030000 	streq	r0, [r3], #-0
    48c0:	0000ac05 	andeq	sl, r0, r5, lsl #24
    48c4:	05080300 	streq	r0, [r8, #-768]	; 0xfffffd00
    48c8:	000000a7 	andeq	r0, r0, r7, lsr #1
    48cc:	2a080103 	bcs	204ce0 <__bss_end__+0x1fa608>
    48d0:	03000000 	movweq	r0, #0
    48d4:	00450702 	subeq	r0, r5, r2, lsl #14
    48d8:	04030000 	streq	r0, [r3], #-0
    48dc:	00009507 	andeq	r9, r0, r7, lsl #10
    48e0:	07080300 	streq	r0, [r8, -r0, lsl #6]
    48e4:	00000090 	muleq	r0, r0, r0
    48e8:	00002504 	andeq	r2, r0, r4, lsl #10
    48ec:	00007a00 	andeq	r7, r0, r0, lsl #20
    48f0:	00250500 	eoreq	r0, r5, r0, lsl #10
    48f4:	06000000 	streq	r0, [r0], -r0
    48f8:	00000102 	andeq	r0, r0, r2, lsl #2
    48fc:	860e1c02 	strhi	r1, [lr], -r2, lsl #24
    4900:	07000000 	streq	r0, [r0, -r0]
    4904:	00006b04 	andeq	r6, r0, r4, lsl #22
    4908:	00250400 	eoreq	r0, r5, r0, lsl #8
    490c:	009b0000 	addseq	r0, fp, r0
    4910:	9b050000 	blls	144918 <__bss_end__+0x13a240>
    4914:	00000000 	andeq	r0, r0, r0
    4918:	00a80407 	adceq	r0, r8, r7, lsl #8
    491c:	01030000 	mrseq	r0, (UNDEF: 3)
    4920:	00003308 	andeq	r3, r0, r8, lsl #6
    4924:	00a10800 	adceq	r0, r1, r0, lsl #16
    4928:	72060000 	andvc	r0, r6, #0, 0
    492c:	02000005 	andeq	r0, r0, #5, 0
    4930:	00b90e21 	adcseq	r0, r9, r1, lsr #28
    4934:	04070000 	streq	r0, [r7], #-0
    4938:	0000008c 	andeq	r0, r0, ip, lsl #1
    493c:	0005f509 	andeq	pc, r5, r9, lsl #10
    4940:	07030100 	streq	r0, [r3, -r0, lsl #2]
    4944:	0000010c 	andeq	r0, r0, ip, lsl #2
    4948:	00009c98 	muleq	r0, r8, ip
    494c:	00000018 	andeq	r0, r0, r8, lsl r0
    4950:	010c9c01 	tsteq	ip, r1, lsl #24
    4954:	730a0000 	movwvc	r0, #40960	; 0xa000
    4958:	03010031 	movweq	r0, #4145	; 0x1031
    495c:	00010c15 	andeq	r0, r1, r5, lsl ip
    4960:	0b500100 	bleq	1404d68 <__bss_end__+0x13fa690>
    4964:	01003273 	tsteq	r0, r3, ror r2
    4968:	009b2603 	addseq	r2, fp, r3, lsl #12
    496c:	2e870000 	cdpcs	0, 8, cr0, cr7, cr0, {0}
    4970:	2e810000 	cdpcs	0, 8, cr0, cr1, cr0, {0}
    4974:	730c0000 	movwvc	r0, #49152	; 0xc000
    4978:	14040100 	strne	r0, [r4], #-256	; 0xffffff00
    497c:	0000010c 	andeq	r0, r0, ip, lsl #2
    4980:	00002eb4 			; <UNDEFINED> instruction: 0x00002eb4
    4984:	00002eb2 			; <UNDEFINED> instruction: 0x00002eb2
    4988:	a1040700 	tstge	r4, r0, lsl #14
    498c:	00000000 	andeq	r0, r0, r0
    4990:	0000014e 	andeq	r0, r0, lr, asr #2
    4994:	1b440004 	blne	11049ac <__bss_end__+0x10fa2d4>
    4998:	01040000 	mrseq	r0, (UNDEF: 4)
    499c:	00000452 	andeq	r0, r0, r2, asr r4
    49a0:	000baa0c 	andeq	sl, fp, ip, lsl #20
    49a4:	00050a00 	andeq	r0, r5, r0, lsl #20
    49a8:	009cb000 	addseq	fp, ip, r0
    49ac:	00003000 	andeq	r3, r0, r0
    49b0:	00245500 	eoreq	r5, r4, r0, lsl #10
    49b4:	05040200 	streq	r0, [r4, #-512]	; 0xfffffe00
    49b8:	00746e69 	rsbseq	r6, r4, r9, ror #28
    49bc:	00043b03 	andeq	r3, r4, r3, lsl #22
    49c0:	17d10300 	ldrbne	r0, [r1, r0, lsl #6]
    49c4:	00000038 	andeq	r0, r0, r8, lsr r0
    49c8:	9a070404 	bls	1c59e0 <__bss_end__+0x1bb308>
    49cc:	04000000 	streq	r0, [r0], #-0
    49d0:	002c0601 	eoreq	r0, ip, r1, lsl #12
    49d4:	02040000 	andeq	r0, r4, #0, 0
    49d8:	0000ee05 	andeq	lr, r0, r5, lsl #28
    49dc:	05040400 	streq	r0, [r4, #-1024]	; 0xfffffc00
    49e0:	000000ac 	andeq	r0, r0, ip, lsr #1
    49e4:	a7050804 	strge	r0, [r5, -r4, lsl #16]
    49e8:	04000000 	streq	r0, [r0], #-0
    49ec:	002a0801 	eoreq	r0, sl, r1, lsl #16
    49f0:	5b050000 	blpl	1449f8 <__bss_end__+0x13a320>
    49f4:	04000000 	streq	r0, [r0], #-0
    49f8:	00450702 	subeq	r0, r5, r2, lsl #14
    49fc:	04040000 	streq	r0, [r4], #-0
    4a00:	00009507 	andeq	r9, r0, r7, lsl #10
    4a04:	07080400 	streq	r0, [r8, -r0, lsl #8]
    4a08:	00000090 	muleq	r0, r0, r0
    4a0c:	00002506 	andeq	r2, r0, r6, lsl #10
    4a10:	00008b00 	andeq	r8, r0, r0, lsl #22
    4a14:	00250700 	eoreq	r0, r5, r0, lsl #14
    4a18:	08000000 	stmdaeq	r0, {}	; <UNPREDICTABLE>
    4a1c:	00000102 	andeq	r0, r0, r2, lsl #2
    4a20:	970e1c02 	strls	r1, [lr, -r2, lsl #24]
    4a24:	09000000 	stmdbeq	r0, {}	; <UNPREDICTABLE>
    4a28:	00007c04 	andeq	r7, r0, r4, lsl #24
    4a2c:	00250600 	eoreq	r0, r5, r0, lsl #12
    4a30:	00ac0000 	adceq	r0, ip, r0
    4a34:	ac070000 	stcge	0, cr0, [r7], {-0}
    4a38:	00000000 	andeq	r0, r0, r0
    4a3c:	00b90409 	adcseq	r0, r9, r9, lsl #8
    4a40:	01040000 	mrseq	r0, (UNDEF: 4)
    4a44:	00003308 	andeq	r3, r0, r8, lsl #6
    4a48:	00b20500 	adcseq	r0, r2, r0, lsl #10
    4a4c:	72080000 	andvc	r0, r8, #0, 0
    4a50:	02000005 	andeq	r0, r0, #5, 0
    4a54:	00ca0e21 	sbceq	r0, sl, r1, lsr #28
    4a58:	04090000 	streq	r0, [r9], #-0
    4a5c:	0000009d 	muleq	r0, sp, r0
    4a60:	00063d0a 	andeq	r3, r6, sl, lsl #26
    4a64:	05040100 	streq	r0, [r4, #-256]	; 0xffffff00
    4a68:	00000025 	andeq	r0, r0, r5, lsr #32
    4a6c:	00009cb0 			; <UNDEFINED> instruction: 0x00009cb0
    4a70:	00000030 	andeq	r0, r0, r0, lsr r0
    4a74:	014b9c01 	cmpeq	fp, r1, lsl #24
    4a78:	5f0b0000 	svcpl	0x000b0000
    4a7c:	01003173 	tsteq	r0, r3, ror r1
    4a80:	00ac1904 	adceq	r1, ip, r4, lsl #18
    4a84:	2ecb0000 	cdpcs	0, 12, cr0, cr11, cr0, {0}
    4a88:	2ec70000 	cdpcs	0, 12, cr0, cr7, cr0, {0}
    4a8c:	5f0b0000 	svcpl	0x000b0000
    4a90:	01003273 	tsteq	r0, r3, ror r2
    4a94:	00ac2a04 	adceq	r2, ip, r4, lsl #20
    4a98:	2ef00000 	cdpcs	0, 15, cr0, cr0, cr0, {0}
    4a9c:	2eec0000 	cdpcs	0, 14, cr0, cr12, cr0, {0}
    4aa0:	6e0b0000 	cdpvs	0, 0, cr0, cr11, cr0, {0}
    4aa4:	36040100 	strcc	r0, [r4], -r0, lsl #2
    4aa8:	0000002c 	andeq	r0, r0, ip, lsr #32
    4aac:	00002f1b 	andeq	r2, r0, fp, lsl pc
    4ab0:	00002f11 	andeq	r2, r0, r1, lsl pc
    4ab4:	0031730c 	eorseq	r7, r1, ip, lsl #6
    4ab8:	4b1a0501 	blmi	685ec4 <__bss_end__+0x67b7ec>
    4abc:	72000001 	andvc	r0, r0, #1, 0
    4ac0:	6a00002f 	bvs	4b84 <__code_start__-0x347c>
    4ac4:	0c00002f 	stceq	0, cr0, [r0], {47}	; 0x2f
    4ac8:	01003273 	tsteq	r0, r3, ror r2
    4acc:	014b2c05 	cmpeq	fp, r5, lsl #24
    4ad0:	2fb00000 	svccs	0x00b00000
    4ad4:	2faa0000 	svccs	0x00aa0000
    4ad8:	09000000 	stmdbeq	r0, {}	; <UNPREDICTABLE>
    4adc:	00006204 	andeq	r6, r0, r4, lsl #4
    4ae0:	00ce0000 	sbceq	r0, lr, r0
    4ae4:	00040000 	andeq	r0, r4, r0
    4ae8:	00001bf8 	strdeq	r1, [r0], -r8
    4aec:	04520104 	ldrbeq	r0, [r2], #-260	; 0xfffffefc
    4af0:	bb0c0000 	bllt	304af8 <__bss_end__+0x2fa420>
    4af4:	0a00000b 	beq	4b28 <__code_start__-0x34d8>
    4af8:	e0000005 	and	r0, r0, r5
    4afc:	0400009c 	streq	r0, [r0], #-156	; 0xffffff64
    4b00:	56000000 	strpl	r0, [r0], -r0
    4b04:	02000025 	andeq	r0, r0, #37, 0	; 0x25
    4b08:	6e690504 	cdpvs	5, 6, cr0, cr9, cr4, {0}
    4b0c:	04030074 	streq	r0, [r3], #-116	; 0xffffff8c
    4b10:	00009a07 	andeq	r9, r0, r7, lsl #20
    4b14:	06010300 	streq	r0, [r1], -r0, lsl #6
    4b18:	0000002c 	andeq	r0, r0, ip, lsr #32
    4b1c:	ee050203 	cdp	2, 0, cr0, cr5, cr3, {0}
    4b20:	03000000 	movweq	r0, #0
    4b24:	00ac0504 	adceq	r0, ip, r4, lsl #10
    4b28:	08030000 	stmdaeq	r3, {}	; <UNPREDICTABLE>
    4b2c:	0000a705 	andeq	sl, r0, r5, lsl #14
    4b30:	08010300 	stmdaeq	r1, {r8, r9}
    4b34:	0000002a 	andeq	r0, r0, sl, lsr #32
    4b38:	45070203 	strmi	r0, [r7, #-515]	; 0xfffffdfd
    4b3c:	03000000 	movweq	r0, #0
    4b40:	00950704 	addseq	r0, r5, r4, lsl #14
    4b44:	08030000 	stmdaeq	r3, {}	; <UNPREDICTABLE>
    4b48:	00009007 	andeq	r9, r0, r7
    4b4c:	00250400 	eoreq	r0, r5, r0, lsl #8
    4b50:	007a0000 	rsbseq	r0, sl, r0
    4b54:	25050000 	strcs	r0, [r5, #-0]
    4b58:	00000000 	andeq	r0, r0, r0
    4b5c:	00010206 	andeq	r0, r1, r6, lsl #4
    4b60:	0e1c0200 	cdpeq	2, 1, cr0, cr12, cr0, {0}
    4b64:	00000086 	andeq	r0, r0, r6, lsl #1
    4b68:	006b0407 	rsbeq	r0, fp, r7, lsl #8
    4b6c:	25040000 	strcs	r0, [r4, #-0]
    4b70:	9b000000 	blls	4b78 <__code_start__-0x3488>
    4b74:	05000000 	streq	r0, [r0, #-0]
    4b78:	0000009b 	muleq	r0, fp, r0
    4b7c:	a8040700 	stmdage	r4, {r8, r9, sl}
    4b80:	03000000 	movweq	r0, #0
    4b84:	00330801 	eorseq	r0, r3, r1, lsl #16
    4b88:	a1080000 	mrsge	r0, (UNDEF: 8)
    4b8c:	06000000 	streq	r0, [r0], -r0
    4b90:	00000572 	andeq	r0, r0, r2, ror r5
    4b94:	b90e2102 	stmdblt	lr, {r1, r8, sp}
    4b98:	07000000 	streq	r0, [r0, -r0]
    4b9c:	00008c04 	andeq	r8, r0, r4, lsl #24
    4ba0:	06e40900 	strbteq	r0, [r4], r0, lsl #18
    4ba4:	03010000 	movweq	r0, #4096	; 0x1000
    4ba8:	009ce006 	addseq	lr, ip, r6
    4bac:	00000400 	andeq	r0, r0, r0, lsl #8
    4bb0:	009c0100 	addseq	r0, ip, r0, lsl #2

Disassembly of section .debug_abbrev:

00000000 <.debug_abbrev>:
       0:	25011101 	strcs	r1, [r1, #-257]	; 0xfffffeff
       4:	030b130e 	movweq	r1, #45838	; 0xb30e
       8:	110e1b0e 	tstne	lr, lr, lsl #22
       c:	10061201 	andne	r1, r6, r1, lsl #4
      10:	02000017 	andeq	r0, r0, #23, 0
      14:	0b0b0024 	bleq	2c00ac <__bss_end__+0x2b59d4>
      18:	08030b3e 	stmdaeq	r3, {r1, r2, r3, r4, r5, r8, r9, fp}
      1c:	24030000 	strcs	r0, [r3], #-0
      20:	3e0b0b00 	vmlacc.f64	d0, d11, d0
      24:	000e030b 	andeq	r0, lr, fp, lsl #6
      28:	01150400 	tsteq	r5, r0, lsl #8
      2c:	13491927 	movtne	r1, #39207	; 0x9927
      30:	00001301 	andeq	r1, r0, r1, lsl #6
      34:	49000505 	stmdbmi	r0, {r0, r2, r8, sl}
      38:	06000013 			; <UNDEFINED> instruction: 0x06000013
      3c:	0e030034 	mcreq	0, 0, r0, cr3, cr4, {1}
      40:	0b3b0b3a 	bleq	ec2d30 <__bss_end__+0xeb8658>
      44:	13490b39 	movtne	r0, #39737	; 0x9b39
      48:	193c193f 	ldmdbne	ip!, {r0, r1, r2, r3, r4, r5, r8, fp, ip}
      4c:	0f070000 	svceq	0x00070000
      50:	490b0b00 	stmdbmi	fp, {r8, r9, fp}
      54:	08000013 	stmdaeq	r0, {r0, r1, r4}
      58:	13490026 	movtne	r0, #36902	; 0x9026
      5c:	13090000 	movwne	r0, #36864	; 0x9000
      60:	3a0b0b01 	bcc	2c2c6c <__bss_end__+0x2b8594>
      64:	390b3b0b 	stmdbcc	fp, {r0, r1, r3, r8, r9, fp, ip, sp}
      68:	0013010b 	andseq	r0, r3, fp, lsl #2
      6c:	000d0a00 	andeq	r0, sp, r0, lsl #20
      70:	0b3a0e03 	bleq	e83884 <__bss_end__+0xe791ac>
      74:	0b390b3b 	bleq	e42d68 <__bss_end__+0xe38690>
      78:	0b381349 	bleq	e04da4 <__bss_end__+0xdfa6cc>
      7c:	160b0000 	strne	r0, [fp], -r0
      80:	3a0e0300 	bcc	380c88 <__bss_end__+0x3765b0>
      84:	390b3b0b 	stmdbcc	fp, {r0, r1, r3, r8, r9, fp, ip, sp}
      88:	0013490b 	andseq	r4, r3, fp, lsl #18
      8c:	012e0c00 			; <UNDEFINED> instruction: 0x012e0c00
      90:	0e03193f 			; <UNDEFINED> instruction: 0x0e03193f
      94:	0b3b0b3a 	bleq	ec2d84 <__bss_end__+0xeb86ac>
      98:	19270b39 	stmdbne	r7!, {r0, r3, r4, r5, r8, r9, fp}
      9c:	06120111 			; <UNDEFINED> instruction: 0x06120111
      a0:	42971840 	addsmi	r1, r7, #64, 16	; 0x400000
      a4:	00130119 	andseq	r0, r3, r9, lsl r1
      a8:	00340d00 	eorseq	r0, r4, r0, lsl #26
      ac:	13490e03 	movtne	r0, #40451	; 0x9e03
      b0:	18021934 	stmdane	r2, {r2, r4, r5, r8, fp, ip}
      b4:	890e0000 	stmdbhi	lr, {}	; <UNPREDICTABLE>
      b8:	11010182 	smlabbne	r1, r2, r1, r0
      bc:	01133101 	tsteq	r3, r1, lsl #2
      c0:	0f000013 	svceq	0x00000013
      c4:	0001828a 	andeq	r8, r1, sl, lsl #5
      c8:	42911802 	addsmi	r1, r1, #131072	; 0x20000
      cc:	10000018 	andne	r0, r0, r8, lsl r0
      d0:	00018289 	andeq	r8, r1, r9, lsl #5
      d4:	13310111 	teqne	r1, #1073741828	; 0x40000004
      d8:	01110000 	tsteq	r1, r0
      dc:	01134901 	tsteq	r3, r1, lsl #18
      e0:	12000013 	andne	r0, r0, #19, 0
      e4:	13490021 	movtne	r0, #36897	; 0x9021
      e8:	00000b2f 	andeq	r0, r0, pc, lsr #22
      ec:	03003413 	movweq	r3, #1043	; 0x413
      f0:	3b0b3a08 	blcc	2ce918 <__bss_end__+0x2c4240>
      f4:	490b390b 	stmdbmi	fp, {r0, r1, r3, r8, fp, ip, sp}
      f8:	b7170213 			; <UNDEFINED> instruction: 0xb7170213
      fc:	00001742 	andeq	r1, r0, r2, asr #14
     100:	31011d14 	tstcc	r1, r4, lsl sp
     104:	b8015213 	stmdalt	r1, {r0, r1, r4, r9, ip, lr}
     108:	01110b42 	tsteq	r1, r2, asr #22
     10c:	0b580612 	bleq	160195c <__bss_end__+0x15f7284>
     110:	0b570b59 	bleq	15c2e7c <__bss_end__+0x15b87a4>
     114:	00001301 	andeq	r1, r0, r1, lsl #6
     118:	31000515 	tstcc	r0, r5, lsl r5
     11c:	b7170213 			; <UNDEFINED> instruction: 0xb7170213
     120:	00001742 	andeq	r1, r0, r2, asr #14
     124:	01828916 	orreq	r8, r2, r6, lsl r9
     128:	31011101 	tstcc	r1, r1, lsl #2
     12c:	17000013 	smladne	r0, r3, r0, r0
     130:	0e03012e 	adfeqsp	f0, f3, #0.5
     134:	0b3b0b3a 	bleq	ec2e24 <__bss_end__+0xeb874c>
     138:	19270b39 	stmdbne	r7!, {r0, r3, r4, r5, r8, r9, fp}
     13c:	0b201349 	bleq	804e68 <__bss_end__+0x7fa790>
     140:	00001301 	andeq	r1, r0, r1, lsl #6
     144:	03000518 	movweq	r0, #1304	; 0x518
     148:	3b0b3a0e 	blcc	2ce988 <__bss_end__+0x2c42b0>
     14c:	490b390b 	stmdbmi	fp, {r0, r1, r3, r8, fp, ip, sp}
     150:	19000013 	stmdbne	r0, {r0, r1, r4}
     154:	193f002e 	ldmdbne	pc!, {r1, r2, r3, r5}	; <UNPREDICTABLE>
     158:	0e6e193c 			; <UNDEFINED> instruction: 0x0e6e193c
     15c:	0b3a0e03 	bleq	e83970 <__bss_end__+0xe79298>
     160:	0b390b3b 	bleq	e42e54 <__bss_end__+0xe3877c>
     164:	361a0000 	ldrcc	r0, [sl], -r0
     168:	00180200 	andseq	r0, r8, r0, lsl #4
     16c:	11010000 	mrsne	r0, (UNDEF: 1)
     170:	130e2501 	movwne	r2, #58625	; 0xe501
     174:	1b0e030b 	blne	380da8 <__bss_end__+0x3766d0>
     178:	1201110e 	andne	r1, r1, #-2147483645	; 0x80000003
     17c:	00171006 	andseq	r1, r7, r6
     180:	00240200 	eoreq	r0, r4, r0, lsl #4
     184:	0b3e0b0b 	bleq	f82db8 <__bss_end__+0xf786e0>
     188:	00000803 	andeq	r0, r0, r3, lsl #16
     18c:	0b002403 	bleq	91a0 <va_printk+0x5e8>
     190:	030b3e0b 	movweq	r3, #48651	; 0xbe0b
     194:	0400000e 	streq	r0, [r0], #-14
     198:	0e030016 	mcreq	0, 0, r0, cr3, cr6, {0}
     19c:	0b3b0b3a 	bleq	ec2e8c <__bss_end__+0xeb87b4>
     1a0:	13490b39 	movtne	r0, #39737	; 0x9b39
     1a4:	15050000 	strne	r0, [r5, #-0]
     1a8:	49192701 	ldmdbmi	r9, {r0, r8, r9, sl, sp}
     1ac:	00130113 	andseq	r0, r3, r3, lsl r1
     1b0:	00050600 	andeq	r0, r5, r0, lsl #12
     1b4:	00001349 	andeq	r1, r0, r9, asr #6
     1b8:	03003407 	movweq	r3, #1031	; 0x407
     1bc:	3b0b3a0e 	blcc	2ce9fc <__bss_end__+0x2c4324>
     1c0:	490b390b 	stmdbmi	fp, {r0, r1, r3, r8, fp, ip, sp}
     1c4:	3c193f13 	ldccc	15, cr3, [r9], {19}
     1c8:	08000019 	stmdaeq	r0, {r0, r3, r4}
     1cc:	0b0b000f 	bleq	2c0210 <__bss_end__+0x2b5b38>
     1d0:	00001349 	andeq	r1, r0, r9, asr #6
     1d4:	49002609 	stmdbmi	r0, {r0, r3, r9, sl, sp}
     1d8:	0a000013 	beq	22c <__code_start__-0x7dd4>
     1dc:	0b0b0113 	bleq	2c0630 <__bss_end__+0x2b5f58>
     1e0:	0b3b0b3a 	bleq	ec2ed0 <__bss_end__+0xeb87f8>
     1e4:	13010b39 	movwne	r0, #6969	; 0x1b39
     1e8:	0d0b0000 	stceq	0, cr0, [fp, #-0]
     1ec:	3a0e0300 	bcc	380df4 <__bss_end__+0x37671c>
     1f0:	390b3b0b 	stmdbcc	fp, {r0, r1, r3, r8, r9, fp, ip, sp}
     1f4:	3813490b 	ldmdacc	r3, {r0, r1, r3, r8, fp, lr}
     1f8:	0c00000b 	stceq	0, cr0, [r0], {11}
     1fc:	0b3e0104 	bleq	f80614 <__bss_end__+0xf75f3c>
     200:	13490b0b 	movtne	r0, #39691	; 0x9b0b
     204:	0b3b0b3a 	bleq	ec2ef4 <__bss_end__+0xeb881c>
     208:	13010b39 	movwne	r0, #6969	; 0x1b39
     20c:	280d0000 	stmdacs	sp, {}	; <UNPREDICTABLE>
     210:	1c0e0300 	stcne	3, cr0, [lr], {-0}
     214:	0e00000b 	cdpeq	0, 0, cr0, cr0, cr11, {0}
     218:	0e030113 	mcreq	1, 0, r0, cr3, cr3, {0}
     21c:	0b3a0b0b 	bleq	e82e50 <__bss_end__+0xe78778>
     220:	0b390b3b 	bleq	e42f14 <__bss_end__+0xe3883c>
     224:	00001301 	andeq	r1, r0, r1, lsl #6
     228:	0b000f0f 	bleq	3e6c <__code_start__-0x4194>
     22c:	1000000b 	andne	r0, r0, fp
     230:	0e030034 	mcreq	0, 0, r0, cr3, cr4, {1}
     234:	0b3b0b3a 	bleq	ec2f24 <__bss_end__+0xeb884c>
     238:	13490b39 	movtne	r0, #39737	; 0x9b39
     23c:	00001802 	andeq	r1, r0, r2, lsl #16
     240:	3f012e11 	svccc	0x00012e11
     244:	3a0e0319 	bcc	380eb0 <__bss_end__+0x3767d8>
     248:	390b3b0b 	stmdbcc	fp, {r0, r1, r3, r8, r9, fp, ip, sp}
     24c:	4919270b 	ldmdbmi	r9, {r0, r1, r3, r8, r9, sl, sp}
     250:	12011113 	andne	r1, r1, #-1073741820	; 0xc0000004
     254:	97184006 	ldrls	r4, [r8, -r6]
     258:	13011942 	movwne	r1, #6466	; 0x1942
     25c:	05120000 	ldreq	r0, [r2, #-0]
     260:	3a0e0300 	bcc	380e68 <__bss_end__+0x376790>
     264:	390b3b0b 	stmdbcc	fp, {r0, r1, r3, r8, r9, fp, ip, sp}
     268:	0213490b 	andseq	r4, r3, #180224	; 0x2c000
     26c:	1742b717 	smlaldne	fp, r2, r7, r7
     270:	05130000 	ldreq	r0, [r3, #-0]
     274:	3a080300 	bcc	200e7c <__bss_end__+0x1f67a4>
     278:	390b3b0b 	stmdbcc	fp, {r0, r1, r3, r8, r9, fp, ip, sp}
     27c:	0213490b 	andseq	r4, r3, #180224	; 0x2c000
     280:	14000018 	strne	r0, [r0], #-24	; 0xffffffe8
     284:	08030034 	stmdaeq	r3, {r2, r4, r5}
     288:	0b3b0b3a 	bleq	ec2f78 <__bss_end__+0xeb88a0>
     28c:	13490b39 	movtne	r0, #39737	; 0x9b39
     290:	42b71702 	adcsmi	r1, r7, #524288	; 0x80000
     294:	15000017 	strne	r0, [r0, #-23]	; 0xffffffe9
     298:	01018289 	smlabbeq	r1, r9, r2, r8
     29c:	13310111 	teqne	r1, #1073741828	; 0x40000004
     2a0:	00001301 	andeq	r1, r0, r1, lsl #6
     2a4:	01828a16 	orreq	r8, r2, r6, lsl sl
     2a8:	91180200 	tstls	r8, r0, lsl #4
     2ac:	00001842 	andeq	r1, r0, r2, asr #16
     2b0:	01828917 	orreq	r8, r2, r7, lsl r9
     2b4:	31011101 	tstcc	r1, r1, lsl #2
     2b8:	18000013 	stmdane	r0, {r0, r1, r4}
     2bc:	193f012e 	ldmdbne	pc!, {r1, r2, r3, r5, r8}	; <UNPREDICTABLE>
     2c0:	0b3a0e03 	bleq	e83ad4 <__bss_end__+0xe793fc>
     2c4:	0b390b3b 	bleq	e42fb8 <__bss_end__+0xe388e0>
     2c8:	01111927 	tsteq	r1, r7, lsr #18
     2cc:	18400612 	stmdane	r0, {r1, r4, r9, sl}^
     2d0:	01194297 			; <UNDEFINED> instruction: 0x01194297
     2d4:	19000013 	stmdbne	r0, {r0, r1, r4}
     2d8:	0e030034 	mcreq	0, 0, r0, cr3, cr4, {1}
     2dc:	19341349 	ldmdbne	r4!, {r0, r3, r6, r8, r9, ip}
     2e0:	00001802 	andeq	r1, r0, r2, lsl #16
     2e4:	0182891a 	orreq	r8, r2, sl, lsl r9
     2e8:	31011100 	mrscc	r1, (UNDEF: 17)
     2ec:	1b000013 	blne	340 <__code_start__-0x7cc0>
     2f0:	13490101 	movtne	r0, #37121	; 0x9101
     2f4:	00001301 	andeq	r1, r0, r1, lsl #6
     2f8:	4900211c 	stmdbmi	r0, {r2, r3, r4, r8, sp}
     2fc:	000b2f13 	andeq	r2, fp, r3, lsl pc
     300:	012e1d00 			; <UNDEFINED> instruction: 0x012e1d00
     304:	0b3a0e03 	bleq	e83b18 <__bss_end__+0xe79440>
     308:	0b390b3b 	bleq	e42ffc <__bss_end__+0xe38924>
     30c:	01111927 	tsteq	r1, r7, lsr #18
     310:	18400612 	stmdane	r0, {r1, r4, r9, sl}^
     314:	01194297 			; <UNDEFINED> instruction: 0x01194297
     318:	1e000013 	mcrne	0, 0, r0, cr0, cr3, {0}
     31c:	08030005 	stmdaeq	r3, {r0, r2}
     320:	0b3b0b3a 	bleq	ec3010 <__bss_end__+0xeb8938>
     324:	13490b39 	movtne	r0, #39737	; 0x9b39
     328:	42b71702 	adcsmi	r1, r7, #524288	; 0x80000
     32c:	1f000017 	svcne	0x00000017
     330:	0e030034 	mcreq	0, 0, r0, cr3, cr4, {1}
     334:	0b3b0b3a 	bleq	ec3024 <__bss_end__+0xeb894c>
     338:	13490b39 	movtne	r0, #39737	; 0x9b39
     33c:	42b71702 	adcsmi	r1, r7, #524288	; 0x80000
     340:	20000017 	andcs	r0, r0, r7, lsl r0
     344:	0111010b 	tsteq	r1, fp, lsl #2
     348:	00000612 	andeq	r0, r0, r2, lsl r6
     34c:	31011d21 	tstcc	r1, r1, lsr #26
     350:	b8015213 	stmdalt	r1, {r0, r1, r4, r9, ip, lr}
     354:	01110b42 	tsteq	r1, r2, asr #22
     358:	0b580612 	bleq	1601ba8 <__bss_end__+0x15f74d0>
     35c:	0b570b59 	bleq	15c30c8 <__bss_end__+0x15b89f0>
     360:	00001301 	andeq	r1, r0, r1, lsl #6
     364:	31000522 	tstcc	r0, r2, lsr #10
     368:	b7170213 			; <UNDEFINED> instruction: 0xb7170213
     36c:	00001742 	andeq	r1, r0, r2, asr #14
     370:	3f002e23 	svccc	0x00002e23
     374:	3a0e0319 	bcc	380fe0 <__bss_end__+0x376908>
     378:	390b3b0b 	stmdbcc	fp, {r0, r1, r3, r8, r9, fp, ip, sp}
     37c:	4919270b 	ldmdbmi	r9, {r0, r1, r3, r8, r9, sl, sp}
     380:	12011113 	andne	r1, r1, #-1073741820	; 0xc0000004
     384:	97184006 	ldrls	r4, [r8, -r6]
     388:	00001942 	andeq	r1, r0, r2, asr #18
     38c:	03012e24 	movweq	r2, #7716	; 0x1e24
     390:	3b0b3a0e 	blcc	2cebd0 <__bss_end__+0x2c44f8>
     394:	270b390b 	strcs	r3, [fp, -fp, lsl #18]
     398:	20134919 	andscs	r4, r3, r9, lsl r9
     39c:	0013010b 	andseq	r0, r3, fp, lsl #2
     3a0:	00052500 	andeq	r2, r5, r0, lsl #10
     3a4:	0b3a0803 	bleq	e823b8 <__bss_end__+0xe77ce0>
     3a8:	0b390b3b 	bleq	e4309c <__bss_end__+0xe389c4>
     3ac:	00001349 	andeq	r1, r0, r9, asr #6
     3b0:	3f002e26 	svccc	0x00002e26
     3b4:	6e193c19 	mrcvs	12, 0, r3, cr9, cr9, {0}
     3b8:	3a0e030e 	bcc	380ff8 <__bss_end__+0x376920>
     3bc:	390b3b0b 	stmdbcc	fp, {r0, r1, r3, r8, r9, fp, ip, sp}
     3c0:	0000000b 	andeq	r0, r0, fp
     3c4:	25011101 	strcs	r1, [r1, #-257]	; 0xfffffeff
     3c8:	030b130e 	movweq	r1, #45838	; 0xb30e
     3cc:	110e1b0e 	tstne	lr, lr, lsl #22
     3d0:	10061201 	andne	r1, r6, r1, lsl #4
     3d4:	02000017 	andeq	r0, r0, #23, 0
     3d8:	0b0b0024 	bleq	2c0470 <__bss_end__+0x2b5d98>
     3dc:	08030b3e 	stmdaeq	r3, {r1, r2, r3, r4, r5, r8, r9, fp}
     3e0:	24030000 	strcs	r0, [r3], #-0
     3e4:	3e0b0b00 	vmlacc.f64	d0, d11, d0
     3e8:	000e030b 	andeq	r0, lr, fp, lsl #6
     3ec:	01150400 	tsteq	r5, r0, lsl #8
     3f0:	13491927 	movtne	r1, #39207	; 0x9927
     3f4:	00001301 	andeq	r1, r0, r1, lsl #6
     3f8:	49000505 	stmdbmi	r0, {r0, r2, r8, sl}
     3fc:	06000013 			; <UNDEFINED> instruction: 0x06000013
     400:	0e030034 	mcreq	0, 0, r0, cr3, cr4, {1}
     404:	0b3b0b3a 	bleq	ec30f4 <__bss_end__+0xeb8a1c>
     408:	13490b39 	movtne	r0, #39737	; 0x9b39
     40c:	193c193f 	ldmdbne	ip!, {r0, r1, r2, r3, r4, r5, r8, fp, ip}
     410:	0f070000 	svceq	0x00070000
     414:	490b0b00 	stmdbmi	fp, {r8, r9, fp}
     418:	08000013 	stmdaeq	r0, {r0, r1, r4}
     41c:	13490026 	movtne	r0, #36902	; 0x9026
     420:	17090000 	strne	r0, [r9, -r0]
     424:	0b0e0301 	bleq	381030 <__bss_end__+0x376958>
     428:	3b0b3a0b 	blcc	2cec5c <__bss_end__+0x2c4584>
     42c:	010b390b 	tsteq	fp, fp, lsl #18
     430:	0a000013 	beq	484 <__code_start__-0x7b7c>
     434:	0803000d 	stmdaeq	r3, {r0, r2, r3}
     438:	0b3b0b3a 	bleq	ec3128 <__bss_end__+0xeb8a50>
     43c:	13490b39 	movtne	r0, #39737	; 0x9b39
     440:	0f0b0000 	svceq	0x000b0000
     444:	000b0b00 	andeq	r0, fp, r0, lsl #22
     448:	00150c00 	andseq	r0, r5, r0, lsl #24
     44c:	00001927 	andeq	r1, r0, r7, lsr #18
     450:	0b01130d 	bleq	4508c <__bss_end__+0x3a9b4>
     454:	3b0b3a0b 	blcc	2cec88 <__bss_end__+0x2c45b0>
     458:	010b390b 	tsteq	fp, fp, lsl #18
     45c:	0e000013 	mcreq	0, 0, r0, cr0, cr3, {0}
     460:	0803000d 	stmdaeq	r3, {r0, r2, r3}
     464:	0b3b0b3a 	bleq	ec3154 <__bss_end__+0xeb8a7c>
     468:	13490b39 	movtne	r0, #39737	; 0x9b39
     46c:	00000b38 	andeq	r0, r0, r8, lsr fp
     470:	03000d0f 	movweq	r0, #3343	; 0xd0f
     474:	3b0b3a0e 	blcc	2cecb4 <__bss_end__+0x2c45dc>
     478:	490b390b 	stmdbmi	fp, {r0, r1, r3, r8, fp, ip, sp}
     47c:	000b3813 	andeq	r3, fp, r3, lsl r8
     480:	00161000 	andseq	r1, r6, r0
     484:	0b3a0e03 	bleq	e83c98 <__bss_end__+0xe795c0>
     488:	0b390b3b 	bleq	e4317c <__bss_end__+0xe38aa4>
     48c:	00001349 	andeq	r1, r0, r9, asr #6
     490:	03003411 	movweq	r3, #1041	; 0x411
     494:	3b0b3a0e 	blcc	2cecd4 <__bss_end__+0x2c45fc>
     498:	490b390b 	stmdbmi	fp, {r0, r1, r3, r8, fp, ip, sp}
     49c:	00180213 	andseq	r0, r8, r3, lsl r2
     4a0:	012e1200 			; <UNDEFINED> instruction: 0x012e1200
     4a4:	0e03193f 			; <UNDEFINED> instruction: 0x0e03193f
     4a8:	0b3b0b3a 	bleq	ec3198 <__bss_end__+0xeb8ac0>
     4ac:	19270b39 	stmdbne	r7!, {r0, r3, r4, r5, r8, r9, fp}
     4b0:	06120111 			; <UNDEFINED> instruction: 0x06120111
     4b4:	42971840 	addsmi	r1, r7, #64, 16	; 0x400000
     4b8:	00130119 	andseq	r0, r3, r9, lsl r1
     4bc:	00051300 	andeq	r1, r5, r0, lsl #6
     4c0:	0b3a0803 	bleq	e824d4 <__bss_end__+0xe77dfc>
     4c4:	0b390b3b 	bleq	e431b8 <__bss_end__+0xe38ae0>
     4c8:	18021349 	stmdane	r2, {r0, r3, r6, r8, r9, ip}
     4cc:	34140000 	ldrcc	r0, [r4], #-0
     4d0:	3a080300 	bcc	2010d8 <__bss_end__+0x1f6a00>
     4d4:	390b3b0b 	stmdbcc	fp, {r0, r1, r3, r8, r9, fp, ip, sp}
     4d8:	0213490b 	andseq	r4, r3, #180224	; 0x2c000
     4dc:	1742b717 	smlaldne	fp, r2, r7, r7
     4e0:	2e150000 	cdpcs	0, 1, cr0, cr5, cr0, {0}
     4e4:	03193f01 	tsteq	r9, #1, 30
     4e8:	3b0b3a0e 	blcc	2ced28 <__bss_end__+0x2c4650>
     4ec:	270b390b 	strcs	r3, [fp, -fp, lsl #18]
     4f0:	11134919 	tstne	r3, r9, lsl r9
     4f4:	40061201 	andmi	r1, r6, r1, lsl #4
     4f8:	19429718 	stmdbne	r2, {r3, r4, r8, r9, sl, ip, pc}^
     4fc:	00001301 	andeq	r1, r0, r1, lsl #6
     500:	03000516 	movweq	r0, #1302	; 0x516
     504:	3b0b3a0e 	blcc	2ced44 <__bss_end__+0x2c466c>
     508:	490b390b 	stmdbmi	fp, {r0, r1, r3, r8, fp, ip, sp}
     50c:	b7170213 			; <UNDEFINED> instruction: 0xb7170213
     510:	00001742 	andeq	r1, r0, r2, asr #14
     514:	03003417 	movweq	r3, #1047	; 0x417
     518:	3b0b3a0e 	blcc	2ced58 <__bss_end__+0x2c4680>
     51c:	490b390b 	stmdbmi	fp, {r0, r1, r3, r8, fp, ip, sp}
     520:	b7170213 			; <UNDEFINED> instruction: 0xb7170213
     524:	00001742 	andeq	r1, r0, r2, asr #14
     528:	01828918 	orreq	r8, r2, r8, lsl r9
     52c:	31011101 	tstcc	r1, r1, lsl #2
     530:	19000013 	stmdbne	r0, {r0, r1, r4}
     534:	0001828a 	andeq	r8, r1, sl, lsl #5
     538:	42911802 	addsmi	r1, r1, #131072	; 0x20000
     53c:	1a000018 	bne	5a4 <__code_start__-0x7a5c>
     540:	0e03012e 	adfeqsp	f0, f3, #0.5
     544:	0b3b0b3a 	bleq	ec3234 <__bss_end__+0xeb8b5c>
     548:	19270b39 	stmdbne	r7!, {r0, r3, r4, r5, r8, r9, fp}
     54c:	01111349 	tsteq	r1, r9, asr #6
     550:	18400612 	stmdane	r0, {r1, r4, r9, sl}^
     554:	01194297 			; <UNDEFINED> instruction: 0x01194297
     558:	1b000013 	blne	5ac <__code_start__-0x7a54>
     55c:	08030005 	stmdaeq	r3, {r0, r2}
     560:	0b3b0b3a 	bleq	ec3250 <__bss_end__+0xeb8b78>
     564:	13490b39 	movtne	r0, #39737	; 0x9b39
     568:	42b71702 	adcsmi	r1, r7, #524288	; 0x80000
     56c:	1c000017 	stcne	0, cr0, [r0], {23}
     570:	01018289 	smlabbeq	r1, r9, r2, r8
     574:	13310111 	teqne	r1, #1073741828	; 0x40000004
     578:	00001301 	andeq	r1, r0, r1, lsl #6
     57c:	0182891d 	orreq	r8, r2, sp, lsl r9
     580:	31011100 	mrscc	r1, (UNDEF: 17)
     584:	1e000013 	mcrne	0, 0, r0, cr0, cr3, {0}
     588:	193f002e 	ldmdbne	pc!, {r1, r2, r3, r5}	; <UNPREDICTABLE>
     58c:	0e6e193c 			; <UNDEFINED> instruction: 0x0e6e193c
     590:	0b3a0e03 	bleq	e83da4 <__bss_end__+0xe796cc>
     594:	0b390b3b 	bleq	e43288 <__bss_end__+0xe38bb0>
     598:	01000000 	mrseq	r0, (UNDEF: 0)
     59c:	0e250111 	mcreq	1, 1, r0, cr5, cr1, {0}
     5a0:	0e030b13 	vmoveq.32	d3[0], r0
     5a4:	01110e1b 	tsteq	r1, fp, lsl lr
     5a8:	17100612 			; <UNDEFINED> instruction: 0x17100612
     5ac:	24020000 	strcs	r0, [r2], #-0
     5b0:	3e0b0b00 	vmlacc.f64	d0, d11, d0
     5b4:	0008030b 	andeq	r0, r8, fp, lsl #6
     5b8:	00240300 	eoreq	r0, r4, r0, lsl #6
     5bc:	0b3e0b0b 	bleq	f831f0 <__bss_end__+0xf78b18>
     5c0:	00000e03 	andeq	r0, r0, r3, lsl #28
     5c4:	03001604 	movweq	r1, #1540	; 0x604
     5c8:	3b0b3a0e 	blcc	2cee08 <__bss_end__+0x2c4730>
     5cc:	490b390b 	stmdbmi	fp, {r0, r1, r3, r8, fp, ip, sp}
     5d0:	05000013 	streq	r0, [r0, #-19]	; 0xffffffed
     5d4:	19270115 	stmdbne	r7!, {r0, r2, r4, r8}
     5d8:	13011349 	movwne	r1, #4937	; 0x1349
     5dc:	05060000 	streq	r0, [r6, #-0]
     5e0:	00134900 	andseq	r4, r3, r0, lsl #18
     5e4:	00340700 	eorseq	r0, r4, r0, lsl #14
     5e8:	0b3a0e03 	bleq	e83dfc <__bss_end__+0xe79724>
     5ec:	0b390b3b 	bleq	e432e0 <__bss_end__+0xe38c08>
     5f0:	193f1349 	ldmdbne	pc!, {r0, r3, r6, r8, r9, ip}	; <UNPREDICTABLE>
     5f4:	0000193c 	andeq	r1, r0, ip, lsr r9
     5f8:	0b000f08 	bleq	4220 <__code_start__-0x3de0>
     5fc:	0013490b 	andseq	r4, r3, fp, lsl #18
     600:	00260900 	eoreq	r0, r6, r0, lsl #18
     604:	00001349 	andeq	r1, r0, r9, asr #6
     608:	0b01130a 	bleq	45238 <__bss_end__+0x3ab60>
     60c:	3b0b3a0b 	blcc	2cee40 <__bss_end__+0x2c4768>
     610:	010b390b 	tsteq	fp, fp, lsl #18
     614:	0b000013 	bleq	668 <__code_start__-0x7998>
     618:	0e03000d 	cdpeq	0, 0, cr0, cr3, cr13, {0}
     61c:	0b3b0b3a 	bleq	ec330c <__bss_end__+0xeb8c34>
     620:	13490b39 	movtne	r0, #39737	; 0x9b39
     624:	00000b38 	andeq	r0, r0, r8, lsr fp
     628:	0301130c 	movweq	r1, #4876	; 0x130c
     62c:	3a0b0b0e 	bcc	2c326c <__bss_end__+0x2b8b94>
     630:	390b3b0b 	stmdbcc	fp, {r0, r1, r3, r8, r9, fp, ip, sp}
     634:	0013010b 	andseq	r0, r3, fp, lsl #2
     638:	000f0d00 	andeq	r0, pc, r0, lsl #26
     63c:	00000b0b 	andeq	r0, r0, fp, lsl #22
     640:	0300340e 	movweq	r3, #1038	; 0x40e
     644:	3b0b3a0e 	blcc	2cee84 <__bss_end__+0x2c47ac>
     648:	490b390b 	stmdbmi	fp, {r0, r1, r3, r8, fp, ip, sp}
     64c:	0f000013 	svceq	0x00000013
     650:	193f012e 	ldmdbne	pc!, {r1, r2, r3, r5, r8}	; <UNPREDICTABLE>
     654:	0b3a0e03 	bleq	e83e68 <__bss_end__+0xe79790>
     658:	0b390b3b 	bleq	e4334c <__bss_end__+0xe38c74>
     65c:	01111927 	tsteq	r1, r7, lsr #18
     660:	18400612 	stmdane	r0, {r1, r4, r9, sl}^
     664:	01194297 			; <UNDEFINED> instruction: 0x01194297
     668:	10000013 	andne	r0, r0, r3, lsl r0
     66c:	0e030034 	mcreq	0, 0, r0, cr3, cr4, {1}
     670:	19341349 	ldmdbne	r4!, {r0, r3, r6, r8, r9, ip}
     674:	00001802 	andeq	r1, r0, r2, lsl #16
     678:	01828911 	orreq	r8, r2, r1, lsl r9
     67c:	31011101 	tstcc	r1, r1, lsl #2
     680:	00130113 	andseq	r0, r3, r3, lsl r1
     684:	828a1200 	addhi	r1, sl, #0, 4
     688:	18020001 	stmdane	r2, {r0}
     68c:	00184291 	mulseq	r8, r1, r2
     690:	82891300 	addhi	r1, r9, #0, 6
     694:	01110001 	tsteq	r1, r1
     698:	00001331 	andeq	r1, r0, r1, lsr r3
     69c:	49010114 	stmdbmi	r1, {r2, r4, r8}
     6a0:	00130113 	andseq	r0, r3, r3, lsl r1
     6a4:	00211500 	eoreq	r1, r1, r0, lsl #10
     6a8:	0b2f1349 	bleq	bc53d4 <__bss_end__+0xbbacfc>
     6ac:	2e160000 	cdpcs	0, 1, cr0, cr6, cr0, {0}
     6b0:	03193f01 	tsteq	r9, #1, 30
     6b4:	3b0b3a0e 	blcc	2ceef4 <__bss_end__+0x2c481c>
     6b8:	270b390b 	strcs	r3, [fp, -fp, lsl #18]
     6bc:	11134919 	tstne	r3, r9, lsl r9
     6c0:	40061201 	andmi	r1, r6, r1, lsl #4
     6c4:	19429718 	stmdbne	r2, {r3, r4, r8, r9, sl, ip, pc}^
     6c8:	00001301 	andeq	r1, r0, r1, lsl #6
     6cc:	03012e17 	movweq	r2, #7703	; 0x1e17
     6d0:	3b0b3a0e 	blcc	2cef10 <__bss_end__+0x2c4838>
     6d4:	270b390b 	strcs	r3, [fp, -fp, lsl #18]
     6d8:	01134919 	tsteq	r3, r9, lsl r9
     6dc:	18000013 	stmdane	r0, {r0, r1, r4}
     6e0:	0e030034 	mcreq	0, 0, r0, cr3, cr4, {1}
     6e4:	19341349 	ldmdbne	r4!, {r0, r3, r6, r8, r9, ip}
     6e8:	00000e1c 	andeq	r0, r0, ip, lsl lr
     6ec:	01828919 	orreq	r8, r2, r9, lsl r9
     6f0:	31011101 	tstcc	r1, r1, lsl #2
     6f4:	1a000013 	bne	748 <__code_start__-0x78b8>
     6f8:	0e030005 	cdpeq	0, 0, cr0, cr3, cr5, {0}
     6fc:	0b3b0b3a 	bleq	ec33ec <__bss_end__+0xeb8d14>
     700:	13490b39 	movtne	r0, #39737	; 0x9b39
     704:	42b71702 	adcsmi	r1, r7, #524288	; 0x80000
     708:	1b000017 	blne	76c <__code_start__-0x7894>
     70c:	0e03012e 	adfeqsp	f0, f3, #0.5
     710:	0b3b0b3a 	bleq	ec3400 <__bss_end__+0xeb8d28>
     714:	19270b39 	stmdbne	r7!, {r0, r3, r4, r5, r8, r9, fp}
     718:	06120111 			; <UNDEFINED> instruction: 0x06120111
     71c:	42971840 	addsmi	r1, r7, #64, 16	; 0x400000
     720:	00130119 	andseq	r0, r3, r9, lsl r1
     724:	00341c00 	eorseq	r1, r4, r0, lsl #24
     728:	0b3a0e03 	bleq	e83f3c <__bss_end__+0xe79864>
     72c:	0b390b3b 	bleq	e43420 <__bss_end__+0xe38d48>
     730:	18021349 	stmdane	r2, {r0, r3, r6, r8, r9, ip}
     734:	0b1d0000 	bleq	74073c <__bss_end__+0x736064>
     738:	12011101 	andne	r1, r1, #1073741824	; 0x40000000
     73c:	00130106 	andseq	r0, r3, r6, lsl #2
     740:	00341e00 	eorseq	r1, r4, r0, lsl #28
     744:	0b3a0803 	bleq	e82758 <__bss_end__+0xe78080>
     748:	0b390b3b 	bleq	e4343c <__bss_end__+0xe38d64>
     74c:	17021349 	strne	r1, [r2, -r9, asr #6]
     750:	001742b7 			; <UNDEFINED> instruction: 0x001742b7
     754:	00051f00 	andeq	r1, r5, r0, lsl #30
     758:	0b3a0e03 	bleq	e83f6c <__bss_end__+0xe79894>
     75c:	0b390b3b 	bleq	e43450 <__bss_end__+0xe38d78>
     760:	00001349 	andeq	r1, r0, r9, asr #6
     764:	03003420 	movweq	r3, #1056	; 0x420
     768:	3b0b3a0e 	blcc	2cefa8 <__bss_end__+0x2c48d0>
     76c:	490b390b 	stmdbmi	fp, {r0, r1, r3, r8, fp, ip, sp}
     770:	b7170213 			; <UNDEFINED> instruction: 0xb7170213
     774:	00001742 	andeq	r1, r0, r2, asr #14
     778:	3f002e21 	svccc	0x00002e21
     77c:	6e193c19 	mrcvs	12, 0, r3, cr9, cr9, {0}
     780:	3a0e030e 	bcc	3813c0 <__bss_end__+0x376ce8>
     784:	390b3b0b 	stmdbcc	fp, {r0, r1, r3, r8, r9, fp, ip, sp}
     788:	0000000b 	andeq	r0, r0, fp
     78c:	25011101 	strcs	r1, [r1, #-257]	; 0xfffffeff
     790:	030b130e 	movweq	r1, #45838	; 0xb30e
     794:	110e1b0e 	tstne	lr, lr, lsl #22
     798:	10061201 	andne	r1, r6, r1, lsl #4
     79c:	02000017 	andeq	r0, r0, #23, 0
     7a0:	0b0b0024 	bleq	2c0838 <__bss_end__+0x2b6160>
     7a4:	08030b3e 	stmdaeq	r3, {r1, r2, r3, r4, r5, r8, r9, fp}
     7a8:	16030000 	strne	r0, [r3], -r0
     7ac:	3a0e0300 	bcc	3813b4 <__bss_end__+0x376cdc>
     7b0:	390b3b0b 	stmdbcc	fp, {r0, r1, r3, r8, r9, fp, ip, sp}
     7b4:	0013490b 	andseq	r4, r3, fp, lsl #18
     7b8:	00240400 	eoreq	r0, r4, r0, lsl #8
     7bc:	0b3e0b0b 	bleq	f833f0 <__bss_end__+0xf78d18>
     7c0:	00000e03 	andeq	r0, r0, r3, lsl #28
     7c4:	27011505 	strcs	r1, [r1, -r5, lsl #10]
     7c8:	01134919 	tsteq	r3, r9, lsl r9
     7cc:	06000013 			; <UNDEFINED> instruction: 0x06000013
     7d0:	13490005 	movtne	r0, #36869	; 0x9005
     7d4:	34070000 	strcc	r0, [r7], #-0
     7d8:	3a0e0300 	bcc	3813e0 <__bss_end__+0x376d08>
     7dc:	390b3b0b 	stmdbcc	fp, {r0, r1, r3, r8, r9, fp, ip, sp}
     7e0:	3f13490b 	svccc	0x0013490b
     7e4:	00193c19 	andseq	r3, r9, r9, lsl ip
     7e8:	000f0800 	andeq	r0, pc, r0, lsl #16
     7ec:	13490b0b 	movtne	r0, #39691	; 0x9b0b
     7f0:	26090000 	strcs	r0, [r9], -r0
     7f4:	00134900 	andseq	r4, r3, r0, lsl #18
     7f8:	012e0a00 			; <UNDEFINED> instruction: 0x012e0a00
     7fc:	0e03193f 			; <UNDEFINED> instruction: 0x0e03193f
     800:	0b3b0b3a 	bleq	ec34f0 <__bss_end__+0xeb8e18>
     804:	19270b39 	stmdbne	r7!, {r0, r3, r4, r5, r8, r9, fp}
     808:	01111349 	tsteq	r1, r9, asr #6
     80c:	18400612 	stmdane	r0, {r1, r4, r9, sl}^
     810:	01194297 			; <UNDEFINED> instruction: 0x01194297
     814:	0b000013 	bleq	868 <__code_start__-0x7798>
     818:	08030005 	stmdaeq	r3, {r0, r2}
     81c:	0b3b0b3a 	bleq	ec350c <__bss_end__+0xeb8e34>
     820:	13490b39 	movtne	r0, #39737	; 0x9b39
     824:	00001802 	andeq	r1, r0, r2, lsl #16
     828:	0300050c 	movweq	r0, #1292	; 0x50c
     82c:	3b0b3a08 	blcc	2cf054 <__bss_end__+0x2c497c>
     830:	490b390b 	stmdbmi	fp, {r0, r1, r3, r8, fp, ip, sp}
     834:	b7170213 			; <UNDEFINED> instruction: 0xb7170213
     838:	00001742 	andeq	r1, r0, r2, asr #14
     83c:	0300340d 	movweq	r3, #1037	; 0x40d
     840:	3b0b3a08 	blcc	2cf068 <__bss_end__+0x2c4990>
     844:	490b390b 	stmdbmi	fp, {r0, r1, r3, r8, fp, ip, sp}
     848:	b7170213 			; <UNDEFINED> instruction: 0xb7170213
     84c:	00001742 	andeq	r1, r0, r2, asr #14
     850:	0b000f0e 	bleq	4490 <__code_start__-0x3b70>
     854:	0000000b 	andeq	r0, r0, fp
     858:	25011101 	strcs	r1, [r1, #-257]	; 0xfffffeff
     85c:	030b130e 	movweq	r1, #45838	; 0xb30e
     860:	110e1b0e 	tstne	lr, lr, lsl #22
     864:	10061201 	andne	r1, r6, r1, lsl #4
     868:	02000017 	andeq	r0, r0, #23, 0
     86c:	0e030016 	mcreq	0, 0, r0, cr3, cr6, {0}
     870:	0b3b0b3a 	bleq	ec3560 <__bss_end__+0xeb8e88>
     874:	13490b39 	movtne	r0, #39737	; 0x9b39
     878:	13030000 	movwne	r0, #12288	; 0x3000
     87c:	0b0e0301 	bleq	381488 <__bss_end__+0x376db0>
     880:	3b0b3a0b 	blcc	2cf0b4 <__bss_end__+0x2c49dc>
     884:	0013010b 	andseq	r0, r3, fp, lsl #2
     888:	000d0400 	andeq	r0, sp, r0, lsl #8
     88c:	13490e03 	movtne	r0, #40451	; 0x9e03
     890:	19340b38 	ldmdbne	r4!, {r3, r4, r5, r8, r9, fp}
     894:	0f050000 	svceq	0x00050000
     898:	000b0b00 	andeq	r0, fp, r0, lsl #22
     89c:	00240600 	eoreq	r0, r4, r0, lsl #12
     8a0:	0b3e0b0b 	bleq	f834d4 <__bss_end__+0xf78dfc>
     8a4:	00000803 	andeq	r0, r0, r3, lsl #16
     8a8:	0b002407 	bleq	98cc <kmalloc_aligned+0x8>
     8ac:	030b3e0b 	movweq	r3, #48651	; 0xbe0b
     8b0:	0800000e 	stmdaeq	r0, {r1, r2, r3}
     8b4:	19270115 	stmdbne	r7!, {r0, r2, r4, r8}
     8b8:	13011349 	movwne	r1, #4937	; 0x1349
     8bc:	05090000 	streq	r0, [r9, #-0]
     8c0:	00134900 	andseq	r4, r3, r0, lsl #18
     8c4:	00340a00 	eorseq	r0, r4, r0, lsl #20
     8c8:	0b3a0e03 	bleq	e840dc <__bss_end__+0xe79a04>
     8cc:	0b390b3b 	bleq	e435c0 <__bss_end__+0xe38ee8>
     8d0:	193f1349 	ldmdbne	pc!, {r0, r3, r6, r8, r9, ip}	; <UNPREDICTABLE>
     8d4:	0000193c 	andeq	r1, r0, ip, lsr r9
     8d8:	0b000f0b 	bleq	450c <__code_start__-0x3af4>
     8dc:	0013490b 	andseq	r4, r3, fp, lsl #18
     8e0:	00260c00 	eoreq	r0, r6, r0, lsl #24
     8e4:	00001349 	andeq	r1, r0, r9, asr #6
     8e8:	3f012e0d 	svccc	0x00012e0d
     8ec:	3a0e0319 	bcc	381558 <__bss_end__+0x376e80>
     8f0:	390b3b0b 	stmdbcc	fp, {r0, r1, r3, r8, r9, fp, ip, sp}
     8f4:	4919270b 	ldmdbmi	r9, {r0, r1, r3, r8, r9, sl, sp}
     8f8:	12011113 	andne	r1, r1, #-1073741820	; 0xc0000004
     8fc:	97184006 	ldrls	r4, [r8, -r6]
     900:	13011942 	movwne	r1, #6466	; 0x1942
     904:	050e0000 	streq	r0, [lr, #-0]
     908:	3a080300 	bcc	201510 <__bss_end__+0x1f6e38>
     90c:	390b3b0b 	stmdbcc	fp, {r0, r1, r3, r8, r9, fp, ip, sp}
     910:	0213490b 	andseq	r4, r3, #180224	; 0x2c000
     914:	0f000018 	svceq	0x00000018
     918:	00000018 	andeq	r0, r0, r8, lsl r0
     91c:	03003410 	movweq	r3, #1040	; 0x410
     920:	3b0b3a08 	blcc	2cf148 <__bss_end__+0x2c4a70>
     924:	490b390b 	stmdbmi	fp, {r0, r1, r3, r8, fp, ip, sp}
     928:	00180213 	andseq	r0, r8, r3, lsl r2
     92c:	00341100 	eorseq	r1, r4, r0, lsl #2
     930:	0b3a0e03 	bleq	e84144 <__bss_end__+0xe79a6c>
     934:	0b390b3b 	bleq	e43628 <__bss_end__+0xe38f50>
     938:	18021349 	stmdane	r2, {r0, r3, r6, r8, r9, ip}
     93c:	34120000 	ldrcc	r0, [r2], #-0
     940:	3a080300 	bcc	201548 <__bss_end__+0x1f6e70>
     944:	390b3b0b 	stmdbcc	fp, {r0, r1, r3, r8, r9, fp, ip, sp}
     948:	0213490b 	andseq	r4, r3, #180224	; 0x2c000
     94c:	1742b717 	smlaldne	fp, r2, r7, r7
     950:	89130000 	ldmdbhi	r3, {}	; <UNPREDICTABLE>
     954:	11010182 	smlabbne	r1, r2, r1, r0
     958:	01133101 	tsteq	r3, r1, lsl #2
     95c:	14000013 	strne	r0, [r0], #-19	; 0xffffffed
     960:	0001828a 	andeq	r8, r1, sl, lsl #5
     964:	42911802 	addsmi	r1, r1, #131072	; 0x20000
     968:	15000018 	strne	r0, [r0, #-24]	; 0xffffffe8
     96c:	01018289 	smlabbeq	r1, r9, r2, r8
     970:	00000111 	andeq	r0, r0, r1, lsl r1
     974:	49010116 	stmdbmi	r1, {r1, r2, r4, r8}
     978:	00130113 	andseq	r0, r3, r3, lsl r1
     97c:	00211700 	eoreq	r1, r1, r0, lsl #14
     980:	052f1349 	streq	r1, [pc, #-841]!	; 63f <__code_start__-0x79c1>
     984:	2e180000 	cdpcs	0, 1, cr0, cr8, cr0, {0}
     988:	3c193f00 	ldccc	15, cr3, [r9], {-0}
     98c:	030e6e19 	movweq	r6, #60953	; 0xee19
     990:	3b0b3a0e 	blcc	2cf1d0 <__bss_end__+0x2c4af8>
     994:	000b390b 	andeq	r3, fp, fp, lsl #18
     998:	11010000 	mrsne	r0, (UNDEF: 1)
     99c:	130e2501 	movwne	r2, #58625	; 0xe501
     9a0:	1b0e030b 	blne	3815d4 <__bss_end__+0x376efc>
     9a4:	1201110e 	andne	r1, r1, #-2147483645	; 0x80000003
     9a8:	00171006 	andseq	r1, r7, r6
     9ac:	00240200 	eoreq	r0, r4, r0, lsl #4
     9b0:	0b3e0b0b 	bleq	f835e4 <__bss_end__+0xf78f0c>
     9b4:	00000803 	andeq	r0, r0, r3, lsl #16
     9b8:	0b002403 	bleq	99cc <kmalloc_aligned+0x108>
     9bc:	030b3e0b 	movweq	r3, #48651	; 0xbe0b
     9c0:	0400000e 	streq	r0, [r0], #-14
     9c4:	19270115 	stmdbne	r7!, {r0, r2, r4, r8}
     9c8:	13011349 	movwne	r1, #4937	; 0x1349
     9cc:	05050000 	streq	r0, [r5, #-0]
     9d0:	00134900 	andseq	r4, r3, r0, lsl #18
     9d4:	00340600 	eorseq	r0, r4, r0, lsl #12
     9d8:	0b3a0e03 	bleq	e841ec <__bss_end__+0xe79b14>
     9dc:	0b390b3b 	bleq	e436d0 <__bss_end__+0xe38ff8>
     9e0:	193f1349 	ldmdbne	pc!, {r0, r3, r6, r8, r9, ip}	; <UNPREDICTABLE>
     9e4:	0000193c 	andeq	r1, r0, ip, lsr r9
     9e8:	0b000f07 	bleq	460c <__code_start__-0x39f4>
     9ec:	0013490b 	andseq	r4, r3, fp, lsl #18
     9f0:	00260800 	eoreq	r0, r6, r0, lsl #16
     9f4:	00001349 	andeq	r1, r0, r9, asr #6
     9f8:	47003409 	strmi	r3, [r0, -r9, lsl #8]
     9fc:	3b0b3a13 	blcc	2cf250 <__bss_end__+0x2c4b78>
     a00:	020b390b 	andeq	r3, fp, #180224	; 0x2c000
     a04:	0a000018 	beq	a6c <__code_start__-0x7594>
     a08:	193f012e 	ldmdbne	pc!, {r1, r2, r3, r5, r8}	; <UNPREDICTABLE>
     a0c:	0b3a0e03 	bleq	e84220 <__bss_end__+0xe79b48>
     a10:	0b390b3b 	bleq	e43704 <__bss_end__+0xe3902c>
     a14:	13491927 	movtne	r1, #39207	; 0x9927
     a18:	06120111 			; <UNDEFINED> instruction: 0x06120111
     a1c:	42961840 	addsmi	r1, r6, #64, 16	; 0x400000
     a20:	0b000019 	bleq	a8c <__code_start__-0x7574>
     a24:	08030005 	stmdaeq	r3, {r0, r2}
     a28:	0b3b0b3a 	bleq	ec3718 <__bss_end__+0xeb9040>
     a2c:	13490b39 	movtne	r0, #39737	; 0x9b39
     a30:	42b71702 	adcsmi	r1, r7, #524288	; 0x80000
     a34:	00000017 	andeq	r0, r0, r7, lsl r0
     a38:	25011101 	strcs	r1, [r1, #-257]	; 0xfffffeff
     a3c:	030b130e 	movweq	r1, #45838	; 0xb30e
     a40:	110e1b0e 	tstne	lr, lr, lsl #22
     a44:	10061201 	andne	r1, r6, r1, lsl #4
     a48:	02000017 	andeq	r0, r0, #23, 0
     a4c:	0b0b0024 	bleq	2c0ae4 <__bss_end__+0x2b640c>
     a50:	0e030b3e 	vmoveq.16	d3[0], r0
     a54:	24030000 	strcs	r0, [r3], #-0
     a58:	3e0b0b00 	vmlacc.f64	d0, d11, d0
     a5c:	0008030b 	andeq	r0, r8, fp, lsl #6
     a60:	00160400 	andseq	r0, r6, r0, lsl #8
     a64:	0b3a0e03 	bleq	e84278 <__bss_end__+0xe79ba0>
     a68:	0b390b3b 	bleq	e4375c <__bss_end__+0xe39084>
     a6c:	00001349 	andeq	r1, r0, r9, asr #6
     a70:	27011505 	strcs	r1, [r1, -r5, lsl #10]
     a74:	01134919 	tsteq	r3, r9, lsl r9
     a78:	06000013 			; <UNDEFINED> instruction: 0x06000013
     a7c:	13490005 	movtne	r0, #36869	; 0x9005
     a80:	34070000 	strcc	r0, [r7], #-0
     a84:	3a0e0300 	bcc	38168c <__bss_end__+0x376fb4>
     a88:	390b3b0b 	stmdbcc	fp, {r0, r1, r3, r8, r9, fp, ip, sp}
     a8c:	3f13490b 	svccc	0x0013490b
     a90:	00193c19 	andseq	r3, r9, r9, lsl ip
     a94:	000f0800 	andeq	r0, pc, r0, lsl #16
     a98:	13490b0b 	movtne	r0, #39691	; 0x9b0b
     a9c:	26090000 	strcs	r0, [r9], -r0
     aa0:	00134900 	andseq	r4, r3, r0, lsl #18
     aa4:	01130a00 	tsteq	r3, r0, lsl #20
     aa8:	0b0b0e03 	bleq	2c42bc <__bss_end__+0x2b9be4>
     aac:	0b3b0b3a 	bleq	ec379c <__bss_end__+0xeb90c4>
     ab0:	00001301 	andeq	r1, r0, r1, lsl #6
     ab4:	03000d0b 	movweq	r0, #3339	; 0xd0b
     ab8:	3813490e 	ldmdacc	r3, {r1, r2, r3, r8, fp, lr}
     abc:	0019340b 	andseq	r3, r9, fp, lsl #8
     ac0:	000f0c00 	andeq	r0, pc, r0, lsl #24
     ac4:	00000b0b 	andeq	r0, r0, fp, lsl #22
     ac8:	3f012e0d 	svccc	0x00012e0d
     acc:	3a0e0319 	bcc	381738 <__bss_end__+0x377060>
     ad0:	390b3b0b 	stmdbcc	fp, {r0, r1, r3, r8, r9, fp, ip, sp}
     ad4:	4919270b 	ldmdbmi	r9, {r0, r1, r3, r8, r9, sl, sp}
     ad8:	12011113 	andne	r1, r1, #-1073741820	; 0xc0000004
     adc:	97184006 	ldrls	r4, [r8, -r6]
     ae0:	13011942 	movwne	r1, #6466	; 0x1942
     ae4:	050e0000 	streq	r0, [lr, #-0]
     ae8:	3a080300 	bcc	2016f0 <__bss_end__+0x1f7018>
     aec:	390b3b0b 	stmdbcc	fp, {r0, r1, r3, r8, r9, fp, ip, sp}
     af0:	0213490b 	andseq	r4, r3, #180224	; 0x2c000
     af4:	1742b717 	smlaldne	fp, r2, r7, r7
     af8:	050f0000 	streq	r0, [pc, #-0]	; b00 <__code_start__-0x7500>
     afc:	3a0e0300 	bcc	381704 <__bss_end__+0x37702c>
     b00:	390b3b0b 	stmdbcc	fp, {r0, r1, r3, r8, r9, fp, ip, sp}
     b04:	0213490b 	andseq	r4, r3, #180224	; 0x2c000
     b08:	1742b717 	smlaldne	fp, r2, r7, r7
     b0c:	34100000 	ldrcc	r0, [r0], #-0
     b10:	3a080300 	bcc	201718 <__bss_end__+0x1f7040>
     b14:	390b3b0b 	stmdbcc	fp, {r0, r1, r3, r8, r9, fp, ip, sp}
     b18:	0213490b 	andseq	r4, r3, #180224	; 0x2c000
     b1c:	1742b717 	smlaldne	fp, r2, r7, r7
     b20:	34110000 	ldrcc	r0, [r1], #-0
     b24:	3a0e0300 	bcc	38172c <__bss_end__+0x377054>
     b28:	390b3b0b 	stmdbcc	fp, {r0, r1, r3, r8, r9, fp, ip, sp}
     b2c:	0213490b 	andseq	r4, r3, #180224	; 0x2c000
     b30:	1742b717 	smlaldne	fp, r2, r7, r7
     b34:	34120000 	ldrcc	r0, [r2], #-0
     b38:	490e0300 	stmdbmi	lr, {r8, r9}
     b3c:	02193413 	andseq	r3, r9, #318767104	; 0x13000000
     b40:	13000018 	movwne	r0, #24
     b44:	1755010b 	ldrbne	r0, [r5, -fp, lsl #2]
     b48:	34140000 	ldrcc	r0, [r4], #-0
     b4c:	3a080300 	bcc	201754 <__bss_end__+0x1f707c>
     b50:	390b3b0b 	stmdbcc	fp, {r0, r1, r3, r8, r9, fp, ip, sp}
     b54:	0213490b 	andseq	r4, r3, #180224	; 0x2c000
     b58:	15000018 	strne	r0, [r0, #-24]	; 0xffffffe8
     b5c:	0e030034 	mcreq	0, 0, r0, cr3, cr4, {1}
     b60:	0b3b0b3a 	bleq	ec3850 <__bss_end__+0xeb9178>
     b64:	13490b39 	movtne	r0, #39737	; 0x9b39
     b68:	00001802 	andeq	r1, r0, r2, lsl #16
     b6c:	55010b16 	strpl	r0, [r1, #-2838]	; 0xfffff4ea
     b70:	00130117 	andseq	r0, r3, r7, lsl r1
     b74:	82891700 	addhi	r1, r9, #0, 14
     b78:	01110101 	tsteq	r1, r1, lsl #2
     b7c:	13011331 	movwne	r1, #4913	; 0x1331
     b80:	8a180000 	bhi	600b88 <__bss_end__+0x5f64b0>
     b84:	02000182 	andeq	r0, r0, #-2147483616	; 0x80000020
     b88:	18429118 	stmdane	r2, {r3, r4, r8, ip, pc}^
     b8c:	89190000 	ldmdbhi	r9, {}	; <UNPREDICTABLE>
     b90:	11000182 	smlabbne	r0, r2, r1, r0
     b94:	00133101 	andseq	r3, r3, r1, lsl #2
     b98:	011d1a00 	tsteq	sp, r0, lsl #20
     b9c:	01521331 	cmpeq	r2, r1, lsr r3
     ba0:	550542b8 	strpl	r4, [r5, #-696]	; 0xfffffd48
     ba4:	590b5817 	stmdbpl	fp, {r0, r1, r2, r4, fp, ip, lr}
     ba8:	010b570b 	tsteq	fp, fp, lsl #14
     bac:	1b000013 	blne	c00 <__code_start__-0x7400>
     bb0:	13310005 	teqne	r1, #5, 0
     bb4:	42b71702 	adcsmi	r1, r7, #524288	; 0x80000
     bb8:	1c000017 	stcne	0, cr0, [r0], {23}
     bbc:	13310005 	teqne	r1, #5, 0
     bc0:	341d0000 	ldrcc	r0, [sp], #-0
     bc4:	02133100 	andseq	r3, r3, #0
     bc8:	1e000018 	mcrne	0, 0, r0, cr0, cr8, {0}
     bcc:	13310034 	teqne	r1, #52, 0	; 0x34
     bd0:	42b71702 	adcsmi	r1, r7, #524288	; 0x80000
     bd4:	1f000017 	svcne	0x00000017
     bd8:	13310034 	teqne	r1, #52, 0	; 0x34
     bdc:	1d200000 	stcne	0, cr0, [r0, #-0]
     be0:	52133101 	andspl	r3, r3, #1073741824	; 0x40000000
     be4:	0542b801 	strbeq	fp, [r2, #-2049]	; 0xfffff7ff
     be8:	0b581755 	bleq	1606944 <__bss_end__+0x15fc26c>
     bec:	0b570b59 	bleq	15c3958 <__bss_end__+0x15b9280>
     bf0:	89210000 	stmdbhi	r1!, {}	; <UNPREDICTABLE>
     bf4:	11010182 	smlabbne	r1, r2, r1, r0
     bf8:	00130101 	andseq	r0, r3, r1, lsl #2
     bfc:	01012200 	mrseq	r2, R9_usr
     c00:	13011349 	movwne	r1, #4937	; 0x1349
     c04:	21230000 			; <UNDEFINED> instruction: 0x21230000
     c08:	2f134900 	svccs	0x00134900
     c0c:	2400000b 	strcs	r0, [r0], #-11
     c10:	0e03012e 	adfeqsp	f0, f3, #0.5
     c14:	0b3b0b3a 	bleq	ec3904 <__bss_end__+0xeb922c>
     c18:	19270b39 	stmdbne	r7!, {r0, r3, r4, r5, r8, r9, fp}
     c1c:	0b201349 	bleq	805948 <__bss_end__+0x7fb270>
     c20:	00001301 	andeq	r1, r0, r1, lsl #6
     c24:	03000525 	movweq	r0, #1317	; 0x525
     c28:	3b0b3a0e 	blcc	2cf468 <__bss_end__+0x2c4d90>
     c2c:	490b390b 	stmdbmi	fp, {r0, r1, r3, r8, fp, ip, sp}
     c30:	26000013 			; <UNDEFINED> instruction: 0x26000013
     c34:	08030005 	stmdaeq	r3, {r0, r2}
     c38:	0b3b0b3a 	bleq	ec3928 <__bss_end__+0xeb9250>
     c3c:	13490b39 	movtne	r0, #39737	; 0x9b39
     c40:	34270000 	strtcc	r0, [r7], #-0
     c44:	3a080300 	bcc	20184c <__bss_end__+0x1f7174>
     c48:	390b3b0b 	stmdbcc	fp, {r0, r1, r3, r8, r9, fp, ip, sp}
     c4c:	0013490b 	andseq	r4, r3, fp, lsl #18
     c50:	010b2800 	tsteq	fp, r0, lsl #16
     c54:	34290000 	strtcc	r0, [r9], #-0
     c58:	3a0e0300 	bcc	381860 <__bss_end__+0x377188>
     c5c:	390b3b0b 	stmdbcc	fp, {r0, r1, r3, r8, r9, fp, ip, sp}
     c60:	0013490b 	andseq	r4, r3, fp, lsl #18
     c64:	012e2a00 			; <UNDEFINED> instruction: 0x012e2a00
     c68:	0b3a0803 	bleq	e82c7c <__bss_end__+0xe785a4>
     c6c:	0b390b3b 	bleq	e43960 <__bss_end__+0xe39288>
     c70:	13491927 	movtne	r1, #39207	; 0x9927
     c74:	13010b20 	movwne	r0, #6944	; 0x1b20
     c78:	2e2b0000 	cdpcs	0, 2, cr0, cr11, cr0, {0}
     c7c:	03193f01 	tsteq	r9, #1, 30
     c80:	3b0b3a0e 	blcc	2cf4c0 <__bss_end__+0x2c4de8>
     c84:	270b390b 	strcs	r3, [fp, -fp, lsl #18]
     c88:	12011119 	andne	r1, r1, #1073741830	; 0x40000006
     c8c:	97184006 	ldrls	r4, [r8, -r6]
     c90:	13011942 	movwne	r1, #6466	; 0x1942
     c94:	2e2c0000 	cdpcs	0, 2, cr0, cr12, cr0, {0}
     c98:	11133101 	tstne	r3, r1, lsl #2
     c9c:	40061201 	andmi	r1, r6, r1, lsl #4
     ca0:	19429718 	stmdbne	r2, {r3, r4, r8, r9, sl, ip, pc}^
     ca4:	00001301 	andeq	r1, r0, r1, lsl #6
     ca8:	3100052d 	tstcc	r0, sp, lsr #10
     cac:	00180213 	andseq	r0, r8, r3, lsl r2
     cb0:	00052e00 	andeq	r2, r5, r0, lsl #28
     cb4:	0b1c1331 	bleq	705980 <__bss_end__+0x6fb2a8>
     cb8:	0b2f0000 	bleq	bc0cc0 <__bss_end__+0xbb65e8>
     cbc:	11133101 	tstne	r3, r1, lsl #2
     cc0:	01061201 	tsteq	r6, r1, lsl #4
     cc4:	30000013 	andcc	r0, r0, r3, lsl r0
     cc8:	193f002e 	ldmdbne	pc!, {r1, r2, r3, r5}	; <UNPREDICTABLE>
     ccc:	0e6e193c 			; <UNDEFINED> instruction: 0x0e6e193c
     cd0:	0b3a0e03 	bleq	e844e4 <__bss_end__+0xe79e0c>
     cd4:	0b390b3b 	bleq	e439c8 <__bss_end__+0xe392f0>
     cd8:	01000000 	mrseq	r0, (UNDEF: 0)
     cdc:	0e250111 	mcreq	1, 1, r0, cr5, cr1, {0}
     ce0:	0e030b13 	vmoveq.32	d3[0], r0
     ce4:	01110e1b 	tsteq	r1, fp, lsl lr
     ce8:	17100612 			; <UNDEFINED> instruction: 0x17100612
     cec:	24020000 	strcs	r0, [r2], #-0
     cf0:	3e0b0b00 	vmlacc.f64	d0, d11, d0
     cf4:	0008030b 	andeq	r0, r8, fp, lsl #6
     cf8:	00240300 	eoreq	r0, r4, r0, lsl #6
     cfc:	0b3e0b0b 	bleq	f83930 <__bss_end__+0xf79258>
     d00:	00000e03 	andeq	r0, r0, r3, lsl #28
     d04:	27011504 	strcs	r1, [r1, -r4, lsl #10]
     d08:	01134919 	tsteq	r3, r9, lsl r9
     d0c:	05000013 	streq	r0, [r0, #-19]	; 0xffffffed
     d10:	13490005 	movtne	r0, #36869	; 0x9005
     d14:	34060000 	strcc	r0, [r6], #-0
     d18:	3a0e0300 	bcc	381920 <__bss_end__+0x377248>
     d1c:	390b3b0b 	stmdbcc	fp, {r0, r1, r3, r8, r9, fp, ip, sp}
     d20:	3f13490b 	svccc	0x0013490b
     d24:	00193c19 	andseq	r3, r9, r9, lsl ip
     d28:	000f0700 	andeq	r0, pc, r0, lsl #14
     d2c:	13490b0b 	movtne	r0, #39691	; 0x9b0b
     d30:	26080000 	strcs	r0, [r8], -r0
     d34:	00134900 	andseq	r4, r3, r0, lsl #18
     d38:	012e0900 			; <UNDEFINED> instruction: 0x012e0900
     d3c:	0e03193f 			; <UNDEFINED> instruction: 0x0e03193f
     d40:	0b3b0b3a 	bleq	ec3a30 <__bss_end__+0xeb9358>
     d44:	19270b39 	stmdbne	r7!, {r0, r3, r4, r5, r8, r9, fp}
     d48:	11190187 	tstne	r9, r7, lsl #3
     d4c:	40061201 	andmi	r1, r6, r1, lsl #4
     d50:	19429718 	stmdbne	r2, {r3, r4, r8, r9, sl, ip, pc}^
     d54:	00001301 	andeq	r1, r0, r1, lsl #6
     d58:	0182890a 	orreq	r8, r2, sl, lsl #18
     d5c:	01011101 	tsteq	r1, r1, lsl #2
     d60:	0b000013 	bleq	db4 <__code_start__-0x724c>
     d64:	0001828a 	andeq	r8, r1, sl, lsl #5
     d68:	42911802 	addsmi	r1, r1, #131072	; 0x20000
     d6c:	0c000018 	stceq	0, cr0, [r0], {24}
     d70:	00018289 	andeq	r8, r1, r9, lsl #5
     d74:	13310111 	teqne	r1, #1073741828	; 0x40000004
     d78:	890d0000 	stmdbhi	sp, {}	; <UNPREDICTABLE>
     d7c:	11010182 	smlabbne	r1, r2, r1, r0
     d80:	01133101 	tsteq	r3, r1, lsl #2
     d84:	0e000013 	mcreq	0, 0, r0, cr0, cr3, {0}
     d88:	193f002e 	ldmdbne	pc!, {r1, r2, r3, r5}	; <UNPREDICTABLE>
     d8c:	0e6e193c 			; <UNDEFINED> instruction: 0x0e6e193c
     d90:	0b3a0e03 	bleq	e845a4 <__bss_end__+0xe79ecc>
     d94:	0b390b3b 	bleq	e43a88 <__bss_end__+0xe393b0>
     d98:	01000000 	mrseq	r0, (UNDEF: 0)
     d9c:	0e250111 	mcreq	1, 1, r0, cr5, cr1, {0}
     da0:	0e030b13 	vmoveq.32	d3[0], r0
     da4:	01110e1b 	tsteq	r1, fp, lsl lr
     da8:	17100612 			; <UNDEFINED> instruction: 0x17100612
     dac:	24020000 	strcs	r0, [r2], #-0
     db0:	3e0b0b00 	vmlacc.f64	d0, d11, d0
     db4:	0008030b 	andeq	r0, r8, fp, lsl #6
     db8:	00240300 	eoreq	r0, r4, r0, lsl #6
     dbc:	0b3e0b0b 	bleq	f839f0 <__bss_end__+0xf79318>
     dc0:	00000e03 	andeq	r0, r0, r3, lsl #28
     dc4:	27011504 	strcs	r1, [r1, -r4, lsl #10]
     dc8:	01134919 	tsteq	r3, r9, lsl r9
     dcc:	05000013 	streq	r0, [r0, #-19]	; 0xffffffed
     dd0:	13490005 	movtne	r0, #36869	; 0x9005
     dd4:	34060000 	strcc	r0, [r6], #-0
     dd8:	3a0e0300 	bcc	3819e0 <__bss_end__+0x377308>
     ddc:	390b3b0b 	stmdbcc	fp, {r0, r1, r3, r8, r9, fp, ip, sp}
     de0:	3f13490b 	svccc	0x0013490b
     de4:	00193c19 	andseq	r3, r9, r9, lsl ip
     de8:	000f0700 	andeq	r0, pc, r0, lsl #14
     dec:	13490b0b 	movtne	r0, #39691	; 0x9b0b
     df0:	26080000 	strcs	r0, [r8], -r0
     df4:	00134900 	andseq	r4, r3, r0, lsl #18
     df8:	012e0900 			; <UNDEFINED> instruction: 0x012e0900
     dfc:	0e03193f 			; <UNDEFINED> instruction: 0x0e03193f
     e00:	0b3b0b3a 	bleq	ec3af0 <__bss_end__+0xeb9418>
     e04:	01110b39 	tsteq	r1, r9, lsr fp
     e08:	18400612 	stmdane	r0, {r1, r4, r9, sl}^
     e0c:	01194297 			; <UNDEFINED> instruction: 0x01194297
     e10:	0a000013 	beq	e64 <__code_start__-0x719c>
     e14:	193f002e 	ldmdbne	pc!, {r1, r2, r3, r5}	; <UNPREDICTABLE>
     e18:	0b3a0e03 	bleq	e8462c <__bss_end__+0xe79f54>
     e1c:	0b390b3b 	bleq	e43b10 <__bss_end__+0xe39438>
     e20:	193c1927 	ldmdbne	ip!, {r0, r1, r2, r5, r8, fp, ip}
     e24:	340b0000 	strcc	r0, [fp], #-0
     e28:	3a080300 	bcc	201a30 <__bss_end__+0x1f7358>
     e2c:	390b3b0b 	stmdbcc	fp, {r0, r1, r3, r8, r9, fp, ip, sp}
     e30:	0213490b 	andseq	r4, r3, #180224	; 0x2c000
     e34:	1742b717 	smlaldne	fp, r2, r7, r7
     e38:	340c0000 	strcc	r0, [ip], #-0
     e3c:	3a0e0300 	bcc	381a44 <__bss_end__+0x37736c>
     e40:	390b3b0b 	stmdbcc	fp, {r0, r1, r3, r8, r9, fp, ip, sp}
     e44:	0013490b 	andseq	r4, r3, fp, lsl #18
     e48:	010b0d00 	tsteq	fp, r0, lsl #26
     e4c:	06120111 			; <UNDEFINED> instruction: 0x06120111
     e50:	00001301 	andeq	r1, r0, r1, lsl #6
     e54:	0182890e 	orreq	r8, r2, lr, lsl #18
     e58:	31011100 	mrscc	r1, (UNDEF: 17)
     e5c:	0f000013 	svceq	0x00000013
     e60:	193f002e 	ldmdbne	pc!, {r1, r2, r3, r5}	; <UNPREDICTABLE>
     e64:	0e6e193c 			; <UNDEFINED> instruction: 0x0e6e193c
     e68:	0b3a0e03 	bleq	e8467c <__bss_end__+0xe79fa4>
     e6c:	0b39053b 	bleq	e42360 <__bss_end__+0xe37c88>
     e70:	2e100000 	cdpcs	0, 1, cr0, cr0, cr0, {0}
     e74:	3c193f00 	ldccc	15, cr3, [r9], {-0}
     e78:	030e6e19 	movweq	r6, #60953	; 0xee19
     e7c:	3b0b3a0e 	blcc	2cf6bc <__bss_end__+0x2c4fe4>
     e80:	000b390b 	andeq	r3, fp, fp, lsl #18
     e84:	11010000 	mrsne	r0, (UNDEF: 1)
     e88:	130e2501 	movwne	r2, #58625	; 0xe501
     e8c:	1b0e030b 	blne	381ac0 <__bss_end__+0x3773e8>
     e90:	1201110e 	andne	r1, r1, #-2147483645	; 0x80000003
     e94:	00171006 	andseq	r1, r7, r6
     e98:	00240200 	eoreq	r0, r4, r0, lsl #4
     e9c:	0b3e0b0b 	bleq	f83ad0 <__bss_end__+0xf793f8>
     ea0:	00000803 	andeq	r0, r0, r3, lsl #16
     ea4:	0b002403 	bleq	9eb8 <__FUNCTION__.4048+0x40>
     ea8:	030b3e0b 	movweq	r3, #48651	; 0xbe0b
     eac:	0400000e 	streq	r0, [r0], #-14
     eb0:	19270115 	stmdbne	r7!, {r0, r2, r4, r8}
     eb4:	13011349 	movwne	r1, #4937	; 0x1349
     eb8:	05050000 	streq	r0, [r5, #-0]
     ebc:	00134900 	andseq	r4, r3, r0, lsl #18
     ec0:	00340600 	eorseq	r0, r4, r0, lsl #12
     ec4:	0b3a0e03 	bleq	e846d8 <__bss_end__+0xe7a000>
     ec8:	0b390b3b 	bleq	e43bbc <__bss_end__+0xe394e4>
     ecc:	193f1349 	ldmdbne	pc!, {r0, r3, r6, r8, r9, ip}	; <UNPREDICTABLE>
     ed0:	0000193c 	andeq	r1, r0, ip, lsr r9
     ed4:	0b000f07 	bleq	4af8 <__code_start__-0x3508>
     ed8:	0013490b 	andseq	r4, r3, fp, lsl #18
     edc:	00260800 	eoreq	r0, r6, r0, lsl #16
     ee0:	00001349 	andeq	r1, r0, r9, asr #6
     ee4:	3f002e09 	svccc	0x00002e09
     ee8:	3a0e0319 	bcc	381b54 <__bss_end__+0x37747c>
     eec:	390b3b0b 	stmdbcc	fp, {r0, r1, r3, r8, r9, fp, ip, sp}
     ef0:	1119270b 	tstne	r9, fp, lsl #14
     ef4:	40061201 	andmi	r1, r6, r1, lsl #4
     ef8:	19429718 	stmdbne	r2, {r3, r4, r8, r9, sl, ip, pc}^
     efc:	01000000 	mrseq	r0, (UNDEF: 0)
     f00:	0e250111 	mcreq	1, 1, r0, cr5, cr1, {0}
     f04:	0e030b13 	vmoveq.32	d3[0], r0
     f08:	17550e1b 	smmlane	r5, fp, lr, r0
     f0c:	17100111 			; <UNDEFINED> instruction: 0x17100111
     f10:	24020000 	strcs	r0, [r2], #-0
     f14:	3e0b0b00 	vmlacc.f64	d0, d11, d0
     f18:	0008030b 	andeq	r0, r8, fp, lsl #6
     f1c:	00260300 	eoreq	r0, r6, r0, lsl #6
     f20:	00001349 	andeq	r1, r0, r9, asr #6
     f24:	0b002404 	bleq	9f3c <__FUNCTION__.4080+0x14>
     f28:	030b3e0b 	movweq	r3, #48651	; 0xbe0b
     f2c:	0500000e 	streq	r0, [r0, #-14]
     f30:	19270115 	stmdbne	r7!, {r0, r2, r4, r8}
     f34:	13011349 	movwne	r1, #4937	; 0x1349
     f38:	05060000 	streq	r0, [r6, #-0]
     f3c:	00134900 	andseq	r4, r3, r0, lsl #18
     f40:	00340700 	eorseq	r0, r4, r0, lsl #14
     f44:	0b3a0e03 	bleq	e84758 <__bss_end__+0xe7a080>
     f48:	0b390b3b 	bleq	e43c3c <__bss_end__+0xe39564>
     f4c:	193f1349 	ldmdbne	pc!, {r0, r3, r6, r8, r9, ip}	; <UNPREDICTABLE>
     f50:	0000193c 	andeq	r1, r0, ip, lsr r9
     f54:	0b000f08 	bleq	4b7c <__code_start__-0x3484>
     f58:	0013490b 	andseq	r4, r3, fp, lsl #18
     f5c:	00340900 	eorseq	r0, r4, r0, lsl #18
     f60:	0b3a0e03 	bleq	e84774 <__bss_end__+0xe7a09c>
     f64:	0b390b3b 	bleq	e43c58 <__bss_end__+0xe39580>
     f68:	00001349 	andeq	r1, r0, r9, asr #6
     f6c:	3f012e0a 	svccc	0x00012e0a
     f70:	3a0e0319 	bcc	381bdc <__bss_end__+0x377504>
     f74:	390b3b0b 	stmdbcc	fp, {r0, r1, r3, r8, r9, fp, ip, sp}
     f78:	8719270b 	ldrhi	r2, [r9, -fp, lsl #14]
     f7c:	01111901 	tsteq	r1, r1, lsl #18
     f80:	18400612 	stmdane	r0, {r1, r4, r9, sl}^
     f84:	01194297 			; <UNDEFINED> instruction: 0x01194297
     f88:	0b000013 	bleq	fdc <__code_start__-0x7024>
     f8c:	0e030034 	mcreq	0, 0, r0, cr3, cr4, {1}
     f90:	0b3b0b3a 	bleq	ec3c80 <__bss_end__+0xeb95a8>
     f94:	13490b39 	movtne	r0, #39737	; 0x9b39
     f98:	0000061c 	andeq	r0, r0, ip, lsl r6
     f9c:	0300340c 	movweq	r3, #1036	; 0x40c
     fa0:	3b0b3a0e 	blcc	2cf7e0 <__bss_end__+0x2c5108>
     fa4:	490b390b 	stmdbmi	fp, {r0, r1, r3, r8, fp, ip, sp}
     fa8:	000b1c13 	andeq	r1, fp, r3, lsl ip
     fac:	011d0d00 	tsteq	sp, r0, lsl #26
     fb0:	01521331 	cmpeq	r2, r1, lsr r3
     fb4:	550b42b8 	strpl	r4, [fp, #-696]	; 0xfffffd48
     fb8:	590b5817 	stmdbpl	fp, {r0, r1, r2, r4, fp, ip, lr}
     fbc:	010b570b 	tsteq	fp, fp, lsl #14
     fc0:	0e000013 	mcreq	0, 0, r0, cr0, cr3, {0}
     fc4:	1755010b 	ldrbne	r0, [r5, -fp, lsl #2]
     fc8:	340f0000 	strcc	r0, [pc], #-0	; fd0 <__code_start__-0x7030>
     fcc:	02133100 	andseq	r3, r3, #0
     fd0:	1742b717 	smlaldne	fp, r2, r7, r7
     fd4:	1d100000 	ldcne	0, cr0, [r0, #-0]
     fd8:	52133101 	andspl	r3, r3, #1073741824	; 0x40000000
     fdc:	0b42b801 	bleq	10aefe8 <__bss_end__+0x10a4910>
     fe0:	06120111 			; <UNDEFINED> instruction: 0x06120111
     fe4:	0b590b58 	bleq	1643d4c <__bss_end__+0x1639674>
     fe8:	13010b57 	movwne	r0, #6999	; 0x1b57
     fec:	89110000 	ldmdbhi	r1, {}	; <UNPREDICTABLE>
     ff0:	11000182 	smlabbne	r0, r2, r1, r0
     ff4:	00133101 	andseq	r3, r3, r1, lsl #2
     ff8:	82891200 	addhi	r1, r9, #0, 4
     ffc:	01110101 	tsteq	r1, r1, lsl #2
    1000:	13011331 	movwne	r1, #4913	; 0x1331
    1004:	8a130000 	bhi	4c100c <__bss_end__+0x4b6934>
    1008:	02000182 	andeq	r0, r0, #-2147483616	; 0x80000020
    100c:	18429118 	stmdane	r2, {r3, r4, r8, ip, pc}^
    1010:	89140000 	ldmdbhi	r4, {}	; <UNPREDICTABLE>
    1014:	11010182 	smlabbne	r1, r2, r1, r0
    1018:	00133101 	andseq	r3, r3, r1, lsl #2
    101c:	012e1500 			; <UNDEFINED> instruction: 0x012e1500
    1020:	0e03193f 			; <UNDEFINED> instruction: 0x0e03193f
    1024:	0b3b0b3a 	bleq	ec3d14 <__bss_end__+0xeb963c>
    1028:	19270b39 	stmdbne	r7!, {r0, r3, r4, r5, r8, r9, fp}
    102c:	13010b20 	movwne	r0, #6944	; 0x1b20
    1030:	2e160000 	cdpcs	0, 1, cr0, cr6, cr0, {0}
    1034:	03193f01 	tsteq	r9, #1, 30
    1038:	3b0b3a0e 	blcc	2cf878 <__bss_end__+0x2c51a0>
    103c:	270b390b 	strcs	r3, [fp, -fp, lsl #18]
    1040:	20134919 	andscs	r4, r3, r9, lsl r9
    1044:	0013010b 	andseq	r0, r3, fp, lsl #2
    1048:	012e1700 			; <UNDEFINED> instruction: 0x012e1700
    104c:	01111331 	tsteq	r1, r1, lsr r3
    1050:	18400612 	stmdane	r0, {r1, r4, r9, sl}^
    1054:	01194297 			; <UNDEFINED> instruction: 0x01194297
    1058:	18000013 	stmdane	r0, {r0, r1, r4}
    105c:	193f002e 	ldmdbne	pc!, {r1, r2, r3, r5}	; <UNPREDICTABLE>
    1060:	0e6e193c 			; <UNDEFINED> instruction: 0x0e6e193c
    1064:	0b3a0e03 	bleq	e84878 <__bss_end__+0xe7a1a0>
    1068:	0b39053b 	bleq	e4255c <__bss_end__+0xe37e84>
    106c:	2e190000 	cdpcs	0, 1, cr0, cr9, cr0, {0}
    1070:	3c193f00 	ldccc	15, cr3, [r9], {-0}
    1074:	030e6e19 	movweq	r6, #60953	; 0xee19
    1078:	3b0b3a0e 	blcc	2cf8b8 <__bss_end__+0x2c51e0>
    107c:	000b390b 	andeq	r3, fp, fp, lsl #18
    1080:	11010000 	mrsne	r0, (UNDEF: 1)
    1084:	130e2501 	movwne	r2, #58625	; 0xe501
    1088:	1b0e030b 	blne	381cbc <__bss_end__+0x3775e4>
    108c:	1201110e 	andne	r1, r1, #-2147483645	; 0x80000003
    1090:	00171006 	andseq	r1, r7, r6
    1094:	00240200 	eoreq	r0, r4, r0, lsl #4
    1098:	0b3e0b0b 	bleq	f83ccc <__bss_end__+0xf795f4>
    109c:	00000803 	andeq	r0, r0, r3, lsl #16
    10a0:	0b002403 	bleq	a0b4 <__FUNCTION__.4030+0x24>
    10a4:	030b3e0b 	movweq	r3, #48651	; 0xbe0b
    10a8:	0400000e 	streq	r0, [r0], #-14
    10ac:	19270115 	stmdbne	r7!, {r0, r2, r4, r8}
    10b0:	13011349 	movwne	r1, #4937	; 0x1349
    10b4:	05050000 	streq	r0, [r5, #-0]
    10b8:	00134900 	andseq	r4, r3, r0, lsl #18
    10bc:	00340600 	eorseq	r0, r4, r0, lsl #12
    10c0:	0b3a0e03 	bleq	e848d4 <__bss_end__+0xe7a1fc>
    10c4:	0b390b3b 	bleq	e43db8 <__bss_end__+0xe396e0>
    10c8:	193f1349 	ldmdbne	pc!, {r0, r3, r6, r8, r9, ip}	; <UNPREDICTABLE>
    10cc:	0000193c 	andeq	r1, r0, ip, lsr r9
    10d0:	0b000f07 	bleq	4cf4 <__code_start__-0x330c>
    10d4:	0013490b 	andseq	r4, r3, fp, lsl #18
    10d8:	00260800 	eoreq	r0, r6, r0, lsl #16
    10dc:	00001349 	andeq	r1, r0, r9, asr #6
    10e0:	3f012e09 	svccc	0x00012e09
    10e4:	3a0e0319 	bcc	381d50 <__bss_end__+0x377678>
    10e8:	390b3b0b 	stmdbcc	fp, {r0, r1, r3, r8, r9, fp, ip, sp}
    10ec:	1119270b 	tstne	r9, fp, lsl #14
    10f0:	40061201 	andmi	r1, r6, r1, lsl #4
    10f4:	19429718 	stmdbne	r2, {r3, r4, r8, r9, sl, ip, pc}^
    10f8:	00001301 	andeq	r1, r0, r1, lsl #6
    10fc:	0300050a 	movweq	r0, #1290	; 0x50a
    1100:	3b0b3a08 	blcc	2cf928 <__bss_end__+0x2c5250>
    1104:	490b390b 	stmdbmi	fp, {r0, r1, r3, r8, fp, ip, sp}
    1108:	b7170213 			; <UNDEFINED> instruction: 0xb7170213
    110c:	00001742 	andeq	r1, r0, r2, asr #14
    1110:	31011d0b 	tstcc	r1, fp, lsl #26
    1114:	b8015213 	stmdalt	r1, {r0, r1, r4, r9, ip, lr}
    1118:	17550b42 	ldrbne	r0, [r5, -r2, asr #22]
    111c:	0b590b58 	bleq	1643e84 <__bss_end__+0x16397ac>
    1120:	00000b57 	andeq	r0, r0, r7, asr fp
    1124:	3100050c 	tstcc	r0, ip, lsl #10
    1128:	b7170213 			; <UNDEFINED> instruction: 0xb7170213
    112c:	00001742 	andeq	r1, r0, r2, asr #14
    1130:	31011d0d 	tstcc	r1, sp, lsl #26
    1134:	b8015213 	stmdalt	r1, {r0, r1, r4, r9, ip, lr}
    1138:	01110b42 	tsteq	r1, r2, asr #22
    113c:	0b580612 	bleq	160298c <__bss_end__+0x15f82b4>
    1140:	0b570b59 	bleq	15c3eac <__bss_end__+0x15b97d4>
    1144:	340e0000 	strcc	r0, [lr], #-0
    1148:	02133100 	andseq	r3, r3, #0
    114c:	1742b717 	smlaldne	fp, r2, r7, r7
    1150:	1d0f0000 	stcne	0, cr0, [pc, #-0]	; 1158 <__code_start__-0x6ea8>
    1154:	52133101 	andspl	r3, r3, #1073741824	; 0x40000000
    1158:	0b42b801 	bleq	10af164 <__bss_end__+0x10a4a8c>
    115c:	06120111 			; <UNDEFINED> instruction: 0x06120111
    1160:	0b590b58 	bleq	1643ec8 <__bss_end__+0x16397f0>
    1164:	13010b57 	movwne	r0, #6999	; 0x1b57
    1168:	89100000 	ldmdbhi	r0, {}	; <UNPREDICTABLE>
    116c:	11010182 	smlabbne	r1, r2, r1, r0
    1170:	00133101 	andseq	r3, r3, r1, lsl #2
    1174:	828a1100 	addhi	r1, sl, #0
    1178:	18020001 	stmdane	r2, {r0}
    117c:	00184291 	mulseq	r8, r1, r2
    1180:	82891200 	addhi	r1, r9, #0, 4
    1184:	01110001 	tsteq	r1, r1
    1188:	00001331 	andeq	r1, r0, r1, lsr r3
    118c:	31010b13 	tstcc	r1, r3, lsl fp
    1190:	00175513 	andseq	r5, r7, r3, lsl r5
    1194:	00341400 	eorseq	r1, r4, r0, lsl #8
    1198:	00001331 	andeq	r1, r0, r1, lsr r3
    119c:	55010b15 	strpl	r0, [r1, #-2837]	; 0xfffff4eb
    11a0:	16000017 			; <UNDEFINED> instruction: 0x16000017
    11a4:	1331011d 	teqne	r1, #1073741831	; 0x40000007
    11a8:	42b80152 	adcsmi	r0, r8, #-2147483628	; 0x80000014
    11ac:	5817550b 	ldmdapl	r7, {r0, r1, r3, r8, sl, ip, lr}
    11b0:	570b590b 	strpl	r5, [fp, -fp, lsl #18]
    11b4:	0013010b 	andseq	r0, r3, fp, lsl #2
    11b8:	012e1700 			; <UNDEFINED> instruction: 0x012e1700
    11bc:	0e03193f 			; <UNDEFINED> instruction: 0x0e03193f
    11c0:	0b3b0b3a 	bleq	ec3eb0 <__bss_end__+0xeb97d8>
    11c4:	19270b39 	stmdbne	r7!, {r0, r3, r4, r5, r8, r9, fp}
    11c8:	13010b20 	movwne	r0, #6944	; 0x1b20
    11cc:	05180000 	ldreq	r0, [r8, #-0]
    11d0:	3a080300 	bcc	201dd8 <__bss_end__+0x1f7700>
    11d4:	390b3b0b 	stmdbcc	fp, {r0, r1, r3, r8, r9, fp, ip, sp}
    11d8:	0013490b 	andseq	r4, r3, fp, lsl #18
    11dc:	00341900 	eorseq	r1, r4, r0, lsl #18
    11e0:	0b3a0803 	bleq	e831f4 <__bss_end__+0xe78b1c>
    11e4:	0b390b3b 	bleq	e43ed8 <__bss_end__+0xe39800>
    11e8:	00001349 	andeq	r1, r0, r9, asr #6
    11ec:	00010b1a 	andeq	r0, r1, sl, lsl fp
    11f0:	012e1b00 			; <UNDEFINED> instruction: 0x012e1b00
    11f4:	0e03193f 			; <UNDEFINED> instruction: 0x0e03193f
    11f8:	0b3b0b3a 	bleq	ec3ee8 <__bss_end__+0xeb9810>
    11fc:	19270b39 	stmdbne	r7!, {r0, r3, r4, r5, r8, r9, fp}
    1200:	0b201349 	bleq	805f2c <__bss_end__+0x7fb854>
    1204:	00001301 	andeq	r1, r0, r1, lsl #6
    1208:	3f002e1c 	svccc	0x00002e1c
    120c:	3a0e0319 	bcc	381e78 <__bss_end__+0x3777a0>
    1210:	390b3b0b 	stmdbcc	fp, {r0, r1, r3, r8, r9, fp, ip, sp}
    1214:	4919270b 	ldmdbmi	r9, {r0, r1, r3, r8, r9, sl, sp}
    1218:	000b2013 	andeq	r2, fp, r3, lsl r0
    121c:	012e1d00 			; <UNDEFINED> instruction: 0x012e1d00
    1220:	01111331 	tsteq	r1, r1, lsr r3
    1224:	18400612 	stmdane	r0, {r1, r4, r9, sl}^
    1228:	01194297 			; <UNDEFINED> instruction: 0x01194297
    122c:	1e000013 	mcrne	0, 0, r0, cr0, cr3, {0}
    1230:	01018289 	smlabbeq	r1, r9, r2, r8
    1234:	42950111 	addsmi	r0, r5, #1073741828	; 0x40000004
    1238:	00133119 	andseq	r3, r3, r9, lsl r1
    123c:	002e1f00 	eoreq	r1, lr, r0, lsl #30
    1240:	193c193f 	ldmdbne	ip!, {r0, r1, r2, r3, r4, r5, r8, fp, ip}
    1244:	0e030e6e 	cdpeq	14, 0, cr0, cr3, cr14, {3}
    1248:	0b3b0b3a 	bleq	ec3f38 <__bss_end__+0xeb9860>
    124c:	00000b39 	andeq	r0, r0, r9, lsr fp
    1250:	01110100 	tsteq	r1, r0, lsl #2
    1254:	0b130e25 	bleq	4c4af0 <__bss_end__+0x4ba418>
    1258:	0e1b0e03 	cdpeq	14, 1, cr0, cr11, cr3, {0}
    125c:	06120111 			; <UNDEFINED> instruction: 0x06120111
    1260:	00001710 	andeq	r1, r0, r0, lsl r7
    1264:	0b002402 	bleq	a274 <__FUNCTION__.4+0xc>
    1268:	030b3e0b 	movweq	r3, #48651	; 0xbe0b
    126c:	03000008 	movweq	r0, #8
    1270:	0b0b0024 	bleq	2c1308 <__bss_end__+0x2b6c30>
    1274:	0e030b3e 	vmoveq.16	d3[0], r0
    1278:	35040000 	strcc	r0, [r4, #-0]
    127c:	00134900 	andseq	r4, r3, r0, lsl #18
    1280:	00160500 	andseq	r0, r6, r0, lsl #10
    1284:	0b3a0e03 	bleq	e84a98 <__bss_end__+0xe7a3c0>
    1288:	0b390b3b 	bleq	e43f7c <__bss_end__+0xe398a4>
    128c:	00001349 	andeq	r1, r0, r9, asr #6
    1290:	3e010406 	cdpcc	4, 0, cr0, cr1, cr6, {0}
    1294:	490b0b0b 	stmdbmi	fp, {r0, r1, r3, r8, r9, fp}
    1298:	3b0b3a13 	blcc	2cfaec <__bss_end__+0x2c5414>
    129c:	010b390b 	tsteq	fp, fp, lsl #18
    12a0:	07000013 	smladeq	r0, r3, r0, r0
    12a4:	0e030028 	cdpeq	0, 0, cr0, cr3, cr8, {1}
    12a8:	00000b1c 	andeq	r0, r0, ip, lsl fp
    12ac:	03011308 	movweq	r1, #4872	; 0x1308
    12b0:	3a0b0b0e 	bcc	2c3ef0 <__bss_end__+0x2b9818>
    12b4:	390b3b0b 	stmdbcc	fp, {r0, r1, r3, r8, r9, fp, ip, sp}
    12b8:	0013010b 	andseq	r0, r3, fp, lsl #2
    12bc:	000d0900 	andeq	r0, sp, r0, lsl #18
    12c0:	0b3a0803 	bleq	e832d4 <__bss_end__+0xe78bfc>
    12c4:	0b390b3b 	bleq	e43fb8 <__bss_end__+0xe398e0>
    12c8:	0b381349 	bleq	e05ff4 <__bss_end__+0xdfb91c>
    12cc:	0d0a0000 	stceq	0, cr0, [sl, #-0]
    12d0:	3a0e0300 	bcc	381ed8 <__bss_end__+0x377800>
    12d4:	390b3b0b 	stmdbcc	fp, {r0, r1, r3, r8, r9, fp, ip, sp}
    12d8:	3813490b 	ldmdacc	r3, {r0, r1, r3, r8, fp, lr}
    12dc:	0b00000b 	bleq	1310 <__code_start__-0x6cf0>
    12e0:	0e030034 	mcreq	0, 0, r0, cr3, cr4, {1}
    12e4:	0b3b0b3a 	bleq	ec3fd4 <__bss_end__+0xeb98fc>
    12e8:	13490b39 	movtne	r0, #39737	; 0x9b39
    12ec:	0000061c 	andeq	r0, r0, ip, lsl r6
    12f0:	0b000f0c 	bleq	4f28 <__code_start__-0x30d8>
    12f4:	0013490b 	andseq	r4, r3, fp, lsl #18
    12f8:	00260d00 	eoreq	r0, r6, r0, lsl #26
    12fc:	00001349 	andeq	r1, r0, r9, asr #6
    1300:	3f012e0e 	svccc	0x00012e0e
    1304:	3a0e0319 	bcc	381f70 <__bss_end__+0x377898>
    1308:	390b3b0b 	stmdbcc	fp, {r0, r1, r3, r8, r9, fp, ip, sp}
    130c:	1119270b 	tstne	r9, fp, lsl #14
    1310:	40061201 	andmi	r1, r6, r1, lsl #4
    1314:	19429718 	stmdbne	r2, {r3, r4, r8, r9, sl, ip, pc}^
    1318:	00001301 	andeq	r1, r0, r1, lsl #6
    131c:	0182890f 	orreq	r8, r2, pc, lsl #18
    1320:	31011100 	mrscc	r1, (UNDEF: 17)
    1324:	10000013 	andne	r0, r0, r3, lsl r0
    1328:	193f012e 	ldmdbne	pc!, {r1, r2, r3, r5, r8}	; <UNPREDICTABLE>
    132c:	0b3a0e03 	bleq	e84b40 <__bss_end__+0xe7a468>
    1330:	0b390b3b 	bleq	e44024 <__bss_end__+0xe3994c>
    1334:	13491927 	movtne	r1, #39207	; 0x9927
    1338:	06120111 			; <UNDEFINED> instruction: 0x06120111
    133c:	42971840 	addsmi	r1, r7, #64, 16	; 0x400000
    1340:	00130119 	andseq	r0, r3, r9, lsl r1
    1344:	82891100 	addhi	r1, r9, #0
    1348:	01110101 	tsteq	r1, r1, lsl #2
    134c:	00001331 	andeq	r1, r0, r1, lsr r3
    1350:	01828a12 	orreq	r8, r2, r2, lsl sl
    1354:	91180200 	tstls	r8, r0, lsl #4
    1358:	00001842 	andeq	r1, r0, r2, asr #16
    135c:	03000513 	movweq	r0, #1299	; 0x513
    1360:	3b0b3a08 	blcc	2cfb88 <__bss_end__+0x2c54b0>
    1364:	490b390b 	stmdbmi	fp, {r0, r1, r3, r8, fp, ip, sp}
    1368:	b7170213 			; <UNDEFINED> instruction: 0xb7170213
    136c:	00001742 	andeq	r1, r0, r2, asr #14
    1370:	01828914 	orreq	r8, r2, r4, lsl r9
    1374:	31011101 	tstcc	r1, r1, lsl #2
    1378:	00130113 	andseq	r0, r3, r3, lsl r1
    137c:	00341500 	eorseq	r1, r4, r0, lsl #10
    1380:	0b3a0803 	bleq	e83394 <__bss_end__+0xe78cbc>
    1384:	0b390b3b 	bleq	e44078 <__bss_end__+0xe399a0>
    1388:	17021349 	strne	r1, [r2, -r9, asr #6]
    138c:	001742b7 			; <UNDEFINED> instruction: 0x001742b7
    1390:	00341600 	eorseq	r1, r4, r0, lsl #12
    1394:	0b3a0e03 	bleq	e84ba8 <__bss_end__+0xe7a4d0>
    1398:	0b390b3b 	bleq	e4408c <__bss_end__+0xe399b4>
    139c:	051c1349 	ldreq	r1, [ip, #-841]	; 0xfffffcb7
    13a0:	2e170000 	cdpcs	0, 1, cr0, cr7, cr0, {0}
    13a4:	3a0e0301 	bcc	381fb0 <__bss_end__+0x3778d8>
    13a8:	390b3b0b 	stmdbcc	fp, {r0, r1, r3, r8, r9, fp, ip, sp}
    13ac:	1119270b 	tstne	r9, fp, lsl #14
    13b0:	40061201 	andmi	r1, r6, r1, lsl #4
    13b4:	19429718 	stmdbne	r2, {r3, r4, r8, r9, sl, ip, pc}^
    13b8:	00001301 	andeq	r1, r0, r1, lsl #6
    13bc:	03000518 	movweq	r0, #1304	; 0x518
    13c0:	3b0b3a0e 	blcc	2cfc00 <__bss_end__+0x2c5528>
    13c4:	490b390b 	stmdbmi	fp, {r0, r1, r3, r8, fp, ip, sp}
    13c8:	b7170213 			; <UNDEFINED> instruction: 0xb7170213
    13cc:	00001742 	andeq	r1, r0, r2, asr #14
    13d0:	00003519 	andeq	r3, r0, r9, lsl r5
    13d4:	002e1a00 	eoreq	r1, lr, r0, lsl #20
    13d8:	193c193f 	ldmdbne	ip!, {r0, r1, r2, r3, r4, r5, r8, fp, ip}
    13dc:	0e030e6e 	cdpeq	14, 0, cr0, cr3, cr14, {3}
    13e0:	0b3b0b3a 	bleq	ec40d0 <__bss_end__+0xeb99f8>
    13e4:	00000b39 	andeq	r0, r0, r9, lsr fp
    13e8:	01110100 	tsteq	r1, r0, lsl #2
    13ec:	0b130e25 	bleq	4c4c88 <__bss_end__+0x4ba5b0>
    13f0:	0e1b0e03 	cdpeq	14, 1, cr0, cr11, cr3, {0}
    13f4:	06120111 			; <UNDEFINED> instruction: 0x06120111
    13f8:	00001710 	andeq	r1, r0, r0, lsl r7
    13fc:	0b002402 	bleq	a40c <buf.3944+0x138>
    1400:	030b3e0b 	movweq	r3, #48651	; 0xbe0b
    1404:	03000008 	movweq	r0, #8
    1408:	0b0b0024 	bleq	2c14a0 <__bss_end__+0x2b6dc8>
    140c:	0e030b3e 	vmoveq.16	d3[0], r0
    1410:	16040000 	strne	r0, [r4], -r0
    1414:	3a0e0300 	bcc	38201c <__bss_end__+0x377944>
    1418:	390b3b0b 	stmdbcc	fp, {r0, r1, r3, r8, r9, fp, ip, sp}
    141c:	0013490b 	andseq	r4, r3, fp, lsl #18
    1420:	00260500 	eoreq	r0, r6, r0, lsl #10
    1424:	00001349 	andeq	r1, r0, r9, asr #6
    1428:	0b000f06 	bleq	5048 <__code_start__-0x2fb8>
    142c:	0700000b 	streq	r0, [r0, -fp]
    1430:	0b3e0104 	bleq	f81848 <__bss_end__+0xf77170>
    1434:	13490b0b 	movtne	r0, #39691	; 0x9b0b
    1438:	0b3b0b3a 	bleq	ec4128 <__bss_end__+0xeb9a50>
    143c:	13010b39 	movwne	r0, #6969	; 0x1b39
    1440:	28080000 	stmdacs	r8, {}	; <UNPREDICTABLE>
    1444:	1c0e0300 	stcne	3, cr0, [lr], {-0}
    1448:	09000006 	stmdbeq	r0, {r1, r2}
    144c:	0e030034 	mcreq	0, 0, r0, cr3, cr4, {1}
    1450:	0b3b0b3a 	bleq	ec4140 <__bss_end__+0xeb9a68>
    1454:	13490b39 	movtne	r0, #39737	; 0x9b39
    1458:	193c193f 	ldmdbne	ip!, {r0, r1, r2, r3, r4, r5, r8, fp, ip}
    145c:	340a0000 	strcc	r0, [sl], #-0
    1460:	3a0e0300 	bcc	382068 <__bss_end__+0x377990>
    1464:	390b3b0b 	stmdbcc	fp, {r0, r1, r3, r8, r9, fp, ip, sp}
    1468:	0213490b 	andseq	r4, r3, #180224	; 0x2c000
    146c:	0b000018 	bleq	14d4 <__code_start__-0x6b2c>
    1470:	0b0b000f 	bleq	2c14b4 <__bss_end__+0x2b6ddc>
    1474:	00001349 	andeq	r1, r0, r9, asr #6
    1478:	3f012e0c 	svccc	0x00012e0c
    147c:	3a0e0319 	bcc	3820e8 <__bss_end__+0x377a10>
    1480:	390b3b0b 	stmdbcc	fp, {r0, r1, r3, r8, r9, fp, ip, sp}
    1484:	1119270b 	tstne	r9, fp, lsl #14
    1488:	40061201 	andmi	r1, r6, r1, lsl #4
    148c:	19429718 	stmdbne	r2, {r3, r4, r8, r9, sl, ip, pc}^
    1490:	00001301 	andeq	r1, r0, r1, lsl #6
    1494:	0300050d 	movweq	r0, #1293	; 0x50d
    1498:	3b0b3a08 	blcc	2cfcc0 <__bss_end__+0x2c55e8>
    149c:	490b390b 	stmdbmi	fp, {r0, r1, r3, r8, fp, ip, sp}
    14a0:	b7170213 			; <UNDEFINED> instruction: 0xb7170213
    14a4:	00001742 	andeq	r1, r0, r2, asr #14
    14a8:	0300340e 	movweq	r3, #1038	; 0x40e
    14ac:	3413490e 	ldrcc	r4, [r3], #-2318	; 0xfffff6f2
    14b0:	00180219 	andseq	r0, r8, r9, lsl r2
    14b4:	82890f00 	addhi	r0, r9, #0, 30
    14b8:	01110101 	tsteq	r1, r1, lsl #2
    14bc:	13011331 	movwne	r1, #4913	; 0x1331
    14c0:	8a100000 	bhi	4014c8 <__bss_end__+0x3f6df0>
    14c4:	02000182 	andeq	r0, r0, #-2147483616	; 0x80000020
    14c8:	18429118 	stmdane	r2, {r3, r4, r8, ip, pc}^
    14cc:	89110000 	ldmdbhi	r1, {}	; <UNPREDICTABLE>
    14d0:	11000182 	smlabbne	r0, r2, r1, r0
    14d4:	00133101 	andseq	r3, r3, r1, lsl #2
    14d8:	01011200 	mrseq	r1, R9_usr
    14dc:	13011349 	movwne	r1, #4937	; 0x1349
    14e0:	21130000 	tstcs	r3, r0
    14e4:	2f134900 	svccs	0x00134900
    14e8:	1400000b 	strne	r0, [r0], #-11
    14ec:	193f002e 	ldmdbne	pc!, {r1, r2, r3, r5}	; <UNPREDICTABLE>
    14f0:	0b3a0e03 	bleq	e84d04 <__bss_end__+0xe7a62c>
    14f4:	0b390b3b 	bleq	e441e8 <__bss_end__+0xe39b10>
    14f8:	01111927 	tsteq	r1, r7, lsr #18
    14fc:	18400612 	stmdane	r0, {r1, r4, r9, sl}^
    1500:	00194297 	mulseq	r9, r7, r2
    1504:	00051500 	andeq	r1, r5, r0, lsl #10
    1508:	0b3a0803 	bleq	e8351c <__bss_end__+0xe78e44>
    150c:	0b390b3b 	bleq	e44200 <__bss_end__+0xe39b28>
    1510:	18021349 	stmdane	r2, {r0, r3, r6, r8, r9, ip}
    1514:	2e160000 	cdpcs	0, 1, cr0, cr6, cr0, {0}
    1518:	03193f01 	tsteq	r9, #1, 30
    151c:	3b0b3a0e 	blcc	2cfd5c <__bss_end__+0x2c5684>
    1520:	270b390b 	strcs	r3, [fp, -fp, lsl #18]
    1524:	11134919 	tstne	r3, r9, lsl r9
    1528:	40061201 	andmi	r1, r6, r1, lsl #4
    152c:	19429718 	stmdbne	r2, {r3, r4, r8, r9, sl, ip, pc}^
    1530:	00001301 	andeq	r1, r0, r1, lsl #6
    1534:	03000517 	movweq	r0, #1303	; 0x517
    1538:	3b0b3a0e 	blcc	2cfd78 <__bss_end__+0x2c56a0>
    153c:	490b390b 	stmdbmi	fp, {r0, r1, r3, r8, fp, ip, sp}
    1540:	b7170213 			; <UNDEFINED> instruction: 0xb7170213
    1544:	00001742 	andeq	r1, r0, r2, asr #14
    1548:	03003418 	movweq	r3, #1048	; 0x418
    154c:	3b0b3a08 	blcc	2cfd74 <__bss_end__+0x2c569c>
    1550:	490b390b 	stmdbmi	fp, {r0, r1, r3, r8, fp, ip, sp}
    1554:	b7170213 			; <UNDEFINED> instruction: 0xb7170213
    1558:	00001742 	andeq	r1, r0, r2, asr #14
    155c:	31011d19 	tstcc	r1, r9, lsl sp
    1560:	b8015213 	stmdalt	r1, {r0, r1, r4, r9, ip, lr}
    1564:	01110b42 	tsteq	r1, r2, asr #22
    1568:	0b580612 	bleq	1602db8 <__bss_end__+0x15f86e0>
    156c:	0b570b59 	bleq	15c42d8 <__bss_end__+0x15b9c00>
    1570:	00001301 	andeq	r1, r0, r1, lsl #6
    1574:	3100051a 	tstcc	r0, sl, lsl r5
    1578:	b7170213 			; <UNDEFINED> instruction: 0xb7170213
    157c:	00001742 	andeq	r1, r0, r2, asr #14
    1580:	31011d1b 	tstcc	r1, fp, lsl sp
    1584:	b8015213 	stmdalt	r1, {r0, r1, r4, r9, ip, lr}
    1588:	17550b42 	ldrbne	r0, [r5, -r2, asr #22]
    158c:	0b590b58 	bleq	16442f4 <__bss_end__+0x1639c1c>
    1590:	13010b57 	movwne	r0, #6999	; 0x1b57
    1594:	0b1c0000 	bleq	70159c <__bss_end__+0x6f6ec4>
    1598:	00175501 	andseq	r5, r7, r1, lsl #10
    159c:	00341d00 	eorseq	r1, r4, r0, lsl #26
    15a0:	0b3a0e03 	bleq	e84db4 <__bss_end__+0xe7a6dc>
    15a4:	0b390b3b 	bleq	e44298 <__bss_end__+0xe39bc0>
    15a8:	17021349 	strne	r1, [r2, -r9, asr #6]
    15ac:	001742b7 			; <UNDEFINED> instruction: 0x001742b7
    15b0:	000b1e00 	andeq	r1, fp, r0, lsl #28
    15b4:	00001755 	andeq	r1, r0, r5, asr r7
    15b8:	3f002e1f 	svccc	0x00002e1f
    15bc:	3a0e0319 	bcc	382228 <__bss_end__+0x377b50>
    15c0:	390b3b0b 	stmdbcc	fp, {r0, r1, r3, r8, r9, fp, ip, sp}
    15c4:	4919270b 	ldmdbmi	r9, {r0, r1, r3, r8, r9, sl, sp}
    15c8:	12011113 	andne	r1, r1, #-1073741820	; 0xc0000004
    15cc:	97184006 	ldrls	r4, [r8, -r6]
    15d0:	00001942 	andeq	r1, r0, r2, asr #18
    15d4:	03012e20 	movweq	r2, #7712	; 0x1e20
    15d8:	3b0b3a0e 	blcc	2cfe18 <__bss_end__+0x2c5740>
    15dc:	270b390b 	strcs	r3, [fp, -fp, lsl #18]
    15e0:	20134919 	andscs	r4, r3, r9, lsl r9
    15e4:	0013010b 	andseq	r0, r3, fp, lsl #2
    15e8:	00052100 	andeq	r2, r5, r0, lsl #2
    15ec:	0b3a0803 	bleq	e83600 <__bss_end__+0xe78f28>
    15f0:	0b390b3b 	bleq	e442e4 <__bss_end__+0xe39c0c>
    15f4:	00001349 	andeq	r1, r0, r9, asr #6
    15f8:	3f002e22 	svccc	0x00002e22
    15fc:	6e193c19 	mrcvs	12, 0, r3, cr9, cr9, {0}
    1600:	3a0e030e 	bcc	382240 <__bss_end__+0x377b68>
    1604:	390b3b0b 	stmdbcc	fp, {r0, r1, r3, r8, r9, fp, ip, sp}
    1608:	0000000b 	andeq	r0, r0, fp
    160c:	25011101 	strcs	r1, [r1, #-257]	; 0xfffffeff
    1610:	030b130e 	movweq	r1, #45838	; 0xb30e
    1614:	110e1b0e 	tstne	lr, lr, lsl #22
    1618:	10061201 	andne	r1, r6, r1, lsl #4
    161c:	02000017 	andeq	r0, r0, #23, 0
    1620:	0b0b0024 	bleq	2c16b8 <__bss_end__+0x2b6fe0>
    1624:	0e030b3e 	vmoveq.16	d3[0], r0
    1628:	24030000 	strcs	r0, [r3], #-0
    162c:	3e0b0b00 	vmlacc.f64	d0, d11, d0
    1630:	0008030b 	andeq	r0, r8, fp, lsl #6
    1634:	00260400 	eoreq	r0, r6, r0, lsl #8
    1638:	00001349 	andeq	r1, r0, r9, asr #6
    163c:	03001605 	movweq	r1, #1541	; 0x605
    1640:	3b0b3a0e 	blcc	2cfe80 <__bss_end__+0x2c57a8>
    1644:	490b390b 	stmdbmi	fp, {r0, r1, r3, r8, fp, ip, sp}
    1648:	06000013 			; <UNDEFINED> instruction: 0x06000013
    164c:	19270115 	stmdbne	r7!, {r0, r2, r4, r8}
    1650:	13011349 	movwne	r1, #4937	; 0x1349
    1654:	05070000 	streq	r0, [r7, #-0]
    1658:	00134900 	andseq	r4, r3, r0, lsl #18
    165c:	00340800 	eorseq	r0, r4, r0, lsl #16
    1660:	0b3a0e03 	bleq	e84e74 <__bss_end__+0xe7a79c>
    1664:	0b390b3b 	bleq	e44358 <__bss_end__+0xe39c80>
    1668:	193f1349 	ldmdbne	pc!, {r0, r3, r6, r8, r9, ip}	; <UNPREDICTABLE>
    166c:	0000193c 	andeq	r1, r0, ip, lsr r9
    1670:	0b000f09 	bleq	529c <__code_start__-0x2d64>
    1674:	0013490b 	andseq	r4, r3, fp, lsl #18
    1678:	01040a00 	tsteq	r4, r0, lsl #20
    167c:	0b0b0b3e 	bleq	2c437c <__bss_end__+0x2b9ca4>
    1680:	0b3a1349 	bleq	e863ac <__bss_end__+0xe7bcd4>
    1684:	0b390b3b 	bleq	e44378 <__bss_end__+0xe39ca0>
    1688:	00001301 	andeq	r1, r0, r1, lsl #6
    168c:	0300280b 	movweq	r2, #2059	; 0x80b
    1690:	000b1c0e 	andeq	r1, fp, lr, lsl #24
    1694:	00340c00 	eorseq	r0, r4, r0, lsl #24
    1698:	0b3a0e03 	bleq	e84eac <__bss_end__+0xe7a7d4>
    169c:	0b390b3b 	bleq	e44390 <__bss_end__+0xe39cb8>
    16a0:	061c1349 	ldreq	r1, [ip], -r9, asr #6
    16a4:	2e0d0000 	cdpcs	0, 0, cr0, cr13, cr0, {0}
    16a8:	03193f01 	tsteq	r9, #1, 30
    16ac:	3b0b3a0e 	blcc	2cfeec <__bss_end__+0x2c5814>
    16b0:	270b390b 	strcs	r3, [fp, -fp, lsl #18]
    16b4:	11134919 	tstne	r3, r9, lsl r9
    16b8:	40061201 	andmi	r1, r6, r1, lsl #4
    16bc:	19429718 	stmdbne	r2, {r3, r4, r8, r9, sl, ip, pc}^
    16c0:	00001301 	andeq	r1, r0, r1, lsl #6
    16c4:	0300050e 	movweq	r0, #1294	; 0x50e
    16c8:	3b0b3a08 	blcc	2cfef0 <__bss_end__+0x2c5818>
    16cc:	490b390b 	stmdbmi	fp, {r0, r1, r3, r8, fp, ip, sp}
    16d0:	b7170213 			; <UNDEFINED> instruction: 0xb7170213
    16d4:	00001742 	andeq	r1, r0, r2, asr #14
    16d8:	0300340f 	movweq	r3, #1039	; 0x40f
    16dc:	3b0b3a0e 	blcc	2cff1c <__bss_end__+0x2c5844>
    16e0:	490b390b 	stmdbmi	fp, {r0, r1, r3, r8, fp, ip, sp}
    16e4:	b7170213 			; <UNDEFINED> instruction: 0xb7170213
    16e8:	00001742 	andeq	r1, r0, r2, asr #14
    16ec:	03003410 	movweq	r3, #1040	; 0x410
    16f0:	3b0b3a08 	blcc	2cff18 <__bss_end__+0x2c5840>
    16f4:	490b390b 	stmdbmi	fp, {r0, r1, r3, r8, fp, ip, sp}
    16f8:	b7170213 			; <UNDEFINED> instruction: 0xb7170213
    16fc:	00001742 	andeq	r1, r0, r2, asr #14
    1700:	01828911 	orreq	r8, r2, r1, lsl r9
    1704:	31011101 	tstcc	r1, r1, lsl #2
    1708:	12000013 	andne	r0, r0, #19, 0
    170c:	0001828a 	andeq	r8, r1, sl, lsl #5
    1710:	42911802 	addsmi	r1, r1, #131072	; 0x20000
    1714:	13000018 	movwne	r0, #24
    1718:	193f012e 	ldmdbne	pc!, {r1, r2, r3, r5, r8}	; <UNPREDICTABLE>
    171c:	0b3a0e03 	bleq	e84f30 <__bss_end__+0xe7a858>
    1720:	0b390b3b 	bleq	e44414 <__bss_end__+0xe39d3c>
    1724:	01111927 	tsteq	r1, r7, lsr #18
    1728:	18400612 	stmdane	r0, {r1, r4, r9, sl}^
    172c:	01194297 			; <UNDEFINED> instruction: 0x01194297
    1730:	14000013 	strne	r0, [r0], #-19	; 0xffffffed
    1734:	1331011d 	teqne	r1, #1073741831	; 0x40000007
    1738:	42b80152 	adcsmi	r0, r8, #-2147483628	; 0x80000014
    173c:	5817550b 	ldmdapl	r7, {r0, r1, r3, r8, sl, ip, lr}
    1740:	570b590b 	strpl	r5, [fp, -fp, lsl #18]
    1744:	0013010b 	andseq	r0, r3, fp, lsl #2
    1748:	00051500 	andeq	r1, r5, r0, lsl #10
    174c:	17021331 	smladxne	r2, r1, r3, r1
    1750:	001742b7 			; <UNDEFINED> instruction: 0x001742b7
    1754:	82891600 	addhi	r1, r9, #0, 12
    1758:	01110101 	tsteq	r1, r1, lsl #2
    175c:	31194295 			; <UNDEFINED> instruction: 0x31194295
    1760:	17000013 	smladne	r0, r3, r0, r0
    1764:	1331011d 	teqne	r1, #1073741831	; 0x40000007
    1768:	42b80152 	adcsmi	r0, r8, #-2147483628	; 0x80000014
    176c:	1201110b 	andne	r1, r1, #-1073741822	; 0xc0000002
    1770:	590b5806 	stmdbpl	fp, {r1, r2, fp, ip, lr}
    1774:	000b570b 	andeq	r5, fp, fp, lsl #14
    1778:	011d1800 	tsteq	sp, r0, lsl #16
    177c:	01521331 	cmpeq	r2, r1, lsr r3
    1780:	550b42b8 	strpl	r4, [fp, #-696]	; 0xfffffd48
    1784:	590b5817 	stmdbpl	fp, {r0, r1, r2, r4, fp, ip, lr}
    1788:	000b570b 	andeq	r5, fp, fp, lsl #14
    178c:	00051900 	andeq	r1, r5, r0, lsl #18
    1790:	0b1c1331 	bleq	70645c <__bss_end__+0x6fbd84>
    1794:	0b1a0000 	bleq	68179c <__bss_end__+0x6770c4>
    1798:	00175501 	andseq	r5, r7, r1, lsl #10
    179c:	00341b00 	eorseq	r1, r4, r0, lsl #22
    17a0:	00001331 	andeq	r1, r0, r1, lsr r3
    17a4:	3100341c 	tstcc	r0, ip, lsl r4
    17a8:	b7170213 			; <UNDEFINED> instruction: 0xb7170213
    17ac:	00001742 	andeq	r1, r0, r2, asr #14
    17b0:	0182891d 	orreq	r8, r2, sp, lsl r9
    17b4:	31011101 	tstcc	r1, r1, lsl #2
    17b8:	00130113 	andseq	r0, r3, r3, lsl r1
    17bc:	012e1e00 			; <UNDEFINED> instruction: 0x012e1e00
    17c0:	0e03193f 			; <UNDEFINED> instruction: 0x0e03193f
    17c4:	0b3b0b3a 	bleq	ec44b4 <__bss_end__+0xeb9ddc>
    17c8:	19270b39 	stmdbne	r7!, {r0, r3, r4, r5, r8, r9, fp}
    17cc:	13010b20 	movwne	r0, #6944	; 0x1b20
    17d0:	051f0000 	ldreq	r0, [pc, #-0]	; 17d8 <__code_start__-0x6828>
    17d4:	3a080300 	bcc	2023dc <__bss_end__+0x1f7d04>
    17d8:	390b3b0b 	stmdbcc	fp, {r0, r1, r3, r8, r9, fp, ip, sp}
    17dc:	0013490b 	andseq	r4, r3, fp, lsl #18
    17e0:	00052000 	andeq	r2, r5, r0
    17e4:	0b3a0e03 	bleq	e84ff8 <__bss_end__+0xe7a920>
    17e8:	0b390b3b 	bleq	e444dc <__bss_end__+0xe39e04>
    17ec:	00001349 	andeq	r1, r0, r9, asr #6
    17f0:	03003421 	movweq	r3, #1057	; 0x421
    17f4:	3b0b3a08 	blcc	2d001c <__bss_end__+0x2c5944>
    17f8:	490b390b 	stmdbmi	fp, {r0, r1, r3, r8, fp, ip, sp}
    17fc:	22000013 	andcs	r0, r0, #19, 0
    1800:	0e03012e 	adfeqsp	f0, f3, #0.5
    1804:	0b3b0b3a 	bleq	ec44f4 <__bss_end__+0xeb9e1c>
    1808:	19270b39 	stmdbne	r7!, {r0, r3, r4, r5, r8, r9, fp}
    180c:	0b201349 	bleq	806538 <__bss_end__+0x7fbe60>
    1810:	00001301 	andeq	r1, r0, r1, lsl #6
    1814:	31012e23 	tstcc	r1, r3, lsr #28
    1818:	12011113 	andne	r1, r1, #-1073741820	; 0xc0000004
    181c:	97184006 	ldrls	r4, [r8, -r6]
    1820:	13011942 	movwne	r1, #6466	; 0x1942
    1824:	2e240000 	cdpcs	0, 2, cr0, cr4, cr0, {0}
    1828:	3c193f00 	ldccc	15, cr3, [r9], {-0}
    182c:	030e6e19 	movweq	r6, #60953	; 0xee19
    1830:	3b0b3a0e 	blcc	2d0070 <__bss_end__+0x2c5998>
    1834:	000b390b 	andeq	r3, fp, fp, lsl #18
    1838:	11010000 	mrsne	r0, (UNDEF: 1)
    183c:	130e2501 	movwne	r2, #58625	; 0xe501
    1840:	1b0e030b 	blne	382474 <__bss_end__+0x377d9c>
    1844:	1201110e 	andne	r1, r1, #-2147483645	; 0x80000003
    1848:	00171006 	andseq	r1, r7, r6
    184c:	00240200 	eoreq	r0, r4, r0, lsl #4
    1850:	0b3e0b0b 	bleq	f84484 <__bss_end__+0xf79dac>
    1854:	00000803 	andeq	r0, r0, r3, lsl #16
    1858:	0b002403 	bleq	a86c <__bss_end__+0x194>
    185c:	030b3e0b 	movweq	r3, #48651	; 0xbe0b
    1860:	0400000e 	streq	r0, [r0], #-14
    1864:	19270115 	stmdbne	r7!, {r0, r2, r4, r8}
    1868:	13011349 	movwne	r1, #4937	; 0x1349
    186c:	05050000 	streq	r0, [r5, #-0]
    1870:	00134900 	andseq	r4, r3, r0, lsl #18
    1874:	00340600 	eorseq	r0, r4, r0, lsl #12
    1878:	0b3a0e03 	bleq	e8508c <__bss_end__+0xe7a9b4>
    187c:	0b390b3b 	bleq	e44570 <__bss_end__+0xe39e98>
    1880:	193f1349 	ldmdbne	pc!, {r0, r3, r6, r8, r9, ip}	; <UNPREDICTABLE>
    1884:	0000193c 	andeq	r1, r0, ip, lsr r9
    1888:	0b000f07 	bleq	54ac <__code_start__-0x2b54>
    188c:	0013490b 	andseq	r4, r3, fp, lsl #18
    1890:	00260800 	eoreq	r0, r6, r0, lsl #16
    1894:	00001349 	andeq	r1, r0, r9, asr #6
    1898:	47003409 	strmi	r3, [r0, -r9, lsl #8]
    189c:	3b0b3a13 	blcc	2d00f0 <__bss_end__+0x2c5a18>
    18a0:	020b390b 	andeq	r3, fp, #180224	; 0x2c000
    18a4:	0a000018 	beq	190c <__code_start__-0x66f4>
    18a8:	193f012e 	ldmdbne	pc!, {r1, r2, r3, r5, r8}	; <UNPREDICTABLE>
    18ac:	0b3a0e03 	bleq	e850c0 <__bss_end__+0xe7a9e8>
    18b0:	0b390b3b 	bleq	e445a4 <__bss_end__+0xe39ecc>
    18b4:	01111927 	tsteq	r1, r7, lsr #18
    18b8:	18400612 	stmdane	r0, {r1, r4, r9, sl}^
    18bc:	01194297 			; <UNDEFINED> instruction: 0x01194297
    18c0:	0b000013 	bleq	1914 <__code_start__-0x66ec>
    18c4:	08030005 	stmdaeq	r3, {r0, r2}
    18c8:	0b3b0b3a 	bleq	ec45b8 <__bss_end__+0xeb9ee0>
    18cc:	13490b39 	movtne	r0, #39737	; 0x9b39
    18d0:	00001802 	andeq	r1, r0, r2, lsl #16
    18d4:	3f002e0c 	svccc	0x00002e0c
    18d8:	3a0e0319 	bcc	382544 <__bss_end__+0x377e6c>
    18dc:	390b3b0b 	stmdbcc	fp, {r0, r1, r3, r8, r9, fp, ip, sp}
    18e0:	1119270b 	tstne	r9, fp, lsl #14
    18e4:	40061201 	andmi	r1, r6, r1, lsl #4
    18e8:	19429718 	stmdbne	r2, {r3, r4, r8, r9, sl, ip, pc}^
    18ec:	2e0d0000 	cdpcs	0, 0, cr0, cr13, cr0, {0}
    18f0:	3a0e0301 	bcc	3824fc <__bss_end__+0x377e24>
    18f4:	390b3b0b 	stmdbcc	fp, {r0, r1, r3, r8, r9, fp, ip, sp}
    18f8:	4919270b 	ldmdbmi	r9, {r0, r1, r3, r8, r9, sl, sp}
    18fc:	12011113 	andne	r1, r1, #-1073741820	; 0xc0000004
    1900:	97184006 	ldrls	r4, [r8, -r6]
    1904:	13011942 	movwne	r1, #6466	; 0x1942
    1908:	050e0000 	streq	r0, [lr, #-0]
    190c:	3a080300 	bcc	202514 <__bss_end__+0x1f7e3c>
    1910:	390b3b0b 	stmdbcc	fp, {r0, r1, r3, r8, r9, fp, ip, sp}
    1914:	0213490b 	andseq	r4, r3, #180224	; 0x2c000
    1918:	1742b717 	smlaldne	fp, r2, r7, r7
    191c:	890f0000 	stmdbhi	pc, {}	; <UNPREDICTABLE>
    1920:	11010182 	smlabbne	r1, r2, r1, r0
    1924:	00133101 	andseq	r3, r3, r1, lsl #2
    1928:	828a1000 	addhi	r1, sl, #0, 0
    192c:	18020001 	stmdane	r2, {r0}
    1930:	00184291 	mulseq	r8, r1, r2
    1934:	002e1100 	eoreq	r1, lr, r0, lsl #2
    1938:	193c193f 	ldmdbne	ip!, {r0, r1, r2, r3, r4, r5, r8, fp, ip}
    193c:	0e030e6e 	cdpeq	14, 0, cr0, cr3, cr14, {3}
    1940:	0b3b0b3a 	bleq	ec4630 <__bss_end__+0xeb9f58>
    1944:	00000b39 	andeq	r0, r0, r9, lsr fp
    1948:	01110100 	tsteq	r1, r0, lsl #2
    194c:	0b130e25 	bleq	4c51e8 <__bss_end__+0x4bab10>
    1950:	0e1b0e03 	cdpeq	14, 1, cr0, cr11, cr3, {0}
    1954:	06120111 			; <UNDEFINED> instruction: 0x06120111
    1958:	00001710 	andeq	r1, r0, r0, lsl r7
    195c:	0b002402 	bleq	a96c <__bss_end__+0x294>
    1960:	030b3e0b 	movweq	r3, #48651	; 0xbe0b
    1964:	03000008 	movweq	r0, #8
    1968:	0b0b0024 	bleq	2c1a00 <__bss_end__+0x2b7328>
    196c:	0e030b3e 	vmoveq.16	d3[0], r0
    1970:	15040000 	strne	r0, [r4, #-0]
    1974:	49192701 	ldmdbmi	r9, {r0, r8, r9, sl, sp}
    1978:	00130113 	andseq	r0, r3, r3, lsl r1
    197c:	00050500 	andeq	r0, r5, r0, lsl #10
    1980:	00001349 	andeq	r1, r0, r9, asr #6
    1984:	03003406 	movweq	r3, #1030	; 0x406
    1988:	3b0b3a0e 	blcc	2d01c8 <__bss_end__+0x2c5af0>
    198c:	490b390b 	stmdbmi	fp, {r0, r1, r3, r8, fp, ip, sp}
    1990:	3c193f13 	ldccc	15, cr3, [r9], {19}
    1994:	07000019 	smladeq	r0, r9, r0, r0
    1998:	0b0b000f 	bleq	2c19dc <__bss_end__+0x2b7304>
    199c:	00001349 	andeq	r1, r0, r9, asr #6
    19a0:	49002608 	stmdbmi	r0, {r3, r9, sl, sp}
    19a4:	09000013 	stmdbeq	r0, {r0, r1, r4}
    19a8:	193f012e 	ldmdbne	pc!, {r1, r2, r3, r5, r8}	; <UNPREDICTABLE>
    19ac:	0b3a0e03 	bleq	e851c0 <__bss_end__+0xe7aae8>
    19b0:	0b390b3b 	bleq	e446a4 <__bss_end__+0xe39fcc>
    19b4:	13491927 	movtne	r1, #39207	; 0x9927
    19b8:	06120111 			; <UNDEFINED> instruction: 0x06120111
    19bc:	42971840 	addsmi	r1, r7, #64, 16	; 0x400000
    19c0:	00130119 	andseq	r0, r3, r9, lsl r1
    19c4:	00050a00 	andeq	r0, r5, r0, lsl #20
    19c8:	0b3a0e03 	bleq	e851dc <__bss_end__+0xe7ab04>
    19cc:	0b390b3b 	bleq	e446c0 <__bss_end__+0xe39fe8>
    19d0:	18021349 	stmdane	r2, {r0, r3, r6, r8, r9, ip}
    19d4:	050b0000 	streq	r0, [fp, #-0]
    19d8:	3a080300 	bcc	2025e0 <__bss_end__+0x1f7f08>
    19dc:	390b3b0b 	stmdbcc	fp, {r0, r1, r3, r8, r9, fp, ip, sp}
    19e0:	0213490b 	andseq	r4, r3, #180224	; 0x2c000
    19e4:	1742b717 	smlaldne	fp, r2, r7, r7
    19e8:	340c0000 	strcc	r0, [ip], #-0
    19ec:	3a080300 	bcc	2025f4 <__bss_end__+0x1f7f1c>
    19f0:	390b3b0b 	stmdbcc	fp, {r0, r1, r3, r8, r9, fp, ip, sp}
    19f4:	0213490b 	andseq	r4, r3, #180224	; 0x2c000
    19f8:	1742b717 	smlaldne	fp, r2, r7, r7
    19fc:	01000000 	mrseq	r0, (UNDEF: 0)
    1a00:	0e250111 	mcreq	1, 1, r0, cr5, cr1, {0}
    1a04:	0e030b13 	vmoveq.32	d3[0], r0
    1a08:	01110e1b 	tsteq	r1, fp, lsl lr
    1a0c:	17100612 			; <UNDEFINED> instruction: 0x17100612
    1a10:	24020000 	strcs	r0, [r2], #-0
    1a14:	3e0b0b00 	vmlacc.f64	d0, d11, d0
    1a18:	0008030b 	andeq	r0, r8, fp, lsl #6
    1a1c:	00240300 	eoreq	r0, r4, r0, lsl #6
    1a20:	0b3e0b0b 	bleq	f84654 <__bss_end__+0xf79f7c>
    1a24:	00000e03 	andeq	r0, r0, r3, lsl #28
    1a28:	27011504 	strcs	r1, [r1, -r4, lsl #10]
    1a2c:	01134919 	tsteq	r3, r9, lsl r9
    1a30:	05000013 	streq	r0, [r0, #-19]	; 0xffffffed
    1a34:	13490005 	movtne	r0, #36869	; 0x9005
    1a38:	34060000 	strcc	r0, [r6], #-0
    1a3c:	3a0e0300 	bcc	382644 <__bss_end__+0x377f6c>
    1a40:	390b3b0b 	stmdbcc	fp, {r0, r1, r3, r8, r9, fp, ip, sp}
    1a44:	3f13490b 	svccc	0x0013490b
    1a48:	00193c19 	andseq	r3, r9, r9, lsl ip
    1a4c:	000f0700 	andeq	r0, pc, r0, lsl #14
    1a50:	13490b0b 	movtne	r0, #39691	; 0x9b0b
    1a54:	26080000 	strcs	r0, [r8], -r0
    1a58:	00134900 	andseq	r4, r3, r0, lsl #18
    1a5c:	012e0900 			; <UNDEFINED> instruction: 0x012e0900
    1a60:	0e03193f 			; <UNDEFINED> instruction: 0x0e03193f
    1a64:	0b3b0b3a 	bleq	ec4754 <__bss_end__+0xeba07c>
    1a68:	19270b39 	stmdbne	r7!, {r0, r3, r4, r5, r8, r9, fp}
    1a6c:	01111349 	tsteq	r1, r9, asr #6
    1a70:	18400612 	stmdane	r0, {r1, r4, r9, sl}^
    1a74:	00194297 	mulseq	r9, r7, r2
    1a78:	00050a00 	andeq	r0, r5, r0, lsl #20
    1a7c:	0b3a0803 	bleq	e83a90 <__bss_end__+0xe793b8>
    1a80:	0b390b3b 	bleq	e44774 <__bss_end__+0xe3a09c>
    1a84:	17021349 	strne	r1, [r2, -r9, asr #6]
    1a88:	001742b7 			; <UNDEFINED> instruction: 0x001742b7
    1a8c:	11010000 	mrsne	r0, (UNDEF: 1)
    1a90:	130e2501 	movwne	r2, #58625	; 0xe501
    1a94:	1b0e030b 	blne	3826c8 <__bss_end__+0x377ff0>
    1a98:	1201110e 	andne	r1, r1, #-2147483645	; 0x80000003
    1a9c:	00171006 	andseq	r1, r7, r6
    1aa0:	00240200 	eoreq	r0, r4, r0, lsl #4
    1aa4:	0b3e0b0b 	bleq	f846d8 <__bss_end__+0xf7a000>
    1aa8:	00000803 	andeq	r0, r0, r3, lsl #16
    1aac:	0b002403 	bleq	aac0 <__bss_end__+0x3e8>
    1ab0:	030b3e0b 	movweq	r3, #48651	; 0xbe0b
    1ab4:	0400000e 	streq	r0, [r0], #-14
    1ab8:	19270115 	stmdbne	r7!, {r0, r2, r4, r8}
    1abc:	13011349 	movwne	r1, #4937	; 0x1349
    1ac0:	05050000 	streq	r0, [r5, #-0]
    1ac4:	00134900 	andseq	r4, r3, r0, lsl #18
    1ac8:	00340600 	eorseq	r0, r4, r0, lsl #12
    1acc:	0b3a0e03 	bleq	e852e0 <__bss_end__+0xe7ac08>
    1ad0:	0b390b3b 	bleq	e447c4 <__bss_end__+0xe3a0ec>
    1ad4:	193f1349 	ldmdbne	pc!, {r0, r3, r6, r8, r9, ip}	; <UNPREDICTABLE>
    1ad8:	0000193c 	andeq	r1, r0, ip, lsr r9
    1adc:	0b000f07 	bleq	5700 <__code_start__-0x2900>
    1ae0:	0013490b 	andseq	r4, r3, fp, lsl #18
    1ae4:	00260800 	eoreq	r0, r6, r0, lsl #16
    1ae8:	00001349 	andeq	r1, r0, r9, asr #6
    1aec:	3f012e09 	svccc	0x00012e09
    1af0:	3a0e0319 	bcc	38275c <__bss_end__+0x378084>
    1af4:	390b3b0b 	stmdbcc	fp, {r0, r1, r3, r8, r9, fp, ip, sp}
    1af8:	4919270b 	ldmdbmi	r9, {r0, r1, r3, r8, r9, sl, sp}
    1afc:	12011113 	andne	r1, r1, #-1073741820	; 0xc0000004
    1b00:	97184006 	ldrls	r4, [r8, -r6]
    1b04:	13011942 	movwne	r1, #6466	; 0x1942
    1b08:	050a0000 	streq	r0, [sl, #-0]
    1b0c:	3a080300 	bcc	202714 <__bss_end__+0x1f803c>
    1b10:	390b3b0b 	stmdbcc	fp, {r0, r1, r3, r8, r9, fp, ip, sp}
    1b14:	0213490b 	andseq	r4, r3, #180224	; 0x2c000
    1b18:	0b000018 	bleq	1b80 <__code_start__-0x6480>
    1b1c:	08030005 	stmdaeq	r3, {r0, r2}
    1b20:	0b3b0b3a 	bleq	ec4810 <__bss_end__+0xeba138>
    1b24:	13490b39 	movtne	r0, #39737	; 0x9b39
    1b28:	42b71702 	adcsmi	r1, r7, #524288	; 0x80000
    1b2c:	0c000017 	stceq	0, cr0, [r0], {23}
    1b30:	08030034 	stmdaeq	r3, {r2, r4, r5}
    1b34:	0b3b0b3a 	bleq	ec4824 <__bss_end__+0xeba14c>
    1b38:	13490b39 	movtne	r0, #39737	; 0x9b39
    1b3c:	42b71702 	adcsmi	r1, r7, #524288	; 0x80000
    1b40:	00000017 	andeq	r0, r0, r7, lsl r0
    1b44:	25011101 	strcs	r1, [r1, #-257]	; 0xfffffeff
    1b48:	030b130e 	movweq	r1, #45838	; 0xb30e
    1b4c:	110e1b0e 	tstne	lr, lr, lsl #22
    1b50:	10061201 	andne	r1, r6, r1, lsl #4
    1b54:	02000017 	andeq	r0, r0, #23, 0
    1b58:	0b0b0024 	bleq	2c1bf0 <__bss_end__+0x2b7518>
    1b5c:	08030b3e 	stmdaeq	r3, {r1, r2, r3, r4, r5, r8, r9, fp}
    1b60:	16030000 	strne	r0, [r3], -r0
    1b64:	3a0e0300 	bcc	38276c <__bss_end__+0x378094>
    1b68:	390b3b0b 	stmdbcc	fp, {r0, r1, r3, r8, r9, fp, ip, sp}
    1b6c:	0013490b 	andseq	r4, r3, fp, lsl #18
    1b70:	00240400 	eoreq	r0, r4, r0, lsl #8
    1b74:	0b3e0b0b 	bleq	f847a8 <__bss_end__+0xf7a0d0>
    1b78:	00000e03 	andeq	r0, r0, r3, lsl #28
    1b7c:	49002605 	stmdbmi	r0, {r0, r2, r9, sl, sp}
    1b80:	06000013 			; <UNDEFINED> instruction: 0x06000013
    1b84:	19270115 	stmdbne	r7!, {r0, r2, r4, r8}
    1b88:	13011349 	movwne	r1, #4937	; 0x1349
    1b8c:	05070000 	streq	r0, [r7, #-0]
    1b90:	00134900 	andseq	r4, r3, r0, lsl #18
    1b94:	00340800 	eorseq	r0, r4, r0, lsl #16
    1b98:	0b3a0e03 	bleq	e853ac <__bss_end__+0xe7acd4>
    1b9c:	0b390b3b 	bleq	e44890 <__bss_end__+0xe3a1b8>
    1ba0:	193f1349 	ldmdbne	pc!, {r0, r3, r6, r8, r9, ip}	; <UNPREDICTABLE>
    1ba4:	0000193c 	andeq	r1, r0, ip, lsr r9
    1ba8:	0b000f09 	bleq	57d4 <__code_start__-0x282c>
    1bac:	0013490b 	andseq	r4, r3, fp, lsl #18
    1bb0:	012e0a00 			; <UNDEFINED> instruction: 0x012e0a00
    1bb4:	0e03193f 			; <UNDEFINED> instruction: 0x0e03193f
    1bb8:	0b3b0b3a 	bleq	ec48a8 <__bss_end__+0xeba1d0>
    1bbc:	19270b39 	stmdbne	r7!, {r0, r3, r4, r5, r8, r9, fp}
    1bc0:	01111349 	tsteq	r1, r9, asr #6
    1bc4:	18400612 	stmdane	r0, {r1, r4, r9, sl}^
    1bc8:	01194297 			; <UNDEFINED> instruction: 0x01194297
    1bcc:	0b000013 	bleq	1c20 <__code_start__-0x63e0>
    1bd0:	08030005 	stmdaeq	r3, {r0, r2}
    1bd4:	0b3b0b3a 	bleq	ec48c4 <__bss_end__+0xeba1ec>
    1bd8:	13490b39 	movtne	r0, #39737	; 0x9b39
    1bdc:	42b71702 	adcsmi	r1, r7, #524288	; 0x80000
    1be0:	0c000017 	stceq	0, cr0, [r0], {23}
    1be4:	08030034 	stmdaeq	r3, {r2, r4, r5}
    1be8:	0b3b0b3a 	bleq	ec48d8 <__bss_end__+0xeba200>
    1bec:	13490b39 	movtne	r0, #39737	; 0x9b39
    1bf0:	42b71702 	adcsmi	r1, r7, #524288	; 0x80000
    1bf4:	00000017 	andeq	r0, r0, r7, lsl r0
    1bf8:	25011101 	strcs	r1, [r1, #-257]	; 0xfffffeff
    1bfc:	030b130e 	movweq	r1, #45838	; 0xb30e
    1c00:	110e1b0e 	tstne	lr, lr, lsl #22
    1c04:	10061201 	andne	r1, r6, r1, lsl #4
    1c08:	02000017 	andeq	r0, r0, #23, 0
    1c0c:	0b0b0024 	bleq	2c1ca4 <__bss_end__+0x2b75cc>
    1c10:	08030b3e 	stmdaeq	r3, {r1, r2, r3, r4, r5, r8, r9, fp}
    1c14:	24030000 	strcs	r0, [r3], #-0
    1c18:	3e0b0b00 	vmlacc.f64	d0, d11, d0
    1c1c:	000e030b 	andeq	r0, lr, fp, lsl #6
    1c20:	01150400 	tsteq	r5, r0, lsl #8
    1c24:	13491927 	movtne	r1, #39207	; 0x9927
    1c28:	00001301 	andeq	r1, r0, r1, lsl #6
    1c2c:	49000505 	stmdbmi	r0, {r0, r2, r8, sl}
    1c30:	06000013 			; <UNDEFINED> instruction: 0x06000013
    1c34:	0e030034 	mcreq	0, 0, r0, cr3, cr4, {1}
    1c38:	0b3b0b3a 	bleq	ec4928 <__bss_end__+0xeba250>
    1c3c:	13490b39 	movtne	r0, #39737	; 0x9b39
    1c40:	193c193f 	ldmdbne	ip!, {r0, r1, r2, r3, r4, r5, r8, fp, ip}
    1c44:	0f070000 	svceq	0x00070000
    1c48:	490b0b00 	stmdbmi	fp, {r8, r9, fp}
    1c4c:	08000013 	stmdaeq	r0, {r0, r1, r4}
    1c50:	13490026 	movtne	r0, #36902	; 0x9026
    1c54:	2e090000 	cdpcs	0, 0, cr0, cr9, cr0, {0}
    1c58:	03193f00 	tsteq	r9, #0, 30
    1c5c:	3b0b3a0e 	blcc	2d049c <__bss_end__+0x2c5dc4>
    1c60:	270b390b 	strcs	r3, [fp, -fp, lsl #18]
    1c64:	12011119 	andne	r1, r1, #1073741830	; 0x40000006
    1c68:	97184006 	ldrls	r4, [r8, -r6]
    1c6c:	00001942 	andeq	r1, r0, r2, asr #18
	...

Disassembly of section .debug_loc:

00000000 <.debug_loc>:
       0:	00000000 	andeq	r0, r0, r0
       4:	00000034 	andeq	r0, r0, r4, lsr r0
       8:	00000038 	andeq	r0, r0, r8, lsr r0
       c:	38500001 	ldmdacc	r0, {r0}^
      10:	80000000 	andhi	r0, r0, r0
      14:	01000000 	mrseq	r0, (UNDEF: 0)
      18:	00005400 	andeq	r5, r0, r0, lsl #8
      1c:	00000000 	andeq	r0, r0, r0
      20:	00010000 	andeq	r0, r1, r0
      24:	00000008 	andeq	r0, r0, r8
      28:	00000020 	andeq	r0, r0, r0, lsr #32
      2c:	9f390002 	svcls	0x00390002
	...
      38:	00080001 	andeq	r0, r8, r1
      3c:	00200000 	eoreq	r0, r0, r0
      40:	00060000 	andeq	r0, r6, r0
      44:	000373f2 	strdeq	r7, [r3], -r2
	...
      50:	00010000 	andeq	r0, r1, r0
      54:	00000008 	andeq	r0, r0, r8
      58:	00000020 	andeq	r0, r0, r0, lsr #32
      5c:	00030006 	andeq	r0, r3, r6
      60:	9f00009d 	svcls	0x0000009d
	...
      6c:	00580001 	subseq	r0, r8, r1
      70:	00680000 	rsbeq	r0, r8, r0
      74:	00020000 	andeq	r0, r2, r0
      78:	00009f3c 	andeq	r9, r0, ip, lsr pc
      7c:	00000000 	andeq	r0, r0, r0
      80:	00010000 	andeq	r0, r1, r0
      84:	00000058 	andeq	r0, r0, r8, asr r0
      88:	00000068 	andeq	r0, r0, r8, rrx
      8c:	73f20006 	mvnsvc	r0, #6, 0
      90:	00000003 	andeq	r0, r0, r3
	...
      9c:	00580001 	subseq	r0, r8, r1
      a0:	00680000 	rsbeq	r0, r8, r0
      a4:	00060000 	andeq	r0, r6, r0
      a8:	009d0003 	addseq	r0, sp, r3
      ac:	00009f00 	andeq	r9, r0, r0, lsl #30
	...
      bc:	00000264 	andeq	r0, r0, r4, ror #4
      c0:	0000027c 	andeq	r0, r0, ip, ror r2
      c4:	7c500001 	mrrcvc	0, 0, r0, r0, cr1	; <UNPREDICTABLE>
      c8:	e8000002 	stmda	r0, {r1}
      cc:	01000002 	tsteq	r0, r2
      d0:	02e85600 	rsceq	r5, r8, #0, 12
      d4:	02f40000 	rscseq	r0, r4, #0, 0
      d8:	00040000 	andeq	r0, r4, r0
      dc:	9f5001f3 	svcls	0x005001f3
	...
      ec:	02840000 	addeq	r0, r4, #0, 0
      f0:	028f0000 	addeq	r0, pc, #0, 0
      f4:	00010000 	andeq	r0, r1, r0
      f8:	00028f50 	andeq	r8, r2, r0, asr pc
      fc:	0002e800 	andeq	lr, r2, r0, lsl #16
     100:	54000100 	strpl	r0, [r0], #-256	; 0xffffff00
     104:	000002e8 	andeq	r0, r0, r8, ror #5
     108:	000002f4 	strdeq	r0, [r0], -r4
     10c:	b8030005 	stmdalt	r3, {r0, r2}
     110:	000000a2 	andeq	r0, r0, r2, lsr #1
	...
     11c:	78000000 	stmdavc	r0, {}	; <UNPREDICTABLE>
     120:	88000001 	stmdahi	r0, {r0}
     124:	01000001 	tsteq	r0, r1
     128:	01885000 	orreq	r5, r8, r0
     12c:	02640000 	rsbeq	r0, r4, #0, 0
     130:	00010000 	andeq	r0, r1, r0
     134:	00000054 	andeq	r0, r0, r4, asr r0
     138:	00000000 	andeq	r0, r0, r0
     13c:	02020100 	andeq	r0, r2, #0
     140:	00000000 	andeq	r0, r0, r0
     144:	8c000000 	stchi	0, cr0, [r0], {-0}
     148:	8c000001 	stchi	0, cr0, [r0], {1}
     14c:	01000001 	tsteq	r0, r1
     150:	018c5400 	orreq	r5, ip, r0, lsl #8
     154:	01c80000 	biceq	r0, r8, r0
     158:	00030000 	andeq	r0, r3, r0
     15c:	c89f5c74 	ldmgt	pc, {r2, r4, r5, r6, sl, fp, ip, lr}	; <UNPREDICTABLE>
     160:	fc000001 	stc2	0, cr0, [r0], {1}
     164:	01000001 	tsteq	r0, r1
     168:	01fc5500 	mvnseq	r5, r0, lsl #10
     16c:	02200000 	eoreq	r0, r0, #0, 0
     170:	00030000 	andeq	r0, r3, r0
     174:	209f5c74 	addscs	r5, pc, r4, ror ip	; <UNPREDICTABLE>
     178:	64000002 	strvs	r0, [r0], #-2
     17c:	01000002 	tsteq	r0, r2
     180:	00005500 	andeq	r5, r0, r0, lsl #10
	...
     198:	00000020 	andeq	r0, r0, r0, lsr #32
     19c:	00000038 	andeq	r0, r0, r8, lsr r0
     1a0:	38500001 	ldmdacc	r0, {r0}^
     1a4:	40000000 	andmi	r0, r0, r0
     1a8:	01000000 	mrseq	r0, (UNDEF: 0)
     1ac:	00405300 	subeq	r5, r0, r0, lsl #6
     1b0:	00680000 	rsbeq	r0, r8, r0
     1b4:	00040000 	andeq	r0, r4, r0
     1b8:	9f5001f3 	svcls	0x005001f3
     1bc:	00000068 	andeq	r0, r0, r8, rrx
     1c0:	00000080 	andeq	r0, r0, r0, lsl #1
     1c4:	80500001 	subshi	r0, r0, r1
     1c8:	88000000 	stmdahi	r0, {}	; <UNPREDICTABLE>
     1cc:	04000000 	streq	r0, [r0], #-0
     1d0:	5001f300 	andpl	pc, r1, r0, lsl #6
     1d4:	0000889f 	muleq	r0, pc, r8	; <UNPREDICTABLE>
     1d8:	00009400 	andeq	r9, r0, r0, lsl #8
     1dc:	53000100 	movwpl	r0, #256	; 0x100
     1e0:	00000094 	muleq	r0, r4, r0
     1e4:	000000c4 	andeq	r0, r0, r4, asr #1
     1e8:	01f30004 	mvnseq	r0, r4
     1ec:	00009f50 	andeq	r9, r0, r0, asr pc
	...
     200:	00200000 	eoreq	r0, r0, r0
     204:	00400000 	subeq	r0, r0, r0
     208:	00010000 	andeq	r0, r1, r0
     20c:	00004051 	andeq	r4, r0, r1, asr r0
     210:	00006800 	andeq	r6, r0, r0, lsl #16
     214:	54000100 	strpl	r0, [r0], #-256	; 0xffffff00
     218:	00000068 	andeq	r0, r0, r8, rrx
     21c:	0000007c 	andeq	r0, r0, ip, ror r0
     220:	7c510001 	mrrcvc	0, 0, r0, r1, cr1
     224:	88000000 	stmdahi	r0, {}	; <UNPREDICTABLE>
     228:	04000000 	streq	r0, [r0], #-0
     22c:	5101f300 	mrspl	pc, SP_irq	; <UNPREDICTABLE>
     230:	0000889f 	muleq	r0, pc, r8	; <UNPREDICTABLE>
     234:	00009400 	andeq	r9, r0, r0, lsl #8
     238:	51000100 	mrspl	r0, (UNDEF: 16)
     23c:	00000094 	muleq	r0, r4, r0
     240:	000000c4 	andeq	r0, r0, r4, asr #1
     244:	00540001 	subseq	r0, r4, r1
	...
     250:	00010000 	andeq	r0, r1, r0
     254:	38000000 	stmdacc	r0, {}	; <UNPREDICTABLE>
     258:	47000000 	strmi	r0, [r0, -r0]
     25c:	01000000 	mrseq	r0, (UNDEF: 0)
     260:	00475000 	subeq	r5, r7, r0
     264:	00600000 	rsbeq	r0, r0, r0
     268:	00010000 	andeq	r0, r1, r0
     26c:	00008855 	andeq	r8, r0, r5, asr r8
     270:	00009400 	andeq	r9, r0, r0, lsl #8
     274:	50000100 	andpl	r0, r0, r0, lsl #2
     278:	00000094 	muleq	r0, r4, r0
     27c:	000000c4 	andeq	r0, r0, r4, asr #1
     280:	00550001 	subseq	r0, r5, r1
	...
     28c:	48000001 	stmdami	r0, {r0}
     290:	60000000 	andvs	r0, r0, r0
     294:	01000000 	mrseq	r0, (UNDEF: 0)
     298:	00945000 	addseq	r5, r4, r0
     29c:	00a80000 	adceq	r0, r8, r0
     2a0:	00010000 	andeq	r0, r1, r0
     2a4:	00000050 	andeq	r0, r0, r0, asr r0
	...
     2b0:	00012000 	andeq	r2, r1, r0
     2b4:	00012b00 	andeq	r2, r1, r0, lsl #22
     2b8:	50000100 	andpl	r0, r0, r0, lsl #2
     2bc:	0000012b 	andeq	r0, r0, fp, lsr #2
     2c0:	00000178 	andeq	r0, r0, r8, ror r1
     2c4:	00550001 	subseq	r0, r5, r1
	...
     2d4:	30000000 	andcc	r0, r0, r0
     2d8:	43000001 	movwmi	r0, #1
     2dc:	01000001 	tsteq	r0, r1
     2e0:	01435000 	mrseq	r5, (UNDEF: 67)
     2e4:	01580000 	cmpeq	r8, r0
     2e8:	00010000 	andeq	r0, r1, r0
     2ec:	00015854 	andeq	r5, r1, r4, asr r8
     2f0:	00015c00 	andeq	r5, r1, r0, lsl #24
     2f4:	50000100 	andpl	r0, r0, r0, lsl #2
     2f8:	0000015c 	andeq	r0, r0, ip, asr r1
     2fc:	00000178 	andeq	r0, r0, r8, ror r1
     300:	00540001 	subseq	r0, r4, r1
	...
     310:	e4000000 	str	r0, [r0], #-0
     314:	00000000 	andeq	r0, r0, r0
     318:	01000001 	tsteq	r0, r1
     31c:	01005000 	mrseq	r5, (UNDEF: 0)
     320:	01100000 	tsteq	r0, r0
     324:	00040000 	andeq	r0, r4, r0
     328:	9f5001f3 	svcls	0x005001f3
     32c:	00000110 	andeq	r0, r0, r0, lsl r1
     330:	00000114 	andeq	r0, r0, r4, lsl r1
     334:	14500001 	ldrbne	r0, [r0], #-1
     338:	20000001 	andcs	r0, r0, r1
     33c:	04000001 	streq	r0, [r0], #-1
     340:	5001f300 	andpl	pc, r1, r0, lsl #6
     344:	0000009f 	muleq	r0, pc, r0	; <UNPREDICTABLE>
	...
     350:	0000cc00 	andeq	ip, r0, r0, lsl #24
     354:	0000d700 	andeq	sp, r0, r0, lsl #14
     358:	50000100 	andpl	r0, r0, r0, lsl #2
     35c:	000000d7 	ldrdeq	r0, [r0], -r7
     360:	000000e4 	andeq	r0, r0, r4, ror #1
     364:	00540001 	subseq	r0, r4, r1
	...
     370:	0000d800 	andeq	sp, r0, r0, lsl #16
     374:	0000dc00 	andeq	sp, r0, r0, lsl #24
     378:	54000100 	strpl	r0, [r0], #-256	; 0xffffff00
	...
     388:	000000c4 	andeq	r0, r0, r4, asr #1
     38c:	000000c8 	andeq	r0, r0, r8, asr #1
     390:	c8500001 	ldmdagt	r0, {r0}^
     394:	cc000000 	stcgt	0, cr0, [r0], {-0}
     398:	03000000 	movweq	r0, #0
     39c:	9f5c7000 	svcls	0x005c7000
	...
     3ac:	00000010 	andeq	r0, r0, r0, lsl r0
     3b0:	0000001c 	andeq	r0, r0, ip, lsl r0
     3b4:	1c500001 	mrrcne	0, 0, r0, r0, cr1	; <UNPREDICTABLE>
     3b8:	20000000 	andcs	r0, r0, r0
     3bc:	04000000 	streq	r0, [r0], #-0
     3c0:	5001f300 	andpl	pc, r1, r0, lsl #6
     3c4:	0000009f 	muleq	r0, pc, r0	; <UNPREDICTABLE>
	...
     3d4:	00000800 	andeq	r0, r0, r0, lsl #16
     3d8:	00007800 	andeq	r7, r0, r0, lsl #16
     3dc:	51000100 	mrspl	r0, (UNDEF: 16)
     3e0:	00000078 	andeq	r0, r0, r8, ror r0
     3e4:	00000084 	andeq	r0, r0, r4, lsl #1
     3e8:	78700003 	ldmdavc	r0!, {r0, r1}^
     3ec:	0000849f 	muleq	r0, pc, r4	; <UNPREDICTABLE>
     3f0:	0000a400 	andeq	sl, r0, r0, lsl #8
     3f4:	51000100 	mrspl	r0, (UNDEF: 16)
     3f8:	000000a4 	andeq	r0, r0, r4, lsr #1
     3fc:	000000bc 	strheq	r0, [r0], -ip
     400:	78700003 	ldmdavc	r0!, {r0, r1}^
     404:	0000009f 	muleq	r0, pc, r0	; <UNPREDICTABLE>
	...
     410:	00001000 	andeq	r1, r0, r0
     414:	00004800 	andeq	r4, r0, r0, lsl #16
     418:	53000100 	movwpl	r0, #256	; 0x100
     41c:	0000004c 	andeq	r0, r0, ip, asr #32
     420:	000000bc 	strheq	r0, [r0], -ip
     424:	00530001 	subseq	r0, r3, r1
	...
     438:	24000001 	strcs	r0, [r0], #-1
     43c:	01000001 	tsteq	r0, r1
     440:	01245000 			; <UNDEFINED> instruction: 0x01245000
     444:	01280000 			; <UNDEFINED> instruction: 0x01280000
     448:	00040000 	andeq	r0, r4, r0
     44c:	9f5001f3 	svcls	0x005001f3
     450:	00000128 	andeq	r0, r0, r8, lsr #2
     454:	00000140 	andeq	r0, r0, r0, asr #2
     458:	40500001 	subsmi	r0, r0, r1
     45c:	ac000001 	stcge	0, cr0, [r0], {1}
     460:	04000001 	streq	r0, [r0], #-1
     464:	5001f300 	andpl	pc, r1, r0, lsl #6
     468:	0000009f 	muleq	r0, pc, r0	; <UNPREDICTABLE>
	...
     478:	00000101 	andeq	r0, r0, r1, lsl #2
     47c:	24000000 	strcs	r0, [r0], #-0
     480:	28000001 	stmdacs	r0, {r0}
     484:	01000001 	tsteq	r0, r1
     488:	01405000 	mrseq	r5, (UNDEF: 64)
     48c:	01600000 	cmneq	r0, r0
     490:	00010000 	andeq	r0, r1, r0
     494:	00016050 	andeq	r6, r1, r0, asr r0
     498:	00016400 	andeq	r6, r1, r0, lsl #8
     49c:	70000300 	andvc	r0, r0, r0, lsl #6
     4a0:	01649f78 	smceq	18936	; 0x49f8
     4a4:	01700000 	cmneq	r0, r0
     4a8:	00010000 	andeq	r0, r1, r0
     4ac:	00017050 	andeq	r7, r1, r0, asr r0
     4b0:	00017800 	andeq	r7, r1, r0, lsl #16
     4b4:	70000200 	andvc	r0, r0, r0, lsl #4
     4b8:	00017800 	andeq	r7, r1, r0, lsl #16
     4bc:	00019800 	andeq	r9, r1, r0, lsl #16
     4c0:	50000100 	andpl	r0, r0, r0, lsl #2
     4c4:	0000019c 	muleq	r0, ip, r1
     4c8:	000001ac 	andeq	r0, r0, ip, lsr #3
     4cc:	00500001 	subseq	r0, r0, r1
	...
     4d8:	00000101 	andeq	r0, r0, r1, lsl #2
     4dc:	00000100 	andeq	r0, r0, r0, lsl #2
     4e0:	00011800 	andeq	r1, r1, r0, lsl #16
     4e4:	00012800 	andeq	r2, r1, r0, lsl #16
     4e8:	52000100 	andpl	r0, r0, #0
     4ec:	00000128 	andeq	r0, r0, r8, lsr #2
     4f0:	00000140 	andeq	r0, r0, r0, asr #2
     4f4:	c8030006 	stmdagt	r3, {r1, r2}
     4f8:	9f0000a2 	svcls	0x000000a2
     4fc:	00000140 	andeq	r0, r0, r0, asr #2
     500:	00000170 	andeq	r0, r0, r0, ror r1
     504:	70520001 	subsvc	r0, r2, r1
     508:	78000001 	stmdavc	r0, {r0}
     50c:	01000001 	tsteq	r0, r1
     510:	01785000 	cmneq	r8, r0
     514:	019b0000 	orrseq	r0, fp, r0
     518:	00010000 	andeq	r0, r1, r0
     51c:	00000052 	andeq	r0, r0, r2, asr r0
     520:	00000000 	andeq	r0, r0, r0
     524:	10000000 	andne	r0, r0, r0
     528:	ac000001 	stcge	0, cr0, [r0], {1}
     52c:	01000001 	tsteq	r0, r1
     530:	00005400 	andeq	r5, r0, r0, lsl #8
	...
     53c:	00bc0000 	adcseq	r0, ip, r0
     540:	00cc0000 	sbceq	r0, ip, r0
     544:	00010000 	andeq	r0, r1, r0
     548:	0000cc50 	andeq	ip, r0, r0, asr ip
     54c:	00010000 	andeq	r0, r1, r0
     550:	54000100 	strpl	r0, [r0], #-256	; 0xffffff00
	...
     560:	00d40000 	sbcseq	r0, r4, r0
     564:	00e40000 	rsceq	r0, r4, r0
     568:	00010000 	andeq	r0, r1, r0
     56c:	0000e450 	andeq	lr, r0, r0, asr r4
     570:	0000e700 	andeq	lr, r0, r0, lsl #14
     574:	70000300 	andvc	r0, r0, r0, lsl #6
     578:	00f49f78 	rscseq	r9, r4, r8, ror pc
     57c:	00f80000 	rscseq	r0, r8, r0
     580:	00010000 	andeq	r0, r1, r0
     584:	00000050 	andeq	r0, r0, r0, asr r0
     588:	00000000 	andeq	r0, r0, r0
     58c:	00000100 	andeq	r0, r0, r0, lsl #2
     590:	0000dc00 	andeq	sp, r0, r0, lsl #24
     594:	0000e400 	andeq	lr, r0, r0, lsl #8
     598:	50000100 	andpl	r0, r0, r0, lsl #2
     59c:	000000e4 	andeq	r0, r0, r4, ror #1
     5a0:	000000e7 	andeq	r0, r0, r7, ror #1
     5a4:	78700003 	ldmdavc	r0!, {r0, r1}^
     5a8:	0000009f 	muleq	r0, pc, r0	; <UNPREDICTABLE>
	...
     5b4:	00010400 	andeq	r0, r1, r0, lsl #8
     5b8:	00010b00 	andeq	r0, r1, r0, lsl #22
     5bc:	50000100 	andpl	r0, r0, r0, lsl #2
     5c0:	0000010b 	andeq	r0, r0, fp, lsl #2
     5c4:	0000010c 	andeq	r0, r0, ip, lsl #2
     5c8:	01f30004 	mvnseq	r0, r4
     5cc:	00009f50 	andeq	r9, r0, r0, asr pc
	...
     5d8:	000c0000 	andeq	r0, ip, r0
     5dc:	00270000 	eoreq	r0, r7, r0
     5e0:	00010000 	andeq	r0, r1, r0
     5e4:	00002850 	andeq	r2, r0, r0, asr r8
     5e8:	00003000 	andeq	r3, r0, r0
     5ec:	50000100 	andpl	r0, r0, r0, lsl #2
	...
     604:	0000006c 	andeq	r0, r0, ip, rrx
     608:	00000094 	muleq	r0, r4, r0
     60c:	94500001 	ldrbls	r0, [r0], #-1
     610:	b4000000 	strlt	r0, [r0], #-0
     614:	01000000 	mrseq	r0, (UNDEF: 0)
     618:	00b45400 	adcseq	r5, r4, r0, lsl #8
     61c:	00cc0000 	sbceq	r0, ip, r0
     620:	00010000 	andeq	r0, r1, r0
     624:	0000cc50 	andeq	ip, r0, r0, asr ip
     628:	0000d400 	andeq	sp, r0, r0, lsl #8
     62c:	54000100 	strpl	r0, [r0], #-256	; 0xffffff00
     630:	000000d4 	ldrdeq	r0, [r0], -r4
     634:	000000e4 	andeq	r0, r0, r4, ror #1
     638:	e4500001 	ldrb	r0, [r0], #-1
     63c:	04000000 	streq	r0, [r0], #-0
     640:	01000001 	tsteq	r0, r1
     644:	00005400 	andeq	r5, r0, r0, lsl #8
     648:	00000000 	andeq	r0, r0, r0
     64c:	00020000 	andeq	r0, r2, r0
     650:	0000008c 	andeq	r0, r0, ip, lsl #1
     654:	000000b4 	strheq	r0, [r0], -r4
     658:	40400004 	submi	r0, r0, r4
     65c:	00009f24 	andeq	r9, r0, r4, lsr #30
	...
     66c:	001c0000 	andseq	r0, ip, r0
     670:	00010000 	andeq	r0, r1, r0
     674:	00001c51 	andeq	r1, r0, r1, asr ip
     678:	00007800 	andeq	r7, r0, r0, lsl #16
     67c:	f3000400 	vshl.u8	d0, d0, d0
     680:	009f5101 	addseq	r5, pc, r1, lsl #2
	...
     690:	58000000 	stmdapl	r0, {}	; <UNPREDICTABLE>
     694:	01000000 	mrseq	r0, (UNDEF: 0)
     698:	00585200 	subseq	r5, r8, r0, lsl #4
     69c:	00780000 	rsbseq	r0, r8, r0
     6a0:	00040000 	andeq	r0, r4, r0
     6a4:	9f5201f3 	svcls	0x005201f3
	...
     6b0:	01000002 	tsteq	r0, r2
     6b4:	01000001 	tsteq	r0, r1
     6b8:	01000001 	tsteq	r0, r1
     6bc:	00000001 	andeq	r0, r0, r1
     6c0:	00380000 	eorseq	r0, r8, r0
     6c4:	00010000 	andeq	r0, r1, r0
     6c8:	00005450 	andeq	r5, r0, r0, asr r4
     6cc:	00005400 	andeq	r5, r0, r0, lsl #8
     6d0:	53000100 	movwpl	r0, #256	; 0x100
     6d4:	00000054 	andeq	r0, r0, r4, asr r0
     6d8:	0000005c 	andeq	r0, r0, ip, asr r0
     6dc:	01730003 	cmneq	r3, r3
     6e0:	00005c9f 	muleq	r0, pc, ip	; <UNPREDICTABLE>
     6e4:	00006400 	andeq	r6, r0, r0, lsl #8
     6e8:	52000100 	andpl	r0, r0, #0
     6ec:	00000064 	andeq	r0, r0, r4, rrx
     6f0:	00000068 	andeq	r0, r0, r8, rrx
     6f4:	02730003 	rsbseq	r0, r3, #3, 0
     6f8:	0000689f 	muleq	r0, pc, r8	; <UNPREDICTABLE>
     6fc:	00007400 	andeq	r7, r0, r0, lsl #8
     700:	52000100 	andpl	r0, r0, #0
     704:	00000074 	andeq	r0, r0, r4, ror r0
     708:	00000078 	andeq	r0, r0, r8, ror r0
     70c:	01720003 	cmneq	r2, r3
     710:	0000009f 	muleq	r0, pc, r0	; <UNPREDICTABLE>
     714:	00000000 	andeq	r0, r0, r0
     718:	08000000 	stmdaeq	r0, {}	; <UNPREDICTABLE>
     71c:	78000000 	stmdavc	r0, {}	; <UNPREDICTABLE>
     720:	01000000 	mrseq	r0, (UNDEF: 0)
     724:	00005400 	andeq	r5, r0, r0, lsl #8
	...
     734:	0000002c 	andeq	r0, r0, ip, lsr #32
     738:	00000034 	andeq	r0, r0, r4, lsr r0
     73c:	34500001 	ldrbcc	r0, [r0], #-1
     740:	48000000 	stmdami	r0, {}	; <UNPREDICTABLE>
     744:	01000000 	mrseq	r0, (UNDEF: 0)
     748:	00485400 	subeq	r5, r8, r0, lsl #8
     74c:	00580000 	subseq	r0, r8, r0
     750:	00010000 	andeq	r0, r1, r0
     754:	00000050 	andeq	r0, r0, r0, asr r0
	...
     760:	00000101 	andeq	r0, r0, r1, lsl #2
     764:	00000000 	andeq	r0, r0, r0
     768:	00000c00 	andeq	r0, r0, r0, lsl #24
     76c:	50000100 	andpl	r0, r0, r0, lsl #2
     770:	0000000c 	andeq	r0, r0, ip
     774:	00000020 	andeq	r0, r0, r0, lsr #32
     778:	20540001 	subscs	r0, r4, r1
     77c:	24000000 	strcs	r0, [r0], #-0
     780:	03000000 	movweq	r0, #0
     784:	9f017400 	svcls	0x00017400
     788:	00000024 	andeq	r0, r0, r4, lsr #32
     78c:	00000038 	andeq	r0, r0, r8, lsr r0
     790:	00540001 	subseq	r0, r4, r1
	...
     7a4:	00038800 	andeq	r8, r3, r0, lsl #16
     7a8:	00039400 	andeq	r9, r3, r0, lsl #8
     7ac:	50000100 	andpl	r0, r0, r0, lsl #2
     7b0:	00000394 	muleq	r0, r4, r3
     7b4:	000003d0 	ldrdeq	r0, [r0], -r0	; <UNPREDICTABLE>
     7b8:	d05b0001 	subsle	r0, fp, r1
     7bc:	20000003 	andcs	r0, r0, r3
     7c0:	04000009 	streq	r0, [r0], #-9
     7c4:	5001f300 	andpl	pc, r1, r0, lsl #6
     7c8:	0009209f 	muleq	r9, pc, r0	; <UNPREDICTABLE>
     7cc:	00092800 	andeq	r2, r9, r0, lsl #16
     7d0:	5b000100 	blpl	bd8 <__code_start__-0x7428>
     7d4:	00000928 	andeq	r0, r0, r8, lsr #18
     7d8:	000009b4 			; <UNDEFINED> instruction: 0x000009b4
     7dc:	01f30004 	mvnseq	r0, r4
     7e0:	00009f50 	andeq	r9, r0, r0, asr pc
	...
     7f0:	03880000 	orreq	r0, r8, #0, 0
     7f4:	03d00000 	bicseq	r0, r0, #0, 0
     7f8:	00010000 	andeq	r0, r1, r0
     7fc:	0003d051 	andeq	sp, r3, r1, asr r0
     800:	00092000 	andeq	r2, r9, r0
     804:	f3000400 	vshl.u8	d0, d0, d0
     808:	209f5101 	addscs	r5, pc, r1, lsl #2
     80c:	28000009 	stmdacs	r0, {r0, r3}
     810:	01000009 	tsteq	r0, r9
     814:	09285100 	stmdbeq	r8!, {r8, ip, lr}
     818:	09b40000 	ldmibeq	r4!, {}	; <UNPREDICTABLE>
     81c:	00040000 	andeq	r0, r4, r0
     820:	9f5101f3 	svcls	0x005101f3
	...
     830:	01000000 	mrseq	r0, (UNDEF: 0)
     834:	00010000 	andeq	r0, r1, r0
	...
     844:	00000388 	andeq	r0, r0, r8, lsl #7
     848:	000003d0 	ldrdeq	r0, [r0], -r0	; <UNPREDICTABLE>
     84c:	d0520001 	subsle	r0, r2, r1
     850:	00000003 	andeq	r0, r0, r3
     854:	01000004 	tsteq	r0, r4
     858:	04145600 	ldreq	r5, [r4], #-1536	; 0xfffffa00
     85c:	04240000 	strteq	r0, [r4], #-0
     860:	00010000 	andeq	r0, r1, r0
     864:	00042456 	andeq	r2, r4, r6, asr r4
     868:	00042800 	andeq	r2, r4, r0, lsl #16
     86c:	76000300 	strvc	r0, [r0], -r0, lsl #6
     870:	04a89f7f 	strteq	r9, [r8], #3967	; 0xf7f
     874:	04ac0000 	strteq	r0, [ip], #0
     878:	00010000 	andeq	r0, r1, r0
     87c:	0004e056 	andeq	lr, r4, r6, asr r0
     880:	00050400 	andeq	r0, r5, r0, lsl #8
     884:	56000100 	strpl	r0, [r0], -r0, lsl #2
     888:	0000057c 	andeq	r0, r0, ip, ror r5
     88c:	00000588 	andeq	r0, r0, r8, lsl #11
     890:	88530001 	ldmdahi	r3, {r0}^
     894:	d0000005 	andle	r0, r0, r5
     898:	03000005 	movweq	r0, #5
     89c:	7dcc9100 	stfvcp	f1, [ip]
     8a0:	00000800 	andeq	r0, r0, r0, lsl #16
     8a4:	0000080f 	andeq	r0, r0, pc, lsl #16
     8a8:	0f530001 	svceq	0x00530001
     8ac:	88000008 	stmdahi	r0, {r3}
     8b0:	03000008 	movweq	r0, #8
     8b4:	7dcc9100 	stfvcp	f1, [ip]
     8b8:	00000920 	andeq	r0, r0, r0, lsr #18
     8bc:	00000928 	andeq	r0, r0, r8, lsr #18
     8c0:	48520001 	ldmdami	r2, {r0}^
     8c4:	64000009 	strvs	r0, [r0], #-9
     8c8:	03000009 	movweq	r0, #9
     8cc:	7dcc9100 	stfvcp	f1, [ip]
	...
     8e0:	00010100 	andeq	r0, r1, r0, lsl #2
     8e4:	00010100 	andeq	r0, r1, r0, lsl #2
     8e8:	02000000 	andeq	r0, r0, #0, 0
     8ec:	02000002 	andeq	r0, r0, #2, 0
     8f0:	01000002 	tsteq	r0, r2
     8f4:	02000001 	andeq	r0, r0, #1, 0
     8f8:	01000002 	tsteq	r0, r2
     8fc:	00000001 	andeq	r0, r0, r1
     900:	00000000 	andeq	r0, r0, r0
     904:	03880000 	orreq	r0, r8, #0, 0
     908:	03ac0000 			; <UNDEFINED> instruction: 0x03ac0000
     90c:	00010000 	andeq	r0, r1, r0
     910:	0003ac53 	andeq	sl, r3, r3, asr ip
     914:	0003c000 	andeq	ip, r3, r0
     918:	53000300 	movwpl	r0, #768	; 0x300
     91c:	03d00493 	bicseq	r0, r0, #-1828716544	; 0x93000000
     920:	03e80000 	mvneq	r0, #0, 0
     924:	00030000 	andeq	r0, r3, r0
     928:	e8049358 	stmda	r4, {r3, r4, r6, r8, r9, ip, pc}
     92c:	ac000003 	stcge	0, cr0, [r0], {3}
     930:	03000004 	movweq	r0, #4
     934:	04935800 	ldreq	r5, [r3], #2048	; 0x800
     938:	000004c0 	andeq	r0, r0, r0, asr #9
     93c:	000004c0 	andeq	r0, r0, r0, asr #9
     940:	93580003 	cmpls	r8, #3, 0
     944:	0004c004 	andeq	ip, r4, r4
     948:	0004cc00 	andeq	ip, r4, r0, lsl #24
     94c:	78000500 	stmdavc	r0, {r8, sl}
     950:	04939f04 	ldreq	r9, [r3], #3844	; 0xf04
     954:	000004cc 	andeq	r0, r0, ip, asr #9
     958:	000004e0 	andeq	r0, r0, r0, ror #9
     95c:	93580003 	cmpls	r8, #3, 0
     960:	0004e004 	andeq	lr, r4, r4
     964:	00053800 	andeq	r3, r5, r0, lsl #16
     968:	58000300 	stmdapl	r0, {r8, r9}
     96c:	05380493 	ldreq	r0, [r8, #-1171]!	; 0xfffffb6d
     970:	053c0000 	ldreq	r0, [ip, #-0]!
     974:	00050000 	andeq	r0, r5, r0
     978:	939f7978 	orrsls	r7, pc, #120, 18	; 0x1e0000
     97c:	0005d004 	andeq	sp, r5, r4
     980:	0005d000 	andeq	sp, r5, r0
     984:	58000300 	stmdapl	r0, {r8, r9}
     988:	05d00493 	ldrbeq	r0, [r0, #1171]	; 0x493
     98c:	05d40000 	ldrbeq	r0, [r4]
     990:	00050000 	andeq	r0, r5, r0
     994:	939f0478 	orrsls	r0, pc, #120, 8	; 0x78000000
     998:	0005f404 	andeq	pc, r5, r4, lsl #8
     99c:	0005f400 	andeq	pc, r5, r0, lsl #8
     9a0:	58000300 	stmdapl	r0, {r8, r9}
     9a4:	05f40493 	ldrbeq	r0, [r4, #1171]!	; 0x493
     9a8:	05fc0000 	ldrbeq	r0, [ip, #0]!
     9ac:	00050000 	andeq	r0, r5, r0
     9b0:	939f0478 	orrsls	r0, pc, #120, 8	; 0x78000000
     9b4:	0005fc04 	andeq	pc, r5, r4, lsl #24
     9b8:	0005fc00 	andeq	pc, r5, r0, lsl #24
     9bc:	58000300 	stmdapl	r0, {r8, r9}
     9c0:	05fc0493 	ldrbeq	r0, [ip, #1171]!	; 0x493
     9c4:	06000000 	streq	r0, [r0], -r0
     9c8:	00050000 	andeq	r0, r5, r0
     9cc:	939f0478 	orrsls	r0, pc, #120, 8	; 0x78000000
     9d0:	00060004 	andeq	r0, r6, r4
     9d4:	00070000 	andeq	r0, r7, r0
     9d8:	58000300 	stmdapl	r0, {r8, r9}
     9dc:	07000493 			; <UNDEFINED> instruction: 0x07000493
     9e0:	070c0000 	streq	r0, [ip, -r0]
     9e4:	00050000 	andeq	r0, r5, r0
     9e8:	939f0478 	orrsls	r0, pc, #120, 8	; 0x78000000
     9ec:	00070c04 	andeq	r0, r7, r4, lsl #24
     9f0:	0007f800 	andeq	pc, r7, r0, lsl #16
     9f4:	58000300 	stmdapl	r0, {r8, r9}
     9f8:	07f80493 			; <UNDEFINED> instruction: 0x07f80493
     9fc:	07fc0000 	ldrbeq	r0, [ip, r0]!
     a00:	00050000 	andeq	r0, r5, r0
     a04:	939f0478 	orrsls	r0, pc, #120, 8	; 0x78000000
     a08:	0007fc04 	andeq	pc, r7, r4, lsl #24
     a0c:	00080000 	andeq	r0, r8, r0
     a10:	58000300 	stmdapl	r0, {r8, r9}
     a14:	08880493 	stmeq	r8, {r0, r1, r4, r7, sl}
     a18:	09200000 	stmdbeq	r0!, {}	; <UNPREDICTABLE>
     a1c:	00030000 	andeq	r0, r3, r0
     a20:	20049358 	andcs	r9, r4, r8, asr r3
     a24:	28000009 	stmdacs	r0, {r0, r3}
     a28:	01000009 	tsteq	r0, r9
     a2c:	09645300 	stmdbeq	r4!, {r8, r9, ip, lr}^
     a30:	09b40000 	ldmibeq	r4!, {}	; <UNPREDICTABLE>
     a34:	00030000 	andeq	r0, r3, r0
     a38:	00049358 	andeq	r9, r4, r8, asr r3
     a3c:	00000000 	andeq	r0, r0, r0
     a40:	01000000 	mrseq	r0, (UNDEF: 0)
	...
     a4c:	00000202 	andeq	r0, r0, r2, lsl #4
     a50:	01010100 	mrseq	r0, (UNDEF: 17)
     a54:	00000000 	andeq	r0, r0, r0
     a58:	0003ac00 	andeq	sl, r3, r0, lsl #24
     a5c:	0003d000 	andeq	sp, r3, r0
     a60:	5b000100 	blpl	e68 <__code_start__-0x7198>
     a64:	000003d0 	ldrdeq	r0, [r0], -r0	; <UNPREDICTABLE>
     a68:	000003d4 	ldrdeq	r0, [r0], -r4
     a6c:	d4540001 	ldrble	r0, [r4], #-1
     a70:	d8000003 	stmdale	r0, {r0, r1}
     a74:	03000003 	movweq	r0, #3
     a78:	9f7f7400 	svcls	0x007f7400
     a7c:	000003d8 	ldrdeq	r0, [r0], -r8
     a80:	000003fc 	strdeq	r0, [r0], -ip
     a84:	a8540001 	ldmdage	r4, {r0}^
     a88:	ac000004 	stcge	0, cr0, [r0], {4}
     a8c:	01000004 	tsteq	r0, r4
     a90:	04ac5400 	strteq	r5, [ip], #1024	; 0x400
     a94:	04b40000 	ldrteq	r0, [r4], #0
     a98:	00030000 	andeq	r0, r3, r0
     a9c:	b49f0174 	ldrlt	r0, [pc], #372	; aa4 <__code_start__-0x755c>
     aa0:	c0000004 	andgt	r0, r0, r4
     aa4:	01000004 	tsteq	r0, r4
     aa8:	04e45400 	strbteq	r5, [r4], #1024	; 0x400
     aac:	04f40000 	ldrbteq	r0, [r4], #0
     ab0:	00010000 	andeq	r0, r1, r0
     ab4:	0004f454 	andeq	pc, r4, r4, asr r4	; <UNPREDICTABLE>
     ab8:	0004f800 	andeq	pc, r4, r0, lsl #16
     abc:	74000300 	strvc	r0, [r0], #-768	; 0xfffffd00
     ac0:	04f89f01 	ldrbteq	r9, [r8], #3841	; 0xf01
     ac4:	05040000 	streq	r0, [r4, #-0]
     ac8:	00010000 	andeq	r0, r1, r0
     acc:	00092054 	andeq	r2, r9, r4, asr r0
     ad0:	00092800 	andeq	r2, r9, r0, lsl #16
     ad4:	5b000100 	blpl	edc <__code_start__-0x7124>
	...
     ae0:	03ac0001 			; <UNDEFINED> instruction: 0x03ac0001
     ae4:	09b40000 	ldmibeq	r4!, {}	; <UNPREDICTABLE>
     ae8:	00010000 	andeq	r0, r1, r0
     aec:	00000057 	andeq	r0, r0, r7, asr r0
     af0:	00000000 	andeq	r0, r0, r0
     af4:	00000200 	andeq	r0, r0, r0, lsl #4
     af8:	7c000000 	stcvc	0, cr0, [r0], {-0}
     afc:	d0000005 	andle	r0, r0, r5
     b00:	01000005 	tsteq	r0, r5
     b04:	08005b00 	stmdaeq	r0, {r8, r9, fp, ip, lr}
     b08:	08880000 	stmeq	r8, {}	; <UNPREDICTABLE>
     b0c:	00010000 	andeq	r0, r1, r0
     b10:	0009485b 	andeq	r4, r9, fp, asr r8
     b14:	00096400 	andeq	r6, r9, r0, lsl #8
     b18:	5b000100 	blpl	f20 <__code_start__-0x70e0>
	...
     b24:	00000003 	andeq	r0, r0, r3
     b28:	057c0000 	ldrbeq	r0, [ip, #-0]!
     b2c:	05d00000 	ldrbeq	r0, [r0]
     b30:	00010000 	andeq	r0, r1, r0
     b34:	00080059 	andeq	r0, r8, r9, asr r0
     b38:	00088800 	andeq	r8, r8, r0, lsl #16
     b3c:	59000100 	stmdbpl	r0, {r8}
     b40:	00000948 	andeq	r0, r0, r8, asr #18
     b44:	00000964 	andeq	r0, r0, r4, ror #18
     b48:	00590001 	subseq	r0, r9, r1
     b4c:	00000000 	andeq	r0, r0, r0
     b50:	04000000 	streq	r0, [r0], #-0
     b54:	00000000 	andeq	r0, r0, r0
     b58:	ac000000 	stcge	0, cr0, [r0], {-0}
     b5c:	d0000003 	andle	r0, r0, r3
     b60:	01000003 	tsteq	r0, r3
     b64:	03d05200 	bicseq	r5, r0, #0, 4
     b68:	09200000 	stmdbeq	r0!, {}	; <UNPREDICTABLE>
     b6c:	00040000 	andeq	r0, r4, r0
     b70:	9f5201f3 	svcls	0x005201f3
     b74:	00000920 	andeq	r0, r0, r0, lsr #18
     b78:	00000928 	andeq	r0, r0, r8, lsr #18
     b7c:	28520001 	ldmdacs	r2, {r0}^
     b80:	b4000009 	strlt	r0, [r0], #-9
     b84:	04000009 	streq	r0, [r0], #-9
     b88:	5201f300 	andpl	pc, r1, #0, 6
     b8c:	0000009f 	muleq	r0, pc, r0	; <UNPREDICTABLE>
     b90:	00000000 	andeq	r0, r0, r0
     b94:	01010000 	mrseq	r0, (UNDEF: 1)
     b98:	00000000 	andeq	r0, r0, r0
     b9c:	00000100 	andeq	r0, r0, r0, lsl #2
     ba0:	0004e000 	andeq	lr, r4, r0
     ba4:	0004e000 	andeq	lr, r4, r0
     ba8:	50000100 	andpl	r0, r0, r0, lsl #2
     bac:	000004e0 	andeq	r0, r0, r0, ror #9
     bb0:	000004e8 	andeq	r0, r0, r8, ror #9
     bb4:	b8550001 	ldmdalt	r5, {r0}^
     bb8:	d0000005 	andle	r0, r0, r5
     bbc:	01000005 	tsteq	r0, r5
     bc0:	05f05500 	ldrbeq	r5, [r0, #1280]!	; 0x500
     bc4:	05f40000 	ldrbeq	r0, [r4, #0]!
     bc8:	00010000 	andeq	r0, r1, r0
     bcc:	0007f450 	andeq	pc, r7, r0, asr r4	; <UNPREDICTABLE>
     bd0:	0007f800 	andeq	pc, r7, r0, lsl #16
     bd4:	55000100 	strpl	r0, [r0, #-256]	; 0xffffff00
     bd8:	00000850 	andeq	r0, r0, r0, asr r8
     bdc:	00000888 	andeq	r0, r0, r8, lsl #17
     be0:	00550001 	subseq	r0, r5, r1
     be4:	00000000 	andeq	r0, r0, r0
     be8:	02000000 	andeq	r0, r0, #0, 0
     bec:	00000000 	andeq	r0, r0, r0
     bf0:	14000000 	strne	r0, [r0], #-0
     bf4:	18000004 	stmdane	r0, {r2}
     bf8:	02000004 	andeq	r0, r0, #4, 0
     bfc:	189f3000 	ldmne	pc, {ip, sp}	; <UNPREDICTABLE>
     c00:	1c000004 	stcne	0, cr0, [r0], {4}
     c04:	01000004 	tsteq	r0, r4
     c08:	04285500 	strteq	r5, [r8], #-1280	; 0xfffffb00
     c0c:	043c0000 	ldrteq	r0, [ip], #-0
     c10:	00010000 	andeq	r0, r1, r0
     c14:	00092855 	andeq	r2, r9, r5, asr r8
     c18:	00093000 	andeq	r3, r9, r0
     c1c:	55000100 	strpl	r0, [r0, #-256]	; 0xffffff00
	...
     c28:	00000001 	andeq	r0, r0, r1
	...
     c34:	00000504 	andeq	r0, r0, r4, lsl #10
     c38:	00000584 	andeq	r0, r0, r4, lsl #11
     c3c:	84560001 	ldrbhi	r0, [r6], #-1
     c40:	88000005 	stmdahi	r0, {r0, r2}
     c44:	03000005 	movweq	r0, #5
     c48:	9f7e7300 	svcls	0x007e7300
     c4c:	00000588 	andeq	r0, r0, r8, lsl #11
     c50:	000005d0 	ldrdeq	r0, [r0], -r0	; <UNPREDICTABLE>
     c54:	cc910007 	ldcgt	0, cr0, [r1], {7}
     c58:	1c32067d 	ldcne	6, cr0, [r2], #-500	; 0xfffffe0c
     c5c:	0008009f 	muleq	r8, pc, r0	; <UNPREDICTABLE>
     c60:	00081c00 	andeq	r1, r8, r0, lsl #24
     c64:	56000100 	strpl	r0, [r0], -r0, lsl #2
     c68:	0000081c 	andeq	r0, r0, ip, lsl r8
     c6c:	00000888 	andeq	r0, r0, r8, lsl #17
     c70:	cc910007 	ldcgt	0, cr0, [r1], {7}
     c74:	1c32067d 	ldcne	6, cr0, [r2], #-500	; 0xfffffe0c
     c78:	0009489f 	muleq	r9, pc, r8	; <UNPREDICTABLE>
     c7c:	0009b400 	andeq	fp, r9, r0, lsl #8
     c80:	56000100 	strpl	r0, [r0], -r0, lsl #2
	...
     c8c:	04020604 	streq	r0, [r2], #-1540	; 0xfffff9fc
     c90:	00000414 	andeq	r0, r0, r4, lsl r4
     c94:	00000414 	andeq	r0, r0, r4, lsl r4
     c98:	00720006 	rsbseq	r0, r2, r6
     c9c:	9f1aff08 	svcls	0x001aff08
     ca0:	00000428 	andeq	r0, r0, r8, lsr #8
     ca4:	00000428 	andeq	r0, r0, r8, lsr #8
     ca8:	00720006 	rsbseq	r0, r2, r6
     cac:	9f1aff08 	svcls	0x001aff08
	...
     cb8:	00000002 	andeq	r0, r0, r2
     cbc:	05fc0000 	ldrbeq	r0, [ip, #0]!
     cc0:	07000000 	streq	r0, [r0, -r0]
     cc4:	00030000 	andeq	r0, r3, r0
     cc8:	a89f8008 	ldmge	pc, {r3, pc}	; <UNPREDICTABLE>
     ccc:	bc000008 	stclt	0, cr0, [r0], {8}
     cd0:	03000008 	movweq	r0, #8
     cd4:	9f800800 	svcls	0x00800800
     cd8:	00000910 	andeq	r0, r0, r0, lsl r9
     cdc:	00000920 	andeq	r0, r0, r0, lsr #18
     ce0:	80080003 	andhi	r0, r8, r3
     ce4:	0000009f 	muleq	r0, pc, r0	; <UNPREDICTABLE>
     ce8:	00000000 	andeq	r0, r0, r0
     cec:	00000100 	andeq	r0, r0, r0, lsl #2
     cf0:	fc000000 	stc2	0, cr0, [r0], {-0}
     cf4:	00000005 	andeq	r0, r0, r5
     cf8:	02000007 	andeq	r0, r0, #7, 0
     cfc:	a89f3000 	ldmge	pc, {ip, sp}	; <UNPREDICTABLE>
     d00:	bc000008 	stclt	0, cr0, [r0], {8}
     d04:	02000008 	andeq	r0, r0, #8, 0
     d08:	109f3000 	addsne	r3, pc, r0
     d0c:	20000009 	andcs	r0, r0, r9
     d10:	02000009 	andeq	r0, r0, #9, 0
     d14:	009f3000 	addseq	r3, pc, r0
     d18:	00000000 	andeq	r0, r0, r0
     d1c:	01000000 	mrseq	r0, (UNDEF: 0)
     d20:	00000000 	andeq	r0, r0, r0
     d24:	0005fc00 	andeq	pc, r5, r0, lsl #24
     d28:	0006e000 	andeq	lr, r6, r0
     d2c:	55000100 	strpl	r0, [r0, #-256]	; 0xffffff00
     d30:	000008a8 	andeq	r0, r0, r8, lsr #17
     d34:	000008bc 			; <UNDEFINED> instruction: 0x000008bc
     d38:	10550001 	subsne	r0, r5, r1
     d3c:	20000009 	andcs	r0, r0, r9
     d40:	01000009 	tsteq	r0, r9
     d44:	00005500 	andeq	r5, r0, r0, lsl #10
     d48:	00000000 	andeq	r0, r0, r0
     d4c:	00010000 	andeq	r0, r1, r0
     d50:	00000000 	andeq	r0, r0, r0
     d54:	05fc0000 	ldrbeq	r0, [ip, #0]!
     d58:	06e00000 	strbteq	r0, [r0], r0
     d5c:	00040000 	andeq	r0, r4, r0
     d60:	9f7dd091 	svcls	0x007dd091
     d64:	000006e0 	andeq	r0, r0, r0, ror #13
     d68:	00000700 	andeq	r0, r0, r0, lsl #14
     d6c:	a8550001 	ldmdage	r5, {r0}^
     d70:	bc000008 	stclt	0, cr0, [r0], {8}
     d74:	04000008 	streq	r0, [r0], #-8
     d78:	7dd09100 	ldfvcp	f1, [r0]
     d7c:	0009109f 	muleq	r9, pc, r0	; <UNPREDICTABLE>
     d80:	00092000 	andeq	r2, r9, r0
     d84:	91000400 	tstls	r0, r0, lsl #8
     d88:	009f7dd0 			; <UNDEFINED> instruction: 0x009f7dd0
     d8c:	00000000 	andeq	r0, r0, r0
     d90:	01000000 	mrseq	r0, (UNDEF: 0)
     d94:	00000000 	andeq	r0, r0, r0
     d98:	0005fc00 	andeq	pc, r5, r0, lsl #24
     d9c:	00070000 	andeq	r0, r7, r0
     da0:	38000200 	stmdacc	r0, {r9}
     da4:	0008a89f 	muleq	r8, pc, r8	; <UNPREDICTABLE>
     da8:	0008bc00 	andeq	fp, r8, r0, lsl #24
     dac:	38000200 	stmdacc	r0, {r9}
     db0:	0009109f 	muleq	r9, pc, r0	; <UNPREDICTABLE>
     db4:	00092000 	andeq	r2, r9, r0
     db8:	38000200 	stmdacc	r0, {r9}
     dbc:	0000009f 	muleq	r0, pc, r0	; <UNPREDICTABLE>
     dc0:	00000000 	andeq	r0, r0, r0
     dc4:	07070400 	streq	r0, [r7, -r0, lsl #8]
	...
     dd0:	fc000000 	stc2	0, cr0, [r0], {-0}
     dd4:	fc000005 	stc2	0, cr0, [r0], {5}
     dd8:	04000005 	streq	r0, [r0], #-5
     ddc:	7ed09100 	atnvcs	f1, f0
     de0:	0005fc9f 	muleq	r5, pc, ip	; <UNPREDICTABLE>
     de4:	00067800 	andeq	r7, r6, r0, lsl #16
     de8:	91000400 	tstls	r0, r0, lsl #8
     dec:	789f7ed1 	ldmvc	pc, {r0, r4, r6, r7, r9, sl, fp, ip, sp, lr}	; <UNPREDICTABLE>
     df0:	d4000006 	strle	r0, [r0], #-6
     df4:	01000006 	tsteq	r0, r6
     df8:	06d45c00 	ldrbeq	r5, [r4], r0, lsl #24
     dfc:	07000000 	streq	r0, [r0, -r0]
     e00:	00040000 	andeq	r0, r4, r0
     e04:	9f7ed191 	svcls	0x007ed191
     e08:	000008a8 	andeq	r0, r0, r8, lsr #17
     e0c:	000008bc 			; <UNDEFINED> instruction: 0x000008bc
     e10:	d1910004 	orrsle	r0, r1, r4
     e14:	09109f7e 	ldmdbeq	r0, {r1, r2, r3, r4, r5, r6, r8, r9, sl, fp, ip, pc}
     e18:	09140000 	ldmdbeq	r4, {}	; <UNPREDICTABLE>
     e1c:	00040000 	andeq	r0, r4, r0
     e20:	9f7ed191 	svcls	0x007ed191
     e24:	00000914 	andeq	r0, r0, r4, lsl r9
     e28:	00000920 	andeq	r0, r0, r0, lsr #18
     e2c:	005c0001 	subseq	r0, ip, r1
     e30:	00000000 	andeq	r0, r0, r0
     e34:	04000000 	streq	r0, [r0], #-0
     e38:	00010001 	andeq	r0, r1, r1
     e3c:	00060800 	andeq	r0, r6, r0, lsl #16
     e40:	0006d000 	andeq	sp, r6, r0
     e44:	55000100 	strpl	r0, [r0, #-256]	; 0xffffff00
     e48:	000008a8 	andeq	r0, r0, r8, lsr #17
     e4c:	000008b8 			; <UNDEFINED> instruction: 0x000008b8
     e50:	10550001 	subsne	r0, r5, r1
     e54:	20000009 	andcs	r0, r0, r9
     e58:	01000009 	tsteq	r0, r9
     e5c:	00005500 	andeq	r5, r0, r0, lsl #10
     e60:	00000000 	andeq	r0, r0, r0
     e64:	00040000 	andeq	r0, r4, r0
     e68:	01000000 	mrseq	r0, (UNDEF: 0)
     e6c:	01000000 	mrseq	r0, (UNDEF: 0)
     e70:	06080000 	streq	r0, [r8], -r0
     e74:	06b00000 	ldrteq	r0, [r0], r0
     e78:	00040000 	andeq	r0, r4, r0
     e7c:	9f7ed091 	svcls	0x007ed091
     e80:	000006b0 			; <UNDEFINED> instruction: 0x000006b0
     e84:	000006c8 	andeq	r0, r0, r8, asr #13
     e88:	c8500001 	ldmdagt	r0, {r0}^
     e8c:	d0000006 	andle	r0, r0, r6
     e90:	04000006 	streq	r0, [r0], #-6
     e94:	7ed09100 	atnvcs	f1, f0
     e98:	0008a89f 	muleq	r8, pc, r8	; <UNPREDICTABLE>
     e9c:	0008b000 	andeq	fp, r8, r0
     ea0:	91000400 	tstls	r0, r0, lsl #8
     ea4:	b09f7ed0 			; <UNDEFINED> instruction: 0xb09f7ed0
     ea8:	b8000008 	stmdalt	r0, {r3}
     eac:	01000008 	tsteq	r0, r8
     eb0:	09105300 	ldmdbeq	r0, {r8, r9, ip, lr}
     eb4:	09200000 	stmdbeq	r0!, {}	; <UNPREDICTABLE>
     eb8:	00040000 	andeq	r0, r4, r0
     ebc:	9f7ed091 	svcls	0x007ed091
	...
     ec8:	01000004 	tsteq	r0, r4
     ecc:	03010101 	movweq	r0, #4353	; 0x1101
     ed0:	01000203 	tsteq	r0, r3, lsl #4
     ed4:	00000000 	andeq	r0, r0, r0
     ed8:	00000608 	andeq	r0, r0, r8, lsl #12
     edc:	00000624 	andeq	r0, r0, r4, lsr #12
     ee0:	d1910004 	orrsle	r0, r1, r4
     ee4:	06849f7e 			; <UNDEFINED> instruction: 0x06849f7e
     ee8:	06840000 	streq	r0, [r4], r0
     eec:	00010000 	andeq	r0, r1, r0
     ef0:	00068450 	andeq	r8, r6, r0, asr r4
     ef4:	00069800 	andeq	r9, r6, r0, lsl #16
     ef8:	70000300 	andvc	r0, r0, r0, lsl #6
     efc:	06989f01 	ldreq	r9, [r8], r1, lsl #30
     f00:	06a40000 	strteq	r0, [r4], r0
     f04:	00030000 	andeq	r0, r3, r0
     f08:	a49f0270 	ldrge	r0, [pc], #624	; f10 <__code_start__-0x70f0>
     f0c:	a8000006 	stmdage	r0, {r1, r2}
     f10:	03000006 	movweq	r0, #6
     f14:	9f037000 	svcls	0x00037000
     f18:	000008a8 	andeq	r0, r0, r8, lsr #17
     f1c:	000008b8 			; <UNDEFINED> instruction: 0x000008b8
     f20:	d1910004 	orrsle	r0, r1, r4
     f24:	09109f7e 	ldmdbeq	r0, {r1, r2, r3, r4, r5, r6, r8, r9, sl, fp, ip, pc}
     f28:	09140000 	ldmdbeq	r4, {}	; <UNPREDICTABLE>
     f2c:	00040000 	andeq	r0, r4, r0
     f30:	9f7ed191 	svcls	0x007ed191
     f34:	00000914 	andeq	r0, r0, r4, lsl r9
     f38:	00000920 	andeq	r0, r0, r0, lsr #18
     f3c:	005c0001 	subseq	r0, ip, r1
     f40:	00000000 	andeq	r0, r0, r0
     f44:	06000000 	streq	r0, [r0], -r0
     f48:	01010000 	mrseq	r0, (UNDEF: 1)
     f4c:	01010101 	tsteq	r1, r1, lsl #2
     f50:	00010002 	andeq	r0, r1, r2
     f54:	00060800 	andeq	r0, r6, r0, lsl #16
     f58:	00062400 	andeq	r2, r6, r0, lsl #8
     f5c:	31000200 	mrscc	r0, R8_usr
     f60:	0006849f 	muleq	r6, pc, r4	; <UNPREDICTABLE>
     f64:	00069400 	andeq	r9, r6, r0, lsl #8
     f68:	52000100 	andpl	r0, r0, #0
     f6c:	00000694 	muleq	r0, r4, r6
     f70:	000006a4 	andeq	r0, r0, r4, lsr #13
     f74:	a4590001 	ldrbge	r0, [r9], #-1
     f78:	a8000006 	stmdage	r0, {r1, r2}
     f7c:	01000006 	tsteq	r0, r6
     f80:	06a85200 	strteq	r5, [r8], r0, lsl #4
     f84:	06a80000 	strteq	r0, [r8], r0
     f88:	00030000 	andeq	r0, r3, r0
     f8c:	a89f0172 	ldmge	pc, {r1, r4, r5, r6, r8}	; <UNPREDICTABLE>
     f90:	b8000008 	stmdalt	r0, {r3}
     f94:	02000008 	andeq	r0, r0, #8, 0
     f98:	109f3100 	addsne	r3, pc, r0, lsl #2
     f9c:	20000009 	andcs	r0, r0, r9
     fa0:	02000009 	andeq	r0, r0, #9, 0
     fa4:	009f3100 	addseq	r3, pc, r0, lsl #2
     fa8:	00000000 	andeq	r0, r0, r0
     fac:	01000000 	mrseq	r0, (UNDEF: 0)
     fb0:	01000606 	tsteq	r0, r6, lsl #12
     fb4:	0006d000 	andeq	sp, r6, r0
     fb8:	0006d000 	andeq	sp, r6, r0
     fbc:	91000400 	tstls	r0, r0, lsl #8
     fc0:	d09f7ed0 			; <UNDEFINED> instruction: 0xd09f7ed0
     fc4:	00000006 	andeq	r0, r0, r6
     fc8:	01000007 	tsteq	r0, r7
     fcc:	08b85000 	ldmeq	r8!, {ip, lr}
     fd0:	08bc0000 	ldmeq	ip!, {}	; <UNPREDICTABLE>
     fd4:	00010000 	andeq	r0, r1, r0
     fd8:	00000053 	andeq	r0, r0, r3, asr r0
     fdc:	00000000 	andeq	r0, r0, r0
     fe0:	00080100 	andeq	r0, r8, r0, lsl #2
     fe4:	01010000 	mrseq	r0, (UNDEF: 1)
     fe8:	d0070100 	andle	r0, r7, r0, lsl #2
     fec:	d0000006 	andle	r0, r0, r6
     ff0:	06000006 	streq	r0, [r0], -r6
     ff4:	71007c00 	tstvc	r0, r0, lsl #24
     ff8:	e49f2200 	ldr	r2, [pc], #512	; 1000 <__code_start__-0x7000>
     ffc:	e8000006 	stmda	r0, {r1, r2}
    1000:	03000006 	movweq	r0, #6
    1004:	9f7f7300 	svcls	0x007f7300
    1008:	000006e8 	andeq	r0, r0, r8, ror #13
    100c:	000006f0 	strdeq	r0, [r0], -r0	; <UNPREDICTABLE>
    1010:	f0530001 			; <UNDEFINED> instruction: 0xf0530001
    1014:	f8000006 			; <UNDEFINED> instruction: 0xf8000006
    1018:	03000006 	movweq	r0, #6
    101c:	9f7f7300 	svcls	0x007f7300
    1020:	000008b8 			; <UNDEFINED> instruction: 0x000008b8
    1024:	000008b8 			; <UNDEFINED> instruction: 0x000008b8
    1028:	d1910004 	orrsle	r0, r1, r4
    102c:	00009f7e 	andeq	r9, r0, lr, ror pc
    1030:	00000000 	andeq	r0, r0, r0
    1034:	00010000 	andeq	r0, r1, r0
    1038:	06d00001 	ldrbeq	r0, [r0], r1
    103c:	07000000 	streq	r0, [r0, -r0]
    1040:	00030000 	andeq	r0, r3, r0
    1044:	b89f8008 	ldmlt	pc, {r3, pc}	; <UNPREDICTABLE>
    1048:	bc000008 	stclt	0, cr0, [r0], {8}
    104c:	03000008 	movweq	r0, #8
    1050:	9f800800 	svcls	0x00800800
	...
    105c:	00000001 	andeq	r0, r0, r1
    1060:	00010100 	andeq	r0, r1, r0, lsl #2
    1064:	01020000 	mrseq	r0, (UNDEF: 2)
    1068:	06d00001 	ldrbeq	r0, [r0], r1
    106c:	06e00000 	strbteq	r0, [r0], r0
    1070:	00040000 	andeq	r0, r4, r0
    1074:	9f7dd091 	svcls	0x007dd091
    1078:	000006e0 	andeq	r0, r0, r0, ror #13
    107c:	000006e4 	andeq	r0, r0, r4, ror #13
    1080:	e4550001 	ldrb	r0, [r5], #-1
    1084:	e4000006 	str	r0, [r0], #-6
    1088:	03000006 	movweq	r0, #6
    108c:	9f017200 	svcls	0x00017200
    1090:	000006e4 	andeq	r0, r0, r4, ror #13
    1094:	000006f0 	strdeq	r0, [r0], -r0	; <UNPREDICTABLE>
    1098:	02720003 	rsbseq	r0, r2, #3, 0
    109c:	0006f09f 	muleq	r6, pc, r0	; <UNPREDICTABLE>
    10a0:	00070000 	andeq	r0, r7, r0
    10a4:	72000300 	andvc	r0, r0, #0, 6
    10a8:	07ec9f01 	strbeq	r9, [ip, r1, lsl #30]!
    10ac:	07f40000 	ldrbeq	r0, [r4, r0]!
    10b0:	00030000 	andeq	r0, r3, r0
    10b4:	b89f0173 	ldmlt	pc, {r0, r1, r4, r5, r6, r8}	; <UNPREDICTABLE>
    10b8:	bc000008 	stclt	0, cr0, [r0], {8}
    10bc:	04000008 	streq	r0, [r0], #-8
    10c0:	7dd09100 	ldfvcp	f1, [r0]
    10c4:	0000009f 	muleq	r0, pc, r0	; <UNPREDICTABLE>
    10c8:	00000000 	andeq	r0, r0, r0
    10cc:	b8000400 	stmdalt	r0, {sl}
    10d0:	bc000008 	stclt	0, cr0, [r0], {8}
    10d4:	02000008 	andeq	r0, r0, #8, 0
    10d8:	009f3200 	addseq	r3, pc, r0, lsl #4
    10dc:	00000000 	andeq	r0, r0, r0
    10e0:	07000000 	streq	r0, [r0, -r0]
    10e4:	06000000 	streq	r0, [r0], -r0
    10e8:	0006d000 	andeq	sp, r6, r0
    10ec:	0006e000 	andeq	lr, r6, r0
    10f0:	91000400 	tstls	r0, r0, lsl #8
    10f4:	e09f7dd0 			; <UNDEFINED> instruction: 0xe09f7dd0
    10f8:	00000006 	andeq	r0, r0, r6
    10fc:	01000007 	tsteq	r0, r7
    1100:	08b85500 	ldmeq	r8!, {r8, sl, ip, lr}
    1104:	08bc0000 	ldmeq	ip!, {}	; <UNPREDICTABLE>
    1108:	00040000 	andeq	r0, r4, r0
    110c:	9f7dd091 	svcls	0x007dd091
	...
    1118:	00000001 	andeq	r0, r0, r1
    111c:	0000070c 	andeq	r0, r0, ip, lsl #14
    1120:	000007ec 	andeq	r0, r0, ip, ror #15
    1124:	80080003 	andhi	r0, r8, r3
    1128:	0008949f 	muleq	r8, pc, r4	; <UNPREDICTABLE>
    112c:	0008a800 	andeq	sl, r8, r0, lsl #16
    1130:	08000300 	stmdaeq	r0, {r8, r9}
    1134:	00009f80 	andeq	r9, r0, r0, lsl #31
	...
    1140:	070c0000 	streq	r0, [ip, -r0]
    1144:	07ec0000 	strbeq	r0, [ip, r0]!
    1148:	00020000 	andeq	r0, r2, r0
    114c:	08949f30 	ldmeq	r4, {r4, r5, r8, r9, sl, fp, ip, pc}
    1150:	08a80000 	stmiaeq	r8!, {}	; <UNPREDICTABLE>
    1154:	00020000 	andeq	r0, r2, r0
    1158:	00009f30 	andeq	r9, r0, r0, lsr pc
	...
    1164:	070c0000 	streq	r0, [ip, -r0]
    1168:	07d00000 	ldrbeq	r0, [r0, r0]
    116c:	00010000 	andeq	r0, r1, r0
    1170:	00089455 	andeq	r9, r8, r5, asr r4
    1174:	0008a800 	andeq	sl, r8, r0, lsl #16
    1178:	55000100 	strpl	r0, [r0, #-256]	; 0xffffff00
	...
    1188:	070c0000 	streq	r0, [ip, -r0]
    118c:	07d00000 	ldrbeq	r0, [r0, r0]
    1190:	00040000 	andeq	r0, r4, r0
    1194:	9f7dd091 	svcls	0x007dd091
    1198:	000007d0 	ldrdeq	r0, [r0], -r0	; <UNPREDICTABLE>
    119c:	000007ec 	andeq	r0, r0, ip, ror #15
    11a0:	94550001 	ldrbls	r0, [r5], #-1
    11a4:	a8000008 	stmdage	r0, {r3}
    11a8:	04000008 	streq	r0, [r0], #-8
    11ac:	7dd09100 	ldfvcp	f1, [r0]
    11b0:	0000009f 	muleq	r0, pc, r0	; <UNPREDICTABLE>
	...
    11bc:	00070c00 	andeq	r0, r7, r0, lsl #24
    11c0:	0007ec00 	andeq	lr, r7, r0, lsl #24
    11c4:	32000200 	andcc	r0, r0, #0, 4
    11c8:	0008949f 	muleq	r8, pc, r4	; <UNPREDICTABLE>
    11cc:	0008a800 	andeq	sl, r8, r0, lsl #16
    11d0:	32000200 	andcc	r0, r0, #0, 4
    11d4:	0000009f 	muleq	r0, pc, r0	; <UNPREDICTABLE>
    11d8:	00000000 	andeq	r0, r0, r0
    11dc:	05050300 	streq	r0, [r5, #-768]	; 0xfffffd00
    11e0:	00000000 	andeq	r0, r0, r0
    11e4:	0c000000 	stceq	0, cr0, [r0], {-0}
    11e8:	0c000007 	stceq	0, cr0, [r0], {7}
    11ec:	01000007 	tsteq	r0, r7
    11f0:	070c5100 	streq	r5, [ip, -r0, lsl #2]
    11f4:	071c0000 	ldreq	r0, [ip, -r0]
    11f8:	00010000 	andeq	r0, r1, r0
    11fc:	00071c53 	andeq	r1, r7, r3, asr ip
    1200:	00072400 	andeq	r2, r7, r0, lsl #8
    1204:	72000300 	andvc	r0, r0, #0, 6
    1208:	07249f01 	streq	r9, [r4, -r1, lsl #30]!
    120c:	07cc0000 	strbeq	r0, [ip, r0]
    1210:	00010000 	andeq	r0, r1, r0
    1214:	00089453 	andeq	r9, r8, r3, asr r4
    1218:	0008a800 	andeq	sl, r8, r0, lsl #16
    121c:	53000100 	movwpl	r0, #256	; 0x100
	...
    1228:	00010005 	andeq	r0, r1, r5
    122c:	0000070c 	andeq	r0, r0, ip, lsl #14
    1230:	00000720 	andeq	r0, r0, r0, lsr #14
    1234:	24500001 	ldrbcs	r0, [r0], #-1
    1238:	2c000007 	stccs	0, cr0, [r0], {7}
    123c:	01000007 	tsteq	r0, r7
    1240:	00005000 	andeq	r5, r0, r0
    1244:	00000000 	andeq	r0, r0, r0
    1248:	01030000 	mrseq	r0, (UNDEF: 3)
    124c:	07280100 	streq	r0, [r8, -r0, lsl #2]!
    1250:	07b00000 	ldreq	r0, [r0, r0]!
    1254:	00010000 	andeq	r0, r1, r0
    1258:	00089455 	andeq	r9, r8, r5, asr r4
    125c:	0008a000 	andeq	sl, r8, r0
    1260:	55000100 	strpl	r0, [r0, #-256]	; 0xffffff00
	...
    126c:	01000103 	tsteq	r0, r3, lsl #2
    1270:	00000728 	andeq	r0, r0, r8, lsr #14
    1274:	000007b0 			; <UNDEFINED> instruction: 0x000007b0
    1278:	94510001 	ldrbls	r0, [r1], #-1
    127c:	a0000008 	andge	r0, r0, r8
    1280:	01000008 	tsteq	r0, r8
    1284:	00005100 	andeq	r5, r0, r0, lsl #2
    1288:	00000000 	andeq	r0, r0, r0
    128c:	00030000 	andeq	r0, r3, r0
    1290:	01010100 	mrseq	r0, (UNDEF: 17)
    1294:	02030301 	andeq	r0, r3, #67108864	; 0x4000000
    1298:	07280100 	streq	r0, [r8, -r0, lsl #2]!
    129c:	07500000 	ldrbeq	r0, [r0, -r0]
    12a0:	00010000 	andeq	r0, r1, r0
    12a4:	00077453 	andeq	r7, r7, r3, asr r4
    12a8:	00077400 	andeq	r7, r7, r0, lsl #8
    12ac:	5e000100 	adfpls	f0, f0, f0
    12b0:	00000774 	andeq	r0, r0, r4, ror r7
    12b4:	00000788 	andeq	r0, r0, r8, lsl #15
    12b8:	017e0003 	cmneq	lr, r3
    12bc:	0007889f 	muleq	r7, pc, r8	; <UNPREDICTABLE>
    12c0:	00079400 	andeq	r9, r7, r0, lsl #8
    12c4:	7e000300 	cdpvc	3, 0, cr0, cr0, cr0, {0}
    12c8:	07949f02 	ldreq	r9, [r4, r2, lsl #30]
    12cc:	07980000 	ldreq	r0, [r8, r0]
    12d0:	00030000 	andeq	r0, r3, r0
    12d4:	949f037e 	ldrls	r0, [pc], #894	; 12dc <__code_start__-0x6d24>
    12d8:	a0000008 	andge	r0, r0, r8
    12dc:	01000008 	tsteq	r0, r8
    12e0:	00005300 	andeq	r5, r0, r0, lsl #6
	...
    12ec:	01010100 	mrseq	r0, (UNDEF: 17)
    12f0:	02010101 	andeq	r0, r1, #1073741824	; 0x40000000
    12f4:	072c0100 	streq	r0, [ip, -r0, lsl #2]!
    12f8:	07500000 	ldrbeq	r0, [r0, -r0]
    12fc:	00010000 	andeq	r0, r1, r0
    1300:	00077450 	andeq	r7, r7, r0, asr r4
    1304:	00078400 	andeq	r8, r7, r0, lsl #8
    1308:	50000100 	andpl	r0, r0, r0, lsl #2
    130c:	00000784 	andeq	r0, r0, r4, lsl #15
    1310:	00000794 	muleq	r0, r4, r7
    1314:	945b0001 	ldrbls	r0, [fp], #-1
    1318:	98000007 	stmdals	r0, {r0, r1, r2}
    131c:	01000007 	tsteq	r0, r7
    1320:	07985000 	ldreq	r5, [r8, r0]
    1324:	07980000 	ldreq	r0, [r8, r0]
    1328:	00030000 	andeq	r0, r3, r0
    132c:	949f0170 	ldrls	r0, [pc], #368	; 1334 <__code_start__-0x6ccc>
    1330:	a0000008 	andge	r0, r0, r8
    1334:	01000008 	tsteq	r0, r8
    1338:	00005000 	andeq	r5, r0, r0
    133c:	00000000 	andeq	r0, r0, r0
    1340:	00010000 	andeq	r0, r1, r0
    1344:	07b00001 	ldreq	r0, [r0, r1]!
    1348:	07ec0000 	strbeq	r0, [ip, r0]!
    134c:	00010000 	andeq	r0, r1, r0
    1350:	0008a051 	andeq	sl, r8, r1, asr r0
    1354:	0008a800 	andeq	sl, r8, r0, lsl #16
    1358:	51000100 	mrspl	r0, (UNDEF: 16)
	...
    1364:	00000001 	andeq	r0, r0, r1
    1368:	00010100 	andeq	r0, r1, r0, lsl #2
    136c:	07b00001 	ldreq	r0, [r0, r1]!
    1370:	07b40000 	ldreq	r0, [r4, r0]!
    1374:	00060000 	andeq	r0, r6, r0
    1378:	007c0073 	rsbseq	r0, ip, r3, ror r0
    137c:	07d49f22 	ldrbeq	r9, [r4, r2, lsr #30]
    1380:	07d80000 	ldrbeq	r0, [r8, r0]
    1384:	00030000 	andeq	r0, r3, r0
    1388:	d89f7f73 	ldmle	pc, {r0, r1, r4, r5, r6, r8, r9, sl, fp, ip, sp, lr}	; <UNPREDICTABLE>
    138c:	e0000007 	and	r0, r0, r7
    1390:	01000007 	tsteq	r0, r7
    1394:	07e05300 	strbeq	r5, [r0, r0, lsl #6]!
    1398:	07e80000 	strbeq	r0, [r8, r0]!
    139c:	00030000 	andeq	r0, r3, r0
    13a0:	a09f7f73 	addsge	r7, pc, r3, ror pc	; <UNPREDICTABLE>
    13a4:	a8000008 	stmdage	r0, {r3}
    13a8:	01000008 	tsteq	r0, r8
    13ac:	00005300 	andeq	r5, r0, r0, lsl #6
    13b0:	00000000 	andeq	r0, r0, r0
    13b4:	00010000 	andeq	r0, r1, r0
    13b8:	07b00001 	ldreq	r0, [r0, r1]!
    13bc:	07ec0000 	strbeq	r0, [ip, r0]!
    13c0:	00030000 	andeq	r0, r3, r0
    13c4:	a09f8008 	addsge	r8, pc, r8
    13c8:	a8000008 	stmdage	r0, {r3}
    13cc:	03000008 	movweq	r0, #8
    13d0:	9f800800 	svcls	0x00800800
	...
    13dc:	00000001 	andeq	r0, r0, r1
    13e0:	00010100 	andeq	r0, r1, r0, lsl #2
    13e4:	00010000 	andeq	r0, r1, r0
    13e8:	000007b0 			; <UNDEFINED> instruction: 0x000007b0
    13ec:	000007d0 	ldrdeq	r0, [r0], -r0	; <UNPREDICTABLE>
    13f0:	d0910004 	addsle	r0, r1, r4
    13f4:	07d09f7d 			; <UNDEFINED> instruction: 0x07d09f7d
    13f8:	07d40000 	ldrbeq	r0, [r4, r0]
    13fc:	00010000 	andeq	r0, r1, r0
    1400:	0007d455 	andeq	sp, r7, r5, asr r4
    1404:	0007d400 	andeq	sp, r7, r0, lsl #8
    1408:	7c000300 	stcvc	3, cr0, [r0], {-0}
    140c:	07d49f01 	ldrbeq	r9, [r4, r1, lsl #30]
    1410:	07e00000 	strbeq	r0, [r0, r0]!
    1414:	00030000 	andeq	r0, r3, r0
    1418:	e09f027c 	adds	r0, pc, ip, ror r2	; <UNPREDICTABLE>
    141c:	ec000007 	stc	0, cr0, [r0], {7}
    1420:	03000007 	movweq	r0, #7
    1424:	9f017c00 	svcls	0x00017c00
    1428:	000008a0 	andeq	r0, r0, r0, lsr #17
    142c:	000008a8 	andeq	r0, r0, r8, lsr #17
    1430:	d0910004 	addsle	r0, r1, r4
    1434:	00009f7d 	andeq	r9, r0, sp, ror pc
    1438:	00000000 	andeq	r0, r0, r0
    143c:	00040000 	andeq	r0, r4, r0
    1440:	07b00004 	ldreq	r0, [r0, r4]!
    1444:	07b40000 	ldreq	r0, [r4, r0]!
    1448:	00030000 	andeq	r0, r3, r0
    144c:	a09f0170 	addsge	r0, pc, r0, ror r1	; <UNPREDICTABLE>
    1450:	a8000008 	stmdage	r0, {r3}
    1454:	03000008 	movweq	r0, #8
    1458:	9f017000 	svcls	0x00017000
	...
    1464:	00000001 	andeq	r0, r0, r1
    1468:	000007bc 			; <UNDEFINED> instruction: 0x000007bc
    146c:	000007d0 	ldrdeq	r0, [r0], -r0	; <UNPREDICTABLE>
    1470:	d0910004 	addsle	r0, r1, r4
    1474:	07d09f7d 			; <UNDEFINED> instruction: 0x07d09f7d
    1478:	07ec0000 	strbeq	r0, [ip, r0]!
    147c:	00010000 	andeq	r0, r1, r0
    1480:	00000055 	andeq	r0, r0, r5, asr r0
	...
    148c:	00032800 	andeq	r2, r3, r0, lsl #16
    1490:	00036400 	andeq	r6, r3, r0, lsl #8
    1494:	50000100 	andpl	r0, r0, r0, lsl #2
    1498:	00000364 	andeq	r0, r0, r4, ror #6
    149c:	00000388 	andeq	r0, r0, r8, lsl #7
    14a0:	01f30004 	mvnseq	r0, r4
    14a4:	00009f50 	andeq	r9, r0, r0, asr pc
	...
    14b0:	03280000 			; <UNDEFINED> instruction: 0x03280000
    14b4:	035c0000 	cmpeq	ip, #0, 0
    14b8:	00010000 	andeq	r0, r1, r0
    14bc:	00035c51 	andeq	r5, r3, r1, asr ip
    14c0:	00038800 	andeq	r8, r3, r0, lsl #16
    14c4:	f3000400 	vshl.u8	d0, d0, d0
    14c8:	009f5101 	addseq	r5, pc, r1, lsl #2
	...
    14ec:	14000000 	strne	r0, [r0], #-0
    14f0:	01000000 	mrseq	r0, (UNDEF: 0)
    14f4:	00145000 	andseq	r5, r4, r0
    14f8:	00200000 	eoreq	r0, r0, r0
    14fc:	00010000 	andeq	r0, r1, r0
    1500:	0000205c 	andeq	r2, r0, ip, asr r0
    1504:	00006800 	andeq	r6, r0, r0, lsl #16
    1508:	71000300 	mrsvc	r0, LR_irq
    150c:	00689f02 	rsbeq	r9, r8, r2, lsl #30
    1510:	006c0000 	rsbeq	r0, ip, r0
    1514:	00030000 	andeq	r0, r3, r0
    1518:	6c9f0273 	lfmvs	f0, 4, [pc], {115}	; 0x73
    151c:	94000000 	strls	r0, [r0], #-0
    1520:	04000001 	streq	r0, [r0], #-1
    1524:	5001f300 	andpl	pc, r1, r0, lsl #6
    1528:	0001949f 	muleq	r1, pc, r4	; <UNPREDICTABLE>
    152c:	00019800 	andeq	r9, r1, r0, lsl #16
    1530:	73000300 	movwvc	r0, #768	; 0x300
    1534:	01989f02 	orrseq	r9, r8, r2, lsl #30
    1538:	01c00000 	biceq	r0, r0, r0
    153c:	00040000 	andeq	r0, r4, r0
    1540:	9f5001f3 	svcls	0x005001f3
    1544:	000001c0 	andeq	r0, r0, r0, asr #3
    1548:	000001c8 	andeq	r0, r0, r8, asr #3
    154c:	c85c0001 	ldmdagt	ip, {r0}^
    1550:	14000001 	strne	r0, [r0], #-1
    1554:	03000002 	movweq	r0, #2
    1558:	9f027300 	svcls	0x00027300
    155c:	00000214 	andeq	r0, r0, r4, lsl r2
    1560:	000002ec 	andeq	r0, r0, ip, ror #5
    1564:	01f30004 	mvnseq	r0, r4
    1568:	02ec9f50 	rsceq	r9, ip, #80, 30	; 0x140
    156c:	02f40000 	rscseq	r0, r4, #0, 0
    1570:	00030000 	andeq	r0, r3, r0
    1574:	f49f0273 			; <UNDEFINED> instruction: 0xf49f0273
    1578:	28000002 	stmdacs	r0, {r1}
    157c:	04000003 	streq	r0, [r0], #-3
    1580:	5001f300 	andpl	pc, r1, r0, lsl #6
    1584:	0000009f 	muleq	r0, pc, r0	; <UNPREDICTABLE>
	...
    1598:	00001c00 	andeq	r1, r0, r0, lsl #24
    159c:	51000100 	mrspl	r0, (UNDEF: 16)
    15a0:	0000001c 	andeq	r0, r0, ip, lsl r0
    15a4:	000002e0 	andeq	r0, r0, r0, ror #5
    15a8:	e0500001 	subs	r0, r0, r1
    15ac:	ec000002 	stc	0, cr0, [r0], {2}
    15b0:	04000002 	streq	r0, [r0], #-2
    15b4:	5101f300 	mrspl	pc, SP_irq	; <UNPREDICTABLE>
    15b8:	0002ec9f 	muleq	r2, pc, ip	; <UNPREDICTABLE>
    15bc:	00032800 	andeq	r2, r3, r0, lsl #16
    15c0:	50000100 	andpl	r0, r0, r0, lsl #2
	...
    15d0:	00000100 	andeq	r0, r0, r0, lsl #2
    15d4:	00000000 	andeq	r0, r0, r0
    15d8:	00020200 	andeq	r0, r2, r0, lsl #4
	...
    15f0:	00000070 	andeq	r0, r0, r0, ror r0
    15f4:	70520001 	subsvc	r0, r2, r1
    15f8:	78000000 	stmdavc	r0, {}	; <UNPREDICTABLE>
    15fc:	01000000 	mrseq	r0, (UNDEF: 0)
    1600:	00785c00 	rsbseq	r5, r8, r0, lsl #24
    1604:	00a40000 	adceq	r0, r4, r0
    1608:	00040000 	andeq	r0, r4, r0
    160c:	9f5201f3 	svcls	0x005201f3
    1610:	00000194 	muleq	r0, r4, r1
    1614:	0000019c 	muleq	r0, ip, r1
    1618:	9c520001 	mrrcls	0, 0, r0, r2, cr1
    161c:	a4000001 	strge	r0, [r0], #-1
    1620:	01000001 	tsteq	r0, r1
    1624:	01a45c00 			; <UNDEFINED> instruction: 0x01a45c00
    1628:	01c00000 	biceq	r0, r0, r0
    162c:	00040000 	andeq	r0, r4, r0
    1630:	9f5201f3 	svcls	0x005201f3
    1634:	000001c0 	andeq	r0, r0, r0, asr #3
    1638:	00000220 	andeq	r0, r0, r0, lsr #4
    163c:	20520001 	subscs	r0, r2, r1
    1640:	28000002 	stmdacs	r0, {r1}
    1644:	04000002 	streq	r0, [r0], #-2
    1648:	1f007200 	svcne	0x00007200
    164c:	0002289f 	muleq	r2, pc, r8	; <UNPREDICTABLE>
    1650:	00027400 	andeq	r7, r2, r0, lsl #8
    1654:	f3000500 	vrshl.u8	d0, d0, d0
    1658:	9f1f5201 	svcls	0x001f5201
    165c:	00000274 	andeq	r0, r0, r4, ror r2
    1660:	00000288 	andeq	r0, r0, r8, lsl #5
    1664:	88520001 	ldmdahi	r2, {r0}^
    1668:	a0000002 	andge	r0, r0, r2
    166c:	01000002 	tsteq	r0, r2
    1670:	02cc5c00 	sbceq	r5, ip, #0, 24
    1674:	02d00000 	sbcseq	r0, r0, #0, 0
    1678:	00010000 	andeq	r0, r1, r0
    167c:	0002d052 	andeq	sp, r2, r2, asr r0
    1680:	0002e700 	andeq	lr, r2, r0, lsl #14
    1684:	5c000100 	stfpls	f0, [r0], {-0}
    1688:	000002e7 	andeq	r0, r0, r7, ror #5
    168c:	000002ec 	andeq	r0, r0, ip, ror #5
    1690:	01f30004 	mvnseq	r0, r4
    1694:	02ec9f52 	rsceq	r9, ip, #328	; 0x148
    1698:	03000000 	movweq	r0, #0
    169c:	00010000 	andeq	r0, r1, r0
    16a0:	00030052 	andeq	r0, r3, r2, asr r0
    16a4:	00032800 	andeq	r2, r3, r0, lsl #16
    16a8:	5c000100 	stfpls	f0, [r0], {-0}
	...
    16c4:	00680000 	rsbeq	r0, r8, r0
    16c8:	00010000 	andeq	r0, r1, r0
    16cc:	00006853 	andeq	r6, r0, r3, asr r8
    16d0:	00006c00 	andeq	r6, r0, r0, lsl #24
    16d4:	08000300 	stmdaeq	r0, {r8, r9}
    16d8:	01949f7f 	orrseq	r9, r4, pc, ror pc
    16dc:	01980000 	orrseq	r0, r8, r0
    16e0:	00030000 	andeq	r0, r3, r0
    16e4:	c09f7f08 	addsgt	r7, pc, r8, lsl #30
    16e8:	14000001 	strne	r0, [r0], #-1
    16ec:	03000002 	movweq	r0, #2
    16f0:	9f7f0800 	svcls	0x007f0800
    16f4:	00000274 	andeq	r0, r0, r4, ror r2
    16f8:	00000290 	muleq	r0, r0, r2
    16fc:	90530001 	subsls	r0, r3, r1
    1700:	a0000002 	andge	r0, r0, r2
    1704:	04000002 	streq	r0, [r0], #-2
    1708:	5301f300 	movwpl	pc, #4864	; 0x1300	; <UNPREDICTABLE>
    170c:	0002ec9f 	muleq	r2, pc, ip	; <UNPREDICTABLE>
    1710:	00032800 	andeq	r2, r3, r0, lsl #16
    1714:	08000300 	stmdaeq	r0, {r8, r9}
    1718:	00009f7f 	andeq	r9, r0, pc, ror pc
    171c:	00000000 	andeq	r0, r0, r0
    1720:	00010000 	andeq	r0, r1, r0
    1724:	02000000 	andeq	r0, r0, #0, 0
    1728:	01000002 	tsteq	r0, r2
    172c:	00000001 	andeq	r0, r0, r1
    1730:	00000000 	andeq	r0, r0, r0
    1734:	00020200 	andeq	r0, r2, r0, lsl #4
    1738:	00010000 	andeq	r0, r1, r0
    173c:	00000000 	andeq	r0, r0, r0
    1740:	01000000 	mrseq	r0, (UNDEF: 0)
    1744:	00000001 	andeq	r0, r0, r1
    1748:	00020200 	andeq	r0, r2, r0, lsl #4
    174c:	00000000 	andeq	r0, r0, r0
    1750:	00010100 	andeq	r0, r1, r0, lsl #2
    1754:	00180000 	andseq	r0, r8, r0
    1758:	00700000 	rsbseq	r0, r0, r0
    175c:	00040000 	andeq	r0, r4, r0
    1760:	9f7fa091 	svcls	0x007fa091
    1764:	00000070 	andeq	r0, r0, r0, ror r0
    1768:	00000078 	andeq	r0, r0, r8, ror r0
    176c:	78520001 	ldmdavc	r2, {r0}^
    1770:	78000000 	stmdavc	r0, {}	; <UNPREDICTABLE>
    1774:	01000000 	mrseq	r0, (UNDEF: 0)
    1778:	00785400 	rsbseq	r5, r8, r0, lsl #8
    177c:	00880000 	addeq	r0, r8, r0
    1780:	00030000 	andeq	r0, r3, r0
    1784:	889f0174 	ldmhi	pc, {r2, r4, r5, r6, r8}	; <UNPREDICTABLE>
    1788:	90000000 	andls	r0, r0, r0
    178c:	01000000 	mrseq	r0, (UNDEF: 0)
    1790:	00905400 	addseq	r5, r0, r0, lsl #8
    1794:	00a00000 	adceq	r0, r0, r0
    1798:	00030000 	andeq	r0, r3, r0
    179c:	a09f0274 	addsge	r0, pc, r4, ror r2	; <UNPREDICTABLE>
    17a0:	b0000000 	andlt	r0, r0, r0
    17a4:	01000000 	mrseq	r0, (UNDEF: 0)
    17a8:	01945e00 	orrseq	r5, r4, r0, lsl #28
    17ac:	019c0000 	orrseq	r0, ip, r0
    17b0:	00040000 	andeq	r0, r4, r0
    17b4:	9f7fa091 	svcls	0x007fa091
    17b8:	0000019c 	muleq	r0, ip, r1
    17bc:	000001a4 	andeq	r0, r0, r4, lsr #3
    17c0:	a4520001 	ldrbge	r0, [r2], #-1
    17c4:	a4000001 	strge	r0, [r0], #-1
    17c8:	01000001 	tsteq	r0, r1
    17cc:	01a45e00 			; <UNDEFINED> instruction: 0x01a45e00
    17d0:	01b40000 			; <UNDEFINED> instruction: 0x01b40000
    17d4:	00030000 	andeq	r0, r3, r0
    17d8:	b49f017e 	ldrlt	r0, [pc], #382	; 17e0 <__code_start__-0x6820>
    17dc:	c0000001 	andgt	r0, r0, r1
    17e0:	01000001 	tsteq	r0, r1
    17e4:	01c05e00 	biceq	r5, r0, r0, lsl #28
    17e8:	02280000 	eoreq	r0, r8, #0, 0
    17ec:	00040000 	andeq	r0, r4, r0
    17f0:	9f7fa091 	svcls	0x007fa091
    17f4:	00000228 	andeq	r0, r0, r8, lsr #4
    17f8:	00000234 	andeq	r0, r0, r4, lsr r2
    17fc:	34520001 	ldrbcc	r0, [r2], #-1
    1800:	58000002 	stmdapl	r0, {r1}
    1804:	01000002 	tsteq	r0, r2
    1808:	02585e00 	subseq	r5, r8, #0, 28
    180c:	025c0000 	subseq	r0, ip, #0, 0
    1810:	00030000 	andeq	r0, r3, r0
    1814:	5c9f017e 	ldfpls	f0, [pc], {126}	; 0x7e
    1818:	64000002 	strvs	r0, [r0], #-2
    181c:	01000002 	tsteq	r0, r2
    1820:	02645e00 	rsbeq	r5, r4, #0, 28
    1824:	02700000 	rsbseq	r0, r0, #0, 0
    1828:	00030000 	andeq	r0, r3, r0
    182c:	709f0271 	addsvc	r0, pc, r1, ror r2	; <UNPREDICTABLE>
    1830:	74000002 	strvc	r0, [r0], #-2
    1834:	01000002 	tsteq	r0, r2
    1838:	02745e00 	rsbseq	r5, r4, #0, 28
    183c:	02740000 	rsbseq	r0, r4, #0, 0
    1840:	00040000 	andeq	r0, r4, r0
    1844:	9f7fa091 	svcls	0x007fa091
    1848:	00000274 	andeq	r0, r0, r4, ror r2
    184c:	000002a0 	andeq	r0, r0, r0, lsr #5
    1850:	a1910004 	orrsge	r0, r1, r4
    1854:	02c09f7f 	sbceq	r9, r0, #508	; 0x1fc
    1858:	02c80000 	sbceq	r0, r8, #0, 0
    185c:	00010000 	andeq	r0, r1, r0
    1860:	0002c85e 	andeq	ip, r2, lr, asr r8
    1864:	0002cc00 	andeq	ip, r2, r0, lsl #24
    1868:	56000100 	strpl	r0, [r0], -r0, lsl #2
    186c:	000002cc 	andeq	r0, r0, ip, asr #5
    1870:	000002ec 	andeq	r0, r0, ip, ror #5
    1874:	a0910004 	addsge	r0, r1, r4
    1878:	02ec9f7f 	rsceq	r9, ip, #508	; 0x1fc
    187c:	02fc0000 	rscseq	r0, ip, #0, 0
    1880:	00040000 	andeq	r0, r4, r0
    1884:	9f7fa191 	svcls	0x007fa191
    1888:	000002fc 	strdeq	r0, [r0], -ip
    188c:	00000328 	andeq	r0, r0, r8, lsr #6
    1890:	005e0001 	subseq	r0, lr, r1
	...
    18a8:	01010000 	mrseq	r0, (UNDEF: 1)
	...
    18bc:	00002000 	andeq	r2, r0, r0
    18c0:	00007000 	andeq	r7, r0, r0
    18c4:	52000100 	andpl	r0, r0, #0
    18c8:	00000070 	andeq	r0, r0, r0, ror r0
    18cc:	00000094 	muleq	r0, r4, r0
    18d0:	945c0001 	ldrbls	r0, [ip], #-1
    18d4:	9c000001 	stcls	0, cr0, [r0], {1}
    18d8:	01000001 	tsteq	r0, r1
    18dc:	019c5200 	orrseq	r5, ip, r0, lsl #4
    18e0:	01c00000 	biceq	r0, r0, r0
    18e4:	00010000 	andeq	r0, r1, r0
    18e8:	0001c85c 	andeq	ip, r1, ip, asr r8
    18ec:	00021000 	andeq	r1, r2, r0
    18f0:	5c000100 	stfpls	f0, [r0], {-0}
    18f4:	00000210 	andeq	r0, r0, r0, lsl r2
    18f8:	00000224 	andeq	r0, r0, r4, lsr #4
    18fc:	24520001 	ldrbcs	r0, [r2], #-1
    1900:	48000002 	stmdami	r0, {r1}
    1904:	01000002 	tsteq	r0, r2
    1908:	02485c00 	subeq	r5, r8, #0, 24
    190c:	025c0000 	subseq	r0, ip, #0, 0
    1910:	00010000 	andeq	r0, r1, r0
    1914:	00025c55 	andeq	r5, r2, r5, asr ip
    1918:	00026800 	andeq	r6, r2, r0, lsl #16
    191c:	5c000100 	stfpls	f0, [r0], {-0}
    1920:	00000268 	andeq	r0, r0, r8, ror #4
    1924:	00000274 	andeq	r0, r0, r4, ror r2
    1928:	00750019 	rsbseq	r0, r5, r9, lsl r0
    192c:	25f72cf7 	ldrbcs	r2, [r7, #3319]!	; 0xcf7
    1930:	2cf70076 	ldclcs	0, cr0, [r7], #472	; 0x1d8
    1934:	081e25f7 	ldmdaeq	lr, {r0, r1, r2, r4, r5, r6, r7, r8, sl, sp}
    1938:	2525f720 	strcs	pc, [r5, #-1824]!	; 0xfffff8e0
    193c:	00f72cf7 	ldrshteq	r2, [r7], #199	; 0xc7
    1940:	749f2533 	ldrvc	r2, [pc], #1331	; 1948 <__code_start__-0x66b8>
    1944:	88000002 	stmdahi	r0, {r1}
    1948:	01000002 	tsteq	r0, r2
    194c:	02885200 	addeq	r5, r8, #0, 4
    1950:	02a00000 	adceq	r0, r0, #0, 0
    1954:	00010000 	andeq	r0, r1, r0
    1958:	0002cc5c 	andeq	ip, r2, ip, asr ip
    195c:	0002d000 	andeq	sp, r2, r0
    1960:	52000100 	andpl	r0, r0, #0
    1964:	000002d0 	ldrdeq	r0, [r0], -r0	; <UNPREDICTABLE>
    1968:	000002e7 	andeq	r0, r0, r7, ror #5
    196c:	e75c0001 	ldrb	r0, [ip, -r1]
    1970:	ec000002 	stc	0, cr0, [r0], {2}
    1974:	04000002 	streq	r0, [r0], #-2
    1978:	5201f300 	andpl	pc, r1, #0, 6
    197c:	0002ec9f 	muleq	r2, pc, ip	; <UNPREDICTABLE>
    1980:	00030000 	andeq	r0, r3, r0
    1984:	52000100 	andpl	r0, r0, #0
    1988:	00000300 	andeq	r0, r0, r0, lsl #6
    198c:	00000328 	andeq	r0, r0, r8, lsr #6
    1990:	005c0001 	subseq	r0, ip, r1
    1994:	00000000 	andeq	r0, r0, r0
    1998:	04000000 	streq	r0, [r0], #-0
    199c:	00000400 	andeq	r0, r0, r0, lsl #8
    19a0:	04000001 	streq	r0, [r0], #-1
    19a4:	0000a400 	andeq	sl, r0, r0, lsl #8
    19a8:	0000b000 	andeq	fp, r0, r0
    19ac:	53000100 	movwpl	r0, #256	; 0x100
    19b0:	0000027c 	andeq	r0, r0, ip, ror r2
    19b4:	00000290 	muleq	r0, r0, r2
    19b8:	90530001 	subsls	r0, r3, r1
    19bc:	9c000002 	stcls	0, cr0, [r0], {2}
    19c0:	04000002 	streq	r0, [r0], #-2
    19c4:	5301f300 	movwpl	pc, #4864	; 0x1300	; <UNPREDICTABLE>
    19c8:	0002c09f 	muleq	r2, pc, r0	; <UNPREDICTABLE>
    19cc:	0002cc00 	andeq	ip, r2, r0, lsl #24
    19d0:	53000100 	movwpl	r0, #256	; 0x100
    19d4:	000002f0 	strdeq	r0, [r0], -r0	; <UNPREDICTABLE>
    19d8:	00000328 	andeq	r0, r0, r8, lsr #6
    19dc:	7f080003 	svcvc	0x00080003
    19e0:	0000009f 	muleq	r0, pc, r0	; <UNPREDICTABLE>
    19e4:	00000000 	andeq	r0, r0, r0
    19e8:	00000400 	andeq	r0, r0, r0, lsl #8
    19ec:	00000401 	andeq	r0, r0, r1, lsl #8
    19f0:	00000001 	andeq	r0, r0, r1
    19f4:	00000400 	andeq	r0, r0, r0, lsl #8
    19f8:	0000a400 	andeq	sl, r0, r0, lsl #8
    19fc:	0000b000 	andeq	fp, r0, r0
    1a00:	52000100 	andpl	r0, r0, #0
    1a04:	000000b0 	strheq	r0, [r0], -r0	; <UNPREDICTABLE>
    1a08:	0000015c 	andeq	r0, r0, ip, asr r1
    1a0c:	a0910004 	addsge	r0, r1, r4
    1a10:	027c9f7f 	rsbseq	r9, ip, #508	; 0x1fc
    1a14:	02940000 	addseq	r0, r4, #0, 0
    1a18:	00040000 	andeq	r0, r4, r0
    1a1c:	9f7fa091 	svcls	0x007fa091
    1a20:	00000294 	muleq	r0, r4, r2
    1a24:	0000029c 	muleq	r0, ip, r2
    1a28:	b45e0001 	ldrblt	r0, [lr], #-1
    1a2c:	c0000002 	andgt	r0, r0, r2
    1a30:	04000002 	streq	r0, [r0], #-2
    1a34:	7fa09100 	svcvc	0x00a09100
    1a38:	0002c09f 	muleq	r2, pc, r0	; <UNPREDICTABLE>
    1a3c:	0002cc00 	andeq	ip, r2, r0, lsl #24
    1a40:	52000100 	andpl	r0, r0, #0
    1a44:	000002f0 	strdeq	r0, [r0], -r0	; <UNPREDICTABLE>
    1a48:	00000300 	andeq	r0, r0, r0, lsl #6
    1a4c:	a0910004 	addsge	r0, r1, r4
    1a50:	03009f7f 	movweq	r9, #3967	; 0xf7f
    1a54:	03280000 			; <UNDEFINED> instruction: 0x03280000
    1a58:	00010000 	andeq	r0, r1, r0
    1a5c:	00000052 	andeq	r0, r0, r2, asr r0
    1a60:	00000000 	andeq	r0, r0, r0
    1a64:	00000400 	andeq	r0, r0, r0, lsl #8
    1a68:	01010101 	tsteq	r1, r1, lsl #2
    1a6c:	04020303 	streq	r0, [r2], #-771	; 0xfffffcfd
    1a70:	00000001 	andeq	r0, r0, r1
    1a74:	00000400 	andeq	r0, r0, r0, lsl #8
    1a78:	0000a400 	andeq	sl, r0, r0, lsl #8
    1a7c:	0000b000 	andeq	fp, r0, r0
    1a80:	5e000100 	adfpls	f0, f0, f0
    1a84:	0000010c 	andeq	r0, r0, ip, lsl #2
    1a88:	0000010c 	andeq	r0, r0, ip, lsl #2
    1a8c:	0c550001 	mrrceq	0, 0, r0, r5, cr1
    1a90:	20000001 	andcs	r0, r0, r1
    1a94:	03000001 	movweq	r0, #1
    1a98:	9f017500 	svcls	0x00017500
    1a9c:	00000120 	andeq	r0, r0, r0, lsr #2
    1aa0:	0000012c 	andeq	r0, r0, ip, lsr #2
    1aa4:	02750003 	rsbseq	r0, r5, #3, 0
    1aa8:	00012c9f 	muleq	r1, pc, ip	; <UNPREDICTABLE>
    1aac:	00013000 	andeq	r3, r1, r0
    1ab0:	75000300 	strvc	r0, [r0, #-768]	; 0xfffffd00
    1ab4:	027c9f03 	rsbseq	r9, ip, #3, 30
    1ab8:	029c0000 	addseq	r0, ip, #0, 0
    1abc:	00040000 	andeq	r0, r4, r0
    1ac0:	9f7fa191 	svcls	0x007fa191
    1ac4:	000002c0 	andeq	r0, r0, r0, asr #5
    1ac8:	000002c8 	andeq	r0, r0, r8, asr #5
    1acc:	c85e0001 	ldmdagt	lr, {r0}^
    1ad0:	cc000002 	stcgt	0, cr0, [r0], {2}
    1ad4:	01000002 	tsteq	r0, r2
    1ad8:	02f05600 	rscseq	r5, r0, #0, 12
    1adc:	02fc0000 	rscseq	r0, ip, #0, 0
    1ae0:	00040000 	andeq	r0, r4, r0
    1ae4:	9f7fa191 	svcls	0x007fa191
    1ae8:	000002fc 	strdeq	r0, [r0], -ip
    1aec:	00000328 	andeq	r0, r0, r8, lsr #6
    1af0:	005e0001 	subseq	r0, lr, r1
	...
    1afc:	01010000 	mrseq	r0, (UNDEF: 1)
    1b00:	01010101 	tsteq	r1, r1, lsl #2
    1b04:	00010602 	andeq	r0, r1, r2, lsl #12
    1b08:	a8000600 	stmdage	r0, {r9, sl}
    1b0c:	b0000000 	andlt	r0, r0, r0
    1b10:	01000000 	mrseq	r0, (UNDEF: 0)
    1b14:	010c5100 	mrseq	r5, (UNDEF: 28)
    1b18:	011c0000 	tsteq	ip, r0
    1b1c:	00010000 	andeq	r0, r1, r0
    1b20:	00011c5c 	andeq	r1, r1, ip, asr ip
    1b24:	00012c00 	andeq	r2, r1, r0, lsl #24
    1b28:	58000100 	stmdapl	r0, {r8}
    1b2c:	0000012c 	andeq	r0, r0, ip, lsr #2
    1b30:	00000130 	andeq	r0, r0, r0, lsr r1
    1b34:	305c0001 	subscc	r0, ip, r1
    1b38:	30000001 	andcc	r0, r0, r1
    1b3c:	03000001 	movweq	r0, #1
    1b40:	9f017c00 	svcls	0x00017c00
    1b44:	0000027c 	andeq	r0, r0, ip, ror r2
    1b48:	0000029c 	muleq	r0, ip, r2
    1b4c:	9f310002 	svcls	0x00310002
    1b50:	000002c0 	andeq	r0, r0, r0, asr #5
    1b54:	000002cc 	andeq	r0, r0, ip, asr #5
    1b58:	f0510001 			; <UNDEFINED> instruction: 0xf0510001
    1b5c:	28000002 	stmdacs	r0, {r1}
    1b60:	02000003 	andeq	r0, r0, #3, 0
    1b64:	009f3100 	addseq	r3, pc, r0, lsl #2
    1b68:	00000000 	andeq	r0, r0, r0
    1b6c:	01000000 	mrseq	r0, (UNDEF: 0)
    1b70:	01010606 	tsteq	r1, r6, lsl #12
    1b74:	5c010000 	stcpl	0, cr0, [r1], {-0}
    1b78:	5c000001 	stcpl	0, cr0, [r0], {1}
    1b7c:	04000001 	streq	r0, [r0], #-1
    1b80:	7fa09100 	svcvc	0x00a09100
    1b84:	00015c9f 	muleq	r1, pc, ip	; <UNPREDICTABLE>
    1b88:	00018c00 	andeq	r8, r1, r0, lsl #24
    1b8c:	52000100 	andpl	r0, r0, #0
    1b90:	0000029c 	muleq	r0, ip, r2
    1b94:	000002a0 	andeq	r0, r0, r0, lsr #5
    1b98:	a05e0001 	subsge	r0, lr, r1
    1b9c:	ac000002 	stcge	0, cr0, [r0], {2}
    1ba0:	01000002 	tsteq	r0, r2
    1ba4:	00005200 	andeq	r5, r0, r0, lsl #4
	...
    1bb0:	00010100 	andeq	r0, r1, r0, lsl #2
    1bb4:	016c0701 	cmneq	ip, r1, lsl #14
    1bb8:	01700000 	cmneq	r0, r0
    1bbc:	00030000 	andeq	r0, r3, r0
    1bc0:	709f7f73 	addsvc	r7, pc, r3, ror pc	; <UNPREDICTABLE>
    1bc4:	78000001 	stmdavc	r0, {r0}
    1bc8:	01000001 	tsteq	r0, r1
    1bcc:	01785300 	cmneq	r8, r0, lsl #6
    1bd0:	01840000 	orreq	r0, r4, r0
    1bd4:	00030000 	andeq	r0, r3, r0
    1bd8:	9c9f7f73 	ldcls	15, cr7, [pc], {115}	; 0x73
    1bdc:	9c000002 	stcls	0, cr0, [r0], {2}
    1be0:	04000002 	streq	r0, [r0], #-2
    1be4:	7fa19100 	svcvc	0x00a19100
    1be8:	0000009f 	muleq	r0, pc, r0	; <UNPREDICTABLE>
    1bec:	00000000 	andeq	r0, r0, r0
    1bf0:	01010100 	mrseq	r0, (UNDEF: 17)
    1bf4:	00015c01 	andeq	r5, r1, r1, lsl #24
    1bf8:	00018c00 	andeq	r8, r1, r0, lsl #24
    1bfc:	08000300 	stmdaeq	r0, {r8, r9}
    1c00:	029c9f80 	addseq	r9, ip, #128, 30	; 0x200
    1c04:	02ac0000 	adceq	r0, ip, #0, 0
    1c08:	00030000 	andeq	r0, r3, r0
    1c0c:	009f8008 	addseq	r8, pc, r8
    1c10:	00000000 	andeq	r0, r0, r0
    1c14:	01000000 	mrseq	r0, (UNDEF: 0)
    1c18:	01010000 	mrseq	r0, (UNDEF: 1)
    1c1c:	01010000 	mrseq	r0, (UNDEF: 1)
    1c20:	01010101 	tsteq	r1, r1, lsl #2
    1c24:	00015c01 	andeq	r5, r1, r1, lsl #24
    1c28:	00016c00 	andeq	r6, r1, r0, lsl #24
    1c2c:	50000100 	andpl	r0, r0, r0, lsl #2
    1c30:	0000016c 	andeq	r0, r0, ip, ror #2
    1c34:	0000016c 	andeq	r0, r0, ip, ror #2
    1c38:	017c0003 	cmneq	ip, r3
    1c3c:	00016c9f 	muleq	r1, pc, ip	; <UNPREDICTABLE>
    1c40:	00017800 	andeq	r7, r1, r0, lsl #16
    1c44:	7c000300 	stcvc	3, cr0, [r0], {-0}
    1c48:	01789f02 	cmneq	r8, r2, lsl #30
    1c4c:	01880000 	orreq	r0, r8, r0
    1c50:	00030000 	andeq	r0, r3, r0
    1c54:	889f017c 	ldmhi	pc, {r2, r3, r4, r5, r6, r8}	; <UNPREDICTABLE>
    1c58:	8c000001 	stchi	0, cr0, [r0], {1}
    1c5c:	03000001 	movweq	r0, #1
    1c60:	9f017e00 	svcls	0x00017e00
    1c64:	0000029c 	muleq	r0, ip, r2
    1c68:	000002a4 	andeq	r0, r0, r4, lsr #5
    1c6c:	a4500001 	ldrbge	r0, [r0], #-1
    1c70:	ac000002 	stcge	0, cr0, [r0], {2}
    1c74:	03000002 	movweq	r0, #2
    1c78:	9f017e00 	svcls	0x00017e00
	...
    1c84:	00040004 	andeq	r0, r4, r4
    1c88:	015c0100 	cmpeq	ip, r0, lsl #2
    1c8c:	01600000 	cmneq	r0, r0
    1c90:	00030000 	andeq	r0, r3, r0
    1c94:	9c9f0171 	ldflss	f0, [pc], {113}	; 0x71
    1c98:	a0000002 	andge	r0, r0, r2
    1c9c:	02000002 	andeq	r0, r0, #2, 0
    1ca0:	a09f3200 	addsge	r3, pc, r0, lsl #4
    1ca4:	ac000002 	stcge	0, cr0, [r0], {2}
    1ca8:	03000002 	movweq	r0, #2
    1cac:	9f017100 	svcls	0x00017100
	...
    1cb8:	00060007 	andeq	r0, r6, r7
    1cbc:	0000015c 	andeq	r0, r0, ip, asr r1
    1cc0:	00000194 	muleq	r0, r4, r1
    1cc4:	9c500001 	mrrcls	0, 0, r0, r0, cr1	; <UNPREDICTABLE>
    1cc8:	b4000002 	strlt	r0, [r0], #-2
    1ccc:	01000002 	tsteq	r0, r2
    1cd0:	00005000 	andeq	r5, r0, r0
    1cd4:	00000000 	andeq	r0, r0, r0
    1cd8:	01010000 	mrseq	r0, (UNDEF: 1)
    1cdc:	02140001 	andseq	r0, r4, #1, 0
    1ce0:	02200000 	eoreq	r0, r0, #0, 0
    1ce4:	00020000 	andeq	r0, r2, r0
    1ce8:	02209f30 	eoreq	r9, r0, #48, 30	; 0xc0
    1cec:	02340000 	eorseq	r0, r4, #0, 0
    1cf0:	00020000 	andeq	r0, r2, r0
    1cf4:	00009f31 	andeq	r9, r0, r1, lsr pc
    1cf8:	00000000 	andeq	r0, r0, r0
    1cfc:	01000000 	mrseq	r0, (UNDEF: 0)
    1d00:	01000001 	tsteq	r0, r1
    1d04:	01000001 	tsteq	r0, r1
    1d08:	01000001 	tsteq	r0, r1
    1d0c:	01000001 	tsteq	r0, r1
    1d10:	02000001 	andeq	r0, r0, #1, 0
    1d14:	00800102 	addeq	r0, r0, r2, lsl #2
    1d18:	00800000 	addeq	r0, r0, r0
    1d1c:	00010000 	andeq	r0, r1, r0
    1d20:	00008053 	andeq	r8, r0, r3, asr r0
    1d24:	00008c00 	andeq	r8, r0, r0, lsl #24
    1d28:	73000300 	movwvc	r0, #768	; 0x300
    1d2c:	008c9f04 	addeq	r9, ip, r4, lsl #30
    1d30:	00940000 	addseq	r0, r4, r0
    1d34:	00010000 	andeq	r0, r1, r0
    1d38:	00009451 	andeq	r9, r0, r1, asr r4
    1d3c:	00009800 	andeq	r9, r0, r0, lsl #16
    1d40:	73000300 	movwvc	r0, #768	; 0x300
    1d44:	00989f08 	addseq	r9, r8, r8, lsl #30
    1d48:	00a40000 	adceq	r0, r4, r0
    1d4c:	00010000 	andeq	r0, r1, r0
    1d50:	0000a451 	andeq	sl, r0, r1, asr r4
    1d54:	0000a800 	andeq	sl, r0, r0, lsl #16
    1d58:	73000300 	movwvc	r0, #768	; 0x300
    1d5c:	00a89f0c 	adceq	r9, r8, ip, lsl #30
    1d60:	00b40000 	adcseq	r0, r4, r0
    1d64:	00010000 	andeq	r0, r1, r0
    1d68:	0000b451 	andeq	fp, r0, r1, asr r4
    1d6c:	0000b800 	andeq	fp, r0, r0, lsl #16
    1d70:	73000300 	movwvc	r0, #768	; 0x300
    1d74:	00b89f10 	adcseq	r9, r8, r0, lsl pc
    1d78:	00c40000 	sbceq	r0, r4, r0
    1d7c:	00010000 	andeq	r0, r1, r0
    1d80:	0000c451 	andeq	ip, r0, r1, asr r4
    1d84:	0000c800 	andeq	ip, r0, r0, lsl #16
    1d88:	73000300 	movwvc	r0, #768	; 0x300
    1d8c:	00c89f14 	sbceq	r9, r8, r4, lsl pc
    1d90:	00d00000 	sbcseq	r0, r0, r0
    1d94:	00010000 	andeq	r0, r1, r0
    1d98:	0000d051 	andeq	sp, r0, r1, asr r0
    1d9c:	0000d400 	andeq	sp, r0, r0, lsl #8
    1da0:	71000300 	mrsvc	r0, LR_irq
    1da4:	00009f04 	andeq	r9, r0, r4, lsl #30
    1da8:	00000000 	andeq	r0, r0, r0
    1dac:	00020000 	andeq	r0, r2, r0
    1db0:	000000d8 	ldrdeq	r0, [r0], -r8
    1db4:	000000e8 	andeq	r0, r0, r8, ror #1
    1db8:	9f310002 	svcls	0x00310002
	...
    1dc4:	01000004 	tsteq	r0, r4
    1dc8:	00009338 	andeq	r9, r0, r8, lsr r3
    1dcc:	00009340 	andeq	r9, r0, r0, asr #6
    1dd0:	9f300002 	svcls	0x00300002
    1dd4:	00009340 	andeq	r9, r0, r0, asr #6
    1dd8:	00009340 	andeq	r9, r0, r0, asr #6
    1ddc:	00530001 	subseq	r0, r3, r1
    1de0:	00000000 	andeq	r0, r0, r0
    1de4:	03000000 	movweq	r0, #0
    1de8:	00000000 	andeq	r0, r0, r0
    1dec:	4c000000 	stcmi	0, cr0, [r0], {-0}
    1df0:	50000093 	mulpl	r0, r3, r0
    1df4:	02000093 	andeq	r0, r0, #147, 0	; 0x93
    1df8:	509f3000 	addspl	r3, pc, r0
    1dfc:	54000093 	strpl	r0, [r0], #-147	; 0xffffff6d
    1e00:	01000093 	swpeq	r0, r3, [r0]	; <UNPREDICTABLE>
    1e04:	93545300 	cmpls	r4, #0, 6
    1e08:	93580000 	cmpls	r8, #0, 0
    1e0c:	00050000 	andeq	r0, r5, r0
    1e10:	21400073 	hvccs	3
    1e14:	0093589f 	umullseq	r5, r3, pc, r8	; <UNPREDICTABLE>
    1e18:	00935c00 	addseq	r5, r3, r0, lsl #24
    1e1c:	53000100 	movwpl	r0, #256	; 0x100
	...
    1e28:	00000002 	andeq	r0, r0, r2
    1e2c:	0000930c 	andeq	r9, r0, ip, lsl #6
    1e30:	00009310 	andeq	r9, r0, r0, lsl r3
    1e34:	9f300002 	svcls	0x00300002
    1e38:	00009310 	andeq	r9, r0, r0, lsl r3
    1e3c:	00009314 	andeq	r9, r0, r4, lsl r3
    1e40:	00500001 	subseq	r0, r0, r1
    1e44:	00000000 	andeq	r0, r0, r0
    1e48:	02000000 	andeq	r0, r0, #0, 0
    1e4c:	00000000 	andeq	r0, r0, r0
    1e50:	24000000 	strcs	r0, [r0], #-0
    1e54:	28000093 	stmdacs	r0, {r0, r1, r4, r7}
    1e58:	02000093 	andeq	r0, r0, #147, 0	; 0x93
    1e5c:	289f3000 	ldmcs	pc, {ip, sp}	; <UNPREDICTABLE>
    1e60:	2c000093 	stccs	0, cr0, [r0], {147}	; 0x93
    1e64:	01000093 	swpeq	r0, r3, [r0]	; <UNPREDICTABLE>
    1e68:	932c5300 			; <UNDEFINED> instruction: 0x932c5300
    1e6c:	93300000 	teqls	r0, #0, 0
    1e70:	00050000 	andeq	r0, r5, r0
    1e74:	21400073 	hvccs	3
    1e78:	0093309f 	umullseq	r3, r3, pc, r0	; <UNPREDICTABLE>
    1e7c:	00933800 	addseq	r3, r3, r0, lsl #16
    1e80:	53000100 	movwpl	r0, #256	; 0x100
	...
    1e90:	000000c8 	andeq	r0, r0, r8, asr #1
    1e94:	000000d8 	ldrdeq	r0, [r0], -r8
    1e98:	d8500001 	ldmdale	r0, {r0}^
    1e9c:	1c000000 	stcne	0, cr0, [r0], {-0}
    1ea0:	04000001 	streq	r0, [r0], #-1
    1ea4:	5001f300 	andpl	pc, r1, r0, lsl #6
    1ea8:	0000009f 	muleq	r0, pc, r0	; <UNPREDICTABLE>
    1eac:	00000000 	andeq	r0, r0, r0
    1eb0:	00000200 	andeq	r0, r0, r0, lsl #4
    1eb4:	0000c800 	andeq	ip, r0, r0, lsl #16
    1eb8:	0000d800 	andeq	sp, r0, r0, lsl #16
    1ebc:	70000700 	andvc	r0, r0, r0, lsl #14
    1ec0:	03e80a00 	mvneq	r0, #0, 20
    1ec4:	00d89f1e 	sbcseq	r9, r8, lr, lsl pc
    1ec8:	011c0000 	tsteq	ip, r0
    1ecc:	00080000 	andeq	r0, r8, r0
    1ed0:	0a5001f3 	beq	14026a4 <__bss_end__+0x13f7fcc>
    1ed4:	9f1e03e8 	svcls	0x001e03e8
	...
    1ee0:	00dc0000 	sbcseq	r0, ip, r0
    1ee4:	011c0000 	tsteq	ip, r0
    1ee8:	00010000 	andeq	r0, r1, r0
    1eec:	00000054 	andeq	r0, r0, r4, asr r0
    1ef0:	00000000 	andeq	r0, r0, r0
    1ef4:	f0000100 			; <UNDEFINED> instruction: 0xf0000100
    1ef8:	1c000000 	stcne	0, cr0, [r0], {-0}
    1efc:	01000001 	tsteq	r0, r1
    1f00:	00005600 	andeq	r5, r0, r0, lsl #12
	...
    1f0c:	00ec0000 	rsceq	r0, ip, r0
    1f10:	00ef0000 	rsceq	r0, pc, r0
    1f14:	00010000 	andeq	r0, r1, r0
    1f18:	0000ef50 	andeq	lr, r0, r0, asr pc
    1f1c:	00011c00 	andeq	r1, r1, r0, lsl #24
    1f20:	56000100 	strpl	r0, [r0], -r0, lsl #2
	...
    1f2c:	01040000 	mrseq	r0, (UNDEF: 4)
    1f30:	010b0000 	mrseq	r0, (UNDEF: 11)
    1f34:	00010000 	andeq	r0, r1, r0
    1f38:	00000050 	andeq	r0, r0, r0, asr r0
	...
    1f44:	00002000 	andeq	r2, r0, r0
    1f48:	00002300 	andeq	r2, r0, r0, lsl #6
    1f4c:	50000100 	andpl	r0, r0, r0, lsl #2
    1f50:	00000023 	andeq	r0, r0, r3, lsr #32
    1f54:	00000030 	andeq	r0, r0, r0, lsr r0
    1f58:	00540001 	subseq	r0, r4, r1
	...
    1f64:	30000000 	andcc	r0, r0, r0
    1f68:	3b000000 	blcc	1f70 <__code_start__-0x6090>
    1f6c:	01000000 	mrseq	r0, (UNDEF: 0)
    1f70:	003b5000 	eorseq	r5, fp, r0
    1f74:	00780000 	rsbseq	r0, r8, r0
    1f78:	00010000 	andeq	r0, r1, r0
    1f7c:	00000056 	andeq	r0, r0, r6, asr r0
    1f80:	00000000 	andeq	r0, r0, r0
    1f84:	4c000100 	stfmis	f0, [r0], {-0}
    1f88:	78000000 	stmdavc	r0, {}	; <UNPREDICTABLE>
    1f8c:	01000000 	mrseq	r0, (UNDEF: 0)
    1f90:	00005500 	andeq	r5, r0, r0, lsl #10
	...
    1f9c:	00480000 	subeq	r0, r8, r0
    1fa0:	004b0000 	subeq	r0, fp, r0
    1fa4:	00010000 	andeq	r0, r1, r0
    1fa8:	00004b50 	andeq	r4, r0, r0, asr fp
    1fac:	00007800 	andeq	r7, r0, r0, lsl #16
    1fb0:	55000100 	strpl	r0, [r0, #-256]	; 0xffffff00
	...
    1fbc:	00600000 	rsbeq	r0, r0, r0
    1fc0:	00670000 	rsbeq	r0, r7, r0
    1fc4:	00010000 	andeq	r0, r1, r0
    1fc8:	00000050 	andeq	r0, r0, r0, asr r0
	...
    1fd4:	00007800 	andeq	r7, r0, r0, lsl #16
    1fd8:	00008400 	andeq	r8, r0, r0, lsl #8
    1fdc:	50000100 	andpl	r0, r0, r0, lsl #2
    1fe0:	00000084 	andeq	r0, r0, r4, lsl #1
    1fe4:	000000c8 	andeq	r0, r0, r8, asr #1
    1fe8:	01f30004 	mvnseq	r0, r4
    1fec:	00009f50 	andeq	r9, r0, r0, asr pc
	...
    1ff8:	00000088 	andeq	r0, r0, r8, lsl #1
    1ffc:	000000c8 	andeq	r0, r0, r8, asr #1
    2000:	00540001 	subseq	r0, r4, r1
    2004:	00000000 	andeq	r0, r0, r0
    2008:	01000000 	mrseq	r0, (UNDEF: 0)
    200c:	00009c00 	andeq	r9, r0, r0, lsl #24
    2010:	0000c800 	andeq	ip, r0, r0, lsl #16
    2014:	56000100 	strpl	r0, [r0], -r0, lsl #2
	...
    2024:	00000098 	muleq	r0, r8, r0
    2028:	0000009b 	muleq	r0, fp, r0
    202c:	9b500001 	blls	1402038 <__bss_end__+0x13f7960>
    2030:	c8000000 	stmdagt	r0, {}	; <UNPREDICTABLE>
    2034:	01000000 	mrseq	r0, (UNDEF: 0)
    2038:	00005600 	andeq	r5, r0, r0, lsl #12
	...
    2044:	000000b0 	strheq	r0, [r0], -r0	; <UNPREDICTABLE>
    2048:	000000b7 	strheq	r0, [r0], -r7
    204c:	00500001 	subseq	r0, r0, r1
	...
    2058:	58000000 	stmdapl	r0, {}	; <UNPREDICTABLE>
    205c:	63000001 	movwvs	r0, #1
    2060:	01000001 	tsteq	r0, r1
    2064:	01635000 	cmneq	r3, r0
    2068:	01880000 	orreq	r0, r8, r0
    206c:	00010000 	andeq	r0, r1, r0
    2070:	00000054 	andeq	r0, r0, r4, asr r0
    2074:	00000000 	andeq	r0, r0, r0
    2078:	48000000 	stmdami	r0, {}	; <UNPREDICTABLE>
    207c:	58000001 	stmdapl	r0, {r0}
    2080:	01000001 	tsteq	r0, r1
    2084:	00005400 	andeq	r5, r0, r0, lsl #8
	...
    2094:	000f0000 	andeq	r0, pc, r0
    2098:	00010000 	andeq	r0, r1, r0
    209c:	00000f50 	andeq	r0, r0, r0, asr pc
    20a0:	00002000 	andeq	r2, r0, r0
    20a4:	54000100 	strpl	r0, [r0], #-256	; 0xffffff00
	...
    20b8:	0000000f 	andeq	r0, r0, pc
    20bc:	0f510001 	svceq	0x00510001
    20c0:	20000000 	andcs	r0, r0, r0
    20c4:	01000000 	mrseq	r0, (UNDEF: 0)
    20c8:	00005500 	andeq	r5, r0, r0, lsl #10
	...
    20d4:	00200000 	eoreq	r0, r0, r0
    20d8:	002f0000 	eoreq	r0, pc, r0
    20dc:	00010000 	andeq	r0, r1, r0
    20e0:	00002f50 	andeq	r2, r0, r0, asr pc
    20e4:	00004000 	andeq	r4, r0, r0
    20e8:	54000100 	strpl	r0, [r0], #-256	; 0xffffff00
	...
    20f8:	00000020 	andeq	r0, r0, r0, lsr #32
    20fc:	0000002f 	andeq	r0, r0, pc, lsr #32
    2100:	2f510001 	svccs	0x00510001
    2104:	40000000 	andmi	r0, r0, r0
    2108:	01000000 	mrseq	r0, (UNDEF: 0)
    210c:	00005500 	andeq	r5, r0, r0, lsl #10
	...
    211c:	00000350 	andeq	r0, r0, r0, asr r3
    2120:	00000398 	muleq	r0, r8, r3
    2124:	98500001 	ldmdals	r0, {r0}^
    2128:	9b000003 	blls	213c <__code_start__-0x5ec4>
    212c:	02000003 	andeq	r0, r0, #3, 0
    2130:	9b689100 	blls	1a26538 <__bss_end__+0x1a1be60>
    2134:	b0000003 	andlt	r0, r0, r3
    2138:	04000003 	streq	r0, [r0], #-3
    213c:	5001f300 	andpl	pc, r1, r0, lsl #6
    2140:	0000009f 	muleq	r0, pc, r0	; <UNPREDICTABLE>
	...
    215c:	00022000 	andeq	r2, r2, r0
    2160:	00027b00 	andeq	r7, r2, r0, lsl #22
    2164:	50000100 	andpl	r0, r0, r0, lsl #2
    2168:	0000027b 	andeq	r0, r0, fp, ror r2
    216c:	00000284 	andeq	r0, r0, r4, lsl #5
    2170:	01f30004 	mvnseq	r0, r4
    2174:	02849f50 	addeq	r9, r4, #80, 30	; 0x140
    2178:	029c0000 	addseq	r0, ip, #0, 0
    217c:	00010000 	andeq	r0, r1, r0
    2180:	00029c50 	andeq	r9, r2, r0, asr ip
    2184:	0002a400 	andeq	sl, r2, r0, lsl #8
    2188:	f3000400 	vshl.u8	d0, d0, d0
    218c:	a49f5001 	ldrge	r5, [pc], #1	; 2194 <__code_start__-0x5e6c>
    2190:	a7000002 	strge	r0, [r0, -r2]
    2194:	01000002 	tsteq	r0, r2
    2198:	02a75000 	adceq	r5, r7, #0, 0
    219c:	02c80000 	sbceq	r0, r8, #0, 0
    21a0:	00040000 	andeq	r0, r4, r0
    21a4:	9f5001f3 	svcls	0x005001f3
    21a8:	000002c8 	andeq	r0, r0, r8, asr #5
    21ac:	000002e0 	andeq	r0, r0, r0, ror #5
    21b0:	e0500001 	subs	r0, r0, r1
    21b4:	e8000002 	stmda	r0, {r1}
    21b8:	04000002 	streq	r0, [r0], #-2
    21bc:	5001f300 	andpl	pc, r1, r0, lsl #6
    21c0:	0002e89f 	muleq	r2, pc, r8	; <UNPREDICTABLE>
    21c4:	0002eb00 	andeq	lr, r2, r0, lsl #22
    21c8:	50000100 	andpl	r0, r0, r0, lsl #2
    21cc:	000002eb 	andeq	r0, r0, fp, ror #5
    21d0:	00000338 	andeq	r0, r0, r8, lsr r3
    21d4:	01f30004 	mvnseq	r0, r4
    21d8:	00009f50 	andeq	r9, r0, r0, asr pc
	...
    21f4:	02200000 	eoreq	r0, r0, #0, 0
    21f8:	02440000 	subeq	r0, r4, #0, 0
    21fc:	00010000 	andeq	r0, r1, r0
    2200:	00024451 	andeq	r4, r2, r1, asr r4
    2204:	00026800 	andeq	r6, r2, r0, lsl #16
    2208:	51000100 	mrspl	r0, (UNDEF: 16)
    220c:	00000268 	andeq	r0, r0, r8, ror #4
    2210:	0000027b 	andeq	r0, r0, fp, ror r2
    2214:	01710003 	cmneq	r1, r3
    2218:	00027b9f 	muleq	r2, pc, fp	; <UNPREDICTABLE>
    221c:	00028400 	andeq	r8, r2, r0, lsl #8
    2220:	38001700 	stmdacc	r0, {r8, r9, sl, ip}
    2224:	f35101f3 	vbsl	q8, <illegal reg q8.5>, <illegal reg q9.5>
    2228:	4b405101 	blmi	1016634 <__bss_end__+0x100bf5c>
    222c:	080c2224 	stmdaeq	ip, {r2, r5, r9, sp}
    2230:	2d800000 	stccs	0, cr0, [r0]
    2234:	16000128 	strne	r0, [r0], -r8, lsr #2
    2238:	02849f13 	addeq	r9, r4, #76	; 0x4c
    223c:	02980000 	addseq	r0, r8, #0, 0
    2240:	00010000 	andeq	r0, r1, r0
    2244:	00029851 	andeq	r9, r2, r1, asr r8
    2248:	0002a400 	andeq	sl, r2, r0, lsl #8
    224c:	f3000400 	vshl.u8	d0, d0, d0
    2250:	a49f5101 	ldrge	r5, [pc], #257	; 2258 <__code_start__-0x5da8>
    2254:	a7000002 	strge	r0, [r0, -r2]
    2258:	01000002 	tsteq	r0, r2
    225c:	02a75100 	adceq	r5, r7, #0
    2260:	02c80000 	sbceq	r0, r8, #0, 0
    2264:	00040000 	andeq	r0, r4, r0
    2268:	9f5101f3 	svcls	0x005101f3
    226c:	000002c8 	andeq	r0, r0, r8, asr #5
    2270:	000002dc 	ldrdeq	r0, [r0], -ip
    2274:	dc510001 	mrrcle	0, 0, r0, r1, cr1
    2278:	38000002 	stmdacc	r0, {r1}
    227c:	17000003 	strne	r0, [r0, -r3]
    2280:	01f33800 	mvnseq	r3, r0, lsl #16
    2284:	5101f351 	tstpl	r1, r1, asr r3	; <UNPREDICTABLE>
    2288:	22244b40 	eorcs	r4, r4, #64, 22	; 0x10000
    228c:	0000080c 	andeq	r0, r0, ip, lsl #16
    2290:	01282d80 	smlawbeq	r8, r0, sp, r2
    2294:	9f131600 	svcls	0x00131600
	...
    22ac:	0000024c 	andeq	r0, r0, ip, asr #4
    22b0:	0000025c 	andeq	r0, r0, ip, asr r2
    22b4:	5c520001 	mrrcpl	0, 0, r0, r2, cr1
    22b8:	64000002 	strvs	r0, [r0], #-2
    22bc:	05000002 	streq	r0, [r0, #-2]
    22c0:	a2a80300 	adcge	r0, r8, #0, 6
    22c4:	02640000 	rsbeq	r0, r4, #0, 0
    22c8:	027b0000 	rsbseq	r0, fp, #0, 0
    22cc:	00010000 	andeq	r0, r1, r0
    22d0:	0002c853 	andeq	ip, r2, r3, asr r8
    22d4:	0002d800 	andeq	sp, r2, r0, lsl #16
    22d8:	52000100 	andpl	r0, r0, #0
    22dc:	000002d8 	ldrdeq	r0, [r0], -r8
    22e0:	000002e3 	andeq	r0, r0, r3, ror #5
    22e4:	a8030005 	stmdage	r3, {r0, r2}
    22e8:	e80000a2 	stmda	r0, {r1, r5, r7}
    22ec:	eb000002 	bl	22fc <__code_start__-0x5d04>
    22f0:	01000002 	tsteq	r0, r2
    22f4:	00005300 	andeq	r5, r0, r0, lsl #6
    22f8:	00000000 	andeq	r0, r0, r0
    22fc:	00040000 	andeq	r0, r4, r0
    2300:	00000230 	andeq	r0, r0, r0, lsr r2
    2304:	00000234 	andeq	r0, r0, r4, lsr r2
    2308:	00510001 	subseq	r0, r1, r1
    230c:	00000000 	andeq	r0, r0, r0
    2310:	02000000 	andeq	r0, r0, #0, 0
    2314:	00023c00 	andeq	r3, r2, r0, lsl #24
    2318:	00024400 	andeq	r4, r2, r0, lsl #8
    231c:	38000200 	stmdacc	r0, {r9}
    2320:	0000009f 	muleq	r0, pc, r0	; <UNPREDICTABLE>
    2324:	00000000 	andeq	r0, r0, r0
    2328:	3c000200 	sfmcc	f0, 4, [r0], {-0}
    232c:	44000002 	strmi	r0, [r0], #-2
    2330:	01000002 	tsteq	r0, r2
    2334:	00005100 	andeq	r5, r0, r0, lsl #2
    2338:	00000000 	andeq	r0, r0, r0
    233c:	00010000 	andeq	r0, r1, r0
    2340:	00000000 	andeq	r0, r0, r0
    2344:	0000024c 	andeq	r0, r0, ip, asr #4
    2348:	00000264 	andeq	r0, r0, r4, ror #4
    234c:	c8510001 	ldmdagt	r1, {r0}^
    2350:	dc000002 	stcle	0, cr0, [r0], {2}
    2354:	01000002 	tsteq	r0, r2
    2358:	02dc5100 	sbcseq	r5, ip, #0
    235c:	02e80000 	rsceq	r0, r8, #0, 0
    2360:	00170000 	andseq	r0, r7, r0
    2364:	5101f338 	tstpl	r1, r8, lsr r3	; <UNPREDICTABLE>
    2368:	405101f3 	ldrshmi	r0, [r1], #-19	; 0xffffffed
    236c:	0c22244b 	cfstrseq	mvf2, [r2], #-300	; 0xfffffed4
    2370:	80000008 	andhi	r0, r0, r8
    2374:	0001282d 	andeq	r2, r1, sp, lsr #16
    2378:	009f1316 	addseq	r1, pc, r6, lsl r3	; <UNPREDICTABLE>
    237c:	00000000 	andeq	r0, r0, r0
    2380:	01000000 	mrseq	r0, (UNDEF: 0)
    2384:	00000000 	andeq	r0, r0, r0
    2388:	4c000000 	stcmi	0, cr0, [r0], {-0}
    238c:	5c000002 	stcpl	0, cr0, [r0], {2}
    2390:	01000002 	tsteq	r0, r2
    2394:	025c5200 	subseq	r5, ip, #0, 4
    2398:	02640000 	rsbeq	r0, r4, #0, 0
    239c:	00050000 	andeq	r0, r5, r0
    23a0:	00a2a803 	adceq	sl, r2, r3, lsl #16
    23a4:	0002c800 	andeq	ip, r2, r0, lsl #16
    23a8:	0002d800 	andeq	sp, r2, r0, lsl #16
    23ac:	52000100 	andpl	r0, r0, #0
    23b0:	000002d8 	ldrdeq	r0, [r0], -r8
    23b4:	000002e3 	andeq	r0, r0, r3, ror #5
    23b8:	a8030005 	stmdage	r3, {r0, r2}
    23bc:	000000a2 	andeq	r0, r0, r2, lsr #1
    23c0:	00000000 	andeq	r0, r0, r0
    23c4:	04000000 	streq	r0, [r0], #-0
    23c8:	00024c00 	andeq	r4, r2, r0, lsl #24
    23cc:	00025000 	andeq	r5, r2, r0
    23d0:	51000100 	mrspl	r0, (UNDEF: 16)
	...
    23dc:	02640003 	rsbeq	r0, r4, #3, 0
    23e0:	02680000 	rsbeq	r0, r8, #0, 0
    23e4:	00010000 	andeq	r0, r1, r0
    23e8:	00000051 	andeq	r0, r0, r1, asr r0
    23ec:	00000000 	andeq	r0, r0, r0
    23f0:	64000300 	strvs	r0, [r0], #-768	; 0xfffffd00
    23f4:	68000002 	stmdavs	r0, {r1}
    23f8:	01000002 	tsteq	r0, r2
    23fc:	00005300 	andeq	r5, r0, r0, lsl #6
	...
    240c:	01bc0000 			; <UNDEFINED> instruction: 0x01bc0000
    2410:	01d30000 	bicseq	r0, r3, r0
    2414:	00010000 	andeq	r0, r1, r0
    2418:	0001d350 	andeq	sp, r1, r0, asr r3
    241c:	0001f000 	andeq	pc, r1, r0
    2420:	54000100 	strpl	r0, [r0], #-256	; 0xffffff00
    2424:	000001f0 	strdeq	r0, [r0], -r0	; <UNPREDICTABLE>
    2428:	00000208 	andeq	r0, r0, r8, lsl #4
    242c:	08500001 	ldmdaeq	r0, {r0}^
    2430:	20000002 	andcs	r0, r0, r2
    2434:	01000002 	tsteq	r0, r2
    2438:	00005400 	andeq	r5, r0, r0, lsl #8
	...
    2444:	01d80000 	bicseq	r0, r8, r0
    2448:	01e30000 	mvneq	r0, r0
    244c:	00010000 	andeq	r0, r1, r0
    2450:	0001e350 	andeq	lr, r1, r0, asr r3
    2454:	0001f000 	andeq	pc, r1, r0
    2458:	55000100 	strpl	r0, [r0, #-256]	; 0xffffff00
	...
    2474:	00000124 	andeq	r0, r0, r4, lsr #2
    2478:	00000138 	andeq	r0, r0, r8, lsr r1
    247c:	38500001 	ldmdacc	r0, {r0}^
    2480:	3c000001 	stccc	0, cr0, [r0], {1}
    2484:	03000001 	movweq	r0, #1
    2488:	9f797000 	svcls	0x00797000
    248c:	0000013c 	andeq	r0, r0, ip, lsr r1
    2490:	00000160 	andeq	r0, r0, r0, ror #2
    2494:	60530001 	subsvs	r0, r3, r1
    2498:	78000001 	stmdavc	r0, {r0}
    249c:	01000001 	tsteq	r0, r1
    24a0:	01785000 	cmneq	r8, r0
    24a4:	01800000 	orreq	r0, r0, r0
    24a8:	00040000 	andeq	r0, r4, r0
    24ac:	9f5001f3 	svcls	0x005001f3
    24b0:	00000180 	andeq	r0, r0, r0, lsl #3
    24b4:	00000190 	muleq	r0, r0, r1
    24b8:	90530001 	subsls	r0, r3, r1
    24bc:	9f000001 	svcls	0x00000001
    24c0:	02000001 	andeq	r0, r0, #1, 0
    24c4:	9f689100 	svcls	0x00689100
    24c8:	bc000001 	stclt	0, cr0, [r0], {1}
    24cc:	09000001 	stmdbeq	r0, {r0}
    24d0:	5001f300 	andpl	pc, r1, r0, lsl #6
    24d4:	f8090723 			; <UNDEFINED> instruction: 0xf8090723
    24d8:	00009f1a 	andeq	r9, r0, sl, lsl pc
	...
    24e4:	01440000 	mrseq	r0, (UNDEF: 68)
    24e8:	01600000 	cmneq	r0, r0
    24ec:	00010000 	andeq	r0, r1, r0
    24f0:	00018050 	andeq	r8, r1, r0, asr r0
    24f4:	00019c00 	andeq	r9, r1, r0, lsl #24
    24f8:	50000100 	andpl	r0, r0, r0, lsl #2
	...
    2504:	01340003 	teqeq	r4, r3
    2508:	013c0000 	teqeq	ip, r0
    250c:	00020000 	andeq	r0, r2, r0
    2510:	00009f38 	andeq	r9, r0, r8, lsr pc
    2514:	00000000 	andeq	r0, r0, r0
    2518:	00030000 	andeq	r0, r3, r0
    251c:	01340000 	teqeq	r4, r0
    2520:	01380000 	teqeq	r8, r0
    2524:	00010000 	andeq	r0, r1, r0
    2528:	00013850 	andeq	r3, r1, r0, asr r8
    252c:	00013c00 	andeq	r3, r1, r0, lsl #24
    2530:	70000300 	andvc	r0, r0, r0, lsl #6
    2534:	00009f79 	andeq	r9, r0, r9, ror pc
	...
    254c:	00000030 	andeq	r0, r0, r0, lsr r0
    2550:	00000060 	andeq	r0, r0, r0, rrx
    2554:	60500001 	subsvs	r0, r0, r1
    2558:	6c000000 	stcvs	0, cr0, [r0], {-0}
    255c:	05000000 	streq	r0, [r0, #-0]
    2560:	a2a80300 	adcge	r0, r8, #0, 6
    2564:	006c0000 	rsbeq	r0, ip, r0
    2568:	00840000 	addeq	r0, r4, r0
    256c:	00010000 	andeq	r0, r1, r0
    2570:	00008450 	andeq	r8, r0, r0, asr r4
    2574:	00008c00 	andeq	r8, r0, r0, lsl #24
    2578:	f3000400 	vshl.u8	d0, d0, d0
    257c:	8c9f5001 	ldchi	0, cr5, [pc], {1}
    2580:	ac000000 	stcge	0, cr0, [r0], {-0}
    2584:	01000000 	mrseq	r0, (UNDEF: 0)
    2588:	00ac5000 	adceq	r5, ip, r0
    258c:	00af0000 	adceq	r0, pc, r0
    2590:	00020000 	andeq	r0, r2, r0
    2594:	00af6891 	umlaleq	r6, pc, r1, r8	; <UNPREDICTABLE>
    2598:	00cc0000 	sbceq	r0, ip, r0
    259c:	00040000 	andeq	r0, r4, r0
    25a0:	9f5001f3 	svcls	0x005001f3
	...
    25b4:	00000030 	andeq	r0, r0, r0, lsr r0
    25b8:	00000080 	andeq	r0, r0, r0, lsl #1
    25bc:	80510001 	subshi	r0, r1, r1
    25c0:	8c000000 	stchi	0, cr0, [r0], {-0}
    25c4:	04000000 	streq	r0, [r0], #-0
    25c8:	5101f300 	mrspl	pc, SP_irq	; <UNPREDICTABLE>
    25cc:	00008c9f 	muleq	r0, pc, ip	; <UNPREDICTABLE>
    25d0:	0000a800 	andeq	sl, r0, r0, lsl #16
    25d4:	51000100 	mrspl	r0, (UNDEF: 16)
    25d8:	000000a8 	andeq	r0, r0, r8, lsr #1
    25dc:	000000cc 	andeq	r0, r0, ip, asr #1
    25e0:	01f30004 	mvnseq	r0, r4
    25e4:	00009f51 	andeq	r9, r0, r1, asr pc
    25e8:	00000000 	andeq	r0, r0, r0
    25ec:	00010000 	andeq	r0, r1, r0
	...
    25fc:	00000038 	andeq	r0, r0, r8, lsr r0
    2600:	00000060 	andeq	r0, r0, r0, rrx
    2604:	60500001 	subsvs	r0, r0, r1
    2608:	6c000000 	stcvs	0, cr0, [r0], {-0}
    260c:	05000000 	streq	r0, [r0, #-0]
    2610:	a2a80300 	adcge	r0, r8, #0, 6
    2614:	006c0000 	rsbeq	r0, ip, r0
    2618:	00840000 	addeq	r0, r4, r0
    261c:	00010000 	andeq	r0, r1, r0
    2620:	00008450 	andeq	r8, r0, r0, asr r4
    2624:	00008c00 	andeq	r8, r0, r0, lsl #24
    2628:	f3000400 	vshl.u8	d0, d0, d0
    262c:	8c9f5001 	ldchi	0, cr5, [pc], {1}
    2630:	ac000000 	stcge	0, cr0, [r0], {-0}
    2634:	01000000 	mrseq	r0, (UNDEF: 0)
    2638:	00ac5000 	adceq	r5, ip, r0
    263c:	00af0000 	adceq	r0, pc, r0
    2640:	00020000 	andeq	r0, r2, r0
    2644:	00af6891 	umlaleq	r6, pc, r1, r8	; <UNPREDICTABLE>
    2648:	00cc0000 	sbceq	r0, ip, r0
    264c:	00040000 	andeq	r0, r4, r0
    2650:	9f5001f3 	svcls	0x005001f3
	...
    2660:	01700000 	cmneq	r0, r0
    2664:	017c0000 	cmneq	ip, r0
    2668:	00010000 	andeq	r0, r1, r0
    266c:	00017c50 	andeq	r7, r1, r0, asr ip
    2670:	00018800 	andeq	r8, r1, r0, lsl #16
    2674:	54000100 	strpl	r0, [r0], #-256	; 0xffffff00
    2678:	00000188 	andeq	r0, r0, r8, lsl #3
    267c:	00000198 	muleq	r0, r8, r1
    2680:	01f30004 	mvnseq	r0, r4
    2684:	00009f50 	andeq	r9, r0, r0, asr pc
	...
    2698:	00000178 	andeq	r0, r0, r8, ror r1
    269c:	0000017c 	andeq	r0, r0, ip, ror r1
    26a0:	0070000b 	rsbseq	r0, r0, fp
    26a4:	b4232535 	strtlt	r2, [r3], #-1333	; 0xfffffacb
    26a8:	02818080 	addeq	r8, r1, #128, 0	; 0x80
    26ac:	00017c9f 	muleq	r1, pc, ip	; <UNPREDICTABLE>
    26b0:	00018000 	andeq	r8, r1, r0
    26b4:	74000b00 	strvc	r0, [r0], #-2816	; 0xfffff500
    26b8:	23253500 			; <UNDEFINED> instruction: 0x23253500
    26bc:	818080b4 	strhhi	r8, [r0, r4]
    26c0:	01809f02 	orreq	r9, r0, r2, lsl #30
    26c4:	01830000 	orreq	r0, r3, r0
    26c8:	00010000 	andeq	r0, r1, r0
    26cc:	00018350 	andeq	r8, r1, r0, asr r3
    26d0:	00018800 	andeq	r8, r1, r0, lsl #16
    26d4:	74000b00 	strvc	r0, [r0], #-2816	; 0xfffff500
    26d8:	23253500 			; <UNDEFINED> instruction: 0x23253500
    26dc:	818080b4 	strhhi	r8, [r0, r4]
    26e0:	01889f02 	orreq	r9, r8, r2, lsl #30
    26e4:	01980000 	orrseq	r0, r8, r0
    26e8:	000c0000 	andeq	r0, ip, r0
    26ec:	355001f3 	ldrbcc	r0, [r0, #-499]	; 0xfffffe0d
    26f0:	80b42325 	adcshi	r2, r4, r5, lsr #6
    26f4:	9f028180 	svcls	0x00028180
	...
    2700:	00000001 	andeq	r0, r0, r1
    2704:	01780000 	cmneq	r8, r0
    2708:	017c0000 	cmneq	ip, r0
    270c:	00050000 	andeq	r0, r5, r0
    2710:	1a4f0070 	bne	13c28d8 <__bss_end__+0x13b8200>
    2714:	00017c9f 	muleq	r1, pc, ip	; <UNPREDICTABLE>
    2718:	00018800 	andeq	r8, r1, r0, lsl #16
    271c:	74000500 	strvc	r0, [r0], #-1280	; 0xfffffb00
    2720:	9f1a4f00 	svcls	0x001a4f00
    2724:	00000188 	andeq	r0, r0, r8, lsl #3
    2728:	00000198 	muleq	r0, r8, r1
    272c:	00540001 	subseq	r0, r4, r1
	...
    2740:	40000000 	andmi	r0, r0, r0
    2744:	54000001 	strpl	r0, [r0], #-1
    2748:	01000001 	tsteq	r0, r1
    274c:	01545000 	cmpeq	r4, r0
    2750:	01580000 	cmpeq	r8, r0
    2754:	00010000 	andeq	r0, r1, r0
    2758:	00015851 	andeq	r5, r1, r1, asr r8
    275c:	00015c00 	andeq	r5, r1, r0, lsl #24
    2760:	f3000400 	vshl.u8	d0, d0, d0
    2764:	5c9f5001 	ldcpl	0, cr5, [pc], {1}
    2768:	60000001 	andvs	r0, r0, r1
    276c:	01000001 	tsteq	r0, r1
    2770:	01605000 	cmneq	r0, r0
    2774:	01640000 	cmneq	r4, r0
    2778:	00010000 	andeq	r0, r1, r0
    277c:	00016451 	andeq	r6, r1, r1, asr r4
    2780:	00017000 	andeq	r7, r1, r0
    2784:	f3000400 	vshl.u8	d0, d0, d0
    2788:	009f5001 	addseq	r5, pc, r1
	...
    2794:	40000000 	andmi	r0, r0, r0
    2798:	4c000001 	stcmi	0, cr0, [r0], {1}
    279c:	01000001 	tsteq	r0, r1
    27a0:	014c5100 	mrseq	r5, (UNDEF: 92)
    27a4:	01700000 	cmneq	r0, r0
    27a8:	00040000 	andeq	r0, r4, r0
    27ac:	9f5101f3 	svcls	0x005101f3
	...
    27b8:	00000001 	andeq	r0, r0, r1
    27bc:	01500000 	cmpeq	r0, r0
    27c0:	01540000 	cmpeq	r4, r0
    27c4:	00010000 	andeq	r0, r1, r0
    27c8:	00015450 	andeq	r5, r1, r0, asr r4
    27cc:	00015800 	andeq	r5, r1, r0, lsl #16
    27d0:	51000100 	mrspl	r0, (UNDEF: 16)
    27d4:	00000158 	andeq	r0, r0, r8, asr r1
    27d8:	0000015c 	andeq	r0, r0, ip, asr r1
    27dc:	01f30004 	mvnseq	r0, r4
    27e0:	00009f50 	andeq	r9, r0, r0, asr pc
    27e4:	00000000 	andeq	r0, r0, r0
    27e8:	00020000 	andeq	r0, r2, r0
    27ec:	00000000 	andeq	r0, r0, r0
    27f0:	0000015c 	andeq	r0, r0, ip, asr r1
    27f4:	00000160 	andeq	r0, r0, r0, ror #2
    27f8:	60500001 	subsvs	r0, r0, r1
    27fc:	64000001 	strvs	r0, [r0], #-1
    2800:	01000001 	tsteq	r0, r1
    2804:	01645100 	cmneq	r4, r0, lsl #2
    2808:	01700000 	cmneq	r0, r0
    280c:	00040000 	andeq	r0, r4, r0
    2810:	9f5001f3 	svcls	0x005001f3
	...
    2820:	00e80000 	rsceq	r0, r8, r0
    2824:	01080000 	mrseq	r0, (UNDEF: 8)
    2828:	00010000 	andeq	r0, r1, r0
    282c:	00010850 	andeq	r0, r1, r0, asr r8
    2830:	00012800 	andeq	r2, r1, r0, lsl #16
    2834:	54000100 	strpl	r0, [r0], #-256	; 0xffffff00
    2838:	00000128 	andeq	r0, r0, r8, lsr #2
    283c:	00000140 	andeq	r0, r0, r0, asr #2
    2840:	01f30004 	mvnseq	r0, r4
    2844:	00009f50 	andeq	r9, r0, r0, asr pc
    2848:	00000000 	andeq	r0, r0, r0
    284c:	00020000 	andeq	r0, r2, r0
    2850:	00000000 	andeq	r0, r0, r0
    2854:	000000e8 	andeq	r0, r0, r8, ror #1
    2858:	00000108 	andeq	r0, r0, r8, lsl #2
    285c:	08500001 	ldmdaeq	r0, {r0}^
    2860:	28000001 	stmdacs	r0, {r0}
    2864:	01000001 	tsteq	r0, r1
    2868:	01285400 			; <UNDEFINED> instruction: 0x01285400
    286c:	01400000 	mrseq	r0, (UNDEF: 64)
    2870:	00040000 	andeq	r0, r4, r0
    2874:	9f5001f3 	svcls	0x005001f3
	...
    2884:	00f00000 	rscseq	r0, r0, r0
    2888:	01080000 	mrseq	r0, (UNDEF: 8)
    288c:	00010000 	andeq	r0, r1, r0
    2890:	00010850 	andeq	r0, r1, r0, asr r8
    2894:	00012800 	andeq	r2, r1, r0, lsl #16
    2898:	54000100 	strpl	r0, [r0], #-256	; 0xffffff00
    289c:	00000128 	andeq	r0, r0, r8, lsr #2
    28a0:	00000140 	andeq	r0, r0, r0, asr #2
    28a4:	01f30004 	mvnseq	r0, r4
    28a8:	00009f50 	andeq	r9, r0, r0, asr pc
    28ac:	00000000 	andeq	r0, r0, r0
    28b0:	00030000 	andeq	r0, r3, r0
    28b4:	00000000 	andeq	r0, r0, r0
    28b8:	000000f0 	strdeq	r0, [r0], -r0	; <UNPREDICTABLE>
    28bc:	00000108 	andeq	r0, r0, r8, lsl #2
    28c0:	00700007 	rsbseq	r0, r0, r7
    28c4:	1e331d3a 	mrcne	13, 1, r1, cr3, cr10, {1}
    28c8:	0001089f 	muleq	r1, pc, r8	; <UNPREDICTABLE>
    28cc:	00012800 	andeq	r2, r1, r0, lsl #16
    28d0:	74000700 	strvc	r0, [r0], #-1792	; 0xfffff900
    28d4:	331d3a00 	tstcc	sp, #0, 20
    28d8:	01289f1e 			; <UNDEFINED> instruction: 0x01289f1e
    28dc:	01400000 	mrseq	r0, (UNDEF: 64)
    28e0:	00080000 	andeq	r0, r8, r0
    28e4:	3a5001f3 	bcc	14030b8 <__bss_end__+0x13f89e0>
    28e8:	9f1e331d 	svcls	0x001e331d
	...
    28f8:	01100000 	tsteq	r0, r0
    28fc:	01380000 	teqeq	r8, r0
    2900:	00010000 	andeq	r0, r1, r0
    2904:	00013856 	andeq	r3, r1, r6, asr r8
    2908:	00013b00 	andeq	r3, r1, r0, lsl #22
    290c:	50000100 	andpl	r0, r0, r0, lsl #2
    2910:	0000013b 	andeq	r0, r0, fp, lsr r1
    2914:	00000140 	andeq	r0, r0, r0, asr #2
    2918:	01f30026 	mvnseq	r0, r6, lsr #32
    291c:	f72cf750 			; <UNDEFINED> instruction: 0xf72cf750
    2920:	0825f425 	stmdaeq	r5!, {r0, r2, r5, sl, ip, sp, lr, pc}
    2924:	cccccccd 	stclgt	12, cr12, [ip], {205}	; 0xcd
    2928:	00000000 	andeq	r0, r0, r0
    292c:	f720081e 			; <UNDEFINED> instruction: 0xf720081e
    2930:	2cf72525 	cfldr64cs	mvdx2, [r7], #148	; 0x94
    2934:	253300f7 	ldrcs	r0, [r3, #-247]!	; 0xffffff09
    2938:	a0808023 	addge	r8, r0, r3, lsr #32
    293c:	9f243240 	svcls	0x00243240
	...
    2948:	00010100 	andeq	r0, r1, r0, lsl #2
    294c:	00000000 	andeq	r0, r0, r0
    2950:	00000120 	andeq	r0, r0, r0, lsr #2
    2954:	00000120 	andeq	r0, r0, r0, lsr #2
    2958:	20500001 	subscs	r0, r0, r1
    295c:	28000001 	stmdacs	r0, {r0}
    2960:	0d000001 	stceq	0, cr0, [r0, #-4]
    2964:	00743700 	rsbseq	r3, r4, r0, lsl #14
    2968:	1e331d3a 	mrcne	13, 1, r1, cr3, cr10, {1}
    296c:	00702024 	rsbseq	r2, r0, r4, lsr #32
    2970:	01289f1a 			; <UNDEFINED> instruction: 0x01289f1a
    2974:	01300000 	teqeq	r0, r0
    2978:	000e0000 	andeq	r0, lr, r0
    297c:	5001f337 	andpl	pc, r1, r7, lsr r3	; <UNPREDICTABLE>
    2980:	1e331d3a 	mrcne	13, 1, r1, cr3, cr10, {1}
    2984:	00702024 	rsbseq	r2, r0, r4, lsr #32
    2988:	01309f1a 	teqeq	r0, sl, lsl pc
    298c:	013b0000 	teqeq	fp, r0
    2990:	000e0000 	andeq	r0, lr, r0
    2994:	5001f337 	andpl	pc, r1, r7, lsr r3	; <UNPREDICTABLE>
    2998:	1e331d3a 	mrcne	13, 1, r1, cr3, cr10, {1}
    299c:	00732024 	rsbseq	r2, r3, r4, lsr #32
    29a0:	00009f1a 	andeq	r9, r0, sl, lsl pc
	...
    29ac:	00600000 	rsbeq	r0, r0, r0
    29b0:	00900000 	addseq	r0, r0, r0
    29b4:	00010000 	andeq	r0, r1, r0
    29b8:	00009050 	andeq	r9, r0, r0, asr r0
    29bc:	0000b800 	andeq	fp, r0, r0, lsl #16
    29c0:	f3000400 	vshl.u8	d0, d0, d0
    29c4:	009f5001 	addseq	r5, pc, r1
    29c8:	00000000 	andeq	r0, r0, r0
    29cc:	02000000 	andeq	r0, r0, #0, 0
    29d0:	60000000 	andvs	r0, r0, r0
    29d4:	90000000 	andls	r0, r0, r0
    29d8:	01000000 	mrseq	r0, (UNDEF: 0)
    29dc:	00905000 	addseq	r5, r0, r0
    29e0:	00b80000 	adcseq	r0, r8, r0
    29e4:	00040000 	andeq	r0, r4, r0
    29e8:	9f5001f3 	svcls	0x005001f3
	...
    29f8:	00000068 	andeq	r0, r0, r8, rrx
    29fc:	00000090 	muleq	r0, r0, r0
    2a00:	90500001 	subsls	r0, r0, r1
    2a04:	b8000000 	stmdalt	r0, {}	; <UNPREDICTABLE>
    2a08:	04000000 	streq	r0, [r0], #-0
    2a0c:	5001f300 	andpl	pc, r1, r0, lsl #6
    2a10:	0000009f 	muleq	r0, pc, r0	; <UNPREDICTABLE>
	...
    2a1c:	0000a000 	andeq	sl, r0, r0
    2a20:	0000b000 	andeq	fp, r0, r0
    2a24:	54000100 	strpl	r0, [r0], #-256	; 0xffffff00
    2a28:	000000b0 	strheq	r0, [r0], -r0	; <UNPREDICTABLE>
    2a2c:	000000b8 	strheq	r0, [r0], -r8
    2a30:	01f30029 	mvnseq	r0, r9, lsr #32
    2a34:	5001f350 	andpl	pc, r1, r0, asr r3	; <UNPREDICTABLE>
    2a38:	25f72cf7 	ldrbcs	r2, [r7, #3319]!	; 0xcf7
    2a3c:	cd0825f4 	cfstr32gt	mvfx2, [r8, #-976]	; 0xfffffc30
    2a40:	00cccccc 	sbceq	ip, ip, ip, asr #25
    2a44:	1e000000 	cdpne	0, 0, cr0, cr0, cr0, {0}
    2a48:	25f72008 	ldrbcs	r2, [r7, #8]!
    2a4c:	f72cf725 			; <UNDEFINED> instruction: 0xf72cf725
    2a50:	35253300 	strcc	r3, [r5, #-768]!	; 0xfffffd00
    2a54:	1c24311e 	stfnes	f3, [r4], #-120	; 0xffffff88
    2a58:	009f1e33 	addseq	r1, pc, r3, lsr lr	; <UNPREDICTABLE>
    2a5c:	00000000 	andeq	r0, r0, r0
    2a60:	01000000 	mrseq	r0, (UNDEF: 0)
    2a64:	00000000 	andeq	r0, r0, r0
    2a68:	0000a000 	andeq	sl, r0, r0
    2a6c:	0000b000 	andeq	fp, r0, r0
    2a70:	55000100 	strpl	r0, [r0, #-256]	; 0xffffff00
    2a74:	000000b0 	strheq	r0, [r0], -r0	; <UNPREDICTABLE>
    2a78:	000000b3 	strheq	r0, [r0], -r3
    2a7c:	b3500001 	cmplt	r0, #1, 0
    2a80:	b8000000 	stmdalt	r0, {}	; <UNPREDICTABLE>
    2a84:	26000000 	strcs	r0, [r0], -r0
    2a88:	5001f300 	andpl	pc, r1, r0, lsl #6
    2a8c:	25f72cf7 	ldrbcs	r2, [r7, #3319]!	; 0xcf7
    2a90:	cd0825f4 	cfstr32gt	mvfx2, [r8, #-976]	; 0xfffffc30
    2a94:	00cccccc 	sbceq	ip, ip, ip, asr #25
    2a98:	1e000000 	cdpne	0, 0, cr0, cr0, cr0, {0}
    2a9c:	25f72008 	ldrbcs	r2, [r7, #8]!
    2aa0:	f72cf725 			; <UNDEFINED> instruction: 0xf72cf725
    2aa4:	23253300 			; <UNDEFINED> instruction: 0x23253300
    2aa8:	40a08080 	adcmi	r8, r0, r0, lsl #1
    2aac:	009f2432 	addseq	r2, pc, r2, lsr r4	; <UNPREDICTABLE>
    2ab0:	00000000 	andeq	r0, r0, r0
    2ab4:	02000000 	andeq	r0, r0, #0, 0
    2ab8:	01010000 	mrseq	r0, (UNDEF: 1)
    2abc:	a0000000 	andge	r0, r0, r0
    2ac0:	a4000000 	strge	r0, [r0], #-0
    2ac4:	01000000 	mrseq	r0, (UNDEF: 0)
    2ac8:	00a45000 	adceq	r5, r4, r0
    2acc:	00a40000 	adceq	r0, r4, r0
    2ad0:	00010000 	andeq	r0, r1, r0
    2ad4:	0000a453 	andeq	sl, r0, r3, asr r4
    2ad8:	0000a800 	andeq	sl, r0, r0, lsl #16
    2adc:	31000800 	tstcc	r0, r0, lsl #16
    2ae0:	73240074 			; <UNDEFINED> instruction: 0x73240074
    2ae4:	a89f2100 	ldmge	pc, {r8, sp}	; <UNPREDICTABLE>
    2ae8:	b3000000 	movwlt	r0, #0
    2aec:	01000000 	mrseq	r0, (UNDEF: 0)
    2af0:	00005100 	andeq	r5, r0, r0, lsl #2
	...
    2b00:	003c0000 	eorseq	r0, ip, r0
    2b04:	00010000 	andeq	r0, r1, r0
    2b08:	00003c50 	andeq	r3, r0, r0, asr ip
    2b0c:	00006000 	andeq	r6, r0, r0
    2b10:	f3000400 	vshl.u8	d0, d0, d0
    2b14:	009f5001 	addseq	r5, pc, r1
	...
    2b24:	3f000000 	svccc	0x00000000
    2b28:	01000000 	mrseq	r0, (UNDEF: 0)
    2b2c:	003f5100 	eorseq	r5, pc, r0, lsl #2
    2b30:	00600000 	rsbeq	r0, r0, r0
    2b34:	00040000 	andeq	r0, r4, r0
    2b38:	9f5101f3 	svcls	0x005101f3
	...
    2b48:	00000008 	andeq	r0, r0, r8
    2b4c:	0000003f 	andeq	r0, r0, pc, lsr r0
    2b50:	3f510001 	svccc	0x00510001
    2b54:	60000000 	andvs	r0, r0, r0
    2b58:	04000000 	streq	r0, [r0], #-0
    2b5c:	5101f300 	mrspl	pc, SP_irq	; <UNPREDICTABLE>
    2b60:	0000009f 	muleq	r0, pc, r0	; <UNPREDICTABLE>
	...
    2b6c:	00000800 	andeq	r0, r0, r0, lsl #16
    2b70:	00003c00 	andeq	r3, r0, r0, lsl #24
    2b74:	50000100 	andpl	r0, r0, r0, lsl #2
    2b78:	0000003c 	andeq	r0, r0, ip, lsr r0
    2b7c:	00000060 	andeq	r0, r0, r0, rrx
    2b80:	01f30004 	mvnseq	r0, r4
    2b84:	00009f50 	andeq	r9, r0, r0, asr pc
	...
    2b90:	00480000 	subeq	r0, r8, r0
    2b94:	00580000 	subseq	r0, r8, r0
    2b98:	00010000 	andeq	r0, r1, r0
    2b9c:	00005854 	andeq	r5, r0, r4, asr r8
    2ba0:	00006000 	andeq	r6, r0, r0
    2ba4:	f3002900 	vmls.i8	d2, d0, d0
    2ba8:	01f35001 	mvnseq	r5, r1
    2bac:	f72cf750 			; <UNDEFINED> instruction: 0xf72cf750
    2bb0:	0825f425 	stmdaeq	r5!, {r0, r2, r5, sl, ip, sp, lr, pc}
    2bb4:	cccccccd 	stclgt	12, cr12, [ip], {205}	; 0xcd
    2bb8:	00000000 	andeq	r0, r0, r0
    2bbc:	f720081e 			; <UNDEFINED> instruction: 0xf720081e
    2bc0:	2cf72525 	cfldr64cs	mvdx2, [r7], #148	; 0x94
    2bc4:	253300f7 	ldrcs	r0, [r3, #-247]!	; 0xffffff09
    2bc8:	24311e35 	ldrtcs	r1, [r1], #-3637	; 0xfffff1cb
    2bcc:	9f1e331c 	svcls	0x001e331c
	...
    2bd8:	00000001 	andeq	r0, r0, r1
    2bdc:	00480000 	subeq	r0, r8, r0
    2be0:	00580000 	subseq	r0, r8, r0
    2be4:	00010000 	andeq	r0, r1, r0
    2be8:	00005856 	andeq	r5, r0, r6, asr r8
    2bec:	00005b00 	andeq	r5, r0, r0, lsl #22
    2bf0:	50000100 	andpl	r0, r0, r0, lsl #2
    2bf4:	0000005b 	andeq	r0, r0, fp, asr r0
    2bf8:	00000060 	andeq	r0, r0, r0, rrx
    2bfc:	01f30026 	mvnseq	r0, r6, lsr #32
    2c00:	f72cf750 			; <UNDEFINED> instruction: 0xf72cf750
    2c04:	0825f425 	stmdaeq	r5!, {r0, r2, r5, sl, ip, sp, lr, pc}
    2c08:	cccccccd 	stclgt	12, cr12, [ip], {205}	; 0xcd
    2c0c:	00000000 	andeq	r0, r0, r0
    2c10:	f720081e 			; <UNDEFINED> instruction: 0xf720081e
    2c14:	2cf72525 	cfldr64cs	mvdx2, [r7], #148	; 0x94
    2c18:	253300f7 	ldrcs	r0, [r3, #-247]!	; 0xffffff09
    2c1c:	a0808023 	addge	r8, r0, r3, lsr #32
    2c20:	9f243240 	svcls	0x00243240
	...
    2c2c:	01000002 	tsteq	r0, r2
    2c30:	00000001 	andeq	r0, r0, r1
    2c34:	00000048 	andeq	r0, r0, r8, asr #32
    2c38:	0000004c 	andeq	r0, r0, ip, asr #32
    2c3c:	4c500001 	mrrcmi	0, 0, r0, r0, cr1	; <UNPREDICTABLE>
    2c40:	4c000000 	stcmi	0, cr0, [r0], {-0}
    2c44:	01000000 	mrseq	r0, (UNDEF: 0)
    2c48:	004c5100 	subeq	r5, ip, r0, lsl #2
    2c4c:	00500000 	subseq	r0, r0, r0
    2c50:	000c0000 	andeq	r0, ip, r0
    2c54:	ff080075 			; <UNDEFINED> instruction: 0xff080075
    2c58:	2400741a 	strcs	r7, [r0], #-1050	; 0xfffffbe6
    2c5c:	9f210071 	svcls	0x00210071
    2c60:	00000050 	andeq	r0, r0, r0, asr r0
    2c64:	00000054 	andeq	r0, r0, r4, asr r0
    2c68:	74370012 	ldrtvc	r0, [r7], #-18	; 0xffffffee
    2c6c:	70202400 	eorvc	r2, r0, r0, lsl #8
    2c70:	00751a00 	rsbseq	r1, r5, r0, lsl #20
    2c74:	741aff08 	ldrvc	pc, [sl], #-3848	; 0xfffff0f8
    2c78:	9f212400 	svcls	0x00212400
	...
    2c88:	00b80000 	adcseq	r0, r8, r0
    2c8c:	00c40000 	sbceq	r0, r4, r0
    2c90:	00010000 	andeq	r0, r1, r0
    2c94:	0000c450 	andeq	ip, r0, r0, asr r4
    2c98:	0000cb00 	andeq	ip, r0, r0, lsl #22
    2c9c:	53000100 	movwpl	r0, #256	; 0x100
    2ca0:	000000cb 	andeq	r0, r0, fp, asr #1
    2ca4:	000000d0 	ldrdeq	r0, [r0], -r0	; <UNPREDICTABLE>
    2ca8:	01f30004 	mvnseq	r0, r4
    2cac:	00009f50 	andeq	r9, r0, r0, asr pc
	...
    2cbc:	000000d0 	ldrdeq	r0, [r0], -r0	; <UNPREDICTABLE>
    2cc0:	000000dc 	ldrdeq	r0, [r0], -ip
    2cc4:	dc500001 	mrrcle	0, 0, r0, r0, cr1	; <UNPREDICTABLE>
    2cc8:	e3000000 	movw	r0, #0
    2ccc:	01000000 	mrseq	r0, (UNDEF: 0)
    2cd0:	00e35300 	rsceq	r5, r3, r0, lsl #6
    2cd4:	00e80000 	rsceq	r0, r8, r0
    2cd8:	00040000 	andeq	r0, r4, r0
    2cdc:	9f5001f3 	svcls	0x005001f3
	...
    2cf0:	0000000b 	andeq	r0, r0, fp
    2cf4:	0b500001 	bleq	1402d00 <__bss_end__+0x13f8628>
    2cf8:	14000000 	strne	r0, [r0], #-0
    2cfc:	01000000 	mrseq	r0, (UNDEF: 0)
    2d00:	00005400 	andeq	r5, r0, r0, lsl #8
	...
    2d10:	00180000 	andseq	r0, r8, r0
    2d14:	00010000 	andeq	r0, r1, r0
    2d18:	00001851 	andeq	r1, r0, r1, asr r8
    2d1c:	00002c00 	andeq	r2, r0, r0, lsl #24
    2d20:	f3000400 	vshl.u8	d0, d0, d0
    2d24:	009f5101 	addseq	r5, pc, r1, lsl #2
    2d28:	00000000 	andeq	r0, r0, r0
    2d2c:	02000000 	andeq	r0, r0, #0, 0
	...
    2d38:	00000101 	andeq	r0, r0, r1, lsl #2
    2d3c:	00000000 	andeq	r0, r0, r0
    2d40:	00000400 	andeq	r0, r0, r0, lsl #8
    2d44:	50000100 	andpl	r0, r0, r0, lsl #2
    2d48:	00000004 	andeq	r0, r0, r4
    2d4c:	00000008 	andeq	r0, r0, r8
    2d50:	08520001 	ldmdaeq	r2, {r0}^
    2d54:	0c000000 	stceq	0, cr0, [r0], {-0}
    2d58:	03000000 	movweq	r0, #0
    2d5c:	9f017200 	svcls	0x00017200
    2d60:	0000000c 	andeq	r0, r0, ip
    2d64:	00000018 	andeq	r0, r0, r8, lsl r0
    2d68:	18520001 	ldmdane	r2, {r0}^
    2d6c:	1c000000 	stcne	0, cr0, [r0], {-0}
    2d70:	01000000 	mrseq	r0, (UNDEF: 0)
    2d74:	001c5300 	andseq	r5, ip, r0, lsl #6
    2d78:	00240000 	eoreq	r0, r4, r0
    2d7c:	00030000 	andeq	r0, r3, r0
    2d80:	249f0173 	ldrcs	r0, [pc], #371	; 2d88 <__code_start__-0x5278>
    2d84:	2c000000 	stccs	0, cr0, [r0], {-0}
    2d88:	01000000 	mrseq	r0, (UNDEF: 0)
    2d8c:	00005300 	andeq	r5, r0, r0, lsl #6
    2d90:	00000000 	andeq	r0, r0, r0
    2d94:	02030000 	andeq	r0, r3, #0, 0
    2d98:	00000002 	andeq	r0, r0, r2
    2d9c:	00000000 	andeq	r0, r0, r0
    2da0:	00000018 	andeq	r0, r0, r8, lsl r0
    2da4:	18510001 	ldmdane	r1, {r0}^
    2da8:	1c000000 	stcne	0, cr0, [r0], {-0}
    2dac:	03000000 	movweq	r0, #0
    2db0:	9f017100 	svcls	0x00017100
    2db4:	0000001c 	andeq	r0, r0, ip, lsl r0
    2db8:	0000002c 	andeq	r0, r0, ip, lsr #32
    2dbc:	00510001 	subseq	r0, r1, r1
	...
    2dcc:	00000800 	andeq	r0, r0, r0, lsl #16
    2dd0:	00000c00 	andeq	r0, r0, r0, lsl #24
    2dd4:	72000200 	andvc	r0, r0, #0, 4
    2dd8:	00000c00 	andeq	r0, r0, r0, lsl #24
    2ddc:	00001800 	andeq	r1, r0, r0, lsl #16
    2de0:	73000200 	movwvc	r0, #512	; 0x200
    2de4:	00001c00 	andeq	r1, r0, r0, lsl #24
    2de8:	00002c00 	andeq	r2, r0, r0, lsl #24
    2dec:	52000100 	andpl	r0, r0, #0
	...
    2e08:	00000014 	andeq	r0, r0, r4, lsl r0
    2e0c:	14500001 	ldrbne	r0, [r0], #-1
    2e10:	18000000 	stmdane	r0, {}	; <UNPREDICTABLE>
    2e14:	03000000 	movweq	r0, #0
    2e18:	9f017000 	svcls	0x00017000
    2e1c:	00000018 	andeq	r0, r0, r8, lsl r0
    2e20:	00000020 	andeq	r0, r0, r0, lsr #32
    2e24:	24500001 	ldrbcs	r0, [r0], #-1
    2e28:	28000000 	stmdacs	r0, {}	; <UNPREDICTABLE>
    2e2c:	01000000 	mrseq	r0, (UNDEF: 0)
    2e30:	00285000 	eoreq	r5, r8, r0
    2e34:	00300000 	eorseq	r0, r0, r0
    2e38:	00030000 	andeq	r0, r3, r0
    2e3c:	389f0170 	ldmcc	pc, {r4, r5, r6, r8}	; <UNPREDICTABLE>
    2e40:	40000000 	andmi	r0, r0, r0
    2e44:	01000000 	mrseq	r0, (UNDEF: 0)
    2e48:	00005000 	andeq	r5, r0, r0
	...
    2e5c:	00000024 	andeq	r0, r0, r4, lsr #32
    2e60:	24510001 	ldrbcs	r0, [r1], #-1
    2e64:	28000000 	stmdacs	r0, {}	; <UNPREDICTABLE>
    2e68:	01000000 	mrseq	r0, (UNDEF: 0)
    2e6c:	00285c00 	eoreq	r5, r8, r0, lsl #24
    2e70:	00440000 	subeq	r0, r4, r0
    2e74:	00010000 	andeq	r0, r1, r0
    2e78:	00000051 	andeq	r0, r0, r1, asr r0
    2e7c:	00000000 	andeq	r0, r0, r0
    2e80:	02020000 	andeq	r0, r2, #0, 0
    2e84:	00000000 	andeq	r0, r0, r0
    2e88:	04000000 	streq	r0, [r0], #-0
    2e8c:	01000000 	mrseq	r0, (UNDEF: 0)
    2e90:	00045100 	andeq	r5, r4, r0, lsl #2
    2e94:	00080000 	andeq	r0, r8, r0
    2e98:	00030000 	andeq	r0, r3, r0
    2e9c:	089f0171 	ldmeq	pc, {r0, r4, r5, r6, r8}	; <UNPREDICTABLE>
    2ea0:	18000000 	stmdane	r0, {}	; <UNPREDICTABLE>
    2ea4:	01000000 	mrseq	r0, (UNDEF: 0)
    2ea8:	00005100 	andeq	r5, r0, r0, lsl #2
    2eac:	00000000 	andeq	r0, r0, r0
    2eb0:	00020000 	andeq	r0, r2, r0
    2eb4:	00000000 	andeq	r0, r0, r0
    2eb8:	00000004 	andeq	r0, r0, r4
    2ebc:	00500001 	subseq	r0, r0, r1
	...
    2ecc:	08000000 	stmdaeq	r0, {}	; <UNPREDICTABLE>
    2ed0:	01000000 	mrseq	r0, (UNDEF: 0)
    2ed4:	00085000 	andeq	r5, r8, r0
    2ed8:	00300000 	eorseq	r0, r0, r0
    2edc:	00040000 	andeq	r0, r4, r0
    2ee0:	9f5001f3 	svcls	0x005001f3
	...
    2ef4:	00000008 	andeq	r0, r0, r8
    2ef8:	08510001 	ldmdaeq	r1, {r0}^
    2efc:	30000000 	andcc	r0, r0, r0
    2f00:	04000000 	streq	r0, [r0], #-0
    2f04:	5101f300 	mrspl	pc, SP_irq	; <UNPREDICTABLE>
    2f08:	0000009f 	muleq	r0, pc, r0	; <UNPREDICTABLE>
	...
    2f14:	01000000 	mrseq	r0, (UNDEF: 0)
    2f18:	00000202 	andeq	r0, r0, r2, lsl #4
    2f1c:	04000000 	streq	r0, [r0], #-0
    2f20:	01000000 	mrseq	r0, (UNDEF: 0)
    2f24:	00045200 	andeq	r5, r4, r0, lsl #4
    2f28:	00080000 	andeq	r0, r8, r0
    2f2c:	00040000 	andeq	r0, r4, r0
    2f30:	9f5201f3 	svcls	0x005201f3
    2f34:	00000008 	andeq	r0, r0, r8
    2f38:	00000018 	andeq	r0, r0, r8, lsl r0
    2f3c:	01f30006 	mvnseq	r0, r6
    2f40:	9f1c3152 	svcls	0x001c3152
    2f44:	00000018 	andeq	r0, r0, r8, lsl r0
    2f48:	00000018 	andeq	r0, r0, r8, lsl r0
    2f4c:	01f30004 	mvnseq	r0, r4
    2f50:	00189f52 	andseq	r9, r8, r2, asr pc
    2f54:	00300000 	eorseq	r0, r0, r0
    2f58:	00060000 	andeq	r0, r6, r0
    2f5c:	315201f3 	ldrshcc	r0, [r2, #-19]	; 0xffffffed
    2f60:	00009f1c 	andeq	r9, r0, ip, lsl pc
    2f64:	00000000 	andeq	r0, r0, r0
    2f68:	00020000 	andeq	r0, r2, r0
    2f6c:	00010000 	andeq	r0, r1, r0
    2f70:	00000000 	andeq	r0, r0, r0
    2f74:	000c0000 	andeq	r0, ip, r0
    2f78:	00010000 	andeq	r0, r1, r0
    2f7c:	00000c50 	andeq	r0, r0, r0, asr ip
    2f80:	00001800 	andeq	r1, r0, r0, lsl #16
    2f84:	70000300 	andvc	r0, r0, r0, lsl #6
    2f88:	00189f7f 	andseq	r9, r8, pc, ror pc
    2f8c:	00240000 	eoreq	r0, r4, r0
    2f90:	00010000 	andeq	r0, r1, r0
    2f94:	00002850 	andeq	r2, r0, r0, asr r8
    2f98:	00002c00 	andeq	r2, r0, r0, lsl #24
    2f9c:	70000300 	andvc	r0, r0, r0, lsl #6
    2fa0:	00009f7f 	andeq	r9, r0, pc, ror pc
    2fa4:	00000000 	andeq	r0, r0, r0
    2fa8:	00020000 	andeq	r0, r2, r0
	...
    2fb4:	0000000c 	andeq	r0, r0, ip
    2fb8:	0c510001 	mrrceq	0, 0, r0, r1, cr1
    2fbc:	10000000 	andne	r0, r0, r0
    2fc0:	03000000 	movweq	r0, #0
    2fc4:	9f017100 	svcls	0x00017100
    2fc8:	00000010 	andeq	r0, r0, r0, lsl r0
    2fcc:	00000030 	andeq	r0, r0, r0, lsr r0
    2fd0:	00510001 	subseq	r0, r1, r1
    2fd4:	00000000 	andeq	r0, r0, r0
    2fd8:	Address 0x0000000000002fd8 is out of bounds.


Disassembly of section .debug_aranges:

00000000 <.debug_aranges>:
   0:	0000001c 	andeq	r0, r0, ip, lsl r0
   4:	00000002 	andeq	r0, r0, r2
   8:	00040000 	andeq	r0, r4, r0
   c:	00000000 	andeq	r0, r0, r0
  10:	00008038 	andeq	r8, r0, r8, lsr r0
  14:	000000f4 	strdeq	r0, [r0], -r4
	...
  20:	0000001c 	andeq	r0, r0, ip, lsl r0
  24:	03a20002 			; <UNDEFINED> instruction: 0x03a20002
  28:	00040000 	andeq	r0, r4, r0
  2c:	00000000 	andeq	r0, r0, r0
  30:	0000812c 	andeq	r8, r0, ip, lsr #2
  34:	000002f4 	strdeq	r0, [r0], -r4
	...
  40:	0000001c 	andeq	r0, r0, ip, lsl r0
  44:	0ad90002 	beq	ff640054 <__bss_end__+0xff63597c>
  48:	00040000 	andeq	r0, r4, r0
  4c:	00000000 	andeq	r0, r0, r0
  50:	00008420 	andeq	r8, r0, r0, lsr #8
  54:	000001ac 	andeq	r0, r0, ip, lsr #3
	...
  60:	0000001c 	andeq	r0, r0, ip, lsl r0
  64:	0d9f0002 	ldceq	0, cr0, [pc, #8]	; 74 <__code_start__-0x7f8c>
  68:	00040000 	andeq	r0, r4, r0
  6c:	00000000 	andeq	r0, r0, r0
  70:	000085cc 	andeq	r8, r0, ip, asr #11
  74:	00000154 	andeq	r0, r0, r4, asr r1
	...
  80:	0000001c 	andeq	r0, r0, ip, lsl r0
  84:	14090002 	strne	r0, [r9], #-2
  88:	00040000 	andeq	r0, r4, r0
  8c:	00000000 	andeq	r0, r0, r0
  90:	00008728 	andeq	r8, r0, r8, lsr #14
  94:	00000078 	andeq	r0, r0, r8, ror r0
	...
  a0:	0000001c 	andeq	r0, r0, ip, lsl r0
  a4:	154d0002 	strbne	r0, [sp, #-2]
  a8:	00040000 	andeq	r0, r4, r0
  ac:	00000000 	andeq	r0, r0, r0
  b0:	000087a0 	andeq	r8, r0, r0, lsr #15
  b4:	00000058 	andeq	r0, r0, r8, asr r0
	...
  c0:	0000001c 	andeq	r0, r0, ip, lsl r0
  c4:	16ee0002 	strbtne	r0, [lr], r2
  c8:	00040000 	andeq	r0, r4, r0
  cc:	00000000 	andeq	r0, r0, r0
  d0:	000087f8 	strdeq	r8, [r0], -r8	; <UNPREDICTABLE>
  d4:	00000038 	andeq	r0, r0, r8, lsr r0
	...
  e0:	0000001c 	andeq	r0, r0, ip, lsl r0
  e4:	17e50002 	strbne	r0, [r5, r2]!
  e8:	00040000 	andeq	r0, r4, r0
  ec:	00000000 	andeq	r0, r0, r0
  f0:	00008830 	andeq	r8, r0, r0, lsr r8
  f4:	000009b4 			; <UNDEFINED> instruction: 0x000009b4
	...
 100:	0000001c 	andeq	r0, r0, ip, lsl r0
 104:	24680002 	strbtcs	r0, [r8], #-2
 108:	00040000 	andeq	r0, r4, r0
 10c:	00000000 	andeq	r0, r0, r0
 110:	000091e4 	andeq	r9, r0, r4, ror #3
 114:	0000002c 	andeq	r0, r0, ip, lsr #32
	...
 120:	0000001c 	andeq	r0, r0, ip, lsl r0
 124:	259b0002 	ldrcs	r0, [fp, #2]
 128:	00040000 	andeq	r0, r4, r0
 12c:	00000000 	andeq	r0, r0, r0
 130:	00009210 	andeq	r9, r0, r0, lsl r2
 134:	000000f8 	strdeq	r0, [r0], -r8
	...
 140:	0000001c 	andeq	r0, r0, ip, lsl r0
 144:	272f0002 	strcs	r0, [pc, -r2]!
 148:	00040000 	andeq	r0, r4, r0
 14c:	00000000 	andeq	r0, r0, r0
 150:	00009308 	andeq	r9, r0, r8, lsl #6
 154:	00000004 	andeq	r0, r0, r4
	...
 160:	0000001c 	andeq	r0, r0, ip, lsl r0
 164:	28010002 	stmdacs	r1, {r1}
 168:	00040000 	andeq	r0, r4, r0
 16c:	00000000 	andeq	r0, r0, r0
 170:	0000930c 	andeq	r9, r0, ip, lsl #6
 174:	0000008c 	andeq	r0, r0, ip, lsl #1
	...
 180:	0000001c 	andeq	r0, r0, ip, lsl r0
 184:	2a820002 	bcs	fe080194 <__bss_end__+0xfe075abc>
 188:	00040000 	andeq	r0, r4, r0
 18c:	00000000 	andeq	r0, r0, r0
 190:	00009398 	muleq	r0, r8, r3
 194:	0000011c 	andeq	r0, r0, ip, lsl r1
	...
 1a0:	0000001c 	andeq	r0, r0, ip, lsl r0
 1a4:	2fc50002 	svccs	0x00c50002
 1a8:	00040000 	andeq	r0, r4, r0
 1ac:	00000000 	andeq	r0, r0, r0
 1b0:	000094b4 			; <UNDEFINED> instruction: 0x000094b4
 1b4:	000001f0 	strdeq	r0, [r0], -r0	; <UNPREDICTABLE>
	...
 1c0:	0000001c 	andeq	r0, r0, ip, lsl r0
 1c4:	35960002 	ldrcc	r0, [r6, #2]
 1c8:	00040000 	andeq	r0, r4, r0
 1cc:	00000000 	andeq	r0, r0, r0
 1d0:	000096a4 	andeq	r9, r0, r4, lsr #13
 1d4:	000003b0 			; <UNDEFINED> instruction: 0x000003b0
	...
 1e0:	0000001c 	andeq	r0, r0, ip, lsl r0
 1e4:	3e830002 	cdpcc	0, 8, cr0, cr3, cr2, {0}
 1e8:	00040000 	andeq	r0, r4, r0
 1ec:	00000000 	andeq	r0, r0, r0
 1f0:	00009a54 	andeq	r9, r0, r4, asr sl
 1f4:	00000198 	muleq	r0, r8, r1
	...
 200:	0000001c 	andeq	r0, r0, ip, lsl r0
 204:	44fa0002 	ldrbtmi	r0, [sl], #2
 208:	00040000 	andeq	r0, r4, r0
 20c:	00000000 	andeq	r0, r0, r0
 210:	00009bec 	andeq	r9, r0, ip, ror #23
 214:	0000003c 	andeq	r0, r0, ip, lsr r0
	...
 220:	0000001c 	andeq	r0, r0, ip, lsl r0
 224:	46470002 	strbmi	r0, [r7], -r2
 228:	00040000 	andeq	r0, r4, r0
 22c:	00000000 	andeq	r0, r0, r0
 230:	00009c28 	andeq	r9, r0, r8, lsr #24
 234:	0000002c 	andeq	r0, r0, ip, lsr #32
	...
 240:	0000001c 	andeq	r0, r0, ip, lsl r0
 244:	47820002 	strmi	r0, [r2, r2]
 248:	00040000 	andeq	r0, r4, r0
 24c:	00000000 	andeq	r0, r0, r0
 250:	00009c54 	andeq	r9, r0, r4, asr ip
 254:	00000044 	andeq	r0, r0, r4, asr #32
	...
 260:	0000001c 	andeq	r0, r0, ip, lsl r0
 264:	487d0002 	ldmdami	sp!, {r1}^
 268:	00040000 	andeq	r0, r4, r0
 26c:	00000000 	andeq	r0, r0, r0
 270:	00009c98 	muleq	r0, r8, ip
 274:	00000018 	andeq	r0, r0, r8, lsl r0
	...
 280:	0000001c 	andeq	r0, r0, ip, lsl r0
 284:	49900002 	ldmibmi	r0, {r1}
 288:	00040000 	andeq	r0, r4, r0
 28c:	00000000 	andeq	r0, r0, r0
 290:	00009cb0 			; <UNDEFINED> instruction: 0x00009cb0
 294:	00000030 	andeq	r0, r0, r0, lsr r0
	...
 2a0:	0000001c 	andeq	r0, r0, ip, lsl r0
 2a4:	4ae20002 	bmi	ff8802b4 <__bss_end__+0xff875bdc>
 2a8:	00040000 	andeq	r0, r4, r0
 2ac:	00000000 	andeq	r0, r0, r0
 2b0:	00009ce0 	andeq	r9, r0, r0, ror #25
 2b4:	00000004 	andeq	r0, r0, r4
	...

Disassembly of section .debug_line:

00000000 <.debug_line>:
       0:	000000f0 	strdeq	r0, [r0], -r0	; <UNPREDICTABLE>
       4:	00790003 	rsbseq	r0, r9, r3
       8:	01020000 	mrseq	r0, (UNDEF: 2)
       c:	000d0efb 	strdeq	r0, [sp], -fp
      10:	01010101 	tsteq	r1, r1, lsl #2
      14:	01000000 	mrseq	r0, (UNDEF: 0)
      18:	74010000 	strvc	r0, [r1], #-0
      1c:	73747365 	cmnvc	r4, #-1811939327	; 0x94000001
      20:	2f002e00 	svccs	0x00002e00
      24:	72657355 	rsbvc	r7, r5, #1409286145	; 0x54000001
      28:	696d2f73 	stmdbvs	sp!, {r0, r1, r4, r5, r6, r8, r9, sl, fp, sp}^
      2c:	2f73656c 	svccs	0x0073656c
      30:	72756f53 	rsbsvc	r6, r5, #332	; 0x14c
      34:	632f6563 			; <UNDEFINED> instruction: 0x632f6563
      38:	30343273 	eorscc	r3, r4, r3, ror r2
      3c:	6c2f786c 	stcvs	8, cr7, [pc], #-432	; fffffe94 <__bss_end__+0xffff57bc>
      40:	69706269 	ldmdbvs	r0!, {r0, r3, r5, r6, r9, sp, lr}^
      44:	636e692f 	cmnvs	lr, #770048	; 0xbc000
      48:	6564756c 	strbvs	r7, [r4, #-1388]!	; 0xfffffa94
      4c:	61700000 	cmnvs	r0, r0
      50:	2d327472 	cfldrscs	mvf7, [r2, #-456]!	; 0xfffffe38
      54:	74736574 	ldrbtvc	r6, [r3], #-1396	; 0xfffffa8c
      58:	00632e31 	rsbeq	r2, r3, r1, lsr lr
      5c:	73000001 	movwvc	r0, #1
      60:	6c2d6372 	stcvs	3, cr6, [sp], #-456	; 0xfffffe38
      64:	682e636f 	stmdavs	lr!, {r0, r1, r2, r3, r5, r6, r8, r9, sp, lr}
      68:	00000200 	andeq	r0, r0, r0, lsl #4
      6c:	2e697072 	mcrcs	0, 3, r7, cr9, cr2, {3}
      70:	00030068 	andeq	r0, r3, r8, rrx
      74:	616b6300 	cmnvs	fp, r0, lsl #6
      78:	636f6c6c 	cmnvs	pc, #108, 24	; 0x6c00
      7c:	0200682e 	andeq	r6, r0, #3014656	; 0x2e0000
      80:	05000000 	streq	r0, [r0, #-0]
      84:	02050012 	andeq	r0, r5, #18, 0
      88:	00008038 	andeq	r8, r0, r8, lsr r0
      8c:	4b050519 	blmi	1414f8 <__bss_end__+0x136e20>
      90:	0b050204 	bleq	1408a8 <__bss_end__+0x1361d0>
      94:	13050515 	movwne	r0, #21781	; 0x5515
      98:	01060c05 	tsteq	r6, r5, lsl #24
      9c:	050104ba 	streq	r0, [r1, #-1210]	; 0xfffffb46
      a0:	05050e0f 	streq	r0, [r5, #-3599]	; 0xfffff1f1
      a4:	06019f06 	streq	r9, [r1], -r6, lsl #30
      a8:	662e062e 	strtvs	r0, [lr], -lr, lsr #12
      ac:	02048313 	andeq	r8, r4, #1275068416	; 0x4c000000
      b0:	05010b05 	streq	r0, [r1, #-2821]	; 0xfffff4fb
      b4:	0c051305 	stceq	3, cr1, [r5], {5}
      b8:	04820106 	streq	r0, [r2], #262	; 0x106
      bc:	11050501 	tstne	r5, r1, lsl #10
      c0:	4a830105 	bmi	fe0c04dc <__bss_end__+0xfe0b5e04>
      c4:	00061405 	andeq	r1, r6, r5, lsl #8
      c8:	80c80205 	sbchi	r0, r8, r5, lsl #4
      cc:	05140000 	ldreq	r0, [r4, #-0]
      d0:	034f2f05 	movteq	r2, #65285	; 0xff05
      d4:	08052e09 	stmdaeq	r5, {r0, r3, r9, sl, fp, sp}
      d8:	07050106 	streq	r0, [r5, -r6, lsl #2]
      dc:	0609054a 	streq	r0, [r9], -sl, asr #10
      e0:	4a01144b 	bmi	45214 <__bss_end__+0x3ab3c>
      e4:	0601054a 	streq	r0, [r1], -sl, asr #10
      e8:	06090513 			; <UNDEFINED> instruction: 0x06090513
      ec:	029e012b 	addseq	r0, lr, #-1073741814	; 0xc000000a
      f0:	0101000e 	tsteq	r1, lr
      f4:	000002f0 	strdeq	r0, [r0], -r0	; <UNPREDICTABLE>
      f8:	00e50003 	rsceq	r0, r5, r3
      fc:	01020000 	mrseq	r0, (UNDEF: 2)
     100:	000d0efb 	strdeq	r0, [sp], -fp
     104:	01010101 	tsteq	r1, r1, lsl #2
     108:	01000000 	mrseq	r0, (UNDEF: 0)
     10c:	2f010000 	svccs	0x00010000
     110:	2f74706f 	svccs	0x0074706f
     114:	656d6f68 	strbvs	r6, [sp, #-3944]!	; 0xfffff098
     118:	77657262 	strbvc	r7, [r5, -r2, ror #4]!
     11c:	6c65432f 	stclvs	3, cr4, [r5], #-188	; 0xffffff44
     120:	2f72616c 	svccs	0x0072616c
     124:	2d6d7261 	sfmcs	f7, 2, [sp, #-388]!	; 0xfffffe7c
     128:	656e6f6e 	strbvs	r6, [lr, #-3950]!	; 0xfffff092
     12c:	6261652d 	rsbvs	r6, r1, #188743680	; 0xb400000
     130:	2f392d69 	svccs	0x00392d69
     134:	30322d39 	eorscc	r2, r2, r9, lsr sp
     138:	34713931 	ldrbtcc	r3, [r1], #-2353	; 0xfffff6cf
     13c:	3173632d 	cmncc	r3, sp, lsr #6
     140:	2f653730 	svccs	0x00653730
     144:	2f62696c 	svccs	0x0062696c
     148:	2f636367 	svccs	0x00636367
     14c:	2d6d7261 	sfmcs	f7, 2, [sp, #-388]!	; 0xfffffe7c
     150:	656e6f6e 	strbvs	r6, [lr, #-3950]!	; 0xfffff092
     154:	6261652d 	rsbvs	r6, r1, #188743680	; 0xb400000
     158:	2e392f69 	cdpcs	15, 3, cr2, cr9, cr9, {3}
     15c:	2f312e32 	svccs	0x00312e32
     160:	6c636e69 	stclvs	14, cr6, [r3], #-420	; 0xfffffe5c
     164:	00656475 	rsbeq	r6, r5, r5, ror r4
     168:	6573552f 	ldrbvs	r5, [r3, #-1327]!	; 0xfffffad1
     16c:	6d2f7372 	stcvs	3, cr7, [pc, #-456]!	; ffffffac <__bss_end__+0xffff58d4>
     170:	73656c69 	cmnvc	r5, #26880	; 0x6900
     174:	756f532f 	strbvc	r5, [pc, #-815]!	; fffffe4d <__bss_end__+0xffff5775>
     178:	2f656372 	svccs	0x00656372
     17c:	34327363 	ldrtcc	r7, [r2], #-867	; 0xfffffc9d
     180:	2f786c30 	svccs	0x00786c30
     184:	7062696c 	rsbvc	r6, r2, ip, ror #18
     188:	6e692f69 	cdpvs	15, 6, cr2, cr9, cr9, {3}
     18c:	64756c63 	ldrbtvs	r6, [r5], #-3171	; 0xfffff39d
     190:	63000065 	movwvs	r0, #101	; 0x65
     194:	6c6c616b 	stfvse	f6, [ip], #-428	; 0xfffffe54
     198:	632e636f 			; <UNDEFINED> instruction: 0x632e636f
     19c:	00000000 	andeq	r0, r0, r0
     1a0:	6c616b63 			; <UNDEFINED> instruction: 0x6c616b63
     1a4:	2e636f6c 	cdpcs	15, 6, cr6, cr3, cr12, {3}
     1a8:	00000068 	andeq	r0, r0, r8, rrx
     1ac:	64747300 	ldrbtvs	r7, [r4], #-768	; 0xfffffd00
     1b0:	2d746e69 	ldclcs	14, cr6, [r4, #-420]!	; 0xfffffe5c
     1b4:	2e636367 	cdpcs	3, 6, cr6, cr3, cr7, {3}
     1b8:	00010068 	andeq	r0, r1, r8, rrx
     1bc:	69707200 	ldmdbvs	r0!, {r9, ip, sp, lr}^
     1c0:	0200682e 	andeq	r6, r0, #3014656	; 0x2e0000
     1c4:	72730000 	rsbsvc	r0, r3, #0, 0
     1c8:	6f6c2d63 	svcvs	0x006c2d63
     1cc:	00682e63 	rsbeq	r2, r8, r3, ror #28
     1d0:	6b000000 	blvs	1d8 <__code_start__-0x7e28>
     1d4:	616d2d72 	smcvs	53970	; 0xd2d2
     1d8:	636f6c6c 	cmnvs	pc, #108, 24	; 0x6c00
     1dc:	0000682e 	andeq	r6, r0, lr, lsr #16
     1e0:	05000000 	streq	r0, [r0, #-0]
     1e4:	02050001 	andeq	r0, r5, #1, 0
     1e8:	0000812c 	andeq	r8, r0, ip, lsr #2
     1ec:	05010b03 	streq	r0, [r1, #-2819]	; 0xfffff4fd
     1f0:	01051305 	tsteq	r5, r5, lsl #6
     1f4:	86061306 	strhi	r1, [r6], -r6, lsl #6
     1f8:	05130505 	ldreq	r0, [r3, #-1285]	; 0xfffffafb
     1fc:	2e010608 	cfmadd32cs	mvax0, mvfx0, mvfx1, mvfx8
     200:	2f060905 	svccs	0x00060905
     204:	01061105 	tsteq	r6, r5, lsl #2
     208:	06300105 	ldrteq	r0, [r0], -r5, lsl #2
     20c:	062e2303 	strteq	r2, [lr], -r3, lsl #6
     210:	06050501 	streq	r0, [r5], -r1, lsl #10
     214:	0200014b 	andeq	r0, r0, #-1073741806	; 0xc0000012
     218:	00660204 	rsbeq	r0, r6, r4, lsl #4
     21c:	01020402 	tsteq	r2, r2, lsl #8
     220:	02040200 	andeq	r0, r4, #0, 4
     224:	000c0513 	andeq	r0, ip, r3, lsl r5
     228:	06020402 	streq	r0, [r2], -r2, lsl #8
     22c:	00050501 	andeq	r0, r5, r1, lsl #10
     230:	06020402 	streq	r0, [r2], -r2, lsl #8
     234:	00080530 	andeq	r0, r8, r0, lsr r5
     238:	06020402 	streq	r0, [r2], -r2, lsl #8
     23c:	060b0501 	streq	r0, [fp], -r1, lsl #10
     240:	06110551 			; <UNDEFINED> instruction: 0x06110551
     244:	2e0b052e 	cfsh32cs	mvfx0, mvfx11, #30
     248:	0609052e 	streq	r0, [r9], -lr, lsr #10
     24c:	060c0530 			; <UNDEFINED> instruction: 0x060c0530
     250:	060d0501 	streq	r0, [sp], -r1, lsl #10
     254:	061b054c 	ldreq	r0, [fp], -ip, asr #10
     258:	2e180501 	cfmul32cs	mvfx0, mvfx8, mvfx1
     25c:	2f060d05 	svccs	0x00060d05
     260:	17060105 	strne	r0, [r6, -r5, lsl #2]
     264:	02000505 	andeq	r0, r0, #20971520	; 0x1400000
     268:	03060104 	movweq	r0, #24836	; 0x6104
     26c:	02004a6c 	andeq	r4, r0, #108, 20	; 0x6c000
     270:	00010104 	andeq	r0, r1, r4, lsl #2
     274:	06010402 	streq	r0, [r1], -r2, lsl #8
     278:	0402009e 	streq	r0, [r2], #-158	; 0xffffff62
     27c:	02002e01 	andeq	r2, r0, #1, 28
     280:	2e060104 	adfcss	f0, f6, f4
     284:	05330905 	ldreq	r0, [r3, #-2309]!	; 0xfffff6fb
     288:	0501060f 	streq	r0, [r1, #-1551]	; 0xfffff9f1
     28c:	09052e0c 	stmdbeq	r5, {r2, r3, r9, sl, fp, sp}
     290:	05052f06 	streq	r2, [r5, #-3846]	; 0xfffff0fa
     294:	012e0d03 			; <UNDEFINED> instruction: 0x012e0d03
     298:	2e069e06 	cdpcs	14, 0, cr9, cr6, cr6, {0}
     29c:	4c030105 	stfmis	f0, [r3], {5}
     2a0:	130505ba 	movwne	r0, #21946	; 0x55ba
     2a4:	13060105 	movwne	r0, #24837	; 0x6105
     2a8:	0632062e 	ldrteq	r0, [r2], -lr, lsr #12
     2ac:	06050501 	streq	r0, [r5], -r1, lsl #10
     2b0:	0614054b 	ldreq	r0, [r4], -fp, asr #10
     2b4:	05020401 	streq	r0, [r2, #-1025]	; 0xfffffbff
     2b8:	052f0618 	streq	r0, [pc, #-1560]!	; fffffca8 <__bss_end__+0xffff55d0>
     2bc:	0d051305 	stceq	3, cr1, [r5, #-20]	; 0xffffffec
     2c0:	042e0106 	strteq	r0, [lr], #-262	; 0xfffffefa
     2c4:	11010501 	tstne	r1, r1, lsl #10
     2c8:	05054e06 	streq	r4, [r5, #-3590]	; 0xfffff1fa
     2cc:	06270513 			; <UNDEFINED> instruction: 0x06270513
     2d0:	00480501 	subeq	r0, r8, r1, lsl #10
     2d4:	4a010402 	bmi	412e4 <__bss_end__+0x36c0c>
     2d8:	02004505 	andeq	r4, r0, #20971520	; 0x1400000
     2dc:	052e0104 	streq	r0, [lr, #-260]!	; 0xfffffefc
     2e0:	04020057 	streq	r0, [r2], #-87	; 0xffffffa9
     2e4:	27054a01 	strcs	r4, [r5, -r1, lsl #20]
     2e8:	01040200 	mrseq	r0, R12_usr
     2ec:	2e4a4a4a 	vmlscs.f32	s9, s20, s20
     2f0:	064b0105 	strbeq	r0, [fp], -r5, lsl #2
     2f4:	05010631 	streq	r0, [r1, #-1585]	; 0xfffff9cf
     2f8:	054c0605 	strbeq	r0, [ip, #-1541]	; 0xfffff9fb
     2fc:	1505010a 	strne	r0, [r5, #-266]	; 0xfffffef6
     300:	052e0106 	streq	r0, [lr, #-262]!	; 0xfffffefa
     304:	04020025 	streq	r0, [r2], #-37	; 0xffffffdb
     308:	052e0601 	streq	r0, [lr, #-1537]!	; 0xfffff9ff
     30c:	04020005 	streq	r0, [r2], #-5
     310:	05010601 	streq	r0, [r1, #-1537]	; 0xfffff9ff
     314:	054d0609 	strbeq	r0, [sp, #-1545]	; 0xfffff9f7
     318:	4a01060d 	bmi	41b54 <__bss_end__+0x3747c>
     31c:	052e0c05 	streq	r0, [lr, #-3077]!	; 0xfffff3fb
     320:	04020028 	streq	r0, [r2], #-40	; 0xffffffd8
     324:	05470602 	strbeq	r0, [r7, #-1538]	; 0xfffff9fe
     328:	0402002c 	streq	r0, [r2], #-44	; 0xffffffd4
     32c:	00010602 	andeq	r0, r1, r2, lsl #12
     330:	66020402 	strvs	r0, [r2], -r2, lsl #8
     334:	33060d05 	movwcc	r0, #27909	; 0x6d05
     338:	05010683 	streq	r0, [r1, #-1667]	; 0xfffff97d
     33c:	03061601 	movweq	r1, #26113	; 0x6601
     340:	0106661c 	tsteq	r6, ip, lsl r6
     344:	06050582 	streq	r0, [r5], -r2, lsl #11
     348:	0114132f 	tsteq	r4, pc, lsr #6
     34c:	051366f2 	ldreq	r6, [r3, #-1778]	; 0xfffff90e
     350:	0501060a 	streq	r0, [r1, #-1546]	; 0xfffff9f6
     354:	09052e08 	stmdbeq	r5, {r3, r9, sl, fp, sp}
     358:	05056706 	streq	r6, [r5, #-1798]	; 0xfffff8fa
     35c:	060e0514 			; <UNDEFINED> instruction: 0x060e0514
     360:	06050501 	streq	r0, [r5], -r1, lsl #10
     364:	0200014b 	andeq	r0, r0, #-1073741806	; 0xc0000012
     368:	00820204 	addeq	r0, r2, r4, lsl #4
     36c:	01020402 	tsteq	r2, r2, lsl #8
     370:	02040200 	andeq	r0, r4, #0, 4
     374:	04020014 	streq	r0, [r2], #-20	; 0xffffffec
     378:	01056702 	tsteq	r5, r2, lsl #14
     37c:	02040200 	andeq	r0, r4, #0, 4
     380:	09054b06 	stmdbeq	r5, {r1, r2, r8, r9, fp, lr}
     384:	4a790306 	bmi	1e40fa4 <__bss_end__+0x1e368cc>
     388:	05669e01 	strbeq	r9, [r6, #-3585]!	; 0xfffff1ff
     38c:	04020005 	streq	r0, [r2], #-5
     390:	02003101 	andeq	r3, r0, #1073741824	; 0x40000000
     394:	00010104 	andeq	r0, r1, r4, lsl #2
     398:	d6010402 	strle	r0, [r1], -r2, lsl #8
     39c:	0a030105 	beq	c07b8 <__bss_end__+0xb60e0>
     3a0:	01063c08 	tsteq	r6, r8, lsl #24
     3a4:	9f060505 	svcls	0x00060505
     3a8:	01061005 	tsteq	r6, r5
     3ac:	0605052e 	streq	r0, [r5], -lr, lsr #10
     3b0:	1505684b 	strne	r6, [r5, #-2123]	; 0xfffff7b5
     3b4:	05050106 	streq	r0, [r5, #-262]	; 0xfffffefa
     3b8:	0e052f06 	cdpeq	15, 0, cr2, cr5, cr6, {0}
     3bc:	05050106 	streq	r0, [r5, #-262]	; 0xfffffefa
     3c0:	12054b06 	andne	r4, r5, #6144	; 0x1800
     3c4:	05050106 	streq	r0, [r5, #-262]	; 0xfffffefa
     3c8:	9e016806 	cdpls	8, 0, cr6, cr1, cr6, {0}
     3cc:	0d051382 	stceq	3, cr1, [r5, #-520]	; 0xfffffdf8
     3d0:	05050106 	streq	r0, [r5, #-262]	; 0xfffffefa
     3d4:	10056706 	andne	r6, r5, r6, lsl #14
     3d8:	05050106 	streq	r0, [r5, #-262]	; 0xfffffefa
     3dc:	01053006 	tsteq	r5, r6
     3e0:	02661306 	rsbeq	r1, r6, #402653184	; 0x18000000
     3e4:	01010006 	tsteq	r1, r6
     3e8:	00000227 	andeq	r0, r0, r7, lsr #4
     3ec:	00640003 	rsbeq	r0, r4, r3
     3f0:	01020000 	mrseq	r0, (UNDEF: 2)
     3f4:	000d0efb 	strdeq	r0, [sp], -fp
     3f8:	01010101 	tsteq	r1, r1, lsl #2
     3fc:	01000000 	mrseq	r0, (UNDEF: 0)
     400:	2f010000 	svccs	0x00010000
     404:	72657355 	rsbvc	r7, r5, #1409286145	; 0x54000001
     408:	696d2f73 	stmdbvs	sp!, {r0, r1, r4, r5, r6, r8, r9, sl, fp, sp}^
     40c:	2f73656c 	svccs	0x0073656c
     410:	72756f53 	rsbsvc	r6, r5, #332	; 0x14c
     414:	632f6563 			; <UNDEFINED> instruction: 0x632f6563
     418:	30343273 	eorscc	r3, r4, r3, ror r2
     41c:	6c2f786c 	stcvs	8, cr7, [pc], #-432	; 274 <__code_start__-0x7d8c>
     420:	69706269 	ldmdbvs	r0!, {r0, r3, r5, r6, r9, sp, lr}^
     424:	636e692f 	cmnvs	lr, #770048	; 0xbc000
     428:	6564756c 	strbvs	r7, [r4, #-1388]!	; 0xfffffa94
     42c:	726b0000 	rsbvc	r0, fp, #0, 0
     430:	6c616d2d 	stclvs	13, cr6, [r1], #-180	; 0xffffff4c
     434:	2e636f6c 	cdpcs	15, 6, cr6, cr3, cr12, {3}
     438:	00000063 	andeq	r0, r0, r3, rrx
     43c:	69707200 	ldmdbvs	r0!, {r9, ip, sp, lr}^
     440:	0100682e 	tsteq	r0, lr, lsr #16
     444:	726b0000 	rsbvc	r0, fp, #0, 0
     448:	6c616d2d 	stclvs	13, cr6, [r1], #-180	; 0xffffff4c
     44c:	2e636f6c 	cdpcs	15, 6, cr6, cr3, cr12, {3}
     450:	00000068 	andeq	r0, r0, r8, rrx
     454:	01050000 	mrseq	r0, (UNDEF: 5)
     458:	20020500 	andcs	r0, r2, r0, lsl #10
     45c:	03000084 	movweq	r0, #132	; 0x84
     460:	060100d2 			; <UNDEFINED> instruction: 0x060100d2
     464:	06020501 	streq	r0, [r2], -r1, lsl #10
     468:	0505132f 	streq	r1, [r5, #-815]	; 0xfffffcd1
     46c:	02050106 	andeq	r0, r5, #-2147483647	; 0x80000001
     470:	09052f06 	stmdbeq	r5, {r1, r2, r8, r9, sl, fp, sp}
     474:	02050106 	andeq	r0, r5, #-2147483647	; 0x80000001
     478:	12052e4a 	andne	r2, r5, #1184	; 0x4a0
     47c:	01040200 	mrseq	r0, R12_usr
     480:	02052e06 	andeq	r2, r5, #96	; 0x60
     484:	01040200 	mrseq	r0, R12_usr
     488:	27050106 	strcs	r0, [r5, -r6, lsl #2]
     48c:	03040200 	movweq	r0, #16896	; 0x4200
     490:	0012054a 	andseq	r0, r2, sl, asr #10
     494:	2e030402 	cdpcs	4, 0, cr0, cr3, cr2, {0}
     498:	4b060305 	blmi	1810b4 <__bss_end__+0x1769dc>
     49c:	01061005 	tsteq	r6, r5
     4a0:	052e0605 	streq	r0, [lr, #-1541]!	; 0xfffff9fb
     4a4:	04020015 	streq	r0, [r2], #-21	; 0xffffffeb
     4a8:	20054a01 	andcs	r4, r5, r1, lsl #20
     4ac:	02040200 	andeq	r0, r4, #0, 4
     4b0:	0402004a 	streq	r0, [r2], #-74	; 0xffffffb6
     4b4:	02054a02 	andeq	r4, r5, #8192	; 0x2000
     4b8:	10053006 	andne	r3, r5, r6
     4bc:	09050106 	stmdbeq	r5, {r1, r2, r8}
     4c0:	2e1d052e 	cfmul64cs	mvdx0, mvdx13, mvdx14
     4c4:	052e0505 	streq	r0, [lr, #-1285]!	; 0xfffffafb
     4c8:	05500603 	ldrbeq	r0, [r0, #-1539]	; 0xfffff9fd
     4cc:	0501060d 	streq	r0, [r1, #-1549]	; 0xfffff9f3
     4d0:	052f0602 	streq	r0, [pc, #-1538]!	; fffffed6 <__bss_end__+0xffff57fe>
     4d4:	0501060e 	streq	r0, [r1, #-1550]	; 0xfffff9f2
     4d8:	05052e08 	streq	r2, [r5, #-3592]	; 0xfffff1f8
     4dc:	0603052e 	streq	r0, [r3], -lr, lsr #10
     4e0:	060c0550 			; <UNDEFINED> instruction: 0x060c0550
     4e4:	06020501 	streq	r0, [r2], -r1, lsl #10
     4e8:	0608052f 	streq	r0, [r8], -pc, lsr #10
     4ec:	4b010501 	blmi	418f8 <__bss_end__+0x37220>
     4f0:	03060305 	movweq	r0, #25349	; 0x6305
     4f4:	1c052e73 	stcne	14, cr2, [r5], {115}	; 0x73
     4f8:	0e050106 	adfeqs	f0, f5, f6
     4fc:	0603052e 	streq	r0, [r3], -lr, lsr #10
     500:	0613054b 	ldreq	r0, [r3], -fp, asr #10
     504:	2e1a0501 	cfmul32cs	mvfx0, mvfx10, mvfx1
     508:	052e0d05 	streq	r0, [lr, #-3333]!	; 0xfffff2fb
     50c:	05500603 	ldrbeq	r0, [r0, #-1539]	; 0xfffff9fd
     510:	05010615 	streq	r0, [r1, #-1557]	; 0xfffff9eb
     514:	03052e0d 	movweq	r2, #24077	; 0x5e0d
     518:	13054b06 	movwne	r4, #23302	; 0x5b06
     51c:	0c050106 	stfeqs	f0, [r5], {6}
     520:	0601052e 	streq	r0, [r1], -lr, lsr #10
     524:	667fba03 	ldrbtvs	fp, [pc], -r3, lsl #20
     528:	02050106 	andeq	r0, r5, #-2147483647	; 0x80000001
     52c:	05054b06 	streq	r4, [r5, #-2822]	; 0xfffff4fa
     530:	06050106 	streq	r0, [r5], -r6, lsl #2
     534:	0602052f 	streq	r0, [r2], -pc, lsr #10
     538:	060d052f 	streq	r0, [sp], -pc, lsr #10
     53c:	06020501 	streq	r0, [r2], -r1, lsl #10
     540:	0605054b 	streq	r0, [r5], -fp, asr #10
     544:	06020501 	streq	r0, [r2], -r1, lsl #10
     548:	0d05134c 	stceq	3, cr1, [r5, #-304]	; 0xfffffed0
     54c:	02050106 	andeq	r0, r5, #-2147483647	; 0x80000001
     550:	2e062f06 	cdpcs	15, 0, cr2, cr6, cr6, {0}
     554:	09052f06 	stmdbeq	r5, {r1, r2, r8, r9, sl, fp, sp}
     558:	0a050106 	beq	140978 <__bss_end__+0x1362a0>
     55c:	33010562 	movwcc	r0, #5474	; 0x1562
     560:	01064e06 	tsteq	r6, r6, lsl #28
     564:	2f060205 	svccs	0x00060205
     568:	24051413 	strcs	r1, [r5], #-1043	; 0xfffffbed
     56c:	29050106 	stmdbcs	r5, {r1, r2, r8}
     570:	2e09052e 	cfsh32cs	mvfx0, mvfx9, #30
     574:	2f060205 	svccs	0x00060205
     578:	01060d05 	tsteq	r6, r5, lsl #26
     57c:	054a0505 	strbeq	r0, [sl, #-1285]	; 0xfffffafb
     580:	05500602 	ldrbeq	r0, [r0, #-1538]	; 0xfffff9fe
     584:	2e010609 	cfmadd32cs	mvax0, mvfx0, mvfx1, mvfx9
     588:	2a060305 	bcs	1811a4 <__bss_end__+0x176acc>
     58c:	01061605 	tsteq	r6, r5, lsl #12
     590:	054a0e05 	strbeq	r0, [sl, #-3589]	; 0xfffff1fb
     594:	052f0603 	streq	r0, [pc, #-1539]!	; ffffff99 <__bss_end__+0xffff58c1>
     598:	0501060f 	streq	r0, [r1, #-1551]	; 0xfffff9f1
     59c:	056d0604 	strbeq	r0, [sp, #-1540]!	; 0xfffff9fc
     5a0:	05010607 	streq	r0, [r1, #-1543]	; 0xfffff9f9
     5a4:	05340605 	ldreq	r0, [r4, #-1541]!	; 0xfffff9fb
     5a8:	0501060f 	streq	r0, [r1, #-1551]	; 0xfffff9f1
     5ac:	054b0605 	strbeq	r0, [fp, #-1541]	; 0xfffff9fb
     5b0:	05010607 	streq	r0, [r1, #-1543]	; 0xfffff9f9
     5b4:	052f0605 	streq	r0, [pc, #-1541]!	; ffffffb7 <__bss_end__+0xffff58df>
     5b8:	0501060f 	streq	r0, [r1, #-1551]	; 0xfffff9f1
     5bc:	05300604 	ldreq	r0, [r0, #-1540]!	; 0xfffff9fc
     5c0:	0501060a 	streq	r0, [r1, #-1546]	; 0xfffff9f6
     5c4:	054b0604 	strbeq	r0, [fp, #-1540]	; 0xfffff9fc
     5c8:	2e01060b 	cfmadd32cs	mvax0, mvfx0, mvfx1, mvfx11
     5cc:	03060505 	movweq	r0, #25861	; 0x6505
     5d0:	18052e77 	stmdane	r5, {r0, r1, r2, r4, r5, r6, r9, sl, fp, sp}
     5d4:	12050106 	andne	r0, r5, #-2147483647	; 0x80000001
     5d8:	061a052e 	ldreq	r0, [sl], -lr, lsr #10
     5dc:	054a7a03 	strbeq	r7, [sl, #-2563]	; 0xfffff5fd
     5e0:	20050118 	andcs	r0, r5, r8, lsl r1
     5e4:	27050106 	strcs	r0, [r5, -r6, lsl #2]
     5e8:	0603052e 	streq	r0, [r3], -lr, lsr #10
     5ec:	060b0530 			; <UNDEFINED> instruction: 0x060b0530
     5f0:	2e060501 	cfsh32cs	mvfx0, mvfx6, #1
     5f4:	03060305 	movweq	r0, #25349	; 0x6305
     5f8:	09054a0f 	stmdbeq	r5, {r0, r1, r2, r3, r9, fp, lr}
     5fc:	06050106 	streq	r0, [r5], -r6, lsl #2
     600:	0604054a 	streq	r0, [r4], -sl, asr #10
     604:	060d054c 	streq	r0, [sp], -ip, asr #10
     608:	07052e01 	streq	r2, [r5, -r1, lsl #28]
     60c:	06022e2e 	streq	r2, [r2], -lr, lsr #28
     610:	11010100 	mrsne	r0, (UNDEF: 17)
     614:	03000002 	movweq	r0, #2
     618:	0000d400 	andeq	sp, r0, r0, lsl #8
     61c:	fb010200 	blx	40e26 <__bss_end__+0x3674e>
     620:	01000d0e 	tsteq	r0, lr, lsl #26
     624:	00010101 	andeq	r0, r1, r1, lsl #2
     628:	00010000 	andeq	r0, r1, r0
     62c:	6f2f0100 	svcvs	0x002f0100
     630:	682f7470 	stmdavs	pc!, {r4, r5, r6, sl, ip, sp, lr}	; <UNPREDICTABLE>
     634:	62656d6f 	rsbvs	r6, r5, #7104	; 0x1bc0
     638:	2f776572 	svccs	0x00776572
     63c:	6c6c6543 	cfstr64vs	mvdx6, [ip], #-268	; 0xfffffef4
     640:	612f7261 			; <UNDEFINED> instruction: 0x612f7261
     644:	6e2d6d72 	mcrvs	13, 1, r6, cr13, cr2, {3}
     648:	2d656e6f 	stclcs	14, cr6, [r5, #-444]!	; 0xfffffe44
     64c:	69626165 	stmdbvs	r2!, {r0, r2, r5, r6, r8, sp, lr}^
     650:	392f392d 	stmdbcc	pc!, {r0, r2, r3, r5, r8, fp, ip, sp}	; <UNPREDICTABLE>
     654:	3130322d 	teqcc	r0, sp, lsr #4
     658:	2d347139 	ldfcss	f7, [r4, #-228]!	; 0xffffff1c
     65c:	30317363 	eorscc	r7, r1, r3, ror #6
     660:	6c2f6537 	cfstr32vs	mvfx6, [pc], #-220	; 58c <__code_start__-0x7a74>
     664:	672f6269 	strvs	r6, [pc, -r9, ror #4]!
     668:	612f6363 			; <UNDEFINED> instruction: 0x612f6363
     66c:	6e2d6d72 	mcrvs	13, 1, r6, cr13, cr2, {3}
     670:	2d656e6f 	stclcs	14, cr6, [r5, #-444]!	; 0xfffffe44
     674:	69626165 	stmdbvs	r2!, {r0, r2, r5, r6, r8, sp, lr}^
     678:	322e392f 	eorcc	r3, lr, #770048	; 0xbc000
     67c:	692f312e 	stmdbvs	pc!, {r1, r2, r3, r5, r8, ip, sp}	; <UNPREDICTABLE>
     680:	756c636e 	strbvc	r6, [ip, #-878]!	; 0xfffffc92
     684:	2f006564 	svccs	0x00006564
     688:	72657355 	rsbvc	r7, r5, #1409286145	; 0x54000001
     68c:	696d2f73 	stmdbvs	sp!, {r0, r1, r4, r5, r6, r8, r9, sl, fp, sp}^
     690:	2f73656c 	svccs	0x0073656c
     694:	72756f53 	rsbsvc	r6, r5, #332	; 0x14c
     698:	632f6563 			; <UNDEFINED> instruction: 0x632f6563
     69c:	30343273 	eorscc	r3, r4, r3, ror r2
     6a0:	6c2f786c 	stcvs	8, cr7, [pc], #-432	; 4f8 <__code_start__-0x7b08>
     6a4:	69706269 	ldmdbvs	r0!, {r0, r3, r5, r6, r9, sp, lr}^
     6a8:	636e692f 	cmnvs	lr, #770048	; 0xbc000
     6ac:	6564756c 	strbvs	r7, [r4, #-1388]!	; 0xfffffa94
     6b0:	6b630000 	blvs	18c06b8 <__bss_end__+0x18b5fe0>
     6b4:	2e63672d 	cdpcs	7, 6, cr6, cr3, cr13, {1}
     6b8:	00000063 	andeq	r0, r0, r3, rrx
     6bc:	64747300 	ldrbtvs	r7, [r4], #-768	; 0xfffffd00
     6c0:	2d746e69 	ldclcs	14, cr6, [r4, #-420]!	; 0xfffffe5c
     6c4:	2e636367 	cdpcs	3, 6, cr6, cr3, cr7, {3}
     6c8:	00010068 	andeq	r0, r1, r8, rrx
     6cc:	69707200 	ldmdbvs	r0!, {r9, ip, sp, lr}^
     6d0:	0200682e 	andeq	r6, r0, #3014656	; 0x2e0000
     6d4:	72730000 	rsbsvc	r0, r3, #0, 0
     6d8:	6f6c2d63 	svcvs	0x006c2d63
     6dc:	00682e63 	rsbeq	r2, r8, r3, ror #28
     6e0:	63000000 	movwvs	r0, #0
     6e4:	6c6c616b 	stfvse	f6, [ip], #-428	; 0xfffffe54
     6e8:	682e636f 	stmdavs	lr!, {r0, r1, r2, r3, r5, r6, r8, r9, sp, lr}
     6ec:	00000000 	andeq	r0, r0, r0
     6f0:	001c0500 	andseq	r0, ip, r0, lsl #10
     6f4:	85cc0205 	strbhi	r0, [ip, #517]	; 0x205
     6f8:	f0030000 			; <UNDEFINED> instruction: 0xf0030000
     6fc:	05050100 	streq	r0, [r5, #-256]	; 0xffffff00
     700:	0109054e 	tsteq	r9, lr, asr #10
     704:	01061405 	tsteq	r6, r5, lsl #8
     708:	02002405 	andeq	r2, r0, #83886080	; 0x5000000
     70c:	2e060104 	adfcss	f0, f6, f4
     710:	02000505 	andeq	r0, r0, #20971520	; 0x1400000
     714:	01060104 	tsteq	r6, r4, lsl #2
     718:	02000905 	andeq	r0, r0, #81920	; 0x14000
     71c:	4b060304 	blmi	181334 <__bss_end__+0x176c5c>
     720:	02003205 	andeq	r3, r0, #1342177280	; 0x50000000
     724:	01060304 	tsteq	r6, r4, lsl #6
     728:	02002105 	andeq	r2, r0, #1073741825	; 0x40000001
     72c:	054a0304 	strbeq	r0, [sl, #-772]	; 0xfffffcfc
     730:	04020011 	streq	r0, [r2], #-17	; 0xffffffef
     734:	27052e03 	strcs	r2, [r5, -r3, lsl #28]
     738:	03040200 	movweq	r0, #16896	; 0x4200
     73c:	2b052d06 	blcs	14bb5c <__bss_end__+0x141484>
     740:	03040200 	movweq	r0, #16896	; 0x4200
     744:	02000106 	andeq	r0, r0, #-2147483647	; 0x80000001
     748:	002e0304 	eoreq	r0, lr, r4, lsl #6
     74c:	2e030402 	cdpcs	4, 0, cr0, cr3, cr2, {0}
     750:	18060505 	stmdane	r6, {r0, r2, r8, sl}
     754:	062e0613 			; <UNDEFINED> instruction: 0x062e0613
     758:	060d0530 			; <UNDEFINED> instruction: 0x060d0530
     75c:	06050501 	streq	r0, [r5], -r1, lsl #10
     760:	060d054b 	streq	r0, [sp], -fp, asr #10
     764:	06050501 	streq	r0, [r5], -r1, lsl #10
     768:	060d052f 	streq	r0, [sp], -pc, lsr #10
     76c:	06050501 	streq	r0, [r5], -r1, lsl #10
     770:	060d052f 	streq	r0, [sp], -pc, lsr #10
     774:	06050501 	streq	r0, [r5], -r1, lsl #10
     778:	059e0130 	ldreq	r0, [lr, #304]	; 0x130
     77c:	7f90031c 	svcvc	0x0090031c
     780:	05010682 	streq	r0, [r1, #-1666]	; 0xfffff97e
     784:	144b0605 	strbne	r0, [fp], #-1541	; 0xfffff9fb
     788:	04020001 	streq	r0, [r2], #-1
     78c:	02004a02 	andeq	r4, r0, #8192	; 0x2000
     790:	00010204 	andeq	r0, r1, r4, lsl #4
     794:	13020402 	movwne	r0, #9218	; 0x2402
     798:	02000805 	andeq	r0, r0, #327680	; 0x50000
     79c:	01060204 	tsteq	r6, r4, lsl #4
     7a0:	02000705 	andeq	r0, r0, #1310720	; 0x140000
     7a4:	054a0204 	strbeq	r0, [sl, #-516]	; 0xfffffdfc
     7a8:	144b0609 	strbne	r0, [fp], #-1545	; 0xfffff9f7
     7ac:	06131313 			; <UNDEFINED> instruction: 0x06131313
     7b0:	052f064a 	streq	r0, [pc, #-1610]!	; 16e <__code_start__-0x7e92>
     7b4:	05010610 	streq	r0, [r1, #-1552]	; 0xfffff9f0
     7b8:	05680605 	strbeq	r0, [r8, #-1541]!	; 0xfffff9fb
     7bc:	0501060c 	streq	r0, [r1, #-1548]	; 0xfffff9f4
     7c0:	05054b01 	streq	r4, [r5, #-2817]	; 0xfffff4ff
     7c4:	01040200 	mrseq	r0, R12_usr
     7c8:	4a750306 	bmi	1d413e8 <__bss_end__+0x1d36d10>
     7cc:	01040200 	mrseq	r0, R12_usr
     7d0:	04020001 	streq	r0, [r2], #-1
     7d4:	00ba0601 	adcseq	r0, sl, r1, lsl #12
     7d8:	06010402 	streq	r0, [r1], -r2, lsl #8
     7dc:	3009052e 	andcc	r0, r9, lr, lsr #10
     7e0:	06820601 	streq	r0, [r2], r1, lsl #12
     7e4:	0331052e 	teqeq	r1, #192937984	; 0xb800000
     7e8:	06d60181 	ldrbeq	r0, [r6], r1, lsl #3
     7ec:	06050501 	streq	r0, [r5], -r1, lsl #10
     7f0:	052e062f 	streq	r0, [lr, #-1583]!	; 0xfffff9d1
     7f4:	0500061a 	streq	r0, [r0, #-1562]	; 0xfffff9e6
     7f8:	0086d802 	addeq	sp, r6, r2, lsl #16
     7fc:	05051700 	streq	r1, [r5, #-1792]	; 0xfffff900
     800:	08051332 	stmdaeq	r5, {r1, r4, r5, r8, r9, ip}
     804:	22050106 	andcs	r0, r5, #-2147483647	; 0x80000001
     808:	05055206 	streq	r5, [r5, #-518]	; 0xfffffdfa
     80c:	17051332 	smladxne	r5, r2, r3, r1
     810:	16050106 	strne	r0, [r5], -r6, lsl #2
     814:	4a160306 	bmi	581434 <__bss_end__+0x576d5c>
     818:	052f0505 	streq	r0, [pc, #-1285]!	; 31b <__code_start__-0x7ce5>
     81c:	0505361b 	streq	r3, [r5, #-1563]	; 0xfffff9e5
     820:	029e012f 	addseq	r0, lr, #-1073741813	; 0xc000000b
     824:	01010008 	tsteq	r1, r8
     828:	00000121 	andeq	r0, r0, r1, lsr #2
     82c:	00be0003 	adcseq	r0, lr, r3
     830:	01020000 	mrseq	r0, (UNDEF: 2)
     834:	000d0efb 	strdeq	r0, [sp], -fp
     838:	01010101 	tsteq	r1, r1, lsl #2
     83c:	01000000 	mrseq	r0, (UNDEF: 0)
     840:	2e010000 	cdpcs	0, 0, cr0, cr1, cr0, {0}
     844:	62696c2f 	rsbvs	r6, r9, #12032	; 0x2f00
     848:	552f0063 	strpl	r0, [pc, #-99]!	; 7ed <__code_start__-0x7813>
     84c:	73726573 	cmnvc	r2, #482344960	; 0x1cc00000
     850:	6c696d2f 	stclvs	13, cr6, [r9], #-188	; 0xffffff44
     854:	532f7365 			; <UNDEFINED> instruction: 0x532f7365
     858:	6372756f 	cmnvs	r2, #465567744	; 0x1bc00000
     85c:	73632f65 	cmnvc	r3, #404	; 0x194
     860:	6c303432 	cfldrsvs	mvf3, [r0], #-200	; 0xffffff38
     864:	696c2f78 	stmdbvs	ip!, {r3, r4, r5, r6, r8, r9, sl, fp, sp}^
     868:	2f697062 	svccs	0x00697062
     86c:	6c636e69 	stclvs	14, cr6, [r3], #-420	; 0xfffffe5c
     870:	00656475 	rsbeq	r6, r5, r5, ror r4
     874:	74706f2f 	ldrbtvc	r6, [r0], #-3887	; 0xfffff0d1
     878:	6d6f682f 	stclvs	8, cr6, [pc, #-188]!	; 7c4 <__code_start__-0x783c>
     87c:	65726265 	ldrbvs	r6, [r2, #-613]!	; 0xfffffd9b
     880:	65432f77 	strbvs	r2, [r3, #-3959]	; 0xfffff089
     884:	72616c6c 	rsbvc	r6, r1, #108, 24	; 0x6c00
     888:	6d72612f 	ldfvse	f6, [r2, #-188]!	; 0xffffff44
     88c:	6e6f6e2d 	cdpvs	14, 6, cr6, cr15, cr13, {1}
     890:	61652d65 	cmnvs	r5, r5, ror #26
     894:	392d6962 	pushcc	{r1, r5, r6, r8, fp, sp, lr}
     898:	322d392f 	eorcc	r3, sp, #770048	; 0xbc000
     89c:	71393130 	teqvc	r9, r0, lsr r1
     8a0:	73632d34 	cmnvc	r3, #52, 26	; 0xd00
     8a4:	65373031 	ldrvs	r3, [r7, #-49]!	; 0xffffffcf
     8a8:	62696c2f 	rsbvs	r6, r9, #12032	; 0x2f00
     8ac:	6363672f 	cmnvs	r3, #12320768	; 0xbc0000
     8b0:	6d72612f 	ldfvse	f6, [r2, #-188]!	; 0xffffff44
     8b4:	6e6f6e2d 	cdpvs	14, 6, cr6, cr15, cr13, {1}
     8b8:	61652d65 	cmnvs	r5, r5, ror #26
     8bc:	392f6962 	stmdbcc	pc!, {r1, r5, r6, r8, fp, sp, lr}	; <UNPREDICTABLE>
     8c0:	312e322e 			; <UNDEFINED> instruction: 0x312e322e
     8c4:	636e692f 	cmnvs	lr, #770048	; 0xbc000
     8c8:	6564756c 	strbvs	r7, [r4, #-1388]!	; 0xfffffa94
     8cc:	656d0000 	strbvs	r0, [sp, #-0]!
     8d0:	7465736d 	strbtvc	r7, [r5], #-877	; 0xfffffc93
     8d4:	0100632e 	tsteq	r0, lr, lsr #6
     8d8:	70720000 	rsbsvc	r0, r2, r0
     8dc:	00682e69 	rsbeq	r2, r8, r9, ror #28
     8e0:	73000002 	movwvc	r0, #2
     8e4:	65646474 	strbvs	r6, [r4, #-1140]!	; 0xfffffb8c
     8e8:	00682e66 	rsbeq	r2, r8, r6, ror #28
     8ec:	00000003 	andeq	r0, r0, r3
     8f0:	05002905 	streq	r2, [r0, #-2309]	; 0xfffff6fb
     8f4:	00872802 	addeq	r2, r7, r2, lsl #16
     8f8:	05051500 	streq	r1, [r5, #-1280]	; 0xfffffb00
     8fc:	06290513 			; <UNDEFINED> instruction: 0x06290513
     900:	2f140511 	svccs	0x00140511
     904:	30060505 	andcc	r0, r6, r5, lsl #10
     908:	06010a05 	streq	r0, [r1], -r5, lsl #20
     90c:	0609059e 			; <UNDEFINED> instruction: 0x0609059e
     910:	060e05d7 			; <UNDEFINED> instruction: 0x060e05d7
     914:	060a0501 	streq	r0, [sl], -r1, lsl #10
     918:	bb09052d 	bllt	241dd4 <__bss_end__+0x2376fc>
     91c:	01060e05 	tsteq	r6, r5, lsl #28
     920:	060a052e 	streq	r0, [sl], -lr, lsr #10
     924:	4b09052d 	blmi	241de0 <__bss_end__+0x237708>
     928:	01060b05 	tsteq	r6, r5, lsl #22
     92c:	052d0a05 	streq	r0, [sp, #-2565]!	; 0xfffff5fb
     930:	0a052f0e 	beq	14c570 <__bss_end__+0x141e98>
     934:	0e052d06 	cdpeq	13, 0, cr2, cr5, cr6, {0}
     938:	09051306 	stmdbeq	r5, {r1, r2, r8, r9, ip}
     93c:	0a052e06 	beq	14c15c <__bss_end__+0x141a84>
     940:	14050511 	strne	r0, [r5], #-1297	; 0xfffffaef
     944:	13060105 	movwne	r0, #24837	; 0x6105
     948:	01000202 	tsteq	r0, r2, lsl #4
     94c:	00012001 	andeq	r2, r1, r1
     950:	db000300 	blle	1558 <__code_start__-0x6aa8>
     954:	02000000 	andeq	r0, r0, #0, 0
     958:	0d0efb01 	vstreq	d15, [lr, #-4]
     95c:	01010100 	mrseq	r0, (UNDEF: 17)
     960:	00000001 	andeq	r0, r0, r1
     964:	01000001 	tsteq	r0, r1
     968:	696c2f2e 	stmdbvs	ip!, {r1, r2, r3, r5, r8, r9, sl, fp, sp}^
     96c:	2f006362 	svccs	0x00006362
     970:	2f74706f 	svccs	0x0074706f
     974:	656d6f68 	strbvs	r6, [sp, #-3944]!	; 0xfffff098
     978:	77657262 	strbvc	r7, [r5, -r2, ror #4]!
     97c:	6c65432f 	stclvs	3, cr4, [r5], #-188	; 0xffffff44
     980:	2f72616c 	svccs	0x0072616c
     984:	2d6d7261 	sfmcs	f7, 2, [sp, #-388]!	; 0xfffffe7c
     988:	656e6f6e 	strbvs	r6, [lr, #-3950]!	; 0xfffff092
     98c:	6261652d 	rsbvs	r6, r1, #188743680	; 0xb400000
     990:	2f392d69 	svccs	0x00392d69
     994:	30322d39 	eorscc	r2, r2, r9, lsr sp
     998:	34713931 	ldrbtcc	r3, [r1], #-2353	; 0xfffff6cf
     99c:	3173632d 	cmncc	r3, sp, lsr #6
     9a0:	2f653730 	svccs	0x00653730
     9a4:	2f62696c 	svccs	0x0062696c
     9a8:	2f636367 	svccs	0x00636367
     9ac:	2d6d7261 	sfmcs	f7, 2, [sp, #-388]!	; 0xfffffe7c
     9b0:	656e6f6e 	strbvs	r6, [lr, #-3950]!	; 0xfffff092
     9b4:	6261652d 	rsbvs	r6, r1, #188743680	; 0xb400000
     9b8:	2e392f69 	cdpcs	15, 3, cr2, cr9, cr9, {3}
     9bc:	2f312e32 	svccs	0x00312e32
     9c0:	6c636e69 	stclvs	14, cr6, [r3], #-420	; 0xfffffe5c
     9c4:	00656475 	rsbeq	r6, r5, r5, ror r4
     9c8:	6573552f 	ldrbvs	r5, [r3, #-1327]!	; 0xfffffad1
     9cc:	6d2f7372 	stcvs	3, cr7, [pc, #-456]!	; 80c <__code_start__-0x77f4>
     9d0:	73656c69 	cmnvc	r5, #26880	; 0x6900
     9d4:	756f532f 	strbvc	r5, [pc, #-815]!	; 6ad <__code_start__-0x7953>
     9d8:	2f656372 	svccs	0x00656372
     9dc:	34327363 	ldrtcc	r7, [r2], #-867	; 0xfffffc9d
     9e0:	2f786c30 	svccs	0x00786c30
     9e4:	7062696c 	rsbvc	r6, r2, ip, ror #18
     9e8:	6e692f69 	cdpvs	15, 6, cr2, cr9, cr9, {3}
     9ec:	64756c63 	ldrbtvs	r6, [r5], #-3171	; 0xfffff39d
     9f0:	70000065 	andvc	r0, r0, r5, rrx
     9f4:	746e6972 	strbtvc	r6, [lr], #-2418	; 0xfffff68e
     9f8:	00632e6b 	rsbeq	r2, r3, fp, ror #28
     9fc:	73000001 	movwvc	r0, #1
     a00:	72616474 	rsbvc	r6, r1, #116, 8	; 0x74000000
     a04:	00682e67 	rsbeq	r2, r8, r7, ror #28
     a08:	72000002 	andvc	r0, r0, #2, 0
     a0c:	682e6970 	stmdavs	lr!, {r4, r5, r6, r8, fp, sp, lr}
     a10:	00000300 	andeq	r0, r0, r0, lsl #6
     a14:	6975623c 	ldmdbvs	r5!, {r2, r3, r4, r5, r9, sp, lr}^
     a18:	692d746c 	pushvs	{r2, r3, r5, r6, sl, ip, sp, lr}
     a1c:	00003e6e 	andeq	r3, r0, lr, ror #28
     a20:	61760000 	cmnvs	r6, r0
     a24:	6972702d 	ldmdbvs	r2!, {r0, r2, r3, r5, ip, sp, lr}^
     a28:	2e6b746e 	cdpcs	4, 6, cr7, cr11, cr14, {3}
     a2c:	00010068 	andeq	r0, r1, r8, rrx
     a30:	22050000 	andcs	r0, r5, #0, 0
     a34:	a0020500 	andge	r0, r2, r0, lsl #10
     a38:	17000087 	strne	r0, [r0, -r7, lsl #1]
     a3c:	13140505 	tstne	r4, #20971520	; 0x1400000
     a40:	06220514 			; <UNDEFINED> instruction: 0x06220514
     a44:	5012050d 	andspl	r0, r2, sp, lsl #10
     a48:	7a032205 	bvc	c9264 <__bss_end__+0xbeb8c>
     a4c:	3305052e 	movwcc	r0, #21806	; 0x552e
     a50:	052f1205 	streq	r1, [pc, #-517]!	; 853 <__code_start__-0x77ad>
     a54:	09056505 	stmdbeq	r5, {r0, r2, r8, sl, sp, lr}
     a58:	12052f06 	andne	r2, r5, #6, 30
     a5c:	05050106 	streq	r0, [r5, #-262]	; 0xfffffefa
     a60:	06164b06 	ldreq	r4, [r6], -r6, lsl #22
     a64:	0550064a 	ldrbeq	r0, [r0, #-1610]	; 0xfffff9b6
     a68:	66130601 	ldrvs	r0, [r3], -r1, lsl #12
     a6c:	01000802 	tsteq	r0, r2, lsl #16
     a70:	0000a001 	andeq	sl, r0, r1
     a74:	57000300 	strpl	r0, [r0, -r0, lsl #6]
     a78:	02000000 	andeq	r0, r0, #0, 0
     a7c:	0d0efb01 	vstreq	d15, [lr, #-4]
     a80:	01010100 	mrseq	r0, (UNDEF: 17)
     a84:	00000001 	andeq	r0, r0, r1
     a88:	01000001 	tsteq	r0, r1
     a8c:	696c2f2e 	stmdbvs	ip!, {r1, r2, r3, r5, r8, r9, sl, fp, sp}^
     a90:	2f006362 	svccs	0x00006362
     a94:	72657355 	rsbvc	r7, r5, #1409286145	; 0x54000001
     a98:	696d2f73 	stmdbvs	sp!, {r0, r1, r4, r5, r6, r8, r9, sl, fp, sp}^
     a9c:	2f73656c 	svccs	0x0073656c
     aa0:	72756f53 	rsbsvc	r6, r5, #332	; 0x14c
     aa4:	632f6563 			; <UNDEFINED> instruction: 0x632f6563
     aa8:	30343273 	eorscc	r3, r4, r3, ror r2
     aac:	6c2f786c 	stcvs	8, cr7, [pc], #-432	; 904 <__code_start__-0x76fc>
     ab0:	69706269 	ldmdbvs	r0!, {r0, r3, r5, r6, r9, sp, lr}^
     ab4:	636e692f 	cmnvs	lr, #770048	; 0xbc000
     ab8:	6564756c 	strbvs	r7, [r4, #-1388]!	; 0xfffffa94
     abc:	75700000 	ldrbvc	r0, [r0, #-0]!
     ac0:	632e6b74 			; <UNDEFINED> instruction: 0x632e6b74
     ac4:	00000100 	andeq	r0, r0, r0, lsl #2
     ac8:	2e697072 	mcrcs	0, 3, r7, cr9, cr2, {3}
     acc:	00020068 	andeq	r0, r2, r8, rrx
     ad0:	22050000 	andcs	r0, r5, #0, 0
     ad4:	f8020500 			; <UNDEFINED> instruction: 0xf8020500
     ad8:	15000087 	strne	r0, [r0, #-135]	; 0xffffff79
     adc:	05130505 	ldreq	r0, [r3, #-1285]	; 0xfffffafb
     ae0:	2e110622 	cfmsub32cs	mvax1, mvfx0, mvfx1, mvfx2
     ae4:	2f060b05 	svccs	0x00060b05
     ae8:	2e060505 	cfsh32cs	mvfx0, mvfx6, #5
     aec:	02000905 	andeq	r0, r0, #81920	; 0x14000
     af0:	67060204 	strvs	r0, [r6, -r4, lsl #4]
     af4:	02000f05 	andeq	r0, r0, #5, 30
     af8:	05490204 	strbeq	r0, [r9, #-516]	; 0xfffffdfc
     afc:	0402000b 	streq	r0, [r2], #-11
     b00:	05050102 	streq	r0, [r5, #-258]	; 0xfffffefe
     b04:	02040200 	andeq	r0, r4, #0, 4
     b08:	4e062e06 	cdpmi	14, 0, cr2, cr6, cr6, {0}
     b0c:	13060105 	movwne	r0, #24837	; 0x6105
     b10:	01000602 	tsteq	r0, r2, lsl #12
     b14:	0008fa01 	andeq	pc, r8, r1, lsl #20
     b18:	f1000300 			; <UNDEFINED> instruction: 0xf1000300
     b1c:	02000000 	andeq	r0, r0, #0, 0
     b20:	0d0efb01 	vstreq	d15, [lr, #-4]
     b24:	01010100 	mrseq	r0, (UNDEF: 17)
     b28:	00000001 	andeq	r0, r0, r1
     b2c:	01000001 	tsteq	r0, r1
     b30:	696c2f2e 	stmdbvs	ip!, {r1, r2, r3, r5, r8, r9, sl, fp, sp}^
     b34:	2f006362 	svccs	0x00006362
     b38:	2f74706f 	svccs	0x0074706f
     b3c:	656d6f68 	strbvs	r6, [sp, #-3944]!	; 0xfffff098
     b40:	77657262 	strbvc	r7, [r5, -r2, ror #4]!
     b44:	6c65432f 	stclvs	3, cr4, [r5], #-188	; 0xffffff44
     b48:	2f72616c 	svccs	0x0072616c
     b4c:	2d6d7261 	sfmcs	f7, 2, [sp, #-388]!	; 0xfffffe7c
     b50:	656e6f6e 	strbvs	r6, [lr, #-3950]!	; 0xfffff092
     b54:	6261652d 	rsbvs	r6, r1, #188743680	; 0xb400000
     b58:	2f392d69 	svccs	0x00392d69
     b5c:	30322d39 	eorscc	r2, r2, r9, lsr sp
     b60:	34713931 	ldrbtcc	r3, [r1], #-2353	; 0xfffff6cf
     b64:	3173632d 	cmncc	r3, sp, lsr #6
     b68:	2f653730 	svccs	0x00653730
     b6c:	2f62696c 	svccs	0x0062696c
     b70:	2f636367 	svccs	0x00636367
     b74:	2d6d7261 	sfmcs	f7, 2, [sp, #-388]!	; 0xfffffe7c
     b78:	656e6f6e 	strbvs	r6, [lr, #-3950]!	; 0xfffff092
     b7c:	6261652d 	rsbvs	r6, r1, #188743680	; 0xb400000
     b80:	2e392f69 	cdpcs	15, 3, cr2, cr9, cr9, {3}
     b84:	2f312e32 	svccs	0x00312e32
     b88:	6c636e69 	stclvs	14, cr6, [r3], #-420	; 0xfffffe5c
     b8c:	00656475 	rsbeq	r6, r5, r5, ror r4
     b90:	6573552f 	ldrbvs	r5, [r3, #-1327]!	; 0xfffffad1
     b94:	6d2f7372 	stcvs	3, cr7, [pc, #-456]!	; 9d4 <__code_start__-0x762c>
     b98:	73656c69 	cmnvc	r5, #26880	; 0x6900
     b9c:	756f532f 	strbvc	r5, [pc, #-815]!	; 875 <__code_start__-0x778b>
     ba0:	2f656372 	svccs	0x00656372
     ba4:	34327363 	ldrtcc	r7, [r2], #-867	; 0xfffffc9d
     ba8:	2f786c30 	svccs	0x00786c30
     bac:	7062696c 	rsbvc	r6, r2, ip, ror #18
     bb0:	6e692f69 	cdpvs	15, 6, cr2, cr9, cr9, {3}
     bb4:	64756c63 	ldrbtvs	r6, [r5], #-3171	; 0xfffff39d
     bb8:	76000065 	strvc	r0, [r0], -r5, rrx
     bbc:	72702d61 	rsbsvc	r2, r0, #6208	; 0x1840
     bc0:	6b746e69 	blvs	1d1c56c <__bss_end__+0x1d11e94>
     bc4:	0100632e 	tsteq	r0, lr, lsr #6
     bc8:	74730000 	ldrbtvc	r0, [r3], #-0
     bcc:	746e6964 	strbtvc	r6, [lr], #-2404	; 0xfffff69c
     bd0:	6363672d 	cmnvs	r3, #11796480	; 0xb40000
     bd4:	0200682e 	andeq	r6, r0, #3014656	; 0x2e0000
     bd8:	70720000 	rsbsvc	r0, r2, r0
     bdc:	00682e69 	rsbeq	r2, r8, r9, ror #28
     be0:	72000003 	andvc	r0, r0, #3, 0
     be4:	692d6970 	pushvs	{r4, r5, r6, r8, fp, sp, lr}
     be8:	7265746e 	rsbvc	r7, r5, #1845493760	; 0x6e000000
     bec:	2e6c616e 	powcsez	f6, f4, #0.5
     bf0:	00030068 	andeq	r0, r3, r8, rrx
     bf4:	64747300 	ldrbtvs	r7, [r4], #-768	; 0xfffffd00
     bf8:	2e677261 	cdpcs	2, 6, cr7, cr7, cr1, {3}
     bfc:	00020068 	andeq	r0, r2, r8, rrx
     c00:	75623c00 	strbvc	r3, [r2, #-3072]!	; 0xfffff400
     c04:	2d746c69 	ldclcs	12, cr6, [r4, #-420]!	; 0xfffffe5c
     c08:	003e6e69 	eorseq	r6, lr, r9, ror #28
     c0c:	00000000 	andeq	r0, r0, r0
     c10:	05000105 	streq	r0, [r0, #-261]	; 0xfffffefb
     c14:	00883002 	addeq	r3, r8, r2
     c18:	00c80300 	sbceq	r0, r8, r0, lsl #6
     c1c:	14020501 	strne	r0, [r2], #-1281	; 0xfffffaff
     c20:	10060105 	andne	r0, r6, r5, lsl #2
     c24:	05300405 	ldreq	r0, [r0, #-1029]!	; 0xfffffbfb
     c28:	054a2c01 	strbeq	r2, [sl, #-3073]	; 0xfffff3ff
     c2c:	02053004 	andeq	r3, r5, #4, 0
     c30:	05133106 	ldreq	r3, [r3, #-262]	; 0xfffffefa
     c34:	052e060b 	streq	r0, [lr, #-1547]!	; 0xfffff9f5
     c38:	05300602 	ldreq	r0, [r0, #-1538]!	; 0xfffff9fe
     c3c:	24020609 	strcs	r0, [r2], #-1545	; 0xfffff9f7
     c40:	052e2e0d 	streq	r2, [lr, #-3597]!	; 0xfffff1f3
     c44:	1703060d 	strne	r0, [r3, -sp, lsl #12]
     c48:	1311054a 	tstne	r1, #310378496	; 0x12800000
     c4c:	01062d05 	tsteq	r6, r5, lsl #26
     c50:	052e1605 	streq	r1, [lr, #-1541]!	; 0xfffff9fb
     c54:	16052f0d 	strne	r2, [r5], -sp, lsl #30
     c58:	0614052d 	ldreq	r0, [r4], -sp, lsr #10
     c5c:	0617052f 	ldreq	r0, [r7], -pc, lsr #10
     c60:	2e0d0501 	cfsh32cs	mvfx0, mvfx13, #1
     c64:	12052f06 	andne	r2, r5, #6, 30
     c68:	2f2e0106 	svccs	0x002e0106
     c6c:	060d052d 	streq	r0, [sp], -sp, lsr #10
     c70:	0612052f 	ldreq	r0, [r2], -pc, lsr #10
     c74:	06190501 	ldreq	r0, [r9], -r1, lsl #10
     c78:	0304052f 	movweq	r0, #17711	; 0x452f
     c7c:	05010111 	streq	r0, [r1, #-273]	; 0xfffffeef
     c80:	0e051502 	cfsh32eq	mvfx1, mvfx5, #2
     c84:	017fb203 	cmneq	pc, r3, lsl #4
     c88:	05130205 	ldreq	r0, [r3, #-517]	; 0xfffffdfb
     c8c:	05010606 	streq	r0, [r1, #-1542]	; 0xfffff9fa
     c90:	05300602 	ldreq	r0, [r0, #-1538]!	; 0xfffff9fe
     c94:	02050108 	andeq	r0, r5, #2
     c98:	054a0106 	strbeq	r0, [sl, #-262]	; 0xfffffefa
     c9c:	05910808 	ldreq	r0, [r1, #2056]	; 0x808
     ca0:	054a0603 	strbeq	r0, [sl, #-1539]	; 0xfffff9fd
     ca4:	05010608 	streq	r0, [r1, #-1544]	; 0xfffff9f8
     ca8:	052d0615 	streq	r0, [sp, #-1557]!	; 0xfffff9eb
     cac:	03050108 	movweq	r0, #20744	; 0x5108
     cb0:	060805d7 			; <UNDEFINED> instruction: 0x060805d7
     cb4:	2d180501 	cfldr32cs	mvfx0, [r8, #-4]
     cb8:	052e0205 	streq	r0, [lr, #-517]!	; 0xfffffdfb
     cbc:	15052f08 	strne	r2, [r5, #-3848]	; 0xfffff0f8
     cc0:	08052d06 	stmdaeq	r5, {r1, r2, r8, sl, fp, sp}
     cc4:	06020501 	streq	r0, [r2], -r1, lsl #10
     cc8:	06030501 	streq	r0, [r3], -r1, lsl #10
     ccc:	0618052f 	ldreq	r0, [r8], -pc, lsr #10
     cd0:	2e020511 	mcrcs	5, 0, r0, cr2, cr1, {0}
     cd4:	052f0805 	streq	r0, [pc, #-2053]!	; 4d7 <__code_start__-0x7b29>
     cd8:	052d0615 	streq	r0, [sp, #-1557]!	; 0xfffff9eb
     cdc:	03050108 	movweq	r0, #20744	; 0x5108
     ce0:	06080513 			; <UNDEFINED> instruction: 0x06080513
     ce4:	06150501 	ldreq	r0, [r5], -r1, lsl #10
     ce8:	0108052d 	tsteq	r8, sp, lsr #10
     cec:	02050106 	andeq	r0, r5, #-2147483647	; 0x80000001
     cf0:	0505a006 	streq	sl, [r5, #-6]
     cf4:	04050106 	streq	r0, [r5], #-262	; 0xfffffefa
     cf8:	2f110536 	svccs	0x00110536
     cfc:	052e0905 	streq	r0, [lr, #-2309]!	; 0xfffff6fb
     d00:	05053302 	streq	r3, [r5, #-770]	; 0xfffffcfe
     d04:	052e7203 	streq	r7, [lr, #-515]!	; 0xfffffdfd
     d08:	062f0602 	strteq	r0, [pc], -r2, lsl #12
     d0c:	060e0501 	streq	r0, [lr], -r1, lsl #10
     d10:	14020516 	strne	r0, [r2], #-1302	; 0xfffffaea
     d14:	13030513 	movwne	r0, #13587	; 0x3513
     d18:	15140205 	ldrne	r0, [r4, #-517]	; 0xfffffdfb
     d1c:	05010b05 	streq	r0, [r1, #-2821]	; 0xfffff4fb
     d20:	2e010602 	cfmadd32cs	mvax0, mvfx0, mvfx1, mvfx2
     d24:	67060305 	strvs	r0, [r6, -r5, lsl #6]
     d28:	01060a05 	tsteq	r6, r5, lsl #20
     d2c:	052d0205 	streq	r0, [sp, #-517]!	; 0xfffffdfb
     d30:	17052f0a 	strne	r2, [r5, -sl, lsl #30]
     d34:	0b052d06 	bleq	14c154 <__bss_end__+0x141a7c>
     d38:	06020501 	streq	r0, [r2], -r1, lsl #10
     d3c:	4c090501 	cfstr32mi	mvfx0, [r9], {1}
     d40:	0602052e 	streq	r0, [r2], -lr, lsr #10
     d44:	0609052e 	streq	r0, [r9], -lr, lsr #10
     d48:	06020501 	streq	r0, [r2], -r1, lsl #10
     d4c:	05010630 	streq	r0, [r1, #-1584]	; 0xfffff9d0
     d50:	01380301 	teqeq	r8, r1, lsl #6
     d54:	4f030905 	svcmi	0x00030905
     d58:	052e2e4a 	streq	r2, [lr, #-3658]!	; 0xfffff1b6
     d5c:	27030619 	smladcs	r3, r9, r6, r0
     d60:	131a054a 	tstne	sl, #310378496	; 0x12800000
     d64:	01062805 	tsteq	r6, r5, lsl #16
     d68:	052e1f05 	streq	r1, [lr, #-3845]!	; 0xfffff0fb
     d6c:	1f052f04 	svcne	0x00052f04
     d70:	060b052d 	streq	r0, [fp], -sp, lsr #10
     d74:	060e052f 	streq	r0, [lr], -pc, lsr #10
     d78:	2e040501 	cfsh32cs	mvfx0, mvfx4, #1
     d7c:	03060205 	movweq	r0, #25093	; 0x6205
     d80:	05134a59 	ldreq	r4, [r3, #-2649]	; 0xfffff5a7
     d84:	052e060b 	streq	r0, [lr, #-1547]!	; 0xfffff9f5
     d88:	05300602 	ldreq	r0, [r0, #-1538]!	; 0xfffff9fe
     d8c:	24020609 	strcs	r0, [r2], #-1545	; 0xfffff9f7
     d90:	0604050d 	streq	r0, [r4], -sp, lsl #10
     d94:	06051336 			; <UNDEFINED> instruction: 0x06051336
     d98:	05050106 	streq	r0, [r5, #-262]	; 0xfffffefa
     d9c:	13136706 	tstne	r3, #1572864	; 0x180000
     da0:	11060905 	tstne	r6, r5, lsl #18
     da4:	052b0d05 	streq	r0, [fp, #-3333]!	; 0xfffff2fb
     da8:	0d05300b 	stceq	0, cr3, [r5, #-44]	; 0xffffffd4
     dac:	351b052c 	ldrcc	r0, [fp, #-1324]	; 0xfffffad4
     db0:	2d060405 	cfstrscs	mvf0, [r6, #-20]	; 0xffffffec
     db4:	05130505 	ldreq	r0, [r3, #-1285]	; 0xfffffafb
     db8:	052e061b 	streq	r0, [lr, #-1563]!	; 0xfffff9e5
     dbc:	0405820a 	streq	r8, [r5], #-522	; 0xfffffdf6
     dc0:	2e0e052f 	cfsh32cs	mvfx0, mvfx14, #31
     dc4:	05490a05 	strbeq	r0, [r9, #-2565]	; 0xfffff5fb
     dc8:	052f060b 	streq	r0, [pc, #-1547]!	; 7c5 <__code_start__-0x783b>
     dcc:	06010604 	streq	r0, [r1], -r4, lsl #12
     dd0:	0606052f 	streq	r0, [r6], -pc, lsr #10
     dd4:	06050501 	streq	r0, [r5], -r1, lsl #10
     dd8:	060a052f 	streq	r0, [sl], -pc, lsr #10
     ddc:	07052e01 	streq	r2, [r5, -r1, lsl #28]
     de0:	052e2e2e 	streq	r2, [lr, #-3630]!	; 0xfffff1d2
     de4:	0d030604 	stceq	6, cr0, [r3, #-16]
     de8:	06020501 	streq	r0, [r2], -r1, lsl #10
     dec:	05014603 	streq	r4, [r1, #-1539]	; 0xfffff9fd
     df0:	2e3a0309 	cdpcs	3, 3, cr0, cr10, cr9, {0}
     df4:	2f060405 	svccs	0x00060405
     df8:	01010d03 	tsteq	r1, r3, lsl #26
     dfc:	05150205 	ldreq	r0, [r5, #-517]	; 0xfffffdfb
     e00:	7fb2030e 	svcvc	0x00b2030e
     e04:	13020501 	movwne	r0, #9473	; 0x2501
     e08:	01080514 	tsteq	r8, r4, lsl r5
     e0c:	10060605 	andne	r0, r6, r5, lsl #12
     e10:	052e3c03 	streq	r3, [lr, #-3075]!	; 0xfffff3fd
     e14:	4a460302 	bmi	1181a24 <__bss_end__+0x117734c>
     e18:	05053006 	streq	r3, [r5, #-6]
     e1c:	2e2e0106 	sufcse	f0, f6, f6
     e20:	4b060205 	blmi	18163c <__bss_end__+0x176f64>
     e24:	0e050106 	adfeqs	f0, f5, f6
     e28:	02051606 	andeq	r1, r5, #6291456	; 0x600000
     e2c:	15151314 	ldrne	r1, [r5, #-788]	; 0xfffffcec
     e30:	05010b05 	streq	r0, [r1, #-2821]	; 0xfffff4fb
     e34:	062e0602 	strteq	r0, [lr], -r2, lsl #12
     e38:	06090530 			; <UNDEFINED> instruction: 0x06090530
     e3c:	06020501 	streq	r0, [r2], -r1, lsl #10
     e40:	0501064c 	streq	r0, [r1, #-1612]	; 0xfffff9b4
     e44:	01380301 	teqeq	r8, r1, lsl #6
     e48:	6e030605 	cfmadd32vs	mvax0, mvfx0, mvfx3, mvfx5
     e4c:	0302054a 	movweq	r0, #9546	; 0x254a
     e50:	2e4a6646 	cdpcs	6, 4, cr6, cr10, cr6, {2}
     e54:	03060405 	movweq	r0, #25605	; 0x6405
     e58:	010100c8 	smlabteq	r1, r8, r0, r0
     e5c:	2e060101 	adfcss	f0, f6, f1
     e60:	034a0682 	movteq	r0, #42626	; 0xa682
     e64:	09052e72 	stmdbeq	r5, {r1, r4, r5, r6, r9, sl, fp, sp}
     e68:	04050106 	streq	r0, [r5], #-262	; 0xfffffefa
     e6c:	0d032f06 	stceq	15, cr2, [r3, #-24]	; 0xffffffe8
     e70:	02050101 	andeq	r0, r5, #1073741824	; 0x40000000
     e74:	030e0515 	movweq	r0, #58645	; 0xe515
     e78:	05017fb2 	streq	r7, [r1, #-4018]	; 0xfffff04e
     e7c:	05141302 	ldreq	r1, [r4, #-770]	; 0xfffffcfe
     e80:	09050108 	stmdbeq	r5, {r3, r8}
     e84:	011b0306 	tsteq	fp, r6, lsl #6
     e88:	63030605 	movwvs	r0, #13829	; 0x3605
     e8c:	2e3c032e 	cdpcs	3, 3, cr0, cr12, cr14, {1}
     e90:	48052e2e 	stmdami	r5, {r1, r2, r3, r5, r9, sl, fp, sp}
     e94:	7fb40306 	svcvc	0x00b40306
     e98:	05053c08 	streq	r3, [r5, #-3080]	; 0xfffff3f8
     e9c:	2e060113 	mcrcs	1, 0, r0, cr6, cr3, {0}
     ea0:	02040200 	andeq	r0, r4, #0, 4
     ea4:	02002e06 	andeq	r2, r0, #96	; 0x60
     ea8:	00010204 	andeq	r0, r1, r4, lsl #4
     eac:	13020402 	movwne	r0, #9218	; 0x2402
     eb0:	02001105 	andeq	r1, r0, #1073741825	; 0x40000001
     eb4:	01060204 	tsteq	r6, r4, lsl #4
     eb8:	02000705 	andeq	r0, r0, #1310720	; 0x140000
     ebc:	052f0204 	streq	r0, [pc, #-516]!	; cc0 <__code_start__-0x7340>
     ec0:	04020011 	streq	r0, [r2], #-17	; 0xffffffef
     ec4:	05052d02 	streq	r2, [r5, #-3330]	; 0xfffff2fe
     ec8:	02040200 	andeq	r0, r4, #0, 4
     ecc:	09052f06 	stmdbeq	r5, {r1, r2, r8, r9, sl, fp, sp}
     ed0:	02040200 	andeq	r0, r4, #0, 4
     ed4:	000e0513 	andeq	r0, lr, r3, lsl r5
     ed8:	06020402 	streq	r0, [r2], -r2, lsl #8
     edc:	00050501 	andeq	r0, r5, r1, lsl #10
     ee0:	06010402 	streq	r0, [r1], -r2, lsl #8
     ee4:	04020063 	streq	r0, [r2], #-99	; 0xffffff9d
     ee8:	48050101 	stmdami	r5, {r0, r8}
     eec:	01040200 	mrseq	r0, R12_usr
     ef0:	05051106 	streq	r1, [r5, #-262]	; 0xfffffefa
     ef4:	01040200 	mrseq	r0, R12_usr
     ef8:	0048052f 	subeq	r0, r8, pc, lsr #10
     efc:	2d010402 	cfstrscs	mvf0, [r1, #-8]
     f00:	02000505 	andeq	r0, r0, #20971520	; 0x1400000
     f04:	002f0104 	eoreq	r0, pc, r4, lsl #2
     f08:	4a010402 	bmi	41f18 <__bss_end__+0x37840>
     f0c:	01040200 	mrseq	r0, R12_usr
     f10:	0402004a 	streq	r0, [r2], #-74	; 0xffffffb6
     f14:	054a0601 	strbeq	r0, [sl, #-1537]	; 0xfffff9ff
     f18:	00e10340 	rsceq	r0, r1, r0, asr #6
     f1c:	050106d6 	streq	r0, [r1, #-1750]	; 0xfffff92a
     f20:	052e4e09 	streq	r4, [lr, #-3593]!	; 0xfffff1f7
     f24:	1e053008 	cdpne	0, 0, cr3, cr5, cr8, {0}
     f28:	2e120529 	cfmul64cs	mvdx0, mvdx2, mvdx9
     f2c:	05330d05 	ldreq	r0, [r3, #-3333]!	; 0xfffff2fb
     f30:	05450602 	strbeq	r0, [r5, #-1538]	; 0xfffff9fe
     f34:	02051305 	andeq	r1, r5, #335544320	; 0x14000000
     f38:	13050514 	movwne	r0, #21780	; 0x5514
     f3c:	05130205 	ldreq	r0, [r3, #-517]	; 0xfffffdfb
     f40:	40050108 	andmi	r0, r5, r8, lsl #2
     f44:	017a0306 	cmneq	sl, r6, lsl #6
     f48:	340d052e 	strcc	r0, [sp], #-1326	; 0xfffffad2
     f4c:	03110566 	tsteq	r1, #427819008	; 0x19800000
     f50:	054a4a20 	strbeq	r4, [sl, #-2592]	; 0xfffff5e0
     f54:	62030604 	andvs	r0, r3, #4, 12	; 0x400000
     f58:	06090501 	streq	r0, [r9], -r1, lsl #10
     f5c:	2e0f0501 	cfsh32cs	mvfx0, mvfx15, #1
     f60:	2c060805 	stccs	8, cr0, [r6], {5}
     f64:	2e060d05 	cdpcs	13, 0, cr0, cr6, cr5, {0}
     f68:	67060305 	strvs	r0, [r6, -r5, lsl #6]
     f6c:	01060505 	tsteq	r6, r5, lsl #10
     f70:	4d060805 	stcmi	8, cr0, [r6, #-20]	; 0xffffffec
     f74:	01060e05 	tsteq	r6, r5, lsl #28
     f78:	052e0a05 	streq	r0, [lr, #-2565]!	; 0xfffff5fb
     f7c:	04052f09 	streq	r2, [r5], #-3849	; 0xfffff0f7
     f80:	07052f06 	streq	r2, [r5, -r6, lsl #30]
     f84:	0a050106 	beq	1413a4 <__bss_end__+0x136ccc>
     f88:	0604052c 	streq	r0, [r4], -ip, lsr #10
     f8c:	062d0532 			; <UNDEFINED> instruction: 0x062d0532
     f90:	017f9803 	cmneq	pc, r3, lsl #16
     f94:	ed030905 	vstr.16	s0, [r3, #-10]
     f98:	0d052e00 	stceq	14, cr2, [r5, #-0]
     f9c:	2b07052c 	blcs	1c2454 <__bss_end__+0x1b7d7c>
     fa0:	30060405 	andcc	r0, r6, r5, lsl #8
     fa4:	09051413 	stmdbeq	r5, {r0, r1, r4, sl, ip}
     fa8:	030c0501 	movweq	r0, #50433	; 0xc501
     fac:	05017f93 	streq	r7, [r1, #-3987]	; 0xfffff06d
     fb0:	0106011d 	tsteq	r6, sp, lsl r1
     fb4:	ed030905 	vstr.16	s0, [r3, #-10]
     fb8:	05050100 	streq	r0, [r5, #-256]	; 0xffffff00
     fbc:	12052f06 	andne	r2, r5, #6, 30
     fc0:	2d2e0106 	stfcss	f0, [lr, #-24]!	; 0xffffffe8
     fc4:	052f0b05 	streq	r0, [pc, #-2821]!	; 4c7 <__code_start__-0x7b39>
     fc8:	052f0605 	streq	r0, [pc, #-1541]!	; 9cb <__code_start__-0x7635>
     fcc:	0c051009 	stceq	0, cr1, [r5], {9}
     fd0:	017f9303 	cmneq	pc, r3, lsl #6
     fd4:	05011d05 	streq	r1, [r1, #-3333]	; 0xfffff2fb
     fd8:	0501062d 	streq	r0, [r1, #-1581]	; 0xfffff9d3
     fdc:	00ed0309 	rsceq	r0, sp, r9, lsl #6
     fe0:	0604052e 	streq	r0, [r4], -lr, lsr #10
     fe4:	0200014e 	andeq	r0, r0, #-2147483629	; 0x80000013
     fe8:	004a0204 	subeq	r0, sl, r4, lsl #4
     fec:	01020402 	tsteq	r2, r2, lsl #8
     ff0:	02040200 	andeq	r0, r4, #0, 4
     ff4:	04020015 	streq	r0, [r2], #-21	; 0xffffffeb
     ff8:	36020602 	strcc	r0, [r2], -r2, lsl #12
     ffc:	04020012 	streq	r0, [r2], #-18	; 0xffffffee
    1000:	02052e02 	andeq	r2, r5, #2, 28
    1004:	00d10306 	sbcseq	r0, r1, r6, lsl #6
    1008:	06070501 	streq	r0, [r7], -r1, lsl #10
    100c:	02052e01 	andeq	r2, r5, #1, 28
    1010:	0b052f06 	bleq	14cc30 <__bss_end__+0x142558>
    1014:	01050106 	tsteq	r5, r6, lsl #2
    1018:	0605052f 	streq	r0, [r5], -pc, lsr #10
    101c:	054a6503 	strbeq	r6, [sl, #-1283]	; 0xfffffafd
    1020:	66010609 	strvs	r0, [r1], -r9, lsl #12
    1024:	9f060505 	svcls	0x00060505
    1028:	11030405 	tstne	r3, r5, lsl #8
    102c:	06070501 	streq	r0, [r7], -r1, lsl #10
    1030:	06040501 	streq	r0, [r4], -r1, lsl #10
    1034:	010a0531 	tsteq	sl, r1, lsr r5
    1038:	02001305 	andeq	r1, r0, #335544320	; 0x14000000
    103c:	2e060104 	adfcss	f0, f6, f4
    1040:	02001005 	andeq	r1, r0, #5, 0
    1044:	052e0104 	streq	r0, [lr, #-260]!	; 0xfffffefc
    1048:	054b0605 	strbeq	r0, [fp, #-1541]	; 0xfffff9fb
    104c:	0601060a 	streq	r0, [r1], -sl, lsl #12
    1050:	0604052d 	streq	r0, [r4], -sp, lsr #10
    1054:	06110501 	ldreq	r0, [r1], -r1, lsl #10
    1058:	667fb603 	ldrbtvs	fp, [pc], -r3, lsl #12
    105c:	02000113 	andeq	r0, r0, #-1073741820	; 0xc0000004
    1060:	ba060204 	blt	181878 <__bss_end__+0x1771a0>
    1064:	1401ba06 	strne	fp, [r1], #-2566	; 0xfffff5fa
    1068:	13061a05 	movwne	r1, #27141	; 0x6a05
    106c:	11052e2e 	tstne	r5, lr, lsr #28
    1070:	1405674e 	strne	r6, [r5], #-1870	; 0xfffff8b2
    1074:	82130568 	andshi	r0, r3, #104, 10	; 0x1a000000
    1078:	78031505 	stmdavc	r3, {r0, r2, r8, sl, ip}
    107c:	0611054a 	ldreq	r0, [r1], -sl, asr #10
    1080:	1413134b 	ldrne	r1, [r3], #-843	; 0xfffffcb5
    1084:	13051413 	movwne	r1, #21523	; 0x5413
    1088:	09050106 	stmdbeq	r5, {r1, r2, r8}
    108c:	0d052f06 	stceq	15, cr2, [r5, #-24]	; 0xffffffe8
    1090:	2e2e0106 	sufcse	f0, f6, f6
    1094:	05bb0905 	ldreq	r0, [fp, #2309]!	; 0x905
    1098:	09059d0d 	stmdbeq	r5, {r0, r2, r3, r8, sl, fp, ip, pc}
    109c:	15052f06 	strne	r2, [r5, #-3846]	; 0xfffff0fa
    10a0:	7503062f 	strvc	r0, [r3, #-1583]	; 0xfffff9d1
    10a4:	2e0b034a 	cdpcs	3, 0, cr0, cr11, cr10, {2}
    10a8:	0605054a 	streq	r0, [r5], -sl, asr #10
    10ac:	05012303 	streq	r2, [r1, #-771]	; 0xfffffcfd
    10b0:	2e010609 	cfmadd32cs	mvax0, mvfx0, mvfx1, mvfx9
    10b4:	d7060505 	strle	r0, [r6, -r5, lsl #10]
    10b8:	032e6e03 			; <UNDEFINED> instruction: 0x032e6e03
    10bc:	0905010e 	stmdbeq	r5, {r1, r2, r3, r8}
    10c0:	05050106 	streq	r0, [r5, #-262]	; 0xfffffefa
    10c4:	4a100306 	bmi	401ce4 <__bss_end__+0x3f760c>
    10c8:	ed030105 	stfs	f0, [r3, #-20]	; 0xffffffec
    10cc:	0205017e 	andeq	r0, r5, #-2147483617	; 0x8000001f
    10d0:	14131514 	ldrne	r1, [r3], #-1300	; 0xfffffaec
    10d4:	1a030405 	bne	c20f0 <__bss_end__+0xb7a18>
    10d8:	06090501 	streq	r0, [r9], -r1, lsl #10
    10dc:	03020501 	movweq	r0, #9473	; 0x2501
    10e0:	09052e46 	stmdbeq	r5, {r1, r2, r6, r9, sl, fp, sp}
    10e4:	052e3a03 	streq	r3, [lr, #-2563]!	; 0xfffff5fd
    10e8:	032f0604 			; <UNDEFINED> instruction: 0x032f0604
    10ec:	0501010d 	streq	r0, [r1, #-269]	; 0xfffffef3
    10f0:	0e051502 	cfsh32eq	mvfx1, mvfx5, #2
    10f4:	017fb203 	cmneq	pc, r3, lsl #4
    10f8:	14130205 	ldrne	r0, [r3], #-517	; 0xfffffdfb
    10fc:	05010805 	streq	r0, [r1, #-2053]	; 0xfffff7fb
    1100:	05010602 	streq	r0, [r1, #-1538]	; 0xfffff9fe
    1104:	03059f08 	movweq	r9, #24328	; 0x5f08
    1108:	01064a06 	tsteq	r6, r6, lsl #20
    110c:	052e0805 	streq	r0, [lr, #-2053]!	; 0xfffff7fb
    1110:	052d0615 	streq	r0, [sp, #-1557]!	; 0xfffff9eb
    1114:	03050108 	movweq	r0, #20744	; 0x5108
    1118:	0501062f 	streq	r0, [r1, #-1583]	; 0xfffff9d1
    111c:	15052e08 	strne	r2, [r5, #-3592]	; 0xfffff1f8
    1120:	08052d06 	stmdaeq	r5, {r1, r2, r8, sl, fp, sp}
    1124:	2f030501 	svccs	0x00030501
    1128:	08050106 	stmdaeq	r5, {r1, r2, r8}
    112c:	0615052e 	ldreq	r0, [r5], -lr, lsr #10
    1130:	0108052d 	tsteq	r8, sp, lsr #10
    1134:	062f0305 	strteq	r0, [pc], -r5, lsl #6
    1138:	2e080501 	cfsh32cs	mvfx0, mvfx8, #1
    113c:	2d061505 	cfstr32cs	mvfx1, [r6, #-20]	; 0xffffffec
    1140:	05010805 	streq	r0, [r1, #-2053]	; 0xfffff7fb
    1144:	01062f03 	tsteq	r6, r3, lsl #30
    1148:	052e0805 	streq	r0, [lr, #-2053]!	; 0xfffff7fb
    114c:	052d0615 	streq	r0, [sp, #-1557]!	; 0xfffff9eb
    1150:	03050108 	movweq	r0, #20744	; 0x5108
    1154:	0501062f 	streq	r0, [r1, #-1583]	; 0xfffff9d1
    1158:	15052e08 	strne	r2, [r5, #-3592]	; 0xfffff1f8
    115c:	08052d06 	stmdaeq	r5, {r1, r2, r8, sl, fp, sp}
    1160:	13030501 	movwne	r0, #13569	; 0x3501
    1164:	01060805 	tsteq	r6, r5, lsl #16
    1168:	2d061505 	cfstr32cs	mvfx1, [r6, #-20]	; 0xffffffec
    116c:	06010805 	streq	r0, [r1], -r5, lsl #16
    1170:	06030566 	streq	r0, [r3], -r6, ror #10
    1174:	06080567 	streq	r0, [r8], -r7, ror #10
    1178:	2d180501 	cfldr32cs	mvfx0, [r8, #-4]
    117c:	052e0205 	streq	r0, [lr, #-517]!	; 0xfffffdfb
    1180:	15052f08 	strne	r2, [r5, #-3848]	; 0xfffff0f8
    1184:	08052d06 	stmdaeq	r5, {r1, r2, r8, sl, fp, sp}
    1188:	06020501 	streq	r0, [r2], -r1, lsl #10
    118c:	06030501 	streq	r0, [r3], -r1, lsl #10
    1190:	0618052f 	ldreq	r0, [r8], -pc, lsr #10
    1194:	2e020511 	mcrcs	5, 0, r0, cr2, cr1, {0}
    1198:	052f0805 	streq	r0, [pc, #-2053]!	; 99b <__code_start__-0x7665>
    119c:	052d0615 	streq	r0, [sp, #-1557]!	; 0xfffff9eb
    11a0:	03050108 	movweq	r0, #20744	; 0x5108
    11a4:	06080513 			; <UNDEFINED> instruction: 0x06080513
    11a8:	06150501 	ldreq	r0, [r5], -r1, lsl #10
    11ac:	0108052d 	tsteq	r8, sp, lsr #10
    11b0:	14060505 	strne	r0, [r6], #-1285	; 0xfffffafb
    11b4:	0602054a 	streq	r0, [r2], -sl, asr #10
    11b8:	060e052e 	streq	r0, [lr], -lr, lsr #10
    11bc:	2f040519 	svccs	0x00040519
    11c0:	052f1105 	streq	r1, [pc, #-261]!	; 10c3 <__code_start__-0x6f3d>
    11c4:	02054a09 	andeq	r4, r5, #36864	; 0x9000
    11c8:	03050533 	movweq	r0, #21811	; 0x5533
    11cc:	02052e72 	andeq	r2, r5, #1824	; 0x720
    11d0:	01062f06 	tsteq	r6, r6, lsl #30
    11d4:	16060e05 	strne	r0, [r6], -r5, lsl #28
    11d8:	13140205 	tstne	r4, #1342177280	; 0x50000000
    11dc:	05130305 	ldreq	r0, [r3, #-773]	; 0xfffffcfb
    11e0:	05151402 	ldreq	r1, [r5, #-1026]	; 0xfffffbfe
    11e4:	0205010b 	andeq	r0, r5, #-1073741822	; 0xc0000002
    11e8:	662e0106 	strtvs	r0, [lr], -r6, lsl #2
    11ec:	2f060305 	svccs	0x00060305
    11f0:	01060a05 	tsteq	r6, r5, lsl #20
    11f4:	052d0205 	streq	r0, [sp, #-517]!	; 0xfffffdfb
    11f8:	17052f0a 	strne	r2, [r5, -sl, lsl #30]
    11fc:	0b052d06 	bleq	14c61c <__bss_end__+0x141f44>
    1200:	06020501 	streq	r0, [r2], -r1, lsl #10
    1204:	054a4a01 	strbeq	r4, [sl, #-2561]	; 0xfffff5ff
    1208:	95030605 	strls	r0, [r3, #-1541]	; 0xfffff9fb
    120c:	11050101 	tstne	r5, r1, lsl #2
    1210:	7ef80306 	cdpvc	3, 15, cr0, cr8, cr6, {0}
    1214:	031b0501 	tsteq	fp, #4194304	; 0x400000
    1218:	054a0188 	strbeq	r0, [sl, #-392]	; 0xfffffe78
    121c:	f3030601 	vmax.u8	d0, d3, d1
    1220:	02052e7e 	andeq	r2, r5, #2016	; 0x7e0
    1224:	14131514 	ldrne	r1, [r3], #-1300	; 0xfffffaec
    1228:	22031905 	andcs	r1, r3, #81920	; 0x14000
    122c:	131a0501 	tstne	sl, #4194304	; 0x400000
    1230:	01062805 	tsteq	r6, r5, lsl #16
    1234:	052e1f05 	streq	r1, [lr, #-3845]!	; 0xfffff0fb
    1238:	0e052f04 	cdpeq	15, 0, cr2, cr5, cr4, {0}
    123c:	2d1f054a 	cfldr32cs	mvfx0, [pc, #-296]	; 111c <__code_start__-0x6ee4>
    1240:	2f060b05 	svccs	0x00060b05
    1244:	01060405 	tsteq	r6, r5, lsl #8
    1248:	05013206 	streq	r3, [r1, #-518]	; 0xfffffdfa
    124c:	0e051502 	cfsh32eq	mvfx1, mvfx5, #2
    1250:	017fb203 	cmneq	pc, r3, lsl #4
    1254:	05130205 	ldreq	r0, [r3, #-517]	; 0xfffffdfb
    1258:	05010606 	streq	r0, [r1, #-1542]	; 0xfffff9fa
    125c:	05300602 	ldreq	r0, [r0, #-1538]!	; 0xfffff9fe
    1260:	02050108 	andeq	r0, r5, #2
    1264:	03050106 	movweq	r0, #20742	; 0x5106
    1268:	05210806 	streq	r0, [r1, #-2054]!	; 0xfffff7fa
    126c:	05010608 	streq	r0, [r1, #-1544]	; 0xfffff9f8
    1270:	05490615 	strbeq	r0, [r9, #-1557]	; 0xfffff9eb
    1274:	03050108 	movweq	r0, #20744	; 0x5108
    1278:	060805d7 			; <UNDEFINED> instruction: 0x060805d7
    127c:	2d180501 	cfldr32cs	mvfx0, [r8, #-4]
    1280:	052e0205 	streq	r0, [lr, #-517]!	; 0xfffffdfb
    1284:	15052f08 	strne	r2, [r5, #-3848]	; 0xfffff0f8
    1288:	08052d06 	stmdaeq	r5, {r1, r2, r8, sl, fp, sp}
    128c:	06020501 	streq	r0, [r2], -r1, lsl #10
    1290:	06030501 	streq	r0, [r3], -r1, lsl #10
    1294:	0618052f 	ldreq	r0, [r8], -pc, lsr #10
    1298:	2e020511 	mcrcs	5, 0, r0, cr2, cr1, {0}
    129c:	052f0805 	streq	r0, [pc, #-2053]!	; a9f <__code_start__-0x7561>
    12a0:	052d0615 	streq	r0, [sp, #-1557]!	; 0xfffff9eb
    12a4:	03050108 	movweq	r0, #20744	; 0x5108
    12a8:	06080513 			; <UNDEFINED> instruction: 0x06080513
    12ac:	06150501 	ldreq	r0, [r5], -r1, lsl #10
    12b0:	0108052d 	tsteq	r8, sp, lsr #10
    12b4:	14060505 	strne	r0, [r6], #-1285	; 0xfffffafb
    12b8:	66060205 	strvs	r0, [r6], -r5, lsl #4
    12bc:	1a060405 	bne	1822d8 <__bss_end__+0x177c00>
    12c0:	78030505 	stmdavc	r3, {r0, r2, r8, sl}
    12c4:	0602054a 	streq	r0, [r2], -sl, asr #10
    12c8:	0501062f 	streq	r0, [r1, #-1583]	; 0xfffff9d1
    12cc:	0516060e 	ldreq	r0, [r6, #-1550]	; 0xfffff9f2
    12d0:	05131402 	ldreq	r1, [r3, #-1026]	; 0xfffffbfe
    12d4:	05010604 	streq	r0, [r1, #-1540]	; 0xfffff9fc
    12d8:	052f0603 	streq	r0, [pc, #-1539]!	; cdd <__code_start__-0x7323>
    12dc:	05010611 	streq	r0, [r1, #-1553]	; 0xfffff9ef
    12e0:	02052e09 	andeq	r2, r5, #144	; 0x90
    12e4:	05153006 	ldreq	r3, [r5, #-6]
    12e8:	0205010b 	andeq	r0, r5, #-1073741822	; 0xc0000002
    12ec:	4a4a0106 	bmi	128170c <__bss_end__+0x1277034>
    12f0:	0603052e 	streq	r0, [r3], -lr, lsr #10
    12f4:	060a052f 	streq	r0, [sl], -pc, lsr #10
    12f8:	2d020501 	cfstr32cs	mvfx0, [r2, #-4]
    12fc:	052f0a05 	streq	r0, [pc, #-2565]!	; 8ff <__code_start__-0x7701>
    1300:	052d0617 	streq	r0, [sp, #-1559]!	; 0xfffff9e9
    1304:	0205010b 	andeq	r0, r5, #-1073741822	; 0xc0000002
    1308:	2e4a0106 	dvfcse	f0, f2, f6
    130c:	09051406 	stmdbeq	r5, {r1, r2, sl, ip}
    1310:	02050106 	andeq	r0, r5, #-2147483647	; 0x80000001
    1314:	01064c06 	tsteq	r6, r6, lsl #24
    1318:	03060505 	movweq	r0, #25861	; 0x6505
    131c:	2a010198 	bcs	41984 <__bss_end__+0x372ac>
    1320:	01060705 	tsteq	r6, r5, lsl #14
    1324:	2f060505 	svccs	0x00060505
    1328:	53031805 	movwpl	r1, #14341	; 0x3805
    132c:	061b052e 	ldreq	r0, [fp], -lr, lsr #10
    1330:	821a0501 	andshi	r0, sl, #4194304	; 0x400000
    1334:	4b060905 	blmi	183750 <__bss_end__+0x179078>
    1338:	01060d05 	tsteq	r6, r5, lsl #26
    133c:	d709052e 	strle	r0, [r9, -lr, lsr #10]
    1340:	059d0d05 	ldreq	r0, [sp, #3333]	; 0xd05
    1344:	052f0609 	streq	r0, [pc, #-1545]!	; d43 <__code_start__-0x72bd>
    1348:	18053015 	stmdane	r5, {r0, r2, r4, ip, sp}
    134c:	17050106 	strne	r0, [r5, -r6, lsl #2]
    1350:	2f190566 	svccs	0x00190566
    1354:	05491705 	strbeq	r1, [r9, #-1797]	; 0xfffff8fb
    1358:	052f0619 	streq	r0, [pc, #-1561]!	; d47 <__code_start__-0x72b9>
    135c:	6f030615 	svcvs	0x00030615
    1360:	0619052e 	ldreq	r0, [r9], -lr, lsr #10
    1364:	054a1303 	strbeq	r1, [sl, #-771]	; 0xfffffcfd
    1368:	6d030615 	stcvs	6, cr0, [r3, #-84]	; 0xffffffac
    136c:	02054a2e 	andeq	r4, r5, #188416	; 0x2e000
    1370:	017fa003 	cmneq	pc, r3
    1374:	72030666 	andvc	r0, r3, #106954752	; 0x6600000
    1378:	06050501 	streq	r0, [r5], -r1, lsl #10
    137c:	36040501 	strcc	r0, [r4], -r1, lsl #10
    1380:	78030505 	stmdavc	r3, {r0, r2, r8, sl}
    1384:	0602052e 	streq	r0, [r2], -lr, lsr #10
    1388:	0501062f 	streq	r0, [r1, #-1583]	; 0xfffff9d1
    138c:	0516060e 	ldreq	r0, [r6, #-1550]	; 0xfffff9f2
    1390:	05131402 	ldreq	r1, [r3, #-1026]	; 0xfffffbfe
    1394:	4a010604 	bmi	42bac <__bss_end__+0x384d4>
    1398:	03060205 	movweq	r0, #25093	; 0x6205
    139c:	05050178 	streq	r0, [r5, #-376]	; 0xfffffe88
    13a0:	054a0106 	strbeq	r0, [sl, #-262]	; 0xfffffefa
    13a4:	064b0602 	strbeq	r0, [fp], -r2, lsl #12
    13a8:	060e0501 	streq	r0, [lr], -r1, lsl #10
    13ac:	14020516 	strne	r0, [r2], #-1302	; 0xfffffaea
    13b0:	05151513 	ldreq	r1, [r5, #-1299]	; 0xfffffaed
    13b4:	2e06010b 	adfcss	f0, f6, #3.0
    13b8:	03061105 	movweq	r1, #24837	; 0x6105
    13bc:	0501019e 	streq	r0, [r1, #-414]	; 0xfffffe62
    13c0:	05010622 	streq	r0, [r1, #-1570]	; 0xfffff9de
    13c4:	22052f05 	andcs	r2, r5, #5, 30
    13c8:	0605052d 	streq	r0, [r5], -sp, lsr #10
    13cc:	4b11052f 	blmi	442890 <__bss_end__+0x4381b8>
    13d0:	01830505 	orreq	r0, r3, r5, lsl #10
    13d4:	2e5c039e 	mrccs	3, 2, r0, cr12, cr14, {4}
    13d8:	02059e01 	andeq	r9, r5, #1, 28
    13dc:	7ef30306 	cdpvc	3, 15, cr0, cr3, cr6, {0}
    13e0:	06052e2e 	streq	r2, [r5], -lr, lsr #28
    13e4:	0d054a2c 	vstreq	s8, [r5, #-176]	; 0xffffff50
    13e8:	0100d803 	tsteq	r0, r3, lsl #16
    13ec:	02000405 	andeq	r0, r0, #83886080	; 0x5000000
    13f0:	03060104 	movweq	r0, #24836	; 0x6104
    13f4:	02004a11 	andeq	r4, r0, #69632	; 0x11000
    13f8:	05010104 	streq	r0, [r1, #-260]	; 0xfffffefc
    13fc:	06510611 			; <UNDEFINED> instruction: 0x06510611
    1400:	0315059e 	tsteq	r5, #662700032	; 0x27800000
    1404:	ba012e17 	blt	4cc68 <__bss_end__+0x42590>
    1408:	69031105 	stmdbvs	r3, {r0, r2, r8, ip}
    140c:	2802012e 	stmdacs	r2, {r1, r2, r3, r5, r8}
    1410:	87010100 	strhi	r0, [r1, -r0, lsl #2]
    1414:	03000000 	movweq	r0, #0
    1418:	00006400 	andeq	r6, r0, r0, lsl #8
    141c:	fb010200 	blx	41c26 <__bss_end__+0x3754e>
    1420:	01000d0e 	tsteq	r0, lr, lsl #26
    1424:	00010101 	andeq	r0, r1, r1, lsl #2
    1428:	00010000 	andeq	r0, r1, r0
    142c:	2f2e0100 	svccs	0x002e0100
    1430:	66617473 			; <UNDEFINED> instruction: 0x66617473
    1434:	72732d66 	rsbsvc	r2, r3, #6528	; 0x1980
    1438:	552f0063 	strpl	r0, [pc, #-99]!	; 13dd <__code_start__-0x6c23>
    143c:	73726573 	cmnvc	r2, #482344960	; 0x1cc00000
    1440:	6c696d2f 	stclvs	13, cr6, [r9], #-188	; 0xffffff44
    1444:	532f7365 			; <UNDEFINED> instruction: 0x532f7365
    1448:	6372756f 	cmnvs	r2, #465567744	; 0x1bc00000
    144c:	73632f65 	cmnvc	r3, #404	; 0x194
    1450:	6c303432 	cfldrsvs	mvf3, [r0], #-200	; 0xffffff38
    1454:	696c2f78 	stmdbvs	ip!, {r3, r4, r5, r6, r8, r9, sl, fp, sp}^
    1458:	2f697062 	svccs	0x00697062
    145c:	6c636e69 	stclvs	14, cr6, [r3], #-420	; 0xfffffe5c
    1460:	00656475 	rsbeq	r6, r5, r5, ror r4
    1464:	656c6300 	strbvs	r6, [ip, #-768]!	; 0xfffffd00
    1468:	722d6e61 	eorvc	r6, sp, #1552	; 0x610
    146c:	6f6f6265 	svcvs	0x006f6265
    1470:	00632e74 	rsbeq	r2, r3, r4, ror lr
    1474:	72000001 	andvc	r0, r0, #1, 0
    1478:	682e6970 	stmdavs	lr!, {r4, r5, r6, r8, fp, sp, lr}
    147c:	00000200 	andeq	r0, r0, r0, lsl #4
    1480:	00190500 	andseq	r0, r9, r0, lsl #10
    1484:	91e40205 	mvnls	r0, r5, lsl #4
    1488:	05150000 	ldreq	r0, [r5, #-0]
    148c:	19051305 	stmdbne	r5, {r0, r2, r8, r9, ip}
    1490:	05052d06 	streq	r2, [r5, #-3334]	; 0xfffff2fa
    1494:	2f67062f 	svccs	0x0067062f
    1498:	0006024b 	andeq	r0, r6, fp, asr #4
    149c:	01120101 	tsteq	r2, r1, lsl #2
    14a0:	00030000 	andeq	r0, r3, r0
    14a4:	0000005e 	andeq	r0, r0, lr, asr r0
    14a8:	0efb0102 	cdpeq	1, 15, cr0, cr11, cr2, {0}
    14ac:	0101000d 	tsteq	r1, sp
    14b0:	00000101 	andeq	r0, r0, r1, lsl #2
    14b4:	00000100 	andeq	r0, r0, r0, lsl #2
    14b8:	732f2e01 			; <UNDEFINED> instruction: 0x732f2e01
    14bc:	66666174 			; <UNDEFINED> instruction: 0x66666174
    14c0:	6372732d 	cmnvs	r2, #-1275068416	; 0xb4000000
    14c4:	73552f00 	cmpvc	r5, #0, 30
    14c8:	2f737265 	svccs	0x00737265
    14cc:	656c696d 	strbvs	r6, [ip, #-2413]!	; 0xfffff693
    14d0:	6f532f73 	svcvs	0x00532f73
    14d4:	65637275 	strbvs	r7, [r3, #-629]!	; 0xfffffd8b
    14d8:	3273632f 	rsbscc	r6, r3, #-1140850688	; 0xbc000000
    14dc:	786c3034 	stmdavc	ip!, {r2, r4, r5, ip, sp}^
    14e0:	62696c2f 	rsbvs	r6, r9, #12032	; 0x2f00
    14e4:	692f6970 	stmdbvs	pc!, {r4, r5, r6, r8, fp, sp, lr}	; <UNPREDICTABLE>
    14e8:	756c636e 	strbvc	r6, [ip, #-878]!	; 0xfffffc92
    14ec:	00006564 	andeq	r6, r0, r4, ror #10
    14f0:	61747363 	cmnvs	r4, r3, ror #6
    14f4:	632e7472 			; <UNDEFINED> instruction: 0x632e7472
    14f8:	00000100 	andeq	r0, r0, r0, lsl #2
    14fc:	2e697072 	mcrcs	0, 3, r7, cr9, cr2, {3}
    1500:	00020068 	andeq	r0, r2, r8, rrx
    1504:	10050000 	andne	r0, r5, r0
    1508:	10020500 	andne	r0, r2, r0, lsl #10
    150c:	15000092 	strne	r0, [r0, #-146]	; 0xffffff6e
    1510:	05130505 	ldreq	r0, [r3, #-1285]	; 0xfffffafb
    1514:	05051302 	streq	r1, [r5, #-770]	; 0xfffffcfe
    1518:	06100514 			; <UNDEFINED> instruction: 0x06100514
    151c:	3205050e 	andcc	r0, r5, #58720256	; 0x3800000
    1520:	14133006 	ldrne	r3, [r3], #-6
    1524:	05010a05 	streq	r0, [r1, #-2565]	; 0xfffff5fb
    1528:	05910809 	ldreq	r0, [r1, #2057]	; 0x809
    152c:	05010610 	streq	r0, [r1, #-1552]	; 0xfffff9f0
    1530:	10059a0a 	andne	r9, r5, sl, lsl #20
    1534:	060a056a 	streq	r0, [sl], -sl, ror #10
    1538:	2f09052d 	svccs	0x0009052d
    153c:	01061005 	tsteq	r6, r5
    1540:	2d060a05 	vstrcs	s0, [r6, #-20]	; 0xffffffec
    1544:	05bb0905 	ldreq	r0, [fp, #2309]!	; 0x905
    1548:	05010610 	streq	r0, [r1, #-1552]	; 0xfffff9f0
    154c:	0565060a 	strbeq	r0, [r5, #-1546]!	; 0xfffff9f6
    1550:	0d054b09 	vstreq	d4, [r5, #-36]	; 0xffffffdc
    1554:	0a050106 	beq	141974 <__bss_end__+0x13729c>
    1558:	2f10052d 	svccs	0x0010052d
    155c:	2d060a05 	vstrcs	s0, [r6, #-20]	; 0xffffffec
    1560:	052f0905 	streq	r0, [pc, #-2309]!	; c63 <__code_start__-0x739d>
    1564:	0501060d 	streq	r0, [r1, #-1549]	; 0xfffff9f3
    1568:	10052d0a 	andne	r2, r5, sl, lsl #26
    156c:	060a052f 	streq	r0, [sl], -pc, lsr #10
    1570:	2f09052d 	svccs	0x0009052d
    1574:	01060d05 	tsteq	r6, r5, lsl #26
    1578:	052d0a05 	streq	r0, [sp, #-2565]!	; 0xfffff5fb
    157c:	0a052f10 	beq	14d1c4 <__bss_end__+0x142aec>
    1580:	09052d06 	stmdbeq	r5, {r1, r2, r8, sl, fp, sp}
    1584:	060d052f 	streq	r0, [sp], -pc, lsr #10
    1588:	2d0a0501 	cfstr32cs	mvfx0, [sl, #-4]
    158c:	052f1005 	streq	r1, [pc, #-5]!	; 158f <__code_start__-0x6a71>
    1590:	052d060a 	streq	r0, [sp, #-1546]!	; 0xfffff9f6
    1594:	10051309 	andne	r1, r5, r9, lsl #6
    1598:	0a050106 	beq	1419b8 <__bss_end__+0x1372e0>
    159c:	05052d06 	streq	r2, [r5, #-3334]	; 0xfffff2fa
    15a0:	01013215 	tsteq	r1, r5, lsl r2
    15a4:	0205144a 	andeq	r1, r5, #1241513984	; 0x4a000000
    15a8:	060a052f 	streq	r0, [sl], -pc, lsr #10
    15ac:	022e7303 	eoreq	r7, lr, #201326592	; 0xc000000
    15b0:	01010008 	tsteq	r1, r8
    15b4:	0000007d 	andeq	r0, r0, sp, ror r0
    15b8:	00650003 	rsbeq	r0, r5, r3
    15bc:	01020000 	mrseq	r0, (UNDEF: 2)
    15c0:	000d0efb 	strdeq	r0, [sp], -fp
    15c4:	01010101 	tsteq	r1, r1, lsl #2
    15c8:	01000000 	mrseq	r0, (UNDEF: 0)
    15cc:	2e010000 	cdpcs	0, 0, cr0, cr1, cr0, {0}
    15d0:	6174732f 	cmnvs	r4, pc, lsr #6
    15d4:	732d6666 			; <UNDEFINED> instruction: 0x732d6666
    15d8:	2f006372 	svccs	0x00006372
    15dc:	72657355 	rsbvc	r7, r5, #1409286145	; 0x54000001
    15e0:	696d2f73 	stmdbvs	sp!, {r0, r1, r4, r5, r6, r8, r9, sl, fp, sp}^
    15e4:	2f73656c 	svccs	0x0073656c
    15e8:	72756f53 	rsbsvc	r6, r5, #332	; 0x14c
    15ec:	632f6563 			; <UNDEFINED> instruction: 0x632f6563
    15f0:	30343273 	eorscc	r3, r4, r3, ror r2
    15f4:	6c2f786c 	stcvs	8, cr7, [pc], #-432	; 144c <__code_start__-0x6bb4>
    15f8:	69706269 	ldmdbvs	r0!, {r0, r3, r5, r6, r9, sp, lr}^
    15fc:	636e692f 	cmnvs	lr, #770048	; 0xbc000
    1600:	6564756c 	strbvs	r7, [r4, #-1388]!	; 0xfffffa94
    1604:	75630000 	strbvc	r0, [r3, #-0]!
    1608:	6d6f7473 	cfstrdvs	mvd7, [pc, #-460]!	; 1444 <__code_start__-0x6bbc>
    160c:	616f6c2d 	cmnvs	pc, sp, lsr #24
    1610:	2e726564 	cdpcs	5, 7, cr6, cr2, cr4, {3}
    1614:	00010063 	andeq	r0, r1, r3, rrx
    1618:	69707200 	ldmdbvs	r0!, {r9, ip, sp, lr}^
    161c:	0200682e 	andeq	r6, r0, #3014656	; 0x2e0000
    1620:	05000000 	streq	r0, [r0, #-0]
    1624:	0205001a 	andeq	r0, r5, #26, 0
    1628:	00009308 	andeq	r9, r0, r8, lsl #6
    162c:	14010515 	strne	r0, [r1], #-1301	; 0xfffffaeb
    1630:	01000202 	tsteq	r0, r2, lsl #4
    1634:	00011401 	andeq	r1, r1, r1, lsl #8
    1638:	5e000300 	cdppl	3, 0, cr0, cr0, cr0, {0}
    163c:	02000000 	andeq	r0, r0, #0, 0
    1640:	0d0efb01 	vstreq	d15, [lr, #-4]
    1644:	01010100 	mrseq	r0, (UNDEF: 17)
    1648:	00000001 	andeq	r0, r0, r1
    164c:	01000001 	tsteq	r0, r1
    1650:	74732f2e 	ldrbtvc	r2, [r3], #-3886	; 0xfffff0d2
    1654:	2d666661 	stclcs	6, cr6, [r6, #-388]!	; 0xfffffe7c
    1658:	00637273 	rsbeq	r7, r3, r3, ror r2
    165c:	6573552f 	ldrbvs	r5, [r3, #-1327]!	; 0xfffffad1
    1660:	6d2f7372 	stcvs	3, cr7, [pc, #-456]!	; 14a0 <__code_start__-0x6b60>
    1664:	73656c69 	cmnvc	r5, #26880	; 0x6900
    1668:	756f532f 	strbvc	r5, [pc, #-815]!	; 1341 <__code_start__-0x6cbf>
    166c:	2f656372 	svccs	0x00656372
    1670:	34327363 	ldrtcc	r7, [r2], #-867	; 0xfffffc9d
    1674:	2f786c30 	svccs	0x00786c30
    1678:	7062696c 	rsbvc	r6, r2, ip, ror #18
    167c:	6e692f69 	cdpvs	15, 6, cr2, cr9, cr9, {3}
    1680:	64756c63 	ldrbtvs	r6, [r5], #-3171	; 0xfffff39d
    1684:	72000065 	andvc	r0, r0, #101, 0	; 0x65
    1688:	6f6f6265 	svcvs	0x006f6265
    168c:	00632e74 	rsbeq	r2, r3, r4, ror lr
    1690:	72000001 	andvc	r0, r0, #1, 0
    1694:	682e6970 	stmdavs	lr!, {r4, r5, r6, r8, fp, sp, lr}
    1698:	00000200 	andeq	r0, r0, r0, lsl #4
    169c:	00190500 	andseq	r0, r9, r0, lsl #10
    16a0:	930c0205 	movwls	r0, #49669	; 0xc205
    16a4:	0d030000 	stceq	0, cr0, [r3, #-0]
    16a8:	13050501 	movwne	r0, #21761	; 0x5501
    16ac:	13053113 	movwne	r3, #20755	; 0x5113
    16b0:	01050106 	tsteq	r5, r6, lsl #2
    16b4:	061b052f 	ldreq	r0, [fp], -pc, lsr #10
    16b8:	13050585 	movwne	r0, #21893	; 0x5585
    16bc:	2f090514 	svccs	0x00090514
    16c0:	01061605 	tsteq	r6, r5, lsl #12
    16c4:	2f060505 	svccs	0x00060505
    16c8:	11060e05 	tstne	r6, r5, lsl #28
    16cc:	052f0505 	streq	r0, [pc, #-1285]!	; 11cf <__code_start__-0x6e31>
    16d0:	17052f01 	strne	r2, [r5, -r1, lsl #30]
    16d4:	05053006 	streq	r3, [r5, #-6]
    16d8:	016e0313 	cmneq	lr, r3, lsl r3
    16dc:	17051313 	smladne	r5, r3, r3, r1
    16e0:	010f0306 	tsteq	pc, r6, lsl #6
    16e4:	71030505 	tstvc	r3, r5, lsl #10
    16e8:	0531062e 	ldreq	r0, [r1, #-1582]!	; 0xfffff9d2
    16ec:	05010613 	streq	r0, [r1, #-1555]	; 0xfffff9ed
    16f0:	2e0d0307 	cdpcs	3, 0, cr0, cr13, cr7, {0}
    16f4:	4b060905 	blmi	183b10 <__bss_end__+0x179438>
    16f8:	76030605 	strvc	r0, [r3], -r5, lsl #12
    16fc:	13050501 	movwne	r0, #21761	; 0x5501
    1700:	2f090514 	svccs	0x00090514
    1704:	01061605 	tsteq	r6, r5, lsl #12
    1708:	2f060505 	svccs	0x00060505
    170c:	11060e05 	tstne	r6, r5, lsl #28
    1710:	2e2f0505 	cfsh64cs	mvdx0, mvdx15, #5
    1714:	010a0306 	tsteq	sl, r6, lsl #6
    1718:	134d2f30 	movtne	r2, #57136	; 0xdf30
    171c:	67151313 			; <UNDEFINED> instruction: 0x67151313
    1720:	01040200 	mrseq	r0, R12_usr
    1724:	000d0567 	andeq	r0, sp, r7, ror #10
    1728:	01010402 	tsteq	r1, r2, lsl #8
    172c:	02000a05 	andeq	r0, r0, #20480	; 0x5000
    1730:	05010104 	streq	r0, [r1, #-260]	; 0xfffffefc
    1734:	04020005 	streq	r0, [r2], #-5
    1738:	0d050101 	stfeqs	f0, [r5, #-4]
    173c:	01040200 	mrseq	r0, R12_usr
    1740:	000a0501 	andeq	r0, sl, r1, lsl #10
    1744:	01010402 	tsteq	r1, r2, lsl #8
    1748:	01000a02 	tsteq	r0, r2, lsl #20
    174c:	0001fa01 	andeq	pc, r1, r1, lsl #20
    1750:	5d000300 	stcpl	3, cr0, [r0, #-0]
    1754:	02000000 	andeq	r0, r0, #0, 0
    1758:	0d0efb01 	vstreq	d15, [lr, #-4]
    175c:	01010100 	mrseq	r0, (UNDEF: 17)
    1760:	00000001 	andeq	r0, r0, r1
    1764:	01000001 	tsteq	r0, r1
    1768:	74732f2e 	ldrbtvc	r2, [r3], #-3886	; 0xfffff0d2
    176c:	2d666661 	stclcs	6, cr6, [r6, #-388]!	; 0xfffffe7c
    1770:	00637273 	rsbeq	r7, r3, r3, ror r2
    1774:	6573552f 	ldrbvs	r5, [r3, #-1327]!	; 0xfffffad1
    1778:	6d2f7372 	stcvs	3, cr7, [pc, #-456]!	; 15b8 <__code_start__-0x6a48>
    177c:	73656c69 	cmnvc	r5, #26880	; 0x6900
    1780:	756f532f 	strbvc	r5, [pc, #-815]!	; 1459 <__code_start__-0x6ba7>
    1784:	2f656372 	svccs	0x00656372
    1788:	34327363 	ldrtcc	r7, [r2], #-867	; 0xfffffc9d
    178c:	2f786c30 	svccs	0x00786c30
    1790:	7062696c 	rsbvc	r6, r2, ip, ror #18
    1794:	6e692f69 	cdpvs	15, 6, cr2, cr9, cr9, {3}
    1798:	64756c63 	ldrbtvs	r6, [r5], #-3171	; 0xfffff39d
    179c:	74000065 	strvc	r0, [r0], #-101	; 0xffffff9b
    17a0:	72656d69 	rsbvc	r6, r5, #6720	; 0x1a40
    17a4:	0100632e 	tsteq	r0, lr, lsr #6
    17a8:	70720000 	rsbsvc	r0, r2, r0
    17ac:	00682e69 	rsbeq	r2, r8, r9, ror #28
    17b0:	00000002 	andeq	r0, r0, r2
    17b4:	05002305 	streq	r2, [r0, #-773]	; 0xfffffcfb
    17b8:	00939802 	addseq	r9, r3, r2, lsl #16
    17bc:	05051500 	streq	r1, [r5, #-1280]	; 0xfffffb00
    17c0:	060c0513 			; <UNDEFINED> instruction: 0x060c0513
    17c4:	061f0501 	ldreq	r0, [pc], -r1, lsl #10
    17c8:	1505056a 	strne	r0, [r5, #-1386]	; 0xfffffa96
    17cc:	0f061f05 	svceq	0x00061f05
    17d0:	06310505 	ldrteq	r0, [r1], -r5, lsl #10
    17d4:	030a052f 	movweq	r0, #42287	; 0xa52f
    17d8:	05050177 	streq	r0, [r5, #-375]	; 0xfffffe89
    17dc:	060c0513 			; <UNDEFINED> instruction: 0x060c0513
    17e0:	05056601 	streq	r6, [r5, #-1537]	; 0xfffff9ff
    17e4:	01090306 	tsteq	r9, r6, lsl #6
    17e8:	0601052f 	streq	r0, [r1], -pc, lsr #10
    17ec:	061c0513 			; <UNDEFINED> instruction: 0x061c0513
    17f0:	13050568 	movwne	r0, #21864	; 0x5568
    17f4:	76030a05 	strvc	r0, [r3], -r5, lsl #20
    17f8:	15050501 	strne	r0, [r5, #-1281]	; 0xfffffaff
    17fc:	18061c05 	stmdane	r6, {r0, r2, sl, fp, ip}
    1800:	0305052e 	movweq	r0, #21806	; 0x552e
    1804:	2f062e7a 	svccs	0x00062e7a
    1808:	77030a05 	strvc	r0, [r3, -r5, lsl #20]
    180c:	13050501 	movwne	r0, #21761	; 0x5501
    1810:	01060c05 	tsteq	r6, r5, lsl #24
    1814:	06050566 	streq	r0, [r5], -r6, ror #10
    1818:	2f010903 	svccs	0x00010903
    181c:	0c050106 	stfeqs	f0, [r5], {6}
    1820:	05017603 	streq	r7, [r1, #-1539]	; 0xfffff9fd
    1824:	0f030605 	svceq	0x00030605
    1828:	1309052e 	movwne	r0, #38190	; 0x952e
    182c:	74030a05 	strvc	r0, [r3], #-2565	; 0xfffff5fb
    1830:	15050501 	strne	r0, [r5, #-1281]	; 0xfffffaff
    1834:	030a052f 	movweq	r0, #42287	; 0xa52f
    1838:	05050177 	streq	r0, [r5, #-375]	; 0xfffffe89
    183c:	060c0513 			; <UNDEFINED> instruction: 0x060c0513
    1840:	05056601 	streq	r6, [r5, #-1537]	; 0xfffff9ff
    1844:	01090306 	tsteq	r9, r6, lsl #6
    1848:	1a061105 	bne	185c64 <__bss_end__+0x17b58c>
    184c:	78030505 	stmdavc	r3, {r0, r2, r8, sl}
    1850:	052f062e 	streq	r0, [pc, #-1582]!	; 122a <__code_start__-0x6dd6>
    1854:	0c051909 			; <UNDEFINED> instruction: 0x0c051909
    1858:	1c050106 	stfnes	f0, [r5], {6}
    185c:	05058706 	streq	r8, [r5, #-1798]	; 0xfffff8fa
    1860:	061c0513 			; <UNDEFINED> instruction: 0x061c0513
    1864:	2f050511 	svccs	0x00050511
    1868:	0606054a 	streq	r0, [r6], -sl, asr #10
    186c:	052e7603 	streq	r7, [lr, #-1539]!	; 0xfffff9fd
    1870:	0a051305 	beq	14648c <__bss_end__+0x13bdb4>
    1874:	05017603 	streq	r7, [r1, #-1539]	; 0xfffff9fd
    1878:	052f1505 	streq	r1, [pc, #-1285]!	; 137b <__code_start__-0x6c85>
    187c:	0177030a 	cmneq	r7, sl, lsl #6
    1880:	05130505 	ldreq	r0, [r3, #-1285]	; 0xfffffafb
    1884:	6601060c 	strvs	r0, [r1], -ip, lsl #12
    1888:	03060505 	movweq	r0, #25861	; 0x6505
    188c:	062f0109 	strteq	r0, [pc], -r9, lsl #2
    1890:	030c0501 	movweq	r0, #50433	; 0xc501
    1894:	05050176 	streq	r0, [r5, #-374]	; 0xfffffe8a
    1898:	2e0f0306 	cdpcs	3, 0, cr0, cr15, cr6, {0}
    189c:	05130905 	ldreq	r0, [r3, #-2309]	; 0xfffff6fb
    18a0:	0174030a 	cmneq	r4, sl, lsl #6
    18a4:	2f150505 	svccs	0x00150505
    18a8:	77030a05 	strvc	r0, [r3, -r5, lsl #20]
    18ac:	13050501 	movwne	r0, #21761	; 0x5501
    18b0:	01060c05 	tsteq	r6, r5, lsl #24
    18b4:	06050566 	streq	r0, [r5], -r6, ror #10
    18b8:	05010903 	streq	r0, [r1, #-2307]	; 0xfffff6fd
    18bc:	051a0611 	ldreq	r0, [sl, #-1553]	; 0xfffff9ef
    18c0:	2e780305 	cdpcs	3, 7, cr0, cr8, cr5, {0}
    18c4:	09052f06 	stmdbeq	r5, {r1, r2, r8, r9, sl, fp, sp}
    18c8:	060c0519 			; <UNDEFINED> instruction: 0x060c0519
    18cc:	061e0501 	ldreq	r0, [lr], -r1, lsl #10
    18d0:	1305058a 	movwne	r0, #21898	; 0x558a
    18d4:	050e0605 	streq	r0, [lr, #-1541]	; 0xfffff9fb
    18d8:	1e051305 	cdpne	3, 0, cr1, cr5, cr5, {0}
    18dc:	05051406 	streq	r1, [r5, #-1030]	; 0xfffffbfa
    18e0:	0605662c 	streq	r6, [r5], -ip, lsr #12
    18e4:	2e760306 	cdpcs	3, 7, cr0, cr6, cr6, {0}
    18e8:	05130505 	ldreq	r0, [r3, #-1285]	; 0xfffffafb
    18ec:	0176030a 	cmneq	r6, sl, lsl #6
    18f0:	2f150505 	svccs	0x00150505
    18f4:	77030a05 	strvc	r0, [r3, -r5, lsl #20]
    18f8:	13050501 	movwne	r0, #21761	; 0x5501
    18fc:	01060c05 	tsteq	r6, r5, lsl #24
    1900:	06050566 	streq	r0, [r5], -r6, ror #10
    1904:	2f010903 	svccs	0x00010903
    1908:	0c050106 	stfeqs	f0, [r5], {6}
    190c:	05017603 	streq	r7, [r1, #-1539]	; 0xfffff9fd
    1910:	0f030605 	svceq	0x00030605
    1914:	1309052e 	movwne	r0, #38190	; 0x952e
    1918:	74030a05 	strvc	r0, [r3], #-2565	; 0xfffff5fb
    191c:	15050501 	strne	r0, [r5, #-1281]	; 0xfffffaff
    1920:	030a052f 	movweq	r0, #42287	; 0xa52f
    1924:	05050177 	streq	r0, [r5, #-375]	; 0xfffffe89
    1928:	060c0513 			; <UNDEFINED> instruction: 0x060c0513
    192c:	05056601 	streq	r6, [r5, #-1537]	; 0xfffff9ff
    1930:	01090306 	tsteq	r9, r6, lsl #6
    1934:	1a061105 	bne	185d50 <__bss_end__+0x17b678>
    1938:	78030505 	stmdavc	r3, {r0, r2, r8, sl}
    193c:	052f062e 	streq	r0, [pc, #-1582]!	; 1316 <__code_start__-0x6cea>
    1940:	0c051909 			; <UNDEFINED> instruction: 0x0c051909
    1944:	08020106 	stmdaeq	r2, {r1, r2, r8}
    1948:	04010100 	streq	r0, [r1], #-256	; 0xffffff00
    194c:	03000002 	movweq	r0, #2
    1950:	0000c800 	andeq	ip, r0, r0, lsl #16
    1954:	fb010200 	blx	4215e <__bss_end__+0x37a86>
    1958:	01000d0e 	tsteq	r0, lr, lsl #26
    195c:	00010101 	andeq	r0, r1, r1, lsl #2
    1960:	00010000 	andeq	r0, r1, r0
    1964:	682f0100 	stmdavs	pc!, {r8}	; <UNPREDICTABLE>
    1968:	2f656d6f 	svccs	0x00656d6f
    196c:	6c676e65 	stclvs	14, cr6, [r7], #-404	; 0xfffffe6c
    1970:	632f7265 			; <UNDEFINED> instruction: 0x632f7265
    1974:	7373616c 	cmnvc	r3, #27
    1978:	3173632f 	cmncc	r3, pc, lsr #6
    197c:	2d653034 	stclcs	0, cr3, [r5, #-208]!	; 0xffffff30
    1980:	69773232 	ldmdbvs	r7!, {r1, r4, r5, r9, ip, sp}^
    1984:	6c2f2f6e 	stcvs	15, cr2, [pc], #-440	; 17d4 <__code_start__-0x682c>
    1988:	69706269 	ldmdbvs	r0!, {r0, r3, r5, r6, r9, sp, lr}^
    198c:	636e692f 	cmnvs	lr, #770048	; 0xbc000
    1990:	6564756c 	strbvs	r7, [r4, #-1388]!	; 0xfffffa94
    1994:	73752f00 	cmnvc	r5, #0, 30
    1998:	68732f72 	ldmdavs	r3!, {r1, r4, r5, r6, r8, r9, sl, fp, sp}^
    199c:	2f657261 	svccs	0x00657261
    19a0:	2d636367 	stclcs	3, cr6, [r3, #-412]!	; 0xfffffe64
    19a4:	2d6d7261 	sfmcs	f7, 2, [sp, #-388]!	; 0xfffffe7c
    19a8:	656e6f6e 	strbvs	r6, [lr, #-3950]!	; 0xfffff092
    19ac:	6261652d 	rsbvs	r6, r1, #188743680	; 0xb400000
    19b0:	30312d69 	eorscc	r2, r1, r9, ror #26
    19b4:	322d332e 	eorcc	r3, sp, #-1207959552	; 0xb8000000
    19b8:	2e313230 	mrccs	2, 1, r3, cr1, cr0, {1}
    19bc:	6c2f3031 	stcvs	0, cr3, [pc], #-196	; 1900 <__code_start__-0x6700>
    19c0:	672f6269 	strvs	r6, [pc, -r9, ror #4]!
    19c4:	612f6363 			; <UNDEFINED> instruction: 0x612f6363
    19c8:	6e2d6d72 	mcrvs	13, 1, r6, cr13, cr2, {3}
    19cc:	2d656e6f 	stclcs	14, cr6, [r5, #-444]!	; 0xfffffe44
    19d0:	69626165 	stmdbvs	r2!, {r0, r2, r5, r6, r8, sp, lr}^
    19d4:	2e30312f 	rsfcssp	f3, f0, #10.0
    19d8:	2f312e33 	svccs	0x00312e33
    19dc:	6c636e69 	stclvs	14, cr6, [r3], #-420	; 0xfffffe5c
    19e0:	00656475 	rsbeq	r6, r5, r5, ror r4
    19e4:	72617500 	rsbvc	r7, r1, #0, 10
    19e8:	00632e74 	rsbeq	r2, r3, r4, ror lr
    19ec:	75000000 	strvc	r0, [r0, #-0]
    19f0:	2e747261 	cdpcs	2, 7, cr7, cr4, cr1, {3}
    19f4:	00010068 	andeq	r0, r1, r8, rrx
    19f8:	69707200 	ldmdbvs	r0!, {r9, ip, sp, lr}^
    19fc:	0100682e 	tsteq	r0, lr, lsr #16
    1a00:	70670000 	rsbvc	r0, r7, r0
    1a04:	682e6f69 	stmdavs	lr!, {r0, r3, r5, r6, r8, r9, sl, fp, sp, lr}
    1a08:	00000100 	andeq	r0, r0, r0, lsl #2
    1a0c:	69647473 	stmdbvs	r4!, {r0, r1, r4, r5, r6, sl, ip, sp, lr}^
    1a10:	672d746e 	strvs	r7, [sp, -lr, ror #8]!
    1a14:	682e6363 	stmdavs	lr!, {r0, r1, r5, r6, r8, r9, sp, lr}
    1a18:	00000200 	andeq	r0, r0, r0, lsl #4
    1a1c:	00390500 	eorseq	r0, r9, r0, lsl #10
    1a20:	94b40205 	ldrtls	r0, [r4], #517	; 0x205
    1a24:	30030000 	andcc	r0, r3, r0
    1a28:	05010601 	streq	r0, [r1, #-1537]	; 0xfffff9ff
    1a2c:	05670605 	strbeq	r0, [r7, #-1541]!	; 0xfffff9fb
    1a30:	05010611 	streq	r0, [r1, #-1553]	; 0xfffff9ef
    1a34:	01052e05 	tsteq	r5, r5, lsl #28
    1a38:	06380567 	ldrteq	r0, [r8], -r7, ror #10
    1a3c:	05010629 	streq	r0, [r1, #-1577]	; 0xfffff9d7
    1a40:	05670605 	strbeq	r0, [r7, #-1541]!	; 0xfffff9fb
    1a44:	05010611 	streq	r0, [r1, #-1553]	; 0xfffff9ef
    1a48:	01052e05 	tsteq	r5, r5, lsl #28
    1a4c:	06160567 	ldreq	r0, [r6], -r7, ror #10
    1a50:	052e1503 	streq	r1, [lr, #-1283]!	; 0xfffffafd
    1a54:	68673505 	stmdavs	r7!, {r0, r2, r8, sl, ip, sp}^
    1a58:	0c036835 	stceq	8, cr6, [r3], {53}	; 0x35
    1a5c:	696b852e 	stmdbvs	fp!, {r1, r2, r3, r5, r8, sl, pc}^
    1a60:	660c0369 	strvs	r0, [ip], -r9, ror #6
    1a64:	05676b13 	strbeq	r6, [r7, #-2835]!	; 0xfffff4ed
    1a68:	052f0601 	streq	r0, [pc, #-1537]!	; 146f <__code_start__-0x6b91>
    1a6c:	25080619 	strcs	r0, [r8, #-1561]	; 0xfffff9e7
    1a70:	05340505 	ldreq	r0, [r4, #-1285]!	; 0xfffffafb
    1a74:	0501060d 	streq	r0, [r1, #-1549]	; 0xfffff9f3
    1a78:	19054c01 	stmdbne	r5, {r0, sl, fp, lr}
    1a7c:	05056706 	streq	r6, [r5, #-1798]	; 0xfffff8fa
    1a80:	060d0536 			; <UNDEFINED> instruction: 0x060d0536
    1a84:	4a280501 	bmi	a02e90 <__bss_end__+0x9f87b8>
    1a88:	05300105 	ldreq	r0, [r0, #-261]!	; 0xfffffefb
    1a8c:	05870615 	streq	r0, [r7, #1557]	; 0x615
    1a90:	052f2f05 	streq	r2, [pc, #-3845]!	; b93 <__code_start__-0x746d>
    1a94:	04020009 	streq	r0, [r2], #-9
    1a98:	0a051301 	beq	1466a4 <__bss_end__+0x13bfcc>
    1a9c:	01040200 	mrseq	r0, R12_usr
    1aa0:	000c0511 	andeq	r0, ip, r1, lsl r5
    1aa4:	06010402 	streq	r0, [r1], -r2, lsl #8
    1aa8:	000a0501 	andeq	r0, sl, r1, lsl #10
    1aac:	2e010402 	cdpcs	4, 0, cr0, cr1, cr2, {0}
    1ab0:	4c060505 	cfstr32mi	mvfx0, [r6], {5}
    1ab4:	01060e05 	tsteq	r6, r5, lsl #28
    1ab8:	054a0905 	strbeq	r0, [sl, #-2309]	; 0xfffff6fb
    1abc:	2f2f0605 	svccs	0x002f0605
    1ac0:	13060105 	movwne	r0, #24837	; 0x6105
    1ac4:	67061c05 	strvs	r1, [r6, -r5, lsl #24]
    1ac8:	05050106 	streq	r0, [r5, #-262]	; 0xfffffefa
    1acc:	052f4b06 	streq	r4, [pc, #-2822]!	; fce <__code_start__-0x7032>
    1ad0:	04020009 	streq	r0, [r2], #-9
    1ad4:	0a051301 	beq	1466e0 <__bss_end__+0x13c008>
    1ad8:	01040200 	mrseq	r0, R12_usr
    1adc:	000c0511 	andeq	r0, ip, r1, lsl r5
    1ae0:	06010402 	streq	r0, [r1], -r2, lsl #8
    1ae4:	000a0501 	andeq	r0, sl, r1, lsl #10
    1ae8:	2e010402 	cdpcs	4, 0, cr0, cr1, cr2, {0}
    1aec:	4c060505 	cfstr32mi	mvfx0, [r6], {5}
    1af0:	06010567 	streq	r0, [r1], -r7, ror #10
    1af4:	0619052f 	ldreq	r0, [r9], -pc, lsr #10
    1af8:	2e1b054c 	cfmac32cs	mvfx0, mvfx11, mvfx12
    1afc:	052e2a05 	streq	r2, [lr, #-2565]!	; 0xfffff5fb
    1b00:	05010631 	streq	r0, [r1, #-1585]	; 0xfffff9cf
    1b04:	1c052e42 	stcne	14, cr2, [r5], {66}	; 0x42
    1b08:	05053106 	streq	r3, [r5, #-262]	; 0xfffffefa
    1b0c:	2e09032f 	cdpcs	3, 0, cr0, cr9, cr15, {1}
    1b10:	01060e05 	tsteq	r6, r5, lsl #28
    1b14:	054a2105 	strbeq	r2, [sl, #-261]	; 0xfffffefb
    1b18:	2e0a0301 	cdpcs	3, 0, cr0, cr10, cr1, {0}
    1b1c:	68061a05 	stmdavs	r6, {r0, r2, r9, fp, ip}
    1b20:	02000905 	andeq	r0, r0, #81920	; 0x14000
    1b24:	05300104 	ldreq	r0, [r0, #-260]!	; 0xfffffefc
    1b28:	0402000a 	streq	r0, [r2], #-10
    1b2c:	0c051101 	stfeqs	f1, [r5], {1}
    1b30:	01040200 	mrseq	r0, R12_usr
    1b34:	0a050106 	beq	141f54 <__bss_end__+0x13787c>
    1b38:	01040200 	mrseq	r0, R12_usr
    1b3c:	0619052e 	ldreq	r0, [r9], -lr, lsr #10
    1b40:	667ee803 	ldrbtvs	lr, [lr], -r3, lsl #16
    1b44:	2f2f0505 	svccs	0x002f0505
    1b48:	0105672f 	tsteq	r5, pc, lsr #14
    1b4c:	04022f06 	streq	r2, [r2], #-3846	; 0xfffff0fa
    1b50:	92010100 	andls	r0, r1, #0
    1b54:	03000003 	movweq	r0, #3
    1b58:	0000b700 	andeq	fp, r0, r0, lsl #14
    1b5c:	fb010200 	blx	42366 <__bss_end__+0x37c8e>
    1b60:	01000d0e 	tsteq	r0, lr, lsl #26
    1b64:	00010101 	andeq	r0, r1, r1, lsl #2
    1b68:	00010000 	andeq	r0, r1, r0
    1b6c:	682f0100 	stmdavs	pc!, {r8}	; <UNPREDICTABLE>
    1b70:	2f656d6f 	svccs	0x00656d6f
    1b74:	6c676e65 	stclvs	14, cr6, [r7], #-404	; 0xfffffe6c
    1b78:	632f7265 			; <UNDEFINED> instruction: 0x632f7265
    1b7c:	7373616c 	cmnvc	r3, #27
    1b80:	3173632f 	cmncc	r3, pc, lsr #6
    1b84:	2d653034 	stclcs	0, cr3, [r5, #-208]!	; 0xffffff30
    1b88:	69773232 	ldmdbvs	r7!, {r1, r4, r5, r9, ip, sp}^
    1b8c:	6c2f2f6e 	stcvs	15, cr2, [pc], #-440	; 19dc <__code_start__-0x6624>
    1b90:	69706269 	ldmdbvs	r0!, {r0, r3, r5, r6, r9, sp, lr}^
    1b94:	636e692f 	cmnvs	lr, #770048	; 0xbc000
    1b98:	6564756c 	strbvs	r7, [r4, #-1388]!	; 0xfffffa94
    1b9c:	73752f00 	cmnvc	r5, #0, 30
    1ba0:	68732f72 	ldmdavs	r3!, {r1, r4, r5, r6, r8, r9, sl, fp, sp}^
    1ba4:	2f657261 	svccs	0x00657261
    1ba8:	2d636367 	stclcs	3, cr6, [r3, #-412]!	; 0xfffffe64
    1bac:	2d6d7261 	sfmcs	f7, 2, [sp, #-388]!	; 0xfffffe7c
    1bb0:	656e6f6e 	strbvs	r6, [lr, #-3950]!	; 0xfffff092
    1bb4:	6261652d 	rsbvs	r6, r1, #188743680	; 0xb400000
    1bb8:	30312d69 	eorscc	r2, r1, r9, ror #26
    1bbc:	322d332e 	eorcc	r3, sp, #-1207959552	; 0xb8000000
    1bc0:	2e313230 	mrccs	2, 1, r3, cr1, cr0, {1}
    1bc4:	6c2f3031 	stcvs	0, cr3, [pc], #-196	; 1b08 <__code_start__-0x64f8>
    1bc8:	672f6269 	strvs	r6, [pc, -r9, ror #4]!
    1bcc:	612f6363 			; <UNDEFINED> instruction: 0x612f6363
    1bd0:	6e2d6d72 	mcrvs	13, 1, r6, cr13, cr2, {3}
    1bd4:	2d656e6f 	stclcs	14, cr6, [r5, #-444]!	; 0xfffffe44
    1bd8:	69626165 	stmdbvs	r2!, {r0, r2, r5, r6, r8, sp, lr}^
    1bdc:	2e30312f 	rsfcssp	f3, f0, #10.0
    1be0:	2f312e33 	svccs	0x00312e33
    1be4:	6c636e69 	stclvs	14, cr6, [r3], #-420	; 0xfffffe5c
    1be8:	00656475 	rsbeq	r6, r5, r5, ror r4
    1bec:	616d6b00 	cmnvs	sp, r0, lsl #22
    1bf0:	636f6c6c 	cmnvs	pc, #108, 24	; 0x6c00
    1bf4:	0000632e 	andeq	r6, r0, lr, lsr #6
    1bf8:	70720000 	rsbsvc	r0, r2, r0
    1bfc:	00682e69 	rsbeq	r2, r8, r9, ror #28
    1c00:	73000001 	movwvc	r0, #1
    1c04:	6e696474 	mcrvs	4, 3, r6, cr9, cr4, {3}
    1c08:	63672d74 	cmnvs	r7, #116, 26	; 0x1d00
    1c0c:	00682e63 	rsbeq	r2, r8, r3, ror #28
    1c10:	00000002 	andeq	r0, r0, r2
    1c14:	05001e05 	streq	r1, [r0, #-3589]	; 0xfffff1fb
    1c18:	0096a402 	addseq	sl, r6, r2, lsl #8
    1c1c:	01270300 			; <UNDEFINED> instruction: 0x01270300
    1c20:	05012005 	streq	r2, [r1, #-5]
    1c24:	0501062d 	streq	r0, [r1, #-1581]	; 0xfffff9d3
    1c28:	05830620 	streq	r0, [r3, #1568]	; 0x620
    1c2c:	35050122 	strcc	r0, [r5, #-290]	; 0xfffffede
    1c30:	1e050106 	adfnes	f0, f5, f6
    1c34:	20058306 	andcs	r8, r5, r6, lsl #6
    1c38:	062d0501 	strteq	r0, [sp], -r1, lsl #10
    1c3c:	06420501 	strbeq	r0, [r2], -r1, lsl #10
    1c40:	05010685 	streq	r0, [r1, #-1669]	; 0xfffff97b
    1c44:	144b0605 	strbne	r0, [fp], #-1541	; 0xfffff9fb
    1c48:	002e0601 	eoreq	r0, lr, r1, lsl #12
    1c4c:	06020402 	streq	r0, [r2], -r2, lsl #8
    1c50:	0402002e 	streq	r0, [r2], #-46	; 0xffffffd2
    1c54:	02000102 	andeq	r0, r0, #-2147483648	; 0x80000000
    1c58:	05150204 	ldreq	r0, [r5, #-516]	; 0xfffffdfc
    1c5c:	0402000d 	streq	r0, [r2], #-13
    1c60:	05010602 	streq	r0, [r1, #-1538]	; 0xfffff9fe
    1c64:	04020007 	streq	r0, [r2], #-7
    1c68:	09054a02 	stmdbeq	r5, {r1, r9, fp, lr}
    1c6c:	05054b06 	streq	r4, [r5, #-2822]	; 0xfffff4fa
    1c70:	06170515 			; <UNDEFINED> instruction: 0x06170515
    1c74:	4a100501 	bmi	403080 <__bss_end__+0x3f89a8>
    1c78:	2f060505 	svccs	0x00060505
    1c7c:	01061b05 	tsteq	r6, r5, lsl #22
    1c80:	052e0e05 	streq	r0, [lr, #-3589]!	; 0xfffff1fb
    1c84:	05052f01 	streq	r2, [r5, #-3841]	; 0xfffff0ff
    1c88:	01040200 	mrseq	r0, R12_usr
    1c8c:	4a770306 	bmi	1dc28ac <__bss_end__+0x1db81d4>
    1c90:	01040200 	mrseq	r0, R12_usr
    1c94:	04020001 	streq	r0, [r2], #-1
    1c98:	009e0601 	addseq	r0, lr, r1, lsl #12
    1c9c:	2e010402 	cdpcs	4, 0, cr0, cr1, cr2, {0}
    1ca0:	01040200 	mrseq	r0, R12_usr
    1ca4:	09052e06 	stmdbeq	r5, {r1, r2, r9, sl, fp, sp}
    1ca8:	d6060132 			; <UNDEFINED> instruction: 0xd6060132
    1cac:	052e062e 	streq	r0, [lr, #-1582]!	; 0xfffff9d2
    1cb0:	0505de19 	streq	sp, [r5, #-3609]	; 0xfffff1e7
    1cb4:	0805142f 	stmdaeq	r5, {r0, r1, r2, r3, r5, sl, ip}
    1cb8:	07050106 	streq	r0, [r5, -r6, lsl #2]
    1cbc:	0609054a 	streq	r0, [r9], -sl, asr #10
    1cc0:	1305054b 	movwne	r0, #21835	; 0x554b
    1cc4:	01060c05 	tsteq	r6, r5, lsl #24
    1cc8:	67060505 	strvs	r0, [r6, -r5, lsl #10]
    1ccc:	06010513 			; <UNDEFINED> instruction: 0x06010513
    1cd0:	06090567 	streq	r0, [r9], -r7, ror #10
    1cd4:	059e012a 	ldreq	r0, [lr, #298]	; 0x12a
    1cd8:	0106a528 	tsteq	r6, r8, lsr #10
    1cdc:	4b060505 	blmi	1830f8 <__bss_end__+0x178a20>
    1ce0:	062e0601 	strteq	r0, [lr], -r1, lsl #12
    1ce4:	0513012e 	ldreq	r0, [r3, #-302]	; 0xfffffed2
    1ce8:	01470318 	cmpeq	r7, r8, lsl r3
    1cec:	01130505 	tsteq	r3, r5, lsl #10
    1cf0:	0f060106 	svceq	0x00060106
    1cf4:	05130115 	ldreq	r0, [r3, #-277]	; 0xfffffeeb
    1cf8:	0501060e 	streq	r0, [r1, #-1550]	; 0xfffff9f2
    1cfc:	052e2e16 	streq	r2, [lr, #-3606]!	; 0xfffff1ea
    1d00:	39030605 	stmdbcc	r3, {r0, r2, r9, sl}
    1d04:	060b0501 	streq	r0, [fp], -r1, lsl #10
    1d08:	06050501 	streq	r0, [r5], -r1, lsl #10
    1d0c:	060a054b 	streq	r0, [sl], -fp, asr #10
    1d10:	06050501 	streq	r0, [r5], -r1, lsl #10
    1d14:	060d054b 	streq	r0, [sp], -fp, asr #10
    1d18:	2e070501 	cfsh32cs	mvfx0, mvfx7, #1
    1d1c:	054d0105 	strbeq	r0, [sp, #-261]	; 0xfffffefb
    1d20:	04020005 	streq	r0, [r2], #-5
    1d24:	78030601 	stmdavc	r3, {r0, r9, sl}
    1d28:	0402004a 	streq	r0, [r2], #-74	; 0xffffffb6
    1d2c:	02000101 	andeq	r0, r0, #1073741824	; 0x40000000
    1d30:	ba060104 	blt	182148 <__bss_end__+0x177a70>
    1d34:	01040200 	mrseq	r0, R12_usr
    1d38:	09052e06 	stmdbeq	r5, {r1, r2, r9, sl, fp, sp}
    1d3c:	82060134 	andhi	r0, r6, #13
    1d40:	052e0666 	streq	r0, [lr, #-1638]!	; 0xfffff99a
    1d44:	0106db20 	tsteq	r6, r0, lsr #22
    1d48:	4b060505 	blmi	183164 <__bss_end__+0x178a8c>
    1d4c:	04020001 	streq	r0, [r2], #-1
    1d50:	02004a02 	andeq	r4, r0, #8192	; 0x2000
    1d54:	00010204 	andeq	r0, r1, r4, lsl #4
    1d58:	13020402 	movwne	r0, #9218	; 0x2402
    1d5c:	02001205 	andeq	r1, r0, #1342177280	; 0x50000000
    1d60:	01060204 	tsteq	r6, r4, lsl #4
    1d64:	02040200 	andeq	r0, r4, #0, 4
    1d68:	0402002e 	streq	r0, [r2], #-46	; 0xffffffd2
    1d6c:	05052e02 	streq	r2, [r5, #-3586]	; 0xfffff1fe
    1d70:	02040200 	andeq	r0, r4, #0, 4
    1d74:	02002f06 	andeq	r2, r0, #6, 30
    1d78:	05670204 	strbeq	r0, [r7, #-516]!	; 0xfffffdfc
    1d7c:	04020001 	streq	r0, [r2], #-1
    1d80:	05130602 	ldreq	r0, [r3, #-1538]	; 0xfffff9fe
    1d84:	04020005 	streq	r0, [r2], #-5
    1d88:	00620601 	rsbeq	r0, r2, r1, lsl #12
    1d8c:	01010402 	tsteq	r1, r2, lsl #8
    1d90:	01040200 	mrseq	r0, R12_usr
    1d94:	0200ba06 	andeq	fp, r0, #24576	; 0x6000
    1d98:	2e060104 	adfcss	f0, f6, f4
    1d9c:	0a033c05 	beq	d0db8 <__bss_end__+0xc66e0>
    1da0:	0501069e 	streq	r0, [r1, #-1694]	; 0xfffff962
    1da4:	014b0605 	cmpeq	fp, r5, lsl #12
    1da8:	2e062e06 	cdpcs	14, 0, cr2, cr6, cr6, {0}
    1dac:	05011301 	streq	r1, [r1, #-769]	; 0xfffffcff
    1db0:	7fad0318 	svcvc	0x00ad0318
    1db4:	13050501 	movwne	r0, #21761	; 0x5501
    1db8:	01061105 	tsteq	r6, r5, lsl #2
    1dbc:	0305052e 	movweq	r0, #21806	; 0x552e
    1dc0:	060100d2 			; <UNDEFINED> instruction: 0x060100d2
    1dc4:	1805134a 	stmdane	r5, {r1, r3, r6, r8, r9, ip}
    1dc8:	017fa303 	cmneq	pc, r3, lsl #6
    1dcc:	05130505 	ldreq	r0, [r3, #-1285]	; 0xfffffafb
    1dd0:	4a010616 	bmi	43630 <__bss_end__+0x38f58>
    1dd4:	03060505 	movweq	r0, #25861	; 0x6505
    1dd8:	050100e1 	streq	r0, [r1, #-225]	; 0xffffff1f
    1ddc:	05010612 	streq	r0, [r1, #-1554]	; 0xfffff9ee
    1de0:	054b0605 	strbeq	r0, [fp, #-1541]	; 0xfffff9fb
    1de4:	7fa90318 	svcvc	0x00a90318
    1de8:	13050501 	movwne	r0, #21761	; 0x5501
    1dec:	0e180501 	cfmul32eq	mvfx0, mvfx8, mvfx1
    1df0:	05130505 	ldreq	r0, [r3, #-1285]	; 0xfffffafb
    1df4:	2e010611 	mcrcs	6, 0, r0, cr1, cr1, {0}
    1df8:	06150505 	ldreq	r0, [r5], -r5, lsl #10
    1dfc:	0513014a 	ldreq	r0, [r3, #-330]	; 0xfffffeb6
    1e00:	2e01060e 	cfmadd32cs	mvax0, mvfx0, mvfx1, mvfx14
    1e04:	2e2e1605 	cfmadda32cs	mvax0, mvax1, mvfx14, mvfx5
    1e08:	03060505 	movweq	r0, #25861	; 0x6505
    1e0c:	010100d6 	ldrdeq	r0, [r1, -r6]
    1e10:	9f031805 	svcls	0x00031805
    1e14:	0505017f 	streq	r0, [r5, #-383]	; 0xfffffe81
    1e18:	06190513 			; <UNDEFINED> instruction: 0x06190513
    1e1c:	05052e01 	streq	r2, [r5, #-3585]	; 0xfffff1ff
    1e20:	0100e003 	tsteq	r0, r3
    1e24:	02040200 	andeq	r0, r4, #0, 4
    1e28:	02004a06 	andeq	r4, r0, #24576	; 0x6000
    1e2c:	05140204 	ldreq	r0, [r4, #-516]	; 0xfffffdfc
    1e30:	0402000a 	streq	r0, [r2], #-10
    1e34:	05010602 	streq	r0, [r1, #-1538]	; 0xfffff9fe
    1e38:	04020005 	streq	r0, [r2], #-5
    1e3c:	054b0602 	strbeq	r0, [fp, #-1538]	; 0xfffff9fe
    1e40:	0402000c 	streq	r0, [r2], #-12
    1e44:	05010602 	streq	r0, [r1, #-1538]	; 0xfffff9fe
    1e48:	04020001 	streq	r0, [r2], #-1
    1e4c:	05052f02 	streq	r2, [r5, #-3842]	; 0xfffff0fe
    1e50:	01040200 	mrseq	r0, R12_usr
    1e54:	4a730306 	bmi	1cc2a74 <__bss_end__+0x1cb839c>
    1e58:	01040200 	mrseq	r0, R12_usr
    1e5c:	04020001 	streq	r0, [r2], #-1
    1e60:	009e0601 	addseq	r0, lr, r1, lsl #12
    1e64:	2e010402 	cdpcs	4, 0, cr0, cr1, cr2, {0}
    1e68:	01040200 	mrseq	r0, R12_usr
    1e6c:	02002e06 	andeq	r2, r0, #96	; 0x60
    1e70:	002f0104 	eoreq	r0, pc, r4, lsl #2
    1e74:	2e010402 	cdpcs	4, 0, cr0, cr1, cr2, {0}
    1e78:	01040200 	mrseq	r0, R12_usr
    1e7c:	7fb103d6 	svcvc	0x00b103d6
    1e80:	8206012e 	andhi	r0, r6, #-2147483637	; 0x8000000b
    1e84:	2e062e2e 	cdpcs	14, 0, cr2, cr6, cr14, {1}
    1e88:	02002e06 	andeq	r2, r0, #96	; 0x60
    1e8c:	03060104 	movweq	r0, #24836	; 0x6104
    1e90:	000100d7 	ldrdeq	r0, [r1], -r7
    1e94:	2e010402 	cdpcs	4, 0, cr0, cr1, cr2, {0}
    1e98:	01040200 	mrseq	r0, R12_usr
    1e9c:	081505d6 	ldmdaeq	r5, {r1, r2, r4, r6, r7, r8, sl}
    1ea0:	0117057b 	tsteq	r7, fp, ror r5
    1ea4:	05311605 	ldreq	r1, [r1, #-1541]!	; 0xfffff9fb
    1ea8:	1d050118 	stfnes	f0, [r5, #-96]	; 0xffffffa0
    1eac:	2b050106 	blcs	1422cc <__bss_end__+0x137bf4>
    1eb0:	06190566 	ldreq	r0, [r9], -r6, ror #10
    1eb4:	1305054d 	movwne	r0, #21837	; 0x554d
    1eb8:	01060c05 	tsteq	r6, r5, lsl #24
    1ebc:	054a0705 	strbeq	r0, [sl, #-1797]	; 0xfffff8fb
    1ec0:	04020025 	streq	r0, [r2], #-37	; 0xffffffdb
    1ec4:	1e054a01 	vmlane.f32	s8, s10, s2
    1ec8:	01040200 	mrseq	r0, R12_usr
    1ecc:	0609054a 	streq	r0, [r9], -sl, asr #10
    1ed0:	1305054b 	movwne	r0, #21835	; 0x554b
    1ed4:	01060a05 	tsteq	r6, r5, lsl #20
    1ed8:	05631905 	strbeq	r1, [r3, #-2309]!	; 0xfffff6fb
    1edc:	014c0609 	cmpeq	ip, r9, lsl #12
    1ee0:	2e069e06 	cdpcs	14, 0, cr9, cr6, cr6, {0}
    1ee4:	01000a02 	tsteq	r0, r2, lsl #20
    1ee8:	00028901 	andeq	r8, r2, r1, lsl #18
    1eec:	c9000300 	stmdbgt	r0, {r8, r9}
    1ef0:	02000000 	andeq	r0, r0, #0, 0
    1ef4:	0d0efb01 	vstreq	d15, [lr, #-4]
    1ef8:	01010100 	mrseq	r0, (UNDEF: 17)
    1efc:	00000001 	andeq	r0, r0, r1
    1f00:	01000001 	tsteq	r0, r1
    1f04:	72732f2e 	rsbsvc	r2, r3, #184	; 0xb8
    1f08:	552f0063 	strpl	r0, [pc, #-99]!	; 1ead <__code_start__-0x6153>
    1f0c:	73726573 	cmnvc	r2, #482344960	; 0x1cc00000
    1f10:	6c696d2f 	stclvs	13, cr6, [r9], #-188	; 0xffffff44
    1f14:	532f7365 			; <UNDEFINED> instruction: 0x532f7365
    1f18:	6372756f 	cmnvs	r2, #465567744	; 0x1bc00000
    1f1c:	73632f65 	cmnvc	r3, #404	; 0x194
    1f20:	6c303432 	cfldrsvs	mvf3, [r0], #-200	; 0xffffff38
    1f24:	696c2f78 	stmdbvs	ip!, {r3, r4, r5, r6, r8, r9, sl, fp, sp}^
    1f28:	2f697062 	svccs	0x00697062
    1f2c:	6c636e69 	stclvs	14, cr6, [r3], #-420	; 0xfffffe5c
    1f30:	00656475 	rsbeq	r6, r5, r5, ror r4
    1f34:	74706f2f 	ldrbtvc	r6, [r0], #-3887	; 0xfffff0d1
    1f38:	6d6f682f 	stclvs	8, cr6, [pc, #-188]!	; 1e84 <__code_start__-0x617c>
    1f3c:	65726265 	ldrbvs	r6, [r2, #-613]!	; 0xfffffd9b
    1f40:	65432f77 	strbvs	r2, [r3, #-3959]	; 0xfffff089
    1f44:	72616c6c 	rsbvc	r6, r1, #108, 24	; 0x6c00
    1f48:	6d72612f 	ldfvse	f6, [r2, #-188]!	; 0xffffff44
    1f4c:	6e6f6e2d 	cdpvs	14, 6, cr6, cr15, cr13, {1}
    1f50:	61652d65 	cmnvs	r5, r5, ror #26
    1f54:	392d6962 	pushcc	{r1, r5, r6, r8, fp, sp, lr}
    1f58:	322d392f 	eorcc	r3, sp, #770048	; 0xbc000
    1f5c:	71393130 	teqvc	r9, r0, lsr r1
    1f60:	73632d34 	cmnvc	r3, #52, 26	; 0xd00
    1f64:	65373031 	ldrvs	r3, [r7, #-49]!	; 0xffffffcf
    1f68:	62696c2f 	rsbvs	r6, r9, #12032	; 0x2f00
    1f6c:	6363672f 	cmnvs	r3, #12320768	; 0xbc0000
    1f70:	6d72612f 	ldfvse	f6, [r2, #-188]!	; 0xffffff44
    1f74:	6e6f6e2d 	cdpvs	14, 6, cr6, cr15, cr13, {1}
    1f78:	61652d65 	cmnvs	r5, r5, ror #26
    1f7c:	392f6962 	stmdbcc	pc!, {r1, r5, r6, r8, fp, sp, lr}	; <UNPREDICTABLE>
    1f80:	312e322e 			; <UNDEFINED> instruction: 0x312e322e
    1f84:	636e692f 	cmnvs	lr, #770048	; 0xbc000
    1f88:	6564756c 	strbvs	r7, [r4, #-1388]!	; 0xfffffa94
    1f8c:	70670000 	rsbvc	r0, r7, r0
    1f90:	632e6f69 			; <UNDEFINED> instruction: 0x632e6f69
    1f94:	00000100 	andeq	r0, r0, r0, lsl #2
    1f98:	2e697072 	mcrcs	0, 3, r7, cr9, cr2, {3}
    1f9c:	00020068 	andeq	r0, r2, r8, rrx
    1fa0:	64747300 	ldrbtvs	r7, [r4], #-768	; 0xfffffd00
    1fa4:	2d746e69 	ldclcs	14, cr6, [r4, #-420]!	; 0xfffffe5c
    1fa8:	2e636367 	cdpcs	3, 6, cr6, cr3, cr7, {3}
    1fac:	00030068 	andeq	r0, r3, r8, rrx
    1fb0:	69706700 	ldmdbvs	r0!, {r8, r9, sl, sp, lr}^
    1fb4:	00682e6f 	rsbeq	r2, r8, pc, ror #28
    1fb8:	00000002 	andeq	r0, r0, r2
    1fbc:	05003805 	streq	r3, [r0, #-2053]	; 0xfffff7fb
    1fc0:	009a5402 	addseq	r5, sl, r2, lsl #8
    1fc4:	01270300 			; <UNDEFINED> instruction: 0x01270300
    1fc8:	05130505 	ldreq	r0, [r3, #-1285]	; 0xfffffafb
    1fcc:	05010607 	streq	r0, [r1, #-1543]	; 0xfffff9f9
    1fd0:	05490606 	strbeq	r0, [r9, #-1542]	; 0xfffff9fa
    1fd4:	07051505 	streq	r1, [r5, -r5, lsl #10]
    1fd8:	38050106 	stmdacc	r5, {r1, r2, r8}
    1fdc:	4d07052b 	cfstr32mi	mvfx0, [r7, #-172]	; 0xffffff54
    1fe0:	30060505 	andcc	r0, r6, r5, lsl #10
    1fe4:	01061805 	tsteq	r6, r5, lsl #16
    1fe8:	05671c05 	strbeq	r1, [r7, #-3077]!	; 0xfffff3fb
    1fec:	18054a0e 	stmdane	r5, {r1, r2, r3, r9, fp, lr}
    1ff0:	4d12052d 	cfldr32mi	mvfx0, [r2, #-180]	; 0xffffff4c
    1ff4:	0e052f2e 	cdpeq	15, 0, cr2, cr5, cr14, {1}
    1ff8:	0605052a 	streq	r0, [r5], -sl, lsr #10
    1ffc:	0513142f 	ldreq	r1, [r3, #-1071]	; 0xfffffbd1
    2000:	05010607 	streq	r0, [r1, #-1543]	; 0xfffff9f9
    2004:	132f0605 			; <UNDEFINED> instruction: 0x132f0605
    2008:	052e2e06 	streq	r2, [lr, #-3590]!	; 0xfffff1fa
    200c:	05051301 	streq	r1, [r5, #-769]	; 0xfffffcff
    2010:	24052e2d 	strcs	r2, [r5], #-3629	; 0xfffff1d3
    2014:	02050006 	andeq	r0, r5, #6, 0
    2018:	00009ab4 			; <UNDEFINED> instruction: 0x00009ab4
    201c:	13050515 	movwne	r0, #21781	; 0x5515
    2020:	71030605 	tstvc	r3, r5, lsl #12
    2024:	13050501 	movwne	r0, #21761	; 0x5501
    2028:	01060705 	tsteq	r6, r5, lsl #14
    202c:	49060605 	stmdbmi	r6, {r0, r2, r9, sl}
    2030:	14150505 	ldrne	r0, [r5], #-1285	; 0xfffffafb
    2034:	03062405 	movweq	r2, #25605	; 0x6405
    2038:	18050109 	stmdane	r5, {r0, r3, r8}
    203c:	052e7703 	streq	r7, [lr, #-1795]!	; 0xfffff8fd
    2040:	0e05671c 	mcreq	7, 0, r6, cr5, cr12, {0}
    2044:	2d18054a 	cfldr32cs	mvfx0, [r8, #-296]	; 0xfffffed8
    2048:	2e4d1205 	cdpcs	2, 4, cr1, cr13, cr5, {0}
    204c:	2f0f052f 	svccs	0x000f052f
    2050:	05290e05 	streq	r0, [r9, #-3589]!	; 0xfffff1fb
    2054:	142f0605 	strtne	r0, [pc], #-1541	; 205c <__code_start__-0x5fa4>
    2058:	06070513 			; <UNDEFINED> instruction: 0x06070513
    205c:	06050501 	streq	r0, [r5], -r1, lsl #10
    2060:	2e06132f 	cdpcs	3, 0, cr1, cr6, cr15, {1}
    2064:	05330105 	ldreq	r0, [r3, #-261]!	; 0xfffffefb
    2068:	052e2905 	streq	r2, [lr, #-2309]!	; 0xfffff6fb
    206c:	05000627 	streq	r0, [r0, #-1575]	; 0xfffff9d9
    2070:	009b0c02 	addseq	r0, fp, r2, lsl #24
    2074:	05051a00 	streq	r1, [r5, #-2560]	; 0xfffff600
    2078:	06270513 			; <UNDEFINED> instruction: 0x06270513
    207c:	2f180511 	svccs	0x00180511
    2080:	2e2e0505 	cfsh64cs	mvdx0, mvdx14, #5
    2084:	0628054a 	strteq	r0, [r8], -sl, asr #10
    2088:	24020500 	strcs	r0, [r2], #-1280	; 0xfffffb00
    208c:	1600009b 			; <UNDEFINED> instruction: 0x1600009b
    2090:	05130505 	ldreq	r0, [r3, #-1285]	; 0xfffffafb
    2094:	05110628 	ldreq	r0, [r1, #-1576]	; 0xfffff9d8
    2098:	05052f18 	streq	r2, [r5, #-3864]	; 0xfffff0e8
    209c:	054a2e2e 	strbeq	r2, [sl, #-3630]	; 0xfffff1d2
    20a0:	05000623 	streq	r0, [r0, #-1571]	; 0xfffff9dd
    20a4:	009b3c02 	addseq	r3, fp, r2, lsl #24
    20a8:	05051600 	streq	r1, [r5, #-1536]	; 0xfffffa00
    20ac:	03060513 	movweq	r0, #25875	; 0x6513
    20b0:	05050162 	streq	r0, [r5, #-354]	; 0xfffffe9e
    20b4:	06070513 			; <UNDEFINED> instruction: 0x06070513
    20b8:	06060501 	streq	r0, [r6], -r1, lsl #10
    20bc:	15050549 	strne	r0, [r5, #-1353]	; 0xfffffab7
    20c0:	23051314 	movwcs	r1, #21268	; 0x5314
    20c4:	01170306 	tsteq	r7, r6, lsl #6
    20c8:	69032205 	stmdbvs	r3, {r0, r2, r9, sp}
    20cc:	821c052e 	andshi	r0, ip, #192937984	; 0xb800000
    20d0:	2e0e052e 	cfsh32cs	mvfx0, mvfx14, #30
    20d4:	30060505 	andcc	r0, r6, r5, lsl #10
    20d8:	01061205 	tsteq	r6, r5, lsl #4
    20dc:	05052d4b 	streq	r2, [r5, #-3403]	; 0xfffff2b5
    20e0:	13132f06 	tstne	r3, #6, 30
    20e4:	03061805 	movweq	r1, #26629	; 0x6805
    20e8:	0e05017a 	mcreq	1, 0, r0, cr5, cr10, {3}
    20ec:	3405054a 	strcc	r0, [r5], #-1354	; 0xfffffab6
    20f0:	0301052e 	movweq	r0, #5422	; 0x152e
    20f4:	05052e14 	streq	r2, [r5, #-3604]	; 0xfffff1ec
    20f8:	2e2e6c03 	cdpcs	12, 2, cr6, cr14, cr3, {0}
    20fc:	00062b05 	andeq	r2, r6, r5, lsl #22
    2100:	9b940205 	blls	fe50291c <__bss_end__+0xfe4f8244>
    2104:	17030000 	strne	r0, [r3, -r0]
    2108:	13050501 	movwne	r0, #21761	; 0x5501
    210c:	01060705 	tsteq	r6, r5, lsl #14
    2110:	71031805 	tstvc	r3, r5, lsl #16
    2114:	032b052e 			; <UNDEFINED> instruction: 0x032b052e
    2118:	07052e0e 	streq	r2, [r5, -lr, lsl #28]
    211c:	0609052f 	streq	r0, [r9], -pc, lsr #10
    2120:	030d052f 	movweq	r0, #54575	; 0xd52f
    2124:	0505016f 	streq	r0, [r5, #-367]	; 0xfffffe91
    2128:	2e2e0613 	mcrcs	6, 1, r0, cr14, cr3, {0}
    212c:	0609052e 	streq	r0, [r9], -lr, lsr #10
    2130:	05011203 	streq	r1, [r1, #-515]	; 0xfffffdfd
    2134:	0172030d 	cmneq	r2, sp, lsl #6
    2138:	06130505 	ldreq	r0, [r3], -r5, lsl #10
    213c:	1d052e2e 	stcne	14, cr2, [r5, #-184]	; 0xffffff48
    2140:	66100306 	ldrvs	r0, [r0], -r6, lsl #6
    2144:	05130505 	ldreq	r0, [r3, #-1285]	; 0xfffffafb
    2148:	2e11061d 	mrccs	6, 0, r0, cr1, cr13, {0}
    214c:	30060505 	andcc	r0, r6, r5, lsl #10
    2150:	060e0513 			; <UNDEFINED> instruction: 0x060e0513
    2154:	30170510 	andscc	r0, r7, r0, lsl r5
    2158:	0502042e 	streq	r0, [r2, #-1070]	; 0xfffffbd2
    215c:	dd030630 	stcle	6, cr0, [r3, #-192]	; 0xffffff40
    2160:	01042e00 	tsteq	r4, r0, lsl #28
    2164:	03060e05 	movweq	r0, #28165	; 0x6e05
    2168:	05017fa2 	streq	r7, [r1, #-4002]	; 0xfffff05e
    216c:	01052f23 	tsteq	r5, r3, lsr #30
    2170:	0006022f 	andeq	r0, r6, pc, lsr #4
    2174:	009e0101 	addseq	r0, lr, r1, lsl #2
    2178:	00030000 	andeq	r0, r3, r0
    217c:	0000005a 	andeq	r0, r0, sl, asr r0
    2180:	0efb0102 	cdpeq	1, 15, cr0, cr11, cr2, {0}
    2184:	0101000d 	tsteq	r1, sp
    2188:	00000101 	andeq	r0, r0, r1, lsl #2
    218c:	00000100 	andeq	r0, r0, r0, lsl #2
    2190:	6c2f2e01 	stcvs	14, cr2, [pc], #-4	; 2194 <__code_start__-0x5e6c>
    2194:	00636269 	rsbeq	r6, r3, r9, ror #4
    2198:	6573552f 	ldrbvs	r5, [r3, #-1327]!	; 0xfffffad1
    219c:	6d2f7372 	stcvs	3, cr7, [pc, #-456]!	; 1fdc <__code_start__-0x6024>
    21a0:	73656c69 	cmnvc	r5, #26880	; 0x6900
    21a4:	756f532f 	strbvc	r5, [pc, #-815]!	; 1e7d <__code_start__-0x6183>
    21a8:	2f656372 	svccs	0x00656372
    21ac:	34327363 	ldrtcc	r7, [r2], #-867	; 0xfffffc9d
    21b0:	2f786c30 	svccs	0x00786c30
    21b4:	7062696c 	rsbvc	r6, r2, ip, ror #18
    21b8:	6e692f69 	cdpvs	15, 6, cr2, cr9, cr9, {3}
    21bc:	64756c63 	ldrbtvs	r6, [r5], #-3171	; 0xfffff39d
    21c0:	70000065 	andvc	r0, r0, r5, rrx
    21c4:	68637475 	stmdavs	r3!, {r0, r2, r4, r5, r6, sl, ip, sp, lr}^
    21c8:	632e7261 			; <UNDEFINED> instruction: 0x632e7261
    21cc:	00000100 	andeq	r0, r0, r0, lsl #2
    21d0:	2e697072 	mcrcs	0, 3, r7, cr9, cr2, {3}
    21d4:	00020068 	andeq	r0, r2, r8, rrx
    21d8:	24050000 	strcs	r0, [r5], #-0
    21dc:	ec020500 	cfstr32	mvfx0, [r2], {-0}
    21e0:	1400009b 	strne	r0, [r0], #-155	; 0xffffff65
    21e4:	05012605 	streq	r2, [r1, #-1541]	; 0xfffff9fb
    21e8:	2e010624 	cfmadd32cs	mvax1, mvfx0, mvfx1, mvfx4
    21ec:	052e2605 	streq	r2, [lr, #-1541]!	; 0xfffff9fb
    21f0:	052e0634 	streq	r0, [lr, #-1588]!	; 0xfffff9cc
    21f4:	05010601 	streq	r0, [r1, #-1537]	; 0xfffff9ff
    21f8:	054f061b 	strbeq	r0, [pc, #-1563]	; 1be5 <__code_start__-0x641b>
    21fc:	11051305 	tstne	r5, r5, lsl #6
    2200:	01050106 	tsteq	r5, r6, lsl #2
    2204:	06230567 	strteq	r0, [r3], -r7, ror #10
    2208:	13050567 	movwne	r0, #21863	; 0x5567
    220c:	01061105 	tsteq	r6, r5, lsl #2
    2210:	024b0105 	subeq	r0, fp, #1073741825	; 0x40000001
    2214:	01010004 	tsteq	r1, r4
    2218:	000000e2 	andeq	r0, r0, r2, ror #1
    221c:	00590003 	subseq	r0, r9, r3
    2220:	01020000 	mrseq	r0, (UNDEF: 2)
    2224:	000d0efb 	strdeq	r0, [sp], -fp
    2228:	01010101 	tsteq	r1, r1, lsl #2
    222c:	01000000 	mrseq	r0, (UNDEF: 0)
    2230:	2e010000 	cdpcs	0, 0, cr0, cr1, cr0, {0}
    2234:	62696c2f 	rsbvs	r6, r9, #12032	; 0x2f00
    2238:	552f0063 	strpl	r0, [pc, #-99]!	; 21dd <__code_start__-0x5e23>
    223c:	73726573 	cmnvc	r2, #482344960	; 0x1cc00000
    2240:	6c696d2f 	stclvs	13, cr6, [r9], #-188	; 0xffffff44
    2244:	532f7365 			; <UNDEFINED> instruction: 0x532f7365
    2248:	6372756f 	cmnvs	r2, #465567744	; 0x1bc00000
    224c:	73632f65 	cmnvc	r3, #404	; 0x194
    2250:	6c303432 	cfldrsvs	mvf3, [r0], #-200	; 0xffffff38
    2254:	696c2f78 	stmdbvs	ip!, {r3, r4, r5, r6, r8, r9, sl, fp, sp}^
    2258:	2f697062 	svccs	0x00697062
    225c:	6c636e69 	stclvs	14, cr6, [r3], #-420	; 0xfffffe5c
    2260:	00656475 	rsbeq	r6, r5, r5, ror r4
    2264:	72747300 	rsbsvc	r7, r4, #0, 6
    2268:	2e746163 	rpwcssz	f6, f4, f3
    226c:	00010063 	andeq	r0, r1, r3, rrx
    2270:	69707200 	ldmdbvs	r0!, {r9, ip, sp, lr}^
    2274:	0200682e 	andeq	r6, r0, #3014656	; 0x2e0000
    2278:	05000000 	streq	r0, [r0, #-0]
    227c:	0205002c 	andeq	r0, r5, #44, 0	; 0x2c
    2280:	00009c28 	andeq	r9, r0, r8, lsr #24
    2284:	13050515 	movwne	r0, #21781	; 0x5515
    2288:	060b0513 			; <UNDEFINED> instruction: 0x060b0513
    228c:	00050511 	andeq	r0, r5, r1, lsl r5
    2290:	06010402 	streq	r0, [r1], -r2, lsl #8
    2294:	04020030 	streq	r0, [r2], #-48	; 0xffffffd0
    2298:	09051501 	stmdbeq	r5, {r0, r8, sl, ip}
    229c:	01040200 	mrseq	r0, R12_usr
    22a0:	000b0513 	andeq	r0, fp, r3, lsl r5
    22a4:	2f010402 	svccs	0x00010402
    22a8:	02000505 	andeq	r0, r0, #20971520	; 0x1400000
    22ac:	01060104 	tsteq	r6, r4, lsl #2
    22b0:	01040200 	mrseq	r0, R12_usr
    22b4:	054e062e 	strbeq	r0, [lr, #-1582]	; 0xfffff9d2
    22b8:	05010608 	streq	r0, [r1, #-1544]	; 0xfffff9f8
    22bc:	04020005 	streq	r0, [r2], #-5
    22c0:	052f0601 	streq	r0, [pc, #-1537]!	; 1cc7 <__code_start__-0x6339>
    22c4:	04020009 	streq	r0, [r2], #-9
    22c8:	0b051301 	bleq	146ed4 <__bss_end__+0x13c7fc>
    22cc:	01040200 	mrseq	r0, R12_usr
    22d0:	09050106 	stmdbeq	r5, {r1, r2, r8}
    22d4:	01040200 	mrseq	r0, R12_usr
    22d8:	05052f06 	streq	r2, [r5, #-3846]	; 0xfffff0fa
    22dc:	01040200 	mrseq	r0, R12_usr
    22e0:	0f051306 	svceq	0x00051306
    22e4:	01040200 	mrseq	r0, R12_usr
    22e8:	000d052d 	andeq	r0, sp, sp, lsr #10
    22ec:	06010402 	streq	r0, [r1], -r2, lsl #8
    22f0:	0005052f 	andeq	r0, r5, pc, lsr #10
    22f4:	06010402 	streq	r0, [r1], -r2, lsl #8
    22f8:	00040201 	andeq	r0, r4, r1, lsl #4
    22fc:	00b20101 	adcseq	r0, r2, r1, lsl #2
    2300:	00030000 	andeq	r0, r3, r0
    2304:	00000059 	andeq	r0, r0, r9, asr r0
    2308:	0efb0102 	cdpeq	1, 15, cr0, cr11, cr2, {0}
    230c:	0101000d 	tsteq	r1, sp
    2310:	00000101 	andeq	r0, r0, r1, lsl #2
    2314:	00000100 	andeq	r0, r0, r0, lsl #2
    2318:	6c2f2e01 	stcvs	14, cr2, [pc], #-4	; 231c <__code_start__-0x5ce4>
    231c:	00636269 	rsbeq	r6, r3, r9, ror #4
    2320:	6573552f 	ldrbvs	r5, [r3, #-1327]!	; 0xfffffad1
    2324:	6d2f7372 	stcvs	3, cr7, [pc, #-456]!	; 2164 <__code_start__-0x5e9c>
    2328:	73656c69 	cmnvc	r5, #26880	; 0x6900
    232c:	756f532f 	strbvc	r5, [pc, #-815]!	; 2005 <__code_start__-0x5ffb>
    2330:	2f656372 	svccs	0x00656372
    2334:	34327363 	ldrtcc	r7, [r2], #-867	; 0xfffffc9d
    2338:	2f786c30 	svccs	0x00786c30
    233c:	7062696c 	rsbvc	r6, r2, ip, ror #18
    2340:	6e692f69 	cdpvs	15, 6, cr2, cr9, cr9, {3}
    2344:	64756c63 	ldrbtvs	r6, [r5], #-3171	; 0xfffff39d
    2348:	73000065 	movwvc	r0, #101	; 0x65
    234c:	6d637274 	sfmvs	f7, 2, [r3, #-464]!	; 0xfffffe30
    2350:	00632e70 	rsbeq	r2, r3, r0, ror lr
    2354:	72000001 	andvc	r0, r0, #1, 0
    2358:	682e6970 	stmdavs	lr!, {r4, r5, r6, r8, fp, sp, lr}
    235c:	00000200 	andeq	r0, r0, r0, lsl #4
    2360:	002a0500 	eoreq	r0, sl, r0, lsl #10
    2364:	9c540205 	lfmls	f0, 2, [r4], {5}
    2368:	05140000 	ldreq	r0, [r4, #-0]
    236c:	10051309 	andne	r1, r5, r9, lsl #6
    2370:	0f050106 	svceq	0x00050106
    2374:	10052e06 	andne	r2, r5, r6, lsl #28
    2378:	0f058206 	svceq	0x00058206
    237c:	0011052e 	andseq	r0, r1, lr, lsr #10
    2380:	06010402 	streq	r0, [r1], -r2, lsl #8
    2384:	001c054b 	andseq	r0, ip, fp, asr #10
    2388:	06010402 	streq	r0, [r1], -r2, lsl #8
    238c:	000f052d 	andeq	r0, pc, sp, lsr #10
    2390:	06010402 	streq	r0, [r1], -r2, lsl #8
    2394:	0013052e 	andseq	r0, r3, lr, lsr #10
    2398:	06010402 	streq	r0, [r1], -r2, lsl #8
    239c:	06090501 	streq	r0, [r9], -r1, lsl #10
    23a0:	0601054c 	streq	r0, [r1], -ip, asr #10
    23a4:	09054a13 	stmdbeq	r5, {r0, r1, r4, r9, fp, lr}
    23a8:	01052d06 	tsteq	r5, r6, lsl #26
    23ac:	022e1306 	eoreq	r1, lr, #402653184	; 0x18000000
    23b0:	01010002 	tsteq	r1, r2
    23b4:	0000009d 	muleq	r0, sp, r0
    23b8:	00590003 	subseq	r0, r9, r3
    23bc:	01020000 	mrseq	r0, (UNDEF: 2)
    23c0:	000d0efb 	strdeq	r0, [sp], -fp
    23c4:	01010101 	tsteq	r1, r1, lsl #2
    23c8:	01000000 	mrseq	r0, (UNDEF: 0)
    23cc:	2e010000 	cdpcs	0, 0, cr0, cr1, cr0, {0}
    23d0:	62696c2f 	rsbvs	r6, r9, #12032	; 0x2f00
    23d4:	552f0063 	strpl	r0, [pc, #-99]!	; 2379 <__code_start__-0x5c87>
    23d8:	73726573 	cmnvc	r2, #482344960	; 0x1cc00000
    23dc:	6c696d2f 	stclvs	13, cr6, [r9], #-188	; 0xffffff44
    23e0:	532f7365 			; <UNDEFINED> instruction: 0x532f7365
    23e4:	6372756f 	cmnvs	r2, #465567744	; 0x1bc00000
    23e8:	73632f65 	cmnvc	r3, #404	; 0x194
    23ec:	6c303432 	cfldrsvs	mvf3, [r0], #-200	; 0xffffff38
    23f0:	696c2f78 	stmdbvs	ip!, {r3, r4, r5, r6, r8, r9, sl, fp, sp}^
    23f4:	2f697062 	svccs	0x00697062
    23f8:	6c636e69 	stclvs	14, cr6, [r3], #-420	; 0xfffffe5c
    23fc:	00656475 	rsbeq	r6, r5, r5, ror r4
    2400:	72747300 	rsbsvc	r7, r4, #0, 6
    2404:	2e797063 	cdpcs	0, 7, cr7, cr9, cr3, {3}
    2408:	00010063 	andeq	r0, r1, r3, rrx
    240c:	69707200 	ldmdbvs	r0!, {r9, ip, sp, lr}^
    2410:	0200682e 	andeq	r6, r0, #3014656	; 0x2e0000
    2414:	05000000 	streq	r0, [r0, #-0]
    2418:	0205002a 	andeq	r0, r5, #42, 0	; 0x2a
    241c:	00009c98 	muleq	r0, r8, ip
    2420:	13050514 	movwne	r0, #21780	; 0x5514
    2424:	00220513 	eoreq	r0, r2, r3, lsl r5
    2428:	2e010402 	cdpcs	4, 0, cr0, cr1, cr2, {0}
    242c:	02000b05 	andeq	r0, r0, #5120	; 0x1400
    2430:	05010104 	streq	r0, [r1, #-260]	; 0xfffffefc
    2434:	04020015 	streq	r0, [r2], #-21	; 0xffffffeb
    2438:	05010601 	streq	r0, [r1, #-1537]	; 0xfffff9ff
    243c:	0402000b 	streq	r0, [r2], #-11
    2440:	13052e01 	movwne	r2, #24065	; 0x5e01
    2444:	01040200 	mrseq	r0, R12_usr
    2448:	000b052e 	andeq	r0, fp, lr, lsr #10
    244c:	2e010402 	cdpcs	4, 0, cr0, cr1, cr2, {0}
    2450:	01000402 	tsteq	r0, r2, lsl #8
    2454:	0000fd01 	andeq	pc, r0, r1, lsl #26
    2458:	bf000300 	svclt	0x00000300
    245c:	02000000 	andeq	r0, r0, #0, 0
    2460:	0d0efb01 	vstreq	d15, [lr, #-4]
    2464:	01010100 	mrseq	r0, (UNDEF: 17)
    2468:	00000001 	andeq	r0, r0, r1
    246c:	01000001 	tsteq	r0, r1
    2470:	696c2f2e 	stmdbvs	ip!, {r1, r2, r3, r5, r8, r9, sl, fp, sp}^
    2474:	2f006362 	svccs	0x00006362
    2478:	72657355 	rsbvc	r7, r5, #1409286145	; 0x54000001
    247c:	696d2f73 	stmdbvs	sp!, {r0, r1, r4, r5, r6, r8, r9, sl, fp, sp}^
    2480:	2f73656c 	svccs	0x0073656c
    2484:	72756f53 	rsbsvc	r6, r5, #332	; 0x14c
    2488:	632f6563 			; <UNDEFINED> instruction: 0x632f6563
    248c:	30343273 	eorscc	r3, r4, r3, ror r2
    2490:	6c2f786c 	stcvs	8, cr7, [pc], #-432	; 22e8 <__code_start__-0x5d18>
    2494:	69706269 	ldmdbvs	r0!, {r0, r3, r5, r6, r9, sp, lr}^
    2498:	636e692f 	cmnvs	lr, #770048	; 0xbc000
    249c:	6564756c 	strbvs	r7, [r4, #-1388]!	; 0xfffffa94
    24a0:	706f2f00 	rsbvc	r2, pc, r0, lsl #30
    24a4:	6f682f74 	svcvs	0x00682f74
    24a8:	7262656d 	rsbvc	r6, r2, #457179136	; 0x1b400000
    24ac:	432f7765 			; <UNDEFINED> instruction: 0x432f7765
    24b0:	616c6c65 	cmnvs	ip, r5, ror #24
    24b4:	72612f72 	rsbvc	r2, r1, #456	; 0x1c8
    24b8:	6f6e2d6d 	svcvs	0x006e2d6d
    24bc:	652d656e 	strvs	r6, [sp, #-1390]!	; 0xfffffa92
    24c0:	2d696261 	sfmcs	f6, 2, [r9, #-388]!	; 0xfffffe7c
    24c4:	2d392f39 	ldccs	15, cr2, [r9, #-228]!	; 0xffffff1c
    24c8:	39313032 	ldmdbcc	r1!, {r1, r4, r5, ip, sp}
    24cc:	632d3471 			; <UNDEFINED> instruction: 0x632d3471
    24d0:	37303173 			; <UNDEFINED> instruction: 0x37303173
    24d4:	696c2f65 	stmdbvs	ip!, {r0, r2, r5, r6, r8, r9, sl, fp, sp}^
    24d8:	63672f62 	cmnvs	r7, #392	; 0x188
    24dc:	72612f63 	rsbvc	r2, r1, #396	; 0x18c
    24e0:	6f6e2d6d 	svcvs	0x006e2d6d
    24e4:	652d656e 	strvs	r6, [sp, #-1390]!	; 0xfffffa92
    24e8:	2f696261 	svccs	0x00696261
    24ec:	2e322e39 	mrccs	14, 1, r2, cr2, cr9, {1}
    24f0:	6e692f31 	mcrvs	15, 3, r2, cr9, cr1, {1}
    24f4:	64756c63 	ldrbtvs	r6, [r5], #-3171	; 0xfffff39d
    24f8:	73000065 	movwvc	r0, #101	; 0x65
    24fc:	636e7274 	cmnvs	lr, #116, 4	; 0x40000007
    2500:	632e706d 			; <UNDEFINED> instruction: 0x632e706d
    2504:	00000100 	andeq	r0, r0, r0, lsl #2
    2508:	2e697072 	mcrcs	0, 3, r7, cr9, cr2, {3}
    250c:	00020068 	andeq	r0, r2, r8, rrx
    2510:	64747300 	ldrbtvs	r7, [r4], #-768	; 0xfffffd00
    2514:	2e666564 	cdpcs	5, 6, cr6, cr6, cr4, {3}
    2518:	00030068 	andeq	r0, r3, r8, rrx
    251c:	39050000 	stmdbcc	r5, {}	; <UNPREDICTABLE>
    2520:	b0020500 	andlt	r0, r2, r0, lsl #10
    2524:	1500009c 	strne	r0, [r0, #-156]	; 0xffffff64
    2528:	13130505 	tstne	r3, #20971520	; 0x1400000
    252c:	2e060a05 	vmlacs.f32	s0, s12, s10
    2530:	052f0c05 	streq	r0, [pc, #-3077]!	; 1933 <__code_start__-0x66cd>
    2534:	0b052e13 	bleq	14dd88 <__bss_end__+0x1436b0>
    2538:	0609052e 	streq	r0, [r9], -lr, lsr #10
    253c:	110a054a 	tstne	sl, sl, asr #10
    2540:	0c050106 	stfeqs	f0, [r5], {6}
    2544:	2f01054e 	svccs	0x0001054e
    2548:	2b060d05 	blcs	185964 <__bss_end__+0x17b28c>
    254c:	01061b05 	tsteq	r6, r5, lsl #22
    2550:	0002022e 	andeq	r0, r2, lr, lsr #4
    2554:	008a0101 	addeq	r0, sl, r1, lsl #2
    2558:	00030000 	andeq	r0, r3, r0
    255c:	0000006e 	andeq	r0, r0, lr, rrx
    2560:	0efb0102 	cdpeq	1, 15, cr0, cr11, cr2, {0}
    2564:	0101000d 	tsteq	r1, sp
    2568:	00000101 	andeq	r0, r0, r1, lsl #2
    256c:	00000100 	andeq	r0, r0, r0, lsl #2
    2570:	732f2e01 			; <UNDEFINED> instruction: 0x732f2e01
    2574:	66666174 			; <UNDEFINED> instruction: 0x66666174
    2578:	6372732d 	cmnvs	r2, #-1275068416	; 0xb4000000
    257c:	73552f00 	cmpvc	r5, #0, 30
    2580:	2f737265 	svccs	0x00737265
    2584:	656c696d 	strbvs	r6, [ip, #-2413]!	; 0xfffff693
    2588:	6f532f73 	svcvs	0x00532f73
    258c:	65637275 	strbvs	r7, [r3, #-629]!	; 0xfffffd8b
    2590:	3273632f 	rsbscc	r6, r3, #-1140850688	; 0xbc000000
    2594:	786c3034 	stmdavc	ip!, {r2, r4, r5, ip, sp}^
    2598:	62696c2f 	rsbvs	r6, r9, #12032	; 0x2f00
    259c:	692f6970 	stmdbvs	pc!, {r4, r5, r6, r8, fp, sp, lr}	; <UNPREDICTABLE>
    25a0:	756c636e 	strbvc	r6, [ip, #-878]!	; 0xfffffc92
    25a4:	00006564 	andeq	r6, r0, r4, ror #10
    25a8:	61666564 	cmnvs	r6, r4, ror #10
    25ac:	2d746c75 	ldclcs	12, cr6, [r4, #-468]!	; 0xfffffe2c
    25b0:	6f626572 	svcvs	0x00626572
    25b4:	632d746f 			; <UNDEFINED> instruction: 0x632d746f
    25b8:	6f6c6c61 	svcvs	0x006c6c61
    25bc:	632e7475 			; <UNDEFINED> instruction: 0x632e7475
    25c0:	00000100 	andeq	r0, r0, r0, lsl #2
    25c4:	2e697072 	mcrcs	0, 3, r7, cr9, cr2, {3}
    25c8:	00020068 	andeq	r0, r2, r8, rrx
    25cc:	1b050000 	blne	1425d4 <__bss_end__+0x137efc>
    25d0:	e0020500 	and	r0, r2, r0, lsl #10
    25d4:	1400009c 	strne	r0, [r0], #-156	; 0xffffff64
    25d8:	05011c05 	streq	r1, [r1, #-3077]	; 0xfffff3fb
    25dc:	02010601 	andeq	r0, r1, #1048576	; 0x100000
    25e0:	01010002 	tsteq	r1, r2

Disassembly of section .debug_str:

00000000 <.debug_str>:
   0:	6c616b63 			; <UNDEFINED> instruction: 0x6c616b63
   4:	00636f6c 	rsbeq	r6, r3, ip, ror #30
   8:	656e696c 	strbvs	r6, [lr, #-2412]!	; 0xfffff694
   c:	63006f6e 	movwvs	r6, #3950	; 0xf6e
  10:	69665f6b 	stmdbvs	r6!, {r0, r1, r3, r5, r6, r8, r9, sl, fp, ip, lr}^
  14:	6c5f646e 	cfldrdvs	mvd6, [pc], {110}	; 0x6e
  18:	736b6165 	cmnvc	fp, #1073741849	; 0x40000019
  1c:	746f6e00 	strbtvc	r6, [pc], #-3584	; 24 <__code_start__-0x7fdc>
  20:	6e69616d 	powvsez	f6, f1, #5.0
  24:	6c696600 	stclvs	6, cr6, [r9], #-0
  28:	6e750065 	cdpvs	0, 7, cr0, cr5, cr5, {3}
  2c:	6e676973 			; <UNDEFINED> instruction: 0x6e676973
  30:	63206465 			; <UNDEFINED> instruction: 0x63206465
  34:	00726168 	rsbseq	r6, r2, r8, ror #2
  38:	61656c63 	cmnvs	r5, r3, ror #24
  3c:	65725f6e 	ldrbvs	r5, [r2, #-3950]!	; 0xfffff092
  40:	746f6f62 	strbtvc	r6, [pc], #-3938	; 48 <__code_start__-0x7fb8>
  44:	6f687300 	svcvs	0x00687300
  48:	75207472 	strvc	r7, [r0, #-1138]!	; 0xfffffb8e
  4c:	6769736e 	strbvs	r7, [r9, -lr, ror #6]!
  50:	2064656e 	rsbcs	r6, r4, lr, ror #10
  54:	00746e69 	rsbseq	r6, r4, r9, ror #28
  58:	5f637273 	svcpl	0x00637273
  5c:	5f636f6c 	svcpl	0x00636f6c
  60:	6d006b6d 	vstrvs	d6, [r0, #-436]	; 0xfffffe4c
  64:	65736d65 	ldrbvs	r6, [r3, #-3429]!	; 0xfffff29b
  68:	75660074 	strbvc	r0, [r6, #-116]!	; 0xffffff8c
  6c:	5f00636e 	svcpl	0x0000636e
  70:	4e55465f 	mrcmi	6, 2, r4, cr5, cr15, {2}
  74:	4f495443 	svcmi	0x00495443
  78:	005f5f4e 	subseq	r5, pc, lr, asr #30
  7c:	74736574 	ldrbtvc	r6, [r3], #-1396	; 0xfffffa8c
  80:	61702f73 	cmnvs	r0, r3, ror pc
  84:	2d327472 	cfldrscs	mvf7, [r2, #-456]!	; 0xfffffe38
  88:	74736574 	ldrbtvc	r6, [r3], #-1396	; 0xfffffa8c
  8c:	00632e31 	rsbeq	r2, r3, r1, lsr lr
  90:	676e6f6c 	strbvs	r6, [lr, -ip, ror #30]!
  94:	6e6f6c20 	cdpvs	12, 6, cr6, cr15, cr0, {1}
  98:	6e752067 	cdpvs	0, 7, cr2, cr5, cr7, {3}
  9c:	6e676973 			; <UNDEFINED> instruction: 0x6e676973
  a0:	69206465 	stmdbvs	r0!, {r0, r2, r5, r6, sl, sp, lr}
  a4:	6c00746e 	cfstrsvs	mvf7, [r0], {110}	; 0x6e
  a8:	20676e6f 	rsbcs	r6, r7, pc, ror #28
  ac:	676e6f6c 	strbvs	r6, [lr, -ip, ror #30]!
  b0:	746e6920 	strbtvc	r6, [lr], #-2336	; 0xfffff6e0
  b4:	73552f00 	cmpvc	r5, #0, 30
  b8:	2f737265 	svccs	0x00737265
  bc:	656c696d 	strbvs	r6, [ip, #-2413]!	; 0xfffff693
  c0:	6f532f73 	svcvs	0x00532f73
  c4:	65637275 	strbvs	r7, [r3, #-629]!	; 0xfffffd8b
  c8:	3273632f 	rsbscc	r6, r3, #-1140850688	; 0xbc000000
  cc:	786c3034 	stmdavc	ip!, {r2, r4, r5, ip, sp}^
  d0:	62616c2f 	rsbvs	r6, r1, #12032	; 0x2f00
  d4:	2d352f73 	ldccs	15, cr2, [r5, #-460]!	; 0xfffffe34
  d8:	6c6c616d 	stfvse	f6, [ip], #-436	; 0xfffffe4c
  dc:	672b636f 	strvs	r6, [fp, -pc, ror #6]!
  e0:	6f632f63 	svcvs	0x00632f63
  e4:	63006564 	movwvs	r6, #1380	; 0x564
  e8:	6572666b 	ldrbvs	r6, [r2, #-1643]!	; 0xfffff995
  ec:	68730065 	ldmdavs	r3!, {r0, r2, r5, r6}^
  f0:	2074726f 	rsbscs	r7, r4, pc, ror #4
  f4:	00746e69 	rsbseq	r6, r4, r9, ror #28
  f8:	5f637273 	svcpl	0x00637273
  fc:	5f636f6c 	svcpl	0x00636f6c
 100:	70720074 	rsbsvc	r0, r2, r4, ror r0
 104:	75705f69 	ldrbvc	r5, [r0, #-3945]!	; 0xfffff097
 108:	61686374 	smcvs	34356	; 0x8634
 10c:	4e470072 	mcrmi	0, 2, r0, cr7, cr2, {3}
 110:	39432055 	stmdbcc	r3, {r0, r2, r4, r6, sp}^
 114:	2e392039 	mrccs	0, 1, r2, cr9, cr9, {1}
 118:	20312e32 	eorscs	r2, r1, r2, lsr lr
 11c:	39313032 	ldmdbcc	r1!, {r1, r4, r5, ip, sp}
 120:	35323031 	ldrcc	r3, [r2, #-49]!	; 0xffffffcf
 124:	65722820 	ldrbvs	r2, [r2, #-2080]!	; 0xfffff7e0
 128:	7361656c 	cmnvc	r1, #108, 10	; 0x1b000000
 12c:	5b202965 	blpl	80a6c8 <__bss_end__+0x7ffff0>
 130:	2f4d5241 	svccs	0x004d5241
 134:	2d6d7261 	sfmcs	f7, 2, [sp, #-388]!	; 0xfffffe7c
 138:	72622d39 	rsbvc	r2, r2, #3648	; 0xe40
 13c:	68636e61 	stmdavs	r3!, {r0, r5, r6, r9, sl, fp, sp, lr}^
 140:	76657220 	strbtvc	r7, [r5], -r0, lsr #4
 144:	6f697369 	svcvs	0x00697369
 148:	3732206e 	ldrcc	r2, [r2, -lr, rrx]!
 14c:	39393537 	ldmdbcc	r9!, {r0, r1, r2, r4, r5, r8, sl, ip, sp}
 150:	6d2d205d 	stcvs	0, cr2, [sp, #-372]!	; 0xfffffe8c
 154:	3d757063 	ldclcc	0, cr7, [r5, #-396]!	; 0xfffffe74
 158:	316d7261 	cmncc	sp, r1, ror #4
 15c:	6a363731 	bvs	d8de28 <__bss_end__+0xd83750>
 160:	732d667a 			; <UNDEFINED> instruction: 0x732d667a
 164:	746d2d20 	strbtvc	r2, [sp], #-3360	; 0xfffff2e0
 168:	3d656e75 	stclcc	14, cr6, [r5, #-468]!	; 0xfffffe2c
 16c:	316d7261 	cmncc	sp, r1, ror #4
 170:	6a363731 	bvs	d8de3c <__bss_end__+0xd83764>
 174:	732d667a 			; <UNDEFINED> instruction: 0x732d667a
 178:	666d2d20 	strbtvs	r2, [sp], -r0, lsr #26
 17c:	74616f6c 	strbtvc	r6, [r1], #-3948	; 0xfffff094
 180:	6962612d 	stmdbvs	r2!, {r0, r2, r3, r5, r8, sp, lr}^
 184:	666f733d 			; <UNDEFINED> instruction: 0x666f733d
 188:	6d2d2074 	stcvs	0, cr2, [sp, #-464]!	; 0xfffffe30
 18c:	206d7261 	rsbcs	r7, sp, r1, ror #4
 190:	72616d2d 	rsbvc	r6, r1, #2880	; 0xb40
 194:	613d6863 	teqvs	sp, r3, ror #16
 198:	36766d72 			; <UNDEFINED> instruction: 0x36766d72
 19c:	2d207a6b 	vstmdbcs	r0!, {s14-s120}
 1a0:	62646767 	rsbvs	r6, r4, #27000832	; 0x19c0000
 1a4:	674f2d20 	strbvs	r2, [pc, -r0, lsr #26]
 1a8:	74732d20 	ldrbtvc	r2, [r3], #-3360	; 0xfffff2e0
 1ac:	6e673d64 	cdpvs	13, 6, cr3, cr7, cr4, {3}
 1b0:	20393975 	eorscs	r3, r9, r5, ror r9
 1b4:	7266662d 	rsbvc	r6, r6, #47185920	; 0x2d00000
 1b8:	74736565 	ldrbtvc	r6, [r3], #-1381	; 0xfffffa9b
 1bc:	69646e61 	stmdbvs	r4!, {r0, r5, r6, r9, sl, fp, sp, lr}^
 1c0:	7400676e 	strvc	r6, [r0], #-1902	; 0xfffff892
 1c4:	31747365 	cmncc	r4, r5, ror #6
 1c8:	5f6b6300 	svcpl	0x006b6300
 1cc:	5f727470 	svcpl	0x00727470
 1d0:	625f6e69 	subsvs	r6, pc, #1680	; 0x690
 1d4:	6b636f6c 	blvs	18dbf8c <__bss_end__+0x18d18b4>
 1d8:	72646800 	rsbvc	r6, r4, #0, 16
 1dc:	4600745f 			; <UNDEFINED> instruction: 0x4600745f
 1e0:	44454552 	strbmi	r4, [r5], #-1362	; 0xfffffaae
 1e4:	66657200 	strbtvs	r7, [r5], -r0, lsl #4
 1e8:	696d5f73 	stmdbvs	sp!, {r0, r1, r4, r5, r6, r8, r9, sl, fp, ip, lr}^
 1ec:	656c6464 	strbvs	r6, [ip, #-1124]!	; 0xfffffb9c
 1f0:	5f726b00 	svcpl	0x00726b00
 1f4:	65657266 	strbvs	r7, [r5, #-614]!	; 0xfffffd9a
 1f8:	5f6b6300 	svcpl	0x006b6300
 1fc:	73726966 	cmnvc	r2, #1671168	; 0x198000
 200:	64685f74 	strbtvs	r5, [r8], #-3956	; 0xfffff08c
 204:	6c610072 	stclvs	0, cr0, [r1], #-456	; 0xfffffe38
 208:	5f636f6c 	svcpl	0x00636f6c
 20c:	7473696c 	ldrbtvc	r6, [r3], #-2412	; 0xfffff694
 210:	73696c00 	cmnvc	r9, #0, 24
 214:	65725f74 	ldrbvs	r5, [r2, #-3956]!	; 0xfffff08c
 218:	65766f6d 	ldrbvs	r6, [r6, #-3949]!	; 0xfffff093
 21c:	5f6b6300 	svcpl	0x006b6300
 220:	00726468 	rsbseq	r6, r2, r8, ror #8
 224:	6f6c6c61 	svcvs	0x006c6c61
 228:	6f6c5f63 	svcvs	0x006c5f63
 22c:	74730063 	ldrbtvc	r0, [r3], #-99	; 0xffffff9d
 230:	00657461 	rsbeq	r7, r5, r1, ror #8
 234:	6b72616d 	blvs	1c987f0 <__bss_end__+0x1c8e118>
 238:	66657200 	strbtvs	r7, [r5], -r0, lsl #4
 23c:	74735f73 	ldrbtvc	r5, [r3], #-3955	; 0xfffff08d
 240:	00747261 	rsbseq	r7, r4, r1, ror #4
 244:	746e6975 	strbtvc	r6, [lr], #-2421	; 0xfffff68b
 248:	745f3233 	ldrbvc	r3, [pc], #-563	; 250 <__code_start__-0x7db0>
 24c:	6e697500 	cdpvs	5, 6, cr7, cr9, cr0, {0}
 250:	5f363174 	svcpl	0x00363174
 254:	6b630074 	blvs	18c042c <__bss_end__+0x18b5d54>
 258:	7274705f 	rsbsvc	r7, r4, #95, 0	; 0x5f
 25c:	5f73695f 	svcpl	0x0073695f
 260:	6f6c6c61 	svcvs	0x006c6c61
 264:	00646563 	rsbeq	r6, r4, r3, ror #10
 268:	6e5f6b63 	vnmlavs.f64	d22, d15, d19
 26c:	5f747865 	svcpl	0x00747865
 270:	00726468 	rsbseq	r6, r2, r8, ror #8
 274:	6c616b63 			; <UNDEFINED> instruction: 0x6c616b63
 278:	2e636f6c 	cdpcs	15, 6, cr6, cr3, cr12, {3}
 27c:	4c410063 	mcrrmi	0, 6, r0, r1, cr3
 280:	45434f4c 	strbmi	r4, [r3, #-3916]	; 0xfffff0b4
 284:	626e0044 	rsbvs	r0, lr, #68, 0	; 0x44
 288:	73657479 	cmnvc	r5, #2030043136	; 0x79000000
 28c:	6c6c615f 	stfvse	f6, [ip], #-380	; 0xfffffe84
 290:	6300636f 	movwvs	r6, #879	; 0x36f
 294:	64685f6b 	strbtvs	r5, [r8], #-3947	; 0xfffff095
 298:	74735f72 	ldrbtvc	r5, [r3], #-3954	; 0xfffff08e
 29c:	00747261 	rsbseq	r7, r4, r1, ror #4
 2a0:	685f6b63 	ldmdavs	pc, {r0, r1, r5, r6, r8, r9, fp, sp, lr}^	; <UNPREDICTABLE>
 2a4:	655f7264 	ldrbvs	r7, [pc, #-612]	; 48 <__code_start__-0x7fb8>
 2a8:	7000646e 	andvc	r6, r0, lr, ror #8
 2ac:	00766572 	rsbseq	r6, r6, r2, ror r5
 2b0:	6e5f6b63 	vnmlavs.f64	d22, d15, d19
 2b4:	65747962 	ldrbvs	r7, [r4, #-2402]!	; 0xfffff69e
 2b8:	726b0073 	rsbvc	r0, fp, #115, 0	; 0x73
 2bc:	6c616d5f 	stclvs	13, cr6, [r1], #-380	; 0xfffffe84
 2c0:	00636f6c 	rsbeq	r6, r3, ip, ror #30
 2c4:	7478656e 	ldrbtvc	r6, [r8], #-1390	; 0xfffffa92
 2c8:	61656800 	cmnvs	r5, r0, lsl #16
 2cc:	00726564 	rsbseq	r6, r2, r4, ror #10
 2d0:	76657270 			; <UNDEFINED> instruction: 0x76657270
 2d4:	6c610070 	stclvs	0, cr0, [r1], #-448	; 0xfffffe40
 2d8:	006e6769 	rsbeq	r6, lr, r9, ror #14
 2dc:	65657266 	strbvs	r7, [r5, #-614]!	; 0xfffffd9a
 2e0:	756e0070 	strbvc	r0, [lr, #-112]!	; 0xffffff90
 2e4:	7374696e 	cmnvc	r4, #1802240	; 0x1b8000
 2e8:	2d726b00 	vldmdbcs	r2!, {d22-d21}
 2ec:	6c6c616d 	stfvse	f6, [ip], #-436	; 0xfffffe4c
 2f0:	632e636f 			; <UNDEFINED> instruction: 0x632e636f
 2f4:	756f6400 	strbvc	r6, [pc, #-1024]!	; fffffefc <__bss_end__+0xffff5824>
 2f8:	00656c62 	rsbeq	r6, r5, r2, ror #24
 2fc:	65736162 	ldrbvs	r6, [r3, #-354]!	; 0xfffffe9e
 300:	72627300 	rsbvc	r7, r2, #0, 6
 304:	6f6d006b 	svcvs	0x006d006b
 308:	6f636572 	svcvs	0x00636572
 30c:	73006572 	movwvc	r6, #1394	; 0x572
 310:	00657a69 	rsbeq	r7, r5, r9, ror #20
 314:	64616548 	strbtvs	r6, [r1], #-1352	; 0xfffffab8
 318:	73007265 	movwvc	r7, #613	; 0x265
 31c:	6b636174 	blvs	18d88f4 <__bss_end__+0x18ce21c>
 320:	706f745f 	rsbvc	r7, pc, pc, asr r4	; <UNPREDICTABLE>
 324:	72616d00 	rsbvc	r6, r1, #0, 26
 328:	6c615f6b 	stclvs	15, cr5, [r1], #-428	; 0xfffffe54
 32c:	6d69006c 	stclvs	0, cr0, [r9, #-432]!	; 0xfffffe50
 330:	6d656c70 	stclvs	12, cr6, [r5, #-448]!	; 0xfffffe40
 334:	5f746e65 	svcpl	0x00746e65
 338:	73696874 	cmnvc	r9, #116, 16	; 0x740000
 33c:	625f5f00 	subsvs	r5, pc, #0, 30
 340:	735f7373 	cmpvc	pc, #-872415231	; 0xcc000001
 344:	74726174 	ldrbtvc	r6, [r2], #-372	; 0xfffffe8c
 348:	6e005f5f 	mcrvs	15, 0, r5, cr0, cr15, {2}
 34c:	636f6c62 	cmnvs	pc, #25088	; 0x6200
 350:	6900736b 	stmdbvs	r0, {r0, r1, r3, r5, r6, r8, r9, ip, sp, lr}
 354:	5f74696e 	svcpl	0x0074696e
 358:	626e0070 	rsbvs	r0, lr, #112, 0	; 0x70
 35c:	73657479 	cmnvc	r5, #2030043136	; 0x79000000
 360:	6572665f 	ldrbvs	r6, [r2, #-1631]!	; 0xfffff9a1
 364:	6d006465 	cfstrsvs	mvf6, [r0, #-404]	; 0xfffffe6c
 368:	65627961 	strbvs	r7, [r2, #-2401]!	; 0xfffff69f
 36c:	7272655f 	rsbsvc	r6, r2, #398458880	; 0x17c00000
 370:	0073726f 	rsbseq	r7, r3, pc, ror #4
 374:	675f6b63 	ldrbvs	r6, [pc, -r3, ror #22]
 378:	75640063 	strbvc	r0, [r4, #-99]!	; 0xffffff9d
 37c:	725f706d 	subsvc	r7, pc, #109, 0	; 0x6d
 380:	00736765 	rsbseq	r6, r3, r5, ror #14
 384:	61656c6e 	cmnvs	r5, lr, ror #24
 388:	6900736b 	stmdbvs	r0, {r0, r1, r3, r5, r6, r8, r9, ip, sp, lr}
 38c:	6572636e 	ldrbvs	r6, [r2, #-878]!	; 0xfffffc92
 390:	746e656d 	strbtvc	r6, [lr], #-1389	; 0xfffffa93
 394:	645f5f00 	ldrbvs	r5, [pc], #-3840	; 39c <__code_start__-0x7c64>
 398:	5f617461 	svcpl	0x00617461
 39c:	5f646e65 	svcpl	0x00646e65
 3a0:	6863005f 	stmdavs	r3!, {r0, r1, r2, r3, r4, r6}^
 3a4:	5f6b6365 	svcpl	0x006b6365
 3a8:	6c5f6f6e 	mrrcvs	15, 6, r6, pc, cr14	; <UNPREDICTABLE>
 3ac:	006b6165 	rsbeq	r6, fp, r5, ror #2
 3b0:	6572666e 	ldrbvs	r6, [r2, #-1646]!	; 0xfffff992
 3b4:	6f006465 	svcvs	0x00006465
 3b8:	626d656e 	rsbvs	r6, sp, #461373440	; 0x1b800000
 3bc:	2d6b6300 	stclcs	3, cr6, [fp, #-0]
 3c0:	632e6367 			; <UNDEFINED> instruction: 0x632e6367
 3c4:	65686300 	strbvs	r6, [r8, #-768]!	; 0xfffffd00
 3c8:	735f6b63 	cmpvc	pc, #101376	; 0x18c00
 3cc:	6c756f68 	ldclvs	15, cr6, [r5], #-416	; 0xfffffe60
 3d0:	656c5f64 	strbvs	r5, [ip, #-3940]!	; 0xfffff09c
 3d4:	5f006b61 	svcpl	0x00006b61
 3d8:	7373625f 	cmnvc	r3, #-268435451	; 0xf0000005
 3dc:	646e655f 	strbtvs	r6, [lr], #-1375	; 0xfffffaa1
 3e0:	6b005f5f 	blvs	18164 <__bss_end__+0xda8c>
 3e4:	6c6c616d 	stfvse	f6, [ip], #-436	; 0xfffffe4c
 3e8:	6b00636f 	blvs	191ac <__bss_end__+0xead4>
 3ec:	6c6c616d 	stfvse	f6, [ip], #-436	; 0xfffffe4c
 3f0:	695f636f 	ldmdbvs	pc, {r0, r1, r2, r3, r5, r6, r8, r9, sp, lr}^	; <UNPREDICTABLE>
 3f4:	5f74696e 	svcpl	0x0074696e
 3f8:	5f746573 	svcpl	0x00746573
 3fc:	72617473 	rsbvc	r7, r1, #1929379840	; 0x73000000
 400:	77730074 			; <UNDEFINED> instruction: 0x77730074
 404:	5f706565 	svcpl	0x00706565
 408:	6b61656c 	blvs	18599c0 <__bss_end__+0x184f2e8>
 40c:	645f5f00 	ldrbvs	r5, [pc], #-3840	; 414 <__code_start__-0x7bec>
 410:	5f617461 	svcpl	0x00617461
 414:	72617473 	rsbvc	r7, r1, #1929379840	; 0x73000000
 418:	005f5f74 	subseq	r5, pc, r4, ror pc	; <UNPREDICTABLE>
 41c:	65657773 	strbvs	r7, [r5, #-1907]!	; 0xfffff88d
 420:	72665f70 	rsbvc	r5, r6, #112, 30	; 0x1c0
 424:	77006565 	strvc	r6, [r0, -r5, ror #10]
 428:	5f6e7261 	svcpl	0x006e7261
 42c:	735f6f6e 	cmpvc	pc, #440	; 0x1b8
 430:	74726174 	ldrbtvc	r6, [r2], #-372	; 0xfffffe8c
 434:	6665725f 			; <UNDEFINED> instruction: 0x6665725f
 438:	7300705f 	movwvc	r7, #95	; 0x5f
 43c:	5f657a69 	svcpl	0x00657a69
 440:	2f2e0074 	svccs	0x002e0074
 444:	6362696c 	cmnvs	r2, #108, 18	; 0x1b0000
 448:	6d656d2f 	stclvs	13, cr6, [r5, #-188]!	; 0xffffff44
 44c:	2e746573 	mrccs	5, 3, r6, cr4, cr3, {3}
 450:	4e470063 	cdpmi	0, 4, cr0, cr7, cr3, {3}
 454:	39432055 	stmdbcc	r3, {r0, r2, r4, r6, sp}^
 458:	2e392039 	mrccs	0, 1, r2, cr9, cr9, {1}
 45c:	20312e32 	eorscs	r2, r1, r2, lsr lr
 460:	39313032 	ldmdbcc	r1!, {r1, r4, r5, ip, sp}
 464:	35323031 	ldrcc	r3, [r2, #-49]!	; 0xffffffcf
 468:	65722820 	ldrbvs	r2, [r2, #-2080]!	; 0xfffff7e0
 46c:	7361656c 	cmnvc	r1, #108, 10	; 0x1b000000
 470:	5b202965 	blpl	80aa0c <__bss_end__+0x800334>
 474:	2f4d5241 	svccs	0x004d5241
 478:	2d6d7261 	sfmcs	f7, 2, [sp, #-388]!	; 0xfffffe7c
 47c:	72622d39 	rsbvc	r2, r2, #3648	; 0xe40
 480:	68636e61 	stmdavs	r3!, {r0, r5, r6, r9, sl, fp, sp, lr}^
 484:	76657220 	strbtvc	r7, [r5], -r0, lsr #4
 488:	6f697369 	svcvs	0x00697369
 48c:	3732206e 	ldrcc	r2, [r2, -lr, rrx]!
 490:	39393537 	ldmdbcc	r9!, {r0, r1, r2, r4, r5, r8, sl, ip, sp}
 494:	6d2d205d 	stcvs	0, cr2, [sp, #-372]!	; 0xfffffe8c
 498:	3d757063 	ldclcc	0, cr7, [r5, #-396]!	; 0xfffffe74
 49c:	316d7261 	cmncc	sp, r1, ror #4
 4a0:	6a363731 	bvs	d8e16c <__bss_end__+0xd83a94>
 4a4:	732d667a 			; <UNDEFINED> instruction: 0x732d667a
 4a8:	746d2d20 	strbtvc	r2, [sp], #-3360	; 0xfffff2e0
 4ac:	3d656e75 	stclcc	14, cr6, [r5, #-468]!	; 0xfffffe2c
 4b0:	316d7261 	cmncc	sp, r1, ror #4
 4b4:	6a363731 	bvs	d8e180 <__bss_end__+0xd83aa8>
 4b8:	732d667a 			; <UNDEFINED> instruction: 0x732d667a
 4bc:	666d2d20 	strbtvs	r2, [sp], -r0, lsr #26
 4c0:	74616f6c 	strbtvc	r6, [r1], #-3948	; 0xfffff094
 4c4:	6962612d 	stmdbvs	r2!, {r0, r2, r3, r5, r8, sp, lr}^
 4c8:	666f733d 			; <UNDEFINED> instruction: 0x666f733d
 4cc:	6d2d2074 	stcvs	0, cr2, [sp, #-464]!	; 0xfffffe30
 4d0:	206d7261 	rsbcs	r7, sp, r1, ror #4
 4d4:	72616d2d 	rsbvc	r6, r1, #2880	; 0xb40
 4d8:	613d6863 	teqvs	sp, r3, ror #16
 4dc:	36766d72 			; <UNDEFINED> instruction: 0x36766d72
 4e0:	2d207a6b 	vstmdbcs	r0!, {s14-s120}
 4e4:	62646767 	rsbvs	r6, r4, #27000832	; 0x19c0000
 4e8:	664f2d20 	strbvs	r2, [pc], -r0, lsr #26
 4ec:	20747361 	rsbscs	r7, r4, r1, ror #6
 4f0:	6474732d 	ldrbtvs	r7, [r4], #-813	; 0xfffffcd3
 4f4:	756e673d 	strbvc	r6, [lr, #-1853]!	; 0xfffff8c3
 4f8:	2d203939 			; <UNDEFINED> instruction: 0x2d203939
 4fc:	65726666 	ldrbvs	r6, [r2, #-1638]!	; 0xfffff99a
 500:	61747365 	cmnvs	r4, r5, ror #6
 504:	6e69646e 	cdpvs	4, 6, cr6, cr9, cr14, {3}
 508:	552f0067 	strpl	r0, [pc, #-103]!	; 4a9 <__code_start__-0x7b57>
 50c:	73726573 	cmnvc	r2, #482344960	; 0x1cc00000
 510:	6c696d2f 	stclvs	13, cr6, [r9], #-188	; 0xffffff44
 514:	532f7365 			; <UNDEFINED> instruction: 0x532f7365
 518:	6372756f 	cmnvs	r2, #465567744	; 0x1bc00000
 51c:	73632f65 	cmnvc	r3, #404	; 0x194
 520:	6c303432 	cfldrsvs	mvf3, [r0], #-200	; 0xffffff38
 524:	696c2f78 	stmdbvs	ip!, {r3, r4, r5, r6, r8, r9, sl, fp, sp}^
 528:	00697062 	rsbeq	r7, r9, r2, rrx
 52c:	73677261 	cmnvc	r7, #268435462	; 0x10000006
 530:	5f617600 	svcpl	0x00617600
 534:	6e697270 	mcrvs	2, 3, r7, cr9, cr0, {3}
 538:	5f006b74 	svcpl	0x00006b74
 53c:	756e675f 	strbvc	r6, [lr, #-1887]!	; 0xfffff8a1
 540:	61765f63 	cmnvs	r6, r3, ror #30
 544:	73696c5f 	cmnvc	r9, #24320	; 0x5f00
 548:	5f5f0074 	svcpl	0x005f0074
 54c:	2e007061 	cdpcs	0, 0, cr7, cr0, cr1, {3}
 550:	62696c2f 	rsbvs	r6, r9, #12032	; 0x2f00
 554:	72702f63 	rsbsvc	r2, r0, #396	; 0x18c
 558:	6b746e69 	blvs	1d1bf04 <__bss_end__+0x1d1182c>
 55c:	5f00632e 	svcpl	0x0000632e
 560:	5f61765f 	svcpl	0x0061765f
 564:	7473696c 	ldrbtvc	r6, [r3], #-2412	; 0xfffff694
 568:	746e6900 	strbtvc	r6, [lr], #-2304	; 0xfffff700
 56c:	616e7265 	cmnvs	lr, r5, ror #4
 570:	75705f6c 	ldrbvc	r5, [r0, #-3948]!	; 0xfffff094
 574:	2e006b74 	vmovcs.16	d0[1], r6
 578:	62696c2f 	rsbvs	r6, r9, #12032	; 0x2f00
 57c:	75702f63 	ldrbvc	r2, [r0, #-3939]!	; 0xfffff09d
 580:	632e6b74 			; <UNDEFINED> instruction: 0x632e6b74
 584:	64736900 	ldrbtvs	r6, [r3], #-2304	; 0xfffff700
 588:	74696769 	strbtvc	r6, [r9], #-1897	; 0xfffff897
 58c:	6e697500 	cdpvs	5, 6, cr7, cr9, cr0, {0}
 590:	5f343674 	svcpl	0x00343674
 594:	2f2e0074 	svccs	0x002e0074
 598:	6362696c 	cmnvs	r2, #108, 18	; 0x1b0000
 59c:	2d61762f 	stclcs	6, cr7, [r1, #-188]!	; 0xffffff44
 5a0:	6e697270 	mcrvs	2, 3, r7, cr9, cr0, {3}
 5a4:	632e6b74 			; <UNDEFINED> instruction: 0x632e6b74
 5a8:	635f5f00 	cmpvs	pc, #0, 30
 5ac:	5f65646f 	svcpl	0x0065646f
 5b0:	72617473 	rsbvc	r7, r1, #1929379840	; 0x73000000
 5b4:	005f5f74 	subseq	r5, pc, r4, ror pc	; <UNPREDICTABLE>
 5b8:	74646977 	strbtvc	r6, [r4], #-2423	; 0xfffff689
 5bc:	75700068 	ldrbvc	r0, [r0, #-104]!	; 0xffffff98
 5c0:	665f6374 			; <UNDEFINED> instruction: 0x665f6374
 5c4:	5f5f0070 	svcpl	0x005f0070
 5c8:	70616568 	rsbvc	r6, r1, r8, ror #10
 5cc:	6174735f 	cmnvs	r4, pc, asr r3
 5d0:	5f5f7472 	svcpl	0x005f7472
 5d4:	69707200 	ldmdbvs	r0!, {r9, ip, sp, lr}^
 5d8:	7465735f 	strbtvc	r7, [r5], #-863	; 0xfffffca1
 5dc:	74756f5f 	ldrbtvc	r6, [r5], #-3935	; 0xfffff0a1
 5e0:	00747570 	rsbseq	r7, r4, r0, ror r5
 5e4:	5f746d66 	svcpl	0x00746d66
 5e8:	72617473 	rsbvc	r7, r1, #1929379840	; 0x73000000
 5ec:	74730074 	ldrbtvc	r0, [r3], #-116	; 0xffffff8c
 5f0:	74616372 	strbtvc	r6, [r1], #-882	; 0xfffffc8e
 5f4:	72747300 	rsbsvc	r7, r4, #0, 6
 5f8:	00797063 	rsbseq	r7, r9, r3, rrx
 5fc:	5f67656e 	svcpl	0x0067656e
 600:	5f5f0070 	svcpl	0x005f0070
 604:	65646f63 	strbvs	r6, [r4, #-3939]!	; 0xfffff09d
 608:	646e655f 	strbtvs	r6, [lr], #-1375	; 0xfffffaa1
 60c:	65005f5f 	strvs	r5, [r0, #-3935]	; 0xfffff0a1
 610:	0074696d 	rsbseq	r6, r4, sp, ror #18
 614:	65766572 	ldrbvs	r6, [r6, #-1394]!	; 0xfffffa8e
 618:	00657372 	rsbeq	r7, r5, r2, ror r3
 61c:	63727473 	cmnvs	r2, #1929379840	; 0x73000000
 620:	7000706d 	andvc	r7, r0, sp, rrx
 624:	5f737475 	svcpl	0x00737475
 628:	5f007066 	svcpl	0x00007066
 62c:	6f72705f 	svcvs	0x0072705f
 630:	6e655f67 	cdpvs	15, 6, cr5, cr5, cr7, {3}
 634:	005f5f64 	subseq	r5, pc, r4, ror #30
 638:	316d756e 	cmncc	sp, lr, ror #10
 63c:	72747300 	rsbsvc	r7, r4, #0, 6
 640:	706d636e 	rsbvc	r6, sp, lr, ror #6
 644:	67697300 	strbvs	r7, [r9, -r0, lsl #6]!
 648:	5f64656e 	svcpl	0x0064656e
 64c:	70720070 	rsbsvc	r0, r2, r0, ror r0
 650:	65725f69 	ldrbvs	r5, [r2, #-3945]!	; 0xfffff097
 654:	746f6f62 	strbtvc	r6, [pc], #-3938	; 65c <__code_start__-0x79a4>
 658:	6c656400 	cfstrdvs	mvd6, [r5], #-0
 65c:	6d5f7961 	vldrvs.16	s15, [pc, #-194]	; 5a2 <__code_start__-0x7a5e>	; <UNPREDICTABLE>
 660:	2f2e0073 	svccs	0x002e0073
 664:	66617473 			; <UNDEFINED> instruction: 0x66617473
 668:	72732d66 	rsbsvc	r2, r3, #6528	; 0x1980
 66c:	6c632f63 	stclvs	15, cr2, [r3], #-396	; 0xfffffe74
 670:	2d6e6165 	stfcse	f6, [lr, #-404]!	; 0xfffffe6c
 674:	6f626572 	svcvs	0x00626572
 678:	632e746f 			; <UNDEFINED> instruction: 0x632e746f
 67c:	72617500 	rsbvc	r7, r1, #0, 10
 680:	6c665f74 	stclvs	15, cr5, [r6], #-464	; 0xfffffe30
 684:	5f687375 	svcpl	0x00687375
 688:	5f007874 	svcpl	0x00007874
 68c:	61747363 	cmnvs	r4, r3, ror #6
 690:	62007472 	andvs	r7, r0, #1912602624	; 0x72000000
 694:	655f7373 	ldrbvs	r7, [pc, #-883]	; 329 <__code_start__-0x7cd7>
 698:	7500646e 	strvc	r6, [r0, #-1134]	; 0xfffffb92
 69c:	5f747261 	svcpl	0x00747261
 6a0:	74696e69 	strbtvc	r6, [r9], #-3689	; 0xfffff197
 6a4:	73756300 	cmnvc	r5, #0, 6
 6a8:	5f6d6f74 	svcpl	0x006d6f74
 6ac:	64616f6c 	strbtvs	r6, [r1], #-3948	; 0xfffff094
 6b0:	2e007265 	cdpcs	2, 0, cr7, cr0, cr5, {3}
 6b4:	6174732f 	cmnvs	r4, pc, lsr #6
 6b8:	732d6666 			; <UNDEFINED> instruction: 0x732d6666
 6bc:	632f6372 			; <UNDEFINED> instruction: 0x632f6372
 6c0:	72617473 	rsbvc	r7, r1, #1929379840	; 0x73000000
 6c4:	00632e74 	rsbeq	r2, r3, r4, ror lr
 6c8:	74732f2e 	ldrbtvc	r2, [r3], #-3886	; 0xfffff0d2
 6cc:	2d666661 	stclcs	6, cr6, [r6, #-388]!	; 0xfffffe7c
 6d0:	2f637273 	svccs	0x00637273
 6d4:	74737563 	ldrbtvc	r7, [r3], #-1379	; 0xfffffa9d
 6d8:	6c2d6d6f 	stcvs	13, cr6, [sp], #-444	; 0xfffffe44
 6dc:	6564616f 	strbvs	r6, [r4, #-367]!	; 0xfffffe91
 6e0:	00632e72 	rsbeq	r2, r3, r2, ror lr
 6e4:	6f626572 	svcvs	0x00626572
 6e8:	635f746f 	cmpvs	pc, #1862270976	; 0x6f000000
 6ec:	6f6c6c61 	svcvs	0x006c6c61
 6f0:	50007475 	andpl	r7, r0, r5, ror r4
 6f4:	44575f4d 	ldrbmi	r5, [r7], #-3917	; 0xfffff0b3
 6f8:	5000474f 	andpl	r4, r0, pc, asr #14
 6fc:	32335455 	eorscc	r5, r3, #1426063360	; 0x55000000
 700:	74657300 	strbtvc	r7, [r5], #-768	; 0xfffffd00
 704:	6573755f 	ldrbvs	r7, [r3, #-1375]!	; 0xfffffaa1
 708:	656c5f72 	strbvs	r5, [ip, #-3954]!	; 0xfffff08e
 70c:	006c6576 	rsbeq	r6, ip, r6, ror r5
 710:	74732f2e 	ldrbtvc	r2, [r3], #-3886	; 0xfffff0d2
 714:	2d666661 	stclcs	6, cr6, [r6, #-388]!	; 0xfffffe7c
 718:	2f637273 	svccs	0x00637273
 71c:	6f626572 	svcvs	0x00626572
 720:	632e746f 			; <UNDEFINED> instruction: 0x632e746f
 724:	5f4d5000 	svcpl	0x004d5000
 728:	53534150 	cmppl	r3, #20
 72c:	44524f57 	ldrbmi	r4, [r2], #-3927	; 0xfffff0a9
 730:	5f746100 	svcpl	0x00746100
 734:	72657375 	rsbvc	r7, r5, #-738197503	; 0xd4000001
 738:	76656c5f 			; <UNDEFINED> instruction: 0x76656c5f
 73c:	50006c65 	andpl	r6, r0, r5, ror #24
 740:	53525f4d 	cmppl	r2, #308	; 0x134
 744:	575f4354 			; <UNDEFINED> instruction: 0x575f4354
 748:	47464352 	smlsldmi	r4, r6, r2, r3
 74c:	4c55465f 	mrrcmi	6, 5, r4, r5, cr15
 750:	45525f4c 	ldrbmi	r5, [r2, #-3916]	; 0xfffff0b4
 754:	00544553 	subseq	r4, r4, r3, asr r5
 758:	525f4d50 	subspl	r4, pc, #80, 26	; 0x1400
 75c:	00435453 	subeq	r5, r3, r3, asr r4
 760:	72737063 	rsbsvc	r7, r3, #99, 0	; 0x63
 764:	76656400 	strbtvc	r6, [r5], -r0, lsl #8
 768:	7261625f 	rsbvc	r6, r1, #-268435451	; 0xf0000005
 76c:	72656972 	rsbvc	r6, r5, #1867776	; 0x1c8000
 770:	6c656400 	cfstrdvs	mvd6, [r5], #-0
 774:	735f7961 	cmpvc	pc, #1589248	; 0x184000
 778:	2e006365 	cdpcs	3, 0, cr6, cr0, cr5, {3}
 77c:	6174732f 	cmnvs	r4, pc, lsr #6
 780:	732d6666 			; <UNDEFINED> instruction: 0x732d6666
 784:	742f6372 	strtvc	r6, [pc], #-882	; 78c <__code_start__-0x7874>
 788:	72656d69 	rsbvc	r6, r5, #6720	; 0x1a40
 78c:	4700632e 	strmi	r6, [r0, -lr, lsr #6]
 790:	32335445 	eorscc	r5, r3, #1157627904	; 0x45000000
 794:	6d697400 	cfstrdvs	mvd7, [r9, #-0]
 798:	675f7265 	ldrbvs	r7, [pc, -r5, ror #4]
 79c:	755f7465 	ldrbvc	r7, [pc, #-1125]	; 33f <__code_start__-0x7cc1>
 7a0:	00636573 	rsbeq	r6, r3, r3, ror r5
 7a4:	616c6564 	cmnvs	ip, r4, ror #10
 7a8:	73755f79 	cmnvc	r5, #484	; 0x1e4
 7ac:	6d697400 	cfstrdvs	mvd7, [r9, #-0]
 7b0:	675f7265 	ldrbvs	r7, [pc, -r5, ror #4]
 7b4:	755f7465 	ldrbvc	r7, [pc, #-1125]	; 357 <__code_start__-0x7ca9>
 7b8:	5f636573 	svcpl	0x00636573
 7bc:	00776172 	rsbseq	r6, r7, r2, ror r1
 7c0:	33747570 	cmncc	r4, #112, 10	; 0x1c000000
 7c4:	61620032 	cmnvs	r2, r2, lsr r0
 7c8:	765f6475 			; <UNDEFINED> instruction: 0x765f6475
 7cc:	73006c61 	movwvc	r6, #3169	; 0xc61
 7d0:	00746174 	rsbseq	r6, r4, r4, ror r1
 7d4:	74726175 	ldrbtvc	r6, [r2], #-373	; 0xfffffe8b
 7d8:	6e61635f 	mcrvs	3, 3, r6, cr1, cr15, {2}
 7dc:	7465675f 	strbtvc	r6, [r5], #-1887	; 0xfffff8a1
 7e0:	50470063 	subpl	r0, r7, r3, rrx
 7e4:	465f4f49 	ldrbmi	r4, [pc], -r9, asr #30
 7e8:	5f434e55 	svcpl	0x00434e55
 7ec:	5054554f 	subspl	r5, r4, pc, asr #10
 7f0:	61005455 	tstvs	r0, r5, asr r4
 7f4:	705f7875 	subsvc	r7, pc, r5, ror r8	; <UNPREDICTABLE>
 7f8:	70697265 	rsbvc	r7, r9, r5, ror #4
 7fc:	75007368 	strvc	r7, [r0, #-872]	; 0xfffffc98
 800:	2e747261 	cdpcs	2, 7, cr7, cr4, cr1, {3}
 804:	61750063 	cmnvs	r5, r3, rrx
 808:	635f7472 	cmpvs	pc, #1912602624	; 0x72000000
 80c:	705f6e61 	subsvc	r6, pc, r1, ror #28
 810:	00637475 	rsbeq	r7, r3, r5, ror r4
 814:	74726175 	ldrbtvc	r6, [r2], #-373	; 0xfffffe8b
 818:	5f78745f 	svcpl	0x0078745f
 81c:	655f7369 	ldrbvs	r7, [pc, #-873]	; 4bb <__code_start__-0x7b45>
 820:	7974706d 	ldmdbvc	r4!, {r0, r2, r3, r5, r6, ip, sp, lr}^
 824:	49504700 	ldmdbmi	r0, {r8, r9, sl, lr}^
 828:	55465f4f 	strbpl	r5, [r6, #-3919]	; 0xfffff0b1
 82c:	415f434e 	cmpmi	pc, lr, asr #6
 830:	0030544c 	eorseq	r5, r0, ip, asr #8
 834:	4f495047 	svcmi	0x00495047
 838:	4e55465f 	mrcmi	6, 2, r4, cr5, cr15, {2}
 83c:	4c415f43 	mcrrmi	15, 4, r5, r1, cr3
 840:	47003154 	smlsdmi	r0, r4, r1, r3
 844:	5f4f4950 	svcpl	0x004f4950
 848:	434e5546 	movtmi	r5, #58694	; 0xe546
 84c:	544c415f 	strbpl	r4, [ip], #-351	; 0xfffffea1
 850:	50470032 	subpl	r0, r7, r2, lsr r0
 854:	465f4f49 	ldrbmi	r4, [pc], -r9, asr #30
 858:	5f434e55 	svcpl	0x00434e55
 85c:	33544c41 	cmpcc	r4, #16640	; 0x4100
 860:	49504700 	ldmdbmi	r0, {r8, r9, sl, lr}^
 864:	55465f4f 	strbpl	r5, [r6, #-3919]	; 0xfffff0b1
 868:	415f434e 	cmpmi	pc, lr, asr #6
 86c:	0035544c 	eorseq	r5, r5, ip, asr #8
 870:	6d6f682f 	stclvs	8, cr6, [pc, #-188]!	; 7bc <__code_start__-0x7844>
 874:	6e652f65 	cdpvs	15, 6, cr2, cr5, cr5, {3}
 878:	72656c67 	rsbvc	r6, r5, #26368	; 0x6700
 87c:	616c632f 	cmnvs	ip, pc, lsr #6
 880:	632f7373 			; <UNDEFINED> instruction: 0x632f7373
 884:	30343273 	eorscc	r3, r4, r3, ror r2
 888:	322d786c 	eorcc	r7, sp, #108, 16	; 0x6c0000
 88c:	72707332 	rsbsvc	r7, r0, #-939524096	; 0xc8000000
 890:	62696c2f 	rsbvs	r6, r9, #12032	; 0x2f00
 894:	732f6970 			; <UNDEFINED> instruction: 0x732f6970
 898:	66666174 			; <UNDEFINED> instruction: 0x66666174
 89c:	6972702d 	ldmdbvs	r2!, {r0, r2, r3, r5, ip, sp, lr}^
 8a0:	65746176 	ldrbvs	r6, [r4, #-374]!	; 0xfffffe8a
 8a4:	75616200 	strbvc	r6, [r1, #-512]!	; 0xfffffe00
 8a8:	75610064 	strbvc	r0, [r1, #-100]!	; 0xffffff9c
 8ac:	6e655f78 	mcrvs	15, 3, r5, cr5, cr8, {3}
 8b0:	656c6261 	strbvs	r6, [ip, #-609]!	; 0xfffffd9f
 8b4:	61750073 	cmnvs	r5, r3, ror r0
 8b8:	675f7472 			; <UNDEFINED> instruction: 0x675f7472
 8bc:	00637465 	rsbeq	r7, r3, r5, ror #8
 8c0:	20554e47 	subscs	r4, r5, r7, asr #28
 8c4:	20393943 	eorscs	r3, r9, r3, asr #18
 8c8:	332e3031 			; <UNDEFINED> instruction: 0x332e3031
 8cc:	3220312e 	eorcc	r3, r0, #-2147483637	; 0x8000000b
 8d0:	30313230 	eorscc	r3, r1, r0, lsr r2
 8d4:	20343238 	eorscs	r3, r4, r8, lsr r2
 8d8:	6c657228 	sfmvs	f7, 2, [r5], #-160	; 0xffffff60
 8dc:	65736165 	ldrbvs	r6, [r3, #-357]!	; 0xfffffe9b
 8e0:	6d2d2029 	stcvs	0, cr2, [sp, #-164]!	; 0xffffff5c
 8e4:	3d757063 	ldclcc	0, cr7, [r5, #-396]!	; 0xfffffe74
 8e8:	316d7261 	cmncc	sp, r1, ror #4
 8ec:	6a363731 	bvs	d8e5b8 <__bss_end__+0xd83ee0>
 8f0:	732d667a 			; <UNDEFINED> instruction: 0x732d667a
 8f4:	746d2d20 	strbtvc	r2, [sp], #-3360	; 0xfffff2e0
 8f8:	3d656e75 	stclcc	14, cr6, [r5, #-468]!	; 0xfffffe2c
 8fc:	316d7261 	cmncc	sp, r1, ror #4
 900:	6a363731 	bvs	d8e5cc <__bss_end__+0xd83ef4>
 904:	732d667a 			; <UNDEFINED> instruction: 0x732d667a
 908:	666d2d20 	strbtvs	r2, [sp], -r0, lsr #26
 90c:	74616f6c 	strbtvc	r6, [r1], #-3948	; 0xfffff094
 910:	6962612d 	stmdbvs	r2!, {r0, r2, r3, r5, r8, sp, lr}^
 914:	666f733d 			; <UNDEFINED> instruction: 0x666f733d
 918:	6d2d2074 	stcvs	0, cr2, [sp, #-464]!	; 0xfffffe30
 91c:	206d7261 	rsbcs	r7, sp, r1, ror #4
 920:	72616d2d 	rsbvc	r6, r1, #2880	; 0xb40
 924:	613d6863 	teqvs	sp, r3, ror #16
 928:	36766d72 			; <UNDEFINED> instruction: 0x36766d72
 92c:	2d207a6b 	vstmdbcs	r0!, {s14-s120}
 930:	62646767 	rsbvs	r6, r4, #27000832	; 0x19c0000
 934:	674f2d20 	strbvs	r2, [pc, -r0, lsr #26]
 938:	74732d20 	ldrbtvc	r2, [r3], #-3360	; 0xfffff2e0
 93c:	6e673d64 	cdpvs	13, 6, cr3, cr7, cr4, {3}
 940:	20393975 	eorscs	r3, r9, r5, ror r9
 944:	7266662d 	rsbvc	r6, r6, #47185920	; 0x2d00000
 948:	74736565 	ldrbtvc	r6, [r3], #-1381	; 0xfffffa9b
 94c:	69646e61 	stmdbvs	r4!, {r0, r5, r6, r9, sl, fp, sp, lr}^
 950:	6300676e 	movwvs	r6, #1902	; 0x76e
 954:	006c746e 	rsbeq	r7, ip, lr, ror #8
 958:	74726175 	ldrbtvc	r6, [r2], #-373	; 0xfffffe8b
 95c:	7369645f 	cmnvc	r9, #1593835520	; 0x5f000000
 960:	656c6261 	strbvs	r6, [ip, #-609]!	; 0xfffffd9f
 964:	72617500 	rsbvc	r7, r1, #0, 10
 968:	61685f74 	smcvs	34292	; 0x85f4
 96c:	61645f73 	smcvs	17907	; 0x45f3
 970:	47006174 	smlsdxmi	r0, r4, r1, r6
 974:	5f4f4950 	svcpl	0x004f4950
 978:	434e5546 	movtmi	r5, #58694	; 0xe546
 97c:	544c415f 	strbpl	r4, [ip], #-351	; 0xfffffea1
 980:	726f0034 	rsbvc	r0, pc, #52, 0	; 0x34
 984:	336e695f 	cmncc	lr, #1556480	; 0x17c000
 988:	63730032 	cmnvs	r3, #50, 0	; 0x32
 98c:	63746172 	cmnvs	r4, #-2147483620	; 0x8000001c
 990:	61750068 	cmnvs	r5, r8, rrx
 994:	61007472 	tstvs	r0, r2, ror r4
 998:	695f646e 	ldmdbvs	pc, {r1, r2, r3, r5, r6, sl, sp, lr}^	; <UNPREDICTABLE>
 99c:	0032336e 	eorseq	r3, r2, lr, ror #6
 9a0:	74726175 	ldrbtvc	r6, [r2], #-373	; 0xfffffe8b
 9a4:	7475705f 	ldrbtvc	r7, [r5], #-95	; 0xffffffa1
 9a8:	50470063 	subpl	r0, r7, r3, rrx
 9ac:	465f4f49 	ldrbmi	r4, [pc], -r9, asr #30
 9b0:	5f434e55 	svcpl	0x00434e55
 9b4:	55504e49 	ldrbpl	r4, [r0, #-3657]	; 0xfffff1b7
 9b8:	70670054 	rsbvc	r0, r7, r4, asr r0
 9bc:	735f6f69 	cmpvc	pc, #420	; 0x1a4
 9c0:	665f7465 	ldrbvs	r7, [pc], -r5, ror #8
 9c4:	74636e75 	strbtvc	r6, [r3], #-3701	; 0xfffff18b
 9c8:	006e6f69 	rsbeq	r6, lr, r9, ror #30
 9cc:	33746567 	cmncc	r4, #432013312	; 0x19c00000
 9d0:	6d6b0032 	stclvs	0, cr0, [fp, #-200]!	; 0xffffff38
 9d4:	6f6c6c61 	svcvs	0x006c6c61
 9d8:	65685f63 	strbvs	r5, [r8, #-3939]!	; 0xfffff09d
 9dc:	735f7061 	cmpvc	pc, #97, 0	; 0x61
 9e0:	74726174 	ldrbtvc	r6, [r2], #-372	; 0xfffffe8c
 9e4:	78616d00 	stmdavc	r1!, {r8, sl, fp, sp, lr}^
 9e8:	79626e5f 	stmdbvc	r2!, {r0, r1, r2, r3, r4, r6, r9, sl, fp, sp, lr}^
 9ec:	00736574 	rsbseq	r6, r3, r4, ror r5
 9f0:	6464615f 	strbtvs	r6, [r4], #-351	; 0xfffffea1
 9f4:	65680072 	strbvs	r0, [r8, #-114]!	; 0xffffff8e
 9f8:	6d5f7061 	ldclvs	0, cr7, [pc, #-388]	; 87c <__code_start__-0x7784>
 9fc:	6b007861 	blvs	1eb88 <__bss_end__+0x144b0>
 a00:	65657266 	strbvs	r7, [r5, #-614]!	; 0xfffffd9a
 a04:	6c6c615f 	stfvse	f6, [ip], #-380	; 0xfffffe84
 a08:	756f7200 	strbvc	r7, [pc, #-512]!	; 810 <__code_start__-0x77f0>
 a0c:	7075646e 	rsbsvc	r6, r5, lr, ror #8
 a10:	61656800 	cmnvs	r5, r0, lsl #16
 a14:	666b0070 			; <UNDEFINED> instruction: 0x666b0070
 a18:	5f656572 	svcpl	0x00656572
 a1c:	00706f70 	rsbseq	r6, r0, r0, ror pc
 a20:	67696c61 	strbvs	r6, [r9, -r1, ror #24]!
 a24:	6e656d6e 	cdpvs	13, 6, cr6, cr5, cr14, {3}
 a28:	616d0074 	smcvs	53252	; 0xd004
 a2c:	33755f78 	cmncc	r5, #120, 30	; 0x1e0
 a30:	6e4f0032 	mcrvs	0, 2, r0, cr15, cr2, {1}
 a34:	00424d65 	subeq	r4, r2, r5, ror #26
 a38:	6c616d6b 	stclvs	13, cr6, [r1], #-428	; 0xfffffe54
 a3c:	5f636f6c 	svcpl	0x00636f6c
 a40:	70616568 	rsbvc	r6, r1, r8, ror #10
 a44:	646e655f 	strbtvs	r6, [lr], #-1375	; 0xfffffaa1
 a48:	616d6b00 	cmnvs	sp, r0, lsl #22
 a4c:	636f6c6c 	cmnvs	pc, #108, 24	; 0x6c00
 a50:	746f6e5f 	strbtvc	r6, [pc], #-3679	; a58 <__code_start__-0x75a8>
 a54:	6f72657a 	svcvs	0x0072657a
 a58:	5f736900 	svcpl	0x00736900
 a5c:	32776f70 	rsbscc	r6, r7, #112, 30	; 0x1c0
 a60:	616d6b00 	cmnvs	sp, r0, lsl #22
 a64:	636f6c6c 	cmnvs	pc, #108, 24	; 0x6c00
 a68:	6b00632e 	blvs	19728 <__bss_end__+0xf050>
 a6c:	6c6c616d 	stfvse	f6, [ip], #-436	; 0xfffffe4c
 a70:	695f636f 	ldmdbvs	pc, {r0, r1, r2, r3, r5, r6, r8, r9, sp, lr}^	; <UNPREDICTABLE>
 a74:	0074696e 	rsbseq	r6, r4, lr, ror #18
 a78:	615f7369 	cmpvs	pc, r9, ror #6
 a7c:	6e67696c 	vnmulvs.f16	s13, s14, s25	; <UNPREDICTABLE>
 a80:	6b006465 	blvs	19c1c <__bss_end__+0xf544>
 a84:	6c6c616d 	stfvse	f6, [ip], #-436	; 0xfffffe4c
 a88:	685f636f 	ldmdavs	pc, {r0, r1, r2, r3, r5, r6, r8, r9, sp, lr}^	; <UNPREDICTABLE>
 a8c:	5f706165 	svcpl	0x00706165
 a90:	00727470 	rsbseq	r7, r2, r0, ror r4
 a94:	5f697072 	svcpl	0x00697072
 a98:	65736572 	ldrbvs	r6, [r3, #-1394]!	; 0xfffffa8e
 a9c:	75705f74 	ldrbvc	r5, [r0, #-3956]!	; 0xfffff08c
 aa0:	6b006374 	blvs	19878 <__bss_end__+0xf1a0>
 aa4:	6c6c616d 	stfvse	f6, [ip], #-436	; 0xfffffe4c
 aa8:	615f636f 	cmpvs	pc, pc, ror #6
 aac:	6e67696c 	vnmulvs.f16	s13, s14, s25	; <UNPREDICTABLE>
 ab0:	67006465 	strvs	r6, [r0, -r5, ror #8]
 ab4:	5f6f6970 	svcpl	0x006f6970
 ab8:	30726c63 	rsbscc	r6, r2, r3, ror #24
 abc:	69706700 	ldmdbvs	r0!, {r8, r9, sl, sp, lr}^
 ac0:	65735f6f 	ldrbvs	r5, [r3, #-3951]!	; 0xfffff091
 ac4:	67003074 	smlsdxvs	r0, r4, r0, r3
 ac8:	5f6f6970 	svcpl	0x006f6970
 acc:	74697277 	strbtvc	r7, [r9], #-631	; 0xfffffd89
 ad0:	45440065 	strbmi	r0, [r4, #-101]	; 0xffffff9b
 ad4:	41565f56 	cmpmi	r6, r6, asr pc
 ad8:	0032334c 	eorseq	r3, r2, ip, asr #6
 adc:	6f697067 	svcvs	0x00697067
 ae0:	6165725f 	cmnvs	r5, pc, asr r2
 ae4:	2f2e0064 	svccs	0x002e0064
 ae8:	2f637273 	svccs	0x00637273
 aec:	6f697067 	svcvs	0x00697067
 af0:	6700632e 	strvs	r6, [r0, -lr, lsr #6]
 af4:	5f6f6970 	svcpl	0x006f6970
 af8:	5f746573 	svcpl	0x00746573
 afc:	75706e69 	ldrbvc	r6, [r0, #-3689]!	; 0xfffff197
 b00:	70670074 	rsbvc	r0, r7, r4, ror r0
 b04:	735f6f69 	cmpvc	pc, #420	; 0x1a4
 b08:	6f5f7465 	svcvs	0x005f7465
 b0c:	67006666 	strvs	r6, [r0, -r6, ror #12]
 b10:	5f6f6970 	svcpl	0x006f6970
 b14:	5f746573 	svcpl	0x00746573
 b18:	7074756f 	rsbsvc	r7, r4, pc, ror #10
 b1c:	67007475 	smlsdxvs	r0, r5, r4, r7
 b20:	5f6f6970 	svcpl	0x006f6970
 b24:	636e7566 	cmnvs	lr, #427819008	; 0x19800000
 b28:	6700745f 	smlsdvs	r0, pc, r4, r7	; <UNPREDICTABLE>
 b2c:	5f6f6970 	svcpl	0x006f6970
 b30:	3076656c 	rsbscc	r6, r6, ip, ror #10
 b34:	6e616200 	cdpvs	2, 6, cr6, cr1, cr0, {0}
 b38:	7067006b 	rsbvc	r0, r7, fp, rrx
 b3c:	735f6f69 	cmpvc	pc, #420	; 0x1a4
 b40:	6f5f7465 	svcvs	0x005f7465
 b44:	6e69006e 	cdpvs	0, 6, cr0, cr9, cr14, {3}
 b48:	6e726574 	mrcvs	5, 3, r6, cr2, cr4, {3}
 b4c:	705f6c61 	subsvc	r6, pc, r1, ror #24
 b50:	68637475 	stmdavs	r3!, {r0, r2, r4, r5, r6, sl, ip, sp, lr}^
 b54:	72007261 	andvc	r7, r0, #268435462	; 0x10000006
 b58:	735f6970 	cmpvc	pc, #112, 18	; 0x1c0000
 b5c:	705f7465 	subsvc	r7, pc, r5, ror #8
 b60:	00637475 	rsbeq	r7, r3, r5, ror r4
 b64:	696c2f2e 	stmdbvs	ip!, {r1, r2, r3, r5, r8, r9, sl, fp, sp}^
 b68:	702f6362 	eorvc	r6, pc, r2, ror #6
 b6c:	68637475 	stmdavs	r3!, {r0, r2, r4, r5, r6, sl, ip, sp, lr}^
 b70:	632e7261 			; <UNDEFINED> instruction: 0x632e7261
 b74:	6c2f2e00 	stcvs	14, cr2, [pc], #-0	; b7c <__code_start__-0x7484>
 b78:	2f636269 	svccs	0x00636269
 b7c:	63727473 	cmnvs	r2, #1929379840	; 0x73000000
 b80:	632e7461 			; <UNDEFINED> instruction: 0x632e7461
 b84:	73656400 	cmnvc	r5, #0, 8
 b88:	2f2e0074 	svccs	0x002e0074
 b8c:	6362696c 	cmnvs	r2, #108, 18	; 0x1b0000
 b90:	7274732f 	rsbsvc	r7, r4, #-1140850688	; 0xbc000000
 b94:	2e706d63 	cdpcs	13, 7, cr6, cr0, cr3, {3}
 b98:	2f2e0063 	svccs	0x002e0063
 b9c:	6362696c 	cmnvs	r2, #108, 18	; 0x1b0000
 ba0:	7274732f 	rsbsvc	r7, r4, #-1140850688	; 0xbc000000
 ba4:	2e797063 	cdpcs	0, 7, cr7, cr9, cr3, {3}
 ba8:	2f2e0063 	svccs	0x002e0063
 bac:	6362696c 	cmnvs	r2, #108, 18	; 0x1b0000
 bb0:	7274732f 	rsbsvc	r7, r4, #-1140850688	; 0xbc000000
 bb4:	706d636e 	rsbvc	r6, sp, lr, ror #6
 bb8:	2e00632e 	cdpcs	3, 0, cr6, cr0, cr14, {1}
 bbc:	6174732f 	cmnvs	r4, pc, lsr #6
 bc0:	732d6666 			; <UNDEFINED> instruction: 0x732d6666
 bc4:	642f6372 	strtvs	r6, [pc], #-882	; bcc <__code_start__-0x7434>
 bc8:	75616665 	strbvc	r6, [r1, #-1637]!	; 0xfffff99b
 bcc:	722d746c 	eorvc	r7, sp, #108, 8	; 0x6c000000
 bd0:	6f6f6265 	svcvs	0x006f6265
 bd4:	61632d74 	smcvs	13012	; 0x32d4
 bd8:	756f6c6c 	strbvc	r6, [pc, #-3180]!	; ffffff74 <__bss_end__+0xffff589c>
 bdc:	00632e74 	rsbeq	r2, r3, r4, ror lr

Disassembly of section .debug_frame:

00000000 <.debug_frame>:
   0:	0000000c 	andeq	r0, r0, ip
   4:	ffffffff 			; <UNDEFINED> instruction: 0xffffffff
   8:	7c020001 	stcvc	0, cr0, [r2], {1}
   c:	000d0c0e 	andeq	r0, sp, lr, lsl #24
  10:	00000020 	andeq	r0, r0, r0, lsr #32
  14:	00000000 	andeq	r0, r0, r0
  18:	00008038 	andeq	r8, r0, r8, lsr r0
  1c:	00000090 	muleq	r0, r0, r0
  20:	84100e42 	ldrhi	r0, [r0], #-3650	; 0xfffff1be
  24:	86038504 	strhi	r8, [r3], -r4, lsl #10
  28:	42018e02 	andmi	r8, r1, #2, 28
  2c:	0e7a280e 	cdpeq	8, 7, cr2, cr10, cr14, {0}
  30:	00000010 	andeq	r0, r0, r0, lsl r0
  34:	00000014 	andeq	r0, r0, r4, lsl r0
  38:	00000000 	andeq	r0, r0, r0
  3c:	000080c8 	andeq	r8, r0, r8, asr #1
  40:	00000064 	andeq	r0, r0, r4, rrx
  44:	84080e42 	strhi	r0, [r8], #-3650	; 0xfffff1be
  48:	00018e02 	andeq	r8, r1, r2, lsl #28
  4c:	0000000c 	andeq	r0, r0, ip
  50:	ffffffff 			; <UNDEFINED> instruction: 0xffffffff
  54:	7c020001 	stcvc	0, cr0, [r2], {1}
  58:	000d0c0e 	andeq	r0, sp, lr, lsl #24
  5c:	0000000c 	andeq	r0, r0, ip
  60:	0000004c 	andeq	r0, r0, ip, asr #32
  64:	0000812c 	andeq	r8, r0, ip, lsr #2
  68:	00000010 	andeq	r0, r0, r0, lsl r0
  6c:	0000000c 	andeq	r0, r0, ip
  70:	0000004c 	andeq	r0, r0, ip, asr #32
  74:	0000813c 	andeq	r8, r0, ip, lsr r1
  78:	00000010 	andeq	r0, r0, r0, lsl r0
  7c:	00000020 	andeq	r0, r0, r0, lsr #32
  80:	0000004c 	andeq	r0, r0, ip, asr #32
  84:	0000814c 	andeq	r8, r0, ip, asr #2
  88:	000000a4 	andeq	r0, r0, r4, lsr #1
  8c:	840c0e42 	strhi	r0, [ip], #-3650	; 0xfffff1be
  90:	8e028503 	cfsh32hi	mvfx8, mvfx2, #3
  94:	180e4201 	stmdane	lr, {r0, r9, lr}
  98:	0c0e0a5e 			; <UNDEFINED> instruction: 0x0c0e0a5e
  9c:	00000b42 	andeq	r0, r0, r2, asr #22
  a0:	0000000c 	andeq	r0, r0, ip
  a4:	0000004c 	andeq	r0, r0, ip, asr #32
  a8:	000081f0 	strdeq	r8, [r0], -r0
  ac:	00000008 	andeq	r0, r0, r8
  b0:	00000014 	andeq	r0, r0, r4, lsl r0
  b4:	0000004c 	andeq	r0, r0, ip, asr #32
  b8:	000081f8 	strdeq	r8, [r0], -r8	; <UNPREDICTABLE>
  bc:	00000018 	andeq	r0, r0, r8, lsl r0
  c0:	84080e42 	strhi	r0, [r8], #-3650	; 0xfffff1be
  c4:	00018e02 	andeq	r8, r1, r2, lsl #28
  c8:	0000000c 	andeq	r0, r0, ip
  cc:	0000004c 	andeq	r0, r0, ip, asr #32
  d0:	00008210 	andeq	r8, r0, r0, lsl r2
  d4:	0000003c 	andeq	r0, r0, ip, lsr r0
  d8:	00000018 	andeq	r0, r0, r8, lsl r0
  dc:	0000004c 	andeq	r0, r0, ip, asr #32
  e0:	0000824c 	andeq	r8, r0, ip, asr #4
  e4:	00000058 	andeq	r0, r0, r8, asr r0
  e8:	84100e42 	ldrhi	r0, [r0], #-3650	; 0xfffff1be
  ec:	86038504 	strhi	r8, [r3], -r4, lsl #10
  f0:	00018e02 	andeq	r8, r1, r2, lsl #28
  f4:	00000024 	andeq	r0, r0, r4, lsr #32
  f8:	0000004c 	andeq	r0, r0, ip, asr #32
  fc:	000082a4 	andeq	r8, r0, r4, lsr #5
 100:	000000ec 	andeq	r0, r0, ip, ror #1
 104:	84180e42 	ldrhi	r0, [r8], #-3650	; 0xfffff1be
 108:	86058506 	strhi	r8, [r5], -r6, lsl #10
 10c:	88038704 	stmdahi	r3, {r2, r8, r9, sl, pc}
 110:	42018e02 	andmi	r8, r1, #2, 28
 114:	0a7c300e 	beq	1f0c154 <__bss_end__+0x1f01a7c>
 118:	0b42180e 	bleq	1086158 <__bss_end__+0x107ba80>
 11c:	00000020 	andeq	r0, r0, r0, lsr #32
 120:	0000004c 	andeq	r0, r0, ip, asr #32
 124:	00008390 	muleq	r0, r0, r3
 128:	00000090 	muleq	r0, r0, r0
 12c:	84100e42 	ldrhi	r0, [r0], #-3650	; 0xfffff1be
 130:	86038504 	strhi	r8, [r3], -r4, lsl #10
 134:	42018e02 	andmi	r8, r1, #2, 28
 138:	0e7c200e 	cdpeq	0, 7, cr2, cr12, cr14, {0}
 13c:	00000010 	andeq	r0, r0, r0, lsl r0
 140:	0000000c 	andeq	r0, r0, ip
 144:	ffffffff 			; <UNDEFINED> instruction: 0xffffffff
 148:	7c020001 	stcvc	0, cr0, [r2], {1}
 14c:	000d0c0e 	andeq	r0, sp, lr, lsl #24
 150:	00000014 	andeq	r0, r0, r4, lsl r0
 154:	00000140 	andeq	r0, r0, r0, asr #2
 158:	00008420 	andeq	r8, r0, r0, lsr #8
 15c:	000000bc 	strheq	r0, [r0], -ip
 160:	8e040e42 	cdphi	14, 0, cr0, cr4, cr2, {2}
 164:	00000001 	andeq	r0, r0, r1
 168:	00000014 	andeq	r0, r0, r4, lsl r0
 16c:	00000140 	andeq	r0, r0, r0, asr #2
 170:	000084dc 	ldrdeq	r8, [r0], -ip
 174:	00000044 	andeq	r0, r0, r4, asr #32
 178:	84080e42 	strhi	r0, [r8], #-3650	; 0xfffff1be
 17c:	00018e02 	andeq	r8, r1, r2, lsl #28
 180:	00000014 	andeq	r0, r0, r4, lsl r0
 184:	00000140 	andeq	r0, r0, r0, asr #2
 188:	00008520 	andeq	r8, r0, r0, lsr #10
 18c:	000000ac 	andeq	r0, r0, ip, lsr #1
 190:	84080e42 	strhi	r0, [r8], #-3650	; 0xfffff1be
 194:	00018e02 	andeq	r8, r1, r2, lsl #28
 198:	0000000c 	andeq	r0, r0, ip
 19c:	ffffffff 			; <UNDEFINED> instruction: 0xffffffff
 1a0:	7c020001 	stcvc	0, cr0, [r2], {1}
 1a4:	000d0c0e 	andeq	r0, sp, lr, lsl #24
 1a8:	00000014 	andeq	r0, r0, r4, lsl r0
 1ac:	00000198 	muleq	r0, r8, r1
 1b0:	000085cc 	andeq	r8, r0, ip, asr #11
 1b4:	0000006c 	andeq	r0, r0, ip, rrx
 1b8:	8e040e42 	cdphi	14, 0, cr0, cr4, cr2, {2}
 1bc:	480e4201 	stmdami	lr, {r0, r9, lr}
 1c0:	0000001c 	andeq	r0, r0, ip, lsl r0
 1c4:	00000198 	muleq	r0, r8, r1
 1c8:	00008638 	andeq	r8, r0, r8, lsr r6
 1cc:	00000098 	muleq	r0, r8, r0
 1d0:	84080e42 	strhi	r0, [r8], #-3650	; 0xfffff1be
 1d4:	42018e02 	andmi	r8, r1, #2, 28
 1d8:	0a5e100e 	beq	1784218 <__bss_end__+0x1779b40>
 1dc:	0b42080e 	bleq	108221c <__bss_end__+0x1077b44>
 1e0:	00000014 	andeq	r0, r0, r4, lsl r0
 1e4:	00000198 	muleq	r0, r8, r1
 1e8:	000086d0 	ldrdeq	r8, [r0], -r0
 1ec:	00000008 	andeq	r0, r0, r8
 1f0:	84080e42 	strhi	r0, [r8], #-3650	; 0xfffff1be
 1f4:	00018e02 	andeq	r8, r1, r2, lsl #28
 1f8:	00000014 	andeq	r0, r0, r4, lsl r0
 1fc:	00000198 	muleq	r0, r8, r1
 200:	000086d8 	ldrdeq	r8, [r0], -r8	; <UNPREDICTABLE>
 204:	0000000c 	andeq	r0, r0, ip
 208:	84080e42 	strhi	r0, [r8], #-3650	; 0xfffff1be
 20c:	00018e02 	andeq	r8, r1, r2, lsl #28
 210:	00000014 	andeq	r0, r0, r4, lsl r0
 214:	00000198 	muleq	r0, r8, r1
 218:	000086e4 	andeq	r8, r0, r4, ror #13
 21c:	0000000c 	andeq	r0, r0, ip
 220:	84080e42 	strhi	r0, [r8], #-3650	; 0xfffff1be
 224:	00018e02 	andeq	r8, r1, r2, lsl #28
 228:	00000014 	andeq	r0, r0, r4, lsl r0
 22c:	00000198 	muleq	r0, r8, r1
 230:	000086f0 	strdeq	r8, [r0], -r0
 234:	00000008 	andeq	r0, r0, r8
 238:	84080e42 	strhi	r0, [r8], #-3650	; 0xfffff1be
 23c:	00018e02 	andeq	r8, r1, r2, lsl #28
 240:	00000014 	andeq	r0, r0, r4, lsl r0
 244:	00000198 	muleq	r0, r8, r1
 248:	000086f8 	strdeq	r8, [r0], -r8	; <UNPREDICTABLE>
 24c:	00000028 	andeq	r0, r0, r8, lsr #32
 250:	84080e42 	strhi	r0, [r8], #-3650	; 0xfffff1be
 254:	00018e02 	andeq	r8, r1, r2, lsl #28
 258:	0000000c 	andeq	r0, r0, ip
 25c:	ffffffff 			; <UNDEFINED> instruction: 0xffffffff
 260:	7c020001 	stcvc	0, cr0, [r2], {1}
 264:	000d0c0e 	andeq	r0, sp, lr, lsl #24
 268:	00000014 	andeq	r0, r0, r4, lsl r0
 26c:	00000258 	andeq	r0, r0, r8, asr r2
 270:	00008728 	andeq	r8, r0, r8, lsr #14
 274:	00000078 	andeq	r0, r0, r8, ror r0
 278:	84080e42 	strhi	r0, [r8], #-3650	; 0xfffff1be
 27c:	00018e02 	andeq	r8, r1, r2, lsl #28
 280:	0000000c 	andeq	r0, r0, ip
 284:	ffffffff 			; <UNDEFINED> instruction: 0xffffffff
 288:	7c020001 	stcvc	0, cr0, [r2], {1}
 28c:	000d0c0e 	andeq	r0, sp, lr, lsl #24
 290:	00000034 	andeq	r0, r0, r4, lsr r0
 294:	00000280 	andeq	r0, r0, r0, lsl #5
 298:	000087a0 	andeq	r8, r0, r0, lsr #15
 29c:	00000058 	andeq	r0, r0, r8, asr r0
 2a0:	80100e42 	andshi	r0, r0, r2, asr #28
 2a4:	82038104 	andhi	r8, r3, #1
 2a8:	42018302 	andmi	r8, r1, #134217728	; 0x8000000
 2ac:	07841c0e 	streq	r1, [r4, lr, lsl #24]
 2b0:	058e0685 	streq	r0, [lr, #1669]	; 0x685
 2b4:	5a280e44 	bpl	a03bcc <__bss_end__+0x9f94f4>
 2b8:	ce421c0e 	cdpgt	12, 4, cr1, cr2, cr14, {0}
 2bc:	100ec4c5 	andne	ip, lr, r5, asr #9
 2c0:	c1c2c342 	bicgt	ip, r2, r2, asr #6
 2c4:	00000ec0 	andeq	r0, r0, r0, asr #29
 2c8:	0000000c 	andeq	r0, r0, ip
 2cc:	ffffffff 			; <UNDEFINED> instruction: 0xffffffff
 2d0:	7c020001 	stcvc	0, cr0, [r2], {1}
 2d4:	000d0c0e 	andeq	r0, sp, lr, lsl #24
 2d8:	00000018 	andeq	r0, r0, r8, lsl r0
 2dc:	000002c8 	andeq	r0, r0, r8, asr #5
 2e0:	000087f8 	strdeq	r8, [r0], -r8	; <UNPREDICTABLE>
 2e4:	00000038 	andeq	r0, r0, r8, lsr r0
 2e8:	84100e42 	ldrhi	r0, [r0], #-3650	; 0xfffff1be
 2ec:	86038504 	strhi	r8, [r3], -r4, lsl #10
 2f0:	00018e02 	andeq	r8, r1, r2, lsl #28
 2f4:	0000000c 	andeq	r0, r0, ip
 2f8:	ffffffff 			; <UNDEFINED> instruction: 0xffffffff
 2fc:	7c020001 	stcvc	0, cr0, [r2], {1}
 300:	000d0c0e 	andeq	r0, sp, lr, lsl #24
 304:	0000002c 	andeq	r0, r0, ip, lsr #32
 308:	000002f4 	strdeq	r0, [r0], -r4
 30c:	00008830 	andeq	r8, r0, r0, lsr r8
 310:	00000328 	andeq	r0, r0, r8, lsr #6
 314:	84180e42 	ldrhi	r0, [r8], #-3650	; 0xfffff1be
 318:	86058506 	strhi	r8, [r5], -r6, lsl #10
 31c:	88038704 	stmdahi	r3, {r2, r8, r9, sl, pc}
 320:	46018e02 	strmi	r8, [r1], -r2, lsl #28
 324:	c002600e 	andgt	r6, r2, lr
 328:	42180e0a 	andsmi	r0, r8, #160	; 0xa0
 32c:	0a8e020b 	beq	fe380b60 <__bss_end__+0xfe376488>
 330:	0b42180e 	bleq	1086370 <__bss_end__+0x107bc98>
 334:	00000014 	andeq	r0, r0, r4, lsl r0
 338:	000002f4 	strdeq	r0, [r0], -r4
 33c:	00008b58 	andeq	r8, r0, r8, asr fp
 340:	00000060 	andeq	r0, r0, r0, rrx
 344:	8e040e52 	mcrhi	14, 0, r0, cr4, cr2, {2}
 348:	100e4401 	andne	r4, lr, r1, lsl #8
 34c:	0000002c 	andeq	r0, r0, ip, lsr #32
 350:	000002f4 	strdeq	r0, [r0], -r4
 354:	00008bb8 			; <UNDEFINED> instruction: 0x00008bb8
 358:	0000062c 	andeq	r0, r0, ip, lsr #12
 35c:	84240e42 	strthi	r0, [r4], #-3650	; 0xfffff1be
 360:	86088509 	strhi	r8, [r8], -r9, lsl #10
 364:	88068707 	stmdahi	r6, {r0, r1, r2, r8, r9, sl, pc}
 368:	8a048905 	bhi	122784 <__bss_end__+0x1180ac>
 36c:	8e028b03 	vmlahi.f64	d8, d2, d3
 370:	c00e5201 	andgt	r5, lr, r1, lsl #4
 374:	0a860202 	beq	fe180b84 <__bss_end__+0xfe1764ac>
 378:	0b42240e 	bleq	10893b8 <__bss_end__+0x107ece0>
 37c:	0000000c 	andeq	r0, r0, ip
 380:	ffffffff 			; <UNDEFINED> instruction: 0xffffffff
 384:	7c020001 	stcvc	0, cr0, [r2], {1}
 388:	000d0c0e 	andeq	r0, sp, lr, lsl #24
 38c:	00000014 	andeq	r0, r0, r4, lsl r0
 390:	0000037c 	andeq	r0, r0, ip, ror r3
 394:	000091e4 	andeq	r9, r0, r4, ror #3
 398:	0000002c 	andeq	r0, r0, ip, lsr #32
 39c:	84080e44 	strhi	r0, [r8], #-3652	; 0xfffff1bc
 3a0:	00018e02 	andeq	r8, r1, r2, lsl #28
 3a4:	0000000c 	andeq	r0, r0, ip
 3a8:	ffffffff 			; <UNDEFINED> instruction: 0xffffffff
 3ac:	7c020001 	stcvc	0, cr0, [r2], {1}
 3b0:	000d0c0e 	andeq	r0, sp, lr, lsl #24
 3b4:	00000018 	andeq	r0, r0, r8, lsl r0
 3b8:	000003a4 	andeq	r0, r0, r4, lsr #7
 3bc:	00009210 	andeq	r9, r0, r0, lsl r2
 3c0:	000000f8 	strdeq	r0, [r0], -r8
 3c4:	84100e42 	ldrhi	r0, [r0], #-3650	; 0xfffff1be
 3c8:	86038504 	strhi	r8, [r3], -r4, lsl #10
 3cc:	00018e02 	andeq	r8, r1, r2, lsl #28
 3d0:	0000000c 	andeq	r0, r0, ip
 3d4:	ffffffff 			; <UNDEFINED> instruction: 0xffffffff
 3d8:	7c020001 	stcvc	0, cr0, [r2], {1}
 3dc:	000d0c0e 	andeq	r0, sp, lr, lsl #24
 3e0:	0000000c 	andeq	r0, r0, ip
 3e4:	000003d0 	ldrdeq	r0, [r0], -r0	; <UNPREDICTABLE>
 3e8:	00009308 	andeq	r9, r0, r8, lsl #6
 3ec:	00000004 	andeq	r0, r0, r4
 3f0:	0000000c 	andeq	r0, r0, ip
 3f4:	ffffffff 			; <UNDEFINED> instruction: 0xffffffff
 3f8:	7c020001 	stcvc	0, cr0, [r2], {1}
 3fc:	000d0c0e 	andeq	r0, sp, lr, lsl #24
 400:	0000000c 	andeq	r0, r0, ip
 404:	000003f0 	strdeq	r0, [r0], -r0	; <UNPREDICTABLE>
 408:	0000930c 	andeq	r9, r0, ip, lsl #6
 40c:	00000018 	andeq	r0, r0, r8, lsl r0
 410:	0000000c 	andeq	r0, r0, ip
 414:	000003f0 	strdeq	r0, [r0], -r0	; <UNPREDICTABLE>
 418:	00009324 	andeq	r9, r0, r4, lsr #6
 41c:	00000014 	andeq	r0, r0, r4, lsl r0
 420:	00000014 	andeq	r0, r0, r4, lsl r0
 424:	000003f0 	strdeq	r0, [r0], -r0	; <UNPREDICTABLE>
 428:	00009338 	andeq	r9, r0, r8, lsr r3
 42c:	00000060 	andeq	r0, r0, r0, rrx
 430:	84080e42 	strhi	r0, [r8], #-3650	; 0xfffff1be
 434:	00018e02 	andeq	r8, r1, r2, lsl #28
 438:	0000000c 	andeq	r0, r0, ip
 43c:	ffffffff 			; <UNDEFINED> instruction: 0xffffffff
 440:	7c020001 	stcvc	0, cr0, [r2], {1}
 444:	000d0c0e 	andeq	r0, sp, lr, lsl #24
 448:	0000000c 	andeq	r0, r0, ip
 44c:	00000438 	andeq	r0, r0, r8, lsr r4
 450:	00009398 	muleq	r0, r8, r3
 454:	0000000c 	andeq	r0, r0, ip
 458:	00000014 	andeq	r0, r0, r4, lsl r0
 45c:	00000438 	andeq	r0, r0, r8, lsr r4
 460:	000093a4 	andeq	r9, r0, r4, lsr #7
 464:	00000024 	andeq	r0, r0, r4, lsr #32
 468:	84080e42 	strhi	r0, [r8], #-3650	; 0xfffff1be
 46c:	00018e02 	andeq	r8, r1, r2, lsl #28
 470:	0000001c 	andeq	r0, r0, ip, lsl r0
 474:	00000438 	andeq	r0, r0, r8, lsr r4
 478:	000093c8 	andeq	r9, r0, r8, asr #7
 47c:	00000048 	andeq	r0, r0, r8, asr #32
 480:	84180e42 	ldrhi	r0, [r8], #-3650	; 0xfffff1be
 484:	86058506 	strhi	r8, [r5], -r6, lsl #10
 488:	88038704 	stmdahi	r3, {r2, r8, r9, sl, pc}
 48c:	00018e02 	andeq	r8, r1, r2, lsl #28
 490:	0000001c 	andeq	r0, r0, ip, lsl r0
 494:	00000438 	andeq	r0, r0, r8, lsr r4
 498:	00009410 	andeq	r9, r0, r0, lsl r4
 49c:	00000050 	andeq	r0, r0, r0, asr r0
 4a0:	84180e42 	ldrhi	r0, [r8], #-3650	; 0xfffff1be
 4a4:	86058506 	strhi	r8, [r5], -r6, lsl #10
 4a8:	88038704 	stmdahi	r3, {r2, r8, r9, sl, pc}
 4ac:	00018e02 	andeq	r8, r1, r2, lsl #28
 4b0:	0000001c 	andeq	r0, r0, ip, lsl r0
 4b4:	00000438 	andeq	r0, r0, r8, lsr r4
 4b8:	00009460 	andeq	r9, r0, r0, ror #8
 4bc:	00000054 	andeq	r0, r0, r4, asr r0
 4c0:	84180e42 	ldrhi	r0, [r8], #-3650	; 0xfffff1be
 4c4:	86058506 	strhi	r8, [r5], -r6, lsl #10
 4c8:	88038704 	stmdahi	r3, {r2, r8, r9, sl, pc}
 4cc:	00018e02 	andeq	r8, r1, r2, lsl #28
 4d0:	0000000c 	andeq	r0, r0, ip
 4d4:	ffffffff 			; <UNDEFINED> instruction: 0xffffffff
 4d8:	7c020001 	stcvc	0, cr0, [r2], {1}
 4dc:	000d0c0e 	andeq	r0, sp, lr, lsl #24
 4e0:	00000018 	andeq	r0, r0, r8, lsl r0
 4e4:	000004d0 	ldrdeq	r0, [r0], -r0	; <UNPREDICTABLE>
 4e8:	000094b4 			; <UNDEFINED> instruction: 0x000094b4
 4ec:	00000020 	andeq	r0, r0, r0, lsr #32
 4f0:	84100e42 	ldrhi	r0, [r0], #-3650	; 0xfffff1be
 4f4:	86038504 	strhi	r8, [r3], -r4, lsl #10
 4f8:	00018e02 	andeq	r8, r1, r2, lsl #28
 4fc:	00000018 	andeq	r0, r0, r8, lsl r0
 500:	000004d0 	ldrdeq	r0, [r0], -r0	; <UNPREDICTABLE>
 504:	000094d4 	ldrdeq	r9, [r0], -r4
 508:	00000020 	andeq	r0, r0, r0, lsr #32
 50c:	84100e42 	ldrhi	r0, [r0], #-3650	; 0xfffff1be
 510:	86038504 	strhi	r8, [r3], -r4, lsl #10
 514:	00018e02 	andeq	r8, r1, r2, lsl #28
 518:	00000014 	andeq	r0, r0, r4, lsl r0
 51c:	000004d0 	ldrdeq	r0, [r0], -r0	; <UNPREDICTABLE>
 520:	000094f4 	strdeq	r9, [r0], -r4
 524:	000000b0 	strheq	r0, [r0], -r0	; <UNPREDICTABLE>
 528:	84080e42 	strhi	r0, [r8], #-3650	; 0xfffff1be
 52c:	00018e02 	andeq	r8, r1, r2, lsl #28
 530:	00000014 	andeq	r0, r0, r4, lsl r0
 534:	000004d0 	ldrdeq	r0, [r0], -r0	; <UNPREDICTABLE>
 538:	000095a4 	andeq	r9, r0, r4, lsr #11
 53c:	00000018 	andeq	r0, r0, r8, lsl r0
 540:	84080e42 	strhi	r0, [r8], #-3650	; 0xfffff1be
 544:	00018e02 	andeq	r8, r1, r2, lsl #28
 548:	00000014 	andeq	r0, r0, r4, lsl r0
 54c:	000004d0 	ldrdeq	r0, [r0], -r0	; <UNPREDICTABLE>
 550:	000095bc 			; <UNDEFINED> instruction: 0x000095bc
 554:	00000020 	andeq	r0, r0, r0, lsr #32
 558:	84080e42 	strhi	r0, [r8], #-3650	; 0xfffff1be
 55c:	00018e02 	andeq	r8, r1, r2, lsl #28
 560:	00000014 	andeq	r0, r0, r4, lsl r0
 564:	000004d0 	ldrdeq	r0, [r0], -r0	; <UNPREDICTABLE>
 568:	000095dc 	ldrdeq	r9, [r0], -ip
 56c:	00000030 	andeq	r0, r0, r0, lsr r0
 570:	84080e42 	strhi	r0, [r8], #-3650	; 0xfffff1be
 574:	00018e02 	andeq	r8, r1, r2, lsl #28
 578:	00000014 	andeq	r0, r0, r4, lsl r0
 57c:	000004d0 	ldrdeq	r0, [r0], -r0	; <UNPREDICTABLE>
 580:	0000960c 	andeq	r9, r0, ip, lsl #12
 584:	00000030 	andeq	r0, r0, r0, lsr r0
 588:	84080e42 	strhi	r0, [r8], #-3650	; 0xfffff1be
 58c:	00018e02 	andeq	r8, r1, r2, lsl #28
 590:	00000014 	andeq	r0, r0, r4, lsl r0
 594:	000004d0 	ldrdeq	r0, [r0], -r0	; <UNPREDICTABLE>
 598:	0000963c 	andeq	r9, r0, ip, lsr r6
 59c:	00000010 	andeq	r0, r0, r0, lsl r0
 5a0:	84080e42 	strhi	r0, [r8], #-3650	; 0xfffff1be
 5a4:	00018e02 	andeq	r8, r1, r2, lsl #28
 5a8:	00000014 	andeq	r0, r0, r4, lsl r0
 5ac:	000004d0 	ldrdeq	r0, [r0], -r0	; <UNPREDICTABLE>
 5b0:	0000964c 	andeq	r9, r0, ip, asr #12
 5b4:	00000020 	andeq	r0, r0, r0, lsr #32
 5b8:	84080e42 	strhi	r0, [r8], #-3650	; 0xfffff1be
 5bc:	00018e02 	andeq	r8, r1, r2, lsl #28
 5c0:	00000014 	andeq	r0, r0, r4, lsl r0
 5c4:	000004d0 	ldrdeq	r0, [r0], -r0	; <UNPREDICTABLE>
 5c8:	0000966c 	andeq	r9, r0, ip, ror #12
 5cc:	00000014 	andeq	r0, r0, r4, lsl r0
 5d0:	84080e42 	strhi	r0, [r8], #-3650	; 0xfffff1be
 5d4:	00018e02 	andeq	r8, r1, r2, lsl #28
 5d8:	00000014 	andeq	r0, r0, r4, lsl r0
 5dc:	000004d0 	ldrdeq	r0, [r0], -r0	; <UNPREDICTABLE>
 5e0:	00009680 	andeq	r9, r0, r0, lsl #13
 5e4:	00000024 	andeq	r0, r0, r4, lsr #32
 5e8:	84080e42 	strhi	r0, [r8], #-3650	; 0xfffff1be
 5ec:	00018e02 	andeq	r8, r1, r2, lsl #28
 5f0:	0000000c 	andeq	r0, r0, ip
 5f4:	ffffffff 			; <UNDEFINED> instruction: 0xffffffff
 5f8:	7c020001 	stcvc	0, cr0, [r2], {1}
 5fc:	000d0c0e 	andeq	r0, sp, lr, lsl #24
 600:	0000000c 	andeq	r0, r0, ip
 604:	000005f0 	strdeq	r0, [r0], -r0	; <UNPREDICTABLE>
 608:	000096a4 	andeq	r9, r0, r4, lsr #13
 60c:	00000010 	andeq	r0, r0, r0, lsl r0
 610:	0000000c 	andeq	r0, r0, ip
 614:	000005f0 	strdeq	r0, [r0], -r0	; <UNPREDICTABLE>
 618:	000096b4 			; <UNDEFINED> instruction: 0x000096b4
 61c:	00000010 	andeq	r0, r0, r0, lsl r0
 620:	0000000c 	andeq	r0, r0, ip
 624:	000005f0 	strdeq	r0, [r0], -r0	; <UNPREDICTABLE>
 628:	000096c4 	andeq	r9, r0, r4, asr #13
 62c:	00000010 	andeq	r0, r0, r0, lsl r0
 630:	0000001c 	andeq	r0, r0, ip, lsl r0
 634:	000005f0 	strdeq	r0, [r0], -r0	; <UNPREDICTABLE>
 638:	000096d4 	ldrdeq	r9, [r0], -r4
 63c:	0000009c 	muleq	r0, ip, r0
 640:	8e040e42 	cdphi	14, 0, cr0, cr4, cr2, {2}
 644:	100e4201 	andne	r4, lr, r1, lsl #4
 648:	040e0a58 	streq	r0, [lr], #-2648	; 0xfffff5a8
 64c:	00000b42 	andeq	r0, r0, r2, asr #22
 650:	00000014 	andeq	r0, r0, r4, lsl r0
 654:	000005f0 	strdeq	r0, [r0], -r0	; <UNPREDICTABLE>
 658:	00009770 	andeq	r9, r0, r0, ror r7
 65c:	00000058 	andeq	r0, r0, r8, asr r0
 660:	84080e42 	strhi	r0, [r8], #-3650	; 0xfffff1be
 664:	00018e02 	andeq	r8, r1, r2, lsl #28
 668:	0000001c 	andeq	r0, r0, ip, lsl r0
 66c:	000005f0 	strdeq	r0, [r0], -r0	; <UNPREDICTABLE>
 670:	000097c8 	andeq	r9, r0, r8, asr #15
 674:	00000098 	muleq	r0, r8, r0
 678:	8e040e42 	cdphi	14, 0, cr0, cr4, cr2, {2}
 67c:	100e4201 	andne	r4, lr, r1, lsl #4
 680:	040e0a58 	streq	r0, [lr], #-2648	; 0xfffff5a8
 684:	00000b42 	andeq	r0, r0, r2, asr #22
 688:	00000020 	andeq	r0, r0, r0, lsr #32
 68c:	000005f0 	strdeq	r0, [r0], -r0	; <UNPREDICTABLE>
 690:	00009860 	andeq	r9, r0, r0, ror #16
 694:	00000064 	andeq	r0, r0, r4, rrx
 698:	840c0e42 	strhi	r0, [ip], #-3650	; 0xfffff1be
 69c:	8e028503 	cfsh32hi	mvfx8, mvfx2, #3
 6a0:	180e4201 	stmdane	lr, {r0, r9, lr}
 6a4:	0c0e0a54 			; <UNDEFINED> instruction: 0x0c0e0a54
 6a8:	00000b42 	andeq	r0, r0, r2, asr #22
 6ac:	0000001c 	andeq	r0, r0, ip, lsl r0
 6b0:	000005f0 	strdeq	r0, [r0], -r0	; <UNPREDICTABLE>
 6b4:	000098c4 	andeq	r9, r0, r4, asr #17
 6b8:	00000118 	andeq	r0, r0, r8, lsl r1
 6bc:	8e040e42 	cdphi	14, 0, cr0, cr4, cr2, {2}
 6c0:	100e4201 	andne	r4, lr, r1, lsl #4
 6c4:	040e0a6c 	streq	r0, [lr], #-2668	; 0xfffff594
 6c8:	00000b42 	andeq	r0, r0, r2, asr #22
 6cc:	0000000c 	andeq	r0, r0, ip
 6d0:	000005f0 	strdeq	r0, [r0], -r0	; <UNPREDICTABLE>
 6d4:	000099dc 	ldrdeq	r9, [r0], -ip
 6d8:	00000004 	andeq	r0, r0, r4
 6dc:	0000000c 	andeq	r0, r0, ip
 6e0:	000005f0 	strdeq	r0, [r0], -r0	; <UNPREDICTABLE>
 6e4:	000099e0 	andeq	r9, r0, r0, ror #19
 6e8:	00000014 	andeq	r0, r0, r4, lsl r0
 6ec:	00000014 	andeq	r0, r0, r4, lsl r0
 6f0:	000005f0 	strdeq	r0, [r0], -r0	; <UNPREDICTABLE>
 6f4:	000099f4 	strdeq	r9, [r0], -r4
 6f8:	00000060 	andeq	r0, r0, r0, rrx
 6fc:	8e040e58 	mcrhi	14, 0, r0, cr4, cr8, {2}
 700:	100e4201 	andne	r4, lr, r1, lsl #4
 704:	0000000c 	andeq	r0, r0, ip
 708:	ffffffff 			; <UNDEFINED> instruction: 0xffffffff
 70c:	7c020001 	stcvc	0, cr0, [r2], {1}
 710:	000d0c0e 	andeq	r0, sp, lr, lsl #24
 714:	00000020 	andeq	r0, r0, r0, lsr #32
 718:	00000704 	andeq	r0, r0, r4, lsl #14
 71c:	00009a54 	andeq	r9, r0, r4, asr sl
 720:	00000060 	andeq	r0, r0, r0, rrx
 724:	84100e48 	ldrhi	r0, [r0], #-3656	; 0xfffff1b8
 728:	86038504 	strhi	r8, [r3], -r4, lsl #10
 72c:	64018e02 	strvs	r8, [r1], #-3586	; 0xfffff1fe
 730:	c4c5c6ce 	strbgt	ip, [r5], #1742	; 0x6ce
 734:	0000000e 	andeq	r0, r0, lr
 738:	00000020 	andeq	r0, r0, r0, lsr #32
 73c:	00000704 	andeq	r0, r0, r4, lsl #14
 740:	00009ab4 			; <UNDEFINED> instruction: 0x00009ab4
 744:	00000058 	andeq	r0, r0, r8, asr r0
 748:	84100e46 	ldrhi	r0, [r0], #-3654	; 0xfffff1ba
 74c:	86038504 	strhi	r8, [r3], -r4, lsl #10
 750:	62018e02 	andvs	r8, r1, #2, 28
 754:	c4c5c6ce 	strbgt	ip, [r5], #1742	; 0x6ce
 758:	0000000e 	andeq	r0, r0, lr
 75c:	0000000c 	andeq	r0, r0, ip
 760:	00000704 	andeq	r0, r0, r4, lsl #14
 764:	00009b0c 	andeq	r9, r0, ip, lsl #22
 768:	00000018 	andeq	r0, r0, r8, lsl r0
 76c:	0000000c 	andeq	r0, r0, ip
 770:	00000704 	andeq	r0, r0, r4, lsl #14
 774:	00009b24 	andeq	r9, r0, r4, lsr #22
 778:	00000018 	andeq	r0, r0, r8, lsl r0
 77c:	00000020 	andeq	r0, r0, r0, lsr #32
 780:	00000704 	andeq	r0, r0, r4, lsl #14
 784:	00009b3c 	andeq	r9, r0, ip, lsr fp
 788:	00000058 	andeq	r0, r0, r8, asr r0
 78c:	84100e46 	ldrhi	r0, [r0], #-3654	; 0xfffff1ba
 790:	86038504 	strhi	r8, [r3], -r4, lsl #10
 794:	62018e02 	andvs	r8, r1, #2, 28
 798:	c4c5c6ce 	strbgt	ip, [r5], #1742	; 0x6ce
 79c:	0000000e 	andeq	r0, r0, lr
 7a0:	0000000c 	andeq	r0, r0, ip
 7a4:	00000704 	andeq	r0, r0, r4, lsl #14
 7a8:	00009b94 	muleq	r0, r4, fp
 7ac:	00000030 	andeq	r0, r0, r0, lsr r0
 7b0:	00000014 	andeq	r0, r0, r4, lsl r0
 7b4:	00000704 	andeq	r0, r0, r4, lsl #14
 7b8:	00009bc4 	andeq	r9, r0, r4, asr #23
 7bc:	00000028 	andeq	r0, r0, r8, lsr #32
 7c0:	84080e42 	strhi	r0, [r8], #-3650	; 0xfffff1be
 7c4:	00018e02 	andeq	r8, r1, r2, lsl #28
 7c8:	0000000c 	andeq	r0, r0, ip
 7cc:	ffffffff 			; <UNDEFINED> instruction: 0xffffffff
 7d0:	7c020001 	stcvc	0, cr0, [r2], {1}
 7d4:	000d0c0e 	andeq	r0, sp, lr, lsl #24
 7d8:	00000014 	andeq	r0, r0, r4, lsl r0
 7dc:	000007c8 	andeq	r0, r0, r8, asr #15
 7e0:	00009bec 	andeq	r9, r0, ip, ror #23
 7e4:	00000014 	andeq	r0, r0, r4, lsl r0
 7e8:	84080e42 	strhi	r0, [r8], #-3650	; 0xfffff1be
 7ec:	00018e02 	andeq	r8, r1, r2, lsl #28
 7f0:	0000000c 	andeq	r0, r0, ip
 7f4:	000007c8 	andeq	r0, r0, r8, asr #15
 7f8:	00009c00 	andeq	r9, r0, r0, lsl #24
 7fc:	00000018 	andeq	r0, r0, r8, lsl r0
 800:	0000000c 	andeq	r0, r0, ip
 804:	000007c8 	andeq	r0, r0, r8, asr #15
 808:	00009c18 	andeq	r9, r0, r8, lsl ip
 80c:	00000010 	andeq	r0, r0, r0, lsl r0
 810:	0000000c 	andeq	r0, r0, ip
 814:	ffffffff 			; <UNDEFINED> instruction: 0xffffffff
 818:	7c020001 	stcvc	0, cr0, [r2], {1}
 81c:	000d0c0e 	andeq	r0, sp, lr, lsl #24
 820:	0000000c 	andeq	r0, r0, ip
 824:	00000810 	andeq	r0, r0, r0, lsl r8
 828:	00009c28 	andeq	r9, r0, r8, lsr #24
 82c:	0000002c 	andeq	r0, r0, ip, lsr #32
 830:	0000000c 	andeq	r0, r0, ip
 834:	ffffffff 			; <UNDEFINED> instruction: 0xffffffff
 838:	7c020001 	stcvc	0, cr0, [r2], {1}
 83c:	000d0c0e 	andeq	r0, sp, lr, lsl #24
 840:	0000000c 	andeq	r0, r0, ip
 844:	00000830 	andeq	r0, r0, r0, lsr r8
 848:	00009c54 	andeq	r9, r0, r4, asr ip
 84c:	00000044 	andeq	r0, r0, r4, asr #32
 850:	0000000c 	andeq	r0, r0, ip
 854:	ffffffff 			; <UNDEFINED> instruction: 0xffffffff
 858:	7c020001 	stcvc	0, cr0, [r2], {1}
 85c:	000d0c0e 	andeq	r0, sp, lr, lsl #24
 860:	0000000c 	andeq	r0, r0, ip
 864:	00000850 	andeq	r0, r0, r0, asr r8
 868:	00009c98 	muleq	r0, r8, ip
 86c:	00000018 	andeq	r0, r0, r8, lsl r0
 870:	0000000c 	andeq	r0, r0, ip
 874:	ffffffff 			; <UNDEFINED> instruction: 0xffffffff
 878:	7c020001 	stcvc	0, cr0, [r2], {1}
 87c:	000d0c0e 	andeq	r0, sp, lr, lsl #24
 880:	0000000c 	andeq	r0, r0, ip
 884:	00000870 	andeq	r0, r0, r0, ror r8
 888:	00009cb0 			; <UNDEFINED> instruction: 0x00009cb0
 88c:	00000030 	andeq	r0, r0, r0, lsr r0
 890:	0000000c 	andeq	r0, r0, ip
 894:	ffffffff 			; <UNDEFINED> instruction: 0xffffffff
 898:	7c020001 	stcvc	0, cr0, [r2], {1}
 89c:	000d0c0e 	andeq	r0, sp, lr, lsl #24
 8a0:	0000000c 	andeq	r0, r0, ip
 8a4:	00000890 	muleq	r0, r0, r8
 8a8:	00009ce0 	andeq	r9, r0, r0, ror #25
 8ac:	00000004 	andeq	r0, r0, r4

Disassembly of section .debug_ranges:

00000000 <.debug_ranges>:
   0:	000000a4 	andeq	r0, r0, r4, lsr #1
   4:	00000148 	andeq	r0, r0, r8, asr #2
   8:	00000158 	andeq	r0, r0, r8, asr r1
   c:	0000015c 	andeq	r0, r0, ip, asr r1
  10:	00000274 	andeq	r0, r0, r4, ror r2
  14:	00000278 	andeq	r0, r0, r8, ror r2
  18:	0000027c 	andeq	r0, r0, ip, ror r2
  1c:	00000280 	andeq	r0, r0, r0, lsl #5
  20:	00000288 	andeq	r0, r0, r8, lsl #5
  24:	0000029c 	muleq	r0, ip, r2
  28:	000002c0 	andeq	r0, r0, r0, asr #5
  2c:	000002cc 	andeq	r0, r0, ip, asr #5
  30:	000002f0 	strdeq	r0, [r0], -r0	; <UNPREDICTABLE>
  34:	000002f0 	strdeq	r0, [r0], -r0	; <UNPREDICTABLE>
  38:	000002f4 	strdeq	r0, [r0], -r4
  3c:	000002f8 	strdeq	r0, [r0], -r8
	...
  48:	00000148 	andeq	r0, r0, r8, asr #2
  4c:	00000158 	andeq	r0, r0, r8, asr r1
  50:	0000015c 	andeq	r0, r0, ip, asr r1
  54:	0000018c 	andeq	r0, r0, ip, lsl #3
  58:	0000029c 	muleq	r0, ip, r2
  5c:	000002ac 	andeq	r0, r0, ip, lsr #5
	...
  68:	000003c8 	andeq	r0, r0, r8, asr #7
  6c:	000003d0 	ldrdeq	r0, [r0], -r0	; <UNPREDICTABLE>
  70:	00000404 	andeq	r0, r0, r4, lsl #8
  74:	000004ac 	andeq	r0, r0, ip, lsr #9
  78:	000004c0 	andeq	r0, r0, r0, asr #9
  7c:	00000920 	andeq	r0, r0, r0, lsr #18
  80:	00000928 	andeq	r0, r0, r8, lsr #18
  84:	000009b4 			; <UNDEFINED> instruction: 0x000009b4
	...
  90:	000003c8 	andeq	r0, r0, r8, asr #7
  94:	000003d0 	ldrdeq	r0, [r0], -r0	; <UNPREDICTABLE>
  98:	00000504 	andeq	r0, r0, r4, lsl #10
  9c:	000005d0 	ldrdeq	r0, [r0], -r0	; <UNPREDICTABLE>
  a0:	00000800 	andeq	r0, r0, r0, lsl #16
  a4:	00000888 	andeq	r0, r0, r8, lsl #17
  a8:	00000930 	andeq	r0, r0, r0, lsr r9
  ac:	000009b4 			; <UNDEFINED> instruction: 0x000009b4
	...
  b8:	00000404 	andeq	r0, r0, r4, lsl #8
  bc:	00000408 	andeq	r0, r0, r8, lsl #8
  c0:	00000414 	andeq	r0, r0, r4, lsl r4
  c4:	00000414 	andeq	r0, r0, r4, lsl r4
  c8:	00000428 	andeq	r0, r0, r8, lsr #8
  cc:	0000042c 	andeq	r0, r0, ip, lsr #8
	...
  d8:	000005fc 	strdeq	r0, [r0], -ip
  dc:	00000700 	andeq	r0, r0, r0, lsl #14
  e0:	000007ec 	andeq	r0, r0, ip, ror #15
  e4:	000007f4 	strdeq	r0, [r0], -r4
  e8:	00000888 	andeq	r0, r0, r8, lsl #17
  ec:	00000894 	muleq	r0, r4, r8
  f0:	000008a8 	andeq	r0, r0, r8, lsr #17
  f4:	000008bc 			; <UNDEFINED> instruction: 0x000008bc
  f8:	00000910 	andeq	r0, r0, r0, lsl r9
  fc:	00000920 	andeq	r0, r0, r0, lsr #18
	...
 108:	00000600 	andeq	r0, r0, r0, lsl #12
 10c:	00000604 	andeq	r0, r0, r4, lsl #12
 110:	00000608 	andeq	r0, r0, r8, lsl #12
 114:	000006b4 			; <UNDEFINED> instruction: 0x000006b4
 118:	000006cc 	andeq	r0, r0, ip, asr #13
 11c:	000006d0 	ldrdeq	r0, [r0], -r0	; <UNPREDICTABLE>
 120:	000008a8 	andeq	r0, r0, r8, lsr #17
 124:	000008b8 			; <UNDEFINED> instruction: 0x000008b8
 128:	00000910 	andeq	r0, r0, r0, lsl r9
 12c:	00000920 	andeq	r0, r0, r0, lsr #18
	...
 138:	000006b4 			; <UNDEFINED> instruction: 0x000006b4
 13c:	000006cc 	andeq	r0, r0, ip, asr #13
 140:	000006d0 	ldrdeq	r0, [r0], -r0	; <UNPREDICTABLE>
 144:	00000700 	andeq	r0, r0, r0, lsl #14
 148:	000007ec 	andeq	r0, r0, ip, ror #15
 14c:	000007f4 	strdeq	r0, [r0], -r4
 150:	00000888 	andeq	r0, r0, r8, lsl #17
 154:	00000894 	muleq	r0, r4, r8
 158:	000008b8 			; <UNDEFINED> instruction: 0x000008b8
 15c:	000008bc 			; <UNDEFINED> instruction: 0x000008bc
	...
 168:	00000700 	andeq	r0, r0, r0, lsl #14
 16c:	00000708 	andeq	r0, r0, r8, lsl #14
 170:	0000070c 	andeq	r0, r0, ip, lsl #14
 174:	000007ec 	andeq	r0, r0, ip, ror #15
 178:	00000894 	muleq	r0, r4, r8
 17c:	000008a8 	andeq	r0, r0, r8, lsr #17
	...
 188:	00000728 	andeq	r0, r0, r8, lsr #14
 18c:	000007a4 	andeq	r0, r0, r4, lsr #15
 190:	000007ac 	andeq	r0, r0, ip, lsr #15
 194:	000007b0 			; <UNDEFINED> instruction: 0x000007b0
 198:	00000894 	muleq	r0, r4, r8
 19c:	00000898 	muleq	r0, r8, r8
 1a0:	0000089c 	muleq	r0, ip, r8
 1a4:	000008a0 	andeq	r0, r0, r0, lsr #17
	...
 1b0:	000007a4 	andeq	r0, r0, r4, lsr #15
 1b4:	000007ac 	andeq	r0, r0, ip, lsr #15
 1b8:	000007b0 			; <UNDEFINED> instruction: 0x000007b0
 1bc:	000007ec 	andeq	r0, r0, ip, ror #15
 1c0:	00000898 	muleq	r0, r8, r8
 1c4:	0000089c 	muleq	r0, ip, r8
 1c8:	000008a0 	andeq	r0, r0, r0, lsr #17
 1cc:	000008a8 	andeq	r0, r0, r8, lsr #17
	...
 1d8:	00009338 	andeq	r9, r0, r8, lsr r3
 1dc:	00009338 	andeq	r9, r0, r8, lsr r3
 1e0:	0000933c 	andeq	r9, r0, ip, lsr r3
 1e4:	00009344 	andeq	r9, r0, r4, asr #6
	...
 1f0:	0000930c 	andeq	r9, r0, ip, lsl #6
 1f4:	00009398 	muleq	r0, r8, r3
	...
 200:	00000030 	andeq	r0, r0, r0, lsr r0
 204:	00000030 	andeq	r0, r0, r0, lsr r0
 208:	00000038 	andeq	r0, r0, r8, lsr r0
 20c:	0000004c 	andeq	r0, r0, ip, asr #32
	...
 218:	0000004c 	andeq	r0, r0, ip, asr #32
 21c:	00000050 	andeq	r0, r0, r0, asr r0
 220:	00000050 	andeq	r0, r0, r0, asr r0
 224:	00000078 	andeq	r0, r0, r8, ror r0
	...
 230:	0000004c 	andeq	r0, r0, ip, asr #32
 234:	00000050 	andeq	r0, r0, r0, asr r0
 238:	00000050 	andeq	r0, r0, r0, asr r0
 23c:	00000060 	andeq	r0, r0, r0, rrx
 240:	00000064 	andeq	r0, r0, r4, rrx
 244:	00000068 	andeq	r0, r0, r8, rrx
	...
 250:	0000004c 	andeq	r0, r0, ip, asr #32
 254:	00000050 	andeq	r0, r0, r0, asr r0
 258:	00000054 	andeq	r0, r0, r4, asr r0
 25c:	00000060 	andeq	r0, r0, r0, rrx
	...
 268:	0000009c 	muleq	r0, ip, r0
 26c:	000000a0 	andeq	r0, r0, r0, lsr #1
 270:	000000a0 	andeq	r0, r0, r0, lsr #1
 274:	000000c8 	andeq	r0, r0, r8, asr #1
	...
 280:	0000009c 	muleq	r0, ip, r0
 284:	000000a0 	andeq	r0, r0, r0, lsr #1
 288:	000000a0 	andeq	r0, r0, r0, lsr #1
 28c:	000000b0 	strheq	r0, [r0], -r0	; <UNPREDICTABLE>
 290:	000000b4 	strheq	r0, [r0], -r4
 294:	000000b8 	strheq	r0, [r0], -r8
	...
 2a0:	0000009c 	muleq	r0, ip, r0
 2a4:	000000a0 	andeq	r0, r0, r0, lsr #1
 2a8:	000000a4 	andeq	r0, r0, r4, lsr #1
 2ac:	000000b0 	strheq	r0, [r0], -r0	; <UNPREDICTABLE>
	...
 2b8:	000000c8 	andeq	r0, r0, r8, asr #1
 2bc:	000000c8 	andeq	r0, r0, r8, asr #1
 2c0:	000000cc 	andeq	r0, r0, ip, asr #1
 2c4:	0000011c 	andeq	r0, r0, ip, lsl r1
	...
 2d0:	000000f0 	strdeq	r0, [r0], -r0	; <UNPREDICTABLE>
 2d4:	000000f4 	strdeq	r0, [r0], -r4
 2d8:	000000f4 	strdeq	r0, [r0], -r4
 2dc:	0000011c 	andeq	r0, r0, ip, lsl r1
	...
 2e8:	000000f0 	strdeq	r0, [r0], -r0	; <UNPREDICTABLE>
 2ec:	000000f4 	strdeq	r0, [r0], -r4
 2f0:	000000f4 	strdeq	r0, [r0], -r4
 2f4:	00000104 	andeq	r0, r0, r4, lsl #2
 2f8:	00000108 	andeq	r0, r0, r8, lsl #2
 2fc:	0000010c 	andeq	r0, r0, ip, lsl #2
	...
 308:	000000f0 	strdeq	r0, [r0], -r0	; <UNPREDICTABLE>
 30c:	000000f4 	strdeq	r0, [r0], -r4
 310:	000000f8 	strdeq	r0, [r0], -r8
 314:	00000104 	andeq	r0, r0, r4, lsl #2
	...
 320:	00000134 	andeq	r0, r0, r4, lsr r1
 324:	00000134 	andeq	r0, r0, r4, lsr r1
 328:	00000134 	andeq	r0, r0, r4, lsr r1
 32c:	0000013c 	andeq	r0, r0, ip, lsr r1
	...
 338:	0000024c 	andeq	r0, r0, ip, asr #4
 33c:	00000264 	andeq	r0, r0, r4, ror #4
 340:	000002c8 	andeq	r0, r0, r8, asr #5
 344:	000002e8 	andeq	r0, r0, r8, ror #5
	...
 350:	00000008 	andeq	r0, r0, r8
 354:	0000000c 	andeq	r0, r0, ip
 358:	00000014 	andeq	r0, r0, r4, lsl r0
 35c:	00000054 	andeq	r0, r0, r4, asr r0
 360:	00000058 	andeq	r0, r0, r8, asr r0
 364:	00000060 	andeq	r0, r0, r0, rrx
	...
 370:	00000060 	andeq	r0, r0, r0, rrx
 374:	00000068 	andeq	r0, r0, r8, rrx
 378:	0000006c 	andeq	r0, r0, ip, rrx
 37c:	000000ac 	andeq	r0, r0, ip, lsr #1
 380:	000000b0 	strheq	r0, [r0], -r0	; <UNPREDICTABLE>
 384:	000000b8 	strheq	r0, [r0], -r8
	...
 390:	00000068 	andeq	r0, r0, r8, rrx
 394:	00000068 	andeq	r0, r0, r8, rrx
 398:	0000006c 	andeq	r0, r0, ip, rrx
 39c:	000000ac 	andeq	r0, r0, ip, lsr #1
 3a0:	000000b0 	strheq	r0, [r0], -r0	; <UNPREDICTABLE>
 3a4:	000000b8 	strheq	r0, [r0], -r8
	...
 3b0:	000000e8 	andeq	r0, r0, r8, ror #1
 3b4:	000000f0 	strdeq	r0, [r0], -r0	; <UNPREDICTABLE>
 3b8:	000000f4 	strdeq	r0, [r0], -r4
 3bc:	00000134 	andeq	r0, r0, r4, lsr r1
 3c0:	00000138 	andeq	r0, r0, r8, lsr r1
 3c4:	00000140 	andeq	r0, r0, r0, asr #2
	...
 3d0:	000000f0 	strdeq	r0, [r0], -r0	; <UNPREDICTABLE>
 3d4:	000000f0 	strdeq	r0, [r0], -r0	; <UNPREDICTABLE>
 3d8:	000000f4 	strdeq	r0, [r0], -r4
 3dc:	00000134 	andeq	r0, r0, r4, lsr r1
 3e0:	00000138 	andeq	r0, r0, r8, lsr r1
 3e4:	00000140 	andeq	r0, r0, r0, asr #2
	...
 3f0:	00000144 	andeq	r0, r0, r4, asr #2
 3f4:	00000148 	andeq	r0, r0, r8, asr #2
 3f8:	00000150 	andeq	r0, r0, r0, asr r1
 3fc:	0000015c 	andeq	r0, r0, ip, asr r1
	...
