
tests/part2-test4.elf:     file format elf32-littlearm


Disassembly of section .text:

00008000 <__code_start__>:
    8000:	e3a00013 	mov	r0, #19, 0
    8004:	e3800080 	orr	r0, r0, #128, 0	; 0x80
    8008:	e129f000 	msr	CPSR_fc, r0
    800c:	e3a01000 	mov	r1, #0, 0
    8010:	ee071f95 	mcr	15, 0, r1, cr7, cr5, {4}
    8014:	e3a0d302 	mov	sp, #134217728	; 0x8000000
    8018:	e3a0b000 	mov	fp, #0, 0
    801c:	eb0005a2 	bl	96ac <_cstart>
    8020:	eb0005eb 	bl	97d4 <rpi_reboot>

00008024 <PUT32>:
    8024:	e5801000 	str	r1, [r0]
    8028:	e12fff1e 	bx	lr

0000802c <GET32>:
    802c:	e5900000 	ldr	r0, [r0]
    8030:	e12fff1e 	bx	lr

00008034 <BRANCHTO>:
    8034:	e12fff10 	bx	r0

00008038 <test>:
    8038:	e92d4070 	push	{r4, r5, r6, lr}
    803c:	e24dd018 	sub	sp, sp, #24, 0
    8040:	e3a06000 	mov	r6, #0, 0
    8044:	e1a05006 	mov	r5, r6
    8048:	ea000009 	b	8074 <test+0x3c>
    804c:	e59f3098 	ldr	r3, [pc, #152]	; 80ec <test+0xb4>
    8050:	e58d3000 	str	r3, [sp]
    8054:	e3a03014 	mov	r3, #20, 0
    8058:	e59f2090 	ldr	r2, [pc, #144]	; 80f0 <test+0xb8>
    805c:	e59f1090 	ldr	r1, [pc, #144]	; 80f4 <test+0xbc>
    8060:	e59f0090 	ldr	r0, [pc, #144]	; 80f8 <test+0xc0>
    8064:	eb0002f4 	bl	8c3c <printk>
    8068:	eb000584 	bl	9680 <clean_reboot>
    806c:	e2866001 	add	r6, r6, #1, 0
    8070:	e1a05004 	mov	r5, r4
    8074:	e3560063 	cmp	r6, #99, 0	; 0x63
    8078:	ca000017 	bgt	80dc <test+0xa4>
    807c:	e59f3070 	ldr	r3, [pc, #112]	; 80f4 <test+0xbc>
    8080:	e58d300c 	str	r3, [sp, #12]
    8084:	e59f3064 	ldr	r3, [pc, #100]	; 80f0 <test+0xb8>
    8088:	e58d3010 	str	r3, [sp, #16]
    808c:	e3a03010 	mov	r3, #16, 0
    8090:	e58d3014 	str	r3, [sp, #20]
    8094:	e28d3018 	add	r3, sp, #24, 0
    8098:	e913000e 	ldmdb	r3, {r1, r2, r3}
    809c:	e3a0000c 	mov	r0, #12, 0
    80a0:	eb0000b5 	bl	837c <ckalloc>
    80a4:	e1a04000 	mov	r4, r0
    80a8:	e3a0200c 	mov	r2, #12, 0
    80ac:	e3a01000 	mov	r1, #0, 0
    80b0:	eb0002c3 	bl	8bc4 <memset>
    80b4:	e3a03000 	mov	r3, #0, 0
    80b8:	e5843000 	str	r3, [r4]
    80bc:	e1550003 	cmp	r5, r3
    80c0:	0affffe9 	beq	806c <test+0x34>
    80c4:	e5953008 	ldr	r3, [r5, #8]
    80c8:	e3530000 	cmp	r3, #0, 0
    80cc:	1affffde 	bne	804c <test+0x14>
    80d0:	e5854008 	str	r4, [r5, #8]
    80d4:	e5845004 	str	r5, [r4, #4]
    80d8:	eaffffe3 	b	806c <test+0x34>
    80dc:	eb00027b 	bl	8ad0 <check_no_leak>
    80e0:	e1a00005 	mov	r0, r5
    80e4:	e28dd018 	add	sp, sp, #24, 0
    80e8:	e8bd8070 	pop	{r4, r5, r6, pc}
    80ec:	0000a1c0 	andeq	sl, r0, r0, asr #3
    80f0:	0000a218 	andeq	sl, r0, r8, lsl r2
    80f4:	0000a198 	muleq	r0, r8, r1
    80f8:	0000a1ac 	andeq	sl, r0, ip, lsr #3

000080fc <notmain>:
    80fc:	e92d4010 	push	{r4, lr}
    8100:	e59f0014 	ldr	r0, [pc, #20]	; 811c <notmain+0x20>
    8104:	eb0002cc 	bl	8c3c <printk>
    8108:	ebffffca 	bl	8038 <test>
    810c:	e1a01000 	mov	r1, r0
    8110:	e59f0008 	ldr	r0, [pc, #8]	; 8120 <notmain+0x24>
    8114:	eb0002c8 	bl	8c3c <printk>
    8118:	e8bd8010 	pop	{r4, pc}
    811c:	0000a1cc 	andeq	sl, r0, ip, asr #3
    8120:	0000a208 	andeq	sl, r0, r8, lsl #4

00008124 <ck_first_hdr>:
    8124:	e59f3004 	ldr	r3, [pc, #4]	; 8130 <ck_first_hdr+0xc>
    8128:	e5930000 	ldr	r0, [r3]
    812c:	e12fff1e 	bx	lr
    8130:	0000a9d0 	ldrdeq	sl, [r0], -r0

00008134 <ck_next_hdr>:
    8134:	e3500000 	cmp	r0, #0, 0
    8138:	012fff1e 	bxeq	lr
    813c:	e5900000 	ldr	r0, [r0]
    8140:	e12fff1e 	bx	lr

00008144 <list_remove>:
    8144:	e92d4030 	push	{r4, r5, lr}
    8148:	e24dd00c 	sub	sp, sp, #12, 0
    814c:	e2503000 	subs	r3, r0, #0, 0
    8150:	0a00000d 	beq	818c <list_remove+0x48>
    8154:	e1a04001 	mov	r4, r1
    8158:	e5930000 	ldr	r0, [r3]
    815c:	e1500001 	cmp	r0, r1
    8160:	0a000011 	beq	81ac <list_remove+0x68>
    8164:	e1a05000 	mov	r5, r0
    8168:	ebfffff1 	bl	8134 <ck_next_hdr>
    816c:	e3500000 	cmp	r0, #0, 0
    8170:	0a000010 	beq	81b8 <list_remove+0x74>
    8174:	e1540000 	cmp	r4, r0
    8178:	1afffff9 	bne	8164 <list_remove+0x20>
    817c:	e5903000 	ldr	r3, [r0]
    8180:	e5853000 	str	r3, [r5]
    8184:	e28dd00c 	add	sp, sp, #12, 0
    8188:	e8bd8030 	pop	{r4, r5, pc}
    818c:	e59f3040 	ldr	r3, [pc, #64]	; 81d4 <list_remove+0x90>
    8190:	e58d3000 	str	r3, [sp]
    8194:	e3a0303c 	mov	r3, #60, 0	; 0x3c
    8198:	e59f2038 	ldr	r2, [pc, #56]	; 81d8 <list_remove+0x94>
    819c:	e59f1038 	ldr	r1, [pc, #56]	; 81dc <list_remove+0x98>
    81a0:	e59f0038 	ldr	r0, [pc, #56]	; 81e0 <list_remove+0x9c>
    81a4:	eb0002a4 	bl	8c3c <printk>
    81a8:	eb000534 	bl	9680 <clean_reboot>
    81ac:	e5912000 	ldr	r2, [r1]
    81b0:	e5832000 	str	r2, [r3]
    81b4:	eafffff2 	b	8184 <list_remove+0x40>
    81b8:	e58d4000 	str	r4, [sp]
    81bc:	e3a0304f 	mov	r3, #79, 0	; 0x4f
    81c0:	e59f2010 	ldr	r2, [pc, #16]	; 81d8 <list_remove+0x94>
    81c4:	e59f1010 	ldr	r1, [pc, #16]	; 81dc <list_remove+0x98>
    81c8:	e59f0014 	ldr	r0, [pc, #20]	; 81e4 <list_remove+0xa0>
    81cc:	eb00029a 	bl	8c3c <printk>
    81d0:	eb00052a 	bl	9680 <clean_reboot>
    81d4:	0000a22c 	andeq	sl, r0, ip, lsr #4
    81d8:	0000a2f0 	strdeq	sl, [r0], -r0
    81dc:	0000a220 	andeq	sl, r0, r0, lsr #4
    81e0:	0000a1ac 	andeq	sl, r0, ip, lsr #3
    81e4:	0000a230 	andeq	sl, r0, r0, lsr r2

000081e8 <ck_hdr_start>:
    81e8:	e2800024 	add	r0, r0, #36, 0	; 0x24
    81ec:	e12fff1e 	bx	lr

000081f0 <ck_hdr_end>:
    81f0:	e92d4010 	push	{r4, lr}
    81f4:	e1a04000 	mov	r4, r0
    81f8:	ebfffffa 	bl	81e8 <ck_hdr_start>
    81fc:	e5943004 	ldr	r3, [r4, #4]
    8200:	e0800003 	add	r0, r0, r3
    8204:	e8bd8010 	pop	{r4, pc}

00008208 <ck_ptr_in_block>:
    8208:	e92d4070 	push	{r4, r5, r6, lr}
    820c:	e1a06000 	mov	r6, r0
    8210:	e1a04001 	mov	r4, r1
    8214:	ebfffff3 	bl	81e8 <ck_hdr_start>
    8218:	e1a05000 	mov	r5, r0
    821c:	e1a00006 	mov	r0, r6
    8220:	ebfffff2 	bl	81f0 <ck_hdr_end>
    8224:	e1550004 	cmp	r5, r4
    8228:	91540000 	cmpls	r4, r0
    822c:	33a00001 	movcc	r0, #1, 0
    8230:	23a00000 	movcs	r0, #0, 0
    8234:	e8bd8070 	pop	{r4, r5, r6, pc}

00008238 <ck_ptr_is_alloced>:
    8238:	e92d4070 	push	{r4, r5, r6, lr}
    823c:	e1a05000 	mov	r5, r0
    8240:	ebffffb7 	bl	8124 <ck_first_hdr>
    8244:	e1a04000 	mov	r4, r0
    8248:	e3540000 	cmp	r4, #0, 0
    824c:	0a00000c 	beq	8284 <ck_ptr_is_alloced+0x4c>
    8250:	e1a01005 	mov	r1, r5
    8254:	e1a00004 	mov	r0, r4
    8258:	ebffffea 	bl	8208 <ck_ptr_in_block>
    825c:	e3500000 	cmp	r0, #0, 0
    8260:	1a000003 	bne	8274 <ck_ptr_is_alloced+0x3c>
    8264:	e1a00004 	mov	r0, r4
    8268:	ebffffb1 	bl	8134 <ck_next_hdr>
    826c:	e1a04000 	mov	r4, r0
    8270:	eafffff4 	b	8248 <ck_ptr_is_alloced+0x10>
    8274:	e1a02004 	mov	r2, r4
    8278:	e1a01005 	mov	r1, r5
    827c:	e59f0008 	ldr	r0, [pc, #8]	; 828c <ck_ptr_is_alloced+0x54>
    8280:	eb00026d 	bl	8c3c <printk>
    8284:	e1a00004 	mov	r0, r4
    8288:	e8bd8070 	pop	{r4, r5, r6, pc}
    828c:	0000a25c 	andeq	sl, r0, ip, asr r2

00008290 <ckfree>:
    8290:	e92d41f0 	push	{r4, r5, r6, r7, r8, lr}
    8294:	e24dd018 	sub	sp, sp, #24, 0
    8298:	e1a04000 	mov	r4, r0
    829c:	e28d0018 	add	r0, sp, #24, 0
    82a0:	e900000e 	stmdb	r0, {r1, r2, r3}
    82a4:	e59d600c 	ldr	r6, [sp, #12]
    82a8:	e59d7010 	ldr	r7, [sp, #16]
    82ac:	e59d8014 	ldr	r8, [sp, #20]
    82b0:	e1a03008 	mov	r3, r8
    82b4:	e1a02007 	mov	r2, r7
    82b8:	e1a01006 	mov	r1, r6
    82bc:	e59f0094 	ldr	r0, [pc, #148]	; 8358 <ckfree+0xc8>
    82c0:	eb00025d 	bl	8c3c <printk>
    82c4:	e1a01004 	mov	r1, r4
    82c8:	e59f008c 	ldr	r0, [pc, #140]	; 835c <ckfree+0xcc>
    82cc:	eb00025a 	bl	8c3c <printk>
    82d0:	e514301c 	ldr	r3, [r4, #-28]	; 0xffffffe4
    82d4:	e353000b 	cmp	r3, #11, 0
    82d8:	1a00000d 	bne	8314 <ckfree+0x84>
    82dc:	e2445024 	sub	r5, r4, #36, 0	; 0x24
    82e0:	e3a0300c 	mov	r3, #12, 0
    82e4:	e504301c 	str	r3, [r4, #-28]	; 0xffffffe4
    82e8:	e1a00004 	mov	r0, r4
    82ec:	ebffffd1 	bl	8238 <ck_ptr_is_alloced>
    82f0:	e3500000 	cmp	r0, #0, 0
    82f4:	0a00000f 	beq	8338 <ckfree+0xa8>
    82f8:	e1a01005 	mov	r1, r5
    82fc:	e59f005c 	ldr	r0, [pc, #92]	; 8360 <ckfree+0xd0>
    8300:	ebffff8f 	bl	8144 <list_remove>
    8304:	e1a00005 	mov	r0, r5
    8308:	eb00003f 	bl	840c <kr_free>
    830c:	e28dd018 	add	sp, sp, #24, 0
    8310:	e8bd81f0 	pop	{r4, r5, r6, r7, r8, pc}
    8314:	e1a03008 	mov	r3, r8
    8318:	e1a02007 	mov	r2, r7
    831c:	e1a01006 	mov	r1, r6
    8320:	e59f003c 	ldr	r0, [pc, #60]	; 8364 <ckfree+0xd4>
    8324:	eb000244 	bl	8c3c <printk>
    8328:	e514101c 	ldr	r1, [r4, #-28]	; 0xffffffe4
    832c:	e59f0034 	ldr	r0, [pc, #52]	; 8368 <ckfree+0xd8>
    8330:	eb000241 	bl	8c3c <printk>
    8334:	eb0004d1 	bl	9680 <clean_reboot>
    8338:	e59f302c 	ldr	r3, [pc, #44]	; 836c <ckfree+0xdc>
    833c:	e58d3000 	str	r3, [sp]
    8340:	e3a0305d 	mov	r3, #93, 0	; 0x5d
    8344:	e59f2024 	ldr	r2, [pc, #36]	; 8370 <ckfree+0xe0>
    8348:	e59f1024 	ldr	r1, [pc, #36]	; 8374 <ckfree+0xe4>
    834c:	e59f0024 	ldr	r0, [pc, #36]	; 8378 <ckfree+0xe8>
    8350:	eb000239 	bl	8c3c <printk>
    8354:	eb0004c9 	bl	9680 <clean_reboot>
    8358:	0000a26c 	andeq	sl, r0, ip, ror #4
    835c:	0000a278 	andeq	sl, r0, r8, ror r2
    8360:	0000a9d0 	ldrdeq	sl, [r0], -r0
    8364:	0000a288 	andeq	sl, r0, r8, lsl #5
    8368:	0000a2a0 	andeq	sl, r0, r0, lsr #5
    836c:	0000a2c8 	andeq	sl, r0, r8, asr #5
    8370:	0000a2fc 	strdeq	sl, [r0], -ip
    8374:	0000a220 	andeq	sl, r0, r0, lsr #4
    8378:	0000a1ac 	andeq	sl, r0, ip, lsr #3

0000837c <ckalloc>:
    837c:	e92d4070 	push	{r4, r5, r6, lr}
    8380:	e24dd010 	sub	sp, sp, #16, 0
    8384:	e1a06000 	mov	r6, r0
    8388:	e28d5004 	add	r5, sp, #4, 0
    838c:	e885000e 	stm	r5, {r1, r2, r3}
    8390:	e2800024 	add	r0, r0, #36, 0	; 0x24
    8394:	eb00005c 	bl	850c <kr_malloc>
    8398:	e1a04000 	mov	r4, r0
    839c:	e3a02024 	mov	r2, #36, 0	; 0x24
    83a0:	e3a01000 	mov	r1, #0, 0
    83a4:	eb000206 	bl	8bc4 <memset>
    83a8:	e5846004 	str	r6, [r4, #4]
    83ac:	e3a0300b 	mov	r3, #11, 0
    83b0:	e5843008 	str	r3, [r4, #8]
    83b4:	e284300c 	add	r3, r4, #12, 0
    83b8:	e8950007 	ldm	r5, {r0, r1, r2}
    83bc:	e8830007 	stm	r3, {r0, r1, r2}
    83c0:	e59d300c 	ldr	r3, [sp, #12]
    83c4:	e59d2008 	ldr	r2, [sp, #8]
    83c8:	e59d1004 	ldr	r1, [sp, #4]
    83cc:	e59f002c 	ldr	r0, [pc, #44]	; 8400 <ckalloc+0x84>
    83d0:	eb000219 	bl	8c3c <printk>
    83d4:	e2845024 	add	r5, r4, #36, 0	; 0x24
    83d8:	e1a01005 	mov	r1, r5
    83dc:	e59f0020 	ldr	r0, [pc, #32]	; 8404 <ckalloc+0x88>
    83e0:	eb000215 	bl	8c3c <printk>
    83e4:	e59f301c 	ldr	r3, [pc, #28]	; 8408 <ckalloc+0x8c>
    83e8:	e5932000 	ldr	r2, [r3]
    83ec:	e5842000 	str	r2, [r4]
    83f0:	e5834000 	str	r4, [r3]
    83f4:	e1a00005 	mov	r0, r5
    83f8:	e28dd010 	add	sp, sp, #16, 0
    83fc:	e8bd8070 	pop	{r4, r5, r6, pc}
    8400:	0000a26c 	andeq	sl, r0, ip, ror #4
    8404:	0000a2e0 	andeq	sl, r0, r0, ror #5
    8408:	0000a9d0 	ldrdeq	sl, [r0], -r0

0000840c <kr_free>:
    840c:	e52de004 	push	{lr}		; (str lr, [sp, #-4]!)
    8410:	e2401008 	sub	r1, r0, #8, 0
    8414:	e59f30a8 	ldr	r3, [pc, #168]	; 84c4 <kr_free+0xb8>
    8418:	e5933000 	ldr	r3, [r3]
    841c:	ea000000 	b	8424 <kr_free+0x18>
    8420:	e1a03002 	mov	r3, r2
    8424:	e1530001 	cmp	r3, r1
    8428:	2a000002 	bcs	8438 <kr_free+0x2c>
    842c:	e5932000 	ldr	r2, [r3]
    8430:	e1520001 	cmp	r2, r1
    8434:	8a000007 	bhi	8458 <kr_free+0x4c>
    8438:	e5932000 	ldr	r2, [r3]
    843c:	e1520003 	cmp	r2, r3
    8440:	8afffff6 	bhi	8420 <kr_free+0x14>
    8444:	e1530001 	cmp	r3, r1
    8448:	3a000002 	bcc	8458 <kr_free+0x4c>
    844c:	e1520001 	cmp	r2, r1
    8450:	91a03002 	movls	r3, r2
    8454:	9afffff2 	bls	8424 <kr_free+0x18>
    8458:	e510c004 	ldr	ip, [r0, #-4]
    845c:	e081e18c 	add	lr, r1, ip, lsl #3
    8460:	e5932000 	ldr	r2, [r3]
    8464:	e15e0002 	cmp	lr, r2
    8468:	0a000008 	beq	8490 <kr_free+0x84>
    846c:	e5002008 	str	r2, [r0, #-8]
    8470:	e5932004 	ldr	r2, [r3, #4]
    8474:	e083c182 	add	ip, r3, r2, lsl #3
    8478:	e15c0001 	cmp	ip, r1
    847c:	0a00000a 	beq	84ac <kr_free+0xa0>
    8480:	e5831000 	str	r1, [r3]
    8484:	e59f2038 	ldr	r2, [pc, #56]	; 84c4 <kr_free+0xb8>
    8488:	e5823000 	str	r3, [r2]
    848c:	e49df004 	pop	{pc}		; (ldr pc, [sp], #4)
    8490:	e5922004 	ldr	r2, [r2, #4]
    8494:	e08cc002 	add	ip, ip, r2
    8498:	e500c004 	str	ip, [r0, #-4]
    849c:	e5932000 	ldr	r2, [r3]
    84a0:	e5922000 	ldr	r2, [r2]
    84a4:	e5002008 	str	r2, [r0, #-8]
    84a8:	eafffff0 	b	8470 <kr_free+0x64>
    84ac:	e5101004 	ldr	r1, [r0, #-4]
    84b0:	e0822001 	add	r2, r2, r1
    84b4:	e5832004 	str	r2, [r3, #4]
    84b8:	e5102008 	ldr	r2, [r0, #-8]
    84bc:	e5832000 	str	r2, [r3]
    84c0:	eaffffef 	b	8484 <kr_free+0x78>
    84c4:	0000a9d8 	ldrdeq	sl, [r0], -r8

000084c8 <morecore>:
    84c8:	e92d4010 	push	{r4, lr}
    84cc:	e1a04000 	mov	r4, r0
    84d0:	e3500b01 	cmp	r0, #1024	; 0x400
    84d4:	33a04b01 	movcc	r4, #1024	; 0x400
    84d8:	e1a00184 	lsl	r0, r4, #3
    84dc:	eb00014f 	bl	8a20 <sbrk>
    84e0:	e3700001 	cmn	r0, #1, 0
    84e4:	0a000005 	beq	8500 <morecore+0x38>
    84e8:	e5804004 	str	r4, [r0, #4]
    84ec:	e2800008 	add	r0, r0, #8, 0
    84f0:	ebffffc5 	bl	840c <kr_free>
    84f4:	e59f300c 	ldr	r3, [pc, #12]	; 8508 <morecore+0x40>
    84f8:	e5930000 	ldr	r0, [r3]
    84fc:	e8bd8010 	pop	{r4, pc}
    8500:	e3a00000 	mov	r0, #0, 0
    8504:	e8bd8010 	pop	{r4, pc}
    8508:	0000a9d8 	ldrdeq	sl, [r0], -r8

0000850c <kr_malloc>:
    850c:	e92d4010 	push	{r4, lr}
    8510:	e2804007 	add	r4, r0, #7, 0
    8514:	e1a041a4 	lsr	r4, r4, #3
    8518:	e2844001 	add	r4, r4, #1, 0
    851c:	e59f3090 	ldr	r3, [pc, #144]	; 85b4 <kr_malloc+0xa8>
    8520:	e5932000 	ldr	r2, [r3]
    8524:	e3520000 	cmp	r2, #0, 0
    8528:	0a000001 	beq	8534 <kr_malloc+0x28>
    852c:	e5920000 	ldr	r0, [r2]
    8530:	ea000013 	b	8584 <kr_malloc+0x78>
    8534:	e2832008 	add	r2, r3, #8, 0
    8538:	e5832000 	str	r2, [r3]
    853c:	e5832008 	str	r2, [r3, #8]
    8540:	e3a01000 	mov	r1, #0, 0
    8544:	e583100c 	str	r1, [r3, #12]
    8548:	eafffff7 	b	852c <kr_malloc+0x20>
    854c:	0a000007 	beq	8570 <kr_malloc+0x64>
    8550:	e0433004 	sub	r3, r3, r4
    8554:	e5803004 	str	r3, [r0, #4]
    8558:	e0800183 	add	r0, r0, r3, lsl #3
    855c:	e5804004 	str	r4, [r0, #4]
    8560:	e59f304c 	ldr	r3, [pc, #76]	; 85b4 <kr_malloc+0xa8>
    8564:	e5832000 	str	r2, [r3]
    8568:	e2800008 	add	r0, r0, #8, 0
    856c:	e8bd8010 	pop	{r4, pc}
    8570:	e5903000 	ldr	r3, [r0]
    8574:	e5823000 	str	r3, [r2]
    8578:	eafffff8 	b	8560 <kr_malloc+0x54>
    857c:	e1a02000 	mov	r2, r0
    8580:	e5900000 	ldr	r0, [r0]
    8584:	e5903004 	ldr	r3, [r0, #4]
    8588:	e1530004 	cmp	r3, r4
    858c:	2affffee 	bcs	854c <kr_malloc+0x40>
    8590:	e59f301c 	ldr	r3, [pc, #28]	; 85b4 <kr_malloc+0xa8>
    8594:	e5933000 	ldr	r3, [r3]
    8598:	e1530000 	cmp	r3, r0
    859c:	1afffff6 	bne	857c <kr_malloc+0x70>
    85a0:	e1a00004 	mov	r0, r4
    85a4:	ebffffc7 	bl	84c8 <morecore>
    85a8:	e3500000 	cmp	r0, #0, 0
    85ac:	1afffff2 	bne	857c <kr_malloc+0x70>
    85b0:	e8bd8010 	pop	{r4, pc}
    85b4:	0000a9d8 	ldrdeq	sl, [r0], -r8

000085b8 <in_heap>:
    85b8:	e59f3030 	ldr	r3, [pc, #48]	; 85f0 <in_heap+0x38>
    85bc:	e5933000 	ldr	r3, [r3]
    85c0:	e1530000 	cmp	r3, r0
    85c4:	8a000005 	bhi	85e0 <in_heap+0x28>
    85c8:	e59f3020 	ldr	r3, [pc, #32]	; 85f0 <in_heap+0x38>
    85cc:	e5933004 	ldr	r3, [r3, #4]
    85d0:	e1530000 	cmp	r3, r0
    85d4:	9a000003 	bls	85e8 <in_heap+0x30>
    85d8:	e3a00001 	mov	r0, #1, 0
    85dc:	e12fff1e 	bx	lr
    85e0:	e3a00000 	mov	r0, #0, 0
    85e4:	e12fff1e 	bx	lr
    85e8:	e3a00000 	mov	r0, #0, 0
    85ec:	e12fff1e 	bx	lr
    85f0:	0000a9e8 	andeq	sl, r0, r8, ror #19

000085f4 <is_ptr>:
    85f4:	e92d4010 	push	{r4, lr}
    85f8:	e1a04000 	mov	r4, r0
    85fc:	ebffffed 	bl	85b8 <in_heap>
    8600:	e3500000 	cmp	r0, #0, 0
    8604:	0a000002 	beq	8614 <is_ptr+0x20>
    8608:	e1a00004 	mov	r0, r4
    860c:	ebffff09 	bl	8238 <ck_ptr_is_alloced>
    8610:	e8bd8010 	pop	{r4, pc}
    8614:	e3a00000 	mov	r0, #0, 0
    8618:	e8bd8010 	pop	{r4, pc}

0000861c <mark>:
    861c:	e92d41f0 	push	{r4, r5, r6, r7, r8, lr}
    8620:	e24dd008 	sub	sp, sp, #8, 0
    8624:	e1500001 	cmp	r0, r1
    8628:	2a00000d 	bcs	8664 <mark+0x48>
    862c:	e1a04000 	mov	r4, r0
    8630:	e1a06001 	mov	r6, r1
    8634:	e3100003 	tst	r0, #3, 0
    8638:	1a000011 	bne	8684 <mark+0x68>
    863c:	e3110003 	tst	r1, #3, 0
    8640:	0a00001f 	beq	86c4 <mark+0xa8>
    8644:	e59f3114 	ldr	r3, [pc, #276]	; 8760 <mark+0x144>
    8648:	e58d3000 	str	r3, [sp]
    864c:	e3a03056 	mov	r3, #86, 0	; 0x56
    8650:	e59f210c 	ldr	r2, [pc, #268]	; 8764 <mark+0x148>
    8654:	e59f110c 	ldr	r1, [pc, #268]	; 8768 <mark+0x14c>
    8658:	e59f010c 	ldr	r0, [pc, #268]	; 876c <mark+0x150>
    865c:	eb000176 	bl	8c3c <printk>
    8660:	eb000406 	bl	9680 <clean_reboot>
    8664:	e59f3104 	ldr	r3, [pc, #260]	; 8770 <mark+0x154>
    8668:	e58d3000 	str	r3, [sp]
    866c:	e3a03052 	mov	r3, #82, 0	; 0x52
    8670:	e59f20ec 	ldr	r2, [pc, #236]	; 8764 <mark+0x148>
    8674:	e59f10ec 	ldr	r1, [pc, #236]	; 8768 <mark+0x14c>
    8678:	e59f00ec 	ldr	r0, [pc, #236]	; 876c <mark+0x150>
    867c:	eb00016e 	bl	8c3c <printk>
    8680:	eb0003fe 	bl	9680 <clean_reboot>
    8684:	e59f30e8 	ldr	r3, [pc, #232]	; 8774 <mark+0x158>
    8688:	e58d3000 	str	r3, [sp]
    868c:	e3a03055 	mov	r3, #85, 0	; 0x55
    8690:	e59f20cc 	ldr	r2, [pc, #204]	; 8764 <mark+0x148>
    8694:	e59f10cc 	ldr	r1, [pc, #204]	; 8768 <mark+0x14c>
    8698:	e59f00cc 	ldr	r0, [pc, #204]	; 876c <mark+0x150>
    869c:	eb000166 	bl	8c3c <printk>
    86a0:	eb0003f6 	bl	9680 <clean_reboot>
    86a4:	e3a03002 	mov	r3, #2, 0
    86a8:	ea00001b 	b	871c <mark+0x100>
    86ac:	e3a01002 	mov	r1, #2, 0
    86b0:	e59f00c0 	ldr	r0, [pc, #192]	; 8778 <mark+0x15c>
    86b4:	eb000160 	bl	8c3c <printk>
    86b8:	e3580000 	cmp	r8, #0, 0
    86bc:	0a00001c 	beq	8734 <mark+0x118>
    86c0:	e2844004 	add	r4, r4, #4, 0
    86c4:	e1540006 	cmp	r4, r6
    86c8:	8a000022 	bhi	8758 <mark+0x13c>
    86cc:	e5940000 	ldr	r0, [r4]
    86d0:	ebffffc7 	bl	85f4 <is_ptr>
    86d4:	e2505000 	subs	r5, r0, #0, 0
    86d8:	0afffff8 	beq	86c0 <mark+0xa4>
    86dc:	e2857024 	add	r7, r5, #36, 0	; 0x24
    86e0:	e1d582b0 	ldrh	r8, [r5, #32]
    86e4:	e1a00005 	mov	r0, r5
    86e8:	ebfffebe 	bl	81e8 <ck_hdr_start>
    86ec:	e1a01000 	mov	r1, r0
    86f0:	e58d7000 	str	r7, [sp]
    86f4:	e5943000 	ldr	r3, [r4]
    86f8:	e1a02004 	mov	r2, r4
    86fc:	e59f0078 	ldr	r0, [pc, #120]	; 877c <mark+0x160>
    8700:	eb00014d 	bl	8c3c <printk>
    8704:	e3580001 	cmp	r8, #1, 0
    8708:	8a00000f 	bhi	874c <mark+0x130>
    870c:	e5943000 	ldr	r3, [r4]
    8710:	e1530007 	cmp	r3, r7
    8714:	0affffe2 	beq	86a4 <mark+0x88>
    8718:	e3a03001 	mov	r3, #1, 0
    871c:	e1c532b0 	strh	r3, [r5, #32]
    8720:	e5943000 	ldr	r3, [r4]
    8724:	e1530007 	cmp	r3, r7
    8728:	0affffdf 	beq	86ac <mark+0x90>
    872c:	e3a01001 	mov	r1, #1, 0
    8730:	eaffffde 	b	86b0 <mark+0x94>
    8734:	e5951004 	ldr	r1, [r5, #4]
    8738:	e2811024 	add	r1, r1, #36, 0	; 0x24
    873c:	e0851001 	add	r1, r5, r1
    8740:	e2850004 	add	r0, r5, #4, 0
    8744:	ebffffb4 	bl	861c <mark>
    8748:	eaffffdc 	b	86c0 <mark+0xa4>
    874c:	e59f002c 	ldr	r0, [pc, #44]	; 8780 <mark+0x164>
    8750:	eb000139 	bl	8c3c <printk>
    8754:	eaffffd9 	b	86c0 <mark+0xa4>
    8758:	e28dd008 	add	sp, sp, #8, 0
    875c:	e8bd81f0 	pop	{r4, r5, r6, r7, r8, pc}
    8760:	0000a324 	andeq	sl, r0, r4, lsr #6
    8764:	0000a5fc 	strdeq	sl, [r0], -ip
    8768:	0000a304 	andeq	sl, r0, r4, lsl #6
    876c:	0000a1ac 	andeq	sl, r0, ip, lsr #3
    8770:	0000a30c 	andeq	sl, r0, ip, lsl #6
    8774:	0000a314 	andeq	sl, r0, r4, lsl r3
    8778:	0000a360 	andeq	sl, r0, r0, ror #6
    877c:	0000a334 	andeq	sl, r0, r4, lsr r3
    8780:	0000a370 	andeq	sl, r0, r0, ror r3

00008784 <mark_all>:
    8784:	e52de004 	push	{lr}		; (str lr, [sp, #-4]!)
    8788:	e24dd044 	sub	sp, sp, #68, 0	; 0x44
    878c:	ebfffe64 	bl	8124 <ck_first_hdr>
    8790:	e3500000 	cmp	r0, #0, 0
    8794:	0a000005 	beq	87b0 <mark_all+0x2c>
    8798:	e3a03000 	mov	r3, #0, 0
    879c:	e580301c 	str	r3, [r0, #28]
    87a0:	e5803018 	str	r3, [r0, #24]
    87a4:	e1c032b0 	strh	r3, [r0, #32]
    87a8:	ebfffe61 	bl	8134 <ck_next_hdr>
    87ac:	eafffff7 	b	8790 <mark_all+0xc>
    87b0:	e1a0000d 	mov	r0, sp
    87b4:	eb000100 	bl	8bbc <dump_regs>
    87b8:	e3a03000 	mov	r3, #0, 0
    87bc:	e58d3000 	str	r3, [sp]
    87c0:	e58d3004 	str	r3, [sp, #4]
    87c4:	e58d3008 	str	r3, [sp, #8]
    87c8:	e58d300c 	str	r3, [sp, #12]
    87cc:	e28d1038 	add	r1, sp, #56, 0	; 0x38
    87d0:	e1a0000d 	mov	r0, sp
    87d4:	ebffff90 	bl	861c <mark>
    87d8:	e3a02302 	mov	r2, #134217728	; 0x8000000
    87dc:	e59d1034 	ldr	r1, [sp, #52]	; 0x34
    87e0:	e59f002c 	ldr	r0, [pc, #44]	; 8814 <mark_all+0x90>
    87e4:	eb000114 	bl	8c3c <printk>
    87e8:	e3a01302 	mov	r1, #134217728	; 0x8000000
    87ec:	e59d0034 	ldr	r0, [sp, #52]	; 0x34
    87f0:	ebffff89 	bl	861c <mark>
    87f4:	e59f101c 	ldr	r1, [pc, #28]	; 8818 <mark_all+0x94>
    87f8:	e59f001c 	ldr	r0, [pc, #28]	; 881c <mark_all+0x98>
    87fc:	ebffff86 	bl	861c <mark>
    8800:	e59f1018 	ldr	r1, [pc, #24]	; 8820 <mark_all+0x9c>
    8804:	e59f0018 	ldr	r0, [pc, #24]	; 8824 <mark_all+0xa0>
    8808:	ebffff83 	bl	861c <mark>
    880c:	e28dd044 	add	sp, sp, #68, 0	; 0x44
    8810:	e49df004 	pop	{pc}		; (ldr pc, [sp], #4)
    8814:	0000a380 	andeq	sl, r0, r0, lsl #7
    8818:	0000adf8 	strdeq	sl, [r0], -r8
    881c:	0000a9d0 	ldrdeq	sl, [r0], -r0
    8820:	0000a9cc 	andeq	sl, r0, ip, asr #19
    8824:	0000a9b8 			; <UNDEFINED> instruction: 0x0000a9b8

00008828 <sweep_leak>:
    8828:	e92d41f0 	push	{r4, r5, r6, r7, r8, lr}
    882c:	e1a08000 	mov	r8, r0
    8830:	e59f00dc 	ldr	r0, [pc, #220]	; 8914 <sweep_leak+0xec>
    8834:	eb000100 	bl	8c3c <printk>
    8838:	e59f00d8 	ldr	r0, [pc, #216]	; 8918 <sweep_leak+0xf0>
    883c:	eb0000fe 	bl	8c3c <printk>
    8840:	ebffffcf 	bl	8784 <mark_all>
    8844:	ebfffe36 	bl	8124 <ck_first_hdr>
    8848:	e1a04000 	mov	r4, r0
    884c:	e3a07000 	mov	r7, #0, 0
    8850:	e1a06007 	mov	r6, r7
    8854:	e1a05007 	mov	r5, r7
    8858:	ea000007 	b	887c <sweep_leak+0x54>
    885c:	e2866001 	add	r6, r6, #1, 0
    8860:	e1a02004 	mov	r2, r4
    8864:	e1a01005 	mov	r1, r5
    8868:	e59f00ac 	ldr	r0, [pc, #172]	; 891c <sweep_leak+0xf4>
    886c:	eb0000f2 	bl	8c3c <printk>
    8870:	e1a00004 	mov	r0, r4
    8874:	ebfffe2e 	bl	8134 <ck_next_hdr>
    8878:	e1a04000 	mov	r4, r0
    887c:	e3540000 	cmp	r4, #0, 0
    8880:	0a00000b 	beq	88b4 <sweep_leak+0x8c>
    8884:	e2855001 	add	r5, r5, #1, 0
    8888:	e1d432b0 	ldrh	r3, [r4, #32]
    888c:	e3530000 	cmp	r3, #0, 0
    8890:	0afffff1 	beq	885c <sweep_leak+0x34>
    8894:	e3530001 	cmp	r3, #1, 0
    8898:	1afffff4 	bne	8870 <sweep_leak+0x48>
    889c:	e2877001 	add	r7, r7, #1, 0
    88a0:	e1a02004 	mov	r2, r4
    88a4:	e1a01005 	mov	r1, r5
    88a8:	e59f0070 	ldr	r0, [pc, #112]	; 8920 <sweep_leak+0xf8>
    88ac:	eb0000e2 	bl	8c3c <printk>
    88b0:	eaffffee 	b	8870 <sweep_leak+0x48>
    88b4:	e59f0068 	ldr	r0, [pc, #104]	; 8924 <sweep_leak+0xfc>
    88b8:	eb0000df 	bl	8c3c <printk>
    88bc:	e1a01005 	mov	r1, r5
    88c0:	e59f0060 	ldr	r0, [pc, #96]	; 8928 <sweep_leak+0x100>
    88c4:	eb0000dc 	bl	8c3c <printk>
    88c8:	e1963007 	orrs	r3, r6, r7
    88cc:	1a000009 	bne	88f8 <sweep_leak+0xd0>
    88d0:	e59f004c 	ldr	r0, [pc, #76]	; 8924 <sweep_leak+0xfc>
    88d4:	eb0000d8 	bl	8c3c <printk>
    88d8:	e59f004c 	ldr	r0, [pc, #76]	; 892c <sweep_leak+0x104>
    88dc:	eb0000d6 	bl	8c3c <printk>
    88e0:	e59f0048 	ldr	r0, [pc, #72]	; 8930 <sweep_leak+0x108>
    88e4:	eb0000d4 	bl	8c3c <printk>
    88e8:	e3580000 	cmp	r8, #0, 0
    88ec:	10866007 	addne	r6, r6, r7
    88f0:	e1a00006 	mov	r0, r6
    88f4:	e8bd81f0 	pop	{r4, r5, r6, r7, r8, pc}
    88f8:	e59f0024 	ldr	r0, [pc, #36]	; 8924 <sweep_leak+0xfc>
    88fc:	eb0000ce 	bl	8c3c <printk>
    8900:	e1a02007 	mov	r2, r7
    8904:	e1a01006 	mov	r1, r6
    8908:	e59f0024 	ldr	r0, [pc, #36]	; 8934 <sweep_leak+0x10c>
    890c:	eb0000ca 	bl	8c3c <printk>
    8910:	eafffff2 	b	88e0 <sweep_leak+0xb8>
    8914:	0000a39c 	muleq	r0, ip, r3
    8918:	0000a3d8 	ldrdeq	sl, [r0], -r8
    891c:	0000a3f0 	strdeq	sl, [r0], -r0
    8920:	0000a404 	andeq	sl, r0, r4, lsl #8
    8924:	0000a41c 	andeq	sl, r0, ip, lsl r4
    8928:	0000a424 	andeq	sl, r0, r4, lsr #8
    892c:	0000a43c 	andeq	sl, r0, ip, lsr r4
    8930:	0000a488 	andeq	sl, r0, r8, lsl #9
    8934:	0000a45c 	andeq	sl, r0, ip, asr r4

00008938 <sweep_free>:
    8938:	e92d41f0 	push	{r4, r5, r6, r7, r8, lr}
    893c:	e24dd010 	sub	sp, sp, #16, 0
    8940:	e59f00b8 	ldr	r0, [pc, #184]	; 8a00 <sweep_free+0xc8>
    8944:	eb0000bc 	bl	8c3c <printk>
    8948:	e59f00b4 	ldr	r0, [pc, #180]	; 8a04 <sweep_free+0xcc>
    894c:	eb0000ba 	bl	8c3c <printk>
    8950:	ebffff8b 	bl	8784 <mark_all>
    8954:	ebfffdf2 	bl	8124 <ck_first_hdr>
    8958:	e1a04000 	mov	r4, r0
    895c:	e3a07000 	mov	r7, #0, 0
    8960:	e1a08007 	mov	r8, r7
    8964:	e1a05007 	mov	r5, r7
    8968:	ea000013 	b	89bc <sweep_free+0x84>
    896c:	e2888001 	add	r8, r8, #1, 0
    8970:	e5943004 	ldr	r3, [r4, #4]
    8974:	e0877003 	add	r7, r7, r3
    8978:	e2846024 	add	r6, r4, #36, 0	; 0x24
    897c:	e59f3084 	ldr	r3, [pc, #132]	; 8a08 <sweep_free+0xd0>
    8980:	e58d3004 	str	r3, [sp, #4]
    8984:	e59f3080 	ldr	r3, [pc, #128]	; 8a0c <sweep_free+0xd4>
    8988:	e58d3008 	str	r3, [sp, #8]
    898c:	e59f307c 	ldr	r3, [pc, #124]	; 8a10 <sweep_free+0xd8>
    8990:	e58d300c 	str	r3, [sp, #12]
    8994:	e28d3010 	add	r3, sp, #16, 0
    8998:	e913000e 	ldmdb	r3, {r1, r2, r3}
    899c:	e1a00006 	mov	r0, r6
    89a0:	ebfffe3a 	bl	8290 <ckfree>
    89a4:	e1a01006 	mov	r1, r6
    89a8:	e59f0064 	ldr	r0, [pc, #100]	; 8a14 <sweep_free+0xdc>
    89ac:	eb0000a2 	bl	8c3c <printk>
    89b0:	e1a00004 	mov	r0, r4
    89b4:	ebfffdde 	bl	8134 <ck_next_hdr>
    89b8:	e1a04000 	mov	r4, r0
    89bc:	e3540000 	cmp	r4, #0, 0
    89c0:	0a000004 	beq	89d8 <sweep_free+0xa0>
    89c4:	e2855001 	add	r5, r5, #1, 0
    89c8:	e1d432b0 	ldrh	r3, [r4, #32]
    89cc:	e3530000 	cmp	r3, #0, 0
    89d0:	1afffff6 	bne	89b0 <sweep_free+0x78>
    89d4:	eaffffe4 	b	896c <sweep_free+0x34>
    89d8:	e59f0038 	ldr	r0, [pc, #56]	; 8a18 <sweep_free+0xe0>
    89dc:	eb000096 	bl	8c3c <printk>
    89e0:	e1a03007 	mov	r3, r7
    89e4:	e1a02008 	mov	r2, r8
    89e8:	e1a01005 	mov	r1, r5
    89ec:	e59f0028 	ldr	r0, [pc, #40]	; 8a1c <sweep_free+0xe4>
    89f0:	eb000091 	bl	8c3c <printk>
    89f4:	e1a00007 	mov	r0, r7
    89f8:	e28dd010 	add	sp, sp, #16, 0
    89fc:	e8bd81f0 	pop	{r4, r5, r6, r7, r8, pc}
    8a00:	0000a39c 	muleq	r0, ip, r3
    8a04:	0000a4c4 	andeq	sl, r0, r4, asr #9
    8a08:	0000a304 	andeq	sl, r0, r4, lsl #6
    8a0c:	0000a604 	andeq	sl, r0, r4, lsl #12
    8a10:	00000101 	andeq	r0, r0, r1, lsl #2
    8a14:	0000a4d4 	ldrdeq	sl, [r0], -r4
    8a18:	0000a41c 	andeq	sl, r0, ip, lsl r4
    8a1c:	0000a4e4 	andeq	sl, r0, r4, ror #9

00008a20 <sbrk>:
    8a20:	e92d4030 	push	{r4, r5, lr}
    8a24:	e24dd00c 	sub	sp, sp, #12, 0
    8a28:	e2504000 	subs	r4, r0, #0, 0
    8a2c:	da000010 	ble	8a74 <sbrk+0x54>
    8a30:	e59f3074 	ldr	r3, [pc, #116]	; 8aac <sbrk+0x8c>
    8a34:	e5933008 	ldr	r3, [r3, #8]
    8a38:	e3530000 	cmp	r3, #0, 0
    8a3c:	1a000014 	bne	8a94 <sbrk+0x74>
    8a40:	e59f5064 	ldr	r5, [pc, #100]	; 8aac <sbrk+0x8c>
    8a44:	e3a00601 	mov	r0, #1048576	; 0x100000
    8a48:	e5850000 	str	r0, [r5]
    8a4c:	e3a03602 	mov	r3, #2097152	; 0x200000
    8a50:	e5853004 	str	r3, [r5, #4]
    8a54:	e1a01000 	mov	r1, r0
    8a58:	eb000444 	bl	9b70 <kmalloc_init_set_start>
    8a5c:	e3a03001 	mov	r3, #1, 0
    8a60:	e5853008 	str	r3, [r5, #8]
    8a64:	e1a00004 	mov	r0, r4
    8a68:	eb0004a3 	bl	9cfc <kmalloc>
    8a6c:	e28dd00c 	add	sp, sp, #12, 0
    8a70:	e8bd8030 	pop	{r4, r5, pc}
    8a74:	e59f3034 	ldr	r3, [pc, #52]	; 8ab0 <sbrk+0x90>
    8a78:	e58d3000 	str	r3, [sp]
    8a7c:	e3a03017 	mov	r3, #23, 0
    8a80:	e59f202c 	ldr	r2, [pc, #44]	; 8ab4 <sbrk+0x94>
    8a84:	e59f102c 	ldr	r1, [pc, #44]	; 8ab8 <sbrk+0x98>
    8a88:	e59f002c 	ldr	r0, [pc, #44]	; 8abc <sbrk+0x9c>
    8a8c:	eb00006a 	bl	8c3c <printk>
    8a90:	eb0002fa 	bl	9680 <clean_reboot>
    8a94:	e3a03019 	mov	r3, #25, 0
    8a98:	e59f2014 	ldr	r2, [pc, #20]	; 8ab4 <sbrk+0x94>
    8a9c:	e59f1014 	ldr	r1, [pc, #20]	; 8ab8 <sbrk+0x98>
    8aa0:	e59f0018 	ldr	r0, [pc, #24]	; 8ac0 <sbrk+0xa0>
    8aa4:	eb000064 	bl	8c3c <printk>
    8aa8:	eb0002f4 	bl	9680 <clean_reboot>
    8aac:	0000a9e8 	andeq	sl, r0, r8, ror #19
    8ab0:	0000a510 	andeq	sl, r0, r0, lsl r5
    8ab4:	0000a610 	andeq	sl, r0, r0, lsl r6
    8ab8:	0000a304 	andeq	sl, r0, r4, lsl #6
    8abc:	0000a1ac 	andeq	sl, r0, ip, lsr #3
    8ac0:	0000a520 	andeq	sl, r0, r0, lsr #10

00008ac4 <ck_find_leaks>:
    8ac4:	e92d4010 	push	{r4, lr}
    8ac8:	ebffff56 	bl	8828 <sweep_leak>
    8acc:	e8bd8010 	pop	{r4, pc}

00008ad0 <check_no_leak>:
    8ad0:	e92d4010 	push	{r4, lr}
    8ad4:	e3a00001 	mov	r0, #1, 0
    8ad8:	ebfffff9 	bl	8ac4 <ck_find_leaks>
    8adc:	e3500000 	cmp	r0, #0, 0
    8ae0:	1a000004 	bne	8af8 <check_no_leak+0x28>
    8ae4:	e59f0024 	ldr	r0, [pc, #36]	; 8b10 <check_no_leak+0x40>
    8ae8:	eb000053 	bl	8c3c <printk>
    8aec:	e59f0020 	ldr	r0, [pc, #32]	; 8b14 <check_no_leak+0x44>
    8af0:	eb000051 	bl	8c3c <printk>
    8af4:	e8bd8010 	pop	{r4, pc}
    8af8:	e3a030dc 	mov	r3, #220, 0	; 0xdc
    8afc:	e59f2014 	ldr	r2, [pc, #20]	; 8b18 <check_no_leak+0x48>
    8b00:	e59f1014 	ldr	r1, [pc, #20]	; 8b1c <check_no_leak+0x4c>
    8b04:	e59f0014 	ldr	r0, [pc, #20]	; 8b20 <check_no_leak+0x50>
    8b08:	eb00004b 	bl	8c3c <printk>
    8b0c:	eb0002db 	bl	9680 <clean_reboot>
    8b10:	0000a41c 	andeq	sl, r0, ip, lsl r4
    8b14:	0000a56c 	andeq	sl, r0, ip, ror #10
    8b18:	0000a618 	andeq	sl, r0, r8, lsl r6
    8b1c:	0000a304 	andeq	sl, r0, r4, lsl #6
    8b20:	0000a540 	andeq	sl, r0, r0, asr #10

00008b24 <check_should_leak>:
    8b24:	e92d4010 	push	{r4, lr}
    8b28:	e3a00001 	mov	r0, #1, 0
    8b2c:	ebffffe4 	bl	8ac4 <ck_find_leaks>
    8b30:	e2504000 	subs	r4, r0, #0, 0
    8b34:	0a000006 	beq	8b54 <check_should_leak+0x30>
    8b38:	e59f002c 	ldr	r0, [pc, #44]	; 8b6c <check_should_leak+0x48>
    8b3c:	eb00003e 	bl	8c3c <printk>
    8b40:	e1a01004 	mov	r1, r4
    8b44:	e59f0024 	ldr	r0, [pc, #36]	; 8b70 <check_should_leak+0x4c>
    8b48:	eb00003b 	bl	8c3c <printk>
    8b4c:	e1a00004 	mov	r0, r4
    8b50:	e8bd8010 	pop	{r4, pc}
    8b54:	e3a030eb 	mov	r3, #235, 0	; 0xeb
    8b58:	e59f2014 	ldr	r2, [pc, #20]	; 8b74 <check_should_leak+0x50>
    8b5c:	e59f1014 	ldr	r1, [pc, #20]	; 8b78 <check_should_leak+0x54>
    8b60:	e59f0014 	ldr	r0, [pc, #20]	; 8b7c <check_should_leak+0x58>
    8b64:	eb000034 	bl	8c3c <printk>
    8b68:	eb0002c4 	bl	9680 <clean_reboot>
    8b6c:	0000a41c 	andeq	sl, r0, ip, lsl r4
    8b70:	0000a5ac 	andeq	sl, r0, ip, lsr #11
    8b74:	0000a628 	andeq	sl, r0, r8, lsr #12
    8b78:	0000a304 	andeq	sl, r0, r4, lsl #6
    8b7c:	0000a584 	andeq	sl, r0, r4, lsl #11

00008b80 <ck_gc>:
    8b80:	e92d4010 	push	{r4, lr}
    8b84:	ebfffefe 	bl	8784 <mark_all>
    8b88:	ebffff6a 	bl	8938 <sweep_free>
    8b8c:	e8bd8010 	pop	{r4, pc}

00008b90 <implement_this>:
    8b90:	e92d4010 	push	{r4, lr}
    8b94:	e59f3010 	ldr	r3, [pc, #16]	; 8bac <implement_this+0x1c>
    8b98:	e59f2010 	ldr	r2, [pc, #16]	; 8bb0 <implement_this+0x20>
    8b9c:	e59f1010 	ldr	r1, [pc, #16]	; 8bb4 <implement_this+0x24>
    8ba0:	e59f0010 	ldr	r0, [pc, #16]	; 8bb8 <implement_this+0x28>
    8ba4:	eb000024 	bl	8c3c <printk>
    8ba8:	eb0002b4 	bl	9680 <clean_reboot>
    8bac:	00000117 	andeq	r0, r0, r7, lsl r1
    8bb0:	0000a63c 	andeq	sl, r0, ip, lsr r6
    8bb4:	0000a304 	andeq	sl, r0, r4, lsl #6
    8bb8:	0000a5cc 	andeq	sl, r0, ip, asr #11

00008bbc <dump_regs>:
    8bbc:	e8a0ffff 	stmia	r0!, {r0, r1, r2, r3, r4, r5, r6, r7, r8, r9, sl, fp, ip, sp, lr, pc}
    8bc0:	e12fff1e 	bx	lr

00008bc4 <memset>:
    8bc4:	e92d4010 	push	{r4, lr}
    8bc8:	e0804002 	add	r4, r0, r2
    8bcc:	e1500004 	cmp	r0, r4
    8bd0:	28bd8010 	popcs	{r4, pc}
    8bd4:	e2423001 	sub	r3, r2, #1, 0
    8bd8:	e3530002 	cmp	r3, #2, 0
    8bdc:	e6ef1071 	uxtb	r1, r1
    8be0:	e1a03000 	mov	r3, r0
    8be4:	9a00000b 	bls	8c18 <memset+0x54>
    8be8:	e181e401 	orr	lr, r1, r1, lsl #8
    8bec:	e18ee801 	orr	lr, lr, r1, lsl #16
    8bf0:	e3c2c003 	bic	ip, r2, #3, 0
    8bf4:	e18eec01 	orr	lr, lr, r1, lsl #24
    8bf8:	e08cc000 	add	ip, ip, r0
    8bfc:	e483e004 	str	lr, [r3], #4
    8c00:	e153000c 	cmp	r3, ip
    8c04:	1afffffc 	bne	8bfc <memset+0x38>
    8c08:	e3c23003 	bic	r3, r2, #3, 0
    8c0c:	e1520003 	cmp	r2, r3
    8c10:	e0803003 	add	r3, r0, r3
    8c14:	08bd8010 	popeq	{r4, pc}
    8c18:	e1a02003 	mov	r2, r3
    8c1c:	e4c21001 	strb	r1, [r2], #1
    8c20:	e1540002 	cmp	r4, r2
    8c24:	98bd8010 	popls	{r4, pc}
    8c28:	e2832002 	add	r2, r3, #2, 0
    8c2c:	e1540002 	cmp	r4, r2
    8c30:	e5c31001 	strb	r1, [r3, #1]
    8c34:	85c31002 	strbhi	r1, [r3, #2]
    8c38:	e8bd8010 	pop	{r4, pc}

00008c3c <printk>:
    8c3c:	e92d000f 	push	{r0, r1, r2, r3}
    8c40:	e92d4030 	push	{r4, r5, lr}
    8c44:	e59f5040 	ldr	r5, [pc, #64]	; 8c8c <printk+0x50>
    8c48:	e24dd00c 	sub	sp, sp, #12, 0
    8c4c:	e28d301c 	add	r3, sp, #28, 0
    8c50:	e3a01b01 	mov	r1, #1024	; 0x400
    8c54:	e59d2018 	ldr	r2, [sp, #24]
    8c58:	e1a00005 	mov	r0, r5
    8c5c:	e58d3004 	str	r3, [sp, #4]
    8c60:	eb0000fb 	bl	9054 <va_printk>
    8c64:	e1a04000 	mov	r4, r0
    8c68:	e59f3020 	ldr	r3, [pc, #32]	; 8c90 <printk+0x54>
    8c6c:	e1a00005 	mov	r0, r5
    8c70:	e5933000 	ldr	r3, [r3]
    8c74:	e12fff33 	blx	r3
    8c78:	e1a00004 	mov	r0, r4
    8c7c:	e28dd00c 	add	sp, sp, #12, 0
    8c80:	e8bd4030 	pop	{r4, r5, lr}
    8c84:	e28dd010 	add	sp, sp, #16, 0
    8c88:	e12fff1e 	bx	lr
    8c8c:	0000a9f4 	strdeq	sl, [r0], -r4
    8c90:	0000a9b8 			; <UNDEFINED> instruction: 0x0000a9b8

00008c94 <internal_putk>:
    8c94:	e92d4070 	push	{r4, r5, r6, lr}
    8c98:	e1a04000 	mov	r4, r0
    8c9c:	e5d00000 	ldrb	r0, [r0]
    8ca0:	e3500000 	cmp	r0, #0, 0
    8ca4:	0a000005 	beq	8cc0 <internal_putk+0x2c>
    8ca8:	e59f5018 	ldr	r5, [pc, #24]	; 8cc8 <internal_putk+0x34>
    8cac:	e5953000 	ldr	r3, [r5]
    8cb0:	e12fff33 	blx	r3
    8cb4:	e5f40001 	ldrb	r0, [r4, #1]!
    8cb8:	e3500000 	cmp	r0, #0, 0
    8cbc:	1afffffa 	bne	8cac <internal_putk+0x18>
    8cc0:	e3a00001 	mov	r0, #1, 0
    8cc4:	e8bd8070 	pop	{r4, r5, r6, pc}
    8cc8:	0000a9c8 	andeq	sl, r0, r8, asr #19

00008ccc <emit.constprop.0>:
    8ccc:	e92d41f0 	push	{r4, r5, r6, r7, r8, lr}
    8cd0:	e3530080 	cmp	r3, #128, 0	; 0x80
    8cd4:	e1a0c000 	mov	ip, r0
    8cd8:	e24dd048 	sub	sp, sp, #72, 0	; 0x48
    8cdc:	e1a00001 	mov	r0, r1
    8ce0:	ca000069 	bgt	8e8c <emit.constprop.0+0x1c0>
    8ce4:	e24c1002 	sub	r1, ip, #2, 0
    8ce8:	e1a0c002 	mov	ip, r2
    8cec:	e351000e 	cmp	r1, #14, 0
    8cf0:	979ff101 	ldrls	pc, [pc, r1, lsl #2]
    8cf4:	ea0000a7 	b	8f98 <emit.constprop.0+0x2cc>
    8cf8:	00008e64 	andeq	r8, r0, r4, ror #28
    8cfc:	00008f98 	muleq	r0, r8, pc	; <UNPREDICTABLE>
    8d00:	00008f98 	muleq	r0, r8, pc	; <UNPREDICTABLE>
    8d04:	00008f98 	muleq	r0, r8, pc	; <UNPREDICTABLE>
    8d08:	00008f98 	muleq	r0, r8, pc	; <UNPREDICTABLE>
    8d0c:	00008f98 	muleq	r0, r8, pc	; <UNPREDICTABLE>
    8d10:	00008f40 	andeq	r8, r0, r0, asr #30
    8d14:	00008f98 	muleq	r0, r8, pc	; <UNPREDICTABLE>
    8d18:	00008ee0 	andeq	r8, r0, r0, ror #29
    8d1c:	00008f98 	muleq	r0, r8, pc	; <UNPREDICTABLE>
    8d20:	00008f98 	muleq	r0, r8, pc	; <UNPREDICTABLE>
    8d24:	00008f98 	muleq	r0, r8, pc	; <UNPREDICTABLE>
    8d28:	00008f98 	muleq	r0, r8, pc	; <UNPREDICTABLE>
    8d2c:	00008f98 	muleq	r0, r8, pc	; <UNPREDICTABLE>
    8d30:	00008d38 	andeq	r8, r0, r8, lsr sp
    8d34:	e3a0307f 	mov	r3, #127, 0	; 0x7f
    8d38:	e28d2008 	add	r2, sp, #8, 0
    8d3c:	e1a04002 	mov	r4, r2
    8d40:	e59f1288 	ldr	r1, [pc, #648]	; 8fd0 <emit.constprop.0+0x304>
    8d44:	e20ce00f 	and	lr, ip, #15, 0
    8d48:	e7d1e00e 	ldrb	lr, [r1, lr]
    8d4c:	e35c000f 	cmp	ip, #15, 0
    8d50:	e4c4e001 	strb	lr, [r4], #1
    8d54:	e1a0c22c 	lsr	ip, ip, #4
    8d58:	8afffff9 	bhi	8d44 <emit.constprop.0+0x78>
    8d5c:	e3a0c078 	mov	ip, #120, 0	; 0x78
    8d60:	e1a0e004 	mov	lr, r4
    8d64:	e3a01030 	mov	r1, #48, 0	; 0x30
    8d68:	e4cec002 	strb	ip, [lr], #2
    8d6c:	e5c41001 	strb	r1, [r4, #1]
    8d70:	e04e1002 	sub	r1, lr, r2
    8d74:	e1510003 	cmp	r1, r3
    8d78:	aa000083 	bge	8f8c <emit.constprop.0+0x2c0>
    8d7c:	e1510003 	cmp	r1, r3
    8d80:	a3a0c001 	movge	ip, #1, 0
    8d84:	b3a0c000 	movlt	ip, #0, 0
    8d88:	e2434001 	sub	r4, r3, #1, 0
    8d8c:	e0444001 	sub	r4, r4, r1
    8d90:	b0436001 	sublt	r6, r3, r1
    8d94:	a3a06001 	movge	r6, #1, 0
    8d98:	e3540002 	cmp	r4, #2, 0
    8d9c:	938cc001 	orrls	ip, ip, #1, 0
    8da0:	e35c0000 	cmp	ip, #0, 0
    8da4:	1a000075 	bne	8f80 <emit.constprop.0+0x2b4>
    8da8:	e1a0c00e 	mov	ip, lr
    8dac:	e3c65003 	bic	r5, r6, #3, 0
    8db0:	e59f721c 	ldr	r7, [pc, #540]	; 8fd4 <emit.constprop.0+0x308>
    8db4:	e085500e 	add	r5, r5, lr
    8db8:	e48c7004 	str	r7, [ip], #4
    8dbc:	e15c0005 	cmp	ip, r5
    8dc0:	1afffffc 	bne	8db8 <emit.constprop.0+0xec>
    8dc4:	e3c6c003 	bic	ip, r6, #3, 0
    8dc8:	e156000c 	cmp	r6, ip
    8dcc:	e08e500c 	add	r5, lr, ip
    8dd0:	e08cc001 	add	ip, ip, r1
    8dd4:	0a000008 	beq	8dfc <emit.constprop.0+0x130>
    8dd8:	e3a07020 	mov	r7, #32, 0
    8ddc:	e28c8001 	add	r8, ip, #1, 0
    8de0:	e1580003 	cmp	r8, r3
    8de4:	e5c57000 	strb	r7, [r5]
    8de8:	aa000003 	bge	8dfc <emit.constprop.0+0x130>
    8dec:	e28cc002 	add	ip, ip, #2, 0
    8df0:	e15c0003 	cmp	ip, r3
    8df4:	e5c57001 	strb	r7, [r5, #1]
    8df8:	b5c57002 	strblt	r7, [r5, #2]
    8dfc:	e1510003 	cmp	r1, r3
    8e00:	a3a04000 	movge	r4, #0, 0
    8e04:	e08e6006 	add	r6, lr, r6
    8e08:	e0461002 	sub	r1, r6, r2
    8e0c:	e08ee004 	add	lr, lr, r4
    8e10:	e3a03000 	mov	r3, #0, 0
    8e14:	e351007f 	cmp	r1, #127, 0	; 0x7f
    8e18:	c241407f 	subgt	r4, r1, #127, 0	; 0x7f
    8e1c:	c0822004 	addgt	r2, r2, r4
    8e20:	e152000e 	cmp	r2, lr
    8e24:	e5c63000 	strb	r3, [r6]
    8e28:	8a00004f 	bhi	8f6c <emit.constprop.0+0x2a0>
    8e2c:	e28ee001 	add	lr, lr, #1, 0
    8e30:	e1a0300e 	mov	r3, lr
    8e34:	e240c001 	sub	ip, r0, #1, 0
    8e38:	e5734001 	ldrb	r4, [r3, #-1]!
    8e3c:	e1530002 	cmp	r3, r2
    8e40:	e5ec4001 	strb	r4, [ip, #1]!
    8e44:	1afffffb 	bne	8e38 <emit.constprop.0+0x16c>
    8e48:	e04ee003 	sub	lr, lr, r3
    8e4c:	e3a03000 	mov	r3, #0, 0
    8e50:	e080e00e 	add	lr, r0, lr
    8e54:	e5ce3000 	strb	r3, [lr]
    8e58:	e28dd048 	add	sp, sp, #72, 0	; 0x48
    8e5c:	e8bd81f0 	pop	{r4, r5, r6, r7, r8, pc}
    8e60:	e3a0307f 	mov	r3, #127, 0	; 0x7f
    8e64:	e28d2008 	add	r2, sp, #8, 0
    8e68:	e1a0e002 	mov	lr, r2
    8e6c:	e59f1164 	ldr	r1, [pc, #356]	; 8fd8 <emit.constprop.0+0x30c>
    8e70:	e20c4001 	and	r4, ip, #1, 0
    8e74:	e7d14004 	ldrb	r4, [r1, r4]
    8e78:	e35c0001 	cmp	ip, #1, 0
    8e7c:	e4ce4001 	strb	r4, [lr], #1
    8e80:	e1a0c0ac 	lsr	ip, ip, #1
    8e84:	8afffff9 	bhi	8e70 <emit.constprop.0+0x1a4>
    8e88:	eaffffb8 	b	8d70 <emit.constprop.0+0xa4>
    8e8c:	e24c3002 	sub	r3, ip, #2, 0
    8e90:	e1a0c002 	mov	ip, r2
    8e94:	e353000e 	cmp	r3, #14, 0
    8e98:	979ff103 	ldrls	pc, [pc, r3, lsl #2]
    8e9c:	ea00003d 	b	8f98 <emit.constprop.0+0x2cc>
    8ea0:	00008e60 	andeq	r8, r0, r0, ror #28
    8ea4:	00008f98 	muleq	r0, r8, pc	; <UNPREDICTABLE>
    8ea8:	00008f98 	muleq	r0, r8, pc	; <UNPREDICTABLE>
    8eac:	00008f98 	muleq	r0, r8, pc	; <UNPREDICTABLE>
    8eb0:	00008f98 	muleq	r0, r8, pc	; <UNPREDICTABLE>
    8eb4:	00008f98 	muleq	r0, r8, pc	; <UNPREDICTABLE>
    8eb8:	00008fb8 			; <UNDEFINED> instruction: 0x00008fb8
    8ebc:	00008f98 	muleq	r0, r8, pc	; <UNPREDICTABLE>
    8ec0:	00008edc 	ldrdeq	r8, [r0], -ip
    8ec4:	00008f98 	muleq	r0, r8, pc	; <UNPREDICTABLE>
    8ec8:	00008f98 	muleq	r0, r8, pc	; <UNPREDICTABLE>
    8ecc:	00008f98 	muleq	r0, r8, pc	; <UNPREDICTABLE>
    8ed0:	00008f98 	muleq	r0, r8, pc	; <UNPREDICTABLE>
    8ed4:	00008f98 	muleq	r0, r8, pc	; <UNPREDICTABLE>
    8ed8:	00008d34 	andeq	r8, r0, r4, lsr sp
    8edc:	e3a0307f 	mov	r3, #127, 0	; 0x7f
    8ee0:	e59d1060 	ldr	r1, [sp, #96]	; 0x60
    8ee4:	e59f70f0 	ldr	r7, [pc, #240]	; 8fdc <emit.constprop.0+0x310>
    8ee8:	e0118fa2 	ands	r8, r1, r2, lsr #31
    8eec:	1262c000 	rsbne	ip, r2, #0, 0
    8ef0:	e28d2008 	add	r2, sp, #8, 0
    8ef4:	13a08001 	movne	r8, #1, 0
    8ef8:	e1a0e002 	mov	lr, r2
    8efc:	e59f60dc 	ldr	r6, [pc, #220]	; 8fe0 <emit.constprop.0+0x314>
    8f00:	e1a0500c 	mov	r5, ip
    8f04:	e0814c96 	umull	r4, r1, r6, ip
    8f08:	e1a011a1 	lsr	r1, r1, #3
    8f0c:	e0814101 	add	r4, r1, r1, lsl #2
    8f10:	e04cc084 	sub	ip, ip, r4, lsl #1
    8f14:	e7d7400c 	ldrb	r4, [r7, ip]
    8f18:	e3550009 	cmp	r5, #9, 0
    8f1c:	e1a0c001 	mov	ip, r1
    8f20:	e1a0100e 	mov	r1, lr
    8f24:	e4ce4001 	strb	r4, [lr], #1
    8f28:	8afffff4 	bhi	8f00 <emit.constprop.0+0x234>
    8f2c:	e3580000 	cmp	r8, #0, 0
    8f30:	13a0c02d 	movne	ip, #45, 0	; 0x2d
    8f34:	15cec000 	strbne	ip, [lr]
    8f38:	1281e002 	addne	lr, r1, #2, 0
    8f3c:	eaffff8b 	b	8d70 <emit.constprop.0+0xa4>
    8f40:	e3530001 	cmp	r3, #1, 0
    8f44:	e5cd2008 	strb	r2, [sp, #8]
    8f48:	c3a01001 	movgt	r1, #1, 0
    8f4c:	c28de009 	addgt	lr, sp, #9, 0
    8f50:	c28d2008 	addgt	r2, sp, #8, 0
    8f54:	caffff88 	bgt	8d7c <emit.constprop.0+0xb0>
    8f58:	e3a03000 	mov	r3, #0, 0
    8f5c:	e28de008 	add	lr, sp, #8, 0
    8f60:	e1a0200e 	mov	r2, lr
    8f64:	e5cd3009 	strb	r3, [sp, #9]
    8f68:	eaffffaf 	b	8e2c <emit.constprop.0+0x160>
    8f6c:	e1a0e000 	mov	lr, r0
    8f70:	e3a03000 	mov	r3, #0, 0
    8f74:	e5ce3000 	strb	r3, [lr]
    8f78:	e28dd048 	add	sp, sp, #72, 0	; 0x48
    8f7c:	e8bd81f0 	pop	{r4, r5, r6, r7, r8, pc}
    8f80:	e1a0c001 	mov	ip, r1
    8f84:	e1a0500e 	mov	r5, lr
    8f88:	eaffff92 	b	8dd8 <emit.constprop.0+0x10c>
    8f8c:	e1a0600e 	mov	r6, lr
    8f90:	e24ee001 	sub	lr, lr, #1, 0
    8f94:	eaffff9d 	b	8e10 <emit.constprop.0+0x144>
    8f98:	e59f2044 	ldr	r2, [pc, #68]	; 8fe4 <emit.constprop.0+0x318>
    8f9c:	e3a03079 	mov	r3, #121, 0	; 0x79
    8fa0:	e59f1040 	ldr	r1, [pc, #64]	; 8fe8 <emit.constprop.0+0x31c>
    8fa4:	e58d2000 	str	r2, [sp]
    8fa8:	e59f003c 	ldr	r0, [pc, #60]	; 8fec <emit.constprop.0+0x320>
    8fac:	e59f203c 	ldr	r2, [pc, #60]	; 8ff0 <emit.constprop.0+0x324>
    8fb0:	ebffff21 	bl	8c3c <printk>
    8fb4:	eb0001b1 	bl	9680 <clean_reboot>
    8fb8:	e5cd2008 	strb	r2, [sp, #8]
    8fbc:	e3a0307f 	mov	r3, #127, 0	; 0x7f
    8fc0:	e3a01001 	mov	r1, #1, 0
    8fc4:	e28de009 	add	lr, sp, #9, 0
    8fc8:	e28d2008 	add	r2, sp, #8, 0
    8fcc:	eaffff6a 	b	8d7c <emit.constprop.0+0xb0>
    8fd0:	0000a660 	andeq	sl, r0, r0, ror #12
    8fd4:	20202020 	eorcs	r2, r0, r0, lsr #32
    8fd8:	0000a674 	andeq	sl, r0, r4, ror r6
    8fdc:	0000a678 	andeq	sl, r0, r8, ror r6
    8fe0:	cccccccd 	stclgt	12, cr12, [ip], {205}	; 0xcd
    8fe4:	0000a51c 	andeq	sl, r0, ip, lsl r5
    8fe8:	0000a64c 	andeq	sl, r0, ip, asr #12
    8fec:	0000a1ac 	andeq	sl, r0, ip, lsr #3
    8ff0:	0000a78c 	andeq	sl, r0, ip, lsl #15

00008ff4 <rpi_set_output>:
    8ff4:	e3500000 	cmp	r0, #0, 0
    8ff8:	0a000005 	beq	9014 <rpi_set_output+0x20>
    8ffc:	e59f3038 	ldr	r3, [pc, #56]	; 903c <rpi_set_output+0x48>
    9000:	e3510000 	cmp	r1, #0, 0
    9004:	e5830000 	str	r0, [r3]
    9008:	159f3030 	ldrne	r3, [pc, #48]	; 9040 <rpi_set_output+0x4c>
    900c:	15831000 	strne	r1, [r3]
    9010:	e12fff1e 	bx	lr
    9014:	e52de004 	push	{lr}		; (str lr, [sp, #-4]!)
    9018:	e59f2024 	ldr	r2, [pc, #36]	; 9044 <rpi_set_output+0x50>
    901c:	e24dd00c 	sub	sp, sp, #12, 0
    9020:	e3a03020 	mov	r3, #32, 0
    9024:	e59f101c 	ldr	r1, [pc, #28]	; 9048 <rpi_set_output+0x54>
    9028:	e58d2000 	str	r2, [sp]
    902c:	e59f0018 	ldr	r0, [pc, #24]	; 904c <rpi_set_output+0x58>
    9030:	e59f2018 	ldr	r2, [pc, #24]	; 9050 <rpi_set_output+0x5c>
    9034:	ebffff00 	bl	8c3c <printk>
    9038:	eb000190 	bl	9680 <clean_reboot>
    903c:	0000a9c8 	andeq	sl, r0, r8, asr #19
    9040:	0000a9b8 			; <UNDEFINED> instruction: 0x0000a9b8
    9044:	0000a684 	andeq	sl, r0, r4, lsl #13
    9048:	0000a64c 	andeq	sl, r0, ip, asr #12
    904c:	0000a1ac 	andeq	sl, r0, ip, lsr #3
    9050:	0000a794 	muleq	r0, r4, r7

00009054 <va_printk>:
    9054:	e92d4ff0 	push	{r4, r5, r6, r7, r8, r9, sl, fp, lr}
    9058:	e1a0b000 	mov	fp, r0
    905c:	e3a00000 	mov	r0, #0, 0
    9060:	e5cb0000 	strb	r0, [fp]
    9064:	e5d2c000 	ldrb	ip, [r2]
    9068:	e2417001 	sub	r7, r1, #1, 0
    906c:	e08b7007 	add	r7, fp, r7
    9070:	e15c0000 	cmp	ip, r0
    9074:	115b0007 	cmpne	fp, r7
    9078:	e24ddf47 	sub	sp, sp, #284	; 0x11c
    907c:	e58d2010 	str	r2, [sp, #16]
    9080:	2a000159 	bcs	95ec <va_printk+0x598>
    9084:	e1a06002 	mov	r6, r2
    9088:	e1a08003 	mov	r8, r3
    908c:	e1a0400b 	mov	r4, fp
    9090:	e59fa5a4 	ldr	sl, [pc, #1444]	; 963c <va_printk+0x5e8>
    9094:	e58db00c 	str	fp, [sp, #12]
    9098:	ea000005 	b	90b4 <va_printk+0x60>
    909c:	e4c4c001 	strb	ip, [r4], #1
    90a0:	e2866001 	add	r6, r6, #1, 0
    90a4:	e5d6c000 	ldrb	ip, [r6]
    90a8:	e35c0000 	cmp	ip, #0, 0
    90ac:	11570004 	cmpne	r7, r4
    90b0:	9a00002f 	bls	9174 <va_printk+0x120>
    90b4:	e35c0025 	cmp	ip, #37, 0	; 0x25
    90b8:	1afffff7 	bne	909c <va_printk+0x48>
    90bc:	e5d62001 	ldrb	r2, [r6, #1]
    90c0:	e3520025 	cmp	r2, #37, 0	; 0x25
    90c4:	04c4c001 	strbeq	ip, [r4], #1
    90c8:	02866002 	addeq	r6, r6, #2, 0
    90cc:	0afffff4 	beq	90a4 <va_printk+0x50>
    90d0:	e2423030 	sub	r3, r2, #48, 0	; 0x30
    90d4:	e3530009 	cmp	r3, #9, 0
    90d8:	e3a05000 	mov	r5, #0, 0
    90dc:	e2866001 	add	r6, r6, #1, 0
    90e0:	8a000008 	bhi	9108 <va_printk+0xb4>
    90e4:	e0855105 	add	r5, r5, r5, lsl #2
    90e8:	e0825085 	add	r5, r2, r5, lsl #1
    90ec:	e5f62001 	ldrb	r2, [r6, #1]!
    90f0:	e2455030 	sub	r5, r5, #48, 0	; 0x30
    90f4:	e2423030 	sub	r3, r2, #48, 0	; 0x30
    90f8:	e3530009 	cmp	r3, #9, 0
    90fc:	9afffff8 	bls	90e4 <va_printk+0x90>
    9100:	e355001f 	cmp	r5, #31, 0
    9104:	8a00013a 	bhi	95f4 <va_printk+0x5a0>
    9108:	e2423062 	sub	r3, r2, #98, 0	; 0x62
    910c:	e3530016 	cmp	r3, #22, 0
    9110:	979ff103 	ldrls	pc, [pc, r3, lsl #2]
    9114:	ea00011b 	b	9588 <va_printk+0x534>
    9118:	000093cc 	andeq	r9, r0, ip, asr #7
    911c:	000092c8 	andeq	r9, r0, r8, asr #5
    9120:	000092c0 	andeq	r9, r0, r0, asr #5
    9124:	00009588 	andeq	r9, r0, r8, lsl #11
    9128:	000095c4 	andeq	r9, r0, r4, asr #11
    912c:	00009588 	andeq	r9, r0, r8, lsl #11
    9130:	00009588 	andeq	r9, r0, r8, lsl #11
    9134:	00009588 	andeq	r9, r0, r8, lsl #11
    9138:	00009588 	andeq	r9, r0, r8, lsl #11
    913c:	00009588 	andeq	r9, r0, r8, lsl #11
    9140:	000091d0 	ldrdeq	r9, [r0], -r0
    9144:	00009588 	andeq	r9, r0, r8, lsl #11
    9148:	00009588 	andeq	r9, r0, r8, lsl #11
    914c:	00009588 	andeq	r9, r0, r8, lsl #11
    9150:	0000918c 	andeq	r9, r0, ip, lsl #3
    9154:	00009588 	andeq	r9, r0, r8, lsl #11
    9158:	00009588 	andeq	r9, r0, r8, lsl #11
    915c:	000094c4 	andeq	r9, r0, r4, asr #9
    9160:	00009588 	andeq	r9, r0, r8, lsl #11
    9164:	0000929c 	muleq	r0, ip, r2
    9168:	00009588 	andeq	r9, r0, r8, lsl #11
    916c:	00009588 	andeq	r9, r0, r8, lsl #11
    9170:	0000918c 	andeq	r9, r0, ip, lsl #3
    9174:	e59db00c 	ldr	fp, [sp, #12]
    9178:	e3a03000 	mov	r3, #0, 0
    917c:	e4c43001 	strb	r3, [r4], #1
    9180:	e044000b 	sub	r0, r4, fp
    9184:	e28ddf47 	add	sp, sp, #284	; 0x11c
    9188:	e8bd8ff0 	pop	{r4, r5, r6, r7, r8, r9, sl, fp, pc}
    918c:	e3a01000 	mov	r1, #0, 0
    9190:	e1a03005 	mov	r3, r5
    9194:	e4982004 	ldr	r2, [r8], #4
    9198:	e3a00010 	mov	r0, #16, 0
    919c:	e58d1000 	str	r1, [sp]
    91a0:	e28d1018 	add	r1, sp, #24, 0
    91a4:	ebfffec8 	bl	8ccc <emit.constprop.0>
    91a8:	e1a05000 	mov	r5, r0
    91ac:	e2866001 	add	r6, r6, #1, 0
    91b0:	e2455001 	sub	r5, r5, #1, 0
    91b4:	e5f53001 	ldrb	r3, [r5, #1]!
    91b8:	e3530000 	cmp	r3, #0, 0
    91bc:	0affffb8 	beq	90a4 <va_printk+0x50>
    91c0:	e4c43001 	strb	r3, [r4], #1
    91c4:	e1570004 	cmp	r7, r4
    91c8:	8afffff9 	bhi	91b4 <va_printk+0x160>
    91cc:	eaffffb4 	b	90a4 <va_printk+0x50>
    91d0:	e3a02003 	mov	r2, #3, 0
    91d4:	e1a00006 	mov	r0, r6
    91d8:	e59f1460 	ldr	r1, [pc, #1120]	; 9640 <va_printk+0x5ec>
    91dc:	eb0003da 	bl	a14c <strncmp>
    91e0:	e3500000 	cmp	r0, #0, 0
    91e4:	0a000005 	beq	9200 <va_printk+0x1ac>
    91e8:	e3a02003 	mov	r2, #3, 0
    91ec:	e1a00006 	mov	r0, r6
    91f0:	e59f144c 	ldr	r1, [pc, #1100]	; 9644 <va_printk+0x5f0>
    91f4:	eb0003d4 	bl	a14c <strncmp>
    91f8:	e3500000 	cmp	r0, #0, 0
    91fc:	1a00010b 	bne	9630 <va_printk+0x5dc>
    9200:	e2888007 	add	r8, r8, #7, 0
    9204:	e3c88007 	bic	r8, r8, #7, 0
    9208:	e598b004 	ldr	fp, [r8, #4]
    920c:	e4989008 	ldr	r9, [r8], #8
    9210:	e1a0100b 	mov	r1, fp
    9214:	e59f042c 	ldr	r0, [pc, #1068]	; 9648 <va_printk+0x5f4>
    9218:	ebfffe87 	bl	8c3c <printk>
    921c:	e1a01009 	mov	r1, r9
    9220:	e59f0424 	ldr	r0, [pc, #1060]	; 964c <va_printk+0x5f8>
    9224:	ebfffe84 	bl	8c3c <printk>
    9228:	e3a02003 	mov	r2, #3, 0
    922c:	e1a00006 	mov	r0, r6
    9230:	e59f1408 	ldr	r1, [pc, #1032]	; 9640 <va_printk+0x5ec>
    9234:	eb0003c4 	bl	a14c <strncmp>
    9238:	e2503000 	subs	r3, r0, #0, 0
    923c:	e1a02003 	mov	r2, r3
    9240:	e2863002 	add	r3, r6, #2, 0
    9244:	e58d3014 	str	r3, [sp, #20]
    9248:	1a00009f 	bne	94cc <va_printk+0x478>
    924c:	e1a06002 	mov	r6, r2
    9250:	e1a03005 	mov	r3, r5
    9254:	e58d2000 	str	r2, [sp]
    9258:	e28d1018 	add	r1, sp, #24, 0
    925c:	e1a0200b 	mov	r2, fp
    9260:	e3a00010 	mov	r0, #16, 0
    9264:	ebfffe98 	bl	8ccc <emit.constprop.0>
    9268:	e1a0c000 	mov	ip, r0
    926c:	e1a03005 	mov	r3, r5
    9270:	e58d6000 	str	r6, [sp]
    9274:	e28d1098 	add	r1, sp, #152, 0	; 0x98
    9278:	e1a02009 	mov	r2, r9
    927c:	e3a00010 	mov	r0, #16, 0
    9280:	e1a0500c 	mov	r5, ip
    9284:	ebfffe90 	bl	8ccc <emit.constprop.0>
    9288:	e28d0018 	add	r0, sp, #24, 0
    928c:	e28d109a 	add	r1, sp, #154, 0	; 0x9a
    9290:	e59d6014 	ldr	r6, [sp, #20]
    9294:	eb00038a 	bl	a0c4 <strcat>
    9298:	eaffffc3 	b	91ac <va_printk+0x158>
    929c:	e3a01000 	mov	r1, #0, 0
    92a0:	e1a03005 	mov	r3, r5
    92a4:	e4982004 	ldr	r2, [r8], #4
    92a8:	e3a0000a 	mov	r0, #10, 0
    92ac:	e58d1000 	str	r1, [sp]
    92b0:	e28d1018 	add	r1, sp, #24, 0
    92b4:	ebfffe84 	bl	8ccc <emit.constprop.0>
    92b8:	e1a05000 	mov	r5, r0
    92bc:	eaffffba 	b	91ac <va_printk+0x158>
    92c0:	e3a01001 	mov	r1, #1, 0
    92c4:	eafffff5 	b	92a0 <va_printk+0x24c>
    92c8:	e4983004 	ldr	r3, [r8], #4
    92cc:	e3550001 	cmp	r5, #1, 0
    92d0:	e5cd3098 	strb	r3, [sp, #152]	; 0x98
    92d4:	9a0000a6 	bls	9574 <va_printk+0x520>
    92d8:	e2453002 	sub	r3, r5, #2, 0
    92dc:	e3530002 	cmp	r3, #2, 0
    92e0:	e2451001 	sub	r1, r5, #1, 0
    92e4:	9a0000bc 	bls	95dc <va_printk+0x588>
    92e8:	e59f0360 	ldr	r0, [pc, #864]	; 9650 <va_printk+0x5fc>
    92ec:	e1a02121 	lsr	r2, r1, #2
    92f0:	e3520001 	cmp	r2, #1, 0
    92f4:	e58d0099 	str	r0, [sp, #153]	; 0x99
    92f8:	0a00000e 	beq	9338 <va_printk+0x2e4>
    92fc:	e3520002 	cmp	r2, #2, 0
    9300:	e58d009d 	str	r0, [sp, #157]	; 0x9d
    9304:	0a00000b 	beq	9338 <va_printk+0x2e4>
    9308:	e3520003 	cmp	r2, #3, 0
    930c:	e58d00a1 	str	r0, [sp, #161]	; 0xa1
    9310:	0a000008 	beq	9338 <va_printk+0x2e4>
    9314:	e3520004 	cmp	r2, #4, 0
    9318:	e58d00a5 	str	r0, [sp, #165]	; 0xa5
    931c:	0a000005 	beq	9338 <va_printk+0x2e4>
    9320:	e3520005 	cmp	r2, #5, 0
    9324:	e58d00a9 	str	r0, [sp, #169]	; 0xa9
    9328:	0a000002 	beq	9338 <va_printk+0x2e4>
    932c:	e3520007 	cmp	r2, #7, 0
    9330:	e58d00ad 	str	r0, [sp, #173]	; 0xad
    9334:	058d00b1 	streq	r0, [sp, #177]	; 0xb1
    9338:	e3c12003 	bic	r2, r1, #3, 0
    933c:	e1510002 	cmp	r1, r2
    9340:	e28dc099 	add	ip, sp, #153, 0	; 0x99
    9344:	e08c0002 	add	r0, ip, r2
    9348:	e2822001 	add	r2, r2, #1, 0
    934c:	0a000008 	beq	9374 <va_printk+0x320>
    9350:	e3a0e020 	mov	lr, #32, 0
    9354:	e2829001 	add	r9, r2, #1, 0
    9358:	e1550009 	cmp	r5, r9
    935c:	e5c0e000 	strb	lr, [r0]
    9360:	da000003 	ble	9374 <va_printk+0x320>
    9364:	e2822002 	add	r2, r2, #2, 0
    9368:	e1550002 	cmp	r5, r2
    936c:	e5c0e001 	strb	lr, [r0, #1]
    9370:	c5c0e002 	strbgt	lr, [r0, #2]
    9374:	e3a0e000 	mov	lr, #0, 0
    9378:	e28d0098 	add	r0, sp, #152, 0	; 0x98
    937c:	e08c2001 	add	r2, ip, r1
    9380:	e0422000 	sub	r2, r2, r0
    9384:	e352007f 	cmp	r2, #127, 0	; 0x7f
    9388:	c242207f 	subgt	r2, r2, #127, 0	; 0x7f
    938c:	e08c3003 	add	r3, ip, r3
    9390:	c0800002 	addgt	r0, r0, r2
    9394:	e1530000 	cmp	r3, r0
    9398:	e7cce001 	strb	lr, [ip, r1]
    939c:	3a00006c 	bcc	9554 <va_printk+0x500>
    93a0:	e283c001 	add	ip, r3, #1, 0
    93a4:	e1a0300c 	mov	r3, ip
    93a8:	e28d5018 	add	r5, sp, #24, 0
    93ac:	e2452001 	sub	r2, r5, #1, 0
    93b0:	e5731001 	ldrb	r1, [r3, #-1]!
    93b4:	e1500003 	cmp	r0, r3
    93b8:	e5e21001 	strb	r1, [r2, #1]!
    93bc:	1afffffb 	bne	93b0 <va_printk+0x35c>
    93c0:	e04c3000 	sub	r3, ip, r0
    93c4:	e0853003 	add	r3, r5, r3
    93c8:	ea00003a 	b	94b8 <va_printk+0x464>
    93cc:	e28d1098 	add	r1, sp, #152, 0	; 0x98
    93d0:	e1a03001 	mov	r3, r1
    93d4:	e4980004 	ldr	r0, [r8], #4
    93d8:	e200c001 	and	ip, r0, #1, 0
    93dc:	e7dac00c 	ldrb	ip, [sl, ip]
    93e0:	e3500001 	cmp	r0, #1, 0
    93e4:	e1a02003 	mov	r2, r3
    93e8:	e1a000a0 	lsr	r0, r0, #1
    93ec:	e4c3c001 	strb	ip, [r3], #1
    93f0:	8afffff8 	bhi	93d8 <va_printk+0x384>
    93f4:	e0430001 	sub	r0, r3, r1
    93f8:	e1550000 	cmp	r5, r0
    93fc:	da000057 	ble	9560 <va_printk+0x50c>
    9400:	e045c000 	sub	ip, r5, r0
    9404:	e24ce001 	sub	lr, ip, #1, 0
    9408:	e35e0002 	cmp	lr, #2, 0
    940c:	e1a0e003 	mov	lr, r3
    9410:	9a00000a 	bls	9440 <va_printk+0x3ec>
    9414:	e3cc9003 	bic	r9, ip, #3, 0
    9418:	e0899003 	add	r9, r9, r3
    941c:	e59fb22c 	ldr	fp, [pc, #556]	; 9650 <va_printk+0x5fc>
    9420:	e48eb004 	str	fp, [lr], #4
    9424:	e15e0009 	cmp	lr, r9
    9428:	1afffffb 	bne	941c <va_printk+0x3c8>
    942c:	e3cce003 	bic	lr, ip, #3, 0
    9430:	e15e000c 	cmp	lr, ip
    9434:	e080000e 	add	r0, r0, lr
    9438:	e083e00e 	add	lr, r3, lr
    943c:	0a000008 	beq	9464 <va_printk+0x410>
    9440:	e3a09020 	mov	r9, #32, 0
    9444:	e280b001 	add	fp, r0, #1, 0
    9448:	e155000b 	cmp	r5, fp
    944c:	e5ce9000 	strb	r9, [lr]
    9450:	da000003 	ble	9464 <va_printk+0x410>
    9454:	e2800002 	add	r0, r0, #2, 0
    9458:	e1550000 	cmp	r5, r0
    945c:	e5ce9001 	strb	r9, [lr, #1]
    9460:	c5ce9002 	strbgt	r9, [lr, #2]
    9464:	e3a0e000 	mov	lr, #0, 0
    9468:	e083000c 	add	r0, r3, ip
    946c:	e0400001 	sub	r0, r0, r1
    9470:	e350007f 	cmp	r0, #127, 0	; 0x7f
    9474:	e082200c 	add	r2, r2, ip
    9478:	e7c3e00c 	strb	lr, [r3, ip]
    947c:	da000001 	ble	9488 <va_printk+0x434>
    9480:	e240007f 	sub	r0, r0, #127, 0	; 0x7f
    9484:	e0811000 	add	r1, r1, r0
    9488:	e1510002 	cmp	r1, r2
    948c:	8a000030 	bhi	9554 <va_printk+0x500>
    9490:	e2822001 	add	r2, r2, #1, 0
    9494:	e1a03002 	mov	r3, r2
    9498:	e28d5018 	add	r5, sp, #24, 0
    949c:	e245c001 	sub	ip, r5, #1, 0
    94a0:	e5730001 	ldrb	r0, [r3, #-1]!
    94a4:	e1530001 	cmp	r3, r1
    94a8:	e5ec0001 	strb	r0, [ip, #1]!
    94ac:	1afffffb 	bne	94a0 <va_printk+0x44c>
    94b0:	e0423003 	sub	r3, r2, r3
    94b4:	e0853003 	add	r3, r5, r3
    94b8:	e3a02000 	mov	r2, #0, 0
    94bc:	e5c32000 	strb	r2, [r3]
    94c0:	eaffff39 	b	91ac <va_printk+0x158>
    94c4:	e4985004 	ldr	r5, [r8], #4
    94c8:	eaffff37 	b	91ac <va_printk+0x158>
    94cc:	e3a02003 	mov	r2, #3, 0
    94d0:	e1a00006 	mov	r0, r6
    94d4:	e59f1168 	ldr	r1, [pc, #360]	; 9644 <va_printk+0x5f0>
    94d8:	eb00031b 	bl	a14c <strncmp>
    94dc:	e2503000 	subs	r3, r0, #0, 0
    94e0:	1a00004b 	bne	9614 <va_printk+0x5c0>
    94e4:	e1a06003 	mov	r6, r3
    94e8:	e1a0200b 	mov	r2, fp
    94ec:	e58d3000 	str	r3, [sp]
    94f0:	e28d1018 	add	r1, sp, #24, 0
    94f4:	e1a03005 	mov	r3, r5
    94f8:	e3a0000a 	mov	r0, #10, 0
    94fc:	ebfffdf2 	bl	8ccc <emit.constprop.0>
    9500:	e1a0c000 	mov	ip, r0
    9504:	e1a03005 	mov	r3, r5
    9508:	e1a02009 	mov	r2, r9
    950c:	e28d1098 	add	r1, sp, #152, 0	; 0x98
    9510:	e3a0000a 	mov	r0, #10, 0
    9514:	e58d6000 	str	r6, [sp]
    9518:	e1a0500c 	mov	r5, ip
    951c:	ebfffdea 	bl	8ccc <emit.constprop.0>
    9520:	e59f112c 	ldr	r1, [pc, #300]	; 9654 <va_printk+0x600>
    9524:	e28d0018 	add	r0, sp, #24, 0
    9528:	eb0002f0 	bl	a0f0 <strcmp>
    952c:	e3500000 	cmp	r0, #0, 0
    9530:	e28d1098 	add	r1, sp, #152, 0	; 0x98
    9534:	e28d0018 	add	r0, sp, #24, 0
    9538:	1a000002 	bne	9548 <va_printk+0x4f4>
    953c:	eb0002fc 	bl	a134 <strcpy>
    9540:	e59d6014 	ldr	r6, [sp, #20]
    9544:	eaffff18 	b	91ac <va_printk+0x158>
    9548:	eb0002dd 	bl	a0c4 <strcat>
    954c:	e59d6014 	ldr	r6, [sp, #20]
    9550:	eaffff15 	b	91ac <va_printk+0x158>
    9554:	e28d5018 	add	r5, sp, #24, 0
    9558:	e1a03005 	mov	r3, r5
    955c:	eaffffd5 	b	94b8 <va_printk+0x464>
    9560:	e3a0c000 	mov	ip, #0, 0
    9564:	e350007f 	cmp	r0, #127, 0	; 0x7f
    9568:	e5c3c000 	strb	ip, [r3]
    956c:	caffffc3 	bgt	9480 <va_printk+0x42c>
    9570:	eaffffc6 	b	9490 <va_printk+0x43c>
    9574:	e3a02000 	mov	r2, #0, 0
    9578:	e28d3098 	add	r3, sp, #152, 0	; 0x98
    957c:	e1a00003 	mov	r0, r3
    9580:	e5cd2099 	strb	r2, [sp, #153]	; 0x99
    9584:	eaffff85 	b	93a0 <va_printk+0x34c>
    9588:	e3a03000 	mov	r3, #0, 0
    958c:	e1a01002 	mov	r1, r2
    9590:	e5c63001 	strb	r3, [r6, #1]
    9594:	e59f00bc 	ldr	r0, [pc, #188]	; 9658 <va_printk+0x604>
    9598:	ebfffda7 	bl	8c3c <printk>
    959c:	e59f30b8 	ldr	r3, [pc, #184]	; 965c <va_printk+0x608>
    95a0:	e59d0010 	ldr	r0, [sp, #16]
    95a4:	e5933000 	ldr	r3, [r3]
    95a8:	e12fff33 	blx	r3
    95ac:	e3a030e2 	mov	r3, #226, 0	; 0xe2
    95b0:	e59f20a8 	ldr	r2, [pc, #168]	; 9660 <va_printk+0x60c>
    95b4:	e59f10a8 	ldr	r1, [pc, #168]	; 9664 <va_printk+0x610>
    95b8:	e59f00a8 	ldr	r0, [pc, #168]	; 9668 <va_printk+0x614>
    95bc:	ebfffd9e 	bl	8c3c <printk>
    95c0:	eb00002e 	bl	9680 <clean_reboot>
    95c4:	e3a030be 	mov	r3, #190, 0	; 0xbe
    95c8:	e59f2090 	ldr	r2, [pc, #144]	; 9660 <va_printk+0x60c>
    95cc:	e59f1090 	ldr	r1, [pc, #144]	; 9664 <va_printk+0x610>
    95d0:	e59f0094 	ldr	r0, [pc, #148]	; 966c <va_printk+0x618>
    95d4:	ebfffd98 	bl	8c3c <printk>
    95d8:	eb000028 	bl	9680 <clean_reboot>
    95dc:	e28dc099 	add	ip, sp, #153, 0	; 0x99
    95e0:	e1a0000c 	mov	r0, ip
    95e4:	e3a02001 	mov	r2, #1, 0
    95e8:	eaffff58 	b	9350 <va_printk+0x2fc>
    95ec:	e1a0400b 	mov	r4, fp
    95f0:	eafffee0 	b	9178 <va_printk+0x124>
    95f4:	e3a03098 	mov	r3, #152, 0	; 0x98
    95f8:	e59f2070 	ldr	r2, [pc, #112]	; 9670 <va_printk+0x61c>
    95fc:	e59f1060 	ldr	r1, [pc, #96]	; 9664 <va_printk+0x610>
    9600:	e58d2000 	str	r2, [sp]
    9604:	e59f0068 	ldr	r0, [pc, #104]	; 9674 <va_printk+0x620>
    9608:	e59f2050 	ldr	r2, [pc, #80]	; 9660 <va_printk+0x60c>
    960c:	ebfffd8a 	bl	8c3c <printk>
    9610:	eb00001a 	bl	9680 <clean_reboot>
    9614:	e3a030b6 	mov	r3, #182, 0	; 0xb6
    9618:	e59f2040 	ldr	r2, [pc, #64]	; 9660 <va_printk+0x60c>
    961c:	e59f1040 	ldr	r1, [pc, #64]	; 9664 <va_printk+0x610>
    9620:	e59f0050 	ldr	r0, [pc, #80]	; 9678 <va_printk+0x624>
    9624:	e58d6000 	str	r6, [sp]
    9628:	ebfffd83 	bl	8c3c <printk>
    962c:	eb000013 	bl	9680 <clean_reboot>
    9630:	e3a0309f 	mov	r3, #159, 0	; 0x9f
    9634:	e59f2040 	ldr	r2, [pc, #64]	; 967c <va_printk+0x628>
    9638:	eaffffef 	b	95fc <va_printk+0x5a8>
    963c:	0000a674 	andeq	sl, r0, r4, ror r6
    9640:	0000a698 	muleq	r0, r8, r6
    9644:	0000a6ac 	andeq	sl, r0, ip, lsr #13
    9648:	0000a69c 	muleq	r0, ip, r6
    964c:	0000a6a4 	andeq	sl, r0, r4, lsr #13
    9650:	20202020 	eorcs	r2, r0, r0, lsr #32
    9654:	0000a51c 	andeq	sl, r0, ip, lsl r5
    9658:	0000a73c 	andeq	sl, r0, ip, lsr r7
    965c:	0000a9b8 			; <UNDEFINED> instruction: 0x0000a9b8
    9660:	0000a7a4 	andeq	sl, r0, r4, lsr #15
    9664:	0000a64c 	andeq	sl, r0, ip, asr #12
    9668:	0000a76c 	andeq	sl, r0, ip, ror #14
    966c:	0000a714 	andeq	sl, r0, r4, lsl r7
    9670:	0000a68c 	andeq	sl, r0, ip, lsl #13
    9674:	0000a1ac 	andeq	sl, r0, ip, lsr #3
    9678:	0000a6ec 	andeq	sl, r0, ip, ror #13
    967c:	0000a6b0 			; <UNDEFINED> instruction: 0x0000a6b0

00009680 <clean_reboot>:
    9680:	e59f301c 	ldr	r3, [pc, #28]	; 96a4 <clean_reboot+0x24>
    9684:	e92d4010 	push	{r4, lr}
    9688:	e5933000 	ldr	r3, [r3]
    968c:	e59f0014 	ldr	r0, [pc, #20]	; 96a8 <clean_reboot+0x28>
    9690:	e12fff33 	blx	r3
    9694:	eb00011b 	bl	9b08 <uart_flush_tx>
    9698:	e3a0000a 	mov	r0, #10, 0
    969c:	eb000082 	bl	98ac <delay_ms>
    96a0:	eb00004b 	bl	97d4 <rpi_reboot>
    96a4:	0000a9b8 			; <UNDEFINED> instruction: 0x0000a9b8
    96a8:	0000a7b0 			; <UNDEFINED> instruction: 0x0000a7b0

000096ac <_cstart>:
    96ac:	e92d4070 	push	{r4, r5, r6, lr}
    96b0:	eb00003b 	bl	97a4 <custom_loader>
    96b4:	e59f20e0 	ldr	r2, [pc, #224]	; 979c <_cstart+0xf0>
    96b8:	e59fc0e0 	ldr	ip, [pc, #224]	; 97a0 <_cstart+0xf4>
    96bc:	e152000c 	cmp	r2, ip
    96c0:	2a00002e 	bcs	9780 <_cstart+0xd4>
    96c4:	e24c1001 	sub	r1, ip, #1, 0
    96c8:	e0411002 	sub	r1, r1, r2
    96cc:	e3510017 	cmp	r1, #23, 0
    96d0:	e1a03122 	lsr	r3, r2, #2
    96d4:	e1a01121 	lsr	r1, r1, #2
    96d8:	e2811001 	add	r1, r1, #1, 0
    96dc:	e2033001 	and	r3, r3, #1, 0
    96e0:	9a00002b 	bls	9794 <_cstart+0xe8>
    96e4:	e3530000 	cmp	r3, #0, 0
    96e8:	11a00002 	movne	r0, r2
    96ec:	13a0e000 	movne	lr, #0, 0
    96f0:	e3a04000 	mov	r4, #0, 0
    96f4:	e3a05000 	mov	r5, #0, 0
    96f8:	e0411003 	sub	r1, r1, r3
    96fc:	01a00002 	moveq	r0, r2
    9700:	e0823103 	add	r3, r2, r3, lsl #2
    9704:	e1a020a1 	lsr	r2, r1, #1
    9708:	1480e004 	strne	lr, [r0], #4
    970c:	e0832182 	add	r2, r3, r2, lsl #3
    9710:	e0c340f8 	strd	r4, [r3], #8
    9714:	e1520003 	cmp	r2, r3
    9718:	1afffffc 	bne	9710 <_cstart+0x64>
    971c:	e3c13001 	bic	r3, r1, #1, 0
    9720:	e1510003 	cmp	r1, r3
    9724:	e0803103 	add	r3, r0, r3, lsl #2
    9728:	0a000014 	beq	9780 <_cstart+0xd4>
    972c:	e1a01003 	mov	r1, r3
    9730:	e3a02000 	mov	r2, #0, 0
    9734:	e4812004 	str	r2, [r1], #4
    9738:	e151000c 	cmp	r1, ip
    973c:	2a00000f 	bcs	9780 <_cstart+0xd4>
    9740:	e2831008 	add	r1, r3, #8, 0
    9744:	e151000c 	cmp	r1, ip
    9748:	e5832004 	str	r2, [r3, #4]
    974c:	2a00000b 	bcs	9780 <_cstart+0xd4>
    9750:	e283100c 	add	r1, r3, #12, 0
    9754:	e151000c 	cmp	r1, ip
    9758:	e5832008 	str	r2, [r3, #8]
    975c:	2a000007 	bcs	9780 <_cstart+0xd4>
    9760:	e2831010 	add	r1, r3, #16, 0
    9764:	e151000c 	cmp	r1, ip
    9768:	e583200c 	str	r2, [r3, #12]
    976c:	2a000003 	bcs	9780 <_cstart+0xd4>
    9770:	e2831014 	add	r1, r3, #20, 0
    9774:	e151000c 	cmp	r1, ip
    9778:	e5832010 	str	r2, [r3, #16]
    977c:	35832014 	strcc	r2, [r3, #20]
    9780:	eb000082 	bl	9990 <uart_init>
    9784:	e3a03001 	mov	r3, #1, 0
    9788:	ee0f3f1c 	mcr	15, 0, r3, cr15, cr12, {0}
    978c:	ebfffa5a 	bl	80fc <notmain>
    9790:	ebffffba 	bl	9680 <clean_reboot>
    9794:	e1a03002 	mov	r3, r2
    9798:	eaffffe3 	b	972c <_cstart+0x80>
    979c:	0000a9d0 	ldrdeq	sl, [r0], -r0
    97a0:	0000adf8 	strdeq	sl, [r0], -r8

000097a4 <custom_loader>:
    97a4:	e12fff1e 	bx	lr

000097a8 <at_user_level>:
    97a8:	e10f0000 	mrs	r0, CPSR
    97ac:	e200001f 	and	r0, r0, #31, 0
    97b0:	e2400010 	sub	r0, r0, #16, 0
    97b4:	e16f0f10 	clz	r0, r0
    97b8:	e1a002a0 	lsr	r0, r0, #5
    97bc:	e12fff1e 	bx	lr

000097c0 <set_user_level>:
    97c0:	e10f3000 	mrs	r3, CPSR
    97c4:	e3c3301f 	bic	r3, r3, #31, 0
    97c8:	e3833010 	orr	r3, r3, #16, 0
    97cc:	e129f003 	msr	CPSR_fc, r3
    97d0:	e12fff1e 	bx	lr

000097d4 <rpi_reboot>:
    97d4:	e92d4010 	push	{r4, lr}
    97d8:	e10f3000 	mrs	r3, CPSR
    97dc:	e203301f 	and	r3, r3, #31, 0
    97e0:	e3530010 	cmp	r3, #16, 0
    97e4:	1a000003 	bne	97f8 <rpi_reboot+0x24>
    97e8:	e10f3000 	mrs	r3, CPSR
    97ec:	e3c3301f 	bic	r3, r3, #31, 0
    97f0:	e3833010 	orr	r3, r3, #16, 0
    97f4:	e129f003 	msr	CPSR_fc, r3
    97f8:	eb00025f 	bl	a17c <reboot_callout>
    97fc:	eb0000c1 	bl	9b08 <uart_flush_tx>
    9800:	e3a0000a 	mov	r0, #10, 0
    9804:	eb000028 	bl	98ac <delay_ms>
    9808:	e59f1014 	ldr	r1, [pc, #20]	; 9824 <rpi_reboot+0x50>
    980c:	e59f0014 	ldr	r0, [pc, #20]	; 9828 <rpi_reboot+0x54>
    9810:	ebfffa03 	bl	8024 <PUT32>
    9814:	e59f1010 	ldr	r1, [pc, #16]	; 982c <rpi_reboot+0x58>
    9818:	e59f0010 	ldr	r0, [pc, #16]	; 9830 <rpi_reboot+0x5c>
    981c:	ebfffa00 	bl	8024 <PUT32>
    9820:	eafffffe 	b	9820 <rpi_reboot+0x4c>
    9824:	5a000001 	bpl	9830 <rpi_reboot+0x5c>
    9828:	20100024 	andscs	r0, r0, r4, lsr #32
    982c:	5a000020 	bpl	98b4 <delay_ms+0x8>
    9830:	2010001c 	andscs	r0, r0, ip, lsl r0

00009834 <timer_get_usec_raw>:
    9834:	e59f0000 	ldr	r0, [pc]	; 983c <timer_get_usec_raw+0x8>
    9838:	eafff9fb 	b	802c <GET32>
    983c:	20003004 	andcs	r3, r0, r4

00009840 <timer_get_usec>:
    9840:	e92d4010 	push	{r4, lr}
    9844:	eb00024d 	bl	a180 <dev_barrier>
    9848:	e59f0010 	ldr	r0, [pc, #16]	; 9860 <timer_get_usec+0x20>
    984c:	ebfff9f6 	bl	802c <GET32>
    9850:	e1a04000 	mov	r4, r0
    9854:	eb000249 	bl	a180 <dev_barrier>
    9858:	e1a00004 	mov	r0, r4
    985c:	e8bd8010 	pop	{r4, pc}
    9860:	20003004 	andcs	r3, r0, r4

00009864 <delay_us>:
    9864:	e92d41f0 	push	{r4, r5, r6, r7, r8, lr}
    9868:	e1a06000 	mov	r6, r0
    986c:	eb000243 	bl	a180 <dev_barrier>
    9870:	e59f0030 	ldr	r0, [pc, #48]	; 98a8 <delay_us+0x44>
    9874:	ebfff9ec 	bl	802c <GET32>
    9878:	e1a05000 	mov	r5, r0
    987c:	eb00023f 	bl	a180 <dev_barrier>
    9880:	e59f7020 	ldr	r7, [pc, #32]	; 98a8 <delay_us+0x44>
    9884:	eb00023d 	bl	a180 <dev_barrier>
    9888:	e1a00007 	mov	r0, r7
    988c:	ebfff9e6 	bl	802c <GET32>
    9890:	e1a04000 	mov	r4, r0
    9894:	e0444005 	sub	r4, r4, r5
    9898:	eb000238 	bl	a180 <dev_barrier>
    989c:	e1540006 	cmp	r4, r6
    98a0:	3afffff7 	bcc	9884 <delay_us+0x20>
    98a4:	e8bd81f0 	pop	{r4, r5, r6, r7, r8, pc}
    98a8:	20003004 	andcs	r3, r0, r4

000098ac <delay_ms>:
    98ac:	e92d41f0 	push	{r4, r5, r6, r7, r8, lr}
    98b0:	e0604280 	rsb	r4, r0, r0, lsl #5
    98b4:	e0800104 	add	r0, r0, r4, lsl #2
    98b8:	e1a04180 	lsl	r4, r0, #3
    98bc:	eb00022f 	bl	a180 <dev_barrier>
    98c0:	e59f0030 	ldr	r0, [pc, #48]	; 98f8 <delay_ms+0x4c>
    98c4:	ebfff9d8 	bl	802c <GET32>
    98c8:	e1a06000 	mov	r6, r0
    98cc:	eb00022b 	bl	a180 <dev_barrier>
    98d0:	e59f7020 	ldr	r7, [pc, #32]	; 98f8 <delay_ms+0x4c>
    98d4:	eb000229 	bl	a180 <dev_barrier>
    98d8:	e1a00007 	mov	r0, r7
    98dc:	ebfff9d2 	bl	802c <GET32>
    98e0:	e1a05000 	mov	r5, r0
    98e4:	e0455006 	sub	r5, r5, r6
    98e8:	eb000224 	bl	a180 <dev_barrier>
    98ec:	e1540005 	cmp	r4, r5
    98f0:	8afffff7 	bhi	98d4 <delay_ms+0x28>
    98f4:	e8bd81f0 	pop	{r4, r5, r6, r7, r8, pc}
    98f8:	20003004 	andcs	r3, r0, r4

000098fc <delay_sec>:
    98fc:	e92d41f0 	push	{r4, r5, r6, r7, r8, lr}
    9900:	e0604280 	rsb	r4, r0, r0, lsl #5
    9904:	e0644304 	rsb	r4, r4, r4, lsl #6
    9908:	e0800184 	add	r0, r0, r4, lsl #3
    990c:	e1a04300 	lsl	r4, r0, #6
    9910:	eb00021a 	bl	a180 <dev_barrier>
    9914:	e59f0030 	ldr	r0, [pc, #48]	; 994c <delay_sec+0x50>
    9918:	ebfff9c3 	bl	802c <GET32>
    991c:	e1a06000 	mov	r6, r0
    9920:	eb000216 	bl	a180 <dev_barrier>
    9924:	e59f7020 	ldr	r7, [pc, #32]	; 994c <delay_sec+0x50>
    9928:	eb000214 	bl	a180 <dev_barrier>
    992c:	e1a00007 	mov	r0, r7
    9930:	ebfff9bd 	bl	802c <GET32>
    9934:	e1a05000 	mov	r5, r0
    9938:	e0455006 	sub	r5, r5, r6
    993c:	eb00020f 	bl	a180 <dev_barrier>
    9940:	e1540005 	cmp	r4, r5
    9944:	8afffff7 	bhi	9928 <delay_sec+0x2c>
    9948:	e8bd81f0 	pop	{r4, r5, r6, r7, r8, pc}
    994c:	20003004 	andcs	r3, r0, r4

00009950 <and_in32>:
    9950:	e92d4070 	push	{r4, r5, r6, lr}
    9954:	e1a04000 	mov	r4, r0
    9958:	e1a05001 	mov	r5, r1
    995c:	ebfff9b2 	bl	802c <GET32>
    9960:	e0001005 	and	r1, r0, r5
    9964:	e1a00004 	mov	r0, r4
    9968:	ebfff9ad 	bl	8024 <PUT32>
    996c:	e8bd8070 	pop	{r4, r5, r6, pc}

00009970 <or_in32>:
    9970:	e92d4070 	push	{r4, r5, r6, lr}
    9974:	e1a04000 	mov	r4, r0
    9978:	e1a05001 	mov	r5, r1
    997c:	ebfff9aa 	bl	802c <GET32>
    9980:	e1801005 	orr	r1, r0, r5
    9984:	e1a00004 	mov	r0, r4
    9988:	ebfff9a5 	bl	8024 <PUT32>
    998c:	e8bd8070 	pop	{r4, r5, r6, pc}

00009990 <uart_init>:
    9990:	e92d4010 	push	{r4, lr}
    9994:	e3a01002 	mov	r1, #2, 0
    9998:	e3a0000e 	mov	r0, #14, 0
    999c:	eb000153 	bl	9ef0 <gpio_set_function>
    99a0:	e3a01002 	mov	r1, #2, 0
    99a4:	e3a0000f 	mov	r0, #15, 0
    99a8:	eb000150 	bl	9ef0 <gpio_set_function>
    99ac:	eb0001f3 	bl	a180 <dev_barrier>
    99b0:	e3a01001 	mov	r1, #1, 0
    99b4:	e59f0064 	ldr	r0, [pc, #100]	; 9a20 <uart_init+0x90>
    99b8:	ebffffec 	bl	9970 <or_in32>
    99bc:	eb0001ef 	bl	a180 <dev_barrier>
    99c0:	e59f405c 	ldr	r4, [pc, #92]	; 9a24 <uart_init+0x94>
    99c4:	e3a01000 	mov	r1, #0, 0
    99c8:	e1a00004 	mov	r0, r4
    99cc:	ebfff994 	bl	8024 <PUT32>
    99d0:	e3a01000 	mov	r1, #0, 0
    99d4:	e59f004c 	ldr	r0, [pc, #76]	; 9a28 <uart_init+0x98>
    99d8:	ebfff991 	bl	8024 <PUT32>
    99dc:	e3a01003 	mov	r1, #3, 0
    99e0:	e59f0044 	ldr	r0, [pc, #68]	; 9a2c <uart_init+0x9c>
    99e4:	ebfff98e 	bl	8024 <PUT32>
    99e8:	e3a01000 	mov	r1, #0, 0
    99ec:	e59f003c 	ldr	r0, [pc, #60]	; 9a30 <uart_init+0xa0>
    99f0:	ebfff98b 	bl	8024 <PUT32>
    99f4:	e3a010c7 	mov	r1, #199, 0	; 0xc7
    99f8:	e59f0034 	ldr	r0, [pc, #52]	; 9a34 <uart_init+0xa4>
    99fc:	ebfff988 	bl	8024 <PUT32>
    9a00:	e59f1030 	ldr	r1, [pc, #48]	; 9a38 <uart_init+0xa8>
    9a04:	e59f0030 	ldr	r0, [pc, #48]	; 9a3c <uart_init+0xac>
    9a08:	ebfff985 	bl	8024 <PUT32>
    9a0c:	e3a01003 	mov	r1, #3, 0
    9a10:	e1a00004 	mov	r0, r4
    9a14:	ebfff982 	bl	8024 <PUT32>
    9a18:	eb0001d8 	bl	a180 <dev_barrier>
    9a1c:	e8bd8010 	pop	{r4, pc}
    9a20:	20215004 	eorcs	r5, r1, r4
    9a24:	20215060 	eorcs	r5, r1, r0, rrx
    9a28:	20215044 	eorcs	r5, r1, r4, asr #32
    9a2c:	2021504c 	eorcs	r5, r1, ip, asr #32
    9a30:	20215050 	eorcs	r5, r1, r0, asr r0
    9a34:	20215048 	eorcs	r5, r1, r8, asr #32
    9a38:	0000010e 	andeq	r0, r0, lr, lsl #2
    9a3c:	20215068 	eorcs	r5, r1, r8, rrx

00009a40 <uart_can_getc>:
    9a40:	e92d4010 	push	{r4, lr}
    9a44:	e59f0008 	ldr	r0, [pc, #8]	; 9a54 <uart_can_getc+0x14>
    9a48:	ebfff977 	bl	802c <GET32>
    9a4c:	e2000001 	and	r0, r0, #1, 0
    9a50:	e8bd8010 	pop	{r4, pc}
    9a54:	20215064 	eorcs	r5, r1, r4, rrx

00009a58 <uart_can_putc>:
    9a58:	e92d4010 	push	{r4, lr}
    9a5c:	e59f0010 	ldr	r0, [pc, #16]	; 9a74 <uart_can_putc+0x1c>
    9a60:	ebfff971 	bl	802c <GET32>
    9a64:	e3100002 	tst	r0, #2, 0
    9a68:	13a00001 	movne	r0, #1, 0
    9a6c:	03a00000 	moveq	r0, #0, 0
    9a70:	e8bd8010 	pop	{r4, pc}
    9a74:	20215064 	eorcs	r5, r1, r4, rrx

00009a78 <uart_getc>:
    9a78:	e92d4010 	push	{r4, lr}
    9a7c:	eb0001bf 	bl	a180 <dev_barrier>
    9a80:	ebffffee 	bl	9a40 <uart_can_getc>
    9a84:	e3500000 	cmp	r0, #0, 0
    9a88:	0afffffc 	beq	9a80 <uart_getc+0x8>
    9a8c:	e59f0010 	ldr	r0, [pc, #16]	; 9aa4 <uart_getc+0x2c>
    9a90:	ebfff965 	bl	802c <GET32>
    9a94:	e6ef4070 	uxtb	r4, r0
    9a98:	eb0001b8 	bl	a180 <dev_barrier>
    9a9c:	e1a00004 	mov	r0, r4
    9aa0:	e8bd8010 	pop	{r4, pc}
    9aa4:	20215040 	eorcs	r5, r1, r0, asr #32

00009aa8 <uart_putc>:
    9aa8:	e92d4010 	push	{r4, lr}
    9aac:	e1a04000 	mov	r4, r0
    9ab0:	eb0001b2 	bl	a180 <dev_barrier>
    9ab4:	ebffffe7 	bl	9a58 <uart_can_putc>
    9ab8:	e3500000 	cmp	r0, #0, 0
    9abc:	0afffffc 	beq	9ab4 <uart_putc+0xc>
    9ac0:	e6ef1074 	uxtb	r1, r4
    9ac4:	e59f0008 	ldr	r0, [pc, #8]	; 9ad4 <uart_putc+0x2c>
    9ac8:	ebfff955 	bl	8024 <PUT32>
    9acc:	eb0001ab 	bl	a180 <dev_barrier>
    9ad0:	e8bd8010 	pop	{r4, pc}
    9ad4:	20215040 	eorcs	r5, r1, r0, asr #32

00009ad8 <uart_has_data>:
    9ad8:	e92d4010 	push	{r4, lr}
    9adc:	eb0001a7 	bl	a180 <dev_barrier>
    9ae0:	ebffffd6 	bl	9a40 <uart_can_getc>
    9ae4:	e8bd8010 	pop	{r4, pc}

00009ae8 <uart_tx_is_empty>:
    9ae8:	e92d4010 	push	{r4, lr}
    9aec:	eb0001a3 	bl	a180 <dev_barrier>
    9af0:	e59f000c 	ldr	r0, [pc, #12]	; 9b04 <uart_tx_is_empty+0x1c>
    9af4:	ebfff94c 	bl	802c <GET32>
    9af8:	e1a004a0 	lsr	r0, r0, #9
    9afc:	e2000001 	and	r0, r0, #1, 0
    9b00:	e8bd8010 	pop	{r4, pc}
    9b04:	20215064 	eorcs	r5, r1, r4, rrx

00009b08 <uart_flush_tx>:
    9b08:	e92d4010 	push	{r4, lr}
    9b0c:	ebfffff5 	bl	9ae8 <uart_tx_is_empty>
    9b10:	e3500000 	cmp	r0, #0, 0
    9b14:	0afffffc 	beq	9b0c <uart_flush_tx+0x4>
    9b18:	e8bd8010 	pop	{r4, pc}

00009b1c <uart_disable>:
    9b1c:	e92d4010 	push	{r4, lr}
    9b20:	ebfffff8 	bl	9b08 <uart_flush_tx>
    9b24:	eb000195 	bl	a180 <dev_barrier>
    9b28:	e3e01001 	mvn	r1, #1, 0
    9b2c:	e59f0008 	ldr	r0, [pc, #8]	; 9b3c <uart_disable+0x20>
    9b30:	ebffff86 	bl	9950 <and_in32>
    9b34:	eb000191 	bl	a180 <dev_barrier>
    9b38:	e8bd8010 	pop	{r4, pc}
    9b3c:	20215004 	eorcs	r5, r1, r4

00009b40 <kmalloc_heap_end>:
    9b40:	e59f3004 	ldr	r3, [pc, #4]	; 9b4c <kmalloc_heap_end+0xc>
    9b44:	e5930000 	ldr	r0, [r3]
    9b48:	e12fff1e 	bx	lr
    9b4c:	0000a9bc 			; <UNDEFINED> instruction: 0x0000a9bc

00009b50 <kmalloc_heap_start>:
    9b50:	e59f3004 	ldr	r3, [pc, #4]	; 9b5c <kmalloc_heap_start+0xc>
    9b54:	e5930004 	ldr	r0, [r3, #4]
    9b58:	e12fff1e 	bx	lr
    9b5c:	0000a9bc 			; <UNDEFINED> instruction: 0x0000a9bc

00009b60 <kmalloc_heap_ptr>:
    9b60:	e59f3004 	ldr	r3, [pc, #4]	; 9b6c <kmalloc_heap_ptr+0xc>
    9b64:	e5930000 	ldr	r0, [r3]
    9b68:	e12fff1e 	bx	lr
    9b6c:	0000a9bc 			; <UNDEFINED> instruction: 0x0000a9bc

00009b70 <kmalloc_init_set_start>:
    9b70:	e52de004 	push	{lr}		; (str lr, [sp, #-4]!)
    9b74:	e24dd00c 	sub	sp, sp, #12, 0
    9b78:	e3510000 	cmp	r1, #0, 0
    9b7c:	0a00000a 	beq	9bac <kmalloc_init_set_start+0x3c>
    9b80:	e59f306c 	ldr	r3, [pc, #108]	; 9bf4 <kmalloc_init_set_start+0x84>
    9b84:	e5933000 	ldr	r3, [r3]
    9b88:	e1530000 	cmp	r3, r0
    9b8c:	8a00000e 	bhi	9bcc <kmalloc_init_set_start+0x5c>
    9b90:	e59f305c 	ldr	r3, [pc, #92]	; 9bf4 <kmalloc_init_set_start+0x84>
    9b94:	e5830000 	str	r0, [r3]
    9b98:	e5830004 	str	r0, [r3, #4]
    9b9c:	e0800001 	add	r0, r0, r1
    9ba0:	e5830008 	str	r0, [r3, #8]
    9ba4:	e28dd00c 	add	sp, sp, #12, 0
    9ba8:	e49df004 	pop	{pc}		; (ldr pc, [sp], #4)
    9bac:	e59f3044 	ldr	r3, [pc, #68]	; 9bf8 <kmalloc_init_set_start+0x88>
    9bb0:	e58d3000 	str	r3, [sp]
    9bb4:	e3a03030 	mov	r3, #48, 0	; 0x30
    9bb8:	e59f203c 	ldr	r2, [pc, #60]	; 9bfc <kmalloc_init_set_start+0x8c>
    9bbc:	e59f103c 	ldr	r1, [pc, #60]	; 9c00 <kmalloc_init_set_start+0x90>
    9bc0:	e59f003c 	ldr	r0, [pc, #60]	; 9c04 <kmalloc_init_set_start+0x94>
    9bc4:	ebfffc1c 	bl	8c3c <printk>
    9bc8:	ebfffeac 	bl	9680 <clean_reboot>
    9bcc:	e59f3020 	ldr	r3, [pc, #32]	; 9bf4 <kmalloc_init_set_start+0x84>
    9bd0:	e5933008 	ldr	r3, [r3, #8]
    9bd4:	e58d3004 	str	r3, [sp, #4]
    9bd8:	e58d0000 	str	r0, [sp]
    9bdc:	e3a03034 	mov	r3, #52, 0	; 0x34
    9be0:	e59f2014 	ldr	r2, [pc, #20]	; 9bfc <kmalloc_init_set_start+0x8c>
    9be4:	e59f1014 	ldr	r1, [pc, #20]	; 9c00 <kmalloc_init_set_start+0x90>
    9be8:	e59f0018 	ldr	r0, [pc, #24]	; 9c08 <kmalloc_init_set_start+0x98>
    9bec:	ebfffc12 	bl	8c3c <printk>
    9bf0:	ebfffea2 	bl	9680 <clean_reboot>
    9bf4:	0000a9bc 			; <UNDEFINED> instruction: 0x0000a9bc
    9bf8:	0000a7c8 	andeq	sl, r0, r8, asr #15
    9bfc:	0000a954 	andeq	sl, r0, r4, asr r9
    9c00:	0000a7bc 			; <UNDEFINED> instruction: 0x0000a7bc
    9c04:	0000a1ac 	andeq	sl, r0, ip, lsr #3
    9c08:	0000a7d4 	ldrdeq	sl, [r0], -r4

00009c0c <kmalloc_init>:
    9c0c:	e92d4010 	push	{r4, lr}
    9c10:	e59f303c 	ldr	r3, [pc, #60]	; 9c54 <kmalloc_init+0x48>
    9c14:	e5933000 	ldr	r3, [r3]
    9c18:	e3530000 	cmp	r3, #0, 0
    9c1c:	1a000006 	bne	9c3c <kmalloc_init+0x30>
    9c20:	e59f302c 	ldr	r3, [pc, #44]	; 9c54 <kmalloc_init+0x48>
    9c24:	e3a02001 	mov	r2, #1, 0
    9c28:	e5832000 	str	r2, [r3]
    9c2c:	e3a01201 	mov	r1, #268435456	; 0x10000000
    9c30:	e3a00601 	mov	r0, #1048576	; 0x100000
    9c34:	ebffffcd 	bl	9b70 <kmalloc_init_set_start>
    9c38:	e8bd8010 	pop	{r4, pc}
    9c3c:	e3a03040 	mov	r3, #64, 0	; 0x40
    9c40:	e59f2010 	ldr	r2, [pc, #16]	; 9c58 <kmalloc_init+0x4c>
    9c44:	e59f1010 	ldr	r1, [pc, #16]	; 9c5c <kmalloc_init+0x50>
    9c48:	e59f0010 	ldr	r0, [pc, #16]	; 9c60 <kmalloc_init+0x54>
    9c4c:	ebfffbfa 	bl	8c3c <printk>
    9c50:	ebfffe8a 	bl	9680 <clean_reboot>
    9c54:	0000adf4 	strdeq	sl, [r0], -r4
    9c58:	0000a96c 	andeq	sl, r0, ip, ror #18
    9c5c:	0000a7bc 			; <UNDEFINED> instruction: 0x0000a7bc
    9c60:	0000a818 	andeq	sl, r0, r8, lsl r8

00009c64 <kmalloc_notzero>:
    9c64:	e52de004 	push	{lr}		; (str lr, [sp, #-4]!)
    9c68:	e24dd00c 	sub	sp, sp, #12, 0
    9c6c:	e3500000 	cmp	r0, #0, 0
    9c70:	0a00000a 	beq	9ca0 <kmalloc_notzero+0x3c>
    9c74:	e2800007 	add	r0, r0, #7, 0
    9c78:	e3c03007 	bic	r3, r0, #7, 0
    9c7c:	e59f2060 	ldr	r2, [pc, #96]	; 9ce4 <kmalloc_notzero+0x80>
    9c80:	e5920000 	ldr	r0, [r2]
    9c84:	e0801003 	add	r1, r0, r3
    9c88:	e5821000 	str	r1, [r2]
    9c8c:	e5922008 	ldr	r2, [r2, #8]
    9c90:	e1510002 	cmp	r1, r2
    9c94:	8a000009 	bhi	9cc0 <kmalloc_notzero+0x5c>
    9c98:	e28dd00c 	add	sp, sp, #12, 0
    9c9c:	e49df004 	pop	{pc}		; (ldr pc, [sp], #4)
    9ca0:	e59f3040 	ldr	r3, [pc, #64]	; 9ce8 <kmalloc_notzero+0x84>
    9ca4:	e58d3000 	str	r3, [sp]
    9ca8:	e3a03048 	mov	r3, #72, 0	; 0x48
    9cac:	e59f2038 	ldr	r2, [pc, #56]	; 9cec <kmalloc_notzero+0x88>
    9cb0:	e59f1038 	ldr	r1, [pc, #56]	; 9cf0 <kmalloc_notzero+0x8c>
    9cb4:	e59f0038 	ldr	r0, [pc, #56]	; 9cf4 <kmalloc_notzero+0x90>
    9cb8:	ebfffbdf 	bl	8c3c <printk>
    9cbc:	ebfffe6f 	bl	9680 <clean_reboot>
    9cc0:	e0422000 	sub	r2, r2, r0
    9cc4:	e58d2004 	str	r2, [sp, #4]
    9cc8:	e58d3000 	str	r3, [sp]
    9ccc:	e3a0304e 	mov	r3, #78, 0	; 0x4e
    9cd0:	e59f2014 	ldr	r2, [pc, #20]	; 9cec <kmalloc_notzero+0x88>
    9cd4:	e59f1014 	ldr	r1, [pc, #20]	; 9cf0 <kmalloc_notzero+0x8c>
    9cd8:	e59f0018 	ldr	r0, [pc, #24]	; 9cf8 <kmalloc_notzero+0x94>
    9cdc:	ebfffbd6 	bl	8c3c <printk>
    9ce0:	ebfffe66 	bl	9680 <clean_reboot>
    9ce4:	0000a9bc 			; <UNDEFINED> instruction: 0x0000a9bc
    9ce8:	0000a7cc 	andeq	sl, r0, ip, asr #15
    9cec:	0000a97c 	andeq	sl, r0, ip, ror r9
    9cf0:	0000a7bc 			; <UNDEFINED> instruction: 0x0000a7bc
    9cf4:	0000a1ac 	andeq	sl, r0, ip, lsr #3
    9cf8:	0000a848 	andeq	sl, r0, r8, asr #16

00009cfc <kmalloc>:
    9cfc:	e92d4030 	push	{r4, r5, lr}
    9d00:	e24dd00c 	sub	sp, sp, #12, 0
    9d04:	e2504000 	subs	r4, r0, #0, 0
    9d08:	0a000008 	beq	9d30 <kmalloc+0x34>
    9d0c:	e1a00004 	mov	r0, r4
    9d10:	ebffffd3 	bl	9c64 <kmalloc_notzero>
    9d14:	e1a05000 	mov	r5, r0
    9d18:	e1a02004 	mov	r2, r4
    9d1c:	e3a01000 	mov	r1, #0, 0
    9d20:	ebfffba7 	bl	8bc4 <memset>
    9d24:	e1a00005 	mov	r0, r5
    9d28:	e28dd00c 	add	sp, sp, #12, 0
    9d2c:	e8bd8030 	pop	{r4, r5, pc}
    9d30:	e59f3018 	ldr	r3, [pc, #24]	; 9d50 <kmalloc+0x54>
    9d34:	e58d3000 	str	r3, [sp]
    9d38:	e3a03054 	mov	r3, #84, 0	; 0x54
    9d3c:	e59f2010 	ldr	r2, [pc, #16]	; 9d54 <kmalloc+0x58>
    9d40:	e59f1010 	ldr	r1, [pc, #16]	; 9d58 <kmalloc+0x5c>
    9d44:	e59f0010 	ldr	r0, [pc, #16]	; 9d5c <kmalloc+0x60>
    9d48:	ebfffbbb 	bl	8c3c <printk>
    9d4c:	ebfffe4b 	bl	9680 <clean_reboot>
    9d50:	0000a7cc 	andeq	sl, r0, ip, asr #15
    9d54:	0000a98c 	andeq	sl, r0, ip, lsl #19
    9d58:	0000a7bc 			; <UNDEFINED> instruction: 0x0000a7bc
    9d5c:	0000a1ac 	andeq	sl, r0, ip, lsr #3

00009d60 <kmalloc_aligned>:
    9d60:	e52de004 	push	{lr}		; (str lr, [sp, #-4]!)
    9d64:	e24dd00c 	sub	sp, sp, #12, 0
    9d68:	e3500000 	cmp	r0, #0, 0
    9d6c:	0a000014 	beq	9dc4 <kmalloc_aligned+0x64>
    9d70:	e2613000 	rsb	r3, r1, #0, 0
    9d74:	e1d13003 	bics	r3, r1, r3
    9d78:	1a000019 	bne	9de4 <kmalloc_aligned+0x84>
    9d7c:	e3510008 	cmp	r1, #8, 0
    9d80:	33a01008 	movcc	r1, #8, 0
    9d84:	e59f30c0 	ldr	r3, [pc, #192]	; 9e4c <kmalloc_aligned+0xec>
    9d88:	e5932000 	ldr	r2, [r3]
    9d8c:	e2613000 	rsb	r3, r1, #0, 0
    9d90:	e1d1c003 	bics	ip, r1, r3
    9d94:	1a00001b 	bne	9e08 <kmalloc_aligned+0xa8>
    9d98:	e0822001 	add	r2, r2, r1
    9d9c:	e2422001 	sub	r2, r2, #1, 0
    9da0:	e0033002 	and	r3, r3, r2
    9da4:	e2411001 	sub	r1, r1, #1, 0
    9da8:	e1110003 	tst	r1, r3
    9dac:	1a00001d 	bne	9e28 <kmalloc_aligned+0xc8>
    9db0:	e59f2094 	ldr	r2, [pc, #148]	; 9e4c <kmalloc_aligned+0xec>
    9db4:	e5823000 	str	r3, [r2]
    9db8:	ebffffcf 	bl	9cfc <kmalloc>
    9dbc:	e28dd00c 	add	sp, sp, #12, 0
    9dc0:	e49df004 	pop	{pc}		; (ldr pc, [sp], #4)
    9dc4:	e59f3084 	ldr	r3, [pc, #132]	; 9e50 <kmalloc_aligned+0xf0>
    9dc8:	e58d3000 	str	r3, [sp]
    9dcc:	e3a0305f 	mov	r3, #95, 0	; 0x5f
    9dd0:	e59f207c 	ldr	r2, [pc, #124]	; 9e54 <kmalloc_aligned+0xf4>
    9dd4:	e59f107c 	ldr	r1, [pc, #124]	; 9e58 <kmalloc_aligned+0xf8>
    9dd8:	e59f007c 	ldr	r0, [pc, #124]	; 9e5c <kmalloc_aligned+0xfc>
    9ddc:	ebfffb96 	bl	8c3c <printk>
    9de0:	ebfffe26 	bl	9680 <clean_reboot>
    9de4:	eb0000ac 	bl	a09c <rpi_reset_putc>
    9de8:	e59f3070 	ldr	r3, [pc, #112]	; 9e60 <kmalloc_aligned+0x100>
    9dec:	e58d3000 	str	r3, [sp]
    9df0:	e3a03060 	mov	r3, #96, 0	; 0x60
    9df4:	e59f2058 	ldr	r2, [pc, #88]	; 9e54 <kmalloc_aligned+0xf4>
    9df8:	e59f1058 	ldr	r1, [pc, #88]	; 9e58 <kmalloc_aligned+0xf8>
    9dfc:	e59f0060 	ldr	r0, [pc, #96]	; 9e64 <kmalloc_aligned+0x104>
    9e00:	ebfffb8d 	bl	8c3c <printk>
    9e04:	ebfffe1d 	bl	9680 <clean_reboot>
    9e08:	e59f3058 	ldr	r3, [pc, #88]	; 9e68 <kmalloc_aligned+0x108>
    9e0c:	e58d3000 	str	r3, [sp]
    9e10:	e3a03011 	mov	r3, #17, 0
    9e14:	e59f2050 	ldr	r2, [pc, #80]	; 9e6c <kmalloc_aligned+0x10c>
    9e18:	e59f1038 	ldr	r1, [pc, #56]	; 9e58 <kmalloc_aligned+0xf8>
    9e1c:	e59f0038 	ldr	r0, [pc, #56]	; 9e5c <kmalloc_aligned+0xfc>
    9e20:	ebfffb85 	bl	8c3c <printk>
    9e24:	ebfffe15 	bl	9680 <clean_reboot>
    9e28:	eb00009b 	bl	a09c <rpi_reset_putc>
    9e2c:	e59f303c 	ldr	r3, [pc, #60]	; 9e70 <kmalloc_aligned+0x110>
    9e30:	e58d3000 	str	r3, [sp]
    9e34:	e3a03068 	mov	r3, #104, 0	; 0x68
    9e38:	e59f2014 	ldr	r2, [pc, #20]	; 9e54 <kmalloc_aligned+0xf4>
    9e3c:	e59f1014 	ldr	r1, [pc, #20]	; 9e58 <kmalloc_aligned+0xf8>
    9e40:	e59f002c 	ldr	r0, [pc, #44]	; 9e74 <kmalloc_aligned+0x114>
    9e44:	ebfffb7c 	bl	8c3c <printk>
    9e48:	ebfffe0c 	bl	9680 <clean_reboot>
    9e4c:	0000a9bc 			; <UNDEFINED> instruction: 0x0000a9bc
    9e50:	0000a7cc 	andeq	sl, r0, ip, asr #15
    9e54:	0000a994 	muleq	r0, r4, r9
    9e58:	0000a7bc 			; <UNDEFINED> instruction: 0x0000a7bc
    9e5c:	0000a1ac 	andeq	sl, r0, ip, lsr #3
    9e60:	0000a8bc 			; <UNDEFINED> instruction: 0x0000a8bc
    9e64:	0000a888 	andeq	sl, r0, r8, lsl #17
    9e68:	0000a8d0 	ldrdeq	sl, [r0], -r0
    9e6c:	0000a9a4 	andeq	sl, r0, r4, lsr #19
    9e70:	0000a908 	andeq	sl, r0, r8, lsl #18
    9e74:	0000a8dc 	ldrdeq	sl, [r0], -ip

00009e78 <kfree>:
    9e78:	e12fff1e 	bx	lr

00009e7c <kfree_all>:
    9e7c:	e59f3008 	ldr	r3, [pc, #8]	; 9e8c <kfree_all+0x10>
    9e80:	e5932004 	ldr	r2, [r3, #4]
    9e84:	e5832000 	str	r2, [r3]
    9e88:	e12fff1e 	bx	lr
    9e8c:	0000a9bc 			; <UNDEFINED> instruction: 0x0000a9bc

00009e90 <kfree_pop>:
    9e90:	e59f3048 	ldr	r3, [pc, #72]	; 9ee0 <kfree_pop+0x50>
    9e94:	e5933004 	ldr	r3, [r3, #4]
    9e98:	e1530000 	cmp	r3, r0
    9e9c:	8a000006 	bhi	9ebc <kfree_pop+0x2c>
    9ea0:	e59f3038 	ldr	r3, [pc, #56]	; 9ee0 <kfree_pop+0x50>
    9ea4:	e5933008 	ldr	r3, [r3, #8]
    9ea8:	e1530000 	cmp	r3, r0
    9eac:	3a000002 	bcc	9ebc <kfree_pop+0x2c>
    9eb0:	e59f3028 	ldr	r3, [pc, #40]	; 9ee0 <kfree_pop+0x50>
    9eb4:	e5830000 	str	r0, [r3]
    9eb8:	e12fff1e 	bx	lr
    9ebc:	e52de004 	push	{lr}		; (str lr, [sp, #-4]!)
    9ec0:	e24dd00c 	sub	sp, sp, #12, 0
    9ec4:	e58d0000 	str	r0, [sp]
    9ec8:	e3a03077 	mov	r3, #119, 0	; 0x77
    9ecc:	e59f2010 	ldr	r2, [pc, #16]	; 9ee4 <kfree_pop+0x54>
    9ed0:	e59f1010 	ldr	r1, [pc, #16]	; 9ee8 <kfree_pop+0x58>
    9ed4:	e59f0010 	ldr	r0, [pc, #16]	; 9eec <kfree_pop+0x5c>
    9ed8:	ebfffb57 	bl	8c3c <printk>
    9edc:	ebfffde7 	bl	9680 <clean_reboot>
    9ee0:	0000a9bc 			; <UNDEFINED> instruction: 0x0000a9bc
    9ee4:	0000a9ac 	andeq	sl, r0, ip, lsr #19
    9ee8:	0000a7bc 			; <UNDEFINED> instruction: 0x0000a7bc
    9eec:	0000a924 	andeq	sl, r0, r4, lsr #18

00009ef0 <gpio_set_function>:
    9ef0:	e350001f 	cmp	r0, #31, 0
    9ef4:	812fff1e 	bxhi	lr
    9ef8:	e3d13007 	bics	r3, r1, #7, 0
    9efc:	e92d4070 	push	{r4, r5, r6, lr}
    9f00:	e1a05001 	mov	r5, r1
    9f04:	18bd8070 	popne	{r4, r5, r6, pc}
    9f08:	e59f403c 	ldr	r4, [pc, #60]	; 9f4c <gpio_set_function+0x5c>
    9f0c:	e0843094 	umull	r3, r4, r4, r0
    9f10:	e1a041a4 	lsr	r4, r4, #3
    9f14:	e2843302 	add	r3, r4, #134217728	; 0x8000000
    9f18:	e2833702 	add	r3, r3, #524288	; 0x80000
    9f1c:	e1a06103 	lsl	r6, r3, #2
    9f20:	e0844104 	add	r4, r4, r4, lsl #2
    9f24:	e0404084 	sub	r4, r0, r4, lsl #1
    9f28:	e1a00006 	mov	r0, r6
    9f2c:	ebfff83e 	bl	802c <GET32>
    9f30:	e3a01007 	mov	r1, #7, 0
    9f34:	e0844084 	add	r4, r4, r4, lsl #1
    9f38:	e1c01411 	bic	r1, r0, r1, lsl r4
    9f3c:	e1811415 	orr	r1, r1, r5, lsl r4
    9f40:	e1a00006 	mov	r0, r6
    9f44:	e8bd4070 	pop	{r4, r5, r6, lr}
    9f48:	eafff835 	b	8024 <PUT32>
    9f4c:	cccccccd 	stclgt	12, cr12, [ip], {205}	; 0xcd

00009f50 <gpio_set_output>:
    9f50:	e350001f 	cmp	r0, #31, 0
    9f54:	812fff1e 	bxhi	lr
    9f58:	e92d4070 	push	{r4, r5, r6, lr}
    9f5c:	e59f4040 	ldr	r4, [pc, #64]	; 9fa4 <gpio_set_output+0x54>
    9f60:	e0843094 	umull	r3, r4, r4, r0
    9f64:	e1a041a4 	lsr	r4, r4, #3
    9f68:	e2843302 	add	r3, r4, #134217728	; 0x8000000
    9f6c:	e2833702 	add	r3, r3, #524288	; 0x80000
    9f70:	e1a05103 	lsl	r5, r3, #2
    9f74:	e0844104 	add	r4, r4, r4, lsl #2
    9f78:	e0404084 	sub	r4, r0, r4, lsl #1
    9f7c:	e1a00005 	mov	r0, r5
    9f80:	ebfff829 	bl	802c <GET32>
    9f84:	e3a03007 	mov	r3, #7, 0
    9f88:	e3a01001 	mov	r1, #1, 0
    9f8c:	e0844084 	add	r4, r4, r4, lsl #1
    9f90:	e1c03413 	bic	r3, r0, r3, lsl r4
    9f94:	e1831411 	orr	r1, r3, r1, lsl r4
    9f98:	e1a00005 	mov	r0, r5
    9f9c:	e8bd4070 	pop	{r4, r5, r6, lr}
    9fa0:	eafff81f 	b	8024 <PUT32>
    9fa4:	cccccccd 	stclgt	12, cr12, [ip], {205}	; 0xcd

00009fa8 <gpio_set_on>:
    9fa8:	e1a03000 	mov	r3, r0
    9fac:	e3a01001 	mov	r1, #1, 0
    9fb0:	e59f0004 	ldr	r0, [pc, #4]	; 9fbc <gpio_set_on+0x14>
    9fb4:	e1a01311 	lsl	r1, r1, r3
    9fb8:	eafff819 	b	8024 <PUT32>
    9fbc:	2020001c 	eorcs	r0, r0, ip, lsl r0

00009fc0 <gpio_set_off>:
    9fc0:	e1a03000 	mov	r3, r0
    9fc4:	e3a01001 	mov	r1, #1, 0
    9fc8:	e59f0004 	ldr	r0, [pc, #4]	; 9fd4 <gpio_set_off+0x14>
    9fcc:	e1a01311 	lsl	r1, r1, r3
    9fd0:	eafff813 	b	8024 <PUT32>
    9fd4:	20200028 	eorcs	r0, r0, r8, lsr #32

00009fd8 <gpio_set_input>:
    9fd8:	e350001f 	cmp	r0, #31, 0
    9fdc:	812fff1e 	bxhi	lr
    9fe0:	e92d4070 	push	{r4, r5, r6, lr}
    9fe4:	e59f5040 	ldr	r5, [pc, #64]	; a02c <gpio_set_input+0x54>
    9fe8:	e1a04000 	mov	r4, r0
    9fec:	e0853095 	umull	r3, r5, r5, r0
    9ff0:	e1a051a5 	lsr	r5, r5, #3
    9ff4:	e2850302 	add	r0, r5, #134217728	; 0x8000000
    9ff8:	e2800702 	add	r0, r0, #524288	; 0x80000
    9ffc:	e1a06100 	lsl	r6, r0, #2
    a000:	e1a00006 	mov	r0, r6
    a004:	ebfff808 	bl	802c <GET32>
    a008:	e3a01007 	mov	r1, #7, 0
    a00c:	e1a03000 	mov	r3, r0
    a010:	e0855105 	add	r5, r5, r5, lsl #2
    a014:	e0444085 	sub	r4, r4, r5, lsl #1
    a018:	e0844084 	add	r4, r4, r4, lsl #1
    a01c:	e1a00006 	mov	r0, r6
    a020:	e1c31411 	bic	r1, r3, r1, lsl r4
    a024:	e8bd4070 	pop	{r4, r5, r6, lr}
    a028:	eafff7fd 	b	8024 <PUT32>
    a02c:	cccccccd 	stclgt	12, cr12, [ip], {205}	; 0xcd

0000a030 <gpio_write>:
    a030:	e3510000 	cmp	r1, #0, 0
    a034:	e3a03001 	mov	r3, #1, 0
    a038:	e1a01000 	mov	r1, r0
    a03c:	0a000002 	beq	a04c <gpio_write+0x1c>
    a040:	e59f0010 	ldr	r0, [pc, #16]	; a058 <gpio_write+0x28>
    a044:	e1a01113 	lsl	r1, r3, r1
    a048:	eafff7f5 	b	8024 <PUT32>
    a04c:	e59f0008 	ldr	r0, [pc, #8]	; a05c <gpio_write+0x2c>
    a050:	e1a01113 	lsl	r1, r3, r1
    a054:	eafff7f2 	b	8024 <PUT32>
    a058:	2020001c 	eorcs	r0, r0, ip, lsl r0
    a05c:	20200028 	eorcs	r0, r0, r8, lsr #32

0000a060 <gpio_read>:
    a060:	e92d4010 	push	{r4, lr}
    a064:	e1a04000 	mov	r4, r0
    a068:	e59f0014 	ldr	r0, [pc, #20]	; a084 <gpio_read+0x24>
    a06c:	e08002a4 	add	r0, r0, r4, lsr #5
    a070:	ebfff7ed 	bl	802c <GET32>
    a074:	e204401f 	and	r4, r4, #31, 0
    a078:	e1a00430 	lsr	r0, r0, r4
    a07c:	e2000001 	and	r0, r0, #1, 0
    a080:	e8bd8010 	pop	{r4, pc}
    a084:	20200034 	eorcs	r0, r0, r4, lsr r0

0000a088 <internal_putchar>:
    a088:	e92d4010 	push	{r4, lr}
    a08c:	e1a04000 	mov	r4, r0
    a090:	ebfffe84 	bl	9aa8 <uart_putc>
    a094:	e1a00004 	mov	r0, r4
    a098:	e8bd8010 	pop	{r4, pc}

0000a09c <rpi_reset_putc>:
    a09c:	e59f3008 	ldr	r3, [pc, #8]	; a0ac <rpi_reset_putc+0x10>
    a0a0:	e59f2008 	ldr	r2, [pc, #8]	; a0b0 <rpi_reset_putc+0x14>
    a0a4:	e5832000 	str	r2, [r3]
    a0a8:	e12fff1e 	bx	lr
    a0ac:	0000a9c8 	andeq	sl, r0, r8, asr #19
    a0b0:	0000a088 	andeq	sl, r0, r8, lsl #1

0000a0b4 <rpi_set_putc>:
    a0b4:	e59f3004 	ldr	r3, [pc, #4]	; a0c0 <rpi_set_putc+0xc>
    a0b8:	e5830000 	str	r0, [r3]
    a0bc:	e12fff1e 	bx	lr
    a0c0:	0000a9c8 	andeq	sl, r0, r8, asr #19

0000a0c4 <strcat>:
    a0c4:	e1a02000 	mov	r2, r0
    a0c8:	e1a03002 	mov	r3, r2
    a0cc:	e4d2c001 	ldrb	ip, [r2], #1
    a0d0:	e35c0000 	cmp	ip, #0, 0
    a0d4:	1afffffb 	bne	a0c8 <strcat+0x4>
    a0d8:	e2433001 	sub	r3, r3, #1, 0
    a0dc:	e4d12001 	ldrb	r2, [r1], #1
    a0e0:	e3520000 	cmp	r2, #0, 0
    a0e4:	e5e32001 	strb	r2, [r3, #1]!
    a0e8:	1afffffb 	bne	a0dc <strcat+0x18>
    a0ec:	e12fff1e 	bx	lr

0000a0f0 <strcmp>:
    a0f0:	e5d03000 	ldrb	r3, [r0]
    a0f4:	e3530000 	cmp	r3, #0, 0
    a0f8:	05d12000 	ldrbeq	r2, [r1]
    a0fc:	1a000003 	bne	a110 <strcmp+0x20>
    a100:	ea000006 	b	a120 <strcmp+0x30>
    a104:	e5f03001 	ldrb	r3, [r0, #1]!
    a108:	e3530000 	cmp	r3, #0, 0
    a10c:	0a000005 	beq	a128 <strcmp+0x38>
    a110:	e1a0c001 	mov	ip, r1
    a114:	e4d12001 	ldrb	r2, [r1], #1
    a118:	e1520003 	cmp	r2, r3
    a11c:	0afffff8 	beq	a104 <strcmp+0x14>
    a120:	e0430002 	sub	r0, r3, r2
    a124:	e12fff1e 	bx	lr
    a128:	e5dc2001 	ldrb	r2, [ip, #1]
    a12c:	e0430002 	sub	r0, r3, r2
    a130:	e12fff1e 	bx	lr

0000a134 <strcpy>:
    a134:	e2402001 	sub	r2, r0, #1, 0
    a138:	e4d13001 	ldrb	r3, [r1], #1
    a13c:	e3530000 	cmp	r3, #0, 0
    a140:	e5e23001 	strb	r3, [r2, #1]!
    a144:	1afffffb 	bne	a138 <strcpy+0x4>
    a148:	e12fff1e 	bx	lr

0000a14c <strncmp>:
    a14c:	e0802002 	add	r2, r0, r2
    a150:	ea000003 	b	a164 <strncmp+0x18>
    a154:	e4d03001 	ldrb	r3, [r0], #1
    a158:	e4d1c001 	ldrb	ip, [r1], #1
    a15c:	e153000c 	cmp	r3, ip
    a160:	1a000003 	bne	a174 <strncmp+0x28>
    a164:	e1500002 	cmp	r0, r2
    a168:	1afffff9 	bne	a154 <strncmp+0x8>
    a16c:	e3a00000 	mov	r0, #0, 0
    a170:	e12fff1e 	bx	lr
    a174:	e043000c 	sub	r0, r3, ip
    a178:	e12fff1e 	bx	lr

0000a17c <reboot_callout>:
    a17c:	e12fff1e 	bx	lr

0000a180 <dev_barrier>:
    a180:	ea000002 	b	a190 <dsb>

0000a184 <dmb>:
    a184:	e3a00000 	mov	r0, #0, 0
    a188:	ee070fba 	mcr	15, 0, r0, cr7, cr10, {5}
    a18c:	e12fff1e 	bx	lr

0000a190 <dsb>:
    a190:	ee070f9a 	mcr	15, 0, r0, cr7, cr10, {4}
    a194:	e12fff1e 	bx	lr

Disassembly of section .rodata:

0000a198 <__FUNCTION__.4011-0x80>:
    a198:	74736574 	ldrbtvc	r6, [r3], #-1396	; 0xfffffa8c
    a19c:	61702f73 	cmnvs	r0, r3, ror pc
    a1a0:	2d327472 	cfldrscs	mvf7, [r2, #-456]!	; 0xfffffe38
    a1a4:	74736574 	ldrbtvc	r6, [r3], #-1396	; 0xfffffa8c
    a1a8:	00632e34 	rsbeq	r2, r3, r4, lsr lr
    a1ac:	494e4150 	stmdbmi	lr, {r4, r6, r8, lr}^
    a1b0:	73253a43 			; <UNDEFINED> instruction: 0x73253a43
    a1b4:	3a73253a 	bcc	1cd36a4 <__bss_end__+0x1cc88ac>
    a1b8:	253a6425 	ldrcs	r6, [sl, #-1061]!	; 0xfffffbdb
    a1bc:	00000a73 	andeq	r0, r0, r3, ror sl
    a1c0:	3e2d6821 	cdpcc	8, 2, cr6, cr13, cr1, {1}
    a1c4:	76657270 			; <UNDEFINED> instruction: 0x76657270
    a1c8:	00000000 	andeq	r0, r0, r0
    a1cc:	74204347 	strtvc	r4, [r0], #-839	; 0xfffffcb9
    a1d0:	3a747365 	bcc	1d26f6c <__bss_end__+0x1d1c174>
    a1d4:	65686320 	strbvs	r6, [r8, #-800]!	; 0xfffffce0
    a1d8:	6e696b63 	vnmulvs.f64	d22, d9, d19
    a1dc:	68742067 	ldmdavs	r4!, {r0, r1, r2, r5, r6, sp}^
    a1e0:	61207461 			; <UNDEFINED> instruction: 0x61207461
    a1e4:	756f6420 	strbvc	r6, [pc, #-1056]!	; 9dcc <kmalloc_aligned+0x6c>
    a1e8:	2d796c62 	ldclcs	12, cr6, [r9, #-392]!	; 0xfffffe78
    a1ec:	6b6e696c 	blvs	1ba47a4 <__bss_end__+0x1b999ac>
    a1f0:	6c206465 	cfstrsvs	mvf6, [r0], #-404	; 0xfffffe6c
    a1f4:	20747369 	rsbscs	r7, r4, r9, ror #6
    a1f8:	68207369 	stmdavs	r0!, {r0, r3, r5, r6, r8, r9, ip, sp, lr}
    a1fc:	6c646e61 	stclvs	14, cr6, [r4], #-388	; 0xfffffe7c
    a200:	0a2e6465 	beq	ba339c <__bss_end__+0xb985a4>
    a204:	00000000 	andeq	r0, r0, r0
    a208:	7473616c 	ldrbtvc	r6, [r3], #-364	; 0xfffffe94
    a20c:	6c6c6120 	stfvse	f6, [ip], #-128	; 0xffffff80
    a210:	3d20636f 	stccc	3, cr6, [r0, #-444]!	; 0xfffffe44
    a214:	000a7025 	andeq	r7, sl, r5, lsr #32

0000a218 <__FUNCTION__.4011>:
    a218:	74736574 	ldrbtvc	r6, [r3], #-1396	; 0xfffffa8c
    a21c:	00000000 	andeq	r0, r0, r0
    a220:	6c616b63 			; <UNDEFINED> instruction: 0x6c616b63
    a224:	2e636f6c 	cdpcs	15, 6, cr6, cr3, cr12, {3}
    a228:	00000063 	andeq	r0, r0, r3, rrx
    a22c:	0000006c 	andeq	r0, r0, ip, rrx
    a230:	494e4150 	stmdbmi	lr, {r4, r6, r8, lr}^
    a234:	73253a43 			; <UNDEFINED> instruction: 0x73253a43
    a238:	3a73253a 	bcc	1cd3728 <__bss_end__+0x1cc8930>
    a23c:	643a6425 	ldrtvs	r6, [sl], #-1061	; 0xfffffbdb
    a240:	6e206469 	cdpvs	4, 2, cr6, cr0, cr9, {3}
    a244:	6620746f 	strtvs	r7, [r0], -pc, ror #8
    a248:	20646e69 	rsbcs	r6, r4, r9, ror #28
    a24c:	69207025 	stmdbvs	r0!, {r0, r2, r5, ip, sp, lr}
    a250:	696c206e 	stmdbvs	ip!, {r1, r2, r3, r5, r6, sp}^
    a254:	0a0a7473 	beq	2a7428 <__bss_end__+0x29c630>
    a258:	00000000 	andeq	r0, r0, r0
    a25c:	6e756f66 	cdpvs	15, 7, cr6, cr5, cr6, {3}
    a260:	70252064 	eorvc	r2, r5, r4, rrx
    a264:	206e6920 	rsbcs	r6, lr, r0, lsr #18
    a268:	000a7025 	andeq	r7, sl, r5, lsr #32
    a26c:	253a7325 	ldrcs	r7, [sl, #-805]!	; 0xfffffcdb
    a270:	64253a73 	strtvs	r3, [r5], #-2675	; 0xfffff58d
    a274:	0000003a 	andeq	r0, r0, sl, lsr r0
    a278:	65657266 	strbvs	r7, [r5, #-614]!	; 0xfffffd9a
    a27c:	20676e69 	rsbcs	r6, r7, r9, ror #28
    a280:	0a702509 	beq	1c136ac <__bss_end__+0x1c088b4>
    a284:	00000000 	andeq	r0, r0, r0
    a288:	5f434f4c 	svcpl	0x00434f4c
    a28c:	494e4150 	stmdbmi	lr, {r4, r6, r8, lr}^
    a290:	25203a43 	strcs	r3, [r0, #-2627]!	; 0xfffff5bd
    a294:	73253a73 			; <UNDEFINED> instruction: 0x73253a73
    a298:	3a64253a 	bcc	1913788 <__bss_end__+0x1908990>
    a29c:	00000000 	andeq	r0, r0, r0
    a2a0:	65657266 	strbvs	r7, [r5, #-614]!	; 0xfffffd9a
    a2a4:	20676e69 	rsbcs	r6, r7, r9, ror #28
    a2a8:	6c616e75 	stclvs	14, cr6, [r1], #-468	; 0xfffffe2c
    a2ac:	61636f6c 	cmnvs	r3, ip, ror #30
    a2b0:	20646574 	rsbcs	r6, r4, r4, ror r5
    a2b4:	6f6d656d 	svcvs	0x006d656d
    a2b8:	203a7972 	eorscs	r7, sl, r2, ror r9
    a2bc:	74617473 	strbtvc	r7, [r1], #-1139	; 0xfffffb8d
    a2c0:	64253d65 	strtvs	r3, [r5], #-3429	; 0xfffff29b
    a2c4:	0000000a 	andeq	r0, r0, sl
    a2c8:	705f6b63 	subsvc	r6, pc, r3, ror #22
    a2cc:	695f7274 	ldmdbvs	pc, {r2, r4, r5, r6, r9, ip, sp, lr}^	; <UNPREDICTABLE>
    a2d0:	6c615f73 	stclvs	15, cr5, [r1], #-460	; 0xfffffe34
    a2d4:	65636f6c 	strbvs	r6, [r3, #-3948]!	; 0xfffff094
    a2d8:	64612864 	strbtvs	r2, [r1], #-2148	; 0xfffff79c
    a2dc:	00297264 	eoreq	r7, r9, r4, ror #4
    a2e0:	6f6c6c61 	svcvs	0x006c6c61
    a2e4:	69746163 	ldmdbvs	r4!, {r0, r1, r5, r6, r8, sp, lr}^
    a2e8:	0920676e 	stmdbeq	r0!, {r1, r2, r3, r5, r6, r8, r9, sl, sp, lr}
    a2ec:	000a7025 	andeq	r7, sl, r5, lsr #32

0000a2f0 <__FUNCTION__.4039>:
    a2f0:	7473696c 	ldrbtvc	r6, [r3], #-2412	; 0xfffff694
    a2f4:	6d65725f 	sfmvs	f7, 2, [r5, #-380]!	; 0xfffffe84
    a2f8:	0065766f 	rsbeq	r7, r5, pc, ror #12

0000a2fc <__FUNCTION__.4050>:
    a2fc:	72666b63 	rsbvc	r6, r6, #101376	; 0x18c00
    a300:	00006565 	andeq	r6, r0, r5, ror #10
    a304:	672d6b63 	strvs	r6, [sp, -r3, ror #22]!
    a308:	00632e63 	rsbeq	r2, r3, r3, ror #28
    a30c:	203c2070 	eorscs	r2, ip, r0, ror r0
    a310:	00000065 	andeq	r0, r0, r5, rrx
    a314:	67696c61 	strbvs	r6, [r9, -r1, ror #24]!
    a318:	2864656e 	stmdacs	r4!, {r1, r2, r3, r5, r6, r8, sl, sp, lr}^
    a31c:	34202c70 	strtcc	r2, [r0], #-3184	; 0xfffff390
    a320:	00000029 	andeq	r0, r0, r9, lsr #32
    a324:	67696c61 	strbvs	r6, [r9, -r1, ror #24]!
    a328:	2864656e 	stmdacs	r4!, {r1, r2, r3, r5, r6, r8, sl, sp, lr}^
    a32c:	34202c65 	strtcc	r2, [r0], #-3173	; 0xfffff39b
    a330:	00000029 	andeq	r0, r0, r9, lsr #32
    a334:	6e696f67 	cdpvs	15, 6, cr6, cr9, cr7, {3}
    a338:	6f742067 	svcvs	0x00742067
    a33c:	72616d20 	rsbvc	r6, r1, #32, 26	; 0x800
    a340:	7025206b 	eorvc	r2, r5, fp, rrx
    a344:	20692820 	rsbcs	r2, r9, r0, lsr #16
    a348:	70252040 	eorvc	r2, r5, r0, asr #32
    a34c:	25203d20 	strcs	r3, [r0, #-3360]!	; 0xfffff2e0
    a350:	202c2970 	eorcs	r2, ip, r0, ror r9
    a354:	20707865 	rsbscs	r7, r0, r5, ror #16
    a358:	7025203d 	eorvc	r2, r5, sp, lsr r0
    a35c:	0000000a 	andeq	r0, r0, sl
    a360:	6b72616d 	blvs	1ca291c <__bss_end__+0x1c97b24>
    a364:	20676e69 	rsbcs	r6, r7, r9, ror #28
    a368:	25207361 	strcs	r7, [r0, #-865]!	; 0xfffffc9f
    a36c:	00000a64 	andeq	r0, r0, r4, ror #20
    a370:	20746f6e 	rsbscs	r6, r4, lr, ror #30
    a374:	6b72616d 	blvs	1ca2930 <__bss_end__+0x1c97b38>
    a378:	21676e69 	cmncs	r7, r9, ror #28
    a37c:	0000000a 	andeq	r0, r0, sl
    a380:	63656863 	cmnvs	r5, #6488064	; 0x630000
    a384:	676e696b 	strbvs	r6, [lr, -fp, ror #18]!
    a388:	61747320 	cmnvs	r4, r0, lsr #6
    a38c:	203a6b63 	eorscs	r6, sl, r3, ror #22
    a390:	74207025 	strtvc	r7, [r0], #-37	; 0xffffffdb
    a394:	7025206f 	eorvc	r2, r5, pc, rrx
    a398:	0000000a 	andeq	r0, r0, sl
    a39c:	2d2d2d2d 	stccs	13, cr2, [sp, #-180]!	; 0xffffff4c
    a3a0:	2d2d2d2d 	stccs	13, cr2, [sp, #-180]!	; 0xffffff4c
    a3a4:	2d2d2d2d 	stccs	13, cr2, [sp, #-180]!	; 0xffffff4c
    a3a8:	2d2d2d2d 	stccs	13, cr2, [sp, #-180]!	; 0xffffff4c
    a3ac:	2d2d2d2d 	stccs	13, cr2, [sp, #-180]!	; 0xffffff4c
    a3b0:	2d2d2d2d 	stccs	13, cr2, [sp, #-180]!	; 0xffffff4c
    a3b4:	2d2d2d2d 	stccs	13, cr2, [sp, #-180]!	; 0xffffff4c
    a3b8:	2d2d2d2d 	stccs	13, cr2, [sp, #-180]!	; 0xffffff4c
    a3bc:	2d2d2d2d 	stccs	13, cr2, [sp, #-180]!	; 0xffffff4c
    a3c0:	2d2d2d2d 	stccs	13, cr2, [sp, #-180]!	; 0xffffff4c
    a3c4:	2d2d2d2d 	stccs	13, cr2, [sp, #-180]!	; 0xffffff4c
    a3c8:	2d2d2d2d 	stccs	13, cr2, [sp, #-180]!	; 0xffffff4c
    a3cc:	2d2d2d2d 	stccs	13, cr2, [sp, #-180]!	; 0xffffff4c
    a3d0:	2d2d2d2d 	stccs	13, cr2, [sp, #-180]!	; 0xffffff4c
    a3d4:	00000a2d 	andeq	r0, r0, sp, lsr #20
    a3d8:	63656863 	cmnvs	r5, #6488064	; 0x630000
    a3dc:	676e696b 	strbvs	r6, [lr, -fp, ror #18]!
    a3e0:	726f6620 	rsbvc	r6, pc, #32, 12	; 0x2000000
    a3e4:	61656c20 	cmnvs	r5, r0, lsr #24
    a3e8:	0a3a736b 	beq	ea719c <__bss_end__+0xe9c3a4>
    a3ec:	00000000 	andeq	r0, r0, r0
    a3f0:	4c3a4347 	ldcmi	3, cr4, [sl], #-284	; 0xfffffee4
    a3f4:	2054534f 	subscs	r5, r4, pc, asr #6
    a3f8:	2d206425 	cfstrscs	mvf6, [r0, #-148]!	; 0xffffff6c
    a3fc:	7025203e 	eorvc	r2, r5, lr, lsr r0
    a400:	0000000a 	andeq	r0, r0, sl
    a404:	4d3a4347 	ldcmi	3, cr4, [sl, #-284]!	; 0xfffffee4
    a408:	45425941 	strbmi	r5, [r2, #-2369]	; 0xfffff6bf
    a40c:	534f4c20 	movtpl	r4, #64544	; 0xfc20
    a410:	64252054 	strtvs	r2, [r5], #-84	; 0xffffffac
    a414:	203e2d20 	eorscs	r2, lr, r0, lsr #26
    a418:	000a7025 	andeq	r7, sl, r5, lsr #32
    a41c:	43415254 	movtmi	r5, #4692	; 0x1254
    a420:	00003a45 	andeq	r3, r0, r5, asr #20
    a424:	3a434709 	bcc	10dc050 <__bss_end__+0x10d1258>
    a428:	63656843 	cmnvs	r5, #4390912	; 0x430000
    a42c:	2064656b 	rsbcs	r6, r4, fp, ror #10
    a430:	62206425 	eorvs	r6, r0, #620756992	; 0x25000000
    a434:	6b636f6c 	blvs	18e61ec <__bss_end__+0x18db3f4>
    a438:	000a2e73 	andeq	r2, sl, r3, ror lr
    a43c:	43470909 	movtmi	r0, #30985	; 0x7909
    a440:	4355533a 	cmpmi	r5, #-402653184	; 0xe8000000
    a444:	53534543 	cmppl	r3, #281018368	; 0x10c00000
    a448:	6f4e203a 	svcvs	0x004e203a
    a44c:	61656c20 	cmnvs	r5, r0, lsr #24
    a450:	6620736b 	strtvs	r7, [r0], -fp, ror #6
    a454:	646e756f 	strbtvs	r7, [lr], #-1391	; 0xfffffa91
    a458:	00000a21 	andeq	r0, r0, r1, lsr #20
    a45c:	43470909 	movtmi	r0, #30985	; 0x7909
    a460:	5252453a 	subspl	r4, r2, #243269632	; 0xe800000
    a464:	3a53524f 	bcc	14deda8 <__bss_end__+0x14d3fb0>
    a468:	20642520 	rsbcs	r2, r4, r0, lsr #10
    a46c:	6f727265 	svcvs	0x00727265
    a470:	202c7372 	eorcs	r7, ip, r2, ror r3
    a474:	6d206425 	cfstrsvs	mvf6, [r0, #-148]!	; 0xffffff6c
    a478:	65627961 	strbvs	r7, [r2, #-2401]!	; 0xfffff69f
    a47c:	7272655f 	rsbsvc	r6, r2, #398458880	; 0x17c00000
    a480:	0a73726f 	beq	1ce6e44 <__bss_end__+0x1cdc04c>
    a484:	00000000 	andeq	r0, r0, r0
    a488:	2d2d2d2d 	stccs	13, cr2, [sp, #-180]!	; 0xffffff4c
    a48c:	2d2d2d2d 	stccs	13, cr2, [sp, #-180]!	; 0xffffff4c
    a490:	2d2d2d2d 	stccs	13, cr2, [sp, #-180]!	; 0xffffff4c
    a494:	2d2d2d2d 	stccs	13, cr2, [sp, #-180]!	; 0xffffff4c
    a498:	2d2d2d2d 	stccs	13, cr2, [sp, #-180]!	; 0xffffff4c
    a49c:	2d2d2d2d 	stccs	13, cr2, [sp, #-180]!	; 0xffffff4c
    a4a0:	2d2d2d2d 	stccs	13, cr2, [sp, #-180]!	; 0xffffff4c
    a4a4:	2d2d2d2d 	stccs	13, cr2, [sp, #-180]!	; 0xffffff4c
    a4a8:	2d2d2d2d 	stccs	13, cr2, [sp, #-180]!	; 0xffffff4c
    a4ac:	2d2d2d2d 	stccs	13, cr2, [sp, #-180]!	; 0xffffff4c
    a4b0:	2d2d2d2d 	stccs	13, cr2, [sp, #-180]!	; 0xffffff4c
    a4b4:	2d2d2d2d 	stccs	13, cr2, [sp, #-180]!	; 0xffffff4c
    a4b8:	2d2d2d2d 	stccs	13, cr2, [sp, #-180]!	; 0xffffff4c
    a4bc:	2d2d2d2d 	stccs	13, cr2, [sp, #-180]!	; 0xffffff4c
    a4c0:	000a2d2d 	andeq	r2, sl, sp, lsr #26
    a4c4:	706d6f63 	rsbvc	r6, sp, r3, ror #30
    a4c8:	69746361 	ldmdbvs	r4!, {r0, r5, r6, r8, r9, sp, lr}^
    a4cc:	0a3a676e 	beq	ea428c <__bss_end__+0xe99494>
    a4d0:	00000000 	andeq	r0, r0, r0
    a4d4:	463a4347 	ldrtmi	r4, [sl], -r7, asr #6
    a4d8:	44454552 	strbmi	r4, [r5], #-1362	; 0xfffffaae
    a4dc:	0a702520 	beq	1c13964 <__bss_end__+0x1c08b6c>
    a4e0:	00000000 	andeq	r0, r0, r0
    a4e4:	3a434709 	bcc	10dc110 <__bss_end__+0x10d1318>
    a4e8:	63656843 	cmnvs	r5, #4390912	; 0x430000
    a4ec:	2064656b 	rsbcs	r6, r4, fp, ror #10
    a4f0:	62206425 	eorvs	r6, r0, #620756992	; 0x25000000
    a4f4:	6b636f6c 	blvs	18e62ac <__bss_end__+0x18db4b4>
    a4f8:	66202c73 			; <UNDEFINED> instruction: 0x66202c73
    a4fc:	64656572 	strbtvs	r6, [r5], #-1394	; 0xfffffa8e
    a500:	2c642520 	cfstr64cs	mvdx2, [r4], #-128	; 0xffffff80
    a504:	20642520 	rsbcs	r2, r4, r0, lsr #10
    a508:	65747962 	ldrbvs	r7, [r4, #-2402]!	; 0xfffff69e
    a50c:	00000a73 	andeq	r0, r0, r3, ror sl
    a510:	72636e69 	rsbvc	r6, r3, #1680	; 0x690
    a514:	6e656d65 	cdpvs	13, 6, cr6, cr5, cr5, {3}
    a518:	203e2074 	eorscs	r2, lr, r4, ror r0
    a51c:	00000030 	andeq	r0, r0, r0, lsr r0
    a520:	494e4150 	stmdbmi	lr, {r4, r6, r8, lr}^
    a524:	73253a43 			; <UNDEFINED> instruction: 0x73253a43
    a528:	3a73253a 	bcc	1cd3a18 <__bss_end__+0x1cc8c20>
    a52c:	6e3a6425 	cdpvs	4, 3, cr6, cr10, cr5, {1}
    a530:	6820746f 	stmdavs	r0!, {r0, r1, r2, r3, r5, r6, sl, ip, sp, lr}
    a534:	6c646e61 	stclvs	14, cr6, [r4], #-388	; 0xfffffe7c
    a538:	0a676e69 	beq	19e5ee4 <__bss_end__+0x19db0ec>
    a53c:	0000000a 	andeq	r0, r0, sl
    a540:	494e4150 	stmdbmi	lr, {r4, r6, r8, lr}^
    a544:	73253a43 			; <UNDEFINED> instruction: 0x73253a43
    a548:	3a73253a 	bcc	1cd3a38 <__bss_end__+0x1cc8c40>
    a54c:	473a6425 	ldrmi	r6, [sl, -r5, lsr #8]!
    a550:	73203a43 			; <UNDEFINED> instruction: 0x73203a43
    a554:	6c756f68 	ldclvs	15, cr6, [r5], #-416	; 0xfffffe60
    a558:	61682064 	cmnvs	r8, r4, rrx
    a55c:	6e206576 	mcrvs	5, 1, r6, cr0, cr6, {3}
    a560:	656c206f 	strbvs	r2, [ip, #-111]!	; 0xffffff91
    a564:	21736b61 	cmncs	r3, r1, ror #22
    a568:	00000a0a 	andeq	r0, r0, sl, lsl #20
    a56c:	203a4347 	eorscs	r4, sl, r7, asr #6
    a570:	43435553 	movtmi	r5, #13651	; 0x3553
    a574:	3a535345 	bcc	14df290 <__bss_end__+0x14d4498>
    a578:	206f6e20 	rsbcs	r6, pc, r0, lsr #28
    a57c:	6b61656c 	blvs	1863b34 <__bss_end__+0x1858d3c>
    a580:	000a2173 	andeq	r2, sl, r3, ror r1
    a584:	494e4150 	stmdbmi	lr, {r4, r6, r8, lr}^
    a588:	73253a43 			; <UNDEFINED> instruction: 0x73253a43
    a58c:	3a73253a 	bcc	1cd3a7c <__bss_end__+0x1cc8c84>
    a590:	473a6425 	ldrmi	r6, [sl, -r5, lsr #8]!
    a594:	73203a43 			; <UNDEFINED> instruction: 0x73203a43
    a598:	6c756f68 	ldclvs	15, cr6, [r5], #-416	; 0xfffffe60
    a59c:	61682064 	cmnvs	r8, r4, rrx
    a5a0:	6c206576 	cfstr32vs	mvfx6, [r0], #-472	; 0xfffffe28
    a5a4:	736b6165 	cmnvc	fp, #1073741849	; 0x40000019
    a5a8:	000a0a21 	andeq	r0, sl, r1, lsr #20
    a5ac:	203a4347 	eorscs	r4, sl, r7, asr #6
    a5b0:	43435553 	movtmi	r5, #13651	; 0x3553
    a5b4:	3a535345 	bcc	14df2d0 <__bss_end__+0x14d44d8>
    a5b8:	756f6620 	strbvc	r6, [pc, #-1568]!	; 9fa0 <gpio_set_output+0x50>
    a5bc:	2520646e 	strcs	r6, [r0, #-1134]!	; 0xfffffb92
    a5c0:	656c2064 	strbvs	r2, [ip, #-100]!	; 0xffffff9c
    a5c4:	21736b61 	cmncs	r3, r1, ror #22
    a5c8:	0000000a 	andeq	r0, r0, sl
    a5cc:	494e4150 	stmdbmi	lr, {r4, r6, r8, lr}^
    a5d0:	73253a43 			; <UNDEFINED> instruction: 0x73253a43
    a5d4:	3a73253a 	bcc	1cd3ac4 <__bss_end__+0x1cc8ccc>
    a5d8:	643a6425 	ldrtvs	r6, [sl], #-1061	; 0xfffffbdb
    a5dc:	6e206469 	cdpvs	4, 2, cr6, cr0, cr9, {3}
    a5e0:	6920746f 	stmdbvs	r0!, {r0, r1, r2, r3, r5, r6, sl, ip, sp, lr}
    a5e4:	656c706d 	strbvs	r7, [ip, #-109]!	; 0xffffff93
    a5e8:	746e656d 	strbtvc	r6, [lr], #-1389	; 0xfffffa93
    a5ec:	6d756420 	cfldrdvs	mvd6, [r5, #-128]!	; 0xffffff80
    a5f0:	65725f70 	ldrbvs	r5, [r2, #-3952]!	; 0xfffff090
    a5f4:	0a217367 	beq	867398 <__bss_end__+0x85c5a0>
    a5f8:	0000000a 	andeq	r0, r0, sl

0000a5fc <__FUNCTION__.4026>:
    a5fc:	6b72616d 	blvs	1ca2bb8 <__bss_end__+0x1c97dc0>
    a600:	00000000 	andeq	r0, r0, r0

0000a604 <__FUNCTION__.4082>:
    a604:	65657773 	strbvs	r7, [r5, #-1907]!	; 0xfffff88d
    a608:	72665f70 	rsbvc	r5, r6, #112, 30	; 0x1c0
    a60c:	00006565 	andeq	r6, r0, r5, ror #10

0000a610 <__FUNCTION__.4013>:
    a610:	6b726273 	blvs	1ca2fe4 <__bss_end__+0x1c981ec>
    a614:	00000000 	andeq	r0, r0, r0

0000a618 <__FUNCTION__.4069>:
    a618:	63656863 	cmnvs	r5, #6488064	; 0x630000
    a61c:	6f6e5f6b 	svcvs	0x006e5f6b
    a620:	61656c5f 	cmnvs	r5, pc, asr ip
    a624:	0000006b 	andeq	r0, r0, fp, rrx

0000a628 <__FUNCTION__.4074>:
    a628:	63656863 	cmnvs	r5, #6488064	; 0x630000
    a62c:	68735f6b 	ldmdavs	r3!, {r0, r1, r3, r5, r6, r8, r9, sl, fp, ip, lr}^
    a630:	646c756f 	strbtvs	r7, [ip], #-1391	; 0xfffffa91
    a634:	61656c5f 	cmnvs	r5, pc, asr ip
    a638:	0000006b 	andeq	r0, r0, fp, rrx

0000a63c <__FUNCTION__.4093>:
    a63c:	6c706d69 	ldclvs	13, cr6, [r0], #-420	; 0xfffffe5c
    a640:	6e656d65 	cdpvs	13, 6, cr6, cr5, cr5, {3}
    a644:	68745f74 	ldmdavs	r4!, {r2, r4, r5, r6, r8, r9, sl, fp, ip, lr}^
    a648:	00007369 	andeq	r7, r0, r9, ror #6
    a64c:	696c2f2e 	stmdbvs	ip!, {r1, r2, r3, r5, r8, r9, sl, fp, sp}^
    a650:	762f6362 	strtvc	r6, [pc], -r2, ror #6
    a654:	72702d61 	rsbsvc	r2, r0, #6208	; 0x1840
    a658:	6b746e69 	blvs	1d26004 <__bss_end__+0x1d1b20c>
    a65c:	0000632e 	andeq	r6, r0, lr, lsr #6
    a660:	33323130 	teqcc	r2, #12
    a664:	37363534 			; <UNDEFINED> instruction: 0x37363534
    a668:	62613938 	rsbvs	r3, r1, #56, 18	; 0xe0000
    a66c:	66656463 	strbtvs	r6, [r5], -r3, ror #8
    a670:	00000000 	andeq	r0, r0, r0
    a674:	00003130 	andeq	r3, r0, r0, lsr r1
    a678:	33323130 	teqcc	r2, #12
    a67c:	37363534 			; <UNDEFINED> instruction: 0x37363534
    a680:	00003938 	andeq	r3, r0, r8, lsr r9
    a684:	63747570 	cmnvs	r4, #112, 10	; 0x1c000000
    a688:	0070665f 	rsbseq	r6, r0, pc, asr r6
    a68c:	74646977 	strbtvc	r6, [r4], #-2423	; 0xfffff689
    a690:	203c2068 	eorscs	r2, ip, r8, rrx
    a694:	00003233 	andeq	r3, r0, r3, lsr r2
    a698:	00786c6c 	rsbseq	r6, r8, ip, ror #24
    a69c:	253d3078 	ldrcs	r3, [sp, #-120]!	; 0xffffff88
    a6a0:	00000a78 	andeq	r0, r0, r8, ror sl
    a6a4:	253d3178 	ldrcs	r3, [sp, #-376]!	; 0xfffffe88
    a6a8:	00000a78 	andeq	r0, r0, r8, ror sl
    a6ac:	00646c6c 	rsbeq	r6, r4, ip, ror #24
    a6b0:	6e727473 	mrcvs	4, 3, r7, cr2, cr3, {3}
    a6b4:	28706d63 	ldmdacs	r0!, {r0, r1, r5, r6, r8, sl, fp, sp, lr}^
    a6b8:	202c7974 	eorcs	r7, ip, r4, ror r9
    a6bc:	786c6c22 	stmdavc	ip!, {r1, r5, sl, fp, sp, lr}^
    a6c0:	33202c22 			; <UNDEFINED> instruction: 0x33202c22
    a6c4:	3d3d2029 	ldccc	0, cr2, [sp, #-164]!	; 0xffffff5c
    a6c8:	7c203020 	stcvc	0, cr3, [r0], #-128	; 0xffffff80
    a6cc:	7473207c 	ldrbtvc	r2, [r3], #-124	; 0xffffff84
    a6d0:	6d636e72 	stclvs	14, cr6, [r3, #-456]!	; 0xfffffe38
    a6d4:	79742870 	ldmdbvc	r4!, {r4, r5, r6, fp, sp}^
    a6d8:	6c22202c 	stcvs	0, cr2, [r2], #-176	; 0xffffff50
    a6dc:	2c22646c 	cfstrscs	mvf6, [r2], #-432	; 0xfffffe50
    a6e0:	20293320 	eorcs	r3, r9, r0, lsr #6
    a6e4:	30203d3d 	eorcc	r3, r0, sp, lsr sp
    a6e8:	00000000 	andeq	r0, r0, r0
    a6ec:	494e4150 	stmdbmi	lr, {r4, r6, r8, lr}^
    a6f0:	73253a43 			; <UNDEFINED> instruction: 0x73253a43
    a6f4:	3a73253a 	bcc	1cd3be4 <__bss_end__+0x1cc8dec>
    a6f8:	693a6425 	ldmdbvs	sl!, {r0, r2, r5, sl, sp, lr}
    a6fc:	736f706d 	cmnvc	pc, #109, 0	; 0x6d
    a700:	6c626973 			; <UNDEFINED> instruction: 0x6c626973
    a704:	66203a65 	strtvs	r3, [r0], -r5, ror #20
    a708:	3c3d746d 	cfldrscc	mvf7, [sp], #-436	; 0xfffffe4c
    a70c:	0a3e7325 	beq	fa73a8 <__bss_end__+0xf9c5b0>
    a710:	0000000a 	andeq	r0, r0, sl
    a714:	494e4150 	stmdbmi	lr, {r4, r6, r8, lr}^
    a718:	73253a43 			; <UNDEFINED> instruction: 0x73253a43
    a71c:	3a73253a 	bcc	1cd3c0c <__bss_end__+0x1cc8e14>
    a720:	663a6425 	ldrtvs	r6, [sl], -r5, lsr #8
    a724:	74616f6c 	strbtvc	r6, [r1], #-3948	; 0xfffff094
    a728:	746f6e20 	strbtvc	r6, [pc], #-3616	; a730 <__FUNCTION__.4093+0xf4>
    a72c:	616e6520 	cmnvs	lr, r0, lsr #10
    a730:	64656c62 	strbtvs	r6, [r5], #-3170	; 0xfffff39e
    a734:	0a212121 	beq	852bc0 <__bss_end__+0x847dc8>
    a738:	00000000 	andeq	r0, r0, r0
    a73c:	6e697270 	mcrvs	2, 3, r7, cr9, cr0, {3}
    a740:	203a6b74 	eorscs	r6, sl, r4, ror fp
    a744:	20746f6e 	rsbscs	r6, r4, lr, ror #30
    a748:	646e6168 	strbtvs	r6, [lr], #-360	; 0xfffffe98
    a74c:	676e696c 	strbvs	r6, [lr, -ip, ror #18]!
    a750:	65707320 	ldrbvs	r7, [r0, #-800]!	; 0xfffffce0
    a754:	69666963 	stmdbvs	r6!, {r0, r1, r5, r6, r8, fp, sp, lr}^
    a758:	27207265 	strcs	r7, [r0, -r5, ror #4]!
    a75c:	20276325 	eorcs	r6, r7, r5, lsr #6
    a760:	63736128 	cmnvs	r3, #10
    a764:	253d6969 	ldrcs	r6, [sp, #-2409]!	; 0xfffff697
    a768:	000a2964 	andeq	r2, sl, r4, ror #18
    a76c:	494e4150 	stmdbmi	lr, {r4, r6, r8, lr}^
    a770:	73253a43 			; <UNDEFINED> instruction: 0x73253a43
    a774:	3a73253a 	bcc	1cd3c64 <__bss_end__+0x1cc8e6c>
    a778:	703a6425 	eorsvc	r6, sl, r5, lsr #8
    a77c:	746e6972 	strbtvc	r6, [lr], #-2418	; 0xfffff68e
    a780:	7265206b 	rsbvc	r2, r5, #107, 0	; 0x6b
    a784:	0a726f72 	beq	1ca6554 <__bss_end__+0x1c9b75c>
    a788:	0000000a 	andeq	r0, r0, sl

0000a78c <__FUNCTION__.4004>:
    a78c:	74696d65 	strbtvc	r6, [r9], #-3429	; 0xfffff29b
    a790:	00000000 	andeq	r0, r0, r0

0000a794 <__FUNCTION__.3952>:
    a794:	5f697072 	svcpl	0x00697072
    a798:	5f746573 	svcpl	0x00746573
    a79c:	7074756f 	rsbsvc	r7, r4, pc, ror #10
    a7a0:	00007475 	andeq	r7, r0, r5, ror r4

0000a7a4 <__FUNCTION__.4030>:
    a7a4:	705f6176 	subsvc	r6, pc, r6, ror r1	; <UNPREDICTABLE>
    a7a8:	746e6972 	strbtvc	r6, [lr], #-2418	; 0xfffff68e
    a7ac:	0000006b 	andeq	r0, r0, fp, rrx
    a7b0:	454e4f44 	strbmi	r4, [lr, #-3908]	; 0xfffff0bc
    a7b4:	0a212121 	beq	852c40 <__bss_end__+0x847e48>
    a7b8:	00000000 	andeq	r0, r0, r0
    a7bc:	6c616d6b 	stclvs	13, cr6, [r1], #-428	; 0xfffffe54
    a7c0:	2e636f6c 	cdpcs	15, 6, cr6, cr3, cr12, {3}
    a7c4:	00000063 	andeq	r0, r0, r3, rrx
    a7c8:	5f78616d 	svcpl	0x0078616d
    a7cc:	7479626e 	ldrbtvc	r6, [r9], #-622	; 0xfffffd92
    a7d0:	00007365 	andeq	r7, r0, r5, ror #6
    a7d4:	494e4150 	stmdbmi	lr, {r4, r6, r8, lr}^
    a7d8:	73253a43 			; <UNDEFINED> instruction: 0x73253a43
    a7dc:	3a73253a 	bcc	1cd3ccc <__bss_end__+0x1cc8ed4>
    a7e0:	733a6425 	teqvc	sl, #620756992	; 0x25000000
    a7e4:	69747465 	ldmdbvs	r4!, {r0, r2, r5, r6, sl, ip, sp, lr}^
    a7e8:	6820676e 	stmdavs	r0!, {r1, r2, r3, r5, r6, r8, r9, sl, sp, lr}
    a7ec:	20706165 	rsbscs	r6, r0, r5, ror #2
    a7f0:	25206f74 	strcs	r6, [r0, #-3956]!	; 0xfffff08c
    a7f4:	77203a70 			; <UNDEFINED> instruction: 0x77203a70
    a7f8:	206c6c69 	rsbcs	r6, ip, r9, ror #24
    a7fc:	20746968 	rsbscs	r6, r4, r8, ror #18
    a800:	20656874 	rsbcs	r6, r5, r4, ror r8
    a804:	20646c6f 	rsbcs	r6, r4, pc, ror #24
    a808:	70616568 	rsbvc	r6, r1, r8, ror #10
    a80c:	20746120 	rsbscs	r6, r4, r0, lsr #2
    a810:	0a0a7025 	beq	2a68ac <__bss_end__+0x29bab4>
    a814:	00000000 	andeq	r0, r0, r0
    a818:	494e4150 	stmdbmi	lr, {r4, r6, r8, lr}^
    a81c:	73253a43 			; <UNDEFINED> instruction: 0x73253a43
    a820:	3a73253a 	bcc	1cd3d10 <__bss_end__+0x1cc8f18>
    a824:	613a6425 	teqvs	sl, r5, lsr #8
    a828:	6165726c 	cmnvs	r5, ip, ror #4
    a82c:	63207964 			; <UNDEFINED> instruction: 0x63207964
    a830:	656c6c61 	strbvs	r6, [ip, #-3169]!	; 0xfffff39f
    a834:	6d6b2064 	stclvs	0, cr2, [fp, #-400]!	; 0xfffffe70
    a838:	6f6c6c61 	svcvs	0x006c6c61
    a83c:	6e695f63 	cdpvs	15, 6, cr5, cr9, cr3, {3}
    a840:	0a0a7469 	beq	2a79ec <__bss_end__+0x29cbf4>
    a844:	00000000 	andeq	r0, r0, r0
    a848:	494e4150 	stmdbmi	lr, {r4, r6, r8, lr}^
    a84c:	73253a43 			; <UNDEFINED> instruction: 0x73253a43
    a850:	3a73253a 	bcc	1cd3d40 <__bss_end__+0x1cc8f48>
    a854:	253a6425 	ldrcs	r6, [sl, #-1061]!	; 0xfffffbdb
    a858:	626e2064 	rsbvs	r2, lr, #100, 0	; 0x64
    a85c:	73657479 	cmnvc	r5, #2030043136	; 0x79000000
    a860:	63786520 	cmnvs	r8, #32, 10	; 0x8000000
    a864:	65646565 	strbvs	r6, [r4, #-1381]!	; 0xfffffa9b
    a868:	69732064 	ldmdbvs	r3!, {r2, r5, r6, sp}^
    a86c:	6f20657a 	svcvs	0x0020657a
    a870:	65682066 	strbvs	r2, [r8, #-102]!	; 0xffffff9a
    a874:	62207061 	eorvs	r7, r0, #97, 0	; 0x61
    a878:	75252079 	strvc	r2, [r5, #-121]!	; 0xffffff87
    a87c:	79626e20 	stmdbvc	r2!, {r5, r9, sl, fp, sp, lr}^
    a880:	0a736574 	beq	1ce3e58 <__bss_end__+0x1cd9060>
    a884:	0000000a 	andeq	r0, r0, sl
    a888:	4f525245 	svcmi	0x00525245
    a88c:	73253a52 			; <UNDEFINED> instruction: 0x73253a52
    a890:	3a73253a 	bcc	1cd3d80 <__bss_end__+0x1cc8f88>
    a894:	203a6425 	eorscs	r6, sl, r5, lsr #8
    a898:	534c4146 	movtpl	r4, #49478	; 0xc146
    a89c:	253c2845 	ldrcs	r2, [ip, #-2117]!	; 0xfffff7bb
    a8a0:	3a293e73 	bcc	a5a274 <__bss_end__+0xa4f47c>
    a8a4:	73736120 	cmnvc	r3, #8
    a8a8:	6e696d75 	mcrvs	13, 3, r6, cr9, cr5, {3}
    a8ac:	6f702067 	svcvs	0x00702067
    a8b0:	20726577 	rsbscs	r6, r2, r7, ror r5
    a8b4:	7420666f 	strtvc	r6, [r0], #-1647	; 0xfffff991
    a8b8:	000a6f77 	andeq	r6, sl, r7, ror pc
    a8bc:	705f7369 	subsvc	r7, pc, r9, ror #6
    a8c0:	2832776f 	ldmdacs	r2!, {r0, r1, r2, r3, r5, r6, r8, r9, sl, ip, sp, lr}
    a8c4:	67696c61 	strbvs	r6, [r9, -r1, ror #24]!
    a8c8:	6e656d6e 	cdpvs	13, 6, cr6, cr5, cr14, {3}
    a8cc:	00002974 	andeq	r2, r0, r4, ror r9
    a8d0:	705f7369 	subsvc	r7, pc, r9, ror #6
    a8d4:	2832776f 	ldmdacs	r2!, {r0, r1, r2, r3, r5, r6, r8, r9, sl, ip, sp, lr}
    a8d8:	0000296e 	andeq	r2, r0, lr, ror #18
    a8dc:	4f525245 	svcmi	0x00525245
    a8e0:	73253a52 			; <UNDEFINED> instruction: 0x73253a52
    a8e4:	3a73253a 	bcc	1cd3dd4 <__bss_end__+0x1cc8fdc>
    a8e8:	203a6425 	eorscs	r6, sl, r5, lsr #8
    a8ec:	534c4146 	movtpl	r4, #49478	; 0xc146
    a8f0:	253c2845 	ldrcs	r2, [ip, #-2117]!	; 0xfffff7bb
    a8f4:	3a293e73 	bcc	a5a2c8 <__bss_end__+0xa4f4d0>
    a8f8:	706d6920 	rsbvc	r6, sp, r0, lsr #18
    a8fc:	6973736f 	ldmdbvs	r3!, {r0, r1, r2, r3, r5, r6, r8, r9, ip, sp, lr}^
    a900:	0a656c62 	beq	1965a90 <__bss_end__+0x195ac98>
    a904:	00000000 	andeq	r0, r0, r0
    a908:	615f7369 	cmpvs	pc, r9, ror #6
    a90c:	6e67696c 	vnmulvs.f16	s13, s14, s25	; <UNPREDICTABLE>
    a910:	68286465 	stmdavs	r8!, {r0, r2, r5, r6, sl, sp, lr}
    a914:	6c61202c 	stclvs	0, cr2, [r1], #-176	; 0xffffff50
    a918:	6d6e6769 	stclvs	7, cr6, [lr, #-420]!	; 0xfffffe5c
    a91c:	29746e65 	ldmdbcs	r4!, {r0, r2, r5, r6, r9, sl, fp, sp, lr}^
    a920:	00000000 	andeq	r0, r0, r0
    a924:	494e4150 	stmdbmi	lr, {r4, r6, r8, lr}^
    a928:	73253a43 			; <UNDEFINED> instruction: 0x73253a43
    a92c:	3a73253a 	bcc	1cd3e1c <__bss_end__+0x1cc9024>
    a930:	703a6425 	eorsvc	r6, sl, r5, lsr #8
    a934:	746e696f 	strbtvc	r6, [lr], #-2415	; 0xfffff691
    a938:	25207265 	strcs	r7, [r0, #-613]!	; 0xfffffd9b
    a93c:	61772070 	cmnvs	r7, r0, ror r0
    a940:	656e2073 	strbvs	r2, [lr, #-115]!	; 0xffffff8d
    a944:	20726576 	rsbscs	r6, r2, r6, ror r5
    a948:	6f6c6c61 	svcvs	0x006c6c61
    a94c:	65746163 	ldrbvs	r6, [r4, #-355]!	; 0xfffffe9d
    a950:	000a0a64 	andeq	r0, sl, r4, ror #20

0000a954 <__FUNCTION__.7>:
    a954:	6c616d6b 	stclvs	13, cr6, [r1], #-428	; 0xfffffe54
    a958:	5f636f6c 	svcpl	0x00636f6c
    a95c:	74696e69 	strbtvc	r6, [r9], #-3689	; 0xfffff197
    a960:	7465735f 	strbtvc	r7, [r5], #-863	; 0xfffffca1
    a964:	6174735f 	cmnvs	r4, pc, asr r3
    a968:	00007472 	andeq	r7, r0, r2, ror r4

0000a96c <__FUNCTION__.5>:
    a96c:	6c616d6b 	stclvs	13, cr6, [r1], #-428	; 0xfffffe54
    a970:	5f636f6c 	svcpl	0x00636f6c
    a974:	74696e69 	strbtvc	r6, [r9], #-3689	; 0xfffff197
    a978:	00000000 	andeq	r0, r0, r0

0000a97c <__FUNCTION__.4>:
    a97c:	6c616d6b 	stclvs	13, cr6, [r1], #-428	; 0xfffffe54
    a980:	5f636f6c 	svcpl	0x00636f6c
    a984:	7a746f6e 	bvc	1d26744 <__bss_end__+0x1d1b94c>
    a988:	006f7265 	rsbeq	r7, pc, r5, ror #4

0000a98c <__FUNCTION__.2>:
    a98c:	6c616d6b 	stclvs	13, cr6, [r1], #-428	; 0xfffffe54
    a990:	00636f6c 	rsbeq	r6, r3, ip, ror #30

0000a994 <__FUNCTION__.1>:
    a994:	6c616d6b 	stclvs	13, cr6, [r1], #-428	; 0xfffffe54
    a998:	5f636f6c 	svcpl	0x00636f6c
    a99c:	67696c61 	strbvs	r6, [r9, -r1, ror #24]!
    a9a0:	0064656e 	rsbeq	r6, r4, lr, ror #10

0000a9a4 <__FUNCTION__.3>:
    a9a4:	6e756f72 	mrcvs	15, 3, r6, cr5, cr2, {3}
    a9a8:	00707564 	rsbseq	r7, r0, r4, ror #10

0000a9ac <__FUNCTION__.0>:
    a9ac:	6572666b 	ldrbvs	r6, [r2, #-1643]!	; 0xfffff995
    a9b0:	6f705f65 	svcvs	0x00705f65
    a9b4:	Address 0x000000000000a9b4 is out of bounds.


Disassembly of section .data:

0000a9b8 <putk>:
    a9b8:	00008c94 	muleq	r0, r4, ip

0000a9bc <heap>:
    a9bc:	0000adf8 	strdeq	sl, [r0], -r8

0000a9c0 <heap_start>:
    a9c0:	0000adf8 	strdeq	sl, [r0], -r8

0000a9c4 <heap_end>:
    a9c4:	0020adf8 	strdeq	sl, [r0], -r8	; <UNPREDICTABLE>

0000a9c8 <rpi_putchar>:
    a9c8:	0000a088 	andeq	sl, r0, r8, lsl #1

Disassembly of section .bss:

0000a9d0 <__bss_start__>:
	...

0000a9d8 <freep>:
	...

0000a9e0 <base>:
	...

0000a9e8 <heap_start>:
    a9e8:	00000000 	andeq	r0, r0, r0

0000a9ec <heap_end>:
    a9ec:	00000000 	andeq	r0, r0, r0

0000a9f0 <init_p.4012>:
    a9f0:	00000000 	andeq	r0, r0, r0

0000a9f4 <buf.3944>:
	...

0000adf4 <init_p.6>:
    adf4:	00000000 	andeq	r0, r0, r0

Disassembly of section .ARM.attributes:

00000000 <.ARM.attributes>:
   0:	00002a41 	andeq	r2, r0, r1, asr #20
   4:	61656100 	cmnvs	r5, r0, lsl #2
   8:	01006962 	tsteq	r0, r2, ror #18
   c:	00000020 	andeq	r0, r0, r0, lsr #32
  10:	4b5a3605 	blmi	168d82c <__bss_end__+0x1682a34>
  14:	08070600 	stmdaeq	r7, {r9, sl}
  18:	12010901 	andne	r0, r1, #16384	; 0x4000
  1c:	15011404 	strne	r1, [r1, #-1028]	; 0xfffffbfc
  20:	18031701 	stmdane	r3, {r0, r8, r9, sl, ip}
  24:	22011a01 	andcs	r1, r1, #4096	; 0x1000
  28:	Address 0x0000000000000028 is out of bounds.


Disassembly of section .comment:

00000000 <.comment>:
   0:	3a434347 	bcc	10d0d24 <__bss_end__+0x10c5f2c>
   4:	4e472820 	cdpmi	8, 4, cr2, cr7, cr0, {1}
   8:	6f542055 	svcvs	0x00542055
   c:	20736c6f 	rsbscs	r6, r3, pc, ror #24
  10:	20726f66 	rsbscs	r6, r2, r6, ror #30
  14:	206d7241 	rsbcs	r7, sp, r1, asr #4
  18:	65626d45 	strbvs	r6, [r2, #-3397]!	; 0xfffff2bb
  1c:	64656464 	strbtvs	r6, [r5], #-1124	; 0xfffffb9c
  20:	6f725020 	svcvs	0x00725020
  24:	73736563 	cmnvc	r3, #415236096	; 0x18c00000
  28:	2073726f 	rsbscs	r7, r3, pc, ror #4
  2c:	30322d39 	eorscc	r2, r2, r9, lsr sp
  30:	712d3931 			; <UNDEFINED> instruction: 0x712d3931
  34:	616d2d34 	cmnvs	sp, r4, lsr sp
  38:	29726f6a 	ldmdbcs	r2!, {r1, r3, r5, r6, r8, r9, sl, fp, sp, lr}^
  3c:	322e3920 	eorcc	r3, lr, #32, 18	; 0x80000
  40:	3220312e 	eorcc	r3, r0, #-2147483637	; 0x8000000b
  44:	31393130 	teqcc	r9, r0, lsr r1
  48:	20353230 	eorscs	r3, r5, r0, lsr r2
  4c:	6c657228 	sfmvs	f7, 2, [r5], #-160	; 0xffffff60
  50:	65736165 	ldrbvs	r6, [r3, #-357]!	; 0xfffffe9b
  54:	415b2029 	cmpmi	fp, r9, lsr #32
  58:	612f4d52 			; <UNDEFINED> instruction: 0x612f4d52
  5c:	392d6d72 	pushcc	{r1, r4, r5, r6, r8, sl, fp, sp, lr}
  60:	6172622d 	cmnvs	r2, sp, lsr #4
  64:	2068636e 	rsbcs	r6, r8, lr, ror #6
  68:	69766572 	ldmdbvs	r6!, {r1, r4, r5, r6, r8, sl, sp, lr}^
  6c:	6e6f6973 			; <UNDEFINED> instruction: 0x6e6f6973
  70:	37373220 	ldrcc	r3, [r7, -r0, lsr #4]!
  74:	5d393935 			; <UNDEFINED> instruction: 0x5d393935
  78:	43434700 	movtmi	r4, #14080	; 0x3700
  7c:	4728203a 			; <UNDEFINED> instruction: 0x4728203a
  80:	4120554e 			; <UNDEFINED> instruction: 0x4120554e
  84:	45206d72 	strmi	r6, [r0, #-3442]!	; 0xfffff28e
  88:	6465626d 	strbtvs	r6, [r5], #-621	; 0xfffffd93
  8c:	20646564 	rsbcs	r6, r4, r4, ror #10
  90:	6c6f6f54 	stclvs	15, cr6, [pc], #-336	; ffffff48 <__bss_end__+0xffff5150>
  94:	69616863 	stmdbvs	r1!, {r0, r1, r5, r6, fp, sp, lr}^
  98:	3031206e 	eorscc	r2, r1, lr, rrx
  9c:	322d332e 	eorcc	r3, sp, #-1207959552	; 0xb8000000
  a0:	2e313230 	mrccs	2, 1, r3, cr1, cr0, {1}
  a4:	20293031 	eorcs	r3, r9, r1, lsr r0
  a8:	332e3031 			; <UNDEFINED> instruction: 0x332e3031
  ac:	3220312e 	eorcc	r3, r0, #-2147483637	; 0x8000000b
  b0:	30313230 	eorscc	r3, r1, r0, lsr r2
  b4:	20343238 	eorscs	r3, r4, r8, lsr r2
  b8:	6c657228 	sfmvs	f7, 2, [r5], #-160	; 0xffffff60
  bc:	65736165 	ldrbvs	r6, [r3, #-357]!	; 0xfffffe9b
  c0:	Address 0x00000000000000c0 is out of bounds.


Disassembly of section .debug_info:

00000000 <.debug_info>:
       0:	00000332 	andeq	r0, r0, r2, lsr r3
       4:	00000004 	andeq	r0, r0, r4
       8:	01040000 	mrseq	r0, (UNDEF: 4)
       c:	00000111 	andeq	r0, r0, r1, lsl r1
      10:	00009d0c 	andeq	r9, r0, ip, lsl #26
      14:	0000bf00 	andeq	fp, r0, r0, lsl #30
      18:	00803800 	addeq	r3, r0, r0, lsl #16
      1c:	0000ec00 	andeq	lr, r0, r0, lsl #24
      20:	00000000 	andeq	r0, r0, r0
      24:	05040200 	streq	r0, [r4, #-512]	; 0xfffffe00
      28:	00746e69 	rsbseq	r6, r4, r9, ror #28
      2c:	90070403 	andls	r0, r7, r3, lsl #8
      30:	03000000 	movweq	r0, #0
      34:	00340601 	eorseq	r0, r4, r1, lsl #12
      38:	02030000 	andeq	r0, r3, #0, 0
      3c:	0000f105 	andeq	pc, r0, r5, lsl #2
      40:	05040300 	streq	r0, [r4, #-768]	; 0xfffffd00
      44:	000000b6 	strheq	r0, [r0], -r6
      48:	b1050803 	tstlt	r5, r3, lsl #16
      4c:	03000000 	movweq	r0, #0
      50:	00320801 	eorseq	r0, r2, r1, lsl #16
      54:	02030000 	andeq	r0, r3, #0, 0
      58:	00004d07 	andeq	r4, r0, r7, lsl #26
      5c:	07040300 	streq	r0, [r4, -r0, lsl #6]
      60:	0000008b 	andeq	r0, r0, fp, lsl #1
      64:	86070803 	strhi	r0, [r7], -r3, lsl #16
      68:	04000000 	streq	r0, [r0], #-0
      6c:	00000025 	andeq	r0, r0, r5, lsr #32
      70:	0000007a 	andeq	r0, r0, sl, ror r0
      74:	00002505 	andeq	r2, r0, r5, lsl #10
      78:	05060000 	streq	r0, [r6, #-0]
      7c:	03000001 	movweq	r0, #1
      80:	00860e1c 	addeq	r0, r6, ip, lsl lr
      84:	04070000 	streq	r0, [r7], #-0
      88:	0000006b 	andeq	r0, r0, fp, rrx
      8c:	00002504 	andeq	r2, r0, r4, lsl #10
      90:	00009b00 	andeq	r9, r0, r0, lsl #22
      94:	009b0500 	addseq	r0, fp, r0, lsl #10
      98:	07000000 	streq	r0, [r0, -r0]
      9c:	0000a804 	andeq	sl, r0, r4, lsl #16
      a0:	08010300 	stmdaeq	r1, {r8, r9}
      a4:	0000003b 	andeq	r0, r0, fp, lsr r0
      a8:	0000a108 	andeq	sl, r0, r8, lsl #2
      ac:	05840600 	streq	r0, [r4, #1536]	; 0x600
      b0:	21030000 	mrscs	r0, (UNDEF: 3)
      b4:	0000b90e 	andeq	fp, r0, lr, lsl #18
      b8:	8c040700 	stchi	7, cr0, [r4], {-0}
      bc:	09000000 	stmdbeq	r0, {}	; <UNPREDICTABLE>
      c0:	0904020c 	stmdbeq	r4, {r2, r3, r9}
      c4:	000000f0 	strdeq	r0, [r0], -r0	; <UNPREDICTABLE>
      c8:	00002d0a 	andeq	r2, r0, sl, lsl #26
      cc:	11060200 	mrsne	r0, LR_usr
      d0:	0000009b 	muleq	r0, fp, r0
      d4:	00670a00 	rsbeq	r0, r7, r0, lsl #20
      d8:	07020000 	streq	r0, [r2, -r0]
      dc:	00009b11 	andeq	r9, r0, r1, lsl fp
      e0:	100a0400 	andne	r0, sl, r0, lsl #8
      e4:	02000000 	andeq	r0, r0, #0, 0
      e8:	002c0e08 	eoreq	r0, ip, r8, lsl #28
      ec:	00080000 	andeq	r0, r8, r0
      f0:	0000fb0b 	andeq	pc, r0, fp, lsl #22
      f4:	03090200 	movweq	r0, #37376	; 0x9200
      f8:	000000bf 	strheq	r0, [r0], -pc	; <UNPREDICTABLE>
      fc:	170d040c 	strne	r0, [sp, -ip, lsl #8]
     100:	01000000 	mrseq	r0, (UNDEF: 0)
     104:	80fc0624 	rscshi	r0, ip, r4, lsr #12
     108:	00280000 	eoreq	r0, r8, r0
     10c:	9c010000 	stcls	0, cr0, [r1], {-0}
     110:	00000148 	andeq	r0, r0, r8, asr #2
     114:	0081080e 	addeq	r0, r1, lr, lsl #16
     118:	0002f000 	andeq	pc, r2, r0
     11c:	00012b00 	andeq	r2, r1, r0, lsl #22
     120:	50010f00 	andpl	r0, r1, r0, lsl #30
     124:	a1cc0305 	bicge	r0, ip, r5, lsl #6
     128:	10000000 	andne	r0, r0, r0
     12c:	0000810c 	andeq	r8, r0, ip, lsl #2
     130:	00000148 	andeq	r0, r0, r8, asr #2
     134:	00811811 	addeq	r1, r1, r1, lsl r8
     138:	0002f000 	andeq	pc, r2, r0
     13c:	50010f00 	andpl	r0, r1, r0, lsl #30
     140:	a2080305 	andge	r0, r8, #335544320	; 0x14000000
     144:	00000000 	andeq	r0, r0, r0
     148:	00008112 	andeq	r8, r0, r2, lsl r1
     14c:	07080100 	streq	r0, [r8, -r0, lsl #2]
     150:	000000fc 	strdeq	r0, [r0], -ip
     154:	00008038 	andeq	r8, r0, r8, lsr r0
     158:	000000c4 	andeq	r0, r0, r4, asr #1
     15c:	029f9c01 	addseq	r9, pc, #256	; 0x100
     160:	76130000 	ldrvc	r0, [r3], -r0
     164:	0c000005 	stceq	0, cr0, [r0], {5}
     168:	950c0901 	strls	r0, [ip, #-2305]	; 0xfffff6ff
     16c:	14000001 	strne	r0, [r0], #-1
     170:	0a010078 	beq	40358 <__bss_end__+0x35560>
     174:	0000250d 	andeq	r2, r0, sp, lsl #10
     178:	000a0000 	andeq	r0, sl, r0
     17c:	01000000 	mrseq	r0, (UNDEF: 0)
     180:	029f160b 	addseq	r1, pc, #11534336	; 0xb00000
     184:	0a040000 	beq	10018c <__bss_end__+0xf5394>
     188:	000001c6 	andeq	r0, r0, r6, asr #3
     18c:	9f160c01 	svcls	0x00160c01
     190:	08000002 	stmdaeq	r0, {r1}
     194:	00681500 	rsbeq	r1, r8, r0, lsl #10
     198:	9f080d01 	svcls	0x00080d01
     19c:	0a000002 	beq	1ac <__code_start__-0x7e54>
     1a0:	00000000 	andeq	r0, r0, r0
     1a4:	16000000 	strne	r0, [r0], -r0
     1a8:	0000006c 	andeq	r0, r0, ip, rrx
     1ac:	000002b5 			; <UNDEFINED> instruction: 0x000002b5
     1b0:	a2180305 	andsge	r0, r8, #335544320	; 0x14000000
     1b4:	00170000 	andseq	r0, r7, r0
     1b8:	95000000 	strls	r0, [r0, #-0]
     1bc:	15000002 	strne	r0, [r0, #-2]
     1c0:	0f010069 	svceq	0x00010069
     1c4:	0000250d 	andeq	r2, r0, sp, lsl #10
     1c8:	00004e00 	andeq	r4, r0, r0, lsl #28
     1cc:	00004a00 	andeq	r4, r0, r0, lsl #20
     1d0:	00181800 	andseq	r1, r8, r0, lsl #16
     1d4:	65150000 	ldrvs	r0, [r5, #-0]
     1d8:	16100100 	ldrne	r0, [r0], -r0, lsl #2
     1dc:	0000029f 	muleq	r0, pc, r2	; <UNPREDICTABLE>
     1e0:	00000073 	andeq	r0, r0, r3, ror r0
     1e4:	0000006d 	andeq	r0, r0, sp, rrx
     1e8:	0002ba19 	andeq	fp, r2, r9, lsl sl
     1ec:	00807c00 	addeq	r7, r0, r0, lsl #24
     1f0:	807c0100 	rsbshi	r0, ip, r0, lsl #2
     1f4:	00180000 	andseq	r0, r8, r0
     1f8:	10010000 	andne	r0, r1, r0
     1fc:	0002291a 	andeq	r2, r2, sl, lsl r9
     200:	02e31a00 	rsceq	r1, r3, #0, 20
     204:	009e0000 	addseq	r0, lr, r0
     208:	009c0000 	addseq	r0, ip, r0
     20c:	d71a0000 	ldrle	r0, [sl, -r0]
     210:	b4000002 	strlt	r0, [r0], #-2
     214:	b2000000 	andlt	r0, r0, #0, 0
     218:	1a000000 	bne	220 <__code_start__-0x7de0>
     21c:	000002cb 	andeq	r0, r0, fp, asr #5
     220:	000000ce 	andeq	r0, r0, lr, asr #1
     224:	000000cc 	andeq	r0, r0, ip, asr #1
     228:	80680e00 	rsbhi	r0, r8, r0, lsl #28
     22c:	02f00000 	rscseq	r0, r0, #0, 0
     230:	025d0000 	subseq	r0, sp, #0, 0
     234:	010f0000 	mrseq	r0, CPSR
     238:	ac030550 	cfstr32ge	mvfx0, [r3], {80}	; 0x50
     23c:	0f0000a1 	svceq	0x000000a1
     240:	91035101 	tstls	r3, r1, lsl #2
     244:	010f065c 	tsteq	pc, ip, asr r6	; <UNPREDICTABLE>
     248:	60910352 	addsvs	r0, r1, r2, asr r3
     24c:	53010f06 	movwpl	r0, #7942	; 0x1f06
     250:	020f4401 	andeq	r4, pc, #16777216	; 0x1000000
     254:	0305007d 	movweq	r0, #20605	; 0x507d
     258:	0000a1c0 	andeq	sl, r0, r0, asr #3
     25c:	806c1000 	rsbhi	r1, ip, r0
     260:	03050000 	movweq	r0, #20480	; 0x5000
     264:	a40e0000 	strge	r0, [lr], #-0
     268:	11000080 	smlabbne	r0, r0, r0, r0
     26c:	79000003 	stmdbvc	r0, {r0, r1}
     270:	0f000002 	svceq	0x00000002
     274:	3c015001 	stccc	0, cr5, [r1], {1}
     278:	80b41100 	adcshi	r1, r4, r0, lsl #2
     27c:	031d0000 	tsteq	sp, #0, 0
     280:	010f0000 	mrseq	r0, CPSR
     284:	00740250 	rsbseq	r0, r4, r0, asr r2
     288:	0151010f 	cmpeq	r1, pc, lsl #2
     28c:	52010f30 	andpl	r0, r1, #48, 30	; 0xc0
     290:	00003c01 	andeq	r3, r0, r1, lsl #24
     294:	80e01000 	rschi	r1, r0, r0
     298:	03290000 			; <UNDEFINED> instruction: 0x03290000
     29c:	07000000 	streq	r0, [r0, -r0]
     2a0:	00016204 	andeq	r6, r1, r4, lsl #4
     2a4:	00a81b00 	adceq	r1, r8, r0, lsl #22
     2a8:	02b50000 	adcseq	r0, r5, #0, 0
     2ac:	2c1c0000 	ldccs	0, cr0, [ip], {-0}
     2b0:	04000000 	streq	r0, [r0], #-0
     2b4:	02a50800 	adceq	r0, r5, #0, 16
     2b8:	051d0000 	ldreq	r0, [sp, #-0]
     2bc:	02000000 	andeq	r0, r0, #0, 0
     2c0:	00f00b0c 	rscseq	r0, r0, ip, lsl #22
     2c4:	f0030000 			; <UNDEFINED> instruction: 0xf0030000
     2c8:	1e000002 	cdpne	0, 0, cr0, cr0, cr2, {0}
     2cc:	0000002d 	andeq	r0, r0, sp, lsr #32
     2d0:	9b220c02 	blls	8832e0 <__bss_end__+0x8784e8>
     2d4:	1e000000 	cdpne	0, 0, cr0, cr0, cr0, {0}
     2d8:	00000067 	andeq	r0, r0, r7, rrx
     2dc:	9b340c02 	blls	d032ec <__bss_end__+0xcf84f4>
     2e0:	1e000000 	cdpne	0, 0, cr0, cr0, cr0, {0}
     2e4:	00000010 	andeq	r0, r0, r0, lsl r0
     2e8:	2c430c02 	mcrrcs	12, 0, r0, r3, cr2
     2ec:	00000000 	andeq	r0, r0, r0
     2f0:	0005461f 	andeq	r4, r5, pc, lsl r6
     2f4:	00054600 	andeq	r4, r5, r0, lsl #12
     2f8:	06280300 	strteq	r0, [r8], -r0, lsl #6
     2fc:	059e0720 	ldreq	r0, [lr, #1824]	; 0x720
     300:	74736574 	ldrbtvc	r6, [r3], #-1396	; 0xfffffa8c
     304:	00401f00 	subeq	r1, r0, r0, lsl #30
     308:	00400000 	subeq	r0, r0, r0
     30c:	6e030000 	cdpvs	0, 0, cr0, cr3, cr0, {0}
     310:	00791f06 	rsbseq	r1, r9, r6, lsl #30
     314:	00790000 	rsbseq	r0, r9, r0
     318:	32040000 	andcc	r0, r4, #0, 0
     31c:	00601f08 	rsbeq	r1, r0, r8, lsl #30
     320:	00600000 	rsbeq	r0, r0, r0
     324:	f2030000 	vhadd.s8	d0, d3, d0
     328:	001f1f07 	andseq	r1, pc, r7, lsl #30
     32c:	001f0000 	andseq	r0, pc, r0
     330:	56040000 	strpl	r0, [r4], -r0
     334:	07850006 	streq	r0, [r5, r6]
     338:	00040000 	andeq	r0, r4, r0
     33c:	000001c5 	andeq	r0, r0, r5, asr #3
     340:	01110104 	tsteq	r1, r4, lsl #2
     344:	780c0000 	stmdavc	ip, {}	; <UNPREDICTABLE>
     348:	bf000002 	svclt	0x00000002
     34c:	24000000 	strcs	r0, [r0], #-0
     350:	e8000081 	stmda	r0, {r0, r7}
     354:	6b000002 	blvs	364 <__code_start__-0x7c9c>
     358:	02000001 	andeq	r0, r0, #1, 0
     35c:	6e690504 	cdpvs	5, 6, cr0, cr9, cr4, {0}
     360:	04030074 	streq	r0, [r3], #-116	; 0xffffff8c
     364:	00009007 	andeq	r9, r0, r7
     368:	06010300 	streq	r0, [r1], -r0, lsl #6
     36c:	00000034 	andeq	r0, r0, r4, lsr r0
     370:	f1050203 			; <UNDEFINED> instruction: 0xf1050203
     374:	03000000 	movweq	r0, #0
     378:	00b60504 	adcseq	r0, r6, r4, lsl #10
     37c:	08030000 	stmdaeq	r3, {}	; <UNPREDICTABLE>
     380:	0000b105 	andeq	fp, r0, r5, lsl #2
     384:	08010300 	stmdaeq	r1, {r8, r9}
     388:	00000032 	andeq	r0, r0, r2, lsr r0
     38c:	00025104 	andeq	r5, r2, r4, lsl #2
     390:	19310300 	ldmdbne	r1!, {r8, r9}
     394:	00000062 	andeq	r0, r0, r2, rrx
     398:	4d070203 	sfmmi	f0, 4, [r7, #-12]
     39c:	04000000 	streq	r0, [r0], #-0
     3a0:	00000248 	andeq	r0, r0, r8, asr #4
     3a4:	75193403 	ldrvc	r3, [r9, #-1027]	; 0xfffffbfd
     3a8:	03000000 	movweq	r0, #0
     3ac:	008b0704 	addeq	r0, fp, r4, lsl #14
     3b0:	08030000 	stmdaeq	r3, {}	; <UNPREDICTABLE>
     3b4:	00008607 	andeq	r8, r0, r7, lsl #12
     3b8:	00250500 	eoreq	r0, r5, r0, lsl #10
     3bc:	00920000 	addseq	r0, r2, r0
     3c0:	25060000 	strcs	r0, [r6, #-0]
     3c4:	00000000 	andeq	r0, r0, r0
     3c8:	00010507 	andeq	r0, r1, r7, lsl #10
     3cc:	0e1c0400 	cfmulseq	mvf0, mvf12, mvf0
     3d0:	0000009e 	muleq	r0, lr, r0
     3d4:	00830408 	addeq	r0, r3, r8, lsl #8
     3d8:	25050000 	strcs	r0, [r5, #-0]
     3dc:	b3000000 	movwlt	r0, #0
     3e0:	06000000 	streq	r0, [r0], -r0
     3e4:	000000b3 	strheq	r0, [r0], -r3
     3e8:	c0040800 	andgt	r0, r4, r0, lsl #16
     3ec:	03000000 	movweq	r0, #0
     3f0:	003b0801 	eorseq	r0, fp, r1, lsl #16
     3f4:	b9090000 	stmdblt	r9, {}	; <UNPREDICTABLE>
     3f8:	07000000 	streq	r0, [r0, -r0]
     3fc:	00000584 	andeq	r0, r0, r4, lsl #11
     400:	d10e2104 	tstle	lr, r4, lsl #2
     404:	08000000 	stmdaeq	r0, {}	; <UNPREDICTABLE>
     408:	0000a404 	andeq	sl, r0, r4, lsl #8
     40c:	050c0a00 	streq	r0, [ip, #-2560]	; 0xfffff600
     410:	01080904 	tsteq	r8, r4, lsl #18
     414:	2d0b0000 	stccs	0, cr0, [fp, #-0]
     418:	05000000 	streq	r0, [r0, #-0]
     41c:	00b31106 	adcseq	r1, r3, r6, lsl #2
     420:	0b000000 	bleq	428 <__code_start__-0x7bd8>
     424:	00000067 	andeq	r0, r0, r7, rrx
     428:	b3110705 	tstlt	r1, #1310720	; 0x140000
     42c:	04000000 	streq	r0, [r0], #-0
     430:	0000100b 	andeq	r1, r0, fp
     434:	0e080500 	cfsh32eq	mvfx0, mvfx8, #0
     438:	0000002c 	andeq	r0, r0, ip, lsr #32
     43c:	fb040008 	blx	100466 <__bss_end__+0xf566e>
     440:	05000000 	streq	r0, [r0, #-0]
     444:	00d70309 	sbcseq	r0, r7, r9, lsl #6
     448:	070c0000 	streq	r0, [ip, -r0]
     44c:	00004f01 	andeq	r4, r0, r1, lsl #30
     450:	0e090200 	cdpeq	2, 0, cr0, cr9, cr0, {0}
     454:	0000012f 	andeq	r0, r0, pc, lsr #2
     458:	0002820d 	andeq	r8, r2, sp, lsl #4
     45c:	e10d0b00 	tst	sp, r0, lsl #22
     460:	0c000001 	stceq	0, cr0, [r0], {1}
     464:	02260e00 	eoreq	r0, r6, #0, 28
     468:	02240000 	eoreq	r0, r4, #0, 0
     46c:	0198100c 	orrseq	r1, r8, ip
     470:	000b0000 	andeq	r0, fp, r0
     474:	02000000 	andeq	r0, r0, #0, 0
     478:	0198140d 	orrseq	r1, r8, sp, lsl #8
     47c:	0b000000 	bleq	484 <__code_start__-0x7b7c>
     480:	0000028a 	andeq	r0, r0, sl, lsl #5
     484:	690e0e02 	stmdbvs	lr, {r1, r9, sl, fp}
     488:	04000000 	streq	r0, [r0], #-0
     48c:	0002370b 	andeq	r3, r2, fp, lsl #14
     490:	0e0f0200 	cdpeq	2, 0, cr0, cr15, cr0, {0}
     494:	00000069 	andeq	r0, r0, r9, rrx
     498:	022d0b08 	eoreq	r0, sp, #8, 22	; 0x2000
     49c:	11020000 	mrsne	r0, (UNDEF: 2)
     4a0:	0001080f 	andeq	r0, r1, pc, lsl #16
     4a4:	3d0b0c00 	stccc	12, cr0, [fp, #-0]
     4a8:	02000002 	andeq	r0, r0, #2, 0
     4ac:	00690e14 	rsbeq	r0, r9, r4, lsl lr
     4b0:	0b180000 	bleq	6004b8 <__bss_end__+0x5f56c0>
     4b4:	000001e7 	andeq	r0, r0, r7, ror #3
     4b8:	690e1502 	stmdbvs	lr, {r1, r8, sl, ip}
     4bc:	1c000000 	stcne	0, cr0, [r0], {-0}
     4c0:	0003650b 	andeq	r6, r3, fp, lsl #10
     4c4:	0e170200 	cdpeq	2, 1, cr0, cr7, cr0, {0}
     4c8:	00000056 	andeq	r0, r0, r6, asr r0
     4cc:	04080020 	streq	r0, [r8], #-32	; 0xffffffe0
     4d0:	0000012f 	andeq	r0, r0, pc, lsr #2
     4d4:	0001db04 	andeq	sp, r1, r4, lsl #22
     4d8:	03180200 	tsteq	r8, #0, 4
     4dc:	0000012f 	andeq	r0, r0, pc, lsr #2
     4e0:	0f10040f 	svceq	0x0010040f
     4e4:	01000002 	tsteq	r0, r2
     4e8:	01be0f08 			; <UNDEFINED> instruction: 0x01be0f08
     4ec:	03050000 	movweq	r0, #20480	; 0x5000
     4f0:	0000a9d0 	ldrdeq	sl, [r0], -r0
     4f4:	019e0408 	orrseq	r0, lr, r8, lsl #8
     4f8:	79110000 	ldmdbvc	r1, {}	; <UNPREDICTABLE>
     4fc:	01000000 	mrseq	r0, (UNDEF: 0)
     500:	01aa0866 			; <UNDEFINED> instruction: 0x01aa0866
     504:	837c0000 	cmnhi	ip, #0, 0
     508:	00900000 	addseq	r0, r0, r0
     50c:	9c010000 	stcls	0, cr0, [r1], {-0}
     510:	0000028a 	andeq	r0, r0, sl, lsl #5
     514:	0002b212 	andeq	fp, r2, r2, lsl r2
     518:	1a660100 	bne	1980920 <__bss_end__+0x1975b28>
     51c:	0000002c 	andeq	r0, r0, ip, lsr #32
     520:	000000ec 	andeq	r0, r0, ip, ror #1
     524:	000000e6 	andeq	r0, r0, r6, ror #1
     528:	01006c13 	tsteq	r0, r3, lsl ip
     52c:	01082c66 	tsteq	r8, r6, ror #24
     530:	91020000 	mrsls	r0, (UNDEF: 2)
     534:	00681464 	rsbeq	r1, r8, r4, ror #8
     538:	be0c6801 	cdplt	8, 0, cr6, cr12, cr1, {0}
     53c:	1e000001 	cdpne	0, 0, cr0, cr0, cr1, {0}
     540:	18000001 	stmdane	r0, {r0}
     544:	15000001 	strne	r0, [r0, #-1]
     548:	00008398 	muleq	r0, r8, r3
     54c:	0000074c 	andeq	r0, r0, ip, asr #14
     550:	00000225 	andeq	r0, r0, r5, lsr #4
     554:	02500116 	subseq	r0, r0, #-2147483643	; 0x80000005
     558:	15002476 	strne	r2, [r0, #-1142]	; 0xfffffb8a
     55c:	000083a8 	andeq	r8, r0, r8, lsr #7
     560:	00000758 	andeq	r0, r0, r8, asr r7
     564:	00000244 	andeq	r0, r0, r4, asr #4
     568:	02500116 	subseq	r0, r0, #-2147483643	; 0x80000005
     56c:	01160074 	tsteq	r6, r4, ror r0
     570:	16300151 			; <UNDEFINED> instruction: 0x16300151
     574:	08025201 	stmdaeq	r2, {r0, r9, ip, lr}
     578:	d4150024 	ldrle	r0, [r5], #-36	; 0xffffffdc
     57c:	64000083 	strvs	r0, [r0], #-131	; 0xffffff7d
     580:	70000007 	andvc	r0, r0, r7
     584:	16000002 	strne	r0, [r0], -r2
     588:	03055001 	movweq	r5, #20481	; 0x5001
     58c:	0000a26c 	andeq	sl, r0, ip, ror #4
     590:	03510116 	cmpeq	r1, #-2147483643	; 0x80000005
     594:	16060075 			; <UNDEFINED> instruction: 0x16060075
     598:	91035201 	tstls	r3, r1, lsl #4
     59c:	01160660 	tsteq	r6, r0, ror #12
     5a0:	64910353 	ldrvs	r0, [r1], #851	; 0x353
     5a4:	e4170006 	ldr	r0, [r7], #-6
     5a8:	64000083 	strvs	r0, [r0], #-131	; 0xffffff7d
     5ac:	16000007 	strne	r0, [r0], -r7
     5b0:	03055001 	movweq	r5, #20481	; 0x5001
     5b4:	0000a2e0 	andeq	sl, r0, r0, ror #5
     5b8:	02510116 	subseq	r0, r1, #-2147483643	; 0x80000005
     5bc:	00000075 	andeq	r0, r0, r5, ror r0
     5c0:	00020818 	andeq	r0, r2, r8, lsl r8
     5c4:	06530100 	ldrbeq	r0, [r3], -r0, lsl #2
     5c8:	00008290 	muleq	r0, r0, r2
     5cc:	000000ec 	andeq	r0, r0, ip, ror #1
     5d0:	03f99c01 	mvnseq	r9, #256	; 0x100
     5d4:	03120000 	tsteq	r2, #0, 0
     5d8:	0100000a 	tsteq	r0, sl
     5dc:	01aa1453 			; <UNDEFINED> instruction: 0x01aa1453
     5e0:	014f0000 	mrseq	r0, SPSR
     5e4:	014b0000 	mrseq	r0, (UNDEF: 75)
     5e8:	6c130000 	ldcvs	0, cr0, [r3], {-0}
     5ec:	24530100 	ldrbcs	r0, [r3], #-256	; 0xffffff00
     5f0:	00000108 	andeq	r0, r0, r8, lsl #2
     5f4:	145c9102 	ldrbne	r9, [ip], #-258	; 0xfffffefe
     5f8:	55010068 	strpl	r0, [r1, #-104]	; 0xffffff98
     5fc:	0001be0c 	andeq	fp, r1, ip, lsl #28
     600:	00017700 	andeq	r7, r1, r0, lsl #14
     604:	00016d00 	andeq	r6, r1, r0, lsl #26
     608:	006c1900 	rsbeq	r1, ip, r0, lsl #18
     60c:	04090000 	streq	r0, [r9], #-0
     610:	03050000 	movweq	r0, #20480	; 0x5000
     614:	0000a2fc 	strdeq	sl, [r0], -ip
     618:	0082c415 	addeq	ip, r2, r5, lsl r4
     61c:	00076400 	andeq	r6, r7, r0, lsl #8
     620:	00030b00 	andeq	r0, r3, r0, lsl #22
     624:	50011600 	andpl	r1, r1, r0, lsl #12
     628:	a26c0305 	rsbge	r0, ip, #335544320	; 0x14000000
     62c:	01160000 	tsteq	r6, r0
     630:	00760251 	rsbseq	r0, r6, r1, asr r2
     634:	02520116 	subseq	r0, r2, #-2147483643	; 0x80000005
     638:	01160077 	tsteq	r6, r7, ror r0
     63c:	00780253 	rsbseq	r0, r8, r3, asr r2
     640:	82d01500 	sbcshi	r1, r0, #0, 10
     644:	07640000 	strbeq	r0, [r4, -r0]!
     648:	03280000 			; <UNDEFINED> instruction: 0x03280000
     64c:	01160000 	tsteq	r6, r0
     650:	78030550 	stmdavc	r3, {r4, r6, r8, sl}
     654:	160000a2 	strne	r0, [r0], -r2, lsr #1
     658:	74025101 	strvc	r5, [r2], #-257	; 0xfffffeff
     65c:	f0150000 			; <UNDEFINED> instruction: 0xf0150000
     660:	2e000082 	cdpcs	0, 0, cr0, cr0, cr2, {4}
     664:	3c000005 	stccc	0, cr0, [r0], {5}
     668:	16000003 	strne	r0, [r0], -r3
     66c:	74025001 	strvc	r5, [r2], #-1
     670:	04150000 	ldreq	r0, [r5], #-0
     674:	0e000083 	cdpeq	0, 0, cr0, cr0, cr3, {4}
     678:	59000004 	stmdbpl	r0, {r2}
     67c:	16000003 	strne	r0, [r0], -r3
     680:	03055001 	movweq	r5, #20481	; 0x5001
     684:	0000a9d0 	ldrdeq	sl, [r0], -r0
     688:	02510116 	subseq	r0, r1, #-2147483643	; 0x80000005
     68c:	15000075 	strne	r0, [r0, #-117]	; 0xffffff8b
     690:	0000830c 	andeq	r8, r0, ip, lsl #6
     694:	00000770 	andeq	r0, r0, r0, ror r7
     698:	0000036d 	andeq	r0, r0, sp, ror #6
     69c:	02500116 	subseq	r0, r0, #-2147483643	; 0x80000005
     6a0:	15000075 	strne	r0, [r0, #-117]	; 0xffffff8b
     6a4:	00008328 	andeq	r8, r0, r8, lsr #6
     6a8:	00000764 	andeq	r0, r0, r4, ror #14
     6ac:	00000396 	muleq	r0, r6, r3
     6b0:	05500116 	ldrbeq	r0, [r0, #-278]	; 0xfffffeea
     6b4:	00a28803 	adceq	r8, r2, r3, lsl #16
     6b8:	51011600 	tstpl	r1, r0, lsl #12
     6bc:	16007602 	strne	r7, [r0], -r2, lsl #12
     6c0:	77025201 	strvc	r5, [r2, -r1, lsl #4]
     6c4:	53011600 	movwpl	r1, #5632	; 0x1600
     6c8:	00007802 	andeq	r7, r0, r2, lsl #16
     6cc:	00833415 	addeq	r3, r3, r5, lsl r4
     6d0:	00076400 	andeq	r6, r7, r0, lsl #8
     6d4:	0003ad00 	andeq	sl, r3, r0, lsl #26
     6d8:	50011600 	andpl	r1, r1, r0, lsl #12
     6dc:	a2a00305 	adcge	r0, r0, #335544320	; 0x14000000
     6e0:	1a000000 	bne	6e8 <__code_start__-0x7918>
     6e4:	00008338 	andeq	r8, r0, r8, lsr r3
     6e8:	0000077c 	andeq	r0, r0, ip, ror r7
     6ec:	00835415 	addeq	r5, r3, r5, lsl r4
     6f0:	00076400 	andeq	r6, r7, r0, lsl #8
     6f4:	0003ef00 	andeq	lr, r3, r0, lsl #30
     6f8:	50011600 	andpl	r1, r1, r0, lsl #12
     6fc:	a1ac0305 			; <UNDEFINED> instruction: 0xa1ac0305
     700:	01160000 	tsteq	r6, r0
     704:	20030551 	andcs	r0, r3, r1, asr r5
     708:	160000a2 	strne	r0, [r0], -r2, lsr #1
     70c:	03055201 	movweq	r5, #20993	; 0x5201
     710:	0000a2fc 	strdeq	sl, [r0], -ip
     714:	02530116 	subseq	r0, r3, #-2147483643	; 0x80000005
     718:	02165d08 	andseq	r5, r6, #8, 26	; 0x200
     71c:	0305007d 	movweq	r0, #20605	; 0x507d
     720:	0000a2c8 	andeq	sl, r0, r8, asr #5
     724:	83581a00 	cmphi	r8, #0, 20
     728:	077c0000 	ldrbeq	r0, [ip, -r0]!
     72c:	1b000000 	blne	734 <__code_start__-0x78cc>
     730:	000000c0 	andeq	r0, r0, r0, asr #1
     734:	00000409 	andeq	r0, r0, r9, lsl #8
     738:	00002c1c 	andeq	r2, r0, ip, lsl ip
     73c:	09000600 	stmdbeq	r0, {r9, sl}
     740:	000003f9 	strdeq	r0, [r0], -r9
     744:	00021a1d 	andeq	r1, r2, sp, lsl sl
     748:	0d3a0100 	ldfeqs	f0, [sl, #-0]
     74c:	00008144 	andeq	r8, r0, r4, asr #2
     750:	000000a4 	andeq	r0, r0, r4, lsr #1
     754:	05139c01 	ldreq	r9, [r3, #-3073]	; 0xfffff3ff
     758:	6c1e0000 	ldcvs	0, cr0, [lr], {-0}
     75c:	213a0100 	teqcs	sl, r0, lsl #2
     760:	00000513 	andeq	r0, r0, r3, lsl r5
     764:	000001c8 	andeq	r0, r0, r8, asr #3
     768:	000001ba 			; <UNDEFINED> instruction: 0x000001ba
     76c:	0100681e 	tsteq	r0, lr, lsl r8
     770:	01be2b3a 			; <UNDEFINED> instruction: 0x01be2b3a
     774:	02320000 	eorseq	r0, r2, #0, 0
     778:	02260000 	eoreq	r0, r6, #0, 0
     77c:	6c190000 	ldcvs	0, cr0, [r9], {-0}
     780:	29000000 	stmdbcs	r0, {}	; <UNPREDICTABLE>
     784:	05000005 	streq	r0, [r0, #-5]
     788:	00a2f003 	adceq	pc, r2, r3
     78c:	01c61f00 	biceq	r1, r6, r0, lsl #30
     790:	3d010000 	stccc	0, cr0, [r1, #-0]
     794:	0001be0c 	andeq	fp, r1, ip, lsl #28
     798:	00028700 	andeq	r8, r2, r0, lsl #14
     79c:	00027f00 	andeq	r7, r2, r0, lsl #30
     7a0:	00701400 	rsbseq	r1, r0, r0, lsl #8
     7a4:	be0c4501 	cfsh32lt	mvfx4, mvfx12, #1
     7a8:	bf000001 	svclt	0x00000001
     7ac:	bb000002 	bllt	7bc <__code_start__-0x7844>
     7b0:	15000002 	strne	r0, [r0, #-2]
     7b4:	0000816c 	andeq	r8, r0, ip, ror #2
     7b8:	000006ed 	andeq	r0, r0, sp, ror #13
     7bc:	00000491 	muleq	r0, r1, r4
     7c0:	02500116 	subseq	r0, r0, #-2147483643	; 0x80000005
     7c4:	15000075 	strne	r0, [r0, #-117]	; 0xffffff8b
     7c8:	000081a8 	andeq	r8, r0, r8, lsr #3
     7cc:	00000764 	andeq	r0, r0, r4, ror #14
     7d0:	000004ca 	andeq	r0, r0, sl, asr #9
     7d4:	05500116 	ldrbeq	r0, [r0, #-278]	; 0xfffffeea
     7d8:	00a1ac03 	adceq	sl, r1, r3, lsl #24
     7dc:	51011600 	tstpl	r1, r0, lsl #12
     7e0:	a2200305 	eorge	r0, r0, #335544320	; 0x14000000
     7e4:	01160000 	tsteq	r6, r0
     7e8:	f0030552 			; <UNDEFINED> instruction: 0xf0030552
     7ec:	160000a2 	strne	r0, [r0], -r2, lsr #1
     7f0:	08025301 	stmdaeq	r2, {r0, r8, r9, ip, lr}
     7f4:	7d02163c 	stcvc	6, cr1, [r2, #-240]	; 0xffffff10
     7f8:	2c030500 	cfstr32cs	mvfx0, [r3], {-0}
     7fc:	000000a2 	andeq	r0, r0, r2, lsr #1
     800:	0081ac1a 	addeq	sl, r1, sl, lsl ip
     804:	00077c00 	andeq	r7, r7, r0, lsl #24
     808:	81d01500 	bicshi	r1, r0, r0, lsl #10
     80c:	07640000 	strbeq	r0, [r4, -r0]!
     810:	05090000 	streq	r0, [r9, #-0]
     814:	01160000 	tsteq	r6, r0
     818:	30030550 	andcc	r0, r3, r0, asr r5
     81c:	160000a2 	strne	r0, [r0], -r2, lsr #1
     820:	03055101 	movweq	r5, #20737	; 0x5101
     824:	0000a220 	andeq	sl, r0, r0, lsr #4
     828:	05520116 	ldrbeq	r0, [r2, #-278]	; 0xfffffeea
     82c:	00a2f003 	adceq	pc, r2, r3
     830:	53011600 	movwpl	r1, #5632	; 0x1600
     834:	164f0802 	strbne	r0, [pc], -r2, lsl #16
     838:	02007d02 	andeq	r7, r0, #128	; 0x80
     83c:	1a000074 	bne	a14 <__code_start__-0x75ec>
     840:	000081d4 	ldrdeq	r8, [r0], -r4
     844:	0000077c 	andeq	r0, r0, ip, ror r7
     848:	be040800 	cdplt	8, 0, cr0, cr4, cr0, {0}
     84c:	1b000001 	blne	858 <__code_start__-0x77a8>
     850:	000000c0 	andeq	r0, r0, r0, asr #1
     854:	00000529 	andeq	r0, r0, r9, lsr #10
     858:	00002c1c 	andeq	r2, r0, ip, lsl ip
     85c:	09000b00 	stmdbeq	r0, {r8, r9, fp}
     860:	00000519 	andeq	r0, r0, r9, lsl r5
     864:	00025a11 	andeq	r5, r2, r1, lsl sl
     868:	082b0100 	stmdaeq	fp!, {r8}
     86c:	000001be 			; <UNDEFINED> instruction: 0x000001be
     870:	00008238 	andeq	r8, r0, r8, lsr r2
     874:	00000058 	andeq	r0, r0, r8, asr r0
     878:	05cf9c01 	strbeq	r9, [pc, #3073]	; 1481 <__code_start__-0x6b7f>
     87c:	701e0000 	andsvc	r0, lr, r0
     880:	01007274 	tsteq	r0, r4, ror r2
     884:	01aa202b 			; <UNDEFINED> instruction: 0x01aa202b
     888:	02e10000 	rsceq	r0, r1, #0, 0
     88c:	02dd0000 	sbcseq	r0, sp, #0, 0
     890:	40200000 	eormi	r0, r0, r0
     894:	44000082 	strmi	r0, [r0], #-130	; 0xffffff7e
     898:	14000000 	strne	r0, [r0], #-0
     89c:	2e010068 	cdpcs	0, 0, cr0, cr1, cr8, {3}
     8a0:	0001be11 	andeq	fp, r1, r1, lsl lr
     8a4:	00030700 	andeq	r0, r3, r0, lsl #14
     8a8:	0002ff00 	andeq	pc, r2, r0, lsl #30
     8ac:	82441a00 	subhi	r1, r4, #0, 20
     8b0:	071a0000 	ldreq	r0, [sl, -r0]
     8b4:	5c150000 	ldcpl	0, cr0, [r5], {-0}
     8b8:	cf000082 	svcgt	0x00000082
     8bc:	9a000005 	bls	8d8 <__code_start__-0x7728>
     8c0:	16000005 	strne	r0, [r0], -r5
     8c4:	74025001 	strvc	r5, [r2], #-1
     8c8:	51011600 	tstpl	r1, r0, lsl #12
     8cc:	00007502 	andeq	r7, r0, r2, lsl #10
     8d0:	00826c15 	addeq	r6, r2, r5, lsl ip
     8d4:	0006ed00 	andeq	lr, r6, r0, lsl #26
     8d8:	0005ae00 	andeq	sl, r5, r0, lsl #28
     8dc:	50011600 	andpl	r1, r1, r0, lsl #12
     8e0:	00007402 	andeq	r7, r0, r2, lsl #8
     8e4:	00828417 	addeq	r8, r2, r7, lsl r4
     8e8:	00076400 	andeq	r6, r7, r0, lsl #8
     8ec:	50011600 	andpl	r1, r1, r0, lsl #12
     8f0:	a25c0305 	subsge	r0, ip, #335544320	; 0x14000000
     8f4:	01160000 	tsteq	r6, r0
     8f8:	00750251 	rsbseq	r0, r5, r1, asr r2
     8fc:	02520116 	subseq	r0, r2, #-2147483643	; 0x80000005
     900:	00000074 	andeq	r0, r0, r4, ror r0
     904:	01cb1100 	biceq	r1, fp, r0, lsl #2
     908:	24010000 	strcs	r0, [r1], #-0
     90c:	00002c0a 	andeq	r2, r0, sl, lsl #24
     910:	00820800 	addeq	r0, r2, r0, lsl #16
     914:	00003000 	andeq	r3, r0, r0
     918:	5c9c0100 	ldfpls	f0, [ip], {0}
     91c:	1e000006 	cdpne	0, 0, cr0, cr0, cr6, {0}
     920:	24010068 	strcs	r0, [r1], #-104	; 0xffffff98
     924:	0001be21 	andeq	fp, r1, r1, lsr #28
     928:	00033f00 	andeq	r3, r3, r0, lsl #30
     92c:	00033b00 	andeq	r3, r3, r0, lsl #22
     930:	74701e00 	ldrbtvc	r1, [r0], #-3584	; 0xfffff200
     934:	24010072 	strcs	r0, [r1], #-114	; 0xffffff8e
     938:	0001aa2a 	andeq	sl, r1, sl, lsr #20
     93c:	00036100 	andeq	r6, r3, r0, lsl #2
     940:	00035d00 	andeq	r5, r3, r0, lsl #26
     944:	696d1400 	stmdbvs	sp!, {sl, ip}^
     948:	2601006e 	strcs	r0, [r1], -lr, rrx
     94c:	0001aa0b 	andeq	sl, r1, fp, lsl #20
     950:	00038300 	andeq	r8, r3, r0, lsl #6
     954:	00037f00 	andeq	r7, r3, r0, lsl #30
     958:	616d1400 	cmnvs	sp, r0, lsl #8
     95c:	27010078 	smlsdxcs	r1, r8, r0, r0
     960:	0001aa0b 	andeq	sl, r1, fp, lsl #20
     964:	0003a300 	andeq	sl, r3, r0, lsl #6
     968:	0003a100 	andeq	sl, r3, r0, lsl #2
     96c:	82181500 	andshi	r1, r8, #0, 10
     970:	06c00000 	strbeq	r0, [r0], r0
     974:	064b0000 	strbeq	r0, [fp], -r0
     978:	01160000 	tsteq	r6, r0
     97c:	00760250 	rsbseq	r0, r6, r0, asr r2
     980:	82241700 	eorhi	r1, r4, #0, 14
     984:	065c0000 	ldrbeq	r0, [ip], -r0
     988:	01160000 	tsteq	r6, r0
     98c:	00760250 	rsbseq	r0, r6, r0, asr r2
     990:	a4110000 	ldrge	r0, [r1], #-0
     994:	01000002 	tsteq	r0, r2
     998:	01aa071e 			; <UNDEFINED> instruction: 0x01aa071e
     99c:	81f00000 	mvnshi	r0, r0
     9a0:	00180000 	andseq	r0, r8, r0
     9a4:	9c010000 	stcls	0, cr0, [r1], {-0}
     9a8:	000006c0 	andeq	r0, r0, r0, asr #13
     9ac:	0100681e 	tsteq	r0, lr, lsl r8
     9b0:	01be191e 			; <UNDEFINED> instruction: 0x01be191e
     9b4:	03ba0000 			; <UNDEFINED> instruction: 0x03ba0000
     9b8:	03b60000 			; <UNDEFINED> instruction: 0x03b60000
     9bc:	30210000 	eorcc	r0, r1, r0
     9c0:	fc000007 	stc2	0, cr0, [r0], {7}
     9c4:	00000081 	andeq	r0, r0, r1, lsl #1
     9c8:	000081fc 	strdeq	r8, [r0], -ip
     9cc:	00000004 	andeq	r0, r0, r4
     9d0:	af262001 	svcge	0x00262001
     9d4:	22000006 	andcs	r0, r0, #6, 0
     9d8:	00000741 	andeq	r0, r0, r1, asr #14
     9dc:	000003da 	ldrdeq	r0, [r0], -sl
     9e0:	000003d8 	ldrdeq	r0, [r0], -r8
     9e4:	81fc1700 	mvnshi	r1, r0, lsl #14
     9e8:	06c00000 	strbeq	r0, [r0], r0
     9ec:	01160000 	tsteq	r6, r0
     9f0:	00740250 	rsbseq	r0, r4, r0, asr r2
     9f4:	97110000 	ldrls	r0, [r1, -r0]
     9f8:	01000002 	tsteq	r0, r2
     9fc:	01aa0718 			; <UNDEFINED> instruction: 0x01aa0718
     a00:	81e80000 	mvnhi	r0, r0
     a04:	00080000 	andeq	r0, r8, r0
     a08:	9c010000 	stcls	0, cr0, [r1], {-0}
     a0c:	000006ed 	andeq	r0, r0, sp, ror #13
     a10:	0100681e 	tsteq	r0, lr, lsl r8
     a14:	01be1b18 			; <UNDEFINED> instruction: 0x01be1b18
     a18:	03f10000 	mvnseq	r0, #0, 0
     a1c:	03ed0000 	mvneq	r0, #0, 0
     a20:	11000000 	mrsne	r0, (UNDEF: 0)
     a24:	0000026c 	andeq	r0, r0, ip, ror #4
     a28:	be081101 	adflte	f1, f0, f1
     a2c:	34000001 	strcc	r0, [r0], #-1
     a30:	10000081 	andne	r0, r0, r1, lsl #1
     a34:	01000000 	mrseq	r0, (UNDEF: 0)
     a38:	00071a9c 	muleq	r7, ip, sl
     a3c:	00701e00 	rsbseq	r1, r0, r0, lsl #28
     a40:	be1b1101 	muflte	f1, f3, f1
     a44:	15000001 	strne	r0, [r0, #-1]
     a48:	11000004 	tstne	r0, r4
     a4c:	00000004 	andeq	r0, r0, r4
     a50:	0001fb23 	andeq	pc, r1, r3, lsr #22
     a54:	080b0100 	stmdaeq	fp, {r8}
     a58:	000001be 			; <UNDEFINED> instruction: 0x000001be
     a5c:	00008124 	andeq	r8, r0, r4, lsr #2
     a60:	00000010 	andeq	r0, r0, r0, lsl r0
     a64:	af249c01 	svcge	0x00249c01
     a68:	02000002 	andeq	r0, r0, #2, 0
     a6c:	002c1821 	eoreq	r1, ip, r1, lsr #16
     a70:	4c030000 	stcmi	0, cr0, [r3], {-0}
     a74:	25000007 	strcs	r0, [r0, #-7]
     a78:	21020068 	tstcs	r2, r8, rrx
     a7c:	0001be29 	andeq	fp, r1, r9, lsr #28
     a80:	b9260000 	stmdblt	r6!, {}	; <UNPREDICTABLE>
     a84:	b9000002 	stmdblt	r0, {r1}
     a88:	06000002 	streq	r0, [r0], -r2
     a8c:	6026071e 	eorvs	r0, r6, lr, lsl r7
     a90:	60000000 	andvs	r0, r0, r0
     a94:	04000000 	streq	r0, [r0], #-0
     a98:	462607f2 			; <UNDEFINED> instruction: 0x462607f2
     a9c:	46000005 	strmi	r0, [r0], -r5
     aa0:	04000005 	streq	r0, [r0], #-5
     aa4:	f3260628 	vmax.u32	d0, d6, d24
     aa8:	f3000001 	vhadd.u8	d0, d0, d1
     aac:	06000001 	streq	r0, [r0], -r1
     ab0:	4026061f 	eormi	r0, r6, pc, lsl r6
     ab4:	40000000 	andmi	r0, r0, r0
     ab8:	04000000 	streq	r0, [r0], #-0
     abc:	c200066e 	andgt	r0, r0, #115343360	; 0x6e00000
     ac0:	04000002 	streq	r0, [r0], #-2
     ac4:	00041b00 	andeq	r1, r4, r0, lsl #22
     ac8:	11010400 	tstne	r1, r0, lsl #8
     acc:	0c000001 	stceq	0, cr0, [r0], {1}
     ad0:	000002e3 	andeq	r0, r0, r3, ror #5
     ad4:	000000bf 	strheq	r0, [r0], -pc	; <UNPREDICTABLE>
     ad8:	0000840c 	andeq	r8, r0, ip, lsl #8
     adc:	000001ac 	andeq	r0, r0, ip, lsr #3
     ae0:	00000453 	andeq	r0, r0, r3, asr r4
     ae4:	69050402 	stmdbvs	r5, {r1, sl}
     ae8:	0300746e 	movweq	r7, #1134	; 0x46e
     aec:	00900704 	addseq	r0, r0, r4, lsl #14
     af0:	01030000 	mrseq	r0, (UNDEF: 3)
     af4:	00003406 	andeq	r3, r0, r6, lsl #8
     af8:	05020300 	streq	r0, [r2, #-768]	; 0xfffffd00
     afc:	000000f1 	strdeq	r0, [r0], -r1
     b00:	b6050403 	strlt	r0, [r5], -r3, lsl #8
     b04:	03000000 	movweq	r0, #0
     b08:	00b10508 	adcseq	r0, r1, r8, lsl #10
     b0c:	01030000 	mrseq	r0, (UNDEF: 3)
     b10:	00003208 	andeq	r3, r0, r8, lsl #4
     b14:	07020300 	streq	r0, [r2, -r0, lsl #6]
     b18:	0000004d 	andeq	r0, r0, sp, asr #32
     b1c:	8b070403 	blhi	1c1b30 <__bss_end__+0x1b6d38>
     b20:	03000000 	movweq	r0, #0
     b24:	00860708 	addeq	r0, r6, r8, lsl #14
     b28:	25040000 	strcs	r0, [r4, #-0]
     b2c:	7a000000 	bvc	b34 <__code_start__-0x74cc>
     b30:	05000000 	streq	r0, [r0, #-0]
     b34:	00000025 	andeq	r0, r0, r5, lsr #32
     b38:	01050600 	tsteq	r5, r0, lsl #12
     b3c:	1c020000 	stcne	0, cr0, [r2], {-0}
     b40:	0000860e 	andeq	r8, r0, lr, lsl #12
     b44:	6b040700 	blvs	10274c <__bss_end__+0xf7954>
     b48:	04000000 	streq	r0, [r0], #-0
     b4c:	00000025 	andeq	r0, r0, r5, lsr #32
     b50:	0000009b 	muleq	r0, fp, r0
     b54:	00009b05 	andeq	r9, r0, r5, lsl #22
     b58:	04070000 	streq	r0, [r7], #-0
     b5c:	000000a8 	andeq	r0, r0, r8, lsr #1
     b60:	3b080103 	blcc	200f74 <__bss_end__+0x1f617c>
     b64:	08000000 	stmdaeq	r0, {}	; <UNPREDICTABLE>
     b68:	000000a1 	andeq	r0, r0, r1, lsr #1
     b6c:	00058406 	andeq	r8, r5, r6, lsl #8
     b70:	0e210200 	cdpeq	2, 2, cr0, cr1, cr0, {0}
     b74:	000000b9 	strheq	r0, [r0], -r9
     b78:	008c0407 	addeq	r0, ip, r7, lsl #8
     b7c:	d0090000 	andle	r0, r9, r0
     b80:	08000002 	stmdaeq	r0, {r1}
     b84:	ec070501 	cfstr32	mvfx0, [r7], {1}
     b88:	0a000000 	beq	b90 <__code_start__-0x7470>
     b8c:	07010064 	streq	r0, [r1, -r4, rrx]
     b90:	0000ec09 	andeq	lr, r0, r9, lsl #24
     b94:	00700a00 	rsbseq	r0, r0, r0, lsl #20
     b98:	f3080801 	vsub.i8	d0, d8, d1
     b9c:	0a000000 	beq	ba4 <__code_start__-0x745c>
     ba0:	01007066 	tsteq	r0, r6, rrx
     ba4:	00f60909 	rscseq	r0, r6, r9, lsl #18
     ba8:	03000000 	movweq	r0, #0
     bac:	02ef0408 	rsceq	r0, pc, #8, 8	; 0x8000000
     bb0:	040b0000 	streq	r0, [fp], #-0
     bb4:	f504070c 			; <UNDEFINED> instruction: 0xf504070c
     bb8:	0d000000 	stceq	0, cr0, [r0, #-0]
     bbc:	020e0108 	andeq	r0, lr, #2
     bc0:	00000120 	andeq	r0, r0, r0, lsr #2
     bc4:	7274700e 	rsbsvc	r7, r4, #14, 0
     bc8:	11100100 	tstne	r0, r0, lsl #2
     bcc:	00000142 	andeq	r0, r0, r2, asr #2
     bd0:	03090f00 	movweq	r0, #40704	; 0x9f00
     bd4:	11010000 	mrsne	r0, (UNDEF: 1)
     bd8:	00002c0c 	andeq	r2, r0, ip, lsl #24
     bdc:	09000400 	stmdbeq	r0, {sl}
     be0:	000002c3 	andeq	r0, r0, r3, asr #5
     be4:	0f0c0108 	svceq	0x000c0108
     be8:	00000142 	andeq	r0, r0, r2, asr #2
     bec:	0100730a 	tsteq	r0, sl, lsl #6
     bf0:	00fc0412 	rscseq	r0, ip, r2, lsl r4
     bf4:	780a0000 	stmdavc	sl, {}	; <UNPREDICTABLE>
     bf8:	0e130100 	mufeqs	f0, f3, f0
     bfc:	000000bf 	strheq	r0, [r0], -pc	; <UNPREDICTABLE>
     c00:	20040700 	andcs	r0, r4, r0, lsl #14
     c04:	10000001 	andne	r0, r0, r1
     c08:	0000030e 	andeq	r0, r0, lr, lsl #6
     c0c:	20031401 	andcs	r1, r3, r1, lsl #8
     c10:	11000001 	tstne	r0, r1
     c14:	000002f6 	strdeq	r0, [r0], -r6
     c18:	480f1801 	stmdami	pc, {r0, fp, ip}	; <UNPREDICTABLE>
     c1c:	05000001 	streq	r0, [r0, #-1]
     c20:	00a9e003 	adceq	lr, r9, r3
     c24:	02d61100 	sbcseq	r1, r6, #0
     c28:	19010000 	stmdbne	r1, {}	; <UNPREDICTABLE>
     c2c:	00017810 	andeq	r7, r1, r0, lsl r8
     c30:	d8030500 	stmdale	r3, {r8, sl}
     c34:	070000a9 	streq	r0, [r0, -r9, lsr #1]
     c38:	00014804 	andeq	r4, r1, r4, lsl #16
     c3c:	01f31200 	mvnseq	r1, r0, lsl #4
     c40:	52010000 	andpl	r0, r1, #0, 0
     c44:	00840c06 	addeq	r0, r4, r6, lsl #24
     c48:	0000bc00 	andeq	fp, r0, r0, lsl #24
     c4c:	c79c0100 	ldrgt	r0, [ip, r0, lsl #2]
     c50:	13000001 	movwne	r0, #1
     c54:	01007061 	tsteq	r0, r1, rrx
     c58:	00f31452 	rscseq	r1, r3, r2, asr r4
     c5c:	50010000 	andpl	r0, r1, r0
     c60:	00706214 	rsbseq	r6, r0, r4, lsl r2
     c64:	780a5401 	stmdavc	sl, {r0, sl, ip, lr}
     c68:	3e000001 	cdpcc	0, 0, cr0, cr0, cr1, {0}
     c6c:	36000004 	strcc	r0, [r0], -r4
     c70:	14000004 	strne	r0, [r0], #-4
     c74:	54010070 	strpl	r0, [r1], #-112	; 0xffffff90
     c78:	0001780f 	andeq	r7, r1, pc, lsl #16
     c7c:	00047a00 	andeq	r7, r4, r0, lsl #20
     c80:	00047600 	andeq	r7, r4, r0, lsl #12
     c84:	b9150000 	ldmdblt	r5, {}	; <UNPREDICTABLE>
     c88:	01000002 	tsteq	r0, r2
     c8c:	00f3072a 	rscseq	r0, r3, sl, lsr #14
     c90:	850c0000 	strhi	r0, [ip, #-0]
     c94:	00ac0000 	adceq	r0, ip, r0
     c98:	9c010000 	stcls	0, cr0, [r1], {-0}
     c9c:	00000240 	andeq	r0, r0, r0, asr #4
     ca0:	0002b216 	andeq	fp, r2, r6, lsl r2
     ca4:	1a2a0100 	bne	a810ac <__bss_end__+0xa762b4>
     ca8:	0000002c 	andeq	r0, r0, ip, lsr #32
     cac:	000004a0 	andeq	r0, r0, r0, lsr #9
     cb0:	00000498 	muleq	r0, r8, r4
     cb4:	01007014 	tsteq	r0, r4, lsl r0
     cb8:	01780a2c 	cmneq	r8, ip, lsr #20
     cbc:	04e80000 	strbteq	r0, [r8], #0
     cc0:	04da0000 	ldrbeq	r0, [sl], #0
     cc4:	ca170000 	bgt	5c0ccc <__bss_end__+0x5b5ed4>
     cc8:	01000002 	tsteq	r0, r2
     ccc:	01780e2c 	cmneq	r8, ip, lsr #28
     cd0:	054a0000 	strbeq	r0, [sl, #-0]
     cd4:	05400000 	strbeq	r0, [r0, #-0]
     cd8:	dc170000 	ldcle	0, cr0, [r7], {-0}
     cdc:	01000002 	tsteq	r0, r2
     ce0:	002c0b2d 	eoreq	r0, ip, sp, lsr #22
     ce4:	05900000 	ldreq	r0, [r0]
     ce8:	058e0000 	streq	r0, [lr]
     cec:	a8180000 	ldmdage	r8, {}	; <UNPREDICTABLE>
     cf0:	40000085 	andmi	r0, r0, r5, lsl #1
     cf4:	19000002 	stmdbne	r0, {r1}
     cf8:	74025001 	strvc	r5, [r2], #-1
     cfc:	1a000000 	bne	d04 <__code_start__-0x72fc>
     d00:	00000300 	andeq	r0, r0, r0, lsl #6
     d04:	78101c01 	ldmdavc	r0, {r0, sl, fp, ip}
     d08:	c8000001 	stmdagt	r0, {r0}
     d0c:	44000084 	strmi	r0, [r0], #-132	; 0xffffff7c
     d10:	01000000 	mrseq	r0, (UNDEF: 0)
     d14:	0002b39c 	muleq	r2, ip, r3
     d18:	756e1b00 	strbvc	r1, [lr, #-2816]!	; 0xfffff500
     d1c:	221c0100 	andscs	r0, ip, #0
     d20:	0000002c 	andeq	r0, r0, ip, lsr #32
     d24:	000005a7 	andeq	r0, r0, r7, lsr #11
     d28:	000005a3 	andeq	r0, r0, r3, lsr #11
     d2c:	00706314 	rsbseq	r6, r0, r4, lsl r3
     d30:	b3082001 	movwlt	r2, #32769	; 0x8001
     d34:	cb000002 	blgt	d44 <__code_start__-0x72bc>
     d38:	c5000005 	strgt	r0, [r0, #-5]
     d3c:	14000005 	strne	r0, [r0], #-5
     d40:	01007075 	tsteq	r0, r5, ror r0
     d44:	01780a23 	cmneq	r8, r3, lsr #20
     d48:	05fa0000 	ldrbeq	r0, [sl, #0]!
     d4c:	05f60000 	ldrbeq	r0, [r6, #0]!
     d50:	e01c0000 	ands	r0, ip, r0
     d54:	b9000084 	stmdblt	r0, {r2, r7}
     d58:	a9000002 	stmdbge	r0, {r1}
     d5c:	19000002 	stmdbne	r0, {r1}
     d60:	74045001 	strvc	r5, [r4], #-1
     d64:	00243300 	eoreq	r3, r4, r0, lsl #6
     d68:	0084f41d 	addeq	pc, r4, sp, lsl r4	; <UNPREDICTABLE>
     d6c:	00017e00 	andeq	r7, r1, r0, lsl #28
     d70:	04070000 	streq	r0, [r7], #-0
     d74:	000000a1 	andeq	r0, r0, r1, lsr #1
     d78:	0002fb1e 	andeq	pc, r2, lr, lsl fp	; <UNPREDICTABLE>
     d7c:	0002fb00 	andeq	pc, r2, r0, lsl #22
     d80:	0b1a0300 	bleq	681988 <__bss_end__+0x676b90>
     d84:	000d2d00 	andeq	r2, sp, r0, lsl #26
     d88:	f2000400 	vshl.s8	d0, d0, d0
     d8c:	04000005 	streq	r0, [r0], #-5
     d90:	00011101 	andeq	r1, r1, r1, lsl #2
     d94:	03cf0c00 	biceq	r0, pc, #0, 24
     d98:	00bf0000 	adcseq	r0, pc, r0
     d9c:	85b80000 	ldrhi	r0, [r8, #0]!
     da0:	06040000 	streq	r0, [r4], -r0
     da4:	067e0000 	ldrbteq	r0, [lr], -r0
     da8:	04020000 	streq	r0, [r2], #-0
     dac:	746e6905 	strbtvc	r6, [lr], #-2309	; 0xfffff6fb
     db0:	07040300 	streq	r0, [r4, -r0, lsl #6]
     db4:	00000090 	muleq	r0, r0, r0
     db8:	34060103 	strcc	r0, [r6], #-259	; 0xfffffefd
     dbc:	03000000 	movweq	r0, #0
     dc0:	00f10502 	rscseq	r0, r1, r2, lsl #10
     dc4:	04030000 	streq	r0, [r3], #-0
     dc8:	0000b605 	andeq	fp, r0, r5, lsl #12
     dcc:	05080300 	streq	r0, [r8, #-768]	; 0xfffffd00
     dd0:	000000b1 	strheq	r0, [r0], -r1
     dd4:	32080103 	andcc	r0, r8, #-1073741824	; 0xc0000000
     dd8:	04000000 	streq	r0, [r0], #-0
     ddc:	00000251 	andeq	r0, r0, r1, asr r2
     de0:	62193103 	andsvs	r3, r9, #-1073741824	; 0xc0000000
     de4:	03000000 	movweq	r0, #0
     de8:	004d0702 	subeq	r0, sp, r2, lsl #14
     dec:	48040000 	stmdami	r4, {}	; <UNPREDICTABLE>
     df0:	03000002 	movweq	r0, #2
     df4:	00751934 	rsbseq	r1, r5, r4, lsr r9
     df8:	04030000 	streq	r0, [r3], #-0
     dfc:	00008b07 	andeq	r8, r0, r7, lsl #22
     e00:	07080300 	streq	r0, [r8, -r0, lsl #6]
     e04:	00000086 	andeq	r0, r0, r6, lsl #1
     e08:	00002505 	andeq	r2, r0, r5, lsl #10
     e0c:	00009200 	andeq	r9, r0, r0, lsl #4
     e10:	00250600 	eoreq	r0, r5, r0, lsl #12
     e14:	07000000 	streq	r0, [r0, -r0]
     e18:	00000105 	andeq	r0, r0, r5, lsl #2
     e1c:	9e0e1c04 	cdpls	12, 0, cr1, cr14, cr4, {0}
     e20:	08000000 	stmdaeq	r0, {}	; <UNPREDICTABLE>
     e24:	00008304 	andeq	r8, r0, r4, lsl #6
     e28:	00250500 	eoreq	r0, r5, r0, lsl #10
     e2c:	00b30000 	adcseq	r0, r3, r0
     e30:	b3060000 	movwlt	r0, #24576	; 0x6000
     e34:	00000000 	andeq	r0, r0, r0
     e38:	00c00408 	sbceq	r0, r0, r8, lsl #8
     e3c:	01030000 	mrseq	r0, (UNDEF: 3)
     e40:	00003b08 	andeq	r3, r0, r8, lsl #22
     e44:	00b90900 	adcseq	r0, r9, r0, lsl #18
     e48:	84070000 	strhi	r0, [r7], #-0
     e4c:	04000005 	streq	r0, [r0], #-5
     e50:	00d10e21 	sbcseq	r0, r1, r1, lsr #28
     e54:	04080000 	streq	r0, [r8], #-0
     e58:	000000a4 	andeq	r0, r0, r4, lsr #1
     e5c:	04020c0a 	streq	r0, [r2], #-3082	; 0xfffff3f6
     e60:	00010809 	andeq	r0, r1, r9, lsl #16
     e64:	002d0b00 	eoreq	r0, sp, r0, lsl #22
     e68:	06020000 	streq	r0, [r2], -r0
     e6c:	0000b311 	andeq	fp, r0, r1, lsl r3
     e70:	670b0000 	strvs	r0, [fp, -r0]
     e74:	02000000 	andeq	r0, r0, #0, 0
     e78:	00b31107 	adcseq	r1, r3, r7, lsl #2
     e7c:	0b040000 	bleq	100e84 <__bss_end__+0xf608c>
     e80:	00000010 	andeq	r0, r0, r0, lsl r0
     e84:	2c0e0802 	stccs	8, cr0, [lr], {2}
     e88:	08000000 	stmdaeq	r0, {}	; <UNPREDICTABLE>
     e8c:	00fb0400 	rscseq	r0, fp, r0, lsl #8
     e90:	09020000 	stmdbeq	r2, {}	; <UNPREDICTABLE>
     e94:	0000d703 	andeq	sp, r0, r3, lsl #14
     e98:	02260c00 	eoreq	r0, r6, #0, 24
     e9c:	05240000 	streq	r0, [r4, #-0]!
     ea0:	017d100c 	cmneq	sp, ip
     ea4:	000b0000 	andeq	r0, fp, r0
     ea8:	05000000 	streq	r0, [r0, #-0]
     eac:	017d140d 	cmneq	sp, sp, lsl #8
     eb0:	0b000000 	bleq	eb8 <__code_start__-0x7148>
     eb4:	0000028a 	andeq	r0, r0, sl, lsl #5
     eb8:	690e0e05 	stmdbvs	lr, {r0, r2, r9, sl, fp}
     ebc:	04000000 	streq	r0, [r0], #-0
     ec0:	0002370b 	andeq	r3, r2, fp, lsl #14
     ec4:	0e0f0500 	cfsh32eq	mvfx0, mvfx15, #0
     ec8:	00000069 	andeq	r0, r0, r9, rrx
     ecc:	022d0b08 	eoreq	r0, sp, #8, 22	; 0x2000
     ed0:	11050000 	mrsne	r0, (UNDEF: 5)
     ed4:	0001080f 	andeq	r0, r1, pc, lsl #16
     ed8:	3d0b0c00 	stccc	12, cr0, [fp, #-0]
     edc:	05000002 	streq	r0, [r0, #-2]
     ee0:	00690e14 	rsbeq	r0, r9, r4, lsl lr
     ee4:	0b180000 	bleq	600eec <__bss_end__+0x5f60f4>
     ee8:	000001e7 	andeq	r0, r0, r7, ror #3
     eec:	690e1505 	stmdbvs	lr, {r0, r2, r8, sl, ip}
     ef0:	1c000000 	stcne	0, cr0, [r0], {-0}
     ef4:	0003650b 	andeq	r6, r3, fp, lsl #10
     ef8:	0e170500 	cfmul32eq	mvfx0, mvfx7, mvfx0
     efc:	00000056 	andeq	r0, r0, r6, asr r0
     f00:	04080020 	streq	r0, [r8], #-32	; 0xffffffe0
     f04:	00000114 	andeq	r0, r0, r4, lsl r1
     f08:	0001db04 	andeq	sp, r1, r4, lsl #22
     f0c:	03180500 	tsteq	r8, #0, 10
     f10:	00000114 	andeq	r0, r0, r4, lsl r1
     f14:	ec0e040d 	cfstrs	mvf0, [lr], {13}
     f18:	01000009 	tsteq	r0, r9
     f1c:	018f0e10 	orreq	r0, pc, r0, lsl lr	; <UNPREDICTABLE>
     f20:	03050000 	movweq	r0, #20480	; 0x5000
     f24:	0000a9e8 	andeq	sl, r0, r8, ror #19
     f28:	000a4d0e 	andeq	r4, sl, lr, lsl #26
     f2c:	0e110100 	mufeqs	f0, f1, f0
     f30:	0000018f 	andeq	r0, r0, pc, lsl #3
     f34:	a9ec0305 	stmibge	ip!, {r0, r2, r8, r9}^
     f38:	280f0000 	stmdacs	pc, {}	; <UNPREDICTABLE>
     f3c:	01000003 	tsteq	r0, r3
     f40:	90060115 	andls	r0, r6, r5, lsl r1
     f44:	2c00008b 	stccs	0, cr0, [r0], {139}	; 0x8b
     f48:	01000000 	mrseq	r0, (UNDEF: 0)
     f4c:	0002159c 	muleq	r2, ip, r5
     f50:	006c1000 	rsbeq	r1, ip, r0
     f54:	02250000 	eoreq	r0, r5, #0, 0
     f58:	03050000 	movweq	r0, #20480	; 0x5000
     f5c:	0000a63c 	andeq	sl, r0, ip, lsr r6
     f60:	008ba811 	addeq	sl, fp, r1, lsl r8
     f64:	000ca900 	andeq	sl, ip, r0, lsl #18
     f68:	00020b00 	andeq	r0, r2, r0, lsl #22
     f6c:	50011200 	andpl	r1, r1, r0, lsl #4
     f70:	a5cc0305 	strbge	r0, [ip, #773]	; 0x305
     f74:	01120000 	tsteq	r2, r0
     f78:	04030551 	streq	r0, [r3], #-1361	; 0xfffffaaf
     f7c:	120000a3 	andne	r0, r0, #163, 0	; 0xa3
     f80:	03055201 	movweq	r5, #20993	; 0x5201
     f84:	0000a63c 	andeq	sl, r0, ip, lsr r6
     f88:	03530112 	cmpeq	r3, #-2147483644	; 0x80000004
     f8c:	0001170a 	andeq	r1, r1, sl, lsl #14
     f90:	008bac13 	addeq	sl, fp, r3, lsl ip
     f94:	000cb500 	andeq	fp, ip, r0, lsl #10
     f98:	c0140000 	andsgt	r0, r4, r0
     f9c:	25000000 	strcs	r0, [r0, #-0]
     fa0:	15000002 	strne	r0, [r0, #-2]
     fa4:	0000002c 	andeq	r0, r0, ip, lsr #32
     fa8:	1509000e 	strne	r0, [r9, #-14]
     fac:	16000002 	strne	r0, [r0], -r2
     fb0:	00000385 	andeq	r0, r0, r5, lsl #7
     fb4:	0a010b01 	beq	43bc0 <__bss_end__+0x38dc8>
     fb8:	0000002c 	andeq	r0, r0, ip, lsr #32
     fbc:	00008b80 	andeq	r8, r0, r0, lsl #23
     fc0:	00000010 	andeq	r0, r0, r0, lsl r0
     fc4:	026d9c01 	rsbeq	r9, sp, #256	; 0x100
     fc8:	b2170000 	andslt	r0, r7, #0, 0
     fcc:	01000002 	tsteq	r0, r2
     fd0:	2c0e010e 	stfcss	f0, [lr], {14}
     fd4:	1c000000 	stcne	0, cr0, [r0], {-0}
     fd8:	1a000006 	bne	ff8 <__code_start__-0x7008>
     fdc:	13000006 	movwne	r0, #6
     fe0:	00008b88 	andeq	r8, r0, r8, lsl #23
     fe4:	0000079b 	muleq	r0, fp, r7
     fe8:	008b8c13 	addeq	r8, fp, r3, lsl ip
     fec:	00026d00 	andeq	r6, r2, r0, lsl #26
     ff0:	2e180000 	cdpcs	0, 1, cr0, cr8, cr0, {0}
     ff4:	01000004 	tsteq	r0, r4
     ff8:	002c11f3 	strdeq	r1, [ip], -r3	; <UNPREDICTABLE>
     ffc:	89380000 	ldmdbhi	r8!, {}	; <UNPREDICTABLE>
    1000:	00e80000 	rsceq	r0, r8, r0
    1004:	9c010000 	stcls	0, cr0, [r1], {-0}
    1008:	000003ee 	andeq	r0, r0, lr, ror #7
    100c:	00034519 	andeq	r4, r3, r9, lsl r5
    1010:	0ef50100 	cdpeq	1, 15, cr0, cr5, cr0, {0}
    1014:	0000002c 	andeq	r0, r0, ip, lsr #32
    1018:	00000633 	andeq	r0, r0, r3, lsr r6
    101c:	0000062f 	andeq	r0, r0, pc, lsr #12
    1020:	0003ba19 	andeq	fp, r3, r9, lsl sl
    1024:	1bf50100 	blne	ffd4142c <__bss_end__+0xffd36634>
    1028:	0000002c 	andeq	r0, r0, ip, lsr #32
    102c:	00000656 	andeq	r0, r0, r6, asr r6
    1030:	00000652 	andeq	r0, r0, r2, asr r6
    1034:	00035419 	andeq	r5, r3, r9, lsl r4
    1038:	27f50100 	ldrbcs	r0, [r5, r0, lsl #2]!
    103c:	0000002c 	andeq	r0, r0, ip, lsr #32
    1040:	0000067b 	andeq	r0, r0, fp, ror r6
    1044:	00000675 	andeq	r0, r0, r5, ror r6
    1048:	00006c10 	andeq	r6, r0, r0, lsl ip
    104c:	0003fe00 	andeq	pc, r3, r0, lsl #28
    1050:	04030500 	streq	r0, [r3], #-1280	; 0xfffffb00
    1054:	1a0000a6 	bne	12f4 <__code_start__-0x6d0c>
    1058:	00000080 	andeq	r0, r0, r0, lsl #1
    105c:	0000037a 	andeq	r0, r0, sl, ror r3
    1060:	0100681b 	tsteq	r0, fp, lsl r8
    1064:	040311fa 	streq	r1, [r3], #-506	; 0xfffffe06
    1068:	06ad0000 	strteq	r0, [sp], r0
    106c:	06a50000 	strteq	r0, [r5], r0
    1070:	731c0000 	tstvc	ip, #0, 0
    1074:	7c00000c 	stcvc	0, cr0, [r0], {12}
    1078:	00000089 	andeq	r0, r0, r9, lsl #1
    107c:	0000897c 	andeq	r8, r0, ip, ror r9
    1080:	00000018 	andeq	r0, r0, r8, lsl r0
    1084:	0d010101 	stfeqs	f0, [r1, #-4]
    1088:	0000032f 	andeq	r0, r0, pc, lsr #6
    108c:	000c9c1d 	andeq	r9, ip, sp, lsl ip
    1090:	0006e300 	andeq	lr, r6, r0, lsl #6
    1094:	0006e100 	andeq	lr, r6, r0, lsl #2
    1098:	0c901d00 	ldceq	13, cr1, [r0], {0}
    109c:	06fb0000 	ldrbteq	r0, [fp], r0
    10a0:	06f90000 	ldrbteq	r0, [r9], r0
    10a4:	841d0000 	ldrhi	r0, [sp], #-0
    10a8:	1500000c 	strne	r0, [r0, #-12]
    10ac:	13000007 	movwne	r0, #7
    10b0:	00000007 	andeq	r0, r0, r7
    10b4:	00895813 	addeq	r5, r9, r3, lsl r8
    10b8:	000cd000 	andeq	sp, ip, r0
    10bc:	89a41100 	stmibhi	r4!, {r8, ip}
    10c0:	0cdc0000 	ldcleq	0, cr0, [ip], {0}
    10c4:	034c0000 	movteq	r0, #49152	; 0xc000
    10c8:	01120000 	tsteq	r2, r0
    10cc:	00760250 	rsbseq	r0, r6, r0, asr r2
    10d0:	89b01100 	ldmibhi	r0!, {r8, ip}
    10d4:	0ca90000 	stceq	0, cr0, [r9]
    10d8:	03690000 	cmneq	r9, #0, 0
    10dc:	01120000 	tsteq	r2, r0
    10e0:	d4030550 	strle	r0, [r3], #-1360	; 0xfffffab0
    10e4:	120000a4 	andne	r0, r0, #164, 0	; 0xa4
    10e8:	76025101 	strvc	r5, [r2], -r1, lsl #2
    10ec:	b81e0000 	ldmdalt	lr, {}	; <UNPREDICTABLE>
    10f0:	e8000089 	stmda	r0, {r0, r3, r7}
    10f4:	1200000c 	andne	r0, r0, #12, 0
    10f8:	74025001 	strvc	r5, [r2], #-1
    10fc:	11000000 	mrsne	r0, (UNDEF: 0)
    1100:	00008948 	andeq	r8, r0, r8, asr #18
    1104:	00000ca9 	andeq	r0, r0, r9, lsr #25
    1108:	00000391 	muleq	r0, r1, r3
    110c:	05500112 	ldrbeq	r0, [r0, #-274]	; 0xfffffeee
    1110:	00a39c03 	adceq	r9, r3, r3, lsl #24
    1114:	50110000 	andspl	r0, r1, r0
    1118:	a9000089 	stmdbge	r0, {r0, r3, r7}
    111c:	a800000c 	stmdage	r0, {r2, r3}
    1120:	12000003 	andne	r0, r0, #3, 0
    1124:	03055001 	movweq	r5, #20481	; 0x5001
    1128:	0000a4c4 	andeq	sl, r0, r4, asr #9
    112c:	89541300 	ldmdbhi	r4, {r8, r9, ip}^
    1130:	079b0000 	ldreq	r0, [fp, r0]
    1134:	e0110000 	ands	r0, r1, r0
    1138:	a9000089 	stmdbge	r0, {r0, r3, r7}
    113c:	c800000c 	stmdagt	r0, {r2, r3}
    1140:	12000003 	andne	r0, r0, #3, 0
    1144:	03055001 	movweq	r5, #20481	; 0x5001
    1148:	0000a41c 	andeq	sl, r0, ip, lsl r4
    114c:	89f41e00 	ldmibhi	r4!, {r9, sl, fp, ip}^
    1150:	0ca90000 	stceq	0, cr0, [r9]
    1154:	01120000 	tsteq	r2, r0
    1158:	e4030550 	str	r0, [r3], #-1360	; 0xfffffab0
    115c:	120000a4 	andne	r0, r0, #164, 0	; 0xa4
    1160:	75025101 	strvc	r5, [r2, #-257]	; 0xfffffeff
    1164:	52011200 	andpl	r1, r1, #0, 4
    1168:	12007802 	andne	r7, r0, #131072	; 0x20000
    116c:	77025301 	strvc	r5, [r2, -r1, lsl #6]
    1170:	14000000 	strne	r0, [r0], #-0
    1174:	000000c0 	andeq	r0, r0, r0, asr #1
    1178:	000003fe 	strdeq	r0, [r0], -lr
    117c:	00002c15 	andeq	r2, r0, r5, lsl ip
    1180:	09000a00 	stmdbeq	r0, {r9, fp}
    1184:	000003ee 	andeq	r0, r0, lr, ror #7
    1188:	01830408 	orreq	r0, r3, r8, lsl #8
    118c:	d71f0000 	ldrle	r0, [pc, -r0]
    1190:	01000003 	tsteq	r0, r3
    1194:	002c0ae3 	eoreq	r0, ip, r3, ror #21
    1198:	8b240000 	blhi	9011a0 <__bss_end__+0x8f63a8>
    119c:	005c0000 	subseq	r0, ip, r0
    11a0:	9c010000 	stcls	0, cr0, [r1], {-0}
    11a4:	000004c6 	andeq	r0, r0, r6, asr #9
    11a8:	00039519 	andeq	r9, r3, r9, lsl r5
    11ac:	0ee90100 	cdpeq	1, 14, cr0, cr9, cr0, {0}
    11b0:	0000002c 	andeq	r0, r0, ip, lsr #32
    11b4:	00000731 	andeq	r0, r0, r1, lsr r7
    11b8:	0000072d 	andeq	r0, r0, sp, lsr #14
    11bc:	00006c10 	andeq	r6, r0, r0, lsl ip
    11c0:	0004d600 	andeq	sp, r4, r0, lsl #12
    11c4:	28030500 	stmdacs	r3, {r8, sl}
    11c8:	110000a6 	smlatbne	r0, r6, r0, r0
    11cc:	00008b30 	andeq	r8, r0, r0, lsr fp
    11d0:	0000058f 	andeq	r0, r0, pc, lsl #11
    11d4:	00000459 	andeq	r0, r0, r9, asr r4
    11d8:	01500112 	cmpeq	r0, r2, lsl r1
    11dc:	40110031 	andsmi	r0, r1, r1, lsr r0
    11e0:	a900008b 	stmdbge	r0, {r0, r1, r3, r7}
    11e4:	7000000c 	andvc	r0, r0, ip
    11e8:	12000004 	andne	r0, r0, #4, 0
    11ec:	03055001 	movweq	r5, #20481	; 0x5001
    11f0:	0000a41c 	andeq	sl, r0, ip, lsl r4
    11f4:	8b4c1100 	blhi	13055fc <__bss_end__+0x12fa804>
    11f8:	0ca90000 	stceq	0, cr0, [r9]
    11fc:	048d0000 	streq	r0, [sp], #0
    1200:	01120000 	tsteq	r2, r0
    1204:	ac030550 	cfstr32ge	mvfx0, [r3], {80}	; 0x50
    1208:	120000a5 	andne	r0, r0, #165, 0	; 0xa5
    120c:	74025101 	strvc	r5, [r2], #-257	; 0xfffffeff
    1210:	68110000 	ldmdavs	r1, {}	; <UNPREDICTABLE>
    1214:	a900008b 	stmdbge	r0, {r0, r1, r3, r7}
    1218:	bc00000c 	stclt	0, cr0, [r0], {12}
    121c:	12000004 	andne	r0, r0, #4, 0
    1220:	03055001 	movweq	r5, #20481	; 0x5001
    1224:	0000a584 	andeq	sl, r0, r4, lsl #11
    1228:	05510112 	ldrbeq	r0, [r1, #-274]	; 0xfffffeee
    122c:	00a30403 	adceq	r0, r3, r3, lsl #8
    1230:	52011200 	andpl	r1, r1, #0, 4
    1234:	a6280305 	strtge	r0, [r8], -r5, lsl #6
    1238:	01120000 	tsteq	r2, r0
    123c:	eb080253 	bl	201b90 <__bss_end__+0x1f6d98>
    1240:	8b6c1300 	blhi	1b05e48 <__bss_end__+0x1afb050>
    1244:	0cb50000 	ldceq	0, cr0, [r5]
    1248:	14000000 	strne	r0, [r0], #-0
    124c:	000000c0 	andeq	r0, r0, r0, asr #1
    1250:	000004d6 	ldrdeq	r0, [r0], -r6
    1254:	00002c15 	andeq	r2, r0, r5, lsl ip
    1258:	09001100 	stmdbeq	r0, {r8, ip}
    125c:	000004c6 	andeq	r0, r0, r6, asr #9
    1260:	00001f20 	andeq	r1, r0, r0, lsr #30
    1264:	06d50100 	ldrbeq	r0, [r5], r0, lsl #2
    1268:	00008ad0 	ldrdeq	r8, [r0], -r0
    126c:	00000054 	andeq	r0, r0, r4, asr r0
    1270:	057a9c01 	ldrbeq	r9, [sl, #-3073]!	; 0xfffff3ff
    1274:	6c100000 	ldcvs	0, cr0, [r0], {-0}
    1278:	8a000000 	bhi	1280 <__code_start__-0x6d80>
    127c:	05000005 	streq	r0, [r0, #-5]
    1280:	00a61803 	adceq	r1, r6, r3, lsl #16
    1284:	8adc1100 	bhi	ff70568c <__bss_end__+0xff6fa894>
    1288:	058f0000 	streq	r0, [pc]	; 1290 <__code_start__-0x6d70>
    128c:	05130000 	ldreq	r0, [r3, #-0]
    1290:	01120000 	tsteq	r2, r0
    1294:	00310150 	eorseq	r0, r1, r0, asr r1
    1298:	008aec11 	addeq	lr, sl, r1, lsl ip
    129c:	000ca900 	andeq	sl, ip, r0, lsl #18
    12a0:	00052a00 	andeq	r2, r5, r0, lsl #20
    12a4:	50011200 	andpl	r1, r1, r0, lsl #4
    12a8:	a41c0305 	ldrge	r0, [ip], #-773	; 0xfffffcfb
    12ac:	11000000 	mrsne	r0, (UNDEF: 0)
    12b0:	00008af4 	strdeq	r8, [r0], -r4
    12b4:	00000ca9 	andeq	r0, r0, r9, lsr #25
    12b8:	00000541 	andeq	r0, r0, r1, asr #10
    12bc:	05500112 	ldrbeq	r0, [r0, #-274]	; 0xfffffeee
    12c0:	00a56c03 	adceq	r6, r5, r3, lsl #24
    12c4:	0c110000 	ldceq	0, cr0, [r1], {-0}
    12c8:	a900008b 	stmdbge	r0, {r0, r1, r3, r7}
    12cc:	7000000c 	andvc	r0, r0, ip
    12d0:	12000005 	andne	r0, r0, #5, 0
    12d4:	03055001 	movweq	r5, #20481	; 0x5001
    12d8:	0000a540 	andeq	sl, r0, r0, asr #10
    12dc:	05510112 	ldrbeq	r0, [r1, #-274]	; 0xfffffeee
    12e0:	00a30403 	adceq	r0, r3, r3, lsl #8
    12e4:	52011200 	andpl	r1, r1, #0, 4
    12e8:	a6180305 	ldrge	r0, [r8], -r5, lsl #6
    12ec:	01120000 	tsteq	r2, r0
    12f0:	dc080253 	sfmle	f0, 4, [r8], {83}	; 0x53
    12f4:	8b101300 	blhi	405efc <__bss_end__+0x3fb104>
    12f8:	0cb50000 	ldceq	0, cr0, [r5]
    12fc:	14000000 	strne	r0, [r0], #-0
    1300:	000000c0 	andeq	r0, r0, r0, asr #1
    1304:	0000058a 	andeq	r0, r0, sl, lsl #11
    1308:	00002c15 	andeq	r2, r0, r5, lsl ip
    130c:	09000d00 	stmdbeq	r0, {r8, sl, fp}
    1310:	0000057a 	andeq	r0, r0, sl, ror r5
    1314:	00036a1f 	andeq	r6, r3, pc, lsl sl
    1318:	0ace0100 	beq	ff381720 <__bss_end__+0xff376928>
    131c:	0000002c 	andeq	r0, r0, ip, lsr #32
    1320:	00008ac4 	andeq	r8, r0, r4, asr #21
    1324:	0000000c 	andeq	r0, r0, ip
    1328:	05cf9c01 	strbeq	r9, [pc, #3073]	; 1f31 <__code_start__-0x60cf>
    132c:	39210000 	stmdbcc	r1!, {}	; <UNPREDICTABLE>
    1330:	01000004 	tsteq	r0, r4
    1334:	00251cce 	eoreq	r1, r5, lr, asr #25
    1338:	07530000 	ldrbeq	r0, [r3, -r0]
    133c:	074f0000 	strbeq	r0, [pc, -r0]
    1340:	cc1e0000 	ldcgt	0, cr0, [lr], {-0}
    1344:	cf00008a 	svcgt	0x0000008a
    1348:	12000005 	andne	r0, r0, #5, 0
    134c:	f3035001 	vhadd.u8	d5, d3, d1
    1350:	00005001 	andeq	r5, r0, r1
    1354:	00041418 	andeq	r1, r4, r8, lsl r4
    1358:	11a50100 			; <UNDEFINED> instruction: 0x11a50100
    135c:	0000002c 	andeq	r0, r0, ip, lsr #32
    1360:	00008828 	andeq	r8, r0, r8, lsr #16
    1364:	00000110 	andeq	r0, r0, r0, lsl r1
    1368:	079b9c01 	ldreq	r9, [fp, r1, lsl #24]
    136c:	39210000 	stmdbcc	r1!, {}	; <UNPREDICTABLE>
    1370:	01000004 	tsteq	r0, r4
    1374:	002520a5 	eoreq	r2, r5, r5, lsr #1
    1378:	07780000 	ldrbeq	r0, [r8, -r0]!
    137c:	07740000 	ldrbeq	r0, [r4, -r0]!
    1380:	45190000 	ldrmi	r0, [r9, #-0]
    1384:	01000003 	tsteq	r0, r3
    1388:	002c0ea7 	eoreq	r0, ip, r7, lsr #29
    138c:	079a0000 	ldreq	r0, [sl, r0]
    1390:	07960000 	ldreq	r0, [r6, r0]
    1394:	7e190000 	cdpvc	0, 1, cr0, cr9, cr0, {0}
    1398:	01000003 	tsteq	r0, r3
    139c:	002c1ba7 	eoreq	r1, ip, r7, lsr #23
    13a0:	07bf0000 	ldreq	r0, [pc, r0]!
    13a4:	07b90000 	ldreq	r0, [r9, r0]!
    13a8:	78190000 	ldmdavc	r9, {}	; <UNPREDICTABLE>
    13ac:	01000003 	tsteq	r0, r3
    13b0:	002c27a7 	eoreq	r2, ip, r7, lsr #15
    13b4:	07ed0000 	strbeq	r0, [sp, r0]!
    13b8:	07e90000 	strbeq	r0, [r9, r0]!
    13bc:	681a0000 	ldmdavs	sl, {}	; <UNPREDICTABLE>
    13c0:	b4000000 	strlt	r0, [r0], #-0
    13c4:	1b000006 	blne	13e4 <__code_start__-0x6c1c>
    13c8:	ac010068 	stcge	0, cr0, [r1], {104}	; 0x68
    13cc:	00040311 	andeq	r0, r4, r1, lsl r3
    13d0:	00081a00 	andeq	r1, r8, r0, lsl #20
    13d4:	00080c00 	andeq	r0, r8, r0, lsl #24
    13d8:	88481300 	stmdahi	r8, {r8, r9, ip}^
    13dc:	0cd00000 	ldcleq	0, cr0, [r0], {0}
    13e0:	70110000 	andsvc	r0, r1, r0
    13e4:	a9000088 	stmdbge	r0, {r3, r7}
    13e8:	8000000c 	andhi	r0, r0, ip
    13ec:	12000006 	andne	r0, r0, #6, 0
    13f0:	03055001 	movweq	r5, #20481	; 0x5001
    13f4:	0000a3f0 	strdeq	sl, [r0], -r0
    13f8:	02510112 	subseq	r0, r1, #-2147483644	; 0x80000004
    13fc:	01120075 	tsteq	r2, r5, ror r0
    1400:	00740252 	rsbseq	r0, r4, r2, asr r2
    1404:	88781100 	ldmdahi	r8!, {r8, ip}^
    1408:	0ce80000 	stcleq	0, cr0, [r8]
    140c:	06940000 	ldreq	r0, [r4], r0
    1410:	01120000 	tsteq	r2, r0
    1414:	00740250 	rsbseq	r0, r4, r0, asr r2
    1418:	88b01e00 	ldmhi	r0!, {r9, sl, fp, ip}
    141c:	0ca90000 	stceq	0, cr0, [r9]
    1420:	01120000 	tsteq	r2, r0
    1424:	04030550 	streq	r0, [r3], #-1360	; 0xfffffab0
    1428:	120000a4 	andne	r0, r0, #164, 0	; 0xa4
    142c:	75025101 	strvc	r5, [r2, #-257]	; 0xfffffeff
    1430:	52011200 	andpl	r1, r1, #0, 4
    1434:	00007402 	andeq	r7, r0, r2, lsl #8
    1438:	88381100 	ldmdahi	r8!, {r8, ip}
    143c:	0ca90000 	stceq	0, cr0, [r9]
    1440:	06cb0000 	strbeq	r0, [fp], r0
    1444:	01120000 	tsteq	r2, r0
    1448:	9c030550 	cfstr32ls	mvfx0, [r3], {80}	; 0x50
    144c:	000000a3 	andeq	r0, r0, r3, lsr #1
    1450:	00884011 	addeq	r4, r8, r1, lsl r0
    1454:	000ca900 	andeq	sl, ip, r0, lsl #18
    1458:	0006e200 	andeq	lr, r6, r0, lsl #4
    145c:	50011200 	andpl	r1, r1, r0, lsl #4
    1460:	a3d80305 	bicsge	r0, r8, #335544320	; 0x14000000
    1464:	13000000 	movwne	r0, #0
    1468:	00008844 	andeq	r8, r0, r4, asr #16
    146c:	0000079b 	muleq	r0, fp, r7
    1470:	0088bc11 	addeq	fp, r8, r1, lsl ip
    1474:	000ca900 	andeq	sl, ip, r0, lsl #18
    1478:	00070200 	andeq	r0, r7, r0, lsl #4
    147c:	50011200 	andpl	r1, r1, r0, lsl #4
    1480:	a41c0305 	ldrge	r0, [ip], #-773	; 0xfffffcfb
    1484:	11000000 	mrsne	r0, (UNDEF: 0)
    1488:	000088c8 	andeq	r8, r0, r8, asr #17
    148c:	00000ca9 	andeq	r0, r0, r9, lsr #25
    1490:	0000071f 	andeq	r0, r0, pc, lsl r7
    1494:	05500112 	ldrbeq	r0, [r0, #-274]	; 0xfffffeee
    1498:	00a42403 	adceq	r2, r4, r3, lsl #8
    149c:	51011200 	mrspl	r1, R9_usr
    14a0:	00007502 	andeq	r7, r0, r2, lsl #10
    14a4:	0088d811 	addeq	sp, r8, r1, lsl r8
    14a8:	000ca900 	andeq	sl, ip, r0, lsl #18
    14ac:	00073600 	andeq	r3, r7, r0, lsl #12
    14b0:	50011200 	andpl	r1, r1, r0, lsl #4
    14b4:	a41c0305 	ldrge	r0, [ip], #-773	; 0xfffffcfb
    14b8:	11000000 	mrsne	r0, (UNDEF: 0)
    14bc:	000088e0 	andeq	r8, r0, r0, ror #17
    14c0:	00000ca9 	andeq	r0, r0, r9, lsr #25
    14c4:	0000074d 	andeq	r0, r0, sp, asr #14
    14c8:	05500112 	ldrbeq	r0, [r0, #-274]	; 0xfffffeee
    14cc:	00a43c03 	adceq	r3, r4, r3, lsl #24
    14d0:	e8110000 	ldmda	r1, {}	; <UNPREDICTABLE>
    14d4:	a9000088 	stmdbge	r0, {r3, r7}
    14d8:	6400000c 	strvs	r0, [r0], #-12
    14dc:	12000007 	andne	r0, r0, #7, 0
    14e0:	03055001 	movweq	r5, #20481	; 0x5001
    14e4:	0000a488 	andeq	sl, r0, r8, lsl #9
    14e8:	89001100 	stmdbhi	r0, {r8, ip}
    14ec:	0ca90000 	stceq	0, cr0, [r9]
    14f0:	077b0000 	ldrbeq	r0, [fp, -r0]!
    14f4:	01120000 	tsteq	r2, r0
    14f8:	1c030550 	cfstr32ne	mvfx0, [r3], {80}	; 0x50
    14fc:	000000a4 	andeq	r0, r0, r4, lsr #1
    1500:	0089101e 	addeq	r1, r9, lr, lsl r0
    1504:	000ca900 	andeq	sl, ip, r0, lsl #18
    1508:	50011200 	andpl	r1, r1, r0, lsl #4
    150c:	a45c0305 	ldrbge	r0, [ip], #-773	; 0xfffffcfb
    1510:	01120000 	tsteq	r2, r0
    1514:	00760251 	rsbseq	r0, r6, r1, asr r2
    1518:	02520112 	subseq	r0, r2, #-2147483644	; 0x80000004
    151c:	00000077 	andeq	r0, r0, r7, ror r0
    1520:	00031f22 	andeq	r1, r3, r2, lsr #30
    1524:	0d790100 	ldfeqe	f0, [r9, #-0]
    1528:	00008784 	andeq	r8, r0, r4, lsl #15
    152c:	000000a4 	andeq	r0, r0, r4, lsr #1
    1530:	08a79c01 	stmiaeq	r7!, {r0, sl, fp, ip, pc}
    1534:	900e0000 	andls	r0, lr, r0
    1538:	01000003 	tsteq	r0, r3
    153c:	08a70e85 	stmiaeq	r7!, {r0, r2, r7, r9, sl, fp}
    1540:	91030000 	mrsls	r0, (UNDEF: 3)
    1544:	15237fb8 	strne	r7, [r3, #-4024]!	; 0xfffff048
    1548:	01000003 	tsteq	r0, r3
    154c:	08b70f96 	ldmeq	r7!, {r1, r2, r4, r7, r8, r9, sl, fp}
    1550:	00000000 	andeq	r0, r0, r0
    1554:	37070800 	strcc	r0, [r7, -r0, lsl #16]
    1558:	01000003 	tsteq	r0, r3
    155c:	0069159b 	mlseq	r9, fp, r5, r1
    1560:	e9070000 	stmdb	r7, {}	; <UNPREDICTABLE>
    1564:	01000003 	tsteq	r0, r3
    1568:	0069249b 	mlseq	r9, fp, r4, r2
    156c:	1f070000 	svcne	0x00070000
    1570:	01000004 	tsteq	r0, r4
    1574:	0069159e 	mlseq	r9, lr, r5, r1
    1578:	a6070000 	strge	r0, [r7], -r0
    157c:	01000003 	tsteq	r0, r3
    1580:	0069259e 	mlseq	r9, lr, r5, r2
    1584:	8c240000 	stchi	0, cr0, [r4], #-0
    1588:	24000087 	strcs	r0, [r0], #-135	; 0xffffff79
    158c:	33000000 	movwcc	r0, #0
    1590:	1b000008 	blne	15b8 <__code_start__-0x6a48>
    1594:	7e010068 	cdpvc	0, 0, cr0, cr1, cr8, {3}
    1598:	00040311 	andeq	r0, r4, r1, lsl r3
    159c:	00087300 	andeq	r7, r8, r0, lsl #6
    15a0:	00086f00 	andeq	r6, r8, r0, lsl #30
    15a4:	87901300 	ldrhi	r1, [r0, r0, lsl #6]
    15a8:	0cd00000 	ldcleq	0, cr0, [r0], {0}
    15ac:	ac130000 	ldcge	0, cr0, [r3], {-0}
    15b0:	e8000087 	stmda	r0, {r0, r1, r2, r7}
    15b4:	0000000c 	andeq	r0, r0, ip
    15b8:	0087b811 	addeq	fp, r7, r1, lsl r8
    15bc:	000cf400 	andeq	pc, ip, r0, lsl #8
    15c0:	00084700 	andeq	r4, r8, r0, lsl #14
    15c4:	50011200 	andpl	r1, r1, r0, lsl #4
    15c8:	00007d02 	andeq	r7, r0, r2, lsl #26
    15cc:	0087d811 	addeq	sp, r7, r1, lsl r8
    15d0:	0008bd00 	andeq	fp, r8, r0, lsl #26
    15d4:	00086100 	andeq	r6, r8, r0, lsl #2
    15d8:	50011200 	andpl	r1, r1, r0, lsl #4
    15dc:	12007d02 	andne	r7, r0, #128	; 0x80
    15e0:	91025101 	tstls	r2, r1, lsl #2
    15e4:	e8110068 	ldmda	r1, {r3, r5, r6}
    15e8:	a9000087 	stmdbge	r0, {r0, r1, r2, r7}
    15ec:	7f00000c 	svcvc	0x0000000c
    15f0:	12000008 	andne	r0, r0, #8, 0
    15f4:	03055001 	movweq	r5, #20481	; 0x5001
    15f8:	0000a380 	andeq	sl, r0, r0, lsl #7
    15fc:	03520112 	cmpeq	r2, #-2147483644	; 0x80000004
    1600:	00244740 	eoreq	r4, r4, r0, asr #14
    1604:	0087f411 	addeq	pc, r7, r1, lsl r4	; <UNPREDICTABLE>
    1608:	0008bd00 	andeq	fp, r8, r0, lsl #26
    160c:	00089400 	andeq	r9, r8, r0, lsl #8
    1610:	51011200 	mrspl	r1, R9_usr
    1614:	24474003 	strbcs	r4, [r7], #-3
    1618:	88001300 	stmdahi	r0, {r8, r9, ip}
    161c:	08bd0000 	popeq	{}	; <UNPREDICTABLE>
    1620:	0c130000 	ldceq	0, cr0, [r3], {-0}
    1624:	bd000088 	stclt	0, cr0, [r0, #-544]	; 0xfffffde0
    1628:	00000008 	andeq	r0, r0, r8
    162c:	00006914 	andeq	r6, r0, r4, lsl r9
    1630:	0008b700 	andeq	fp, r8, r0, lsl #14
    1634:	002c1500 	eoreq	r1, ip, r0, lsl #10
    1638:	000f0000 	andeq	r0, pc, r0
    163c:	00690408 	rsbeq	r0, r9, r8, lsl #8
    1640:	65220000 	strvs	r0, [r2, #-0]!
    1644:	01000003 	tsteq	r0, r3
    1648:	861c0d50 			; <UNDEFINED> instruction: 0x861c0d50
    164c:	01680000 	cmneq	r8, r0
    1650:	9c010000 	stcls	0, cr0, [r1], {-0}
    1654:	00000ab6 			; <UNDEFINED> instruction: 0x00000ab6
    1658:	01007025 	tsteq	r0, r5, lsr #32
    165c:	08b71c50 	ldmeq	r7!, {r4, r6, sl, fp, ip}
    1660:	089f0000 	ldmeq	pc, {}	; <UNPREDICTABLE>
    1664:	08910000 	ldmeq	r1, {}	; <UNPREDICTABLE>
    1668:	65250000 	strvs	r0, [r5, #-0]!
    166c:	29500100 	ldmdbcs	r0, {r8}^
    1670:	000008b7 			; <UNDEFINED> instruction: 0x000008b7
    1674:	00000908 	andeq	r0, r0, r8, lsl #18
    1678:	000008fa 	strdeq	r0, [r0], -sl
    167c:	00006c10 	andeq	r6, r0, r0, lsl ip
    1680:	000ac600 	andeq	ip, sl, r0, lsl #12
    1684:	fc030500 	stc2	5, cr0, [r3], {-0}
    1688:	240000a5 	strcs	r0, [r0], #-165	; 0xffffff5b
    168c:	000086a4 	andeq	r8, r0, r4, lsr #13
    1690:	000000b4 	strheq	r0, [r0], -r4
    1694:	000009ef 	andeq	r0, r0, pc, ror #19
    1698:	0100691b 	tsteq	r0, fp, lsl r9
    169c:	08b71458 	ldmeq	r7!, {r3, r4, r6, sl, ip}
    16a0:	09650000 	stmdbeq	r5!, {}^	; <UNPREDICTABLE>
    16a4:	09630000 	stmdbeq	r3!, {}^	; <UNPREDICTABLE>
    16a8:	38260000 	stmdacc	r6!, {}	; <UNPREDICTABLE>
    16ac:	1b000000 	blne	16b4 <__code_start__-0x694c>
    16b0:	5a010062 	bpl	41840 <__bss_end__+0x36a48>
    16b4:	00040310 	andeq	r0, r4, r0, lsl r3
    16b8:	00097e00 	andeq	r7, r9, r0, lsl #28
    16bc:	00097800 	andeq	r7, r9, r0, lsl #16
    16c0:	00501a00 	subseq	r1, r0, r0, lsl #20
    16c4:	09e40000 	stmibeq	r4!, {}^	; <UNPREDICTABLE>
    16c8:	651b0000 	ldrvs	r0, [fp, #-0]
    16cc:	01007078 	tsteq	r0, r8, ror r0
    16d0:	0069165d 	rsbeq	r1, r9, sp, asr r6
    16d4:	09ab0000 	stmibeq	fp!, {}	; <UNPREDICTABLE>
    16d8:	09a70000 	stmibeq	r7!, {}	; <UNPREDICTABLE>
    16dc:	61190000 	tstvs	r9, r0
    16e0:	01000003 	tsteq	r0, r3
    16e4:	0056165e 	subseq	r1, r6, lr, asr r6
    16e8:	09cd0000 	stmibeq	sp, {}^	; <UNPREDICTABLE>
    16ec:	09c90000 	stmibeq	r9, {}^	; <UNPREDICTABLE>
    16f0:	b8110000 	ldmdalt	r1, {}	; <UNPREDICTABLE>
    16f4:	a9000086 	stmdbge	r0, {r1, r2, r7}
    16f8:	8400000c 	strhi	r0, [r0], #-12
    16fc:	12000009 	andne	r0, r0, #9, 0
    1700:	03055001 	movweq	r5, #20481	; 0x5001
    1704:	0000a360 	andeq	sl, r0, r0, ror #6
    1708:	86ec1100 	strbthi	r1, [ip], r0, lsl #2
    170c:	0d000000 	stceq	0, cr0, [r0, #-0]
    1710:	09980000 	ldmibeq	r8, {}	; <UNPREDICTABLE>
    1714:	01120000 	tsteq	r2, r0
    1718:	00750250 	rsbseq	r0, r5, r0, asr r2
    171c:	87041100 	strhi	r1, [r4, -r0, lsl #2]
    1720:	0ca90000 	stceq	0, cr0, [r9]
    1724:	09bc0000 	ldmibeq	ip!, {}	; <UNPREDICTABLE>
    1728:	01120000 	tsteq	r2, r0
    172c:	34030550 	strcc	r0, [r3], #-1360	; 0xfffffab0
    1730:	120000a3 	andne	r0, r0, #163, 0	; 0xa3
    1734:	74025201 	strvc	r5, [r2], #-513	; 0xfffffdff
    1738:	7d021200 	sfmvc	f1, 4, [r2, #-0]
    173c:	00770200 	rsbseq	r0, r7, r0, lsl #4
    1740:	87481100 	strbhi	r1, [r8, -r0, lsl #2]
    1744:	08bd0000 	popeq	{}	; <UNPREDICTABLE>
    1748:	09d00000 	ldmibeq	r0, {}^	; <UNPREDICTABLE>
    174c:	01120000 	tsteq	r2, r0
    1750:	04750250 	ldrbteq	r0, [r5], #-592	; 0xfffffdb0
    1754:	87541e00 	ldrbhi	r1, [r4, -r0, lsl #28]
    1758:	0ca90000 	stceq	0, cr0, [r9]
    175c:	01120000 	tsteq	r2, r0
    1760:	70030550 	andvc	r0, r3, r0, asr r5
    1764:	000000a3 	andeq	r0, r0, r3, lsr #1
    1768:	86d41300 	ldrbhi	r1, [r4], r0, lsl #6
    176c:	0acb0000 	beq	ff2c1774 <__bss_end__+0xff2b697c>
    1770:	00000000 	andeq	r0, r0, r0
    1774:	00866011 	addeq	r6, r6, r1, lsl r0
    1778:	000ca900 	andeq	sl, ip, r0, lsl #18
    177c:	000a2800 	andeq	r2, sl, r0, lsl #16
    1780:	50011200 	andpl	r1, r1, r0, lsl #4
    1784:	a1ac0305 			; <UNDEFINED> instruction: 0xa1ac0305
    1788:	01120000 	tsteq	r2, r0
    178c:	04030551 	streq	r0, [r3], #-1361	; 0xfffffaaf
    1790:	120000a3 	andne	r0, r0, #163, 0	; 0xa3
    1794:	03055201 	movweq	r5, #20993	; 0x5201
    1798:	0000a5fc 	strdeq	sl, [r0], -ip
    179c:	02530112 	subseq	r0, r3, #-2147483644	; 0x80000004
    17a0:	02125608 	andseq	r5, r2, #8, 12	; 0x800000
    17a4:	0305007d 	movweq	r0, #20605	; 0x507d
    17a8:	0000a324 	andeq	sl, r0, r4, lsr #6
    17ac:	86641300 	strbthi	r1, [r4], -r0, lsl #6
    17b0:	0cb50000 	ldceq	0, cr0, [r5]
    17b4:	80110000 	andshi	r0, r1, r0
    17b8:	a9000086 	stmdbge	r0, {r1, r2, r7}
    17bc:	6a00000c 	bvs	17f4 <__code_start__-0x680c>
    17c0:	1200000a 	andne	r0, r0, #10, 0
    17c4:	03055001 	movweq	r5, #20481	; 0x5001
    17c8:	0000a1ac 	andeq	sl, r0, ip, lsr #3
    17cc:	05510112 	ldrbeq	r0, [r1, #-274]	; 0xfffffeee
    17d0:	00a30403 	adceq	r0, r3, r3, lsl #8
    17d4:	52011200 	andpl	r1, r1, #0, 4
    17d8:	a5fc0305 	ldrbge	r0, [ip, #773]!	; 0x305
    17dc:	01120000 	tsteq	r2, r0
    17e0:	52080253 	andpl	r0, r8, #805306373	; 0x30000005
    17e4:	007d0212 	rsbseq	r0, sp, r2, lsl r2
    17e8:	a30c0305 	movwge	r0, #49925	; 0xc305
    17ec:	13000000 	movwne	r0, #0
    17f0:	00008684 	andeq	r8, r0, r4, lsl #13
    17f4:	00000cb5 			; <UNDEFINED> instruction: 0x00000cb5
    17f8:	0086a011 	addeq	sl, r6, r1, lsl r0
    17fc:	000ca900 	andeq	sl, ip, r0, lsl #18
    1800:	000aac00 	andeq	sl, sl, r0, lsl #24
    1804:	50011200 	andpl	r1, r1, r0, lsl #4
    1808:	a1ac0305 			; <UNDEFINED> instruction: 0xa1ac0305
    180c:	01120000 	tsteq	r2, r0
    1810:	04030551 	streq	r0, [r3], #-1361	; 0xfffffaaf
    1814:	120000a3 	andne	r0, r0, #163, 0	; 0xa3
    1818:	03055201 	movweq	r5, #20993	; 0x5201
    181c:	0000a5fc 	strdeq	sl, [r0], -ip
    1820:	02530112 	subseq	r0, r3, #-2147483644	; 0x80000004
    1824:	02125508 	andseq	r5, r2, #8, 10	; 0x2000000
    1828:	0305007d 	movweq	r0, #20605	; 0x507d
    182c:	0000a314 	andeq	sl, r0, r4, lsl r3
    1830:	86a41300 	strthi	r1, [r4], r0, lsl #6
    1834:	0cb50000 	ldceq	0, cr0, [r5]
    1838:	14000000 	strne	r0, [r0], #-0
    183c:	000000c0 	andeq	r0, r0, r0, asr #1
    1840:	00000ac6 	andeq	r0, r0, r6, asr #21
    1844:	00002c15 	andeq	r2, r0, r5, lsl ip
    1848:	09000400 	stmdbeq	r0, {sl}
    184c:	00000ab6 			; <UNDEFINED> instruction: 0x00000ab6
    1850:	0003b318 	andeq	fp, r3, r8, lsl r3
    1854:	0f3c0100 	svceq	0x003c0100
    1858:	00000403 	andeq	r0, r0, r3, lsl #8
    185c:	000085f4 	strdeq	r8, [r0], -r4
    1860:	00000028 	andeq	r0, r0, r8, lsr #32
    1864:	0b309c01 	bleq	c28870 <__bss_end__+0xc1da78>
    1868:	03210000 			; <UNDEFINED> instruction: 0x03210000
    186c:	0100000a 	tsteq	r0, sl
    1870:	00691f3c 	rsbeq	r1, r9, ip, lsr pc
    1874:	09ef0000 	stmibeq	pc!, {}^	; <UNPREDICTABLE>
    1878:	09eb0000 	stmibeq	fp!, {}^	; <UNPREDICTABLE>
    187c:	701b0000 	andsvc	r0, fp, r0
    1880:	0b3e0100 	bleq	f81c88 <__bss_end__+0xf76e90>
    1884:	0000018f 	andeq	r0, r0, pc, lsl #3
    1888:	00000a11 	andeq	r0, r0, r1, lsl sl
    188c:	00000a0d 	andeq	r0, r0, sp, lsl #20
    1890:	00860011 	addeq	r0, r6, r1, lsl r0
    1894:	000b3000 	andeq	r3, fp, r0
    1898:	000b1f00 	andeq	r1, fp, r0, lsl #30
    189c:	50011200 	andpl	r1, r1, r0, lsl #4
    18a0:	00007402 	andeq	r7, r0, r2, lsl #8
    18a4:	0086101e 	addeq	r1, r6, lr, lsl r0
    18a8:	000d0c00 	andeq	r0, sp, r0, lsl #24
    18ac:	50011200 	andpl	r1, r1, r0, lsl #4
    18b0:	00007402 	andeq	r7, r0, r2, lsl #8
    18b4:	03c11800 	biceq	r1, r1, #0, 16
    18b8:	2b010000 	blcs	418c0 <__bss_end__+0x36ac8>
    18bc:	0000250c 	andeq	r2, r0, ip, lsl #10
    18c0:	0085b800 	addeq	fp, r5, r0, lsl #16
    18c4:	00003c00 	andeq	r3, r0, r0, lsl #24
    18c8:	5d9c0100 	ldfpls	f0, [ip]
    18cc:	2500000b 	strcs	r0, [r0, #-11]
    18d0:	2b010070 	blcs	41a98 <__bss_end__+0x36ca0>
    18d4:	00018f1a 	andeq	r8, r1, sl, lsl pc
    18d8:	000a3b00 	andeq	r3, sl, r0, lsl #22
    18dc:	000a2f00 	andeq	r2, sl, r0, lsl #30
    18e0:	fb1f0000 	blx	7c18ea <__bss_end__+0x7b6af2>
    18e4:	01000002 	tsteq	r0, r2
    18e8:	018f0713 	orreq	r0, pc, r3, lsl r7	; <UNPREDICTABLE>
    18ec:	8a200000 	bhi	8018f4 <__bss_end__+0x7f6afc>
    18f0:	00a40000 	adceq	r0, r4, r0
    18f4:	9c010000 	stcls	0, cr0, [r1], {-0}
    18f8:	00000c73 	andeq	r0, r0, r3, ror ip
    18fc:	00039c21 	andeq	r9, r3, r1, lsr #24
    1900:	11130100 	tstne	r3, r0, lsl #2
    1904:	00000041 	andeq	r0, r0, r1, asr #32
    1908:	00000a9a 	muleq	r0, sl, sl
    190c:	00000a8e 	andeq	r0, r0, lr, lsl #21
    1910:	00034d0e 	andeq	r4, r3, lr, lsl #26
    1914:	10150100 	andsne	r0, r5, r0, lsl #2
    1918:	00000025 	andeq	r0, r0, r5, lsr #32
    191c:	a9f00305 	ldmibge	r0!, {r0, r2, r8, r9}^
    1920:	6c100000 	ldcvs	0, cr0, [r0], {-0}
    1924:	c6000000 	strgt	r0, [r0], -r0
    1928:	0500000a 	streq	r0, [r0, #-10]
    192c:	00a61003 	adceq	r1, r6, r3
    1930:	8a402400 	bhi	100a938 <__bss_end__+0xfffb40>
    1934:	00240000 	eoreq	r0, r4, r0
    1938:	0be60000 	bleq	ff981940 <__bss_end__+0xff976b48>
    193c:	c9190000 	ldmdbgt	r9, {}	; <UNPREDICTABLE>
    1940:	01000003 	tsteq	r0, r3
    1944:	002c121c 	eoreq	r1, ip, ip, lsl r2
    1948:	0ae60000 	beq	ff981950 <__bss_end__+0xff976b58>
    194c:	0ae40000 	beq	ff901954 <__bss_end__+0xff8f6b5c>
    1950:	5c1e0000 	ldcpl	0, cr0, [lr], {-0}
    1954:	1800008a 	stmdane	r0, {r1, r3, r7}
    1958:	1200000d 	andne	r0, r0, #13, 0
    195c:	40035001 	andmi	r5, r3, r1
    1960:	01122440 	tsteq	r2, r0, asr #8
    1964:	40400351 	submi	r0, r0, r1, asr r3
    1968:	11000024 	tstne	r0, r4, lsr #32
    196c:	00008a6c 	andeq	r8, r0, ip, ror #20
    1970:	00000d24 	andeq	r0, r0, r4, lsr #26
    1974:	00000bfa 	strdeq	r0, [r0], -sl
    1978:	02500112 	subseq	r0, r0, #-2147483644	; 0x80000004
    197c:	11000074 	tstne	r0, r4, ror r0
    1980:	00008a90 	muleq	r0, r0, sl
    1984:	00000ca9 	andeq	r0, r0, r9, lsr #25
    1988:	00000c32 	andeq	r0, r0, r2, lsr ip
    198c:	05500112 	ldrbeq	r0, [r0, #-274]	; 0xfffffeee
    1990:	00a1ac03 	adceq	sl, r1, r3, lsl #24
    1994:	51011200 	mrspl	r1, R9_usr
    1998:	a3040305 	movwge	r0, #17157	; 0x4305
    199c:	01120000 	tsteq	r2, r0
    19a0:	10030552 	andne	r0, r3, r2, asr r5
    19a4:	120000a6 	andne	r0, r0, #166, 0	; 0xa6
    19a8:	47015301 	strmi	r5, [r1, -r1, lsl #6]
    19ac:	007d0212 	rsbseq	r0, sp, r2, lsl r2
    19b0:	a5100305 	ldrge	r0, [r0, #-773]	; 0xfffffcfb
    19b4:	13000000 	movwne	r0, #0
    19b8:	00008a94 	muleq	r0, r4, sl
    19bc:	00000cb5 			; <UNDEFINED> instruction: 0x00000cb5
    19c0:	008aa811 	addeq	sl, sl, r1, lsl r8
    19c4:	000ca900 	andeq	sl, ip, r0, lsl #18
    19c8:	000c6900 	andeq	r6, ip, r0, lsl #18
    19cc:	50011200 	andpl	r1, r1, r0, lsl #4
    19d0:	a5200305 	strge	r0, [r0, #-773]!	; 0xfffffcfb
    19d4:	01120000 	tsteq	r2, r0
    19d8:	04030551 	streq	r0, [r3], #-1361	; 0xfffffaaf
    19dc:	120000a3 	andne	r0, r0, #163, 0	; 0xa3
    19e0:	03055201 	movweq	r5, #20993	; 0x5201
    19e4:	0000a610 	andeq	sl, r0, r0, lsl r6
    19e8:	01530112 	cmpeq	r3, r2, lsl r1
    19ec:	ac130049 	ldcge	0, cr0, [r3], {73}	; 0x49
    19f0:	b500008a 	strlt	r0, [r0, #-138]	; 0xffffff76
    19f4:	0000000c 	andeq	r0, r0, ip
    19f8:	00000527 	andeq	r0, r0, r7, lsr #10
    19fc:	0b0c0200 	bleq	302204 <__bss_end__+0x2f740c>
    1a00:	00000108 	andeq	r0, r0, r8, lsl #2
    1a04:	000ca903 	andeq	sl, ip, r3, lsl #18
    1a08:	002d2800 	eoreq	r2, sp, r0, lsl #16
    1a0c:	0c020000 	stceq	0, cr0, [r2], {-0}
    1a10:	0000b322 	andeq	fp, r0, r2, lsr #6
    1a14:	00672800 	rsbeq	r2, r7, r0, lsl #16
    1a18:	0c020000 	stceq	0, cr0, [r2], {-0}
    1a1c:	0000b334 	andeq	fp, r0, r4, lsr r3
    1a20:	00102800 	andseq	r2, r0, r0, lsl #16
    1a24:	0c020000 	stceq	0, cr0, [r2], {-0}
    1a28:	00002c43 	andeq	r2, r0, r3, asr #24
    1a2c:	46290000 	strtmi	r0, [r9], -r0
    1a30:	46000005 	strmi	r0, [r0], -r5
    1a34:	04000005 	streq	r0, [r0], #-5
    1a38:	40290628 	eormi	r0, r9, r8, lsr #12
    1a3c:	40000000 	andmi	r0, r0, r0
    1a40:	04000000 	streq	r0, [r0], #-0
    1a44:	0d2a066e 	stceq	6, cr0, [sl, #-440]!	; 0xfffffe48
    1a48:	77730b9e 			; <UNDEFINED> instruction: 0x77730b9e
    1a4c:	5f706565 	svcpl	0x00706565
    1a50:	65657266 	strbvs	r7, [r5, #-614]!	; 0xfffffd9a
    1a54:	01fb2900 	mvnseq	r2, r0, lsl #18
    1a58:	01fb0000 	mvnseq	r0, r0
    1a5c:	1b050000 	blne	141a64 <__bss_end__+0x136c6c>
    1a60:	02082908 	andeq	r2, r8, #8, 18	; 0x20000
    1a64:	02080000 	andeq	r0, r8, #0, 0
    1a68:	33050000 	movwcc	r0, #20480	; 0x5000
    1a6c:	026c2907 	rsbeq	r2, ip, #114688	; 0x1c000
    1a70:	026c0000 	rsbeq	r0, ip, #0, 0
    1a74:	1e050000 	cdpne	0, 0, cr0, cr5, cr0, {0}
    1a78:	038b2908 	orreq	r2, fp, #8, 18	; 0x20000
    1a7c:	038b0000 	orreq	r0, fp, #0, 0
    1a80:	76010000 	strvc	r0, [r1], -r0
    1a84:	02972906 	addseq	r2, r7, #98304	; 0x18000
    1a88:	02970000 	addseq	r0, r7, #0, 0
    1a8c:	25050000 	strcs	r0, [r5, #-0]
    1a90:	025a2907 	subseq	r2, sl, #114688	; 0x1c000
    1a94:	025a0000 	subseq	r0, sl, #0, 0
    1a98:	2e050000 	cdpcs	0, 0, cr0, cr5, cr0, {0}
    1a9c:	03fd2908 	mvnseq	r2, #8, 18	; 0x20000
    1aa0:	03fd0000 	mvnseq	r0, #0, 0
    1aa4:	82040000 	andhi	r0, r4, #0, 0
    1aa8:	03f52906 	mvnseq	r2, #98304	; 0x18000
    1aac:	03f50000 	mvnseq	r0, #0, 0
    1ab0:	7b040000 	blvc	101ab8 <__bss_end__+0xf6cc0>
    1ab4:	01400007 	cmpeq	r0, r7
    1ab8:	00040000 	andeq	r0, r4, r0
    1abc:	00000893 	muleq	r0, r3, r8
    1ac0:	04640104 	strbteq	r0, [r4], #-260	; 0xfffffefc
    1ac4:	540c0000 	strpl	r0, [ip], #-0
    1ac8:	1c000004 	stcne	0, cr0, [r0], {4}
    1acc:	c4000005 	strgt	r0, [r0], #-5
    1ad0:	7800008b 	stmdavc	r0, {r0, r1, r3, r7}
    1ad4:	c6000000 	strgt	r0, [r0], -r0
    1ad8:	0200000b 	andeq	r0, r0, #11, 0
    1adc:	6e690504 	cdpvs	5, 6, cr0, cr9, cr4, {0}
    1ae0:	4d030074 	stcmi	0, cr0, [r3, #-464]	; 0xfffffe30
    1ae4:	03000004 	movweq	r0, #4
    1ae8:	003817d1 	ldrsbteq	r1, [r8], -r1
    1aec:	04040000 	streq	r0, [r4], #-0
    1af0:	00009007 	andeq	r9, r0, r7
    1af4:	06010400 	streq	r0, [r1], -r0, lsl #8
    1af8:	00000034 	andeq	r0, r0, r4, lsr r0
    1afc:	f1050204 			; <UNDEFINED> instruction: 0xf1050204
    1b00:	04000000 	streq	r0, [r0], #-0
    1b04:	00b60504 	adcseq	r0, r6, r4, lsl #10
    1b08:	08040000 	stmdaeq	r4, {}	; <UNPREDICTABLE>
    1b0c:	0000b105 	andeq	fp, r0, r5, lsl #2
    1b10:	08010400 	stmdaeq	r1, {sl}
    1b14:	00000032 	andeq	r0, r0, r2, lsr r0
    1b18:	4d070204 	sfmmi	f0, 4, [r7, #-16]
    1b1c:	04000000 	streq	r0, [r0], #-0
    1b20:	008b0704 	addeq	r0, fp, r4, lsl #14
    1b24:	08040000 	stmdaeq	r4, {}	; <UNPREDICTABLE>
    1b28:	00008607 	andeq	r8, r0, r7, lsl #12
    1b2c:	00250500 	eoreq	r0, r5, r0, lsl #10
    1b30:	00860000 	addeq	r0, r6, r0
    1b34:	25060000 	strcs	r0, [r6, #-0]
    1b38:	00000000 	andeq	r0, r0, r0
    1b3c:	00010507 	andeq	r0, r1, r7, lsl #10
    1b40:	0e1c0200 	cdpeq	2, 1, cr0, cr12, cr0, {0}
    1b44:	00000092 	muleq	r0, r2, r0
    1b48:	00770408 	rsbseq	r0, r7, r8, lsl #8
    1b4c:	25050000 	strcs	r0, [r5, #-0]
    1b50:	a7000000 	strge	r0, [r0, -r0]
    1b54:	06000000 	streq	r0, [r0], -r0
    1b58:	000000a7 	andeq	r0, r0, r7, lsr #1
    1b5c:	b4040800 	strlt	r0, [r4], #-2048	; 0xfffff800
    1b60:	04000000 	streq	r0, [r0], #-0
    1b64:	003b0801 	eorseq	r0, fp, r1, lsl #16
    1b68:	ad090000 	stcge	0, cr0, [r9, #-0]
    1b6c:	07000000 	streq	r0, [r0, -r0]
    1b70:	00000584 	andeq	r0, r0, r4, lsl #11
    1b74:	c50e2102 	strgt	r2, [lr, #-258]	; 0xfffffefe
    1b78:	08000000 	stmdaeq	r0, {}	; <UNPREDICTABLE>
    1b7c:	00009804 	andeq	r9, r0, r4, lsl #16
    1b80:	00600a00 	rsbeq	r0, r0, r0, lsl #20
    1b84:	04010000 	streq	r0, [r1], #-0
    1b88:	00013b07 	andeq	r3, r1, r7, lsl #22
    1b8c:	008bc400 	addeq	ip, fp, r0, lsl #8
    1b90:	00007800 	andeq	r7, r0, r0, lsl #16
    1b94:	3b9c0100 	blcc	fe701f9c <__bss_end__+0xfe6f71a4>
    1b98:	0b000001 	bleq	1ba4 <__code_start__-0x645c>
    1b9c:	0100705f 	qaddeq	r7, pc, r0	; <UNPREDICTABLE>
    1ba0:	013b1404 	teqeq	fp, r4, lsl #8
    1ba4:	50010000 	andpl	r0, r1, r0
    1ba8:	0100630c 	tsteq	r0, ip, lsl #6
    1bac:	00251c04 	eoreq	r1, r5, r4, lsl #24
    1bb0:	0b000000 	bleq	1bb8 <__code_start__-0x6448>
    1bb4:	0afc0000 	beq	fff01bbc <__bss_end__+0xffef6dc4>
    1bb8:	6e0c0000 	cdpvs	0, 0, cr0, cr12, cr0, {0}
    1bbc:	26040100 	strcs	r0, [r4], -r0, lsl #2
    1bc0:	0000002c 	andeq	r0, r0, ip, lsr #32
    1bc4:	00000b25 	andeq	r0, r0, r5, lsr #22
    1bc8:	00000b21 	andeq	r0, r0, r1, lsr #22
    1bcc:	0100700d 	tsteq	r0, sp
    1bd0:	013d0b05 	teqeq	sp, r5, lsl #22
    1bd4:	0b540000 	bleq	1501bdc <__bss_end__+0x14f6de4>
    1bd8:	0b460000 	bleq	1181be0 <__bss_end__+0x1176de8>
    1bdc:	650d0000 	strvs	r0, [sp, #-0]
    1be0:	14050100 	strne	r0, [r5], #-256	; 0xffffff00
    1be4:	0000013d 	andeq	r0, r0, sp, lsr r1
    1be8:	00000bb1 			; <UNDEFINED> instruction: 0x00000bb1
    1bec:	00000baf 	andeq	r0, r0, pc, lsr #23
    1bf0:	08040e00 	stmdaeq	r4, {r9, sl, fp}
    1bf4:	0000ad04 	andeq	sl, r0, r4, lsl #26
    1bf8:	019d0000 	orrseq	r0, sp, r0
    1bfc:	00040000 	andeq	r0, r4, r0
    1c00:	0000095f 	andeq	r0, r0, pc, asr r9
    1c04:	04640104 	strbteq	r0, [r4], #-260	; 0xfffffefc
    1c08:	610c0000 	mrsvs	r0, (UNDEF: 12)
    1c0c:	1c000005 	stcne	0, cr0, [r0], {5}
    1c10:	3c000005 	stccc	0, cr0, [r0], {5}
    1c14:	5800008c 	stmdapl	r0, {r2, r3, r7}
    1c18:	eb000000 	bl	1c20 <__code_start__-0x63e0>
    1c1c:	0200000c 	andeq	r0, r0, #12, 0
    1c20:	0000054d 	andeq	r0, r0, sp, asr #10
    1c24:	311b2802 	tstcc	fp, r2, lsl #16
    1c28:	03000000 	movweq	r0, #0
    1c2c:	00000571 	andeq	r0, r0, r1, ror r5
    1c30:	48000404 	stmdami	r0, {r2, sl}
    1c34:	04000000 	streq	r0, [r0], #-0
    1c38:	0000055c 	andeq	r0, r0, ip, asr r5
    1c3c:	00000048 	andeq	r0, r0, r8, asr #32
    1c40:	04050000 	streq	r0, [r5], #-0
    1c44:	00057302 	andeq	r7, r5, r2, lsl #6
    1c48:	18630200 	stmdane	r3!, {r9}^
    1c4c:	00000025 	andeq	r0, r0, r5, lsr #32
    1c50:	69050406 	stmdbvs	r5, {r1, r2, sl}
    1c54:	0700746e 	streq	r7, [r0, -lr, ror #8]
    1c58:	00900704 	addseq	r0, r0, r4, lsl #14
    1c5c:	01070000 	mrseq	r0, (UNDEF: 7)
    1c60:	00003406 	andeq	r3, r0, r6, lsl #8
    1c64:	05020700 	streq	r0, [r2, #-1792]	; 0xfffff900
    1c68:	000000f1 	strdeq	r0, [r0], -r1
    1c6c:	b6050407 	strlt	r0, [r5], -r7, lsl #8
    1c70:	07000000 	streq	r0, [r0, -r0]
    1c74:	00b10508 	adcseq	r0, r1, r8, lsl #10
    1c78:	01070000 	mrseq	r0, (UNDEF: 7)
    1c7c:	00003208 	andeq	r3, r0, r8, lsl #4
    1c80:	07020700 	streq	r0, [r2, -r0, lsl #14]
    1c84:	0000004d 	andeq	r0, r0, sp, asr #32
    1c88:	8b070407 	blhi	1c2cac <__bss_end__+0x1b7eb4>
    1c8c:	07000000 	streq	r0, [r0, -r0]
    1c90:	00860708 	addeq	r0, r6, r8, lsl #14
    1c94:	56080000 	strpl	r0, [r8], -r0
    1c98:	ab000000 	blge	1ca0 <__code_start__-0x6360>
    1c9c:	09000000 	stmdbeq	r0, {}	; <UNPREDICTABLE>
    1ca0:	00000056 	andeq	r0, r0, r6, asr r0
    1ca4:	01050a00 	tsteq	r5, r0, lsl #20
    1ca8:	1c030000 	stcne	0, cr0, [r3], {-0}
    1cac:	0000b70e 	andeq	fp, r0, lr, lsl #14
    1cb0:	9c040b00 			; <UNDEFINED> instruction: 0x9c040b00
    1cb4:	08000000 	stmdaeq	r0, {}	; <UNPREDICTABLE>
    1cb8:	00000056 	andeq	r0, r0, r6, asr r0
    1cbc:	000000cc 	andeq	r0, r0, ip, asr #1
    1cc0:	0000cc09 	andeq	ip, r0, r9, lsl #24
    1cc4:	040b0000 	streq	r0, [fp], #-0
    1cc8:	000000d9 	ldrdeq	r0, [r0], -r9
    1ccc:	3b080107 	blcc	2020f0 <__bss_end__+0x1f72f8>
    1cd0:	0c000000 	stceq	0, cr0, [r0], {-0}
    1cd4:	000000d2 	ldrdeq	r0, [r0], -r2
    1cd8:	0005840a 	andeq	r8, r5, sl, lsl #8
    1cdc:	0e210300 	cdpeq	3, 2, cr0, cr1, cr0, {0}
    1ce0:	000000ea 	andeq	r0, r0, sl, ror #1
    1ce4:	00bd040b 	adcseq	r0, sp, fp, lsl #8
    1ce8:	460d0000 	strmi	r0, [sp], -r0
    1cec:	01000005 	tsteq	r0, r5
    1cf0:	00560506 	subseq	r0, r6, r6, lsl #10
    1cf4:	8c3c0000 	ldchi	0, cr0, [ip], #-0
    1cf8:	00580000 	subseq	r0, r8, r0
    1cfc:	9c010000 	stcls	0, cr0, [r1], {-0}
    1d00:	00000183 	andeq	r0, r0, r3, lsl #3
    1d04:	746d660e 	strbtvc	r6, [sp], #-1550	; 0xfffff9f2
    1d08:	18060100 	stmdane	r6, {r8}
    1d0c:	000000cc 	andeq	r0, r0, ip, asr #1
    1d10:	0f709102 	svceq	0x00709102
    1d14:	66756210 			; <UNDEFINED> instruction: 0x66756210
    1d18:	11080100 	mrsne	r0, (UNDEF: 24)
    1d1c:	00000183 	andeq	r0, r0, r3, lsl #3
    1d20:	a9f40305 	ldmibge	r4!, {r0, r2, r8, r9}^
    1d24:	3e110000 	cdpcc	0, 1, cr0, cr1, cr0, {0}
    1d28:	01000005 	tsteq	r0, r5
    1d2c:	004a0d09 	subeq	r0, sl, r9, lsl #26
    1d30:	91020000 	mrsls	r0, (UNDEF: 2)
    1d34:	7a73125c 	bvc	1cc66ac <__bss_end__+0x1cbb8b4>
    1d38:	0d0c0100 	stfeqs	f0, [ip, #-0]
    1d3c:	00000056 	andeq	r0, r0, r6, asr r0
    1d40:	00000bca 	andeq	r0, r0, sl, asr #23
    1d44:	00000bc4 	andeq	r0, r0, r4, asr #23
    1d48:	008c6413 	addeq	r6, ip, r3, lsl r4
    1d4c:	00019400 	andeq	r9, r1, r0, lsl #8
    1d50:	00017600 	andeq	r7, r1, r0, lsl #12
    1d54:	50011400 	andpl	r1, r1, r0, lsl #8
    1d58:	14007502 	strne	r7, [r0], #-1282	; 0xfffffafe
    1d5c:	0a035101 	beq	d6168 <__bss_end__+0xcb370>
    1d60:	01140400 	tsteq	r4, r0, lsl #8
    1d64:	48910352 	ldmmi	r1, {r1, r4, r6, r8, r9}
    1d68:	53011406 	movwpl	r1, #5126	; 0x1406
    1d6c:	004c9102 	subeq	r9, ip, r2, lsl #2
    1d70:	008c7815 	addeq	r7, ip, r5, lsl r8
    1d74:	50011400 	andpl	r1, r1, r0, lsl #8
    1d78:	00007502 	andeq	r7, r0, r2, lsl #10
    1d7c:	00d21600 	sbcseq	r1, r2, r0, lsl #12
    1d80:	01940000 	orrseq	r0, r4, r0
    1d84:	5d170000 	ldcpl	0, cr0, [r7, #-0]
    1d88:	ff000000 			; <UNDEFINED> instruction: 0xff000000
    1d8c:	43180003 	tstmi	r8, #3, 0
    1d90:	43000005 	movwmi	r0, #5
    1d94:	05000005 	streq	r0, [r0, #-5]
    1d98:	f3000502 	vrshl.u8	d0, d2, d0
    1d9c:	04000000 	streq	r0, [r0], #-0
    1da0:	000aa100 	andeq	sl, sl, r0, lsl #2
    1da4:	64010400 	strvs	r0, [r1], #-1024	; 0xfffffc00
    1da8:	0c000004 	stceq	0, cr0, [r0], {4}
    1dac:	00000589 	andeq	r0, r0, r9, lsl #11
    1db0:	0000051c 	andeq	r0, r0, ip, lsl r5
    1db4:	00008c94 	muleq	r0, r4, ip
    1db8:	00000038 	andeq	r0, r0, r8, lsr r0
    1dbc:	00000e0f 	andeq	r0, r0, pc, lsl #28
    1dc0:	69050402 	stmdbvs	r5, {r1, sl}
    1dc4:	0300746e 	movweq	r7, #1134	; 0x46e
    1dc8:	00900704 	addseq	r0, r0, r4, lsl #14
    1dcc:	01030000 	mrseq	r0, (UNDEF: 3)
    1dd0:	00003406 	andeq	r3, r0, r6, lsl #8
    1dd4:	05020300 	streq	r0, [r2, #-768]	; 0xfffffd00
    1dd8:	000000f1 	strdeq	r0, [r0], -r1
    1ddc:	b6050403 	strlt	r0, [r5], -r3, lsl #8
    1de0:	03000000 	movweq	r0, #0
    1de4:	00b10508 	adcseq	r0, r1, r8, lsl #10
    1de8:	01030000 	mrseq	r0, (UNDEF: 3)
    1dec:	00003208 	andeq	r3, r0, r8, lsl #4
    1df0:	07020300 	streq	r0, [r2, -r0, lsl #6]
    1df4:	0000004d 	andeq	r0, r0, sp, asr #32
    1df8:	8b070403 	blhi	1c2e0c <__bss_end__+0x1b8014>
    1dfc:	03000000 	movweq	r0, #0
    1e00:	00860708 	addeq	r0, r6, r8, lsl #14
    1e04:	25040000 	strcs	r0, [r4, #-0]
    1e08:	7a000000 	bvc	1e10 <__code_start__-0x61f0>
    1e0c:	05000000 	streq	r0, [r0, #-0]
    1e10:	00000025 	andeq	r0, r0, r5, lsr #32
    1e14:	01050600 	tsteq	r5, r0, lsl #12
    1e18:	1c020000 	stcne	0, cr0, [r2], {-0}
    1e1c:	0000860e 	andeq	r8, r0, lr, lsl #12
    1e20:	6b040700 	blvs	103a28 <__bss_end__+0xf8c30>
    1e24:	04000000 	streq	r0, [r0], #-0
    1e28:	00000025 	andeq	r0, r0, r5, lsr #32
    1e2c:	0000009b 	muleq	r0, fp, r0
    1e30:	00009b05 	andeq	r9, r0, r5, lsl #22
    1e34:	04070000 	streq	r0, [r7], #-0
    1e38:	000000a8 	andeq	r0, r0, r8, lsr #1
    1e3c:	3b080103 	blcc	202250 <__bss_end__+0x1f7458>
    1e40:	08000000 	stmdaeq	r0, {}	; <UNPREDICTABLE>
    1e44:	000000a1 	andeq	r0, r0, r1, lsr #1
    1e48:	00058406 	andeq	r8, r5, r6, lsl #8
    1e4c:	0e210200 	cdpeq	2, 2, cr0, cr1, cr0, {0}
    1e50:	000000b9 	strheq	r0, [r0], -r9
    1e54:	008c0407 	addeq	r0, ip, r7, lsl #8
    1e58:	ad090000 	stcge	0, cr0, [r9, #-0]
    1e5c:	01000000 	mrseq	r0, (UNDEF: 0)
    1e60:	0305070c 	movweq	r0, #22284	; 0x570c
    1e64:	0000a9b8 			; <UNDEFINED> instruction: 0x0000a9b8
    1e68:	00057b0a 	andeq	r7, r5, sl, lsl #22
    1e6c:	05040100 	streq	r0, [r4, #-256]	; 0xffffff00
    1e70:	00000025 	andeq	r0, r0, r5, lsr #32
    1e74:	00008c94 	muleq	r0, r4, ip
    1e78:	00000038 	andeq	r0, r0, r8, lsr r0
    1e7c:	700b9c01 	andvc	r9, fp, r1, lsl #24
    1e80:	1f040100 	svcne	0x00040100
    1e84:	0000009b 	muleq	r0, fp, r0
    1e88:	00000bfb 	strdeq	r0, [r0], -fp
    1e8c:	00000bf3 	strdeq	r0, [r0], -r3
    1e90:	0c7f0000 	ldcleq	0, cr0, [pc], #-0	; 1e98 <__code_start__-0x6168>
    1e94:	00040000 	andeq	r0, r4, r0
    1e98:	00000b3f 	andeq	r0, r0, pc, lsr fp
    1e9c:	04640104 	strbteq	r0, [r4], #-260	; 0xfffffefc
    1ea0:	a80c0000 	stmdage	ip, {}	; <UNPREDICTABLE>
    1ea4:	1c000005 	stcne	0, cr0, [r0], {5}
    1ea8:	cc000005 	stcgt	0, cr0, [r0], {5}
    1eac:	b400008c 	strlt	r0, [r0], #-140	; 0xffffff74
    1eb0:	b3000009 	movwlt	r0, #9
    1eb4:	0200000e 	andeq	r0, r0, #14, 0
    1eb8:	00860708 	addeq	r0, r6, r8, lsl #14
    1ebc:	04020000 	streq	r0, [r2], #-0
    1ec0:	00009007 	andeq	r9, r0, r7
    1ec4:	05040300 	streq	r0, [r4, #-768]	; 0xfffffd00
    1ec8:	00746e69 	rsbseq	r6, r4, r9, ror #28
    1ecc:	34060102 	strcc	r0, [r6], #-258	; 0xfffffefe
    1ed0:	02000000 	andeq	r0, r0, #0, 0
    1ed4:	00f10502 	rscseq	r0, r1, r2, lsl #10
    1ed8:	04020000 	streq	r0, [r2], #-0
    1edc:	0000b605 	andeq	fp, r0, r5, lsl #12
    1ee0:	05080200 	streq	r0, [r8, #-512]	; 0xfffffe00
    1ee4:	000000b1 	strheq	r0, [r0], -r1
    1ee8:	32080102 	andcc	r0, r8, #-2147483648	; 0x80000000
    1eec:	02000000 	andeq	r0, r0, #0, 0
    1ef0:	004d0702 	subeq	r0, sp, r2, lsl #14
    1ef4:	48040000 	stmdami	r4, {}	; <UNPREDICTABLE>
    1ef8:	02000002 	andeq	r0, r0, #2, 0
    1efc:	00701934 	rsbseq	r1, r0, r4, lsr r9
    1f00:	04020000 	streq	r0, [r2], #-0
    1f04:	00008b07 	andeq	r8, r0, r7, lsl #22
    1f08:	059f0400 	ldreq	r0, [pc, #1024]	; 2310 <__code_start__-0x5cf0>
    1f0c:	37020000 	strcc	r0, [r2, -r0]
    1f10:	00002519 	andeq	r2, r0, r9, lsl r5
    1f14:	00330500 	eorseq	r0, r3, r0, lsl #10
    1f18:	00920000 	addseq	r0, r2, r0
    1f1c:	33060000 	movwcc	r0, #24576	; 0x6000
    1f20:	00000000 	andeq	r0, r0, r0
    1f24:	00010507 	andeq	r0, r1, r7, lsl #10
    1f28:	0e1c0300 	cdpeq	3, 1, cr0, cr12, cr0, {0}
    1f2c:	0000009e 	muleq	r0, lr, r0
    1f30:	00830408 	addeq	r0, r3, r8, lsl #8
    1f34:	33050000 	movwcc	r0, #20480	; 0x5000
    1f38:	b3000000 	movwlt	r0, #0
    1f3c:	06000000 	streq	r0, [r0], -r0
    1f40:	000000b3 	strheq	r0, [r0], -r3
    1f44:	c0040800 	andgt	r0, r4, r0, lsl #16
    1f48:	02000000 	andeq	r0, r0, #0, 0
    1f4c:	003b0801 	eorseq	r0, fp, r1, lsl #16
    1f50:	b9090000 	stmdblt	r9, {}	; <UNPREDICTABLE>
    1f54:	07000000 	streq	r0, [r0, -r0]
    1f58:	00000584 	andeq	r0, r0, r4, lsl #11
    1f5c:	d10e2103 	tstle	lr, r3, lsl #2
    1f60:	08000000 	stmdaeq	r0, {}	; <UNPREDICTABLE>
    1f64:	0000a404 	andeq	sl, r0, r4, lsl #8
    1f68:	05bb0700 	ldreq	r0, [fp, #1792]!	; 0x700
    1f6c:	0b040000 	bleq	101f74 <__bss_end__+0xf717c>
    1f70:	0000b90d 	andeq	fp, r0, sp, lsl #18
    1f74:	06140700 	ldreq	r0, [r4], -r0, lsl #14
    1f78:	0c040000 	stceq	0, cr0, [r4], {-0}
    1f7c:	0000b90d 	andeq	fp, r0, sp, lsl #18
    1f80:	03370700 	teqeq	r7, #0, 14
    1f84:	0d040000 	stceq	0, cr0, [r4, #-0]
    1f88:	0000b90d 	andeq	fp, r0, sp, lsl #18
    1f8c:	03e90700 	mvneq	r0, #0, 14
    1f90:	0e040000 	cdpeq	0, 0, cr0, cr4, cr0, {0}
    1f94:	0000b90d 	andeq	fp, r0, sp, lsl #18
    1f98:	041f0700 	ldreq	r0, [pc], #-1792	; 1fa0 <__code_start__-0x6060>
    1f9c:	0f040000 	svceq	0x00040000
    1fa0:	0000b90d 	andeq	fp, r0, sp, lsl #18
    1fa4:	03a60700 			; <UNDEFINED> instruction: 0x03a60700
    1fa8:	10040000 	andne	r0, r4, r0
    1fac:	0000b90d 	andeq	fp, r0, sp, lsl #18
    1fb0:	063d0700 	ldrteq	r0, [sp], -r0, lsl #14
    1fb4:	11040000 	mrsne	r0, (UNDEF: 4)
    1fb8:	0000b90d 	andeq	fp, r0, sp, lsl #18
    1fbc:	05d80700 	ldrbeq	r0, [r8, #1792]	; 0x700
    1fc0:	12040000 	andne	r0, r4, #0, 0
    1fc4:	0000b90d 	andeq	fp, r0, sp, lsl #18
    1fc8:	054d0400 	strbeq	r0, [sp, #-1024]	; 0xfffffc00
    1fcc:	28050000 	stmdacs	r5, {}	; <UNPREDICTABLE>
    1fd0:	0001431b 	andeq	r4, r1, fp, lsl r3
    1fd4:	05710a00 	ldrbeq	r0, [r1, #-2560]!	; 0xfffff600
    1fd8:	06040000 	streq	r0, [r4], -r0
    1fdc:	00015a00 	andeq	r5, r1, r0, lsl #20
    1fe0:	055c0b00 	ldrbeq	r0, [ip, #-2816]	; 0xfffff500
    1fe4:	015a0000 	cmpeq	sl, r0
    1fe8:	00000000 	andeq	r0, r0, r0
    1fec:	7304040c 	movwvc	r0, #17420	; 0x440c
    1ff0:	05000005 	streq	r0, [r0, #-5]
    1ff4:	01371863 	teqeq	r7, r3, ror #16
    1ff8:	430d0000 	movwmi	r0, #53248	; 0xd000
    1ffc:	01000005 	tsteq	r0, r5
    2000:	00330581 	eorseq	r0, r3, r1, lsl #11
    2004:	90540000 	subsls	r0, r4, r0
    2008:	062c0000 	strteq	r0, [ip], -r0
    200c:	9c010000 	stcls	0, cr0, [r1], {-0}
    2010:	0000086a 	andeq	r0, r0, sl, ror #16
    2014:	6675620e 	ldrbtvs	r6, [r5], -lr, lsl #4
    2018:	15810100 	strne	r0, [r1, #256]	; 0x100
    201c:	0000086a 	andeq	r0, r0, sl, ror #16
    2020:	00000c3b 	andeq	r0, r0, fp, lsr ip
    2024:	00000c31 	andeq	r0, r0, r1, lsr ip
    2028:	01006e0e 	tsteq	r0, lr, lsl #28
    202c:	00331e81 	eorseq	r1, r3, r1, lsl #29
    2030:	0c880000 	stceq	0, cr0, [r8], {0}
    2034:	0c800000 	stceq	0, cr0, [r0], {0}
    2038:	660e0000 	strvs	r0, [lr], -r0
    203c:	0100746d 	tsteq	r0, sp, ror #8
    2040:	00b32d81 	adcseq	r2, r3, r1, lsl #27
    2044:	0cda0000 	ldcleq	0, cr0, [sl], {0}
    2048:	0cc20000 	stcleq	0, cr0, [r2], {0}
    204c:	3e0f0000 	cdpcc	0, 0, cr0, cr15, cr0, {0}
    2050:	01000005 	tsteq	r0, r5
    2054:	015c3a81 	cmpeq	ip, r1, lsl #21
    2058:	0d9c0000 	ldceq	0, cr0, [ip]
    205c:	0d6e0000 	stcleq	0, cr0, [lr, #-0]
    2060:	70100000 	andsvc	r0, r0, r0
    2064:	08820100 	stmeq	r2, {r8}
    2068:	0000086a 	andeq	r0, r0, sl, ror #16
    206c:	00000eef 	andeq	r0, r0, pc, ror #29
    2070:	00000ed9 	ldrdeq	r0, [r0], -r9
    2074:	01006510 	tsteq	r0, r0, lsl r5
    2078:	086a1282 	stmdaeq	sl!, {r1, r7, r9, ip}^
    207c:	0f780000 	svceq	0x00780000
    2080:	0f760000 	svceq	0x00760000
    2084:	78100000 	ldmdavc	r0, {}	; <UNPREDICTABLE>
    2088:	83010030 	movwhi	r0, #4144	; 0x1030
    208c:	0000640e 	andeq	r6, r0, lr, lsl #8
    2090:	000f9100 	andeq	r9, pc, r0, lsl #2
    2094:	000f8b00 	andeq	r8, pc, r0, lsl #22
    2098:	31781000 	cmncc	r8, r0
    209c:	11830100 	orrne	r0, r3, r0, lsl #2
    20a0:	00000064 	andeq	r0, r0, r4, rrx
    20a4:	00000fc0 	andeq	r0, r0, r0, asr #31
    20a8:	00000fba 			; <UNDEFINED> instruction: 0x00000fba
    20ac:	0005f611 	andeq	pc, r5, r1, lsl r6	; <UNPREDICTABLE>
    20b0:	11860100 	orrne	r0, r6, r0, lsl #2
    20b4:	000000b3 	strheq	r0, [r0], -r3
    20b8:	00000ff1 	strdeq	r0, [r0], -r1
    20bc:	00000fe9 	andeq	r0, r0, r9, ror #31
    20c0:	00006c12 	andeq	r6, r0, r2, lsl ip
    20c4:	00088000 	andeq	r8, r8, r0
    20c8:	a4030500 	strge	r0, [r3], #-1280	; 0xfffffb00
    20cc:	130000a7 	movwne	r0, #167	; 0xa7
    20d0:	00000100 	andeq	r0, r0, r0, lsl #2
    20d4:	01007310 	tsteq	r0, r0, lsl r3
    20d8:	086a0a91 	stmdaeq	sl!, {r0, r4, r7, r9, fp}^
    20dc:	10370000 	eorsne	r0, r7, r0
    20e0:	102b0000 	eorne	r0, fp, r0
    20e4:	6e140000 	cdpvs	0, 1, cr0, cr4, cr0, {0}
    20e8:	01006d75 	tsteq	r0, r5, ror sp
    20ec:	08850d91 	stmeq	r5, {r0, r4, r7, r8, sl, fp}
    20f0:	91030000 	mrsls	r0, (UNDEF: 3)
    20f4:	4a157dd8 	bmi	56185c <__bss_end__+0x556a64>
    20f8:	01000006 	tsteq	r0, r6
    20fc:	08851791 	stmeq	r5, {r0, r4, r7, r8, r9, sl, ip}
    2100:	91030000 	mrsls	r0, (UNDEF: 3)
    2104:	ca117ed8 	bgt	461c6c <__bss_end__+0x456e74>
    2108:	01000005 	tsteq	r0, r5
    210c:	002c0d92 	mlaeq	ip, r2, sp, r0
    2110:	10890000 	addne	r0, r9, r0
    2114:	10810000 	addne	r0, r1, r0
    2118:	28160000 	ldmdacs	r6, {}	; <UNPREDICTABLE>
    211c:	f1000001 	cps	#1
    2120:	10000004 	andne	r0, r0, r4
    2124:	01007974 	tsteq	r0, r4, ror r9
    2128:	00b31d9e 	umlalseq	r1, r3, lr, sp
    212c:	10ca0000 	sbcne	r0, sl, r0
    2130:	10be0000 	adcsne	r0, lr, r0
    2134:	78140000 	ldmdavc	r4, {}	; <UNPREDICTABLE>
    2138:	a2010078 	andge	r0, r1, #120, 0	; 0x78
    213c:	0000771a 	andeq	r7, r0, sl, lsl r7
    2140:	93590600 	cmpls	r9, #0, 12
    2144:	04935b04 	ldreq	r5, [r3], #2820	; 0xb04
    2148:	0091e017 	addseq	lr, r1, r7, lsl r0
    214c:	000c3a00 	andeq	r3, ip, r0, lsl #20
    2150:	0002d800 	andeq	sp, r2, r0, lsl #16
    2154:	50011800 	andpl	r1, r1, r0, lsl #16
    2158:	18007602 	stmdane	r0, {r1, r9, sl, ip, sp, lr}
    215c:	03055101 	movweq	r5, #20737	; 0x5101
    2160:	0000a698 	muleq	r0, r8, r6
    2164:	01520118 	cmpeq	r2, r8, lsl r1
    2168:	f8170033 			; <UNDEFINED> instruction: 0xf8170033
    216c:	3a000091 	bcc	23b8 <__code_start__-0x5c48>
    2170:	fa00000c 	blx	21a8 <__code_start__-0x5e58>
    2174:	18000002 	stmdane	r0, {r1}
    2178:	76025001 	strvc	r5, [r2], -r1
    217c:	51011800 	tstpl	r1, r0, lsl #16
    2180:	a6ac0305 	strtge	r0, [ip], r5, lsl #6
    2184:	01180000 	tsteq	r8, r0
    2188:	00330152 	eorseq	r0, r3, r2, asr r1
    218c:	00921c17 	addseq	r1, r2, r7, lsl ip
    2190:	000c4600 	andeq	r4, ip, r0, lsl #12
    2194:	00031700 	andeq	r1, r3, r0, lsl #14
    2198:	50011800 	andpl	r1, r1, r0, lsl #16
    219c:	a69c0305 	ldrge	r0, [ip], r5, lsl #6
    21a0:	01180000 	tsteq	r8, r0
    21a4:	007b0251 	rsbseq	r0, fp, r1, asr r2
    21a8:	92281700 	eorls	r1, r8, #0, 14
    21ac:	0c460000 	mareq	acc0, r0, r6
    21b0:	03340000 	teqeq	r4, #0, 0
    21b4:	01180000 	tsteq	r8, r0
    21b8:	a4030550 	strge	r0, [r3], #-1360	; 0xfffffab0
    21bc:	180000a6 	stmdane	r0, {r1, r2, r5, r7}
    21c0:	79025101 	stmdbvc	r2, {r0, r8, ip, lr}
    21c4:	38170000 	ldmdacc	r7, {}	; <UNPREDICTABLE>
    21c8:	3a000092 	bcc	2418 <__code_start__-0x5be8>
    21cc:	5600000c 	strpl	r0, [r0], -ip
    21d0:	18000003 	stmdane	r0, {r0, r1}
    21d4:	76025001 	strvc	r5, [r2], -r1
    21d8:	51011800 	tstpl	r1, r0, lsl #16
    21dc:	a6980305 	ldrge	r0, [r8], r5, lsl #6
    21e0:	01180000 	tsteq	r8, r0
    21e4:	00330152 	eorseq	r0, r3, r2, asr r1
    21e8:	00926817 	addseq	r6, r2, r7, lsl r8
    21ec:	000aa400 	andeq	sl, sl, r0, lsl #8
    21f0:	00038300 	andeq	r8, r3, r0, lsl #6
    21f4:	50011800 	andpl	r1, r1, r0, lsl #16
    21f8:	01184001 	tsteq	r8, r1
    21fc:	d0910351 	addsle	r0, r1, r1, asr r3
    2200:	5201187d 	andpl	r1, r1, #8192000	; 0x7d0000
    2204:	18007b02 	stmdane	r0, {r1, r8, r9, fp, ip, sp, lr}
    2208:	75025301 	strvc	r5, [r2, #-769]	; 0xfffffcff
    220c:	7d021800 	stcvc	8, cr1, [r2, #-0]
    2210:	00760200 	rsbseq	r0, r6, r0, lsl #4
    2214:	92881700 	addls	r1, r8, #0, 14
    2218:	0aa40000 	beq	fe902220 <__bss_end__+0xfe8f7428>
    221c:	03aa0000 			; <UNDEFINED> instruction: 0x03aa0000
    2220:	01180000 	tsteq	r8, r0
    2224:	18400150 	stmdane	r0, {r4, r6, r8}^
    2228:	91035101 	tstls	r3, r1, lsl #2
    222c:	01187ed0 			; <UNDEFINED> instruction: 0x01187ed0
    2230:	00790252 	rsbseq	r0, r9, r2, asr r2
    2234:	007d0218 	rsbseq	r0, sp, r8, lsl r2
    2238:	00007602 	andeq	r7, r0, r2, lsl #12
    223c:	00929817 	addseq	r9, r2, r7, lsl r8
    2240:	000c5200 	andeq	r5, ip, r0, lsl #4
    2244:	0003c600 	andeq	ip, r3, r0, lsl #12
    2248:	50011800 	andpl	r1, r1, r0, lsl #16
    224c:	7dd09103 	ldfvcp	f1, [r0, #12]
    2250:	03510118 	cmpeq	r1, #6
    2254:	007ed291 			; <UNDEFINED> instruction: 0x007ed291
    2258:	0094dc17 	addseq	sp, r4, r7, lsl ip
    225c:	000c3a00 	andeq	r3, ip, r0, lsl #20
    2260:	0003e800 	andeq	lr, r3, r0, lsl #16
    2264:	50011800 	andpl	r1, r1, r0, lsl #16
    2268:	18007602 	stmdane	r0, {r1, r9, sl, ip, sp, lr}
    226c:	03055101 	movweq	r5, #20737	; 0x5101
    2270:	0000a6ac 	andeq	sl, r0, ip, lsr #13
    2274:	01520118 	cmpeq	r2, r8, lsl r1
    2278:	00170033 	andseq	r0, r7, r3, lsr r0
    227c:	a4000095 	strge	r0, [r0], #-149	; 0xffffff6b
    2280:	1500000a 	strne	r0, [r0, #-10]
    2284:	18000004 	stmdane	r0, {r2}
    2288:	3a015001 	bcc	56294 <__bss_end__+0x4b49c>
    228c:	03510118 	cmpeq	r1, #6
    2290:	187dd091 	ldmdane	sp!, {r0, r4, r7, ip, lr, pc}^
    2294:	7b025201 	blvc	96aa0 <__bss_end__+0x8bca8>
    2298:	53011800 	movwpl	r1, #6144	; 0x1800
    229c:	18007502 	stmdane	r0, {r1, r8, sl, ip, sp, lr}
    22a0:	02007d02 	andeq	r7, r0, #128	; 0x80
    22a4:	17000076 	smlsdxne	r0, r6, r0, r0
    22a8:	00009520 	andeq	r9, r0, r0, lsr #10
    22ac:	00000aa4 	andeq	r0, r0, r4, lsr #21
    22b0:	0000043c 	andeq	r0, r0, ip, lsr r4
    22b4:	01500118 	cmpeq	r0, r8, lsl r1
    22b8:	5101183a 	tstpl	r1, sl, lsr r8
    22bc:	7ed09103 	atnvcs	f1, f3
    22c0:	02520118 	subseq	r0, r2, #6
    22c4:	02180079 	andseq	r0, r8, #121, 0	; 0x79
    22c8:	7602007d 			; <UNDEFINED> instruction: 0x7602007d
    22cc:	2c170000 	ldccs	0, cr0, [r7], {-0}
    22d0:	5e000095 	mcrpl	0, 0, r0, cr0, cr5, {4}
    22d4:	5a00000c 	bpl	230c <__code_start__-0x5cf4>
    22d8:	18000004 	stmdane	r0, {r2}
    22dc:	91035001 	tstls	r3, r1
    22e0:	01187dd0 			; <UNDEFINED> instruction: 0x01187dd0
    22e4:	1c030551 	cfstr32ne	mvfx0, [r3], {81}	; 0x51
    22e8:	000000a5 	andeq	r0, r0, r5, lsr #1
    22ec:	00954017 	addseq	r4, r5, r7, lsl r0
    22f0:	000c6a00 	andeq	r6, ip, r0, lsl #20
    22f4:	00047600 	andeq	r7, r4, r0, lsl #12
    22f8:	50011800 	andpl	r1, r1, r0, lsl #16
    22fc:	7dd09103 	ldfvcp	f1, [r0, #12]
    2300:	03510118 	cmpeq	r1, #6
    2304:	007ed091 			; <UNDEFINED> instruction: 0x007ed091
    2308:	00954c19 	addseq	r4, r5, r9, lsl ip
    230c:	000c5200 	andeq	r5, ip, r0, lsl #4
    2310:	96101700 	ldrls	r1, [r0], -r0, lsl #14
    2314:	0c460000 	mareq	acc0, r0, r6
    2318:	04a80000 	strteq	r0, [r8], #0
    231c:	01180000 	tsteq	r8, r0
    2320:	ac030550 	cfstr32ge	mvfx0, [r3], {80}	; 0x50
    2324:	180000a1 	stmdane	r0, {r0, r5, r7}
    2328:	03055101 	movweq	r5, #20737	; 0x5101
    232c:	0000a64c 	andeq	sl, r0, ip, asr #12
    2330:	05520118 	ldrbeq	r0, [r2, #-280]	; 0xfffffee8
    2334:	00a7a403 	adceq	sl, r7, r3, lsl #8
    2338:	14190000 	ldrne	r0, [r9], #-0
    233c:	76000096 			; <UNDEFINED> instruction: 0x76000096
    2340:	1700000c 	strne	r0, [r0, -ip]
    2344:	0000962c 	andeq	r9, r0, ip, lsr #12
    2348:	00000c46 	andeq	r0, r0, r6, asr #24
    234c:	000004e7 	andeq	r0, r0, r7, ror #9
    2350:	05500118 	ldrbeq	r0, [r0, #-280]	; 0xfffffee8
    2354:	00a6ec03 	adceq	lr, r6, r3, lsl #24
    2358:	51011800 	tstpl	r1, r0, lsl #16
    235c:	a64c0305 	strbge	r0, [ip], -r5, lsl #6
    2360:	01180000 	tsteq	r8, r0
    2364:	a4030552 	strge	r0, [r3], #-1362	; 0xfffffaae
    2368:	180000a7 	stmdane	r0, {r0, r1, r2, r5, r7}
    236c:	08025301 	stmdaeq	r2, {r0, r8, r9, ip, lr}
    2370:	7d0218b6 	stcvc	8, cr1, [r2, #-728]	; 0xfffffd28
    2374:	00760200 	rsbseq	r0, r6, r0, lsl #4
    2378:	96301900 	ldrtls	r1, [r0], -r0, lsl #18
    237c:	0c760000 	ldcleq	0, cr0, [r6], #-0
    2380:	1a000000 	bne	2388 <__code_start__-0x5c78>
    2384:	000009e3 	andeq	r0, r0, r3, ror #19
    2388:	000090e0 	andeq	r9, r0, r0, ror #1
    238c:	01500004 	cmpeq	r0, r4
    2390:	94010000 	strls	r0, [r1], #-0
    2394:	0005150a 	andeq	r1, r5, sl, lsl #10
    2398:	09f41b00 	ldmibeq	r4!, {r8, r9, fp, ip}^
    239c:	11260000 			; <UNDEFINED> instruction: 0x11260000
    23a0:	11220000 			; <UNDEFINED> instruction: 0x11220000
    23a4:	1a000000 	bne	23ac <__code_start__-0x5c54>
    23a8:	00000895 	muleq	r0, r5, r8
    23ac:	000092c8 	andeq	r9, r0, r8, asr #5
    23b0:	01700001 	cmneq	r0, r1
    23b4:	dc010000 	stcle	0, cr0, [r1], {-0}
    23b8:	00064b09 	andeq	r4, r6, r9, lsl #22
    23bc:	08be1b00 	ldmeq	lr!, {r8, r9, fp, ip}
    23c0:	11540000 	cmpne	r4, r0
    23c4:	114e0000 	mrsne	r0, (UNDEF: 78)
    23c8:	e01b0000 	ands	r0, fp, r0
    23cc:	89000008 	stmdbhi	r0, {r3}
    23d0:	83000011 	movwhi	r0, #17
    23d4:	1b000011 	blne	2420 <__code_start__-0x5be0>
    23d8:	000008d4 	ldrdeq	r0, [r0], -r4
    23dc:	000011bb 			; <UNDEFINED> instruction: 0x000011bb
    23e0:	000011b5 			; <UNDEFINED> instruction: 0x000011b5
    23e4:	0008c81c 	andeq	ip, r8, ip, lsl r8
    23e8:	08b21b00 	ldmeq	r2!, {r8, r9, fp, ip}
    23ec:	11ec0000 	mvnne	r0, r0
    23f0:	11e40000 	mvnne	r0, r0
    23f4:	a61b0000 	ldrge	r0, [fp], -r0
    23f8:	2f000008 	svccs	0x00000008
    23fc:	29000012 	stmdbcs	r0, {r1, r4}
    2400:	13000012 	movwne	r0, #18
    2404:	00000170 	andeq	r0, r0, r0, ror r1
    2408:	0008ec1d 	andeq	lr, r8, sp, lsl ip
    240c:	d8910300 	ldmle	r1, {r8, r9}
    2410:	08f81e7e 	ldmeq	r8!, {r1, r2, r3, r4, r5, r6, r9, sl, fp, ip}^
    2414:	12690000 	rsbne	r0, r9, #0, 0
    2418:	125b0000 	subsne	r0, fp, #0, 0
    241c:	021f0000 	andseq	r0, pc, #0, 0
    2420:	1a000009 	bne	244c <__code_start__-0x5bb4>
    2424:	000009a3 	andeq	r0, r0, r3, lsr #19
    2428:	000092d4 	ldrdeq	r9, [r0], -r4
    242c:	01a00004 	moveq	r0, r4
    2430:	7c010000 	stcvc	0, cr0, [r1], {-0}
    2434:	0005e209 	andeq	lr, r5, r9, lsl #4
    2438:	09ca1b00 	stmibeq	sl, {r8, r9, fp, ip}^
    243c:	12d30000 	sbcsne	r0, r3, #0, 0
    2440:	12cd0000 	sbcne	r0, sp, #0, 0
    2444:	be1b0000 	cdplt	0, 1, cr0, cr11, cr0, {0}
    2448:	08000009 	stmdaeq	r0, {r0, r3}
    244c:	fc000013 	stc2	0, cr0, [r0], {19}
    2450:	1b000012 	blne	24a0 <__code_start__-0x5b60>
    2454:	000009b4 			; <UNDEFINED> instruction: 0x000009b4
    2458:	0000136e 	andeq	r1, r0, lr, ror #6
    245c:	0000135e 	andeq	r1, r0, lr, asr r3
    2460:	0001a013 	andeq	sl, r1, r3, lsl r0
    2464:	09d61e00 	ldmibeq	r6, {r9, sl, fp, ip}^
    2468:	13eb0000 	mvnne	r0, #0, 0
    246c:	13dd0000 	bicsne	r0, sp, #0, 0
    2470:	00000000 	andeq	r0, r0, r0
    2474:	00094f20 	andeq	r4, r9, r0, lsr #30
    2478:	00939c00 	addseq	r9, r3, r0, lsl #24
    247c:	d0000200 	andle	r0, r0, r0, lsl #4
    2480:	01000001 	tsteq	r0, r1
    2484:	801b097c 	andshi	r0, fp, ip, ror r9
    2488:	4b000009 	blmi	24b4 <__code_start__-0x5b4c>
    248c:	45000014 	strmi	r0, [r0, #-20]	; 0xffffffec
    2490:	1b000014 	blne	24e8 <__code_start__-0x5b18>
    2494:	00000976 	andeq	r0, r0, r6, ror r9
    2498:	00001481 	andeq	r1, r0, r1, lsl #9
    249c:	00001477 	andeq	r1, r0, r7, ror r4
    24a0:	00096c1b 	andeq	r6, r9, fp, lsl ip
    24a4:	0014d000 	andseq	sp, r4, r0
    24a8:	0014cc00 	andseq	ip, r4, r0, lsl #24
    24ac:	09601b00 	stmdbeq	r0!, {r8, r9, fp, ip}^
    24b0:	15000000 	strne	r0, [r0, #-0]
    24b4:	14f20000 	ldrbtne	r0, [r2], #0
    24b8:	d0130000 	andsle	r0, r3, r0
    24bc:	1e000001 	cdpne	0, 0, cr0, cr0, cr1, {0}
    24c0:	0000098c 	andeq	r0, r0, ip, lsl #19
    24c4:	00001565 	andeq	r1, r0, r5, ror #10
    24c8:	00001563 	andeq	r1, r0, r3, ror #10
    24cc:	0009981e 	andeq	r9, r9, lr, lsl r8
    24d0:	00157f00 	andseq	r7, r5, r0, lsl #30
    24d4:	00157900 	andseq	r7, r5, r0, lsl #18
    24d8:	00000000 	andeq	r0, r0, r0
    24dc:	08951a00 	ldmeq	r5, {r9, fp, ip}
    24e0:	93d80000 	bicsls	r0, r8, #0, 0
    24e4:	00000000 	andeq	r0, r0, r0
    24e8:	00000200 	andeq	r0, r0, r0, lsl #4
    24ec:	8909d601 	stmdbhi	r9, {r0, r9, sl, ip, lr, pc}
    24f0:	1b000007 	blne	2514 <__code_start__-0x5aec>
    24f4:	000008be 			; <UNDEFINED> instruction: 0x000008be
    24f8:	000015b2 			; <UNDEFINED> instruction: 0x000015b2
    24fc:	000015ae 	andeq	r1, r0, lr, lsr #11
    2500:	0008e01b 	andeq	lr, r8, fp, lsl r0
    2504:	0015d800 	andseq	sp, r5, r0, lsl #16
    2508:	0015d400 	andseq	sp, r5, r0, lsl #8
    250c:	08d41b00 	ldmeq	r4, {r8, r9, fp, ip}^
    2510:	15fc0000 	ldrbne	r0, [ip, #0]!
    2514:	15f80000 	ldrbne	r0, [r8, #0]!
    2518:	c81c0000 	ldmdagt	ip, {}	; <UNPREDICTABLE>
    251c:	1b000008 	blne	2544 <__code_start__-0x5abc>
    2520:	000008b2 			; <UNDEFINED> instruction: 0x000008b2
    2524:	00001620 	andeq	r1, r0, r0, lsr #12
    2528:	0000161a 	andeq	r1, r0, sl, lsl r6
    252c:	0008a61b 	andeq	sl, r8, fp, lsl r6
    2530:	00165300 	andseq	r5, r6, r0, lsl #6
    2534:	00164f00 	andseq	r4, r6, r0, lsl #30
    2538:	02001300 	andeq	r1, r0, #0, 6
    253c:	ec1d0000 	ldc	0, cr0, [sp], {-0}
    2540:	03000008 	movweq	r0, #8
    2544:	1e7ed891 	mrcne	8, 3, sp, cr14, cr1, {4}
    2548:	000008f8 	strdeq	r0, [r0], -r8
    254c:	0000167d 	andeq	r1, r0, sp, ror r6
    2550:	00001673 	andeq	r1, r0, r3, ror r6
    2554:	0009021e 	andeq	r0, r9, lr, lsl r2
    2558:	0016c200 	andseq	ip, r6, r0, lsl #4
    255c:	0016be00 	andseq	fp, r6, r0, lsl #28
    2560:	09a31a00 	stmibeq	r3!, {r9, fp, ip}
    2564:	93f40000 	mvnsls	r0, #0, 0
    2568:	00030000 	andeq	r0, r3, r0
    256c:	00000220 	andeq	r0, r0, r0, lsr #4
    2570:	20097c01 	andcs	r7, r9, r1, lsl #24
    2574:	1b000007 	blne	2598 <__code_start__-0x5a68>
    2578:	000009ca 	andeq	r0, r0, sl, asr #19
    257c:	000016e4 	andeq	r1, r0, r4, ror #13
    2580:	000016e0 	andeq	r1, r0, r0, ror #13
    2584:	0009be1b 	andeq	fp, r9, fp, lsl lr
    2588:	00170600 	andseq	r0, r7, r0, lsl #12
    258c:	00170200 	andseq	r0, r7, r0, lsl #4
    2590:	09b41b00 	ldmibeq	r4!, {r8, r9, fp, ip}
    2594:	17300000 	ldrne	r0, [r0, -r0]!
    2598:	17240000 	strne	r0, [r4, -r0]!
    259c:	20130000 	andscs	r0, r3, r0
    25a0:	1e000002 	cdpne	0, 0, cr0, cr0, cr2, {0}
    25a4:	000009d6 	ldrdeq	r0, [r0], -r6
    25a8:	0000178c 	andeq	r1, r0, ip, lsl #15
    25ac:	00001780 	andeq	r1, r0, r0, lsl #15
    25b0:	4f200000 	svcmi	0x00200000
    25b4:	7c000009 	stcvc	0, cr0, [r0], {9}
    25b8:	02000094 	andeq	r0, r0, #148, 0	; 0x94
    25bc:	00024800 	andeq	r4, r2, r0, lsl #16
    25c0:	097c0100 	ldmdbeq	ip!, {r8}^
    25c4:	0009801b 	andeq	r8, r9, fp, lsl r0
    25c8:	0017dc00 	andseq	sp, r7, r0, lsl #24
    25cc:	0017d800 	andseq	sp, r7, r0, lsl #16
    25d0:	09761b00 	ldmdbeq	r6!, {r8, r9, fp, ip}^
    25d4:	18040000 	stmdane	r4, {}	; <UNPREDICTABLE>
    25d8:	17fa0000 	ldrbne	r0, [sl, r0]!
    25dc:	6c1b0000 	ldcvs	0, cr0, [fp], {-0}
    25e0:	50000009 	andpl	r0, r0, r9
    25e4:	4c000018 	stcmi	0, cr0, [r0], {24}
    25e8:	1b000018 	blne	2650 <__code_start__-0x59b0>
    25ec:	00000960 	andeq	r0, r0, r0, ror #18
    25f0:	0000187e 	andeq	r1, r0, lr, ror r8
    25f4:	00001872 	andeq	r1, r0, r2, ror r8
    25f8:	00024813 	andeq	r4, r2, r3, lsl r8
    25fc:	098c1e00 	stmibeq	ip, {r9, sl, fp, ip}
    2600:	18d80000 	ldmne	r8, {}^	; <UNPREDICTABLE>
    2604:	18d40000 	ldmne	r4, {}^	; <UNPREDICTABLE>
    2608:	981e0000 	ldmdals	lr, {}	; <UNPREDICTABLE>
    260c:	fe000009 	cdp2	0, 0, cr0, cr0, cr9, {0}
    2610:	fa000018 	blx	2678 <__code_start__-0x5988>
    2614:	00000018 	andeq	r0, r0, r8, lsl r0
    2618:	17000000 	strne	r0, [r0, -r0]
    261c:	000091a8 	andeq	r9, r0, r8, lsr #3
    2620:	00000aa4 	andeq	r0, r0, r4, lsr #21
    2624:	000007af 	andeq	r0, r0, pc, lsr #15
    2628:	01500118 	cmpeq	r0, r8, lsl r1
    262c:	51011840 	tstpl	r1, r0, asr #16
    2630:	7dd09103 	ldfvcp	f1, [r0, #12]
    2634:	02530118 	subseq	r0, r3, #6
    2638:	02180075 	andseq	r0, r8, #117, 0	; 0x75
    263c:	3001007d 	andcc	r0, r1, sp, ror r0
    2640:	92b81700 	adcsls	r1, r8, #0, 14
    2644:	0aa40000 	beq	fe90264c <__bss_end__+0xfe8f7854>
    2648:	07cf0000 	strbeq	r0, [pc, r0]
    264c:	01180000 	tsteq	r8, r0
    2650:	183a0150 	ldmdane	sl!, {r4, r6, r8}
    2654:	91035101 	tstls	r3, r1, lsl #2
    2658:	01187dd0 			; <UNDEFINED> instruction: 0x01187dd0
    265c:	00750253 	rsbseq	r0, r5, r3, asr r2
    2660:	959c1700 	ldrls	r1, [ip, #1792]	; 0x700
    2664:	0c460000 	mareq	acc0, r0, r6
    2668:	07e60000 	strbeq	r0, [r6, r0]!
    266c:	01180000 	tsteq	r8, r0
    2670:	3c030550 	cfstr32cc	mvfx0, [r3], {80}	; 0x50
    2674:	000000a7 	andeq	r0, r0, r7, lsr #1
    2678:	0095ac21 	addseq	sl, r5, r1, lsr #24
    267c:	0007f800 	andeq	pc, r7, r0, lsl #16
    2680:	50011800 	andpl	r1, r1, r0, lsl #16
    2684:	7dc89104 	stfvcp	f1, [r8, #16]
    2688:	c0170006 	andsgt	r0, r7, r6
    268c:	46000095 			; <UNDEFINED> instruction: 0x46000095
    2690:	2700000c 	strcs	r0, [r0, -ip]
    2694:	18000008 	stmdane	r0, {r3}
    2698:	03055001 	movweq	r5, #20481	; 0x5001
    269c:	0000a76c 	andeq	sl, r0, ip, ror #14
    26a0:	05510118 	ldrbeq	r0, [r1, #-280]	; 0xfffffee8
    26a4:	00a64c03 	adceq	r4, r6, r3, lsl #24
    26a8:	52011800 	andpl	r1, r1, #0, 16
    26ac:	a7a40305 	strge	r0, [r4, r5, lsl #6]!
    26b0:	01180000 	tsteq	r8, r0
    26b4:	e2080253 	and	r0, r8, #805306373	; 0x30000005
    26b8:	95c41900 	strbls	r1, [r4, #2304]	; 0x900
    26bc:	0c760000 	ldcleq	0, cr0, [r6], #-0
    26c0:	d8170000 	ldmdale	r7, {}	; <UNPREDICTABLE>
    26c4:	46000095 			; <UNDEFINED> instruction: 0x46000095
    26c8:	5f00000c 	svcpl	0x0000000c
    26cc:	18000008 	stmdane	r0, {r3}
    26d0:	03055001 	movweq	r5, #20481	; 0x5001
    26d4:	0000a714 	andeq	sl, r0, r4, lsl r7
    26d8:	05510118 	ldrbeq	r0, [r1, #-280]	; 0xfffffee8
    26dc:	00a64c03 	adceq	r4, r6, r3, lsl #24
    26e0:	52011800 	andpl	r1, r1, #0, 16
    26e4:	a7a40305 	strge	r0, [r4, r5, lsl #6]!
    26e8:	01180000 	tsteq	r8, r0
    26ec:	be080253 	mcrlt	2, 0, r0, cr8, cr3, {2}
    26f0:	95dc1900 	ldrbls	r1, [ip, #2304]	; 0x900
    26f4:	0c760000 	ldcleq	0, cr0, [r6], #-0
    26f8:	00000000 	andeq	r0, r0, r0
    26fc:	00b90408 	adcseq	r0, r9, r8, lsl #8
    2700:	c0220000 	eorgt	r0, r2, r0
    2704:	80000000 	andhi	r0, r0, r0
    2708:	23000008 	movwcs	r0, #8
    270c:	0000002c 	andeq	r0, r0, ip, lsr #32
    2710:	70090009 	andvc	r0, r9, r9
    2714:	22000008 	andcs	r0, r0, #8, 0
    2718:	000000b9 	strheq	r0, [r0], -r9
    271c:	00000895 	muleq	r0, r5, r8
    2720:	00002c23 	andeq	r2, r0, r3, lsr #24
    2724:	24007f00 	strcs	r7, [r0], #-3840	; 0xfffff100
    2728:	00000621 	andeq	r0, r0, r1, lsr #12
    272c:	6a014901 	bvs	54b38 <__bss_end__+0x49d40>
    2730:	01000008 	tsteq	r0, r8
    2734:	0000092a 	andeq	r0, r0, sl, lsr #18
    2738:	0002f625 	andeq	pc, r2, r5, lsr #12
    273c:	0f490100 	svceq	0x00490100
    2740:	0000002c 	andeq	r0, r0, ip, lsr #32
    2744:	74736426 	ldrbtvc	r6, [r3], #-1062	; 0xfffffbda
    2748:	1b490100 	blne	1242b50 <__bss_end__+0x1237d58>
    274c:	0000086a 	andeq	r0, r0, sl, ror #16
    2750:	01006e26 	tsteq	r0, r6, lsr #28
    2754:	00332449 	eorseq	r2, r3, r9, asr #8
    2758:	76260000 	strtvc	r0, [r6], -r0
    275c:	01006c61 	tsteq	r0, r1, ror #24
    2760:	00332b49 	eorseq	r2, r3, r9, asr #22
    2764:	ca250000 	bgt	94276c <__bss_end__+0x937974>
    2768:	01000005 	tsteq	r0, r5
    276c:	00333449 	eorseq	r3, r3, r9, asr #8
    2770:	57250000 	strpl	r0, [r5, -r0]!
    2774:	01000006 	tsteq	r0, r6
    2778:	00333f49 	eorseq	r3, r3, r9, asr #30
    277c:	62270000 	eorvs	r0, r7, #0, 0
    2780:	01006675 	tsteq	r0, r5, ror r6
    2784:	092a074e 	stmdbeq	sl!, {r1, r2, r3, r6, r8, r9, sl}
    2788:	70270000 	eorvc	r0, r7, r0
    278c:	114e0100 	mrsne	r0, (UNDEF: 94)
    2790:	0000086a 	andeq	r0, r0, sl, ror #16
    2794:	01007527 	tsteq	r0, r7, lsr #10
    2798:	002c0b4f 	eoreq	r0, ip, pc, asr #22
    279c:	6c120000 	ldcvs	0, cr0, [r2], {-0}
    27a0:	4a000000 	bmi	27a8 <__code_start__-0x5858>
    27a4:	05000009 	streq	r0, [r0, #-9]
    27a8:	00a78c03 	adceq	r8, r7, r3, lsl #24
    27ac:	0e292800 	cdpeq	8, 2, cr2, cr9, cr0, {0}
    27b0:	01000006 	tsteq	r0, r6
    27b4:	002c0d54 	eoreq	r0, ip, r4, asr sp
    27b8:	00000000 	andeq	r0, r0, r0
    27bc:	0000b922 	andeq	fp, r0, r2, lsr #18
    27c0:	00093a00 	andeq	r3, r9, r0, lsl #20
    27c4:	002c2300 	eoreq	r2, ip, r0, lsl #6
    27c8:	003f0000 	eorseq	r0, pc, r0
    27cc:	0000c022 	andeq	ip, r0, r2, lsr #32
    27d0:	00094a00 	andeq	r4, r9, r0, lsl #20
    27d4:	002c2300 	eoreq	r2, ip, r0, lsl #6
    27d8:	00040000 	andeq	r0, r4, r0
    27dc:	00093a09 	andeq	r3, r9, r9, lsl #20
    27e0:	06262400 	strteq	r2, [r6], -r0, lsl #8
    27e4:	38010000 	stmdacc	r1, {}	; <UNPREDICTABLE>
    27e8:	00086a0e 	andeq	r6, r8, lr, lsl #20
    27ec:	09a30100 	stmibeq	r3!, {r8}
    27f0:	64260000 	strtvs	r0, [r6], #-0
    27f4:	01007473 	tsteq	r0, r3, ror r4
    27f8:	086a1c38 	stmdaeq	sl!, {r3, r4, r5, sl, fp, ip}^
    27fc:	6e260000 	cdpvs	0, 2, cr0, cr6, cr0, {0}
    2800:	25380100 	ldrcs	r0, [r8, #-256]!	; 0xffffff00
    2804:	00000033 	andeq	r0, r0, r3, lsr r0
    2808:	01007026 	tsteq	r0, r6, lsr #32
    280c:	086a2e38 	stmdaeq	sl!, {r3, r4, r5, r9, sl, fp, sp}^
    2810:	f1250000 			; <UNDEFINED> instruction: 0xf1250000
    2814:	01000009 	tsteq	r0, r9
    2818:	086a3738 	stmdaeq	sl!, {r3, r4, r5, r8, r9, sl, ip, sp}^
    281c:	6c270000 	stcvs	0, cr0, [r7], #-0
    2820:	01006e65 	tsteq	r0, r5, ror #28
    2824:	0033063a 	eorseq	r0, r3, sl, lsr r6
    2828:	73270000 			; <UNDEFINED> instruction: 0x73270000
    282c:	083e0100 	ldmdaeq	lr!, {r8}
    2830:	0000086a 	andeq	r0, r0, sl, ror #16
    2834:	61702a00 	cmnvs	r0, r0, lsl #20
    2838:	2e010064 	cdpcs	0, 0, cr0, cr1, cr4, {3}
    283c:	00086a0e 	andeq	r6, r8, lr, lsl #20
    2840:	09e30100 	stmibeq	r3!, {r8}^
    2844:	70260000 	eorvc	r0, r6, r0
    2848:	182e0100 	stmdane	lr!, {r8}
    284c:	0000086a 	andeq	r0, r0, sl, ror #16
    2850:	0002f625 	andeq	pc, r2, r5, lsr #12
    2854:	222e0100 	eorcs	r0, lr, #0
    2858:	0000086a 	andeq	r0, r0, sl, ror #16
    285c:	0005ca25 	andeq	ip, r5, r5, lsr #20
    2860:	2c2e0100 	stfcss	f0, [lr], #-0
    2864:	00000033 	andeq	r0, r0, r3, lsr r0
    2868:	6e656c27 	cdpvs	12, 6, cr6, cr5, cr7, {1}
    286c:	062f0100 	strteq	r0, [pc], -r0, lsl #2
    2870:	00000033 	andeq	r0, r0, r3, lsr r0
    2874:	05972400 	ldreq	r2, [r7, #1024]	; 0x400
    2878:	27010000 	strcs	r0, [r1, -r0]
    287c:	0000330c 	andeq	r3, r0, ip, lsl #6
    2880:	09ff0100 	ldmibeq	pc!, {r8}^	; <UNPREDICTABLE>
    2884:	63260000 			; <UNDEFINED> instruction: 0x63260000
    2888:	18270100 	stmdane	r7!, {r8}
    288c:	00000033 	andeq	r0, r0, r3, lsr r0
    2890:	05e72b00 	strbeq	r2, [r7, #2816]!	; 0xb00
    2894:	1f010000 	svcne	0x00010000
    2898:	008ff406 	addeq	pc, pc, r6, lsl #8
    289c:	00006000 	andeq	r6, r0, r0
    28a0:	8f9c0100 	svchi	0x009c0100
    28a4:	0f00000a 	svceq	0x0000000a
    28a8:	000005d0 	ldrdeq	r0, [r0], -r0	; <UNPREDICTABLE>
    28ac:	9e1b1f01 	cdpls	15, 1, cr1, cr11, cr1, {0}
    28b0:	23000000 	movwcs	r0, #0
    28b4:	1f000019 	svcne	0x00000019
    28b8:	0f000019 	svceq	0x00000019
    28bc:	00000635 	andeq	r0, r0, r5, lsr r6
    28c0:	d1301f01 	teqle	r0, r1, lsl #30
    28c4:	48000000 	stmdami	r0, {}	; <UNPREDICTABLE>
    28c8:	44000019 	strmi	r0, [r0], #-25	; 0xffffffe7
    28cc:	12000019 	andne	r0, r0, #25, 0
    28d0:	0000006c 	andeq	r0, r0, ip, rrx
    28d4:	00000a9f 	muleq	r0, pc, sl	; <UNPREDICTABLE>
    28d8:	a7940305 	ldrge	r0, [r4, r5, lsl #6]
    28dc:	38170000 	ldmdacc	r7, {}	; <UNPREDICTABLE>
    28e0:	46000090 			; <UNDEFINED> instruction: 0x46000090
    28e4:	8500000c 	strhi	r0, [r0, #-12]
    28e8:	1800000a 	stmdane	r0, {r1, r3}
    28ec:	03055001 	movweq	r5, #20481	; 0x5001
    28f0:	0000a1ac 	andeq	sl, r0, ip, lsr #3
    28f4:	05510118 	ldrbeq	r0, [r1, #-280]	; 0xfffffee8
    28f8:	00a64c03 	adceq	r4, r6, r3, lsl #24
    28fc:	52011800 	andpl	r1, r1, #0, 16
    2900:	a7940305 	ldrge	r0, [r4, r5, lsl #6]
    2904:	01180000 	tsteq	r8, r0
    2908:	20080253 	andcs	r0, r8, r3, asr r2
    290c:	007d0218 	rsbseq	r0, sp, r8, lsl r2
    2910:	a6840305 	strge	r0, [r4], r5, lsl #6
    2914:	19000000 	stmdbne	r0, {}	; <UNPREDICTABLE>
    2918:	0000903c 	andeq	r9, r0, ip, lsr r0
    291c:	00000c76 	andeq	r0, r0, r6, ror ip
    2920:	00c02200 	sbceq	r2, r0, r0, lsl #4
    2924:	0a9f0000 	beq	fe7c292c <__bss_end__+0xfe7b7b34>
    2928:	2c230000 	stccs	0, cr0, [r3], #-0
    292c:	0e000000 	cdpeq	0, 0, cr0, cr0, cr0, {0}
    2930:	0a8f0900 	beq	fe3c4d38 <__bss_end__+0xfe3b9f40>
    2934:	952c0000 	strls	r0, [ip, #-0]!
    2938:	cc000008 	stcgt	0, cr0, [r0], {8}
    293c:	2800008c 	stmdacs	r0, {r2, r3, r7}
    2940:	01000003 	tsteq	r0, r3
    2944:	000c3a9c 	muleq	ip, ip, sl
    2948:	08a61b00 	stmiaeq	r6!, {r8, r9, fp, ip}
    294c:	19810000 	stmibne	r1, {}	; <UNPREDICTABLE>
    2950:	19690000 	stmdbne	r9!, {}^	; <UNPREDICTABLE>
    2954:	b21b0000 	andslt	r0, fp, #0, 0
    2958:	2b000008 	blcs	2980 <__code_start__-0x5680>
    295c:	2300001a 	movwcs	r0, #26
    2960:	1b00001a 	blne	29d0 <__code_start__-0x5630>
    2964:	000008c8 	andeq	r0, r0, r8, asr #17
    2968:	00001a82 	andeq	r1, r0, r2, lsl #21
    296c:	00001a62 	andeq	r1, r0, r2, ror #20
    2970:	0008d41b 	andeq	sp, r8, fp, lsl r4
    2974:	001b5800 	andseq	r5, fp, r0, lsl #16
    2978:	001b4a00 	andseq	r4, fp, r0, lsl #20
    297c:	08e02d00 	stmiaeq	r0!, {r8, sl, fp, sp}^
    2980:	91020000 	mrsls	r0, (UNDEF: 2)
    2984:	08ec1d00 	stmiaeq	ip!, {r8, sl, fp, ip}^
    2988:	91030000 	mrsls	r0, (UNDEF: 3)
    298c:	f81e7fa8 			; <UNDEFINED> instruction: 0xf81e7fa8
    2990:	ec000008 	stc	0, cr0, [r0], {8}
    2994:	b800001b 	stmdalt	r0, {r0, r1, r3, r4}
    2998:	1e00001b 	mcrne	0, 0, r0, cr0, cr11, {0}
    299c:	00000902 	andeq	r0, r0, r2, lsl #18
    29a0:	00001d53 	andeq	r1, r0, r3, asr sp
    29a4:	00001d31 	andeq	r1, r0, r1, lsr sp
    29a8:	0008be2e 	andeq	fp, r8, lr, lsr #28
    29ac:	a31a8000 	tstge	sl, #0, 0
    29b0:	70000009 	andvc	r0, r0, r9
    29b4:	0400008d 	streq	r0, [r0], #-141	; 0xffffff73
    29b8:	00009800 	andeq	r9, r0, r0, lsl #16
    29bc:	097c0100 	ldmdbeq	ip!, {r8}^
    29c0:	00000b6d 	andeq	r0, r0, sp, ror #22
    29c4:	0009ca1b 	andeq	ip, r9, fp, lsl sl
    29c8:	001e3b00 	andseq	r3, lr, r0, lsl #22
    29cc:	001e3100 	andseq	r3, lr, r0, lsl #2
    29d0:	09be1b00 	ldmibeq	lr!, {r8, r9, fp, ip}
    29d4:	1e8f0000 	cdpne	0, 8, cr0, cr15, cr0, {0}
    29d8:	1e7f0000 	cdpne	0, 7, cr0, cr15, cr0, {0}
    29dc:	b41b0000 	ldrlt	r0, [fp], #-0
    29e0:	0f000009 	svceq	0x00000009
    29e4:	fb00001f 	blx	2a6a <__code_start__-0x5596>
    29e8:	1300001e 	movwne	r0, #30
    29ec:	00000098 	muleq	r0, r8, r0
    29f0:	0009d61e 	andeq	sp, r9, lr, lsl r6
    29f4:	001fa100 	andseq	sl, pc, r0, lsl #2
    29f8:	001f9100 	andseq	r9, pc, r0, lsl #2
    29fc:	1a000000 	bne	2a04 <__code_start__-0x55fc>
    2a00:	0000094f 	andeq	r0, r0, pc, asr #18
    2a04:	00008e28 	andeq	r8, r0, r8, lsr #28
    2a08:	00e00002 	rsceq	r0, r0, r2
    2a0c:	7c010000 	stcvc	0, cr0, [r1], {-0}
    2a10:	000bd809 	andeq	sp, fp, r9, lsl #16
    2a14:	09801b00 	stmibeq	r0, {r8, r9, fp, ip}
    2a18:	200d0000 	andcs	r0, sp, r0
    2a1c:	20050000 	andcs	r0, r5, r0
    2a20:	761b0000 	ldrvc	r0, [fp], -r0
    2a24:	4c000009 	stcmi	0, cr0, [r0], {9}
    2a28:	44000020 	strmi	r0, [r0], #-32	; 0xffffffe0
    2a2c:	1b000020 	blne	2ab4 <__code_start__-0x554c>
    2a30:	0000096c 	andeq	r0, r0, ip, ror #18
    2a34:	0000208b 	andeq	r2, r0, fp, lsl #1
    2a38:	00002087 	andeq	r2, r0, r7, lsl #1
    2a3c:	0009601b 	andeq	r6, r9, fp, lsl r0
    2a40:	0020bb00 	eoreq	fp, r0, r0, lsl #22
    2a44:	0020ad00 	eoreq	sl, r0, r0, lsl #26
    2a48:	00e01300 	rsceq	r1, r0, r0, lsl #6
    2a4c:	8c1e0000 	ldchi	0, cr0, [lr], {-0}
    2a50:	20000009 	andcs	r0, r0, r9
    2a54:	1a000021 	bne	2ae0 <__code_start__-0x5520>
    2a58:	1e000021 	cdpne	0, 0, cr0, cr0, cr1, {1}
    2a5c:	00000998 	muleq	r0, r8, r9
    2a60:	00002152 	andeq	r2, r0, r2, asr r1
    2a64:	0000214e 	andeq	r2, r0, lr, asr #2
    2a68:	1b2f0000 	blne	bc2a70 <__bss_end__+0xbb7c78>
    2a6c:	e0000009 	and	r0, r0, r9
    2a70:	6000008e 	andvs	r0, r0, lr, lsl #1
    2a74:	f7000000 			; <UNDEFINED> instruction: 0xf7000000
    2a78:	1e00000b 	cdpne	0, 0, cr0, cr0, cr11, {0}
    2a7c:	0000091c 	andeq	r0, r0, ip, lsl r9
    2a80:	00002174 	andeq	r2, r0, r4, ror r1
    2a84:	00002170 	andeq	r2, r0, r0, ror r1
    2a88:	8fb41700 	svchi	0x00b41700
    2a8c:	0c460000 	mareq	acc0, r0, r6
    2a90:	0c300000 	ldceq	0, cr0, [r0], #-0
    2a94:	01180000 	tsteq	r8, r0
    2a98:	ac030550 	cfstr32ge	mvfx0, [r3], {80}	; 0x50
    2a9c:	180000a1 	stmdane	r0, {r0, r5, r7}
    2aa0:	03055101 	movweq	r5, #20737	; 0x5101
    2aa4:	0000a64c 	andeq	sl, r0, ip, asr #12
    2aa8:	05520118 	ldrbeq	r0, [r2, #-280]	; 0xfffffee8
    2aac:	00a78c03 	adceq	r8, r7, r3, lsl #24
    2ab0:	53011800 	movwpl	r1, #6144	; 0x1800
    2ab4:	18790802 	ldmdane	r9!, {r1, fp}^
    2ab8:	05007d02 	streq	r7, [r0, #-3330]	; 0xfffff2fe
    2abc:	00a51c03 	adceq	r1, r5, r3, lsl #24
    2ac0:	b8190000 	ldmdalt	r9, {}	; <UNPREDICTABLE>
    2ac4:	7600008f 	strvc	r0, [r0], -pc, lsl #1
    2ac8:	0000000c 	andeq	r0, r0, ip
    2acc:	00064f30 	andeq	r4, r6, r0, lsr pc
    2ad0:	00064f00 	andeq	r4, r6, r0, lsl #30
    2ad4:	05eb0300 	strbeq	r0, [fp, #768]!	; 0x300
    2ad8:	00054630 	andeq	r4, r5, r0, lsr r6
    2adc:	00054600 	andeq	r4, r5, r0, lsl #12
    2ae0:	06280300 	strteq	r0, [r8], -r0, lsl #6
    2ae4:	00060030 	andeq	r0, r6, r0, lsr r0
    2ae8:	00060000 	andeq	r0, r6, r0
    2aec:	07ee0300 	strbeq	r0, [lr, r0, lsl #6]!
    2af0:	00062e30 	andeq	r2, r6, r0, lsr lr
    2af4:	00062e00 	andeq	r2, r6, r0, lsl #28
    2af8:	05ea0300 	strbeq	r0, [sl, #768]!	; 0x300
    2afc:	00060730 	andeq	r0, r6, r0, lsr r7
    2b00:	00060700 	andeq	r0, r6, r0, lsl #14
    2b04:	07ed0300 	strbeq	r0, [sp, r0, lsl #6]!
    2b08:	00004030 	andeq	r4, r0, r0, lsr r0
    2b0c:	00004000 	andeq	r4, r0, r0
    2b10:	066e0300 	strbteq	r0, [lr], -r0, lsl #6
    2b14:	00012f00 	andeq	r2, r1, r0, lsl #30
    2b18:	e2000400 	and	r0, r0, #0, 8
    2b1c:	0400000d 	streq	r0, [r0], #-13
    2b20:	00046401 	andeq	r6, r4, r1, lsl #8
    2b24:	06740c00 	ldrbteq	r0, [r4], -r0, lsl #24
    2b28:	051c0000 	ldreq	r0, [ip, #-0]
    2b2c:	96800000 	strls	r0, [r0], r0
    2b30:	002c0000 	eoreq	r0, ip, r0
    2b34:	17b10000 	ldrne	r0, [r1, r0]!
    2b38:	04020000 	streq	r0, [r2], #-0
    2b3c:	746e6905 	strbtvc	r6, [lr], #-2309	; 0xfffff6fb
    2b40:	07040300 	streq	r0, [r4, -r0, lsl #6]
    2b44:	00000090 	muleq	r0, r0, r0
    2b48:	34060103 	strcc	r0, [r6], #-259	; 0xfffffefd
    2b4c:	03000000 	movweq	r0, #0
    2b50:	00f10502 	rscseq	r0, r1, r2, lsl #10
    2b54:	04030000 	streq	r0, [r3], #-0
    2b58:	0000b605 	andeq	fp, r0, r5, lsl #12
    2b5c:	05080300 	streq	r0, [r8, #-768]	; 0xfffffd00
    2b60:	000000b1 	strheq	r0, [r0], -r1
    2b64:	32080103 	andcc	r0, r8, #-1073741824	; 0xc0000000
    2b68:	03000000 	movweq	r0, #0
    2b6c:	004d0702 	subeq	r0, sp, r2, lsl #14
    2b70:	04030000 	streq	r0, [r3], #-0
    2b74:	00008b07 	andeq	r8, r0, r7, lsl #22
    2b78:	07080300 	streq	r0, [r8, -r0, lsl #6]
    2b7c:	00000086 	andeq	r0, r0, r6, lsl #1
    2b80:	00002504 	andeq	r2, r0, r4, lsl #10
    2b84:	00007a00 	andeq	r7, r0, r0, lsl #20
    2b88:	00250500 	eoreq	r0, r5, r0, lsl #10
    2b8c:	06000000 	streq	r0, [r0], -r0
    2b90:	00000105 	andeq	r0, r0, r5, lsl #2
    2b94:	860e1c02 	strhi	r1, [lr], -r2, lsl #24
    2b98:	07000000 	streq	r0, [r0, -r0]
    2b9c:	00006b04 	andeq	r6, r0, r4, lsl #22
    2ba0:	00250400 	eoreq	r0, r5, r0, lsl #8
    2ba4:	009b0000 	addseq	r0, fp, r0
    2ba8:	9b050000 	blls	142bb0 <__bss_end__+0x137db8>
    2bac:	00000000 	andeq	r0, r0, r0
    2bb0:	00a80407 	adceq	r0, r8, r7, lsl #8
    2bb4:	01030000 	mrseq	r0, (UNDEF: 3)
    2bb8:	00003b08 	andeq	r3, r0, r8, lsl #22
    2bbc:	00a10800 	adceq	r0, r1, r0, lsl #16
    2bc0:	84060000 	strhi	r0, [r6], #-0
    2bc4:	02000005 	andeq	r0, r0, #5, 0
    2bc8:	00b90e21 	adcseq	r0, r9, r1, lsr #28
    2bcc:	04070000 	streq	r0, [r7], #-0
    2bd0:	0000008c 	andeq	r0, r0, ip, lsl #1
    2bd4:	00004009 	andeq	r4, r0, r9
    2bd8:	06040100 	streq	r0, [r4], -r0, lsl #2
    2bdc:	00009680 	andeq	r9, r0, r0, lsl #13
    2be0:	0000002c 	andeq	r0, r0, ip, lsr #32
    2be4:	010e9c01 	tsteq	lr, r1, lsl #24
    2be8:	940a0000 	strls	r0, [sl], #-0
    2bec:	e8000096 	stmda	r0, {r1, r2, r4, r7}
    2bf0:	0b000000 	bleq	2bf8 <__code_start__-0x5408>
    2bf4:	03055001 	movweq	r5, #20481	; 0x5001
    2bf8:	0000a7b0 			; <UNDEFINED> instruction: 0x0000a7b0
    2bfc:	96980c00 	ldrls	r0, [r8], r0, lsl #24
    2c00:	010e0000 	mrseq	r0, (UNDEF: 14)
    2c04:	a00d0000 	andge	r0, sp, r0
    2c08:	1a000096 	bne	2e68 <__code_start__-0x5198>
    2c0c:	04000001 	streq	r0, [r0], #-1
    2c10:	0b000001 	bleq	2c1c <__code_start__-0x53e4>
    2c14:	3a015001 	bcc	56c20 <__bss_end__+0x4be28>
    2c18:	96a40c00 	strtls	r0, [r4], r0, lsl #24
    2c1c:	01260000 			; <UNDEFINED> instruction: 0x01260000
    2c20:	0e000000 	cdpeq	0, 0, cr0, cr0, cr0, {0}
    2c24:	0000068f 	andeq	r0, r0, pc, lsl #13
    2c28:	0000068f 	andeq	r0, r0, pc, lsl #13
    2c2c:	0e064d02 	cdpeq	13, 0, cr4, cr6, cr2, {0}
    2c30:	0000066b 	andeq	r0, r0, fp, ror #12
    2c34:	0000066b 	andeq	r0, r0, fp, ror #12
    2c38:	0e065802 	cdpeq	8, 0, cr5, cr6, cr2, {0}
    2c3c:	00000660 	andeq	r0, r0, r0, ror #12
    2c40:	00000660 	andeq	r0, r0, r0, ror #12
    2c44:	00066b02 	andeq	r6, r6, r2, lsl #22
    2c48:	00000190 	muleq	r0, r0, r1
    2c4c:	0ea20004 	cdpeq	0, 10, cr0, cr2, cr4, {0}
    2c50:	01040000 	mrseq	r0, (UNDEF: 4)
    2c54:	00000464 	andeq	r0, r0, r4, ror #8
    2c58:	0006c50c 	andeq	ip, r6, ip, lsl #10
    2c5c:	00051c00 	andeq	r1, r5, r0, lsl #24
    2c60:	0096ac00 	addseq	sl, r6, r0, lsl #24
    2c64:	0000f800 	andeq	pc, r0, r0, lsl #16
    2c68:	00183c00 	andseq	r3, r8, r0, lsl #24
    2c6c:	05040200 	streq	r0, [r4, #-512]	; 0xfffffe00
    2c70:	00746e69 	rsbseq	r6, r4, r9, ror #28
    2c74:	90070403 	andls	r0, r7, r3, lsl #8
    2c78:	03000000 	movweq	r0, #0
    2c7c:	00340601 	eorseq	r0, r4, r1, lsl #12
    2c80:	02030000 	andeq	r0, r3, #0, 0
    2c84:	0000f105 	andeq	pc, r0, r5, lsl #2
    2c88:	05040300 	streq	r0, [r4, #-768]	; 0xfffffd00
    2c8c:	000000b6 	strheq	r0, [r0], -r6
    2c90:	b1050803 	tstlt	r5, r3, lsl #16
    2c94:	03000000 	movweq	r0, #0
    2c98:	00320801 	eorseq	r0, r2, r1, lsl #16
    2c9c:	02030000 	andeq	r0, r3, #0, 0
    2ca0:	00004d07 	andeq	r4, r0, r7, lsl #26
    2ca4:	07040300 	streq	r0, [r4, -r0, lsl #6]
    2ca8:	0000008b 	andeq	r0, r0, fp, lsl #1
    2cac:	86070803 	strhi	r0, [r7], -r3, lsl #16
    2cb0:	04000000 	streq	r0, [r0], #-0
    2cb4:	00000025 	andeq	r0, r0, r5, lsr #32
    2cb8:	0000007a 	andeq	r0, r0, sl, ror r0
    2cbc:	00002505 	andeq	r2, r0, r5, lsl #10
    2cc0:	05060000 	streq	r0, [r6, #-0]
    2cc4:	02000001 	andeq	r0, r0, #1, 0
    2cc8:	00860e1c 	addeq	r0, r6, ip, lsl lr
    2ccc:	04070000 	streq	r0, [r7], #-0
    2cd0:	0000006b 	andeq	r0, r0, fp, rrx
    2cd4:	00002504 	andeq	r2, r0, r4, lsl #10
    2cd8:	00009b00 	andeq	r9, r0, r0, lsl #22
    2cdc:	009b0500 	addseq	r0, fp, r0, lsl #10
    2ce0:	07000000 	streq	r0, [r0, -r0]
    2ce4:	0000a804 	andeq	sl, r0, r4, lsl #16
    2ce8:	08010300 	stmdaeq	r1, {r8, r9}
    2cec:	0000003b 	andeq	r0, r0, fp, lsr r0
    2cf0:	0000a108 	andeq	sl, r0, r8, lsl #2
    2cf4:	05840600 	streq	r0, [r4, #1536]	; 0x600
    2cf8:	21020000 	mrscs	r0, (UNDEF: 2)
    2cfc:	0000b90e 	andeq	fp, r0, lr, lsl #18
    2d00:	8c040700 	stchi	7, cr0, [r4], {-0}
    2d04:	09000000 	stmdbeq	r0, {}	; <UNPREDICTABLE>
    2d08:	0000069d 	muleq	r0, sp, r6
    2d0c:	ac060401 	cfstrsge	mvf0, [r6], {1}
    2d10:	f8000096 			; <UNDEFINED> instruction: 0xf8000096
    2d14:	01000000 	mrseq	r0, (UNDEF: 0)
    2d18:	00015b9c 	muleq	r1, ip, fp
    2d1c:	03370600 	teqeq	r7, #0, 12
    2d20:	05010000 	streq	r0, [r1, #-0]
    2d24:	00002510 	andeq	r2, r0, r0, lsl r5
    2d28:	03e90600 	mvneq	r0, #0, 12
    2d2c:	05010000 	streq	r0, [r1, #-0]
    2d30:	0000251f 	andeq	r2, r0, pc, lsl r5
    2d34:	00170a00 	andseq	r0, r7, r0, lsl #20
    2d38:	06010000 	streq	r0, [r1], -r0
    2d3c:	73620b07 	cmnvc	r2, #7168	; 0x1c00
    2d40:	0a010073 	beq	42f14 <__bss_end__+0x3811c>
    2d44:	00015b0a 	andeq	r5, r1, sl, lsl #22
    2d48:	0021ac00 	eoreq	sl, r1, r0, lsl #24
    2d4c:	00219400 	eoreq	r9, r1, r0, lsl #8
    2d50:	06a50c00 	strteq	r0, [r5], r0, lsl #24
    2d54:	0b010000 	bleq	42d5c <__bss_end__+0x37f64>
    2d58:	00015b0a 	andeq	r5, r1, sl, lsl #22
    2d5c:	97840d00 	strls	r0, [r4, r0, lsl #26]
    2d60:	00080000 	andeq	r0, r8, r0
    2d64:	01360000 	teqeq	r6, r0
    2d68:	690b0000 	stmdbvs	fp, {}	; <UNPREDICTABLE>
    2d6c:	1401006e 	strne	r0, [r1], #-110	; 0xffffff92
    2d70:	00002c05 	andeq	r2, r0, r5, lsl #24
    2d74:	00224600 	eoreq	r4, r2, r0, lsl #12
    2d78:	00224400 	eoreq	r4, r2, r0, lsl #8
    2d7c:	b40e0000 	strlt	r0, [lr], #-0
    2d80:	61000096 	swpvs	r0, r6, [r0]	; <UNPREDICTABLE>
    2d84:	0e000001 	cdpeq	0, 0, cr0, cr0, cr1, {0}
    2d88:	00009784 	andeq	r9, r0, r4, lsl #15
    2d8c:	0000016e 	andeq	r0, r0, lr, ror #2
    2d90:	0097900e 	addseq	r9, r7, lr
    2d94:	00017a00 	andeq	r7, r1, r0, lsl #20
    2d98:	97940e00 	ldrls	r0, [r4, r0, lsl #28]
    2d9c:	01870000 	orreq	r0, r7, r0
    2da0:	07000000 	streq	r0, [r0, -r0]
    2da4:	00002504 	andeq	r2, r0, r4, lsl #10
    2da8:	06b70f00 	ldrteq	r0, [r7], r0, lsl #30
    2dac:	06b70000 	ldrteq	r0, [r7], r0
    2db0:	31020000 	mrscc	r0, (UNDEF: 2)
    2db4:	ad100601 	ldcge	6, cr0, [r0, #-4]
    2db8:	ad000006 	stcge	0, cr0, [r0, #-24]	; 0xffffffe8
    2dbc:	02000006 	andeq	r0, r0, #6, 0
    2dc0:	170f063b 	smladxne	pc, fp, r6, r0	; <UNPREDICTABLE>
    2dc4:	17000000 	strne	r0, [r0, -r0]
    2dc8:	02000000 	andeq	r0, r0, #0, 0
    2dcc:	10060105 	andne	r0, r6, r5, lsl #2
    2dd0:	00000040 	andeq	r0, r0, r0, asr #32
    2dd4:	00000040 	andeq	r0, r0, r0, asr #32
    2dd8:	00066e02 	andeq	r6, r6, r2, lsl #28
    2ddc:	000000ce 	andeq	r0, r0, lr, asr #1
    2de0:	0f8d0004 	svceq	0x008d0004
    2de4:	01040000 	mrseq	r0, (UNDEF: 4)
    2de8:	00000464 	andeq	r0, r0, r4, ror #8
    2dec:	0006da0c 	andeq	sp, r6, ip, lsl #20
    2df0:	00051c00 	andeq	r1, r5, r0, lsl #24
    2df4:	0097a400 	addseq	sl, r7, r0, lsl #8
    2df8:	00000400 	andeq	r0, r0, r0, lsl #8
    2dfc:	00195200 	andseq	r5, r9, r0, lsl #4
    2e00:	05040200 	streq	r0, [r4, #-512]	; 0xfffffe00
    2e04:	00746e69 	rsbseq	r6, r4, r9, ror #28
    2e08:	90070403 	andls	r0, r7, r3, lsl #8
    2e0c:	03000000 	movweq	r0, #0
    2e10:	00340601 	eorseq	r0, r4, r1, lsl #12
    2e14:	02030000 	andeq	r0, r3, #0, 0
    2e18:	0000f105 	andeq	pc, r0, r5, lsl #2
    2e1c:	05040300 	streq	r0, [r4, #-768]	; 0xfffffd00
    2e20:	000000b6 	strheq	r0, [r0], -r6
    2e24:	b1050803 	tstlt	r5, r3, lsl #16
    2e28:	03000000 	movweq	r0, #0
    2e2c:	00320801 	eorseq	r0, r2, r1, lsl #16
    2e30:	02030000 	andeq	r0, r3, #0, 0
    2e34:	00004d07 	andeq	r4, r0, r7, lsl #26
    2e38:	07040300 	streq	r0, [r4, -r0, lsl #6]
    2e3c:	0000008b 	andeq	r0, r0, fp, lsl #1
    2e40:	86070803 	strhi	r0, [r7], -r3, lsl #16
    2e44:	04000000 	streq	r0, [r0], #-0
    2e48:	00000025 	andeq	r0, r0, r5, lsr #32
    2e4c:	0000007a 	andeq	r0, r0, sl, ror r0
    2e50:	00002505 	andeq	r2, r0, r5, lsl #10
    2e54:	05060000 	streq	r0, [r6, #-0]
    2e58:	02000001 	andeq	r0, r0, #1, 0
    2e5c:	00860e1c 	addeq	r0, r6, ip, lsl lr
    2e60:	04070000 	streq	r0, [r7], #-0
    2e64:	0000006b 	andeq	r0, r0, fp, rrx
    2e68:	00002504 	andeq	r2, r0, r4, lsl #10
    2e6c:	00009b00 	andeq	r9, r0, r0, lsl #22
    2e70:	009b0500 	addseq	r0, fp, r0, lsl #10
    2e74:	07000000 	streq	r0, [r0, -r0]
    2e78:	0000a804 	andeq	sl, r0, r4, lsl #16
    2e7c:	08010300 	stmdaeq	r1, {r8, r9}
    2e80:	0000003b 	andeq	r0, r0, fp, lsr r0
    2e84:	0000a108 	andeq	sl, r0, r8, lsl #2
    2e88:	05840600 	streq	r0, [r4, #1536]	; 0x600
    2e8c:	21020000 	mrscs	r0, (UNDEF: 2)
    2e90:	0000b90e 	andeq	fp, r0, lr, lsl #18
    2e94:	8c040700 	stchi	7, cr0, [r4], {-0}
    2e98:	09000000 	stmdbeq	r0, {}	; <UNPREDICTABLE>
    2e9c:	000006b7 			; <UNDEFINED> instruction: 0x000006b7
    2ea0:	a4060401 	strge	r0, [r6], #-1025	; 0xfffffbff
    2ea4:	04000097 	streq	r0, [r0], #-151	; 0xffffff69
    2ea8:	01000000 	mrseq	r0, (UNDEF: 0)
    2eac:	027d009c 	rsbseq	r0, sp, #156, 0	; 0x9c
    2eb0:	00040000 	andeq	r0, r4, r0
    2eb4:	00001006 	andeq	r1, r0, r6
    2eb8:	04640104 	strbteq	r0, [r4], #-260	; 0xfffffefc
    2ebc:	220c0000 	andcs	r0, ip, #0, 0
    2ec0:	1c000007 	stcne	0, cr0, [r0], {7}
    2ec4:	88000005 	stmdahi	r0, {r0, r2}
    2ec8:	00000002 	andeq	r0, r0, r2
    2ecc:	d3000000 	movwle	r0, #0
    2ed0:	02000019 	andeq	r0, r0, #25, 0
    2ed4:	6e690504 	cdpvs	5, 6, cr0, cr9, cr4, {0}
    2ed8:	25030074 	strcs	r0, [r3, #-116]	; 0xffffff8c
    2edc:	04000000 	streq	r0, [r0], #-0
    2ee0:	00900704 	addseq	r0, r0, r4, lsl #14
    2ee4:	01040000 	mrseq	r0, (UNDEF: 4)
    2ee8:	00003406 	andeq	r3, r0, r6, lsl #8
    2eec:	05020400 	streq	r0, [r2, #-1024]	; 0xfffffc00
    2ef0:	000000f1 	strdeq	r0, [r0], -r1
    2ef4:	b6050404 	strlt	r0, [r5], -r4, lsl #8
    2ef8:	04000000 	streq	r0, [r0], #-0
    2efc:	00b10508 	adcseq	r0, r1, r8, lsl #10
    2f00:	01040000 	mrseq	r0, (UNDEF: 4)
    2f04:	00003208 	andeq	r3, r0, r8, lsl #4
    2f08:	07020400 	streq	r0, [r2, -r0, lsl #8]
    2f0c:	0000004d 	andeq	r0, r0, sp, asr #32
    2f10:	8b070404 	blhi	1c3f28 <__bss_end__+0x1b9130>
    2f14:	04000000 	streq	r0, [r0], #-0
    2f18:	00860708 	addeq	r0, r6, r8, lsl #14
    2f1c:	25050000 	strcs	r0, [r5, #-0]
    2f20:	7f000000 	svcvc	0x00000000
    2f24:	06000000 	streq	r0, [r0], -r0
    2f28:	00000025 	andeq	r0, r0, r5, lsr #32
    2f2c:	01050700 	tsteq	r5, r0, lsl #14
    2f30:	1c020000 	stcne	0, cr0, [r2], {-0}
    2f34:	00008b0e 	andeq	r8, r0, lr, lsl #22
    2f38:	70040800 	andvc	r0, r4, r0, lsl #16
    2f3c:	05000000 	streq	r0, [r0, #-0]
    2f40:	00000025 	andeq	r0, r0, r5, lsr #32
    2f44:	000000a0 	andeq	r0, r0, r0, lsr #1
    2f48:	0000a006 	andeq	sl, r0, r6
    2f4c:	04080000 	streq	r0, [r8], #-0
    2f50:	000000ad 	andeq	r0, r0, sp, lsr #1
    2f54:	3b080104 	blcc	20336c <__bss_end__+0x1f8574>
    2f58:	03000000 	movweq	r0, #0
    2f5c:	000000a6 	andeq	r0, r0, r6, lsr #1
    2f60:	00058407 	andeq	r8, r5, r7, lsl #8
    2f64:	0e210200 	cdpeq	2, 2, cr0, cr1, cr0, {0}
    2f68:	000000be 	strheq	r0, [r0], -lr
    2f6c:	00910408 	addseq	r0, r1, r8, lsl #8
    2f70:	46090000 	strmi	r0, [r9], -r0
    2f74:	01000007 	tsteq	r0, r7
    2f78:	0031110d 	eorseq	r1, r1, sp, lsl #2
    2f7c:	600a0000 	andvs	r0, sl, r0
    2f80:	01000006 	tsteq	r0, r6
    2f84:	97d4061f 	bfcls	r0, #12, #9
    2f88:	00600000 	rsbeq	r0, r0, r0
    2f8c:	9c010000 	stcls	0, cr0, [r1], {-0}
    2f90:	000001d5 	ldrdeq	r0, [r0], -r5
    2f94:	00076a0b 	andeq	r6, r7, fp, lsl #20
    2f98:	0f2c0100 	svceq	0x002c0100
    2f9c:	0000002c 	andeq	r0, r0, ip, lsr #32
    2fa0:	2010001c 	andscs	r0, r0, ip, lsl r0
    2fa4:	0007050b 	andeq	r0, r7, fp, lsl #10
    2fa8:	0f2d0100 	svceq	0x002d0100
    2fac:	0000002c 	andeq	r0, r0, ip, lsr #32
    2fb0:	20100024 	andscs	r0, r0, r4, lsr #32
    2fb4:	0007370b 	andeq	r3, r7, fp, lsl #14
    2fb8:	0f2e0100 	svceq	0x002e0100
    2fbc:	0000002c 	andeq	r0, r0, ip, lsr #32
    2fc0:	5a000000 	bpl	2fc8 <__code_start__-0x5038>
    2fc4:	0007510c 	andeq	r5, r7, ip, lsl #2
    2fc8:	0f2f0100 	svceq	0x002f0100
    2fcc:	0000002c 	andeq	r0, r0, ip, lsr #32
    2fd0:	01ef0d20 	mvneq	r0, r0, lsr #26
    2fd4:	97d40000 	ldrbls	r0, [r4, r0]
    2fd8:	70020000 	andvc	r0, r2, r0
    2fdc:	01000002 	tsteq	r0, r2
    2fe0:	014c0820 	cmpeq	ip, r0, lsr #16
    2fe4:	700e0000 	andvc	r0, lr, r0
    2fe8:	0f000002 	svceq	0x00000002
    2fec:	00000200 	andeq	r0, r0, r0, lsl #4
    2ff0:	0000225e 	andeq	r2, r0, lr, asr r2
    2ff4:	0000225a 	andeq	r2, r0, sl, asr r2
    2ff8:	d5100000 	ldrle	r0, [r0, #-0]
    2ffc:	e8000001 	stmda	r0, {r0}
    3000:	01000097 	swpeq	r0, r7, [r0]	; <UNPREDICTABLE>
    3004:	000097e8 	andeq	r9, r0, r8, ror #15
    3008:	00000010 	andeq	r0, r0, r0, lsl r0
    300c:	73092101 	movwvc	r2, #37121	; 0x9101
    3010:	0f000001 	svceq	0x00000001
    3014:	000001e2 	andeq	r0, r0, r2, ror #3
    3018:	00002285 	andeq	r2, r0, r5, lsl #5
    301c:	0000227d 	andeq	r2, r0, sp, ror r2
    3020:	97fc1100 	ldrbls	r1, [ip, r0, lsl #2]!
    3024:	024f0000 	subeq	r0, pc, #0, 0
    3028:	00110000 	andseq	r0, r1, r0
    302c:	5c000098 	stcpl	0, cr0, [r0], {152}	; 0x98
    3030:	12000002 	andne	r0, r0, #2, 0
    3034:	00009808 	andeq	r9, r0, r8, lsl #16
    3038:	00000268 	andeq	r0, r0, r8, ror #4
    303c:	00000198 	muleq	r0, r8, r1
    3040:	01500113 	cmpeq	r0, r3, lsl r1
    3044:	1412003a 	ldrne	r0, [r2], #-58	; 0xffffffc6
    3048:	74000098 	strvc	r0, [r0], #-152	; 0xffffff68
    304c:	b8000002 	stmdalt	r0, {r1}
    3050:	13000001 	movwne	r0, #1
    3054:	0c055001 	stceq	0, cr5, [r5], {1}
    3058:	20100024 	andscs	r0, r0, r4, lsr #32
    305c:	05510113 	ldrbeq	r0, [r1, #-275]	; 0xfffffeed
    3060:	0000010c 	andeq	r0, r0, ip, lsl #2
    3064:	2014005a 	andscs	r0, r4, sl, asr r0
    3068:	74000098 	strvc	r0, [r0], #-152	; 0xffffff68
    306c:	13000002 	movwne	r0, #2
    3070:	0c055001 	stceq	0, cr5, [r5], {1}
    3074:	2010001c 	andscs	r0, r0, ip, lsl r0
    3078:	05510113 	ldrbeq	r0, [r1, #-275]	; 0xfffffeed
    307c:	0000200c 	andeq	r2, r0, ip
    3080:	1500005a 	strne	r0, [r0, #-90]	; 0xffffffa6
    3084:	00000713 	andeq	r0, r0, r3, lsl r7
    3088:	01061701 	tsteq	r6, r1, lsl #14
    308c:	000001ef 	andeq	r0, r0, pc, ror #3
    3090:	00077209 	andeq	r7, r7, r9, lsl #4
    3094:	0e180100 	mufeqe	f0, f0, f0
    3098:	00000031 	andeq	r0, r0, r1, lsr r0
    309c:	07431600 	strbeq	r1, [r3, -r0, lsl #12]
    30a0:	0e010000 	cdpeq	0, 0, cr0, cr1, cr0, {0}
    30a4:	00002505 	andeq	r2, r0, r5, lsl #10
    30a8:	020d0100 	andeq	r0, sp, #0
    30ac:	72090000 	andvc	r0, r9, #0, 0
    30b0:	01000007 	tsteq	r0, r7
    30b4:	00310e0f 	eorseq	r0, r1, pc, lsl #28
    30b8:	17000000 	strne	r0, [r0, -r0]
    30bc:	000001ef 	andeq	r0, r0, pc, ror #3
    30c0:	000097a8 	andeq	r9, r0, r8, lsr #15
    30c4:	00000018 	andeq	r0, r0, r8, lsl r0
    30c8:	022e9c01 	eoreq	r9, lr, #256	; 0x100
    30cc:	000f0000 	andeq	r0, pc, r0
    30d0:	c2000002 	andgt	r0, r0, #2, 0
    30d4:	be000022 	cdplt	0, 0, cr0, cr0, cr2, {1}
    30d8:	00000022 	andeq	r0, r0, r2, lsr #32
    30dc:	0001d517 	andeq	sp, r1, r7, lsl r5
    30e0:	0097c000 	addseq	ip, r7, r0
    30e4:	00001400 	andeq	r1, r0, r0, lsl #8
    30e8:	4f9c0100 	svcmi	0x009c0100
    30ec:	0f000002 	svceq	0x00000002
    30f0:	000001e2 	andeq	r0, r0, r2, ror #3
    30f4:	000022e9 	andeq	r2, r0, r9, ror #5
    30f8:	000022e1 	andeq	r2, r0, r1, ror #5
    30fc:	06f61800 	ldrbteq	r1, [r6], r0, lsl #16
    3100:	06f60000 	ldrbteq	r0, [r6], r0
    3104:	36020000 	strcc	r0, [r2], -r0
    3108:	8f190601 	svchi	0x00190601
    310c:	8f000006 	svchi	0x00000006
    3110:	02000006 	andeq	r0, r0, #6, 0
    3114:	6b19064d 	blvs	644a50 <__bss_end__+0x639c58>
    3118:	6b000006 	blvs	3138 <__code_start__-0x4ec8>
    311c:	02000006 	andeq	r0, r0, #6, 0
    3120:	0d190658 	ldceq	6, cr0, [r9, #-352]	; 0xfffffea0
    3124:	0d000007 	stceq	0, cr0, [r0, #-28]	; 0xffffffe4
    3128:	02000007 	andeq	r0, r0, #7, 0
    312c:	3f0006ad 	svccc	0x000006ad
    3130:	04000005 	streq	r0, [r0], #-5
    3134:	00118900 	andseq	r8, r1, r0, lsl #18
    3138:	64010400 	strvs	r0, [r1], #-1024	; 0xfffffc00
    313c:	0c000004 	stceq	0, cr0, [r0], {4}
    3140:	0000078d 	andeq	r0, r0, sp, lsl #15
    3144:	0000051c 	andeq	r0, r0, ip, lsl r5
    3148:	00009834 	andeq	r9, r0, r4, lsr r8
    314c:	0000011c 	andeq	r0, r0, ip, lsl r1
    3150:	00001aeb 	andeq	r1, r0, fp, ror #21
    3154:	69050402 	stmdbvs	r5, {r1, sl}
    3158:	0300746e 	movweq	r7, #1134	; 0x46e
    315c:	00900704 	addseq	r0, r0, r4, lsl #14
    3160:	01030000 	mrseq	r0, (UNDEF: 3)
    3164:	00003406 	andeq	r3, r0, r6, lsl #8
    3168:	05020300 	streq	r0, [r2, #-768]	; 0xfffffd00
    316c:	000000f1 	strdeq	r0, [r0], -r1
    3170:	b6050403 	strlt	r0, [r5], -r3, lsl #8
    3174:	03000000 	movweq	r0, #0
    3178:	00b10508 	adcseq	r0, r1, r8, lsl #10
    317c:	01030000 	mrseq	r0, (UNDEF: 3)
    3180:	00003208 	andeq	r3, r0, r8, lsl #4
    3184:	07020300 	streq	r0, [r2, -r0, lsl #6]
    3188:	0000004d 	andeq	r0, r0, sp, asr #32
    318c:	8b070403 	blhi	1c41a0 <__bss_end__+0x1b93a8>
    3190:	03000000 	movweq	r0, #0
    3194:	00860708 	addeq	r0, r6, r8, lsl #14
    3198:	25040000 	strcs	r0, [r4, #-0]
    319c:	7a000000 	bvc	31a4 <__code_start__-0x4e5c>
    31a0:	05000000 	streq	r0, [r0, #-0]
    31a4:	00000025 	andeq	r0, r0, r5, lsr #32
    31a8:	01050600 	tsteq	r5, r0, lsl #12
    31ac:	1c020000 	stcne	0, cr0, [r2], {-0}
    31b0:	0000860e 	andeq	r8, r0, lr, lsl #12
    31b4:	6b040700 	blvs	104dbc <__bss_end__+0xf9fc4>
    31b8:	04000000 	streq	r0, [r0], #-0
    31bc:	00000025 	andeq	r0, r0, r5, lsr #32
    31c0:	0000009b 	muleq	r0, fp, r0
    31c4:	00009b05 	andeq	r9, r0, r5, lsl #22
    31c8:	04070000 	streq	r0, [r7], #-0
    31cc:	000000a8 	andeq	r0, r0, r8, lsr #1
    31d0:	3b080103 	blcc	2035e4 <__bss_end__+0x1f87ec>
    31d4:	08000000 	stmdaeq	r0, {}	; <UNPREDICTABLE>
    31d8:	000000a1 	andeq	r0, r0, r1, lsr #1
    31dc:	00058406 	andeq	r8, r5, r6, lsl #8
    31e0:	0e210200 	cdpeq	2, 2, cr0, cr1, cr0, {0}
    31e4:	000000b9 	strheq	r0, [r0], -r9
    31e8:	008c0407 	addeq	r0, ip, r7, lsl #8
    31ec:	83090000 	movwhi	r0, #36864	; 0x9000
    31f0:	01000007 	tsteq	r0, r7
    31f4:	98fc061e 	ldmls	ip!, {r1, r2, r3, r4, r9, sl}^
    31f8:	00540000 	subseq	r0, r4, r0
    31fc:	9c010000 	stcls	0, cr0, [r1], {-0}
    3200:	0000020b 	andeq	r0, r0, fp, lsl #4
    3204:	6365730a 	cmnvs	r5, #671088640	; 0x28000000
    3208:	191e0100 	ldmdbne	lr, {r8}
    320c:	0000002c 	andeq	r0, r0, ip, lsr #32
    3210:	00002326 	andeq	r2, r0, r6, lsr #6
    3214:	00002322 	andeq	r2, r0, r2, lsr #6
    3218:	00020b0b 	andeq	r0, r2, fp, lsl #22
    321c:	0098fc00 	addseq	pc, r8, r0, lsl #24
    3220:	03500200 	cmpeq	r0, #0, 4
    3224:	1f010000 	svcne	0x00010000
    3228:	02180c05 	andseq	r0, r8, #1280	; 0x500
    322c:	234b0000 	movtcs	r0, #45056	; 0xb000
    3230:	23470000 	movtcs	r0, #28672	; 0x7000
    3234:	240d0000 	strcs	r0, [sp], #-0
    3238:	10000002 	andne	r0, r0, r2
    323c:	00000099 	muleq	r0, r9, r0
    3240:	00009910 	andeq	r9, r0, r0, lsl r9
    3244:	00000040 	andeq	r0, r0, r0, asr #32
    3248:	0c051c01 	stceq	12, cr1, [r5], {1}
    324c:	00000231 	andeq	r0, r0, r1, lsr r2
    3250:	00002378 	andeq	r2, r0, r8, ror r3
    3254:	00002376 	andeq	r2, r0, r6, ror r3
    3258:	00023c0e 	andeq	r3, r2, lr, lsl #24
    325c:	00238d00 	eoreq	r8, r3, r0, lsl #26
    3260:	00238b00 	eoreq	r8, r3, r0, lsl #22
    3264:	02550f00 	subseq	r0, r5, #0, 30
    3268:	99100000 	ldmdbls	r0, {}	; <UNPREDICTABLE>
    326c:	10020000 	andne	r0, r2, r0
    3270:	14000099 	strne	r0, [r0], #-153	; 0xffffff67
    3274:	01000000 	mrseq	r0, (UNDEF: 0)
    3278:	019c1313 	orrseq	r1, ip, r3, lsl r3
    327c:	660e0000 	strvs	r0, [lr], -r0
    3280:	a4000002 	strge	r0, [r0], #-2
    3284:	a0000023 	andge	r0, r0, r3, lsr #32
    3288:	0f000023 	svceq	0x00000023
    328c:	00000271 	andeq	r0, r0, r1, ror r2
    3290:	00009914 	andeq	r9, r0, r4, lsl r9
    3294:	00991401 	addseq	r1, r9, r1, lsl #8
    3298:	00000c00 	andeq	r0, r0, r0, lsl #24
    329c:	120d0100 	andne	r0, sp, #0
    32a0:	00000189 	andeq	r0, r0, r9, lsl #3
    32a4:	00991c10 	addseq	r1, r9, r0, lsl ip
    32a8:	00052a00 	andeq	r2, r5, r0, lsl #20
    32ac:	50011100 	andpl	r1, r1, r0, lsl #2
    32b0:	30040c05 	andcc	r0, r4, r5, lsl #24
    32b4:	00002000 	andeq	r2, r0, r0
    32b8:	00991412 	addseq	r1, r9, r2, lsl r4
    32bc:	00053600 	andeq	r3, r5, r0, lsl #12
    32c0:	99241200 	stmdbls	r4!, {r9, ip}
    32c4:	05360000 	ldreq	r0, [r6, #-0]!
    32c8:	13000000 	movwne	r0, #0
    32cc:	00000247 	andeq	r0, r0, r7, asr #4
    32d0:	00000368 	andeq	r0, r0, r8, ror #6
    32d4:	00024814 	andeq	r4, r2, r4, lsl r8
    32d8:	02550b00 	subseq	r0, r5, #0, 22
    32dc:	99280000 	stmdbls	r8!, {}	; <UNPREDICTABLE>
    32e0:	80020000 	andhi	r0, r2, r0
    32e4:	01000003 	tsteq	r0, r3
    32e8:	80151715 	andshi	r1, r5, r5, lsl r7
    32ec:	0e000003 	cdpeq	0, 0, cr0, cr0, cr3, {0}
    32f0:	00000266 	andeq	r0, r0, r6, ror #4
    32f4:	000023c4 	andeq	r2, r0, r4, asr #7
    32f8:	000023c2 	andeq	r2, r0, r2, asr #7
    32fc:	00027116 	andeq	r7, r2, r6, lsl r1
    3300:	00992c00 	addseq	r2, r9, r0, lsl #24
    3304:	03a00100 	moveq	r0, #0
    3308:	0d010000 	stceq	0, cr0, [r1, #-0]
    330c:	0001f312 	andeq	pc, r1, r2, lsl r3	; <UNPREDICTABLE>
    3310:	99341000 	ldmdbls	r4!, {ip}
    3314:	052a0000 	streq	r0, [sl, #-0]!
    3318:	01110000 	tsteq	r1, r0
    331c:	00770250 	rsbseq	r0, r7, r0, asr r2
    3320:	2c120000 	ldccs	0, cr0, [r2], {-0}
    3324:	36000099 			; <UNDEFINED> instruction: 0x36000099
    3328:	12000005 	andne	r0, r0, #5, 0
    332c:	00009940 	andeq	r9, r0, r0, asr #18
    3330:	00000536 	andeq	r0, r0, r6, lsr r5
    3334:	00000000 	andeq	r0, r0, r0
    3338:	6b170000 	blvs	5c3340 <__bss_end__+0x5b8548>
    333c:	01000006 	tsteq	r0, r6
    3340:	2401061b 	strcs	r0, [r1], #-1563	; 0xfffff9e5
    3344:	18000002 	stmdane	r0, {r1}
    3348:	0100736d 	tsteq	r0, sp, ror #6
    334c:	002c181b 	eoreq	r1, ip, fp, lsl r8
    3350:	17000000 	strne	r0, [r0, -r0]
    3354:	000007b6 			; <UNDEFINED> instruction: 0x000007b6
    3358:	01061201 	tsteq	r6, r1, lsl #4
    335c:	00000255 	andeq	r0, r0, r5, asr r2
    3360:	00737518 	rsbseq	r7, r3, r8, lsl r5
    3364:	2c181201 	lfmcs	f1, 4, [r8], {1}
    3368:	19000000 	stmdbne	r0, {}	; <UNPREDICTABLE>
    336c:	01006272 	tsteq	r0, r2, ror r2
    3370:	002c0e13 	eoreq	r0, ip, r3, lsl lr
    3374:	191a0000 	ldmdbne	sl, {}	; <UNPREDICTABLE>
    3378:	01006172 	tsteq	r0, r2, ror r1
    337c:	002c1215 	eoreq	r1, ip, r5, lsl r2
    3380:	00000000 	andeq	r0, r0, r0
    3384:	0007a71b 	andeq	sl, r7, fp, lsl r7
    3388:	0a090100 	beq	243790 <__bss_end__+0x238998>
    338c:	0000002c 	andeq	r0, r0, ip, lsr #32
    3390:	00027101 	andeq	r7, r2, r1, lsl #2
    3394:	00751900 	rsbseq	r1, r5, r0, lsl #18
    3398:	2c0e0d01 	stccs	13, cr0, [lr], {1}
    339c:	00000000 	andeq	r0, r0, r0
    33a0:	0007bf1c 	andeq	fp, r7, ip, lsl pc
    33a4:	0a040100 	beq	1037ac <__bss_end__+0xf89b4>
    33a8:	0000002c 	andeq	r0, r0, ip, lsr #32
    33ac:	02711d01 	rsbseq	r1, r1, #64	; 0x40
    33b0:	98340000 	ldmdals	r4!, {}	; <UNPREDICTABLE>
    33b4:	000c0000 	andeq	r0, ip, r0
    33b8:	9c010000 	stcls	0, cr0, [r1], {-0}
    33bc:	000002a5 	andeq	r0, r0, r5, lsr #5
    33c0:	00983c1e 	addseq	r3, r8, lr, lsl ip
    33c4:	00052a00 	andeq	r2, r5, r0, lsl #20
    33c8:	50011100 	andpl	r1, r1, r0, lsl #2
    33cc:	30040c05 	andcc	r0, r4, r5, lsl #24
    33d0:	00002000 	andeq	r2, r0, r0
    33d4:	0002551d 	andeq	r5, r2, sp, lsl r5
    33d8:	00984000 	addseq	r4, r8, r0
    33dc:	00002400 	andeq	r2, r0, r0, lsl #8
    33e0:	059c0100 	ldreq	r0, [ip, #256]	; 0x100
    33e4:	0e000003 	cdpeq	0, 0, cr0, cr0, cr3, {0}
    33e8:	00000266 	andeq	r0, r0, r6, ror #4
    33ec:	000023db 	ldrdeq	r2, [r0], -fp
    33f0:	000023d7 	ldrdeq	r2, [r0], -r7
    33f4:	0002710f 	andeq	r7, r2, pc, lsl #2
    33f8:	00984800 	addseq	r4, r8, r0, lsl #16
    33fc:	98480100 	stmdals	r8, {r8}^
    3400:	000c0000 	andeq	r0, ip, r0
    3404:	0d010000 	stceq	0, cr0, [r1, #-0]
    3408:	0002f212 	andeq	pc, r2, r2, lsl r2	; <UNPREDICTABLE>
    340c:	98501000 	ldmdals	r0, {ip}^
    3410:	052a0000 	streq	r0, [sl, #-0]!
    3414:	01110000 	tsteq	r1, r0
    3418:	040c0550 	streq	r0, [ip], #-1360	; 0xfffffab0
    341c:	00200030 	eoreq	r0, r0, r0, lsr r0
    3420:	98481200 	stmdals	r8, {r9, ip}^
    3424:	05360000 	ldreq	r0, [r6, #-0]!
    3428:	58120000 	ldmdapl	r2, {}	; <UNPREDICTABLE>
    342c:	36000098 			; <UNDEFINED> instruction: 0x36000098
    3430:	00000005 	andeq	r0, r0, r5
    3434:	0002241d 	andeq	r2, r2, sp, lsl r4
    3438:	00986400 	addseq	r6, r8, r0, lsl #8
    343c:	00004800 	andeq	r4, r0, r0, lsl #16
    3440:	079c0100 	ldreq	r0, [ip, r0, lsl #2]
    3444:	0c000004 	stceq	0, cr0, [r0], {4}
    3448:	00000231 	andeq	r0, r0, r1, lsr r2
    344c:	000023fd 	strdeq	r2, [r0], -sp
    3450:	000023f9 	strdeq	r2, [r0], -r9
    3454:	00023c0e 	andeq	r3, r2, lr, lsl #24
    3458:	00241d00 	eoreq	r1, r4, r0, lsl #26
    345c:	00241b00 	eoreq	r1, r4, r0, lsl #22
    3460:	02551600 	subseq	r1, r5, #0, 12
    3464:	98640000 	stmdals	r4!, {}^	; <UNPREDICTABLE>
    3468:	98020000 	stmdals	r2, {}	; <UNPREDICTABLE>
    346c:	01000002 	tsteq	r0, r2
    3470:	039a1313 	orrseq	r1, sl, #1275068416	; 0x4c000000
    3474:	98150000 	ldmdals	r5, {}	; <UNPREDICTABLE>
    3478:	0e000002 	cdpeq	0, 0, cr0, cr0, cr2, {0}
    347c:	00000266 	andeq	r0, r0, r6, ror #4
    3480:	00002434 	andeq	r2, r0, r4, lsr r4
    3484:	00002430 	andeq	r2, r0, r0, lsr r4
    3488:	0002710f 	andeq	r7, r2, pc, lsl #2
    348c:	00987000 	addseq	r7, r8, r0
    3490:	98700100 	ldmdals	r0!, {r8}^
    3494:	000c0000 	andeq	r0, ip, r0
    3498:	0d010000 	stceq	0, cr0, [r1, #-0]
    349c:	00038612 	andeq	r8, r3, r2, lsl r6
    34a0:	98781000 	ldmdals	r8!, {ip}^
    34a4:	052a0000 	streq	r0, [sl, #-0]!
    34a8:	01110000 	tsteq	r1, r0
    34ac:	040c0550 	streq	r0, [ip], #-1360	; 0xfffffab0
    34b0:	00200030 	eoreq	r0, r0, r0, lsr r0
    34b4:	98701200 	ldmdals	r0!, {r9, ip}^
    34b8:	05360000 	ldreq	r0, [r6, #-0]!
    34bc:	80120000 	andshi	r0, r2, r0
    34c0:	36000098 			; <UNDEFINED> instruction: 0x36000098
    34c4:	00000005 	andeq	r0, r0, r5
    34c8:	02471300 	subeq	r1, r7, #0, 6
    34cc:	02b00000 	adcseq	r0, r0, #0, 0
    34d0:	48140000 	ldmdami	r4, {}	; <UNPREDICTABLE>
    34d4:	0b000002 	bleq	34e4 <__code_start__-0x4b1c>
    34d8:	00000255 	andeq	r0, r0, r5, asr r2
    34dc:	00009884 	andeq	r9, r0, r4, lsl #17
    34e0:	0002c802 	andeq	ip, r2, r2, lsl #16
    34e4:	17150100 	ldrne	r0, [r5, -r0, lsl #2]
    34e8:	0002c815 	andeq	ip, r2, r5, lsl r8
    34ec:	02660e00 	rsbeq	r0, r6, #0, 28
    34f0:	24540000 	ldrbcs	r0, [r4], #-0
    34f4:	24520000 	ldrbcs	r0, [r2], #-0
    34f8:	71160000 	tstvc	r6, r0
    34fc:	88000002 	stmdahi	r0, {r1}
    3500:	01000098 	swpeq	r0, r8, [r0]	; <UNPREDICTABLE>
    3504:	000002e8 	andeq	r0, r0, r8, ror #5
    3508:	f1120d01 			; <UNDEFINED> instruction: 0xf1120d01
    350c:	10000003 	andne	r0, r0, r3
    3510:	00009890 	muleq	r0, r0, r8
    3514:	0000052a 	andeq	r0, r0, sl, lsr #10
    3518:	02500111 	subseq	r0, r0, #1073741828	; 0x40000004
    351c:	00000077 	andeq	r0, r0, r7, ror r0
    3520:	00988812 	addseq	r8, r8, r2, lsl r8
    3524:	00053600 	andeq	r3, r5, r0, lsl #12
    3528:	989c1200 	ldmls	ip, {r9, ip}
    352c:	05360000 	ldreq	r0, [r6, #-0]!
    3530:	00000000 	andeq	r0, r0, r0
    3534:	0b1d0000 	bleq	74353c <__bss_end__+0x738744>
    3538:	ac000002 	stcge	0, cr0, [r0], {2}
    353c:	50000098 	mulpl	r0, r8, r0
    3540:	01000000 	mrseq	r0, (UNDEF: 0)
    3544:	00052a9c 	muleq	r5, ip, sl
    3548:	02180c00 	andseq	r0, r8, #0, 24
    354c:	246b0000 	strbtcs	r0, [fp], #-0
    3550:	24670000 	strbtcs	r0, [r7], #-0
    3554:	240d0000 	strcs	r0, [sp], #-0
    3558:	bc000002 	stclt	0, cr0, [r0], {2}
    355c:	00000098 	muleq	r0, r8, r0
    3560:	000098bc 			; <UNDEFINED> instruction: 0x000098bc
    3564:	00000040 	andeq	r0, r0, r0, asr #32
    3568:	0c051c01 	stceq	12, cr1, [r5], {1}
    356c:	00000231 	andeq	r0, r0, r1, lsr r2
    3570:	0000248e 	andeq	r2, r0, lr, lsl #9
    3574:	0000248c 	andeq	r2, r0, ip, lsl #9
    3578:	00023c0e 	andeq	r3, r2, lr, lsl #24
    357c:	0024a300 	eoreq	sl, r4, r0, lsl #6
    3580:	0024a100 	eoreq	sl, r4, r0, lsl #2
    3584:	02550f00 	subseq	r0, r5, #0, 30
    3588:	98bc0000 	ldmls	ip!, {}	; <UNPREDICTABLE>
    358c:	bc020000 	stclt	0, cr0, [r2], {-0}
    3590:	14000098 	strne	r0, [r0], #-152	; 0xffffff68
    3594:	01000000 	mrseq	r0, (UNDEF: 0)
    3598:	04bc1313 	ldrteq	r1, [ip], #787	; 0x313
    359c:	660e0000 	strvs	r0, [lr], -r0
    35a0:	ba000002 	blt	35b0 <__code_start__-0x4a50>
    35a4:	b6000024 	strlt	r0, [r0], -r4, lsr #32
    35a8:	0f000024 	svceq	0x00000024
    35ac:	00000271 	andeq	r0, r0, r1, ror r2
    35b0:	000098c0 	andeq	r9, r0, r0, asr #17
    35b4:	0098c001 	addseq	ip, r8, r1
    35b8:	00000c00 	andeq	r0, r0, r0, lsl #24
    35bc:	120d0100 	andne	r0, sp, #0
    35c0:	000004a9 	andeq	r0, r0, r9, lsr #9
    35c4:	0098c810 	addseq	ip, r8, r0, lsl r8
    35c8:	00052a00 	andeq	r2, r5, r0, lsl #20
    35cc:	50011100 	andpl	r1, r1, r0, lsl #2
    35d0:	30040c05 	andcc	r0, r4, r5, lsl #24
    35d4:	00002000 	andeq	r2, r0, r0
    35d8:	0098c012 	addseq	ip, r8, r2, lsl r0
    35dc:	00053600 	andeq	r3, r5, r0, lsl #12
    35e0:	98d01200 	ldmls	r0, {r9, ip}^
    35e4:	05360000 	ldreq	r0, [r6, #-0]!
    35e8:	13000000 	movwne	r0, #0
    35ec:	00000247 	andeq	r0, r0, r7, asr #4
    35f0:	00000300 	andeq	r0, r0, r0, lsl #6
    35f4:	00024814 	andeq	r4, r2, r4, lsl r8
    35f8:	02550b00 	subseq	r0, r5, #0, 22
    35fc:	98d40000 	ldmls	r4, {}^	; <UNPREDICTABLE>
    3600:	18020000 	stmdane	r2, {}	; <UNPREDICTABLE>
    3604:	01000003 	tsteq	r0, r3
    3608:	18151715 	ldmdane	r5, {r0, r2, r4, r8, r9, sl, ip}
    360c:	0e000003 	cdpeq	0, 0, cr0, cr0, cr3, {0}
    3610:	00000266 	andeq	r0, r0, r6, ror #4
    3614:	000024da 	ldrdeq	r2, [r0], -sl
    3618:	000024d8 	ldrdeq	r2, [r0], -r8
    361c:	00027116 	andeq	r7, r2, r6, lsl r1
    3620:	0098d800 	addseq	sp, r8, r0, lsl #16
    3624:	03380100 	teqeq	r8, #0
    3628:	0d010000 	stceq	0, cr0, [r1, #-0]
    362c:	00051312 	andeq	r1, r5, r2, lsl r3
    3630:	98e01000 	stmials	r0!, {ip}^
    3634:	052a0000 	streq	r0, [sl, #-0]!
    3638:	01110000 	tsteq	r1, r0
    363c:	00770250 	rsbseq	r0, r7, r0, asr r2
    3640:	d8120000 	ldmdale	r2, {}	; <UNPREDICTABLE>
    3644:	36000098 			; <UNDEFINED> instruction: 0x36000098
    3648:	12000005 	andne	r0, r0, #5, 0
    364c:	000098ec 	andeq	r9, r0, ip, ror #17
    3650:	00000536 	andeq	r0, r0, r6, lsr r5
    3654:	00000000 	andeq	r0, r0, r0
    3658:	07a11f00 	streq	r1, [r1, r0, lsl #30]!
    365c:	07a10000 	streq	r0, [r1, r0]!
    3660:	c2020000 	andgt	r0, r2, #0, 0
    3664:	07771f0a 	ldrbeq	r1, [r7, -sl, lsl #30]!
    3668:	07770000 	ldrbeq	r0, [r7, -r0]!
    366c:	9c020000 	stcls	0, cr0, [r2], {-0}
    3670:	05cd0006 	strbeq	r0, [sp, #6]
    3674:	00040000 	andeq	r0, r4, r0
    3678:	00001358 	andeq	r1, r0, r8, asr r3
    367c:	08d20104 	ldmeq	r2, {r2, r8}^
    3680:	110c0000 	mrsne	r0, (UNDEF: 12)
    3684:	82000008 	andhi	r0, r0, #8, 0
    3688:	50000008 	andpl	r0, r0, r8
    368c:	f0000099 			; <UNDEFINED> instruction: 0xf0000099
    3690:	e9000001 	stmdb	r0, {r0}
    3694:	0200001c 	andeq	r0, r0, #28, 0
    3698:	6e690504 	cdpvs	5, 6, cr0, cr9, cr4, {0}
    369c:	04030074 	streq	r0, [r3], #-116	; 0xffffff8c
    36a0:	00009007 	andeq	r9, r0, r7
    36a4:	002c0400 	eoreq	r0, ip, r0, lsl #8
    36a8:	01030000 	mrseq	r0, (UNDEF: 3)
    36ac:	00003406 	andeq	r3, r0, r6, lsl #8
    36b0:	05020300 	streq	r0, [r2, #-768]	; 0xfffffd00
    36b4:	000000f1 	strdeq	r0, [r0], -r1
    36b8:	b6050403 	strlt	r0, [r5], -r3, lsl #8
    36bc:	03000000 	movweq	r0, #0
    36c0:	00b10508 	adcseq	r0, r1, r8, lsl #10
    36c4:	01030000 	mrseq	r0, (UNDEF: 3)
    36c8:	00003208 	andeq	r3, r0, r8, lsl #4
    36cc:	07020300 	streq	r0, [r2, -r0, lsl #6]
    36d0:	0000004d 	andeq	r0, r0, sp, asr #32
    36d4:	00024805 	andeq	r4, r2, r5, lsl #16
    36d8:	19340500 	ldmdbne	r4!, {r8, sl}
    36dc:	0000006e 	andeq	r0, r0, lr, rrx
    36e0:	8b070403 	blhi	1c46f4 <__bss_end__+0x1b98fc>
    36e4:	03000000 	movweq	r0, #0
    36e8:	00860708 	addeq	r0, r6, r8, lsl #14
    36ec:	01030000 	mrseq	r0, (UNDEF: 3)
    36f0:	00003b08 	andeq	r3, r0, r8, lsl #22
    36f4:	01070600 	tsteq	r7, r0, lsl #12
    36f8:	00000054 	andeq	r0, r0, r4, asr r0
    36fc:	c20e0c04 	andgt	r0, lr, #4, 24	; 0x400
    3700:	07000000 	streq	r0, [r0, -r0]
    3704:	000009bc 			; <UNDEFINED> instruction: 0x000009bc
    3708:	07f40700 	ldrbeq	r0, [r4, r0, lsl #14]!
    370c:	07010000 	streq	r0, [r1, -r0]
    3710:	00000837 	andeq	r0, r0, r7, lsr r8
    3714:	08460704 	stmdaeq	r6, {r2, r8, r9, sl}^
    3718:	07050000 	streq	r0, [r5, -r0]
    371c:	00000855 	andeq	r0, r0, r5, asr r8
    3720:	08640706 	stmdaeq	r4!, {r1, r2, r8, r9, sl}^
    3724:	07070000 	streq	r0, [r7, -r0]
    3728:	00000985 	andeq	r0, r0, r5, lsl #19
    372c:	08730703 	ldmdaeq	r3!, {r0, r1, r8, r9, sl}^
    3730:	00020000 	andeq	r0, r2, r0
    3734:	00080508 	andeq	r0, r8, r8, lsl #10
    3738:	06022c00 	streq	r2, [r2], -r0, lsl #24
    373c:	00015e08 	andeq	r5, r1, r8, lsl #28
    3740:	6f690900 	svcvs	0x00690900
    3744:	09090200 	stmdbeq	r9, {r9}
    3748:	00000033 	andeq	r0, r0, r3, lsr r0
    374c:	65690900 	strbvs	r0, [r9, #-2304]!	; 0xfffff700
    3750:	0a020072 	beq	83920 <__bss_end__+0x78b28>
    3754:	00003309 	andeq	r3, r0, r9, lsl #6
    3758:	69090400 	stmdbvs	r9, {sl}
    375c:	02007269 	andeq	r7, r0, #-1879048186	; 0x90000006
    3760:	00330911 	eorseq	r0, r3, r1, lsl r9
    3764:	09080000 	stmdbeq	r8, {}	; <UNPREDICTABLE>
    3768:	0072636c 	rsbseq	r6, r2, ip, ror #6
    376c:	33091302 	movwcc	r1, #37634	; 0x9302
    3770:	0c000000 	stceq	0, cr0, [r0], {-0}
    3774:	72636d09 	rsbvc	r6, r3, #576	; 0x240
    3778:	09140200 	ldmdbeq	r4, {r9}
    377c:	00000033 	andeq	r0, r0, r3, lsr r0
    3780:	736c0910 	cmnvc	ip, #16, 18	; 0x40000
    3784:	15020072 	strne	r0, [r2, #-114]	; 0xffffff8e
    3788:	00003309 	andeq	r3, r0, r9, lsl #6
    378c:	6d091400 	cfstrsvs	mvf1, [r9, #-0]
    3790:	02007273 	andeq	r7, r0, #805306375	; 0x30000007
    3794:	00330916 	eorseq	r0, r3, r6, lsl r9
    3798:	0a180000 	beq	6037a0 <__bss_end__+0x5f89a8>
    379c:	0000099c 	muleq	r0, ip, r9
    37a0:	33091702 	movwcc	r1, #38658	; 0x9702
    37a4:	1c000000 	stcne	0, cr0, [r0], {-0}
    37a8:	0009650a 	andeq	r6, r9, sl, lsl #10
    37ac:	091b0200 	ldmdbeq	fp, {r9}
    37b0:	00000033 	andeq	r0, r0, r3, lsr r0
    37b4:	07e10a20 	strbeq	r0, [r1, r0, lsr #20]!
    37b8:	1d020000 	stcne	0, cr0, [r2, #-0]
    37bc:	00003309 	andeq	r3, r0, r9, lsl #6
    37c0:	b70a2400 	strlt	r2, [sl, -r0, lsl #8]
    37c4:	02000008 	andeq	r0, r0, #8, 0
    37c8:	0033091e 	eorseq	r0, r3, lr, lsl r9
    37cc:	00280000 	eoreq	r0, r8, r0
    37d0:	0008bc0b 	andeq	fp, r8, fp, lsl #24
    37d4:	09080100 	stmdbeq	r8, {r8}
    37d8:	00000174 	andeq	r0, r0, r4, ror r1
    37dc:	20215004 	eorcs	r5, r1, r4
    37e0:	0033040c 	eorseq	r0, r3, ip, lsl #8
    37e4:	6e0d0000 	cdpvs	0, 0, cr0, cr13, cr0, {0}
    37e8:	0b000001 	bleq	37f4 <__code_start__-0x480c>
    37ec:	000009a4 	andeq	r0, r0, r4, lsr #19
    37f0:	8f232901 	svchi	0x00232901
    37f4:	40000001 	andmi	r0, r0, r1
    37f8:	0c202150 	stfeqs	f2, [r0], #-320	; 0xfffffec0
    37fc:	0000c204 	andeq	ip, r0, r4, lsl #4
    3800:	01890d00 	orreq	r0, r9, r0, lsl #26
    3804:	8f0e0000 	svchi	0x000e0000
    3808:	01000006 	tsteq	r0, r6
    380c:	9b0806cc 	blls	205344 <__bss_end__+0x1fa54c>
    3810:	00140000 	andseq	r0, r4, r0
    3814:	9c010000 	stcls	0, cr0, [r1], {-0}
    3818:	000001b4 			; <UNDEFINED> instruction: 0x000001b4
    381c:	009b100f 	addseq	r1, fp, pc
    3820:	0001b400 	andeq	fp, r1, r0, lsl #8
    3824:	26100000 	ldrcs	r0, [r0], -r0
    3828:	01000008 	tsteq	r0, r8
    382c:	002505b6 	strhteq	r0, [r5], -r6
    3830:	9ae80000 	bls	ffa03838 <__bss_end__+0xff9f8a40>
    3834:	00200000 	eoreq	r0, r0, r0
    3838:	9c010000 	stcls	0, cr0, [r1], {-0}
    383c:	000001eb 	andeq	r0, r0, fp, ror #3
    3840:	009af00f 	addseq	pc, sl, pc
    3844:	0005a000 	andeq	sl, r5, r0
    3848:	9af81100 	bls	ffe07c50 <__bss_end__+0xffdfce58>
    384c:	05ac0000 	streq	r0, [ip, #0]!
    3850:	01120000 	tsteq	r2, r0
    3854:	640c0550 	strvs	r0, [ip], #-1360	; 0xfffffab0
    3858:	00202150 	eoreq	r2, r0, r0, asr r1
    385c:	09771000 	ldmdbeq	r7!, {ip}^
    3860:	b3010000 	movwlt	r0, #4096	; 0x1000
    3864:	00002505 	andeq	r2, r0, r5, lsl #10
    3868:	009ad800 	addseq	sp, sl, r0, lsl #16
    386c:	00001000 	andeq	r1, r0, r0
    3870:	189c0100 	ldmne	ip, {r8}
    3874:	0f000002 	svceq	0x00000002
    3878:	00009ae0 	andeq	r9, r0, r0, ror #21
    387c:	000005a0 	andeq	r0, r0, r0, lsr #11
    3880:	009ae40f 	addseq	lr, sl, pc, lsl #8
    3884:	00030900 	andeq	r0, r3, r0, lsl #18
    3888:	b20e0000 	andlt	r0, lr, #0, 0
    388c:	01000009 	tsteq	r0, r9
    3890:	9aa806ab 	bls	fea05344 <__bss_end__+0xfe9fa54c>
    3894:	00300000 	eorseq	r0, r0, r0
    3898:	9c010000 	stcls	0, cr0, [r1], {-0}
    389c:	0000027c 	andeq	r0, r0, ip, ror r2
    38a0:	01006313 	tsteq	r0, r3, lsl r3
    38a4:	002c19ab 	eoreq	r1, ip, fp, lsr #19
    38a8:	24f10000 	ldrbtcs	r0, [r1], #0
    38ac:	24ed0000 	strbtcs	r0, [sp], #0
    38b0:	b40f0000 	strlt	r0, [pc], #-0	; 38b8 <__code_start__-0x4748>
    38b4:	a000009a 	mulge	r0, sl, r0
    38b8:	0f000005 	svceq	0x00000005
    38bc:	00009ab8 			; <UNDEFINED> instruction: 0x00009ab8
    38c0:	000002db 	ldrdeq	r0, [r0], -fp
    38c4:	009acc14 	addseq	ip, sl, r4, lsl ip
    38c8:	0005b800 	andeq	fp, r5, r0, lsl #16
    38cc:	00027200 	andeq	r7, r2, r0, lsl #4
    38d0:	50011200 	andpl	r1, r1, r0, lsl #4
    38d4:	50400c05 	subpl	r0, r0, r5, lsl #24
    38d8:	01122021 	tsteq	r2, r1, lsr #32
    38dc:	00740551 	rsbseq	r0, r4, r1, asr r5
    38e0:	001aff08 	andseq	pc, sl, r8, lsl #30
    38e4:	009ad00f 	addseq	sp, sl, pc
    38e8:	0005a000 	andeq	sl, r5, r0
    38ec:	c8100000 	ldmdagt	r0, {}	; <UNPREDICTABLE>
    38f0:	01000008 	tsteq	r0, r8
    38f4:	002505a3 	eoreq	r0, r5, r3, lsr #11
    38f8:	9a780000 	bls	1e03900 <__bss_end__+0x1df8b08>
    38fc:	00300000 	eorseq	r0, r0, r0
    3900:	9c010000 	stcls	0, cr0, [r1], {-0}
    3904:	000002db 	ldrdeq	r0, [r0], -fp
    3908:	01006315 	tsteq	r0, r5, lsl r3
    390c:	002509a7 	eoreq	r0, r5, r7, lsr #19
    3910:	25110000 	ldrcs	r0, [r1, #-0]
    3914:	250f0000 	strcs	r0, [pc, #-0]	; 391c <__code_start__-0x46e4>
    3918:	800f0000 	andhi	r0, pc, r0
    391c:	a000009a 	mulge	r0, sl, r0
    3920:	0f000005 	svceq	0x00000005
    3924:	00009a84 	andeq	r9, r0, r4, lsl #21
    3928:	00000309 	andeq	r0, r0, r9, lsl #6
    392c:	009a9414 	addseq	r9, sl, r4, lsl r4
    3930:	0005ac00 	andeq	sl, r5, r0, lsl #24
    3934:	0002d100 	andeq	sp, r2, r0, lsl #2
    3938:	50011200 	andpl	r1, r1, r0, lsl #4
    393c:	50400c05 	subpl	r0, r0, r5, lsl #24
    3940:	0f002021 	svceq	0x00002021
    3944:	00009a9c 	muleq	r0, ip, sl
    3948:	000005a0 	andeq	r0, r0, r0, lsr #11
    394c:	08181000 	ldmdaeq	r8, {ip}
    3950:	94010000 	strls	r0, [r1], #-0
    3954:	00002505 	andeq	r2, r0, r5, lsl #10
    3958:	009a5800 	addseq	r5, sl, r0, lsl #16
    395c:	00002000 	andeq	r2, r0, r0
    3960:	099c0100 	ldmibeq	ip, {r8}
    3964:	11000003 	tstne	r0, r3
    3968:	00009a64 	andeq	r9, r0, r4, ror #20
    396c:	000005ac 	andeq	r0, r0, ip, lsr #11
    3970:	05500112 	ldrbeq	r0, [r0, #-274]	; 0xfffffeee
    3974:	2150640c 	cmpcs	r0, ip, lsl #8
    3978:	10000020 	andne	r0, r0, r0, lsr #32
    397c:	000007e6 	andeq	r0, r0, r6, ror #15
    3980:	25058b01 	strcs	r8, [r5, #-2817]	; 0xfffff4ff
    3984:	40000000 	andmi	r0, r0, r0
    3988:	1800009a 	stmdane	r0, {r1, r3, r4, r7}
    398c:	01000000 	mrseq	r0, (UNDEF: 0)
    3990:	0003379c 	muleq	r3, ip, r7
    3994:	9a4c1100 	bls	1307d9c <__bss_end__+0x12fcfa4>
    3998:	05ac0000 	streq	r0, [ip, #0]!
    399c:	01120000 	tsteq	r2, r0
    39a0:	640c0550 	strvs	r0, [ip], #-1360	; 0xfffffab0
    39a4:	00202150 	eoreq	r2, r0, r0, asr r1
    39a8:	06ad0e00 	strteq	r0, [sp], r0, lsl #28
    39ac:	45010000 	strmi	r0, [r1, #-0]
    39b0:	00999006 	addseq	r9, r9, r6
    39b4:	0000b000 	andeq	fp, r0, r0
    39b8:	849c0100 	ldrhi	r0, [ip], #256	; 0x100
    39bc:	16000004 	strne	r0, [r0], -r4
    39c0:	000007d8 	ldrdeq	r0, [r0], -r8
    39c4:	620e7e01 	andvs	r7, lr, #1, 28
    39c8:	0e000000 	cdpeq	0, 0, cr0, cr0, cr0, {0}
    39cc:	99a01401 	stmibls	r0!, {r0, sl, ip}
    39d0:	05c40000 	strbeq	r0, [r4]
    39d4:	03730000 	cmneq	r3, #0, 0
    39d8:	01120000 	tsteq	r2, r0
    39dc:	123e0150 	eorsne	r0, lr, #20
    39e0:	32015101 	andcc	r5, r1, #1073741824	; 0x40000000
    39e4:	99ac1400 	stmibls	ip!, {sl, ip}
    39e8:	05c40000 	strbeq	r0, [r4]
    39ec:	038b0000 	orreq	r0, fp, #0, 0
    39f0:	01120000 	tsteq	r2, r0
    39f4:	123f0150 	eorsne	r0, pc, #20
    39f8:	32015101 	andcc	r5, r1, #1073741824	; 0x40000000
    39fc:	99b00f00 	ldmibls	r0!, {r8, r9, sl, fp}
    3a00:	05a00000 	streq	r0, [r0, #0]!
    3a04:	bc140000 	ldclt	0, cr0, [r4], {-0}
    3a08:	3d000099 	stccc	0, cr0, [r0, #-612]	; 0xfffffd9c
    3a0c:	b0000005 	andlt	r0, r0, r5
    3a10:	12000003 	andne	r0, r0, #3, 0
    3a14:	0c055001 	stceq	0, cr5, [r5], {1}
    3a18:	20215004 	eorcs	r5, r1, r4
    3a1c:	01510112 	cmpeq	r1, r2, lsl r1
    3a20:	c00f0031 	andgt	r0, pc, r1, lsr r0	; <UNPREDICTABLE>
    3a24:	a0000099 	mulge	r0, r9, r0
    3a28:	14000005 	strne	r0, [r0], #-5
    3a2c:	000099d0 	ldrdeq	r9, [r0], -r0
    3a30:	000005b8 			; <UNDEFINED> instruction: 0x000005b8
    3a34:	000003d2 	ldrdeq	r0, [r0], -r2
    3a38:	02500112 	subseq	r0, r0, #-2147483644	; 0x80000004
    3a3c:	01120074 	tsteq	r2, r4, ror r0
    3a40:	00300151 	eorseq	r0, r0, r1, asr r1
    3a44:	0099dc14 	addseq	sp, r9, r4, lsl ip
    3a48:	0005b800 	andeq	fp, r5, r0, lsl #16
    3a4c:	0003ee00 	andeq	lr, r3, r0, lsl #28
    3a50:	50011200 	andpl	r1, r1, r0, lsl #4
    3a54:	50440c05 	subpl	r0, r4, r5, lsl #24
    3a58:	01122021 	tsteq	r2, r1, lsr #32
    3a5c:	00300151 	eorseq	r0, r0, r1, asr r1
    3a60:	0099e814 	addseq	lr, r9, r4, lsl r8
    3a64:	0005b800 	andeq	fp, r5, r0, lsl #16
    3a68:	00040a00 	andeq	r0, r4, r0, lsl #20
    3a6c:	50011200 	andpl	r1, r1, r0, lsl #4
    3a70:	504c0c05 	subpl	r0, ip, r5, lsl #24
    3a74:	01122021 	tsteq	r2, r1, lsr #32
    3a78:	00330151 	eorseq	r0, r3, r1, asr r1
    3a7c:	0099f414 	addseq	pc, r9, r4, lsl r4	; <UNPREDICTABLE>
    3a80:	0005b800 	andeq	fp, r5, r0, lsl #16
    3a84:	00042600 	andeq	r2, r4, r0, lsl #12
    3a88:	50011200 	andpl	r1, r1, r0, lsl #4
    3a8c:	50500c05 	subspl	r0, r0, r5, lsl #24
    3a90:	01122021 	tsteq	r2, r1, lsr #32
    3a94:	00300151 	eorseq	r0, r0, r1, asr r1
    3a98:	009a0014 	addseq	r0, sl, r4, lsl r0
    3a9c:	0005b800 	andeq	fp, r5, r0, lsl #16
    3aa0:	00044300 	andeq	r4, r4, r0, lsl #6
    3aa4:	50011200 	andpl	r1, r1, r0, lsl #4
    3aa8:	50480c05 	subpl	r0, r8, r5, lsl #24
    3aac:	01122021 	tsteq	r2, r1, lsr #32
    3ab0:	c7080251 	smlsdgt	r8, r1, r2, r0
    3ab4:	9a0c1400 	bls	308abc <__bss_end__+0x2fdcc4>
    3ab8:	05b80000 	ldreq	r0, [r8, #0]!
    3abc:	04610000 	strbteq	r0, [r1], #-0
    3ac0:	01120000 	tsteq	r2, r0
    3ac4:	680c0550 	stmdavs	ip, {r4, r6, r8, sl}
    3ac8:	12202150 	eorne	r2, r0, #20
    3acc:	0a035101 	beq	d7ed8 <__bss_end__+0xcd0e0>
    3ad0:	1400010e 	strne	r0, [r0], #-270	; 0xfffffef2
    3ad4:	00009a18 	andeq	r9, r0, r8, lsl sl
    3ad8:	000005b8 			; <UNDEFINED> instruction: 0x000005b8
    3adc:	0000047a 	andeq	r0, r0, sl, ror r4
    3ae0:	02500112 	subseq	r0, r0, #-2147483644	; 0x80000004
    3ae4:	01120074 	tsteq	r2, r4, ror r0
    3ae8:	00330151 	eorseq	r0, r3, r1, asr r1
    3aec:	009a1c0f 	addseq	r1, sl, pc, lsl #24
    3af0:	0005a000 	andeq	sl, r5, r0
    3af4:	6a0e0000 	bvs	383afc <__bss_end__+0x378d04>
    3af8:	01000009 	tsteq	r0, r9
    3afc:	9b1c0635 	blls	7053d8 <__bss_end__+0x6fa5e0>
    3b00:	00240000 	eoreq	r0, r4, r0
    3b04:	9c010000 	stcls	0, cr0, [r1], {-0}
    3b08:	000004d3 	ldrdeq	r0, [r0], -r3
    3b0c:	009b240f 	addseq	r2, fp, pc, lsl #8
    3b10:	00019400 	andeq	r9, r1, r0, lsl #8
    3b14:	9b280f00 	blls	a0771c <__bss_end__+0x9fc924>
    3b18:	05a00000 	streq	r0, [r0, #0]!
    3b1c:	34140000 	ldrcc	r0, [r4], #-0
    3b20:	d300009b 	movwle	r0, #155	; 0x9b
    3b24:	c9000004 	stmdbgt	r0, {r2}
    3b28:	12000004 	andne	r0, r0, #4, 0
    3b2c:	0c055001 	stceq	0, cr5, [r5], {1}
    3b30:	20215004 	eorcs	r5, r1, r4
    3b34:	02510112 	subseq	r0, r1, #-2147483644	; 0x80000004
    3b38:	0f00fe09 	svceq	0x0000fe09
    3b3c:	00009b38 	andeq	r9, r0, r8, lsr fp
    3b40:	000005a0 	andeq	r0, r0, r0, lsr #11
    3b44:	09a91700 	stmibeq	r9!, {r8, r9, sl, ip}
    3b48:	31010000 	mrscc	r0, (UNDEF: 1)
    3b4c:	0099500d 	addseq	r5, r9, sp
    3b50:	00002000 	andeq	r2, r0, r0
    3b54:	369c0100 	ldrcc	r0, [ip], r0, lsl #2
    3b58:	18000005 	stmdane	r0, {r0, r2}
    3b5c:	00000a03 	andeq	r0, r0, r3, lsl #20
    3b60:	36253101 	strtcc	r3, [r5], -r1, lsl #2
    3b64:	28000005 	stmdacs	r0, {r0, r2}
    3b68:	24000025 	strcs	r0, [r0], #-37	; 0xffffffdb
    3b6c:	13000025 	movwne	r0, #37	; 0x25
    3b70:	006c6176 	rsbeq	r6, ip, r6, ror r1
    3b74:	2c343101 	ldfcss	f3, [r4], #-4
    3b78:	4a000000 	bmi	3b80 <__code_start__-0x4480>
    3b7c:	46000025 	strmi	r0, [r0], -r5, lsr #32
    3b80:	14000025 	strne	r0, [r0], #-37	; 0xffffffdb
    3b84:	00009960 	andeq	r9, r0, r0, ror #18
    3b88:	000005ac 	andeq	r0, r0, ip, lsr #11
    3b8c:	00000525 	andeq	r0, r0, r5, lsr #10
    3b90:	02500112 	subseq	r0, r0, #-2147483644	; 0x80000004
    3b94:	11000074 	tstne	r0, r4, ror r0
    3b98:	0000996c 	andeq	r9, r0, ip, ror #18
    3b9c:	000005b8 			; <UNDEFINED> instruction: 0x000005b8
    3ba0:	02500112 	subseq	r0, r0, #-2147483644	; 0x80000004
    3ba4:	00000074 	andeq	r0, r0, r4, ror r0
    3ba8:	053c040c 	ldreq	r0, [ip, #-1036]!	; 0xfffffbf4
    3bac:	17190000 	ldrne	r0, [r9, -r0]
    3bb0:	00000994 	muleq	r0, r4, r9
    3bb4:	700d2e01 	andvc	r2, sp, r1, lsl #28
    3bb8:	20000099 	mulcs	r0, r9, r0
    3bbc:	01000000 	mrseq	r0, (UNDEF: 0)
    3bc0:	0005a09c 	muleq	r5, ip, r0
    3bc4:	0a031800 	beq	c9bcc <__bss_end__+0xbedd4>
    3bc8:	2e010000 	cdpcs	0, 0, cr0, cr1, cr0, {0}
    3bcc:	00053624 	andeq	r3, r5, r4, lsr #12
    3bd0:	00256c00 	eoreq	r6, r5, r0, lsl #24
    3bd4:	00256800 	eoreq	r6, r5, r0, lsl #16
    3bd8:	61761300 	cmnvs	r6, r0, lsl #6
    3bdc:	2e01006c 	cdpcs	0, 0, cr0, cr1, cr12, {3}
    3be0:	00002c33 	andeq	r2, r0, r3, lsr ip
    3be4:	00258e00 	eoreq	r8, r5, r0, lsl #28
    3be8:	00258a00 	eoreq	r8, r5, r0, lsl #20
    3bec:	99801400 	stmibls	r0, {sl, ip}
    3bf0:	05ac0000 	streq	r0, [ip, #0]!
    3bf4:	058f0000 	streq	r0, [pc]	; 3bfc <__code_start__-0x4404>
    3bf8:	01120000 	tsteq	r2, r0
    3bfc:	00740250 	rsbseq	r0, r4, r0, asr r2
    3c00:	998c1100 	stmibls	ip, {r8, ip}
    3c04:	05b80000 	ldreq	r0, [r8, #0]!
    3c08:	01120000 	tsteq	r2, r0
    3c0c:	00740250 	rsbseq	r0, r4, r0, asr r2
    3c10:	771a0000 	ldrvc	r0, [sl, -r0]
    3c14:	77000007 	strvc	r0, [r0, -r7]
    3c18:	03000007 	movweq	r0, #7
    3c1c:	de1a069c 	mrcle	6, 0, r0, cr10, cr12, {4}
    3c20:	de000009 	cdple	0, 0, cr0, cr0, cr9, {0}
    3c24:	03000009 	movweq	r0, #9
    3c28:	d21a0bc3 	andsle	r0, sl, #199680	; 0x30c00
    3c2c:	d2000007 	andle	r0, r0, #7, 0
    3c30:	03000007 	movweq	r0, #7
    3c34:	cc1a06ae 	ldcgt	6, cr0, [sl], {174}	; 0xae
    3c38:	cc000009 	stcgt	0, cr0, [r0], {9}
    3c3c:	04000009 	streq	r0, [r0], #-9
    3c40:	e9000619 	stmdb	r0, {r0, r3, r4, r9, sl}
    3c44:	04000008 	streq	r0, [r0], #-8
    3c48:	0014f000 	andseq	pc, r4, r0
    3c4c:	d2010400 	andle	r0, r1, #0, 8
    3c50:	0c000008 	stceq	0, cr0, [r0], {8}
    3c54:	00000a6e 	andeq	r0, r0, lr, ror #20
    3c58:	00000882 	andeq	r0, r0, r2, lsl #17
    3c5c:	00009b40 	andeq	r9, r0, r0, asr #22
    3c60:	000003b0 			; <UNDEFINED> instruction: 0x000003b0
    3c64:	00001ef1 	strdeq	r1, [r0], -r1	; <UNPREDICTABLE>
    3c68:	69050402 	stmdbvs	r5, {r1, sl}
    3c6c:	0300746e 	movweq	r7, #1134	; 0x46e
    3c70:	00900704 	addseq	r0, r0, r4, lsl #14
    3c74:	01030000 	mrseq	r0, (UNDEF: 3)
    3c78:	00003406 	andeq	r3, r0, r6, lsl #8
    3c7c:	05020300 	streq	r0, [r2, #-768]	; 0xfffffd00
    3c80:	000000f1 	strdeq	r0, [r0], -r1
    3c84:	b6050403 	strlt	r0, [r5], -r3, lsl #8
    3c88:	03000000 	movweq	r0, #0
    3c8c:	00b10508 	adcseq	r0, r1, r8, lsl #10
    3c90:	01030000 	mrseq	r0, (UNDEF: 3)
    3c94:	00003208 	andeq	r3, r0, r8, lsl #4
    3c98:	07020300 	streq	r0, [r2, -r0, lsl #6]
    3c9c:	0000004d 	andeq	r0, r0, sp, asr #32
    3ca0:	00024804 	andeq	r4, r2, r4, lsl #16
    3ca4:	19340300 	ldmdbne	r4!, {r8, r9}
    3ca8:	00000069 	andeq	r0, r0, r9, rrx
    3cac:	8b070403 	blhi	1c4cc0 <__bss_end__+0x1b9ec8>
    3cb0:	03000000 	movweq	r0, #0
    3cb4:	00860708 	addeq	r0, r6, r8, lsl #14
    3cb8:	01030000 	mrseq	r0, (UNDEF: 3)
    3cbc:	00003b08 	andeq	r3, r0, r8, lsl #22
    3cc0:	00770500 	rsbseq	r0, r7, r0, lsl #10
    3cc4:	08030000 	stmdaeq	r3, {}	; <UNPREDICTABLE>
    3cc8:	0002ef04 	andeq	lr, r2, r4, lsl #30
    3ccc:	07040600 	streq	r0, [r4, -r0, lsl #12]
    3cd0:	002c0407 	eoreq	r0, ip, r7, lsl #8
    3cd4:	1f010000 	svcne	0x00010000
    3cd8:	0000a406 	andeq	sl, r0, r6, lsl #8
    3cdc:	0a080800 	beq	205ce4 <__bss_end__+0x1faeec>
    3ce0:	00000000 	andeq	r0, r0, r0
    3ce4:	09000020 	stmdbeq	r0, {r5}
    3ce8:	000005d8 	ldrdeq	r0, [r0], -r8
    3cec:	770d2201 	strvc	r2, [sp, -r1, lsl #4]
    3cf0:	0a000000 	beq	3cf8 <__code_start__-0x4308>
    3cf4:	000003c4 	andeq	r0, r0, r4, asr #7
    3cf8:	c20e2301 	andgt	r2, lr, #67108864	; 0x4000000
    3cfc:	05000000 	streq	r0, [r0, #-0]
    3d00:	00a9bc03 	adceq	fp, r9, r3, lsl #24
    3d04:	77040b00 	strvc	r0, [r4, -r0, lsl #22]
    3d08:	0a000000 	beq	3d10 <__code_start__-0x42f0>
    3d0c:	000009ec 	andeq	r0, r0, ip, ror #19
    3d10:	c20e2401 	andgt	r2, lr, #16777216	; 0x1000000
    3d14:	05000000 	streq	r0, [r0, #-0]
    3d18:	00a9c003 	adceq	ip, r9, r3
    3d1c:	0a4d0a00 	beq	1346524 <__bss_end__+0x133b72c>
    3d20:	25010000 	strcs	r0, [r1, #-0]
    3d24:	0000c20e 	andeq	ip, r0, lr, lsl #4
    3d28:	c4030500 	strgt	r0, [r3], #-1280	; 0xfffffb00
    3d2c:	0c0000a9 	stceq	0, cr0, [r0], {169}	; 0xa9
    3d30:	00000a23 	andeq	r0, r0, r3, lsr #20
    3d34:	90067501 	andls	r7, r6, r1, lsl #10
    3d38:	6000009e 	mulvs	r0, lr, r0
    3d3c:	01000000 	mrseq	r0, (UNDEF: 0)
    3d40:	0001649c 	muleq	r1, ip, r4
    3d44:	00700d00 	rsbseq	r0, r0, r0, lsl #26
    3d48:	8a167501 	bhi	5a1154 <__bss_end__+0x59635c>
    3d4c:	b2000000 	andlt	r0, r0, #0, 0
    3d50:	ac000025 	stcge	0, cr0, [r0], {37}	; 0x25
    3d54:	0e000025 	cdpeq	0, 0, cr0, cr0, cr5, {1}
    3d58:	0000006c 	andeq	r0, r0, ip, rrx
    3d5c:	00000174 	andeq	r0, r0, r4, ror r1
    3d60:	a9ac0305 	stmibge	ip!, {r0, r2, r8, r9}
    3d64:	dc0f0000 	stcle	0, cr0, [pc], {-0}
    3d68:	bc00009e 	stclt	0, cr0, [r0], {158}	; 0x9e
    3d6c:	5a000008 	bpl	3d94 <__code_start__-0x426c>
    3d70:	10000001 	andne	r0, r0, r1
    3d74:	03055001 	movweq	r5, #20481	; 0x5001
    3d78:	0000a924 	andeq	sl, r0, r4, lsr #18
    3d7c:	05510110 	ldrbeq	r0, [r1, #-272]	; 0xfffffef0
    3d80:	00a7bc03 	adceq	fp, r7, r3, lsl #24
    3d84:	52011000 	andpl	r1, r1, #0, 0
    3d88:	a9ac0305 	stmibge	ip!, {r0, r2, r8, r9}
    3d8c:	01100000 	tsteq	r0, r0
    3d90:	77080253 	smlsdvc	r8, r3, r2, r0
    3d94:	007d0210 	rsbseq	r0, sp, r0, lsl r2
    3d98:	5001f303 	andpl	pc, r1, r3, lsl #6
    3d9c:	9ee01100 	cdpls	1, 14, cr1, cr0, cr0, {0}
    3da0:	08c80000 	stmiaeq	r8, {}^	; <UNPREDICTABLE>
    3da4:	12000000 	andne	r0, r0, #0, 0
    3da8:	0000007e 	andeq	r0, r0, lr, ror r0
    3dac:	00000174 	andeq	r0, r0, r4, ror r1
    3db0:	00002c13 	andeq	r2, r0, r3, lsl ip
    3db4:	05000900 	streq	r0, [r0, #-2304]	; 0xfffff700
    3db8:	00000164 	andeq	r0, r0, r4, ror #2
    3dbc:	000a1114 	andeq	r1, sl, r4, lsl r1
    3dc0:	06720100 	ldrbteq	r0, [r2], -r0, lsl #2
    3dc4:	00009e7c 	andeq	r9, r0, ip, ror lr
    3dc8:	00000014 	andeq	r0, r0, r4, lsl r0
    3dcc:	090c9c01 	stmdbeq	ip, {r0, sl, fp, ip, pc}
    3dd0:	01000002 	tsteq	r0, r2
    3dd4:	9e78066f 	cdpls	6, 7, cr0, cr8, cr15, {3}
    3dd8:	00040000 	andeq	r0, r4, r0
    3ddc:	9c010000 	stcls	0, cr0, [r1], {-0}
    3de0:	000001ae 	andeq	r0, r0, lr, lsr #3
    3de4:	01007015 	tsteq	r0, r5, lsl r0
    3de8:	008a126f 	addeq	r1, sl, pc, ror #4
    3dec:	50010000 	andpl	r0, r1, r0
    3df0:	0ab01600 	beq	fec095f8 <__bss_end__+0xfebfe800>
    3df4:	5e010000 	cdppl	0, 0, cr0, cr1, cr0, {0}
    3df8:	00008a07 	andeq	r8, r0, r7, lsl #20
    3dfc:	009d6000 	addseq	r6, sp, r0
    3e00:	00011800 	andeq	r1, r1, r0, lsl #16
    3e04:	2c9c0100 	ldfcss	f0, [ip], {0}
    3e08:	17000004 	strne	r0, [r0, -r4]
    3e0c:	000002b2 			; <UNDEFINED> instruction: 0x000002b2
    3e10:	2c205e01 	stccs	14, cr5, [r0], #-4
    3e14:	f3000000 	vhadd.u8	d0, d0, d0
    3e18:	df000025 	svcle	0x00000025
    3e1c:	17000025 	strne	r0, [r0, -r5, lsr #32]
    3e20:	00000a2d 	andeq	r0, r0, sp, lsr #20
    3e24:	2c315e01 	ldccs	14, cr5, [r1], #-4
    3e28:	8c000000 	stchi	0, cr0, [r0], {-0}
    3e2c:	78000026 	stmdavc	r0, {r1, r2, r5}
    3e30:	0e000026 	cdpeq	0, 0, cr0, cr0, cr6, {1}
    3e34:	0000006c 	andeq	r0, r0, ip, rrx
    3e38:	0000043c 	andeq	r0, r0, ip, lsr r4
    3e3c:	a9940305 	ldmibge	r4, {r0, r2, r8, r9}
    3e40:	68180000 	ldmdavs	r8, {}	; <UNPREDICTABLE>
    3e44:	0e660100 	poweqs	f0, f6, f0
    3e48:	0000002c 	andeq	r0, r0, ip, lsr #32
    3e4c:	00002742 	andeq	r2, r0, r2, asr #14
    3e50:	00002736 	andeq	r2, r0, r6, lsr r7
    3e54:	00085419 	andeq	r5, r8, r9, lsl r4
    3e58:	009d7000 	addseq	r7, sp, r0
    3e5c:	9d700400 	cfldrdls	mvd0, [r0, #-0]
    3e60:	00040000 	andeq	r0, r4, r0
    3e64:	60010000 	andvs	r0, r1, r0
    3e68:	00023805 	andeq	r3, r2, r5, lsl #16
    3e6c:	08651a00 	stmdaeq	r5!, {r9, fp, ip}^
    3e70:	27960000 	ldrcs	r0, [r6, r0]
    3e74:	27940000 	ldrcs	r0, [r4, r0]
    3e78:	19000000 	stmdbne	r0, {}	; <UNPREDICTABLE>
    3e7c:	00000896 	muleq	r0, r6, r8
    3e80:	00009d7c 	andeq	r9, r0, ip, ror sp
    3e84:	009d7c02 	addseq	r7, sp, r2, lsl #24
    3e88:	00000800 	andeq	r0, r0, r0, lsl #16
    3e8c:	11610100 	cmnne	r1, r0, lsl #2
    3e90:	0000026c 	andeq	r0, r0, ip, ror #4
    3e94:	0008b11a 	andeq	fp, r8, sl, lsl r1
    3e98:	0027ab00 	eoreq	sl, r7, r0, lsl #22
    3e9c:	0027a900 	eoreq	sl, r7, r0, lsl #18
    3ea0:	08a71a00 	stmiaeq	r7!, {r9, fp, ip}
    3ea4:	27c10000 	strbcs	r0, [r1, r0]
    3ea8:	27bf0000 	ldrcs	r0, [pc, r0]!
    3eac:	1b000000 	blne	3eb4 <__code_start__-0x414c>
    3eb0:	0000081f 	andeq	r0, r0, pc, lsl r8
    3eb4:	00009d8c 	andeq	r9, r0, ip, lsl #27
    3eb8:	0003d001 	andeq	sp, r3, r1
    3ebc:	09670100 	stmdbeq	r7!, {r8}^
    3ec0:	0000030a 	andeq	r0, r0, sl, lsl #6
    3ec4:	00083a1a 	andeq	r3, r8, sl, lsl sl
    3ec8:	0027da00 	eoreq	sp, r7, r0, lsl #20
    3ecc:	0027d400 	eoreq	sp, r7, r0, lsl #8
    3ed0:	08301a00 	ldmdaeq	r0!, {r9, fp, ip}
    3ed4:	28210000 	stmdacs	r1!, {}	; <UNPREDICTABLE>
    3ed8:	28190000 	ldmdacs	r9, {}	; <UNPREDICTABLE>
    3edc:	d01c0000 	andsle	r0, ip, r0
    3ee0:	19000003 	stmdbne	r0, {r0, r1}
    3ee4:	00000854 	andeq	r0, r0, r4, asr r8
    3ee8:	00009d8c 	andeq	r9, r0, ip, lsl #27
    3eec:	009d8c04 	addseq	r8, sp, r4, lsl #24
    3ef0:	00000400 	andeq	r0, r0, r0, lsl #8
    3ef4:	05110100 	ldreq	r0, [r1, #-256]	; 0xffffff00
    3ef8:	000002c7 	andeq	r0, r0, r7, asr #5
    3efc:	0008651a 	andeq	r6, r8, sl, lsl r5
    3f00:	00285f00 	eoreq	r5, r8, r0, lsl #30
    3f04:	00285d00 	eoreq	r5, r8, r0, lsl #26
    3f08:	240f0000 	strcs	r0, [pc], #-0	; 3f10 <__code_start__-0x40f0>
    3f0c:	bc00009e 	stclt	0, cr0, [r0], {158}	; 0x9e
    3f10:	ff000008 			; <UNDEFINED> instruction: 0xff000008
    3f14:	10000002 	andne	r0, r0, r2
    3f18:	03055001 	movweq	r5, #20481	; 0x5001
    3f1c:	0000a1ac 	andeq	sl, r0, ip, lsr #3
    3f20:	05510110 	ldrbeq	r0, [r1, #-272]	; 0xfffffef0
    3f24:	00a7bc03 	adceq	fp, r7, r3, lsl #24
    3f28:	52011000 	andpl	r1, r1, #0, 0
    3f2c:	a9a40305 	stmibge	r4!, {r0, r2, r8, r9}
    3f30:	01100000 	tsteq	r0, r0
    3f34:	10410153 	subne	r0, r1, r3, asr r1
    3f38:	05007d02 	streq	r7, [r0, #-3330]	; 0xfffff2fe
    3f3c:	00a8d003 	adceq	sp, r8, r3
    3f40:	28110000 	ldmdacs	r1, {}	; <UNPREDICTABLE>
    3f44:	c800009e 	stmdagt	r0, {r1, r2, r3, r4, r7}
    3f48:	00000008 	andeq	r0, r0, r8
    3f4c:	08701900 	ldmdaeq	r0!, {r8, fp, ip}^
    3f50:	9da40000 	stcls	0, cr0, [r4]
    3f54:	a4030000 	strge	r0, [r3], #-0
    3f58:	0400009d 	streq	r0, [r0], #-157	; 0xffffff63
    3f5c:	01000000 	mrseq	r0, (UNDEF: 0)
    3f60:	033e0568 	teqeq	lr, #104, 10	; 0x1a000000
    3f64:	8b1a0000 	blhi	683f6c <__bss_end__+0x679174>
    3f68:	74000008 	strvc	r0, [r0], #-8
    3f6c:	72000028 	andvc	r0, r0, #40, 0	; 0x28
    3f70:	1a000028 	bne	4018 <__code_start__-0x3fe8>
    3f74:	00000881 	andeq	r0, r0, r1, lsl #17
    3f78:	00002889 	andeq	r2, r0, r9, lsl #17
    3f7c:	00002887 	andeq	r2, r0, r7, lsl #17
    3f80:	9dbc0f00 	ldcls	15, cr0, [ip]
    3f84:	04410000 	strbeq	r0, [r1], #-0
    3f88:	03530000 	cmpeq	r3, #0, 0
    3f8c:	01100000 	tsteq	r0, r0
    3f90:	01f30350 	mvnseq	r0, r0, asr r3
    3f94:	e00f0050 	and	r0, pc, r0, asr r0	; <UNPREDICTABLE>
    3f98:	bc00009d 	stclt	0, cr0, [r0], {157}	; 0x9d
    3f9c:	8c000008 	stchi	0, cr0, [r0], {8}
    3fa0:	10000003 	andne	r0, r0, r3
    3fa4:	03055001 	movweq	r5, #20481	; 0x5001
    3fa8:	0000a1ac 	andeq	sl, r0, ip, lsr #3
    3fac:	05510110 	ldrbeq	r0, [r1, #-272]	; 0xfffffef0
    3fb0:	00a7bc03 	adceq	fp, r7, r3, lsl #24
    3fb4:	52011000 	andpl	r1, r1, #0, 0
    3fb8:	a9940305 	ldmibge	r4, {r0, r2, r8, r9}
    3fbc:	01100000 	tsteq	r0, r0
    3fc0:	5f080253 	svcpl	0x00080253
    3fc4:	007d0210 	rsbseq	r0, sp, r0, lsl r2
    3fc8:	a7cc0305 	strbge	r0, [ip, r5, lsl #6]
    3fcc:	11000000 	mrsne	r0, (UNDEF: 0)
    3fd0:	00009de4 	andeq	r9, r0, r4, ror #27
    3fd4:	000008c8 	andeq	r0, r0, r8, asr #17
    3fd8:	009de811 	addseq	lr, sp, r1, lsl r8
    3fdc:	0008d400 	andeq	sp, r8, r0, lsl #8
    3fe0:	9e040f00 	cdpls	15, 0, cr0, cr4, cr0, {0}
    3fe4:	08bc0000 	ldmeq	ip!, {}	; <UNPREDICTABLE>
    3fe8:	03d70000 	bicseq	r0, r7, #0, 0
    3fec:	01100000 	tsteq	r0, r0
    3ff0:	88030550 	stmdahi	r3, {r4, r6, r8, sl}
    3ff4:	100000a8 	andne	r0, r0, r8, lsr #1
    3ff8:	03055101 	movweq	r5, #20737	; 0x5101
    3ffc:	0000a7bc 			; <UNDEFINED> instruction: 0x0000a7bc
    4000:	05520110 	ldrbeq	r0, [r2, #-272]	; 0xfffffef0
    4004:	00a99403 	adceq	r9, r9, r3, lsl #8
    4008:	53011000 	movwpl	r1, #4096	; 0x1000
    400c:	10600802 	rsbne	r0, r0, r2, lsl #16
    4010:	05007d02 	streq	r7, [r0, #-3330]	; 0xfffff2fe
    4014:	00a8bc03 	adceq	fp, r8, r3, lsl #24
    4018:	08110000 	ldmdaeq	r1, {}	; <UNPREDICTABLE>
    401c:	c800009e 	stmdagt	r0, {r1, r2, r3, r4, r7}
    4020:	11000008 	tstne	r0, r8
    4024:	00009e2c 	andeq	r9, r0, ip, lsr #28
    4028:	000008d4 	ldrdeq	r0, [r0], -r4
    402c:	009e480f 	addseq	r4, lr, pc, lsl #16
    4030:	0008bc00 	andeq	fp, r8, r0, lsl #24
    4034:	00042200 	andeq	r2, r4, r0, lsl #4
    4038:	50011000 	andpl	r1, r1, r0
    403c:	a8dc0305 	ldmge	ip, {r0, r2, r8, r9}^
    4040:	01100000 	tsteq	r0, r0
    4044:	bc030551 	cfstr32lt	mvfx0, [r3], {81}	; 0x51
    4048:	100000a7 	andne	r0, r0, r7, lsr #1
    404c:	03055201 	movweq	r5, #20993	; 0x5201
    4050:	0000a994 	muleq	r0, r4, r9
    4054:	02530110 	subseq	r0, r3, #4
    4058:	02106808 	andseq	r6, r0, #8, 16	; 0x80000
    405c:	0305007d 	movweq	r0, #20605	; 0x507d
    4060:	0000a908 	andeq	sl, r0, r8, lsl #18
    4064:	9e4c1100 	dvflse	f1, f4, f0
    4068:	08c80000 	stmiaeq	r8, {}^	; <UNPREDICTABLE>
    406c:	12000000 	andne	r0, r0, #0, 0
    4070:	0000007e 	andeq	r0, r0, lr, ror r0
    4074:	0000043c 	andeq	r0, r0, ip, lsr r4
    4078:	00002c13 	andeq	r2, r0, r3, lsl ip
    407c:	05000f00 	streq	r0, [r0, #-3840]	; 0xfffff100
    4080:	0000042c 	andeq	r0, r0, ip, lsr #8
    4084:	0003f516 	andeq	pc, r3, r6, lsl r5	; <UNPREDICTABLE>
    4088:	07530100 	ldrbeq	r0, [r3, -r0, lsl #2]
    408c:	0000008a 	andeq	r0, r0, sl, lsl #1
    4090:	00009cfc 	strdeq	r9, [r0], -ip
    4094:	00000064 	andeq	r0, r0, r4, rrx
    4098:	05089c01 	streq	r9, [r8, #-3073]	; 0xfffff3ff
    409c:	b2170000 	andslt	r0, r7, #0, 0
    40a0:	01000002 	tsteq	r0, r2
    40a4:	002c1853 	eoreq	r1, ip, r3, asr r8
    40a8:	28a40000 	stmiacs	r4!, {}	; <UNPREDICTABLE>
    40ac:	289c0000 	ldmcs	ip, {}	; <UNPREDICTABLE>
    40b0:	6c0e0000 	stcvs	0, cr0, [lr], {-0}
    40b4:	18000000 	stmdane	r0, {}	; <UNPREDICTABLE>
    40b8:	05000005 	streq	r0, [r0, #-5]
    40bc:	00a98c03 	adceq	r8, r9, r3, lsl #24
    40c0:	0a031d00 	beq	cb4c8 <__bss_end__+0xc06d0>
    40c4:	55010000 	strpl	r0, [r1, #-0]
    40c8:	00008a0b 	andeq	r8, r0, fp, lsl #20
    40cc:	0028dc00 	eoreq	sp, r8, r0, lsl #24
    40d0:	0028d800 	eoreq	sp, r8, r0, lsl #16
    40d4:	9d140f00 	ldcls	15, cr0, [r4, #-0]
    40d8:	051d0000 	ldreq	r0, [sp, #-0]
    40dc:	04a60000 	strteq	r0, [r6], #0
    40e0:	01100000 	tsteq	r0, r0
    40e4:	00740250 	rsbseq	r0, r4, r0, asr r2
    40e8:	9d240f00 	stcls	15, cr0, [r4, #-0]
    40ec:	08e00000 	stmiaeq	r0!, {}^	; <UNPREDICTABLE>
    40f0:	04c50000 	strbeq	r0, [r5], #0
    40f4:	01100000 	tsteq	r0, r0
    40f8:	00750250 	rsbseq	r0, r5, r0, asr r2
    40fc:	01510110 	cmpeq	r1, r0, lsl r1
    4100:	52011030 	andpl	r1, r1, #48, 0	; 0x30
    4104:	00007402 	andeq	r7, r0, r2, lsl #8
    4108:	009d4c0f 	addseq	r4, sp, pc, lsl #24
    410c:	0008bc00 	andeq	fp, r8, r0, lsl #24
    4110:	0004fe00 	andeq	pc, r4, r0, lsl #28
    4114:	50011000 	andpl	r1, r1, r0
    4118:	a1ac0305 			; <UNDEFINED> instruction: 0xa1ac0305
    411c:	01100000 	tsteq	r0, r0
    4120:	bc030551 	cfstr32lt	mvfx0, [r3], {81}	; 0x51
    4124:	100000a7 	andne	r0, r0, r7, lsr #1
    4128:	03055201 	movweq	r5, #20993	; 0x5201
    412c:	0000a98c 	andeq	sl, r0, ip, lsl #19
    4130:	02530110 	subseq	r0, r3, #4
    4134:	02105408 	andseq	r5, r0, #8, 8	; 0x8000000
    4138:	0305007d 	movweq	r0, #20605	; 0x507d
    413c:	0000a7cc 	andeq	sl, r0, ip, asr #15
    4140:	9d501100 	ldflse	f1, [r0, #-0]
    4144:	08c80000 	stmiaeq	r8, {}^	; <UNPREDICTABLE>
    4148:	12000000 	andne	r0, r0, #0, 0
    414c:	0000007e 	andeq	r0, r0, lr, ror r0
    4150:	00000518 	andeq	r0, r0, r8, lsl r5
    4154:	00002c13 	andeq	r2, r0, r3, lsl ip
    4158:	05000700 	streq	r0, [r0, #-1792]	; 0xfffff900
    415c:	00000508 	andeq	r0, r0, r8, lsl #10
    4160:	000a5616 	andeq	r5, sl, r6, lsl r6
    4164:	07470100 	strbeq	r0, [r7, -r0, lsl #2]
    4168:	0000008a 	andeq	r0, r0, sl, lsl #1
    416c:	00009c64 	andeq	r9, r0, r4, ror #24
    4170:	00000098 	muleq	r0, r8, r0
    4174:	062b9c01 	strteq	r9, [fp], -r1, lsl #24
    4178:	b2170000 	andslt	r0, r7, #0, 0
    417c:	01000002 	tsteq	r0, r2
    4180:	002c2047 	eoreq	r2, ip, r7, asr #32
    4184:	290a0000 	stmdbcs	sl, {}	; <UNPREDICTABLE>
    4188:	28fa0000 	ldmcs	sl!, {}^	; <UNPREDICTABLE>
    418c:	6c0e0000 	stcvs	0, cr0, [lr], {-0}
    4190:	3c000000 	stccc	0, cr0, [r0], {-0}
    4194:	05000004 	streq	r0, [r0, #-4]
    4198:	00a97c03 	adceq	r7, r9, r3, lsl #24
    419c:	0a031d00 	beq	cb5a4 <__bss_end__+0xc07ac>
    41a0:	4b010000 	blmi	441a8 <__bss_end__+0x393b0>
    41a4:	00008a0b 	andeq	r8, r0, fp, lsl #20
    41a8:	00297c00 	eoreq	r7, r9, r0, lsl #24
    41ac:	00297800 	eoreq	r7, r9, r0, lsl #16
    41b0:	081f1b00 	ldmdaeq	pc, {r8, r9, fp, ip}	; <UNPREDICTABLE>
    41b4:	9c740000 	ldclls	0, cr0, [r4], #-0
    41b8:	b8030000 	stmdalt	r3, {}	; <UNPREDICTABLE>
    41bc:	01000003 	tsteq	r0, r3
    41c0:	05a30e49 	streq	r0, [r3, #3657]!	; 0xe49
    41c4:	3a1a0000 	bcc	6841cc <__bss_end__+0x6793d4>
    41c8:	9c000008 	stcls	0, cr0, [r0], {8}
    41cc:	9a000029 	bls	4278 <__code_start__-0x3d88>
    41d0:	1a000029 	bne	427c <__code_start__-0x3d84>
    41d4:	00000830 	andeq	r0, r0, r0, lsr r8
    41d8:	000029b4 			; <UNDEFINED> instruction: 0x000029b4
    41dc:	000029b0 			; <UNDEFINED> instruction: 0x000029b0
    41e0:	0003b81e 	andeq	fp, r3, lr, lsl r8
    41e4:	bc0f0000 	stclt	0, cr0, [pc], {-0}
    41e8:	bc00009c 	stclt	0, cr0, [r0], {156}	; 0x9c
    41ec:	dc000008 	stcle	0, cr0, [r0], {8}
    41f0:	10000005 	andne	r0, r0, r5
    41f4:	03055001 	movweq	r5, #20481	; 0x5001
    41f8:	0000a1ac 	andeq	sl, r0, ip, lsr #3
    41fc:	05510110 	ldrbeq	r0, [r1, #-272]	; 0xfffffef0
    4200:	00a7bc03 	adceq	fp, r7, r3, lsl #24
    4204:	52011000 	andpl	r1, r1, #0, 0
    4208:	a97c0305 	ldmdbge	ip!, {r0, r2, r8, r9}^
    420c:	01100000 	tsteq	r0, r0
    4210:	48080253 	stmdami	r8, {r0, r1, r4, r6, r9}
    4214:	007d0210 	rsbseq	r0, sp, r0, lsl r2
    4218:	a7cc0305 	strbge	r0, [ip, r5, lsl #6]
    421c:	11000000 	mrsne	r0, (UNDEF: 0)
    4220:	00009cc0 	andeq	r9, r0, r0, asr #25
    4224:	000008c8 	andeq	r0, r0, r8, asr #17
    4228:	009ce00f 	addseq	lr, ip, pc
    422c:	0008bc00 	andeq	fp, r8, r0, lsl #24
    4230:	00062100 	andeq	r2, r6, r0, lsl #2
    4234:	50011000 	andpl	r1, r1, r0
    4238:	a8480305 	stmdage	r8, {r0, r2, r8, r9}^
    423c:	01100000 	tsteq	r0, r0
    4240:	bc030551 	cfstr32lt	mvfx0, [r3], {81}	; 0x51
    4244:	100000a7 	andne	r0, r0, r7, lsr #1
    4248:	03055201 	movweq	r5, #20993	; 0x5201
    424c:	0000a97c 	andeq	sl, r0, ip, ror r9
    4250:	02530110 	subseq	r0, r3, #4
    4254:	02104e08 	andseq	r4, r0, #8, 28	; 0x80
    4258:	f308007d 	vqadd.u8	q0, q4, <illegal reg q14.5>
    425c:	07235001 	streq	r5, [r3, -r1]!
    4260:	001af809 	andseq	pc, sl, r9, lsl #16
    4264:	009ce411 	addseq	lr, ip, r1, lsl r4
    4268:	0008c800 	andeq	ip, r8, r0, lsl #16
    426c:	780c0000 	stmdavc	ip, {}	; <UNPREDICTABLE>
    4270:	0100000a 	tsteq	r0, sl
    4274:	9c0c063c 	stcls	6, cr0, [ip], {60}	; 0x3c
    4278:	00580000 	subseq	r0, r8, r0
    427c:	9c010000 	stcls	0, cr0, [r1], {-0}
    4280:	000006cf 	andeq	r0, r0, pc, asr #13
    4284:	00034d0a 	andeq	r4, r3, sl, lsl #26
    4288:	103d0100 	eorsne	r0, sp, r0, lsl #2
    428c:	00000025 	andeq	r0, r0, r5, lsr #32
    4290:	adf40305 	ldclge	3, cr0, [r4, #20]!
    4294:	6c0e0000 	stcvs	0, cr0, [lr], {-0}
    4298:	df000000 	svcle	0x00000000
    429c:	05000006 	streq	r0, [r0, #-6]
    42a0:	00a96c03 	adceq	r6, r9, r3, lsl #24
    42a4:	04070700 	streq	r0, [r7], #-1792	; 0xfffff900
    42a8:	0000002c 	andeq	r0, r0, ip, lsr #32
    42ac:	7a0a4201 	bvc	294ab8 <__bss_end__+0x289cc0>
    42b0:	08000006 	stmdaeq	r0, {r1, r2}
    42b4:	00000a3f 	andeq	r0, r0, pc, lsr sl
    42b8:	00100000 	andseq	r0, r0, r0
    42bc:	9c380f00 	ldcls	15, cr0, [r8], #-0
    42c0:	06e40000 	strbteq	r0, [r4], r0
    42c4:	06960000 	ldreq	r0, [r6], r0
    42c8:	01100000 	tsteq	r0, r0
    42cc:	40400350 	submi	r0, r0, r0, asr r3
    42d0:	51011024 	tstpl	r1, r4, lsr #32
    42d4:	24484003 	strbcs	r4, [r8], #-3
    42d8:	9c500f00 	mrrcls	15, 0, r0, r0, cr0	; <UNPREDICTABLE>
    42dc:	08bc0000 	ldmeq	ip!, {}	; <UNPREDICTABLE>
    42e0:	06c50000 	strbeq	r0, [r5], r0
    42e4:	01100000 	tsteq	r0, r0
    42e8:	18030550 	stmdane	r3, {r4, r6, r8, sl}
    42ec:	100000a8 	andne	r0, r0, r8, lsr #1
    42f0:	03055101 	movweq	r5, #20737	; 0x5101
    42f4:	0000a7bc 			; <UNDEFINED> instruction: 0x0000a7bc
    42f8:	05520110 	ldrbeq	r0, [r2, #-272]	; 0xfffffef0
    42fc:	00a96c03 	adceq	r6, r9, r3, lsl #24
    4300:	53011000 	movwpl	r1, #4096	; 0x1000
    4304:	00400802 	subeq	r0, r0, r2, lsl #16
    4308:	009c5411 	addseq	r5, ip, r1, lsl r4
    430c:	0008c800 	andeq	ip, r8, r0, lsl #16
    4310:	7e120000 	cdpvc	0, 1, cr0, cr2, cr0, {0}
    4314:	df000000 	svcle	0x00000000
    4318:	13000006 	movwne	r0, #6
    431c:	0000002c 	andeq	r0, r0, ip, lsr #32
    4320:	cf05000c 	svcgt	0x0005000c
    4324:	0c000006 	stceq	0, cr0, [r0], {6}
    4328:	000003fd 	strdeq	r0, [r0], -sp
    432c:	70062d01 	andvc	r2, r6, r1, lsl #26
    4330:	9c00009b 	stcls	0, cr0, [r0], {155}	; 0x9b
    4334:	01000000 	mrseq	r0, (UNDEF: 0)
    4338:	0007c89c 	muleq	r7, ip, r8
    433c:	0a021700 	beq	89f44 <__bss_end__+0x7f14c>
    4340:	2d010000 	stccs	0, cr0, [r1, #-0]
    4344:	00002c26 	andeq	r2, r0, r6, lsr #24
    4348:	0029e200 	eoreq	lr, r9, r0, lsl #4
    434c:	0029d400 	eoreq	sp, r9, r0, lsl #8
    4350:	09f71700 	ldmibeq	r7!, {r8, r9, sl, ip}^
    4354:	2d010000 	stccs	0, cr0, [r1, #-0]
    4358:	00002c36 	andeq	r2, r0, r6, lsr ip
    435c:	002a4a00 	eoreq	r4, sl, r0, lsl #20
    4360:	002a4200 	eoreq	r4, sl, r0, lsl #4
    4364:	0a031d00 	beq	cb76c <__bss_end__+0xc0974>
    4368:	2e010000 	cdpcs	0, 0, cr0, cr1, cr0, {0}
    436c:	0000c20b 	andeq	ip, r0, fp, lsl #4
    4370:	002a9200 	eoreq	r9, sl, r0, lsl #4
    4374:	002a8400 	eoreq	r8, sl, r0, lsl #8
    4378:	006c0e00 	rsbeq	r0, ip, r0, lsl #28
    437c:	07d80000 	ldrbeq	r0, [r8, r0]
    4380:	03050000 	movweq	r0, #20480	; 0x5000
    4384:	0000a954 	andeq	sl, r0, r4, asr r9
    4388:	009bc80f 	addseq	ip, fp, pc, lsl #16
    438c:	0008bc00 	andeq	fp, r8, r0, lsl #24
    4390:	00077e00 	andeq	r7, r7, r0, lsl #28
    4394:	50011000 	andpl	r1, r1, r0
    4398:	a1ac0305 			; <UNDEFINED> instruction: 0xa1ac0305
    439c:	01100000 	tsteq	r0, r0
    43a0:	bc030551 	cfstr32lt	mvfx0, [r3], {81}	; 0x51
    43a4:	100000a7 	andne	r0, r0, r7, lsr #1
    43a8:	03055201 	movweq	r5, #20993	; 0x5201
    43ac:	0000a954 	andeq	sl, r0, r4, asr r9
    43b0:	02530110 	subseq	r0, r3, #4
    43b4:	02103008 	andseq	r3, r0, #8, 0
    43b8:	0305007d 	movweq	r0, #20605	; 0x507d
    43bc:	0000a7c8 	andeq	sl, r0, r8, asr #15
    43c0:	9bcc1100 	blls	ff3087c8 <__bss_end__+0xff2fd9d0>
    43c4:	08c80000 	stmiaeq	r8, {}^	; <UNPREDICTABLE>
    43c8:	f00f0000 			; <UNDEFINED> instruction: 0xf00f0000
    43cc:	bc00009b 	stclt	0, cr0, [r0], {155}	; 0x9b
    43d0:	be000008 	cdplt	0, 0, cr0, cr0, cr8, {0}
    43d4:	10000007 	andne	r0, r0, r7
    43d8:	03055001 	movweq	r5, #20481	; 0x5001
    43dc:	0000a7d4 	ldrdeq	sl, [r0], -r4
    43e0:	05510110 	ldrbeq	r0, [r1, #-272]	; 0xfffffef0
    43e4:	00a7bc03 	adceq	fp, r7, r3, lsl #24
    43e8:	52011000 	andpl	r1, r1, #0, 0
    43ec:	a9540305 	ldmdbge	r4, {r0, r2, r8, r9}^
    43f0:	01100000 	tsteq	r0, r0
    43f4:	34080253 	strcc	r0, [r8], #-595	; 0xfffffdad
    43f8:	007d0210 	rsbseq	r0, sp, r0, lsl r2
    43fc:	5001f303 	andpl	pc, r1, r3, lsl #6
    4400:	9bf41100 	blls	ffd08808 <__bss_end__+0xffcfda10>
    4404:	08c80000 	stmiaeq	r8, {}^	; <UNPREDICTABLE>
    4408:	12000000 	andne	r0, r0, #0, 0
    440c:	0000007e 	andeq	r0, r0, lr, ror r0
    4410:	000007d8 	ldrdeq	r0, [r0], -r8
    4414:	00002c13 	andeq	r2, r0, r3, lsl ip
    4418:	05001600 	streq	r1, [r0, #-1536]	; 0xfffffa00
    441c:	000007c8 	andeq	r0, r0, r8, asr #15
    4420:	000a901f 	andeq	r9, sl, pc, lsl r0
    4424:	072a0100 	streq	r0, [sl, -r0, lsl #2]!
    4428:	0000008a 	andeq	r0, r0, sl, lsl #1
    442c:	00009b60 	andeq	r9, r0, r0, ror #22
    4430:	00000010 	andeq	r0, r0, r0, lsl r0
    4434:	e41f9c01 	ldr	r9, [pc], #-3073	; 443c <__code_start__-0x3bc4>
    4438:	01000009 	tsteq	r0, r9
    443c:	008a0729 	addeq	r0, sl, r9, lsr #14
    4440:	9b500000 	blls	1404448 <__bss_end__+0x13f9650>
    4444:	00100000 	andseq	r0, r0, r0
    4448:	9c010000 	stcls	0, cr0, [r1], {-0}
    444c:	000a451f 	andeq	r4, sl, pc, lsl r5
    4450:	07280100 	streq	r0, [r8, -r0, lsl #2]!
    4454:	0000008a 	andeq	r0, r0, sl, lsl #1
    4458:	00009b40 	andeq	r9, r0, r0, asr #22
    445c:	00000010 	andeq	r0, r0, r0, lsl r0
    4460:	1b209c01 	blne	82b46c <__bss_end__+0x820674>
    4464:	0100000a 	tsteq	r0, sl
    4468:	002c1810 	eoreq	r1, ip, r0, lsl r8
    446c:	54030000 	strpl	r0, [r3], #-0
    4470:	21000008 	tstcs	r0, r8
    4474:	10010078 	andne	r0, r1, r8, ror r0
    4478:	00002c29 	andeq	r2, r0, r9, lsr #24
    447c:	006e2100 	rsbeq	r2, lr, r0, lsl #2
    4480:	2c351001 	ldccs	0, cr1, [r5], #-4
    4484:	0e000000 	cdpeq	0, 0, cr0, cr0, cr0, {0}
    4488:	0000006c 	andeq	r0, r0, ip, rrx
    448c:	00000518 	andeq	r0, r0, r8, lsl r5
    4490:	a9a40305 	stmibge	r4!, {r0, r2, r8, r9}
    4494:	20000000 	andcs	r0, r0, r0
    4498:	00000a66 	andeq	r0, r0, r6, ror #20
    449c:	2c180d01 	ldccs	13, cr0, [r8], {1}
    44a0:	03000000 	movweq	r0, #0
    44a4:	00000870 	andeq	r0, r0, r0, ror r8
    44a8:	01007821 	tsteq	r0, r1, lsr #16
    44ac:	002c290d 	eoreq	r2, ip, sp, lsl #18
    44b0:	20000000 	andcs	r0, r0, r0
    44b4:	00000a85 	andeq	r0, r0, r5, lsl #21
    44b8:	2c180701 	ldccs	7, cr0, [r8], {1}
    44bc:	03000000 	movweq	r0, #0
    44c0:	00000896 	muleq	r0, r6, r8
    44c4:	01007821 	tsteq	r0, r1, lsr #16
    44c8:	002c2c07 	eoreq	r2, ip, r7, lsl #24
    44cc:	6e210000 	cdpvs	0, 2, cr0, cr1, cr0, {0}
    44d0:	38070100 	stmdacc	r7, {r8}
    44d4:	0000002c 	andeq	r0, r0, ip, lsr #32
    44d8:	0a372000 	beq	dcc4e0 <__bss_end__+0xdc16e8>
    44dc:	04010000 	streq	r0, [r1], #-0
    44e0:	00005d18 	andeq	r5, r0, r8, lsl sp
    44e4:	08bc0300 	ldmeq	ip!, {r8, r9}
    44e8:	78210000 	stmdavc	r1!, {}	; <UNPREDICTABLE>
    44ec:	29040100 	stmdbcs	r4, {r8}
    44f0:	0000005d 	andeq	r0, r0, sp, asr r0
    44f4:	01007921 	tsteq	r0, r1, lsr #18
    44f8:	005d3504 	subseq	r3, sp, r4, lsl #10
    44fc:	22000000 	andcs	r0, r0, #0, 0
    4500:	00000546 	andeq	r0, r0, r6, asr #10
    4504:	00000546 	andeq	r0, r0, r6, asr #10
    4508:	22062802 	andcs	r2, r6, #131072	; 0x20000
    450c:	00000040 	andeq	r0, r0, r0, asr #32
    4510:	00000040 	andeq	r0, r0, r0, asr #32
    4514:	22066e02 	andcs	r6, r6, #2, 28
    4518:	00000aa1 	andeq	r0, r0, r1, lsr #21
    451c:	00000aa1 	andeq	r0, r0, r1, lsr #21
    4520:	22061d02 	andcs	r1, r6, #128	; 0x80
    4524:	00000060 	andeq	r0, r0, r0, rrx
    4528:	00000060 	andeq	r0, r0, r0, rrx
    452c:	0007f202 	andeq	pc, r7, r2, lsl #4
    4530:	00000673 	andeq	r0, r0, r3, ror r6
    4534:	17130004 	ldrne	r0, [r3, -r4]
    4538:	01040000 	mrseq	r0, (UNDEF: 4)
    453c:	00000464 	andeq	r0, r0, r4, ror #8
    4540:	000af30c 	andeq	pc, sl, ip, lsl #6
    4544:	00051c00 	andeq	r1, r5, r0, lsl #24
    4548:	009ef000 	addseq	pc, lr, r0
    454c:	00019800 	andeq	r9, r1, r0, lsl #16
    4550:	00228700 	eoreq	r8, r2, r0, lsl #14
    4554:	07080200 	streq	r0, [r8, -r0, lsl #4]
    4558:	00000086 	andeq	r0, r0, r6, lsl #1
    455c:	90070402 	andls	r0, r7, r2, lsl #8
    4560:	03000000 	movweq	r0, #0
    4564:	6e690504 	cdpvs	5, 6, cr0, cr9, cr4, {0}
    4568:	2c040074 	stccs	0, cr0, [r4], {116}	; 0x74
    456c:	02000000 	andeq	r0, r0, #0, 0
    4570:	00340601 	eorseq	r0, r4, r1, lsl #12
    4574:	02020000 	andeq	r0, r2, #0, 0
    4578:	0000f105 	andeq	pc, r0, r5, lsl #2
    457c:	05040200 	streq	r0, [r4, #-512]	; 0xfffffe00
    4580:	000000b6 	strheq	r0, [r0], -r6
    4584:	b1050802 	tstlt	r5, r2, lsl #16
    4588:	02000000 	andeq	r0, r0, #0, 0
    458c:	00320801 	eorseq	r0, r2, r1, lsl #16
    4590:	02020000 	andeq	r0, r2, #0, 0
    4594:	00004d07 	andeq	r4, r0, r7, lsl #26
    4598:	02480500 	subeq	r0, r8, #0, 10
    459c:	34030000 	strcc	r0, [r3], #-0
    45a0:	00007519 	andeq	r7, r0, r9, lsl r5
    45a4:	07040200 	streq	r0, [r4, -r0, lsl #4]
    45a8:	0000008b 	andeq	r0, r0, fp, lsl #1
    45ac:	00003306 	andeq	r3, r0, r6, lsl #6
    45b0:	00008b00 	andeq	r8, r0, r0, lsl #22
    45b4:	00330700 	eorseq	r0, r3, r0, lsl #14
    45b8:	08000000 	stmdaeq	r0, {}	; <UNPREDICTABLE>
    45bc:	00000105 	andeq	r0, r0, r5, lsl #2
    45c0:	970e1c02 	strls	r1, [lr, -r2, lsl #24]
    45c4:	09000000 	stmdbeq	r0, {}	; <UNPREDICTABLE>
    45c8:	00007c04 	andeq	r7, r0, r4, lsl #24
    45cc:	00330600 	eorseq	r0, r3, r0, lsl #12
    45d0:	00ac0000 	adceq	r0, ip, r0
    45d4:	ac070000 	stcge	0, cr0, [r7], {-0}
    45d8:	00000000 	andeq	r0, r0, r0
    45dc:	00b90409 	adcseq	r0, r9, r9, lsl #8
    45e0:	01020000 	mrseq	r0, (UNDEF: 2)
    45e4:	00003b08 	andeq	r3, r0, r8, lsl #22
    45e8:	00b20400 	adcseq	r0, r2, r0, lsl #8
    45ec:	84080000 	strhi	r0, [r8], #-0
    45f0:	02000005 	andeq	r0, r0, #5, 0
    45f4:	00ca0e21 	sbceq	r0, sl, r1, lsr #28
    45f8:	04090000 	streq	r0, [r9], #-0
    45fc:	0000009d 	muleq	r0, sp, r0
    4600:	5b01070a 	blpl	46230 <__bss_end__+0x3b438>
    4604:	04000000 	streq	r0, [r0], #-0
    4608:	010f0e0c 	tsteq	pc, ip, lsl #28
    460c:	bc0b0000 	stclt	0, cr0, [fp], {-0}
    4610:	00000009 	andeq	r0, r0, r9
    4614:	0007f40b 	andeq	pc, r7, fp, lsl #8
    4618:	370b0100 	strcc	r0, [fp, -r0, lsl #2]
    461c:	04000008 	streq	r0, [r0], #-8
    4620:	0008460b 	andeq	r4, r8, fp, lsl #12
    4624:	550b0500 	strpl	r0, [fp, #-1280]	; 0xfffffb00
    4628:	06000008 	streq	r0, [r0], -r8
    462c:	0008640b 	andeq	r6, r8, fp, lsl #8
    4630:	850b0700 	strhi	r0, [fp, #-1792]	; 0xfffff900
    4634:	03000009 	movweq	r0, #9
    4638:	0008730b 	andeq	r7, r8, fp, lsl #6
    463c:	05000200 	streq	r0, [r0, #-512]	; 0xfffffe00
    4640:	00000b2c 	andeq	r0, r0, ip, lsr #22
    4644:	d0031504 	andle	r1, r3, r4, lsl #10
    4648:	0c000000 	stceq	0, cr0, [r0], {-0}
    464c:	00000aca 	andeq	r0, r0, sl, asr #21
    4650:	3a171d01 	bcc	5cba5c <__bss_end__+0x5c0c64>
    4654:	1c000000 	stcne	0, cr0, [r0], {-0}
    4658:	0c202000 	stceq	0, cr2, [r0], #-0
    465c:	00000ac0 	andeq	r0, r0, r0, asr #21
    4660:	3a171e01 	bcc	5cbe6c <__bss_end__+0x5c1074>
    4664:	28000000 	stmdacs	r0, {}	; <UNPREDICTABLE>
    4668:	0c202000 	stceq	0, cr2, [r0], #-0
    466c:	00000b38 	andeq	r0, r0, r8, lsr fp
    4670:	3a171f01 	bcc	5cc27c <__bss_end__+0x5c1484>
    4674:	34000000 	strcc	r0, [r0], #-0
    4678:	0d202000 	stceq	0, cr2, [r0, #-0]
    467c:	00000ae9 	andeq	r0, r0, r9, ror #21
    4680:	33055101 	movwcc	r5, #20737	; 0x5101
    4684:	60000000 	andvs	r0, r0, r0
    4688:	280000a0 	stmdacs	r0, {r5, r7}
    468c:	01000000 	mrseq	r0, (UNDEF: 0)
    4690:	0001ba9c 	muleq	r1, ip, sl
    4694:	69700e00 	ldmdbvs	r0!, {r9, sl, fp}^
    4698:	5101006e 	tstpl	r1, lr, rrx
    469c:	00002c18 	andeq	r2, r0, r8, lsl ip
    46a0:	002af800 	eoreq	pc, sl, r0, lsl #16
    46a4:	002af200 	eoreq	pc, sl, r0, lsl #4
    46a8:	0b420f00 	bleq	10882b0 <__bss_end__+0x107d4b8>
    46ac:	52010000 	andpl	r0, r1, #0, 0
    46b0:	00002c0e 	andeq	r2, r0, lr, lsl #24
    46b4:	002b2e00 	eoreq	r2, fp, r0, lsl #28
    46b8:	002b2400 	eoreq	r2, fp, r0, lsl #8
    46bc:	666f1000 	strbtvs	r1, [pc], -r0
    46c0:	53010066 	movwpl	r0, #4198	; 0x1066
    46c4:	00002c0e 	andeq	r2, r0, lr, lsl #24
    46c8:	002b9c00 	eoreq	r9, fp, r0, lsl #24
    46cc:	002b9600 	eoreq	r9, fp, r0, lsl #12
    46d0:	a0741100 	rsbsge	r1, r4, r0, lsl #2
    46d4:	065e0000 	ldrbeq	r0, [lr], -r0
    46d8:	01120000 	tsteq	r2, r0
    46dc:	00740a50 	rsbseq	r0, r4, r0, asr sl
    46e0:	b4232535 	strtlt	r2, [r3], #-1333	; 0xfffffacb
    46e4:	02818080 	addeq	r8, r1, #128, 0	; 0x80
    46e8:	d4130000 	ldrle	r0, [r3], #-0
    46ec:	0100000a 	tsteq	r0, sl
    46f0:	a030064a 	eorsge	r0, r0, sl, asr #12
    46f4:	00300000 	eorseq	r0, r0, r0
    46f8:	9c010000 	stcls	0, cr0, [r1], {-0}
    46fc:	00000275 	andeq	r0, r0, r5, ror r2
    4700:	6e69700e 	cdpvs	0, 6, cr7, cr9, cr14, {0}
    4704:	1a4a0100 	bne	1284b0c <__bss_end__+0x1279d14>
    4708:	0000002c 	andeq	r0, r0, ip, lsr #32
    470c:	00002bd9 	ldrdeq	r2, [r0], -r9
    4710:	00002bcd 	andeq	r2, r0, sp, asr #23
    4714:	0100760e 	tsteq	r0, lr, lsl #12
    4718:	002c284a 	eoreq	r2, ip, sl, asr #16
    471c:	2c2d0000 	stccs	0, cr0, [sp], #-0
    4720:	2c290000 	stccs	0, cr0, [r9], #-0
    4724:	8d140000 	ldchi	0, cr0, [r4, #-0]
    4728:	40000003 	andmi	r0, r0, r3
    472c:	010000a0 	smlatbeq	r0, r0, r0, r0
    4730:	00000488 	andeq	r0, r0, r8, lsl #9
    4734:	35094c01 	strcc	r4, [r9, #-3073]	; 0xfffff3ff
    4738:	15000002 	strne	r0, [r0, #-2]
    473c:	0000039a 	muleq	r0, sl, r3
    4740:	00002c54 	andeq	r2, r0, r4, asr ip
    4744:	00002c4e 	andeq	r2, r0, lr, asr #24
    4748:	00a04c16 	adceq	r4, r0, r6, lsl ip
    474c:	00066a00 	andeq	r6, r6, r0, lsl #20
    4750:	50011200 	andpl	r1, r1, r0, lsl #4
    4754:	001c0c05 	andseq	r0, ip, r5, lsl #24
    4758:	01122020 	tsteq	r2, r0, lsr #32
    475c:	f3310551 	vqrshl.u64	q0, <illegal reg q0.5>, <illegal reg q0.5>
    4760:	00245001 	eoreq	r5, r4, r1
    4764:	03731700 	cmneq	r3, #0, 14
    4768:	a04c0000 	subge	r0, ip, r0
    476c:	4c020000 	stcmi	0, cr0, [r2], {-0}
    4770:	140000a0 	strne	r0, [r0], #-160	; 0xffffff60
    4774:	01000000 	mrseq	r0, (UNDEF: 0)
    4778:	8015094e 	andshi	r0, r5, lr, asr #18
    477c:	86000003 	strhi	r0, [r0], -r3
    4780:	8000002c 	andhi	r0, r0, ip, lsr #32
    4784:	1600002c 	strne	r0, [r0], -ip, lsr #32
    4788:	0000a058 	andeq	sl, r0, r8, asr r0
    478c:	0000066a 	andeq	r0, r0, sl, ror #12
    4790:	05500112 	ldrbeq	r0, [r0, #-274]	; 0xfffffeee
    4794:	2000280c 	andcs	r2, r0, ip, lsl #16
    4798:	51011220 	tstpl	r1, r0, lsr #4
    479c:	01f33105 	mvnseq	r3, r5, lsl #2
    47a0:	00002450 	andeq	r2, r0, r0, asr r4
    47a4:	0b001300 	bleq	93ac <va_printk+0x358>
    47a8:	45010000 	strmi	r0, [r1, #-0]
    47ac:	009fd806 	addseq	sp, pc, r6, lsl #16
    47b0:	00005800 	andeq	r5, r0, r0, lsl #16
    47b4:	739c0100 	orrsvc	r0, ip, #0
    47b8:	0e000003 	cdpeq	0, 0, cr0, cr0, cr3, {0}
    47bc:	006e6970 	rsbeq	r6, lr, r0, ror r9
    47c0:	2c1e4501 	cfldr32cs	mvfx4, [lr], {1}
    47c4:	b8000000 	stmdalt	r0, {}	; <UNPREDICTABLE>
    47c8:	b200002c 	andlt	r0, r0, #44, 0	; 0x2c
    47cc:	1800002c 	stmdane	r0, {r2, r3, r5}
    47d0:	000004a5 	andeq	r0, r0, r5, lsr #9
    47d4:	00009fd8 	ldrdeq	r9, [r0], -r8
    47d8:	00044802 	andeq	r4, r4, r2, lsl #16
    47dc:	05460100 	strbeq	r0, [r6, #-256]	; 0xffffff00
    47e0:	0004be19 	andeq	fp, r4, r9, lsl lr
    47e4:	b2150000 	andslt	r0, r5, #0, 0
    47e8:	ea000004 	b	4800 <__code_start__-0x3800>
    47ec:	e400002c 	str	r0, [r0], #-44	; 0xffffffd4
    47f0:	1a00002c 	bne	48a8 <__code_start__-0x3758>
    47f4:	00000448 	andeq	r0, r0, r8, asr #8
    47f8:	0004ca1b 	andeq	ip, r4, fp, lsl sl
    47fc:	04d61b00 	ldrbeq	r1, [r6], #2816	; 0xb00
    4800:	e01b0000 	ands	r0, fp, r0
    4804:	18000004 	stmdane	r0, {r2}
    4808:	000004a5 	andeq	r0, r0, r5, lsr #9
    480c:	00009fe0 	andeq	r9, r0, r0, ror #31
    4810:	00046800 	andeq	r6, r4, r0, lsl #16
    4814:	06280100 	strteq	r0, [r8], -r0, lsl #2
    4818:	0004be19 	andeq	fp, r4, r9, lsl lr
    481c:	b2150000 	andslt	r0, r5, #0, 0
    4820:	1c000004 	stcne	0, cr0, [r0], {4}
    4824:	1600002d 	strne	r0, [r0], -sp, lsr #32
    4828:	1a00002d 	bne	48e4 <__code_start__-0x371c>
    482c:	00000468 	andeq	r0, r0, r8, ror #8
    4830:	0004ca1c 	andeq	ip, r4, ip, lsl sl
    4834:	002d4e00 	eoreq	r4, sp, r0, lsl #28
    4838:	002d4800 	eoreq	r4, sp, r0, lsl #16
    483c:	04d61c00 	ldrbeq	r1, [r6], #3072	; 0xc00
    4840:	2d900000 	ldccs	0, cr0, [r0]
    4844:	2d8a0000 	stccs	0, cr0, [sl]
    4848:	e01c0000 	ands	r0, ip, r0
    484c:	e6000004 	str	r0, [r0], -r4
    4850:	de00002d 	cdple	0, 0, cr0, cr0, cr13, {1}
    4854:	1d00002d 	stcne	0, cr0, [r0, #-180]	; 0xffffff4c
    4858:	0000a008 	andeq	sl, r0, r8
    485c:	0000065e 	andeq	r0, r0, lr, asr r6
    4860:	0000033b 	andeq	r0, r0, fp, lsr r3
    4864:	02500112 	subseq	r0, r0, #-2147483644	; 0x80000004
    4868:	16000076 			; <UNDEFINED> instruction: 0x16000076
    486c:	0000a02c 	andeq	sl, r0, ip, lsr #32
    4870:	0000066a 	andeq	r0, r0, sl, ror #12
    4874:	25500112 	ldrbcs	r0, [r0, #-274]	; 0xfffffeee
    4878:	f75001f3 			; <UNDEFINED> instruction: 0xf75001f3
    487c:	f425f72c 	vld1.8	{d15}, [r5 :128], ip
    4880:	cccd0825 	stclgt	8, cr0, [sp], {37}	; 0x25
    4884:	0000cccc 	andeq	ip, r0, ip, asr #25
    4888:	081e0000 	ldmdaeq	lr, {}	; <UNPREDICTABLE>
    488c:	2525f720 	strcs	pc, [r5, #-1824]!	; 0xfffff8e0
    4890:	00f72cf7 	ldrshteq	r2, [r7], #199	; 0xc7
    4894:	80232533 	eorhi	r2, r3, r3, lsr r5
    4898:	3240a080 	subcc	sl, r0, #128, 0	; 0x80
    489c:	00000024 	andeq	r0, r0, r4, lsr #32
    48a0:	1e000000 	cdpne	0, 0, cr0, cr0, cr0, {0}
    48a4:	00000b0f 	andeq	r0, r0, pc, lsl #22
    48a8:	030d4001 	movweq	r4, #53249	; 0xd001
    48ac:	0000038d 	andeq	r0, r0, sp, lsl #7
    48b0:	6e69701f 	mcrvs	0, 3, r7, cr9, cr15, {0}
    48b4:	23400100 	movtcs	r0, #256	; 0x100
    48b8:	0000002c 	andeq	r0, r0, ip, lsr #32
    48bc:	0b471e00 	bleq	11cc0c4 <__bss_end__+0x11c12cc>
    48c0:	3b010000 	blcc	448c8 <__bss_end__+0x39ad0>
    48c4:	03a7030d 			; <UNDEFINED> instruction: 0x03a7030d
    48c8:	701f0000 	andsvc	r0, pc, r0
    48cc:	01006e69 	tsteq	r0, r9, ror #28
    48d0:	002c223b 	eoreq	r2, ip, fp, lsr r2
    48d4:	13000000 	movwne	r0, #0
    48d8:	00000b1c 	andeq	r0, r0, ip, lsl fp
    48dc:	50063601 	andpl	r3, r6, r1, lsl #12
    48e0:	5800009f 	stmdapl	r0, {r0, r1, r2, r3, r4, r7}
    48e4:	01000000 	mrseq	r0, (UNDEF: 0)
    48e8:	0004a59c 	muleq	r4, ip, r5
    48ec:	69700e00 	ldmdbvs	r0!, {r9, sl, fp}^
    48f0:	3601006e 	strcc	r0, [r1], -lr, rrx
    48f4:	00002c1f 	andeq	r2, r0, pc, lsl ip
    48f8:	002e4400 	eoreq	r4, lr, r0, lsl #8
    48fc:	002e4000 	eoreq	r4, lr, r0
    4900:	04a51800 	strteq	r1, [r5], #2048	; 0x800
    4904:	9f500000 	svcls	0x00500000
    4908:	08020000 	stmdaeq	r2, {}	; <UNPREDICTABLE>
    490c:	01000004 	tsteq	r0, r4
    4910:	be190537 	mrclt	5, 0, r0, cr9, cr7, {1}
    4914:	01000004 	tsteq	r0, r4
    4918:	0004b215 	andeq	fp, r4, r5, lsl r2
    491c:	002e6900 	eoreq	r6, lr, r0, lsl #18
    4920:	002e6500 	eoreq	r6, lr, r0, lsl #10
    4924:	04081a00 	streq	r1, [r8], #-2560	; 0xfffff600
    4928:	ca1b0000 	bgt	6c4930 <__bss_end__+0x6b9b38>
    492c:	1b000004 	blne	4944 <__code_start__-0x36bc>
    4930:	000004d6 	ldrdeq	r0, [r0], -r6
    4934:	0004e01b 	andeq	lr, r4, fp, lsl r0
    4938:	04a51800 	strteq	r1, [r5], #2048	; 0x800
    493c:	9f580000 	svcls	0x00580000
    4940:	28000000 	stmdacs	r0, {}	; <UNPREDICTABLE>
    4944:	01000004 	tsteq	r0, r4
    4948:	be190628 	cfmsub32lt	mvax1, mvfx0, mvfx9, mvfx8
    494c:	01000004 	tsteq	r0, r4
    4950:	0004b215 	andeq	fp, r4, r5, lsl r2
    4954:	002e8e00 	eoreq	r8, lr, r0, lsl #28
    4958:	002e8a00 	eoreq	r8, lr, r0, lsl #20
    495c:	04281a00 	strteq	r1, [r8], #-2560	; 0xfffff600
    4960:	ca1c0000 	bgt	704968 <__bss_end__+0x6f9b70>
    4964:	b3000004 	movwlt	r0, #4
    4968:	af00002e 	svcge	0x0000002e
    496c:	1c00002e 	stcne	0, cr0, [r0], {46}	; 0x2e
    4970:	000004d6 	ldrdeq	r0, [r0], -r6
    4974:	00002eff 	strdeq	r2, [r0], -pc	; <UNPREDICTABLE>
    4978:	00002ef9 	strdeq	r2, [r0], -r9
    497c:	0004e01c 	andeq	lr, r4, ip, lsl r0
    4980:	002f5500 	eoreq	r5, pc, r0, lsl #10
    4984:	002f4d00 	eoreq	r4, pc, r0, lsl #26
    4988:	9f841d00 	svcls	0x00841d00
    498c:	065e0000 	ldrbeq	r0, [lr], -r0
    4990:	046d0000 	strbteq	r0, [sp], #-0
    4994:	01120000 	tsteq	r2, r0
    4998:	00750250 	rsbseq	r0, r5, r0, asr r2
    499c:	9fa41600 	svcls	0x00a41600
    49a0:	066a0000 	strbteq	r0, [sl], -r0
    49a4:	01120000 	tsteq	r2, r0
    49a8:	01f32550 	mvnseq	r2, r0, asr r5
    49ac:	f72cf750 			; <UNDEFINED> instruction: 0xf72cf750
    49b0:	0825f425 	stmdaeq	r5!, {r0, r2, r5, sl, ip, sp, lr, pc}
    49b4:	cccccccd 	stclgt	12, cr12, [ip], {205}	; 0xcd
    49b8:	00000000 	andeq	r0, r0, r0
    49bc:	f720081e 			; <UNDEFINED> instruction: 0xf720081e
    49c0:	2cf72525 	cfldr64cs	mvdx2, [r7], #148	; 0x94
    49c4:	253300f7 	ldrcs	r0, [r3, #-247]!	; 0xffffff09
    49c8:	a0808023 	addge	r8, r0, r3, lsr #32
    49cc:	00243240 	eoreq	r3, r4, r0, asr #4
    49d0:	00000000 	andeq	r0, r0, r0
    49d4:	09cc1e00 	stmibeq	ip, {r9, sl, fp, ip}^
    49d8:	28010000 	stmdacs	r1, {}	; <UNPREDICTABLE>
    49dc:	04eb0106 	strbteq	r0, [fp], #262	; 0x106
    49e0:	701f0000 	andsvc	r0, pc, r0
    49e4:	01006e69 	tsteq	r0, r9, ror #28
    49e8:	002c2128 	eoreq	r2, ip, r8, lsr #2
    49ec:	67200000 	strvs	r0, [r0, -r0]!
    49f0:	01000000 	mrseq	r0, (UNDEF: 0)
    49f4:	010f3228 	tsteq	pc, r8, lsr #4
    49f8:	6f210000 	svcvs	0x00210000
    49fc:	01006666 	tsteq	r0, r6, ror #12
    4a00:	002c0e2d 	eoreq	r0, ip, sp, lsr #28
    4a04:	67210000 	strvs	r0, [r1, -r0]!
    4a08:	0e2e0100 	sufeqe	f0, f6, f0
    4a0c:	0000002c 	andeq	r0, r0, ip, lsr #32
    4a10:	01007621 	tsteq	r0, r1, lsr #12
    4a14:	002c0e30 	eoreq	r0, ip, r0, lsr lr
    4a18:	22000000 	andcs	r0, r0, #0, 0
    4a1c:	00000adf 	ldrdeq	r0, [r0], -pc	; <UNPREDICTABLE>
    4a20:	6918b102 	ldmdbvs	r8, {r1, r8, ip, sp, pc}
    4a24:	03000000 	movweq	r0, #0
    4a28:	00000507 	andeq	r0, r0, r7, lsl #10
    4a2c:	0200781f 	andeq	r7, r0, #2031616	; 0x1f0000
    4a30:	00692bb1 	strhteq	r2, [r9], #-177	; 0xffffff4f
    4a34:	23000000 	movwcs	r0, #0
    4a38:	000004a5 	andeq	r0, r0, r5, lsr #9
    4a3c:	00009ef0 	strdeq	r9, [r0], -r0
    4a40:	00000060 	andeq	r0, r0, r0, rrx
    4a44:	05e49c01 	strbeq	r9, [r4, #3073]!	; 0xc01
    4a48:	b2150000 	andslt	r0, r5, #0, 0
    4a4c:	94000004 	strls	r0, [r0], #-4
    4a50:	9000002f 	andls	r0, r0, pc, lsr #32
    4a54:	1500002f 	strne	r0, [r0, #-47]	; 0xffffffd1
    4a58:	000004be 			; <UNDEFINED> instruction: 0x000004be
    4a5c:	00002fb9 			; <UNDEFINED> instruction: 0x00002fb9
    4a60:	00002fb5 			; <UNDEFINED> instruction: 0x00002fb5
    4a64:	0004ca1b 	andeq	ip, r4, fp, lsl sl
    4a68:	04d61b00 	ldrbeq	r1, [r6], #2816	; 0xb00
    4a6c:	e01b0000 	ands	r0, fp, r0
    4a70:	18000004 	stmdane	r0, {r2}
    4a74:	000004a5 	andeq	r0, r0, r5, lsr #9
    4a78:	00009ef8 	strdeq	r9, [r0], -r8
    4a7c:	0003e800 	andeq	lr, r3, r0, lsl #16
    4a80:	06280100 	strteq	r0, [r8], -r0, lsl #2
    4a84:	0004be15 	andeq	fp, r4, r5, lsl lr
    4a88:	002fde00 	eoreq	sp, pc, r0, lsl #28
    4a8c:	002fda00 	eoreq	sp, pc, r0, lsl #20
    4a90:	04b21500 	ldrteq	r1, [r2], #1280	; 0x500
    4a94:	30030000 	andcc	r0, r3, r0
    4a98:	2fff0000 	svccs	0x00ff0000
    4a9c:	e81a0000 	ldmda	sl, {}	; <UNPREDICTABLE>
    4aa0:	1c000003 	stcne	0, cr0, [r0], {3}
    4aa4:	000004ca 	andeq	r0, r0, sl, asr #9
    4aa8:	00003028 	andeq	r3, r0, r8, lsr #32
    4aac:	00003024 	andeq	r3, r0, r4, lsr #32
    4ab0:	0004d61c 	andeq	sp, r4, ip, lsl r6
    4ab4:	00307400 	eorseq	r7, r0, r0, lsl #8
    4ab8:	00306e00 	eorseq	r6, r0, r0, lsl #28
    4abc:	04e01c00 	strbteq	r1, [r0], #3072	; 0xc00
    4ac0:	30ca0000 	sbccc	r0, sl, r0
    4ac4:	30c20000 	sbccc	r0, r2, r0
    4ac8:	301d0000 	andscc	r0, sp, r0
    4acc:	5e00009f 	mcrpl	0, 0, r0, cr0, cr15, {4}
    4ad0:	ae000006 	cdpge	0, 0, cr0, cr0, cr6, {0}
    4ad4:	12000005 	andne	r0, r0, #5, 0
    4ad8:	76025001 	strvc	r5, [r2], -r1
    4adc:	4c160000 	ldcmi	0, cr0, [r6], {-0}
    4ae0:	6a00009f 	bvs	4d64 <__code_start__-0x329c>
    4ae4:	12000006 	andne	r0, r0, #6, 0
    4ae8:	f3255001 	vhadd.u32	d5, d5, d1
    4aec:	2cf75001 	ldclcs	0, cr5, [r7], #4
    4af0:	25f425f7 	ldrbcs	r2, [r4, #1527]!	; 0x5f7
    4af4:	cccccd08 	stclgt	13, cr12, [ip], {8}
    4af8:	000000cc 	andeq	r0, r0, ip, asr #1
    4afc:	20081e00 	andcs	r1, r8, r0, lsl #28
    4b00:	f72525f7 			; <UNDEFINED> instruction: 0xf72525f7
    4b04:	3300f72c 	movwcc	pc, #1836	; 0x72c	; <UNPREDICTABLE>
    4b08:	80802325 	addhi	r2, r0, r5, lsr #6
    4b0c:	243240a0 	ldrtcs	r4, [r2], #-160	; 0xffffff60
    4b10:	00000000 	andeq	r0, r0, r0
    4b14:	00038d23 	andeq	r8, r3, r3, lsr #26
    4b18:	009fa800 	addseq	sl, pc, r0, lsl #16
    4b1c:	00001800 	andeq	r1, r0, r0, lsl #16
    4b20:	219c0100 	orrscs	r0, ip, r0, lsl #2
    4b24:	15000006 	strne	r0, [r0, #-6]
    4b28:	0000039a 	muleq	r0, sl, r3
    4b2c:	00003120 	andeq	r3, r0, r0, lsr #2
    4b30:	0000311a 	andeq	r3, r0, sl, lsl r1
    4b34:	009fbc16 	addseq	fp, pc, r6, lsl ip	; <UNPREDICTABLE>
    4b38:	00066a00 	andeq	r6, r6, r0, lsl #20
    4b3c:	50011200 	andpl	r1, r1, r0, lsl #4
    4b40:	001c0c05 	andseq	r0, ip, r5, lsl #24
    4b44:	01122020 	tsteq	r2, r0, lsr #32
    4b48:	f3310551 	vqrshl.u64	q0, <illegal reg q0.5>, <illegal reg q0.5>
    4b4c:	00245001 	eoreq	r5, r4, r1
    4b50:	03732300 	cmneq	r3, #0, 6
    4b54:	9fc00000 	svcls	0x00c00000
    4b58:	00180000 	andseq	r0, r8, r0
    4b5c:	9c010000 	stcls	0, cr0, [r1], {-0}
    4b60:	0000065e 	andeq	r0, r0, lr, asr r6
    4b64:	00038015 	andeq	r8, r3, r5, lsl r0
    4b68:	00315200 	eorseq	r5, r1, r0, lsl #4
    4b6c:	00314c00 	eorseq	r4, r1, r0, lsl #24
    4b70:	9fd41600 	svcls	0x00d41600
    4b74:	066a0000 	strbteq	r0, [sl], -r0
    4b78:	01120000 	tsteq	r2, r0
    4b7c:	280c0550 	stmdacs	ip, {r4, r6, r8, sl}
    4b80:	12202000 	eorne	r2, r0, #0, 0
    4b84:	31055101 	tstcc	r5, r1, lsl #2
    4b88:	245001f3 	ldrbcs	r0, [r0], #-499	; 0xfffffe0d
    4b8c:	a1240000 			; <UNDEFINED> instruction: 0xa1240000
    4b90:	a1000007 	tstge	r0, r7
    4b94:	02000007 	andeq	r0, r0, #7, 0
    4b98:	0d240ac2 	vstmdbeq	r4!, {s0-s193}
    4b9c:	0d000007 	stceq	0, cr0, [r0, #-28]	; 0xffffffe4
    4ba0:	02000007 	andeq	r0, r0, #7, 0
    4ba4:	490006ad 	stmdbmi	r0, {r0, r2, r3, r5, r7, r9, sl}
    4ba8:	04000001 	streq	r0, [r0], #-1
    4bac:	00194100 	andseq	r4, r9, r0, lsl #2
    4bb0:	64010400 	strvs	r0, [r1], #-1024	; 0xfffffc00
    4bb4:	0c000004 	stceq	0, cr0, [r0], {4}
    4bb8:	00000b71 	andeq	r0, r0, r1, ror fp
    4bbc:	0000051c 	andeq	r0, r0, ip, lsl r5
    4bc0:	0000a088 	andeq	sl, r0, r8, lsl #1
    4bc4:	0000003c 	andeq	r0, r0, ip, lsr r0
    4bc8:	00002514 	andeq	r2, r0, r4, lsl r5
    4bcc:	69050402 	stmdbvs	r5, {r1, sl}
    4bd0:	0300746e 	movweq	r7, #1134	; 0x46e
    4bd4:	00900704 	addseq	r0, r0, r4, lsl #14
    4bd8:	01030000 	mrseq	r0, (UNDEF: 3)
    4bdc:	00003406 	andeq	r3, r0, r6, lsl #8
    4be0:	05020300 	streq	r0, [r2, #-768]	; 0xfffffd00
    4be4:	000000f1 	strdeq	r0, [r0], -r1
    4be8:	b6050403 	strlt	r0, [r5], -r3, lsl #8
    4bec:	03000000 	movweq	r0, #0
    4bf0:	00b10508 	adcseq	r0, r1, r8, lsl #10
    4bf4:	01030000 	mrseq	r0, (UNDEF: 3)
    4bf8:	00003208 	andeq	r3, r0, r8, lsl #4
    4bfc:	07020300 	streq	r0, [r2, -r0, lsl #6]
    4c00:	0000004d 	andeq	r0, r0, sp, asr #32
    4c04:	8b070403 	blhi	1c5c18 <__bss_end__+0x1bae20>
    4c08:	03000000 	movweq	r0, #0
    4c0c:	00860708 	addeq	r0, r6, r8, lsl #14
    4c10:	25040000 	strcs	r0, [r4, #-0]
    4c14:	7a000000 	bvc	4c1c <__code_start__-0x33e4>
    4c18:	05000000 	streq	r0, [r0, #-0]
    4c1c:	00000025 	andeq	r0, r0, r5, lsr #32
    4c20:	01050600 	tsteq	r5, r0, lsl #12
    4c24:	1c020000 	stcne	0, cr0, [r2], {-0}
    4c28:	0000860e 	andeq	r8, r0, lr, lsl #12
    4c2c:	6b040700 	blvs	106834 <__bss_end__+0xfba3c>
    4c30:	04000000 	streq	r0, [r0], #-0
    4c34:	00000025 	andeq	r0, r0, r5, lsr #32
    4c38:	0000009b 	muleq	r0, fp, r0
    4c3c:	00009b05 	andeq	r9, r0, r5, lsl #22
    4c40:	04070000 	streq	r0, [r7], #-0
    4c44:	000000a8 	andeq	r0, r0, r8, lsr #1
    4c48:	3b080103 	blcc	20505c <__bss_end__+0x1fa264>
    4c4c:	08000000 	stmdaeq	r0, {}	; <UNPREDICTABLE>
    4c50:	000000a1 	andeq	r0, r0, r1, lsr #1
    4c54:	00058406 	andeq	r8, r5, r6, lsl #8
    4c58:	0e210200 	cdpeq	2, 2, cr0, cr1, cr0, {0}
    4c5c:	000000b9 	strheq	r0, [r0], -r9
    4c60:	008c0407 	addeq	r0, ip, r7, lsl #8
    4c64:	7a090000 	bvc	244c6c <__bss_end__+0x239e74>
    4c68:	01000000 	mrseq	r0, (UNDEF: 0)
    4c6c:	03050706 	movweq	r0, #22278	; 0x5706
    4c70:	0000a9c8 	andeq	sl, r0, r8, asr #19
    4c74:	000b640a 	andeq	r6, fp, sl, lsl #8
    4c78:	060b0100 	streq	r0, [fp], -r0, lsl #2
    4c7c:	0000a0b4 	strheq	sl, [r0], -r4
    4c80:	00000010 	andeq	r0, r0, r0, lsl r0
    4c84:	00f19c01 	rscseq	r9, r1, r1, lsl #24
    4c88:	660b0000 	strvs	r0, [fp], -r0
    4c8c:	0b010070 	bleq	44e54 <__bss_end__+0x3a05c>
    4c90:	00008619 	andeq	r8, r0, r9, lsl r6
    4c94:	00500100 	subseq	r0, r0, r0, lsl #2
    4c98:	000aa10c 	andeq	sl, sl, ip, lsl #2
    4c9c:	06080100 	streq	r0, [r8], -r0, lsl #2
    4ca0:	0000a09c 	muleq	r0, ip, r0
    4ca4:	00000018 	andeq	r0, r0, r8, lsl r0
    4ca8:	530d9c01 	movwpl	r9, #56321	; 0xdc01
    4cac:	0100000b 	tsteq	r0, fp
    4cb0:	00250c03 	eoreq	r0, r5, r3, lsl #24
    4cb4:	a0880000 	addge	r0, r8, r0
    4cb8:	00140000 	andseq	r0, r4, r0
    4cbc:	9c010000 	stcls	0, cr0, [r1], {-0}
    4cc0:	00000140 	andeq	r0, r0, r0, asr #2
    4cc4:	0100630e 	tsteq	r0, lr, lsl #6
    4cc8:	00252103 	eoreq	r2, r5, r3, lsl #2
    4ccc:	31820000 	orrcc	r0, r2, r0
    4cd0:	317e0000 	cmncc	lr, r0
    4cd4:	940f0000 	strls	r0, [pc], #-0	; 4cdc <__code_start__-0x3324>
    4cd8:	400000a0 	andmi	r0, r0, r0, lsr #1
    4cdc:	10000001 	andne	r0, r0, r1
    4ce0:	74025001 	strvc	r5, [r2], #-1
    4ce4:	11000000 	mrsne	r0, (UNDEF: 0)
    4ce8:	000009b2 			; <UNDEFINED> instruction: 0x000009b2
    4cec:	000009b2 			; <UNDEFINED> instruction: 0x000009b2
    4cf0:	00064202 	andeq	r4, r6, r2, lsl #4
    4cf4:	00000137 	andeq	r0, r0, r7, lsr r1
    4cf8:	1a500004 	bne	1404d10 <__bss_end__+0x13f9f18>
    4cfc:	01040000 	mrseq	r0, (UNDEF: 4)
    4d00:	00000464 	andeq	r0, r0, r4, ror #8
    4d04:	000b820c 	andeq	r8, fp, ip, lsl #4
    4d08:	00051c00 	andeq	r1, r5, r0, lsl #24
    4d0c:	00a0c400 	adceq	ip, r0, r0, lsl #8
    4d10:	00002c00 	andeq	r2, r0, r0, lsl #24
    4d14:	0025b600 	eoreq	fp, r5, r0, lsl #12
    4d18:	05040200 	streq	r0, [r4, #-512]	; 0xfffffe00
    4d1c:	00746e69 	rsbseq	r6, r4, r9, ror #28
    4d20:	90070403 	andls	r0, r7, r3, lsl #8
    4d24:	03000000 	movweq	r0, #0
    4d28:	00340601 	eorseq	r0, r4, r1, lsl #12
    4d2c:	02030000 	andeq	r0, r3, #0, 0
    4d30:	0000f105 	andeq	pc, r0, r5, lsl #2
    4d34:	05040300 	streq	r0, [r4, #-768]	; 0xfffffd00
    4d38:	000000b6 	strheq	r0, [r0], -r6
    4d3c:	b1050803 	tstlt	r5, r3, lsl #16
    4d40:	03000000 	movweq	r0, #0
    4d44:	00320801 	eorseq	r0, r2, r1, lsl #16
    4d48:	02030000 	andeq	r0, r3, #0, 0
    4d4c:	00004d07 	andeq	r4, r0, r7, lsl #26
    4d50:	07040300 	streq	r0, [r4, -r0, lsl #6]
    4d54:	0000008b 	andeq	r0, r0, fp, lsl #1
    4d58:	86070803 	strhi	r0, [r7], -r3, lsl #16
    4d5c:	04000000 	streq	r0, [r0], #-0
    4d60:	00000025 	andeq	r0, r0, r5, lsr #32
    4d64:	0000007a 	andeq	r0, r0, sl, ror r0
    4d68:	00002505 	andeq	r2, r0, r5, lsl #10
    4d6c:	05060000 	streq	r0, [r6, #-0]
    4d70:	02000001 	andeq	r0, r0, #1, 0
    4d74:	00860e1c 	addeq	r0, r6, ip, lsl lr
    4d78:	04070000 	streq	r0, [r7], #-0
    4d7c:	0000006b 	andeq	r0, r0, fp, rrx
    4d80:	00002504 	andeq	r2, r0, r4, lsl #10
    4d84:	00009b00 	andeq	r9, r0, r0, lsl #22
    4d88:	009b0500 	addseq	r0, fp, r0, lsl #10
    4d8c:	07000000 	streq	r0, [r0, -r0]
    4d90:	0000a804 	andeq	sl, r0, r4, lsl #16
    4d94:	08010300 	stmdaeq	r1, {r8, r9}
    4d98:	0000003b 	andeq	r0, r0, fp, lsr r0
    4d9c:	0000a108 	andeq	sl, r0, r8, lsl #2
    4da0:	05840600 	streq	r0, [r4, #1536]	; 0x600
    4da4:	21020000 	mrscs	r0, (UNDEF: 2)
    4da8:	0000b90e 	andeq	fp, r0, lr, lsl #18
    4dac:	8c040700 	stchi	7, cr0, [r4], {-0}
    4db0:	09000000 	stmdbeq	r0, {}	; <UNPREDICTABLE>
    4db4:	00000600 	andeq	r0, r0, r0, lsl #12
    4db8:	34070401 	strcc	r0, [r7], #-1025	; 0xfffffbff
    4dbc:	c4000001 	strgt	r0, [r0], #-1
    4dc0:	2c0000a0 	stccs	0, cr0, [r0], {160}	; 0xa0
    4dc4:	01000000 	mrseq	r0, (UNDEF: 0)
    4dc8:	0001349c 	muleq	r1, ip, r4
    4dcc:	0b920a00 	bleq	fe4875d4 <__bss_end__+0xfe47c7dc>
    4dd0:	04010000 	streq	r0, [r1], #-0
    4dd4:	00013415 	andeq	r3, r1, r5, lsl r4
    4dd8:	0b500100 	bleq	14051e0 <__bss_end__+0x13fa3e8>
    4ddc:	00637273 	rsbeq	r7, r3, r3, ror r2
    4de0:	9b270401 	blls	9c5dec <__bss_end__+0x9baff4>
    4de4:	a4000000 	strge	r0, [r0], #-0
    4de8:	a0000031 	andge	r0, r0, r1, lsr r0
    4dec:	0c000031 	stceq	0, cr0, [r0], {49}	; 0x31
    4df0:	01003173 	tsteq	r0, r3, ror r1
    4df4:	01340b05 	teqeq	r4, r5, lsl #22
    4df8:	31d30000 	bicscc	r0, r3, r0
    4dfc:	31c50000 	biccc	r0, r5, r0
    4e00:	730c0000 	movwvc	r0, #49152	; 0xc000
    4e04:	06010032 			; <UNDEFINED> instruction: 0x06010032
    4e08:	00009b11 	andeq	r9, r0, r1, lsl fp
    4e0c:	00323200 	eorseq	r3, r2, r0, lsl #4
    4e10:	00322c00 	eorseq	r2, r2, r0, lsl #24
    4e14:	00630c00 	rsbeq	r0, r3, r0, lsl #24
    4e18:	a10a0701 	tstge	sl, r1, lsl #14
    4e1c:	63000000 	movwvs	r0, #0
    4e20:	5d000032 	stcpl	0, cr0, [r0, #-200]	; 0xffffff38
    4e24:	00000032 	andeq	r0, r0, r2, lsr r0
    4e28:	00a10407 	adceq	r0, r1, r7, lsl #8
    4e2c:	f7000000 			; <UNDEFINED> instruction: 0xf7000000
    4e30:	04000000 	streq	r0, [r0], #-0
    4e34:	001b0600 	andseq	r0, fp, r0, lsl #12
    4e38:	64010400 	strvs	r0, [r1], #-1024	; 0xfffffc00
    4e3c:	0c000004 	stceq	0, cr0, [r0], {4}
    4e40:	00000b97 	muleq	r0, r7, fp
    4e44:	0000051c 	andeq	r0, r0, ip, lsl r5
    4e48:	0000a0f0 	strdeq	sl, [r0], -r0
    4e4c:	00000044 	andeq	r0, r0, r4, asr #32
    4e50:	0000269c 	muleq	r0, ip, r6
    4e54:	69050402 	stmdbvs	r5, {r1, sl}
    4e58:	0300746e 	movweq	r7, #1134	; 0x46e
    4e5c:	00900704 	addseq	r0, r0, r4, lsl #14
    4e60:	01030000 	mrseq	r0, (UNDEF: 3)
    4e64:	00003406 	andeq	r3, r0, r6, lsl #8
    4e68:	05020300 	streq	r0, [r2, #-768]	; 0xfffffd00
    4e6c:	000000f1 	strdeq	r0, [r0], -r1
    4e70:	b6050403 	strlt	r0, [r5], -r3, lsl #8
    4e74:	03000000 	movweq	r0, #0
    4e78:	00b10508 	adcseq	r0, r1, r8, lsl #10
    4e7c:	01030000 	mrseq	r0, (UNDEF: 3)
    4e80:	00003208 	andeq	r3, r0, r8, lsl #4
    4e84:	07020300 	streq	r0, [r2, -r0, lsl #6]
    4e88:	0000004d 	andeq	r0, r0, sp, asr #32
    4e8c:	8b070403 	blhi	1c5ea0 <__bss_end__+0x1bb0a8>
    4e90:	03000000 	movweq	r0, #0
    4e94:	00860708 	addeq	r0, r6, r8, lsl #14
    4e98:	25040000 	strcs	r0, [r4, #-0]
    4e9c:	7a000000 	bvc	4ea4 <__code_start__-0x315c>
    4ea0:	05000000 	streq	r0, [r0, #-0]
    4ea4:	00000025 	andeq	r0, r0, r5, lsr #32
    4ea8:	01050600 	tsteq	r5, r0, lsl #12
    4eac:	1c020000 	stcne	0, cr0, [r2], {-0}
    4eb0:	0000860e 	andeq	r8, r0, lr, lsl #12
    4eb4:	6b040700 	blvs	106abc <__bss_end__+0xfbcc4>
    4eb8:	04000000 	streq	r0, [r0], #-0
    4ebc:	00000025 	andeq	r0, r0, r5, lsr #32
    4ec0:	0000009b 	muleq	r0, fp, r0
    4ec4:	00009b05 	andeq	r9, r0, r5, lsl #22
    4ec8:	04070000 	streq	r0, [r7], #-0
    4ecc:	000000a8 	andeq	r0, r0, r8, lsr #1
    4ed0:	3b080103 	blcc	2052e4 <__bss_end__+0x1fa4ec>
    4ed4:	08000000 	stmdaeq	r0, {}	; <UNPREDICTABLE>
    4ed8:	000000a1 	andeq	r0, r0, r1, lsr #1
    4edc:	00058406 	andeq	r8, r5, r6, lsl #8
    4ee0:	0e210200 	cdpeq	2, 2, cr0, cr1, cr0, {0}
    4ee4:	000000b9 	strheq	r0, [r0], -r9
    4ee8:	008c0407 	addeq	r0, ip, r7, lsl #8
    4eec:	2e090000 	cdpcs	0, 0, cr0, cr9, cr0, {0}
    4ef0:	01000006 	tsteq	r0, r6
    4ef4:	00250503 	eoreq	r0, r5, r3, lsl #10
    4ef8:	a0f00000 	rscsge	r0, r0, r0
    4efc:	00440000 	subeq	r0, r4, r0
    4f00:	9c010000 	stcls	0, cr0, [r1], {-0}
    4f04:	0100610a 	tsteq	r0, sl, lsl #2
    4f08:	009b1803 	addseq	r1, fp, r3, lsl #16
    4f0c:	329a0000 	addscc	r0, sl, #0, 0
    4f10:	328e0000 	addcc	r0, lr, #0, 0
    4f14:	620a0000 	andvs	r0, sl, #0, 0
    4f18:	27030100 	strcs	r0, [r3, -r0, lsl #2]
    4f1c:	0000009b 	muleq	r0, fp, r0
    4f20:	000032ee 	andeq	r3, r0, lr, ror #5
    4f24:	000032e8 	andeq	r3, r0, r8, ror #5
    4f28:	010f0000 	mrseq	r0, CPSR
    4f2c:	00040000 	andeq	r0, r4, r0
    4f30:	00001b95 	muleq	r0, r5, fp
    4f34:	04640104 	strbteq	r0, [r4], #-260	; 0xfffffefc
    4f38:	a70c0000 	strge	r0, [ip, -r0]
    4f3c:	1c00000b 	stcne	0, cr0, [r0], {11}
    4f40:	34000005 	strcc	r0, [r0], #-5
    4f44:	180000a1 	stmdane	r0, {r0, r5, r7}
    4f48:	52000000 	andpl	r0, r0, #0, 0
    4f4c:	02000027 	andeq	r0, r0, #39, 0	; 0x27
    4f50:	6e690504 	cdpvs	5, 6, cr0, cr9, cr4, {0}
    4f54:	04030074 	streq	r0, [r3], #-116	; 0xffffff8c
    4f58:	00009007 	andeq	r9, r0, r7
    4f5c:	06010300 	streq	r0, [r1], -r0, lsl #6
    4f60:	00000034 	andeq	r0, r0, r4, lsr r0
    4f64:	f1050203 			; <UNDEFINED> instruction: 0xf1050203
    4f68:	03000000 	movweq	r0, #0
    4f6c:	00b60504 	adcseq	r0, r6, r4, lsl #10
    4f70:	08030000 	stmdaeq	r3, {}	; <UNPREDICTABLE>
    4f74:	0000b105 	andeq	fp, r0, r5, lsl #2
    4f78:	08010300 	stmdaeq	r1, {r8, r9}
    4f7c:	00000032 	andeq	r0, r0, r2, lsr r0
    4f80:	4d070203 	sfmmi	f0, 4, [r7, #-12]
    4f84:	03000000 	movweq	r0, #0
    4f88:	008b0704 	addeq	r0, fp, r4, lsl #14
    4f8c:	08030000 	stmdaeq	r3, {}	; <UNPREDICTABLE>
    4f90:	00008607 	andeq	r8, r0, r7, lsl #12
    4f94:	00250400 	eoreq	r0, r5, r0, lsl #8
    4f98:	007a0000 	rsbseq	r0, sl, r0
    4f9c:	25050000 	strcs	r0, [r5, #-0]
    4fa0:	00000000 	andeq	r0, r0, r0
    4fa4:	00010506 	andeq	r0, r1, r6, lsl #10
    4fa8:	0e1c0200 	cdpeq	2, 1, cr0, cr12, cr0, {0}
    4fac:	00000086 	andeq	r0, r0, r6, lsl #1
    4fb0:	006b0407 	rsbeq	r0, fp, r7, lsl #8
    4fb4:	25040000 	strcs	r0, [r4, #-0]
    4fb8:	9b000000 	blls	4fc0 <__code_start__-0x3040>
    4fbc:	05000000 	streq	r0, [r0, #-0]
    4fc0:	0000009b 	muleq	r0, fp, r0
    4fc4:	a8040700 	stmdage	r4, {r8, r9, sl}
    4fc8:	03000000 	movweq	r0, #0
    4fcc:	003b0801 	eorseq	r0, fp, r1, lsl #16
    4fd0:	a1080000 	mrsge	r0, (UNDEF: 8)
    4fd4:	06000000 	streq	r0, [r0], -r0
    4fd8:	00000584 	andeq	r0, r0, r4, lsl #11
    4fdc:	b90e2102 	stmdblt	lr, {r1, r8, sp}
    4fe0:	07000000 	streq	r0, [r0, -r0]
    4fe4:	00008c04 	andeq	r8, r0, r4, lsl #24
    4fe8:	06070900 	streq	r0, [r7], -r0, lsl #18
    4fec:	03010000 	movweq	r0, #4096	; 0x1000
    4ff0:	00010c07 	andeq	r0, r1, r7, lsl #24
    4ff4:	00a13400 	adceq	r3, r1, r0, lsl #8
    4ff8:	00001800 	andeq	r1, r0, r0, lsl #16
    4ffc:	0c9c0100 	ldfeqs	f0, [ip], {0}
    5000:	0a000001 	beq	500c <__code_start__-0x2ff4>
    5004:	01003173 	tsteq	r0, r3, ror r1
    5008:	010c1503 	tsteq	ip, r3, lsl #10
    500c:	50010000 	andpl	r0, r1, r0
    5010:	0032730b 	eorseq	r7, r2, fp, lsl #6
    5014:	9b260301 	blls	985c20 <__bss_end__+0x97ae28>
    5018:	1d000000 	stcne	0, cr0, [r0, #-0]
    501c:	17000033 	smladxne	r0, r3, r0, r0
    5020:	0c000033 	stceq	0, cr0, [r0], {51}	; 0x33
    5024:	04010073 	streq	r0, [r1], #-115	; 0xffffff8d
    5028:	00010c14 	andeq	r0, r1, r4, lsl ip
    502c:	00334a00 	eorseq	r4, r3, r0, lsl #20
    5030:	00334800 	eorseq	r4, r3, r0, lsl #16
    5034:	04070000 	streq	r0, [r7], #-0
    5038:	000000a1 	andeq	r0, r0, r1, lsr #1
    503c:	00014e00 	andeq	r4, r1, r0, lsl #28
    5040:	4b000400 	blmi	6048 <__code_start__-0x1fb8>
    5044:	0400001c 	streq	r0, [r0], #-28	; 0xffffffe4
    5048:	00046401 	andeq	r6, r4, r1, lsl #8
    504c:	0bb70c00 	bleq	fedc8054 <__bss_end__+0xfedbd25c>
    5050:	051c0000 	ldreq	r0, [ip, #-0]
    5054:	a14c0000 	mrsge	r0, (UNDEF: 76)
    5058:	00300000 	eorseq	r0, r0, r0
    505c:	27f30000 	ldrbcs	r0, [r3, r0]!
    5060:	04020000 	streq	r0, [r2], #-0
    5064:	746e6905 	strbtvc	r6, [lr], #-2309	; 0xfffff6fb
    5068:	044d0300 	strbeq	r0, [sp], #-768	; 0xfffffd00
    506c:	d1030000 	mrsle	r0, (UNDEF: 3)
    5070:	00003817 	andeq	r3, r0, r7, lsl r8
    5074:	07040400 	streq	r0, [r4, -r0, lsl #8]
    5078:	00000090 	muleq	r0, r0, r0
    507c:	34060104 	strcc	r0, [r6], #-260	; 0xfffffefc
    5080:	04000000 	streq	r0, [r0], #-0
    5084:	00f10502 	rscseq	r0, r1, r2, lsl #10
    5088:	04040000 	streq	r0, [r4], #-0
    508c:	0000b605 	andeq	fp, r0, r5, lsl #12
    5090:	05080400 	streq	r0, [r8, #-1024]	; 0xfffffc00
    5094:	000000b1 	strheq	r0, [r0], -r1
    5098:	32080104 	andcc	r0, r8, #1
    509c:	05000000 	streq	r0, [r0, #-0]
    50a0:	0000005b 	andeq	r0, r0, fp, asr r0
    50a4:	4d070204 	sfmmi	f0, 4, [r7, #-16]
    50a8:	04000000 	streq	r0, [r0], #-0
    50ac:	008b0704 	addeq	r0, fp, r4, lsl #14
    50b0:	08040000 	stmdaeq	r4, {}	; <UNPREDICTABLE>
    50b4:	00008607 	andeq	r8, r0, r7, lsl #12
    50b8:	00250600 	eoreq	r0, r5, r0, lsl #12
    50bc:	008b0000 	addeq	r0, fp, r0
    50c0:	25070000 	strcs	r0, [r7, #-0]
    50c4:	00000000 	andeq	r0, r0, r0
    50c8:	00010508 	andeq	r0, r1, r8, lsl #10
    50cc:	0e1c0200 	cdpeq	2, 1, cr0, cr12, cr0, {0}
    50d0:	00000097 	muleq	r0, r7, r0
    50d4:	007c0409 	rsbseq	r0, ip, r9, lsl #8
    50d8:	25060000 	strcs	r0, [r6, #-0]
    50dc:	ac000000 	stcge	0, cr0, [r0], {-0}
    50e0:	07000000 	streq	r0, [r0, -r0]
    50e4:	000000ac 	andeq	r0, r0, ip, lsr #1
    50e8:	b9040900 	stmdblt	r4, {r8, fp}
    50ec:	04000000 	streq	r0, [r0], #-0
    50f0:	003b0801 	eorseq	r0, fp, r1, lsl #16
    50f4:	b2050000 	andlt	r0, r5, #0, 0
    50f8:	08000000 	stmdaeq	r0, {}	; <UNPREDICTABLE>
    50fc:	00000584 	andeq	r0, r0, r4, lsl #11
    5100:	ca0e2102 	bgt	38d510 <__bss_end__+0x382718>
    5104:	09000000 	stmdbeq	r0, {}	; <UNPREDICTABLE>
    5108:	00009d04 	andeq	r9, r0, r4, lsl #26
    510c:	064f0a00 	strbeq	r0, [pc], -r0, lsl #20
    5110:	04010000 	streq	r0, [r1], #-0
    5114:	00002505 	andeq	r2, r0, r5, lsl #10
    5118:	00a14c00 	adceq	r4, r1, r0, lsl #24
    511c:	00003000 	andeq	r3, r0, r0
    5120:	4b9c0100 	blmi	fe705528 <__bss_end__+0xfe6fa730>
    5124:	0b000001 	bleq	5130 <__code_start__-0x2ed0>
    5128:	0031735f 	eorseq	r7, r1, pc, asr r3
    512c:	ac190401 	cfldrsge	mvf0, [r9], {1}
    5130:	61000000 	mrsvs	r0, (UNDEF: 0)
    5134:	5d000033 	stcpl	0, cr0, [r0, #-204]	; 0xffffff34
    5138:	0b000033 	bleq	520c <__code_start__-0x2df4>
    513c:	0032735f 	eorseq	r7, r2, pc, asr r3
    5140:	ac2a0401 	cfstrsge	mvf0, [sl], #-4
    5144:	86000000 	strhi	r0, [r0], -r0
    5148:	82000033 	andhi	r0, r0, #51, 0	; 0x33
    514c:	0b000033 	bleq	5220 <__code_start__-0x2de0>
    5150:	0401006e 	streq	r0, [r1], #-110	; 0xffffff92
    5154:	00002c36 	andeq	r2, r0, r6, lsr ip
    5158:	0033b100 	eorseq	fp, r3, r0, lsl #2
    515c:	0033a700 	eorseq	sl, r3, r0, lsl #14
    5160:	31730c00 	cmncc	r3, r0, lsl #24
    5164:	1a050100 	bne	14556c <__bss_end__+0x13a774>
    5168:	0000014b 	andeq	r0, r0, fp, asr #2
    516c:	00003408 	andeq	r3, r0, r8, lsl #8
    5170:	00003400 	andeq	r3, r0, r0, lsl #8
    5174:	0032730c 	eorseq	r7, r2, ip, lsl #6
    5178:	4b2c0501 	blmi	b06584 <__bss_end__+0xafb78c>
    517c:	46000001 	strmi	r0, [r0], -r1
    5180:	40000034 	andmi	r0, r0, r4, lsr r0
    5184:	00000034 	andeq	r0, r0, r4, lsr r0
    5188:	00620409 	rsbeq	r0, r2, r9, lsl #8
    518c:	ce000000 	cdpgt	0, 0, cr0, cr0, cr0, {0}
    5190:	04000000 	streq	r0, [r0], #-0
    5194:	001cff00 	andseq	pc, ip, r0, lsl #30
    5198:	64010400 	strvs	r0, [r1], #-1024	; 0xfffffc00
    519c:	0c000004 	stceq	0, cr0, [r0], {4}
    51a0:	00000bc8 	andeq	r0, r0, r8, asr #23
    51a4:	0000051c 	andeq	r0, r0, ip, lsl r5
    51a8:	0000a17c 	andeq	sl, r0, ip, ror r1
    51ac:	00000004 	andeq	r0, r0, r4
    51b0:	000028f4 	strdeq	r2, [r0], -r4
    51b4:	69050402 	stmdbvs	r5, {r1, sl}
    51b8:	0300746e 	movweq	r7, #1134	; 0x46e
    51bc:	00900704 	addseq	r0, r0, r4, lsl #14
    51c0:	01030000 	mrseq	r0, (UNDEF: 3)
    51c4:	00003406 	andeq	r3, r0, r6, lsl #8
    51c8:	05020300 	streq	r0, [r2, #-768]	; 0xfffffd00
    51cc:	000000f1 	strdeq	r0, [r0], -r1
    51d0:	b6050403 	strlt	r0, [r5], -r3, lsl #8
    51d4:	03000000 	movweq	r0, #0
    51d8:	00b10508 	adcseq	r0, r1, r8, lsl #10
    51dc:	01030000 	mrseq	r0, (UNDEF: 3)
    51e0:	00003208 	andeq	r3, r0, r8, lsl #4
    51e4:	07020300 	streq	r0, [r2, -r0, lsl #6]
    51e8:	0000004d 	andeq	r0, r0, sp, asr #32
    51ec:	8b070403 	blhi	1c6200 <__bss_end__+0x1bb408>
    51f0:	03000000 	movweq	r0, #0
    51f4:	00860708 	addeq	r0, r6, r8, lsl #14
    51f8:	25040000 	strcs	r0, [r4, #-0]
    51fc:	7a000000 	bvc	5204 <__code_start__-0x2dfc>
    5200:	05000000 	streq	r0, [r0, #-0]
    5204:	00000025 	andeq	r0, r0, r5, lsr #32
    5208:	01050600 	tsteq	r5, r0, lsl #12
    520c:	1c020000 	stcne	0, cr0, [r2], {-0}
    5210:	0000860e 	andeq	r8, r0, lr, lsl #12
    5214:	6b040700 	blvs	106e1c <__bss_end__+0xfc024>
    5218:	04000000 	streq	r0, [r0], #-0
    521c:	00000025 	andeq	r0, r0, r5, lsr #32
    5220:	0000009b 	muleq	r0, fp, r0
    5224:	00009b05 	andeq	r9, r0, r5, lsl #22
    5228:	04070000 	streq	r0, [r7], #-0
    522c:	000000a8 	andeq	r0, r0, r8, lsr #1
    5230:	3b080103 	blcc	205644 <__bss_end__+0x1fa84c>
    5234:	08000000 	stmdaeq	r0, {}	; <UNPREDICTABLE>
    5238:	000000a1 	andeq	r0, r0, r1, lsr #1
    523c:	00058406 	andeq	r8, r5, r6, lsl #8
    5240:	0e210200 	cdpeq	2, 2, cr0, cr1, cr0, {0}
    5244:	000000b9 	strheq	r0, [r0], -r9
    5248:	008c0407 	addeq	r0, ip, r7, lsl #8
    524c:	f6090000 			; <UNDEFINED> instruction: 0xf6090000
    5250:	01000006 	tsteq	r0, r6
    5254:	a17c0603 	cmnge	ip, r3, lsl #12
    5258:	00040000 	andeq	r0, r4, r0
    525c:	9c010000 	stcls	0, cr0, [r1], {-0}
	...

Disassembly of section .debug_abbrev:

00000000 <.debug_abbrev>:
       0:	25011101 	strcs	r1, [r1, #-257]	; 0xfffffeff
       4:	030b130e 	movweq	r1, #45838	; 0xb30e
       8:	110e1b0e 	tstne	lr, lr, lsl #22
       c:	10061201 	andne	r1, r6, r1, lsl #4
      10:	02000017 	andeq	r0, r0, #23, 0
      14:	0b0b0024 	bleq	2c00ac <__bss_end__+0x2b52b4>
      18:	08030b3e 	stmdaeq	r3, {r1, r2, r3, r4, r5, r8, r9, fp}
      1c:	24030000 	strcs	r0, [r3], #-0
      20:	3e0b0b00 	vmlacc.f64	d0, d11, d0
      24:	000e030b 	andeq	r0, lr, fp, lsl #6
      28:	01150400 	tsteq	r5, r0, lsl #8
      2c:	13491927 	movtne	r1, #39207	; 0x9927
      30:	00001301 	andeq	r1, r0, r1, lsl #6
      34:	49000505 	stmdbmi	r0, {r0, r2, r8, sl}
      38:	06000013 			; <UNDEFINED> instruction: 0x06000013
      3c:	0e030034 	mcreq	0, 0, r0, cr3, cr4, {1}
      40:	0b3b0b3a 	bleq	ec2d30 <__bss_end__+0xeb7f38>
      44:	13490b39 	movtne	r0, #39737	; 0x9b39
      48:	193c193f 	ldmdbne	ip!, {r0, r1, r2, r3, r4, r5, r8, fp, ip}
      4c:	0f070000 	svceq	0x00070000
      50:	490b0b00 	stmdbmi	fp, {r8, r9, fp}
      54:	08000013 	stmdaeq	r0, {r0, r1, r4}
      58:	13490026 	movtne	r0, #36902	; 0x9026
      5c:	13090000 	movwne	r0, #36864	; 0x9000
      60:	3a0b0b01 	bcc	2c2c6c <__bss_end__+0x2b7e74>
      64:	390b3b0b 	stmdbcc	fp, {r0, r1, r3, r8, r9, fp, ip, sp}
      68:	0013010b 	andseq	r0, r3, fp, lsl #2
      6c:	000d0a00 	andeq	r0, sp, r0, lsl #20
      70:	0b3a0e03 	bleq	e83884 <__bss_end__+0xe78a8c>
      74:	0b390b3b 	bleq	e42d68 <__bss_end__+0xe37f70>
      78:	0b381349 	bleq	e04da4 <__bss_end__+0xdf9fac>
      7c:	160b0000 	strne	r0, [fp], -r0
      80:	3a0e0300 	bcc	380c88 <__bss_end__+0x375e90>
      84:	390b3b0b 	stmdbcc	fp, {r0, r1, r3, r8, r9, fp, ip, sp}
      88:	0013490b 	andseq	r4, r3, fp, lsl #18
      8c:	000f0c00 	andeq	r0, pc, r0, lsl #24
      90:	00000b0b 	andeq	r0, r0, fp, lsl #22
      94:	3f012e0d 	svccc	0x00012e0d
      98:	3a0e0319 	bcc	380d04 <__bss_end__+0x375f0c>
      9c:	390b3b0b 	stmdbcc	fp, {r0, r1, r3, r8, r9, fp, ip, sp}
      a0:	1119270b 	tstne	r9, fp, lsl #14
      a4:	40061201 	andmi	r1, r6, r1, lsl #4
      a8:	19429718 	stmdbne	r2, {r3, r4, r8, r9, sl, ip, pc}^
      ac:	00001301 	andeq	r1, r0, r1, lsl #6
      b0:	0182890e 	orreq	r8, r2, lr, lsl #18
      b4:	31011101 	tstcc	r1, r1, lsl #2
      b8:	00130113 	andseq	r0, r3, r3, lsl r1
      bc:	828a0f00 	addhi	r0, sl, #0, 30
      c0:	18020001 	stmdane	r2, {r0}
      c4:	00184291 	mulseq	r8, r1, r2
      c8:	82891000 	addhi	r1, r9, #0, 0
      cc:	01110001 	tsteq	r1, r1
      d0:	00001331 	andeq	r1, r0, r1, lsr r3
      d4:	01828911 	orreq	r8, r2, r1, lsl r9
      d8:	31011101 	tstcc	r1, r1, lsl #2
      dc:	12000013 	andne	r0, r0, #19, 0
      e0:	193f012e 	ldmdbne	pc!, {r1, r2, r3, r5, r8}	; <UNPREDICTABLE>
      e4:	0b3a0e03 	bleq	e838f8 <__bss_end__+0xe78b00>
      e8:	0b390b3b 	bleq	e42ddc <__bss_end__+0xe37fe4>
      ec:	13491927 	movtne	r1, #39207	; 0x9927
      f0:	06120111 			; <UNDEFINED> instruction: 0x06120111
      f4:	42971840 	addsmi	r1, r7, #64, 16	; 0x400000
      f8:	00130119 	andseq	r0, r3, r9, lsl r1
      fc:	01131300 	tsteq	r3, r0, lsl #6
     100:	0b0b0e03 	bleq	2c3914 <__bss_end__+0x2b8b1c>
     104:	0b3b0b3a 	bleq	ec2df4 <__bss_end__+0xeb7ffc>
     108:	13010b39 	movwne	r0, #6969	; 0x1b39
     10c:	0d140000 	ldceq	0, cr0, [r4, #-0]
     110:	3a080300 	bcc	200d18 <__bss_end__+0x1f5f20>
     114:	390b3b0b 	stmdbcc	fp, {r0, r1, r3, r8, r9, fp, ip, sp}
     118:	3813490b 	ldmdacc	r3, {r0, r1, r3, r8, fp, lr}
     11c:	1500000b 	strne	r0, [r0, #-11]
     120:	08030034 	stmdaeq	r3, {r2, r4, r5}
     124:	0b3b0b3a 	bleq	ec2e14 <__bss_end__+0xeb801c>
     128:	13490b39 	movtne	r0, #39737	; 0x9b39
     12c:	42b71702 	adcsmi	r1, r7, #524288	; 0x80000
     130:	16000017 			; <UNDEFINED> instruction: 0x16000017
     134:	0e030034 	mcreq	0, 0, r0, cr3, cr4, {1}
     138:	19341349 	ldmdbne	r4!, {r0, r3, r6, r8, r9, ip}
     13c:	00001802 	andeq	r1, r0, r2, lsl #16
     140:	55010b17 	strpl	r0, [r1, #-2839]	; 0xfffff4e9
     144:	00130117 	andseq	r0, r3, r7, lsl r1
     148:	010b1800 	tsteq	fp, r0, lsl #16
     14c:	00001755 	andeq	r1, r0, r5, asr r7
     150:	31011d19 	tstcc	r1, r9, lsl sp
     154:	b8015213 	stmdalt	r1, {r0, r1, r4, r9, ip, lr}
     158:	01110b42 	tsteq	r1, r2, asr #22
     15c:	0b580612 	bleq	16019ac <__bss_end__+0x15f6bb4>
     160:	0b570b59 	bleq	15c2ecc <__bss_end__+0x15b80d4>
     164:	00001301 	andeq	r1, r0, r1, lsl #6
     168:	3100051a 	tstcc	r0, sl, lsl r5
     16c:	b7170213 			; <UNDEFINED> instruction: 0xb7170213
     170:	00001742 	andeq	r1, r0, r2, asr #14
     174:	4901011b 	stmdbmi	r1, {r0, r1, r3, r4, r8}
     178:	00130113 	andseq	r0, r3, r3, lsl r1
     17c:	00211c00 	eoreq	r1, r1, r0, lsl #24
     180:	0b2f1349 	bleq	bc4eac <__bss_end__+0xbba0b4>
     184:	2e1d0000 	cdpcs	0, 1, cr0, cr13, cr0, {0}
     188:	3a0e0301 	bcc	380d94 <__bss_end__+0x375f9c>
     18c:	390b3b0b 	stmdbcc	fp, {r0, r1, r3, r8, r9, fp, ip, sp}
     190:	4919270b 	ldmdbmi	r9, {r0, r1, r3, r8, r9, sl, sp}
     194:	010b2013 	tsteq	fp, r3, lsl r0
     198:	1e000013 	mcrne	0, 0, r0, cr0, cr3, {0}
     19c:	0e030005 	cdpeq	0, 0, cr0, cr3, cr5, {0}
     1a0:	0b3b0b3a 	bleq	ec2e90 <__bss_end__+0xeb8098>
     1a4:	13490b39 	movtne	r0, #39737	; 0x9b39
     1a8:	2e1f0000 	cdpcs	0, 1, cr0, cr15, cr0, {0}
     1ac:	3c193f00 	ldccc	15, cr3, [r9], {-0}
     1b0:	030e6e19 	movweq	r6, #60953	; 0xee19
     1b4:	3b0b3a0e 	blcc	2ce9f4 <__bss_end__+0x2c3bfc>
     1b8:	000b390b 	andeq	r3, fp, fp, lsl #18
     1bc:	00362000 	eorseq	r2, r6, r0
     1c0:	00001802 	andeq	r1, r0, r2, lsl #16
     1c4:	01110100 	tsteq	r1, r0, lsl #2
     1c8:	0b130e25 	bleq	4c3a64 <__bss_end__+0x4b8c6c>
     1cc:	0e1b0e03 	cdpeq	14, 1, cr0, cr11, cr3, {0}
     1d0:	06120111 			; <UNDEFINED> instruction: 0x06120111
     1d4:	00001710 	andeq	r1, r0, r0, lsl r7
     1d8:	0b002402 	bleq	91e8 <va_printk+0x194>
     1dc:	030b3e0b 	movweq	r3, #48651	; 0xbe0b
     1e0:	03000008 	movweq	r0, #8
     1e4:	0b0b0024 	bleq	2c027c <__bss_end__+0x2b5484>
     1e8:	0e030b3e 	vmoveq.16	d3[0], r0
     1ec:	16040000 	strne	r0, [r4], -r0
     1f0:	3a0e0300 	bcc	380df8 <__bss_end__+0x376000>
     1f4:	390b3b0b 	stmdbcc	fp, {r0, r1, r3, r8, r9, fp, ip, sp}
     1f8:	0013490b 	andseq	r4, r3, fp, lsl #18
     1fc:	01150500 	tsteq	r5, r0, lsl #10
     200:	13491927 	movtne	r1, #39207	; 0x9927
     204:	00001301 	andeq	r1, r0, r1, lsl #6
     208:	49000506 	stmdbmi	r0, {r1, r2, r8, sl}
     20c:	07000013 	smladeq	r0, r3, r0, r0
     210:	0e030034 	mcreq	0, 0, r0, cr3, cr4, {1}
     214:	0b3b0b3a 	bleq	ec2f04 <__bss_end__+0xeb810c>
     218:	13490b39 	movtne	r0, #39737	; 0x9b39
     21c:	193c193f 	ldmdbne	ip!, {r0, r1, r2, r3, r4, r5, r8, fp, ip}
     220:	0f080000 	svceq	0x00080000
     224:	490b0b00 	stmdbmi	fp, {r8, r9, fp}
     228:	09000013 	stmdbeq	r0, {r0, r1, r4}
     22c:	13490026 	movtne	r0, #36902	; 0x9026
     230:	130a0000 	movwne	r0, #40960	; 0xa000
     234:	3a0b0b01 	bcc	2c2e40 <__bss_end__+0x2b8048>
     238:	390b3b0b 	stmdbcc	fp, {r0, r1, r3, r8, r9, fp, ip, sp}
     23c:	0013010b 	andseq	r0, r3, fp, lsl #2
     240:	000d0b00 	andeq	r0, sp, r0, lsl #22
     244:	0b3a0e03 	bleq	e83a58 <__bss_end__+0xe78c60>
     248:	0b390b3b 	bleq	e42f3c <__bss_end__+0xe38144>
     24c:	0b381349 	bleq	e04f78 <__bss_end__+0xdfa180>
     250:	040c0000 	streq	r0, [ip], #-0
     254:	0b0b3e01 	bleq	2cfa60 <__bss_end__+0x2c4c68>
     258:	3a13490b 	bcc	4d268c <__bss_end__+0x4c7894>
     25c:	390b3b0b 	stmdbcc	fp, {r0, r1, r3, r8, r9, fp, ip, sp}
     260:	0013010b 	andseq	r0, r3, fp, lsl #2
     264:	00280d00 	eoreq	r0, r8, r0, lsl #26
     268:	0b1c0e03 	bleq	703a7c <__bss_end__+0x6f8c84>
     26c:	130e0000 	movwne	r0, #57344	; 0xe000
     270:	0b0e0301 	bleq	380e7c <__bss_end__+0x376084>
     274:	3b0b3a0b 	blcc	2ceaa8 <__bss_end__+0x2c3cb0>
     278:	010b390b 	tsteq	fp, fp, lsl #18
     27c:	0f000013 	svceq	0x00000013
     280:	0b0b000f 	bleq	2c02c4 <__bss_end__+0x2b54cc>
     284:	34100000 	ldrcc	r0, [r0], #-0
     288:	3a0e0300 	bcc	380e90 <__bss_end__+0x376098>
     28c:	390b3b0b 	stmdbcc	fp, {r0, r1, r3, r8, r9, fp, ip, sp}
     290:	0213490b 	andseq	r4, r3, #180224	; 0x2c000
     294:	11000018 	tstne	r0, r8, lsl r0
     298:	193f012e 	ldmdbne	pc!, {r1, r2, r3, r5, r8}	; <UNPREDICTABLE>
     29c:	0b3a0e03 	bleq	e83ab0 <__bss_end__+0xe78cb8>
     2a0:	0b390b3b 	bleq	e42f94 <__bss_end__+0xe3819c>
     2a4:	13491927 	movtne	r1, #39207	; 0x9927
     2a8:	06120111 			; <UNDEFINED> instruction: 0x06120111
     2ac:	42971840 	addsmi	r1, r7, #64, 16	; 0x400000
     2b0:	00130119 	andseq	r0, r3, r9, lsl r1
     2b4:	00051200 	andeq	r1, r5, r0, lsl #4
     2b8:	0b3a0e03 	bleq	e83acc <__bss_end__+0xe78cd4>
     2bc:	0b390b3b 	bleq	e42fb0 <__bss_end__+0xe381b8>
     2c0:	17021349 	strne	r1, [r2, -r9, asr #6]
     2c4:	001742b7 			; <UNDEFINED> instruction: 0x001742b7
     2c8:	00051300 	andeq	r1, r5, r0, lsl #6
     2cc:	0b3a0803 	bleq	e822e0 <__bss_end__+0xe774e8>
     2d0:	0b390b3b 	bleq	e42fc4 <__bss_end__+0xe381cc>
     2d4:	18021349 	stmdane	r2, {r0, r3, r6, r8, r9, ip}
     2d8:	34140000 	ldrcc	r0, [r4], #-0
     2dc:	3a080300 	bcc	200ee4 <__bss_end__+0x1f60ec>
     2e0:	390b3b0b 	stmdbcc	fp, {r0, r1, r3, r8, r9, fp, ip, sp}
     2e4:	0213490b 	andseq	r4, r3, #180224	; 0x2c000
     2e8:	1742b717 	smlaldne	fp, r2, r7, r7
     2ec:	89150000 	ldmdbhi	r5, {}	; <UNPREDICTABLE>
     2f0:	11010182 	smlabbne	r1, r2, r1, r0
     2f4:	01133101 	tsteq	r3, r1, lsl #2
     2f8:	16000013 			; <UNDEFINED> instruction: 0x16000013
     2fc:	0001828a 	andeq	r8, r1, sl, lsl #5
     300:	42911802 	addsmi	r1, r1, #131072	; 0x20000
     304:	17000018 	smladne	r0, r8, r0, r0
     308:	01018289 	smlabbeq	r1, r9, r2, r8
     30c:	13310111 	teqne	r1, #1073741828	; 0x40000004
     310:	2e180000 	cdpcs	0, 1, cr0, cr8, cr0, {0}
     314:	03193f01 	tsteq	r9, #1, 30
     318:	3b0b3a0e 	blcc	2ceb58 <__bss_end__+0x2c3d60>
     31c:	270b390b 	strcs	r3, [fp, -fp, lsl #18]
     320:	12011119 	andne	r1, r1, #1073741830	; 0x40000006
     324:	97184006 	ldrls	r4, [r8, -r6]
     328:	13011942 	movwne	r1, #6466	; 0x1942
     32c:	34190000 	ldrcc	r0, [r9], #-0
     330:	490e0300 	stmdbmi	lr, {r8, r9}
     334:	02193413 	andseq	r3, r9, #318767104	; 0x13000000
     338:	1a000018 	bne	3a0 <__code_start__-0x7c60>
     33c:	00018289 	andeq	r8, r1, r9, lsl #5
     340:	13310111 	teqne	r1, #1073741828	; 0x40000004
     344:	011b0000 	tsteq	fp, r0
     348:	01134901 	tsteq	r3, r1, lsl #18
     34c:	1c000013 	stcne	0, cr0, [r0], {19}
     350:	13490021 	movtne	r0, #36897	; 0x9021
     354:	00000b2f 	andeq	r0, r0, pc, lsr #22
     358:	03012e1d 	movweq	r2, #7709	; 0x1e1d
     35c:	3b0b3a0e 	blcc	2ceb9c <__bss_end__+0x2c3da4>
     360:	270b390b 	strcs	r3, [fp, -fp, lsl #18]
     364:	12011119 	andne	r1, r1, #1073741830	; 0x40000006
     368:	97184006 	ldrls	r4, [r8, -r6]
     36c:	13011942 	movwne	r1, #6466	; 0x1942
     370:	051e0000 	ldreq	r0, [lr, #-0]
     374:	3a080300 	bcc	200f7c <__bss_end__+0x1f6184>
     378:	390b3b0b 	stmdbcc	fp, {r0, r1, r3, r8, r9, fp, ip, sp}
     37c:	0213490b 	andseq	r4, r3, #180224	; 0x2c000
     380:	1742b717 	smlaldne	fp, r2, r7, r7
     384:	341f0000 	ldrcc	r0, [pc], #-0	; 38c <__code_start__-0x7c74>
     388:	3a0e0300 	bcc	380f90 <__bss_end__+0x376198>
     38c:	390b3b0b 	stmdbcc	fp, {r0, r1, r3, r8, r9, fp, ip, sp}
     390:	0213490b 	andseq	r4, r3, #180224	; 0x2c000
     394:	1742b717 	smlaldne	fp, r2, r7, r7
     398:	0b200000 	bleq	8003a0 <__bss_end__+0x7f55a8>
     39c:	12011101 	andne	r1, r1, #1073741824	; 0x40000000
     3a0:	21000006 	tstcs	r0, r6
     3a4:	1331011d 	teqne	r1, #1073741831	; 0x40000007
     3a8:	42b80152 	adcsmi	r0, r8, #-2147483628	; 0x80000014
     3ac:	1201110b 	andne	r1, r1, #-1073741822	; 0xc0000002
     3b0:	590b5806 	stmdbpl	fp, {r1, r2, fp, ip, lr}
     3b4:	010b570b 	tsteq	fp, fp, lsl #14
     3b8:	22000013 	andcs	r0, r0, #19, 0
     3bc:	13310005 	teqne	r1, #5, 0
     3c0:	42b71702 	adcsmi	r1, r7, #524288	; 0x80000
     3c4:	23000017 	movwcs	r0, #23
     3c8:	193f002e 	ldmdbne	pc!, {r1, r2, r3, r5}	; <UNPREDICTABLE>
     3cc:	0b3a0e03 	bleq	e83be0 <__bss_end__+0xe78de8>
     3d0:	0b390b3b 	bleq	e430c4 <__bss_end__+0xe382cc>
     3d4:	13491927 	movtne	r1, #39207	; 0x9927
     3d8:	06120111 			; <UNDEFINED> instruction: 0x06120111
     3dc:	42971840 	addsmi	r1, r7, #64, 16	; 0x400000
     3e0:	24000019 	strcs	r0, [r0], #-25	; 0xffffffe7
     3e4:	0e03012e 	adfeqsp	f0, f3, #0.5
     3e8:	0b3b0b3a 	bleq	ec30d8 <__bss_end__+0xeb82e0>
     3ec:	19270b39 	stmdbne	r7!, {r0, r3, r4, r5, r8, r9, fp}
     3f0:	0b201349 	bleq	80511c <__bss_end__+0x7fa324>
     3f4:	00001301 	andeq	r1, r0, r1, lsl #6
     3f8:	03000525 	movweq	r0, #1317	; 0x525
     3fc:	3b0b3a08 	blcc	2cec24 <__bss_end__+0x2c3e2c>
     400:	490b390b 	stmdbmi	fp, {r0, r1, r3, r8, fp, ip, sp}
     404:	26000013 			; <UNDEFINED> instruction: 0x26000013
     408:	193f002e 	ldmdbne	pc!, {r1, r2, r3, r5}	; <UNPREDICTABLE>
     40c:	0e6e193c 			; <UNDEFINED> instruction: 0x0e6e193c
     410:	0b3a0e03 	bleq	e83c24 <__bss_end__+0xe78e2c>
     414:	0b390b3b 	bleq	e43108 <__bss_end__+0xe38310>
     418:	01000000 	mrseq	r0, (UNDEF: 0)
     41c:	0e250111 	mcreq	1, 1, r0, cr5, cr1, {0}
     420:	0e030b13 	vmoveq.32	d3[0], r0
     424:	01110e1b 	tsteq	r1, fp, lsl lr
     428:	17100612 			; <UNDEFINED> instruction: 0x17100612
     42c:	24020000 	strcs	r0, [r2], #-0
     430:	3e0b0b00 	vmlacc.f64	d0, d11, d0
     434:	0008030b 	andeq	r0, r8, fp, lsl #6
     438:	00240300 	eoreq	r0, r4, r0, lsl #6
     43c:	0b3e0b0b 	bleq	f83070 <__bss_end__+0xf78278>
     440:	00000e03 	andeq	r0, r0, r3, lsl #28
     444:	27011504 	strcs	r1, [r1, -r4, lsl #10]
     448:	01134919 	tsteq	r3, r9, lsl r9
     44c:	05000013 	streq	r0, [r0, #-19]	; 0xffffffed
     450:	13490005 	movtne	r0, #36869	; 0x9005
     454:	34060000 	strcc	r0, [r6], #-0
     458:	3a0e0300 	bcc	381060 <__bss_end__+0x376268>
     45c:	390b3b0b 	stmdbcc	fp, {r0, r1, r3, r8, r9, fp, ip, sp}
     460:	3f13490b 	svccc	0x0013490b
     464:	00193c19 	andseq	r3, r9, r9, lsl ip
     468:	000f0700 	andeq	r0, pc, r0, lsl #14
     46c:	13490b0b 	movtne	r0, #39691	; 0x9b0b
     470:	26080000 	strcs	r0, [r8], -r0
     474:	00134900 	andseq	r4, r3, r0, lsl #18
     478:	01170900 	tsteq	r7, r0, lsl #18
     47c:	0b0b0e03 	bleq	2c3c90 <__bss_end__+0x2b8e98>
     480:	0b3b0b3a 	bleq	ec3170 <__bss_end__+0xeb8378>
     484:	13010b39 	movwne	r0, #6969	; 0x1b39
     488:	0d0a0000 	stceq	0, cr0, [sl, #-0]
     48c:	3a080300 	bcc	201094 <__bss_end__+0x1f629c>
     490:	390b3b0b 	stmdbcc	fp, {r0, r1, r3, r8, r9, fp, ip, sp}
     494:	0013490b 	andseq	r4, r3, fp, lsl #18
     498:	000f0b00 	andeq	r0, pc, r0, lsl #22
     49c:	00000b0b 	andeq	r0, r0, fp, lsl #22
     4a0:	2700150c 	strcs	r1, [r0, -ip, lsl #10]
     4a4:	0d000019 	stceq	0, cr0, [r0, #-100]	; 0xffffff9c
     4a8:	0b0b0113 	bleq	2c08fc <__bss_end__+0x2b5b04>
     4ac:	0b3b0b3a 	bleq	ec319c <__bss_end__+0xeb83a4>
     4b0:	13010b39 	movwne	r0, #6969	; 0x1b39
     4b4:	0d0e0000 	stceq	0, cr0, [lr, #-0]
     4b8:	3a080300 	bcc	2010c0 <__bss_end__+0x1f62c8>
     4bc:	390b3b0b 	stmdbcc	fp, {r0, r1, r3, r8, r9, fp, ip, sp}
     4c0:	3813490b 	ldmdacc	r3, {r0, r1, r3, r8, fp, lr}
     4c4:	0f00000b 	svceq	0x0000000b
     4c8:	0e03000d 	cdpeq	0, 0, cr0, cr3, cr13, {0}
     4cc:	0b3b0b3a 	bleq	ec31bc <__bss_end__+0xeb83c4>
     4d0:	13490b39 	movtne	r0, #39737	; 0x9b39
     4d4:	00000b38 	andeq	r0, r0, r8, lsr fp
     4d8:	03001610 	movweq	r1, #1552	; 0x610
     4dc:	3b0b3a0e 	blcc	2ced1c <__bss_end__+0x2c3f24>
     4e0:	490b390b 	stmdbmi	fp, {r0, r1, r3, r8, fp, ip, sp}
     4e4:	11000013 	tstne	r0, r3, lsl r0
     4e8:	0e030034 	mcreq	0, 0, r0, cr3, cr4, {1}
     4ec:	0b3b0b3a 	bleq	ec31dc <__bss_end__+0xeb83e4>
     4f0:	13490b39 	movtne	r0, #39737	; 0x9b39
     4f4:	00001802 	andeq	r1, r0, r2, lsl #16
     4f8:	3f012e12 	svccc	0x00012e12
     4fc:	3a0e0319 	bcc	381168 <__bss_end__+0x376370>
     500:	390b3b0b 	stmdbcc	fp, {r0, r1, r3, r8, r9, fp, ip, sp}
     504:	1119270b 	tstne	r9, fp, lsl #14
     508:	40061201 	andmi	r1, r6, r1, lsl #4
     50c:	19429718 	stmdbne	r2, {r3, r4, r8, r9, sl, ip, pc}^
     510:	00001301 	andeq	r1, r0, r1, lsl #6
     514:	03000513 	movweq	r0, #1299	; 0x513
     518:	3b0b3a08 	blcc	2ced40 <__bss_end__+0x2c3f48>
     51c:	490b390b 	stmdbmi	fp, {r0, r1, r3, r8, fp, ip, sp}
     520:	00180213 	andseq	r0, r8, r3, lsl r2
     524:	00341400 	eorseq	r1, r4, r0, lsl #8
     528:	0b3a0803 	bleq	e8253c <__bss_end__+0xe77744>
     52c:	0b390b3b 	bleq	e43220 <__bss_end__+0xe38428>
     530:	17021349 	strne	r1, [r2, -r9, asr #6]
     534:	001742b7 			; <UNDEFINED> instruction: 0x001742b7
     538:	012e1500 			; <UNDEFINED> instruction: 0x012e1500
     53c:	0e03193f 			; <UNDEFINED> instruction: 0x0e03193f
     540:	0b3b0b3a 	bleq	ec3230 <__bss_end__+0xeb8438>
     544:	19270b39 	stmdbne	r7!, {r0, r3, r4, r5, r8, r9, fp}
     548:	01111349 	tsteq	r1, r9, asr #6
     54c:	18400612 	stmdane	r0, {r1, r4, r9, sl}^
     550:	01194297 			; <UNDEFINED> instruction: 0x01194297
     554:	16000013 			; <UNDEFINED> instruction: 0x16000013
     558:	0e030005 	cdpeq	0, 0, cr0, cr3, cr5, {0}
     55c:	0b3b0b3a 	bleq	ec324c <__bss_end__+0xeb8454>
     560:	13490b39 	movtne	r0, #39737	; 0x9b39
     564:	42b71702 	adcsmi	r1, r7, #524288	; 0x80000
     568:	17000017 	smladne	r0, r7, r0, r0
     56c:	0e030034 	mcreq	0, 0, r0, cr3, cr4, {1}
     570:	0b3b0b3a 	bleq	ec3260 <__bss_end__+0xeb8468>
     574:	13490b39 	movtne	r0, #39737	; 0x9b39
     578:	42b71702 	adcsmi	r1, r7, #524288	; 0x80000
     57c:	18000017 	stmdane	r0, {r0, r1, r2, r4}
     580:	01018289 	smlabbeq	r1, r9, r2, r8
     584:	13310111 	teqne	r1, #1073741828	; 0x40000004
     588:	8a190000 	bhi	640590 <__bss_end__+0x635798>
     58c:	02000182 	andeq	r0, r0, #-2147483616	; 0x80000020
     590:	18429118 	stmdane	r2, {r3, r4, r8, ip, pc}^
     594:	2e1a0000 	cdpcs	0, 1, cr0, cr10, cr0, {0}
     598:	3a0e0301 	bcc	3811a4 <__bss_end__+0x3763ac>
     59c:	390b3b0b 	stmdbcc	fp, {r0, r1, r3, r8, r9, fp, ip, sp}
     5a0:	4919270b 	ldmdbmi	r9, {r0, r1, r3, r8, r9, sl, sp}
     5a4:	12011113 	andne	r1, r1, #-1073741820	; 0xc0000004
     5a8:	97184006 	ldrls	r4, [r8, -r6]
     5ac:	13011942 	movwne	r1, #6466	; 0x1942
     5b0:	051b0000 	ldreq	r0, [fp, #-0]
     5b4:	3a080300 	bcc	2011bc <__bss_end__+0x1f63c4>
     5b8:	390b3b0b 	stmdbcc	fp, {r0, r1, r3, r8, r9, fp, ip, sp}
     5bc:	0213490b 	andseq	r4, r3, #180224	; 0x2c000
     5c0:	1742b717 	smlaldne	fp, r2, r7, r7
     5c4:	891c0000 	ldmdbhi	ip, {}	; <UNPREDICTABLE>
     5c8:	11010182 	smlabbne	r1, r2, r1, r0
     5cc:	01133101 	tsteq	r3, r1, lsl #2
     5d0:	1d000013 	stcne	0, cr0, [r0, #-76]	; 0xffffffb4
     5d4:	00018289 	andeq	r8, r1, r9, lsl #5
     5d8:	13310111 	teqne	r1, #1073741828	; 0x40000004
     5dc:	2e1e0000 	cdpcs	0, 1, cr0, cr14, cr0, {0}
     5e0:	3c193f00 	ldccc	15, cr3, [r9], {-0}
     5e4:	030e6e19 	movweq	r6, #60953	; 0xee19
     5e8:	3b0b3a0e 	blcc	2cee28 <__bss_end__+0x2c4030>
     5ec:	000b390b 	andeq	r3, fp, fp, lsl #18
     5f0:	11010000 	mrsne	r0, (UNDEF: 1)
     5f4:	130e2501 	movwne	r2, #58625	; 0xe501
     5f8:	1b0e030b 	blne	38122c <__bss_end__+0x376434>
     5fc:	1201110e 	andne	r1, r1, #-2147483645	; 0x80000003
     600:	00171006 	andseq	r1, r7, r6
     604:	00240200 	eoreq	r0, r4, r0, lsl #4
     608:	0b3e0b0b 	bleq	f8323c <__bss_end__+0xf78444>
     60c:	00000803 	andeq	r0, r0, r3, lsl #16
     610:	0b002403 	bleq	9624 <va_printk+0x5d0>
     614:	030b3e0b 	movweq	r3, #48651	; 0xbe0b
     618:	0400000e 	streq	r0, [r0], #-14
     61c:	0e030016 	mcreq	0, 0, r0, cr3, cr6, {0}
     620:	0b3b0b3a 	bleq	ec3310 <__bss_end__+0xeb8518>
     624:	13490b39 	movtne	r0, #39737	; 0x9b39
     628:	15050000 	strne	r0, [r5, #-0]
     62c:	49192701 	ldmdbmi	r9, {r0, r8, r9, sl, sp}
     630:	00130113 	andseq	r0, r3, r3, lsl r1
     634:	00050600 	andeq	r0, r5, r0, lsl #12
     638:	00001349 	andeq	r1, r0, r9, asr #6
     63c:	03003407 	movweq	r3, #1031	; 0x407
     640:	3b0b3a0e 	blcc	2cee80 <__bss_end__+0x2c4088>
     644:	490b390b 	stmdbmi	fp, {r0, r1, r3, r8, fp, ip, sp}
     648:	3c193f13 	ldccc	15, cr3, [r9], {19}
     64c:	08000019 	stmdaeq	r0, {r0, r3, r4}
     650:	0b0b000f 	bleq	2c0694 <__bss_end__+0x2b589c>
     654:	00001349 	andeq	r1, r0, r9, asr #6
     658:	49002609 	stmdbmi	r0, {r0, r3, r9, sl, sp}
     65c:	0a000013 	beq	6b0 <__code_start__-0x7950>
     660:	0b0b0113 	bleq	2c0ab4 <__bss_end__+0x2b5cbc>
     664:	0b3b0b3a 	bleq	ec3354 <__bss_end__+0xeb855c>
     668:	13010b39 	movwne	r0, #6969	; 0x1b39
     66c:	0d0b0000 	stceq	0, cr0, [fp, #-0]
     670:	3a0e0300 	bcc	381278 <__bss_end__+0x376480>
     674:	390b3b0b 	stmdbcc	fp, {r0, r1, r3, r8, r9, fp, ip, sp}
     678:	3813490b 	ldmdacc	r3, {r0, r1, r3, r8, fp, lr}
     67c:	0c00000b 	stceq	0, cr0, [r0], {11}
     680:	0e030113 	mcreq	1, 0, r0, cr3, cr3, {0}
     684:	0b3a0b0b 	bleq	e832b8 <__bss_end__+0xe784c0>
     688:	0b390b3b 	bleq	e4337c <__bss_end__+0xe38584>
     68c:	00001301 	andeq	r1, r0, r1, lsl #6
     690:	0b000f0d 	bleq	42cc <__code_start__-0x3d34>
     694:	0e00000b 	cdpeq	0, 0, cr0, cr0, cr11, {0}
     698:	0e030034 	mcreq	0, 0, r0, cr3, cr4, {1}
     69c:	0b3b0b3a 	bleq	ec338c <__bss_end__+0xeb8594>
     6a0:	13490b39 	movtne	r0, #39737	; 0x9b39
     6a4:	00001802 	andeq	r1, r0, r2, lsl #16
     6a8:	3f012e0f 	svccc	0x00012e0f
     6ac:	3a0e0319 	bcc	381318 <__bss_end__+0x376520>
     6b0:	39053b0b 	stmdbcc	r5, {r0, r1, r3, r8, r9, fp, ip, sp}
     6b4:	1119270b 	tstne	r9, fp, lsl #14
     6b8:	40061201 	andmi	r1, r6, r1, lsl #4
     6bc:	19429718 	stmdbne	r2, {r3, r4, r8, r9, sl, ip, pc}^
     6c0:	00001301 	andeq	r1, r0, r1, lsl #6
     6c4:	03003410 	movweq	r3, #1040	; 0x410
     6c8:	3413490e 	ldrcc	r4, [r3], #-2318	; 0xfffff6f2
     6cc:	00180219 	andseq	r0, r8, r9, lsl r2
     6d0:	82891100 	addhi	r1, r9, #0
     6d4:	01110101 	tsteq	r1, r1, lsl #2
     6d8:	13011331 	movwne	r1, #4913	; 0x1331
     6dc:	8a120000 	bhi	4806e4 <__bss_end__+0x4758ec>
     6e0:	02000182 	andeq	r0, r0, #-2147483616	; 0x80000020
     6e4:	18429118 	stmdane	r2, {r3, r4, r8, ip, pc}^
     6e8:	89130000 	ldmdbhi	r3, {}	; <UNPREDICTABLE>
     6ec:	11000182 	smlabbne	r0, r2, r1, r0
     6f0:	00133101 	andseq	r3, r3, r1, lsl #2
     6f4:	01011400 	tsteq	r1, r0, lsl #8
     6f8:	13011349 	movwne	r1, #4937	; 0x1349
     6fc:	21150000 	tstcs	r5, r0
     700:	2f134900 	svccs	0x00134900
     704:	1600000b 	strne	r0, [r0], -fp
     708:	193f012e 	ldmdbne	pc!, {r1, r2, r3, r5, r8}	; <UNPREDICTABLE>
     70c:	0b3a0e03 	bleq	e83f20 <__bss_end__+0xe79128>
     710:	0b39053b 	bleq	e41c04 <__bss_end__+0xe36e0c>
     714:	13491927 	movtne	r1, #39207	; 0x9927
     718:	06120111 			; <UNDEFINED> instruction: 0x06120111
     71c:	42971840 	addsmi	r1, r7, #64, 16	; 0x400000
     720:	00130119 	andseq	r0, r3, r9, lsl r1
     724:	00341700 	eorseq	r1, r4, r0, lsl #14
     728:	0b3a0e03 	bleq	e83f3c <__bss_end__+0xe79144>
     72c:	0b39053b 	bleq	e41c20 <__bss_end__+0xe36e28>
     730:	17021349 	strne	r1, [r2, -r9, asr #6]
     734:	001742b7 			; <UNDEFINED> instruction: 0x001742b7
     738:	012e1800 			; <UNDEFINED> instruction: 0x012e1800
     73c:	0b3a0e03 	bleq	e83f50 <__bss_end__+0xe79158>
     740:	0b390b3b 	bleq	e43434 <__bss_end__+0xe3863c>
     744:	13491927 	movtne	r1, #39207	; 0x9927
     748:	06120111 			; <UNDEFINED> instruction: 0x06120111
     74c:	42971840 	addsmi	r1, r7, #64, 16	; 0x400000
     750:	00130119 	andseq	r0, r3, r9, lsl r1
     754:	00341900 	eorseq	r1, r4, r0, lsl #18
     758:	0b3a0e03 	bleq	e83f6c <__bss_end__+0xe79174>
     75c:	0b390b3b 	bleq	e43450 <__bss_end__+0xe38658>
     760:	17021349 	strne	r1, [r2, -r9, asr #6]
     764:	001742b7 			; <UNDEFINED> instruction: 0x001742b7
     768:	010b1a00 	tsteq	fp, r0, lsl #20
     76c:	13011755 	movwne	r1, #5973	; 0x1755
     770:	341b0000 	ldrcc	r0, [fp], #-0
     774:	3a080300 	bcc	20137c <__bss_end__+0x1f6584>
     778:	390b3b0b 	stmdbcc	fp, {r0, r1, r3, r8, r9, fp, ip, sp}
     77c:	0213490b 	andseq	r4, r3, #180224	; 0x2c000
     780:	1742b717 	smlaldne	fp, r2, r7, r7
     784:	1d1c0000 	ldcne	0, cr0, [ip, #-0]
     788:	52133101 	andspl	r3, r3, #1073741824	; 0x40000000
     78c:	0b42b801 	bleq	10ae798 <__bss_end__+0x10a39a0>
     790:	06120111 			; <UNDEFINED> instruction: 0x06120111
     794:	05590b58 	ldrbeq	r0, [r9, #-2904]	; 0xfffff4a8
     798:	13010b57 	movwne	r0, #6999	; 0x1b57
     79c:	051d0000 	ldreq	r0, [sp, #-0]
     7a0:	02133100 	andseq	r3, r3, #0
     7a4:	1742b717 	smlaldne	fp, r2, r7, r7
     7a8:	891e0000 	ldmdbhi	lr, {}	; <UNPREDICTABLE>
     7ac:	11010182 	smlabbne	r1, r2, r1, r0
     7b0:	00133101 	andseq	r3, r3, r1, lsl #2
     7b4:	012e1f00 			; <UNDEFINED> instruction: 0x012e1f00
     7b8:	0e03193f 			; <UNDEFINED> instruction: 0x0e03193f
     7bc:	0b3b0b3a 	bleq	ec34ac <__bss_end__+0xeb86b4>
     7c0:	19270b39 	stmdbne	r7!, {r0, r3, r4, r5, r8, r9, fp}
     7c4:	01111349 	tsteq	r1, r9, asr #6
     7c8:	18400612 	stmdane	r0, {r1, r4, r9, sl}^
     7cc:	01194297 			; <UNDEFINED> instruction: 0x01194297
     7d0:	20000013 	andcs	r0, r0, r3, lsl r0
     7d4:	193f012e 	ldmdbne	pc!, {r1, r2, r3, r5, r8}	; <UNPREDICTABLE>
     7d8:	0b3a0e03 	bleq	e83fec <__bss_end__+0xe791f4>
     7dc:	0b390b3b 	bleq	e434d0 <__bss_end__+0xe386d8>
     7e0:	01111927 	tsteq	r1, r7, lsr #18
     7e4:	18400612 	stmdane	r0, {r1, r4, r9, sl}^
     7e8:	01194297 			; <UNDEFINED> instruction: 0x01194297
     7ec:	21000013 	tstcs	r0, r3, lsl r0
     7f0:	0e030005 	cdpeq	0, 0, cr0, cr3, cr5, {0}
     7f4:	0b3b0b3a 	bleq	ec34e4 <__bss_end__+0xeb86ec>
     7f8:	13490b39 	movtne	r0, #39737	; 0x9b39
     7fc:	42b71702 	adcsmi	r1, r7, #524288	; 0x80000
     800:	22000017 	andcs	r0, r0, #23, 0
     804:	0e03012e 	adfeqsp	f0, f3, #0.5
     808:	0b3b0b3a 	bleq	ec34f8 <__bss_end__+0xeb8700>
     80c:	19270b39 	stmdbne	r7!, {r0, r3, r4, r5, r8, r9, fp}
     810:	06120111 			; <UNDEFINED> instruction: 0x06120111
     814:	42971840 	addsmi	r1, r7, #64, 16	; 0x400000
     818:	00130119 	andseq	r0, r3, r9, lsl r1
     81c:	00342300 	eorseq	r2, r4, r0, lsl #6
     820:	0b3a0e03 	bleq	e84034 <__bss_end__+0xe7923c>
     824:	0b390b3b 	bleq	e43518 <__bss_end__+0xe38720>
     828:	061c1349 	ldreq	r1, [ip], -r9, asr #6
     82c:	0b240000 	bleq	900834 <__bss_end__+0x8f5a3c>
     830:	12011101 	andne	r1, r1, #1073741824	; 0x40000000
     834:	00130106 	andseq	r0, r3, r6, lsl #2
     838:	00052500 	andeq	r2, r5, r0, lsl #10
     83c:	0b3a0803 	bleq	e82850 <__bss_end__+0xe77a58>
     840:	0b390b3b 	bleq	e43534 <__bss_end__+0xe3873c>
     844:	17021349 	strne	r1, [r2, -r9, asr #6]
     848:	001742b7 			; <UNDEFINED> instruction: 0x001742b7
     84c:	010b2600 	tsteq	fp, r0, lsl #12
     850:	00001755 	andeq	r1, r0, r5, asr r7
     854:	03012e27 	movweq	r2, #7719	; 0x1e27
     858:	3b0b3a0e 	blcc	2cf098 <__bss_end__+0x2c42a0>
     85c:	270b390b 	strcs	r3, [fp, -fp, lsl #18]
     860:	20134919 	andscs	r4, r3, r9, lsl r9
     864:	0013010b 	andseq	r0, r3, fp, lsl #2
     868:	00052800 	andeq	r2, r5, r0, lsl #16
     86c:	0b3a0e03 	bleq	e84080 <__bss_end__+0xe79288>
     870:	0b390b3b 	bleq	e43564 <__bss_end__+0xe3876c>
     874:	00001349 	andeq	r1, r0, r9, asr #6
     878:	3f002e29 	svccc	0x00002e29
     87c:	6e193c19 	mrcvs	12, 0, r3, cr9, cr9, {0}
     880:	3a0e030e 	bcc	3814c0 <__bss_end__+0x3766c8>
     884:	390b3b0b 	stmdbcc	fp, {r0, r1, r3, r8, r9, fp, ip, sp}
     888:	2a00000b 	bcs	8bc <__code_start__-0x7744>
     88c:	18020036 	stmdane	r2, {r1, r2, r4, r5}
     890:	01000000 	mrseq	r0, (UNDEF: 0)
     894:	0e250111 	mcreq	1, 1, r0, cr5, cr1, {0}
     898:	0e030b13 	vmoveq.32	d3[0], r0
     89c:	01110e1b 	tsteq	r1, fp, lsl lr
     8a0:	17100612 			; <UNDEFINED> instruction: 0x17100612
     8a4:	24020000 	strcs	r0, [r2], #-0
     8a8:	3e0b0b00 	vmlacc.f64	d0, d11, d0
     8ac:	0008030b 	andeq	r0, r8, fp, lsl #6
     8b0:	00160300 	andseq	r0, r6, r0, lsl #6
     8b4:	0b3a0e03 	bleq	e840c8 <__bss_end__+0xe792d0>
     8b8:	0b390b3b 	bleq	e435ac <__bss_end__+0xe387b4>
     8bc:	00001349 	andeq	r1, r0, r9, asr #6
     8c0:	0b002404 	bleq	98d8 <delay_ms+0x2c>
     8c4:	030b3e0b 	movweq	r3, #48651	; 0xbe0b
     8c8:	0500000e 	streq	r0, [r0, #-14]
     8cc:	19270115 	stmdbne	r7!, {r0, r2, r4, r8}
     8d0:	13011349 	movwne	r1, #4937	; 0x1349
     8d4:	05060000 	streq	r0, [r6, #-0]
     8d8:	00134900 	andseq	r4, r3, r0, lsl #18
     8dc:	00340700 	eorseq	r0, r4, r0, lsl #14
     8e0:	0b3a0e03 	bleq	e840f4 <__bss_end__+0xe792fc>
     8e4:	0b390b3b 	bleq	e435d8 <__bss_end__+0xe387e0>
     8e8:	193f1349 	ldmdbne	pc!, {r0, r3, r6, r8, r9, ip}	; <UNPREDICTABLE>
     8ec:	0000193c 	andeq	r1, r0, ip, lsr r9
     8f0:	0b000f08 	bleq	4518 <__code_start__-0x3ae8>
     8f4:	0013490b 	andseq	r4, r3, fp, lsl #18
     8f8:	00260900 	eoreq	r0, r6, r0, lsl #18
     8fc:	00001349 	andeq	r1, r0, r9, asr #6
     900:	3f012e0a 	svccc	0x00012e0a
     904:	3a0e0319 	bcc	381570 <__bss_end__+0x376778>
     908:	390b3b0b 	stmdbcc	fp, {r0, r1, r3, r8, r9, fp, ip, sp}
     90c:	4919270b 	ldmdbmi	r9, {r0, r1, r3, r8, r9, sl, sp}
     910:	12011113 	andne	r1, r1, #-1073741820	; 0xc0000004
     914:	97184006 	ldrls	r4, [r8, -r6]
     918:	13011942 	movwne	r1, #6466	; 0x1942
     91c:	050b0000 	streq	r0, [fp, #-0]
     920:	3a080300 	bcc	201528 <__bss_end__+0x1f6730>
     924:	390b3b0b 	stmdbcc	fp, {r0, r1, r3, r8, r9, fp, ip, sp}
     928:	0213490b 	andseq	r4, r3, #180224	; 0x2c000
     92c:	0c000018 	stceq	0, cr0, [r0], {24}
     930:	08030005 	stmdaeq	r3, {r0, r2}
     934:	0b3b0b3a 	bleq	ec3624 <__bss_end__+0xeb882c>
     938:	13490b39 	movtne	r0, #39737	; 0x9b39
     93c:	42b71702 	adcsmi	r1, r7, #524288	; 0x80000
     940:	0d000017 	stceq	0, cr0, [r0, #-92]	; 0xffffffa4
     944:	08030034 	stmdaeq	r3, {r2, r4, r5}
     948:	0b3b0b3a 	bleq	ec3638 <__bss_end__+0xeb8840>
     94c:	13490b39 	movtne	r0, #39737	; 0x9b39
     950:	42b71702 	adcsmi	r1, r7, #524288	; 0x80000
     954:	0e000017 	mcreq	0, 0, r0, cr0, cr7, {0}
     958:	0b0b000f 	bleq	2c099c <__bss_end__+0x2b5ba4>
     95c:	01000000 	mrseq	r0, (UNDEF: 0)
     960:	0e250111 	mcreq	1, 1, r0, cr5, cr1, {0}
     964:	0e030b13 	vmoveq.32	d3[0], r0
     968:	01110e1b 	tsteq	r1, fp, lsl lr
     96c:	17100612 			; <UNDEFINED> instruction: 0x17100612
     970:	16020000 	strne	r0, [r2], -r0
     974:	3a0e0300 	bcc	38157c <__bss_end__+0x376784>
     978:	390b3b0b 	stmdbcc	fp, {r0, r1, r3, r8, r9, fp, ip, sp}
     97c:	0013490b 	andseq	r4, r3, fp, lsl #18
     980:	01130300 	tsteq	r3, r0, lsl #6
     984:	0b0b0e03 	bleq	2c4198 <__bss_end__+0x2b93a0>
     988:	0b3b0b3a 	bleq	ec3678 <__bss_end__+0xeb8880>
     98c:	00001301 	andeq	r1, r0, r1, lsl #6
     990:	03000d04 	movweq	r0, #3332	; 0xd04
     994:	3813490e 	ldmdacc	r3, {r1, r2, r3, r8, fp, lr}
     998:	0019340b 	andseq	r3, r9, fp, lsl #8
     99c:	000f0500 	andeq	r0, pc, r0, lsl #10
     9a0:	00000b0b 	andeq	r0, r0, fp, lsl #22
     9a4:	0b002406 	bleq	99c4 <uart_init+0x34>
     9a8:	030b3e0b 	movweq	r3, #48651	; 0xbe0b
     9ac:	07000008 	streq	r0, [r0, -r8]
     9b0:	0b0b0024 	bleq	2c0a48 <__bss_end__+0x2b5c50>
     9b4:	0e030b3e 	vmoveq.16	d3[0], r0
     9b8:	15080000 	strne	r0, [r8, #-0]
     9bc:	49192701 	ldmdbmi	r9, {r0, r8, r9, sl, sp}
     9c0:	00130113 	andseq	r0, r3, r3, lsl r1
     9c4:	00050900 	andeq	r0, r5, r0, lsl #18
     9c8:	00001349 	andeq	r1, r0, r9, asr #6
     9cc:	0300340a 	movweq	r3, #1034	; 0x40a
     9d0:	3b0b3a0e 	blcc	2cf210 <__bss_end__+0x2c4418>
     9d4:	490b390b 	stmdbmi	fp, {r0, r1, r3, r8, fp, ip, sp}
     9d8:	3c193f13 	ldccc	15, cr3, [r9], {19}
     9dc:	0b000019 	bleq	a48 <__code_start__-0x75b8>
     9e0:	0b0b000f 	bleq	2c0a24 <__bss_end__+0x2b5c2c>
     9e4:	00001349 	andeq	r1, r0, r9, asr #6
     9e8:	4900260c 	stmdbmi	r0, {r2, r3, r9, sl, sp}
     9ec:	0d000013 	stceq	0, cr0, [r0, #-76]	; 0xffffffb4
     9f0:	193f012e 	ldmdbne	pc!, {r1, r2, r3, r5, r8}	; <UNPREDICTABLE>
     9f4:	0b3a0e03 	bleq	e84208 <__bss_end__+0xe79410>
     9f8:	0b390b3b 	bleq	e436ec <__bss_end__+0xe388f4>
     9fc:	13491927 	movtne	r1, #39207	; 0x9927
     a00:	06120111 			; <UNDEFINED> instruction: 0x06120111
     a04:	42971840 	addsmi	r1, r7, #64, 16	; 0x400000
     a08:	00130119 	andseq	r0, r3, r9, lsl r1
     a0c:	00050e00 	andeq	r0, r5, r0, lsl #28
     a10:	0b3a0803 	bleq	e82a24 <__bss_end__+0xe77c2c>
     a14:	0b390b3b 	bleq	e43708 <__bss_end__+0xe38910>
     a18:	18021349 	stmdane	r2, {r0, r3, r6, r8, r9, ip}
     a1c:	180f0000 	stmdane	pc, {}	; <UNPREDICTABLE>
     a20:	10000000 	andne	r0, r0, r0
     a24:	08030034 	stmdaeq	r3, {r2, r4, r5}
     a28:	0b3b0b3a 	bleq	ec3718 <__bss_end__+0xeb8920>
     a2c:	13490b39 	movtne	r0, #39737	; 0x9b39
     a30:	00001802 	andeq	r1, r0, r2, lsl #16
     a34:	03003411 	movweq	r3, #1041	; 0x411
     a38:	3b0b3a0e 	blcc	2cf278 <__bss_end__+0x2c4480>
     a3c:	490b390b 	stmdbmi	fp, {r0, r1, r3, r8, fp, ip, sp}
     a40:	00180213 	andseq	r0, r8, r3, lsl r2
     a44:	00341200 	eorseq	r1, r4, r0, lsl #4
     a48:	0b3a0803 	bleq	e82a5c <__bss_end__+0xe77c64>
     a4c:	0b390b3b 	bleq	e43740 <__bss_end__+0xe38948>
     a50:	17021349 	strne	r1, [r2, -r9, asr #6]
     a54:	001742b7 			; <UNDEFINED> instruction: 0x001742b7
     a58:	82891300 	addhi	r1, r9, #0, 6
     a5c:	01110101 	tsteq	r1, r1, lsl #2
     a60:	13011331 	movwne	r1, #4913	; 0x1331
     a64:	8a140000 	bhi	500a6c <__bss_end__+0x4f5c74>
     a68:	02000182 	andeq	r0, r0, #-2147483616	; 0x80000020
     a6c:	18429118 	stmdane	r2, {r3, r4, r8, ip, pc}^
     a70:	89150000 	ldmdbhi	r5, {}	; <UNPREDICTABLE>
     a74:	11010182 	smlabbne	r1, r2, r1, r0
     a78:	16000001 	strne	r0, [r0], -r1
     a7c:	13490101 	movtne	r0, #37121	; 0x9101
     a80:	00001301 	andeq	r1, r0, r1, lsl #6
     a84:	49002117 	stmdbmi	r0, {r0, r1, r2, r4, r8, sp}
     a88:	00052f13 	andeq	r2, r5, r3, lsl pc
     a8c:	002e1800 	eoreq	r1, lr, r0, lsl #16
     a90:	193c193f 	ldmdbne	ip!, {r0, r1, r2, r3, r4, r5, r8, fp, ip}
     a94:	0e030e6e 	cdpeq	14, 0, cr0, cr3, cr14, {3}
     a98:	0b3b0b3a 	bleq	ec3788 <__bss_end__+0xeb8990>
     a9c:	00000b39 	andeq	r0, r0, r9, lsr fp
     aa0:	01110100 	tsteq	r1, r0, lsl #2
     aa4:	0b130e25 	bleq	4c4340 <__bss_end__+0x4b9548>
     aa8:	0e1b0e03 	cdpeq	14, 1, cr0, cr11, cr3, {0}
     aac:	06120111 			; <UNDEFINED> instruction: 0x06120111
     ab0:	00001710 	andeq	r1, r0, r0, lsl r7
     ab4:	0b002402 	bleq	9ac4 <uart_putc+0x1c>
     ab8:	030b3e0b 	movweq	r3, #48651	; 0xbe0b
     abc:	03000008 	movweq	r0, #8
     ac0:	0b0b0024 	bleq	2c0b58 <__bss_end__+0x2b5d60>
     ac4:	0e030b3e 	vmoveq.16	d3[0], r0
     ac8:	15040000 	strne	r0, [r4, #-0]
     acc:	49192701 	ldmdbmi	r9, {r0, r8, r9, sl, sp}
     ad0:	00130113 	andseq	r0, r3, r3, lsl r1
     ad4:	00050500 	andeq	r0, r5, r0, lsl #10
     ad8:	00001349 	andeq	r1, r0, r9, asr #6
     adc:	03003406 	movweq	r3, #1030	; 0x406
     ae0:	3b0b3a0e 	blcc	2cf320 <__bss_end__+0x2c4528>
     ae4:	490b390b 	stmdbmi	fp, {r0, r1, r3, r8, fp, ip, sp}
     ae8:	3c193f13 	ldccc	15, cr3, [r9], {19}
     aec:	07000019 	smladeq	r0, r9, r0, r0
     af0:	0b0b000f 	bleq	2c0b34 <__bss_end__+0x2b5d3c>
     af4:	00001349 	andeq	r1, r0, r9, asr #6
     af8:	49002608 	stmdbmi	r0, {r3, r9, sl, sp}
     afc:	09000013 	stmdbeq	r0, {r0, r1, r4}
     b00:	13470034 	movtne	r0, #28724	; 0x7034
     b04:	0b3b0b3a 	bleq	ec37f4 <__bss_end__+0xeb89fc>
     b08:	18020b39 	stmdane	r2, {r0, r3, r4, r5, r8, r9, fp}
     b0c:	2e0a0000 	cdpcs	0, 0, cr0, cr10, cr0, {0}
     b10:	03193f01 	tsteq	r9, #1, 30
     b14:	3b0b3a0e 	blcc	2cf354 <__bss_end__+0x2c455c>
     b18:	270b390b 	strcs	r3, [fp, -fp, lsl #18]
     b1c:	11134919 	tstne	r3, r9, lsl r9
     b20:	40061201 	andmi	r1, r6, r1, lsl #4
     b24:	19429618 	stmdbne	r2, {r3, r4, r9, sl, ip, pc}^
     b28:	050b0000 	streq	r0, [fp, #-0]
     b2c:	3a080300 	bcc	201734 <__bss_end__+0x1f693c>
     b30:	390b3b0b 	stmdbcc	fp, {r0, r1, r3, r8, r9, fp, ip, sp}
     b34:	0213490b 	andseq	r4, r3, #180224	; 0x2c000
     b38:	1742b717 	smlaldne	fp, r2, r7, r7
     b3c:	01000000 	mrseq	r0, (UNDEF: 0)
     b40:	0e250111 	mcreq	1, 1, r0, cr5, cr1, {0}
     b44:	0e030b13 	vmoveq.32	d3[0], r0
     b48:	01110e1b 	tsteq	r1, fp, lsl lr
     b4c:	17100612 			; <UNDEFINED> instruction: 0x17100612
     b50:	24020000 	strcs	r0, [r2], #-0
     b54:	3e0b0b00 	vmlacc.f64	d0, d11, d0
     b58:	000e030b 	andeq	r0, lr, fp, lsl #6
     b5c:	00240300 	eoreq	r0, r4, r0, lsl #6
     b60:	0b3e0b0b 	bleq	f83794 <__bss_end__+0xf7899c>
     b64:	00000803 	andeq	r0, r0, r3, lsl #16
     b68:	03001604 	movweq	r1, #1540	; 0x604
     b6c:	3b0b3a0e 	blcc	2cf3ac <__bss_end__+0x2c45b4>
     b70:	490b390b 	stmdbmi	fp, {r0, r1, r3, r8, fp, ip, sp}
     b74:	05000013 	streq	r0, [r0, #-19]	; 0xffffffed
     b78:	19270115 	stmdbne	r7!, {r0, r2, r4, r8}
     b7c:	13011349 	movwne	r1, #4937	; 0x1349
     b80:	05060000 	streq	r0, [r6, #-0]
     b84:	00134900 	andseq	r4, r3, r0, lsl #18
     b88:	00340700 	eorseq	r0, r4, r0, lsl #14
     b8c:	0b3a0e03 	bleq	e843a0 <__bss_end__+0xe795a8>
     b90:	0b390b3b 	bleq	e43884 <__bss_end__+0xe38a8c>
     b94:	193f1349 	ldmdbne	pc!, {r0, r3, r6, r8, r9, ip}	; <UNPREDICTABLE>
     b98:	0000193c 	andeq	r1, r0, ip, lsr r9
     b9c:	0b000f08 	bleq	47c4 <__code_start__-0x383c>
     ba0:	0013490b 	andseq	r4, r3, fp, lsl #18
     ba4:	00260900 	eoreq	r0, r6, r0, lsl #18
     ba8:	00001349 	andeq	r1, r0, r9, asr #6
     bac:	0301130a 	movweq	r1, #4874	; 0x130a
     bb0:	3a0b0b0e 	bcc	2c37f0 <__bss_end__+0x2b89f8>
     bb4:	010b3b0b 	tsteq	fp, fp, lsl #22
     bb8:	0b000013 	bleq	c0c <__code_start__-0x73f4>
     bbc:	0e03000d 	cdpeq	0, 0, cr0, cr3, cr13, {0}
     bc0:	0b381349 	bleq	e058ec <__bss_end__+0xdfaaf4>
     bc4:	00001934 	andeq	r1, r0, r4, lsr r9
     bc8:	0b000f0c 	bleq	4800 <__code_start__-0x3800>
     bcc:	0d00000b 	stceq	0, cr0, [r0, #-44]	; 0xffffffd4
     bd0:	193f012e 	ldmdbne	pc!, {r1, r2, r3, r5, r8}	; <UNPREDICTABLE>
     bd4:	0b3a0e03 	bleq	e843e8 <__bss_end__+0xe795f0>
     bd8:	0b390b3b 	bleq	e438cc <__bss_end__+0xe38ad4>
     bdc:	13491927 	movtne	r1, #39207	; 0x9927
     be0:	06120111 			; <UNDEFINED> instruction: 0x06120111
     be4:	42971840 	addsmi	r1, r7, #64, 16	; 0x400000
     be8:	00130119 	andseq	r0, r3, r9, lsl r1
     bec:	00050e00 	andeq	r0, r5, r0, lsl #28
     bf0:	0b3a0803 	bleq	e82c04 <__bss_end__+0xe77e0c>
     bf4:	0b390b3b 	bleq	e438e8 <__bss_end__+0xe38af0>
     bf8:	17021349 	strne	r1, [r2, -r9, asr #6]
     bfc:	001742b7 			; <UNDEFINED> instruction: 0x001742b7
     c00:	00050f00 	andeq	r0, r5, r0, lsl #30
     c04:	0b3a0e03 	bleq	e84418 <__bss_end__+0xe79620>
     c08:	0b390b3b 	bleq	e438fc <__bss_end__+0xe38b04>
     c0c:	17021349 	strne	r1, [r2, -r9, asr #6]
     c10:	001742b7 			; <UNDEFINED> instruction: 0x001742b7
     c14:	00341000 	eorseq	r1, r4, r0
     c18:	0b3a0803 	bleq	e82c2c <__bss_end__+0xe77e34>
     c1c:	0b390b3b 	bleq	e43910 <__bss_end__+0xe38b18>
     c20:	17021349 	strne	r1, [r2, -r9, asr #6]
     c24:	001742b7 			; <UNDEFINED> instruction: 0x001742b7
     c28:	00341100 	eorseq	r1, r4, r0, lsl #2
     c2c:	0b3a0e03 	bleq	e84440 <__bss_end__+0xe79648>
     c30:	0b390b3b 	bleq	e43924 <__bss_end__+0xe38b2c>
     c34:	17021349 	strne	r1, [r2, -r9, asr #6]
     c38:	001742b7 			; <UNDEFINED> instruction: 0x001742b7
     c3c:	00341200 	eorseq	r1, r4, r0, lsl #4
     c40:	13490e03 	movtne	r0, #40451	; 0x9e03
     c44:	18021934 	stmdane	r2, {r2, r4, r5, r8, fp, ip}
     c48:	0b130000 	bleq	4c0c50 <__bss_end__+0x4b5e58>
     c4c:	00175501 	andseq	r5, r7, r1, lsl #10
     c50:	00341400 	eorseq	r1, r4, r0, lsl #8
     c54:	0b3a0803 	bleq	e82c68 <__bss_end__+0xe77e70>
     c58:	0b390b3b 	bleq	e4394c <__bss_end__+0xe38b54>
     c5c:	18021349 	stmdane	r2, {r0, r3, r6, r8, r9, ip}
     c60:	34150000 	ldrcc	r0, [r5], #-0
     c64:	3a0e0300 	bcc	38186c <__bss_end__+0x376a74>
     c68:	390b3b0b 	stmdbcc	fp, {r0, r1, r3, r8, r9, fp, ip, sp}
     c6c:	0213490b 	andseq	r4, r3, #180224	; 0x2c000
     c70:	16000018 			; <UNDEFINED> instruction: 0x16000018
     c74:	1755010b 	ldrbne	r0, [r5, -fp, lsl #2]
     c78:	00001301 	andeq	r1, r0, r1, lsl #6
     c7c:	01828917 	orreq	r8, r2, r7, lsl r9
     c80:	31011101 	tstcc	r1, r1, lsl #2
     c84:	00130113 	andseq	r0, r3, r3, lsl r1
     c88:	828a1800 	addhi	r1, sl, #0, 16
     c8c:	18020001 	stmdane	r2, {r0}
     c90:	00184291 	mulseq	r8, r1, r2
     c94:	82891900 	addhi	r1, r9, #0, 18
     c98:	01110001 	tsteq	r1, r1
     c9c:	00001331 	andeq	r1, r0, r1, lsr r3
     ca0:	31011d1a 	tstcc	r1, sl, lsl sp
     ca4:	b8015213 	stmdalt	r1, {r0, r1, r4, r9, ip, lr}
     ca8:	17550542 	ldrbne	r0, [r5, -r2, asr #10]
     cac:	0b590b58 	bleq	1643a14 <__bss_end__+0x1638c1c>
     cb0:	13010b57 	movwne	r0, #6999	; 0x1b57
     cb4:	051b0000 	ldreq	r0, [fp, #-0]
     cb8:	02133100 	andseq	r3, r3, #0
     cbc:	1742b717 	smlaldne	fp, r2, r7, r7
     cc0:	051c0000 	ldreq	r0, [ip, #-0]
     cc4:	00133100 	andseq	r3, r3, r0, lsl #2
     cc8:	00341d00 	eorseq	r1, r4, r0, lsl #26
     ccc:	18021331 	stmdane	r2, {r0, r4, r5, r8, r9, ip}
     cd0:	341e0000 	ldrcc	r0, [lr], #-0
     cd4:	02133100 	andseq	r3, r3, #0
     cd8:	1742b717 	smlaldne	fp, r2, r7, r7
     cdc:	341f0000 	ldrcc	r0, [pc], #-0	; ce4 <__code_start__-0x731c>
     ce0:	00133100 	andseq	r3, r3, r0, lsl #2
     ce4:	011d2000 	tsteq	sp, r0
     ce8:	01521331 	cmpeq	r2, r1, lsr r3
     cec:	550542b8 	strpl	r4, [r5, #-696]	; 0xfffffd48
     cf0:	590b5817 	stmdbpl	fp, {r0, r1, r2, r4, fp, ip, lr}
     cf4:	000b570b 	andeq	r5, fp, fp, lsl #14
     cf8:	82892100 	addhi	r2, r9, #0
     cfc:	01110101 	tsteq	r1, r1, lsl #2
     d00:	00001301 	andeq	r1, r0, r1, lsl #6
     d04:	49010122 	stmdbmi	r1, {r1, r5, r8}
     d08:	00130113 	andseq	r0, r3, r3, lsl r1
     d0c:	00212300 	eoreq	r2, r1, r0, lsl #6
     d10:	0b2f1349 	bleq	bc5a3c <__bss_end__+0xbbac44>
     d14:	2e240000 	cdpcs	0, 2, cr0, cr4, cr0, {0}
     d18:	3a0e0301 	bcc	381924 <__bss_end__+0x376b2c>
     d1c:	390b3b0b 	stmdbcc	fp, {r0, r1, r3, r8, r9, fp, ip, sp}
     d20:	4919270b 	ldmdbmi	r9, {r0, r1, r3, r8, r9, sl, sp}
     d24:	010b2013 	tsteq	fp, r3, lsl r0
     d28:	25000013 	strcs	r0, [r0, #-19]	; 0xffffffed
     d2c:	0e030005 	cdpeq	0, 0, cr0, cr3, cr5, {0}
     d30:	0b3b0b3a 	bleq	ec3a20 <__bss_end__+0xeb8c28>
     d34:	13490b39 	movtne	r0, #39737	; 0x9b39
     d38:	05260000 	streq	r0, [r6, #-0]!
     d3c:	3a080300 	bcc	201944 <__bss_end__+0x1f6b4c>
     d40:	390b3b0b 	stmdbcc	fp, {r0, r1, r3, r8, r9, fp, ip, sp}
     d44:	0013490b 	andseq	r4, r3, fp, lsl #18
     d48:	00342700 	eorseq	r2, r4, r0, lsl #14
     d4c:	0b3a0803 	bleq	e82d60 <__bss_end__+0xe77f68>
     d50:	0b390b3b 	bleq	e43a44 <__bss_end__+0xe38c4c>
     d54:	00001349 	andeq	r1, r0, r9, asr #6
     d58:	00010b28 	andeq	r0, r1, r8, lsr #22
     d5c:	00342900 	eorseq	r2, r4, r0, lsl #18
     d60:	0b3a0e03 	bleq	e84574 <__bss_end__+0xe7977c>
     d64:	0b390b3b 	bleq	e43a58 <__bss_end__+0xe38c60>
     d68:	00001349 	andeq	r1, r0, r9, asr #6
     d6c:	03012e2a 	movweq	r2, #7722	; 0x1e2a
     d70:	3b0b3a08 	blcc	2cf598 <__bss_end__+0x2c47a0>
     d74:	270b390b 	strcs	r3, [fp, -fp, lsl #18]
     d78:	20134919 	andscs	r4, r3, r9, lsl r9
     d7c:	0013010b 	andseq	r0, r3, fp, lsl #2
     d80:	012e2b00 			; <UNDEFINED> instruction: 0x012e2b00
     d84:	0e03193f 			; <UNDEFINED> instruction: 0x0e03193f
     d88:	0b3b0b3a 	bleq	ec3a78 <__bss_end__+0xeb8c80>
     d8c:	19270b39 	stmdbne	r7!, {r0, r3, r4, r5, r8, r9, fp}
     d90:	06120111 			; <UNDEFINED> instruction: 0x06120111
     d94:	42971840 	addsmi	r1, r7, #64, 16	; 0x400000
     d98:	00130119 	andseq	r0, r3, r9, lsl r1
     d9c:	012e2c00 			; <UNDEFINED> instruction: 0x012e2c00
     da0:	01111331 	tsteq	r1, r1, lsr r3
     da4:	18400612 	stmdane	r0, {r1, r4, r9, sl}^
     da8:	01194297 			; <UNDEFINED> instruction: 0x01194297
     dac:	2d000013 	stccs	0, cr0, [r0, #-76]	; 0xffffffb4
     db0:	13310005 	teqne	r1, #5, 0
     db4:	00001802 	andeq	r1, r0, r2, lsl #16
     db8:	3100052e 	tstcc	r0, lr, lsr #10
     dbc:	000b1c13 	andeq	r1, fp, r3, lsl ip
     dc0:	010b2f00 	tsteq	fp, r0, lsl #30
     dc4:	01111331 	tsteq	r1, r1, lsr r3
     dc8:	13010612 	movwne	r0, #5650	; 0x1612
     dcc:	2e300000 	cdpcs	0, 3, cr0, cr0, cr0, {0}
     dd0:	3c193f00 	ldccc	15, cr3, [r9], {-0}
     dd4:	030e6e19 	movweq	r6, #60953	; 0xee19
     dd8:	3b0b3a0e 	blcc	2cf618 <__bss_end__+0x2c4820>
     ddc:	000b390b 	andeq	r3, fp, fp, lsl #18
     de0:	11010000 	mrsne	r0, (UNDEF: 1)
     de4:	130e2501 	movwne	r2, #58625	; 0xe501
     de8:	1b0e030b 	blne	381a1c <__bss_end__+0x376c24>
     dec:	1201110e 	andne	r1, r1, #-2147483645	; 0x80000003
     df0:	00171006 	andseq	r1, r7, r6
     df4:	00240200 	eoreq	r0, r4, r0, lsl #4
     df8:	0b3e0b0b 	bleq	f83a2c <__bss_end__+0xf78c34>
     dfc:	00000803 	andeq	r0, r0, r3, lsl #16
     e00:	0b002403 	bleq	9e14 <kmalloc_aligned+0xb4>
     e04:	030b3e0b 	movweq	r3, #48651	; 0xbe0b
     e08:	0400000e 	streq	r0, [r0], #-14
     e0c:	19270115 	stmdbne	r7!, {r0, r2, r4, r8}
     e10:	13011349 	movwne	r1, #4937	; 0x1349
     e14:	05050000 	streq	r0, [r5, #-0]
     e18:	00134900 	andseq	r4, r3, r0, lsl #18
     e1c:	00340600 	eorseq	r0, r4, r0, lsl #12
     e20:	0b3a0e03 	bleq	e84634 <__bss_end__+0xe7983c>
     e24:	0b390b3b 	bleq	e43b18 <__bss_end__+0xe38d20>
     e28:	193f1349 	ldmdbne	pc!, {r0, r3, r6, r8, r9, ip}	; <UNPREDICTABLE>
     e2c:	0000193c 	andeq	r1, r0, ip, lsr r9
     e30:	0b000f07 	bleq	4a54 <__code_start__-0x35ac>
     e34:	0013490b 	andseq	r4, r3, fp, lsl #18
     e38:	00260800 	eoreq	r0, r6, r0, lsl #16
     e3c:	00001349 	andeq	r1, r0, r9, asr #6
     e40:	3f012e09 	svccc	0x00012e09
     e44:	3a0e0319 	bcc	381ab0 <__bss_end__+0x376cb8>
     e48:	390b3b0b 	stmdbcc	fp, {r0, r1, r3, r8, r9, fp, ip, sp}
     e4c:	8719270b 	ldrhi	r2, [r9, -fp, lsl #14]
     e50:	01111901 	tsteq	r1, r1, lsl #18
     e54:	18400612 	stmdane	r0, {r1, r4, r9, sl}^
     e58:	01194297 			; <UNDEFINED> instruction: 0x01194297
     e5c:	0a000013 	beq	eb0 <__code_start__-0x7150>
     e60:	01018289 	smlabbeq	r1, r9, r2, r8
     e64:	13010111 	movwne	r0, #4369	; 0x1111
     e68:	8a0b0000 	bhi	2c0e70 <__bss_end__+0x2b6078>
     e6c:	02000182 	andeq	r0, r0, #-2147483616	; 0x80000020
     e70:	18429118 	stmdane	r2, {r3, r4, r8, ip, pc}^
     e74:	890c0000 	stmdbhi	ip, {}	; <UNPREDICTABLE>
     e78:	11000182 	smlabbne	r0, r2, r1, r0
     e7c:	00133101 	andseq	r3, r3, r1, lsl #2
     e80:	82890d00 	addhi	r0, r9, #0, 26
     e84:	01110101 	tsteq	r1, r1, lsl #2
     e88:	13011331 	movwne	r1, #4913	; 0x1331
     e8c:	2e0e0000 	cdpcs	0, 0, cr0, cr14, cr0, {0}
     e90:	3c193f00 	ldccc	15, cr3, [r9], {-0}
     e94:	030e6e19 	movweq	r6, #60953	; 0xee19
     e98:	3b0b3a0e 	blcc	2cf6d8 <__bss_end__+0x2c48e0>
     e9c:	000b390b 	andeq	r3, fp, fp, lsl #18
     ea0:	11010000 	mrsne	r0, (UNDEF: 1)
     ea4:	130e2501 	movwne	r2, #58625	; 0xe501
     ea8:	1b0e030b 	blne	381adc <__bss_end__+0x376ce4>
     eac:	1201110e 	andne	r1, r1, #-2147483645	; 0x80000003
     eb0:	00171006 	andseq	r1, r7, r6
     eb4:	00240200 	eoreq	r0, r4, r0, lsl #4
     eb8:	0b3e0b0b 	bleq	f83aec <__bss_end__+0xf78cf4>
     ebc:	00000803 	andeq	r0, r0, r3, lsl #16
     ec0:	0b002403 	bleq	9ed4 <kfree_pop+0x44>
     ec4:	030b3e0b 	movweq	r3, #48651	; 0xbe0b
     ec8:	0400000e 	streq	r0, [r0], #-14
     ecc:	19270115 	stmdbne	r7!, {r0, r2, r4, r8}
     ed0:	13011349 	movwne	r1, #4937	; 0x1349
     ed4:	05050000 	streq	r0, [r5, #-0]
     ed8:	00134900 	andseq	r4, r3, r0, lsl #18
     edc:	00340600 	eorseq	r0, r4, r0, lsl #12
     ee0:	0b3a0e03 	bleq	e846f4 <__bss_end__+0xe798fc>
     ee4:	0b390b3b 	bleq	e43bd8 <__bss_end__+0xe38de0>
     ee8:	193f1349 	ldmdbne	pc!, {r0, r3, r6, r8, r9, ip}	; <UNPREDICTABLE>
     eec:	0000193c 	andeq	r1, r0, ip, lsr r9
     ef0:	0b000f07 	bleq	4b14 <__code_start__-0x34ec>
     ef4:	0013490b 	andseq	r4, r3, fp, lsl #18
     ef8:	00260800 	eoreq	r0, r6, r0, lsl #16
     efc:	00001349 	andeq	r1, r0, r9, asr #6
     f00:	3f012e09 	svccc	0x00012e09
     f04:	3a0e0319 	bcc	381b70 <__bss_end__+0x376d78>
     f08:	390b3b0b 	stmdbcc	fp, {r0, r1, r3, r8, r9, fp, ip, sp}
     f0c:	1201110b 	andne	r1, r1, #-1073741822	; 0xc0000002
     f10:	97184006 	ldrls	r4, [r8, -r6]
     f14:	13011942 	movwne	r1, #6466	; 0x1942
     f18:	2e0a0000 	cdpcs	0, 0, cr0, cr10, cr0, {0}
     f1c:	03193f00 	tsteq	r9, #0, 30
     f20:	3b0b3a0e 	blcc	2cf760 <__bss_end__+0x2c4968>
     f24:	270b390b 	strcs	r3, [fp, -fp, lsl #18]
     f28:	00193c19 	andseq	r3, r9, r9, lsl ip
     f2c:	00340b00 	eorseq	r0, r4, r0, lsl #22
     f30:	0b3a0803 	bleq	e82f44 <__bss_end__+0xe7814c>
     f34:	0b390b3b 	bleq	e43c28 <__bss_end__+0xe38e30>
     f38:	17021349 	strne	r1, [r2, -r9, asr #6]
     f3c:	001742b7 			; <UNDEFINED> instruction: 0x001742b7
     f40:	00340c00 	eorseq	r0, r4, r0, lsl #24
     f44:	0b3a0e03 	bleq	e84758 <__bss_end__+0xe79960>
     f48:	0b390b3b 	bleq	e43c3c <__bss_end__+0xe38e44>
     f4c:	00001349 	andeq	r1, r0, r9, asr #6
     f50:	11010b0d 	tstne	r1, sp, lsl #22
     f54:	01061201 	tsteq	r6, r1, lsl #4
     f58:	0e000013 	mcreq	0, 0, r0, cr0, cr3, {0}
     f5c:	00018289 	andeq	r8, r1, r9, lsl #5
     f60:	13310111 	teqne	r1, #1073741828	; 0x40000004
     f64:	2e0f0000 	cdpcs	0, 0, cr0, cr15, cr0, {0}
     f68:	3c193f00 	ldccc	15, cr3, [r9], {-0}
     f6c:	030e6e19 	movweq	r6, #60953	; 0xee19
     f70:	3b0b3a0e 	blcc	2cf7b0 <__bss_end__+0x2c49b8>
     f74:	000b3905 	andeq	r3, fp, r5, lsl #18
     f78:	002e1000 	eoreq	r1, lr, r0
     f7c:	193c193f 	ldmdbne	ip!, {r0, r1, r2, r3, r4, r5, r8, fp, ip}
     f80:	0e030e6e 	cdpeq	14, 0, cr0, cr3, cr14, {3}
     f84:	0b3b0b3a 	bleq	ec3c74 <__bss_end__+0xeb8e7c>
     f88:	00000b39 	andeq	r0, r0, r9, lsr fp
     f8c:	01110100 	tsteq	r1, r0, lsl #2
     f90:	0b130e25 	bleq	4c482c <__bss_end__+0x4b9a34>
     f94:	0e1b0e03 	cdpeq	14, 1, cr0, cr11, cr3, {0}
     f98:	06120111 			; <UNDEFINED> instruction: 0x06120111
     f9c:	00001710 	andeq	r1, r0, r0, lsl r7
     fa0:	0b002402 	bleq	9fb0 <gpio_set_on+0x8>
     fa4:	030b3e0b 	movweq	r3, #48651	; 0xbe0b
     fa8:	03000008 	movweq	r0, #8
     fac:	0b0b0024 	bleq	2c1044 <__bss_end__+0x2b624c>
     fb0:	0e030b3e 	vmoveq.16	d3[0], r0
     fb4:	15040000 	strne	r0, [r4, #-0]
     fb8:	49192701 	ldmdbmi	r9, {r0, r8, r9, sl, sp}
     fbc:	00130113 	andseq	r0, r3, r3, lsl r1
     fc0:	00050500 	andeq	r0, r5, r0, lsl #10
     fc4:	00001349 	andeq	r1, r0, r9, asr #6
     fc8:	03003406 	movweq	r3, #1030	; 0x406
     fcc:	3b0b3a0e 	blcc	2cf80c <__bss_end__+0x2c4a14>
     fd0:	490b390b 	stmdbmi	fp, {r0, r1, r3, r8, fp, ip, sp}
     fd4:	3c193f13 	ldccc	15, cr3, [r9], {19}
     fd8:	07000019 	smladeq	r0, r9, r0, r0
     fdc:	0b0b000f 	bleq	2c1020 <__bss_end__+0x2b6228>
     fe0:	00001349 	andeq	r1, r0, r9, asr #6
     fe4:	49002608 	stmdbmi	r0, {r3, r9, sl, sp}
     fe8:	09000013 	stmdbeq	r0, {r0, r1, r4}
     fec:	193f002e 	ldmdbne	pc!, {r1, r2, r3, r5}	; <UNPREDICTABLE>
     ff0:	0b3a0e03 	bleq	e84804 <__bss_end__+0xe79a0c>
     ff4:	0b390b3b 	bleq	e43ce8 <__bss_end__+0xe38ef0>
     ff8:	01111927 	tsteq	r1, r7, lsr #18
     ffc:	18400612 	stmdane	r0, {r1, r4, r9, sl}^
    1000:	00194297 	mulseq	r9, r7, r2
    1004:	11010000 	mrsne	r0, (UNDEF: 1)
    1008:	130e2501 	movwne	r2, #58625	; 0xe501
    100c:	1b0e030b 	blne	381c40 <__bss_end__+0x376e48>
    1010:	1117550e 	tstne	r7, lr, lsl #10
    1014:	00171001 	andseq	r1, r7, r1
    1018:	00240200 	eoreq	r0, r4, r0, lsl #4
    101c:	0b3e0b0b 	bleq	f83c50 <__bss_end__+0xf78e58>
    1020:	00000803 	andeq	r0, r0, r3, lsl #16
    1024:	49002603 	stmdbmi	r0, {r0, r1, r9, sl, sp}
    1028:	04000013 	streq	r0, [r0], #-19	; 0xffffffed
    102c:	0b0b0024 	bleq	2c10c4 <__bss_end__+0x2b62cc>
    1030:	0e030b3e 	vmoveq.16	d3[0], r0
    1034:	15050000 	strne	r0, [r5, #-0]
    1038:	49192701 	ldmdbmi	r9, {r0, r8, r9, sl, sp}
    103c:	00130113 	andseq	r0, r3, r3, lsl r1
    1040:	00050600 	andeq	r0, r5, r0, lsl #12
    1044:	00001349 	andeq	r1, r0, r9, asr #6
    1048:	03003407 	movweq	r3, #1031	; 0x407
    104c:	3b0b3a0e 	blcc	2cf88c <__bss_end__+0x2c4a94>
    1050:	490b390b 	stmdbmi	fp, {r0, r1, r3, r8, fp, ip, sp}
    1054:	3c193f13 	ldccc	15, cr3, [r9], {19}
    1058:	08000019 	stmdaeq	r0, {r0, r3, r4}
    105c:	0b0b000f 	bleq	2c10a0 <__bss_end__+0x2b62a8>
    1060:	00001349 	andeq	r1, r0, r9, asr #6
    1064:	03003409 	movweq	r3, #1033	; 0x409
    1068:	3b0b3a0e 	blcc	2cf8a8 <__bss_end__+0x2c4ab0>
    106c:	490b390b 	stmdbmi	fp, {r0, r1, r3, r8, fp, ip, sp}
    1070:	0a000013 	beq	10c4 <__code_start__-0x6f3c>
    1074:	193f012e 	ldmdbne	pc!, {r1, r2, r3, r5, r8}	; <UNPREDICTABLE>
    1078:	0b3a0e03 	bleq	e8488c <__bss_end__+0xe79a94>
    107c:	0b390b3b 	bleq	e43d70 <__bss_end__+0xe38f78>
    1080:	01871927 	orreq	r1, r7, r7, lsr #18
    1084:	12011119 	andne	r1, r1, #1073741830	; 0x40000006
    1088:	97184006 	ldrls	r4, [r8, -r6]
    108c:	13011942 	movwne	r1, #6466	; 0x1942
    1090:	340b0000 	strcc	r0, [fp], #-0
    1094:	3a0e0300 	bcc	381c9c <__bss_end__+0x376ea4>
    1098:	390b3b0b 	stmdbcc	fp, {r0, r1, r3, r8, r9, fp, ip, sp}
    109c:	1c13490b 			; <UNDEFINED> instruction: 0x1c13490b
    10a0:	0c000006 	stceq	0, cr0, [r0], {6}
    10a4:	0e030034 	mcreq	0, 0, r0, cr3, cr4, {1}
    10a8:	0b3b0b3a 	bleq	ec3d98 <__bss_end__+0xeb8fa0>
    10ac:	13490b39 	movtne	r0, #39737	; 0x9b39
    10b0:	00000b1c 	andeq	r0, r0, ip, lsl fp
    10b4:	31011d0d 	tstcc	r1, sp, lsl #26
    10b8:	b8015213 	stmdalt	r1, {r0, r1, r4, r9, ip, lr}
    10bc:	17550b42 	ldrbne	r0, [r5, -r2, asr #22]
    10c0:	0b590b58 	bleq	1643e28 <__bss_end__+0x1639030>
    10c4:	13010b57 	movwne	r0, #6999	; 0x1b57
    10c8:	0b0e0000 	bleq	3810d0 <__bss_end__+0x3762d8>
    10cc:	00175501 	andseq	r5, r7, r1, lsl #10
    10d0:	00340f00 	eorseq	r0, r4, r0, lsl #30
    10d4:	17021331 	smladxne	r2, r1, r3, r1
    10d8:	001742b7 			; <UNDEFINED> instruction: 0x001742b7
    10dc:	011d1000 	tsteq	sp, r0
    10e0:	01521331 	cmpeq	r2, r1, lsr r3
    10e4:	110b42b8 			; <UNDEFINED> instruction: 0x110b42b8
    10e8:	58061201 	stmdapl	r6, {r0, r9, ip}
    10ec:	570b590b 	strpl	r5, [fp, -fp, lsl #18]
    10f0:	0013010b 	andseq	r0, r3, fp, lsl #2
    10f4:	82891100 	addhi	r1, r9, #0
    10f8:	01110001 	tsteq	r1, r1
    10fc:	00001331 	andeq	r1, r0, r1, lsr r3
    1100:	01828912 	orreq	r8, r2, r2, lsl r9
    1104:	31011101 	tstcc	r1, r1, lsl #2
    1108:	00130113 	andseq	r0, r3, r3, lsl r1
    110c:	828a1300 	addhi	r1, sl, #0, 6
    1110:	18020001 	stmdane	r2, {r0}
    1114:	00184291 	mulseq	r8, r1, r2
    1118:	82891400 	addhi	r1, r9, #0, 8
    111c:	01110101 	tsteq	r1, r1, lsl #2
    1120:	00001331 	andeq	r1, r0, r1, lsr r3
    1124:	3f012e15 	svccc	0x00012e15
    1128:	3a0e0319 	bcc	381d94 <__bss_end__+0x376f9c>
    112c:	390b3b0b 	stmdbcc	fp, {r0, r1, r3, r8, r9, fp, ip, sp}
    1130:	2019270b 	andscs	r2, r9, fp, lsl #14
    1134:	0013010b 	andseq	r0, r3, fp, lsl #2
    1138:	012e1600 			; <UNDEFINED> instruction: 0x012e1600
    113c:	0e03193f 			; <UNDEFINED> instruction: 0x0e03193f
    1140:	0b3b0b3a 	bleq	ec3e30 <__bss_end__+0xeb9038>
    1144:	19270b39 	stmdbne	r7!, {r0, r3, r4, r5, r8, r9, fp}
    1148:	0b201349 	bleq	805e74 <__bss_end__+0x7fb07c>
    114c:	00001301 	andeq	r1, r0, r1, lsl #6
    1150:	31012e17 	tstcc	r1, r7, lsl lr
    1154:	12011113 	andne	r1, r1, #-1073741820	; 0xc0000004
    1158:	97184006 	ldrls	r4, [r8, -r6]
    115c:	13011942 	movwne	r1, #6466	; 0x1942
    1160:	2e180000 	cdpcs	0, 1, cr0, cr8, cr0, {0}
    1164:	3c193f00 	ldccc	15, cr3, [r9], {-0}
    1168:	030e6e19 	movweq	r6, #60953	; 0xee19
    116c:	3b0b3a0e 	blcc	2cf9ac <__bss_end__+0x2c4bb4>
    1170:	000b3905 	andeq	r3, fp, r5, lsl #18
    1174:	002e1900 	eoreq	r1, lr, r0, lsl #18
    1178:	193c193f 	ldmdbne	ip!, {r0, r1, r2, r3, r4, r5, r8, fp, ip}
    117c:	0e030e6e 	cdpeq	14, 0, cr0, cr3, cr14, {3}
    1180:	0b3b0b3a 	bleq	ec3e70 <__bss_end__+0xeb9078>
    1184:	00000b39 	andeq	r0, r0, r9, lsr fp
    1188:	01110100 	tsteq	r1, r0, lsl #2
    118c:	0b130e25 	bleq	4c4a28 <__bss_end__+0x4b9c30>
    1190:	0e1b0e03 	cdpeq	14, 1, cr0, cr11, cr3, {0}
    1194:	06120111 			; <UNDEFINED> instruction: 0x06120111
    1198:	00001710 	andeq	r1, r0, r0, lsl r7
    119c:	0b002402 	bleq	a1ac <__code_end__+0x14>
    11a0:	030b3e0b 	movweq	r3, #48651	; 0xbe0b
    11a4:	03000008 	movweq	r0, #8
    11a8:	0b0b0024 	bleq	2c1240 <__bss_end__+0x2b6448>
    11ac:	0e030b3e 	vmoveq.16	d3[0], r0
    11b0:	15040000 	strne	r0, [r4, #-0]
    11b4:	49192701 	ldmdbmi	r9, {r0, r8, r9, sl, sp}
    11b8:	00130113 	andseq	r0, r3, r3, lsl r1
    11bc:	00050500 	andeq	r0, r5, r0, lsl #10
    11c0:	00001349 	andeq	r1, r0, r9, asr #6
    11c4:	03003406 	movweq	r3, #1030	; 0x406
    11c8:	3b0b3a0e 	blcc	2cfa08 <__bss_end__+0x2c4c10>
    11cc:	490b390b 	stmdbmi	fp, {r0, r1, r3, r8, fp, ip, sp}
    11d0:	3c193f13 	ldccc	15, cr3, [r9], {19}
    11d4:	07000019 	smladeq	r0, r9, r0, r0
    11d8:	0b0b000f 	bleq	2c121c <__bss_end__+0x2b6424>
    11dc:	00001349 	andeq	r1, r0, r9, asr #6
    11e0:	49002608 	stmdbmi	r0, {r3, r9, sl, sp}
    11e4:	09000013 	stmdbeq	r0, {r0, r1, r4}
    11e8:	193f012e 	ldmdbne	pc!, {r1, r2, r3, r5, r8}	; <UNPREDICTABLE>
    11ec:	0b3a0e03 	bleq	e84a00 <__bss_end__+0xe79c08>
    11f0:	0b390b3b 	bleq	e43ee4 <__bss_end__+0xe390ec>
    11f4:	01111927 	tsteq	r1, r7, lsr #18
    11f8:	18400612 	stmdane	r0, {r1, r4, r9, sl}^
    11fc:	01194297 			; <UNDEFINED> instruction: 0x01194297
    1200:	0a000013 	beq	1254 <__code_start__-0x6dac>
    1204:	08030005 	stmdaeq	r3, {r0, r2}
    1208:	0b3b0b3a 	bleq	ec3ef8 <__bss_end__+0xeb9100>
    120c:	13490b39 	movtne	r0, #39737	; 0x9b39
    1210:	42b71702 	adcsmi	r1, r7, #524288	; 0x80000
    1214:	0b000017 	bleq	1278 <__code_start__-0x6d88>
    1218:	1331011d 	teqne	r1, #1073741831	; 0x40000007
    121c:	42b80152 	adcsmi	r0, r8, #-2147483628	; 0x80000014
    1220:	5817550b 	ldmdapl	r7, {r0, r1, r3, r8, sl, ip, lr}
    1224:	570b590b 	strpl	r5, [fp, -fp, lsl #18]
    1228:	0c00000b 	stceq	0, cr0, [r0], {11}
    122c:	13310005 	teqne	r1, #5, 0
    1230:	42b71702 	adcsmi	r1, r7, #524288	; 0x80000
    1234:	0d000017 	stceq	0, cr0, [r0, #-92]	; 0xffffffa4
    1238:	1331011d 	teqne	r1, #1073741831	; 0x40000007
    123c:	42b80152 	adcsmi	r0, r8, #-2147483628	; 0x80000014
    1240:	1201110b 	andne	r1, r1, #-1073741822	; 0xc0000002
    1244:	590b5806 	stmdbpl	fp, {r1, r2, fp, ip, lr}
    1248:	000b570b 	andeq	r5, fp, fp, lsl #14
    124c:	00340e00 	eorseq	r0, r4, r0, lsl #28
    1250:	17021331 	smladxne	r2, r1, r3, r1
    1254:	001742b7 			; <UNDEFINED> instruction: 0x001742b7
    1258:	011d0f00 	tsteq	sp, r0, lsl #30
    125c:	01521331 	cmpeq	r2, r1, lsr r3
    1260:	110b42b8 			; <UNDEFINED> instruction: 0x110b42b8
    1264:	58061201 	stmdapl	r6, {r0, r9, ip}
    1268:	570b590b 	strpl	r5, [fp, -fp, lsl #18]
    126c:	0013010b 	andseq	r0, r3, fp, lsl #2
    1270:	82891000 	addhi	r1, r9, #0, 0
    1274:	01110101 	tsteq	r1, r1, lsl #2
    1278:	00001331 	andeq	r1, r0, r1, lsr r3
    127c:	01828a11 	orreq	r8, r2, r1, lsl sl
    1280:	91180200 	tstls	r8, r0, lsl #4
    1284:	00001842 	andeq	r1, r0, r2, asr #16
    1288:	01828912 	orreq	r8, r2, r2, lsl r9
    128c:	31011100 	mrscc	r1, (UNDEF: 17)
    1290:	13000013 	movwne	r0, #19
    1294:	1331010b 	teqne	r1, #-1073741822	; 0xc0000002
    1298:	00001755 	andeq	r1, r0, r5, asr r7
    129c:	31003414 	tstcc	r0, r4, lsl r4
    12a0:	15000013 	strne	r0, [r0, #-19]	; 0xffffffed
    12a4:	1755010b 	ldrbne	r0, [r5, -fp, lsl #2]
    12a8:	1d160000 	ldcne	0, cr0, [r6, #-0]
    12ac:	52133101 	andspl	r3, r3, #1073741824	; 0x40000000
    12b0:	0b42b801 	bleq	10af2bc <__bss_end__+0x10a44c4>
    12b4:	0b581755 	bleq	1607010 <__bss_end__+0x15fc218>
    12b8:	0b570b59 	bleq	15c4024 <__bss_end__+0x15b922c>
    12bc:	00001301 	andeq	r1, r0, r1, lsl #6
    12c0:	3f012e17 	svccc	0x00012e17
    12c4:	3a0e0319 	bcc	381f30 <__bss_end__+0x377138>
    12c8:	390b3b0b 	stmdbcc	fp, {r0, r1, r3, r8, r9, fp, ip, sp}
    12cc:	2019270b 	andscs	r2, r9, fp, lsl #14
    12d0:	0013010b 	andseq	r0, r3, fp, lsl #2
    12d4:	00051800 	andeq	r1, r5, r0, lsl #16
    12d8:	0b3a0803 	bleq	e832ec <__bss_end__+0xe784f4>
    12dc:	0b390b3b 	bleq	e43fd0 <__bss_end__+0xe391d8>
    12e0:	00001349 	andeq	r1, r0, r9, asr #6
    12e4:	03003419 	movweq	r3, #1049	; 0x419
    12e8:	3b0b3a08 	blcc	2cfb10 <__bss_end__+0x2c4d18>
    12ec:	490b390b 	stmdbmi	fp, {r0, r1, r3, r8, fp, ip, sp}
    12f0:	1a000013 	bne	1344 <__code_start__-0x6cbc>
    12f4:	0000010b 	andeq	r0, r0, fp, lsl #2
    12f8:	3f012e1b 	svccc	0x00012e1b
    12fc:	3a0e0319 	bcc	381f68 <__bss_end__+0x377170>
    1300:	390b3b0b 	stmdbcc	fp, {r0, r1, r3, r8, r9, fp, ip, sp}
    1304:	4919270b 	ldmdbmi	r9, {r0, r1, r3, r8, r9, sl, sp}
    1308:	010b2013 	tsteq	fp, r3, lsl r0
    130c:	1c000013 	stcne	0, cr0, [r0], {19}
    1310:	193f002e 	ldmdbne	pc!, {r1, r2, r3, r5}	; <UNPREDICTABLE>
    1314:	0b3a0e03 	bleq	e84b28 <__bss_end__+0xe79d30>
    1318:	0b390b3b 	bleq	e4400c <__bss_end__+0xe39214>
    131c:	13491927 	movtne	r1, #39207	; 0x9927
    1320:	00000b20 	andeq	r0, r0, r0, lsr #22
    1324:	31012e1d 	tstcc	r1, sp, lsl lr
    1328:	12011113 	andne	r1, r1, #-1073741820	; 0xc0000004
    132c:	97184006 	ldrls	r4, [r8, -r6]
    1330:	13011942 	movwne	r1, #6466	; 0x1942
    1334:	891e0000 	ldmdbhi	lr, {}	; <UNPREDICTABLE>
    1338:	11010182 	smlabbne	r1, r2, r1, r0
    133c:	19429501 	stmdbne	r2, {r0, r8, sl, ip, pc}^
    1340:	00001331 	andeq	r1, r0, r1, lsr r3
    1344:	3f002e1f 	svccc	0x00002e1f
    1348:	6e193c19 	mrcvs	12, 0, r3, cr9, cr9, {0}
    134c:	3a0e030e 	bcc	381f8c <__bss_end__+0x377194>
    1350:	390b3b0b 	stmdbcc	fp, {r0, r1, r3, r8, r9, fp, ip, sp}
    1354:	0000000b 	andeq	r0, r0, fp
    1358:	25011101 	strcs	r1, [r1, #-257]	; 0xfffffeff
    135c:	030b130e 	movweq	r1, #45838	; 0xb30e
    1360:	110e1b0e 	tstne	lr, lr, lsl #22
    1364:	10061201 	andne	r1, r6, r1, lsl #4
    1368:	02000017 	andeq	r0, r0, #23, 0
    136c:	0b0b0024 	bleq	2c1404 <__bss_end__+0x2b660c>
    1370:	08030b3e 	stmdaeq	r3, {r1, r2, r3, r4, r5, r8, r9, fp}
    1374:	24030000 	strcs	r0, [r3], #-0
    1378:	3e0b0b00 	vmlacc.f64	d0, d11, d0
    137c:	000e030b 	andeq	r0, lr, fp, lsl #6
    1380:	00350400 	eorseq	r0, r5, r0, lsl #8
    1384:	00001349 	andeq	r1, r0, r9, asr #6
    1388:	03001605 	movweq	r1, #1541	; 0x605
    138c:	3b0b3a0e 	blcc	2cfbcc <__bss_end__+0x2c4dd4>
    1390:	490b390b 	stmdbmi	fp, {r0, r1, r3, r8, fp, ip, sp}
    1394:	06000013 			; <UNDEFINED> instruction: 0x06000013
    1398:	0b3e0104 	bleq	f817b0 <__bss_end__+0xf769b8>
    139c:	13490b0b 	movtne	r0, #39691	; 0x9b0b
    13a0:	0b3b0b3a 	bleq	ec4090 <__bss_end__+0xeb9298>
    13a4:	13010b39 	movwne	r0, #6969	; 0x1b39
    13a8:	28070000 	stmdacs	r7, {}	; <UNPREDICTABLE>
    13ac:	1c0e0300 	stcne	3, cr0, [lr], {-0}
    13b0:	0800000b 	stmdaeq	r0, {r0, r1, r3}
    13b4:	0e030113 	mcreq	1, 0, r0, cr3, cr3, {0}
    13b8:	0b3a0b0b 	bleq	e83fec <__bss_end__+0xe791f4>
    13bc:	0b390b3b 	bleq	e440b0 <__bss_end__+0xe392b8>
    13c0:	00001301 	andeq	r1, r0, r1, lsl #6
    13c4:	03000d09 	movweq	r0, #3337	; 0xd09
    13c8:	3b0b3a08 	blcc	2cfbf0 <__bss_end__+0x2c4df8>
    13cc:	490b390b 	stmdbmi	fp, {r0, r1, r3, r8, fp, ip, sp}
    13d0:	000b3813 	andeq	r3, fp, r3, lsl r8
    13d4:	000d0a00 	andeq	r0, sp, r0, lsl #20
    13d8:	0b3a0e03 	bleq	e84bec <__bss_end__+0xe79df4>
    13dc:	0b390b3b 	bleq	e440d0 <__bss_end__+0xe392d8>
    13e0:	0b381349 	bleq	e0610c <__bss_end__+0xdfb314>
    13e4:	340b0000 	strcc	r0, [fp], #-0
    13e8:	3a0e0300 	bcc	381ff0 <__bss_end__+0x3771f8>
    13ec:	390b3b0b 	stmdbcc	fp, {r0, r1, r3, r8, r9, fp, ip, sp}
    13f0:	1c13490b 			; <UNDEFINED> instruction: 0x1c13490b
    13f4:	0c000006 	stceq	0, cr0, [r0], {6}
    13f8:	0b0b000f 	bleq	2c143c <__bss_end__+0x2b6644>
    13fc:	00001349 	andeq	r1, r0, r9, asr #6
    1400:	4900260d 	stmdbmi	r0, {r0, r2, r3, r9, sl, sp}
    1404:	0e000013 	mcreq	0, 0, r0, cr0, cr3, {0}
    1408:	193f012e 	ldmdbne	pc!, {r1, r2, r3, r5, r8}	; <UNPREDICTABLE>
    140c:	0b3a0e03 	bleq	e84c20 <__bss_end__+0xe79e28>
    1410:	0b390b3b 	bleq	e44104 <__bss_end__+0xe3930c>
    1414:	01111927 	tsteq	r1, r7, lsr #18
    1418:	18400612 	stmdane	r0, {r1, r4, r9, sl}^
    141c:	01194297 			; <UNDEFINED> instruction: 0x01194297
    1420:	0f000013 	svceq	0x00000013
    1424:	00018289 	andeq	r8, r1, r9, lsl #5
    1428:	13310111 	teqne	r1, #1073741828	; 0x40000004
    142c:	2e100000 	cdpcs	0, 1, cr0, cr0, cr0, {0}
    1430:	03193f01 	tsteq	r9, #1, 30
    1434:	3b0b3a0e 	blcc	2cfc74 <__bss_end__+0x2c4e7c>
    1438:	270b390b 	strcs	r3, [fp, -fp, lsl #18]
    143c:	11134919 	tstne	r3, r9, lsl r9
    1440:	40061201 	andmi	r1, r6, r1, lsl #4
    1444:	19429718 	stmdbne	r2, {r3, r4, r8, r9, sl, ip, pc}^
    1448:	00001301 	andeq	r1, r0, r1, lsl #6
    144c:	01828911 	orreq	r8, r2, r1, lsl r9
    1450:	31011101 	tstcc	r1, r1, lsl #2
    1454:	12000013 	andne	r0, r0, #19, 0
    1458:	0001828a 	andeq	r8, r1, sl, lsl #5
    145c:	42911802 	addsmi	r1, r1, #131072	; 0x20000
    1460:	13000018 	movwne	r0, #24
    1464:	08030005 	stmdaeq	r3, {r0, r2}
    1468:	0b3b0b3a 	bleq	ec4158 <__bss_end__+0xeb9360>
    146c:	13490b39 	movtne	r0, #39737	; 0x9b39
    1470:	42b71702 	adcsmi	r1, r7, #524288	; 0x80000
    1474:	14000017 	strne	r0, [r0], #-23	; 0xffffffe9
    1478:	01018289 	smlabbeq	r1, r9, r2, r8
    147c:	13310111 	teqne	r1, #1073741828	; 0x40000004
    1480:	00001301 	andeq	r1, r0, r1, lsl #6
    1484:	03003415 	movweq	r3, #1045	; 0x415
    1488:	3b0b3a08 	blcc	2cfcb0 <__bss_end__+0x2c4eb8>
    148c:	490b390b 	stmdbmi	fp, {r0, r1, r3, r8, fp, ip, sp}
    1490:	b7170213 			; <UNDEFINED> instruction: 0xb7170213
    1494:	00001742 	andeq	r1, r0, r2, asr #14
    1498:	03003416 	movweq	r3, #1046	; 0x416
    149c:	3b0b3a0e 	blcc	2cfcdc <__bss_end__+0x2c4ee4>
    14a0:	490b390b 	stmdbmi	fp, {r0, r1, r3, r8, fp, ip, sp}
    14a4:	00051c13 	andeq	r1, r5, r3, lsl ip
    14a8:	012e1700 			; <UNDEFINED> instruction: 0x012e1700
    14ac:	0b3a0e03 	bleq	e84cc0 <__bss_end__+0xe79ec8>
    14b0:	0b390b3b 	bleq	e441a4 <__bss_end__+0xe393ac>
    14b4:	01111927 	tsteq	r1, r7, lsr #18
    14b8:	18400612 	stmdane	r0, {r1, r4, r9, sl}^
    14bc:	01194297 			; <UNDEFINED> instruction: 0x01194297
    14c0:	18000013 	stmdane	r0, {r0, r1, r4}
    14c4:	0e030005 	cdpeq	0, 0, cr0, cr3, cr5, {0}
    14c8:	0b3b0b3a 	bleq	ec41b8 <__bss_end__+0xeb93c0>
    14cc:	13490b39 	movtne	r0, #39737	; 0x9b39
    14d0:	42b71702 	adcsmi	r1, r7, #524288	; 0x80000
    14d4:	19000017 	stmdbne	r0, {r0, r1, r2, r4}
    14d8:	00000035 	andeq	r0, r0, r5, lsr r0
    14dc:	3f002e1a 	svccc	0x00002e1a
    14e0:	6e193c19 	mrcvs	12, 0, r3, cr9, cr9, {0}
    14e4:	3a0e030e 	bcc	382124 <__bss_end__+0x37732c>
    14e8:	390b3b0b 	stmdbcc	fp, {r0, r1, r3, r8, r9, fp, ip, sp}
    14ec:	0000000b 	andeq	r0, r0, fp
    14f0:	25011101 	strcs	r1, [r1, #-257]	; 0xfffffeff
    14f4:	030b130e 	movweq	r1, #45838	; 0xb30e
    14f8:	110e1b0e 	tstne	lr, lr, lsl #22
    14fc:	10061201 	andne	r1, r6, r1, lsl #4
    1500:	02000017 	andeq	r0, r0, #23, 0
    1504:	0b0b0024 	bleq	2c159c <__bss_end__+0x2b67a4>
    1508:	08030b3e 	stmdaeq	r3, {r1, r2, r3, r4, r5, r8, r9, fp}
    150c:	24030000 	strcs	r0, [r3], #-0
    1510:	3e0b0b00 	vmlacc.f64	d0, d11, d0
    1514:	000e030b 	andeq	r0, lr, fp, lsl #6
    1518:	00160400 	andseq	r0, r6, r0, lsl #8
    151c:	0b3a0e03 	bleq	e84d30 <__bss_end__+0xe79f38>
    1520:	0b390b3b 	bleq	e44214 <__bss_end__+0xe3941c>
    1524:	00001349 	andeq	r1, r0, r9, asr #6
    1528:	49002605 	stmdbmi	r0, {r0, r2, r9, sl, sp}
    152c:	06000013 			; <UNDEFINED> instruction: 0x06000013
    1530:	0b0b000f 	bleq	2c1574 <__bss_end__+0x2b677c>
    1534:	04070000 	streq	r0, [r7], #-0
    1538:	0b0b3e01 	bleq	2d0d44 <__bss_end__+0x2c5f4c>
    153c:	3a13490b 	bcc	4d3970 <__bss_end__+0x4c8b78>
    1540:	390b3b0b 	stmdbcc	fp, {r0, r1, r3, r8, r9, fp, ip, sp}
    1544:	0013010b 	andseq	r0, r3, fp, lsl #2
    1548:	00280800 	eoreq	r0, r8, r0, lsl #16
    154c:	061c0e03 	ldreq	r0, [ip], -r3, lsl #28
    1550:	34090000 	strcc	r0, [r9], #-0
    1554:	3a0e0300 	bcc	38215c <__bss_end__+0x377364>
    1558:	390b3b0b 	stmdbcc	fp, {r0, r1, r3, r8, r9, fp, ip, sp}
    155c:	3f13490b 	svccc	0x0013490b
    1560:	00193c19 	andseq	r3, r9, r9, lsl ip
    1564:	00340a00 	eorseq	r0, r4, r0, lsl #20
    1568:	0b3a0e03 	bleq	e84d7c <__bss_end__+0xe79f84>
    156c:	0b390b3b 	bleq	e44260 <__bss_end__+0xe39468>
    1570:	18021349 	stmdane	r2, {r0, r3, r6, r8, r9, ip}
    1574:	0f0b0000 	svceq	0x000b0000
    1578:	490b0b00 	stmdbmi	fp, {r8, r9, fp}
    157c:	0c000013 	stceq	0, cr0, [r0], {19}
    1580:	193f012e 	ldmdbne	pc!, {r1, r2, r3, r5, r8}	; <UNPREDICTABLE>
    1584:	0b3a0e03 	bleq	e84d98 <__bss_end__+0xe79fa0>
    1588:	0b390b3b 	bleq	e4427c <__bss_end__+0xe39484>
    158c:	01111927 	tsteq	r1, r7, lsr #18
    1590:	18400612 	stmdane	r0, {r1, r4, r9, sl}^
    1594:	01194297 			; <UNDEFINED> instruction: 0x01194297
    1598:	0d000013 	stceq	0, cr0, [r0, #-76]	; 0xffffffb4
    159c:	08030005 	stmdaeq	r3, {r0, r2}
    15a0:	0b3b0b3a 	bleq	ec4290 <__bss_end__+0xeb9498>
    15a4:	13490b39 	movtne	r0, #39737	; 0x9b39
    15a8:	42b71702 	adcsmi	r1, r7, #524288	; 0x80000
    15ac:	0e000017 	mcreq	0, 0, r0, cr0, cr7, {0}
    15b0:	0e030034 	mcreq	0, 0, r0, cr3, cr4, {1}
    15b4:	19341349 	ldmdbne	r4!, {r0, r3, r6, r8, r9, ip}
    15b8:	00001802 	andeq	r1, r0, r2, lsl #16
    15bc:	0182890f 	orreq	r8, r2, pc, lsl #18
    15c0:	31011101 	tstcc	r1, r1, lsl #2
    15c4:	00130113 	andseq	r0, r3, r3, lsl r1
    15c8:	828a1000 	addhi	r1, sl, #0, 0
    15cc:	18020001 	stmdane	r2, {r0}
    15d0:	00184291 	mulseq	r8, r1, r2
    15d4:	82891100 	addhi	r1, r9, #0
    15d8:	01110001 	tsteq	r1, r1
    15dc:	00001331 	andeq	r1, r0, r1, lsr r3
    15e0:	49010112 	stmdbmi	r1, {r1, r4, r8}
    15e4:	00130113 	andseq	r0, r3, r3, lsl r1
    15e8:	00211300 	eoreq	r1, r1, r0, lsl #6
    15ec:	0b2f1349 	bleq	bc6318 <__bss_end__+0xbbb520>
    15f0:	2e140000 	cdpcs	0, 1, cr0, cr4, cr0, {0}
    15f4:	03193f00 	tsteq	r9, #0, 30
    15f8:	3b0b3a0e 	blcc	2cfe38 <__bss_end__+0x2c5040>
    15fc:	270b390b 	strcs	r3, [fp, -fp, lsl #18]
    1600:	12011119 	andne	r1, r1, #1073741830	; 0x40000006
    1604:	97184006 	ldrls	r4, [r8, -r6]
    1608:	00001942 	andeq	r1, r0, r2, asr #18
    160c:	03000515 	movweq	r0, #1301	; 0x515
    1610:	3b0b3a08 	blcc	2cfe38 <__bss_end__+0x2c5040>
    1614:	490b390b 	stmdbmi	fp, {r0, r1, r3, r8, fp, ip, sp}
    1618:	00180213 	andseq	r0, r8, r3, lsl r2
    161c:	012e1600 			; <UNDEFINED> instruction: 0x012e1600
    1620:	0e03193f 			; <UNDEFINED> instruction: 0x0e03193f
    1624:	0b3b0b3a 	bleq	ec4314 <__bss_end__+0xeb951c>
    1628:	19270b39 	stmdbne	r7!, {r0, r3, r4, r5, r8, r9, fp}
    162c:	01111349 	tsteq	r1, r9, asr #6
    1630:	18400612 	stmdane	r0, {r1, r4, r9, sl}^
    1634:	01194297 			; <UNDEFINED> instruction: 0x01194297
    1638:	17000013 	smladne	r0, r3, r0, r0
    163c:	0e030005 	cdpeq	0, 0, cr0, cr3, cr5, {0}
    1640:	0b3b0b3a 	bleq	ec4330 <__bss_end__+0xeb9538>
    1644:	13490b39 	movtne	r0, #39737	; 0x9b39
    1648:	42b71702 	adcsmi	r1, r7, #524288	; 0x80000
    164c:	18000017 	stmdane	r0, {r0, r1, r2, r4}
    1650:	08030034 	stmdaeq	r3, {r2, r4, r5}
    1654:	0b3b0b3a 	bleq	ec4344 <__bss_end__+0xeb954c>
    1658:	13490b39 	movtne	r0, #39737	; 0x9b39
    165c:	42b71702 	adcsmi	r1, r7, #524288	; 0x80000
    1660:	19000017 	stmdbne	r0, {r0, r1, r2, r4}
    1664:	1331011d 	teqne	r1, #1073741831	; 0x40000007
    1668:	42b80152 	adcsmi	r0, r8, #-2147483628	; 0x80000014
    166c:	1201110b 	andne	r1, r1, #-1073741822	; 0xc0000002
    1670:	590b5806 	stmdbpl	fp, {r1, r2, fp, ip, lr}
    1674:	010b570b 	tsteq	fp, fp, lsl #14
    1678:	1a000013 	bne	16cc <__code_start__-0x6934>
    167c:	13310005 	teqne	r1, #5, 0
    1680:	42b71702 	adcsmi	r1, r7, #524288	; 0x80000
    1684:	1b000017 	blne	16e8 <__code_start__-0x6918>
    1688:	1331011d 	teqne	r1, #1073741831	; 0x40000007
    168c:	42b80152 	adcsmi	r0, r8, #-2147483628	; 0x80000014
    1690:	5817550b 	ldmdapl	r7, {r0, r1, r3, r8, sl, ip, lr}
    1694:	570b590b 	strpl	r5, [fp, -fp, lsl #18]
    1698:	0013010b 	andseq	r0, r3, fp, lsl #2
    169c:	010b1c00 	tsteq	fp, r0, lsl #24
    16a0:	00001755 	andeq	r1, r0, r5, asr r7
    16a4:	0300341d 	movweq	r3, #1053	; 0x41d
    16a8:	3b0b3a0e 	blcc	2cfee8 <__bss_end__+0x2c50f0>
    16ac:	490b390b 	stmdbmi	fp, {r0, r1, r3, r8, fp, ip, sp}
    16b0:	b7170213 			; <UNDEFINED> instruction: 0xb7170213
    16b4:	00001742 	andeq	r1, r0, r2, asr #14
    16b8:	55000b1e 	strpl	r0, [r0, #-2846]	; 0xfffff4e2
    16bc:	1f000017 	svcne	0x00000017
    16c0:	193f002e 	ldmdbne	pc!, {r1, r2, r3, r5}	; <UNPREDICTABLE>
    16c4:	0b3a0e03 	bleq	e84ed8 <__bss_end__+0xe7a0e0>
    16c8:	0b390b3b 	bleq	e443bc <__bss_end__+0xe395c4>
    16cc:	13491927 	movtne	r1, #39207	; 0x9927
    16d0:	06120111 			; <UNDEFINED> instruction: 0x06120111
    16d4:	42971840 	addsmi	r1, r7, #64, 16	; 0x400000
    16d8:	20000019 	andcs	r0, r0, r9, lsl r0
    16dc:	0e03012e 	adfeqsp	f0, f3, #0.5
    16e0:	0b3b0b3a 	bleq	ec43d0 <__bss_end__+0xeb95d8>
    16e4:	19270b39 	stmdbne	r7!, {r0, r3, r4, r5, r8, r9, fp}
    16e8:	0b201349 	bleq	806414 <__bss_end__+0x7fb61c>
    16ec:	00001301 	andeq	r1, r0, r1, lsl #6
    16f0:	03000521 	movweq	r0, #1313	; 0x521
    16f4:	3b0b3a08 	blcc	2cff1c <__bss_end__+0x2c5124>
    16f8:	490b390b 	stmdbmi	fp, {r0, r1, r3, r8, fp, ip, sp}
    16fc:	22000013 	andcs	r0, r0, #19, 0
    1700:	193f002e 	ldmdbne	pc!, {r1, r2, r3, r5}	; <UNPREDICTABLE>
    1704:	0e6e193c 			; <UNDEFINED> instruction: 0x0e6e193c
    1708:	0b3a0e03 	bleq	e84f1c <__bss_end__+0xe7a124>
    170c:	0b390b3b 	bleq	e44400 <__bss_end__+0xe39608>
    1710:	01000000 	mrseq	r0, (UNDEF: 0)
    1714:	0e250111 	mcreq	1, 1, r0, cr5, cr1, {0}
    1718:	0e030b13 	vmoveq.32	d3[0], r0
    171c:	01110e1b 	tsteq	r1, fp, lsl lr
    1720:	17100612 			; <UNDEFINED> instruction: 0x17100612
    1724:	24020000 	strcs	r0, [r2], #-0
    1728:	3e0b0b00 	vmlacc.f64	d0, d11, d0
    172c:	000e030b 	andeq	r0, lr, fp, lsl #6
    1730:	00240300 	eoreq	r0, r4, r0, lsl #6
    1734:	0b3e0b0b 	bleq	f84368 <__bss_end__+0xf79570>
    1738:	00000803 	andeq	r0, r0, r3, lsl #16
    173c:	49002604 	stmdbmi	r0, {r2, r9, sl, sp}
    1740:	05000013 	streq	r0, [r0, #-19]	; 0xffffffed
    1744:	0e030016 	mcreq	0, 0, r0, cr3, cr6, {0}
    1748:	0b3b0b3a 	bleq	ec4438 <__bss_end__+0xeb9640>
    174c:	13490b39 	movtne	r0, #39737	; 0x9b39
    1750:	15060000 	strne	r0, [r6, #-0]
    1754:	49192701 	ldmdbmi	r9, {r0, r8, r9, sl, sp}
    1758:	00130113 	andseq	r0, r3, r3, lsl r1
    175c:	00050700 	andeq	r0, r5, r0, lsl #14
    1760:	00001349 	andeq	r1, r0, r9, asr #6
    1764:	03003408 	movweq	r3, #1032	; 0x408
    1768:	3b0b3a0e 	blcc	2cffa8 <__bss_end__+0x2c51b0>
    176c:	490b390b 	stmdbmi	fp, {r0, r1, r3, r8, fp, ip, sp}
    1770:	3c193f13 	ldccc	15, cr3, [r9], {19}
    1774:	09000019 	stmdbeq	r0, {r0, r3, r4}
    1778:	0b0b000f 	bleq	2c17bc <__bss_end__+0x2b69c4>
    177c:	00001349 	andeq	r1, r0, r9, asr #6
    1780:	3e01040a 	cdpcc	4, 0, cr0, cr1, cr10, {0}
    1784:	490b0b0b 	stmdbmi	fp, {r0, r1, r3, r8, r9, fp}
    1788:	3b0b3a13 	blcc	2cffdc <__bss_end__+0x2c51e4>
    178c:	010b390b 	tsteq	fp, fp, lsl #18
    1790:	0b000013 	bleq	17e4 <__code_start__-0x681c>
    1794:	0e030028 	cdpeq	0, 0, cr0, cr3, cr8, {1}
    1798:	00000b1c 	andeq	r0, r0, ip, lsl fp
    179c:	0300340c 	movweq	r3, #1036	; 0x40c
    17a0:	3b0b3a0e 	blcc	2cffe0 <__bss_end__+0x2c51e8>
    17a4:	490b390b 	stmdbmi	fp, {r0, r1, r3, r8, fp, ip, sp}
    17a8:	00061c13 	andeq	r1, r6, r3, lsl ip
    17ac:	012e0d00 			; <UNDEFINED> instruction: 0x012e0d00
    17b0:	0e03193f 			; <UNDEFINED> instruction: 0x0e03193f
    17b4:	0b3b0b3a 	bleq	ec44a4 <__bss_end__+0xeb96ac>
    17b8:	19270b39 	stmdbne	r7!, {r0, r3, r4, r5, r8, r9, fp}
    17bc:	01111349 	tsteq	r1, r9, asr #6
    17c0:	18400612 	stmdane	r0, {r1, r4, r9, sl}^
    17c4:	01194297 			; <UNDEFINED> instruction: 0x01194297
    17c8:	0e000013 	mcreq	0, 0, r0, cr0, cr3, {0}
    17cc:	08030005 	stmdaeq	r3, {r0, r2}
    17d0:	0b3b0b3a 	bleq	ec44c0 <__bss_end__+0xeb96c8>
    17d4:	13490b39 	movtne	r0, #39737	; 0x9b39
    17d8:	42b71702 	adcsmi	r1, r7, #524288	; 0x80000
    17dc:	0f000017 	svceq	0x00000017
    17e0:	0e030034 	mcreq	0, 0, r0, cr3, cr4, {1}
    17e4:	0b3b0b3a 	bleq	ec44d4 <__bss_end__+0xeb96dc>
    17e8:	13490b39 	movtne	r0, #39737	; 0x9b39
    17ec:	42b71702 	adcsmi	r1, r7, #524288	; 0x80000
    17f0:	10000017 	andne	r0, r0, r7, lsl r0
    17f4:	08030034 	stmdaeq	r3, {r2, r4, r5}
    17f8:	0b3b0b3a 	bleq	ec44e8 <__bss_end__+0xeb96f0>
    17fc:	13490b39 	movtne	r0, #39737	; 0x9b39
    1800:	42b71702 	adcsmi	r1, r7, #524288	; 0x80000
    1804:	11000017 	tstne	r0, r7, lsl r0
    1808:	01018289 	smlabbeq	r1, r9, r2, r8
    180c:	13310111 	teqne	r1, #1073741828	; 0x40000004
    1810:	8a120000 	bhi	481818 <__bss_end__+0x476a20>
    1814:	02000182 	andeq	r0, r0, #-2147483616	; 0x80000020
    1818:	18429118 	stmdane	r2, {r3, r4, r8, ip, pc}^
    181c:	2e130000 	cdpcs	0, 1, cr0, cr3, cr0, {0}
    1820:	03193f01 	tsteq	r9, #1, 30
    1824:	3b0b3a0e 	blcc	2d0064 <__bss_end__+0x2c526c>
    1828:	270b390b 	strcs	r3, [fp, -fp, lsl #18]
    182c:	12011119 	andne	r1, r1, #1073741830	; 0x40000006
    1830:	97184006 	ldrls	r4, [r8, -r6]
    1834:	13011942 	movwne	r1, #6466	; 0x1942
    1838:	1d140000 	ldcne	0, cr0, [r4, #-0]
    183c:	52133101 	andspl	r3, r3, #1073741824	; 0x40000000
    1840:	0b42b801 	bleq	10af84c <__bss_end__+0x10a4a54>
    1844:	0b581755 	bleq	16075a0 <__bss_end__+0x15fc7a8>
    1848:	0b570b59 	bleq	15c45b4 <__bss_end__+0x15b97bc>
    184c:	00001301 	andeq	r1, r0, r1, lsl #6
    1850:	31000515 	tstcc	r0, r5, lsl r5
    1854:	b7170213 			; <UNDEFINED> instruction: 0xb7170213
    1858:	00001742 	andeq	r1, r0, r2, asr #14
    185c:	01828916 	orreq	r8, r2, r6, lsl r9
    1860:	95011101 	strls	r1, [r1, #-257]	; 0xfffffeff
    1864:	13311942 	teqne	r1, #1081344	; 0x108000
    1868:	1d170000 	ldcne	0, cr0, [r7, #-0]
    186c:	52133101 	andspl	r3, r3, #1073741824	; 0x40000000
    1870:	0b42b801 	bleq	10af87c <__bss_end__+0x10a4a84>
    1874:	06120111 			; <UNDEFINED> instruction: 0x06120111
    1878:	0b590b58 	bleq	16445e0 <__bss_end__+0x16397e8>
    187c:	00000b57 	andeq	r0, r0, r7, asr fp
    1880:	31011d18 	tstcc	r1, r8, lsl sp
    1884:	b8015213 	stmdalt	r1, {r0, r1, r4, r9, ip, lr}
    1888:	17550b42 	ldrbne	r0, [r5, -r2, asr #22]
    188c:	0b590b58 	bleq	16445f4 <__bss_end__+0x16397fc>
    1890:	00000b57 	andeq	r0, r0, r7, asr fp
    1894:	31000519 	tstcc	r0, r9, lsl r5
    1898:	000b1c13 	andeq	r1, fp, r3, lsl ip
    189c:	010b1a00 	tsteq	fp, r0, lsl #20
    18a0:	00001755 	andeq	r1, r0, r5, asr r7
    18a4:	3100341b 	tstcc	r0, fp, lsl r4
    18a8:	1c000013 	stcne	0, cr0, [r0], {19}
    18ac:	13310034 	teqne	r1, #52, 0	; 0x34
    18b0:	42b71702 	adcsmi	r1, r7, #524288	; 0x80000
    18b4:	1d000017 	stcne	0, cr0, [r0, #-92]	; 0xffffffa4
    18b8:	01018289 	smlabbeq	r1, r9, r2, r8
    18bc:	13310111 	teqne	r1, #1073741828	; 0x40000004
    18c0:	00001301 	andeq	r1, r0, r1, lsl #6
    18c4:	3f012e1e 	svccc	0x00012e1e
    18c8:	3a0e0319 	bcc	382534 <__bss_end__+0x37773c>
    18cc:	390b3b0b 	stmdbcc	fp, {r0, r1, r3, r8, r9, fp, ip, sp}
    18d0:	2019270b 	andscs	r2, r9, fp, lsl #14
    18d4:	0013010b 	andseq	r0, r3, fp, lsl #2
    18d8:	00051f00 	andeq	r1, r5, r0, lsl #30
    18dc:	0b3a0803 	bleq	e838f0 <__bss_end__+0xe78af8>
    18e0:	0b390b3b 	bleq	e445d4 <__bss_end__+0xe397dc>
    18e4:	00001349 	andeq	r1, r0, r9, asr #6
    18e8:	03000520 	movweq	r0, #1312	; 0x520
    18ec:	3b0b3a0e 	blcc	2d012c <__bss_end__+0x2c5334>
    18f0:	490b390b 	stmdbmi	fp, {r0, r1, r3, r8, fp, ip, sp}
    18f4:	21000013 	tstcs	r0, r3, lsl r0
    18f8:	08030034 	stmdaeq	r3, {r2, r4, r5}
    18fc:	0b3b0b3a 	bleq	ec45ec <__bss_end__+0xeb97f4>
    1900:	13490b39 	movtne	r0, #39737	; 0x9b39
    1904:	2e220000 	cdpcs	0, 2, cr0, cr2, cr0, {0}
    1908:	3a0e0301 	bcc	382514 <__bss_end__+0x37771c>
    190c:	390b3b0b 	stmdbcc	fp, {r0, r1, r3, r8, r9, fp, ip, sp}
    1910:	4919270b 	ldmdbmi	r9, {r0, r1, r3, r8, r9, sl, sp}
    1914:	010b2013 	tsteq	fp, r3, lsl r0
    1918:	23000013 	movwcs	r0, #19
    191c:	1331012e 	teqne	r1, #-2147483637	; 0x8000000b
    1920:	06120111 			; <UNDEFINED> instruction: 0x06120111
    1924:	42971840 	addsmi	r1, r7, #64, 16	; 0x400000
    1928:	00130119 	andseq	r0, r3, r9, lsl r1
    192c:	002e2400 	eoreq	r2, lr, r0, lsl #8
    1930:	193c193f 	ldmdbne	ip!, {r0, r1, r2, r3, r4, r5, r8, fp, ip}
    1934:	0e030e6e 	cdpeq	14, 0, cr0, cr3, cr14, {3}
    1938:	0b3b0b3a 	bleq	ec4628 <__bss_end__+0xeb9830>
    193c:	00000b39 	andeq	r0, r0, r9, lsr fp
    1940:	01110100 	tsteq	r1, r0, lsl #2
    1944:	0b130e25 	bleq	4c51e0 <__bss_end__+0x4ba3e8>
    1948:	0e1b0e03 	cdpeq	14, 1, cr0, cr11, cr3, {0}
    194c:	06120111 			; <UNDEFINED> instruction: 0x06120111
    1950:	00001710 	andeq	r1, r0, r0, lsl r7
    1954:	0b002402 	bleq	a964 <__FUNCTION__.7+0x10>
    1958:	030b3e0b 	movweq	r3, #48651	; 0xbe0b
    195c:	03000008 	movweq	r0, #8
    1960:	0b0b0024 	bleq	2c19f8 <__bss_end__+0x2b6c00>
    1964:	0e030b3e 	vmoveq.16	d3[0], r0
    1968:	15040000 	strne	r0, [r4, #-0]
    196c:	49192701 	ldmdbmi	r9, {r0, r8, r9, sl, sp}
    1970:	00130113 	andseq	r0, r3, r3, lsl r1
    1974:	00050500 	andeq	r0, r5, r0, lsl #10
    1978:	00001349 	andeq	r1, r0, r9, asr #6
    197c:	03003406 	movweq	r3, #1030	; 0x406
    1980:	3b0b3a0e 	blcc	2d01c0 <__bss_end__+0x2c53c8>
    1984:	490b390b 	stmdbmi	fp, {r0, r1, r3, r8, fp, ip, sp}
    1988:	3c193f13 	ldccc	15, cr3, [r9], {19}
    198c:	07000019 	smladeq	r0, r9, r0, r0
    1990:	0b0b000f 	bleq	2c19d4 <__bss_end__+0x2b6bdc>
    1994:	00001349 	andeq	r1, r0, r9, asr #6
    1998:	49002608 	stmdbmi	r0, {r3, r9, sl, sp}
    199c:	09000013 	stmdbeq	r0, {r0, r1, r4}
    19a0:	13470034 	movtne	r0, #28724	; 0x7034
    19a4:	0b3b0b3a 	bleq	ec4694 <__bss_end__+0xeb989c>
    19a8:	18020b39 	stmdane	r2, {r0, r3, r4, r5, r8, r9, fp}
    19ac:	2e0a0000 	cdpcs	0, 0, cr0, cr10, cr0, {0}
    19b0:	03193f01 	tsteq	r9, #1, 30
    19b4:	3b0b3a0e 	blcc	2d01f4 <__bss_end__+0x2c53fc>
    19b8:	270b390b 	strcs	r3, [fp, -fp, lsl #18]
    19bc:	12011119 	andne	r1, r1, #1073741830	; 0x40000006
    19c0:	97184006 	ldrls	r4, [r8, -r6]
    19c4:	13011942 	movwne	r1, #6466	; 0x1942
    19c8:	050b0000 	streq	r0, [fp, #-0]
    19cc:	3a080300 	bcc	2025d4 <__bss_end__+0x1f77dc>
    19d0:	390b3b0b 	stmdbcc	fp, {r0, r1, r3, r8, r9, fp, ip, sp}
    19d4:	0213490b 	andseq	r4, r3, #180224	; 0x2c000
    19d8:	0c000018 	stceq	0, cr0, [r0], {24}
    19dc:	193f002e 	ldmdbne	pc!, {r1, r2, r3, r5}	; <UNPREDICTABLE>
    19e0:	0b3a0e03 	bleq	e851f4 <__bss_end__+0xe7a3fc>
    19e4:	0b390b3b 	bleq	e446d8 <__bss_end__+0xe398e0>
    19e8:	01111927 	tsteq	r1, r7, lsr #18
    19ec:	18400612 	stmdane	r0, {r1, r4, r9, sl}^
    19f0:	00194297 	mulseq	r9, r7, r2
    19f4:	012e0d00 			; <UNDEFINED> instruction: 0x012e0d00
    19f8:	0b3a0e03 	bleq	e8520c <__bss_end__+0xe7a414>
    19fc:	0b390b3b 	bleq	e446f0 <__bss_end__+0xe398f8>
    1a00:	13491927 	movtne	r1, #39207	; 0x9927
    1a04:	06120111 			; <UNDEFINED> instruction: 0x06120111
    1a08:	42971840 	addsmi	r1, r7, #64, 16	; 0x400000
    1a0c:	00130119 	andseq	r0, r3, r9, lsl r1
    1a10:	00050e00 	andeq	r0, r5, r0, lsl #28
    1a14:	0b3a0803 	bleq	e83a28 <__bss_end__+0xe78c30>
    1a18:	0b390b3b 	bleq	e4470c <__bss_end__+0xe39914>
    1a1c:	17021349 	strne	r1, [r2, -r9, asr #6]
    1a20:	001742b7 			; <UNDEFINED> instruction: 0x001742b7
    1a24:	82890f00 	addhi	r0, r9, #0, 30
    1a28:	01110101 	tsteq	r1, r1, lsl #2
    1a2c:	00001331 	andeq	r1, r0, r1, lsr r3
    1a30:	01828a10 	orreq	r8, r2, r0, lsl sl
    1a34:	91180200 	tstls	r8, r0, lsl #4
    1a38:	00001842 	andeq	r1, r0, r2, asr #16
    1a3c:	3f002e11 	svccc	0x00002e11
    1a40:	6e193c19 	mrcvs	12, 0, r3, cr9, cr9, {0}
    1a44:	3a0e030e 	bcc	382684 <__bss_end__+0x37788c>
    1a48:	390b3b0b 	stmdbcc	fp, {r0, r1, r3, r8, r9, fp, ip, sp}
    1a4c:	0000000b 	andeq	r0, r0, fp
    1a50:	25011101 	strcs	r1, [r1, #-257]	; 0xfffffeff
    1a54:	030b130e 	movweq	r1, #45838	; 0xb30e
    1a58:	110e1b0e 	tstne	lr, lr, lsl #22
    1a5c:	10061201 	andne	r1, r6, r1, lsl #4
    1a60:	02000017 	andeq	r0, r0, #23, 0
    1a64:	0b0b0024 	bleq	2c1afc <__bss_end__+0x2b6d04>
    1a68:	08030b3e 	stmdaeq	r3, {r1, r2, r3, r4, r5, r8, r9, fp}
    1a6c:	24030000 	strcs	r0, [r3], #-0
    1a70:	3e0b0b00 	vmlacc.f64	d0, d11, d0
    1a74:	000e030b 	andeq	r0, lr, fp, lsl #6
    1a78:	01150400 	tsteq	r5, r0, lsl #8
    1a7c:	13491927 	movtne	r1, #39207	; 0x9927
    1a80:	00001301 	andeq	r1, r0, r1, lsl #6
    1a84:	49000505 	stmdbmi	r0, {r0, r2, r8, sl}
    1a88:	06000013 			; <UNDEFINED> instruction: 0x06000013
    1a8c:	0e030034 	mcreq	0, 0, r0, cr3, cr4, {1}
    1a90:	0b3b0b3a 	bleq	ec4780 <__bss_end__+0xeb9988>
    1a94:	13490b39 	movtne	r0, #39737	; 0x9b39
    1a98:	193c193f 	ldmdbne	ip!, {r0, r1, r2, r3, r4, r5, r8, fp, ip}
    1a9c:	0f070000 	svceq	0x00070000
    1aa0:	490b0b00 	stmdbmi	fp, {r8, r9, fp}
    1aa4:	08000013 	stmdaeq	r0, {r0, r1, r4}
    1aa8:	13490026 	movtne	r0, #36902	; 0x9026
    1aac:	2e090000 	cdpcs	0, 0, cr0, cr9, cr0, {0}
    1ab0:	03193f01 	tsteq	r9, #1, 30
    1ab4:	3b0b3a0e 	blcc	2d02f4 <__bss_end__+0x2c54fc>
    1ab8:	270b390b 	strcs	r3, [fp, -fp, lsl #18]
    1abc:	11134919 	tstne	r3, r9, lsl r9
    1ac0:	40061201 	andmi	r1, r6, r1, lsl #4
    1ac4:	19429718 	stmdbne	r2, {r3, r4, r8, r9, sl, ip, pc}^
    1ac8:	00001301 	andeq	r1, r0, r1, lsl #6
    1acc:	0300050a 	movweq	r0, #1290	; 0x50a
    1ad0:	3b0b3a0e 	blcc	2d0310 <__bss_end__+0x2c5518>
    1ad4:	490b390b 	stmdbmi	fp, {r0, r1, r3, r8, fp, ip, sp}
    1ad8:	00180213 	andseq	r0, r8, r3, lsl r2
    1adc:	00050b00 	andeq	r0, r5, r0, lsl #22
    1ae0:	0b3a0803 	bleq	e83af4 <__bss_end__+0xe78cfc>
    1ae4:	0b390b3b 	bleq	e447d8 <__bss_end__+0xe399e0>
    1ae8:	17021349 	strne	r1, [r2, -r9, asr #6]
    1aec:	001742b7 			; <UNDEFINED> instruction: 0x001742b7
    1af0:	00340c00 	eorseq	r0, r4, r0, lsl #24
    1af4:	0b3a0803 	bleq	e83b08 <__bss_end__+0xe78d10>
    1af8:	0b390b3b 	bleq	e447ec <__bss_end__+0xe399f4>
    1afc:	17021349 	strne	r1, [r2, -r9, asr #6]
    1b00:	001742b7 			; <UNDEFINED> instruction: 0x001742b7
    1b04:	11010000 	mrsne	r0, (UNDEF: 1)
    1b08:	130e2501 	movwne	r2, #58625	; 0xe501
    1b0c:	1b0e030b 	blne	382740 <__bss_end__+0x377948>
    1b10:	1201110e 	andne	r1, r1, #-2147483645	; 0x80000003
    1b14:	00171006 	andseq	r1, r7, r6
    1b18:	00240200 	eoreq	r0, r4, r0, lsl #4
    1b1c:	0b3e0b0b 	bleq	f84750 <__bss_end__+0xf79958>
    1b20:	00000803 	andeq	r0, r0, r3, lsl #16
    1b24:	0b002403 	bleq	ab38 <buf.3944+0x144>
    1b28:	030b3e0b 	movweq	r3, #48651	; 0xbe0b
    1b2c:	0400000e 	streq	r0, [r0], #-14
    1b30:	19270115 	stmdbne	r7!, {r0, r2, r4, r8}
    1b34:	13011349 	movwne	r1, #4937	; 0x1349
    1b38:	05050000 	streq	r0, [r5, #-0]
    1b3c:	00134900 	andseq	r4, r3, r0, lsl #18
    1b40:	00340600 	eorseq	r0, r4, r0, lsl #12
    1b44:	0b3a0e03 	bleq	e85358 <__bss_end__+0xe7a560>
    1b48:	0b390b3b 	bleq	e4483c <__bss_end__+0xe39a44>
    1b4c:	193f1349 	ldmdbne	pc!, {r0, r3, r6, r8, r9, ip}	; <UNPREDICTABLE>
    1b50:	0000193c 	andeq	r1, r0, ip, lsr r9
    1b54:	0b000f07 	bleq	5778 <__code_start__-0x2888>
    1b58:	0013490b 	andseq	r4, r3, fp, lsl #18
    1b5c:	00260800 	eoreq	r0, r6, r0, lsl #16
    1b60:	00001349 	andeq	r1, r0, r9, asr #6
    1b64:	3f012e09 	svccc	0x00012e09
    1b68:	3a0e0319 	bcc	3827d4 <__bss_end__+0x3779dc>
    1b6c:	390b3b0b 	stmdbcc	fp, {r0, r1, r3, r8, r9, fp, ip, sp}
    1b70:	4919270b 	ldmdbmi	r9, {r0, r1, r3, r8, r9, sl, sp}
    1b74:	12011113 	andne	r1, r1, #-1073741820	; 0xc0000004
    1b78:	97184006 	ldrls	r4, [r8, -r6]
    1b7c:	00001942 	andeq	r1, r0, r2, asr #18
    1b80:	0300050a 	movweq	r0, #1290	; 0x50a
    1b84:	3b0b3a08 	blcc	2d03ac <__bss_end__+0x2c55b4>
    1b88:	490b390b 	stmdbmi	fp, {r0, r1, r3, r8, fp, ip, sp}
    1b8c:	b7170213 			; <UNDEFINED> instruction: 0xb7170213
    1b90:	00001742 	andeq	r1, r0, r2, asr #14
    1b94:	01110100 	tsteq	r1, r0, lsl #2
    1b98:	0b130e25 	bleq	4c5434 <__bss_end__+0x4ba63c>
    1b9c:	0e1b0e03 	cdpeq	14, 1, cr0, cr11, cr3, {0}
    1ba0:	06120111 			; <UNDEFINED> instruction: 0x06120111
    1ba4:	00001710 	andeq	r1, r0, r0, lsl r7
    1ba8:	0b002402 	bleq	abb8 <buf.3944+0x1c4>
    1bac:	030b3e0b 	movweq	r3, #48651	; 0xbe0b
    1bb0:	03000008 	movweq	r0, #8
    1bb4:	0b0b0024 	bleq	2c1c4c <__bss_end__+0x2b6e54>
    1bb8:	0e030b3e 	vmoveq.16	d3[0], r0
    1bbc:	15040000 	strne	r0, [r4, #-0]
    1bc0:	49192701 	ldmdbmi	r9, {r0, r8, r9, sl, sp}
    1bc4:	00130113 	andseq	r0, r3, r3, lsl r1
    1bc8:	00050500 	andeq	r0, r5, r0, lsl #10
    1bcc:	00001349 	andeq	r1, r0, r9, asr #6
    1bd0:	03003406 	movweq	r3, #1030	; 0x406
    1bd4:	3b0b3a0e 	blcc	2d0414 <__bss_end__+0x2c561c>
    1bd8:	490b390b 	stmdbmi	fp, {r0, r1, r3, r8, fp, ip, sp}
    1bdc:	3c193f13 	ldccc	15, cr3, [r9], {19}
    1be0:	07000019 	smladeq	r0, r9, r0, r0
    1be4:	0b0b000f 	bleq	2c1c28 <__bss_end__+0x2b6e30>
    1be8:	00001349 	andeq	r1, r0, r9, asr #6
    1bec:	49002608 	stmdbmi	r0, {r3, r9, sl, sp}
    1bf0:	09000013 	stmdbeq	r0, {r0, r1, r4}
    1bf4:	193f012e 	ldmdbne	pc!, {r1, r2, r3, r5, r8}	; <UNPREDICTABLE>
    1bf8:	0b3a0e03 	bleq	e8540c <__bss_end__+0xe7a614>
    1bfc:	0b390b3b 	bleq	e448f0 <__bss_end__+0xe39af8>
    1c00:	13491927 	movtne	r1, #39207	; 0x9927
    1c04:	06120111 			; <UNDEFINED> instruction: 0x06120111
    1c08:	42971840 	addsmi	r1, r7, #64, 16	; 0x400000
    1c0c:	00130119 	andseq	r0, r3, r9, lsl r1
    1c10:	00050a00 	andeq	r0, r5, r0, lsl #20
    1c14:	0b3a0803 	bleq	e83c28 <__bss_end__+0xe78e30>
    1c18:	0b390b3b 	bleq	e4490c <__bss_end__+0xe39b14>
    1c1c:	18021349 	stmdane	r2, {r0, r3, r6, r8, r9, ip}
    1c20:	050b0000 	streq	r0, [fp, #-0]
    1c24:	3a080300 	bcc	20282c <__bss_end__+0x1f7a34>
    1c28:	390b3b0b 	stmdbcc	fp, {r0, r1, r3, r8, r9, fp, ip, sp}
    1c2c:	0213490b 	andseq	r4, r3, #180224	; 0x2c000
    1c30:	1742b717 	smlaldne	fp, r2, r7, r7
    1c34:	340c0000 	strcc	r0, [ip], #-0
    1c38:	3a080300 	bcc	202840 <__bss_end__+0x1f7a48>
    1c3c:	390b3b0b 	stmdbcc	fp, {r0, r1, r3, r8, r9, fp, ip, sp}
    1c40:	0213490b 	andseq	r4, r3, #180224	; 0x2c000
    1c44:	1742b717 	smlaldne	fp, r2, r7, r7
    1c48:	01000000 	mrseq	r0, (UNDEF: 0)
    1c4c:	0e250111 	mcreq	1, 1, r0, cr5, cr1, {0}
    1c50:	0e030b13 	vmoveq.32	d3[0], r0
    1c54:	01110e1b 	tsteq	r1, fp, lsl lr
    1c58:	17100612 			; <UNDEFINED> instruction: 0x17100612
    1c5c:	24020000 	strcs	r0, [r2], #-0
    1c60:	3e0b0b00 	vmlacc.f64	d0, d11, d0
    1c64:	0008030b 	andeq	r0, r8, fp, lsl #6
    1c68:	00160300 	andseq	r0, r6, r0, lsl #6
    1c6c:	0b3a0e03 	bleq	e85480 <__bss_end__+0xe7a688>
    1c70:	0b390b3b 	bleq	e44964 <__bss_end__+0xe39b6c>
    1c74:	00001349 	andeq	r1, r0, r9, asr #6
    1c78:	0b002404 	bleq	ac90 <buf.3944+0x29c>
    1c7c:	030b3e0b 	movweq	r3, #48651	; 0xbe0b
    1c80:	0500000e 	streq	r0, [r0, #-14]
    1c84:	13490026 	movtne	r0, #36902	; 0x9026
    1c88:	15060000 	strne	r0, [r6, #-0]
    1c8c:	49192701 	ldmdbmi	r9, {r0, r8, r9, sl, sp}
    1c90:	00130113 	andseq	r0, r3, r3, lsl r1
    1c94:	00050700 	andeq	r0, r5, r0, lsl #14
    1c98:	00001349 	andeq	r1, r0, r9, asr #6
    1c9c:	03003408 	movweq	r3, #1032	; 0x408
    1ca0:	3b0b3a0e 	blcc	2d04e0 <__bss_end__+0x2c56e8>
    1ca4:	490b390b 	stmdbmi	fp, {r0, r1, r3, r8, fp, ip, sp}
    1ca8:	3c193f13 	ldccc	15, cr3, [r9], {19}
    1cac:	09000019 	stmdbeq	r0, {r0, r3, r4}
    1cb0:	0b0b000f 	bleq	2c1cf4 <__bss_end__+0x2b6efc>
    1cb4:	00001349 	andeq	r1, r0, r9, asr #6
    1cb8:	3f012e0a 	svccc	0x00012e0a
    1cbc:	3a0e0319 	bcc	382928 <__bss_end__+0x377b30>
    1cc0:	390b3b0b 	stmdbcc	fp, {r0, r1, r3, r8, r9, fp, ip, sp}
    1cc4:	4919270b 	ldmdbmi	r9, {r0, r1, r3, r8, r9, sl, sp}
    1cc8:	12011113 	andne	r1, r1, #-1073741820	; 0xc0000004
    1ccc:	97184006 	ldrls	r4, [r8, -r6]
    1cd0:	13011942 	movwne	r1, #6466	; 0x1942
    1cd4:	050b0000 	streq	r0, [fp, #-0]
    1cd8:	3a080300 	bcc	2028e0 <__bss_end__+0x1f7ae8>
    1cdc:	390b3b0b 	stmdbcc	fp, {r0, r1, r3, r8, r9, fp, ip, sp}
    1ce0:	0213490b 	andseq	r4, r3, #180224	; 0x2c000
    1ce4:	1742b717 	smlaldne	fp, r2, r7, r7
    1ce8:	340c0000 	strcc	r0, [ip], #-0
    1cec:	3a080300 	bcc	2028f4 <__bss_end__+0x1f7afc>
    1cf0:	390b3b0b 	stmdbcc	fp, {r0, r1, r3, r8, r9, fp, ip, sp}
    1cf4:	0213490b 	andseq	r4, r3, #180224	; 0x2c000
    1cf8:	1742b717 	smlaldne	fp, r2, r7, r7
    1cfc:	01000000 	mrseq	r0, (UNDEF: 0)
    1d00:	0e250111 	mcreq	1, 1, r0, cr5, cr1, {0}
    1d04:	0e030b13 	vmoveq.32	d3[0], r0
    1d08:	01110e1b 	tsteq	r1, fp, lsl lr
    1d0c:	17100612 			; <UNDEFINED> instruction: 0x17100612
    1d10:	24020000 	strcs	r0, [r2], #-0
    1d14:	3e0b0b00 	vmlacc.f64	d0, d11, d0
    1d18:	0008030b 	andeq	r0, r8, fp, lsl #6
    1d1c:	00240300 	eoreq	r0, r4, r0, lsl #6
    1d20:	0b3e0b0b 	bleq	f84954 <__bss_end__+0xf79b5c>
    1d24:	00000e03 	andeq	r0, r0, r3, lsl #28
    1d28:	27011504 	strcs	r1, [r1, -r4, lsl #10]
    1d2c:	01134919 	tsteq	r3, r9, lsl r9
    1d30:	05000013 	streq	r0, [r0, #-19]	; 0xffffffed
    1d34:	13490005 	movtne	r0, #36869	; 0x9005
    1d38:	34060000 	strcc	r0, [r6], #-0
    1d3c:	3a0e0300 	bcc	382944 <__bss_end__+0x377b4c>
    1d40:	390b3b0b 	stmdbcc	fp, {r0, r1, r3, r8, r9, fp, ip, sp}
    1d44:	3f13490b 	svccc	0x0013490b
    1d48:	00193c19 	andseq	r3, r9, r9, lsl ip
    1d4c:	000f0700 	andeq	r0, pc, r0, lsl #14
    1d50:	13490b0b 	movtne	r0, #39691	; 0x9b0b
    1d54:	26080000 	strcs	r0, [r8], -r0
    1d58:	00134900 	andseq	r4, r3, r0, lsl #18
    1d5c:	002e0900 	eoreq	r0, lr, r0, lsl #18
    1d60:	0e03193f 			; <UNDEFINED> instruction: 0x0e03193f
    1d64:	0b3b0b3a 	bleq	ec4a54 <__bss_end__+0xeb9c5c>
    1d68:	19270b39 	stmdbne	r7!, {r0, r3, r4, r5, r8, r9, fp}
    1d6c:	06120111 			; <UNDEFINED> instruction: 0x06120111
    1d70:	42971840 	addsmi	r1, r7, #64, 16	; 0x400000
    1d74:	00000019 	andeq	r0, r0, r9, lsl r0

Disassembly of section .debug_loc:

00000000 <.debug_loc>:
       0:	01000001 	tsteq	r0, r1
       4:	00000001 	andeq	r0, r0, r1
       8:	00080000 	andeq	r0, r8, r0
       c:	00140000 	andseq	r0, r4, r0
      10:	00020000 	andeq	r0, r2, r0
      14:	00149f30 	andseq	r9, r4, r0, lsr pc
      18:	00340000 	eorseq	r0, r4, r0
      1c:	00010000 	andeq	r0, r1, r0
      20:	00003455 	andeq	r3, r0, r5, asr r4
      24:	00003c00 	andeq	r3, r0, r0, lsl #24
      28:	54000100 	strpl	r0, [r0], #-256	; 0xffffff00
      2c:	0000003c 	andeq	r0, r0, ip, lsr r0
      30:	000000b4 	strheq	r0, [r0], -r4
      34:	b4550001 	ldrblt	r0, [r5], #-1
      38:	c4000000 	strgt	r0, [r0], #-0
      3c:	01000000 	mrseq	r0, (UNDEF: 0)
      40:	00005000 	andeq	r5, r0, r0
      44:	00000000 	andeq	r0, r0, r0
      48:	00030000 	andeq	r0, r3, r0
      4c:	00080000 	andeq	r0, r8, r0
      50:	00140000 	andseq	r0, r4, r0
      54:	00020000 	andeq	r0, r2, r0
      58:	00149f30 	andseq	r9, r4, r0, lsr pc
      5c:	00b40000 	adcseq	r0, r4, r0
      60:	00010000 	andeq	r0, r1, r0
      64:	00000056 	andeq	r0, r0, r6, asr r0
	...
      70:	14000000 	strne	r0, [r0], #-0
      74:	3c000000 	stccc	0, cr0, [r0], {-0}
      78:	01000000 	mrseq	r0, (UNDEF: 0)
      7c:	00705400 	rsbseq	r5, r0, r0, lsl #8
      80:	007b0000 	rsbseq	r0, fp, r0
      84:	00010000 	andeq	r0, r1, r0
      88:	00007b50 	andeq	r7, r0, r0, asr fp
      8c:	0000a400 	andeq	sl, r0, r0, lsl #8
      90:	54000100 	strpl	r0, [r0], #-256	; 0xffffff00
	...
      9c:	00440001 	subeq	r0, r4, r1
      a0:	005c0000 	subseq	r0, ip, r0
      a4:	00020000 	andeq	r0, r2, r0
      a8:	00009f40 	andeq	r9, r0, r0, asr #30
      ac:	00000000 	andeq	r0, r0, r0
      b0:	00010000 	andeq	r0, r1, r0
      b4:	00000044 	andeq	r0, r0, r4, asr #32
      b8:	0000005c 	andeq	r0, r0, ip, asr r0
      bc:	fcf20006 	ldc2l	0, cr0, [r2], #24
      c0:	00000002 	andeq	r0, r0, r2
	...
      cc:	00440001 	subeq	r0, r4, r1
      d0:	005c0000 	subseq	r0, ip, r0
      d4:	00060000 	andeq	r0, r6, r0
      d8:	00a19803 	adceq	r9, r1, r3, lsl #16
      dc:	00009f00 	andeq	r9, r0, r0, lsl #30
	...
      ec:	00000258 	andeq	r0, r0, r8, asr r2
      f0:	00000270 	andeq	r0, r0, r0, ror r2
      f4:	70500001 	subsvc	r0, r0, r1
      f8:	dc000002 	stcle	0, cr0, [r0], {2}
      fc:	01000002 	tsteq	r0, r2
     100:	02dc5600 	sbcseq	r5, ip, #0, 12
     104:	02e80000 	rsceq	r0, r8, #0, 0
     108:	00040000 	andeq	r0, r4, r0
     10c:	9f5001f3 	svcls	0x005001f3
	...
     11c:	02780000 	rsbseq	r0, r8, #0, 0
     120:	02830000 	addeq	r0, r3, #0, 0
     124:	00010000 	andeq	r0, r1, r0
     128:	00028350 	andeq	r8, r2, r0, asr r3
     12c:	0002dc00 	andeq	sp, r2, r0, lsl #24
     130:	54000100 	strpl	r0, [r0], #-256	; 0xffffff00
     134:	000002dc 	ldrdeq	r0, [r0], -ip
     138:	000002e8 	andeq	r0, r0, r8, ror #5
     13c:	d0030005 	andle	r0, r3, r5
     140:	000000a9 	andeq	r0, r0, r9, lsr #1
	...
     14c:	6c000000 	stcvs	0, cr0, [r0], {-0}
     150:	7c000001 	stcvc	0, cr0, [r0], {1}
     154:	01000001 	tsteq	r0, r1
     158:	017c5000 	cmneq	ip, r0
     15c:	02580000 	subseq	r0, r8, #0, 0
     160:	00010000 	andeq	r0, r1, r0
     164:	00000054 	andeq	r0, r0, r4, asr r0
     168:	00000000 	andeq	r0, r0, r0
     16c:	02020100 	andeq	r0, r2, #0
     170:	00000000 	andeq	r0, r0, r0
     174:	80000000 	andhi	r0, r0, r0
     178:	80000001 	andhi	r0, r0, r1
     17c:	01000001 	tsteq	r0, r1
     180:	01805400 	orreq	r5, r0, r0, lsl #8
     184:	01bc0000 			; <UNDEFINED> instruction: 0x01bc0000
     188:	00030000 	andeq	r0, r3, r0
     18c:	bc9f5c74 	ldclt	12, cr5, [pc], {116}	; 0x74
     190:	f0000001 			; <UNDEFINED> instruction: 0xf0000001
     194:	01000001 	tsteq	r0, r1
     198:	01f05500 	mvnseq	r5, r0, lsl #10
     19c:	02140000 	andseq	r0, r4, #0, 0
     1a0:	00030000 	andeq	r0, r3, r0
     1a4:	149f5c74 	ldrne	r5, [pc], #3188	; 1ac <__code_start__-0x7e54>
     1a8:	58000002 	stmdapl	r0, {r1}
     1ac:	01000002 	tsteq	r0, r2
     1b0:	00005500 	andeq	r5, r0, r0, lsl #10
	...
     1c8:	00000020 	andeq	r0, r0, r0, lsr #32
     1cc:	00000038 	andeq	r0, r0, r8, lsr r0
     1d0:	38500001 	ldmdacc	r0, {r0}^
     1d4:	40000000 	andmi	r0, r0, r0
     1d8:	01000000 	mrseq	r0, (UNDEF: 0)
     1dc:	00405300 	subeq	r5, r0, r0, lsl #6
     1e0:	00680000 	rsbeq	r0, r8, r0
     1e4:	00040000 	andeq	r0, r4, r0
     1e8:	9f5001f3 	svcls	0x005001f3
     1ec:	00000068 	andeq	r0, r0, r8, rrx
     1f0:	00000080 	andeq	r0, r0, r0, lsl #1
     1f4:	80500001 	subshi	r0, r0, r1
     1f8:	88000000 	stmdahi	r0, {}	; <UNPREDICTABLE>
     1fc:	04000000 	streq	r0, [r0], #-0
     200:	5001f300 	andpl	pc, r1, r0, lsl #6
     204:	0000889f 	muleq	r0, pc, r8	; <UNPREDICTABLE>
     208:	00009400 	andeq	r9, r0, r0, lsl #8
     20c:	53000100 	movwpl	r0, #256	; 0x100
     210:	00000094 	muleq	r0, r4, r0
     214:	000000c4 	andeq	r0, r0, r4, asr #1
     218:	01f30004 	mvnseq	r0, r4
     21c:	00009f50 	andeq	r9, r0, r0, asr pc
	...
     230:	00200000 	eoreq	r0, r0, r0
     234:	00400000 	subeq	r0, r0, r0
     238:	00010000 	andeq	r0, r1, r0
     23c:	00004051 	andeq	r4, r0, r1, asr r0
     240:	00006800 	andeq	r6, r0, r0, lsl #16
     244:	54000100 	strpl	r0, [r0], #-256	; 0xffffff00
     248:	00000068 	andeq	r0, r0, r8, rrx
     24c:	0000007c 	andeq	r0, r0, ip, ror r0
     250:	7c510001 	mrrcvc	0, 0, r0, r1, cr1
     254:	88000000 	stmdahi	r0, {}	; <UNPREDICTABLE>
     258:	04000000 	streq	r0, [r0], #-0
     25c:	5101f300 	mrspl	pc, SP_irq	; <UNPREDICTABLE>
     260:	0000889f 	muleq	r0, pc, r8	; <UNPREDICTABLE>
     264:	00009400 	andeq	r9, r0, r0, lsl #8
     268:	51000100 	mrspl	r0, (UNDEF: 16)
     26c:	00000094 	muleq	r0, r4, r0
     270:	000000c4 	andeq	r0, r0, r4, asr #1
     274:	00540001 	subseq	r0, r4, r1
	...
     280:	00010000 	andeq	r0, r1, r0
     284:	38000000 	stmdacc	r0, {}	; <UNPREDICTABLE>
     288:	47000000 	strmi	r0, [r0, -r0]
     28c:	01000000 	mrseq	r0, (UNDEF: 0)
     290:	00475000 	subeq	r5, r7, r0
     294:	00600000 	rsbeq	r0, r0, r0
     298:	00010000 	andeq	r0, r1, r0
     29c:	00008855 	andeq	r8, r0, r5, asr r8
     2a0:	00009400 	andeq	r9, r0, r0, lsl #8
     2a4:	50000100 	andpl	r0, r0, r0, lsl #2
     2a8:	00000094 	muleq	r0, r4, r0
     2ac:	000000c4 	andeq	r0, r0, r4, asr #1
     2b0:	00550001 	subseq	r0, r5, r1
	...
     2bc:	48000001 	stmdami	r0, {r0}
     2c0:	60000000 	andvs	r0, r0, r0
     2c4:	01000000 	mrseq	r0, (UNDEF: 0)
     2c8:	00945000 	addseq	r5, r4, r0
     2cc:	00a80000 	adceq	r0, r8, r0
     2d0:	00010000 	andeq	r0, r1, r0
     2d4:	00000050 	andeq	r0, r0, r0, asr r0
	...
     2e0:	00011400 	andeq	r1, r1, r0, lsl #8
     2e4:	00011f00 	andeq	r1, r1, r0, lsl #30
     2e8:	50000100 	andpl	r0, r0, r0, lsl #2
     2ec:	0000011f 	andeq	r0, r0, pc, lsl r1
     2f0:	0000016c 	andeq	r0, r0, ip, ror #2
     2f4:	00550001 	subseq	r0, r5, r1
	...
     304:	24000000 	strcs	r0, [r0], #-0
     308:	37000001 	strcc	r0, [r0, -r1]
     30c:	01000001 	tsteq	r0, r1
     310:	01375000 	teqeq	r7, r0
     314:	014c0000 	mrseq	r0, (UNDEF: 76)
     318:	00010000 	andeq	r0, r1, r0
     31c:	00014c54 	andeq	r4, r1, r4, asr ip
     320:	00015000 	andeq	r5, r1, r0
     324:	50000100 	andpl	r0, r0, r0, lsl #2
     328:	00000150 	andeq	r0, r0, r0, asr r1
     32c:	0000016c 	andeq	r0, r0, ip, ror #2
     330:	00540001 	subseq	r0, r4, r1
	...
     33c:	e4000000 	str	r0, [r0], #-0
     340:	f3000000 	vhadd.u8	d0, d0, d0
     344:	01000000 	mrseq	r0, (UNDEF: 0)
     348:	00f35000 	rscseq	r5, r3, r0
     34c:	01140000 	tsteq	r4, r0
     350:	00010000 	andeq	r0, r1, r0
     354:	00000056 	andeq	r0, r0, r6, asr r0
	...
     360:	0000e400 	andeq	lr, r0, r0, lsl #8
     364:	0000f300 	andeq	pc, r0, r0, lsl #6
     368:	51000100 	mrspl	r0, (UNDEF: 16)
     36c:	000000f3 	strdeq	r0, [r0], -r3
     370:	00000114 	andeq	r0, r0, r4, lsl r1
     374:	00540001 	subseq	r0, r4, r1
	...
     380:	f8000000 			; <UNDEFINED> instruction: 0xf8000000
     384:	fc000000 	stc2	0, cr0, [r0], {-0}
     388:	01000000 	mrseq	r0, (UNDEF: 0)
     38c:	00fc5000 	rscseq	r5, ip, r0
     390:	01140000 	tsteq	r4, r0
     394:	00010000 	andeq	r0, r1, r0
     398:	00000055 	andeq	r0, r0, r5, asr r0
	...
     3a4:	0c000001 	stceq	0, cr0, [r0], {1}
     3a8:	01000001 	tsteq	r0, r1
     3ac:	00005000 	andeq	r5, r0, r0
	...
     3b8:	00cc0000 	sbceq	r0, ip, r0
     3bc:	00d70000 	sbcseq	r0, r7, r0
     3c0:	00010000 	andeq	r0, r1, r0
     3c4:	0000d750 	andeq	sp, r0, r0, asr r7
     3c8:	0000e400 	andeq	lr, r0, r0, lsl #8
     3cc:	54000100 	strpl	r0, [r0], #-256	; 0xffffff00
	...
     3d8:	00d80000 	sbcseq	r0, r8, r0
     3dc:	00dc0000 	sbcseq	r0, ip, r0
     3e0:	00010000 	andeq	r0, r1, r0
     3e4:	00000054 	andeq	r0, r0, r4, asr r0
	...
     3f0:	0000c400 	andeq	ip, r0, r0, lsl #8
     3f4:	0000c800 	andeq	ip, r0, r0, lsl #16
     3f8:	50000100 	andpl	r0, r0, r0, lsl #2
     3fc:	000000c8 	andeq	r0, r0, r8, asr #1
     400:	000000cc 	andeq	r0, r0, ip, asr #1
     404:	5c700003 	ldclpl	0, cr0, [r0], #-12
     408:	0000009f 	muleq	r0, pc, r0	; <UNPREDICTABLE>
	...
     414:	00001000 	andeq	r1, r0, r0
     418:	00001c00 	andeq	r1, r0, r0, lsl #24
     41c:	50000100 	andpl	r0, r0, r0, lsl #2
     420:	0000001c 	andeq	r0, r0, ip, lsl r0
     424:	00000020 	andeq	r0, r0, r0, lsr #32
     428:	01f30004 	mvnseq	r0, r4
     42c:	00009f50 	andeq	r9, r0, r0, asr pc
	...
     43c:	00080000 	andeq	r0, r8, r0
     440:	00780000 	rsbseq	r0, r8, r0
     444:	00010000 	andeq	r0, r1, r0
     448:	00007851 	andeq	r7, r0, r1, asr r8
     44c:	00008400 	andeq	r8, r0, r0, lsl #8
     450:	70000300 	andvc	r0, r0, r0, lsl #6
     454:	00849f78 	addeq	r9, r4, r8, ror pc
     458:	00a40000 	adceq	r0, r4, r0
     45c:	00010000 	andeq	r0, r1, r0
     460:	0000a451 	andeq	sl, r0, r1, asr r4
     464:	0000bc00 	andeq	fp, r0, r0, lsl #24
     468:	70000300 	andvc	r0, r0, r0, lsl #6
     46c:	00009f78 	andeq	r9, r0, r8, ror pc
	...
     478:	00100000 	andseq	r0, r0, r0
     47c:	00480000 	subeq	r0, r8, r0
     480:	00010000 	andeq	r0, r1, r0
     484:	00004c53 	andeq	r4, r0, r3, asr ip
     488:	0000bc00 	andeq	fp, r0, r0, lsl #24
     48c:	53000100 	movwpl	r0, #256	; 0x100
	...
     4a0:	00000100 	andeq	r0, r0, r0, lsl #2
     4a4:	00000124 	andeq	r0, r0, r4, lsr #2
     4a8:	24500001 	ldrbcs	r0, [r0], #-1
     4ac:	28000001 	stmdacs	r0, {r0}
     4b0:	04000001 	streq	r0, [r0], #-1
     4b4:	5001f300 	andpl	pc, r1, r0, lsl #6
     4b8:	0001289f 	muleq	r1, pc, r8	; <UNPREDICTABLE>
     4bc:	00014000 	andeq	r4, r1, r0
     4c0:	50000100 	andpl	r0, r0, r0, lsl #2
     4c4:	00000140 	andeq	r0, r0, r0, asr #2
     4c8:	000001ac 	andeq	r0, r0, ip, lsr #3
     4cc:	01f30004 	mvnseq	r0, r4
     4d0:	00009f50 	andeq	r9, r0, r0, asr pc
	...
     4e0:	00010100 	andeq	r0, r1, r0, lsl #2
     4e4:	00000000 	andeq	r0, r0, r0
     4e8:	00000124 	andeq	r0, r0, r4, lsr #2
     4ec:	00000128 	andeq	r0, r0, r8, lsr #2
     4f0:	40500001 	subsmi	r0, r0, r1
     4f4:	60000001 	andvs	r0, r0, r1
     4f8:	01000001 	tsteq	r0, r1
     4fc:	01605000 	cmneq	r0, r0
     500:	01640000 	cmneq	r4, r0
     504:	00030000 	andeq	r0, r3, r0
     508:	649f7870 	ldrvs	r7, [pc], #2160	; 510 <__code_start__-0x7af0>
     50c:	70000001 	andvc	r0, r0, r1
     510:	01000001 	tsteq	r0, r1
     514:	01705000 	cmneq	r0, r0
     518:	01780000 	cmneq	r8, r0
     51c:	00020000 	andeq	r0, r2, r0
     520:	01780070 	cmneq	r8, r0, ror r0
     524:	01980000 	orrseq	r0, r8, r0
     528:	00010000 	andeq	r0, r1, r0
     52c:	00019c50 	andeq	r9, r1, r0, asr ip
     530:	0001ac00 	andeq	sl, r1, r0, lsl #24
     534:	50000100 	andpl	r0, r0, r0, lsl #2
	...
     540:	00010100 	andeq	r0, r1, r0, lsl #2
     544:	00010000 	andeq	r0, r1, r0
     548:	01180000 	tsteq	r8, r0
     54c:	01280000 			; <UNDEFINED> instruction: 0x01280000
     550:	00010000 	andeq	r0, r1, r0
     554:	00012852 	andeq	r2, r1, r2, asr r8
     558:	00014000 	andeq	r4, r1, r0
     55c:	03000600 	movweq	r0, #1536	; 0x600
     560:	0000a9e0 	andeq	sl, r0, r0, ror #19
     564:	0001409f 	muleq	r1, pc, r0	; <UNPREDICTABLE>
     568:	00017000 	andeq	r7, r1, r0
     56c:	52000100 	andpl	r0, r0, #0
     570:	00000170 	andeq	r0, r0, r0, ror r1
     574:	00000178 	andeq	r0, r0, r8, ror r1
     578:	78500001 	ldmdavc	r0, {r0}^
     57c:	9b000001 	blls	588 <__code_start__-0x7a78>
     580:	01000001 	tsteq	r0, r1
     584:	00005200 	andeq	r5, r0, r0, lsl #4
	...
     590:	00000110 	andeq	r0, r0, r0, lsl r1
     594:	000001ac 	andeq	r0, r0, ip, lsr #3
     598:	00540001 	subseq	r0, r4, r1
	...
     5a4:	bc000000 	stclt	0, cr0, [r0], {-0}
     5a8:	cc000000 	stcgt	0, cr0, [r0], {-0}
     5ac:	01000000 	mrseq	r0, (UNDEF: 0)
     5b0:	00cc5000 	sbceq	r5, ip, r0
     5b4:	01000000 	mrseq	r0, (UNDEF: 0)
     5b8:	00010000 	andeq	r0, r1, r0
     5bc:	00000054 	andeq	r0, r0, r4, asr r0
	...
     5c8:	d4000000 	strle	r0, [r0], #-0
     5cc:	e4000000 	str	r0, [r0], #-0
     5d0:	01000000 	mrseq	r0, (UNDEF: 0)
     5d4:	00e45000 	rsceq	r5, r4, r0
     5d8:	00e70000 	rsceq	r0, r7, r0
     5dc:	00030000 	andeq	r0, r3, r0
     5e0:	f49f7870 			; <UNDEFINED> instruction: 0xf49f7870
     5e4:	f8000000 			; <UNDEFINED> instruction: 0xf8000000
     5e8:	01000000 	mrseq	r0, (UNDEF: 0)
     5ec:	00005000 	andeq	r5, r0, r0
     5f0:	00000000 	andeq	r0, r0, r0
     5f4:	00010000 	andeq	r0, r1, r0
     5f8:	00dc0000 	sbcseq	r0, ip, r0
     5fc:	00e40000 	rsceq	r0, r4, r0
     600:	00010000 	andeq	r0, r1, r0
     604:	0000e450 	andeq	lr, r0, r0, asr r4
     608:	0000e700 	andeq	lr, r0, r0, lsl #14
     60c:	70000300 	andvc	r0, r0, r0, lsl #6
     610:	00009f78 	andeq	r9, r0, r8, ror pc
	...
     61c:	000005d4 	ldrdeq	r0, [r0], -r4
     620:	000005d8 	ldrdeq	r0, [r0], -r8
     624:	00500001 	subseq	r0, r0, r1
     628:	00000000 	andeq	r0, r0, r0
     62c:	01000000 	mrseq	r0, (UNDEF: 0)
     630:	88000000 	stmdahi	r0, {}	; <UNPREDICTABLE>
     634:	b4000003 	strlt	r0, [r0], #-3
     638:	02000003 	andeq	r0, r0, #3, 0
     63c:	b49f3000 	ldrlt	r3, [pc], #0	; 644 <__code_start__-0x79bc>
     640:	48000003 	stmdami	r0, {r0, r1}
     644:	01000004 	tsteq	r0, r4
     648:	00005500 	andeq	r5, r0, r0, lsl #10
     64c:	00000000 	andeq	r0, r0, r0
     650:	00010000 	andeq	r0, r1, r0
     654:	03880000 	orreq	r0, r8, #0, 0
     658:	03b40000 			; <UNDEFINED> instruction: 0x03b40000
     65c:	00020000 	andeq	r0, r2, r0
     660:	03b49f30 			; <UNDEFINED> instruction: 0x03b49f30
     664:	04480000 	strbeq	r0, [r8], #-0
     668:	00010000 	andeq	r0, r1, r0
     66c:	00000058 	andeq	r0, r0, r8, asr r0
     670:	00000000 	andeq	r0, r0, r0
     674:	00000100 	andeq	r0, r0, r0, lsl #2
     678:	88000000 	stmdahi	r0, {}	; <UNPREDICTABLE>
     67c:	b4000003 	strlt	r0, [r0], #-3
     680:	02000003 	andeq	r0, r0, #3, 0
     684:	b49f3000 	ldrlt	r3, [pc], #0	; 68c <__code_start__-0x7974>
     688:	48000003 	stmdami	r0, {r0, r1}
     68c:	01000004 	tsteq	r0, r4
     690:	04485700 	strbeq	r5, [r8], #-1792	; 0xfffff900
     694:	04680000 	strbteq	r0, [r8], #-0
     698:	00010000 	andeq	r0, r1, r0
     69c:	00000050 	andeq	r0, r0, r0, asr r0
	...
     6ac:	0003a400 	andeq	sl, r3, r0, lsl #8
     6b0:	0003e800 	andeq	lr, r3, r0, lsl #16
     6b4:	50000100 	andpl	r0, r0, r0, lsl #2
     6b8:	000003e8 	andeq	r0, r0, r8, ror #7
     6bc:	00000404 	andeq	r0, r0, r4, lsl #8
     6c0:	04540001 	ldrbeq	r0, [r4], #-1
     6c4:	24000004 	strcs	r0, [r0], #-4
     6c8:	01000004 	tsteq	r0, r4
     6cc:	04245000 	strteq	r5, [r4], #-0
     6d0:	04480000 	strbeq	r0, [r8], #-0
     6d4:	00010000 	andeq	r0, r1, r0
     6d8:	00000054 	andeq	r0, r0, r4, asr r0
     6dc:	00000000 	andeq	r0, r0, r0
     6e0:	c4000000 	strgt	r0, [r0], #-0
     6e4:	dc000003 	stcle	0, cr0, [r0], {3}
     6e8:	04000003 	streq	r0, [r0], #-3
     6ec:	01010a00 	tsteq	r1, r0, lsl #20
     6f0:	0000009f 	muleq	r0, pc, r0	; <UNPREDICTABLE>
     6f4:	00000000 	andeq	r0, r0, r0
     6f8:	c4000000 	strgt	r0, [r0], #-0
     6fc:	dc000003 	stcle	0, cr0, [r0], {3}
     700:	06000003 	streq	r0, [r0], -r3
     704:	1a46f200 	bne	11bcf0c <__bss_end__+0x11b2114>
	...
     714:	0003c400 	andeq	ip, r3, r0, lsl #8
     718:	0003dc00 	andeq	sp, r3, r0, lsl #24
     71c:	03000600 	movweq	r0, #1536	; 0x600
     720:	0000a304 	andeq	sl, r0, r4, lsl #6
     724:	0000009f 	muleq	r0, pc, r0	; <UNPREDICTABLE>
	...
     730:	00057800 	andeq	r7, r5, r0, lsl #16
     734:	00058400 	andeq	r8, r5, r0, lsl #8
     738:	50000100 	andpl	r0, r0, r0, lsl #2
     73c:	00000584 	andeq	r0, r0, r4, lsl #11
     740:	000005c8 	andeq	r0, r0, r8, asr #11
     744:	00540001 	subseq	r0, r4, r1
	...
     750:	0c000000 	stceq	0, cr0, [r0], {-0}
     754:	13000005 	movwne	r0, #5
     758:	01000005 	tsteq	r0, r5
     75c:	05135000 	ldreq	r5, [r3, #-0]
     760:	05180000 	ldreq	r0, [r8, #-0]
     764:	00040000 	andeq	r0, r4, r0
     768:	9f5001f3 	svcls	0x005001f3
	...
     778:	00000270 	andeq	r0, r0, r0, ror r2
     77c:	0000027c 	andeq	r0, r0, ip, ror r2
     780:	7c500001 	mrrcvc	0, 0, r0, r0, cr1	; <UNPREDICTABLE>
     784:	80000002 	andhi	r0, r0, r2
     788:	01000003 	tsteq	r0, r3
     78c:	00005800 	andeq	r5, r0, r0, lsl #16
     790:	00000000 	andeq	r0, r0, r0
     794:	00010000 	andeq	r0, r1, r0
     798:	02780000 	rsbseq	r0, r8, #0, 0
     79c:	02a40000 	adceq	r0, r4, #0, 0
     7a0:	00020000 	andeq	r0, r2, r0
     7a4:	02a49f30 	adceq	r9, r4, #48, 30	; 0xc0
     7a8:	03800000 	orreq	r0, r0, #0, 0
     7ac:	00010000 	andeq	r0, r1, r0
     7b0:	00000055 	andeq	r0, r0, r5, asr r0
     7b4:	00000000 	andeq	r0, r0, r0
     7b8:	00000100 	andeq	r0, r0, r0, lsl #2
     7bc:	78000000 	stmdavc	r0, {}	; <UNPREDICTABLE>
     7c0:	a4000002 	strge	r0, [r0], #-2
     7c4:	02000002 	andeq	r0, r0, #2, 0
     7c8:	a49f3000 	ldrge	r3, [pc], #0	; 7d0 <__code_start__-0x7830>
     7cc:	38000002 	stmdacc	r0, {r1}
     7d0:	01000003 	tsteq	r0, r3
     7d4:	03405600 	movteq	r5, #1536	; 0x600
     7d8:	03800000 	orreq	r0, r0, #0, 0
     7dc:	00010000 	andeq	r0, r1, r0
     7e0:	00000056 	andeq	r0, r0, r6, asr r0
     7e4:	00000000 	andeq	r0, r0, r0
     7e8:	00000100 	andeq	r0, r0, r0, lsl #2
     7ec:	00027800 	andeq	r7, r2, r0, lsl #16
     7f0:	0002a400 	andeq	sl, r2, r0, lsl #8
     7f4:	30000200 	andcc	r0, r0, r0, lsl #4
     7f8:	0002a49f 	muleq	r2, pc, r4	; <UNPREDICTABLE>
     7fc:	00038000 	andeq	r8, r3, r0
     800:	57000100 	strpl	r0, [r0, -r0, lsl #2]
	...
     818:	02940000 	addseq	r0, r4, #0, 0
     81c:	02b40000 	adcseq	r0, r4, #0, 0
     820:	00010000 	andeq	r0, r1, r0
     824:	0002b450 	andeq	fp, r2, r0, asr r4
     828:	0002c400 	andeq	ip, r2, r0, lsl #8
     82c:	54000100 	strpl	r0, [r0], #-256	; 0xffffff00
     830:	000002c4 	andeq	r0, r0, r4, asr #5
     834:	000002f4 	strdeq	r0, [r0], -r4
     838:	f4500001 			; <UNDEFINED> instruction: 0xf4500001
     83c:	f7000002 			; <UNDEFINED> instruction: 0xf7000002
     840:	01000002 	tsteq	r0, r2
     844:	02f75200 	rscseq	r5, r7, #0, 4
     848:	02fc0000 	rscseq	r0, ip, #0, 0
     84c:	00010000 	andeq	r0, r1, r0
     850:	0002fc54 	andeq	pc, r2, r4, asr ip	; <UNPREDICTABLE>
     854:	00030000 	andeq	r0, r3, r0
     858:	50000100 	andpl	r0, r0, r0, lsl #2
     85c:	00000300 	andeq	r0, r0, r0, lsl #6
     860:	00000380 	andeq	r0, r0, r0, lsl #7
     864:	00540001 	subseq	r0, r4, r1
	...
     870:	d8000000 	stmdale	r0, {}	; <UNPREDICTABLE>
     874:	f3000001 	vhadd.u8	d0, d0, d1
     878:	01000001 	tsteq	r0, r1
     87c:	01f45000 	mvnseq	r5, r0
     880:	01fc0000 	mvnseq	r0, r0
     884:	00010000 	andeq	r0, r1, r0
     888:	00000050 	andeq	r0, r0, r0, asr r0
	...
     89c:	64000000 	strvs	r0, [r0], #-0
     8a0:	a4000000 	strge	r0, [r0], #-0
     8a4:	01000000 	mrseq	r0, (UNDEF: 0)
     8a8:	00a45000 	adceq	r5, r4, r0
     8ac:	00ac0000 	adceq	r0, ip, r0
     8b0:	00010000 	andeq	r0, r1, r0
     8b4:	0000ac54 	andeq	sl, r0, r4, asr ip
     8b8:	0000c400 	andeq	ip, r0, r0, lsl #8
     8bc:	50000100 	andpl	r0, r0, r0, lsl #2
     8c0:	000000c4 	andeq	r0, r0, r4, asr #1
     8c4:	000000cc 	andeq	r0, r0, ip, asr #1
     8c8:	01f30004 	mvnseq	r0, r4
     8cc:	00cc9f50 	sbceq	r9, ip, r0, asr pc
     8d0:	00e40000 	rsceq	r0, r4, r0
     8d4:	00010000 	andeq	r0, r1, r0
     8d8:	0000e450 	andeq	lr, r0, r0, asr r4
     8dc:	0000ec00 	andeq	lr, r0, r0, lsl #24
     8e0:	54000100 	strpl	r0, [r0], #-256	; 0xffffff00
     8e4:	000000ec 	andeq	r0, r0, ip, ror #1
     8e8:	000001cc 	andeq	r0, r0, ip, asr #3
     8ec:	01f30004 	mvnseq	r0, r4
     8f0:	00009f50 	andeq	r9, r0, r0, asr pc
	...
     908:	00000064 	andeq	r0, r0, r4, rrx
     90c:	000000a0 	andeq	r0, r0, r0, lsr #1
     910:	a0510001 	subsge	r0, r1, r1
     914:	ac000000 	stcge	0, cr0, [r0], {-0}
     918:	01000000 	mrseq	r0, (UNDEF: 0)
     91c:	00ac5600 	adceq	r5, ip, r0, lsl #12
     920:	00c00000 	sbceq	r0, r0, r0
     924:	00010000 	andeq	r0, r1, r0
     928:	0000c051 	andeq	ip, r0, r1, asr r0
     92c:	0000cc00 	andeq	ip, r0, r0, lsl #24
     930:	f3000400 	vshl.u8	d0, d0, d0
     934:	cc9f5101 	ldfgts	f5, [pc], {1}
     938:	e0000000 	and	r0, r0, r0
     93c:	01000000 	mrseq	r0, (UNDEF: 0)
     940:	00e05100 	rsceq	r5, r0, r0, lsl #2
     944:	01a80000 			; <UNDEFINED> instruction: 0x01a80000
     948:	00010000 	andeq	r0, r1, r0
     94c:	0001a856 	andeq	sl, r1, r6, asr r8
     950:	0001cc00 	andeq	ip, r1, r0, lsl #24
     954:	f3000400 	vshl.u8	d0, d0, d0
     958:	009f5101 	addseq	r5, pc, r1, lsl #2
	...
     964:	0000ec00 	andeq	lr, r0, r0, lsl #24
     968:	0001a800 	andeq	sl, r1, r0, lsl #16
     96c:	54000100 	strpl	r0, [r0], #-256	; 0xffffff00
	...
     97c:	00ec0000 	rsceq	r0, ip, r0
     980:	010c0000 	mrseq	r0, (UNDEF: 12)
     984:	00010000 	andeq	r0, r1, r0
     988:	00011c55 	andeq	r1, r1, r5, asr ip
     98c:	00013300 	andeq	r3, r1, r0, lsl #6
     990:	50000100 	andpl	r0, r0, r0, lsl #2
     994:	00000133 	andeq	r0, r0, r3, lsr r1
     998:	000001a0 	andeq	r0, r0, r0, lsr #3
     99c:	00550001 	subseq	r0, r5, r1
	...
     9a8:	ec000000 	stc	0, cr0, [r0], {-0}
     9ac:	08000000 	stmdaeq	r0, {}	; <UNPREDICTABLE>
     9b0:	01000001 	tsteq	r0, r1
     9b4:	01285700 			; <UNDEFINED> instruction: 0x01285700
     9b8:	01a00000 	moveq	r0, r0
     9bc:	00010000 	andeq	r0, r1, r0
     9c0:	00000057 	andeq	r0, r0, r7, asr r0
	...
     9cc:	0000ec00 	andeq	lr, r0, r0, lsl #24
     9d0:	00010800 	andeq	r0, r1, r0, lsl #16
     9d4:	58000100 	stmdapl	r0, {r8}
     9d8:	0000012c 	andeq	r0, r0, ip, lsr #2
     9dc:	000001a0 	andeq	r0, r0, r0, lsr #3
     9e0:	00580001 	subseq	r0, r8, r1
	...
     9ec:	3c000000 	stccc	0, cr0, [r0], {-0}
     9f0:	47000000 	strmi	r0, [r0, -r0]
     9f4:	01000000 	mrseq	r0, (UNDEF: 0)
     9f8:	00475000 	subeq	r5, r7, r0
     9fc:	00640000 	rsbeq	r0, r4, r0
     a00:	00010000 	andeq	r0, r1, r0
     a04:	00000054 	andeq	r0, r0, r4, asr r0
     a08:	00000000 	andeq	r0, r0, r0
     a0c:	00000100 	andeq	r0, r0, r0, lsl #2
     a10:	00004400 	andeq	r4, r0, r0, lsl #8
     a14:	00004700 	andeq	r4, r0, r0, lsl #14
     a18:	50000100 	andpl	r0, r0, r0, lsl #2
     a1c:	00000047 	andeq	r0, r0, r7, asr #32
     a20:	00000064 	andeq	r0, r0, r4, rrx
     a24:	00540001 	subseq	r0, r4, r1
	...
     a3c:	24000000 	strcs	r0, [r0], #-0
     a40:	01000000 	mrseq	r0, (UNDEF: 0)
     a44:	00245000 	eoreq	r5, r4, r0
     a48:	00280000 	eoreq	r0, r8, r0
     a4c:	00040000 	andeq	r0, r4, r0
     a50:	9f5001f3 	svcls	0x005001f3
     a54:	00000028 	andeq	r0, r0, r8, lsr #32
     a58:	0000002c 	andeq	r0, r0, ip, lsr #32
     a5c:	2c500001 	mrrccs	0, 0, r0, r0, cr1	; <UNPREDICTABLE>
     a60:	30000000 	andcc	r0, r0, r0
     a64:	04000000 	streq	r0, [r0], #-0
     a68:	5001f300 	andpl	pc, r1, r0, lsl #6
     a6c:	0000309f 	muleq	r0, pc, r0	; <UNPREDICTABLE>
     a70:	00003400 	andeq	r3, r0, r0, lsl #8
     a74:	50000100 	andpl	r0, r0, r0, lsl #2
     a78:	00000034 	andeq	r0, r0, r4, lsr r0
     a7c:	0000003c 	andeq	r0, r0, ip, lsr r0
     a80:	01f30004 	mvnseq	r0, r4
     a84:	00009f50 	andeq	r9, r0, r0, asr pc
	...
     a98:	04680000 	strbteq	r0, [r8], #-0
     a9c:	04900000 	ldreq	r0, [r0], #0
     aa0:	00010000 	andeq	r0, r1, r0
     aa4:	00049050 	andeq	r9, r4, r0, asr r0
     aa8:	0004bc00 	andeq	fp, r4, r0, lsl #24
     aac:	54000100 	strpl	r0, [r0], #-256	; 0xffffff00
     ab0:	000004bc 			; <UNDEFINED> instruction: 0x000004bc
     ab4:	000004d4 	ldrdeq	r0, [r0], -r4
     ab8:	d4500001 	ldrble	r0, [r0], #-1
     abc:	dc000004 	stcle	0, cr0, [r0], {4}
     ac0:	01000004 	tsteq	r0, r4
     ac4:	04dc5400 	ldrbeq	r5, [ip], #1024	; 0x400
     ac8:	04ec0000 	strbteq	r0, [ip], #0
     acc:	00010000 	andeq	r0, r1, r0
     ad0:	0004ec50 	andeq	lr, r4, r0, asr ip
     ad4:	00050c00 	andeq	r0, r5, r0, lsl #24
     ad8:	54000100 	strpl	r0, [r0], #-256	; 0xffffff00
	...
     ae4:	04880002 	streq	r0, [r8], #2
     ae8:	04bc0000 	ldrteq	r0, [ip], #0
     aec:	00040000 	andeq	r0, r4, r0
     af0:	9f244040 	svcls	0x00244040
	...
     b04:	0000001c 	andeq	r0, r0, ip, lsl r0
     b08:	1c510001 	mrrcne	0, 0, r0, r1, cr1
     b0c:	78000000 	stmdavc	r0, {}	; <UNPREDICTABLE>
     b10:	04000000 	streq	r0, [r0], #-0
     b14:	5101f300 	mrspl	pc, SP_irq	; <UNPREDICTABLE>
     b18:	0000009f 	muleq	r0, pc, r0	; <UNPREDICTABLE>
	...
     b28:	00005800 	andeq	r5, r0, r0, lsl #16
     b2c:	52000100 	andpl	r0, r0, #0
     b30:	00000058 	andeq	r0, r0, r8, asr r0
     b34:	00000078 	andeq	r0, r0, r8, ror r0
     b38:	01f30004 	mvnseq	r0, r4
     b3c:	00009f52 	andeq	r9, r0, r2, asr pc
     b40:	00000000 	andeq	r0, r0, r0
     b44:	00020000 	andeq	r0, r2, r0
     b48:	00010100 	andeq	r0, r1, r0, lsl #2
     b4c:	00010100 	andeq	r0, r1, r0, lsl #2
     b50:	00010100 	andeq	r0, r1, r0, lsl #2
     b54:	00000000 	andeq	r0, r0, r0
     b58:	00000038 	andeq	r0, r0, r8, lsr r0
     b5c:	54500001 	ldrbpl	r0, [r0], #-1
     b60:	54000000 	strpl	r0, [r0], #-0
     b64:	01000000 	mrseq	r0, (UNDEF: 0)
     b68:	00545300 	subseq	r5, r4, r0, lsl #6
     b6c:	005c0000 	subseq	r0, ip, r0
     b70:	00030000 	andeq	r0, r3, r0
     b74:	5c9f0173 	ldfpls	f0, [pc], {115}	; 0x73
     b78:	64000000 	strvs	r0, [r0], #-0
     b7c:	01000000 	mrseq	r0, (UNDEF: 0)
     b80:	00645200 	rsbeq	r5, r4, r0, lsl #4
     b84:	00680000 	rsbeq	r0, r8, r0
     b88:	00030000 	andeq	r0, r3, r0
     b8c:	689f0273 	ldmvs	pc, {r0, r1, r4, r5, r6, r9}	; <UNPREDICTABLE>
     b90:	74000000 	strvc	r0, [r0], #-0
     b94:	01000000 	mrseq	r0, (UNDEF: 0)
     b98:	00745200 	rsbseq	r5, r4, r0, lsl #4
     b9c:	00780000 	rsbseq	r0, r8, r0
     ba0:	00030000 	andeq	r0, r3, r0
     ba4:	009f0172 	addseq	r0, pc, r2, ror r1	; <UNPREDICTABLE>
	...
     bb0:	00000800 	andeq	r0, r0, r0, lsl #16
     bb4:	00007800 	andeq	r7, r0, r0, lsl #16
     bb8:	54000100 	strpl	r0, [r0], #-256	; 0xffffff00
	...
     bc8:	002c0000 	eoreq	r0, ip, r0
     bcc:	00340000 	eorseq	r0, r4, r0
     bd0:	00010000 	andeq	r0, r1, r0
     bd4:	00003450 	andeq	r3, r0, r0, asr r4
     bd8:	00004800 	andeq	r4, r0, r0, lsl #16
     bdc:	54000100 	strpl	r0, [r0], #-256	; 0xffffff00
     be0:	00000048 	andeq	r0, r0, r8, asr #32
     be4:	00000058 	andeq	r0, r0, r8, asr r0
     be8:	00500001 	subseq	r0, r0, r1
	...
     bf4:	01010000 	mrseq	r0, (UNDEF: 1)
     bf8:	00000000 	andeq	r0, r0, r0
     bfc:	0c000000 	stceq	0, cr0, [r0], {-0}
     c00:	01000000 	mrseq	r0, (UNDEF: 0)
     c04:	000c5000 	andeq	r5, ip, r0
     c08:	00200000 	eoreq	r0, r0, r0
     c0c:	00010000 	andeq	r0, r1, r0
     c10:	00002054 	andeq	r2, r0, r4, asr r0
     c14:	00002400 	andeq	r2, r0, r0, lsl #8
     c18:	74000300 	strvc	r0, [r0], #-768	; 0xfffffd00
     c1c:	00249f01 	eoreq	r9, r4, r1, lsl #30
     c20:	00380000 	eorseq	r0, r8, r0
     c24:	00010000 	andeq	r0, r1, r0
     c28:	00000054 	andeq	r0, r0, r4, asr r0
	...
     c38:	88000000 	stmdahi	r0, {}	; <UNPREDICTABLE>
     c3c:	94000003 	strls	r0, [r0], #-3
     c40:	01000003 	tsteq	r0, r3
     c44:	03945000 	orrseq	r5, r4, #0, 0
     c48:	03d00000 	bicseq	r0, r0, #0, 0
     c4c:	00010000 	andeq	r0, r1, r0
     c50:	0003d05b 	andeq	sp, r3, fp, asr r0
     c54:	00092000 	andeq	r2, r9, r0
     c58:	f3000400 	vshl.u8	d0, d0, d0
     c5c:	209f5001 	addscs	r5, pc, r1
     c60:	28000009 	stmdacs	r0, {r0, r3}
     c64:	01000009 	tsteq	r0, r9
     c68:	09285b00 	stmdbeq	r8!, {r8, r9, fp, ip, lr}
     c6c:	09b40000 	ldmibeq	r4!, {}	; <UNPREDICTABLE>
     c70:	00040000 	andeq	r0, r4, r0
     c74:	9f5001f3 	svcls	0x005001f3
	...
     c88:	00000388 	andeq	r0, r0, r8, lsl #7
     c8c:	000003d0 	ldrdeq	r0, [r0], -r0	; <UNPREDICTABLE>
     c90:	d0510001 	subsle	r0, r1, r1
     c94:	20000003 	andcs	r0, r0, r3
     c98:	04000009 	streq	r0, [r0], #-9
     c9c:	5101f300 	mrspl	pc, SP_irq	; <UNPREDICTABLE>
     ca0:	0009209f 	muleq	r9, pc, r0	; <UNPREDICTABLE>
     ca4:	00092800 	andeq	r2, r9, r0, lsl #16
     ca8:	51000100 	mrspl	r0, (UNDEF: 16)
     cac:	00000928 	andeq	r0, r0, r8, lsr #18
     cb0:	000009b4 			; <UNDEFINED> instruction: 0x000009b4
     cb4:	01f30004 	mvnseq	r0, r4
     cb8:	00009f51 	andeq	r9, r0, r1, asr pc
	...
     cc8:	00000100 	andeq	r0, r0, r0, lsl #2
     ccc:	00000001 	andeq	r0, r0, r1
	...
     cd8:	03880000 	orreq	r0, r8, #0, 0
     cdc:	03d00000 	bicseq	r0, r0, #0, 0
     ce0:	00010000 	andeq	r0, r1, r0
     ce4:	0003d052 	andeq	sp, r3, r2, asr r0
     ce8:	00040000 	andeq	r0, r4, r0
     cec:	56000100 	strpl	r0, [r0], -r0, lsl #2
     cf0:	00000414 	andeq	r0, r0, r4, lsl r4
     cf4:	00000424 	andeq	r0, r0, r4, lsr #8
     cf8:	24560001 	ldrbcs	r0, [r6], #-1
     cfc:	28000004 	stmdacs	r0, {r2}
     d00:	03000004 	movweq	r0, #4
     d04:	9f7f7600 	svcls	0x007f7600
     d08:	000004a8 	andeq	r0, r0, r8, lsr #9
     d0c:	000004ac 	andeq	r0, r0, ip, lsr #9
     d10:	e0560001 	subs	r0, r6, r1
     d14:	04000004 	streq	r0, [r0], #-4
     d18:	01000005 	tsteq	r0, r5
     d1c:	057c5600 	ldrbeq	r5, [ip, #-1536]!	; 0xfffffa00
     d20:	05880000 	streq	r0, [r8]
     d24:	00010000 	andeq	r0, r1, r0
     d28:	00058853 	andeq	r8, r5, r3, asr r8
     d2c:	0005d000 	andeq	sp, r5, r0
     d30:	91000300 	mrsls	r0, LR_irq
     d34:	08007dcc 	stmdaeq	r0, {r2, r3, r6, r7, r8, sl, fp, ip, sp, lr}
     d38:	080f0000 	stmdaeq	pc, {}	; <UNPREDICTABLE>
     d3c:	00010000 	andeq	r0, r1, r0
     d40:	00080f53 	andeq	r0, r8, r3, asr pc
     d44:	00088800 	andeq	r8, r8, r0, lsl #16
     d48:	91000300 	mrsls	r0, LR_irq
     d4c:	09207dcc 	stmdbeq	r0!, {r2, r3, r6, r7, r8, sl, fp, ip, sp, lr}
     d50:	09280000 	stmdbeq	r8!, {}	; <UNPREDICTABLE>
     d54:	00010000 	andeq	r0, r1, r0
     d58:	00094852 	andeq	r4, r9, r2, asr r8
     d5c:	00096400 	andeq	r6, r9, r0, lsl #8
     d60:	91000300 	mrsls	r0, LR_irq
     d64:	00007dcc 	andeq	r7, r0, ip, asr #27
	...
     d74:	01000000 	mrseq	r0, (UNDEF: 0)
     d78:	01000001 	tsteq	r0, r1
     d7c:	00000001 	andeq	r0, r0, r1
     d80:	00020200 	andeq	r0, r2, r0, lsl #4
     d84:	00020200 	andeq	r0, r2, r0, lsl #4
     d88:	00010100 	andeq	r0, r1, r0, lsl #2
     d8c:	00020200 	andeq	r0, r2, r0, lsl #4
     d90:	00010100 	andeq	r0, r1, r0, lsl #2
	...
     d9c:	00000388 	andeq	r0, r0, r8, lsl #7
     da0:	000003ac 	andeq	r0, r0, ip, lsr #7
     da4:	ac530001 	mrrcge	0, 0, r0, r3, cr1
     da8:	c0000003 	andgt	r0, r0, r3
     dac:	03000003 	movweq	r0, #3
     db0:	04935300 	ldreq	r5, [r3], #768	; 0x300
     db4:	000003d0 	ldrdeq	r0, [r0], -r0	; <UNPREDICTABLE>
     db8:	000003e8 	andeq	r0, r0, r8, ror #7
     dbc:	93580003 	cmpls	r8, #3, 0
     dc0:	0003e804 	andeq	lr, r3, r4, lsl #16
     dc4:	0004ac00 	andeq	sl, r4, r0, lsl #24
     dc8:	58000300 	stmdapl	r0, {r8, r9}
     dcc:	04c00493 	strbeq	r0, [r0], #1171	; 0x493
     dd0:	04c00000 	strbeq	r0, [r0], #0
     dd4:	00030000 	andeq	r0, r3, r0
     dd8:	c0049358 	andgt	r9, r4, r8, asr r3
     ddc:	cc000004 	stcgt	0, cr0, [r0], {4}
     de0:	05000004 	streq	r0, [r0, #-4]
     de4:	9f047800 	svcls	0x00047800
     de8:	04cc0493 	strbeq	r0, [ip], #1171	; 0x493
     dec:	04e00000 	strbteq	r0, [r0], #0
     df0:	00030000 	andeq	r0, r3, r0
     df4:	e0049358 	and	r9, r4, r8, asr r3
     df8:	38000004 	stmdacc	r0, {r2}
     dfc:	03000005 	movweq	r0, #5
     e00:	04935800 	ldreq	r5, [r3], #2048	; 0x800
     e04:	00000538 	andeq	r0, r0, r8, lsr r5
     e08:	0000053c 	andeq	r0, r0, ip, lsr r5
     e0c:	79780005 	ldmdbvc	r8!, {r0, r2}^
     e10:	d004939f 	mulle	r4, pc, r3	; <UNPREDICTABLE>
     e14:	d0000005 	andle	r0, r0, r5
     e18:	03000005 	movweq	r0, #5
     e1c:	04935800 	ldreq	r5, [r3], #2048	; 0x800
     e20:	000005d0 	ldrdeq	r0, [r0], -r0	; <UNPREDICTABLE>
     e24:	000005d4 	ldrdeq	r0, [r0], -r4
     e28:	04780005 	ldrbteq	r0, [r8], #-5
     e2c:	f404939f 	vst2.32	{d9-d12}, [r4 :64]
     e30:	f4000005 	vst4.8	{d0-d3}, [r0], r5
     e34:	03000005 	movweq	r0, #5
     e38:	04935800 	ldreq	r5, [r3], #2048	; 0x800
     e3c:	000005f4 	strdeq	r0, [r0], -r4
     e40:	000005fc 	strdeq	r0, [r0], -ip
     e44:	04780005 	ldrbteq	r0, [r8], #-5
     e48:	fc04939f 	stc2	3, cr9, [r4], {159}	; 0x9f
     e4c:	fc000005 	stc2	0, cr0, [r0], {5}
     e50:	03000005 	movweq	r0, #5
     e54:	04935800 	ldreq	r5, [r3], #2048	; 0x800
     e58:	000005fc 	strdeq	r0, [r0], -ip
     e5c:	00000600 	andeq	r0, r0, r0, lsl #12
     e60:	04780005 	ldrbteq	r0, [r8], #-5
     e64:	0004939f 	muleq	r4, pc, r3	; <UNPREDICTABLE>
     e68:	00000006 	andeq	r0, r0, r6
     e6c:	03000007 	movweq	r0, #7
     e70:	04935800 	ldreq	r5, [r3], #2048	; 0x800
     e74:	00000700 	andeq	r0, r0, r0, lsl #14
     e78:	0000070c 	andeq	r0, r0, ip, lsl #14
     e7c:	04780005 	ldrbteq	r0, [r8], #-5
     e80:	0c04939f 	stceq	3, cr9, [r4], {159}	; 0x9f
     e84:	f8000007 			; <UNDEFINED> instruction: 0xf8000007
     e88:	03000007 	movweq	r0, #7
     e8c:	04935800 	ldreq	r5, [r3], #2048	; 0x800
     e90:	000007f8 	strdeq	r0, [r0], -r8
     e94:	000007fc 	strdeq	r0, [r0], -ip
     e98:	04780005 	ldrbteq	r0, [r8], #-5
     e9c:	fc04939f 	stc2	3, cr9, [r4], {159}	; 0x9f
     ea0:	00000007 	andeq	r0, r0, r7
     ea4:	03000008 	movweq	r0, #8
     ea8:	04935800 	ldreq	r5, [r3], #2048	; 0x800
     eac:	00000888 	andeq	r0, r0, r8, lsl #17
     eb0:	00000920 	andeq	r0, r0, r0, lsr #18
     eb4:	93580003 	cmpls	r8, #3, 0
     eb8:	00092004 	andeq	r2, r9, r4
     ebc:	00092800 	andeq	r2, r9, r0, lsl #16
     ec0:	53000100 	movwpl	r0, #256	; 0x100
     ec4:	00000964 	andeq	r0, r0, r4, ror #18
     ec8:	000009b4 			; <UNDEFINED> instruction: 0x000009b4
     ecc:	93580003 	cmpls	r8, #3, 0
     ed0:	00000004 	andeq	r0, r0, r4
     ed4:	00000000 	andeq	r0, r0, r0
     ed8:	00000100 	andeq	r0, r0, r0, lsl #2
     edc:	00000000 	andeq	r0, r0, r0
     ee0:	02020000 	andeq	r0, r2, #0, 0
     ee4:	01000000 	mrseq	r0, (UNDEF: 0)
     ee8:	00000101 	andeq	r0, r0, r1, lsl #2
     eec:	ac000000 	stcge	0, cr0, [r0], {-0}
     ef0:	d0000003 	andle	r0, r0, r3
     ef4:	01000003 	tsteq	r0, r3
     ef8:	03d05b00 	bicseq	r5, r0, #0, 22
     efc:	03d40000 	bicseq	r0, r4, #0, 0
     f00:	00010000 	andeq	r0, r1, r0
     f04:	0003d454 	andeq	sp, r3, r4, asr r4
     f08:	0003d800 	andeq	sp, r3, r0, lsl #16
     f0c:	74000300 	strvc	r0, [r0], #-768	; 0xfffffd00
     f10:	03d89f7f 	bicseq	r9, r8, #508	; 0x1fc
     f14:	03fc0000 	mvnseq	r0, #0, 0
     f18:	00010000 	andeq	r0, r1, r0
     f1c:	0004a854 	andeq	sl, r4, r4, asr r8
     f20:	0004ac00 	andeq	sl, r4, r0, lsl #24
     f24:	54000100 	strpl	r0, [r0], #-256	; 0xffffff00
     f28:	000004ac 	andeq	r0, r0, ip, lsr #9
     f2c:	000004b4 			; <UNDEFINED> instruction: 0x000004b4
     f30:	01740003 	cmneq	r4, r3
     f34:	0004b49f 	muleq	r4, pc, r4	; <UNPREDICTABLE>
     f38:	0004c000 	andeq	ip, r4, r0
     f3c:	54000100 	strpl	r0, [r0], #-256	; 0xffffff00
     f40:	000004e4 	andeq	r0, r0, r4, ror #9
     f44:	000004f4 	strdeq	r0, [r0], -r4
     f48:	f4540001 			; <UNDEFINED> instruction: 0xf4540001
     f4c:	f8000004 			; <UNDEFINED> instruction: 0xf8000004
     f50:	03000004 	movweq	r0, #4
     f54:	9f017400 	svcls	0x00017400
     f58:	000004f8 	strdeq	r0, [r0], -r8
     f5c:	00000504 	andeq	r0, r0, r4, lsl #10
     f60:	20540001 	subscs	r0, r4, r1
     f64:	28000009 	stmdacs	r0, {r0, r3}
     f68:	01000009 	tsteq	r0, r9
     f6c:	00005b00 	andeq	r5, r0, r0, lsl #22
     f70:	00000000 	andeq	r0, r0, r0
     f74:	00010000 	andeq	r0, r1, r0
     f78:	000003ac 	andeq	r0, r0, ip, lsr #7
     f7c:	000009b4 			; <UNDEFINED> instruction: 0x000009b4
     f80:	00570001 	subseq	r0, r7, r1
     f84:	00000000 	andeq	r0, r0, r0
     f88:	02000000 	andeq	r0, r0, #0, 0
     f8c:	00000000 	andeq	r0, r0, r0
     f90:	00057c00 	andeq	r7, r5, r0, lsl #24
     f94:	0005d000 	andeq	sp, r5, r0
     f98:	5b000100 	blpl	13a0 <__code_start__-0x6c60>
     f9c:	00000800 	andeq	r0, r0, r0, lsl #16
     fa0:	00000888 	andeq	r0, r0, r8, lsl #17
     fa4:	485b0001 	ldmdami	fp, {r0}^
     fa8:	64000009 	strvs	r0, [r0], #-9
     fac:	01000009 	tsteq	r0, r9
     fb0:	00005b00 	andeq	r5, r0, r0, lsl #22
     fb4:	00000000 	andeq	r0, r0, r0
     fb8:	00030000 	andeq	r0, r3, r0
     fbc:	00000000 	andeq	r0, r0, r0
     fc0:	0000057c 	andeq	r0, r0, ip, ror r5
     fc4:	000005d0 	ldrdeq	r0, [r0], -r0	; <UNPREDICTABLE>
     fc8:	00590001 	subseq	r0, r9, r1
     fcc:	88000008 	stmdahi	r0, {r3}
     fd0:	01000008 	tsteq	r0, r8
     fd4:	09485900 	stmdbeq	r8, {r8, fp, ip, lr}^
     fd8:	09640000 	stmdbeq	r4!, {}^	; <UNPREDICTABLE>
     fdc:	00010000 	andeq	r0, r1, r0
     fe0:	00000059 	andeq	r0, r0, r9, asr r0
     fe4:	00000000 	andeq	r0, r0, r0
     fe8:	00000400 	andeq	r0, r0, r0, lsl #8
     fec:	00000000 	andeq	r0, r0, r0
     ff0:	0003ac00 	andeq	sl, r3, r0, lsl #24
     ff4:	0003d000 	andeq	sp, r3, r0
     ff8:	52000100 	andpl	r0, r0, #0
     ffc:	000003d0 	ldrdeq	r0, [r0], -r0	; <UNPREDICTABLE>
    1000:	00000920 	andeq	r0, r0, r0, lsr #18
    1004:	01f30004 	mvnseq	r0, r4
    1008:	09209f52 	stmdbeq	r0!, {r1, r4, r6, r8, r9, sl, fp, ip, pc}
    100c:	09280000 	stmdbeq	r8!, {}	; <UNPREDICTABLE>
    1010:	00010000 	andeq	r0, r1, r0
    1014:	00092852 	andeq	r2, r9, r2, asr r8
    1018:	0009b400 	andeq	fp, r9, r0, lsl #8
    101c:	f3000400 	vshl.u8	d0, d0, d0
    1020:	009f5201 	addseq	r5, pc, r1, lsl #4
	...
    102c:	00000101 	andeq	r0, r0, r1, lsl #2
    1030:	01000000 	mrseq	r0, (UNDEF: 0)
    1034:	e0000000 	and	r0, r0, r0
    1038:	e0000004 	and	r0, r0, r4
    103c:	01000004 	tsteq	r0, r4
    1040:	04e05000 	strbteq	r5, [r0], #0
    1044:	04e80000 	strbteq	r0, [r8], #0
    1048:	00010000 	andeq	r0, r1, r0
    104c:	0005b855 	andeq	fp, r5, r5, asr r8
    1050:	0005d000 	andeq	sp, r5, r0
    1054:	55000100 	strpl	r0, [r0, #-256]	; 0xffffff00
    1058:	000005f0 	strdeq	r0, [r0], -r0	; <UNPREDICTABLE>
    105c:	000005f4 	strdeq	r0, [r0], -r4
    1060:	f4500001 			; <UNDEFINED> instruction: 0xf4500001
    1064:	f8000007 			; <UNDEFINED> instruction: 0xf8000007
    1068:	01000007 	tsteq	r0, r7
    106c:	08505500 	ldmdaeq	r0, {r8, sl, ip, lr}^
    1070:	08880000 	stmeq	r8, {}	; <UNPREDICTABLE>
    1074:	00010000 	andeq	r0, r1, r0
    1078:	00000055 	andeq	r0, r0, r5, asr r0
    107c:	00000000 	andeq	r0, r0, r0
    1080:	00000200 	andeq	r0, r0, r0, lsl #4
    1084:	00000000 	andeq	r0, r0, r0
    1088:	00041400 	andeq	r1, r4, r0, lsl #8
    108c:	00041800 	andeq	r1, r4, r0, lsl #16
    1090:	30000200 	andcc	r0, r0, r0, lsl #4
    1094:	0004189f 	muleq	r4, pc, r8	; <UNPREDICTABLE>
    1098:	00041c00 	andeq	r1, r4, r0, lsl #24
    109c:	55000100 	strpl	r0, [r0, #-256]	; 0xffffff00
    10a0:	00000428 	andeq	r0, r0, r8, lsr #8
    10a4:	0000043c 	andeq	r0, r0, ip, lsr r4
    10a8:	28550001 	ldmdacs	r5, {r0}^
    10ac:	30000009 	andcc	r0, r0, r9
    10b0:	01000009 	tsteq	r0, r9
    10b4:	00005500 	andeq	r5, r0, r0, lsl #10
    10b8:	00000000 	andeq	r0, r0, r0
    10bc:	00010000 	andeq	r0, r1, r0
	...
    10c8:	05040000 	streq	r0, [r4, #-0]
    10cc:	05840000 	streq	r0, [r4]
    10d0:	00010000 	andeq	r0, r1, r0
    10d4:	00058456 	andeq	r8, r5, r6, asr r4
    10d8:	00058800 	andeq	r8, r5, r0, lsl #16
    10dc:	73000300 	movwvc	r0, #768	; 0x300
    10e0:	05889f7e 	streq	r9, [r8, #3966]	; 0xf7e
    10e4:	05d00000 	ldrbeq	r0, [r0]
    10e8:	00070000 	andeq	r0, r7, r0
    10ec:	067dcc91 			; <UNDEFINED> instruction: 0x067dcc91
    10f0:	009f1c32 	addseq	r1, pc, r2, lsr ip	; <UNPREDICTABLE>
    10f4:	1c000008 	stcne	0, cr0, [r0], {8}
    10f8:	01000008 	tsteq	r0, r8
    10fc:	081c5600 	ldmdaeq	ip, {r9, sl, ip, lr}
    1100:	08880000 	stmeq	r8, {}	; <UNPREDICTABLE>
    1104:	00070000 	andeq	r0, r7, r0
    1108:	067dcc91 			; <UNDEFINED> instruction: 0x067dcc91
    110c:	489f1c32 	ldmmi	pc, {r1, r4, r5, sl, fp, ip}	; <UNPREDICTABLE>
    1110:	b4000009 	strlt	r0, [r0], #-9
    1114:	01000009 	tsteq	r0, r9
    1118:	00005600 	andeq	r5, r0, r0, lsl #12
    111c:	00000000 	andeq	r0, r0, r0
    1120:	06040000 	streq	r0, [r4], -r0
    1124:	04140402 	ldreq	r0, [r4], #-1026	; 0xfffffbfe
    1128:	04140000 	ldreq	r0, [r4], #-0
    112c:	00060000 	andeq	r0, r6, r0
    1130:	ff080072 			; <UNDEFINED> instruction: 0xff080072
    1134:	04289f1a 	strteq	r9, [r8], #-3866	; 0xfffff0e6
    1138:	04280000 	strteq	r0, [r8], #-0
    113c:	00060000 	andeq	r0, r6, r0
    1140:	ff080072 			; <UNDEFINED> instruction: 0xff080072
    1144:	00009f1a 	andeq	r9, r0, sl, lsl pc
    1148:	00000000 	andeq	r0, r0, r0
    114c:	00020000 	andeq	r0, r2, r0
    1150:	00000000 	andeq	r0, r0, r0
    1154:	000005fc 	strdeq	r0, [r0], -ip
    1158:	00000700 	andeq	r0, r0, r0, lsl #14
    115c:	80080003 	andhi	r0, r8, r3
    1160:	0008a89f 	muleq	r8, pc, r8	; <UNPREDICTABLE>
    1164:	0008bc00 	andeq	fp, r8, r0, lsl #24
    1168:	08000300 	stmdaeq	r0, {r8, r9}
    116c:	09109f80 	ldmdbeq	r0, {r7, r8, r9, sl, fp, ip, pc}
    1170:	09200000 	stmdbeq	r0!, {}	; <UNPREDICTABLE>
    1174:	00030000 	andeq	r0, r3, r0
    1178:	009f8008 	addseq	r8, pc, r8
    117c:	00000000 	andeq	r0, r0, r0
    1180:	01000000 	mrseq	r0, (UNDEF: 0)
    1184:	00000000 	andeq	r0, r0, r0
    1188:	0005fc00 	andeq	pc, r5, r0, lsl #24
    118c:	00070000 	andeq	r0, r7, r0
    1190:	30000200 	andcc	r0, r0, r0, lsl #4
    1194:	0008a89f 	muleq	r8, pc, r8	; <UNPREDICTABLE>
    1198:	0008bc00 	andeq	fp, r8, r0, lsl #24
    119c:	30000200 	andcc	r0, r0, r0, lsl #4
    11a0:	0009109f 	muleq	r9, pc, r0	; <UNPREDICTABLE>
    11a4:	00092000 	andeq	r2, r9, r0
    11a8:	30000200 	andcc	r0, r0, r0, lsl #4
    11ac:	0000009f 	muleq	r0, pc, r0	; <UNPREDICTABLE>
    11b0:	00000000 	andeq	r0, r0, r0
    11b4:	00000100 	andeq	r0, r0, r0, lsl #2
    11b8:	fc000000 	stc2	0, cr0, [r0], {-0}
    11bc:	e0000005 	and	r0, r0, r5
    11c0:	01000006 	tsteq	r0, r6
    11c4:	08a85500 	stmiaeq	r8!, {r8, sl, ip, lr}
    11c8:	08bc0000 	ldmeq	ip!, {}	; <UNPREDICTABLE>
    11cc:	00010000 	andeq	r0, r1, r0
    11d0:	00091055 	andeq	r1, r9, r5, asr r0
    11d4:	00092000 	andeq	r2, r9, r0
    11d8:	55000100 	strpl	r0, [r0, #-256]	; 0xffffff00
	...
    11e4:	00000001 	andeq	r0, r0, r1
    11e8:	00000000 	andeq	r0, r0, r0
    11ec:	000005fc 	strdeq	r0, [r0], -ip
    11f0:	000006e0 	andeq	r0, r0, r0, ror #13
    11f4:	d0910004 	addsle	r0, r1, r4
    11f8:	06e09f7d 			; <UNDEFINED> instruction: 0x06e09f7d
    11fc:	07000000 	streq	r0, [r0, -r0]
    1200:	00010000 	andeq	r0, r1, r0
    1204:	0008a855 	andeq	sl, r8, r5, asr r8
    1208:	0008bc00 	andeq	fp, r8, r0, lsl #24
    120c:	91000400 	tstls	r0, r0, lsl #8
    1210:	109f7dd0 			; <UNDEFINED> instruction: 0x109f7dd0
    1214:	20000009 	andcs	r0, r0, r9
    1218:	04000009 	streq	r0, [r0], #-9
    121c:	7dd09100 	ldfvcp	f1, [r0]
    1220:	0000009f 	muleq	r0, pc, r0	; <UNPREDICTABLE>
    1224:	00000000 	andeq	r0, r0, r0
    1228:	00000100 	andeq	r0, r0, r0, lsl #2
    122c:	fc000000 	stc2	0, cr0, [r0], {-0}
    1230:	00000005 	andeq	r0, r0, r5
    1234:	02000007 	andeq	r0, r0, #7, 0
    1238:	a89f3800 	ldmge	pc, {fp, ip, sp}	; <UNPREDICTABLE>
    123c:	bc000008 	stclt	0, cr0, [r0], {8}
    1240:	02000008 	andeq	r0, r0, #8, 0
    1244:	109f3800 	addsne	r3, pc, r0, lsl #16
    1248:	20000009 	andcs	r0, r0, r9
    124c:	02000009 	andeq	r0, r0, #9, 0
    1250:	009f3800 	addseq	r3, pc, r0, lsl #16
    1254:	00000000 	andeq	r0, r0, r0
    1258:	04000000 	streq	r0, [r0], #-0
    125c:	00000707 	andeq	r0, r0, r7, lsl #14
	...
    1268:	0005fc00 	andeq	pc, r5, r0, lsl #24
    126c:	0005fc00 	andeq	pc, r5, r0, lsl #24
    1270:	91000400 	tstls	r0, r0, lsl #8
    1274:	fc9f7ed0 	ldc2	14, cr7, [pc], {208}	; 0xd0
    1278:	78000005 	stmdavc	r0, {r0, r2}
    127c:	04000006 	streq	r0, [r0], #-6
    1280:	7ed19100 	atnvcs	f1, f0
    1284:	0006789f 	muleq	r6, pc, r8	; <UNPREDICTABLE>
    1288:	0006d400 	andeq	sp, r6, r0, lsl #8
    128c:	5c000100 	stfpls	f0, [r0], {-0}
    1290:	000006d4 	ldrdeq	r0, [r0], -r4
    1294:	00000700 	andeq	r0, r0, r0, lsl #14
    1298:	d1910004 	orrsle	r0, r1, r4
    129c:	08a89f7e 	stmiaeq	r8!, {r1, r2, r3, r4, r5, r6, r8, r9, sl, fp, ip, pc}
    12a0:	08bc0000 	ldmeq	ip!, {}	; <UNPREDICTABLE>
    12a4:	00040000 	andeq	r0, r4, r0
    12a8:	9f7ed191 	svcls	0x007ed191
    12ac:	00000910 	andeq	r0, r0, r0, lsl r9
    12b0:	00000914 	andeq	r0, r0, r4, lsl r9
    12b4:	d1910004 	orrsle	r0, r1, r4
    12b8:	09149f7e 	ldmdbeq	r4, {r1, r2, r3, r4, r5, r6, r8, r9, sl, fp, ip, pc}
    12bc:	09200000 	stmdbeq	r0!, {}	; <UNPREDICTABLE>
    12c0:	00010000 	andeq	r0, r1, r0
    12c4:	0000005c 	andeq	r0, r0, ip, asr r0
    12c8:	00000000 	andeq	r0, r0, r0
    12cc:	00010400 	andeq	r0, r1, r0, lsl #8
    12d0:	08000001 	stmdaeq	r0, {r0}
    12d4:	d0000006 	andle	r0, r0, r6
    12d8:	01000006 	tsteq	r0, r6
    12dc:	08a85500 	stmiaeq	r8!, {r8, sl, ip, lr}
    12e0:	08b80000 	ldmeq	r8!, {}	; <UNPREDICTABLE>
    12e4:	00010000 	andeq	r0, r1, r0
    12e8:	00091055 	andeq	r1, r9, r5, asr r0
    12ec:	00092000 	andeq	r2, r9, r0
    12f0:	55000100 	strpl	r0, [r0, #-256]	; 0xffffff00
	...
    12fc:	00000004 	andeq	r0, r0, r4
    1300:	00000100 	andeq	r0, r0, r0, lsl #2
    1304:	00000100 	andeq	r0, r0, r0, lsl #2
    1308:	00000608 	andeq	r0, r0, r8, lsl #12
    130c:	000006b0 			; <UNDEFINED> instruction: 0x000006b0
    1310:	d0910004 	addsle	r0, r1, r4
    1314:	06b09f7e 			; <UNDEFINED> instruction: 0x06b09f7e
    1318:	06c80000 	strbeq	r0, [r8], r0
    131c:	00010000 	andeq	r0, r1, r0
    1320:	0006c850 	andeq	ip, r6, r0, asr r8
    1324:	0006d000 	andeq	sp, r6, r0
    1328:	91000400 	tstls	r0, r0, lsl #8
    132c:	a89f7ed0 	ldmge	pc, {r4, r6, r7, r9, sl, fp, ip, sp, lr}	; <UNPREDICTABLE>
    1330:	b0000008 	andlt	r0, r0, r8
    1334:	04000008 	streq	r0, [r0], #-8
    1338:	7ed09100 	atnvcs	f1, f0
    133c:	0008b09f 	muleq	r8, pc, r0	; <UNPREDICTABLE>
    1340:	0008b800 	andeq	fp, r8, r0, lsl #16
    1344:	53000100 	movwpl	r0, #256	; 0x100
    1348:	00000910 	andeq	r0, r0, r0, lsl r9
    134c:	00000920 	andeq	r0, r0, r0, lsr #18
    1350:	d0910004 	addsle	r0, r1, r4
    1354:	00009f7e 	andeq	r9, r0, lr, ror pc
    1358:	00000000 	andeq	r0, r0, r0
    135c:	00040000 	andeq	r0, r4, r0
    1360:	01010100 	mrseq	r0, (UNDEF: 17)
    1364:	02030301 	andeq	r0, r3, #67108864	; 0x4000000
    1368:	00000100 	andeq	r0, r0, r0, lsl #2
    136c:	06080000 	streq	r0, [r8], -r0
    1370:	06240000 	strteq	r0, [r4], -r0
    1374:	00040000 	andeq	r0, r4, r0
    1378:	9f7ed191 	svcls	0x007ed191
    137c:	00000684 	andeq	r0, r0, r4, lsl #13
    1380:	00000684 	andeq	r0, r0, r4, lsl #13
    1384:	84500001 	ldrbhi	r0, [r0], #-1
    1388:	98000006 	stmdals	r0, {r1, r2}
    138c:	03000006 	movweq	r0, #6
    1390:	9f017000 	svcls	0x00017000
    1394:	00000698 	muleq	r0, r8, r6
    1398:	000006a4 	andeq	r0, r0, r4, lsr #13
    139c:	02700003 	rsbseq	r0, r0, #3, 0
    13a0:	0006a49f 	muleq	r6, pc, r4	; <UNPREDICTABLE>
    13a4:	0006a800 	andeq	sl, r6, r0, lsl #16
    13a8:	70000300 	andvc	r0, r0, r0, lsl #6
    13ac:	08a89f03 	stmiaeq	r8!, {r0, r1, r8, r9, sl, fp, ip, pc}
    13b0:	08b80000 	ldmeq	r8!, {}	; <UNPREDICTABLE>
    13b4:	00040000 	andeq	r0, r4, r0
    13b8:	9f7ed191 	svcls	0x007ed191
    13bc:	00000910 	andeq	r0, r0, r0, lsl r9
    13c0:	00000914 	andeq	r0, r0, r4, lsl r9
    13c4:	d1910004 	orrsle	r0, r1, r4
    13c8:	09149f7e 	ldmdbeq	r4, {r1, r2, r3, r4, r5, r6, r8, r9, sl, fp, ip, pc}
    13cc:	09200000 	stmdbeq	r0!, {}	; <UNPREDICTABLE>
    13d0:	00010000 	andeq	r0, r1, r0
    13d4:	0000005c 	andeq	r0, r0, ip, asr r0
    13d8:	00000000 	andeq	r0, r0, r0
    13dc:	00000600 	andeq	r0, r0, r0, lsl #12
    13e0:	01010101 	tsteq	r1, r1, lsl #2
    13e4:	00020101 	andeq	r0, r2, r1, lsl #2
    13e8:	08000001 	stmdaeq	r0, {r0}
    13ec:	24000006 	strcs	r0, [r0], #-6
    13f0:	02000006 	andeq	r0, r0, #6, 0
    13f4:	849f3100 	ldrhi	r3, [pc], #256	; 13fc <__code_start__-0x6c04>
    13f8:	94000006 	strls	r0, [r0], #-6
    13fc:	01000006 	tsteq	r0, r6
    1400:	06945200 	ldreq	r5, [r4], r0, lsl #4
    1404:	06a40000 	strteq	r0, [r4], r0
    1408:	00010000 	andeq	r0, r1, r0
    140c:	0006a459 	andeq	sl, r6, r9, asr r4
    1410:	0006a800 	andeq	sl, r6, r0, lsl #16
    1414:	52000100 	andpl	r0, r0, #0
    1418:	000006a8 	andeq	r0, r0, r8, lsr #13
    141c:	000006a8 	andeq	r0, r0, r8, lsr #13
    1420:	01720003 	cmneq	r2, r3
    1424:	0008a89f 	muleq	r8, pc, r8	; <UNPREDICTABLE>
    1428:	0008b800 	andeq	fp, r8, r0, lsl #16
    142c:	31000200 	mrscc	r0, R8_usr
    1430:	0009109f 	muleq	r9, pc, r0	; <UNPREDICTABLE>
    1434:	00092000 	andeq	r2, r9, r0
    1438:	31000200 	mrscc	r0, R8_usr
    143c:	0000009f 	muleq	r0, pc, r0	; <UNPREDICTABLE>
    1440:	00000000 	andeq	r0, r0, r0
    1444:	06060100 	streq	r0, [r6], -r0, lsl #2
    1448:	d0000100 	andle	r0, r0, r0, lsl #2
    144c:	d0000006 	andle	r0, r0, r6
    1450:	04000006 	streq	r0, [r0], #-6
    1454:	7ed09100 	atnvcs	f1, f0
    1458:	0006d09f 	muleq	r6, pc, r0	; <UNPREDICTABLE>
    145c:	00070000 	andeq	r0, r7, r0
    1460:	50000100 	andpl	r0, r0, r0, lsl #2
    1464:	000008b8 			; <UNDEFINED> instruction: 0x000008b8
    1468:	000008bc 			; <UNDEFINED> instruction: 0x000008bc
    146c:	00530001 	subseq	r0, r3, r1
    1470:	00000000 	andeq	r0, r0, r0
    1474:	01000000 	mrseq	r0, (UNDEF: 0)
    1478:	00000008 	andeq	r0, r0, r8
    147c:	01000101 	tsteq	r0, r1, lsl #2
    1480:	0006d007 	andeq	sp, r6, r7
    1484:	0006d000 	andeq	sp, r6, r0
    1488:	7c000600 	stcvc	6, cr0, [r0], {-0}
    148c:	22007100 	andcs	r7, r0, #0
    1490:	0006e49f 	muleq	r6, pc, r4	; <UNPREDICTABLE>
    1494:	0006e800 	andeq	lr, r6, r0, lsl #16
    1498:	73000300 	movwvc	r0, #768	; 0x300
    149c:	06e89f7f 			; <UNDEFINED> instruction: 0x06e89f7f
    14a0:	06f00000 	ldrbteq	r0, [r0], r0
    14a4:	00010000 	andeq	r0, r1, r0
    14a8:	0006f053 	andeq	pc, r6, r3, asr r0	; <UNPREDICTABLE>
    14ac:	0006f800 	andeq	pc, r6, r0, lsl #16
    14b0:	73000300 	movwvc	r0, #768	; 0x300
    14b4:	08b89f7f 	ldmeq	r8!, {r0, r1, r2, r3, r4, r5, r6, r8, r9, sl, fp, ip, pc}
    14b8:	08b80000 	ldmeq	r8!, {}	; <UNPREDICTABLE>
    14bc:	00040000 	andeq	r0, r4, r0
    14c0:	9f7ed191 	svcls	0x007ed191
	...
    14cc:	00010001 	andeq	r0, r1, r1
    14d0:	000006d0 	ldrdeq	r0, [r0], -r0	; <UNPREDICTABLE>
    14d4:	00000700 	andeq	r0, r0, r0, lsl #14
    14d8:	80080003 	andhi	r0, r8, r3
    14dc:	0008b89f 	muleq	r8, pc, r8	; <UNPREDICTABLE>
    14e0:	0008bc00 	andeq	fp, r8, r0, lsl #24
    14e4:	08000300 	stmdaeq	r0, {r8, r9}
    14e8:	00009f80 	andeq	r9, r0, r0, lsl #31
    14ec:	00000000 	andeq	r0, r0, r0
    14f0:	00010000 	andeq	r0, r1, r0
    14f4:	01000000 	mrseq	r0, (UNDEF: 0)
    14f8:	00000001 	andeq	r0, r0, r1
    14fc:	00010102 	andeq	r0, r1, r2, lsl #2
    1500:	000006d0 	ldrdeq	r0, [r0], -r0	; <UNPREDICTABLE>
    1504:	000006e0 	andeq	r0, r0, r0, ror #13
    1508:	d0910004 	addsle	r0, r1, r4
    150c:	06e09f7d 			; <UNDEFINED> instruction: 0x06e09f7d
    1510:	06e40000 	strbteq	r0, [r4], r0
    1514:	00010000 	andeq	r0, r1, r0
    1518:	0006e455 	andeq	lr, r6, r5, asr r4
    151c:	0006e400 	andeq	lr, r6, r0, lsl #8
    1520:	72000300 	andvc	r0, r0, #0, 6
    1524:	06e49f01 	strbteq	r9, [r4], r1, lsl #30
    1528:	06f00000 	ldrbteq	r0, [r0], r0
    152c:	00030000 	andeq	r0, r3, r0
    1530:	f09f0272 			; <UNDEFINED> instruction: 0xf09f0272
    1534:	00000006 	andeq	r0, r0, r6
    1538:	03000007 	movweq	r0, #7
    153c:	9f017200 	svcls	0x00017200
    1540:	000007ec 	andeq	r0, r0, ip, ror #15
    1544:	000007f4 	strdeq	r0, [r0], -r4
    1548:	01730003 	cmneq	r3, r3
    154c:	0008b89f 	muleq	r8, pc, r8	; <UNPREDICTABLE>
    1550:	0008bc00 	andeq	fp, r8, r0, lsl #24
    1554:	91000400 	tstls	r0, r0, lsl #8
    1558:	009f7dd0 			; <UNDEFINED> instruction: 0x009f7dd0
    155c:	00000000 	andeq	r0, r0, r0
    1560:	04000000 	streq	r0, [r0], #-0
    1564:	0008b800 	andeq	fp, r8, r0, lsl #16
    1568:	0008bc00 	andeq	fp, r8, r0, lsl #24
    156c:	32000200 	andcc	r0, r0, #0, 4
    1570:	0000009f 	muleq	r0, pc, r0	; <UNPREDICTABLE>
    1574:	00000000 	andeq	r0, r0, r0
    1578:	00000700 	andeq	r0, r0, r0, lsl #14
    157c:	d0000600 	andle	r0, r0, r0, lsl #12
    1580:	e0000006 	and	r0, r0, r6
    1584:	04000006 	streq	r0, [r0], #-6
    1588:	7dd09100 	ldfvcp	f1, [r0]
    158c:	0006e09f 	muleq	r6, pc, r0	; <UNPREDICTABLE>
    1590:	00070000 	andeq	r0, r7, r0
    1594:	55000100 	strpl	r0, [r0, #-256]	; 0xffffff00
    1598:	000008b8 			; <UNDEFINED> instruction: 0x000008b8
    159c:	000008bc 			; <UNDEFINED> instruction: 0x000008bc
    15a0:	d0910004 	addsle	r0, r1, r4
    15a4:	00009f7d 	andeq	r9, r0, sp, ror pc
    15a8:	00000000 	andeq	r0, r0, r0
    15ac:	00010000 	andeq	r0, r1, r0
    15b0:	070c0000 	streq	r0, [ip, -r0]
    15b4:	07ec0000 	strbeq	r0, [ip, r0]!
    15b8:	00030000 	andeq	r0, r3, r0
    15bc:	949f8008 	ldrls	r8, [pc], #8	; 15c4 <__code_start__-0x6a3c>
    15c0:	a8000008 	stmdage	r0, {r3}
    15c4:	03000008 	movweq	r0, #8
    15c8:	9f800800 	svcls	0x00800800
	...
    15d8:	0000070c 	andeq	r0, r0, ip, lsl #14
    15dc:	000007ec 	andeq	r0, r0, ip, ror #15
    15e0:	9f300002 	svcls	0x00300002
    15e4:	00000894 	muleq	r0, r4, r8
    15e8:	000008a8 	andeq	r0, r0, r8, lsr #17
    15ec:	9f300002 	svcls	0x00300002
	...
    15fc:	0000070c 	andeq	r0, r0, ip, lsl #14
    1600:	000007d0 	ldrdeq	r0, [r0], -r0	; <UNPREDICTABLE>
    1604:	94550001 	ldrbls	r0, [r5], #-1
    1608:	a8000008 	stmdage	r0, {r3}
    160c:	01000008 	tsteq	r0, r8
    1610:	00005500 	andeq	r5, r0, r0, lsl #10
	...
    1620:	0000070c 	andeq	r0, r0, ip, lsl #14
    1624:	000007d0 	ldrdeq	r0, [r0], -r0	; <UNPREDICTABLE>
    1628:	d0910004 	addsle	r0, r1, r4
    162c:	07d09f7d 			; <UNDEFINED> instruction: 0x07d09f7d
    1630:	07ec0000 	strbeq	r0, [ip, r0]!
    1634:	00010000 	andeq	r0, r1, r0
    1638:	00089455 	andeq	r9, r8, r5, asr r4
    163c:	0008a800 	andeq	sl, r8, r0, lsl #16
    1640:	91000400 	tstls	r0, r0, lsl #8
    1644:	009f7dd0 			; <UNDEFINED> instruction: 0x009f7dd0
	...
    1650:	0c000000 	stceq	0, cr0, [r0], {-0}
    1654:	ec000007 	stc	0, cr0, [r0], {7}
    1658:	02000007 	andeq	r0, r0, #7, 0
    165c:	949f3200 	ldrls	r3, [pc], #512	; 1664 <__code_start__-0x699c>
    1660:	a8000008 	stmdage	r0, {r3}
    1664:	02000008 	andeq	r0, r0, #8, 0
    1668:	009f3200 	addseq	r3, pc, r0, lsl #4
    166c:	00000000 	andeq	r0, r0, r0
    1670:	03000000 	movweq	r0, #0
    1674:	00000505 	andeq	r0, r0, r5, lsl #10
    1678:	00000000 	andeq	r0, r0, r0
    167c:	00070c00 	andeq	r0, r7, r0, lsl #24
    1680:	00070c00 	andeq	r0, r7, r0, lsl #24
    1684:	51000100 	mrspl	r0, (UNDEF: 16)
    1688:	0000070c 	andeq	r0, r0, ip, lsl #14
    168c:	0000071c 	andeq	r0, r0, ip, lsl r7
    1690:	1c530001 	mrrcne	0, 0, r0, r3, cr1
    1694:	24000007 	strcs	r0, [r0], #-7
    1698:	03000007 	movweq	r0, #7
    169c:	9f017200 	svcls	0x00017200
    16a0:	00000724 	andeq	r0, r0, r4, lsr #14
    16a4:	000007cc 	andeq	r0, r0, ip, asr #15
    16a8:	94530001 	ldrbls	r0, [r3], #-1
    16ac:	a8000008 	stmdage	r0, {r3}
    16b0:	01000008 	tsteq	r0, r8
    16b4:	00005300 	andeq	r5, r0, r0, lsl #6
    16b8:	00000000 	andeq	r0, r0, r0
    16bc:	00050000 	andeq	r0, r5, r0
    16c0:	070c0001 	streq	r0, [ip, -r1]
    16c4:	07200000 	streq	r0, [r0, -r0]!
    16c8:	00010000 	andeq	r0, r1, r0
    16cc:	00072450 	andeq	r2, r7, r0, asr r4
    16d0:	00072c00 	andeq	r2, r7, r0, lsl #24
    16d4:	50000100 	andpl	r0, r0, r0, lsl #2
	...
    16e0:	01000103 	tsteq	r0, r3, lsl #2
    16e4:	00000728 	andeq	r0, r0, r8, lsr #14
    16e8:	000007b0 			; <UNDEFINED> instruction: 0x000007b0
    16ec:	94550001 	ldrbls	r0, [r5], #-1
    16f0:	a0000008 	andge	r0, r0, r8
    16f4:	01000008 	tsteq	r0, r8
    16f8:	00005500 	andeq	r5, r0, r0, lsl #10
    16fc:	00000000 	andeq	r0, r0, r0
    1700:	01030000 	mrseq	r0, (UNDEF: 3)
    1704:	07280100 	streq	r0, [r8, -r0, lsl #2]!
    1708:	07b00000 	ldreq	r0, [r0, r0]!
    170c:	00010000 	andeq	r0, r1, r0
    1710:	00089451 	andeq	r9, r8, r1, asr r4
    1714:	0008a000 	andeq	sl, r8, r0
    1718:	51000100 	mrspl	r0, (UNDEF: 16)
	...
    1724:	01000003 	tsteq	r0, r3
    1728:	03010101 	movweq	r0, #4353	; 0x1101
    172c:	01000203 	tsteq	r0, r3, lsl #4
    1730:	00000728 	andeq	r0, r0, r8, lsr #14
    1734:	00000750 	andeq	r0, r0, r0, asr r7
    1738:	74530001 	ldrbvc	r0, [r3], #-1
    173c:	74000007 	strvc	r0, [r0], #-7
    1740:	01000007 	tsteq	r0, r7
    1744:	07745e00 	ldrbeq	r5, [r4, -r0, lsl #28]!
    1748:	07880000 	streq	r0, [r8, r0]
    174c:	00030000 	andeq	r0, r3, r0
    1750:	889f017e 	ldmhi	pc, {r1, r2, r3, r4, r5, r6, r8}	; <UNPREDICTABLE>
    1754:	94000007 	strls	r0, [r0], #-7
    1758:	03000007 	movweq	r0, #7
    175c:	9f027e00 	svcls	0x00027e00
    1760:	00000794 	muleq	r0, r4, r7
    1764:	00000798 	muleq	r0, r8, r7
    1768:	037e0003 	cmneq	lr, #3, 0
    176c:	0008949f 	muleq	r8, pc, r4	; <UNPREDICTABLE>
    1770:	0008a000 	andeq	sl, r8, r0
    1774:	53000100 	movwpl	r0, #256	; 0x100
	...
    1780:	01000000 	mrseq	r0, (UNDEF: 0)
    1784:	01010101 	tsteq	r1, r1, lsl #2
    1788:	01000201 	tsteq	r0, r1, lsl #4
    178c:	0000072c 	andeq	r0, r0, ip, lsr #14
    1790:	00000750 	andeq	r0, r0, r0, asr r7
    1794:	74500001 	ldrbvc	r0, [r0], #-1
    1798:	84000007 	strhi	r0, [r0], #-7
    179c:	01000007 	tsteq	r0, r7
    17a0:	07845000 	streq	r5, [r4, r0]
    17a4:	07940000 	ldreq	r0, [r4, r0]
    17a8:	00010000 	andeq	r0, r1, r0
    17ac:	0007945b 	andeq	r9, r7, fp, asr r4
    17b0:	00079800 	andeq	r9, r7, r0, lsl #16
    17b4:	50000100 	andpl	r0, r0, r0, lsl #2
    17b8:	00000798 	muleq	r0, r8, r7
    17bc:	00000798 	muleq	r0, r8, r7
    17c0:	01700003 	cmneq	r0, r3
    17c4:	0008949f 	muleq	r8, pc, r4	; <UNPREDICTABLE>
    17c8:	0008a000 	andeq	sl, r8, r0
    17cc:	50000100 	andpl	r0, r0, r0, lsl #2
	...
    17d8:	00010001 	andeq	r0, r1, r1
    17dc:	000007b0 			; <UNDEFINED> instruction: 0x000007b0
    17e0:	000007ec 	andeq	r0, r0, ip, ror #15
    17e4:	a0510001 	subsge	r0, r1, r1
    17e8:	a8000008 	stmdage	r0, {r3}
    17ec:	01000008 	tsteq	r0, r8
    17f0:	00005100 	andeq	r5, r0, r0, lsl #2
    17f4:	00000000 	andeq	r0, r0, r0
    17f8:	00010000 	andeq	r0, r1, r0
    17fc:	01000000 	mrseq	r0, (UNDEF: 0)
    1800:	00010001 	andeq	r0, r1, r1
    1804:	000007b0 			; <UNDEFINED> instruction: 0x000007b0
    1808:	000007b4 			; <UNDEFINED> instruction: 0x000007b4
    180c:	00730006 	rsbseq	r0, r3, r6
    1810:	9f22007c 	svcls	0x0022007c
    1814:	000007d4 	ldrdeq	r0, [r0], -r4
    1818:	000007d8 	ldrdeq	r0, [r0], -r8
    181c:	7f730003 	svcvc	0x00730003
    1820:	0007d89f 	muleq	r7, pc, r8	; <UNPREDICTABLE>
    1824:	0007e000 	andeq	lr, r7, r0
    1828:	53000100 	movwpl	r0, #256	; 0x100
    182c:	000007e0 	andeq	r0, r0, r0, ror #15
    1830:	000007e8 	andeq	r0, r0, r8, ror #15
    1834:	7f730003 	svcvc	0x00730003
    1838:	0008a09f 	muleq	r8, pc, r0	; <UNPREDICTABLE>
    183c:	0008a800 	andeq	sl, r8, r0, lsl #16
    1840:	53000100 	movwpl	r0, #256	; 0x100
	...
    184c:	00010001 	andeq	r0, r1, r1
    1850:	000007b0 			; <UNDEFINED> instruction: 0x000007b0
    1854:	000007ec 	andeq	r0, r0, ip, ror #15
    1858:	80080003 	andhi	r0, r8, r3
    185c:	0008a09f 	muleq	r8, pc, r0	; <UNPREDICTABLE>
    1860:	0008a800 	andeq	sl, r8, r0, lsl #16
    1864:	08000300 	stmdaeq	r0, {r8, r9}
    1868:	00009f80 	andeq	r9, r0, r0, lsl #31
    186c:	00000000 	andeq	r0, r0, r0
    1870:	00010000 	andeq	r0, r1, r0
    1874:	01000000 	mrseq	r0, (UNDEF: 0)
    1878:	00000001 	andeq	r0, r0, r1
    187c:	07b00001 	ldreq	r0, [r0, r1]!
    1880:	07d00000 	ldrbeq	r0, [r0, r0]
    1884:	00040000 	andeq	r0, r4, r0
    1888:	9f7dd091 	svcls	0x007dd091
    188c:	000007d0 	ldrdeq	r0, [r0], -r0	; <UNPREDICTABLE>
    1890:	000007d4 	ldrdeq	r0, [r0], -r4
    1894:	d4550001 	ldrble	r0, [r5], #-1
    1898:	d4000007 	strle	r0, [r0], #-7
    189c:	03000007 	movweq	r0, #7
    18a0:	9f017c00 	svcls	0x00017c00
    18a4:	000007d4 	ldrdeq	r0, [r0], -r4
    18a8:	000007e0 	andeq	r0, r0, r0, ror #15
    18ac:	027c0003 	rsbseq	r0, ip, #3, 0
    18b0:	0007e09f 	muleq	r7, pc, r0	; <UNPREDICTABLE>
    18b4:	0007ec00 	andeq	lr, r7, r0, lsl #24
    18b8:	7c000300 	stcvc	3, cr0, [r0], {-0}
    18bc:	08a09f01 	stmiaeq	r0!, {r0, r8, r9, sl, fp, ip, pc}
    18c0:	08a80000 	stmiaeq	r8!, {}	; <UNPREDICTABLE>
    18c4:	00040000 	andeq	r0, r4, r0
    18c8:	9f7dd091 	svcls	0x007dd091
	...
    18d4:	00040004 	andeq	r0, r4, r4
    18d8:	000007b0 			; <UNDEFINED> instruction: 0x000007b0
    18dc:	000007b4 			; <UNDEFINED> instruction: 0x000007b4
    18e0:	01700003 	cmneq	r0, r3
    18e4:	0008a09f 	muleq	r8, pc, r0	; <UNPREDICTABLE>
    18e8:	0008a800 	andeq	sl, r8, r0, lsl #16
    18ec:	70000300 	andvc	r0, r0, r0, lsl #6
    18f0:	00009f01 	andeq	r9, r0, r1, lsl #30
    18f4:	00000000 	andeq	r0, r0, r0
    18f8:	00010000 	andeq	r0, r1, r0
    18fc:	07bc0000 	ldreq	r0, [ip, r0]!
    1900:	07d00000 	ldrbeq	r0, [r0, r0]
    1904:	00040000 	andeq	r0, r4, r0
    1908:	9f7dd091 	svcls	0x007dd091
    190c:	000007d0 	ldrdeq	r0, [r0], -r0	; <UNPREDICTABLE>
    1910:	000007ec 	andeq	r0, r0, ip, ror #15
    1914:	00550001 	subseq	r0, r5, r1
	...
    1920:	28000000 	stmdacs	r0, {}	; <UNPREDICTABLE>
    1924:	64000003 	strvs	r0, [r0], #-3
    1928:	01000003 	tsteq	r0, r3
    192c:	03645000 	cmneq	r4, #0, 0
    1930:	03880000 	orreq	r0, r8, #0, 0
    1934:	00040000 	andeq	r0, r4, r0
    1938:	9f5001f3 	svcls	0x005001f3
	...
    1948:	00000328 	andeq	r0, r0, r8, lsr #6
    194c:	0000035c 	andeq	r0, r0, ip, asr r3
    1950:	5c510001 	mrrcpl	0, 0, r0, r1, cr1
    1954:	88000003 	stmdahi	r0, {r0, r1}
    1958:	04000003 	streq	r0, [r0], #-3
    195c:	5101f300 	mrspl	pc, SP_irq	; <UNPREDICTABLE>
    1960:	0000009f 	muleq	r0, pc, r0	; <UNPREDICTABLE>
	...
    1984:	00001400 	andeq	r1, r0, r0, lsl #8
    1988:	50000100 	andpl	r0, r0, r0, lsl #2
    198c:	00000014 	andeq	r0, r0, r4, lsl r0
    1990:	00000020 	andeq	r0, r0, r0, lsr #32
    1994:	205c0001 	subscs	r0, ip, r1
    1998:	68000000 	stmdavs	r0, {}	; <UNPREDICTABLE>
    199c:	03000000 	movweq	r0, #0
    19a0:	9f027100 	svcls	0x00027100
    19a4:	00000068 	andeq	r0, r0, r8, rrx
    19a8:	0000006c 	andeq	r0, r0, ip, rrx
    19ac:	02730003 	rsbseq	r0, r3, #3, 0
    19b0:	00006c9f 	muleq	r0, pc, ip	; <UNPREDICTABLE>
    19b4:	00019400 	andeq	r9, r1, r0, lsl #8
    19b8:	f3000400 	vshl.u8	d0, d0, d0
    19bc:	949f5001 	ldrls	r5, [pc], #1	; 19c4 <__code_start__-0x663c>
    19c0:	98000001 	stmdals	r0, {r0}
    19c4:	03000001 	movweq	r0, #1
    19c8:	9f027300 	svcls	0x00027300
    19cc:	00000198 	muleq	r0, r8, r1
    19d0:	000001c0 	andeq	r0, r0, r0, asr #3
    19d4:	01f30004 	mvnseq	r0, r4
    19d8:	01c09f50 	biceq	r9, r0, r0, asr pc
    19dc:	01c80000 	biceq	r0, r8, r0
    19e0:	00010000 	andeq	r0, r1, r0
    19e4:	0001c85c 	andeq	ip, r1, ip, asr r8
    19e8:	00021400 	andeq	r1, r2, r0, lsl #8
    19ec:	73000300 	movwvc	r0, #768	; 0x300
    19f0:	02149f02 	andseq	r9, r4, #2, 30
    19f4:	02ec0000 	rsceq	r0, ip, #0, 0
    19f8:	00040000 	andeq	r0, r4, r0
    19fc:	9f5001f3 	svcls	0x005001f3
    1a00:	000002ec 	andeq	r0, r0, ip, ror #5
    1a04:	000002f4 	strdeq	r0, [r0], -r4
    1a08:	02730003 	rsbseq	r0, r3, #3, 0
    1a0c:	0002f49f 	muleq	r2, pc, r4	; <UNPREDICTABLE>
    1a10:	00032800 	andeq	r2, r3, r0, lsl #16
    1a14:	f3000400 	vshl.u8	d0, d0, d0
    1a18:	009f5001 	addseq	r5, pc, r1
	...
    1a2c:	1c000000 	stcne	0, cr0, [r0], {-0}
    1a30:	01000000 	mrseq	r0, (UNDEF: 0)
    1a34:	001c5100 	andseq	r5, ip, r0, lsl #2
    1a38:	02e00000 	rsceq	r0, r0, #0, 0
    1a3c:	00010000 	andeq	r0, r1, r0
    1a40:	0002e050 	andeq	lr, r2, r0, asr r0
    1a44:	0002ec00 	andeq	lr, r2, r0, lsl #24
    1a48:	f3000400 	vshl.u8	d0, d0, d0
    1a4c:	ec9f5101 	ldfs	f5, [pc], {1}
    1a50:	28000002 	stmdacs	r0, {r1}
    1a54:	01000003 	tsteq	r0, r3
    1a58:	00005000 	andeq	r5, r0, r0
	...
    1a64:	01000000 	mrseq	r0, (UNDEF: 0)
    1a68:	00000000 	andeq	r0, r0, r0
    1a6c:	02000000 	andeq	r0, r0, #0, 0
    1a70:	00000002 	andeq	r0, r0, r2
	...
    1a84:	00700000 	rsbseq	r0, r0, r0
    1a88:	00010000 	andeq	r0, r1, r0
    1a8c:	00007052 	andeq	r7, r0, r2, asr r0
    1a90:	00007800 	andeq	r7, r0, r0, lsl #16
    1a94:	5c000100 	stfpls	f0, [r0], {-0}
    1a98:	00000078 	andeq	r0, r0, r8, ror r0
    1a9c:	000000a4 	andeq	r0, r0, r4, lsr #1
    1aa0:	01f30004 	mvnseq	r0, r4
    1aa4:	01949f52 	orrseq	r9, r4, r2, asr pc
    1aa8:	019c0000 	orrseq	r0, ip, r0
    1aac:	00010000 	andeq	r0, r1, r0
    1ab0:	00019c52 	andeq	r9, r1, r2, asr ip
    1ab4:	0001a400 	andeq	sl, r1, r0, lsl #8
    1ab8:	5c000100 	stfpls	f0, [r0], {-0}
    1abc:	000001a4 	andeq	r0, r0, r4, lsr #3
    1ac0:	000001c0 	andeq	r0, r0, r0, asr #3
    1ac4:	01f30004 	mvnseq	r0, r4
    1ac8:	01c09f52 	biceq	r9, r0, r2, asr pc
    1acc:	02200000 	eoreq	r0, r0, #0, 0
    1ad0:	00010000 	andeq	r0, r1, r0
    1ad4:	00022052 	andeq	r2, r2, r2, asr r0
    1ad8:	00022800 	andeq	r2, r2, r0, lsl #16
    1adc:	72000400 	andvc	r0, r0, #0, 8
    1ae0:	289f1f00 	ldmcs	pc, {r8, r9, sl, fp, ip}	; <UNPREDICTABLE>
    1ae4:	74000002 	strvc	r0, [r0], #-2
    1ae8:	05000002 	streq	r0, [r0, #-2]
    1aec:	5201f300 	andpl	pc, r1, #0, 6
    1af0:	02749f1f 	rsbseq	r9, r4, #124	; 0x7c
    1af4:	02880000 	addeq	r0, r8, #0, 0
    1af8:	00010000 	andeq	r0, r1, r0
    1afc:	00028852 	andeq	r8, r2, r2, asr r8
    1b00:	0002a000 	andeq	sl, r2, r0
    1b04:	5c000100 	stfpls	f0, [r0], {-0}
    1b08:	000002cc 	andeq	r0, r0, ip, asr #5
    1b0c:	000002d0 	ldrdeq	r0, [r0], -r0	; <UNPREDICTABLE>
    1b10:	d0520001 	subsle	r0, r2, r1
    1b14:	e7000002 	str	r0, [r0, -r2]
    1b18:	01000002 	tsteq	r0, r2
    1b1c:	02e75c00 	rsceq	r5, r7, #0, 24
    1b20:	02ec0000 	rsceq	r0, ip, #0, 0
    1b24:	00040000 	andeq	r0, r4, r0
    1b28:	9f5201f3 	svcls	0x005201f3
    1b2c:	000002ec 	andeq	r0, r0, ip, ror #5
    1b30:	00000300 	andeq	r0, r0, r0, lsl #6
    1b34:	00520001 	subseq	r0, r2, r1
    1b38:	28000003 	stmdacs	r0, {r0, r1}
    1b3c:	01000003 	tsteq	r0, r3
    1b40:	00005c00 	andeq	r5, r0, r0, lsl #24
	...
    1b5c:	00000068 	andeq	r0, r0, r8, rrx
    1b60:	68530001 	ldmdavs	r3, {r0}^
    1b64:	6c000000 	stcvs	0, cr0, [r0], {-0}
    1b68:	03000000 	movweq	r0, #0
    1b6c:	9f7f0800 	svcls	0x007f0800
    1b70:	00000194 	muleq	r0, r4, r1
    1b74:	00000198 	muleq	r0, r8, r1
    1b78:	7f080003 	svcvc	0x00080003
    1b7c:	0001c09f 	muleq	r1, pc, r0	; <UNPREDICTABLE>
    1b80:	00021400 	andeq	r1, r2, r0, lsl #8
    1b84:	08000300 	stmdaeq	r0, {r8, r9}
    1b88:	02749f7f 	rsbseq	r9, r4, #508	; 0x1fc
    1b8c:	02900000 	addseq	r0, r0, #0, 0
    1b90:	00010000 	andeq	r0, r1, r0
    1b94:	00029053 	andeq	r9, r2, r3, asr r0
    1b98:	0002a000 	andeq	sl, r2, r0
    1b9c:	f3000400 	vshl.u8	d0, d0, d0
    1ba0:	ec9f5301 	ldc	3, cr5, [pc], {1}
    1ba4:	28000002 	stmdacs	r0, {r1}
    1ba8:	03000003 	movweq	r0, #3
    1bac:	9f7f0800 	svcls	0x007f0800
	...
    1bb8:	00000001 	andeq	r0, r0, r1
    1bbc:	00020200 	andeq	r0, r2, r0, lsl #4
    1bc0:	00010100 	andeq	r0, r1, r0, lsl #2
    1bc4:	00000000 	andeq	r0, r0, r0
    1bc8:	02000000 	andeq	r0, r0, #0, 0
    1bcc:	00000002 	andeq	r0, r0, r2
    1bd0:	00000001 	andeq	r0, r0, r1
    1bd4:	00000000 	andeq	r0, r0, r0
    1bd8:	00010100 	andeq	r0, r1, r0, lsl #2
    1bdc:	02000000 	andeq	r0, r0, #0, 0
    1be0:	00000002 	andeq	r0, r0, r2
    1be4:	01000000 	mrseq	r0, (UNDEF: 0)
    1be8:	00000001 	andeq	r0, r0, r1
    1bec:	00000018 	andeq	r0, r0, r8, lsl r0
    1bf0:	00000070 	andeq	r0, r0, r0, ror r0
    1bf4:	a0910004 	addsge	r0, r1, r4
    1bf8:	00709f7f 	rsbseq	r9, r0, pc, ror pc
    1bfc:	00780000 	rsbseq	r0, r8, r0
    1c00:	00010000 	andeq	r0, r1, r0
    1c04:	00007852 	andeq	r7, r0, r2, asr r8
    1c08:	00007800 	andeq	r7, r0, r0, lsl #16
    1c0c:	54000100 	strpl	r0, [r0], #-256	; 0xffffff00
    1c10:	00000078 	andeq	r0, r0, r8, ror r0
    1c14:	00000088 	andeq	r0, r0, r8, lsl #1
    1c18:	01740003 	cmneq	r4, r3
    1c1c:	0000889f 	muleq	r0, pc, r8	; <UNPREDICTABLE>
    1c20:	00009000 	andeq	r9, r0, r0
    1c24:	54000100 	strpl	r0, [r0], #-256	; 0xffffff00
    1c28:	00000090 	muleq	r0, r0, r0
    1c2c:	000000a0 	andeq	r0, r0, r0, lsr #1
    1c30:	02740003 	rsbseq	r0, r4, #3, 0
    1c34:	0000a09f 	muleq	r0, pc, r0	; <UNPREDICTABLE>
    1c38:	0000b000 	andeq	fp, r0, r0
    1c3c:	5e000100 	adfpls	f0, f0, f0
    1c40:	00000194 	muleq	r0, r4, r1
    1c44:	0000019c 	muleq	r0, ip, r1
    1c48:	a0910004 	addsge	r0, r1, r4
    1c4c:	019c9f7f 	orrseq	r9, ip, pc, ror pc
    1c50:	01a40000 			; <UNDEFINED> instruction: 0x01a40000
    1c54:	00010000 	andeq	r0, r1, r0
    1c58:	0001a452 	andeq	sl, r1, r2, asr r4
    1c5c:	0001a400 	andeq	sl, r1, r0, lsl #8
    1c60:	5e000100 	adfpls	f0, f0, f0
    1c64:	000001a4 	andeq	r0, r0, r4, lsr #3
    1c68:	000001b4 			; <UNDEFINED> instruction: 0x000001b4
    1c6c:	017e0003 	cmneq	lr, r3
    1c70:	0001b49f 	muleq	r1, pc, r4	; <UNPREDICTABLE>
    1c74:	0001c000 	andeq	ip, r1, r0
    1c78:	5e000100 	adfpls	f0, f0, f0
    1c7c:	000001c0 	andeq	r0, r0, r0, asr #3
    1c80:	00000228 	andeq	r0, r0, r8, lsr #4
    1c84:	a0910004 	addsge	r0, r1, r4
    1c88:	02289f7f 	eoreq	r9, r8, #508	; 0x1fc
    1c8c:	02340000 	eorseq	r0, r4, #0, 0
    1c90:	00010000 	andeq	r0, r1, r0
    1c94:	00023452 	andeq	r3, r2, r2, asr r4
    1c98:	00025800 	andeq	r5, r2, r0, lsl #16
    1c9c:	5e000100 	adfpls	f0, f0, f0
    1ca0:	00000258 	andeq	r0, r0, r8, asr r2
    1ca4:	0000025c 	andeq	r0, r0, ip, asr r2
    1ca8:	017e0003 	cmneq	lr, r3
    1cac:	00025c9f 	muleq	r2, pc, ip	; <UNPREDICTABLE>
    1cb0:	00026400 	andeq	r6, r2, r0, lsl #8
    1cb4:	5e000100 	adfpls	f0, f0, f0
    1cb8:	00000264 	andeq	r0, r0, r4, ror #4
    1cbc:	00000270 	andeq	r0, r0, r0, ror r2
    1cc0:	02710003 	rsbseq	r0, r1, #3, 0
    1cc4:	0002709f 	muleq	r2, pc, r0	; <UNPREDICTABLE>
    1cc8:	00027400 	andeq	r7, r2, r0, lsl #8
    1ccc:	5e000100 	adfpls	f0, f0, f0
    1cd0:	00000274 	andeq	r0, r0, r4, ror r2
    1cd4:	00000274 	andeq	r0, r0, r4, ror r2
    1cd8:	a0910004 	addsge	r0, r1, r4
    1cdc:	02749f7f 	rsbseq	r9, r4, #508	; 0x1fc
    1ce0:	02a00000 	adceq	r0, r0, #0, 0
    1ce4:	00040000 	andeq	r0, r4, r0
    1ce8:	9f7fa191 	svcls	0x007fa191
    1cec:	000002c0 	andeq	r0, r0, r0, asr #5
    1cf0:	000002c8 	andeq	r0, r0, r8, asr #5
    1cf4:	c85e0001 	ldmdagt	lr, {r0}^
    1cf8:	cc000002 	stcgt	0, cr0, [r0], {2}
    1cfc:	01000002 	tsteq	r0, r2
    1d00:	02cc5600 	sbceq	r5, ip, #0, 12
    1d04:	02ec0000 	rsceq	r0, ip, #0, 0
    1d08:	00040000 	andeq	r0, r4, r0
    1d0c:	9f7fa091 	svcls	0x007fa091
    1d10:	000002ec 	andeq	r0, r0, ip, ror #5
    1d14:	000002fc 	strdeq	r0, [r0], -ip
    1d18:	a1910004 	orrsge	r0, r1, r4
    1d1c:	02fc9f7f 	rscseq	r9, ip, #508	; 0x1fc
    1d20:	03280000 			; <UNDEFINED> instruction: 0x03280000
    1d24:	00010000 	andeq	r0, r1, r0
    1d28:	0000005e 	andeq	r0, r0, lr, asr r0
	...
    1d40:	00000101 	andeq	r0, r0, r1, lsl #2
	...
    1d50:	20000000 	andcs	r0, r0, r0
    1d54:	70000000 	andvc	r0, r0, r0
    1d58:	01000000 	mrseq	r0, (UNDEF: 0)
    1d5c:	00705200 	rsbseq	r5, r0, r0, lsl #4
    1d60:	00940000 	addseq	r0, r4, r0
    1d64:	00010000 	andeq	r0, r1, r0
    1d68:	0001945c 	andeq	r9, r1, ip, asr r4
    1d6c:	00019c00 	andeq	r9, r1, r0, lsl #24
    1d70:	52000100 	andpl	r0, r0, #0
    1d74:	0000019c 	muleq	r0, ip, r1
    1d78:	000001c0 	andeq	r0, r0, r0, asr #3
    1d7c:	c85c0001 	ldmdagt	ip, {r0}^
    1d80:	10000001 	andne	r0, r0, r1
    1d84:	01000002 	tsteq	r0, r2
    1d88:	02105c00 	andseq	r5, r0, #0, 24
    1d8c:	02240000 	eoreq	r0, r4, #0, 0
    1d90:	00010000 	andeq	r0, r1, r0
    1d94:	00022452 	andeq	r2, r2, r2, asr r4
    1d98:	00024800 	andeq	r4, r2, r0, lsl #16
    1d9c:	5c000100 	stfpls	f0, [r0], {-0}
    1da0:	00000248 	andeq	r0, r0, r8, asr #4
    1da4:	0000025c 	andeq	r0, r0, ip, asr r2
    1da8:	5c550001 	mrrcpl	0, 0, r0, r5, cr1
    1dac:	68000002 	stmdavs	r0, {r1}
    1db0:	01000002 	tsteq	r0, r2
    1db4:	02685c00 	rsbeq	r5, r8, #0, 24
    1db8:	02740000 	rsbseq	r0, r4, #0, 0
    1dbc:	00190000 	andseq	r0, r9, r0
    1dc0:	2cf70075 	ldclcs	0, cr0, [r7], #468	; 0x1d4
    1dc4:	007625f7 	ldrshteq	r2, [r6], #-87	; 0xffffffa9
    1dc8:	25f72cf7 	ldrbcs	r2, [r7, #3319]!	; 0xcf7
    1dcc:	f720081e 			; <UNDEFINED> instruction: 0xf720081e
    1dd0:	2cf72525 	cfldr64cs	mvdx2, [r7], #148	; 0x94
    1dd4:	253300f7 	ldrcs	r0, [r3, #-247]!	; 0xffffff09
    1dd8:	0002749f 	muleq	r2, pc, r4	; <UNPREDICTABLE>
    1ddc:	00028800 	andeq	r8, r2, r0, lsl #16
    1de0:	52000100 	andpl	r0, r0, #0
    1de4:	00000288 	andeq	r0, r0, r8, lsl #5
    1de8:	000002a0 	andeq	r0, r0, r0, lsr #5
    1dec:	cc5c0001 	mrrcgt	0, 0, r0, ip, cr1
    1df0:	d0000002 	andle	r0, r0, r2
    1df4:	01000002 	tsteq	r0, r2
    1df8:	02d05200 	sbcseq	r5, r0, #0, 4
    1dfc:	02e70000 	rsceq	r0, r7, #0, 0
    1e00:	00010000 	andeq	r0, r1, r0
    1e04:	0002e75c 	andeq	lr, r2, ip, asr r7
    1e08:	0002ec00 	andeq	lr, r2, r0, lsl #24
    1e0c:	f3000400 	vshl.u8	d0, d0, d0
    1e10:	ec9f5201 	lfm	f5, 4, [pc], {1}
    1e14:	00000002 	andeq	r0, r0, r2
    1e18:	01000003 	tsteq	r0, r3
    1e1c:	03005200 	movweq	r5, #512	; 0x200
    1e20:	03280000 			; <UNDEFINED> instruction: 0x03280000
    1e24:	00010000 	andeq	r0, r1, r0
    1e28:	0000005c 	andeq	r0, r0, ip, asr r0
    1e2c:	00000000 	andeq	r0, r0, r0
    1e30:	04000400 	streq	r0, [r0], #-1024	; 0xfffffc00
    1e34:	00010000 	andeq	r0, r1, r0
    1e38:	a4000400 	strge	r0, [r0], #-1024	; 0xfffffc00
    1e3c:	b0000000 	andlt	r0, r0, r0
    1e40:	01000000 	mrseq	r0, (UNDEF: 0)
    1e44:	027c5300 	rsbseq	r5, ip, #0, 6
    1e48:	02900000 	addseq	r0, r0, #0, 0
    1e4c:	00010000 	andeq	r0, r1, r0
    1e50:	00029053 	andeq	r9, r2, r3, asr r0
    1e54:	00029c00 	andeq	r9, r2, r0, lsl #24
    1e58:	f3000400 	vshl.u8	d0, d0, d0
    1e5c:	c09f5301 	addsgt	r5, pc, r1, lsl #6
    1e60:	cc000002 	stcgt	0, cr0, [r0], {2}
    1e64:	01000002 	tsteq	r0, r2
    1e68:	02f05300 	rscseq	r5, r0, #0, 6
    1e6c:	03280000 			; <UNDEFINED> instruction: 0x03280000
    1e70:	00030000 	andeq	r0, r3, r0
    1e74:	009f7f08 	addseq	r7, pc, r8, lsl #30
    1e78:	00000000 	andeq	r0, r0, r0
    1e7c:	04000000 	streq	r0, [r0], #-0
    1e80:	04010000 	streq	r0, [r1], #-0
    1e84:	00010000 	andeq	r0, r1, r0
    1e88:	04000000 	streq	r0, [r0], #-0
    1e8c:	a4000000 	strge	r0, [r0], #-0
    1e90:	b0000000 	andlt	r0, r0, r0
    1e94:	01000000 	mrseq	r0, (UNDEF: 0)
    1e98:	00b05200 	adcseq	r5, r0, r0, lsl #4
    1e9c:	015c0000 	cmpeq	ip, r0
    1ea0:	00040000 	andeq	r0, r4, r0
    1ea4:	9f7fa091 	svcls	0x007fa091
    1ea8:	0000027c 	andeq	r0, r0, ip, ror r2
    1eac:	00000294 	muleq	r0, r4, r2
    1eb0:	a0910004 	addsge	r0, r1, r4
    1eb4:	02949f7f 	addseq	r9, r4, #508	; 0x1fc
    1eb8:	029c0000 	addseq	r0, ip, #0, 0
    1ebc:	00010000 	andeq	r0, r1, r0
    1ec0:	0002b45e 	andeq	fp, r2, lr, asr r4
    1ec4:	0002c000 	andeq	ip, r2, r0
    1ec8:	91000400 	tstls	r0, r0, lsl #8
    1ecc:	c09f7fa0 	addsgt	r7, pc, r0, lsr #31
    1ed0:	cc000002 	stcgt	0, cr0, [r0], {2}
    1ed4:	01000002 	tsteq	r0, r2
    1ed8:	02f05200 	rscseq	r5, r0, #0, 4
    1edc:	03000000 	movweq	r0, #0
    1ee0:	00040000 	andeq	r0, r4, r0
    1ee4:	9f7fa091 	svcls	0x007fa091
    1ee8:	00000300 	andeq	r0, r0, r0, lsl #6
    1eec:	00000328 	andeq	r0, r0, r8, lsr #6
    1ef0:	00520001 	subseq	r0, r2, r1
    1ef4:	00000000 	andeq	r0, r0, r0
    1ef8:	04000000 	streq	r0, [r0], #-0
    1efc:	01010000 	mrseq	r0, (UNDEF: 1)
    1f00:	03030101 	movweq	r0, #12545	; 0x3101
    1f04:	00010402 	andeq	r0, r1, r2, lsl #8
    1f08:	04000000 	streq	r0, [r0], #-0
    1f0c:	a4000000 	strge	r0, [r0], #-0
    1f10:	b0000000 	andlt	r0, r0, r0
    1f14:	01000000 	mrseq	r0, (UNDEF: 0)
    1f18:	010c5e00 	tsteq	ip, r0, lsl #28
    1f1c:	010c0000 	mrseq	r0, (UNDEF: 12)
    1f20:	00010000 	andeq	r0, r1, r0
    1f24:	00010c55 	andeq	r0, r1, r5, asr ip
    1f28:	00012000 	andeq	r2, r1, r0
    1f2c:	75000300 	strvc	r0, [r0, #-768]	; 0xfffffd00
    1f30:	01209f01 			; <UNDEFINED> instruction: 0x01209f01
    1f34:	012c0000 			; <UNDEFINED> instruction: 0x012c0000
    1f38:	00030000 	andeq	r0, r3, r0
    1f3c:	2c9f0275 	lfmcs	f0, 4, [pc], {117}	; 0x75
    1f40:	30000001 	andcc	r0, r0, r1
    1f44:	03000001 	movweq	r0, #1
    1f48:	9f037500 	svcls	0x00037500
    1f4c:	0000027c 	andeq	r0, r0, ip, ror r2
    1f50:	0000029c 	muleq	r0, ip, r2
    1f54:	a1910004 	orrsge	r0, r1, r4
    1f58:	02c09f7f 	sbceq	r9, r0, #508	; 0x1fc
    1f5c:	02c80000 	sbceq	r0, r8, #0, 0
    1f60:	00010000 	andeq	r0, r1, r0
    1f64:	0002c85e 	andeq	ip, r2, lr, asr r8
    1f68:	0002cc00 	andeq	ip, r2, r0, lsl #24
    1f6c:	56000100 	strpl	r0, [r0], -r0, lsl #2
    1f70:	000002f0 	strdeq	r0, [r0], -r0	; <UNPREDICTABLE>
    1f74:	000002fc 	strdeq	r0, [r0], -ip
    1f78:	a1910004 	orrsge	r0, r1, r4
    1f7c:	02fc9f7f 	rscseq	r9, ip, #508	; 0x1fc
    1f80:	03280000 			; <UNDEFINED> instruction: 0x03280000
    1f84:	00010000 	andeq	r0, r1, r0
    1f88:	0000005e 	andeq	r0, r0, lr, asr r0
	...
    1f94:	01010101 	tsteq	r1, r1, lsl #2
    1f98:	06020101 	streq	r0, [r2], -r1, lsl #2
    1f9c:	06000001 	streq	r0, [r0], -r1
    1fa0:	0000a800 	andeq	sl, r0, r0, lsl #16
    1fa4:	0000b000 	andeq	fp, r0, r0
    1fa8:	51000100 	mrspl	r0, (UNDEF: 16)
    1fac:	0000010c 	andeq	r0, r0, ip, lsl #2
    1fb0:	0000011c 	andeq	r0, r0, ip, lsl r1
    1fb4:	1c5c0001 	mrrcne	0, 0, r0, ip, cr1
    1fb8:	2c000001 	stccs	0, cr0, [r0], {1}
    1fbc:	01000001 	tsteq	r0, r1
    1fc0:	012c5800 			; <UNDEFINED> instruction: 0x012c5800
    1fc4:	01300000 	teqeq	r0, r0
    1fc8:	00010000 	andeq	r0, r1, r0
    1fcc:	0001305c 	andeq	r3, r1, ip, asr r0
    1fd0:	00013000 	andeq	r3, r1, r0
    1fd4:	7c000300 	stcvc	3, cr0, [r0], {-0}
    1fd8:	027c9f01 	rsbseq	r9, ip, #1, 30
    1fdc:	029c0000 	addseq	r0, ip, #0, 0
    1fe0:	00020000 	andeq	r0, r2, r0
    1fe4:	02c09f31 	sbceq	r9, r0, #196	; 0xc4
    1fe8:	02cc0000 	sbceq	r0, ip, #0, 0
    1fec:	00010000 	andeq	r0, r1, r0
    1ff0:	0002f051 	andeq	pc, r2, r1, asr r0	; <UNPREDICTABLE>
    1ff4:	00032800 	andeq	r2, r3, r0, lsl #16
    1ff8:	31000200 	mrscc	r0, R8_usr
    1ffc:	0000009f 	muleq	r0, pc, r0	; <UNPREDICTABLE>
    2000:	00000000 	andeq	r0, r0, r0
    2004:	06060100 	streq	r0, [r6], -r0, lsl #2
    2008:	00000101 	andeq	r0, r0, r1, lsl #2
    200c:	00015c01 	andeq	r5, r1, r1, lsl #24
    2010:	00015c00 	andeq	r5, r1, r0, lsl #24
    2014:	91000400 	tstls	r0, r0, lsl #8
    2018:	5c9f7fa0 	ldcpl	15, cr7, [pc], {160}	; 0xa0
    201c:	8c000001 	stchi	0, cr0, [r0], {1}
    2020:	01000001 	tsteq	r0, r1
    2024:	029c5200 	addseq	r5, ip, #0, 4
    2028:	02a00000 	adceq	r0, r0, #0, 0
    202c:	00010000 	andeq	r0, r1, r0
    2030:	0002a05e 	andeq	sl, r2, lr, asr r0
    2034:	0002ac00 	andeq	sl, r2, r0, lsl #24
    2038:	52000100 	andpl	r0, r0, #0
	...
    2044:	01000000 	mrseq	r0, (UNDEF: 0)
    2048:	07010001 	streq	r0, [r1, -r1]
    204c:	0000016c 	andeq	r0, r0, ip, ror #2
    2050:	00000170 	andeq	r0, r0, r0, ror r1
    2054:	7f730003 	svcvc	0x00730003
    2058:	0001709f 	muleq	r1, pc, r0	; <UNPREDICTABLE>
    205c:	00017800 	andeq	r7, r1, r0, lsl #16
    2060:	53000100 	movwpl	r0, #256	; 0x100
    2064:	00000178 	andeq	r0, r0, r8, ror r1
    2068:	00000184 	andeq	r0, r0, r4, lsl #3
    206c:	7f730003 	svcvc	0x00730003
    2070:	00029c9f 	muleq	r2, pc, ip	; <UNPREDICTABLE>
    2074:	00029c00 	andeq	r9, r2, r0, lsl #24
    2078:	91000400 	tstls	r0, r0, lsl #8
    207c:	009f7fa1 	addseq	r7, pc, r1, lsr #31
    2080:	00000000 	andeq	r0, r0, r0
    2084:	01000000 	mrseq	r0, (UNDEF: 0)
    2088:	5c010101 	stfpls	f0, [r1], {1}
    208c:	8c000001 	stchi	0, cr0, [r0], {1}
    2090:	03000001 	movweq	r0, #1
    2094:	9f800800 	svcls	0x00800800
    2098:	0000029c 	muleq	r0, ip, r2
    209c:	000002ac 	andeq	r0, r0, ip, lsr #5
    20a0:	80080003 	andhi	r0, r8, r3
    20a4:	0000009f 	muleq	r0, pc, r0	; <UNPREDICTABLE>
    20a8:	00000000 	andeq	r0, r0, r0
    20ac:	00000100 	andeq	r0, r0, r0, lsl #2
    20b0:	00000101 	andeq	r0, r0, r1, lsl #2
    20b4:	01010101 	tsteq	r1, r1, lsl #2
    20b8:	5c010101 	stfpls	f0, [r1], {1}
    20bc:	6c000001 	stcvs	0, cr0, [r0], {1}
    20c0:	01000001 	tsteq	r0, r1
    20c4:	016c5000 	cmneq	ip, r0
    20c8:	016c0000 	cmneq	ip, r0
    20cc:	00030000 	andeq	r0, r3, r0
    20d0:	6c9f017c 	ldfvss	f0, [pc], {124}	; 0x7c
    20d4:	78000001 	stmdavc	r0, {r0}
    20d8:	03000001 	movweq	r0, #1
    20dc:	9f027c00 	svcls	0x00027c00
    20e0:	00000178 	andeq	r0, r0, r8, ror r1
    20e4:	00000188 	andeq	r0, r0, r8, lsl #3
    20e8:	017c0003 	cmneq	ip, r3
    20ec:	0001889f 	muleq	r1, pc, r8	; <UNPREDICTABLE>
    20f0:	00018c00 	andeq	r8, r1, r0, lsl #24
    20f4:	7e000300 	cdpvc	3, 0, cr0, cr0, cr0, {0}
    20f8:	029c9f01 	addseq	r9, ip, #1, 30
    20fc:	02a40000 	adceq	r0, r4, #0, 0
    2100:	00010000 	andeq	r0, r1, r0
    2104:	0002a450 	andeq	sl, r2, r0, asr r4
    2108:	0002ac00 	andeq	sl, r2, r0, lsl #24
    210c:	7e000300 	cdpvc	3, 0, cr0, cr0, cr0, {0}
    2110:	00009f01 	andeq	r9, r0, r1, lsl #30
    2114:	00000000 	andeq	r0, r0, r0
    2118:	00040000 	andeq	r0, r4, r0
    211c:	01000004 	tsteq	r0, r4
    2120:	0000015c 	andeq	r0, r0, ip, asr r1
    2124:	00000160 	andeq	r0, r0, r0, ror #2
    2128:	01710003 	cmneq	r1, r3
    212c:	00029c9f 	muleq	r2, pc, ip	; <UNPREDICTABLE>
    2130:	0002a000 	andeq	sl, r2, r0
    2134:	32000200 	andcc	r0, r0, #0, 4
    2138:	0002a09f 	muleq	r2, pc, r0	; <UNPREDICTABLE>
    213c:	0002ac00 	andeq	sl, r2, r0, lsl #24
    2140:	71000300 	mrsvc	r0, LR_irq
    2144:	00009f01 	andeq	r9, r0, r1, lsl #30
    2148:	00000000 	andeq	r0, r0, r0
    214c:	00070000 	andeq	r0, r7, r0
    2150:	015c0006 	cmpeq	ip, r6
    2154:	01940000 	orrseq	r0, r4, r0
    2158:	00010000 	andeq	r0, r1, r0
    215c:	00029c50 	andeq	r9, r2, r0, asr ip
    2160:	0002b400 	andeq	fp, r2, r0, lsl #8
    2164:	50000100 	andpl	r0, r0, r0, lsl #2
	...
    2170:	00010101 	andeq	r0, r1, r1, lsl #2
    2174:	00000214 	andeq	r0, r0, r4, lsl r2
    2178:	00000220 	andeq	r0, r0, r0, lsr #4
    217c:	9f300002 	svcls	0x00300002
    2180:	00000220 	andeq	r0, r0, r0, lsr #4
    2184:	00000234 	andeq	r0, r0, r4, lsr r2
    2188:	9f310002 	svcls	0x00310002
	...
    2194:	00010100 	andeq	r0, r1, r0, lsl #2
    2198:	00010100 	andeq	r0, r1, r0, lsl #2
    219c:	00010100 	andeq	r0, r1, r0, lsl #2
    21a0:	00010100 	andeq	r0, r1, r0, lsl #2
    21a4:	00010100 	andeq	r0, r1, r0, lsl #2
    21a8:	01020200 	mrseq	r0, R10_usr
    21ac:	00000080 	andeq	r0, r0, r0, lsl #1
    21b0:	00000080 	andeq	r0, r0, r0, lsl #1
    21b4:	80530001 	subshi	r0, r3, r1
    21b8:	8c000000 	stchi	0, cr0, [r0], {-0}
    21bc:	03000000 	movweq	r0, #0
    21c0:	9f047300 	svcls	0x00047300
    21c4:	0000008c 	andeq	r0, r0, ip, lsl #1
    21c8:	00000094 	muleq	r0, r4, r0
    21cc:	94510001 	ldrbls	r0, [r1], #-1
    21d0:	98000000 	stmdals	r0, {}	; <UNPREDICTABLE>
    21d4:	03000000 	movweq	r0, #0
    21d8:	9f087300 	svcls	0x00087300
    21dc:	00000098 	muleq	r0, r8, r0
    21e0:	000000a4 	andeq	r0, r0, r4, lsr #1
    21e4:	a4510001 	ldrbge	r0, [r1], #-1
    21e8:	a8000000 	stmdage	r0, {}	; <UNPREDICTABLE>
    21ec:	03000000 	movweq	r0, #0
    21f0:	9f0c7300 	svcls	0x000c7300
    21f4:	000000a8 	andeq	r0, r0, r8, lsr #1
    21f8:	000000b4 	strheq	r0, [r0], -r4
    21fc:	b4510001 	ldrblt	r0, [r1], #-1
    2200:	b8000000 	stmdalt	r0, {}	; <UNPREDICTABLE>
    2204:	03000000 	movweq	r0, #0
    2208:	9f107300 	svcls	0x00107300
    220c:	000000b8 	strheq	r0, [r0], -r8
    2210:	000000c4 	andeq	r0, r0, r4, asr #1
    2214:	c4510001 	ldrbgt	r0, [r1], #-1
    2218:	c8000000 	stmdagt	r0, {}	; <UNPREDICTABLE>
    221c:	03000000 	movweq	r0, #0
    2220:	9f147300 	svcls	0x00147300
    2224:	000000c8 	andeq	r0, r0, r8, asr #1
    2228:	000000d0 	ldrdeq	r0, [r0], -r0	; <UNPREDICTABLE>
    222c:	d0510001 	subsle	r0, r1, r1
    2230:	d4000000 	strle	r0, [r0], #-0
    2234:	03000000 	movweq	r0, #0
    2238:	9f047100 	svcls	0x00047100
	...
    2244:	00d80002 	sbcseq	r0, r8, r2
    2248:	00e80000 	rsceq	r0, r8, r0
    224c:	00020000 	andeq	r0, r2, r0
    2250:	00009f31 	andeq	r9, r0, r1, lsr pc
    2254:	00000000 	andeq	r0, r0, r0
    2258:	00040000 	andeq	r0, r4, r0
    225c:	97d40100 	ldrbls	r0, [r4, r0, lsl #2]
    2260:	97dc0000 	ldrbls	r0, [ip, r0]
    2264:	00020000 	andeq	r0, r2, r0
    2268:	97dc9f30 			; <UNDEFINED> instruction: 0x97dc9f30
    226c:	97dc0000 	ldrbls	r0, [ip, r0]
    2270:	00010000 	andeq	r0, r1, r0
    2274:	00000053 	andeq	r0, r0, r3, asr r0
    2278:	00000000 	andeq	r0, r0, r0
    227c:	00000300 	andeq	r0, r0, r0, lsl #6
    2280:	00000000 	andeq	r0, r0, r0
    2284:	0097e800 	addseq	lr, r7, r0, lsl #16
    2288:	0097ec00 	addseq	lr, r7, r0, lsl #24
    228c:	30000200 	andcc	r0, r0, r0, lsl #4
    2290:	0097ec9f 	umullseq	lr, r7, pc, ip	; <UNPREDICTABLE>
    2294:	0097f000 	addseq	pc, r7, r0
    2298:	53000100 	movwpl	r0, #256	; 0x100
    229c:	000097f0 	strdeq	r9, [r0], -r0
    22a0:	000097f4 	strdeq	r9, [r0], -r4
    22a4:	00730005 	rsbseq	r0, r3, r5
    22a8:	f49f2140 			; <UNDEFINED> instruction: 0xf49f2140
    22ac:	f8000097 			; <UNDEFINED> instruction: 0xf8000097
    22b0:	01000097 	swpeq	r0, r7, [r0]	; <UNPREDICTABLE>
    22b4:	00005300 	andeq	r5, r0, r0, lsl #6
    22b8:	00000000 	andeq	r0, r0, r0
    22bc:	00020000 	andeq	r0, r2, r0
    22c0:	97a80000 	strls	r0, [r8, r0]!
    22c4:	97ac0000 	strls	r0, [ip, r0]!
    22c8:	00020000 	andeq	r0, r2, r0
    22cc:	97ac9f30 			; <UNDEFINED> instruction: 0x97ac9f30
    22d0:	97b00000 	ldrls	r0, [r0, r0]!
    22d4:	00010000 	andeq	r0, r1, r0
    22d8:	00000050 	andeq	r0, r0, r0, asr r0
    22dc:	00000000 	andeq	r0, r0, r0
    22e0:	00000200 	andeq	r0, r0, r0, lsl #4
    22e4:	00000000 	andeq	r0, r0, r0
    22e8:	0097c000 	addseq	ip, r7, r0
    22ec:	0097c400 	addseq	ip, r7, r0, lsl #8
    22f0:	30000200 	andcc	r0, r0, r0, lsl #4
    22f4:	0097c49f 	umullseq	ip, r7, pc, r4	; <UNPREDICTABLE>
    22f8:	0097c800 	addseq	ip, r7, r0, lsl #16
    22fc:	53000100 	movwpl	r0, #256	; 0x100
    2300:	000097c8 	andeq	r9, r0, r8, asr #15
    2304:	000097cc 	andeq	r9, r0, ip, asr #15
    2308:	00730005 	rsbseq	r0, r3, r5
    230c:	cc9f2140 	ldfgts	f2, [pc], {64}	; 0x40
    2310:	d4000097 	strle	r0, [r0], #-151	; 0xffffff69
    2314:	01000097 	swpeq	r0, r7, [r0]	; <UNPREDICTABLE>
    2318:	00005300 	andeq	r5, r0, r0, lsl #6
	...
    2324:	00c80000 	sbceq	r0, r8, r0
    2328:	00d80000 	sbcseq	r0, r8, r0
    232c:	00010000 	andeq	r0, r1, r0
    2330:	0000d850 	andeq	sp, r0, r0, asr r8
    2334:	00011c00 	andeq	r1, r1, r0, lsl #24
    2338:	f3000400 	vshl.u8	d0, d0, d0
    233c:	009f5001 	addseq	r5, pc, r1
    2340:	00000000 	andeq	r0, r0, r0
    2344:	02000000 	andeq	r0, r0, #0, 0
    2348:	c8000000 	stmdagt	r0, {}	; <UNPREDICTABLE>
    234c:	d8000000 	stmdale	r0, {}	; <UNPREDICTABLE>
    2350:	07000000 	streq	r0, [r0, -r0]
    2354:	0a007000 	beq	1e35c <__bss_end__+0x13564>
    2358:	9f1e03e8 	svcls	0x001e03e8
    235c:	000000d8 	ldrdeq	r0, [r0], -r8
    2360:	0000011c 	andeq	r0, r0, ip, lsl r1
    2364:	01f30008 	mvnseq	r0, r8
    2368:	03e80a50 	mvneq	r0, #80, 20	; 0x50000
    236c:	00009f1e 	andeq	r9, r0, lr, lsl pc
	...
    2378:	000000dc 	ldrdeq	r0, [r0], -ip
    237c:	0000011c 	andeq	r0, r0, ip, lsl r1
    2380:	00540001 	subseq	r0, r4, r1
    2384:	00000000 	andeq	r0, r0, r0
    2388:	01000000 	mrseq	r0, (UNDEF: 0)
    238c:	0000f000 	andeq	pc, r0, r0
    2390:	00011c00 	andeq	r1, r1, r0, lsl #24
    2394:	56000100 	strpl	r0, [r0], -r0, lsl #2
	...
    23a4:	000000ec 	andeq	r0, r0, ip, ror #1
    23a8:	000000ef 	andeq	r0, r0, pc, ror #1
    23ac:	ef500001 	svc	0x00500001
    23b0:	1c000000 	stcne	0, cr0, [r0], {-0}
    23b4:	01000001 	tsteq	r0, r1
    23b8:	00005600 	andeq	r5, r0, r0, lsl #12
	...
    23c4:	00000104 	andeq	r0, r0, r4, lsl #2
    23c8:	0000010b 	andeq	r0, r0, fp, lsl #2
    23cc:	00500001 	subseq	r0, r0, r1
	...
    23d8:	20000000 	andcs	r0, r0, r0
    23dc:	23000000 	movwcs	r0, #0
    23e0:	01000000 	mrseq	r0, (UNDEF: 0)
    23e4:	00235000 	eoreq	r5, r3, r0
    23e8:	00300000 	eorseq	r0, r0, r0
    23ec:	00010000 	andeq	r0, r1, r0
    23f0:	00000054 	andeq	r0, r0, r4, asr r0
	...
    23fc:	00003000 	andeq	r3, r0, r0
    2400:	00003b00 	andeq	r3, r0, r0, lsl #22
    2404:	50000100 	andpl	r0, r0, r0, lsl #2
    2408:	0000003b 	andeq	r0, r0, fp, lsr r0
    240c:	00000078 	andeq	r0, r0, r8, ror r0
    2410:	00560001 	subseq	r0, r6, r1
    2414:	00000000 	andeq	r0, r0, r0
    2418:	01000000 	mrseq	r0, (UNDEF: 0)
    241c:	00004c00 	andeq	r4, r0, r0, lsl #24
    2420:	00007800 	andeq	r7, r0, r0, lsl #16
    2424:	55000100 	strpl	r0, [r0, #-256]	; 0xffffff00
	...
    2434:	00000048 	andeq	r0, r0, r8, asr #32
    2438:	0000004b 	andeq	r0, r0, fp, asr #32
    243c:	4b500001 	blmi	1402448 <__bss_end__+0x13f7650>
    2440:	78000000 	stmdavc	r0, {}	; <UNPREDICTABLE>
    2444:	01000000 	mrseq	r0, (UNDEF: 0)
    2448:	00005500 	andeq	r5, r0, r0, lsl #10
	...
    2454:	00000060 	andeq	r0, r0, r0, rrx
    2458:	00000067 	andeq	r0, r0, r7, rrx
    245c:	00500001 	subseq	r0, r0, r1
	...
    2468:	78000000 	stmdavc	r0, {}	; <UNPREDICTABLE>
    246c:	84000000 	strhi	r0, [r0], #-0
    2470:	01000000 	mrseq	r0, (UNDEF: 0)
    2474:	00845000 	addeq	r5, r4, r0
    2478:	00c80000 	sbceq	r0, r8, r0
    247c:	00040000 	andeq	r0, r4, r0
    2480:	9f5001f3 	svcls	0x005001f3
	...
    248c:	00880000 	addeq	r0, r8, r0
    2490:	00c80000 	sbceq	r0, r8, r0
    2494:	00010000 	andeq	r0, r1, r0
    2498:	00000054 	andeq	r0, r0, r4, asr r0
    249c:	00000000 	andeq	r0, r0, r0
    24a0:	9c000100 	stflss	f0, [r0], {-0}
    24a4:	c8000000 	stmdagt	r0, {}	; <UNPREDICTABLE>
    24a8:	01000000 	mrseq	r0, (UNDEF: 0)
    24ac:	00005600 	andeq	r5, r0, r0, lsl #12
	...
    24b8:	00980000 	addseq	r0, r8, r0
    24bc:	009b0000 	addseq	r0, fp, r0
    24c0:	00010000 	andeq	r0, r1, r0
    24c4:	00009b50 	andeq	r9, r0, r0, asr fp
    24c8:	0000c800 	andeq	ip, r0, r0, lsl #16
    24cc:	56000100 	strpl	r0, [r0], -r0, lsl #2
	...
    24d8:	00b00000 	adcseq	r0, r0, r0
    24dc:	00b70000 	adcseq	r0, r7, r0
    24e0:	00010000 	andeq	r0, r1, r0
    24e4:	00000050 	andeq	r0, r0, r0, asr r0
	...
    24f0:	00015800 	andeq	r5, r1, r0, lsl #16
    24f4:	00016300 	andeq	r6, r1, r0, lsl #6
    24f8:	50000100 	andpl	r0, r0, r0, lsl #2
    24fc:	00000163 	andeq	r0, r0, r3, ror #2
    2500:	00000188 	andeq	r0, r0, r8, lsl #3
    2504:	00540001 	subseq	r0, r4, r1
	...
    2510:	00014800 	andeq	r4, r1, r0, lsl #16
    2514:	00015800 	andeq	r5, r1, r0, lsl #16
    2518:	54000100 	strpl	r0, [r0], #-256	; 0xffffff00
	...
    252c:	0000000f 	andeq	r0, r0, pc
    2530:	0f500001 	svceq	0x00500001
    2534:	20000000 	andcs	r0, r0, r0
    2538:	01000000 	mrseq	r0, (UNDEF: 0)
    253c:	00005400 	andeq	r5, r0, r0, lsl #8
	...
    254c:	000f0000 	andeq	r0, pc, r0
    2550:	00010000 	andeq	r0, r1, r0
    2554:	00000f51 	andeq	r0, r0, r1, asr pc
    2558:	00002000 	andeq	r2, r0, r0
    255c:	55000100 	strpl	r0, [r0, #-256]	; 0xffffff00
	...
    256c:	00000020 	andeq	r0, r0, r0, lsr #32
    2570:	0000002f 	andeq	r0, r0, pc, lsr #32
    2574:	2f500001 	svccs	0x00500001
    2578:	40000000 	andmi	r0, r0, r0
    257c:	01000000 	mrseq	r0, (UNDEF: 0)
    2580:	00005400 	andeq	r5, r0, r0, lsl #8
	...
    258c:	00200000 	eoreq	r0, r0, r0
    2590:	002f0000 	eoreq	r0, pc, r0
    2594:	00010000 	andeq	r0, r1, r0
    2598:	00002f51 	andeq	r2, r0, r1, asr pc
    259c:	00004000 	andeq	r4, r0, r0
    25a0:	55000100 	strpl	r0, [r0, #-256]	; 0xffffff00
	...
    25b0:	03500000 	cmpeq	r0, #0, 0
    25b4:	03980000 	orrseq	r0, r8, #0, 0
    25b8:	00010000 	andeq	r0, r1, r0
    25bc:	00039850 	andeq	r9, r3, r0, asr r8
    25c0:	00039b00 	andeq	r9, r3, r0, lsl #22
    25c4:	91000200 	mrsls	r0, R8_usr
    25c8:	00039b68 	andeq	r9, r3, r8, ror #22
    25cc:	0003b000 	andeq	fp, r3, r0
    25d0:	f3000400 	vshl.u8	d0, d0, d0
    25d4:	009f5001 	addseq	r5, pc, r1
	...
    25f0:	20000000 	andcs	r0, r0, r0
    25f4:	7b000002 	blvc	2604 <__code_start__-0x59fc>
    25f8:	01000002 	tsteq	r0, r2
    25fc:	027b5000 	rsbseq	r5, fp, #0, 0
    2600:	02840000 	addeq	r0, r4, #0, 0
    2604:	00040000 	andeq	r0, r4, r0
    2608:	9f5001f3 	svcls	0x005001f3
    260c:	00000284 	andeq	r0, r0, r4, lsl #5
    2610:	0000029c 	muleq	r0, ip, r2
    2614:	9c500001 	mrrcls	0, 0, r0, r0, cr1	; <UNPREDICTABLE>
    2618:	a4000002 	strge	r0, [r0], #-2
    261c:	04000002 	streq	r0, [r0], #-2
    2620:	5001f300 	andpl	pc, r1, r0, lsl #6
    2624:	0002a49f 	muleq	r2, pc, r4	; <UNPREDICTABLE>
    2628:	0002a700 	andeq	sl, r2, r0, lsl #14
    262c:	50000100 	andpl	r0, r0, r0, lsl #2
    2630:	000002a7 	andeq	r0, r0, r7, lsr #5
    2634:	000002c8 	andeq	r0, r0, r8, asr #5
    2638:	01f30004 	mvnseq	r0, r4
    263c:	02c89f50 	sbceq	r9, r8, #80, 30	; 0x140
    2640:	02e00000 	rsceq	r0, r0, #0, 0
    2644:	00010000 	andeq	r0, r1, r0
    2648:	0002e050 	andeq	lr, r2, r0, asr r0
    264c:	0002e800 	andeq	lr, r2, r0, lsl #16
    2650:	f3000400 	vshl.u8	d0, d0, d0
    2654:	e89f5001 	ldm	pc, {r0, ip, lr}	; <UNPREDICTABLE>
    2658:	eb000002 	bl	2668 <__code_start__-0x5998>
    265c:	01000002 	tsteq	r0, r2
    2660:	02eb5000 	rsceq	r5, fp, #0, 0
    2664:	03380000 	teqeq	r8, #0, 0
    2668:	00040000 	andeq	r0, r4, r0
    266c:	9f5001f3 	svcls	0x005001f3
	...
    268c:	00000220 	andeq	r0, r0, r0, lsr #4
    2690:	00000244 	andeq	r0, r0, r4, asr #4
    2694:	44510001 	ldrbmi	r0, [r1], #-1
    2698:	68000002 	stmdavs	r0, {r1}
    269c:	01000002 	tsteq	r0, r2
    26a0:	02685100 	rsbeq	r5, r8, #0
    26a4:	027b0000 	rsbseq	r0, fp, #0, 0
    26a8:	00030000 	andeq	r0, r3, r0
    26ac:	7b9f0171 	blvc	fe7c2c78 <__bss_end__+0xfe7b7e80>
    26b0:	84000002 	strhi	r0, [r0], #-2
    26b4:	17000002 	strne	r0, [r0, -r2]
    26b8:	01f33800 	mvnseq	r3, r0, lsl #16
    26bc:	5101f351 	tstpl	r1, r1, asr r3	; <UNPREDICTABLE>
    26c0:	22244b40 	eorcs	r4, r4, #64, 22	; 0x10000
    26c4:	0000080c 	andeq	r0, r0, ip, lsl #16
    26c8:	01282d80 	smlawbeq	r8, r0, sp, r2
    26cc:	9f131600 	svcls	0x00131600
    26d0:	00000284 	andeq	r0, r0, r4, lsl #5
    26d4:	00000298 	muleq	r0, r8, r2
    26d8:	98510001 	ldmdals	r1, {r0}^
    26dc:	a4000002 	strge	r0, [r0], #-2
    26e0:	04000002 	streq	r0, [r0], #-2
    26e4:	5101f300 	mrspl	pc, SP_irq	; <UNPREDICTABLE>
    26e8:	0002a49f 	muleq	r2, pc, r4	; <UNPREDICTABLE>
    26ec:	0002a700 	andeq	sl, r2, r0, lsl #14
    26f0:	51000100 	mrspl	r0, (UNDEF: 16)
    26f4:	000002a7 	andeq	r0, r0, r7, lsr #5
    26f8:	000002c8 	andeq	r0, r0, r8, asr #5
    26fc:	01f30004 	mvnseq	r0, r4
    2700:	02c89f51 	sbceq	r9, r8, #324	; 0x144
    2704:	02dc0000 	sbcseq	r0, ip, #0, 0
    2708:	00010000 	andeq	r0, r1, r0
    270c:	0002dc51 	andeq	sp, r2, r1, asr ip
    2710:	00033800 	andeq	r3, r3, r0, lsl #16
    2714:	38001700 	stmdacc	r0, {r8, r9, sl, ip}
    2718:	f35101f3 	vbsl	q8, <illegal reg q8.5>, <illegal reg q9.5>
    271c:	4b405101 	blmi	1016b28 <__bss_end__+0x100bd30>
    2720:	080c2224 	stmdaeq	ip, {r2, r5, r9, sp}
    2724:	2d800000 	stccs	0, cr0, [r0]
    2728:	16000128 	strne	r0, [r0], -r8, lsr #2
    272c:	00009f13 	andeq	r9, r0, r3, lsl pc
	...
    2740:	024c0000 	subeq	r0, ip, #0, 0
    2744:	025c0000 	subseq	r0, ip, #0, 0
    2748:	00010000 	andeq	r0, r1, r0
    274c:	00025c52 	andeq	r5, r2, r2, asr ip
    2750:	00026400 	andeq	r6, r2, r0, lsl #8
    2754:	03000500 	movweq	r0, #1280	; 0x500
    2758:	0000a9bc 			; <UNDEFINED> instruction: 0x0000a9bc
    275c:	00000264 	andeq	r0, r0, r4, ror #4
    2760:	0000027b 	andeq	r0, r0, fp, ror r2
    2764:	c8530001 	ldmdagt	r3, {r0}^
    2768:	d8000002 	stmdale	r0, {r1}
    276c:	01000002 	tsteq	r0, r2
    2770:	02d85200 	sbcseq	r5, r8, #0, 4
    2774:	02e30000 	rsceq	r0, r3, #0, 0
    2778:	00050000 	andeq	r0, r5, r0
    277c:	00a9bc03 	adceq	fp, r9, r3, lsl #24
    2780:	0002e800 	andeq	lr, r2, r0, lsl #16
    2784:	0002eb00 	andeq	lr, r2, r0, lsl #22
    2788:	53000100 	movwpl	r0, #256	; 0x100
	...
    2794:	02300004 	eorseq	r0, r0, #4, 0
    2798:	02340000 	eorseq	r0, r4, #0, 0
    279c:	00010000 	andeq	r0, r1, r0
    27a0:	00000051 	andeq	r0, r0, r1, asr r0
    27a4:	00000000 	andeq	r0, r0, r0
    27a8:	3c000200 	sfmcc	f0, 4, [r0], {-0}
    27ac:	44000002 	strmi	r0, [r0], #-2
    27b0:	02000002 	andeq	r0, r0, #2, 0
    27b4:	009f3800 	addseq	r3, pc, r0, lsl #16
    27b8:	00000000 	andeq	r0, r0, r0
    27bc:	02000000 	andeq	r0, r0, #0, 0
    27c0:	00023c00 	andeq	r3, r2, r0, lsl #24
    27c4:	00024400 	andeq	r4, r2, r0, lsl #8
    27c8:	51000100 	mrspl	r0, (UNDEF: 16)
	...
    27d4:	00000001 	andeq	r0, r0, r1
    27d8:	024c0000 	subeq	r0, ip, #0, 0
    27dc:	02640000 	rsbeq	r0, r4, #0, 0
    27e0:	00010000 	andeq	r0, r1, r0
    27e4:	0002c851 	andeq	ip, r2, r1, asr r8
    27e8:	0002dc00 	andeq	sp, r2, r0, lsl #24
    27ec:	51000100 	mrspl	r0, (UNDEF: 16)
    27f0:	000002dc 	ldrdeq	r0, [r0], -ip
    27f4:	000002e8 	andeq	r0, r0, r8, ror #5
    27f8:	f3380017 	vqadd.u64	d0, d8, d7
    27fc:	01f35101 	mvnseq	r5, r1, lsl #2
    2800:	244b4051 	strbcs	r4, [fp], #-81	; 0xffffffaf
    2804:	00080c22 	andeq	r0, r8, r2, lsr #24
    2808:	282d8000 	stmdacs	sp!, {pc}
    280c:	13160001 	tstne	r6, #1, 0
    2810:	0000009f 	muleq	r0, pc, r0	; <UNPREDICTABLE>
    2814:	00000000 	andeq	r0, r0, r0
    2818:	00000100 	andeq	r0, r0, r0, lsl #2
    281c:	00000000 	andeq	r0, r0, r0
    2820:	00024c00 	andeq	r4, r2, r0, lsl #24
    2824:	00025c00 	andeq	r5, r2, r0, lsl #24
    2828:	52000100 	andpl	r0, r0, #0
    282c:	0000025c 	andeq	r0, r0, ip, asr r2
    2830:	00000264 	andeq	r0, r0, r4, ror #4
    2834:	bc030005 	stclt	0, cr0, [r3], {5}
    2838:	c80000a9 	stmdagt	r0, {r0, r3, r5, r7}
    283c:	d8000002 	stmdale	r0, {r1}
    2840:	01000002 	tsteq	r0, r2
    2844:	02d85200 	sbcseq	r5, r8, #0, 4
    2848:	02e30000 	rsceq	r0, r3, #0, 0
    284c:	00050000 	andeq	r0, r5, r0
    2850:	00a9bc03 	adceq	fp, r9, r3, lsl #24
	...
    285c:	4c000400 	cfstrsmi	mvf0, [r0], {-0}
    2860:	50000002 	andpl	r0, r0, r2
    2864:	01000002 	tsteq	r0, r2
    2868:	00005100 	andeq	r5, r0, r0, lsl #2
    286c:	00000000 	andeq	r0, r0, r0
    2870:	00030000 	andeq	r0, r3, r0
    2874:	00000264 	andeq	r0, r0, r4, ror #4
    2878:	00000268 	andeq	r0, r0, r8, ror #4
    287c:	00510001 	subseq	r0, r1, r1
    2880:	00000000 	andeq	r0, r0, r0
    2884:	03000000 	movweq	r0, #0
    2888:	00026400 	andeq	r6, r2, r0, lsl #8
    288c:	00026800 	andeq	r6, r2, r0, lsl #16
    2890:	53000100 	movwpl	r0, #256	; 0x100
	...
    28a4:	000001bc 			; <UNDEFINED> instruction: 0x000001bc
    28a8:	000001d3 	ldrdeq	r0, [r0], -r3
    28ac:	d3500001 	cmple	r0, #1, 0
    28b0:	f0000001 			; <UNDEFINED> instruction: 0xf0000001
    28b4:	01000001 	tsteq	r0, r1
    28b8:	01f05400 	mvnseq	r5, r0, lsl #8
    28bc:	02080000 	andeq	r0, r8, #0, 0
    28c0:	00010000 	andeq	r0, r1, r0
    28c4:	00020850 	andeq	r0, r2, r0, asr r8
    28c8:	00022000 	andeq	r2, r2, r0
    28cc:	54000100 	strpl	r0, [r0], #-256	; 0xffffff00
	...
    28dc:	000001d8 	ldrdeq	r0, [r0], -r8
    28e0:	000001e3 	andeq	r0, r0, r3, ror #3
    28e4:	e3500001 	cmp	r0, #1, 0
    28e8:	f0000001 			; <UNDEFINED> instruction: 0xf0000001
    28ec:	01000001 	tsteq	r0, r1
    28f0:	00005500 	andeq	r5, r0, r0, lsl #10
	...
    2908:	01240000 			; <UNDEFINED> instruction: 0x01240000
    290c:	01380000 	teqeq	r8, r0
    2910:	00010000 	andeq	r0, r1, r0
    2914:	00013850 	andeq	r3, r1, r0, asr r8
    2918:	00013c00 	andeq	r3, r1, r0, lsl #24
    291c:	70000300 	andvc	r0, r0, r0, lsl #6
    2920:	013c9f79 	teqeq	ip, r9, ror pc
    2924:	01600000 	cmneq	r0, r0
    2928:	00010000 	andeq	r0, r1, r0
    292c:	00016053 	andeq	r6, r1, r3, asr r0
    2930:	00017800 	andeq	r7, r1, r0, lsl #16
    2934:	50000100 	andpl	r0, r0, r0, lsl #2
    2938:	00000178 	andeq	r0, r0, r8, ror r1
    293c:	00000180 	andeq	r0, r0, r0, lsl #3
    2940:	01f30004 	mvnseq	r0, r4
    2944:	01809f50 	orreq	r9, r0, r0, asr pc
    2948:	01900000 	orrseq	r0, r0, r0
    294c:	00010000 	andeq	r0, r1, r0
    2950:	00019053 	andeq	r9, r1, r3, asr r0
    2954:	00019f00 	andeq	r9, r1, r0, lsl #30
    2958:	91000200 	mrsls	r0, R8_usr
    295c:	00019f68 	andeq	r9, r1, r8, ror #30
    2960:	0001bc00 	andeq	fp, r1, r0, lsl #24
    2964:	f3000900 	vmls.i8	d0, d0, d0
    2968:	07235001 	streq	r5, [r3, -r1]!
    296c:	9f1af809 	svcls	0x001af809
	...
    297c:	00000144 	andeq	r0, r0, r4, asr #2
    2980:	00000160 	andeq	r0, r0, r0, ror #2
    2984:	80500001 	subshi	r0, r0, r1
    2988:	9c000001 	stcls	0, cr0, [r0], {1}
    298c:	01000001 	tsteq	r0, r1
    2990:	00005000 	andeq	r5, r0, r0
    2994:	00000000 	andeq	r0, r0, r0
    2998:	00030000 	andeq	r0, r3, r0
    299c:	00000134 	andeq	r0, r0, r4, lsr r1
    29a0:	0000013c 	andeq	r0, r0, ip, lsr r1
    29a4:	9f380002 	svcls	0x00380002
	...
    29b0:	00000003 	andeq	r0, r0, r3
    29b4:	00000134 	andeq	r0, r0, r4, lsr r1
    29b8:	00000138 	andeq	r0, r0, r8, lsr r1
    29bc:	38500001 	ldmdacc	r0, {r0}^
    29c0:	3c000001 	stccc	0, cr0, [r0], {1}
    29c4:	03000001 	movweq	r0, #1
    29c8:	9f797000 	svcls	0x00797000
	...
    29e0:	00300000 	eorseq	r0, r0, r0
    29e4:	00600000 	rsbeq	r0, r0, r0
    29e8:	00010000 	andeq	r0, r1, r0
    29ec:	00006050 	andeq	r6, r0, r0, asr r0
    29f0:	00006c00 	andeq	r6, r0, r0, lsl #24
    29f4:	03000500 	movweq	r0, #1280	; 0x500
    29f8:	0000a9bc 			; <UNDEFINED> instruction: 0x0000a9bc
    29fc:	0000006c 	andeq	r0, r0, ip, rrx
    2a00:	00000084 	andeq	r0, r0, r4, lsl #1
    2a04:	84500001 	ldrbhi	r0, [r0], #-1
    2a08:	8c000000 	stchi	0, cr0, [r0], {-0}
    2a0c:	04000000 	streq	r0, [r0], #-0
    2a10:	5001f300 	andpl	pc, r1, r0, lsl #6
    2a14:	00008c9f 	muleq	r0, pc, ip	; <UNPREDICTABLE>
    2a18:	0000ac00 	andeq	sl, r0, r0, lsl #24
    2a1c:	50000100 	andpl	r0, r0, r0, lsl #2
    2a20:	000000ac 	andeq	r0, r0, ip, lsr #1
    2a24:	000000af 	andeq	r0, r0, pc, lsr #1
    2a28:	68910002 	ldmvs	r1, {r1}
    2a2c:	000000af 	andeq	r0, r0, pc, lsr #1
    2a30:	000000cc 	andeq	r0, r0, ip, asr #1
    2a34:	01f30004 	mvnseq	r0, r4
    2a38:	00009f50 	andeq	r9, r0, r0, asr pc
	...
    2a48:	00300000 	eorseq	r0, r0, r0
    2a4c:	00800000 	addeq	r0, r0, r0
    2a50:	00010000 	andeq	r0, r1, r0
    2a54:	00008051 	andeq	r8, r0, r1, asr r0
    2a58:	00008c00 	andeq	r8, r0, r0, lsl #24
    2a5c:	f3000400 	vshl.u8	d0, d0, d0
    2a60:	8c9f5101 	ldfhis	f5, [pc], {1}
    2a64:	a8000000 	stmdage	r0, {}	; <UNPREDICTABLE>
    2a68:	01000000 	mrseq	r0, (UNDEF: 0)
    2a6c:	00a85100 	adceq	r5, r8, r0, lsl #2
    2a70:	00cc0000 	sbceq	r0, ip, r0
    2a74:	00040000 	andeq	r0, r4, r0
    2a78:	9f5101f3 	svcls	0x005101f3
	...
    2a84:	00000001 	andeq	r0, r0, r1
	...
    2a90:	00380000 	eorseq	r0, r8, r0
    2a94:	00600000 	rsbeq	r0, r0, r0
    2a98:	00010000 	andeq	r0, r1, r0
    2a9c:	00006050 	andeq	r6, r0, r0, asr r0
    2aa0:	00006c00 	andeq	r6, r0, r0, lsl #24
    2aa4:	03000500 	movweq	r0, #1280	; 0x500
    2aa8:	0000a9bc 			; <UNDEFINED> instruction: 0x0000a9bc
    2aac:	0000006c 	andeq	r0, r0, ip, rrx
    2ab0:	00000084 	andeq	r0, r0, r4, lsl #1
    2ab4:	84500001 	ldrbhi	r0, [r0], #-1
    2ab8:	8c000000 	stchi	0, cr0, [r0], {-0}
    2abc:	04000000 	streq	r0, [r0], #-0
    2ac0:	5001f300 	andpl	pc, r1, r0, lsl #6
    2ac4:	00008c9f 	muleq	r0, pc, ip	; <UNPREDICTABLE>
    2ac8:	0000ac00 	andeq	sl, r0, r0, lsl #24
    2acc:	50000100 	andpl	r0, r0, r0, lsl #2
    2ad0:	000000ac 	andeq	r0, r0, ip, lsr #1
    2ad4:	000000af 	andeq	r0, r0, pc, lsr #1
    2ad8:	68910002 	ldmvs	r1, {r1}
    2adc:	000000af 	andeq	r0, r0, pc, lsr #1
    2ae0:	000000cc 	andeq	r0, r0, ip, asr #1
    2ae4:	01f30004 	mvnseq	r0, r4
    2ae8:	00009f50 	andeq	r9, r0, r0, asr pc
	...
    2af8:	00000170 	andeq	r0, r0, r0, ror r1
    2afc:	0000017c 	andeq	r0, r0, ip, ror r1
    2b00:	7c500001 	mrrcvc	0, 0, r0, r0, cr1	; <UNPREDICTABLE>
    2b04:	88000001 	stmdahi	r0, {r0}
    2b08:	01000001 	tsteq	r0, r1
    2b0c:	01885400 	orreq	r5, r8, r0, lsl #8
    2b10:	01980000 	orrseq	r0, r8, r0
    2b14:	00040000 	andeq	r0, r4, r0
    2b18:	9f5001f3 	svcls	0x005001f3
	...
    2b2c:	01780000 	cmneq	r8, r0
    2b30:	017c0000 	cmneq	ip, r0
    2b34:	000b0000 	andeq	r0, fp, r0
    2b38:	25350070 	ldrcs	r0, [r5, #-112]!	; 0xffffff90
    2b3c:	8080b423 	addhi	fp, r0, r3, lsr #8
    2b40:	7c9f0281 	lfmvc	f0, 4, [pc], {129}	; 0x81
    2b44:	80000001 	andhi	r0, r0, r1
    2b48:	0b000001 	bleq	2b54 <__code_start__-0x54ac>
    2b4c:	35007400 	strcc	r7, [r0, #-1024]	; 0xfffffc00
    2b50:	80b42325 	adcshi	r2, r4, r5, lsr #6
    2b54:	9f028180 	svcls	0x00028180
    2b58:	00000180 	andeq	r0, r0, r0, lsl #3
    2b5c:	00000183 	andeq	r0, r0, r3, lsl #3
    2b60:	83500001 	cmphi	r0, #1, 0
    2b64:	88000001 	stmdahi	r0, {r0}
    2b68:	0b000001 	bleq	2b74 <__code_start__-0x548c>
    2b6c:	35007400 	strcc	r7, [r0, #-1024]	; 0xfffffc00
    2b70:	80b42325 	adcshi	r2, r4, r5, lsr #6
    2b74:	9f028180 	svcls	0x00028180
    2b78:	00000188 	andeq	r0, r0, r8, lsl #3
    2b7c:	00000198 	muleq	r0, r8, r1
    2b80:	01f3000c 	mvnseq	r0, ip
    2b84:	23253550 			; <UNDEFINED> instruction: 0x23253550
    2b88:	818080b4 	strhhi	r8, [r0, r4]
    2b8c:	00009f02 	andeq	r9, r0, r2, lsl #30
    2b90:	00000000 	andeq	r0, r0, r0
    2b94:	00010000 	andeq	r0, r1, r0
    2b98:	00000000 	andeq	r0, r0, r0
    2b9c:	00000178 	andeq	r0, r0, r8, ror r1
    2ba0:	0000017c 	andeq	r0, r0, ip, ror r1
    2ba4:	00700005 	rsbseq	r0, r0, r5
    2ba8:	7c9f1a4f 	vldmiavc	pc, {s2-s80}
    2bac:	88000001 	stmdahi	r0, {r0}
    2bb0:	05000001 	streq	r0, [r0, #-1]
    2bb4:	4f007400 	svcmi	0x00007400
    2bb8:	01889f1a 	orreq	r9, r8, sl, lsl pc
    2bbc:	01980000 	orrseq	r0, r8, r0
    2bc0:	00010000 	andeq	r0, r1, r0
    2bc4:	00000054 	andeq	r0, r0, r4, asr r0
	...
    2bd8:	00014000 	andeq	r4, r1, r0
    2bdc:	00015400 	andeq	r5, r1, r0, lsl #8
    2be0:	50000100 	andpl	r0, r0, r0, lsl #2
    2be4:	00000154 	andeq	r0, r0, r4, asr r1
    2be8:	00000158 	andeq	r0, r0, r8, asr r1
    2bec:	58510001 	ldmdapl	r1, {r0}^
    2bf0:	5c000001 	stcpl	0, cr0, [r0], {1}
    2bf4:	04000001 	streq	r0, [r0], #-1
    2bf8:	5001f300 	andpl	pc, r1, r0, lsl #6
    2bfc:	00015c9f 	muleq	r1, pc, ip	; <UNPREDICTABLE>
    2c00:	00016000 	andeq	r6, r1, r0
    2c04:	50000100 	andpl	r0, r0, r0, lsl #2
    2c08:	00000160 	andeq	r0, r0, r0, ror #2
    2c0c:	00000164 	andeq	r0, r0, r4, ror #2
    2c10:	64510001 	ldrbvs	r0, [r1], #-1
    2c14:	70000001 	andvc	r0, r0, r1
    2c18:	04000001 	streq	r0, [r0], #-1
    2c1c:	5001f300 	andpl	pc, r1, r0, lsl #6
    2c20:	0000009f 	muleq	r0, pc, r0	; <UNPREDICTABLE>
	...
    2c2c:	00014000 	andeq	r4, r1, r0
    2c30:	00014c00 	andeq	r4, r1, r0, lsl #24
    2c34:	51000100 	mrspl	r0, (UNDEF: 16)
    2c38:	0000014c 	andeq	r0, r0, ip, asr #2
    2c3c:	00000170 	andeq	r0, r0, r0, ror r1
    2c40:	01f30004 	mvnseq	r0, r4
    2c44:	00009f51 	andeq	r9, r0, r1, asr pc
    2c48:	00000000 	andeq	r0, r0, r0
    2c4c:	00010000 	andeq	r0, r1, r0
    2c50:	00000000 	andeq	r0, r0, r0
    2c54:	00000150 	andeq	r0, r0, r0, asr r1
    2c58:	00000154 	andeq	r0, r0, r4, asr r1
    2c5c:	54500001 	ldrbpl	r0, [r0], #-1
    2c60:	58000001 	stmdapl	r0, {r0}
    2c64:	01000001 	tsteq	r0, r1
    2c68:	01585100 	cmpeq	r8, r0, lsl #2
    2c6c:	015c0000 	cmpeq	ip, r0
    2c70:	00040000 	andeq	r0, r4, r0
    2c74:	9f5001f3 	svcls	0x005001f3
	...
    2c80:	00000002 	andeq	r0, r0, r2
    2c84:	015c0000 	cmpeq	ip, r0
    2c88:	01600000 	cmneq	r0, r0
    2c8c:	00010000 	andeq	r0, r1, r0
    2c90:	00016050 	andeq	r6, r1, r0, asr r0
    2c94:	00016400 	andeq	r6, r1, r0, lsl #8
    2c98:	51000100 	mrspl	r0, (UNDEF: 16)
    2c9c:	00000164 	andeq	r0, r0, r4, ror #2
    2ca0:	00000170 	andeq	r0, r0, r0, ror r1
    2ca4:	01f30004 	mvnseq	r0, r4
    2ca8:	00009f50 	andeq	r9, r0, r0, asr pc
	...
    2cb8:	000000e8 	andeq	r0, r0, r8, ror #1
    2cbc:	00000108 	andeq	r0, r0, r8, lsl #2
    2cc0:	08500001 	ldmdaeq	r0, {r0}^
    2cc4:	28000001 	stmdacs	r0, {r0}
    2cc8:	01000001 	tsteq	r0, r1
    2ccc:	01285400 			; <UNDEFINED> instruction: 0x01285400
    2cd0:	01400000 	mrseq	r0, (UNDEF: 64)
    2cd4:	00040000 	andeq	r0, r4, r0
    2cd8:	9f5001f3 	svcls	0x005001f3
	...
    2ce4:	00000002 	andeq	r0, r0, r2
    2ce8:	00e80000 	rsceq	r0, r8, r0
    2cec:	01080000 	mrseq	r0, (UNDEF: 8)
    2cf0:	00010000 	andeq	r0, r1, r0
    2cf4:	00010850 	andeq	r0, r1, r0, asr r8
    2cf8:	00012800 	andeq	r2, r1, r0, lsl #16
    2cfc:	54000100 	strpl	r0, [r0], #-256	; 0xffffff00
    2d00:	00000128 	andeq	r0, r0, r8, lsr #2
    2d04:	00000140 	andeq	r0, r0, r0, asr #2
    2d08:	01f30004 	mvnseq	r0, r4
    2d0c:	00009f50 	andeq	r9, r0, r0, asr pc
	...
    2d1c:	000000f0 	strdeq	r0, [r0], -r0	; <UNPREDICTABLE>
    2d20:	00000108 	andeq	r0, r0, r8, lsl #2
    2d24:	08500001 	ldmdaeq	r0, {r0}^
    2d28:	28000001 	stmdacs	r0, {r0}
    2d2c:	01000001 	tsteq	r0, r1
    2d30:	01285400 			; <UNDEFINED> instruction: 0x01285400
    2d34:	01400000 	mrseq	r0, (UNDEF: 64)
    2d38:	00040000 	andeq	r0, r4, r0
    2d3c:	9f5001f3 	svcls	0x005001f3
	...
    2d48:	00000003 	andeq	r0, r0, r3
    2d4c:	00f00000 	rscseq	r0, r0, r0
    2d50:	01080000 	mrseq	r0, (UNDEF: 8)
    2d54:	00070000 	andeq	r0, r7, r0
    2d58:	1d3a0070 	ldcne	0, cr0, [sl, #-448]!	; 0xfffffe40
    2d5c:	089f1e33 	ldmeq	pc, {r0, r1, r4, r5, r9, sl, fp, ip}	; <UNPREDICTABLE>
    2d60:	28000001 	stmdacs	r0, {r0}
    2d64:	07000001 	streq	r0, [r0, -r1]
    2d68:	3a007400 	bcc	1fd70 <__bss_end__+0x14f78>
    2d6c:	9f1e331d 	svcls	0x001e331d
    2d70:	00000128 	andeq	r0, r0, r8, lsr #2
    2d74:	00000140 	andeq	r0, r0, r0, asr #2
    2d78:	01f30008 	mvnseq	r0, r8
    2d7c:	331d3a50 	tstcc	sp, #80, 20	; 0x50000
    2d80:	00009f1e 	andeq	r9, r0, lr, lsl pc
	...
    2d90:	00000110 	andeq	r0, r0, r0, lsl r1
    2d94:	00000138 	andeq	r0, r0, r8, lsr r1
    2d98:	38560001 	ldmdacc	r6, {r0}^
    2d9c:	3b000001 	blcc	2da8 <__code_start__-0x5258>
    2da0:	01000001 	tsteq	r0, r1
    2da4:	013b5000 	teqeq	fp, r0
    2da8:	01400000 	mrseq	r0, (UNDEF: 64)
    2dac:	00260000 	eoreq	r0, r6, r0
    2db0:	f75001f3 			; <UNDEFINED> instruction: 0xf75001f3
    2db4:	f425f72c 	vld1.8	{d15}, [r5 :128], ip
    2db8:	cccd0825 	stclgt	8, cr0, [sp], {37}	; 0x25
    2dbc:	0000cccc 	andeq	ip, r0, ip, asr #25
    2dc0:	081e0000 	ldmdaeq	lr, {}	; <UNPREDICTABLE>
    2dc4:	2525f720 	strcs	pc, [r5, #-1824]!	; 0xfffff8e0
    2dc8:	00f72cf7 	ldrshteq	r2, [r7], #199	; 0xc7
    2dcc:	80232533 	eorhi	r2, r3, r3, lsr r5
    2dd0:	3240a080 	subcc	sl, r0, #128, 0	; 0x80
    2dd4:	00009f24 	andeq	r9, r0, r4, lsr #30
    2dd8:	00000000 	andeq	r0, r0, r0
    2ddc:	01000000 	mrseq	r0, (UNDEF: 0)
    2de0:	00000001 	andeq	r0, r0, r1
    2de4:	01200000 			; <UNDEFINED> instruction: 0x01200000
    2de8:	01200000 			; <UNDEFINED> instruction: 0x01200000
    2dec:	00010000 	andeq	r0, r1, r0
    2df0:	00012050 	andeq	r2, r1, r0, asr r0
    2df4:	00012800 	andeq	r2, r1, r0, lsl #16
    2df8:	37000d00 	strcc	r0, [r0, -r0, lsl #26]
    2dfc:	1d3a0074 	ldcne	0, cr0, [sl, #-464]!	; 0xfffffe30
    2e00:	20241e33 	eorcs	r1, r4, r3, lsr lr
    2e04:	9f1a0070 	svcls	0x001a0070
    2e08:	00000128 	andeq	r0, r0, r8, lsr #2
    2e0c:	00000130 	andeq	r0, r0, r0, lsr r1
    2e10:	f337000e 	vhadd.u<illegal width 64>	d0, d7, d14
    2e14:	1d3a5001 	ldcne	0, cr5, [sl, #-4]!
    2e18:	20241e33 	eorcs	r1, r4, r3, lsr lr
    2e1c:	9f1a0070 	svcls	0x001a0070
    2e20:	00000130 	andeq	r0, r0, r0, lsr r1
    2e24:	0000013b 	andeq	r0, r0, fp, lsr r1
    2e28:	f337000e 	vhadd.u<illegal width 64>	d0, d7, d14
    2e2c:	1d3a5001 	ldcne	0, cr5, [sl, #-4]!
    2e30:	20241e33 	eorcs	r1, r4, r3, lsr lr
    2e34:	9f1a0073 	svcls	0x001a0073
	...
    2e44:	00000060 	andeq	r0, r0, r0, rrx
    2e48:	00000090 	muleq	r0, r0, r0
    2e4c:	90500001 	subsls	r0, r0, r1
    2e50:	b8000000 	stmdalt	r0, {}	; <UNPREDICTABLE>
    2e54:	04000000 	streq	r0, [r0], #-0
    2e58:	5001f300 	andpl	pc, r1, r0, lsl #6
    2e5c:	0000009f 	muleq	r0, pc, r0	; <UNPREDICTABLE>
    2e60:	00000000 	andeq	r0, r0, r0
    2e64:	00000200 	andeq	r0, r0, r0, lsl #4
    2e68:	00006000 	andeq	r6, r0, r0
    2e6c:	00009000 	andeq	r9, r0, r0
    2e70:	50000100 	andpl	r0, r0, r0, lsl #2
    2e74:	00000090 	muleq	r0, r0, r0
    2e78:	000000b8 	strheq	r0, [r0], -r8
    2e7c:	01f30004 	mvnseq	r0, r4
    2e80:	00009f50 	andeq	r9, r0, r0, asr pc
	...
    2e8c:	00680000 	rsbeq	r0, r8, r0
    2e90:	00900000 	addseq	r0, r0, r0
    2e94:	00010000 	andeq	r0, r1, r0
    2e98:	00009050 	andeq	r9, r0, r0, asr r0
    2e9c:	0000b800 	andeq	fp, r0, r0, lsl #16
    2ea0:	f3000400 	vshl.u8	d0, d0, d0
    2ea4:	009f5001 	addseq	r5, pc, r1
	...
    2eb0:	a0000000 	andge	r0, r0, r0
    2eb4:	b0000000 	andlt	r0, r0, r0
    2eb8:	01000000 	mrseq	r0, (UNDEF: 0)
    2ebc:	00b05400 	adcseq	r5, r0, r0, lsl #8
    2ec0:	00b80000 	adcseq	r0, r8, r0
    2ec4:	00290000 	eoreq	r0, r9, r0
    2ec8:	f35001f3 	vbsl	q8, q8, <illegal reg q9.5>
    2ecc:	2cf75001 	ldclcs	0, cr5, [r7], #4
    2ed0:	25f425f7 	ldrbcs	r2, [r4, #1527]!	; 0x5f7
    2ed4:	cccccd08 	stclgt	13, cr12, [ip], {8}
    2ed8:	000000cc 	andeq	r0, r0, ip, asr #1
    2edc:	20081e00 	andcs	r1, r8, r0, lsl #28
    2ee0:	f72525f7 			; <UNDEFINED> instruction: 0xf72525f7
    2ee4:	3300f72c 	movwcc	pc, #1836	; 0x72c	; <UNPREDICTABLE>
    2ee8:	311e3525 	tstcc	lr, r5, lsr #10
    2eec:	1e331c24 	cdpne	12, 3, cr1, cr3, cr4, {1}
    2ef0:	0000009f 	muleq	r0, pc, r0	; <UNPREDICTABLE>
    2ef4:	00000000 	andeq	r0, r0, r0
    2ef8:	00000100 	andeq	r0, r0, r0, lsl #2
    2efc:	a0000000 	andge	r0, r0, r0
    2f00:	b0000000 	andlt	r0, r0, r0
    2f04:	01000000 	mrseq	r0, (UNDEF: 0)
    2f08:	00b05500 	adcseq	r5, r0, r0, lsl #10
    2f0c:	00b30000 	adcseq	r0, r3, r0
    2f10:	00010000 	andeq	r0, r1, r0
    2f14:	0000b350 	andeq	fp, r0, r0, asr r3
    2f18:	0000b800 	andeq	fp, r0, r0, lsl #16
    2f1c:	f3002600 	vmax.u8	d2, d0, d0
    2f20:	2cf75001 	ldclcs	0, cr5, [r7], #4
    2f24:	25f425f7 	ldrbcs	r2, [r4, #1527]!	; 0x5f7
    2f28:	cccccd08 	stclgt	13, cr12, [ip], {8}
    2f2c:	000000cc 	andeq	r0, r0, ip, asr #1
    2f30:	20081e00 	andcs	r1, r8, r0, lsl #28
    2f34:	f72525f7 			; <UNDEFINED> instruction: 0xf72525f7
    2f38:	3300f72c 	movwcc	pc, #1836	; 0x72c	; <UNPREDICTABLE>
    2f3c:	80802325 	addhi	r2, r0, r5, lsr #6
    2f40:	243240a0 	ldrtcs	r4, [r2], #-160	; 0xffffff60
    2f44:	0000009f 	muleq	r0, pc, r0	; <UNPREDICTABLE>
    2f48:	00000000 	andeq	r0, r0, r0
    2f4c:	00000200 	andeq	r0, r0, r0, lsl #4
    2f50:	00000101 	andeq	r0, r0, r1, lsl #2
    2f54:	0000a000 	andeq	sl, r0, r0
    2f58:	0000a400 	andeq	sl, r0, r0, lsl #8
    2f5c:	50000100 	andpl	r0, r0, r0, lsl #2
    2f60:	000000a4 	andeq	r0, r0, r4, lsr #1
    2f64:	000000a4 	andeq	r0, r0, r4, lsr #1
    2f68:	a4530001 	ldrbge	r0, [r3], #-1
    2f6c:	a8000000 	stmdage	r0, {}	; <UNPREDICTABLE>
    2f70:	08000000 	stmdaeq	r0, {}	; <UNPREDICTABLE>
    2f74:	00743100 	rsbseq	r3, r4, r0, lsl #2
    2f78:	21007324 	tstcs	r0, r4, lsr #6
    2f7c:	0000a89f 	muleq	r0, pc, r8	; <UNPREDICTABLE>
    2f80:	0000b300 	andeq	fp, r0, r0, lsl #6
    2f84:	51000100 	mrspl	r0, (UNDEF: 16)
	...
    2f98:	0000003c 	andeq	r0, r0, ip, lsr r0
    2f9c:	3c500001 	mrrccc	0, 0, r0, r0, cr1	; <UNPREDICTABLE>
    2fa0:	60000000 	andvs	r0, r0, r0
    2fa4:	04000000 	streq	r0, [r0], #-0
    2fa8:	5001f300 	andpl	pc, r1, r0, lsl #6
    2fac:	0000009f 	muleq	r0, pc, r0	; <UNPREDICTABLE>
	...
    2fbc:	00003f00 	andeq	r3, r0, r0, lsl #30
    2fc0:	51000100 	mrspl	r0, (UNDEF: 16)
    2fc4:	0000003f 	andeq	r0, r0, pc, lsr r0
    2fc8:	00000060 	andeq	r0, r0, r0, rrx
    2fcc:	01f30004 	mvnseq	r0, r4
    2fd0:	00009f51 	andeq	r9, r0, r1, asr pc
	...
    2fdc:	00080000 	andeq	r0, r8, r0
    2fe0:	003f0000 	eorseq	r0, pc, r0
    2fe4:	00010000 	andeq	r0, r1, r0
    2fe8:	00003f51 	andeq	r3, r0, r1, asr pc
    2fec:	00006000 	andeq	r6, r0, r0
    2ff0:	f3000400 	vshl.u8	d0, d0, d0
    2ff4:	009f5101 	addseq	r5, pc, r1, lsl #2
	...
    3000:	08000000 	stmdaeq	r0, {}	; <UNPREDICTABLE>
    3004:	3c000000 	stccc	0, cr0, [r0], {-0}
    3008:	01000000 	mrseq	r0, (UNDEF: 0)
    300c:	003c5000 	eorseq	r5, ip, r0
    3010:	00600000 	rsbeq	r0, r0, r0
    3014:	00040000 	andeq	r0, r4, r0
    3018:	9f5001f3 	svcls	0x005001f3
	...
    3028:	00000048 	andeq	r0, r0, r8, asr #32
    302c:	00000058 	andeq	r0, r0, r8, asr r0
    3030:	58540001 	ldmdapl	r4, {r0}^
    3034:	60000000 	andvs	r0, r0, r0
    3038:	29000000 	stmdbcs	r0, {}	; <UNPREDICTABLE>
    303c:	5001f300 	andpl	pc, r1, r0, lsl #6
    3040:	f75001f3 			; <UNDEFINED> instruction: 0xf75001f3
    3044:	f425f72c 	vld1.8	{d15}, [r5 :128], ip
    3048:	cccd0825 	stclgt	8, cr0, [sp], {37}	; 0x25
    304c:	0000cccc 	andeq	ip, r0, ip, asr #25
    3050:	081e0000 	ldmdaeq	lr, {}	; <UNPREDICTABLE>
    3054:	2525f720 	strcs	pc, [r5, #-1824]!	; 0xfffff8e0
    3058:	00f72cf7 	ldrshteq	r2, [r7], #199	; 0xc7
    305c:	1e352533 	mrcne	5, 1, r2, cr5, cr3, {1}
    3060:	331c2431 	tstcc	ip, #822083584	; 0x31000000
    3064:	00009f1e 	andeq	r9, r0, lr, lsl pc
    3068:	00000000 	andeq	r0, r0, r0
    306c:	00010000 	andeq	r0, r1, r0
    3070:	00000000 	andeq	r0, r0, r0
    3074:	00000048 	andeq	r0, r0, r8, asr #32
    3078:	00000058 	andeq	r0, r0, r8, asr r0
    307c:	58560001 	ldmdapl	r6, {r0}^
    3080:	5b000000 	blpl	3088 <__code_start__-0x4f78>
    3084:	01000000 	mrseq	r0, (UNDEF: 0)
    3088:	005b5000 	subseq	r5, fp, r0
    308c:	00600000 	rsbeq	r0, r0, r0
    3090:	00260000 	eoreq	r0, r6, r0
    3094:	f75001f3 			; <UNDEFINED> instruction: 0xf75001f3
    3098:	f425f72c 	vld1.8	{d15}, [r5 :128], ip
    309c:	cccd0825 	stclgt	8, cr0, [sp], {37}	; 0x25
    30a0:	0000cccc 	andeq	ip, r0, ip, asr #25
    30a4:	081e0000 	ldmdaeq	lr, {}	; <UNPREDICTABLE>
    30a8:	2525f720 	strcs	pc, [r5, #-1824]!	; 0xfffff8e0
    30ac:	00f72cf7 	ldrshteq	r2, [r7], #199	; 0xc7
    30b0:	80232533 	eorhi	r2, r3, r3, lsr r5
    30b4:	3240a080 	subcc	sl, r0, #128, 0	; 0x80
    30b8:	00009f24 	andeq	r9, r0, r4, lsr #30
    30bc:	00000000 	andeq	r0, r0, r0
    30c0:	00020000 	andeq	r0, r2, r0
    30c4:	00010100 	andeq	r0, r1, r0, lsl #2
    30c8:	00480000 	subeq	r0, r8, r0
    30cc:	004c0000 	subeq	r0, ip, r0
    30d0:	00010000 	andeq	r0, r1, r0
    30d4:	00004c50 	andeq	r4, r0, r0, asr ip
    30d8:	00004c00 	andeq	r4, r0, r0, lsl #24
    30dc:	51000100 	mrspl	r0, (UNDEF: 16)
    30e0:	0000004c 	andeq	r0, r0, ip, asr #32
    30e4:	00000050 	andeq	r0, r0, r0, asr r0
    30e8:	0075000c 	rsbseq	r0, r5, ip
    30ec:	741aff08 	ldrvc	pc, [sl], #-3848	; 0xfffff0f8
    30f0:	00712400 	rsbseq	r2, r1, r0, lsl #8
    30f4:	00509f21 	subseq	r9, r0, r1, lsr #30
    30f8:	00540000 	subseq	r0, r4, r0
    30fc:	00120000 	andseq	r0, r2, r0
    3100:	24007437 	strcs	r7, [r0], #-1079	; 0xfffffbc9
    3104:	1a007020 	bne	1f18c <__bss_end__+0x14394>
    3108:	ff080075 			; <UNDEFINED> instruction: 0xff080075
    310c:	2400741a 	strcs	r7, [r0], #-1050	; 0xfffffbe6
    3110:	00009f21 	andeq	r9, r0, r1, lsr #30
	...
    3120:	000000b8 	strheq	r0, [r0], -r8
    3124:	000000c4 	andeq	r0, r0, r4, asr #1
    3128:	c4500001 	ldrbgt	r0, [r0], #-1
    312c:	cb000000 	blgt	3134 <__code_start__-0x4ecc>
    3130:	01000000 	mrseq	r0, (UNDEF: 0)
    3134:	00cb5300 	sbceq	r5, fp, r0, lsl #6
    3138:	00d00000 	sbcseq	r0, r0, r0
    313c:	00040000 	andeq	r0, r4, r0
    3140:	9f5001f3 	svcls	0x005001f3
	...
    3150:	00d00000 	sbcseq	r0, r0, r0
    3154:	00dc0000 	sbcseq	r0, ip, r0
    3158:	00010000 	andeq	r0, r1, r0
    315c:	0000dc50 	andeq	sp, r0, r0, asr ip
    3160:	0000e300 	andeq	lr, r0, r0, lsl #6
    3164:	53000100 	movwpl	r0, #256	; 0x100
    3168:	000000e3 	andeq	r0, r0, r3, ror #1
    316c:	000000e8 	andeq	r0, r0, r8, ror #1
    3170:	01f30004 	mvnseq	r0, r4
    3174:	00009f50 	andeq	r9, r0, r0, asr pc
	...
    3184:	000b0000 	andeq	r0, fp, r0
    3188:	00010000 	andeq	r0, r1, r0
    318c:	00000b50 	andeq	r0, r0, r0, asr fp
    3190:	00001400 	andeq	r1, r0, r0, lsl #8
    3194:	54000100 	strpl	r0, [r0], #-256	; 0xffffff00
	...
    31a8:	00000018 	andeq	r0, r0, r8, lsl r0
    31ac:	18510001 	ldmdane	r1, {r0}^
    31b0:	2c000000 	stccs	0, cr0, [r0], {-0}
    31b4:	04000000 	streq	r0, [r0], #-0
    31b8:	5101f300 	mrspl	pc, SP_irq	; <UNPREDICTABLE>
    31bc:	0000009f 	muleq	r0, pc, r0	; <UNPREDICTABLE>
    31c0:	00000000 	andeq	r0, r0, r0
    31c4:	00000200 	andeq	r0, r0, r0, lsl #4
    31c8:	00000000 	andeq	r0, r0, r0
    31cc:	01010000 	mrseq	r0, (UNDEF: 1)
    31d0:	00000000 	andeq	r0, r0, r0
    31d4:	04000000 	streq	r0, [r0], #-0
    31d8:	01000000 	mrseq	r0, (UNDEF: 0)
    31dc:	00045000 	andeq	r5, r4, r0
    31e0:	00080000 	andeq	r0, r8, r0
    31e4:	00010000 	andeq	r0, r1, r0
    31e8:	00000852 	andeq	r0, r0, r2, asr r8
    31ec:	00000c00 	andeq	r0, r0, r0, lsl #24
    31f0:	72000300 	andvc	r0, r0, #0, 6
    31f4:	000c9f01 	andeq	r9, ip, r1, lsl #30
    31f8:	00180000 	andseq	r0, r8, r0
    31fc:	00010000 	andeq	r0, r1, r0
    3200:	00001852 	andeq	r1, r0, r2, asr r8
    3204:	00001c00 	andeq	r1, r0, r0, lsl #24
    3208:	53000100 	movwpl	r0, #256	; 0x100
    320c:	0000001c 	andeq	r0, r0, ip, lsl r0
    3210:	00000024 	andeq	r0, r0, r4, lsr #32
    3214:	01730003 	cmneq	r3, r3
    3218:	0000249f 	muleq	r0, pc, r4	; <UNPREDICTABLE>
    321c:	00002c00 	andeq	r2, r0, r0, lsl #24
    3220:	53000100 	movwpl	r0, #256	; 0x100
	...
    322c:	00020203 	andeq	r0, r2, r3, lsl #4
    3230:	00000000 	andeq	r0, r0, r0
    3234:	00180000 	andseq	r0, r8, r0
    3238:	00010000 	andeq	r0, r1, r0
    323c:	00001851 	andeq	r1, r0, r1, asr r8
    3240:	00001c00 	andeq	r1, r0, r0, lsl #24
    3244:	71000300 	mrsvc	r0, LR_irq
    3248:	001c9f01 	andseq	r9, ip, r1, lsl #30
    324c:	002c0000 	eoreq	r0, ip, r0
    3250:	00010000 	andeq	r0, r1, r0
    3254:	00000051 	andeq	r0, r0, r1, asr r0
	...
    3260:	08000000 	stmdaeq	r0, {}	; <UNPREDICTABLE>
    3264:	0c000000 	stceq	0, cr0, [r0], {-0}
    3268:	02000000 	andeq	r0, r0, #0, 0
    326c:	0c007200 	sfmeq	f7, 4, [r0], {-0}
    3270:	18000000 	stmdane	r0, {}	; <UNPREDICTABLE>
    3274:	02000000 	andeq	r0, r0, #0, 0
    3278:	1c007300 	stcne	3, cr7, [r0], {-0}
    327c:	2c000000 	stccs	0, cr0, [r0], {-0}
    3280:	01000000 	mrseq	r0, (UNDEF: 0)
    3284:	00005200 	andeq	r5, r0, r0, lsl #4
	...
    329c:	00140000 	andseq	r0, r4, r0
    32a0:	00010000 	andeq	r0, r1, r0
    32a4:	00001450 	andeq	r1, r0, r0, asr r4
    32a8:	00001800 	andeq	r1, r0, r0, lsl #16
    32ac:	70000300 	andvc	r0, r0, r0, lsl #6
    32b0:	00189f01 	andseq	r9, r8, r1, lsl #30
    32b4:	00200000 	eoreq	r0, r0, r0
    32b8:	00010000 	andeq	r0, r1, r0
    32bc:	00002450 	andeq	r2, r0, r0, asr r4
    32c0:	00002800 	andeq	r2, r0, r0, lsl #16
    32c4:	50000100 	andpl	r0, r0, r0, lsl #2
    32c8:	00000028 	andeq	r0, r0, r8, lsr #32
    32cc:	00000030 	andeq	r0, r0, r0, lsr r0
    32d0:	01700003 	cmneq	r0, r3
    32d4:	0000389f 	muleq	r0, pc, r8	; <UNPREDICTABLE>
    32d8:	00004000 	andeq	r4, r0, r0
    32dc:	50000100 	andpl	r0, r0, r0, lsl #2
	...
    32f0:	00240000 	eoreq	r0, r4, r0
    32f4:	00010000 	andeq	r0, r1, r0
    32f8:	00002451 	andeq	r2, r0, r1, asr r4
    32fc:	00002800 	andeq	r2, r0, r0, lsl #16
    3300:	5c000100 	stfpls	f0, [r0], {-0}
    3304:	00000028 	andeq	r0, r0, r8, lsr #32
    3308:	00000044 	andeq	r0, r0, r4, asr #32
    330c:	00510001 	subseq	r0, r1, r1
	...
    3318:	00000202 	andeq	r0, r0, r2, lsl #4
    331c:	00000000 	andeq	r0, r0, r0
    3320:	00000400 	andeq	r0, r0, r0, lsl #8
    3324:	51000100 	mrspl	r0, (UNDEF: 16)
    3328:	00000004 	andeq	r0, r0, r4
    332c:	00000008 	andeq	r0, r0, r8
    3330:	01710003 	cmneq	r1, r3
    3334:	0000089f 	muleq	r0, pc, r8	; <UNPREDICTABLE>
    3338:	00001800 	andeq	r1, r0, r0, lsl #16
    333c:	51000100 	mrspl	r0, (UNDEF: 16)
	...
    3348:	00000002 	andeq	r0, r0, r2
    334c:	00040000 	andeq	r0, r4, r0
    3350:	00010000 	andeq	r0, r1, r0
    3354:	00000050 	andeq	r0, r0, r0, asr r0
	...
    3364:	00000800 	andeq	r0, r0, r0, lsl #16
    3368:	50000100 	andpl	r0, r0, r0, lsl #2
    336c:	00000008 	andeq	r0, r0, r8
    3370:	00000030 	andeq	r0, r0, r0, lsr r0
    3374:	01f30004 	mvnseq	r0, r4
    3378:	00009f50 	andeq	r9, r0, r0, asr pc
	...
    3388:	00080000 	andeq	r0, r8, r0
    338c:	00010000 	andeq	r0, r1, r0
    3390:	00000851 	andeq	r0, r0, r1, asr r8
    3394:	00003000 	andeq	r3, r0, r0
    3398:	f3000400 	vshl.u8	d0, d0, d0
    339c:	009f5101 	addseq	r5, pc, r1, lsl #2
	...
    33ac:	02020100 	andeq	r0, r2, #0
    33b0:	00000000 	andeq	r0, r0, r0
    33b4:	00000400 	andeq	r0, r0, r0, lsl #8
    33b8:	52000100 	andpl	r0, r0, #0
    33bc:	00000004 	andeq	r0, r0, r4
    33c0:	00000008 	andeq	r0, r0, r8
    33c4:	01f30004 	mvnseq	r0, r4
    33c8:	00089f52 	andeq	r9, r8, r2, asr pc
    33cc:	00180000 	andseq	r0, r8, r0
    33d0:	00060000 	andeq	r0, r6, r0
    33d4:	315201f3 	ldrshcc	r0, [r2, #-19]	; 0xffffffed
    33d8:	00189f1c 	andseq	r9, r8, ip, lsl pc
    33dc:	00180000 	andseq	r0, r8, r0
    33e0:	00040000 	andeq	r0, r4, r0
    33e4:	9f5201f3 	svcls	0x005201f3
    33e8:	00000018 	andeq	r0, r0, r8, lsl r0
    33ec:	00000030 	andeq	r0, r0, r0, lsr r0
    33f0:	01f30006 	mvnseq	r0, r6
    33f4:	9f1c3152 	svcls	0x001c3152
	...
    3400:	00000002 	andeq	r0, r0, r2
    3404:	00000001 	andeq	r0, r0, r1
    3408:	00000000 	andeq	r0, r0, r0
    340c:	0000000c 	andeq	r0, r0, ip
    3410:	0c500001 	mrrceq	0, 0, r0, r0, cr1	; <UNPREDICTABLE>
    3414:	18000000 	stmdane	r0, {}	; <UNPREDICTABLE>
    3418:	03000000 	movweq	r0, #0
    341c:	9f7f7000 	svcls	0x007f7000
    3420:	00000018 	andeq	r0, r0, r8, lsl r0
    3424:	00000024 	andeq	r0, r0, r4, lsr #32
    3428:	28500001 	ldmdacs	r0, {r0}^
    342c:	2c000000 	stccs	0, cr0, [r0], {-0}
    3430:	03000000 	movweq	r0, #0
    3434:	9f7f7000 	svcls	0x007f7000
	...
    3440:	00000002 	andeq	r0, r0, r2
    3444:	00000000 	andeq	r0, r0, r0
    3448:	000c0000 	andeq	r0, ip, r0
    344c:	00010000 	andeq	r0, r1, r0
    3450:	00000c51 	andeq	r0, r0, r1, asr ip
    3454:	00001000 	andeq	r1, r0, r0
    3458:	71000300 	mrsvc	r0, LR_irq
    345c:	00109f01 	andseq	r9, r0, r1, lsl #30
    3460:	00300000 	eorseq	r0, r0, r0
    3464:	00010000 	andeq	r0, r1, r0
    3468:	00000051 	andeq	r0, r0, r1, asr r0
    346c:	00000000 	andeq	r0, r0, r0
	...

Disassembly of section .debug_aranges:

00000000 <.debug_aranges>:
   0:	0000001c 	andeq	r0, r0, ip, lsl r0
   4:	00000002 	andeq	r0, r0, r2
   8:	00040000 	andeq	r0, r4, r0
   c:	00000000 	andeq	r0, r0, r0
  10:	00008038 	andeq	r8, r0, r8, lsr r0
  14:	000000ec 	andeq	r0, r0, ip, ror #1
	...
  20:	0000001c 	andeq	r0, r0, ip, lsl r0
  24:	03360002 	teqeq	r6, #2, 0
  28:	00040000 	andeq	r0, r4, r0
  2c:	00000000 	andeq	r0, r0, r0
  30:	00008124 	andeq	r8, r0, r4, lsr #2
  34:	000002e8 	andeq	r0, r0, r8, ror #5
	...
  40:	0000001c 	andeq	r0, r0, ip, lsl r0
  44:	0abf0002 	beq	fefc0054 <__bss_end__+0xfefb525c>
  48:	00040000 	andeq	r0, r4, r0
  4c:	00000000 	andeq	r0, r0, r0
  50:	0000840c 	andeq	r8, r0, ip, lsl #8
  54:	000001ac 	andeq	r0, r0, ip, lsr #3
	...
  60:	0000001c 	andeq	r0, r0, ip, lsl r0
  64:	0d850002 	stceq	0, cr0, [r5, #8]
  68:	00040000 	andeq	r0, r4, r0
  6c:	00000000 	andeq	r0, r0, r0
  70:	000085b8 			; <UNDEFINED> instruction: 0x000085b8
  74:	00000604 	andeq	r0, r0, r4, lsl #12
	...
  80:	0000001c 	andeq	r0, r0, ip, lsl r0
  84:	1ab60002 	bne	fed80094 <__bss_end__+0xfed7529c>
  88:	00040000 	andeq	r0, r4, r0
  8c:	00000000 	andeq	r0, r0, r0
  90:	00008bc4 	andeq	r8, r0, r4, asr #23
  94:	00000078 	andeq	r0, r0, r8, ror r0
	...
  a0:	0000001c 	andeq	r0, r0, ip, lsl r0
  a4:	1bfa0002 	blne	ffe800b4 <__bss_end__+0xffe752bc>
  a8:	00040000 	andeq	r0, r4, r0
  ac:	00000000 	andeq	r0, r0, r0
  b0:	00008c3c 	andeq	r8, r0, ip, lsr ip
  b4:	00000058 	andeq	r0, r0, r8, asr r0
	...
  c0:	0000001c 	andeq	r0, r0, ip, lsl r0
  c4:	1d9b0002 	ldcne	0, cr0, [fp, #8]
  c8:	00040000 	andeq	r0, r4, r0
  cc:	00000000 	andeq	r0, r0, r0
  d0:	00008c94 	muleq	r0, r4, ip
  d4:	00000038 	andeq	r0, r0, r8, lsr r0
	...
  e0:	0000001c 	andeq	r0, r0, ip, lsl r0
  e4:	1e920002 	cdpne	0, 9, cr0, cr2, cr2, {0}
  e8:	00040000 	andeq	r0, r4, r0
  ec:	00000000 	andeq	r0, r0, r0
  f0:	00008ccc 	andeq	r8, r0, ip, asr #25
  f4:	000009b4 			; <UNDEFINED> instruction: 0x000009b4
	...
 100:	0000001c 	andeq	r0, r0, ip, lsl r0
 104:	2b150002 	blcs	540114 <__bss_end__+0x53531c>
 108:	00040000 	andeq	r0, r4, r0
 10c:	00000000 	andeq	r0, r0, r0
 110:	00009680 	andeq	r9, r0, r0, lsl #13
 114:	0000002c 	andeq	r0, r0, ip, lsr #32
	...
 120:	0000001c 	andeq	r0, r0, ip, lsl r0
 124:	2c480002 	mcrrcs	0, 0, r0, r8, cr2
 128:	00040000 	andeq	r0, r4, r0
 12c:	00000000 	andeq	r0, r0, r0
 130:	000096ac 	andeq	r9, r0, ip, lsr #13
 134:	000000f8 	strdeq	r0, [r0], -r8
	...
 140:	0000001c 	andeq	r0, r0, ip, lsl r0
 144:	2ddc0002 	ldclcs	0, cr0, [ip, #8]
 148:	00040000 	andeq	r0, r4, r0
 14c:	00000000 	andeq	r0, r0, r0
 150:	000097a4 	andeq	r9, r0, r4, lsr #15
 154:	00000004 	andeq	r0, r0, r4
	...
 160:	0000001c 	andeq	r0, r0, ip, lsl r0
 164:	2eae0002 	cdpcs	0, 10, cr0, cr14, cr2, {0}
 168:	00040000 	andeq	r0, r4, r0
 16c:	00000000 	andeq	r0, r0, r0
 170:	000097a8 	andeq	r9, r0, r8, lsr #15
 174:	0000008c 	andeq	r0, r0, ip, lsl #1
	...
 180:	0000001c 	andeq	r0, r0, ip, lsl r0
 184:	312f0002 			; <UNDEFINED> instruction: 0x312f0002
 188:	00040000 	andeq	r0, r4, r0
 18c:	00000000 	andeq	r0, r0, r0
 190:	00009834 	andeq	r9, r0, r4, lsr r8
 194:	0000011c 	andeq	r0, r0, ip, lsl r1
	...
 1a0:	0000001c 	andeq	r0, r0, ip, lsl r0
 1a4:	36720002 	ldrbtcc	r0, [r2], -r2
 1a8:	00040000 	andeq	r0, r4, r0
 1ac:	00000000 	andeq	r0, r0, r0
 1b0:	00009950 	andeq	r9, r0, r0, asr r9
 1b4:	000001f0 	strdeq	r0, [r0], -r0	; <UNPREDICTABLE>
	...
 1c0:	0000001c 	andeq	r0, r0, ip, lsl r0
 1c4:	3c430002 	mcrrcc	0, 0, r0, r3, cr2
 1c8:	00040000 	andeq	r0, r4, r0
 1cc:	00000000 	andeq	r0, r0, r0
 1d0:	00009b40 	andeq	r9, r0, r0, asr #22
 1d4:	000003b0 			; <UNDEFINED> instruction: 0x000003b0
	...
 1e0:	0000001c 	andeq	r0, r0, ip, lsl r0
 1e4:	45300002 	ldrmi	r0, [r0, #-2]!
 1e8:	00040000 	andeq	r0, r4, r0
 1ec:	00000000 	andeq	r0, r0, r0
 1f0:	00009ef0 	strdeq	r9, [r0], -r0
 1f4:	00000198 	muleq	r0, r8, r1
	...
 200:	0000001c 	andeq	r0, r0, ip, lsl r0
 204:	4ba70002 	blmi	fe9c0214 <__bss_end__+0xfe9b541c>
 208:	00040000 	andeq	r0, r4, r0
 20c:	00000000 	andeq	r0, r0, r0
 210:	0000a088 	andeq	sl, r0, r8, lsl #1
 214:	0000003c 	andeq	r0, r0, ip, lsr r0
	...
 220:	0000001c 	andeq	r0, r0, ip, lsl r0
 224:	4cf40002 	ldclmi	0, cr0, [r4], #8
 228:	00040000 	andeq	r0, r4, r0
 22c:	00000000 	andeq	r0, r0, r0
 230:	0000a0c4 	andeq	sl, r0, r4, asr #1
 234:	0000002c 	andeq	r0, r0, ip, lsr #32
	...
 240:	0000001c 	andeq	r0, r0, ip, lsl r0
 244:	4e2f0002 	cdpmi	0, 2, cr0, cr15, cr2, {0}
 248:	00040000 	andeq	r0, r4, r0
 24c:	00000000 	andeq	r0, r0, r0
 250:	0000a0f0 	strdeq	sl, [r0], -r0
 254:	00000044 	andeq	r0, r0, r4, asr #32
	...
 260:	0000001c 	andeq	r0, r0, ip, lsl r0
 264:	4f2a0002 	svcmi	0x002a0002
 268:	00040000 	andeq	r0, r4, r0
 26c:	00000000 	andeq	r0, r0, r0
 270:	0000a134 	andeq	sl, r0, r4, lsr r1
 274:	00000018 	andeq	r0, r0, r8, lsl r0
	...
 280:	0000001c 	andeq	r0, r0, ip, lsl r0
 284:	503d0002 	eorspl	r0, sp, r2
 288:	00040000 	andeq	r0, r4, r0
 28c:	00000000 	andeq	r0, r0, r0
 290:	0000a14c 	andeq	sl, r0, ip, asr #2
 294:	00000030 	andeq	r0, r0, r0, lsr r0
	...
 2a0:	0000001c 	andeq	r0, r0, ip, lsl r0
 2a4:	518f0002 	orrpl	r0, pc, r2
 2a8:	00040000 	andeq	r0, r4, r0
 2ac:	00000000 	andeq	r0, r0, r0
 2b0:	0000a17c 	andeq	sl, r0, ip, ror r1
 2b4:	00000004 	andeq	r0, r0, r4
	...

Disassembly of section .debug_ranges:

00000000 <.debug_ranges>:
   0:	00000008 	andeq	r0, r0, r8
   4:	0000000c 	andeq	r0, r0, ip
   8:	00000010 	andeq	r0, r0, r0, lsl r0
   c:	000000a4 	andeq	r0, r0, r4, lsr #1
	...
  18:	00000014 	andeq	r0, r0, r4, lsl r0
  1c:	00000034 	andeq	r0, r0, r4, lsr r0
  20:	00000038 	andeq	r0, r0, r8, lsr r0
  24:	0000003c 	andeq	r0, r0, ip, lsr r0
  28:	00000044 	andeq	r0, r0, r4, asr #32
  2c:	000000a4 	andeq	r0, r0, r4, lsr #1
	...
  38:	000000ec 	andeq	r0, r0, ip, ror #1
  3c:	00000108 	andeq	r0, r0, r8, lsl #2
  40:	00000114 	andeq	r0, r0, r4, lsl r1
  44:	000001a0 	andeq	r0, r0, r0, lsr #3
	...
  50:	000000ec 	andeq	r0, r0, ip, ror #1
  54:	00000108 	andeq	r0, r0, r8, lsl #2
  58:	00000124 	andeq	r0, r0, r4, lsr #2
  5c:	000001a0 	andeq	r0, r0, r0, lsr #3
	...
  68:	0000028c 	andeq	r0, r0, ip, lsl #5
  6c:	00000294 	muleq	r0, r4, r2
  70:	000002a0 	andeq	r0, r0, r0, lsr #5
  74:	000002fc 	strdeq	r0, [r0], -ip
	...
  80:	0000039c 	muleq	r0, ip, r3
  84:	000003a4 	andeq	r0, r0, r4, lsr #7
  88:	000003b0 			; <UNDEFINED> instruction: 0x000003b0
  8c:	00000420 	andeq	r0, r0, r0, lsr #8
	...
  98:	000000a4 	andeq	r0, r0, r4, lsr #1
  9c:	00000148 	andeq	r0, r0, r8, asr #2
  a0:	00000158 	andeq	r0, r0, r8, asr r1
  a4:	0000015c 	andeq	r0, r0, ip, asr r1
  a8:	00000274 	andeq	r0, r0, r4, ror r2
  ac:	00000278 	andeq	r0, r0, r8, ror r2
  b0:	0000027c 	andeq	r0, r0, ip, ror r2
  b4:	00000280 	andeq	r0, r0, r0, lsl #5
  b8:	00000288 	andeq	r0, r0, r8, lsl #5
  bc:	0000029c 	muleq	r0, ip, r2
  c0:	000002c0 	andeq	r0, r0, r0, asr #5
  c4:	000002cc 	andeq	r0, r0, ip, asr #5
  c8:	000002f0 	strdeq	r0, [r0], -r0	; <UNPREDICTABLE>
  cc:	000002f0 	strdeq	r0, [r0], -r0	; <UNPREDICTABLE>
  d0:	000002f4 	strdeq	r0, [r0], -r4
  d4:	000002f8 	strdeq	r0, [r0], -r8
	...
  e0:	00000148 	andeq	r0, r0, r8, asr #2
  e4:	00000158 	andeq	r0, r0, r8, asr r1
  e8:	0000015c 	andeq	r0, r0, ip, asr r1
  ec:	0000018c 	andeq	r0, r0, ip, lsl #3
  f0:	0000029c 	muleq	r0, ip, r2
  f4:	000002ac 	andeq	r0, r0, ip, lsr #5
	...
 100:	000003c8 	andeq	r0, r0, r8, asr #7
 104:	000003d0 	ldrdeq	r0, [r0], -r0	; <UNPREDICTABLE>
 108:	00000404 	andeq	r0, r0, r4, lsl #8
 10c:	000004ac 	andeq	r0, r0, ip, lsr #9
 110:	000004c0 	andeq	r0, r0, r0, asr #9
 114:	00000920 	andeq	r0, r0, r0, lsr #18
 118:	00000928 	andeq	r0, r0, r8, lsr #18
 11c:	000009b4 			; <UNDEFINED> instruction: 0x000009b4
	...
 128:	000003c8 	andeq	r0, r0, r8, asr #7
 12c:	000003d0 	ldrdeq	r0, [r0], -r0	; <UNPREDICTABLE>
 130:	00000504 	andeq	r0, r0, r4, lsl #10
 134:	000005d0 	ldrdeq	r0, [r0], -r0	; <UNPREDICTABLE>
 138:	00000800 	andeq	r0, r0, r0, lsl #16
 13c:	00000888 	andeq	r0, r0, r8, lsl #17
 140:	00000930 	andeq	r0, r0, r0, lsr r9
 144:	000009b4 			; <UNDEFINED> instruction: 0x000009b4
	...
 150:	00000404 	andeq	r0, r0, r4, lsl #8
 154:	00000408 	andeq	r0, r0, r8, lsl #8
 158:	00000414 	andeq	r0, r0, r4, lsl r4
 15c:	00000414 	andeq	r0, r0, r4, lsl r4
 160:	00000428 	andeq	r0, r0, r8, lsr #8
 164:	0000042c 	andeq	r0, r0, ip, lsr #8
	...
 170:	000005fc 	strdeq	r0, [r0], -ip
 174:	00000700 	andeq	r0, r0, r0, lsl #14
 178:	000007ec 	andeq	r0, r0, ip, ror #15
 17c:	000007f4 	strdeq	r0, [r0], -r4
 180:	00000888 	andeq	r0, r0, r8, lsl #17
 184:	00000894 	muleq	r0, r4, r8
 188:	000008a8 	andeq	r0, r0, r8, lsr #17
 18c:	000008bc 			; <UNDEFINED> instruction: 0x000008bc
 190:	00000910 	andeq	r0, r0, r0, lsl r9
 194:	00000920 	andeq	r0, r0, r0, lsr #18
	...
 1a0:	00000600 	andeq	r0, r0, r0, lsl #12
 1a4:	00000604 	andeq	r0, r0, r4, lsl #12
 1a8:	00000608 	andeq	r0, r0, r8, lsl #12
 1ac:	000006b4 			; <UNDEFINED> instruction: 0x000006b4
 1b0:	000006cc 	andeq	r0, r0, ip, asr #13
 1b4:	000006d0 	ldrdeq	r0, [r0], -r0	; <UNPREDICTABLE>
 1b8:	000008a8 	andeq	r0, r0, r8, lsr #17
 1bc:	000008b8 			; <UNDEFINED> instruction: 0x000008b8
 1c0:	00000910 	andeq	r0, r0, r0, lsl r9
 1c4:	00000920 	andeq	r0, r0, r0, lsr #18
	...
 1d0:	000006b4 			; <UNDEFINED> instruction: 0x000006b4
 1d4:	000006cc 	andeq	r0, r0, ip, asr #13
 1d8:	000006d0 	ldrdeq	r0, [r0], -r0	; <UNPREDICTABLE>
 1dc:	00000700 	andeq	r0, r0, r0, lsl #14
 1e0:	000007ec 	andeq	r0, r0, ip, ror #15
 1e4:	000007f4 	strdeq	r0, [r0], -r4
 1e8:	00000888 	andeq	r0, r0, r8, lsl #17
 1ec:	00000894 	muleq	r0, r4, r8
 1f0:	000008b8 			; <UNDEFINED> instruction: 0x000008b8
 1f4:	000008bc 			; <UNDEFINED> instruction: 0x000008bc
	...
 200:	00000700 	andeq	r0, r0, r0, lsl #14
 204:	00000708 	andeq	r0, r0, r8, lsl #14
 208:	0000070c 	andeq	r0, r0, ip, lsl #14
 20c:	000007ec 	andeq	r0, r0, ip, ror #15
 210:	00000894 	muleq	r0, r4, r8
 214:	000008a8 	andeq	r0, r0, r8, lsr #17
	...
 220:	00000728 	andeq	r0, r0, r8, lsr #14
 224:	000007a4 	andeq	r0, r0, r4, lsr #15
 228:	000007ac 	andeq	r0, r0, ip, lsr #15
 22c:	000007b0 			; <UNDEFINED> instruction: 0x000007b0
 230:	00000894 	muleq	r0, r4, r8
 234:	00000898 	muleq	r0, r8, r8
 238:	0000089c 	muleq	r0, ip, r8
 23c:	000008a0 	andeq	r0, r0, r0, lsr #17
	...
 248:	000007a4 	andeq	r0, r0, r4, lsr #15
 24c:	000007ac 	andeq	r0, r0, ip, lsr #15
 250:	000007b0 			; <UNDEFINED> instruction: 0x000007b0
 254:	000007ec 	andeq	r0, r0, ip, ror #15
 258:	00000898 	muleq	r0, r8, r8
 25c:	0000089c 	muleq	r0, ip, r8
 260:	000008a0 	andeq	r0, r0, r0, lsr #17
 264:	000008a8 	andeq	r0, r0, r8, lsr #17
	...
 270:	000097d4 	ldrdeq	r9, [r0], -r4
 274:	000097d4 	ldrdeq	r9, [r0], -r4
 278:	000097d8 	ldrdeq	r9, [r0], -r8
 27c:	000097e0 	andeq	r9, r0, r0, ror #15
	...
 288:	000097a8 	andeq	r9, r0, r8, lsr #15
 28c:	00009834 	andeq	r9, r0, r4, lsr r8
	...
 298:	00000030 	andeq	r0, r0, r0, lsr r0
 29c:	00000030 	andeq	r0, r0, r0, lsr r0
 2a0:	00000038 	andeq	r0, r0, r8, lsr r0
 2a4:	0000004c 	andeq	r0, r0, ip, asr #32
	...
 2b0:	0000004c 	andeq	r0, r0, ip, asr #32
 2b4:	00000050 	andeq	r0, r0, r0, asr r0
 2b8:	00000050 	andeq	r0, r0, r0, asr r0
 2bc:	00000078 	andeq	r0, r0, r8, ror r0
	...
 2c8:	0000004c 	andeq	r0, r0, ip, asr #32
 2cc:	00000050 	andeq	r0, r0, r0, asr r0
 2d0:	00000050 	andeq	r0, r0, r0, asr r0
 2d4:	00000060 	andeq	r0, r0, r0, rrx
 2d8:	00000064 	andeq	r0, r0, r4, rrx
 2dc:	00000068 	andeq	r0, r0, r8, rrx
	...
 2e8:	0000004c 	andeq	r0, r0, ip, asr #32
 2ec:	00000050 	andeq	r0, r0, r0, asr r0
 2f0:	00000054 	andeq	r0, r0, r4, asr r0
 2f4:	00000060 	andeq	r0, r0, r0, rrx
	...
 300:	0000009c 	muleq	r0, ip, r0
 304:	000000a0 	andeq	r0, r0, r0, lsr #1
 308:	000000a0 	andeq	r0, r0, r0, lsr #1
 30c:	000000c8 	andeq	r0, r0, r8, asr #1
	...
 318:	0000009c 	muleq	r0, ip, r0
 31c:	000000a0 	andeq	r0, r0, r0, lsr #1
 320:	000000a0 	andeq	r0, r0, r0, lsr #1
 324:	000000b0 	strheq	r0, [r0], -r0	; <UNPREDICTABLE>
 328:	000000b4 	strheq	r0, [r0], -r4
 32c:	000000b8 	strheq	r0, [r0], -r8
	...
 338:	0000009c 	muleq	r0, ip, r0
 33c:	000000a0 	andeq	r0, r0, r0, lsr #1
 340:	000000a4 	andeq	r0, r0, r4, lsr #1
 344:	000000b0 	strheq	r0, [r0], -r0	; <UNPREDICTABLE>
	...
 350:	000000c8 	andeq	r0, r0, r8, asr #1
 354:	000000c8 	andeq	r0, r0, r8, asr #1
 358:	000000cc 	andeq	r0, r0, ip, asr #1
 35c:	0000011c 	andeq	r0, r0, ip, lsl r1
	...
 368:	000000f0 	strdeq	r0, [r0], -r0	; <UNPREDICTABLE>
 36c:	000000f4 	strdeq	r0, [r0], -r4
 370:	000000f4 	strdeq	r0, [r0], -r4
 374:	0000011c 	andeq	r0, r0, ip, lsl r1
	...
 380:	000000f0 	strdeq	r0, [r0], -r0	; <UNPREDICTABLE>
 384:	000000f4 	strdeq	r0, [r0], -r4
 388:	000000f4 	strdeq	r0, [r0], -r4
 38c:	00000104 	andeq	r0, r0, r4, lsl #2
 390:	00000108 	andeq	r0, r0, r8, lsl #2
 394:	0000010c 	andeq	r0, r0, ip, lsl #2
	...
 3a0:	000000f0 	strdeq	r0, [r0], -r0	; <UNPREDICTABLE>
 3a4:	000000f4 	strdeq	r0, [r0], -r4
 3a8:	000000f8 	strdeq	r0, [r0], -r8
 3ac:	00000104 	andeq	r0, r0, r4, lsl #2
	...
 3b8:	00000134 	andeq	r0, r0, r4, lsr r1
 3bc:	00000134 	andeq	r0, r0, r4, lsr r1
 3c0:	00000134 	andeq	r0, r0, r4, lsr r1
 3c4:	0000013c 	andeq	r0, r0, ip, lsr r1
	...
 3d0:	0000024c 	andeq	r0, r0, ip, asr #4
 3d4:	00000264 	andeq	r0, r0, r4, ror #4
 3d8:	000002c8 	andeq	r0, r0, r8, asr #5
 3dc:	000002e8 	andeq	r0, r0, r8, ror #5
	...
 3e8:	00000008 	andeq	r0, r0, r8
 3ec:	0000000c 	andeq	r0, r0, ip
 3f0:	00000014 	andeq	r0, r0, r4, lsl r0
 3f4:	00000054 	andeq	r0, r0, r4, asr r0
 3f8:	00000058 	andeq	r0, r0, r8, asr r0
 3fc:	00000060 	andeq	r0, r0, r0, rrx
	...
 408:	00000060 	andeq	r0, r0, r0, rrx
 40c:	00000068 	andeq	r0, r0, r8, rrx
 410:	0000006c 	andeq	r0, r0, ip, rrx
 414:	000000ac 	andeq	r0, r0, ip, lsr #1
 418:	000000b0 	strheq	r0, [r0], -r0	; <UNPREDICTABLE>
 41c:	000000b8 	strheq	r0, [r0], -r8
	...
 428:	00000068 	andeq	r0, r0, r8, rrx
 42c:	00000068 	andeq	r0, r0, r8, rrx
 430:	0000006c 	andeq	r0, r0, ip, rrx
 434:	000000ac 	andeq	r0, r0, ip, lsr #1
 438:	000000b0 	strheq	r0, [r0], -r0	; <UNPREDICTABLE>
 43c:	000000b8 	strheq	r0, [r0], -r8
	...
 448:	000000e8 	andeq	r0, r0, r8, ror #1
 44c:	000000f0 	strdeq	r0, [r0], -r0	; <UNPREDICTABLE>
 450:	000000f4 	strdeq	r0, [r0], -r4
 454:	00000134 	andeq	r0, r0, r4, lsr r1
 458:	00000138 	andeq	r0, r0, r8, lsr r1
 45c:	00000140 	andeq	r0, r0, r0, asr #2
	...
 468:	000000f0 	strdeq	r0, [r0], -r0	; <UNPREDICTABLE>
 46c:	000000f0 	strdeq	r0, [r0], -r0	; <UNPREDICTABLE>
 470:	000000f4 	strdeq	r0, [r0], -r4
 474:	00000134 	andeq	r0, r0, r4, lsr r1
 478:	00000138 	andeq	r0, r0, r8, lsr r1
 47c:	00000140 	andeq	r0, r0, r0, asr #2
	...
 488:	00000144 	andeq	r0, r0, r4, asr #2
 48c:	00000148 	andeq	r0, r0, r8, asr #2
 490:	00000150 	andeq	r0, r0, r0, asr r1
 494:	0000015c 	andeq	r0, r0, ip, asr r1
	...

Disassembly of section .debug_line:

00000000 <.debug_line>:
       0:	00000167 	andeq	r0, r0, r7, ror #2
       4:	00790003 	rsbseq	r0, r9, r3
       8:	01020000 	mrseq	r0, (UNDEF: 2)
       c:	000d0efb 	strdeq	r0, [sp], -fp
      10:	01010101 	tsteq	r1, r1, lsl #2
      14:	01000000 	mrseq	r0, (UNDEF: 0)
      18:	74010000 	strvc	r0, [r1], #-0
      1c:	73747365 	cmnvc	r4, #-1811939327	; 0x94000001
      20:	2f002e00 	svccs	0x00002e00
      24:	72657355 	rsbvc	r7, r5, #1409286145	; 0x54000001
      28:	696d2f73 	stmdbvs	sp!, {r0, r1, r4, r5, r6, r8, r9, sl, fp, sp}^
      2c:	2f73656c 	svccs	0x0073656c
      30:	72756f53 	rsbsvc	r6, r5, #332	; 0x14c
      34:	632f6563 			; <UNDEFINED> instruction: 0x632f6563
      38:	30343273 	eorscc	r3, r4, r3, ror r2
      3c:	6c2f786c 	stcvs	8, cr7, [pc], #-432	; fffffe94 <__bss_end__+0xffff509c>
      40:	69706269 	ldmdbvs	r0!, {r0, r3, r5, r6, r9, sp, lr}^
      44:	636e692f 	cmnvs	lr, #770048	; 0xbc000
      48:	6564756c 	strbvs	r7, [r4, #-1388]!	; 0xfffffa94
      4c:	61700000 	cmnvs	r0, r0
      50:	2d327472 	cfldrscs	mvf7, [r2, #-456]!	; 0xfffffe38
      54:	74736574 	ldrbtvc	r6, [r3], #-1396	; 0xfffffa8c
      58:	00632e34 	rsbeq	r2, r3, r4, lsr lr
      5c:	73000001 	movwvc	r0, #1
      60:	6c2d6372 	stcvs	3, cr6, [sp], #-456	; 0xfffffe38
      64:	682e636f 	stmdavs	lr!, {r0, r1, r2, r3, r5, r6, r8, r9, sp, lr}
      68:	00000200 	andeq	r0, r0, r0, lsl #4
      6c:	2e697072 	mcrcs	0, 3, r7, cr9, cr2, {3}
      70:	00030068 	andeq	r0, r3, r8, rrx
      74:	616b6300 	cmnvs	fp, r0, lsl #6
      78:	636f6c6c 	cmnvs	pc, #108, 24	; 0x6c00
      7c:	0200682e 	andeq	r6, r0, #3014656	; 0x2e0000
      80:	05000000 	streq	r0, [r0, #-0]
      84:	02050012 	andeq	r0, r5, #18, 0
      88:	00008038 	andeq	r8, r0, r8, lsr r0
      8c:	4b050519 	blmi	1414f8 <__bss_end__+0x136700>
      90:	01090518 	tsteq	r9, r8, lsl r5
      94:	01060d05 	tsteq	r6, r5, lsl #26
      98:	052c0805 	streq	r0, [ip, #-2053]!	; 0xfffff7fb
      9c:	0d053005 	stceq	0, cr3, [r5, #-20]	; 0xffffffec
      a0:	01040200 	mrseq	r0, R12_usr
      a4:	02003306 	andeq	r3, r0, #402653184	; 0x18000000
      a8:	00010104 	andeq	r0, r1, r4, lsl #2
      ac:	d6010402 	strle	r0, [r1], -r2, lsl #8
      b0:	02000905 	andeq	r0, r0, #81920	; 0x14000
      b4:	00320204 	eorseq	r0, r2, r4, lsl #4
      b8:	06020402 	streq	r0, [r2], -r2, lsl #8
      bc:	001d0501 	andseq	r0, sp, r1, lsl #10
      c0:	06020402 	streq	r0, [r2], -r2, lsl #8
      c4:	05017703 	streq	r7, [r1, #-1795]	; 0xfffff8fd
      c8:	0402001e 	streq	r0, [r2], #-30	; 0xffffffe2
      cc:	05010602 	streq	r0, [r1, #-1538]	; 0xfffff9fe
      d0:	0402000b 	streq	r0, [r2], #-11
      d4:	2e090302 	cdpcs	3, 0, cr0, cr9, cr2, {0}
      d8:	02040200 	andeq	r0, r4, #0, 4
      dc:	0014052e 	andseq	r0, r4, lr, lsr #10
      e0:	06010402 	streq	r0, [r1], -r2, lsl #8
      e4:	05017703 	streq	r7, [r1, #-1795]	; 0xfffff8fd
      e8:	04020005 	streq	r0, [r2], #-5
      ec:	05010601 	streq	r0, [r1, #-1537]	; 0xfffff9ff
      f0:	044b0609 	strbeq	r0, [fp], #-1545	; 0xfffff9f7
      f4:	0e0b0502 	cfsh32eq	mvfx0, mvfx11, #2
      f8:	05130505 	ldreq	r0, [r3, #-1285]	; 0xfffffafb
      fc:	ba01060c 	blt	41934 <__bss_end__+0x36b3c>
     100:	1a050104 	bne	140518 <__bss_end__+0x135720>
     104:	06090515 			; <UNDEFINED> instruction: 0x06090515
     108:	0e05679f 	mcreq	7, 0, r6, cr5, cr15, {4}
     10c:	09050106 	stmdbeq	r5, {r1, r2, r8}
     110:	0b054b06 	bleq	152d30 <__bss_end__+0x147f38>
     114:	0d050106 	stfeqs	f0, [r5, #-24]	; 0xffffffe8
     118:	00014b06 	andeq	r4, r1, r6, lsl #22
     11c:	66020402 	strvs	r0, [r2], -r2, lsl #8
     120:	02040200 	andeq	r0, r4, #0, 4
     124:	04020001 	streq	r0, [r2], #-1
     128:	15051302 	strne	r1, [r5, #-770]	; 0xfffffcfe
     12c:	02040200 	andeq	r0, r4, #0, 4
     130:	0d050106 	stfeqs	f0, [r5, #-24]	; 0xffffffe8
     134:	02040200 	andeq	r0, r4, #0, 4
     138:	15052f06 	strne	r2, [r5, #-3846]	; 0xfffff0fa
     13c:	02040200 	andeq	r0, r4, #0, 4
     140:	02000106 	andeq	r0, r0, #-2147483647	; 0x80000001
     144:	054a0204 	strbeq	r0, [sl, #-516]	; 0xfffffdfc
     148:	09030605 	stmdbeq	r3, {r0, r2, r9, sl}
     14c:	01053001 	tsteq	r5, r1
     150:	05661306 	strbeq	r1, [r6, #-774]!	; 0xfffffcfa
     154:	05000614 	streq	r0, [r0, #-1556]	; 0xfffff9ec
     158:	0080fc02 	addeq	pc, r0, r2, lsl #24
     15c:	05051400 	streq	r1, [r5, #-1024]	; 0xfffffc00
     160:	01054d2f 	tsteq	r5, pc, lsr #26
     164:	06028306 	streq	r8, [r2], -r6, lsl #6
     168:	e4010100 	str	r0, [r1], #-256	; 0xffffff00
     16c:	03000002 	movweq	r0, #2
     170:	0000e500 	andeq	lr, r0, r0, lsl #10
     174:	fb010200 	blx	4097e <__bss_end__+0x35b86>
     178:	01000d0e 	tsteq	r0, lr, lsl #26
     17c:	00010101 	andeq	r0, r1, r1, lsl #2
     180:	00010000 	andeq	r0, r1, r0
     184:	6f2f0100 	svcvs	0x002f0100
     188:	682f7470 	stmdavs	pc!, {r4, r5, r6, sl, ip, sp, lr}	; <UNPREDICTABLE>
     18c:	62656d6f 	rsbvs	r6, r5, #7104	; 0x1bc0
     190:	2f776572 	svccs	0x00776572
     194:	6c6c6543 	cfstr64vs	mvdx6, [ip], #-268	; 0xfffffef4
     198:	612f7261 			; <UNDEFINED> instruction: 0x612f7261
     19c:	6e2d6d72 	mcrvs	13, 1, r6, cr13, cr2, {3}
     1a0:	2d656e6f 	stclcs	14, cr6, [r5, #-444]!	; 0xfffffe44
     1a4:	69626165 	stmdbvs	r2!, {r0, r2, r5, r6, r8, sp, lr}^
     1a8:	392f392d 	stmdbcc	pc!, {r0, r2, r3, r5, r8, fp, ip, sp}	; <UNPREDICTABLE>
     1ac:	3130322d 	teqcc	r0, sp, lsr #4
     1b0:	2d347139 	ldfcss	f7, [r4, #-228]!	; 0xffffff1c
     1b4:	30317363 	eorscc	r7, r1, r3, ror #6
     1b8:	6c2f6537 	cfstr32vs	mvfx6, [pc], #-220	; e4 <__code_start__-0x7f1c>
     1bc:	672f6269 	strvs	r6, [pc, -r9, ror #4]!
     1c0:	612f6363 			; <UNDEFINED> instruction: 0x612f6363
     1c4:	6e2d6d72 	mcrvs	13, 1, r6, cr13, cr2, {3}
     1c8:	2d656e6f 	stclcs	14, cr6, [r5, #-444]!	; 0xfffffe44
     1cc:	69626165 	stmdbvs	r2!, {r0, r2, r5, r6, r8, sp, lr}^
     1d0:	322e392f 	eorcc	r3, lr, #770048	; 0xbc000
     1d4:	692f312e 	stmdbvs	pc!, {r1, r2, r3, r5, r8, ip, sp}	; <UNPREDICTABLE>
     1d8:	756c636e 	strbvc	r6, [ip, #-878]!	; 0xfffffc92
     1dc:	2f006564 	svccs	0x00006564
     1e0:	72657355 	rsbvc	r7, r5, #1409286145	; 0x54000001
     1e4:	696d2f73 	stmdbvs	sp!, {r0, r1, r4, r5, r6, r8, r9, sl, fp, sp}^
     1e8:	2f73656c 	svccs	0x0073656c
     1ec:	72756f53 	rsbsvc	r6, r5, #332	; 0x14c
     1f0:	632f6563 			; <UNDEFINED> instruction: 0x632f6563
     1f4:	30343273 	eorscc	r3, r4, r3, ror r2
     1f8:	6c2f786c 	stcvs	8, cr7, [pc], #-432	; 50 <__code_start__-0x7fb0>
     1fc:	69706269 	ldmdbvs	r0!, {r0, r3, r5, r6, r9, sp, lr}^
     200:	636e692f 	cmnvs	lr, #770048	; 0xbc000
     204:	6564756c 	strbvs	r7, [r4, #-1388]!	; 0xfffffa94
     208:	6b630000 	blvs	18c0210 <__bss_end__+0x18b5418>
     20c:	6f6c6c61 	svcvs	0x006c6c61
     210:	00632e63 	rsbeq	r2, r3, r3, ror #28
     214:	63000000 	movwvs	r0, #0
     218:	6c6c616b 	stfvse	f6, [ip], #-428	; 0xfffffe54
     21c:	682e636f 	stmdavs	lr!, {r0, r1, r2, r3, r5, r6, r8, r9, sp, lr}
     220:	00000000 	andeq	r0, r0, r0
     224:	69647473 	stmdbvs	r4!, {r0, r1, r4, r5, r6, sl, ip, sp, lr}^
     228:	672d746e 	strvs	r7, [sp, -lr, ror #8]!
     22c:	682e6363 	stmdavs	lr!, {r0, r1, r5, r6, r8, r9, sp, lr}
     230:	00000100 	andeq	r0, r0, r0, lsl #2
     234:	2e697072 	mcrcs	0, 3, r7, cr9, cr2, {3}
     238:	00020068 	andeq	r0, r2, r8, rrx
     23c:	63727300 	cmnvs	r2, #0, 6
     240:	636f6c2d 	cmnvs	pc, #11520	; 0x2d00
     244:	0000682e 	andeq	r6, r0, lr, lsr #16
     248:	726b0000 	rsbvc	r0, fp, #0, 0
     24c:	6c616d2d 	stclvs	13, cr6, [r1], #-180	; 0xffffff4c
     250:	2e636f6c 	cdpcs	15, 6, cr6, cr3, cr12, {3}
     254:	00000068 	andeq	r0, r0, r8, rrx
     258:	01050000 	mrseq	r0, (UNDEF: 5)
     25c:	24020500 	strcs	r0, [r2], #-1280	; 0xfffffb00
     260:	03000081 	movweq	r0, #129	; 0x81
     264:	0505010b 	streq	r0, [r5, #-267]	; 0xfffffef5
     268:	06010513 			; <UNDEFINED> instruction: 0x06010513
     26c:	05860613 	streq	r0, [r6, #1555]	; 0x613
     270:	08051305 	stmdaeq	r5, {r0, r2, r8, r9, ip}
     274:	052e0106 	streq	r0, [lr, #-262]!	; 0xfffffefa
     278:	052f0609 	streq	r0, [pc, #-1545]!	; fffffc77 <__bss_end__+0xffff4e7f>
     27c:	05010611 	streq	r0, [r1, #-1553]	; 0xfffff9ef
     280:	03063001 	movweq	r3, #24577	; 0x6001
     284:	01062e25 	tsteq	r6, r5, lsr #28
     288:	4b060505 	blmi	1816a4 <__bss_end__+0x1768ac>
     28c:	04020001 	streq	r0, [r2], #-1
     290:	02006602 	andeq	r6, r0, #2097152	; 0x200000
     294:	00010204 	andeq	r0, r1, r4, lsl #4
     298:	13020402 	movwne	r0, #9218	; 0x2402
     29c:	02000c05 	andeq	r0, r0, #1280	; 0x500
     2a0:	01060204 	tsteq	r6, r4, lsl #4
     2a4:	02000505 	andeq	r0, r0, #20971520	; 0x1400000
     2a8:	30060204 	andcc	r0, r6, r4, lsl #4
     2ac:	02000805 	andeq	r0, r0, #327680	; 0x50000
     2b0:	01060204 	tsteq	r6, r4, lsl #4
     2b4:	51060b05 	tstpl	r6, r5, lsl #22
     2b8:	2e061105 	adfcss	f1, f6, f5
     2bc:	2e2e0b05 	vmulcs.f64	d0, d14, d5
     2c0:	30060905 	andcc	r0, r6, r5, lsl #18
     2c4:	01060c05 	tsteq	r6, r5, lsl #24
     2c8:	4c060d05 	stcmi	13, cr0, [r6], {5}
     2cc:	01061b05 	tsteq	r6, r5, lsl #22
     2d0:	052e1805 	streq	r1, [lr, #-2053]!	; 0xfffff7fb
     2d4:	052f060d 	streq	r0, [pc, #-1549]!	; fffffccf <__bss_end__+0xffff4ed7>
     2d8:	05170601 	ldreq	r0, [r7, #-1537]	; 0xfffff9ff
     2dc:	04020005 	streq	r0, [r2], #-5
     2e0:	6c030601 	stcvs	6, cr0, [r3], {1}
     2e4:	0402004a 	streq	r0, [r2], #-74	; 0xffffffb6
     2e8:	02000101 	andeq	r0, r0, #1073741824	; 0x40000000
     2ec:	9e060104 	adflss	f0, f6, f4
     2f0:	01040200 	mrseq	r0, R12_usr
     2f4:	0402002e 	streq	r0, [r2], #-46	; 0xffffffd2
     2f8:	052e0601 	streq	r0, [lr, #-1537]!	; 0xfffff9ff
     2fc:	0f053309 	svceq	0x00053309
     300:	0c050106 	stfeqs	f0, [r5], {6}
     304:	0609052e 	streq	r0, [r9], -lr, lsr #10
     308:	0305052f 	movweq	r0, #21807	; 0x552f
     30c:	06012e0d 	streq	r2, [r1], -sp, lsl #28
     310:	052e069e 	streq	r0, [lr, #-1694]!	; 0xfffff962
     314:	ba4a0301 	blt	1280f20 <__bss_end__+0x1276128>
     318:	05130505 	ldreq	r0, [r3, #-1285]	; 0xfffffafb
     31c:	2e130601 	cfmsub32cs	mvax0, mvfx0, mvfx3, mvfx1
     320:	01063206 	tsteq	r6, r6, lsl #4
     324:	4b060505 	blmi	181740 <__bss_end__+0x176948>
     328:	01061405 	tsteq	r6, r5, lsl #8
     32c:	18050204 	stmdane	r5, {r2, r9}
     330:	05052f06 	streq	r2, [r5, #-3846]	; 0xfffff0fa
     334:	060d0513 			; <UNDEFINED> instruction: 0x060d0513
     338:	01042e01 	tsteq	r4, r1, lsl #28
     33c:	06110105 	ldreq	r0, [r1], -r5, lsl #2
     340:	0501064e 	streq	r0, [r1, #-1614]	; 0xfffff9b2
     344:	05670605 	strbeq	r0, [r7, #-1541]!	; 0xfffff9fb
     348:	2e010611 	mcrcs	6, 0, r0, cr1, cr1, {0}
     34c:	2f060505 	svccs	0x00060505
     350:	01061105 	tsteq	r6, r5, lsl #2
     354:	0605052e 	streq	r0, [r5], -lr, lsr #10
     358:	0601052f 	streq	r0, [r1], -pc, lsr #10
     35c:	4d066613 	stcmi	6, cr6, [r6, #-76]	; 0xffffffb4
     360:	05050106 	streq	r0, [r5, #-262]	; 0xfffffefa
     364:	0a054c06 	beq	153384 <__bss_end__+0x14858c>
     368:	06150501 	ldreq	r0, [r5], -r1, lsl #10
     36c:	25052e01 	strcs	r2, [r5, #-3585]	; 0xfffff1ff
     370:	01040200 	mrseq	r0, R12_usr
     374:	05052e06 	streq	r2, [r5, #-3590]	; 0xfffff1fa
     378:	01040200 	mrseq	r0, R12_usr
     37c:	09050106 	stmdbeq	r5, {r1, r2, r8}
     380:	0d054d06 	stceq	13, cr4, [r5, #-24]	; 0xffffffe8
     384:	054a0106 	strbeq	r0, [sl, #-262]	; 0xfffffefa
     388:	28052e0c 	stmdacs	r5, {r2, r3, r9, sl, fp, sp}
     38c:	02040200 	andeq	r0, r4, #0, 4
     390:	2c054706 	stccs	7, cr4, [r5], {6}
     394:	02040200 	andeq	r0, r4, #0, 4
     398:	02000106 	andeq	r0, r0, #-2147483647	; 0x80000001
     39c:	05660204 	strbeq	r0, [r6, #-516]!	; 0xfffffdfc
     3a0:	8333060d 	teqhi	r3, #13631488	; 0xd00000
     3a4:	01050106 	tsteq	r5, r6, lsl #2
     3a8:	1c030616 	stcne	6, cr0, [r3], {22}
     3ac:	82010666 	andhi	r0, r1, #106954752	; 0x6600000
     3b0:	2f060505 	svccs	0x00060505
     3b4:	f2011413 	vqshl.s8	d1, d3, d1
     3b8:	0a051366 	beq	145158 <__bss_end__+0x13a360>
     3bc:	08050106 	stmdaeq	r5, {r1, r2, r8}
     3c0:	0609052e 	streq	r0, [r9], -lr, lsr #10
     3c4:	14050567 	strne	r0, [r5], #-1383	; 0xfffffa99
     3c8:	01060e05 	tsteq	r6, r5, lsl #28
     3cc:	4b060505 	blmi	1817e8 <__bss_end__+0x1769f0>
     3d0:	04020001 	streq	r0, [r2], #-1
     3d4:	02008202 	andeq	r8, r0, #536870912	; 0x20000000
     3d8:	00010204 	andeq	r0, r1, r4, lsl #4
     3dc:	14020402 	strne	r0, [r2], #-1026	; 0xfffffbfe
     3e0:	02040200 	andeq	r0, r4, #0, 4
     3e4:	00010567 	andeq	r0, r1, r7, ror #10
     3e8:	06020402 	streq	r0, [r2], -r2, lsl #8
     3ec:	0609054b 	streq	r0, [r9], -fp, asr #10
     3f0:	014a7903 	cmpeq	sl, r3, lsl #18
     3f4:	0505669e 	streq	r6, [r5, #-1694]	; 0xfffff962
     3f8:	01040200 	mrseq	r0, R12_usr
     3fc:	04020031 	streq	r0, [r2], #-49	; 0xffffffcf
     400:	02000101 	andeq	r0, r0, #1073741824	; 0x40000000
     404:	05d60104 	ldrbeq	r0, [r6, #260]	; 0x104
     408:	080a0301 	stmdaeq	sl, {r0, r8, r9}
     40c:	0501063c 	streq	r0, [r1, #-1596]	; 0xfffff9c4
     410:	059f0605 	ldreq	r0, [pc, #1541]	; a1d <__code_start__-0x75e3>
     414:	2e010610 	mcrcs	6, 0, r0, cr1, cr0, {0}
     418:	4b060505 	blmi	181834 <__bss_end__+0x176a3c>
     41c:	06150568 	ldreq	r0, [r5], -r8, ror #10
     420:	06050501 	streq	r0, [r5], -r1, lsl #10
     424:	060e052f 	streq	r0, [lr], -pc, lsr #10
     428:	06050501 	streq	r0, [r5], -r1, lsl #10
     42c:	0612054b 	ldreq	r0, [r2], -fp, asr #10
     430:	06050501 	streq	r0, [r5], -r1, lsl #10
     434:	829e0168 	addshi	r0, lr, #26
     438:	060d0514 			; <UNDEFINED> instruction: 0x060d0514
     43c:	06050501 	streq	r0, [r5], -r1, lsl #10
     440:	06100567 	ldreq	r0, [r0], -r7, ror #10
     444:	06050501 	streq	r0, [r5], -r1, lsl #10
     448:	06010530 			; <UNDEFINED> instruction: 0x06010530
     44c:	06026613 			; <UNDEFINED> instruction: 0x06026613
     450:	27010100 	strcs	r0, [r1, -r0, lsl #2]
     454:	03000002 	movweq	r0, #2
     458:	00006400 	andeq	r6, r0, r0, lsl #8
     45c:	fb010200 	blx	40c66 <__bss_end__+0x35e6e>
     460:	01000d0e 	tsteq	r0, lr, lsl #26
     464:	00010101 	andeq	r0, r1, r1, lsl #2
     468:	00010000 	andeq	r0, r1, r0
     46c:	552f0100 	strpl	r0, [pc, #-256]!	; 374 <__code_start__-0x7c8c>
     470:	73726573 	cmnvc	r2, #482344960	; 0x1cc00000
     474:	6c696d2f 	stclvs	13, cr6, [r9], #-188	; 0xffffff44
     478:	532f7365 			; <UNDEFINED> instruction: 0x532f7365
     47c:	6372756f 	cmnvs	r2, #465567744	; 0x1bc00000
     480:	73632f65 	cmnvc	r3, #404	; 0x194
     484:	6c303432 	cfldrsvs	mvf3, [r0], #-200	; 0xffffff38
     488:	696c2f78 	stmdbvs	ip!, {r3, r4, r5, r6, r8, r9, sl, fp, sp}^
     48c:	2f697062 	svccs	0x00697062
     490:	6c636e69 	stclvs	14, cr6, [r3], #-420	; 0xfffffe5c
     494:	00656475 	rsbeq	r6, r5, r5, ror r4
     498:	2d726b00 	vldmdbcs	r2!, {d22-d21}
     49c:	6c6c616d 	stfvse	f6, [ip], #-436	; 0xfffffe4c
     4a0:	632e636f 			; <UNDEFINED> instruction: 0x632e636f
     4a4:	00000000 	andeq	r0, r0, r0
     4a8:	2e697072 	mcrcs	0, 3, r7, cr9, cr2, {3}
     4ac:	00010068 	andeq	r0, r1, r8, rrx
     4b0:	2d726b00 	vldmdbcs	r2!, {d22-d21}
     4b4:	6c6c616d 	stfvse	f6, [ip], #-436	; 0xfffffe4c
     4b8:	682e636f 	stmdavs	lr!, {r0, r1, r2, r3, r5, r6, r8, r9, sp, lr}
     4bc:	00000000 	andeq	r0, r0, r0
     4c0:	00010500 	andeq	r0, r1, r0, lsl #10
     4c4:	840c0205 	strhi	r0, [ip], #-517	; 0xfffffdfb
     4c8:	d2030000 	andle	r0, r3, #0, 0
     4cc:	01060100 	mrseq	r0, (UNDEF: 22)
     4d0:	2f060205 	svccs	0x00060205
     4d4:	06050513 			; <UNDEFINED> instruction: 0x06050513
     4d8:	06020501 	streq	r0, [r2], -r1, lsl #10
     4dc:	0609052f 	streq	r0, [r9], -pc, lsr #10
     4e0:	4a020501 	bmi	818ec <__bss_end__+0x76af4>
     4e4:	0012052e 	andseq	r0, r2, lr, lsr #10
     4e8:	06010402 	streq	r0, [r1], -r2, lsl #8
     4ec:	0002052e 	andeq	r0, r2, lr, lsr #10
     4f0:	06010402 	streq	r0, [r1], -r2, lsl #8
     4f4:	00270501 	eoreq	r0, r7, r1, lsl #10
     4f8:	4a030402 	bmi	c1508 <__bss_end__+0xb6710>
     4fc:	02001205 	andeq	r1, r0, #1342177280	; 0x50000000
     500:	052e0304 	streq	r0, [lr, #-772]!	; 0xfffffcfc
     504:	054b0603 	strbeq	r0, [fp, #-1539]	; 0xfffff9fd
     508:	05010610 	streq	r0, [r1, #-1552]	; 0xfffff9f0
     50c:	15052e06 	strne	r2, [r5, #-3590]	; 0xfffff1fa
     510:	01040200 	mrseq	r0, R12_usr
     514:	0020054a 	eoreq	r0, r0, sl, asr #10
     518:	4a020402 	bmi	81528 <__bss_end__+0x76730>
     51c:	02040200 	andeq	r0, r4, #0, 4
     520:	0602054a 	streq	r0, [r2], -sl, asr #10
     524:	06100530 			; <UNDEFINED> instruction: 0x06100530
     528:	2e090501 	cfsh32cs	mvfx0, mvfx9, #1
     52c:	052e1d05 	streq	r1, [lr, #-3333]!	; 0xfffff2fb
     530:	03052e05 	movweq	r2, #24069	; 0x5e05
     534:	0d055006 	stceq	0, cr5, [r5, #-24]	; 0xffffffe8
     538:	02050106 	andeq	r0, r5, #-2147483647	; 0x80000001
     53c:	0e052f06 	cdpeq	15, 0, cr2, cr5, cr6, {0}
     540:	08050106 	stmdaeq	r5, {r1, r2, r8}
     544:	2e05052e 	cfsh32cs	mvfx0, mvfx5, #30
     548:	50060305 	andpl	r0, r6, r5, lsl #6
     54c:	01060c05 	tsteq	r6, r5, lsl #24
     550:	2f060205 	svccs	0x00060205
     554:	01060805 	tsteq	r6, r5, lsl #16
     558:	054b0105 	strbeq	r0, [fp, #-261]	; 0xfffffefb
     55c:	73030603 	movwvc	r0, #13827	; 0x3603
     560:	061c052e 	ldreq	r0, [ip], -lr, lsr #10
     564:	2e0e0501 	cfsh32cs	mvfx0, mvfx14, #1
     568:	4b060305 	blmi	181184 <__bss_end__+0x17638c>
     56c:	01061305 	tsteq	r6, r5, lsl #6
     570:	052e1a05 	streq	r1, [lr, #-2565]!	; 0xfffff5fb
     574:	03052e0d 	movweq	r2, #24077	; 0x5e0d
     578:	15055006 	strne	r5, [r5, #-6]
     57c:	0d050106 	stfeqs	f0, [r5, #-24]	; 0xffffffe8
     580:	0603052e 	streq	r0, [r3], -lr, lsr #10
     584:	0613054b 	ldreq	r0, [r3], -fp, asr #10
     588:	2e0c0501 	cfsh32cs	mvfx0, mvfx12, #1
     58c:	03060105 	movweq	r0, #24837	; 0x6105
     590:	06667fba 			; <UNDEFINED> instruction: 0x06667fba
     594:	06020501 	streq	r0, [r2], -r1, lsl #10
     598:	0605054b 	streq	r0, [r5], -fp, asr #10
     59c:	2f060501 	svccs	0x00060501
     5a0:	2f060205 	svccs	0x00060205
     5a4:	01060d05 	tsteq	r6, r5, lsl #26
     5a8:	4b060205 	blmi	180dc4 <__bss_end__+0x175fcc>
     5ac:	01060505 	tsteq	r6, r5, lsl #10
     5b0:	4c060205 	sfmmi	f0, 4, [r6], {5}
     5b4:	060d0513 			; <UNDEFINED> instruction: 0x060d0513
     5b8:	06020501 	streq	r0, [r2], -r1, lsl #10
     5bc:	062e062f 	strteq	r0, [lr], -pc, lsr #12
     5c0:	0609052f 	streq	r0, [r9], -pc, lsr #10
     5c4:	620a0501 	andvs	r0, sl, #4194304	; 0x400000
     5c8:	06330105 	ldrteq	r0, [r3], -r5, lsl #2
     5cc:	0501064e 	streq	r0, [r1, #-1614]	; 0xfffff9b2
     5d0:	132f0602 			; <UNDEFINED> instruction: 0x132f0602
     5d4:	06240514 			; <UNDEFINED> instruction: 0x06240514
     5d8:	2e290501 	cfsh64cs	mvdx0, mvdx9, #1
     5dc:	052e0905 	streq	r0, [lr, #-2309]!	; 0xfffff6fb
     5e0:	052f0602 	streq	r0, [pc, #-1538]!	; ffffffe6 <__bss_end__+0xffff51ee>
     5e4:	0501060d 	streq	r0, [r1, #-1549]	; 0xfffff9f3
     5e8:	02054a05 	andeq	r4, r5, #20480	; 0x5000
     5ec:	09055006 	stmdbeq	r5, {r1, r2, ip, lr}
     5f0:	052e0106 	streq	r0, [lr, #-262]!	; 0xfffffefa
     5f4:	052a0603 	streq	r0, [sl, #-1539]!	; 0xfffff9fd
     5f8:	05010616 	streq	r0, [r1, #-1558]	; 0xfffff9ea
     5fc:	03054a0e 	movweq	r4, #23054	; 0x5a0e
     600:	0f052f06 	svceq	0x00052f06
     604:	04050106 	streq	r0, [r5], #-262	; 0xfffffefa
     608:	07056d06 	streq	r6, [r5, -r6, lsl #26]
     60c:	05050106 	streq	r0, [r5, #-262]	; 0xfffffefa
     610:	0f053406 	svceq	0x00053406
     614:	05050106 	streq	r0, [r5, #-262]	; 0xfffffefa
     618:	07054b06 	streq	r4, [r5, -r6, lsl #22]
     61c:	05050106 	streq	r0, [r5, #-262]	; 0xfffffefa
     620:	0f052f06 	svceq	0x00052f06
     624:	04050106 	streq	r0, [r5], #-262	; 0xfffffefa
     628:	0a053006 	beq	14c648 <__bss_end__+0x141850>
     62c:	04050106 	streq	r0, [r5], #-262	; 0xfffffefa
     630:	0b054b06 	bleq	153250 <__bss_end__+0x148458>
     634:	052e0106 	streq	r0, [lr, #-262]!	; 0xfffffefa
     638:	77030605 	strvc	r0, [r3, -r5, lsl #12]
     63c:	0618052e 	ldreq	r0, [r8], -lr, lsr #10
     640:	2e120501 	cfmul32cs	mvfx0, mvfx2, mvfx1
     644:	03061a05 	movweq	r1, #27141	; 0x6a05
     648:	18054a7a 	stmdane	r5, {r1, r3, r4, r5, r6, r9, fp, lr}
     64c:	06200501 	strteq	r0, [r0], -r1, lsl #10
     650:	2e270501 	cfsh64cs	mvdx0, mvdx7, #1
     654:	30060305 	andcc	r0, r6, r5, lsl #6
     658:	01060b05 	tsteq	r6, r5, lsl #22
     65c:	052e0605 	streq	r0, [lr, #-1541]!	; 0xfffff9fb
     660:	0f030603 	svceq	0x00030603
     664:	0609054a 	streq	r0, [r9], -sl, asr #10
     668:	4a060501 	bmi	181a74 <__bss_end__+0x176c7c>
     66c:	4c060405 	cfstrsmi	mvf0, [r6], {5}
     670:	01060d05 	tsteq	r6, r5, lsl #26
     674:	2e07052e 	cfsh32cs	mvfx0, mvfx7, #30
     678:	0006022e 	andeq	r0, r6, lr, lsr #4
     67c:	05440101 	strbeq	r0, [r4, #-257]	; 0xfffffeff
     680:	00030000 	andeq	r0, r3, r0
     684:	000000d4 	ldrdeq	r0, [r0], -r4
     688:	0efb0102 	cdpeq	1, 15, cr0, cr11, cr2, {0}
     68c:	0101000d 	tsteq	r1, sp
     690:	00000101 	andeq	r0, r0, r1, lsl #2
     694:	00000100 	andeq	r0, r0, r0, lsl #2
     698:	706f2f01 	rsbvc	r2, pc, r1, lsl #30
     69c:	6f682f74 	svcvs	0x00682f74
     6a0:	7262656d 	rsbvc	r6, r2, #457179136	; 0x1b400000
     6a4:	432f7765 			; <UNDEFINED> instruction: 0x432f7765
     6a8:	616c6c65 	cmnvs	ip, r5, ror #24
     6ac:	72612f72 	rsbvc	r2, r1, #456	; 0x1c8
     6b0:	6f6e2d6d 	svcvs	0x006e2d6d
     6b4:	652d656e 	strvs	r6, [sp, #-1390]!	; 0xfffffa92
     6b8:	2d696261 	sfmcs	f6, 2, [r9, #-388]!	; 0xfffffe7c
     6bc:	2d392f39 	ldccs	15, cr2, [r9, #-228]!	; 0xffffff1c
     6c0:	39313032 	ldmdbcc	r1!, {r1, r4, r5, ip, sp}
     6c4:	632d3471 			; <UNDEFINED> instruction: 0x632d3471
     6c8:	37303173 			; <UNDEFINED> instruction: 0x37303173
     6cc:	696c2f65 	stmdbvs	ip!, {r0, r2, r5, r6, r8, r9, sl, fp, sp}^
     6d0:	63672f62 	cmnvs	r7, #392	; 0x188
     6d4:	72612f63 	rsbvc	r2, r1, #396	; 0x18c
     6d8:	6f6e2d6d 	svcvs	0x006e2d6d
     6dc:	652d656e 	strvs	r6, [sp, #-1390]!	; 0xfffffa92
     6e0:	2f696261 	svccs	0x00696261
     6e4:	2e322e39 	mrccs	14, 1, r2, cr2, cr9, {1}
     6e8:	6e692f31 	mcrvs	15, 3, r2, cr9, cr1, {1}
     6ec:	64756c63 	ldrbtvs	r6, [r5], #-3171	; 0xfffff39d
     6f0:	552f0065 	strpl	r0, [pc, #-101]!	; 693 <__code_start__-0x796d>
     6f4:	73726573 	cmnvc	r2, #482344960	; 0x1cc00000
     6f8:	6c696d2f 	stclvs	13, cr6, [r9], #-188	; 0xffffff44
     6fc:	532f7365 			; <UNDEFINED> instruction: 0x532f7365
     700:	6372756f 	cmnvs	r2, #465567744	; 0x1bc00000
     704:	73632f65 	cmnvc	r3, #404	; 0x194
     708:	6c303432 	cfldrsvs	mvf3, [r0], #-200	; 0xffffff38
     70c:	696c2f78 	stmdbvs	ip!, {r3, r4, r5, r6, r8, r9, sl, fp, sp}^
     710:	2f697062 	svccs	0x00697062
     714:	6c636e69 	stclvs	14, cr6, [r3], #-420	; 0xfffffe5c
     718:	00656475 	rsbeq	r6, r5, r5, ror r4
     71c:	2d6b6300 	stclcs	3, cr6, [fp, #-0]
     720:	632e6367 			; <UNDEFINED> instruction: 0x632e6367
     724:	00000000 	andeq	r0, r0, r0
     728:	2d637273 	sfmcs	f7, 2, [r3, #-460]!	; 0xfffffe34
     72c:	2e636f6c 	cdpcs	15, 6, cr6, cr3, cr12, {3}
     730:	00000068 	andeq	r0, r0, r8, rrx
     734:	64747300 	ldrbtvs	r7, [r4], #-768	; 0xfffffd00
     738:	2d746e69 	ldclcs	14, cr6, [r4, #-420]!	; 0xfffffe5c
     73c:	2e636367 	cdpcs	3, 6, cr6, cr3, cr7, {3}
     740:	00010068 	andeq	r0, r1, r8, rrx
     744:	69707200 	ldmdbvs	r0!, {r9, ip, sp, lr}^
     748:	0200682e 	andeq	r6, r0, #3014656	; 0x2e0000
     74c:	6b630000 	blvs	18c0754 <__bss_end__+0x18b595c>
     750:	6f6c6c61 	svcvs	0x006c6c61
     754:	00682e63 	rsbeq	r2, r8, r3, ror #28
     758:	00000000 	andeq	r0, r0, r0
     75c:	05000105 	streq	r0, [r0, #-261]	; 0xfffffefb
     760:	0085b802 	addeq	fp, r5, r2, lsl #16
     764:	012b0300 			; <UNDEFINED> instruction: 0x012b0300
     768:	05140505 	ldreq	r0, [r4, #-1285]	; 0xfffffafb
     76c:	0501060b 	streq	r0, [r1, #-1547]	; 0xfffff9f5
     770:	1d054a08 	vstrne	s8, [r5, #-32]	; 0xffffffe0
     774:	01040200 	mrseq	r0, R12_usr
     778:	0018054a 	andseq	r0, r8, sl, asr #10
     77c:	4a010402 	bmi	4178c <__bss_end__+0x36994>
     780:	2e4d0c05 	cdpcs	12, 4, cr0, cr13, cr5, {0}
     784:	2e2c1005 	cdpcs	0, 2, cr1, cr12, cr5, {0}
     788:	3101052e 	tstcc	r1, lr, lsr #10
     78c:	4a0b0306 	bmi	2c13ac <__bss_end__+0x2b65b4>
     790:	05050106 	streq	r0, [r5, #-262]	; 0xfffffefa
     794:	05144b06 	ldreq	r4, [r4, #-2822]	; 0xfffff4fa
     798:	0501060a 	streq	r0, [r1, #-1546]	; 0xfffff9f6
     79c:	05052e08 	streq	r2, [r5, #-3592]	; 0xfffff1f8
     7a0:	0c054c06 	stceq	12, cr4, [r5], {6}
     7a4:	10050106 	andne	r0, r5, r6, lsl #2
     7a8:	30010565 	andcc	r0, r1, r5, ror #10
     7ac:	2e0e0306 	cdpcs	3, 0, cr0, cr14, cr6, {0}
     7b0:	05050106 	streq	r0, [r5, #-262]	; 0xfffffefa
     7b4:	00014b06 	andeq	r4, r1, r6, lsl #22
     7b8:	82020402 	andhi	r0, r2, #33554432	; 0x2000000
     7bc:	02040200 	andeq	r0, r4, #0, 4
     7c0:	04020001 	streq	r0, [r2], #-1
     7c4:	02001502 	andeq	r1, r0, #8388608	; 0x800000
     7c8:	00010204 	andeq	r0, r1, r4, lsl #4
     7cc:	4a020402 	bmi	817dc <__bss_end__+0x769e4>
     7d0:	02040200 	andeq	r0, r4, #0, 4
     7d4:	04020001 	streq	r0, [r2], #-1
     7d8:	02001302 	andeq	r1, r0, #134217728	; 0x8000000
     7dc:	00010204 	andeq	r0, r1, r4, lsl #4
     7e0:	4a010402 	bmi	417f0 <__bss_end__+0x369f8>
     7e4:	01040200 	mrseq	r0, R12_usr
     7e8:	04020001 	streq	r0, [r2], #-1
     7ec:	009e0601 	addseq	r0, lr, r1, lsl #12
     7f0:	2e010402 	cdpcs	4, 0, cr0, cr1, cr2, {0}
     7f4:	01040200 	mrseq	r0, R12_usr
     7f8:	02002e06 	andeq	r2, r0, #96	; 0x60
     7fc:	002a0104 	eoreq	r0, sl, r4, lsl #2
     800:	01010402 	tsteq	r1, r2, lsl #8
     804:	01040200 	mrseq	r0, R12_usr
     808:	02009e06 	andeq	r9, r0, #96	; 0x60
     80c:	002e0104 	eoreq	r0, lr, r4, lsl #2
     810:	06010402 	streq	r0, [r1], -r2, lsl #8
     814:	0402002e 	streq	r0, [r2], #-46	; 0xffffffd2
     818:	02003101 	andeq	r3, r0, #1073741824	; 0x40000000
     81c:	00010104 	andeq	r0, r1, r4, lsl #2
     820:	06010402 	streq	r0, [r1], -r2, lsl #8
     824:	0402009e 	streq	r0, [r2], #-158	; 0xffffff62
     828:	02002e01 	andeq	r2, r0, #1, 28
     82c:	2e060104 	adfcss	f0, f6, f4
     830:	03061905 	movweq	r1, #26885	; 0x6905
     834:	11052e0d 	tstne	r5, sp, lsl #28
     838:	0402004b 	streq	r0, [r2], #-75	; 0xffffffb5
     83c:	02002e04 	andeq	r2, r0, #4, 28	; 0x40
     840:	4d060404 	cfstrsmi	mvf0, [r6, #-16]
     844:	02001405 	andeq	r1, r0, #83886080	; 0x5000000
     848:	01060404 	tsteq	r6, r4, lsl #8
     84c:	04040200 	streq	r0, [r4], #-512	; 0xfffffe00
     850:	0023054a 	eoreq	r0, r3, sl, asr #10
     854:	06020402 	streq	r0, [r2], -r2, lsl #8
     858:	05017203 	streq	r7, [r1, #-515]	; 0xfffffdfd
     85c:	04020024 	streq	r0, [r2], #-36	; 0xffffffdc
     860:	05010602 	streq	r0, [r1, #-1538]	; 0xfffff9fe
     864:	0402001b 	streq	r0, [r2], #-27	; 0xffffffe5
     868:	052e0601 	streq	r0, [lr, #-1537]!	; 0xfffff9ff
     86c:	04020005 	streq	r0, [r2], #-5
     870:	05010601 	streq	r0, [r1, #-1537]	; 0xfffff9ff
     874:	054c0609 	strbeq	r0, [ip, #-1545]	; 0xfffff9f7
     878:	05010614 	streq	r0, [r1, #-1556]	; 0xfffff9ec
     87c:	054b0609 	strbeq	r0, [fp, #-1545]	; 0xfffff9f7
     880:	0501060c 	streq	r0, [r1, #-1548]	; 0xfffff9f4
     884:	054c060d 	strbeq	r0, [ip, #-1549]	; 0xfffff9f3
     888:	05010629 	streq	r0, [r1, #-1577]	; 0xfffff9d7
     88c:	052f060d 	streq	r0, [pc, #-1549]!	; 287 <__code_start__-0x7d79>
     890:	05010616 	streq	r0, [r1, #-1558]	; 0xfffff9ea
     894:	062f060d 	strteq	r0, [pc], -sp, lsl #12
     898:	bb062e2e 	bllt	18c158 <__bss_end__+0x181360>
     89c:	01061005 	tsteq	r6, r5
     8a0:	4c061105 	stfmis	f1, [r6], {5}
     8a4:	01061c05 	tsteq	r6, r5, lsl #24
     8a8:	002e1905 	eoreq	r1, lr, r5, lsl #18
     8ac:	66040402 	strvs	r0, [r4], -r2, lsl #8
     8b0:	02001105 	andeq	r1, r0, #1073741825	; 0x40000001
     8b4:	2f060404 	svccs	0x00060404
     8b8:	02002c05 	andeq	r2, r0, #1280	; 0x500
     8bc:	01060404 	tsteq	r6, r4, lsl #8
     8c0:	02001105 	andeq	r1, r0, #1073741825	; 0x40000001
     8c4:	4a2e0404 	bmi	b818dc <__bss_end__+0xb76ae4>
     8c8:	4f061505 	svcmi	0x00061505
     8cc:	01064d05 	tsteq	r6, r5, lsl #26
     8d0:	052e1505 	streq	r1, [lr, #-1285]!	; 0xfffffafb
     8d4:	06a30611 	ssateq	r0, #4, r1, lsl #12
     8d8:	16010566 	strne	r0, [r1], -r6, ror #10
     8dc:	0500064a 	streq	r0, [r0, #-1610]	; 0xfffff9b6
     8e0:	00878402 	addeq	r8, r7, r2, lsl #8
     8e4:	01090300 	mrseq	r0, (UNDEF: 57)
     8e8:	054e0505 	strbeq	r0, [lr, #-1285]	; 0xfffffafb
     8ec:	1505010a 	strne	r0, [r5, #-266]	; 0xfffffef6
     8f0:	25050106 	strcs	r0, [r5, #-262]	; 0xfffffefa
     8f4:	01040200 	mrseq	r0, R12_usr
     8f8:	05052e06 	streq	r2, [r5, #-3590]	; 0xfffff1fa
     8fc:	01040200 	mrseq	r0, R12_usr
     900:	09050106 	stmdbeq	r5, {r1, r2, r8}
     904:	03040200 	movweq	r0, #16896	; 0x4200
     908:	32054c06 	andcc	r4, r5, #1536	; 0x600
     90c:	03040200 	movweq	r0, #16896	; 0x4200
     910:	21050106 	tstcs	r5, r6, lsl #2
     914:	03040200 	movweq	r0, #16896	; 0x4200
     918:	0011054a 	andseq	r0, r1, sl, asr #10
     91c:	2e030402 	cdpcs	4, 0, cr0, cr3, cr2, {0}
     920:	02002805 	andeq	r2, r0, #327680	; 0x50000
     924:	2c060304 	stccs	3, cr0, [r6], {4}
     928:	02002c05 	andeq	r2, r0, #1280	; 0x500
     92c:	01060304 	tsteq	r6, r4, lsl #6
     930:	03040200 	movweq	r0, #16896	; 0x4200
     934:	0402002e 	streq	r0, [r2], #-46	; 0xffffffd2
     938:	05052e03 	streq	r2, [r5, #-3587]	; 0xfffff1fd
     93c:	06131906 	ldreq	r1, [r3], -r6, lsl #18
     940:	0530062e 	ldreq	r0, [r0, #-1582]!	; 0xfffff9d2
     944:	0501060d 	streq	r0, [r1, #-1549]	; 0xfffff9f3
     948:	054b0605 	strbeq	r0, [fp, #-1541]	; 0xfffff9fb
     94c:	0501060d 	streq	r0, [r1, #-1549]	; 0xfffff9f3
     950:	052f0605 	streq	r0, [pc, #-1541]!	; 353 <__code_start__-0x7cad>
     954:	0501060d 	streq	r0, [r1, #-1549]	; 0xfffff9f3
     958:	052f0605 	streq	r0, [pc, #-1541]!	; 35b <__code_start__-0x7ca5>
     95c:	0501060d 	streq	r0, [r1, #-1549]	; 0xfffff9f3
     960:	6a350605 	bvs	d4217c <__bss_end__+0xd37384>
     964:	13698313 	cmnne	r9, #1275068416	; 0x4c000000
     968:	01051368 	tsteq	r5, r8, ror #6
     96c:	dc066706 	stcle	7, cr6, [r6], {6}
     970:	05050106 	streq	r0, [r5, #-262]	; 0xfffffefa
     974:	06134b06 	ldreq	r4, [r3], -r6, lsl #22
     978:	4c2f062e 	stcmi	6, cr0, [pc], #-184	; 8c8 <__code_start__-0x7738>
     97c:	010a052f 	tsteq	sl, pc, lsr #10
     980:	01061505 	tsteq	r6, r5, lsl #10
     984:	0d27054a 	cfstr32eq	mvfx0, [r7, #-296]!	; 0xfffffed8
     988:	052e1b05 	streq	r1, [lr, #-2821]!	; 0xfffff4fb
     98c:	05052e0e 	streq	r2, [r5, #-3598]	; 0xfffff1f2
     990:	060d0533 			; <UNDEFINED> instruction: 0x060d0533
     994:	06130533 			; <UNDEFINED> instruction: 0x06130533
     998:	060d0501 	streq	r0, [sp], -r1, lsl #10
     99c:	0566062f 	strbeq	r0, [r6, #-1583]!	; 0xfffff9d1
     9a0:	04020028 	streq	r0, [r2], #-40	; 0xffffffd8
     9a4:	7a030602 	bvc	c21b4 <__bss_end__+0xb73bc>
     9a8:	002c052e 	eoreq	r0, ip, lr, lsr #10
     9ac:	06020402 	streq	r0, [r2], -r2, lsl #8
     9b0:	00250501 	eoreq	r0, r5, r1, lsl #10
     9b4:	06010402 	streq	r0, [r1], -r2, lsl #8
     9b8:	00050566 	andeq	r0, r5, r6, ror #10
     9bc:	06010402 	streq	r0, [r1], -r2, lsl #8
     9c0:	06090501 	streq	r0, [r9], -r1, lsl #10
     9c4:	0610054c 	ldreq	r0, [r0], -ip, asr #10
     9c8:	06090501 	streq	r0, [r9], -r1, lsl #10
     9cc:	060e052f 	streq	r0, [lr], -pc, lsr #10
     9d0:	2e0c0501 	cfsh32cs	mvfx0, mvfx12, #1
     9d4:	4f060e05 	svcmi	0x00060e05
     9d8:	01061105 	tsteq	r6, r5, lsl #2
     9dc:	4c060d05 	stcmi	13, cr0, [r6], {5}
     9e0:	01061905 	tsteq	r6, r5, lsl #18
     9e4:	2f060d05 	svccs	0x00060d05
     9e8:	2e2e6606 	cfmadda32cs	mvax0, mvax6, mvfx14, mvfx6
     9ec:	16060505 	strne	r0, [r6], -r5, lsl #10
     9f0:	062e0601 	strteq	r0, [lr], -r1, lsl #12
     9f4:	0513662e 	ldreq	r6, [r3, #-1582]	; 0xfffff9d2
     9f8:	05010608 	streq	r0, [r1, #-1544]	; 0xfffff9f8
     9fc:	014b0609 	cmpeq	fp, r9, lsl #12
     a00:	02004a4a 	andeq	r4, r0, #303104	; 0x4a000
     a04:	05140104 	ldreq	r0, [r4, #-260]	; 0xfffffefc
     a08:	04020005 	streq	r0, [r2], #-5
     a0c:	02001401 	andeq	r1, r0, #16777216	; 0x1000000
     a10:	054b0104 	strbeq	r0, [fp, #-260]	; 0xfffffefc
     a14:	04020008 	streq	r0, [r2], #-8
     a18:	05010601 	streq	r0, [r1, #-1537]	; 0xfffff9ff
     a1c:	05300609 	ldreq	r0, [r0, #-1545]!	; 0xfffff9f7
     a20:	05010617 	streq	r0, [r1, #-1559]	; 0xfffff9e9
     a24:	09053401 	stmdbeq	r5, {r0, sl, ip, sp}
     a28:	4a750306 	bmi	1d41648 <__bss_end__+0x1d36850>
     a2c:	01054a01 	tsteq	r5, r1, lsl #20
     a30:	ac083503 	cfstr32ge	mvfx3, [r8], {3}
     a34:	134b0505 	movtne	r0, #46341	; 0xb505
     a38:	052f4c4b 	streq	r4, [pc, #-3147]!	; fffffdf5 <__bss_end__+0xffff4ffd>
     a3c:	1505010a 	strne	r0, [r5, #-266]	; 0xfffffef6
     a40:	054a0106 	strbeq	r0, [sl, #-262]	; 0xfffffefa
     a44:	1b050d27 	blne	143ee8 <__bss_end__+0x1390f0>
     a48:	2e0e052e 	cfsh32cs	mvfx0, mvfx14, #30
     a4c:	05330505 	ldreq	r0, [r3, #-1285]!	; 0xfffffafb
     a50:	0533060d 	ldreq	r0, [r3, #-1549]!	; 0xfffff9f3
     a54:	05010613 	streq	r0, [r1, #-1555]	; 0xfffff9ed
     a58:	052f060d 	streq	r0, [pc, #-1549]!	; 453 <__code_start__-0x7bad>
     a5c:	0501061e 	streq	r0, [r1, #-1566]	; 0xfffff9e2
     a60:	0d052e1a 	stceq	14, cr2, [r5, #-104]	; 0xffffff98
     a64:	02042f06 	andeq	r2, r4, #6, 30
     a68:	8b030b05 	blhi	c3684 <__bss_end__+0xb888c>
     a6c:	05052e7e 	streq	r2, [r5, #-3710]	; 0xfffff182
     a70:	060c0513 			; <UNDEFINED> instruction: 0x060c0513
     a74:	0104ba01 	tsteq	r4, r1, lsl #20
     a78:	f4030d05 			; <UNDEFINED> instruction: 0xf4030d05
     a7c:	06660101 	strbteq	r0, [r6], -r1, lsl #2
     a80:	0028052f 	eoreq	r0, r8, pc, lsr #10
     a84:	03020402 	movweq	r0, #9218	; 0x2402
     a88:	2c056678 	stccs	6, cr6, [r5], {120}	; 0x78
     a8c:	02040200 	andeq	r0, r4, #0, 4
     a90:	25050106 	strcs	r0, [r5, #-262]	; 0xfffffefa
     a94:	01040200 	mrseq	r0, R12_usr
     a98:	05056606 	streq	r6, [r5, #-1542]	; 0xfffff9fa
     a9c:	01040200 	mrseq	r0, R12_usr
     aa0:	09050106 	stmdbeq	r5, {r1, r2, r8}
     aa4:	10054c06 	andne	r4, r5, r6, lsl #24
     aa8:	09050106 	stmdbeq	r5, {r1, r2, r8}
     aac:	0e052f06 	cdpeq	15, 0, cr2, cr5, cr6, {0}
     ab0:	0c050106 	stfeqs	f0, [r5], {6}
     ab4:	0505662e 	streq	r6, [r5, #-1582]	; 0xfffff9d2
     ab8:	01090306 	tsteq	r9, r6, lsl #6
     abc:	062e0601 	strteq	r0, [lr], -r1, lsl #12
     ac0:	05149e2e 	ldreq	r9, [r4, #-3630]	; 0xfffff1d2
     ac4:	66130601 	ldrvs	r0, [r3], -r1, lsl #12
     ac8:	02050006 	andeq	r0, r5, #6, 0
     acc:	00008a20 	andeq	r8, r0, r0, lsr #20
     ad0:	017e8b03 	cmneq	lr, r3, lsl #22
     ad4:	05050106 	streq	r0, [r5, #-262]	; 0xfffffefa
     ad8:	01144b06 	tsteq	r4, r6, lsl #22
     adc:	02040200 	andeq	r0, r4, #0, 4
     ae0:	0402004a 	streq	r0, [r2], #-74	; 0xffffffb6
     ae4:	02000102 	andeq	r0, r0, #-2147483648	; 0x80000000
     ae8:	05130204 	ldreq	r0, [r3, #-516]	; 0xfffffdfc
     aec:	04020009 	streq	r0, [r2], #-9
     af0:	05010602 	streq	r0, [r1, #-1538]	; 0xfffff9fe
     af4:	04020008 	streq	r0, [r2], #-8
     af8:	09054a02 	stmdbeq	r5, {r1, r9, fp, lr}
     afc:	13154b06 	tstne	r5, #6144	; 0x1800
     b00:	01061405 	tsteq	r6, r5, lsl #8
     b04:	0609054a 	streq	r0, [r9], -sl, asr #10
     b08:	0612052f 	ldreq	r0, [r2], -pc, lsr #10
     b0c:	06090501 	streq	r0, [r9], -r1, lsl #10
     b10:	10054b4b 	andne	r4, r5, fp, asr #22
     b14:	05050106 	streq	r0, [r5, #-262]	; 0xfffffefa
     b18:	0c054c06 	stceq	12, cr4, [r5], {6}
     b1c:	01050106 	tsteq	r5, r6, lsl #2
     b20:	0005054b 	andeq	r0, r5, fp, asr #10
     b24:	06010402 	streq	r0, [r1], -r2, lsl #8
     b28:	004a7403 	subeq	r7, sl, r3, lsl #8
     b2c:	01010402 	tsteq	r1, r2, lsl #8
     b30:	01040200 	mrseq	r0, R12_usr
     b34:	0200ba06 	andeq	fp, r0, #24576	; 0x6000
     b38:	2e060104 	adfcss	f0, f6, f4
     b3c:	01300905 	teqeq	r0, r5, lsl #18
     b40:	2e068206 	cdpcs	2, 0, cr8, cr6, cr6, {0}
     b44:	b6030105 	strlt	r0, [r3], -r5, lsl #2
     b48:	0106d601 	tsteq	r6, r1, lsl #12
     b4c:	30060505 	andcc	r0, r6, r5, lsl #10
     b50:	01060c05 	tsteq	r6, r5, lsl #24
     b54:	062f0105 	strteq	r0, [pc], -r5, lsl #2
     b58:	32050532 	andcc	r0, r5, #209715200	; 0xc800000
     b5c:	06090513 			; <UNDEFINED> instruction: 0x06090513
     b60:	4a080501 	bmi	201f6c <__bss_end__+0x1f7174>
     b64:	4b060905 	blmi	182f80 <__bss_end__+0x178188>
     b68:	4a4a0114 	bmi	1280fc0 <__bss_end__+0x12761c8>
     b6c:	05130505 	ldreq	r0, [r3, #-1285]	; 0xfffffafb
     b70:	05130601 	ldreq	r0, [r3, #-1537]	; 0xfffff9ff
     b74:	012a0609 			; <UNDEFINED> instruction: 0x012a0609
     b78:	c201059e 	andgt	r0, r1, #662700032	; 0x27800000
     b7c:	13320505 	teqne	r2, #20971520	; 0x1400000
     b80:	01061705 	tsteq	r6, r5, lsl #14
     b84:	4b060505 	blmi	181fa0 <__bss_end__+0x1771a8>
     b88:	01060805 	tsteq	r6, r5, lsl #16
     b8c:	4b060905 	blmi	182fa8 <__bss_end__+0x1781b0>
     b90:	2e060114 	mcrcs	1, 0, r0, cr6, cr4, {0}
     b94:	05662e06 	strbeq	r2, [r6, #-3590]!	; 0xfffff1fa
     b98:	05131305 	ldreq	r1, [r3, #-773]	; 0xfffffcfb
     b9c:	05130601 	ldreq	r0, [r3, #-1537]	; 0xfffff9ff
     ba0:	01450609 	cmpeq	r5, r9, lsl #12
     ba4:	0301059e 	movweq	r0, #5534	; 0x159e
     ba8:	0505ba21 	streq	fp, [r5, #-2593]	; 0xfffff5df
     bac:	17052f2f 	strne	r2, [r5, -pc, lsr #30]
     bb0:	05050106 	streq	r0, [r5, #-262]	; 0xfffffefa
     bb4:	01053206 	tsteq	r5, r6, lsl #4
     bb8:	31061306 	tstcc	r6, r6, lsl #6
     bbc:	012f0505 			; <UNDEFINED> instruction: 0x012f0505
     bc0:	000a029e 	muleq	sl, lr, r2
     bc4:	01210101 			; <UNDEFINED> instruction: 0x01210101
     bc8:	00030000 	andeq	r0, r3, r0
     bcc:	000000be 	strheq	r0, [r0], -lr
     bd0:	0efb0102 	cdpeq	1, 15, cr0, cr11, cr2, {0}
     bd4:	0101000d 	tsteq	r1, sp
     bd8:	00000101 	andeq	r0, r0, r1, lsl #2
     bdc:	00000100 	andeq	r0, r0, r0, lsl #2
     be0:	6c2f2e01 	stcvs	14, cr2, [pc], #-4	; be4 <__code_start__-0x741c>
     be4:	00636269 	rsbeq	r6, r3, r9, ror #4
     be8:	6573552f 	ldrbvs	r5, [r3, #-1327]!	; 0xfffffad1
     bec:	6d2f7372 	stcvs	3, cr7, [pc, #-456]!	; a2c <__code_start__-0x75d4>
     bf0:	73656c69 	cmnvc	r5, #26880	; 0x6900
     bf4:	756f532f 	strbvc	r5, [pc, #-815]!	; 8cd <__code_start__-0x7733>
     bf8:	2f656372 	svccs	0x00656372
     bfc:	34327363 	ldrtcc	r7, [r2], #-867	; 0xfffffc9d
     c00:	2f786c30 	svccs	0x00786c30
     c04:	7062696c 	rsbvc	r6, r2, ip, ror #18
     c08:	6e692f69 	cdpvs	15, 6, cr2, cr9, cr9, {3}
     c0c:	64756c63 	ldrbtvs	r6, [r5], #-3171	; 0xfffff39d
     c10:	6f2f0065 	svcvs	0x002f0065
     c14:	682f7470 	stmdavs	pc!, {r4, r5, r6, sl, ip, sp, lr}	; <UNPREDICTABLE>
     c18:	62656d6f 	rsbvs	r6, r5, #7104	; 0x1bc0
     c1c:	2f776572 	svccs	0x00776572
     c20:	6c6c6543 	cfstr64vs	mvdx6, [ip], #-268	; 0xfffffef4
     c24:	612f7261 			; <UNDEFINED> instruction: 0x612f7261
     c28:	6e2d6d72 	mcrvs	13, 1, r6, cr13, cr2, {3}
     c2c:	2d656e6f 	stclcs	14, cr6, [r5, #-444]!	; 0xfffffe44
     c30:	69626165 	stmdbvs	r2!, {r0, r2, r5, r6, r8, sp, lr}^
     c34:	392f392d 	stmdbcc	pc!, {r0, r2, r3, r5, r8, fp, ip, sp}	; <UNPREDICTABLE>
     c38:	3130322d 	teqcc	r0, sp, lsr #4
     c3c:	2d347139 	ldfcss	f7, [r4, #-228]!	; 0xffffff1c
     c40:	30317363 	eorscc	r7, r1, r3, ror #6
     c44:	6c2f6537 	cfstr32vs	mvfx6, [pc], #-220	; b70 <__code_start__-0x7490>
     c48:	672f6269 	strvs	r6, [pc, -r9, ror #4]!
     c4c:	612f6363 			; <UNDEFINED> instruction: 0x612f6363
     c50:	6e2d6d72 	mcrvs	13, 1, r6, cr13, cr2, {3}
     c54:	2d656e6f 	stclcs	14, cr6, [r5, #-444]!	; 0xfffffe44
     c58:	69626165 	stmdbvs	r2!, {r0, r2, r5, r6, r8, sp, lr}^
     c5c:	322e392f 	eorcc	r3, lr, #770048	; 0xbc000
     c60:	692f312e 	stmdbvs	pc!, {r1, r2, r3, r5, r8, ip, sp}	; <UNPREDICTABLE>
     c64:	756c636e 	strbvc	r6, [ip, #-878]!	; 0xfffffc92
     c68:	00006564 	andeq	r6, r0, r4, ror #10
     c6c:	736d656d 	cmnvc	sp, #457179136	; 0x1b400000
     c70:	632e7465 			; <UNDEFINED> instruction: 0x632e7465
     c74:	00000100 	andeq	r0, r0, r0, lsl #2
     c78:	2e697072 	mcrcs	0, 3, r7, cr9, cr2, {3}
     c7c:	00020068 	andeq	r0, r2, r8, rrx
     c80:	64747300 	ldrbtvs	r7, [r4], #-768	; 0xfffffd00
     c84:	2e666564 	cdpcs	5, 6, cr6, cr6, cr4, {3}
     c88:	00030068 	andeq	r0, r3, r8, rrx
     c8c:	29050000 	stmdbcs	r5, {}	; <UNPREDICTABLE>
     c90:	c4020500 	strgt	r0, [r2], #-1280	; 0xfffffb00
     c94:	1500008b 	strne	r0, [r0, #-139]	; 0xffffff75
     c98:	05130505 	ldreq	r0, [r3, #-1285]	; 0xfffffafb
     c9c:	05110629 	ldreq	r0, [r1, #-1577]	; 0xfffff9d7
     ca0:	05052f14 	streq	r2, [r5, #-3860]	; 0xfffff0ec
     ca4:	0a053006 	beq	14ccc4 <__bss_end__+0x141ecc>
     ca8:	059e0601 	ldreq	r0, [lr, #1537]	; 0x601
     cac:	05d70609 	ldrbeq	r0, [r7, #1545]	; 0x609
     cb0:	0501060e 	streq	r0, [r1, #-1550]	; 0xfffff9f2
     cb4:	052d060a 	streq	r0, [sp, #-1546]!	; 0xfffff9f6
     cb8:	0e05bb09 	vmlaeq.f64	d11, d5, d9
     cbc:	052e0106 	streq	r0, [lr, #-262]!	; 0xfffffefa
     cc0:	052d060a 	streq	r0, [sp, #-1546]!	; 0xfffff9f6
     cc4:	0b054b09 	bleq	1538f0 <__bss_end__+0x148af8>
     cc8:	0a050106 	beq	1410e8 <__bss_end__+0x1362f0>
     ccc:	2f0e052d 	svccs	0x000e052d
     cd0:	2d060a05 	vstrcs	s0, [r6, #-20]	; 0xffffffec
     cd4:	13060e05 	movwne	r0, #28165	; 0x6e05
     cd8:	2e060905 	vmlacs.f16	s0, s12, s10	; <UNPREDICTABLE>
     cdc:	05110a05 	ldreq	r0, [r1, #-2565]	; 0xfffff5fb
     ce0:	01051405 	tsteq	r5, r5, lsl #8
     ce4:	02021306 	andeq	r1, r2, #402653184	; 0x18000000
     ce8:	20010100 	andcs	r0, r1, r0, lsl #2
     cec:	03000001 	movweq	r0, #1
     cf0:	0000db00 	andeq	sp, r0, r0, lsl #22
     cf4:	fb010200 	blx	414fe <__bss_end__+0x36706>
     cf8:	01000d0e 	tsteq	r0, lr, lsl #26
     cfc:	00010101 	andeq	r0, r1, r1, lsl #2
     d00:	00010000 	andeq	r0, r1, r0
     d04:	2f2e0100 	svccs	0x002e0100
     d08:	6362696c 	cmnvs	r2, #108, 18	; 0x1b0000
     d0c:	706f2f00 	rsbvc	r2, pc, r0, lsl #30
     d10:	6f682f74 	svcvs	0x00682f74
     d14:	7262656d 	rsbvc	r6, r2, #457179136	; 0x1b400000
     d18:	432f7765 			; <UNDEFINED> instruction: 0x432f7765
     d1c:	616c6c65 	cmnvs	ip, r5, ror #24
     d20:	72612f72 	rsbvc	r2, r1, #456	; 0x1c8
     d24:	6f6e2d6d 	svcvs	0x006e2d6d
     d28:	652d656e 	strvs	r6, [sp, #-1390]!	; 0xfffffa92
     d2c:	2d696261 	sfmcs	f6, 2, [r9, #-388]!	; 0xfffffe7c
     d30:	2d392f39 	ldccs	15, cr2, [r9, #-228]!	; 0xffffff1c
     d34:	39313032 	ldmdbcc	r1!, {r1, r4, r5, ip, sp}
     d38:	632d3471 			; <UNDEFINED> instruction: 0x632d3471
     d3c:	37303173 			; <UNDEFINED> instruction: 0x37303173
     d40:	696c2f65 	stmdbvs	ip!, {r0, r2, r5, r6, r8, r9, sl, fp, sp}^
     d44:	63672f62 	cmnvs	r7, #392	; 0x188
     d48:	72612f63 	rsbvc	r2, r1, #396	; 0x18c
     d4c:	6f6e2d6d 	svcvs	0x006e2d6d
     d50:	652d656e 	strvs	r6, [sp, #-1390]!	; 0xfffffa92
     d54:	2f696261 	svccs	0x00696261
     d58:	2e322e39 	mrccs	14, 1, r2, cr2, cr9, {1}
     d5c:	6e692f31 	mcrvs	15, 3, r2, cr9, cr1, {1}
     d60:	64756c63 	ldrbtvs	r6, [r5], #-3171	; 0xfffff39d
     d64:	552f0065 	strpl	r0, [pc, #-101]!	; d07 <__code_start__-0x72f9>
     d68:	73726573 	cmnvc	r2, #482344960	; 0x1cc00000
     d6c:	6c696d2f 	stclvs	13, cr6, [r9], #-188	; 0xffffff44
     d70:	532f7365 			; <UNDEFINED> instruction: 0x532f7365
     d74:	6372756f 	cmnvs	r2, #465567744	; 0x1bc00000
     d78:	73632f65 	cmnvc	r3, #404	; 0x194
     d7c:	6c303432 	cfldrsvs	mvf3, [r0], #-200	; 0xffffff38
     d80:	696c2f78 	stmdbvs	ip!, {r3, r4, r5, r6, r8, r9, sl, fp, sp}^
     d84:	2f697062 	svccs	0x00697062
     d88:	6c636e69 	stclvs	14, cr6, [r3], #-420	; 0xfffffe5c
     d8c:	00656475 	rsbeq	r6, r5, r5, ror r4
     d90:	69727000 	ldmdbvs	r2!, {ip, sp, lr}^
     d94:	2e6b746e 	cdpcs	4, 6, cr7, cr11, cr14, {3}
     d98:	00010063 	andeq	r0, r1, r3, rrx
     d9c:	64747300 	ldrbtvs	r7, [r4], #-768	; 0xfffffd00
     da0:	2e677261 	cdpcs	2, 6, cr7, cr7, cr1, {3}
     da4:	00020068 	andeq	r0, r2, r8, rrx
     da8:	69707200 	ldmdbvs	r0!, {r9, ip, sp, lr}^
     dac:	0300682e 	movweq	r6, #2094	; 0x82e
     db0:	623c0000 	eorsvs	r0, ip, #0, 0
     db4:	746c6975 	strbtvc	r6, [ip], #-2421	; 0xfffff68b
     db8:	3e6e692d 	vmulcc.f16	s13, s28, s27	; <UNPREDICTABLE>
     dbc:	00000000 	andeq	r0, r0, r0
     dc0:	702d6176 	eorvc	r6, sp, r6, ror r1
     dc4:	746e6972 	strbtvc	r6, [lr], #-2418	; 0xfffff68e
     dc8:	00682e6b 	rsbeq	r2, r8, fp, ror #28
     dcc:	00000001 	andeq	r0, r0, r1
     dd0:	05002205 	streq	r2, [r0, #-517]	; 0xfffffdfb
     dd4:	008c3c02 	addeq	r3, ip, r2, lsl #24
     dd8:	05051700 	streq	r1, [r5, #-1792]	; 0xfffff900
     ddc:	05141314 	ldreq	r1, [r4, #-788]	; 0xfffffcec
     de0:	050d0622 	streq	r0, [sp, #-1570]	; 0xfffff9de
     de4:	22055012 	andcs	r5, r5, #18, 0
     de8:	052e7a03 	streq	r7, [lr, #-2563]!	; 0xfffff5fd
     dec:	12053305 	andne	r3, r5, #335544320	; 0x14000000
     df0:	6505052f 	strvs	r0, [r5, #-1327]	; 0xfffffad1
     df4:	2f060905 	svccs	0x00060905
     df8:	01061205 	tsteq	r6, r5, lsl #4
     dfc:	4b060505 	blmi	182218 <__bss_end__+0x177420>
     e00:	064a0616 			; <UNDEFINED> instruction: 0x064a0616
     e04:	06010550 			; <UNDEFINED> instruction: 0x06010550
     e08:	08026613 	stmdaeq	r2, {r0, r1, r4, r9, sl, sp, lr}
     e0c:	a0010100 	andge	r0, r1, r0, lsl #2
     e10:	03000000 	movweq	r0, #0
     e14:	00005700 	andeq	r5, r0, r0, lsl #14
     e18:	fb010200 	blx	41622 <__bss_end__+0x3682a>
     e1c:	01000d0e 	tsteq	r0, lr, lsl #26
     e20:	00010101 	andeq	r0, r1, r1, lsl #2
     e24:	00010000 	andeq	r0, r1, r0
     e28:	2f2e0100 	svccs	0x002e0100
     e2c:	6362696c 	cmnvs	r2, #108, 18	; 0x1b0000
     e30:	73552f00 	cmpvc	r5, #0, 30
     e34:	2f737265 	svccs	0x00737265
     e38:	656c696d 	strbvs	r6, [ip, #-2413]!	; 0xfffff693
     e3c:	6f532f73 	svcvs	0x00532f73
     e40:	65637275 	strbvs	r7, [r3, #-629]!	; 0xfffffd8b
     e44:	3273632f 	rsbscc	r6, r3, #-1140850688	; 0xbc000000
     e48:	786c3034 	stmdavc	ip!, {r2, r4, r5, ip, sp}^
     e4c:	62696c2f 	rsbvs	r6, r9, #12032	; 0x2f00
     e50:	692f6970 	stmdbvs	pc!, {r4, r5, r6, r8, fp, sp, lr}	; <UNPREDICTABLE>
     e54:	756c636e 	strbvc	r6, [ip, #-878]!	; 0xfffffc92
     e58:	00006564 	andeq	r6, r0, r4, ror #10
     e5c:	6b747570 	blvs	1d1e424 <__bss_end__+0x1d1362c>
     e60:	0100632e 	tsteq	r0, lr, lsr #6
     e64:	70720000 	rsbsvc	r0, r2, r0
     e68:	00682e69 	rsbeq	r2, r8, r9, ror #28
     e6c:	00000002 	andeq	r0, r0, r2
     e70:	05002205 	streq	r2, [r0, #-517]	; 0xfffffdfb
     e74:	008c9402 	addeq	r9, ip, r2, lsl #8
     e78:	05051500 	streq	r1, [r5, #-1280]	; 0xfffffb00
     e7c:	06220513 			; <UNDEFINED> instruction: 0x06220513
     e80:	0b052e11 	bleq	14c6cc <__bss_end__+0x1418d4>
     e84:	05052f06 	streq	r2, [r5, #-3846]	; 0xfffff0fa
     e88:	09052e06 	stmdbeq	r5, {r1, r2, r9, sl, fp, sp}
     e8c:	02040200 	andeq	r0, r4, #0, 4
     e90:	0f056706 	svceq	0x00056706
     e94:	02040200 	andeq	r0, r4, #0, 4
     e98:	000b0549 	andeq	r0, fp, r9, asr #10
     e9c:	01020402 	tsteq	r2, r2, lsl #8
     ea0:	02000505 	andeq	r0, r0, #20971520	; 0x1400000
     ea4:	2e060204 	cdpcs	2, 0, cr0, cr6, cr4, {0}
     ea8:	01054e06 	tsteq	r5, r6, lsl #28
     eac:	06021306 	streq	r1, [r2], -r6, lsl #6
     eb0:	fa010100 	blx	412b8 <__bss_end__+0x364c0>
     eb4:	03000008 	movweq	r0, #8
     eb8:	0000f100 	andeq	pc, r0, r0, lsl #2
     ebc:	fb010200 	blx	416c6 <__bss_end__+0x368ce>
     ec0:	01000d0e 	tsteq	r0, lr, lsl #26
     ec4:	00010101 	andeq	r0, r1, r1, lsl #2
     ec8:	00010000 	andeq	r0, r1, r0
     ecc:	2f2e0100 	svccs	0x002e0100
     ed0:	6362696c 	cmnvs	r2, #108, 18	; 0x1b0000
     ed4:	706f2f00 	rsbvc	r2, pc, r0, lsl #30
     ed8:	6f682f74 	svcvs	0x00682f74
     edc:	7262656d 	rsbvc	r6, r2, #457179136	; 0x1b400000
     ee0:	432f7765 			; <UNDEFINED> instruction: 0x432f7765
     ee4:	616c6c65 	cmnvs	ip, r5, ror #24
     ee8:	72612f72 	rsbvc	r2, r1, #456	; 0x1c8
     eec:	6f6e2d6d 	svcvs	0x006e2d6d
     ef0:	652d656e 	strvs	r6, [sp, #-1390]!	; 0xfffffa92
     ef4:	2d696261 	sfmcs	f6, 2, [r9, #-388]!	; 0xfffffe7c
     ef8:	2d392f39 	ldccs	15, cr2, [r9, #-228]!	; 0xffffff1c
     efc:	39313032 	ldmdbcc	r1!, {r1, r4, r5, ip, sp}
     f00:	632d3471 			; <UNDEFINED> instruction: 0x632d3471
     f04:	37303173 			; <UNDEFINED> instruction: 0x37303173
     f08:	696c2f65 	stmdbvs	ip!, {r0, r2, r5, r6, r8, r9, sl, fp, sp}^
     f0c:	63672f62 	cmnvs	r7, #392	; 0x188
     f10:	72612f63 	rsbvc	r2, r1, #396	; 0x18c
     f14:	6f6e2d6d 	svcvs	0x006e2d6d
     f18:	652d656e 	strvs	r6, [sp, #-1390]!	; 0xfffffa92
     f1c:	2f696261 	svccs	0x00696261
     f20:	2e322e39 	mrccs	14, 1, r2, cr2, cr9, {1}
     f24:	6e692f31 	mcrvs	15, 3, r2, cr9, cr1, {1}
     f28:	64756c63 	ldrbtvs	r6, [r5], #-3171	; 0xfffff39d
     f2c:	552f0065 	strpl	r0, [pc, #-101]!	; ecf <__code_start__-0x7131>
     f30:	73726573 	cmnvc	r2, #482344960	; 0x1cc00000
     f34:	6c696d2f 	stclvs	13, cr6, [r9], #-188	; 0xffffff44
     f38:	532f7365 			; <UNDEFINED> instruction: 0x532f7365
     f3c:	6372756f 	cmnvs	r2, #465567744	; 0x1bc00000
     f40:	73632f65 	cmnvc	r3, #404	; 0x194
     f44:	6c303432 	cfldrsvs	mvf3, [r0], #-200	; 0xffffff38
     f48:	696c2f78 	stmdbvs	ip!, {r3, r4, r5, r6, r8, r9, sl, fp, sp}^
     f4c:	2f697062 	svccs	0x00697062
     f50:	6c636e69 	stclvs	14, cr6, [r3], #-420	; 0xfffffe5c
     f54:	00656475 	rsbeq	r6, r5, r5, ror r4
     f58:	2d617600 	stclcs	6, cr7, [r1, #-0]
     f5c:	6e697270 	mcrvs	2, 3, r7, cr9, cr0, {3}
     f60:	632e6b74 			; <UNDEFINED> instruction: 0x632e6b74
     f64:	00000100 	andeq	r0, r0, r0, lsl #2
     f68:	69647473 	stmdbvs	r4!, {r0, r1, r4, r5, r6, sl, ip, sp, lr}^
     f6c:	672d746e 	strvs	r7, [sp, -lr, ror #8]!
     f70:	682e6363 	stmdavs	lr!, {r0, r1, r5, r6, r8, r9, sp, lr}
     f74:	00000200 	andeq	r0, r0, r0, lsl #4
     f78:	2e697072 	mcrcs	0, 3, r7, cr9, cr2, {3}
     f7c:	00030068 	andeq	r0, r3, r8, rrx
     f80:	69707200 	ldmdbvs	r0!, {r9, ip, sp, lr}^
     f84:	746e692d 	strbtvc	r6, [lr], #-2349	; 0xfffff6d3
     f88:	616e7265 	cmnvs	lr, r5, ror #4
     f8c:	00682e6c 	rsbeq	r2, r8, ip, ror #28
     f90:	73000003 	movwvc	r0, #3
     f94:	72616474 	rsbvc	r6, r1, #116, 8	; 0x74000000
     f98:	00682e67 	rsbeq	r2, r8, r7, ror #28
     f9c:	3c000002 	stccc	0, cr0, [r0], {2}
     fa0:	6c697562 	cfstr64vs	mvdx7, [r9], #-392	; 0xfffffe78
     fa4:	6e692d74 	mcrvs	13, 3, r2, cr9, cr4, {3}
     fa8:	0000003e 	andeq	r0, r0, lr, lsr r0
     fac:	01050000 	mrseq	r0, (UNDEF: 5)
     fb0:	cc020500 	cfstr32gt	mvfx0, [r2], {-0}
     fb4:	0300008c 	movweq	r0, #140	; 0x8c
     fb8:	050100c8 	streq	r0, [r1, #-200]	; 0xffffff38
     fbc:	01051402 	tsteq	r5, r2, lsl #8
     fc0:	04051006 	streq	r1, [r5], #-6
     fc4:	2c010530 	cfstr32cs	mvfx0, [r1], {48}	; 0x30
     fc8:	3004054a 	andcc	r0, r4, sl, asr #10
     fcc:	31060205 	tstcc	r6, r5, lsl #4
     fd0:	060b0513 			; <UNDEFINED> instruction: 0x060b0513
     fd4:	0602052e 	streq	r0, [r2], -lr, lsr #10
     fd8:	06090530 			; <UNDEFINED> instruction: 0x06090530
     fdc:	2e0d2402 	cdpcs	4, 0, cr2, cr13, cr2, {0}
     fe0:	060d052e 	streq	r0, [sp], -lr, lsr #10
     fe4:	054a1703 	strbeq	r1, [sl, #-1795]	; 0xfffff8fd
     fe8:	2d051311 	stccs	3, cr1, [r5, #-68]	; 0xffffffbc
     fec:	16050106 	strne	r0, [r5], -r6, lsl #2
     ff0:	2f0d052e 	svccs	0x000d052e
     ff4:	052d1605 	streq	r1, [sp, #-1541]!	; 0xfffff9fb
     ff8:	052f0614 	streq	r0, [pc, #-1556]!	; 9ec <__code_start__-0x7614>
     ffc:	05010617 	streq	r0, [r1, #-1559]	; 0xfffff9e9
    1000:	2f062e0d 	svccs	0x00062e0d
    1004:	01061205 	tsteq	r6, r5, lsl #4
    1008:	052d2f2e 	streq	r2, [sp, #-3886]!	; 0xfffff0d2
    100c:	052f060d 	streq	r0, [pc, #-1549]!	; a07 <__code_start__-0x75f9>
    1010:	05010612 	streq	r0, [r1, #-1554]	; 0xfffff9ee
    1014:	052f0619 	streq	r0, [pc, #-1561]!	; a03 <__code_start__-0x75fd>
    1018:	01110304 	tsteq	r1, r4, lsl #6
    101c:	15020501 	strne	r0, [r2, #-1281]	; 0xfffffaff
    1020:	b2030e05 	andlt	r0, r3, #80	; 0x50
    1024:	0205017f 	andeq	r0, r5, #-1073741793	; 0xc000001f
    1028:	06060513 			; <UNDEFINED> instruction: 0x06060513
    102c:	06020501 	streq	r0, [r2], -r1, lsl #10
    1030:	01080530 	tsteq	r8, r0, lsr r5
    1034:	01060205 	tsteq	r6, r5, lsl #4
    1038:	0808054a 	stmdaeq	r8, {r1, r3, r6, r8, sl}
    103c:	06030591 			; <UNDEFINED> instruction: 0x06030591
    1040:	0608054a 	streq	r0, [r8], -sl, asr #10
    1044:	06150501 	ldreq	r0, [r5], -r1, lsl #10
    1048:	0108052d 	tsteq	r8, sp, lsr #10
    104c:	05d70305 	ldrbeq	r0, [r7, #773]	; 0x305
    1050:	05010608 	streq	r0, [r1, #-1544]	; 0xfffff9f8
    1054:	02052d18 	andeq	r2, r5, #24, 26	; 0x600
    1058:	2f08052e 	svccs	0x0008052e
    105c:	2d061505 	cfstr32cs	mvfx1, [r6, #-20]	; 0xffffffec
    1060:	05010805 	streq	r0, [r1, #-2053]	; 0xfffff7fb
    1064:	05010602 	streq	r0, [r1, #-1538]	; 0xfffff9fe
    1068:	052f0603 	streq	r0, [pc, #-1539]!	; a6d <__code_start__-0x7593>
    106c:	05110618 	ldreq	r0, [r1, #-1560]	; 0xfffff9e8
    1070:	08052e02 	stmdaeq	r5, {r1, r9, sl, fp, sp}
    1074:	0615052f 	ldreq	r0, [r5], -pc, lsr #10
    1078:	0108052d 	tsteq	r8, sp, lsr #10
    107c:	05130305 	ldreq	r0, [r3, #-773]	; 0xfffffcfb
    1080:	05010608 	streq	r0, [r1, #-1544]	; 0xfffff9f8
    1084:	052d0615 	streq	r0, [sp, #-1557]!	; 0xfffff9eb
    1088:	01060108 	tsteq	r6, r8, lsl #2
    108c:	a0060205 	andge	r0, r6, r5, lsl #4
    1090:	01060505 	tsteq	r6, r5, lsl #10
    1094:	05360405 	ldreq	r0, [r6, #-1029]!	; 0xfffffbfb
    1098:	09052f11 	stmdbeq	r5, {r0, r4, r8, r9, sl, fp, sp}
    109c:	3302052e 	movwcc	r0, #9518	; 0x252e
    10a0:	72030505 	andvc	r0, r3, #20971520	; 0x1400000
    10a4:	0602052e 	streq	r0, [r2], -lr, lsr #10
    10a8:	0501062f 	streq	r0, [r1, #-1583]	; 0xfffff9d1
    10ac:	0516060e 	ldreq	r0, [r6, #-1550]	; 0xfffff9f2
    10b0:	05131402 	ldreq	r1, [r3, #-1026]	; 0xfffffbfe
    10b4:	02051303 	andeq	r1, r5, #201326592	; 0xc000000
    10b8:	0b051514 	bleq	146510 <__bss_end__+0x13b718>
    10bc:	06020501 	streq	r0, [r2], -r1, lsl #10
    10c0:	03052e01 	movweq	r2, #24065	; 0x5e01
    10c4:	0a056706 	beq	15ace4 <__bss_end__+0x14feec>
    10c8:	02050106 	andeq	r0, r5, #-2147483647	; 0x80000001
    10cc:	2f0a052d 	svccs	0x000a052d
    10d0:	2d061705 	stccs	7, cr1, [r6, #-20]	; 0xffffffec
    10d4:	05010b05 	streq	r0, [r1, #-2821]	; 0xfffff4fb
    10d8:	05010602 	streq	r0, [r1, #-1538]	; 0xfffff9fe
    10dc:	052e4c09 	streq	r4, [lr, #-3081]!	; 0xfffff3f7
    10e0:	052e0602 	streq	r0, [lr, #-1538]!	; 0xfffff9fe
    10e4:	05010609 	streq	r0, [r1, #-1545]	; 0xfffff9f7
    10e8:	06300602 	ldrteq	r0, [r0], -r2, lsl #12
    10ec:	03010501 	movweq	r0, #5377	; 0x1501
    10f0:	09050138 	stmdbeq	r5, {r3, r4, r5, r8}
    10f4:	2e4a4f03 	cdpcs	15, 4, cr4, cr10, cr3, {0}
    10f8:	0619052e 	ldreq	r0, [r9], -lr, lsr #10
    10fc:	054a2703 	strbeq	r2, [sl, #-1795]	; 0xfffff8fd
    1100:	2805131a 	stmdacs	r5, {r1, r3, r4, r8, r9, ip}
    1104:	1f050106 	svcne	0x00050106
    1108:	2f04052e 	svccs	0x0004052e
    110c:	052d1f05 	streq	r1, [sp, #-3845]!	; 0xfffff0fb
    1110:	052f060b 	streq	r0, [pc, #-1547]!	; b0d <__code_start__-0x74f3>
    1114:	0501060e 	streq	r0, [r1, #-1550]	; 0xfffff9f2
    1118:	02052e04 	andeq	r2, r5, #4, 28	; 0x40
    111c:	4a590306 	bmi	1641d3c <__bss_end__+0x1636f44>
    1120:	060b0513 			; <UNDEFINED> instruction: 0x060b0513
    1124:	0602052e 	streq	r0, [r2], -lr, lsr #10
    1128:	06090530 			; <UNDEFINED> instruction: 0x06090530
    112c:	050d2402 	streq	r2, [sp, #-1026]	; 0xfffffbfe
    1130:	13360604 	teqne	r6, #4, 12	; 0x400000
    1134:	01060605 	tsteq	r6, r5, lsl #12
    1138:	67060505 	strvs	r0, [r6, -r5, lsl #10]
    113c:	09051313 	stmdbeq	r5, {r0, r1, r4, r8, r9, ip}
    1140:	0d051106 	stfeqs	f1, [r5, #-24]	; 0xffffffe8
    1144:	300b052b 	andcc	r0, fp, fp, lsr #10
    1148:	052c0d05 	streq	r0, [ip, #-3333]!	; 0xfffff2fb
    114c:	0405351b 	streq	r3, [r5], #-1307	; 0xfffffae5
    1150:	05052d06 	streq	r2, [r5, #-3334]	; 0xfffff2fa
    1154:	061b0513 			; <UNDEFINED> instruction: 0x061b0513
    1158:	820a052e 	andhi	r0, sl, #192937984	; 0xb800000
    115c:	052f0405 	streq	r0, [pc, #-1029]!	; d5f <__code_start__-0x72a1>
    1160:	0a052e0e 	beq	14c9a0 <__bss_end__+0x141ba8>
    1164:	060b0549 	streq	r0, [fp], -r9, asr #10
    1168:	0604052f 	streq	r0, [r4], -pc, lsr #10
    116c:	052f0601 	streq	r0, [pc, #-1537]!	; b73 <__code_start__-0x748d>
    1170:	05010606 	streq	r0, [r1, #-1542]	; 0xfffff9fa
    1174:	052f0605 	streq	r0, [pc, #-1541]!	; b77 <__code_start__-0x7489>
    1178:	2e01060a 	cfmadd32cs	mvax0, mvfx0, mvfx1, mvfx10
    117c:	2e2e0705 	cdpcs	7, 2, cr0, cr14, cr5, {0}
    1180:	0604052e 	streq	r0, [r4], -lr, lsr #10
    1184:	05010d03 	streq	r0, [r1, #-3331]	; 0xfffff2fd
    1188:	46030602 	strmi	r0, [r3], -r2, lsl #12
    118c:	03090501 	movweq	r0, #38145	; 0x9501
    1190:	04052e3a 	streq	r2, [r5], #-3642	; 0xfffff1c6
    1194:	0d032f06 	stceq	15, cr2, [r3, #-24]	; 0xffffffe8
    1198:	02050101 	andeq	r0, r5, #1073741824	; 0x40000000
    119c:	030e0515 	movweq	r0, #58645	; 0xe515
    11a0:	05017fb2 	streq	r7, [r1, #-4018]	; 0xfffff04e
    11a4:	05141302 	ldreq	r1, [r4, #-770]	; 0xfffffcfe
    11a8:	06050108 	streq	r0, [r5], -r8, lsl #2
    11ac:	3c031006 	stccc	0, cr1, [r3], {6}
    11b0:	0302052e 	movweq	r0, #9518	; 0x252e
    11b4:	30064a46 	andcc	r4, r6, r6, asr #20
    11b8:	01060505 	tsteq	r6, r5, lsl #10
    11bc:	02052e2e 	andeq	r2, r5, #736	; 0x2e0
    11c0:	01064b06 	tsteq	r6, r6, lsl #22
    11c4:	16060e05 	strne	r0, [r6], -r5, lsl #28
    11c8:	13140205 	tstne	r4, #1342177280	; 0x50000000
    11cc:	0b051515 	bleq	146628 <__bss_end__+0x13b830>
    11d0:	06020501 	streq	r0, [r2], -r1, lsl #10
    11d4:	0530062e 	ldreq	r0, [r0, #-1582]!	; 0xfffff9d2
    11d8:	05010609 	streq	r0, [r1, #-1545]	; 0xfffff9f7
    11dc:	064c0602 	strbeq	r0, [ip], -r2, lsl #12
    11e0:	03010501 	movweq	r0, #5377	; 0x1501
    11e4:	06050138 			; <UNDEFINED> instruction: 0x06050138
    11e8:	054a6e03 	strbeq	r6, [sl, #-3587]	; 0xfffff1fd
    11ec:	66460302 	strbvs	r0, [r6], -r2, lsl #6
    11f0:	04052e4a 	streq	r2, [r5], #-3658	; 0xfffff1b6
    11f4:	00c80306 	sbceq	r0, r8, r6, lsl #6
    11f8:	01010101 	tsteq	r1, r1, lsl #2
    11fc:	06822e06 	streq	r2, [r2], r6, lsl #28
    1200:	2e72034a 	cdpcs	3, 7, cr0, cr2, cr10, {2}
    1204:	01060905 	tsteq	r6, r5, lsl #18
    1208:	2f060405 	svccs	0x00060405
    120c:	01010d03 	tsteq	r1, r3, lsl #26
    1210:	05150205 	ldreq	r0, [r5, #-517]	; 0xfffffdfb
    1214:	7fb2030e 	svcvc	0x00b2030e
    1218:	13020501 	movwne	r0, #9473	; 0x2501
    121c:	01080514 	tsteq	r8, r4, lsl r5
    1220:	03060905 	movweq	r0, #26885	; 0x6905
    1224:	0605011b 			; <UNDEFINED> instruction: 0x0605011b
    1228:	032e6303 			; <UNDEFINED> instruction: 0x032e6303
    122c:	2e2e2e3c 	mcrcs	14, 1, r2, cr14, cr12, {1}
    1230:	03064805 	movweq	r4, #26629	; 0x6805
    1234:	3c087fb4 	stccc	15, cr7, [r8], {180}	; 0xb4
    1238:	01130505 	tsteq	r3, r5, lsl #10
    123c:	02002e06 	andeq	r2, r0, #96	; 0x60
    1240:	2e060204 	cdpcs	2, 0, cr0, cr6, cr4, {0}
    1244:	02040200 	andeq	r0, r4, #0, 4
    1248:	04020001 	streq	r0, [r2], #-1
    124c:	11051302 	tstne	r5, r2, lsl #6
    1250:	02040200 	andeq	r0, r4, #0, 4
    1254:	07050106 	streq	r0, [r5, -r6, lsl #2]
    1258:	02040200 	andeq	r0, r4, #0, 4
    125c:	0011052f 	andseq	r0, r1, pc, lsr #10
    1260:	2d020402 	cfstrscs	mvf0, [r2, #-8]
    1264:	02000505 	andeq	r0, r0, #20971520	; 0x1400000
    1268:	2f060204 	svccs	0x00060204
    126c:	02000905 	andeq	r0, r0, #81920	; 0x14000
    1270:	05130204 	ldreq	r0, [r3, #-516]	; 0xfffffdfc
    1274:	0402000e 	streq	r0, [r2], #-14
    1278:	05010602 	streq	r0, [r1, #-1538]	; 0xfffff9fe
    127c:	04020005 	streq	r0, [r2], #-5
    1280:	00630601 	rsbeq	r0, r3, r1, lsl #12
    1284:	01010402 	tsteq	r1, r2, lsl #8
    1288:	02004805 	andeq	r4, r0, #327680	; 0x50000
    128c:	11060104 	tstne	r6, r4, lsl #2
    1290:	02000505 	andeq	r0, r0, #20971520	; 0x1400000
    1294:	052f0104 	streq	r0, [pc, #-260]!	; 1198 <__code_start__-0x6e68>
    1298:	04020048 	streq	r0, [r2], #-72	; 0xffffffb8
    129c:	05052d01 	streq	r2, [r5, #-3329]	; 0xfffff2ff
    12a0:	01040200 	mrseq	r0, R12_usr
    12a4:	0402002f 	streq	r0, [r2], #-47	; 0xffffffd1
    12a8:	02004a01 	andeq	r4, r0, #4096	; 0x1000
    12ac:	004a0104 	subeq	r0, sl, r4, lsl #2
    12b0:	06010402 	streq	r0, [r1], -r2, lsl #8
    12b4:	0340054a 	movteq	r0, #1354	; 0x54a
    12b8:	06d600e1 	ldrbeq	r0, [r6], r1, ror #1
    12bc:	4e090501 	cfsh32mi	mvfx0, mvfx9, #1
    12c0:	3008052e 	andcc	r0, r8, lr, lsr #10
    12c4:	05291e05 	streq	r1, [r9, #-3589]!	; 0xfffff1fb
    12c8:	0d052e12 	stceq	14, cr2, [r5, #-72]	; 0xffffffb8
    12cc:	06020533 			; <UNDEFINED> instruction: 0x06020533
    12d0:	13050545 	movwne	r0, #21829	; 0x5545
    12d4:	05140205 	ldreq	r0, [r4, #-517]	; 0xfffffdfb
    12d8:	02051305 	andeq	r1, r5, #335544320	; 0x14000000
    12dc:	01080513 	tsteq	r8, r3, lsl r5
    12e0:	03064005 	movweq	r4, #24581	; 0x6005
    12e4:	052e017a 	streq	r0, [lr, #-378]!	; 0xfffffe86
    12e8:	0566340d 	strbeq	r3, [r6, #-1037]!	; 0xfffffbf3
    12ec:	4a200311 	bmi	801f38 <__bss_end__+0x7f7140>
    12f0:	0604054a 	streq	r0, [r4], -sl, asr #10
    12f4:	05016203 	streq	r6, [r1, #-515]	; 0xfffffdfd
    12f8:	05010609 	streq	r0, [r1, #-1545]	; 0xfffff9f7
    12fc:	08052e0f 	stmdaeq	r5, {r0, r1, r2, r3, r9, sl, fp, sp}
    1300:	0d052c06 	stceq	12, cr2, [r5, #-24]	; 0xffffffe8
    1304:	03052e06 	movweq	r2, #24070	; 0x5e06
    1308:	05056706 	streq	r6, [r5, #-1798]	; 0xfffff8fa
    130c:	08050106 	stmdaeq	r5, {r1, r2, r8}
    1310:	0e054d06 	cdpeq	13, 0, cr4, cr5, cr6, {0}
    1314:	0a050106 	beq	141734 <__bss_end__+0x13693c>
    1318:	2f09052e 	svccs	0x0009052e
    131c:	2f060405 	svccs	0x00060405
    1320:	01060705 	tsteq	r6, r5, lsl #14
    1324:	052c0a05 	streq	r0, [ip, #-2565]!	; 0xfffff5fb
    1328:	05320604 	ldreq	r0, [r2, #-1540]!	; 0xfffff9fc
    132c:	9803062d 	stmdals	r3, {r0, r2, r3, r5, r9, sl}
    1330:	0905017f 	stmdbeq	r5, {r0, r1, r2, r3, r4, r5, r6, r8}
    1334:	2e00ed03 	cdpcs	13, 0, cr14, cr0, cr3, {0}
    1338:	052c0d05 	streq	r0, [ip, #-3333]!	; 0xfffff2fb
    133c:	04052b07 	streq	r2, [r5], #-2823	; 0xfffff4f9
    1340:	14133006 	ldrne	r3, [r3], #-6
    1344:	05010905 	streq	r0, [r1, #-2309]	; 0xfffff6fb
    1348:	7f93030c 	svcvc	0x0093030c
    134c:	011d0501 	tsteq	sp, r1, lsl #10
    1350:	09050106 	stmdbeq	r5, {r1, r2, r8}
    1354:	0100ed03 	tsteq	r0, r3, lsl #26
    1358:	2f060505 	svccs	0x00060505
    135c:	01061205 	tsteq	r6, r5, lsl #4
    1360:	0b052d2e 	bleq	14c820 <__bss_end__+0x141a28>
    1364:	0605052f 	streq	r0, [r5], -pc, lsr #10
    1368:	1009052f 	andne	r0, r9, pc, lsr #10
    136c:	93030c05 	movwls	r0, #15365	; 0x3c05
    1370:	1d05017f 	stfnes	f0, [r5, #-508]	; 0xfffffe04
    1374:	062d0501 	strteq	r0, [sp], -r1, lsl #10
    1378:	03090501 	movweq	r0, #38145	; 0x9501
    137c:	052e00ed 	streq	r0, [lr, #-237]!	; 0xffffff13
    1380:	014e0604 	cmpeq	lr, r4, lsl #12
    1384:	02040200 	andeq	r0, r4, #0, 4
    1388:	0402004a 	streq	r0, [r2], #-74	; 0xffffffb6
    138c:	02000102 	andeq	r0, r0, #-2147483648	; 0x80000000
    1390:	00150204 	andseq	r0, r5, r4, lsl #4
    1394:	06020402 	streq	r0, [r2], -r2, lsl #8
    1398:	00123602 	andseq	r3, r2, r2, lsl #12
    139c:	2e020402 	cdpcs	4, 0, cr0, cr2, cr2, {0}
    13a0:	03060205 	movweq	r0, #25093	; 0x6205
    13a4:	050100d1 	streq	r0, [r1, #-209]	; 0xffffff2f
    13a8:	2e010607 	cfmadd32cs	mvax0, mvfx0, mvfx1, mvfx7
    13ac:	2f060205 	svccs	0x00060205
    13b0:	01060b05 	tsteq	r6, r5, lsl #22
    13b4:	052f0105 	streq	r0, [pc, #-261]!	; 12b7 <__code_start__-0x6d49>
    13b8:	65030605 	strvs	r0, [r3, #-1541]	; 0xfffff9fb
    13bc:	0609054a 	streq	r0, [r9], -sl, asr #10
    13c0:	05056601 	streq	r6, [r5, #-1537]	; 0xfffff9ff
    13c4:	04059f06 	streq	r9, [r5], #-3846	; 0xfffff0fa
    13c8:	05011103 	streq	r1, [r1, #-259]	; 0xfffffefd
    13cc:	05010607 	streq	r0, [r1, #-1543]	; 0xfffff9f9
    13d0:	05310604 	ldreq	r0, [r1, #-1540]!	; 0xfffff9fc
    13d4:	1305010a 	movwne	r0, #20746	; 0x510a
    13d8:	01040200 	mrseq	r0, R12_usr
    13dc:	10052e06 	andne	r2, r5, r6, lsl #28
    13e0:	01040200 	mrseq	r0, R12_usr
    13e4:	0605052e 	streq	r0, [r5], -lr, lsr #10
    13e8:	060a054b 	streq	r0, [sl], -fp, asr #10
    13ec:	052d0601 	streq	r0, [sp, #-1537]!	; 0xfffff9ff
    13f0:	05010604 	streq	r0, [r1, #-1540]	; 0xfffff9fc
    13f4:	b6030611 			; <UNDEFINED> instruction: 0xb6030611
    13f8:	0113667f 	tsteq	r3, pc, ror r6
    13fc:	02040200 	andeq	r0, r4, #0, 4
    1400:	ba06ba06 	blt	1afc20 <__bss_end__+0x1a4e28>
    1404:	1a051401 	bne	146410 <__bss_end__+0x13b618>
    1408:	2e2e1306 	cdpcs	3, 2, cr1, cr14, cr6, {0}
    140c:	674e1105 	strbvs	r1, [lr, -r5, lsl #2]
    1410:	05681405 	strbeq	r1, [r8, #-1029]!	; 0xfffffbfb
    1414:	15058213 	strne	r8, [r5, #-531]	; 0xfffffded
    1418:	054a7803 	strbeq	r7, [sl, #-2051]	; 0xfffff7fd
    141c:	134b0611 	movtne	r0, #46609	; 0xb611
    1420:	14131413 	ldrne	r1, [r3], #-1043	; 0xfffffbed
    1424:	01061305 	tsteq	r6, r5, lsl #6
    1428:	2f060905 	svccs	0x00060905
    142c:	01060d05 	tsteq	r6, r5, lsl #26
    1430:	09052e2e 	stmdbeq	r5, {r1, r2, r3, r5, r9, sl, fp, sp}
    1434:	9d0d05bb 	cfstr32ls	mvfx0, [sp, #-748]	; 0xfffffd14
    1438:	2f060905 	svccs	0x00060905
    143c:	062f1505 	strteq	r1, [pc], -r5, lsl #10
    1440:	034a7503 	movteq	r7, #42243	; 0xa503
    1444:	054a2e0b 	strbeq	r2, [sl, #-3595]	; 0xfffff1f5
    1448:	23030605 	movwcs	r0, #13829	; 0x3605
    144c:	06090501 	streq	r0, [r9], -r1, lsl #10
    1450:	05052e01 	streq	r2, [r5, #-3585]	; 0xfffff1ff
    1454:	6e03d706 	cdpvs	7, 0, cr13, cr3, cr6, {0}
    1458:	010e032e 	tsteq	lr, lr, lsr #6
    145c:	01060905 	tsteq	r6, r5, lsl #18
    1460:	03060505 	movweq	r0, #25861	; 0x6505
    1464:	01054a10 	tsteq	r5, r0, lsl sl
    1468:	017eed03 	cmneq	lr, r3, lsl #26
    146c:	15140205 	ldrne	r0, [r4, #-517]	; 0xfffffdfb
    1470:	04051413 	streq	r1, [r5], #-1043	; 0xfffffbed
    1474:	05011a03 	streq	r1, [r1, #-2563]	; 0xfffff5fd
    1478:	05010609 	streq	r0, [r1, #-1545]	; 0xfffff9f7
    147c:	2e460302 	cdpcs	3, 4, cr0, cr6, cr2, {0}
    1480:	3a030905 	bcc	c389c <__bss_end__+0xb8aa4>
    1484:	0604052e 	streq	r0, [r4], -lr, lsr #10
    1488:	010d032f 	tsteq	sp, pc, lsr #6
    148c:	15020501 	strne	r0, [r2, #-1281]	; 0xfffffaff
    1490:	b2030e05 	andlt	r0, r3, #80	; 0x50
    1494:	0205017f 	andeq	r0, r5, #-1073741793	; 0xc000001f
    1498:	08051413 	stmdaeq	r5, {r0, r1, r4, sl, ip}
    149c:	06020501 	streq	r0, [r2], -r1, lsl #10
    14a0:	9f080501 	svcls	0x00080501
    14a4:	4a060305 	bmi	1820c0 <__bss_end__+0x1772c8>
    14a8:	08050106 	stmdaeq	r5, {r1, r2, r8}
    14ac:	0615052e 	ldreq	r0, [r5], -lr, lsr #10
    14b0:	0108052d 	tsteq	r8, sp, lsr #10
    14b4:	062f0305 	strteq	r0, [pc], -r5, lsl #6
    14b8:	2e080501 	cfsh32cs	mvfx0, mvfx8, #1
    14bc:	2d061505 	cfstr32cs	mvfx1, [r6, #-20]	; 0xffffffec
    14c0:	05010805 	streq	r0, [r1, #-2053]	; 0xfffff7fb
    14c4:	01062f03 	tsteq	r6, r3, lsl #30
    14c8:	052e0805 	streq	r0, [lr, #-2053]!	; 0xfffff7fb
    14cc:	052d0615 	streq	r0, [sp, #-1557]!	; 0xfffff9eb
    14d0:	03050108 	movweq	r0, #20744	; 0x5108
    14d4:	0501062f 	streq	r0, [r1, #-1583]	; 0xfffff9d1
    14d8:	15052e08 	strne	r2, [r5, #-3592]	; 0xfffff1f8
    14dc:	08052d06 	stmdaeq	r5, {r1, r2, r8, sl, fp, sp}
    14e0:	2f030501 	svccs	0x00030501
    14e4:	08050106 	stmdaeq	r5, {r1, r2, r8}
    14e8:	0615052e 	ldreq	r0, [r5], -lr, lsr #10
    14ec:	0108052d 	tsteq	r8, sp, lsr #10
    14f0:	062f0305 	strteq	r0, [pc], -r5, lsl #6
    14f4:	2e080501 	cfsh32cs	mvfx0, mvfx8, #1
    14f8:	2d061505 	cfstr32cs	mvfx1, [r6, #-20]	; 0xffffffec
    14fc:	05010805 	streq	r0, [r1, #-2053]	; 0xfffff7fb
    1500:	08051303 	stmdaeq	r5, {r0, r1, r8, r9, ip}
    1504:	15050106 	strne	r0, [r5, #-262]	; 0xfffffefa
    1508:	08052d06 	stmdaeq	r5, {r1, r2, r8, sl, fp, sp}
    150c:	05660601 	strbeq	r0, [r6, #-1537]!	; 0xfffff9ff
    1510:	05670603 	strbeq	r0, [r7, #-1539]!	; 0xfffff9fd
    1514:	05010608 	streq	r0, [r1, #-1544]	; 0xfffff9f8
    1518:	02052d18 	andeq	r2, r5, #24, 26	; 0x600
    151c:	2f08052e 	svccs	0x0008052e
    1520:	2d061505 	cfstr32cs	mvfx1, [r6, #-20]	; 0xffffffec
    1524:	05010805 	streq	r0, [r1, #-2053]	; 0xfffff7fb
    1528:	05010602 	streq	r0, [r1, #-1538]	; 0xfffff9fe
    152c:	052f0603 	streq	r0, [pc, #-1539]!	; f31 <__code_start__-0x70cf>
    1530:	05110618 	ldreq	r0, [r1, #-1560]	; 0xfffff9e8
    1534:	08052e02 	stmdaeq	r5, {r1, r9, sl, fp, sp}
    1538:	0615052f 	ldreq	r0, [r5], -pc, lsr #10
    153c:	0108052d 	tsteq	r8, sp, lsr #10
    1540:	05130305 	ldreq	r0, [r3, #-773]	; 0xfffffcfb
    1544:	05010608 	streq	r0, [r1, #-1544]	; 0xfffff9f8
    1548:	052d0615 	streq	r0, [sp, #-1557]!	; 0xfffff9eb
    154c:	05050108 	streq	r0, [r5, #-264]	; 0xfffffef8
    1550:	054a1406 	strbeq	r1, [sl, #-1030]	; 0xfffffbfa
    1554:	052e0602 	streq	r0, [lr, #-1538]!	; 0xfffff9fe
    1558:	0519060e 	ldreq	r0, [r9, #-1550]	; 0xfffff9f2
    155c:	11052f04 	tstne	r5, r4, lsl #30
    1560:	4a09052f 	bmi	242a24 <__bss_end__+0x237c2c>
    1564:	05330205 	ldreq	r0, [r3, #-517]!	; 0xfffffdfb
    1568:	2e720305 	cdpcs	3, 7, cr0, cr2, cr5, {0}
    156c:	2f060205 	svccs	0x00060205
    1570:	0e050106 	adfeqs	f0, f5, f6
    1574:	02051606 	andeq	r1, r5, #6291456	; 0x600000
    1578:	03051314 	movweq	r1, #21268	; 0x5314
    157c:	14020513 	strne	r0, [r2], #-1299	; 0xfffffaed
    1580:	010b0515 	tsteq	fp, r5, lsl r5
    1584:	01060205 	tsteq	r6, r5, lsl #4
    1588:	0305662e 	movweq	r6, #22062	; 0x562e
    158c:	0a052f06 	beq	14d1ac <__bss_end__+0x1423b4>
    1590:	02050106 	andeq	r0, r5, #-2147483647	; 0x80000001
    1594:	2f0a052d 	svccs	0x000a052d
    1598:	2d061705 	stccs	7, cr1, [r6, #-20]	; 0xffffffec
    159c:	05010b05 	streq	r0, [r1, #-2821]	; 0xfffff4fb
    15a0:	4a010602 	bmi	42db0 <__bss_end__+0x37fb8>
    15a4:	0605054a 	streq	r0, [r5], -sl, asr #10
    15a8:	01019503 	tsteq	r1, r3, lsl #10
    15ac:	03061105 	movweq	r1, #24837	; 0x6105
    15b0:	05017ef8 	streq	r7, [r1, #-3832]	; 0xfffff108
    15b4:	0188031b 	orreq	r0, r8, fp, lsl r3
    15b8:	0601054a 	streq	r0, [r1], -sl, asr #10
    15bc:	2e7ef303 	cdpcs	3, 7, cr15, cr14, cr3, {0}
    15c0:	15140205 	ldrne	r0, [r4, #-517]	; 0xfffffdfb
    15c4:	19051413 	stmdbne	r5, {r0, r1, r4, sl, ip}
    15c8:	05012203 	streq	r2, [r1, #-515]	; 0xfffffdfd
    15cc:	2805131a 	stmdacs	r5, {r1, r3, r4, r8, r9, ip}
    15d0:	1f050106 	svcne	0x00050106
    15d4:	2f04052e 	svccs	0x0004052e
    15d8:	054a0e05 	strbeq	r0, [sl, #-3589]	; 0xfffff1fb
    15dc:	0b052d1f 	bleq	14ca60 <__bss_end__+0x141c68>
    15e0:	04052f06 	streq	r2, [r5], #-3846	; 0xfffff0fa
    15e4:	32060106 	andcc	r0, r6, #-2147483647	; 0x80000001
    15e8:	15020501 	strne	r0, [r2, #-1281]	; 0xfffffaff
    15ec:	b2030e05 	andlt	r0, r3, #80	; 0x50
    15f0:	0205017f 	andeq	r0, r5, #-1073741793	; 0xc000001f
    15f4:	06060513 			; <UNDEFINED> instruction: 0x06060513
    15f8:	06020501 	streq	r0, [r2], -r1, lsl #10
    15fc:	01080530 	tsteq	r8, r0, lsr r5
    1600:	01060205 	tsteq	r6, r5, lsl #4
    1604:	08060305 	stmdaeq	r6, {r0, r2, r8, r9}
    1608:	06080521 	streq	r0, [r8], -r1, lsr #10
    160c:	06150501 	ldreq	r0, [r5], -r1, lsl #10
    1610:	01080549 	tsteq	r8, r9, asr #10
    1614:	05d70305 	ldrbeq	r0, [r7, #773]	; 0x305
    1618:	05010608 	streq	r0, [r1, #-1544]	; 0xfffff9f8
    161c:	02052d18 	andeq	r2, r5, #24, 26	; 0x600
    1620:	2f08052e 	svccs	0x0008052e
    1624:	2d061505 	cfstr32cs	mvfx1, [r6, #-20]	; 0xffffffec
    1628:	05010805 	streq	r0, [r1, #-2053]	; 0xfffff7fb
    162c:	05010602 	streq	r0, [r1, #-1538]	; 0xfffff9fe
    1630:	052f0603 	streq	r0, [pc, #-1539]!	; 1035 <__code_start__-0x6fcb>
    1634:	05110618 	ldreq	r0, [r1, #-1560]	; 0xfffff9e8
    1638:	08052e02 	stmdaeq	r5, {r1, r9, sl, fp, sp}
    163c:	0615052f 	ldreq	r0, [r5], -pc, lsr #10
    1640:	0108052d 	tsteq	r8, sp, lsr #10
    1644:	05130305 	ldreq	r0, [r3, #-773]	; 0xfffffcfb
    1648:	05010608 	streq	r0, [r1, #-1544]	; 0xfffff9f8
    164c:	052d0615 	streq	r0, [sp, #-1557]!	; 0xfffff9eb
    1650:	05050108 	streq	r0, [r5, #-264]	; 0xfffffef8
    1654:	02051406 	andeq	r1, r5, #100663296	; 0x6000000
    1658:	04056606 	streq	r6, [r5], #-1542	; 0xfffff9fa
    165c:	05051a06 	streq	r1, [r5, #-2566]	; 0xfffff5fa
    1660:	054a7803 	strbeq	r7, [sl, #-2051]	; 0xfffff7fd
    1664:	062f0602 	strteq	r0, [pc], -r2, lsl #12
    1668:	060e0501 	streq	r0, [lr], -r1, lsl #10
    166c:	14020516 	strne	r0, [r2], #-1302	; 0xfffffaea
    1670:	06040513 			; <UNDEFINED> instruction: 0x06040513
    1674:	06030501 	streq	r0, [r3], -r1, lsl #10
    1678:	0611052f 	ldreq	r0, [r1], -pc, lsr #10
    167c:	2e090501 	cfsh32cs	mvfx0, mvfx9, #1
    1680:	30060205 	andcc	r0, r6, r5, lsl #4
    1684:	010b0515 	tsteq	fp, r5, lsl r5
    1688:	01060205 	tsteq	r6, r5, lsl #4
    168c:	052e4a4a 	streq	r4, [lr, #-2634]!	; 0xfffff5b6
    1690:	052f0603 	streq	r0, [pc, #-1539]!	; 1095 <__code_start__-0x6f6b>
    1694:	0501060a 	streq	r0, [r1, #-1546]	; 0xfffff9f6
    1698:	0a052d02 	beq	14caa8 <__bss_end__+0x141cb0>
    169c:	0617052f 	ldreq	r0, [r7], -pc, lsr #10
    16a0:	010b052d 	tsteq	fp, sp, lsr #10
    16a4:	01060205 	tsteq	r6, r5, lsl #4
    16a8:	14062e4a 	strne	r2, [r6], #-3658	; 0xfffff1b6
    16ac:	01060905 	tsteq	r6, r5, lsl #18
    16b0:	4c060205 	sfmmi	f0, 4, [r6], {5}
    16b4:	05050106 	streq	r0, [r5, #-262]	; 0xfffffefa
    16b8:	01980306 	orrseq	r0, r8, r6, lsl #6
    16bc:	07052a01 	streq	r2, [r5, -r1, lsl #20]
    16c0:	05050106 	streq	r0, [r5, #-262]	; 0xfffffefa
    16c4:	18052f06 	stmdane	r5, {r1, r2, r8, r9, sl, fp, sp}
    16c8:	052e5303 	streq	r5, [lr, #-771]!	; 0xfffffcfd
    16cc:	0501061b 	streq	r0, [r1, #-1563]	; 0xfffff9e5
    16d0:	0905821a 	stmdbeq	r5, {r1, r3, r4, r9, pc}
    16d4:	0d054b06 	vstreq	d4, [r5, #-24]	; 0xffffffe8
    16d8:	052e0106 	streq	r0, [lr, #-262]!	; 0xfffffefa
    16dc:	0d05d709 	stceq	7, cr13, [r5, #-36]	; 0xffffffdc
    16e0:	0609059d 			; <UNDEFINED> instruction: 0x0609059d
    16e4:	3015052f 	andscc	r0, r5, pc, lsr #10
    16e8:	01061805 	tsteq	r6, r5, lsl #16
    16ec:	05661705 	strbeq	r1, [r6, #-1797]!	; 0xfffff8fb
    16f0:	17052f19 	smladne	r5, r9, pc, r2	; <UNPREDICTABLE>
    16f4:	06190549 	ldreq	r0, [r9], -r9, asr #10
    16f8:	0615052f 	ldreq	r0, [r5], -pc, lsr #10
    16fc:	052e6f03 	streq	r6, [lr, #-3843]!	; 0xfffff0fd
    1700:	13030619 	movwne	r0, #13849	; 0x3619
    1704:	0615054a 	ldreq	r0, [r5], -sl, asr #10
    1708:	4a2e6d03 	bmi	b9cb1c <__bss_end__+0xb91d24>
    170c:	a0030205 	andge	r0, r3, r5, lsl #4
    1710:	0666017f 			; <UNDEFINED> instruction: 0x0666017f
    1714:	05017203 	streq	r7, [r1, #-515]	; 0xfffffdfd
    1718:	05010605 	streq	r0, [r1, #-1541]	; 0xfffff9fb
    171c:	05053604 	streq	r3, [r5, #-1540]	; 0xfffff9fc
    1720:	052e7803 	streq	r7, [lr, #-2051]!	; 0xfffff7fd
    1724:	062f0602 	strteq	r0, [pc], -r2, lsl #12
    1728:	060e0501 	streq	r0, [lr], -r1, lsl #10
    172c:	14020516 	strne	r0, [r2], #-1302	; 0xfffffaea
    1730:	06040513 			; <UNDEFINED> instruction: 0x06040513
    1734:	02054a01 	andeq	r4, r5, #4096	; 0x1000
    1738:	01780306 	cmneq	r8, r6, lsl #6
    173c:	01060505 	tsteq	r6, r5, lsl #10
    1740:	0602054a 	streq	r0, [r2], -sl, asr #10
    1744:	0501064b 	streq	r0, [r1, #-1611]	; 0xfffff9b5
    1748:	0516060e 	ldreq	r0, [r6, #-1550]	; 0xfffff9f2
    174c:	15131402 	ldrne	r1, [r3, #-1026]	; 0xfffffbfe
    1750:	010b0515 	tsteq	fp, r5, lsl r5
    1754:	11052e06 	tstne	r5, r6, lsl #28
    1758:	019e0306 	orrseq	r0, lr, r6, lsl #6
    175c:	06220501 	strteq	r0, [r2], -r1, lsl #10
    1760:	2f050501 	svccs	0x00050501
    1764:	052d2205 	streq	r2, [sp, #-517]!	; 0xfffffdfb
    1768:	052f0605 	streq	r0, [pc, #-1541]!	; 116b <__code_start__-0x6e95>
    176c:	05054b11 	streq	r4, [r5, #-2833]	; 0xfffff4ef
    1770:	039e0183 	orrseq	r0, lr, #-1073741792	; 0xc0000020
    1774:	9e012e5c 	mcrls	14, 0, r2, cr1, cr12, {2}
    1778:	03060205 	movweq	r0, #25093	; 0x6205
    177c:	2e2e7ef3 	mcrcs	14, 1, r7, cr14, cr3, {7}
    1780:	4a2c0605 	bmi	b02f9c <__bss_end__+0xaf81a4>
    1784:	d8030d05 	stmdale	r3, {r0, r2, r8, sl, fp}
    1788:	04050100 	streq	r0, [r5], #-256	; 0xffffff00
    178c:	01040200 	mrseq	r0, R12_usr
    1790:	4a110306 	bmi	4423b0 <__bss_end__+0x4375b8>
    1794:	01040200 	mrseq	r0, R12_usr
    1798:	06110501 	ldreq	r0, [r1], -r1, lsl #10
    179c:	059e0651 	ldreq	r0, [lr, #1617]	; 0x651
    17a0:	2e170315 	mrccs	3, 0, r0, cr7, cr5, {0}
    17a4:	1105ba01 	tstne	r5, r1, lsl #20
    17a8:	012e6903 			; <UNDEFINED> instruction: 0x012e6903
    17ac:	01002802 	tsteq	r0, r2, lsl #16
    17b0:	00008701 	andeq	r8, r0, r1, lsl #14
    17b4:	64000300 	strvs	r0, [r0], #-768	; 0xfffffd00
    17b8:	02000000 	andeq	r0, r0, #0, 0
    17bc:	0d0efb01 	vstreq	d15, [lr, #-4]
    17c0:	01010100 	mrseq	r0, (UNDEF: 17)
    17c4:	00000001 	andeq	r0, r0, r1
    17c8:	01000001 	tsteq	r0, r1
    17cc:	74732f2e 	ldrbtvc	r2, [r3], #-3886	; 0xfffff0d2
    17d0:	2d666661 	stclcs	6, cr6, [r6, #-388]!	; 0xfffffe7c
    17d4:	00637273 	rsbeq	r7, r3, r3, ror r2
    17d8:	6573552f 	ldrbvs	r5, [r3, #-1327]!	; 0xfffffad1
    17dc:	6d2f7372 	stcvs	3, cr7, [pc, #-456]!	; 161c <__code_start__-0x69e4>
    17e0:	73656c69 	cmnvc	r5, #26880	; 0x6900
    17e4:	756f532f 	strbvc	r5, [pc, #-815]!	; 14bd <__code_start__-0x6b43>
    17e8:	2f656372 	svccs	0x00656372
    17ec:	34327363 	ldrtcc	r7, [r2], #-867	; 0xfffffc9d
    17f0:	2f786c30 	svccs	0x00786c30
    17f4:	7062696c 	rsbvc	r6, r2, ip, ror #18
    17f8:	6e692f69 	cdpvs	15, 6, cr2, cr9, cr9, {3}
    17fc:	64756c63 	ldrbtvs	r6, [r5], #-3171	; 0xfffff39d
    1800:	63000065 	movwvs	r0, #101	; 0x65
    1804:	6e61656c 	cdpvs	5, 6, cr6, cr1, cr12, {3}
    1808:	6265722d 	rsbvs	r7, r5, #-805306366	; 0xd0000002
    180c:	2e746f6f 	cdpcs	15, 7, cr6, cr4, cr15, {3}
    1810:	00010063 	andeq	r0, r1, r3, rrx
    1814:	69707200 	ldmdbvs	r0!, {r9, ip, sp, lr}^
    1818:	0200682e 	andeq	r6, r0, #3014656	; 0x2e0000
    181c:	05000000 	streq	r0, [r0, #-0]
    1820:	02050019 	andeq	r0, r5, #25, 0
    1824:	00009680 	andeq	r9, r0, r0, lsl #13
    1828:	13050515 	movwne	r0, #21781	; 0x5515
    182c:	2d061905 	vstrcs.16	s2, [r6, #-10]	; <UNPREDICTABLE>
    1830:	062f0505 	strteq	r0, [pc], -r5, lsl #10
    1834:	024b2f67 	subeq	r2, fp, #412	; 0x19c
    1838:	01010006 	tsteq	r1, r6
    183c:	00000112 	andeq	r0, r0, r2, lsl r1
    1840:	005e0003 	subseq	r0, lr, r3
    1844:	01020000 	mrseq	r0, (UNDEF: 2)
    1848:	000d0efb 	strdeq	r0, [sp], -fp
    184c:	01010101 	tsteq	r1, r1, lsl #2
    1850:	01000000 	mrseq	r0, (UNDEF: 0)
    1854:	2e010000 	cdpcs	0, 0, cr0, cr1, cr0, {0}
    1858:	6174732f 	cmnvs	r4, pc, lsr #6
    185c:	732d6666 			; <UNDEFINED> instruction: 0x732d6666
    1860:	2f006372 	svccs	0x00006372
    1864:	72657355 	rsbvc	r7, r5, #1409286145	; 0x54000001
    1868:	696d2f73 	stmdbvs	sp!, {r0, r1, r4, r5, r6, r8, r9, sl, fp, sp}^
    186c:	2f73656c 	svccs	0x0073656c
    1870:	72756f53 	rsbsvc	r6, r5, #332	; 0x14c
    1874:	632f6563 			; <UNDEFINED> instruction: 0x632f6563
    1878:	30343273 	eorscc	r3, r4, r3, ror r2
    187c:	6c2f786c 	stcvs	8, cr7, [pc], #-432	; 16d4 <__code_start__-0x692c>
    1880:	69706269 	ldmdbvs	r0!, {r0, r3, r5, r6, r9, sp, lr}^
    1884:	636e692f 	cmnvs	lr, #770048	; 0xbc000
    1888:	6564756c 	strbvs	r7, [r4, #-1388]!	; 0xfffffa94
    188c:	73630000 	cmnvc	r3, #0, 0
    1890:	74726174 	ldrbtvc	r6, [r2], #-372	; 0xfffffe8c
    1894:	0100632e 	tsteq	r0, lr, lsr #6
    1898:	70720000 	rsbsvc	r0, r2, r0
    189c:	00682e69 	rsbeq	r2, r8, r9, ror #28
    18a0:	00000002 	andeq	r0, r0, r2
    18a4:	05001005 	streq	r1, [r0, #-5]
    18a8:	0096ac02 	addseq	sl, r6, r2, lsl #24
    18ac:	05051500 	streq	r1, [r5, #-1280]	; 0xfffffb00
    18b0:	13020513 	movwne	r0, #9491	; 0x2513
    18b4:	05140505 	ldreq	r0, [r4, #-1285]	; 0xfffffafb
    18b8:	050e0610 	streq	r0, [lr, #-1552]	; 0xfffff9f0
    18bc:	30063205 	andcc	r3, r6, r5, lsl #4
    18c0:	0a051413 	beq	146914 <__bss_end__+0x13bb1c>
    18c4:	08090501 	stmdaeq	r9, {r0, r8, sl}
    18c8:	06100591 			; <UNDEFINED> instruction: 0x06100591
    18cc:	9a0a0501 	bls	282cd8 <__bss_end__+0x277ee0>
    18d0:	056a1005 	strbeq	r1, [sl, #-5]!
    18d4:	052d060a 	streq	r0, [sp, #-1546]!	; 0xfffff9f6
    18d8:	10052f09 	andne	r2, r5, r9, lsl #30
    18dc:	0a050106 	beq	141cfc <__bss_end__+0x136f04>
    18e0:	09052d06 	stmdbeq	r5, {r1, r2, r8, sl, fp, sp}
    18e4:	061005bb 			; <UNDEFINED> instruction: 0x061005bb
    18e8:	060a0501 	streq	r0, [sl], -r1, lsl #10
    18ec:	4b090565 	blmi	242e88 <__bss_end__+0x238090>
    18f0:	01060d05 	tsteq	r6, r5, lsl #26
    18f4:	052d0a05 	streq	r0, [sp, #-2565]!	; 0xfffff5fb
    18f8:	0a052f10 	beq	14d540 <__bss_end__+0x142748>
    18fc:	09052d06 	stmdbeq	r5, {r1, r2, r8, sl, fp, sp}
    1900:	060d052f 	streq	r0, [sp], -pc, lsr #10
    1904:	2d0a0501 	cfstr32cs	mvfx0, [sl, #-4]
    1908:	052f1005 	streq	r1, [pc, #-5]!	; 190b <__code_start__-0x66f5>
    190c:	052d060a 	streq	r0, [sp, #-1546]!	; 0xfffff9f6
    1910:	0d052f09 	stceq	15, cr2, [r5, #-36]	; 0xffffffdc
    1914:	0a050106 	beq	141d34 <__bss_end__+0x136f3c>
    1918:	2f10052d 	svccs	0x0010052d
    191c:	2d060a05 	vstrcs	s0, [r6, #-20]	; 0xffffffec
    1920:	052f0905 	streq	r0, [pc, #-2309]!	; 1023 <__code_start__-0x6fdd>
    1924:	0501060d 	streq	r0, [r1, #-1549]	; 0xfffff9f3
    1928:	10052d0a 	andne	r2, r5, sl, lsl #26
    192c:	060a052f 	streq	r0, [sl], -pc, lsr #10
    1930:	1309052d 	movwne	r0, #38189	; 0x952d
    1934:	01061005 	tsteq	r6, r5
    1938:	2d060a05 	vstrcs	s0, [r6, #-20]	; 0xffffffec
    193c:	32150505 	andscc	r0, r5, #20971520	; 0x1400000
    1940:	144a0101 	strbne	r0, [sl], #-257	; 0xfffffeff
    1944:	052f0205 	streq	r0, [pc, #-517]!	; 1747 <__code_start__-0x68b9>
    1948:	7303060a 	movwvc	r0, #13834	; 0x360a
    194c:	0008022e 	andeq	r0, r8, lr, lsr #4
    1950:	007d0101 	rsbseq	r0, sp, r1, lsl #2
    1954:	00030000 	andeq	r0, r3, r0
    1958:	00000065 	andeq	r0, r0, r5, rrx
    195c:	0efb0102 	cdpeq	1, 15, cr0, cr11, cr2, {0}
    1960:	0101000d 	tsteq	r1, sp
    1964:	00000101 	andeq	r0, r0, r1, lsl #2
    1968:	00000100 	andeq	r0, r0, r0, lsl #2
    196c:	732f2e01 			; <UNDEFINED> instruction: 0x732f2e01
    1970:	66666174 			; <UNDEFINED> instruction: 0x66666174
    1974:	6372732d 	cmnvs	r2, #-1275068416	; 0xb4000000
    1978:	73552f00 	cmpvc	r5, #0, 30
    197c:	2f737265 	svccs	0x00737265
    1980:	656c696d 	strbvs	r6, [ip, #-2413]!	; 0xfffff693
    1984:	6f532f73 	svcvs	0x00532f73
    1988:	65637275 	strbvs	r7, [r3, #-629]!	; 0xfffffd8b
    198c:	3273632f 	rsbscc	r6, r3, #-1140850688	; 0xbc000000
    1990:	786c3034 	stmdavc	ip!, {r2, r4, r5, ip, sp}^
    1994:	62696c2f 	rsbvs	r6, r9, #12032	; 0x2f00
    1998:	692f6970 	stmdbvs	pc!, {r4, r5, r6, r8, fp, sp, lr}	; <UNPREDICTABLE>
    199c:	756c636e 	strbvc	r6, [ip, #-878]!	; 0xfffffc92
    19a0:	00006564 	andeq	r6, r0, r4, ror #10
    19a4:	74737563 	ldrbtvc	r7, [r3], #-1379	; 0xfffffa9d
    19a8:	6c2d6d6f 	stcvs	13, cr6, [sp], #-444	; 0xfffffe44
    19ac:	6564616f 	strbvs	r6, [r4, #-367]!	; 0xfffffe91
    19b0:	00632e72 	rsbeq	r2, r3, r2, ror lr
    19b4:	72000001 	andvc	r0, r0, #1, 0
    19b8:	682e6970 	stmdavs	lr!, {r4, r5, r6, r8, fp, sp, lr}
    19bc:	00000200 	andeq	r0, r0, r0, lsl #4
    19c0:	001a0500 	andseq	r0, sl, r0, lsl #10
    19c4:	97a40205 	strls	r0, [r4, r5, lsl #4]!
    19c8:	05150000 	ldreq	r0, [r5, #-0]
    19cc:	02021401 	andeq	r1, r2, #16777216	; 0x1000000
    19d0:	14010100 	strne	r0, [r1], #-256	; 0xffffff00
    19d4:	03000001 	movweq	r0, #1
    19d8:	00005e00 	andeq	r5, r0, r0, lsl #28
    19dc:	fb010200 	blx	421e6 <__bss_end__+0x373ee>
    19e0:	01000d0e 	tsteq	r0, lr, lsl #26
    19e4:	00010101 	andeq	r0, r1, r1, lsl #2
    19e8:	00010000 	andeq	r0, r1, r0
    19ec:	2f2e0100 	svccs	0x002e0100
    19f0:	66617473 			; <UNDEFINED> instruction: 0x66617473
    19f4:	72732d66 	rsbsvc	r2, r3, #6528	; 0x1980
    19f8:	552f0063 	strpl	r0, [pc, #-99]!	; 199d <__code_start__-0x6663>
    19fc:	73726573 	cmnvc	r2, #482344960	; 0x1cc00000
    1a00:	6c696d2f 	stclvs	13, cr6, [r9], #-188	; 0xffffff44
    1a04:	532f7365 			; <UNDEFINED> instruction: 0x532f7365
    1a08:	6372756f 	cmnvs	r2, #465567744	; 0x1bc00000
    1a0c:	73632f65 	cmnvc	r3, #404	; 0x194
    1a10:	6c303432 	cfldrsvs	mvf3, [r0], #-200	; 0xffffff38
    1a14:	696c2f78 	stmdbvs	ip!, {r3, r4, r5, r6, r8, r9, sl, fp, sp}^
    1a18:	2f697062 	svccs	0x00697062
    1a1c:	6c636e69 	stclvs	14, cr6, [r3], #-420	; 0xfffffe5c
    1a20:	00656475 	rsbeq	r6, r5, r5, ror r4
    1a24:	62657200 	rsbvs	r7, r5, #0, 4
    1a28:	2e746f6f 	cdpcs	15, 7, cr6, cr4, cr15, {3}
    1a2c:	00010063 	andeq	r0, r1, r3, rrx
    1a30:	69707200 	ldmdbvs	r0!, {r9, ip, sp, lr}^
    1a34:	0200682e 	andeq	r6, r0, #3014656	; 0x2e0000
    1a38:	05000000 	streq	r0, [r0, #-0]
    1a3c:	02050019 	andeq	r0, r5, #25, 0
    1a40:	000097a8 	andeq	r9, r0, r8, lsr #15
    1a44:	05010d03 	streq	r0, [r1, #-3331]	; 0xfffff2fd
    1a48:	31131305 	tstcc	r3, r5, lsl #6
    1a4c:	01061305 	tsteq	r6, r5, lsl #6
    1a50:	052f0105 	streq	r0, [pc, #-261]!	; 1953 <__code_start__-0x66ad>
    1a54:	0585061b 	streq	r0, [r5, #1563]	; 0x61b
    1a58:	05141305 	ldreq	r1, [r4, #-773]	; 0xfffffcfb
    1a5c:	16052f09 	strne	r2, [r5], -r9, lsl #30
    1a60:	05050106 	streq	r0, [r5, #-262]	; 0xfffffefa
    1a64:	0e052f06 	cdpeq	15, 0, cr2, cr5, cr6, {0}
    1a68:	05051106 	streq	r1, [r5, #-262]	; 0xfffffefa
    1a6c:	2f01052f 	svccs	0x0001052f
    1a70:	30061705 	andcc	r1, r6, r5, lsl #14
    1a74:	03130505 	tsteq	r3, #20971520	; 0x1400000
    1a78:	1313016e 	tstne	r3, #-2147483621	; 0x8000001b
    1a7c:	03061705 	movweq	r1, #26373	; 0x6705
    1a80:	0505010f 	streq	r0, [r5, #-271]	; 0xfffffef1
    1a84:	062e7103 	strteq	r7, [lr], -r3, lsl #2
    1a88:	06130531 			; <UNDEFINED> instruction: 0x06130531
    1a8c:	03070501 	movweq	r0, #29953	; 0x7501
    1a90:	09052e0d 	stmdbeq	r5, {r0, r2, r3, r9, sl, fp, sp}
    1a94:	06054b06 	streq	r4, [r5], -r6, lsl #22
    1a98:	05017603 	streq	r7, [r1, #-1539]	; 0xfffff9fd
    1a9c:	05141305 	ldreq	r1, [r4, #-773]	; 0xfffffcfb
    1aa0:	16052f09 	strne	r2, [r5], -r9, lsl #30
    1aa4:	05050106 	streq	r0, [r5, #-262]	; 0xfffffefa
    1aa8:	0e052f06 	cdpeq	15, 0, cr2, cr5, cr6, {0}
    1aac:	05051106 	streq	r1, [r5, #-262]	; 0xfffffefa
    1ab0:	03062e2f 	movweq	r2, #28207	; 0x6e2f
    1ab4:	2f30010a 	svccs	0x0030010a
    1ab8:	1313134d 	tstne	r3, #872415233	; 0x34000001
    1abc:	02006715 	andeq	r6, r0, #5505024	; 0x540000
    1ac0:	05670104 	strbeq	r0, [r7, #-260]!	; 0xfffffefc
    1ac4:	0402000d 	streq	r0, [r2], #-13
    1ac8:	0a050101 	beq	141ed4 <__bss_end__+0x1370dc>
    1acc:	01040200 	mrseq	r0, R12_usr
    1ad0:	00050501 	andeq	r0, r5, r1, lsl #10
    1ad4:	01010402 	tsteq	r1, r2, lsl #8
    1ad8:	02000d05 	andeq	r0, r0, #320	; 0x140
    1adc:	05010104 	streq	r0, [r1, #-260]	; 0xfffffefc
    1ae0:	0402000a 	streq	r0, [r2], #-10
    1ae4:	0a020101 	beq	81ef0 <__bss_end__+0x770f8>
    1ae8:	fa010100 	blx	41ef0 <__bss_end__+0x370f8>
    1aec:	03000001 	movweq	r0, #1
    1af0:	00005d00 	andeq	r5, r0, r0, lsl #26
    1af4:	fb010200 	blx	422fe <__bss_end__+0x37506>
    1af8:	01000d0e 	tsteq	r0, lr, lsl #26
    1afc:	00010101 	andeq	r0, r1, r1, lsl #2
    1b00:	00010000 	andeq	r0, r1, r0
    1b04:	2f2e0100 	svccs	0x002e0100
    1b08:	66617473 			; <UNDEFINED> instruction: 0x66617473
    1b0c:	72732d66 	rsbsvc	r2, r3, #6528	; 0x1980
    1b10:	552f0063 	strpl	r0, [pc, #-99]!	; 1ab5 <__code_start__-0x654b>
    1b14:	73726573 	cmnvc	r2, #482344960	; 0x1cc00000
    1b18:	6c696d2f 	stclvs	13, cr6, [r9], #-188	; 0xffffff44
    1b1c:	532f7365 			; <UNDEFINED> instruction: 0x532f7365
    1b20:	6372756f 	cmnvs	r2, #465567744	; 0x1bc00000
    1b24:	73632f65 	cmnvc	r3, #404	; 0x194
    1b28:	6c303432 	cfldrsvs	mvf3, [r0], #-200	; 0xffffff38
    1b2c:	696c2f78 	stmdbvs	ip!, {r3, r4, r5, r6, r8, r9, sl, fp, sp}^
    1b30:	2f697062 	svccs	0x00697062
    1b34:	6c636e69 	stclvs	14, cr6, [r3], #-420	; 0xfffffe5c
    1b38:	00656475 	rsbeq	r6, r5, r5, ror r4
    1b3c:	6d697400 	cfstrdvs	mvd7, [r9, #-0]
    1b40:	632e7265 			; <UNDEFINED> instruction: 0x632e7265
    1b44:	00000100 	andeq	r0, r0, r0, lsl #2
    1b48:	2e697072 	mcrcs	0, 3, r7, cr9, cr2, {3}
    1b4c:	00020068 	andeq	r0, r2, r8, rrx
    1b50:	23050000 	movwcs	r0, #20480	; 0x5000
    1b54:	34020500 	strcc	r0, [r2], #-1280	; 0xfffffb00
    1b58:	15000098 	strne	r0, [r0, #-152]	; 0xffffff68
    1b5c:	05130505 	ldreq	r0, [r3, #-1285]	; 0xfffffafb
    1b60:	0501060c 	streq	r0, [r1, #-1548]	; 0xfffff9f4
    1b64:	056a061f 	strbeq	r0, [sl, #-1567]!	; 0xfffff9e1
    1b68:	1f051505 	svcne	0x00051505
    1b6c:	05050f06 	streq	r0, [r5, #-3846]	; 0xfffff0fa
    1b70:	052f0631 	streq	r0, [pc, #-1585]!	; 1547 <__code_start__-0x6ab9>
    1b74:	0177030a 	cmneq	r7, sl, lsl #6
    1b78:	05130505 	ldreq	r0, [r3, #-1285]	; 0xfffffafb
    1b7c:	6601060c 	strvs	r0, [r1], -ip, lsl #12
    1b80:	03060505 	movweq	r0, #25861	; 0x6505
    1b84:	052f0109 	streq	r0, [pc, #-265]!	; 1a83 <__code_start__-0x657d>
    1b88:	05130601 	ldreq	r0, [r3, #-1537]	; 0xfffff9ff
    1b8c:	0568061c 	strbeq	r0, [r8, #-1564]!	; 0xfffff9e4
    1b90:	0a051305 	beq	1467ac <__bss_end__+0x13b9b4>
    1b94:	05017603 	streq	r7, [r1, #-1539]	; 0xfffff9fd
    1b98:	1c051505 	cfstr32ne	mvfx1, [r5], {5}
    1b9c:	052e1806 	streq	r1, [lr, #-2054]!	; 0xfffff7fa
    1ba0:	2e7a0305 	cdpcs	3, 7, cr0, cr10, cr5, {0}
    1ba4:	0a052f06 	beq	14d7c4 <__bss_end__+0x1429cc>
    1ba8:	05017703 	streq	r7, [r1, #-1795]	; 0xfffff8fd
    1bac:	0c051305 	stceq	3, cr1, [r5], {5}
    1bb0:	05660106 	strbeq	r0, [r6, #-262]!	; 0xfffffefa
    1bb4:	09030605 	stmdbeq	r3, {r0, r2, r9, sl}
    1bb8:	01062f01 	tsteq	r6, r1, lsl #30
    1bbc:	76030c05 	strvc	r0, [r3], -r5, lsl #24
    1bc0:	06050501 	streq	r0, [r5], -r1, lsl #10
    1bc4:	052e0f03 	streq	r0, [lr, #-3843]!	; 0xfffff0fd
    1bc8:	0a051309 	beq	1467f4 <__bss_end__+0x13b9fc>
    1bcc:	05017403 	streq	r7, [r1, #-1027]	; 0xfffffbfd
    1bd0:	052f1505 	streq	r1, [pc, #-1285]!	; 16d3 <__code_start__-0x692d>
    1bd4:	0177030a 	cmneq	r7, sl, lsl #6
    1bd8:	05130505 	ldreq	r0, [r3, #-1285]	; 0xfffffafb
    1bdc:	6601060c 	strvs	r0, [r1], -ip, lsl #12
    1be0:	03060505 	movweq	r0, #25861	; 0x6505
    1be4:	11050109 	tstne	r5, r9, lsl #2
    1be8:	05051a06 	streq	r1, [r5, #-2566]	; 0xfffff5fa
    1bec:	062e7803 	strteq	r7, [lr], -r3, lsl #16
    1bf0:	1909052f 	stmdbne	r9, {r0, r1, r2, r3, r5, r8, sl}
    1bf4:	01060c05 	tsteq	r6, r5, lsl #24
    1bf8:	87061c05 	strhi	r1, [r6, -r5, lsl #24]
    1bfc:	05130505 	ldreq	r0, [r3, #-1285]	; 0xfffffafb
    1c00:	0511061c 	ldreq	r0, [r1, #-1564]	; 0xfffff9e4
    1c04:	054a2f05 	strbeq	r2, [sl, #-3845]	; 0xfffff0fb
    1c08:	76030606 	strvc	r0, [r3], -r6, lsl #12
    1c0c:	1305052e 	movwne	r0, #21806	; 0x552e
    1c10:	76030a05 	strvc	r0, [r3], -r5, lsl #20
    1c14:	15050501 	strne	r0, [r5, #-1281]	; 0xfffffaff
    1c18:	030a052f 	movweq	r0, #42287	; 0xa52f
    1c1c:	05050177 	streq	r0, [r5, #-375]	; 0xfffffe89
    1c20:	060c0513 			; <UNDEFINED> instruction: 0x060c0513
    1c24:	05056601 	streq	r6, [r5, #-1537]	; 0xfffff9ff
    1c28:	01090306 	tsteq	r9, r6, lsl #6
    1c2c:	0501062f 	streq	r0, [r1, #-1583]	; 0xfffff9d1
    1c30:	0176030c 	cmneq	r6, ip, lsl #6
    1c34:	03060505 	movweq	r0, #25861	; 0x6505
    1c38:	09052e0f 	stmdbeq	r5, {r0, r1, r2, r3, r9, sl, fp, sp}
    1c3c:	030a0513 	movweq	r0, #42259	; 0xa513
    1c40:	05050174 	streq	r0, [r5, #-372]	; 0xfffffe8c
    1c44:	0a052f15 	beq	14d8a0 <__bss_end__+0x142aa8>
    1c48:	05017703 	streq	r7, [r1, #-1795]	; 0xfffff8fd
    1c4c:	0c051305 	stceq	3, cr1, [r5], {5}
    1c50:	05660106 	strbeq	r0, [r6, #-262]!	; 0xfffffefa
    1c54:	09030605 	stmdbeq	r3, {r0, r2, r9, sl}
    1c58:	06110501 	ldreq	r0, [r1], -r1, lsl #10
    1c5c:	0305051a 	movweq	r0, #21786	; 0x551a
    1c60:	2f062e78 	svccs	0x00062e78
    1c64:	05190905 	ldreq	r0, [r9, #-2309]	; 0xfffff6fb
    1c68:	0501060c 	streq	r0, [r1, #-1548]	; 0xfffff9f4
    1c6c:	058a061e 	streq	r0, [sl, #1566]	; 0x61e
    1c70:	06051305 	streq	r1, [r5], -r5, lsl #6
    1c74:	1305050e 	movwne	r0, #21774	; 0x550e
    1c78:	14061e05 	strne	r1, [r6], #-3589	; 0xfffff1fb
    1c7c:	662c0505 	strtvs	r0, [ip], -r5, lsl #10
    1c80:	03060605 	movweq	r0, #26117	; 0x6605
    1c84:	05052e76 	streq	r2, [r5, #-3702]	; 0xfffff18a
    1c88:	030a0513 	movweq	r0, #42259	; 0xa513
    1c8c:	05050176 	streq	r0, [r5, #-374]	; 0xfffffe8a
    1c90:	0a052f15 	beq	14d8ec <__bss_end__+0x142af4>
    1c94:	05017703 	streq	r7, [r1, #-1795]	; 0xfffff8fd
    1c98:	0c051305 	stceq	3, cr1, [r5], {5}
    1c9c:	05660106 	strbeq	r0, [r6, #-262]!	; 0xfffffefa
    1ca0:	09030605 	stmdbeq	r3, {r0, r2, r9, sl}
    1ca4:	01062f01 	tsteq	r6, r1, lsl #30
    1ca8:	76030c05 	strvc	r0, [r3], -r5, lsl #24
    1cac:	06050501 	streq	r0, [r5], -r1, lsl #10
    1cb0:	052e0f03 	streq	r0, [lr, #-3843]!	; 0xfffff0fd
    1cb4:	0a051309 	beq	1468e0 <__bss_end__+0x13bae8>
    1cb8:	05017403 	streq	r7, [r1, #-1027]	; 0xfffffbfd
    1cbc:	052f1505 	streq	r1, [pc, #-1285]!	; 17bf <__code_start__-0x6841>
    1cc0:	0177030a 	cmneq	r7, sl, lsl #6
    1cc4:	05130505 	ldreq	r0, [r3, #-1285]	; 0xfffffafb
    1cc8:	6601060c 	strvs	r0, [r1], -ip, lsl #12
    1ccc:	03060505 	movweq	r0, #25861	; 0x6505
    1cd0:	11050109 	tstne	r5, r9, lsl #2
    1cd4:	05051a06 	streq	r1, [r5, #-2566]	; 0xfffff5fa
    1cd8:	062e7803 	strteq	r7, [lr], -r3, lsl #16
    1cdc:	1909052f 	stmdbne	r9, {r0, r1, r2, r3, r5, r8, sl}
    1ce0:	01060c05 	tsteq	r6, r5, lsl #24
    1ce4:	01000802 	tsteq	r0, r2, lsl #16
    1ce8:	00020401 	andeq	r0, r2, r1, lsl #8
    1cec:	c8000300 	stmdagt	r0, {r8, r9}
    1cf0:	02000000 	andeq	r0, r0, #0, 0
    1cf4:	0d0efb01 	vstreq	d15, [lr, #-4]
    1cf8:	01010100 	mrseq	r0, (UNDEF: 17)
    1cfc:	00000001 	andeq	r0, r0, r1
    1d00:	01000001 	tsteq	r0, r1
    1d04:	6d6f682f 	stclvs	8, cr6, [pc, #-188]!	; 1c50 <__code_start__-0x63b0>
    1d08:	6e652f65 	cdpvs	15, 6, cr2, cr5, cr5, {3}
    1d0c:	72656c67 	rsbvc	r6, r5, #26368	; 0x6700
    1d10:	616c632f 	cmnvs	ip, pc, lsr #6
    1d14:	632f7373 			; <UNDEFINED> instruction: 0x632f7373
    1d18:	30343173 	eorscc	r3, r4, r3, ror r1
    1d1c:	32322d65 	eorscc	r2, r2, #6464	; 0x1940
    1d20:	2f6e6977 	svccs	0x006e6977
    1d24:	62696c2f 	rsbvs	r6, r9, #12032	; 0x2f00
    1d28:	692f6970 	stmdbvs	pc!, {r4, r5, r6, r8, fp, sp, lr}	; <UNPREDICTABLE>
    1d2c:	756c636e 	strbvc	r6, [ip, #-878]!	; 0xfffffc92
    1d30:	2f006564 	svccs	0x00006564
    1d34:	2f727375 	svccs	0x00727375
    1d38:	72616873 	rsbvc	r6, r1, #7536640	; 0x730000
    1d3c:	63672f65 	cmnvs	r7, #404	; 0x194
    1d40:	72612d63 	rsbvc	r2, r1, #6336	; 0x18c0
    1d44:	6f6e2d6d 	svcvs	0x006e2d6d
    1d48:	652d656e 	strvs	r6, [sp, #-1390]!	; 0xfffffa92
    1d4c:	2d696261 	sfmcs	f6, 2, [r9, #-388]!	; 0xfffffe7c
    1d50:	332e3031 			; <UNDEFINED> instruction: 0x332e3031
    1d54:	3230322d 	eorscc	r3, r0, #-805306366	; 0xd0000002
    1d58:	30312e31 	eorscc	r2, r1, r1, lsr lr
    1d5c:	62696c2f 	rsbvs	r6, r9, #12032	; 0x2f00
    1d60:	6363672f 	cmnvs	r3, #12320768	; 0xbc0000
    1d64:	6d72612f 	ldfvse	f6, [r2, #-188]!	; 0xffffff44
    1d68:	6e6f6e2d 	cdpvs	14, 6, cr6, cr15, cr13, {1}
    1d6c:	61652d65 	cmnvs	r5, r5, ror #26
    1d70:	312f6962 			; <UNDEFINED> instruction: 0x312f6962
    1d74:	2e332e30 	mrccs	14, 1, r2, cr3, cr0, {1}
    1d78:	6e692f31 	mcrvs	15, 3, r2, cr9, cr1, {1}
    1d7c:	64756c63 	ldrbtvs	r6, [r5], #-3171	; 0xfffff39d
    1d80:	75000065 	strvc	r0, [r0, #-101]	; 0xffffff9b
    1d84:	2e747261 	cdpcs	2, 7, cr7, cr4, cr1, {3}
    1d88:	00000063 	andeq	r0, r0, r3, rrx
    1d8c:	72617500 	rsbvc	r7, r1, #0, 10
    1d90:	00682e74 	rsbeq	r2, r8, r4, ror lr
    1d94:	72000001 	andvc	r0, r0, #1, 0
    1d98:	682e6970 	stmdavs	lr!, {r4, r5, r6, r8, fp, sp, lr}
    1d9c:	00000100 	andeq	r0, r0, r0, lsl #2
    1da0:	6f697067 	svcvs	0x00697067
    1da4:	0100682e 	tsteq	r0, lr, lsr #16
    1da8:	74730000 	ldrbtvc	r0, [r3], #-0
    1dac:	746e6964 	strbtvc	r6, [lr], #-2404	; 0xfffff69c
    1db0:	6363672d 	cmnvs	r3, #11796480	; 0xb40000
    1db4:	0200682e 	andeq	r6, r0, #3014656	; 0x2e0000
    1db8:	05000000 	streq	r0, [r0, #-0]
    1dbc:	02050039 	andeq	r0, r5, #57, 0	; 0x39
    1dc0:	00009950 	andeq	r9, r0, r0, asr r9
    1dc4:	06013003 	streq	r3, [r1], -r3
    1dc8:	06050501 	streq	r0, [r5], -r1, lsl #10
    1dcc:	06110567 	ldreq	r0, [r1], -r7, ror #10
    1dd0:	2e050501 	cfsh32cs	mvfx0, mvfx5, #1
    1dd4:	05670105 	strbeq	r0, [r7, #-261]!	; 0xfffffefb
    1dd8:	06290638 			; <UNDEFINED> instruction: 0x06290638
    1ddc:	06050501 	streq	r0, [r5], -r1, lsl #10
    1de0:	06110567 	ldreq	r0, [r1], -r7, ror #10
    1de4:	2e050501 	cfsh32cs	mvfx0, mvfx5, #1
    1de8:	05670105 	strbeq	r0, [r7, #-261]!	; 0xfffffefb
    1dec:	15030616 	strne	r0, [r3, #-1558]	; 0xfffff9ea
    1df0:	3505052e 	strcc	r0, [r5, #-1326]	; 0xfffffad2
    1df4:	68356867 	ldmdavs	r5!, {r0, r1, r2, r5, r6, fp, sp, lr}
    1df8:	852e0c03 	strhi	r0, [lr, #-3075]!	; 0xfffff3fd
    1dfc:	0369696b 	cmneq	r9, #1753088	; 0x1ac000
    1e00:	6b13660c 	blvs	4db638 <__bss_end__+0x4d0840>
    1e04:	06010567 	streq	r0, [r1], -r7, ror #10
    1e08:	0619052f 	ldreq	r0, [r9], -pc, lsr #10
    1e0c:	05052508 	streq	r2, [r5, #-1288]	; 0xfffffaf8
    1e10:	060d0534 			; <UNDEFINED> instruction: 0x060d0534
    1e14:	4c010501 	cfstr32mi	mvfx0, [r1], {1}
    1e18:	67061905 	strvs	r1, [r6, -r5, lsl #18]
    1e1c:	05360505 	ldreq	r0, [r6, #-1285]!	; 0xfffffafb
    1e20:	0501060d 	streq	r0, [r1, #-1549]	; 0xfffff9f3
    1e24:	01054a28 	tsteq	r5, r8, lsr #20
    1e28:	06150530 			; <UNDEFINED> instruction: 0x06150530
    1e2c:	2f050587 	svccs	0x00050587
    1e30:	0009052f 	andeq	r0, r9, pc, lsr #10
    1e34:	13010402 	movwne	r0, #5122	; 0x1402
    1e38:	02000a05 	andeq	r0, r0, #20480	; 0x5000
    1e3c:	05110104 	ldreq	r0, [r1, #-260]	; 0xfffffefc
    1e40:	0402000c 	streq	r0, [r2], #-12
    1e44:	05010601 	streq	r0, [r1, #-1537]	; 0xfffff9ff
    1e48:	0402000a 	streq	r0, [r2], #-10
    1e4c:	05052e01 	streq	r2, [r5, #-3585]	; 0xfffff1ff
    1e50:	0e054c06 	cdpeq	12, 0, cr4, cr5, cr6, {0}
    1e54:	09050106 	stmdbeq	r5, {r1, r2, r8}
    1e58:	0605054a 	streq	r0, [r5], -sl, asr #10
    1e5c:	01052f2f 	tsteq	r5, pc, lsr #30
    1e60:	1c051306 	stcne	3, cr1, [r5], {6}
    1e64:	01066706 	tsteq	r6, r6, lsl #14
    1e68:	4b060505 	blmi	183284 <__bss_end__+0x17848c>
    1e6c:	0009052f 	andeq	r0, r9, pc, lsr #10
    1e70:	13010402 	movwne	r0, #5122	; 0x1402
    1e74:	02000a05 	andeq	r0, r0, #20480	; 0x5000
    1e78:	05110104 	ldreq	r0, [r1, #-260]	; 0xfffffefc
    1e7c:	0402000c 	streq	r0, [r2], #-12
    1e80:	05010601 	streq	r0, [r1, #-1537]	; 0xfffff9ff
    1e84:	0402000a 	streq	r0, [r2], #-10
    1e88:	05052e01 	streq	r2, [r5, #-3585]	; 0xfffff1ff
    1e8c:	05674c06 	strbeq	r4, [r7, #-3078]!	; 0xfffff3fa
    1e90:	052f0601 	streq	r0, [pc, #-1537]!	; 1897 <__code_start__-0x6769>
    1e94:	054c0619 	strbeq	r0, [ip, #-1561]	; 0xfffff9e7
    1e98:	2a052e1b 	bcs	14d70c <__bss_end__+0x142914>
    1e9c:	0631052e 	ldrteq	r0, [r1], -lr, lsr #10
    1ea0:	2e420501 	cdpcs	5, 4, cr0, cr2, cr1, {0}
    1ea4:	31061c05 	tstcc	r6, r5, lsl #24
    1ea8:	032f0505 			; <UNDEFINED> instruction: 0x032f0505
    1eac:	0e052e09 	cdpeq	14, 0, cr2, cr5, cr9, {0}
    1eb0:	21050106 	tstcs	r5, r6, lsl #2
    1eb4:	0301054a 	movweq	r0, #5450	; 0x154a
    1eb8:	1a052e0a 	bne	14d6e8 <__bss_end__+0x1428f0>
    1ebc:	09056806 	stmdbeq	r5, {r1, r2, fp, sp, lr}
    1ec0:	01040200 	mrseq	r0, R12_usr
    1ec4:	000a0530 	andeq	r0, sl, r0, lsr r5
    1ec8:	11010402 	tstne	r1, r2, lsl #8
    1ecc:	02000c05 	andeq	r0, r0, #1280	; 0x500
    1ed0:	01060104 	tsteq	r6, r4, lsl #2
    1ed4:	02000a05 	andeq	r0, r0, #20480	; 0x5000
    1ed8:	052e0104 	streq	r0, [lr, #-260]!	; 0xfffffefc
    1edc:	e8030619 	stmda	r3, {r0, r3, r4, r9, sl}
    1ee0:	0505667e 	streq	r6, [r5, #-1662]	; 0xfffff982
    1ee4:	672f2f2f 	strvs	r2, [pc, -pc, lsr #30]!
    1ee8:	2f060105 	svccs	0x00060105
    1eec:	01000402 	tsteq	r0, r2, lsl #8
    1ef0:	00039201 	andeq	r9, r3, r1, lsl #4
    1ef4:	b7000300 	strlt	r0, [r0, -r0, lsl #6]
    1ef8:	02000000 	andeq	r0, r0, #0, 0
    1efc:	0d0efb01 	vstreq	d15, [lr, #-4]
    1f00:	01010100 	mrseq	r0, (UNDEF: 17)
    1f04:	00000001 	andeq	r0, r0, r1
    1f08:	01000001 	tsteq	r0, r1
    1f0c:	6d6f682f 	stclvs	8, cr6, [pc, #-188]!	; 1e58 <__code_start__-0x61a8>
    1f10:	6e652f65 	cdpvs	15, 6, cr2, cr5, cr5, {3}
    1f14:	72656c67 	rsbvc	r6, r5, #26368	; 0x6700
    1f18:	616c632f 	cmnvs	ip, pc, lsr #6
    1f1c:	632f7373 			; <UNDEFINED> instruction: 0x632f7373
    1f20:	30343173 	eorscc	r3, r4, r3, ror r1
    1f24:	32322d65 	eorscc	r2, r2, #6464	; 0x1940
    1f28:	2f6e6977 	svccs	0x006e6977
    1f2c:	62696c2f 	rsbvs	r6, r9, #12032	; 0x2f00
    1f30:	692f6970 	stmdbvs	pc!, {r4, r5, r6, r8, fp, sp, lr}	; <UNPREDICTABLE>
    1f34:	756c636e 	strbvc	r6, [ip, #-878]!	; 0xfffffc92
    1f38:	2f006564 	svccs	0x00006564
    1f3c:	2f727375 	svccs	0x00727375
    1f40:	72616873 	rsbvc	r6, r1, #7536640	; 0x730000
    1f44:	63672f65 	cmnvs	r7, #404	; 0x194
    1f48:	72612d63 	rsbvc	r2, r1, #6336	; 0x18c0
    1f4c:	6f6e2d6d 	svcvs	0x006e2d6d
    1f50:	652d656e 	strvs	r6, [sp, #-1390]!	; 0xfffffa92
    1f54:	2d696261 	sfmcs	f6, 2, [r9, #-388]!	; 0xfffffe7c
    1f58:	332e3031 			; <UNDEFINED> instruction: 0x332e3031
    1f5c:	3230322d 	eorscc	r3, r0, #-805306366	; 0xd0000002
    1f60:	30312e31 	eorscc	r2, r1, r1, lsr lr
    1f64:	62696c2f 	rsbvs	r6, r9, #12032	; 0x2f00
    1f68:	6363672f 	cmnvs	r3, #12320768	; 0xbc0000
    1f6c:	6d72612f 	ldfvse	f6, [r2, #-188]!	; 0xffffff44
    1f70:	6e6f6e2d 	cdpvs	14, 6, cr6, cr15, cr13, {1}
    1f74:	61652d65 	cmnvs	r5, r5, ror #26
    1f78:	312f6962 			; <UNDEFINED> instruction: 0x312f6962
    1f7c:	2e332e30 	mrccs	14, 1, r2, cr3, cr0, {1}
    1f80:	6e692f31 	mcrvs	15, 3, r2, cr9, cr1, {1}
    1f84:	64756c63 	ldrbtvs	r6, [r5], #-3171	; 0xfffff39d
    1f88:	6b000065 	blvs	2124 <__code_start__-0x5edc>
    1f8c:	6c6c616d 	stfvse	f6, [ip], #-436	; 0xfffffe4c
    1f90:	632e636f 			; <UNDEFINED> instruction: 0x632e636f
    1f94:	00000000 	andeq	r0, r0, r0
    1f98:	2e697072 	mcrcs	0, 3, r7, cr9, cr2, {3}
    1f9c:	00010068 	andeq	r0, r1, r8, rrx
    1fa0:	64747300 	ldrbtvs	r7, [r4], #-768	; 0xfffffd00
    1fa4:	2d746e69 	ldclcs	14, cr6, [r4, #-420]!	; 0xfffffe5c
    1fa8:	2e636367 	cdpcs	3, 6, cr6, cr3, cr7, {3}
    1fac:	00020068 	andeq	r0, r2, r8, rrx
    1fb0:	1e050000 	cdpne	0, 0, cr0, cr5, cr0, {0}
    1fb4:	40020500 	andmi	r0, r2, r0, lsl #10
    1fb8:	0300009b 	movweq	r0, #155	; 0x9b
    1fbc:	20050127 	andcs	r0, r5, r7, lsr #2
    1fc0:	062d0501 	strteq	r0, [sp], -r1, lsl #10
    1fc4:	06200501 	strteq	r0, [r0], -r1, lsl #10
    1fc8:	01220583 	smlawbeq	r2, r3, r5, r0
    1fcc:	01063505 	tsteq	r6, r5, lsl #10
    1fd0:	83061e05 	movwhi	r1, #28165	; 0x6e05
    1fd4:	05012005 	streq	r2, [r1, #-5]
    1fd8:	0501062d 	streq	r0, [r1, #-1581]	; 0xfffff9d3
    1fdc:	06850642 	streq	r0, [r5], r2, asr #12
    1fe0:	06050501 	streq	r0, [r5], -r1, lsl #10
    1fe4:	0601144b 	streq	r1, [r1], -fp, asr #8
    1fe8:	0402002e 	streq	r0, [r2], #-46	; 0xffffffd2
    1fec:	002e0602 	eoreq	r0, lr, r2, lsl #12
    1ff0:	01020402 	tsteq	r2, r2, lsl #8
    1ff4:	02040200 	andeq	r0, r4, #0, 4
    1ff8:	000d0515 	andeq	r0, sp, r5, lsl r5
    1ffc:	06020402 	streq	r0, [r2], -r2, lsl #8
    2000:	00070501 	andeq	r0, r7, r1, lsl #10
    2004:	4a020402 	bmi	83014 <__bss_end__+0x7821c>
    2008:	4b060905 	blmi	184424 <__bss_end__+0x17962c>
    200c:	05150505 	ldreq	r0, [r5, #-1285]	; 0xfffffafb
    2010:	05010617 	streq	r0, [r1, #-1559]	; 0xfffff9e9
    2014:	05054a10 	streq	r4, [r5, #-2576]	; 0xfffff5f0
    2018:	1b052f06 	blne	14dc38 <__bss_end__+0x142e40>
    201c:	0e050106 	adfeqs	f0, f5, f6
    2020:	2f01052e 	svccs	0x0001052e
    2024:	02000505 	andeq	r0, r0, #20971520	; 0x1400000
    2028:	03060104 	movweq	r0, #24836	; 0x6104
    202c:	02004a77 	andeq	r4, r0, #487424	; 0x77000
    2030:	00010104 	andeq	r0, r1, r4, lsl #2
    2034:	06010402 	streq	r0, [r1], -r2, lsl #8
    2038:	0402009e 	streq	r0, [r2], #-158	; 0xffffff62
    203c:	02002e01 	andeq	r2, r0, #1, 28
    2040:	2e060104 	adfcss	f0, f6, f4
    2044:	01320905 	teqeq	r2, r5, lsl #18
    2048:	062ed606 	strteq	sp, [lr], -r6, lsl #12
    204c:	de19052e 	cfmul64le	mvdx0, mvdx9, mvdx14
    2050:	142f0505 	strtne	r0, [pc], #-1285	; 2058 <__code_start__-0x5fa8>
    2054:	01060805 	tsteq	r6, r5, lsl #16
    2058:	054a0705 	strbeq	r0, [sl, #-1797]	; 0xfffff8fb
    205c:	054b0609 	strbeq	r0, [fp, #-1545]	; 0xfffff9f7
    2060:	0c051305 	stceq	3, cr1, [r5], {5}
    2064:	05050106 	streq	r0, [r5, #-262]	; 0xfffffefa
    2068:	05136706 	ldreq	r6, [r3, #-1798]	; 0xfffff8fa
    206c:	05670601 	strbeq	r0, [r7, #-1537]!	; 0xfffff9ff
    2070:	012a0609 			; <UNDEFINED> instruction: 0x012a0609
    2074:	a528059e 	strge	r0, [r8, #-1438]!	; 0xfffffa62
    2078:	05050106 	streq	r0, [r5, #-262]	; 0xfffffefa
    207c:	06014b06 	streq	r4, [r1], -r6, lsl #22
    2080:	012e062e 			; <UNDEFINED> instruction: 0x012e062e
    2084:	03180513 	tsteq	r8, #79691776	; 0x4c00000
    2088:	05050147 	streq	r0, [r5, #-327]	; 0xfffffeb9
    208c:	01060113 	tsteq	r6, r3, lsl r1
    2090:	01150f06 	tsteq	r5, r6, lsl #30
    2094:	060e0513 			; <UNDEFINED> instruction: 0x060e0513
    2098:	2e160501 	cfmul32cs	mvfx0, mvfx6, mvfx1
    209c:	0605052e 	streq	r0, [r5], -lr, lsr #10
    20a0:	05013903 	streq	r3, [r1, #-2307]	; 0xfffff6fd
    20a4:	0501060b 	streq	r0, [r1, #-1547]	; 0xfffff9f5
    20a8:	054b0605 	strbeq	r0, [fp, #-1541]	; 0xfffff9fb
    20ac:	0501060a 	streq	r0, [r1, #-1546]	; 0xfffff9f6
    20b0:	054b0605 	strbeq	r0, [fp, #-1541]	; 0xfffff9fb
    20b4:	0501060d 	streq	r0, [r1, #-1549]	; 0xfffff9f3
    20b8:	01052e07 	tsteq	r5, r7, lsl #28
    20bc:	0005054d 	andeq	r0, r5, sp, asr #10
    20c0:	06010402 	streq	r0, [r1], -r2, lsl #8
    20c4:	004a7803 	subeq	r7, sl, r3, lsl #16
    20c8:	01010402 	tsteq	r1, r2, lsl #8
    20cc:	01040200 	mrseq	r0, R12_usr
    20d0:	0200ba06 	andeq	fp, r0, #24576	; 0x6000
    20d4:	2e060104 	adfcss	f0, f6, f4
    20d8:	01340905 	teqeq	r4, r5, lsl #18
    20dc:	06668206 	strbteq	r8, [r6], -r6, lsl #4
    20e0:	db20052e 	blle	8035a0 <__bss_end__+0x7f87a8>
    20e4:	05050106 	streq	r0, [r5, #-262]	; 0xfffffefa
    20e8:	00014b06 	andeq	r4, r1, r6, lsl #22
    20ec:	4a020402 	bmi	830fc <__bss_end__+0x78304>
    20f0:	02040200 	andeq	r0, r4, #0, 4
    20f4:	04020001 	streq	r0, [r2], #-1
    20f8:	12051302 	andne	r1, r5, #134217728	; 0x8000000
    20fc:	02040200 	andeq	r0, r4, #0, 4
    2100:	02000106 	andeq	r0, r0, #-2147483647	; 0x80000001
    2104:	002e0204 	eoreq	r0, lr, r4, lsl #4
    2108:	2e020402 	cdpcs	4, 0, cr0, cr2, cr2, {0}
    210c:	02000505 	andeq	r0, r0, #20971520	; 0x1400000
    2110:	2f060204 	svccs	0x00060204
    2114:	02040200 	andeq	r0, r4, #0, 4
    2118:	00010567 	andeq	r0, r1, r7, ror #10
    211c:	06020402 	streq	r0, [r2], -r2, lsl #8
    2120:	00050513 	andeq	r0, r5, r3, lsl r5
    2124:	06010402 	streq	r0, [r1], -r2, lsl #8
    2128:	04020062 	streq	r0, [r2], #-98	; 0xffffff9e
    212c:	02000101 	andeq	r0, r0, #1073741824	; 0x40000000
    2130:	ba060104 	blt	182548 <__bss_end__+0x177750>
    2134:	01040200 	mrseq	r0, R12_usr
    2138:	3c052e06 	stccc	14, cr2, [r5], {6}
    213c:	069e0a03 	ldreq	r0, [lr], r3, lsl #20
    2140:	06050501 	streq	r0, [r5], -r1, lsl #10
    2144:	2e06014b 	adfcssm	f0, f6, #3.0
    2148:	13012e06 	movwne	r2, #7686	; 0x1e06
    214c:	03180501 	tsteq	r8, #4194304	; 0x400000
    2150:	05017fad 	streq	r7, [r1, #-4013]	; 0xfffff053
    2154:	11051305 	tstne	r5, r5, lsl #6
    2158:	052e0106 	streq	r0, [lr, #-262]!	; 0xfffffefa
    215c:	00d20305 	sbcseq	r0, r2, r5, lsl #6
    2160:	134a0601 	movtne	r0, #42497	; 0xa601
    2164:	a3031805 	movwge	r1, #14341	; 0x3805
    2168:	0505017f 	streq	r0, [r5, #-383]	; 0xfffffe81
    216c:	06160513 			; <UNDEFINED> instruction: 0x06160513
    2170:	05054a01 	streq	r4, [r5, #-2561]	; 0xfffff5ff
    2174:	00e10306 	rsceq	r0, r1, r6, lsl #6
    2178:	06120501 	ldreq	r0, [r2], -r1, lsl #10
    217c:	06050501 	streq	r0, [r5], -r1, lsl #10
    2180:	0318054b 	tsteq	r8, #314572800	; 0x12c00000
    2184:	05017fa9 	streq	r7, [r1, #-4009]	; 0xfffff057
    2188:	05011305 	streq	r1, [r1, #-773]	; 0xfffffcfb
    218c:	05050e18 	streq	r0, [r5, #-3608]	; 0xfffff1e8
    2190:	06110513 			; <UNDEFINED> instruction: 0x06110513
    2194:	05052e01 	streq	r2, [r5, #-3585]	; 0xfffff1ff
    2198:	014a0615 	cmpeq	sl, r5, lsl r6
    219c:	060e0513 			; <UNDEFINED> instruction: 0x060e0513
    21a0:	16052e01 	strne	r2, [r5], -r1, lsl #28
    21a4:	05052e2e 	streq	r2, [r5, #-3630]	; 0xfffff1d2
    21a8:	00d60306 	sbcseq	r0, r6, r6, lsl #6
    21ac:	18050101 	stmdane	r5, {r0, r8}
    21b0:	017f9f03 	cmneq	pc, r3, lsl #30
    21b4:	05130505 	ldreq	r0, [r3, #-1285]	; 0xfffffafb
    21b8:	2e010619 	mcrcs	6, 0, r0, cr1, cr9, {0}
    21bc:	e0030505 	and	r0, r3, r5, lsl #10
    21c0:	02000100 	andeq	r0, r0, #0
    21c4:	4a060204 	bmi	1829dc <__bss_end__+0x177be4>
    21c8:	02040200 	andeq	r0, r4, #0, 4
    21cc:	000a0514 	andeq	r0, sl, r4, lsl r5
    21d0:	06020402 	streq	r0, [r2], -r2, lsl #8
    21d4:	00050501 	andeq	r0, r5, r1, lsl #10
    21d8:	06020402 	streq	r0, [r2], -r2, lsl #8
    21dc:	000c054b 	andeq	r0, ip, fp, asr #10
    21e0:	06020402 	streq	r0, [r2], -r2, lsl #8
    21e4:	00010501 	andeq	r0, r1, r1, lsl #10
    21e8:	2f020402 	svccs	0x00020402
    21ec:	02000505 	andeq	r0, r0, #20971520	; 0x1400000
    21f0:	03060104 	movweq	r0, #24836	; 0x6104
    21f4:	02004a73 	andeq	r4, r0, #471040	; 0x73000
    21f8:	00010104 	andeq	r0, r1, r4, lsl #2
    21fc:	06010402 	streq	r0, [r1], -r2, lsl #8
    2200:	0402009e 	streq	r0, [r2], #-158	; 0xffffff62
    2204:	02002e01 	andeq	r2, r0, #1, 28
    2208:	2e060104 	adfcss	f0, f6, f4
    220c:	01040200 	mrseq	r0, R12_usr
    2210:	0402002f 	streq	r0, [r2], #-47	; 0xffffffd1
    2214:	02002e01 	andeq	r2, r0, #1, 28
    2218:	03d60104 	bicseq	r0, r6, #1
    221c:	012e7fb1 			; <UNDEFINED> instruction: 0x012e7fb1
    2220:	2e2e8206 	cdpcs	2, 2, cr8, cr14, cr6, {0}
    2224:	2e062e06 	cdpcs	14, 0, cr2, cr6, cr6, {0}
    2228:	01040200 	mrseq	r0, R12_usr
    222c:	00d70306 	sbcseq	r0, r7, r6, lsl #6
    2230:	04020001 	streq	r0, [r2], #-1
    2234:	02002e01 	andeq	r2, r0, #1, 28
    2238:	05d60104 	ldrbeq	r0, [r6, #260]	; 0x104
    223c:	057b0815 	ldrbeq	r0, [fp, #-2069]!	; 0xfffff7eb
    2240:	16050117 			; <UNDEFINED> instruction: 0x16050117
    2244:	01180531 	tsteq	r8, r1, lsr r5
    2248:	01061d05 	tsteq	r6, r5, lsl #26
    224c:	05662b05 	strbeq	r2, [r6, #-2821]!	; 0xfffff4fb
    2250:	054d0619 	strbeq	r0, [sp, #-1561]	; 0xfffff9e7
    2254:	0c051305 	stceq	3, cr1, [r5], {5}
    2258:	07050106 	streq	r0, [r5, -r6, lsl #2]
    225c:	0025054a 	eoreq	r0, r5, sl, asr #10
    2260:	4a010402 	bmi	43270 <__bss_end__+0x38478>
    2264:	02001e05 	andeq	r1, r0, #80	; 0x50
    2268:	054a0104 	strbeq	r0, [sl, #-260]	; 0xfffffefc
    226c:	054b0609 	strbeq	r0, [fp, #-1545]	; 0xfffff9f7
    2270:	0a051305 	beq	146e8c <__bss_end__+0x13c094>
    2274:	19050106 	stmdbne	r5, {r1, r2, r8}
    2278:	06090563 	streq	r0, [r9], -r3, ror #10
    227c:	9e06014c 	adflssm	f0, f6, #4.0
    2280:	0a022e06 	beq	8daa0 <__bss_end__+0x82ca8>
    2284:	89010100 	stmdbhi	r1, {r8}
    2288:	03000002 	movweq	r0, #2
    228c:	0000c900 	andeq	ip, r0, r0, lsl #18
    2290:	fb010200 	blx	42a9a <__bss_end__+0x37ca2>
    2294:	01000d0e 	tsteq	r0, lr, lsl #26
    2298:	00010101 	andeq	r0, r1, r1, lsl #2
    229c:	00010000 	andeq	r0, r1, r0
    22a0:	2f2e0100 	svccs	0x002e0100
    22a4:	00637273 	rsbeq	r7, r3, r3, ror r2
    22a8:	6573552f 	ldrbvs	r5, [r3, #-1327]!	; 0xfffffad1
    22ac:	6d2f7372 	stcvs	3, cr7, [pc, #-456]!	; 20ec <__code_start__-0x5f14>
    22b0:	73656c69 	cmnvc	r5, #26880	; 0x6900
    22b4:	756f532f 	strbvc	r5, [pc, #-815]!	; 1f8d <__code_start__-0x6073>
    22b8:	2f656372 	svccs	0x00656372
    22bc:	34327363 	ldrtcc	r7, [r2], #-867	; 0xfffffc9d
    22c0:	2f786c30 	svccs	0x00786c30
    22c4:	7062696c 	rsbvc	r6, r2, ip, ror #18
    22c8:	6e692f69 	cdpvs	15, 6, cr2, cr9, cr9, {3}
    22cc:	64756c63 	ldrbtvs	r6, [r5], #-3171	; 0xfffff39d
    22d0:	6f2f0065 	svcvs	0x002f0065
    22d4:	682f7470 	stmdavs	pc!, {r4, r5, r6, sl, ip, sp, lr}	; <UNPREDICTABLE>
    22d8:	62656d6f 	rsbvs	r6, r5, #7104	; 0x1bc0
    22dc:	2f776572 	svccs	0x00776572
    22e0:	6c6c6543 	cfstr64vs	mvdx6, [ip], #-268	; 0xfffffef4
    22e4:	612f7261 			; <UNDEFINED> instruction: 0x612f7261
    22e8:	6e2d6d72 	mcrvs	13, 1, r6, cr13, cr2, {3}
    22ec:	2d656e6f 	stclcs	14, cr6, [r5, #-444]!	; 0xfffffe44
    22f0:	69626165 	stmdbvs	r2!, {r0, r2, r5, r6, r8, sp, lr}^
    22f4:	392f392d 	stmdbcc	pc!, {r0, r2, r3, r5, r8, fp, ip, sp}	; <UNPREDICTABLE>
    22f8:	3130322d 	teqcc	r0, sp, lsr #4
    22fc:	2d347139 	ldfcss	f7, [r4, #-228]!	; 0xffffff1c
    2300:	30317363 	eorscc	r7, r1, r3, ror #6
    2304:	6c2f6537 	cfstr32vs	mvfx6, [pc], #-220	; 2230 <__code_start__-0x5dd0>
    2308:	672f6269 	strvs	r6, [pc, -r9, ror #4]!
    230c:	612f6363 			; <UNDEFINED> instruction: 0x612f6363
    2310:	6e2d6d72 	mcrvs	13, 1, r6, cr13, cr2, {3}
    2314:	2d656e6f 	stclcs	14, cr6, [r5, #-444]!	; 0xfffffe44
    2318:	69626165 	stmdbvs	r2!, {r0, r2, r5, r6, r8, sp, lr}^
    231c:	322e392f 	eorcc	r3, lr, #770048	; 0xbc000
    2320:	692f312e 	stmdbvs	pc!, {r1, r2, r3, r5, r8, ip, sp}	; <UNPREDICTABLE>
    2324:	756c636e 	strbvc	r6, [ip, #-878]!	; 0xfffffc92
    2328:	00006564 	andeq	r6, r0, r4, ror #10
    232c:	6f697067 	svcvs	0x00697067
    2330:	0100632e 	tsteq	r0, lr, lsr #6
    2334:	70720000 	rsbsvc	r0, r2, r0
    2338:	00682e69 	rsbeq	r2, r8, r9, ror #28
    233c:	73000002 	movwvc	r0, #2
    2340:	6e696474 	mcrvs	4, 3, r6, cr9, cr4, {3}
    2344:	63672d74 	cmnvs	r7, #116, 26	; 0x1d00
    2348:	00682e63 	rsbeq	r2, r8, r3, ror #28
    234c:	67000003 	strvs	r0, [r0, -r3]
    2350:	2e6f6970 			; <UNDEFINED> instruction: 0x2e6f6970
    2354:	00020068 	andeq	r0, r2, r8, rrx
    2358:	38050000 	stmdacc	r5, {}	; <UNPREDICTABLE>
    235c:	f0020500 			; <UNDEFINED> instruction: 0xf0020500
    2360:	0300009e 	movweq	r0, #158	; 0x9e
    2364:	05050127 	streq	r0, [r5, #-295]	; 0xfffffed9
    2368:	06070513 			; <UNDEFINED> instruction: 0x06070513
    236c:	06060501 	streq	r0, [r6], -r1, lsl #10
    2370:	15050549 	strne	r0, [r5, #-1353]	; 0xfffffab7
    2374:	01060705 	tsteq	r6, r5, lsl #14
    2378:	052b3805 	streq	r3, [fp, #-2053]!	; 0xfffff7fb
    237c:	05054d07 	streq	r4, [r5, #-3335]	; 0xfffff2f9
    2380:	18053006 	stmdane	r5, {r1, r2, ip, sp}
    2384:	1c050106 	stfnes	f0, [r5], {6}
    2388:	4a0e0567 	bmi	38392c <__bss_end__+0x378b34>
    238c:	052d1805 	streq	r1, [sp, #-2053]!	; 0xfffff7fb
    2390:	2f2e4d12 	svccs	0x002e4d12
    2394:	052a0e05 	streq	r0, [sl, #-3589]!	; 0xfffff1fb
    2398:	142f0605 	strtne	r0, [pc], #-1541	; 23a0 <__code_start__-0x5c60>
    239c:	06070513 			; <UNDEFINED> instruction: 0x06070513
    23a0:	06050501 	streq	r0, [r5], -r1, lsl #10
    23a4:	2e06132f 	cdpcs	3, 0, cr1, cr6, cr15, {1}
    23a8:	1301052e 	movwne	r0, #5422	; 0x152e
    23ac:	2e2d0505 	cfsh64cs	mvdx0, mvdx13, #5
    23b0:	00062405 	andeq	r2, r6, r5, lsl #8
    23b4:	9f500205 	svcls	0x00500205
    23b8:	05150000 	ldreq	r0, [r5, #-0]
    23bc:	06051305 	streq	r1, [r5], -r5, lsl #6
    23c0:	05017103 	streq	r7, [r1, #-259]	; 0xfffffefd
    23c4:	07051305 	streq	r1, [r5, -r5, lsl #6]
    23c8:	06050106 	streq	r0, [r5], -r6, lsl #2
    23cc:	05054906 	streq	r4, [r5, #-2310]	; 0xfffff6fa
    23d0:	24051415 	strcs	r1, [r5], #-1045	; 0xfffffbeb
    23d4:	01090306 	tsteq	r9, r6, lsl #6
    23d8:	77031805 	strvc	r1, [r3, -r5, lsl #16]
    23dc:	671c052e 	ldrvs	r0, [ip, -lr, lsr #10]
    23e0:	054a0e05 	strbeq	r0, [sl, #-3589]	; 0xfffff1fb
    23e4:	12052d18 	andne	r2, r5, #24, 26	; 0x600
    23e8:	052f2e4d 	streq	r2, [pc, #-3661]!	; 15a3 <__code_start__-0x6a5d>
    23ec:	0e052f0f 	cdpeq	15, 0, cr2, cr5, cr15, {0}
    23f0:	06050529 	streq	r0, [r5], -r9, lsr #10
    23f4:	0513142f 	ldreq	r1, [r3, #-1071]	; 0xfffffbd1
    23f8:	05010607 	streq	r0, [r1, #-1543]	; 0xfffff9f9
    23fc:	132f0605 			; <UNDEFINED> instruction: 0x132f0605
    2400:	01052e06 	tsteq	r5, r6, lsl #28
    2404:	29050533 	stmdbcs	r5, {r0, r1, r4, r5, r8, sl}
    2408:	0627052e 	strteq	r0, [r7], -lr, lsr #10
    240c:	a8020500 	stmdage	r2, {r8, sl}
    2410:	1a00009f 	bne	2694 <__code_start__-0x596c>
    2414:	05130505 	ldreq	r0, [r3, #-1285]	; 0xfffffafb
    2418:	05110627 	ldreq	r0, [r1, #-1575]	; 0xfffff9d9
    241c:	05052f18 	streq	r2, [r5, #-3864]	; 0xfffff0e8
    2420:	054a2e2e 	strbeq	r2, [sl, #-3630]	; 0xfffff1d2
    2424:	05000628 	streq	r0, [r0, #-1576]	; 0xfffff9d8
    2428:	009fc002 	addseq	ip, pc, r2
    242c:	05051600 	streq	r1, [r5, #-1536]	; 0xfffffa00
    2430:	06280513 			; <UNDEFINED> instruction: 0x06280513
    2434:	2f180511 	svccs	0x00180511
    2438:	2e2e0505 	cfsh64cs	mvdx0, mvdx14, #5
    243c:	0623054a 	strteq	r0, [r3], -sl, asr #10
    2440:	d8020500 	stmdale	r2, {r8, sl}
    2444:	1600009f 			; <UNDEFINED> instruction: 0x1600009f
    2448:	05130505 	ldreq	r0, [r3, #-1285]	; 0xfffffafb
    244c:	01620306 	cmneq	r2, r6, lsl #6
    2450:	05130505 	ldreq	r0, [r3, #-1285]	; 0xfffffafb
    2454:	05010607 	streq	r0, [r1, #-1543]	; 0xfffff9f9
    2458:	05490606 	strbeq	r0, [r9, #-1542]	; 0xfffff9fa
    245c:	13141505 	tstne	r4, #20971520	; 0x1400000
    2460:	03062305 	movweq	r2, #25349	; 0x6305
    2464:	22050117 	andcs	r0, r5, #-1073741819	; 0xc0000005
    2468:	052e6903 	streq	r6, [lr, #-2307]!	; 0xfffff6fd
    246c:	052e821c 	streq	r8, [lr, #-540]!	; 0xfffffde4
    2470:	05052e0e 	streq	r2, [r5, #-3598]	; 0xfffff1f2
    2474:	12053006 	andne	r3, r5, #6, 0
    2478:	2d4b0106 	stfcse	f0, [fp, #-24]	; 0xffffffe8
    247c:	2f060505 	svccs	0x00060505
    2480:	18051313 	stmdane	r5, {r0, r1, r4, r8, r9, ip}
    2484:	017a0306 	cmneq	sl, r6, lsl #6
    2488:	054a0e05 	strbeq	r0, [sl, #-3589]	; 0xfffff1fb
    248c:	052e3405 	streq	r3, [lr, #-1029]!	; 0xfffffbfb
    2490:	2e140301 	cdpcs	3, 1, cr0, cr4, cr1, {0}
    2494:	6c030505 	cfstr32vs	mvfx0, [r3], {5}
    2498:	2b052e2e 	blcs	14dd58 <__bss_end__+0x142f60>
    249c:	02050006 	andeq	r0, r5, #6, 0
    24a0:	0000a030 	andeq	sl, r0, r0, lsr r0
    24a4:	05011703 	streq	r1, [r1, #-1795]	; 0xfffff8fd
    24a8:	07051305 	streq	r1, [r5, -r5, lsl #6]
    24ac:	18050106 	stmdane	r5, {r1, r2, r8}
    24b0:	052e7103 	streq	r7, [lr, #-259]!	; 0xfffffefd
    24b4:	2e0e032b 	cdpcs	3, 0, cr0, cr14, cr11, {1}
    24b8:	052f0705 	streq	r0, [pc, #-1797]!	; 1dbb <__code_start__-0x6245>
    24bc:	052f0609 	streq	r0, [pc, #-1545]!	; 1ebb <__code_start__-0x6145>
    24c0:	016f030d 	cmneq	pc, sp, lsl #6
    24c4:	06130505 	ldreq	r0, [r3], -r5, lsl #10
    24c8:	052e2e2e 	streq	r2, [lr, #-3630]!	; 0xfffff1d2
    24cc:	12030609 	andne	r0, r3, #9437184	; 0x900000
    24d0:	030d0501 	movweq	r0, #54529	; 0xd501
    24d4:	05050172 	streq	r0, [r5, #-370]	; 0xfffffe8e
    24d8:	2e2e0613 	mcrcs	6, 1, r0, cr14, cr3, {0}
    24dc:	03061d05 	movweq	r1, #27909	; 0x6d05
    24e0:	05056610 	streq	r6, [r5, #-1552]	; 0xfffff9f0
    24e4:	061d0513 			; <UNDEFINED> instruction: 0x061d0513
    24e8:	05052e11 	streq	r2, [r5, #-3601]	; 0xfffff1ef
    24ec:	05133006 	ldreq	r3, [r3, #-6]
    24f0:	0510060e 	ldreq	r0, [r0, #-1550]	; 0xfffff9f2
    24f4:	042e3017 	strteq	r3, [lr], #-23	; 0xffffffe9
    24f8:	06300502 	ldrteq	r0, [r0], -r2, lsl #10
    24fc:	2e00dd03 	cdpcs	13, 0, cr13, cr0, cr3, {0}
    2500:	0e050104 	adfeqs	f0, f5, f4
    2504:	7fa20306 	svcvc	0x00a20306
    2508:	2f230501 	svccs	0x00230501
    250c:	022f0105 	eoreq	r0, pc, #1073741825	; 0x40000001
    2510:	01010006 	tsteq	r1, r6
    2514:	0000009e 	muleq	r0, lr, r0
    2518:	005a0003 	subseq	r0, sl, r3
    251c:	01020000 	mrseq	r0, (UNDEF: 2)
    2520:	000d0efb 	strdeq	r0, [sp], -fp
    2524:	01010101 	tsteq	r1, r1, lsl #2
    2528:	01000000 	mrseq	r0, (UNDEF: 0)
    252c:	2e010000 	cdpcs	0, 0, cr0, cr1, cr0, {0}
    2530:	62696c2f 	rsbvs	r6, r9, #12032	; 0x2f00
    2534:	552f0063 	strpl	r0, [pc, #-99]!	; 24d9 <__code_start__-0x5b27>
    2538:	73726573 	cmnvc	r2, #482344960	; 0x1cc00000
    253c:	6c696d2f 	stclvs	13, cr6, [r9], #-188	; 0xffffff44
    2540:	532f7365 			; <UNDEFINED> instruction: 0x532f7365
    2544:	6372756f 	cmnvs	r2, #465567744	; 0x1bc00000
    2548:	73632f65 	cmnvc	r3, #404	; 0x194
    254c:	6c303432 	cfldrsvs	mvf3, [r0], #-200	; 0xffffff38
    2550:	696c2f78 	stmdbvs	ip!, {r3, r4, r5, r6, r8, r9, sl, fp, sp}^
    2554:	2f697062 	svccs	0x00697062
    2558:	6c636e69 	stclvs	14, cr6, [r3], #-420	; 0xfffffe5c
    255c:	00656475 	rsbeq	r6, r5, r5, ror r4
    2560:	74757000 	ldrbtvc	r7, [r5], #-0
    2564:	72616863 	rsbvc	r6, r1, #6488064	; 0x630000
    2568:	0100632e 	tsteq	r0, lr, lsr #6
    256c:	70720000 	rsbsvc	r0, r2, r0
    2570:	00682e69 	rsbeq	r2, r8, r9, ror #28
    2574:	00000002 	andeq	r0, r0, r2
    2578:	05002405 	streq	r2, [r0, #-1029]	; 0xfffffbfb
    257c:	00a08802 	adceq	r8, r0, r2, lsl #16
    2580:	26051400 	strcs	r1, [r5], -r0, lsl #8
    2584:	06240501 	strteq	r0, [r4], -r1, lsl #10
    2588:	26052e01 	strcs	r2, [r5], -r1, lsl #28
    258c:	0634052e 	ldrteq	r0, [r4], -lr, lsr #10
    2590:	0601052e 	streq	r0, [r1], -lr, lsr #10
    2594:	061b0501 	ldreq	r0, [fp], -r1, lsl #10
    2598:	1305054f 	movwne	r0, #21839	; 0x554f
    259c:	01061105 	tsteq	r6, r5, lsl #2
    25a0:	05670105 	strbeq	r0, [r7, #-261]!	; 0xfffffefb
    25a4:	05670623 	strbeq	r0, [r7, #-1571]!	; 0xfffff9dd
    25a8:	11051305 	tstne	r5, r5, lsl #6
    25ac:	01050106 	tsteq	r5, r6, lsl #2
    25b0:	0004024b 	andeq	r0, r4, fp, asr #4
    25b4:	00e20101 	rsceq	r0, r2, r1, lsl #2
    25b8:	00030000 	andeq	r0, r3, r0
    25bc:	00000059 	andeq	r0, r0, r9, asr r0
    25c0:	0efb0102 	cdpeq	1, 15, cr0, cr11, cr2, {0}
    25c4:	0101000d 	tsteq	r1, sp
    25c8:	00000101 	andeq	r0, r0, r1, lsl #2
    25cc:	00000100 	andeq	r0, r0, r0, lsl #2
    25d0:	6c2f2e01 	stcvs	14, cr2, [pc], #-4	; 25d4 <__code_start__-0x5a2c>
    25d4:	00636269 	rsbeq	r6, r3, r9, ror #4
    25d8:	6573552f 	ldrbvs	r5, [r3, #-1327]!	; 0xfffffad1
    25dc:	6d2f7372 	stcvs	3, cr7, [pc, #-456]!	; 241c <__code_start__-0x5be4>
    25e0:	73656c69 	cmnvc	r5, #26880	; 0x6900
    25e4:	756f532f 	strbvc	r5, [pc, #-815]!	; 22bd <__code_start__-0x5d43>
    25e8:	2f656372 	svccs	0x00656372
    25ec:	34327363 	ldrtcc	r7, [r2], #-867	; 0xfffffc9d
    25f0:	2f786c30 	svccs	0x00786c30
    25f4:	7062696c 	rsbvc	r6, r2, ip, ror #18
    25f8:	6e692f69 	cdpvs	15, 6, cr2, cr9, cr9, {3}
    25fc:	64756c63 	ldrbtvs	r6, [r5], #-3171	; 0xfffff39d
    2600:	73000065 	movwvc	r0, #101	; 0x65
    2604:	61637274 	smcvs	14116	; 0x3724
    2608:	00632e74 	rsbeq	r2, r3, r4, ror lr
    260c:	72000001 	andvc	r0, r0, #1, 0
    2610:	682e6970 	stmdavs	lr!, {r4, r5, r6, r8, fp, sp, lr}
    2614:	00000200 	andeq	r0, r0, r0, lsl #4
    2618:	002c0500 	eoreq	r0, ip, r0, lsl #10
    261c:	a0c40205 	sbcge	r0, r4, r5, lsl #4
    2620:	05150000 	ldreq	r0, [r5, #-0]
    2624:	05131305 	ldreq	r1, [r3, #-773]	; 0xfffffcfb
    2628:	0511060b 	ldreq	r0, [r1, #-1547]	; 0xfffff9f5
    262c:	04020005 	streq	r0, [r2], #-5
    2630:	00300601 	eorseq	r0, r0, r1, lsl #12
    2634:	15010402 	strne	r0, [r1, #-1026]	; 0xfffffbfe
    2638:	02000905 	andeq	r0, r0, #81920	; 0x14000
    263c:	05130104 	ldreq	r0, [r3, #-260]	; 0xfffffefc
    2640:	0402000b 	streq	r0, [r2], #-11
    2644:	05052f01 	streq	r2, [r5, #-3841]	; 0xfffff0ff
    2648:	01040200 	mrseq	r0, R12_usr
    264c:	02000106 	andeq	r0, r0, #-2147483647	; 0x80000001
    2650:	062e0104 	strteq	r0, [lr], -r4, lsl #2
    2654:	0608054e 	streq	r0, [r8], -lr, asr #10
    2658:	00050501 	andeq	r0, r5, r1, lsl #10
    265c:	06010402 	streq	r0, [r1], -r2, lsl #8
    2660:	0009052f 	andeq	r0, r9, pc, lsr #10
    2664:	13010402 	movwne	r0, #5122	; 0x1402
    2668:	02000b05 	andeq	r0, r0, #5120	; 0x1400
    266c:	01060104 	tsteq	r6, r4, lsl #2
    2670:	02000905 	andeq	r0, r0, #81920	; 0x14000
    2674:	2f060104 	svccs	0x00060104
    2678:	02000505 	andeq	r0, r0, #20971520	; 0x1400000
    267c:	13060104 	movwne	r0, #24836	; 0x6104
    2680:	02000f05 	andeq	r0, r0, #5, 30
    2684:	052d0104 	streq	r0, [sp, #-260]!	; 0xfffffefc
    2688:	0402000d 	streq	r0, [r2], #-13
    268c:	052f0601 	streq	r0, [pc, #-1537]!	; 2093 <__code_start__-0x5f6d>
    2690:	04020005 	streq	r0, [r2], #-5
    2694:	02010601 	andeq	r0, r1, #1048576	; 0x100000
    2698:	01010004 	tsteq	r1, r4
    269c:	000000b2 	strheq	r0, [r0], -r2
    26a0:	00590003 	subseq	r0, r9, r3
    26a4:	01020000 	mrseq	r0, (UNDEF: 2)
    26a8:	000d0efb 	strdeq	r0, [sp], -fp
    26ac:	01010101 	tsteq	r1, r1, lsl #2
    26b0:	01000000 	mrseq	r0, (UNDEF: 0)
    26b4:	2e010000 	cdpcs	0, 0, cr0, cr1, cr0, {0}
    26b8:	62696c2f 	rsbvs	r6, r9, #12032	; 0x2f00
    26bc:	552f0063 	strpl	r0, [pc, #-99]!	; 2661 <__code_start__-0x599f>
    26c0:	73726573 	cmnvc	r2, #482344960	; 0x1cc00000
    26c4:	6c696d2f 	stclvs	13, cr6, [r9], #-188	; 0xffffff44
    26c8:	532f7365 			; <UNDEFINED> instruction: 0x532f7365
    26cc:	6372756f 	cmnvs	r2, #465567744	; 0x1bc00000
    26d0:	73632f65 	cmnvc	r3, #404	; 0x194
    26d4:	6c303432 	cfldrsvs	mvf3, [r0], #-200	; 0xffffff38
    26d8:	696c2f78 	stmdbvs	ip!, {r3, r4, r5, r6, r8, r9, sl, fp, sp}^
    26dc:	2f697062 	svccs	0x00697062
    26e0:	6c636e69 	stclvs	14, cr6, [r3], #-420	; 0xfffffe5c
    26e4:	00656475 	rsbeq	r6, r5, r5, ror r4
    26e8:	72747300 	rsbsvc	r7, r4, #0, 6
    26ec:	2e706d63 	cdpcs	13, 7, cr6, cr0, cr3, {3}
    26f0:	00010063 	andeq	r0, r1, r3, rrx
    26f4:	69707200 	ldmdbvs	r0!, {r9, ip, sp, lr}^
    26f8:	0200682e 	andeq	r6, r0, #3014656	; 0x2e0000
    26fc:	05000000 	streq	r0, [r0, #-0]
    2700:	0205002a 	andeq	r0, r5, #42, 0	; 0x2a
    2704:	0000a0f0 	strdeq	sl, [r0], -r0
    2708:	13090514 	movwne	r0, #38164	; 0x9514
    270c:	01061005 	tsteq	r6, r5
    2710:	2e060f05 	cdpcs	15, 0, cr0, cr6, cr5, {0}
    2714:	82061005 	andhi	r1, r6, #5, 0
    2718:	052e0f05 	streq	r0, [lr, #-3845]!	; 0xfffff0fb
    271c:	04020011 	streq	r0, [r2], #-17	; 0xffffffef
    2720:	054b0601 	strbeq	r0, [fp, #-1537]	; 0xfffff9ff
    2724:	0402001c 	streq	r0, [r2], #-28	; 0xffffffe4
    2728:	052d0601 	streq	r0, [sp, #-1537]!	; 0xfffff9ff
    272c:	0402000f 	streq	r0, [r2], #-15
    2730:	052e0601 	streq	r0, [lr, #-1537]!	; 0xfffff9ff
    2734:	04020013 	streq	r0, [r2], #-19	; 0xffffffed
    2738:	05010601 	streq	r0, [r1, #-1537]	; 0xfffff9ff
    273c:	054c0609 	strbeq	r0, [ip, #-1545]	; 0xfffff9f7
    2740:	4a130601 	bmi	4c3f4c <__bss_end__+0x4b9154>
    2744:	2d060905 	vstrcs.16	s0, [r6, #-10]	; <UNPREDICTABLE>
    2748:	13060105 	movwne	r0, #24837	; 0x6105
    274c:	0002022e 	andeq	r0, r2, lr, lsr #4
    2750:	009d0101 	addseq	r0, sp, r1, lsl #2
    2754:	00030000 	andeq	r0, r3, r0
    2758:	00000059 	andeq	r0, r0, r9, asr r0
    275c:	0efb0102 	cdpeq	1, 15, cr0, cr11, cr2, {0}
    2760:	0101000d 	tsteq	r1, sp
    2764:	00000101 	andeq	r0, r0, r1, lsl #2
    2768:	00000100 	andeq	r0, r0, r0, lsl #2
    276c:	6c2f2e01 	stcvs	14, cr2, [pc], #-4	; 2770 <__code_start__-0x5890>
    2770:	00636269 	rsbeq	r6, r3, r9, ror #4
    2774:	6573552f 	ldrbvs	r5, [r3, #-1327]!	; 0xfffffad1
    2778:	6d2f7372 	stcvs	3, cr7, [pc, #-456]!	; 25b8 <__code_start__-0x5a48>
    277c:	73656c69 	cmnvc	r5, #26880	; 0x6900
    2780:	756f532f 	strbvc	r5, [pc, #-815]!	; 2459 <__code_start__-0x5ba7>
    2784:	2f656372 	svccs	0x00656372
    2788:	34327363 	ldrtcc	r7, [r2], #-867	; 0xfffffc9d
    278c:	2f786c30 	svccs	0x00786c30
    2790:	7062696c 	rsbvc	r6, r2, ip, ror #18
    2794:	6e692f69 	cdpvs	15, 6, cr2, cr9, cr9, {3}
    2798:	64756c63 	ldrbtvs	r6, [r5], #-3171	; 0xfffff39d
    279c:	73000065 	movwvc	r0, #101	; 0x65
    27a0:	70637274 	rsbvc	r7, r3, r4, ror r2
    27a4:	00632e79 	rsbeq	r2, r3, r9, ror lr
    27a8:	72000001 	andvc	r0, r0, #1, 0
    27ac:	682e6970 	stmdavs	lr!, {r4, r5, r6, r8, fp, sp, lr}
    27b0:	00000200 	andeq	r0, r0, r0, lsl #4
    27b4:	002a0500 	eoreq	r0, sl, r0, lsl #10
    27b8:	a1340205 	teqge	r4, r5, lsl #4
    27bc:	05140000 	ldreq	r0, [r4, #-0]
    27c0:	05131305 	ldreq	r1, [r3, #-773]	; 0xfffffcfb
    27c4:	04020022 	streq	r0, [r2], #-34	; 0xffffffde
    27c8:	0b052e01 	bleq	14dfd4 <__bss_end__+0x1431dc>
    27cc:	01040200 	mrseq	r0, R12_usr
    27d0:	00150501 	andseq	r0, r5, r1, lsl #10
    27d4:	06010402 	streq	r0, [r1], -r2, lsl #8
    27d8:	000b0501 	andeq	r0, fp, r1, lsl #10
    27dc:	2e010402 	cdpcs	4, 0, cr0, cr1, cr2, {0}
    27e0:	02001305 	andeq	r1, r0, #335544320	; 0x14000000
    27e4:	052e0104 	streq	r0, [lr, #-260]!	; 0xfffffefc
    27e8:	0402000b 	streq	r0, [r2], #-11
    27ec:	04022e01 	streq	r2, [r2], #-3585	; 0xfffff1ff
    27f0:	fd010100 	stc2	1, cr0, [r1, #-0]
    27f4:	03000000 	movweq	r0, #0
    27f8:	0000bf00 	andeq	fp, r0, r0, lsl #30
    27fc:	fb010200 	blx	43006 <__bss_end__+0x3820e>
    2800:	01000d0e 	tsteq	r0, lr, lsl #26
    2804:	00010101 	andeq	r0, r1, r1, lsl #2
    2808:	00010000 	andeq	r0, r1, r0
    280c:	2f2e0100 	svccs	0x002e0100
    2810:	6362696c 	cmnvs	r2, #108, 18	; 0x1b0000
    2814:	73552f00 	cmpvc	r5, #0, 30
    2818:	2f737265 	svccs	0x00737265
    281c:	656c696d 	strbvs	r6, [ip, #-2413]!	; 0xfffff693
    2820:	6f532f73 	svcvs	0x00532f73
    2824:	65637275 	strbvs	r7, [r3, #-629]!	; 0xfffffd8b
    2828:	3273632f 	rsbscc	r6, r3, #-1140850688	; 0xbc000000
    282c:	786c3034 	stmdavc	ip!, {r2, r4, r5, ip, sp}^
    2830:	62696c2f 	rsbvs	r6, r9, #12032	; 0x2f00
    2834:	692f6970 	stmdbvs	pc!, {r4, r5, r6, r8, fp, sp, lr}	; <UNPREDICTABLE>
    2838:	756c636e 	strbvc	r6, [ip, #-878]!	; 0xfffffc92
    283c:	2f006564 	svccs	0x00006564
    2840:	2f74706f 	svccs	0x0074706f
    2844:	656d6f68 	strbvs	r6, [sp, #-3944]!	; 0xfffff098
    2848:	77657262 	strbvc	r7, [r5, -r2, ror #4]!
    284c:	6c65432f 	stclvs	3, cr4, [r5], #-188	; 0xffffff44
    2850:	2f72616c 	svccs	0x0072616c
    2854:	2d6d7261 	sfmcs	f7, 2, [sp, #-388]!	; 0xfffffe7c
    2858:	656e6f6e 	strbvs	r6, [lr, #-3950]!	; 0xfffff092
    285c:	6261652d 	rsbvs	r6, r1, #188743680	; 0xb400000
    2860:	2f392d69 	svccs	0x00392d69
    2864:	30322d39 	eorscc	r2, r2, r9, lsr sp
    2868:	34713931 	ldrbtcc	r3, [r1], #-2353	; 0xfffff6cf
    286c:	3173632d 	cmncc	r3, sp, lsr #6
    2870:	2f653730 	svccs	0x00653730
    2874:	2f62696c 	svccs	0x0062696c
    2878:	2f636367 	svccs	0x00636367
    287c:	2d6d7261 	sfmcs	f7, 2, [sp, #-388]!	; 0xfffffe7c
    2880:	656e6f6e 	strbvs	r6, [lr, #-3950]!	; 0xfffff092
    2884:	6261652d 	rsbvs	r6, r1, #188743680	; 0xb400000
    2888:	2e392f69 	cdpcs	15, 3, cr2, cr9, cr9, {3}
    288c:	2f312e32 	svccs	0x00312e32
    2890:	6c636e69 	stclvs	14, cr6, [r3], #-420	; 0xfffffe5c
    2894:	00656475 	rsbeq	r6, r5, r5, ror r4
    2898:	72747300 	rsbsvc	r7, r4, #0, 6
    289c:	706d636e 	rsbvc	r6, sp, lr, ror #6
    28a0:	0100632e 	tsteq	r0, lr, lsr #6
    28a4:	70720000 	rsbsvc	r0, r2, r0
    28a8:	00682e69 	rsbeq	r2, r8, r9, ror #28
    28ac:	73000002 	movwvc	r0, #2
    28b0:	65646474 	strbvs	r6, [r4, #-1140]!	; 0xfffffb8c
    28b4:	00682e66 	rsbeq	r2, r8, r6, ror #28
    28b8:	00000003 	andeq	r0, r0, r3
    28bc:	05003905 	streq	r3, [r0, #-2309]	; 0xfffff6fb
    28c0:	00a14c02 	adceq	r4, r1, r2, lsl #24
    28c4:	05051500 	streq	r1, [r5, #-1280]	; 0xfffffb00
    28c8:	0a051313 	beq	14751c <__bss_end__+0x13c724>
    28cc:	0c052e06 	stceq	14, cr2, [r5], {6}
    28d0:	2e13052f 	cfmul64cs	mvdx0, mvdx3, mvdx15
    28d4:	052e0b05 	streq	r0, [lr, #-2821]!	; 0xfffff4fb
    28d8:	054a0609 	strbeq	r0, [sl, #-1545]	; 0xfffff9f7
    28dc:	0106110a 	tsteq	r6, sl, lsl #2
    28e0:	054e0c05 	strbeq	r0, [lr, #-3077]	; 0xfffff3fb
    28e4:	0d052f01 	stceq	15, cr2, [r5, #-4]
    28e8:	1b052b06 	blne	14d508 <__bss_end__+0x142710>
    28ec:	022e0106 	eoreq	r0, lr, #-2147483647	; 0x80000001
    28f0:	01010002 	tsteq	r1, r2
    28f4:	0000008a 	andeq	r0, r0, sl, lsl #1
    28f8:	006e0003 	rsbeq	r0, lr, r3
    28fc:	01020000 	mrseq	r0, (UNDEF: 2)
    2900:	000d0efb 	strdeq	r0, [sp], -fp
    2904:	01010101 	tsteq	r1, r1, lsl #2
    2908:	01000000 	mrseq	r0, (UNDEF: 0)
    290c:	2e010000 	cdpcs	0, 0, cr0, cr1, cr0, {0}
    2910:	6174732f 	cmnvs	r4, pc, lsr #6
    2914:	732d6666 			; <UNDEFINED> instruction: 0x732d6666
    2918:	2f006372 	svccs	0x00006372
    291c:	72657355 	rsbvc	r7, r5, #1409286145	; 0x54000001
    2920:	696d2f73 	stmdbvs	sp!, {r0, r1, r4, r5, r6, r8, r9, sl, fp, sp}^
    2924:	2f73656c 	svccs	0x0073656c
    2928:	72756f53 	rsbsvc	r6, r5, #332	; 0x14c
    292c:	632f6563 			; <UNDEFINED> instruction: 0x632f6563
    2930:	30343273 	eorscc	r3, r4, r3, ror r2
    2934:	6c2f786c 	stcvs	8, cr7, [pc], #-432	; 278c <__code_start__-0x5874>
    2938:	69706269 	ldmdbvs	r0!, {r0, r3, r5, r6, r9, sp, lr}^
    293c:	636e692f 	cmnvs	lr, #770048	; 0xbc000
    2940:	6564756c 	strbvs	r7, [r4, #-1388]!	; 0xfffffa94
    2944:	65640000 	strbvs	r0, [r4, #-0]!
    2948:	6c756166 	ldfvse	f6, [r5], #-408	; 0xfffffe68
    294c:	65722d74 	ldrbvs	r2, [r2, #-3444]!	; 0xfffff28c
    2950:	746f6f62 	strbtvc	r6, [pc], #-3938	; 2958 <__code_start__-0x56a8>
    2954:	6c61632d 	stclvs	3, cr6, [r1], #-180	; 0xffffff4c
    2958:	74756f6c 	ldrbtvc	r6, [r5], #-3948	; 0xfffff094
    295c:	0100632e 	tsteq	r0, lr, lsr #6
    2960:	70720000 	rsbsvc	r0, r2, r0
    2964:	00682e69 	rsbeq	r2, r8, r9, ror #28
    2968:	00000002 	andeq	r0, r0, r2
    296c:	05001b05 	streq	r1, [r0, #-2821]	; 0xfffff4fb
    2970:	00a17c02 	adceq	r7, r1, r2, lsl #24
    2974:	1c051400 	cfstrsne	mvf1, [r5], {-0}
    2978:	06010501 	streq	r0, [r1], -r1, lsl #10
    297c:	00020201 	andeq	r0, r2, r1, lsl #4
    2980:	Address 0x0000000000002980 is out of bounds.


Disassembly of section .debug_str:

00000000 <.debug_str>:
   0:	7478656e 	ldrbtvc	r6, [r8], #-1390	; 0xfffffa92
   4:	63727300 	cmnvs	r2, #0, 6
   8:	636f6c5f 	cmnvs	pc, #24320	; 0x5f00
   c:	006b6d5f 	rsbeq	r6, fp, pc, asr sp
  10:	656e696c 	strbvs	r6, [lr, #-2412]!	; 0xfffff694
  14:	6e006f6e 	cdpvs	15, 0, cr6, cr0, cr14, {3}
  18:	616d746f 	cmnvs	sp, pc, ror #8
  1c:	63006e69 	movwvs	r6, #3689	; 0xe69
  20:	6b636568 	blvs	18d95c8 <__bss_end__+0x18ce7d0>
  24:	5f6f6e5f 	svcpl	0x006f6e5f
  28:	6b61656c 	blvs	18595e0 <__bss_end__+0x184e7e8>
  2c:	6c696600 	stclvs	6, cr6, [r9], #-0
  30:	6e750065 	cdpvs	0, 7, cr0, cr5, cr5, {3}
  34:	6e676973 			; <UNDEFINED> instruction: 0x6e676973
  38:	63206465 			; <UNDEFINED> instruction: 0x63206465
  3c:	00726168 	rsbseq	r6, r2, r8, ror #2
  40:	61656c63 	cmnvs	r5, r3, ror #24
  44:	65725f6e 	ldrbvs	r5, [r2, #-3950]!	; 0xfffff092
  48:	746f6f62 	strbtvc	r6, [pc], #-3938	; 50 <__code_start__-0x7fb0>
  4c:	6f687300 	svcvs	0x00687300
  50:	75207472 	strvc	r7, [r0, #-1138]!	; 0xfffffb8e
  54:	6769736e 	strbvs	r7, [r9, -lr, ror #6]!
  58:	2064656e 	rsbcs	r6, r4, lr, ror #10
  5c:	00746e69 	rsbseq	r6, r4, r9, ror #28
  60:	736d656d 	cmnvc	sp, #457179136	; 0x1b400000
  64:	66007465 	strvs	r7, [r0], -r5, ror #8
  68:	00636e75 	rsbeq	r6, r3, r5, ror lr
  6c:	55465f5f 	strbpl	r5, [r6, #-3935]	; 0xfffff0a1
  70:	4954434e 	ldmdbmi	r4, {r1, r2, r3, r6, r8, r9, lr}^
  74:	5f5f4e4f 	svcpl	0x005f4e4f
  78:	616b6300 	cmnvs	fp, r0, lsl #6
  7c:	636f6c6c 	cmnvs	pc, #108, 24	; 0x6c00
  80:	73657400 	cmnvc	r5, #0, 8
  84:	6f6c0074 	svcvs	0x006c0074
  88:	6c20676e 	stcvs	7, cr6, [r0], #-440	; 0xfffffe48
  8c:	20676e6f 	rsbcs	r6, r7, pc, ror #28
  90:	69736e75 	ldmdbvs	r3!, {r0, r2, r4, r5, r6, r9, sl, fp, sp, lr}^
  94:	64656e67 	strbtvs	r6, [r5], #-3687	; 0xfffff199
  98:	746e6920 	strbtvc	r6, [lr], #-2336	; 0xfffff6e0
  9c:	73657400 	cmnvc	r5, #0, 8
  a0:	702f7374 	eorvc	r7, pc, r4, ror r3	; <UNPREDICTABLE>
  a4:	32747261 	rsbscc	r7, r4, #268435462	; 0x10000006
  a8:	7365742d 	cmnvc	r5, #754974720	; 0x2d000000
  ac:	632e3474 			; <UNDEFINED> instruction: 0x632e3474
  b0:	6e6f6c00 	cdpvs	12, 6, cr6, cr15, cr0, {0}
  b4:	6f6c2067 	svcvs	0x006c2067
  b8:	6920676e 	stmdbvs	r0!, {r1, r2, r3, r5, r6, r8, r9, sl, sp, lr}
  bc:	2f00746e 	svccs	0x0000746e
  c0:	72657355 	rsbvc	r7, r5, #1409286145	; 0x54000001
  c4:	696d2f73 	stmdbvs	sp!, {r0, r1, r4, r5, r6, r8, r9, sl, fp, sp}^
  c8:	2f73656c 	svccs	0x0073656c
  cc:	72756f53 	rsbsvc	r6, r5, #332	; 0x14c
  d0:	632f6563 			; <UNDEFINED> instruction: 0x632f6563
  d4:	30343273 	eorscc	r3, r4, r3, ror r2
  d8:	6c2f786c 	stcvs	8, cr7, [pc], #-432	; ffffff30 <__bss_end__+0xffff5138>
  dc:	2f736261 	svccs	0x00736261
  e0:	616d2d35 	cmnvs	sp, r5, lsr sp
  e4:	636f6c6c 	cmnvs	pc, #108, 24	; 0x6c00
  e8:	2f63672b 	svccs	0x0063672b
  ec:	65646f63 	strbvs	r6, [r4, #-3939]!	; 0xfffff09d
  f0:	6f687300 	svcvs	0x00687300
  f4:	69207472 	stmdbvs	r0!, {r1, r4, r5, r6, sl, ip, sp, lr}
  f8:	7300746e 	movwvc	r7, #1134	; 0x46e
  fc:	6c5f6372 	mrrcvs	3, 7, r6, pc, cr2	; <UNPREDICTABLE>
 100:	745f636f 	ldrbvc	r6, [pc], #-879	; 108 <__code_start__-0x7ef8>
 104:	69707200 	ldmdbvs	r0!, {r9, ip, sp, lr}^
 108:	7475705f 	ldrbtvc	r7, [r5], #-95	; 0xffffffa1
 10c:	72616863 	rsbvc	r6, r1, #6488064	; 0x630000
 110:	554e4700 	strbpl	r4, [lr, #-1792]	; 0xfffff900
 114:	39394320 	ldmdbcc	r9!, {r5, r8, r9, lr}
 118:	322e3920 	eorcc	r3, lr, #32, 18	; 0x80000
 11c:	3220312e 	eorcc	r3, r0, #-2147483637	; 0x8000000b
 120:	31393130 	teqcc	r9, r0, lsr r1
 124:	20353230 	eorscs	r3, r5, r0, lsr r2
 128:	6c657228 	sfmvs	f7, 2, [r5], #-160	; 0xffffff60
 12c:	65736165 	ldrbvs	r6, [r3, #-357]!	; 0xfffffe9b
 130:	415b2029 	cmpmi	fp, r9, lsr #32
 134:	612f4d52 			; <UNDEFINED> instruction: 0x612f4d52
 138:	392d6d72 	pushcc	{r1, r4, r5, r6, r8, sl, fp, sp, lr}
 13c:	6172622d 	cmnvs	r2, sp, lsr #4
 140:	2068636e 	rsbcs	r6, r8, lr, ror #6
 144:	69766572 	ldmdbvs	r6!, {r1, r4, r5, r6, r8, sl, sp, lr}^
 148:	6e6f6973 			; <UNDEFINED> instruction: 0x6e6f6973
 14c:	37373220 	ldrcc	r3, [r7, -r0, lsr #4]!
 150:	5d393935 			; <UNDEFINED> instruction: 0x5d393935
 154:	636d2d20 	cmnvs	sp, #32, 26	; 0x800
 158:	613d7570 	teqvs	sp, r0, ror r5
 15c:	31316d72 	teqcc	r1, r2, ror sp
 160:	7a6a3637 	bvc	1a8da44 <__bss_end__+0x1a82c4c>
 164:	20732d66 	rsbscs	r2, r3, r6, ror #26
 168:	75746d2d 	ldrbvc	r6, [r4, #-3373]!	; 0xfffff2d3
 16c:	613d656e 	teqvs	sp, lr, ror #10
 170:	31316d72 	teqcc	r1, r2, ror sp
 174:	7a6a3637 	bvc	1a8da58 <__bss_end__+0x1a82c60>
 178:	20732d66 	rsbscs	r2, r3, r6, ror #26
 17c:	6c666d2d 	stclvs	13, cr6, [r6], #-180	; 0xffffff4c
 180:	2d74616f 	ldfcse	f6, [r4, #-444]!	; 0xfffffe44
 184:	3d696261 	sfmcc	f6, 2, [r9, #-388]!	; 0xfffffe7c
 188:	74666f73 	strbtvc	r6, [r6], #-3955	; 0xfffff08d
 18c:	616d2d20 	cmnvs	sp, r0, lsr #26
 190:	2d206d72 	stccs	13, cr6, [r0, #-456]!	; 0xfffffe38
 194:	6372616d 	cmnvs	r2, #1073741851	; 0x4000001b
 198:	72613d68 	rsbvc	r3, r1, #104, 26	; 0x1a00
 19c:	6b36766d 	blvs	d9db58 <__bss_end__+0xd92d60>
 1a0:	672d207a 			; <UNDEFINED> instruction: 0x672d207a
 1a4:	20626467 	rsbcs	r6, r2, r7, ror #8
 1a8:	20674f2d 	rsbcs	r4, r7, sp, lsr #30
 1ac:	6474732d 	ldrbtvs	r7, [r4], #-813	; 0xfffffcd3
 1b0:	756e673d 	strbvc	r6, [lr, #-1853]!	; 0xfffff8c3
 1b4:	2d203939 			; <UNDEFINED> instruction: 0x2d203939
 1b8:	65726666 	ldrbvs	r6, [r2, #-1638]!	; 0xfffff99a
 1bc:	61747365 	cmnvs	r4, r5, ror #6
 1c0:	6e69646e 	cdpvs	4, 6, cr6, cr9, cr14, {3}
 1c4:	72700067 	rsbsvc	r0, r0, #103, 0	; 0x67
 1c8:	63007665 	movwvs	r7, #1637	; 0x665
 1cc:	74705f6b 	ldrbtvc	r5, [r0], #-3947	; 0xfffff095
 1d0:	6e695f72 	mcrvs	15, 3, r5, cr9, cr2, {3}
 1d4:	6f6c625f 	svcvs	0x006c625f
 1d8:	68006b63 	stmdavs	r0, {r0, r1, r5, r6, r8, r9, fp, sp, lr}
 1dc:	745f7264 	ldrbvc	r7, [pc], #-612	; 1e4 <__code_start__-0x7e1c>
 1e0:	45524600 	ldrbmi	r4, [r2, #-1536]	; 0xfffffa00
 1e4:	72004445 	andvc	r4, r0, #1157627904	; 0x45000000
 1e8:	5f736665 	svcpl	0x00736665
 1ec:	6464696d 	strbtvs	r6, [r4], #-2413	; 0xfffff693
 1f0:	6b00656c 	blvs	197a8 <__bss_end__+0xe9b0>
 1f4:	72665f72 	rsbvc	r5, r6, #456	; 0x1c8
 1f8:	63006565 	movwvs	r6, #1381	; 0x565
 1fc:	69665f6b 	stmdbvs	r6!, {r0, r1, r3, r5, r6, r8, r9, sl, fp, ip, lr}^
 200:	5f747372 	svcpl	0x00747372
 204:	00726468 	rsbseq	r6, r2, r8, ror #8
 208:	72666b63 	rsbvc	r6, r6, #101376	; 0x18c00
 20c:	61006565 	tstvs	r0, r5, ror #10
 210:	636f6c6c 	cmnvs	pc, #108, 24	; 0x6c00
 214:	73696c5f 	cmnvc	r9, #24320	; 0x5f00
 218:	696c0074 	stmdbvs	ip!, {r2, r4, r5, r6}^
 21c:	725f7473 	subsvc	r7, pc, #1929379840	; 0x73000000
 220:	766f6d65 	strbtvc	r6, [pc], -r5, ror #26
 224:	6b630065 	blvs	18c03c0 <__bss_end__+0x18b55c8>
 228:	7264685f 	rsbvc	r6, r4, #6225920	; 0x5f0000
 22c:	6c6c6100 	stfvse	f6, [ip], #-0
 230:	6c5f636f 	mrrcvs	3, 6, r6, pc, cr15	; <UNPREDICTABLE>
 234:	7300636f 	movwvc	r6, #879	; 0x36f
 238:	65746174 	ldrbvs	r6, [r4, #-372]!	; 0xfffffe8c
 23c:	66657200 	strbtvs	r7, [r5], -r0, lsl #4
 240:	74735f73 	ldrbtvc	r5, [r3], #-3955	; 0xfffff08d
 244:	00747261 	rsbseq	r7, r4, r1, ror #4
 248:	746e6975 	strbtvc	r6, [lr], #-2421	; 0xfffff68b
 24c:	745f3233 	ldrbvc	r3, [pc], #-563	; 254 <__code_start__-0x7dac>
 250:	6e697500 	cdpvs	5, 6, cr7, cr9, cr0, {0}
 254:	5f363174 	svcpl	0x00363174
 258:	6b630074 	blvs	18c0430 <__bss_end__+0x18b5638>
 25c:	7274705f 	rsbsvc	r7, r4, #95, 0	; 0x5f
 260:	5f73695f 	svcpl	0x0073695f
 264:	6f6c6c61 	svcvs	0x006c6c61
 268:	00646563 	rsbeq	r6, r4, r3, ror #10
 26c:	6e5f6b63 	vnmlavs.f64	d22, d15, d19
 270:	5f747865 	svcpl	0x00747865
 274:	00726468 	rsbseq	r6, r2, r8, ror #8
 278:	6c616b63 			; <UNDEFINED> instruction: 0x6c616b63
 27c:	2e636f6c 	cdpcs	15, 6, cr6, cr3, cr12, {3}
 280:	4c410063 	mcrrmi	0, 6, r0, r1, cr3
 284:	45434f4c 	strbmi	r4, [r3, #-3916]	; 0xfffff0b4
 288:	626e0044 	rsbvs	r0, lr, #68, 0	; 0x44
 28c:	73657479 	cmnvc	r5, #2030043136	; 0x79000000
 290:	6c6c615f 	stfvse	f6, [ip], #-380	; 0xfffffe84
 294:	6300636f 	movwvs	r6, #879	; 0x36f
 298:	64685f6b 	strbtvs	r5, [r8], #-3947	; 0xfffff095
 29c:	74735f72 	ldrbtvc	r5, [r3], #-3954	; 0xfffff08e
 2a0:	00747261 	rsbseq	r7, r4, r1, ror #4
 2a4:	685f6b63 	ldmdavs	pc, {r0, r1, r5, r6, r8, r9, fp, sp, lr}^	; <UNPREDICTABLE>
 2a8:	655f7264 	ldrbvs	r7, [pc, #-612]	; 4c <__code_start__-0x7fb4>
 2ac:	6300646e 	movwvs	r6, #1134	; 0x46e
 2b0:	626e5f6b 	rsbvs	r5, lr, #428	; 0x1ac
 2b4:	73657479 	cmnvc	r5, #2030043136	; 0x79000000
 2b8:	5f726b00 	svcpl	0x00726b00
 2bc:	6c6c616d 	stfvse	f6, [ip], #-436	; 0xfffffe4c
 2c0:	6800636f 	stmdavs	r0, {r0, r1, r2, r3, r5, r6, r8, r9, sp, lr}
 2c4:	65646165 	strbvs	r6, [r4, #-357]!	; 0xfffffe9b
 2c8:	72700072 	rsbsvc	r0, r0, #114, 0	; 0x72
 2cc:	00707665 	rsbseq	r7, r0, r5, ror #12
 2d0:	67696c61 	strbvs	r6, [r9, -r1, ror #24]!
 2d4:	7266006e 	rsbvc	r0, r6, #110, 0	; 0x6e
 2d8:	00706565 	rsbseq	r6, r0, r5, ror #10
 2dc:	696e756e 	stmdbvs	lr!, {r1, r2, r3, r5, r6, r8, sl, ip, sp, lr}^
 2e0:	6b007374 	blvs	1d0b8 <__bss_end__+0x122c0>
 2e4:	616d2d72 	smcvs	53970	; 0xd2d2
 2e8:	636f6c6c 	cmnvs	pc, #108, 24	; 0x6c00
 2ec:	6400632e 	strvs	r6, [r0], #-814	; 0xfffffcd2
 2f0:	6c62756f 	cfstr64vs	mvdx7, [r2], #-444	; 0xfffffe44
 2f4:	61620065 	cmnvs	r2, r5, rrx
 2f8:	73006573 	movwvc	r6, #1395	; 0x573
 2fc:	006b7262 	rsbeq	r7, fp, r2, ror #4
 300:	65726f6d 	ldrbvs	r6, [r2, #-3949]!	; 0xfffff093
 304:	65726f63 	ldrbvs	r6, [r2, #-3939]!	; 0xfffff09d
 308:	7a697300 	bvc	1a5cf10 <__bss_end__+0x1a52118>
 30c:	65480065 	strbvs	r0, [r8, #-101]	; 0xffffff9b
 310:	72656461 	rsbvc	r6, r5, #1627389952	; 0x61000000
 314:	61747300 	cmnvs	r4, r0, lsl #6
 318:	745f6b63 	ldrbvc	r6, [pc], #-2915	; 320 <__code_start__-0x7ce0>
 31c:	6d00706f 	stcvs	0, cr7, [r0, #-444]	; 0xfffffe44
 320:	5f6b7261 	svcpl	0x006b7261
 324:	006c6c61 	rsbeq	r6, ip, r1, ror #24
 328:	6c706d69 	ldclvs	13, cr6, [r0], #-420	; 0xfffffe5c
 32c:	6e656d65 	cdpvs	13, 6, cr6, cr5, cr5, {3}
 330:	68745f74 	ldmdavs	r4!, {r2, r4, r5, r6, r8, r9, sl, fp, ip, lr}^
 334:	5f007369 	svcpl	0x00007369
 338:	7373625f 	cmnvc	r3, #-268435451	; 0xf0000005
 33c:	6174735f 	cmnvs	r4, pc, asr r3
 340:	5f5f7472 	svcpl	0x005f7472
 344:	6c626e00 	stclvs	14, cr6, [r2], #-0
 348:	736b636f 	cmnvc	fp, #-1140850687	; 0xbc000001
 34c:	696e6900 	stmdbvs	lr!, {r8, fp, sp, lr}^
 350:	00705f74 	rsbseq	r5, r0, r4, ror pc
 354:	7479626e 	ldrbtvc	r6, [r9], #-622	; 0xfffffd92
 358:	665f7365 	ldrbvs	r7, [pc], -r5, ror #6
 35c:	64656572 	strbtvs	r6, [r5], #-1394	; 0xfffffa8e
 360:	646c6f00 	strbtvs	r6, [ip], #-3840	; 0xfffff100
 364:	72616d5f 	rsbvc	r6, r1, #6080	; 0x17c0
 368:	6b63006b 	blvs	18c051c <__bss_end__+0x18b5724>
 36c:	6e69665f 	mcrvs	6, 3, r6, cr9, cr15, {2}
 370:	656c5f64 	strbvs	r5, [ip, #-3940]!	; 0xfffff09c
 374:	00736b61 	rsbseq	r6, r3, r1, ror #22
 378:	6279616d 	rsbsvs	r6, r9, #1073741851	; 0x4000001b
 37c:	72655f65 	rsbvc	r5, r5, #404	; 0x194
 380:	73726f72 	cmnvc	r2, #456	; 0x1c8
 384:	5f6b6300 	svcpl	0x006b6300
 388:	64006367 	strvs	r6, [r0], #-871	; 0xfffffc99
 38c:	5f706d75 	svcpl	0x00706d75
 390:	73676572 	cmnvc	r7, #478150656	; 0x1c800000
 394:	656c6e00 	strbvs	r6, [ip, #-3584]!	; 0xfffff200
 398:	00736b61 	rsbseq	r6, r3, r1, ror #22
 39c:	72636e69 	rsbvc	r6, r3, #1680	; 0x690
 3a0:	6e656d65 	cdpvs	13, 6, cr6, cr5, cr5, {3}
 3a4:	5f5f0074 	svcpl	0x005f0074
 3a8:	61746164 	cmnvs	r4, r4, ror #2
 3ac:	646e655f 	strbtvs	r6, [lr], #-1375	; 0xfffffaa1
 3b0:	69005f5f 	stmdbvs	r0, {r0, r1, r2, r3, r4, r6, r8, r9, sl, fp, ip, lr}
 3b4:	74705f73 	ldrbtvc	r5, [r0], #-3955	; 0xfffff08d
 3b8:	666e0072 			; <UNDEFINED> instruction: 0x666e0072
 3bc:	64656572 	strbtvs	r6, [r5], #-1394	; 0xfffffa8e
 3c0:	5f6e6900 	svcpl	0x006e6900
 3c4:	70616568 	rsbvc	r6, r1, r8, ror #10
 3c8:	656e6f00 	strbvs	r6, [lr, #-3840]!	; 0xfffff100
 3cc:	6300626d 	movwvs	r6, #621	; 0x26d
 3d0:	63672d6b 	cmnvs	r7, #6848	; 0x1ac0
 3d4:	6300632e 	movwvs	r6, #814	; 0x32e
 3d8:	6b636568 	blvs	18d9980 <__bss_end__+0x18ceb88>
 3dc:	6f68735f 	svcvs	0x0068735f
 3e0:	5f646c75 	svcpl	0x00646c75
 3e4:	6b61656c 	blvs	185999c <__bss_end__+0x184eba4>
 3e8:	625f5f00 	subsvs	r5, pc, #0, 30
 3ec:	655f7373 	ldrbvs	r7, [pc, #-883]	; 81 <__code_start__-0x7f7f>
 3f0:	5f5f646e 	svcpl	0x005f646e
 3f4:	616d6b00 	cmnvs	sp, r0, lsl #22
 3f8:	636f6c6c 	cmnvs	pc, #108, 24	; 0x6c00
 3fc:	616d6b00 	cmnvs	sp, r0, lsl #22
 400:	636f6c6c 	cmnvs	pc, #108, 24	; 0x6c00
 404:	696e695f 	stmdbvs	lr!, {r0, r1, r2, r3, r4, r6, r8, fp, sp, lr}^
 408:	65735f74 	ldrbvs	r5, [r3, #-3956]!	; 0xfffff08c
 40c:	74735f74 	ldrbtvc	r5, [r3], #-3956	; 0xfffff08c
 410:	00747261 	rsbseq	r7, r4, r1, ror #4
 414:	65657773 	strbvs	r7, [r5, #-1907]!	; 0xfffff88d
 418:	656c5f70 	strbvs	r5, [ip, #-3952]!	; 0xfffff090
 41c:	5f006b61 	svcpl	0x00006b61
 420:	7461645f 	strbtvc	r6, [r1], #-1119	; 0xfffffba1
 424:	74735f61 	ldrbtvc	r5, [r3], #-3937	; 0xfffff09f
 428:	5f747261 	svcpl	0x00747261
 42c:	7773005f 			; <UNDEFINED> instruction: 0x7773005f
 430:	5f706565 	svcpl	0x00706565
 434:	65657266 	strbvs	r7, [r5, #-614]!	; 0xfffffd9a
 438:	72617700 	rsbvc	r7, r1, #0, 14
 43c:	6f6e5f6e 	svcvs	0x006e5f6e
 440:	6174735f 	cmnvs	r4, pc, asr r3
 444:	725f7472 	subsvc	r7, pc, #1912602624	; 0x72000000
 448:	705f6665 	subsvc	r6, pc, r5, ror #12
 44c:	7a697300 	bvc	1a5d054 <__bss_end__+0x1a5225c>
 450:	00745f65 	rsbseq	r5, r4, r5, ror #30
 454:	696c2f2e 	stmdbvs	ip!, {r1, r2, r3, r5, r8, r9, sl, fp, sp}^
 458:	6d2f6362 	stcvs	3, cr6, [pc, #-392]!	; 2d8 <__code_start__-0x7d28>
 45c:	65736d65 	ldrbvs	r6, [r3, #-3429]!	; 0xfffff29b
 460:	00632e74 	rsbeq	r2, r3, r4, ror lr
 464:	20554e47 	subscs	r4, r5, r7, asr #28
 468:	20393943 	eorscs	r3, r9, r3, asr #18
 46c:	2e322e39 	mrccs	14, 1, r2, cr2, cr9, {1}
 470:	30322031 	eorscc	r2, r2, r1, lsr r0
 474:	30313931 	eorscc	r3, r1, r1, lsr r9
 478:	28203532 	stmdacs	r0!, {r1, r4, r5, r8, sl, ip, sp}
 47c:	656c6572 	strbvs	r6, [ip, #-1394]!	; 0xfffffa8e
 480:	29657361 	stmdbcs	r5!, {r0, r5, r6, r8, r9, ip, sp, lr}^
 484:	52415b20 	subpl	r5, r1, #32, 22	; 0x8000
 488:	72612f4d 	rsbvc	r2, r1, #308	; 0x134
 48c:	2d392d6d 	ldccs	13, cr2, [r9, #-436]!	; 0xfffffe4c
 490:	6e617262 	cdpvs	2, 6, cr7, cr1, cr2, {3}
 494:	72206863 	eorvc	r6, r0, #6488064	; 0x630000
 498:	73697665 	cmnvc	r9, #105906176	; 0x6500000
 49c:	206e6f69 	rsbcs	r6, lr, r9, ror #30
 4a0:	35373732 	ldrcc	r3, [r7, #-1842]!	; 0xfffff8ce
 4a4:	205d3939 	subscs	r3, sp, r9, lsr r9
 4a8:	70636d2d 	rsbvc	r6, r3, sp, lsr #26
 4ac:	72613d75 	rsbvc	r3, r1, #7488	; 0x1d40
 4b0:	3731316d 	ldrcc	r3, [r1, -sp, ror #2]!
 4b4:	667a6a36 			; <UNDEFINED> instruction: 0x667a6a36
 4b8:	2d20732d 	stccs	3, cr7, [r0, #-180]!	; 0xffffff4c
 4bc:	6e75746d 	cdpvs	4, 7, cr7, cr5, cr13, {3}
 4c0:	72613d65 	rsbvc	r3, r1, #6464	; 0x1940
 4c4:	3731316d 	ldrcc	r3, [r1, -sp, ror #2]!
 4c8:	667a6a36 			; <UNDEFINED> instruction: 0x667a6a36
 4cc:	2d20732d 	stccs	3, cr7, [r0, #-180]!	; 0xffffff4c
 4d0:	6f6c666d 	svcvs	0x006c666d
 4d4:	612d7461 			; <UNDEFINED> instruction: 0x612d7461
 4d8:	733d6962 	teqvc	sp, #1605632	; 0x188000
 4dc:	2074666f 	rsbscs	r6, r4, pc, ror #12
 4e0:	72616d2d 	rsbvc	r6, r1, #2880	; 0xb40
 4e4:	6d2d206d 	stcvs	0, cr2, [sp, #-436]!	; 0xfffffe4c
 4e8:	68637261 	stmdavs	r3!, {r0, r5, r6, r9, ip, sp, lr}^
 4ec:	6d72613d 	ldfvse	f6, [r2, #-244]!	; 0xffffff0c
 4f0:	7a6b3676 	bvc	1acded0 <__bss_end__+0x1ac30d8>
 4f4:	67672d20 	strbvs	r2, [r7, -r0, lsr #26]!
 4f8:	2d206264 	sfmcs	f6, 4, [r0, #-400]!	; 0xfffffe70
 4fc:	7361664f 	cmnvc	r1, #82837504	; 0x4f00000
 500:	732d2074 			; <UNDEFINED> instruction: 0x732d2074
 504:	673d6474 			; <UNDEFINED> instruction: 0x673d6474
 508:	3939756e 	ldmdbcc	r9!, {r1, r2, r3, r5, r6, r8, sl, ip, sp, lr}
 50c:	66662d20 	strbtvs	r2, [r6], -r0, lsr #26
 510:	73656572 	cmnvc	r5, #478150656	; 0x1c800000
 514:	646e6174 	strbtvs	r6, [lr], #-372	; 0xfffffe8c
 518:	00676e69 	rsbeq	r6, r7, r9, ror #28
 51c:	6573552f 	ldrbvs	r5, [r3, #-1327]!	; 0xfffffad1
 520:	6d2f7372 	stcvs	3, cr7, [pc, #-456]!	; 360 <__code_start__-0x7ca0>
 524:	73656c69 	cmnvc	r5, #26880	; 0x6900
 528:	756f532f 	strbvc	r5, [pc, #-815]!	; 201 <__code_start__-0x7dff>
 52c:	2f656372 	svccs	0x00656372
 530:	34327363 	ldrtcc	r7, [r2], #-867	; 0xfffffc9d
 534:	2f786c30 	svccs	0x00786c30
 538:	7062696c 	rsbvc	r6, r2, ip, ror #18
 53c:	72610069 	rsbvc	r0, r1, #105, 0	; 0x69
 540:	76007367 	strvc	r7, [r0], -r7, ror #6
 544:	72705f61 	rsbsvc	r5, r0, #388	; 0x184
 548:	6b746e69 	blvs	1d1bef4 <__bss_end__+0x1d110fc>
 54c:	675f5f00 	ldrbvs	r5, [pc, -r0, lsl #30]
 550:	5f63756e 	svcpl	0x0063756e
 554:	6c5f6176 	ldfvse	f6, [pc], {118}	; 0x76
 558:	00747369 	rsbseq	r7, r4, r9, ror #6
 55c:	70615f5f 	rsbvc	r5, r1, pc, asr pc
 560:	6c2f2e00 	stcvs	14, cr2, [pc], #-0	; 568 <__code_start__-0x7a98>
 564:	2f636269 	svccs	0x00636269
 568:	6e697270 	mcrvs	2, 3, r7, cr9, cr0, {3}
 56c:	632e6b74 			; <UNDEFINED> instruction: 0x632e6b74
 570:	765f5f00 	ldrbvc	r5, [pc], -r0, lsl #30
 574:	696c5f61 	stmdbvs	ip!, {r0, r5, r6, r8, r9, sl, fp, ip, lr}^
 578:	69007473 	stmdbvs	r0, {r0, r1, r4, r5, r6, sl, ip, sp, lr}
 57c:	7265746e 	rsbvc	r7, r5, #1845493760	; 0x6e000000
 580:	5f6c616e 	svcpl	0x006c616e
 584:	6b747570 	blvs	1d1db4c <__bss_end__+0x1d12d54>
 588:	6c2f2e00 	stcvs	14, cr2, [pc], #-0	; 590 <__code_start__-0x7a70>
 58c:	2f636269 	svccs	0x00636269
 590:	6b747570 	blvs	1d1db58 <__bss_end__+0x1d12d60>
 594:	6900632e 	stmdbvs	r0, {r1, r2, r3, r5, r8, r9, sp, lr}
 598:	67696473 			; <UNDEFINED> instruction: 0x67696473
 59c:	75007469 	strvc	r7, [r0, #-1129]	; 0xfffffb97
 5a0:	36746e69 	ldrbtcc	r6, [r4], -r9, ror #28
 5a4:	00745f34 	rsbseq	r5, r4, r4, lsr pc
 5a8:	696c2f2e 	stmdbvs	ip!, {r1, r2, r3, r5, r8, r9, sl, fp, sp}^
 5ac:	762f6362 	strtvc	r6, [pc], -r2, ror #6
 5b0:	72702d61 	rsbsvc	r2, r0, #6208	; 0x1840
 5b4:	6b746e69 	blvs	1d1bf60 <__bss_end__+0x1d11168>
 5b8:	5f00632e 	svcpl	0x0000632e
 5bc:	646f635f 	strbtvs	r6, [pc], #-863	; 5c4 <__code_start__-0x7a3c>
 5c0:	74735f65 	ldrbtvc	r5, [r3], #-3941	; 0xfffff09b
 5c4:	5f747261 	svcpl	0x00747261
 5c8:	6977005f 	ldmdbvs	r7!, {r0, r1, r2, r3, r4, r6}^
 5cc:	00687464 	rsbeq	r7, r8, r4, ror #8
 5d0:	63747570 	cmnvs	r4, #112, 10	; 0x1c000000
 5d4:	0070665f 	rsbseq	r6, r0, pc, asr r6
 5d8:	65685f5f 	strbvs	r5, [r8, #-3935]!	; 0xfffff0a1
 5dc:	735f7061 	cmpvc	pc, #97, 0	; 0x61
 5e0:	74726174 	ldrbtvc	r6, [r2], #-372	; 0xfffffe8c
 5e4:	72005f5f 	andvc	r5, r0, #380	; 0x17c
 5e8:	735f6970 	cmpvc	pc, #112, 18	; 0x1c0000
 5ec:	6f5f7465 	svcvs	0x005f7465
 5f0:	75707475 	ldrbvc	r7, [r0, #-1141]!	; 0xfffffb8b
 5f4:	6d660074 	stclvs	0, cr0, [r6, #-464]!	; 0xfffffe30
 5f8:	74735f74 	ldrbtvc	r5, [r3], #-3956	; 0xfffff08c
 5fc:	00747261 	rsbseq	r7, r4, r1, ror #4
 600:	63727473 	cmnvs	r2, #1929379840	; 0x73000000
 604:	73007461 	movwvc	r7, #1121	; 0x461
 608:	70637274 	rsbvc	r7, r3, r4, ror r2
 60c:	656e0079 	strbvs	r0, [lr, #-121]!	; 0xffffff87
 610:	00705f67 	rsbseq	r5, r0, r7, ror #30
 614:	6f635f5f 	svcvs	0x00635f5f
 618:	655f6564 	ldrbvs	r6, [pc, #-1380]	; bc <__code_start__-0x7f44>
 61c:	5f5f646e 	svcpl	0x005f646e
 620:	696d6500 	stmdbvs	sp!, {r8, sl, sp, lr}^
 624:	65720074 	ldrbvs	r0, [r2, #-116]!	; 0xffffff8c
 628:	73726576 	cmnvc	r2, #494927872	; 0x1d800000
 62c:	74730065 	ldrbtvc	r0, [r3], #-101	; 0xffffff9b
 630:	706d6372 	rsbvc	r6, sp, r2, ror r3
 634:	74757000 	ldrbtvc	r7, [r5], #-0
 638:	70665f73 	rsbvc	r5, r6, r3, ror pc
 63c:	705f5f00 	subsvc	r5, pc, r0, lsl #30
 640:	5f676f72 	svcpl	0x00676f72
 644:	5f646e65 	svcpl	0x00646e65
 648:	756e005f 	strbvc	r0, [lr, #-95]!	; 0xffffffa1
 64c:	7300316d 	movwvc	r3, #365	; 0x16d
 650:	636e7274 	cmnvs	lr, #116, 4	; 0x40000007
 654:	7300706d 	movwvc	r7, #109	; 0x6d
 658:	656e6769 	strbvs	r6, [lr, #-1897]!	; 0xfffff897
 65c:	00705f64 	rsbseq	r5, r0, r4, ror #30
 660:	5f697072 	svcpl	0x00697072
 664:	6f626572 	svcvs	0x00626572
 668:	6400746f 	strvs	r7, [r0], #-1135	; 0xfffffb91
 66c:	79616c65 	stmdbvc	r1!, {r0, r2, r5, r6, sl, fp, sp, lr}^
 670:	00736d5f 	rsbseq	r6, r3, pc, asr sp
 674:	74732f2e 	ldrbtvc	r2, [r3], #-3886	; 0xfffff0d2
 678:	2d666661 	stclcs	6, cr6, [r6, #-388]!	; 0xfffffe7c
 67c:	2f637273 	svccs	0x00637273
 680:	61656c63 	cmnvs	r5, r3, ror #24
 684:	65722d6e 	ldrbvs	r2, [r2, #-3438]!	; 0xfffff292
 688:	746f6f62 	strbtvc	r6, [pc], #-3938	; 690 <__code_start__-0x7970>
 68c:	7500632e 	strvc	r6, [r0, #-814]	; 0xfffffcd2
 690:	5f747261 	svcpl	0x00747261
 694:	73756c66 	cmnvc	r5, #26112	; 0x6600
 698:	78745f68 	ldmdavc	r4!, {r3, r5, r6, r8, r9, sl, fp, ip, lr}^
 69c:	73635f00 	cmnvc	r3, #0, 30
 6a0:	74726174 	ldrbtvc	r6, [r2], #-372	; 0xfffffe8c
 6a4:	73736200 	cmnvc	r3, #0, 4
 6a8:	646e655f 	strbtvs	r6, [lr], #-1375	; 0xfffffaa1
 6ac:	72617500 	rsbvc	r7, r1, #0, 10
 6b0:	6e695f74 	mcrvs	15, 3, r5, cr9, cr4, {3}
 6b4:	63007469 	movwvs	r7, #1129	; 0x469
 6b8:	6f747375 	svcvs	0x00747375
 6bc:	6f6c5f6d 	svcvs	0x006c5f6d
 6c0:	72656461 	rsbvc	r6, r5, #1627389952	; 0x61000000
 6c4:	732f2e00 			; <UNDEFINED> instruction: 0x732f2e00
 6c8:	66666174 			; <UNDEFINED> instruction: 0x66666174
 6cc:	6372732d 	cmnvs	r2, #-1275068416	; 0xb4000000
 6d0:	7473632f 	ldrbtvc	r6, [r3], #-815	; 0xfffffcd1
 6d4:	2e747261 	cdpcs	2, 7, cr7, cr4, cr1, {3}
 6d8:	2f2e0063 	svccs	0x002e0063
 6dc:	66617473 			; <UNDEFINED> instruction: 0x66617473
 6e0:	72732d66 	rsbsvc	r2, r3, #6528	; 0x1980
 6e4:	75632f63 	strbvc	r2, [r3, #-3939]!	; 0xfffff09d
 6e8:	6d6f7473 	cfstrdvs	mvd7, [pc, #-460]!	; 524 <__code_start__-0x7adc>
 6ec:	616f6c2d 	cmnvs	pc, sp, lsr #24
 6f0:	2e726564 	cdpcs	5, 7, cr6, cr2, cr4, {3}
 6f4:	65720063 	ldrbvs	r0, [r2, #-99]!	; 0xffffff9d
 6f8:	746f6f62 	strbtvc	r6, [pc], #-3938	; 700 <__code_start__-0x7900>
 6fc:	6c61635f 	stclvs	3, cr6, [r1], #-380	; 0xfffffe84
 700:	74756f6c 	ldrbtvc	r6, [r5], #-3948	; 0xfffff094
 704:	5f4d5000 	svcpl	0x004d5000
 708:	474f4457 	smlsldmi	r4, pc, r7, r4	; <UNPREDICTABLE>
 70c:	54555000 	ldrbpl	r5, [r5], #-0
 710:	73003233 	movwvc	r3, #563	; 0x233
 714:	755f7465 	ldrbvc	r7, [pc, #-1125]	; 2b7 <__code_start__-0x7d49>
 718:	5f726573 	svcpl	0x00726573
 71c:	6576656c 	ldrbvs	r6, [r6, #-1388]!	; 0xfffffa94
 720:	2f2e006c 	svccs	0x002e006c
 724:	66617473 			; <UNDEFINED> instruction: 0x66617473
 728:	72732d66 	rsbsvc	r2, r3, #6528	; 0x1980
 72c:	65722f63 	ldrbvs	r2, [r2, #-3939]!	; 0xfffff09d
 730:	746f6f62 	strbtvc	r6, [pc], #-3938	; 738 <__code_start__-0x78c8>
 734:	5000632e 	andpl	r6, r0, lr, lsr #6
 738:	41505f4d 	cmpmi	r0, sp, asr #30
 73c:	4f575353 	svcmi	0x00575353
 740:	61004452 	tstvs	r0, r2, asr r4
 744:	73755f74 	cmnvc	r5, #116, 30	; 0x1d0
 748:	6c5f7265 	lfmvs	f7, 2, [pc], {101}	; 0x65
 74c:	6c657665 	stclvs	6, cr7, [r5], #-404	; 0xfffffe6c
 750:	5f4d5000 	svcpl	0x004d5000
 754:	43545352 	cmpmi	r4, #1207959553	; 0x48000001
 758:	4352575f 	cmpmi	r2, #24903680	; 0x17c0000
 75c:	465f4746 	ldrbmi	r4, [pc], -r6, asr #14
 760:	5f4c4c55 	svcpl	0x004c4c55
 764:	45534552 	ldrbmi	r4, [r3, #-1362]	; 0xfffffaae
 768:	4d500054 	ldclmi	0, cr0, [r0, #-336]	; 0xfffffeb0
 76c:	5453525f 	ldrbpl	r5, [r3], #-607	; 0xfffffda1
 770:	70630043 	rsbvc	r0, r3, r3, asr #32
 774:	64007273 	strvs	r7, [r0], #-627	; 0xfffffd8d
 778:	625f7665 	subsvs	r7, pc, #105906176	; 0x6500000
 77c:	69727261 	ldmdbvs	r2!, {r0, r5, r6, r9, ip, sp, lr}^
 780:	64007265 	strvs	r7, [r0], #-613	; 0xfffffd9b
 784:	79616c65 	stmdbvc	r1!, {r0, r2, r5, r6, sl, fp, sp, lr}^
 788:	6365735f 	cmnvs	r5, #2080374785	; 0x7c000001
 78c:	732f2e00 			; <UNDEFINED> instruction: 0x732f2e00
 790:	66666174 			; <UNDEFINED> instruction: 0x66666174
 794:	6372732d 	cmnvs	r2, #-1275068416	; 0xb4000000
 798:	6d69742f 	cfstrdvs	mvd7, [r9, #-188]!	; 0xffffff44
 79c:	632e7265 			; <UNDEFINED> instruction: 0x632e7265
 7a0:	54454700 	strbpl	r4, [r5], #-1792	; 0xfffff900
 7a4:	74003233 	strvc	r3, [r0], #-563	; 0xfffffdcd
 7a8:	72656d69 	rsbvc	r6, r5, #6720	; 0x1a40
 7ac:	7465675f 	strbtvc	r6, [r5], #-1887	; 0xfffff8a1
 7b0:	6573755f 	ldrbvs	r7, [r3, #-1375]!	; 0xfffffaa1
 7b4:	65640063 	strbvs	r0, [r4, #-99]!	; 0xffffff9d
 7b8:	5f79616c 	svcpl	0x0079616c
 7bc:	74007375 	strvc	r7, [r0], #-885	; 0xfffffc8b
 7c0:	72656d69 	rsbvc	r6, r5, #6720	; 0x1a40
 7c4:	7465675f 	strbtvc	r6, [r5], #-1887	; 0xfffff8a1
 7c8:	6573755f 	ldrbvs	r7, [r3, #-1375]!	; 0xfffffaa1
 7cc:	61725f63 	cmnvs	r2, r3, ror #30
 7d0:	75700077 	ldrbvc	r0, [r0, #-119]!	; 0xffffff89
 7d4:	00323374 	eorseq	r3, r2, r4, ror r3
 7d8:	64756162 	ldrbtvs	r6, [r5], #-354	; 0xfffffe9e
 7dc:	6c61765f 	stclvs	6, cr7, [r1], #-380	; 0xfffffe84
 7e0:	61747300 	cmnvs	r4, r0, lsl #6
 7e4:	61750074 	cmnvs	r5, r4, ror r0
 7e8:	635f7472 	cmpvs	pc, #1912602624	; 0x72000000
 7ec:	675f6e61 	ldrbvs	r6, [pc, -r1, ror #28]
 7f0:	00637465 	rsbeq	r7, r3, r5, ror #8
 7f4:	4f495047 	svcmi	0x00495047
 7f8:	4e55465f 	mrcmi	6, 2, r4, cr5, cr15, {2}
 7fc:	554f5f43 	strbpl	r5, [pc, #-3907]	; fffff8c1 <__bss_end__+0xffff4ac9>
 800:	54555054 	ldrbpl	r5, [r5], #-84	; 0xffffffac
 804:	78756100 	ldmdavc	r5!, {r8, sp, lr}^
 808:	7265705f 	rsbvc	r7, r5, #95, 0	; 0x5f
 80c:	73687069 	cmnvc	r8, #105, 0	; 0x69
 810:	72617500 	rsbvc	r7, r1, #0, 10
 814:	00632e74 	rsbeq	r2, r3, r4, ror lr
 818:	74726175 	ldrbtvc	r6, [r2], #-373	; 0xfffffe8b
 81c:	6e61635f 	mcrvs	3, 3, r6, cr1, cr15, {2}
 820:	7475705f 	ldrbtvc	r7, [r5], #-95	; 0xffffffa1
 824:	61750063 	cmnvs	r5, r3, rrx
 828:	745f7472 	ldrbvc	r7, [pc], #-1138	; 830 <__code_start__-0x77d0>
 82c:	73695f78 	cmnvc	r9, #120, 30	; 0x1e0
 830:	706d655f 	rsbvc	r6, sp, pc, asr r5
 834:	47007974 	smlsdxmi	r0, r4, r9, r7
 838:	5f4f4950 	svcpl	0x004f4950
 83c:	434e5546 	movtmi	r5, #58694	; 0xe546
 840:	544c415f 	strbpl	r4, [ip], #-351	; 0xfffffea1
 844:	50470030 	subpl	r0, r7, r0, lsr r0
 848:	465f4f49 	ldrbmi	r4, [pc], -r9, asr #30
 84c:	5f434e55 	svcpl	0x00434e55
 850:	31544c41 	cmpcc	r4, r1, asr #24
 854:	49504700 	ldmdbmi	r0, {r8, r9, sl, lr}^
 858:	55465f4f 	strbpl	r5, [r6, #-3919]	; 0xfffff0b1
 85c:	415f434e 	cmpmi	pc, lr, asr #6
 860:	0032544c 	eorseq	r5, r2, ip, asr #8
 864:	4f495047 	svcmi	0x00495047
 868:	4e55465f 	mrcmi	6, 2, r4, cr5, cr15, {2}
 86c:	4c415f43 	mcrrmi	15, 4, r5, r1, cr3
 870:	47003354 	smlsdmi	r0, r4, r3, r3
 874:	5f4f4950 	svcpl	0x004f4950
 878:	434e5546 	movtmi	r5, #58694	; 0xe546
 87c:	544c415f 	strbpl	r4, [ip], #-351	; 0xfffffea1
 880:	682f0035 	stmdavs	pc!, {r0, r2, r4, r5}	; <UNPREDICTABLE>
 884:	2f656d6f 	svccs	0x00656d6f
 888:	6c676e65 	stclvs	14, cr6, [r7], #-404	; 0xfffffe6c
 88c:	632f7265 			; <UNDEFINED> instruction: 0x632f7265
 890:	7373616c 	cmnvc	r3, #27
 894:	3273632f 	rsbscc	r6, r3, #-1140850688	; 0xbc000000
 898:	786c3034 	stmdavc	ip!, {r2, r4, r5, ip, sp}^
 89c:	7332322d 	teqvc	r2, #-805306366	; 0xd0000002
 8a0:	6c2f7270 	sfmvs	f7, 4, [pc], #-448	; 6e8 <__code_start__-0x7918>
 8a4:	69706269 	ldmdbvs	r0!, {r0, r3, r5, r6, r9, sp, lr}^
 8a8:	6174732f 	cmnvs	r4, pc, lsr #6
 8ac:	702d6666 	eorvc	r6, sp, r6, ror #12
 8b0:	61766972 	cmnvs	r6, r2, ror r9
 8b4:	62006574 	andvs	r6, r0, #116, 10	; 0x1d000000
 8b8:	00647561 	rsbeq	r7, r4, r1, ror #10
 8bc:	5f787561 	svcpl	0x00787561
 8c0:	62616e65 	rsbvs	r6, r1, #1616	; 0x650
 8c4:	0073656c 	rsbseq	r6, r3, ip, ror #10
 8c8:	74726175 	ldrbtvc	r6, [r2], #-373	; 0xfffffe8b
 8cc:	7465675f 	strbtvc	r6, [r5], #-1887	; 0xfffff8a1
 8d0:	4e470063 	cdpmi	0, 4, cr0, cr7, cr3, {3}
 8d4:	39432055 	stmdbcc	r3, {r0, r2, r4, r6, sp}^
 8d8:	30312039 	eorscc	r2, r1, r9, lsr r0
 8dc:	312e332e 			; <UNDEFINED> instruction: 0x312e332e
 8e0:	32303220 	eorscc	r3, r0, #32, 4
 8e4:	32383031 	eorscc	r3, r8, #49, 0	; 0x31
 8e8:	72282034 	eorvc	r2, r8, #52, 0	; 0x34
 8ec:	61656c65 	cmnvs	r5, r5, ror #24
 8f0:	20296573 	eorcs	r6, r9, r3, ror r5
 8f4:	70636d2d 	rsbvc	r6, r3, sp, lsr #26
 8f8:	72613d75 	rsbvc	r3, r1, #7488	; 0x1d40
 8fc:	3731316d 	ldrcc	r3, [r1, -sp, ror #2]!
 900:	667a6a36 			; <UNDEFINED> instruction: 0x667a6a36
 904:	2d20732d 	stccs	3, cr7, [r0, #-180]!	; 0xffffff4c
 908:	6e75746d 	cdpvs	4, 7, cr7, cr5, cr13, {3}
 90c:	72613d65 	rsbvc	r3, r1, #6464	; 0x1940
 910:	3731316d 	ldrcc	r3, [r1, -sp, ror #2]!
 914:	667a6a36 			; <UNDEFINED> instruction: 0x667a6a36
 918:	2d20732d 	stccs	3, cr7, [r0, #-180]!	; 0xffffff4c
 91c:	6f6c666d 	svcvs	0x006c666d
 920:	612d7461 			; <UNDEFINED> instruction: 0x612d7461
 924:	733d6962 	teqvc	sp, #1605632	; 0x188000
 928:	2074666f 	rsbscs	r6, r4, pc, ror #12
 92c:	72616d2d 	rsbvc	r6, r1, #2880	; 0xb40
 930:	6d2d206d 	stcvs	0, cr2, [sp, #-436]!	; 0xfffffe4c
 934:	68637261 	stmdavs	r3!, {r0, r5, r6, r9, ip, sp, lr}^
 938:	6d72613d 	ldfvse	f6, [r2, #-244]!	; 0xffffff0c
 93c:	7a6b3676 	bvc	1ace31c <__bss_end__+0x1ac3524>
 940:	67672d20 	strbvs	r2, [r7, -r0, lsr #26]!
 944:	2d206264 	sfmcs	f6, 4, [r0, #-400]!	; 0xfffffe70
 948:	2d20674f 	stccs	7, cr6, [r0, #-316]!	; 0xfffffec4
 94c:	3d647473 	cfstrdcc	mvd7, [r4, #-460]!	; 0xfffffe34
 950:	39756e67 	ldmdbcc	r5!, {r0, r1, r2, r5, r6, r9, sl, fp, sp, lr}^
 954:	662d2039 			; <UNDEFINED> instruction: 0x662d2039
 958:	65657266 	strbvs	r7, [r5, #-614]!	; 0xfffffd9a
 95c:	6e617473 	mcrvs	4, 3, r7, cr1, cr3, {3}
 960:	676e6964 	strbvs	r6, [lr, -r4, ror #18]!
 964:	746e6300 	strbtvc	r6, [lr], #-768	; 0xfffffd00
 968:	6175006c 	cmnvs	r5, ip, rrx
 96c:	645f7472 	ldrbvs	r7, [pc], #-1138	; 974 <__code_start__-0x768c>
 970:	62617369 	rsbvs	r7, r1, #-1543503871	; 0xa4000001
 974:	7500656c 	strvc	r6, [r0, #-1388]	; 0xfffffa94
 978:	5f747261 	svcpl	0x00747261
 97c:	5f736168 	svcpl	0x00736168
 980:	61746164 	cmnvs	r4, r4, ror #2
 984:	49504700 	ldmdbmi	r0, {r8, r9, sl, lr}^
 988:	55465f4f 	strbpl	r5, [r6, #-3919]	; 0xfffff0b1
 98c:	415f434e 	cmpmi	pc, lr, asr #6
 990:	0034544c 	eorseq	r5, r4, ip, asr #8
 994:	695f726f 	ldmdbvs	pc, {r0, r1, r2, r3, r5, r6, r9, ip, sp, lr}^	; <UNPREDICTABLE>
 998:	0032336e 	eorseq	r3, r2, lr, ror #6
 99c:	61726373 	cmnvs	r2, r3, ror r3
 9a0:	00686374 	rsbeq	r6, r8, r4, ror r3
 9a4:	74726175 	ldrbtvc	r6, [r2], #-373	; 0xfffffe8b
 9a8:	646e6100 	strbtvs	r6, [lr], #-256	; 0xffffff00
 9ac:	336e695f 	cmncc	lr, #1556480	; 0x17c000
 9b0:	61750032 	cmnvs	r5, r2, lsr r0
 9b4:	705f7472 	subsvc	r7, pc, r2, ror r4	; <UNPREDICTABLE>
 9b8:	00637475 	rsbeq	r7, r3, r5, ror r4
 9bc:	4f495047 	svcmi	0x00495047
 9c0:	4e55465f 	mrcmi	6, 2, r4, cr5, cr15, {2}
 9c4:	4e495f43 	cdpmi	15, 4, cr5, cr9, cr3, {2}
 9c8:	00545550 	subseq	r5, r4, r0, asr r5
 9cc:	6f697067 	svcvs	0x00697067
 9d0:	7465735f 	strbtvc	r7, [r5], #-863	; 0xfffffca1
 9d4:	6e75665f 	mrcvs	6, 3, r6, cr5, cr15, {2}
 9d8:	6f697463 	svcvs	0x00697463
 9dc:	6567006e 	strbvs	r0, [r7, #-110]!	; 0xffffff92
 9e0:	00323374 	eorseq	r3, r2, r4, ror r3
 9e4:	6c616d6b 	stclvs	13, cr6, [r1], #-428	; 0xfffffe54
 9e8:	5f636f6c 	svcpl	0x00636f6c
 9ec:	70616568 	rsbvc	r6, r1, r8, ror #10
 9f0:	6174735f 	cmnvs	r4, pc, asr r3
 9f4:	6d007472 	cfstrsvs	mvf7, [r0, #-456]	; 0xfffffe38
 9f8:	6e5f7861 	cdpvs	8, 5, cr7, cr15, cr1, {3}
 9fc:	65747962 	ldrbvs	r7, [r4, #-2402]!	; 0xfffff69e
 a00:	615f0073 	cmpvs	pc, r3, ror r0	; <UNPREDICTABLE>
 a04:	00726464 	rsbseq	r6, r2, r4, ror #8
 a08:	70616568 	rsbvc	r6, r1, r8, ror #10
 a0c:	78616d5f 	stmdavc	r1!, {r0, r1, r2, r3, r4, r6, r8, sl, fp, sp, lr}^
 a10:	72666b00 	rsbvc	r6, r6, #0, 22
 a14:	615f6565 	cmpvs	pc, r5, ror #10
 a18:	72006c6c 	andvc	r6, r0, #108, 24	; 0x6c00
 a1c:	646e756f 	strbtvs	r7, [lr], #-1391	; 0xfffffa91
 a20:	6b007075 	blvs	1cbfc <__bss_end__+0x11e04>
 a24:	65657266 	strbvs	r7, [r5, #-614]!	; 0xfffffd9a
 a28:	706f705f 	rsbvc	r7, pc, pc, asr r0	; <UNPREDICTABLE>
 a2c:	696c6100 	stmdbvs	ip!, {r8, sp, lr}^
 a30:	656d6e67 	strbvs	r6, [sp, #-3687]!	; 0xfffff199
 a34:	6d00746e 	cfstrsvs	mvf7, [r0, #-440]	; 0xfffffe48
 a38:	755f7861 	ldrbvc	r7, [pc, #-2145]	; 1df <__code_start__-0x7e21>
 a3c:	4f003233 	svcmi	0x00003233
 a40:	424d656e 	submi	r6, sp, #461373440	; 0x1b800000
 a44:	616d6b00 	cmnvs	sp, r0, lsl #22
 a48:	636f6c6c 	cmnvs	pc, #108, 24	; 0x6c00
 a4c:	6165685f 	cmnvs	r5, pc, asr r8
 a50:	6e655f70 	mcrvs	15, 3, r5, cr5, cr0, {3}
 a54:	6d6b0064 	stclvs	0, cr0, [fp, #-400]!	; 0xfffffe70
 a58:	6f6c6c61 	svcvs	0x006c6c61
 a5c:	6f6e5f63 	svcvs	0x006e5f63
 a60:	72657a74 	rsbvc	r7, r5, #116, 20	; 0x74000
 a64:	7369006f 	cmnvc	r9, #111, 0	; 0x6f
 a68:	776f705f 			; <UNDEFINED> instruction: 0x776f705f
 a6c:	6d6b0032 	stclvs	0, cr0, [fp, #-200]!	; 0xffffff38
 a70:	6f6c6c61 	svcvs	0x006c6c61
 a74:	00632e63 	rsbeq	r2, r3, r3, ror #28
 a78:	6c616d6b 	stclvs	13, cr6, [r1], #-428	; 0xfffffe54
 a7c:	5f636f6c 	svcpl	0x00636f6c
 a80:	74696e69 	strbtvc	r6, [r9], #-3689	; 0xfffff197
 a84:	5f736900 	svcpl	0x00736900
 a88:	67696c61 	strbvs	r6, [r9, -r1, ror #24]!
 a8c:	0064656e 	rsbeq	r6, r4, lr, ror #10
 a90:	6c616d6b 	stclvs	13, cr6, [r1], #-428	; 0xfffffe54
 a94:	5f636f6c 	svcpl	0x00636f6c
 a98:	70616568 	rsbvc	r6, r1, r8, ror #10
 a9c:	7274705f 	rsbsvc	r7, r4, #95, 0	; 0x5f
 aa0:	69707200 	ldmdbvs	r0!, {r9, ip, sp, lr}^
 aa4:	7365725f 	cmnvc	r5, #-268435451	; 0xf0000005
 aa8:	705f7465 	subsvc	r7, pc, r5, ror #8
 aac:	00637475 	rsbeq	r7, r3, r5, ror r4
 ab0:	6c616d6b 	stclvs	13, cr6, [r1], #-428	; 0xfffffe54
 ab4:	5f636f6c 	svcpl	0x00636f6c
 ab8:	67696c61 	strbvs	r6, [r9, -r1, ror #24]!
 abc:	0064656e 	rsbeq	r6, r4, lr, ror #10
 ac0:	6f697067 	svcvs	0x00697067
 ac4:	726c635f 	rsbvc	r6, ip, #2080374785	; 0x7c000001
 ac8:	70670030 	rsbvc	r0, r7, r0, lsr r0
 acc:	735f6f69 	cmpvc	pc, #420	; 0x1a4
 ad0:	00307465 	eorseq	r7, r0, r5, ror #8
 ad4:	6f697067 	svcvs	0x00697067
 ad8:	6972775f 	ldmdbvs	r2!, {r0, r1, r2, r3, r4, r6, r8, r9, sl, ip, sp, lr}^
 adc:	44006574 	strmi	r6, [r0], #-1396	; 0xfffffa8c
 ae0:	565f5645 	ldrbpl	r5, [pc], -r5, asr #12
 ae4:	32334c41 	eorscc	r4, r3, #16640	; 0x4100
 ae8:	69706700 	ldmdbvs	r0!, {r8, r9, sl, sp, lr}^
 aec:	65725f6f 	ldrbvs	r5, [r2, #-3951]!	; 0xfffff091
 af0:	2e006461 	cdpcs	4, 0, cr6, cr0, cr1, {3}
 af4:	6372732f 	cmnvs	r2, #-1140850688	; 0xbc000000
 af8:	6970672f 	ldmdbvs	r0!, {r0, r1, r2, r3, r5, r8, r9, sl, sp, lr}^
 afc:	00632e6f 	rsbeq	r2, r3, pc, ror #28
 b00:	6f697067 	svcvs	0x00697067
 b04:	7465735f 	strbtvc	r7, [r5], #-863	; 0xfffffca1
 b08:	706e695f 	rsbvc	r6, lr, pc, asr r9
 b0c:	67007475 	smlsdxvs	r0, r5, r4, r7
 b10:	5f6f6970 	svcpl	0x006f6970
 b14:	5f746573 	svcpl	0x00746573
 b18:	0066666f 	rsbeq	r6, r6, pc, ror #12
 b1c:	6f697067 	svcvs	0x00697067
 b20:	7465735f 	strbtvc	r7, [r5], #-863	; 0xfffffca1
 b24:	74756f5f 	ldrbtvc	r6, [r5], #-3935	; 0xfffff0a1
 b28:	00747570 	rsbseq	r7, r4, r0, ror r5
 b2c:	6f697067 	svcvs	0x00697067
 b30:	6e75665f 	mrcvs	6, 3, r6, cr5, cr15, {2}
 b34:	00745f63 	rsbseq	r5, r4, r3, ror #30
 b38:	6f697067 	svcvs	0x00697067
 b3c:	76656c5f 			; <UNDEFINED> instruction: 0x76656c5f
 b40:	61620030 	cmnvs	r2, r0, lsr r0
 b44:	67006b6e 	strvs	r6, [r0, -lr, ror #22]
 b48:	5f6f6970 	svcpl	0x006f6970
 b4c:	5f746573 	svcpl	0x00746573
 b50:	69006e6f 	stmdbvs	r0, {r0, r1, r2, r3, r5, r6, r9, sl, fp, sp, lr}
 b54:	7265746e 	rsbvc	r7, r5, #1845493760	; 0x6e000000
 b58:	5f6c616e 	svcpl	0x006c616e
 b5c:	63747570 	cmnvs	r4, #112, 10	; 0x1c000000
 b60:	00726168 	rsbseq	r6, r2, r8, ror #2
 b64:	5f697072 	svcpl	0x00697072
 b68:	5f746573 	svcpl	0x00746573
 b6c:	63747570 	cmnvs	r4, #112, 10	; 0x1c000000
 b70:	6c2f2e00 	stcvs	14, cr2, [pc], #-0	; b78 <__code_start__-0x7488>
 b74:	2f636269 	svccs	0x00636269
 b78:	63747570 	cmnvs	r4, #112, 10	; 0x1c000000
 b7c:	2e726168 	rpwcssz	f6, f2, #0.0
 b80:	2f2e0063 	svccs	0x002e0063
 b84:	6362696c 	cmnvs	r2, #108, 18	; 0x1b0000
 b88:	7274732f 	rsbsvc	r7, r4, #-1140850688	; 0xbc000000
 b8c:	2e746163 	rpwcssz	f6, f4, f3
 b90:	65640063 	strbvs	r0, [r4, #-99]!	; 0xffffff9d
 b94:	2e007473 	mcrcs	4, 0, r7, cr0, cr3, {3}
 b98:	62696c2f 	rsbvs	r6, r9, #12032	; 0x2f00
 b9c:	74732f63 	ldrbtvc	r2, [r3], #-3939	; 0xfffff09d
 ba0:	706d6372 	rsbvc	r6, sp, r2, ror r3
 ba4:	2e00632e 	cdpcs	3, 0, cr6, cr0, cr14, {1}
 ba8:	62696c2f 	rsbvs	r6, r9, #12032	; 0x2f00
 bac:	74732f63 	ldrbtvc	r2, [r3], #-3939	; 0xfffff09d
 bb0:	79706372 	ldmdbvc	r0!, {r1, r4, r5, r6, r8, r9, sp, lr}^
 bb4:	2e00632e 	cdpcs	3, 0, cr6, cr0, cr14, {1}
 bb8:	62696c2f 	rsbvs	r6, r9, #12032	; 0x2f00
 bbc:	74732f63 	ldrbtvc	r2, [r3], #-3939	; 0xfffff09d
 bc0:	6d636e72 	stclvs	14, cr6, [r3, #-456]!	; 0xfffffe38
 bc4:	00632e70 	rsbeq	r2, r3, r0, ror lr
 bc8:	74732f2e 	ldrbtvc	r2, [r3], #-3886	; 0xfffff0d2
 bcc:	2d666661 	stclcs	6, cr6, [r6, #-388]!	; 0xfffffe7c
 bd0:	2f637273 	svccs	0x00637273
 bd4:	61666564 	cmnvs	r6, r4, ror #10
 bd8:	2d746c75 	ldclcs	12, cr6, [r4, #-468]!	; 0xfffffe2c
 bdc:	6f626572 	svcvs	0x00626572
 be0:	632d746f 			; <UNDEFINED> instruction: 0x632d746f
 be4:	6f6c6c61 	svcvs	0x006c6c61
 be8:	632e7475 			; <UNDEFINED> instruction: 0x632e7475
	...

Disassembly of section .debug_frame:

00000000 <.debug_frame>:
   0:	0000000c 	andeq	r0, r0, ip
   4:	ffffffff 			; <UNDEFINED> instruction: 0xffffffff
   8:	7c020001 	stcvc	0, cr0, [r2], {1}
   c:	000d0c0e 	andeq	r0, sp, lr, lsl #24
  10:	00000020 	andeq	r0, r0, r0, lsr #32
  14:	00000000 	andeq	r0, r0, r0
  18:	00008038 	andeq	r8, r0, r8, lsr r0
  1c:	000000c4 	andeq	r0, r0, r4, asr #1
  20:	84100e42 	ldrhi	r0, [r0], #-3650	; 0xfffff1be
  24:	86038504 	strhi	r8, [r3], -r4, lsl #10
  28:	42018e02 	andmi	r8, r1, #2, 28
  2c:	5402280e 	strpl	r2, [r2], #-2062	; 0xfffff7f2
  30:	0000100e 	andeq	r1, r0, lr
  34:	00000014 	andeq	r0, r0, r4, lsl r0
  38:	00000000 	andeq	r0, r0, r0
  3c:	000080fc 	strdeq	r8, [r0], -ip
  40:	00000028 	andeq	r0, r0, r8, lsr #32
  44:	84080e42 	strhi	r0, [r8], #-3650	; 0xfffff1be
  48:	00018e02 	andeq	r8, r1, r2, lsl #28
  4c:	0000000c 	andeq	r0, r0, ip
  50:	ffffffff 			; <UNDEFINED> instruction: 0xffffffff
  54:	7c020001 	stcvc	0, cr0, [r2], {1}
  58:	000d0c0e 	andeq	r0, sp, lr, lsl #24
  5c:	0000000c 	andeq	r0, r0, ip
  60:	0000004c 	andeq	r0, r0, ip, asr #32
  64:	00008124 	andeq	r8, r0, r4, lsr #2
  68:	00000010 	andeq	r0, r0, r0, lsl r0
  6c:	0000000c 	andeq	r0, r0, ip
  70:	0000004c 	andeq	r0, r0, ip, asr #32
  74:	00008134 	andeq	r8, r0, r4, lsr r1
  78:	00000010 	andeq	r0, r0, r0, lsl r0
  7c:	00000020 	andeq	r0, r0, r0, lsr #32
  80:	0000004c 	andeq	r0, r0, ip, asr #32
  84:	00008144 	andeq	r8, r0, r4, asr #2
  88:	000000a4 	andeq	r0, r0, r4, lsr #1
  8c:	840c0e42 	strhi	r0, [ip], #-3650	; 0xfffff1be
  90:	8e028503 	cfsh32hi	mvfx8, mvfx2, #3
  94:	180e4201 	stmdane	lr, {r0, r9, lr}
  98:	0c0e0a5e 			; <UNDEFINED> instruction: 0x0c0e0a5e
  9c:	00000b42 	andeq	r0, r0, r2, asr #22
  a0:	0000000c 	andeq	r0, r0, ip
  a4:	0000004c 	andeq	r0, r0, ip, asr #32
  a8:	000081e8 	andeq	r8, r0, r8, ror #3
  ac:	00000008 	andeq	r0, r0, r8
  b0:	00000014 	andeq	r0, r0, r4, lsl r0
  b4:	0000004c 	andeq	r0, r0, ip, asr #32
  b8:	000081f0 	strdeq	r8, [r0], -r0
  bc:	00000018 	andeq	r0, r0, r8, lsl r0
  c0:	84080e42 	strhi	r0, [r8], #-3650	; 0xfffff1be
  c4:	00018e02 	andeq	r8, r1, r2, lsl #28
  c8:	00000018 	andeq	r0, r0, r8, lsl r0
  cc:	0000004c 	andeq	r0, r0, ip, asr #32
  d0:	00008208 	andeq	r8, r0, r8, lsl #4
  d4:	00000030 	andeq	r0, r0, r0, lsr r0
  d8:	84100e42 	ldrhi	r0, [r0], #-3650	; 0xfffff1be
  dc:	86038504 	strhi	r8, [r3], -r4, lsl #10
  e0:	00018e02 	andeq	r8, r1, r2, lsl #28
  e4:	00000018 	andeq	r0, r0, r8, lsl r0
  e8:	0000004c 	andeq	r0, r0, ip, asr #32
  ec:	00008238 	andeq	r8, r0, r8, lsr r2
  f0:	00000058 	andeq	r0, r0, r8, asr r0
  f4:	84100e42 	ldrhi	r0, [r0], #-3650	; 0xfffff1be
  f8:	86038504 	strhi	r8, [r3], -r4, lsl #10
  fc:	00018e02 	andeq	r8, r1, r2, lsl #28
 100:	00000024 	andeq	r0, r0, r4, lsr #32
 104:	0000004c 	andeq	r0, r0, ip, asr #32
 108:	00008290 	muleq	r0, r0, r2
 10c:	000000ec 	andeq	r0, r0, ip, ror #1
 110:	84180e42 	ldrhi	r0, [r8], #-3650	; 0xfffff1be
 114:	86058506 	strhi	r8, [r5], -r6, lsl #10
 118:	88038704 	stmdahi	r3, {r2, r8, r9, sl, pc}
 11c:	42018e02 	andmi	r8, r1, #2, 28
 120:	0a7c300e 	beq	1f0c160 <__bss_end__+0x1f01368>
 124:	0b42180e 	bleq	1086164 <__bss_end__+0x107b36c>
 128:	00000020 	andeq	r0, r0, r0, lsr #32
 12c:	0000004c 	andeq	r0, r0, ip, asr #32
 130:	0000837c 	andeq	r8, r0, ip, ror r3
 134:	00000090 	muleq	r0, r0, r0
 138:	84100e42 	ldrhi	r0, [r0], #-3650	; 0xfffff1be
 13c:	86038504 	strhi	r8, [r3], -r4, lsl #10
 140:	42018e02 	andmi	r8, r1, #2, 28
 144:	0e7c200e 	cdpeq	0, 7, cr2, cr12, cr14, {0}
 148:	00000010 	andeq	r0, r0, r0, lsl r0
 14c:	0000000c 	andeq	r0, r0, ip
 150:	ffffffff 			; <UNDEFINED> instruction: 0xffffffff
 154:	7c020001 	stcvc	0, cr0, [r2], {1}
 158:	000d0c0e 	andeq	r0, sp, lr, lsl #24
 15c:	00000014 	andeq	r0, r0, r4, lsl r0
 160:	0000014c 	andeq	r0, r0, ip, asr #2
 164:	0000840c 	andeq	r8, r0, ip, lsl #8
 168:	000000bc 	strheq	r0, [r0], -ip
 16c:	8e040e42 	cdphi	14, 0, cr0, cr4, cr2, {2}
 170:	00000001 	andeq	r0, r0, r1
 174:	00000014 	andeq	r0, r0, r4, lsl r0
 178:	0000014c 	andeq	r0, r0, ip, asr #2
 17c:	000084c8 	andeq	r8, r0, r8, asr #9
 180:	00000044 	andeq	r0, r0, r4, asr #32
 184:	84080e42 	strhi	r0, [r8], #-3650	; 0xfffff1be
 188:	00018e02 	andeq	r8, r1, r2, lsl #28
 18c:	00000014 	andeq	r0, r0, r4, lsl r0
 190:	0000014c 	andeq	r0, r0, ip, asr #2
 194:	0000850c 	andeq	r8, r0, ip, lsl #10
 198:	000000ac 	andeq	r0, r0, ip, lsr #1
 19c:	84080e42 	strhi	r0, [r8], #-3650	; 0xfffff1be
 1a0:	00018e02 	andeq	r8, r1, r2, lsl #28
 1a4:	0000000c 	andeq	r0, r0, ip
 1a8:	ffffffff 			; <UNDEFINED> instruction: 0xffffffff
 1ac:	7c020001 	stcvc	0, cr0, [r2], {1}
 1b0:	000d0c0e 	andeq	r0, sp, lr, lsl #24
 1b4:	0000000c 	andeq	r0, r0, ip
 1b8:	000001a4 	andeq	r0, r0, r4, lsr #3
 1bc:	000085b8 			; <UNDEFINED> instruction: 0x000085b8
 1c0:	0000003c 	andeq	r0, r0, ip, lsr r0
 1c4:	00000014 	andeq	r0, r0, r4, lsl r0
 1c8:	000001a4 	andeq	r0, r0, r4, lsr #3
 1cc:	000085f4 	strdeq	r8, [r0], -r4
 1d0:	00000028 	andeq	r0, r0, r8, lsr #32
 1d4:	84080e42 	strhi	r0, [r8], #-3650	; 0xfffff1be
 1d8:	00018e02 	andeq	r8, r1, r2, lsl #28
 1dc:	00000024 	andeq	r0, r0, r4, lsr #32
 1e0:	000001a4 	andeq	r0, r0, r4, lsr #3
 1e4:	0000861c 	andeq	r8, r0, ip, lsl r6
 1e8:	00000168 	andeq	r0, r0, r8, ror #2
 1ec:	84180e42 	ldrhi	r0, [r8], #-3650	; 0xfffff1be
 1f0:	86058506 	strhi	r8, [r5], -r6, lsl #10
 1f4:	88038704 	stmdahi	r3, {r2, r8, r9, sl, pc}
 1f8:	42018e02 	andmi	r8, r1, #2, 28
 1fc:	9c02200e 	stcls	0, cr2, [r2], {14}
 200:	0000180e 	andeq	r1, r0, lr, lsl #16
 204:	00000018 	andeq	r0, r0, r8, lsl r0
 208:	000001a4 	andeq	r0, r0, r4, lsr #3
 20c:	00008784 	andeq	r8, r0, r4, lsl #15
 210:	000000a4 	andeq	r0, r0, r4, lsr #1
 214:	8e040e42 	cdphi	14, 0, cr0, cr4, cr2, {2}
 218:	480e4201 	stmdami	lr, {r0, r9, lr}
 21c:	040e4202 	streq	r4, [lr], #-514	; 0xfffffdfe
 220:	0000001c 	andeq	r0, r0, ip, lsl r0
 224:	000001a4 	andeq	r0, r0, r4, lsr #3
 228:	00008828 	andeq	r8, r0, r8, lsr #16
 22c:	00000110 	andeq	r0, r0, r0, lsl r1
 230:	84180e42 	ldrhi	r0, [r8], #-3650	; 0xfffff1be
 234:	86058506 	strhi	r8, [r5], -r6, lsl #10
 238:	88038704 	stmdahi	r3, {r2, r8, r9, sl, pc}
 23c:	00018e02 	andeq	r8, r1, r2, lsl #28
 240:	00000024 	andeq	r0, r0, r4, lsr #32
 244:	000001a4 	andeq	r0, r0, r4, lsr #3
 248:	00008938 	andeq	r8, r0, r8, lsr r9
 24c:	000000e8 	andeq	r0, r0, r8, ror #1
 250:	84180e42 	ldrhi	r0, [r8], #-3650	; 0xfffff1be
 254:	86058506 	strhi	r8, [r5], -r6, lsl #10
 258:	88038704 	stmdahi	r3, {r2, r8, r9, sl, pc}
 25c:	42018e02 	andmi	r8, r1, #2, 28
 260:	5e02280e 	cdppl	8, 0, cr2, cr2, cr14, {0}
 264:	0000180e 	andeq	r1, r0, lr, lsl #16
 268:	00000020 	andeq	r0, r0, r0, lsr #32
 26c:	000001a4 	andeq	r0, r0, r4, lsr #3
 270:	00008a20 	andeq	r8, r0, r0, lsr #20
 274:	000000a4 	andeq	r0, r0, r4, lsr #1
 278:	840c0e42 	strhi	r0, [ip], #-3650	; 0xfffff1be
 27c:	8e028503 	cfsh32hi	mvfx8, mvfx2, #3
 280:	180e4201 	stmdane	lr, {r0, r9, lr}
 284:	0c0e0a64 			; <UNDEFINED> instruction: 0x0c0e0a64
 288:	00000b42 	andeq	r0, r0, r2, asr #22
 28c:	00000014 	andeq	r0, r0, r4, lsl r0
 290:	000001a4 	andeq	r0, r0, r4, lsr #3
 294:	00008ac4 	andeq	r8, r0, r4, asr #21
 298:	0000000c 	andeq	r0, r0, ip
 29c:	84080e42 	strhi	r0, [r8], #-3650	; 0xfffff1be
 2a0:	00018e02 	andeq	r8, r1, r2, lsl #28
 2a4:	00000014 	andeq	r0, r0, r4, lsl r0
 2a8:	000001a4 	andeq	r0, r0, r4, lsr #3
 2ac:	00008ad0 	ldrdeq	r8, [r0], -r0
 2b0:	00000054 	andeq	r0, r0, r4, asr r0
 2b4:	84080e42 	strhi	r0, [r8], #-3650	; 0xfffff1be
 2b8:	00018e02 	andeq	r8, r1, r2, lsl #28
 2bc:	00000014 	andeq	r0, r0, r4, lsl r0
 2c0:	000001a4 	andeq	r0, r0, r4, lsr #3
 2c4:	00008b24 	andeq	r8, r0, r4, lsr #22
 2c8:	0000005c 	andeq	r0, r0, ip, asr r0
 2cc:	84080e42 	strhi	r0, [r8], #-3650	; 0xfffff1be
 2d0:	00018e02 	andeq	r8, r1, r2, lsl #28
 2d4:	00000014 	andeq	r0, r0, r4, lsl r0
 2d8:	000001a4 	andeq	r0, r0, r4, lsr #3
 2dc:	00008b80 	andeq	r8, r0, r0, lsl #23
 2e0:	00000010 	andeq	r0, r0, r0, lsl r0
 2e4:	84080e42 	strhi	r0, [r8], #-3650	; 0xfffff1be
 2e8:	00018e02 	andeq	r8, r1, r2, lsl #28
 2ec:	00000014 	andeq	r0, r0, r4, lsl r0
 2f0:	000001a4 	andeq	r0, r0, r4, lsr #3
 2f4:	00008b90 	muleq	r0, r0, fp
 2f8:	0000002c 	andeq	r0, r0, ip, lsr #32
 2fc:	84080e42 	strhi	r0, [r8], #-3650	; 0xfffff1be
 300:	00018e02 	andeq	r8, r1, r2, lsl #28
 304:	0000000c 	andeq	r0, r0, ip
 308:	ffffffff 			; <UNDEFINED> instruction: 0xffffffff
 30c:	7c020001 	stcvc	0, cr0, [r2], {1}
 310:	000d0c0e 	andeq	r0, sp, lr, lsl #24
 314:	00000014 	andeq	r0, r0, r4, lsl r0
 318:	00000304 	andeq	r0, r0, r4, lsl #6
 31c:	00008bc4 	andeq	r8, r0, r4, asr #23
 320:	00000078 	andeq	r0, r0, r8, ror r0
 324:	84080e42 	strhi	r0, [r8], #-3650	; 0xfffff1be
 328:	00018e02 	andeq	r8, r1, r2, lsl #28
 32c:	0000000c 	andeq	r0, r0, ip
 330:	ffffffff 			; <UNDEFINED> instruction: 0xffffffff
 334:	7c020001 	stcvc	0, cr0, [r2], {1}
 338:	000d0c0e 	andeq	r0, sp, lr, lsl #24
 33c:	00000034 	andeq	r0, r0, r4, lsr r0
 340:	0000032c 	andeq	r0, r0, ip, lsr #6
 344:	00008c3c 	andeq	r8, r0, ip, lsr ip
 348:	00000058 	andeq	r0, r0, r8, asr r0
 34c:	80100e42 	andshi	r0, r0, r2, asr #28
 350:	82038104 	andhi	r8, r3, #1
 354:	42018302 	andmi	r8, r1, #134217728	; 0x8000000
 358:	07841c0e 	streq	r1, [r4, lr, lsl #24]
 35c:	058e0685 	streq	r0, [lr, #1669]	; 0x685
 360:	5a280e44 	bpl	a03c78 <__bss_end__+0x9f8e80>
 364:	ce421c0e 	cdpgt	12, 4, cr1, cr2, cr14, {0}
 368:	100ec4c5 	andne	ip, lr, r5, asr #9
 36c:	c1c2c342 	bicgt	ip, r2, r2, asr #6
 370:	00000ec0 	andeq	r0, r0, r0, asr #29
 374:	0000000c 	andeq	r0, r0, ip
 378:	ffffffff 			; <UNDEFINED> instruction: 0xffffffff
 37c:	7c020001 	stcvc	0, cr0, [r2], {1}
 380:	000d0c0e 	andeq	r0, sp, lr, lsl #24
 384:	00000018 	andeq	r0, r0, r8, lsl r0
 388:	00000374 	andeq	r0, r0, r4, ror r3
 38c:	00008c94 	muleq	r0, r4, ip
 390:	00000038 	andeq	r0, r0, r8, lsr r0
 394:	84100e42 	ldrhi	r0, [r0], #-3650	; 0xfffff1be
 398:	86038504 	strhi	r8, [r3], -r4, lsl #10
 39c:	00018e02 	andeq	r8, r1, r2, lsl #28
 3a0:	0000000c 	andeq	r0, r0, ip
 3a4:	ffffffff 			; <UNDEFINED> instruction: 0xffffffff
 3a8:	7c020001 	stcvc	0, cr0, [r2], {1}
 3ac:	000d0c0e 	andeq	r0, sp, lr, lsl #24
 3b0:	0000002c 	andeq	r0, r0, ip, lsr #32
 3b4:	000003a0 	andeq	r0, r0, r0, lsr #7
 3b8:	00008ccc 	andeq	r8, r0, ip, asr #25
 3bc:	00000328 	andeq	r0, r0, r8, lsr #6
 3c0:	84180e42 	ldrhi	r0, [r8], #-3650	; 0xfffff1be
 3c4:	86058506 	strhi	r8, [r5], -r6, lsl #10
 3c8:	88038704 	stmdahi	r3, {r2, r8, r9, sl, pc}
 3cc:	46018e02 	strmi	r8, [r1], -r2, lsl #28
 3d0:	c002600e 	andgt	r6, r2, lr
 3d4:	42180e0a 	andsmi	r0, r8, #160	; 0xa0
 3d8:	0a8e020b 	beq	fe380c0c <__bss_end__+0xfe375e14>
 3dc:	0b42180e 	bleq	108641c <__bss_end__+0x107b624>
 3e0:	00000014 	andeq	r0, r0, r4, lsl r0
 3e4:	000003a0 	andeq	r0, r0, r0, lsr #7
 3e8:	00008ff4 	strdeq	r8, [r0], -r4
 3ec:	00000060 	andeq	r0, r0, r0, rrx
 3f0:	8e040e52 	mcrhi	14, 0, r0, cr4, cr2, {2}
 3f4:	100e4401 	andne	r4, lr, r1, lsl #8
 3f8:	0000002c 	andeq	r0, r0, ip, lsr #32
 3fc:	000003a0 	andeq	r0, r0, r0, lsr #7
 400:	00009054 	andeq	r9, r0, r4, asr r0
 404:	0000062c 	andeq	r0, r0, ip, lsr #12
 408:	84240e42 	strthi	r0, [r4], #-3650	; 0xfffff1be
 40c:	86088509 	strhi	r8, [r8], -r9, lsl #10
 410:	88068707 	stmdahi	r6, {r0, r1, r2, r8, r9, sl, pc}
 414:	8a048905 	bhi	122830 <__bss_end__+0x117a38>
 418:	8e028b03 	vmlahi.f64	d8, d2, d3
 41c:	c00e5201 	andgt	r5, lr, r1, lsl #4
 420:	0a860202 	beq	fe180c30 <__bss_end__+0xfe175e38>
 424:	0b42240e 	bleq	1089464 <__bss_end__+0x107e66c>
 428:	0000000c 	andeq	r0, r0, ip
 42c:	ffffffff 			; <UNDEFINED> instruction: 0xffffffff
 430:	7c020001 	stcvc	0, cr0, [r2], {1}
 434:	000d0c0e 	andeq	r0, sp, lr, lsl #24
 438:	00000014 	andeq	r0, r0, r4, lsl r0
 43c:	00000428 	andeq	r0, r0, r8, lsr #8
 440:	00009680 	andeq	r9, r0, r0, lsl #13
 444:	0000002c 	andeq	r0, r0, ip, lsr #32
 448:	84080e44 	strhi	r0, [r8], #-3652	; 0xfffff1bc
 44c:	00018e02 	andeq	r8, r1, r2, lsl #28
 450:	0000000c 	andeq	r0, r0, ip
 454:	ffffffff 			; <UNDEFINED> instruction: 0xffffffff
 458:	7c020001 	stcvc	0, cr0, [r2], {1}
 45c:	000d0c0e 	andeq	r0, sp, lr, lsl #24
 460:	00000018 	andeq	r0, r0, r8, lsl r0
 464:	00000450 	andeq	r0, r0, r0, asr r4
 468:	000096ac 	andeq	r9, r0, ip, lsr #13
 46c:	000000f8 	strdeq	r0, [r0], -r8
 470:	84100e42 	ldrhi	r0, [r0], #-3650	; 0xfffff1be
 474:	86038504 	strhi	r8, [r3], -r4, lsl #10
 478:	00018e02 	andeq	r8, r1, r2, lsl #28
 47c:	0000000c 	andeq	r0, r0, ip
 480:	ffffffff 			; <UNDEFINED> instruction: 0xffffffff
 484:	7c020001 	stcvc	0, cr0, [r2], {1}
 488:	000d0c0e 	andeq	r0, sp, lr, lsl #24
 48c:	0000000c 	andeq	r0, r0, ip
 490:	0000047c 	andeq	r0, r0, ip, ror r4
 494:	000097a4 	andeq	r9, r0, r4, lsr #15
 498:	00000004 	andeq	r0, r0, r4
 49c:	0000000c 	andeq	r0, r0, ip
 4a0:	ffffffff 			; <UNDEFINED> instruction: 0xffffffff
 4a4:	7c020001 	stcvc	0, cr0, [r2], {1}
 4a8:	000d0c0e 	andeq	r0, sp, lr, lsl #24
 4ac:	0000000c 	andeq	r0, r0, ip
 4b0:	0000049c 	muleq	r0, ip, r4
 4b4:	000097a8 	andeq	r9, r0, r8, lsr #15
 4b8:	00000018 	andeq	r0, r0, r8, lsl r0
 4bc:	0000000c 	andeq	r0, r0, ip
 4c0:	0000049c 	muleq	r0, ip, r4
 4c4:	000097c0 	andeq	r9, r0, r0, asr #15
 4c8:	00000014 	andeq	r0, r0, r4, lsl r0
 4cc:	00000014 	andeq	r0, r0, r4, lsl r0
 4d0:	0000049c 	muleq	r0, ip, r4
 4d4:	000097d4 	ldrdeq	r9, [r0], -r4
 4d8:	00000060 	andeq	r0, r0, r0, rrx
 4dc:	84080e42 	strhi	r0, [r8], #-3650	; 0xfffff1be
 4e0:	00018e02 	andeq	r8, r1, r2, lsl #28
 4e4:	0000000c 	andeq	r0, r0, ip
 4e8:	ffffffff 			; <UNDEFINED> instruction: 0xffffffff
 4ec:	7c020001 	stcvc	0, cr0, [r2], {1}
 4f0:	000d0c0e 	andeq	r0, sp, lr, lsl #24
 4f4:	0000000c 	andeq	r0, r0, ip
 4f8:	000004e4 	andeq	r0, r0, r4, ror #9
 4fc:	00009834 	andeq	r9, r0, r4, lsr r8
 500:	0000000c 	andeq	r0, r0, ip
 504:	00000014 	andeq	r0, r0, r4, lsl r0
 508:	000004e4 	andeq	r0, r0, r4, ror #9
 50c:	00009840 	andeq	r9, r0, r0, asr #16
 510:	00000024 	andeq	r0, r0, r4, lsr #32
 514:	84080e42 	strhi	r0, [r8], #-3650	; 0xfffff1be
 518:	00018e02 	andeq	r8, r1, r2, lsl #28
 51c:	0000001c 	andeq	r0, r0, ip, lsl r0
 520:	000004e4 	andeq	r0, r0, r4, ror #9
 524:	00009864 	andeq	r9, r0, r4, ror #16
 528:	00000048 	andeq	r0, r0, r8, asr #32
 52c:	84180e42 	ldrhi	r0, [r8], #-3650	; 0xfffff1be
 530:	86058506 	strhi	r8, [r5], -r6, lsl #10
 534:	88038704 	stmdahi	r3, {r2, r8, r9, sl, pc}
 538:	00018e02 	andeq	r8, r1, r2, lsl #28
 53c:	0000001c 	andeq	r0, r0, ip, lsl r0
 540:	000004e4 	andeq	r0, r0, r4, ror #9
 544:	000098ac 	andeq	r9, r0, ip, lsr #17
 548:	00000050 	andeq	r0, r0, r0, asr r0
 54c:	84180e42 	ldrhi	r0, [r8], #-3650	; 0xfffff1be
 550:	86058506 	strhi	r8, [r5], -r6, lsl #10
 554:	88038704 	stmdahi	r3, {r2, r8, r9, sl, pc}
 558:	00018e02 	andeq	r8, r1, r2, lsl #28
 55c:	0000001c 	andeq	r0, r0, ip, lsl r0
 560:	000004e4 	andeq	r0, r0, r4, ror #9
 564:	000098fc 	strdeq	r9, [r0], -ip
 568:	00000054 	andeq	r0, r0, r4, asr r0
 56c:	84180e42 	ldrhi	r0, [r8], #-3650	; 0xfffff1be
 570:	86058506 	strhi	r8, [r5], -r6, lsl #10
 574:	88038704 	stmdahi	r3, {r2, r8, r9, sl, pc}
 578:	00018e02 	andeq	r8, r1, r2, lsl #28
 57c:	0000000c 	andeq	r0, r0, ip
 580:	ffffffff 			; <UNDEFINED> instruction: 0xffffffff
 584:	7c020001 	stcvc	0, cr0, [r2], {1}
 588:	000d0c0e 	andeq	r0, sp, lr, lsl #24
 58c:	00000018 	andeq	r0, r0, r8, lsl r0
 590:	0000057c 	andeq	r0, r0, ip, ror r5
 594:	00009950 	andeq	r9, r0, r0, asr r9
 598:	00000020 	andeq	r0, r0, r0, lsr #32
 59c:	84100e42 	ldrhi	r0, [r0], #-3650	; 0xfffff1be
 5a0:	86038504 	strhi	r8, [r3], -r4, lsl #10
 5a4:	00018e02 	andeq	r8, r1, r2, lsl #28
 5a8:	00000018 	andeq	r0, r0, r8, lsl r0
 5ac:	0000057c 	andeq	r0, r0, ip, ror r5
 5b0:	00009970 	andeq	r9, r0, r0, ror r9
 5b4:	00000020 	andeq	r0, r0, r0, lsr #32
 5b8:	84100e42 	ldrhi	r0, [r0], #-3650	; 0xfffff1be
 5bc:	86038504 	strhi	r8, [r3], -r4, lsl #10
 5c0:	00018e02 	andeq	r8, r1, r2, lsl #28
 5c4:	00000014 	andeq	r0, r0, r4, lsl r0
 5c8:	0000057c 	andeq	r0, r0, ip, ror r5
 5cc:	00009990 	muleq	r0, r0, r9
 5d0:	000000b0 	strheq	r0, [r0], -r0	; <UNPREDICTABLE>
 5d4:	84080e42 	strhi	r0, [r8], #-3650	; 0xfffff1be
 5d8:	00018e02 	andeq	r8, r1, r2, lsl #28
 5dc:	00000014 	andeq	r0, r0, r4, lsl r0
 5e0:	0000057c 	andeq	r0, r0, ip, ror r5
 5e4:	00009a40 	andeq	r9, r0, r0, asr #20
 5e8:	00000018 	andeq	r0, r0, r8, lsl r0
 5ec:	84080e42 	strhi	r0, [r8], #-3650	; 0xfffff1be
 5f0:	00018e02 	andeq	r8, r1, r2, lsl #28
 5f4:	00000014 	andeq	r0, r0, r4, lsl r0
 5f8:	0000057c 	andeq	r0, r0, ip, ror r5
 5fc:	00009a58 	andeq	r9, r0, r8, asr sl
 600:	00000020 	andeq	r0, r0, r0, lsr #32
 604:	84080e42 	strhi	r0, [r8], #-3650	; 0xfffff1be
 608:	00018e02 	andeq	r8, r1, r2, lsl #28
 60c:	00000014 	andeq	r0, r0, r4, lsl r0
 610:	0000057c 	andeq	r0, r0, ip, ror r5
 614:	00009a78 	andeq	r9, r0, r8, ror sl
 618:	00000030 	andeq	r0, r0, r0, lsr r0
 61c:	84080e42 	strhi	r0, [r8], #-3650	; 0xfffff1be
 620:	00018e02 	andeq	r8, r1, r2, lsl #28
 624:	00000014 	andeq	r0, r0, r4, lsl r0
 628:	0000057c 	andeq	r0, r0, ip, ror r5
 62c:	00009aa8 	andeq	r9, r0, r8, lsr #21
 630:	00000030 	andeq	r0, r0, r0, lsr r0
 634:	84080e42 	strhi	r0, [r8], #-3650	; 0xfffff1be
 638:	00018e02 	andeq	r8, r1, r2, lsl #28
 63c:	00000014 	andeq	r0, r0, r4, lsl r0
 640:	0000057c 	andeq	r0, r0, ip, ror r5
 644:	00009ad8 	ldrdeq	r9, [r0], -r8
 648:	00000010 	andeq	r0, r0, r0, lsl r0
 64c:	84080e42 	strhi	r0, [r8], #-3650	; 0xfffff1be
 650:	00018e02 	andeq	r8, r1, r2, lsl #28
 654:	00000014 	andeq	r0, r0, r4, lsl r0
 658:	0000057c 	andeq	r0, r0, ip, ror r5
 65c:	00009ae8 	andeq	r9, r0, r8, ror #21
 660:	00000020 	andeq	r0, r0, r0, lsr #32
 664:	84080e42 	strhi	r0, [r8], #-3650	; 0xfffff1be
 668:	00018e02 	andeq	r8, r1, r2, lsl #28
 66c:	00000014 	andeq	r0, r0, r4, lsl r0
 670:	0000057c 	andeq	r0, r0, ip, ror r5
 674:	00009b08 	andeq	r9, r0, r8, lsl #22
 678:	00000014 	andeq	r0, r0, r4, lsl r0
 67c:	84080e42 	strhi	r0, [r8], #-3650	; 0xfffff1be
 680:	00018e02 	andeq	r8, r1, r2, lsl #28
 684:	00000014 	andeq	r0, r0, r4, lsl r0
 688:	0000057c 	andeq	r0, r0, ip, ror r5
 68c:	00009b1c 	andeq	r9, r0, ip, lsl fp
 690:	00000024 	andeq	r0, r0, r4, lsr #32
 694:	84080e42 	strhi	r0, [r8], #-3650	; 0xfffff1be
 698:	00018e02 	andeq	r8, r1, r2, lsl #28
 69c:	0000000c 	andeq	r0, r0, ip
 6a0:	ffffffff 			; <UNDEFINED> instruction: 0xffffffff
 6a4:	7c020001 	stcvc	0, cr0, [r2], {1}
 6a8:	000d0c0e 	andeq	r0, sp, lr, lsl #24
 6ac:	0000000c 	andeq	r0, r0, ip
 6b0:	0000069c 	muleq	r0, ip, r6
 6b4:	00009b40 	andeq	r9, r0, r0, asr #22
 6b8:	00000010 	andeq	r0, r0, r0, lsl r0
 6bc:	0000000c 	andeq	r0, r0, ip
 6c0:	0000069c 	muleq	r0, ip, r6
 6c4:	00009b50 	andeq	r9, r0, r0, asr fp
 6c8:	00000010 	andeq	r0, r0, r0, lsl r0
 6cc:	0000000c 	andeq	r0, r0, ip
 6d0:	0000069c 	muleq	r0, ip, r6
 6d4:	00009b60 	andeq	r9, r0, r0, ror #22
 6d8:	00000010 	andeq	r0, r0, r0, lsl r0
 6dc:	0000001c 	andeq	r0, r0, ip, lsl r0
 6e0:	0000069c 	muleq	r0, ip, r6
 6e4:	00009b70 	andeq	r9, r0, r0, ror fp
 6e8:	0000009c 	muleq	r0, ip, r0
 6ec:	8e040e42 	cdphi	14, 0, cr0, cr4, cr2, {2}
 6f0:	100e4201 	andne	r4, lr, r1, lsl #4
 6f4:	040e0a58 	streq	r0, [lr], #-2648	; 0xfffff5a8
 6f8:	00000b42 	andeq	r0, r0, r2, asr #22
 6fc:	00000014 	andeq	r0, r0, r4, lsl r0
 700:	0000069c 	muleq	r0, ip, r6
 704:	00009c0c 	andeq	r9, r0, ip, lsl #24
 708:	00000058 	andeq	r0, r0, r8, asr r0
 70c:	84080e42 	strhi	r0, [r8], #-3650	; 0xfffff1be
 710:	00018e02 	andeq	r8, r1, r2, lsl #28
 714:	0000001c 	andeq	r0, r0, ip, lsl r0
 718:	0000069c 	muleq	r0, ip, r6
 71c:	00009c64 	andeq	r9, r0, r4, ror #24
 720:	00000098 	muleq	r0, r8, r0
 724:	8e040e42 	cdphi	14, 0, cr0, cr4, cr2, {2}
 728:	100e4201 	andne	r4, lr, r1, lsl #4
 72c:	040e0a58 	streq	r0, [lr], #-2648	; 0xfffff5a8
 730:	00000b42 	andeq	r0, r0, r2, asr #22
 734:	00000020 	andeq	r0, r0, r0, lsr #32
 738:	0000069c 	muleq	r0, ip, r6
 73c:	00009cfc 	strdeq	r9, [r0], -ip
 740:	00000064 	andeq	r0, r0, r4, rrx
 744:	840c0e42 	strhi	r0, [ip], #-3650	; 0xfffff1be
 748:	8e028503 	cfsh32hi	mvfx8, mvfx2, #3
 74c:	180e4201 	stmdane	lr, {r0, r9, lr}
 750:	0c0e0a54 			; <UNDEFINED> instruction: 0x0c0e0a54
 754:	00000b42 	andeq	r0, r0, r2, asr #22
 758:	0000001c 	andeq	r0, r0, ip, lsl r0
 75c:	0000069c 	muleq	r0, ip, r6
 760:	00009d60 	andeq	r9, r0, r0, ror #26
 764:	00000118 	andeq	r0, r0, r8, lsl r1
 768:	8e040e42 	cdphi	14, 0, cr0, cr4, cr2, {2}
 76c:	100e4201 	andne	r4, lr, r1, lsl #4
 770:	040e0a6c 	streq	r0, [lr], #-2668	; 0xfffff594
 774:	00000b42 	andeq	r0, r0, r2, asr #22
 778:	0000000c 	andeq	r0, r0, ip
 77c:	0000069c 	muleq	r0, ip, r6
 780:	00009e78 	andeq	r9, r0, r8, ror lr
 784:	00000004 	andeq	r0, r0, r4
 788:	0000000c 	andeq	r0, r0, ip
 78c:	0000069c 	muleq	r0, ip, r6
 790:	00009e7c 	andeq	r9, r0, ip, ror lr
 794:	00000014 	andeq	r0, r0, r4, lsl r0
 798:	00000014 	andeq	r0, r0, r4, lsl r0
 79c:	0000069c 	muleq	r0, ip, r6
 7a0:	00009e90 	muleq	r0, r0, lr
 7a4:	00000060 	andeq	r0, r0, r0, rrx
 7a8:	8e040e58 	mcrhi	14, 0, r0, cr4, cr8, {2}
 7ac:	100e4201 	andne	r4, lr, r1, lsl #4
 7b0:	0000000c 	andeq	r0, r0, ip
 7b4:	ffffffff 			; <UNDEFINED> instruction: 0xffffffff
 7b8:	7c020001 	stcvc	0, cr0, [r2], {1}
 7bc:	000d0c0e 	andeq	r0, sp, lr, lsl #24
 7c0:	00000020 	andeq	r0, r0, r0, lsr #32
 7c4:	000007b0 			; <UNDEFINED> instruction: 0x000007b0
 7c8:	00009ef0 	strdeq	r9, [r0], -r0
 7cc:	00000060 	andeq	r0, r0, r0, rrx
 7d0:	84100e48 	ldrhi	r0, [r0], #-3656	; 0xfffff1b8
 7d4:	86038504 	strhi	r8, [r3], -r4, lsl #10
 7d8:	64018e02 	strvs	r8, [r1], #-3586	; 0xfffff1fe
 7dc:	c4c5c6ce 	strbgt	ip, [r5], #1742	; 0x6ce
 7e0:	0000000e 	andeq	r0, r0, lr
 7e4:	00000020 	andeq	r0, r0, r0, lsr #32
 7e8:	000007b0 			; <UNDEFINED> instruction: 0x000007b0
 7ec:	00009f50 	andeq	r9, r0, r0, asr pc
 7f0:	00000058 	andeq	r0, r0, r8, asr r0
 7f4:	84100e46 	ldrhi	r0, [r0], #-3654	; 0xfffff1ba
 7f8:	86038504 	strhi	r8, [r3], -r4, lsl #10
 7fc:	62018e02 	andvs	r8, r1, #2, 28
 800:	c4c5c6ce 	strbgt	ip, [r5], #1742	; 0x6ce
 804:	0000000e 	andeq	r0, r0, lr
 808:	0000000c 	andeq	r0, r0, ip
 80c:	000007b0 			; <UNDEFINED> instruction: 0x000007b0
 810:	00009fa8 	andeq	r9, r0, r8, lsr #31
 814:	00000018 	andeq	r0, r0, r8, lsl r0
 818:	0000000c 	andeq	r0, r0, ip
 81c:	000007b0 			; <UNDEFINED> instruction: 0x000007b0
 820:	00009fc0 	andeq	r9, r0, r0, asr #31
 824:	00000018 	andeq	r0, r0, r8, lsl r0
 828:	00000020 	andeq	r0, r0, r0, lsr #32
 82c:	000007b0 			; <UNDEFINED> instruction: 0x000007b0
 830:	00009fd8 	ldrdeq	r9, [r0], -r8
 834:	00000058 	andeq	r0, r0, r8, asr r0
 838:	84100e46 	ldrhi	r0, [r0], #-3654	; 0xfffff1ba
 83c:	86038504 	strhi	r8, [r3], -r4, lsl #10
 840:	62018e02 	andvs	r8, r1, #2, 28
 844:	c4c5c6ce 	strbgt	ip, [r5], #1742	; 0x6ce
 848:	0000000e 	andeq	r0, r0, lr
 84c:	0000000c 	andeq	r0, r0, ip
 850:	000007b0 			; <UNDEFINED> instruction: 0x000007b0
 854:	0000a030 	andeq	sl, r0, r0, lsr r0
 858:	00000030 	andeq	r0, r0, r0, lsr r0
 85c:	00000014 	andeq	r0, r0, r4, lsl r0
 860:	000007b0 			; <UNDEFINED> instruction: 0x000007b0
 864:	0000a060 	andeq	sl, r0, r0, rrx
 868:	00000028 	andeq	r0, r0, r8, lsr #32
 86c:	84080e42 	strhi	r0, [r8], #-3650	; 0xfffff1be
 870:	00018e02 	andeq	r8, r1, r2, lsl #28
 874:	0000000c 	andeq	r0, r0, ip
 878:	ffffffff 			; <UNDEFINED> instruction: 0xffffffff
 87c:	7c020001 	stcvc	0, cr0, [r2], {1}
 880:	000d0c0e 	andeq	r0, sp, lr, lsl #24
 884:	00000014 	andeq	r0, r0, r4, lsl r0
 888:	00000874 	andeq	r0, r0, r4, ror r8
 88c:	0000a088 	andeq	sl, r0, r8, lsl #1
 890:	00000014 	andeq	r0, r0, r4, lsl r0
 894:	84080e42 	strhi	r0, [r8], #-3650	; 0xfffff1be
 898:	00018e02 	andeq	r8, r1, r2, lsl #28
 89c:	0000000c 	andeq	r0, r0, ip
 8a0:	00000874 	andeq	r0, r0, r4, ror r8
 8a4:	0000a09c 	muleq	r0, ip, r0
 8a8:	00000018 	andeq	r0, r0, r8, lsl r0
 8ac:	0000000c 	andeq	r0, r0, ip
 8b0:	00000874 	andeq	r0, r0, r4, ror r8
 8b4:	0000a0b4 	strheq	sl, [r0], -r4
 8b8:	00000010 	andeq	r0, r0, r0, lsl r0
 8bc:	0000000c 	andeq	r0, r0, ip
 8c0:	ffffffff 			; <UNDEFINED> instruction: 0xffffffff
 8c4:	7c020001 	stcvc	0, cr0, [r2], {1}
 8c8:	000d0c0e 	andeq	r0, sp, lr, lsl #24
 8cc:	0000000c 	andeq	r0, r0, ip
 8d0:	000008bc 			; <UNDEFINED> instruction: 0x000008bc
 8d4:	0000a0c4 	andeq	sl, r0, r4, asr #1
 8d8:	0000002c 	andeq	r0, r0, ip, lsr #32
 8dc:	0000000c 	andeq	r0, r0, ip
 8e0:	ffffffff 			; <UNDEFINED> instruction: 0xffffffff
 8e4:	7c020001 	stcvc	0, cr0, [r2], {1}
 8e8:	000d0c0e 	andeq	r0, sp, lr, lsl #24
 8ec:	0000000c 	andeq	r0, r0, ip
 8f0:	000008dc 	ldrdeq	r0, [r0], -ip
 8f4:	0000a0f0 	strdeq	sl, [r0], -r0
 8f8:	00000044 	andeq	r0, r0, r4, asr #32
 8fc:	0000000c 	andeq	r0, r0, ip
 900:	ffffffff 			; <UNDEFINED> instruction: 0xffffffff
 904:	7c020001 	stcvc	0, cr0, [r2], {1}
 908:	000d0c0e 	andeq	r0, sp, lr, lsl #24
 90c:	0000000c 	andeq	r0, r0, ip
 910:	000008fc 	strdeq	r0, [r0], -ip
 914:	0000a134 	andeq	sl, r0, r4, lsr r1
 918:	00000018 	andeq	r0, r0, r8, lsl r0
 91c:	0000000c 	andeq	r0, r0, ip
 920:	ffffffff 			; <UNDEFINED> instruction: 0xffffffff
 924:	7c020001 	stcvc	0, cr0, [r2], {1}
 928:	000d0c0e 	andeq	r0, sp, lr, lsl #24
 92c:	0000000c 	andeq	r0, r0, ip
 930:	0000091c 	andeq	r0, r0, ip, lsl r9
 934:	0000a14c 	andeq	sl, r0, ip, asr #2
 938:	00000030 	andeq	r0, r0, r0, lsr r0
 93c:	0000000c 	andeq	r0, r0, ip
 940:	ffffffff 			; <UNDEFINED> instruction: 0xffffffff
 944:	7c020001 	stcvc	0, cr0, [r2], {1}
 948:	000d0c0e 	andeq	r0, sp, lr, lsl #24
 94c:	0000000c 	andeq	r0, r0, ip
 950:	0000093c 	andeq	r0, r0, ip, lsr r9
 954:	0000a17c 	andeq	sl, r0, ip, ror r1
 958:	00000004 	andeq	r0, r0, r4
