
hello.elf:     file format elf32-littlearm


Disassembly of section .text:

00008000 <__code_start__>:
    8000:	e3a00013 	mov	r0, #19, 0
    8004:	e3800080 	orr	r0, r0, #128, 0	; 0x80
    8008:	e129f000 	msr	CPSR_fc, r0
    800c:	e3a01000 	mov	r1, #0, 0
    8010:	ee071f95 	mcr	15, 0, r1, cr7, cr5, {4}
    8014:	e3a0d302 	mov	sp, #134217728	; 0x8000000
    8018:	e3a0b000 	mov	fp, #0, 0
    801c:	eb000247 	bl	8940 <_cstart>
    8020:	eb000261 	bl	89ac <rpi_reboot>

00008024 <PUT32>:
    8024:	e5801000 	str	r1, [r0]
    8028:	e12fff1e 	bx	lr

0000802c <GET32>:
    802c:	e5900000 	ldr	r0, [r0]
    8030:	e12fff1e 	bx	lr

00008034 <BRANCHTO>:
    8034:	e12fff10 	bx	r0

00008038 <hello>:
    8038:	e92d4010 	push	{r4, lr}
    803c:	e59f0004 	ldr	r0, [pc, #4]	; 8048 <hello+0x10>
    8040:	eb000040 	bl	8148 <printk>
    8044:	e8bd8010 	pop	{r4, pc}
    8048:	00008e98 	muleq	r0, r8, lr

0000804c <foo>:
    804c:	e92d4010 	push	{r4, lr}
    8050:	e1a01000 	mov	r1, r0
    8054:	e59f0004 	ldr	r0, [pc, #4]	; 8060 <foo+0x14>
    8058:	eb00003a 	bl	8148 <printk>
    805c:	e8bd8010 	pop	{r4, pc}
    8060:	00008ea8 	andeq	r8, r0, r8, lsr #29

00008064 <notmain>:
    8064:	e92d4070 	push	{r4, r5, r6, lr}
    8068:	e59f20a8 	ldr	r2, [pc, #168]	; 8118 <notmain+0xb4>
    806c:	e59f30a8 	ldr	r3, [pc, #168]	; 811c <notmain+0xb8>
    8070:	e5823000 	str	r3, [r2]
    8074:	e59f30a4 	ldr	r3, [pc, #164]	; 8120 <notmain+0xbc>
    8078:	e5823004 	str	r3, [r2, #4]
    807c:	e2821008 	add	r1, r2, #8, 0
    8080:	e59f309c 	ldr	r3, [pc, #156]	; 8124 <notmain+0xc0>
    8084:	e0433001 	sub	r3, r3, r1
    8088:	e2433008 	sub	r3, r3, #8, 0
    808c:	e1a03123 	lsr	r3, r3, #2
    8090:	e3c334ff 	bic	r3, r3, #-16777216	; 0xff000000
    8094:	e38334eb 	orr	r3, r3, #-352321536	; 0xeb000000
    8098:	e5823008 	str	r3, [r2, #8]
    809c:	e59f3084 	ldr	r3, [pc, #132]	; 8128 <notmain+0xc4>
    80a0:	e582300c 	str	r3, [r2, #12]
    80a4:	e59f3080 	ldr	r3, [pc, #128]	; 812c <notmain+0xc8>
    80a8:	e5823010 	str	r3, [r2, #16]
    80ac:	e59f307c 	ldr	r3, [pc, #124]	; 8130 <notmain+0xcc>
    80b0:	e5823014 	str	r3, [r2, #20]
    80b4:	e59f0078 	ldr	r0, [pc, #120]	; 8134 <notmain+0xd0>
    80b8:	eb000022 	bl	8148 <printk>
    80bc:	e3a04000 	mov	r4, #0, 0
    80c0:	e3540005 	cmp	r4, #5, 0
    80c4:	8a000006 	bhi	80e4 <notmain+0x80>
    80c8:	e59f3048 	ldr	r3, [pc, #72]	; 8118 <notmain+0xb4>
    80cc:	e7932104 	ldr	r2, [r3, r4, lsl #2]
    80d0:	e1a01004 	mov	r1, r4
    80d4:	e59f005c 	ldr	r0, [pc, #92]	; 8138 <notmain+0xd4>
    80d8:	eb00001a 	bl	8148 <printk>
    80dc:	e2844001 	add	r4, r4, #1, 0
    80e0:	eafffff6 	b	80c0 <notmain+0x5c>
    80e4:	e59f502c 	ldr	r5, [pc, #44]	; 8118 <notmain+0xb4>
    80e8:	e1a01005 	mov	r1, r5
    80ec:	e59f0048 	ldr	r0, [pc, #72]	; 813c <notmain+0xd8>
    80f0:	eb000014 	bl	8148 <printk>
    80f4:	e59f4044 	ldr	r4, [pc, #68]	; 8140 <notmain+0xdc>
    80f8:	e1a00004 	mov	r0, r4
    80fc:	eb000011 	bl	8148 <printk>
    8100:	e12fff35 	blx	r5
    8104:	e1a00004 	mov	r0, r4
    8108:	eb00000e 	bl	8148 <printk>
    810c:	e59f0030 	ldr	r0, [pc, #48]	; 8144 <notmain+0xe0>
    8110:	eb00000c 	bl	8148 <printk>
    8114:	eb0001fe 	bl	8914 <clean_reboot>
    8118:	000090cc 	andeq	r9, r0, ip, asr #1
    811c:	e52de004 	push	{lr}		; (str lr, [sp, #-4]!)
    8120:	e59f0008 	ldr	r0, [pc, #8]	; 8130 <notmain+0xcc>
    8124:	00008148 	andeq	r8, r0, r8, asr #2
    8128:	e49de004 	pop	{lr}		; (ldr lr, [sp], #4)
    812c:	e12fff1e 	bx	lr
    8130:	00008ebc 			; <UNDEFINED> instruction: 0x00008ebc
    8134:	00008ed4 	ldrdeq	r8, [r0], -r4
    8138:	00008ee4 	andeq	r8, r0, r4, ror #29
    813c:	00008ef4 	strdeq	r8, [r0], -r4
    8140:	00008f08 	andeq	r8, r0, r8, lsl #30
    8144:	00008f30 	andeq	r8, r0, r0, lsr pc

00008148 <printk>:
    8148:	e92d000f 	push	{r0, r1, r2, r3}
    814c:	e92d4030 	push	{r4, r5, lr}
    8150:	e24dd00c 	sub	sp, sp, #12, 0
    8154:	e28d301c 	add	r3, sp, #28, 0
    8158:	e58d3004 	str	r3, [sp, #4]
    815c:	e59f5034 	ldr	r5, [pc, #52]	; 8198 <printk+0x50>
    8160:	e59d2018 	ldr	r2, [sp, #24]
    8164:	e3a01b01 	mov	r1, #1024	; 0x400
    8168:	e1a00005 	mov	r0, r5
    816c:	eb0000ba 	bl	845c <va_printk>
    8170:	e1a04000 	mov	r4, r0
    8174:	e59f3020 	ldr	r3, [pc, #32]	; 819c <printk+0x54>
    8178:	e5933000 	ldr	r3, [r3]
    817c:	e1a00005 	mov	r0, r5
    8180:	e12fff33 	blx	r3
    8184:	e1a00004 	mov	r0, r4
    8188:	e28dd00c 	add	sp, sp, #12, 0
    818c:	e8bd4030 	pop	{r4, r5, lr}
    8190:	e28dd010 	add	sp, sp, #16, 0
    8194:	e12fff1e 	bx	lr
    8198:	0000910c 	andeq	r9, r0, ip, lsl #2
    819c:	000090c4 	andeq	r9, r0, r4, asr #1

000081a0 <internal_putk>:
    81a0:	e92d4010 	push	{r4, lr}
    81a4:	e1a04000 	mov	r4, r0
    81a8:	e5d40000 	ldrb	r0, [r4]
    81ac:	e3500000 	cmp	r0, #0, 0
    81b0:	0a000004 	beq	81c8 <internal_putk+0x28>
    81b4:	e59f3014 	ldr	r3, [pc, #20]	; 81d0 <internal_putk+0x30>
    81b8:	e5933000 	ldr	r3, [r3]
    81bc:	e12fff33 	blx	r3
    81c0:	e2844001 	add	r4, r4, #1, 0
    81c4:	eafffff7 	b	81a8 <internal_putk+0x8>
    81c8:	e3a00001 	mov	r0, #1, 0
    81cc:	e8bd8010 	pop	{r4, pc}
    81d0:	000090c8 	andeq	r9, r0, r8, asr #1

000081d4 <isdigit>:
    81d4:	e2400030 	sub	r0, r0, #48, 0	; 0x30
    81d8:	e3500009 	cmp	r0, #9, 0
    81dc:	83a00000 	movhi	r0, #0, 0
    81e0:	93a00001 	movls	r0, #1, 0
    81e4:	e12fff1e 	bx	lr

000081e8 <pad>:
    81e8:	e0401001 	sub	r1, r0, r1
    81ec:	e1510002 	cmp	r1, r2
    81f0:	b3a03020 	movlt	r3, #32, 0
    81f4:	b4c03001 	strblt	r3, [r0], #1
    81f8:	b2811001 	addlt	r1, r1, #1, 0
    81fc:	bafffffa 	blt	81ec <pad+0x4>
    8200:	e3a03000 	mov	r3, #0, 0
    8204:	e5c03000 	strb	r3, [r0]
    8208:	e12fff1e 	bx	lr

0000820c <reverse>:
    820c:	e042c003 	sub	ip, r2, r3
    8210:	e28cc001 	add	ip, ip, #1, 0
    8214:	e15c0001 	cmp	ip, r1
    8218:	c04cc001 	subgt	ip, ip, r1
    821c:	c083300c 	addgt	r3, r3, ip
    8220:	e2421001 	sub	r1, r2, #1, 0
    8224:	e1a02000 	mov	r2, r0
    8228:	e1510003 	cmp	r1, r3
    822c:	2451c001 	ldrbcs	ip, [r1], #-1
    8230:	24c2c001 	strbcs	ip, [r2], #1
    8234:	2afffffb 	bcs	8228 <reverse+0x1c>
    8238:	e3a03000 	mov	r3, #0, 0
    823c:	e5c23000 	strb	r3, [r2]
    8240:	e12fff1e 	bx	lr

00008244 <emit>:
    8244:	e92d40f0 	push	{r4, r5, r6, r7, lr}
    8248:	e24dd04c 	sub	sp, sp, #76, 0	; 0x4c
    824c:	e1a05001 	mov	r5, r1
    8250:	e1a04002 	mov	r4, r2
    8254:	e59d2060 	ldr	r2, [sp, #96]	; 0x60
    8258:	e1520004 	cmp	r2, r4
    825c:	c2442001 	subgt	r2, r4, #1, 0
    8260:	e1a0c003 	mov	ip, r3
    8264:	e2400002 	sub	r0, r0, #2, 0
    8268:	e350000e 	cmp	r0, #14, 0
    826c:	979ff100 	ldrls	pc, [pc, r0, lsl #2]
    8270:	ea000050 	b	83b8 <emit+0x174>
    8274:	00008390 	muleq	r0, r0, r3
    8278:	000083b8 			; <UNDEFINED> instruction: 0x000083b8
    827c:	000083b8 			; <UNDEFINED> instruction: 0x000083b8
    8280:	000083b8 			; <UNDEFINED> instruction: 0x000083b8
    8284:	000083b8 			; <UNDEFINED> instruction: 0x000083b8
    8288:	000083b8 			; <UNDEFINED> instruction: 0x000083b8
    828c:	00008384 	andeq	r8, r0, r4, lsl #7
    8290:	000083b8 			; <UNDEFINED> instruction: 0x000083b8
    8294:	000082b0 			; <UNDEFINED> instruction: 0x000082b0
    8298:	000083b8 			; <UNDEFINED> instruction: 0x000083b8
    829c:	000083b8 			; <UNDEFINED> instruction: 0x000083b8
    82a0:	000083b8 			; <UNDEFINED> instruction: 0x000083b8
    82a4:	000083b8 			; <UNDEFINED> instruction: 0x000083b8
    82a8:	000083b8 			; <UNDEFINED> instruction: 0x000083b8
    82ac:	00008328 	andeq	r8, r0, r8, lsr #6
    82b0:	e59d1064 	ldr	r1, [sp, #100]	; 0x64
    82b4:	e2511000 	subs	r1, r1, #0, 0
    82b8:	13a01001 	movne	r1, #1, 0
    82bc:	e0111fa3 	ands	r1, r1, r3, lsr #31
    82c0:	0a000016 	beq	8320 <emit+0xdc>
    82c4:	e263c000 	rsb	ip, r3, #0, 0
    82c8:	e3a06001 	mov	r6, #1, 0
    82cc:	e28d0008 	add	r0, sp, #8, 0
    82d0:	e59f3100 	ldr	r3, [pc, #256]	; 83d8 <emit+0x194>
    82d4:	e0831c93 	umull	r1, r3, r3, ip
    82d8:	e1a031a3 	lsr	r3, r3, #3
    82dc:	e1a0e003 	mov	lr, r3
    82e0:	e0833103 	add	r3, r3, r3, lsl #2
    82e4:	e04c3083 	sub	r3, ip, r3, lsl #1
    82e8:	e1a01000 	mov	r1, r0
    82ec:	e2800001 	add	r0, r0, #1, 0
    82f0:	e59f70e4 	ldr	r7, [pc, #228]	; 83dc <emit+0x198>
    82f4:	e7d73003 	ldrb	r3, [r7, r3]
    82f8:	e5c13000 	strb	r3, [r1]
    82fc:	e1a0300c 	mov	r3, ip
    8300:	e1a0c00e 	mov	ip, lr
    8304:	e3530009 	cmp	r3, #9, 0
    8308:	8afffff0 	bhi	82d0 <emit+0x8c>
    830c:	e3560000 	cmp	r6, #0, 0
    8310:	13a0302d 	movne	r3, #45, 0	; 0x2d
    8314:	15c03000 	strbne	r3, [r0]
    8318:	12810002 	addne	r0, r1, #2, 0
    831c:	ea00000f 	b	8360 <emit+0x11c>
    8320:	e3a06000 	mov	r6, #0, 0
    8324:	eaffffe8 	b	82cc <emit+0x88>
    8328:	e28d1008 	add	r1, sp, #8, 0
    832c:	e20c000f 	and	r0, ip, #15, 0
    8330:	e59fe0a8 	ldr	lr, [pc, #168]	; 83e0 <emit+0x19c>
    8334:	e7de0000 	ldrb	r0, [lr, r0]
    8338:	e5c10000 	strb	r0, [r1]
    833c:	e2811001 	add	r1, r1, #1, 0
    8340:	e35c000f 	cmp	ip, #15, 0
    8344:	e1a0c22c 	lsr	ip, ip, #4
    8348:	8afffff7 	bhi	832c <emit+0xe8>
    834c:	e1a00001 	mov	r0, r1
    8350:	e3a03078 	mov	r3, #120, 0	; 0x78
    8354:	e4c03002 	strb	r3, [r0], #2
    8358:	e3a03030 	mov	r3, #48, 0	; 0x30
    835c:	e5c13001 	strb	r3, [r1, #1]
    8360:	e28d1008 	add	r1, sp, #8, 0
    8364:	ebffff9f 	bl	81e8 <pad>
    8368:	e1a02000 	mov	r2, r0
    836c:	e28d3008 	add	r3, sp, #8, 0
    8370:	e1a01004 	mov	r1, r4
    8374:	e1a00005 	mov	r0, r5
    8378:	ebffffa3 	bl	820c <reverse>
    837c:	e28dd04c 	add	sp, sp, #76, 0	; 0x4c
    8380:	e8bd80f0 	pop	{r4, r5, r6, r7, pc}
    8384:	e5cd3008 	strb	r3, [sp, #8]
    8388:	e28d0009 	add	r0, sp, #9, 0
    838c:	eafffff3 	b	8360 <emit+0x11c>
    8390:	e28d0008 	add	r0, sp, #8, 0
    8394:	e20c1001 	and	r1, ip, #1, 0
    8398:	e59fe044 	ldr	lr, [pc, #68]	; 83e4 <emit+0x1a0>
    839c:	e7de1001 	ldrb	r1, [lr, r1]
    83a0:	e5c01000 	strb	r1, [r0]
    83a4:	e2800001 	add	r0, r0, #1, 0
    83a8:	e35c0001 	cmp	ip, #1, 0
    83ac:	e1a0c0ac 	lsr	ip, ip, #1
    83b0:	8afffff7 	bhi	8394 <emit+0x150>
    83b4:	eaffffe9 	b	8360 <emit+0x11c>
    83b8:	e59f3028 	ldr	r3, [pc, #40]	; 83e8 <emit+0x1a4>
    83bc:	e58d3000 	str	r3, [sp]
    83c0:	e3a03079 	mov	r3, #121, 0	; 0x79
    83c4:	e59f2020 	ldr	r2, [pc, #32]	; 83ec <emit+0x1a8>
    83c8:	e59f1020 	ldr	r1, [pc, #32]	; 83f0 <emit+0x1ac>
    83cc:	e59f0020 	ldr	r0, [pc, #32]	; 83f4 <emit+0x1b0>
    83d0:	ebffff5c 	bl	8148 <printk>
    83d4:	eb00014e 	bl	8914 <clean_reboot>
    83d8:	cccccccd 	stclgt	12, cr12, [ip], {205}	; 0xcd
    83dc:	00008f68 	andeq	r8, r0, r8, ror #30
    83e0:	00008f74 	andeq	r8, r0, r4, ror pc
    83e4:	00008f88 	andeq	r8, r0, r8, lsl #31
    83e8:	00008f64 	andeq	r8, r0, r4, ror #30
    83ec:	00009094 	muleq	r0, r4, r0
    83f0:	00008f3c 	andeq	r8, r0, ip, lsr pc
    83f4:	00008f50 	andeq	r8, r0, r0, asr pc

000083f8 <rpi_set_output>:
    83f8:	e3500000 	cmp	r0, #0, 0
    83fc:	0a000006 	beq	841c <rpi_set_output+0x24>
    8400:	e59f303c 	ldr	r3, [pc, #60]	; 8444 <rpi_set_output+0x4c>
    8404:	e5830000 	str	r0, [r3]
    8408:	e3510000 	cmp	r1, #0, 0
    840c:	012fff1e 	bxeq	lr
    8410:	e59f3030 	ldr	r3, [pc, #48]	; 8448 <rpi_set_output+0x50>
    8414:	e5831000 	str	r1, [r3]
    8418:	e12fff1e 	bx	lr
    841c:	e52de004 	push	{lr}		; (str lr, [sp, #-4]!)
    8420:	e24dd00c 	sub	sp, sp, #12, 0
    8424:	e59f3020 	ldr	r3, [pc, #32]	; 844c <rpi_set_output+0x54>
    8428:	e58d3000 	str	r3, [sp]
    842c:	e3a03020 	mov	r3, #32, 0
    8430:	e59f2018 	ldr	r2, [pc, #24]	; 8450 <rpi_set_output+0x58>
    8434:	e59f1018 	ldr	r1, [pc, #24]	; 8454 <rpi_set_output+0x5c>
    8438:	e59f0018 	ldr	r0, [pc, #24]	; 8458 <rpi_set_output+0x60>
    843c:	ebffff41 	bl	8148 <printk>
    8440:	eb000133 	bl	8914 <clean_reboot>
    8444:	000090c8 	andeq	r9, r0, r8, asr #1
    8448:	000090c4 	andeq	r9, r0, r4, asr #1
    844c:	00008f8c 	andeq	r8, r0, ip, lsl #31
    8450:	0000909c 	muleq	r0, ip, r0
    8454:	00008f3c 	andeq	r8, r0, ip, lsr pc
    8458:	00008f50 	andeq	r8, r0, r0, asr pc

0000845c <va_printk>:
    845c:	e92d4ff0 	push	{r4, r5, r6, r7, r8, r9, sl, fp, lr}
    8460:	e24ddf45 	sub	sp, sp, #276	; 0x114
    8464:	e1a09000 	mov	r9, r0
    8468:	e58d2008 	str	r2, [sp, #8]
    846c:	e58d300c 	str	r3, [sp, #12]
    8470:	e2411001 	sub	r1, r1, #1, 0
    8474:	e0808001 	add	r8, r0, r1
    8478:	e3a03000 	mov	r3, #0, 0
    847c:	e5c03000 	strb	r3, [r0]
    8480:	e1a04000 	mov	r4, r0
    8484:	e1a06002 	mov	r6, r2
    8488:	ea000001 	b	8494 <va_printk+0x38>
    848c:	e2866001 	add	r6, r6, #1, 0
    8490:	e4c43001 	strb	r3, [r4], #1
    8494:	e5d63000 	ldrb	r3, [r6]
    8498:	e3530000 	cmp	r3, #0, 0
    849c:	0a000108 	beq	88c4 <va_printk+0x468>
    84a0:	e1540008 	cmp	r4, r8
    84a4:	2a000106 	bcs	88c4 <va_printk+0x468>
    84a8:	e3530025 	cmp	r3, #37, 0	; 0x25
    84ac:	1afffff6 	bne	848c <va_printk+0x30>
    84b0:	e5d62001 	ldrb	r2, [r6, #1]
    84b4:	e3520025 	cmp	r2, #37, 0	; 0x25
    84b8:	04c43001 	strbeq	r3, [r4], #1
    84bc:	02866002 	addeq	r6, r6, #2, 0
    84c0:	0afffff3 	beq	8494 <va_printk+0x38>
    84c4:	e2866001 	add	r6, r6, #1, 0
    84c8:	e3a05000 	mov	r5, #0, 0
    84cc:	e5d67000 	ldrb	r7, [r6]
    84d0:	e1a0a007 	mov	sl, r7
    84d4:	e1a00007 	mov	r0, r7
    84d8:	ebffff3d 	bl	81d4 <isdigit>
    84dc:	e3500000 	cmp	r0, #0, 0
    84e0:	0a000004 	beq	84f8 <va_printk+0x9c>
    84e4:	e0855105 	add	r5, r5, r5, lsl #2
    84e8:	e0875085 	add	r5, r7, r5, lsl #1
    84ec:	e2455030 	sub	r5, r5, #48, 0	; 0x30
    84f0:	e2866001 	add	r6, r6, #1, 0
    84f4:	eafffff4 	b	84cc <va_printk+0x70>
    84f8:	e355001f 	cmp	r5, #31, 0
    84fc:	8a00001a 	bhi	856c <va_printk+0x110>
    8500:	e2477062 	sub	r7, r7, #98, 0	; 0x62
    8504:	e3570016 	cmp	r7, #22, 0
    8508:	979ff107 	ldrls	pc, [pc, r7, lsl #2]
    850c:	ea0000d4 	b	8864 <va_printk+0x408>
    8510:	000087e8 	andeq	r8, r0, r8, ror #15
    8514:	00008830 	andeq	r8, r0, r0, lsr r8
    8518:	00008748 	andeq	r8, r0, r8, asr #14
    851c:	00008864 	andeq	r8, r0, r4, ror #16
    8520:	00008730 	andeq	r8, r0, r0, lsr r7
    8524:	00008864 	andeq	r8, r0, r4, ror #16
    8528:	00008864 	andeq	r8, r0, r4, ror #16
    852c:	00008864 	andeq	r8, r0, r4, ror #16
    8530:	00008864 	andeq	r8, r0, r4, ror #16
    8534:	00008864 	andeq	r8, r0, r4, ror #16
    8538:	0000858c 	andeq	r8, r0, ip, lsl #11
    853c:	00008864 	andeq	r8, r0, r4, ror #16
    8540:	00008864 	andeq	r8, r0, r4, ror #16
    8544:	00008864 	andeq	r8, r0, r4, ror #16
    8548:	000087b4 			; <UNDEFINED> instruction: 0x000087b4
    854c:	00008864 	andeq	r8, r0, r4, ror #16
    8550:	00008864 	andeq	r8, r0, r4, ror #16
    8554:	0000881c 	andeq	r8, r0, ip, lsl r8
    8558:	00008864 	andeq	r8, r0, r4, ror #16
    855c:	00008780 	andeq	r8, r0, r0, lsl #15
    8560:	00008864 	andeq	r8, r0, r4, ror #16
    8564:	00008864 	andeq	r8, r0, r4, ror #16
    8568:	000087b4 			; <UNDEFINED> instruction: 0x000087b4
    856c:	e59f3364 	ldr	r3, [pc, #868]	; 88d8 <va_printk+0x47c>
    8570:	e58d3000 	str	r3, [sp]
    8574:	e3a03098 	mov	r3, #152, 0	; 0x98
    8578:	e59f235c 	ldr	r2, [pc, #860]	; 88dc <va_printk+0x480>
    857c:	e59f135c 	ldr	r1, [pc, #860]	; 88e0 <va_printk+0x484>
    8580:	e59f035c 	ldr	r0, [pc, #860]	; 88e4 <va_printk+0x488>
    8584:	ebfffeef 	bl	8148 <printk>
    8588:	eb0000e1 	bl	8914 <clean_reboot>
    858c:	e3a02003 	mov	r2, #3, 0
    8590:	e59f1350 	ldr	r1, [pc, #848]	; 88e8 <va_printk+0x48c>
    8594:	e1a00006 	mov	r0, r6
    8598:	eb0001e4 	bl	8d30 <strncmp>
    859c:	e3500000 	cmp	r0, #0, 0
    85a0:	0a000005 	beq	85bc <va_printk+0x160>
    85a4:	e3a02003 	mov	r2, #3, 0
    85a8:	e59f133c 	ldr	r1, [pc, #828]	; 88ec <va_printk+0x490>
    85ac:	e1a00006 	mov	r0, r6
    85b0:	eb0001de 	bl	8d30 <strncmp>
    85b4:	e3500000 	cmp	r0, #0, 0
    85b8:	1a000033 	bne	868c <va_printk+0x230>
    85bc:	e286b002 	add	fp, r6, #2, 0
    85c0:	e59d300c 	ldr	r3, [sp, #12]
    85c4:	e2833007 	add	r3, r3, #7, 0
    85c8:	e3c33007 	bic	r3, r3, #7, 0
    85cc:	e2832008 	add	r2, r3, #8, 0
    85d0:	e58d200c 	str	r2, [sp, #12]
    85d4:	e593a000 	ldr	sl, [r3]
    85d8:	e5937004 	ldr	r7, [r3, #4]
    85dc:	e1a01007 	mov	r1, r7
    85e0:	e59f0308 	ldr	r0, [pc, #776]	; 88f0 <va_printk+0x494>
    85e4:	ebfffed7 	bl	8148 <printk>
    85e8:	e1a0100a 	mov	r1, sl
    85ec:	e59f0300 	ldr	r0, [pc, #768]	; 88f4 <va_printk+0x498>
    85f0:	ebfffed4 	bl	8148 <printk>
    85f4:	e3a02003 	mov	r2, #3, 0
    85f8:	e59f12e8 	ldr	r1, [pc, #744]	; 88e8 <va_printk+0x48c>
    85fc:	e1a00006 	mov	r0, r6
    8600:	eb0001ca 	bl	8d30 <strncmp>
    8604:	e3500000 	cmp	r0, #0, 0
    8608:	0a000027 	beq	86ac <va_printk+0x250>
    860c:	e3a02003 	mov	r2, #3, 0
    8610:	e59f12d4 	ldr	r1, [pc, #724]	; 88ec <va_printk+0x490>
    8614:	e1a00006 	mov	r0, r6
    8618:	eb0001c4 	bl	8d30 <strncmp>
    861c:	e3500000 	cmp	r0, #0, 0
    8620:	1a00003b 	bne	8714 <va_printk+0x2b8>
    8624:	e3a06000 	mov	r6, #0, 0
    8628:	e58d6004 	str	r6, [sp, #4]
    862c:	e58d5000 	str	r5, [sp]
    8630:	e1a03007 	mov	r3, r7
    8634:	e3a02080 	mov	r2, #128, 0	; 0x80
    8638:	e28d1010 	add	r1, sp, #16, 0
    863c:	e3a0000a 	mov	r0, #10, 0
    8640:	ebfffeff 	bl	8244 <emit>
    8644:	e1a07000 	mov	r7, r0
    8648:	e58d6004 	str	r6, [sp, #4]
    864c:	e58d5000 	str	r5, [sp]
    8650:	e1a0300a 	mov	r3, sl
    8654:	e3a02080 	mov	r2, #128, 0	; 0x80
    8658:	e28d1090 	add	r1, sp, #144, 0	; 0x90
    865c:	e3a0000a 	mov	r0, #10, 0
    8660:	ebfffef7 	bl	8244 <emit>
    8664:	e59f128c 	ldr	r1, [pc, #652]	; 88f8 <va_printk+0x49c>
    8668:	e28d0010 	add	r0, sp, #16, 0
    866c:	eb00019c 	bl	8ce4 <strcmp>
    8670:	e1500006 	cmp	r0, r6
    8674:	1a000021 	bne	8700 <va_printk+0x2a4>
    8678:	e28d1090 	add	r1, sp, #144, 0	; 0x90
    867c:	e28d0010 	add	r0, sp, #16, 0
    8680:	eb0001a2 	bl	8d10 <strcpy>
    8684:	e1a0600b 	mov	r6, fp
    8688:	ea00003a 	b	8778 <va_printk+0x31c>
    868c:	e59f3268 	ldr	r3, [pc, #616]	; 88fc <va_printk+0x4a0>
    8690:	e58d3000 	str	r3, [sp]
    8694:	e3a0309f 	mov	r3, #159, 0	; 0x9f
    8698:	e59f223c 	ldr	r2, [pc, #572]	; 88dc <va_printk+0x480>
    869c:	e59f123c 	ldr	r1, [pc, #572]	; 88e0 <va_printk+0x484>
    86a0:	e59f023c 	ldr	r0, [pc, #572]	; 88e4 <va_printk+0x488>
    86a4:	ebfffea7 	bl	8148 <printk>
    86a8:	eb000099 	bl	8914 <clean_reboot>
    86ac:	e3a06000 	mov	r6, #0, 0
    86b0:	e58d6004 	str	r6, [sp, #4]
    86b4:	e58d5000 	str	r5, [sp]
    86b8:	e1a03007 	mov	r3, r7
    86bc:	e3a02080 	mov	r2, #128, 0	; 0x80
    86c0:	e28d1010 	add	r1, sp, #16, 0
    86c4:	e3a00010 	mov	r0, #16, 0
    86c8:	ebfffedd 	bl	8244 <emit>
    86cc:	e1a07000 	mov	r7, r0
    86d0:	e58d6004 	str	r6, [sp, #4]
    86d4:	e58d5000 	str	r5, [sp]
    86d8:	e1a0300a 	mov	r3, sl
    86dc:	e3a02080 	mov	r2, #128, 0	; 0x80
    86e0:	e28d1090 	add	r1, sp, #144, 0	; 0x90
    86e4:	e3a00010 	mov	r0, #16, 0
    86e8:	ebfffed5 	bl	8244 <emit>
    86ec:	e28d1092 	add	r1, sp, #146, 0	; 0x92
    86f0:	e28d0010 	add	r0, sp, #16, 0
    86f4:	eb00016d 	bl	8cb0 <strcat>
    86f8:	e1a0600b 	mov	r6, fp
    86fc:	ea00001d 	b	8778 <va_printk+0x31c>
    8700:	e28d1090 	add	r1, sp, #144, 0	; 0x90
    8704:	e28d0010 	add	r0, sp, #16, 0
    8708:	eb000168 	bl	8cb0 <strcat>
    870c:	e1a0600b 	mov	r6, fp
    8710:	ea000018 	b	8778 <va_printk+0x31c>
    8714:	e58d6000 	str	r6, [sp]
    8718:	e3a030b6 	mov	r3, #182, 0	; 0xb6
    871c:	e59f21b8 	ldr	r2, [pc, #440]	; 88dc <va_printk+0x480>
    8720:	e59f11b8 	ldr	r1, [pc, #440]	; 88e0 <va_printk+0x484>
    8724:	e59f01d4 	ldr	r0, [pc, #468]	; 8900 <va_printk+0x4a4>
    8728:	ebfffe86 	bl	8148 <printk>
    872c:	eb000078 	bl	8914 <clean_reboot>
    8730:	e3a030be 	mov	r3, #190, 0	; 0xbe
    8734:	e59f21a0 	ldr	r2, [pc, #416]	; 88dc <va_printk+0x480>
    8738:	e59f11a0 	ldr	r1, [pc, #416]	; 88e0 <va_printk+0x484>
    873c:	e59f01c0 	ldr	r0, [pc, #448]	; 8904 <va_printk+0x4a8>
    8740:	ebfffe80 	bl	8148 <printk>
    8744:	eb000072 	bl	8914 <clean_reboot>
    8748:	e59d300c 	ldr	r3, [sp, #12]
    874c:	e2832004 	add	r2, r3, #4, 0
    8750:	e58d200c 	str	r2, [sp, #12]
    8754:	e5933000 	ldr	r3, [r3]
    8758:	e3a02001 	mov	r2, #1, 0
    875c:	e58d2004 	str	r2, [sp, #4]
    8760:	e58d5000 	str	r5, [sp]
    8764:	e3a02080 	mov	r2, #128, 0	; 0x80
    8768:	e28d1010 	add	r1, sp, #16, 0
    876c:	e3a0000a 	mov	r0, #10, 0
    8770:	ebfffeb3 	bl	8244 <emit>
    8774:	e1a07000 	mov	r7, r0
    8778:	e2866001 	add	r6, r6, #1, 0
    877c:	ea00004a 	b	88ac <va_printk+0x450>
    8780:	e59d300c 	ldr	r3, [sp, #12]
    8784:	e2832004 	add	r2, r3, #4, 0
    8788:	e58d200c 	str	r2, [sp, #12]
    878c:	e5933000 	ldr	r3, [r3]
    8790:	e3a02000 	mov	r2, #0, 0
    8794:	e58d2004 	str	r2, [sp, #4]
    8798:	e58d5000 	str	r5, [sp]
    879c:	e3a02080 	mov	r2, #128, 0	; 0x80
    87a0:	e28d1010 	add	r1, sp, #16, 0
    87a4:	e3a0000a 	mov	r0, #10, 0
    87a8:	ebfffea5 	bl	8244 <emit>
    87ac:	e1a07000 	mov	r7, r0
    87b0:	eafffff0 	b	8778 <va_printk+0x31c>
    87b4:	e59d300c 	ldr	r3, [sp, #12]
    87b8:	e2832004 	add	r2, r3, #4, 0
    87bc:	e58d200c 	str	r2, [sp, #12]
    87c0:	e5933000 	ldr	r3, [r3]
    87c4:	e3a02000 	mov	r2, #0, 0
    87c8:	e58d2004 	str	r2, [sp, #4]
    87cc:	e58d5000 	str	r5, [sp]
    87d0:	e3a02080 	mov	r2, #128, 0	; 0x80
    87d4:	e28d1010 	add	r1, sp, #16, 0
    87d8:	e3a00010 	mov	r0, #16, 0
    87dc:	ebfffe98 	bl	8244 <emit>
    87e0:	e1a07000 	mov	r7, r0
    87e4:	eaffffe3 	b	8778 <va_printk+0x31c>
    87e8:	e59d300c 	ldr	r3, [sp, #12]
    87ec:	e2832004 	add	r2, r3, #4, 0
    87f0:	e58d200c 	str	r2, [sp, #12]
    87f4:	e5933000 	ldr	r3, [r3]
    87f8:	e3a02000 	mov	r2, #0, 0
    87fc:	e58d2004 	str	r2, [sp, #4]
    8800:	e58d5000 	str	r5, [sp]
    8804:	e3a02080 	mov	r2, #128, 0	; 0x80
    8808:	e28d1010 	add	r1, sp, #16, 0
    880c:	e3a00002 	mov	r0, #2, 0
    8810:	ebfffe8b 	bl	8244 <emit>
    8814:	e1a07000 	mov	r7, r0
    8818:	eaffffd6 	b	8778 <va_printk+0x31c>
    881c:	e59d300c 	ldr	r3, [sp, #12]
    8820:	e2832004 	add	r2, r3, #4, 0
    8824:	e58d200c 	str	r2, [sp, #12]
    8828:	e5937000 	ldr	r7, [r3]
    882c:	eaffffd1 	b	8778 <va_printk+0x31c>
    8830:	e59d300c 	ldr	r3, [sp, #12]
    8834:	e2832004 	add	r2, r3, #4, 0
    8838:	e58d200c 	str	r2, [sp, #12]
    883c:	e5933000 	ldr	r3, [r3]
    8840:	e3a02000 	mov	r2, #0, 0
    8844:	e58d2004 	str	r2, [sp, #4]
    8848:	e58d5000 	str	r5, [sp]
    884c:	e3a02080 	mov	r2, #128, 0	; 0x80
    8850:	e28d1010 	add	r1, sp, #16, 0
    8854:	e3a00008 	mov	r0, #8, 0
    8858:	ebfffe79 	bl	8244 <emit>
    885c:	e1a07000 	mov	r7, r0
    8860:	eaffffc4 	b	8778 <va_printk+0x31c>
    8864:	e3a03000 	mov	r3, #0, 0
    8868:	e5c63001 	strb	r3, [r6, #1]
    886c:	e1a0200a 	mov	r2, sl
    8870:	e1a0100a 	mov	r1, sl
    8874:	e59f008c 	ldr	r0, [pc, #140]	; 8908 <va_printk+0x4ac>
    8878:	ebfffe32 	bl	8148 <printk>
    887c:	e59f3088 	ldr	r3, [pc, #136]	; 890c <va_printk+0x4b0>
    8880:	e5933000 	ldr	r3, [r3]
    8884:	e59d0008 	ldr	r0, [sp, #8]
    8888:	e12fff33 	blx	r3
    888c:	e3a030e2 	mov	r3, #226, 0	; 0xe2
    8890:	e59f2044 	ldr	r2, [pc, #68]	; 88dc <va_printk+0x480>
    8894:	e59f1044 	ldr	r1, [pc, #68]	; 88e0 <va_printk+0x484>
    8898:	e59f0070 	ldr	r0, [pc, #112]	; 8910 <va_printk+0x4b4>
    889c:	ebfffe29 	bl	8148 <printk>
    88a0:	eb00001b 	bl	8914 <clean_reboot>
    88a4:	e2877001 	add	r7, r7, #1, 0
    88a8:	e4c43001 	strb	r3, [r4], #1
    88ac:	e1540008 	cmp	r4, r8
    88b0:	2afffef7 	bcs	8494 <va_printk+0x38>
    88b4:	e5d73000 	ldrb	r3, [r7]
    88b8:	e3530000 	cmp	r3, #0, 0
    88bc:	1afffff8 	bne	88a4 <va_printk+0x448>
    88c0:	eafffef3 	b	8494 <va_printk+0x38>
    88c4:	e3a03000 	mov	r3, #0, 0
    88c8:	e4c43001 	strb	r3, [r4], #1
    88cc:	e0440009 	sub	r0, r4, r9
    88d0:	e28ddf45 	add	sp, sp, #276	; 0x114
    88d4:	e8bd8ff0 	pop	{r4, r5, r6, r7, r8, r9, sl, fp, pc}
    88d8:	00008f94 	muleq	r0, r4, pc	; <UNPREDICTABLE>
    88dc:	000090ac 	andeq	r9, r0, ip, lsr #1
    88e0:	00008f3c 	andeq	r8, r0, ip, lsr pc
    88e4:	00008f50 	andeq	r8, r0, r0, asr pc
    88e8:	00008fa0 	andeq	r8, r0, r0, lsr #31
    88ec:	00008fa4 	andeq	r8, r0, r4, lsr #31
    88f0:	00008fa8 	andeq	r8, r0, r8, lsr #31
    88f4:	00008fb0 			; <UNDEFINED> instruction: 0x00008fb0
    88f8:	00008f64 	andeq	r8, r0, r4, ror #30
    88fc:	00008fb8 			; <UNDEFINED> instruction: 0x00008fb8
    8900:	00008ff4 	strdeq	r8, [r0], -r4
    8904:	0000901c 	andeq	r9, r0, ip, lsl r0
    8908:	00009044 	andeq	r9, r0, r4, asr #32
    890c:	000090c4 	andeq	r9, r0, r4, asr #1
    8910:	00009074 	andeq	r9, r0, r4, ror r0

00008914 <clean_reboot>:
    8914:	e92d4010 	push	{r4, lr}
    8918:	e59f3018 	ldr	r3, [pc, #24]	; 8938 <clean_reboot+0x24>
    891c:	e5933000 	ldr	r3, [r3]
    8920:	e59f0014 	ldr	r0, [pc, #20]	; 893c <clean_reboot+0x28>
    8924:	e12fff33 	blx	r3
    8928:	eb0000c3 	bl	8c3c <uart_flush_tx>
    892c:	e3a0000a 	mov	r0, #10, 0
    8930:	eb000047 	bl	8a54 <delay_ms>
    8934:	eb00001c 	bl	89ac <rpi_reboot>
    8938:	000090c4 	andeq	r9, r0, r4, asr #1
    893c:	000090b8 	strheq	r9, [r0], -r8

00008940 <_cstart>:
    8940:	e92d4010 	push	{r4, lr}
    8944:	eb00000c 	bl	897c <custom_loader>
    8948:	e59f3024 	ldr	r3, [pc, #36]	; 8974 <_cstart+0x34>
    894c:	e59f2024 	ldr	r2, [pc, #36]	; 8978 <_cstart+0x38>
    8950:	e1530002 	cmp	r3, r2
    8954:	33a02000 	movcc	r2, #0, 0
    8958:	34832004 	strcc	r2, [r3], #4
    895c:	3afffffa 	bcc	894c <_cstart+0xc>
    8960:	eb000057 	bl	8ac4 <uart_init>
    8964:	e3a03001 	mov	r3, #1, 0
    8968:	ee0f3f1c 	mcr	15, 0, r3, cr15, cr12, {0}
    896c:	ebfffdbc 	bl	8064 <notmain>
    8970:	ebffffe7 	bl	8914 <clean_reboot>
    8974:	000090cc 	andeq	r9, r0, ip, asr #1
    8978:	00009510 	andeq	r9, r0, r0, lsl r5

0000897c <custom_loader>:
    897c:	e12fff1e 	bx	lr

00008980 <at_user_level>:
    8980:	e10f0000 	mrs	r0, CPSR
    8984:	e200001f 	and	r0, r0, #31, 0
    8988:	e3500010 	cmp	r0, #16, 0
    898c:	13a00000 	movne	r0, #0, 0
    8990:	03a00001 	moveq	r0, #1, 0
    8994:	e12fff1e 	bx	lr

00008998 <set_user_level>:
    8998:	e10f3000 	mrs	r3, CPSR
    899c:	e3c3301f 	bic	r3, r3, #31, 0
    89a0:	e3833010 	orr	r3, r3, #16, 0
    89a4:	e129f003 	msr	CPSR_fc, r3
    89a8:	e12fff1e 	bx	lr

000089ac <rpi_reboot>:
    89ac:	e92d4010 	push	{r4, lr}
    89b0:	ebfffff2 	bl	8980 <at_user_level>
    89b4:	e3500000 	cmp	r0, #0, 0
    89b8:	1a00000a 	bne	89e8 <rpi_reboot+0x3c>
    89bc:	eb0000e6 	bl	8d5c <reboot_callout>
    89c0:	eb00009d 	bl	8c3c <uart_flush_tx>
    89c4:	e3a0000a 	mov	r0, #10, 0
    89c8:	eb000021 	bl	8a54 <delay_ms>
    89cc:	e59f101c 	ldr	r1, [pc, #28]	; 89f0 <rpi_reboot+0x44>
    89d0:	e59f001c 	ldr	r0, [pc, #28]	; 89f4 <rpi_reboot+0x48>
    89d4:	ebfffd92 	bl	8024 <PUT32>
    89d8:	e59f1018 	ldr	r1, [pc, #24]	; 89f8 <rpi_reboot+0x4c>
    89dc:	e59f0018 	ldr	r0, [pc, #24]	; 89fc <rpi_reboot+0x50>
    89e0:	ebfffd8f 	bl	8024 <PUT32>
    89e4:	eafffffe 	b	89e4 <rpi_reboot+0x38>
    89e8:	ebffffea 	bl	8998 <set_user_level>
    89ec:	eafffff2 	b	89bc <rpi_reboot+0x10>
    89f0:	5a000001 	bpl	89fc <rpi_reboot+0x50>
    89f4:	20100024 	andscs	r0, r0, r4, lsr #32
    89f8:	5a000020 	bpl	8a80 <delay_sec+0x14>
    89fc:	2010001c 	andscs	r0, r0, ip, lsl r0

00008a00 <timer_get_usec_raw>:
    8a00:	e92d4010 	push	{r4, lr}
    8a04:	e59f0004 	ldr	r0, [pc, #4]	; 8a10 <timer_get_usec_raw+0x10>
    8a08:	ebfffd87 	bl	802c <GET32>
    8a0c:	e8bd8010 	pop	{r4, pc}
    8a10:	20003004 	andcs	r3, r0, r4

00008a14 <timer_get_usec>:
    8a14:	e92d4010 	push	{r4, lr}
    8a18:	eb0000d0 	bl	8d60 <dev_barrier>
    8a1c:	ebfffff7 	bl	8a00 <timer_get_usec_raw>
    8a20:	e1a04000 	mov	r4, r0
    8a24:	eb0000cd 	bl	8d60 <dev_barrier>
    8a28:	e1a00004 	mov	r0, r4
    8a2c:	e8bd8010 	pop	{r4, pc}

00008a30 <delay_us>:
    8a30:	e92d4070 	push	{r4, r5, r6, lr}
    8a34:	e1a05000 	mov	r5, r0
    8a38:	ebfffff5 	bl	8a14 <timer_get_usec>
    8a3c:	e1a04000 	mov	r4, r0
    8a40:	ebfffff3 	bl	8a14 <timer_get_usec>
    8a44:	e0400004 	sub	r0, r0, r4
    8a48:	e1500005 	cmp	r0, r5
    8a4c:	3afffffb 	bcc	8a40 <delay_us+0x10>
    8a50:	e8bd8070 	pop	{r4, r5, r6, pc}

00008a54 <delay_ms>:
    8a54:	e92d4010 	push	{r4, lr}
    8a58:	e0603280 	rsb	r3, r0, r0, lsl #5
    8a5c:	e0800103 	add	r0, r0, r3, lsl #2
    8a60:	e1a00180 	lsl	r0, r0, #3
    8a64:	ebfffff1 	bl	8a30 <delay_us>
    8a68:	e8bd8010 	pop	{r4, pc}

00008a6c <delay_sec>:
    8a6c:	e92d4010 	push	{r4, lr}
    8a70:	e0603280 	rsb	r3, r0, r0, lsl #5
    8a74:	e0800103 	add	r0, r0, r3, lsl #2
    8a78:	e1a00180 	lsl	r0, r0, #3
    8a7c:	ebfffff4 	bl	8a54 <delay_ms>
    8a80:	e8bd8010 	pop	{r4, pc}

00008a84 <and_in32>:
    8a84:	e92d4070 	push	{r4, r5, r6, lr}
    8a88:	e1a04000 	mov	r4, r0
    8a8c:	e1a05001 	mov	r5, r1
    8a90:	ebfffd65 	bl	802c <GET32>
    8a94:	e0001005 	and	r1, r0, r5
    8a98:	e1a00004 	mov	r0, r4
    8a9c:	ebfffd60 	bl	8024 <PUT32>
    8aa0:	e8bd8070 	pop	{r4, r5, r6, pc}

00008aa4 <or_in32>:
    8aa4:	e92d4070 	push	{r4, r5, r6, lr}
    8aa8:	e1a04000 	mov	r4, r0
    8aac:	e1a05001 	mov	r5, r1
    8ab0:	ebfffd5d 	bl	802c <GET32>
    8ab4:	e1801005 	orr	r1, r0, r5
    8ab8:	e1a00004 	mov	r0, r4
    8abc:	ebfffd58 	bl	8024 <PUT32>
    8ac0:	e8bd8070 	pop	{r4, r5, r6, pc}

00008ac4 <uart_init>:
    8ac4:	e92d4010 	push	{r4, lr}
    8ac8:	e3a01002 	mov	r1, #2, 0
    8acc:	e3a0000e 	mov	r0, #14, 0
    8ad0:	eb0000a8 	bl	8d78 <gpio_set_function>
    8ad4:	e3a01002 	mov	r1, #2, 0
    8ad8:	e3a0000f 	mov	r0, #15, 0
    8adc:	eb0000a5 	bl	8d78 <gpio_set_function>
    8ae0:	eb00009e 	bl	8d60 <dev_barrier>
    8ae4:	e3a01001 	mov	r1, #1, 0
    8ae8:	e59f0064 	ldr	r0, [pc, #100]	; 8b54 <uart_init+0x90>
    8aec:	ebffffec 	bl	8aa4 <or_in32>
    8af0:	eb00009a 	bl	8d60 <dev_barrier>
    8af4:	e59f405c 	ldr	r4, [pc, #92]	; 8b58 <uart_init+0x94>
    8af8:	e3a01000 	mov	r1, #0, 0
    8afc:	e1a00004 	mov	r0, r4
    8b00:	ebfffd47 	bl	8024 <PUT32>
    8b04:	e3a01000 	mov	r1, #0, 0
    8b08:	e59f004c 	ldr	r0, [pc, #76]	; 8b5c <uart_init+0x98>
    8b0c:	ebfffd44 	bl	8024 <PUT32>
    8b10:	e3a01003 	mov	r1, #3, 0
    8b14:	e59f0044 	ldr	r0, [pc, #68]	; 8b60 <uart_init+0x9c>
    8b18:	ebfffd41 	bl	8024 <PUT32>
    8b1c:	e3a01000 	mov	r1, #0, 0
    8b20:	e59f003c 	ldr	r0, [pc, #60]	; 8b64 <uart_init+0xa0>
    8b24:	ebfffd3e 	bl	8024 <PUT32>
    8b28:	e3a010c7 	mov	r1, #199, 0	; 0xc7
    8b2c:	e59f0034 	ldr	r0, [pc, #52]	; 8b68 <uart_init+0xa4>
    8b30:	ebfffd3b 	bl	8024 <PUT32>
    8b34:	e59f1030 	ldr	r1, [pc, #48]	; 8b6c <uart_init+0xa8>
    8b38:	e59f0030 	ldr	r0, [pc, #48]	; 8b70 <uart_init+0xac>
    8b3c:	ebfffd38 	bl	8024 <PUT32>
    8b40:	e3a01003 	mov	r1, #3, 0
    8b44:	e1a00004 	mov	r0, r4
    8b48:	ebfffd35 	bl	8024 <PUT32>
    8b4c:	eb000083 	bl	8d60 <dev_barrier>
    8b50:	e8bd8010 	pop	{r4, pc}
    8b54:	20215004 	eorcs	r5, r1, r4
    8b58:	20215060 	eorcs	r5, r1, r0, rrx
    8b5c:	20215044 	eorcs	r5, r1, r4, asr #32
    8b60:	2021504c 	eorcs	r5, r1, ip, asr #32
    8b64:	20215050 	eorcs	r5, r1, r0, asr r0
    8b68:	20215048 	eorcs	r5, r1, r8, asr #32
    8b6c:	0000010e 	andeq	r0, r0, lr, lsl #2
    8b70:	20215068 	eorcs	r5, r1, r8, rrx

00008b74 <uart_can_getc>:
    8b74:	e92d4010 	push	{r4, lr}
    8b78:	e59f0008 	ldr	r0, [pc, #8]	; 8b88 <uart_can_getc+0x14>
    8b7c:	ebfffd2a 	bl	802c <GET32>
    8b80:	e2000001 	and	r0, r0, #1, 0
    8b84:	e8bd8010 	pop	{r4, pc}
    8b88:	20215064 	eorcs	r5, r1, r4, rrx

00008b8c <uart_can_putc>:
    8b8c:	e92d4010 	push	{r4, lr}
    8b90:	e59f0010 	ldr	r0, [pc, #16]	; 8ba8 <uart_can_putc+0x1c>
    8b94:	ebfffd24 	bl	802c <GET32>
    8b98:	e3100002 	tst	r0, #2, 0
    8b9c:	13a00001 	movne	r0, #1, 0
    8ba0:	03a00000 	moveq	r0, #0, 0
    8ba4:	e8bd8010 	pop	{r4, pc}
    8ba8:	20215064 	eorcs	r5, r1, r4, rrx

00008bac <uart_getc>:
    8bac:	e92d4010 	push	{r4, lr}
    8bb0:	eb00006a 	bl	8d60 <dev_barrier>
    8bb4:	ebffffee 	bl	8b74 <uart_can_getc>
    8bb8:	e3500000 	cmp	r0, #0, 0
    8bbc:	0afffffc 	beq	8bb4 <uart_getc+0x8>
    8bc0:	e59f0010 	ldr	r0, [pc, #16]	; 8bd8 <uart_getc+0x2c>
    8bc4:	ebfffd18 	bl	802c <GET32>
    8bc8:	e6ef4070 	uxtb	r4, r0
    8bcc:	eb000063 	bl	8d60 <dev_barrier>
    8bd0:	e1a00004 	mov	r0, r4
    8bd4:	e8bd8010 	pop	{r4, pc}
    8bd8:	20215040 	eorcs	r5, r1, r0, asr #32

00008bdc <uart_putc>:
    8bdc:	e92d4010 	push	{r4, lr}
    8be0:	e1a04000 	mov	r4, r0
    8be4:	eb00005d 	bl	8d60 <dev_barrier>
    8be8:	ebffffe7 	bl	8b8c <uart_can_putc>
    8bec:	e3500000 	cmp	r0, #0, 0
    8bf0:	0afffffc 	beq	8be8 <uart_putc+0xc>
    8bf4:	e6ef1074 	uxtb	r1, r4
    8bf8:	e59f0008 	ldr	r0, [pc, #8]	; 8c08 <uart_putc+0x2c>
    8bfc:	ebfffd08 	bl	8024 <PUT32>
    8c00:	eb000056 	bl	8d60 <dev_barrier>
    8c04:	e8bd8010 	pop	{r4, pc}
    8c08:	20215040 	eorcs	r5, r1, r0, asr #32

00008c0c <uart_has_data>:
    8c0c:	e92d4010 	push	{r4, lr}
    8c10:	eb000052 	bl	8d60 <dev_barrier>
    8c14:	ebffffd6 	bl	8b74 <uart_can_getc>
    8c18:	e8bd8010 	pop	{r4, pc}

00008c1c <uart_tx_is_empty>:
    8c1c:	e92d4010 	push	{r4, lr}
    8c20:	eb00004e 	bl	8d60 <dev_barrier>
    8c24:	e59f000c 	ldr	r0, [pc, #12]	; 8c38 <uart_tx_is_empty+0x1c>
    8c28:	ebfffcff 	bl	802c <GET32>
    8c2c:	e1a004a0 	lsr	r0, r0, #9
    8c30:	e2000001 	and	r0, r0, #1, 0
    8c34:	e8bd8010 	pop	{r4, pc}
    8c38:	20215064 	eorcs	r5, r1, r4, rrx

00008c3c <uart_flush_tx>:
    8c3c:	e92d4010 	push	{r4, lr}
    8c40:	ebfffff5 	bl	8c1c <uart_tx_is_empty>
    8c44:	e3500000 	cmp	r0, #0, 0
    8c48:	0afffffc 	beq	8c40 <uart_flush_tx+0x4>
    8c4c:	e8bd8010 	pop	{r4, pc}

00008c50 <uart_disable>:
    8c50:	e92d4010 	push	{r4, lr}
    8c54:	ebfffff8 	bl	8c3c <uart_flush_tx>
    8c58:	eb000040 	bl	8d60 <dev_barrier>
    8c5c:	e3e01001 	mvn	r1, #1, 0
    8c60:	e59f0008 	ldr	r0, [pc, #8]	; 8c70 <uart_disable+0x20>
    8c64:	ebffff86 	bl	8a84 <and_in32>
    8c68:	eb00003c 	bl	8d60 <dev_barrier>
    8c6c:	e8bd8010 	pop	{r4, pc}
    8c70:	20215004 	eorcs	r5, r1, r4

00008c74 <internal_putchar>:
    8c74:	e92d4010 	push	{r4, lr}
    8c78:	e1a04000 	mov	r4, r0
    8c7c:	ebffffd6 	bl	8bdc <uart_putc>
    8c80:	e1a00004 	mov	r0, r4
    8c84:	e8bd8010 	pop	{r4, pc}

00008c88 <rpi_reset_putc>:
    8c88:	e59f3008 	ldr	r3, [pc, #8]	; 8c98 <rpi_reset_putc+0x10>
    8c8c:	e59f2008 	ldr	r2, [pc, #8]	; 8c9c <rpi_reset_putc+0x14>
    8c90:	e5832000 	str	r2, [r3]
    8c94:	e12fff1e 	bx	lr
    8c98:	000090c8 	andeq	r9, r0, r8, asr #1
    8c9c:	00008c74 	andeq	r8, r0, r4, ror ip

00008ca0 <rpi_set_putc>:
    8ca0:	e59f3004 	ldr	r3, [pc, #4]	; 8cac <rpi_set_putc+0xc>
    8ca4:	e5830000 	str	r0, [r3]
    8ca8:	e12fff1e 	bx	lr
    8cac:	000090c8 	andeq	r9, r0, r8, asr #1

00008cb0 <strcat>:
    8cb0:	e1a02000 	mov	r2, r0
    8cb4:	e1a03002 	mov	r3, r2
    8cb8:	e2822001 	add	r2, r2, #1, 0
    8cbc:	e5d3c000 	ldrb	ip, [r3]
    8cc0:	e35c0000 	cmp	ip, #0, 0
    8cc4:	1afffffa 	bne	8cb4 <strcat+0x4>
    8cc8:	e2433001 	sub	r3, r3, #1, 0
    8ccc:	e5d12000 	ldrb	r2, [r1]
    8cd0:	e2811001 	add	r1, r1, #1, 0
    8cd4:	e5e32001 	strb	r2, [r3, #1]!
    8cd8:	e3520000 	cmp	r2, #0, 0
    8cdc:	1afffffa 	bne	8ccc <strcat+0x1c>
    8ce0:	e12fff1e 	bx	lr

00008ce4 <strcmp>:
    8ce4:	e5d03000 	ldrb	r3, [r0]
    8ce8:	e3530000 	cmp	r3, #0, 0
    8cec:	0a000004 	beq	8d04 <strcmp+0x20>
    8cf0:	e5d12000 	ldrb	r2, [r1]
    8cf4:	e1530002 	cmp	r3, r2
    8cf8:	02800001 	addeq	r0, r0, #1, 0
    8cfc:	02811001 	addeq	r1, r1, #1, 0
    8d00:	0afffff7 	beq	8ce4 <strcmp>
    8d04:	e5d10000 	ldrb	r0, [r1]
    8d08:	e0430000 	sub	r0, r3, r0
    8d0c:	e12fff1e 	bx	lr

00008d10 <strcpy>:
    8d10:	e1a0c000 	mov	ip, r0
    8d14:	e5d12000 	ldrb	r2, [r1]
    8d18:	e2811001 	add	r1, r1, #1, 0
    8d1c:	e5cc2000 	strb	r2, [ip]
    8d20:	e28cc001 	add	ip, ip, #1, 0
    8d24:	e3520000 	cmp	r2, #0, 0
    8d28:	1afffff9 	bne	8d14 <strcpy+0x4>
    8d2c:	e12fff1e 	bx	lr

00008d30 <strncmp>:
    8d30:	e3520000 	cmp	r2, #0, 0
    8d34:	e2422001 	sub	r2, r2, #1, 0
    8d38:	0a000005 	beq	8d54 <strncmp+0x24>
    8d3c:	e4d03001 	ldrb	r3, [r0], #1
    8d40:	e4d1c001 	ldrb	ip, [r1], #1
    8d44:	e153000c 	cmp	r3, ip
    8d48:	0afffff8 	beq	8d30 <strncmp>
    8d4c:	e043000c 	sub	r0, r3, ip
    8d50:	e12fff1e 	bx	lr
    8d54:	e3a00000 	mov	r0, #0, 0
    8d58:	e12fff1e 	bx	lr

00008d5c <reboot_callout>:
    8d5c:	e12fff1e 	bx	lr

00008d60 <dev_barrier>:
    8d60:	ea000002 	b	8d70 <dsb>

00008d64 <dmb>:
    8d64:	e3a00000 	mov	r0, #0, 0
    8d68:	ee070fba 	mcr	15, 0, r0, cr7, cr10, {5}
    8d6c:	e12fff1e 	bx	lr

00008d70 <dsb>:
    8d70:	ee070f9a 	mcr	15, 0, r0, cr7, cr10, {4}
    8d74:	e12fff1e 	bx	lr

00008d78 <gpio_set_function>:
    8d78:	e350001f 	cmp	r0, #31, 0
    8d7c:	812fff1e 	bxhi	lr
    8d80:	e92d4070 	push	{r4, r5, r6, lr}
    8d84:	e1a05001 	mov	r5, r1
    8d88:	e3d13007 	bics	r3, r1, #7, 0
    8d8c:	18bd8070 	popne	{r4, r5, r6, pc}
    8d90:	e59f3040 	ldr	r3, [pc, #64]	; 8dd8 <gpio_set_function+0x60>
    8d94:	e0832093 	umull	r2, r3, r3, r0
    8d98:	e1a031a3 	lsr	r3, r3, #3
    8d9c:	e1a02003 	mov	r2, r3
    8da0:	e0833103 	add	r3, r3, r3, lsl #2
    8da4:	e0403083 	sub	r3, r0, r3, lsl #1
    8da8:	e0834083 	add	r4, r3, r3, lsl #1
    8dac:	e2820302 	add	r0, r2, #134217728	; 0x8000000
    8db0:	e2800702 	add	r0, r0, #524288	; 0x80000
    8db4:	e1a06100 	lsl	r6, r0, #2
    8db8:	e1a00006 	mov	r0, r6
    8dbc:	ebfffc9a 	bl	802c <GET32>
    8dc0:	e3a01007 	mov	r1, #7, 0
    8dc4:	e1c01411 	bic	r1, r0, r1, lsl r4
    8dc8:	e1811415 	orr	r1, r1, r5, lsl r4
    8dcc:	e1a00006 	mov	r0, r6
    8dd0:	ebfffc93 	bl	8024 <PUT32>
    8dd4:	e8bd8070 	pop	{r4, r5, r6, pc}
    8dd8:	cccccccd 	stclgt	12, cr12, [ip], {205}	; 0xcd

00008ddc <gpio_set_output>:
    8ddc:	e92d4010 	push	{r4, lr}
    8de0:	e3a01001 	mov	r1, #1, 0
    8de4:	ebffffe3 	bl	8d78 <gpio_set_function>
    8de8:	e8bd8010 	pop	{r4, pc}

00008dec <gpio_set_on>:
    8dec:	e350001f 	cmp	r0, #31, 0
    8df0:	812fff1e 	bxhi	lr
    8df4:	e92d4010 	push	{r4, lr}
    8df8:	e3a01001 	mov	r1, #1, 0
    8dfc:	e1a01011 	lsl	r1, r1, r0
    8e00:	e59f0004 	ldr	r0, [pc, #4]	; 8e0c <gpio_set_on+0x20>
    8e04:	ebfffc86 	bl	8024 <PUT32>
    8e08:	e8bd8010 	pop	{r4, pc}
    8e0c:	2020001c 	eorcs	r0, r0, ip, lsl r0

00008e10 <gpio_set_off>:
    8e10:	e350001f 	cmp	r0, #31, 0
    8e14:	812fff1e 	bxhi	lr
    8e18:	e92d4010 	push	{r4, lr}
    8e1c:	e3a01001 	mov	r1, #1, 0
    8e20:	e1a01011 	lsl	r1, r1, r0
    8e24:	e59f0004 	ldr	r0, [pc, #4]	; 8e30 <gpio_set_off+0x20>
    8e28:	ebfffc7d 	bl	8024 <PUT32>
    8e2c:	e8bd8010 	pop	{r4, pc}
    8e30:	20200028 	eorcs	r0, r0, r8, lsr #32

00008e34 <gpio_set_input>:
    8e34:	e92d4010 	push	{r4, lr}
    8e38:	e3a01000 	mov	r1, #0, 0
    8e3c:	ebffffcd 	bl	8d78 <gpio_set_function>
    8e40:	e8bd8010 	pop	{r4, pc}

00008e44 <gpio_write>:
    8e44:	e92d4010 	push	{r4, lr}
    8e48:	e3510000 	cmp	r1, #0, 0
    8e4c:	0a000001 	beq	8e58 <gpio_write+0x14>
    8e50:	ebffffe5 	bl	8dec <gpio_set_on>
    8e54:	e8bd8010 	pop	{r4, pc}
    8e58:	ebffffec 	bl	8e10 <gpio_set_off>
    8e5c:	e8bd8010 	pop	{r4, pc}

00008e60 <gpio_read>:
    8e60:	e350001f 	cmp	r0, #31, 0
    8e64:	8a000007 	bhi	8e88 <gpio_read+0x28>
    8e68:	e92d4010 	push	{r4, lr}
    8e6c:	e200401f 	and	r4, r0, #31, 0
    8e70:	e59f3018 	ldr	r3, [pc, #24]	; 8e90 <gpio_read+0x30>
    8e74:	e08302a0 	add	r0, r3, r0, lsr #5
    8e78:	ebfffc6b 	bl	802c <GET32>
    8e7c:	e1a00430 	lsr	r0, r0, r4
    8e80:	e2000001 	and	r0, r0, #1, 0
    8e84:	e8bd8010 	pop	{r4, pc}
    8e88:	e3e00000 	mvn	r0, #0, 0
    8e8c:	e12fff1e 	bx	lr
    8e90:	20200034 	eorcs	r0, r0, r4, lsr r0

00008e94 <__code_end__>:
    8e94:	00000000 	andeq	r0, r0, r0

Disassembly of section .rodata:

00008e98 <__FUNCTION__.4000-0x1fc>:
    8e98:	6c6c6568 	cfstr64vs	mvdx6, [ip], #-416	; 0xfffffe60
    8e9c:	6f77206f 	svcvs	0x0077206f
    8ea0:	7e646c72 	mcrvc	12, 3, r6, cr4, cr2, {3}
    8ea4:	000a2121 	andeq	r2, sl, r1, lsr #2
    8ea8:	206f6f66 	rsbcs	r6, pc, r6, ror #30
    8eac:	20736177 	rsbscs	r6, r3, r7, ror r1
    8eb0:	73736170 	cmnvc	r3, #28
    8eb4:	25206465 	strcs	r6, [r0, #-1125]!	; 0xfffffb9b
    8eb8:	00000a64 	andeq	r0, r0, r4, ror #20
    8ebc:	6c6c6568 	cfstr64vs	mvdx6, [ip], #-416	; 0xfffffe60
    8ec0:	6f77206f 	svcvs	0x0077206f
    8ec4:	20646c72 	rsbcs	r6, r4, r2, ror ip
    8ec8:	6d6f7266 	sfmvs	f7, 2, [pc, #-408]!	; 8d38 <strncmp+0x8>
    8ecc:	21656d20 	cmncs	r5, r0, lsr #26
    8ed0:	0000000a 	andeq	r0, r0, sl
    8ed4:	74696d65 	strbtvc	r6, [r9], #-3429	; 0xfffff29b
    8ed8:	20646574 	rsbcs	r6, r4, r4, ror r5
    8edc:	65646f63 	strbvs	r6, [r4, #-3939]!	; 0xfffff09d
    8ee0:	00000a3a 	andeq	r0, r0, sl, lsr sl
    8ee4:	65646f63 	strbvs	r6, [r4, #-3939]!	; 0xfffff09d
    8ee8:	5d64255b 	cfstr64pl	mvdx2, [r4, #-364]!	; 0xfffffe94
    8eec:	0a78253d 	beq	1e123e8 <__bss_end__+0x1e08ed8>
    8ef0:	00000000 	andeq	r0, r0, r0
    8ef4:	756f6261 	strbvc	r6, [pc, #-609]!	; 8c9b <rpi_reset_putc+0x13>
    8ef8:	6f742074 	svcvs	0x00742074
    8efc:	6c616320 	stclvs	3, cr6, [r1], #-128	; 0xffffff80
    8f00:	25203a6c 	strcs	r3, [r0, #-2668]!	; 0xfffff594
    8f04:	00000a78 	andeq	r0, r0, r8, ror sl
    8f08:	2d2d2d2d 	stccs	13, cr2, [sp, #-180]!	; 0xffffff4c
    8f0c:	2d2d2d2d 	stccs	13, cr2, [sp, #-180]!	; 0xffffff4c
    8f10:	2d2d2d2d 	stccs	13, cr2, [sp, #-180]!	; 0xffffff4c
    8f14:	2d2d2d2d 	stccs	13, cr2, [sp, #-180]!	; 0xffffff4c
    8f18:	2d2d2d2d 	stccs	13, cr2, [sp, #-180]!	; 0xffffff4c
    8f1c:	2d2d2d2d 	stccs	13, cr2, [sp, #-180]!	; 0xffffff4c
    8f20:	2d2d2d2d 	stccs	13, cr2, [sp, #-180]!	; 0xffffff4c
    8f24:	2d2d2d2d 	stccs	13, cr2, [sp, #-180]!	; 0xffffff4c
    8f28:	2d2d2d2d 	stccs	13, cr2, [sp, #-180]!	; 0xffffff4c
    8f2c:	000a2d2d 	andeq	r2, sl, sp, lsr #26
    8f30:	63637573 	cmnvs	r3, #482344960	; 0x1cc00000
    8f34:	21737365 	cmncs	r3, r5, ror #6
    8f38:	0000000a 	andeq	r0, r0, sl
    8f3c:	696c2f2e 	stmdbvs	ip!, {r1, r2, r3, r5, r8, r9, sl, fp, sp}^
    8f40:	762f6362 	strtvc	r6, [pc], -r2, ror #6
    8f44:	72702d61 	rsbsvc	r2, r0, #6208	; 0x1840
    8f48:	6b746e69 	blvs	1d248f4 <__bss_end__+0x1d1b3e4>
    8f4c:	0000632e 	andeq	r6, r0, lr, lsr #6
    8f50:	494e4150 	stmdbmi	lr, {r4, r6, r8, lr}^
    8f54:	73253a43 			; <UNDEFINED> instruction: 0x73253a43
    8f58:	3a73253a 	bcc	1cd2448 <__bss_end__+0x1cc8f38>
    8f5c:	253a6425 	ldrcs	r6, [sl, #-1061]!	; 0xfffffbdb
    8f60:	00000a73 	andeq	r0, r0, r3, ror sl
    8f64:	00000030 	andeq	r0, r0, r0, lsr r0
    8f68:	33323130 	teqcc	r2, #12
    8f6c:	37363534 			; <UNDEFINED> instruction: 0x37363534
    8f70:	00003938 	andeq	r3, r0, r8, lsr r9
    8f74:	33323130 	teqcc	r2, #12
    8f78:	37363534 			; <UNDEFINED> instruction: 0x37363534
    8f7c:	62613938 	rsbvs	r3, r1, #56, 18	; 0xe0000
    8f80:	66656463 	strbtvs	r6, [r5], -r3, ror #8
    8f84:	00000000 	andeq	r0, r0, r0
    8f88:	00003130 	andeq	r3, r0, r0, lsr r1
    8f8c:	63747570 	cmnvs	r4, #112, 10	; 0x1c000000
    8f90:	0070665f 	rsbseq	r6, r0, pc, asr r6
    8f94:	74646977 	strbtvc	r6, [r4], #-2423	; 0xfffff689
    8f98:	203c2068 	eorscs	r2, ip, r8, rrx
    8f9c:	00003233 	andeq	r3, r0, r3, lsr r2
    8fa0:	00786c6c 	rsbseq	r6, r8, ip, ror #24
    8fa4:	00646c6c 	rsbeq	r6, r4, ip, ror #24
    8fa8:	253d3078 	ldrcs	r3, [sp, #-120]!	; 0xffffff88
    8fac:	00000a78 	andeq	r0, r0, r8, ror sl
    8fb0:	253d3178 	ldrcs	r3, [sp, #-376]!	; 0xfffffe88
    8fb4:	00000a78 	andeq	r0, r0, r8, ror sl
    8fb8:	6e727473 	mrcvs	4, 3, r7, cr2, cr3, {3}
    8fbc:	28706d63 	ldmdacs	r0!, {r0, r1, r5, r6, r8, sl, fp, sp, lr}^
    8fc0:	202c7974 	eorcs	r7, ip, r4, ror r9
    8fc4:	786c6c22 	stmdavc	ip!, {r1, r5, sl, fp, sp, lr}^
    8fc8:	33202c22 			; <UNDEFINED> instruction: 0x33202c22
    8fcc:	3d3d2029 	ldccc	0, cr2, [sp, #-164]!	; 0xffffff5c
    8fd0:	7c203020 	stcvc	0, cr3, [r0], #-128	; 0xffffff80
    8fd4:	7473207c 	ldrbtvc	r2, [r3], #-124	; 0xffffff84
    8fd8:	6d636e72 	stclvs	14, cr6, [r3, #-456]!	; 0xfffffe38
    8fdc:	79742870 	ldmdbvc	r4!, {r4, r5, r6, fp, sp}^
    8fe0:	6c22202c 	stcvs	0, cr2, [r2], #-176	; 0xffffff50
    8fe4:	2c22646c 	cfstrscs	mvf6, [r2], #-432	; 0xfffffe50
    8fe8:	20293320 	eorcs	r3, r9, r0, lsr #6
    8fec:	30203d3d 	eorcc	r3, r0, sp, lsr sp
    8ff0:	00000000 	andeq	r0, r0, r0
    8ff4:	494e4150 	stmdbmi	lr, {r4, r6, r8, lr}^
    8ff8:	73253a43 			; <UNDEFINED> instruction: 0x73253a43
    8ffc:	3a73253a 	bcc	1cd24ec <__bss_end__+0x1cc8fdc>
    9000:	693a6425 	ldmdbvs	sl!, {r0, r2, r5, sl, sp, lr}
    9004:	736f706d 	cmnvc	pc, #109, 0	; 0x6d
    9008:	6c626973 			; <UNDEFINED> instruction: 0x6c626973
    900c:	66203a65 	strtvs	r3, [r0], -r5, ror #20
    9010:	3c3d746d 	cfldrscc	mvf7, [sp], #-436	; 0xfffffe4c
    9014:	0a3e7325 	beq	fa5cb0 <__bss_end__+0xf9c7a0>
    9018:	0000000a 	andeq	r0, r0, sl
    901c:	494e4150 	stmdbmi	lr, {r4, r6, r8, lr}^
    9020:	73253a43 			; <UNDEFINED> instruction: 0x73253a43
    9024:	3a73253a 	bcc	1cd2514 <__bss_end__+0x1cc9004>
    9028:	663a6425 	ldrtvs	r6, [sl], -r5, lsr #8
    902c:	74616f6c 	strbtvc	r6, [r1], #-3948	; 0xfffff094
    9030:	746f6e20 	strbtvc	r6, [pc], #-3616	; 9038 <__code_end__+0x1a4>
    9034:	616e6520 	cmnvs	lr, r0, lsr #10
    9038:	64656c62 	strbtvs	r6, [r5], #-3170	; 0xfffff39e
    903c:	0a212121 	beq	8514c8 <__bss_end__+0x847fb8>
    9040:	00000000 	andeq	r0, r0, r0
    9044:	6e697270 	mcrvs	2, 3, r7, cr9, cr0, {3}
    9048:	203a6b74 	eorscs	r6, sl, r4, ror fp
    904c:	20746f6e 	rsbscs	r6, r4, lr, ror #30
    9050:	646e6168 	strbtvs	r6, [lr], #-360	; 0xfffffe98
    9054:	676e696c 	strbvs	r6, [lr, -ip, ror #18]!
    9058:	65707320 	ldrbvs	r7, [r0, #-800]!	; 0xfffffce0
    905c:	69666963 	stmdbvs	r6!, {r0, r1, r5, r6, r8, fp, sp, lr}^
    9060:	27207265 	strcs	r7, [r0, -r5, ror #4]!
    9064:	20276325 	eorcs	r6, r7, r5, lsr #6
    9068:	63736128 	cmnvs	r3, #10
    906c:	253d6969 	ldrcs	r6, [sp, #-2409]!	; 0xfffff697
    9070:	000a2964 	andeq	r2, sl, r4, ror #18
    9074:	494e4150 	stmdbmi	lr, {r4, r6, r8, lr}^
    9078:	73253a43 			; <UNDEFINED> instruction: 0x73253a43
    907c:	3a73253a 	bcc	1cd256c <__bss_end__+0x1cc905c>
    9080:	703a6425 	eorsvc	r6, sl, r5, lsr #8
    9084:	746e6972 	strbtvc	r6, [lr], #-2418	; 0xfffff68e
    9088:	7265206b 	rsbvc	r2, r5, #107, 0	; 0x6b
    908c:	0a726f72 	beq	1ca4e5c <__bss_end__+0x1c9b94c>
    9090:	0000000a 	andeq	r0, r0, sl

00009094 <__FUNCTION__.4000>:
    9094:	74696d65 	strbtvc	r6, [r9], #-3429	; 0xfffff29b
    9098:	00000000 	andeq	r0, r0, r0

0000909c <__FUNCTION__.3948>:
    909c:	5f697072 	svcpl	0x00697072
    90a0:	5f746573 	svcpl	0x00746573
    90a4:	7074756f 	rsbsvc	r7, r4, pc, ror #10
    90a8:	00007475 	andeq	r7, r0, r5, ror r4

000090ac <__FUNCTION__.4026>:
    90ac:	705f6176 	subsvc	r6, pc, r6, ror r1	; <UNPREDICTABLE>
    90b0:	746e6972 	strbtvc	r6, [lr], #-2418	; 0xfffff68e
    90b4:	0000006b 	andeq	r0, r0, fp, rrx
    90b8:	454e4f44 	strbmi	r4, [lr, #-3908]	; 0xfffff0bc
    90bc:	0a212121 	beq	851548 <__bss_end__+0x848038>
	...

Disassembly of section .data:

000090c4 <putk>:
    90c4:	000081a0 	andeq	r8, r0, r0, lsr #3

000090c8 <rpi_putchar>:
    90c8:	00008c74 	andeq	r8, r0, r4, ror ip

Disassembly of section .bss:

000090cc <__bss_start__>:
	...

0000910c <buf.3940>:
	...

Disassembly of section .ARM.attributes:

00000000 <.ARM.attributes>:
   0:	00002a41 	andeq	r2, r0, r1, asr #20
   4:	61656100 	cmnvs	r5, r0, lsl #2
   8:	01006962 	tsteq	r0, r2, ror #18
   c:	00000020 	andeq	r0, r0, r0, lsr #32
  10:	4b5a3605 	blmi	168d82c <__bss_end__+0x168431c>
  14:	08070600 	stmdaeq	r7, {r9, sl}
  18:	12010901 	andne	r0, r1, #16384	; 0x4000
  1c:	15011404 	strne	r1, [r1, #-1028]	; 0xfffffbfc
  20:	18031701 	stmdane	r3, {r0, r8, r9, sl, ip}
  24:	22011a01 	andcs	r1, r1, #4096	; 0x1000
  28:	Address 0x0000000000000028 is out of bounds.


Disassembly of section .comment:

00000000 <.comment>:
   0:	3a434347 	bcc	10d0d24 <__bss_end__+0x10c7814>
   4:	4e472820 	cdpmi	8, 4, cr2, cr7, cr0, {1}
   8:	6f542055 	svcvs	0x00542055
   c:	20736c6f 	rsbscs	r6, r3, pc, ror #24
  10:	20726f66 	rsbscs	r6, r2, r6, ror #30
  14:	206d7241 	rsbcs	r7, sp, r1, asr #4
  18:	65626d45 	strbvs	r6, [r2, #-3397]!	; 0xfffff2bb
  1c:	64656464 	strbtvs	r6, [r5], #-1124	; 0xfffffb9c
  20:	6f725020 	svcvs	0x00725020
  24:	73736563 	cmnvc	r3, #415236096	; 0x18c00000
  28:	2073726f 	rsbscs	r7, r3, pc, ror #4
  2c:	30322d39 	eorscc	r2, r2, r9, lsr sp
  30:	712d3931 			; <UNDEFINED> instruction: 0x712d3931
  34:	616d2d34 	cmnvs	sp, r4, lsr sp
  38:	29726f6a 	ldmdbcs	r2!, {r1, r3, r5, r6, r8, r9, sl, fp, sp, lr}^
  3c:	322e3920 	eorcc	r3, lr, #32, 18	; 0x80000
  40:	3220312e 	eorcc	r3, r0, #-2147483637	; 0x8000000b
  44:	31393130 	teqcc	r9, r0, lsr r1
  48:	20353230 	eorscs	r3, r5, r0, lsr r2
  4c:	6c657228 	sfmvs	f7, 2, [r5], #-160	; 0xffffff60
  50:	65736165 	ldrbvs	r6, [r3, #-357]!	; 0xfffffe9b
  54:	415b2029 	cmpmi	fp, r9, lsr #32
  58:	612f4d52 			; <UNDEFINED> instruction: 0x612f4d52
  5c:	392d6d72 	pushcc	{r1, r4, r5, r6, r8, sl, fp, sp, lr}
  60:	6172622d 	cmnvs	r2, sp, lsr #4
  64:	2068636e 	rsbcs	r6, r8, lr, ror #6
  68:	69766572 	ldmdbvs	r6!, {r1, r4, r5, r6, r8, sl, sp, lr}^
  6c:	6e6f6973 			; <UNDEFINED> instruction: 0x6e6f6973
  70:	37373220 	ldrcc	r3, [r7, -r0, lsr #4]!
  74:	5d393935 			; <UNDEFINED> instruction: 0x5d393935
  78:	43434700 	movtmi	r4, #14080	; 0x3700
  7c:	4728203a 			; <UNDEFINED> instruction: 0x4728203a
  80:	4120554e 			; <UNDEFINED> instruction: 0x4120554e
  84:	45206d72 	strmi	r6, [r0, #-3442]!	; 0xfffff28e
  88:	6465626d 	strbtvs	r6, [r5], #-621	; 0xfffffd93
  8c:	20646564 	rsbcs	r6, r4, r4, ror #10
  90:	6c6f6f54 	stclvs	15, cr6, [pc], #-336	; ffffff48 <__bss_end__+0xffff6a38>
  94:	69616863 	stmdbvs	r1!, {r0, r1, r5, r6, fp, sp, lr}^
  98:	3031206e 	eorscc	r2, r1, lr, rrx
  9c:	322d332e 	eorcc	r3, sp, #-1207959552	; 0xb8000000
  a0:	2e313230 	mrccs	2, 1, r3, cr1, cr0, {1}
  a4:	20293031 	eorcs	r3, r9, r1, lsr r0
  a8:	332e3031 			; <UNDEFINED> instruction: 0x332e3031
  ac:	3220312e 	eorcc	r3, r0, #-2147483637	; 0x8000000b
  b0:	30313230 	eorscc	r3, r1, r0, lsr r2
  b4:	20343238 	eorscs	r3, r4, r8, lsr r2
  b8:	6c657228 	sfmvs	f7, 2, [r5], #-160	; 0xffffff60
  bc:	65736165 	ldrbvs	r6, [r3, #-357]!	; 0xfffffe9b
  c0:	Address 0x00000000000000c0 is out of bounds.


Disassembly of section .debug_info:

00000000 <.debug_info>:
       0:	0000040b 	andeq	r0, r0, fp, lsl #8
       4:	00000004 	andeq	r0, r0, r4
       8:	01040000 	mrseq	r0, (UNDEF: 4)
       c:	00000148 	andeq	r0, r0, r8, asr #2
      10:	00023c0c 	andeq	r3, r2, ip, lsl #24
      14:	00000700 	andeq	r0, r0, r0, lsl #14
      18:	00803800 	addeq	r3, r0, r0, lsl #16
      1c:	00011000 	andeq	r1, r1, r0
      20:	00000000 	andeq	r0, r0, r0
      24:	05040200 	streq	r0, [r4, #-512]	; 0xfffffe00
      28:	00746e69 	rsbseq	r6, r4, r9, ror #28
      2c:	ef070403 	svc	0x00070403
      30:	03000000 	movweq	r0, #0
      34:	00af0601 	adceq	r0, pc, r1, lsl #12
      38:	02030000 	andeq	r0, r3, #0, 0
      3c:	00004805 	andeq	r4, r0, r5, lsl #16
      40:	01040400 	tsteq	r4, r0, lsl #8
      44:	28030000 	stmdacs	r3, {}	; <UNPREDICTABLE>
      48:	00004d18 	andeq	r4, r0, r8, lsl sp
      4c:	05040300 	streq	r0, [r4, #-768]	; 0xfffffd00
      50:	0000007f 	andeq	r0, r0, pc, ror r0
      54:	7a050803 	bvc	142068 <__bss_end__+0x138b58>
      58:	03000000 	movweq	r0, #0
      5c:	00ad0801 	adceq	r0, sp, r1, lsl #16
      60:	02030000 	andeq	r0, r3, #0, 0
      64:	00012007 	andeq	r2, r1, r7
      68:	01030400 	tsteq	r3, r0, lsl #8
      6c:	34030000 	strcc	r0, [r3], #-0
      70:	00007519 	andeq	r7, r0, r9, lsl r5
      74:	07040300 	streq	r0, [r4, -r0, lsl #6]
      78:	000000ea 	andeq	r0, r0, sl, ror #1
      7c:	e5070803 	str	r0, [r7, #-2051]	; 0xfffff7fd
      80:	05000000 	streq	r0, [r0, #-0]
      84:	00000025 	andeq	r0, r0, r5, lsr #32
      88:	00000092 	muleq	r0, r2, r0
      8c:	00002506 	andeq	r2, r0, r6, lsl #10
      90:	58070000 	stmdapl	r7, {}	; <UNPREDICTABLE>
      94:	04000000 	streq	r0, [r0], #-0
      98:	009e0e1c 	addseq	r0, lr, ip, lsl lr
      9c:	04080000 	streq	r0, [r8], #-0
      a0:	00000083 	andeq	r0, r0, r3, lsl #1
      a4:	00002505 	andeq	r2, r0, r5, lsl #10
      a8:	0000b300 	andeq	fp, r0, r0, lsl #6
      ac:	00b30600 	adcseq	r0, r3, r0, lsl #12
      b0:	08000000 	stmdaeq	r0, {}	; <UNPREDICTABLE>
      b4:	0000c004 	andeq	ip, r0, r4
      b8:	08010300 	stmdaeq	r1, {r8, r9}
      bc:	000000b6 	strheq	r0, [r0], -r6
      c0:	0000b909 	andeq	fp, r0, r9, lsl #18
      c4:	02b10700 	adcseq	r0, r1, #0, 14
      c8:	21040000 	mrscs	r0, (UNDEF: 4)
      cc:	0000d10e 	andeq	sp, r0, lr, lsl #2
      d0:	a4040800 	strge	r0, [r4], #-2048	; 0xfffff800
      d4:	0a000000 	beq	dc <__code_start__-0x7f24>
      d8:	005b0107 	subseq	r0, fp, r7, lsl #2
      dc:	07020000 	streq	r0, [r2, -r0]
      e0:	00015806 	andeq	r5, r1, r6, lsl #16
      e4:	00bb0b00 	adcseq	r0, fp, r0, lsl #22
      e8:	0b000000 	bleq	f0 <__code_start__-0x7f10>
      ec:	000000c2 	andeq	r0, r0, r2, asr #1
      f0:	00c90b01 	sbceq	r0, r9, r1, lsl #22
      f4:	0b020000 	bleq	800fc <__bss_end__+0x76bec>
      f8:	000000d0 	ldrdeq	r0, [r0], -r0	; <UNPREDICTABLE>
      fc:	00d70b03 	sbcseq	r0, r7, r3, lsl #22
     100:	0b040000 	bleq	100108 <__bss_end__+0xf6bf8>
     104:	00000141 	andeq	r0, r0, r1, asr #2
     108:	00de0b05 	sbcseq	r0, lr, r5, lsl #22
     10c:	0b060000 	bleq	180114 <__bss_end__+0x176c04>
     110:	000001fd 	strdeq	r0, [r0], -sp
     114:	00fc0b07 	rscseq	r0, ip, r7, lsl #22
     118:	0b080000 	bleq	200120 <__bss_end__+0x1f6c10>
     11c:	0000013a 	andeq	r0, r0, sl, lsr r1
     120:	02040b09 	andeq	r0, r4, #9216	; 0x2400
     124:	0b0a0000 	bleq	28012c <__bss_end__+0x276c1c>
     128:	0000020c 	andeq	r0, r0, ip, lsl #4
     12c:	02140b0b 	andseq	r0, r4, #11264	; 0x2c00
     130:	0b0c0000 	bleq	300138 <__bss_end__+0x2f6c28>
     134:	0000021c 	andeq	r0, r0, ip, lsl r2
     138:	02240b0d 	eoreq	r0, r4, #13312	; 0x3400
     13c:	0b0e0000 	bleq	380144 <__bss_end__+0x376c34>
     140:	0000022c 	andeq	r0, r0, ip, lsr #4
     144:	00000b0f 	andeq	r0, r0, pc, lsl #22
     148:	0b0d0000 	bleq	340150 <__bss_end__+0x336c40>
     14c:	00000064 	andeq	r0, r0, r4, rrx
     150:	006b0b0e 	rsbeq	r0, fp, lr, lsl #22
     154:	000f0000 	andeq	r0, pc, r0
     158:	0001180c 	andeq	r1, r1, ip, lsl #16
     15c:	060e0100 	streq	r0, [lr], -r0, lsl #2
     160:	00008064 	andeq	r8, r0, r4, rrx
     164:	000000e4 	andeq	r0, r0, r4, ror #1
     168:	02a79c01 	adceq	r9, r7, #256	; 0x100
     16c:	130d0000 	movwne	r0, #53248	; 0xd000
     170:	01000001 	tsteq	r0, r1
     174:	02a71513 	adceq	r1, r7, #79691776	; 0x4c00000
     178:	03050000 	movweq	r0, #20480	; 0x5000
     17c:	000090cc 	andeq	r9, r0, ip, asr #1
     180:	01006e0e 	tsteq	r0, lr, lsl #28
     184:	002c0e14 	eoreq	r0, ip, r4, lsl lr
     188:	0d060000 	stceq	0, cr0, [r6, #-0]
     18c:	00000072 	andeq	r0, r0, r2, ror r0
     190:	b70b1501 	strlt	r1, [fp, -r1, lsl #10]
     194:	06000002 	streq	r0, [r0], -r2
     198:	008ebc03 	addeq	fp, lr, r3, lsl #24
     19c:	660f9f00 	strvs	r9, [pc], -r0, lsl #30
     1a0:	22010070 	andcs	r0, r1, #112, 0	; 0x70
     1a4:	0002be0c 	andeq	fp, r2, ip, lsl #28
     1a8:	cc030600 	stcgt	6, cr0, [r3], {-0}
     1ac:	9f000090 	svcls	0x00000090
     1b0:	0080bc10 	addeq	fp, r0, r0, lsl ip
     1b4:	00002800 	andeq	r2, r0, r0, lsl #16
     1b8:	0001e900 	andeq	lr, r1, r0, lsl #18
     1bc:	00691100 	rsbeq	r1, r9, r0, lsl #2
     1c0:	250d1f01 	strcs	r1, [sp, #-3841]	; 0xfffff0ff
     1c4:	04000000 	streq	r0, [r0], #-0
     1c8:	00000000 	andeq	r0, r0, r0
     1cc:	12000000 	andne	r0, r0, #0, 0
     1d0:	000080dc 	ldrdeq	r8, [r0], -ip
     1d4:	000003f6 	strdeq	r0, [r0], -r6
     1d8:	05500113 	ldrbeq	r0, [r0, #-275]	; 0xfffffeed
     1dc:	008ee403 	addeq	lr, lr, r3, lsl #8
     1e0:	51011300 	mrspl	r1, SP_irq
     1e4:	00007402 	andeq	r7, r0, r2, lsl #8
     1e8:	036d1400 	cmneq	sp, #0, 8
     1ec:	80840000 	addhi	r0, r4, r0
     1f0:	84000000 	strhi	r0, [r0], #-0
     1f4:	14000080 	strne	r0, [r0], #-128	; 0xffffff80
     1f8:	01000000 	mrseq	r0, (UNDEF: 0)
     1fc:	02220f19 	eoreq	r0, r2, #100	; 0x64
     200:	8a150000 	bhi	540208 <__bss_end__+0x536cf8>
     204:	16000003 	strne	r0, [r0], -r3
     208:	0000037e 	andeq	r0, r0, lr, ror r3
     20c:	00000025 	andeq	r0, r0, r5, lsr #32
     210:	00000023 	andeq	r0, r0, r3, lsr #32
     214:	00039517 	andeq	r9, r3, r7, lsl r5
     218:	00003a00 	andeq	r3, r0, r0, lsl #20
     21c:	00003800 	andeq	r3, r0, r0, lsl #16
     220:	bc180000 	ldclt	0, cr0, [r8], {-0}
     224:	f6000080 			; <UNDEFINED> instruction: 0xf6000080
     228:	39000003 	stmdbcc	r0, {r0, r1}
     22c:	13000002 	movwne	r0, #2
     230:	03055001 	movweq	r5, #20481	; 0x5001
     234:	00008ed4 	ldrdeq	r8, [r0], -r4
     238:	80f41800 	rscshi	r1, r4, r0, lsl #16
     23c:	03f60000 	mvnseq	r0, #0, 0
     240:	02560000 	subseq	r0, r6, #0, 0
     244:	01130000 	tsteq	r3, r0
     248:	f4030550 	vst3.16	{d0,d2,d4}, [r3 :64], r0
     24c:	1300008e 	movwne	r0, #142	; 0x8e
     250:	75025101 	strvc	r5, [r2, #-257]	; 0xfffffeff
     254:	00180000 	andseq	r0, r8, r0
     258:	f6000081 			; <UNDEFINED> instruction: 0xf6000081
     25c:	6a000003 	bvs	270 <__code_start__-0x7d90>
     260:	13000002 	movwne	r0, #2
     264:	74025001 	strvc	r5, [r2], #-1
     268:	04190000 	ldreq	r0, [r9], #-0
     26c:	02000081 	andeq	r0, r0, #129, 0	; 0x81
     270:	0c180075 	ldceq	0, cr0, [r8], {117}	; 0x75
     274:	f6000081 			; <UNDEFINED> instruction: 0xf6000081
     278:	86000003 	strhi	r0, [r0], -r3
     27c:	13000002 	movwne	r0, #2
     280:	74025001 	strvc	r5, [r2], #-1
     284:	14180000 	ldrne	r0, [r8], #-0
     288:	f6000081 			; <UNDEFINED> instruction: 0xf6000081
     28c:	9d000003 	stcls	0, cr0, [r0, #-12]
     290:	13000002 	movwne	r0, #2
     294:	03055001 	movweq	r5, #20481	; 0x5001
     298:	00008f30 	andeq	r8, r0, r0, lsr pc
     29c:	81181a00 	tsthi	r8, r0, lsl #20
     2a0:	04020000 	streq	r0, [r2], #-0
     2a4:	1b000000 	blne	2ac <__code_start__-0x7d54>
     2a8:	00000069 	andeq	r0, r0, r9, rrx
     2ac:	000002b7 			; <UNDEFINED> instruction: 0x000002b7
     2b0:	00002c1c 	andeq	r2, r0, ip, lsl ip
     2b4:	08000f00 	stmdaeq	r0, {r8, r9, sl, fp}
     2b8:	0000b904 	andeq	fp, r0, r4, lsl #18
     2bc:	04081d00 	streq	r1, [r8], #-3328	; 0xfffff300
     2c0:	000002bd 			; <UNDEFINED> instruction: 0x000002bd
     2c4:	6f6f661e 	svcvs	0x006f661e
     2c8:	060a0100 	streq	r0, [sl], -r0, lsl #2
     2cc:	0000804c 	andeq	r8, r0, ip, asr #32
     2d0:	00000018 	andeq	r0, r0, r8, lsl r0
     2d4:	03079c01 	movweq	r9, #31745	; 0x7c01
     2d8:	781f0000 	ldmdavc	pc, {}	; <UNPREDICTABLE>
     2dc:	0e0a0100 	adfeqe	f0, f2, f0
     2e0:	00000025 	andeq	r0, r0, r5, lsr #32
     2e4:	00000053 	andeq	r0, r0, r3, asr r0
     2e8:	0000004d 	andeq	r0, r0, sp, asr #32
     2ec:	00805c12 	addeq	r5, r0, r2, lsl ip
     2f0:	0003f600 	andeq	pc, r3, r0, lsl #12
     2f4:	50011300 	andpl	r1, r1, r0, lsl #6
     2f8:	8ea80305 	cdphi	3, 10, cr0, cr8, cr5, {0}
     2fc:	01130000 	tsteq	r3, r0
     300:	01f30351 	mvnseq	r0, r1, asr r3
     304:	0c000050 	stceq	0, cr0, [r0], {80}	; 0x50
     308:	00000042 	andeq	r0, r0, r2, asr #32
     30c:	38060401 	stmdacc	r6, {r0, sl}
     310:	14000080 	strne	r0, [r0], #-128	; 0xffffff80
     314:	01000000 	mrseq	r0, (UNDEF: 0)
     318:	0003319c 	muleq	r3, ip, r1
     31c:	80441200 	subhi	r1, r4, r0, lsl #4
     320:	03f60000 	mvnseq	r0, #0, 0
     324:	01130000 	tsteq	r3, r0
     328:	98030550 	stmdals	r3, {r4, r6, r8, sl}
     32c:	0000008e 	andeq	r0, r0, lr, lsl #1
     330:	02342000 	eorseq	r2, r4, #0, 0
     334:	7d020000 	stcvc	0, cr0, [r2, #-0]
     338:	00006918 	andeq	r6, r0, r8, lsl r9
     33c:	034f0300 	movteq	r0, #62208	; 0xf300
     340:	72210000 	eorvc	r0, r1, #0, 0
     344:	02006765 	andeq	r6, r0, #26476544	; 0x1940000
     348:	0069297d 	rsbeq	r2, r9, sp, ror r9
     34c:	20000000 	andcs	r0, r0, r0
     350:	00000090 	muleq	r0, r0, r0
     354:	69187902 	ldmdbvs	r8, {r1, r8, fp, ip, sp, lr}
     358:	03000000 	movweq	r0, #0
     35c:	0000036d 	andeq	r0, r0, sp, ror #6
     360:	67657221 	strbvs	r7, [r5, -r1, lsr #4]!
     364:	2a790200 	bcs	1e40b6c <__bss_end__+0x1e3765c>
     368:	00000069 	andeq	r0, r0, r9, rrx
     36c:	00a62000 	adceq	r2, r6, r0
     370:	74020000 	strvc	r0, [r2], #-0
     374:	00006918 	andeq	r6, r0, r8, lsl r9
     378:	03a20300 			; <UNDEFINED> instruction: 0x03a20300
     37c:	44220000 	strtmi	r0, [r2], #-0
     380:	02000002 	andeq	r0, r0, #2, 0
     384:	00692874 	rsbeq	r2, r9, r4, ror r8
     388:	74210000 	strtvc	r0, [r1], #-0
     38c:	7402006f 	strvc	r0, [r2], #-111	; 0xffffff91
     390:	00006937 	andeq	r6, r0, r7, lsr r9
     394:	00522300 	subseq	r2, r2, r0, lsl #6
     398:	75020000 	strvc	r0, [r2, #-0]
     39c:	0000410d 	andeq	r4, r0, sp, lsl #2
     3a0:	88200000 	stmdahi	r0!, {}	; <UNPREDICTABLE>
     3a4:	02000000 	andeq	r0, r0, #0, 0
     3a8:	0069186a 	rsbeq	r1, r9, sl, ror #16
     3ac:	d8030000 	stmdale	r3, {}	; <UNPREDICTABLE>
     3b0:	21000003 	tstcs	r0, r3
     3b4:	00747364 	rsbseq	r7, r4, r4, ror #6
     3b8:	69296a02 	stmdbvs	r9!, {r1, r9, fp, sp, lr}
     3bc:	21000000 	mrscs	r0, (UNDEF: 0)
     3c0:	00636f6c 	rsbeq	r6, r3, ip, ror #30
     3c4:	69376a02 	ldmdbvs	r7!, {r1, r9, fp, sp, lr}
     3c8:	22000000 	andcs	r0, r0, #0, 0
     3cc:	00000133 	andeq	r0, r0, r3, lsr r1
     3d0:	69456a02 	stmdbvs	r5, {r1, r9, fp, sp, lr}^
     3d4:	00000000 	andeq	r0, r0, r0
     3d8:	00010c20 	andeq	r0, r1, r0, lsr #24
     3dc:	18660200 	stmdane	r6!, {r9}^
     3e0:	00000069 	andeq	r0, r0, r9, rrx
     3e4:	0003f603 	andeq	pc, r3, r3, lsl #12
     3e8:	73642100 	cmnvc	r4, #0
     3ec:	66020074 			; <UNDEFINED> instruction: 0x66020074
     3f0:	00006928 	andeq	r6, r0, r8, lsr #18
     3f4:	51240000 			; <UNDEFINED> instruction: 0x51240000
     3f8:	51000002 	tstpl	r0, r2
     3fc:	04000002 	streq	r0, [r0], #-2
     400:	99240628 	stmdbls	r4!, {r3, r5, r9, sl}
     404:	99000000 	stmdbls	r0, {}	; <UNPREDICTABLE>
     408:	04000000 	streq	r0, [r0], #-0
     40c:	9d00066e 	stcls	6, cr0, [r0, #-440]	; 0xfffffe48
     410:	04000001 	streq	r0, [r0], #-1
     414:	00020800 	andeq	r0, r2, r0, lsl #16
     418:	48010400 	stmdami	r1, {sl}
     41c:	0c000001 	stceq	0, cr0, [r0], {1}
     420:	0000026c 	andeq	r0, r0, ip, ror #4
     424:	00000286 	andeq	r0, r0, r6, lsl #5
     428:	00008148 	andeq	r8, r0, r8, asr #2
     42c:	00000058 	andeq	r0, r0, r8, asr r0
     430:	000001ee 	andeq	r0, r0, lr, ror #3
     434:	00025802 	andeq	r5, r2, r2, lsl #16
     438:	1b280200 	blne	a00c40 <__bss_end__+0x9f7730>
     43c:	00000031 	andeq	r0, r0, r1, lsr r0
     440:	00027c03 	andeq	r7, r2, r3, lsl #24
     444:	00040400 	andeq	r0, r4, r0, lsl #8
     448:	00000048 	andeq	r0, r0, r8, asr #32
     44c:	00026704 	andeq	r6, r2, r4, lsl #14
     450:	00004800 	andeq	r4, r0, r0, lsl #16
     454:	05000000 	streq	r0, [r0, #-0]
     458:	027e0204 	rsbseq	r0, lr, #4, 4	; 0x40000000
     45c:	63020000 	movwvs	r0, #8192	; 0x2000
     460:	00002518 	andeq	r2, r0, r8, lsl r5
     464:	05040600 	streq	r0, [r4, #-1536]	; 0xfffffa00
     468:	00746e69 	rsbseq	r6, r4, r9, ror #28
     46c:	ef070407 	svc	0x00070407
     470:	07000000 	streq	r0, [r0, -r0]
     474:	00af0601 	adceq	r0, pc, r1, lsl #12
     478:	02070000 	andeq	r0, r7, #0, 0
     47c:	00004805 	andeq	r4, r0, r5, lsl #16
     480:	05040700 	streq	r0, [r4, #-1792]	; 0xfffff900
     484:	0000007f 	andeq	r0, r0, pc, ror r0
     488:	7a050807 	bvc	1424ac <__bss_end__+0x138f9c>
     48c:	07000000 	streq	r0, [r0, -r0]
     490:	00ad0801 	adceq	r0, sp, r1, lsl #16
     494:	02070000 	andeq	r0, r7, #0, 0
     498:	00012007 	andeq	r2, r1, r7
     49c:	07040700 	streq	r0, [r4, -r0, lsl #14]
     4a0:	000000ea 	andeq	r0, r0, sl, ror #1
     4a4:	e5070807 	str	r0, [r7, #-2055]	; 0xfffff7f9
     4a8:	08000000 	stmdaeq	r0, {}	; <UNPREDICTABLE>
     4ac:	00000056 	andeq	r0, r0, r6, asr r0
     4b0:	000000ab 	andeq	r0, r0, fp, lsr #1
     4b4:	00005609 	andeq	r5, r0, r9, lsl #12
     4b8:	580a0000 	stmdapl	sl, {}	; <UNPREDICTABLE>
     4bc:	03000000 	movweq	r0, #0
     4c0:	00b70e1c 	adcseq	r0, r7, ip, lsl lr
     4c4:	040b0000 	streq	r0, [fp], #-0
     4c8:	0000009c 	muleq	r0, ip, r0
     4cc:	00005608 	andeq	r5, r0, r8, lsl #12
     4d0:	0000cc00 	andeq	ip, r0, r0, lsl #24
     4d4:	00cc0900 	sbceq	r0, ip, r0, lsl #18
     4d8:	0b000000 	bleq	4e0 <__code_start__-0x7b20>
     4dc:	0000d904 	andeq	sp, r0, r4, lsl #18
     4e0:	08010700 	stmdaeq	r1, {r8, r9, sl}
     4e4:	000000b6 	strheq	r0, [r0], -r6
     4e8:	0000d20c 	andeq	sp, r0, ip, lsl #4
     4ec:	02b10a00 	adcseq	r0, r1, #0, 20
     4f0:	21030000 	mrscs	r0, (UNDEF: 3)
     4f4:	0000ea0e 	andeq	lr, r0, lr, lsl #20
     4f8:	bd040b00 	vstrlt	d0, [r4, #-0]
     4fc:	0d000000 	stceq	0, cr0, [r0, #-0]
     500:	00000251 	andeq	r0, r0, r1, asr r2
     504:	56050601 	strpl	r0, [r5], -r1, lsl #12
     508:	48000000 	stmdami	r0, {}	; <UNPREDICTABLE>
     50c:	58000081 	stmdapl	r0, {r0, r7}
     510:	01000000 	mrseq	r0, (UNDEF: 0)
     514:	0001839c 	muleq	r1, ip, r3
     518:	6d660e00 	stclvs	14, cr0, [r6, #-0]
     51c:	06010074 			; <UNDEFINED> instruction: 0x06010074
     520:	0000cc18 	andeq	ip, r0, r8, lsl ip
     524:	70910200 	addsvc	r0, r1, r0, lsl #4
     528:	7562100f 	strbvc	r1, [r2, #-15]!
     52c:	08010066 	stmdaeq	r1, {r1, r2, r5, r6}
     530:	00018311 	andeq	r8, r1, r1, lsl r3
     534:	0c030500 	cfstr32eq	mvfx0, [r3], {-0}
     538:	11000091 	swpne	r0, r1, [r0]	; <UNPREDICTABLE>
     53c:	00000249 	andeq	r0, r0, r9, asr #4
     540:	4a0d0901 	bmi	34294c <__bss_end__+0x33943c>
     544:	02000000 	andeq	r0, r0, #0, 0
     548:	73125c91 	tstvc	r2, #37120	; 0x9100
     54c:	0c01007a 	stceq	0, cr0, [r1], {122}	; 0x7a
     550:	0000560d 	andeq	r5, r0, sp, lsl #12
     554:	00008500 	andeq	r8, r0, r0, lsl #10
     558:	00007f00 	andeq	r7, r0, r0, lsl #30
     55c:	81701300 	cmnhi	r0, r0, lsl #6
     560:	01940000 	orrseq	r0, r4, r0
     564:	01760000 	cmneq	r6, r0
     568:	01140000 	tsteq	r4, r0
     56c:	00750250 	rsbseq	r0, r5, r0, asr r2
     570:	03510114 	cmpeq	r1, #5
     574:	1404000a 	strne	r0, [r4], #-10
     578:	91035201 	tstls	r3, r1, lsl #4
     57c:	01140648 	tsteq	r4, r8, asr #12
     580:	4c910253 	lfmmi	f0, 4, [r1], {83}	; 0x53
     584:	81841500 	orrhi	r1, r4, r0, lsl #10
     588:	01140000 	tsteq	r4, r0
     58c:	00750250 	rsbseq	r0, r5, r0, asr r2
     590:	d2160000 	andsle	r0, r6, #0, 0
     594:	94000000 	strls	r0, [r0], #-0
     598:	17000001 	strne	r0, [r0, -r1]
     59c:	0000005d 	andeq	r0, r0, sp, asr r0
     5a0:	180003ff 	stmdane	r0, {r0, r1, r2, r3, r4, r5, r6, r7, r8, r9}
     5a4:	0000024e 	andeq	r0, r0, lr, asr #4
     5a8:	0000024e 	andeq	r0, r0, lr, asr #4
     5ac:	00050205 	andeq	r0, r5, r5, lsl #4
     5b0:	000000f3 	strdeq	r0, [r0], -r3
     5b4:	034a0004 	movteq	r0, #40964	; 0xa004
     5b8:	01040000 	mrseq	r0, (UNDEF: 4)
     5bc:	00000148 	andeq	r0, r0, r8, asr #2
     5c0:	0002b60c 	andeq	fp, r2, ip, lsl #12
     5c4:	00028600 	andeq	r8, r2, r0, lsl #12
     5c8:	0081a000 	addeq	sl, r1, r0
     5cc:	00003400 	andeq	r3, r0, r0, lsl #8
     5d0:	00030200 	andeq	r0, r3, r0, lsl #4
     5d4:	05040200 	streq	r0, [r4, #-512]	; 0xfffffe00
     5d8:	00746e69 	rsbseq	r6, r4, r9, ror #28
     5dc:	ef070403 	svc	0x00070403
     5e0:	03000000 	movweq	r0, #0
     5e4:	00af0601 	adceq	r0, pc, r1, lsl #12
     5e8:	02030000 	andeq	r0, r3, #0, 0
     5ec:	00004805 	andeq	r4, r0, r5, lsl #16
     5f0:	05040300 	streq	r0, [r4, #-768]	; 0xfffffd00
     5f4:	0000007f 	andeq	r0, r0, pc, ror r0
     5f8:	7a050803 	bvc	14260c <__bss_end__+0x1390fc>
     5fc:	03000000 	movweq	r0, #0
     600:	00ad0801 	adceq	r0, sp, r1, lsl #16
     604:	02030000 	andeq	r0, r3, #0, 0
     608:	00012007 	andeq	r2, r1, r7
     60c:	07040300 	streq	r0, [r4, -r0, lsl #6]
     610:	000000ea 	andeq	r0, r0, sl, ror #1
     614:	e5070803 	str	r0, [r7, #-2051]	; 0xfffff7fd
     618:	04000000 	streq	r0, [r0], #-0
     61c:	00000025 	andeq	r0, r0, r5, lsr #32
     620:	0000007a 	andeq	r0, r0, sl, ror r0
     624:	00002505 	andeq	r2, r0, r5, lsl #10
     628:	58060000 	stmdapl	r6, {}	; <UNPREDICTABLE>
     62c:	02000000 	andeq	r0, r0, #0, 0
     630:	00860e1c 	addeq	r0, r6, ip, lsl lr
     634:	04070000 	streq	r0, [r7], #-0
     638:	0000006b 	andeq	r0, r0, fp, rrx
     63c:	00002504 	andeq	r2, r0, r4, lsl #10
     640:	00009b00 	andeq	r9, r0, r0, lsl #22
     644:	009b0500 	addseq	r0, fp, r0, lsl #10
     648:	07000000 	streq	r0, [r0, -r0]
     64c:	0000a804 	andeq	sl, r0, r4, lsl #16
     650:	08010300 	stmdaeq	r1, {r8, r9}
     654:	000000b6 	strheq	r0, [r0], -r6
     658:	0000a108 	andeq	sl, r0, r8, lsl #2
     65c:	02b10600 	adcseq	r0, r1, #0, 12
     660:	21020000 	mrscs	r0, (UNDEF: 2)
     664:	0000b90e 	andeq	fp, r0, lr, lsl #18
     668:	8c040700 	stchi	7, cr0, [r4], {-0}
     66c:	09000000 	stmdbeq	r0, {}	; <UNPREDICTABLE>
     670:	000000ad 	andeq	r0, r0, sp, lsr #1
     674:	05070c01 	streq	r0, [r7, #-3073]	; 0xfffff3ff
     678:	0090c403 	addseq	ip, r0, r3, lsl #8
     67c:	02a80a00 	adceq	r0, r8, #0, 20
     680:	04010000 	streq	r0, [r1], #-0
     684:	00002505 	andeq	r2, r0, r5, lsl #10
     688:	0081a000 	addeq	sl, r1, r0
     68c:	00003400 	andeq	r3, r0, r0, lsl #8
     690:	0b9c0100 	bleq	fe700a98 <__bss_end__+0xfe6f7588>
     694:	04010070 	streq	r0, [r1], #-112	; 0xffffff90
     698:	00009b1f 	andeq	r9, r0, pc, lsl fp
     69c:	0000b200 	andeq	fp, r0, r0, lsl #4
     6a0:	0000ae00 	andeq	sl, r0, r0, lsl #28
     6a4:	d7000000 	strle	r0, [r0, -r0]
     6a8:	0400000a 	streq	r0, [r0], #-10
     6ac:	0003e800 	andeq	lr, r3, r0, lsl #16
     6b0:	48010400 	stmdami	r1, {sl}
     6b4:	0c000001 	stceq	0, cr0, [r0], {1}
     6b8:	000002d5 	ldrdeq	r0, [r0], -r5
     6bc:	00000286 	andeq	r0, r0, r6, lsl #5
     6c0:	000081d4 	ldrdeq	r8, [r0], -r4
     6c4:	00000740 	andeq	r0, r0, r0, asr #14
     6c8:	000003ab 	andeq	r0, r0, fp, lsr #7
     6cc:	69050402 	stmdbvs	r5, {r1, sl}
     6d0:	0300746e 	movweq	r7, #1134	; 0x46e
     6d4:	00ef0704 	rsceq	r0, pc, r4, lsl #14
     6d8:	01030000 	mrseq	r0, (UNDEF: 3)
     6dc:	0000af06 	andeq	sl, r0, r6, lsl #30
     6e0:	05020300 	streq	r0, [r2, #-768]	; 0xfffffd00
     6e4:	00000048 	andeq	r0, r0, r8, asr #32
     6e8:	7f050403 	svcvc	0x00050403
     6ec:	03000000 	movweq	r0, #0
     6f0:	007a0508 	rsbseq	r0, sl, r8, lsl #10
     6f4:	01030000 	mrseq	r0, (UNDEF: 3)
     6f8:	0000ad08 	andeq	sl, r0, r8, lsl #26
     6fc:	07020300 	streq	r0, [r2, -r0, lsl #6]
     700:	00000120 	andeq	r0, r0, r0, lsr #2
     704:	00010304 	andeq	r0, r1, r4, lsl #6
     708:	19340200 	ldmdbne	r4!, {r9}
     70c:	00000069 	andeq	r0, r0, r9, rrx
     710:	ea070403 	b	1c1724 <__bss_end__+0x1b8214>
     714:	04000000 	streq	r0, [r0], #-0
     718:	000002cc 	andeq	r0, r0, ip, asr #5
     71c:	7c193702 	ldcvc	7, cr3, [r9], {2}
     720:	03000000 	movweq	r0, #0
     724:	00e50708 	rsceq	r0, r5, r8, lsl #14
     728:	25050000 	strcs	r0, [r5, #-0]
     72c:	92000000 	andls	r0, r0, #0, 0
     730:	06000000 	streq	r0, [r0], -r0
     734:	00000025 	andeq	r0, r0, r5, lsr #32
     738:	00580700 	subseq	r0, r8, r0, lsl #14
     73c:	1c030000 	stcne	0, cr0, [r3], {-0}
     740:	00009e0e 	andeq	r9, r0, lr, lsl #28
     744:	83040800 	movwhi	r0, #18432	; 0x4800
     748:	05000000 	streq	r0, [r0, #-0]
     74c:	00000025 	andeq	r0, r0, r5, lsr #32
     750:	000000b3 	strheq	r0, [r0], -r3
     754:	0000b306 	andeq	fp, r0, r6, lsl #6
     758:	04080000 	streq	r0, [r8], #-0
     75c:	000000c0 	andeq	r0, r0, r0, asr #1
     760:	b6080103 	strlt	r0, [r8], -r3, lsl #2
     764:	09000000 	stmdbeq	r0, {}	; <UNPREDICTABLE>
     768:	000000b9 	strheq	r0, [r0], -r9
     76c:	0002b107 	andeq	fp, r2, r7, lsl #2
     770:	0e210300 	cdpeq	3, 2, cr0, cr1, cr0, {0}
     774:	000000d1 	ldrdeq	r0, [r0], -r1
     778:	00a40408 	adceq	r0, r4, r8, lsl #8
     77c:	e8070000 	stmda	r7, {}	; <UNPREDICTABLE>
     780:	04000002 	streq	r0, [r0], #-2
     784:	00b90d0b 	adcseq	r0, r9, fp, lsl #26
     788:	75070000 	strvc	r0, [r7, #-0]
     78c:	04000003 	streq	r0, [r0], #-3
     790:	00b90d0c 	adcseq	r0, r9, ip, lsl #26
     794:	f7070000 			; <UNDEFINED> instruction: 0xf7070000
     798:	04000002 	streq	r0, [r0], #-2
     79c:	00b90d0d 	adcseq	r0, r9, sp, lsl #26
     7a0:	2d070000 	stccs	0, cr0, [r7, #-0]
     7a4:	04000003 	streq	r0, [r0], #-3
     7a8:	00b90d0e 	adcseq	r0, r9, lr, lsl #26
     7ac:	9e070000 	cdpls	0, 0, cr0, cr7, cr0, {0}
     7b0:	04000003 	streq	r0, [r0], #-3
     7b4:	00b90d0f 	adcseq	r0, r9, pc, lsl #26
     7b8:	18070000 	stmdane	r7, {}	; <UNPREDICTABLE>
     7bc:	04000003 	streq	r0, [r0], #-3
     7c0:	00b90d10 	adcseq	r0, r9, r0, lsl sp
     7c4:	ad070000 	stcge	0, cr0, [r7, #-0]
     7c8:	04000003 	streq	r0, [r0], #-3
     7cc:	00b90d11 	adcseq	r0, r9, r1, lsl sp
     7d0:	39070000 	stmdbcc	r7, {}	; <UNPREDICTABLE>
     7d4:	04000003 	streq	r0, [r0], #-3
     7d8:	00b90d12 	adcseq	r0, r9, r2, lsl sp
     7dc:	58040000 	stmdapl	r4, {}	; <UNPREDICTABLE>
     7e0:	05000002 	streq	r0, [r0, #-2]
     7e4:	01431b28 	cmpeq	r3, r8, lsr #22
     7e8:	7c0a0000 	stcvc	0, cr0, [sl], {-0}
     7ec:	04000002 	streq	r0, [r0], #-2
     7f0:	015a0006 	cmpeq	sl, r6
     7f4:	670b0000 	strvs	r0, [fp, -r0]
     7f8:	5a000002 	bpl	808 <__code_start__-0x77f8>
     7fc:	00000001 	andeq	r0, r0, r1
     800:	04040c00 	streq	r0, [r4], #-3072	; 0xfffff400
     804:	0000027e 	andeq	r0, r0, lr, ror r2
     808:	37186305 	ldrcc	r6, [r8, -r5, lsl #6]
     80c:	0d000001 	stceq	0, cr0, [r0, #-4]
     810:	0000024e 	andeq	r0, r0, lr, asr #4
     814:	25058101 	strcs	r8, [r5, #-257]	; 0xfffffeff
     818:	5c000000 	stcpl	0, cr0, [r0], {-0}
     81c:	b8000084 	stmdalt	r0, {r2, r7}
     820:	01000004 	tsteq	r0, r4
     824:	0007179c 	muleq	r7, ip, r7
     828:	75620e00 	strbvc	r0, [r2, #-3584]!	; 0xfffff200
     82c:	81010066 	tsthi	r1, r6, rrx
     830:	00071715 	andeq	r1, r7, r5, lsl r7
     834:	0000d600 	andeq	sp, r0, r0, lsl #12
     838:	0000d000 	andeq	sp, r0, r0
     83c:	006e0e00 	rsbeq	r0, lr, r0, lsl #28
     840:	251e8101 	ldrcs	r8, [lr, #-257]	; 0xfffffeff
     844:	08000000 	stmdaeq	r0, {}	; <UNPREDICTABLE>
     848:	02000001 	andeq	r0, r0, #1, 0
     84c:	0e000001 	cdpeq	0, 0, cr0, cr0, cr1, {0}
     850:	00746d66 	rsbseq	r6, r4, r6, ror #26
     854:	b32d8101 			; <UNDEFINED> instruction: 0xb32d8101
     858:	42000000 	andmi	r0, r0, #0, 0
     85c:	36000001 	strcc	r0, [r0], -r1
     860:	0f000001 	svceq	0x00000001
     864:	00000249 	andeq	r0, r0, r9, asr #4
     868:	5c3a8101 	ldfpld	f0, [sl], #-4
     86c:	03000001 	movweq	r0, #1
     870:	107dd491 			; <UNDEFINED> instruction: 0x107dd491
     874:	82010070 	andhi	r0, r1, #112, 0	; 0x70
     878:	00071708 	andeq	r1, r7, r8, lsl #14
     87c:	0001a000 	andeq	sl, r1, r0
     880:	00018c00 	andeq	r8, r1, r0, lsl #24
     884:	00651000 	rsbeq	r1, r5, r0
     888:	17128201 	ldrne	r8, [r2, -r1, lsl #4]
     88c:	22000007 	andcs	r0, r0, #7, 0
     890:	1e000002 	cdpne	0, 0, cr0, cr0, cr2, {0}
     894:	10000002 	andne	r0, r0, r2
     898:	01003078 	tsteq	r0, r8, ror r0
     89c:	005d0e83 	subseq	r0, sp, r3, lsl #29
     8a0:	024f0000 	subeq	r0, pc, #0, 0
     8a4:	02490000 	subeq	r0, r9, #0, 0
     8a8:	78100000 	ldmdavc	r0, {}	; <UNPREDICTABLE>
     8ac:	83010031 	movwhi	r0, #4145	; 0x1031
     8b0:	00005d11 	andeq	r5, r0, r1, lsl sp
     8b4:	00027c00 	andeq	r7, r2, r0, lsl #24
     8b8:	00027800 	andeq	r7, r2, r0, lsl #16
     8bc:	03571100 	cmpeq	r7, #0
     8c0:	86010000 	strhi	r0, [r1], -r0
     8c4:	0000b311 	andeq	fp, r0, r1, lsl r3
     8c8:	00029e00 	andeq	r9, r2, r0, lsl #28
     8cc:	00029a00 	andeq	r9, r2, r0, lsl #20
     8d0:	030b1200 	movweq	r1, #45568	; 0xb200
     8d4:	072d0000 	streq	r0, [sp, -r0]!
     8d8:	03050000 	movweq	r0, #20480	; 0x5000
     8dc:	000090ac 	andeq	r9, r0, ip, lsr #1
     8e0:	0084c413 	addeq	ip, r4, r3, lsl r4
     8e4:	00040000 	andeq	r0, r4, r0
     8e8:	00731000 	rsbseq	r1, r3, r0
     8ec:	170a9101 	strne	r9, [sl, -r1, lsl #2]
     8f0:	d4000007 	strle	r0, [r0], #-7
     8f4:	be000002 	cdplt	0, 0, cr0, cr0, cr2, {0}
     8f8:	14000002 	strne	r0, [r0], #-2
     8fc:	006d756e 	rsbeq	r7, sp, lr, ror #10
     900:	320d9101 	andcc	r9, sp, #1073741824	; 0x40000000
     904:	03000007 	movweq	r0, #7
     908:	157dd891 	ldrbne	sp, [sp, #-2193]!	; 0xfffff76f
     90c:	000003ba 			; <UNDEFINED> instruction: 0x000003ba
     910:	32179101 	andscc	r9, r7, #1073741824	; 0x40000000
     914:	03000007 	movweq	r0, #7
     918:	117ed891 			; <UNDEFINED> instruction: 0x117ed891
     91c:	00000305 	andeq	r0, r0, r5, lsl #6
     920:	2c0d9201 	sfmcs	f1, 1, [sp], {1}
     924:	5b000000 	blpl	92c <__code_start__-0x76d4>
     928:	55000003 	strpl	r0, [r0, #-3]
     92c:	16000003 	strne	r0, [r0], -r3
     930:	0000858c 	andeq	r8, r0, ip, lsl #11
     934:	000001a4 	andeq	r0, r0, r4, lsr #3
     938:	00000539 	andeq	r0, r0, r9, lsr r5
     93c:	00797410 	rsbseq	r7, r9, r0, lsl r4
     940:	b31d9e01 	tstlt	sp, #1, 28
     944:	8f000000 	svchi	0x00000000
     948:	85000003 	strhi	r0, [r0, #-3]
     94c:	17000003 	strne	r0, [r0, -r3]
     950:	01007878 	tsteq	r0, r8, ror r8
     954:	00701aa2 	rsbseq	r1, r0, r2, lsr #21
     958:	9c180000 	ldcls	0, cr0, [r8], {-0}
     95c:	92000085 	andls	r0, r0, #133, 0	; 0x85
     960:	d500000a 	strle	r0, [r0, #-10]
     964:	19000002 	stmdbne	r0, {r1}
     968:	76025001 	strvc	r5, [r2], -r1
     96c:	51011900 	tstpl	r1, r0, lsl #18
     970:	8fa00305 	svchi	0x00a00305
     974:	01190000 	tsteq	r9, r0
     978:	00330152 	eorseq	r0, r3, r2, asr r1
     97c:	0085b418 	addeq	fp, r5, r8, lsl r4
     980:	000a9200 	andeq	r9, sl, r0, lsl #4
     984:	0002f700 	andeq	pc, r2, r0, lsl #14
     988:	50011900 	andpl	r1, r1, r0, lsl #18
     98c:	19007602 	stmdbne	r0, {r1, r9, sl, ip, sp, lr}
     990:	03055101 	movweq	r5, #20737	; 0x5101
     994:	00008fa4 	andeq	r8, r0, r4, lsr #31
     998:	01520119 	cmpeq	r2, r9, lsl r1
     99c:	e8180033 	ldmda	r8, {r0, r1, r4, r5}
     9a0:	9e000085 	cdpls	0, 0, cr0, cr0, cr5, {4}
     9a4:	1400000a 	strne	r0, [r0], #-10
     9a8:	19000003 	stmdbne	r0, {r0, r1}
     9ac:	03055001 	movweq	r5, #20481	; 0x5001
     9b0:	00008fa8 	andeq	r8, r0, r8, lsr #31
     9b4:	02510119 	subseq	r0, r1, #1073741830	; 0x40000006
     9b8:	18000077 	stmdane	r0, {r0, r1, r2, r4, r5, r6}
     9bc:	000085f4 	strdeq	r8, [r0], -r4
     9c0:	00000a9e 	muleq	r0, lr, sl
     9c4:	00000331 	andeq	r0, r0, r1, lsr r3
     9c8:	05500119 	ldrbeq	r0, [r0, #-281]	; 0xfffffee7
     9cc:	008fb003 	addeq	fp, pc, r3
     9d0:	51011900 	tstpl	r1, r0, lsl #18
     9d4:	00007a02 	andeq	r7, r0, r2, lsl #20
     9d8:	00860418 	addeq	r0, r6, r8, lsl r4
     9dc:	000a9200 	andeq	r9, sl, r0, lsl #4
     9e0:	00035300 	andeq	r5, r3, r0, lsl #6
     9e4:	50011900 	andpl	r1, r1, r0, lsl #18
     9e8:	19007602 	stmdbne	r0, {r1, r9, sl, ip, sp, lr}
     9ec:	03055101 	movweq	r5, #20737	; 0x5101
     9f0:	00008fa0 	andeq	r8, r0, r0, lsr #31
     9f4:	01520119 	cmpeq	r2, r9, lsl r1
     9f8:	1c180033 	ldcne	0, cr0, [r8], {51}	; 0x33
     9fc:	92000086 	andls	r0, r0, #134, 0	; 0x86
     a00:	7500000a 	strvc	r0, [r0, #-10]
     a04:	19000003 	stmdbne	r0, {r0, r1}
     a08:	76025001 	strvc	r5, [r2], -r1
     a0c:	51011900 	tstpl	r1, r0, lsl #18
     a10:	8fa40305 	svchi	0x00a40305
     a14:	01190000 	tsteq	r9, r0
     a18:	00330152 	eorseq	r0, r3, r2, asr r1
     a1c:	00864418 	addeq	r4, r6, r8, lsl r4
     a20:	00074200 	andeq	r4, r7, r0, lsl #4
     a24:	0003a900 	andeq	sl, r3, r0, lsl #18
     a28:	50011900 	andpl	r1, r1, r0, lsl #18
     a2c:	01193a01 	tsteq	r9, r1, lsl #20
     a30:	d0910351 	addsle	r0, r1, r1, asr r3
     a34:	5201197d 	andpl	r1, r1, #2048000	; 0x1f4000
     a38:	19800802 	stmibne	r0, {r1, fp}
     a3c:	77025301 	strvc	r5, [r2, -r1, lsl #6]
     a40:	7d021900 	vstrvc.16	s2, [r2, #-0]	; <UNPREDICTABLE>
     a44:	00750200 	rsbseq	r0, r5, r0, lsl #4
     a48:	047d0219 	ldrbteq	r0, [sp], #-537	; 0xfffffde7
     a4c:	00007602 	andeq	r7, r0, r2, lsl #12
     a50:	00866418 	addeq	r6, r6, r8, lsl r4
     a54:	00074200 	andeq	r4, r7, r0, lsl #4
     a58:	0003dd00 	andeq	sp, r3, r0, lsl #26
     a5c:	50011900 	andpl	r1, r1, r0, lsl #18
     a60:	01193a01 	tsteq	r9, r1, lsl #20
     a64:	d0910351 	addsle	r0, r1, r1, asr r3
     a68:	5201197e 	andpl	r1, r1, #2064384	; 0x1f8000
     a6c:	19800802 	stmibne	r0, {r1, fp}
     a70:	7a025301 	bvc	9567c <__bss_end__+0x8c16c>
     a74:	7d021900 	vstrvc.16	s2, [r2, #-0]	; <UNPREDICTABLE>
     a78:	00750200 	rsbseq	r0, r5, r0, lsl #4
     a7c:	047d0219 	ldrbteq	r0, [sp], #-537	; 0xfffffde7
     a80:	00007602 	andeq	r7, r0, r2, lsl #12
     a84:	00867018 	addeq	r7, r6, r8, lsl r0
     a88:	000aaa00 	andeq	sl, sl, r0, lsl #20
     a8c:	0003fb00 	andeq	pc, r3, r0, lsl #22
     a90:	50011900 	andpl	r1, r1, r0, lsl #18
     a94:	7dd09103 	ldfvcp	f1, [r0, #12]
     a98:	05510119 	ldrbeq	r0, [r1, #-281]	; 0xfffffee7
     a9c:	008f6403 	addeq	r6, pc, r3, lsl #8
     aa0:	84180000 	ldrhi	r0, [r8], #-0
     aa4:	b6000086 	strlt	r0, [r0], -r6, lsl #1
     aa8:	1700000a 	strne	r0, [r0, -sl]
     aac:	19000004 	stmdbne	r0, {r2}
     ab0:	91035001 	tstls	r3, r1
     ab4:	01197dd0 			; <UNDEFINED> instruction: 0x01197dd0
     ab8:	d0910351 	addsle	r0, r1, r1, asr r3
     abc:	a818007e 	ldmdage	r8, {r1, r2, r3, r4, r5, r6}
     ac0:	9e000086 	cdpls	0, 0, cr0, cr0, cr6, {4}
     ac4:	5000000a 	andpl	r0, r0, sl
     ac8:	19000004 	stmdbne	r0, {r2}
     acc:	03055001 	movweq	r5, #20481	; 0x5001
     ad0:	00008f50 	andeq	r8, r0, r0, asr pc
     ad4:	05510119 	ldrbeq	r0, [r1, #-281]	; 0xfffffee7
     ad8:	008f3c03 	addeq	r3, pc, r3, lsl #24
     adc:	52011900 	andpl	r1, r1, #0, 18
     ae0:	90ac0305 	adcls	r0, ip, r5, lsl #6
     ae4:	01190000 	tsteq	r9, r0
     ae8:	9f080253 	svcls	0x00080253
     aec:	007d0219 	rsbseq	r0, sp, r9, lsl r2
     af0:	8fb80305 	svchi	0x00b80305
     af4:	1a000000 	bne	afc <__code_start__-0x7504>
     af8:	000086ac 	andeq	r8, r0, ip, lsr #13
     afc:	00000ac2 	andeq	r0, r0, r2, asr #21
     b00:	0086cc18 	addeq	ip, r6, r8, lsl ip
     b04:	00074200 	andeq	r4, r7, r0, lsl #4
     b08:	00048d00 	andeq	r8, r4, r0, lsl #26
     b0c:	50011900 	andpl	r1, r1, r0, lsl #18
     b10:	01194001 	tsteq	r9, r1
     b14:	d0910351 	addsle	r0, r1, r1, asr r3
     b18:	5201197d 	andpl	r1, r1, #2048000	; 0x1f4000
     b1c:	19800802 	stmibne	r0, {r1, fp}
     b20:	77025301 	strvc	r5, [r2, -r1, lsl #6]
     b24:	7d021900 	vstrvc.16	s2, [r2, #-0]	; <UNPREDICTABLE>
     b28:	00750200 	rsbseq	r0, r5, r0, lsl #4
     b2c:	047d0219 	ldrbteq	r0, [sp], #-537	; 0xfffffde7
     b30:	00007602 	andeq	r7, r0, r2, lsl #12
     b34:	0086ec18 	addeq	lr, r6, r8, lsl ip
     b38:	00074200 	andeq	r4, r7, r0, lsl #4
     b3c:	0004c100 	andeq	ip, r4, r0, lsl #2
     b40:	50011900 	andpl	r1, r1, r0, lsl #18
     b44:	01194001 	tsteq	r9, r1
     b48:	d0910351 	addsle	r0, r1, r1, asr r3
     b4c:	5201197e 	andpl	r1, r1, #2064384	; 0x1f8000
     b50:	19800802 	stmibne	r0, {r1, fp}
     b54:	7a025301 	bvc	95760 <__bss_end__+0x8c250>
     b58:	7d021900 	vstrvc.16	s2, [r2, #-0]	; <UNPREDICTABLE>
     b5c:	00750200 	rsbseq	r0, r5, r0, lsl #4
     b60:	047d0219 	ldrbteq	r0, [sp], #-537	; 0xfffffde7
     b64:	00007602 	andeq	r7, r0, r2, lsl #12
     b68:	0086f818 	addeq	pc, r6, r8, lsl r8	; <UNPREDICTABLE>
     b6c:	000ace00 	andeq	ip, sl, r0, lsl #28
     b70:	0004dd00 	andeq	sp, r4, r0, lsl #26
     b74:	50011900 	andpl	r1, r1, r0, lsl #18
     b78:	7dd09103 	ldfvcp	f1, [r0, #12]
     b7c:	03510119 	cmpeq	r1, #1073741830	; 0x40000006
     b80:	007ed291 			; <UNDEFINED> instruction: 0x007ed291
     b84:	00870c18 	addeq	r0, r7, r8, lsl ip
     b88:	000ace00 	andeq	ip, sl, r0, lsl #28
     b8c:	0004f900 	andeq	pc, r4, r0, lsl #18
     b90:	50011900 	andpl	r1, r1, r0, lsl #18
     b94:	7dd09103 	ldfvcp	f1, [r0, #12]
     b98:	03510119 	cmpeq	r1, #1073741830	; 0x40000006
     b9c:	007ed091 			; <UNDEFINED> instruction: 0x007ed091
     ba0:	00872c18 	addeq	r2, r7, r8, lsl ip
     ba4:	000a9e00 	andeq	r9, sl, r0, lsl #28
     ba8:	00052f00 	andeq	r2, r5, r0, lsl #30
     bac:	50011900 	andpl	r1, r1, r0, lsl #18
     bb0:	8ff40305 	svchi	0x00f40305
     bb4:	01190000 	tsteq	r9, r0
     bb8:	3c030551 	cfstr32cc	mvfx0, [r3], {81}	; 0x51
     bbc:	1900008f 	stmdbne	r0, {r0, r1, r2, r3, r7}
     bc0:	03055201 	movweq	r5, #20993	; 0x5201
     bc4:	000090ac 	andeq	r9, r0, ip, lsr #1
     bc8:	02530119 	subseq	r0, r3, #1073741830	; 0x40000006
     bcc:	0219b608 	andseq	fp, r9, #8, 12	; 0x800000
     bd0:	7602007d 			; <UNDEFINED> instruction: 0x7602007d
     bd4:	301a0000 	andscc	r0, sl, r0
     bd8:	c2000087 	andgt	r0, r0, #135, 0	; 0x87
     bdc:	0000000a 	andeq	r0, r0, sl
     be0:	0084dc18 	addeq	sp, r4, r8, lsl ip
     be4:	0009c000 	andeq	ip, r9, r0
     be8:	00054d00 	andeq	r4, r5, r0, lsl #26
     bec:	50011900 	andpl	r1, r1, r0, lsl #18
     bf0:	00007702 	andeq	r7, r0, r2, lsl #14
     bf4:	00858818 	addeq	r8, r5, r8, lsl r8
     bf8:	000a9e00 	andeq	r9, sl, r0, lsl #28
     bfc:	00058600 	andeq	r8, r5, r0, lsl #12
     c00:	50011900 	andpl	r1, r1, r0, lsl #18
     c04:	8f500305 	svchi	0x00500305
     c08:	01190000 	tsteq	r9, r0
     c0c:	3c030551 	cfstr32cc	mvfx0, [r3], {81}	; 0x51
     c10:	1900008f 	stmdbne	r0, {r0, r1, r2, r3, r7}
     c14:	03055201 	movweq	r5, #20993	; 0x5201
     c18:	000090ac 	andeq	r9, r0, ip, lsr #1
     c1c:	02530119 	subseq	r0, r3, #1073741830	; 0x40000006
     c20:	02199808 	andseq	r9, r9, #8, 16	; 0x80000
     c24:	0305007d 	movweq	r0, #20605	; 0x507d
     c28:	00008f94 	muleq	r0, r4, pc	; <UNPREDICTABLE>
     c2c:	858c1a00 	strhi	r1, [ip, #2560]	; 0xa00
     c30:	0ac20000 	beq	ff080c38 <__bss_end__+0xff077728>
     c34:	44180000 	ldrmi	r0, [r8], #-0
     c38:	9e000087 	cdpls	0, 0, cr0, cr0, cr7, {4}
     c3c:	be00000a 	cdplt	0, 0, cr0, cr0, cr10, {0}
     c40:	19000005 	stmdbne	r0, {r0, r2}
     c44:	03055001 	movweq	r5, #20481	; 0x5001
     c48:	0000901c 	andeq	r9, r0, ip, lsl r0
     c4c:	05510119 	ldrbeq	r0, [r1, #-281]	; 0xfffffee7
     c50:	008f3c03 	addeq	r3, pc, r3, lsl #24
     c54:	52011900 	andpl	r1, r1, #0, 18
     c58:	90ac0305 	adcls	r0, ip, r5, lsl #6
     c5c:	01190000 	tsteq	r9, r0
     c60:	be080253 	mcrlt	2, 0, r0, cr8, cr3, {2}
     c64:	87481a00 	strbhi	r1, [r8, -r0, lsl #20]
     c68:	0ac20000 	beq	ff080c70 <__bss_end__+0xff077760>
     c6c:	74180000 	ldrvc	r0, [r8], #-0
     c70:	42000087 	andmi	r0, r0, #135, 0	; 0x87
     c74:	f4000007 	vst4.8	{d0-d3}, [r0], r7
     c78:	19000005 	stmdbne	r0, {r0, r2}
     c7c:	3a015001 	bcc	54c88 <__bss_end__+0x4b778>
     c80:	03510119 	cmpeq	r1, #1073741830	; 0x40000006
     c84:	197dd091 	ldmdbne	sp!, {r0, r4, r7, ip, lr, pc}^
     c88:	08025201 	stmdaeq	r2, {r0, r9, ip, lr}
     c8c:	7d021980 	vstrvc.16	s2, [r2, #-256]	; 0xffffff00	; <UNPREDICTABLE>
     c90:	00750200 	rsbseq	r0, r5, r0, lsl #4
     c94:	047d0219 	ldrbteq	r0, [sp], #-537	; 0xfffffde7
     c98:	18003101 	stmdane	r0, {r0, r8, ip, sp}
     c9c:	000087ac 	andeq	r8, r0, ip, lsr #15
     ca0:	00000742 	andeq	r0, r0, r2, asr #14
     ca4:	00000621 	andeq	r0, r0, r1, lsr #12
     ca8:	01500119 	cmpeq	r0, r9, lsl r1
     cac:	5101193a 	tstpl	r1, sl, lsr r9
     cb0:	7dd09103 	ldfvcp	f1, [r0, #12]
     cb4:	02520119 	subseq	r0, r2, #1073741830	; 0x40000006
     cb8:	02198008 	andseq	r8, r9, #8, 0
     cbc:	7502007d 	strvc	r0, [r2, #-125]	; 0xffffff83
     cc0:	7d021900 	vstrvc.16	s2, [r2, #-0]	; <UNPREDICTABLE>
     cc4:	00300104 	eorseq	r0, r0, r4, lsl #2
     cc8:	0087e018 	addeq	lr, r7, r8, lsl r0
     ccc:	00074200 	andeq	r4, r7, r0, lsl #4
     cd0:	00064e00 	andeq	r4, r6, r0, lsl #28
     cd4:	50011900 	andpl	r1, r1, r0, lsl #18
     cd8:	01194001 	tsteq	r9, r1
     cdc:	d0910351 	addsle	r0, r1, r1, asr r3
     ce0:	5201197d 	andpl	r1, r1, #2048000	; 0x1f4000
     ce4:	19800802 	stmibne	r0, {r1, fp}
     ce8:	02007d02 	andeq	r7, r0, #128	; 0x80
     cec:	02190075 	andseq	r0, r9, #117, 0	; 0x75
     cf0:	3001047d 	andcc	r0, r1, sp, ror r4
     cf4:	88141800 	ldmdahi	r4, {fp, ip}
     cf8:	07420000 	strbeq	r0, [r2, -r0]
     cfc:	067b0000 	ldrbteq	r0, [fp], -r0
     d00:	01190000 	tsteq	r9, r0
     d04:	19320150 	ldmdbne	r2!, {r4, r6, r8}
     d08:	91035101 	tstls	r3, r1, lsl #2
     d0c:	01197dd0 			; <UNDEFINED> instruction: 0x01197dd0
     d10:	80080252 	andhi	r0, r8, r2, asr r2
     d14:	007d0219 	rsbseq	r0, sp, r9, lsl r2
     d18:	19007502 	stmdbne	r0, {r1, r8, sl, ip, sp, lr}
     d1c:	01047d02 	tsteq	r4, r2, lsl #26
     d20:	5c180030 	ldcpl	0, cr0, [r8], {48}	; 0x30
     d24:	42000088 	andmi	r0, r0, #136, 0	; 0x88
     d28:	a8000007 	stmdage	r0, {r0, r1, r2}
     d2c:	19000006 	stmdbne	r0, {r1, r2}
     d30:	38015001 	stmdacc	r1, {r0, ip, lr}
     d34:	03510119 	cmpeq	r1, #1073741830	; 0x40000006
     d38:	197dd091 	ldmdbne	sp!, {r0, r4, r7, ip, lr, pc}^
     d3c:	08025201 	stmdaeq	r2, {r0, r9, ip, lr}
     d40:	7d021980 	vstrvc.16	s2, [r2, #-256]	; 0xffffff00	; <UNPREDICTABLE>
     d44:	00750200 	rsbseq	r0, r5, r0, lsl #4
     d48:	047d0219 	ldrbteq	r0, [sp], #-537	; 0xfffffde7
     d4c:	18003001 	stmdane	r0, {r0, ip, sp}
     d50:	0000887c 	andeq	r8, r0, ip, ror r8
     d54:	00000a9e 	muleq	r0, lr, sl
     d58:	000006cb 	andeq	r0, r0, fp, asr #13
     d5c:	05500119 	ldrbeq	r0, [r0, #-281]	; 0xfffffee7
     d60:	00904403 	addseq	r4, r0, r3, lsl #8
     d64:	51011900 	tstpl	r1, r0, lsl #18
     d68:	19007a02 	stmdbne	r0, {r1, r9, fp, ip, sp, lr}
     d6c:	7a025201 	bvc	95578 <__bss_end__+0x8c068>
     d70:	8c1b0000 	ldchi	0, cr0, [fp], {-0}
     d74:	dd000088 	stcle	0, cr0, [r0, #-544]	; 0xfffffde0
     d78:	19000006 	stmdbne	r0, {r1, r2}
     d7c:	91045001 	tstls	r4, r1
     d80:	00067dc8 	andeq	r7, r6, r8, asr #27
     d84:	0088a018 	addeq	sl, r8, r8, lsl r0
     d88:	000a9e00 	andeq	r9, sl, r0, lsl #28
     d8c:	00070c00 	andeq	r0, r7, r0, lsl #24
     d90:	50011900 	andpl	r1, r1, r0, lsl #18
     d94:	90740305 	rsbsls	r0, r4, r5, lsl #6
     d98:	01190000 	tsteq	r9, r0
     d9c:	3c030551 	cfstr32cc	mvfx0, [r3], {81}	; 0x51
     da0:	1900008f 	stmdbne	r0, {r0, r1, r2, r3, r7}
     da4:	03055201 	movweq	r5, #20993	; 0x5201
     da8:	000090ac 	andeq	r9, r0, ip, lsr #1
     dac:	02530119 	subseq	r0, r3, #1073741830	; 0x40000006
     db0:	1a00e208 	bne	395d8 <__bss_end__+0x300c8>
     db4:	000088a4 	andeq	r8, r0, r4, lsr #17
     db8:	00000ac2 	andeq	r0, r0, r2, asr #21
     dbc:	04080000 	streq	r0, [r8], #-0
     dc0:	000000b9 	strheq	r0, [r0], -r9
     dc4:	0000c01c 	andeq	ip, r0, ip, lsl r0
     dc8:	00072d00 	andeq	r2, r7, r0, lsl #26
     dcc:	002c1d00 	eoreq	r1, ip, r0, lsl #26
     dd0:	00090000 	andeq	r0, r9, r0
     dd4:	00071d09 	andeq	r1, r7, r9, lsl #26
     dd8:	00b91c00 	adcseq	r1, r9, r0, lsl #24
     ddc:	07420000 	strbeq	r0, [r2, -r0]
     de0:	2c1d0000 	ldccs	0, cr0, [sp], {-0}
     de4:	7f000000 	svcvc	0x00000000
     de8:	03821e00 	orreq	r1, r2, #0, 28
     dec:	49010000 	stmdbmi	r1, {}	; <UNPREDICTABLE>
     df0:	00071701 	andeq	r1, r7, r1, lsl #14
     df4:	00824400 	addeq	r4, r2, r0, lsl #8
     df8:	0001b400 	andeq	fp, r1, r0, lsl #8
     dfc:	ab9c0100 	blge	fe701204 <__bss_end__+0xfe6f7cf4>
     e00:	1f000008 	svcne	0x00000008
     e04:	000003c7 	andeq	r0, r0, r7, asr #7
     e08:	2c0f4901 			; <UNDEFINED> instruction: 0x2c0f4901
     e0c:	d8000000 	stmdale	r0, {}	; <UNPREDICTABLE>
     e10:	d2000003 	andle	r0, r0, #3, 0
     e14:	0e000003 	cdpeq	0, 0, cr0, cr0, cr3, {0}
     e18:	00747364 	rsbseq	r7, r4, r4, ror #6
     e1c:	171b4901 	ldrne	r4, [fp, -r1, lsl #18]
     e20:	16000007 	strne	r0, [r0], -r7
     e24:	06000004 	streq	r0, [r0], -r4
     e28:	0e000004 	cdpeq	0, 0, cr0, cr0, cr4, {0}
     e2c:	4901006e 	stmdbmi	r1, {r1, r2, r3, r5, r6}
     e30:	00002524 	andeq	r2, r0, r4, lsr #10
     e34:	00047a00 	andeq	r7, r4, r0, lsl #20
     e38:	00047600 	andeq	r7, r4, r0, lsl #12
     e3c:	61760e00 	cmnvs	r6, r0, lsl #28
     e40:	4901006c 	stmdbmi	r1, {r2, r3, r5, r6}
     e44:	0000252b 	andeq	r2, r0, fp, lsr #10
     e48:	0004a400 	andeq	sl, r4, r0, lsl #8
     e4c:	00049800 	andeq	r9, r4, r0, lsl #16
     e50:	03051f00 	movweq	r1, #24320	; 0x5f00
     e54:	49010000 	stmdbmi	r1, {}	; <UNPREDICTABLE>
     e58:	00002534 	andeq	r2, r0, r4, lsr r5
     e5c:	0004fa00 	andeq	pc, r4, r0, lsl #20
     e60:	0004f400 	andeq	pc, r4, r0, lsl #8
     e64:	03cc0f00 	biceq	r0, ip, #0, 30
     e68:	49010000 	stmdbmi	r1, {}	; <UNPREDICTABLE>
     e6c:	0000253f 	andeq	r2, r0, pc, lsr r5
     e70:	04910200 	ldreq	r0, [r1], #512	; 0x200
     e74:	66756214 			; <UNDEFINED> instruction: 0x66756214
     e78:	074e0100 	strbeq	r0, [lr, -r0, lsl #2]
     e7c:	000008ab 	andeq	r0, r0, fp, lsr #17
     e80:	7fa89103 	svcvc	0x00a89103
     e84:	01007010 	tsteq	r0, r0, lsl r0
     e88:	0717114e 	ldreq	r1, [r7, -lr, asr #2]
     e8c:	05440000 	strbeq	r0, [r4, #-0]
     e90:	05240000 	streq	r0, [r4, #-0]!
     e94:	75100000 	ldrvc	r0, [r0, #-0]
     e98:	0b4f0100 	bleq	13c12a0 <__bss_end__+0x13b7d90>
     e9c:	0000002c 	andeq	r0, r0, ip, lsr #32
     ea0:	0000062a 	andeq	r0, r0, sl, lsr #12
     ea4:	00000616 	andeq	r0, r0, r6, lsl r6
     ea8:	00030b12 	andeq	r0, r3, r2, lsl fp
     eac:	0008cb00 	andeq	ip, r8, r0, lsl #22
     eb0:	94030500 	strls	r0, [r3], #-1280	; 0xfffffb00
     eb4:	16000090 			; <UNDEFINED> instruction: 0x16000090
     eb8:	000082b0 			; <UNDEFINED> instruction: 0x000082b0
     ebc:	00000078 	andeq	r0, r0, r8, ror r0
     ec0:	00000832 	andeq	r0, r0, r2, lsr r8
     ec4:	00036f11 	andeq	r6, r3, r1, lsl pc
     ec8:	0d540100 	ldfeqe	f0, [r4, #-0]
     ecc:	0000002c 	andeq	r0, r0, ip, lsr #32
     ed0:	000006ab 	andeq	r0, r0, fp, lsr #13
     ed4:	000006a3 	andeq	r0, r0, r3, lsr #13
     ed8:	83681800 	cmnhi	r8, #0, 16
     edc:	095d0000 	ldmdbeq	sp, {}^	; <UNPREDICTABLE>
     ee0:	08470000 	stmdaeq	r7, {}^	; <UNPREDICTABLE>
     ee4:	01190000 	tsteq	r9, r0
     ee8:	a0910351 	addsge	r0, r1, r1, asr r3
     eec:	7c18007f 	ldcvc	0, cr0, [r8], {127}	; 0x7f
     ef0:	d0000083 	andle	r0, r0, r3, lsl #1
     ef4:	68000008 	stmdavs	r0, {r3}
     ef8:	19000008 	stmdbne	r0, {r3}
     efc:	75025001 	strvc	r5, [r2, #-1]
     f00:	51011900 	tstpl	r1, r0, lsl #18
     f04:	19007402 	stmdbne	r0, {r1, sl, ip, sp, lr}
     f08:	91035301 	tstls	r3, r1, lsl #6
     f0c:	18007fa0 	stmdane	r0, {r5, r7, r8, r9, sl, fp, ip, sp, lr}
     f10:	000083d4 	ldrdeq	r8, [r0], -r4
     f14:	00000a9e 	muleq	r0, lr, sl
     f18:	000008a1 	andeq	r0, r0, r1, lsr #17
     f1c:	05500119 	ldrbeq	r0, [r0, #-281]	; 0xfffffee7
     f20:	008f5003 	addeq	r5, pc, r3
     f24:	51011900 	tstpl	r1, r0, lsl #18
     f28:	8f3c0305 	svchi	0x003c0305
     f2c:	01190000 	tsteq	r9, r0
     f30:	94030552 	strls	r0, [r3], #-1362	; 0xfffffaae
     f34:	19000090 	stmdbne	r0, {r4, r7}
     f38:	08025301 	stmdaeq	r2, {r0, r8, r9, ip, lr}
     f3c:	7d021979 	vstrvc.16	s2, [r2, #-242]	; 0xffffff0e	; <UNPREDICTABLE>
     f40:	64030500 	strvs	r0, [r3], #-1280	; 0xfffffb00
     f44:	0000008f 	andeq	r0, r0, pc, lsl #1
     f48:	0083d81a 	addeq	sp, r3, sl, lsl r8
     f4c:	000ac200 	andeq	ip, sl, r0, lsl #4
     f50:	b91c0000 	ldmdblt	ip, {}	; <UNPREDICTABLE>
     f54:	bb000000 	bllt	f5c <__code_start__-0x70a4>
     f58:	1d000008 	stcne	0, cr0, [r0, #-32]	; 0xffffffe0
     f5c:	0000002c 	andeq	r0, r0, ip, lsr #32
     f60:	c01c003f 	andsgt	r0, ip, pc, lsr r0
     f64:	cb000000 	blgt	f6c <__code_start__-0x7094>
     f68:	1d000008 	stcne	0, cr0, [r0, #-32]	; 0xffffffe0
     f6c:	0000002c 	andeq	r0, r0, ip, lsr #32
     f70:	bb090004 	bllt	240f88 <__bss_end__+0x237a78>
     f74:	1e000008 	cdpne	0, 0, cr0, cr0, cr8, {0}
     f78:	0000038f 	andeq	r0, r0, pc, lsl #7
     f7c:	170e3801 	strne	r3, [lr, -r1, lsl #16]
     f80:	0c000007 	stceq	0, cr0, [r0], {7}
     f84:	38000082 	stmdacc	r0, {r1, r7}
     f88:	01000000 	mrseq	r0, (UNDEF: 0)
     f8c:	00095d9c 	muleq	r9, ip, sp
     f90:	73640e00 	cmnvc	r4, #0, 28
     f94:	38010074 	stmdacc	r1, {r2, r4, r5, r6}
     f98:	0007171c 	andeq	r1, r7, ip, lsl r7
     f9c:	0006ec00 	andeq	lr, r6, r0, lsl #24
     fa0:	0006e200 	andeq	lr, r6, r0, lsl #4
     fa4:	006e0e00 	rsbeq	r0, lr, r0, lsl #28
     fa8:	25253801 	strcs	r3, [r5, #-2049]!	; 0xfffff7ff
     fac:	33000000 	movwcc	r0, #0
     fb0:	2f000007 	svccs	0x00000007
     fb4:	0e000007 	cdpeq	0, 0, cr0, cr0, cr7, {0}
     fb8:	38010070 	stmdacc	r1, {r4, r5, r6}
     fbc:	0007172e 	andeq	r1, r7, lr, lsr #14
     fc0:	00075c00 	andeq	r5, r7, r0, lsl #24
     fc4:	00075400 	andeq	r5, r7, r0, lsl #8
     fc8:	035b1f00 	cmpeq	fp, #0, 30
     fcc:	38010000 	stmdacc	r1, {}	; <UNPREDICTABLE>
     fd0:	00071737 	andeq	r1, r7, r7, lsr r7
     fd4:	00079600 	andeq	r9, r7, r0, lsl #12
     fd8:	00079200 	andeq	r9, r7, r0, lsl #4
     fdc:	656c1000 	strbvs	r1, [ip, #-0]!
     fe0:	3a01006e 	bcc	411a0 <__bss_end__+0x37c90>
     fe4:	00002506 	andeq	r2, r0, r6, lsl #10
     fe8:	0007bc00 	andeq	fp, r7, r0, lsl #24
     fec:	0007b400 	andeq	fp, r7, r0, lsl #8
     ff0:	00731000 	rsbseq	r1, r3, r0
     ff4:	17083e01 	strne	r3, [r8, -r1, lsl #28]
     ff8:	0a000007 	beq	101c <__code_start__-0x6fe4>
     ffc:	08000008 	stmdaeq	r0, {r3}
    1000:	00000008 	andeq	r0, r0, r8
    1004:	64617020 	strbtvs	r7, [r1], #-32	; 0xffffffe0
    1008:	0e2e0100 	sufeqe	f0, f6, f0
    100c:	00000717 	andeq	r0, r0, r7, lsl r7
    1010:	000081e8 	andeq	r8, r0, r8, ror #3
    1014:	00000024 	andeq	r0, r0, r4, lsr #32
    1018:	09c09c01 	stmibeq	r0, {r0, sl, fp, ip, pc}^
    101c:	700e0000 	andvc	r0, lr, r0
    1020:	182e0100 	stmdane	lr!, {r8}
    1024:	00000717 	andeq	r0, r0, r7, lsl r7
    1028:	00000823 	andeq	r0, r0, r3, lsr #16
    102c:	0000081d 	andeq	r0, r0, sp, lsl r8
    1030:	0003c71f 	andeq	ip, r3, pc, lsl r7
    1034:	222e0100 	eorcs	r0, lr, #0
    1038:	00000717 	andeq	r0, r0, r7, lsl r7
    103c:	00000852 	andeq	r0, r0, r2, asr r8
    1040:	0000084e 	andeq	r0, r0, lr, asr #16
    1044:	0003050f 	andeq	r0, r3, pc, lsl #10
    1048:	2c2e0100 	stfcss	f0, [lr], #-0
    104c:	00000025 	andeq	r0, r0, r5, lsr #32
    1050:	6c105201 	lfmvs	f5, 4, [r0], {1}
    1054:	01006e65 	tsteq	r0, r5, ror #28
    1058:	0025062f 	eoreq	r0, r5, pc, lsr #12
    105c:	08750000 	ldmdaeq	r5!, {}^	; <UNPREDICTABLE>
    1060:	08730000 	ldmdaeq	r3!, {}^	; <UNPREDICTABLE>
    1064:	1e000000 	cdpne	0, 0, cr0, cr0, cr0, {0}
    1068:	000002c4 	andeq	r0, r0, r4, asr #5
    106c:	250c2701 	strcs	r2, [ip, #-1793]	; 0xfffff8ff
    1070:	d4000000 	strle	r0, [r0], #-0
    1074:	14000081 	strne	r0, [r0], #-129	; 0xffffff7f
    1078:	01000000 	mrseq	r0, (UNDEF: 0)
    107c:	0009ed9c 	muleq	r9, ip, sp
    1080:	00630e00 	rsbeq	r0, r3, r0, lsl #28
    1084:	25182701 	ldrcs	r2, [r8, #-1793]	; 0xfffff8ff
    1088:	8e000000 	cdphi	0, 0, cr0, cr0, cr0, {0}
    108c:	88000008 	stmdahi	r0, {r3}
    1090:	00000008 	andeq	r0, r0, r8
    1094:	00034821 	andeq	r4, r3, r1, lsr #16
    1098:	061f0100 	ldreq	r0, [pc], -r0, lsl #2
    109c:	000083f8 	strdeq	r8, [r0], -r8	; <UNPREDICTABLE>
    10a0:	00000064 	andeq	r0, r0, r4, rrx
    10a4:	0a7d9c01 	beq	1f680b0 <__bss_end__+0x1f5eba0>
    10a8:	251f0000 	ldrcs	r0, [pc, #-0]	; 10b0 <__code_start__-0x6f50>
    10ac:	01000003 	tsteq	r0, r3
    10b0:	009e1b1f 	addseq	r1, lr, pc, lsl fp
    10b4:	08c00000 	stmiaeq	r0, {}^	; <UNPREDICTABLE>
    10b8:	08bc0000 	ldmeq	ip!, {}	; <UNPREDICTABLE>
    10bc:	871f0000 	ldrhi	r0, [pc, -r0]
    10c0:	01000003 	tsteq	r0, r3
    10c4:	00d1301f 	sbcseq	r3, r1, pc, lsl r0
    10c8:	08e50000 	stmiaeq	r5!, {}^	; <UNPREDICTABLE>
    10cc:	08e10000 	stmiaeq	r1!, {}^	; <UNPREDICTABLE>
    10d0:	0b120000 	bleq	4810d8 <__bss_end__+0x477bc8>
    10d4:	8d000003 	stchi	0, cr0, [r0, #-12]
    10d8:	0500000a 	streq	r0, [r0, #-10]
    10dc:	00909c03 	addseq	r9, r0, r3, lsl #24
    10e0:	84401800 	strbhi	r1, [r0], #-2048	; 0xfffff800
    10e4:	0a9e0000 	beq	fe7810ec <__bss_end__+0xfe777bdc>
    10e8:	0a730000 	beq	1cc10f0 <__bss_end__+0x1cb7be0>
    10ec:	01190000 	tsteq	r9, r0
    10f0:	50030550 	andpl	r0, r3, r0, asr r5
    10f4:	1900008f 	stmdbne	r0, {r0, r1, r2, r3, r7}
    10f8:	03055101 	movweq	r5, #20737	; 0x5101
    10fc:	00008f3c 	andeq	r8, r0, ip, lsr pc
    1100:	05520119 	ldrbeq	r0, [r2, #-281]	; 0xfffffee7
    1104:	00909c03 	addseq	r9, r0, r3, lsl #24
    1108:	53011900 	movwpl	r1, #6400	; 0x1900
    110c:	19200802 	stmdbne	r0!, {r1, fp}
    1110:	05007d02 	streq	r7, [r0, #-3330]	; 0xfffff2fe
    1114:	008f8c03 	addeq	r8, pc, r3, lsl #24
    1118:	441a0000 	ldrmi	r0, [sl], #-0
    111c:	c2000084 	andgt	r0, r0, #132, 0	; 0x84
    1120:	0000000a 	andeq	r0, r0, sl
    1124:	0000c01c 	andeq	ip, r0, ip, lsl r0
    1128:	000a8d00 	andeq	r8, sl, r0, lsl #26
    112c:	002c1d00 	eoreq	r1, ip, r0, lsl #26
    1130:	000e0000 	andeq	r0, lr, r0
    1134:	000a7d09 	andeq	r7, sl, r9, lsl #26
    1138:	03bf2200 			; <UNDEFINED> instruction: 0x03bf2200
    113c:	03bf0000 			; <UNDEFINED> instruction: 0x03bf0000
    1140:	eb030000 	bl	c1148 <__bss_end__+0xb7c38>
    1144:	02512205 	subseq	r2, r1, #1342177280	; 0x50000000
    1148:	02510000 	subseq	r0, r1, #0, 0
    114c:	28030000 	stmdacs	r3, {}	; <UNPREDICTABLE>
    1150:	03972206 	orrseq	r2, r7, #1610612736	; 0x60000000
    1154:	03970000 	orrseq	r0, r7, #0, 0
    1158:	ea030000 	b	c1160 <__bss_end__+0xb7c50>
    115c:	03682205 	cmneq	r8, #1342177280	; 0x50000000
    1160:	03680000 	cmneq	r8, #0, 0
    1164:	ed030000 	stc	0, cr0, [r3, #-0]
    1168:	00992207 	addseq	r2, r9, r7, lsl #4
    116c:	00990000 	addseq	r0, r9, r0
    1170:	6e030000 	cdpvs	0, 0, cr0, cr3, cr0, {0}
    1174:	03612206 	cmneq	r1, #1610612736	; 0x60000000
    1178:	03610000 	cmneq	r1, #0, 0
    117c:	ee030000 	cdp	0, 0, cr0, cr3, cr0, {0}
    1180:	012f0007 			; <UNDEFINED> instruction: 0x012f0007
    1184:	00040000 	andeq	r0, r4, r0
    1188:	000005f2 	strdeq	r0, [r0], -r2
    118c:	01480104 	cmpeq	r8, r4, lsl #2
    1190:	e90c0000 	stmdb	ip, {}	; <UNPREDICTABLE>
    1194:	86000003 	strhi	r0, [r0], -r3
    1198:	14000002 	strne	r0, [r0], #-2
    119c:	2c000089 	stccs	0, cr0, [r0], {137}	; 0x89
    11a0:	a9000000 	stmdbge	r0, {}	; <UNPREDICTABLE>
    11a4:	02000009 	andeq	r0, r0, #9, 0
    11a8:	6e690504 	cdpvs	5, 6, cr0, cr9, cr4, {0}
    11ac:	04030074 	streq	r0, [r3], #-116	; 0xffffff8c
    11b0:	0000ef07 	andeq	lr, r0, r7, lsl #30
    11b4:	06010300 	streq	r0, [r1], -r0, lsl #6
    11b8:	000000af 	andeq	r0, r0, pc, lsr #1
    11bc:	48050203 	stmdami	r5, {r0, r1, r9}
    11c0:	03000000 	movweq	r0, #0
    11c4:	007f0504 	rsbseq	r0, pc, r4, lsl #10
    11c8:	08030000 	stmdaeq	r3, {}	; <UNPREDICTABLE>
    11cc:	00007a05 	andeq	r7, r0, r5, lsl #20
    11d0:	08010300 	stmdaeq	r1, {r8, r9}
    11d4:	000000ad 	andeq	r0, r0, sp, lsr #1
    11d8:	20070203 	andcs	r0, r7, r3, lsl #4
    11dc:	03000001 	movweq	r0, #1
    11e0:	00ea0704 	rsceq	r0, sl, r4, lsl #14
    11e4:	08030000 	stmdaeq	r3, {}	; <UNPREDICTABLE>
    11e8:	0000e507 	andeq	lr, r0, r7, lsl #10
    11ec:	00250400 	eoreq	r0, r5, r0, lsl #8
    11f0:	007a0000 	rsbseq	r0, sl, r0
    11f4:	25050000 	strcs	r0, [r5, #-0]
    11f8:	00000000 	andeq	r0, r0, r0
    11fc:	00005806 	andeq	r5, r0, r6, lsl #16
    1200:	0e1c0200 	cdpeq	2, 1, cr0, cr12, cr0, {0}
    1204:	00000086 	andeq	r0, r0, r6, lsl #1
    1208:	006b0407 	rsbeq	r0, fp, r7, lsl #8
    120c:	25040000 	strcs	r0, [r4, #-0]
    1210:	9b000000 	blls	1218 <__code_start__-0x6de8>
    1214:	05000000 	streq	r0, [r0, #-0]
    1218:	0000009b 	muleq	r0, fp, r0
    121c:	a8040700 	stmdage	r4, {r8, r9, sl}
    1220:	03000000 	movweq	r0, #0
    1224:	00b60801 	adcseq	r0, r6, r1, lsl #16
    1228:	a1080000 	mrsge	r0, (UNDEF: 8)
    122c:	06000000 	streq	r0, [r0], -r0
    1230:	000002b1 			; <UNDEFINED> instruction: 0x000002b1
    1234:	b90e2102 	stmdblt	lr, {r1, r8, sp}
    1238:	07000000 	streq	r0, [r0, -r0]
    123c:	00008c04 	andeq	r8, r0, r4, lsl #24
    1240:	00990900 	addseq	r0, r9, r0, lsl #18
    1244:	04010000 	streq	r0, [r1], #-0
    1248:	00891406 	addeq	r1, r9, r6, lsl #8
    124c:	00002c00 	andeq	r2, r0, r0, lsl #24
    1250:	0e9c0100 	fmleqe	f0, f4, f0
    1254:	0a000001 	beq	1260 <__code_start__-0x6da0>
    1258:	00008928 	andeq	r8, r0, r8, lsr #18
    125c:	000000e8 	andeq	r0, r0, r8, ror #1
    1260:	0550010b 	ldrbeq	r0, [r0, #-267]	; 0xfffffef5
    1264:	0090b803 	addseq	fp, r0, r3, lsl #16
    1268:	2c0c0000 	stccs	0, cr0, [ip], {-0}
    126c:	0e000089 	cdpeq	0, 0, cr0, cr0, cr9, {4}
    1270:	0d000001 	stceq	0, cr0, [r0, #-4]
    1274:	00008934 	andeq	r8, r0, r4, lsr r9
    1278:	0000011a 	andeq	r0, r0, sl, lsl r1
    127c:	00000104 	andeq	r0, r0, r4, lsl #2
    1280:	0150010b 	cmpeq	r0, fp, lsl #2
    1284:	380c003a 	stmdacc	ip, {r1, r3, r4, r5}
    1288:	26000089 	strcs	r0, [r0], -r9, lsl #1
    128c:	00000001 	andeq	r0, r0, r1
    1290:	0004040e 	andeq	r0, r4, lr, lsl #8
    1294:	00040400 	andeq	r0, r4, r0, lsl #8
    1298:	064d0200 	strbeq	r0, [sp], -r0, lsl #4
    129c:	0003e00e 	andeq	lr, r3, lr
    12a0:	0003e000 	andeq	lr, r3, r0
    12a4:	06580200 	ldrbeq	r0, [r8], -r0, lsl #4
    12a8:	0003d50e 	andeq	sp, r3, lr, lsl #10
    12ac:	0003d500 	andeq	sp, r3, r0, lsl #10
    12b0:	066b0200 	strbteq	r0, [fp], -r0, lsl #4
    12b4:	00018900 	andeq	r8, r1, r0, lsl #18
    12b8:	b2000400 	andlt	r0, r0, #0, 8
    12bc:	04000006 	streq	r0, [r0], #-6
    12c0:	00014801 	andeq	r4, r1, r1, lsl #16
    12c4:	043a0c00 	ldrteq	r0, [sl], #-3072	; 0xfffff400
    12c8:	02860000 	addeq	r0, r6, #0, 0
    12cc:	89400000 	stmdbhi	r0, {}^	; <UNPREDICTABLE>
    12d0:	003c0000 	eorseq	r0, ip, r0
    12d4:	0a2c0000 	beq	b012dc <__bss_end__+0xaf7dcc>
    12d8:	04020000 	streq	r0, [r2], #-0
    12dc:	746e6905 	strbtvc	r6, [lr], #-2309	; 0xfffff6fb
    12e0:	07040300 	streq	r0, [r4, -r0, lsl #6]
    12e4:	000000ef 	andeq	r0, r0, pc, ror #1
    12e8:	af060103 	svcge	0x00060103
    12ec:	03000000 	movweq	r0, #0
    12f0:	00480502 	subeq	r0, r8, r2, lsl #10
    12f4:	04030000 	streq	r0, [r3], #-0
    12f8:	00007f05 	andeq	r7, r0, r5, lsl #30
    12fc:	05080300 	streq	r0, [r8, #-768]	; 0xfffffd00
    1300:	0000007a 	andeq	r0, r0, sl, ror r0
    1304:	ad080103 	stfges	f0, [r8, #-12]
    1308:	03000000 	movweq	r0, #0
    130c:	01200702 			; <UNDEFINED> instruction: 0x01200702
    1310:	04030000 	streq	r0, [r3], #-0
    1314:	0000ea07 	andeq	lr, r0, r7, lsl #20
    1318:	07080300 	streq	r0, [r8, -r0, lsl #6]
    131c:	000000e5 	andeq	r0, r0, r5, ror #1
    1320:	00002504 	andeq	r2, r0, r4, lsl #10
    1324:	00007a00 	andeq	r7, r0, r0, lsl #20
    1328:	00250500 	eoreq	r0, r5, r0, lsl #10
    132c:	06000000 	streq	r0, [r0], -r0
    1330:	00000058 	andeq	r0, r0, r8, asr r0
    1334:	860e1c02 	strhi	r1, [lr], -r2, lsl #24
    1338:	07000000 	streq	r0, [r0, -r0]
    133c:	00006b04 	andeq	r6, r0, r4, lsl #22
    1340:	00250400 	eoreq	r0, r5, r0, lsl #8
    1344:	009b0000 	addseq	r0, fp, r0
    1348:	9b050000 	blls	141350 <__bss_end__+0x137e40>
    134c:	00000000 	andeq	r0, r0, r0
    1350:	00a80407 	adceq	r0, r8, r7, lsl #8
    1354:	01030000 	mrseq	r0, (UNDEF: 3)
    1358:	0000b608 	andeq	fp, r0, r8, lsl #12
    135c:	00a10800 	adceq	r0, r1, r0, lsl #16
    1360:	b1060000 	mrslt	r0, (UNDEF: 6)
    1364:	02000002 	andeq	r0, r0, #2, 0
    1368:	00b90e21 	adcseq	r0, r9, r1, lsr #28
    136c:	04070000 	streq	r0, [r7], #-0
    1370:	0000008c 	andeq	r0, r0, ip, lsl #1
    1374:	00041209 	andeq	r1, r4, r9, lsl #4
    1378:	06040100 	streq	r0, [r4], -r0, lsl #2
    137c:	00008940 	andeq	r8, r0, r0, asr #18
    1380:	0000003c 	andeq	r0, r0, ip, lsr r0
    1384:	01549c01 	cmpeq	r4, r1, lsl #24
    1388:	f7060000 			; <UNDEFINED> instruction: 0xf7060000
    138c:	01000002 	tsteq	r0, r2
    1390:	00251005 	eoreq	r1, r5, r5
    1394:	2d060000 	stccs	0, cr0, [r6, #-0]
    1398:	01000003 	tsteq	r0, r3
    139c:	00251f05 	eoreq	r1, r5, r5, lsl #30
    13a0:	180a0000 	stmdane	sl, {}	; <UNPREDICTABLE>
    13a4:	01000001 	tsteq	r0, r1
    13a8:	620b0706 	andvs	r0, fp, #1572864	; 0x180000
    13ac:	01007373 	tsteq	r0, r3, ror r3
    13b0:	01540a0a 	cmpeq	r4, sl, lsl #20
    13b4:	090c0000 	stmdbeq	ip, {}	; <UNPREDICTABLE>
    13b8:	09060000 	stmdbeq	r6, {}	; <UNPREDICTABLE>
    13bc:	1a0c0000 	bne	3013c4 <__bss_end__+0x2f7eb4>
    13c0:	01000004 	tsteq	r0, r4
    13c4:	01540a0b 	cmpeq	r4, fp, lsl #20
    13c8:	640d0000 	strvs	r0, [sp], #-0
    13cc:	08000089 	stmdaeq	r0, {r0, r3, r7}
    13d0:	2f000000 	svccs	0x00000000
    13d4:	0e000001 	cdpeq	0, 0, cr0, cr0, cr1, {0}
    13d8:	01006e69 	tsteq	r0, r9, ror #28
    13dc:	002c0514 	eoreq	r0, ip, r4, lsl r5
    13e0:	00010000 	andeq	r0, r1, r0
    13e4:	0089480f 	addeq	r4, r9, pc, lsl #16
    13e8:	00015a00 	andeq	r5, r1, r0, lsl #20
    13ec:	89640f00 	stmdbhi	r4!, {r8, r9, sl, fp}^
    13f0:	01670000 	cmneq	r7, r0
    13f4:	700f0000 	andvc	r0, pc, r0
    13f8:	73000089 	movwvc	r0, #137	; 0x89
    13fc:	0f000001 	svceq	0x00000001
    1400:	00008974 	andeq	r8, r0, r4, ror r9
    1404:	00000180 	andeq	r0, r0, r0, lsl #3
    1408:	25040700 	strcs	r0, [r4, #-1792]	; 0xfffff900
    140c:	10000000 	andne	r0, r0, r0
    1410:	0000042c 	andeq	r0, r0, ip, lsr #8
    1414:	0000042c 	andeq	r0, r0, ip, lsr #8
    1418:	06013102 	streq	r3, [r1], -r2, lsl #2
    141c:	00042211 	andeq	r2, r4, r1, lsl r2
    1420:	00042200 	andeq	r2, r4, r0, lsl #4
    1424:	063b0200 	ldrteq	r0, [fp], -r0, lsl #4
    1428:	00011810 	andeq	r1, r1, r0, lsl r8
    142c:	00011800 	andeq	r1, r1, r0, lsl #16
    1430:	01050200 	mrseq	r0, SP_usr
    1434:	00991106 	addseq	r1, r9, r6, lsl #2
    1438:	00990000 	addseq	r0, r9, r0
    143c:	6e020000 	cdpvs	0, 0, cr0, cr2, cr0, {0}
    1440:	00ce0006 	sbceq	r0, lr, r6
    1444:	00040000 	andeq	r0, r4, r0
    1448:	000007ae 	andeq	r0, r0, lr, lsr #15
    144c:	01480104 	cmpeq	r8, r4, lsl #2
    1450:	4f0c0000 	svcmi	0x000c0000
    1454:	86000004 	strhi	r0, [r0], -r4
    1458:	7c000002 	stcvc	0, cr0, [r0], {2}
    145c:	04000089 	streq	r0, [r0], #-137	; 0xffffff77
    1460:	c9000000 	stmdbgt	r0, {}	; <UNPREDICTABLE>
    1464:	0200000a 	andeq	r0, r0, #10, 0
    1468:	6e690504 	cdpvs	5, 6, cr0, cr9, cr4, {0}
    146c:	04030074 	streq	r0, [r3], #-116	; 0xffffff8c
    1470:	0000ef07 	andeq	lr, r0, r7, lsl #30
    1474:	06010300 	streq	r0, [r1], -r0, lsl #6
    1478:	000000af 	andeq	r0, r0, pc, lsr #1
    147c:	48050203 	stmdami	r5, {r0, r1, r9}
    1480:	03000000 	movweq	r0, #0
    1484:	007f0504 	rsbseq	r0, pc, r4, lsl #10
    1488:	08030000 	stmdaeq	r3, {}	; <UNPREDICTABLE>
    148c:	00007a05 	andeq	r7, r0, r5, lsl #20
    1490:	08010300 	stmdaeq	r1, {r8, r9}
    1494:	000000ad 	andeq	r0, r0, sp, lsr #1
    1498:	20070203 	andcs	r0, r7, r3, lsl #4
    149c:	03000001 	movweq	r0, #1
    14a0:	00ea0704 	rsceq	r0, sl, r4, lsl #14
    14a4:	08030000 	stmdaeq	r3, {}	; <UNPREDICTABLE>
    14a8:	0000e507 	andeq	lr, r0, r7, lsl #10
    14ac:	00250400 	eoreq	r0, r5, r0, lsl #8
    14b0:	007a0000 	rsbseq	r0, sl, r0
    14b4:	25050000 	strcs	r0, [r5, #-0]
    14b8:	00000000 	andeq	r0, r0, r0
    14bc:	00005806 	andeq	r5, r0, r6, lsl #16
    14c0:	0e1c0200 	cdpeq	2, 1, cr0, cr12, cr0, {0}
    14c4:	00000086 	andeq	r0, r0, r6, lsl #1
    14c8:	006b0407 	rsbeq	r0, fp, r7, lsl #8
    14cc:	25040000 	strcs	r0, [r4, #-0]
    14d0:	9b000000 	blls	14d8 <__code_start__-0x6b28>
    14d4:	05000000 	streq	r0, [r0, #-0]
    14d8:	0000009b 	muleq	r0, fp, r0
    14dc:	a8040700 	stmdage	r4, {r8, r9, sl}
    14e0:	03000000 	movweq	r0, #0
    14e4:	00b60801 	adcseq	r0, r6, r1, lsl #16
    14e8:	a1080000 	mrsge	r0, (UNDEF: 8)
    14ec:	06000000 	streq	r0, [r0], -r0
    14f0:	000002b1 			; <UNDEFINED> instruction: 0x000002b1
    14f4:	b90e2102 	stmdblt	lr, {r1, r8, sp}
    14f8:	07000000 	streq	r0, [r0, -r0]
    14fc:	00008c04 	andeq	r8, r0, r4, lsl #24
    1500:	042c0900 	strteq	r0, [ip], #-2304	; 0xfffff700
    1504:	04010000 	streq	r0, [r1], #-0
    1508:	00897c06 	addeq	r7, r9, r6, lsl #24
    150c:	00000400 	andeq	r0, r0, r0, lsl #8
    1510:	009c0100 	addseq	r0, ip, r0, lsl #2
    1514:	00000236 	andeq	r0, r0, r6, lsr r2
    1518:	08270004 	stmdaeq	r7!, {r2}
    151c:	01040000 	mrseq	r0, (UNDEF: 4)
    1520:	00000148 	andeq	r0, r0, r8, asr #2
    1524:	0004970c 	andeq	r9, r4, ip, lsl #14
    1528:	00028600 	andeq	r8, r2, r0, lsl #12
	...
    1534:	000b4a00 	andeq	r4, fp, r0, lsl #20
    1538:	05040200 	streq	r0, [r4, #-512]	; 0xfffffe00
    153c:	00746e69 	rsbseq	r6, r4, r9, ror #28
    1540:	00002503 	andeq	r2, r0, r3, lsl #10
    1544:	07040400 	streq	r0, [r4, -r0, lsl #8]
    1548:	000000ef 	andeq	r0, r0, pc, ror #1
    154c:	af060104 	svcge	0x00060104
    1550:	04000000 	streq	r0, [r0], #-0
    1554:	00480502 	subeq	r0, r8, r2, lsl #10
    1558:	04040000 	streq	r0, [r4], #-0
    155c:	00007f05 	andeq	r7, r0, r5, lsl #30
    1560:	05080400 	streq	r0, [r8, #-1024]	; 0xfffffc00
    1564:	0000007a 	andeq	r0, r0, sl, ror r0
    1568:	ad080104 	stfges	f0, [r8, #-16]
    156c:	04000000 	streq	r0, [r0], #-0
    1570:	01200702 			; <UNDEFINED> instruction: 0x01200702
    1574:	04040000 	streq	r0, [r4], #-0
    1578:	0000ea07 	andeq	lr, r0, r7, lsl #20
    157c:	07080400 	streq	r0, [r8, -r0, lsl #8]
    1580:	000000e5 	andeq	r0, r0, r5, ror #1
    1584:	00002505 	andeq	r2, r0, r5, lsl #10
    1588:	00007f00 	andeq	r7, r0, r0, lsl #30
    158c:	00250600 	eoreq	r0, r5, r0, lsl #12
    1590:	07000000 	streq	r0, [r0, -r0]
    1594:	00000058 	andeq	r0, r0, r8, asr r0
    1598:	8b0e1c02 	blhi	3885a8 <__bss_end__+0x37f098>
    159c:	08000000 	stmdaeq	r0, {}	; <UNPREDICTABLE>
    15a0:	00007004 	andeq	r7, r0, r4
    15a4:	00250500 	eoreq	r0, r5, r0, lsl #10
    15a8:	00a00000 	adceq	r0, r0, r0
    15ac:	a0060000 	andge	r0, r6, r0
    15b0:	00000000 	andeq	r0, r0, r0
    15b4:	00ad0408 	adceq	r0, sp, r8, lsl #8
    15b8:	01040000 	mrseq	r0, (UNDEF: 4)
    15bc:	0000b608 	andeq	fp, r0, r8, lsl #12
    15c0:	00a60300 	adceq	r0, r6, r0, lsl #6
    15c4:	b1070000 	mrslt	r0, (UNDEF: 7)
    15c8:	02000002 	andeq	r0, r0, #2, 0
    15cc:	00be0e21 	adcseq	r0, lr, r1, lsr #28
    15d0:	04080000 	streq	r0, [r8], #-0
    15d4:	00000091 	muleq	r0, r1, r0
    15d8:	0004bb09 	andeq	fp, r4, r9, lsl #22
    15dc:	110d0100 	mrsne	r0, (UNDEF: 29)
    15e0:	00000031 	andeq	r0, r0, r1, lsr r0
    15e4:	0003d50a 	andeq	sp, r3, sl, lsl #10
    15e8:	061f0100 	ldreq	r0, [pc], -r0, lsl #2
    15ec:	000089ac 	andeq	r8, r0, ip, lsr #19
    15f0:	00000054 	andeq	r0, r0, r4, asr r0
    15f4:	01ae9c01 			; <UNDEFINED> instruction: 0x01ae9c01
    15f8:	df0b0000 	svcle	0x000b0000
    15fc:	01000004 	tsteq	r0, r4
    1600:	002c0f2c 	eoreq	r0, ip, ip, lsr #30
    1604:	09390000 	ldmdbeq	r9!, {}	; <UNPREDICTABLE>
    1608:	09370000 	ldmdbeq	r7!, {}	; <UNPREDICTABLE>
    160c:	7a0b0000 	bvc	2c1614 <__bss_end__+0x2b8104>
    1610:	01000004 	tsteq	r0, r4
    1614:	002c0f2d 	eoreq	r0, ip, sp, lsr #30
    1618:	09530000 	ldmdbeq	r3, {}^	; <UNPREDICTABLE>
    161c:	09510000 	ldmdbeq	r1, {}^	; <UNPREDICTABLE>
    1620:	ac0b0000 	stcge	0, cr0, [fp], {-0}
    1624:	01000004 	tsteq	r0, r4
    1628:	002c0f2e 	eoreq	r0, ip, lr, lsr #30
    162c:	096d0000 	stmdbeq	sp!, {}^	; <UNPREDICTABLE>
    1630:	096b0000 	stmdbeq	fp!, {}^	; <UNPREDICTABLE>
    1634:	c60b0000 	strgt	r0, [fp], -r0
    1638:	01000004 	tsteq	r0, r4
    163c:	002c0f2f 	eoreq	r0, ip, pc, lsr #30
    1640:	09860000 	stmibeq	r6, {}	; <UNPREDICTABLE>
    1644:	09840000 	stmibeq	r4, {}	; <UNPREDICTABLE>
    1648:	b40c0000 	strlt	r0, [ip], #-0
    164c:	d9000089 	stmdble	r0, {r0, r3, r7}
    1650:	0c000001 	stceq	0, cr0, [r0], {1}
    1654:	000089c0 	andeq	r8, r0, r0, asr #19
    1658:	00000208 	andeq	r0, r0, r8, lsl #4
    165c:	0089c40c 	addeq	ip, r9, ip, lsl #8
    1660:	00021500 	andeq	r1, r2, r0, lsl #10
    1664:	89cc0d00 	stmibhi	ip, {r8, sl, fp}^
    1668:	02210000 	eoreq	r0, r1, #0, 0
    166c:	01640000 	cmneq	r4, r0
    1670:	010e0000 	mrseq	r0, (UNDEF: 14)
    1674:	003a0150 	eorseq	r0, sl, r0, asr r1
    1678:	0089d80d 	addeq	sp, r9, sp, lsl #16
    167c:	00022d00 	andeq	r2, r2, r0, lsl #26
    1680:	00018400 	andeq	r8, r1, r0, lsl #8
    1684:	50010e00 	andpl	r0, r1, r0, lsl #28
    1688:	00240c05 	eoreq	r0, r4, r5, lsl #24
    168c:	010e2010 	tsteq	lr, r0, lsl r0
    1690:	010c0551 	tsteq	ip, r1, asr r5
    1694:	005a0000 	subseq	r0, sl, r0
    1698:	0089e40d 	addeq	lr, r9, sp, lsl #8
    169c:	00022d00 	andeq	r2, r2, r0, lsl #26
    16a0:	0001a400 	andeq	sl, r1, r0, lsl #8
    16a4:	50010e00 	andpl	r0, r1, r0, lsl #28
    16a8:	001c0c05 	andseq	r0, ip, r5, lsl #24
    16ac:	010e2010 	tsteq	lr, r0, lsl r0
    16b0:	200c0551 	andcs	r0, ip, r1, asr r5
    16b4:	005a0000 	subseq	r0, sl, r0
    16b8:	0089ec0c 	addeq	lr, r9, ip, lsl #24
    16bc:	0001ae00 	andeq	sl, r1, r0, lsl #28
    16c0:	880f0000 	stmdahi	pc, {}	; <UNPREDICTABLE>
    16c4:	01000004 	tsteq	r0, r4
    16c8:	89980617 	ldmibhi	r8, {r0, r1, r2, r4, r9, sl}
    16cc:	00140000 	andseq	r0, r4, r0
    16d0:	9c010000 	stcls	0, cr0, [r1], {-0}
    16d4:	000001d9 	ldrdeq	r0, [r0], -r9
    16d8:	0004e70b 	andeq	lr, r4, fp, lsl #14
    16dc:	0e180100 	mufeqe	f0, f0, f0
    16e0:	00000031 	andeq	r0, r0, r1, lsr r0
    16e4:	000009a1 	andeq	r0, r0, r1, lsr #19
    16e8:	0000099b 	muleq	r0, fp, r9
    16ec:	04b81000 	ldrteq	r1, [r8], #0
    16f0:	0e010000 	cdpeq	0, 0, cr0, cr1, cr0, {0}
    16f4:	00002505 	andeq	r2, r0, r5, lsl #10
    16f8:	00898000 	addeq	r8, r9, r0
    16fc:	00001800 	andeq	r1, r0, r0, lsl #16
    1700:	089c0100 	ldmeq	ip, {r8}
    1704:	0b000002 	bleq	1714 <__code_start__-0x68ec>
    1708:	000004e7 	andeq	r0, r0, r7, ror #9
    170c:	310e0f01 	tstcc	lr, r1, lsl #30
    1710:	cf000000 	svcgt	0x00000000
    1714:	cb000009 	blgt	1740 <__code_start__-0x68c0>
    1718:	00000009 	andeq	r0, r0, r9
    171c:	00046b11 	andeq	r6, r4, r1, lsl fp
    1720:	00046b00 	andeq	r6, r4, r0, lsl #22
    1724:	01360200 	teqeq	r6, r0, lsl #4
    1728:	04041206 	streq	r1, [r4], #-518	; 0xfffffdfa
    172c:	04040000 	streq	r0, [r4], #-0
    1730:	4d020000 	stcmi	0, cr0, [r2, #-0]
    1734:	03e01206 	mvneq	r1, #1610612736	; 0x60000000
    1738:	03e00000 	mvneq	r0, #0, 0
    173c:	58020000 	stmdapl	r2, {}	; <UNPREDICTABLE>
    1740:	04821206 	streq	r1, [r2], #518	; 0x206
    1744:	04820000 	streq	r0, [r2], #0
    1748:	ad020000 	stcge	0, cr0, [r2, #-0]
    174c:	024d0006 	subeq	r0, sp, #6, 0
    1750:	00040000 	andeq	r0, r4, r0
    1754:	0000094c 	andeq	r0, r0, ip, asr #18
    1758:	01480104 	cmpeq	r8, r4, lsl #2
    175c:	020c0000 	andeq	r0, ip, #0, 0
    1760:	86000005 	strhi	r0, [r0], -r5
    1764:	00000002 	andeq	r0, r0, r2
    1768:	8400008a 	strhi	r0, [r0], #-138	; 0xffffff76
    176c:	1b000000 	blne	1774 <__code_start__-0x688c>
    1770:	0200000c 	andeq	r0, r0, #12, 0
    1774:	6e690504 	cdpvs	5, 6, cr0, cr9, cr4, {0}
    1778:	04030074 	streq	r0, [r3], #-116	; 0xffffff8c
    177c:	0000ef07 	andeq	lr, r0, r7, lsl #30
    1780:	06010300 	streq	r0, [r1], -r0, lsl #6
    1784:	000000af 	andeq	r0, r0, pc, lsr #1
    1788:	48050203 	stmdami	r5, {r0, r1, r9}
    178c:	03000000 	movweq	r0, #0
    1790:	007f0504 	rsbseq	r0, pc, r4, lsl #10
    1794:	08030000 	stmdaeq	r3, {}	; <UNPREDICTABLE>
    1798:	00007a05 	andeq	r7, r0, r5, lsl #20
    179c:	08010300 	stmdaeq	r1, {r8, r9}
    17a0:	000000ad 	andeq	r0, r0, sp, lsr #1
    17a4:	20070203 	andcs	r0, r7, r3, lsl #4
    17a8:	03000001 	movweq	r0, #1
    17ac:	00ea0704 	rsceq	r0, sl, r4, lsl #14
    17b0:	08030000 	stmdaeq	r3, {}	; <UNPREDICTABLE>
    17b4:	0000e507 	andeq	lr, r0, r7, lsl #10
    17b8:	00250400 	eoreq	r0, r5, r0, lsl #8
    17bc:	007a0000 	rsbseq	r0, sl, r0
    17c0:	25050000 	strcs	r0, [r5, #-0]
    17c4:	00000000 	andeq	r0, r0, r0
    17c8:	00005806 	andeq	r5, r0, r6, lsl #16
    17cc:	0e1c0200 	cdpeq	2, 1, cr0, cr12, cr0, {0}
    17d0:	00000086 	andeq	r0, r0, r6, lsl #1
    17d4:	006b0407 	rsbeq	r0, fp, r7, lsl #8
    17d8:	25040000 	strcs	r0, [r4, #-0]
    17dc:	9b000000 	blls	17e4 <__code_start__-0x681c>
    17e0:	05000000 	streq	r0, [r0, #-0]
    17e4:	0000009b 	muleq	r0, fp, r0
    17e8:	a8040700 	stmdage	r4, {r8, r9, sl}
    17ec:	03000000 	movweq	r0, #0
    17f0:	00b60801 	adcseq	r0, r6, r1, lsl #16
    17f4:	a1080000 	mrsge	r0, (UNDEF: 8)
    17f8:	06000000 	streq	r0, [r0], -r0
    17fc:	000002b1 			; <UNDEFINED> instruction: 0x000002b1
    1800:	b90e2102 	stmdblt	lr, {r1, r8, sp}
    1804:	07000000 	streq	r0, [r0, -r0]
    1808:	00008c04 	andeq	r8, r0, r4, lsl #24
    180c:	04f80900 	ldrbteq	r0, [r8], #2304	; 0x900
    1810:	1e010000 	cdpne	0, 0, cr0, cr1, cr0, {0}
    1814:	008a6c06 	addeq	r6, sl, r6, lsl #24
    1818:	00001800 	andeq	r1, r0, r0, lsl #16
    181c:	099c0100 	ldmibeq	ip, {r8}
    1820:	0a000001 	beq	182c <__code_start__-0x67d4>
    1824:	00636573 	rsbeq	r6, r3, r3, ror r5
    1828:	2c191e01 	ldccs	14, cr1, [r9], {1}
    182c:	f2000000 	vhadd.s8	d0, d0, d0
    1830:	ee000009 	cdp	0, 0, cr0, cr0, cr9, {0}
    1834:	0b000009 	bleq	1860 <__code_start__-0x67a0>
    1838:	00008a80 	andeq	r8, r0, r0, lsl #21
    183c:	00000109 	andeq	r0, r0, r9, lsl #2
    1840:	1150010c 	cmpne	r0, ip, lsl #2
    1844:	355001f3 	ldrbcc	r0, [r0, #-499]	; 0xfffffe0d
    1848:	5001f324 	andpl	pc, r1, r4, lsr #6
    184c:	f324321c 	vqsub.u32	d3, d4, d12
    1850:	33225001 			; <UNDEFINED> instruction: 0x33225001
    1854:	09000024 	stmdbeq	r0, {r2, r5}
    1858:	000003e0 	andeq	r0, r0, r0, ror #7
    185c:	54061b01 	strpl	r1, [r6], #-2817	; 0xfffff4ff
    1860:	1800008a 	stmdane	r0, {r1, r3, r7}
    1864:	01000000 	mrseq	r0, (UNDEF: 0)
    1868:	0001529c 	muleq	r1, ip, r2
    186c:	736d0a00 	cmnvc	sp, #0, 20
    1870:	181b0100 	ldmdane	fp, {r8}
    1874:	0000002c 	andeq	r0, r0, ip, lsr #32
    1878:	00000a17 	andeq	r0, r0, r7, lsl sl
    187c:	00000a13 	andeq	r0, r0, r3, lsl sl
    1880:	008a680b 	addeq	r6, sl, fp, lsl #16
    1884:	00015200 	andeq	r5, r1, r0, lsl #4
    1888:	50010c00 	andpl	r0, r1, r0, lsl #24
    188c:	5001f311 	andpl	pc, r1, r1, lsl r3	; <UNPREDICTABLE>
    1890:	01f32435 	mvnseq	r2, r5, lsr r4
    1894:	24321c50 	ldrtcs	r1, [r2], #-3152	; 0xfffff3b0
    1898:	225001f3 	subscs	r0, r0, #-1073741764	; 0xc000003c
    189c:	00002433 	andeq	r2, r0, r3, lsr r4
    18a0:	00052b09 	andeq	r2, r5, r9, lsl #22
    18a4:	06120100 	ldreq	r0, [r2], -r0, lsl #2
    18a8:	00008a30 	andeq	r8, r0, r0, lsr sl
    18ac:	00000024 	andeq	r0, r0, r4, lsr #32
    18b0:	01c29c01 	biceq	r9, r2, r1, lsl #24
    18b4:	750a0000 	strvc	r0, [sl, #-0]
    18b8:	12010073 	andne	r0, r1, #115, 0	; 0x73
    18bc:	00002c18 	andeq	r2, r0, r8, lsl ip
    18c0:	000a3c00 	andeq	r3, sl, r0, lsl #24
    18c4:	000a3800 	andeq	r3, sl, r0, lsl #16
    18c8:	62720d00 	rsbsvs	r0, r2, #0, 26
    18cc:	0e130100 	mufeqs	f0, f3, f0
    18d0:	0000002c 	andeq	r0, r0, ip, lsr #32
    18d4:	00000a5c 	andeq	r0, r0, ip, asr sl
    18d8:	00000a5a 	andeq	r0, r0, sl, asr sl
    18dc:	008a400e 	addeq	r4, sl, lr
    18e0:	00001400 	andeq	r1, r0, r0, lsl #8
    18e4:	0001b800 	andeq	fp, r1, r0, lsl #16
    18e8:	61720d00 	cmnvs	r2, r0, lsl #26
    18ec:	12150100 	andsne	r0, r5, #0
    18f0:	0000002c 	andeq	r0, r0, ip, lsr #32
    18f4:	00000a71 	andeq	r0, r0, r1, ror sl
    18f8:	00000a6f 	andeq	r0, r0, pc, ror #20
    18fc:	008a440f 	addeq	r4, sl, pc, lsl #8
    1900:	0001c200 	andeq	ip, r1, r0, lsl #4
    1904:	3c0f0000 	stccc	0, cr0, [pc], {-0}
    1908:	c200008a 	andgt	r0, r0, #138, 0	; 0x8a
    190c:	00000001 	andeq	r0, r0, r1
    1910:	00051c10 	andeq	r1, r5, r0, lsl ip
    1914:	0a090100 	beq	241d1c <__bss_end__+0x23880c>
    1918:	0000002c 	andeq	r0, r0, ip, lsr #32
    191c:	00008a14 	andeq	r8, r0, r4, lsl sl
    1920:	0000001c 	andeq	r0, r0, ip, lsl r0
    1924:	020a9c01 	andeq	r9, sl, #256	; 0x100
    1928:	750d0000 	strvc	r0, [sp, #-0]
    192c:	0e0d0100 	adfeqe	f0, f5, f0
    1930:	0000002c 	andeq	r0, r0, ip, lsr #32
    1934:	00000a88 	andeq	r0, r0, r8, lsl #21
    1938:	00000a84 	andeq	r0, r0, r4, lsl #21
    193c:	008a1c0f 	addeq	r1, sl, pc, lsl #24
    1940:	00023800 	andeq	r3, r2, r0, lsl #16
    1944:	8a200f00 	bhi	80554c <__bss_end__+0x7fc03c>
    1948:	020a0000 	andeq	r0, sl, #0, 0
    194c:	280f0000 	stmdacs	pc, {}	; <UNPREDICTABLE>
    1950:	3800008a 	stmdacc	r0, {r1, r3, r7}
    1954:	00000002 	andeq	r0, r0, r2
    1958:	00053410 	andeq	r3, r5, r0, lsl r4
    195c:	0a040100 	beq	101d64 <__bss_end__+0xf8854>
    1960:	0000002c 	andeq	r0, r0, ip, lsr #32
    1964:	00008a00 	andeq	r8, r0, r0, lsl #20
    1968:	00000014 	andeq	r0, r0, r4, lsl r0
    196c:	02389c01 	eorseq	r9, r8, #256	; 0x100
    1970:	0c0b0000 	stceq	0, cr0, [fp], {-0}
    1974:	4400008a 	strmi	r0, [r0], #-138	; 0xffffff76
    1978:	0c000002 	stceq	0, cr0, [r0], {2}
    197c:	0c055001 	stceq	0, cr5, [r5], {1}
    1980:	20003004 	andcs	r3, r0, r4
    1984:	ec110000 	ldc	0, cr0, [r1], {-0}
    1988:	ec000004 	stc	0, cr0, [r0], {4}
    198c:	02000004 	andeq	r0, r0, #4, 0
    1990:	1611069c 			; <UNDEFINED> instruction: 0x1611069c
    1994:	16000005 	strne	r0, [r0], -r5
    1998:	02000005 	andeq	r0, r0, #5, 0
    199c:	cd000ac2 	vstrgt	s0, [r0, #-776]	; 0xfffffcf8
    19a0:	04000005 	streq	r0, [r0], #-5
    19a4:	000a4d00 	andeq	r4, sl, r0, lsl #26
    19a8:	10010400 	andne	r0, r1, r0, lsl #8
    19ac:	0c000006 	stceq	0, cr0, [r0], {6}
    19b0:	00000574 	andeq	r0, r0, r4, ror r5
    19b4:	000006ee 	andeq	r0, r0, lr, ror #13
    19b8:	00008a84 	andeq	r8, r0, r4, lsl #21
    19bc:	000001f0 	strdeq	r0, [r0], -r0	; <UNPREDICTABLE>
    19c0:	00000cf3 	strdeq	r0, [r0], -r3
    19c4:	69050402 	stmdbvs	r5, {r1, sl}
    19c8:	0300746e 	movweq	r7, #1134	; 0x46e
    19cc:	00ef0704 	rsceq	r0, pc, r4, lsl #14
    19d0:	2c040000 	stccs	0, cr0, [r4], {-0}
    19d4:	03000000 	movweq	r0, #0
    19d8:	00af0601 	adceq	r0, pc, r1, lsl #12
    19dc:	02030000 	andeq	r0, r3, #0, 0
    19e0:	00004805 	andeq	r4, r0, r5, lsl #16
    19e4:	05040300 	streq	r0, [r4, #-768]	; 0xfffffd00
    19e8:	0000007f 	andeq	r0, r0, pc, ror r0
    19ec:	7a050803 	bvc	143a00 <__bss_end__+0x13a4f0>
    19f0:	03000000 	movweq	r0, #0
    19f4:	00ad0801 	adceq	r0, sp, r1, lsl #16
    19f8:	02030000 	andeq	r0, r3, #0, 0
    19fc:	00012007 	andeq	r2, r1, r7
    1a00:	01030500 	tsteq	r3, r0, lsl #10
    1a04:	34050000 	strcc	r0, [r5], #-0
    1a08:	00006e19 	andeq	r6, r0, r9, lsl lr
    1a0c:	07040300 	streq	r0, [r4, -r0, lsl #6]
    1a10:	000000ea 	andeq	r0, r0, sl, ror #1
    1a14:	e5070803 	str	r0, [r7, #-2051]	; 0xfffff7fd
    1a18:	03000000 	movweq	r0, #0
    1a1c:	00b60801 	adcseq	r0, r6, r1, lsl #16
    1a20:	07060000 	streq	r0, [r6, -r0]
    1a24:	00005401 	andeq	r5, r0, r1, lsl #8
    1a28:	0e0c0400 	cfcpyseq	mvf0, mvf12
    1a2c:	000000c2 	andeq	r0, r0, r2, asr #1
    1a30:	00073507 	andeq	r3, r7, r7, lsl #10
    1a34:	63070000 	movwvs	r0, #28672	; 0x7000
    1a38:	01000005 	tsteq	r0, r5
    1a3c:	0005a407 	andeq	sl, r5, r7, lsl #8
    1a40:	b3070400 	movwlt	r0, #29696	; 0x7400
    1a44:	05000005 	streq	r0, [r0, #-5]
    1a48:	0005c207 	andeq	ip, r5, r7, lsl #4
    1a4c:	d1070600 	tstle	r7, r0, lsl #12
    1a50:	07000005 	streq	r0, [r0, -r5]
    1a54:	0006c307 	andeq	ip, r6, r7, lsl #6
    1a58:	e0070300 	and	r0, r7, r0, lsl #6
    1a5c:	02000005 	andeq	r0, r0, #5, 0
    1a60:	06e20800 	strbteq	r0, [r2], r0, lsl #16
    1a64:	022c0000 	eoreq	r0, ip, #0, 0
    1a68:	015e0806 	cmpeq	lr, r6, lsl #16
    1a6c:	69090000 	stmdbvs	r9, {}	; <UNPREDICTABLE>
    1a70:	0902006f 	stmdbeq	r2, {r0, r1, r2, r3, r5, r6}
    1a74:	00003309 	andeq	r3, r0, r9, lsl #6
    1a78:	69090000 	stmdbvs	r9, {}	; <UNPREDICTABLE>
    1a7c:	02007265 	andeq	r7, r0, #1342177286	; 0x50000006
    1a80:	0033090a 	eorseq	r0, r3, sl, lsl #18
    1a84:	09040000 	stmdbeq	r4, {}	; <UNPREDICTABLE>
    1a88:	00726969 	rsbseq	r6, r2, r9, ror #18
    1a8c:	33091102 	movwcc	r1, #37122	; 0x9102
    1a90:	08000000 	stmdaeq	r0, {}	; <UNPREDICTABLE>
    1a94:	72636c09 	rsbvc	r6, r3, #2304	; 0x900
    1a98:	09130200 	ldmdbeq	r3, {r9}
    1a9c:	00000033 	andeq	r0, r0, r3, lsr r0
    1aa0:	636d090c 	cmnvs	sp, #12, 18	; 0x30000
    1aa4:	14020072 	strne	r0, [r2], #-114	; 0xffffff8e
    1aa8:	00003309 	andeq	r3, r0, r9, lsl #6
    1aac:	6c091000 	stcvs	0, cr1, [r9], {-0}
    1ab0:	02007273 	andeq	r7, r0, #805306375	; 0x30000007
    1ab4:	00330915 	eorseq	r0, r3, r5, lsl r9
    1ab8:	09140000 	ldmdbeq	r4, {}	; <UNPREDICTABLE>
    1abc:	0072736d 	rsbseq	r7, r2, sp, ror #6
    1ac0:	33091602 	movwcc	r1, #38402	; 0x9602
    1ac4:	18000000 	stmdane	r0, {}	; <UNPREDICTABLE>
    1ac8:	0006da0a 	andeq	sp, r6, sl, lsl #20
    1acc:	09170200 	ldmdbeq	r7, {r9}
    1ad0:	00000033 	andeq	r0, r0, r3, lsr r0
    1ad4:	06a30a1c 	ssateq	r0, #4, ip, lsl #20
    1ad8:	1b020000 	blne	81ae0 <__bss_end__+0x785d0>
    1adc:	00003309 	andeq	r3, r0, r9, lsl #6
    1ae0:	500a2000 	andpl	r2, sl, r0
    1ae4:	02000005 	andeq	r0, r0, #5, 0
    1ae8:	0033091d 	eorseq	r0, r3, sp, lsl r9
    1aec:	0a240000 	beq	901af4 <__bss_end__+0x8f85e4>
    1af0:	000005f5 	strdeq	r0, [r0], -r5
    1af4:	33091e02 	movwcc	r1, #40450	; 0x9e02
    1af8:	28000000 	stmdacs	r0, {}	; <UNPREDICTABLE>
    1afc:	05fa0b00 	ldrbeq	r0, [sl, #2816]!	; 0xb00
    1b00:	08010000 	stmdaeq	r1, {}	; <UNPREDICTABLE>
    1b04:	00017409 	andeq	r7, r1, r9, lsl #8
    1b08:	21500400 	cmpcs	r0, r0, lsl #8
    1b0c:	33040c20 	movwcc	r0, #19488	; 0x4c20
    1b10:	0d000000 	stceq	0, cr0, [r0, #-0]
    1b14:	0000016e 	andeq	r0, r0, lr, ror #2
    1b18:	0005890b 	andeq	r8, r5, fp, lsl #18
    1b1c:	23290100 			; <UNDEFINED> instruction: 0x23290100
    1b20:	0000018f 	andeq	r0, r0, pc, lsl #3
    1b24:	20215040 	eorcs	r5, r1, r0, asr #32
    1b28:	00c2040c 	sbceq	r0, r2, ip, lsl #8
    1b2c:	890d0000 	stmdbhi	sp, {}	; <UNPREDICTABLE>
    1b30:	0e000001 	cdpeq	0, 0, cr0, cr0, cr1, {0}
    1b34:	00000404 	andeq	r0, r0, r4, lsl #8
    1b38:	3c06cc01 	stccc	12, cr12, [r6], {1}
    1b3c:	1400008c 	strne	r0, [r0], #-140	; 0xffffff74
    1b40:	01000000 	mrseq	r0, (UNDEF: 0)
    1b44:	0001b49c 	muleq	r1, ip, r4
    1b48:	8c440f00 	mcrrhi	15, 0, r0, r4, cr0
    1b4c:	01b40000 			; <UNDEFINED> instruction: 0x01b40000
    1b50:	10000000 	andne	r0, r0, r0
    1b54:	00000593 	muleq	r0, r3, r5
    1b58:	2505b601 	strcs	fp, [r5, #-1537]	; 0xfffff9ff
    1b5c:	1c000000 	stcne	0, cr0, [r0], {-0}
    1b60:	2000008c 	andcs	r0, r0, ip, lsl #1
    1b64:	01000000 	mrseq	r0, (UNDEF: 0)
    1b68:	0001eb9c 	muleq	r1, ip, fp
    1b6c:	8c240f00 	stchi	15, cr0, [r4], #-0
    1b70:	05a00000 	streq	r0, [r0, #0]!
    1b74:	2c110000 	ldccs	0, cr0, [r1], {-0}
    1b78:	ac00008c 	stcge	0, cr0, [r0], {140}	; 0x8c
    1b7c:	12000005 	andne	r0, r0, #5, 0
    1b80:	0c055001 	stceq	0, cr5, [r5], {1}
    1b84:	20215064 	eorcs	r5, r1, r4, rrx
    1b88:	b5100000 	ldrlt	r0, [r0, #-0]
    1b8c:	01000006 	tsteq	r0, r6
    1b90:	002505b3 	strhteq	r0, [r5], -r3
    1b94:	8c0c0000 	stchi	0, cr0, [ip], {-0}
    1b98:	00100000 	andseq	r0, r0, r0
    1b9c:	9c010000 	stcls	0, cr0, [r1], {-0}
    1ba0:	00000218 	andeq	r0, r0, r8, lsl r2
    1ba4:	008c140f 	addeq	r1, ip, pc, lsl #8
    1ba8:	0005a000 	andeq	sl, r5, r0
    1bac:	8c180f00 	ldchi	15, cr0, [r8], {-0}
    1bb0:	03090000 	movweq	r0, #36864	; 0x9000
    1bb4:	0e000000 	cdpeq	0, 0, cr0, cr0, cr0, {0}
    1bb8:	0000072b 	andeq	r0, r0, fp, lsr #14
    1bbc:	dc06ab01 			; <UNDEFINED> instruction: 0xdc06ab01
    1bc0:	3000008b 	andcc	r0, r0, fp, lsl #1
    1bc4:	01000000 	mrseq	r0, (UNDEF: 0)
    1bc8:	00027c9c 	muleq	r2, ip, ip
    1bcc:	00631300 	rsbeq	r1, r3, r0, lsl #6
    1bd0:	2c19ab01 			; <UNDEFINED> instruction: 0x2c19ab01
    1bd4:	aa000000 	bge	1bdc <__code_start__-0x6424>
    1bd8:	a600000a 	strge	r0, [r0], -sl
    1bdc:	0f00000a 	svceq	0x0000000a
    1be0:	00008be8 	andeq	r8, r0, r8, ror #23
    1be4:	000005a0 	andeq	r0, r0, r0, lsr #11
    1be8:	008bec0f 	addeq	lr, fp, pc, lsl #24
    1bec:	0002db00 	andeq	sp, r2, r0, lsl #22
    1bf0:	8c001400 	cfstrshi	mvf1, [r0], {-0}
    1bf4:	05b80000 	ldreq	r0, [r8, #0]!
    1bf8:	02720000 	rsbseq	r0, r2, #0, 0
    1bfc:	01120000 	tsteq	r2, r0
    1c00:	400c0550 	andmi	r0, ip, r0, asr r5
    1c04:	12202150 	eorne	r2, r0, #20
    1c08:	74055101 	strvc	r5, [r5], #-257	; 0xfffffeff
    1c0c:	1aff0800 	bne	fffc3c14 <__bss_end__+0xfffba704>
    1c10:	8c040f00 	stchi	15, cr0, [r4], {-0}
    1c14:	05a00000 	streq	r0, [r0, #0]!
    1c18:	10000000 	andne	r0, r0, r0
    1c1c:	00000606 	andeq	r0, r0, r6, lsl #12
    1c20:	2505a301 	strcs	sl, [r5, #-769]	; 0xfffffcff
    1c24:	ac000000 	stcge	0, cr0, [r0], {-0}
    1c28:	3000008b 	andcc	r0, r0, fp, lsl #1
    1c2c:	01000000 	mrseq	r0, (UNDEF: 0)
    1c30:	0002db9c 	muleq	r2, ip, fp
    1c34:	00631500 	rsbeq	r1, r3, r0, lsl #10
    1c38:	2509a701 	strcs	sl, [r9, #-1793]	; 0xfffff8ff
    1c3c:	ca000000 	bgt	1c44 <__code_start__-0x63bc>
    1c40:	c800000a 	stmdagt	r0, {r1, r3}
    1c44:	0f00000a 	svceq	0x0000000a
    1c48:	00008bb4 			; <UNDEFINED> instruction: 0x00008bb4
    1c4c:	000005a0 	andeq	r0, r0, r0, lsr #11
    1c50:	008bb80f 	addeq	fp, fp, pc, lsl #16
    1c54:	00030900 	andeq	r0, r3, r0, lsl #18
    1c58:	8bc81400 	blhi	ff206c60 <__bss_end__+0xff1fd750>
    1c5c:	05ac0000 	streq	r0, [ip, #0]!
    1c60:	02d10000 	sbcseq	r0, r1, #0, 0
    1c64:	01120000 	tsteq	r2, r0
    1c68:	400c0550 	andmi	r0, ip, r0, asr r5
    1c6c:	00202150 	eoreq	r2, r0, r0, asr r1
    1c70:	008bd00f 	addeq	sp, fp, pc
    1c74:	0005a000 	andeq	sl, r5, r0
    1c78:	7b100000 	blvc	401c80 <__bss_end__+0x3f8770>
    1c7c:	01000005 	tsteq	r0, r5
    1c80:	00250594 	mlaeq	r5, r4, r5, r0
    1c84:	8b8c0000 	blhi	fe301c8c <__bss_end__+0xfe2f877c>
    1c88:	00200000 	eoreq	r0, r0, r0
    1c8c:	9c010000 	stcls	0, cr0, [r1], {-0}
    1c90:	00000309 	andeq	r0, r0, r9, lsl #6
    1c94:	008b9811 	addeq	r9, fp, r1, lsl r8
    1c98:	0005ac00 	andeq	sl, r5, r0, lsl #24
    1c9c:	50011200 	andpl	r1, r1, r0, lsl #4
    1ca0:	50640c05 	rsbpl	r0, r4, r5, lsl #24
    1ca4:	00002021 	andeq	r2, r0, r1, lsr #32
    1ca8:	00055510 	andeq	r5, r5, r0, lsl r5
    1cac:	058b0100 	streq	r0, [fp, #256]	; 0x100
    1cb0:	00000025 	andeq	r0, r0, r5, lsr #32
    1cb4:	00008b74 	andeq	r8, r0, r4, ror fp
    1cb8:	00000018 	andeq	r0, r0, r8, lsl r0
    1cbc:	03379c01 	teqeq	r7, #256	; 0x100
    1cc0:	80110000 	andshi	r0, r1, r0
    1cc4:	ac00008b 	stcge	0, cr0, [r0], {139}	; 0x8b
    1cc8:	12000005 	andne	r0, r0, #5, 0
    1ccc:	0c055001 	stceq	0, cr5, [r5], {1}
    1cd0:	20215064 	eorcs	r5, r1, r4, rrx
    1cd4:	220e0000 	andcs	r0, lr, #0, 0
    1cd8:	01000004 	tsteq	r0, r4
    1cdc:	8ac40645 	bhi	ff1035f8 <__bss_end__+0xff0fa0e8>
    1ce0:	00b00000 	adcseq	r0, r0, r0
    1ce4:	9c010000 	stcls	0, cr0, [r1], {-0}
    1ce8:	00000484 	andeq	r0, r0, r4, lsl #9
    1cec:	00054716 	andeq	r4, r5, r6, lsl r7
    1cf0:	0e7e0100 	rpweqe	f0, f6, f0
    1cf4:	00000062 	andeq	r0, r0, r2, rrx
    1cf8:	d414010e 	ldrle	r0, [r4], #-270	; 0xfffffef2
    1cfc:	c400008a 	strgt	r0, [r0], #-138	; 0xffffff76
    1d00:	73000005 	movwvc	r0, #5
    1d04:	12000003 	andne	r0, r0, #3, 0
    1d08:	3e015001 	cdpcc	0, 0, cr5, cr1, cr1, {0}
    1d0c:	01510112 	cmpeq	r1, r2, lsl r1
    1d10:	e0140032 	ands	r0, r4, r2, lsr r0
    1d14:	c400008a 	strgt	r0, [r0], #-138	; 0xffffff76
    1d18:	8b000005 	blhi	1d34 <__code_start__-0x62cc>
    1d1c:	12000003 	andne	r0, r0, #3, 0
    1d20:	3f015001 	svccc	0x00015001
    1d24:	01510112 	cmpeq	r1, r2, lsl r1
    1d28:	e40f0032 	str	r0, [pc], #-50	; 1d30 <__code_start__-0x62d0>
    1d2c:	a000008a 	andge	r0, r0, sl, lsl #1
    1d30:	14000005 	strne	r0, [r0], #-5
    1d34:	00008af0 	strdeq	r8, [r0], -r0
    1d38:	0000053d 	andeq	r0, r0, sp, lsr r5
    1d3c:	000003b0 			; <UNDEFINED> instruction: 0x000003b0
    1d40:	05500112 	ldrbeq	r0, [r0, #-274]	; 0xfffffeee
    1d44:	2150040c 	cmpcs	r0, ip, lsl #8
    1d48:	51011220 	tstpl	r1, r0, lsr #4
    1d4c:	0f003101 	svceq	0x00003101
    1d50:	00008af4 	strdeq	r8, [r0], -r4
    1d54:	000005a0 	andeq	r0, r0, r0, lsr #11
    1d58:	008b0414 	addeq	r0, fp, r4, lsl r4
    1d5c:	0005b800 	andeq	fp, r5, r0, lsl #16
    1d60:	0003d200 	andeq	sp, r3, r0, lsl #4
    1d64:	50011200 	andpl	r1, r1, r0, lsl #4
    1d68:	12007402 	andne	r7, r0, #33554432	; 0x2000000
    1d6c:	30015101 	andcc	r5, r1, r1, lsl #2
    1d70:	8b101400 	blhi	406d78 <__bss_end__+0x3fd868>
    1d74:	05b80000 	ldreq	r0, [r8, #0]!
    1d78:	03ee0000 	mvneq	r0, #0, 0
    1d7c:	01120000 	tsteq	r2, r0
    1d80:	440c0550 	strmi	r0, [ip], #-1360	; 0xfffffab0
    1d84:	12202150 	eorne	r2, r0, #20
    1d88:	30015101 	andcc	r5, r1, r1, lsl #2
    1d8c:	8b1c1400 	blhi	706d94 <__bss_end__+0x6fd884>
    1d90:	05b80000 	ldreq	r0, [r8, #0]!
    1d94:	040a0000 	streq	r0, [sl], #-0
    1d98:	01120000 	tsteq	r2, r0
    1d9c:	4c0c0550 	cfstr32mi	mvfx0, [ip], {80}	; 0x50
    1da0:	12202150 	eorne	r2, r0, #20
    1da4:	33015101 	movwcc	r5, #4353	; 0x1101
    1da8:	8b281400 	blhi	a06db0 <__bss_end__+0x9fd8a0>
    1dac:	05b80000 	ldreq	r0, [r8, #0]!
    1db0:	04260000 	strteq	r0, [r6], #-0
    1db4:	01120000 	tsteq	r2, r0
    1db8:	500c0550 	andpl	r0, ip, r0, asr r5
    1dbc:	12202150 	eorne	r2, r0, #20
    1dc0:	30015101 	andcc	r5, r1, r1, lsl #2
    1dc4:	8b341400 	blhi	d06dcc <__bss_end__+0xcfd8bc>
    1dc8:	05b80000 	ldreq	r0, [r8, #0]!
    1dcc:	04430000 	strbeq	r0, [r3], #-0
    1dd0:	01120000 	tsteq	r2, r0
    1dd4:	480c0550 	stmdami	ip, {r4, r6, r8, sl}
    1dd8:	12202150 	eorne	r2, r0, #20
    1ddc:	08025101 	stmdaeq	r2, {r0, r8, ip, lr}
    1de0:	401400c7 	andsmi	r0, r4, r7, asr #1
    1de4:	b800008b 	stmdalt	r0, {r0, r1, r3, r7}
    1de8:	61000005 	tstvs	r0, r5
    1dec:	12000004 	andne	r0, r0, #4, 0
    1df0:	0c055001 	stceq	0, cr5, [r5], {1}
    1df4:	20215068 	eorcs	r5, r1, r8, rrx
    1df8:	03510112 	cmpeq	r1, #-2147483644	; 0x80000004
    1dfc:	00010e0a 	andeq	r0, r1, sl, lsl #28
    1e00:	008b4c14 	addeq	r4, fp, r4, lsl ip
    1e04:	0005b800 	andeq	fp, r5, r0, lsl #16
    1e08:	00047a00 	andeq	r7, r4, r0, lsl #20
    1e0c:	50011200 	andpl	r1, r1, r0, lsl #4
    1e10:	12007402 	andne	r7, r0, #33554432	; 0x2000000
    1e14:	33015101 	movwcc	r5, #4353	; 0x1101
    1e18:	8b500f00 	blhi	1405a20 <__bss_end__+0x13fc510>
    1e1c:	05a00000 	streq	r0, [r0, #0]!
    1e20:	0e000000 	cdpeq	0, 0, cr0, cr0, cr0, {0}
    1e24:	000006a8 	andeq	r0, r0, r8, lsr #13
    1e28:	50063501 	andpl	r3, r6, r1, lsl #10
    1e2c:	2400008c 	strcs	r0, [r0], #-140	; 0xffffff74
    1e30:	01000000 	mrseq	r0, (UNDEF: 0)
    1e34:	0004d39c 	muleq	r4, ip, r3
    1e38:	8c580f00 	mrrchi	15, 0, r0, r8, cr0
    1e3c:	01940000 	orrseq	r0, r4, r0
    1e40:	5c0f0000 	stcpl	0, cr0, [pc], {-0}
    1e44:	a000008c 	andge	r0, r0, ip, lsl #1
    1e48:	14000005 	strne	r0, [r0], #-5
    1e4c:	00008c68 	andeq	r8, r0, r8, ror #24
    1e50:	000004d3 	ldrdeq	r0, [r0], -r3
    1e54:	000004c9 	andeq	r0, r0, r9, asr #9
    1e58:	05500112 	ldrbeq	r0, [r0, #-274]	; 0xfffffeee
    1e5c:	2150040c 	cmpcs	r0, ip, lsl #8
    1e60:	51011220 	tstpl	r1, r0, lsr #4
    1e64:	00fe0902 	rscseq	r0, lr, r2, lsl #18
    1e68:	008c6c0f 	addeq	r6, ip, pc, lsl #24
    1e6c:	0005a000 	andeq	sl, r5, r0
    1e70:	22170000 	andscs	r0, r7, #0, 0
    1e74:	01000007 	tsteq	r0, r7
    1e78:	8a840d31 	bhi	fe105344 <__bss_end__+0xfe0fbe34>
    1e7c:	00200000 	eoreq	r0, r0, r0
    1e80:	9c010000 	stcls	0, cr0, [r1], {-0}
    1e84:	00000536 	andeq	r0, r0, r6, lsr r5
    1e88:	00058e18 	andeq	r8, r5, r8, lsl lr
    1e8c:	25310100 	ldrcs	r0, [r1, #-256]!	; 0xffffff00
    1e90:	00000536 	andeq	r0, r0, r6, lsr r5
    1e94:	00000ae1 	andeq	r0, r0, r1, ror #21
    1e98:	00000add 	ldrdeq	r0, [r0], -sp
    1e9c:	6c617613 	stclvs	6, cr7, [r1], #-76	; 0xffffffb4
    1ea0:	34310100 	ldrtcc	r0, [r1], #-256	; 0xffffff00
    1ea4:	0000002c 	andeq	r0, r0, ip, lsr #32
    1ea8:	00000b03 	andeq	r0, r0, r3, lsl #22
    1eac:	00000aff 	strdeq	r0, [r0], -pc	; <UNPREDICTABLE>
    1eb0:	008a9414 	addeq	r9, sl, r4, lsl r4
    1eb4:	0005ac00 	andeq	sl, r5, r0, lsl #24
    1eb8:	00052500 	andeq	r2, r5, r0, lsl #10
    1ebc:	50011200 	andpl	r1, r1, r0, lsl #4
    1ec0:	00007402 	andeq	r7, r0, r2, lsl #8
    1ec4:	008aa011 	addeq	sl, sl, r1, lsl r0
    1ec8:	0005b800 	andeq	fp, r5, r0, lsl #16
    1ecc:	50011200 	andpl	r1, r1, r0, lsl #4
    1ed0:	00007402 	andeq	r7, r0, r2, lsl #8
    1ed4:	3c040c00 	stccc	12, cr0, [r4], {-0}
    1ed8:	19000005 	stmdbne	r0, {r0, r2}
    1edc:	0006d217 	andeq	sp, r6, r7, lsl r2
    1ee0:	0d2e0100 	stfeqs	f0, [lr, #-0]
    1ee4:	00008aa4 	andeq	r8, r0, r4, lsr #21
    1ee8:	00000020 	andeq	r0, r0, r0, lsr #32
    1eec:	05a09c01 	streq	r9, [r0, #3073]!	; 0xc01
    1ef0:	8e180000 	cdphi	0, 1, cr0, cr8, cr0, {0}
    1ef4:	01000005 	tsteq	r0, r5
    1ef8:	0536242e 	ldreq	r2, [r6, #-1070]!	; 0xfffffbd2
    1efc:	0b250000 	bleq	941f04 <__bss_end__+0x9389f4>
    1f00:	0b210000 	bleq	841f08 <__bss_end__+0x8389f8>
    1f04:	76130000 	ldrvc	r0, [r3], -r0
    1f08:	01006c61 	tsteq	r0, r1, ror #24
    1f0c:	002c332e 	eoreq	r3, ip, lr, lsr #6
    1f10:	0b470000 	bleq	11c1f18 <__bss_end__+0x11b8a08>
    1f14:	0b430000 	bleq	10c1f1c <__bss_end__+0x10b8a0c>
    1f18:	b4140000 	ldrlt	r0, [r4], #-0
    1f1c:	ac00008a 	stcge	0, cr0, [r0], {138}	; 0x8a
    1f20:	8f000005 	svchi	0x00000005
    1f24:	12000005 	andne	r0, r0, #5, 0
    1f28:	74025001 	strvc	r5, [r2], #-1
    1f2c:	c0110000 	andsgt	r0, r1, r0
    1f30:	b800008a 	stmdalt	r0, {r1, r3, r7}
    1f34:	12000005 	andne	r0, r0, #5, 0
    1f38:	74025001 	strvc	r5, [r2], #-1
    1f3c:	1a000000 	bne	1f44 <__code_start__-0x60bc>
    1f40:	000004ec 	andeq	r0, r0, ip, ror #9
    1f44:	000004ec 	andeq	r0, r0, ip, ror #9
    1f48:	1a069c03 	bne	1a8f5c <__bss_end__+0x19fa4c>
    1f4c:	00000757 	andeq	r0, r0, r7, asr r7
    1f50:	00000757 	andeq	r0, r0, r7, asr r7
    1f54:	1a0bc303 	bne	2f2b68 <__bss_end__+0x2e9658>
    1f58:	000005ef 	andeq	r0, r0, pc, ror #11
    1f5c:	000005ef 	andeq	r0, r0, pc, ror #11
    1f60:	1a06ae03 	bne	1ad774 <__bss_end__+0x1a4264>
    1f64:	00000745 	andeq	r0, r0, r5, asr #14
    1f68:	00000745 	andeq	r0, r0, r5, asr #14
    1f6c:	00061904 	andeq	r1, r6, r4, lsl #18
    1f70:	00000149 	andeq	r0, r0, r9, asr #2
    1f74:	0be50004 	bleq	ff941f8c <__bss_end__+0xff938a7c>
    1f78:	01040000 	mrseq	r0, (UNDEF: 4)
    1f7c:	00000148 	andeq	r0, r0, r8, asr #2
    1f80:	00077b0c 	andeq	r7, r7, ip, lsl #22
    1f84:	00028600 	andeq	r8, r2, r0, lsl #12
    1f88:	008c7400 	addeq	r7, ip, r0, lsl #8
    1f8c:	00003c00 	andeq	r3, r0, r0, lsl #24
    1f90:	000efb00 	andeq	pc, lr, r0, lsl #22
    1f94:	05040200 	streq	r0, [r4, #-512]	; 0xfffffe00
    1f98:	00746e69 	rsbseq	r6, r4, r9, ror #28
    1f9c:	ef070403 	svc	0x00070403
    1fa0:	03000000 	movweq	r0, #0
    1fa4:	00af0601 	adceq	r0, pc, r1, lsl #12
    1fa8:	02030000 	andeq	r0, r3, #0, 0
    1fac:	00004805 	andeq	r4, r0, r5, lsl #16
    1fb0:	05040300 	streq	r0, [r4, #-768]	; 0xfffffd00
    1fb4:	0000007f 	andeq	r0, r0, pc, ror r0
    1fb8:	7a050803 	bvc	143fcc <__bss_end__+0x13aabc>
    1fbc:	03000000 	movweq	r0, #0
    1fc0:	00ad0801 	adceq	r0, sp, r1, lsl #16
    1fc4:	02030000 	andeq	r0, r3, #0, 0
    1fc8:	00012007 	andeq	r2, r1, r7
    1fcc:	07040300 	streq	r0, [r4, -r0, lsl #6]
    1fd0:	000000ea 	andeq	r0, r0, sl, ror #1
    1fd4:	e5070803 	str	r0, [r7, #-2051]	; 0xfffff7fd
    1fd8:	04000000 	streq	r0, [r0], #-0
    1fdc:	00000025 	andeq	r0, r0, r5, lsr #32
    1fe0:	0000007a 	andeq	r0, r0, sl, ror r0
    1fe4:	00002505 	andeq	r2, r0, r5, lsl #10
    1fe8:	58060000 	stmdapl	r6, {}	; <UNPREDICTABLE>
    1fec:	02000000 	andeq	r0, r0, #0, 0
    1ff0:	00860e1c 	addeq	r0, r6, ip, lsl lr
    1ff4:	04070000 	streq	r0, [r7], #-0
    1ff8:	0000006b 	andeq	r0, r0, fp, rrx
    1ffc:	00002504 	andeq	r2, r0, r4, lsl #10
    2000:	00009b00 	andeq	r9, r0, r0, lsl #22
    2004:	009b0500 	addseq	r0, fp, r0, lsl #10
    2008:	07000000 	streq	r0, [r0, -r0]
    200c:	0000a804 	andeq	sl, r0, r4, lsl #16
    2010:	08010300 	stmdaeq	r1, {r8, r9}
    2014:	000000b6 	strheq	r0, [r0], -r6
    2018:	0000a108 	andeq	sl, r0, r8, lsl #2
    201c:	02b10600 	adcseq	r0, r1, #0, 12
    2020:	21020000 	mrscs	r0, (UNDEF: 2)
    2024:	0000b90e 	andeq	fp, r0, lr, lsl #18
    2028:	8c040700 	stchi	7, cr0, [r4], {-0}
    202c:	09000000 	stmdbeq	r0, {}	; <UNPREDICTABLE>
    2030:	0000007a 	andeq	r0, r0, sl, ror r0
    2034:	05070601 	streq	r0, [r7, #-1537]	; 0xfffff9ff
    2038:	0090c803 	addseq	ip, r0, r3, lsl #16
    203c:	076e0a00 	strbeq	r0, [lr, -r0, lsl #20]!
    2040:	0b010000 	bleq	42048 <__bss_end__+0x38b38>
    2044:	008ca006 	addeq	sl, ip, r6
    2048:	00001000 	andeq	r1, r0, r0
    204c:	f19c0100 			; <UNDEFINED> instruction: 0xf19c0100
    2050:	0b000000 	bleq	2058 <__code_start__-0x5fa8>
    2054:	01007066 	tsteq	r0, r6, rrx
    2058:	0086190b 	addeq	r1, r6, fp, lsl #18
    205c:	50010000 	andpl	r0, r1, r0
    2060:	078c0c00 	streq	r0, [ip, r0, lsl #24]
    2064:	08010000 	stmdaeq	r1, {}	; <UNPREDICTABLE>
    2068:	008c8806 	addeq	r8, ip, r6, lsl #16
    206c:	00001800 	andeq	r1, r0, r0, lsl #16
    2070:	0d9c0100 	ldfeqs	f0, [ip]
    2074:	0000075d 	andeq	r0, r0, sp, asr r7
    2078:	250c0301 	strcs	r0, [ip, #-769]	; 0xfffffcff
    207c:	74000000 	strvc	r0, [r0], #-0
    2080:	1400008c 	strne	r0, [r0], #-140	; 0xffffff74
    2084:	01000000 	mrseq	r0, (UNDEF: 0)
    2088:	0001409c 	muleq	r1, ip, r0
    208c:	00630e00 	rsbeq	r0, r3, r0, lsl #28
    2090:	25210301 	strcs	r0, [r1, #-769]!	; 0xfffffcff
    2094:	69000000 	stmdbvs	r0, {}	; <UNPREDICTABLE>
    2098:	6500000b 	strvs	r0, [r0, #-11]
    209c:	0f00000b 	svceq	0x0000000b
    20a0:	00008c80 	andeq	r8, r0, r0, lsl #25
    20a4:	00000140 	andeq	r0, r0, r0, asr #2
    20a8:	02500110 	subseq	r0, r0, #4
    20ac:	00000074 	andeq	r0, r0, r4, ror r0
    20b0:	00072b11 	andeq	r2, r7, r1, lsl fp
    20b4:	00072b00 	andeq	r2, r7, r0, lsl #22
    20b8:	06420200 	strbeq	r0, [r2], -r0, lsl #4
    20bc:	00013700 	andeq	r3, r1, r0, lsl #14
    20c0:	f4000400 	vst3.8	{d0-d2}, [r0], r0
    20c4:	0400000c 	streq	r0, [r0], #-12
    20c8:	00014801 	andeq	r4, r1, r1, lsl #16
    20cc:	07a00c00 	streq	r0, [r0, r0, lsl #24]!
    20d0:	02860000 	addeq	r0, r6, #0, 0
    20d4:	8cb00000 	ldchi	0, cr0, [r0]
    20d8:	00340000 	eorseq	r0, r4, r0
    20dc:	0f970000 	svceq	0x00970000
    20e0:	04020000 	streq	r0, [r2], #-0
    20e4:	746e6905 	strbtvc	r6, [lr], #-2309	; 0xfffff6fb
    20e8:	07040300 	streq	r0, [r4, -r0, lsl #6]
    20ec:	000000ef 	andeq	r0, r0, pc, ror #1
    20f0:	af060103 	svcge	0x00060103
    20f4:	03000000 	movweq	r0, #0
    20f8:	00480502 	subeq	r0, r8, r2, lsl #10
    20fc:	04030000 	streq	r0, [r3], #-0
    2100:	00007f05 	andeq	r7, r0, r5, lsl #30
    2104:	05080300 	streq	r0, [r8, #-768]	; 0xfffffd00
    2108:	0000007a 	andeq	r0, r0, sl, ror r0
    210c:	ad080103 	stfges	f0, [r8, #-12]
    2110:	03000000 	movweq	r0, #0
    2114:	01200702 			; <UNDEFINED> instruction: 0x01200702
    2118:	04030000 	streq	r0, [r3], #-0
    211c:	0000ea07 	andeq	lr, r0, r7, lsl #20
    2120:	07080300 	streq	r0, [r8, -r0, lsl #6]
    2124:	000000e5 	andeq	r0, r0, r5, ror #1
    2128:	00002504 	andeq	r2, r0, r4, lsl #10
    212c:	00007a00 	andeq	r7, r0, r0, lsl #20
    2130:	00250500 	eoreq	r0, r5, r0, lsl #10
    2134:	06000000 	streq	r0, [r0], -r0
    2138:	00000058 	andeq	r0, r0, r8, asr r0
    213c:	860e1c02 	strhi	r1, [lr], -r2, lsl #24
    2140:	07000000 	streq	r0, [r0, -r0]
    2144:	00006b04 	andeq	r6, r0, r4, lsl #22
    2148:	00250400 	eoreq	r0, r5, r0, lsl #8
    214c:	009b0000 	addseq	r0, fp, r0
    2150:	9b050000 	blls	142158 <__bss_end__+0x138c48>
    2154:	00000000 	andeq	r0, r0, r0
    2158:	00a80407 	adceq	r0, r8, r7, lsl #8
    215c:	01030000 	mrseq	r0, (UNDEF: 3)
    2160:	0000b608 	andeq	fp, r0, r8, lsl #12
    2164:	00a10800 	adceq	r0, r1, r0, lsl #16
    2168:	b1060000 	mrslt	r0, (UNDEF: 6)
    216c:	02000002 	andeq	r0, r0, #2, 0
    2170:	00b90e21 	adcseq	r0, r9, r1, lsr #28
    2174:	04070000 	streq	r0, [r7], #-0
    2178:	0000008c 	andeq	r0, r0, ip, lsl #1
    217c:	00036109 	andeq	r6, r3, r9, lsl #2
    2180:	07040100 	streq	r0, [r4, -r0, lsl #2]
    2184:	00000134 	andeq	r0, r0, r4, lsr r1
    2188:	00008cb0 			; <UNDEFINED> instruction: 0x00008cb0
    218c:	00000034 	andeq	r0, r0, r4, lsr r0
    2190:	01349c01 	teqeq	r4, r1, lsl #24
    2194:	9b0a0000 	blls	28219c <__bss_end__+0x278c8c>
    2198:	01000007 	tsteq	r0, r7
    219c:	01341504 	teqeq	r4, r4, lsl #10
    21a0:	50010000 	andpl	r0, r1, r0
    21a4:	6372730b 	cmnvs	r2, #738197504	; 0x2c000000
    21a8:	27040100 	strcs	r0, [r4, -r0, lsl #2]
    21ac:	0000009b 	muleq	r0, fp, r0
    21b0:	00000b8b 	andeq	r0, r0, fp, lsl #23
    21b4:	00000b87 	andeq	r0, r0, r7, lsl #23
    21b8:	0031730c 	eorseq	r7, r1, ip, lsl #6
    21bc:	340b0501 	strcc	r0, [fp], #-1281	; 0xfffffaff
    21c0:	b6000001 	strlt	r0, [r0], -r1
    21c4:	ac00000b 	stcge	0, cr0, [r0], {11}
    21c8:	0c00000b 	stceq	0, cr0, [r0], {11}
    21cc:	01003273 	tsteq	r0, r3, ror r2
    21d0:	009b1106 	addseq	r1, fp, r6, lsl #2
    21d4:	0bfb0000 	bleq	ffec21dc <__bss_end__+0xffeb8ccc>
    21d8:	0bf70000 	bleq	ffdc21e0 <__bss_end__+0xffdb8cd0>
    21dc:	630c0000 	movwvs	r0, #49152	; 0xc000
    21e0:	0a070100 	beq	1c25e8 <__bss_end__+0x1b90d8>
    21e4:	000000a1 	andeq	r0, r0, r1, lsr #1
    21e8:	00000c1f 	andeq	r0, r0, pc, lsl ip
    21ec:	00000c1b 	andeq	r0, r0, fp, lsl ip
    21f0:	a1040700 	tstge	r4, r0, lsl #14
    21f4:	00000000 	andeq	r0, r0, r0
    21f8:	000000f7 	strdeq	r0, [r0], -r7
    21fc:	0daa0004 	stceq	0, cr0, [sl, #16]!
    2200:	01040000 	mrseq	r0, (UNDEF: 4)
    2204:	00000148 	andeq	r0, r0, r8, asr #2
    2208:	0007b00c 	andeq	fp, r7, ip
    220c:	00028600 	andeq	r8, r2, r0, lsl #12
    2210:	008ce400 	addeq	lr, ip, r0, lsl #8
    2214:	00002c00 	andeq	r2, r0, r0, lsl #24
    2218:	00107f00 	andseq	r7, r0, r0, lsl #30
    221c:	05040200 	streq	r0, [r4, #-512]	; 0xfffffe00
    2220:	00746e69 	rsbseq	r6, r4, r9, ror #28
    2224:	ef070403 	svc	0x00070403
    2228:	03000000 	movweq	r0, #0
    222c:	00af0601 	adceq	r0, pc, r1, lsl #12
    2230:	02030000 	andeq	r0, r3, #0, 0
    2234:	00004805 	andeq	r4, r0, r5, lsl #16
    2238:	05040300 	streq	r0, [r4, #-768]	; 0xfffffd00
    223c:	0000007f 	andeq	r0, r0, pc, ror r0
    2240:	7a050803 	bvc	144254 <__bss_end__+0x13ad44>
    2244:	03000000 	movweq	r0, #0
    2248:	00ad0801 	adceq	r0, sp, r1, lsl #16
    224c:	02030000 	andeq	r0, r3, #0, 0
    2250:	00012007 	andeq	r2, r1, r7
    2254:	07040300 	streq	r0, [r4, -r0, lsl #6]
    2258:	000000ea 	andeq	r0, r0, sl, ror #1
    225c:	e5070803 	str	r0, [r7, #-2051]	; 0xfffff7fd
    2260:	04000000 	streq	r0, [r0], #-0
    2264:	00000025 	andeq	r0, r0, r5, lsr #32
    2268:	0000007a 	andeq	r0, r0, sl, ror r0
    226c:	00002505 	andeq	r2, r0, r5, lsl #10
    2270:	58060000 	stmdapl	r6, {}	; <UNPREDICTABLE>
    2274:	02000000 	andeq	r0, r0, #0, 0
    2278:	00860e1c 	addeq	r0, r6, ip, lsl lr
    227c:	04070000 	streq	r0, [r7], #-0
    2280:	0000006b 	andeq	r0, r0, fp, rrx
    2284:	00002504 	andeq	r2, r0, r4, lsl #10
    2288:	00009b00 	andeq	r9, r0, r0, lsl #22
    228c:	009b0500 	addseq	r0, fp, r0, lsl #10
    2290:	07000000 	streq	r0, [r0, -r0]
    2294:	0000a804 	andeq	sl, r0, r4, lsl #16
    2298:	08010300 	stmdaeq	r1, {r8, r9}
    229c:	000000b6 	strheq	r0, [r0], -r6
    22a0:	0000a108 	andeq	sl, r0, r8, lsl #2
    22a4:	02b10600 	adcseq	r0, r1, #0, 12
    22a8:	21020000 	mrscs	r0, (UNDEF: 2)
    22ac:	0000b90e 	andeq	fp, r0, lr, lsl #18
    22b0:	8c040700 	stchi	7, cr0, [r4], {-0}
    22b4:	09000000 	stmdbeq	r0, {}	; <UNPREDICTABLE>
    22b8:	00000397 	muleq	r0, r7, r3
    22bc:	25050301 	strcs	r0, [r5, #-769]	; 0xfffffcff
    22c0:	e4000000 	str	r0, [r0], #-0
    22c4:	2c00008c 	stccs	0, cr0, [r0], {140}	; 0x8c
    22c8:	01000000 	mrseq	r0, (UNDEF: 0)
    22cc:	00610a9c 	mlseq	r1, ip, sl, r0
    22d0:	9b180301 	blls	602edc <__bss_end__+0x5f99cc>
    22d4:	41000000 	mrsmi	r0, (UNDEF: 0)
    22d8:	3d00000c 	stccc	0, cr0, [r0, #-48]	; 0xffffffd0
    22dc:	0a00000c 	beq	2314 <__code_start__-0x5cec>
    22e0:	03010062 	movweq	r0, #4194	; 0x1062
    22e4:	00009b27 	andeq	r9, r0, r7, lsr #22
    22e8:	000c6300 	andeq	r6, ip, r0, lsl #6
    22ec:	000c5f00 	andeq	r5, ip, r0, lsl #30
    22f0:	0f000000 	svceq	0x00000000
    22f4:	04000001 	streq	r0, [r0], #-1
    22f8:	000e3900 	andeq	r3, lr, r0, lsl #18
    22fc:	48010400 	stmdami	r1, {sl}
    2300:	0c000001 	stceq	0, cr0, [r0], {1}
    2304:	000007c0 	andeq	r0, r0, r0, asr #15
    2308:	00000286 	andeq	r0, r0, r6, lsl #5
    230c:	00008d10 	andeq	r8, r0, r0, lsl sp
    2310:	00000020 	andeq	r0, r0, r0, lsr #32
    2314:	00001120 	andeq	r1, r0, r0, lsr #2
    2318:	69050402 	stmdbvs	r5, {r1, sl}
    231c:	0300746e 	movweq	r7, #1134	; 0x46e
    2320:	00ef0704 	rsceq	r0, pc, r4, lsl #14
    2324:	01030000 	mrseq	r0, (UNDEF: 3)
    2328:	0000af06 	andeq	sl, r0, r6, lsl #30
    232c:	05020300 	streq	r0, [r2, #-768]	; 0xfffffd00
    2330:	00000048 	andeq	r0, r0, r8, asr #32
    2334:	7f050403 	svcvc	0x00050403
    2338:	03000000 	movweq	r0, #0
    233c:	007a0508 	rsbseq	r0, sl, r8, lsl #10
    2340:	01030000 	mrseq	r0, (UNDEF: 3)
    2344:	0000ad08 	andeq	sl, r0, r8, lsl #26
    2348:	07020300 	streq	r0, [r2, -r0, lsl #6]
    234c:	00000120 	andeq	r0, r0, r0, lsr #2
    2350:	ea070403 	b	1c3364 <__bss_end__+0x1b9e54>
    2354:	03000000 	movweq	r0, #0
    2358:	00e50708 	rsceq	r0, r5, r8, lsl #14
    235c:	25040000 	strcs	r0, [r4, #-0]
    2360:	7a000000 	bvc	2368 <__code_start__-0x5c98>
    2364:	05000000 	streq	r0, [r0, #-0]
    2368:	00000025 	andeq	r0, r0, r5, lsr #32
    236c:	00580600 	subseq	r0, r8, r0, lsl #12
    2370:	1c020000 	stcne	0, cr0, [r2], {-0}
    2374:	0000860e 	andeq	r8, r0, lr, lsl #12
    2378:	6b040700 	blvs	103f80 <__bss_end__+0xfaa70>
    237c:	04000000 	streq	r0, [r0], #-0
    2380:	00000025 	andeq	r0, r0, r5, lsr #32
    2384:	0000009b 	muleq	r0, fp, r0
    2388:	00009b05 	andeq	r9, r0, r5, lsl #22
    238c:	04070000 	streq	r0, [r7], #-0
    2390:	000000a8 	andeq	r0, r0, r8, lsr #1
    2394:	b6080103 	strlt	r0, [r8], -r3, lsl #2
    2398:	08000000 	stmdaeq	r0, {}	; <UNPREDICTABLE>
    239c:	000000a1 	andeq	r0, r0, r1, lsr #1
    23a0:	0002b106 	andeq	fp, r2, r6, lsl #2
    23a4:	0e210200 	cdpeq	2, 2, cr0, cr1, cr0, {0}
    23a8:	000000b9 	strheq	r0, [r0], -r9
    23ac:	008c0407 	addeq	r0, ip, r7, lsl #8
    23b0:	68090000 	stmdavs	r9, {}	; <UNPREDICTABLE>
    23b4:	01000003 	tsteq	r0, r3
    23b8:	010c0703 	tsteq	ip, r3, lsl #14
    23bc:	8d100000 	ldchi	0, cr0, [r0, #-0]
    23c0:	00200000 	eoreq	r0, r0, r0
    23c4:	9c010000 	stcls	0, cr0, [r1], {-0}
    23c8:	0000010c 	andeq	r0, r0, ip, lsl #2
    23cc:	0031730a 	eorseq	r7, r1, sl, lsl #6
    23d0:	0c150301 	ldceq	3, cr0, [r5], {1}
    23d4:	01000001 	tsteq	r0, r1
    23d8:	32730b50 	rsbscc	r0, r3, #80, 22	; 0x14000
    23dc:	26030100 	strcs	r0, [r3], -r0, lsl #2
    23e0:	0000009b 	muleq	r0, fp, r0
    23e4:	00000c87 	andeq	r0, r0, r7, lsl #25
    23e8:	00000c81 	andeq	r0, r0, r1, lsl #25
    23ec:	0100730c 	tsteq	r0, ip, lsl #6
    23f0:	010c1404 	tsteq	ip, r4, lsl #8
    23f4:	0cb80000 	ldceq	0, cr0, [r8]
    23f8:	0cb20000 	ldceq	0, cr0, [r2]
    23fc:	07000000 	streq	r0, [r0, -r0]
    2400:	0000a104 	andeq	sl, r0, r4, lsl #2
    2404:	014e0000 	mrseq	r0, (UNDEF: 78)
    2408:	00040000 	andeq	r0, r4, r0
    240c:	00000eef 	andeq	r0, r0, pc, ror #29
    2410:	01480104 	cmpeq	r8, r4, lsl #2
    2414:	d70c0000 	strle	r0, [ip, -r0]
    2418:	86000007 	strhi	r0, [r0], -r7
    241c:	10000002 	andne	r0, r0, r2
    2420:	00000000 	andeq	r0, r0, r0
    2424:	bf000000 	svclt	0x00000000
    2428:	02000011 	andeq	r0, r0, #17, 0
    242c:	6e690504 	cdpvs	5, 6, cr0, cr9, cr4, {0}
    2430:	d0030074 	andle	r0, r3, r4, ror r0
    2434:	03000007 	movweq	r0, #7
    2438:	003817d1 	ldrsbteq	r1, [r8], -r1
    243c:	04040000 	streq	r0, [r4], #-0
    2440:	0000ef07 	andeq	lr, r0, r7, lsl #30
    2444:	06010400 	streq	r0, [r1], -r0, lsl #8
    2448:	000000af 	andeq	r0, r0, pc, lsr #1
    244c:	48050204 	stmdami	r5, {r2, r9}
    2450:	04000000 	streq	r0, [r0], #-0
    2454:	007f0504 	rsbseq	r0, pc, r4, lsl #10
    2458:	08040000 	stmdaeq	r4, {}	; <UNPREDICTABLE>
    245c:	00007a05 	andeq	r7, r0, r5, lsl #20
    2460:	08010400 	stmdaeq	r1, {sl}
    2464:	000000ad 	andeq	r0, r0, sp, lsr #1
    2468:	00005b05 	andeq	r5, r0, r5, lsl #22
    246c:	07020400 	streq	r0, [r2, -r0, lsl #8]
    2470:	00000120 	andeq	r0, r0, r0, lsr #2
    2474:	ea070404 	b	1c348c <__bss_end__+0x1b9f7c>
    2478:	04000000 	streq	r0, [r0], #-0
    247c:	00e50708 	rsceq	r0, r5, r8, lsl #14
    2480:	25060000 	strcs	r0, [r6, #-0]
    2484:	8b000000 	blhi	248c <__code_start__-0x5b74>
    2488:	07000000 	streq	r0, [r0, -r0]
    248c:	00000025 	andeq	r0, r0, r5, lsr #32
    2490:	00580800 	subseq	r0, r8, r0, lsl #16
    2494:	1c020000 	stcne	0, cr0, [r2], {-0}
    2498:	0000970e 	andeq	r9, r0, lr, lsl #14
    249c:	7c040900 			; <UNDEFINED> instruction: 0x7c040900
    24a0:	06000000 	streq	r0, [r0], -r0
    24a4:	00000025 	andeq	r0, r0, r5, lsr #32
    24a8:	000000ac 	andeq	r0, r0, ip, lsr #1
    24ac:	0000ac07 	andeq	sl, r0, r7, lsl #24
    24b0:	04090000 	streq	r0, [r9], #-0
    24b4:	000000b9 	strheq	r0, [r0], -r9
    24b8:	b6080104 	strlt	r0, [r8], -r4, lsl #2
    24bc:	05000000 	streq	r0, [r0, #-0]
    24c0:	000000b2 	strheq	r0, [r0], -r2
    24c4:	0002b108 	andeq	fp, r2, r8, lsl #2
    24c8:	0e210200 	cdpeq	2, 2, cr0, cr1, cr0, {0}
    24cc:	000000ca 	andeq	r0, r0, sl, asr #1
    24d0:	009d0409 	addseq	r0, sp, r9, lsl #8
    24d4:	bf0a0000 	svclt	0x000a0000
    24d8:	01000003 	tsteq	r0, r3
    24dc:	00250504 	eoreq	r0, r5, r4, lsl #10
    24e0:	8d300000 	ldchi	0, cr0, [r0, #-0]
    24e4:	002c0000 	eoreq	r0, ip, r0
    24e8:	9c010000 	stcls	0, cr0, [r1], {-0}
    24ec:	0000014b 	andeq	r0, r0, fp, asr #2
    24f0:	31735f0b 	cmncc	r3, fp, lsl #30
    24f4:	19040100 	stmdbne	r4, {r8}
    24f8:	000000ac 	andeq	r0, r0, ip, lsr #1
    24fc:	00000ce7 	andeq	r0, r0, r7, ror #25
    2500:	00000ce3 	andeq	r0, r0, r3, ror #25
    2504:	32735f0b 	rsbscc	r5, r3, #11, 30	; 0x2c
    2508:	2a040100 	bcs	102910 <__bss_end__+0xf9400>
    250c:	000000ac 	andeq	r0, r0, ip, lsr #1
    2510:	00000d0c 	andeq	r0, r0, ip, lsl #26
    2514:	00000d08 	andeq	r0, r0, r8, lsl #26
    2518:	01006e0b 	tsteq	r0, fp, lsl #28
    251c:	002c3604 	eoreq	r3, ip, r4, lsl #12
    2520:	0d330000 	ldceq	0, cr0, [r3, #-0]
    2524:	0d2d0000 	stceq	0, cr0, [sp, #-0]
    2528:	730c0000 	movwvc	r0, #49152	; 0xc000
    252c:	05010031 	streq	r0, [r1, #-49]	; 0xffffffcf
    2530:	00014b1a 	andeq	r4, r1, sl, lsl fp
    2534:	000d6600 	andeq	r6, sp, r0, lsl #12
    2538:	000d5e00 	andeq	r5, sp, r0, lsl #28
    253c:	32730c00 	rsbscc	r0, r3, #0, 24
    2540:	2c050100 	stfcss	f0, [r5], {-0}
    2544:	0000014b 	andeq	r0, r0, fp, asr #2
    2548:	00000da2 	andeq	r0, r0, r2, lsr #27
    254c:	00000d9c 	muleq	r0, ip, sp
    2550:	62040900 	andvs	r0, r4, #0, 18
    2554:	00000000 	andeq	r0, r0, r0
    2558:	000000ce 	andeq	r0, r0, lr, asr #1
    255c:	0fa30004 	svceq	0x00a30004
    2560:	01040000 	mrseq	r0, (UNDEF: 4)
    2564:	00000148 	andeq	r0, r0, r8, asr #2
    2568:	0007e80c 	andeq	lr, r7, ip, lsl #16
    256c:	00028600 	andeq	r8, r2, r0, lsl #12
    2570:	008d5c00 	addeq	r5, sp, r0, lsl #24
    2574:	00000400 	andeq	r0, r0, r0, lsl #8
    2578:	0012c100 	andseq	ip, r2, r0, lsl #2
    257c:	05040200 	streq	r0, [r4, #-512]	; 0xfffffe00
    2580:	00746e69 	rsbseq	r6, r4, r9, ror #28
    2584:	ef070403 	svc	0x00070403
    2588:	03000000 	movweq	r0, #0
    258c:	00af0601 	adceq	r0, pc, r1, lsl #12
    2590:	02030000 	andeq	r0, r3, #0, 0
    2594:	00004805 	andeq	r4, r0, r5, lsl #16
    2598:	05040300 	streq	r0, [r4, #-768]	; 0xfffffd00
    259c:	0000007f 	andeq	r0, r0, pc, ror r0
    25a0:	7a050803 	bvc	1445b4 <__bss_end__+0x13b0a4>
    25a4:	03000000 	movweq	r0, #0
    25a8:	00ad0801 	adceq	r0, sp, r1, lsl #16
    25ac:	02030000 	andeq	r0, r3, #0, 0
    25b0:	00012007 	andeq	r2, r1, r7
    25b4:	07040300 	streq	r0, [r4, -r0, lsl #6]
    25b8:	000000ea 	andeq	r0, r0, sl, ror #1
    25bc:	e5070803 	str	r0, [r7, #-2051]	; 0xfffff7fd
    25c0:	04000000 	streq	r0, [r0], #-0
    25c4:	00000025 	andeq	r0, r0, r5, lsr #32
    25c8:	0000007a 	andeq	r0, r0, sl, ror r0
    25cc:	00002505 	andeq	r2, r0, r5, lsl #10
    25d0:	58060000 	stmdapl	r6, {}	; <UNPREDICTABLE>
    25d4:	02000000 	andeq	r0, r0, #0, 0
    25d8:	00860e1c 	addeq	r0, r6, ip, lsl lr
    25dc:	04070000 	streq	r0, [r7], #-0
    25e0:	0000006b 	andeq	r0, r0, fp, rrx
    25e4:	00002504 	andeq	r2, r0, r4, lsl #10
    25e8:	00009b00 	andeq	r9, r0, r0, lsl #22
    25ec:	009b0500 	addseq	r0, fp, r0, lsl #10
    25f0:	07000000 	streq	r0, [r0, -r0]
    25f4:	0000a804 	andeq	sl, r0, r4, lsl #16
    25f8:	08010300 	stmdaeq	r1, {r8, r9}
    25fc:	000000b6 	strheq	r0, [r0], -r6
    2600:	0000a108 	andeq	sl, r0, r8, lsl #2
    2604:	02b10600 	adcseq	r0, r1, #0, 12
    2608:	21020000 	mrscs	r0, (UNDEF: 2)
    260c:	0000b90e 	andeq	fp, r0, lr, lsl #18
    2610:	8c040700 	stchi	7, cr0, [r4], {-0}
    2614:	09000000 	stmdbeq	r0, {}	; <UNPREDICTABLE>
    2618:	0000046b 	andeq	r0, r0, fp, ror #8
    261c:	5c060301 	stcpl	3, cr0, [r6], {1}
    2620:	0400008d 	streq	r0, [r0], #-141	; 0xffffff73
    2624:	01000000 	mrseq	r0, (UNDEF: 0)
    2628:	03a5009c 			; <UNDEFINED> instruction: 0x03a5009c
    262c:	00040000 	andeq	r0, r4, r0
    2630:	0000101c 	andeq	r1, r0, ip, lsl r0
    2634:	06100104 	ldreq	r0, [r0], -r4, lsl #2
    2638:	8c0c0000 	stchi	0, cr0, [ip], {-0}
    263c:	ee000008 	cdp	0, 0, cr0, cr0, cr8, {0}
    2640:	78000006 	stmdavc	r0, {r1, r2}
    2644:	1c00008d 	stcne	0, cr0, [r0], {141}	; 0x8d
    2648:	4f000001 	svcmi	0x00000001
    264c:	02000013 	andeq	r0, r0, #19, 0
    2650:	6e690504 	cdpvs	5, 6, cr0, cr9, cr4, {0}
    2654:	04030074 	streq	r0, [r3], #-116	; 0xffffff8c
    2658:	0000ef07 	andeq	lr, r0, r7, lsl #30
    265c:	002c0400 	eoreq	r0, ip, r0, lsl #8
    2660:	01030000 	mrseq	r0, (UNDEF: 3)
    2664:	0000af06 	andeq	sl, r0, r6, lsl #30
    2668:	05020300 	streq	r0, [r2, #-768]	; 0xfffffd00
    266c:	00000048 	andeq	r0, r0, r8, asr #32
    2670:	7f050403 	svcvc	0x00050403
    2674:	03000000 	movweq	r0, #0
    2678:	007a0508 	rsbseq	r0, sl, r8, lsl #10
    267c:	01030000 	mrseq	r0, (UNDEF: 3)
    2680:	0000ad08 	andeq	sl, r0, r8, lsl #26
    2684:	07020300 	streq	r0, [r2, -r0, lsl #6]
    2688:	00000120 	andeq	r0, r0, r0, lsr #2
    268c:	00010305 	andeq	r0, r1, r5, lsl #6
    2690:	19340300 	ldmdbne	r4!, {r8, r9}
    2694:	0000006e 	andeq	r0, r0, lr, rrx
    2698:	ea070403 	b	1c36ac <__bss_end__+0x1ba19c>
    269c:	03000000 	movweq	r0, #0
    26a0:	00e50708 	rsceq	r0, r5, r8, lsl #14
    26a4:	01030000 	mrseq	r0, (UNDEF: 3)
    26a8:	0000b608 	andeq	fp, r0, r8, lsl #12
    26ac:	01070600 	tsteq	r7, r0, lsl #12
    26b0:	00000054 	andeq	r0, r0, r4, asr r0
    26b4:	c20e0c04 	andgt	r0, lr, #4, 24	; 0x400
    26b8:	07000000 	streq	r0, [r0, -r0]
    26bc:	00000735 	andeq	r0, r0, r5, lsr r7
    26c0:	05630700 	strbeq	r0, [r3, #-1792]!	; 0xfffff900
    26c4:	07010000 	streq	r0, [r1, -r0]
    26c8:	000005a4 	andeq	r0, r0, r4, lsr #11
    26cc:	05b30704 	ldreq	r0, [r3, #1796]!	; 0x704
    26d0:	07050000 	streq	r0, [r5, -r0]
    26d4:	000005c2 	andeq	r0, r0, r2, asr #11
    26d8:	05d10706 	ldrbeq	r0, [r1, #1798]	; 0x706
    26dc:	07070000 	streq	r0, [r7, -r0]
    26e0:	000006c3 	andeq	r0, r0, r3, asr #13
    26e4:	05e00703 	strbeq	r0, [r0, #1795]!	; 0x703
    26e8:	00020000 	andeq	r0, r2, r0
    26ec:	00087105 	andeq	r7, r8, r5, lsl #2
    26f0:	03150400 	tsteq	r5, #0, 8
    26f4:	00000083 	andeq	r0, r0, r3, lsl #1
    26f8:	00081708 	andeq	r1, r8, r8, lsl #14
    26fc:	171d0100 	ldrne	r0, [sp, -r0, lsl #2]
    2700:	00000033 	andeq	r0, r0, r3, lsr r0
    2704:	2020001c 	eorcs	r0, r0, ip, lsl r0
    2708:	00080d08 	andeq	r0, r8, r8, lsl #26
    270c:	171e0100 	ldrne	r0, [lr, -r0, lsl #2]
    2710:	00000033 	andeq	r0, r0, r3, lsr r0
    2714:	20200028 	eorcs	r0, r0, r8, lsr #32
    2718:	00087d08 	andeq	r7, r8, r8, lsl #26
    271c:	171f0100 	ldrne	r0, [pc, -r0, lsl #2]
    2720:	00000033 	andeq	r0, r0, r3, lsr r0
    2724:	20200034 	eorcs	r0, r0, r4, lsr r0
    2728:	00083609 	andeq	r3, r8, r9, lsl #12
    272c:	05550100 	ldrbeq	r0, [r5, #-256]	; 0xffffff00
    2730:	00000025 	andeq	r0, r0, r5, lsr #32
    2734:	00008e60 	andeq	r8, r0, r0, ror #28
    2738:	00000034 	andeq	r0, r0, r4, lsr r0
    273c:	016e9c01 	cmneq	lr, r1, lsl #24
    2740:	700a0000 	andvc	r0, sl, r0
    2744:	01006e69 	tsteq	r0, r9, ror #28
    2748:	002c1855 	eoreq	r1, ip, r5, asr r8
    274c:	0dd50000 	ldcleq	0, cr0, [r5]
    2750:	0dcd0000 	stcleq	0, cr0, [sp]
    2754:	870b0000 	strhi	r0, [fp, -r0]
    2758:	01000008 	tsteq	r0, r8
    275c:	002c0e58 	eoreq	r0, ip, r8, asr lr
    2760:	0e150000 	cdpeq	0, 1, cr0, cr5, cr0, {0}
    2764:	0e0f0000 	cdpeq	0, 0, cr0, cr15, cr0, {0}
    2768:	6f0c0000 	svcvs	0x000c0000
    276c:	01006666 	tsteq	r0, r6, ror #12
    2770:	002c0e59 	eoreq	r0, ip, r9, asr lr
    2774:	0e550000 	cdpeq	0, 5, cr0, cr5, cr0, {0}
    2778:	0e530000 	cdpeq	0, 5, cr0, cr3, cr0, {0}
    277c:	7c0d0000 	stcvc	0, cr0, [sp], {-0}
    2780:	9000008e 	andls	r0, r0, lr, lsl #1
    2784:	0e000003 	cdpeq	0, 0, cr0, cr0, cr3, {0}
    2788:	f30b5001 	vhadd.u8	d5, d11, d1
    278c:	25355001 	ldrcs	r5, [r5, #-1]!
    2790:	8080b423 	addhi	fp, r0, r3, lsr #8
    2794:	00000281 	andeq	r0, r0, r1, lsl #5
    2798:	0008210f 	andeq	r2, r8, pc, lsl #2
    279c:	064e0100 	strbeq	r0, [lr], -r0, lsl #2
    27a0:	00008e44 	andeq	r8, r0, r4, asr #28
    27a4:	0000001c 	andeq	r0, r0, ip, lsl r0
    27a8:	01c99c01 	biceq	r9, r9, r1, lsl #24
    27ac:	700a0000 	andvc	r0, sl, r0
    27b0:	01006e69 	tsteq	r0, r9, ror #28
    27b4:	002c1a4e 	eoreq	r1, ip, lr, asr #20
    27b8:	0e700000 	cdpeq	0, 7, cr0, cr0, cr0, {0}
    27bc:	0e680000 	cdpeq	0, 6, cr0, cr8, cr0, {0}
    27c0:	760a0000 	strvc	r0, [sl], -r0
    27c4:	284e0100 	stmdacs	lr, {r8}^
    27c8:	0000002c 	andeq	r0, r0, ip, lsr #32
    27cc:	00000eb2 			; <UNDEFINED> instruction: 0x00000eb2
    27d0:	00000eaa 	andeq	r0, r0, sl, lsr #29
    27d4:	008e5410 	addeq	r5, lr, r0, lsl r4
    27d8:	00025100 	andeq	r5, r2, r0, lsl #2
    27dc:	0001bf00 	andeq	fp, r1, r0, lsl #30
    27e0:	50010e00 	andpl	r0, r1, r0, lsl #28
    27e4:	5001f303 	andpl	pc, r1, r3, lsl #6
    27e8:	8e5c1100 	rdfhie	f1, f4, f0
    27ec:	020a0000 	andeq	r0, sl, #0, 0
    27f0:	0f000000 	svceq	0x00000000
    27f4:	00000840 	andeq	r0, r0, r0, asr #16
    27f8:	34064901 	strcc	r4, [r6], #-2305	; 0xfffff6ff
    27fc:	1000008e 	andne	r0, r0, lr, lsl #1
    2800:	01000000 	mrseq	r0, (UNDEF: 0)
    2804:	00020a9c 	muleq	r2, ip, sl
    2808:	69700a00 	ldmdbvs	r0!, {r9, fp}^
    280c:	4901006e 	stmdbmi	r1, {r1, r2, r3, r5, r6}
    2810:	00002c1e 	andeq	r2, r0, lr, lsl ip
    2814:	000ef000 	andeq	pc, lr, r0
    2818:	000eec00 	andeq	lr, lr, r0, lsl #24
    281c:	8e400d00 	cdphi	13, 4, cr0, cr0, cr0, {0}
    2820:	02d90000 	sbcseq	r0, r9, #0, 0
    2824:	010e0000 	mrseq	r0, (UNDEF: 14)
    2828:	01f30350 	mvnseq	r0, r0, asr r3
    282c:	51010e50 	tstpl	r1, r0, asr lr
    2830:	00003001 	andeq	r3, r0, r1
    2834:	00084f0f 	andeq	r4, r8, pc, lsl #30
    2838:	06420100 	strbeq	r0, [r2], -r0, lsl #2
    283c:	00008e10 	andeq	r8, r0, r0, lsl lr
    2840:	00000024 	andeq	r0, r0, r4, lsr #32
    2844:	02519c01 	subseq	r9, r1, #256	; 0x100
    2848:	700a0000 	andvc	r0, sl, r0
    284c:	01006e69 	tsteq	r0, r9, ror #28
    2850:	002c1c42 	eoreq	r1, ip, r2, asr #24
    2854:	0f150000 	svceq	0x00150000
    2858:	0f110000 	svceq	0x00110000
    285c:	2c0d0000 	stccs	0, cr0, [sp], {-0}
    2860:	9c00008e 	stcls	0, cr0, [r0], {142}	; 0x8e
    2864:	0e000003 	cdpeq	0, 0, cr0, cr0, cr3, {0}
    2868:	0c055001 	stceq	0, cr5, [r5], {1}
    286c:	20200028 	eorcs	r0, r0, r8, lsr #32
    2870:	0551010e 	ldrbeq	r0, [r1, #-270]	; 0xfffffef2
    2874:	5001f331 	andpl	pc, r1, r1, lsr r3	; <UNPREDICTABLE>
    2878:	0f000024 	svceq	0x00000024
    287c:	00000893 	muleq	r0, r3, r8
    2880:	ec063b01 			; <UNDEFINED> instruction: 0xec063b01
    2884:	2400008d 	strcs	r0, [r0], #-141	; 0xffffff73
    2888:	01000000 	mrseq	r0, (UNDEF: 0)
    288c:	0002989c 	muleq	r2, ip, r8
    2890:	69700a00 	ldmdbvs	r0!, {r9, fp}^
    2894:	3b01006e 	blcc	42a54 <__bss_end__+0x39544>
    2898:	00002c1b 	andeq	r2, r0, fp, lsl ip
    289c:	000f3a00 	andeq	r3, pc, r0, lsl #20
    28a0:	000f3600 	andeq	r3, pc, r0, lsl #12
    28a4:	8e080d00 	cdphi	13, 0, cr0, cr8, cr0, {0}
    28a8:	039c0000 	orrseq	r0, ip, #0, 0
    28ac:	010e0000 	mrseq	r0, (UNDEF: 14)
    28b0:	1c0c0550 	cfstr32ne	mvfx0, [ip], {80}	; 0x50
    28b4:	0e202000 	cdpeq	0, 2, cr2, cr0, cr0, {0}
    28b8:	31055101 	tstcc	r5, r1, lsl #2
    28bc:	245001f3 	ldrbcs	r0, [r0], #-499	; 0xfffffe0d
    28c0:	5c0f0000 	stcpl	0, cr0, [pc], {-0}
    28c4:	01000008 	tsteq	r0, r8
    28c8:	8ddc0636 	ldclhi	6, cr0, [ip, #216]	; 0xd8
    28cc:	00100000 	andseq	r0, r0, r0
    28d0:	9c010000 	stcls	0, cr0, [r1], {-0}
    28d4:	000002d9 	ldrdeq	r0, [r0], -r9
    28d8:	6e69700a 	cdpvs	0, 6, cr7, cr9, cr10, {0}
    28dc:	1f360100 	svcne	0x00360100
    28e0:	0000002c 	andeq	r0, r0, ip, lsr #32
    28e4:	00000f5f 	andeq	r0, r0, pc, asr pc
    28e8:	00000f5b 	andeq	r0, r0, fp, asr pc
    28ec:	008de80d 	addeq	lr, sp, sp, lsl #16
    28f0:	0002d900 	andeq	sp, r2, r0, lsl #18
    28f4:	50010e00 	andpl	r0, r1, r0, lsl #28
    28f8:	5001f303 	andpl	pc, r1, r3, lsl #6
    28fc:	0151010e 	cmpeq	r1, lr, lsl #2
    2900:	0f000031 	svceq	0x00000031
    2904:	00000745 	andeq	r0, r0, r5, asr #14
    2908:	78062801 	stmdavc	r6, {r0, fp, sp}
    290c:	6400008d 	strvs	r0, [r0], #-141	; 0xffffff73
    2910:	01000000 	mrseq	r0, (UNDEF: 0)
    2914:	0003749c 	muleq	r3, ip, r4
    2918:	69700a00 	ldmdbvs	r0!, {r9, fp}^
    291c:	2801006e 	stmdacs	r1, {r1, r2, r3, r5, r6}
    2920:	00002c21 	andeq	r2, r0, r1, lsr #24
    2924:	000f8400 	andeq	r8, pc, r0, lsl #8
    2928:	000f8000 	andeq	r8, pc, r0
    292c:	086c1200 	stmdaeq	ip!, {r9, ip}^
    2930:	28010000 	stmdacs	r1, {}	; <UNPREDICTABLE>
    2934:	0000c232 	andeq	ip, r0, r2, lsr r2
    2938:	000fa900 	andeq	sl, pc, r0, lsl #18
    293c:	000fa500 	andeq	sl, pc, r0, lsl #10
    2940:	666f0c00 	strbtvs	r0, [pc], -r0, lsl #24
    2944:	2d010066 	stccs	0, cr0, [r1, #-408]	; 0xfffffe68
    2948:	00002c0e 	andeq	r2, r0, lr, lsl #24
    294c:	000fcc00 	andeq	ip, pc, r0, lsl #24
    2950:	000fca00 	andeq	ip, pc, r0, lsl #20
    2954:	00670c00 	rsbeq	r0, r7, r0, lsl #24
    2958:	2c0e2e01 	stccs	14, cr2, [lr], {1}
    295c:	e1000000 	mrs	r0, (UNDEF: 0)
    2960:	df00000f 	svcle	0x0000000f
    2964:	0c00000f 	stceq	0, cr0, [r0], {15}
    2968:	30010076 	andcc	r0, r1, r6, ror r0
    296c:	00002c0e 	andeq	r2, r0, lr, lsl #24
    2970:	000ffc00 	andeq	pc, pc, r0, lsl #24
    2974:	000ff400 	andeq	pc, pc, r0, lsl #8
    2978:	8dc01000 	stclhi	0, cr1, [r0]
    297c:	03900000 	orrseq	r0, r0, #0, 0
    2980:	03630000 	cmneq	r3, #0, 0
    2984:	010e0000 	mrseq	r0, (UNDEF: 14)
    2988:	00760250 	rsbseq	r0, r6, r0, asr r2
    298c:	8dd40d00 	ldclhi	13, cr0, [r4]
    2990:	039c0000 	orrseq	r0, ip, #0, 0
    2994:	010e0000 	mrseq	r0, (UNDEF: 14)
    2998:	00760250 	rsbseq	r0, r6, r0, asr r2
    299c:	2c130000 	ldccs	0, cr0, [r3], {-0}
    29a0:	02000008 	andeq	r0, r0, #8, 0
    29a4:	006218b1 	strhteq	r1, [r2], #-129	; 0xffffff7f
    29a8:	90030000 	andls	r0, r3, r0
    29ac:	14000003 	strne	r0, [r0], #-3
    29b0:	b1020078 	tstlt	r2, r8, ror r0
    29b4:	0000622b 	andeq	r6, r0, fp, lsr #4
    29b8:	16150000 	ldrne	r0, [r5], -r0
    29bc:	16000005 	strne	r0, [r0], -r5
    29c0:	02000005 	andeq	r0, r0, #5, 0
    29c4:	82150ac2 	andshi	r0, r5, #794624	; 0xc2000
    29c8:	82000004 	andhi	r0, r0, #4, 0
    29cc:	02000004 	andeq	r0, r0, #4, 0
    29d0:	Address 0x00000000000029d0 is out of bounds.


Disassembly of section .debug_abbrev:

00000000 <.debug_abbrev>:
       0:	25011101 	strcs	r1, [r1, #-257]	; 0xfffffeff
       4:	030b130e 	movweq	r1, #45838	; 0xb30e
       8:	110e1b0e 	tstne	lr, lr, lsl #22
       c:	10061201 	andne	r1, r6, r1, lsl #4
      10:	02000017 	andeq	r0, r0, #23, 0
      14:	0b0b0024 	bleq	2c00ac <__bss_end__+0x2b6b9c>
      18:	08030b3e 	stmdaeq	r3, {r1, r2, r3, r4, r5, r8, r9, fp}
      1c:	24030000 	strcs	r0, [r3], #-0
      20:	3e0b0b00 	vmlacc.f64	d0, d11, d0
      24:	000e030b 	andeq	r0, lr, fp, lsl #6
      28:	00160400 	andseq	r0, r6, r0, lsl #8
      2c:	0b3a0e03 	bleq	e83840 <__bss_end__+0xe7a330>
      30:	0b390b3b 	bleq	e42d24 <__bss_end__+0xe39814>
      34:	00001349 	andeq	r1, r0, r9, asr #6
      38:	27011505 	strcs	r1, [r1, -r5, lsl #10]
      3c:	01134919 	tsteq	r3, r9, lsl r9
      40:	06000013 			; <UNDEFINED> instruction: 0x06000013
      44:	13490005 	movtne	r0, #36869	; 0x9005
      48:	34070000 	strcc	r0, [r7], #-0
      4c:	3a0e0300 	bcc	380c54 <__bss_end__+0x377744>
      50:	390b3b0b 	stmdbcc	fp, {r0, r1, r3, r8, r9, fp, ip, sp}
      54:	3f13490b 	svccc	0x0013490b
      58:	00193c19 	andseq	r3, r9, r9, lsl ip
      5c:	000f0800 	andeq	r0, pc, r0, lsl #16
      60:	13490b0b 	movtne	r0, #39691	; 0x9b0b
      64:	26090000 	strcs	r0, [r9], -r0
      68:	00134900 	andseq	r4, r3, r0, lsl #18
      6c:	01040a00 	tsteq	r4, r0, lsl #20
      70:	0b0b0b3e 	bleq	2c2d70 <__bss_end__+0x2b9860>
      74:	0b3a1349 	bleq	e84da0 <__bss_end__+0xe7b890>
      78:	0b390b3b 	bleq	e42d6c <__bss_end__+0xe3985c>
      7c:	00001301 	andeq	r1, r0, r1, lsl #6
      80:	0300280b 	movweq	r2, #2059	; 0x80b
      84:	000b1c0e 	andeq	r1, fp, lr, lsl #24
      88:	012e0c00 			; <UNDEFINED> instruction: 0x012e0c00
      8c:	0e03193f 			; <UNDEFINED> instruction: 0x0e03193f
      90:	0b3b0b3a 	bleq	ec2d80 <__bss_end__+0xeb9870>
      94:	19270b39 	stmdbne	r7!, {r0, r3, r4, r5, r8, r9, fp}
      98:	06120111 			; <UNDEFINED> instruction: 0x06120111
      9c:	42971840 	addsmi	r1, r7, #64, 16	; 0x400000
      a0:	00130119 	andseq	r0, r3, r9, lsl r1
      a4:	00340d00 	eorseq	r0, r4, r0, lsl #26
      a8:	0b3a0e03 	bleq	e838bc <__bss_end__+0xe7a3ac>
      ac:	0b390b3b 	bleq	e42da0 <__bss_end__+0xe39890>
      b0:	18021349 	stmdane	r2, {r0, r3, r6, r8, r9, ip}
      b4:	340e0000 	strcc	r0, [lr], #-0
      b8:	3a080300 	bcc	200cc0 <__bss_end__+0x1f77b0>
      bc:	390b3b0b 	stmdbcc	fp, {r0, r1, r3, r8, r9, fp, ip, sp}
      c0:	1c13490b 			; <UNDEFINED> instruction: 0x1c13490b
      c4:	0f00000b 	svceq	0x0000000b
      c8:	08030034 	stmdaeq	r3, {r2, r4, r5}
      cc:	0b3b0b3a 	bleq	ec2dbc <__bss_end__+0xeb98ac>
      d0:	13490b39 	movtne	r0, #39737	; 0x9b39
      d4:	00001802 	andeq	r1, r0, r2, lsl #16
      d8:	11010b10 	tstne	r1, r0, lsl fp
      dc:	01061201 	tsteq	r6, r1, lsl #4
      e0:	11000013 	tstne	r0, r3, lsl r0
      e4:	08030034 	stmdaeq	r3, {r2, r4, r5}
      e8:	0b3b0b3a 	bleq	ec2dd8 <__bss_end__+0xeb98c8>
      ec:	13490b39 	movtne	r0, #39737	; 0x9b39
      f0:	42b71702 	adcsmi	r1, r7, #524288	; 0x80000
      f4:	12000017 	andne	r0, r0, #23, 0
      f8:	01018289 	smlabbeq	r1, r9, r2, r8
      fc:	13310111 	teqne	r1, #1073741828	; 0x40000004
     100:	8a130000 	bhi	4c0108 <__bss_end__+0x4b6bf8>
     104:	02000182 	andeq	r0, r0, #-2147483616	; 0x80000020
     108:	18429118 	stmdane	r2, {r3, r4, r8, ip, pc}^
     10c:	1d140000 	ldcne	0, cr0, [r4, #-0]
     110:	52133101 	andspl	r3, r3, #1073741824	; 0x40000000
     114:	0b42b801 	bleq	10ae120 <__bss_end__+0x10a4c10>
     118:	06120111 			; <UNDEFINED> instruction: 0x06120111
     11c:	0b590b58 	bleq	1642e84 <__bss_end__+0x1639974>
     120:	13010b57 	movwne	r0, #6999	; 0x1b57
     124:	05150000 	ldreq	r0, [r5, #-0]
     128:	00133100 	andseq	r3, r3, r0, lsl #2
     12c:	00051600 	andeq	r1, r5, r0, lsl #12
     130:	17021331 	smladxne	r2, r1, r3, r1
     134:	001742b7 			; <UNDEFINED> instruction: 0x001742b7
     138:	00341700 	eorseq	r1, r4, r0, lsl #14
     13c:	17021331 	smladxne	r2, r1, r3, r1
     140:	001742b7 			; <UNDEFINED> instruction: 0x001742b7
     144:	82891800 	addhi	r1, r9, #0, 16
     148:	01110101 	tsteq	r1, r1, lsl #2
     14c:	13011331 	movwne	r1, #4913	; 0x1331
     150:	89190000 	ldmdbhi	r9, {}	; <UNPREDICTABLE>
     154:	11000182 	smlabbne	r0, r2, r1, r0
     158:	18429301 	stmdane	r2, {r0, r8, r9, ip, pc}^
     15c:	891a0000 	ldmdbhi	sl, {}	; <UNPREDICTABLE>
     160:	11000182 	smlabbne	r0, r2, r1, r0
     164:	00133101 	andseq	r3, r3, r1, lsl #2
     168:	01011b00 	tsteq	r1, r0, lsl #22
     16c:	13011349 	movwne	r1, #4937	; 0x1349
     170:	211c0000 	tstcs	ip, r0
     174:	2f134900 	svccs	0x00134900
     178:	1d00000b 	stcne	0, cr0, [r0, #-44]	; 0xffffffd4
     17c:	19270015 	stmdbne	r7!, {r0, r2, r4}
     180:	2e1e0000 	cdpcs	0, 1, cr0, cr14, cr0, {0}
     184:	03193f01 	tsteq	r9, #1, 30
     188:	3b0b3a08 	blcc	2ce9b0 <__bss_end__+0x2c54a0>
     18c:	270b390b 	strcs	r3, [fp, -fp, lsl #18]
     190:	12011119 	andne	r1, r1, #1073741830	; 0x40000006
     194:	97184006 	ldrls	r4, [r8, -r6]
     198:	13011942 	movwne	r1, #6466	; 0x1942
     19c:	051f0000 	ldreq	r0, [pc, #-0]	; 1a4 <__code_start__-0x7e5c>
     1a0:	3a080300 	bcc	200da8 <__bss_end__+0x1f7898>
     1a4:	390b3b0b 	stmdbcc	fp, {r0, r1, r3, r8, r9, fp, ip, sp}
     1a8:	0213490b 	andseq	r4, r3, #180224	; 0x2c000
     1ac:	1742b717 	smlaldne	fp, r2, r7, r7
     1b0:	2e200000 	cdpcs	0, 2, cr0, cr0, cr0, {0}
     1b4:	3a0e0301 	bcc	380dc0 <__bss_end__+0x3778b0>
     1b8:	390b3b0b 	stmdbcc	fp, {r0, r1, r3, r8, r9, fp, ip, sp}
     1bc:	4919270b 	ldmdbmi	r9, {r0, r1, r3, r8, r9, sl, sp}
     1c0:	010b2013 	tsteq	fp, r3, lsl r0
     1c4:	21000013 	tstcs	r0, r3, lsl r0
     1c8:	08030005 	stmdaeq	r3, {r0, r2}
     1cc:	0b3b0b3a 	bleq	ec2ebc <__bss_end__+0xeb99ac>
     1d0:	13490b39 	movtne	r0, #39737	; 0x9b39
     1d4:	05220000 	streq	r0, [r2, #-0]!
     1d8:	3a0e0300 	bcc	380de0 <__bss_end__+0x3778d0>
     1dc:	390b3b0b 	stmdbcc	fp, {r0, r1, r3, r8, r9, fp, ip, sp}
     1e0:	0013490b 	andseq	r4, r3, fp, lsl #18
     1e4:	00342300 	eorseq	r2, r4, r0, lsl #6
     1e8:	0b3a0e03 	bleq	e839fc <__bss_end__+0xe7a4ec>
     1ec:	0b390b3b 	bleq	e42ee0 <__bss_end__+0xe399d0>
     1f0:	00001349 	andeq	r1, r0, r9, asr #6
     1f4:	3f002e24 	svccc	0x00002e24
     1f8:	6e193c19 	mrcvs	12, 0, r3, cr9, cr9, {0}
     1fc:	3a0e030e 	bcc	380e3c <__bss_end__+0x37792c>
     200:	390b3b0b 	stmdbcc	fp, {r0, r1, r3, r8, r9, fp, ip, sp}
     204:	0000000b 	andeq	r0, r0, fp
     208:	25011101 	strcs	r1, [r1, #-257]	; 0xfffffeff
     20c:	030b130e 	movweq	r1, #45838	; 0xb30e
     210:	110e1b0e 	tstne	lr, lr, lsl #22
     214:	10061201 	andne	r1, r6, r1, lsl #4
     218:	02000017 	andeq	r0, r0, #23, 0
     21c:	0e030016 	mcreq	0, 0, r0, cr3, cr6, {0}
     220:	0b3b0b3a 	bleq	ec2f10 <__bss_end__+0xeb9a00>
     224:	13490b39 	movtne	r0, #39737	; 0x9b39
     228:	13030000 	movwne	r0, #12288	; 0x3000
     22c:	0b0e0301 	bleq	380e38 <__bss_end__+0x377928>
     230:	3b0b3a0b 	blcc	2cea64 <__bss_end__+0x2c5554>
     234:	0013010b 	andseq	r0, r3, fp, lsl #2
     238:	000d0400 	andeq	r0, sp, r0, lsl #8
     23c:	13490e03 	movtne	r0, #40451	; 0x9e03
     240:	19340b38 	ldmdbne	r4!, {r3, r4, r5, r8, r9, fp}
     244:	0f050000 	svceq	0x00050000
     248:	000b0b00 	andeq	r0, fp, r0, lsl #22
     24c:	00240600 	eoreq	r0, r4, r0, lsl #12
     250:	0b3e0b0b 	bleq	f82e84 <__bss_end__+0xf79974>
     254:	00000803 	andeq	r0, r0, r3, lsl #16
     258:	0b002407 	bleq	927c <buf.3940+0x170>
     25c:	030b3e0b 	movweq	r3, #48651	; 0xbe0b
     260:	0800000e 	stmdaeq	r0, {r1, r2, r3}
     264:	19270115 	stmdbne	r7!, {r0, r2, r4, r8}
     268:	13011349 	movwne	r1, #4937	; 0x1349
     26c:	05090000 	streq	r0, [r9, #-0]
     270:	00134900 	andseq	r4, r3, r0, lsl #18
     274:	00340a00 	eorseq	r0, r4, r0, lsl #20
     278:	0b3a0e03 	bleq	e83a8c <__bss_end__+0xe7a57c>
     27c:	0b390b3b 	bleq	e42f70 <__bss_end__+0xe39a60>
     280:	193f1349 	ldmdbne	pc!, {r0, r3, r6, r8, r9, ip}	; <UNPREDICTABLE>
     284:	0000193c 	andeq	r1, r0, ip, lsr r9
     288:	0b000f0b 	bleq	3ebc <__code_start__-0x4144>
     28c:	0013490b 	andseq	r4, r3, fp, lsl #18
     290:	00260c00 	eoreq	r0, r6, r0, lsl #24
     294:	00001349 	andeq	r1, r0, r9, asr #6
     298:	3f012e0d 	svccc	0x00012e0d
     29c:	3a0e0319 	bcc	380f08 <__bss_end__+0x3779f8>
     2a0:	390b3b0b 	stmdbcc	fp, {r0, r1, r3, r8, r9, fp, ip, sp}
     2a4:	4919270b 	ldmdbmi	r9, {r0, r1, r3, r8, r9, sl, sp}
     2a8:	12011113 	andne	r1, r1, #-1073741820	; 0xc0000004
     2ac:	97184006 	ldrls	r4, [r8, -r6]
     2b0:	13011942 	movwne	r1, #6466	; 0x1942
     2b4:	050e0000 	streq	r0, [lr, #-0]
     2b8:	3a080300 	bcc	200ec0 <__bss_end__+0x1f79b0>
     2bc:	390b3b0b 	stmdbcc	fp, {r0, r1, r3, r8, r9, fp, ip, sp}
     2c0:	0213490b 	andseq	r4, r3, #180224	; 0x2c000
     2c4:	0f000018 	svceq	0x00000018
     2c8:	00000018 	andeq	r0, r0, r8, lsl r0
     2cc:	03003410 	movweq	r3, #1040	; 0x410
     2d0:	3b0b3a08 	blcc	2ceaf8 <__bss_end__+0x2c55e8>
     2d4:	490b390b 	stmdbmi	fp, {r0, r1, r3, r8, fp, ip, sp}
     2d8:	00180213 	andseq	r0, r8, r3, lsl r2
     2dc:	00341100 	eorseq	r1, r4, r0, lsl #2
     2e0:	0b3a0e03 	bleq	e83af4 <__bss_end__+0xe7a5e4>
     2e4:	0b390b3b 	bleq	e42fd8 <__bss_end__+0xe39ac8>
     2e8:	18021349 	stmdane	r2, {r0, r3, r6, r8, r9, ip}
     2ec:	34120000 	ldrcc	r0, [r2], #-0
     2f0:	3a080300 	bcc	200ef8 <__bss_end__+0x1f79e8>
     2f4:	390b3b0b 	stmdbcc	fp, {r0, r1, r3, r8, r9, fp, ip, sp}
     2f8:	0213490b 	andseq	r4, r3, #180224	; 0x2c000
     2fc:	1742b717 	smlaldne	fp, r2, r7, r7
     300:	89130000 	ldmdbhi	r3, {}	; <UNPREDICTABLE>
     304:	11010182 	smlabbne	r1, r2, r1, r0
     308:	01133101 	tsteq	r3, r1, lsl #2
     30c:	14000013 	strne	r0, [r0], #-19	; 0xffffffed
     310:	0001828a 	andeq	r8, r1, sl, lsl #5
     314:	42911802 	addsmi	r1, r1, #131072	; 0x20000
     318:	15000018 	strne	r0, [r0, #-24]	; 0xffffffe8
     31c:	01018289 	smlabbeq	r1, r9, r2, r8
     320:	00000111 	andeq	r0, r0, r1, lsl r1
     324:	49010116 	stmdbmi	r1, {r1, r2, r4, r8}
     328:	00130113 	andseq	r0, r3, r3, lsl r1
     32c:	00211700 	eoreq	r1, r1, r0, lsl #14
     330:	052f1349 	streq	r1, [pc, #-841]!	; ffffffef <__bss_end__+0xffff6adf>
     334:	2e180000 	cdpcs	0, 1, cr0, cr8, cr0, {0}
     338:	3c193f00 	ldccc	15, cr3, [r9], {-0}
     33c:	030e6e19 	movweq	r6, #60953	; 0xee19
     340:	3b0b3a0e 	blcc	2ceb80 <__bss_end__+0x2c5670>
     344:	000b390b 	andeq	r3, fp, fp, lsl #18
     348:	11010000 	mrsne	r0, (UNDEF: 1)
     34c:	130e2501 	movwne	r2, #58625	; 0xe501
     350:	1b0e030b 	blne	380f84 <__bss_end__+0x377a74>
     354:	1201110e 	andne	r1, r1, #-2147483645	; 0x80000003
     358:	00171006 	andseq	r1, r7, r6
     35c:	00240200 	eoreq	r0, r4, r0, lsl #4
     360:	0b3e0b0b 	bleq	f82f94 <__bss_end__+0xf79a84>
     364:	00000803 	andeq	r0, r0, r3, lsl #16
     368:	0b002403 	bleq	937c <buf.3940+0x270>
     36c:	030b3e0b 	movweq	r3, #48651	; 0xbe0b
     370:	0400000e 	streq	r0, [r0], #-14
     374:	19270115 	stmdbne	r7!, {r0, r2, r4, r8}
     378:	13011349 	movwne	r1, #4937	; 0x1349
     37c:	05050000 	streq	r0, [r5, #-0]
     380:	00134900 	andseq	r4, r3, r0, lsl #18
     384:	00340600 	eorseq	r0, r4, r0, lsl #12
     388:	0b3a0e03 	bleq	e83b9c <__bss_end__+0xe7a68c>
     38c:	0b390b3b 	bleq	e43080 <__bss_end__+0xe39b70>
     390:	193f1349 	ldmdbne	pc!, {r0, r3, r6, r8, r9, ip}	; <UNPREDICTABLE>
     394:	0000193c 	andeq	r1, r0, ip, lsr r9
     398:	0b000f07 	bleq	3fbc <__code_start__-0x4044>
     39c:	0013490b 	andseq	r4, r3, fp, lsl #18
     3a0:	00260800 	eoreq	r0, r6, r0, lsl #16
     3a4:	00001349 	andeq	r1, r0, r9, asr #6
     3a8:	47003409 	strmi	r3, [r0, -r9, lsl #8]
     3ac:	3b0b3a13 	blcc	2cec00 <__bss_end__+0x2c56f0>
     3b0:	020b390b 	andeq	r3, fp, #180224	; 0x2c000
     3b4:	0a000018 	beq	41c <__code_start__-0x7be4>
     3b8:	193f012e 	ldmdbne	pc!, {r1, r2, r3, r5, r8}	; <UNPREDICTABLE>
     3bc:	0b3a0e03 	bleq	e83bd0 <__bss_end__+0xe7a6c0>
     3c0:	0b390b3b 	bleq	e430b4 <__bss_end__+0xe39ba4>
     3c4:	13491927 	movtne	r1, #39207	; 0x9927
     3c8:	06120111 			; <UNDEFINED> instruction: 0x06120111
     3cc:	42961840 	addsmi	r1, r6, #64, 16	; 0x400000
     3d0:	0b000019 	bleq	43c <__code_start__-0x7bc4>
     3d4:	08030005 	stmdaeq	r3, {r0, r2}
     3d8:	0b3b0b3a 	bleq	ec30c8 <__bss_end__+0xeb9bb8>
     3dc:	13490b39 	movtne	r0, #39737	; 0x9b39
     3e0:	42b71702 	adcsmi	r1, r7, #524288	; 0x80000
     3e4:	00000017 	andeq	r0, r0, r7, lsl r0
     3e8:	25011101 	strcs	r1, [r1, #-257]	; 0xfffffeff
     3ec:	030b130e 	movweq	r1, #45838	; 0xb30e
     3f0:	110e1b0e 	tstne	lr, lr, lsl #22
     3f4:	10061201 	andne	r1, r6, r1, lsl #4
     3f8:	02000017 	andeq	r0, r0, #23, 0
     3fc:	0b0b0024 	bleq	2c0494 <__bss_end__+0x2b6f84>
     400:	08030b3e 	stmdaeq	r3, {r1, r2, r3, r4, r5, r8, r9, fp}
     404:	24030000 	strcs	r0, [r3], #-0
     408:	3e0b0b00 	vmlacc.f64	d0, d11, d0
     40c:	000e030b 	andeq	r0, lr, fp, lsl #6
     410:	00160400 	andseq	r0, r6, r0, lsl #8
     414:	0b3a0e03 	bleq	e83c28 <__bss_end__+0xe7a718>
     418:	0b390b3b 	bleq	e4310c <__bss_end__+0xe39bfc>
     41c:	00001349 	andeq	r1, r0, r9, asr #6
     420:	27011505 	strcs	r1, [r1, -r5, lsl #10]
     424:	01134919 	tsteq	r3, r9, lsl r9
     428:	06000013 			; <UNDEFINED> instruction: 0x06000013
     42c:	13490005 	movtne	r0, #36869	; 0x9005
     430:	34070000 	strcc	r0, [r7], #-0
     434:	3a0e0300 	bcc	38103c <__bss_end__+0x377b2c>
     438:	390b3b0b 	stmdbcc	fp, {r0, r1, r3, r8, r9, fp, ip, sp}
     43c:	3f13490b 	svccc	0x0013490b
     440:	00193c19 	andseq	r3, r9, r9, lsl ip
     444:	000f0800 	andeq	r0, pc, r0, lsl #16
     448:	13490b0b 	movtne	r0, #39691	; 0x9b0b
     44c:	26090000 	strcs	r0, [r9], -r0
     450:	00134900 	andseq	r4, r3, r0, lsl #18
     454:	01130a00 	tsteq	r3, r0, lsl #20
     458:	0b0b0e03 	bleq	2c3c6c <__bss_end__+0x2ba75c>
     45c:	0b3b0b3a 	bleq	ec314c <__bss_end__+0xeb9c3c>
     460:	00001301 	andeq	r1, r0, r1, lsl #6
     464:	03000d0b 	movweq	r0, #3339	; 0xd0b
     468:	3813490e 	ldmdacc	r3, {r1, r2, r3, r8, fp, lr}
     46c:	0019340b 	andseq	r3, r9, fp, lsl #8
     470:	000f0c00 	andeq	r0, pc, r0, lsl #24
     474:	00000b0b 	andeq	r0, r0, fp, lsl #22
     478:	3f012e0d 	svccc	0x00012e0d
     47c:	3a0e0319 	bcc	3810e8 <__bss_end__+0x377bd8>
     480:	390b3b0b 	stmdbcc	fp, {r0, r1, r3, r8, r9, fp, ip, sp}
     484:	4919270b 	ldmdbmi	r9, {r0, r1, r3, r8, r9, sl, sp}
     488:	12011113 	andne	r1, r1, #-1073741820	; 0xc0000004
     48c:	97184006 	ldrls	r4, [r8, -r6]
     490:	13011942 	movwne	r1, #6466	; 0x1942
     494:	050e0000 	streq	r0, [lr, #-0]
     498:	3a080300 	bcc	2010a0 <__bss_end__+0x1f7b90>
     49c:	390b3b0b 	stmdbcc	fp, {r0, r1, r3, r8, r9, fp, ip, sp}
     4a0:	0213490b 	andseq	r4, r3, #180224	; 0x2c000
     4a4:	1742b717 	smlaldne	fp, r2, r7, r7
     4a8:	050f0000 	streq	r0, [pc, #-0]	; 4b0 <__code_start__-0x7b50>
     4ac:	3a0e0300 	bcc	3810b4 <__bss_end__+0x377ba4>
     4b0:	390b3b0b 	stmdbcc	fp, {r0, r1, r3, r8, r9, fp, ip, sp}
     4b4:	0213490b 	andseq	r4, r3, #180224	; 0x2c000
     4b8:	10000018 	andne	r0, r0, r8, lsl r0
     4bc:	08030034 	stmdaeq	r3, {r2, r4, r5}
     4c0:	0b3b0b3a 	bleq	ec31b0 <__bss_end__+0xeb9ca0>
     4c4:	13490b39 	movtne	r0, #39737	; 0x9b39
     4c8:	42b71702 	adcsmi	r1, r7, #524288	; 0x80000
     4cc:	11000017 	tstne	r0, r7, lsl r0
     4d0:	0e030034 	mcreq	0, 0, r0, cr3, cr4, {1}
     4d4:	0b3b0b3a 	bleq	ec31c4 <__bss_end__+0xeb9cb4>
     4d8:	13490b39 	movtne	r0, #39737	; 0x9b39
     4dc:	42b71702 	adcsmi	r1, r7, #524288	; 0x80000
     4e0:	12000017 	andne	r0, r0, #23, 0
     4e4:	0e030034 	mcreq	0, 0, r0, cr3, cr4, {1}
     4e8:	19341349 	ldmdbne	r4!, {r0, r3, r6, r8, r9, ip}
     4ec:	00001802 	andeq	r1, r0, r2, lsl #16
     4f0:	11010b13 	tstne	r1, r3, lsl fp
     4f4:	00061201 	andeq	r1, r6, r1, lsl #4
     4f8:	00341400 	eorseq	r1, r4, r0, lsl #8
     4fc:	0b3a0803 	bleq	e82510 <__bss_end__+0xe79000>
     500:	0b390b3b 	bleq	e431f4 <__bss_end__+0xe39ce4>
     504:	18021349 	stmdane	r2, {r0, r3, r6, r8, r9, ip}
     508:	34150000 	ldrcc	r0, [r5], #-0
     50c:	3a0e0300 	bcc	381114 <__bss_end__+0x377c04>
     510:	390b3b0b 	stmdbcc	fp, {r0, r1, r3, r8, r9, fp, ip, sp}
     514:	0213490b 	andseq	r4, r3, #180224	; 0x2c000
     518:	16000018 			; <UNDEFINED> instruction: 0x16000018
     51c:	0111010b 	tsteq	r1, fp, lsl #2
     520:	13010612 	movwne	r0, #5650	; 0x1612
     524:	34170000 	ldrcc	r0, [r7], #-0
     528:	3a080300 	bcc	201130 <__bss_end__+0x1f7c20>
     52c:	390b3b0b 	stmdbcc	fp, {r0, r1, r3, r8, r9, fp, ip, sp}
     530:	0013490b 	andseq	r4, r3, fp, lsl #18
     534:	82891800 	addhi	r1, r9, #0, 16
     538:	01110101 	tsteq	r1, r1, lsl #2
     53c:	13011331 	movwne	r1, #4913	; 0x1331
     540:	8a190000 	bhi	640548 <__bss_end__+0x637038>
     544:	02000182 	andeq	r0, r0, #-2147483616	; 0x80000020
     548:	18429118 	stmdane	r2, {r3, r4, r8, ip, pc}^
     54c:	891a0000 	ldmdbhi	sl, {}	; <UNPREDICTABLE>
     550:	11000182 	smlabbne	r0, r2, r1, r0
     554:	00133101 	andseq	r3, r3, r1, lsl #2
     558:	82891b00 	addhi	r1, r9, #0, 22
     55c:	01110101 	tsteq	r1, r1, lsl #2
     560:	00001301 	andeq	r1, r0, r1, lsl #6
     564:	4901011c 	stmdbmi	r1, {r2, r3, r4, r8}
     568:	00130113 	andseq	r0, r3, r3, lsl r1
     56c:	00211d00 	eoreq	r1, r1, r0, lsl #26
     570:	0b2f1349 	bleq	bc529c <__bss_end__+0xbbbd8c>
     574:	2e1e0000 	cdpcs	0, 1, cr0, cr14, cr0, {0}
     578:	3a0e0301 	bcc	381184 <__bss_end__+0x377c74>
     57c:	390b3b0b 	stmdbcc	fp, {r0, r1, r3, r8, r9, fp, ip, sp}
     580:	4919270b 	ldmdbmi	r9, {r0, r1, r3, r8, r9, sl, sp}
     584:	12011113 	andne	r1, r1, #-1073741820	; 0xc0000004
     588:	97184006 	ldrls	r4, [r8, -r6]
     58c:	13011942 	movwne	r1, #6466	; 0x1942
     590:	051f0000 	ldreq	r0, [pc, #-0]	; 598 <__code_start__-0x7a68>
     594:	3a0e0300 	bcc	38119c <__bss_end__+0x377c8c>
     598:	390b3b0b 	stmdbcc	fp, {r0, r1, r3, r8, r9, fp, ip, sp}
     59c:	0213490b 	andseq	r4, r3, #180224	; 0x2c000
     5a0:	1742b717 	smlaldne	fp, r2, r7, r7
     5a4:	2e200000 	cdpcs	0, 2, cr0, cr0, cr0, {0}
     5a8:	3a080301 	bcc	2011b4 <__bss_end__+0x1f7ca4>
     5ac:	390b3b0b 	stmdbcc	fp, {r0, r1, r3, r8, r9, fp, ip, sp}
     5b0:	4919270b 	ldmdbmi	r9, {r0, r1, r3, r8, r9, sl, sp}
     5b4:	12011113 	andne	r1, r1, #-1073741820	; 0xc0000004
     5b8:	97184006 	ldrls	r4, [r8, -r6]
     5bc:	13011942 	movwne	r1, #6466	; 0x1942
     5c0:	2e210000 	cdpcs	0, 2, cr0, cr1, cr0, {0}
     5c4:	03193f01 	tsteq	r9, #1, 30
     5c8:	3b0b3a0e 	blcc	2cee08 <__bss_end__+0x2c58f8>
     5cc:	270b390b 	strcs	r3, [fp, -fp, lsl #18]
     5d0:	12011119 	andne	r1, r1, #1073741830	; 0x40000006
     5d4:	97184006 	ldrls	r4, [r8, -r6]
     5d8:	13011942 	movwne	r1, #6466	; 0x1942
     5dc:	2e220000 	cdpcs	0, 2, cr0, cr2, cr0, {0}
     5e0:	3c193f00 	ldccc	15, cr3, [r9], {-0}
     5e4:	030e6e19 	movweq	r6, #60953	; 0xee19
     5e8:	3b0b3a0e 	blcc	2cee28 <__bss_end__+0x2c5918>
     5ec:	000b390b 	andeq	r3, fp, fp, lsl #18
     5f0:	11010000 	mrsne	r0, (UNDEF: 1)
     5f4:	130e2501 	movwne	r2, #58625	; 0xe501
     5f8:	1b0e030b 	blne	38122c <__bss_end__+0x377d1c>
     5fc:	1201110e 	andne	r1, r1, #-2147483645	; 0x80000003
     600:	00171006 	andseq	r1, r7, r6
     604:	00240200 	eoreq	r0, r4, r0, lsl #4
     608:	0b3e0b0b 	bleq	f8323c <__bss_end__+0xf79d2c>
     60c:	00000803 	andeq	r0, r0, r3, lsl #16
     610:	0b002403 	bleq	9624 <__bss_end__+0x114>
     614:	030b3e0b 	movweq	r3, #48651	; 0xbe0b
     618:	0400000e 	streq	r0, [r0], #-14
     61c:	19270115 	stmdbne	r7!, {r0, r2, r4, r8}
     620:	13011349 	movwne	r1, #4937	; 0x1349
     624:	05050000 	streq	r0, [r5, #-0]
     628:	00134900 	andseq	r4, r3, r0, lsl #18
     62c:	00340600 	eorseq	r0, r4, r0, lsl #12
     630:	0b3a0e03 	bleq	e83e44 <__bss_end__+0xe7a934>
     634:	0b390b3b 	bleq	e43328 <__bss_end__+0xe39e18>
     638:	193f1349 	ldmdbne	pc!, {r0, r3, r6, r8, r9, ip}	; <UNPREDICTABLE>
     63c:	0000193c 	andeq	r1, r0, ip, lsr r9
     640:	0b000f07 	bleq	4264 <__code_start__-0x3d9c>
     644:	0013490b 	andseq	r4, r3, fp, lsl #18
     648:	00260800 	eoreq	r0, r6, r0, lsl #16
     64c:	00001349 	andeq	r1, r0, r9, asr #6
     650:	3f012e09 	svccc	0x00012e09
     654:	3a0e0319 	bcc	3812c0 <__bss_end__+0x377db0>
     658:	390b3b0b 	stmdbcc	fp, {r0, r1, r3, r8, r9, fp, ip, sp}
     65c:	8719270b 	ldrhi	r2, [r9, -fp, lsl #14]
     660:	01111901 	tsteq	r1, r1, lsl #18
     664:	18400612 	stmdane	r0, {r1, r4, r9, sl}^
     668:	01194297 			; <UNDEFINED> instruction: 0x01194297
     66c:	0a000013 	beq	6c0 <__code_start__-0x7940>
     670:	01018289 	smlabbeq	r1, r9, r2, r8
     674:	13010111 	movwne	r0, #4369	; 0x1111
     678:	8a0b0000 	bhi	2c0680 <__bss_end__+0x2b7170>
     67c:	02000182 	andeq	r0, r0, #-2147483616	; 0x80000020
     680:	18429118 	stmdane	r2, {r3, r4, r8, ip, pc}^
     684:	890c0000 	stmdbhi	ip, {}	; <UNPREDICTABLE>
     688:	11000182 	smlabbne	r0, r2, r1, r0
     68c:	00133101 	andseq	r3, r3, r1, lsl #2
     690:	82890d00 	addhi	r0, r9, #0, 26
     694:	01110101 	tsteq	r1, r1, lsl #2
     698:	13011331 	movwne	r1, #4913	; 0x1331
     69c:	2e0e0000 	cdpcs	0, 0, cr0, cr14, cr0, {0}
     6a0:	3c193f00 	ldccc	15, cr3, [r9], {-0}
     6a4:	030e6e19 	movweq	r6, #60953	; 0xee19
     6a8:	3b0b3a0e 	blcc	2ceee8 <__bss_end__+0x2c59d8>
     6ac:	000b390b 	andeq	r3, fp, fp, lsl #18
     6b0:	11010000 	mrsne	r0, (UNDEF: 1)
     6b4:	130e2501 	movwne	r2, #58625	; 0xe501
     6b8:	1b0e030b 	blne	3812ec <__bss_end__+0x377ddc>
     6bc:	1201110e 	andne	r1, r1, #-2147483645	; 0x80000003
     6c0:	00171006 	andseq	r1, r7, r6
     6c4:	00240200 	eoreq	r0, r4, r0, lsl #4
     6c8:	0b3e0b0b 	bleq	f832fc <__bss_end__+0xf79dec>
     6cc:	00000803 	andeq	r0, r0, r3, lsl #16
     6d0:	0b002403 	bleq	96e4 <__bss_end__+0x1d4>
     6d4:	030b3e0b 	movweq	r3, #48651	; 0xbe0b
     6d8:	0400000e 	streq	r0, [r0], #-14
     6dc:	19270115 	stmdbne	r7!, {r0, r2, r4, r8}
     6e0:	13011349 	movwne	r1, #4937	; 0x1349
     6e4:	05050000 	streq	r0, [r5, #-0]
     6e8:	00134900 	andseq	r4, r3, r0, lsl #18
     6ec:	00340600 	eorseq	r0, r4, r0, lsl #12
     6f0:	0b3a0e03 	bleq	e83f04 <__bss_end__+0xe7a9f4>
     6f4:	0b390b3b 	bleq	e433e8 <__bss_end__+0xe39ed8>
     6f8:	193f1349 	ldmdbne	pc!, {r0, r3, r6, r8, r9, ip}	; <UNPREDICTABLE>
     6fc:	0000193c 	andeq	r1, r0, ip, lsr r9
     700:	0b000f07 	bleq	4324 <__code_start__-0x3cdc>
     704:	0013490b 	andseq	r4, r3, fp, lsl #18
     708:	00260800 	eoreq	r0, r6, r0, lsl #16
     70c:	00001349 	andeq	r1, r0, r9, asr #6
     710:	3f012e09 	svccc	0x00012e09
     714:	3a0e0319 	bcc	381380 <__bss_end__+0x377e70>
     718:	390b3b0b 	stmdbcc	fp, {r0, r1, r3, r8, r9, fp, ip, sp}
     71c:	1201110b 	andne	r1, r1, #-1073741822	; 0xc0000002
     720:	97184006 	ldrls	r4, [r8, -r6]
     724:	13011942 	movwne	r1, #6466	; 0x1942
     728:	2e0a0000 	cdpcs	0, 0, cr0, cr10, cr0, {0}
     72c:	03193f00 	tsteq	r9, #0, 30
     730:	3b0b3a0e 	blcc	2cef70 <__bss_end__+0x2c5a60>
     734:	270b390b 	strcs	r3, [fp, -fp, lsl #18]
     738:	00193c19 	andseq	r3, r9, r9, lsl ip
     73c:	00340b00 	eorseq	r0, r4, r0, lsl #22
     740:	0b3a0803 	bleq	e82754 <__bss_end__+0xe79244>
     744:	0b390b3b 	bleq	e43438 <__bss_end__+0xe39f28>
     748:	17021349 	strne	r1, [r2, -r9, asr #6]
     74c:	001742b7 			; <UNDEFINED> instruction: 0x001742b7
     750:	00340c00 	eorseq	r0, r4, r0, lsl #24
     754:	0b3a0e03 	bleq	e83f68 <__bss_end__+0xe7aa58>
     758:	0b390b3b 	bleq	e4344c <__bss_end__+0xe39f3c>
     75c:	00001349 	andeq	r1, r0, r9, asr #6
     760:	11010b0d 	tstne	r1, sp, lsl #22
     764:	01061201 	tsteq	r6, r1, lsl #4
     768:	0e000013 	mcreq	0, 0, r0, cr0, cr3, {0}
     76c:	08030034 	stmdaeq	r3, {r2, r4, r5}
     770:	0b3b0b3a 	bleq	ec3460 <__bss_end__+0xeb9f50>
     774:	13490b39 	movtne	r0, #39737	; 0x9b39
     778:	00000b1c 	andeq	r0, r0, ip, lsl fp
     77c:	0182890f 	orreq	r8, r2, pc, lsl #18
     780:	31011100 	mrscc	r1, (UNDEF: 17)
     784:	10000013 	andne	r0, r0, r3, lsl r0
     788:	193f002e 	ldmdbne	pc!, {r1, r2, r3, r5}	; <UNPREDICTABLE>
     78c:	0e6e193c 			; <UNDEFINED> instruction: 0x0e6e193c
     790:	0b3a0e03 	bleq	e83fa4 <__bss_end__+0xe7aa94>
     794:	0b39053b 	bleq	e41c88 <__bss_end__+0xe38778>
     798:	2e110000 	cdpcs	0, 1, cr0, cr1, cr0, {0}
     79c:	3c193f00 	ldccc	15, cr3, [r9], {-0}
     7a0:	030e6e19 	movweq	r6, #60953	; 0xee19
     7a4:	3b0b3a0e 	blcc	2cefe4 <__bss_end__+0x2c5ad4>
     7a8:	000b390b 	andeq	r3, fp, fp, lsl #18
     7ac:	11010000 	mrsne	r0, (UNDEF: 1)
     7b0:	130e2501 	movwne	r2, #58625	; 0xe501
     7b4:	1b0e030b 	blne	3813e8 <__bss_end__+0x377ed8>
     7b8:	1201110e 	andne	r1, r1, #-2147483645	; 0x80000003
     7bc:	00171006 	andseq	r1, r7, r6
     7c0:	00240200 	eoreq	r0, r4, r0, lsl #4
     7c4:	0b3e0b0b 	bleq	f833f8 <__bss_end__+0xf79ee8>
     7c8:	00000803 	andeq	r0, r0, r3, lsl #16
     7cc:	0b002403 	bleq	97e0 <__bss_end__+0x2d0>
     7d0:	030b3e0b 	movweq	r3, #48651	; 0xbe0b
     7d4:	0400000e 	streq	r0, [r0], #-14
     7d8:	19270115 	stmdbne	r7!, {r0, r2, r4, r8}
     7dc:	13011349 	movwne	r1, #4937	; 0x1349
     7e0:	05050000 	streq	r0, [r5, #-0]
     7e4:	00134900 	andseq	r4, r3, r0, lsl #18
     7e8:	00340600 	eorseq	r0, r4, r0, lsl #12
     7ec:	0b3a0e03 	bleq	e84000 <__bss_end__+0xe7aaf0>
     7f0:	0b390b3b 	bleq	e434e4 <__bss_end__+0xe39fd4>
     7f4:	193f1349 	ldmdbne	pc!, {r0, r3, r6, r8, r9, ip}	; <UNPREDICTABLE>
     7f8:	0000193c 	andeq	r1, r0, ip, lsr r9
     7fc:	0b000f07 	bleq	4420 <__code_start__-0x3be0>
     800:	0013490b 	andseq	r4, r3, fp, lsl #18
     804:	00260800 	eoreq	r0, r6, r0, lsl #16
     808:	00001349 	andeq	r1, r0, r9, asr #6
     80c:	3f002e09 	svccc	0x00002e09
     810:	3a0e0319 	bcc	38147c <__bss_end__+0x377f6c>
     814:	390b3b0b 	stmdbcc	fp, {r0, r1, r3, r8, r9, fp, ip, sp}
     818:	1119270b 	tstne	r9, fp, lsl #14
     81c:	40061201 	andmi	r1, r6, r1, lsl #4
     820:	19429718 	stmdbne	r2, {r3, r4, r8, r9, sl, ip, pc}^
     824:	01000000 	mrseq	r0, (UNDEF: 0)
     828:	0e250111 	mcreq	1, 1, r0, cr5, cr1, {0}
     82c:	0e030b13 	vmoveq.32	d3[0], r0
     830:	17550e1b 	smmlane	r5, fp, lr, r0
     834:	17100111 			; <UNDEFINED> instruction: 0x17100111
     838:	24020000 	strcs	r0, [r2], #-0
     83c:	3e0b0b00 	vmlacc.f64	d0, d11, d0
     840:	0008030b 	andeq	r0, r8, fp, lsl #6
     844:	00260300 	eoreq	r0, r6, r0, lsl #6
     848:	00001349 	andeq	r1, r0, r9, asr #6
     84c:	0b002404 	bleq	9864 <__bss_end__+0x354>
     850:	030b3e0b 	movweq	r3, #48651	; 0xbe0b
     854:	0500000e 	streq	r0, [r0, #-14]
     858:	19270115 	stmdbne	r7!, {r0, r2, r4, r8}
     85c:	13011349 	movwne	r1, #4937	; 0x1349
     860:	05060000 	streq	r0, [r6, #-0]
     864:	00134900 	andseq	r4, r3, r0, lsl #18
     868:	00340700 	eorseq	r0, r4, r0, lsl #14
     86c:	0b3a0e03 	bleq	e84080 <__bss_end__+0xe7ab70>
     870:	0b390b3b 	bleq	e43564 <__bss_end__+0xe3a054>
     874:	193f1349 	ldmdbne	pc!, {r0, r3, r6, r8, r9, ip}	; <UNPREDICTABLE>
     878:	0000193c 	andeq	r1, r0, ip, lsr r9
     87c:	0b000f08 	bleq	44a4 <__code_start__-0x3b5c>
     880:	0013490b 	andseq	r4, r3, fp, lsl #18
     884:	00340900 	eorseq	r0, r4, r0, lsl #18
     888:	0b3a0e03 	bleq	e8409c <__bss_end__+0xe7ab8c>
     88c:	0b390b3b 	bleq	e43580 <__bss_end__+0xe3a070>
     890:	00001349 	andeq	r1, r0, r9, asr #6
     894:	3f012e0a 	svccc	0x00012e0a
     898:	3a0e0319 	bcc	381504 <__bss_end__+0x377ff4>
     89c:	390b3b0b 	stmdbcc	fp, {r0, r1, r3, r8, r9, fp, ip, sp}
     8a0:	8719270b 	ldrhi	r2, [r9, -fp, lsl #14]
     8a4:	01111901 	tsteq	r1, r1, lsl #18
     8a8:	18400612 	stmdane	r0, {r1, r4, r9, sl}^
     8ac:	01194297 			; <UNDEFINED> instruction: 0x01194297
     8b0:	0b000013 	bleq	904 <__code_start__-0x76fc>
     8b4:	0e030034 	mcreq	0, 0, r0, cr3, cr4, {1}
     8b8:	0b3b0b3a 	bleq	ec35a8 <__bss_end__+0xeba098>
     8bc:	13490b39 	movtne	r0, #39737	; 0x9b39
     8c0:	42b71702 	adcsmi	r1, r7, #524288	; 0x80000
     8c4:	0c000017 	stceq	0, cr0, [r0], {23}
     8c8:	00018289 	andeq	r8, r1, r9, lsl #5
     8cc:	13310111 	teqne	r1, #1073741828	; 0x40000004
     8d0:	890d0000 	stmdbhi	sp, {}	; <UNPREDICTABLE>
     8d4:	11010182 	smlabbne	r1, r2, r1, r0
     8d8:	01133101 	tsteq	r3, r1, lsl #2
     8dc:	0e000013 	mcreq	0, 0, r0, cr0, cr3, {0}
     8e0:	0001828a 	andeq	r8, r1, sl, lsl #5
     8e4:	42911802 	addsmi	r1, r1, #131072	; 0x20000
     8e8:	0f000018 	svceq	0x00000018
     8ec:	193f012e 	ldmdbne	pc!, {r1, r2, r3, r5, r8}	; <UNPREDICTABLE>
     8f0:	0b3a0e03 	bleq	e84104 <__bss_end__+0xe7abf4>
     8f4:	0b390b3b 	bleq	e435e8 <__bss_end__+0xe3a0d8>
     8f8:	01111927 	tsteq	r1, r7, lsr #18
     8fc:	18400612 	stmdane	r0, {r1, r4, r9, sl}^
     900:	01194297 			; <UNDEFINED> instruction: 0x01194297
     904:	10000013 	andne	r0, r0, r3, lsl r0
     908:	193f012e 	ldmdbne	pc!, {r1, r2, r3, r5, r8}	; <UNPREDICTABLE>
     90c:	0b3a0e03 	bleq	e84120 <__bss_end__+0xe7ac10>
     910:	0b390b3b 	bleq	e43604 <__bss_end__+0xe3a0f4>
     914:	13491927 	movtne	r1, #39207	; 0x9927
     918:	06120111 			; <UNDEFINED> instruction: 0x06120111
     91c:	42971840 	addsmi	r1, r7, #64, 16	; 0x400000
     920:	00130119 	andseq	r0, r3, r9, lsl r1
     924:	002e1100 	eoreq	r1, lr, r0, lsl #2
     928:	193c193f 	ldmdbne	ip!, {r0, r1, r2, r3, r4, r5, r8, fp, ip}
     92c:	0e030e6e 	cdpeq	14, 0, cr0, cr3, cr14, {3}
     930:	053b0b3a 	ldreq	r0, [fp, #-2874]!	; 0xfffff4c6
     934:	00000b39 	andeq	r0, r0, r9, lsr fp
     938:	3f002e12 	svccc	0x00002e12
     93c:	6e193c19 	mrcvs	12, 0, r3, cr9, cr9, {0}
     940:	3a0e030e 	bcc	381580 <__bss_end__+0x378070>
     944:	390b3b0b 	stmdbcc	fp, {r0, r1, r3, r8, r9, fp, ip, sp}
     948:	0000000b 	andeq	r0, r0, fp
     94c:	25011101 	strcs	r1, [r1, #-257]	; 0xfffffeff
     950:	030b130e 	movweq	r1, #45838	; 0xb30e
     954:	110e1b0e 	tstne	lr, lr, lsl #22
     958:	10061201 	andne	r1, r6, r1, lsl #4
     95c:	02000017 	andeq	r0, r0, #23, 0
     960:	0b0b0024 	bleq	2c09f8 <__bss_end__+0x2b74e8>
     964:	08030b3e 	stmdaeq	r3, {r1, r2, r3, r4, r5, r8, r9, fp}
     968:	24030000 	strcs	r0, [r3], #-0
     96c:	3e0b0b00 	vmlacc.f64	d0, d11, d0
     970:	000e030b 	andeq	r0, lr, fp, lsl #6
     974:	01150400 	tsteq	r5, r0, lsl #8
     978:	13491927 	movtne	r1, #39207	; 0x9927
     97c:	00001301 	andeq	r1, r0, r1, lsl #6
     980:	49000505 	stmdbmi	r0, {r0, r2, r8, sl}
     984:	06000013 			; <UNDEFINED> instruction: 0x06000013
     988:	0e030034 	mcreq	0, 0, r0, cr3, cr4, {1}
     98c:	0b3b0b3a 	bleq	ec367c <__bss_end__+0xeba16c>
     990:	13490b39 	movtne	r0, #39737	; 0x9b39
     994:	193c193f 	ldmdbne	ip!, {r0, r1, r2, r3, r4, r5, r8, fp, ip}
     998:	0f070000 	svceq	0x00070000
     99c:	490b0b00 	stmdbmi	fp, {r8, r9, fp}
     9a0:	08000013 	stmdaeq	r0, {r0, r1, r4}
     9a4:	13490026 	movtne	r0, #36902	; 0x9026
     9a8:	2e090000 	cdpcs	0, 0, cr0, cr9, cr0, {0}
     9ac:	03193f01 	tsteq	r9, #1, 30
     9b0:	3b0b3a0e 	blcc	2cf1f0 <__bss_end__+0x2c5ce0>
     9b4:	270b390b 	strcs	r3, [fp, -fp, lsl #18]
     9b8:	12011119 	andne	r1, r1, #1073741830	; 0x40000006
     9bc:	97184006 	ldrls	r4, [r8, -r6]
     9c0:	13011942 	movwne	r1, #6466	; 0x1942
     9c4:	050a0000 	streq	r0, [sl, #-0]
     9c8:	3a080300 	bcc	2015d0 <__bss_end__+0x1f80c0>
     9cc:	390b3b0b 	stmdbcc	fp, {r0, r1, r3, r8, r9, fp, ip, sp}
     9d0:	0213490b 	andseq	r4, r3, #180224	; 0x2c000
     9d4:	1742b717 	smlaldne	fp, r2, r7, r7
     9d8:	890b0000 	stmdbhi	fp, {}	; <UNPREDICTABLE>
     9dc:	11010182 	smlabbne	r1, r2, r1, r0
     9e0:	00133101 	andseq	r3, r3, r1, lsl #2
     9e4:	828a0c00 	addhi	r0, sl, #0, 24
     9e8:	18020001 	stmdane	r2, {r0}
     9ec:	00184291 	mulseq	r8, r1, r2
     9f0:	00340d00 	eorseq	r0, r4, r0, lsl #26
     9f4:	0b3a0803 	bleq	e82a08 <__bss_end__+0xe794f8>
     9f8:	0b390b3b 	bleq	e436ec <__bss_end__+0xe3a1dc>
     9fc:	17021349 	strne	r1, [r2, -r9, asr #6]
     a00:	001742b7 			; <UNDEFINED> instruction: 0x001742b7
     a04:	010b0e00 	tsteq	fp, r0, lsl #28
     a08:	06120111 			; <UNDEFINED> instruction: 0x06120111
     a0c:	00001301 	andeq	r1, r0, r1, lsl #6
     a10:	0182890f 	orreq	r8, r2, pc, lsl #18
     a14:	31011100 	mrscc	r1, (UNDEF: 17)
     a18:	10000013 	andne	r0, r0, r3, lsl r0
     a1c:	193f012e 	ldmdbne	pc!, {r1, r2, r3, r5, r8}	; <UNPREDICTABLE>
     a20:	0b3a0e03 	bleq	e84234 <__bss_end__+0xe7ad24>
     a24:	0b390b3b 	bleq	e43718 <__bss_end__+0xe3a208>
     a28:	13491927 	movtne	r1, #39207	; 0x9927
     a2c:	06120111 			; <UNDEFINED> instruction: 0x06120111
     a30:	42971840 	addsmi	r1, r7, #64, 16	; 0x400000
     a34:	00130119 	andseq	r0, r3, r9, lsl r1
     a38:	002e1100 	eoreq	r1, lr, r0, lsl #2
     a3c:	193c193f 	ldmdbne	ip!, {r0, r1, r2, r3, r4, r5, r8, fp, ip}
     a40:	0e030e6e 	cdpeq	14, 0, cr0, cr3, cr14, {3}
     a44:	0b3b0b3a 	bleq	ec3734 <__bss_end__+0xeba224>
     a48:	00000b39 	andeq	r0, r0, r9, lsr fp
     a4c:	01110100 	tsteq	r1, r0, lsl #2
     a50:	0b130e25 	bleq	4c42ec <__bss_end__+0x4baddc>
     a54:	0e1b0e03 	cdpeq	14, 1, cr0, cr11, cr3, {0}
     a58:	06120111 			; <UNDEFINED> instruction: 0x06120111
     a5c:	00001710 	andeq	r1, r0, r0, lsl r7
     a60:	0b002402 	bleq	9a70 <__bss_end__+0x560>
     a64:	030b3e0b 	movweq	r3, #48651	; 0xbe0b
     a68:	03000008 	movweq	r0, #8
     a6c:	0b0b0024 	bleq	2c0b04 <__bss_end__+0x2b75f4>
     a70:	0e030b3e 	vmoveq.16	d3[0], r0
     a74:	35040000 	strcc	r0, [r4, #-0]
     a78:	00134900 	andseq	r4, r3, r0, lsl #18
     a7c:	00160500 	andseq	r0, r6, r0, lsl #10
     a80:	0b3a0e03 	bleq	e84294 <__bss_end__+0xe7ad84>
     a84:	0b390b3b 	bleq	e43778 <__bss_end__+0xe3a268>
     a88:	00001349 	andeq	r1, r0, r9, asr #6
     a8c:	3e010406 	cdpcc	4, 0, cr0, cr1, cr6, {0}
     a90:	490b0b0b 	stmdbmi	fp, {r0, r1, r3, r8, r9, fp}
     a94:	3b0b3a13 	blcc	2cf2e8 <__bss_end__+0x2c5dd8>
     a98:	010b390b 	tsteq	fp, fp, lsl #18
     a9c:	07000013 	smladeq	r0, r3, r0, r0
     aa0:	0e030028 	cdpeq	0, 0, cr0, cr3, cr8, {1}
     aa4:	00000b1c 	andeq	r0, r0, ip, lsl fp
     aa8:	03011308 	movweq	r1, #4872	; 0x1308
     aac:	3a0b0b0e 	bcc	2c36ec <__bss_end__+0x2ba1dc>
     ab0:	390b3b0b 	stmdbcc	fp, {r0, r1, r3, r8, r9, fp, ip, sp}
     ab4:	0013010b 	andseq	r0, r3, fp, lsl #2
     ab8:	000d0900 	andeq	r0, sp, r0, lsl #18
     abc:	0b3a0803 	bleq	e82ad0 <__bss_end__+0xe795c0>
     ac0:	0b390b3b 	bleq	e437b4 <__bss_end__+0xe3a2a4>
     ac4:	0b381349 	bleq	e057f0 <__bss_end__+0xdfc2e0>
     ac8:	0d0a0000 	stceq	0, cr0, [sl, #-0]
     acc:	3a0e0300 	bcc	3816d4 <__bss_end__+0x3781c4>
     ad0:	390b3b0b 	stmdbcc	fp, {r0, r1, r3, r8, r9, fp, ip, sp}
     ad4:	3813490b 	ldmdacc	r3, {r0, r1, r3, r8, fp, lr}
     ad8:	0b00000b 	bleq	b0c <__code_start__-0x74f4>
     adc:	0e030034 	mcreq	0, 0, r0, cr3, cr4, {1}
     ae0:	0b3b0b3a 	bleq	ec37d0 <__bss_end__+0xeba2c0>
     ae4:	13490b39 	movtne	r0, #39737	; 0x9b39
     ae8:	0000061c 	andeq	r0, r0, ip, lsl r6
     aec:	0b000f0c 	bleq	4724 <__code_start__-0x38dc>
     af0:	0013490b 	andseq	r4, r3, fp, lsl #18
     af4:	00260d00 	eoreq	r0, r6, r0, lsl #26
     af8:	00001349 	andeq	r1, r0, r9, asr #6
     afc:	3f012e0e 	svccc	0x00012e0e
     b00:	3a0e0319 	bcc	38176c <__bss_end__+0x37825c>
     b04:	390b3b0b 	stmdbcc	fp, {r0, r1, r3, r8, r9, fp, ip, sp}
     b08:	1119270b 	tstne	r9, fp, lsl #14
     b0c:	40061201 	andmi	r1, r6, r1, lsl #4
     b10:	19429718 	stmdbne	r2, {r3, r4, r8, r9, sl, ip, pc}^
     b14:	00001301 	andeq	r1, r0, r1, lsl #6
     b18:	0182890f 	orreq	r8, r2, pc, lsl #18
     b1c:	31011100 	mrscc	r1, (UNDEF: 17)
     b20:	10000013 	andne	r0, r0, r3, lsl r0
     b24:	193f012e 	ldmdbne	pc!, {r1, r2, r3, r5, r8}	; <UNPREDICTABLE>
     b28:	0b3a0e03 	bleq	e8433c <__bss_end__+0xe7ae2c>
     b2c:	0b390b3b 	bleq	e43820 <__bss_end__+0xe3a310>
     b30:	13491927 	movtne	r1, #39207	; 0x9927
     b34:	06120111 			; <UNDEFINED> instruction: 0x06120111
     b38:	42971840 	addsmi	r1, r7, #64, 16	; 0x400000
     b3c:	00130119 	andseq	r0, r3, r9, lsl r1
     b40:	82891100 	addhi	r1, r9, #0
     b44:	01110101 	tsteq	r1, r1, lsl #2
     b48:	00001331 	andeq	r1, r0, r1, lsr r3
     b4c:	01828a12 	orreq	r8, r2, r2, lsl sl
     b50:	91180200 	tstls	r8, r0, lsl #4
     b54:	00001842 	andeq	r1, r0, r2, asr #16
     b58:	03000513 	movweq	r0, #1299	; 0x513
     b5c:	3b0b3a08 	blcc	2cf384 <__bss_end__+0x2c5e74>
     b60:	490b390b 	stmdbmi	fp, {r0, r1, r3, r8, fp, ip, sp}
     b64:	b7170213 			; <UNDEFINED> instruction: 0xb7170213
     b68:	00001742 	andeq	r1, r0, r2, asr #14
     b6c:	01828914 	orreq	r8, r2, r4, lsl r9
     b70:	31011101 	tstcc	r1, r1, lsl #2
     b74:	00130113 	andseq	r0, r3, r3, lsl r1
     b78:	00341500 	eorseq	r1, r4, r0, lsl #10
     b7c:	0b3a0803 	bleq	e82b90 <__bss_end__+0xe79680>
     b80:	0b390b3b 	bleq	e43874 <__bss_end__+0xe3a364>
     b84:	17021349 	strne	r1, [r2, -r9, asr #6]
     b88:	001742b7 			; <UNDEFINED> instruction: 0x001742b7
     b8c:	00341600 	eorseq	r1, r4, r0, lsl #12
     b90:	0b3a0e03 	bleq	e843a4 <__bss_end__+0xe7ae94>
     b94:	0b390b3b 	bleq	e43888 <__bss_end__+0xe3a378>
     b98:	051c1349 	ldreq	r1, [ip, #-841]	; 0xfffffcb7
     b9c:	2e170000 	cdpcs	0, 1, cr0, cr7, cr0, {0}
     ba0:	3a0e0301 	bcc	3817ac <__bss_end__+0x37829c>
     ba4:	390b3b0b 	stmdbcc	fp, {r0, r1, r3, r8, r9, fp, ip, sp}
     ba8:	1119270b 	tstne	r9, fp, lsl #14
     bac:	40061201 	andmi	r1, r6, r1, lsl #4
     bb0:	19429718 	stmdbne	r2, {r3, r4, r8, r9, sl, ip, pc}^
     bb4:	00001301 	andeq	r1, r0, r1, lsl #6
     bb8:	03000518 	movweq	r0, #1304	; 0x518
     bbc:	3b0b3a0e 	blcc	2cf3fc <__bss_end__+0x2c5eec>
     bc0:	490b390b 	stmdbmi	fp, {r0, r1, r3, r8, fp, ip, sp}
     bc4:	b7170213 			; <UNDEFINED> instruction: 0xb7170213
     bc8:	00001742 	andeq	r1, r0, r2, asr #14
     bcc:	00003519 	andeq	r3, r0, r9, lsl r5
     bd0:	002e1a00 	eoreq	r1, lr, r0, lsl #20
     bd4:	193c193f 	ldmdbne	ip!, {r0, r1, r2, r3, r4, r5, r8, fp, ip}
     bd8:	0e030e6e 	cdpeq	14, 0, cr0, cr3, cr14, {3}
     bdc:	0b3b0b3a 	bleq	ec38cc <__bss_end__+0xeba3bc>
     be0:	00000b39 	andeq	r0, r0, r9, lsr fp
     be4:	01110100 	tsteq	r1, r0, lsl #2
     be8:	0b130e25 	bleq	4c4484 <__bss_end__+0x4baf74>
     bec:	0e1b0e03 	cdpeq	14, 1, cr0, cr11, cr3, {0}
     bf0:	06120111 			; <UNDEFINED> instruction: 0x06120111
     bf4:	00001710 	andeq	r1, r0, r0, lsl r7
     bf8:	0b002402 	bleq	9c08 <__bss_end__+0x6f8>
     bfc:	030b3e0b 	movweq	r3, #48651	; 0xbe0b
     c00:	03000008 	movweq	r0, #8
     c04:	0b0b0024 	bleq	2c0c9c <__bss_end__+0x2b778c>
     c08:	0e030b3e 	vmoveq.16	d3[0], r0
     c0c:	15040000 	strne	r0, [r4, #-0]
     c10:	49192701 	ldmdbmi	r9, {r0, r8, r9, sl, sp}
     c14:	00130113 	andseq	r0, r3, r3, lsl r1
     c18:	00050500 	andeq	r0, r5, r0, lsl #10
     c1c:	00001349 	andeq	r1, r0, r9, asr #6
     c20:	03003406 	movweq	r3, #1030	; 0x406
     c24:	3b0b3a0e 	blcc	2cf464 <__bss_end__+0x2c5f54>
     c28:	490b390b 	stmdbmi	fp, {r0, r1, r3, r8, fp, ip, sp}
     c2c:	3c193f13 	ldccc	15, cr3, [r9], {19}
     c30:	07000019 	smladeq	r0, r9, r0, r0
     c34:	0b0b000f 	bleq	2c0c78 <__bss_end__+0x2b7768>
     c38:	00001349 	andeq	r1, r0, r9, asr #6
     c3c:	49002608 	stmdbmi	r0, {r3, r9, sl, sp}
     c40:	09000013 	stmdbeq	r0, {r0, r1, r4}
     c44:	13470034 	movtne	r0, #28724	; 0x7034
     c48:	0b3b0b3a 	bleq	ec3938 <__bss_end__+0xeba428>
     c4c:	18020b39 	stmdane	r2, {r0, r3, r4, r5, r8, r9, fp}
     c50:	2e0a0000 	cdpcs	0, 0, cr0, cr10, cr0, {0}
     c54:	03193f01 	tsteq	r9, #1, 30
     c58:	3b0b3a0e 	blcc	2cf498 <__bss_end__+0x2c5f88>
     c5c:	270b390b 	strcs	r3, [fp, -fp, lsl #18]
     c60:	12011119 	andne	r1, r1, #1073741830	; 0x40000006
     c64:	97184006 	ldrls	r4, [r8, -r6]
     c68:	13011942 	movwne	r1, #6466	; 0x1942
     c6c:	050b0000 	streq	r0, [fp, #-0]
     c70:	3a080300 	bcc	201878 <__bss_end__+0x1f8368>
     c74:	390b3b0b 	stmdbcc	fp, {r0, r1, r3, r8, r9, fp, ip, sp}
     c78:	0213490b 	andseq	r4, r3, #180224	; 0x2c000
     c7c:	0c000018 	stceq	0, cr0, [r0], {24}
     c80:	193f002e 	ldmdbne	pc!, {r1, r2, r3, r5}	; <UNPREDICTABLE>
     c84:	0b3a0e03 	bleq	e84498 <__bss_end__+0xe7af88>
     c88:	0b390b3b 	bleq	e4397c <__bss_end__+0xe3a46c>
     c8c:	01111927 	tsteq	r1, r7, lsr #18
     c90:	18400612 	stmdane	r0, {r1, r4, r9, sl}^
     c94:	00194297 	mulseq	r9, r7, r2
     c98:	012e0d00 			; <UNDEFINED> instruction: 0x012e0d00
     c9c:	0b3a0e03 	bleq	e844b0 <__bss_end__+0xe7afa0>
     ca0:	0b390b3b 	bleq	e43994 <__bss_end__+0xe3a484>
     ca4:	13491927 	movtne	r1, #39207	; 0x9927
     ca8:	06120111 			; <UNDEFINED> instruction: 0x06120111
     cac:	42971840 	addsmi	r1, r7, #64, 16	; 0x400000
     cb0:	00130119 	andseq	r0, r3, r9, lsl r1
     cb4:	00050e00 	andeq	r0, r5, r0, lsl #28
     cb8:	0b3a0803 	bleq	e82ccc <__bss_end__+0xe797bc>
     cbc:	0b390b3b 	bleq	e439b0 <__bss_end__+0xe3a4a0>
     cc0:	17021349 	strne	r1, [r2, -r9, asr #6]
     cc4:	001742b7 			; <UNDEFINED> instruction: 0x001742b7
     cc8:	82890f00 	addhi	r0, r9, #0, 30
     ccc:	01110101 	tsteq	r1, r1, lsl #2
     cd0:	00001331 	andeq	r1, r0, r1, lsr r3
     cd4:	01828a10 	orreq	r8, r2, r0, lsl sl
     cd8:	91180200 	tstls	r8, r0, lsl #4
     cdc:	00001842 	andeq	r1, r0, r2, asr #16
     ce0:	3f002e11 	svccc	0x00002e11
     ce4:	6e193c19 	mrcvs	12, 0, r3, cr9, cr9, {0}
     ce8:	3a0e030e 	bcc	381928 <__bss_end__+0x378418>
     cec:	390b3b0b 	stmdbcc	fp, {r0, r1, r3, r8, r9, fp, ip, sp}
     cf0:	0000000b 	andeq	r0, r0, fp
     cf4:	25011101 	strcs	r1, [r1, #-257]	; 0xfffffeff
     cf8:	030b130e 	movweq	r1, #45838	; 0xb30e
     cfc:	110e1b0e 	tstne	lr, lr, lsl #22
     d00:	10061201 	andne	r1, r6, r1, lsl #4
     d04:	02000017 	andeq	r0, r0, #23, 0
     d08:	0b0b0024 	bleq	2c0da0 <__bss_end__+0x2b7890>
     d0c:	08030b3e 	stmdaeq	r3, {r1, r2, r3, r4, r5, r8, r9, fp}
     d10:	24030000 	strcs	r0, [r3], #-0
     d14:	3e0b0b00 	vmlacc.f64	d0, d11, d0
     d18:	000e030b 	andeq	r0, lr, fp, lsl #6
     d1c:	01150400 	tsteq	r5, r0, lsl #8
     d20:	13491927 	movtne	r1, #39207	; 0x9927
     d24:	00001301 	andeq	r1, r0, r1, lsl #6
     d28:	49000505 	stmdbmi	r0, {r0, r2, r8, sl}
     d2c:	06000013 			; <UNDEFINED> instruction: 0x06000013
     d30:	0e030034 	mcreq	0, 0, r0, cr3, cr4, {1}
     d34:	0b3b0b3a 	bleq	ec3a24 <__bss_end__+0xeba514>
     d38:	13490b39 	movtne	r0, #39737	; 0x9b39
     d3c:	193c193f 	ldmdbne	ip!, {r0, r1, r2, r3, r4, r5, r8, fp, ip}
     d40:	0f070000 	svceq	0x00070000
     d44:	490b0b00 	stmdbmi	fp, {r8, r9, fp}
     d48:	08000013 	stmdaeq	r0, {r0, r1, r4}
     d4c:	13490026 	movtne	r0, #36902	; 0x9026
     d50:	2e090000 	cdpcs	0, 0, cr0, cr9, cr0, {0}
     d54:	03193f01 	tsteq	r9, #1, 30
     d58:	3b0b3a0e 	blcc	2cf598 <__bss_end__+0x2c6088>
     d5c:	270b390b 	strcs	r3, [fp, -fp, lsl #18]
     d60:	11134919 	tstne	r3, r9, lsl r9
     d64:	40061201 	andmi	r1, r6, r1, lsl #4
     d68:	19429718 	stmdbne	r2, {r3, r4, r8, r9, sl, ip, pc}^
     d6c:	00001301 	andeq	r1, r0, r1, lsl #6
     d70:	0300050a 	movweq	r0, #1290	; 0x50a
     d74:	3b0b3a0e 	blcc	2cf5b4 <__bss_end__+0x2c60a4>
     d78:	490b390b 	stmdbmi	fp, {r0, r1, r3, r8, fp, ip, sp}
     d7c:	00180213 	andseq	r0, r8, r3, lsl r2
     d80:	00050b00 	andeq	r0, r5, r0, lsl #22
     d84:	0b3a0803 	bleq	e82d98 <__bss_end__+0xe79888>
     d88:	0b390b3b 	bleq	e43a7c <__bss_end__+0xe3a56c>
     d8c:	17021349 	strne	r1, [r2, -r9, asr #6]
     d90:	001742b7 			; <UNDEFINED> instruction: 0x001742b7
     d94:	00340c00 	eorseq	r0, r4, r0, lsl #24
     d98:	0b3a0803 	bleq	e82dac <__bss_end__+0xe7989c>
     d9c:	0b390b3b 	bleq	e43a90 <__bss_end__+0xe3a580>
     da0:	17021349 	strne	r1, [r2, -r9, asr #6]
     da4:	001742b7 			; <UNDEFINED> instruction: 0x001742b7
     da8:	11010000 	mrsne	r0, (UNDEF: 1)
     dac:	130e2501 	movwne	r2, #58625	; 0xe501
     db0:	1b0e030b 	blne	3819e4 <__bss_end__+0x3784d4>
     db4:	1201110e 	andne	r1, r1, #-2147483645	; 0x80000003
     db8:	00171006 	andseq	r1, r7, r6
     dbc:	00240200 	eoreq	r0, r4, r0, lsl #4
     dc0:	0b3e0b0b 	bleq	f839f4 <__bss_end__+0xf7a4e4>
     dc4:	00000803 	andeq	r0, r0, r3, lsl #16
     dc8:	0b002403 	bleq	9ddc <__bss_end__+0x8cc>
     dcc:	030b3e0b 	movweq	r3, #48651	; 0xbe0b
     dd0:	0400000e 	streq	r0, [r0], #-14
     dd4:	19270115 	stmdbne	r7!, {r0, r2, r4, r8}
     dd8:	13011349 	movwne	r1, #4937	; 0x1349
     ddc:	05050000 	streq	r0, [r5, #-0]
     de0:	00134900 	andseq	r4, r3, r0, lsl #18
     de4:	00340600 	eorseq	r0, r4, r0, lsl #12
     de8:	0b3a0e03 	bleq	e845fc <__bss_end__+0xe7b0ec>
     dec:	0b390b3b 	bleq	e43ae0 <__bss_end__+0xe3a5d0>
     df0:	193f1349 	ldmdbne	pc!, {r0, r3, r6, r8, r9, ip}	; <UNPREDICTABLE>
     df4:	0000193c 	andeq	r1, r0, ip, lsr r9
     df8:	0b000f07 	bleq	4a1c <__code_start__-0x35e4>
     dfc:	0013490b 	andseq	r4, r3, fp, lsl #18
     e00:	00260800 	eoreq	r0, r6, r0, lsl #16
     e04:	00001349 	andeq	r1, r0, r9, asr #6
     e08:	3f012e09 	svccc	0x00012e09
     e0c:	3a0e0319 	bcc	381a78 <__bss_end__+0x378568>
     e10:	390b3b0b 	stmdbcc	fp, {r0, r1, r3, r8, r9, fp, ip, sp}
     e14:	4919270b 	ldmdbmi	r9, {r0, r1, r3, r8, r9, sl, sp}
     e18:	12011113 	andne	r1, r1, #-1073741820	; 0xc0000004
     e1c:	97184006 	ldrls	r4, [r8, -r6]
     e20:	00001942 	andeq	r1, r0, r2, asr #18
     e24:	0300050a 	movweq	r0, #1290	; 0x50a
     e28:	3b0b3a08 	blcc	2cf650 <__bss_end__+0x2c6140>
     e2c:	490b390b 	stmdbmi	fp, {r0, r1, r3, r8, fp, ip, sp}
     e30:	b7170213 			; <UNDEFINED> instruction: 0xb7170213
     e34:	00001742 	andeq	r1, r0, r2, asr #14
     e38:	01110100 	tsteq	r1, r0, lsl #2
     e3c:	0b130e25 	bleq	4c46d8 <__bss_end__+0x4bb1c8>
     e40:	0e1b0e03 	cdpeq	14, 1, cr0, cr11, cr3, {0}
     e44:	06120111 			; <UNDEFINED> instruction: 0x06120111
     e48:	00001710 	andeq	r1, r0, r0, lsl r7
     e4c:	0b002402 	bleq	9e5c <__bss_end__+0x94c>
     e50:	030b3e0b 	movweq	r3, #48651	; 0xbe0b
     e54:	03000008 	movweq	r0, #8
     e58:	0b0b0024 	bleq	2c0ef0 <__bss_end__+0x2b79e0>
     e5c:	0e030b3e 	vmoveq.16	d3[0], r0
     e60:	15040000 	strne	r0, [r4, #-0]
     e64:	49192701 	ldmdbmi	r9, {r0, r8, r9, sl, sp}
     e68:	00130113 	andseq	r0, r3, r3, lsl r1
     e6c:	00050500 	andeq	r0, r5, r0, lsl #10
     e70:	00001349 	andeq	r1, r0, r9, asr #6
     e74:	03003406 	movweq	r3, #1030	; 0x406
     e78:	3b0b3a0e 	blcc	2cf6b8 <__bss_end__+0x2c61a8>
     e7c:	490b390b 	stmdbmi	fp, {r0, r1, r3, r8, fp, ip, sp}
     e80:	3c193f13 	ldccc	15, cr3, [r9], {19}
     e84:	07000019 	smladeq	r0, r9, r0, r0
     e88:	0b0b000f 	bleq	2c0ecc <__bss_end__+0x2b79bc>
     e8c:	00001349 	andeq	r1, r0, r9, asr #6
     e90:	49002608 	stmdbmi	r0, {r3, r9, sl, sp}
     e94:	09000013 	stmdbeq	r0, {r0, r1, r4}
     e98:	193f012e 	ldmdbne	pc!, {r1, r2, r3, r5, r8}	; <UNPREDICTABLE>
     e9c:	0b3a0e03 	bleq	e846b0 <__bss_end__+0xe7b1a0>
     ea0:	0b390b3b 	bleq	e43b94 <__bss_end__+0xe3a684>
     ea4:	13491927 	movtne	r1, #39207	; 0x9927
     ea8:	06120111 			; <UNDEFINED> instruction: 0x06120111
     eac:	42971840 	addsmi	r1, r7, #64, 16	; 0x400000
     eb0:	00130119 	andseq	r0, r3, r9, lsl r1
     eb4:	00050a00 	andeq	r0, r5, r0, lsl #20
     eb8:	0b3a0803 	bleq	e82ecc <__bss_end__+0xe799bc>
     ebc:	0b390b3b 	bleq	e43bb0 <__bss_end__+0xe3a6a0>
     ec0:	18021349 	stmdane	r2, {r0, r3, r6, r8, r9, ip}
     ec4:	050b0000 	streq	r0, [fp, #-0]
     ec8:	3a080300 	bcc	201ad0 <__bss_end__+0x1f85c0>
     ecc:	390b3b0b 	stmdbcc	fp, {r0, r1, r3, r8, r9, fp, ip, sp}
     ed0:	0213490b 	andseq	r4, r3, #180224	; 0x2c000
     ed4:	1742b717 	smlaldne	fp, r2, r7, r7
     ed8:	340c0000 	strcc	r0, [ip], #-0
     edc:	3a080300 	bcc	201ae4 <__bss_end__+0x1f85d4>
     ee0:	390b3b0b 	stmdbcc	fp, {r0, r1, r3, r8, r9, fp, ip, sp}
     ee4:	0213490b 	andseq	r4, r3, #180224	; 0x2c000
     ee8:	1742b717 	smlaldne	fp, r2, r7, r7
     eec:	01000000 	mrseq	r0, (UNDEF: 0)
     ef0:	0e250111 	mcreq	1, 1, r0, cr5, cr1, {0}
     ef4:	0e030b13 	vmoveq.32	d3[0], r0
     ef8:	17550e1b 	smmlane	r5, fp, lr, r0
     efc:	17100111 			; <UNDEFINED> instruction: 0x17100111
     f00:	24020000 	strcs	r0, [r2], #-0
     f04:	3e0b0b00 	vmlacc.f64	d0, d11, d0
     f08:	0008030b 	andeq	r0, r8, fp, lsl #6
     f0c:	00160300 	andseq	r0, r6, r0, lsl #6
     f10:	0b3a0e03 	bleq	e84724 <__bss_end__+0xe7b214>
     f14:	0b390b3b 	bleq	e43c08 <__bss_end__+0xe3a6f8>
     f18:	00001349 	andeq	r1, r0, r9, asr #6
     f1c:	0b002404 	bleq	9f34 <__bss_end__+0xa24>
     f20:	030b3e0b 	movweq	r3, #48651	; 0xbe0b
     f24:	0500000e 	streq	r0, [r0, #-14]
     f28:	13490026 	movtne	r0, #36902	; 0x9026
     f2c:	15060000 	strne	r0, [r6, #-0]
     f30:	49192701 	ldmdbmi	r9, {r0, r8, r9, sl, sp}
     f34:	00130113 	andseq	r0, r3, r3, lsl r1
     f38:	00050700 	andeq	r0, r5, r0, lsl #14
     f3c:	00001349 	andeq	r1, r0, r9, asr #6
     f40:	03003408 	movweq	r3, #1032	; 0x408
     f44:	3b0b3a0e 	blcc	2cf784 <__bss_end__+0x2c6274>
     f48:	490b390b 	stmdbmi	fp, {r0, r1, r3, r8, fp, ip, sp}
     f4c:	3c193f13 	ldccc	15, cr3, [r9], {19}
     f50:	09000019 	stmdbeq	r0, {r0, r3, r4}
     f54:	0b0b000f 	bleq	2c0f98 <__bss_end__+0x2b7a88>
     f58:	00001349 	andeq	r1, r0, r9, asr #6
     f5c:	3f012e0a 	svccc	0x00012e0a
     f60:	3a0e0319 	bcc	381bcc <__bss_end__+0x3786bc>
     f64:	390b3b0b 	stmdbcc	fp, {r0, r1, r3, r8, r9, fp, ip, sp}
     f68:	4919270b 	ldmdbmi	r9, {r0, r1, r3, r8, r9, sl, sp}
     f6c:	12011113 	andne	r1, r1, #-1073741820	; 0xc0000004
     f70:	97184006 	ldrls	r4, [r8, -r6]
     f74:	13011942 	movwne	r1, #6466	; 0x1942
     f78:	050b0000 	streq	r0, [fp, #-0]
     f7c:	3a080300 	bcc	201b84 <__bss_end__+0x1f8674>
     f80:	390b3b0b 	stmdbcc	fp, {r0, r1, r3, r8, r9, fp, ip, sp}
     f84:	0213490b 	andseq	r4, r3, #180224	; 0x2c000
     f88:	1742b717 	smlaldne	fp, r2, r7, r7
     f8c:	340c0000 	strcc	r0, [ip], #-0
     f90:	3a080300 	bcc	201b98 <__bss_end__+0x1f8688>
     f94:	390b3b0b 	stmdbcc	fp, {r0, r1, r3, r8, r9, fp, ip, sp}
     f98:	0213490b 	andseq	r4, r3, #180224	; 0x2c000
     f9c:	1742b717 	smlaldne	fp, r2, r7, r7
     fa0:	01000000 	mrseq	r0, (UNDEF: 0)
     fa4:	0e250111 	mcreq	1, 1, r0, cr5, cr1, {0}
     fa8:	0e030b13 	vmoveq.32	d3[0], r0
     fac:	01110e1b 	tsteq	r1, fp, lsl lr
     fb0:	17100612 			; <UNDEFINED> instruction: 0x17100612
     fb4:	24020000 	strcs	r0, [r2], #-0
     fb8:	3e0b0b00 	vmlacc.f64	d0, d11, d0
     fbc:	0008030b 	andeq	r0, r8, fp, lsl #6
     fc0:	00240300 	eoreq	r0, r4, r0, lsl #6
     fc4:	0b3e0b0b 	bleq	f83bf8 <__bss_end__+0xf7a6e8>
     fc8:	00000e03 	andeq	r0, r0, r3, lsl #28
     fcc:	27011504 	strcs	r1, [r1, -r4, lsl #10]
     fd0:	01134919 	tsteq	r3, r9, lsl r9
     fd4:	05000013 	streq	r0, [r0, #-19]	; 0xffffffed
     fd8:	13490005 	movtne	r0, #36869	; 0x9005
     fdc:	34060000 	strcc	r0, [r6], #-0
     fe0:	3a0e0300 	bcc	381be8 <__bss_end__+0x3786d8>
     fe4:	390b3b0b 	stmdbcc	fp, {r0, r1, r3, r8, r9, fp, ip, sp}
     fe8:	3f13490b 	svccc	0x0013490b
     fec:	00193c19 	andseq	r3, r9, r9, lsl ip
     ff0:	000f0700 	andeq	r0, pc, r0, lsl #14
     ff4:	13490b0b 	movtne	r0, #39691	; 0x9b0b
     ff8:	26080000 	strcs	r0, [r8], -r0
     ffc:	00134900 	andseq	r4, r3, r0, lsl #18
    1000:	002e0900 	eoreq	r0, lr, r0, lsl #18
    1004:	0e03193f 			; <UNDEFINED> instruction: 0x0e03193f
    1008:	0b3b0b3a 	bleq	ec3cf8 <__bss_end__+0xeba7e8>
    100c:	19270b39 	stmdbne	r7!, {r0, r3, r4, r5, r8, r9, fp}
    1010:	06120111 			; <UNDEFINED> instruction: 0x06120111
    1014:	42971840 	addsmi	r1, r7, #64, 16	; 0x400000
    1018:	00000019 	andeq	r0, r0, r9, lsl r0
    101c:	25011101 	strcs	r1, [r1, #-257]	; 0xfffffeff
    1020:	030b130e 	movweq	r1, #45838	; 0xb30e
    1024:	110e1b0e 	tstne	lr, lr, lsl #22
    1028:	10061201 	andne	r1, r6, r1, lsl #4
    102c:	02000017 	andeq	r0, r0, #23, 0
    1030:	0b0b0024 	bleq	2c10c8 <__bss_end__+0x2b7bb8>
    1034:	08030b3e 	stmdaeq	r3, {r1, r2, r3, r4, r5, r8, r9, fp}
    1038:	24030000 	strcs	r0, [r3], #-0
    103c:	3e0b0b00 	vmlacc.f64	d0, d11, d0
    1040:	000e030b 	andeq	r0, lr, fp, lsl #6
    1044:	00260400 	eoreq	r0, r6, r0, lsl #8
    1048:	00001349 	andeq	r1, r0, r9, asr #6
    104c:	03001605 	movweq	r1, #1541	; 0x605
    1050:	3b0b3a0e 	blcc	2cf890 <__bss_end__+0x2c6380>
    1054:	490b390b 	stmdbmi	fp, {r0, r1, r3, r8, fp, ip, sp}
    1058:	06000013 			; <UNDEFINED> instruction: 0x06000013
    105c:	0b3e0104 	bleq	f81474 <__bss_end__+0xf77f64>
    1060:	13490b0b 	movtne	r0, #39691	; 0x9b0b
    1064:	0b3b0b3a 	bleq	ec3d54 <__bss_end__+0xeba844>
    1068:	13010b39 	movwne	r0, #6969	; 0x1b39
    106c:	28070000 	stmdacs	r7, {}	; <UNPREDICTABLE>
    1070:	1c0e0300 	stcne	3, cr0, [lr], {-0}
    1074:	0800000b 	stmdaeq	r0, {r0, r1, r3}
    1078:	0e030034 	mcreq	0, 0, r0, cr3, cr4, {1}
    107c:	0b3b0b3a 	bleq	ec3d6c <__bss_end__+0xeba85c>
    1080:	13490b39 	movtne	r0, #39737	; 0x9b39
    1084:	0000061c 	andeq	r0, r0, ip, lsl r6
    1088:	3f012e09 	svccc	0x00012e09
    108c:	3a0e0319 	bcc	381cf8 <__bss_end__+0x3787e8>
    1090:	390b3b0b 	stmdbcc	fp, {r0, r1, r3, r8, r9, fp, ip, sp}
    1094:	4919270b 	ldmdbmi	r9, {r0, r1, r3, r8, r9, sl, sp}
    1098:	12011113 	andne	r1, r1, #-1073741820	; 0xc0000004
    109c:	97184006 	ldrls	r4, [r8, -r6]
    10a0:	13011942 	movwne	r1, #6466	; 0x1942
    10a4:	050a0000 	streq	r0, [sl, #-0]
    10a8:	3a080300 	bcc	201cb0 <__bss_end__+0x1f87a0>
    10ac:	390b3b0b 	stmdbcc	fp, {r0, r1, r3, r8, r9, fp, ip, sp}
    10b0:	0213490b 	andseq	r4, r3, #180224	; 0x2c000
    10b4:	1742b717 	smlaldne	fp, r2, r7, r7
    10b8:	340b0000 	strcc	r0, [fp], #-0
    10bc:	3a0e0300 	bcc	381cc4 <__bss_end__+0x3787b4>
    10c0:	390b3b0b 	stmdbcc	fp, {r0, r1, r3, r8, r9, fp, ip, sp}
    10c4:	0213490b 	andseq	r4, r3, #180224	; 0x2c000
    10c8:	1742b717 	smlaldne	fp, r2, r7, r7
    10cc:	340c0000 	strcc	r0, [ip], #-0
    10d0:	3a080300 	bcc	201cd8 <__bss_end__+0x1f87c8>
    10d4:	390b3b0b 	stmdbcc	fp, {r0, r1, r3, r8, r9, fp, ip, sp}
    10d8:	0213490b 	andseq	r4, r3, #180224	; 0x2c000
    10dc:	1742b717 	smlaldne	fp, r2, r7, r7
    10e0:	890d0000 	stmdbhi	sp, {}	; <UNPREDICTABLE>
    10e4:	11010182 	smlabbne	r1, r2, r1, r0
    10e8:	00133101 	andseq	r3, r3, r1, lsl #2
    10ec:	828a0e00 	addhi	r0, sl, #0, 28
    10f0:	18020001 	stmdane	r2, {r0}
    10f4:	00184291 	mulseq	r8, r1, r2
    10f8:	012e0f00 			; <UNDEFINED> instruction: 0x012e0f00
    10fc:	0e03193f 			; <UNDEFINED> instruction: 0x0e03193f
    1100:	0b3b0b3a 	bleq	ec3df0 <__bss_end__+0xeba8e0>
    1104:	19270b39 	stmdbne	r7!, {r0, r3, r4, r5, r8, r9, fp}
    1108:	06120111 			; <UNDEFINED> instruction: 0x06120111
    110c:	42971840 	addsmi	r1, r7, #64, 16	; 0x400000
    1110:	00130119 	andseq	r0, r3, r9, lsl r1
    1114:	82891000 	addhi	r1, r9, #0, 0
    1118:	01110101 	tsteq	r1, r1, lsl #2
    111c:	13011331 	movwne	r1, #4913	; 0x1331
    1120:	89110000 	ldmdbhi	r1, {}	; <UNPREDICTABLE>
    1124:	11000182 	smlabbne	r0, r2, r1, r0
    1128:	00133101 	andseq	r3, r3, r1, lsl #2
    112c:	00051200 	andeq	r1, r5, r0, lsl #4
    1130:	0b3a0e03 	bleq	e84944 <__bss_end__+0xe7b434>
    1134:	0b390b3b 	bleq	e43e28 <__bss_end__+0xe3a918>
    1138:	17021349 	strne	r1, [r2, -r9, asr #6]
    113c:	001742b7 			; <UNDEFINED> instruction: 0x001742b7
    1140:	012e1300 			; <UNDEFINED> instruction: 0x012e1300
    1144:	0b3a0e03 	bleq	e84958 <__bss_end__+0xe7b448>
    1148:	0b390b3b 	bleq	e43e3c <__bss_end__+0xe3a92c>
    114c:	13491927 	movtne	r1, #39207	; 0x9927
    1150:	13010b20 	movwne	r0, #6944	; 0x1b20
    1154:	05140000 	ldreq	r0, [r4, #-0]
    1158:	3a080300 	bcc	201d60 <__bss_end__+0x1f8850>
    115c:	390b3b0b 	stmdbcc	fp, {r0, r1, r3, r8, r9, fp, ip, sp}
    1160:	0013490b 	andseq	r4, r3, fp, lsl #18
    1164:	002e1500 	eoreq	r1, lr, r0, lsl #10
    1168:	193c193f 	ldmdbne	ip!, {r0, r1, r2, r3, r4, r5, r8, fp, ip}
    116c:	0e030e6e 	cdpeq	14, 0, cr0, cr3, cr14, {3}
    1170:	0b3b0b3a 	bleq	ec3e60 <__bss_end__+0xeba950>
    1174:	00000b39 	andeq	r0, r0, r9, lsr fp
	...

Disassembly of section .debug_loc:

00000000 <.debug_loc>:
       0:	00000002 	andeq	r0, r0, r2
       4:	00000084 	andeq	r0, r0, r4, lsl #1
       8:	00000088 	andeq	r0, r0, r8, lsl #1
       c:	9f300002 	svcls	0x00300002
      10:	00000088 	andeq	r0, r0, r8, lsl #1
      14:	000000c0 	andeq	r0, r0, r0, asr #1
      18:	00540001 	subseq	r0, r4, r1
	...
      24:	00004c00 	andeq	r4, r0, r0, lsl #24
      28:	00006000 	andeq	r6, r0, r0
      2c:	51000100 	mrspl	r0, (UNDEF: 16)
	...
      38:	00580000 	subseq	r0, r8, r0
      3c:	005c0000 	subseq	r0, ip, r0
      40:	00010000 	andeq	r0, r1, r0
      44:	00000053 	andeq	r0, r0, r3, asr r0
	...
      50:	14000000 	strne	r0, [r0], #-0
      54:	20000000 	andcs	r0, r0, r0
      58:	01000000 	mrseq	r0, (UNDEF: 0)
      5c:	00205000 	eoreq	r5, r0, r0
      60:	00230000 	eoreq	r0, r3, r0
      64:	00010000 	andeq	r0, r1, r0
      68:	00002351 	andeq	r2, r0, r1, asr r3
      6c:	00002c00 	andeq	r2, r0, r0, lsl #24
      70:	f3000400 	vshl.u8	d0, d0, d0
      74:	009f5001 	addseq	r5, pc, r1
	...
      84:	00002c00 	andeq	r2, r0, r0, lsl #24
      88:	00003800 	andeq	r3, r0, r0, lsl #16
      8c:	50000100 	andpl	r0, r0, r0, lsl #2
      90:	00000038 	andeq	r0, r0, r8, lsr r0
      94:	00000048 	andeq	r0, r0, r8, asr #32
      98:	48540001 	ldmdami	r4, {r0}^
      9c:	58000000 	stmdapl	r0, {}	; <UNPREDICTABLE>
      a0:	01000000 	mrseq	r0, (UNDEF: 0)
      a4:	00005000 	andeq	r5, r0, r0
      a8:	00000000 	andeq	r0, r0, r0
      ac:	01000000 	mrseq	r0, (UNDEF: 0)
      b0:	00000001 	andeq	r0, r0, r1
      b4:	00080000 	andeq	r0, r8, r0
      b8:	00010000 	andeq	r0, r1, r0
      bc:	00000850 	andeq	r0, r0, r0, asr r8
      c0:	00003400 	andeq	r3, r0, r0, lsl #8
      c4:	54000100 	strpl	r0, [r0], #-256	; 0xffffff00
	...
      d4:	02880000 	addeq	r0, r8, #0, 0
      d8:	02b80000 	adcseq	r0, r8, #0, 0
      dc:	00010000 	andeq	r0, r1, r0
      e0:	0002b850 	andeq	fp, r2, r0, asr r8
      e4:	00070400 	andeq	r0, r7, r0, lsl #8
      e8:	59000100 	stmdbpl	r0, {r8}
      ec:	00000704 	andeq	r0, r0, r4, lsl #14
      f0:	00000740 	andeq	r0, r0, r0, asr #14
      f4:	01f30004 	mvnseq	r0, r4
      f8:	00009f50 	andeq	r9, r0, r0, asr pc
	...
     108:	00000288 	andeq	r0, r0, r8, lsl #5
     10c:	000002a0 	andeq	r0, r0, r0, lsr #5
     110:	a0510001 	subsge	r0, r1, r1
     114:	b8000002 	stmdalt	r0, {r1}
     118:	03000002 	movweq	r0, #2
     11c:	9f017100 	svcls	0x00017100
     120:	000002b8 			; <UNDEFINED> instruction: 0x000002b8
     124:	00000740 	andeq	r0, r0, r0, asr #14
     128:	01f30004 	mvnseq	r0, r4
     12c:	00009f51 	andeq	r9, r0, r1, asr pc
	...
     140:	02880000 	addeq	r0, r8, #0, 0
     144:	02b80000 	adcseq	r0, r8, #0, 0
     148:	00010000 	andeq	r0, r1, r0
     14c:	0002b852 	andeq	fp, r2, r2, asr r8
     150:	0003ec00 	andeq	lr, r3, r0, lsl #24
     154:	56000100 	strpl	r0, [r0], -r0, lsl #2
     158:	000003ec 	andeq	r0, r0, ip, ror #7
     15c:	000004b8 			; <UNDEFINED> instruction: 0x000004b8
     160:	b85b0001 	ldmdalt	fp, {r0}^
     164:	d8000004 	stmdale	r0, {r2}
     168:	01000004 	tsteq	r0, r4
     16c:	04d85600 	ldrbeq	r5, [r8], #1536	; 0x600
     170:	055c0000 	ldrbeq	r0, [ip, #-0]
     174:	00010000 	andeq	r0, r1, r0
     178:	00055c5b 	andeq	r5, r5, fp, asr ip
     17c:	00070400 	andeq	r0, r7, r0, lsl #8
     180:	56000100 	strpl	r0, [r0], -r0, lsl #2
	...
     18c:	00000001 	andeq	r0, r0, r1
     190:	01000000 	mrseq	r0, (UNDEF: 0)
     194:	00000001 	andeq	r0, r0, r1
     198:	02000000 	andeq	r0, r0, #0, 0
     19c:	00000002 	andeq	r0, r0, r2
     1a0:	0000029c 	muleq	r0, ip, r2
     1a4:	000002b8 			; <UNDEFINED> instruction: 0x000002b8
     1a8:	b8500001 	ldmdalt	r0, {r0}^
     1ac:	bc000002 	stclt	0, cr0, [r0], {2}
     1b0:	01000002 	tsteq	r0, r2
     1b4:	02bc5400 	adcseq	r5, ip, #0, 8
     1b8:	02c00000 	sbceq	r0, r0, #0, 0
     1bc:	00030000 	andeq	r0, r3, r0
     1c0:	c09f0174 	addsgt	r0, pc, r4, ror r1	; <UNPREDICTABLE>
     1c4:	e4000002 	str	r0, [r0], #-2
     1c8:	01000002 	tsteq	r0, r2
     1cc:	02e45400 	rsceq	r5, r4, #0, 8
     1d0:	02e80000 	rsceq	r0, r8, #0, 0
     1d4:	00030000 	andeq	r0, r3, r0
     1d8:	e89f0174 	ldm	pc, {r2, r4, r5, r6, r8}	; <UNPREDICTABLE>
     1dc:	d4000002 	strle	r0, [r0], #-2
     1e0:	01000006 	tsteq	r0, r6
     1e4:	06d45400 	ldrbeq	r5, [r4], r0, lsl #8
     1e8:	06d80000 	ldrbeq	r0, [r8], r0
     1ec:	00030000 	andeq	r0, r3, r0
     1f0:	d89f0174 	ldmle	pc, {r2, r4, r5, r6, r8}	; <UNPREDICTABLE>
     1f4:	f0000006 			; <UNDEFINED> instruction: 0xf0000006
     1f8:	01000006 	tsteq	r0, r6
     1fc:	06f05400 	ldrbteq	r5, [r0], r0, lsl #8
     200:	06f80000 	ldrbteq	r0, [r8], r0
     204:	00030000 	andeq	r0, r3, r0
     208:	f89f0174 			; <UNDEFINED> instruction: 0xf89f0174
     20c:	04000006 	streq	r0, [r0], #-6
     210:	01000007 	tsteq	r0, r7
     214:	00005400 	andeq	r5, r0, r0, lsl #8
	...
     220:	02a40000 	adceq	r0, r4, #0, 0
     224:	07040000 	streq	r0, [r4, -r0]
     228:	00010000 	andeq	r0, r1, r0
     22c:	00070458 	andeq	r0, r7, r8, asr r4
     230:	00074000 	andeq	r4, r7, r0
     234:	f3000a00 	vpmax.u8	d0, d0, d0
     238:	01f35101 	mvnseq	r5, r1, lsl #2
     23c:	1c312250 	lfmne	f2, 4, [r1], #-320	; 0xfffffec0
     240:	0000009f 	muleq	r0, pc, r0	; <UNPREDICTABLE>
     244:	00000000 	andeq	r0, r0, r0
     248:	00000100 	andeq	r0, r0, r0, lsl #2
     24c:	08000000 	stmdaeq	r0, {}	; <UNPREDICTABLE>
     250:	74000004 	strvc	r0, [r0], #-4
     254:	01000004 	tsteq	r0, r4
     258:	04d85700 	ldrbeq	r5, [r8], #1792	; 0x700
     25c:	04fc0000 	ldrbteq	r0, [ip], #0
     260:	00010000 	andeq	r0, r1, r0
     264:	00054057 	andeq	r4, r5, r7, asr r0
     268:	00055c00 	andeq	r5, r5, r0, lsl #24
     26c:	57000100 	strpl	r0, [r0, -r0, lsl #2]
	...
     278:	00000002 	andeq	r0, r0, r2
     27c:	00000408 	andeq	r0, r0, r8, lsl #8
     280:	000004b8 			; <UNDEFINED> instruction: 0x000004b8
     284:	d85a0001 	ldmdale	sl, {r0}^
     288:	5c000004 	stcpl	0, cr0, [r0], {4}
     28c:	01000005 	tsteq	r0, r5
     290:	00005a00 	andeq	r5, r0, r0, lsl #20
     294:	00000000 	andeq	r0, r0, r0
     298:	00010000 	andeq	r0, r1, r0
     29c:	02ac0000 	adceq	r0, ip, #0, 0
     2a0:	02b80000 	adcseq	r0, r8, #0, 0
     2a4:	00010000 	andeq	r0, r1, r0
     2a8:	0002b852 	andeq	fp, r2, r2, asr r8
     2ac:	00074000 	andeq	r4, r7, r0
     2b0:	91000300 	mrsls	r0, LR_irq
     2b4:	00007dc8 	andeq	r7, r0, r8, asr #27
	...
     2c4:	01000000 	mrseq	r0, (UNDEF: 0)
     2c8:	00000001 	andeq	r0, r0, r1
	...
     2d4:	00000474 	andeq	r0, r0, r4, ror r4
     2d8:	0000048c 	andeq	r0, r0, ip, lsl #9
     2dc:	8c500001 	mrrchi	0, 0, r0, r0, cr1	; <UNPREDICTABLE>
     2e0:	b8000004 	stmdalt	r0, {r2}
     2e4:	01000004 	tsteq	r0, r4
     2e8:	04fc5700 	ldrbteq	r5, [ip], #1792	; 0x700
     2ec:	05140000 	ldreq	r0, [r4, #-0]
     2f0:	00010000 	andeq	r0, r1, r0
     2f4:	00051450 	andeq	r1, r5, r0, asr r4
     2f8:	00054000 	andeq	r4, r5, r0
     2fc:	57000100 	strpl	r0, [r0, -r0, lsl #2]
     300:	000005a4 	andeq	r0, r0, r4, lsr #11
     304:	000005a4 	andeq	r0, r0, r4, lsr #11
     308:	a4500001 	ldrbge	r0, [r0], #-1
     30c:	ac000005 	stcge	0, cr0, [r0], {5}
     310:	01000005 	tsteq	r0, r5
     314:	05dc5700 	ldrbeq	r5, [ip, #1792]	; 0x700
     318:	05e00000 	strbeq	r0, [r0, #0]!
     31c:	00010000 	andeq	r0, r1, r0
     320:	00061050 	andeq	r1, r6, r0, asr r0
     324:	00061400 	andeq	r1, r6, r0, lsl #8
     328:	50000100 	andpl	r0, r0, r0, lsl #2
     32c:	00000644 	andeq	r0, r0, r4, asr #12
     330:	00000648 	andeq	r0, r0, r8, asr #12
     334:	8c500001 	mrrchi	0, 0, r0, r0, cr1	; <UNPREDICTABLE>
     338:	90000006 	andls	r0, r0, r6
     33c:	01000006 	tsteq	r0, r6
     340:	06d05000 	ldrbeq	r5, [r0], r0
     344:	06f00000 	ldrbteq	r0, [r0], r0
     348:	00010000 	andeq	r0, r1, r0
     34c:	00000057 	andeq	r0, r0, r7, asr r0
     350:	00000000 	andeq	r0, r0, r0
     354:	00000200 	andeq	r0, r0, r0, lsl #4
     358:	f4000000 	vst4.8	{d0-d3}, [r0], r0
     35c:	f8000002 			; <UNDEFINED> instruction: 0xf8000002
     360:	02000002 	andeq	r0, r0, #2, 0
     364:	f89f3000 			; <UNDEFINED> instruction: 0xf89f3000
     368:	14000002 	strne	r0, [r0], #-2
     36c:	01000003 	tsteq	r0, r3
     370:	031c5500 	tsteq	ip, #0, 10
     374:	06f00000 	ldrbteq	r0, [r0], r0
     378:	00010000 	andeq	r0, r1, r0
     37c:	00000055 	andeq	r0, r0, r5, asr r0
     380:	00000000 	andeq	r0, r0, r0
     384:	00000100 	andeq	r0, r0, r0, lsl #2
     388:	00000000 	andeq	r0, r0, r0
     38c:	b8000000 	stmdalt	r0, {}	; <UNPREDICTABLE>
     390:	54000003 	strpl	r0, [r0], #-3
     394:	01000004 	tsteq	r0, r4
     398:	04545600 	ldrbeq	r5, [r4], #-1536	; 0xfffffa00
     39c:	04b80000 	ldrteq	r0, [r8], #0
     3a0:	00030000 	andeq	r0, r3, r0
     3a4:	b89f7e7b 	ldmlt	pc, {r0, r1, r3, r4, r5, r6, r9, sl, fp, ip, sp, lr}	; <UNPREDICTABLE>
     3a8:	dc000004 	stcle	0, cr0, [r0], {4}
     3ac:	01000004 	tsteq	r0, r4
     3b0:	04dc5600 	ldrbeq	r5, [ip], #1536	; 0x600
     3b4:	05400000 	strbeq	r0, [r0, #-0]
     3b8:	00030000 	andeq	r0, r3, r0
     3bc:	409f7e7b 	addsmi	r7, pc, fp, ror lr	; <UNPREDICTABLE>
     3c0:	5c000005 	stcpl	0, cr0, [r0], {5}
     3c4:	01000005 	tsteq	r0, r5
     3c8:	00005600 	andeq	r5, r0, r0, lsl #12
	...
     3d8:	00000070 	andeq	r0, r0, r0, ror r0
     3dc:	00000094 	muleq	r0, r4, r0
     3e0:	94500001 	ldrbls	r0, [r0], #-1
     3e4:	fc000000 	stc2	0, cr0, [r0], {-0}
     3e8:	03000000 	movweq	r0, #0
     3ec:	9f027000 	svcls	0x00027000
     3f0:	000000fc 	strdeq	r0, [r0], -ip
     3f4:	00000224 	andeq	r0, r0, r4, lsr #4
     3f8:	01f30004 	mvnseq	r0, r4
     3fc:	00009f50 	andeq	r9, r0, r0, asr pc
	...
     414:	00700000 	rsbseq	r0, r0, r0
     418:	00e00000 	rsceq	r0, r0, r0
     41c:	00010000 	andeq	r0, r1, r0
     420:	0000e051 	andeq	lr, r0, r1, asr r0
     424:	00015400 	andeq	r5, r1, r0, lsl #8
     428:	55000100 	strpl	r0, [r0, #-256]	; 0xffffff00
     42c:	00000154 	andeq	r0, r0, r4, asr r1
     430:	00000158 	andeq	r0, r0, r8, asr r1
     434:	58510001 	ldmdapl	r1, {r0}^
     438:	b0000001 	andlt	r0, r0, r1
     43c:	01000001 	tsteq	r0, r1
     440:	01b05500 	lslseq	r5, r0, #10
     444:	01c00000 	biceq	r0, r0, r0
     448:	00010000 	andeq	r0, r1, r0
     44c:	0001c051 	andeq	ip, r1, r1, asr r0
     450:	0001e400 	andeq	lr, r1, r0, lsl #8
     454:	55000100 	strpl	r0, [r0, #-256]	; 0xffffff00
     458:	000001e4 	andeq	r0, r0, r4, ror #3
     45c:	000001f8 	strdeq	r0, [r0], -r8
     460:	f8510001 			; <UNDEFINED> instruction: 0xf8510001
     464:	24000001 	strcs	r0, [r0], #-1
     468:	01000002 	tsteq	r0, r2
     46c:	00005500 	andeq	r5, r0, r0, lsl #10
	...
     478:	00700000 	rsbseq	r0, r0, r0
     47c:	00840000 	addeq	r0, r4, r0
     480:	00010000 	andeq	r0, r1, r0
     484:	00008452 	andeq	r8, r0, r2, asr r4
     488:	00022400 	andeq	r2, r2, r0, lsl #8
     48c:	54000100 	strpl	r0, [r0], #-256	; 0xffffff00
	...
     49c:	00000100 	andeq	r0, r0, r0, lsl #2
     4a0:	00000000 	andeq	r0, r0, r0
     4a4:	00000070 	andeq	r0, r0, r0, ror r0
     4a8:	000000f4 	strdeq	r0, [r0], -r4
     4ac:	4c530001 	mrrcmi	0, 0, r0, r3, cr1
     4b0:	80000001 	andhi	r0, r0, r1
     4b4:	01000001 	tsteq	r0, r1
     4b8:	01805300 	orreq	r5, r0, r0, lsl #6
     4bc:	018c0000 	orreq	r0, ip, r0
     4c0:	00040000 	andeq	r0, r4, r0
     4c4:	9f5301f3 	svcls	0x005301f3
     4c8:	000001b0 			; <UNDEFINED> instruction: 0x000001b0
     4cc:	000001e8 	andeq	r0, r0, r8, ror #3
     4d0:	e8530001 	ldmda	r3, {r0}^
     4d4:	ff000001 			; <UNDEFINED> instruction: 0xff000001
     4d8:	01000001 	tsteq	r0, r1
     4dc:	01ff5c00 	mvnseq	r5, r0, lsl #24
     4e0:	02240000 	eoreq	r0, r4, #0, 0
     4e4:	00040000 	andeq	r0, r4, r0
     4e8:	9f5301f3 	svcls	0x005301f3
	...
     4f8:	00700000 	rsbseq	r0, r0, r0
     4fc:	008c0000 	addeq	r0, ip, r0
     500:	00020000 	andeq	r0, r2, r0
     504:	008c0091 	umulleq	r0, ip, r1, r0
     508:	01930000 	orrseq	r0, r3, r0
     50c:	00010000 	andeq	r0, r1, r0
     510:	0001b052 	andeq	fp, r1, r2, asr r0
     514:	0001f400 	andeq	pc, r1, r0, lsl #8
     518:	52000100 	andpl	r0, r0, #0
	...
     524:	01000001 	tsteq	r0, r1
     528:	00000001 	andeq	r0, r0, r1
     52c:	00000000 	andeq	r0, r0, r0
     530:	01010100 	mrseq	r0, (UNDEF: 17)
     534:	01000001 	tsteq	r0, r1
     538:	00000001 	andeq	r0, r0, r1
	...
     544:	0000008c 	andeq	r0, r0, ip, lsl #1
     548:	000000fc 	strdeq	r0, [r0], -ip
     54c:	a0910004 	addsge	r0, r1, r4
     550:	00fc9f7f 	rscseq	r9, ip, pc, ror pc
     554:	013c0000 	teqeq	ip, r0
     558:	00010000 	andeq	r0, r1, r0
     55c:	00013c50 	andeq	r3, r1, r0, asr ip
     560:	00014800 	andeq	r4, r1, r0, lsl #16
     564:	71000300 	mrsvc	r0, LR_irq
     568:	01489f02 	cmpeq	r8, r2, lsl #30
     56c:	014c0000 	mrseq	r0, (UNDEF: 76)
     570:	00010000 	andeq	r0, r1, r0
     574:	00014c50 	andeq	r4, r1, r0, asr ip
     578:	00015800 	andeq	r5, r1, r0, lsl #16
     57c:	91000400 	tstls	r0, r0, lsl #8
     580:	589f7fa0 	ldmpl	pc, {r5, r7, r8, r9, sl, fp, ip, sp, lr}	; <UNPREDICTABLE>
     584:	6c000001 	stcvs	0, cr0, [r0], {1}
     588:	01000001 	tsteq	r0, r1
     58c:	016c5100 	cmneq	ip, r0, lsl #2
     590:	01780000 	cmneq	r8, r0
     594:	00030000 	andeq	r0, r3, r0
     598:	789f7f71 	ldmvc	pc, {r0, r4, r5, r6, r8, r9, sl, fp, ip, sp, lr}	; <UNPREDICTABLE>
     59c:	84000001 	strhi	r0, [r0], #-1
     5a0:	03000001 	movweq	r0, #1
     5a4:	9f017100 	svcls	0x00017100
     5a8:	00000184 	andeq	r0, r0, r4, lsl #3
     5ac:	00000193 	muleq	r0, r3, r1
     5b0:	b0500001 	subslt	r0, r0, r1
     5b4:	b0000001 	andlt	r0, r0, r1
     5b8:	04000001 	streq	r0, [r0], #-1
     5bc:	7fa09100 	svcvc	0x00a09100
     5c0:	0001b09f 	muleq	r1, pc, r0	; <UNPREDICTABLE>
     5c4:	0001b800 	andeq	fp, r1, r0, lsl #16
     5c8:	91000400 	tstls	r0, r0, lsl #8
     5cc:	b89f7fa1 	ldmlt	pc, {r0, r5, r7, r8, r9, sl, fp, ip, sp, lr}	; <UNPREDICTABLE>
     5d0:	bc000001 	stclt	0, cr0, [r0], {1}
     5d4:	01000001 	tsteq	r0, r1
     5d8:	01bc5000 			; <UNDEFINED> instruction: 0x01bc5000
     5dc:	01c00000 	biceq	r0, r0, r0
     5e0:	00040000 	andeq	r0, r4, r0
     5e4:	9f7fa091 	svcls	0x007fa091
     5e8:	000001c0 	andeq	r0, r0, r0, asr #3
     5ec:	000001d4 	ldrdeq	r0, [r0], -r4
     5f0:	d4500001 	ldrble	r0, [r0], #-1
     5f4:	e4000001 	str	r0, [r0], #-1
     5f8:	03000001 	movweq	r0, #1
     5fc:	9f7f7000 	svcls	0x007f7000
     600:	000001e4 	andeq	r0, r0, r4, ror #3
     604:	00000224 	andeq	r0, r0, r4, lsr #4
     608:	a0910004 	addsge	r0, r1, r4
     60c:	00009f7f 	andeq	r9, r0, pc, ror pc
	...
     618:	00010100 	andeq	r0, r1, r0, lsl #2
	...
     628:	00900000 	addseq	r0, r0, r0
     62c:	00dc0000 	sbcseq	r0, ip, r0
     630:	00010000 	andeq	r0, r1, r0
     634:	0000dc5c 	andeq	sp, r0, ip, asr ip
     638:	0000f400 	andeq	pc, r0, r0, lsl #8
     63c:	53000100 	movwpl	r0, #256	; 0x100
     640:	000000f4 	strdeq	r0, [r0], -r4
     644:	0000014c 	andeq	r0, r0, ip, asr #2
     648:	4c5c0001 	mrrcmi	0, 0, r0, ip, cr1
     64c:	58000001 	stmdapl	r0, {r0}
     650:	01000001 	tsteq	r0, r1
     654:	01585300 	cmpeq	r8, r0, lsl #6
     658:	01740000 	cmneq	r4, r0
     65c:	00010000 	andeq	r0, r1, r0
     660:	0001b05c 	andeq	fp, r1, ip, asr r0
     664:	0001c000 	andeq	ip, r1, r0
     668:	53000100 	movwpl	r0, #256	; 0x100
     66c:	000001c0 	andeq	r0, r0, r0, asr #3
     670:	000001dc 	ldrdeq	r0, [r0], -ip
     674:	e45c0001 	ldrb	r0, [ip], #-1
     678:	e8000001 	stmda	r0, {r0}
     67c:	01000001 	tsteq	r0, r1
     680:	01e85300 	mvneq	r5, r0, lsl #6
     684:	01ff0000 	mvnseq	r0, r0
     688:	00010000 	andeq	r0, r1, r0
     68c:	0001ff5c 	andeq	pc, r1, ip, asr pc	; <UNPREDICTABLE>
     690:	00022400 	andeq	r2, r2, r0, lsl #8
     694:	f3000400 	vshl.u8	d0, d0, d0
     698:	009f5301 	addseq	r5, pc, r1, lsl #6
     69c:	00000000 	andeq	r0, r0, r0
     6a0:	01000000 	mrseq	r0, (UNDEF: 0)
     6a4:	00000101 	andeq	r0, r0, r1, lsl #2
     6a8:	dc000000 	stcle	0, cr0, [r0], {-0}
     6ac:	f0000000 			; <UNDEFINED> instruction: 0xf0000000
     6b0:	02000000 	andeq	r0, r0, #0, 0
     6b4:	f09f3000 			; <UNDEFINED> instruction: 0xf09f3000
     6b8:	f8000000 			; <UNDEFINED> instruction: 0xf8000000
     6bc:	02000000 	andeq	r0, r0, #0, 0
     6c0:	fc9f3100 	ldc2	1, cr3, [pc], {0}
     6c4:	4c000000 	stcmi	0, cr0, [r0], {-0}
     6c8:	01000001 	tsteq	r0, r1
     6cc:	014c5600 	cmpeq	ip, r0, lsl #12
     6d0:	01540000 	cmpeq	r4, r0
     6d4:	00020000 	andeq	r0, r2, r0
     6d8:	00009f30 	andeq	r9, r0, r0, lsr pc
	...
     6e4:	00010100 	andeq	r0, r1, r0, lsl #2
     6e8:	00010100 	andeq	r0, r1, r0, lsl #2
     6ec:	00000038 	andeq	r0, r0, r8, lsr r0
     6f0:	00000054 	andeq	r0, r0, r4, asr r0
     6f4:	54500001 	ldrbpl	r0, [r0], #-1
     6f8:	58000000 	stmdapl	r0, {}	; <UNPREDICTABLE>
     6fc:	01000000 	mrseq	r0, (UNDEF: 0)
     700:	00585200 	subseq	r5, r8, r0, lsl #4
     704:	00600000 	rsbeq	r0, r0, r0
     708:	00030000 	andeq	r0, r3, r0
     70c:	609f0172 	addsvs	r0, pc, r2, ror r1	; <UNPREDICTABLE>
     710:	64000000 	strvs	r0, [r0], #-0
     714:	01000000 	mrseq	r0, (UNDEF: 0)
     718:	00645200 	rsbeq	r5, r4, r0, lsl #4
     71c:	00700000 	rsbseq	r0, r0, r0
     720:	00030000 	andeq	r0, r3, r0
     724:	009f0172 	addseq	r0, pc, r2, ror r1	; <UNPREDICTABLE>
	...
     730:	38000000 	stmdacc	r0, {}	; <UNPREDICTABLE>
     734:	50000000 	andpl	r0, r0, r0
     738:	01000000 	mrseq	r0, (UNDEF: 0)
     73c:	00505100 	subseq	r5, r0, r0, lsl #2
     740:	00700000 	rsbseq	r0, r0, r0
     744:	00040000 	andeq	r0, r4, r0
     748:	9f5101f3 	svcls	0x005101f3
	...
     758:	00010100 	andeq	r0, r1, r0, lsl #2
     75c:	00000038 	andeq	r0, r0, r8, lsr r0
     760:	00000050 	andeq	r0, r0, r0, asr r0
     764:	50520001 	subspl	r0, r2, r1
     768:	5c000000 	stcpl	0, cr0, [r0], {-0}
     76c:	01000000 	mrseq	r0, (UNDEF: 0)
     770:	005c5100 	subseq	r5, ip, r0, lsl #2
     774:	00600000 	rsbeq	r0, r0, r0
     778:	00030000 	andeq	r0, r3, r0
     77c:	609f0171 	addsvs	r0, pc, r1, ror r1	; <UNPREDICTABLE>
     780:	70000000 	andvc	r0, r0, r0
     784:	01000000 	mrseq	r0, (UNDEF: 0)
     788:	00005100 	andeq	r5, r0, r0, lsl #2
	...
     794:	00380000 	eorseq	r0, r8, r0
     798:	004c0000 	subeq	r0, ip, r0
     79c:	00010000 	andeq	r0, r1, r0
     7a0:	00004c53 	andeq	r4, r0, r3, asr ip
     7a4:	00006800 	andeq	r6, r0, r0, lsl #16
     7a8:	53000100 	movwpl	r0, #256	; 0x100
	...
     7bc:	00000040 	andeq	r0, r0, r0, asr #32
     7c0:	00000048 	andeq	r0, r0, r8, asr #32
     7c4:	485c0001 	ldmdami	ip, {r0}^
     7c8:	4c000000 	stcmi	0, cr0, [r0], {-0}
     7cc:	08000000 	stmdaeq	r0, {}	; <UNPREDICTABLE>
     7d0:	73007200 	movwvc	r7, #512	; 0x200
     7d4:	01231c00 			; <UNDEFINED> instruction: 0x01231c00
     7d8:	00004c9f 	muleq	r0, pc, ip	; <UNPREDICTABLE>
     7dc:	00005400 	andeq	r5, r0, r0, lsl #8
     7e0:	72000900 	andvc	r0, r0, #0, 18
     7e4:	5301f300 	movwpl	pc, #4864	; 0x1300	; <UNPREDICTABLE>
     7e8:	9f01231c 	svcls	0x0001231c
     7ec:	00000054 	andeq	r0, r0, r4, asr r0
     7f0:	00000070 	andeq	r0, r0, r0, ror r0
     7f4:	01f3000a 	mvnseq	r0, sl
     7f8:	5301f352 	movwpl	pc, #4946	; 0x1352	; <UNPREDICTABLE>
     7fc:	9f01231c 	svcls	0x0001231c
	...
     808:	004c0001 	subeq	r0, ip, r1
     80c:	00700000 	rsbseq	r0, r0, r0
     810:	00010000 	andeq	r0, r1, r0
     814:	00000050 	andeq	r0, r0, r0, asr r0
     818:	00000000 	andeq	r0, r0, r0
     81c:	01010000 	mrseq	r0, (UNDEF: 1)
     820:	14000000 	strne	r0, [r0], #-0
     824:	1c000000 	stcne	0, cr0, [r0], {-0}
     828:	01000000 	mrseq	r0, (UNDEF: 0)
     82c:	001c5000 	andseq	r5, ip, r0
     830:	00240000 	eoreq	r0, r4, r0
     834:	00030000 	andeq	r0, r3, r0
     838:	249f0170 	ldrcs	r0, [pc], #368	; 840 <__code_start__-0x77c0>
     83c:	38000000 	stmdacc	r0, {}	; <UNPREDICTABLE>
     840:	01000000 	mrseq	r0, (UNDEF: 0)
     844:	00005000 	andeq	r5, r0, r0
	...
     850:	00140000 	andseq	r0, r4, r0
     854:	00180000 	andseq	r0, r8, r0
     858:	00010000 	andeq	r0, r1, r0
     85c:	00001851 	andeq	r1, r0, r1, asr r8
     860:	00003800 	andeq	r3, r0, r0, lsl #16
     864:	f3000400 	vshl.u8	d0, d0, d0
     868:	009f5101 	addseq	r5, pc, r1, lsl #2
	...
     874:	00001800 	andeq	r1, r0, r0, lsl #16
     878:	00003800 	andeq	r3, r0, r0, lsl #16
     87c:	51000100 	mrspl	r0, (UNDEF: 16)
	...
     890:	00040000 	andeq	r0, r4, r0
     894:	00010000 	andeq	r0, r1, r0
     898:	00000450 	andeq	r0, r0, r0, asr r4
     89c:	00000c00 	andeq	r0, r0, r0, lsl #24
     8a0:	70000300 	andvc	r0, r0, r0, lsl #6
     8a4:	000c9f30 	andeq	r9, ip, r0, lsr pc
     8a8:	00140000 	andseq	r0, r4, r0
     8ac:	00040000 	andeq	r0, r4, r0
     8b0:	9f5001f3 	svcls	0x005001f3
	...
     8c0:	00000224 	andeq	r0, r0, r4, lsr #4
     8c4:	00000268 	andeq	r0, r0, r8, ror #4
     8c8:	68500001 	ldmdavs	r0, {r0}^
     8cc:	88000002 	stmdahi	r0, {r1}
     8d0:	04000002 	streq	r0, [r0], #-2
     8d4:	5001f300 	andpl	pc, r1, r0, lsl #6
     8d8:	0000009f 	muleq	r0, pc, r0	; <UNPREDICTABLE>
	...
     8e4:	00022400 	andeq	r2, r2, r0, lsl #8
     8e8:	00026400 	andeq	r6, r2, r0, lsl #8
     8ec:	51000100 	mrspl	r0, (UNDEF: 16)
     8f0:	00000264 	andeq	r0, r0, r4, ror #4
     8f4:	00000288 	andeq	r0, r0, r8, lsl #5
     8f8:	01f30004 	mvnseq	r0, r4
     8fc:	00009f51 	andeq	r9, r0, r1, asr pc
     900:	00000000 	andeq	r0, r0, r0
     904:	01000000 	mrseq	r0, (UNDEF: 0)
     908:	00000001 	andeq	r0, r0, r1
     90c:	0000000c 	andeq	r0, r0, ip
     910:	00000014 	andeq	r0, r0, r4, lsl r0
     914:	14530001 	ldrbne	r0, [r3], #-1
     918:	1c000000 	stcne	0, cr0, [r0], {-0}
     91c:	03000000 	movweq	r0, #0
     920:	9f047300 	svcls	0x00047300
     924:	0000001c 	andeq	r0, r0, ip, lsl r0
     928:	00000023 	andeq	r0, r0, r3, lsr #32
     92c:	00530001 	subseq	r0, r3, r1
     930:	00000000 	andeq	r0, r0, r0
     934:	01000000 	mrseq	r0, (UNDEF: 0)
     938:	0089cc00 	addeq	ip, r9, r0, lsl #24
     93c:	0089e800 	addeq	lr, r9, r0, lsl #16
     940:	0c000600 	stceq	6, cr0, [r0], {-0}
     944:	2010001c 	andscs	r0, r0, ip, lsl r0
     948:	0000009f 	muleq	r0, pc, r0	; <UNPREDICTABLE>
     94c:	00000000 	andeq	r0, r0, r0
     950:	cc000200 	sfmgt	f0, 4, [r0], {-0}
     954:	e8000089 	stmda	r0, {r0, r3, r7}
     958:	06000089 	streq	r0, [r0], -r9, lsl #1
     95c:	00240c00 	eoreq	r0, r4, r0, lsl #24
     960:	009f2010 	addseq	r2, pc, r0, lsl r0	; <UNPREDICTABLE>
     964:	00000000 	andeq	r0, r0, r0
     968:	03000000 	movweq	r0, #0
     96c:	0089cc00 	addeq	ip, r9, r0, lsl #24
     970:	0089e800 	addeq	lr, r9, r0, lsl #16
     974:	08000500 	stmdaeq	r0, {r8, sl}
     978:	9f2447b4 	svcls	0x002447b4
	...
     984:	89cc0004 	stmibhi	ip, {r2}^
     988:	89e80000 	stmibhi	r8!, {}^	; <UNPREDICTABLE>
     98c:	00030000 	andeq	r0, r3, r0
     990:	009f2008 	addseq	r2, pc, r8
     994:	00000000 	andeq	r0, r0, r0
     998:	02000000 	andeq	r0, r0, #0, 0
     99c:	00000000 	andeq	r0, r0, r0
     9a0:	00899800 	addeq	r9, r9, r0, lsl #16
     9a4:	00899c00 	addeq	r9, r9, r0, lsl #24
     9a8:	30000200 	andcc	r0, r0, r0, lsl #4
     9ac:	00899c9f 	umulleq	r9, r9, pc, ip	; <UNPREDICTABLE>
     9b0:	0089a000 	addeq	sl, r9, r0
     9b4:	53000100 	movwpl	r0, #256	; 0x100
     9b8:	000089a4 	andeq	r8, r0, r4, lsr #19
     9bc:	000089ac 	andeq	r8, r0, ip, lsr #19
     9c0:	00530001 	subseq	r0, r3, r1
     9c4:	00000000 	andeq	r0, r0, r0
     9c8:	02000000 	andeq	r0, r0, #0, 0
     9cc:	80000000 	andhi	r0, r0, r0
     9d0:	84000089 	strhi	r0, [r0], #-137	; 0xffffff77
     9d4:	02000089 	andeq	r0, r0, #137, 0	; 0x89
     9d8:	849f3000 	ldrhi	r3, [pc], #0	; 9e0 <__code_start__-0x7620>
     9dc:	88000089 	stmdahi	r0, {r0, r3, r7}
     9e0:	01000089 	smlabbeq	r0, r9, r0, r0
     9e4:	00005000 	andeq	r5, r0, r0
	...
     9f0:	006c0000 	rsbeq	r0, ip, r0
     9f4:	00780000 	rsbseq	r0, r8, r0
     9f8:	00010000 	andeq	r0, r1, r0
     9fc:	00007850 	andeq	r7, r0, r0, asr r8
     a00:	00008400 	andeq	r8, r0, r0, lsl #8
     a04:	f3000400 	vshl.u8	d0, d0, d0
     a08:	009f5001 	addseq	r5, pc, r1
	...
     a14:	54000000 	strpl	r0, [r0], #-0
     a18:	60000000 	andvs	r0, r0, r0
     a1c:	01000000 	mrseq	r0, (UNDEF: 0)
     a20:	00605000 	rsbeq	r5, r0, r0
     a24:	006c0000 	rsbeq	r0, ip, r0
     a28:	00040000 	andeq	r0, r4, r0
     a2c:	9f5001f3 	svcls	0x005001f3
	...
     a3c:	00000030 	andeq	r0, r0, r0, lsr r0
     a40:	0000003b 	andeq	r0, r0, fp, lsr r0
     a44:	3b500001 	blcc	1400a50 <__bss_end__+0x13f7540>
     a48:	54000000 	strpl	r0, [r0], #-0
     a4c:	01000000 	mrseq	r0, (UNDEF: 0)
     a50:	00005500 	andeq	r5, r0, r0, lsl #10
	...
     a5c:	00000040 	andeq	r0, r0, r0, asr #32
     a60:	00000054 	andeq	r0, r0, r4, asr r0
     a64:	00540001 	subseq	r0, r4, r1
	...
     a70:	00004400 	andeq	r4, r0, r0, lsl #8
     a74:	00004800 	andeq	r4, r0, r0, lsl #16
     a78:	50000100 	andpl	r0, r0, r0, lsl #2
	...
     a88:	00000024 	andeq	r0, r0, r4, lsr #32
     a8c:	00000027 	andeq	r0, r0, r7, lsr #32
     a90:	27500001 	ldrbcs	r0, [r0, -r1]
     a94:	30000000 	andcc	r0, r0, r0
     a98:	01000000 	mrseq	r0, (UNDEF: 0)
     a9c:	00005400 	andeq	r5, r0, r0, lsl #8
	...
     aa8:	01580000 	cmpeq	r8, r0
     aac:	01630000 	cmneq	r3, r0
     ab0:	00010000 	andeq	r0, r1, r0
     ab4:	00016350 	andeq	r6, r1, r0, asr r3
     ab8:	00018800 	andeq	r8, r1, r0, lsl #16
     abc:	54000100 	strpl	r0, [r0], #-256	; 0xffffff00
	...
     ac8:	01480000 	mrseq	r0, (UNDEF: 72)
     acc:	01580000 	cmpeq	r8, r0
     ad0:	00010000 	andeq	r0, r1, r0
     ad4:	00000054 	andeq	r0, r0, r4, asr r0
	...
     ae4:	00000f00 	andeq	r0, r0, r0, lsl #30
     ae8:	50000100 	andpl	r0, r0, r0, lsl #2
     aec:	0000000f 	andeq	r0, r0, pc
     af0:	00000020 	andeq	r0, r0, r0, lsr #32
     af4:	00540001 	subseq	r0, r4, r1
	...
     b04:	0f000000 	svceq	0x00000000
     b08:	01000000 	mrseq	r0, (UNDEF: 0)
     b0c:	000f5100 	andeq	r5, pc, r0, lsl #2
     b10:	00200000 	eoreq	r0, r0, r0
     b14:	00010000 	andeq	r0, r1, r0
     b18:	00000055 	andeq	r0, r0, r5, asr r0
	...
     b24:	00002000 	andeq	r2, r0, r0
     b28:	00002f00 	andeq	r2, r0, r0, lsl #30
     b2c:	50000100 	andpl	r0, r0, r0, lsl #2
     b30:	0000002f 	andeq	r0, r0, pc, lsr #32
     b34:	00000040 	andeq	r0, r0, r0, asr #32
     b38:	00540001 	subseq	r0, r4, r1
	...
     b44:	20000000 	andcs	r0, r0, r0
     b48:	2f000000 	svccs	0x00000000
     b4c:	01000000 	mrseq	r0, (UNDEF: 0)
     b50:	002f5100 	eoreq	r5, pc, r0, lsl #2
     b54:	00400000 	subeq	r0, r0, r0
     b58:	00010000 	andeq	r0, r1, r0
     b5c:	00000055 	andeq	r0, r0, r5, asr r0
	...
     b6c:	00000b00 	andeq	r0, r0, r0, lsl #22
     b70:	50000100 	andpl	r0, r0, r0, lsl #2
     b74:	0000000b 	andeq	r0, r0, fp
     b78:	00000014 	andeq	r0, r0, r4, lsl r0
     b7c:	00540001 	subseq	r0, r4, r1
	...
     b8c:	1c000000 	stcne	0, cr0, [r0], {-0}
     b90:	01000000 	mrseq	r0, (UNDEF: 0)
     b94:	001c5100 	andseq	r5, ip, r0, lsl #2
     b98:	00340000 	eorseq	r0, r4, r0
     b9c:	00040000 	andeq	r0, r4, r0
     ba0:	9f5101f3 	svcls	0x005101f3
	...
     bac:	00000002 	andeq	r0, r0, r2
     bb0:	00010100 	andeq	r0, r1, r0, lsl #2
     bb4:	00000000 	andeq	r0, r0, r0
     bb8:	00040000 	andeq	r0, r4, r0
     bbc:	00010000 	andeq	r0, r1, r0
     bc0:	00000450 	andeq	r0, r0, r0, asr r4
     bc4:	00001c00 	andeq	r1, r0, r0, lsl #24
     bc8:	52000100 	andpl	r0, r0, #0
     bcc:	0000001c 	andeq	r0, r0, ip, lsl r0
     bd0:	00000024 	andeq	r0, r0, r4, lsr #32
     bd4:	24530001 	ldrbcs	r0, [r3], #-1
     bd8:	28000000 	stmdacs	r0, {}	; <UNPREDICTABLE>
     bdc:	03000000 	movweq	r0, #0
     be0:	9f017300 	svcls	0x00017300
     be4:	00000028 	andeq	r0, r0, r8, lsr #32
     be8:	00000034 	andeq	r0, r0, r4, lsr r0
     bec:	00530001 	subseq	r0, r3, r1
     bf0:	00000000 	andeq	r0, r0, r0
     bf4:	03000000 	movweq	r0, #0
     bf8:	00000000 	andeq	r0, r0, r0
     bfc:	24000000 	strcs	r0, [r0], #-0
     c00:	01000000 	mrseq	r0, (UNDEF: 0)
     c04:	00245100 	eoreq	r5, r4, r0, lsl #2
     c08:	00340000 	eorseq	r0, r4, r0
     c0c:	00030000 	andeq	r0, r3, r0
     c10:	009f7f71 	addseq	r7, pc, r1, ror pc	; <UNPREDICTABLE>
	...
     c1c:	10000000 	andne	r0, r0, r0
     c20:	1c000000 	stcne	0, cr0, [r0], {-0}
     c24:	01000000 	mrseq	r0, (UNDEF: 0)
     c28:	00245c00 	eoreq	r5, r4, r0, lsl #24
     c2c:	00340000 	eorseq	r0, r4, r0
     c30:	00010000 	andeq	r0, r1, r0
     c34:	00000052 	andeq	r0, r0, r2, asr r0
	...
     c44:	00001800 	andeq	r1, r0, r0, lsl #16
     c48:	50000100 	andpl	r0, r0, r0, lsl #2
     c4c:	00000018 	andeq	r0, r0, r8, lsl r0
     c50:	00000024 	andeq	r0, r0, r4, lsr #32
     c54:	00500001 	subseq	r0, r0, r1
	...
     c64:	1c000000 	stcne	0, cr0, [r0], {-0}
     c68:	01000000 	mrseq	r0, (UNDEF: 0)
     c6c:	001c5100 	andseq	r5, ip, r0, lsl #2
     c70:	002c0000 	eoreq	r0, ip, r0
     c74:	00010000 	andeq	r0, r1, r0
     c78:	00000051 	andeq	r0, r0, r1, asr r0
	...
     c88:	04000000 	streq	r0, [r0], #-0
     c8c:	01000000 	mrseq	r0, (UNDEF: 0)
     c90:	00045100 	andeq	r5, r4, r0, lsl #2
     c94:	000c0000 	andeq	r0, ip, r0
     c98:	00010000 	andeq	r0, r1, r0
     c9c:	00000c51 	andeq	r0, r0, r1, asr ip
     ca0:	00002000 	andeq	r2, r0, r0
     ca4:	71000300 	mrsvc	r0, LR_irq
     ca8:	00009f7f 	andeq	r9, r0, pc, ror pc
     cac:	00000000 	andeq	r0, r0, r0
     cb0:	00020000 	andeq	r0, r2, r0
	...
     cbc:	00000004 	andeq	r0, r0, r4
     cc0:	04500001 	ldrbeq	r0, [r0], #-1
     cc4:	14000000 	strne	r0, [r0], #-0
     cc8:	01000000 	mrseq	r0, (UNDEF: 0)
     ccc:	00145c00 	andseq	r5, r4, r0, lsl #24
     cd0:	00200000 	eoreq	r0, r0, r0
     cd4:	00030000 	andeq	r0, r3, r0
     cd8:	009f7f7c 	addseq	r7, pc, ip, ror pc	; <UNPREDICTABLE>
	...
     ce4:	30000303 	andcc	r0, r0, r3, lsl #6
     ce8:	3000008d 	andcc	r0, r0, sp, lsl #1
     cec:	0100008d 	smlabbeq	r0, sp, r0, r0
     cf0:	8d305000 	ldchi	0, cr5, [r0, #-0]
     cf4:	8d5c0000 	ldclhi	0, cr0, [ip, #-0]
     cf8:	00040000 	andeq	r0, r4, r0
     cfc:	9f5001f3 	svcls	0x005001f3
	...
     d08:	00030300 	andeq	r0, r3, r0, lsl #6
     d0c:	00008d30 	andeq	r8, r0, r0, lsr sp
     d10:	00008d30 	andeq	r8, r0, r0, lsr sp
     d14:	30510001 	subscc	r0, r1, r1
     d18:	5c00008d 	stcpl	0, cr0, [r0], {141}	; 0x8d
     d1c:	0400008d 	streq	r0, [r0], #-141	; 0xffffff73
     d20:	5101f300 	mrspl	pc, SP_irq	; <UNPREDICTABLE>
     d24:	0000009f 	muleq	r0, pc, r0	; <UNPREDICTABLE>
     d28:	00000000 	andeq	r0, r0, r0
     d2c:	03030000 	movweq	r0, #12288	; 0x3000
     d30:	30000000 	andcc	r0, r0, r0
     d34:	3000008d 	andcc	r0, r0, sp, lsl #1
     d38:	0100008d 	smlabbeq	r0, sp, r0, r0
     d3c:	8d305200 	lfmhi	f5, 4, [r0, #-0]
     d40:	8d380000 	ldchi	0, cr0, [r8, #-0]
     d44:	00010000 	andeq	r0, r1, r0
     d48:	008d3852 	addeq	r3, sp, r2, asr r8
     d4c:	008d5c00 	addeq	r5, sp, r0, lsl #24
     d50:	72000300 	andvc	r0, r0, #0, 6
     d54:	00009f01 	andeq	r9, r0, r1, lsl #30
     d58:	00000000 	andeq	r0, r0, r0
     d5c:	01020000 	mrseq	r0, (UNDEF: 2)
     d60:	00000001 	andeq	r0, r0, r1
     d64:	8d300000 	ldchi	0, cr0, [r0, #-0]
     d68:	8d3c0000 	ldchi	0, cr0, [ip, #-0]
     d6c:	00010000 	andeq	r0, r1, r0
     d70:	008d3c50 	addeq	r3, sp, r0, asr ip
     d74:	008d4000 	addeq	r4, sp, r0
     d78:	70000300 	andvc	r0, r0, r0, lsl #6
     d7c:	8d409f01 	stclhi	15, cr9, [r0, #-4]
     d80:	8d500000 	ldclhi	0, cr0, [r0, #-0]
     d84:	00010000 	andeq	r0, r1, r0
     d88:	008d5450 	addeq	r5, sp, r0, asr r4
     d8c:	008d5800 	addeq	r5, sp, r0, lsl #16
     d90:	50000100 	andpl	r0, r0, r0, lsl #2
	...
     d9c:	00000002 	andeq	r0, r0, r2
     da0:	8d300000 	ldchi	0, cr0, [r0, #-0]
     da4:	8d400000 	stclhi	0, cr0, [r0, #-0]
     da8:	00010000 	andeq	r0, r1, r0
     dac:	008d4051 	addeq	r4, sp, r1, asr r0
     db0:	008d4400 	addeq	r4, sp, r0, lsl #8
     db4:	71000300 	mrsvc	r0, LR_irq
     db8:	8d449f01 	stclhi	15, cr9, [r4, #-4]
     dbc:	8d5c0000 	ldclhi	0, cr0, [ip, #-0]
     dc0:	00010000 	andeq	r0, r1, r0
     dc4:	00000051 	andeq	r0, r0, r1, asr r0
	...
     dd4:	0000e800 	andeq	lr, r0, r0, lsl #16
     dd8:	00010000 	andeq	r0, r1, r0
     ddc:	50000100 	andpl	r0, r0, r0, lsl #2
     de0:	00000100 	andeq	r0, r0, r0, lsl #2
     de4:	00000110 	andeq	r0, r0, r0, lsl r1
     de8:	01f30004 	mvnseq	r0, r4
     dec:	01109f50 	tsteq	r0, r0, asr pc
     df0:	01140000 	tsteq	r4, r0
     df4:	00010000 	andeq	r0, r1, r0
     df8:	00011450 	andeq	r1, r1, r0, asr r4
     dfc:	00011c00 	andeq	r1, r1, r0, lsl #24
     e00:	f3000400 	vshl.u8	d0, d0, d0
     e04:	009f5001 	addseq	r5, pc, r1
     e08:	00000000 	andeq	r0, r0, r0
     e0c:	01000000 	mrseq	r0, (UNDEF: 0)
     e10:	00000000 	andeq	r0, r0, r0
     e14:	0000f400 	andeq	pc, r0, r0, lsl #8
     e18:	00010000 	andeq	r0, r1, r0
     e1c:	70000b00 	andvc	r0, r0, r0, lsl #22
     e20:	23253500 			; <UNDEFINED> instruction: 0x23253500
     e24:	818080b4 	strhhi	r8, [r0, r4]
     e28:	01009f02 	tsteq	r0, r2, lsl #30
     e2c:	01030000 	mrseq	r0, (UNDEF: 3)
     e30:	00010000 	andeq	r0, r1, r0
     e34:	00010350 	andeq	r0, r1, r0, asr r3
     e38:	00011000 	andeq	r1, r1, r0
     e3c:	f3000c00 			; <UNDEFINED> instruction: 0xf3000c00
     e40:	25355001 	ldrcs	r5, [r5, #-1]!
     e44:	8080b423 	addhi	fp, r0, r3, lsr #8
     e48:	009f0281 	addseq	r0, pc, r1, lsl #5
	...
     e54:	0000f800 	andeq	pc, r0, r0, lsl #16
     e58:	00011000 	andeq	r1, r1, r0
     e5c:	54000100 	strpl	r0, [r0], #-256	; 0xffffff00
	...
     e70:	000000cc 	andeq	r0, r0, ip, asr #1
     e74:	000000db 	ldrdeq	r0, [r0], -fp
     e78:	db500001 	blle	1400e84 <__bss_end__+0x13f7974>
     e7c:	e0000000 	and	r0, r0, r0
     e80:	04000000 	streq	r0, [r0], #-0
     e84:	5001f300 	andpl	pc, r1, r0, lsl #6
     e88:	0000e09f 	muleq	r0, pc, r0	; <UNPREDICTABLE>
     e8c:	0000e300 	andeq	lr, r0, r0, lsl #6
     e90:	50000100 	andpl	r0, r0, r0, lsl #2
     e94:	000000e3 	andeq	r0, r0, r3, ror #1
     e98:	000000e8 	andeq	r0, r0, r8, ror #1
     e9c:	01f30004 	mvnseq	r0, r4
     ea0:	00009f50 	andeq	r9, r0, r0, asr pc
	...
     eb0:	00cc0000 	sbceq	r0, ip, r0
     eb4:	00db0000 	sbcseq	r0, fp, r0
     eb8:	00010000 	andeq	r0, r1, r0
     ebc:	0000db51 	andeq	sp, r0, r1, asr fp
     ec0:	0000e000 	andeq	lr, r0, r0
     ec4:	f3000400 	vshl.u8	d0, d0, d0
     ec8:	e09f5101 	adds	r5, pc, r1, lsl #2
     ecc:	e3000000 	movw	r0, #0
     ed0:	01000000 	mrseq	r0, (UNDEF: 0)
     ed4:	00e35100 	rsceq	r5, r3, r0, lsl #2
     ed8:	00e80000 	rsceq	r0, r8, r0
     edc:	00040000 	andeq	r0, r4, r0
     ee0:	9f5101f3 	svcls	0x005101f3
	...
     ef0:	000000bc 	strheq	r0, [r0], -ip
     ef4:	000000c7 	andeq	r0, r0, r7, asr #1
     ef8:	c7500001 	ldrbgt	r0, [r0, -r1]
     efc:	cc000000 	stcgt	0, cr0, [r0], {-0}
     f00:	04000000 	streq	r0, [r0], #-0
     f04:	5001f300 	andpl	pc, r1, r0, lsl #6
     f08:	0000009f 	muleq	r0, pc, r0	; <UNPREDICTABLE>
	...
     f14:	00009800 	andeq	r9, r0, r0, lsl #16
     f18:	0000b000 	andeq	fp, r0, r0
     f1c:	50000100 	andpl	r0, r0, r0, lsl #2
     f20:	000000b0 	strheq	r0, [r0], -r0	; <UNPREDICTABLE>
     f24:	000000bc 	strheq	r0, [r0], -ip
     f28:	01f30004 	mvnseq	r0, r4
     f2c:	00009f50 	andeq	r9, r0, r0, asr pc
	...
     f38:	00740000 	rsbseq	r0, r4, r0
     f3c:	008c0000 	addeq	r0, ip, r0
     f40:	00010000 	andeq	r0, r1, r0
     f44:	00008c50 	andeq	r8, r0, r0, asr ip
     f48:	00009800 	andeq	r9, r0, r0, lsl #16
     f4c:	f3000400 	vshl.u8	d0, d0, d0
     f50:	009f5001 	addseq	r5, pc, r1
	...
     f5c:	64000000 	strvs	r0, [r0], #-0
     f60:	6f000000 	svcvs	0x00000000
     f64:	01000000 	mrseq	r0, (UNDEF: 0)
     f68:	006f5000 	rsbeq	r5, pc, r0
     f6c:	00740000 	rsbseq	r0, r4, r0
     f70:	00040000 	andeq	r0, r4, r0
     f74:	9f5001f3 	svcls	0x005001f3
	...
     f88:	00000038 	andeq	r0, r0, r8, lsr r0
     f8c:	38500001 	ldmdacc	r0, {r0}^
     f90:	64000000 	strvs	r0, [r0], #-0
     f94:	04000000 	streq	r0, [r0], #-0
     f98:	5001f300 	andpl	pc, r1, r0, lsl #6
     f9c:	0000009f 	muleq	r0, pc, r0	; <UNPREDICTABLE>
	...
     fac:	00004700 	andeq	r4, r0, r0, lsl #14
     fb0:	51000100 	mrspl	r0, (UNDEF: 16)
     fb4:	00000047 	andeq	r0, r0, r7, asr #32
     fb8:	00000064 	andeq	r0, r0, r4, rrx
     fbc:	01f30004 	mvnseq	r0, r4
     fc0:	00009f51 	andeq	r9, r0, r1, asr pc
	...
     fcc:	00000034 	andeq	r0, r0, r4, lsr r0
     fd0:	00000064 	andeq	r0, r0, r4, rrx
     fd4:	00540001 	subseq	r0, r4, r1
	...
     fe0:	00004000 	andeq	r4, r0, r0
     fe4:	00006400 	andeq	r6, r0, r0, lsl #8
     fe8:	56000100 	strpl	r0, [r0], -r0, lsl #2
	...
     ff4:	01000000 	mrseq	r0, (UNDEF: 0)
     ff8:	00000001 	andeq	r0, r0, r1
     ffc:	00000048 	andeq	r0, r0, r8, asr #32
    1000:	00000050 	andeq	r0, r0, r0, asr r0
    1004:	50500001 	subspl	r0, r0, r1
    1008:	50000000 	andpl	r0, r0, r0
    100c:	01000000 	mrseq	r0, (UNDEF: 0)
    1010:	00505100 	subseq	r5, r0, r0, lsl #2
    1014:	00540000 	subseq	r0, r4, r0
    1018:	00090000 	andeq	r0, r9, r0
    101c:	00740075 	rsbseq	r0, r4, r5, ror r0
    1020:	21007124 	tstcs	r0, r4, lsr #2
    1024:	0000549f 	muleq	r0, pc, r4	; <UNPREDICTABLE>
    1028:	00005b00 	andeq	r5, r0, r0, lsl #22
    102c:	51000100 	mrspl	r0, (UNDEF: 16)
	...

Disassembly of section .debug_aranges:

00000000 <.debug_aranges>:
   0:	0000001c 	andeq	r0, r0, ip, lsl r0
   4:	00000002 	andeq	r0, r0, r2
   8:	00040000 	andeq	r0, r4, r0
   c:	00000000 	andeq	r0, r0, r0
  10:	00008038 	andeq	r8, r0, r8, lsr r0
  14:	00000110 	andeq	r0, r0, r0, lsl r1
	...
  20:	0000001c 	andeq	r0, r0, ip, lsl r0
  24:	040f0002 	streq	r0, [pc], #-2	; 2c <__code_start__-0x7fd4>
  28:	00040000 	andeq	r0, r4, r0
  2c:	00000000 	andeq	r0, r0, r0
  30:	00008148 	andeq	r8, r0, r8, asr #2
  34:	00000058 	andeq	r0, r0, r8, asr r0
	...
  40:	0000001c 	andeq	r0, r0, ip, lsl r0
  44:	05b00002 	ldreq	r0, [r0, #2]!
  48:	00040000 	andeq	r0, r4, r0
  4c:	00000000 	andeq	r0, r0, r0
  50:	000081a0 	andeq	r8, r0, r0, lsr #3
  54:	00000034 	andeq	r0, r0, r4, lsr r0
	...
  60:	0000001c 	andeq	r0, r0, ip, lsl r0
  64:	06a70002 	strteq	r0, [r7], r2
  68:	00040000 	andeq	r0, r4, r0
  6c:	00000000 	andeq	r0, r0, r0
  70:	000081d4 	ldrdeq	r8, [r0], -r4
  74:	00000740 	andeq	r0, r0, r0, asr #14
	...
  80:	0000001c 	andeq	r0, r0, ip, lsl r0
  84:	11820002 	orrne	r0, r2, r2
  88:	00040000 	andeq	r0, r4, r0
  8c:	00000000 	andeq	r0, r0, r0
  90:	00008914 	andeq	r8, r0, r4, lsl r9
  94:	0000002c 	andeq	r0, r0, ip, lsr #32
	...
  a0:	0000001c 	andeq	r0, r0, ip, lsl r0
  a4:	12b50002 	adcsne	r0, r5, #2, 0
  a8:	00040000 	andeq	r0, r4, r0
  ac:	00000000 	andeq	r0, r0, r0
  b0:	00008940 	andeq	r8, r0, r0, asr #18
  b4:	0000003c 	andeq	r0, r0, ip, lsr r0
	...
  c0:	0000001c 	andeq	r0, r0, ip, lsl r0
  c4:	14420002 	strbne	r0, [r2], #-2
  c8:	00040000 	andeq	r0, r4, r0
  cc:	00000000 	andeq	r0, r0, r0
  d0:	0000897c 	andeq	r8, r0, ip, ror r9
  d4:	00000004 	andeq	r0, r0, r4
	...
  e0:	0000001c 	andeq	r0, r0, ip, lsl r0
  e4:	15140002 	ldrne	r0, [r4, #-2]
  e8:	00040000 	andeq	r0, r4, r0
  ec:	00000000 	andeq	r0, r0, r0
  f0:	00008980 	andeq	r8, r0, r0, lsl #19
  f4:	00000080 	andeq	r0, r0, r0, lsl #1
	...
 100:	0000001c 	andeq	r0, r0, ip, lsl r0
 104:	174e0002 	strbne	r0, [lr, -r2]
 108:	00040000 	andeq	r0, r4, r0
 10c:	00000000 	andeq	r0, r0, r0
 110:	00008a00 	andeq	r8, r0, r0, lsl #20
 114:	00000084 	andeq	r0, r0, r4, lsl #1
	...
 120:	0000001c 	andeq	r0, r0, ip, lsl r0
 124:	199f0002 	ldmibne	pc, {r1}	; <UNPREDICTABLE>
 128:	00040000 	andeq	r0, r4, r0
 12c:	00000000 	andeq	r0, r0, r0
 130:	00008a84 	andeq	r8, r0, r4, lsl #21
 134:	000001f0 	strdeq	r0, [r0], -r0	; <UNPREDICTABLE>
	...
 140:	0000001c 	andeq	r0, r0, ip, lsl r0
 144:	1f700002 	svcne	0x00700002
 148:	00040000 	andeq	r0, r4, r0
 14c:	00000000 	andeq	r0, r0, r0
 150:	00008c74 	andeq	r8, r0, r4, ror ip
 154:	0000003c 	andeq	r0, r0, ip, lsr r0
	...
 160:	0000001c 	andeq	r0, r0, ip, lsl r0
 164:	20bd0002 	adcscs	r0, sp, r2
 168:	00040000 	andeq	r0, r4, r0
 16c:	00000000 	andeq	r0, r0, r0
 170:	00008cb0 			; <UNDEFINED> instruction: 0x00008cb0
 174:	00000034 	andeq	r0, r0, r4, lsr r0
	...
 180:	0000001c 	andeq	r0, r0, ip, lsl r0
 184:	21f80002 	mvnscs	r0, r2
 188:	00040000 	andeq	r0, r4, r0
 18c:	00000000 	andeq	r0, r0, r0
 190:	00008ce4 	andeq	r8, r0, r4, ror #25
 194:	0000002c 	andeq	r0, r0, ip, lsr #32
	...
 1a0:	0000001c 	andeq	r0, r0, ip, lsl r0
 1a4:	22f30002 	rscscs	r0, r3, #2, 0
 1a8:	00040000 	andeq	r0, r4, r0
 1ac:	00000000 	andeq	r0, r0, r0
 1b0:	00008d10 	andeq	r8, r0, r0, lsl sp
 1b4:	00000020 	andeq	r0, r0, r0, lsr #32
	...
 1c0:	0000001c 	andeq	r0, r0, ip, lsl r0
 1c4:	24060002 	strcs	r0, [r6], #-2
 1c8:	00040000 	andeq	r0, r4, r0
 1cc:	00000000 	andeq	r0, r0, r0
 1d0:	00008d30 	andeq	r8, r0, r0, lsr sp
 1d4:	0000002c 	andeq	r0, r0, ip, lsr #32
	...
 1e0:	0000001c 	andeq	r0, r0, ip, lsl r0
 1e4:	25580002 	ldrbcs	r0, [r8, #-2]
 1e8:	00040000 	andeq	r0, r4, r0
 1ec:	00000000 	andeq	r0, r0, r0
 1f0:	00008d5c 	andeq	r8, r0, ip, asr sp
 1f4:	00000004 	andeq	r0, r0, r4
	...
 200:	0000001c 	andeq	r0, r0, ip, lsl r0
 204:	262a0002 	strtcs	r0, [sl], -r2
 208:	00040000 	andeq	r0, r4, r0
 20c:	00000000 	andeq	r0, r0, r0
 210:	00008d78 	andeq	r8, r0, r8, ror sp
 214:	0000011c 	andeq	r0, r0, ip, lsl r1
	...

Disassembly of section .debug_line:

00000000 <.debug_line>:
       0:	000001ea 	andeq	r0, r0, sl, ror #3
       4:	00db0003 	sbcseq	r0, fp, r3
       8:	01020000 	mrseq	r0, (UNDEF: 2)
       c:	000d0efb 	strdeq	r0, [sp], -fp
      10:	01010101 	tsteq	r1, r1, lsl #2
      14:	01000000 	mrseq	r0, (UNDEF: 0)
      18:	2e010000 	cdpcs	0, 0, cr0, cr1, cr0, {0}
      1c:	6e752f2e 	cdpvs	15, 7, cr2, cr5, cr14, {1}
      20:	732d7869 			; <UNDEFINED> instruction: 0x732d7869
      24:	00656469 	rsbeq	r6, r5, r9, ror #8
      28:	74706f2f 	ldrbtvc	r6, [r0], #-3887	; 0xfffff0d1
      2c:	6d6f682f 	stclvs	8, cr6, [pc, #-188]!	; ffffff78 <__bss_end__+0xffff6a68>
      30:	65726265 	ldrbvs	r6, [r2, #-613]!	; 0xfffffd9b
      34:	65432f77 	strbvs	r2, [r3, #-3959]	; 0xfffff089
      38:	72616c6c 	rsbvc	r6, r1, #108, 24	; 0x6c00
      3c:	6d72612f 	ldfvse	f6, [r2, #-188]!	; 0xffffff44
      40:	6e6f6e2d 	cdpvs	14, 6, cr6, cr15, cr13, {1}
      44:	61652d65 	cmnvs	r5, r5, ror #26
      48:	742d6962 	strtvc	r6, [sp], #-2402	; 0xfffff69e
      4c:	2f747365 	svccs	0x00747365
      50:	30322d39 	eorscc	r2, r2, r9, lsr sp
      54:	34713931 	ldrbtcc	r3, [r1], #-2353	; 0xfffff6cf
      58:	3173632d 	cmncc	r3, sp, lsr #6
      5c:	2f653730 	svccs	0x00653730
      60:	2f62696c 	svccs	0x0062696c
      64:	2f636367 	svccs	0x00636367
      68:	2d6d7261 	sfmcs	f7, 2, [sp, #-388]!	; 0xfffffe7c
      6c:	656e6f6e 	strbvs	r6, [lr, #-3950]!	; 0xfffff092
      70:	6261652d 	rsbvs	r6, r1, #188743680	; 0xb400000
      74:	2e392f69 	cdpcs	15, 3, cr2, cr9, cr9, {3}
      78:	2f312e32 	svccs	0x00312e32
      7c:	6c636e69 	stclvs	14, cr6, [r3], #-420	; 0xfffffe5c
      80:	00656475 	rsbeq	r6, r5, r5, ror r4
      84:	6573552f 	ldrbvs	r5, [r3, #-1327]!	; 0xfffffad1
      88:	6d2f7372 	stcvs	3, cr7, [pc, #-456]!	; fffffec8 <__bss_end__+0xffff69b8>
      8c:	73656c69 	cmnvc	r5, #26880	; 0x6900
      90:	756f532f 	strbvc	r5, [pc, #-815]!	; fffffd69 <__bss_end__+0xffff6859>
      94:	2f656372 	svccs	0x00656372
      98:	34327363 	ldrtcc	r7, [r2], #-867	; 0xfffffc9d
      9c:	2f786c30 	svccs	0x00786c30
      a0:	7062696c 	rsbvc	r6, r2, ip, ror #18
      a4:	6e692f69 	cdpvs	15, 6, cr2, cr9, cr9, {3}
      a8:	64756c63 	ldrbtvs	r6, [r5], #-3171	; 0xfffff39d
      ac:	68000065 	stmdavs	r0, {r0, r2, r5, r6}
      b0:	6f6c6c65 	svcvs	0x006c6c65
      b4:	0000632e 	andeq	r6, r0, lr, lsr #6
      b8:	72610000 	rsbvc	r0, r1, #0, 0
      bc:	2d36766d 	ldccs	6, cr7, [r6, #-436]!	; 0xfffffe4c
      c0:	74736e69 	ldrbtvc	r6, [r3], #-3689	; 0xfffff197
      c4:	00682e73 	rsbeq	r2, r8, r3, ror lr
      c8:	73000001 	movwvc	r0, #1
      cc:	6e696474 	mcrvs	4, 3, r6, cr9, cr4, {3}
      d0:	63672d74 	cmnvs	r7, #116, 26	; 0x1d00
      d4:	00682e63 	rsbeq	r2, r8, r3, ror #28
      d8:	72000002 	andvc	r0, r0, #2, 0
      dc:	682e6970 	stmdavs	lr!, {r4, r5, r6, r8, fp, sp, lr}
      e0:	00000300 	andeq	r0, r0, r0, lsl #6
      e4:	00120500 	andseq	r0, r2, r0, lsl #10
      e8:	80380205 	eorshi	r0, r8, r5, lsl #4
      ec:	05150000 	ldreq	r0, [r5, #-0]
      f0:	01052f05 	tsteq	r5, r5, lsl #30
      f4:	11054b06 	tstne	r5, r6, lsl #22
      f8:	01064e06 	tsteq	r6, r6, lsl #28
      fc:	4b060505 	blmi	181518 <__bss_end__+0x178008>
     100:	01052e06 	tsteq	r5, r6, lsl #28
     104:	0614052f 	ldreq	r0, [r4], -pc, lsr #10
     108:	3305054c 	movwcc	r0, #21836	; 0x554c
     10c:	04141313 	ldreq	r1, [r4], #-787	; 0xfffffced
     110:	00e30302 	rsceq	r0, r3, r2, lsl #6
     114:	05010401 	streq	r0, [r1, #-1025]	; 0xfffffbff
     118:	9d03060d 	stcls	6, cr0, [r3, #-52]	; 0xffffffcc
     11c:	0505017f 	streq	r0, [r5, #-383]	; 0xfffffe81
     120:	02046706 	andeq	r6, r4, #1572864	; 0x180000
     124:	0100d303 	tsteq	r0, r3, lsl #6
     128:	0d050104 	stfeqs	f0, [r5, #-16]
     12c:	7fad0306 	svcvc	0x00ad0306
     130:	06050501 	streq	r0, [r5], -r1, lsl #10
     134:	060f054b 	streq	r0, [pc], -fp, asr #10
     138:	05020401 	streq	r0, [r2, #-1025]	; 0xfffffbff
     13c:	db030618 	blle	c19a4 <__bss_end__+0xb8494>
     140:	05054a00 	streq	r4, [r5, #-2560]	; 0xfffff600
     144:	06190513 			; <UNDEFINED> instruction: 0x06190513
     148:	4a270501 	bmi	9c1554 <__bss_end__+0x9b8044>
     14c:	2f060505 	svccs	0x00060505
     150:	01062205 	tsteq	r6, r5, lsl #4
     154:	2e2e1705 	cdpcs	7, 2, cr1, cr14, cr5, {0}
     158:	0d050104 	stfeqs	f0, [r5, #-16]
     15c:	017fa303 	cmneq	pc, r3, lsl #6
     160:	2f060505 	svccs	0x00060505
     164:	e4030204 	str	r0, [r3], #-516	; 0xfffffdfc
     168:	01040100 	mrseq	r0, (UNDEF: 20)
     16c:	03060d05 	movweq	r0, #27909	; 0x6d05
     170:	05017f9c 	streq	r7, [r1, #-3996]	; 0xfffff064
     174:	044b0605 	strbeq	r0, [fp], #-1541	; 0xfffff9fb
     178:	00cc0302 	sbceq	r0, ip, r2, lsl #6
     17c:	05010401 	streq	r0, [r1, #-1025]	; 0xfffffbff
     180:	b403060d 	strlt	r0, [r3], #-1549	; 0xfffff9f3
     184:	0505017f 	streq	r0, [r5, #-383]	; 0xfffffe81
     188:	0f054b06 	svceq	0x00054b06
     18c:	0d050106 	stfeqs	f0, [r5, #-24]	; 0xffffffe8
     190:	0605052e 	streq	r0, [r5], -lr, lsr #10
     194:	09054b30 	stmdbeq	r5, {r4, r5, r8, r9, fp, lr}
     198:	060d0501 	streq	r0, [sp], -r1, lsl #10
     19c:	00140501 	andseq	r0, r4, r1, lsl #10
     1a0:	06010402 	streq	r0, [r1], -r2, lsl #8
     1a4:	0005052e 	andeq	r0, r5, lr, lsr #10
     1a8:	06010402 	streq	r0, [r1], -r2, lsl #8
     1ac:	00090501 	andeq	r0, r9, r1, lsl #10
     1b0:	06030402 	streq	r0, [r3], -r2, lsl #8
     1b4:	0402004b 	streq	r0, [r2], #-75	; 0xffffffb5
     1b8:	052e0603 	streq	r0, [lr, #-1539]!	; 0xfffff9fd
     1bc:	0402001b 	streq	r0, [r2], #-27	; 0xffffffe5
     1c0:	05810603 	streq	r0, [r1, #1539]	; 0x603
     1c4:	0402001c 	streq	r0, [r2], #-28	; 0xffffffe4
     1c8:	00010603 	andeq	r0, r1, r3, lsl #12
     1cc:	2e030402 	cdpcs	4, 0, cr0, cr3, cr2, {0}
     1d0:	03040200 	movweq	r0, #16896	; 0x4200
     1d4:	0605052e 	streq	r0, [r5], -lr, lsr #10
     1d8:	060c0515 			; <UNDEFINED> instruction: 0x060c0515
     1dc:	06050501 	streq	r0, [r5], -r1, lsl #10
     1e0:	2e06672f 	cdpcs	7, 0, cr6, cr6, cr15, {1}
     1e4:	4b2f4b06 	blmi	bd2e04 <__bss_end__+0xbc98f4>
     1e8:	001a024b 	andseq	r0, sl, fp, asr #4
     1ec:	01100101 	tsteq	r0, r1, lsl #2
     1f0:	00030000 	andeq	r0, r3, r0
     1f4:	000000de 	ldrdeq	r0, [r0], -lr
     1f8:	0efb0102 	cdpeq	1, 15, cr0, cr11, cr2, {0}
     1fc:	0101000d 	tsteq	r1, sp
     200:	00000101 	andeq	r0, r0, r1, lsl #2
     204:	00000100 	andeq	r0, r0, r0, lsl #2
     208:	6c2f2e01 	stcvs	14, cr2, [pc], #-4	; 20c <__code_start__-0x7df4>
     20c:	00636269 	rsbeq	r6, r3, r9, ror #4
     210:	74706f2f 	ldrbtvc	r6, [r0], #-3887	; 0xfffff0d1
     214:	6d6f682f 	stclvs	8, cr6, [pc, #-188]!	; 160 <__code_start__-0x7ea0>
     218:	65726265 	ldrbvs	r6, [r2, #-613]!	; 0xfffffd9b
     21c:	65432f77 	strbvs	r2, [r3, #-3959]	; 0xfffff089
     220:	72616c6c 	rsbvc	r6, r1, #108, 24	; 0x6c00
     224:	6d72612f 	ldfvse	f6, [r2, #-188]!	; 0xffffff44
     228:	6e6f6e2d 	cdpvs	14, 6, cr6, cr15, cr13, {1}
     22c:	61652d65 	cmnvs	r5, r5, ror #26
     230:	742d6962 	strtvc	r6, [sp], #-2402	; 0xfffff69e
     234:	2f747365 	svccs	0x00747365
     238:	30322d39 	eorscc	r2, r2, r9, lsr sp
     23c:	34713931 	ldrbtcc	r3, [r1], #-2353	; 0xfffff6cf
     240:	3173632d 	cmncc	r3, sp, lsr #6
     244:	2f653730 	svccs	0x00653730
     248:	2f62696c 	svccs	0x0062696c
     24c:	2f636367 	svccs	0x00636367
     250:	2d6d7261 	sfmcs	f7, 2, [sp, #-388]!	; 0xfffffe7c
     254:	656e6f6e 	strbvs	r6, [lr, #-3950]!	; 0xfffff092
     258:	6261652d 	rsbvs	r6, r1, #188743680	; 0xb400000
     25c:	2e392f69 	cdpcs	15, 3, cr2, cr9, cr9, {3}
     260:	2f312e32 	svccs	0x00312e32
     264:	6c636e69 	stclvs	14, cr6, [r3], #-420	; 0xfffffe5c
     268:	00656475 	rsbeq	r6, r5, r5, ror r4
     26c:	6573552f 	ldrbvs	r5, [r3, #-1327]!	; 0xfffffad1
     270:	6d2f7372 	stcvs	3, cr7, [pc, #-456]!	; b0 <__code_start__-0x7f50>
     274:	73656c69 	cmnvc	r5, #26880	; 0x6900
     278:	756f532f 	strbvc	r5, [pc, #-815]!	; ffffff51 <__bss_end__+0xffff6a41>
     27c:	2f656372 	svccs	0x00656372
     280:	34327363 	ldrtcc	r7, [r2], #-867	; 0xfffffc9d
     284:	2f786c30 	svccs	0x00786c30
     288:	7062696c 	rsbvc	r6, r2, ip, ror #18
     28c:	6e692f69 	cdpvs	15, 6, cr2, cr9, cr9, {3}
     290:	64756c63 	ldrbtvs	r6, [r5], #-3171	; 0xfffff39d
     294:	70000065 	andvc	r0, r0, r5, rrx
     298:	746e6972 	strbtvc	r6, [lr], #-2418	; 0xfffff68e
     29c:	00632e6b 	rsbeq	r2, r3, fp, ror #28
     2a0:	73000001 	movwvc	r0, #1
     2a4:	72616474 	rsbvc	r6, r1, #116, 8	; 0x74000000
     2a8:	00682e67 	rsbeq	r2, r8, r7, ror #28
     2ac:	72000002 	andvc	r0, r0, #2, 0
     2b0:	682e6970 	stmdavs	lr!, {r4, r5, r6, r8, fp, sp, lr}
     2b4:	00000300 	andeq	r0, r0, r0, lsl #6
     2b8:	6975623c 	ldmdbvs	r5!, {r2, r3, r4, r5, r9, sp, lr}^
     2bc:	692d746c 	pushvs	{r2, r3, r5, r6, sl, ip, sp, lr}
     2c0:	00003e6e 	andeq	r3, r0, lr, ror #28
     2c4:	61760000 	cmnvs	r6, r0
     2c8:	6972702d 	ldmdbvs	r2!, {r0, r2, r3, r5, ip, sp, lr}^
     2cc:	2e6b746e 	cdpcs	4, 6, cr7, cr11, cr14, {3}
     2d0:	00010068 	andeq	r0, r1, r8, rrx
     2d4:	22050000 	andcs	r0, r5, #0, 0
     2d8:	48020500 	stmdami	r2, {r8, sl}
     2dc:	17000081 	strne	r0, [r0, -r1, lsl #1]
     2e0:	05050106 	streq	r0, [r5, #-262]	; 0xfffffefa
     2e4:	14136806 	ldrne	r6, [r3], #-2054	; 0xfffff7fa
     2e8:	054b0905 	strbeq	r0, [fp, #-2309]	; 0xfffff6fb
     2ec:	05010612 	streq	r0, [r1, #-1554]	; 0xfffff9ee
     2f0:	16bb0605 	ldrtne	r0, [fp], r5, lsl #12
     2f4:	34066606 	strcc	r6, [r6], #-1542	; 0xfffff9fa
     2f8:	13060105 	movwne	r0, #24837	; 0x6105
     2fc:	00080266 	andeq	r0, r8, r6, ror #4
     300:	00a50101 	adceq	r0, r5, r1, lsl #2
     304:	00030000 	andeq	r0, r3, r0
     308:	00000057 	andeq	r0, r0, r7, asr r0
     30c:	0efb0102 	cdpeq	1, 15, cr0, cr11, cr2, {0}
     310:	0101000d 	tsteq	r1, sp
     314:	00000101 	andeq	r0, r0, r1, lsl #2
     318:	00000100 	andeq	r0, r0, r0, lsl #2
     31c:	6c2f2e01 	stcvs	14, cr2, [pc], #-4	; 320 <__code_start__-0x7ce0>
     320:	00636269 	rsbeq	r6, r3, r9, ror #4
     324:	6573552f 	ldrbvs	r5, [r3, #-1327]!	; 0xfffffad1
     328:	6d2f7372 	stcvs	3, cr7, [pc, #-456]!	; 168 <__code_start__-0x7e98>
     32c:	73656c69 	cmnvc	r5, #26880	; 0x6900
     330:	756f532f 	strbvc	r5, [pc, #-815]!	; 9 <__code_start__-0x7ff7>
     334:	2f656372 	svccs	0x00656372
     338:	34327363 	ldrtcc	r7, [r2], #-867	; 0xfffffc9d
     33c:	2f786c30 	svccs	0x00786c30
     340:	7062696c 	rsbvc	r6, r2, ip, ror #18
     344:	6e692f69 	cdpvs	15, 6, cr2, cr9, cr9, {3}
     348:	64756c63 	ldrbtvs	r6, [r5], #-3171	; 0xfffff39d
     34c:	70000065 	andvc	r0, r0, r5, rrx
     350:	2e6b7475 	mcrcs	4, 3, r7, cr11, cr5, {3}
     354:	00010063 	andeq	r0, r1, r3, rrx
     358:	69707200 	ldmdbvs	r0!, {r9, ip, sp, lr}^
     35c:	0200682e 	andeq	r6, r0, #3014656	; 0x2e0000
     360:	05000000 	streq	r0, [r0, #-0]
     364:	02050022 	andeq	r0, r5, #34, 0	; 0x22
     368:	000081a0 	andeq	r8, r0, r0, lsr #3
     36c:	05010615 	streq	r0, [r1, #-1557]	; 0xfffff9eb
     370:	054b0605 	strbeq	r0, [fp, #-1541]	; 0xfffff9fb
     374:	0402000b 	streq	r0, [r2], #-11
     378:	05050101 	streq	r0, [r5, #-257]	; 0xfffffeff
     37c:	01040200 	mrseq	r0, R12_usr
     380:	09052e06 	stmdbeq	r5, {r1, r2, r9, sl, fp, sp}
     384:	02040200 	andeq	r0, r4, #0, 4
     388:	0f054b06 	svceq	0x00054b06
     38c:	02040200 	andeq	r0, r4, #0, 4
     390:	00100565 	andseq	r0, r0, r5, ror #10
     394:	06020402 	streq	r0, [r2], -r2, lsl #8
     398:	04020001 	streq	r0, [r2], #-1
     39c:	05052e02 	streq	r2, [r5, #-3586]	; 0xfffff1fe
     3a0:	01053206 	tsteq	r5, r6, lsl #4
     3a4:	06021306 	streq	r1, [r2], -r6, lsl #6
     3a8:	fa010100 	blx	407b0 <__bss_end__+0x372a0>
     3ac:	03000005 	movweq	r0, #5
     3b0:	0000f400 	andeq	pc, r0, r0, lsl #8
     3b4:	fb010200 	blx	40bbe <__bss_end__+0x376ae>
     3b8:	01000d0e 	tsteq	r0, lr, lsl #26
     3bc:	00010101 	andeq	r0, r1, r1, lsl #2
     3c0:	00010000 	andeq	r0, r1, r0
     3c4:	2f2e0100 	svccs	0x002e0100
     3c8:	6362696c 	cmnvs	r2, #108, 18	; 0x1b0000
     3cc:	706f2f00 	rsbvc	r2, pc, r0, lsl #30
     3d0:	6f682f74 	svcvs	0x00682f74
     3d4:	7262656d 	rsbvc	r6, r2, #457179136	; 0x1b400000
     3d8:	432f7765 			; <UNDEFINED> instruction: 0x432f7765
     3dc:	616c6c65 	cmnvs	ip, r5, ror #24
     3e0:	72612f72 	rsbvc	r2, r1, #456	; 0x1c8
     3e4:	6f6e2d6d 	svcvs	0x006e2d6d
     3e8:	652d656e 	strvs	r6, [sp, #-1390]!	; 0xfffffa92
     3ec:	2d696261 	sfmcs	f6, 2, [r9, #-388]!	; 0xfffffe7c
     3f0:	74736574 	ldrbtvc	r6, [r3], #-1396	; 0xfffffa8c
     3f4:	322d392f 	eorcc	r3, sp, #770048	; 0xbc000
     3f8:	71393130 	teqvc	r9, r0, lsr r1
     3fc:	73632d34 	cmnvc	r3, #52, 26	; 0xd00
     400:	65373031 	ldrvs	r3, [r7, #-49]!	; 0xffffffcf
     404:	62696c2f 	rsbvs	r6, r9, #12032	; 0x2f00
     408:	6363672f 	cmnvs	r3, #12320768	; 0xbc0000
     40c:	6d72612f 	ldfvse	f6, [r2, #-188]!	; 0xffffff44
     410:	6e6f6e2d 	cdpvs	14, 6, cr6, cr15, cr13, {1}
     414:	61652d65 	cmnvs	r5, r5, ror #26
     418:	392f6962 	stmdbcc	pc!, {r1, r5, r6, r8, fp, sp, lr}	; <UNPREDICTABLE>
     41c:	312e322e 			; <UNDEFINED> instruction: 0x312e322e
     420:	636e692f 	cmnvs	lr, #770048	; 0xbc000
     424:	6564756c 	strbvs	r7, [r4, #-1388]!	; 0xfffffa94
     428:	73552f00 	cmpvc	r5, #0, 30
     42c:	2f737265 	svccs	0x00737265
     430:	656c696d 	strbvs	r6, [ip, #-2413]!	; 0xfffff693
     434:	6f532f73 	svcvs	0x00532f73
     438:	65637275 	strbvs	r7, [r3, #-629]!	; 0xfffffd8b
     43c:	3273632f 	rsbscc	r6, r3, #-1140850688	; 0xbc000000
     440:	786c3034 	stmdavc	ip!, {r2, r4, r5, ip, sp}^
     444:	62696c2f 	rsbvs	r6, r9, #12032	; 0x2f00
     448:	692f6970 	stmdbvs	pc!, {r4, r5, r6, r8, fp, sp, lr}	; <UNPREDICTABLE>
     44c:	756c636e 	strbvc	r6, [ip, #-878]!	; 0xfffffc92
     450:	00006564 	andeq	r6, r0, r4, ror #10
     454:	702d6176 	eorvc	r6, sp, r6, ror r1
     458:	746e6972 	strbtvc	r6, [lr], #-2418	; 0xfffff68e
     45c:	00632e6b 	rsbeq	r2, r3, fp, ror #28
     460:	73000001 	movwvc	r0, #1
     464:	6e696474 	mcrvs	4, 3, r6, cr9, cr4, {3}
     468:	63672d74 	cmnvs	r7, #116, 26	; 0x1d00
     46c:	00682e63 	rsbeq	r2, r8, r3, ror #28
     470:	72000002 	andvc	r0, r0, #2, 0
     474:	682e6970 	stmdavs	lr!, {r4, r5, r6, r8, fp, sp, lr}
     478:	00000300 	andeq	r0, r0, r0, lsl #6
     47c:	2d697072 	stclcs	0, cr7, [r9, #-456]!	; 0xfffffe38
     480:	65746e69 	ldrbvs	r6, [r4, #-3689]!	; 0xfffff197
     484:	6c616e72 	stclvs	14, cr6, [r1], #-456	; 0xfffffe38
     488:	0300682e 	movweq	r6, #2094	; 0x82e
     48c:	74730000 	ldrbtvc	r0, [r3], #-0
     490:	67726164 	ldrbvs	r6, [r2, -r4, ror #2]!
     494:	0200682e 	andeq	r6, r0, #3014656	; 0x2e0000
     498:	623c0000 	eorsvs	r0, ip, #0, 0
     49c:	746c6975 	strbtvc	r6, [ip], #-2421	; 0xfffff68b
     4a0:	3e6e692d 	vmulcc.f16	s13, s28, s27	; <UNPREDICTABLE>
     4a4:	00000000 	andeq	r0, r0, r0
     4a8:	001b0500 	andseq	r0, fp, r0, lsl #10
     4ac:	81d40205 	bicshi	r0, r4, r5, lsl #4
     4b0:	26030000 	strcs	r0, [r3], -r0
     4b4:	011d0501 	tsteq	sp, r1, lsl #10
     4b8:	01062d05 	tsteq	r6, r5, lsl #26
     4bc:	4a2e0105 	bmi	b808d8 <__bss_end__+0xb773c8>
     4c0:	51063305 	tstpl	r6, r5, lsl #6
     4c4:	05130205 	ldreq	r0, [r3, #-517]	; 0xfffffdfb
     4c8:	05010606 	streq	r0, [r1, #-1542]	; 0xfffff9fa
     4cc:	05300602 	ldreq	r0, [r0, #-1538]!	; 0xfffff9fe
     4d0:	04020008 	streq	r0, [r2], #-8
     4d4:	02050101 	andeq	r0, r5, #1073741824	; 0x40000000
     4d8:	01040200 	mrseq	r0, R12_usr
     4dc:	03050106 	movweq	r0, #20742	; 0x5106
     4e0:	02040200 	andeq	r0, r4, #0, 4
     4e4:	08052f06 	stmdaeq	r5, {r1, r2, r8, r9, sl, fp, sp}
     4e8:	02040200 	andeq	r0, r4, #0, 4
     4ec:	15050106 	strne	r0, [r5, #-262]	; 0xfffffefa
     4f0:	02040200 	andeq	r0, r4, #0, 4
     4f4:	18054906 	stmdane	r5, {r1, r2, r8, fp, lr}
     4f8:	02040200 	andeq	r0, r4, #0, 4
     4fc:	02000106 	andeq	r0, r0, #-2147483647	; 0x80000001
     500:	052e0204 	streq	r0, [lr, #-516]!	; 0xfffffdfc
     504:	05300602 	ldreq	r0, [r0, #-1538]!	; 0xfffff9fe
     508:	05010605 	streq	r0, [r1, #-1541]	; 0xfffff9fb
     50c:	054b0602 	strbeq	r0, [fp, #-1538]	; 0xfffff9fe
     510:	05130601 	ldreq	r0, [r3, #-1537]	; 0xfffff9ff
     514:	0531063e 	ldreq	r0, [r1, #-1598]!	; 0xfffff9c2
     518:	0e051402 	cdpeq	4, 0, cr1, cr5, cr2, {0}
     51c:	06050106 	streq	r0, [r5], -r6, lsl #2
     520:	0602052e 	streq	r0, [r2], -lr, lsr #10
     524:	0604052f 	streq	r0, [r4], -pc, lsr #10
     528:	06030501 	streq	r0, [r3], -r1, lsl #10
     52c:	0611052f 	ldreq	r0, [r1], -pc, lsr #10
     530:	2e090501 	cfsh32cs	mvfx0, mvfx9, #1
     534:	30060205 	andcc	r0, r6, r5, lsl #4
     538:	06070515 			; <UNDEFINED> instruction: 0x06070515
     53c:	2e020501 	cfsh32cs	mvfx0, mvfx2, #1
     540:	02000b05 	andeq	r0, r0, #5120	; 0x1400
     544:	2e060104 	adfcss	f0, f6, f4
     548:	02000205 	andeq	r0, r0, #1342177280	; 0x50000000
     54c:	01060104 	tsteq	r6, r4, lsl #2
     550:	02000305 	andeq	r0, r0, #335544320	; 0x14000000
     554:	2f060304 	svccs	0x00060304
     558:	02000c05 	andeq	r0, r0, #1280	; 0x500
     55c:	01060304 	tsteq	r6, r4, lsl #6
     560:	02000a05 	andeq	r0, r0, #20480	; 0x5000
     564:	052e0304 	streq	r0, [lr, #-772]!	; 0xfffffcfc
     568:	04020017 	streq	r0, [r2], #-23	; 0xffffffe9
     56c:	002d0603 	eoreq	r0, sp, r3, lsl #12
     570:	06030402 	streq	r0, [r3], -r2, lsl #8
     574:	06020501 	streq	r0, [r2], -r1, lsl #10
     578:	06090530 			; <UNDEFINED> instruction: 0x06090530
     57c:	02052e01 	andeq	r2, r5, #1, 28
     580:	01053006 	tsteq	r5, r6
     584:	49051306 	stmdbmi	r5, {r1, r2, r8, r9, ip}
     588:	01063106 	tsteq	r6, r6, lsl #2
     58c:	a0060205 	andge	r0, r6, r5, lsl #4
     590:	01060405 	tsteq	r6, r5, lsl #8
     594:	2f060305 	svccs	0x00060305
     598:	01060905 	tsteq	r6, r5, lsl #18
     59c:	30060205 	andcc	r0, r6, r5, lsl #4
     5a0:	060b0513 			; <UNDEFINED> instruction: 0x060b0513
     5a4:	06020501 	streq	r0, [r2], -r1, lsl #10
     5a8:	052e0630 	streq	r0, [lr, #-1584]!	; 0xfffff9d0
     5ac:	24020604 	strcs	r0, [r2], #-1540	; 0xfffff9fc
     5b0:	0f051315 	svceq	0x00051315
     5b4:	052e0106 	streq	r0, [lr, #-262]!	; 0xfffffefa
     5b8:	05054a06 	streq	r4, [r5, #-2566]	; 0xfffff5fa
     5bc:	05134b06 	ldreq	r4, [r3, #-2822]	; 0xfffff4fa
     5c0:	05010609 	streq	r0, [r1, #-1545]	; 0xfffff9f7
     5c4:	052f0605 	streq	r0, [pc, #-1541]!	; ffffffc7 <__bss_end__+0xffff6ab7>
     5c8:	0510060b 	ldreq	r0, [r0, #-1547]	; 0xfffff9f5
     5cc:	0402000d 	streq	r0, [r2], #-13
     5d0:	04052c01 	streq	r2, [r5], #-3073	; 0xfffff3ff
     5d4:	01040200 	mrseq	r0, R12_usr
     5d8:	05053406 	streq	r3, [r5, #-1030]	; 0xfffffbfa
     5dc:	01040200 	mrseq	r0, R12_usr
     5e0:	001b0513 	andseq	r0, fp, r3, lsl r5
     5e4:	06010402 	streq	r0, [r1], -r2, lsl #8
     5e8:	00070501 	andeq	r0, r7, r1, lsl #10
     5ec:	d6010402 	strle	r0, [r1], -r2, lsl #8
     5f0:	02001805 	andeq	r1, r0, #327680	; 0x50000
     5f4:	052e0104 	streq	r0, [lr, #-260]!	; 0xfffffefc
     5f8:	0402000a 	streq	r0, [r2], #-10
     5fc:	0b054a01 	bleq	152e08 <__bss_end__+0x1498f8>
     600:	01040200 	mrseq	r0, R12_usr
     604:	0e052f06 	cdpeq	15, 0, cr2, cr5, cr6, {0}
     608:	01040200 	mrseq	r0, R12_usr
     60c:	04052e06 	streq	r2, [r5], #-3590	; 0xfffff1fa
     610:	01040200 	mrseq	r0, R12_usr
     614:	054b062e 	strbeq	r0, [fp, #-1582]	; 0xfffff9d2
     618:	05010606 	streq	r0, [r1, #-1542]	; 0xfffff9fa
     61c:	052f0605 	streq	r0, [pc, #-1541]!	; 1f <__code_start__-0x7fe1>
     620:	0501060a 	streq	r0, [r1, #-1546]	; 0xfffff9f6
     624:	052e4a07 	streq	r4, [lr, #-2567]!	; 0xfffff5f9
     628:	2e76030d 	cdpcs	3, 7, cr0, cr6, cr13, {0}
     62c:	0d0b054a 	cfstr32eq	mvfx0, [fp, #-296]	; 0xfffffed8
     630:	02000d05 	andeq	r0, r0, #320	; 0x140
     634:	03060104 	movweq	r0, #24836	; 0x6104
     638:	11052e14 	tstne	r5, r4, lsl lr
     63c:	01040200 	mrseq	r0, R12_usr
     640:	002d0513 	eoreq	r0, sp, r3, lsl r5
     644:	06010402 	streq	r0, [r1], -r2, lsl #8
     648:	002a0501 	eoreq	r0, sl, r1, lsl #10
     64c:	2e010402 	cdpcs	4, 0, cr0, cr1, cr2, {0}
     650:	02001605 	andeq	r1, r0, #5242880	; 0x500000
     654:	054a0104 	strbeq	r0, [sl, #-260]	; 0xfffffefc
     658:	04020014 	streq	r0, [r2], #-20	; 0xffffffec
     65c:	054b0601 	strbeq	r0, [fp, #-1537]	; 0xfffff9ff
     660:	0402000d 	streq	r0, [r2], #-13
     664:	00010601 	andeq	r0, r1, r1, lsl #12
     668:	4a010402 	bmi	41678 <__bss_end__+0x38168>
     66c:	12052f06 	andne	r2, r5, #6, 30
     670:	054a0106 	strbeq	r0, [sl, #-262]	; 0xfffffefa
     674:	052f060d 	streq	r0, [pc, #-1549]!	; 6f <__code_start__-0x7f91>
     678:	05010612 	streq	r0, [r1, #-1554]	; 0xfffff9ee
     67c:	054b0619 	strbeq	r0, [fp, #-1561]	; 0xfffff9e7
     680:	04020004 	streq	r0, [r2], #-4
     684:	01110302 	tsteq	r1, r2, lsl #6
     688:	02040200 	andeq	r0, r4, #0, 4
     68c:	00020501 	andeq	r0, r2, r1, lsl #10
     690:	15020402 	strne	r0, [r2, #-1026]	; 0xfffffbfe
     694:	02000905 	andeq	r0, r0, #81920	; 0x14000
     698:	01060204 	tsteq	r6, r4, lsl #4
     69c:	02040200 	andeq	r0, r4, #0, 4
     6a0:	0001054a 	andeq	r0, r1, sl, asr #10
     6a4:	9f020402 	svcls	0x00020402
     6a8:	03060405 	movweq	r0, #25605	; 0x6405
     6ac:	09054a6e 	stmdbeq	r5, {r1, r2, r3, r5, r6, r9, fp, lr}
     6b0:	04050106 	streq	r0, [r5], #-262	; 0xfffffefa
     6b4:	06052f06 	streq	r2, [r5], -r6, lsl #30
     6b8:	04051106 	streq	r1, [r5], #-262	; 0xfffffefa
     6bc:	030b052f 	movweq	r0, #46383	; 0xb52f
     6c0:	19052e63 	stmdbne	r5, {r0, r1, r5, r6, r9, sl, fp, sp}
     6c4:	01040200 	mrseq	r0, R12_usr
     6c8:	2e240306 	cdpcs	3, 2, cr0, cr4, cr6, {0}
     6cc:	02001a05 	andeq	r1, r0, #20480	; 0x5000
     6d0:	05130104 	ldreq	r0, [r3, #-260]	; 0xfffffefc
     6d4:	04020028 	streq	r0, [r2], #-40	; 0xffffffd8
     6d8:	05010601 	streq	r0, [r1, #-1537]	; 0xfffff9ff
     6dc:	04020025 	streq	r0, [r2], #-37	; 0xffffffdb
     6e0:	1f052e01 	svcne	0x00052e01
     6e4:	01040200 	mrseq	r0, R12_usr
     6e8:	000b054a 	andeq	r0, fp, sl, asr #10
     6ec:	06010402 	streq	r0, [r1], -r2, lsl #8
     6f0:	0004054b 	andeq	r0, r4, fp, asr #10
     6f4:	06010402 	streq	r0, [r1], -r2, lsl #8
     6f8:	04020001 	streq	r0, [r2], #-1
     6fc:	02004a01 	andeq	r4, r0, #4096	; 0x1000
     700:	4e060104 	adfmis	f0, f6, f4
     704:	01040200 	mrseq	r0, R12_usr
     708:	04020001 	streq	r0, [r2], #-1
     70c:	02000101 	andeq	r0, r0, #1073741824	; 0x40000000
     710:	00010104 	andeq	r0, r1, r4, lsl #2
     714:	06010402 	streq	r0, [r1], -r2, lsl #8
     718:	0402002e 	streq	r0, [r2], #-46	; 0xffffffd2
     71c:	02006601 	andeq	r6, r0, #1048576	; 0x100000
     720:	002e0104 	eoreq	r0, lr, r4, lsl #2
     724:	06010402 	streq	r0, [r1], -r2, lsl #8
     728:	0348054a 	movteq	r0, #34122	; 0x854a
     72c:	20087fa6 	andcs	r7, r8, r6, lsr #31
     730:	01130505 	tsteq	r3, r5, lsl #10
     734:	02002e06 	andeq	r2, r0, #96	; 0x60
     738:	2e060204 	cdpcs	2, 0, cr0, cr6, cr4, {0}
     73c:	02040200 	andeq	r0, r4, #0, 4
     740:	04020001 	streq	r0, [r2], #-1
     744:	11051302 	tstne	r5, r2, lsl #6
     748:	02040200 	andeq	r0, r4, #0, 4
     74c:	05050106 	streq	r0, [r5, #-262]	; 0xfffffefa
     750:	02040200 	andeq	r0, r4, #0, 4
     754:	07054b06 	streq	r4, [r5, -r6, lsl #22]
     758:	02040200 	andeq	r0, r4, #0, 4
     75c:	09050106 	stmdbeq	r5, {r1, r2, r8}
     760:	0e054b06 	vmlaeq.f64	d4, d5, d6
     764:	48050106 	stmdami	r5, {r1, r2, r8}
     768:	01040200 	mrseq	r0, R12_usr
     76c:	00050562 	andeq	r0, r5, r2, ror #10
     770:	06010402 	streq	r0, [r1], -r2, lsl #8
     774:	0402004b 	streq	r0, [r2], #-75	; 0xffffffb5
     778:	02000101 	andeq	r0, r0, #1073741824	; 0x40000000
     77c:	9e060104 	adflss	f0, f6, f4
     780:	01040200 	mrseq	r0, R12_usr
     784:	0402002e 	streq	r0, [r2], #-46	; 0xffffffd2
     788:	052e0601 	streq	r0, [lr, #-1537]!	; 0xfffff9ff
     78c:	00e10340 	rsceq	r0, r1, r0, asr #6
     790:	050106d6 	streq	r0, [r1, #-1750]	; 0xfffff92a
     794:	059f0602 	ldreq	r0, [pc, #1538]	; d9e <__code_start__-0x7262>
     798:	0501061e 	streq	r0, [r1, #-1566]	; 0xfffff9e2
     79c:	05052e12 	streq	r2, [r5, #-3602]	; 0xfffff1ee
     7a0:	02052f06 	andeq	r2, r5, #6, 30
     7a4:	06090514 			; <UNDEFINED> instruction: 0x06090514
     7a8:	06050501 	streq	r0, [r5], -r1, lsl #10
     7ac:	1302054b 	movwne	r0, #9547	; 0x254b
     7b0:	0d060805 	stceq	8, cr0, [r6, #-20]	; 0xffffffec
     7b4:	05330205 	ldreq	r0, [r3, #-517]!	; 0xfffffdfb
     7b8:	054c0604 	strbeq	r0, [ip, #-1540]	; 0xfffff9fc
     7bc:	0501060f 	streq	r0, [r1, #-1551]	; 0xfffff9f1
     7c0:	08052e09 	stmdaeq	r5, {r0, r3, r9, sl, fp, sp}
     7c4:	02052c06 	andeq	r2, r5, #1536	; 0x600
     7c8:	0d052e06 	stceq	14, cr2, [r5, #-24]	; 0xffffffe8
     7cc:	01040200 	mrseq	r0, R12_usr
     7d0:	0603054a 	streq	r0, [r3], -sl, asr #10
     7d4:	0605054b 	streq	r0, [r5], -fp, asr #10
     7d8:	06080501 	streq	r0, [r8], -r1, lsl #10
     7dc:	060e054d 	streq	r0, [lr], -sp, asr #10
     7e0:	2e0a0501 	cfsh32cs	mvfx0, mvfx10, #1
     7e4:	2f060405 	svccs	0x00060405
     7e8:	01060905 	tsteq	r6, r5, lsl #18
     7ec:	2f060405 	svccs	0x00060405
     7f0:	01060705 	tsteq	r6, r5, lsl #14
     7f4:	0604052e 	streq	r0, [r4], -lr, lsr #10
     7f8:	06070530 			; <UNDEFINED> instruction: 0x06070530
     7fc:	06040501 	streq	r0, [r4], -r1, lsl #10
     800:	05141330 	ldreq	r1, [r4, #-816]	; 0xfffffcd0
     804:	0510060d 	ldreq	r0, [r0, #-1549]	; 0xfffff9f3
     808:	05300609 	ldreq	r0, [r0, #-1545]!	; 0xfffff9f7
     80c:	05010612 	streq	r0, [r1, #-1554]	; 0xfffff9ee
     810:	09052e0a 	stmdbeq	r5, {r1, r3, r9, sl, fp, sp}
     814:	06050566 	streq	r0, [r5], -r6, ror #10
     818:	0612054b 	ldreq	r0, [r2], -fp, asr #10
     81c:	2e160501 	cfmul32cs	mvfx0, mvfx6, mvfx1
     820:	052e0b05 	streq	r0, [lr, #-2821]!	; 0xfffff4fb
     824:	052f0605 	streq	r0, [pc, #-1541]!	; 227 <__code_start__-0x7dd9>
     828:	2e010608 	cfmadd32cs	mvax0, mvfx0, mvfx1, mvfx8
     82c:	30060405 	andcc	r0, r6, r5, lsl #8
     830:	15014a01 	strne	r4, [r1, #-2561]	; 0xfffff5ff
     834:	01040200 	mrseq	r0, R12_usr
     838:	000f3602 	andeq	r3, pc, r2, lsl #12
     83c:	01010402 	tsteq	r1, r2, lsl #8
     840:	01040200 	mrseq	r0, R12_usr
     844:	341105d6 	ldrcc	r0, [r1], #-1494	; 0xfffffa2a
     848:	02000113 	andeq	r0, r0, #-1073741820	; 0xc0000004
     84c:	ba060204 	blt	181064 <__bss_end__+0x177b54>
     850:	03040200 	movweq	r0, #16896	; 0x4200
     854:	0200ba06 	andeq	fp, r0, #24576	; 0x6000
     858:	00010304 	andeq	r0, r1, r4, lsl #6
     85c:	14030402 	strne	r0, [r3], #-1026	; 0xfffffbfe
     860:	02001505 	andeq	r1, r0, #20971520	; 0x1400000
     864:	01060304 	tsteq	r6, r4, lsl #6
     868:	02001105 	andeq	r1, r0, #1073741825	; 0x40000001
     86c:	2f060304 	svccs	0x00060304
     870:	02001a05 	andeq	r1, r0, #20480	; 0x5000
     874:	01060304 	tsteq	r6, r4, lsl #6
     878:	02001105 	andeq	r1, r0, #1073741825	; 0x40000001
     87c:	d7060304 	strle	r0, [r6, -r4, lsl #6]
     880:	03040200 	movweq	r0, #16896	; 0x4200
     884:	04020013 	streq	r0, [r2], #-19	; 0xffffffed
     888:	02001403 	andeq	r1, r0, #50331648	; 0x3000000
     88c:	00670304 	rsbeq	r0, r7, r4, lsl #6
     890:	68030402 	stmdavs	r3, {r1, sl}
     894:	02001405 	andeq	r1, r0, #83886080	; 0x5000000
     898:	01060304 	tsteq	r6, r4, lsl #6
     89c:	02001305 	andeq	r1, r0, #335544320	; 0x14000000
     8a0:	05820304 	streq	r0, [r2, #772]	; 0x304
     8a4:	054e0618 	strbeq	r0, [lr, #-1560]	; 0xfffff9e8
     8a8:	0501061b 	streq	r0, [r1, #-1563]	; 0xfffff9e5
     8ac:	0905821a 	stmdbeq	r5, {r1, r3, r4, r9, pc}
     8b0:	0d054b06 	vstreq	d4, [r5, #-24]	; 0xffffffe8
     8b4:	052e0106 	streq	r0, [lr, #-262]!	; 0xfffffefa
     8b8:	06f30609 	ldrbteq	r0, [r3], r9, lsl #12
     8bc:	061505ba 			; <UNDEFINED> instruction: 0x061505ba
     8c0:	06180530 			; <UNDEFINED> instruction: 0x06180530
     8c4:	66170501 	ldrvs	r0, [r7], -r1, lsl #10
     8c8:	4b061905 	blmi	186ce4 <__bss_end__+0x17d7d4>
     8cc:	03061505 	movweq	r1, #25861	; 0x6505
     8d0:	1105666f 	tstne	r5, pc, ror #12
     8d4:	d6014806 	strle	r4, [r1], -r6, lsl #16
     8d8:	0b030905 	bleq	c2cf4 <__bss_end__+0xb97e4>
     8dc:	060d052e 	streq	r0, [sp], -lr, lsr #10
     8e0:	09052e01 	stmdbeq	r5, {r0, r9, sl, fp, sp}
     8e4:	ba06f306 	blt	1bd504 <__bss_end__+0x1b3ff4>
     8e8:	2f061505 	svccs	0x00061505
     8ec:	66750306 	ldrbtvs	r0, [r5], -r6, lsl #6
     8f0:	03061905 	movweq	r1, #26885	; 0x6905
     8f4:	15054a13 	strne	r4, [r5, #-2579]	; 0xfffff5ed
     8f8:	666d0306 	strbtvs	r0, [sp], -r6, lsl #6
     8fc:	4a150306 	bmi	54151c <__bss_end__+0x53800c>
     900:	2e06ba01 	vmlacs.f32	s22, s12, s2
     904:	1a060505 	bne	181d20 <__bss_end__+0x178810>
     908:	032e9e01 			; <UNDEFINED> instruction: 0x032e9e01
     90c:	0905010e 	stmdbeq	r5, {r1, r2, r3, r8}
     910:	05050106 	streq	r0, [r5, #-262]	; 0xfffffefa
     914:	05750806 	ldrbeq	r0, [r5, #-2054]!	; 0xfffff7fa
     918:	01180304 	tsteq	r8, r4, lsl #6
     91c:	01060705 	tsteq	r6, r5, lsl #14
     920:	31060405 	tstcc	r6, r5, lsl #8
     924:	67030505 	strvs	r0, [r3, -r5, lsl #10]
     928:	061c052e 	ldreq	r0, [ip], -lr, lsr #10
     92c:	82090501 	andhi	r0, r9, #4194304	; 0x400000
     930:	f3060505 	vrshl.u8	d0, d5, d6
     934:	061c0531 			; <UNDEFINED> instruction: 0x061c0531
     938:	82090501 	andhi	r0, r9, #4194304	; 0x400000
     93c:	f3060505 	vrshl.u8	d0, d5, d6
     940:	061b0530 			; <UNDEFINED> instruction: 0x061b0530
     944:	82090501 	andhi	r0, r9, #4194304	; 0x400000
     948:	f3060505 	vrshl.u8	d0, d5, d6
     94c:	06070530 			; <UNDEFINED> instruction: 0x06070530
     950:	06050501 	streq	r0, [r5], -r1, lsl #10
     954:	09053083 	stmdbeq	r5, {r0, r1, r7, ip, sp}
     958:	05050106 	streq	r0, [r5, #-262]	; 0xfffffefa
     95c:	05750806 	ldrbeq	r0, [r5, #-2054]!	; 0xfffff7fa
     960:	22053011 	andcs	r3, r5, #17, 0
     964:	05050106 	streq	r0, [r5, #-262]	; 0xfffffefa
     968:	11054b06 	tstne	r5, r6, lsl #22
     96c:	83050583 	movwhi	r0, #21891	; 0x5583
     970:	05359e01 	ldreq	r9, [r5, #-3585]!	; 0xfffff1ff
     974:	0501060e 	streq	r0, [r1, #-1550]	; 0xfffff9f2
     978:	2d062e0a 	stccs	14, cr2, [r6, #-40]	; 0xffffffd8
     97c:	01060405 	tsteq	r6, r5, lsl #8
     980:	02001305 	andeq	r1, r0, #335544320	; 0x14000000
     984:	054a0104 	strbeq	r0, [sl, #-260]	; 0xfffffefc
     988:	04020010 	streq	r0, [r2], #-16
     98c:	02002e01 	andeq	r2, r0, #1, 28
     990:	05660104 	strbeq	r0, [r6, #-260]!	; 0xfffffefc
     994:	05160602 	ldreq	r0, [r6, #-1538]	; 0xfffff9fe
     998:	05010607 	streq	r0, [r1, #-1543]	; 0xfffff9f9
     99c:	054b0602 	strbeq	r0, [fp, #-1538]	; 0xfffff9fe
     9a0:	66130601 	ldrvs	r0, [r3], -r1, lsl #12
     9a4:	01001e02 	tsteq	r0, r2, lsl #28
     9a8:	00007f01 	andeq	r7, r0, r1, lsl #30
     9ac:	64000300 	strvs	r0, [r0], #-768	; 0xfffffd00
     9b0:	02000000 	andeq	r0, r0, #0, 0
     9b4:	0d0efb01 	vstreq	d15, [lr, #-4]
     9b8:	01010100 	mrseq	r0, (UNDEF: 17)
     9bc:	00000001 	andeq	r0, r0, r1
     9c0:	01000001 	tsteq	r0, r1
     9c4:	74732f2e 	ldrbtvc	r2, [r3], #-3886	; 0xfffff0d2
     9c8:	2d666661 	stclcs	6, cr6, [r6, #-388]!	; 0xfffffe7c
     9cc:	00637273 	rsbeq	r7, r3, r3, ror r2
     9d0:	6573552f 	ldrbvs	r5, [r3, #-1327]!	; 0xfffffad1
     9d4:	6d2f7372 	stcvs	3, cr7, [pc, #-456]!	; 814 <__code_start__-0x77ec>
     9d8:	73656c69 	cmnvc	r5, #26880	; 0x6900
     9dc:	756f532f 	strbvc	r5, [pc, #-815]!	; 6b5 <__code_start__-0x794b>
     9e0:	2f656372 	svccs	0x00656372
     9e4:	34327363 	ldrtcc	r7, [r2], #-867	; 0xfffffc9d
     9e8:	2f786c30 	svccs	0x00786c30
     9ec:	7062696c 	rsbvc	r6, r2, ip, ror #18
     9f0:	6e692f69 	cdpvs	15, 6, cr2, cr9, cr9, {3}
     9f4:	64756c63 	ldrbtvs	r6, [r5], #-3171	; 0xfffff39d
     9f8:	63000065 	movwvs	r0, #101	; 0x65
     9fc:	6e61656c 	cdpvs	5, 6, cr6, cr1, cr12, {3}
     a00:	6265722d 	rsbvs	r7, r5, #-805306366	; 0xd0000002
     a04:	2e746f6f 	cdpcs	15, 7, cr6, cr4, cr15, {3}
     a08:	00010063 	andeq	r0, r1, r3, rrx
     a0c:	69707200 	ldmdbvs	r0!, {r9, ip, sp, lr}^
     a10:	0200682e 	andeq	r6, r0, #3014656	; 0x2e0000
     a14:	05000000 	streq	r0, [r0, #-0]
     a18:	02050019 	andeq	r0, r5, #25, 0
     a1c:	00008914 	andeq	r8, r0, r4, lsl r9
     a20:	2f050515 	svccs	0x00050515
     a24:	024b2f83 	subeq	r2, fp, #524	; 0x20c
     a28:	01010006 	tsteq	r1, r6
     a2c:	00000099 	muleq	r0, r9, r0
     a30:	005e0003 	subseq	r0, lr, r3
     a34:	01020000 	mrseq	r0, (UNDEF: 2)
     a38:	000d0efb 	strdeq	r0, [sp], -fp
     a3c:	01010101 	tsteq	r1, r1, lsl #2
     a40:	01000000 	mrseq	r0, (UNDEF: 0)
     a44:	2e010000 	cdpcs	0, 0, cr0, cr1, cr0, {0}
     a48:	6174732f 	cmnvs	r4, pc, lsr #6
     a4c:	732d6666 			; <UNDEFINED> instruction: 0x732d6666
     a50:	2f006372 	svccs	0x00006372
     a54:	72657355 	rsbvc	r7, r5, #1409286145	; 0x54000001
     a58:	696d2f73 	stmdbvs	sp!, {r0, r1, r4, r5, r6, r8, r9, sl, fp, sp}^
     a5c:	2f73656c 	svccs	0x0073656c
     a60:	72756f53 	rsbsvc	r6, r5, #332	; 0x14c
     a64:	632f6563 			; <UNDEFINED> instruction: 0x632f6563
     a68:	30343273 	eorscc	r3, r4, r3, ror r2
     a6c:	6c2f786c 	stcvs	8, cr7, [pc], #-432	; 8c4 <__code_start__-0x773c>
     a70:	69706269 	ldmdbvs	r0!, {r0, r3, r5, r6, r9, sp, lr}^
     a74:	636e692f 	cmnvs	lr, #770048	; 0xbc000
     a78:	6564756c 	strbvs	r7, [r4, #-1388]!	; 0xfffffa94
     a7c:	73630000 	cmnvc	r3, #0, 0
     a80:	74726174 	ldrbtvc	r6, [r2], #-372	; 0xfffffe8c
     a84:	0100632e 	tsteq	r0, lr, lsr #6
     a88:	70720000 	rsbsvc	r0, r2, r0
     a8c:	00682e69 	rsbeq	r2, r8, r9, ror #28
     a90:	00000002 	andeq	r0, r0, r2
     a94:	05001005 	streq	r1, [r0, #-5]
     a98:	00894002 	addeq	r4, r9, r2
     a9c:	05051500 	streq	r1, [r5, #-1280]	; 0xfffffb00
     aa0:	1302052f 	movwne	r0, #9519	; 0x252f
     aa4:	30140505 	andscc	r0, r4, r5, lsl #10
     aa8:	0a051413 	beq	145afc <__bss_end__+0x13c5ec>
     aac:	31060f06 	tstcc	r6, r6, lsl #30
     ab0:	054b0905 	strbeq	r0, [fp, #-2309]	; 0xfffff6fb
     ab4:	4a010610 	bmi	422fc <__bss_end__+0x38dec>
     ab8:	30060505 	andcc	r0, r6, r5, lsl #10
     abc:	4a010132 	bmi	40f8c <__bss_end__+0x37a7c>
     ac0:	2f020514 	svccs	0x00020514
     ac4:	01000602 	tsteq	r0, r2, lsl #12
     ac8:	00007d01 	andeq	r7, r0, r1, lsl #26
     acc:	65000300 	strvs	r0, [r0, #-768]	; 0xfffffd00
     ad0:	02000000 	andeq	r0, r0, #0, 0
     ad4:	0d0efb01 	vstreq	d15, [lr, #-4]
     ad8:	01010100 	mrseq	r0, (UNDEF: 17)
     adc:	00000001 	andeq	r0, r0, r1
     ae0:	01000001 	tsteq	r0, r1
     ae4:	74732f2e 	ldrbtvc	r2, [r3], #-3886	; 0xfffff0d2
     ae8:	2d666661 	stclcs	6, cr6, [r6, #-388]!	; 0xfffffe7c
     aec:	00637273 	rsbeq	r7, r3, r3, ror r2
     af0:	6573552f 	ldrbvs	r5, [r3, #-1327]!	; 0xfffffad1
     af4:	6d2f7372 	stcvs	3, cr7, [pc, #-456]!	; 934 <__code_start__-0x76cc>
     af8:	73656c69 	cmnvc	r5, #26880	; 0x6900
     afc:	756f532f 	strbvc	r5, [pc, #-815]!	; 7d5 <__code_start__-0x782b>
     b00:	2f656372 	svccs	0x00656372
     b04:	34327363 	ldrtcc	r7, [r2], #-867	; 0xfffffc9d
     b08:	2f786c30 	svccs	0x00786c30
     b0c:	7062696c 	rsbvc	r6, r2, ip, ror #18
     b10:	6e692f69 	cdpvs	15, 6, cr2, cr9, cr9, {3}
     b14:	64756c63 	ldrbtvs	r6, [r5], #-3171	; 0xfffff39d
     b18:	63000065 	movwvs	r0, #101	; 0x65
     b1c:	6f747375 	svcvs	0x00747375
     b20:	6f6c2d6d 	svcvs	0x006c2d6d
     b24:	72656461 	rsbvc	r6, r5, #1627389952	; 0x61000000
     b28:	0100632e 	tsteq	r0, lr, lsr #6
     b2c:	70720000 	rsbsvc	r0, r2, r0
     b30:	00682e69 	rsbeq	r2, r8, r9, ror #28
     b34:	00000002 	andeq	r0, r0, r2
     b38:	05001a05 	streq	r1, [r0, #-2565]	; 0xfffff5fb
     b3c:	00897c02 	addeq	r7, r9, r2, lsl #24
     b40:	01051500 	tsteq	r5, r0, lsl #10
     b44:	00020214 	andeq	r0, r2, r4, lsl r2
     b48:	00cd0101 	sbceq	r0, sp, r1, lsl #2
     b4c:	00030000 	andeq	r0, r3, r0
     b50:	0000005e 	andeq	r0, r0, lr, asr r0
     b54:	0efb0102 	cdpeq	1, 15, cr0, cr11, cr2, {0}
     b58:	0101000d 	tsteq	r1, sp
     b5c:	00000101 	andeq	r0, r0, r1, lsl #2
     b60:	00000100 	andeq	r0, r0, r0, lsl #2
     b64:	732f2e01 			; <UNDEFINED> instruction: 0x732f2e01
     b68:	66666174 			; <UNDEFINED> instruction: 0x66666174
     b6c:	6372732d 	cmnvs	r2, #-1275068416	; 0xb4000000
     b70:	73552f00 	cmpvc	r5, #0, 30
     b74:	2f737265 	svccs	0x00737265
     b78:	656c696d 	strbvs	r6, [ip, #-2413]!	; 0xfffff693
     b7c:	6f532f73 	svcvs	0x00532f73
     b80:	65637275 	strbvs	r7, [r3, #-629]!	; 0xfffffd8b
     b84:	3273632f 	rsbscc	r6, r3, #-1140850688	; 0xbc000000
     b88:	786c3034 	stmdavc	ip!, {r2, r4, r5, ip, sp}^
     b8c:	62696c2f 	rsbvs	r6, r9, #12032	; 0x2f00
     b90:	692f6970 	stmdbvs	pc!, {r4, r5, r6, r8, fp, sp, lr}	; <UNPREDICTABLE>
     b94:	756c636e 	strbvc	r6, [ip, #-878]!	; 0xfffffc92
     b98:	00006564 	andeq	r6, r0, r4, ror #10
     b9c:	6f626572 	svcvs	0x00626572
     ba0:	632e746f 			; <UNDEFINED> instruction: 0x632e746f
     ba4:	00000100 	andeq	r0, r0, r0, lsl #2
     ba8:	2e697072 	mcrcs	0, 3, r7, cr9, cr2, {3}
     bac:	00020068 	andeq	r0, r2, r8, rrx
     bb0:	19050000 	stmdbne	r5, {}	; <UNPREDICTABLE>
     bb4:	80020500 	andhi	r0, r2, r0, lsl #10
     bb8:	03000089 	movweq	r0, #137	; 0x89
     bbc:	0505010d 	streq	r0, [r5, #-269]	; 0xfffffef3
     bc0:	05311313 	ldreq	r1, [r1, #-787]!	; 0xfffffced
     bc4:	05010613 	streq	r0, [r1, #-1555]	; 0xfffff9ed
     bc8:	1b052f01 	blne	14c7d4 <__bss_end__+0x1432c4>
     bcc:	05058506 	streq	r8, [r5, #-1286]	; 0xfffffafa
     bd0:	09051413 	stmdbeq	r5, {r0, r1, r4, sl, ip}
     bd4:	0616052f 	ldreq	r0, [r6], -pc, lsr #10
     bd8:	2e0e0501 	cfsh32cs	mvfx0, mvfx14, #1
     bdc:	2f060505 	svccs	0x00060505
     be0:	2f060105 	svccs	0x00060105
     be4:	30061705 	andcc	r1, r6, r5, lsl #14
     be8:	052f0505 	streq	r0, [pc, #-1285]!	; 6eb <__code_start__-0x7915>
     bec:	05010608 	streq	r0, [r1, #-1544]	; 0xfffff9f8
     bf0:	05052e07 	streq	r2, [r5, #-3591]	; 0xfffff1f9
     bf4:	2f305006 	svccs	0x00305006
     bf8:	1313134d 	tstne	r3, #872415233	; 0x34000001
     bfc:	02006715 	andeq	r6, r0, #5505024	; 0x540000
     c00:	05670104 	strbeq	r0, [r7, #-260]!	; 0xfffffefc
     c04:	0402000d 	streq	r0, [r2], #-13
     c08:	0a050101 	beq	141014 <__bss_end__+0x137b04>
     c0c:	01040200 	mrseq	r0, R12_usr
     c10:	03090501 	movweq	r0, #38145	; 0x9501
     c14:	0c022e6d 	stceq	14, cr2, [r2], {109}	; 0x6d
     c18:	d4010100 	strle	r0, [r1], #-256	; 0xffffff00
     c1c:	03000000 	movweq	r0, #0
     c20:	00005d00 	andeq	r5, r0, r0, lsl #26
     c24:	fb010200 	blx	4142e <__bss_end__+0x37f1e>
     c28:	01000d0e 	tsteq	r0, lr, lsl #26
     c2c:	00010101 	andeq	r0, r1, r1, lsl #2
     c30:	00010000 	andeq	r0, r1, r0
     c34:	2f2e0100 	svccs	0x002e0100
     c38:	66617473 			; <UNDEFINED> instruction: 0x66617473
     c3c:	72732d66 	rsbsvc	r2, r3, #6528	; 0x1980
     c40:	552f0063 	strpl	r0, [pc, #-99]!	; be5 <__code_start__-0x741b>
     c44:	73726573 	cmnvc	r2, #482344960	; 0x1cc00000
     c48:	6c696d2f 	stclvs	13, cr6, [r9], #-188	; 0xffffff44
     c4c:	532f7365 			; <UNDEFINED> instruction: 0x532f7365
     c50:	6372756f 	cmnvs	r2, #465567744	; 0x1bc00000
     c54:	73632f65 	cmnvc	r3, #404	; 0x194
     c58:	6c303432 	cfldrsvs	mvf3, [r0], #-200	; 0xffffff38
     c5c:	696c2f78 	stmdbvs	ip!, {r3, r4, r5, r6, r8, r9, sl, fp, sp}^
     c60:	2f697062 	svccs	0x00697062
     c64:	6c636e69 	stclvs	14, cr6, [r3], #-420	; 0xfffffe5c
     c68:	00656475 	rsbeq	r6, r5, r5, ror r4
     c6c:	6d697400 	cfstrdvs	mvd7, [r9, #-0]
     c70:	632e7265 			; <UNDEFINED> instruction: 0x632e7265
     c74:	00000100 	andeq	r0, r0, r0, lsl #2
     c78:	2e697072 	mcrcs	0, 3, r7, cr9, cr2, {3}
     c7c:	00020068 	andeq	r0, r2, r8, rrx
     c80:	23050000 	movwcs	r0, #20480	; 0x5000
     c84:	00020500 	andeq	r0, r2, r0, lsl #10
     c88:	1500008a 	strne	r0, [r0, #-138]	; 0xffffff76
     c8c:	052f0505 	streq	r0, [pc, #-1285]!	; 78f <__code_start__-0x7871>
     c90:	0501060c 	streq	r0, [r1, #-1548]	; 0xfffff9f4
     c94:	1f054b01 	svcne	0x00054b01
     c98:	05054d06 	streq	r4, [r5, #-3334]	; 0xfffff2fa
     c9c:	12052f31 	andne	r2, r5, #196	; 0xc4
     ca0:	05050106 	streq	r0, [r5, #-262]	; 0xfffffefa
     ca4:	052f4b06 	streq	r4, [pc, #-2822]!	; 1a6 <__code_start__-0x7e5a>
     ca8:	05130601 	ldreq	r0, [r3, #-1537]	; 0xfffff9ff
     cac:	064c061c 			; <UNDEFINED> instruction: 0x064c061c
     cb0:	06050501 	streq	r0, [r5], -r1, lsl #10
     cb4:	0613054b 	ldreq	r0, [r3], -fp, asr #10
     cb8:	05052e01 	streq	r2, [r5, #-3585]	; 0xfffff1ff
     cbc:	09052f06 	stmdbeq	r5, {r1, r2, r8, r9, sl, fp, sp}
     cc0:	06170513 			; <UNDEFINED> instruction: 0x06170513
     cc4:	06090501 	streq	r0, [r9], -r1, lsl #10
     cc8:	0611052f 	ldreq	r0, [r1], -pc, lsr #10
     ccc:	2e0c0501 	cfsh32cs	mvfx0, mvfx12, #1
     cd0:	6b061c05 	blvs	187cec <__bss_end__+0x17e7dc>
     cd4:	05050106 	streq	r0, [r5, #-262]	; 0xfffffefa
     cd8:	4a062f06 	bmi	18c8f8 <__bss_end__+0x1833e8>
     cdc:	054b0105 	strbeq	r0, [fp, #-261]	; 0xfffffefb
     ce0:	062f061e 			; <UNDEFINED> instruction: 0x062f061e
     ce4:	06050501 	streq	r0, [r5], -r1, lsl #10
     ce8:	054a062f 	strbeq	r0, [sl, #-1583]	; 0xfffff9d1
     cec:	02024b01 	andeq	r4, r2, #1024	; 0x400
     cf0:	04010100 	streq	r0, [r1], #-256	; 0xffffff00
     cf4:	03000002 	movweq	r0, #2
     cf8:	0000c800 	andeq	ip, r0, r0, lsl #16
     cfc:	fb010200 	blx	41506 <__bss_end__+0x37ff6>
     d00:	01000d0e 	tsteq	r0, lr, lsl #26
     d04:	00010101 	andeq	r0, r1, r1, lsl #2
     d08:	00010000 	andeq	r0, r1, r0
     d0c:	682f0100 	stmdavs	pc!, {r8}	; <UNPREDICTABLE>
     d10:	2f656d6f 	svccs	0x00656d6f
     d14:	6c676e65 	stclvs	14, cr6, [r7], #-404	; 0xfffffe6c
     d18:	632f7265 			; <UNDEFINED> instruction: 0x632f7265
     d1c:	7373616c 	cmnvc	r3, #27
     d20:	3173632f 	cmncc	r3, pc, lsr #6
     d24:	2d653034 	stclcs	0, cr3, [r5, #-208]!	; 0xffffff30
     d28:	69773232 	ldmdbvs	r7!, {r1, r4, r5, r9, ip, sp}^
     d2c:	6c2f2f6e 	stcvs	15, cr2, [pc], #-440	; b7c <__code_start__-0x7484>
     d30:	69706269 	ldmdbvs	r0!, {r0, r3, r5, r6, r9, sp, lr}^
     d34:	636e692f 	cmnvs	lr, #770048	; 0xbc000
     d38:	6564756c 	strbvs	r7, [r4, #-1388]!	; 0xfffffa94
     d3c:	73752f00 	cmnvc	r5, #0, 30
     d40:	68732f72 	ldmdavs	r3!, {r1, r4, r5, r6, r8, r9, sl, fp, sp}^
     d44:	2f657261 	svccs	0x00657261
     d48:	2d636367 	stclcs	3, cr6, [r3, #-412]!	; 0xfffffe64
     d4c:	2d6d7261 	sfmcs	f7, 2, [sp, #-388]!	; 0xfffffe7c
     d50:	656e6f6e 	strbvs	r6, [lr, #-3950]!	; 0xfffff092
     d54:	6261652d 	rsbvs	r6, r1, #188743680	; 0xb400000
     d58:	30312d69 	eorscc	r2, r1, r9, ror #26
     d5c:	322d332e 	eorcc	r3, sp, #-1207959552	; 0xb8000000
     d60:	2e313230 	mrccs	2, 1, r3, cr1, cr0, {1}
     d64:	6c2f3031 	stcvs	0, cr3, [pc], #-196	; ca8 <__code_start__-0x7358>
     d68:	672f6269 	strvs	r6, [pc, -r9, ror #4]!
     d6c:	612f6363 			; <UNDEFINED> instruction: 0x612f6363
     d70:	6e2d6d72 	mcrvs	13, 1, r6, cr13, cr2, {3}
     d74:	2d656e6f 	stclcs	14, cr6, [r5, #-444]!	; 0xfffffe44
     d78:	69626165 	stmdbvs	r2!, {r0, r2, r5, r6, r8, sp, lr}^
     d7c:	2e30312f 	rsfcssp	f3, f0, #10.0
     d80:	2f312e33 	svccs	0x00312e33
     d84:	6c636e69 	stclvs	14, cr6, [r3], #-420	; 0xfffffe5c
     d88:	00656475 	rsbeq	r6, r5, r5, ror r4
     d8c:	72617500 	rsbvc	r7, r1, #0, 10
     d90:	00632e74 	rsbeq	r2, r3, r4, ror lr
     d94:	75000000 	strvc	r0, [r0, #-0]
     d98:	2e747261 	cdpcs	2, 7, cr7, cr4, cr1, {3}
     d9c:	00010068 	andeq	r0, r1, r8, rrx
     da0:	69707200 	ldmdbvs	r0!, {r9, ip, sp, lr}^
     da4:	0100682e 	tsteq	r0, lr, lsr #16
     da8:	70670000 	rsbvc	r0, r7, r0
     dac:	682e6f69 	stmdavs	lr!, {r0, r3, r5, r6, r8, r9, sl, fp, sp, lr}
     db0:	00000100 	andeq	r0, r0, r0, lsl #2
     db4:	69647473 	stmdbvs	r4!, {r0, r1, r4, r5, r6, sl, ip, sp, lr}^
     db8:	672d746e 	strvs	r7, [sp, -lr, ror #8]!
     dbc:	682e6363 	stmdavs	lr!, {r0, r1, r5, r6, r8, r9, sp, lr}
     dc0:	00000200 	andeq	r0, r0, r0, lsl #4
     dc4:	00390500 	eorseq	r0, r9, r0, lsl #10
     dc8:	8a840205 	bhi	fe1015e4 <__bss_end__+0xfe0f80d4>
     dcc:	30030000 	andcc	r0, r3, r0
     dd0:	05010601 	streq	r0, [r1, #-1537]	; 0xfffff9ff
     dd4:	05670605 	strbeq	r0, [r7, #-1541]!	; 0xfffff9fb
     dd8:	05010611 	streq	r0, [r1, #-1553]	; 0xfffff9ef
     ddc:	01052e05 	tsteq	r5, r5, lsl #28
     de0:	06380567 	ldrteq	r0, [r8], -r7, ror #10
     de4:	05010629 	streq	r0, [r1, #-1577]	; 0xfffff9d7
     de8:	05670605 	strbeq	r0, [r7, #-1541]!	; 0xfffff9fb
     dec:	05010611 	streq	r0, [r1, #-1553]	; 0xfffff9ef
     df0:	01052e05 	tsteq	r5, r5, lsl #28
     df4:	06160567 	ldreq	r0, [r6], -r7, ror #10
     df8:	052e1503 	streq	r1, [lr, #-1283]!	; 0xfffffafd
     dfc:	68673505 	stmdavs	r7!, {r0, r2, r8, sl, ip, sp}^
     e00:	0c036835 	stceq	8, cr6, [r3], {53}	; 0x35
     e04:	696b852e 	stmdbvs	fp!, {r1, r2, r3, r5, r8, sl, pc}^
     e08:	660c0369 	strvs	r0, [ip], -r9, ror #6
     e0c:	05676b13 	strbeq	r6, [r7, #-2835]!	; 0xfffff4ed
     e10:	052f0601 	streq	r0, [pc, #-1537]!	; 817 <__code_start__-0x77e9>
     e14:	25080619 	strcs	r0, [r8, #-1561]	; 0xfffff9e7
     e18:	05340505 	ldreq	r0, [r4, #-1285]!	; 0xfffffafb
     e1c:	0501060d 	streq	r0, [r1, #-1549]	; 0xfffff9f3
     e20:	19054c01 	stmdbne	r5, {r0, sl, fp, lr}
     e24:	05056706 	streq	r6, [r5, #-1798]	; 0xfffff8fa
     e28:	060d0536 			; <UNDEFINED> instruction: 0x060d0536
     e2c:	4a280501 	bmi	a02238 <__bss_end__+0x9f8d28>
     e30:	05300105 	ldreq	r0, [r0, #-261]!	; 0xfffffefb
     e34:	05870615 	streq	r0, [r7, #1557]	; 0x615
     e38:	052f2f05 	streq	r2, [pc, #-3845]!	; ffffff3b <__bss_end__+0xffff6a2b>
     e3c:	04020009 	streq	r0, [r2], #-9
     e40:	0a051301 	beq	145a4c <__bss_end__+0x13c53c>
     e44:	01040200 	mrseq	r0, R12_usr
     e48:	000c0511 	andeq	r0, ip, r1, lsl r5
     e4c:	06010402 	streq	r0, [r1], -r2, lsl #8
     e50:	000a0501 	andeq	r0, sl, r1, lsl #10
     e54:	2e010402 	cdpcs	4, 0, cr0, cr1, cr2, {0}
     e58:	4c060505 	cfstr32mi	mvfx0, [r6], {5}
     e5c:	01060e05 	tsteq	r6, r5, lsl #28
     e60:	054a0905 	strbeq	r0, [sl, #-2309]	; 0xfffff6fb
     e64:	2f2f0605 	svccs	0x002f0605
     e68:	13060105 	movwne	r0, #24837	; 0x6105
     e6c:	67061c05 	strvs	r1, [r6, -r5, lsl #24]
     e70:	05050106 	streq	r0, [r5, #-262]	; 0xfffffefa
     e74:	052f4b06 	streq	r4, [pc, #-2822]!	; 376 <__code_start__-0x7c8a>
     e78:	04020009 	streq	r0, [r2], #-9
     e7c:	0a051301 	beq	145a88 <__bss_end__+0x13c578>
     e80:	01040200 	mrseq	r0, R12_usr
     e84:	000c0511 	andeq	r0, ip, r1, lsl r5
     e88:	06010402 	streq	r0, [r1], -r2, lsl #8
     e8c:	000a0501 	andeq	r0, sl, r1, lsl #10
     e90:	2e010402 	cdpcs	4, 0, cr0, cr1, cr2, {0}
     e94:	4c060505 	cfstr32mi	mvfx0, [r6], {5}
     e98:	06010567 	streq	r0, [r1], -r7, ror #10
     e9c:	0619052f 	ldreq	r0, [r9], -pc, lsr #10
     ea0:	2e1b054c 	cfmac32cs	mvfx0, mvfx11, mvfx12
     ea4:	052e2a05 	streq	r2, [lr, #-2565]!	; 0xfffff5fb
     ea8:	05010631 	streq	r0, [r1, #-1585]	; 0xfffff9cf
     eac:	1c052e42 	stcne	14, cr2, [r5], {66}	; 0x42
     eb0:	05053106 	streq	r3, [r5, #-262]	; 0xfffffefa
     eb4:	2e09032f 	cdpcs	3, 0, cr0, cr9, cr15, {1}
     eb8:	01060e05 	tsteq	r6, r5, lsl #28
     ebc:	054a2105 	strbeq	r2, [sl, #-261]	; 0xfffffefb
     ec0:	2e0a0301 	cdpcs	3, 0, cr0, cr10, cr1, {0}
     ec4:	68061a05 	stmdavs	r6, {r0, r2, r9, fp, ip}
     ec8:	02000905 	andeq	r0, r0, #81920	; 0x14000
     ecc:	05300104 	ldreq	r0, [r0, #-260]!	; 0xfffffefc
     ed0:	0402000a 	streq	r0, [r2], #-10
     ed4:	0c051101 	stfeqs	f1, [r5], {1}
     ed8:	01040200 	mrseq	r0, R12_usr
     edc:	0a050106 	beq	1412fc <__bss_end__+0x137dec>
     ee0:	01040200 	mrseq	r0, R12_usr
     ee4:	0619052e 	ldreq	r0, [r9], -lr, lsr #10
     ee8:	667ee803 	ldrbtvs	lr, [lr], -r3, lsl #16
     eec:	2f2f0505 	svccs	0x002f0505
     ef0:	0105672f 	tsteq	r5, pc, lsr #14
     ef4:	04022f06 	streq	r2, [r2], #-3846	; 0xfffff0fa
     ef8:	98010100 	stmdals	r1, {r8}
     efc:	03000000 	movweq	r0, #0
     f00:	00005a00 	andeq	r5, r0, r0, lsl #20
     f04:	fb010200 	blx	4170e <__bss_end__+0x381fe>
     f08:	01000d0e 	tsteq	r0, lr, lsl #26
     f0c:	00010101 	andeq	r0, r1, r1, lsl #2
     f10:	00010000 	andeq	r0, r1, r0
     f14:	2f2e0100 	svccs	0x002e0100
     f18:	6362696c 	cmnvs	r2, #108, 18	; 0x1b0000
     f1c:	73552f00 	cmpvc	r5, #0, 30
     f20:	2f737265 	svccs	0x00737265
     f24:	656c696d 	strbvs	r6, [ip, #-2413]!	; 0xfffff693
     f28:	6f532f73 	svcvs	0x00532f73
     f2c:	65637275 	strbvs	r7, [r3, #-629]!	; 0xfffffd8b
     f30:	3273632f 	rsbscc	r6, r3, #-1140850688	; 0xbc000000
     f34:	786c3034 	stmdavc	ip!, {r2, r4, r5, ip, sp}^
     f38:	62696c2f 	rsbvs	r6, r9, #12032	; 0x2f00
     f3c:	692f6970 	stmdbvs	pc!, {r4, r5, r6, r8, fp, sp, lr}	; <UNPREDICTABLE>
     f40:	756c636e 	strbvc	r6, [ip, #-878]!	; 0xfffffc92
     f44:	00006564 	andeq	r6, r0, r4, ror #10
     f48:	63747570 	cmnvs	r4, #112, 10	; 0x1c000000
     f4c:	2e726168 	rpwcssz	f6, f2, #0.0
     f50:	00010063 	andeq	r0, r1, r3, rrx
     f54:	69707200 	ldmdbvs	r0!, {r9, ip, sp, lr}^
     f58:	0200682e 	andeq	r6, r0, #3014656	; 0x2e0000
     f5c:	05000000 	streq	r0, [r0, #-0]
     f60:	02050024 	andeq	r0, r5, #36, 0	; 0x24
     f64:	00008c74 	andeq	r8, r0, r4, ror ip
     f68:	05010614 	streq	r0, [r1, #-1556]	; 0xfffff9ec
     f6c:	054a0626 	strbeq	r0, [sl, #-1574]	; 0xfffff9da
     f70:	01052e34 	tsteq	r5, r4, lsr lr
     f74:	1b050106 	blne	141394 <__bss_end__+0x137e84>
     f78:	05054f06 	streq	r4, [r5, #-3846]	; 0xfffff0fa
     f7c:	06110513 			; <UNDEFINED> instruction: 0x06110513
     f80:	67010501 	strvs	r0, [r1, -r1, lsl #10]
     f84:	67062305 	strvs	r2, [r6, -r5, lsl #6]
     f88:	05130505 	ldreq	r0, [r3, #-1285]	; 0xfffffafb
     f8c:	05010611 	streq	r0, [r1, #-1553]	; 0xfffff9ef
     f90:	04024b01 	streq	r4, [r2], #-2817	; 0xfffff4ff
     f94:	e4010100 	str	r0, [r1], #-256	; 0xffffff00
     f98:	03000000 	movweq	r0, #0
     f9c:	00005900 	andeq	r5, r0, r0, lsl #18
     fa0:	fb010200 	blx	417aa <__bss_end__+0x3829a>
     fa4:	01000d0e 	tsteq	r0, lr, lsl #26
     fa8:	00010101 	andeq	r0, r1, r1, lsl #2
     fac:	00010000 	andeq	r0, r1, r0
     fb0:	2f2e0100 	svccs	0x002e0100
     fb4:	6362696c 	cmnvs	r2, #108, 18	; 0x1b0000
     fb8:	73552f00 	cmpvc	r5, #0, 30
     fbc:	2f737265 	svccs	0x00737265
     fc0:	656c696d 	strbvs	r6, [ip, #-2413]!	; 0xfffff693
     fc4:	6f532f73 	svcvs	0x00532f73
     fc8:	65637275 	strbvs	r7, [r3, #-629]!	; 0xfffffd8b
     fcc:	3273632f 	rsbscc	r6, r3, #-1140850688	; 0xbc000000
     fd0:	786c3034 	stmdavc	ip!, {r2, r4, r5, ip, sp}^
     fd4:	62696c2f 	rsbvs	r6, r9, #12032	; 0x2f00
     fd8:	692f6970 	stmdbvs	pc!, {r4, r5, r6, r8, fp, sp, lr}	; <UNPREDICTABLE>
     fdc:	756c636e 	strbvc	r6, [ip, #-878]!	; 0xfffffc92
     fe0:	00006564 	andeq	r6, r0, r4, ror #10
     fe4:	63727473 	cmnvs	r2, #1929379840	; 0x73000000
     fe8:	632e7461 			; <UNDEFINED> instruction: 0x632e7461
     fec:	00000100 	andeq	r0, r0, r0, lsl #2
     ff0:	2e697072 	mcrcs	0, 3, r7, cr9, cr2, {3}
     ff4:	00020068 	andeq	r0, r2, r8, rrx
     ff8:	2c050000 	stccs	0, cr0, [r5], {-0}
     ffc:	b0020500 	andlt	r0, r2, r0, lsl #10
    1000:	1500008c 	strne	r0, [r0, #-140]	; 0xffffff74
    1004:	13130505 	tstne	r3, #20971520	; 0x1400000
    1008:	11060b05 	tstne	r6, r5, lsl #22
    100c:	02000505 	andeq	r0, r0, #20971520	; 0x1400000
    1010:	30060104 	andcc	r0, r6, r4, lsl #2
    1014:	01040200 	mrseq	r0, R12_usr
    1018:	00090515 	andeq	r0, r9, r5, lsl r5
    101c:	13010402 	movwne	r0, #5122	; 0x1402
    1020:	02001005 	andeq	r1, r0, #5, 0
    1024:	2e060104 	adfcss	f0, f6, f4
    1028:	02000b05 	andeq	r0, r0, #5120	; 0x1400
    102c:	002e0104 	eoreq	r0, lr, r4, lsl #2
    1030:	06010402 	streq	r0, [r1], -r2, lsl #8
    1034:	0005052f 	andeq	r0, r5, pc, lsr #10
    1038:	06010402 	streq	r0, [r1], -r2, lsl #8
    103c:	054e0601 	strbeq	r0, [lr, #-1537]	; 0xfffff9ff
    1040:	05010608 	streq	r0, [r1, #-1544]	; 0xfffff9f8
    1044:	04020005 	streq	r0, [r2], #-5
    1048:	052f0601 	streq	r0, [pc, #-1537]!	; a4f <__code_start__-0x75b1>
    104c:	04020009 	streq	r0, [r2], #-9
    1050:	0b051301 	bleq	145c5c <__bss_end__+0x13c74c>
    1054:	01040200 	mrseq	r0, R12_usr
    1058:	09050106 	stmdbeq	r5, {r1, r2, r8}
    105c:	01040200 	mrseq	r0, R12_usr
    1060:	0f054b06 	svceq	0x00054b06
    1064:	01040200 	mrseq	r0, R12_usr
    1068:	0d050106 	stfeqs	f0, [r5, #-24]	; 0xffffffe8
    106c:	01040200 	mrseq	r0, R12_usr
    1070:	05052f06 	streq	r2, [r5, #-3846]	; 0xfffff0fa
    1074:	01040200 	mrseq	r0, R12_usr
    1078:	06020106 	streq	r0, [r2], -r6, lsl #2
    107c:	9d010100 	stflss	f0, [r1, #-0]
    1080:	03000000 	movweq	r0, #0
    1084:	00005900 	andeq	r5, r0, r0, lsl #18
    1088:	fb010200 	blx	41892 <__bss_end__+0x38382>
    108c:	01000d0e 	tsteq	r0, lr, lsl #26
    1090:	00010101 	andeq	r0, r1, r1, lsl #2
    1094:	00010000 	andeq	r0, r1, r0
    1098:	2f2e0100 	svccs	0x002e0100
    109c:	6362696c 	cmnvs	r2, #108, 18	; 0x1b0000
    10a0:	73552f00 	cmpvc	r5, #0, 30
    10a4:	2f737265 	svccs	0x00737265
    10a8:	656c696d 	strbvs	r6, [ip, #-2413]!	; 0xfffff693
    10ac:	6f532f73 	svcvs	0x00532f73
    10b0:	65637275 	strbvs	r7, [r3, #-629]!	; 0xfffffd8b
    10b4:	3273632f 	rsbscc	r6, r3, #-1140850688	; 0xbc000000
    10b8:	786c3034 	stmdavc	ip!, {r2, r4, r5, ip, sp}^
    10bc:	62696c2f 	rsbvs	r6, r9, #12032	; 0x2f00
    10c0:	692f6970 	stmdbvs	pc!, {r4, r5, r6, r8, fp, sp, lr}	; <UNPREDICTABLE>
    10c4:	756c636e 	strbvc	r6, [ip, #-878]!	; 0xfffffc92
    10c8:	00006564 	andeq	r6, r0, r4, ror #10
    10cc:	63727473 	cmnvs	r2, #1929379840	; 0x73000000
    10d0:	632e706d 			; <UNDEFINED> instruction: 0x632e706d
    10d4:	00000100 	andeq	r0, r0, r0, lsl #2
    10d8:	2e697072 	mcrcs	0, 3, r7, cr9, cr2, {3}
    10dc:	00020068 	andeq	r0, r2, r8, rrx
    10e0:	2a050000 	bcs	1410e8 <__bss_end__+0x137bd8>
    10e4:	e4020500 	str	r0, [r2], #-1280	; 0xfffffb00
    10e8:	1400008c 	strne	r0, [r0], #-140	; 0xffffff74
    10ec:	05130905 	ldreq	r0, [r3, #-2309]	; 0xfffff6fb
    10f0:	1005010f 	andne	r0, r5, pc, lsl #2
    10f4:	0f050106 	svceq	0x00050106
    10f8:	001c052e 	andseq	r0, ip, lr, lsr #10
    10fc:	4a010402 	bmi	4210c <__bss_end__+0x38bfc>
    1100:	02001305 	andeq	r1, r0, #335544320	; 0x14000000
    1104:	052e0104 	streq	r0, [lr, #-260]!	; 0xfffffefc
    1108:	052f0611 	streq	r0, [pc, #-1553]!	; aff <__code_start__-0x7501>
    110c:	2e2e0616 	mcrcs	6, 1, r0, cr14, cr6, {0}
    1110:	2f060905 	svccs	0x00060905
    1114:	01061505 	tsteq	r6, r5, lsl #10
    1118:	022f0105 	eoreq	r0, pc, #1073741825	; 0x40000001
    111c:	01010004 	tsteq	r1, r4
    1120:	0000009b 	muleq	r0, fp, r0
    1124:	00590003 	subseq	r0, r9, r3
    1128:	01020000 	mrseq	r0, (UNDEF: 2)
    112c:	000d0efb 	strdeq	r0, [sp], -fp
    1130:	01010101 	tsteq	r1, r1, lsl #2
    1134:	01000000 	mrseq	r0, (UNDEF: 0)
    1138:	2e010000 	cdpcs	0, 0, cr0, cr1, cr0, {0}
    113c:	62696c2f 	rsbvs	r6, r9, #12032	; 0x2f00
    1140:	552f0063 	strpl	r0, [pc, #-99]!	; 10e5 <__code_start__-0x6f1b>
    1144:	73726573 	cmnvc	r2, #482344960	; 0x1cc00000
    1148:	6c696d2f 	stclvs	13, cr6, [r9], #-188	; 0xffffff44
    114c:	532f7365 			; <UNDEFINED> instruction: 0x532f7365
    1150:	6372756f 	cmnvs	r2, #465567744	; 0x1bc00000
    1154:	73632f65 	cmnvc	r3, #404	; 0x194
    1158:	6c303432 	cfldrsvs	mvf3, [r0], #-200	; 0xffffff38
    115c:	696c2f78 	stmdbvs	ip!, {r3, r4, r5, r6, r8, r9, sl, fp, sp}^
    1160:	2f697062 	svccs	0x00697062
    1164:	6c636e69 	stclvs	14, cr6, [r3], #-420	; 0xfffffe5c
    1168:	00656475 	rsbeq	r6, r5, r5, ror r4
    116c:	72747300 	rsbsvc	r7, r4, #0, 6
    1170:	2e797063 	cdpcs	0, 7, cr7, cr9, cr3, {3}
    1174:	00010063 	andeq	r0, r1, r3, rrx
    1178:	69707200 	ldmdbvs	r0!, {r9, ip, sp, lr}^
    117c:	0200682e 	andeq	r6, r0, #3014656	; 0x2e0000
    1180:	05000000 	streq	r0, [r0, #-0]
    1184:	0205002a 	andeq	r0, r5, #42, 0	; 0x2a
    1188:	00008d10 	andeq	r8, r0, r0, lsl sp
    118c:	13050514 	movwne	r0, #21780	; 0x5514
    1190:	06140513 			; <UNDEFINED> instruction: 0x06140513
    1194:	00220511 	eoreq	r0, r2, r1, lsl r5
    1198:	06010402 	streq	r0, [r1], -r2, lsl #8
    119c:	000b052f 	andeq	r0, fp, pc, lsr #10
    11a0:	01010402 	tsteq	r1, r2, lsl #8
    11a4:	02001505 	andeq	r1, r0, #20971520	; 0x1400000
    11a8:	01060104 	tsteq	r6, r4, lsl #2
    11ac:	02001305 	andeq	r1, r0, #335544320	; 0x14000000
    11b0:	054a0104 	strbeq	r0, [sl, #-260]	; 0xfffffefc
    11b4:	0402000b 	streq	r0, [r2], #-11
    11b8:	06024a01 	streq	r4, [r2], -r1, lsl #20
    11bc:	fe010100 	cdp2	1, 0, cr0, cr1, cr0, {0}
    11c0:	03000000 	movweq	r0, #0
    11c4:	0000c200 	andeq	ip, r0, r0, lsl #4
    11c8:	fb010200 	blx	419d2 <__bss_end__+0x384c2>
    11cc:	01000d0e 	tsteq	r0, lr, lsl #26
    11d0:	00010101 	andeq	r0, r1, r1, lsl #2
    11d4:	00010000 	andeq	r0, r1, r0
    11d8:	2f2e0100 	svccs	0x002e0100
    11dc:	6362696c 	cmnvs	r2, #108, 18	; 0x1b0000
    11e0:	73552f00 	cmpvc	r5, #0, 30
    11e4:	2f737265 	svccs	0x00737265
    11e8:	656c696d 	strbvs	r6, [ip, #-2413]!	; 0xfffff693
    11ec:	6f532f73 	svcvs	0x00532f73
    11f0:	65637275 	strbvs	r7, [r3, #-629]!	; 0xfffffd8b
    11f4:	3273632f 	rsbscc	r6, r3, #-1140850688	; 0xbc000000
    11f8:	786c3034 	stmdavc	ip!, {r2, r4, r5, ip, sp}^
    11fc:	62696c2f 	rsbvs	r6, r9, #12032	; 0x2f00
    1200:	692f6970 	stmdbvs	pc!, {r4, r5, r6, r8, fp, sp, lr}	; <UNPREDICTABLE>
    1204:	756c636e 	strbvc	r6, [ip, #-878]!	; 0xfffffc92
    1208:	2f006564 	svccs	0x00006564
    120c:	2f74706f 	svccs	0x0074706f
    1210:	656d6f68 	strbvs	r6, [sp, #-3944]!	; 0xfffff098
    1214:	77657262 	strbvc	r7, [r5, -r2, ror #4]!
    1218:	6c65432f 	stclvs	3, cr4, [r5], #-188	; 0xffffff44
    121c:	2f72616c 	svccs	0x0072616c
    1220:	2d6d7261 	sfmcs	f7, 2, [sp, #-388]!	; 0xfffffe7c
    1224:	656e6f6e 	strbvs	r6, [lr, #-3950]!	; 0xfffff092
    1228:	6261652d 	rsbvs	r6, r1, #188743680	; 0xb400000
    122c:	65742d69 	ldrbvs	r2, [r4, #-3433]!	; 0xfffff297
    1230:	392f7473 	stmdbcc	pc!, {r0, r1, r4, r5, r6, sl, ip, sp, lr}	; <UNPREDICTABLE>
    1234:	3130322d 	teqcc	r0, sp, lsr #4
    1238:	2d347139 	ldfcss	f7, [r4, #-228]!	; 0xffffff1c
    123c:	30317363 	eorscc	r7, r1, r3, ror #6
    1240:	6c2f6537 	cfstr32vs	mvfx6, [pc], #-220	; 116c <__code_start__-0x6e94>
    1244:	672f6269 	strvs	r6, [pc, -r9, ror #4]!
    1248:	612f6363 			; <UNDEFINED> instruction: 0x612f6363
    124c:	6e2d6d72 	mcrvs	13, 1, r6, cr13, cr2, {3}
    1250:	2d656e6f 	stclcs	14, cr6, [r5, #-444]!	; 0xfffffe44
    1254:	69626165 	stmdbvs	r2!, {r0, r2, r5, r6, r8, sp, lr}^
    1258:	322e392f 	eorcc	r3, lr, #770048	; 0xbc000
    125c:	692f312e 	stmdbvs	pc!, {r1, r2, r3, r5, r8, ip, sp}	; <UNPREDICTABLE>
    1260:	756c636e 	strbvc	r6, [ip, #-878]!	; 0xfffffc92
    1264:	00006564 	andeq	r6, r0, r4, ror #10
    1268:	6e727473 	mrcvs	4, 3, r7, cr2, cr3, {3}
    126c:	2e706d63 	cdpcs	13, 7, cr6, cr0, cr3, {3}
    1270:	00010063 	andeq	r0, r1, r3, rrx
    1274:	69707200 	ldmdbvs	r0!, {r9, ip, sp, lr}^
    1278:	0200682e 	andeq	r6, r0, #3014656	; 0x2e0000
    127c:	74730000 	ldrbtvc	r0, [r3], #-0
    1280:	66656464 	strbtvs	r6, [r5], -r4, ror #8
    1284:	0300682e 	movweq	r6, #2094	; 0x82e
    1288:	05000000 	streq	r0, [r0, #-0]
    128c:	02050039 	andeq	r0, r5, #57, 0	; 0x39
    1290:	00008d30 	andeq	r8, r0, r0, lsr sp
    1294:	13050515 	movwne	r0, #21781	; 0x5515
    1298:	010a0513 	tsteq	sl, r3, lsl r5
    129c:	054a0106 	strbeq	r0, [sl, #-262]	; 0xfffffefa
    12a0:	052f0609 	streq	r0, [pc, #-1545]!	; c9f <__code_start__-0x7361>
    12a4:	0501060c 	streq	r0, [r1, #-1548]	; 0xfffff9f4
    12a8:	0b052e13 	bleq	14cafc <__bss_end__+0x1435ec>
    12ac:	060d052e 	streq	r0, [sp], -lr, lsr #10
    12b0:	061b054b 	ldreq	r0, [fp], -fp, asr #10
    12b4:	0c052e01 	stceq	14, cr2, [r5], {1}
    12b8:	2f010530 	svccs	0x00010530
    12bc:	01000202 	tsteq	r0, r2, lsl #4
    12c0:	00008a01 	andeq	r8, r0, r1, lsl #20
    12c4:	6e000300 	cdpvs	3, 0, cr0, cr0, cr0, {0}
    12c8:	02000000 	andeq	r0, r0, #0, 0
    12cc:	0d0efb01 	vstreq	d15, [lr, #-4]
    12d0:	01010100 	mrseq	r0, (UNDEF: 17)
    12d4:	00000001 	andeq	r0, r0, r1
    12d8:	01000001 	tsteq	r0, r1
    12dc:	74732f2e 	ldrbtvc	r2, [r3], #-3886	; 0xfffff0d2
    12e0:	2d666661 	stclcs	6, cr6, [r6, #-388]!	; 0xfffffe7c
    12e4:	00637273 	rsbeq	r7, r3, r3, ror r2
    12e8:	6573552f 	ldrbvs	r5, [r3, #-1327]!	; 0xfffffad1
    12ec:	6d2f7372 	stcvs	3, cr7, [pc, #-456]!	; 112c <__code_start__-0x6ed4>
    12f0:	73656c69 	cmnvc	r5, #26880	; 0x6900
    12f4:	756f532f 	strbvc	r5, [pc, #-815]!	; fcd <__code_start__-0x7033>
    12f8:	2f656372 	svccs	0x00656372
    12fc:	34327363 	ldrtcc	r7, [r2], #-867	; 0xfffffc9d
    1300:	2f786c30 	svccs	0x00786c30
    1304:	7062696c 	rsbvc	r6, r2, ip, ror #18
    1308:	6e692f69 	cdpvs	15, 6, cr2, cr9, cr9, {3}
    130c:	64756c63 	ldrbtvs	r6, [r5], #-3171	; 0xfffff39d
    1310:	64000065 	strvs	r0, [r0], #-101	; 0xffffff9b
    1314:	75616665 	strbvc	r6, [r1, #-1637]!	; 0xfffff99b
    1318:	722d746c 	eorvc	r7, sp, #108, 8	; 0x6c000000
    131c:	6f6f6265 	svcvs	0x006f6265
    1320:	61632d74 	smcvs	13012	; 0x32d4
    1324:	756f6c6c 	strbvc	r6, [pc, #-3180]!	; 6c0 <__code_start__-0x7940>
    1328:	00632e74 	rsbeq	r2, r3, r4, ror lr
    132c:	72000001 	andvc	r0, r0, #1, 0
    1330:	682e6970 	stmdavs	lr!, {r4, r5, r6, r8, fp, sp, lr}
    1334:	00000200 	andeq	r0, r0, r0, lsl #4
    1338:	001b0500 	andseq	r0, fp, r0, lsl #10
    133c:	8d5c0205 	lfmhi	f0, 2, [ip, #-20]	; 0xffffffec
    1340:	05140000 	ldreq	r0, [r4, #-0]
    1344:	0105011c 	tsteq	r5, ip, lsl r1
    1348:	02020106 	andeq	r0, r2, #-2147483647	; 0x80000001
    134c:	ba010100 	blt	41754 <__bss_end__+0x38244>
    1350:	03000001 	movweq	r0, #1
    1354:	0000be00 	andeq	fp, r0, r0, lsl #28
    1358:	fb010200 	blx	41b62 <__bss_end__+0x38652>
    135c:	01000d0e 	tsteq	r0, lr, lsl #26
    1360:	00010101 	andeq	r0, r1, r1, lsl #2
    1364:	00010000 	andeq	r0, r1, r0
    1368:	682f0100 	stmdavs	pc!, {r8}	; <UNPREDICTABLE>
    136c:	2f656d6f 	svccs	0x00656d6f
    1370:	6c676e65 	stclvs	14, cr6, [r7], #-404	; 0xfffffe6c
    1374:	632f7265 			; <UNDEFINED> instruction: 0x632f7265
    1378:	7373616c 	cmnvc	r3, #27
    137c:	3173632f 	cmncc	r3, pc, lsr #6
    1380:	2d653034 	stclcs	0, cr3, [r5, #-208]!	; 0xffffff30
    1384:	69773232 	ldmdbvs	r7!, {r1, r4, r5, r9, ip, sp}^
    1388:	6c2f2f6e 	stcvs	15, cr2, [pc], #-440	; 11d8 <__code_start__-0x6e28>
    138c:	69706269 	ldmdbvs	r0!, {r0, r3, r5, r6, r9, sp, lr}^
    1390:	636e692f 	cmnvs	lr, #770048	; 0xbc000
    1394:	6564756c 	strbvs	r7, [r4, #-1388]!	; 0xfffffa94
    1398:	73752f00 	cmnvc	r5, #0, 30
    139c:	68732f72 	ldmdavs	r3!, {r1, r4, r5, r6, r8, r9, sl, fp, sp}^
    13a0:	2f657261 	svccs	0x00657261
    13a4:	2d636367 	stclcs	3, cr6, [r3, #-412]!	; 0xfffffe64
    13a8:	2d6d7261 	sfmcs	f7, 2, [sp, #-388]!	; 0xfffffe7c
    13ac:	656e6f6e 	strbvs	r6, [lr, #-3950]!	; 0xfffff092
    13b0:	6261652d 	rsbvs	r6, r1, #188743680	; 0xb400000
    13b4:	30312d69 	eorscc	r2, r1, r9, ror #26
    13b8:	322d332e 	eorcc	r3, sp, #-1207959552	; 0xb8000000
    13bc:	2e313230 	mrccs	2, 1, r3, cr1, cr0, {1}
    13c0:	6c2f3031 	stcvs	0, cr3, [pc], #-196	; 1304 <__code_start__-0x6cfc>
    13c4:	672f6269 	strvs	r6, [pc, -r9, ror #4]!
    13c8:	612f6363 			; <UNDEFINED> instruction: 0x612f6363
    13cc:	6e2d6d72 	mcrvs	13, 1, r6, cr13, cr2, {3}
    13d0:	2d656e6f 	stclcs	14, cr6, [r5, #-444]!	; 0xfffffe44
    13d4:	69626165 	stmdbvs	r2!, {r0, r2, r5, r6, r8, sp, lr}^
    13d8:	2e30312f 	rsfcssp	f3, f0, #10.0
    13dc:	2f312e33 	svccs	0x00312e33
    13e0:	6c636e69 	stclvs	14, cr6, [r3], #-420	; 0xfffffe5c
    13e4:	00656475 	rsbeq	r6, r5, r5, ror r4
    13e8:	69706700 	ldmdbvs	r0!, {r8, r9, sl, sp, lr}^
    13ec:	00632e6f 	rsbeq	r2, r3, pc, ror #28
    13f0:	72000000 	andvc	r0, r0, #0, 0
    13f4:	682e6970 	stmdavs	lr!, {r4, r5, r6, r8, fp, sp, lr}
    13f8:	00000100 	andeq	r0, r0, r0, lsl #2
    13fc:	69647473 	stmdbvs	r4!, {r0, r1, r4, r5, r6, sl, ip, sp, lr}^
    1400:	672d746e 	strvs	r7, [sp, -lr, ror #8]!
    1404:	682e6363 	stmdavs	lr!, {r0, r1, r5, r6, r8, r9, sp, lr}
    1408:	00000200 	andeq	r0, r0, r0, lsl #4
    140c:	6f697067 	svcvs	0x00697067
    1410:	0100682e 	tsteq	r0, lr, lsr #16
    1414:	05000000 	streq	r0, [r0, #-0]
    1418:	02050038 	andeq	r0, r5, #56, 0	; 0x38
    141c:	00008d78 	andeq	r8, r0, r8, ror sp
    1420:	05012703 	streq	r2, [r1, #-1795]	; 0xfffff8fd
    1424:	07051305 	streq	r1, [r5, -r5, lsl #6]
    1428:	38050106 	stmdacc	r5, {r1, r2, r8}
    142c:	06050549 	streq	r0, [r5], -r9, asr #10
    1430:	0607054d 	streq	r0, [r7], -sp, asr #10
    1434:	06050501 	streq	r0, [r5], -r1, lsl #10
    1438:	0618054c 	ldreq	r0, [r8], -ip, asr #10
    143c:	ba0e0501 	blt	382848 <__bss_end__+0x379338>
    1440:	2f060505 	svccs	0x00060505
    1444:	01061c05 	tsteq	r6, r5, lsl #24
    1448:	2e0e052e 	cfsh32cs	mvfx0, mvfx14, #30
    144c:	30060505 	andcc	r0, r6, r5, lsl #10
    1450:	01061205 	tsteq	r6, r5, lsl #4
    1454:	4b060505 	blmi	182870 <__bss_end__+0x179360>
    1458:	01060705 	tsteq	r6, r5, lsl #14
    145c:	4b060505 	blmi	182878 <__bss_end__+0x179368>
    1460:	052e0613 	streq	r0, [lr, #-1555]!	; 0xfffff9ed
    1464:	24054b01 	strcs	r4, [r5], #-2817	; 0xfffff4ff
    1468:	01064c06 	tsteq	r6, r6, lsl #24
    146c:	2f060505 	svccs	0x00060505
    1470:	4b060105 	blmi	18188c <__bss_end__+0x17837c>
    1474:	31062005 	tstcc	r6, r5
    1478:	05130505 	ldreq	r0, [r3, #-1285]	; 0xfffffafb
    147c:	05010607 	streq	r0, [r1, #-1543]	; 0xfffff9f9
    1480:	05054920 	streq	r4, [r5, #-2336]	; 0xfffff6e0
    1484:	66063106 	strvs	r3, [r6], -r6, lsl #2
    1488:	052f0105 	streq	r0, [pc, #-261]!	; 138b <__code_start__-0x6c75>
    148c:	054d0621 	strbeq	r0, [sp, #-1569]	; 0xfffff9df
    1490:	07051305 	streq	r1, [r5, -r5, lsl #6]
    1494:	21050106 	tstcs	r5, r6, lsl #2
    1498:	06050549 	streq	r0, [r5], -r9, asr #10
    149c:	05660631 	strbeq	r0, [r6, #-1585]!	; 0xfffff9cf
    14a0:	23052f01 	movwcs	r2, #24321	; 0x5f01
    14a4:	01064d06 	tsteq	r6, r6, lsl #26
    14a8:	2f060505 	svccs	0x00060505
    14ac:	4b060105 	blmi	1818c8 <__bss_end__+0x1783b8>
    14b0:	31062b05 	tstcc	r6, r5, lsl #22
    14b4:	05050106 	streq	r0, [r5, #-262]	; 0xfffffefa
    14b8:	07052f06 	streq	r2, [r5, -r6, lsl #30]
    14bc:	09050106 	stmdbeq	r5, {r1, r2, r8}
    14c0:	2e064b06 	vmlacs.f64	d4, d6, d6
    14c4:	01053006 	tsteq	r5, r6
    14c8:	1d052f06 	stcne	15, cr2, [r5, #-24]	; 0xffffffe8
    14cc:	05053006 	streq	r3, [r5, #-6]
    14d0:	06070513 			; <UNDEFINED> instruction: 0x06070513
    14d4:	491d0501 	ldmdbmi	sp, {r0, r8, sl}
    14d8:	31060505 	tstcc	r6, r5, lsl #10
    14dc:	060e0513 			; <UNDEFINED> instruction: 0x060e0513
    14e0:	06050501 	streq	r0, [r5], -r1, lsl #10
    14e4:	0617052f 	ldreq	r0, [r7], -pc, lsr #10
    14e8:	23054a01 	movwcs	r4, #23041	; 0x5a01
    14ec:	0502042e 	streq	r0, [r2, #-1070]	; 0xfffffbd2
    14f0:	d7030630 	smladxle	r3, r0, r6, r0
    14f4:	01042e00 	tsteq	r4, r0, lsl #28
    14f8:	03060c05 	movweq	r0, #27653	; 0x6c05
    14fc:	05017fa9 	streq	r7, [r1, #-4009]	; 0xfffff057
    1500:	10052f01 	andne	r2, r5, r1, lsl #30
    1504:	3201052a 	andcc	r0, r1, #176160768	; 0xa800000
    1508:	01000402 	tsteq	r0, r2, lsl #8
    150c:	Address 0x000000000000150c is out of bounds.


Disassembly of section .debug_str:

00000000 <.debug_str>:
   0:	5f6d7261 	svcpl	0x006d7261
   4:	2f007073 	svccs	0x00007073
   8:	72657355 	rsbvc	r7, r5, #1409286145	; 0x54000001
   c:	696d2f73 	stmdbvs	sp!, {r0, r1, r4, r5, r6, r8, r9, sl, fp, sp}^
  10:	2f73656c 	svccs	0x0073656c
  14:	72756f53 	rsbsvc	r6, r5, #332	; 0x14c
  18:	632f6563 			; <UNDEFINED> instruction: 0x632f6563
  1c:	30343273 	eorscc	r3, r4, r3, ror r2
  20:	6c2f786c 	stcvs	8, cr7, [pc], #-432	; fffffe78 <__bss_end__+0xffff6968>
  24:	2f736261 	svccs	0x00736261
  28:	79642d31 	stmdbvc	r4!, {r0, r4, r5, r8, sl, fp, sp}^
  2c:	696d616e 	stmdbvs	sp!, {r1, r2, r3, r5, r6, r8, sp, lr}^
  30:	6f632d63 	svcvs	0x00632d63
  34:	672d6564 	strvs	r6, [sp, -r4, ror #10]!
  38:	632f6e65 			; <UNDEFINED> instruction: 0x632f6e65
  3c:	2f65646f 	svccs	0x0065646f
  40:	65682d31 	strbvs	r2, [r8, #-3377]!	; 0xfffff2cf
  44:	006f6c6c 	rsbeq	r6, pc, ip, ror #24
  48:	726f6873 	rsbvc	r6, pc, #7536640	; 0x730000
  4c:	6e692074 	mcrvs	0, 3, r2, cr9, cr4, {3}
  50:	65640074 	strbvs	r0, [r4, #-116]!	; 0xffffff8c
  54:	0061746c 	rsbeq	r7, r1, ip, ror #8
  58:	5f697072 	svcpl	0x00697072
  5c:	63747570 	cmnvs	r4, #112, 10	; 0x1c000000
  60:	00726168 	rsbseq	r6, r2, r8, ror #2
  64:	5f6d7261 	svcpl	0x006d7261
  68:	6100726c 	tstvs	r0, ip, ror #4
  6c:	705f6d72 	subsvc	r6, pc, r2, ror sp	; <UNPREDICTABLE>
  70:	656d0063 	strbvs	r0, [sp, #-99]!	; 0xffffff9d
  74:	67617373 			; <UNDEFINED> instruction: 0x67617373
  78:	6f6c0065 	svcvs	0x006c0065
  7c:	6c20676e 	stcvs	7, cr6, [r0], #-440	; 0xfffffe48
  80:	20676e6f 	rsbcs	r6, r7, pc, ror #28
  84:	00746e69 	rsbseq	r6, r4, r9, ror #28
  88:	5f6d7261 	svcpl	0x006d7261
  8c:	0072646c 	rsbseq	r6, r2, ip, ror #8
  90:	5f6d7261 	svcpl	0x006d7261
  94:	68737570 	ldmdavs	r3!, {r4, r5, r6, r8, sl, ip, sp, lr}^
  98:	656c6300 	strbvs	r6, [ip, #-768]!	; 0xfffffd00
  9c:	725f6e61 	subsvc	r6, pc, #1552	; 0x610
  a0:	6f6f6265 	svcvs	0x006f6265
  a4:	72610074 	rsbvc	r0, r1, #116, 0	; 0x74
  a8:	6c625f6d 	stclvs	15, cr5, [r2], #-436	; 0xfffffe4c
  ac:	736e7500 	cmnvc	lr, #0, 10
  b0:	656e6769 	strbvs	r6, [lr, #-1897]!	; 0xfffff897
  b4:	68632064 	stmdavs	r3!, {r2, r5, r6, sp}^
  b8:	61007261 	tstvs	r0, r1, ror #4
  bc:	725f6d72 	subsvc	r6, pc, #7296	; 0x1c80
  c0:	72610030 	rsbvc	r0, r1, #48, 0	; 0x30
  c4:	31725f6d 	cmncc	r2, sp, ror #30
  c8:	6d726100 	ldfvse	f6, [r2, #-0]
  cc:	0032725f 	eorseq	r7, r2, pc, asr r2
  d0:	5f6d7261 	svcpl	0x006d7261
  d4:	61003372 	tstvs	r0, r2, ror r3
  d8:	725f6d72 	subsvc	r6, pc, #7296	; 0x1c80
  dc:	72610034 	rsbvc	r0, r1, #52, 0	; 0x34
  e0:	36725f6d 	ldrbtcc	r5, [r2], -sp, ror #30
  e4:	6e6f6c00 	cdpvs	12, 6, cr6, cr15, cr0, {0}
  e8:	6f6c2067 	svcvs	0x006c2067
  ec:	7520676e 	strvc	r6, [r0, #-1902]!	; 0xfffff892
  f0:	6769736e 	strbvs	r7, [r9, -lr, ror #6]!
  f4:	2064656e 	rsbcs	r6, r4, lr, ror #10
  f8:	00746e69 	rsbseq	r6, r4, r9, ror #28
  fc:	5f6d7261 	svcpl	0x006d7261
 100:	75003872 	strvc	r3, [r0, #-2162]	; 0xfffff78e
 104:	33746e69 	cmncc	r4, #1680	; 0x690
 108:	00745f32 	rsbseq	r5, r4, r2, lsr pc
 10c:	5f6d7261 	svcpl	0x006d7261
 110:	63007862 	movwvs	r7, #2146	; 0x862
 114:	0065646f 	rsbeq	r6, r5, pc, ror #8
 118:	6d746f6e 	ldclvs	15, cr6, [r4, #-440]!	; 0xfffffe48
 11c:	006e6961 	rsbeq	r6, lr, r1, ror #18
 120:	726f6873 	rsbvc	r6, pc, #7536640	; 0x730000
 124:	6e752074 	mrcvs	0, 3, r2, cr5, cr4, {3}
 128:	6e676973 			; <UNDEFINED> instruction: 0x6e676973
 12c:	69206465 	stmdbvs	r0!, {r0, r2, r5, r6, sl, sp, lr}
 130:	6f00746e 	svcvs	0x0000746e
 134:	65736666 	ldrbvs	r6, [r3, #-1638]!	; 0xfffff99a
 138:	72610074 	rsbvc	r0, r1, #116, 0	; 0x74
 13c:	39725f6d 	ldmdbcc	r2!, {r0, r2, r3, r5, r6, r8, r9, sl, fp, ip, lr}^
 140:	6d726100 	ldfvse	f6, [r2, #-0]
 144:	0035725f 	eorseq	r7, r5, pc, asr r2
 148:	20554e47 	subscs	r4, r5, r7, asr #28
 14c:	20393943 	eorscs	r3, r9, r3, asr #18
 150:	2e322e39 	mrccs	14, 1, r2, cr2, cr9, {1}
 154:	30322031 	eorscc	r2, r2, r1, lsr r0
 158:	30313931 	eorscc	r3, r1, r1, lsr r9
 15c:	28203532 	stmdacs	r0!, {r1, r4, r5, r8, sl, ip, sp}
 160:	656c6572 	strbvs	r6, [ip, #-1394]!	; 0xfffffa8e
 164:	29657361 	stmdbcs	r5!, {r0, r5, r6, r8, r9, ip, sp, lr}^
 168:	52415b20 	subpl	r5, r1, #32, 22	; 0x8000
 16c:	72612f4d 	rsbvc	r2, r1, #308	; 0x134
 170:	2d392d6d 	ldccs	13, cr2, [r9, #-436]!	; 0xfffffe4c
 174:	6e617262 	cdpvs	2, 6, cr7, cr1, cr2, {3}
 178:	72206863 	eorvc	r6, r0, #6488064	; 0x630000
 17c:	73697665 	cmnvc	r9, #105906176	; 0x6500000
 180:	206e6f69 	rsbcs	r6, lr, r9, ror #30
 184:	35373732 	ldrcc	r3, [r7, #-1842]!	; 0xfffff8ce
 188:	205d3939 	subscs	r3, sp, r9, lsr r9
 18c:	70636d2d 	rsbvc	r6, r3, sp, lsr #26
 190:	72613d75 	rsbvc	r3, r1, #7488	; 0x1d40
 194:	3731316d 	ldrcc	r3, [r1, -sp, ror #2]!
 198:	667a6a36 			; <UNDEFINED> instruction: 0x667a6a36
 19c:	2d20732d 	stccs	3, cr7, [r0, #-180]!	; 0xffffff4c
 1a0:	6e75746d 	cdpvs	4, 7, cr7, cr5, cr13, {3}
 1a4:	72613d65 	rsbvc	r3, r1, #6464	; 0x1940
 1a8:	3731316d 	ldrcc	r3, [r1, -sp, ror #2]!
 1ac:	667a6a36 			; <UNDEFINED> instruction: 0x667a6a36
 1b0:	2d20732d 	stccs	3, cr7, [r0, #-180]!	; 0xffffff4c
 1b4:	6f6c666d 	svcvs	0x006c666d
 1b8:	612d7461 			; <UNDEFINED> instruction: 0x612d7461
 1bc:	733d6962 	teqvc	sp, #1605632	; 0x188000
 1c0:	2074666f 	rsbscs	r6, r4, pc, ror #12
 1c4:	72616d2d 	rsbvc	r6, r1, #2880	; 0xb40
 1c8:	6d2d206d 	stcvs	0, cr2, [sp, #-436]!	; 0xfffffe4c
 1cc:	68637261 	stmdavs	r3!, {r0, r5, r6, r9, ip, sp, lr}^
 1d0:	6d72613d 	ldfvse	f6, [r2, #-244]!	; 0xffffff0c
 1d4:	7a6b3676 	bvc	1acdbb4 <__bss_end__+0x1ac46a4>
 1d8:	67672d20 	strbvs	r2, [r7, -r0, lsr #26]!
 1dc:	2d206264 	sfmcs	f6, 4, [r0, #-400]!	; 0xfffffe70
 1e0:	2d20674f 	stccs	7, cr6, [r0, #-316]!	; 0xfffffec4
 1e4:	3d647473 	cfstrdcc	mvd7, [r4, #-460]!	; 0xfffffe34
 1e8:	39756e67 	ldmdbcc	r5!, {r0, r1, r2, r5, r6, r9, sl, fp, sp, lr}^
 1ec:	662d2039 			; <UNDEFINED> instruction: 0x662d2039
 1f0:	65657266 	strbvs	r7, [r5, #-614]!	; 0xfffffd9a
 1f4:	6e617473 	mcrvs	4, 3, r7, cr1, cr3, {3}
 1f8:	676e6964 	strbvs	r6, [lr, -r4, ror #18]!
 1fc:	6d726100 	ldfvse	f6, [r2, #-0]
 200:	0037725f 	eorseq	r7, r7, pc, asr r2
 204:	5f6d7261 	svcpl	0x006d7261
 208:	00303172 	eorseq	r3, r0, r2, ror r1
 20c:	5f6d7261 	svcpl	0x006d7261
 210:	00313172 	eorseq	r3, r1, r2, ror r1
 214:	5f6d7261 	svcpl	0x006d7261
 218:	00323172 	eorseq	r3, r2, r2, ror r1
 21c:	5f6d7261 	svcpl	0x006d7261
 220:	00333172 	eorseq	r3, r3, r2, ror r1
 224:	5f6d7261 	svcpl	0x006d7261
 228:	00343172 	eorseq	r3, r4, r2, ror r1
 22c:	5f6d7261 	svcpl	0x006d7261
 230:	00353172 	eorseq	r3, r5, r2, ror r1
 234:	5f6d7261 	svcpl	0x006d7261
 238:	00706f70 	rsbseq	r6, r0, r0, ror pc
 23c:	6c6c6568 	cfstr64vs	mvdx6, [ip], #-416	; 0xfffffe60
 240:	00632e6f 	rsbeq	r2, r3, pc, ror #28
 244:	6d6f7266 	sfmvs	f7, 2, [pc, #-408]!	; b4 <__code_start__-0x7f4c>
 248:	67726100 	ldrbvs	r6, [r2, -r0, lsl #2]!
 24c:	61760073 	cmnvs	r6, r3, ror r0
 250:	6972705f 	ldmdbvs	r2!, {r0, r1, r2, r3, r4, r6, ip, sp, lr}^
 254:	006b746e 	rsbeq	r7, fp, lr, ror #8
 258:	6e675f5f 	mcrvs	15, 3, r5, cr7, cr15, {2}
 25c:	765f6375 			; <UNDEFINED> instruction: 0x765f6375
 260:	696c5f61 	stmdbvs	ip!, {r0, r5, r6, r8, r9, sl, fp, ip, lr}^
 264:	5f007473 	svcpl	0x00007473
 268:	0070615f 	rsbseq	r6, r0, pc, asr r1
 26c:	696c2f2e 	stmdbvs	ip!, {r1, r2, r3, r5, r8, r9, sl, fp, sp}^
 270:	702f6362 	eorvc	r6, pc, r2, ror #6
 274:	746e6972 	strbtvc	r6, [lr], #-2418	; 0xfffff68e
 278:	00632e6b 	rsbeq	r2, r3, fp, ror #28
 27c:	61765f5f 	cmnvs	r6, pc, asr pc
 280:	73696c5f 	cmnvc	r9, #24320	; 0x5f00
 284:	552f0074 	strpl	r0, [pc, #-116]!	; 218 <__code_start__-0x7de8>
 288:	73726573 	cmnvc	r2, #482344960	; 0x1cc00000
 28c:	6c696d2f 	stclvs	13, cr6, [r9], #-188	; 0xffffff44
 290:	532f7365 			; <UNDEFINED> instruction: 0x532f7365
 294:	6372756f 	cmnvs	r2, #465567744	; 0x1bc00000
 298:	73632f65 	cmnvc	r3, #404	; 0x194
 29c:	6c303432 	cfldrsvs	mvf3, [r0], #-200	; 0xffffff38
 2a0:	696c2f78 	stmdbvs	ip!, {r3, r4, r5, r6, r8, r9, sl, fp, sp}^
 2a4:	00697062 	rsbeq	r7, r9, r2, rrx
 2a8:	65746e69 	ldrbvs	r6, [r4, #-3689]!	; 0xfffff197
 2ac:	6c616e72 	stclvs	14, cr6, [r1], #-456	; 0xfffffe38
 2b0:	7475705f 	ldrbtvc	r7, [r5], #-95	; 0xffffffa1
 2b4:	2f2e006b 	svccs	0x002e006b
 2b8:	6362696c 	cmnvs	r2, #108, 18	; 0x1b0000
 2bc:	7475702f 	ldrbtvc	r7, [r5], #-47	; 0xffffffd1
 2c0:	00632e6b 	rsbeq	r2, r3, fp, ror #28
 2c4:	69647369 	stmdbvs	r4!, {r0, r3, r5, r6, r8, r9, ip, sp, lr}^
 2c8:	00746967 	rsbseq	r6, r4, r7, ror #18
 2cc:	746e6975 	strbtvc	r6, [lr], #-2421	; 0xfffff68b
 2d0:	745f3436 	ldrbvc	r3, [pc], #-1078	; 2d8 <__code_start__-0x7d28>
 2d4:	6c2f2e00 	stcvs	14, cr2, [pc], #-0	; 2dc <__code_start__-0x7d24>
 2d8:	2f636269 	svccs	0x00636269
 2dc:	702d6176 	eorvc	r6, sp, r6, ror r1
 2e0:	746e6972 	strbtvc	r6, [lr], #-2418	; 0xfffff68e
 2e4:	00632e6b 	rsbeq	r2, r3, fp, ror #28
 2e8:	6f635f5f 	svcvs	0x00635f5f
 2ec:	735f6564 	cmpvc	pc, #100, 10	; 0x19000000
 2f0:	74726174 	ldrbtvc	r6, [r2], #-372	; 0xfffffe8c
 2f4:	5f005f5f 	svcpl	0x00005f5f
 2f8:	7373625f 	cmnvc	r3, #-268435451	; 0xf0000005
 2fc:	6174735f 	cmnvs	r4, pc, asr r3
 300:	5f5f7472 	svcpl	0x005f7472
 304:	64697700 	strbtvs	r7, [r9], #-1792	; 0xfffff900
 308:	5f006874 	svcpl	0x00006874
 30c:	4e55465f 	mrcmi	6, 2, r4, cr5, cr15, {2}
 310:	4f495443 	svcmi	0x00495443
 314:	005f5f4e 	subseq	r5, pc, lr, asr #30
 318:	61645f5f 	cmnvs	r4, pc, asr pc
 31c:	655f6174 	ldrbvs	r6, [pc, #-372]	; 1b0 <__code_start__-0x7e50>
 320:	5f5f646e 	svcpl	0x005f646e
 324:	74757000 	ldrbtvc	r7, [r5], #-0
 328:	70665f63 	rsbvc	r5, r6, r3, ror #30
 32c:	625f5f00 	subsvs	r5, pc, #0, 30
 330:	655f7373 	ldrbvs	r7, [pc, #-883]	; ffffffc5 <__bss_end__+0xffff6ab5>
 334:	5f5f646e 	svcpl	0x005f646e
 338:	685f5f00 	ldmdavs	pc, {r8, r9, sl, fp, ip, lr}^	; <UNPREDICTABLE>
 33c:	5f706165 	svcpl	0x00706165
 340:	72617473 	rsbvc	r7, r1, #1929379840	; 0x73000000
 344:	005f5f74 	subseq	r5, pc, r4, ror pc	; <UNPREDICTABLE>
 348:	5f697072 	svcpl	0x00697072
 34c:	5f746573 	svcpl	0x00746573
 350:	7074756f 	rsbsvc	r7, r4, pc, ror #10
 354:	66007475 			; <UNDEFINED> instruction: 0x66007475
 358:	735f746d 	cmpvc	pc, #1828716544	; 0x6d000000
 35c:	74726174 	ldrbtvc	r6, [r2], #-372	; 0xfffffe8c
 360:	72747300 	rsbsvc	r7, r4, #0, 6
 364:	00746163 	rsbseq	r6, r4, r3, ror #2
 368:	63727473 	cmnvs	r2, #1929379840	; 0x73000000
 36c:	6e007970 			; <UNDEFINED> instruction: 0x6e007970
 370:	705f6765 	subsvc	r6, pc, r5, ror #14
 374:	635f5f00 	cmpvs	pc, #0, 30
 378:	5f65646f 	svcpl	0x0065646f
 37c:	5f646e65 	svcpl	0x00646e65
 380:	6d65005f 	stclvs	0, cr0, [r5, #-380]!	; 0xfffffe84
 384:	70007469 	andvc	r7, r0, r9, ror #8
 388:	5f737475 	svcpl	0x00737475
 38c:	72007066 	andvc	r7, r0, #102, 0	; 0x66
 390:	72657665 	rsbvc	r7, r5, #105906176	; 0x6500000
 394:	73006573 	movwvc	r6, #1395	; 0x573
 398:	6d637274 	sfmvs	f7, 2, [r3, #-464]!	; 0xfffffe30
 39c:	5f5f0070 	svcpl	0x005f0070
 3a0:	61746164 	cmnvs	r4, r4, ror #2
 3a4:	6174735f 	cmnvs	r4, pc, asr r3
 3a8:	5f5f7472 	svcpl	0x005f7472
 3ac:	705f5f00 	subsvc	r5, pc, r0, lsl #30
 3b0:	5f676f72 	svcpl	0x00676f72
 3b4:	5f646e65 	svcpl	0x00646e65
 3b8:	756e005f 	strbvc	r0, [lr, #-95]!	; 0xffffffa1
 3bc:	7300316d 	movwvc	r3, #365	; 0x16d
 3c0:	636e7274 	cmnvs	lr, #116, 4	; 0x40000007
 3c4:	6200706d 	andvs	r7, r0, #109, 0	; 0x6d
 3c8:	00657361 	rsbeq	r7, r5, r1, ror #6
 3cc:	6e676973 			; <UNDEFINED> instruction: 0x6e676973
 3d0:	705f6465 	subsvc	r6, pc, r5, ror #8
 3d4:	69707200 	ldmdbvs	r0!, {r9, ip, sp, lr}^
 3d8:	6265725f 	rsbvs	r7, r5, #-268435451	; 0xf0000005
 3dc:	00746f6f 	rsbseq	r6, r4, pc, ror #30
 3e0:	616c6564 	cmnvs	ip, r4, ror #10
 3e4:	736d5f79 	cmnvc	sp, #484	; 0x1e4
 3e8:	732f2e00 			; <UNDEFINED> instruction: 0x732f2e00
 3ec:	66666174 			; <UNDEFINED> instruction: 0x66666174
 3f0:	6372732d 	cmnvs	r2, #-1275068416	; 0xb4000000
 3f4:	656c632f 	strbvs	r6, [ip, #-815]!	; 0xfffffcd1
 3f8:	722d6e61 	eorvc	r6, sp, #1552	; 0x610
 3fc:	6f6f6265 	svcvs	0x006f6265
 400:	00632e74 	rsbeq	r2, r3, r4, ror lr
 404:	74726175 	ldrbtvc	r6, [r2], #-373	; 0xfffffe8b
 408:	756c665f 	strbvc	r6, [ip, #-1631]!	; 0xfffff9a1
 40c:	745f6873 	ldrbvc	r6, [pc], #-2163	; 414 <__code_start__-0x7bec>
 410:	635f0078 	cmpvs	pc, #120, 0	; 0x78
 414:	72617473 	rsbvc	r7, r1, #1929379840	; 0x73000000
 418:	73620074 	cmnvc	r2, #116, 0	; 0x74
 41c:	6e655f73 	mcrvs	15, 3, r5, cr5, cr3, {3}
 420:	61750064 	cmnvs	r5, r4, rrx
 424:	695f7472 	ldmdbvs	pc, {r1, r4, r5, r6, sl, ip, sp, lr}^	; <UNPREDICTABLE>
 428:	0074696e 	rsbseq	r6, r4, lr, ror #18
 42c:	74737563 	ldrbtvc	r7, [r3], #-1379	; 0xfffffa9d
 430:	6c5f6d6f 	mrrcvs	13, 6, r6, pc, cr15	; <UNPREDICTABLE>
 434:	6564616f 	strbvs	r6, [r4, #-367]!	; 0xfffffe91
 438:	2f2e0072 	svccs	0x002e0072
 43c:	66617473 			; <UNDEFINED> instruction: 0x66617473
 440:	72732d66 	rsbsvc	r2, r3, #6528	; 0x1980
 444:	73632f63 	cmnvc	r3, #396	; 0x18c
 448:	74726174 	ldrbtvc	r6, [r2], #-372	; 0xfffffe8c
 44c:	2e00632e 	cdpcs	3, 0, cr6, cr0, cr14, {1}
 450:	6174732f 	cmnvs	r4, pc, lsr #6
 454:	732d6666 			; <UNDEFINED> instruction: 0x732d6666
 458:	632f6372 			; <UNDEFINED> instruction: 0x632f6372
 45c:	6f747375 	svcvs	0x00747375
 460:	6f6c2d6d 	svcvs	0x006c2d6d
 464:	72656461 	rsbvc	r6, r5, #1627389952	; 0x61000000
 468:	7200632e 	andvc	r6, r0, #-1207959552	; 0xb8000000
 46c:	6f6f6265 	svcvs	0x006f6265
 470:	61635f74 	smcvs	13812	; 0x35f4
 474:	756f6c6c 	strbvc	r6, [pc, #-3180]!	; fffff810 <__bss_end__+0xffff6300>
 478:	4d500074 	ldclmi	0, cr0, [r0, #-464]	; 0xfffffe30
 47c:	4f44575f 	svcmi	0x0044575f
 480:	55500047 	ldrbpl	r0, [r0, #-71]	; 0xffffffb9
 484:	00323354 	eorseq	r3, r2, r4, asr r3
 488:	5f746573 	svcpl	0x00746573
 48c:	72657375 	rsbvc	r7, r5, #-738197503	; 0xd4000001
 490:	76656c5f 			; <UNDEFINED> instruction: 0x76656c5f
 494:	2e006c65 	cdpcs	12, 0, cr6, cr0, cr5, {3}
 498:	6174732f 	cmnvs	r4, pc, lsr #6
 49c:	732d6666 			; <UNDEFINED> instruction: 0x732d6666
 4a0:	722f6372 	eorvc	r6, pc, #-939524095	; 0xc8000001
 4a4:	6f6f6265 	svcvs	0x006f6265
 4a8:	00632e74 	rsbeq	r2, r3, r4, ror lr
 4ac:	505f4d50 	subspl	r4, pc, r0, asr sp	; <UNPREDICTABLE>
 4b0:	57535341 	ldrbpl	r5, [r3, -r1, asr #6]
 4b4:	0044524f 	subeq	r5, r4, pc, asr #4
 4b8:	755f7461 	ldrbvc	r7, [pc, #-1121]	; 5f <__code_start__-0x7fa1>
 4bc:	5f726573 	svcpl	0x00726573
 4c0:	6576656c 	ldrbvs	r6, [r6, #-1388]!	; 0xfffffa94
 4c4:	4d50006c 	ldclmi	0, cr0, [r0, #-432]	; 0xfffffe50
 4c8:	5453525f 	ldrbpl	r5, [r3], #-607	; 0xfffffda1
 4cc:	52575f43 	subspl	r5, r7, #268	; 0x10c
 4d0:	5f474643 	svcpl	0x00474643
 4d4:	4c4c5546 	cfstr64mi	mvdx5, [ip], {70}	; 0x46
 4d8:	5345525f 	movtpl	r5, #21087	; 0x525f
 4dc:	50005445 	andpl	r5, r0, r5, asr #8
 4e0:	53525f4d 	cmppl	r2, #308	; 0x134
 4e4:	63004354 	movwvs	r4, #852	; 0x354
 4e8:	00727370 	rsbseq	r7, r2, r0, ror r3
 4ec:	5f766564 	svcpl	0x00766564
 4f0:	72726162 	rsbsvc	r6, r2, #-2147483624	; 0x80000018
 4f4:	00726569 	rsbseq	r6, r2, r9, ror #10
 4f8:	616c6564 	cmnvs	ip, r4, ror #10
 4fc:	65735f79 	ldrbvs	r5, [r3, #-3961]!	; 0xfffff087
 500:	2f2e0063 	svccs	0x002e0063
 504:	66617473 			; <UNDEFINED> instruction: 0x66617473
 508:	72732d66 	rsbsvc	r2, r3, #6528	; 0x1980
 50c:	69742f63 	ldmdbvs	r4!, {r0, r1, r5, r6, r8, r9, sl, fp, sp}^
 510:	2e72656d 	cdpcs	5, 7, cr6, cr2, cr13, {3}
 514:	45470063 	strbmi	r0, [r7, #-99]	; 0xffffff9d
 518:	00323354 	eorseq	r3, r2, r4, asr r3
 51c:	656d6974 	strbvs	r6, [sp, #-2420]!	; 0xfffff68c
 520:	65675f72 	strbvs	r5, [r7, #-3954]!	; 0xfffff08e
 524:	73755f74 	cmnvc	r5, #116, 30	; 0x1d0
 528:	64006365 	strvs	r6, [r0], #-869	; 0xfffffc9b
 52c:	79616c65 	stmdbvc	r1!, {r0, r2, r5, r6, sl, fp, sp, lr}^
 530:	0073755f 	rsbseq	r7, r3, pc, asr r5
 534:	656d6974 	strbvs	r6, [sp, #-2420]!	; 0xfffff68c
 538:	65675f72 	strbvs	r5, [r7, #-3954]!	; 0xfffff08e
 53c:	73755f74 	cmnvc	r5, #116, 30	; 0x1d0
 540:	725f6365 	subsvc	r6, pc, #-1811939327	; 0x94000001
 544:	62007761 	andvs	r7, r0, #25427968	; 0x1840000
 548:	5f647561 	svcpl	0x00647561
 54c:	006c6176 	rsbeq	r6, ip, r6, ror r1
 550:	74617473 	strbtvc	r7, [r1], #-1139	; 0xfffffb8d
 554:	72617500 	rsbvc	r7, r1, #0, 10
 558:	61635f74 	smcvs	13812	; 0x35f4
 55c:	65675f6e 	strbvs	r5, [r7, #-3950]!	; 0xfffff092
 560:	47006374 	smlsdxmi	r0, r4, r3, r6
 564:	5f4f4950 	svcpl	0x004f4950
 568:	434e5546 	movtmi	r5, #58694	; 0xe546
 56c:	54554f5f 	ldrbpl	r4, [r5], #-3935	; 0xfffff0a1
 570:	00545550 	subseq	r5, r4, r0, asr r5
 574:	74726175 	ldrbtvc	r6, [r2], #-373	; 0xfffffe8b
 578:	7500632e 	strvc	r6, [r0, #-814]	; 0xfffffcd2
 57c:	5f747261 	svcpl	0x00747261
 580:	5f6e6163 	svcpl	0x006e6163
 584:	63747570 	cmnvs	r4, #112, 10	; 0x1c000000
 588:	72617500 	rsbvc	r7, r1, #0, 10
 58c:	64610074 	strbtvs	r0, [r1], #-116	; 0xffffff8c
 590:	75007264 	strvc	r7, [r0, #-612]	; 0xfffffd9c
 594:	5f747261 	svcpl	0x00747261
 598:	695f7874 	ldmdbvs	pc, {r2, r4, r5, r6, fp, ip, sp, lr}^	; <UNPREDICTABLE>
 59c:	6d655f73 	stclvs	15, cr5, [r5, #-460]!	; 0xfffffe34
 5a0:	00797470 	rsbseq	r7, r9, r0, ror r4
 5a4:	4f495047 	svcmi	0x00495047
 5a8:	4e55465f 	mrcmi	6, 2, r4, cr5, cr15, {2}
 5ac:	4c415f43 	mcrrmi	15, 4, r5, r1, cr3
 5b0:	47003054 	smlsdmi	r0, r4, r0, r3
 5b4:	5f4f4950 	svcpl	0x004f4950
 5b8:	434e5546 	movtmi	r5, #58694	; 0xe546
 5bc:	544c415f 	strbpl	r4, [ip], #-351	; 0xfffffea1
 5c0:	50470031 	subpl	r0, r7, r1, lsr r0
 5c4:	465f4f49 	ldrbmi	r4, [pc], -r9, asr #30
 5c8:	5f434e55 	svcpl	0x00434e55
 5cc:	32544c41 	subscc	r4, r4, #16640	; 0x4100
 5d0:	49504700 	ldmdbmi	r0, {r8, r9, sl, lr}^
 5d4:	55465f4f 	strbpl	r5, [r6, #-3919]	; 0xfffff0b1
 5d8:	415f434e 	cmpmi	pc, lr, asr #6
 5dc:	0033544c 	eorseq	r5, r3, ip, asr #8
 5e0:	4f495047 	svcmi	0x00495047
 5e4:	4e55465f 	mrcmi	6, 2, r4, cr5, cr15, {2}
 5e8:	4c415f43 	mcrrmi	15, 4, r5, r1, cr3
 5ec:	70003554 	andvc	r3, r0, r4, asr r5
 5f0:	32337475 	eorscc	r7, r3, #1962934272	; 0x75000000
 5f4:	75616200 	strbvc	r6, [r1, #-512]!	; 0xfffffe00
 5f8:	75610064 	strbvc	r0, [r1, #-100]!	; 0xffffff9c
 5fc:	6e655f78 	mcrvs	15, 3, r5, cr5, cr8, {3}
 600:	656c6261 	strbvs	r6, [ip, #-609]!	; 0xfffffd9f
 604:	61750073 	cmnvs	r5, r3, ror r0
 608:	675f7472 			; <UNDEFINED> instruction: 0x675f7472
 60c:	00637465 	rsbeq	r7, r3, r5, ror #8
 610:	20554e47 	subscs	r4, r5, r7, asr #28
 614:	20393943 	eorscs	r3, r9, r3, asr #18
 618:	332e3031 			; <UNDEFINED> instruction: 0x332e3031
 61c:	3220312e 	eorcc	r3, r0, #-2147483637	; 0x8000000b
 620:	30313230 	eorscc	r3, r1, r0, lsr r2
 624:	20343238 	eorscs	r3, r4, r8, lsr r2
 628:	6c657228 	sfmvs	f7, 2, [r5], #-160	; 0xffffff60
 62c:	65736165 	ldrbvs	r6, [r3, #-357]!	; 0xfffffe9b
 630:	6d2d2029 	stcvs	0, cr2, [sp, #-164]!	; 0xffffff5c
 634:	3d757063 	ldclcc	0, cr7, [r5, #-396]!	; 0xfffffe74
 638:	316d7261 	cmncc	sp, r1, ror #4
 63c:	6a363731 	bvs	d8e308 <__bss_end__+0xd84df8>
 640:	732d667a 			; <UNDEFINED> instruction: 0x732d667a
 644:	746d2d20 	strbtvc	r2, [sp], #-3360	; 0xfffff2e0
 648:	3d656e75 	stclcc	14, cr6, [r5, #-468]!	; 0xfffffe2c
 64c:	316d7261 	cmncc	sp, r1, ror #4
 650:	6a363731 	bvs	d8e31c <__bss_end__+0xd84e0c>
 654:	732d667a 			; <UNDEFINED> instruction: 0x732d667a
 658:	666d2d20 	strbtvs	r2, [sp], -r0, lsr #26
 65c:	74616f6c 	strbtvc	r6, [r1], #-3948	; 0xfffff094
 660:	6962612d 	stmdbvs	r2!, {r0, r2, r3, r5, r8, sp, lr}^
 664:	666f733d 			; <UNDEFINED> instruction: 0x666f733d
 668:	6d2d2074 	stcvs	0, cr2, [sp, #-464]!	; 0xfffffe30
 66c:	206d7261 	rsbcs	r7, sp, r1, ror #4
 670:	72616d2d 	rsbvc	r6, r1, #2880	; 0xb40
 674:	613d6863 	teqvs	sp, r3, ror #16
 678:	36766d72 			; <UNDEFINED> instruction: 0x36766d72
 67c:	2d207a6b 	vstmdbcs	r0!, {s14-s120}
 680:	62646767 	rsbvs	r6, r4, #27000832	; 0x19c0000
 684:	674f2d20 	strbvs	r2, [pc, -r0, lsr #26]
 688:	74732d20 	ldrbtvc	r2, [r3], #-3360	; 0xfffff2e0
 68c:	6e673d64 	cdpvs	13, 6, cr3, cr7, cr4, {3}
 690:	20393975 	eorscs	r3, r9, r5, ror r9
 694:	7266662d 	rsbvc	r6, r6, #47185920	; 0x2d00000
 698:	74736565 	ldrbtvc	r6, [r3], #-1381	; 0xfffffa9b
 69c:	69646e61 	stmdbvs	r4!, {r0, r5, r6, r9, sl, fp, sp, lr}^
 6a0:	6300676e 	movwvs	r6, #1902	; 0x76e
 6a4:	006c746e 	rsbeq	r7, ip, lr, ror #8
 6a8:	74726175 	ldrbtvc	r6, [r2], #-373	; 0xfffffe8b
 6ac:	7369645f 	cmnvc	r9, #1593835520	; 0x5f000000
 6b0:	656c6261 	strbvs	r6, [ip, #-609]!	; 0xfffffd9f
 6b4:	72617500 	rsbvc	r7, r1, #0, 10
 6b8:	61685f74 	smcvs	34292	; 0x85f4
 6bc:	61645f73 	smcvs	17907	; 0x45f3
 6c0:	47006174 	smlsdxmi	r0, r4, r1, r6
 6c4:	5f4f4950 	svcpl	0x004f4950
 6c8:	434e5546 	movtmi	r5, #58694	; 0xe546
 6cc:	544c415f 	strbpl	r4, [ip], #-351	; 0xfffffea1
 6d0:	726f0034 	rsbvc	r0, pc, #52, 0	; 0x34
 6d4:	336e695f 	cmncc	lr, #1556480	; 0x17c000
 6d8:	63730032 	cmnvs	r3, #50, 0	; 0x32
 6dc:	63746172 	cmnvs	r4, #-2147483620	; 0x8000001c
 6e0:	75610068 	strbvc	r0, [r1, #-104]!	; 0xffffff98
 6e4:	65705f78 	ldrbvs	r5, [r0, #-3960]!	; 0xfffff088
 6e8:	68706972 	ldmdavs	r0!, {r1, r4, r5, r6, r8, fp, sp, lr}^
 6ec:	682f0073 	stmdavs	pc!, {r0, r1, r4, r5, r6}	; <UNPREDICTABLE>
 6f0:	2f656d6f 	svccs	0x00656d6f
 6f4:	6c676e65 	stclvs	14, cr6, [r7], #-404	; 0xfffffe6c
 6f8:	632f7265 			; <UNDEFINED> instruction: 0x632f7265
 6fc:	7373616c 	cmnvc	r3, #27
 700:	3173632f 	cmncc	r3, pc, lsr #6
 704:	2d653034 	stclcs	0, cr3, [r5, #-208]!	; 0xffffff30
 708:	69773232 	ldmdbvs	r7!, {r1, r4, r5, r9, ip, sp}^
 70c:	696c2f6e 	stmdbvs	ip!, {r1, r2, r3, r5, r6, r8, r9, sl, fp, sp}^
 710:	2f697062 	svccs	0x00697062
 714:	66617473 			; <UNDEFINED> instruction: 0x66617473
 718:	72702d66 	rsbsvc	r2, r0, #6528	; 0x1980
 71c:	74617669 	strbtvc	r7, [r1], #-1641	; 0xfffff997
 720:	6e610065 	cdpvs	0, 6, cr0, cr1, cr5, {3}
 724:	6e695f64 	cdpvs	15, 6, cr5, cr9, cr4, {3}
 728:	75003233 	strvc	r3, [r0, #-563]	; 0xfffffdcd
 72c:	5f747261 	svcpl	0x00747261
 730:	63747570 	cmnvs	r4, #112, 10	; 0x1c000000
 734:	49504700 	ldmdbmi	r0, {r8, r9, sl, lr}^
 738:	55465f4f 	strbpl	r5, [r6, #-3919]	; 0xfffff0b1
 73c:	495f434e 	ldmdbmi	pc, {r1, r2, r3, r6, r8, r9, lr}^	; <UNPREDICTABLE>
 740:	5455504e 	ldrbpl	r5, [r5], #-78	; 0xffffffb2
 744:	69706700 	ldmdbvs	r0!, {r8, r9, sl, sp, lr}^
 748:	65735f6f 	ldrbvs	r5, [r3, #-3951]!	; 0xfffff091
 74c:	75665f74 	strbvc	r5, [r6, #-3956]!	; 0xfffff08c
 750:	6974636e 	ldmdbvs	r4!, {r1, r2, r3, r5, r6, r8, r9, sp, lr}^
 754:	67006e6f 	strvs	r6, [r0, -pc, ror #28]
 758:	32337465 	eorscc	r7, r3, #1694498816	; 0x65000000
 75c:	746e6900 	strbtvc	r6, [lr], #-2304	; 0xfffff700
 760:	616e7265 	cmnvs	lr, r5, ror #4
 764:	75705f6c 	ldrbvc	r5, [r0, #-3948]!	; 0xfffff094
 768:	61686374 	smcvs	34356	; 0x8634
 76c:	70720072 	rsbsvc	r0, r2, r2, ror r0
 770:	65735f69 	ldrbvs	r5, [r3, #-3945]!	; 0xfffff097
 774:	75705f74 	ldrbvc	r5, [r0, #-3956]!	; 0xfffff08c
 778:	2e006374 	mcrcs	3, 0, r6, cr0, cr4, {3}
 77c:	62696c2f 	rsbvs	r6, r9, #12032	; 0x2f00
 780:	75702f63 	ldrbvc	r2, [r0, #-3939]!	; 0xfffff09d
 784:	61686374 	smcvs	34356	; 0x8634
 788:	00632e72 	rsbeq	r2, r3, r2, ror lr
 78c:	5f697072 	svcpl	0x00697072
 790:	65736572 	ldrbvs	r6, [r3, #-1394]!	; 0xfffffa8e
 794:	75705f74 	ldrbvc	r5, [r0, #-3956]!	; 0xfffff08c
 798:	64006374 	strvs	r6, [r0], #-884	; 0xfffffc8c
 79c:	00747365 	rsbseq	r7, r4, r5, ror #6
 7a0:	696c2f2e 	stmdbvs	ip!, {r1, r2, r3, r5, r8, r9, sl, fp, sp}^
 7a4:	732f6362 			; <UNDEFINED> instruction: 0x732f6362
 7a8:	61637274 	smcvs	14116	; 0x3724
 7ac:	00632e74 	rsbeq	r2, r3, r4, ror lr
 7b0:	696c2f2e 	stmdbvs	ip!, {r1, r2, r3, r5, r8, r9, sl, fp, sp}^
 7b4:	732f6362 			; <UNDEFINED> instruction: 0x732f6362
 7b8:	6d637274 	sfmvs	f7, 2, [r3, #-464]!	; 0xfffffe30
 7bc:	00632e70 	rsbeq	r2, r3, r0, ror lr
 7c0:	696c2f2e 	stmdbvs	ip!, {r1, r2, r3, r5, r8, r9, sl, fp, sp}^
 7c4:	732f6362 			; <UNDEFINED> instruction: 0x732f6362
 7c8:	70637274 	rsbvc	r7, r3, r4, ror r2
 7cc:	00632e79 	rsbeq	r2, r3, r9, ror lr
 7d0:	657a6973 	ldrbvs	r6, [sl, #-2419]!	; 0xfffff68d
 7d4:	2e00745f 	cfmvsrcs	mvf0, r7
 7d8:	62696c2f 	rsbvs	r6, r9, #12032	; 0x2f00
 7dc:	74732f63 	ldrbtvc	r2, [r3], #-3939	; 0xfffff09d
 7e0:	6d636e72 	stclvs	14, cr6, [r3, #-456]!	; 0xfffffe38
 7e4:	00632e70 	rsbeq	r2, r3, r0, ror lr
 7e8:	74732f2e 	ldrbtvc	r2, [r3], #-3886	; 0xfffff0d2
 7ec:	2d666661 	stclcs	6, cr6, [r6, #-388]!	; 0xfffffe7c
 7f0:	2f637273 	svccs	0x00637273
 7f4:	61666564 	cmnvs	r6, r4, ror #10
 7f8:	2d746c75 	ldclcs	12, cr6, [r4, #-468]!	; 0xfffffe2c
 7fc:	6f626572 	svcvs	0x00626572
 800:	632d746f 			; <UNDEFINED> instruction: 0x632d746f
 804:	6f6c6c61 	svcvs	0x006c6c61
 808:	632e7475 			; <UNDEFINED> instruction: 0x632e7475
 80c:	69706700 	ldmdbvs	r0!, {r8, r9, sl, sp, lr}^
 810:	6c635f6f 	stclvs	15, cr5, [r3], #-444	; 0xfffffe44
 814:	67003072 	smlsdxvs	r0, r2, r0, r3
 818:	5f6f6970 	svcpl	0x006f6970
 81c:	30746573 	rsbscc	r6, r4, r3, ror r5
 820:	69706700 	ldmdbvs	r0!, {r8, r9, sl, sp, lr}^
 824:	72775f6f 	rsbsvc	r5, r7, #444	; 0x1bc
 828:	00657469 	rsbeq	r7, r5, r9, ror #8
 82c:	5f564544 	svcpl	0x00564544
 830:	334c4156 	movtcc	r4, #49494	; 0xc156
 834:	70670032 	rsbvc	r0, r7, r2, lsr r0
 838:	725f6f69 	subsvc	r6, pc, #420	; 0x1a4
 83c:	00646165 	rsbeq	r6, r4, r5, ror #2
 840:	6f697067 	svcvs	0x00697067
 844:	7465735f 	strbtvc	r7, [r5], #-863	; 0xfffffca1
 848:	706e695f 	rsbvc	r6, lr, pc, asr r9
 84c:	67007475 	smlsdxvs	r0, r5, r4, r7
 850:	5f6f6970 	svcpl	0x006f6970
 854:	5f746573 	svcpl	0x00746573
 858:	0066666f 	rsbeq	r6, r6, pc, ror #12
 85c:	6f697067 	svcvs	0x00697067
 860:	7465735f 	strbtvc	r7, [r5], #-863	; 0xfffffca1
 864:	74756f5f 	ldrbtvc	r6, [r5], #-3935	; 0xfffff0a1
 868:	00747570 	rsbseq	r7, r4, r0, ror r5
 86c:	636e7566 	cmnvs	lr, #427819008	; 0x19800000
 870:	69706700 	ldmdbvs	r0!, {r8, r9, sl, sp, lr}^
 874:	75665f6f 	strbvc	r5, [r6, #-3951]!	; 0xfffff091
 878:	745f636e 	ldrbvc	r6, [pc], #-878	; 880 <__code_start__-0x7780>
 87c:	69706700 	ldmdbvs	r0!, {r8, r9, sl, sp, lr}^
 880:	656c5f6f 	strbvs	r5, [ip, #-3951]!	; 0xfffff091
 884:	62003076 	andvs	r3, r0, #118, 0	; 0x76
 888:	006b6e61 	rsbeq	r6, fp, r1, ror #28
 88c:	6f697067 	svcvs	0x00697067
 890:	6700632e 	strvs	r6, [r0, -lr, lsr #6]
 894:	5f6f6970 	svcpl	0x006f6970
 898:	5f746573 	svcpl	0x00746573
 89c:	Address 0x000000000000089c is out of bounds.


Disassembly of section .debug_frame:

00000000 <.debug_frame>:
   0:	0000000c 	andeq	r0, r0, ip
   4:	ffffffff 			; <UNDEFINED> instruction: 0xffffffff
   8:	7c020001 	stcvc	0, cr0, [r2], {1}
   c:	000d0c0e 	andeq	r0, sp, lr, lsl #24
  10:	00000014 	andeq	r0, r0, r4, lsl r0
  14:	00000000 	andeq	r0, r0, r0
  18:	00008038 	andeq	r8, r0, r8, lsr r0
  1c:	00000014 	andeq	r0, r0, r4, lsl r0
  20:	84080e42 	strhi	r0, [r8], #-3650	; 0xfffff1be
  24:	00018e02 	andeq	r8, r1, r2, lsl #28
  28:	00000014 	andeq	r0, r0, r4, lsl r0
  2c:	00000000 	andeq	r0, r0, r0
  30:	0000804c 	andeq	r8, r0, ip, asr #32
  34:	00000018 	andeq	r0, r0, r8, lsl r0
  38:	84080e42 	strhi	r0, [r8], #-3650	; 0xfffff1be
  3c:	00018e02 	andeq	r8, r1, r2, lsl #28
  40:	00000018 	andeq	r0, r0, r8, lsl r0
  44:	00000000 	andeq	r0, r0, r0
  48:	00008064 	andeq	r8, r0, r4, rrx
  4c:	000000e4 	andeq	r0, r0, r4, ror #1
  50:	84100e42 	ldrhi	r0, [r0], #-3650	; 0xfffff1be
  54:	86038504 	strhi	r8, [r3], -r4, lsl #10
  58:	00018e02 	andeq	r8, r1, r2, lsl #28
  5c:	0000000c 	andeq	r0, r0, ip
  60:	ffffffff 			; <UNDEFINED> instruction: 0xffffffff
  64:	7c020001 	stcvc	0, cr0, [r2], {1}
  68:	000d0c0e 	andeq	r0, sp, lr, lsl #24
  6c:	00000034 	andeq	r0, r0, r4, lsr r0
  70:	0000005c 	andeq	r0, r0, ip, asr r0
  74:	00008148 	andeq	r8, r0, r8, asr #2
  78:	00000058 	andeq	r0, r0, r8, asr r0
  7c:	80100e42 	andshi	r0, r0, r2, asr #28
  80:	82038104 	andhi	r8, r3, #1
  84:	42018302 	andmi	r8, r1, #134217728	; 0x8000000
  88:	07841c0e 	streq	r1, [r4, lr, lsl #24]
  8c:	058e0685 	streq	r0, [lr, #1669]	; 0x685
  90:	5c280e42 	stcpl	14, cr0, [r8], #-264	; 0xfffffef8
  94:	ce421c0e 	cdpgt	12, 4, cr1, cr2, cr14, {0}
  98:	100ec4c5 	andne	ip, lr, r5, asr #9
  9c:	c1c2c342 	bicgt	ip, r2, r2, asr #6
  a0:	00000ec0 	andeq	r0, r0, r0, asr #29
  a4:	0000000c 	andeq	r0, r0, ip
  a8:	ffffffff 			; <UNDEFINED> instruction: 0xffffffff
  ac:	7c020001 	stcvc	0, cr0, [r2], {1}
  b0:	000d0c0e 	andeq	r0, sp, lr, lsl #24
  b4:	00000014 	andeq	r0, r0, r4, lsl r0
  b8:	000000a4 	andeq	r0, r0, r4, lsr #1
  bc:	000081a0 	andeq	r8, r0, r0, lsr #3
  c0:	00000034 	andeq	r0, r0, r4, lsr r0
  c4:	84080e42 	strhi	r0, [r8], #-3650	; 0xfffff1be
  c8:	00018e02 	andeq	r8, r1, r2, lsl #28
  cc:	0000000c 	andeq	r0, r0, ip
  d0:	ffffffff 			; <UNDEFINED> instruction: 0xffffffff
  d4:	7c020001 	stcvc	0, cr0, [r2], {1}
  d8:	000d0c0e 	andeq	r0, sp, lr, lsl #24
  dc:	0000000c 	andeq	r0, r0, ip
  e0:	000000cc 	andeq	r0, r0, ip, asr #1
  e4:	000081d4 	ldrdeq	r8, [r0], -r4
  e8:	00000014 	andeq	r0, r0, r4, lsl r0
  ec:	0000000c 	andeq	r0, r0, ip
  f0:	000000cc 	andeq	r0, r0, ip, asr #1
  f4:	000081e8 	andeq	r8, r0, r8, ror #3
  f8:	00000024 	andeq	r0, r0, r4, lsr #32
  fc:	0000000c 	andeq	r0, r0, ip
 100:	000000cc 	andeq	r0, r0, ip, asr #1
 104:	0000820c 	andeq	r8, r0, ip, lsl #4
 108:	00000038 	andeq	r0, r0, r8, lsr r0
 10c:	00000024 	andeq	r0, r0, r4, lsr #32
 110:	000000cc 	andeq	r0, r0, ip, asr #1
 114:	00008244 	andeq	r8, r0, r4, asr #4
 118:	000001b4 			; <UNDEFINED> instruction: 0x000001b4
 11c:	84140e42 	ldrhi	r0, [r4], #-3650	; 0xfffff1be
 120:	86048505 	strhi	r8, [r4], -r5, lsl #10
 124:	8e028703 	cdphi	7, 0, cr8, cr2, cr3, {0}
 128:	600e4201 	andvs	r4, lr, r1, lsl #4
 12c:	0e0a9a02 	vmlaeq.f32	s18, s20, s4
 130:	000b4214 	andeq	r4, fp, r4, lsl r2
 134:	00000014 	andeq	r0, r0, r4, lsl r0
 138:	000000cc 	andeq	r0, r0, ip, asr #1
 13c:	000083f8 	strdeq	r8, [r0], -r8	; <UNPREDICTABLE>
 140:	00000064 	andeq	r0, r0, r4, rrx
 144:	8e040e54 	mcrhi	14, 0, r0, cr4, cr4, {2}
 148:	100e4201 	andne	r4, lr, r1, lsl #4
 14c:	0000002c 	andeq	r0, r0, ip, lsr #32
 150:	000000cc 	andeq	r0, r0, ip, asr #1
 154:	0000845c 	andeq	r8, r0, ip, asr r4
 158:	000004b8 			; <UNDEFINED> instruction: 0x000004b8
 15c:	84240e42 	strthi	r0, [r4], #-3650	; 0xfffff1be
 160:	86088509 	strhi	r8, [r8], -r9, lsl #10
 164:	88068707 	stmdahi	r6, {r0, r1, r2, r8, r9, sl, pc}
 168:	8a048905 	bhi	122584 <__bss_end__+0x119074>
 16c:	8e028b03 	vmlahi.f64	d8, d2, d3
 170:	b80e4201 	stmdalt	lr, {r0, r9, lr}
 174:	02380302 	eorseq	r0, r8, #134217728	; 0x8000000
 178:	0000240e 	andeq	r2, r0, lr, lsl #8
 17c:	0000000c 	andeq	r0, r0, ip
 180:	ffffffff 			; <UNDEFINED> instruction: 0xffffffff
 184:	7c020001 	stcvc	0, cr0, [r2], {1}
 188:	000d0c0e 	andeq	r0, sp, lr, lsl #24
 18c:	00000014 	andeq	r0, r0, r4, lsl r0
 190:	0000017c 	andeq	r0, r0, ip, ror r1
 194:	00008914 	andeq	r8, r0, r4, lsl r9
 198:	0000002c 	andeq	r0, r0, ip, lsr #32
 19c:	84080e42 	strhi	r0, [r8], #-3650	; 0xfffff1be
 1a0:	00018e02 	andeq	r8, r1, r2, lsl #28
 1a4:	0000000c 	andeq	r0, r0, ip
 1a8:	ffffffff 			; <UNDEFINED> instruction: 0xffffffff
 1ac:	7c020001 	stcvc	0, cr0, [r2], {1}
 1b0:	000d0c0e 	andeq	r0, sp, lr, lsl #24
 1b4:	00000014 	andeq	r0, r0, r4, lsl r0
 1b8:	000001a4 	andeq	r0, r0, r4, lsr #3
 1bc:	00008940 	andeq	r8, r0, r0, asr #18
 1c0:	0000003c 	andeq	r0, r0, ip, lsr r0
 1c4:	84080e42 	strhi	r0, [r8], #-3650	; 0xfffff1be
 1c8:	00018e02 	andeq	r8, r1, r2, lsl #28
 1cc:	0000000c 	andeq	r0, r0, ip
 1d0:	ffffffff 			; <UNDEFINED> instruction: 0xffffffff
 1d4:	7c020001 	stcvc	0, cr0, [r2], {1}
 1d8:	000d0c0e 	andeq	r0, sp, lr, lsl #24
 1dc:	0000000c 	andeq	r0, r0, ip
 1e0:	000001cc 	andeq	r0, r0, ip, asr #3
 1e4:	0000897c 	andeq	r8, r0, ip, ror r9
 1e8:	00000004 	andeq	r0, r0, r4
 1ec:	0000000c 	andeq	r0, r0, ip
 1f0:	ffffffff 			; <UNDEFINED> instruction: 0xffffffff
 1f4:	7c020001 	stcvc	0, cr0, [r2], {1}
 1f8:	000d0c0e 	andeq	r0, sp, lr, lsl #24
 1fc:	0000000c 	andeq	r0, r0, ip
 200:	000001ec 	andeq	r0, r0, ip, ror #3
 204:	00008980 	andeq	r8, r0, r0, lsl #19
 208:	00000018 	andeq	r0, r0, r8, lsl r0
 20c:	0000000c 	andeq	r0, r0, ip
 210:	000001ec 	andeq	r0, r0, ip, ror #3
 214:	00008998 	muleq	r0, r8, r9
 218:	00000014 	andeq	r0, r0, r4, lsl r0
 21c:	00000014 	andeq	r0, r0, r4, lsl r0
 220:	000001ec 	andeq	r0, r0, ip, ror #3
 224:	000089ac 	andeq	r8, r0, ip, lsr #19
 228:	00000054 	andeq	r0, r0, r4, asr r0
 22c:	84080e42 	strhi	r0, [r8], #-3650	; 0xfffff1be
 230:	00018e02 	andeq	r8, r1, r2, lsl #28
 234:	0000000c 	andeq	r0, r0, ip
 238:	ffffffff 			; <UNDEFINED> instruction: 0xffffffff
 23c:	7c020001 	stcvc	0, cr0, [r2], {1}
 240:	000d0c0e 	andeq	r0, sp, lr, lsl #24
 244:	00000014 	andeq	r0, r0, r4, lsl r0
 248:	00000234 	andeq	r0, r0, r4, lsr r2
 24c:	00008a00 	andeq	r8, r0, r0, lsl #20
 250:	00000014 	andeq	r0, r0, r4, lsl r0
 254:	84080e42 	strhi	r0, [r8], #-3650	; 0xfffff1be
 258:	00018e02 	andeq	r8, r1, r2, lsl #28
 25c:	00000014 	andeq	r0, r0, r4, lsl r0
 260:	00000234 	andeq	r0, r0, r4, lsr r2
 264:	00008a14 	andeq	r8, r0, r4, lsl sl
 268:	0000001c 	andeq	r0, r0, ip, lsl r0
 26c:	84080e42 	strhi	r0, [r8], #-3650	; 0xfffff1be
 270:	00018e02 	andeq	r8, r1, r2, lsl #28
 274:	00000018 	andeq	r0, r0, r8, lsl r0
 278:	00000234 	andeq	r0, r0, r4, lsr r2
 27c:	00008a30 	andeq	r8, r0, r0, lsr sl
 280:	00000024 	andeq	r0, r0, r4, lsr #32
 284:	84100e42 	ldrhi	r0, [r0], #-3650	; 0xfffff1be
 288:	86038504 	strhi	r8, [r3], -r4, lsl #10
 28c:	00018e02 	andeq	r8, r1, r2, lsl #28
 290:	00000014 	andeq	r0, r0, r4, lsl r0
 294:	00000234 	andeq	r0, r0, r4, lsr r2
 298:	00008a54 	andeq	r8, r0, r4, asr sl
 29c:	00000018 	andeq	r0, r0, r8, lsl r0
 2a0:	84080e42 	strhi	r0, [r8], #-3650	; 0xfffff1be
 2a4:	00018e02 	andeq	r8, r1, r2, lsl #28
 2a8:	00000014 	andeq	r0, r0, r4, lsl r0
 2ac:	00000234 	andeq	r0, r0, r4, lsr r2
 2b0:	00008a6c 	andeq	r8, r0, ip, ror #20
 2b4:	00000018 	andeq	r0, r0, r8, lsl r0
 2b8:	84080e42 	strhi	r0, [r8], #-3650	; 0xfffff1be
 2bc:	00018e02 	andeq	r8, r1, r2, lsl #28
 2c0:	0000000c 	andeq	r0, r0, ip
 2c4:	ffffffff 			; <UNDEFINED> instruction: 0xffffffff
 2c8:	7c020001 	stcvc	0, cr0, [r2], {1}
 2cc:	000d0c0e 	andeq	r0, sp, lr, lsl #24
 2d0:	00000018 	andeq	r0, r0, r8, lsl r0
 2d4:	000002c0 	andeq	r0, r0, r0, asr #5
 2d8:	00008a84 	andeq	r8, r0, r4, lsl #21
 2dc:	00000020 	andeq	r0, r0, r0, lsr #32
 2e0:	84100e42 	ldrhi	r0, [r0], #-3650	; 0xfffff1be
 2e4:	86038504 	strhi	r8, [r3], -r4, lsl #10
 2e8:	00018e02 	andeq	r8, r1, r2, lsl #28
 2ec:	00000018 	andeq	r0, r0, r8, lsl r0
 2f0:	000002c0 	andeq	r0, r0, r0, asr #5
 2f4:	00008aa4 	andeq	r8, r0, r4, lsr #21
 2f8:	00000020 	andeq	r0, r0, r0, lsr #32
 2fc:	84100e42 	ldrhi	r0, [r0], #-3650	; 0xfffff1be
 300:	86038504 	strhi	r8, [r3], -r4, lsl #10
 304:	00018e02 	andeq	r8, r1, r2, lsl #28
 308:	00000014 	andeq	r0, r0, r4, lsl r0
 30c:	000002c0 	andeq	r0, r0, r0, asr #5
 310:	00008ac4 	andeq	r8, r0, r4, asr #21
 314:	000000b0 	strheq	r0, [r0], -r0	; <UNPREDICTABLE>
 318:	84080e42 	strhi	r0, [r8], #-3650	; 0xfffff1be
 31c:	00018e02 	andeq	r8, r1, r2, lsl #28
 320:	00000014 	andeq	r0, r0, r4, lsl r0
 324:	000002c0 	andeq	r0, r0, r0, asr #5
 328:	00008b74 	andeq	r8, r0, r4, ror fp
 32c:	00000018 	andeq	r0, r0, r8, lsl r0
 330:	84080e42 	strhi	r0, [r8], #-3650	; 0xfffff1be
 334:	00018e02 	andeq	r8, r1, r2, lsl #28
 338:	00000014 	andeq	r0, r0, r4, lsl r0
 33c:	000002c0 	andeq	r0, r0, r0, asr #5
 340:	00008b8c 	andeq	r8, r0, ip, lsl #23
 344:	00000020 	andeq	r0, r0, r0, lsr #32
 348:	84080e42 	strhi	r0, [r8], #-3650	; 0xfffff1be
 34c:	00018e02 	andeq	r8, r1, r2, lsl #28
 350:	00000014 	andeq	r0, r0, r4, lsl r0
 354:	000002c0 	andeq	r0, r0, r0, asr #5
 358:	00008bac 	andeq	r8, r0, ip, lsr #23
 35c:	00000030 	andeq	r0, r0, r0, lsr r0
 360:	84080e42 	strhi	r0, [r8], #-3650	; 0xfffff1be
 364:	00018e02 	andeq	r8, r1, r2, lsl #28
 368:	00000014 	andeq	r0, r0, r4, lsl r0
 36c:	000002c0 	andeq	r0, r0, r0, asr #5
 370:	00008bdc 	ldrdeq	r8, [r0], -ip
 374:	00000030 	andeq	r0, r0, r0, lsr r0
 378:	84080e42 	strhi	r0, [r8], #-3650	; 0xfffff1be
 37c:	00018e02 	andeq	r8, r1, r2, lsl #28
 380:	00000014 	andeq	r0, r0, r4, lsl r0
 384:	000002c0 	andeq	r0, r0, r0, asr #5
 388:	00008c0c 	andeq	r8, r0, ip, lsl #24
 38c:	00000010 	andeq	r0, r0, r0, lsl r0
 390:	84080e42 	strhi	r0, [r8], #-3650	; 0xfffff1be
 394:	00018e02 	andeq	r8, r1, r2, lsl #28
 398:	00000014 	andeq	r0, r0, r4, lsl r0
 39c:	000002c0 	andeq	r0, r0, r0, asr #5
 3a0:	00008c1c 	andeq	r8, r0, ip, lsl ip
 3a4:	00000020 	andeq	r0, r0, r0, lsr #32
 3a8:	84080e42 	strhi	r0, [r8], #-3650	; 0xfffff1be
 3ac:	00018e02 	andeq	r8, r1, r2, lsl #28
 3b0:	00000014 	andeq	r0, r0, r4, lsl r0
 3b4:	000002c0 	andeq	r0, r0, r0, asr #5
 3b8:	00008c3c 	andeq	r8, r0, ip, lsr ip
 3bc:	00000014 	andeq	r0, r0, r4, lsl r0
 3c0:	84080e42 	strhi	r0, [r8], #-3650	; 0xfffff1be
 3c4:	00018e02 	andeq	r8, r1, r2, lsl #28
 3c8:	00000014 	andeq	r0, r0, r4, lsl r0
 3cc:	000002c0 	andeq	r0, r0, r0, asr #5
 3d0:	00008c50 	andeq	r8, r0, r0, asr ip
 3d4:	00000024 	andeq	r0, r0, r4, lsr #32
 3d8:	84080e42 	strhi	r0, [r8], #-3650	; 0xfffff1be
 3dc:	00018e02 	andeq	r8, r1, r2, lsl #28
 3e0:	0000000c 	andeq	r0, r0, ip
 3e4:	ffffffff 			; <UNDEFINED> instruction: 0xffffffff
 3e8:	7c020001 	stcvc	0, cr0, [r2], {1}
 3ec:	000d0c0e 	andeq	r0, sp, lr, lsl #24
 3f0:	00000014 	andeq	r0, r0, r4, lsl r0
 3f4:	000003e0 	andeq	r0, r0, r0, ror #7
 3f8:	00008c74 	andeq	r8, r0, r4, ror ip
 3fc:	00000014 	andeq	r0, r0, r4, lsl r0
 400:	84080e42 	strhi	r0, [r8], #-3650	; 0xfffff1be
 404:	00018e02 	andeq	r8, r1, r2, lsl #28
 408:	0000000c 	andeq	r0, r0, ip
 40c:	000003e0 	andeq	r0, r0, r0, ror #7
 410:	00008c88 	andeq	r8, r0, r8, lsl #25
 414:	00000018 	andeq	r0, r0, r8, lsl r0
 418:	0000000c 	andeq	r0, r0, ip
 41c:	000003e0 	andeq	r0, r0, r0, ror #7
 420:	00008ca0 	andeq	r8, r0, r0, lsr #25
 424:	00000010 	andeq	r0, r0, r0, lsl r0
 428:	0000000c 	andeq	r0, r0, ip
 42c:	ffffffff 			; <UNDEFINED> instruction: 0xffffffff
 430:	7c020001 	stcvc	0, cr0, [r2], {1}
 434:	000d0c0e 	andeq	r0, sp, lr, lsl #24
 438:	0000000c 	andeq	r0, r0, ip
 43c:	00000428 	andeq	r0, r0, r8, lsr #8
 440:	00008cb0 			; <UNDEFINED> instruction: 0x00008cb0
 444:	00000034 	andeq	r0, r0, r4, lsr r0
 448:	0000000c 	andeq	r0, r0, ip
 44c:	ffffffff 			; <UNDEFINED> instruction: 0xffffffff
 450:	7c020001 	stcvc	0, cr0, [r2], {1}
 454:	000d0c0e 	andeq	r0, sp, lr, lsl #24
 458:	0000000c 	andeq	r0, r0, ip
 45c:	00000448 	andeq	r0, r0, r8, asr #8
 460:	00008ce4 	andeq	r8, r0, r4, ror #25
 464:	0000002c 	andeq	r0, r0, ip, lsr #32
 468:	0000000c 	andeq	r0, r0, ip
 46c:	ffffffff 			; <UNDEFINED> instruction: 0xffffffff
 470:	7c020001 	stcvc	0, cr0, [r2], {1}
 474:	000d0c0e 	andeq	r0, sp, lr, lsl #24
 478:	0000000c 	andeq	r0, r0, ip
 47c:	00000468 	andeq	r0, r0, r8, ror #8
 480:	00008d10 	andeq	r8, r0, r0, lsl sp
 484:	00000020 	andeq	r0, r0, r0, lsr #32
 488:	0000000c 	andeq	r0, r0, ip
 48c:	ffffffff 			; <UNDEFINED> instruction: 0xffffffff
 490:	7c020001 	stcvc	0, cr0, [r2], {1}
 494:	000d0c0e 	andeq	r0, sp, lr, lsl #24
 498:	0000000c 	andeq	r0, r0, ip
 49c:	00000488 	andeq	r0, r0, r8, lsl #9
 4a0:	00008d30 	andeq	r8, r0, r0, lsr sp
 4a4:	0000002c 	andeq	r0, r0, ip, lsr #32
 4a8:	0000000c 	andeq	r0, r0, ip
 4ac:	ffffffff 			; <UNDEFINED> instruction: 0xffffffff
 4b0:	7c020001 	stcvc	0, cr0, [r2], {1}
 4b4:	000d0c0e 	andeq	r0, sp, lr, lsl #24
 4b8:	0000000c 	andeq	r0, r0, ip
 4bc:	000004a8 	andeq	r0, r0, r8, lsr #9
 4c0:	00008d5c 	andeq	r8, r0, ip, asr sp
 4c4:	00000004 	andeq	r0, r0, r4
 4c8:	0000000c 	andeq	r0, r0, ip
 4cc:	ffffffff 			; <UNDEFINED> instruction: 0xffffffff
 4d0:	7c020001 	stcvc	0, cr0, [r2], {1}
 4d4:	000d0c0e 	andeq	r0, sp, lr, lsl #24
 4d8:	00000018 	andeq	r0, r0, r8, lsl r0
 4dc:	000004c8 	andeq	r0, r0, r8, asr #9
 4e0:	00008d78 	andeq	r8, r0, r8, ror sp
 4e4:	00000064 	andeq	r0, r0, r4, rrx
 4e8:	84100e46 	ldrhi	r0, [r0], #-3654	; 0xfffff1ba
 4ec:	86038504 	strhi	r8, [r3], -r4, lsl #10
 4f0:	00018e02 	andeq	r8, r1, r2, lsl #28
 4f4:	00000014 	andeq	r0, r0, r4, lsl r0
 4f8:	000004c8 	andeq	r0, r0, r8, asr #9
 4fc:	00008ddc 	ldrdeq	r8, [r0], -ip
 500:	00000010 	andeq	r0, r0, r0, lsl r0
 504:	84080e42 	strhi	r0, [r8], #-3650	; 0xfffff1be
 508:	00018e02 	andeq	r8, r1, r2, lsl #28
 50c:	00000014 	andeq	r0, r0, r4, lsl r0
 510:	000004c8 	andeq	r0, r0, r8, asr #9
 514:	00008dec 	andeq	r8, r0, ip, ror #27
 518:	00000024 	andeq	r0, r0, r4, lsr #32
 51c:	84080e46 	strhi	r0, [r8], #-3654	; 0xfffff1ba
 520:	00018e02 	andeq	r8, r1, r2, lsl #28
 524:	00000014 	andeq	r0, r0, r4, lsl r0
 528:	000004c8 	andeq	r0, r0, r8, asr #9
 52c:	00008e10 	andeq	r8, r0, r0, lsl lr
 530:	00000024 	andeq	r0, r0, r4, lsr #32
 534:	84080e46 	strhi	r0, [r8], #-3654	; 0xfffff1ba
 538:	00018e02 	andeq	r8, r1, r2, lsl #28
 53c:	00000014 	andeq	r0, r0, r4, lsl r0
 540:	000004c8 	andeq	r0, r0, r8, asr #9
 544:	00008e34 	andeq	r8, r0, r4, lsr lr
 548:	00000010 	andeq	r0, r0, r0, lsl r0
 54c:	84080e42 	strhi	r0, [r8], #-3650	; 0xfffff1be
 550:	00018e02 	andeq	r8, r1, r2, lsl #28
 554:	00000014 	andeq	r0, r0, r4, lsl r0
 558:	000004c8 	andeq	r0, r0, r8, asr #9
 55c:	00008e44 	andeq	r8, r0, r4, asr #28
 560:	0000001c 	andeq	r0, r0, ip, lsl r0
 564:	84080e42 	strhi	r0, [r8], #-3650	; 0xfffff1be
 568:	00018e02 	andeq	r8, r1, r2, lsl #28
 56c:	00000018 	andeq	r0, r0, r8, lsl r0
 570:	000004c8 	andeq	r0, r0, r8, asr #9
 574:	00008e60 	andeq	r8, r0, r0, ror #28
 578:	00000034 	andeq	r0, r0, r4, lsr r0
 57c:	84080e46 	strhi	r0, [r8], #-3654	; 0xfffff1ba
 580:	4e018e02 	cdpmi	14, 0, cr8, cr1, cr2, {0}
 584:	cec4000e 	cdpgt	0, 12, cr0, cr4, cr14, {0}

Disassembly of section .debug_ranges:

00000000 <.debug_ranges>:
   0:	00008980 	andeq	r8, r0, r0, lsl #19
   4:	00008a00 	andeq	r8, r0, r0, lsl #20
	...
  10:	00008d30 	andeq	r8, r0, r0, lsr sp
  14:	00008d5c 	andeq	r8, r0, ip, asr sp
	...
