
1-test-malloc.elf:     file format elf32-littlearm


Disassembly of section .text:

00008000 <__code_start__>:
    8000:	e3a00013 	mov	r0, #19, 0
    8004:	e3800080 	orr	r0, r0, #128, 0	; 0x80
    8008:	e129f000 	msr	CPSR_fc, r0
    800c:	e3a01000 	mov	r1, #0, 0
    8010:	ee071f95 	mcr	15, 0, r1, cr7, cr5, {4}
    8014:	e3a0d302 	mov	sp, #134217728	; 0x8000000
    8018:	e3a0b000 	mov	fp, #0, 0
    801c:	eb00034e 	bl	8d5c <_cstart>
    8020:	eb000397 	bl	8e84 <rpi_reboot>

00008024 <PUT32>:
    8024:	e5801000 	str	r1, [r0]
    8028:	e12fff1e 	bx	lr

0000802c <GET32>:
    802c:	e5900000 	ldr	r0, [r0]
    8030:	e12fff1e 	bx	lr

00008034 <BRANCHTO>:
    8034:	e12fff10 	bx	r0

00008038 <notmain>:
    8038:	e92d4070 	push	{r4, r5, r6, lr}
    803c:	e24dd010 	sub	sp, sp, #16, 0
    8040:	e3a00001 	mov	r0, #1, 0
    8044:	eb00007a 	bl	8234 <kr_malloc>
    8048:	e1a06000 	mov	r6, r0
    804c:	e1a01000 	mov	r1, r0
    8050:	e59f00b8 	ldr	r0, [pc, #184]	; 8110 <notmain+0xd8>
    8054:	eb0000a4 	bl	82ec <printk>
    8058:	e3a05000 	mov	r5, #0, 0
    805c:	e3550009 	cmp	r5, #9, 0
    8060:	ca000023 	bgt	80f4 <notmain+0xbc>
    8064:	e3a00001 	mov	r0, #1, 0
    8068:	eb000071 	bl	8234 <kr_malloc>
    806c:	e1a04000 	mov	r4, r0
    8070:	e1a01000 	mov	r1, r0
    8074:	e59f0094 	ldr	r0, [pc, #148]	; 8110 <notmain+0xd8>
    8078:	eb00009b 	bl	82ec <printk>
    807c:	e1560004 	cmp	r6, r4
    8080:	2a000007 	bcs	80a4 <notmain+0x6c>
    8084:	e2863010 	add	r3, r6, #16, 0
    8088:	e1530004 	cmp	r3, r4
    808c:	1a00000c 	bne	80c4 <notmain+0x8c>
    8090:	e1a01005 	mov	r1, r5
    8094:	e59f0078 	ldr	r0, [pc, #120]	; 8114 <notmain+0xdc>
    8098:	eb000093 	bl	82ec <printk>
    809c:	e2855001 	add	r5, r5, #1, 0
    80a0:	eaffffed 	b	805c <notmain+0x24>
    80a4:	e59f306c 	ldr	r3, [pc, #108]	; 8118 <notmain+0xe0>
    80a8:	e58d3000 	str	r3, [sp]
    80ac:	e3a03024 	mov	r3, #36, 0	; 0x24
    80b0:	e59f2064 	ldr	r2, [pc, #100]	; 811c <notmain+0xe4>
    80b4:	e59f1064 	ldr	r1, [pc, #100]	; 8120 <notmain+0xe8>
    80b8:	e59f0064 	ldr	r0, [pc, #100]	; 8124 <notmain+0xec>
    80bc:	eb00008a 	bl	82ec <printk>
    80c0:	eb00031a 	bl	8d30 <clean_reboot>
    80c4:	e0443006 	sub	r3, r4, r6
    80c8:	e58d300c 	str	r3, [sp, #12]
    80cc:	e3a03010 	mov	r3, #16, 0
    80d0:	e58d3008 	str	r3, [sp, #8]
    80d4:	e58d4004 	str	r4, [sp, #4]
    80d8:	e58d6000 	str	r6, [sp]
    80dc:	e3a03026 	mov	r3, #38, 0	; 0x26
    80e0:	e59f2034 	ldr	r2, [pc, #52]	; 811c <notmain+0xe4>
    80e4:	e59f1034 	ldr	r1, [pc, #52]	; 8120 <notmain+0xe8>
    80e8:	e59f0038 	ldr	r0, [pc, #56]	; 8128 <notmain+0xf0>
    80ec:	eb00007e 	bl	82ec <printk>
    80f0:	eb00030e 	bl	8d30 <clean_reboot>
    80f4:	e59f0030 	ldr	r0, [pc, #48]	; 812c <notmain+0xf4>
    80f8:	eb00007b 	bl	82ec <printk>
    80fc:	e3a0100a 	mov	r1, #10, 0
    8100:	e59f0028 	ldr	r0, [pc, #40]	; 8130 <notmain+0xf8>
    8104:	eb000078 	bl	82ec <printk>
    8108:	e28dd010 	add	sp, sp, #16, 0
    810c:	e8bd8070 	pop	{r4, r5, r6, pc}
    8110:	000098c0 	andeq	r9, r0, r0, asr #17
    8114:	00009938 	andeq	r9, r0, r8, lsr r9
    8118:	000098f4 	strdeq	r9, [r0], -r4
    811c:	00009984 	andeq	r9, r0, r4, lsl #19
    8120:	000098d0 	ldrdeq	r9, [r0], -r0
    8124:	000098e0 	andeq	r9, r0, r0, ror #17
    8128:	000098fc 	strdeq	r9, [r0], -ip
    812c:	00009948 	andeq	r9, r0, r8, asr #18
    8130:	00009950 	andeq	r9, r0, r0, asr r9

00008134 <kr_free>:
    8134:	e52de004 	push	{lr}		; (str lr, [sp, #-4]!)
    8138:	e2401008 	sub	r1, r0, #8, 0
    813c:	e59f30a8 	ldr	r3, [pc, #168]	; 81ec <kr_free+0xb8>
    8140:	e5933000 	ldr	r3, [r3]
    8144:	ea000000 	b	814c <kr_free+0x18>
    8148:	e1a03002 	mov	r3, r2
    814c:	e1530001 	cmp	r3, r1
    8150:	2a000002 	bcs	8160 <kr_free+0x2c>
    8154:	e5932000 	ldr	r2, [r3]
    8158:	e1520001 	cmp	r2, r1
    815c:	8a000007 	bhi	8180 <kr_free+0x4c>
    8160:	e5932000 	ldr	r2, [r3]
    8164:	e1520003 	cmp	r2, r3
    8168:	8afffff6 	bhi	8148 <kr_free+0x14>
    816c:	e1530001 	cmp	r3, r1
    8170:	3a000002 	bcc	8180 <kr_free+0x4c>
    8174:	e1520001 	cmp	r2, r1
    8178:	91a03002 	movls	r3, r2
    817c:	9afffff2 	bls	814c <kr_free+0x18>
    8180:	e510c004 	ldr	ip, [r0, #-4]
    8184:	e081e18c 	add	lr, r1, ip, lsl #3
    8188:	e5932000 	ldr	r2, [r3]
    818c:	e15e0002 	cmp	lr, r2
    8190:	0a000008 	beq	81b8 <kr_free+0x84>
    8194:	e5002008 	str	r2, [r0, #-8]
    8198:	e5932004 	ldr	r2, [r3, #4]
    819c:	e083c182 	add	ip, r3, r2, lsl #3
    81a0:	e15c0001 	cmp	ip, r1
    81a4:	0a00000a 	beq	81d4 <kr_free+0xa0>
    81a8:	e5831000 	str	r1, [r3]
    81ac:	e59f2038 	ldr	r2, [pc, #56]	; 81ec <kr_free+0xb8>
    81b0:	e5823000 	str	r3, [r2]
    81b4:	e49df004 	pop	{pc}		; (ldr pc, [sp], #4)
    81b8:	e5922004 	ldr	r2, [r2, #4]
    81bc:	e08cc002 	add	ip, ip, r2
    81c0:	e500c004 	str	ip, [r0, #-4]
    81c4:	e5932000 	ldr	r2, [r3]
    81c8:	e5922000 	ldr	r2, [r2]
    81cc:	e5002008 	str	r2, [r0, #-8]
    81d0:	eafffff0 	b	8198 <kr_free+0x64>
    81d4:	e5101004 	ldr	r1, [r0, #-4]
    81d8:	e0822001 	add	r2, r2, r1
    81dc:	e5832004 	str	r2, [r3, #4]
    81e0:	e5102008 	ldr	r2, [r0, #-8]
    81e4:	e5832000 	str	r2, [r3]
    81e8:	eaffffef 	b	81ac <kr_free+0x78>
    81ec:	00009d10 	andeq	r9, r0, r0, lsl sp

000081f0 <morecore>:
    81f0:	e92d4010 	push	{r4, lr}
    81f4:	e1a04000 	mov	r4, r0
    81f8:	e3500b01 	cmp	r0, #1024	; 0x400
    81fc:	33a04b01 	movcc	r4, #1024	; 0x400
    8200:	e1a00184 	lsl	r0, r4, #3
    8204:	eb000035 	bl	82e0 <sbrk>
    8208:	e3700001 	cmn	r0, #1, 0
    820c:	0a000005 	beq	8228 <morecore+0x38>
    8210:	e5804004 	str	r4, [r0, #4]
    8214:	e2800008 	add	r0, r0, #8, 0
    8218:	ebffffc5 	bl	8134 <kr_free>
    821c:	e59f300c 	ldr	r3, [pc, #12]	; 8230 <morecore+0x40>
    8220:	e5930000 	ldr	r0, [r3]
    8224:	e8bd8010 	pop	{r4, pc}
    8228:	e3a00000 	mov	r0, #0, 0
    822c:	e8bd8010 	pop	{r4, pc}
    8230:	00009d10 	andeq	r9, r0, r0, lsl sp

00008234 <kr_malloc>:
    8234:	e92d4010 	push	{r4, lr}
    8238:	e2804007 	add	r4, r0, #7, 0
    823c:	e1a041a4 	lsr	r4, r4, #3
    8240:	e2844001 	add	r4, r4, #1, 0
    8244:	e59f3090 	ldr	r3, [pc, #144]	; 82dc <kr_malloc+0xa8>
    8248:	e5932000 	ldr	r2, [r3]
    824c:	e3520000 	cmp	r2, #0, 0
    8250:	0a000001 	beq	825c <kr_malloc+0x28>
    8254:	e5920000 	ldr	r0, [r2]
    8258:	ea000013 	b	82ac <kr_malloc+0x78>
    825c:	e2832008 	add	r2, r3, #8, 0
    8260:	e5832000 	str	r2, [r3]
    8264:	e5832008 	str	r2, [r3, #8]
    8268:	e3a01000 	mov	r1, #0, 0
    826c:	e583100c 	str	r1, [r3, #12]
    8270:	eafffff7 	b	8254 <kr_malloc+0x20>
    8274:	0a000007 	beq	8298 <kr_malloc+0x64>
    8278:	e0433004 	sub	r3, r3, r4
    827c:	e5803004 	str	r3, [r0, #4]
    8280:	e0800183 	add	r0, r0, r3, lsl #3
    8284:	e5804004 	str	r4, [r0, #4]
    8288:	e59f304c 	ldr	r3, [pc, #76]	; 82dc <kr_malloc+0xa8>
    828c:	e5832000 	str	r2, [r3]
    8290:	e2800008 	add	r0, r0, #8, 0
    8294:	e8bd8010 	pop	{r4, pc}
    8298:	e5903000 	ldr	r3, [r0]
    829c:	e5823000 	str	r3, [r2]
    82a0:	eafffff8 	b	8288 <kr_malloc+0x54>
    82a4:	e1a02000 	mov	r2, r0
    82a8:	e5900000 	ldr	r0, [r0]
    82ac:	e5903004 	ldr	r3, [r0, #4]
    82b0:	e1530004 	cmp	r3, r4
    82b4:	2affffee 	bcs	8274 <kr_malloc+0x40>
    82b8:	e59f301c 	ldr	r3, [pc, #28]	; 82dc <kr_malloc+0xa8>
    82bc:	e5933000 	ldr	r3, [r3]
    82c0:	e1530000 	cmp	r3, r0
    82c4:	1afffff6 	bne	82a4 <kr_malloc+0x70>
    82c8:	e1a00004 	mov	r0, r4
    82cc:	ebffffc7 	bl	81f0 <morecore>
    82d0:	e3500000 	cmp	r0, #0, 0
    82d4:	1afffff2 	bne	82a4 <kr_malloc+0x70>
    82d8:	e8bd8010 	pop	{r4, pc}
    82dc:	00009d10 	andeq	r9, r0, r0, lsl sp

000082e0 <sbrk>:
    82e0:	e92d4010 	push	{r4, lr}
    82e4:	eb000430 	bl	93ac <kmalloc>
    82e8:	e8bd8010 	pop	{r4, pc}

000082ec <printk>:
    82ec:	e92d000f 	push	{r0, r1, r2, r3}
    82f0:	e92d4030 	push	{r4, r5, lr}
    82f4:	e59f5040 	ldr	r5, [pc, #64]	; 833c <printk+0x50>
    82f8:	e24dd00c 	sub	sp, sp, #12, 0
    82fc:	e28d301c 	add	r3, sp, #28, 0
    8300:	e3a01b01 	mov	r1, #1024	; 0x400
    8304:	e59d2018 	ldr	r2, [sp, #24]
    8308:	e1a00005 	mov	r0, r5
    830c:	e58d3004 	str	r3, [sp, #4]
    8310:	eb0000fb 	bl	8704 <va_printk>
    8314:	e1a04000 	mov	r4, r0
    8318:	e59f3020 	ldr	r3, [pc, #32]	; 8340 <printk+0x54>
    831c:	e1a00005 	mov	r0, r5
    8320:	e5933000 	ldr	r3, [r3]
    8324:	e12fff33 	blx	r3
    8328:	e1a00004 	mov	r0, r4
    832c:	e28dd00c 	add	sp, sp, #12, 0
    8330:	e8bd4030 	pop	{r4, r5, lr}
    8334:	e28dd010 	add	sp, sp, #16, 0
    8338:	e12fff1e 	bx	lr
    833c:	00009d20 	andeq	r9, r0, r0, lsr #26
    8340:	00009cfc 	strdeq	r9, [r0], -ip

00008344 <internal_putk>:
    8344:	e92d4070 	push	{r4, r5, r6, lr}
    8348:	e1a04000 	mov	r4, r0
    834c:	e5d00000 	ldrb	r0, [r0]
    8350:	e3500000 	cmp	r0, #0, 0
    8354:	0a000005 	beq	8370 <internal_putk+0x2c>
    8358:	e59f5018 	ldr	r5, [pc, #24]	; 8378 <internal_putk+0x34>
    835c:	e5953000 	ldr	r3, [r5]
    8360:	e12fff33 	blx	r3
    8364:	e5f40001 	ldrb	r0, [r4, #1]!
    8368:	e3500000 	cmp	r0, #0, 0
    836c:	1afffffa 	bne	835c <internal_putk+0x18>
    8370:	e3a00001 	mov	r0, #1, 0
    8374:	e8bd8070 	pop	{r4, r5, r6, pc}
    8378:	00009d0c 	andeq	r9, r0, ip, lsl #26

0000837c <emit.constprop.0>:
    837c:	e92d41f0 	push	{r4, r5, r6, r7, r8, lr}
    8380:	e3530080 	cmp	r3, #128, 0	; 0x80
    8384:	e1a0c000 	mov	ip, r0
    8388:	e24dd048 	sub	sp, sp, #72, 0	; 0x48
    838c:	e1a00001 	mov	r0, r1
    8390:	ca000069 	bgt	853c <emit.constprop.0+0x1c0>
    8394:	e24c1002 	sub	r1, ip, #2, 0
    8398:	e1a0c002 	mov	ip, r2
    839c:	e351000e 	cmp	r1, #14, 0
    83a0:	979ff101 	ldrls	pc, [pc, r1, lsl #2]
    83a4:	ea0000a7 	b	8648 <emit.constprop.0+0x2cc>
    83a8:	00008514 	andeq	r8, r0, r4, lsl r5
    83ac:	00008648 	andeq	r8, r0, r8, asr #12
    83b0:	00008648 	andeq	r8, r0, r8, asr #12
    83b4:	00008648 	andeq	r8, r0, r8, asr #12
    83b8:	00008648 	andeq	r8, r0, r8, asr #12
    83bc:	00008648 	andeq	r8, r0, r8, asr #12
    83c0:	000085f0 	strdeq	r8, [r0], -r0
    83c4:	00008648 	andeq	r8, r0, r8, asr #12
    83c8:	00008590 	muleq	r0, r0, r5
    83cc:	00008648 	andeq	r8, r0, r8, asr #12
    83d0:	00008648 	andeq	r8, r0, r8, asr #12
    83d4:	00008648 	andeq	r8, r0, r8, asr #12
    83d8:	00008648 	andeq	r8, r0, r8, asr #12
    83dc:	00008648 	andeq	r8, r0, r8, asr #12
    83e0:	000083e8 	andeq	r8, r0, r8, ror #7
    83e4:	e3a0307f 	mov	r3, #127, 0	; 0x7f
    83e8:	e28d2008 	add	r2, sp, #8, 0
    83ec:	e1a04002 	mov	r4, r2
    83f0:	e59f1288 	ldr	r1, [pc, #648]	; 8680 <emit.constprop.0+0x304>
    83f4:	e20ce00f 	and	lr, ip, #15, 0
    83f8:	e7d1e00e 	ldrb	lr, [r1, lr]
    83fc:	e35c000f 	cmp	ip, #15, 0
    8400:	e4c4e001 	strb	lr, [r4], #1
    8404:	e1a0c22c 	lsr	ip, ip, #4
    8408:	8afffff9 	bhi	83f4 <emit.constprop.0+0x78>
    840c:	e3a0c078 	mov	ip, #120, 0	; 0x78
    8410:	e1a0e004 	mov	lr, r4
    8414:	e3a01030 	mov	r1, #48, 0	; 0x30
    8418:	e4cec002 	strb	ip, [lr], #2
    841c:	e5c41001 	strb	r1, [r4, #1]
    8420:	e04e1002 	sub	r1, lr, r2
    8424:	e1510003 	cmp	r1, r3
    8428:	aa000083 	bge	863c <emit.constprop.0+0x2c0>
    842c:	e1510003 	cmp	r1, r3
    8430:	a3a0c001 	movge	ip, #1, 0
    8434:	b3a0c000 	movlt	ip, #0, 0
    8438:	e2434001 	sub	r4, r3, #1, 0
    843c:	e0444001 	sub	r4, r4, r1
    8440:	b0436001 	sublt	r6, r3, r1
    8444:	a3a06001 	movge	r6, #1, 0
    8448:	e3540002 	cmp	r4, #2, 0
    844c:	938cc001 	orrls	ip, ip, #1, 0
    8450:	e35c0000 	cmp	ip, #0, 0
    8454:	1a000075 	bne	8630 <emit.constprop.0+0x2b4>
    8458:	e1a0c00e 	mov	ip, lr
    845c:	e3c65003 	bic	r5, r6, #3, 0
    8460:	e59f721c 	ldr	r7, [pc, #540]	; 8684 <emit.constprop.0+0x308>
    8464:	e085500e 	add	r5, r5, lr
    8468:	e48c7004 	str	r7, [ip], #4
    846c:	e15c0005 	cmp	ip, r5
    8470:	1afffffc 	bne	8468 <emit.constprop.0+0xec>
    8474:	e3c6c003 	bic	ip, r6, #3, 0
    8478:	e156000c 	cmp	r6, ip
    847c:	e08e500c 	add	r5, lr, ip
    8480:	e08cc001 	add	ip, ip, r1
    8484:	0a000008 	beq	84ac <emit.constprop.0+0x130>
    8488:	e3a07020 	mov	r7, #32, 0
    848c:	e28c8001 	add	r8, ip, #1, 0
    8490:	e1580003 	cmp	r8, r3
    8494:	e5c57000 	strb	r7, [r5]
    8498:	aa000003 	bge	84ac <emit.constprop.0+0x130>
    849c:	e28cc002 	add	ip, ip, #2, 0
    84a0:	e15c0003 	cmp	ip, r3
    84a4:	e5c57001 	strb	r7, [r5, #1]
    84a8:	b5c57002 	strblt	r7, [r5, #2]
    84ac:	e1510003 	cmp	r1, r3
    84b0:	a3a04000 	movge	r4, #0, 0
    84b4:	e08e6006 	add	r6, lr, r6
    84b8:	e0461002 	sub	r1, r6, r2
    84bc:	e08ee004 	add	lr, lr, r4
    84c0:	e3a03000 	mov	r3, #0, 0
    84c4:	e351007f 	cmp	r1, #127, 0	; 0x7f
    84c8:	c241407f 	subgt	r4, r1, #127, 0	; 0x7f
    84cc:	c0822004 	addgt	r2, r2, r4
    84d0:	e152000e 	cmp	r2, lr
    84d4:	e5c63000 	strb	r3, [r6]
    84d8:	8a00004f 	bhi	861c <emit.constprop.0+0x2a0>
    84dc:	e28ee001 	add	lr, lr, #1, 0
    84e0:	e1a0300e 	mov	r3, lr
    84e4:	e240c001 	sub	ip, r0, #1, 0
    84e8:	e5734001 	ldrb	r4, [r3, #-1]!
    84ec:	e1530002 	cmp	r3, r2
    84f0:	e5ec4001 	strb	r4, [ip, #1]!
    84f4:	1afffffb 	bne	84e8 <emit.constprop.0+0x16c>
    84f8:	e04ee003 	sub	lr, lr, r3
    84fc:	e3a03000 	mov	r3, #0, 0
    8500:	e080e00e 	add	lr, r0, lr
    8504:	e5ce3000 	strb	r3, [lr]
    8508:	e28dd048 	add	sp, sp, #72, 0	; 0x48
    850c:	e8bd81f0 	pop	{r4, r5, r6, r7, r8, pc}
    8510:	e3a0307f 	mov	r3, #127, 0	; 0x7f
    8514:	e28d2008 	add	r2, sp, #8, 0
    8518:	e1a0e002 	mov	lr, r2
    851c:	e59f1164 	ldr	r1, [pc, #356]	; 8688 <emit.constprop.0+0x30c>
    8520:	e20c4001 	and	r4, ip, #1, 0
    8524:	e7d14004 	ldrb	r4, [r1, r4]
    8528:	e35c0001 	cmp	ip, #1, 0
    852c:	e4ce4001 	strb	r4, [lr], #1
    8530:	e1a0c0ac 	lsr	ip, ip, #1
    8534:	8afffff9 	bhi	8520 <emit.constprop.0+0x1a4>
    8538:	eaffffb8 	b	8420 <emit.constprop.0+0xa4>
    853c:	e24c3002 	sub	r3, ip, #2, 0
    8540:	e1a0c002 	mov	ip, r2
    8544:	e353000e 	cmp	r3, #14, 0
    8548:	979ff103 	ldrls	pc, [pc, r3, lsl #2]
    854c:	ea00003d 	b	8648 <emit.constprop.0+0x2cc>
    8550:	00008510 	andeq	r8, r0, r0, lsl r5
    8554:	00008648 	andeq	r8, r0, r8, asr #12
    8558:	00008648 	andeq	r8, r0, r8, asr #12
    855c:	00008648 	andeq	r8, r0, r8, asr #12
    8560:	00008648 	andeq	r8, r0, r8, asr #12
    8564:	00008648 	andeq	r8, r0, r8, asr #12
    8568:	00008668 	andeq	r8, r0, r8, ror #12
    856c:	00008648 	andeq	r8, r0, r8, asr #12
    8570:	0000858c 	andeq	r8, r0, ip, lsl #11
    8574:	00008648 	andeq	r8, r0, r8, asr #12
    8578:	00008648 	andeq	r8, r0, r8, asr #12
    857c:	00008648 	andeq	r8, r0, r8, asr #12
    8580:	00008648 	andeq	r8, r0, r8, asr #12
    8584:	00008648 	andeq	r8, r0, r8, asr #12
    8588:	000083e4 	andeq	r8, r0, r4, ror #7
    858c:	e3a0307f 	mov	r3, #127, 0	; 0x7f
    8590:	e59d1060 	ldr	r1, [sp, #96]	; 0x60
    8594:	e59f70f0 	ldr	r7, [pc, #240]	; 868c <emit.constprop.0+0x310>
    8598:	e0118fa2 	ands	r8, r1, r2, lsr #31
    859c:	1262c000 	rsbne	ip, r2, #0, 0
    85a0:	e28d2008 	add	r2, sp, #8, 0
    85a4:	13a08001 	movne	r8, #1, 0
    85a8:	e1a0e002 	mov	lr, r2
    85ac:	e59f60dc 	ldr	r6, [pc, #220]	; 8690 <emit.constprop.0+0x314>
    85b0:	e1a0500c 	mov	r5, ip
    85b4:	e0814c96 	umull	r4, r1, r6, ip
    85b8:	e1a011a1 	lsr	r1, r1, #3
    85bc:	e0814101 	add	r4, r1, r1, lsl #2
    85c0:	e04cc084 	sub	ip, ip, r4, lsl #1
    85c4:	e7d7400c 	ldrb	r4, [r7, ip]
    85c8:	e3550009 	cmp	r5, #9, 0
    85cc:	e1a0c001 	mov	ip, r1
    85d0:	e1a0100e 	mov	r1, lr
    85d4:	e4ce4001 	strb	r4, [lr], #1
    85d8:	8afffff4 	bhi	85b0 <emit.constprop.0+0x234>
    85dc:	e3580000 	cmp	r8, #0, 0
    85e0:	13a0c02d 	movne	ip, #45, 0	; 0x2d
    85e4:	15cec000 	strbne	ip, [lr]
    85e8:	1281e002 	addne	lr, r1, #2, 0
    85ec:	eaffff8b 	b	8420 <emit.constprop.0+0xa4>
    85f0:	e3530001 	cmp	r3, #1, 0
    85f4:	e5cd2008 	strb	r2, [sp, #8]
    85f8:	c3a01001 	movgt	r1, #1, 0
    85fc:	c28de009 	addgt	lr, sp, #9, 0
    8600:	c28d2008 	addgt	r2, sp, #8, 0
    8604:	caffff88 	bgt	842c <emit.constprop.0+0xb0>
    8608:	e3a03000 	mov	r3, #0, 0
    860c:	e28de008 	add	lr, sp, #8, 0
    8610:	e1a0200e 	mov	r2, lr
    8614:	e5cd3009 	strb	r3, [sp, #9]
    8618:	eaffffaf 	b	84dc <emit.constprop.0+0x160>
    861c:	e1a0e000 	mov	lr, r0
    8620:	e3a03000 	mov	r3, #0, 0
    8624:	e5ce3000 	strb	r3, [lr]
    8628:	e28dd048 	add	sp, sp, #72, 0	; 0x48
    862c:	e8bd81f0 	pop	{r4, r5, r6, r7, r8, pc}
    8630:	e1a0c001 	mov	ip, r1
    8634:	e1a0500e 	mov	r5, lr
    8638:	eaffff92 	b	8488 <emit.constprop.0+0x10c>
    863c:	e1a0600e 	mov	r6, lr
    8640:	e24ee001 	sub	lr, lr, #1, 0
    8644:	eaffff9d 	b	84c0 <emit.constprop.0+0x144>
    8648:	e59f2044 	ldr	r2, [pc, #68]	; 8694 <emit.constprop.0+0x318>
    864c:	e3a03079 	mov	r3, #121, 0	; 0x79
    8650:	e59f1040 	ldr	r1, [pc, #64]	; 8698 <emit.constprop.0+0x31c>
    8654:	e58d2000 	str	r2, [sp]
    8658:	e59f003c 	ldr	r0, [pc, #60]	; 869c <emit.constprop.0+0x320>
    865c:	e59f203c 	ldr	r2, [pc, #60]	; 86a0 <emit.constprop.0+0x324>
    8660:	ebffff21 	bl	82ec <printk>
    8664:	eb0001b1 	bl	8d30 <clean_reboot>
    8668:	e5cd2008 	strb	r2, [sp, #8]
    866c:	e3a0307f 	mov	r3, #127, 0	; 0x7f
    8670:	e3a01001 	mov	r1, #1, 0
    8674:	e28de009 	add	lr, sp, #9, 0
    8678:	e28d2008 	add	r2, sp, #8, 0
    867c:	eaffff6a 	b	842c <emit.constprop.0+0xb0>
    8680:	000099a4 	andeq	r9, r0, r4, lsr #19
    8684:	20202020 	eorcs	r2, r0, r0, lsr #32
    8688:	000099b8 			; <UNDEFINED> instruction: 0x000099b8
    868c:	000099bc 			; <UNDEFINED> instruction: 0x000099bc
    8690:	cccccccd 	stclgt	12, cr12, [ip], {205}	; 0xcd
    8694:	000099a0 	andeq	r9, r0, r0, lsr #19
    8698:	0000998c 	andeq	r9, r0, ip, lsl #19
    869c:	000098e0 	andeq	r9, r0, r0, ror #17
    86a0:	00009ad0 	ldrdeq	r9, [r0], -r0

000086a4 <rpi_set_output>:
    86a4:	e3500000 	cmp	r0, #0, 0
    86a8:	0a000005 	beq	86c4 <rpi_set_output+0x20>
    86ac:	e59f3038 	ldr	r3, [pc, #56]	; 86ec <rpi_set_output+0x48>
    86b0:	e3510000 	cmp	r1, #0, 0
    86b4:	e5830000 	str	r0, [r3]
    86b8:	159f3030 	ldrne	r3, [pc, #48]	; 86f0 <rpi_set_output+0x4c>
    86bc:	15831000 	strne	r1, [r3]
    86c0:	e12fff1e 	bx	lr
    86c4:	e52de004 	push	{lr}		; (str lr, [sp, #-4]!)
    86c8:	e59f2024 	ldr	r2, [pc, #36]	; 86f4 <rpi_set_output+0x50>
    86cc:	e24dd00c 	sub	sp, sp, #12, 0
    86d0:	e3a03020 	mov	r3, #32, 0
    86d4:	e59f101c 	ldr	r1, [pc, #28]	; 86f8 <rpi_set_output+0x54>
    86d8:	e58d2000 	str	r2, [sp]
    86dc:	e59f0018 	ldr	r0, [pc, #24]	; 86fc <rpi_set_output+0x58>
    86e0:	e59f2018 	ldr	r2, [pc, #24]	; 8700 <rpi_set_output+0x5c>
    86e4:	ebffff00 	bl	82ec <printk>
    86e8:	eb000190 	bl	8d30 <clean_reboot>
    86ec:	00009d0c 	andeq	r9, r0, ip, lsl #26
    86f0:	00009cfc 	strdeq	r9, [r0], -ip
    86f4:	000099c8 	andeq	r9, r0, r8, asr #19
    86f8:	0000998c 	andeq	r9, r0, ip, lsl #19
    86fc:	000098e0 	andeq	r9, r0, r0, ror #17
    8700:	00009ad8 	ldrdeq	r9, [r0], -r8

00008704 <va_printk>:
    8704:	e92d4ff0 	push	{r4, r5, r6, r7, r8, r9, sl, fp, lr}
    8708:	e1a0b000 	mov	fp, r0
    870c:	e3a00000 	mov	r0, #0, 0
    8710:	e5cb0000 	strb	r0, [fp]
    8714:	e5d2c000 	ldrb	ip, [r2]
    8718:	e2417001 	sub	r7, r1, #1, 0
    871c:	e08b7007 	add	r7, fp, r7
    8720:	e15c0000 	cmp	ip, r0
    8724:	115b0007 	cmpne	fp, r7
    8728:	e24ddf47 	sub	sp, sp, #284	; 0x11c
    872c:	e58d2010 	str	r2, [sp, #16]
    8730:	2a000159 	bcs	8c9c <va_printk+0x598>
    8734:	e1a06002 	mov	r6, r2
    8738:	e1a08003 	mov	r8, r3
    873c:	e1a0400b 	mov	r4, fp
    8740:	e59fa5a4 	ldr	sl, [pc, #1444]	; 8cec <va_printk+0x5e8>
    8744:	e58db00c 	str	fp, [sp, #12]
    8748:	ea000005 	b	8764 <va_printk+0x60>
    874c:	e4c4c001 	strb	ip, [r4], #1
    8750:	e2866001 	add	r6, r6, #1, 0
    8754:	e5d6c000 	ldrb	ip, [r6]
    8758:	e35c0000 	cmp	ip, #0, 0
    875c:	11570004 	cmpne	r7, r4
    8760:	9a00002f 	bls	8824 <va_printk+0x120>
    8764:	e35c0025 	cmp	ip, #37, 0	; 0x25
    8768:	1afffff7 	bne	874c <va_printk+0x48>
    876c:	e5d62001 	ldrb	r2, [r6, #1]
    8770:	e3520025 	cmp	r2, #37, 0	; 0x25
    8774:	04c4c001 	strbeq	ip, [r4], #1
    8778:	02866002 	addeq	r6, r6, #2, 0
    877c:	0afffff4 	beq	8754 <va_printk+0x50>
    8780:	e2423030 	sub	r3, r2, #48, 0	; 0x30
    8784:	e3530009 	cmp	r3, #9, 0
    8788:	e3a05000 	mov	r5, #0, 0
    878c:	e2866001 	add	r6, r6, #1, 0
    8790:	8a000008 	bhi	87b8 <va_printk+0xb4>
    8794:	e0855105 	add	r5, r5, r5, lsl #2
    8798:	e0825085 	add	r5, r2, r5, lsl #1
    879c:	e5f62001 	ldrb	r2, [r6, #1]!
    87a0:	e2455030 	sub	r5, r5, #48, 0	; 0x30
    87a4:	e2423030 	sub	r3, r2, #48, 0	; 0x30
    87a8:	e3530009 	cmp	r3, #9, 0
    87ac:	9afffff8 	bls	8794 <va_printk+0x90>
    87b0:	e355001f 	cmp	r5, #31, 0
    87b4:	8a00013a 	bhi	8ca4 <va_printk+0x5a0>
    87b8:	e2423062 	sub	r3, r2, #98, 0	; 0x62
    87bc:	e3530016 	cmp	r3, #22, 0
    87c0:	979ff103 	ldrls	pc, [pc, r3, lsl #2]
    87c4:	ea00011b 	b	8c38 <va_printk+0x534>
    87c8:	00008a7c 	andeq	r8, r0, ip, ror sl
    87cc:	00008978 	andeq	r8, r0, r8, ror r9
    87d0:	00008970 	andeq	r8, r0, r0, ror r9
    87d4:	00008c38 	andeq	r8, r0, r8, lsr ip
    87d8:	00008c74 	andeq	r8, r0, r4, ror ip
    87dc:	00008c38 	andeq	r8, r0, r8, lsr ip
    87e0:	00008c38 	andeq	r8, r0, r8, lsr ip
    87e4:	00008c38 	andeq	r8, r0, r8, lsr ip
    87e8:	00008c38 	andeq	r8, r0, r8, lsr ip
    87ec:	00008c38 	andeq	r8, r0, r8, lsr ip
    87f0:	00008880 	andeq	r8, r0, r0, lsl #17
    87f4:	00008c38 	andeq	r8, r0, r8, lsr ip
    87f8:	00008c38 	andeq	r8, r0, r8, lsr ip
    87fc:	00008c38 	andeq	r8, r0, r8, lsr ip
    8800:	0000883c 	andeq	r8, r0, ip, lsr r8
    8804:	00008c38 	andeq	r8, r0, r8, lsr ip
    8808:	00008c38 	andeq	r8, r0, r8, lsr ip
    880c:	00008b74 	andeq	r8, r0, r4, ror fp
    8810:	00008c38 	andeq	r8, r0, r8, lsr ip
    8814:	0000894c 	andeq	r8, r0, ip, asr #18
    8818:	00008c38 	andeq	r8, r0, r8, lsr ip
    881c:	00008c38 	andeq	r8, r0, r8, lsr ip
    8820:	0000883c 	andeq	r8, r0, ip, lsr r8
    8824:	e59db00c 	ldr	fp, [sp, #12]
    8828:	e3a03000 	mov	r3, #0, 0
    882c:	e4c43001 	strb	r3, [r4], #1
    8830:	e044000b 	sub	r0, r4, fp
    8834:	e28ddf47 	add	sp, sp, #284	; 0x11c
    8838:	e8bd8ff0 	pop	{r4, r5, r6, r7, r8, r9, sl, fp, pc}
    883c:	e3a01000 	mov	r1, #0, 0
    8840:	e1a03005 	mov	r3, r5
    8844:	e4982004 	ldr	r2, [r8], #4
    8848:	e3a00010 	mov	r0, #16, 0
    884c:	e58d1000 	str	r1, [sp]
    8850:	e28d1018 	add	r1, sp, #24, 0
    8854:	ebfffec8 	bl	837c <emit.constprop.0>
    8858:	e1a05000 	mov	r5, r0
    885c:	e2866001 	add	r6, r6, #1, 0
    8860:	e2455001 	sub	r5, r5, #1, 0
    8864:	e5f53001 	ldrb	r3, [r5, #1]!
    8868:	e3530000 	cmp	r3, #0, 0
    886c:	0affffb8 	beq	8754 <va_printk+0x50>
    8870:	e4c43001 	strb	r3, [r4], #1
    8874:	e1570004 	cmp	r7, r4
    8878:	8afffff9 	bhi	8864 <va_printk+0x160>
    887c:	eaffffb4 	b	8754 <va_printk+0x50>
    8880:	e3a02003 	mov	r2, #3, 0
    8884:	e1a00006 	mov	r0, r6
    8888:	e59f1460 	ldr	r1, [pc, #1120]	; 8cf0 <va_printk+0x5ec>
    888c:	eb0003f8 	bl	9874 <strncmp>
    8890:	e3500000 	cmp	r0, #0, 0
    8894:	0a000005 	beq	88b0 <va_printk+0x1ac>
    8898:	e3a02003 	mov	r2, #3, 0
    889c:	e1a00006 	mov	r0, r6
    88a0:	e59f144c 	ldr	r1, [pc, #1100]	; 8cf4 <va_printk+0x5f0>
    88a4:	eb0003f2 	bl	9874 <strncmp>
    88a8:	e3500000 	cmp	r0, #0, 0
    88ac:	1a00010b 	bne	8ce0 <va_printk+0x5dc>
    88b0:	e2888007 	add	r8, r8, #7, 0
    88b4:	e3c88007 	bic	r8, r8, #7, 0
    88b8:	e598b004 	ldr	fp, [r8, #4]
    88bc:	e4989008 	ldr	r9, [r8], #8
    88c0:	e1a0100b 	mov	r1, fp
    88c4:	e59f042c 	ldr	r0, [pc, #1068]	; 8cf8 <va_printk+0x5f4>
    88c8:	ebfffe87 	bl	82ec <printk>
    88cc:	e1a01009 	mov	r1, r9
    88d0:	e59f0424 	ldr	r0, [pc, #1060]	; 8cfc <va_printk+0x5f8>
    88d4:	ebfffe84 	bl	82ec <printk>
    88d8:	e3a02003 	mov	r2, #3, 0
    88dc:	e1a00006 	mov	r0, r6
    88e0:	e59f1408 	ldr	r1, [pc, #1032]	; 8cf0 <va_printk+0x5ec>
    88e4:	eb0003e2 	bl	9874 <strncmp>
    88e8:	e2503000 	subs	r3, r0, #0, 0
    88ec:	e1a02003 	mov	r2, r3
    88f0:	e2863002 	add	r3, r6, #2, 0
    88f4:	e58d3014 	str	r3, [sp, #20]
    88f8:	1a00009f 	bne	8b7c <va_printk+0x478>
    88fc:	e1a06002 	mov	r6, r2
    8900:	e1a03005 	mov	r3, r5
    8904:	e58d2000 	str	r2, [sp]
    8908:	e28d1018 	add	r1, sp, #24, 0
    890c:	e1a0200b 	mov	r2, fp
    8910:	e3a00010 	mov	r0, #16, 0
    8914:	ebfffe98 	bl	837c <emit.constprop.0>
    8918:	e1a0c000 	mov	ip, r0
    891c:	e1a03005 	mov	r3, r5
    8920:	e58d6000 	str	r6, [sp]
    8924:	e28d1098 	add	r1, sp, #152, 0	; 0x98
    8928:	e1a02009 	mov	r2, r9
    892c:	e3a00010 	mov	r0, #16, 0
    8930:	e1a0500c 	mov	r5, ip
    8934:	ebfffe90 	bl	837c <emit.constprop.0>
    8938:	e28d0018 	add	r0, sp, #24, 0
    893c:	e28d109a 	add	r1, sp, #154, 0	; 0x9a
    8940:	e59d6014 	ldr	r6, [sp, #20]
    8944:	eb0003a8 	bl	97ec <strcat>
    8948:	eaffffc3 	b	885c <va_printk+0x158>
    894c:	e3a01000 	mov	r1, #0, 0
    8950:	e1a03005 	mov	r3, r5
    8954:	e4982004 	ldr	r2, [r8], #4
    8958:	e3a0000a 	mov	r0, #10, 0
    895c:	e58d1000 	str	r1, [sp]
    8960:	e28d1018 	add	r1, sp, #24, 0
    8964:	ebfffe84 	bl	837c <emit.constprop.0>
    8968:	e1a05000 	mov	r5, r0
    896c:	eaffffba 	b	885c <va_printk+0x158>
    8970:	e3a01001 	mov	r1, #1, 0
    8974:	eafffff5 	b	8950 <va_printk+0x24c>
    8978:	e4983004 	ldr	r3, [r8], #4
    897c:	e3550001 	cmp	r5, #1, 0
    8980:	e5cd3098 	strb	r3, [sp, #152]	; 0x98
    8984:	9a0000a6 	bls	8c24 <va_printk+0x520>
    8988:	e2453002 	sub	r3, r5, #2, 0
    898c:	e3530002 	cmp	r3, #2, 0
    8990:	e2451001 	sub	r1, r5, #1, 0
    8994:	9a0000bc 	bls	8c8c <va_printk+0x588>
    8998:	e59f0360 	ldr	r0, [pc, #864]	; 8d00 <va_printk+0x5fc>
    899c:	e1a02121 	lsr	r2, r1, #2
    89a0:	e3520001 	cmp	r2, #1, 0
    89a4:	e58d0099 	str	r0, [sp, #153]	; 0x99
    89a8:	0a00000e 	beq	89e8 <va_printk+0x2e4>
    89ac:	e3520002 	cmp	r2, #2, 0
    89b0:	e58d009d 	str	r0, [sp, #157]	; 0x9d
    89b4:	0a00000b 	beq	89e8 <va_printk+0x2e4>
    89b8:	e3520003 	cmp	r2, #3, 0
    89bc:	e58d00a1 	str	r0, [sp, #161]	; 0xa1
    89c0:	0a000008 	beq	89e8 <va_printk+0x2e4>
    89c4:	e3520004 	cmp	r2, #4, 0
    89c8:	e58d00a5 	str	r0, [sp, #165]	; 0xa5
    89cc:	0a000005 	beq	89e8 <va_printk+0x2e4>
    89d0:	e3520005 	cmp	r2, #5, 0
    89d4:	e58d00a9 	str	r0, [sp, #169]	; 0xa9
    89d8:	0a000002 	beq	89e8 <va_printk+0x2e4>
    89dc:	e3520007 	cmp	r2, #7, 0
    89e0:	e58d00ad 	str	r0, [sp, #173]	; 0xad
    89e4:	058d00b1 	streq	r0, [sp, #177]	; 0xb1
    89e8:	e3c12003 	bic	r2, r1, #3, 0
    89ec:	e1510002 	cmp	r1, r2
    89f0:	e28dc099 	add	ip, sp, #153, 0	; 0x99
    89f4:	e08c0002 	add	r0, ip, r2
    89f8:	e2822001 	add	r2, r2, #1, 0
    89fc:	0a000008 	beq	8a24 <va_printk+0x320>
    8a00:	e3a0e020 	mov	lr, #32, 0
    8a04:	e2829001 	add	r9, r2, #1, 0
    8a08:	e1550009 	cmp	r5, r9
    8a0c:	e5c0e000 	strb	lr, [r0]
    8a10:	da000003 	ble	8a24 <va_printk+0x320>
    8a14:	e2822002 	add	r2, r2, #2, 0
    8a18:	e1550002 	cmp	r5, r2
    8a1c:	e5c0e001 	strb	lr, [r0, #1]
    8a20:	c5c0e002 	strbgt	lr, [r0, #2]
    8a24:	e3a0e000 	mov	lr, #0, 0
    8a28:	e28d0098 	add	r0, sp, #152, 0	; 0x98
    8a2c:	e08c2001 	add	r2, ip, r1
    8a30:	e0422000 	sub	r2, r2, r0
    8a34:	e352007f 	cmp	r2, #127, 0	; 0x7f
    8a38:	c242207f 	subgt	r2, r2, #127, 0	; 0x7f
    8a3c:	e08c3003 	add	r3, ip, r3
    8a40:	c0800002 	addgt	r0, r0, r2
    8a44:	e1530000 	cmp	r3, r0
    8a48:	e7cce001 	strb	lr, [ip, r1]
    8a4c:	3a00006c 	bcc	8c04 <va_printk+0x500>
    8a50:	e283c001 	add	ip, r3, #1, 0
    8a54:	e1a0300c 	mov	r3, ip
    8a58:	e28d5018 	add	r5, sp, #24, 0
    8a5c:	e2452001 	sub	r2, r5, #1, 0
    8a60:	e5731001 	ldrb	r1, [r3, #-1]!
    8a64:	e1500003 	cmp	r0, r3
    8a68:	e5e21001 	strb	r1, [r2, #1]!
    8a6c:	1afffffb 	bne	8a60 <va_printk+0x35c>
    8a70:	e04c3000 	sub	r3, ip, r0
    8a74:	e0853003 	add	r3, r5, r3
    8a78:	ea00003a 	b	8b68 <va_printk+0x464>
    8a7c:	e28d1098 	add	r1, sp, #152, 0	; 0x98
    8a80:	e1a03001 	mov	r3, r1
    8a84:	e4980004 	ldr	r0, [r8], #4
    8a88:	e200c001 	and	ip, r0, #1, 0
    8a8c:	e7dac00c 	ldrb	ip, [sl, ip]
    8a90:	e3500001 	cmp	r0, #1, 0
    8a94:	e1a02003 	mov	r2, r3
    8a98:	e1a000a0 	lsr	r0, r0, #1
    8a9c:	e4c3c001 	strb	ip, [r3], #1
    8aa0:	8afffff8 	bhi	8a88 <va_printk+0x384>
    8aa4:	e0430001 	sub	r0, r3, r1
    8aa8:	e1550000 	cmp	r5, r0
    8aac:	da000057 	ble	8c10 <va_printk+0x50c>
    8ab0:	e045c000 	sub	ip, r5, r0
    8ab4:	e24ce001 	sub	lr, ip, #1, 0
    8ab8:	e35e0002 	cmp	lr, #2, 0
    8abc:	e1a0e003 	mov	lr, r3
    8ac0:	9a00000a 	bls	8af0 <va_printk+0x3ec>
    8ac4:	e3cc9003 	bic	r9, ip, #3, 0
    8ac8:	e0899003 	add	r9, r9, r3
    8acc:	e59fb22c 	ldr	fp, [pc, #556]	; 8d00 <va_printk+0x5fc>
    8ad0:	e48eb004 	str	fp, [lr], #4
    8ad4:	e15e0009 	cmp	lr, r9
    8ad8:	1afffffb 	bne	8acc <va_printk+0x3c8>
    8adc:	e3cce003 	bic	lr, ip, #3, 0
    8ae0:	e15e000c 	cmp	lr, ip
    8ae4:	e080000e 	add	r0, r0, lr
    8ae8:	e083e00e 	add	lr, r3, lr
    8aec:	0a000008 	beq	8b14 <va_printk+0x410>
    8af0:	e3a09020 	mov	r9, #32, 0
    8af4:	e280b001 	add	fp, r0, #1, 0
    8af8:	e155000b 	cmp	r5, fp
    8afc:	e5ce9000 	strb	r9, [lr]
    8b00:	da000003 	ble	8b14 <va_printk+0x410>
    8b04:	e2800002 	add	r0, r0, #2, 0
    8b08:	e1550000 	cmp	r5, r0
    8b0c:	e5ce9001 	strb	r9, [lr, #1]
    8b10:	c5ce9002 	strbgt	r9, [lr, #2]
    8b14:	e3a0e000 	mov	lr, #0, 0
    8b18:	e083000c 	add	r0, r3, ip
    8b1c:	e0400001 	sub	r0, r0, r1
    8b20:	e350007f 	cmp	r0, #127, 0	; 0x7f
    8b24:	e082200c 	add	r2, r2, ip
    8b28:	e7c3e00c 	strb	lr, [r3, ip]
    8b2c:	da000001 	ble	8b38 <va_printk+0x434>
    8b30:	e240007f 	sub	r0, r0, #127, 0	; 0x7f
    8b34:	e0811000 	add	r1, r1, r0
    8b38:	e1510002 	cmp	r1, r2
    8b3c:	8a000030 	bhi	8c04 <va_printk+0x500>
    8b40:	e2822001 	add	r2, r2, #1, 0
    8b44:	e1a03002 	mov	r3, r2
    8b48:	e28d5018 	add	r5, sp, #24, 0
    8b4c:	e245c001 	sub	ip, r5, #1, 0
    8b50:	e5730001 	ldrb	r0, [r3, #-1]!
    8b54:	e1530001 	cmp	r3, r1
    8b58:	e5ec0001 	strb	r0, [ip, #1]!
    8b5c:	1afffffb 	bne	8b50 <va_printk+0x44c>
    8b60:	e0423003 	sub	r3, r2, r3
    8b64:	e0853003 	add	r3, r5, r3
    8b68:	e3a02000 	mov	r2, #0, 0
    8b6c:	e5c32000 	strb	r2, [r3]
    8b70:	eaffff39 	b	885c <va_printk+0x158>
    8b74:	e4985004 	ldr	r5, [r8], #4
    8b78:	eaffff37 	b	885c <va_printk+0x158>
    8b7c:	e3a02003 	mov	r2, #3, 0
    8b80:	e1a00006 	mov	r0, r6
    8b84:	e59f1168 	ldr	r1, [pc, #360]	; 8cf4 <va_printk+0x5f0>
    8b88:	eb000339 	bl	9874 <strncmp>
    8b8c:	e2503000 	subs	r3, r0, #0, 0
    8b90:	1a00004b 	bne	8cc4 <va_printk+0x5c0>
    8b94:	e1a06003 	mov	r6, r3
    8b98:	e1a0200b 	mov	r2, fp
    8b9c:	e58d3000 	str	r3, [sp]
    8ba0:	e28d1018 	add	r1, sp, #24, 0
    8ba4:	e1a03005 	mov	r3, r5
    8ba8:	e3a0000a 	mov	r0, #10, 0
    8bac:	ebfffdf2 	bl	837c <emit.constprop.0>
    8bb0:	e1a0c000 	mov	ip, r0
    8bb4:	e1a03005 	mov	r3, r5
    8bb8:	e1a02009 	mov	r2, r9
    8bbc:	e28d1098 	add	r1, sp, #152, 0	; 0x98
    8bc0:	e3a0000a 	mov	r0, #10, 0
    8bc4:	e58d6000 	str	r6, [sp]
    8bc8:	e1a0500c 	mov	r5, ip
    8bcc:	ebfffdea 	bl	837c <emit.constprop.0>
    8bd0:	e59f112c 	ldr	r1, [pc, #300]	; 8d04 <va_printk+0x600>
    8bd4:	e28d0018 	add	r0, sp, #24, 0
    8bd8:	eb00030e 	bl	9818 <strcmp>
    8bdc:	e3500000 	cmp	r0, #0, 0
    8be0:	e28d1098 	add	r1, sp, #152, 0	; 0x98
    8be4:	e28d0018 	add	r0, sp, #24, 0
    8be8:	1a000002 	bne	8bf8 <va_printk+0x4f4>
    8bec:	eb00031a 	bl	985c <strcpy>
    8bf0:	e59d6014 	ldr	r6, [sp, #20]
    8bf4:	eaffff18 	b	885c <va_printk+0x158>
    8bf8:	eb0002fb 	bl	97ec <strcat>
    8bfc:	e59d6014 	ldr	r6, [sp, #20]
    8c00:	eaffff15 	b	885c <va_printk+0x158>
    8c04:	e28d5018 	add	r5, sp, #24, 0
    8c08:	e1a03005 	mov	r3, r5
    8c0c:	eaffffd5 	b	8b68 <va_printk+0x464>
    8c10:	e3a0c000 	mov	ip, #0, 0
    8c14:	e350007f 	cmp	r0, #127, 0	; 0x7f
    8c18:	e5c3c000 	strb	ip, [r3]
    8c1c:	caffffc3 	bgt	8b30 <va_printk+0x42c>
    8c20:	eaffffc6 	b	8b40 <va_printk+0x43c>
    8c24:	e3a02000 	mov	r2, #0, 0
    8c28:	e28d3098 	add	r3, sp, #152, 0	; 0x98
    8c2c:	e1a00003 	mov	r0, r3
    8c30:	e5cd2099 	strb	r2, [sp, #153]	; 0x99
    8c34:	eaffff85 	b	8a50 <va_printk+0x34c>
    8c38:	e3a03000 	mov	r3, #0, 0
    8c3c:	e1a01002 	mov	r1, r2
    8c40:	e5c63001 	strb	r3, [r6, #1]
    8c44:	e59f00bc 	ldr	r0, [pc, #188]	; 8d08 <va_printk+0x604>
    8c48:	ebfffda7 	bl	82ec <printk>
    8c4c:	e59f30b8 	ldr	r3, [pc, #184]	; 8d0c <va_printk+0x608>
    8c50:	e59d0010 	ldr	r0, [sp, #16]
    8c54:	e5933000 	ldr	r3, [r3]
    8c58:	e12fff33 	blx	r3
    8c5c:	e3a030e2 	mov	r3, #226, 0	; 0xe2
    8c60:	e59f20a8 	ldr	r2, [pc, #168]	; 8d10 <va_printk+0x60c>
    8c64:	e59f10a8 	ldr	r1, [pc, #168]	; 8d14 <va_printk+0x610>
    8c68:	e59f00a8 	ldr	r0, [pc, #168]	; 8d18 <va_printk+0x614>
    8c6c:	ebfffd9e 	bl	82ec <printk>
    8c70:	eb00002e 	bl	8d30 <clean_reboot>
    8c74:	e3a030be 	mov	r3, #190, 0	; 0xbe
    8c78:	e59f2090 	ldr	r2, [pc, #144]	; 8d10 <va_printk+0x60c>
    8c7c:	e59f1090 	ldr	r1, [pc, #144]	; 8d14 <va_printk+0x610>
    8c80:	e59f0094 	ldr	r0, [pc, #148]	; 8d1c <va_printk+0x618>
    8c84:	ebfffd98 	bl	82ec <printk>
    8c88:	eb000028 	bl	8d30 <clean_reboot>
    8c8c:	e28dc099 	add	ip, sp, #153, 0	; 0x99
    8c90:	e1a0000c 	mov	r0, ip
    8c94:	e3a02001 	mov	r2, #1, 0
    8c98:	eaffff58 	b	8a00 <va_printk+0x2fc>
    8c9c:	e1a0400b 	mov	r4, fp
    8ca0:	eafffee0 	b	8828 <va_printk+0x124>
    8ca4:	e3a03098 	mov	r3, #152, 0	; 0x98
    8ca8:	e59f2070 	ldr	r2, [pc, #112]	; 8d20 <va_printk+0x61c>
    8cac:	e59f1060 	ldr	r1, [pc, #96]	; 8d14 <va_printk+0x610>
    8cb0:	e58d2000 	str	r2, [sp]
    8cb4:	e59f0068 	ldr	r0, [pc, #104]	; 8d24 <va_printk+0x620>
    8cb8:	e59f2050 	ldr	r2, [pc, #80]	; 8d10 <va_printk+0x60c>
    8cbc:	ebfffd8a 	bl	82ec <printk>
    8cc0:	eb00001a 	bl	8d30 <clean_reboot>
    8cc4:	e3a030b6 	mov	r3, #182, 0	; 0xb6
    8cc8:	e59f2040 	ldr	r2, [pc, #64]	; 8d10 <va_printk+0x60c>
    8ccc:	e59f1040 	ldr	r1, [pc, #64]	; 8d14 <va_printk+0x610>
    8cd0:	e59f0050 	ldr	r0, [pc, #80]	; 8d28 <va_printk+0x624>
    8cd4:	e58d6000 	str	r6, [sp]
    8cd8:	ebfffd83 	bl	82ec <printk>
    8cdc:	eb000013 	bl	8d30 <clean_reboot>
    8ce0:	e3a0309f 	mov	r3, #159, 0	; 0x9f
    8ce4:	e59f2040 	ldr	r2, [pc, #64]	; 8d2c <va_printk+0x628>
    8ce8:	eaffffef 	b	8cac <va_printk+0x5a8>
    8cec:	000099b8 			; <UNDEFINED> instruction: 0x000099b8
    8cf0:	000099dc 	ldrdeq	r9, [r0], -ip
    8cf4:	000099f0 	strdeq	r9, [r0], -r0
    8cf8:	000099e0 	andeq	r9, r0, r0, ror #19
    8cfc:	000099e8 	andeq	r9, r0, r8, ror #19
    8d00:	20202020 	eorcs	r2, r0, r0, lsr #32
    8d04:	000099a0 	andeq	r9, r0, r0, lsr #19
    8d08:	00009a80 	andeq	r9, r0, r0, lsl #21
    8d0c:	00009cfc 	strdeq	r9, [r0], -ip
    8d10:	00009ae8 	andeq	r9, r0, r8, ror #21
    8d14:	0000998c 	andeq	r9, r0, ip, lsl #19
    8d18:	00009ab0 			; <UNDEFINED> instruction: 0x00009ab0
    8d1c:	00009a58 	andeq	r9, r0, r8, asr sl
    8d20:	000099d0 	ldrdeq	r9, [r0], -r0
    8d24:	000098e0 	andeq	r9, r0, r0, ror #17
    8d28:	00009a30 	andeq	r9, r0, r0, lsr sl
    8d2c:	000099f4 	strdeq	r9, [r0], -r4

00008d30 <clean_reboot>:
    8d30:	e59f301c 	ldr	r3, [pc, #28]	; 8d54 <clean_reboot+0x24>
    8d34:	e92d4010 	push	{r4, lr}
    8d38:	e5933000 	ldr	r3, [r3]
    8d3c:	e59f0014 	ldr	r0, [pc, #20]	; 8d58 <clean_reboot+0x28>
    8d40:	e12fff33 	blx	r3
    8d44:	eb00011b 	bl	91b8 <uart_flush_tx>
    8d48:	e3a0000a 	mov	r0, #10, 0
    8d4c:	eb000082 	bl	8f5c <delay_ms>
    8d50:	eb00004b 	bl	8e84 <rpi_reboot>
    8d54:	00009cfc 	strdeq	r9, [r0], -ip
    8d58:	00009af4 	strdeq	r9, [r0], -r4

00008d5c <_cstart>:
    8d5c:	e92d4070 	push	{r4, r5, r6, lr}
    8d60:	eb00003b 	bl	8e54 <custom_loader>
    8d64:	e59f20e0 	ldr	r2, [pc, #224]	; 8e4c <_cstart+0xf0>
    8d68:	e59fc0e0 	ldr	ip, [pc, #224]	; 8e50 <_cstart+0xf4>
    8d6c:	e152000c 	cmp	r2, ip
    8d70:	2a00002e 	bcs	8e30 <_cstart+0xd4>
    8d74:	e24c1001 	sub	r1, ip, #1, 0
    8d78:	e0411002 	sub	r1, r1, r2
    8d7c:	e3510017 	cmp	r1, #23, 0
    8d80:	e1a03122 	lsr	r3, r2, #2
    8d84:	e1a01121 	lsr	r1, r1, #2
    8d88:	e2811001 	add	r1, r1, #1, 0
    8d8c:	e2033001 	and	r3, r3, #1, 0
    8d90:	9a00002b 	bls	8e44 <_cstart+0xe8>
    8d94:	e3530000 	cmp	r3, #0, 0
    8d98:	11a00002 	movne	r0, r2
    8d9c:	13a0e000 	movne	lr, #0, 0
    8da0:	e3a04000 	mov	r4, #0, 0
    8da4:	e3a05000 	mov	r5, #0, 0
    8da8:	e0411003 	sub	r1, r1, r3
    8dac:	01a00002 	moveq	r0, r2
    8db0:	e0823103 	add	r3, r2, r3, lsl #2
    8db4:	e1a020a1 	lsr	r2, r1, #1
    8db8:	1480e004 	strne	lr, [r0], #4
    8dbc:	e0832182 	add	r2, r3, r2, lsl #3
    8dc0:	e0c340f8 	strd	r4, [r3], #8
    8dc4:	e1520003 	cmp	r2, r3
    8dc8:	1afffffc 	bne	8dc0 <_cstart+0x64>
    8dcc:	e3c13001 	bic	r3, r1, #1, 0
    8dd0:	e1510003 	cmp	r1, r3
    8dd4:	e0803103 	add	r3, r0, r3, lsl #2
    8dd8:	0a000014 	beq	8e30 <_cstart+0xd4>
    8ddc:	e1a01003 	mov	r1, r3
    8de0:	e3a02000 	mov	r2, #0, 0
    8de4:	e4812004 	str	r2, [r1], #4
    8de8:	e151000c 	cmp	r1, ip
    8dec:	2a00000f 	bcs	8e30 <_cstart+0xd4>
    8df0:	e2831008 	add	r1, r3, #8, 0
    8df4:	e151000c 	cmp	r1, ip
    8df8:	e5832004 	str	r2, [r3, #4]
    8dfc:	2a00000b 	bcs	8e30 <_cstart+0xd4>
    8e00:	e283100c 	add	r1, r3, #12, 0
    8e04:	e151000c 	cmp	r1, ip
    8e08:	e5832008 	str	r2, [r3, #8]
    8e0c:	2a000007 	bcs	8e30 <_cstart+0xd4>
    8e10:	e2831010 	add	r1, r3, #16, 0
    8e14:	e151000c 	cmp	r1, ip
    8e18:	e583200c 	str	r2, [r3, #12]
    8e1c:	2a000003 	bcs	8e30 <_cstart+0xd4>
    8e20:	e2831014 	add	r1, r3, #20, 0
    8e24:	e151000c 	cmp	r1, ip
    8e28:	e5832010 	str	r2, [r3, #16]
    8e2c:	35832014 	strcc	r2, [r3, #20]
    8e30:	eb000082 	bl	9040 <uart_init>
    8e34:	e3a03001 	mov	r3, #1, 0
    8e38:	ee0f3f1c 	mcr	15, 0, r3, cr15, cr12, {0}
    8e3c:	ebfffc7d 	bl	8038 <notmain>
    8e40:	ebffffba 	bl	8d30 <clean_reboot>
    8e44:	e1a03002 	mov	r3, r2
    8e48:	eaffffe3 	b	8ddc <_cstart+0x80>
    8e4c:	00009d10 	andeq	r9, r0, r0, lsl sp
    8e50:	0000a128 	andeq	sl, r0, r8, lsr #2

00008e54 <custom_loader>:
    8e54:	e12fff1e 	bx	lr

00008e58 <at_user_level>:
    8e58:	e10f0000 	mrs	r0, CPSR
    8e5c:	e200001f 	and	r0, r0, #31, 0
    8e60:	e2400010 	sub	r0, r0, #16, 0
    8e64:	e16f0f10 	clz	r0, r0
    8e68:	e1a002a0 	lsr	r0, r0, #5
    8e6c:	e12fff1e 	bx	lr

00008e70 <set_user_level>:
    8e70:	e10f3000 	mrs	r3, CPSR
    8e74:	e3c3301f 	bic	r3, r3, #31, 0
    8e78:	e3833010 	orr	r3, r3, #16, 0
    8e7c:	e129f003 	msr	CPSR_fc, r3
    8e80:	e12fff1e 	bx	lr

00008e84 <rpi_reboot>:
    8e84:	e92d4010 	push	{r4, lr}
    8e88:	e10f3000 	mrs	r3, CPSR
    8e8c:	e203301f 	and	r3, r3, #31, 0
    8e90:	e3530010 	cmp	r3, #16, 0
    8e94:	1a000003 	bne	8ea8 <rpi_reboot+0x24>
    8e98:	e10f3000 	mrs	r3, CPSR
    8e9c:	e3c3301f 	bic	r3, r3, #31, 0
    8ea0:	e3833010 	orr	r3, r3, #16, 0
    8ea4:	e129f003 	msr	CPSR_fc, r3
    8ea8:	eb00027d 	bl	98a4 <reboot_callout>
    8eac:	eb0000c1 	bl	91b8 <uart_flush_tx>
    8eb0:	e3a0000a 	mov	r0, #10, 0
    8eb4:	eb000028 	bl	8f5c <delay_ms>
    8eb8:	e59f1014 	ldr	r1, [pc, #20]	; 8ed4 <rpi_reboot+0x50>
    8ebc:	e59f0014 	ldr	r0, [pc, #20]	; 8ed8 <rpi_reboot+0x54>
    8ec0:	ebfffc57 	bl	8024 <PUT32>
    8ec4:	e59f1010 	ldr	r1, [pc, #16]	; 8edc <rpi_reboot+0x58>
    8ec8:	e59f0010 	ldr	r0, [pc, #16]	; 8ee0 <rpi_reboot+0x5c>
    8ecc:	ebfffc54 	bl	8024 <PUT32>
    8ed0:	eafffffe 	b	8ed0 <rpi_reboot+0x4c>
    8ed4:	5a000001 	bpl	8ee0 <rpi_reboot+0x5c>
    8ed8:	20100024 	andscs	r0, r0, r4, lsr #32
    8edc:	5a000020 	bpl	8f64 <delay_ms+0x8>
    8ee0:	2010001c 	andscs	r0, r0, ip, lsl r0

00008ee4 <timer_get_usec_raw>:
    8ee4:	e59f0000 	ldr	r0, [pc]	; 8eec <timer_get_usec_raw+0x8>
    8ee8:	eafffc4f 	b	802c <GET32>
    8eec:	20003004 	andcs	r3, r0, r4

00008ef0 <timer_get_usec>:
    8ef0:	e92d4010 	push	{r4, lr}
    8ef4:	eb00026b 	bl	98a8 <dev_barrier>
    8ef8:	e59f0010 	ldr	r0, [pc, #16]	; 8f10 <timer_get_usec+0x20>
    8efc:	ebfffc4a 	bl	802c <GET32>
    8f00:	e1a04000 	mov	r4, r0
    8f04:	eb000267 	bl	98a8 <dev_barrier>
    8f08:	e1a00004 	mov	r0, r4
    8f0c:	e8bd8010 	pop	{r4, pc}
    8f10:	20003004 	andcs	r3, r0, r4

00008f14 <delay_us>:
    8f14:	e92d41f0 	push	{r4, r5, r6, r7, r8, lr}
    8f18:	e1a06000 	mov	r6, r0
    8f1c:	eb000261 	bl	98a8 <dev_barrier>
    8f20:	e59f0030 	ldr	r0, [pc, #48]	; 8f58 <delay_us+0x44>
    8f24:	ebfffc40 	bl	802c <GET32>
    8f28:	e1a05000 	mov	r5, r0
    8f2c:	eb00025d 	bl	98a8 <dev_barrier>
    8f30:	e59f7020 	ldr	r7, [pc, #32]	; 8f58 <delay_us+0x44>
    8f34:	eb00025b 	bl	98a8 <dev_barrier>
    8f38:	e1a00007 	mov	r0, r7
    8f3c:	ebfffc3a 	bl	802c <GET32>
    8f40:	e1a04000 	mov	r4, r0
    8f44:	e0444005 	sub	r4, r4, r5
    8f48:	eb000256 	bl	98a8 <dev_barrier>
    8f4c:	e1540006 	cmp	r4, r6
    8f50:	3afffff7 	bcc	8f34 <delay_us+0x20>
    8f54:	e8bd81f0 	pop	{r4, r5, r6, r7, r8, pc}
    8f58:	20003004 	andcs	r3, r0, r4

00008f5c <delay_ms>:
    8f5c:	e92d41f0 	push	{r4, r5, r6, r7, r8, lr}
    8f60:	e0604280 	rsb	r4, r0, r0, lsl #5
    8f64:	e0800104 	add	r0, r0, r4, lsl #2
    8f68:	e1a04180 	lsl	r4, r0, #3
    8f6c:	eb00024d 	bl	98a8 <dev_barrier>
    8f70:	e59f0030 	ldr	r0, [pc, #48]	; 8fa8 <delay_ms+0x4c>
    8f74:	ebfffc2c 	bl	802c <GET32>
    8f78:	e1a06000 	mov	r6, r0
    8f7c:	eb000249 	bl	98a8 <dev_barrier>
    8f80:	e59f7020 	ldr	r7, [pc, #32]	; 8fa8 <delay_ms+0x4c>
    8f84:	eb000247 	bl	98a8 <dev_barrier>
    8f88:	e1a00007 	mov	r0, r7
    8f8c:	ebfffc26 	bl	802c <GET32>
    8f90:	e1a05000 	mov	r5, r0
    8f94:	e0455006 	sub	r5, r5, r6
    8f98:	eb000242 	bl	98a8 <dev_barrier>
    8f9c:	e1540005 	cmp	r4, r5
    8fa0:	8afffff7 	bhi	8f84 <delay_ms+0x28>
    8fa4:	e8bd81f0 	pop	{r4, r5, r6, r7, r8, pc}
    8fa8:	20003004 	andcs	r3, r0, r4

00008fac <delay_sec>:
    8fac:	e92d41f0 	push	{r4, r5, r6, r7, r8, lr}
    8fb0:	e0604280 	rsb	r4, r0, r0, lsl #5
    8fb4:	e0644304 	rsb	r4, r4, r4, lsl #6
    8fb8:	e0800184 	add	r0, r0, r4, lsl #3
    8fbc:	e1a04300 	lsl	r4, r0, #6
    8fc0:	eb000238 	bl	98a8 <dev_barrier>
    8fc4:	e59f0030 	ldr	r0, [pc, #48]	; 8ffc <delay_sec+0x50>
    8fc8:	ebfffc17 	bl	802c <GET32>
    8fcc:	e1a06000 	mov	r6, r0
    8fd0:	eb000234 	bl	98a8 <dev_barrier>
    8fd4:	e59f7020 	ldr	r7, [pc, #32]	; 8ffc <delay_sec+0x50>
    8fd8:	eb000232 	bl	98a8 <dev_barrier>
    8fdc:	e1a00007 	mov	r0, r7
    8fe0:	ebfffc11 	bl	802c <GET32>
    8fe4:	e1a05000 	mov	r5, r0
    8fe8:	e0455006 	sub	r5, r5, r6
    8fec:	eb00022d 	bl	98a8 <dev_barrier>
    8ff0:	e1540005 	cmp	r4, r5
    8ff4:	8afffff7 	bhi	8fd8 <delay_sec+0x2c>
    8ff8:	e8bd81f0 	pop	{r4, r5, r6, r7, r8, pc}
    8ffc:	20003004 	andcs	r3, r0, r4

00009000 <and_in32>:
    9000:	e92d4070 	push	{r4, r5, r6, lr}
    9004:	e1a04000 	mov	r4, r0
    9008:	e1a05001 	mov	r5, r1
    900c:	ebfffc06 	bl	802c <GET32>
    9010:	e0001005 	and	r1, r0, r5
    9014:	e1a00004 	mov	r0, r4
    9018:	ebfffc01 	bl	8024 <PUT32>
    901c:	e8bd8070 	pop	{r4, r5, r6, pc}

00009020 <or_in32>:
    9020:	e92d4070 	push	{r4, r5, r6, lr}
    9024:	e1a04000 	mov	r4, r0
    9028:	e1a05001 	mov	r5, r1
    902c:	ebfffbfe 	bl	802c <GET32>
    9030:	e1801005 	orr	r1, r0, r5
    9034:	e1a00004 	mov	r0, r4
    9038:	ebfffbf9 	bl	8024 <PUT32>
    903c:	e8bd8070 	pop	{r4, r5, r6, pc}

00009040 <uart_init>:
    9040:	e92d4010 	push	{r4, lr}
    9044:	e3a01002 	mov	r1, #2, 0
    9048:	e3a0000e 	mov	r0, #14, 0
    904c:	eb000153 	bl	95a0 <gpio_set_function>
    9050:	e3a01002 	mov	r1, #2, 0
    9054:	e3a0000f 	mov	r0, #15, 0
    9058:	eb000150 	bl	95a0 <gpio_set_function>
    905c:	eb000211 	bl	98a8 <dev_barrier>
    9060:	e3a01001 	mov	r1, #1, 0
    9064:	e59f0064 	ldr	r0, [pc, #100]	; 90d0 <uart_init+0x90>
    9068:	ebffffec 	bl	9020 <or_in32>
    906c:	eb00020d 	bl	98a8 <dev_barrier>
    9070:	e59f405c 	ldr	r4, [pc, #92]	; 90d4 <uart_init+0x94>
    9074:	e3a01000 	mov	r1, #0, 0
    9078:	e1a00004 	mov	r0, r4
    907c:	ebfffbe8 	bl	8024 <PUT32>
    9080:	e3a01000 	mov	r1, #0, 0
    9084:	e59f004c 	ldr	r0, [pc, #76]	; 90d8 <uart_init+0x98>
    9088:	ebfffbe5 	bl	8024 <PUT32>
    908c:	e3a01003 	mov	r1, #3, 0
    9090:	e59f0044 	ldr	r0, [pc, #68]	; 90dc <uart_init+0x9c>
    9094:	ebfffbe2 	bl	8024 <PUT32>
    9098:	e3a01000 	mov	r1, #0, 0
    909c:	e59f003c 	ldr	r0, [pc, #60]	; 90e0 <uart_init+0xa0>
    90a0:	ebfffbdf 	bl	8024 <PUT32>
    90a4:	e3a010c7 	mov	r1, #199, 0	; 0xc7
    90a8:	e59f0034 	ldr	r0, [pc, #52]	; 90e4 <uart_init+0xa4>
    90ac:	ebfffbdc 	bl	8024 <PUT32>
    90b0:	e59f1030 	ldr	r1, [pc, #48]	; 90e8 <uart_init+0xa8>
    90b4:	e59f0030 	ldr	r0, [pc, #48]	; 90ec <uart_init+0xac>
    90b8:	ebfffbd9 	bl	8024 <PUT32>
    90bc:	e3a01003 	mov	r1, #3, 0
    90c0:	e1a00004 	mov	r0, r4
    90c4:	ebfffbd6 	bl	8024 <PUT32>
    90c8:	eb0001f6 	bl	98a8 <dev_barrier>
    90cc:	e8bd8010 	pop	{r4, pc}
    90d0:	20215004 	eorcs	r5, r1, r4
    90d4:	20215060 	eorcs	r5, r1, r0, rrx
    90d8:	20215044 	eorcs	r5, r1, r4, asr #32
    90dc:	2021504c 	eorcs	r5, r1, ip, asr #32
    90e0:	20215050 	eorcs	r5, r1, r0, asr r0
    90e4:	20215048 	eorcs	r5, r1, r8, asr #32
    90e8:	0000010e 	andeq	r0, r0, lr, lsl #2
    90ec:	20215068 	eorcs	r5, r1, r8, rrx

000090f0 <uart_can_getc>:
    90f0:	e92d4010 	push	{r4, lr}
    90f4:	e59f0008 	ldr	r0, [pc, #8]	; 9104 <uart_can_getc+0x14>
    90f8:	ebfffbcb 	bl	802c <GET32>
    90fc:	e2000001 	and	r0, r0, #1, 0
    9100:	e8bd8010 	pop	{r4, pc}
    9104:	20215064 	eorcs	r5, r1, r4, rrx

00009108 <uart_can_putc>:
    9108:	e92d4010 	push	{r4, lr}
    910c:	e59f0010 	ldr	r0, [pc, #16]	; 9124 <uart_can_putc+0x1c>
    9110:	ebfffbc5 	bl	802c <GET32>
    9114:	e3100002 	tst	r0, #2, 0
    9118:	13a00001 	movne	r0, #1, 0
    911c:	03a00000 	moveq	r0, #0, 0
    9120:	e8bd8010 	pop	{r4, pc}
    9124:	20215064 	eorcs	r5, r1, r4, rrx

00009128 <uart_getc>:
    9128:	e92d4010 	push	{r4, lr}
    912c:	eb0001dd 	bl	98a8 <dev_barrier>
    9130:	ebffffee 	bl	90f0 <uart_can_getc>
    9134:	e3500000 	cmp	r0, #0, 0
    9138:	0afffffc 	beq	9130 <uart_getc+0x8>
    913c:	e59f0010 	ldr	r0, [pc, #16]	; 9154 <uart_getc+0x2c>
    9140:	ebfffbb9 	bl	802c <GET32>
    9144:	e6ef4070 	uxtb	r4, r0
    9148:	eb0001d6 	bl	98a8 <dev_barrier>
    914c:	e1a00004 	mov	r0, r4
    9150:	e8bd8010 	pop	{r4, pc}
    9154:	20215040 	eorcs	r5, r1, r0, asr #32

00009158 <uart_putc>:
    9158:	e92d4010 	push	{r4, lr}
    915c:	e1a04000 	mov	r4, r0
    9160:	eb0001d0 	bl	98a8 <dev_barrier>
    9164:	ebffffe7 	bl	9108 <uart_can_putc>
    9168:	e3500000 	cmp	r0, #0, 0
    916c:	0afffffc 	beq	9164 <uart_putc+0xc>
    9170:	e6ef1074 	uxtb	r1, r4
    9174:	e59f0008 	ldr	r0, [pc, #8]	; 9184 <uart_putc+0x2c>
    9178:	ebfffba9 	bl	8024 <PUT32>
    917c:	eb0001c9 	bl	98a8 <dev_barrier>
    9180:	e8bd8010 	pop	{r4, pc}
    9184:	20215040 	eorcs	r5, r1, r0, asr #32

00009188 <uart_has_data>:
    9188:	e92d4010 	push	{r4, lr}
    918c:	eb0001c5 	bl	98a8 <dev_barrier>
    9190:	ebffffd6 	bl	90f0 <uart_can_getc>
    9194:	e8bd8010 	pop	{r4, pc}

00009198 <uart_tx_is_empty>:
    9198:	e92d4010 	push	{r4, lr}
    919c:	eb0001c1 	bl	98a8 <dev_barrier>
    91a0:	e59f000c 	ldr	r0, [pc, #12]	; 91b4 <uart_tx_is_empty+0x1c>
    91a4:	ebfffba0 	bl	802c <GET32>
    91a8:	e1a004a0 	lsr	r0, r0, #9
    91ac:	e2000001 	and	r0, r0, #1, 0
    91b0:	e8bd8010 	pop	{r4, pc}
    91b4:	20215064 	eorcs	r5, r1, r4, rrx

000091b8 <uart_flush_tx>:
    91b8:	e92d4010 	push	{r4, lr}
    91bc:	ebfffff5 	bl	9198 <uart_tx_is_empty>
    91c0:	e3500000 	cmp	r0, #0, 0
    91c4:	0afffffc 	beq	91bc <uart_flush_tx+0x4>
    91c8:	e8bd8010 	pop	{r4, pc}

000091cc <uart_disable>:
    91cc:	e92d4010 	push	{r4, lr}
    91d0:	ebfffff8 	bl	91b8 <uart_flush_tx>
    91d4:	eb0001b3 	bl	98a8 <dev_barrier>
    91d8:	e3e01001 	mvn	r1, #1, 0
    91dc:	e59f0008 	ldr	r0, [pc, #8]	; 91ec <uart_disable+0x20>
    91e0:	ebffff86 	bl	9000 <and_in32>
    91e4:	eb0001af 	bl	98a8 <dev_barrier>
    91e8:	e8bd8010 	pop	{r4, pc}
    91ec:	20215004 	eorcs	r5, r1, r4

000091f0 <kmalloc_heap_end>:
    91f0:	e59f3004 	ldr	r3, [pc, #4]	; 91fc <kmalloc_heap_end+0xc>
    91f4:	e5930000 	ldr	r0, [r3]
    91f8:	e12fff1e 	bx	lr
    91fc:	00009d00 	andeq	r9, r0, r0, lsl #26

00009200 <kmalloc_heap_start>:
    9200:	e59f3004 	ldr	r3, [pc, #4]	; 920c <kmalloc_heap_start+0xc>
    9204:	e5930004 	ldr	r0, [r3, #4]
    9208:	e12fff1e 	bx	lr
    920c:	00009d00 	andeq	r9, r0, r0, lsl #26

00009210 <kmalloc_heap_ptr>:
    9210:	e59f3004 	ldr	r3, [pc, #4]	; 921c <kmalloc_heap_ptr+0xc>
    9214:	e5930000 	ldr	r0, [r3]
    9218:	e12fff1e 	bx	lr
    921c:	00009d00 	andeq	r9, r0, r0, lsl #26

00009220 <kmalloc_init_set_start>:
    9220:	e52de004 	push	{lr}		; (str lr, [sp, #-4]!)
    9224:	e24dd00c 	sub	sp, sp, #12, 0
    9228:	e3510000 	cmp	r1, #0, 0
    922c:	0a00000a 	beq	925c <kmalloc_init_set_start+0x3c>
    9230:	e59f306c 	ldr	r3, [pc, #108]	; 92a4 <kmalloc_init_set_start+0x84>
    9234:	e5933000 	ldr	r3, [r3]
    9238:	e1530000 	cmp	r3, r0
    923c:	8a00000e 	bhi	927c <kmalloc_init_set_start+0x5c>
    9240:	e59f305c 	ldr	r3, [pc, #92]	; 92a4 <kmalloc_init_set_start+0x84>
    9244:	e5830000 	str	r0, [r3]
    9248:	e5830004 	str	r0, [r3, #4]
    924c:	e0800001 	add	r0, r0, r1
    9250:	e5830008 	str	r0, [r3, #8]
    9254:	e28dd00c 	add	sp, sp, #12, 0
    9258:	e49df004 	pop	{pc}		; (ldr pc, [sp], #4)
    925c:	e59f3044 	ldr	r3, [pc, #68]	; 92a8 <kmalloc_init_set_start+0x88>
    9260:	e58d3000 	str	r3, [sp]
    9264:	e3a03030 	mov	r3, #48, 0	; 0x30
    9268:	e59f203c 	ldr	r2, [pc, #60]	; 92ac <kmalloc_init_set_start+0x8c>
    926c:	e59f103c 	ldr	r1, [pc, #60]	; 92b0 <kmalloc_init_set_start+0x90>
    9270:	e59f003c 	ldr	r0, [pc, #60]	; 92b4 <kmalloc_init_set_start+0x94>
    9274:	ebfffc1c 	bl	82ec <printk>
    9278:	ebfffeac 	bl	8d30 <clean_reboot>
    927c:	e59f3020 	ldr	r3, [pc, #32]	; 92a4 <kmalloc_init_set_start+0x84>
    9280:	e5933008 	ldr	r3, [r3, #8]
    9284:	e58d3004 	str	r3, [sp, #4]
    9288:	e58d0000 	str	r0, [sp]
    928c:	e3a03034 	mov	r3, #52, 0	; 0x34
    9290:	e59f2014 	ldr	r2, [pc, #20]	; 92ac <kmalloc_init_set_start+0x8c>
    9294:	e59f1014 	ldr	r1, [pc, #20]	; 92b0 <kmalloc_init_set_start+0x90>
    9298:	e59f0018 	ldr	r0, [pc, #24]	; 92b8 <kmalloc_init_set_start+0x98>
    929c:	ebfffc12 	bl	82ec <printk>
    92a0:	ebfffea2 	bl	8d30 <clean_reboot>
    92a4:	00009d00 	andeq	r9, r0, r0, lsl #26
    92a8:	00009b0c 	andeq	r9, r0, ip, lsl #22
    92ac:	00009c98 	muleq	r0, r8, ip
    92b0:	00009b00 	andeq	r9, r0, r0, lsl #22
    92b4:	000098e0 	andeq	r9, r0, r0, ror #17
    92b8:	00009b18 	andeq	r9, r0, r8, lsl fp

000092bc <kmalloc_init>:
    92bc:	e92d4010 	push	{r4, lr}
    92c0:	e59f303c 	ldr	r3, [pc, #60]	; 9304 <kmalloc_init+0x48>
    92c4:	e5933000 	ldr	r3, [r3]
    92c8:	e3530000 	cmp	r3, #0, 0
    92cc:	1a000006 	bne	92ec <kmalloc_init+0x30>
    92d0:	e59f302c 	ldr	r3, [pc, #44]	; 9304 <kmalloc_init+0x48>
    92d4:	e3a02001 	mov	r2, #1, 0
    92d8:	e5832000 	str	r2, [r3]
    92dc:	e3a01201 	mov	r1, #268435456	; 0x10000000
    92e0:	e3a00601 	mov	r0, #1048576	; 0x100000
    92e4:	ebffffcd 	bl	9220 <kmalloc_init_set_start>
    92e8:	e8bd8010 	pop	{r4, pc}
    92ec:	e3a03040 	mov	r3, #64, 0	; 0x40
    92f0:	e59f2010 	ldr	r2, [pc, #16]	; 9308 <kmalloc_init+0x4c>
    92f4:	e59f1010 	ldr	r1, [pc, #16]	; 930c <kmalloc_init+0x50>
    92f8:	e59f0010 	ldr	r0, [pc, #16]	; 9310 <kmalloc_init+0x54>
    92fc:	ebfffbfa 	bl	82ec <printk>
    9300:	ebfffe8a 	bl	8d30 <clean_reboot>
    9304:	0000a120 	andeq	sl, r0, r0, lsr #2
    9308:	00009cb0 			; <UNDEFINED> instruction: 0x00009cb0
    930c:	00009b00 	andeq	r9, r0, r0, lsl #22
    9310:	00009b5c 	andeq	r9, r0, ip, asr fp

00009314 <kmalloc_notzero>:
    9314:	e52de004 	push	{lr}		; (str lr, [sp, #-4]!)
    9318:	e24dd00c 	sub	sp, sp, #12, 0
    931c:	e3500000 	cmp	r0, #0, 0
    9320:	0a00000a 	beq	9350 <kmalloc_notzero+0x3c>
    9324:	e2800007 	add	r0, r0, #7, 0
    9328:	e3c03007 	bic	r3, r0, #7, 0
    932c:	e59f2060 	ldr	r2, [pc, #96]	; 9394 <kmalloc_notzero+0x80>
    9330:	e5920000 	ldr	r0, [r2]
    9334:	e0801003 	add	r1, r0, r3
    9338:	e5821000 	str	r1, [r2]
    933c:	e5922008 	ldr	r2, [r2, #8]
    9340:	e1510002 	cmp	r1, r2
    9344:	8a000009 	bhi	9370 <kmalloc_notzero+0x5c>
    9348:	e28dd00c 	add	sp, sp, #12, 0
    934c:	e49df004 	pop	{pc}		; (ldr pc, [sp], #4)
    9350:	e59f3040 	ldr	r3, [pc, #64]	; 9398 <kmalloc_notzero+0x84>
    9354:	e58d3000 	str	r3, [sp]
    9358:	e3a03048 	mov	r3, #72, 0	; 0x48
    935c:	e59f2038 	ldr	r2, [pc, #56]	; 939c <kmalloc_notzero+0x88>
    9360:	e59f1038 	ldr	r1, [pc, #56]	; 93a0 <kmalloc_notzero+0x8c>
    9364:	e59f0038 	ldr	r0, [pc, #56]	; 93a4 <kmalloc_notzero+0x90>
    9368:	ebfffbdf 	bl	82ec <printk>
    936c:	ebfffe6f 	bl	8d30 <clean_reboot>
    9370:	e0422000 	sub	r2, r2, r0
    9374:	e58d2004 	str	r2, [sp, #4]
    9378:	e58d3000 	str	r3, [sp]
    937c:	e3a0304e 	mov	r3, #78, 0	; 0x4e
    9380:	e59f2014 	ldr	r2, [pc, #20]	; 939c <kmalloc_notzero+0x88>
    9384:	e59f1014 	ldr	r1, [pc, #20]	; 93a0 <kmalloc_notzero+0x8c>
    9388:	e59f0018 	ldr	r0, [pc, #24]	; 93a8 <kmalloc_notzero+0x94>
    938c:	ebfffbd6 	bl	82ec <printk>
    9390:	ebfffe66 	bl	8d30 <clean_reboot>
    9394:	00009d00 	andeq	r9, r0, r0, lsl #26
    9398:	00009b10 	andeq	r9, r0, r0, lsl fp
    939c:	00009cc0 	andeq	r9, r0, r0, asr #25
    93a0:	00009b00 	andeq	r9, r0, r0, lsl #22
    93a4:	000098e0 	andeq	r9, r0, r0, ror #17
    93a8:	00009b8c 	andeq	r9, r0, ip, lsl #23

000093ac <kmalloc>:
    93ac:	e92d4030 	push	{r4, r5, lr}
    93b0:	e24dd00c 	sub	sp, sp, #12, 0
    93b4:	e2504000 	subs	r4, r0, #0, 0
    93b8:	0a000008 	beq	93e0 <kmalloc+0x34>
    93bc:	e1a00004 	mov	r0, r4
    93c0:	ebffffd3 	bl	9314 <kmalloc_notzero>
    93c4:	e1a05000 	mov	r5, r0
    93c8:	e1a02004 	mov	r2, r4
    93cc:	e3a01000 	mov	r1, #0, 0
    93d0:	eb0000d8 	bl	9738 <memset>
    93d4:	e1a00005 	mov	r0, r5
    93d8:	e28dd00c 	add	sp, sp, #12, 0
    93dc:	e8bd8030 	pop	{r4, r5, pc}
    93e0:	e59f3018 	ldr	r3, [pc, #24]	; 9400 <kmalloc+0x54>
    93e4:	e58d3000 	str	r3, [sp]
    93e8:	e3a03054 	mov	r3, #84, 0	; 0x54
    93ec:	e59f2010 	ldr	r2, [pc, #16]	; 9404 <kmalloc+0x58>
    93f0:	e59f1010 	ldr	r1, [pc, #16]	; 9408 <kmalloc+0x5c>
    93f4:	e59f0010 	ldr	r0, [pc, #16]	; 940c <kmalloc+0x60>
    93f8:	ebfffbbb 	bl	82ec <printk>
    93fc:	ebfffe4b 	bl	8d30 <clean_reboot>
    9400:	00009b10 	andeq	r9, r0, r0, lsl fp
    9404:	00009cd0 	ldrdeq	r9, [r0], -r0
    9408:	00009b00 	andeq	r9, r0, r0, lsl #22
    940c:	000098e0 	andeq	r9, r0, r0, ror #17

00009410 <kmalloc_aligned>:
    9410:	e52de004 	push	{lr}		; (str lr, [sp, #-4]!)
    9414:	e24dd00c 	sub	sp, sp, #12, 0
    9418:	e3500000 	cmp	r0, #0, 0
    941c:	0a000014 	beq	9474 <kmalloc_aligned+0x64>
    9420:	e2613000 	rsb	r3, r1, #0, 0
    9424:	e1d13003 	bics	r3, r1, r3
    9428:	1a000019 	bne	9494 <kmalloc_aligned+0x84>
    942c:	e3510008 	cmp	r1, #8, 0
    9430:	33a01008 	movcc	r1, #8, 0
    9434:	e59f30c0 	ldr	r3, [pc, #192]	; 94fc <kmalloc_aligned+0xec>
    9438:	e5932000 	ldr	r2, [r3]
    943c:	e2613000 	rsb	r3, r1, #0, 0
    9440:	e1d1c003 	bics	ip, r1, r3
    9444:	1a00001b 	bne	94b8 <kmalloc_aligned+0xa8>
    9448:	e0822001 	add	r2, r2, r1
    944c:	e2422001 	sub	r2, r2, #1, 0
    9450:	e0033002 	and	r3, r3, r2
    9454:	e2411001 	sub	r1, r1, #1, 0
    9458:	e1110003 	tst	r1, r3
    945c:	1a00001d 	bne	94d8 <kmalloc_aligned+0xc8>
    9460:	e59f2094 	ldr	r2, [pc, #148]	; 94fc <kmalloc_aligned+0xec>
    9464:	e5823000 	str	r3, [r2]
    9468:	ebffffcf 	bl	93ac <kmalloc>
    946c:	e28dd00c 	add	sp, sp, #12, 0
    9470:	e49df004 	pop	{pc}		; (ldr pc, [sp], #4)
    9474:	e59f3084 	ldr	r3, [pc, #132]	; 9500 <kmalloc_aligned+0xf0>
    9478:	e58d3000 	str	r3, [sp]
    947c:	e3a0305f 	mov	r3, #95, 0	; 0x5f
    9480:	e59f207c 	ldr	r2, [pc, #124]	; 9504 <kmalloc_aligned+0xf4>
    9484:	e59f107c 	ldr	r1, [pc, #124]	; 9508 <kmalloc_aligned+0xf8>
    9488:	e59f007c 	ldr	r0, [pc, #124]	; 950c <kmalloc_aligned+0xfc>
    948c:	ebfffb96 	bl	82ec <printk>
    9490:	ebfffe26 	bl	8d30 <clean_reboot>
    9494:	eb0000ca 	bl	97c4 <rpi_reset_putc>
    9498:	e59f3070 	ldr	r3, [pc, #112]	; 9510 <kmalloc_aligned+0x100>
    949c:	e58d3000 	str	r3, [sp]
    94a0:	e3a03060 	mov	r3, #96, 0	; 0x60
    94a4:	e59f2058 	ldr	r2, [pc, #88]	; 9504 <kmalloc_aligned+0xf4>
    94a8:	e59f1058 	ldr	r1, [pc, #88]	; 9508 <kmalloc_aligned+0xf8>
    94ac:	e59f0060 	ldr	r0, [pc, #96]	; 9514 <kmalloc_aligned+0x104>
    94b0:	ebfffb8d 	bl	82ec <printk>
    94b4:	ebfffe1d 	bl	8d30 <clean_reboot>
    94b8:	e59f3058 	ldr	r3, [pc, #88]	; 9518 <kmalloc_aligned+0x108>
    94bc:	e58d3000 	str	r3, [sp]
    94c0:	e3a03011 	mov	r3, #17, 0
    94c4:	e59f2050 	ldr	r2, [pc, #80]	; 951c <kmalloc_aligned+0x10c>
    94c8:	e59f1038 	ldr	r1, [pc, #56]	; 9508 <kmalloc_aligned+0xf8>
    94cc:	e59f0038 	ldr	r0, [pc, #56]	; 950c <kmalloc_aligned+0xfc>
    94d0:	ebfffb85 	bl	82ec <printk>
    94d4:	ebfffe15 	bl	8d30 <clean_reboot>
    94d8:	eb0000b9 	bl	97c4 <rpi_reset_putc>
    94dc:	e59f303c 	ldr	r3, [pc, #60]	; 9520 <kmalloc_aligned+0x110>
    94e0:	e58d3000 	str	r3, [sp]
    94e4:	e3a03068 	mov	r3, #104, 0	; 0x68
    94e8:	e59f2014 	ldr	r2, [pc, #20]	; 9504 <kmalloc_aligned+0xf4>
    94ec:	e59f1014 	ldr	r1, [pc, #20]	; 9508 <kmalloc_aligned+0xf8>
    94f0:	e59f002c 	ldr	r0, [pc, #44]	; 9524 <kmalloc_aligned+0x114>
    94f4:	ebfffb7c 	bl	82ec <printk>
    94f8:	ebfffe0c 	bl	8d30 <clean_reboot>
    94fc:	00009d00 	andeq	r9, r0, r0, lsl #26
    9500:	00009b10 	andeq	r9, r0, r0, lsl fp
    9504:	00009cd8 	ldrdeq	r9, [r0], -r8
    9508:	00009b00 	andeq	r9, r0, r0, lsl #22
    950c:	000098e0 	andeq	r9, r0, r0, ror #17
    9510:	00009c00 	andeq	r9, r0, r0, lsl #24
    9514:	00009bcc 	andeq	r9, r0, ip, asr #23
    9518:	00009c14 	andeq	r9, r0, r4, lsl ip
    951c:	00009ce8 	andeq	r9, r0, r8, ror #25
    9520:	00009c4c 	andeq	r9, r0, ip, asr #24
    9524:	00009c20 	andeq	r9, r0, r0, lsr #24

00009528 <kfree>:
    9528:	e12fff1e 	bx	lr

0000952c <kfree_all>:
    952c:	e59f3008 	ldr	r3, [pc, #8]	; 953c <kfree_all+0x10>
    9530:	e5932004 	ldr	r2, [r3, #4]
    9534:	e5832000 	str	r2, [r3]
    9538:	e12fff1e 	bx	lr
    953c:	00009d00 	andeq	r9, r0, r0, lsl #26

00009540 <kfree_pop>:
    9540:	e59f3048 	ldr	r3, [pc, #72]	; 9590 <kfree_pop+0x50>
    9544:	e5933004 	ldr	r3, [r3, #4]
    9548:	e1530000 	cmp	r3, r0
    954c:	8a000006 	bhi	956c <kfree_pop+0x2c>
    9550:	e59f3038 	ldr	r3, [pc, #56]	; 9590 <kfree_pop+0x50>
    9554:	e5933008 	ldr	r3, [r3, #8]
    9558:	e1530000 	cmp	r3, r0
    955c:	3a000002 	bcc	956c <kfree_pop+0x2c>
    9560:	e59f3028 	ldr	r3, [pc, #40]	; 9590 <kfree_pop+0x50>
    9564:	e5830000 	str	r0, [r3]
    9568:	e12fff1e 	bx	lr
    956c:	e52de004 	push	{lr}		; (str lr, [sp, #-4]!)
    9570:	e24dd00c 	sub	sp, sp, #12, 0
    9574:	e58d0000 	str	r0, [sp]
    9578:	e3a03077 	mov	r3, #119, 0	; 0x77
    957c:	e59f2010 	ldr	r2, [pc, #16]	; 9594 <kfree_pop+0x54>
    9580:	e59f1010 	ldr	r1, [pc, #16]	; 9598 <kfree_pop+0x58>
    9584:	e59f0010 	ldr	r0, [pc, #16]	; 959c <kfree_pop+0x5c>
    9588:	ebfffb57 	bl	82ec <printk>
    958c:	ebfffde7 	bl	8d30 <clean_reboot>
    9590:	00009d00 	andeq	r9, r0, r0, lsl #26
    9594:	00009cf0 	strdeq	r9, [r0], -r0
    9598:	00009b00 	andeq	r9, r0, r0, lsl #22
    959c:	00009c68 	andeq	r9, r0, r8, ror #24

000095a0 <gpio_set_function>:
    95a0:	e350001f 	cmp	r0, #31, 0
    95a4:	812fff1e 	bxhi	lr
    95a8:	e3d13007 	bics	r3, r1, #7, 0
    95ac:	e92d4070 	push	{r4, r5, r6, lr}
    95b0:	e1a05001 	mov	r5, r1
    95b4:	18bd8070 	popne	{r4, r5, r6, pc}
    95b8:	e59f403c 	ldr	r4, [pc, #60]	; 95fc <gpio_set_function+0x5c>
    95bc:	e0843094 	umull	r3, r4, r4, r0
    95c0:	e1a041a4 	lsr	r4, r4, #3
    95c4:	e2843302 	add	r3, r4, #134217728	; 0x8000000
    95c8:	e2833702 	add	r3, r3, #524288	; 0x80000
    95cc:	e1a06103 	lsl	r6, r3, #2
    95d0:	e0844104 	add	r4, r4, r4, lsl #2
    95d4:	e0404084 	sub	r4, r0, r4, lsl #1
    95d8:	e1a00006 	mov	r0, r6
    95dc:	ebfffa92 	bl	802c <GET32>
    95e0:	e3a01007 	mov	r1, #7, 0
    95e4:	e0844084 	add	r4, r4, r4, lsl #1
    95e8:	e1c01411 	bic	r1, r0, r1, lsl r4
    95ec:	e1811415 	orr	r1, r1, r5, lsl r4
    95f0:	e1a00006 	mov	r0, r6
    95f4:	e8bd4070 	pop	{r4, r5, r6, lr}
    95f8:	eafffa89 	b	8024 <PUT32>
    95fc:	cccccccd 	stclgt	12, cr12, [ip], {205}	; 0xcd

00009600 <gpio_set_output>:
    9600:	e350001f 	cmp	r0, #31, 0
    9604:	812fff1e 	bxhi	lr
    9608:	e92d4070 	push	{r4, r5, r6, lr}
    960c:	e59f4040 	ldr	r4, [pc, #64]	; 9654 <gpio_set_output+0x54>
    9610:	e0843094 	umull	r3, r4, r4, r0
    9614:	e1a041a4 	lsr	r4, r4, #3
    9618:	e2843302 	add	r3, r4, #134217728	; 0x8000000
    961c:	e2833702 	add	r3, r3, #524288	; 0x80000
    9620:	e1a05103 	lsl	r5, r3, #2
    9624:	e0844104 	add	r4, r4, r4, lsl #2
    9628:	e0404084 	sub	r4, r0, r4, lsl #1
    962c:	e1a00005 	mov	r0, r5
    9630:	ebfffa7d 	bl	802c <GET32>
    9634:	e3a03007 	mov	r3, #7, 0
    9638:	e3a01001 	mov	r1, #1, 0
    963c:	e0844084 	add	r4, r4, r4, lsl #1
    9640:	e1c03413 	bic	r3, r0, r3, lsl r4
    9644:	e1831411 	orr	r1, r3, r1, lsl r4
    9648:	e1a00005 	mov	r0, r5
    964c:	e8bd4070 	pop	{r4, r5, r6, lr}
    9650:	eafffa73 	b	8024 <PUT32>
    9654:	cccccccd 	stclgt	12, cr12, [ip], {205}	; 0xcd

00009658 <gpio_set_on>:
    9658:	e1a03000 	mov	r3, r0
    965c:	e3a01001 	mov	r1, #1, 0
    9660:	e59f0004 	ldr	r0, [pc, #4]	; 966c <gpio_set_on+0x14>
    9664:	e1a01311 	lsl	r1, r1, r3
    9668:	eafffa6d 	b	8024 <PUT32>
    966c:	2020001c 	eorcs	r0, r0, ip, lsl r0

00009670 <gpio_set_off>:
    9670:	e1a03000 	mov	r3, r0
    9674:	e3a01001 	mov	r1, #1, 0
    9678:	e59f0004 	ldr	r0, [pc, #4]	; 9684 <gpio_set_off+0x14>
    967c:	e1a01311 	lsl	r1, r1, r3
    9680:	eafffa67 	b	8024 <PUT32>
    9684:	20200028 	eorcs	r0, r0, r8, lsr #32

00009688 <gpio_set_input>:
    9688:	e350001f 	cmp	r0, #31, 0
    968c:	812fff1e 	bxhi	lr
    9690:	e92d4070 	push	{r4, r5, r6, lr}
    9694:	e59f5040 	ldr	r5, [pc, #64]	; 96dc <gpio_set_input+0x54>
    9698:	e1a04000 	mov	r4, r0
    969c:	e0853095 	umull	r3, r5, r5, r0
    96a0:	e1a051a5 	lsr	r5, r5, #3
    96a4:	e2850302 	add	r0, r5, #134217728	; 0x8000000
    96a8:	e2800702 	add	r0, r0, #524288	; 0x80000
    96ac:	e1a06100 	lsl	r6, r0, #2
    96b0:	e1a00006 	mov	r0, r6
    96b4:	ebfffa5c 	bl	802c <GET32>
    96b8:	e3a01007 	mov	r1, #7, 0
    96bc:	e1a03000 	mov	r3, r0
    96c0:	e0855105 	add	r5, r5, r5, lsl #2
    96c4:	e0444085 	sub	r4, r4, r5, lsl #1
    96c8:	e0844084 	add	r4, r4, r4, lsl #1
    96cc:	e1a00006 	mov	r0, r6
    96d0:	e1c31411 	bic	r1, r3, r1, lsl r4
    96d4:	e8bd4070 	pop	{r4, r5, r6, lr}
    96d8:	eafffa51 	b	8024 <PUT32>
    96dc:	cccccccd 	stclgt	12, cr12, [ip], {205}	; 0xcd

000096e0 <gpio_write>:
    96e0:	e3510000 	cmp	r1, #0, 0
    96e4:	e3a03001 	mov	r3, #1, 0
    96e8:	e1a01000 	mov	r1, r0
    96ec:	0a000002 	beq	96fc <gpio_write+0x1c>
    96f0:	e59f0010 	ldr	r0, [pc, #16]	; 9708 <gpio_write+0x28>
    96f4:	e1a01113 	lsl	r1, r3, r1
    96f8:	eafffa49 	b	8024 <PUT32>
    96fc:	e59f0008 	ldr	r0, [pc, #8]	; 970c <gpio_write+0x2c>
    9700:	e1a01113 	lsl	r1, r3, r1
    9704:	eafffa46 	b	8024 <PUT32>
    9708:	2020001c 	eorcs	r0, r0, ip, lsl r0
    970c:	20200028 	eorcs	r0, r0, r8, lsr #32

00009710 <gpio_read>:
    9710:	e92d4010 	push	{r4, lr}
    9714:	e1a04000 	mov	r4, r0
    9718:	e59f0014 	ldr	r0, [pc, #20]	; 9734 <gpio_read+0x24>
    971c:	e08002a4 	add	r0, r0, r4, lsr #5
    9720:	ebfffa41 	bl	802c <GET32>
    9724:	e204401f 	and	r4, r4, #31, 0
    9728:	e1a00430 	lsr	r0, r0, r4
    972c:	e2000001 	and	r0, r0, #1, 0
    9730:	e8bd8010 	pop	{r4, pc}
    9734:	20200034 	eorcs	r0, r0, r4, lsr r0

00009738 <memset>:
    9738:	e92d4010 	push	{r4, lr}
    973c:	e0804002 	add	r4, r0, r2
    9740:	e1500004 	cmp	r0, r4
    9744:	28bd8010 	popcs	{r4, pc}
    9748:	e2423001 	sub	r3, r2, #1, 0
    974c:	e3530002 	cmp	r3, #2, 0
    9750:	e6ef1071 	uxtb	r1, r1
    9754:	e1a03000 	mov	r3, r0
    9758:	9a00000b 	bls	978c <memset+0x54>
    975c:	e181e401 	orr	lr, r1, r1, lsl #8
    9760:	e18ee801 	orr	lr, lr, r1, lsl #16
    9764:	e3c2c003 	bic	ip, r2, #3, 0
    9768:	e18eec01 	orr	lr, lr, r1, lsl #24
    976c:	e08cc000 	add	ip, ip, r0
    9770:	e483e004 	str	lr, [r3], #4
    9774:	e153000c 	cmp	r3, ip
    9778:	1afffffc 	bne	9770 <memset+0x38>
    977c:	e3c23003 	bic	r3, r2, #3, 0
    9780:	e1520003 	cmp	r2, r3
    9784:	e0803003 	add	r3, r0, r3
    9788:	08bd8010 	popeq	{r4, pc}
    978c:	e1a02003 	mov	r2, r3
    9790:	e4c21001 	strb	r1, [r2], #1
    9794:	e1540002 	cmp	r4, r2
    9798:	98bd8010 	popls	{r4, pc}
    979c:	e2832002 	add	r2, r3, #2, 0
    97a0:	e1540002 	cmp	r4, r2
    97a4:	e5c31001 	strb	r1, [r3, #1]
    97a8:	85c31002 	strbhi	r1, [r3, #2]
    97ac:	e8bd8010 	pop	{r4, pc}

000097b0 <internal_putchar>:
    97b0:	e92d4010 	push	{r4, lr}
    97b4:	e1a04000 	mov	r4, r0
    97b8:	ebfffe66 	bl	9158 <uart_putc>
    97bc:	e1a00004 	mov	r0, r4
    97c0:	e8bd8010 	pop	{r4, pc}

000097c4 <rpi_reset_putc>:
    97c4:	e59f3008 	ldr	r3, [pc, #8]	; 97d4 <rpi_reset_putc+0x10>
    97c8:	e59f2008 	ldr	r2, [pc, #8]	; 97d8 <rpi_reset_putc+0x14>
    97cc:	e5832000 	str	r2, [r3]
    97d0:	e12fff1e 	bx	lr
    97d4:	00009d0c 	andeq	r9, r0, ip, lsl #26
    97d8:	000097b0 			; <UNDEFINED> instruction: 0x000097b0

000097dc <rpi_set_putc>:
    97dc:	e59f3004 	ldr	r3, [pc, #4]	; 97e8 <rpi_set_putc+0xc>
    97e0:	e5830000 	str	r0, [r3]
    97e4:	e12fff1e 	bx	lr
    97e8:	00009d0c 	andeq	r9, r0, ip, lsl #26

000097ec <strcat>:
    97ec:	e1a02000 	mov	r2, r0
    97f0:	e1a03002 	mov	r3, r2
    97f4:	e4d2c001 	ldrb	ip, [r2], #1
    97f8:	e35c0000 	cmp	ip, #0, 0
    97fc:	1afffffb 	bne	97f0 <strcat+0x4>
    9800:	e2433001 	sub	r3, r3, #1, 0
    9804:	e4d12001 	ldrb	r2, [r1], #1
    9808:	e3520000 	cmp	r2, #0, 0
    980c:	e5e32001 	strb	r2, [r3, #1]!
    9810:	1afffffb 	bne	9804 <strcat+0x18>
    9814:	e12fff1e 	bx	lr

00009818 <strcmp>:
    9818:	e5d03000 	ldrb	r3, [r0]
    981c:	e3530000 	cmp	r3, #0, 0
    9820:	05d12000 	ldrbeq	r2, [r1]
    9824:	1a000003 	bne	9838 <strcmp+0x20>
    9828:	ea000006 	b	9848 <strcmp+0x30>
    982c:	e5f03001 	ldrb	r3, [r0, #1]!
    9830:	e3530000 	cmp	r3, #0, 0
    9834:	0a000005 	beq	9850 <strcmp+0x38>
    9838:	e1a0c001 	mov	ip, r1
    983c:	e4d12001 	ldrb	r2, [r1], #1
    9840:	e1520003 	cmp	r2, r3
    9844:	0afffff8 	beq	982c <strcmp+0x14>
    9848:	e0430002 	sub	r0, r3, r2
    984c:	e12fff1e 	bx	lr
    9850:	e5dc2001 	ldrb	r2, [ip, #1]
    9854:	e0430002 	sub	r0, r3, r2
    9858:	e12fff1e 	bx	lr

0000985c <strcpy>:
    985c:	e2402001 	sub	r2, r0, #1, 0
    9860:	e4d13001 	ldrb	r3, [r1], #1
    9864:	e3530000 	cmp	r3, #0, 0
    9868:	e5e23001 	strb	r3, [r2, #1]!
    986c:	1afffffb 	bne	9860 <strcpy+0x4>
    9870:	e12fff1e 	bx	lr

00009874 <strncmp>:
    9874:	e0802002 	add	r2, r0, r2
    9878:	ea000003 	b	988c <strncmp+0x18>
    987c:	e4d03001 	ldrb	r3, [r0], #1
    9880:	e4d1c001 	ldrb	ip, [r1], #1
    9884:	e153000c 	cmp	r3, ip
    9888:	1a000003 	bne	989c <strncmp+0x28>
    988c:	e1500002 	cmp	r0, r2
    9890:	1afffff9 	bne	987c <strncmp+0x8>
    9894:	e3a00000 	mov	r0, #0, 0
    9898:	e12fff1e 	bx	lr
    989c:	e043000c 	sub	r0, r3, ip
    98a0:	e12fff1e 	bx	lr

000098a4 <reboot_callout>:
    98a4:	e12fff1e 	bx	lr

000098a8 <dev_barrier>:
    98a8:	ea000002 	b	98b8 <dsb>

000098ac <dmb>:
    98ac:	e3a00000 	mov	r0, #0, 0
    98b0:	ee070fba 	mcr	15, 0, r0, cr7, cr10, {5}
    98b4:	e12fff1e 	bx	lr

000098b8 <dsb>:
    98b8:	ee070f9a 	mcr	15, 0, r0, cr7, cr10, {4}
    98bc:	e12fff1e 	bx	lr

Disassembly of section .rodata:

000098c0 <__FUNCTION__.3962-0xc4>:
    98c0:	6c6c616d 	stfvse	f6, [ip], #-436	; 0xfffffe4c
    98c4:	3128636f 			; <UNDEFINED> instruction: 0x3128636f
    98c8:	203d2029 	eorscs	r2, sp, r9, lsr #32
    98cc:	000a7025 	andeq	r7, sl, r5, lsr #32
    98d0:	65742d31 	ldrbvs	r2, [r4, #-3377]!	; 0xfffff2cf
    98d4:	6d2d7473 	cfstrsvs	mvf7, [sp, #-460]!	; 0xfffffe34
    98d8:	6f6c6c61 	svcvs	0x006c6c61
    98dc:	00632e63 	rsbeq	r2, r3, r3, ror #28
    98e0:	494e4150 	stmdbmi	lr, {r4, r6, r8, lr}^
    98e4:	73253a43 			; <UNDEFINED> instruction: 0x73253a43
    98e8:	3a73253a 	bcc	1cd2dd8 <__bss_end__+0x1cc8cb0>
    98ec:	253a6425 	ldrcs	r6, [sl, #-1061]!	; 0xfffffbdb
    98f0:	00000a73 	andeq	r0, r0, r3, ror sl
    98f4:	703c3070 	eorsvc	r3, ip, r0, ror r0
    98f8:	00000031 	andeq	r0, r0, r1, lsr r0
    98fc:	494e4150 	stmdbmi	lr, {r4, r6, r8, lr}^
    9900:	73253a43 			; <UNDEFINED> instruction: 0x73253a43
    9904:	3a73253a 	bcc	1cd2df4 <__bss_end__+0x1cc8ccc>
    9908:	703a6425 	eorsvc	r6, sl, r5, lsr #8
    990c:	70253d30 	eorvc	r3, r5, r0, lsr sp
    9910:	3170202c 	cmncc	r0, ip, lsr #32
    9914:	2c70253d 	cfldr64cs	mvdx2, [r0], #-244	; 0xffffff0c
    9918:	70786520 	rsbsvc	r6, r8, r0, lsr #10
    991c:	65746365 	ldrbvs	r6, [r4, #-869]!	; 0xfffffc9b
    9920:	69642064 	stmdbvs	r4!, {r2, r5, r6, sp}^
    9924:	253d6666 	ldrcs	r6, [sp, #-1638]!	; 0xfffff99a
    9928:	61202c75 			; <UNDEFINED> instruction: 0x61202c75
    992c:	61757463 	cmnvs	r5, r3, ror #8
    9930:	6c253d6c 	stcvs	13, cr3, [r5], #-432	; 0xfffffe50
    9934:	000a0a75 	andeq	r0, sl, r5, ror sl
    9938:	73736170 	cmnvc	r3, #28
    993c:	69206465 	stmdbvs	r0!, {r0, r2, r5, r6, sl, sp, lr}
    9940:	20726574 	rsbscs	r6, r2, r4, ror r5
    9944:	000a6425 	andeq	r6, sl, r5, lsr #8
    9948:	43415254 	movtmi	r5, #4692	; 0x1254
    994c:	00003a45 	andeq	r3, r0, r5, asr #20
    9950:	63637573 	cmnvs	r3, #482344960	; 0x1cc00000
    9954:	3a737365 	bcc	1ce66f0 <__bss_end__+0x1cdc5c8>
    9958:	6c616d20 	stclvs	13, cr6, [r1], #-128	; 0xffffff80
    995c:	2f636f6c 	svccs	0x00636f6c
    9960:	65657266 	strbvs	r7, [r5, #-614]!	; 0xfffffd9a
    9964:	70706120 	rsbsvc	r6, r0, r0, lsr #2
    9968:	20726165 	rsbscs	r6, r2, r5, ror #2
    996c:	77206f74 			; <UNDEFINED> instruction: 0x77206f74
    9970:	206b726f 	rsbcs	r7, fp, pc, ror #4
    9974:	25206e6f 	strcs	r6, [r0, #-3695]!	; 0xfffff191
    9978:	65742064 	ldrbvs	r2, [r4, #-100]!	; 0xffffff9c
    997c:	21737473 	cmncs	r3, r3, ror r4
    9980:	0000000a 	andeq	r0, r0, sl

00009984 <__FUNCTION__.3962>:
    9984:	6d746f6e 	ldclvs	15, cr6, [r4, #-440]!	; 0xfffffe48
    9988:	006e6961 	rsbeq	r6, lr, r1, ror #18
    998c:	696c2f2e 	stmdbvs	ip!, {r1, r2, r3, r5, r8, r9, sl, fp, sp}^
    9990:	762f6362 	strtvc	r6, [pc], -r2, ror #6
    9994:	72702d61 	rsbsvc	r2, r0, #6208	; 0x1840
    9998:	6b746e69 	blvs	1d25344 <__bss_end__+0x1d1b21c>
    999c:	0000632e 	andeq	r6, r0, lr, lsr #6
    99a0:	00000030 	andeq	r0, r0, r0, lsr r0
    99a4:	33323130 	teqcc	r2, #12
    99a8:	37363534 			; <UNDEFINED> instruction: 0x37363534
    99ac:	62613938 	rsbvs	r3, r1, #56, 18	; 0xe0000
    99b0:	66656463 	strbtvs	r6, [r5], -r3, ror #8
    99b4:	00000000 	andeq	r0, r0, r0
    99b8:	00003130 	andeq	r3, r0, r0, lsr r1
    99bc:	33323130 	teqcc	r2, #12
    99c0:	37363534 			; <UNDEFINED> instruction: 0x37363534
    99c4:	00003938 	andeq	r3, r0, r8, lsr r9
    99c8:	63747570 	cmnvs	r4, #112, 10	; 0x1c000000
    99cc:	0070665f 	rsbseq	r6, r0, pc, asr r6
    99d0:	74646977 	strbtvc	r6, [r4], #-2423	; 0xfffff689
    99d4:	203c2068 	eorscs	r2, ip, r8, rrx
    99d8:	00003233 	andeq	r3, r0, r3, lsr r2
    99dc:	00786c6c 	rsbseq	r6, r8, ip, ror #24
    99e0:	253d3078 	ldrcs	r3, [sp, #-120]!	; 0xffffff88
    99e4:	00000a78 	andeq	r0, r0, r8, ror sl
    99e8:	253d3178 	ldrcs	r3, [sp, #-376]!	; 0xfffffe88
    99ec:	00000a78 	andeq	r0, r0, r8, ror sl
    99f0:	00646c6c 	rsbeq	r6, r4, ip, ror #24
    99f4:	6e727473 	mrcvs	4, 3, r7, cr2, cr3, {3}
    99f8:	28706d63 	ldmdacs	r0!, {r0, r1, r5, r6, r8, sl, fp, sp, lr}^
    99fc:	202c7974 	eorcs	r7, ip, r4, ror r9
    9a00:	786c6c22 	stmdavc	ip!, {r1, r5, sl, fp, sp, lr}^
    9a04:	33202c22 			; <UNDEFINED> instruction: 0x33202c22
    9a08:	3d3d2029 	ldccc	0, cr2, [sp, #-164]!	; 0xffffff5c
    9a0c:	7c203020 	stcvc	0, cr3, [r0], #-128	; 0xffffff80
    9a10:	7473207c 	ldrbtvc	r2, [r3], #-124	; 0xffffff84
    9a14:	6d636e72 	stclvs	14, cr6, [r3, #-456]!	; 0xfffffe38
    9a18:	79742870 	ldmdbvc	r4!, {r4, r5, r6, fp, sp}^
    9a1c:	6c22202c 	stcvs	0, cr2, [r2], #-176	; 0xffffff50
    9a20:	2c22646c 	cfstrscs	mvf6, [r2], #-432	; 0xfffffe50
    9a24:	20293320 	eorcs	r3, r9, r0, lsr #6
    9a28:	30203d3d 	eorcc	r3, r0, sp, lsr sp
    9a2c:	00000000 	andeq	r0, r0, r0
    9a30:	494e4150 	stmdbmi	lr, {r4, r6, r8, lr}^
    9a34:	73253a43 			; <UNDEFINED> instruction: 0x73253a43
    9a38:	3a73253a 	bcc	1cd2f28 <__bss_end__+0x1cc8e00>
    9a3c:	693a6425 	ldmdbvs	sl!, {r0, r2, r5, sl, sp, lr}
    9a40:	736f706d 	cmnvc	pc, #109, 0	; 0x6d
    9a44:	6c626973 			; <UNDEFINED> instruction: 0x6c626973
    9a48:	66203a65 	strtvs	r3, [r0], -r5, ror #20
    9a4c:	3c3d746d 	cfldrscc	mvf7, [sp], #-436	; 0xfffffe4c
    9a50:	0a3e7325 	beq	fa66ec <__bss_end__+0xf9c5c4>
    9a54:	0000000a 	andeq	r0, r0, sl
    9a58:	494e4150 	stmdbmi	lr, {r4, r6, r8, lr}^
    9a5c:	73253a43 			; <UNDEFINED> instruction: 0x73253a43
    9a60:	3a73253a 	bcc	1cd2f50 <__bss_end__+0x1cc8e28>
    9a64:	663a6425 	ldrtvs	r6, [sl], -r5, lsr #8
    9a68:	74616f6c 	strbtvc	r6, [r1], #-3948	; 0xfffff094
    9a6c:	746f6e20 	strbtvc	r6, [pc], #-3616	; 9a74 <__FUNCTION__.3962+0xf0>
    9a70:	616e6520 	cmnvs	lr, r0, lsr #10
    9a74:	64656c62 	strbtvs	r6, [r5], #-3170	; 0xfffff39e
    9a78:	0a212121 	beq	851f04 <__bss_end__+0x847ddc>
    9a7c:	00000000 	andeq	r0, r0, r0
    9a80:	6e697270 	mcrvs	2, 3, r7, cr9, cr0, {3}
    9a84:	203a6b74 	eorscs	r6, sl, r4, ror fp
    9a88:	20746f6e 	rsbscs	r6, r4, lr, ror #30
    9a8c:	646e6168 	strbtvs	r6, [lr], #-360	; 0xfffffe98
    9a90:	676e696c 	strbvs	r6, [lr, -ip, ror #18]!
    9a94:	65707320 	ldrbvs	r7, [r0, #-800]!	; 0xfffffce0
    9a98:	69666963 	stmdbvs	r6!, {r0, r1, r5, r6, r8, fp, sp, lr}^
    9a9c:	27207265 	strcs	r7, [r0, -r5, ror #4]!
    9aa0:	20276325 	eorcs	r6, r7, r5, lsr #6
    9aa4:	63736128 	cmnvs	r3, #10
    9aa8:	253d6969 	ldrcs	r6, [sp, #-2409]!	; 0xfffff697
    9aac:	000a2964 	andeq	r2, sl, r4, ror #18
    9ab0:	494e4150 	stmdbmi	lr, {r4, r6, r8, lr}^
    9ab4:	73253a43 			; <UNDEFINED> instruction: 0x73253a43
    9ab8:	3a73253a 	bcc	1cd2fa8 <__bss_end__+0x1cc8e80>
    9abc:	703a6425 	eorsvc	r6, sl, r5, lsr #8
    9ac0:	746e6972 	strbtvc	r6, [lr], #-2418	; 0xfffff68e
    9ac4:	7265206b 	rsbvc	r2, r5, #107, 0	; 0x6b
    9ac8:	0a726f72 	beq	1ca5898 <__bss_end__+0x1c9b770>
    9acc:	0000000a 	andeq	r0, r0, sl

00009ad0 <__FUNCTION__.4004>:
    9ad0:	74696d65 	strbtvc	r6, [r9], #-3429	; 0xfffff29b
    9ad4:	00000000 	andeq	r0, r0, r0

00009ad8 <__FUNCTION__.3952>:
    9ad8:	5f697072 	svcpl	0x00697072
    9adc:	5f746573 	svcpl	0x00746573
    9ae0:	7074756f 	rsbsvc	r7, r4, pc, ror #10
    9ae4:	00007475 	andeq	r7, r0, r5, ror r4

00009ae8 <__FUNCTION__.4030>:
    9ae8:	705f6176 	subsvc	r6, pc, r6, ror r1	; <UNPREDICTABLE>
    9aec:	746e6972 	strbtvc	r6, [lr], #-2418	; 0xfffff68e
    9af0:	0000006b 	andeq	r0, r0, fp, rrx
    9af4:	454e4f44 	strbmi	r4, [lr, #-3908]	; 0xfffff0bc
    9af8:	0a212121 	beq	851f84 <__bss_end__+0x847e5c>
    9afc:	00000000 	andeq	r0, r0, r0
    9b00:	6c616d6b 	stclvs	13, cr6, [r1], #-428	; 0xfffffe54
    9b04:	2e636f6c 	cdpcs	15, 6, cr6, cr3, cr12, {3}
    9b08:	00000063 	andeq	r0, r0, r3, rrx
    9b0c:	5f78616d 	svcpl	0x0078616d
    9b10:	7479626e 	ldrbtvc	r6, [r9], #-622	; 0xfffffd92
    9b14:	00007365 	andeq	r7, r0, r5, ror #6
    9b18:	494e4150 	stmdbmi	lr, {r4, r6, r8, lr}^
    9b1c:	73253a43 			; <UNDEFINED> instruction: 0x73253a43
    9b20:	3a73253a 	bcc	1cd3010 <__bss_end__+0x1cc8ee8>
    9b24:	733a6425 	teqvc	sl, #620756992	; 0x25000000
    9b28:	69747465 	ldmdbvs	r4!, {r0, r2, r5, r6, sl, ip, sp, lr}^
    9b2c:	6820676e 	stmdavs	r0!, {r1, r2, r3, r5, r6, r8, r9, sl, sp, lr}
    9b30:	20706165 	rsbscs	r6, r0, r5, ror #2
    9b34:	25206f74 	strcs	r6, [r0, #-3956]!	; 0xfffff08c
    9b38:	77203a70 			; <UNDEFINED> instruction: 0x77203a70
    9b3c:	206c6c69 	rsbcs	r6, ip, r9, ror #24
    9b40:	20746968 	rsbscs	r6, r4, r8, ror #18
    9b44:	20656874 	rsbcs	r6, r5, r4, ror r8
    9b48:	20646c6f 	rsbcs	r6, r4, pc, ror #24
    9b4c:	70616568 	rsbvc	r6, r1, r8, ror #10
    9b50:	20746120 	rsbscs	r6, r4, r0, lsr #2
    9b54:	0a0a7025 	beq	2a5bf0 <__bss_end__+0x29bac8>
    9b58:	00000000 	andeq	r0, r0, r0
    9b5c:	494e4150 	stmdbmi	lr, {r4, r6, r8, lr}^
    9b60:	73253a43 			; <UNDEFINED> instruction: 0x73253a43
    9b64:	3a73253a 	bcc	1cd3054 <__bss_end__+0x1cc8f2c>
    9b68:	613a6425 	teqvs	sl, r5, lsr #8
    9b6c:	6165726c 	cmnvs	r5, ip, ror #4
    9b70:	63207964 			; <UNDEFINED> instruction: 0x63207964
    9b74:	656c6c61 	strbvs	r6, [ip, #-3169]!	; 0xfffff39f
    9b78:	6d6b2064 	stclvs	0, cr2, [fp, #-400]!	; 0xfffffe70
    9b7c:	6f6c6c61 	svcvs	0x006c6c61
    9b80:	6e695f63 	cdpvs	15, 6, cr5, cr9, cr3, {3}
    9b84:	0a0a7469 	beq	2a6d30 <__bss_end__+0x29cc08>
    9b88:	00000000 	andeq	r0, r0, r0
    9b8c:	494e4150 	stmdbmi	lr, {r4, r6, r8, lr}^
    9b90:	73253a43 			; <UNDEFINED> instruction: 0x73253a43
    9b94:	3a73253a 	bcc	1cd3084 <__bss_end__+0x1cc8f5c>
    9b98:	253a6425 	ldrcs	r6, [sl, #-1061]!	; 0xfffffbdb
    9b9c:	626e2064 	rsbvs	r2, lr, #100, 0	; 0x64
    9ba0:	73657479 	cmnvc	r5, #2030043136	; 0x79000000
    9ba4:	63786520 	cmnvs	r8, #32, 10	; 0x8000000
    9ba8:	65646565 	strbvs	r6, [r4, #-1381]!	; 0xfffffa9b
    9bac:	69732064 	ldmdbvs	r3!, {r2, r5, r6, sp}^
    9bb0:	6f20657a 	svcvs	0x0020657a
    9bb4:	65682066 	strbvs	r2, [r8, #-102]!	; 0xffffff9a
    9bb8:	62207061 	eorvs	r7, r0, #97, 0	; 0x61
    9bbc:	75252079 	strvc	r2, [r5, #-121]!	; 0xffffff87
    9bc0:	79626e20 	stmdbvc	r2!, {r5, r9, sl, fp, sp, lr}^
    9bc4:	0a736574 	beq	1ce319c <__bss_end__+0x1cd9074>
    9bc8:	0000000a 	andeq	r0, r0, sl
    9bcc:	4f525245 	svcmi	0x00525245
    9bd0:	73253a52 			; <UNDEFINED> instruction: 0x73253a52
    9bd4:	3a73253a 	bcc	1cd30c4 <__bss_end__+0x1cc8f9c>
    9bd8:	203a6425 	eorscs	r6, sl, r5, lsr #8
    9bdc:	534c4146 	movtpl	r4, #49478	; 0xc146
    9be0:	253c2845 	ldrcs	r2, [ip, #-2117]!	; 0xfffff7bb
    9be4:	3a293e73 	bcc	a595b8 <__bss_end__+0xa4f490>
    9be8:	73736120 	cmnvc	r3, #8
    9bec:	6e696d75 	mcrvs	13, 3, r6, cr9, cr5, {3}
    9bf0:	6f702067 	svcvs	0x00702067
    9bf4:	20726577 	rsbscs	r6, r2, r7, ror r5
    9bf8:	7420666f 	strtvc	r6, [r0], #-1647	; 0xfffff991
    9bfc:	000a6f77 	andeq	r6, sl, r7, ror pc
    9c00:	705f7369 	subsvc	r7, pc, r9, ror #6
    9c04:	2832776f 	ldmdacs	r2!, {r0, r1, r2, r3, r5, r6, r8, r9, sl, ip, sp, lr}
    9c08:	67696c61 	strbvs	r6, [r9, -r1, ror #24]!
    9c0c:	6e656d6e 	cdpvs	13, 6, cr6, cr5, cr14, {3}
    9c10:	00002974 	andeq	r2, r0, r4, ror r9
    9c14:	705f7369 	subsvc	r7, pc, r9, ror #6
    9c18:	2832776f 	ldmdacs	r2!, {r0, r1, r2, r3, r5, r6, r8, r9, sl, ip, sp, lr}
    9c1c:	0000296e 	andeq	r2, r0, lr, ror #18
    9c20:	4f525245 	svcmi	0x00525245
    9c24:	73253a52 			; <UNDEFINED> instruction: 0x73253a52
    9c28:	3a73253a 	bcc	1cd3118 <__bss_end__+0x1cc8ff0>
    9c2c:	203a6425 	eorscs	r6, sl, r5, lsr #8
    9c30:	534c4146 	movtpl	r4, #49478	; 0xc146
    9c34:	253c2845 	ldrcs	r2, [ip, #-2117]!	; 0xfffff7bb
    9c38:	3a293e73 	bcc	a5960c <__bss_end__+0xa4f4e4>
    9c3c:	706d6920 	rsbvc	r6, sp, r0, lsr #18
    9c40:	6973736f 	ldmdbvs	r3!, {r0, r1, r2, r3, r5, r6, r8, r9, ip, sp, lr}^
    9c44:	0a656c62 	beq	1964dd4 <__bss_end__+0x195acac>
    9c48:	00000000 	andeq	r0, r0, r0
    9c4c:	615f7369 	cmpvs	pc, r9, ror #6
    9c50:	6e67696c 	vnmulvs.f16	s13, s14, s25	; <UNPREDICTABLE>
    9c54:	68286465 	stmdavs	r8!, {r0, r2, r5, r6, sl, sp, lr}
    9c58:	6c61202c 	stclvs	0, cr2, [r1], #-176	; 0xffffff50
    9c5c:	6d6e6769 	stclvs	7, cr6, [lr, #-420]!	; 0xfffffe5c
    9c60:	29746e65 	ldmdbcs	r4!, {r0, r2, r5, r6, r9, sl, fp, sp, lr}^
    9c64:	00000000 	andeq	r0, r0, r0
    9c68:	494e4150 	stmdbmi	lr, {r4, r6, r8, lr}^
    9c6c:	73253a43 			; <UNDEFINED> instruction: 0x73253a43
    9c70:	3a73253a 	bcc	1cd3160 <__bss_end__+0x1cc9038>
    9c74:	703a6425 	eorsvc	r6, sl, r5, lsr #8
    9c78:	746e696f 	strbtvc	r6, [lr], #-2415	; 0xfffff691
    9c7c:	25207265 	strcs	r7, [r0, #-613]!	; 0xfffffd9b
    9c80:	61772070 	cmnvs	r7, r0, ror r0
    9c84:	656e2073 	strbvs	r2, [lr, #-115]!	; 0xffffff8d
    9c88:	20726576 	rsbscs	r6, r2, r6, ror r5
    9c8c:	6f6c6c61 	svcvs	0x006c6c61
    9c90:	65746163 	ldrbvs	r6, [r4, #-355]!	; 0xfffffe9d
    9c94:	000a0a64 	andeq	r0, sl, r4, ror #20

00009c98 <__FUNCTION__.7>:
    9c98:	6c616d6b 	stclvs	13, cr6, [r1], #-428	; 0xfffffe54
    9c9c:	5f636f6c 	svcpl	0x00636f6c
    9ca0:	74696e69 	strbtvc	r6, [r9], #-3689	; 0xfffff197
    9ca4:	7465735f 	strbtvc	r7, [r5], #-863	; 0xfffffca1
    9ca8:	6174735f 	cmnvs	r4, pc, asr r3
    9cac:	00007472 	andeq	r7, r0, r2, ror r4

00009cb0 <__FUNCTION__.5>:
    9cb0:	6c616d6b 	stclvs	13, cr6, [r1], #-428	; 0xfffffe54
    9cb4:	5f636f6c 	svcpl	0x00636f6c
    9cb8:	74696e69 	strbtvc	r6, [r9], #-3689	; 0xfffff197
    9cbc:	00000000 	andeq	r0, r0, r0

00009cc0 <__FUNCTION__.4>:
    9cc0:	6c616d6b 	stclvs	13, cr6, [r1], #-428	; 0xfffffe54
    9cc4:	5f636f6c 	svcpl	0x00636f6c
    9cc8:	7a746f6e 	bvc	1d25a88 <__bss_end__+0x1d1b960>
    9ccc:	006f7265 	rsbeq	r7, pc, r5, ror #4

00009cd0 <__FUNCTION__.2>:
    9cd0:	6c616d6b 	stclvs	13, cr6, [r1], #-428	; 0xfffffe54
    9cd4:	00636f6c 	rsbeq	r6, r3, ip, ror #30

00009cd8 <__FUNCTION__.1>:
    9cd8:	6c616d6b 	stclvs	13, cr6, [r1], #-428	; 0xfffffe54
    9cdc:	5f636f6c 	svcpl	0x00636f6c
    9ce0:	67696c61 	strbvs	r6, [r9, -r1, ror #24]!
    9ce4:	0064656e 	rsbeq	r6, r4, lr, ror #10

00009ce8 <__FUNCTION__.3>:
    9ce8:	6e756f72 	mrcvs	15, 3, r6, cr5, cr2, {3}
    9cec:	00707564 	rsbseq	r7, r0, r4, ror #10

00009cf0 <__FUNCTION__.0>:
    9cf0:	6572666b 	ldrbvs	r6, [r2, #-1643]!	; 0xfffff995
    9cf4:	6f705f65 	svcvs	0x00705f65
    9cf8:	Address 0x0000000000009cf8 is out of bounds.


Disassembly of section .data:

00009cfc <putk>:
    9cfc:	00008344 	andeq	r8, r0, r4, asr #6

00009d00 <heap>:
    9d00:	0000a128 	andeq	sl, r0, r8, lsr #2

00009d04 <heap_start>:
    9d04:	0000a128 	andeq	sl, r0, r8, lsr #2

00009d08 <heap_end>:
    9d08:	0020a128 	eoreq	sl, r0, r8, lsr #2

00009d0c <rpi_putchar>:
    9d0c:	000097b0 			; <UNDEFINED> instruction: 0x000097b0

Disassembly of section .bss:

00009d10 <__bss_start__>:
	...

00009d18 <base>:
	...

00009d20 <buf.3944>:
	...

0000a120 <init_p.6>:
	...

Disassembly of section .ARM.attributes:

00000000 <.ARM.attributes>:
   0:	00002a41 	andeq	r2, r0, r1, asr #20
   4:	61656100 	cmnvs	r5, r0, lsl #2
   8:	01006962 	tsteq	r0, r2, ror #18
   c:	00000020 	andeq	r0, r0, r0, lsr #32
  10:	4b5a3605 	blmi	168d82c <__bss_end__+0x1683704>
  14:	08070600 	stmdaeq	r7, {r9, sl}
  18:	12010901 	andne	r0, r1, #16384	; 0x4000
  1c:	15011404 	strne	r1, [r1, #-1028]	; 0xfffffbfc
  20:	18031701 	stmdane	r3, {r0, r8, r9, sl, ip}
  24:	22011a01 	andcs	r1, r1, #4096	; 0x1000
  28:	Address 0x0000000000000028 is out of bounds.


Disassembly of section .comment:

00000000 <.comment>:
   0:	3a434347 	bcc	10d0d24 <__bss_end__+0x10c6bfc>
   4:	4e472820 	cdpmi	8, 4, cr2, cr7, cr0, {1}
   8:	6f542055 	svcvs	0x00542055
   c:	20736c6f 	rsbscs	r6, r3, pc, ror #24
  10:	20726f66 	rsbscs	r6, r2, r6, ror #30
  14:	206d7241 	rsbcs	r7, sp, r1, asr #4
  18:	65626d45 	strbvs	r6, [r2, #-3397]!	; 0xfffff2bb
  1c:	64656464 	strbtvs	r6, [r5], #-1124	; 0xfffffb9c
  20:	6f725020 	svcvs	0x00725020
  24:	73736563 	cmnvc	r3, #415236096	; 0x18c00000
  28:	2073726f 	rsbscs	r7, r3, pc, ror #4
  2c:	30322d39 	eorscc	r2, r2, r9, lsr sp
  30:	712d3931 			; <UNDEFINED> instruction: 0x712d3931
  34:	616d2d34 	cmnvs	sp, r4, lsr sp
  38:	29726f6a 	ldmdbcs	r2!, {r1, r3, r5, r6, r8, r9, sl, fp, sp, lr}^
  3c:	322e3920 	eorcc	r3, lr, #32, 18	; 0x80000
  40:	3220312e 	eorcc	r3, r0, #-2147483637	; 0x8000000b
  44:	31393130 	teqcc	r9, r0, lsr r1
  48:	20353230 	eorscs	r3, r5, r0, lsr r2
  4c:	6c657228 	sfmvs	f7, 2, [r5], #-160	; 0xffffff60
  50:	65736165 	ldrbvs	r6, [r3, #-357]!	; 0xfffffe9b
  54:	415b2029 	cmpmi	fp, r9, lsr #32
  58:	612f4d52 			; <UNDEFINED> instruction: 0x612f4d52
  5c:	392d6d72 	pushcc	{r1, r4, r5, r6, r8, sl, fp, sp, lr}
  60:	6172622d 	cmnvs	r2, sp, lsr #4
  64:	2068636e 	rsbcs	r6, r8, lr, ror #6
  68:	69766572 	ldmdbvs	r6!, {r1, r4, r5, r6, r8, sl, sp, lr}^
  6c:	6e6f6973 			; <UNDEFINED> instruction: 0x6e6f6973
  70:	37373220 	ldrcc	r3, [r7, -r0, lsr #4]!
  74:	5d393935 			; <UNDEFINED> instruction: 0x5d393935
  78:	43434700 	movtmi	r4, #14080	; 0x3700
  7c:	4728203a 			; <UNDEFINED> instruction: 0x4728203a
  80:	4120554e 			; <UNDEFINED> instruction: 0x4120554e
  84:	45206d72 	strmi	r6, [r0, #-3442]!	; 0xfffff28e
  88:	6465626d 	strbtvs	r6, [r5], #-621	; 0xfffffd93
  8c:	20646564 	rsbcs	r6, r4, r4, ror #10
  90:	6c6f6f54 	stclvs	15, cr6, [pc], #-336	; ffffff48 <__bss_end__+0xffff5e20>
  94:	69616863 	stmdbvs	r1!, {r0, r1, r5, r6, fp, sp, lr}^
  98:	3031206e 	eorscc	r2, r1, lr, rrx
  9c:	322d332e 	eorcc	r3, sp, #-1207959552	; 0xb8000000
  a0:	2e313230 	mrccs	2, 1, r3, cr1, cr0, {1}
  a4:	20293031 	eorcs	r3, r9, r1, lsr r0
  a8:	332e3031 			; <UNDEFINED> instruction: 0x332e3031
  ac:	3220312e 	eorcc	r3, r0, #-2147483637	; 0x8000000b
  b0:	30313230 	eorscc	r3, r1, r0, lsr r2
  b4:	20343238 	eorscs	r3, r4, r8, lsr r2
  b8:	6c657228 	sfmvs	f7, 2, [r5], #-160	; 0xffffff60
  bc:	65736165 	ldrbvs	r6, [r3, #-357]!	; 0xfffffe9b
  c0:	Address 0x00000000000000c0 is out of bounds.


Disassembly of section .debug_info:

00000000 <.debug_info>:
       0:	000002d0 	ldrdeq	r0, [r0], -r0	; <UNPREDICTABLE>
       4:	00000004 	andeq	r0, r0, r4
       8:	01040000 	mrseq	r0, (UNDEF: 4)
       c:	000000dc 	ldrdeq	r0, [r0], -ip
      10:	0000870c 	andeq	r8, r0, ip, lsl #14
      14:	00002300 	andeq	r2, r0, r0, lsl #6
      18:	00803800 	addeq	r3, r0, r0, lsl #16
      1c:	0000fc00 	andeq	pc, r0, r0, lsl #24
      20:	00000000 	andeq	r0, r0, r0
      24:	05040200 	streq	r0, [r4, #-512]	; 0xfffffe00
      28:	00746e69 	rsbseq	r6, r4, r9, ror #28
      2c:	a1070403 	tstge	r7, r3, lsl #8
      30:	03000000 	movweq	r0, #0
      34:	000a0601 	andeq	r0, sl, r1, lsl #12
      38:	02030000 	andeq	r0, r3, #0, 0
      3c:	0000c805 	andeq	ip, r0, r5, lsl #16
      40:	05040300 	streq	r0, [r4, #-768]	; 0xfffffd00
      44:	000000b3 	strheq	r0, [r0], -r3
      48:	ae050803 	cdpge	8, 0, cr0, cr5, cr3, {0}
      4c:	03000000 	movweq	r0, #0
      50:	00080801 	andeq	r0, r8, r1, lsl #16
      54:	02030000 	andeq	r0, r3, #0, 0
      58:	00005907 	andeq	r5, r0, r7, lsl #18
      5c:	07040300 	streq	r0, [r4, -r0, lsl #6]
      60:	0000009c 	muleq	r0, ip, r0
      64:	97070803 	strls	r0, [r7, -r3, lsl #16]
      68:	04000000 	streq	r0, [r0], #-0
      6c:	00000025 	andeq	r0, r0, r5, lsr #32
      70:	0000007a 	andeq	r0, r0, sl, ror r0
      74:	00002505 	andeq	r2, r0, r5, lsl #10
      78:	bc060000 	stclt	0, cr0, [r6], {-0}
      7c:	02000000 	andeq	r0, r0, #0, 0
      80:	00860e1c 	addeq	r0, r6, ip, lsl lr
      84:	04070000 	streq	r0, [r7], #-0
      88:	0000006b 	andeq	r0, r0, fp, rrx
      8c:	00002504 	andeq	r2, r0, r4, lsl #10
      90:	00009b00 	andeq	r9, r0, r0, lsl #22
      94:	009b0500 	addseq	r0, fp, r0, lsl #10
      98:	07000000 	streq	r0, [r0, -r0]
      9c:	0000a804 	andeq	sl, r0, r4, lsl #16
      a0:	08010300 	stmdaeq	r1, {r8, r9}
      a4:	00000011 	andeq	r0, r0, r1, lsl r0
      a8:	0000a108 	andeq	sl, r0, r8, lsl #2
      ac:	03200600 	nopeq	{0}	; <UNPREDICTABLE>
      b0:	21020000 	mrscs	r0, (UNDEF: 2)
      b4:	0000b90e 	andeq	fp, r0, lr, lsl #18
      b8:	8c040700 	stchi	7, cr0, [r4], {-0}
      bc:	03000000 	movweq	r0, #0
      c0:	006c0408 	rsbeq	r0, ip, r8, lsl #8
      c4:	00090000 	andeq	r0, r9, r0
      c8:	01000000 	mrseq	r0, (UNDEF: 0)
      cc:	80380615 	eorshi	r0, r8, r5, lsl r6
      d0:	00fc0000 	rscseq	r0, ip, r0
      d4:	9c010000 	stcls	0, cr0, [r1], {-0}
      d8:	00000294 	muleq	r0, r4, r2
      dc:	0030700a 	eorseq	r7, r0, sl
      e0:	940b1901 	strls	r1, [fp], #-2305	; 0xfffff6ff
      e4:	06000002 	streq	r0, [r0], -r2
      e8:	00000000 	andeq	r0, r0, r0
      ec:	0b000000 	bleq	f4 <__code_start__-0x7f0c>
      f0:	1a01006e 	bne	402b0 <__bss_end__+0x36188>
      f4:	00002c0e 	andeq	r2, r0, lr, lsl #24
      f8:	800c1000 	andhi	r1, ip, r0
      fc:	01000000 	mrseq	r0, (UNDEF: 0)
     100:	0025091d 	eoreq	r0, r5, sp, lsl r9
     104:	0d0a0000 	stceq	0, cr0, [sl, #-0]
     108:	00000073 	andeq	r0, r0, r3, ror r0
     10c:	000002aa 	andeq	r0, r0, sl, lsr #5
     110:	99840305 	stmibls	r4, {r0, r2, r8, r9}
     114:	580e0000 	stmdapl	lr, {}	; <UNPREDICTABLE>
     118:	9c000080 	stcls	0, cr0, [r0], {128}	; 0x80
     11c:	34000000 	strcc	r0, [r0], #-0
     120:	0a000002 	beq	130 <__code_start__-0x7ed0>
     124:	20010069 	andcs	r0, r1, r9, rrx
     128:	0000250d 	andeq	r2, r0, sp, lsl #10
     12c:	00003300 	andeq	r3, r0, r0, lsl #6
     130:	00002f00 	andeq	r2, r0, r0, lsl #30
     134:	00000f00 	andeq	r0, r0, r0, lsl #30
     138:	700a0000 	andvc	r0, sl, r0
     13c:	21010031 	tstcs	r1, r1, lsr r0
     140:	0002940f 	andeq	r9, r2, pc, lsl #8
     144:	00005800 	andeq	r5, r0, r0, lsl #16
     148:	00005200 	andeq	r5, r0, r0, lsl #4
     14c:	806c1000 	rsbhi	r1, ip, r0
     150:	02af0000 	adceq	r0, pc, #0, 0
     154:	01600000 	cmneq	r0, r0
     158:	01110000 	tsteq	r1, r0
     15c:	00310150 	eorseq	r0, r1, r0, asr r1
     160:	00807c10 	addeq	r7, r0, r0, lsl ip
     164:	0002bb00 	andeq	fp, r2, r0, lsl #22
     168:	00017d00 	andeq	r7, r1, r0, lsl #26
     16c:	50011100 	andpl	r1, r1, r0, lsl #2
     170:	98c00305 	stmials	r0, {r0, r2, r8, r9}^
     174:	01110000 	tsteq	r1, r0
     178:	00740251 	rsbseq	r0, r4, r1, asr r2
     17c:	809c1000 	addshi	r1, ip, r0
     180:	02bb0000 	adcseq	r0, fp, #0, 0
     184:	019a0000 	orrseq	r0, sl, r0
     188:	01110000 	tsteq	r1, r0
     18c:	38030550 	stmdacc	r3, {r4, r6, r8, sl}
     190:	11000099 	swpne	r0, r9, [r0]	; <UNPREDICTABLE>
     194:	75025101 	strvc	r5, [r2, #-257]	; 0xfffffeff
     198:	c0100000 	andsgt	r0, r0, r0
     19c:	bb000080 	bllt	3a4 <__code_start__-0x7c5c>
     1a0:	d3000002 	movwle	r0, #2
     1a4:	11000001 	tstne	r0, r1
     1a8:	03055001 	movweq	r5, #20481	; 0x5001
     1ac:	000098e0 	andeq	r9, r0, r0, ror #17
     1b0:	05510111 	ldrbeq	r0, [r1, #-273]	; 0xfffffeef
     1b4:	0098d003 	addseq	sp, r8, r3
     1b8:	52011100 	andpl	r1, r1, #0
     1bc:	99840305 	stmibls	r4, {r0, r2, r8, r9}
     1c0:	01110000 	tsteq	r1, r0
     1c4:	24080253 	strcs	r0, [r8], #-595	; 0xfffffdad
     1c8:	007d0211 	rsbseq	r0, sp, r1, lsl r2
     1cc:	98f40305 	ldmls	r4!, {r0, r2, r8, r9}^
     1d0:	12000000 	andne	r0, r0, #0, 0
     1d4:	000080c4 	andeq	r8, r0, r4, asr #1
     1d8:	000002c7 	andeq	r0, r0, r7, asr #5
     1dc:	0080f010 	addeq	pc, r0, r0, lsl r0	; <UNPREDICTABLE>
     1e0:	0002bb00 	andeq	fp, r2, r0, lsl #22
     1e4:	00022900 	andeq	r2, r2, r0, lsl #18
     1e8:	50011100 	andpl	r1, r1, r0, lsl #2
     1ec:	98fc0305 	ldmls	ip!, {r0, r2, r8, r9}^
     1f0:	01110000 	tsteq	r1, r0
     1f4:	d0030551 	andle	r0, r3, r1, asr r5
     1f8:	11000098 	swpne	r0, r8, [r0]	; <UNPREDICTABLE>
     1fc:	03055201 	movweq	r5, #20993	; 0x5201
     200:	00009984 	andeq	r9, r0, r4, lsl #19
     204:	02530111 	subseq	r0, r3, #1073741828	; 0x40000004
     208:	02112608 	andseq	r2, r1, #8, 12	; 0x800000
     20c:	7602007d 			; <UNDEFINED> instruction: 0x7602007d
     210:	7d021100 	stfvcs	f1, [r2, #-0]
     214:	00740204 	rsbseq	r0, r4, r4, lsl #4
     218:	087d0211 	ldmdaeq	sp!, {r0, r4, r9}^
     21c:	02114001 	andseq	r4, r1, #1, 0
     220:	74050c7d 	strvc	r0, [r5], #-3197	; 0xfffff383
     224:	1c007600 	stcne	6, cr7, [r0], {-0}
     228:	80f41200 	rscshi	r1, r4, r0, lsl #4
     22c:	02c70000 	sbceq	r0, r7, #0, 0
     230:	00000000 	andeq	r0, r0, r0
     234:	00804810 	addeq	r4, r0, r0, lsl r8
     238:	0002af00 	andeq	sl, r2, r0, lsl #30
     23c:	00024700 	andeq	r4, r2, r0, lsl #14
     240:	50011100 	andpl	r1, r1, r0, lsl #2
     244:	10003101 	andne	r3, r0, r1, lsl #2
     248:	00008058 	andeq	r8, r0, r8, asr r0
     24c:	000002bb 			; <UNDEFINED> instruction: 0x000002bb
     250:	00000264 	andeq	r0, r0, r4, ror #4
     254:	05500111 	ldrbeq	r0, [r0, #-273]	; 0xfffffeef
     258:	0098c003 	addseq	ip, r8, r3
     25c:	51011100 	mrspl	r1, (UNDEF: 17)
     260:	00007602 	andeq	r7, r0, r2, lsl #12
     264:	0080fc10 	addeq	pc, r0, r0, lsl ip	; <UNPREDICTABLE>
     268:	0002bb00 	andeq	fp, r2, r0, lsl #22
     26c:	00027b00 	andeq	r7, r2, r0, lsl #22
     270:	50011100 	andpl	r1, r1, r0, lsl #2
     274:	99480305 	stmdbls	r8, {r0, r2, r8, r9}^
     278:	13000000 	movwne	r0, #0
     27c:	00008108 	andeq	r8, r0, r8, lsl #2
     280:	000002bb 			; <UNDEFINED> instruction: 0x000002bb
     284:	05500111 	ldrbeq	r0, [r0, #-273]	; 0xfffffeef
     288:	00995003 	addseq	r5, r9, r3
     28c:	51011100 	mrspl	r1, (UNDEF: 17)
     290:	00003a01 	andeq	r3, r0, r1, lsl #20
     294:	00a10407 	adceq	r0, r1, r7, lsl #8
     298:	a8140000 	ldmdage	r4, {}	; <UNPREDICTABLE>
     29c:	aa000000 	bge	2a4 <__code_start__-0x7d5c>
     2a0:	15000002 	strne	r0, [r0, #-2]
     2a4:	0000002c 	andeq	r0, r0, ip, lsr #32
     2a8:	9a080007 	bls	2002cc <__bss_end__+0x1f61a4>
     2ac:	16000002 	strne	r0, [r0], -r2
     2b0:	000000d2 	ldrdeq	r0, [r0], -r2
     2b4:	000000d2 	ldrdeq	r0, [r0], -r2
     2b8:	16071e03 	strne	r1, [r7], -r3, lsl #28
     2bc:	00000208 	andeq	r0, r0, r8, lsl #4
     2c0:	00000208 	andeq	r0, r0, r8, lsl #4
     2c4:	16062802 	strne	r2, [r6], -r2, lsl #16
     2c8:	00000016 	andeq	r0, r0, r6, lsl r0
     2cc:	00000016 	andeq	r0, r0, r6, lsl r0
     2d0:	00066e02 	andeq	r6, r6, r2, lsl #28
     2d4:	000002c2 	andeq	r0, r0, r2, asr #5
     2d8:	01240004 			; <UNDEFINED> instruction: 0x01240004
     2dc:	01040000 	mrseq	r0, (UNDEF: 4)
     2e0:	000000dc 	ldrdeq	r0, [r0], -ip
     2e4:	0001b90c 	andeq	fp, r1, ip, lsl #18
     2e8:	00002300 	andeq	r2, r0, r0, lsl #6
     2ec:	00813400 	addeq	r3, r1, r0, lsl #8
     2f0:	0001ac00 	andeq	sl, r1, r0, lsl #24
     2f4:	00012300 	andeq	r2, r1, r0, lsl #6
     2f8:	05040200 	streq	r0, [r4, #-512]	; 0xfffffe00
     2fc:	00746e69 	rsbseq	r6, r4, r9, ror #28
     300:	a1070403 	tstge	r7, r3, lsl #8
     304:	03000000 	movweq	r0, #0
     308:	000a0601 	andeq	r0, sl, r1, lsl #12
     30c:	02030000 	andeq	r0, r3, #0, 0
     310:	0000c805 	andeq	ip, r0, r5, lsl #16
     314:	05040300 	streq	r0, [r4, #-768]	; 0xfffffd00
     318:	000000b3 	strheq	r0, [r0], -r3
     31c:	ae050803 	cdpge	8, 0, cr0, cr5, cr3, {0}
     320:	03000000 	movweq	r0, #0
     324:	00080801 	andeq	r0, r8, r1, lsl #16
     328:	02030000 	andeq	r0, r3, #0, 0
     32c:	00005907 	andeq	r5, r0, r7, lsl #18
     330:	07040300 	streq	r0, [r4, -r0, lsl #6]
     334:	0000009c 	muleq	r0, ip, r0
     338:	97070803 	strls	r0, [r7, -r3, lsl #16]
     33c:	04000000 	streq	r0, [r0], #-0
     340:	00000025 	andeq	r0, r0, r5, lsr #32
     344:	0000007a 	andeq	r0, r0, sl, ror r0
     348:	00002505 	andeq	r2, r0, r5, lsl #10
     34c:	bc060000 	stclt	0, cr0, [r6], {-0}
     350:	02000000 	andeq	r0, r0, #0, 0
     354:	00860e1c 	addeq	r0, r6, ip, lsl lr
     358:	04070000 	streq	r0, [r7], #-0
     35c:	0000006b 	andeq	r0, r0, fp, rrx
     360:	00002504 	andeq	r2, r0, r4, lsl #10
     364:	00009b00 	andeq	r9, r0, r0, lsl #22
     368:	009b0500 	addseq	r0, fp, r0, lsl #10
     36c:	07000000 	streq	r0, [r0, -r0]
     370:	0000a804 	andeq	sl, r0, r4, lsl #16
     374:	08010300 	stmdaeq	r1, {r8, r9}
     378:	00000011 	andeq	r0, r0, r1, lsl r0
     37c:	0000a108 	andeq	sl, r0, r8, lsl #2
     380:	03200600 	nopeq	{0}	; <UNPREDICTABLE>
     384:	21020000 	mrscs	r0, (UNDEF: 2)
     388:	0000b90e 	andeq	fp, r0, lr, lsl #18
     38c:	8c040700 	stchi	7, cr0, [r4], {-0}
     390:	09000000 	stmdbeq	r0, {}	; <UNPREDICTABLE>
     394:	0000019e 	muleq	r0, lr, r1
     398:	07050108 	streq	r0, [r5, -r8, lsl #2]
     39c:	000000ec 	andeq	r0, r0, ip, ror #1
     3a0:	0100640a 	tsteq	r0, sl, lsl #8
     3a4:	00ec0907 	rsceq	r0, ip, r7, lsl #18
     3a8:	700a0000 	andvc	r0, sl, r0
     3ac:	08080100 	stmdaeq	r8, {r8}
     3b0:	000000f3 	strdeq	r0, [r0], -r3
     3b4:	0070660a 	rsbseq	r6, r0, sl, lsl #12
     3b8:	f6090901 			; <UNDEFINED> instruction: 0xf6090901
     3bc:	00000000 	andeq	r0, r0, r0
     3c0:	6c040803 	stcvs	8, cr0, [r4], {3}
     3c4:	0b000000 	bleq	3cc <__code_start__-0x7c34>
     3c8:	04070c04 	streq	r0, [r7], #-3076	; 0xfffff3fc
     3cc:	000000f5 	strdeq	r0, [r0], -r5
     3d0:	0e01080d 	cdpeq	8, 0, cr0, cr1, cr13, {0}
     3d4:	00012002 	andeq	r2, r1, r2
     3d8:	74700e00 	ldrbtvc	r0, [r0], #-3584	; 0xfffff200
     3dc:	10010072 	andne	r0, r1, r2, ror r0
     3e0:	00014211 	andeq	r4, r1, r1, lsl r2
     3e4:	d80f0000 	stmdale	pc, {}	; <UNPREDICTABLE>
     3e8:	01000001 	tsteq	r0, r1
     3ec:	002c0c11 	eoreq	r0, ip, r1, lsl ip
     3f0:	00040000 	andeq	r0, r4, r0
     3f4:	00019109 	andeq	r9, r1, r9, lsl #2
     3f8:	0c010800 	stceq	8, cr0, [r1], {-0}
     3fc:	0001420f 	andeq	r4, r1, pc, lsl #4
     400:	00730a00 	rsbseq	r0, r3, r0, lsl #20
     404:	fc041201 	stc2	2, cr1, [r4], {1}
     408:	0a000000 	beq	410 <__code_start__-0x7bf0>
     40c:	13010078 	movwne	r0, #4216	; 0x1078
     410:	0000bf0e 	andeq	fp, r0, lr, lsl #30
     414:	04070000 	streq	r0, [r7], #-0
     418:	00000120 	andeq	r0, r0, r0, lsr #2
     41c:	0001dd10 	andeq	sp, r1, r0, lsl sp
     420:	03140100 	tsteq	r4, #0
     424:	00000120 	andeq	r0, r0, r0, lsr #2
     428:	0001c511 	andeq	ip, r1, r1, lsl r5
     42c:	0f180100 	svceq	0x00180100
     430:	00000148 	andeq	r0, r0, r8, asr #2
     434:	9d180305 	ldcls	3, cr0, [r8, #-20]	; 0xffffffec
     438:	ac110000 	ldcge	0, cr0, [r1], {-0}
     43c:	01000001 	tsteq	r0, r1
     440:	01781019 	cmneq	r8, r9, lsl r0
     444:	03050000 	movweq	r0, #20480	; 0x5000
     448:	00009d10 	andeq	r9, r0, r0, lsl sp
     44c:	01480407 	cmpeq	r8, r7, lsl #8
     450:	a4120000 	ldrge	r0, [r2], #-0
     454:	01000001 	tsteq	r0, r1
     458:	81340652 	teqhi	r4, r2, asr r6
     45c:	00bc0000 	adcseq	r0, ip, r0
     460:	9c010000 	stcls	0, cr0, [r1], {-0}
     464:	000001c7 	andeq	r0, r0, r7, asr #3
     468:	00706113 	rsbseq	r6, r0, r3, lsl r1
     46c:	f3145201 	vhsub.u16	d5, d4, d1
     470:	01000000 	mrseq	r0, (UNDEF: 0)
     474:	70621450 	rsbvc	r1, r2, r0, asr r4
     478:	0a540100 	beq	1500880 <__bss_end__+0x14f6758>
     47c:	00000178 	andeq	r0, r0, r8, ror r1
     480:	00000089 	andeq	r0, r0, r9, lsl #1
     484:	00000081 	andeq	r0, r0, r1, lsl #1
     488:	01007014 	tsteq	r0, r4, lsl r0
     48c:	01780f54 	cmneq	r8, r4, asr pc
     490:	00c50000 	sbceq	r0, r5, r0
     494:	00c10000 	sbceq	r0, r1, r0
     498:	15000000 	strne	r0, [r0, #-0]
     49c:	000000d2 	ldrdeq	r0, [r0], -r2
     4a0:	f3072a01 	vpmax.u8	d2, d7, d1
     4a4:	34000000 	strcc	r0, [r0], #-0
     4a8:	ac000082 	stcge	0, cr0, [r0], {130}	; 0x82
     4ac:	01000000 	mrseq	r0, (UNDEF: 0)
     4b0:	0002409c 	muleq	r2, ip, r0
     4b4:	07d61600 	ldrbeq	r1, [r6, r0, lsl #12]
     4b8:	2a010000 	bcs	404c0 <__bss_end__+0x36398>
     4bc:	00002c1a 	andeq	r2, r0, sl, lsl ip
     4c0:	0000eb00 	andeq	lr, r0, r0, lsl #22
     4c4:	0000e300 	andeq	lr, r0, r0, lsl #6
     4c8:	00701400 	rsbseq	r1, r0, r0, lsl #8
     4cc:	780a2c01 	stmdavc	sl, {r0, sl, fp, sp}
     4d0:	33000001 	movwcc	r0, #1
     4d4:	25000001 	strcs	r0, [r0, #-1]
     4d8:	17000001 	strne	r0, [r0, -r1]
     4dc:	00000198 	muleq	r0, r8, r1
     4e0:	780e2c01 	stmdavc	lr, {r0, sl, fp, sp}
     4e4:	95000001 	strls	r0, [r0, #-1]
     4e8:	8b000001 	blhi	4f4 <__code_start__-0x7b0c>
     4ec:	17000001 	strne	r0, [r0, -r1]
     4f0:	000001b2 			; <UNDEFINED> instruction: 0x000001b2
     4f4:	2c0b2d01 	stccs	13, cr2, [fp], {1}
     4f8:	db000000 	blle	500 <__code_start__-0x7b00>
     4fc:	d9000001 	stmdble	r0, {r0}
     500:	18000001 	stmdane	r0, {r0}
     504:	000082d0 	ldrdeq	r8, [r0], -r0
     508:	00000240 	andeq	r0, r0, r0, asr #4
     50c:	02500119 	subseq	r0, r0, #1073741830	; 0x40000006
     510:	00000074 	andeq	r0, r0, r4, ror r0
     514:	0001cf1a 	andeq	ip, r1, sl, lsl pc
     518:	101c0100 	andsne	r0, ip, r0, lsl #2
     51c:	00000178 	andeq	r0, r0, r8, ror r1
     520:	000081f0 	strdeq	r8, [r0], -r0
     524:	00000044 	andeq	r0, r0, r4, asr #32
     528:	02b39c01 	adcseq	r9, r3, #256	; 0x100
     52c:	6e1b0000 	cdpvs	0, 1, cr0, cr11, cr0, {0}
     530:	1c010075 	stcne	0, cr0, [r1], {117}	; 0x75
     534:	00002c22 	andeq	r2, r0, r2, lsr #24
     538:	0001f200 	andeq	pc, r1, r0, lsl #4
     53c:	0001ee00 	andeq	lr, r1, r0, lsl #28
     540:	70631400 	rsbvc	r1, r3, r0, lsl #8
     544:	08200100 	stmdaeq	r0!, {r8}
     548:	000002b3 			; <UNDEFINED> instruction: 0x000002b3
     54c:	00000216 	andeq	r0, r0, r6, lsl r2
     550:	00000210 	andeq	r0, r0, r0, lsl r2
     554:	00707514 	rsbseq	r7, r0, r4, lsl r5
     558:	780a2301 	stmdavc	sl, {r0, r8, r9, sp}
     55c:	45000001 	strmi	r0, [r0, #-1]
     560:	41000002 	tstmi	r0, r2
     564:	1c000002 	stcne	0, cr0, [r0], {2}
     568:	00008208 	andeq	r8, r0, r8, lsl #4
     56c:	000002b9 			; <UNDEFINED> instruction: 0x000002b9
     570:	000002a9 	andeq	r0, r0, r9, lsr #5
     574:	04500119 	ldrbeq	r0, [r0], #-281	; 0xfffffee7
     578:	24330074 	ldrtcs	r0, [r3], #-116	; 0xffffff8c
     57c:	821c1d00 	andshi	r1, ip, #0, 26
     580:	017e0000 	cmneq	lr, r0
     584:	07000000 	streq	r0, [r0, -r0]
     588:	0000a104 	andeq	sl, r0, r4, lsl #2
     58c:	01ca1e00 	biceq	r1, sl, r0, lsl #28
     590:	01ca0000 	biceq	r0, sl, r0
     594:	1a030000 	bne	c059c <__bss_end__+0xb6474>
     598:	010a000b 	tsteq	sl, fp
     59c:	00040000 	andeq	r0, r4, r0
     5a0:	000002fb 	strdeq	r0, [r0], -fp
     5a4:	00dc0104 	sbcseq	r0, ip, r4, lsl #2
     5a8:	f60c0000 			; <UNDEFINED> instruction: 0xf60c0000
     5ac:	23000001 	movwcs	r0, #1
     5b0:	e0000000 	and	r0, r0, r0
     5b4:	0c000082 	stceq	0, cr0, [r0], {130}	; 0x82
     5b8:	4e000000 	cdpmi	0, 0, cr0, cr0, cr0, {0}
     5bc:	02000003 	andeq	r0, r0, #3, 0
     5c0:	6e690504 	cdpvs	5, 6, cr0, cr9, cr4, {0}
     5c4:	04030074 	streq	r0, [r3], #-116	; 0xffffff8c
     5c8:	0000a107 	andeq	sl, r0, r7, lsl #2
     5cc:	06010300 	streq	r0, [r1], -r0, lsl #6
     5d0:	0000000a 	andeq	r0, r0, sl
     5d4:	c8050203 	stmdagt	r5, {r0, r1, r9}
     5d8:	03000000 	movweq	r0, #0
     5dc:	00b30504 	adcseq	r0, r3, r4, lsl #10
     5e0:	08030000 	stmdaeq	r3, {}	; <UNPREDICTABLE>
     5e4:	0000ae05 	andeq	sl, r0, r5, lsl #28
     5e8:	08010300 	stmdaeq	r1, {r8, r9}
     5ec:	00000008 	andeq	r0, r0, r8
     5f0:	59070203 	stmdbpl	r7, {r0, r1, r9}
     5f4:	03000000 	movweq	r0, #0
     5f8:	009c0704 	addseq	r0, ip, r4, lsl #14
     5fc:	08030000 	stmdaeq	r3, {}	; <UNPREDICTABLE>
     600:	00009707 	andeq	r9, r0, r7, lsl #14
     604:	00250400 	eoreq	r0, r5, r0, lsl #8
     608:	007a0000 	rsbseq	r0, sl, r0
     60c:	25050000 	strcs	r0, [r5, #-0]
     610:	00000000 	andeq	r0, r0, r0
     614:	0000bc06 	andeq	fp, r0, r6, lsl #24
     618:	0e1c0200 	cdpeq	2, 1, cr0, cr12, cr0, {0}
     61c:	00000086 	andeq	r0, r0, r6, lsl #1
     620:	006b0407 	rsbeq	r0, fp, r7, lsl #8
     624:	25040000 	strcs	r0, [r4, #-0]
     628:	9b000000 	blls	630 <__code_start__-0x79d0>
     62c:	05000000 	streq	r0, [r0, #-0]
     630:	0000009b 	muleq	r0, fp, r0
     634:	a8040700 	stmdage	r4, {r8, r9, sl}
     638:	03000000 	movweq	r0, #0
     63c:	00110801 	andseq	r0, r1, r1, lsl #16
     640:	a1080000 	mrsge	r0, (UNDEF: 8)
     644:	06000000 	streq	r0, [r0], -r0
     648:	00000320 	andeq	r0, r0, r0, lsr #6
     64c:	b90e2102 	stmdblt	lr, {r1, r8, sp}
     650:	07000000 	streq	r0, [r0, -r0]
     654:	00008c04 	andeq	r8, r0, r4, lsl #24
     658:	01ca0900 	biceq	r0, sl, r0, lsl #18
     65c:	04010000 	streq	r0, [r1], #-0
     660:	0000ff07 	andeq	pc, r0, r7, lsl #30
     664:	0082e000 	addeq	lr, r2, r0
     668:	00000c00 	andeq	r0, r0, r0, lsl #24
     66c:	ff9c0100 			; <UNDEFINED> instruction: 0xff9c0100
     670:	0a000000 	beq	678 <__code_start__-0x7988>
     674:	000001e4 	andeq	r0, r0, r4, ror #3
     678:	41110401 	tstmi	r1, r1, lsl #8
     67c:	69000000 	stmdbvs	r0, {}	; <UNPREDICTABLE>
     680:	65000002 	strvs	r0, [r0, #-2]
     684:	0b000002 	bleq	694 <__code_start__-0x796c>
     688:	000082e8 	andeq	r8, r0, r8, ror #5
     68c:	00000101 	andeq	r0, r0, r1, lsl #2
     690:	0350010c 	cmpeq	r0, #3
     694:	005001f3 	ldrsheq	r0, [r0], #-19	; 0xffffffed
     698:	0e040d00 	cdpeq	13, 0, cr0, cr4, cr0, {0}
     69c:	000001ee 	andeq	r0, r0, lr, ror #3
     6a0:	000001ee 	andeq	r0, r0, lr, ror #3
     6a4:	00077b02 	andeq	r7, r7, r2, lsl #22
     6a8:	0000019d 	muleq	r0, sp, r1
     6ac:	03bd0004 			; <UNDEFINED> instruction: 0x03bd0004
     6b0:	01040000 	mrseq	r0, (UNDEF: 4)
     6b4:	0000021e 	andeq	r0, r0, lr, lsl r2
     6b8:	0002db0c 	andeq	sp, r2, ip, lsl #22
     6bc:	0002f500 	andeq	pc, r2, r0, lsl #10
     6c0:	0082ec00 	addeq	lr, r2, r0, lsl #24
     6c4:	00005800 	andeq	r5, r0, r0, lsl #16
     6c8:	0003c700 	andeq	ip, r3, r0, lsl #14
     6cc:	020f0200 	andeq	r0, pc, #0, 4
     6d0:	28020000 	stmdacs	r2, {}	; <UNPREDICTABLE>
     6d4:	0000311b 	andeq	r3, r0, fp, lsl r1
     6d8:	02eb0300 	rsceq	r0, fp, #0, 6
     6dc:	04040000 	streq	r0, [r4], #-0
     6e0:	00004800 	andeq	r4, r0, r0, lsl #16
     6e4:	02d60400 	sbcseq	r0, r6, #0, 8
     6e8:	00480000 	subeq	r0, r8, r0
     6ec:	00000000 	andeq	r0, r0, r0
     6f0:	ed020405 	cfstrs	mvf0, [r2, #-20]	; 0xffffffec
     6f4:	02000002 	andeq	r0, r0, #2, 0
     6f8:	00251863 	eoreq	r1, r5, r3, ror #16
     6fc:	04060000 	streq	r0, [r6], #-0
     700:	746e6905 	strbtvc	r6, [lr], #-2309	; 0xfffff6fb
     704:	07040700 	streq	r0, [r4, -r0, lsl #14]
     708:	000000a1 	andeq	r0, r0, r1, lsr #1
     70c:	0a060107 	beq	180b30 <__bss_end__+0x176a08>
     710:	07000000 	streq	r0, [r0, -r0]
     714:	00c80502 	sbceq	r0, r8, r2, lsl #10
     718:	04070000 	streq	r0, [r7], #-0
     71c:	0000b305 	andeq	fp, r0, r5, lsl #6
     720:	05080700 	streq	r0, [r8, #-1792]	; 0xfffff900
     724:	000000ae 	andeq	r0, r0, lr, lsr #1
     728:	08080107 	stmdaeq	r8, {r0, r1, r2, r8}
     72c:	07000000 	streq	r0, [r0, -r0]
     730:	00590702 	subseq	r0, r9, r2, lsl #14
     734:	04070000 	streq	r0, [r7], #-0
     738:	00009c07 	andeq	r9, r0, r7, lsl #24
     73c:	07080700 	streq	r0, [r8, -r0, lsl #14]
     740:	00000097 	muleq	r0, r7, r0
     744:	00005608 	andeq	r5, r0, r8, lsl #12
     748:	0000ab00 	andeq	sl, r0, r0, lsl #22
     74c:	00560900 	subseq	r0, r6, r0, lsl #18
     750:	0a000000 	beq	758 <__code_start__-0x78a8>
     754:	000000bc 	strheq	r0, [r0], -ip
     758:	b70e1c03 	strlt	r1, [lr, -r3, lsl #24]
     75c:	0b000000 	bleq	764 <__code_start__-0x789c>
     760:	00009c04 	andeq	r9, r0, r4, lsl #24
     764:	00560800 	subseq	r0, r6, r0, lsl #16
     768:	00cc0000 	sbceq	r0, ip, r0
     76c:	cc090000 	stcgt	0, cr0, [r9], {-0}
     770:	00000000 	andeq	r0, r0, r0
     774:	00d9040b 	sbcseq	r0, r9, fp, lsl #8
     778:	01070000 	mrseq	r0, (UNDEF: 7)
     77c:	00001108 	andeq	r1, r0, r8, lsl #2
     780:	00d20c00 	sbcseq	r0, r2, r0, lsl #24
     784:	200a0000 	andcs	r0, sl, r0
     788:	03000003 	movweq	r0, #3
     78c:	00ea0e21 	rsceq	r0, sl, r1, lsr #28
     790:	040b0000 	streq	r0, [fp], #-0
     794:	000000bd 	strheq	r0, [r0], -sp
     798:	0002080d 	andeq	r0, r2, sp, lsl #16
     79c:	05060100 	streq	r0, [r6, #-256]	; 0xffffff00
     7a0:	00000056 	andeq	r0, r0, r6, asr r0
     7a4:	000082ec 	andeq	r8, r0, ip, ror #5
     7a8:	00000058 	andeq	r0, r0, r8, asr r0
     7ac:	01839c01 	orreq	r9, r3, r1, lsl #24
     7b0:	660e0000 	strvs	r0, [lr], -r0
     7b4:	0100746d 	tsteq	r0, sp, ror #8
     7b8:	00cc1806 	sbceq	r1, ip, r6, lsl #16
     7bc:	91020000 	mrsls	r0, (UNDEF: 2)
     7c0:	62100f70 	andsvs	r0, r0, #112, 30	; 0x1c0
     7c4:	01006675 	tsteq	r0, r5, ror r6
     7c8:	01831108 	orreq	r1, r3, r8, lsl #2
     7cc:	03050000 	movweq	r0, #20480	; 0x5000
     7d0:	00009d20 	andeq	r9, r0, r0, lsr #26
     7d4:	00020011 	andeq	r0, r2, r1, lsl r0
     7d8:	0d090100 	stfeqs	f0, [r9, #-0]
     7dc:	0000004a 	andeq	r0, r0, sl, asr #32
     7e0:	125c9102 	subsne	r9, ip, #-2147483648	; 0x80000000
     7e4:	01007a73 	tsteq	r0, r3, ror sl
     7e8:	00560d0c 	subseq	r0, r6, ip, lsl #26
     7ec:	02900000 	addseq	r0, r0, #0, 0
     7f0:	028a0000 	addeq	r0, sl, #0, 0
     7f4:	14130000 	ldrne	r0, [r3], #-0
     7f8:	94000083 	strls	r0, [r0], #-131	; 0xffffff7d
     7fc:	76000001 	strvc	r0, [r0], -r1
     800:	14000001 	strne	r0, [r0], #-1
     804:	75025001 	strvc	r5, [r2, #-1]
     808:	51011400 	tstpl	r1, r0, lsl #8
     80c:	04000a03 	streq	r0, [r0], #-2563	; 0xfffff5fd
     810:	03520114 	cmpeq	r2, #5
     814:	14064891 	strne	r4, [r6], #-2193	; 0xfffff76f
     818:	91025301 	tstls	r2, r1, lsl #6
     81c:	2815004c 	ldmdacs	r5, {r2, r3, r6}
     820:	14000083 	strne	r0, [r0], #-131	; 0xffffff7d
     824:	75025001 	strvc	r5, [r2, #-1]
     828:	16000000 	strne	r0, [r0], -r0
     82c:	000000d2 	ldrdeq	r0, [r0], -r2
     830:	00000194 	muleq	r0, r4, r1
     834:	00005d17 	andeq	r5, r0, r7, lsl sp
     838:	0003ff00 	andeq	pc, r3, r0, lsl #30
     83c:	00020518 	andeq	r0, r2, r8, lsl r5
     840:	00020500 	andeq	r0, r2, r0, lsl #10
     844:	05020500 	streq	r0, [r2, #-1280]	; 0xfffffb00
     848:	0000f300 	andeq	pc, r0, r0, lsl #6
     84c:	ff000400 			; <UNDEFINED> instruction: 0xff000400
     850:	04000004 	streq	r0, [r0], #-4
     854:	00021e01 	andeq	r1, r2, r1, lsl #28
     858:	03250c00 			; <UNDEFINED> instruction: 0x03250c00
     85c:	02f50000 	rscseq	r0, r5, #0, 0
     860:	83440000 	movthi	r0, #16384	; 0x4000
     864:	00380000 	eorseq	r0, r8, r0
     868:	04eb0000 	strbteq	r0, [fp], #0
     86c:	04020000 	streq	r0, [r2], #-0
     870:	746e6905 	strbtvc	r6, [lr], #-2309	; 0xfffff6fb
     874:	07040300 	streq	r0, [r4, -r0, lsl #6]
     878:	000000a1 	andeq	r0, r0, r1, lsr #1
     87c:	0a060103 	beq	180c90 <__bss_end__+0x176b68>
     880:	03000000 	movweq	r0, #0
     884:	00c80502 	sbceq	r0, r8, r2, lsl #10
     888:	04030000 	streq	r0, [r3], #-0
     88c:	0000b305 	andeq	fp, r0, r5, lsl #6
     890:	05080300 	streq	r0, [r8, #-768]	; 0xfffffd00
     894:	000000ae 	andeq	r0, r0, lr, lsr #1
     898:	08080103 	stmdaeq	r8, {r0, r1, r8}
     89c:	03000000 	movweq	r0, #0
     8a0:	00590702 	subseq	r0, r9, r2, lsl #14
     8a4:	04030000 	streq	r0, [r3], #-0
     8a8:	00009c07 	andeq	r9, r0, r7, lsl #24
     8ac:	07080300 	streq	r0, [r8, -r0, lsl #6]
     8b0:	00000097 	muleq	r0, r7, r0
     8b4:	00002504 	andeq	r2, r0, r4, lsl #10
     8b8:	00007a00 	andeq	r7, r0, r0, lsl #20
     8bc:	00250500 	eoreq	r0, r5, r0, lsl #10
     8c0:	06000000 	streq	r0, [r0], -r0
     8c4:	000000bc 	strheq	r0, [r0], -ip
     8c8:	860e1c02 	strhi	r1, [lr], -r2, lsl #24
     8cc:	07000000 	streq	r0, [r0, -r0]
     8d0:	00006b04 	andeq	r6, r0, r4, lsl #22
     8d4:	00250400 	eoreq	r0, r5, r0, lsl #8
     8d8:	009b0000 	addseq	r0, fp, r0
     8dc:	9b050000 	blls	1408e4 <__bss_end__+0x1367bc>
     8e0:	00000000 	andeq	r0, r0, r0
     8e4:	00a80407 	adceq	r0, r8, r7, lsl #8
     8e8:	01030000 	mrseq	r0, (UNDEF: 3)
     8ec:	00001108 	andeq	r1, r0, r8, lsl #2
     8f0:	00a10800 	adceq	r0, r1, r0, lsl #16
     8f4:	20060000 	andcs	r0, r6, r0
     8f8:	02000003 	andeq	r0, r0, #3, 0
     8fc:	00b90e21 	adcseq	r0, r9, r1, lsr #28
     900:	04070000 	streq	r0, [r7], #-0
     904:	0000008c 	andeq	r0, r0, ip, lsl #1
     908:	0000ad09 	andeq	sl, r0, r9, lsl #26
     90c:	070c0100 	streq	r0, [ip, -r0, lsl #2]
     910:	9cfc0305 	ldclls	3, cr0, [ip], #20
     914:	170a0000 	strne	r0, [sl, -r0]
     918:	01000003 	tsteq	r0, r3
     91c:	00250504 	eoreq	r0, r5, r4, lsl #10
     920:	83440000 	movthi	r0, #16384	; 0x4000
     924:	00380000 	eorseq	r0, r8, r0
     928:	9c010000 	stcls	0, cr0, [r1], {-0}
     92c:	0100700b 	tsteq	r0, fp
     930:	009b1f04 	addseq	r1, fp, r4, lsl #30
     934:	02c10000 	sbceq	r0, r1, #0, 0
     938:	02b90000 	adcseq	r0, r9, #0, 0
     93c:	00000000 	andeq	r0, r0, r0
     940:	00000c7f 	andeq	r0, r0, pc, ror ip
     944:	059d0004 	ldreq	r0, [sp, #4]
     948:	01040000 	mrseq	r0, (UNDEF: 4)
     94c:	0000021e 	andeq	r0, r0, lr, lsl r2
     950:	0003440c 	andeq	r4, r3, ip, lsl #8
     954:	0002f500 	andeq	pc, r2, r0, lsl #10
     958:	00837c00 	addeq	r7, r3, r0, lsl #24
     95c:	0009b400 	andeq	fp, r9, r0, lsl #8
     960:	00058f00 	andeq	r8, r5, r0, lsl #30
     964:	07080200 	streq	r0, [r8, -r0, lsl #4]
     968:	00000097 	muleq	r0, r7, r0
     96c:	a1070402 	tstge	r7, r2, lsl #8
     970:	03000000 	movweq	r0, #0
     974:	6e690504 	cdpvs	5, 6, cr0, cr9, cr4, {0}
     978:	01020074 	tsteq	r2, r4, ror r0
     97c:	00000a06 	andeq	r0, r0, r6, lsl #20
     980:	05020200 	streq	r0, [r2, #-512]	; 0xfffffe00
     984:	000000c8 	andeq	r0, r0, r8, asr #1
     988:	b3050402 	movwlt	r0, #21506	; 0x5402
     98c:	02000000 	andeq	r0, r0, #0, 0
     990:	00ae0508 	adceq	r0, lr, r8, lsl #10
     994:	01020000 	mrseq	r0, (UNDEF: 2)
     998:	00000808 	andeq	r0, r0, r8, lsl #16
     99c:	07020200 	streq	r0, [r2, -r0, lsl #4]
     9a0:	00000059 	andeq	r0, r0, r9, asr r0
     9a4:	0003aa04 	andeq	sl, r3, r4, lsl #20
     9a8:	19340200 	ldmdbne	r4!, {r9}
     9ac:	00000070 	andeq	r0, r0, r0, ror r0
     9b0:	9c070402 	cfstrsls	mvf0, [r7], {2}
     9b4:	04000000 	streq	r0, [r0], #-0
     9b8:	0000033b 	andeq	r0, r0, fp, lsr r3
     9bc:	25193702 	ldrcs	r3, [r9, #-1794]	; 0xfffff8fe
     9c0:	05000000 	streq	r0, [r0, #-0]
     9c4:	00000033 	andeq	r0, r0, r3, lsr r0
     9c8:	00000092 	muleq	r0, r2, r0
     9cc:	00003306 	andeq	r3, r0, r6, lsl #6
     9d0:	bc070000 	stclt	0, cr0, [r7], {-0}
     9d4:	03000000 	movweq	r0, #0
     9d8:	009e0e1c 	addseq	r0, lr, ip, lsl lr
     9dc:	04080000 	streq	r0, [r8], #-0
     9e0:	00000083 	andeq	r0, r0, r3, lsl #1
     9e4:	00003305 	andeq	r3, r0, r5, lsl #6
     9e8:	0000b300 	andeq	fp, r0, r0, lsl #6
     9ec:	00b30600 	adcseq	r0, r3, r0, lsl #12
     9f0:	08000000 	stmdaeq	r0, {}	; <UNPREDICTABLE>
     9f4:	0000c004 	andeq	ip, r0, r4
     9f8:	08010200 	stmdaeq	r1, {r9}
     9fc:	00000011 	andeq	r0, r0, r1, lsl r0
     a00:	0000b909 	andeq	fp, r0, r9, lsl #18
     a04:	03200700 	nopeq	{0}	; <UNPREDICTABLE>
     a08:	21030000 	mrscs	r0, (UNDEF: 3)
     a0c:	0000d10e 	andeq	sp, r0, lr, lsl #2
     a10:	a4040800 	strge	r0, [r4], #-2048	; 0xfffff800
     a14:	07000000 	streq	r0, [r0, -r0]
     a18:	00000357 	andeq	r0, r0, r7, asr r3
     a1c:	b90d0b04 	stmdblt	sp, {r2, r8, r9, fp}
     a20:	07000000 	streq	r0, [r0, -r0]
     a24:	000003e0 	andeq	r0, r0, r0, ror #7
     a28:	b90d0c04 	stmdblt	sp, {r2, sl, fp}
     a2c:	07000000 	streq	r0, [r0, -r0]
     a30:	00000366 	andeq	r0, r0, r6, ror #6
     a34:	b90d0d04 	stmdblt	sp, {r2, r8, sl, fp}
     a38:	07000000 	streq	r0, [r0, -r0]
     a3c:	0000038f 	andeq	r0, r0, pc, lsl #7
     a40:	b90d0e04 	stmdblt	sp, {r2, r9, sl, fp}
     a44:	07000000 	streq	r0, [r0, -r0]
     a48:	00000409 	andeq	r0, r0, r9, lsl #8
     a4c:	b90d0f04 	stmdblt	sp, {r2, r8, r9, sl, fp}
     a50:	07000000 	streq	r0, [r0, -r0]
     a54:	0000037a 	andeq	r0, r0, sl, ror r3
     a58:	b90d1004 	stmdblt	sp, {r2, ip}
     a5c:	07000000 	streq	r0, [r0, -r0]
     a60:	00000418 	andeq	r0, r0, r8, lsl r4
     a64:	b90d1104 	stmdblt	sp, {r2, r8, ip}
     a68:	07000000 	streq	r0, [r0, -r0]
     a6c:	0000039b 	muleq	r0, fp, r3
     a70:	b90d1204 	stmdblt	sp, {r2, r9, ip}
     a74:	04000000 	streq	r0, [r0], #-0
     a78:	0000020f 	andeq	r0, r0, pc, lsl #4
     a7c:	431b2805 	tstmi	fp, #327680	; 0x50000
     a80:	0a000001 	beq	a8c <__code_start__-0x7574>
     a84:	000002eb 	andeq	r0, r0, fp, ror #5
     a88:	5a000604 	bpl	22a0 <__code_start__-0x5d60>
     a8c:	0b000001 	bleq	a98 <__code_start__-0x7568>
     a90:	000002d6 	ldrdeq	r0, [r0], -r6
     a94:	0000015a 	andeq	r0, r0, sl, asr r1
     a98:	040c0000 	streq	r0, [ip], #-0
     a9c:	0002ed04 	andeq	lr, r2, r4, lsl #26
     aa0:	18630500 	stmdane	r3!, {r8, sl}^
     aa4:	00000137 	andeq	r0, r0, r7, lsr r1
     aa8:	0002050d 	andeq	r0, r2, sp, lsl #10
     aac:	05810100 	streq	r0, [r1, #256]	; 0x100
     ab0:	00000033 	andeq	r0, r0, r3, lsr r0
     ab4:	00008704 	andeq	r8, r0, r4, lsl #14
     ab8:	0000062c 	andeq	r0, r0, ip, lsr #12
     abc:	086a9c01 	stmdaeq	sl!, {r0, sl, fp, ip, pc}^
     ac0:	620e0000 	andvs	r0, lr, #0, 0
     ac4:	01006675 	tsteq	r0, r5, ror r6
     ac8:	086a1581 	stmdaeq	sl!, {r0, r7, r8, sl, ip}^
     acc:	03010000 	movweq	r0, #4096	; 0x1000
     ad0:	02f70000 	rscseq	r0, r7, #0, 0
     ad4:	6e0e0000 	cdpvs	0, 0, cr0, cr14, cr0, {0}
     ad8:	1e810100 	rmfnes	f0, f1, f0
     adc:	00000033 	andeq	r0, r0, r3, lsr r0
     ae0:	0000034e 	andeq	r0, r0, lr, asr #6
     ae4:	00000346 	andeq	r0, r0, r6, asr #6
     ae8:	746d660e 	strbtvc	r6, [sp], #-1550	; 0xfffff9f2
     aec:	2d810100 	stfcss	f0, [r1]
     af0:	000000b3 	strheq	r0, [r0], -r3
     af4:	000003a0 	andeq	r0, r0, r0, lsr #7
     af8:	00000388 	andeq	r0, r0, r8, lsl #7
     afc:	0002000f 	andeq	r0, r2, pc
     b00:	3a810100 	bcc	fe040f08 <__bss_end__+0xfe036de0>
     b04:	0000015c 	andeq	r0, r0, ip, asr r1
     b08:	00000462 	andeq	r0, r0, r2, ror #8
     b0c:	00000434 	andeq	r0, r0, r4, lsr r4
     b10:	01007010 	tsteq	r0, r0, lsl r0
     b14:	086a0882 	stmdaeq	sl!, {r1, r7, fp}^
     b18:	05b50000 	ldreq	r0, [r5, #0]!
     b1c:	059f0000 	ldreq	r0, [pc]	; b24 <__code_start__-0x74dc>
     b20:	65100000 	ldrvs	r0, [r0, #-0]
     b24:	12820100 	addne	r0, r2, #0
     b28:	0000086a 	andeq	r0, r0, sl, ror #16
     b2c:	0000063e 	andeq	r0, r0, lr, lsr r6
     b30:	0000063c 	andeq	r0, r0, ip, lsr r6
     b34:	00307810 	eorseq	r7, r0, r0, lsl r8
     b38:	640e8301 	strvs	r8, [lr], #-769	; 0xfffffcff
     b3c:	57000000 	strpl	r0, [r0, -r0]
     b40:	51000006 	tstpl	r0, r6
     b44:	10000006 	andne	r0, r0, r6
     b48:	01003178 	tsteq	r0, r8, ror r1
     b4c:	00641183 	rsbeq	r1, r4, r3, lsl #3
     b50:	06860000 	streq	r0, [r6], r0
     b54:	06800000 	streq	r0, [r0], r0
     b58:	c2110000 	andsgt	r0, r1, #0, 0
     b5c:	01000003 	tsteq	r0, r3
     b60:	00b31186 	adcseq	r1, r3, r6, lsl #3
     b64:	06b70000 	ldrteq	r0, [r7], r0
     b68:	06af0000 	strteq	r0, [pc], r0
     b6c:	73120000 	tstvc	r2, #0, 0
     b70:	80000000 	andhi	r0, r0, r0
     b74:	05000008 	streq	r0, [r0, #-8]
     b78:	009ae803 	addseq	lr, sl, r3, lsl #16
     b7c:	00801300 	addeq	r1, r0, r0, lsl #6
     b80:	73100000 	tstvc	r0, #0, 0
     b84:	0a910100 	beq	fe440f8c <__bss_end__+0xfe436e64>
     b88:	0000086a 	andeq	r0, r0, sl, ror #16
     b8c:	000006fd 	strdeq	r0, [r0], -sp
     b90:	000006f1 	strdeq	r0, [r0], -r1
     b94:	6d756e14 	ldclvs	14, cr6, [r5, #-80]!	; 0xffffffb0
     b98:	0d910100 	ldfeqs	f0, [r1]
     b9c:	00000885 	andeq	r0, r0, r5, lsl #17
     ba0:	7dd89103 	ldfvcp	f1, [r8, #12]
     ba4:	00042515 	andeq	r2, r4, r5, lsl r5
     ba8:	17910100 	ldrne	r0, [r1, r0, lsl #2]
     bac:	00000885 	andeq	r0, r0, r5, lsl #17
     bb0:	7ed89103 	atnvce	f1, f3
     bb4:	00037411 	andeq	r7, r3, r1, lsl r4
     bb8:	0d920100 	ldfeqs	f0, [r2]
     bbc:	0000002c 	andeq	r0, r0, ip, lsr #32
     bc0:	0000074f 	andeq	r0, r0, pc, asr #14
     bc4:	00000747 	andeq	r0, r0, r7, asr #14
     bc8:	0000a816 	andeq	sl, r0, r6, lsl r8
     bcc:	0004f100 	andeq	pc, r4, r0, lsl #2
     bd0:	79741000 	ldmdbvc	r4!, {ip}^
     bd4:	1d9e0100 	ldfnes	f0, [lr]
     bd8:	000000b3 	strheq	r0, [r0], -r3
     bdc:	00000790 	muleq	r0, r0, r7
     be0:	00000784 	andeq	r0, r0, r4, lsl #15
     be4:	00787814 	rsbseq	r7, r8, r4, lsl r8
     be8:	771aa201 	ldrvc	sl, [sl, -r1, lsl #4]
     bec:	06000000 	streq	r0, [r0], -r0
     bf0:	5b049359 	blpl	12595c <__bss_end__+0x11b834>
     bf4:	90170493 	mulsls	r7, r3, r4
     bf8:	3a000088 	bcc	e20 <__code_start__-0x71e0>
     bfc:	d800000c 	stmdale	r0, {r2, r3}
     c00:	18000002 	stmdane	r0, {r1}
     c04:	76025001 	strvc	r5, [r2], -r1
     c08:	51011800 	tstpl	r1, r0, lsl #16
     c0c:	99dc0305 	ldmibls	ip, {r0, r2, r8, r9}^
     c10:	01180000 	tsteq	r8, r0
     c14:	00330152 	eorseq	r0, r3, r2, asr r1
     c18:	0088a817 	addeq	sl, r8, r7, lsl r8
     c1c:	000c3a00 	andeq	r3, ip, r0, lsl #20
     c20:	0002fa00 	andeq	pc, r2, r0, lsl #20
     c24:	50011800 	andpl	r1, r1, r0, lsl #16
     c28:	18007602 	stmdane	r0, {r1, r9, sl, ip, sp, lr}
     c2c:	03055101 	movweq	r5, #20737	; 0x5101
     c30:	000099f0 	strdeq	r9, [r0], -r0
     c34:	01520118 	cmpeq	r2, r8, lsl r1
     c38:	cc170033 	ldcgt	0, cr0, [r7], {51}	; 0x33
     c3c:	46000088 	strmi	r0, [r0], -r8, lsl #1
     c40:	1700000c 	strne	r0, [r0, -ip]
     c44:	18000003 	stmdane	r0, {r0, r1}
     c48:	03055001 	movweq	r5, #20481	; 0x5001
     c4c:	000099e0 	andeq	r9, r0, r0, ror #19
     c50:	02510118 	subseq	r0, r1, #6
     c54:	1700007b 	smlsdxne	r0, fp, r0, r0
     c58:	000088d8 	ldrdeq	r8, [r0], -r8	; <UNPREDICTABLE>
     c5c:	00000c46 	andeq	r0, r0, r6, asr #24
     c60:	00000334 	andeq	r0, r0, r4, lsr r3
     c64:	05500118 	ldrbeq	r0, [r0, #-280]	; 0xfffffee8
     c68:	0099e803 	addseq	lr, r9, r3, lsl #16
     c6c:	51011800 	tstpl	r1, r0, lsl #16
     c70:	00007902 	andeq	r7, r0, r2, lsl #18
     c74:	0088e817 	addeq	lr, r8, r7, lsl r8
     c78:	000c3a00 	andeq	r3, ip, r0, lsl #20
     c7c:	00035600 	andeq	r5, r3, r0, lsl #12
     c80:	50011800 	andpl	r1, r1, r0, lsl #16
     c84:	18007602 	stmdane	r0, {r1, r9, sl, ip, sp, lr}
     c88:	03055101 	movweq	r5, #20737	; 0x5101
     c8c:	000099dc 	ldrdeq	r9, [r0], -ip
     c90:	01520118 	cmpeq	r2, r8, lsl r1
     c94:	18170033 	ldmdane	r7, {r0, r1, r4, r5}
     c98:	a4000089 	strge	r0, [r0], #-137	; 0xffffff77
     c9c:	8300000a 	movwhi	r0, #10
     ca0:	18000003 	stmdane	r0, {r0, r1}
     ca4:	40015001 	andmi	r5, r1, r1
     ca8:	03510118 	cmpeq	r1, #6
     cac:	187dd091 	ldmdane	sp!, {r0, r4, r7, ip, lr, pc}^
     cb0:	7b025201 	blvc	954bc <__bss_end__+0x8b394>
     cb4:	53011800 	movwpl	r1, #6144	; 0x1800
     cb8:	18007502 	stmdane	r0, {r1, r8, sl, ip, sp, lr}
     cbc:	02007d02 	andeq	r7, r0, #128	; 0x80
     cc0:	17000076 	smlsdxne	r0, r6, r0, r0
     cc4:	00008938 	andeq	r8, r0, r8, lsr r9
     cc8:	00000aa4 	andeq	r0, r0, r4, lsr #21
     ccc:	000003aa 	andeq	r0, r0, sl, lsr #7
     cd0:	01500118 	cmpeq	r0, r8, lsl r1
     cd4:	51011840 	tstpl	r1, r0, asr #16
     cd8:	7ed09103 	atnvcs	f1, f3
     cdc:	02520118 	subseq	r0, r2, #6
     ce0:	02180079 	andseq	r0, r8, #121, 0	; 0x79
     ce4:	7602007d 			; <UNDEFINED> instruction: 0x7602007d
     ce8:	48170000 	ldmdami	r7, {}	; <UNPREDICTABLE>
     cec:	52000089 	andpl	r0, r0, #137, 0	; 0x89
     cf0:	c600000c 	strgt	r0, [r0], -ip
     cf4:	18000003 	stmdane	r0, {r0, r1}
     cf8:	91035001 	tstls	r3, r1
     cfc:	01187dd0 			; <UNDEFINED> instruction: 0x01187dd0
     d00:	d2910351 	addsle	r0, r1, #1140850689	; 0x44000001
     d04:	8c17007e 	ldchi	0, cr0, [r7], {126}	; 0x7e
     d08:	3a00008b 	bcc	f3c <__code_start__-0x70c4>
     d0c:	e800000c 	stmda	r0, {r2, r3}
     d10:	18000003 	stmdane	r0, {r0, r1}
     d14:	76025001 	strvc	r5, [r2], -r1
     d18:	51011800 	tstpl	r1, r0, lsl #16
     d1c:	99f00305 	ldmibls	r0!, {r0, r2, r8, r9}^
     d20:	01180000 	tsteq	r8, r0
     d24:	00330152 	eorseq	r0, r3, r2, asr r1
     d28:	008bb017 	addeq	fp, fp, r7, lsl r0
     d2c:	000aa400 	andeq	sl, sl, r0, lsl #8
     d30:	00041500 	andeq	r1, r4, r0, lsl #10
     d34:	50011800 	andpl	r1, r1, r0, lsl #16
     d38:	01183a01 	tsteq	r8, r1, lsl #20
     d3c:	d0910351 	addsle	r0, r1, r1, asr r3
     d40:	5201187d 	andpl	r1, r1, #8192000	; 0x7d0000
     d44:	18007b02 	stmdane	r0, {r1, r8, r9, fp, ip, sp, lr}
     d48:	75025301 	strvc	r5, [r2, #-769]	; 0xfffffcff
     d4c:	7d021800 	stcvc	8, cr1, [r2, #-0]
     d50:	00760200 	rsbseq	r0, r6, r0, lsl #4
     d54:	8bd01700 	blhi	ff40695c <__bss_end__+0xff3fc834>
     d58:	0aa40000 	beq	fe900d60 <__bss_end__+0xfe8f6c38>
     d5c:	043c0000 	ldrteq	r0, [ip], #-0
     d60:	01180000 	tsteq	r8, r0
     d64:	183a0150 	ldmdane	sl!, {r4, r6, r8}
     d68:	91035101 	tstls	r3, r1, lsl #2
     d6c:	01187ed0 			; <UNDEFINED> instruction: 0x01187ed0
     d70:	00790252 	rsbseq	r0, r9, r2, asr r2
     d74:	007d0218 	rsbseq	r0, sp, r8, lsl r2
     d78:	00007602 	andeq	r7, r0, r2, lsl #12
     d7c:	008bdc17 	addeq	sp, fp, r7, lsl ip
     d80:	000c5e00 	andeq	r5, ip, r0, lsl #28
     d84:	00045a00 	andeq	r5, r4, r0, lsl #20
     d88:	50011800 	andpl	r1, r1, r0, lsl #16
     d8c:	7dd09103 	ldfvcp	f1, [r0, #12]
     d90:	05510118 	ldrbeq	r0, [r1, #-280]	; 0xfffffee8
     d94:	0099a003 	addseq	sl, r9, r3
     d98:	f0170000 			; <UNDEFINED> instruction: 0xf0170000
     d9c:	6a00008b 	bvs	fd0 <__code_start__-0x7030>
     da0:	7600000c 	strvc	r0, [r0], -ip
     da4:	18000004 	stmdane	r0, {r2}
     da8:	91035001 	tstls	r3, r1
     dac:	01187dd0 			; <UNDEFINED> instruction: 0x01187dd0
     db0:	d0910351 	addsle	r0, r1, r1, asr r3
     db4:	fc19007e 	ldc2	0, cr0, [r9], {126}	; 0x7e
     db8:	5200008b 	andpl	r0, r0, #139, 0	; 0x8b
     dbc:	1700000c 	strne	r0, [r0, -ip]
     dc0:	00008cc0 	andeq	r8, r0, r0, asr #25
     dc4:	00000c46 	andeq	r0, r0, r6, asr #24
     dc8:	000004a8 	andeq	r0, r0, r8, lsr #9
     dcc:	05500118 	ldrbeq	r0, [r0, #-280]	; 0xfffffee8
     dd0:	0098e003 	addseq	lr, r8, r3
     dd4:	51011800 	tstpl	r1, r0, lsl #16
     dd8:	998c0305 	stmibls	ip, {r0, r2, r8, r9}
     ddc:	01180000 	tsteq	r8, r0
     de0:	e8030552 	stmda	r3, {r1, r4, r6, r8, sl}
     de4:	0000009a 	muleq	r0, sl, r0
     de8:	008cc419 	addeq	ip, ip, r9, lsl r4
     dec:	000c7600 	andeq	r7, ip, r0, lsl #12
     df0:	8cdc1700 	ldclhi	7, cr1, [ip], {0}
     df4:	0c460000 	mareq	acc0, r0, r6
     df8:	04e70000 	strbteq	r0, [r7], #0
     dfc:	01180000 	tsteq	r8, r0
     e00:	30030550 	andcc	r0, r3, r0, asr r5
     e04:	1800009a 	stmdane	r0, {r1, r3, r4, r7}
     e08:	03055101 	movweq	r5, #20737	; 0x5101
     e0c:	0000998c 	andeq	r9, r0, ip, lsl #19
     e10:	05520118 	ldrbeq	r0, [r2, #-280]	; 0xfffffee8
     e14:	009ae803 	addseq	lr, sl, r3, lsl #16
     e18:	53011800 	movwpl	r1, #6144	; 0x1800
     e1c:	18b60802 	ldmne	r6!, {r1, fp}
     e20:	02007d02 	andeq	r7, r0, #128	; 0x80
     e24:	19000076 	stmdbne	r0, {r1, r2, r4, r5, r6}
     e28:	00008ce0 	andeq	r8, r0, r0, ror #25
     e2c:	00000c76 	andeq	r0, r0, r6, ror ip
     e30:	09e31a00 	stmibeq	r3!, {r9, fp, ip}^
     e34:	87900000 	ldrhi	r0, [r0, r0]
     e38:	00040000 	andeq	r0, r4, r0
     e3c:	000000d0 	ldrdeq	r0, [r0], -r0	; <UNPREDICTABLE>
     e40:	150a9401 	strne	r9, [sl, #-1025]	; 0xfffffbff
     e44:	1b000005 	blne	e60 <__code_start__-0x71a0>
     e48:	000009f4 	strdeq	r0, [r0], -r4
     e4c:	000007ec 	andeq	r0, r0, ip, ror #15
     e50:	000007e8 	andeq	r0, r0, r8, ror #15
     e54:	08951a00 	ldmeq	r5, {r9, fp, ip}
     e58:	89780000 	ldmdbhi	r8!, {}^	; <UNPREDICTABLE>
     e5c:	00010000 	andeq	r0, r1, r0
     e60:	000000f0 	strdeq	r0, [r0], -r0	; <UNPREDICTABLE>
     e64:	4b09dc01 	blmi	277e70 <__bss_end__+0x26dd48>
     e68:	1b000006 	blne	e88 <__code_start__-0x7178>
     e6c:	000008be 			; <UNDEFINED> instruction: 0x000008be
     e70:	0000081a 	andeq	r0, r0, sl, lsl r8
     e74:	00000814 	andeq	r0, r0, r4, lsl r8
     e78:	0008e01b 	andeq	lr, r8, fp, lsl r0
     e7c:	00084f00 	andeq	r4, r8, r0, lsl #30
     e80:	00084900 	andeq	r4, r8, r0, lsl #18
     e84:	08d41b00 	ldmeq	r4, {r8, r9, fp, ip}^
     e88:	08810000 	stmeq	r1, {}	; <UNPREDICTABLE>
     e8c:	087b0000 	ldmdaeq	fp!, {}^	; <UNPREDICTABLE>
     e90:	c81c0000 	ldmdagt	ip, {}	; <UNPREDICTABLE>
     e94:	1b000008 	blne	ebc <__code_start__-0x7144>
     e98:	000008b2 			; <UNDEFINED> instruction: 0x000008b2
     e9c:	000008b2 			; <UNDEFINED> instruction: 0x000008b2
     ea0:	000008aa 	andeq	r0, r0, sl, lsr #17
     ea4:	0008a61b 	andeq	sl, r8, fp, lsl r6
     ea8:	0008f500 	andeq	pc, r8, r0, lsl #10
     eac:	0008ef00 	andeq	lr, r8, r0, lsl #30
     eb0:	00f01300 	rscseq	r1, r0, r0, lsl #6
     eb4:	ec1d0000 	ldc	0, cr0, [sp], {-0}
     eb8:	03000008 	movweq	r0, #8
     ebc:	1e7ed891 	mrcne	8, 3, sp, cr14, cr1, {4}
     ec0:	000008f8 	strdeq	r0, [r0], -r8
     ec4:	0000092f 	andeq	r0, r0, pc, lsr #18
     ec8:	00000921 	andeq	r0, r0, r1, lsr #18
     ecc:	0009021f 	andeq	r0, r9, pc, lsl r2
     ed0:	09a31a00 	stmibeq	r3!, {r9, fp, ip}
     ed4:	89840000 	stmibhi	r4, {}	; <UNPREDICTABLE>
     ed8:	00040000 	andeq	r0, r4, r0
     edc:	00000120 	andeq	r0, r0, r0, lsr #2
     ee0:	e2097c01 	and	r7, r9, #256	; 0x100
     ee4:	1b000005 	blne	f00 <__code_start__-0x7100>
     ee8:	000009ca 	andeq	r0, r0, sl, asr #19
     eec:	00000999 	muleq	r0, r9, r9
     ef0:	00000993 	muleq	r0, r3, r9
     ef4:	0009be1b 	andeq	fp, r9, fp, lsl lr
     ef8:	0009ce00 	andeq	ip, r9, r0, lsl #28
     efc:	0009c200 	andeq	ip, r9, r0, lsl #4
     f00:	09b41b00 	ldmibeq	r4!, {r8, r9, fp, ip}
     f04:	0a340000 	beq	d00f0c <__bss_end__+0xcf6de4>
     f08:	0a240000 	beq	900f10 <__bss_end__+0x8f6de8>
     f0c:	20130000 	andscs	r0, r3, r0
     f10:	1e000001 	cdpne	0, 0, cr0, cr0, cr1, {0}
     f14:	000009d6 	ldrdeq	r0, [r0], -r6
     f18:	00000ab1 			; <UNDEFINED> instruction: 0x00000ab1
     f1c:	00000aa3 	andeq	r0, r0, r3, lsr #21
     f20:	4f200000 	svcmi	0x00200000
     f24:	4c000009 	stcmi	0, cr0, [r0], {9}
     f28:	0200008a 	andeq	r0, r0, #138, 0	; 0x8a
     f2c:	00015000 	andeq	r5, r1, r0
     f30:	097c0100 	ldmdbeq	ip!, {r8}^
     f34:	0009801b 	andeq	r8, r9, fp, lsl r0
     f38:	000b1100 	andeq	r1, fp, r0, lsl #2
     f3c:	000b0b00 	andeq	r0, fp, r0, lsl #22
     f40:	09761b00 	ldmdbeq	r6!, {r8, r9, fp, ip}^
     f44:	0b470000 	bleq	11c0f4c <__bss_end__+0x11b6e24>
     f48:	0b3d0000 	bleq	f40f50 <__bss_end__+0xf36e28>
     f4c:	6c1b0000 	ldcvs	0, cr0, [fp], {-0}
     f50:	96000009 	strls	r0, [r0], -r9
     f54:	9200000b 	andls	r0, r0, #11, 0
     f58:	1b00000b 	blne	f8c <__code_start__-0x7074>
     f5c:	00000960 	andeq	r0, r0, r0, ror #18
     f60:	00000bc6 	andeq	r0, r0, r6, asr #23
     f64:	00000bb8 			; <UNDEFINED> instruction: 0x00000bb8
     f68:	00015013 	andeq	r5, r1, r3, lsl r0
     f6c:	098c1e00 	stmibeq	ip, {r9, sl, fp, ip}
     f70:	0c2b0000 	stceq	0, cr0, [fp], #-0
     f74:	0c290000 	stceq	0, cr0, [r9], #-0
     f78:	981e0000 	ldmdals	lr, {}	; <UNPREDICTABLE>
     f7c:	45000009 	strmi	r0, [r0, #-9]
     f80:	3f00000c 	svccc	0x0000000c
     f84:	0000000c 	andeq	r0, r0, ip
     f88:	1a000000 	bne	f90 <__code_start__-0x7070>
     f8c:	00000895 	muleq	r0, r5, r8
     f90:	00008a88 	andeq	r8, r0, r8, lsl #21
     f94:	01800000 	orreq	r0, r0, r0
     f98:	d6010000 	strle	r0, [r1], -r0
     f9c:	00078909 	andeq	r8, r7, r9, lsl #18
     fa0:	08be1b00 	ldmeq	lr!, {r8, r9, fp, ip}
     fa4:	0c780000 	ldcleq	0, cr0, [r8], #-0
     fa8:	0c740000 	ldcleq	0, cr0, [r4], #-0
     fac:	e01b0000 	ands	r0, fp, r0
     fb0:	9e000008 	cdpls	0, 0, cr0, cr0, cr8, {0}
     fb4:	9a00000c 	bls	fec <__code_start__-0x7014>
     fb8:	1b00000c 	blne	ff0 <__code_start__-0x7010>
     fbc:	000008d4 	ldrdeq	r0, [r0], -r4
     fc0:	00000cc2 	andeq	r0, r0, r2, asr #25
     fc4:	00000cbe 			; <UNDEFINED> instruction: 0x00000cbe
     fc8:	0008c81c 	andeq	ip, r8, ip, lsl r8
     fcc:	08b21b00 	ldmeq	r2!, {r8, r9, fp, ip}
     fd0:	0ce60000 	stcleq	0, cr0, [r6]
     fd4:	0ce00000 	stcleq	0, cr0, [r0]
     fd8:	a61b0000 	ldrge	r0, [fp], -r0
     fdc:	19000008 	stmdbne	r0, {r3}
     fe0:	1500000d 	strne	r0, [r0, #-13]
     fe4:	1300000d 	movwne	r0, #13
     fe8:	00000180 	andeq	r0, r0, r0, lsl #3
     fec:	0008ec1d 	andeq	lr, r8, sp, lsl ip
     ff0:	d8910300 	ldmle	r1, {r8, r9}
     ff4:	08f81e7e 	ldmeq	r8!, {r1, r2, r3, r4, r5, r6, r9, sl, fp, ip}^
     ff8:	0d430000 	stcleq	0, cr0, [r3, #-0]
     ffc:	0d390000 	ldceq	0, cr0, [r9, #-0]
    1000:	021e0000 	andseq	r0, lr, #0, 0
    1004:	88000009 	stmdahi	r0, {r0, r3}
    1008:	8400000d 	strhi	r0, [r0], #-13
    100c:	1a00000d 	bne	1048 <__code_start__-0x6fb8>
    1010:	000009a3 	andeq	r0, r0, r3, lsr #19
    1014:	00008aa4 	andeq	r8, r0, r4, lsr #21
    1018:	01a00003 	moveq	r0, r3
    101c:	7c010000 	stcvc	0, cr0, [r1], {-0}
    1020:	00072009 	andeq	r2, r7, r9
    1024:	09ca1b00 	stmibeq	sl, {r8, r9, fp, ip}^
    1028:	0daa0000 	stceq	0, cr0, [sl]
    102c:	0da60000 	stceq	0, cr0, [r6]
    1030:	be1b0000 	cdplt	0, 1, cr0, cr11, cr0, {0}
    1034:	cc000009 	stcgt	0, cr0, [r0], {9}
    1038:	c800000d 	stmdagt	r0, {r0, r2, r3}
    103c:	1b00000d 	blne	1078 <__code_start__-0x6f88>
    1040:	000009b4 			; <UNDEFINED> instruction: 0x000009b4
    1044:	00000df6 	strdeq	r0, [r0], -r6
    1048:	00000dea 	andeq	r0, r0, sl, ror #27
    104c:	0001a013 	andeq	sl, r1, r3, lsl r0
    1050:	09d61e00 	ldmibeq	r6, {r9, sl, fp, ip}^
    1054:	0e520000 	cdpeq	0, 5, cr0, cr2, cr0, {0}
    1058:	0e460000 	cdpeq	0, 4, cr0, cr6, cr0, {0}
    105c:	00000000 	andeq	r0, r0, r0
    1060:	00094f20 	andeq	r4, r9, r0, lsr #30
    1064:	008b2c00 	addeq	r2, fp, r0, lsl #24
    1068:	c8000200 	stmdagt	r0, {r9}
    106c:	01000001 	tsteq	r0, r1
    1070:	801b097c 	andshi	r0, fp, ip, ror r9
    1074:	a2000009 	andge	r0, r0, #9, 0
    1078:	9e00000e 	cdpls	0, 0, cr0, cr0, cr14, {0}
    107c:	1b00000e 	blne	10bc <__code_start__-0x6f44>
    1080:	00000976 	andeq	r0, r0, r6, ror r9
    1084:	00000eca 	andeq	r0, r0, sl, asr #29
    1088:	00000ec0 	andeq	r0, r0, r0, asr #29
    108c:	00096c1b 	andeq	r6, r9, fp, lsl ip
    1090:	000f1600 	andeq	r1, pc, r0, lsl #12
    1094:	000f1200 	andeq	r1, pc, r0, lsl #4
    1098:	09601b00 	stmdbeq	r0!, {r8, r9, fp, ip}^
    109c:	0f440000 	svceq	0x00440000
    10a0:	0f380000 	svceq	0x00380000
    10a4:	c8130000 	ldmdagt	r3, {}	; <UNPREDICTABLE>
    10a8:	1e000001 	cdpne	0, 0, cr0, cr0, cr1, {0}
    10ac:	0000098c 	andeq	r0, r0, ip, lsl #19
    10b0:	00000f9e 	muleq	r0, lr, pc	; <UNPREDICTABLE>
    10b4:	00000f9a 	muleq	r0, sl, pc	; <UNPREDICTABLE>
    10b8:	0009981e 	andeq	r9, r9, lr, lsl r8
    10bc:	000fc400 	andeq	ip, pc, r0, lsl #8
    10c0:	000fc000 	andeq	ip, pc, r0
    10c4:	00000000 	andeq	r0, r0, r0
    10c8:	88581700 	ldmdahi	r8, {r8, r9, sl, ip}^
    10cc:	0aa40000 	beq	fe9010d4 <__bss_end__+0xfe8f6fac>
    10d0:	07af0000 	streq	r0, [pc, r0]!
    10d4:	01180000 	tsteq	r8, r0
    10d8:	18400150 	stmdane	r0, {r4, r6, r8}^
    10dc:	91035101 	tstls	r3, r1, lsl #2
    10e0:	01187dd0 			; <UNDEFINED> instruction: 0x01187dd0
    10e4:	00750253 	rsbseq	r0, r5, r3, asr r2
    10e8:	007d0218 	rsbseq	r0, sp, r8, lsl r2
    10ec:	17003001 	strne	r3, [r0, -r1]
    10f0:	00008968 	andeq	r8, r0, r8, ror #18
    10f4:	00000aa4 	andeq	r0, r0, r4, lsr #21
    10f8:	000007cf 	andeq	r0, r0, pc, asr #15
    10fc:	01500118 	cmpeq	r0, r8, lsl r1
    1100:	5101183a 	tstpl	r1, sl, lsr r8
    1104:	7dd09103 	ldfvcp	f1, [r0, #12]
    1108:	02530118 	subseq	r0, r3, #6
    110c:	17000075 	smlsdxne	r0, r5, r0, r0
    1110:	00008c4c 	andeq	r8, r0, ip, asr #24
    1114:	00000c46 	andeq	r0, r0, r6, asr #24
    1118:	000007e6 	andeq	r0, r0, r6, ror #15
    111c:	05500118 	ldrbeq	r0, [r0, #-280]	; 0xfffffee8
    1120:	009a8003 	addseq	r8, sl, r3
    1124:	5c210000 	stcpl	0, cr0, [r1], #-0
    1128:	f800008c 			; <UNDEFINED> instruction: 0xf800008c
    112c:	18000007 	stmdane	r0, {r0, r1, r2}
    1130:	91045001 	tstls	r4, r1
    1134:	00067dc8 	andeq	r7, r6, r8, asr #27
    1138:	008c7017 	addeq	r7, ip, r7, lsl r0
    113c:	000c4600 	andeq	r4, ip, r0, lsl #12
    1140:	00082700 	andeq	r2, r8, r0, lsl #14
    1144:	50011800 	andpl	r1, r1, r0, lsl #16
    1148:	9ab00305 	bls	fec01d64 <__bss_end__+0xfebf7c3c>
    114c:	01180000 	tsteq	r8, r0
    1150:	8c030551 	cfstr32hi	mvfx0, [r3], {81}	; 0x51
    1154:	18000099 	stmdane	r0, {r0, r3, r4, r7}
    1158:	03055201 	movweq	r5, #20993	; 0x5201
    115c:	00009ae8 	andeq	r9, r0, r8, ror #21
    1160:	02530118 	subseq	r0, r3, #6
    1164:	1900e208 	stmdbne	r0, {r3, r9, sp, lr, pc}
    1168:	00008c74 	andeq	r8, r0, r4, ror ip
    116c:	00000c76 	andeq	r0, r0, r6, ror ip
    1170:	008c8817 	addeq	r8, ip, r7, lsl r8
    1174:	000c4600 	andeq	r4, ip, r0, lsl #12
    1178:	00085f00 	andeq	r5, r8, r0, lsl #30
    117c:	50011800 	andpl	r1, r1, r0, lsl #16
    1180:	9a580305 	bls	1601d9c <__bss_end__+0x15f7c74>
    1184:	01180000 	tsteq	r8, r0
    1188:	8c030551 	cfstr32hi	mvfx0, [r3], {81}	; 0x51
    118c:	18000099 	stmdane	r0, {r0, r3, r4, r7}
    1190:	03055201 	movweq	r5, #20993	; 0x5201
    1194:	00009ae8 	andeq	r9, r0, r8, ror #21
    1198:	02530118 	subseq	r0, r3, #6
    119c:	1900be08 	stmdbne	r0, {r3, r9, sl, fp, ip, sp, pc}
    11a0:	00008c8c 	andeq	r8, r0, ip, lsl #25
    11a4:	00000c76 	andeq	r0, r0, r6, ror ip
    11a8:	04080000 	streq	r0, [r8], #-0
    11ac:	000000b9 	strheq	r0, [r0], -r9
    11b0:	0000c022 	andeq	ip, r0, r2, lsr #32
    11b4:	00088000 	andeq	r8, r8, r0
    11b8:	002c2300 	eoreq	r2, ip, r0, lsl #6
    11bc:	00090000 	andeq	r0, r9, r0
    11c0:	00087009 	andeq	r7, r8, r9
    11c4:	00b92200 	adcseq	r2, r9, r0, lsl #4
    11c8:	08950000 	ldmeq	r5, {}	; <UNPREDICTABLE>
    11cc:	2c230000 	stccs	0, cr0, [r3], #-0
    11d0:	7f000000 	svcvc	0x00000000
    11d4:	03ed2400 	mvneq	r2, #0, 8
    11d8:	49010000 	stmdbmi	r1, {}	; <UNPREDICTABLE>
    11dc:	00086a01 	andeq	r6, r8, r1, lsl #20
    11e0:	092a0100 	stmdbeq	sl!, {r8}
    11e4:	c5250000 	strgt	r0, [r5, #-0]!
    11e8:	01000001 	tsteq	r0, r1
    11ec:	002c0f49 	eoreq	r0, ip, r9, asr #30
    11f0:	64260000 	strtvs	r0, [r6], #-0
    11f4:	01007473 	tsteq	r0, r3, ror r4
    11f8:	086a1b49 	stmdaeq	sl!, {r0, r3, r6, r8, r9, fp, ip}^
    11fc:	6e260000 	cdpvs	0, 2, cr0, cr6, cr0, {0}
    1200:	24490100 	strbcs	r0, [r9], #-256	; 0xffffff00
    1204:	00000033 	andeq	r0, r0, r3, lsr r0
    1208:	6c617626 	stclvs	6, cr7, [r1], #-152	; 0xffffff68
    120c:	2b490100 	blcs	1241614 <__bss_end__+0x12374ec>
    1210:	00000033 	andeq	r0, r0, r3, lsr r0
    1214:	00037425 	andeq	r7, r3, r5, lsr #8
    1218:	34490100 	strbcc	r0, [r9], #-256	; 0xffffff00
    121c:	00000033 	andeq	r0, r0, r3, lsr r0
    1220:	00043225 	andeq	r3, r4, r5, lsr #4
    1224:	3f490100 	svccc	0x00490100
    1228:	00000033 	andeq	r0, r0, r3, lsr r0
    122c:	66756227 	ldrbtvs	r6, [r5], -r7, lsr #4
    1230:	074e0100 	strbeq	r0, [lr, -r0, lsl #2]
    1234:	0000092a 	andeq	r0, r0, sl, lsr #18
    1238:	01007027 	tsteq	r0, r7, lsr #32
    123c:	086a114e 	stmdaeq	sl!, {r1, r2, r3, r6, r8, ip}^
    1240:	75270000 	strvc	r0, [r7, #-0]!
    1244:	0b4f0100 	bleq	13c164c <__bss_end__+0x13b7524>
    1248:	0000002c 	andeq	r0, r0, ip, lsr #32
    124c:	00007312 	andeq	r7, r0, r2, lsl r3
    1250:	00094a00 	andeq	r4, r9, r0, lsl #20
    1254:	d0030500 	andle	r0, r3, r0, lsl #10
    1258:	2800009a 	stmdacs	r0, {r1, r3, r4, r7}
    125c:	0003da29 	andeq	sp, r3, r9, lsr #20
    1260:	0d540100 	ldfeqe	f0, [r4, #-0]
    1264:	0000002c 	andeq	r0, r0, ip, lsr #32
    1268:	b9220000 	stmdblt	r2!, {}	; <UNPREDICTABLE>
    126c:	3a000000 	bcc	1274 <__code_start__-0x6d8c>
    1270:	23000009 	movwcs	r0, #9
    1274:	0000002c 	andeq	r0, r0, ip, lsr #32
    1278:	c022003f 	eorgt	r0, r2, pc, lsr r0
    127c:	4a000000 	bmi	1284 <__code_start__-0x6d7c>
    1280:	23000009 	movwcs	r0, #9
    1284:	0000002c 	andeq	r0, r0, ip, lsr #32
    1288:	3a090004 	bcc	2412a0 <__bss_end__+0x237178>
    128c:	24000009 	strcs	r0, [r0], #-9
    1290:	000003f2 	strdeq	r0, [r0], -r2
    1294:	6a0e3801 	bvs	38f2a0 <__bss_end__+0x385178>
    1298:	01000008 	tsteq	r0, r8
    129c:	000009a3 	andeq	r0, r0, r3, lsr #19
    12a0:	74736426 	ldrbtvc	r6, [r3], #-1062	; 0xfffffbda
    12a4:	1c380100 	ldfnes	f0, [r8], #-0
    12a8:	0000086a 	andeq	r0, r0, sl, ror #16
    12ac:	01006e26 	tsteq	r0, r6, lsr #28
    12b0:	00332538 	eorseq	r2, r3, r8, lsr r5
    12b4:	70260000 	eorvc	r0, r6, r0
    12b8:	2e380100 	rsfcse	f0, f0, f0
    12bc:	0000086a 	andeq	r0, r0, sl, ror #16
    12c0:	0007cc25 	andeq	ip, r7, r5, lsr #24
    12c4:	37380100 	ldrcc	r0, [r8, -r0, lsl #2]!
    12c8:	0000086a 	andeq	r0, r0, sl, ror #16
    12cc:	6e656c27 	cdpvs	12, 6, cr6, cr5, cr7, {1}
    12d0:	063a0100 	ldrteq	r0, [sl], -r0, lsl #2
    12d4:	00000033 	andeq	r0, r0, r3, lsr r0
    12d8:	01007327 	tsteq	r0, r7, lsr #6
    12dc:	086a083e 	stmdaeq	sl!, {r1, r2, r3, r4, r5, fp}^
    12e0:	2a000000 	bcs	12e8 <__code_start__-0x6d18>
    12e4:	00646170 	rsbeq	r6, r4, r0, ror r1
    12e8:	6a0e2e01 	bvs	38caf4 <__bss_end__+0x3829cc>
    12ec:	01000008 	tsteq	r0, r8
    12f0:	000009e3 	andeq	r0, r0, r3, ror #19
    12f4:	01007026 	tsteq	r0, r6, lsr #32
    12f8:	086a182e 	stmdaeq	sl!, {r1, r2, r3, r5, fp, ip}^
    12fc:	c5250000 	strgt	r0, [r5, #-0]!
    1300:	01000001 	tsteq	r0, r1
    1304:	086a222e 	stmdaeq	sl!, {r1, r2, r3, r5, r9, sp}^
    1308:	74250000 	strtvc	r0, [r5], #-0
    130c:	01000003 	tsteq	r0, r3
    1310:	00332c2e 	eorseq	r2, r3, lr, lsr #24
    1314:	6c270000 	stcvs	0, cr0, [r7], #-0
    1318:	01006e65 	tsteq	r0, r5, ror #28
    131c:	0033062f 	eorseq	r0, r3, pc, lsr #12
    1320:	24000000 	strcs	r0, [r0], #-0
    1324:	00000333 	andeq	r0, r0, r3, lsr r3
    1328:	330c2701 	movwcc	r2, #50945	; 0xc701
    132c:	01000000 	mrseq	r0, (UNDEF: 0)
    1330:	000009ff 	strdeq	r0, [r0], -pc	; <UNPREDICTABLE>
    1334:	01006326 	tsteq	r0, r6, lsr #6
    1338:	00331827 	eorseq	r1, r3, r7, lsr #16
    133c:	2b000000 	blcs	1344 <__code_start__-0x6cbc>
    1340:	000003b3 			; <UNDEFINED> instruction: 0x000003b3
    1344:	a4061f01 	strge	r1, [r6], #-3841	; 0xfffff0ff
    1348:	60000086 	andvs	r0, r0, r6, lsl #1
    134c:	01000000 	mrseq	r0, (UNDEF: 0)
    1350:	000a8f9c 	muleq	sl, ip, pc	; <UNPREDICTABLE>
    1354:	03870f00 	orreq	r0, r7, #0, 30
    1358:	1f010000 	svcne	0x00010000
    135c:	00009e1b 	andeq	r9, r0, fp, lsl lr
    1360:	000fe900 	andeq	lr, pc, r0, lsl #18
    1364:	000fe500 	andeq	lr, pc, r0, lsl #10
    1368:	04010f00 	streq	r0, [r1], #-3840	; 0xfffff100
    136c:	1f010000 	svcne	0x00010000
    1370:	0000d130 	andeq	sp, r0, r0, lsr r1
    1374:	00100e00 	andseq	r0, r0, r0, lsl #28
    1378:	00100a00 	andseq	r0, r0, r0, lsl #20
    137c:	00731200 	rsbseq	r1, r3, r0, lsl #4
    1380:	0a9f0000 	beq	fe7c1388 <__bss_end__+0xfe7b7260>
    1384:	03050000 	movweq	r0, #20480	; 0x5000
    1388:	00009ad8 	ldrdeq	r9, [r0], -r8
    138c:	0086e817 	addeq	lr, r6, r7, lsl r8
    1390:	000c4600 	andeq	r4, ip, r0, lsl #12
    1394:	000a8500 	andeq	r8, sl, r0, lsl #10
    1398:	50011800 	andpl	r1, r1, r0, lsl #16
    139c:	98e00305 	stmials	r0!, {r0, r2, r8, r9}^
    13a0:	01180000 	tsteq	r8, r0
    13a4:	8c030551 	cfstr32hi	mvfx0, [r3], {81}	; 0x51
    13a8:	18000099 	stmdane	r0, {r0, r3, r4, r7}
    13ac:	03055201 	movweq	r5, #20993	; 0x5201
    13b0:	00009ad8 	ldrdeq	r9, [r0], -r8
    13b4:	02530118 	subseq	r0, r3, #6
    13b8:	02182008 	andseq	r2, r8, #8, 0
    13bc:	0305007d 	movweq	r0, #20605	; 0x507d
    13c0:	000099c8 	andeq	r9, r0, r8, asr #19
    13c4:	86ec1900 	strbthi	r1, [ip], r0, lsl #18
    13c8:	0c760000 	ldcleq	0, cr0, [r6], #-0
    13cc:	22000000 	andcs	r0, r0, #0, 0
    13d0:	000000c0 	andeq	r0, r0, r0, asr #1
    13d4:	00000a9f 	muleq	r0, pc, sl	; <UNPREDICTABLE>
    13d8:	00002c23 	andeq	r2, r0, r3, lsr #24
    13dc:	09000e00 	stmdbeq	r0, {r9, sl, fp}
    13e0:	00000a8f 	andeq	r0, r0, pc, lsl #21
    13e4:	0008952c 	andeq	r9, r8, ip, lsr #10
    13e8:	00837c00 	addeq	r7, r3, r0, lsl #24
    13ec:	00032800 	andeq	r2, r3, r0, lsl #16
    13f0:	3a9c0100 	bcc	fe7017f8 <__bss_end__+0xfe6f76d0>
    13f4:	1b00000c 	blne	142c <__code_start__-0x6bd4>
    13f8:	000008a6 	andeq	r0, r0, r6, lsr #17
    13fc:	00001047 	andeq	r1, r0, r7, asr #32
    1400:	0000102f 	andeq	r1, r0, pc, lsr #32
    1404:	0008b21b 	andeq	fp, r8, fp, lsl r2
    1408:	0010f100 	andseq	pc, r0, r0, lsl #2
    140c:	0010e900 	andseq	lr, r0, r0, lsl #18
    1410:	08c81b00 	stmiaeq	r8, {r8, r9, fp, ip}^
    1414:	11480000 	mrsne	r0, (UNDEF: 72)
    1418:	11280000 			; <UNDEFINED> instruction: 0x11280000
    141c:	d41b0000 	ldrle	r0, [fp], #-0
    1420:	1e000008 	cdpne	0, 0, cr0, cr0, cr8, {0}
    1424:	10000012 	andne	r0, r0, r2, lsl r0
    1428:	2d000012 	stccs	0, cr0, [r0, #-72]	; 0xffffffb8
    142c:	000008e0 	andeq	r0, r0, r0, ror #17
    1430:	1d009102 	stfned	f1, [r0, #-8]
    1434:	000008ec 	andeq	r0, r0, ip, ror #17
    1438:	7fa89103 	svcvc	0x00a89103
    143c:	0008f81e 	andeq	pc, r8, lr, lsl r8	; <UNPREDICTABLE>
    1440:	0012b200 	andseq	fp, r2, r0, lsl #4
    1444:	00127e00 	andseq	r7, r2, r0, lsl #28
    1448:	09021e00 	stmdbeq	r2, {r9, sl, fp, ip}
    144c:	14190000 	ldrne	r0, [r9], #-0
    1450:	13f70000 	mvnsne	r0, #0, 0
    1454:	be2e0000 	cdplt	0, 2, cr0, cr14, cr0, {0}
    1458:	80000008 	andhi	r0, r0, r8
    145c:	0009a31a 	andeq	sl, r9, sl, lsl r3
    1460:	00842000 	addeq	r2, r4, r0
    1464:	18000400 	stmdane	r0, {sl}
    1468:	01000000 	mrseq	r0, (UNDEF: 0)
    146c:	0b6d097c 	bleq	1b43a64 <__bss_end__+0x1b3993c>
    1470:	ca1b0000 	bgt	6c1478 <__bss_end__+0x6b7350>
    1474:	01000009 	tsteq	r0, r9
    1478:	f7000015 			; <UNDEFINED> instruction: 0xf7000015
    147c:	1b000014 	blne	14d4 <__code_start__-0x6b2c>
    1480:	000009be 			; <UNDEFINED> instruction: 0x000009be
    1484:	00001555 	andeq	r1, r0, r5, asr r5
    1488:	00001545 	andeq	r1, r0, r5, asr #10
    148c:	0009b41b 	andeq	fp, r9, fp, lsl r4
    1490:	0015d500 	andseq	sp, r5, r0, lsl #10
    1494:	0015c100 	andseq	ip, r5, r0, lsl #2
    1498:	00181300 	andseq	r1, r8, r0, lsl #6
    149c:	d61e0000 	ldrle	r0, [lr], -r0
    14a0:	67000009 	strvs	r0, [r0, -r9]
    14a4:	57000016 	smladpl	r0, r6, r0, r0
    14a8:	00000016 	andeq	r0, r0, r6, lsl r0
    14ac:	094f1a00 	stmdbeq	pc, {r9, fp, ip}^	; <UNPREDICTABLE>
    14b0:	84d80000 	ldrbhi	r0, [r8], #0
    14b4:	00020000 	andeq	r0, r2, r0
    14b8:	00000060 	andeq	r0, r0, r0, rrx
    14bc:	d8097c01 	stmdale	r9, {r0, sl, fp, ip, sp, lr}
    14c0:	1b00000b 	blne	14f4 <__code_start__-0x6b0c>
    14c4:	00000980 	andeq	r0, r0, r0, lsl #19
    14c8:	000016d3 	ldrdeq	r1, [r0], -r3
    14cc:	000016cb 	andeq	r1, r0, fp, asr #13
    14d0:	0009761b 	andeq	r7, r9, fp, lsl r6
    14d4:	00171200 	andseq	r1, r7, r0, lsl #4
    14d8:	00170a00 	andseq	r0, r7, r0, lsl #20
    14dc:	096c1b00 	stmdbeq	ip!, {r8, r9, fp, ip}^
    14e0:	17510000 	ldrbne	r0, [r1, -r0]
    14e4:	174d0000 	strbne	r0, [sp, -r0]
    14e8:	601b0000 	andsvs	r0, fp, r0
    14ec:	81000009 	tsthi	r0, r9
    14f0:	73000017 	movwvc	r0, #23
    14f4:	13000017 	movwne	r0, #23
    14f8:	00000060 	andeq	r0, r0, r0, rrx
    14fc:	00098c1e 	andeq	r8, r9, lr, lsl ip
    1500:	0017e600 	andseq	lr, r7, r0, lsl #12
    1504:	0017e000 	andseq	lr, r7, r0
    1508:	09981e00 	ldmibeq	r8, {r9, sl, fp, ip}
    150c:	18180000 	ldmdane	r8, {}	; <UNPREDICTABLE>
    1510:	18140000 	ldmdane	r4, {}	; <UNPREDICTABLE>
    1514:	00000000 	andeq	r0, r0, r0
    1518:	00091b2f 	andeq	r1, r9, pc, lsr #22
    151c:	00859000 	addeq	r9, r5, r0
    1520:	00006000 	andeq	r6, r0, r0
    1524:	000bf700 	andeq	pc, fp, r0, lsl #14
    1528:	091c1e00 	ldmdbeq	ip, {r9, sl, fp, ip}
    152c:	183a0000 	ldmdane	sl!, {}	; <UNPREDICTABLE>
    1530:	18360000 	ldmdane	r6!, {}	; <UNPREDICTABLE>
    1534:	17000000 	strne	r0, [r0, -r0]
    1538:	00008664 	andeq	r8, r0, r4, ror #12
    153c:	00000c46 	andeq	r0, r0, r6, asr #24
    1540:	00000c30 	andeq	r0, r0, r0, lsr ip
    1544:	05500118 	ldrbeq	r0, [r0, #-280]	; 0xfffffee8
    1548:	0098e003 	addseq	lr, r8, r3
    154c:	51011800 	tstpl	r1, r0, lsl #16
    1550:	998c0305 	stmibls	ip, {r0, r2, r8, r9}
    1554:	01180000 	tsteq	r8, r0
    1558:	d0030552 	andle	r0, r3, r2, asr r5
    155c:	1800009a 	stmdane	r0, {r1, r3, r4, r7}
    1560:	08025301 	stmdaeq	r2, {r0, r8, r9, ip, lr}
    1564:	7d021879 	stcvc	8, cr1, [r2, #-484]	; 0xfffffe1c
    1568:	a0030500 	andge	r0, r3, r0, lsl #10
    156c:	00000099 	muleq	r0, r9, r0
    1570:	00866819 	addeq	r6, r6, r9, lsl r8
    1574:	000c7600 	andeq	r7, ip, r0, lsl #12
    1578:	2a300000 	bcs	c01580 <__bss_end__+0xbf7458>
    157c:	2a000004 	bcs	1594 <__code_start__-0x6a6c>
    1580:	03000004 	movweq	r0, #4
    1584:	083005eb 	ldmdaeq	r0!, {r0, r1, r3, r5, r6, r7, r8, sl}
    1588:	08000002 	stmdaeq	r0, {r1}
    158c:	03000002 	movweq	r0, #2
    1590:	cc300628 	ldcgt	6, cr0, [r0], #-160	; 0xffffff60
    1594:	cc000003 	stcgt	0, cr0, [r0], {3}
    1598:	03000003 	movweq	r0, #3
    159c:	fa3007ee 	blx	c0355c <__bss_end__+0xbf9434>
    15a0:	fa000003 	blx	15b4 <__code_start__-0x6a4c>
    15a4:	03000003 	movweq	r0, #3
    15a8:	d33005ea 	teqle	r0, #981467136	; 0x3a800000
    15ac:	d3000003 	movwle	r0, #3
    15b0:	03000003 	movweq	r0, #3
    15b4:	163007ed 	ldrtne	r0, [r0], -sp, ror #15
    15b8:	16000000 	strne	r0, [r0], -r0
    15bc:	03000000 	movweq	r0, #0
    15c0:	2f00066e 	svccs	0x0000066e
    15c4:	04000001 	streq	r0, [r0], #-1
    15c8:	00084000 	andeq	r4, r8, r0
    15cc:	1e010400 	cfcpysne	mvf0, mvf1
    15d0:	0c000002 	stceq	0, cr0, [r0], {2}
    15d4:	0000044f 	andeq	r0, r0, pc, asr #8
    15d8:	000002f5 	strdeq	r0, [r0], -r5
    15dc:	00008d30 	andeq	r8, r0, r0, lsr sp
    15e0:	0000002c 	andeq	r0, r0, ip, lsr #32
    15e4:	00000e8d 	andeq	r0, r0, sp, lsl #29
    15e8:	69050402 	stmdbvs	r5, {r1, sl}
    15ec:	0300746e 	movweq	r7, #1134	; 0x46e
    15f0:	00a10704 	adceq	r0, r1, r4, lsl #14
    15f4:	01030000 	mrseq	r0, (UNDEF: 3)
    15f8:	00000a06 	andeq	r0, r0, r6, lsl #20
    15fc:	05020300 	streq	r0, [r2, #-768]	; 0xfffffd00
    1600:	000000c8 	andeq	r0, r0, r8, asr #1
    1604:	b3050403 	movwlt	r0, #21507	; 0x5403
    1608:	03000000 	movweq	r0, #0
    160c:	00ae0508 	adceq	r0, lr, r8, lsl #10
    1610:	01030000 	mrseq	r0, (UNDEF: 3)
    1614:	00000808 	andeq	r0, r0, r8, lsl #16
    1618:	07020300 	streq	r0, [r2, -r0, lsl #6]
    161c:	00000059 	andeq	r0, r0, r9, asr r0
    1620:	9c070403 	cfstrsls	mvf0, [r7], {3}
    1624:	03000000 	movweq	r0, #0
    1628:	00970708 	addseq	r0, r7, r8, lsl #14
    162c:	25040000 	strcs	r0, [r4, #-0]
    1630:	7a000000 	bvc	1638 <__code_start__-0x69c8>
    1634:	05000000 	streq	r0, [r0, #-0]
    1638:	00000025 	andeq	r0, r0, r5, lsr #32
    163c:	00bc0600 	adcseq	r0, ip, r0, lsl #12
    1640:	1c020000 	stcne	0, cr0, [r2], {-0}
    1644:	0000860e 	andeq	r8, r0, lr, lsl #12
    1648:	6b040700 	blvs	103250 <__bss_end__+0xf9128>
    164c:	04000000 	streq	r0, [r0], #-0
    1650:	00000025 	andeq	r0, r0, r5, lsr #32
    1654:	0000009b 	muleq	r0, fp, r0
    1658:	00009b05 	andeq	r9, r0, r5, lsl #22
    165c:	04070000 	streq	r0, [r7], #-0
    1660:	000000a8 	andeq	r0, r0, r8, lsr #1
    1664:	11080103 	tstne	r8, r3, lsl #2
    1668:	08000000 	stmdaeq	r0, {}	; <UNPREDICTABLE>
    166c:	000000a1 	andeq	r0, r0, r1, lsr #1
    1670:	00032006 	andeq	r2, r3, r6
    1674:	0e210200 	cdpeq	2, 2, cr0, cr1, cr0, {0}
    1678:	000000b9 	strheq	r0, [r0], -r9
    167c:	008c0407 	addeq	r0, ip, r7, lsl #8
    1680:	16090000 	strne	r0, [r9], -r0
    1684:	01000000 	mrseq	r0, (UNDEF: 0)
    1688:	8d300604 	ldchi	6, cr0, [r0, #-16]!
    168c:	002c0000 	eoreq	r0, ip, r0
    1690:	9c010000 	stcls	0, cr0, [r1], {-0}
    1694:	0000010e 	andeq	r0, r0, lr, lsl #2
    1698:	008d440a 	addeq	r4, sp, sl, lsl #8
    169c:	0000e800 	andeq	lr, r0, r0, lsl #16
    16a0:	50010b00 	andpl	r0, r1, r0, lsl #22
    16a4:	9af40305 	bls	ffd022c0 <__bss_end__+0xffcf8198>
    16a8:	0c000000 	stceq	0, cr0, [r0], {-0}
    16ac:	00008d48 	andeq	r8, r0, r8, asr #26
    16b0:	0000010e 	andeq	r0, r0, lr, lsl #2
    16b4:	008d500d 	addeq	r5, sp, sp
    16b8:	00011a00 	andeq	r1, r1, r0, lsl #20
    16bc:	00010400 	andeq	r0, r1, r0, lsl #8
    16c0:	50010b00 	andpl	r0, r1, r0, lsl #22
    16c4:	0c003a01 			; <UNDEFINED> instruction: 0x0c003a01
    16c8:	00008d54 	andeq	r8, r0, r4, asr sp
    16cc:	00000126 	andeq	r0, r0, r6, lsr #2
    16d0:	046a0e00 	strbteq	r0, [sl], #-3584	; 0xfffff200
    16d4:	046a0000 	strbteq	r0, [sl], #-0
    16d8:	4d020000 	stcmi	0, cr0, [r2, #-0]
    16dc:	04460e06 	strbeq	r0, [r6], #-3590	; 0xfffff1fa
    16e0:	04460000 	strbeq	r0, [r6], #-0
    16e4:	58020000 	stmdapl	r2, {}	; <UNPREDICTABLE>
    16e8:	043b0e06 	ldrteq	r0, [fp], #-3590	; 0xfffff1fa
    16ec:	043b0000 	ldrteq	r0, [fp], #-0
    16f0:	6b020000 	blvs	816f8 <__bss_end__+0x775d0>
    16f4:	01900006 	orrseq	r0, r0, r6
    16f8:	00040000 	andeq	r0, r4, r0
    16fc:	00000900 	andeq	r0, r0, r0, lsl #18
    1700:	021e0104 	andseq	r0, lr, #1
    1704:	a00c0000 	andge	r0, ip, r0
    1708:	f5000004 			; <UNDEFINED> instruction: 0xf5000004
    170c:	5c000002 	stcpl	0, cr0, [r0], {2}
    1710:	f800008d 			; <UNDEFINED> instruction: 0xf800008d
    1714:	18000000 	stmdane	r0, {}	; <UNPREDICTABLE>
    1718:	0200000f 	andeq	r0, r0, #15, 0
    171c:	6e690504 	cdpvs	5, 6, cr0, cr9, cr4, {0}
    1720:	04030074 	streq	r0, [r3], #-116	; 0xffffff8c
    1724:	0000a107 	andeq	sl, r0, r7, lsl #2
    1728:	06010300 	streq	r0, [r1], -r0, lsl #6
    172c:	0000000a 	andeq	r0, r0, sl
    1730:	c8050203 	stmdagt	r5, {r0, r1, r9}
    1734:	03000000 	movweq	r0, #0
    1738:	00b30504 	adcseq	r0, r3, r4, lsl #10
    173c:	08030000 	stmdaeq	r3, {}	; <UNPREDICTABLE>
    1740:	0000ae05 	andeq	sl, r0, r5, lsl #28
    1744:	08010300 	stmdaeq	r1, {r8, r9}
    1748:	00000008 	andeq	r0, r0, r8
    174c:	59070203 	stmdbpl	r7, {r0, r1, r9}
    1750:	03000000 	movweq	r0, #0
    1754:	009c0704 	addseq	r0, ip, r4, lsl #14
    1758:	08030000 	stmdaeq	r3, {}	; <UNPREDICTABLE>
    175c:	00009707 	andeq	r9, r0, r7, lsl #14
    1760:	00250400 	eoreq	r0, r5, r0, lsl #8
    1764:	007a0000 	rsbseq	r0, sl, r0
    1768:	25050000 	strcs	r0, [r5, #-0]
    176c:	00000000 	andeq	r0, r0, r0
    1770:	0000bc06 	andeq	fp, r0, r6, lsl #24
    1774:	0e1c0200 	cdpeq	2, 1, cr0, cr12, cr0, {0}
    1778:	00000086 	andeq	r0, r0, r6, lsl #1
    177c:	006b0407 	rsbeq	r0, fp, r7, lsl #8
    1780:	25040000 	strcs	r0, [r4, #-0]
    1784:	9b000000 	blls	178c <__code_start__-0x6874>
    1788:	05000000 	streq	r0, [r0, #-0]
    178c:	0000009b 	muleq	r0, fp, r0
    1790:	a8040700 	stmdage	r4, {r8, r9, sl}
    1794:	03000000 	movweq	r0, #0
    1798:	00110801 	andseq	r0, r1, r1, lsl #16
    179c:	a1080000 	mrsge	r0, (UNDEF: 8)
    17a0:	06000000 	streq	r0, [r0], -r0
    17a4:	00000320 	andeq	r0, r0, r0, lsr #6
    17a8:	b90e2102 	stmdblt	lr, {r1, r8, sp}
    17ac:	07000000 	streq	r0, [r0, -r0]
    17b0:	00008c04 	andeq	r8, r0, r4, lsl #24
    17b4:	04780900 	ldrbteq	r0, [r8], #-2304	; 0xfffff700
    17b8:	04010000 	streq	r0, [r1], #-0
    17bc:	008d5c06 	addeq	r5, sp, r6, lsl #24
    17c0:	0000f800 	andeq	pc, r0, r0, lsl #16
    17c4:	5b9c0100 	blpl	fe701bcc <__bss_end__+0xfe6f7aa4>
    17c8:	06000001 	streq	r0, [r0], -r1
    17cc:	00000366 	andeq	r0, r0, r6, ror #6
    17d0:	25100501 	ldrcs	r0, [r0, #-1281]	; 0xfffffaff
    17d4:	06000000 	streq	r0, [r0], -r0
    17d8:	0000038f 	andeq	r0, r0, pc, lsl #7
    17dc:	251f0501 	ldrcs	r0, [pc, #-1281]	; 12e3 <__code_start__-0x6d1d>
    17e0:	0a000000 	beq	17e8 <__code_start__-0x6818>
    17e4:	00000000 	andeq	r0, r0, r0
    17e8:	0b070601 	bleq	1c2ff4 <__bss_end__+0x1b8ecc>
    17ec:	00737362 	rsbseq	r7, r3, r2, ror #6
    17f0:	5b0a0a01 	blpl	283ffc <__bss_end__+0x279ed4>
    17f4:	72000001 	andvc	r0, r0, #1, 0
    17f8:	5a000018 	bpl	1860 <__code_start__-0x67a0>
    17fc:	0c000018 	stceq	0, cr0, [r0], {24}
    1800:	00000480 	andeq	r0, r0, r0, lsl #9
    1804:	5b0a0b01 	blpl	284410 <__bss_end__+0x27a2e8>
    1808:	0d000001 	stceq	0, cr0, [r0, #-4]
    180c:	00008e34 	andeq	r8, r0, r4, lsr lr
    1810:	00000008 	andeq	r0, r0, r8
    1814:	00000136 	andeq	r0, r0, r6, lsr r1
    1818:	006e690b 	rsbeq	r6, lr, fp, lsl #18
    181c:	2c051401 	cfstrscs	mvf1, [r5], {1}
    1820:	0c000000 	stceq	0, cr0, [r0], {-0}
    1824:	0a000019 	beq	1890 <__code_start__-0x6770>
    1828:	00000019 	andeq	r0, r0, r9, lsl r0
    182c:	008d640e 	addeq	r6, sp, lr, lsl #8
    1830:	00016100 	andeq	r6, r1, r0, lsl #2
    1834:	8e340e00 	cdphi	14, 3, cr0, cr4, cr0, {0}
    1838:	016e0000 	cmneq	lr, r0
    183c:	400e0000 	andmi	r0, lr, r0
    1840:	7a00008e 	bvc	1a80 <__code_start__-0x6580>
    1844:	0e000001 	cdpeq	0, 0, cr0, cr0, cr1, {0}
    1848:	00008e44 	andeq	r8, r0, r4, asr #28
    184c:	00000187 	andeq	r0, r0, r7, lsl #3
    1850:	25040700 	strcs	r0, [r4, #-1792]	; 0xfffff900
    1854:	0f000000 	svceq	0x00000000
    1858:	00000492 	muleq	r0, r2, r4
    185c:	00000492 	muleq	r0, r2, r4
    1860:	06013102 	streq	r3, [r1], -r2, lsl #2
    1864:	00048810 	andeq	r8, r4, r0, lsl r8
    1868:	00048800 	andeq	r8, r4, r0, lsl #16
    186c:	063b0200 	ldrteq	r0, [fp], -r0, lsl #4
    1870:	0000000f 	andeq	r0, r0, pc
    1874:	00000000 	andeq	r0, r0, r0
    1878:	01050200 	mrseq	r0, SP_usr
    187c:	00161006 	andseq	r1, r6, r6
    1880:	00160000 	andseq	r0, r6, r0
    1884:	6e020000 	cdpvs	0, 0, cr0, cr2, cr0, {0}
    1888:	00ce0006 	sbceq	r0, lr, r6
    188c:	00040000 	andeq	r0, r4, r0
    1890:	000009eb 	andeq	r0, r0, fp, ror #19
    1894:	021e0104 	andseq	r0, lr, #1
    1898:	b50c0000 	strlt	r0, [ip, #-0]
    189c:	f5000004 			; <UNDEFINED> instruction: 0xf5000004
    18a0:	54000002 	strpl	r0, [r0], #-2
    18a4:	0400008e 	streq	r0, [r0], #-142	; 0xffffff72
    18a8:	2e000000 	cdpcs	0, 0, cr0, cr0, cr0, {0}
    18ac:	02000010 	andeq	r0, r0, #16, 0
    18b0:	6e690504 	cdpvs	5, 6, cr0, cr9, cr4, {0}
    18b4:	04030074 	streq	r0, [r3], #-116	; 0xffffff8c
    18b8:	0000a107 	andeq	sl, r0, r7, lsl #2
    18bc:	06010300 	streq	r0, [r1], -r0, lsl #6
    18c0:	0000000a 	andeq	r0, r0, sl
    18c4:	c8050203 	stmdagt	r5, {r0, r1, r9}
    18c8:	03000000 	movweq	r0, #0
    18cc:	00b30504 	adcseq	r0, r3, r4, lsl #10
    18d0:	08030000 	stmdaeq	r3, {}	; <UNPREDICTABLE>
    18d4:	0000ae05 	andeq	sl, r0, r5, lsl #28
    18d8:	08010300 	stmdaeq	r1, {r8, r9}
    18dc:	00000008 	andeq	r0, r0, r8
    18e0:	59070203 	stmdbpl	r7, {r0, r1, r9}
    18e4:	03000000 	movweq	r0, #0
    18e8:	009c0704 	addseq	r0, ip, r4, lsl #14
    18ec:	08030000 	stmdaeq	r3, {}	; <UNPREDICTABLE>
    18f0:	00009707 	andeq	r9, r0, r7, lsl #14
    18f4:	00250400 	eoreq	r0, r5, r0, lsl #8
    18f8:	007a0000 	rsbseq	r0, sl, r0
    18fc:	25050000 	strcs	r0, [r5, #-0]
    1900:	00000000 	andeq	r0, r0, r0
    1904:	0000bc06 	andeq	fp, r0, r6, lsl #24
    1908:	0e1c0200 	cdpeq	2, 1, cr0, cr12, cr0, {0}
    190c:	00000086 	andeq	r0, r0, r6, lsl #1
    1910:	006b0407 	rsbeq	r0, fp, r7, lsl #8
    1914:	25040000 	strcs	r0, [r4, #-0]
    1918:	9b000000 	blls	1920 <__code_start__-0x66e0>
    191c:	05000000 	streq	r0, [r0, #-0]
    1920:	0000009b 	muleq	r0, fp, r0
    1924:	a8040700 	stmdage	r4, {r8, r9, sl}
    1928:	03000000 	movweq	r0, #0
    192c:	00110801 	andseq	r0, r1, r1, lsl #16
    1930:	a1080000 	mrsge	r0, (UNDEF: 8)
    1934:	06000000 	streq	r0, [r0], -r0
    1938:	00000320 	andeq	r0, r0, r0, lsr #6
    193c:	b90e2102 	stmdblt	lr, {r1, r8, sp}
    1940:	07000000 	streq	r0, [r0, -r0]
    1944:	00008c04 	andeq	r8, r0, r4, lsl #24
    1948:	04920900 	ldreq	r0, [r2], #2304	; 0x900
    194c:	04010000 	streq	r0, [r1], #-0
    1950:	008e5406 	addeq	r5, lr, r6, lsl #8
    1954:	00000400 	andeq	r0, r0, r0, lsl #8
    1958:	009c0100 	addseq	r0, ip, r0, lsl #2
    195c:	0000027d 	andeq	r0, r0, sp, ror r2
    1960:	0a640004 	beq	1901978 <__bss_end__+0x18f7850>
    1964:	01040000 	mrseq	r0, (UNDEF: 4)
    1968:	0000021e 	andeq	r0, r0, lr, lsl r2
    196c:	0004fd0c 	andeq	pc, r4, ip, lsl #26
    1970:	0002f500 	andeq	pc, r2, r0, lsl #10
    1974:	00020800 	andeq	r0, r2, r0, lsl #16
    1978:	00000000 	andeq	r0, r0, r0
    197c:	0010af00 	andseq	sl, r0, r0, lsl #30
    1980:	05040200 	streq	r0, [r4, #-512]	; 0xfffffe00
    1984:	00746e69 	rsbseq	r6, r4, r9, ror #28
    1988:	00002503 	andeq	r2, r0, r3, lsl #10
    198c:	07040400 	streq	r0, [r4, -r0, lsl #8]
    1990:	000000a1 	andeq	r0, r0, r1, lsr #1
    1994:	0a060104 	beq	181dac <__bss_end__+0x177c84>
    1998:	04000000 	streq	r0, [r0], #-0
    199c:	00c80502 	sbceq	r0, r8, r2, lsl #10
    19a0:	04040000 	streq	r0, [r4], #-0
    19a4:	0000b305 	andeq	fp, r0, r5, lsl #6
    19a8:	05080400 	streq	r0, [r8, #-1024]	; 0xfffffc00
    19ac:	000000ae 	andeq	r0, r0, lr, lsr #1
    19b0:	08080104 	stmdaeq	r8, {r2, r8}
    19b4:	04000000 	streq	r0, [r0], #-0
    19b8:	00590702 	subseq	r0, r9, r2, lsl #14
    19bc:	04040000 	streq	r0, [r4], #-0
    19c0:	00009c07 	andeq	r9, r0, r7, lsl #24
    19c4:	07080400 	streq	r0, [r8, -r0, lsl #8]
    19c8:	00000097 	muleq	r0, r7, r0
    19cc:	00002505 	andeq	r2, r0, r5, lsl #10
    19d0:	00007f00 	andeq	r7, r0, r0, lsl #30
    19d4:	00250600 	eoreq	r0, r5, r0, lsl #12
    19d8:	07000000 	streq	r0, [r0, -r0]
    19dc:	000000bc 	strheq	r0, [r0], -ip
    19e0:	8b0e1c02 	blhi	3889f0 <__bss_end__+0x37e8c8>
    19e4:	08000000 	stmdaeq	r0, {}	; <UNPREDICTABLE>
    19e8:	00007004 	andeq	r7, r0, r4
    19ec:	00250500 	eoreq	r0, r5, r0, lsl #10
    19f0:	00a00000 	adceq	r0, r0, r0
    19f4:	a0060000 	andge	r0, r6, r0
    19f8:	00000000 	andeq	r0, r0, r0
    19fc:	00ad0408 	adceq	r0, sp, r8, lsl #8
    1a00:	01040000 	mrseq	r0, (UNDEF: 4)
    1a04:	00001108 	andeq	r1, r0, r8, lsl #2
    1a08:	00a60300 	adceq	r0, r6, r0, lsl #6
    1a0c:	20070000 	andcs	r0, r7, r0
    1a10:	02000003 	andeq	r0, r0, #3, 0
    1a14:	00be0e21 	adcseq	r0, lr, r1, lsr #28
    1a18:	04080000 	streq	r0, [r8], #-0
    1a1c:	00000091 	muleq	r0, r1, r0
    1a20:	00052109 	andeq	r2, r5, r9, lsl #2
    1a24:	110d0100 	mrsne	r0, (UNDEF: 29)
    1a28:	00000031 	andeq	r0, r0, r1, lsr r0
    1a2c:	00043b0a 	andeq	r3, r4, sl, lsl #22
    1a30:	061f0100 	ldreq	r0, [pc], -r0, lsl #2
    1a34:	00008e84 	andeq	r8, r0, r4, lsl #29
    1a38:	00000060 	andeq	r0, r0, r0, rrx
    1a3c:	01d59c01 	bicseq	r9, r5, r1, lsl #24
    1a40:	450b0000 	strmi	r0, [fp, #-0]
    1a44:	01000005 	tsteq	r0, r5
    1a48:	002c0f2c 	eoreq	r0, ip, ip, lsr #30
    1a4c:	001c0000 	andseq	r0, ip, r0
    1a50:	e00b2010 	and	r2, fp, r0, lsl r0
    1a54:	01000004 	tsteq	r0, r4
    1a58:	002c0f2d 	eoreq	r0, ip, sp, lsr #30
    1a5c:	00240000 	eoreq	r0, r4, r0
    1a60:	120b2010 	andne	r2, fp, #16, 0
    1a64:	01000005 	tsteq	r0, r5
    1a68:	002c0f2e 	eoreq	r0, ip, lr, lsr #30
    1a6c:	00000000 	andeq	r0, r0, r0
    1a70:	2c0c5a00 			; <UNDEFINED> instruction: 0x2c0c5a00
    1a74:	01000005 	tsteq	r0, r5
    1a78:	002c0f2f 	eoreq	r0, ip, pc, lsr #30
    1a7c:	0d200000 	stceq	0, cr0, [r0, #-0]
    1a80:	000001ef 	andeq	r0, r0, pc, ror #3
    1a84:	00008e84 	andeq	r8, r0, r4, lsl #29
    1a88:	0001f002 	andeq	pc, r1, r2
    1a8c:	08200100 	stmdaeq	r0!, {r8}
    1a90:	0000014c 	andeq	r0, r0, ip, asr #2
    1a94:	0001f00e 	andeq	pc, r1, lr
    1a98:	02000f00 	andeq	r0, r0, #0, 30
    1a9c:	19240000 	stmdbne	r4!, {}	; <UNPREDICTABLE>
    1aa0:	19200000 	stmdbne	r0!, {}	; <UNPREDICTABLE>
    1aa4:	00000000 	andeq	r0, r0, r0
    1aa8:	0001d510 	andeq	sp, r1, r0, lsl r5
    1aac:	008e9800 	addeq	r9, lr, r0, lsl #16
    1ab0:	8e980100 	fmlhie	f0, f0, f0
    1ab4:	00100000 	andseq	r0, r0, r0
    1ab8:	21010000 	mrscs	r0, (UNDEF: 1)
    1abc:	00017309 	andeq	r7, r1, r9, lsl #6
    1ac0:	01e20f00 	mvneq	r0, r0, lsl #30
    1ac4:	194b0000 	stmdbne	fp, {}^	; <UNPREDICTABLE>
    1ac8:	19430000 	stmdbne	r3, {}^	; <UNPREDICTABLE>
    1acc:	11000000 	mrsne	r0, (UNDEF: 0)
    1ad0:	00008eac 	andeq	r8, r0, ip, lsr #29
    1ad4:	0000024f 	andeq	r0, r0, pc, asr #4
    1ad8:	008eb011 	addeq	fp, lr, r1, lsl r0
    1adc:	00025c00 	andeq	r5, r2, r0, lsl #24
    1ae0:	8eb81200 	cdphi	2, 11, cr1, cr8, cr0, {0}
    1ae4:	02680000 	rsbeq	r0, r8, #0, 0
    1ae8:	01980000 	orrseq	r0, r8, r0
    1aec:	01130000 	tsteq	r3, r0
    1af0:	003a0150 	eorseq	r0, sl, r0, asr r1
    1af4:	008ec412 	addeq	ip, lr, r2, lsl r4
    1af8:	00027400 	andeq	r7, r2, r0, lsl #8
    1afc:	0001b800 	andeq	fp, r1, r0, lsl #16
    1b00:	50011300 	andpl	r1, r1, r0, lsl #6
    1b04:	00240c05 	eoreq	r0, r4, r5, lsl #24
    1b08:	01132010 	tsteq	r3, r0, lsl r0
    1b0c:	010c0551 	tsteq	ip, r1, asr r5
    1b10:	005a0000 	subseq	r0, sl, r0
    1b14:	008ed014 	addeq	sp, lr, r4, lsl r0
    1b18:	00027400 	andeq	r7, r2, r0, lsl #8
    1b1c:	50011300 	andpl	r1, r1, r0, lsl #6
    1b20:	001c0c05 	andseq	r0, ip, r5, lsl #24
    1b24:	01132010 	tsteq	r3, r0, lsl r0
    1b28:	200c0551 	andcs	r0, ip, r1, asr r5
    1b2c:	005a0000 	subseq	r0, sl, r0
    1b30:	04ee1500 	strbteq	r1, [lr], #1280	; 0x500
    1b34:	17010000 	strne	r0, [r1, -r0]
    1b38:	01ef0106 	mvneq	r0, r6, lsl #2
    1b3c:	4d090000 	stcmi	0, cr0, [r9, #-0]
    1b40:	01000005 	tsteq	r0, r5
    1b44:	00310e18 	eorseq	r0, r1, r8, lsl lr
    1b48:	16000000 	strne	r0, [r0], -r0
    1b4c:	0000051e 	andeq	r0, r0, lr, lsl r5
    1b50:	25050e01 	strcs	r0, [r5, #-3585]	; 0xfffff1ff
    1b54:	01000000 	mrseq	r0, (UNDEF: 0)
    1b58:	0000020d 	andeq	r0, r0, sp, lsl #4
    1b5c:	00054d09 	andeq	r4, r5, r9, lsl #26
    1b60:	0e0f0100 	adfeqe	f0, f7, f0
    1b64:	00000031 	andeq	r0, r0, r1, lsr r0
    1b68:	01ef1700 	mvneq	r1, r0, lsl #14
    1b6c:	8e580000 	cdphi	0, 5, cr0, cr8, cr0, {0}
    1b70:	00180000 	andseq	r0, r8, r0
    1b74:	9c010000 	stcls	0, cr0, [r1], {-0}
    1b78:	0000022e 	andeq	r0, r0, lr, lsr #4
    1b7c:	0002000f 	andeq	r0, r2, pc
    1b80:	00198800 	andseq	r8, r9, r0, lsl #16
    1b84:	00198400 	andseq	r8, r9, r0, lsl #8
    1b88:	d5170000 	ldrle	r0, [r7, #-0]
    1b8c:	70000001 	andvc	r0, r0, r1
    1b90:	1400008e 	strne	r0, [r0], #-142	; 0xffffff72
    1b94:	01000000 	mrseq	r0, (UNDEF: 0)
    1b98:	00024f9c 	muleq	r2, ip, pc	; <UNPREDICTABLE>
    1b9c:	01e20f00 	mvneq	r0, r0, lsl #30
    1ba0:	19af0000 	stmibne	pc!, {}	; <UNPREDICTABLE>
    1ba4:	19a70000 	stmibne	r7!, {}	; <UNPREDICTABLE>
    1ba8:	18000000 	stmdane	r0, {}	; <UNPREDICTABLE>
    1bac:	000004d1 	ldrdeq	r0, [r0], -r1
    1bb0:	000004d1 	ldrdeq	r0, [r0], -r1
    1bb4:	06013602 	streq	r3, [r1], -r2, lsl #12
    1bb8:	00046a19 	andeq	r6, r4, r9, lsl sl
    1bbc:	00046a00 	andeq	r6, r4, r0, lsl #20
    1bc0:	064d0200 	strbeq	r0, [sp], -r0, lsl #4
    1bc4:	00044619 	andeq	r4, r4, r9, lsl r6
    1bc8:	00044600 	andeq	r4, r4, r0, lsl #12
    1bcc:	06580200 	ldrbeq	r0, [r8], -r0, lsl #4
    1bd0:	0004e819 	andeq	lr, r4, r9, lsl r8
    1bd4:	0004e800 	andeq	lr, r4, r0, lsl #16
    1bd8:	06ad0200 	strteq	r0, [sp], r0, lsl #4
    1bdc:	00053f00 	andeq	r3, r5, r0, lsl #30
    1be0:	e7000400 	str	r0, [r0, -r0, lsl #8]
    1be4:	0400000b 	streq	r0, [r0], #-11
    1be8:	00021e01 	andeq	r1, r2, r1, lsl #28
    1bec:	05680c00 	strbeq	r0, [r8, #-3072]!	; 0xfffff400
    1bf0:	02f50000 	rscseq	r0, r5, #0, 0
    1bf4:	8ee40000 	cdphi	0, 14, cr0, cr4, cr0, {0}
    1bf8:	011c0000 	tsteq	ip, r0
    1bfc:	11c70000 	bicne	r0, r7, r0
    1c00:	04020000 	streq	r0, [r2], #-0
    1c04:	746e6905 	strbtvc	r6, [lr], #-2309	; 0xfffff6fb
    1c08:	07040300 	streq	r0, [r4, -r0, lsl #6]
    1c0c:	000000a1 	andeq	r0, r0, r1, lsr #1
    1c10:	0a060103 	beq	182024 <__bss_end__+0x177efc>
    1c14:	03000000 	movweq	r0, #0
    1c18:	00c80502 	sbceq	r0, r8, r2, lsl #10
    1c1c:	04030000 	streq	r0, [r3], #-0
    1c20:	0000b305 	andeq	fp, r0, r5, lsl #6
    1c24:	05080300 	streq	r0, [r8, #-768]	; 0xfffffd00
    1c28:	000000ae 	andeq	r0, r0, lr, lsr #1
    1c2c:	08080103 	stmdaeq	r8, {r0, r1, r8}
    1c30:	03000000 	movweq	r0, #0
    1c34:	00590702 	subseq	r0, r9, r2, lsl #14
    1c38:	04030000 	streq	r0, [r3], #-0
    1c3c:	00009c07 	andeq	r9, r0, r7, lsl #24
    1c40:	07080300 	streq	r0, [r8, -r0, lsl #6]
    1c44:	00000097 	muleq	r0, r7, r0
    1c48:	00002504 	andeq	r2, r0, r4, lsl #10
    1c4c:	00007a00 	andeq	r7, r0, r0, lsl #20
    1c50:	00250500 	eoreq	r0, r5, r0, lsl #10
    1c54:	06000000 	streq	r0, [r0], -r0
    1c58:	000000bc 	strheq	r0, [r0], -ip
    1c5c:	860e1c02 	strhi	r1, [lr], -r2, lsl #24
    1c60:	07000000 	streq	r0, [r0, -r0]
    1c64:	00006b04 	andeq	r6, r0, r4, lsl #22
    1c68:	00250400 	eoreq	r0, r5, r0, lsl #8
    1c6c:	009b0000 	addseq	r0, fp, r0
    1c70:	9b050000 	blls	141c78 <__bss_end__+0x137b50>
    1c74:	00000000 	andeq	r0, r0, r0
    1c78:	00a80407 	adceq	r0, r8, r7, lsl #8
    1c7c:	01030000 	mrseq	r0, (UNDEF: 3)
    1c80:	00001108 	andeq	r1, r0, r8, lsl #2
    1c84:	00a10800 	adceq	r0, r1, r0, lsl #16
    1c88:	20060000 	andcs	r0, r6, r0
    1c8c:	02000003 	andeq	r0, r0, #3, 0
    1c90:	00b90e21 	adcseq	r0, r9, r1, lsr #28
    1c94:	04070000 	streq	r0, [r7], #-0
    1c98:	0000008c 	andeq	r0, r0, ip, lsl #1
    1c9c:	00055e09 	andeq	r5, r5, r9, lsl #28
    1ca0:	061e0100 	ldreq	r0, [lr], -r0, lsl #2
    1ca4:	00008fac 	andeq	r8, r0, ip, lsr #31
    1ca8:	00000054 	andeq	r0, r0, r4, asr r0
    1cac:	020b9c01 	andeq	r9, fp, #256	; 0x100
    1cb0:	730a0000 	movwvc	r0, #40960	; 0xa000
    1cb4:	01006365 	tsteq	r0, r5, ror #6
    1cb8:	002c191e 	eoreq	r1, ip, lr, lsl r9
    1cbc:	19ec0000 	stmibne	ip!, {}^	; <UNPREDICTABLE>
    1cc0:	19e80000 	stmibne	r8!, {}^	; <UNPREDICTABLE>
    1cc4:	0b0b0000 	bleq	2c1ccc <__bss_end__+0x2b7ba4>
    1cc8:	ac000002 	stcge	0, cr0, [r0], {2}
    1ccc:	0200008f 	andeq	r0, r0, #143, 0	; 0x8f
    1cd0:	000002d0 	ldrdeq	r0, [r0], -r0	; <UNPREDICTABLE>
    1cd4:	0c051f01 	stceq	15, cr1, [r5], {1}
    1cd8:	00000218 	andeq	r0, r0, r8, lsl r2
    1cdc:	00001a11 	andeq	r1, r0, r1, lsl sl
    1ce0:	00001a0d 	andeq	r1, r0, sp, lsl #20
    1ce4:	0002240d 	andeq	r2, r2, sp, lsl #8
    1ce8:	008fc000 	addeq	ip, pc, r0
    1cec:	8fc00000 	svchi	0x00c00000
    1cf0:	00400000 	subeq	r0, r0, r0
    1cf4:	1c010000 	stcne	0, cr0, [r1], {-0}
    1cf8:	02310c05 	eorseq	r0, r1, #1280	; 0x500
    1cfc:	1a3e0000 	bne	f81d04 <__bss_end__+0xf77bdc>
    1d00:	1a3c0000 	bne	f01d08 <__bss_end__+0xef7be0>
    1d04:	3c0e0000 	stccc	0, cr0, [lr], {-0}
    1d08:	53000002 	movwpl	r0, #2
    1d0c:	5100001a 	tstpl	r0, sl, lsl r0
    1d10:	0f00001a 	svceq	0x0000001a
    1d14:	00000255 	andeq	r0, r0, r5, asr r2
    1d18:	00008fc0 	andeq	r8, r0, r0, asr #31
    1d1c:	008fc002 	addeq	ip, pc, r2
    1d20:	00001400 	andeq	r1, r0, r0, lsl #8
    1d24:	13130100 	tstne	r3, #0
    1d28:	0000019c 	muleq	r0, ip, r1
    1d2c:	0002660e 	andeq	r6, r2, lr, lsl #12
    1d30:	001a6a00 	andseq	r6, sl, r0, lsl #20
    1d34:	001a6600 	andseq	r6, sl, r0, lsl #12
    1d38:	02710f00 	rsbseq	r0, r1, #0, 30
    1d3c:	8fc40000 	svchi	0x00c40000
    1d40:	c4010000 	strgt	r0, [r1], #-0
    1d44:	0c00008f 	stceq	0, cr0, [r0], {143}	; 0x8f
    1d48:	01000000 	mrseq	r0, (UNDEF: 0)
    1d4c:	0189120d 	orreq	r1, r9, sp, lsl #4
    1d50:	cc100000 	ldcgt	0, cr0, [r0], {-0}
    1d54:	2a00008f 	bcs	1f98 <__code_start__-0x6068>
    1d58:	11000005 	tstne	r0, r5
    1d5c:	0c055001 	stceq	0, cr5, [r5], {1}
    1d60:	20003004 	andcs	r3, r0, r4
    1d64:	c4120000 	ldrgt	r0, [r2], #-0
    1d68:	3600008f 	strcc	r0, [r0], -pc, lsl #1
    1d6c:	12000005 	andne	r0, r0, #5, 0
    1d70:	00008fd4 	ldrdeq	r8, [r0], -r4
    1d74:	00000536 	andeq	r0, r0, r6, lsr r5
    1d78:	02471300 	subeq	r1, r7, #0, 6
    1d7c:	02e80000 	rsceq	r0, r8, #0, 0
    1d80:	48140000 	ldmdami	r4, {}	; <UNPREDICTABLE>
    1d84:	0b000002 	bleq	1d94 <__code_start__-0x626c>
    1d88:	00000255 	andeq	r0, r0, r5, asr r2
    1d8c:	00008fd8 	ldrdeq	r8, [r0], -r8	; <UNPREDICTABLE>
    1d90:	00030002 	andeq	r0, r3, r2
    1d94:	17150100 	ldrne	r0, [r5, -r0, lsl #2]
    1d98:	00030015 	andeq	r0, r3, r5, lsl r0
    1d9c:	02660e00 	rsbeq	r0, r6, #0, 28
    1da0:	1a8a0000 	bne	fe281da8 <__bss_end__+0xfe277c80>
    1da4:	1a880000 	bne	fe201dac <__bss_end__+0xfe1f7c84>
    1da8:	71160000 	tstvc	r6, r0
    1dac:	dc000002 	stcle	0, cr0, [r0], {2}
    1db0:	0100008f 	smlabbeq	r0, pc, r0, r0	; <UNPREDICTABLE>
    1db4:	00000320 	andeq	r0, r0, r0, lsr #6
    1db8:	f3120d01 	vpadd.f16	d0, d2, d1
    1dbc:	10000001 	andne	r0, r0, r1
    1dc0:	00008fe4 	andeq	r8, r0, r4, ror #31
    1dc4:	0000052a 	andeq	r0, r0, sl, lsr #10
    1dc8:	02500111 	subseq	r0, r0, #1073741828	; 0x40000004
    1dcc:	00000077 	andeq	r0, r0, r7, ror r0
    1dd0:	008fdc12 	addeq	sp, pc, r2, lsl ip	; <UNPREDICTABLE>
    1dd4:	00053600 	andeq	r3, r5, r0, lsl #12
    1dd8:	8ff01200 	svchi	0x00f01200
    1ddc:	05360000 	ldreq	r0, [r6, #-0]!
	...
    1de8:	00044617 	andeq	r4, r4, r7, lsl r6
    1dec:	061b0100 	ldreq	r0, [fp], -r0, lsl #2
    1df0:	00022401 	andeq	r2, r2, r1, lsl #8
    1df4:	736d1800 	cmnvc	sp, #0, 16
    1df8:	181b0100 	ldmdane	fp, {r8}
    1dfc:	0000002c 	andeq	r0, r0, ip, lsr #32
    1e00:	05911700 	ldreq	r1, [r1, #1792]	; 0x700
    1e04:	12010000 	andne	r0, r1, #0, 0
    1e08:	02550106 	subseq	r0, r5, #-2147483647	; 0x80000001
    1e0c:	75180000 	ldrvc	r0, [r8, #-0]
    1e10:	12010073 	andne	r0, r1, #115, 0	; 0x73
    1e14:	00002c18 	andeq	r2, r0, r8, lsl ip
    1e18:	62721900 	rsbsvs	r1, r2, #0, 18
    1e1c:	0e130100 	mufeqs	f0, f3, f0
    1e20:	0000002c 	andeq	r0, r0, ip, lsr #32
    1e24:	6172191a 	cmnvs	r2, sl, lsl r9
    1e28:	12150100 	andsne	r0, r5, #0
    1e2c:	0000002c 	andeq	r0, r0, ip, lsr #32
    1e30:	821b0000 	andshi	r0, fp, #0, 0
    1e34:	01000005 	tsteq	r0, r5
    1e38:	002c0a09 	eoreq	r0, ip, r9, lsl #20
    1e3c:	71010000 	mrsvc	r0, (UNDEF: 1)
    1e40:	19000002 	stmdbne	r0, {r1}
    1e44:	0d010075 	stceq	0, cr0, [r1, #-468]	; 0xfffffe2c
    1e48:	00002c0e 	andeq	r2, r0, lr, lsl #24
    1e4c:	9a1c0000 	bls	701e54 <__bss_end__+0x6f7d2c>
    1e50:	01000005 	tsteq	r0, r5
    1e54:	002c0a04 	eoreq	r0, ip, r4, lsl #20
    1e58:	1d010000 	stcne	0, cr0, [r1, #-0]
    1e5c:	00000271 	andeq	r0, r0, r1, ror r2
    1e60:	00008ee4 	andeq	r8, r0, r4, ror #29
    1e64:	0000000c 	andeq	r0, r0, ip
    1e68:	02a59c01 	adceq	r9, r5, #256	; 0x100
    1e6c:	ec1e0000 	ldc	0, cr0, [lr], {-0}
    1e70:	2a00008e 	bcs	20b0 <__code_start__-0x5f50>
    1e74:	11000005 	tstne	r0, r5
    1e78:	0c055001 	stceq	0, cr5, [r5], {1}
    1e7c:	20003004 	andcs	r3, r0, r4
    1e80:	551d0000 	ldrpl	r0, [sp, #-0]
    1e84:	f0000002 			; <UNDEFINED> instruction: 0xf0000002
    1e88:	2400008e 	strcs	r0, [r0], #-142	; 0xffffff72
    1e8c:	01000000 	mrseq	r0, (UNDEF: 0)
    1e90:	0003059c 	muleq	r3, ip, r5
    1e94:	02660e00 	rsbeq	r0, r6, #0, 28
    1e98:	1aa10000 	bne	fe841ea0 <__bss_end__+0xfe837d78>
    1e9c:	1a9d0000 	bne	fe741ea4 <__bss_end__+0xfe737d7c>
    1ea0:	710f0000 	mrsvc	r0, CPSR
    1ea4:	f8000002 			; <UNDEFINED> instruction: 0xf8000002
    1ea8:	0100008e 	smlabbeq	r0, lr, r0, r0
    1eac:	00008ef8 	strdeq	r8, [r0], -r8	; <UNPREDICTABLE>
    1eb0:	0000000c 	andeq	r0, r0, ip
    1eb4:	f2120d01 	vadd.f16	d0, d2, d1
    1eb8:	10000002 	andne	r0, r0, r2
    1ebc:	00008f00 	andeq	r8, r0, r0, lsl #30
    1ec0:	0000052a 	andeq	r0, r0, sl, lsr #10
    1ec4:	05500111 	ldrbeq	r0, [r0, #-273]	; 0xfffffeef
    1ec8:	0030040c 	eorseq	r0, r0, ip, lsl #8
    1ecc:	12000020 	andne	r0, r0, #32, 0
    1ed0:	00008ef8 	strdeq	r8, [r0], -r8	; <UNPREDICTABLE>
    1ed4:	00000536 	andeq	r0, r0, r6, lsr r5
    1ed8:	008f0812 	addeq	r0, pc, r2, lsl r8	; <UNPREDICTABLE>
    1edc:	00053600 	andeq	r3, r5, r0, lsl #12
    1ee0:	241d0000 	ldrcs	r0, [sp], #-0
    1ee4:	14000002 	strne	r0, [r0], #-2
    1ee8:	4800008f 	stmdami	r0, {r0, r1, r2, r3, r7}
    1eec:	01000000 	mrseq	r0, (UNDEF: 0)
    1ef0:	0004079c 	muleq	r4, ip, r7
    1ef4:	02310c00 	eorseq	r0, r1, #0, 24
    1ef8:	1ac30000 	bne	ff0c1f00 <__bss_end__+0xff0b7dd8>
    1efc:	1abf0000 	bne	fefc1f04 <__bss_end__+0xfefb7ddc>
    1f00:	3c0e0000 	stccc	0, cr0, [lr], {-0}
    1f04:	e3000002 	movw	r0, #2
    1f08:	e100001a 	tst	r0, sl, lsl r0
    1f0c:	1600001a 			; <UNDEFINED> instruction: 0x1600001a
    1f10:	00000255 	andeq	r0, r0, r5, asr r2
    1f14:	00008f14 	andeq	r8, r0, r4, lsl pc
    1f18:	00021802 	andeq	r1, r2, r2, lsl #16
    1f1c:	13130100 	tstne	r3, #0
    1f20:	0000039a 	muleq	r0, sl, r3
    1f24:	00021815 	andeq	r1, r2, r5, lsl r8
    1f28:	02660e00 	rsbeq	r0, r6, #0, 28
    1f2c:	1afa0000 	bne	ffe81f34 <__bss_end__+0xffe77e0c>
    1f30:	1af60000 	bne	ffd81f38 <__bss_end__+0xffd77e10>
    1f34:	710f0000 	mrsvc	r0, CPSR
    1f38:	20000002 	andcs	r0, r0, r2
    1f3c:	0100008f 	smlabbeq	r0, pc, r0, r0	; <UNPREDICTABLE>
    1f40:	00008f20 	andeq	r8, r0, r0, lsr #30
    1f44:	0000000c 	andeq	r0, r0, ip
    1f48:	86120d01 	ldrhi	r0, [r2], -r1, lsl #26
    1f4c:	10000003 	andne	r0, r0, r3
    1f50:	00008f28 	andeq	r8, r0, r8, lsr #30
    1f54:	0000052a 	andeq	r0, r0, sl, lsr #10
    1f58:	05500111 	ldrbeq	r0, [r0, #-273]	; 0xfffffeef
    1f5c:	0030040c 	eorseq	r0, r0, ip, lsl #8
    1f60:	12000020 	andne	r0, r0, #32, 0
    1f64:	00008f20 	andeq	r8, r0, r0, lsr #30
    1f68:	00000536 	andeq	r0, r0, r6, lsr r5
    1f6c:	008f3012 	addeq	r3, pc, r2, lsl r0	; <UNPREDICTABLE>
    1f70:	00053600 	andeq	r3, r5, r0, lsl #12
    1f74:	13000000 	movwne	r0, #0
    1f78:	00000247 	andeq	r0, r0, r7, asr #4
    1f7c:	00000230 	andeq	r0, r0, r0, lsr r2
    1f80:	00024814 	andeq	r4, r2, r4, lsl r8
    1f84:	02550b00 	subseq	r0, r5, #0, 22
    1f88:	8f340000 	svchi	0x00340000
    1f8c:	48020000 	stmdami	r2, {}	; <UNPREDICTABLE>
    1f90:	01000002 	tsteq	r0, r2
    1f94:	48151715 	ldmdami	r5, {r0, r2, r4, r8, r9, sl, ip}
    1f98:	0e000002 	cdpeq	0, 0, cr0, cr0, cr2, {0}
    1f9c:	00000266 	andeq	r0, r0, r6, ror #4
    1fa0:	00001b1a 	andeq	r1, r0, sl, lsl fp
    1fa4:	00001b18 	andeq	r1, r0, r8, lsl fp
    1fa8:	00027116 	andeq	r7, r2, r6, lsl r1
    1fac:	008f3800 	addeq	r3, pc, r0, lsl #16
    1fb0:	02680100 	rsbeq	r0, r8, #0
    1fb4:	0d010000 	stceq	0, cr0, [r1, #-0]
    1fb8:	0003f112 	andeq	pc, r3, r2, lsl r1	; <UNPREDICTABLE>
    1fbc:	8f401000 	svchi	0x00401000
    1fc0:	052a0000 	streq	r0, [sl, #-0]!
    1fc4:	01110000 	tsteq	r1, r0
    1fc8:	00770250 	rsbseq	r0, r7, r0, asr r2
    1fcc:	38120000 	ldmdacc	r2, {}	; <UNPREDICTABLE>
    1fd0:	3600008f 	strcc	r0, [r0], -pc, lsl #1
    1fd4:	12000005 	andne	r0, r0, #5, 0
    1fd8:	00008f4c 	andeq	r8, r0, ip, asr #30
    1fdc:	00000536 	andeq	r0, r0, r6, lsr r5
    1fe0:	00000000 	andeq	r0, r0, r0
    1fe4:	00020b1d 	andeq	r0, r2, sp, lsl fp
    1fe8:	008f5c00 	addeq	r5, pc, r0, lsl #24
    1fec:	00005000 	andeq	r5, r0, r0
    1ff0:	2a9c0100 	bcs	fe7023f8 <__bss_end__+0xfe6f82d0>
    1ff4:	0c000005 	stceq	0, cr0, [r0], {5}
    1ff8:	00000218 	andeq	r0, r0, r8, lsl r2
    1ffc:	00001b31 	andeq	r1, r0, r1, lsr fp
    2000:	00001b2d 	andeq	r1, r0, sp, lsr #22
    2004:	0002240d 	andeq	r2, r2, sp, lsl #8
    2008:	008f6c00 	addeq	r6, pc, r0, lsl #24
    200c:	8f6c0000 	svchi	0x006c0000
    2010:	00400000 	subeq	r0, r0, r0
    2014:	1c010000 	stcne	0, cr0, [r1], {-0}
    2018:	02310c05 	eorseq	r0, r1, #1280	; 0x500
    201c:	1b540000 	blne	1502024 <__bss_end__+0x14f7efc>
    2020:	1b520000 	blne	1482028 <__bss_end__+0x1477f00>
    2024:	3c0e0000 	stccc	0, cr0, [lr], {-0}
    2028:	69000002 	stmdbvs	r0, {r1}
    202c:	6700001b 	smladvs	r0, fp, r0, r0
    2030:	0f00001b 	svceq	0x0000001b
    2034:	00000255 	andeq	r0, r0, r5, asr r2
    2038:	00008f6c 	andeq	r8, r0, ip, ror #30
    203c:	008f6c02 	addeq	r6, pc, r2, lsl #24
    2040:	00001400 	andeq	r1, r0, r0, lsl #8
    2044:	13130100 	tstne	r3, #0
    2048:	000004bc 			; <UNDEFINED> instruction: 0x000004bc
    204c:	0002660e 	andeq	r6, r2, lr, lsl #12
    2050:	001b8000 	andseq	r8, fp, r0
    2054:	001b7c00 	andseq	r7, fp, r0, lsl #24
    2058:	02710f00 	rsbseq	r0, r1, #0, 30
    205c:	8f700000 	svchi	0x00700000
    2060:	70010000 	andvc	r0, r1, r0
    2064:	0c00008f 	stceq	0, cr0, [r0], {143}	; 0x8f
    2068:	01000000 	mrseq	r0, (UNDEF: 0)
    206c:	04a9120d 	strteq	r1, [r9], #525	; 0x20d
    2070:	78100000 	ldmdavc	r0, {}	; <UNPREDICTABLE>
    2074:	2a00008f 	bcs	22b8 <__code_start__-0x5d48>
    2078:	11000005 	tstne	r0, r5
    207c:	0c055001 	stceq	0, cr5, [r5], {1}
    2080:	20003004 	andcs	r3, r0, r4
    2084:	70120000 	andsvc	r0, r2, r0
    2088:	3600008f 	strcc	r0, [r0], -pc, lsl #1
    208c:	12000005 	andne	r0, r0, #5, 0
    2090:	00008f80 	andeq	r8, r0, r0, lsl #31
    2094:	00000536 	andeq	r0, r0, r6, lsr r5
    2098:	02471300 	subeq	r1, r7, #0, 6
    209c:	02800000 	addeq	r0, r0, #0, 0
    20a0:	48140000 	ldmdami	r4, {}	; <UNPREDICTABLE>
    20a4:	0b000002 	bleq	20b4 <__code_start__-0x5f4c>
    20a8:	00000255 	andeq	r0, r0, r5, asr r2
    20ac:	00008f84 	andeq	r8, r0, r4, lsl #31
    20b0:	00029802 	andeq	r9, r2, r2, lsl #16
    20b4:	17150100 	ldrne	r0, [r5, -r0, lsl #2]
    20b8:	00029815 	andeq	r9, r2, r5, lsl r8
    20bc:	02660e00 	rsbeq	r0, r6, #0, 28
    20c0:	1ba00000 	blne	fe8020c8 <__bss_end__+0xfe7f7fa0>
    20c4:	1b9e0000 	blne	fe7820cc <__bss_end__+0xfe777fa4>
    20c8:	71160000 	tstvc	r6, r0
    20cc:	88000002 	stmdahi	r0, {r1}
    20d0:	0100008f 	smlabbeq	r0, pc, r0, r0	; <UNPREDICTABLE>
    20d4:	000002b8 			; <UNDEFINED> instruction: 0x000002b8
    20d8:	13120d01 	tstne	r2, #64	; 0x40
    20dc:	10000005 	andne	r0, r0, r5
    20e0:	00008f90 	muleq	r0, r0, pc	; <UNPREDICTABLE>
    20e4:	0000052a 	andeq	r0, r0, sl, lsr #10
    20e8:	02500111 	subseq	r0, r0, #1073741828	; 0x40000004
    20ec:	00000077 	andeq	r0, r0, r7, ror r0
    20f0:	008f8812 	addeq	r8, pc, r2, lsl r8	; <UNPREDICTABLE>
    20f4:	00053600 	andeq	r3, r5, r0, lsl #12
    20f8:	8f9c1200 	svchi	0x009c1200
    20fc:	05360000 	ldreq	r0, [r6, #-0]!
    2100:	00000000 	andeq	r0, r0, r0
    2104:	1f000000 	svcne	0x00000000
    2108:	0000057c 	andeq	r0, r0, ip, ror r5
    210c:	0000057c 	andeq	r0, r0, ip, ror r5
    2110:	1f0ac202 	svcne	0x000ac202
    2114:	00000552 	andeq	r0, r0, r2, asr r5
    2118:	00000552 	andeq	r0, r0, r2, asr r5
    211c:	00069c02 	andeq	r9, r6, r2, lsl #24
    2120:	000005cd 	andeq	r0, r0, sp, asr #11
    2124:	0db60004 	ldceq	0, cr0, [r6, #16]!
    2128:	01040000 	mrseq	r0, (UNDEF: 4)
    212c:	000006ad 	andeq	r0, r0, sp, lsr #13
    2130:	0005ec0c 	andeq	lr, r5, ip, lsl #24
    2134:	00065d00 	andeq	r5, r6, r0, lsl #26
    2138:	00900000 	addseq	r0, r0, r0
    213c:	0001f000 	andeq	pc, r1, r0
    2140:	0013c500 	andseq	ip, r3, r0, lsl #10
    2144:	05040200 	streq	r0, [r4, #-512]	; 0xfffffe00
    2148:	00746e69 	rsbseq	r6, r4, r9, ror #28
    214c:	a1070403 	tstge	r7, r3, lsl #8
    2150:	04000000 	streq	r0, [r0], #-0
    2154:	0000002c 	andeq	r0, r0, ip, lsr #32
    2158:	0a060103 	beq	18256c <__bss_end__+0x178444>
    215c:	03000000 	movweq	r0, #0
    2160:	00c80502 	sbceq	r0, r8, r2, lsl #10
    2164:	04030000 	streq	r0, [r3], #-0
    2168:	0000b305 	andeq	fp, r0, r5, lsl #6
    216c:	05080300 	streq	r0, [r8, #-768]	; 0xfffffd00
    2170:	000000ae 	andeq	r0, r0, lr, lsr #1
    2174:	08080103 	stmdaeq	r8, {r0, r1, r8}
    2178:	03000000 	movweq	r0, #0
    217c:	00590702 	subseq	r0, r9, r2, lsl #14
    2180:	aa050000 	bge	142188 <__bss_end__+0x138060>
    2184:	05000003 	streq	r0, [r0, #-3]
    2188:	006e1934 	rsbeq	r1, lr, r4, lsr r9
    218c:	04030000 	streq	r0, [r3], #-0
    2190:	00009c07 	andeq	r9, r0, r7, lsl #24
    2194:	07080300 	streq	r0, [r8, -r0, lsl #6]
    2198:	00000097 	muleq	r0, r7, r0
    219c:	11080103 	tstne	r8, r3, lsl #2
    21a0:	06000000 	streq	r0, [r0], -r0
    21a4:	00540107 	subseq	r0, r4, r7, lsl #2
    21a8:	0c040000 	stceq	0, cr0, [r4], {-0}
    21ac:	0000c20e 	andeq	ip, r0, lr, lsl #4
    21b0:	07970700 	ldreq	r0, [r7, r0, lsl #14]
    21b4:	07000000 	streq	r0, [r0, -r0]
    21b8:	000005cf 	andeq	r0, r0, pc, asr #11
    21bc:	06120701 	ldreq	r0, [r2], -r1, lsl #14
    21c0:	07040000 	streq	r0, [r4, -r0]
    21c4:	00000621 	andeq	r0, r0, r1, lsr #12
    21c8:	06300705 	ldrteq	r0, [r0], -r5, lsl #14
    21cc:	07060000 	streq	r0, [r6, -r0]
    21d0:	0000063f 	andeq	r0, r0, pc, lsr r6
    21d4:	07600707 	strbeq	r0, [r0, -r7, lsl #14]!
    21d8:	07030000 	streq	r0, [r3, -r0]
    21dc:	0000064e 	andeq	r0, r0, lr, asr #12
    21e0:	e0080002 	and	r0, r8, r2
    21e4:	2c000005 	stccs	0, cr0, [r0], {5}
    21e8:	5e080602 	cfmadd32pl	mvax0, mvfx0, mvfx8, mvfx2
    21ec:	09000001 	stmdbeq	r0, {r0}
    21f0:	02006f69 	andeq	r6, r0, #420	; 0x1a4
    21f4:	00330909 	eorseq	r0, r3, r9, lsl #18
    21f8:	09000000 	stmdbeq	r0, {}	; <UNPREDICTABLE>
    21fc:	00726569 	rsbseq	r6, r2, r9, ror #10
    2200:	33090a02 	movwcc	r0, #39426	; 0x9a02
    2204:	04000000 	streq	r0, [r0], #-0
    2208:	72696909 	rsbvc	r6, r9, #147456	; 0x24000
    220c:	09110200 	ldmdbeq	r1, {r9}
    2210:	00000033 	andeq	r0, r0, r3, lsr r0
    2214:	636c0908 	cmnvs	ip, #8, 18	; 0x20000
    2218:	13020072 	movwne	r0, #8306	; 0x2072
    221c:	00003309 	andeq	r3, r0, r9, lsl #6
    2220:	6d090c00 	stcvs	12, cr0, [r9, #-0]
    2224:	02007263 	andeq	r7, r0, #805306374	; 0x30000006
    2228:	00330914 	eorseq	r0, r3, r4, lsl r9
    222c:	09100000 	ldmdbeq	r0, {}	; <UNPREDICTABLE>
    2230:	0072736c 	rsbseq	r7, r2, ip, ror #6
    2234:	33091502 	movwcc	r1, #38146	; 0x9502
    2238:	14000000 	strne	r0, [r0], #-0
    223c:	72736d09 	rsbsvc	r6, r3, #576	; 0x240
    2240:	09160200 	ldmdbeq	r6, {r9}
    2244:	00000033 	andeq	r0, r0, r3, lsr r0
    2248:	07770a18 			; <UNDEFINED> instruction: 0x07770a18
    224c:	17020000 	strne	r0, [r2, -r0]
    2250:	00003309 	andeq	r3, r0, r9, lsl #6
    2254:	400a1c00 	andmi	r1, sl, r0, lsl #24
    2258:	02000007 	andeq	r0, r0, #7, 0
    225c:	0033091b 	eorseq	r0, r3, fp, lsl r9
    2260:	0a200000 	beq	802268 <__bss_end__+0x7f8140>
    2264:	000005bc 			; <UNDEFINED> instruction: 0x000005bc
    2268:	33091d02 	movwcc	r1, #40194	; 0x9d02
    226c:	24000000 	strcs	r0, [r0], #-0
    2270:	0006920a 	andeq	r9, r6, sl, lsl #4
    2274:	091e0200 	ldmdbeq	lr, {r9}
    2278:	00000033 	andeq	r0, r0, r3, lsr r0
    227c:	970b0028 	strls	r0, [fp, -r8, lsr #32]
    2280:	01000006 	tsteq	r0, r6
    2284:	01740908 	cmneq	r4, r8, lsl #18
    2288:	50040000 	andpl	r0, r4, r0
    228c:	040c2021 	streq	r2, [ip], #-33	; 0xffffffdf
    2290:	00000033 	andeq	r0, r0, r3, lsr r0
    2294:	00016e0d 	andeq	r6, r1, sp, lsl #28
    2298:	077f0b00 	ldrbeq	r0, [pc, -r0, lsl #22]!
    229c:	29010000 	stmdbcs	r1, {}	; <UNPREDICTABLE>
    22a0:	00018f23 	andeq	r8, r1, r3, lsr #30
    22a4:	21504000 	cmpcs	r0, r0
    22a8:	c2040c20 	andgt	r0, r4, #32, 24	; 0x2000
    22ac:	0d000000 	stceq	0, cr0, [r0, #-0]
    22b0:	00000189 	andeq	r0, r0, r9, lsl #3
    22b4:	00046a0e 	andeq	r6, r4, lr, lsl #20
    22b8:	06cc0100 	strbeq	r0, [ip], r0, lsl #2
    22bc:	000091b8 			; <UNDEFINED> instruction: 0x000091b8
    22c0:	00000014 	andeq	r0, r0, r4, lsl r0
    22c4:	01b49c01 			; <UNDEFINED> instruction: 0x01b49c01
    22c8:	c00f0000 	andgt	r0, pc, r0
    22cc:	b4000091 	strlt	r0, [r0], #-145	; 0xffffff6f
    22d0:	00000001 	andeq	r0, r0, r1
    22d4:	00060110 	andeq	r0, r6, r0, lsl r1
    22d8:	05b60100 	ldreq	r0, [r6, #256]!	; 0x100
    22dc:	00000025 	andeq	r0, r0, r5, lsr #32
    22e0:	00009198 	muleq	r0, r8, r1
    22e4:	00000020 	andeq	r0, r0, r0, lsr #32
    22e8:	01eb9c01 	mvneq	r9, r1, lsl #24
    22ec:	a00f0000 	andge	r0, pc, r0
    22f0:	a0000091 	mulge	r0, r1, r0
    22f4:	11000005 	tstne	r0, r5
    22f8:	000091a8 	andeq	r9, r0, r8, lsr #3
    22fc:	000005ac 	andeq	r0, r0, ip, lsr #11
    2300:	05500112 	ldrbeq	r0, [r0, #-274]	; 0xfffffeee
    2304:	2150640c 	cmpcs	r0, ip, lsl #8
    2308:	10000020 	andne	r0, r0, r0, lsr #32
    230c:	00000752 	andeq	r0, r0, r2, asr r7
    2310:	2505b301 	strcs	fp, [r5, #-769]	; 0xfffffcff
    2314:	88000000 	stmdahi	r0, {}	; <UNPREDICTABLE>
    2318:	10000091 	mulne	r0, r1, r0
    231c:	01000000 	mrseq	r0, (UNDEF: 0)
    2320:	0002189c 	muleq	r2, ip, r8
    2324:	91900f00 	orrsls	r0, r0, r0, lsl #30
    2328:	05a00000 	streq	r0, [r0, #0]!
    232c:	940f0000 	strls	r0, [pc], #-0	; 2334 <__code_start__-0x5ccc>
    2330:	09000091 	stmdbeq	r0, {r0, r4, r7}
    2334:	00000003 	andeq	r0, r0, r3
    2338:	00078d0e 	andeq	r8, r7, lr, lsl #26
    233c:	06ab0100 	strteq	r0, [fp], r0, lsl #2
    2340:	00009158 	andeq	r9, r0, r8, asr r1
    2344:	00000030 	andeq	r0, r0, r0, lsr r0
    2348:	027c9c01 	rsbseq	r9, ip, #256	; 0x100
    234c:	63130000 	tstvs	r3, #0, 0
    2350:	19ab0100 	stmibne	fp!, {r8}
    2354:	0000002c 	andeq	r0, r0, ip, lsr #32
    2358:	00001bb7 			; <UNDEFINED> instruction: 0x00001bb7
    235c:	00001bb3 			; <UNDEFINED> instruction: 0x00001bb3
    2360:	0091640f 	addseq	r6, r1, pc, lsl #8
    2364:	0005a000 	andeq	sl, r5, r0
    2368:	91680f00 	cmnls	r8, r0, lsl #30
    236c:	02db0000 	sbcseq	r0, fp, #0, 0
    2370:	7c140000 	ldcvc	0, cr0, [r4], {-0}
    2374:	b8000091 	stmdalt	r0, {r0, r4, r7}
    2378:	72000005 	andvc	r0, r0, #5, 0
    237c:	12000002 	andne	r0, r0, #2, 0
    2380:	0c055001 	stceq	0, cr5, [r5], {1}
    2384:	20215040 	eorcs	r5, r1, r0, asr #32
    2388:	05510112 	ldrbeq	r0, [r1, #-274]	; 0xfffffeee
    238c:	ff080074 			; <UNDEFINED> instruction: 0xff080074
    2390:	800f001a 	andhi	r0, pc, sl, lsl r0	; <UNPREDICTABLE>
    2394:	a0000091 	mulge	r0, r1, r0
    2398:	00000005 	andeq	r0, r0, r5
    239c:	0006a310 	andeq	sl, r6, r0, lsl r3
    23a0:	05a30100 	streq	r0, [r3, #256]!	; 0x100
    23a4:	00000025 	andeq	r0, r0, r5, lsr #32
    23a8:	00009128 	andeq	r9, r0, r8, lsr #2
    23ac:	00000030 	andeq	r0, r0, r0, lsr r0
    23b0:	02db9c01 	sbcseq	r9, fp, #256	; 0x100
    23b4:	63150000 	tstvs	r5, #0, 0
    23b8:	09a70100 	stmibeq	r7!, {r8}
    23bc:	00000025 	andeq	r0, r0, r5, lsr #32
    23c0:	00001bd7 	ldrdeq	r1, [r0], -r7
    23c4:	00001bd5 	ldrdeq	r1, [r0], -r5
    23c8:	0091300f 	addseq	r3, r1, pc
    23cc:	0005a000 	andeq	sl, r5, r0
    23d0:	91340f00 	teqls	r4, r0, lsl #30
    23d4:	03090000 	movweq	r0, #36864	; 0x9000
    23d8:	44140000 	ldrmi	r0, [r4], #-0
    23dc:	ac000091 	stcge	0, cr0, [r0], {145}	; 0x91
    23e0:	d1000005 	tstle	r0, r5
    23e4:	12000002 	andne	r0, r0, #2, 0
    23e8:	0c055001 	stceq	0, cr5, [r5], {1}
    23ec:	20215040 	eorcs	r5, r1, r0, asr #32
    23f0:	914c0f00 	cmpls	ip, r0, lsl #30
    23f4:	05a00000 	streq	r0, [r0, #0]!
    23f8:	10000000 	andne	r0, r0, r0
    23fc:	000005f3 	strdeq	r0, [r0], -r3
    2400:	25059401 	strcs	r9, [r5, #-1025]	; 0xfffffbff
    2404:	08000000 	stmdaeq	r0, {}	; <UNPREDICTABLE>
    2408:	20000091 	mulcs	r0, r1, r0
    240c:	01000000 	mrseq	r0, (UNDEF: 0)
    2410:	0003099c 	muleq	r3, ip, r9
    2414:	91141100 	tstls	r4, r0, lsl #2
    2418:	05ac0000 	streq	r0, [ip, #0]!
    241c:	01120000 	tsteq	r2, r0
    2420:	640c0550 	strvs	r0, [ip], #-1360	; 0xfffffab0
    2424:	00202150 	eoreq	r2, r0, r0, asr r1
    2428:	05c11000 	strbeq	r1, [r1]
    242c:	8b010000 	blhi	42434 <__bss_end__+0x3830c>
    2430:	00002505 	andeq	r2, r0, r5, lsl #10
    2434:	0090f000 	addseq	pc, r0, r0
    2438:	00001800 	andeq	r1, r0, r0, lsl #16
    243c:	379c0100 	ldrcc	r0, [ip, r0, lsl #2]
    2440:	11000003 	tstne	r0, r3
    2444:	000090fc 	strdeq	r9, [r0], -ip
    2448:	000005ac 	andeq	r0, r0, ip, lsr #11
    244c:	05500112 	ldrbeq	r0, [r0, #-274]	; 0xfffffeee
    2450:	2150640c 	cmpcs	r0, ip, lsl #8
    2454:	0e000020 	cdpeq	0, 0, cr0, cr0, cr0, {1}
    2458:	00000488 	andeq	r0, r0, r8, lsl #9
    245c:	40064501 	andmi	r4, r6, r1, lsl #10
    2460:	b0000090 	mullt	r0, r0, r0
    2464:	01000000 	mrseq	r0, (UNDEF: 0)
    2468:	0004849c 	muleq	r4, ip, r4
    246c:	05b31600 	ldreq	r1, [r3, #1536]!	; 0x600
    2470:	7e010000 	cdpvc	0, 0, cr0, cr1, cr0, {0}
    2474:	0000620e 	andeq	r6, r0, lr, lsl #4
    2478:	14010e00 	strne	r0, [r1], #-3584	; 0xfffff200
    247c:	00009050 	andeq	r9, r0, r0, asr r0
    2480:	000005c4 	andeq	r0, r0, r4, asr #11
    2484:	00000373 	andeq	r0, r0, r3, ror r3
    2488:	01500112 	cmpeq	r0, r2, lsl r1
    248c:	5101123e 	tstpl	r1, lr, lsr r2
    2490:	14003201 	strne	r3, [r0], #-513	; 0xfffffdff
    2494:	0000905c 	andeq	r9, r0, ip, asr r0
    2498:	000005c4 	andeq	r0, r0, r4, asr #11
    249c:	0000038b 	andeq	r0, r0, fp, lsl #7
    24a0:	01500112 	cmpeq	r0, r2, lsl r1
    24a4:	5101123f 	tstpl	r1, pc, lsr r2
    24a8:	0f003201 	svceq	0x00003201
    24ac:	00009060 	andeq	r9, r0, r0, rrx
    24b0:	000005a0 	andeq	r0, r0, r0, lsr #11
    24b4:	00906c14 	addseq	r6, r0, r4, lsl ip
    24b8:	00053d00 	andeq	r3, r5, r0, lsl #26
    24bc:	0003b000 	andeq	fp, r3, r0
    24c0:	50011200 	andpl	r1, r1, r0, lsl #4
    24c4:	50040c05 	andpl	r0, r4, r5, lsl #24
    24c8:	01122021 	tsteq	r2, r1, lsr #32
    24cc:	00310151 	eorseq	r0, r1, r1, asr r1
    24d0:	0090700f 	addseq	r7, r0, pc
    24d4:	0005a000 	andeq	sl, r5, r0
    24d8:	90801400 	addls	r1, r0, r0, lsl #8
    24dc:	05b80000 	ldreq	r0, [r8, #0]!
    24e0:	03d20000 	bicseq	r0, r2, #0, 0
    24e4:	01120000 	tsteq	r2, r0
    24e8:	00740250 	rsbseq	r0, r4, r0, asr r2
    24ec:	01510112 	cmpeq	r1, r2, lsl r1
    24f0:	8c140030 	ldchi	0, cr0, [r4], {48}	; 0x30
    24f4:	b8000090 	stmdalt	r0, {r4, r7}
    24f8:	ee000005 	cdp	0, 0, cr0, cr0, cr5, {0}
    24fc:	12000003 	andne	r0, r0, #3, 0
    2500:	0c055001 	stceq	0, cr5, [r5], {1}
    2504:	20215044 	eorcs	r5, r1, r4, asr #32
    2508:	01510112 	cmpeq	r1, r2, lsl r1
    250c:	98140030 	ldmdals	r4, {r4, r5}
    2510:	b8000090 	stmdalt	r0, {r4, r7}
    2514:	0a000005 	beq	2530 <__code_start__-0x5ad0>
    2518:	12000004 	andne	r0, r0, #4, 0
    251c:	0c055001 	stceq	0, cr5, [r5], {1}
    2520:	2021504c 	eorcs	r5, r1, ip, asr #32
    2524:	01510112 	cmpeq	r1, r2, lsl r1
    2528:	a4140033 	ldrge	r0, [r4], #-51	; 0xffffffcd
    252c:	b8000090 	stmdalt	r0, {r4, r7}
    2530:	26000005 	strcs	r0, [r0], -r5
    2534:	12000004 	andne	r0, r0, #4, 0
    2538:	0c055001 	stceq	0, cr5, [r5], {1}
    253c:	20215050 	eorcs	r5, r1, r0, asr r0
    2540:	01510112 	cmpeq	r1, r2, lsl r1
    2544:	b0140030 	andslt	r0, r4, r0, lsr r0
    2548:	b8000090 	stmdalt	r0, {r4, r7}
    254c:	43000005 	movwmi	r0, #5
    2550:	12000004 	andne	r0, r0, #4, 0
    2554:	0c055001 	stceq	0, cr5, [r5], {1}
    2558:	20215048 	eorcs	r5, r1, r8, asr #32
    255c:	02510112 	subseq	r0, r1, #-2147483644	; 0x80000004
    2560:	1400c708 	strne	ip, [r0], #-1800	; 0xfffff8f8
    2564:	000090bc 	strheq	r9, [r0], -ip
    2568:	000005b8 			; <UNDEFINED> instruction: 0x000005b8
    256c:	00000461 	andeq	r0, r0, r1, ror #8
    2570:	05500112 	ldrbeq	r0, [r0, #-274]	; 0xfffffeee
    2574:	2150680c 	cmpcs	r0, ip, lsl #16
    2578:	51011220 	tstpl	r1, r0, lsr #4
    257c:	010e0a03 	tsteq	lr, r3, lsl #20
    2580:	90c81400 	sbcls	r1, r8, r0, lsl #8
    2584:	05b80000 	ldreq	r0, [r8, #0]!
    2588:	047a0000 	ldrbteq	r0, [sl], #-0
    258c:	01120000 	tsteq	r2, r0
    2590:	00740250 	rsbseq	r0, r4, r0, asr r2
    2594:	01510112 	cmpeq	r1, r2, lsl r1
    2598:	cc0f0033 	stcgt	0, cr0, [pc], {51}	; 0x33
    259c:	a0000090 	mulge	r0, r0, r0
    25a0:	00000005 	andeq	r0, r0, r5
    25a4:	0007450e 	andeq	r4, r7, lr, lsl #10
    25a8:	06350100 	ldrteq	r0, [r5], -r0, lsl #2
    25ac:	000091cc 	andeq	r9, r0, ip, asr #3
    25b0:	00000024 	andeq	r0, r0, r4, lsr #32
    25b4:	04d39c01 	ldrbeq	r9, [r3], #3073	; 0xc01
    25b8:	d40f0000 	strle	r0, [pc], #-0	; 25c0 <__code_start__-0x5a40>
    25bc:	94000091 	strls	r0, [r0], #-145	; 0xffffff6f
    25c0:	0f000001 	svceq	0x00000001
    25c4:	000091d8 	ldrdeq	r9, [r0], -r8
    25c8:	000005a0 	andeq	r0, r0, r0, lsr #11
    25cc:	0091e414 	addseq	lr, r1, r4, lsl r4
    25d0:	0004d300 	andeq	sp, r4, r0, lsl #6
    25d4:	0004c900 	andeq	ip, r4, r0, lsl #18
    25d8:	50011200 	andpl	r1, r1, r0, lsl #4
    25dc:	50040c05 	andpl	r0, r4, r5, lsl #24
    25e0:	01122021 	tsteq	r2, r1, lsr #32
    25e4:	fe090251 	mcr2	2, 0, r0, cr9, cr1, {2}
    25e8:	91e80f00 	mvnls	r0, r0, lsl #30
    25ec:	05a00000 	streq	r0, [r0, #0]!
    25f0:	17000000 	strne	r0, [r0, -r0]
    25f4:	00000784 	andeq	r0, r0, r4, lsl #15
    25f8:	000d3101 	andeq	r3, sp, r1, lsl #2
    25fc:	20000090 	mulcs	r0, r0, r0
    2600:	01000000 	mrseq	r0, (UNDEF: 0)
    2604:	0005369c 	muleq	r5, ip, r6
    2608:	07de1800 	ldrbeq	r1, [lr, r0, lsl #16]
    260c:	31010000 	mrscc	r0, (UNDEF: 1)
    2610:	00053625 	andeq	r3, r5, r5, lsr #12
    2614:	001bee00 	andseq	lr, fp, r0, lsl #28
    2618:	001bea00 	andseq	lr, fp, r0, lsl #20
    261c:	61761300 	cmnvs	r6, r0, lsl #6
    2620:	3101006c 	tstcc	r1, ip, rrx
    2624:	00002c34 	andeq	r2, r0, r4, lsr ip
    2628:	001c1000 	andseq	r1, ip, r0
    262c:	001c0c00 	andseq	r0, ip, r0, lsl #24
    2630:	90101400 	andsls	r1, r0, r0, lsl #8
    2634:	05ac0000 	streq	r0, [ip, #0]!
    2638:	05250000 	streq	r0, [r5, #-0]!
    263c:	01120000 	tsteq	r2, r0
    2640:	00740250 	rsbseq	r0, r4, r0, asr r2
    2644:	901c1100 	andsls	r1, ip, r0, lsl #2
    2648:	05b80000 	ldreq	r0, [r8, #0]!
    264c:	01120000 	tsteq	r2, r0
    2650:	00740250 	rsbseq	r0, r4, r0, asr r2
    2654:	040c0000 	streq	r0, [ip], #-0
    2658:	0000053c 	andeq	r0, r0, ip, lsr r5
    265c:	076f1719 			; <UNDEFINED> instruction: 0x076f1719
    2660:	2e010000 	cdpcs	0, 0, cr0, cr1, cr0, {0}
    2664:	0090200d 	addseq	r2, r0, sp
    2668:	00002000 	andeq	r2, r0, r0
    266c:	a09c0100 	addsge	r0, ip, r0, lsl #2
    2670:	18000005 	stmdane	r0, {r0, r2}
    2674:	000007de 	ldrdeq	r0, [r0], -lr
    2678:	36242e01 	strtcc	r2, [r4], -r1, lsl #28
    267c:	32000005 	andcc	r0, r0, #5, 0
    2680:	2e00001c 	mcrcs	0, 0, r0, cr0, cr12, {0}
    2684:	1300001c 	movwne	r0, #28
    2688:	006c6176 	rsbeq	r6, ip, r6, ror r1
    268c:	2c332e01 	ldccs	14, cr2, [r3], #-4
    2690:	54000000 	strpl	r0, [r0], #-0
    2694:	5000001c 	andpl	r0, r0, ip, lsl r0
    2698:	1400001c 	strne	r0, [r0], #-28	; 0xffffffe4
    269c:	00009030 	andeq	r9, r0, r0, lsr r0
    26a0:	000005ac 	andeq	r0, r0, ip, lsr #11
    26a4:	0000058f 	andeq	r0, r0, pc, lsl #11
    26a8:	02500112 	subseq	r0, r0, #-2147483644	; 0x80000004
    26ac:	11000074 	tstne	r0, r4, ror r0
    26b0:	0000903c 	andeq	r9, r0, ip, lsr r0
    26b4:	000005b8 			; <UNDEFINED> instruction: 0x000005b8
    26b8:	02500112 	subseq	r0, r0, #-2147483644	; 0x80000004
    26bc:	00000074 	andeq	r0, r0, r4, ror r0
    26c0:	0005521a 	andeq	r5, r5, sl, lsl r2
    26c4:	00055200 	andeq	r5, r5, r0, lsl #4
    26c8:	069c0300 	ldreq	r0, [ip], r0, lsl #6
    26cc:	0007b91a 	andeq	fp, r7, sl, lsl r9
    26d0:	0007b900 	andeq	fp, r7, r0, lsl #18
    26d4:	0bc30300 	bleq	ff0c32dc <__bss_end__+0xff0b91b4>
    26d8:	0005ad1a 	andeq	sl, r5, sl, lsl sp
    26dc:	0005ad00 	andeq	sl, r5, r0, lsl #26
    26e0:	06ae0300 	strteq	r0, [lr], r0, lsl #6
    26e4:	0007a71a 	andeq	sl, r7, sl, lsl r7
    26e8:	0007a700 	andeq	sl, r7, r0, lsl #14
    26ec:	06190400 	ldreq	r0, [r9], -r0, lsl #8
    26f0:	0008e900 	andeq	lr, r8, r0, lsl #18
    26f4:	4e000400 	cfcpysmi	mvf0, mvf0
    26f8:	0400000f 	streq	r0, [r0], #-15
    26fc:	0006ad01 	andeq	sl, r6, r1, lsl #26
    2700:	08620c00 	stmdaeq	r2!, {sl, fp}^
    2704:	065d0000 	ldrbeq	r0, [sp], -r0
    2708:	91f00000 	mvnsls	r0, r0
    270c:	03b00000 	movseq	r0, #0, 0
    2710:	15cd0000 	strbne	r0, [sp]
    2714:	04020000 	streq	r0, [r2], #-0
    2718:	746e6905 	strbtvc	r6, [lr], #-2309	; 0xfffff6fb
    271c:	07040300 	streq	r0, [r4, -r0, lsl #6]
    2720:	000000a1 	andeq	r0, r0, r1, lsr #1
    2724:	0a060103 	beq	182b38 <__bss_end__+0x178a10>
    2728:	03000000 	movweq	r0, #0
    272c:	00c80502 	sbceq	r0, r8, r2, lsl #10
    2730:	04030000 	streq	r0, [r3], #-0
    2734:	0000b305 	andeq	fp, r0, r5, lsl #6
    2738:	05080300 	streq	r0, [r8, #-768]	; 0xfffffd00
    273c:	000000ae 	andeq	r0, r0, lr, lsr #1
    2740:	08080103 	stmdaeq	r8, {r0, r1, r8}
    2744:	03000000 	movweq	r0, #0
    2748:	00590702 	subseq	r0, r9, r2, lsl #14
    274c:	aa040000 	bge	102754 <__bss_end__+0xf862c>
    2750:	03000003 	movweq	r0, #3
    2754:	00691934 	rsbeq	r1, r9, r4, lsr r9
    2758:	04030000 	streq	r0, [r3], #-0
    275c:	00009c07 	andeq	r9, r0, r7, lsl #24
    2760:	07080300 	streq	r0, [r8, -r0, lsl #6]
    2764:	00000097 	muleq	r0, r7, r0
    2768:	11080103 	tstne	r8, r3, lsl #2
    276c:	05000000 	streq	r0, [r0, #-0]
    2770:	00000077 	andeq	r0, r0, r7, ror r0
    2774:	6c040803 	stcvs	8, cr0, [r4], {3}
    2778:	06000000 	streq	r0, [r0], -r0
    277c:	04070704 	streq	r0, [r7], #-1796	; 0xfffff8fc
    2780:	0000002c 	andeq	r0, r0, ip, lsr #32
    2784:	a4061f01 	strge	r1, [r6], #-3841	; 0xfffff0ff
    2788:	08000000 	stmdaeq	r0, {}	; <UNPREDICTABLE>
    278c:	000007e9 	andeq	r0, r0, r9, ror #15
    2790:	00200000 	eoreq	r0, r0, r0
    2794:	039b0900 	orrseq	r0, fp, #0, 18
    2798:	22010000 	andcs	r0, r1, #0, 0
    279c:	0000770d 	andeq	r7, r0, sp, lsl #14
    27a0:	08040a00 	stmdaeq	r4, {r9, fp}
    27a4:	23010000 	movwcs	r0, #4096	; 0x1000
    27a8:	0000c20e 	andeq	ip, r0, lr, lsl #4
    27ac:	00030500 	andeq	r0, r3, r0, lsl #10
    27b0:	0b00009d 	bleq	2a2c <__code_start__-0x55d4>
    27b4:	00007704 	andeq	r7, r0, r4, lsl #14
    27b8:	07c70a00 	strbeq	r0, [r7, r0, lsl #20]
    27bc:	24010000 	strcs	r0, [r1], #-0
    27c0:	0000c20e 	andeq	ip, r0, lr, lsl #4
    27c4:	04030500 	streq	r0, [r3], #-1280	; 0xfffffb00
    27c8:	0a00009d 	beq	2a44 <__code_start__-0x55bc>
    27cc:	00000841 	andeq	r0, r0, r1, asr #16
    27d0:	c20e2501 	andgt	r2, lr, #4194304	; 0x400000
    27d4:	05000000 	streq	r0, [r0, #-0]
    27d8:	009d0803 	addseq	r0, sp, r3, lsl #16
    27dc:	08100c00 	ldmdaeq	r0, {sl, fp}
    27e0:	75010000 	strvc	r0, [r1, #-0]
    27e4:	00954006 	addseq	r4, r5, r6
    27e8:	00006000 	andeq	r6, r0, r0
    27ec:	649c0100 	ldrvs	r0, [ip], #256	; 0x100
    27f0:	0d000001 	stceq	0, cr0, [r0, #-4]
    27f4:	75010070 	strvc	r0, [r1, #-112]	; 0xffffff90
    27f8:	00008a16 	andeq	r8, r0, r6, lsl sl
    27fc:	001c7800 	andseq	r7, ip, r0, lsl #16
    2800:	001c7200 	andseq	r7, ip, r0, lsl #4
    2804:	00730e00 	rsbseq	r0, r3, r0, lsl #28
    2808:	01740000 	cmneq	r4, r0
    280c:	03050000 	movweq	r0, #20480	; 0x5000
    2810:	00009cf0 	strdeq	r9, [r0], -r0
    2814:	00958c0f 	addseq	r8, r5, pc, lsl #24
    2818:	0008bc00 	andeq	fp, r8, r0, lsl #24
    281c:	00015a00 	andeq	r5, r1, r0, lsl #20
    2820:	50011000 	andpl	r1, r1, r0
    2824:	9c680305 	stclls	3, cr0, [r8], #-20	; 0xffffffec
    2828:	01100000 	tsteq	r0, r0
    282c:	00030551 	andeq	r0, r3, r1, asr r5
    2830:	1000009b 	mulne	r0, fp, r0
    2834:	03055201 	movweq	r5, #20993	; 0x5201
    2838:	00009cf0 	strdeq	r9, [r0], -r0
    283c:	02530110 	subseq	r0, r3, #4
    2840:	02107708 	andseq	r7, r0, #8, 14	; 0x200000
    2844:	f303007d 	vqadd.u8	q0, <illegal reg q1.5>, <illegal reg q14.5>
    2848:	11005001 	tstne	r0, r1
    284c:	00009590 	muleq	r0, r0, r5
    2850:	000008c8 	andeq	r0, r0, r8, asr #17
    2854:	007e1200 	rsbseq	r1, lr, r0, lsl #4
    2858:	01740000 	cmneq	r4, r0
    285c:	2c130000 	ldccs	0, cr0, [r3], {-0}
    2860:	09000000 	stmdbeq	r0, {}	; <UNPREDICTABLE>
    2864:	01640500 	cmneq	r4, r0, lsl #10
    2868:	f2140000 	vhadd.s16	d0, d4, d0
    286c:	01000007 	tsteq	r0, r7
    2870:	952c0672 	strls	r0, [ip, #-1650]!	; 0xfffff98e
    2874:	00140000 	andseq	r0, r4, r0
    2878:	9c010000 	stcls	0, cr0, [r1], {-0}
    287c:	0007e30c 	andeq	lr, r7, ip, lsl #6
    2880:	066f0100 	strbteq	r0, [pc], -r0, lsl #2
    2884:	00009528 	andeq	r9, r0, r8, lsr #10
    2888:	00000004 	andeq	r0, r0, r4
    288c:	01ae9c01 			; <UNDEFINED> instruction: 0x01ae9c01
    2890:	70150000 	andsvc	r0, r5, r0
    2894:	126f0100 	rsbne	r0, pc, #0
    2898:	0000008a 	andeq	r0, r0, sl, lsl #1
    289c:	16005001 	strne	r5, [r0], -r1
    28a0:	000008bb 			; <UNDEFINED> instruction: 0x000008bb
    28a4:	8a075e01 	bhi	1da0b0 <__bss_end__+0x1cff88>
    28a8:	10000000 	andne	r0, r0, r0
    28ac:	18000094 	stmdane	r0, {r2, r4, r7}
    28b0:	01000001 	tsteq	r0, r1
    28b4:	00042c9c 	muleq	r4, ip, ip
    28b8:	07d61700 	ldrbeq	r1, [r6, r0, lsl #14]
    28bc:	5e010000 	cdppl	0, 0, cr0, cr1, cr0, {0}
    28c0:	00002c20 	andeq	r2, r0, r0, lsr #24
    28c4:	001cb900 	andseq	fp, ip, r0, lsl #18
    28c8:	001ca500 	andseq	sl, ip, r0, lsl #10
    28cc:	08211700 	stmdaeq	r1!, {r8, r9, sl, ip}
    28d0:	5e010000 	cdppl	0, 0, cr0, cr1, cr0, {0}
    28d4:	00002c31 	andeq	r2, r0, r1, lsr ip
    28d8:	001d5200 	andseq	r5, sp, r0, lsl #4
    28dc:	001d3e00 	andseq	r3, sp, r0, lsl #28
    28e0:	00730e00 	rsbseq	r0, r3, r0, lsl #28
    28e4:	043c0000 	ldrteq	r0, [ip], #-0
    28e8:	03050000 	movweq	r0, #20480	; 0x5000
    28ec:	00009cd8 	ldrdeq	r9, [r0], -r8
    28f0:	01006818 	tsteq	r0, r8, lsl r8
    28f4:	002c0e66 	eoreq	r0, ip, r6, ror #28
    28f8:	1e080000 	cdpne	0, 0, cr0, cr8, cr0, {0}
    28fc:	1dfc0000 	ldclne	0, cr0, [ip]
    2900:	54190000 	ldrpl	r0, [r9], #-0
    2904:	20000008 	andcs	r0, r0, r8
    2908:	04000094 	streq	r0, [r0], #-148	; 0xffffff6c
    290c:	00009420 	andeq	r9, r0, r0, lsr #8
    2910:	00000004 	andeq	r0, r0, r4
    2914:	38056001 	stmdacc	r5, {r0, sp, lr}
    2918:	1a000002 	bne	2928 <__code_start__-0x56d8>
    291c:	00000865 	andeq	r0, r0, r5, ror #16
    2920:	00001e5c 	andeq	r1, r0, ip, asr lr
    2924:	00001e5a 	andeq	r1, r0, sl, asr lr
    2928:	08961900 	ldmeq	r6, {r8, fp, ip}
    292c:	942c0000 	strtls	r0, [ip], #-0
    2930:	2c020000 	stccs	0, cr0, [r2], {-0}
    2934:	08000094 	stmdaeq	r0, {r2, r4, r7}
    2938:	01000000 	mrseq	r0, (UNDEF: 0)
    293c:	026c1161 	rsbeq	r1, ip, #1073741848	; 0x40000018
    2940:	b11a0000 	tstlt	sl, r0
    2944:	71000008 	tstvc	r0, r8
    2948:	6f00001e 	svcvs	0x0000001e
    294c:	1a00001e 	bne	29cc <__code_start__-0x5634>
    2950:	000008a7 	andeq	r0, r0, r7, lsr #17
    2954:	00001e87 	andeq	r1, r0, r7, lsl #29
    2958:	00001e85 	andeq	r1, r0, r5, lsl #29
    295c:	081f1b00 	ldmdaeq	pc, {r8, r9, fp, ip}	; <UNPREDICTABLE>
    2960:	943c0000 	ldrtls	r0, [ip], #-0
    2964:	50010000 	andpl	r0, r1, r0
    2968:	01000003 	tsteq	r0, r3
    296c:	030a0967 	movweq	r0, #43367	; 0xa967
    2970:	3a1a0000 	bcc	682978 <__bss_end__+0x678850>
    2974:	a0000008 	andge	r0, r0, r8
    2978:	9a00001e 	bls	29f8 <__code_start__-0x5608>
    297c:	1a00001e 	bne	29fc <__code_start__-0x5604>
    2980:	00000830 	andeq	r0, r0, r0, lsr r8
    2984:	00001ee7 	andeq	r1, r0, r7, ror #29
    2988:	00001edf 	ldrdeq	r1, [r0], -pc	; <UNPREDICTABLE>
    298c:	0003501c 	andeq	r5, r3, ip, lsl r0
    2990:	08541900 	ldmdaeq	r4, {r8, fp, ip}^
    2994:	943c0000 	ldrtls	r0, [ip], #-0
    2998:	3c040000 	stccc	0, cr0, [r4], {-0}
    299c:	04000094 	streq	r0, [r0], #-148	; 0xffffff6c
    29a0:	01000000 	mrseq	r0, (UNDEF: 0)
    29a4:	02c70511 	sbceq	r0, r7, #71303168	; 0x4400000
    29a8:	651a0000 	ldrvs	r0, [sl, #-0]
    29ac:	25000008 	strcs	r0, [r0, #-8]
    29b0:	2300001f 	movwcs	r0, #31
    29b4:	0000001f 	andeq	r0, r0, pc, lsl r0
    29b8:	0094d40f 	addseq	sp, r4, pc, lsl #8
    29bc:	0008bc00 	andeq	fp, r8, r0, lsl #24
    29c0:	0002ff00 	andeq	pc, r2, r0, lsl #30
    29c4:	50011000 	andpl	r1, r1, r0
    29c8:	98e00305 	stmials	r0!, {r0, r2, r8, r9}^
    29cc:	01100000 	tsteq	r0, r0
    29d0:	00030551 	andeq	r0, r3, r1, asr r5
    29d4:	1000009b 	mulne	r0, fp, r0
    29d8:	03055201 	movweq	r5, #20993	; 0x5201
    29dc:	00009ce8 	andeq	r9, r0, r8, ror #25
    29e0:	01530110 	cmpeq	r3, r0, lsl r1
    29e4:	7d021041 	stcvc	0, cr1, [r2, #-260]	; 0xfffffefc
    29e8:	14030500 	strne	r0, [r3], #-1280	; 0xfffffb00
    29ec:	0000009c 	muleq	r0, ip, r0
    29f0:	0094d811 	addseq	sp, r4, r1, lsl r8
    29f4:	0008c800 	andeq	ip, r8, r0, lsl #16
    29f8:	19000000 	stmdbne	r0, {}	; <UNPREDICTABLE>
    29fc:	00000870 	andeq	r0, r0, r0, ror r8
    2a00:	00009454 	andeq	r9, r0, r4, asr r4
    2a04:	00945403 	addseq	r5, r4, r3, lsl #8
    2a08:	00000400 	andeq	r0, r0, r0, lsl #8
    2a0c:	05680100 	strbeq	r0, [r8, #-256]!	; 0xffffff00
    2a10:	0000033e 	andeq	r0, r0, lr, lsr r3
    2a14:	00088b1a 	andeq	r8, r8, sl, lsl fp
    2a18:	001f3a00 	andseq	r3, pc, r0, lsl #20
    2a1c:	001f3800 	andseq	r3, pc, r0, lsl #16
    2a20:	08811a00 	stmeq	r1, {r9, fp, ip}
    2a24:	1f4f0000 	svcne	0x004f0000
    2a28:	1f4d0000 	svcne	0x004d0000
    2a2c:	0f000000 	svceq	0x00000000
    2a30:	0000946c 	andeq	r9, r0, ip, ror #8
    2a34:	00000441 	andeq	r0, r0, r1, asr #8
    2a38:	00000353 	andeq	r0, r0, r3, asr r3
    2a3c:	03500110 	cmpeq	r0, #4
    2a40:	005001f3 	ldrsheq	r0, [r0], #-19	; 0xffffffed
    2a44:	0094900f 	addseq	r9, r4, pc
    2a48:	0008bc00 	andeq	fp, r8, r0, lsl #24
    2a4c:	00038c00 	andeq	r8, r3, r0, lsl #24
    2a50:	50011000 	andpl	r1, r1, r0
    2a54:	98e00305 	stmials	r0!, {r0, r2, r8, r9}^
    2a58:	01100000 	tsteq	r0, r0
    2a5c:	00030551 	andeq	r0, r3, r1, asr r5
    2a60:	1000009b 	mulne	r0, fp, r0
    2a64:	03055201 	movweq	r5, #20993	; 0x5201
    2a68:	00009cd8 	ldrdeq	r9, [r0], -r8
    2a6c:	02530110 	subseq	r0, r3, #4
    2a70:	02105f08 	andseq	r5, r0, #8, 30
    2a74:	0305007d 	movweq	r0, #20605	; 0x507d
    2a78:	00009b10 	andeq	r9, r0, r0, lsl fp
    2a7c:	94941100 	ldrls	r1, [r4], #256	; 0x100
    2a80:	08c80000 	stmiaeq	r8, {}^	; <UNPREDICTABLE>
    2a84:	98110000 	ldmdals	r1, {}	; <UNPREDICTABLE>
    2a88:	d4000094 	strle	r0, [r0], #-148	; 0xffffff6c
    2a8c:	0f000008 	svceq	0x00000008
    2a90:	000094b4 			; <UNDEFINED> instruction: 0x000094b4
    2a94:	000008bc 			; <UNDEFINED> instruction: 0x000008bc
    2a98:	000003d7 	ldrdeq	r0, [r0], -r7
    2a9c:	05500110 	ldrbeq	r0, [r0, #-272]	; 0xfffffef0
    2aa0:	009bcc03 	addseq	ip, fp, r3, lsl #24
    2aa4:	51011000 	mrspl	r1, (UNDEF: 1)
    2aa8:	9b000305 	blls	36c4 <__code_start__-0x493c>
    2aac:	01100000 	tsteq	r0, r0
    2ab0:	d8030552 	stmdale	r3, {r1, r4, r6, r8, sl}
    2ab4:	1000009c 	mulne	r0, ip, r0
    2ab8:	08025301 	stmdaeq	r2, {r0, r8, r9, ip, lr}
    2abc:	7d021060 	stcvc	0, cr1, [r2, #-384]	; 0xfffffe80
    2ac0:	00030500 	andeq	r0, r3, r0, lsl #10
    2ac4:	0000009c 	muleq	r0, ip, r0
    2ac8:	0094b811 	addseq	fp, r4, r1, lsl r8
    2acc:	0008c800 	andeq	ip, r8, r0, lsl #16
    2ad0:	94dc1100 	ldrbls	r1, [ip], #256	; 0x100
    2ad4:	08d40000 	ldmeq	r4, {}^	; <UNPREDICTABLE>
    2ad8:	f80f0000 			; <UNDEFINED> instruction: 0xf80f0000
    2adc:	bc000094 	stclt	0, cr0, [r0], {148}	; 0x94
    2ae0:	22000008 	andcs	r0, r0, #8, 0
    2ae4:	10000004 	andne	r0, r0, r4
    2ae8:	03055001 	movweq	r5, #20481	; 0x5001
    2aec:	00009c20 	andeq	r9, r0, r0, lsr #24
    2af0:	05510110 	ldrbeq	r0, [r1, #-272]	; 0xfffffef0
    2af4:	009b0003 	addseq	r0, fp, r3
    2af8:	52011000 	andpl	r1, r1, #0, 0
    2afc:	9cd80305 	ldclls	3, cr0, [r8], {5}
    2b00:	01100000 	tsteq	r0, r0
    2b04:	68080253 	stmdavs	r8, {r0, r1, r4, r6, r9}
    2b08:	007d0210 	rsbseq	r0, sp, r0, lsl r2
    2b0c:	9c4c0305 	mcrrls	3, 0, r0, ip, cr5
    2b10:	11000000 	mrsne	r0, (UNDEF: 0)
    2b14:	000094fc 	strdeq	r9, [r0], -ip
    2b18:	000008c8 	andeq	r0, r0, r8, asr #17
    2b1c:	007e1200 	rsbseq	r1, lr, r0, lsl #4
    2b20:	043c0000 	ldrteq	r0, [ip], #-0
    2b24:	2c130000 	ldccs	0, cr0, [r3], {-0}
    2b28:	0f000000 	svceq	0x00000000
    2b2c:	042c0500 	strteq	r0, [ip], #-1280	; 0xfffffb00
    2b30:	ee160000 	cdp	0, 1, cr0, cr6, cr0, {0}
    2b34:	01000001 	tsteq	r0, r1
    2b38:	008a0753 	addeq	r0, sl, r3, asr r7
    2b3c:	93ac0000 			; <UNDEFINED> instruction: 0x93ac0000
    2b40:	00640000 	rsbeq	r0, r4, r0
    2b44:	9c010000 	stcls	0, cr0, [r1], {-0}
    2b48:	00000508 	andeq	r0, r0, r8, lsl #10
    2b4c:	0007d617 	andeq	sp, r7, r7, lsl r6
    2b50:	18530100 	ldmdane	r3, {r8}^
    2b54:	0000002c 	andeq	r0, r0, ip, lsr #32
    2b58:	00001f6a 	andeq	r1, r0, sl, ror #30
    2b5c:	00001f62 	andeq	r1, r0, r2, ror #30
    2b60:	0000730e 	andeq	r7, r0, lr, lsl #6
    2b64:	00051800 	andeq	r1, r5, r0, lsl #16
    2b68:	d0030500 	andle	r0, r3, r0, lsl #10
    2b6c:	1d00009c 	stcne	0, cr0, [r0, #-624]	; 0xfffffd90
    2b70:	000007de 	ldrdeq	r0, [r0], -lr
    2b74:	8a0b5501 	bhi	2d7f80 <__bss_end__+0x2cde58>
    2b78:	a2000000 	andge	r0, r0, #0, 0
    2b7c:	9e00001f 	mcrls	0, 0, r0, cr0, cr15, {0}
    2b80:	0f00001f 	svceq	0x0000001f
    2b84:	000093c4 	andeq	r9, r0, r4, asr #7
    2b88:	0000051d 	andeq	r0, r0, sp, lsl r5
    2b8c:	000004a6 	andeq	r0, r0, r6, lsr #9
    2b90:	02500110 	subseq	r0, r0, #4
    2b94:	0f000074 	svceq	0x00000074
    2b98:	000093d4 	ldrdeq	r9, [r0], -r4
    2b9c:	000008e0 	andeq	r0, r0, r0, ror #17
    2ba0:	000004c5 	andeq	r0, r0, r5, asr #9
    2ba4:	02500110 	subseq	r0, r0, #4
    2ba8:	01100075 	tsteq	r0, r5, ror r0
    2bac:	10300151 	eorsne	r0, r0, r1, asr r1
    2bb0:	74025201 	strvc	r5, [r2], #-513	; 0xfffffdff
    2bb4:	fc0f0000 	stc2	0, cr0, [pc], {-0}
    2bb8:	bc000093 	stclt	0, cr0, [r0], {147}	; 0x93
    2bbc:	fe000008 	cdp2	0, 0, cr0, cr0, cr8, {0}
    2bc0:	10000004 	andne	r0, r0, r4
    2bc4:	03055001 	movweq	r5, #20481	; 0x5001
    2bc8:	000098e0 	andeq	r9, r0, r0, ror #17
    2bcc:	05510110 	ldrbeq	r0, [r1, #-272]	; 0xfffffef0
    2bd0:	009b0003 	addseq	r0, fp, r3
    2bd4:	52011000 	andpl	r1, r1, #0, 0
    2bd8:	9cd00305 	ldclls	3, cr0, [r0], {5}
    2bdc:	01100000 	tsteq	r0, r0
    2be0:	54080253 	strpl	r0, [r8], #-595	; 0xfffffdad
    2be4:	007d0210 	rsbseq	r0, sp, r0, lsl r2
    2be8:	9b100305 	blls	403804 <__bss_end__+0x3f96dc>
    2bec:	11000000 	mrsne	r0, (UNDEF: 0)
    2bf0:	00009400 	andeq	r9, r0, r0, lsl #8
    2bf4:	000008c8 	andeq	r0, r0, r8, asr #17
    2bf8:	007e1200 	rsbseq	r1, lr, r0, lsl #4
    2bfc:	05180000 	ldreq	r0, [r8, #-0]
    2c00:	2c130000 	ldccs	0, cr0, [r3], {-0}
    2c04:	07000000 	streq	r0, [r0, -r0]
    2c08:	05080500 	streq	r0, [r8, #-1280]	; 0xfffffb00
    2c0c:	4a160000 	bmi	582c14 <__bss_end__+0x578aec>
    2c10:	01000008 	tsteq	r0, r8
    2c14:	008a0747 	addeq	r0, sl, r7, asr #14
    2c18:	93140000 	tstls	r4, #0, 0
    2c1c:	00980000 	addseq	r0, r8, r0
    2c20:	9c010000 	stcls	0, cr0, [r1], {-0}
    2c24:	0000062b 	andeq	r0, r0, fp, lsr #12
    2c28:	0007d617 	andeq	sp, r7, r7, lsl r6
    2c2c:	20470100 	subcs	r0, r7, r0, lsl #2
    2c30:	0000002c 	andeq	r0, r0, ip, lsr #32
    2c34:	00001fd0 	ldrdeq	r1, [r0], -r0
    2c38:	00001fc0 	andeq	r1, r0, r0, asr #31
    2c3c:	0000730e 	andeq	r7, r0, lr, lsl #6
    2c40:	00043c00 	andeq	r3, r4, r0, lsl #24
    2c44:	c0030500 	andgt	r0, r3, r0, lsl #10
    2c48:	1d00009c 	stcne	0, cr0, [r0, #-624]	; 0xfffffd90
    2c4c:	000007de 	ldrdeq	r0, [r0], -lr
    2c50:	8a0b4b01 	bhi	2d585c <__bss_end__+0x2cb734>
    2c54:	42000000 	andmi	r0, r0, #0, 0
    2c58:	3e000020 	cdpcc	0, 0, cr0, cr0, cr0, {1}
    2c5c:	1b000020 	blne	2ce4 <__code_start__-0x531c>
    2c60:	0000081f 	andeq	r0, r0, pc, lsl r8
    2c64:	00009324 	andeq	r9, r0, r4, lsr #6
    2c68:	00033803 	andeq	r3, r3, r3, lsl #16
    2c6c:	0e490100 	dvfeqe	f0, f1, f0
    2c70:	000005a3 	andeq	r0, r0, r3, lsr #11
    2c74:	00083a1a 	andeq	r3, r8, sl, lsl sl
    2c78:	00206200 	eoreq	r6, r0, r0, lsl #4
    2c7c:	00206000 	eoreq	r6, r0, r0
    2c80:	08301a00 	ldmdaeq	r0!, {r9, fp, ip}
    2c84:	207a0000 	rsbscs	r0, sl, r0
    2c88:	20760000 	rsbscs	r0, r6, r0
    2c8c:	381e0000 	ldmdacc	lr, {}	; <UNPREDICTABLE>
    2c90:	00000003 	andeq	r0, r0, r3
    2c94:	00936c0f 	addseq	r6, r3, pc, lsl #24
    2c98:	0008bc00 	andeq	fp, r8, r0, lsl #24
    2c9c:	0005dc00 	andeq	sp, r5, r0, lsl #24
    2ca0:	50011000 	andpl	r1, r1, r0
    2ca4:	98e00305 	stmials	r0!, {r0, r2, r8, r9}^
    2ca8:	01100000 	tsteq	r0, r0
    2cac:	00030551 	andeq	r0, r3, r1, asr r5
    2cb0:	1000009b 	mulne	r0, fp, r0
    2cb4:	03055201 	movweq	r5, #20993	; 0x5201
    2cb8:	00009cc0 	andeq	r9, r0, r0, asr #25
    2cbc:	02530110 	subseq	r0, r3, #4
    2cc0:	02104808 	andseq	r4, r0, #8, 16	; 0x80000
    2cc4:	0305007d 	movweq	r0, #20605	; 0x507d
    2cc8:	00009b10 	andeq	r9, r0, r0, lsl fp
    2ccc:	93701100 	cmnls	r0, #0
    2cd0:	08c80000 	stmiaeq	r8, {}^	; <UNPREDICTABLE>
    2cd4:	900f0000 	andls	r0, pc, r0
    2cd8:	bc000093 	stclt	0, cr0, [r0], {147}	; 0x93
    2cdc:	21000008 	tstcs	r0, r8
    2ce0:	10000006 	andne	r0, r0, r6
    2ce4:	03055001 	movweq	r5, #20481	; 0x5001
    2ce8:	00009b8c 	andeq	r9, r0, ip, lsl #23
    2cec:	05510110 	ldrbeq	r0, [r1, #-272]	; 0xfffffef0
    2cf0:	009b0003 	addseq	r0, fp, r3
    2cf4:	52011000 	andpl	r1, r1, #0, 0
    2cf8:	9cc00305 	stclls	3, cr0, [r0], {5}
    2cfc:	01100000 	tsteq	r0, r0
    2d00:	4e080253 	mcrmi	2, 0, r0, cr8, cr3, {2}
    2d04:	007d0210 	rsbseq	r0, sp, r0, lsl r2
    2d08:	5001f308 	andpl	pc, r1, r8, lsl #6
    2d0c:	f8090723 			; <UNDEFINED> instruction: 0xf8090723
    2d10:	9411001a 	ldrls	r0, [r1], #-26	; 0xffffffe6
    2d14:	c8000093 	stmdagt	r0, {r0, r1, r4, r7}
    2d18:	00000008 	andeq	r0, r0, r8
    2d1c:	00086c0c 	andeq	r6, r8, ip, lsl #24
    2d20:	063c0100 	ldrteq	r0, [ip], -r0, lsl #2
    2d24:	000092bc 			; <UNDEFINED> instruction: 0x000092bc
    2d28:	00000058 	andeq	r0, r0, r8, asr r0
    2d2c:	06cf9c01 	strbeq	r9, [pc], r1, lsl #24
    2d30:	090a0000 	stmdbeq	sl, {}	; <UNPREDICTABLE>
    2d34:	01000008 	tsteq	r0, r8
    2d38:	0025103d 	eoreq	r1, r5, sp, lsr r0
    2d3c:	03050000 	movweq	r0, #20480	; 0x5000
    2d40:	0000a120 	andeq	sl, r0, r0, lsr #2
    2d44:	0000730e 	andeq	r7, r0, lr, lsl #6
    2d48:	0006df00 	andeq	sp, r6, r0, lsl #30
    2d4c:	b0030500 	andlt	r0, r3, r0, lsl #10
    2d50:	0700009c 			; <UNDEFINED> instruction: 0x0700009c
    2d54:	002c0407 	eoreq	r0, ip, r7, lsl #8
    2d58:	42010000 	andmi	r0, r1, #0, 0
    2d5c:	00067a0a 	andeq	r7, r6, sl, lsl #20
    2d60:	08330800 	ldmdaeq	r3!, {fp}
    2d64:	00000000 	andeq	r0, r0, r0
    2d68:	0f000010 	svceq	0x00000010
    2d6c:	000092e8 	andeq	r9, r0, r8, ror #5
    2d70:	000006e4 	andeq	r0, r0, r4, ror #13
    2d74:	00000696 	muleq	r0, r6, r6
    2d78:	03500110 	cmpeq	r0, #4
    2d7c:	10244040 	eorne	r4, r4, r0, asr #32
    2d80:	40035101 	andmi	r5, r3, r1, lsl #2
    2d84:	0f002448 	svceq	0x00002448
    2d88:	00009300 	andeq	r9, r0, r0, lsl #6
    2d8c:	000008bc 			; <UNDEFINED> instruction: 0x000008bc
    2d90:	000006c5 	andeq	r0, r0, r5, asr #13
    2d94:	05500110 	ldrbeq	r0, [r0, #-272]	; 0xfffffef0
    2d98:	009b5c03 	addseq	r5, fp, r3, lsl #24
    2d9c:	51011000 	mrspl	r1, (UNDEF: 1)
    2da0:	9b000305 	blls	39bc <__code_start__-0x4644>
    2da4:	01100000 	tsteq	r0, r0
    2da8:	b0030552 	andlt	r0, r3, r2, asr r5
    2dac:	1000009c 	mulne	r0, ip, r0
    2db0:	08025301 	stmdaeq	r2, {r0, r8, r9, ip, lr}
    2db4:	04110040 	ldreq	r0, [r1], #-64	; 0xffffffc0
    2db8:	c8000093 	stmdagt	r0, {r0, r1, r4, r7}
    2dbc:	00000008 	andeq	r0, r0, r8
    2dc0:	00007e12 	andeq	r7, r0, r2, lsl lr
    2dc4:	0006df00 	andeq	sp, r6, r0, lsl #30
    2dc8:	002c1300 	eoreq	r1, ip, r0, lsl #6
    2dcc:	000c0000 	andeq	r0, ip, r0
    2dd0:	0006cf05 	andeq	ip, r6, r5, lsl #30
    2dd4:	08950c00 	ldmeq	r5, {sl, fp}
    2dd8:	2d010000 	stccs	0, cr0, [r1, #-0]
    2ddc:	00922006 	addseq	r2, r2, r6
    2de0:	00009c00 	andeq	r9, r0, r0, lsl #24
    2de4:	c89c0100 	ldmgt	ip, {r8}
    2de8:	17000007 	strne	r0, [r0, -r7]
    2dec:	000007dd 	ldrdeq	r0, [r0], -sp
    2df0:	2c262d01 	stccs	13, cr2, [r6], #-4
    2df4:	a8000000 	stmdage	r0, {}	; <UNPREDICTABLE>
    2df8:	9a000020 	bls	2e80 <__code_start__-0x5180>
    2dfc:	17000020 	strne	r0, [r0, -r0, lsr #32]
    2e00:	000007d2 	ldrdeq	r0, [r0], -r2
    2e04:	2c362d01 	ldccs	13, cr2, [r6], #-4
    2e08:	10000000 	andne	r0, r0, r0
    2e0c:	08000021 	stmdaeq	r0, {r0, r5}
    2e10:	1d000021 	stcne	0, cr0, [r0, #-132]	; 0xffffff7c
    2e14:	000007de 	ldrdeq	r0, [r0], -lr
    2e18:	c20b2e01 	andgt	r2, fp, #1, 28
    2e1c:	58000000 	stmdapl	r0, {}	; <UNPREDICTABLE>
    2e20:	4a000021 	bmi	2eac <__code_start__-0x5154>
    2e24:	0e000021 	cdpeq	0, 0, cr0, cr0, cr1, {1}
    2e28:	00000073 	andeq	r0, r0, r3, ror r0
    2e2c:	000007d8 	ldrdeq	r0, [r0], -r8
    2e30:	9c980305 	ldcls	3, cr0, [r8], {5}
    2e34:	780f0000 	stmdavc	pc, {}	; <UNPREDICTABLE>
    2e38:	bc000092 	stclt	0, cr0, [r0], {146}	; 0x92
    2e3c:	7e000008 	cdpvc	0, 0, cr0, cr0, cr8, {0}
    2e40:	10000007 	andne	r0, r0, r7
    2e44:	03055001 	movweq	r5, #20481	; 0x5001
    2e48:	000098e0 	andeq	r9, r0, r0, ror #17
    2e4c:	05510110 	ldrbeq	r0, [r1, #-272]	; 0xfffffef0
    2e50:	009b0003 	addseq	r0, fp, r3
    2e54:	52011000 	andpl	r1, r1, #0, 0
    2e58:	9c980305 	ldcls	3, cr0, [r8], {5}
    2e5c:	01100000 	tsteq	r0, r0
    2e60:	30080253 	andcc	r0, r8, r3, asr r2
    2e64:	007d0210 	rsbseq	r0, sp, r0, lsl r2
    2e68:	9b0c0305 	blls	303a84 <__bss_end__+0x2f995c>
    2e6c:	11000000 	mrsne	r0, (UNDEF: 0)
    2e70:	0000927c 	andeq	r9, r0, ip, ror r2
    2e74:	000008c8 	andeq	r0, r0, r8, asr #17
    2e78:	0092a00f 	addseq	sl, r2, pc
    2e7c:	0008bc00 	andeq	fp, r8, r0, lsl #24
    2e80:	0007be00 	andeq	fp, r7, r0, lsl #28
    2e84:	50011000 	andpl	r1, r1, r0
    2e88:	9b180305 	blls	603aa4 <__bss_end__+0x5f997c>
    2e8c:	01100000 	tsteq	r0, r0
    2e90:	00030551 	andeq	r0, r3, r1, asr r5
    2e94:	1000009b 	mulne	r0, fp, r0
    2e98:	03055201 	movweq	r5, #20993	; 0x5201
    2e9c:	00009c98 	muleq	r0, r8, ip
    2ea0:	02530110 	subseq	r0, r3, #4
    2ea4:	02103408 	andseq	r3, r0, #8, 8	; 0x8000000
    2ea8:	f303007d 	vqadd.u8	q0, <illegal reg q1.5>, <illegal reg q14.5>
    2eac:	11005001 	tstne	r0, r1
    2eb0:	000092a4 	andeq	r9, r0, r4, lsr #5
    2eb4:	000008c8 	andeq	r0, r0, r8, asr #17
    2eb8:	007e1200 	rsbseq	r1, lr, r0, lsl #4
    2ebc:	07d80000 	ldrbeq	r0, [r8, r0]
    2ec0:	2c130000 	ldccs	0, cr0, [r3], {-0}
    2ec4:	16000000 	strne	r0, [r0], -r0
    2ec8:	07c80500 	strbeq	r0, [r8, r0, lsl #10]
    2ecc:	841f0000 	ldrhi	r0, [pc], #-0	; 2ed4 <__code_start__-0x512c>
    2ed0:	01000008 	tsteq	r0, r8
    2ed4:	008a072a 	addeq	r0, sl, sl, lsr #14
    2ed8:	92100000 	andsls	r0, r0, #0, 0
    2edc:	00100000 	andseq	r0, r0, r0
    2ee0:	9c010000 	stcls	0, cr0, [r1], {-0}
    2ee4:	0007bf1f 	andeq	fp, r7, pc, lsl pc
    2ee8:	07290100 	streq	r0, [r9, -r0, lsl #2]!
    2eec:	0000008a 	andeq	r0, r0, sl, lsl #1
    2ef0:	00009200 	andeq	r9, r0, r0, lsl #4
    2ef4:	00000010 	andeq	r0, r0, r0, lsl r0
    2ef8:	391f9c01 	ldmdbcc	pc, {r0, sl, fp, ip, pc}	; <UNPREDICTABLE>
    2efc:	01000008 	tsteq	r0, r8
    2f00:	008a0728 	addeq	r0, sl, r8, lsr #14
    2f04:	91f00000 	mvnsls	r0, r0
    2f08:	00100000 	andseq	r0, r0, r0
    2f0c:	9c010000 	stcls	0, cr0, [r1], {-0}
    2f10:	0007fc20 	andeq	pc, r7, r0, lsr #24
    2f14:	18100100 	ldmdane	r0, {r8}
    2f18:	0000002c 	andeq	r0, r0, ip, lsr #32
    2f1c:	00085403 	andeq	r5, r8, r3, lsl #8
    2f20:	00782100 	rsbseq	r2, r8, r0, lsl #2
    2f24:	2c291001 	stccs	0, cr1, [r9], #-4
    2f28:	21000000 	mrscs	r0, (UNDEF: 0)
    2f2c:	1001006e 	andne	r0, r1, lr, rrx
    2f30:	00002c35 	andeq	r2, r0, r5, lsr ip
    2f34:	00730e00 	rsbseq	r0, r3, r0, lsl #28
    2f38:	05180000 	ldreq	r0, [r8, #-0]
    2f3c:	03050000 	movweq	r0, #20480	; 0x5000
    2f40:	00009ce8 	andeq	r9, r0, r8, ror #25
    2f44:	085a2000 	ldmdaeq	sl, {sp}^
    2f48:	0d010000 	stceq	0, cr0, [r1, #-0]
    2f4c:	00002c18 	andeq	r2, r0, r8, lsl ip
    2f50:	08700300 	ldmdaeq	r0!, {r8, r9}^
    2f54:	78210000 	stmdavc	r1!, {}	; <UNPREDICTABLE>
    2f58:	290d0100 	stmdbcs	sp, {r8}
    2f5c:	0000002c 	andeq	r0, r0, ip, lsr #32
    2f60:	08792000 	ldmdaeq	r9!, {sp}^
    2f64:	07010000 	streq	r0, [r1, -r0]
    2f68:	00002c18 	andeq	r2, r0, r8, lsl ip
    2f6c:	08960300 	ldmeq	r6, {r8, r9}
    2f70:	78210000 	stmdavc	r1!, {}	; <UNPREDICTABLE>
    2f74:	2c070100 	stfcss	f0, [r7], {-0}
    2f78:	0000002c 	andeq	r0, r0, ip, lsr #32
    2f7c:	01006e21 	tsteq	r0, r1, lsr #28
    2f80:	002c3807 	eoreq	r3, ip, r7, lsl #16
    2f84:	20000000 	andcs	r0, r0, r0
    2f88:	0000082b 	andeq	r0, r0, fp, lsr #16
    2f8c:	5d180401 	cfldrspl	mvf0, [r8, #-4]
    2f90:	03000000 	movweq	r0, #0
    2f94:	000008bc 			; <UNDEFINED> instruction: 0x000008bc
    2f98:	01007821 	tsteq	r0, r1, lsr #16
    2f9c:	005d2904 	subseq	r2, sp, r4, lsl #18
    2fa0:	79210000 	stmdbvc	r1!, {}	; <UNPREDICTABLE>
    2fa4:	35040100 	strcc	r0, [r4, #-256]	; 0xffffff00
    2fa8:	0000005d 	andeq	r0, r0, sp, asr r0
    2fac:	02082200 	andeq	r2, r8, #0, 4
    2fb0:	02080000 	andeq	r0, r8, #0, 0
    2fb4:	28020000 	stmdacs	r2, {}	; <UNPREDICTABLE>
    2fb8:	00162206 	andseq	r2, r6, r6, lsl #4
    2fbc:	00160000 	andseq	r0, r6, r0
    2fc0:	6e020000 	cdpvs	0, 0, cr0, cr2, cr0, {0}
    2fc4:	08ac2206 	stmiaeq	ip!, {r1, r2, r9, sp}
    2fc8:	08ac0000 	stmiaeq	ip!, {}	; <UNPREDICTABLE>
    2fcc:	1d020000 	stcne	0, cr0, [r2, #-0]
    2fd0:	081a2206 	ldmdaeq	sl, {r1, r2, r9, sp}
    2fd4:	081a0000 	ldmdaeq	sl, {}	; <UNPREDICTABLE>
    2fd8:	f2020000 	vhadd.s8	d0, d2, d0
    2fdc:	06730007 	ldrbteq	r0, [r3], -r7
    2fe0:	00040000 	andeq	r0, r4, r0
    2fe4:	00001171 	andeq	r1, r0, r1, ror r1
    2fe8:	021e0104 	andseq	r0, lr, #1
    2fec:	fe0c0000 	cdp2	0, 0, cr0, cr12, cr0, {0}
    2ff0:	f5000008 			; <UNDEFINED> instruction: 0xf5000008
    2ff4:	a0000002 	andge	r0, r0, r2
    2ff8:	98000095 	stmdals	r0, {r0, r2, r4, r7}
    2ffc:	63000001 	movwvs	r0, #1
    3000:	02000019 	andeq	r0, r0, #25, 0
    3004:	00970708 	addseq	r0, r7, r8, lsl #14
    3008:	04020000 	streq	r0, [r2], #-0
    300c:	0000a107 	andeq	sl, r0, r7, lsl #2
    3010:	05040300 	streq	r0, [r4, #-768]	; 0xfffffd00
    3014:	00746e69 	rsbseq	r6, r4, r9, ror #28
    3018:	00002c04 	andeq	r2, r0, r4, lsl #24
    301c:	06010200 	streq	r0, [r1], -r0, lsl #4
    3020:	0000000a 	andeq	r0, r0, sl
    3024:	c8050202 	stmdagt	r5, {r1, r9}
    3028:	02000000 	andeq	r0, r0, #0, 0
    302c:	00b30504 	adcseq	r0, r3, r4, lsl #10
    3030:	08020000 	stmdaeq	r2, {}	; <UNPREDICTABLE>
    3034:	0000ae05 	andeq	sl, r0, r5, lsl #28
    3038:	08010200 	stmdaeq	r1, {r9}
    303c:	00000008 	andeq	r0, r0, r8
    3040:	59070202 	stmdbpl	r7, {r1, r9}
    3044:	05000000 	streq	r0, [r0, #-0]
    3048:	000003aa 	andeq	r0, r0, sl, lsr #7
    304c:	75193403 	ldrvc	r3, [r9, #-1027]	; 0xfffffbfd
    3050:	02000000 	andeq	r0, r0, #0, 0
    3054:	009c0704 	addseq	r0, ip, r4, lsl #14
    3058:	33060000 	movwcc	r0, #24576	; 0x6000
    305c:	8b000000 	blhi	3064 <__code_start__-0x4f9c>
    3060:	07000000 	streq	r0, [r0, -r0]
    3064:	00000033 	andeq	r0, r0, r3, lsr r0
    3068:	00bc0800 	adcseq	r0, ip, r0, lsl #16
    306c:	1c020000 	stcne	0, cr0, [r2], {-0}
    3070:	0000970e 	andeq	r9, r0, lr, lsl #14
    3074:	7c040900 			; <UNDEFINED> instruction: 0x7c040900
    3078:	06000000 	streq	r0, [r0], -r0
    307c:	00000033 	andeq	r0, r0, r3, lsr r0
    3080:	000000ac 	andeq	r0, r0, ip, lsr #1
    3084:	0000ac07 	andeq	sl, r0, r7, lsl #24
    3088:	04090000 	streq	r0, [r9], #-0
    308c:	000000b9 	strheq	r0, [r0], -r9
    3090:	11080102 	tstne	r8, r2, lsl #2
    3094:	04000000 	streq	r0, [r0], #-0
    3098:	000000b2 	strheq	r0, [r0], -r2
    309c:	00032008 	andeq	r2, r3, r8
    30a0:	0e210200 	cdpeq	2, 2, cr0, cr1, cr0, {0}
    30a4:	000000ca 	andeq	r0, r0, sl, asr #1
    30a8:	009d0409 	addseq	r0, sp, r9, lsl #8
    30ac:	070a0000 	streq	r0, [sl, -r0]
    30b0:	00005b01 	andeq	r5, r0, r1, lsl #22
    30b4:	0e0c0400 	cfcpyseq	mvf0, mvf12
    30b8:	0000010f 	andeq	r0, r0, pc, lsl #2
    30bc:	0007970b 	andeq	r9, r7, fp, lsl #14
    30c0:	cf0b0000 	svcgt	0x000b0000
    30c4:	01000005 	tsteq	r0, r5
    30c8:	0006120b 	andeq	r1, r6, fp, lsl #4
    30cc:	210b0400 	tstcs	fp, r0, lsl #8
    30d0:	05000006 	streq	r0, [r0, #-6]
    30d4:	0006300b 	andeq	r3, r6, fp
    30d8:	3f0b0600 	svccc	0x000b0600
    30dc:	07000006 	streq	r0, [r0, -r6]
    30e0:	0007600b 	andeq	r6, r7, fp
    30e4:	4e0b0300 	cdpmi	3, 0, cr0, cr11, cr0, {0}
    30e8:	02000006 	andeq	r0, r0, #6, 0
    30ec:	093c0500 	ldmdbeq	ip!, {r8, sl}
    30f0:	15040000 	strne	r0, [r4, #-0]
    30f4:	0000d003 	andeq	sp, r0, r3
    30f8:	08d50c00 	ldmeq	r5, {sl, fp}^
    30fc:	1d010000 	stcne	0, cr0, [r1, #-0]
    3100:	00003a17 	andeq	r3, r0, r7, lsl sl
    3104:	20001c00 	andcs	r1, r0, r0, lsl #24
    3108:	08cb0c20 	stmiaeq	fp, {r5, sl, fp}^
    310c:	1e010000 	cdpne	0, 0, cr0, cr1, cr0, {0}
    3110:	00003a17 	andeq	r3, r0, r7, lsl sl
    3114:	20002800 	andcs	r2, r0, r0, lsl #16
    3118:	09480c20 	stmdbeq	r8, {r5, sl, fp}^
    311c:	1f010000 	svcne	0x00010000
    3120:	00003a17 	andeq	r3, r0, r7, lsl sl
    3124:	20003400 	andcs	r3, r0, r0, lsl #8
    3128:	08f40d20 	ldmeq	r4!, {r5, r8, sl, fp}^
    312c:	51010000 	mrspl	r0, (UNDEF: 1)
    3130:	00003305 	andeq	r3, r0, r5, lsl #6
    3134:	00971000 	addseq	r1, r7, r0
    3138:	00002800 	andeq	r2, r0, r0, lsl #16
    313c:	ba9c0100 	blt	fe703544 <__bss_end__+0xfe6f941c>
    3140:	0e000001 	cdpeq	0, 0, cr0, cr0, cr1, {0}
    3144:	006e6970 	rsbeq	r6, lr, r0, ror r9
    3148:	2c185101 	ldfcss	f5, [r8], {1}
    314c:	be000000 	cdplt	0, 0, cr0, cr0, cr0, {0}
    3150:	b8000021 	stmdalt	r0, {r0, r5}
    3154:	0f000021 	svceq	0x00000021
    3158:	00000952 	andeq	r0, r0, r2, asr r9
    315c:	2c0e5201 	sfmcs	f5, 4, [lr], {1}
    3160:	f4000000 	vst4.8	{d0-d3}, [r0], r0
    3164:	ea000021 	b	31f0 <__code_start__-0x4e10>
    3168:	10000021 	andne	r0, r0, r1, lsr #32
    316c:	0066666f 	rsbeq	r6, r6, pc, ror #12
    3170:	2c0e5301 	stccs	3, cr5, [lr], {1}
    3174:	62000000 	andvs	r0, r0, #0, 0
    3178:	5c000022 	stcpl	0, cr0, [r0], {34}	; 0x22
    317c:	11000022 	tstne	r0, r2, lsr #32
    3180:	00009724 	andeq	r9, r0, r4, lsr #14
    3184:	0000065e 	andeq	r0, r0, lr, asr r6
    3188:	0a500112 	beq	14035d8 <__bss_end__+0x13f94b0>
    318c:	25350074 	ldrcs	r0, [r5, #-116]!	; 0xffffff8c
    3190:	8080b423 	addhi	fp, r0, r3, lsr #8
    3194:	00000281 	andeq	r0, r0, r1, lsl #5
    3198:	0008df13 	andeq	sp, r8, r3, lsl pc
    319c:	064a0100 	strbeq	r0, [sl], -r0, lsl #2
    31a0:	000096e0 	andeq	r9, r0, r0, ror #13
    31a4:	00000030 	andeq	r0, r0, r0, lsr r0
    31a8:	02759c01 	rsbseq	r9, r5, #256	; 0x100
    31ac:	700e0000 	andvc	r0, lr, r0
    31b0:	01006e69 	tsteq	r0, r9, ror #28
    31b4:	002c1a4a 	eoreq	r1, ip, sl, asr #20
    31b8:	229f0000 	addscs	r0, pc, #0, 0
    31bc:	22930000 	addscs	r0, r3, #0, 0
    31c0:	760e0000 	strvc	r0, [lr], -r0
    31c4:	284a0100 	stmdacs	sl, {r8}^
    31c8:	0000002c 	andeq	r0, r0, ip, lsr #32
    31cc:	000022f3 	strdeq	r2, [r0], -r3
    31d0:	000022ef 	andeq	r2, r0, pc, ror #5
    31d4:	00038d14 	andeq	r8, r3, r4, lsl sp
    31d8:	0096f000 	addseq	pc, r6, r0
    31dc:	04080100 	streq	r0, [r8], #-256	; 0xffffff00
    31e0:	4c010000 	stcmi	0, cr0, [r1], {-0}
    31e4:	00023509 	andeq	r3, r2, r9, lsl #10
    31e8:	039a1500 	orrseq	r1, sl, #0, 10
    31ec:	231a0000 	tstcs	sl, #0, 0
    31f0:	23140000 	tstcs	r4, #0, 0
    31f4:	fc160000 	ldc2	0, cr0, [r6], {-0}
    31f8:	6a000096 	bvs	3458 <__code_start__-0x4ba8>
    31fc:	12000006 	andne	r0, r0, #6, 0
    3200:	0c055001 	stceq	0, cr5, [r5], {1}
    3204:	2020001c 	eorcs	r0, r0, ip, lsl r0
    3208:	05510112 	ldrbeq	r0, [r1, #-274]	; 0xfffffeee
    320c:	5001f331 	andpl	pc, r1, r1, lsr r3	; <UNPREDICTABLE>
    3210:	17000024 	strne	r0, [r0, -r4, lsr #32]
    3214:	00000373 	andeq	r0, r0, r3, ror r3
    3218:	000096fc 	strdeq	r9, [r0], -ip
    321c:	0096fc02 	addseq	pc, r6, r2, lsl #24
    3220:	00001400 	andeq	r1, r0, r0, lsl #8
    3224:	094e0100 	stmdbeq	lr, {r8}^
    3228:	00038015 	andeq	r8, r3, r5, lsl r0
    322c:	00234c00 	eoreq	r4, r3, r0, lsl #24
    3230:	00234600 	eoreq	r4, r3, r0, lsl #12
    3234:	97081600 	strls	r1, [r8, -r0, lsl #12]
    3238:	066a0000 	strbteq	r0, [sl], -r0
    323c:	01120000 	tsteq	r2, r0
    3240:	280c0550 	stmdacs	ip, {r4, r6, r8, sl}
    3244:	12202000 	eorne	r2, r0, #0, 0
    3248:	31055101 	tstcc	r5, r1, lsl #2
    324c:	245001f3 	ldrbcs	r0, [r0], #-499	; 0xfffffe0d
    3250:	13000000 	movwne	r0, #0
    3254:	0000090b 	andeq	r0, r0, fp, lsl #18
    3258:	88064501 	stmdahi	r6, {r0, r8, sl, lr}
    325c:	58000096 	stmdapl	r0, {r1, r2, r4, r7}
    3260:	01000000 	mrseq	r0, (UNDEF: 0)
    3264:	0003739c 	muleq	r3, ip, r3
    3268:	69700e00 	ldmdbvs	r0!, {r9, sl, fp}^
    326c:	4501006e 	strmi	r0, [r1, #-110]	; 0xffffff92
    3270:	00002c1e 	andeq	r2, r0, lr, lsl ip
    3274:	00237e00 	eoreq	r7, r3, r0, lsl #28
    3278:	00237800 	eoreq	r7, r3, r0, lsl #16
    327c:	04a51800 	strteq	r1, [r5], #2048	; 0x800
    3280:	96880000 	strls	r0, [r8], r0
    3284:	c8020000 	stmdagt	r2, {}	; <UNPREDICTABLE>
    3288:	01000003 	tsteq	r0, r3
    328c:	be190546 	cfmac32lt	mvfx0, mvfx9, mvfx6
    3290:	00000004 	andeq	r0, r0, r4
    3294:	0004b215 	andeq	fp, r4, r5, lsl r2
    3298:	0023b000 	eoreq	fp, r3, r0
    329c:	0023aa00 	eoreq	sl, r3, r0, lsl #20
    32a0:	03c81a00 	biceq	r1, r8, #0, 20
    32a4:	ca1b0000 	bgt	6c32ac <__bss_end__+0x6b9184>
    32a8:	1b000004 	blne	32c0 <__code_start__-0x4d40>
    32ac:	000004d6 	ldrdeq	r0, [r0], -r6
    32b0:	0004e01b 	andeq	lr, r4, fp, lsl r0
    32b4:	04a51800 	strteq	r1, [r5], #2048	; 0x800
    32b8:	96900000 	ldrls	r0, [r0], r0
    32bc:	e8000000 	stmda	r0, {}	; <UNPREDICTABLE>
    32c0:	01000003 	tsteq	r0, r3
    32c4:	be190628 	cfmsub32lt	mvax1, mvfx0, mvfx9, mvfx8
    32c8:	00000004 	andeq	r0, r0, r4
    32cc:	0004b215 	andeq	fp, r4, r5, lsl r2
    32d0:	0023e200 	eoreq	lr, r3, r0, lsl #4
    32d4:	0023dc00 	eoreq	sp, r3, r0, lsl #24
    32d8:	03e81a00 	mvneq	r1, #0, 20
    32dc:	ca1c0000 	bgt	7032e4 <__bss_end__+0x6f91bc>
    32e0:	14000004 	strne	r0, [r0], #-4
    32e4:	0e000024 	cdpeq	0, 0, cr0, cr0, cr4, {1}
    32e8:	1c000024 	stcne	0, cr0, [r0], {36}	; 0x24
    32ec:	000004d6 	ldrdeq	r0, [r0], -r6
    32f0:	00002456 	andeq	r2, r0, r6, asr r4
    32f4:	00002450 	andeq	r2, r0, r0, asr r4
    32f8:	0004e01c 	andeq	lr, r4, ip, lsl r0
    32fc:	0024ac00 	eoreq	sl, r4, r0, lsl #24
    3300:	0024a400 	eoreq	sl, r4, r0, lsl #8
    3304:	96b81d00 	ldrtls	r1, [r8], r0, lsl #26
    3308:	065e0000 	ldrbeq	r0, [lr], -r0
    330c:	033b0000 	teqeq	fp, #0, 0
    3310:	01120000 	tsteq	r2, r0
    3314:	00760250 	rsbseq	r0, r6, r0, asr r2
    3318:	96dc1600 	ldrbls	r1, [ip], r0, lsl #12
    331c:	066a0000 	strbteq	r0, [sl], -r0
    3320:	01120000 	tsteq	r2, r0
    3324:	01f32550 	mvnseq	r2, r0, asr r5
    3328:	f72cf750 			; <UNDEFINED> instruction: 0xf72cf750
    332c:	0825f425 	stmdaeq	r5!, {r0, r2, r5, sl, ip, sp, lr, pc}
    3330:	cccccccd 	stclgt	12, cr12, [ip], {205}	; 0xcd
    3334:	00000000 	andeq	r0, r0, r0
    3338:	f720081e 			; <UNDEFINED> instruction: 0xf720081e
    333c:	2cf72525 	cfldr64cs	mvdx2, [r7], #148	; 0x94
    3340:	253300f7 	ldrcs	r0, [r3, #-247]!	; 0xffffff09
    3344:	a0808023 	addge	r8, r0, r3, lsr #32
    3348:	00243240 	eoreq	r3, r4, r0, asr #4
    334c:	00000000 	andeq	r0, r0, r0
    3350:	091a1e00 	ldmdbeq	sl, {r9, sl, fp, ip}
    3354:	40010000 	andmi	r0, r1, r0
    3358:	038d030d 	orreq	r0, sp, #872415232	; 0x34000000
    335c:	701f0000 	andsvc	r0, pc, r0
    3360:	01006e69 	tsteq	r0, r9, ror #28
    3364:	002c2340 	eoreq	r2, ip, r0, asr #6
    3368:	1e000000 	cdpne	0, 0, cr0, cr0, cr0, {0}
    336c:	00000957 	andeq	r0, r0, r7, asr r9
    3370:	030d3b01 	movweq	r3, #56065	; 0xdb01
    3374:	000003a7 	andeq	r0, r0, r7, lsr #7
    3378:	6e69701f 	mcrvs	0, 3, r7, cr9, cr15, {0}
    337c:	223b0100 	eorscs	r0, fp, #0
    3380:	0000002c 	andeq	r0, r0, ip, lsr #32
    3384:	09271300 	stmdbeq	r7!, {r8, r9, ip}
    3388:	36010000 	strcc	r0, [r1], -r0
    338c:	00960006 	addseq	r0, r6, r6
    3390:	00005800 	andeq	r5, r0, r0, lsl #16
    3394:	a59c0100 	ldrge	r0, [ip, #256]	; 0x100
    3398:	0e000004 	cdpeq	0, 0, cr0, cr0, cr4, {0}
    339c:	006e6970 	rsbeq	r6, lr, r0, ror r9
    33a0:	2c1f3601 	ldccs	6, cr3, [pc], {1}
    33a4:	0a000000 	beq	33ac <__code_start__-0x4c54>
    33a8:	06000025 	streq	r0, [r0], -r5, lsr #32
    33ac:	18000025 	stmdane	r0, {r0, r2, r5}
    33b0:	000004a5 	andeq	r0, r0, r5, lsr #9
    33b4:	00009600 	andeq	r9, r0, r0, lsl #12
    33b8:	00038802 	andeq	r8, r3, r2, lsl #16
    33bc:	05370100 	ldreq	r0, [r7, #-256]!	; 0xffffff00
    33c0:	0004be19 	andeq	fp, r4, r9, lsl lr
    33c4:	b2150100 	andslt	r0, r5, #0
    33c8:	2f000004 	svccs	0x00000004
    33cc:	2b000025 	blcs	3468 <__code_start__-0x4b98>
    33d0:	1a000025 	bne	346c <__code_start__-0x4b94>
    33d4:	00000388 	andeq	r0, r0, r8, lsl #7
    33d8:	0004ca1b 	andeq	ip, r4, fp, lsl sl
    33dc:	04d61b00 	ldrbeq	r1, [r6], #2816	; 0xb00
    33e0:	e01b0000 	ands	r0, fp, r0
    33e4:	18000004 	stmdane	r0, {r2}
    33e8:	000004a5 	andeq	r0, r0, r5, lsr #9
    33ec:	00009608 	andeq	r9, r0, r8, lsl #12
    33f0:	0003a800 	andeq	sl, r3, r0, lsl #16
    33f4:	06280100 	strteq	r0, [r8], -r0, lsl #2
    33f8:	0004be19 	andeq	fp, r4, r9, lsl lr
    33fc:	b2150100 	andslt	r0, r5, #0
    3400:	54000004 	strpl	r0, [r0], #-4
    3404:	50000025 	andpl	r0, r0, r5, lsr #32
    3408:	1a000025 	bne	34a4 <__code_start__-0x4b5c>
    340c:	000003a8 	andeq	r0, r0, r8, lsr #7
    3410:	0004ca1c 	andeq	ip, r4, ip, lsl sl
    3414:	00257900 	eoreq	r7, r5, r0, lsl #18
    3418:	00257500 	eoreq	r7, r5, r0, lsl #10
    341c:	04d61c00 	ldrbeq	r1, [r6], #3072	; 0xc00
    3420:	25c50000 	strbcs	r0, [r5]
    3424:	25bf0000 	ldrcs	r0, [pc, #0]!	; 342c <__code_start__-0x4bd4>
    3428:	e01c0000 	ands	r0, ip, r0
    342c:	1b000004 	blne	3444 <__code_start__-0x4bbc>
    3430:	13000026 	movwne	r0, #38	; 0x26
    3434:	1d000026 	stcne	0, cr0, [r0, #-152]	; 0xffffff68
    3438:	00009634 	andeq	r9, r0, r4, lsr r6
    343c:	0000065e 	andeq	r0, r0, lr, asr r6
    3440:	0000046d 	andeq	r0, r0, sp, ror #8
    3444:	02500112 	subseq	r0, r0, #-2147483644	; 0x80000004
    3448:	16000075 			; <UNDEFINED> instruction: 0x16000075
    344c:	00009654 	andeq	r9, r0, r4, asr r6
    3450:	0000066a 	andeq	r0, r0, sl, ror #12
    3454:	25500112 	ldrbcs	r0, [r0, #-274]	; 0xfffffeee
    3458:	f75001f3 			; <UNDEFINED> instruction: 0xf75001f3
    345c:	f425f72c 	vld1.8	{d15}, [r5 :128], ip
    3460:	cccd0825 	stclgt	8, cr0, [sp], {37}	; 0x25
    3464:	0000cccc 	andeq	ip, r0, ip, asr #25
    3468:	081e0000 	ldmdaeq	lr, {}	; <UNPREDICTABLE>
    346c:	2525f720 	strcs	pc, [r5, #-1824]!	; 0xfffff8e0
    3470:	00f72cf7 	ldrshteq	r2, [r7], #199	; 0xc7
    3474:	80232533 	eorhi	r2, r3, r3, lsr r5
    3478:	3240a080 	subcc	sl, r0, #128, 0	; 0x80
    347c:	00000024 	andeq	r0, r0, r4, lsr #32
    3480:	1e000000 	cdpne	0, 0, cr0, cr0, cr0, {0}
    3484:	000007a7 	andeq	r0, r0, r7, lsr #15
    3488:	01062801 	tsteq	r6, r1, lsl #16
    348c:	000004eb 	andeq	r0, r0, fp, ror #9
    3490:	6e69701f 	mcrvs	0, 3, r7, cr9, cr15, {0}
    3494:	21280100 			; <UNDEFINED> instruction: 0x21280100
    3498:	0000002c 	andeq	r0, r0, ip, lsr #32
    349c:	00093720 	andeq	r3, r9, r0, lsr #14
    34a0:	32280100 	eorcc	r0, r8, #0
    34a4:	0000010f 	andeq	r0, r0, pc, lsl #2
    34a8:	66666f21 	strbtvs	r6, [r6], -r1, lsr #30
    34ac:	0e2d0100 	sufeqe	f0, f5, f0
    34b0:	0000002c 	andeq	r0, r0, ip, lsr #32
    34b4:	01006721 	tsteq	r0, r1, lsr #14
    34b8:	002c0e2e 	eoreq	r0, ip, lr, lsr #28
    34bc:	76210000 	strtvc	r0, [r1], -r0
    34c0:	0e300100 	rsfeqs	f0, f0, f0
    34c4:	0000002c 	andeq	r0, r0, ip, lsr #32
    34c8:	08ea2200 	stmiaeq	sl!, {r9, sp}^
    34cc:	b1020000 	mrslt	r0, (UNDEF: 2)
    34d0:	00006918 	andeq	r6, r0, r8, lsl r9
    34d4:	05070300 	streq	r0, [r7, #-768]	; 0xfffffd00
    34d8:	781f0000 	ldmdavc	pc, {}	; <UNPREDICTABLE>
    34dc:	2bb10200 	blcs	fec43ce4 <__bss_end__+0xfec39bbc>
    34e0:	00000069 	andeq	r0, r0, r9, rrx
    34e4:	04a52300 	strteq	r2, [r5], #768	; 0x300
    34e8:	95a00000 	strls	r0, [r0, #0]!
    34ec:	00600000 	rsbeq	r0, r0, r0
    34f0:	9c010000 	stcls	0, cr0, [r1], {-0}
    34f4:	000005e4 	andeq	r0, r0, r4, ror #11
    34f8:	0004b215 	andeq	fp, r4, r5, lsl r2
    34fc:	00265a00 	eoreq	r5, r6, r0, lsl #20
    3500:	00265600 	eoreq	r5, r6, r0, lsl #12
    3504:	04be1500 	ldrteq	r1, [lr], #1280	; 0x500
    3508:	267f0000 	ldrbtcs	r0, [pc], -r0
    350c:	267b0000 	ldrbtcs	r0, [fp], -r0
    3510:	ca1b0000 	bgt	6c3518 <__bss_end__+0x6b93f0>
    3514:	1b000004 	blne	352c <__code_start__-0x4ad4>
    3518:	000004d6 	ldrdeq	r0, [r0], -r6
    351c:	0004e01b 	andeq	lr, r4, fp, lsl r0
    3520:	04a51800 	strteq	r1, [r5], #2048	; 0x800
    3524:	95a80000 	strls	r0, [r8, #0]!
    3528:	68000000 	stmdavs	r0, {}	; <UNPREDICTABLE>
    352c:	01000003 	tsteq	r0, r3
    3530:	be150628 	cfmsub32lt	mvax1, mvfx0, mvfx5, mvfx8
    3534:	a4000004 	strge	r0, [r0], #-4
    3538:	a0000026 	andge	r0, r0, r6, lsr #32
    353c:	15000026 	strne	r0, [r0, #-38]	; 0xffffffda
    3540:	000004b2 			; <UNDEFINED> instruction: 0x000004b2
    3544:	000026c9 	andeq	r2, r0, r9, asr #13
    3548:	000026c5 	andeq	r2, r0, r5, asr #13
    354c:	0003681a 	andeq	r6, r3, sl, lsl r8
    3550:	04ca1c00 	strbeq	r1, [sl], #3072	; 0xc00
    3554:	26ee0000 	strbtcs	r0, [lr], r0
    3558:	26ea0000 	strbtcs	r0, [sl], r0
    355c:	d61c0000 	ldrle	r0, [ip], -r0
    3560:	3a000004 	bcc	3578 <__code_start__-0x4a88>
    3564:	34000027 	strcc	r0, [r0], #-39	; 0xffffffd9
    3568:	1c000027 	stcne	0, cr0, [r0], {39}	; 0x27
    356c:	000004e0 	andeq	r0, r0, r0, ror #9
    3570:	00002790 	muleq	r0, r0, r7
    3574:	00002788 	andeq	r2, r0, r8, lsl #15
    3578:	0095e01d 	addseq	lr, r5, sp, lsl r0
    357c:	00065e00 	andeq	r5, r6, r0, lsl #28
    3580:	0005ae00 	andeq	sl, r5, r0, lsl #28
    3584:	50011200 	andpl	r1, r1, r0, lsl #4
    3588:	00007602 	andeq	r7, r0, r2, lsl #12
    358c:	0095fc16 	addseq	pc, r5, r6, lsl ip	; <UNPREDICTABLE>
    3590:	00066a00 	andeq	r6, r6, r0, lsl #20
    3594:	50011200 	andpl	r1, r1, r0, lsl #4
    3598:	5001f325 	andpl	pc, r1, r5, lsr #6
    359c:	25f72cf7 	ldrbcs	r2, [r7, #3319]!	; 0xcf7
    35a0:	cd0825f4 	cfstr32gt	mvfx2, [r8, #-976]	; 0xfffffc30
    35a4:	00cccccc 	sbceq	ip, ip, ip, asr #25
    35a8:	1e000000 	cdpne	0, 0, cr0, cr0, cr0, {0}
    35ac:	25f72008 	ldrbcs	r2, [r7, #8]!
    35b0:	f72cf725 			; <UNDEFINED> instruction: 0xf72cf725
    35b4:	23253300 			; <UNDEFINED> instruction: 0x23253300
    35b8:	40a08080 	adcmi	r8, r0, r0, lsl #1
    35bc:	00002432 	andeq	r2, r0, r2, lsr r4
    35c0:	8d230000 	stchi	0, cr0, [r3, #-0]
    35c4:	58000003 	stmdapl	r0, {r0, r1}
    35c8:	18000096 	stmdane	r0, {r1, r2, r4, r7}
    35cc:	01000000 	mrseq	r0, (UNDEF: 0)
    35d0:	0006219c 	muleq	r6, ip, r1
    35d4:	039a1500 	orrseq	r1, sl, #0, 10
    35d8:	27e60000 	strbcs	r0, [r6, r0]!
    35dc:	27e00000 	strbcs	r0, [r0, r0]!
    35e0:	6c160000 	ldcvs	0, cr0, [r6], {-0}
    35e4:	6a000096 	bvs	3844 <__code_start__-0x47bc>
    35e8:	12000006 	andne	r0, r0, #6, 0
    35ec:	0c055001 	stceq	0, cr5, [r5], {1}
    35f0:	2020001c 	eorcs	r0, r0, ip, lsl r0
    35f4:	05510112 	ldrbeq	r0, [r1, #-274]	; 0xfffffeee
    35f8:	5001f331 	andpl	pc, r1, r1, lsr r3	; <UNPREDICTABLE>
    35fc:	23000024 	movwcs	r0, #36	; 0x24
    3600:	00000373 	andeq	r0, r0, r3, ror r3
    3604:	00009670 	andeq	r9, r0, r0, ror r6
    3608:	00000018 	andeq	r0, r0, r8, lsl r0
    360c:	065e9c01 	ldrbeq	r9, [lr], -r1, lsl #24
    3610:	80150000 	andshi	r0, r5, r0
    3614:	18000003 	stmdane	r0, {r0, r1}
    3618:	12000028 	andne	r0, r0, #40, 0	; 0x28
    361c:	16000028 	strne	r0, [r0], -r8, lsr #32
    3620:	00009684 	andeq	r9, r0, r4, lsl #13
    3624:	0000066a 	andeq	r0, r0, sl, ror #12
    3628:	05500112 	ldrbeq	r0, [r0, #-274]	; 0xfffffeee
    362c:	2000280c 	andcs	r2, r0, ip, lsl #16
    3630:	51011220 	tstpl	r1, r0, lsr #4
    3634:	01f33105 	mvnseq	r3, r5, lsl #2
    3638:	00002450 	andeq	r2, r0, r0, asr r4
    363c:	00057c24 	andeq	r7, r5, r4, lsr #24
    3640:	00057c00 	andeq	r7, r5, r0, lsl #24
    3644:	0ac20200 	beq	ff083e4c <__bss_end__+0xff079d24>
    3648:	0004e824 	andeq	lr, r4, r4, lsr #16
    364c:	0004e800 	andeq	lr, r4, r0, lsl #16
    3650:	06ad0200 	strteq	r0, [sp], r0, lsl #4
    3654:	00014000 	andeq	r4, r1, r0
    3658:	9f000400 	svcls	0x00000400
    365c:	04000013 	streq	r0, [r0], #-19	; 0xffffffed
    3660:	00021e01 	andeq	r1, r2, r1, lsl #28
    3664:	096a0c00 	stmdbeq	sl!, {sl, fp}^
    3668:	02f50000 	rscseq	r0, r5, #0, 0
    366c:	97380000 	ldrls	r0, [r8, -r0]!
    3670:	00780000 	rsbseq	r0, r8, r0
    3674:	1bf00000 	blne	ffc0367c <__bss_end__+0xffbf9554>
    3678:	04020000 	streq	r0, [r2], #-0
    367c:	746e6905 	strbtvc	r6, [lr], #-2309	; 0xfffff6fb
    3680:	09630300 	stmdbeq	r3!, {r8, r9}^
    3684:	d1030000 	mrsle	r0, (UNDEF: 3)
    3688:	00003817 	andeq	r3, r0, r7, lsl r8
    368c:	07040400 	streq	r0, [r4, -r0, lsl #8]
    3690:	000000a1 	andeq	r0, r0, r1, lsr #1
    3694:	0a060104 	beq	183aac <__bss_end__+0x179984>
    3698:	04000000 	streq	r0, [r0], #-0
    369c:	00c80502 	sbceq	r0, r8, r2, lsl #10
    36a0:	04040000 	streq	r0, [r4], #-0
    36a4:	0000b305 	andeq	fp, r0, r5, lsl #6
    36a8:	05080400 	streq	r0, [r8, #-1024]	; 0xfffffc00
    36ac:	000000ae 	andeq	r0, r0, lr, lsr #1
    36b0:	08080104 	stmdaeq	r8, {r2, r8}
    36b4:	04000000 	streq	r0, [r0], #-0
    36b8:	00590702 	subseq	r0, r9, r2, lsl #14
    36bc:	04040000 	streq	r0, [r4], #-0
    36c0:	00009c07 	andeq	r9, r0, r7, lsl #24
    36c4:	07080400 	streq	r0, [r8, -r0, lsl #8]
    36c8:	00000097 	muleq	r0, r7, r0
    36cc:	00002505 	andeq	r2, r0, r5, lsl #10
    36d0:	00008600 	andeq	r8, r0, r0, lsl #12
    36d4:	00250600 	eoreq	r0, r5, r0, lsl #12
    36d8:	07000000 	streq	r0, [r0, -r0]
    36dc:	000000bc 	strheq	r0, [r0], -ip
    36e0:	920e1c02 	andls	r1, lr, #512	; 0x200
    36e4:	08000000 	stmdaeq	r0, {}	; <UNPREDICTABLE>
    36e8:	00007704 	andeq	r7, r0, r4, lsl #14
    36ec:	00250500 	eoreq	r0, r5, r0, lsl #10
    36f0:	00a70000 	adceq	r0, r7, r0
    36f4:	a7060000 	strge	r0, [r6, -r0]
    36f8:	00000000 	andeq	r0, r0, r0
    36fc:	00b40408 	adcseq	r0, r4, r8, lsl #8
    3700:	01040000 	mrseq	r0, (UNDEF: 4)
    3704:	00001108 	andeq	r1, r0, r8, lsl #2
    3708:	00ad0900 	adceq	r0, sp, r0, lsl #18
    370c:	20070000 	andcs	r0, r7, r0
    3710:	02000003 	andeq	r0, r0, #3, 0
    3714:	00c50e21 	sbceq	r0, r5, r1, lsr #28
    3718:	04080000 	streq	r0, [r8], #-0
    371c:	00000098 	muleq	r0, r8, r0
    3720:	00081a0a 	andeq	r1, r8, sl, lsl #20
    3724:	07040100 	streq	r0, [r4, -r0, lsl #2]
    3728:	0000013b 	andeq	r0, r0, fp, lsr r1
    372c:	00009738 	andeq	r9, r0, r8, lsr r7
    3730:	00000078 	andeq	r0, r0, r8, ror r0
    3734:	013b9c01 	teqeq	fp, r1, lsl #24
    3738:	5f0b0000 	svcpl	0x000b0000
    373c:	04010070 	streq	r0, [r1], #-112	; 0xffffff90
    3740:	00013b14 	andeq	r3, r1, r4, lsl fp
    3744:	0c500100 	ldfeqe	f0, [r0], {-0}
    3748:	04010063 	streq	r0, [r1], #-99	; 0xffffff9d
    374c:	0000251c 	andeq	r2, r0, ip, lsl r5
    3750:	00284800 	eoreq	r4, r8, r0, lsl #16
    3754:	00284400 	eoreq	r4, r8, r0, lsl #8
    3758:	006e0c00 	rsbeq	r0, lr, r0, lsl #24
    375c:	2c260401 	cfstrscs	mvf0, [r6], #-4
    3760:	6d000000 	stcvs	0, cr0, [r0, #-0]
    3764:	69000028 	stmdbvs	r0, {r3, r5}
    3768:	0d000028 	stceq	0, cr0, [r0, #-160]	; 0xffffff60
    376c:	05010070 	streq	r0, [r1, #-112]	; 0xffffff90
    3770:	00013d0b 	andeq	r3, r1, fp, lsl #26
    3774:	00289c00 	eoreq	r9, r8, r0, lsl #24
    3778:	00288e00 	eoreq	r8, r8, r0, lsl #28
    377c:	00650d00 	rsbeq	r0, r5, r0, lsl #26
    3780:	3d140501 	cfldr32cc	mvfx0, [r4, #-4]
    3784:	f9000001 			; <UNDEFINED> instruction: 0xf9000001
    3788:	f7000028 			; <UNDEFINED> instruction: 0xf7000028
    378c:	00000028 	andeq	r0, r0, r8, lsr #32
    3790:	0408040e 	streq	r0, [r8], #-1038	; 0xfffffbf2
    3794:	000000ad 	andeq	r0, r0, sp, lsr #1
    3798:	00014900 	andeq	r4, r1, r0, lsl #18
    379c:	6b000400 	blvs	47a4 <__code_start__-0x385c>
    37a0:	04000014 	streq	r0, [r0], #-20	; 0xffffffec
    37a4:	00021e01 	andeq	r1, r2, r1, lsl #28
    37a8:	09980c00 	ldmibeq	r8, {sl, fp}
    37ac:	02f50000 	rscseq	r0, r5, #0, 0
    37b0:	97b00000 	ldrls	r0, [r0, r0]!
    37b4:	003c0000 	eorseq	r0, ip, r0
    37b8:	1d150000 	ldcne	0, cr0, [r5, #-0]
    37bc:	04020000 	streq	r0, [r2], #-0
    37c0:	746e6905 	strbtvc	r6, [lr], #-2309	; 0xfffff6fb
    37c4:	07040300 	streq	r0, [r4, -r0, lsl #6]
    37c8:	000000a1 	andeq	r0, r0, r1, lsr #1
    37cc:	0a060103 	beq	183be0 <__bss_end__+0x179ab8>
    37d0:	03000000 	movweq	r0, #0
    37d4:	00c80502 	sbceq	r0, r8, r2, lsl #10
    37d8:	04030000 	streq	r0, [r3], #-0
    37dc:	0000b305 	andeq	fp, r0, r5, lsl #6
    37e0:	05080300 	streq	r0, [r8, #-768]	; 0xfffffd00
    37e4:	000000ae 	andeq	r0, r0, lr, lsr #1
    37e8:	08080103 	stmdaeq	r8, {r0, r1, r8}
    37ec:	03000000 	movweq	r0, #0
    37f0:	00590702 	subseq	r0, r9, r2, lsl #14
    37f4:	04030000 	streq	r0, [r3], #-0
    37f8:	00009c07 	andeq	r9, r0, r7, lsl #24
    37fc:	07080300 	streq	r0, [r8, -r0, lsl #6]
    3800:	00000097 	muleq	r0, r7, r0
    3804:	00002504 	andeq	r2, r0, r4, lsl #10
    3808:	00007a00 	andeq	r7, r0, r0, lsl #20
    380c:	00250500 	eoreq	r0, r5, r0, lsl #10
    3810:	06000000 	streq	r0, [r0], -r0
    3814:	000000bc 	strheq	r0, [r0], -ip
    3818:	860e1c02 	strhi	r1, [lr], -r2, lsl #24
    381c:	07000000 	streq	r0, [r0, -r0]
    3820:	00006b04 	andeq	r6, r0, r4, lsl #22
    3824:	00250400 	eoreq	r0, r5, r0, lsl #8
    3828:	009b0000 	addseq	r0, fp, r0
    382c:	9b050000 	blls	143834 <__bss_end__+0x13970c>
    3830:	00000000 	andeq	r0, r0, r0
    3834:	00a80407 	adceq	r0, r8, r7, lsl #8
    3838:	01030000 	mrseq	r0, (UNDEF: 3)
    383c:	00001108 	andeq	r1, r0, r8, lsl #2
    3840:	00a10800 	adceq	r0, r1, r0, lsl #16
    3844:	20060000 	andcs	r0, r6, r0
    3848:	02000003 	andeq	r0, r0, #3, 0
    384c:	00b90e21 	adcseq	r0, r9, r1, lsr #28
    3850:	04070000 	streq	r0, [r7], #-0
    3854:	0000008c 	andeq	r0, r0, ip, lsl #1
    3858:	00007a09 	andeq	r7, r0, r9, lsl #20
    385c:	07060100 	streq	r0, [r6, -r0, lsl #2]
    3860:	9d0c0305 	stcls	3, cr0, [ip, #-20]	; 0xffffffec
    3864:	8b0a0000 	blhi	28386c <__bss_end__+0x279744>
    3868:	01000009 	tsteq	r0, r9
    386c:	97dc060b 	ldrbls	r0, [ip, fp, lsl #12]
    3870:	00100000 	andseq	r0, r0, r0
    3874:	9c010000 	stcls	0, cr0, [r1], {-0}
    3878:	000000f1 	strdeq	r0, [r0], -r1
    387c:	0070660b 	rsbseq	r6, r0, fp, lsl #12
    3880:	86190b01 	ldrhi	r0, [r9], -r1, lsl #22
    3884:	01000000 	mrseq	r0, (UNDEF: 0)
    3888:	ac0c0050 	stcge	0, cr0, [ip], {80}	; 0x50
    388c:	01000008 	tsteq	r0, r8
    3890:	97c40608 	strbls	r0, [r4, r8, lsl #12]
    3894:	00180000 	andseq	r0, r8, r0
    3898:	9c010000 	stcls	0, cr0, [r1], {-0}
    389c:	00097a0d 	andeq	r7, r9, sp, lsl #20
    38a0:	0c030100 	stfeqs	f0, [r3], {-0}
    38a4:	00000025 	andeq	r0, r0, r5, lsr #32
    38a8:	000097b0 			; <UNDEFINED> instruction: 0x000097b0
    38ac:	00000014 	andeq	r0, r0, r4, lsl r0
    38b0:	01409c01 	cmpeq	r0, r1, lsl #24
    38b4:	630e0000 	movwvs	r0, #57344	; 0xe000
    38b8:	21030100 	mrscs	r0, (UNDEF: 19)
    38bc:	00000025 	andeq	r0, r0, r5, lsr #32
    38c0:	00002910 	andeq	r2, r0, r0, lsl r9
    38c4:	0000290c 	andeq	r2, r0, ip, lsl #18
    38c8:	0097bc0f 	addseq	fp, r7, pc, lsl #24
    38cc:	00014000 	andeq	r4, r1, r0
    38d0:	50011000 	andpl	r1, r1, r0
    38d4:	00007402 	andeq	r7, r0, r2, lsl #8
    38d8:	078d1100 	streq	r1, [sp, r0, lsl #2]
    38dc:	078d0000 	streq	r0, [sp, r0]
    38e0:	42020000 	andmi	r0, r2, #0, 0
    38e4:	01370006 	teqeq	r7, r6
    38e8:	00040000 	andeq	r0, r4, r0
    38ec:	0000157a 	andeq	r1, r0, sl, ror r5
    38f0:	021e0104 	andseq	r0, lr, #1
    38f4:	a90c0000 	stmdbge	ip, {}	; <UNPREDICTABLE>
    38f8:	f5000009 			; <UNDEFINED> instruction: 0xf5000009
    38fc:	ec000002 	stc	0, cr0, [r0], {2}
    3900:	2c000097 	stccs	0, cr0, [r0], {151}	; 0x97
    3904:	b7000000 	strlt	r0, [r0, -r0]
    3908:	0200001d 	andeq	r0, r0, #29, 0
    390c:	6e690504 	cdpvs	5, 6, cr0, cr9, cr4, {0}
    3910:	04030074 	streq	r0, [r3], #-116	; 0xffffff8c
    3914:	0000a107 	andeq	sl, r0, r7, lsl #2
    3918:	06010300 	streq	r0, [r1], -r0, lsl #6
    391c:	0000000a 	andeq	r0, r0, sl
    3920:	c8050203 	stmdagt	r5, {r0, r1, r9}
    3924:	03000000 	movweq	r0, #0
    3928:	00b30504 	adcseq	r0, r3, r4, lsl #10
    392c:	08030000 	stmdaeq	r3, {}	; <UNPREDICTABLE>
    3930:	0000ae05 	andeq	sl, r0, r5, lsl #28
    3934:	08010300 	stmdaeq	r1, {r8, r9}
    3938:	00000008 	andeq	r0, r0, r8
    393c:	59070203 	stmdbpl	r7, {r0, r1, r9}
    3940:	03000000 	movweq	r0, #0
    3944:	009c0704 	addseq	r0, ip, r4, lsl #14
    3948:	08030000 	stmdaeq	r3, {}	; <UNPREDICTABLE>
    394c:	00009707 	andeq	r9, r0, r7, lsl #14
    3950:	00250400 	eoreq	r0, r5, r0, lsl #8
    3954:	007a0000 	rsbseq	r0, sl, r0
    3958:	25050000 	strcs	r0, [r5, #-0]
    395c:	00000000 	andeq	r0, r0, r0
    3960:	0000bc06 	andeq	fp, r0, r6, lsl #24
    3964:	0e1c0200 	cdpeq	2, 1, cr0, cr12, cr0, {0}
    3968:	00000086 	andeq	r0, r0, r6, lsl #1
    396c:	006b0407 	rsbeq	r0, fp, r7, lsl #8
    3970:	25040000 	strcs	r0, [r4, #-0]
    3974:	9b000000 	blls	397c <__code_start__-0x4684>
    3978:	05000000 	streq	r0, [r0, #-0]
    397c:	0000009b 	muleq	r0, fp, r0
    3980:	a8040700 	stmdage	r4, {r8, r9, sl}
    3984:	03000000 	movweq	r0, #0
    3988:	00110801 	andseq	r0, r1, r1, lsl #16
    398c:	a1080000 	mrsge	r0, (UNDEF: 8)
    3990:	06000000 	streq	r0, [r0], -r0
    3994:	00000320 	andeq	r0, r0, r0, lsr #6
    3998:	b90e2102 	stmdblt	lr, {r1, r8, sp}
    399c:	07000000 	streq	r0, [r0, -r0]
    39a0:	00008c04 	andeq	r8, r0, r4, lsl #24
    39a4:	03cc0900 	biceq	r0, ip, #0, 18
    39a8:	04010000 	streq	r0, [r1], #-0
    39ac:	00013407 	andeq	r3, r1, r7, lsl #8
    39b0:	0097ec00 	addseq	lr, r7, r0, lsl #24
    39b4:	00002c00 	andeq	r2, r0, r0, lsl #24
    39b8:	349c0100 	ldrcc	r0, [ip], #256	; 0x100
    39bc:	0a000001 	beq	39c8 <__code_start__-0x4638>
    39c0:	000009b9 			; <UNDEFINED> instruction: 0x000009b9
    39c4:	34150401 	ldrcc	r0, [r5], #-1025	; 0xfffffbff
    39c8:	01000001 	tsteq	r0, r1
    39cc:	72730b50 	rsbsvc	r0, r3, #80, 22	; 0x14000
    39d0:	04010063 	streq	r0, [r1], #-99	; 0xffffff9d
    39d4:	00009b27 	andeq	r9, r0, r7, lsr #22
    39d8:	00293200 	eoreq	r3, r9, r0, lsl #4
    39dc:	00292e00 	eoreq	r2, r9, r0, lsl #28
    39e0:	31730c00 	cmncc	r3, r0, lsl #24
    39e4:	0b050100 	bleq	143dec <__bss_end__+0x139cc4>
    39e8:	00000134 	andeq	r0, r0, r4, lsr r1
    39ec:	00002961 	andeq	r2, r0, r1, ror #18
    39f0:	00002953 	andeq	r2, r0, r3, asr r9
    39f4:	0032730c 	eorseq	r7, r2, ip, lsl #6
    39f8:	9b110601 	blls	445204 <__bss_end__+0x43b0dc>
    39fc:	c0000000 	andgt	r0, r0, r0
    3a00:	ba000029 	blt	3aac <__code_start__-0x4554>
    3a04:	0c000029 	stceq	0, cr0, [r0], {41}	; 0x29
    3a08:	07010063 	streq	r0, [r1, -r3, rrx]
    3a0c:	0000a10a 	andeq	sl, r0, sl, lsl #2
    3a10:	0029f100 	eoreq	pc, r9, r0, lsl #2
    3a14:	0029eb00 	eoreq	lr, r9, r0, lsl #22
    3a18:	04070000 	streq	r0, [r7], #-0
    3a1c:	000000a1 	andeq	r0, r0, r1, lsr #1
    3a20:	0000f700 	andeq	pc, r0, r0, lsl #14
    3a24:	30000400 	andcc	r0, r0, r0, lsl #8
    3a28:	04000016 	streq	r0, [r0], #-22	; 0xffffffea
    3a2c:	00021e01 	andeq	r1, r2, r1, lsl #28
    3a30:	09be0c00 	ldmibeq	lr!, {sl, fp}
    3a34:	02f50000 	rscseq	r0, r5, #0, 0
    3a38:	98180000 	ldmdals	r8, {}	; <UNPREDICTABLE>
    3a3c:	00440000 	subeq	r0, r4, r0
    3a40:	1e9d0000 	cdpne	0, 9, cr0, cr13, cr0, {0}
    3a44:	04020000 	streq	r0, [r2], #-0
    3a48:	746e6905 	strbtvc	r6, [lr], #-2309	; 0xfffff6fb
    3a4c:	07040300 	streq	r0, [r4, -r0, lsl #6]
    3a50:	000000a1 	andeq	r0, r0, r1, lsr #1
    3a54:	0a060103 	beq	183e68 <__bss_end__+0x179d40>
    3a58:	03000000 	movweq	r0, #0
    3a5c:	00c80502 	sbceq	r0, r8, r2, lsl #10
    3a60:	04030000 	streq	r0, [r3], #-0
    3a64:	0000b305 	andeq	fp, r0, r5, lsl #6
    3a68:	05080300 	streq	r0, [r8, #-768]	; 0xfffffd00
    3a6c:	000000ae 	andeq	r0, r0, lr, lsr #1
    3a70:	08080103 	stmdaeq	r8, {r0, r1, r8}
    3a74:	03000000 	movweq	r0, #0
    3a78:	00590702 	subseq	r0, r9, r2, lsl #14
    3a7c:	04030000 	streq	r0, [r3], #-0
    3a80:	00009c07 	andeq	r9, r0, r7, lsl #24
    3a84:	07080300 	streq	r0, [r8, -r0, lsl #6]
    3a88:	00000097 	muleq	r0, r7, r0
    3a8c:	00002504 	andeq	r2, r0, r4, lsl #10
    3a90:	00007a00 	andeq	r7, r0, r0, lsl #20
    3a94:	00250500 	eoreq	r0, r5, r0, lsl #10
    3a98:	06000000 	streq	r0, [r0], -r0
    3a9c:	000000bc 	strheq	r0, [r0], -ip
    3aa0:	860e1c02 	strhi	r1, [lr], -r2, lsl #24
    3aa4:	07000000 	streq	r0, [r0, -r0]
    3aa8:	00006b04 	andeq	r6, r0, r4, lsl #22
    3aac:	00250400 	eoreq	r0, r5, r0, lsl #8
    3ab0:	009b0000 	addseq	r0, fp, r0
    3ab4:	9b050000 	blls	143abc <__bss_end__+0x139994>
    3ab8:	00000000 	andeq	r0, r0, r0
    3abc:	00a80407 	adceq	r0, r8, r7, lsl #8
    3ac0:	01030000 	mrseq	r0, (UNDEF: 3)
    3ac4:	00001108 	andeq	r1, r0, r8, lsl #2
    3ac8:	00a10800 	adceq	r0, r1, r0, lsl #16
    3acc:	20060000 	andcs	r0, r6, r0
    3ad0:	02000003 	andeq	r0, r0, #3, 0
    3ad4:	00b90e21 	adcseq	r0, r9, r1, lsr #28
    3ad8:	04070000 	streq	r0, [r7], #-0
    3adc:	0000008c 	andeq	r0, r0, ip, lsl #1
    3ae0:	0003fa09 	andeq	pc, r3, r9, lsl #20
    3ae4:	05030100 	streq	r0, [r3, #-256]	; 0xffffff00
    3ae8:	00000025 	andeq	r0, r0, r5, lsr #32
    3aec:	00009818 	andeq	r9, r0, r8, lsl r8
    3af0:	00000044 	andeq	r0, r0, r4, asr #32
    3af4:	610a9c01 	tstvs	sl, r1, lsl #24
    3af8:	18030100 	stmdane	r3, {r8}
    3afc:	0000009b 	muleq	r0, fp, r0
    3b00:	00002a28 	andeq	r2, r0, r8, lsr #20
    3b04:	00002a1c 	andeq	r2, r0, ip, lsl sl
    3b08:	0100620a 	tsteq	r0, sl, lsl #4
    3b0c:	009b2703 	addseq	r2, fp, r3, lsl #14
    3b10:	2a7c0000 	bcs	1f03b18 <__bss_end__+0x1ef99f0>
    3b14:	2a760000 	bcs	1d83b1c <__bss_end__+0x1d799f4>
    3b18:	00000000 	andeq	r0, r0, r0
    3b1c:	0000010f 	andeq	r0, r0, pc, lsl #2
    3b20:	16bf0004 	ldrtne	r0, [pc], r4
    3b24:	01040000 	mrseq	r0, (UNDEF: 4)
    3b28:	0000021e 	andeq	r0, r0, lr, lsl r2
    3b2c:	0009ce0c 	andeq	ip, r9, ip, lsl #28
    3b30:	0002f500 	andeq	pc, r2, r0, lsl #10
    3b34:	00985c00 	addseq	r5, r8, r0, lsl #24
    3b38:	00001800 	andeq	r1, r0, r0, lsl #16
    3b3c:	001f5300 	andseq	r5, pc, r0, lsl #6
    3b40:	05040200 	streq	r0, [r4, #-512]	; 0xfffffe00
    3b44:	00746e69 	rsbseq	r6, r4, r9, ror #28
    3b48:	a1070403 	tstge	r7, r3, lsl #8
    3b4c:	03000000 	movweq	r0, #0
    3b50:	000a0601 	andeq	r0, sl, r1, lsl #12
    3b54:	02030000 	andeq	r0, r3, #0, 0
    3b58:	0000c805 	andeq	ip, r0, r5, lsl #16
    3b5c:	05040300 	streq	r0, [r4, #-768]	; 0xfffffd00
    3b60:	000000b3 	strheq	r0, [r0], -r3
    3b64:	ae050803 	cdpge	8, 0, cr0, cr5, cr3, {0}
    3b68:	03000000 	movweq	r0, #0
    3b6c:	00080801 	andeq	r0, r8, r1, lsl #16
    3b70:	02030000 	andeq	r0, r3, #0, 0
    3b74:	00005907 	andeq	r5, r0, r7, lsl #18
    3b78:	07040300 	streq	r0, [r4, -r0, lsl #6]
    3b7c:	0000009c 	muleq	r0, ip, r0
    3b80:	97070803 	strls	r0, [r7, -r3, lsl #16]
    3b84:	04000000 	streq	r0, [r0], #-0
    3b88:	00000025 	andeq	r0, r0, r5, lsr #32
    3b8c:	0000007a 	andeq	r0, r0, sl, ror r0
    3b90:	00002505 	andeq	r2, r0, r5, lsl #10
    3b94:	bc060000 	stclt	0, cr0, [r6], {-0}
    3b98:	02000000 	andeq	r0, r0, #0, 0
    3b9c:	00860e1c 	addeq	r0, r6, ip, lsl lr
    3ba0:	04070000 	streq	r0, [r7], #-0
    3ba4:	0000006b 	andeq	r0, r0, fp, rrx
    3ba8:	00002504 	andeq	r2, r0, r4, lsl #10
    3bac:	00009b00 	andeq	r9, r0, r0, lsl #22
    3bb0:	009b0500 	addseq	r0, fp, r0, lsl #10
    3bb4:	07000000 	streq	r0, [r0, -r0]
    3bb8:	0000a804 	andeq	sl, r0, r4, lsl #16
    3bbc:	08010300 	stmdaeq	r1, {r8, r9}
    3bc0:	00000011 	andeq	r0, r0, r1, lsl r0
    3bc4:	0000a108 	andeq	sl, r0, r8, lsl #2
    3bc8:	03200600 	nopeq	{0}	; <UNPREDICTABLE>
    3bcc:	21020000 	mrscs	r0, (UNDEF: 2)
    3bd0:	0000b90e 	andeq	fp, r0, lr, lsl #18
    3bd4:	8c040700 	stchi	7, cr0, [r4], {-0}
    3bd8:	09000000 	stmdbeq	r0, {}	; <UNPREDICTABLE>
    3bdc:	000003d3 	ldrdeq	r0, [r0], -r3
    3be0:	0c070301 	stceq	3, cr0, [r7], {1}
    3be4:	5c000001 	stcpl	0, cr0, [r0], {1}
    3be8:	18000098 	stmdane	r0, {r3, r4, r7}
    3bec:	01000000 	mrseq	r0, (UNDEF: 0)
    3bf0:	00010c9c 	muleq	r1, ip, ip
    3bf4:	31730a00 	cmncc	r3, r0, lsl #20
    3bf8:	15030100 	strne	r0, [r3, #-256]	; 0xffffff00
    3bfc:	0000010c 	andeq	r0, r0, ip, lsl #2
    3c00:	730b5001 	movwvc	r5, #45057	; 0xb001
    3c04:	03010032 	movweq	r0, #4146	; 0x1032
    3c08:	00009b26 	andeq	r9, r0, r6, lsr #22
    3c0c:	002aab00 	eoreq	sl, sl, r0, lsl #22
    3c10:	002aa500 	eoreq	sl, sl, r0, lsl #10
    3c14:	00730c00 	rsbseq	r0, r3, r0, lsl #24
    3c18:	0c140401 	cfldrseq	mvf0, [r4], {1}
    3c1c:	d8000001 	stmdale	r0, {r0}
    3c20:	d600002a 	strle	r0, [r0], -sl, lsr #32
    3c24:	0000002a 	andeq	r0, r0, sl, lsr #32
    3c28:	00a10407 	adceq	r0, r1, r7, lsl #8
    3c2c:	4e000000 	cdpmi	0, 0, cr0, cr0, cr0, {0}
    3c30:	04000001 	streq	r0, [r0], #-1
    3c34:	00177500 	andseq	r7, r7, r0, lsl #10
    3c38:	1e010400 	cfcpysne	mvf0, mvf1
    3c3c:	0c000002 	stceq	0, cr0, [r0], {2}
    3c40:	000009de 	ldrdeq	r0, [r0], -lr
    3c44:	000002f5 	strdeq	r0, [r0], -r5
    3c48:	00009874 	andeq	r9, r0, r4, ror r8
    3c4c:	00000030 	andeq	r0, r0, r0, lsr r0
    3c50:	00001ff4 	strdeq	r1, [r0], -r4
    3c54:	69050402 	stmdbvs	r5, {r1, sl}
    3c58:	0300746e 	movweq	r7, #1134	; 0x46e
    3c5c:	00000963 	andeq	r0, r0, r3, ror #18
    3c60:	3817d103 	ldmdacc	r7, {r0, r1, r8, ip, lr, pc}
    3c64:	04000000 	streq	r0, [r0], #-0
    3c68:	00a10704 	adceq	r0, r1, r4, lsl #14
    3c6c:	01040000 	mrseq	r0, (UNDEF: 4)
    3c70:	00000a06 	andeq	r0, r0, r6, lsl #20
    3c74:	05020400 	streq	r0, [r2, #-1024]	; 0xfffffc00
    3c78:	000000c8 	andeq	r0, r0, r8, asr #1
    3c7c:	b3050404 	movwlt	r0, #21508	; 0x5404
    3c80:	04000000 	streq	r0, [r0], #-0
    3c84:	00ae0508 	adceq	r0, lr, r8, lsl #10
    3c88:	01040000 	mrseq	r0, (UNDEF: 4)
    3c8c:	00000808 	andeq	r0, r0, r8, lsl #16
    3c90:	005b0500 	subseq	r0, fp, r0, lsl #10
    3c94:	02040000 	andeq	r0, r4, #0, 0
    3c98:	00005907 	andeq	r5, r0, r7, lsl #18
    3c9c:	07040400 	streq	r0, [r4, -r0, lsl #8]
    3ca0:	0000009c 	muleq	r0, ip, r0
    3ca4:	97070804 	strls	r0, [r7, -r4, lsl #16]
    3ca8:	06000000 	streq	r0, [r0], -r0
    3cac:	00000025 	andeq	r0, r0, r5, lsr #32
    3cb0:	0000008b 	andeq	r0, r0, fp, lsl #1
    3cb4:	00002507 	andeq	r2, r0, r7, lsl #10
    3cb8:	bc080000 	stclt	0, cr0, [r8], {-0}
    3cbc:	02000000 	andeq	r0, r0, #0, 0
    3cc0:	00970e1c 	addseq	r0, r7, ip, lsl lr
    3cc4:	04090000 	streq	r0, [r9], #-0
    3cc8:	0000007c 	andeq	r0, r0, ip, ror r0
    3ccc:	00002506 	andeq	r2, r0, r6, lsl #10
    3cd0:	0000ac00 	andeq	sl, r0, r0, lsl #24
    3cd4:	00ac0700 	adceq	r0, ip, r0, lsl #14
    3cd8:	09000000 	stmdbeq	r0, {}	; <UNPREDICTABLE>
    3cdc:	0000b904 	andeq	fp, r0, r4, lsl #18
    3ce0:	08010400 	stmdaeq	r1, {sl}
    3ce4:	00000011 	andeq	r0, r0, r1, lsl r0
    3ce8:	0000b205 	andeq	fp, r0, r5, lsl #4
    3cec:	03200800 	nopeq	{0}	; <UNPREDICTABLE>
    3cf0:	21020000 	mrscs	r0, (UNDEF: 2)
    3cf4:	0000ca0e 	andeq	ip, r0, lr, lsl #20
    3cf8:	9d040900 	vstrls.16	s0, [r4, #-0]	; <UNPREDICTABLE>
    3cfc:	0a000000 	beq	3d04 <__code_start__-0x42fc>
    3d00:	0000042a 	andeq	r0, r0, sl, lsr #8
    3d04:	25050401 	strcs	r0, [r5, #-1025]	; 0xfffffbff
    3d08:	74000000 	strvc	r0, [r0], #-0
    3d0c:	30000098 	mulcc	r0, r8, r0
    3d10:	01000000 	mrseq	r0, (UNDEF: 0)
    3d14:	00014b9c 	muleq	r1, ip, fp
    3d18:	735f0b00 	cmpvc	pc, #0, 22
    3d1c:	04010031 	streq	r0, [r1], #-49	; 0xffffffcf
    3d20:	0000ac19 	andeq	sl, r0, r9, lsl ip
    3d24:	002aef00 	eoreq	lr, sl, r0, lsl #30
    3d28:	002aeb00 	eoreq	lr, sl, r0, lsl #22
    3d2c:	735f0b00 	cmpvc	pc, #0, 22
    3d30:	04010032 	streq	r0, [r1], #-50	; 0xffffffce
    3d34:	0000ac2a 	andeq	sl, r0, sl, lsr #24
    3d38:	002b1400 	eoreq	r1, fp, r0, lsl #8
    3d3c:	002b1000 	eoreq	r1, fp, r0
    3d40:	006e0b00 	rsbeq	r0, lr, r0, lsl #22
    3d44:	2c360401 	cfldrscs	mvf0, [r6], #-4
    3d48:	3f000000 	svccc	0x00000000
    3d4c:	3500002b 	strcc	r0, [r0, #-43]	; 0xffffffd5
    3d50:	0c00002b 	stceq	0, cr0, [r0], {43}	; 0x2b
    3d54:	01003173 	tsteq	r0, r3, ror r1
    3d58:	014b1a05 	cmpeq	fp, r5, lsl #20
    3d5c:	2b960000 	blcs	fe583d64 <__bss_end__+0xfe579c3c>
    3d60:	2b8e0000 	blcs	fe383d68 <__bss_end__+0xfe379c40>
    3d64:	730c0000 	movwvc	r0, #49152	; 0xc000
    3d68:	05010032 	streq	r0, [r1, #-50]	; 0xffffffce
    3d6c:	00014b2c 	andeq	r4, r1, ip, lsr #22
    3d70:	002bd400 	eoreq	sp, fp, r0, lsl #8
    3d74:	002bce00 	eoreq	ip, fp, r0, lsl #28
    3d78:	04090000 	streq	r0, [r9], #-0
    3d7c:	00000062 	andeq	r0, r0, r2, rrx
    3d80:	0000ce00 	andeq	ip, r0, r0, lsl #28
    3d84:	29000400 	stmdbcs	r0, {sl}
    3d88:	04000018 	streq	r0, [r0], #-24	; 0xffffffe8
    3d8c:	00021e01 	andeq	r1, r2, r1, lsl #28
    3d90:	09ef0c00 	stmibeq	pc!, {sl, fp}^	; <UNPREDICTABLE>
    3d94:	02f50000 	rscseq	r0, r5, #0, 0
    3d98:	98a40000 	stmials	r4!, {}	; <UNPREDICTABLE>
    3d9c:	00040000 	andeq	r0, r4, r0
    3da0:	20f50000 	rscscs	r0, r5, r0
    3da4:	04020000 	streq	r0, [r2], #-0
    3da8:	746e6905 	strbtvc	r6, [lr], #-2309	; 0xfffff6fb
    3dac:	07040300 	streq	r0, [r4, -r0, lsl #6]
    3db0:	000000a1 	andeq	r0, r0, r1, lsr #1
    3db4:	0a060103 	beq	1841c8 <__bss_end__+0x17a0a0>
    3db8:	03000000 	movweq	r0, #0
    3dbc:	00c80502 	sbceq	r0, r8, r2, lsl #10
    3dc0:	04030000 	streq	r0, [r3], #-0
    3dc4:	0000b305 	andeq	fp, r0, r5, lsl #6
    3dc8:	05080300 	streq	r0, [r8, #-768]	; 0xfffffd00
    3dcc:	000000ae 	andeq	r0, r0, lr, lsr #1
    3dd0:	08080103 	stmdaeq	r8, {r0, r1, r8}
    3dd4:	03000000 	movweq	r0, #0
    3dd8:	00590702 	subseq	r0, r9, r2, lsl #14
    3ddc:	04030000 	streq	r0, [r3], #-0
    3de0:	00009c07 	andeq	r9, r0, r7, lsl #24
    3de4:	07080300 	streq	r0, [r8, -r0, lsl #6]
    3de8:	00000097 	muleq	r0, r7, r0
    3dec:	00002504 	andeq	r2, r0, r4, lsl #10
    3df0:	00007a00 	andeq	r7, r0, r0, lsl #20
    3df4:	00250500 	eoreq	r0, r5, r0, lsl #10
    3df8:	06000000 	streq	r0, [r0], -r0
    3dfc:	000000bc 	strheq	r0, [r0], -ip
    3e00:	860e1c02 	strhi	r1, [lr], -r2, lsl #24
    3e04:	07000000 	streq	r0, [r0, -r0]
    3e08:	00006b04 	andeq	r6, r0, r4, lsl #22
    3e0c:	00250400 	eoreq	r0, r5, r0, lsl #8
    3e10:	009b0000 	addseq	r0, fp, r0
    3e14:	9b050000 	blls	143e1c <__bss_end__+0x139cf4>
    3e18:	00000000 	andeq	r0, r0, r0
    3e1c:	00a80407 	adceq	r0, r8, r7, lsl #8
    3e20:	01030000 	mrseq	r0, (UNDEF: 3)
    3e24:	00001108 	andeq	r1, r0, r8, lsl #2
    3e28:	00a10800 	adceq	r0, r1, r0, lsl #16
    3e2c:	20060000 	andcs	r0, r6, r0
    3e30:	02000003 	andeq	r0, r0, #3, 0
    3e34:	00b90e21 	adcseq	r0, r9, r1, lsr #28
    3e38:	04070000 	streq	r0, [r7], #-0
    3e3c:	0000008c 	andeq	r0, r0, ip, lsl #1
    3e40:	0004d109 	andeq	sp, r4, r9, lsl #2
    3e44:	06030100 	streq	r0, [r3], -r0, lsl #2
    3e48:	000098a4 	andeq	r9, r0, r4, lsr #17
    3e4c:	00000004 	andeq	r0, r0, r4
    3e50:	Address 0x0000000000003e50 is out of bounds.


Disassembly of section .debug_abbrev:

00000000 <.debug_abbrev>:
       0:	25011101 	strcs	r1, [r1, #-257]	; 0xfffffeff
       4:	030b130e 	movweq	r1, #45838	; 0xb30e
       8:	110e1b0e 	tstne	lr, lr, lsl #22
       c:	10061201 	andne	r1, r6, r1, lsl #4
      10:	02000017 	andeq	r0, r0, #23, 0
      14:	0b0b0024 	bleq	2c00ac <__bss_end__+0x2b5f84>
      18:	08030b3e 	stmdaeq	r3, {r1, r2, r3, r4, r5, r8, r9, fp}
      1c:	24030000 	strcs	r0, [r3], #-0
      20:	3e0b0b00 	vmlacc.f64	d0, d11, d0
      24:	000e030b 	andeq	r0, lr, fp, lsl #6
      28:	01150400 	tsteq	r5, r0, lsl #8
      2c:	13491927 	movtne	r1, #39207	; 0x9927
      30:	00001301 	andeq	r1, r0, r1, lsl #6
      34:	49000505 	stmdbmi	r0, {r0, r2, r8, sl}
      38:	06000013 			; <UNDEFINED> instruction: 0x06000013
      3c:	0e030034 	mcreq	0, 0, r0, cr3, cr4, {1}
      40:	0b3b0b3a 	bleq	ec2d30 <__bss_end__+0xeb8c08>
      44:	13490b39 	movtne	r0, #39737	; 0x9b39
      48:	193c193f 	ldmdbne	ip!, {r0, r1, r2, r3, r4, r5, r8, fp, ip}
      4c:	0f070000 	svceq	0x00070000
      50:	490b0b00 	stmdbmi	fp, {r8, r9, fp}
      54:	08000013 	stmdaeq	r0, {r0, r1, r4}
      58:	13490026 	movtne	r0, #36902	; 0x9026
      5c:	2e090000 	cdpcs	0, 0, cr0, cr9, cr0, {0}
      60:	03193f01 	tsteq	r9, #1, 30
      64:	3b0b3a0e 	blcc	2ce8a4 <__bss_end__+0x2c477c>
      68:	270b390b 	strcs	r3, [fp, -fp, lsl #18]
      6c:	12011119 	andne	r1, r1, #1073741830	; 0x40000006
      70:	97184006 	ldrls	r4, [r8, -r6]
      74:	13011942 	movwne	r1, #6466	; 0x1942
      78:	340a0000 	strcc	r0, [sl], #-0
      7c:	3a080300 	bcc	200c84 <__bss_end__+0x1f6b5c>
      80:	390b3b0b 	stmdbcc	fp, {r0, r1, r3, r8, r9, fp, ip, sp}
      84:	0213490b 	andseq	r4, r3, #180224	; 0x2c000
      88:	1742b717 	smlaldne	fp, r2, r7, r7
      8c:	340b0000 	strcc	r0, [fp], #-0
      90:	3a080300 	bcc	200c98 <__bss_end__+0x1f6b70>
      94:	390b3b0b 	stmdbcc	fp, {r0, r1, r3, r8, r9, fp, ip, sp}
      98:	1c13490b 			; <UNDEFINED> instruction: 0x1c13490b
      9c:	0c00000b 	stceq	0, cr0, [r0], {11}
      a0:	0e030034 	mcreq	0, 0, r0, cr3, cr4, {1}
      a4:	0b3b0b3a 	bleq	ec2d94 <__bss_end__+0xeb8c6c>
      a8:	13490b39 	movtne	r0, #39737	; 0x9b39
      ac:	00000b1c 	andeq	r0, r0, ip, lsl fp
      b0:	0300340d 	movweq	r3, #1037	; 0x40d
      b4:	3413490e 	ldrcc	r4, [r3], #-2318	; 0xfffff6f2
      b8:	00180219 	andseq	r0, r8, r9, lsl r2
      bc:	010b0e00 	tsteq	fp, r0, lsl #28
      c0:	06120111 			; <UNDEFINED> instruction: 0x06120111
      c4:	00001301 	andeq	r1, r0, r1, lsl #6
      c8:	55010b0f 	strpl	r0, [r1, #-2831]	; 0xfffff4f1
      cc:	10000017 	andne	r0, r0, r7, lsl r0
      d0:	01018289 	smlabbeq	r1, r9, r2, r8
      d4:	13310111 	teqne	r1, #1073741828	; 0x40000004
      d8:	00001301 	andeq	r1, r0, r1, lsl #6
      dc:	01828a11 	orreq	r8, r2, r1, lsl sl
      e0:	91180200 	tstls	r8, r0, lsl #4
      e4:	00001842 	andeq	r1, r0, r2, asr #16
      e8:	01828912 	orreq	r8, r2, r2, lsl r9
      ec:	31011100 	mrscc	r1, (UNDEF: 17)
      f0:	13000013 	movwne	r0, #19
      f4:	01018289 	smlabbeq	r1, r9, r2, r8
      f8:	13310111 	teqne	r1, #1073741828	; 0x40000004
      fc:	01140000 	tsteq	r4, r0
     100:	01134901 	tsteq	r3, r1, lsl #18
     104:	15000013 	strne	r0, [r0, #-19]	; 0xffffffed
     108:	13490021 	movtne	r0, #36897	; 0x9021
     10c:	00000b2f 	andeq	r0, r0, pc, lsr #22
     110:	3f002e16 	svccc	0x00002e16
     114:	6e193c19 	mrcvs	12, 0, r3, cr9, cr9, {0}
     118:	3a0e030e 	bcc	380d58 <__bss_end__+0x376c30>
     11c:	390b3b0b 	stmdbcc	fp, {r0, r1, r3, r8, r9, fp, ip, sp}
     120:	0000000b 	andeq	r0, r0, fp
     124:	25011101 	strcs	r1, [r1, #-257]	; 0xfffffeff
     128:	030b130e 	movweq	r1, #45838	; 0xb30e
     12c:	110e1b0e 	tstne	lr, lr, lsl #22
     130:	10061201 	andne	r1, r6, r1, lsl #4
     134:	02000017 	andeq	r0, r0, #23, 0
     138:	0b0b0024 	bleq	2c01d0 <__bss_end__+0x2b60a8>
     13c:	08030b3e 	stmdaeq	r3, {r1, r2, r3, r4, r5, r8, r9, fp}
     140:	24030000 	strcs	r0, [r3], #-0
     144:	3e0b0b00 	vmlacc.f64	d0, d11, d0
     148:	000e030b 	andeq	r0, lr, fp, lsl #6
     14c:	01150400 	tsteq	r5, r0, lsl #8
     150:	13491927 	movtne	r1, #39207	; 0x9927
     154:	00001301 	andeq	r1, r0, r1, lsl #6
     158:	49000505 	stmdbmi	r0, {r0, r2, r8, sl}
     15c:	06000013 			; <UNDEFINED> instruction: 0x06000013
     160:	0e030034 	mcreq	0, 0, r0, cr3, cr4, {1}
     164:	0b3b0b3a 	bleq	ec2e54 <__bss_end__+0xeb8d2c>
     168:	13490b39 	movtne	r0, #39737	; 0x9b39
     16c:	193c193f 	ldmdbne	ip!, {r0, r1, r2, r3, r4, r5, r8, fp, ip}
     170:	0f070000 	svceq	0x00070000
     174:	490b0b00 	stmdbmi	fp, {r8, r9, fp}
     178:	08000013 	stmdaeq	r0, {r0, r1, r4}
     17c:	13490026 	movtne	r0, #36902	; 0x9026
     180:	17090000 	strne	r0, [r9, -r0]
     184:	0b0e0301 	bleq	380d90 <__bss_end__+0x376c68>
     188:	3b0b3a0b 	blcc	2ce9bc <__bss_end__+0x2c4894>
     18c:	010b390b 	tsteq	fp, fp, lsl #18
     190:	0a000013 	beq	1e4 <__code_start__-0x7e1c>
     194:	0803000d 	stmdaeq	r3, {r0, r2, r3}
     198:	0b3b0b3a 	bleq	ec2e88 <__bss_end__+0xeb8d60>
     19c:	13490b39 	movtne	r0, #39737	; 0x9b39
     1a0:	0f0b0000 	svceq	0x000b0000
     1a4:	000b0b00 	andeq	r0, fp, r0, lsl #22
     1a8:	00150c00 	andseq	r0, r5, r0, lsl #24
     1ac:	00001927 	andeq	r1, r0, r7, lsr #18
     1b0:	0b01130d 	bleq	44dec <__bss_end__+0x3acc4>
     1b4:	3b0b3a0b 	blcc	2ce9e8 <__bss_end__+0x2c48c0>
     1b8:	010b390b 	tsteq	fp, fp, lsl #18
     1bc:	0e000013 	mcreq	0, 0, r0, cr0, cr3, {0}
     1c0:	0803000d 	stmdaeq	r3, {r0, r2, r3}
     1c4:	0b3b0b3a 	bleq	ec2eb4 <__bss_end__+0xeb8d8c>
     1c8:	13490b39 	movtne	r0, #39737	; 0x9b39
     1cc:	00000b38 	andeq	r0, r0, r8, lsr fp
     1d0:	03000d0f 	movweq	r0, #3343	; 0xd0f
     1d4:	3b0b3a0e 	blcc	2cea14 <__bss_end__+0x2c48ec>
     1d8:	490b390b 	stmdbmi	fp, {r0, r1, r3, r8, fp, ip, sp}
     1dc:	000b3813 	andeq	r3, fp, r3, lsl r8
     1e0:	00161000 	andseq	r1, r6, r0
     1e4:	0b3a0e03 	bleq	e839f8 <__bss_end__+0xe798d0>
     1e8:	0b390b3b 	bleq	e42edc <__bss_end__+0xe38db4>
     1ec:	00001349 	andeq	r1, r0, r9, asr #6
     1f0:	03003411 	movweq	r3, #1041	; 0x411
     1f4:	3b0b3a0e 	blcc	2cea34 <__bss_end__+0x2c490c>
     1f8:	490b390b 	stmdbmi	fp, {r0, r1, r3, r8, fp, ip, sp}
     1fc:	00180213 	andseq	r0, r8, r3, lsl r2
     200:	012e1200 			; <UNDEFINED> instruction: 0x012e1200
     204:	0e03193f 			; <UNDEFINED> instruction: 0x0e03193f
     208:	0b3b0b3a 	bleq	ec2ef8 <__bss_end__+0xeb8dd0>
     20c:	19270b39 	stmdbne	r7!, {r0, r3, r4, r5, r8, r9, fp}
     210:	06120111 			; <UNDEFINED> instruction: 0x06120111
     214:	42971840 	addsmi	r1, r7, #64, 16	; 0x400000
     218:	00130119 	andseq	r0, r3, r9, lsl r1
     21c:	00051300 	andeq	r1, r5, r0, lsl #6
     220:	0b3a0803 	bleq	e82234 <__bss_end__+0xe7810c>
     224:	0b390b3b 	bleq	e42f18 <__bss_end__+0xe38df0>
     228:	18021349 	stmdane	r2, {r0, r3, r6, r8, r9, ip}
     22c:	34140000 	ldrcc	r0, [r4], #-0
     230:	3a080300 	bcc	200e38 <__bss_end__+0x1f6d10>
     234:	390b3b0b 	stmdbcc	fp, {r0, r1, r3, r8, r9, fp, ip, sp}
     238:	0213490b 	andseq	r4, r3, #180224	; 0x2c000
     23c:	1742b717 	smlaldne	fp, r2, r7, r7
     240:	2e150000 	cdpcs	0, 1, cr0, cr5, cr0, {0}
     244:	03193f01 	tsteq	r9, #1, 30
     248:	3b0b3a0e 	blcc	2cea88 <__bss_end__+0x2c4960>
     24c:	270b390b 	strcs	r3, [fp, -fp, lsl #18]
     250:	11134919 	tstne	r3, r9, lsl r9
     254:	40061201 	andmi	r1, r6, r1, lsl #4
     258:	19429718 	stmdbne	r2, {r3, r4, r8, r9, sl, ip, pc}^
     25c:	00001301 	andeq	r1, r0, r1, lsl #6
     260:	03000516 	movweq	r0, #1302	; 0x516
     264:	3b0b3a0e 	blcc	2ceaa4 <__bss_end__+0x2c497c>
     268:	490b390b 	stmdbmi	fp, {r0, r1, r3, r8, fp, ip, sp}
     26c:	b7170213 			; <UNDEFINED> instruction: 0xb7170213
     270:	00001742 	andeq	r1, r0, r2, asr #14
     274:	03003417 	movweq	r3, #1047	; 0x417
     278:	3b0b3a0e 	blcc	2ceab8 <__bss_end__+0x2c4990>
     27c:	490b390b 	stmdbmi	fp, {r0, r1, r3, r8, fp, ip, sp}
     280:	b7170213 			; <UNDEFINED> instruction: 0xb7170213
     284:	00001742 	andeq	r1, r0, r2, asr #14
     288:	01828918 	orreq	r8, r2, r8, lsl r9
     28c:	31011101 	tstcc	r1, r1, lsl #2
     290:	19000013 	stmdbne	r0, {r0, r1, r4}
     294:	0001828a 	andeq	r8, r1, sl, lsl #5
     298:	42911802 	addsmi	r1, r1, #131072	; 0x20000
     29c:	1a000018 	bne	304 <__code_start__-0x7cfc>
     2a0:	0e03012e 	adfeqsp	f0, f3, #0.5
     2a4:	0b3b0b3a 	bleq	ec2f94 <__bss_end__+0xeb8e6c>
     2a8:	19270b39 	stmdbne	r7!, {r0, r3, r4, r5, r8, r9, fp}
     2ac:	01111349 	tsteq	r1, r9, asr #6
     2b0:	18400612 	stmdane	r0, {r1, r4, r9, sl}^
     2b4:	01194297 			; <UNDEFINED> instruction: 0x01194297
     2b8:	1b000013 	blne	30c <__code_start__-0x7cf4>
     2bc:	08030005 	stmdaeq	r3, {r0, r2}
     2c0:	0b3b0b3a 	bleq	ec2fb0 <__bss_end__+0xeb8e88>
     2c4:	13490b39 	movtne	r0, #39737	; 0x9b39
     2c8:	42b71702 	adcsmi	r1, r7, #524288	; 0x80000
     2cc:	1c000017 	stcne	0, cr0, [r0], {23}
     2d0:	01018289 	smlabbeq	r1, r9, r2, r8
     2d4:	13310111 	teqne	r1, #1073741828	; 0x40000004
     2d8:	00001301 	andeq	r1, r0, r1, lsl #6
     2dc:	0182891d 	orreq	r8, r2, sp, lsl r9
     2e0:	31011100 	mrscc	r1, (UNDEF: 17)
     2e4:	1e000013 	mcrne	0, 0, r0, cr0, cr3, {0}
     2e8:	193f002e 	ldmdbne	pc!, {r1, r2, r3, r5}	; <UNPREDICTABLE>
     2ec:	0e6e193c 			; <UNDEFINED> instruction: 0x0e6e193c
     2f0:	0b3a0e03 	bleq	e83b04 <__bss_end__+0xe799dc>
     2f4:	0b390b3b 	bleq	e42fe8 <__bss_end__+0xe38ec0>
     2f8:	01000000 	mrseq	r0, (UNDEF: 0)
     2fc:	0e250111 	mcreq	1, 1, r0, cr5, cr1, {0}
     300:	0e030b13 	vmoveq.32	d3[0], r0
     304:	01110e1b 	tsteq	r1, fp, lsl lr
     308:	17100612 			; <UNDEFINED> instruction: 0x17100612
     30c:	24020000 	strcs	r0, [r2], #-0
     310:	3e0b0b00 	vmlacc.f64	d0, d11, d0
     314:	0008030b 	andeq	r0, r8, fp, lsl #6
     318:	00240300 	eoreq	r0, r4, r0, lsl #6
     31c:	0b3e0b0b 	bleq	f82f50 <__bss_end__+0xf78e28>
     320:	00000e03 	andeq	r0, r0, r3, lsl #28
     324:	27011504 	strcs	r1, [r1, -r4, lsl #10]
     328:	01134919 	tsteq	r3, r9, lsl r9
     32c:	05000013 	streq	r0, [r0, #-19]	; 0xffffffed
     330:	13490005 	movtne	r0, #36869	; 0x9005
     334:	34060000 	strcc	r0, [r6], #-0
     338:	3a0e0300 	bcc	380f40 <__bss_end__+0x376e18>
     33c:	390b3b0b 	stmdbcc	fp, {r0, r1, r3, r8, r9, fp, ip, sp}
     340:	3f13490b 	svccc	0x0013490b
     344:	00193c19 	andseq	r3, r9, r9, lsl ip
     348:	000f0700 	andeq	r0, pc, r0, lsl #14
     34c:	13490b0b 	movtne	r0, #39691	; 0x9b0b
     350:	26080000 	strcs	r0, [r8], -r0
     354:	00134900 	andseq	r4, r3, r0, lsl #18
     358:	012e0900 			; <UNDEFINED> instruction: 0x012e0900
     35c:	0e03193f 			; <UNDEFINED> instruction: 0x0e03193f
     360:	0b3b0b3a 	bleq	ec3050 <__bss_end__+0xeb8f28>
     364:	19270b39 	stmdbne	r7!, {r0, r3, r4, r5, r8, r9, fp}
     368:	01111349 	tsteq	r1, r9, asr #6
     36c:	18400612 	stmdane	r0, {r1, r4, r9, sl}^
     370:	01194297 			; <UNDEFINED> instruction: 0x01194297
     374:	0a000013 	beq	3c8 <__code_start__-0x7c38>
     378:	0e030005 	cdpeq	0, 0, cr0, cr3, cr5, {0}
     37c:	0b3b0b3a 	bleq	ec306c <__bss_end__+0xeb8f44>
     380:	13490b39 	movtne	r0, #39737	; 0x9b39
     384:	42b71702 	adcsmi	r1, r7, #524288	; 0x80000
     388:	0b000017 	bleq	3ec <__code_start__-0x7c14>
     38c:	01018289 	smlabbeq	r1, r9, r2, r8
     390:	13310111 	teqne	r1, #1073741828	; 0x40000004
     394:	8a0c0000 	bhi	30039c <__bss_end__+0x2f6274>
     398:	02000182 	andeq	r0, r0, #-2147483616	; 0x80000020
     39c:	18429118 	stmdane	r2, {r3, r4, r8, ip, pc}^
     3a0:	0f0d0000 	svceq	0x000d0000
     3a4:	000b0b00 	andeq	r0, fp, r0, lsl #22
     3a8:	002e0e00 	eoreq	r0, lr, r0, lsl #28
     3ac:	193c193f 	ldmdbne	ip!, {r0, r1, r2, r3, r4, r5, r8, fp, ip}
     3b0:	0e030e6e 	cdpeq	14, 0, cr0, cr3, cr14, {3}
     3b4:	0b3b0b3a 	bleq	ec30a4 <__bss_end__+0xeb8f7c>
     3b8:	00000b39 	andeq	r0, r0, r9, lsr fp
     3bc:	01110100 	tsteq	r1, r0, lsl #2
     3c0:	0b130e25 	bleq	4c3c5c <__bss_end__+0x4b9b34>
     3c4:	0e1b0e03 	cdpeq	14, 1, cr0, cr11, cr3, {0}
     3c8:	06120111 			; <UNDEFINED> instruction: 0x06120111
     3cc:	00001710 	andeq	r1, r0, r0, lsl r7
     3d0:	03001602 	movweq	r1, #1538	; 0x602
     3d4:	3b0b3a0e 	blcc	2cec14 <__bss_end__+0x2c4aec>
     3d8:	490b390b 	stmdbmi	fp, {r0, r1, r3, r8, fp, ip, sp}
     3dc:	03000013 	movweq	r0, #19
     3e0:	0e030113 	mcreq	1, 0, r0, cr3, cr3, {0}
     3e4:	0b3a0b0b 	bleq	e83018 <__bss_end__+0xe78ef0>
     3e8:	13010b3b 	movwne	r0, #6971	; 0x1b3b
     3ec:	0d040000 	stceq	0, cr0, [r4, #-0]
     3f0:	490e0300 	stmdbmi	lr, {r8, r9}
     3f4:	340b3813 	strcc	r3, [fp], #-2067	; 0xfffff7ed
     3f8:	05000019 	streq	r0, [r0, #-25]	; 0xffffffe7
     3fc:	0b0b000f 	bleq	2c0440 <__bss_end__+0x2b6318>
     400:	24060000 	strcs	r0, [r6], #-0
     404:	3e0b0b00 	vmlacc.f64	d0, d11, d0
     408:	0008030b 	andeq	r0, r8, fp, lsl #6
     40c:	00240700 	eoreq	r0, r4, r0, lsl #14
     410:	0b3e0b0b 	bleq	f83044 <__bss_end__+0xf78f1c>
     414:	00000e03 	andeq	r0, r0, r3, lsl #28
     418:	27011508 	strcs	r1, [r1, -r8, lsl #10]
     41c:	01134919 	tsteq	r3, r9, lsl r9
     420:	09000013 	stmdbeq	r0, {r0, r1, r4}
     424:	13490005 	movtne	r0, #36869	; 0x9005
     428:	340a0000 	strcc	r0, [sl], #-0
     42c:	3a0e0300 	bcc	381034 <__bss_end__+0x376f0c>
     430:	390b3b0b 	stmdbcc	fp, {r0, r1, r3, r8, r9, fp, ip, sp}
     434:	3f13490b 	svccc	0x0013490b
     438:	00193c19 	andseq	r3, r9, r9, lsl ip
     43c:	000f0b00 	andeq	r0, pc, r0, lsl #22
     440:	13490b0b 	movtne	r0, #39691	; 0x9b0b
     444:	260c0000 	strcs	r0, [ip], -r0
     448:	00134900 	andseq	r4, r3, r0, lsl #18
     44c:	012e0d00 			; <UNDEFINED> instruction: 0x012e0d00
     450:	0e03193f 			; <UNDEFINED> instruction: 0x0e03193f
     454:	0b3b0b3a 	bleq	ec3144 <__bss_end__+0xeb901c>
     458:	19270b39 	stmdbne	r7!, {r0, r3, r4, r5, r8, r9, fp}
     45c:	01111349 	tsteq	r1, r9, asr #6
     460:	18400612 	stmdane	r0, {r1, r4, r9, sl}^
     464:	01194297 			; <UNDEFINED> instruction: 0x01194297
     468:	0e000013 	mcreq	0, 0, r0, cr0, cr3, {0}
     46c:	08030005 	stmdaeq	r3, {r0, r2}
     470:	0b3b0b3a 	bleq	ec3160 <__bss_end__+0xeb9038>
     474:	13490b39 	movtne	r0, #39737	; 0x9b39
     478:	00001802 	andeq	r1, r0, r2, lsl #16
     47c:	0000180f 	andeq	r1, r0, pc, lsl #16
     480:	00341000 	eorseq	r1, r4, r0
     484:	0b3a0803 	bleq	e82498 <__bss_end__+0xe78370>
     488:	0b390b3b 	bleq	e4317c <__bss_end__+0xe39054>
     48c:	18021349 	stmdane	r2, {r0, r3, r6, r8, r9, ip}
     490:	34110000 	ldrcc	r0, [r1], #-0
     494:	3a0e0300 	bcc	38109c <__bss_end__+0x376f74>
     498:	390b3b0b 	stmdbcc	fp, {r0, r1, r3, r8, r9, fp, ip, sp}
     49c:	0213490b 	andseq	r4, r3, #180224	; 0x2c000
     4a0:	12000018 	andne	r0, r0, #24, 0
     4a4:	08030034 	stmdaeq	r3, {r2, r4, r5}
     4a8:	0b3b0b3a 	bleq	ec3198 <__bss_end__+0xeb9070>
     4ac:	13490b39 	movtne	r0, #39737	; 0x9b39
     4b0:	42b71702 	adcsmi	r1, r7, #524288	; 0x80000
     4b4:	13000017 	movwne	r0, #23
     4b8:	01018289 	smlabbeq	r1, r9, r2, r8
     4bc:	13310111 	teqne	r1, #1073741828	; 0x40000004
     4c0:	00001301 	andeq	r1, r0, r1, lsl #6
     4c4:	01828a14 	orreq	r8, r2, r4, lsl sl
     4c8:	91180200 	tstls	r8, r0, lsl #4
     4cc:	00001842 	andeq	r1, r0, r2, asr #16
     4d0:	01828915 	orreq	r8, r2, r5, lsl r9
     4d4:	00011101 	andeq	r1, r1, r1, lsl #2
     4d8:	01011600 	tsteq	r1, r0, lsl #12
     4dc:	13011349 	movwne	r1, #4937	; 0x1349
     4e0:	21170000 	tstcs	r7, r0
     4e4:	2f134900 	svccs	0x00134900
     4e8:	18000005 	stmdane	r0, {r0, r2}
     4ec:	193f002e 	ldmdbne	pc!, {r1, r2, r3, r5}	; <UNPREDICTABLE>
     4f0:	0e6e193c 			; <UNDEFINED> instruction: 0x0e6e193c
     4f4:	0b3a0e03 	bleq	e83d08 <__bss_end__+0xe79be0>
     4f8:	0b390b3b 	bleq	e431ec <__bss_end__+0xe390c4>
     4fc:	01000000 	mrseq	r0, (UNDEF: 0)
     500:	0e250111 	mcreq	1, 1, r0, cr5, cr1, {0}
     504:	0e030b13 	vmoveq.32	d3[0], r0
     508:	01110e1b 	tsteq	r1, fp, lsl lr
     50c:	17100612 			; <UNDEFINED> instruction: 0x17100612
     510:	24020000 	strcs	r0, [r2], #-0
     514:	3e0b0b00 	vmlacc.f64	d0, d11, d0
     518:	0008030b 	andeq	r0, r8, fp, lsl #6
     51c:	00240300 	eoreq	r0, r4, r0, lsl #6
     520:	0b3e0b0b 	bleq	f83154 <__bss_end__+0xf7902c>
     524:	00000e03 	andeq	r0, r0, r3, lsl #28
     528:	27011504 	strcs	r1, [r1, -r4, lsl #10]
     52c:	01134919 	tsteq	r3, r9, lsl r9
     530:	05000013 	streq	r0, [r0, #-19]	; 0xffffffed
     534:	13490005 	movtne	r0, #36869	; 0x9005
     538:	34060000 	strcc	r0, [r6], #-0
     53c:	3a0e0300 	bcc	381144 <__bss_end__+0x37701c>
     540:	390b3b0b 	stmdbcc	fp, {r0, r1, r3, r8, r9, fp, ip, sp}
     544:	3f13490b 	svccc	0x0013490b
     548:	00193c19 	andseq	r3, r9, r9, lsl ip
     54c:	000f0700 	andeq	r0, pc, r0, lsl #14
     550:	13490b0b 	movtne	r0, #39691	; 0x9b0b
     554:	26080000 	strcs	r0, [r8], -r0
     558:	00134900 	andseq	r4, r3, r0, lsl #18
     55c:	00340900 	eorseq	r0, r4, r0, lsl #18
     560:	0b3a1347 	bleq	e85284 <__bss_end__+0xe7b15c>
     564:	0b390b3b 	bleq	e43258 <__bss_end__+0xe39130>
     568:	00001802 	andeq	r1, r0, r2, lsl #16
     56c:	3f012e0a 	svccc	0x00012e0a
     570:	3a0e0319 	bcc	3811dc <__bss_end__+0x3770b4>
     574:	390b3b0b 	stmdbcc	fp, {r0, r1, r3, r8, r9, fp, ip, sp}
     578:	4919270b 	ldmdbmi	r9, {r0, r1, r3, r8, r9, sl, sp}
     57c:	12011113 	andne	r1, r1, #-1073741820	; 0xc0000004
     580:	96184006 	ldrls	r4, [r8], -r6
     584:	00001942 	andeq	r1, r0, r2, asr #18
     588:	0300050b 	movweq	r0, #1291	; 0x50b
     58c:	3b0b3a08 	blcc	2cedb4 <__bss_end__+0x2c4c8c>
     590:	490b390b 	stmdbmi	fp, {r0, r1, r3, r8, fp, ip, sp}
     594:	b7170213 			; <UNDEFINED> instruction: 0xb7170213
     598:	00001742 	andeq	r1, r0, r2, asr #14
     59c:	01110100 	tsteq	r1, r0, lsl #2
     5a0:	0b130e25 	bleq	4c3e3c <__bss_end__+0x4b9d14>
     5a4:	0e1b0e03 	cdpeq	14, 1, cr0, cr11, cr3, {0}
     5a8:	06120111 			; <UNDEFINED> instruction: 0x06120111
     5ac:	00001710 	andeq	r1, r0, r0, lsl r7
     5b0:	0b002402 	bleq	95c0 <gpio_set_function+0x20>
     5b4:	030b3e0b 	movweq	r3, #48651	; 0xbe0b
     5b8:	0300000e 	movweq	r0, #14
     5bc:	0b0b0024 	bleq	2c0654 <__bss_end__+0x2b652c>
     5c0:	08030b3e 	stmdaeq	r3, {r1, r2, r3, r4, r5, r8, r9, fp}
     5c4:	16040000 	strne	r0, [r4], -r0
     5c8:	3a0e0300 	bcc	3811d0 <__bss_end__+0x3770a8>
     5cc:	390b3b0b 	stmdbcc	fp, {r0, r1, r3, r8, r9, fp, ip, sp}
     5d0:	0013490b 	andseq	r4, r3, fp, lsl #18
     5d4:	01150500 	tsteq	r5, r0, lsl #10
     5d8:	13491927 	movtne	r1, #39207	; 0x9927
     5dc:	00001301 	andeq	r1, r0, r1, lsl #6
     5e0:	49000506 	stmdbmi	r0, {r1, r2, r8, sl}
     5e4:	07000013 	smladeq	r0, r3, r0, r0
     5e8:	0e030034 	mcreq	0, 0, r0, cr3, cr4, {1}
     5ec:	0b3b0b3a 	bleq	ec32dc <__bss_end__+0xeb91b4>
     5f0:	13490b39 	movtne	r0, #39737	; 0x9b39
     5f4:	193c193f 	ldmdbne	ip!, {r0, r1, r2, r3, r4, r5, r8, fp, ip}
     5f8:	0f080000 	svceq	0x00080000
     5fc:	490b0b00 	stmdbmi	fp, {r8, r9, fp}
     600:	09000013 	stmdbeq	r0, {r0, r1, r4}
     604:	13490026 	movtne	r0, #36902	; 0x9026
     608:	130a0000 	movwne	r0, #40960	; 0xa000
     60c:	0b0e0301 	bleq	381218 <__bss_end__+0x3770f0>
     610:	3b0b3a0b 	blcc	2cee44 <__bss_end__+0x2c4d1c>
     614:	0013010b 	andseq	r0, r3, fp, lsl #2
     618:	000d0b00 	andeq	r0, sp, r0, lsl #22
     61c:	13490e03 	movtne	r0, #40451	; 0x9e03
     620:	19340b38 	ldmdbne	r4!, {r3, r4, r5, r8, r9, fp}
     624:	0f0c0000 	svceq	0x000c0000
     628:	000b0b00 	andeq	r0, fp, r0, lsl #22
     62c:	012e0d00 			; <UNDEFINED> instruction: 0x012e0d00
     630:	0e03193f 			; <UNDEFINED> instruction: 0x0e03193f
     634:	0b3b0b3a 	bleq	ec3324 <__bss_end__+0xeb91fc>
     638:	19270b39 	stmdbne	r7!, {r0, r3, r4, r5, r8, r9, fp}
     63c:	01111349 	tsteq	r1, r9, asr #6
     640:	18400612 	stmdane	r0, {r1, r4, r9, sl}^
     644:	01194297 			; <UNDEFINED> instruction: 0x01194297
     648:	0e000013 	mcreq	0, 0, r0, cr0, cr3, {0}
     64c:	08030005 	stmdaeq	r3, {r0, r2}
     650:	0b3b0b3a 	bleq	ec3340 <__bss_end__+0xeb9218>
     654:	13490b39 	movtne	r0, #39737	; 0x9b39
     658:	42b71702 	adcsmi	r1, r7, #524288	; 0x80000
     65c:	0f000017 	svceq	0x00000017
     660:	0e030005 	cdpeq	0, 0, cr0, cr3, cr5, {0}
     664:	0b3b0b3a 	bleq	ec3354 <__bss_end__+0xeb922c>
     668:	13490b39 	movtne	r0, #39737	; 0x9b39
     66c:	42b71702 	adcsmi	r1, r7, #524288	; 0x80000
     670:	10000017 	andne	r0, r0, r7, lsl r0
     674:	08030034 	stmdaeq	r3, {r2, r4, r5}
     678:	0b3b0b3a 	bleq	ec3368 <__bss_end__+0xeb9240>
     67c:	13490b39 	movtne	r0, #39737	; 0x9b39
     680:	42b71702 	adcsmi	r1, r7, #524288	; 0x80000
     684:	11000017 	tstne	r0, r7, lsl r0
     688:	0e030034 	mcreq	0, 0, r0, cr3, cr4, {1}
     68c:	0b3b0b3a 	bleq	ec337c <__bss_end__+0xeb9254>
     690:	13490b39 	movtne	r0, #39737	; 0x9b39
     694:	42b71702 	adcsmi	r1, r7, #524288	; 0x80000
     698:	12000017 	andne	r0, r0, #23, 0
     69c:	0e030034 	mcreq	0, 0, r0, cr3, cr4, {1}
     6a0:	19341349 	ldmdbne	r4!, {r0, r3, r6, r8, r9, ip}
     6a4:	00001802 	andeq	r1, r0, r2, lsl #16
     6a8:	55010b13 	strpl	r0, [r1, #-2835]	; 0xfffff4ed
     6ac:	14000017 	strne	r0, [r0], #-23	; 0xffffffe9
     6b0:	08030034 	stmdaeq	r3, {r2, r4, r5}
     6b4:	0b3b0b3a 	bleq	ec33a4 <__bss_end__+0xeb927c>
     6b8:	13490b39 	movtne	r0, #39737	; 0x9b39
     6bc:	00001802 	andeq	r1, r0, r2, lsl #16
     6c0:	03003415 	movweq	r3, #1045	; 0x415
     6c4:	3b0b3a0e 	blcc	2cef04 <__bss_end__+0x2c4ddc>
     6c8:	490b390b 	stmdbmi	fp, {r0, r1, r3, r8, fp, ip, sp}
     6cc:	00180213 	andseq	r0, r8, r3, lsl r2
     6d0:	010b1600 	tsteq	fp, r0, lsl #12
     6d4:	13011755 	movwne	r1, #5973	; 0x1755
     6d8:	89170000 	ldmdbhi	r7, {}	; <UNPREDICTABLE>
     6dc:	11010182 	smlabbne	r1, r2, r1, r0
     6e0:	01133101 	tsteq	r3, r1, lsl #2
     6e4:	18000013 	stmdane	r0, {r0, r1, r4}
     6e8:	0001828a 	andeq	r8, r1, sl, lsl #5
     6ec:	42911802 	addsmi	r1, r1, #131072	; 0x20000
     6f0:	19000018 	stmdbne	r0, {r3, r4}
     6f4:	00018289 	andeq	r8, r1, r9, lsl #5
     6f8:	13310111 	teqne	r1, #1073741828	; 0x40000004
     6fc:	1d1a0000 	ldcne	0, cr0, [sl, #-0]
     700:	52133101 	andspl	r3, r3, #1073741824	; 0x40000000
     704:	0542b801 	strbeq	fp, [r2, #-2049]	; 0xfffff7ff
     708:	0b581755 	bleq	1606464 <__bss_end__+0x15fc33c>
     70c:	0b570b59 	bleq	15c3478 <__bss_end__+0x15b9350>
     710:	00001301 	andeq	r1, r0, r1, lsl #6
     714:	3100051b 	tstcc	r0, fp, lsl r5
     718:	b7170213 			; <UNDEFINED> instruction: 0xb7170213
     71c:	00001742 	andeq	r1, r0, r2, asr #14
     720:	3100051c 	tstcc	r0, ip, lsl r5
     724:	1d000013 	stcne	0, cr0, [r0, #-76]	; 0xffffffb4
     728:	13310034 	teqne	r1, #52, 0	; 0x34
     72c:	00001802 	andeq	r1, r0, r2, lsl #16
     730:	3100341e 	tstcc	r0, lr, lsl r4
     734:	b7170213 			; <UNDEFINED> instruction: 0xb7170213
     738:	00001742 	andeq	r1, r0, r2, asr #14
     73c:	3100341f 	tstcc	r0, pc, lsl r4
     740:	20000013 	andcs	r0, r0, r3, lsl r0
     744:	1331011d 	teqne	r1, #1073741831	; 0x40000007
     748:	42b80152 	adcsmi	r0, r8, #-2147483628	; 0x80000014
     74c:	58175505 	ldmdapl	r7, {r0, r2, r8, sl, ip, lr}
     750:	570b590b 	strpl	r5, [fp, -fp, lsl #18]
     754:	2100000b 	tstcs	r0, fp
     758:	01018289 	smlabbeq	r1, r9, r2, r8
     75c:	13010111 	movwne	r0, #4369	; 0x1111
     760:	01220000 			; <UNDEFINED> instruction: 0x01220000
     764:	01134901 	tsteq	r3, r1, lsl #18
     768:	23000013 	movwcs	r0, #19
     76c:	13490021 	movtne	r0, #36897	; 0x9021
     770:	00000b2f 	andeq	r0, r0, pc, lsr #22
     774:	03012e24 	movweq	r2, #7716	; 0x1e24
     778:	3b0b3a0e 	blcc	2cefb8 <__bss_end__+0x2c4e90>
     77c:	270b390b 	strcs	r3, [fp, -fp, lsl #18]
     780:	20134919 	andscs	r4, r3, r9, lsl r9
     784:	0013010b 	andseq	r0, r3, fp, lsl #2
     788:	00052500 	andeq	r2, r5, r0, lsl #10
     78c:	0b3a0e03 	bleq	e83fa0 <__bss_end__+0xe79e78>
     790:	0b390b3b 	bleq	e43484 <__bss_end__+0xe3935c>
     794:	00001349 	andeq	r1, r0, r9, asr #6
     798:	03000526 	movweq	r0, #1318	; 0x526
     79c:	3b0b3a08 	blcc	2cefc4 <__bss_end__+0x2c4e9c>
     7a0:	490b390b 	stmdbmi	fp, {r0, r1, r3, r8, fp, ip, sp}
     7a4:	27000013 	smladcs	r0, r3, r0, r0
     7a8:	08030034 	stmdaeq	r3, {r2, r4, r5}
     7ac:	0b3b0b3a 	bleq	ec349c <__bss_end__+0xeb9374>
     7b0:	13490b39 	movtne	r0, #39737	; 0x9b39
     7b4:	0b280000 	bleq	a007bc <__bss_end__+0x9f6694>
     7b8:	29000001 	stmdbcs	r0, {r0}
     7bc:	0e030034 	mcreq	0, 0, r0, cr3, cr4, {1}
     7c0:	0b3b0b3a 	bleq	ec34b0 <__bss_end__+0xeb9388>
     7c4:	13490b39 	movtne	r0, #39737	; 0x9b39
     7c8:	2e2a0000 	cdpcs	0, 2, cr0, cr10, cr0, {0}
     7cc:	3a080301 	bcc	2013d8 <__bss_end__+0x1f72b0>
     7d0:	390b3b0b 	stmdbcc	fp, {r0, r1, r3, r8, r9, fp, ip, sp}
     7d4:	4919270b 	ldmdbmi	r9, {r0, r1, r3, r8, r9, sl, sp}
     7d8:	010b2013 	tsteq	fp, r3, lsl r0
     7dc:	2b000013 	blcs	830 <__code_start__-0x77d0>
     7e0:	193f012e 	ldmdbne	pc!, {r1, r2, r3, r5, r8}	; <UNPREDICTABLE>
     7e4:	0b3a0e03 	bleq	e83ff8 <__bss_end__+0xe79ed0>
     7e8:	0b390b3b 	bleq	e434dc <__bss_end__+0xe393b4>
     7ec:	01111927 	tsteq	r1, r7, lsr #18
     7f0:	18400612 	stmdane	r0, {r1, r4, r9, sl}^
     7f4:	01194297 			; <UNDEFINED> instruction: 0x01194297
     7f8:	2c000013 	stccs	0, cr0, [r0], {19}
     7fc:	1331012e 	teqne	r1, #-2147483637	; 0x8000000b
     800:	06120111 			; <UNDEFINED> instruction: 0x06120111
     804:	42971840 	addsmi	r1, r7, #64, 16	; 0x400000
     808:	00130119 	andseq	r0, r3, r9, lsl r1
     80c:	00052d00 	andeq	r2, r5, r0, lsl #26
     810:	18021331 	stmdane	r2, {r0, r4, r5, r8, r9, ip}
     814:	052e0000 	streq	r0, [lr, #-0]!
     818:	1c133100 	ldfnes	f3, [r3], {-0}
     81c:	2f00000b 	svccs	0x0000000b
     820:	1331010b 	teqne	r1, #-1073741822	; 0xc0000002
     824:	06120111 			; <UNDEFINED> instruction: 0x06120111
     828:	00001301 	andeq	r1, r0, r1, lsl #6
     82c:	3f002e30 	svccc	0x00002e30
     830:	6e193c19 	mrcvs	12, 0, r3, cr9, cr9, {0}
     834:	3a0e030e 	bcc	381474 <__bss_end__+0x37734c>
     838:	390b3b0b 	stmdbcc	fp, {r0, r1, r3, r8, r9, fp, ip, sp}
     83c:	0000000b 	andeq	r0, r0, fp
     840:	25011101 	strcs	r1, [r1, #-257]	; 0xfffffeff
     844:	030b130e 	movweq	r1, #45838	; 0xb30e
     848:	110e1b0e 	tstne	lr, lr, lsl #22
     84c:	10061201 	andne	r1, r6, r1, lsl #4
     850:	02000017 	andeq	r0, r0, #23, 0
     854:	0b0b0024 	bleq	2c08ec <__bss_end__+0x2b67c4>
     858:	08030b3e 	stmdaeq	r3, {r1, r2, r3, r4, r5, r8, r9, fp}
     85c:	24030000 	strcs	r0, [r3], #-0
     860:	3e0b0b00 	vmlacc.f64	d0, d11, d0
     864:	000e030b 	andeq	r0, lr, fp, lsl #6
     868:	01150400 	tsteq	r5, r0, lsl #8
     86c:	13491927 	movtne	r1, #39207	; 0x9927
     870:	00001301 	andeq	r1, r0, r1, lsl #6
     874:	49000505 	stmdbmi	r0, {r0, r2, r8, sl}
     878:	06000013 			; <UNDEFINED> instruction: 0x06000013
     87c:	0e030034 	mcreq	0, 0, r0, cr3, cr4, {1}
     880:	0b3b0b3a 	bleq	ec3570 <__bss_end__+0xeb9448>
     884:	13490b39 	movtne	r0, #39737	; 0x9b39
     888:	193c193f 	ldmdbne	ip!, {r0, r1, r2, r3, r4, r5, r8, fp, ip}
     88c:	0f070000 	svceq	0x00070000
     890:	490b0b00 	stmdbmi	fp, {r8, r9, fp}
     894:	08000013 	stmdaeq	r0, {r0, r1, r4}
     898:	13490026 	movtne	r0, #36902	; 0x9026
     89c:	2e090000 	cdpcs	0, 0, cr0, cr9, cr0, {0}
     8a0:	03193f01 	tsteq	r9, #1, 30
     8a4:	3b0b3a0e 	blcc	2cf0e4 <__bss_end__+0x2c4fbc>
     8a8:	270b390b 	strcs	r3, [fp, -fp, lsl #18]
     8ac:	19018719 	stmdbne	r1, {r0, r3, r4, r8, r9, sl, pc}
     8b0:	06120111 			; <UNDEFINED> instruction: 0x06120111
     8b4:	42971840 	addsmi	r1, r7, #64, 16	; 0x400000
     8b8:	00130119 	andseq	r0, r3, r9, lsl r1
     8bc:	82890a00 	addhi	r0, r9, #0, 20
     8c0:	01110101 	tsteq	r1, r1, lsl #2
     8c4:	00001301 	andeq	r1, r0, r1, lsl #6
     8c8:	01828a0b 	orreq	r8, r2, fp, lsl #20
     8cc:	91180200 	tstls	r8, r0, lsl #4
     8d0:	00001842 	andeq	r1, r0, r2, asr #16
     8d4:	0182890c 	orreq	r8, r2, ip, lsl #18
     8d8:	31011100 	mrscc	r1, (UNDEF: 17)
     8dc:	0d000013 	stceq	0, cr0, [r0, #-76]	; 0xffffffb4
     8e0:	01018289 	smlabbeq	r1, r9, r2, r8
     8e4:	13310111 	teqne	r1, #1073741828	; 0x40000004
     8e8:	00001301 	andeq	r1, r0, r1, lsl #6
     8ec:	3f002e0e 	svccc	0x00002e0e
     8f0:	6e193c19 	mrcvs	12, 0, r3, cr9, cr9, {0}
     8f4:	3a0e030e 	bcc	381534 <__bss_end__+0x37740c>
     8f8:	390b3b0b 	stmdbcc	fp, {r0, r1, r3, r8, r9, fp, ip, sp}
     8fc:	0000000b 	andeq	r0, r0, fp
     900:	25011101 	strcs	r1, [r1, #-257]	; 0xfffffeff
     904:	030b130e 	movweq	r1, #45838	; 0xb30e
     908:	110e1b0e 	tstne	lr, lr, lsl #22
     90c:	10061201 	andne	r1, r6, r1, lsl #4
     910:	02000017 	andeq	r0, r0, #23, 0
     914:	0b0b0024 	bleq	2c09ac <__bss_end__+0x2b6884>
     918:	08030b3e 	stmdaeq	r3, {r1, r2, r3, r4, r5, r8, r9, fp}
     91c:	24030000 	strcs	r0, [r3], #-0
     920:	3e0b0b00 	vmlacc.f64	d0, d11, d0
     924:	000e030b 	andeq	r0, lr, fp, lsl #6
     928:	01150400 	tsteq	r5, r0, lsl #8
     92c:	13491927 	movtne	r1, #39207	; 0x9927
     930:	00001301 	andeq	r1, r0, r1, lsl #6
     934:	49000505 	stmdbmi	r0, {r0, r2, r8, sl}
     938:	06000013 			; <UNDEFINED> instruction: 0x06000013
     93c:	0e030034 	mcreq	0, 0, r0, cr3, cr4, {1}
     940:	0b3b0b3a 	bleq	ec3630 <__bss_end__+0xeb9508>
     944:	13490b39 	movtne	r0, #39737	; 0x9b39
     948:	193c193f 	ldmdbne	ip!, {r0, r1, r2, r3, r4, r5, r8, fp, ip}
     94c:	0f070000 	svceq	0x00070000
     950:	490b0b00 	stmdbmi	fp, {r8, r9, fp}
     954:	08000013 	stmdaeq	r0, {r0, r1, r4}
     958:	13490026 	movtne	r0, #36902	; 0x9026
     95c:	2e090000 	cdpcs	0, 0, cr0, cr9, cr0, {0}
     960:	03193f01 	tsteq	r9, #1, 30
     964:	3b0b3a0e 	blcc	2cf1a4 <__bss_end__+0x2c507c>
     968:	110b390b 	tstne	fp, fp, lsl #18
     96c:	40061201 	andmi	r1, r6, r1, lsl #4
     970:	19429718 	stmdbne	r2, {r3, r4, r8, r9, sl, ip, pc}^
     974:	00001301 	andeq	r1, r0, r1, lsl #6
     978:	3f002e0a 	svccc	0x00002e0a
     97c:	3a0e0319 	bcc	3815e8 <__bss_end__+0x3774c0>
     980:	390b3b0b 	stmdbcc	fp, {r0, r1, r3, r8, r9, fp, ip, sp}
     984:	3c19270b 	ldccc	7, cr2, [r9], {11}
     988:	0b000019 	bleq	9f4 <__code_start__-0x760c>
     98c:	08030034 	stmdaeq	r3, {r2, r4, r5}
     990:	0b3b0b3a 	bleq	ec3680 <__bss_end__+0xeb9558>
     994:	13490b39 	movtne	r0, #39737	; 0x9b39
     998:	42b71702 	adcsmi	r1, r7, #524288	; 0x80000
     99c:	0c000017 	stceq	0, cr0, [r0], {23}
     9a0:	0e030034 	mcreq	0, 0, r0, cr3, cr4, {1}
     9a4:	0b3b0b3a 	bleq	ec3694 <__bss_end__+0xeb956c>
     9a8:	13490b39 	movtne	r0, #39737	; 0x9b39
     9ac:	0b0d0000 	bleq	3409b4 <__bss_end__+0x33688c>
     9b0:	12011101 	andne	r1, r1, #1073741824	; 0x40000000
     9b4:	00130106 	andseq	r0, r3, r6, lsl #2
     9b8:	82890e00 	addhi	r0, r9, #0, 28
     9bc:	01110001 	tsteq	r1, r1
     9c0:	00001331 	andeq	r1, r0, r1, lsr r3
     9c4:	3f002e0f 	svccc	0x00002e0f
     9c8:	6e193c19 	mrcvs	12, 0, r3, cr9, cr9, {0}
     9cc:	3a0e030e 	bcc	38160c <__bss_end__+0x3774e4>
     9d0:	39053b0b 	stmdbcc	r5, {r0, r1, r3, r8, r9, fp, ip, sp}
     9d4:	1000000b 	andne	r0, r0, fp
     9d8:	193f002e 	ldmdbne	pc!, {r1, r2, r3, r5}	; <UNPREDICTABLE>
     9dc:	0e6e193c 			; <UNDEFINED> instruction: 0x0e6e193c
     9e0:	0b3a0e03 	bleq	e841f4 <__bss_end__+0xe7a0cc>
     9e4:	0b390b3b 	bleq	e436d8 <__bss_end__+0xe395b0>
     9e8:	01000000 	mrseq	r0, (UNDEF: 0)
     9ec:	0e250111 	mcreq	1, 1, r0, cr5, cr1, {0}
     9f0:	0e030b13 	vmoveq.32	d3[0], r0
     9f4:	01110e1b 	tsteq	r1, fp, lsl lr
     9f8:	17100612 			; <UNDEFINED> instruction: 0x17100612
     9fc:	24020000 	strcs	r0, [r2], #-0
     a00:	3e0b0b00 	vmlacc.f64	d0, d11, d0
     a04:	0008030b 	andeq	r0, r8, fp, lsl #6
     a08:	00240300 	eoreq	r0, r4, r0, lsl #6
     a0c:	0b3e0b0b 	bleq	f83640 <__bss_end__+0xf79518>
     a10:	00000e03 	andeq	r0, r0, r3, lsl #28
     a14:	27011504 	strcs	r1, [r1, -r4, lsl #10]
     a18:	01134919 	tsteq	r3, r9, lsl r9
     a1c:	05000013 	streq	r0, [r0, #-19]	; 0xffffffed
     a20:	13490005 	movtne	r0, #36869	; 0x9005
     a24:	34060000 	strcc	r0, [r6], #-0
     a28:	3a0e0300 	bcc	381630 <__bss_end__+0x377508>
     a2c:	390b3b0b 	stmdbcc	fp, {r0, r1, r3, r8, r9, fp, ip, sp}
     a30:	3f13490b 	svccc	0x0013490b
     a34:	00193c19 	andseq	r3, r9, r9, lsl ip
     a38:	000f0700 	andeq	r0, pc, r0, lsl #14
     a3c:	13490b0b 	movtne	r0, #39691	; 0x9b0b
     a40:	26080000 	strcs	r0, [r8], -r0
     a44:	00134900 	andseq	r4, r3, r0, lsl #18
     a48:	002e0900 	eoreq	r0, lr, r0, lsl #18
     a4c:	0e03193f 			; <UNDEFINED> instruction: 0x0e03193f
     a50:	0b3b0b3a 	bleq	ec3740 <__bss_end__+0xeb9618>
     a54:	19270b39 	stmdbne	r7!, {r0, r3, r4, r5, r8, r9, fp}
     a58:	06120111 			; <UNDEFINED> instruction: 0x06120111
     a5c:	42971840 	addsmi	r1, r7, #64, 16	; 0x400000
     a60:	00000019 	andeq	r0, r0, r9, lsl r0
     a64:	25011101 	strcs	r1, [r1, #-257]	; 0xfffffeff
     a68:	030b130e 	movweq	r1, #45838	; 0xb30e
     a6c:	550e1b0e 	strpl	r1, [lr, #-2830]	; 0xfffff4f2
     a70:	10011117 	andne	r1, r1, r7, lsl r1
     a74:	02000017 	andeq	r0, r0, #23, 0
     a78:	0b0b0024 	bleq	2c0b10 <__bss_end__+0x2b69e8>
     a7c:	08030b3e 	stmdaeq	r3, {r1, r2, r3, r4, r5, r8, r9, fp}
     a80:	26030000 	strcs	r0, [r3], -r0
     a84:	00134900 	andseq	r4, r3, r0, lsl #18
     a88:	00240400 	eoreq	r0, r4, r0, lsl #8
     a8c:	0b3e0b0b 	bleq	f836c0 <__bss_end__+0xf79598>
     a90:	00000e03 	andeq	r0, r0, r3, lsl #28
     a94:	27011505 	strcs	r1, [r1, -r5, lsl #10]
     a98:	01134919 	tsteq	r3, r9, lsl r9
     a9c:	06000013 			; <UNDEFINED> instruction: 0x06000013
     aa0:	13490005 	movtne	r0, #36869	; 0x9005
     aa4:	34070000 	strcc	r0, [r7], #-0
     aa8:	3a0e0300 	bcc	3816b0 <__bss_end__+0x377588>
     aac:	390b3b0b 	stmdbcc	fp, {r0, r1, r3, r8, r9, fp, ip, sp}
     ab0:	3f13490b 	svccc	0x0013490b
     ab4:	00193c19 	andseq	r3, r9, r9, lsl ip
     ab8:	000f0800 	andeq	r0, pc, r0, lsl #16
     abc:	13490b0b 	movtne	r0, #39691	; 0x9b0b
     ac0:	34090000 	strcc	r0, [r9], #-0
     ac4:	3a0e0300 	bcc	3816cc <__bss_end__+0x3775a4>
     ac8:	390b3b0b 	stmdbcc	fp, {r0, r1, r3, r8, r9, fp, ip, sp}
     acc:	0013490b 	andseq	r4, r3, fp, lsl #18
     ad0:	012e0a00 			; <UNDEFINED> instruction: 0x012e0a00
     ad4:	0e03193f 			; <UNDEFINED> instruction: 0x0e03193f
     ad8:	0b3b0b3a 	bleq	ec37c8 <__bss_end__+0xeb96a0>
     adc:	19270b39 	stmdbne	r7!, {r0, r3, r4, r5, r8, r9, fp}
     ae0:	11190187 	tstne	r9, r7, lsl #3
     ae4:	40061201 	andmi	r1, r6, r1, lsl #4
     ae8:	19429718 	stmdbne	r2, {r3, r4, r8, r9, sl, ip, pc}^
     aec:	00001301 	andeq	r1, r0, r1, lsl #6
     af0:	0300340b 	movweq	r3, #1035	; 0x40b
     af4:	3b0b3a0e 	blcc	2cf334 <__bss_end__+0x2c520c>
     af8:	490b390b 	stmdbmi	fp, {r0, r1, r3, r8, fp, ip, sp}
     afc:	00061c13 	andeq	r1, r6, r3, lsl ip
     b00:	00340c00 	eorseq	r0, r4, r0, lsl #24
     b04:	0b3a0e03 	bleq	e84318 <__bss_end__+0xe7a1f0>
     b08:	0b390b3b 	bleq	e437fc <__bss_end__+0xe396d4>
     b0c:	0b1c1349 	bleq	705838 <__bss_end__+0x6fb710>
     b10:	1d0d0000 	stcne	0, cr0, [sp, #-0]
     b14:	52133101 	andspl	r3, r3, #1073741824	; 0x40000000
     b18:	0b42b801 	bleq	10aeb24 <__bss_end__+0x10a49fc>
     b1c:	0b581755 	bleq	1606878 <__bss_end__+0x15fc750>
     b20:	0b570b59 	bleq	15c388c <__bss_end__+0x15b9764>
     b24:	00001301 	andeq	r1, r0, r1, lsl #6
     b28:	55010b0e 	strpl	r0, [r1, #-2830]	; 0xfffff4f2
     b2c:	0f000017 	svceq	0x00000017
     b30:	13310034 	teqne	r1, #52, 0	; 0x34
     b34:	42b71702 	adcsmi	r1, r7, #524288	; 0x80000
     b38:	10000017 	andne	r0, r0, r7, lsl r0
     b3c:	1331011d 	teqne	r1, #1073741831	; 0x40000007
     b40:	42b80152 	adcsmi	r0, r8, #-2147483628	; 0x80000014
     b44:	1201110b 	andne	r1, r1, #-1073741822	; 0xc0000002
     b48:	590b5806 	stmdbpl	fp, {r1, r2, fp, ip, lr}
     b4c:	010b570b 	tsteq	fp, fp, lsl #14
     b50:	11000013 	tstne	r0, r3, lsl r0
     b54:	00018289 	andeq	r8, r1, r9, lsl #5
     b58:	13310111 	teqne	r1, #1073741828	; 0x40000004
     b5c:	89120000 	ldmdbhi	r2, {}	; <UNPREDICTABLE>
     b60:	11010182 	smlabbne	r1, r2, r1, r0
     b64:	01133101 	tsteq	r3, r1, lsl #2
     b68:	13000013 	movwne	r0, #19
     b6c:	0001828a 	andeq	r8, r1, sl, lsl #5
     b70:	42911802 	addsmi	r1, r1, #131072	; 0x20000
     b74:	14000018 	strne	r0, [r0], #-24	; 0xffffffe8
     b78:	01018289 	smlabbeq	r1, r9, r2, r8
     b7c:	13310111 	teqne	r1, #1073741828	; 0x40000004
     b80:	2e150000 	cdpcs	0, 1, cr0, cr5, cr0, {0}
     b84:	03193f01 	tsteq	r9, #1, 30
     b88:	3b0b3a0e 	blcc	2cf3c8 <__bss_end__+0x2c52a0>
     b8c:	270b390b 	strcs	r3, [fp, -fp, lsl #18]
     b90:	010b2019 	tsteq	fp, r9, lsl r0
     b94:	16000013 			; <UNDEFINED> instruction: 0x16000013
     b98:	193f012e 	ldmdbne	pc!, {r1, r2, r3, r5, r8}	; <UNPREDICTABLE>
     b9c:	0b3a0e03 	bleq	e843b0 <__bss_end__+0xe7a288>
     ba0:	0b390b3b 	bleq	e43894 <__bss_end__+0xe3976c>
     ba4:	13491927 	movtne	r1, #39207	; 0x9927
     ba8:	13010b20 	movwne	r0, #6944	; 0x1b20
     bac:	2e170000 	cdpcs	0, 1, cr0, cr7, cr0, {0}
     bb0:	11133101 	tstne	r3, r1, lsl #2
     bb4:	40061201 	andmi	r1, r6, r1, lsl #4
     bb8:	19429718 	stmdbne	r2, {r3, r4, r8, r9, sl, ip, pc}^
     bbc:	00001301 	andeq	r1, r0, r1, lsl #6
     bc0:	3f002e18 	svccc	0x00002e18
     bc4:	6e193c19 	mrcvs	12, 0, r3, cr9, cr9, {0}
     bc8:	3a0e030e 	bcc	381808 <__bss_end__+0x3776e0>
     bcc:	39053b0b 	stmdbcc	r5, {r0, r1, r3, r8, r9, fp, ip, sp}
     bd0:	1900000b 	stmdbne	r0, {r0, r1, r3}
     bd4:	193f002e 	ldmdbne	pc!, {r1, r2, r3, r5}	; <UNPREDICTABLE>
     bd8:	0e6e193c 			; <UNDEFINED> instruction: 0x0e6e193c
     bdc:	0b3a0e03 	bleq	e843f0 <__bss_end__+0xe7a2c8>
     be0:	0b390b3b 	bleq	e438d4 <__bss_end__+0xe397ac>
     be4:	01000000 	mrseq	r0, (UNDEF: 0)
     be8:	0e250111 	mcreq	1, 1, r0, cr5, cr1, {0}
     bec:	0e030b13 	vmoveq.32	d3[0], r0
     bf0:	01110e1b 	tsteq	r1, fp, lsl lr
     bf4:	17100612 			; <UNDEFINED> instruction: 0x17100612
     bf8:	24020000 	strcs	r0, [r2], #-0
     bfc:	3e0b0b00 	vmlacc.f64	d0, d11, d0
     c00:	0008030b 	andeq	r0, r8, fp, lsl #6
     c04:	00240300 	eoreq	r0, r4, r0, lsl #6
     c08:	0b3e0b0b 	bleq	f8383c <__bss_end__+0xf79714>
     c0c:	00000e03 	andeq	r0, r0, r3, lsl #28
     c10:	27011504 	strcs	r1, [r1, -r4, lsl #10]
     c14:	01134919 	tsteq	r3, r9, lsl r9
     c18:	05000013 	streq	r0, [r0, #-19]	; 0xffffffed
     c1c:	13490005 	movtne	r0, #36869	; 0x9005
     c20:	34060000 	strcc	r0, [r6], #-0
     c24:	3a0e0300 	bcc	38182c <__bss_end__+0x377704>
     c28:	390b3b0b 	stmdbcc	fp, {r0, r1, r3, r8, r9, fp, ip, sp}
     c2c:	3f13490b 	svccc	0x0013490b
     c30:	00193c19 	andseq	r3, r9, r9, lsl ip
     c34:	000f0700 	andeq	r0, pc, r0, lsl #14
     c38:	13490b0b 	movtne	r0, #39691	; 0x9b0b
     c3c:	26080000 	strcs	r0, [r8], -r0
     c40:	00134900 	andseq	r4, r3, r0, lsl #18
     c44:	012e0900 			; <UNDEFINED> instruction: 0x012e0900
     c48:	0e03193f 			; <UNDEFINED> instruction: 0x0e03193f
     c4c:	0b3b0b3a 	bleq	ec393c <__bss_end__+0xeb9814>
     c50:	19270b39 	stmdbne	r7!, {r0, r3, r4, r5, r8, r9, fp}
     c54:	06120111 			; <UNDEFINED> instruction: 0x06120111
     c58:	42971840 	addsmi	r1, r7, #64, 16	; 0x400000
     c5c:	00130119 	andseq	r0, r3, r9, lsl r1
     c60:	00050a00 	andeq	r0, r5, r0, lsl #20
     c64:	0b3a0803 	bleq	e82c78 <__bss_end__+0xe78b50>
     c68:	0b390b3b 	bleq	e4395c <__bss_end__+0xe39834>
     c6c:	17021349 	strne	r1, [r2, -r9, asr #6]
     c70:	001742b7 			; <UNDEFINED> instruction: 0x001742b7
     c74:	011d0b00 	tsteq	sp, r0, lsl #22
     c78:	01521331 	cmpeq	r2, r1, lsr r3
     c7c:	550b42b8 	strpl	r4, [fp, #-696]	; 0xfffffd48
     c80:	590b5817 	stmdbpl	fp, {r0, r1, r2, r4, fp, ip, lr}
     c84:	000b570b 	andeq	r5, fp, fp, lsl #14
     c88:	00050c00 	andeq	r0, r5, r0, lsl #24
     c8c:	17021331 	smladxne	r2, r1, r3, r1
     c90:	001742b7 			; <UNDEFINED> instruction: 0x001742b7
     c94:	011d0d00 	tsteq	sp, r0, lsl #26
     c98:	01521331 	cmpeq	r2, r1, lsr r3
     c9c:	110b42b8 			; <UNDEFINED> instruction: 0x110b42b8
     ca0:	58061201 	stmdapl	r6, {r0, r9, ip}
     ca4:	570b590b 	strpl	r5, [fp, -fp, lsl #18]
     ca8:	0e00000b 	cdpeq	0, 0, cr0, cr0, cr11, {0}
     cac:	13310034 	teqne	r1, #52, 0	; 0x34
     cb0:	42b71702 	adcsmi	r1, r7, #524288	; 0x80000
     cb4:	0f000017 	svceq	0x00000017
     cb8:	1331011d 	teqne	r1, #1073741831	; 0x40000007
     cbc:	42b80152 	adcsmi	r0, r8, #-2147483628	; 0x80000014
     cc0:	1201110b 	andne	r1, r1, #-1073741822	; 0xc0000002
     cc4:	590b5806 	stmdbpl	fp, {r1, r2, fp, ip, lr}
     cc8:	010b570b 	tsteq	fp, fp, lsl #14
     ccc:	10000013 	andne	r0, r0, r3, lsl r0
     cd0:	01018289 	smlabbeq	r1, r9, r2, r8
     cd4:	13310111 	teqne	r1, #1073741828	; 0x40000004
     cd8:	8a110000 	bhi	440ce0 <__bss_end__+0x436bb8>
     cdc:	02000182 	andeq	r0, r0, #-2147483616	; 0x80000020
     ce0:	18429118 	stmdane	r2, {r3, r4, r8, ip, pc}^
     ce4:	89120000 	ldmdbhi	r2, {}	; <UNPREDICTABLE>
     ce8:	11000182 	smlabbne	r0, r2, r1, r0
     cec:	00133101 	andseq	r3, r3, r1, lsl #2
     cf0:	010b1300 	mrseq	r1, (UNDEF: 59)
     cf4:	17551331 	smmlarne	r5, r1, r3, r1
     cf8:	34140000 	ldrcc	r0, [r4], #-0
     cfc:	00133100 	andseq	r3, r3, r0, lsl #2
     d00:	010b1500 	tsteq	fp, r0, lsl #10
     d04:	00001755 	andeq	r1, r0, r5, asr r7
     d08:	31011d16 	tstcc	r1, r6, lsl sp
     d0c:	b8015213 	stmdalt	r1, {r0, r1, r4, r9, ip, lr}
     d10:	17550b42 	ldrbne	r0, [r5, -r2, asr #22]
     d14:	0b590b58 	bleq	1643a7c <__bss_end__+0x1639954>
     d18:	13010b57 	movwne	r0, #6999	; 0x1b57
     d1c:	2e170000 	cdpcs	0, 1, cr0, cr7, cr0, {0}
     d20:	03193f01 	tsteq	r9, #1, 30
     d24:	3b0b3a0e 	blcc	2cf564 <__bss_end__+0x2c543c>
     d28:	270b390b 	strcs	r3, [fp, -fp, lsl #18]
     d2c:	010b2019 	tsteq	fp, r9, lsl r0
     d30:	18000013 	stmdane	r0, {r0, r1, r4}
     d34:	08030005 	stmdaeq	r3, {r0, r2}
     d38:	0b3b0b3a 	bleq	ec3a28 <__bss_end__+0xeb9900>
     d3c:	13490b39 	movtne	r0, #39737	; 0x9b39
     d40:	34190000 	ldrcc	r0, [r9], #-0
     d44:	3a080300 	bcc	20194c <__bss_end__+0x1f7824>
     d48:	390b3b0b 	stmdbcc	fp, {r0, r1, r3, r8, r9, fp, ip, sp}
     d4c:	0013490b 	andseq	r4, r3, fp, lsl #18
     d50:	010b1a00 	tsteq	fp, r0, lsl #20
     d54:	2e1b0000 	cdpcs	0, 1, cr0, cr11, cr0, {0}
     d58:	03193f01 	tsteq	r9, #1, 30
     d5c:	3b0b3a0e 	blcc	2cf59c <__bss_end__+0x2c5474>
     d60:	270b390b 	strcs	r3, [fp, -fp, lsl #18]
     d64:	20134919 	andscs	r4, r3, r9, lsl r9
     d68:	0013010b 	andseq	r0, r3, fp, lsl #2
     d6c:	002e1c00 	eoreq	r1, lr, r0, lsl #24
     d70:	0e03193f 			; <UNDEFINED> instruction: 0x0e03193f
     d74:	0b3b0b3a 	bleq	ec3a64 <__bss_end__+0xeb993c>
     d78:	19270b39 	stmdbne	r7!, {r0, r3, r4, r5, r8, r9, fp}
     d7c:	0b201349 	bleq	805aa8 <__bss_end__+0x7fb980>
     d80:	2e1d0000 	cdpcs	0, 1, cr0, cr13, cr0, {0}
     d84:	11133101 	tstne	r3, r1, lsl #2
     d88:	40061201 	andmi	r1, r6, r1, lsl #4
     d8c:	19429718 	stmdbne	r2, {r3, r4, r8, r9, sl, ip, pc}^
     d90:	00001301 	andeq	r1, r0, r1, lsl #6
     d94:	0182891e 	orreq	r8, r2, lr, lsl r9
     d98:	95011101 	strls	r1, [r1, #-257]	; 0xfffffeff
     d9c:	13311942 	teqne	r1, #1081344	; 0x108000
     da0:	2e1f0000 	cdpcs	0, 1, cr0, cr15, cr0, {0}
     da4:	3c193f00 	ldccc	15, cr3, [r9], {-0}
     da8:	030e6e19 	movweq	r6, #60953	; 0xee19
     dac:	3b0b3a0e 	blcc	2cf5ec <__bss_end__+0x2c54c4>
     db0:	000b390b 	andeq	r3, fp, fp, lsl #18
     db4:	11010000 	mrsne	r0, (UNDEF: 1)
     db8:	130e2501 	movwne	r2, #58625	; 0xe501
     dbc:	1b0e030b 	blne	3819f0 <__bss_end__+0x3778c8>
     dc0:	1201110e 	andne	r1, r1, #-2147483645	; 0x80000003
     dc4:	00171006 	andseq	r1, r7, r6
     dc8:	00240200 	eoreq	r0, r4, r0, lsl #4
     dcc:	0b3e0b0b 	bleq	f83a00 <__bss_end__+0xf798d8>
     dd0:	00000803 	andeq	r0, r0, r3, lsl #16
     dd4:	0b002403 	bleq	9de8 <buf.3944+0xc8>
     dd8:	030b3e0b 	movweq	r3, #48651	; 0xbe0b
     ddc:	0400000e 	streq	r0, [r0], #-14
     de0:	13490035 	movtne	r0, #36917	; 0x9035
     de4:	16050000 	strne	r0, [r5], -r0
     de8:	3a0e0300 	bcc	3819f0 <__bss_end__+0x3778c8>
     dec:	390b3b0b 	stmdbcc	fp, {r0, r1, r3, r8, r9, fp, ip, sp}
     df0:	0013490b 	andseq	r4, r3, fp, lsl #18
     df4:	01040600 	tsteq	r4, r0, lsl #12
     df8:	0b0b0b3e 	bleq	2c3af8 <__bss_end__+0x2b99d0>
     dfc:	0b3a1349 	bleq	e85b28 <__bss_end__+0xe7ba00>
     e00:	0b390b3b 	bleq	e43af4 <__bss_end__+0xe399cc>
     e04:	00001301 	andeq	r1, r0, r1, lsl #6
     e08:	03002807 	movweq	r2, #2055	; 0x807
     e0c:	000b1c0e 	andeq	r1, fp, lr, lsl #24
     e10:	01130800 	tsteq	r3, r0, lsl #16
     e14:	0b0b0e03 	bleq	2c4628 <__bss_end__+0x2ba500>
     e18:	0b3b0b3a 	bleq	ec3b08 <__bss_end__+0xeb99e0>
     e1c:	13010b39 	movwne	r0, #6969	; 0x1b39
     e20:	0d090000 	stceq	0, cr0, [r9, #-0]
     e24:	3a080300 	bcc	201a2c <__bss_end__+0x1f7904>
     e28:	390b3b0b 	stmdbcc	fp, {r0, r1, r3, r8, r9, fp, ip, sp}
     e2c:	3813490b 	ldmdacc	r3, {r0, r1, r3, r8, fp, lr}
     e30:	0a00000b 	beq	e64 <__code_start__-0x719c>
     e34:	0e03000d 	cdpeq	0, 0, cr0, cr3, cr13, {0}
     e38:	0b3b0b3a 	bleq	ec3b28 <__bss_end__+0xeb9a00>
     e3c:	13490b39 	movtne	r0, #39737	; 0x9b39
     e40:	00000b38 	andeq	r0, r0, r8, lsr fp
     e44:	0300340b 	movweq	r3, #1035	; 0x40b
     e48:	3b0b3a0e 	blcc	2cf688 <__bss_end__+0x2c5560>
     e4c:	490b390b 	stmdbmi	fp, {r0, r1, r3, r8, fp, ip, sp}
     e50:	00061c13 	andeq	r1, r6, r3, lsl ip
     e54:	000f0c00 	andeq	r0, pc, r0, lsl #24
     e58:	13490b0b 	movtne	r0, #39691	; 0x9b0b
     e5c:	260d0000 	strcs	r0, [sp], -r0
     e60:	00134900 	andseq	r4, r3, r0, lsl #18
     e64:	012e0e00 			; <UNDEFINED> instruction: 0x012e0e00
     e68:	0e03193f 			; <UNDEFINED> instruction: 0x0e03193f
     e6c:	0b3b0b3a 	bleq	ec3b5c <__bss_end__+0xeb9a34>
     e70:	19270b39 	stmdbne	r7!, {r0, r3, r4, r5, r8, r9, fp}
     e74:	06120111 			; <UNDEFINED> instruction: 0x06120111
     e78:	42971840 	addsmi	r1, r7, #64, 16	; 0x400000
     e7c:	00130119 	andseq	r0, r3, r9, lsl r1
     e80:	82890f00 	addhi	r0, r9, #0, 30
     e84:	01110001 	tsteq	r1, r1
     e88:	00001331 	andeq	r1, r0, r1, lsr r3
     e8c:	3f012e10 	svccc	0x00012e10
     e90:	3a0e0319 	bcc	381afc <__bss_end__+0x3779d4>
     e94:	390b3b0b 	stmdbcc	fp, {r0, r1, r3, r8, r9, fp, ip, sp}
     e98:	4919270b 	ldmdbmi	r9, {r0, r1, r3, r8, r9, sl, sp}
     e9c:	12011113 	andne	r1, r1, #-1073741820	; 0xc0000004
     ea0:	97184006 	ldrls	r4, [r8, -r6]
     ea4:	13011942 	movwne	r1, #6466	; 0x1942
     ea8:	89110000 	ldmdbhi	r1, {}	; <UNPREDICTABLE>
     eac:	11010182 	smlabbne	r1, r2, r1, r0
     eb0:	00133101 	andseq	r3, r3, r1, lsl #2
     eb4:	828a1200 	addhi	r1, sl, #0, 4
     eb8:	18020001 	stmdane	r2, {r0}
     ebc:	00184291 	mulseq	r8, r1, r2
     ec0:	00051300 	andeq	r1, r5, r0, lsl #6
     ec4:	0b3a0803 	bleq	e82ed8 <__bss_end__+0xe78db0>
     ec8:	0b390b3b 	bleq	e43bbc <__bss_end__+0xe39a94>
     ecc:	17021349 	strne	r1, [r2, -r9, asr #6]
     ed0:	001742b7 			; <UNDEFINED> instruction: 0x001742b7
     ed4:	82891400 	addhi	r1, r9, #0, 8
     ed8:	01110101 	tsteq	r1, r1, lsl #2
     edc:	13011331 	movwne	r1, #4913	; 0x1331
     ee0:	34150000 	ldrcc	r0, [r5], #-0
     ee4:	3a080300 	bcc	201aec <__bss_end__+0x1f79c4>
     ee8:	390b3b0b 	stmdbcc	fp, {r0, r1, r3, r8, r9, fp, ip, sp}
     eec:	0213490b 	andseq	r4, r3, #180224	; 0x2c000
     ef0:	1742b717 	smlaldne	fp, r2, r7, r7
     ef4:	34160000 	ldrcc	r0, [r6], #-0
     ef8:	3a0e0300 	bcc	381b00 <__bss_end__+0x3779d8>
     efc:	390b3b0b 	stmdbcc	fp, {r0, r1, r3, r8, r9, fp, ip, sp}
     f00:	1c13490b 			; <UNDEFINED> instruction: 0x1c13490b
     f04:	17000005 	strne	r0, [r0, -r5]
     f08:	0e03012e 	adfeqsp	f0, f3, #0.5
     f0c:	0b3b0b3a 	bleq	ec3bfc <__bss_end__+0xeb9ad4>
     f10:	19270b39 	stmdbne	r7!, {r0, r3, r4, r5, r8, r9, fp}
     f14:	06120111 			; <UNDEFINED> instruction: 0x06120111
     f18:	42971840 	addsmi	r1, r7, #64, 16	; 0x400000
     f1c:	00130119 	andseq	r0, r3, r9, lsl r1
     f20:	00051800 	andeq	r1, r5, r0, lsl #16
     f24:	0b3a0e03 	bleq	e84738 <__bss_end__+0xe7a610>
     f28:	0b390b3b 	bleq	e43c1c <__bss_end__+0xe39af4>
     f2c:	17021349 	strne	r1, [r2, -r9, asr #6]
     f30:	001742b7 			; <UNDEFINED> instruction: 0x001742b7
     f34:	00351900 	eorseq	r1, r5, r0, lsl #18
     f38:	2e1a0000 	cdpcs	0, 1, cr0, cr10, cr0, {0}
     f3c:	3c193f00 	ldccc	15, cr3, [r9], {-0}
     f40:	030e6e19 	movweq	r6, #60953	; 0xee19
     f44:	3b0b3a0e 	blcc	2cf784 <__bss_end__+0x2c565c>
     f48:	000b390b 	andeq	r3, fp, fp, lsl #18
     f4c:	11010000 	mrsne	r0, (UNDEF: 1)
     f50:	130e2501 	movwne	r2, #58625	; 0xe501
     f54:	1b0e030b 	blne	381b88 <__bss_end__+0x377a60>
     f58:	1201110e 	andne	r1, r1, #-2147483645	; 0x80000003
     f5c:	00171006 	andseq	r1, r7, r6
     f60:	00240200 	eoreq	r0, r4, r0, lsl #4
     f64:	0b3e0b0b 	bleq	f83b98 <__bss_end__+0xf79a70>
     f68:	00000803 	andeq	r0, r0, r3, lsl #16
     f6c:	0b002403 	bleq	9f80 <buf.3944+0x260>
     f70:	030b3e0b 	movweq	r3, #48651	; 0xbe0b
     f74:	0400000e 	streq	r0, [r0], #-14
     f78:	0e030016 	mcreq	0, 0, r0, cr3, cr6, {0}
     f7c:	0b3b0b3a 	bleq	ec3c6c <__bss_end__+0xeb9b44>
     f80:	13490b39 	movtne	r0, #39737	; 0x9b39
     f84:	26050000 	strcs	r0, [r5], -r0
     f88:	00134900 	andseq	r4, r3, r0, lsl #18
     f8c:	000f0600 	andeq	r0, pc, r0, lsl #12
     f90:	00000b0b 	andeq	r0, r0, fp, lsl #22
     f94:	3e010407 	cdpcc	4, 0, cr0, cr1, cr7, {0}
     f98:	490b0b0b 	stmdbmi	fp, {r0, r1, r3, r8, r9, fp}
     f9c:	3b0b3a13 	blcc	2cf7f0 <__bss_end__+0x2c56c8>
     fa0:	010b390b 	tsteq	fp, fp, lsl #18
     fa4:	08000013 	stmdaeq	r0, {r0, r1, r4}
     fa8:	0e030028 	cdpeq	0, 0, cr0, cr3, cr8, {1}
     fac:	0000061c 	andeq	r0, r0, ip, lsl r6
     fb0:	03003409 	movweq	r3, #1033	; 0x409
     fb4:	3b0b3a0e 	blcc	2cf7f4 <__bss_end__+0x2c56cc>
     fb8:	490b390b 	stmdbmi	fp, {r0, r1, r3, r8, fp, ip, sp}
     fbc:	3c193f13 	ldccc	15, cr3, [r9], {19}
     fc0:	0a000019 	beq	102c <__code_start__-0x6fd4>
     fc4:	0e030034 	mcreq	0, 0, r0, cr3, cr4, {1}
     fc8:	0b3b0b3a 	bleq	ec3cb8 <__bss_end__+0xeb9b90>
     fcc:	13490b39 	movtne	r0, #39737	; 0x9b39
     fd0:	00001802 	andeq	r1, r0, r2, lsl #16
     fd4:	0b000f0b 	bleq	4c08 <__code_start__-0x33f8>
     fd8:	0013490b 	andseq	r4, r3, fp, lsl #18
     fdc:	012e0c00 			; <UNDEFINED> instruction: 0x012e0c00
     fe0:	0e03193f 			; <UNDEFINED> instruction: 0x0e03193f
     fe4:	0b3b0b3a 	bleq	ec3cd4 <__bss_end__+0xeb9bac>
     fe8:	19270b39 	stmdbne	r7!, {r0, r3, r4, r5, r8, r9, fp}
     fec:	06120111 			; <UNDEFINED> instruction: 0x06120111
     ff0:	42971840 	addsmi	r1, r7, #64, 16	; 0x400000
     ff4:	00130119 	andseq	r0, r3, r9, lsl r1
     ff8:	00050d00 	andeq	r0, r5, r0, lsl #26
     ffc:	0b3a0803 	bleq	e83010 <__bss_end__+0xe78ee8>
    1000:	0b390b3b 	bleq	e43cf4 <__bss_end__+0xe39bcc>
    1004:	17021349 	strne	r1, [r2, -r9, asr #6]
    1008:	001742b7 			; <UNDEFINED> instruction: 0x001742b7
    100c:	00340e00 	eorseq	r0, r4, r0, lsl #28
    1010:	13490e03 	movtne	r0, #40451	; 0x9e03
    1014:	18021934 	stmdane	r2, {r2, r4, r5, r8, fp, ip}
    1018:	890f0000 	stmdbhi	pc, {}	; <UNPREDICTABLE>
    101c:	11010182 	smlabbne	r1, r2, r1, r0
    1020:	01133101 	tsteq	r3, r1, lsl #2
    1024:	10000013 	andne	r0, r0, r3, lsl r0
    1028:	0001828a 	andeq	r8, r1, sl, lsl #5
    102c:	42911802 	addsmi	r1, r1, #131072	; 0x20000
    1030:	11000018 	tstne	r0, r8, lsl r0
    1034:	00018289 	andeq	r8, r1, r9, lsl #5
    1038:	13310111 	teqne	r1, #1073741828	; 0x40000004
    103c:	01120000 	tsteq	r2, r0
    1040:	01134901 	tsteq	r3, r1, lsl #18
    1044:	13000013 	movwne	r0, #19
    1048:	13490021 	movtne	r0, #36897	; 0x9021
    104c:	00000b2f 	andeq	r0, r0, pc, lsr #22
    1050:	3f002e14 	svccc	0x00002e14
    1054:	3a0e0319 	bcc	381cc0 <__bss_end__+0x377b98>
    1058:	390b3b0b 	stmdbcc	fp, {r0, r1, r3, r8, r9, fp, ip, sp}
    105c:	1119270b 	tstne	r9, fp, lsl #14
    1060:	40061201 	andmi	r1, r6, r1, lsl #4
    1064:	19429718 	stmdbne	r2, {r3, r4, r8, r9, sl, ip, pc}^
    1068:	05150000 	ldreq	r0, [r5, #-0]
    106c:	3a080300 	bcc	201c74 <__bss_end__+0x1f7b4c>
    1070:	390b3b0b 	stmdbcc	fp, {r0, r1, r3, r8, r9, fp, ip, sp}
    1074:	0213490b 	andseq	r4, r3, #180224	; 0x2c000
    1078:	16000018 			; <UNDEFINED> instruction: 0x16000018
    107c:	193f012e 	ldmdbne	pc!, {r1, r2, r3, r5, r8}	; <UNPREDICTABLE>
    1080:	0b3a0e03 	bleq	e84894 <__bss_end__+0xe7a76c>
    1084:	0b390b3b 	bleq	e43d78 <__bss_end__+0xe39c50>
    1088:	13491927 	movtne	r1, #39207	; 0x9927
    108c:	06120111 			; <UNDEFINED> instruction: 0x06120111
    1090:	42971840 	addsmi	r1, r7, #64, 16	; 0x400000
    1094:	00130119 	andseq	r0, r3, r9, lsl r1
    1098:	00051700 	andeq	r1, r5, r0, lsl #14
    109c:	0b3a0e03 	bleq	e848b0 <__bss_end__+0xe7a788>
    10a0:	0b390b3b 	bleq	e43d94 <__bss_end__+0xe39c6c>
    10a4:	17021349 	strne	r1, [r2, -r9, asr #6]
    10a8:	001742b7 			; <UNDEFINED> instruction: 0x001742b7
    10ac:	00341800 	eorseq	r1, r4, r0, lsl #16
    10b0:	0b3a0803 	bleq	e830c4 <__bss_end__+0xe78f9c>
    10b4:	0b390b3b 	bleq	e43da8 <__bss_end__+0xe39c80>
    10b8:	17021349 	strne	r1, [r2, -r9, asr #6]
    10bc:	001742b7 			; <UNDEFINED> instruction: 0x001742b7
    10c0:	011d1900 	tsteq	sp, r0, lsl #18
    10c4:	01521331 	cmpeq	r2, r1, lsr r3
    10c8:	110b42b8 			; <UNDEFINED> instruction: 0x110b42b8
    10cc:	58061201 	stmdapl	r6, {r0, r9, ip}
    10d0:	570b590b 	strpl	r5, [fp, -fp, lsl #18]
    10d4:	0013010b 	andseq	r0, r3, fp, lsl #2
    10d8:	00051a00 	andeq	r1, r5, r0, lsl #20
    10dc:	17021331 	smladxne	r2, r1, r3, r1
    10e0:	001742b7 			; <UNDEFINED> instruction: 0x001742b7
    10e4:	011d1b00 	tsteq	sp, r0, lsl #22
    10e8:	01521331 	cmpeq	r2, r1, lsr r3
    10ec:	550b42b8 	strpl	r4, [fp, #-696]	; 0xfffffd48
    10f0:	590b5817 	stmdbpl	fp, {r0, r1, r2, r4, fp, ip, lr}
    10f4:	010b570b 	tsteq	fp, fp, lsl #14
    10f8:	1c000013 	stcne	0, cr0, [r0], {19}
    10fc:	1755010b 	ldrbne	r0, [r5, -fp, lsl #2]
    1100:	341d0000 	ldrcc	r0, [sp], #-0
    1104:	3a0e0300 	bcc	381d0c <__bss_end__+0x377be4>
    1108:	390b3b0b 	stmdbcc	fp, {r0, r1, r3, r8, r9, fp, ip, sp}
    110c:	0213490b 	andseq	r4, r3, #180224	; 0x2c000
    1110:	1742b717 	smlaldne	fp, r2, r7, r7
    1114:	0b1e0000 	bleq	78111c <__bss_end__+0x776ff4>
    1118:	00175500 	andseq	r5, r7, r0, lsl #10
    111c:	002e1f00 	eoreq	r1, lr, r0, lsl #30
    1120:	0e03193f 			; <UNDEFINED> instruction: 0x0e03193f
    1124:	0b3b0b3a 	bleq	ec3e14 <__bss_end__+0xeb9cec>
    1128:	19270b39 	stmdbne	r7!, {r0, r3, r4, r5, r8, r9, fp}
    112c:	01111349 	tsteq	r1, r9, asr #6
    1130:	18400612 	stmdane	r0, {r1, r4, r9, sl}^
    1134:	00194297 	mulseq	r9, r7, r2
    1138:	012e2000 			; <UNDEFINED> instruction: 0x012e2000
    113c:	0b3a0e03 	bleq	e84950 <__bss_end__+0xe7a828>
    1140:	0b390b3b 	bleq	e43e34 <__bss_end__+0xe39d0c>
    1144:	13491927 	movtne	r1, #39207	; 0x9927
    1148:	13010b20 	movwne	r0, #6944	; 0x1b20
    114c:	05210000 	streq	r0, [r1, #-0]!
    1150:	3a080300 	bcc	201d58 <__bss_end__+0x1f7c30>
    1154:	390b3b0b 	stmdbcc	fp, {r0, r1, r3, r8, r9, fp, ip, sp}
    1158:	0013490b 	andseq	r4, r3, fp, lsl #18
    115c:	002e2200 	eoreq	r2, lr, r0, lsl #4
    1160:	193c193f 	ldmdbne	ip!, {r0, r1, r2, r3, r4, r5, r8, fp, ip}
    1164:	0e030e6e 	cdpeq	14, 0, cr0, cr3, cr14, {3}
    1168:	0b3b0b3a 	bleq	ec3e58 <__bss_end__+0xeb9d30>
    116c:	00000b39 	andeq	r0, r0, r9, lsr fp
    1170:	01110100 	tsteq	r1, r0, lsl #2
    1174:	0b130e25 	bleq	4c4a10 <__bss_end__+0x4ba8e8>
    1178:	0e1b0e03 	cdpeq	14, 1, cr0, cr11, cr3, {0}
    117c:	06120111 			; <UNDEFINED> instruction: 0x06120111
    1180:	00001710 	andeq	r1, r0, r0, lsl r7
    1184:	0b002402 	bleq	a194 <__bss_end__+0x6c>
    1188:	030b3e0b 	movweq	r3, #48651	; 0xbe0b
    118c:	0300000e 	movweq	r0, #14
    1190:	0b0b0024 	bleq	2c1228 <__bss_end__+0x2b7100>
    1194:	08030b3e 	stmdaeq	r3, {r1, r2, r3, r4, r5, r8, r9, fp}
    1198:	26040000 	strcs	r0, [r4], -r0
    119c:	00134900 	andseq	r4, r3, r0, lsl #18
    11a0:	00160500 	andseq	r0, r6, r0, lsl #10
    11a4:	0b3a0e03 	bleq	e849b8 <__bss_end__+0xe7a890>
    11a8:	0b390b3b 	bleq	e43e9c <__bss_end__+0xe39d74>
    11ac:	00001349 	andeq	r1, r0, r9, asr #6
    11b0:	27011506 	strcs	r1, [r1, -r6, lsl #10]
    11b4:	01134919 	tsteq	r3, r9, lsl r9
    11b8:	07000013 	smladeq	r0, r3, r0, r0
    11bc:	13490005 	movtne	r0, #36869	; 0x9005
    11c0:	34080000 	strcc	r0, [r8], #-0
    11c4:	3a0e0300 	bcc	381dcc <__bss_end__+0x377ca4>
    11c8:	390b3b0b 	stmdbcc	fp, {r0, r1, r3, r8, r9, fp, ip, sp}
    11cc:	3f13490b 	svccc	0x0013490b
    11d0:	00193c19 	andseq	r3, r9, r9, lsl ip
    11d4:	000f0900 	andeq	r0, pc, r0, lsl #18
    11d8:	13490b0b 	movtne	r0, #39691	; 0x9b0b
    11dc:	040a0000 	streq	r0, [sl], #-0
    11e0:	0b0b3e01 	bleq	2d09ec <__bss_end__+0x2c68c4>
    11e4:	3a13490b 	bcc	4d3618 <__bss_end__+0x4c94f0>
    11e8:	390b3b0b 	stmdbcc	fp, {r0, r1, r3, r8, r9, fp, ip, sp}
    11ec:	0013010b 	andseq	r0, r3, fp, lsl #2
    11f0:	00280b00 	eoreq	r0, r8, r0, lsl #22
    11f4:	0b1c0e03 	bleq	704a08 <__bss_end__+0x6fa8e0>
    11f8:	340c0000 	strcc	r0, [ip], #-0
    11fc:	3a0e0300 	bcc	381e04 <__bss_end__+0x377cdc>
    1200:	390b3b0b 	stmdbcc	fp, {r0, r1, r3, r8, r9, fp, ip, sp}
    1204:	1c13490b 			; <UNDEFINED> instruction: 0x1c13490b
    1208:	0d000006 	stceq	0, cr0, [r0, #-24]	; 0xffffffe8
    120c:	193f012e 	ldmdbne	pc!, {r1, r2, r3, r5, r8}	; <UNPREDICTABLE>
    1210:	0b3a0e03 	bleq	e84a24 <__bss_end__+0xe7a8fc>
    1214:	0b390b3b 	bleq	e43f08 <__bss_end__+0xe39de0>
    1218:	13491927 	movtne	r1, #39207	; 0x9927
    121c:	06120111 			; <UNDEFINED> instruction: 0x06120111
    1220:	42971840 	addsmi	r1, r7, #64, 16	; 0x400000
    1224:	00130119 	andseq	r0, r3, r9, lsl r1
    1228:	00050e00 	andeq	r0, r5, r0, lsl #28
    122c:	0b3a0803 	bleq	e83240 <__bss_end__+0xe79118>
    1230:	0b390b3b 	bleq	e43f24 <__bss_end__+0xe39dfc>
    1234:	17021349 	strne	r1, [r2, -r9, asr #6]
    1238:	001742b7 			; <UNDEFINED> instruction: 0x001742b7
    123c:	00340f00 	eorseq	r0, r4, r0, lsl #30
    1240:	0b3a0e03 	bleq	e84a54 <__bss_end__+0xe7a92c>
    1244:	0b390b3b 	bleq	e43f38 <__bss_end__+0xe39e10>
    1248:	17021349 	strne	r1, [r2, -r9, asr #6]
    124c:	001742b7 			; <UNDEFINED> instruction: 0x001742b7
    1250:	00341000 	eorseq	r1, r4, r0
    1254:	0b3a0803 	bleq	e83268 <__bss_end__+0xe79140>
    1258:	0b390b3b 	bleq	e43f4c <__bss_end__+0xe39e24>
    125c:	17021349 	strne	r1, [r2, -r9, asr #6]
    1260:	001742b7 			; <UNDEFINED> instruction: 0x001742b7
    1264:	82891100 	addhi	r1, r9, #0
    1268:	01110101 	tsteq	r1, r1, lsl #2
    126c:	00001331 	andeq	r1, r0, r1, lsr r3
    1270:	01828a12 	orreq	r8, r2, r2, lsl sl
    1274:	91180200 	tstls	r8, r0, lsl #4
    1278:	00001842 	andeq	r1, r0, r2, asr #16
    127c:	3f012e13 	svccc	0x00012e13
    1280:	3a0e0319 	bcc	381eec <__bss_end__+0x377dc4>
    1284:	390b3b0b 	stmdbcc	fp, {r0, r1, r3, r8, r9, fp, ip, sp}
    1288:	1119270b 	tstne	r9, fp, lsl #14
    128c:	40061201 	andmi	r1, r6, r1, lsl #4
    1290:	19429718 	stmdbne	r2, {r3, r4, r8, r9, sl, ip, pc}^
    1294:	00001301 	andeq	r1, r0, r1, lsl #6
    1298:	31011d14 	tstcc	r1, r4, lsl sp
    129c:	b8015213 	stmdalt	r1, {r0, r1, r4, r9, ip, lr}
    12a0:	17550b42 	ldrbne	r0, [r5, -r2, asr #22]
    12a4:	0b590b58 	bleq	164400c <__bss_end__+0x1639ee4>
    12a8:	13010b57 	movwne	r0, #6999	; 0x1b57
    12ac:	05150000 	ldreq	r0, [r5, #-0]
    12b0:	02133100 	andseq	r3, r3, #0
    12b4:	1742b717 	smlaldne	fp, r2, r7, r7
    12b8:	89160000 	ldmdbhi	r6, {}	; <UNPREDICTABLE>
    12bc:	11010182 	smlabbne	r1, r2, r1, r0
    12c0:	19429501 	stmdbne	r2, {r0, r8, sl, ip, pc}^
    12c4:	00001331 	andeq	r1, r0, r1, lsr r3
    12c8:	31011d17 	tstcc	r1, r7, lsl sp
    12cc:	b8015213 	stmdalt	r1, {r0, r1, r4, r9, ip, lr}
    12d0:	01110b42 	tsteq	r1, r2, asr #22
    12d4:	0b580612 	bleq	1602b24 <__bss_end__+0x15f89fc>
    12d8:	0b570b59 	bleq	15c4044 <__bss_end__+0x15b9f1c>
    12dc:	1d180000 	ldcne	0, cr0, [r8, #-0]
    12e0:	52133101 	andspl	r3, r3, #1073741824	; 0x40000000
    12e4:	0b42b801 	bleq	10af2f0 <__bss_end__+0x10a51c8>
    12e8:	0b581755 	bleq	1607044 <__bss_end__+0x15fcf1c>
    12ec:	0b570b59 	bleq	15c4058 <__bss_end__+0x15b9f30>
    12f0:	05190000 	ldreq	r0, [r9, #-0]
    12f4:	1c133100 	ldfnes	f3, [r3], {-0}
    12f8:	1a00000b 	bne	132c <__code_start__-0x6cd4>
    12fc:	1755010b 	ldrbne	r0, [r5, -fp, lsl #2]
    1300:	341b0000 	ldrcc	r0, [fp], #-0
    1304:	00133100 	andseq	r3, r3, r0, lsl #2
    1308:	00341c00 	eorseq	r1, r4, r0, lsl #24
    130c:	17021331 	smladxne	r2, r1, r3, r1
    1310:	001742b7 			; <UNDEFINED> instruction: 0x001742b7
    1314:	82891d00 	addhi	r1, r9, #0, 26
    1318:	01110101 	tsteq	r1, r1, lsl #2
    131c:	13011331 	movwne	r1, #4913	; 0x1331
    1320:	2e1e0000 	cdpcs	0, 1, cr0, cr14, cr0, {0}
    1324:	03193f01 	tsteq	r9, #1, 30
    1328:	3b0b3a0e 	blcc	2cfb68 <__bss_end__+0x2c5a40>
    132c:	270b390b 	strcs	r3, [fp, -fp, lsl #18]
    1330:	010b2019 	tsteq	fp, r9, lsl r0
    1334:	1f000013 	svcne	0x00000013
    1338:	08030005 	stmdaeq	r3, {r0, r2}
    133c:	0b3b0b3a 	bleq	ec402c <__bss_end__+0xeb9f04>
    1340:	13490b39 	movtne	r0, #39737	; 0x9b39
    1344:	05200000 	streq	r0, [r0, #-0]!
    1348:	3a0e0300 	bcc	381f50 <__bss_end__+0x377e28>
    134c:	390b3b0b 	stmdbcc	fp, {r0, r1, r3, r8, r9, fp, ip, sp}
    1350:	0013490b 	andseq	r4, r3, fp, lsl #18
    1354:	00342100 	eorseq	r2, r4, r0, lsl #2
    1358:	0b3a0803 	bleq	e8336c <__bss_end__+0xe79244>
    135c:	0b390b3b 	bleq	e44050 <__bss_end__+0xe39f28>
    1360:	00001349 	andeq	r1, r0, r9, asr #6
    1364:	03012e22 	movweq	r2, #7714	; 0x1e22
    1368:	3b0b3a0e 	blcc	2cfba8 <__bss_end__+0x2c5a80>
    136c:	270b390b 	strcs	r3, [fp, -fp, lsl #18]
    1370:	20134919 	andscs	r4, r3, r9, lsl r9
    1374:	0013010b 	andseq	r0, r3, fp, lsl #2
    1378:	012e2300 			; <UNDEFINED> instruction: 0x012e2300
    137c:	01111331 	tsteq	r1, r1, lsr r3
    1380:	18400612 	stmdane	r0, {r1, r4, r9, sl}^
    1384:	01194297 			; <UNDEFINED> instruction: 0x01194297
    1388:	24000013 	strcs	r0, [r0], #-19	; 0xffffffed
    138c:	193f002e 	ldmdbne	pc!, {r1, r2, r3, r5}	; <UNPREDICTABLE>
    1390:	0e6e193c 			; <UNDEFINED> instruction: 0x0e6e193c
    1394:	0b3a0e03 	bleq	e84ba8 <__bss_end__+0xe7aa80>
    1398:	0b390b3b 	bleq	e4408c <__bss_end__+0xe39f64>
    139c:	01000000 	mrseq	r0, (UNDEF: 0)
    13a0:	0e250111 	mcreq	1, 1, r0, cr5, cr1, {0}
    13a4:	0e030b13 	vmoveq.32	d3[0], r0
    13a8:	01110e1b 	tsteq	r1, fp, lsl lr
    13ac:	17100612 			; <UNDEFINED> instruction: 0x17100612
    13b0:	24020000 	strcs	r0, [r2], #-0
    13b4:	3e0b0b00 	vmlacc.f64	d0, d11, d0
    13b8:	0008030b 	andeq	r0, r8, fp, lsl #6
    13bc:	00160300 	andseq	r0, r6, r0, lsl #6
    13c0:	0b3a0e03 	bleq	e84bd4 <__bss_end__+0xe7aaac>
    13c4:	0b390b3b 	bleq	e440b8 <__bss_end__+0xe39f90>
    13c8:	00001349 	andeq	r1, r0, r9, asr #6
    13cc:	0b002404 	bleq	a3e4 <__bss_end__+0x2bc>
    13d0:	030b3e0b 	movweq	r3, #48651	; 0xbe0b
    13d4:	0500000e 	streq	r0, [r0, #-14]
    13d8:	19270115 	stmdbne	r7!, {r0, r2, r4, r8}
    13dc:	13011349 	movwne	r1, #4937	; 0x1349
    13e0:	05060000 	streq	r0, [r6, #-0]
    13e4:	00134900 	andseq	r4, r3, r0, lsl #18
    13e8:	00340700 	eorseq	r0, r4, r0, lsl #14
    13ec:	0b3a0e03 	bleq	e84c00 <__bss_end__+0xe7aad8>
    13f0:	0b390b3b 	bleq	e440e4 <__bss_end__+0xe39fbc>
    13f4:	193f1349 	ldmdbne	pc!, {r0, r3, r6, r8, r9, ip}	; <UNPREDICTABLE>
    13f8:	0000193c 	andeq	r1, r0, ip, lsr r9
    13fc:	0b000f08 	bleq	5024 <__code_start__-0x2fdc>
    1400:	0013490b 	andseq	r4, r3, fp, lsl #18
    1404:	00260900 	eoreq	r0, r6, r0, lsl #18
    1408:	00001349 	andeq	r1, r0, r9, asr #6
    140c:	3f012e0a 	svccc	0x00012e0a
    1410:	3a0e0319 	bcc	38207c <__bss_end__+0x377f54>
    1414:	390b3b0b 	stmdbcc	fp, {r0, r1, r3, r8, r9, fp, ip, sp}
    1418:	4919270b 	ldmdbmi	r9, {r0, r1, r3, r8, r9, sl, sp}
    141c:	12011113 	andne	r1, r1, #-1073741820	; 0xc0000004
    1420:	97184006 	ldrls	r4, [r8, -r6]
    1424:	13011942 	movwne	r1, #6466	; 0x1942
    1428:	050b0000 	streq	r0, [fp, #-0]
    142c:	3a080300 	bcc	202034 <__bss_end__+0x1f7f0c>
    1430:	390b3b0b 	stmdbcc	fp, {r0, r1, r3, r8, r9, fp, ip, sp}
    1434:	0213490b 	andseq	r4, r3, #180224	; 0x2c000
    1438:	0c000018 	stceq	0, cr0, [r0], {24}
    143c:	08030005 	stmdaeq	r3, {r0, r2}
    1440:	0b3b0b3a 	bleq	ec4130 <__bss_end__+0xeba008>
    1444:	13490b39 	movtne	r0, #39737	; 0x9b39
    1448:	42b71702 	adcsmi	r1, r7, #524288	; 0x80000
    144c:	0d000017 	stceq	0, cr0, [r0, #-92]	; 0xffffffa4
    1450:	08030034 	stmdaeq	r3, {r2, r4, r5}
    1454:	0b3b0b3a 	bleq	ec4144 <__bss_end__+0xeba01c>
    1458:	13490b39 	movtne	r0, #39737	; 0x9b39
    145c:	42b71702 	adcsmi	r1, r7, #524288	; 0x80000
    1460:	0e000017 	mcreq	0, 0, r0, cr0, cr7, {0}
    1464:	0b0b000f 	bleq	2c14a8 <__bss_end__+0x2b7380>
    1468:	01000000 	mrseq	r0, (UNDEF: 0)
    146c:	0e250111 	mcreq	1, 1, r0, cr5, cr1, {0}
    1470:	0e030b13 	vmoveq.32	d3[0], r0
    1474:	01110e1b 	tsteq	r1, fp, lsl lr
    1478:	17100612 			; <UNDEFINED> instruction: 0x17100612
    147c:	24020000 	strcs	r0, [r2], #-0
    1480:	3e0b0b00 	vmlacc.f64	d0, d11, d0
    1484:	0008030b 	andeq	r0, r8, fp, lsl #6
    1488:	00240300 	eoreq	r0, r4, r0, lsl #6
    148c:	0b3e0b0b 	bleq	f840c0 <__bss_end__+0xf79f98>
    1490:	00000e03 	andeq	r0, r0, r3, lsl #28
    1494:	27011504 	strcs	r1, [r1, -r4, lsl #10]
    1498:	01134919 	tsteq	r3, r9, lsl r9
    149c:	05000013 	streq	r0, [r0, #-19]	; 0xffffffed
    14a0:	13490005 	movtne	r0, #36869	; 0x9005
    14a4:	34060000 	strcc	r0, [r6], #-0
    14a8:	3a0e0300 	bcc	3820b0 <__bss_end__+0x377f88>
    14ac:	390b3b0b 	stmdbcc	fp, {r0, r1, r3, r8, r9, fp, ip, sp}
    14b0:	3f13490b 	svccc	0x0013490b
    14b4:	00193c19 	andseq	r3, r9, r9, lsl ip
    14b8:	000f0700 	andeq	r0, pc, r0, lsl #14
    14bc:	13490b0b 	movtne	r0, #39691	; 0x9b0b
    14c0:	26080000 	strcs	r0, [r8], -r0
    14c4:	00134900 	andseq	r4, r3, r0, lsl #18
    14c8:	00340900 	eorseq	r0, r4, r0, lsl #18
    14cc:	0b3a1347 	bleq	e861f0 <__bss_end__+0xe7c0c8>
    14d0:	0b390b3b 	bleq	e441c4 <__bss_end__+0xe3a09c>
    14d4:	00001802 	andeq	r1, r0, r2, lsl #16
    14d8:	3f012e0a 	svccc	0x00012e0a
    14dc:	3a0e0319 	bcc	382148 <__bss_end__+0x378020>
    14e0:	390b3b0b 	stmdbcc	fp, {r0, r1, r3, r8, r9, fp, ip, sp}
    14e4:	1119270b 	tstne	r9, fp, lsl #14
    14e8:	40061201 	andmi	r1, r6, r1, lsl #4
    14ec:	19429718 	stmdbne	r2, {r3, r4, r8, r9, sl, ip, pc}^
    14f0:	00001301 	andeq	r1, r0, r1, lsl #6
    14f4:	0300050b 	movweq	r0, #1291	; 0x50b
    14f8:	3b0b3a08 	blcc	2cfd20 <__bss_end__+0x2c5bf8>
    14fc:	490b390b 	stmdbmi	fp, {r0, r1, r3, r8, fp, ip, sp}
    1500:	00180213 	andseq	r0, r8, r3, lsl r2
    1504:	002e0c00 	eoreq	r0, lr, r0, lsl #24
    1508:	0e03193f 			; <UNDEFINED> instruction: 0x0e03193f
    150c:	0b3b0b3a 	bleq	ec41fc <__bss_end__+0xeba0d4>
    1510:	19270b39 	stmdbne	r7!, {r0, r3, r4, r5, r8, r9, fp}
    1514:	06120111 			; <UNDEFINED> instruction: 0x06120111
    1518:	42971840 	addsmi	r1, r7, #64, 16	; 0x400000
    151c:	0d000019 	stceq	0, cr0, [r0, #-100]	; 0xffffff9c
    1520:	0e03012e 	adfeqsp	f0, f3, #0.5
    1524:	0b3b0b3a 	bleq	ec4214 <__bss_end__+0xeba0ec>
    1528:	19270b39 	stmdbne	r7!, {r0, r3, r4, r5, r8, r9, fp}
    152c:	01111349 	tsteq	r1, r9, asr #6
    1530:	18400612 	stmdane	r0, {r1, r4, r9, sl}^
    1534:	01194297 			; <UNDEFINED> instruction: 0x01194297
    1538:	0e000013 	mcreq	0, 0, r0, cr0, cr3, {0}
    153c:	08030005 	stmdaeq	r3, {r0, r2}
    1540:	0b3b0b3a 	bleq	ec4230 <__bss_end__+0xeba108>
    1544:	13490b39 	movtne	r0, #39737	; 0x9b39
    1548:	42b71702 	adcsmi	r1, r7, #524288	; 0x80000
    154c:	0f000017 	svceq	0x00000017
    1550:	01018289 	smlabbeq	r1, r9, r2, r8
    1554:	13310111 	teqne	r1, #1073741828	; 0x40000004
    1558:	8a100000 	bhi	401560 <__bss_end__+0x3f7438>
    155c:	02000182 	andeq	r0, r0, #-2147483616	; 0x80000020
    1560:	18429118 	stmdane	r2, {r3, r4, r8, ip, pc}^
    1564:	2e110000 	cdpcs	0, 1, cr0, cr1, cr0, {0}
    1568:	3c193f00 	ldccc	15, cr3, [r9], {-0}
    156c:	030e6e19 	movweq	r6, #60953	; 0xee19
    1570:	3b0b3a0e 	blcc	2cfdb0 <__bss_end__+0x2c5c88>
    1574:	000b390b 	andeq	r3, fp, fp, lsl #18
    1578:	11010000 	mrsne	r0, (UNDEF: 1)
    157c:	130e2501 	movwne	r2, #58625	; 0xe501
    1580:	1b0e030b 	blne	3821b4 <__bss_end__+0x37808c>
    1584:	1201110e 	andne	r1, r1, #-2147483645	; 0x80000003
    1588:	00171006 	andseq	r1, r7, r6
    158c:	00240200 	eoreq	r0, r4, r0, lsl #4
    1590:	0b3e0b0b 	bleq	f841c4 <__bss_end__+0xf7a09c>
    1594:	00000803 	andeq	r0, r0, r3, lsl #16
    1598:	0b002403 	bleq	a5ac <__bss_end__+0x484>
    159c:	030b3e0b 	movweq	r3, #48651	; 0xbe0b
    15a0:	0400000e 	streq	r0, [r0], #-14
    15a4:	19270115 	stmdbne	r7!, {r0, r2, r4, r8}
    15a8:	13011349 	movwne	r1, #4937	; 0x1349
    15ac:	05050000 	streq	r0, [r5, #-0]
    15b0:	00134900 	andseq	r4, r3, r0, lsl #18
    15b4:	00340600 	eorseq	r0, r4, r0, lsl #12
    15b8:	0b3a0e03 	bleq	e84dcc <__bss_end__+0xe7aca4>
    15bc:	0b390b3b 	bleq	e442b0 <__bss_end__+0xe3a188>
    15c0:	193f1349 	ldmdbne	pc!, {r0, r3, r6, r8, r9, ip}	; <UNPREDICTABLE>
    15c4:	0000193c 	andeq	r1, r0, ip, lsr r9
    15c8:	0b000f07 	bleq	51ec <__code_start__-0x2e14>
    15cc:	0013490b 	andseq	r4, r3, fp, lsl #18
    15d0:	00260800 	eoreq	r0, r6, r0, lsl #16
    15d4:	00001349 	andeq	r1, r0, r9, asr #6
    15d8:	3f012e09 	svccc	0x00012e09
    15dc:	3a0e0319 	bcc	382248 <__bss_end__+0x378120>
    15e0:	390b3b0b 	stmdbcc	fp, {r0, r1, r3, r8, r9, fp, ip, sp}
    15e4:	4919270b 	ldmdbmi	r9, {r0, r1, r3, r8, r9, sl, sp}
    15e8:	12011113 	andne	r1, r1, #-1073741820	; 0xc0000004
    15ec:	97184006 	ldrls	r4, [r8, -r6]
    15f0:	13011942 	movwne	r1, #6466	; 0x1942
    15f4:	050a0000 	streq	r0, [sl, #-0]
    15f8:	3a0e0300 	bcc	382200 <__bss_end__+0x3780d8>
    15fc:	390b3b0b 	stmdbcc	fp, {r0, r1, r3, r8, r9, fp, ip, sp}
    1600:	0213490b 	andseq	r4, r3, #180224	; 0x2c000
    1604:	0b000018 	bleq	166c <__code_start__-0x6994>
    1608:	08030005 	stmdaeq	r3, {r0, r2}
    160c:	0b3b0b3a 	bleq	ec42fc <__bss_end__+0xeba1d4>
    1610:	13490b39 	movtne	r0, #39737	; 0x9b39
    1614:	42b71702 	adcsmi	r1, r7, #524288	; 0x80000
    1618:	0c000017 	stceq	0, cr0, [r0], {23}
    161c:	08030034 	stmdaeq	r3, {r2, r4, r5}
    1620:	0b3b0b3a 	bleq	ec4310 <__bss_end__+0xeba1e8>
    1624:	13490b39 	movtne	r0, #39737	; 0x9b39
    1628:	42b71702 	adcsmi	r1, r7, #524288	; 0x80000
    162c:	00000017 	andeq	r0, r0, r7, lsl r0
    1630:	25011101 	strcs	r1, [r1, #-257]	; 0xfffffeff
    1634:	030b130e 	movweq	r1, #45838	; 0xb30e
    1638:	110e1b0e 	tstne	lr, lr, lsl #22
    163c:	10061201 	andne	r1, r6, r1, lsl #4
    1640:	02000017 	andeq	r0, r0, #23, 0
    1644:	0b0b0024 	bleq	2c16dc <__bss_end__+0x2b75b4>
    1648:	08030b3e 	stmdaeq	r3, {r1, r2, r3, r4, r5, r8, r9, fp}
    164c:	24030000 	strcs	r0, [r3], #-0
    1650:	3e0b0b00 	vmlacc.f64	d0, d11, d0
    1654:	000e030b 	andeq	r0, lr, fp, lsl #6
    1658:	01150400 	tsteq	r5, r0, lsl #8
    165c:	13491927 	movtne	r1, #39207	; 0x9927
    1660:	00001301 	andeq	r1, r0, r1, lsl #6
    1664:	49000505 	stmdbmi	r0, {r0, r2, r8, sl}
    1668:	06000013 			; <UNDEFINED> instruction: 0x06000013
    166c:	0e030034 	mcreq	0, 0, r0, cr3, cr4, {1}
    1670:	0b3b0b3a 	bleq	ec4360 <__bss_end__+0xeba238>
    1674:	13490b39 	movtne	r0, #39737	; 0x9b39
    1678:	193c193f 	ldmdbne	ip!, {r0, r1, r2, r3, r4, r5, r8, fp, ip}
    167c:	0f070000 	svceq	0x00070000
    1680:	490b0b00 	stmdbmi	fp, {r8, r9, fp}
    1684:	08000013 	stmdaeq	r0, {r0, r1, r4}
    1688:	13490026 	movtne	r0, #36902	; 0x9026
    168c:	2e090000 	cdpcs	0, 0, cr0, cr9, cr0, {0}
    1690:	03193f01 	tsteq	r9, #1, 30
    1694:	3b0b3a0e 	blcc	2cfed4 <__bss_end__+0x2c5dac>
    1698:	270b390b 	strcs	r3, [fp, -fp, lsl #18]
    169c:	11134919 	tstne	r3, r9, lsl r9
    16a0:	40061201 	andmi	r1, r6, r1, lsl #4
    16a4:	19429718 	stmdbne	r2, {r3, r4, r8, r9, sl, ip, pc}^
    16a8:	050a0000 	streq	r0, [sl, #-0]
    16ac:	3a080300 	bcc	2022b4 <__bss_end__+0x1f818c>
    16b0:	390b3b0b 	stmdbcc	fp, {r0, r1, r3, r8, r9, fp, ip, sp}
    16b4:	0213490b 	andseq	r4, r3, #180224	; 0x2c000
    16b8:	1742b717 	smlaldne	fp, r2, r7, r7
    16bc:	01000000 	mrseq	r0, (UNDEF: 0)
    16c0:	0e250111 	mcreq	1, 1, r0, cr5, cr1, {0}
    16c4:	0e030b13 	vmoveq.32	d3[0], r0
    16c8:	01110e1b 	tsteq	r1, fp, lsl lr
    16cc:	17100612 			; <UNDEFINED> instruction: 0x17100612
    16d0:	24020000 	strcs	r0, [r2], #-0
    16d4:	3e0b0b00 	vmlacc.f64	d0, d11, d0
    16d8:	0008030b 	andeq	r0, r8, fp, lsl #6
    16dc:	00240300 	eoreq	r0, r4, r0, lsl #6
    16e0:	0b3e0b0b 	bleq	f84314 <__bss_end__+0xf7a1ec>
    16e4:	00000e03 	andeq	r0, r0, r3, lsl #28
    16e8:	27011504 	strcs	r1, [r1, -r4, lsl #10]
    16ec:	01134919 	tsteq	r3, r9, lsl r9
    16f0:	05000013 	streq	r0, [r0, #-19]	; 0xffffffed
    16f4:	13490005 	movtne	r0, #36869	; 0x9005
    16f8:	34060000 	strcc	r0, [r6], #-0
    16fc:	3a0e0300 	bcc	382304 <__bss_end__+0x3781dc>
    1700:	390b3b0b 	stmdbcc	fp, {r0, r1, r3, r8, r9, fp, ip, sp}
    1704:	3f13490b 	svccc	0x0013490b
    1708:	00193c19 	andseq	r3, r9, r9, lsl ip
    170c:	000f0700 	andeq	r0, pc, r0, lsl #14
    1710:	13490b0b 	movtne	r0, #39691	; 0x9b0b
    1714:	26080000 	strcs	r0, [r8], -r0
    1718:	00134900 	andseq	r4, r3, r0, lsl #18
    171c:	012e0900 			; <UNDEFINED> instruction: 0x012e0900
    1720:	0e03193f 			; <UNDEFINED> instruction: 0x0e03193f
    1724:	0b3b0b3a 	bleq	ec4414 <__bss_end__+0xeba2ec>
    1728:	19270b39 	stmdbne	r7!, {r0, r3, r4, r5, r8, r9, fp}
    172c:	01111349 	tsteq	r1, r9, asr #6
    1730:	18400612 	stmdane	r0, {r1, r4, r9, sl}^
    1734:	01194297 			; <UNDEFINED> instruction: 0x01194297
    1738:	0a000013 	beq	178c <__code_start__-0x6874>
    173c:	08030005 	stmdaeq	r3, {r0, r2}
    1740:	0b3b0b3a 	bleq	ec4430 <__bss_end__+0xeba308>
    1744:	13490b39 	movtne	r0, #39737	; 0x9b39
    1748:	00001802 	andeq	r1, r0, r2, lsl #16
    174c:	0300050b 	movweq	r0, #1291	; 0x50b
    1750:	3b0b3a08 	blcc	2cff78 <__bss_end__+0x2c5e50>
    1754:	490b390b 	stmdbmi	fp, {r0, r1, r3, r8, fp, ip, sp}
    1758:	b7170213 			; <UNDEFINED> instruction: 0xb7170213
    175c:	00001742 	andeq	r1, r0, r2, asr #14
    1760:	0300340c 	movweq	r3, #1036	; 0x40c
    1764:	3b0b3a08 	blcc	2cff8c <__bss_end__+0x2c5e64>
    1768:	490b390b 	stmdbmi	fp, {r0, r1, r3, r8, fp, ip, sp}
    176c:	b7170213 			; <UNDEFINED> instruction: 0xb7170213
    1770:	00001742 	andeq	r1, r0, r2, asr #14
    1774:	01110100 	tsteq	r1, r0, lsl #2
    1778:	0b130e25 	bleq	4c5014 <__bss_end__+0x4baeec>
    177c:	0e1b0e03 	cdpeq	14, 1, cr0, cr11, cr3, {0}
    1780:	06120111 			; <UNDEFINED> instruction: 0x06120111
    1784:	00001710 	andeq	r1, r0, r0, lsl r7
    1788:	0b002402 	bleq	a798 <__bss_end__+0x670>
    178c:	030b3e0b 	movweq	r3, #48651	; 0xbe0b
    1790:	03000008 	movweq	r0, #8
    1794:	0e030016 	mcreq	0, 0, r0, cr3, cr6, {0}
    1798:	0b3b0b3a 	bleq	ec4488 <__bss_end__+0xeba360>
    179c:	13490b39 	movtne	r0, #39737	; 0x9b39
    17a0:	24040000 	strcs	r0, [r4], #-0
    17a4:	3e0b0b00 	vmlacc.f64	d0, d11, d0
    17a8:	000e030b 	andeq	r0, lr, fp, lsl #6
    17ac:	00260500 	eoreq	r0, r6, r0, lsl #10
    17b0:	00001349 	andeq	r1, r0, r9, asr #6
    17b4:	27011506 	strcs	r1, [r1, -r6, lsl #10]
    17b8:	01134919 	tsteq	r3, r9, lsl r9
    17bc:	07000013 	smladeq	r0, r3, r0, r0
    17c0:	13490005 	movtne	r0, #36869	; 0x9005
    17c4:	34080000 	strcc	r0, [r8], #-0
    17c8:	3a0e0300 	bcc	3823d0 <__bss_end__+0x3782a8>
    17cc:	390b3b0b 	stmdbcc	fp, {r0, r1, r3, r8, r9, fp, ip, sp}
    17d0:	3f13490b 	svccc	0x0013490b
    17d4:	00193c19 	andseq	r3, r9, r9, lsl ip
    17d8:	000f0900 	andeq	r0, pc, r0, lsl #18
    17dc:	13490b0b 	movtne	r0, #39691	; 0x9b0b
    17e0:	2e0a0000 	cdpcs	0, 0, cr0, cr10, cr0, {0}
    17e4:	03193f01 	tsteq	r9, #1, 30
    17e8:	3b0b3a0e 	blcc	2d0028 <__bss_end__+0x2c5f00>
    17ec:	270b390b 	strcs	r3, [fp, -fp, lsl #18]
    17f0:	11134919 	tstne	r3, r9, lsl r9
    17f4:	40061201 	andmi	r1, r6, r1, lsl #4
    17f8:	19429718 	stmdbne	r2, {r3, r4, r8, r9, sl, ip, pc}^
    17fc:	00001301 	andeq	r1, r0, r1, lsl #6
    1800:	0300050b 	movweq	r0, #1291	; 0x50b
    1804:	3b0b3a08 	blcc	2d002c <__bss_end__+0x2c5f04>
    1808:	490b390b 	stmdbmi	fp, {r0, r1, r3, r8, fp, ip, sp}
    180c:	b7170213 			; <UNDEFINED> instruction: 0xb7170213
    1810:	00001742 	andeq	r1, r0, r2, asr #14
    1814:	0300340c 	movweq	r3, #1036	; 0x40c
    1818:	3b0b3a08 	blcc	2d0040 <__bss_end__+0x2c5f18>
    181c:	490b390b 	stmdbmi	fp, {r0, r1, r3, r8, fp, ip, sp}
    1820:	b7170213 			; <UNDEFINED> instruction: 0xb7170213
    1824:	00001742 	andeq	r1, r0, r2, asr #14
    1828:	01110100 	tsteq	r1, r0, lsl #2
    182c:	0b130e25 	bleq	4c50c8 <__bss_end__+0x4bafa0>
    1830:	0e1b0e03 	cdpeq	14, 1, cr0, cr11, cr3, {0}
    1834:	06120111 			; <UNDEFINED> instruction: 0x06120111
    1838:	00001710 	andeq	r1, r0, r0, lsl r7
    183c:	0b002402 	bleq	a84c <__bss_end__+0x724>
    1840:	030b3e0b 	movweq	r3, #48651	; 0xbe0b
    1844:	03000008 	movweq	r0, #8
    1848:	0b0b0024 	bleq	2c18e0 <__bss_end__+0x2b77b8>
    184c:	0e030b3e 	vmoveq.16	d3[0], r0
    1850:	15040000 	strne	r0, [r4, #-0]
    1854:	49192701 	ldmdbmi	r9, {r0, r8, r9, sl, sp}
    1858:	00130113 	andseq	r0, r3, r3, lsl r1
    185c:	00050500 	andeq	r0, r5, r0, lsl #10
    1860:	00001349 	andeq	r1, r0, r9, asr #6
    1864:	03003406 	movweq	r3, #1030	; 0x406
    1868:	3b0b3a0e 	blcc	2d00a8 <__bss_end__+0x2c5f80>
    186c:	490b390b 	stmdbmi	fp, {r0, r1, r3, r8, fp, ip, sp}
    1870:	3c193f13 	ldccc	15, cr3, [r9], {19}
    1874:	07000019 	smladeq	r0, r9, r0, r0
    1878:	0b0b000f 	bleq	2c18bc <__bss_end__+0x2b7794>
    187c:	00001349 	andeq	r1, r0, r9, asr #6
    1880:	49002608 	stmdbmi	r0, {r3, r9, sl, sp}
    1884:	09000013 	stmdbeq	r0, {r0, r1, r4}
    1888:	193f002e 	ldmdbne	pc!, {r1, r2, r3, r5}	; <UNPREDICTABLE>
    188c:	0b3a0e03 	bleq	e850a0 <__bss_end__+0xe7af78>
    1890:	0b390b3b 	bleq	e44584 <__bss_end__+0xe3a45c>
    1894:	01111927 	tsteq	r1, r7, lsr #18
    1898:	18400612 	stmdane	r0, {r1, r4, r9, sl}^
    189c:	00194297 	mulseq	r9, r7, r2
	...

Disassembly of section .debug_loc:

00000000 <.debug_loc>:
       0:	00000000 	andeq	r0, r0, r0
       4:	00140000 	andseq	r0, r4, r0
       8:	001c0000 	andseq	r0, ip, r0
       c:	00010000 	andeq	r0, r1, r0
      10:	00001c50 	andeq	r1, r0, r0, asr ip
      14:	00001f00 	andeq	r1, r0, r0, lsl #30
      18:	51000100 	mrspl	r0, (UNDEF: 16)
      1c:	0000001f 	andeq	r0, r0, pc, lsl r0
      20:	000000d8 	ldrdeq	r0, [r0], -r8
      24:	00560001 	subseq	r0, r6, r1
      28:	00000000 	andeq	r0, r0, r0
      2c:	02000000 	andeq	r0, r0, #0, 0
      30:	20000000 	andcs	r0, r0, r0
      34:	24000000 	strcs	r0, [r0], #-0
      38:	02000000 	andeq	r0, r0, #0, 0
      3c:	249f3000 	ldrcs	r3, [pc], #0	; 44 <__code_start__-0x7fbc>
      40:	d8000000 	stmdale	r0, {}	; <UNPREDICTABLE>
      44:	01000000 	mrseq	r0, (UNDEF: 0)
      48:	00005500 	andeq	r5, r0, r0, lsl #10
	...
      58:	00000038 	andeq	r0, r0, r8, lsr r0
      5c:	00000040 	andeq	r0, r0, r0, asr #32
      60:	40500001 	subsmi	r0, r0, r1
      64:	43000000 	movwmi	r0, #0
      68:	01000000 	mrseq	r0, (UNDEF: 0)
      6c:	00435100 	subeq	r5, r3, r0, lsl #2
      70:	00bc0000 	adcseq	r0, ip, r0
      74:	00010000 	andeq	r0, r1, r0
      78:	00000054 	andeq	r0, r0, r4, asr r0
	...
      88:	00000800 	andeq	r0, r0, r0, lsl #16
      8c:	00007800 	andeq	r7, r0, r0, lsl #16
      90:	51000100 	mrspl	r0, (UNDEF: 16)
      94:	00000078 	andeq	r0, r0, r8, ror r0
      98:	00000084 	andeq	r0, r0, r4, lsl #1
      9c:	78700003 	ldmdavc	r0!, {r0, r1}^
      a0:	0000849f 	muleq	r0, pc, r4	; <UNPREDICTABLE>
      a4:	0000a400 	andeq	sl, r0, r0, lsl #8
      a8:	51000100 	mrspl	r0, (UNDEF: 16)
      ac:	000000a4 	andeq	r0, r0, r4, lsr #1
      b0:	000000bc 	strheq	r0, [r0], -ip
      b4:	78700003 	ldmdavc	r0!, {r0, r1}^
      b8:	0000009f 	muleq	r0, pc, r0	; <UNPREDICTABLE>
	...
      c4:	00001000 	andeq	r1, r0, r0
      c8:	00004800 	andeq	r4, r0, r0, lsl #16
      cc:	53000100 	movwpl	r0, #256	; 0x100
      d0:	0000004c 	andeq	r0, r0, ip, asr #32
      d4:	000000bc 	strheq	r0, [r0], -ip
      d8:	00530001 	subseq	r0, r3, r1
	...
      ec:	24000001 	strcs	r0, [r0], #-1
      f0:	01000001 	tsteq	r0, r1
      f4:	01245000 			; <UNDEFINED> instruction: 0x01245000
      f8:	01280000 			; <UNDEFINED> instruction: 0x01280000
      fc:	00040000 	andeq	r0, r4, r0
     100:	9f5001f3 	svcls	0x005001f3
     104:	00000128 	andeq	r0, r0, r8, lsr #2
     108:	00000140 	andeq	r0, r0, r0, asr #2
     10c:	40500001 	subsmi	r0, r0, r1
     110:	ac000001 	stcge	0, cr0, [r0], {1}
     114:	04000001 	streq	r0, [r0], #-1
     118:	5001f300 	andpl	pc, r1, r0, lsl #6
     11c:	0000009f 	muleq	r0, pc, r0	; <UNPREDICTABLE>
	...
     12c:	00000101 	andeq	r0, r0, r1, lsl #2
     130:	24000000 	strcs	r0, [r0], #-0
     134:	28000001 	stmdacs	r0, {r0}
     138:	01000001 	tsteq	r0, r1
     13c:	01405000 	mrseq	r5, (UNDEF: 64)
     140:	01600000 	cmneq	r0, r0
     144:	00010000 	andeq	r0, r1, r0
     148:	00016050 	andeq	r6, r1, r0, asr r0
     14c:	00016400 	andeq	r6, r1, r0, lsl #8
     150:	70000300 	andvc	r0, r0, r0, lsl #6
     154:	01649f78 	smceq	18936	; 0x49f8
     158:	01700000 	cmneq	r0, r0
     15c:	00010000 	andeq	r0, r1, r0
     160:	00017050 	andeq	r7, r1, r0, asr r0
     164:	00017800 	andeq	r7, r1, r0, lsl #16
     168:	70000200 	andvc	r0, r0, r0, lsl #4
     16c:	00017800 	andeq	r7, r1, r0, lsl #16
     170:	00019800 	andeq	r9, r1, r0, lsl #16
     174:	50000100 	andpl	r0, r0, r0, lsl #2
     178:	0000019c 	muleq	r0, ip, r1
     17c:	000001ac 	andeq	r0, r0, ip, lsr #3
     180:	00500001 	subseq	r0, r0, r1
	...
     18c:	00000101 	andeq	r0, r0, r1, lsl #2
     190:	00000100 	andeq	r0, r0, r0, lsl #2
     194:	00011800 	andeq	r1, r1, r0, lsl #16
     198:	00012800 	andeq	r2, r1, r0, lsl #16
     19c:	52000100 	andpl	r0, r0, #0
     1a0:	00000128 	andeq	r0, r0, r8, lsr #2
     1a4:	00000140 	andeq	r0, r0, r0, asr #2
     1a8:	18030006 	stmdane	r3, {r1, r2}
     1ac:	9f00009d 	svcls	0x0000009d
     1b0:	00000140 	andeq	r0, r0, r0, asr #2
     1b4:	00000170 	andeq	r0, r0, r0, ror r1
     1b8:	70520001 	subsvc	r0, r2, r1
     1bc:	78000001 	stmdavc	r0, {r0}
     1c0:	01000001 	tsteq	r0, r1
     1c4:	01785000 	cmneq	r8, r0
     1c8:	019b0000 	orrseq	r0, fp, r0
     1cc:	00010000 	andeq	r0, r1, r0
     1d0:	00000052 	andeq	r0, r0, r2, asr r0
     1d4:	00000000 	andeq	r0, r0, r0
     1d8:	10000000 	andne	r0, r0, r0
     1dc:	ac000001 	stcge	0, cr0, [r0], {1}
     1e0:	01000001 	tsteq	r0, r1
     1e4:	00005400 	andeq	r5, r0, r0, lsl #8
	...
     1f0:	00bc0000 	adcseq	r0, ip, r0
     1f4:	00cc0000 	sbceq	r0, ip, r0
     1f8:	00010000 	andeq	r0, r1, r0
     1fc:	0000cc50 	andeq	ip, r0, r0, asr ip
     200:	00010000 	andeq	r0, r1, r0
     204:	54000100 	strpl	r0, [r0], #-256	; 0xffffff00
	...
     214:	00d40000 	sbcseq	r0, r4, r0
     218:	00e40000 	rsceq	r0, r4, r0
     21c:	00010000 	andeq	r0, r1, r0
     220:	0000e450 	andeq	lr, r0, r0, asr r4
     224:	0000e700 	andeq	lr, r0, r0, lsl #14
     228:	70000300 	andvc	r0, r0, r0, lsl #6
     22c:	00f49f78 	rscseq	r9, r4, r8, ror pc
     230:	00f80000 	rscseq	r0, r8, r0
     234:	00010000 	andeq	r0, r1, r0
     238:	00000050 	andeq	r0, r0, r0, asr r0
     23c:	00000000 	andeq	r0, r0, r0
     240:	00000100 	andeq	r0, r0, r0, lsl #2
     244:	0000dc00 	andeq	sp, r0, r0, lsl #24
     248:	0000e400 	andeq	lr, r0, r0, lsl #8
     24c:	50000100 	andpl	r0, r0, r0, lsl #2
     250:	000000e4 	andeq	r0, r0, r4, ror #1
     254:	000000e7 	andeq	r0, r0, r7, ror #1
     258:	78700003 	ldmdavc	r0!, {r0, r1}^
     25c:	0000009f 	muleq	r0, pc, r0	; <UNPREDICTABLE>
	...
     26c:	00000700 	andeq	r0, r0, r0, lsl #14
     270:	50000100 	andpl	r0, r0, r0, lsl #2
     274:	00000007 	andeq	r0, r0, r7
     278:	0000000c 	andeq	r0, r0, ip
     27c:	01f30004 	mvnseq	r0, r4
     280:	00009f50 	andeq	r9, r0, r0, asr pc
	...
     290:	0000002c 	andeq	r0, r0, ip, lsr #32
     294:	00000034 	andeq	r0, r0, r4, lsr r0
     298:	34500001 	ldrbcc	r0, [r0], #-1
     29c:	48000000 	stmdami	r0, {}	; <UNPREDICTABLE>
     2a0:	01000000 	mrseq	r0, (UNDEF: 0)
     2a4:	00485400 	subeq	r5, r8, r0, lsl #8
     2a8:	00580000 	subseq	r0, r8, r0
     2ac:	00010000 	andeq	r0, r1, r0
     2b0:	00000050 	andeq	r0, r0, r0, asr r0
	...
     2bc:	00000101 	andeq	r0, r0, r1, lsl #2
     2c0:	00000000 	andeq	r0, r0, r0
     2c4:	00000c00 	andeq	r0, r0, r0, lsl #24
     2c8:	50000100 	andpl	r0, r0, r0, lsl #2
     2cc:	0000000c 	andeq	r0, r0, ip
     2d0:	00000020 	andeq	r0, r0, r0, lsr #32
     2d4:	20540001 	subscs	r0, r4, r1
     2d8:	24000000 	strcs	r0, [r0], #-0
     2dc:	03000000 	movweq	r0, #0
     2e0:	9f017400 	svcls	0x00017400
     2e4:	00000024 	andeq	r0, r0, r4, lsr #32
     2e8:	00000038 	andeq	r0, r0, r8, lsr r0
     2ec:	00540001 	subseq	r0, r4, r1
	...
     300:	00038800 	andeq	r8, r3, r0, lsl #16
     304:	00039400 	andeq	r9, r3, r0, lsl #8
     308:	50000100 	andpl	r0, r0, r0, lsl #2
     30c:	00000394 	muleq	r0, r4, r3
     310:	000003d0 	ldrdeq	r0, [r0], -r0	; <UNPREDICTABLE>
     314:	d05b0001 	subsle	r0, fp, r1
     318:	20000003 	andcs	r0, r0, r3
     31c:	04000009 	streq	r0, [r0], #-9
     320:	5001f300 	andpl	pc, r1, r0, lsl #6
     324:	0009209f 	muleq	r9, pc, r0	; <UNPREDICTABLE>
     328:	00092800 	andeq	r2, r9, r0, lsl #16
     32c:	5b000100 	blpl	734 <__code_start__-0x78cc>
     330:	00000928 	andeq	r0, r0, r8, lsr #18
     334:	000009b4 			; <UNDEFINED> instruction: 0x000009b4
     338:	01f30004 	mvnseq	r0, r4
     33c:	00009f50 	andeq	r9, r0, r0, asr pc
	...
     34c:	03880000 	orreq	r0, r8, #0, 0
     350:	03d00000 	bicseq	r0, r0, #0, 0
     354:	00010000 	andeq	r0, r1, r0
     358:	0003d051 	andeq	sp, r3, r1, asr r0
     35c:	00092000 	andeq	r2, r9, r0
     360:	f3000400 	vshl.u8	d0, d0, d0
     364:	209f5101 	addscs	r5, pc, r1, lsl #2
     368:	28000009 	stmdacs	r0, {r0, r3}
     36c:	01000009 	tsteq	r0, r9
     370:	09285100 	stmdbeq	r8!, {r8, ip, lr}
     374:	09b40000 	ldmibeq	r4!, {}	; <UNPREDICTABLE>
     378:	00040000 	andeq	r0, r4, r0
     37c:	9f5101f3 	svcls	0x005101f3
	...
     38c:	01000000 	mrseq	r0, (UNDEF: 0)
     390:	00010000 	andeq	r0, r1, r0
	...
     3a0:	00000388 	andeq	r0, r0, r8, lsl #7
     3a4:	000003d0 	ldrdeq	r0, [r0], -r0	; <UNPREDICTABLE>
     3a8:	d0520001 	subsle	r0, r2, r1
     3ac:	00000003 	andeq	r0, r0, r3
     3b0:	01000004 	tsteq	r0, r4
     3b4:	04145600 	ldreq	r5, [r4], #-1536	; 0xfffffa00
     3b8:	04240000 	strteq	r0, [r4], #-0
     3bc:	00010000 	andeq	r0, r1, r0
     3c0:	00042456 	andeq	r2, r4, r6, asr r4
     3c4:	00042800 	andeq	r2, r4, r0, lsl #16
     3c8:	76000300 	strvc	r0, [r0], -r0, lsl #6
     3cc:	04a89f7f 	strteq	r9, [r8], #3967	; 0xf7f
     3d0:	04ac0000 	strteq	r0, [ip], #0
     3d4:	00010000 	andeq	r0, r1, r0
     3d8:	0004e056 	andeq	lr, r4, r6, asr r0
     3dc:	00050400 	andeq	r0, r5, r0, lsl #8
     3e0:	56000100 	strpl	r0, [r0], -r0, lsl #2
     3e4:	0000057c 	andeq	r0, r0, ip, ror r5
     3e8:	00000588 	andeq	r0, r0, r8, lsl #11
     3ec:	88530001 	ldmdahi	r3, {r0}^
     3f0:	d0000005 	andle	r0, r0, r5
     3f4:	03000005 	movweq	r0, #5
     3f8:	7dcc9100 	stfvcp	f1, [ip]
     3fc:	00000800 	andeq	r0, r0, r0, lsl #16
     400:	0000080f 	andeq	r0, r0, pc, lsl #16
     404:	0f530001 	svceq	0x00530001
     408:	88000008 	stmdahi	r0, {r3}
     40c:	03000008 	movweq	r0, #8
     410:	7dcc9100 	stfvcp	f1, [ip]
     414:	00000920 	andeq	r0, r0, r0, lsr #18
     418:	00000928 	andeq	r0, r0, r8, lsr #18
     41c:	48520001 	ldmdami	r2, {r0}^
     420:	64000009 	strvs	r0, [r0], #-9
     424:	03000009 	movweq	r0, #9
     428:	7dcc9100 	stfvcp	f1, [ip]
	...
     43c:	00010100 	andeq	r0, r1, r0, lsl #2
     440:	00010100 	andeq	r0, r1, r0, lsl #2
     444:	02000000 	andeq	r0, r0, #0, 0
     448:	02000002 	andeq	r0, r0, #2, 0
     44c:	01000002 	tsteq	r0, r2
     450:	02000001 	andeq	r0, r0, #1, 0
     454:	01000002 	tsteq	r0, r2
     458:	00000001 	andeq	r0, r0, r1
     45c:	00000000 	andeq	r0, r0, r0
     460:	03880000 	orreq	r0, r8, #0, 0
     464:	03ac0000 			; <UNDEFINED> instruction: 0x03ac0000
     468:	00010000 	andeq	r0, r1, r0
     46c:	0003ac53 	andeq	sl, r3, r3, asr ip
     470:	0003c000 	andeq	ip, r3, r0
     474:	53000300 	movwpl	r0, #768	; 0x300
     478:	03d00493 	bicseq	r0, r0, #-1828716544	; 0x93000000
     47c:	03e80000 	mvneq	r0, #0, 0
     480:	00030000 	andeq	r0, r3, r0
     484:	e8049358 	stmda	r4, {r3, r4, r6, r8, r9, ip, pc}
     488:	ac000003 	stcge	0, cr0, [r0], {3}
     48c:	03000004 	movweq	r0, #4
     490:	04935800 	ldreq	r5, [r3], #2048	; 0x800
     494:	000004c0 	andeq	r0, r0, r0, asr #9
     498:	000004c0 	andeq	r0, r0, r0, asr #9
     49c:	93580003 	cmpls	r8, #3, 0
     4a0:	0004c004 	andeq	ip, r4, r4
     4a4:	0004cc00 	andeq	ip, r4, r0, lsl #24
     4a8:	78000500 	stmdavc	r0, {r8, sl}
     4ac:	04939f04 	ldreq	r9, [r3], #3844	; 0xf04
     4b0:	000004cc 	andeq	r0, r0, ip, asr #9
     4b4:	000004e0 	andeq	r0, r0, r0, ror #9
     4b8:	93580003 	cmpls	r8, #3, 0
     4bc:	0004e004 	andeq	lr, r4, r4
     4c0:	00053800 	andeq	r3, r5, r0, lsl #16
     4c4:	58000300 	stmdapl	r0, {r8, r9}
     4c8:	05380493 	ldreq	r0, [r8, #-1171]!	; 0xfffffb6d
     4cc:	053c0000 	ldreq	r0, [ip, #-0]!
     4d0:	00050000 	andeq	r0, r5, r0
     4d4:	939f7978 	orrsls	r7, pc, #120, 18	; 0x1e0000
     4d8:	0005d004 	andeq	sp, r5, r4
     4dc:	0005d000 	andeq	sp, r5, r0
     4e0:	58000300 	stmdapl	r0, {r8, r9}
     4e4:	05d00493 	ldrbeq	r0, [r0, #1171]	; 0x493
     4e8:	05d40000 	ldrbeq	r0, [r4]
     4ec:	00050000 	andeq	r0, r5, r0
     4f0:	939f0478 	orrsls	r0, pc, #120, 8	; 0x78000000
     4f4:	0005f404 	andeq	pc, r5, r4, lsl #8
     4f8:	0005f400 	andeq	pc, r5, r0, lsl #8
     4fc:	58000300 	stmdapl	r0, {r8, r9}
     500:	05f40493 	ldrbeq	r0, [r4, #1171]!	; 0x493
     504:	05fc0000 	ldrbeq	r0, [ip, #0]!
     508:	00050000 	andeq	r0, r5, r0
     50c:	939f0478 	orrsls	r0, pc, #120, 8	; 0x78000000
     510:	0005fc04 	andeq	pc, r5, r4, lsl #24
     514:	0005fc00 	andeq	pc, r5, r0, lsl #24
     518:	58000300 	stmdapl	r0, {r8, r9}
     51c:	05fc0493 	ldrbeq	r0, [ip, #1171]!	; 0x493
     520:	06000000 	streq	r0, [r0], -r0
     524:	00050000 	andeq	r0, r5, r0
     528:	939f0478 	orrsls	r0, pc, #120, 8	; 0x78000000
     52c:	00060004 	andeq	r0, r6, r4
     530:	00070000 	andeq	r0, r7, r0
     534:	58000300 	stmdapl	r0, {r8, r9}
     538:	07000493 			; <UNDEFINED> instruction: 0x07000493
     53c:	070c0000 	streq	r0, [ip, -r0]
     540:	00050000 	andeq	r0, r5, r0
     544:	939f0478 	orrsls	r0, pc, #120, 8	; 0x78000000
     548:	00070c04 	andeq	r0, r7, r4, lsl #24
     54c:	0007f800 	andeq	pc, r7, r0, lsl #16
     550:	58000300 	stmdapl	r0, {r8, r9}
     554:	07f80493 			; <UNDEFINED> instruction: 0x07f80493
     558:	07fc0000 	ldrbeq	r0, [ip, r0]!
     55c:	00050000 	andeq	r0, r5, r0
     560:	939f0478 	orrsls	r0, pc, #120, 8	; 0x78000000
     564:	0007fc04 	andeq	pc, r7, r4, lsl #24
     568:	00080000 	andeq	r0, r8, r0
     56c:	58000300 	stmdapl	r0, {r8, r9}
     570:	08880493 	stmeq	r8, {r0, r1, r4, r7, sl}
     574:	09200000 	stmdbeq	r0!, {}	; <UNPREDICTABLE>
     578:	00030000 	andeq	r0, r3, r0
     57c:	20049358 	andcs	r9, r4, r8, asr r3
     580:	28000009 	stmdacs	r0, {r0, r3}
     584:	01000009 	tsteq	r0, r9
     588:	09645300 	stmdbeq	r4!, {r8, r9, ip, lr}^
     58c:	09b40000 	ldmibeq	r4!, {}	; <UNPREDICTABLE>
     590:	00030000 	andeq	r0, r3, r0
     594:	00049358 	andeq	r9, r4, r8, asr r3
     598:	00000000 	andeq	r0, r0, r0
     59c:	01000000 	mrseq	r0, (UNDEF: 0)
	...
     5a8:	00000202 	andeq	r0, r0, r2, lsl #4
     5ac:	01010100 	mrseq	r0, (UNDEF: 17)
     5b0:	00000000 	andeq	r0, r0, r0
     5b4:	0003ac00 	andeq	sl, r3, r0, lsl #24
     5b8:	0003d000 	andeq	sp, r3, r0
     5bc:	5b000100 	blpl	9c4 <__code_start__-0x763c>
     5c0:	000003d0 	ldrdeq	r0, [r0], -r0	; <UNPREDICTABLE>
     5c4:	000003d4 	ldrdeq	r0, [r0], -r4
     5c8:	d4540001 	ldrble	r0, [r4], #-1
     5cc:	d8000003 	stmdale	r0, {r0, r1}
     5d0:	03000003 	movweq	r0, #3
     5d4:	9f7f7400 	svcls	0x007f7400
     5d8:	000003d8 	ldrdeq	r0, [r0], -r8
     5dc:	000003fc 	strdeq	r0, [r0], -ip
     5e0:	a8540001 	ldmdage	r4, {r0}^
     5e4:	ac000004 	stcge	0, cr0, [r0], {4}
     5e8:	01000004 	tsteq	r0, r4
     5ec:	04ac5400 	strteq	r5, [ip], #1024	; 0x400
     5f0:	04b40000 	ldrteq	r0, [r4], #0
     5f4:	00030000 	andeq	r0, r3, r0
     5f8:	b49f0174 	ldrlt	r0, [pc], #372	; 600 <__code_start__-0x7a00>
     5fc:	c0000004 	andgt	r0, r0, r4
     600:	01000004 	tsteq	r0, r4
     604:	04e45400 	strbteq	r5, [r4], #1024	; 0x400
     608:	04f40000 	ldrbteq	r0, [r4], #0
     60c:	00010000 	andeq	r0, r1, r0
     610:	0004f454 	andeq	pc, r4, r4, asr r4	; <UNPREDICTABLE>
     614:	0004f800 	andeq	pc, r4, r0, lsl #16
     618:	74000300 	strvc	r0, [r0], #-768	; 0xfffffd00
     61c:	04f89f01 	ldrbteq	r9, [r8], #3841	; 0xf01
     620:	05040000 	streq	r0, [r4, #-0]
     624:	00010000 	andeq	r0, r1, r0
     628:	00092054 	andeq	r2, r9, r4, asr r0
     62c:	00092800 	andeq	r2, r9, r0, lsl #16
     630:	5b000100 	blpl	a38 <__code_start__-0x75c8>
	...
     63c:	03ac0001 			; <UNDEFINED> instruction: 0x03ac0001
     640:	09b40000 	ldmibeq	r4!, {}	; <UNPREDICTABLE>
     644:	00010000 	andeq	r0, r1, r0
     648:	00000057 	andeq	r0, r0, r7, asr r0
     64c:	00000000 	andeq	r0, r0, r0
     650:	00000200 	andeq	r0, r0, r0, lsl #4
     654:	7c000000 	stcvc	0, cr0, [r0], {-0}
     658:	d0000005 	andle	r0, r0, r5
     65c:	01000005 	tsteq	r0, r5
     660:	08005b00 	stmdaeq	r0, {r8, r9, fp, ip, lr}
     664:	08880000 	stmeq	r8, {}	; <UNPREDICTABLE>
     668:	00010000 	andeq	r0, r1, r0
     66c:	0009485b 	andeq	r4, r9, fp, asr r8
     670:	00096400 	andeq	r6, r9, r0, lsl #8
     674:	5b000100 	blpl	a7c <__code_start__-0x7584>
	...
     680:	00000003 	andeq	r0, r0, r3
     684:	057c0000 	ldrbeq	r0, [ip, #-0]!
     688:	05d00000 	ldrbeq	r0, [r0]
     68c:	00010000 	andeq	r0, r1, r0
     690:	00080059 	andeq	r0, r8, r9, asr r0
     694:	00088800 	andeq	r8, r8, r0, lsl #16
     698:	59000100 	stmdbpl	r0, {r8}
     69c:	00000948 	andeq	r0, r0, r8, asr #18
     6a0:	00000964 	andeq	r0, r0, r4, ror #18
     6a4:	00590001 	subseq	r0, r9, r1
     6a8:	00000000 	andeq	r0, r0, r0
     6ac:	04000000 	streq	r0, [r0], #-0
     6b0:	00000000 	andeq	r0, r0, r0
     6b4:	ac000000 	stcge	0, cr0, [r0], {-0}
     6b8:	d0000003 	andle	r0, r0, r3
     6bc:	01000003 	tsteq	r0, r3
     6c0:	03d05200 	bicseq	r5, r0, #0, 4
     6c4:	09200000 	stmdbeq	r0!, {}	; <UNPREDICTABLE>
     6c8:	00040000 	andeq	r0, r4, r0
     6cc:	9f5201f3 	svcls	0x005201f3
     6d0:	00000920 	andeq	r0, r0, r0, lsr #18
     6d4:	00000928 	andeq	r0, r0, r8, lsr #18
     6d8:	28520001 	ldmdacs	r2, {r0}^
     6dc:	b4000009 	strlt	r0, [r0], #-9
     6e0:	04000009 	streq	r0, [r0], #-9
     6e4:	5201f300 	andpl	pc, r1, #0, 6
     6e8:	0000009f 	muleq	r0, pc, r0	; <UNPREDICTABLE>
     6ec:	00000000 	andeq	r0, r0, r0
     6f0:	01010000 	mrseq	r0, (UNDEF: 1)
     6f4:	00000000 	andeq	r0, r0, r0
     6f8:	00000100 	andeq	r0, r0, r0, lsl #2
     6fc:	0004e000 	andeq	lr, r4, r0
     700:	0004e000 	andeq	lr, r4, r0
     704:	50000100 	andpl	r0, r0, r0, lsl #2
     708:	000004e0 	andeq	r0, r0, r0, ror #9
     70c:	000004e8 	andeq	r0, r0, r8, ror #9
     710:	b8550001 	ldmdalt	r5, {r0}^
     714:	d0000005 	andle	r0, r0, r5
     718:	01000005 	tsteq	r0, r5
     71c:	05f05500 	ldrbeq	r5, [r0, #1280]!	; 0x500
     720:	05f40000 	ldrbeq	r0, [r4, #0]!
     724:	00010000 	andeq	r0, r1, r0
     728:	0007f450 	andeq	pc, r7, r0, asr r4	; <UNPREDICTABLE>
     72c:	0007f800 	andeq	pc, r7, r0, lsl #16
     730:	55000100 	strpl	r0, [r0, #-256]	; 0xffffff00
     734:	00000850 	andeq	r0, r0, r0, asr r8
     738:	00000888 	andeq	r0, r0, r8, lsl #17
     73c:	00550001 	subseq	r0, r5, r1
     740:	00000000 	andeq	r0, r0, r0
     744:	02000000 	andeq	r0, r0, #0, 0
     748:	00000000 	andeq	r0, r0, r0
     74c:	14000000 	strne	r0, [r0], #-0
     750:	18000004 	stmdane	r0, {r2}
     754:	02000004 	andeq	r0, r0, #4, 0
     758:	189f3000 	ldmne	pc, {ip, sp}	; <UNPREDICTABLE>
     75c:	1c000004 	stcne	0, cr0, [r0], {4}
     760:	01000004 	tsteq	r0, r4
     764:	04285500 	strteq	r5, [r8], #-1280	; 0xfffffb00
     768:	043c0000 	ldrteq	r0, [ip], #-0
     76c:	00010000 	andeq	r0, r1, r0
     770:	00092855 	andeq	r2, r9, r5, asr r8
     774:	00093000 	andeq	r3, r9, r0
     778:	55000100 	strpl	r0, [r0, #-256]	; 0xffffff00
	...
     784:	00000001 	andeq	r0, r0, r1
	...
     790:	00000504 	andeq	r0, r0, r4, lsl #10
     794:	00000584 	andeq	r0, r0, r4, lsl #11
     798:	84560001 	ldrbhi	r0, [r6], #-1
     79c:	88000005 	stmdahi	r0, {r0, r2}
     7a0:	03000005 	movweq	r0, #5
     7a4:	9f7e7300 	svcls	0x007e7300
     7a8:	00000588 	andeq	r0, r0, r8, lsl #11
     7ac:	000005d0 	ldrdeq	r0, [r0], -r0	; <UNPREDICTABLE>
     7b0:	cc910007 	ldcgt	0, cr0, [r1], {7}
     7b4:	1c32067d 	ldcne	6, cr0, [r2], #-500	; 0xfffffe0c
     7b8:	0008009f 	muleq	r8, pc, r0	; <UNPREDICTABLE>
     7bc:	00081c00 	andeq	r1, r8, r0, lsl #24
     7c0:	56000100 	strpl	r0, [r0], -r0, lsl #2
     7c4:	0000081c 	andeq	r0, r0, ip, lsl r8
     7c8:	00000888 	andeq	r0, r0, r8, lsl #17
     7cc:	cc910007 	ldcgt	0, cr0, [r1], {7}
     7d0:	1c32067d 	ldcne	6, cr0, [r2], #-500	; 0xfffffe0c
     7d4:	0009489f 	muleq	r9, pc, r8	; <UNPREDICTABLE>
     7d8:	0009b400 	andeq	fp, r9, r0, lsl #8
     7dc:	56000100 	strpl	r0, [r0], -r0, lsl #2
	...
     7e8:	04020604 	streq	r0, [r2], #-1540	; 0xfffff9fc
     7ec:	00000414 	andeq	r0, r0, r4, lsl r4
     7f0:	00000414 	andeq	r0, r0, r4, lsl r4
     7f4:	00720006 	rsbseq	r0, r2, r6
     7f8:	9f1aff08 	svcls	0x001aff08
     7fc:	00000428 	andeq	r0, r0, r8, lsr #8
     800:	00000428 	andeq	r0, r0, r8, lsr #8
     804:	00720006 	rsbseq	r0, r2, r6
     808:	9f1aff08 	svcls	0x001aff08
	...
     814:	00000002 	andeq	r0, r0, r2
     818:	05fc0000 	ldrbeq	r0, [ip, #0]!
     81c:	07000000 	streq	r0, [r0, -r0]
     820:	00030000 	andeq	r0, r3, r0
     824:	a89f8008 	ldmge	pc, {r3, pc}	; <UNPREDICTABLE>
     828:	bc000008 	stclt	0, cr0, [r0], {8}
     82c:	03000008 	movweq	r0, #8
     830:	9f800800 	svcls	0x00800800
     834:	00000910 	andeq	r0, r0, r0, lsl r9
     838:	00000920 	andeq	r0, r0, r0, lsr #18
     83c:	80080003 	andhi	r0, r8, r3
     840:	0000009f 	muleq	r0, pc, r0	; <UNPREDICTABLE>
     844:	00000000 	andeq	r0, r0, r0
     848:	00000100 	andeq	r0, r0, r0, lsl #2
     84c:	fc000000 	stc2	0, cr0, [r0], {-0}
     850:	00000005 	andeq	r0, r0, r5
     854:	02000007 	andeq	r0, r0, #7, 0
     858:	a89f3000 	ldmge	pc, {ip, sp}	; <UNPREDICTABLE>
     85c:	bc000008 	stclt	0, cr0, [r0], {8}
     860:	02000008 	andeq	r0, r0, #8, 0
     864:	109f3000 	addsne	r3, pc, r0
     868:	20000009 	andcs	r0, r0, r9
     86c:	02000009 	andeq	r0, r0, #9, 0
     870:	009f3000 	addseq	r3, pc, r0
     874:	00000000 	andeq	r0, r0, r0
     878:	01000000 	mrseq	r0, (UNDEF: 0)
     87c:	00000000 	andeq	r0, r0, r0
     880:	0005fc00 	andeq	pc, r5, r0, lsl #24
     884:	0006e000 	andeq	lr, r6, r0
     888:	55000100 	strpl	r0, [r0, #-256]	; 0xffffff00
     88c:	000008a8 	andeq	r0, r0, r8, lsr #17
     890:	000008bc 			; <UNDEFINED> instruction: 0x000008bc
     894:	10550001 	subsne	r0, r5, r1
     898:	20000009 	andcs	r0, r0, r9
     89c:	01000009 	tsteq	r0, r9
     8a0:	00005500 	andeq	r5, r0, r0, lsl #10
     8a4:	00000000 	andeq	r0, r0, r0
     8a8:	00010000 	andeq	r0, r1, r0
     8ac:	00000000 	andeq	r0, r0, r0
     8b0:	05fc0000 	ldrbeq	r0, [ip, #0]!
     8b4:	06e00000 	strbteq	r0, [r0], r0
     8b8:	00040000 	andeq	r0, r4, r0
     8bc:	9f7dd091 	svcls	0x007dd091
     8c0:	000006e0 	andeq	r0, r0, r0, ror #13
     8c4:	00000700 	andeq	r0, r0, r0, lsl #14
     8c8:	a8550001 	ldmdage	r5, {r0}^
     8cc:	bc000008 	stclt	0, cr0, [r0], {8}
     8d0:	04000008 	streq	r0, [r0], #-8
     8d4:	7dd09100 	ldfvcp	f1, [r0]
     8d8:	0009109f 	muleq	r9, pc, r0	; <UNPREDICTABLE>
     8dc:	00092000 	andeq	r2, r9, r0
     8e0:	91000400 	tstls	r0, r0, lsl #8
     8e4:	009f7dd0 			; <UNDEFINED> instruction: 0x009f7dd0
     8e8:	00000000 	andeq	r0, r0, r0
     8ec:	01000000 	mrseq	r0, (UNDEF: 0)
     8f0:	00000000 	andeq	r0, r0, r0
     8f4:	0005fc00 	andeq	pc, r5, r0, lsl #24
     8f8:	00070000 	andeq	r0, r7, r0
     8fc:	38000200 	stmdacc	r0, {r9}
     900:	0008a89f 	muleq	r8, pc, r8	; <UNPREDICTABLE>
     904:	0008bc00 	andeq	fp, r8, r0, lsl #24
     908:	38000200 	stmdacc	r0, {r9}
     90c:	0009109f 	muleq	r9, pc, r0	; <UNPREDICTABLE>
     910:	00092000 	andeq	r2, r9, r0
     914:	38000200 	stmdacc	r0, {r9}
     918:	0000009f 	muleq	r0, pc, r0	; <UNPREDICTABLE>
     91c:	00000000 	andeq	r0, r0, r0
     920:	07070400 	streq	r0, [r7, -r0, lsl #8]
	...
     92c:	fc000000 	stc2	0, cr0, [r0], {-0}
     930:	fc000005 	stc2	0, cr0, [r0], {5}
     934:	04000005 	streq	r0, [r0], #-5
     938:	7ed09100 	atnvcs	f1, f0
     93c:	0005fc9f 	muleq	r5, pc, ip	; <UNPREDICTABLE>
     940:	00067800 	andeq	r7, r6, r0, lsl #16
     944:	91000400 	tstls	r0, r0, lsl #8
     948:	789f7ed1 	ldmvc	pc, {r0, r4, r6, r7, r9, sl, fp, ip, sp, lr}	; <UNPREDICTABLE>
     94c:	d4000006 	strle	r0, [r0], #-6
     950:	01000006 	tsteq	r0, r6
     954:	06d45c00 	ldrbeq	r5, [r4], r0, lsl #24
     958:	07000000 	streq	r0, [r0, -r0]
     95c:	00040000 	andeq	r0, r4, r0
     960:	9f7ed191 	svcls	0x007ed191
     964:	000008a8 	andeq	r0, r0, r8, lsr #17
     968:	000008bc 			; <UNDEFINED> instruction: 0x000008bc
     96c:	d1910004 	orrsle	r0, r1, r4
     970:	09109f7e 	ldmdbeq	r0, {r1, r2, r3, r4, r5, r6, r8, r9, sl, fp, ip, pc}
     974:	09140000 	ldmdbeq	r4, {}	; <UNPREDICTABLE>
     978:	00040000 	andeq	r0, r4, r0
     97c:	9f7ed191 	svcls	0x007ed191
     980:	00000914 	andeq	r0, r0, r4, lsl r9
     984:	00000920 	andeq	r0, r0, r0, lsr #18
     988:	005c0001 	subseq	r0, ip, r1
     98c:	00000000 	andeq	r0, r0, r0
     990:	04000000 	streq	r0, [r0], #-0
     994:	00010001 	andeq	r0, r1, r1
     998:	00060800 	andeq	r0, r6, r0, lsl #16
     99c:	0006d000 	andeq	sp, r6, r0
     9a0:	55000100 	strpl	r0, [r0, #-256]	; 0xffffff00
     9a4:	000008a8 	andeq	r0, r0, r8, lsr #17
     9a8:	000008b8 			; <UNDEFINED> instruction: 0x000008b8
     9ac:	10550001 	subsne	r0, r5, r1
     9b0:	20000009 	andcs	r0, r0, r9
     9b4:	01000009 	tsteq	r0, r9
     9b8:	00005500 	andeq	r5, r0, r0, lsl #10
     9bc:	00000000 	andeq	r0, r0, r0
     9c0:	00040000 	andeq	r0, r4, r0
     9c4:	01000000 	mrseq	r0, (UNDEF: 0)
     9c8:	01000000 	mrseq	r0, (UNDEF: 0)
     9cc:	06080000 	streq	r0, [r8], -r0
     9d0:	06b00000 	ldrteq	r0, [r0], r0
     9d4:	00040000 	andeq	r0, r4, r0
     9d8:	9f7ed091 	svcls	0x007ed091
     9dc:	000006b0 			; <UNDEFINED> instruction: 0x000006b0
     9e0:	000006c8 	andeq	r0, r0, r8, asr #13
     9e4:	c8500001 	ldmdagt	r0, {r0}^
     9e8:	d0000006 	andle	r0, r0, r6
     9ec:	04000006 	streq	r0, [r0], #-6
     9f0:	7ed09100 	atnvcs	f1, f0
     9f4:	0008a89f 	muleq	r8, pc, r8	; <UNPREDICTABLE>
     9f8:	0008b000 	andeq	fp, r8, r0
     9fc:	91000400 	tstls	r0, r0, lsl #8
     a00:	b09f7ed0 			; <UNDEFINED> instruction: 0xb09f7ed0
     a04:	b8000008 	stmdalt	r0, {r3}
     a08:	01000008 	tsteq	r0, r8
     a0c:	09105300 	ldmdbeq	r0, {r8, r9, ip, lr}
     a10:	09200000 	stmdbeq	r0!, {}	; <UNPREDICTABLE>
     a14:	00040000 	andeq	r0, r4, r0
     a18:	9f7ed091 	svcls	0x007ed091
	...
     a24:	01000004 	tsteq	r0, r4
     a28:	03010101 	movweq	r0, #4353	; 0x1101
     a2c:	01000203 	tsteq	r0, r3, lsl #4
     a30:	00000000 	andeq	r0, r0, r0
     a34:	00000608 	andeq	r0, r0, r8, lsl #12
     a38:	00000624 	andeq	r0, r0, r4, lsr #12
     a3c:	d1910004 	orrsle	r0, r1, r4
     a40:	06849f7e 			; <UNDEFINED> instruction: 0x06849f7e
     a44:	06840000 	streq	r0, [r4], r0
     a48:	00010000 	andeq	r0, r1, r0
     a4c:	00068450 	andeq	r8, r6, r0, asr r4
     a50:	00069800 	andeq	r9, r6, r0, lsl #16
     a54:	70000300 	andvc	r0, r0, r0, lsl #6
     a58:	06989f01 	ldreq	r9, [r8], r1, lsl #30
     a5c:	06a40000 	strteq	r0, [r4], r0
     a60:	00030000 	andeq	r0, r3, r0
     a64:	a49f0270 	ldrge	r0, [pc], #624	; a6c <__code_start__-0x7594>
     a68:	a8000006 	stmdage	r0, {r1, r2}
     a6c:	03000006 	movweq	r0, #6
     a70:	9f037000 	svcls	0x00037000
     a74:	000008a8 	andeq	r0, r0, r8, lsr #17
     a78:	000008b8 			; <UNDEFINED> instruction: 0x000008b8
     a7c:	d1910004 	orrsle	r0, r1, r4
     a80:	09109f7e 	ldmdbeq	r0, {r1, r2, r3, r4, r5, r6, r8, r9, sl, fp, ip, pc}
     a84:	09140000 	ldmdbeq	r4, {}	; <UNPREDICTABLE>
     a88:	00040000 	andeq	r0, r4, r0
     a8c:	9f7ed191 	svcls	0x007ed191
     a90:	00000914 	andeq	r0, r0, r4, lsl r9
     a94:	00000920 	andeq	r0, r0, r0, lsr #18
     a98:	005c0001 	subseq	r0, ip, r1
     a9c:	00000000 	andeq	r0, r0, r0
     aa0:	06000000 	streq	r0, [r0], -r0
     aa4:	01010000 	mrseq	r0, (UNDEF: 1)
     aa8:	01010101 	tsteq	r1, r1, lsl #2
     aac:	00010002 	andeq	r0, r1, r2
     ab0:	00060800 	andeq	r0, r6, r0, lsl #16
     ab4:	00062400 	andeq	r2, r6, r0, lsl #8
     ab8:	31000200 	mrscc	r0, R8_usr
     abc:	0006849f 	muleq	r6, pc, r4	; <UNPREDICTABLE>
     ac0:	00069400 	andeq	r9, r6, r0, lsl #8
     ac4:	52000100 	andpl	r0, r0, #0
     ac8:	00000694 	muleq	r0, r4, r6
     acc:	000006a4 	andeq	r0, r0, r4, lsr #13
     ad0:	a4590001 	ldrbge	r0, [r9], #-1
     ad4:	a8000006 	stmdage	r0, {r1, r2}
     ad8:	01000006 	tsteq	r0, r6
     adc:	06a85200 	strteq	r5, [r8], r0, lsl #4
     ae0:	06a80000 	strteq	r0, [r8], r0
     ae4:	00030000 	andeq	r0, r3, r0
     ae8:	a89f0172 	ldmge	pc, {r1, r4, r5, r6, r8}	; <UNPREDICTABLE>
     aec:	b8000008 	stmdalt	r0, {r3}
     af0:	02000008 	andeq	r0, r0, #8, 0
     af4:	109f3100 	addsne	r3, pc, r0, lsl #2
     af8:	20000009 	andcs	r0, r0, r9
     afc:	02000009 	andeq	r0, r0, #9, 0
     b00:	009f3100 	addseq	r3, pc, r0, lsl #2
     b04:	00000000 	andeq	r0, r0, r0
     b08:	01000000 	mrseq	r0, (UNDEF: 0)
     b0c:	01000606 	tsteq	r0, r6, lsl #12
     b10:	0006d000 	andeq	sp, r6, r0
     b14:	0006d000 	andeq	sp, r6, r0
     b18:	91000400 	tstls	r0, r0, lsl #8
     b1c:	d09f7ed0 			; <UNDEFINED> instruction: 0xd09f7ed0
     b20:	00000006 	andeq	r0, r0, r6
     b24:	01000007 	tsteq	r0, r7
     b28:	08b85000 	ldmeq	r8!, {ip, lr}
     b2c:	08bc0000 	ldmeq	ip!, {}	; <UNPREDICTABLE>
     b30:	00010000 	andeq	r0, r1, r0
     b34:	00000053 	andeq	r0, r0, r3, asr r0
     b38:	00000000 	andeq	r0, r0, r0
     b3c:	00080100 	andeq	r0, r8, r0, lsl #2
     b40:	01010000 	mrseq	r0, (UNDEF: 1)
     b44:	d0070100 	andle	r0, r7, r0, lsl #2
     b48:	d0000006 	andle	r0, r0, r6
     b4c:	06000006 	streq	r0, [r0], -r6
     b50:	71007c00 	tstvc	r0, r0, lsl #24
     b54:	e49f2200 	ldr	r2, [pc], #512	; b5c <__code_start__-0x74a4>
     b58:	e8000006 	stmda	r0, {r1, r2}
     b5c:	03000006 	movweq	r0, #6
     b60:	9f7f7300 	svcls	0x007f7300
     b64:	000006e8 	andeq	r0, r0, r8, ror #13
     b68:	000006f0 	strdeq	r0, [r0], -r0	; <UNPREDICTABLE>
     b6c:	f0530001 			; <UNDEFINED> instruction: 0xf0530001
     b70:	f8000006 			; <UNDEFINED> instruction: 0xf8000006
     b74:	03000006 	movweq	r0, #6
     b78:	9f7f7300 	svcls	0x007f7300
     b7c:	000008b8 			; <UNDEFINED> instruction: 0x000008b8
     b80:	000008b8 			; <UNDEFINED> instruction: 0x000008b8
     b84:	d1910004 	orrsle	r0, r1, r4
     b88:	00009f7e 	andeq	r9, r0, lr, ror pc
     b8c:	00000000 	andeq	r0, r0, r0
     b90:	00010000 	andeq	r0, r1, r0
     b94:	06d00001 	ldrbeq	r0, [r0], r1
     b98:	07000000 	streq	r0, [r0, -r0]
     b9c:	00030000 	andeq	r0, r3, r0
     ba0:	b89f8008 	ldmlt	pc, {r3, pc}	; <UNPREDICTABLE>
     ba4:	bc000008 	stclt	0, cr0, [r0], {8}
     ba8:	03000008 	movweq	r0, #8
     bac:	9f800800 	svcls	0x00800800
	...
     bb8:	00000001 	andeq	r0, r0, r1
     bbc:	00010100 	andeq	r0, r1, r0, lsl #2
     bc0:	01020000 	mrseq	r0, (UNDEF: 2)
     bc4:	06d00001 	ldrbeq	r0, [r0], r1
     bc8:	06e00000 	strbteq	r0, [r0], r0
     bcc:	00040000 	andeq	r0, r4, r0
     bd0:	9f7dd091 	svcls	0x007dd091
     bd4:	000006e0 	andeq	r0, r0, r0, ror #13
     bd8:	000006e4 	andeq	r0, r0, r4, ror #13
     bdc:	e4550001 	ldrb	r0, [r5], #-1
     be0:	e4000006 	str	r0, [r0], #-6
     be4:	03000006 	movweq	r0, #6
     be8:	9f017200 	svcls	0x00017200
     bec:	000006e4 	andeq	r0, r0, r4, ror #13
     bf0:	000006f0 	strdeq	r0, [r0], -r0	; <UNPREDICTABLE>
     bf4:	02720003 	rsbseq	r0, r2, #3, 0
     bf8:	0006f09f 	muleq	r6, pc, r0	; <UNPREDICTABLE>
     bfc:	00070000 	andeq	r0, r7, r0
     c00:	72000300 	andvc	r0, r0, #0, 6
     c04:	07ec9f01 	strbeq	r9, [ip, r1, lsl #30]!
     c08:	07f40000 	ldrbeq	r0, [r4, r0]!
     c0c:	00030000 	andeq	r0, r3, r0
     c10:	b89f0173 	ldmlt	pc, {r0, r1, r4, r5, r6, r8}	; <UNPREDICTABLE>
     c14:	bc000008 	stclt	0, cr0, [r0], {8}
     c18:	04000008 	streq	r0, [r0], #-8
     c1c:	7dd09100 	ldfvcp	f1, [r0]
     c20:	0000009f 	muleq	r0, pc, r0	; <UNPREDICTABLE>
     c24:	00000000 	andeq	r0, r0, r0
     c28:	b8000400 	stmdalt	r0, {sl}
     c2c:	bc000008 	stclt	0, cr0, [r0], {8}
     c30:	02000008 	andeq	r0, r0, #8, 0
     c34:	009f3200 	addseq	r3, pc, r0, lsl #4
     c38:	00000000 	andeq	r0, r0, r0
     c3c:	07000000 	streq	r0, [r0, -r0]
     c40:	06000000 	streq	r0, [r0], -r0
     c44:	0006d000 	andeq	sp, r6, r0
     c48:	0006e000 	andeq	lr, r6, r0
     c4c:	91000400 	tstls	r0, r0, lsl #8
     c50:	e09f7dd0 			; <UNDEFINED> instruction: 0xe09f7dd0
     c54:	00000006 	andeq	r0, r0, r6
     c58:	01000007 	tsteq	r0, r7
     c5c:	08b85500 	ldmeq	r8!, {r8, sl, ip, lr}
     c60:	08bc0000 	ldmeq	ip!, {}	; <UNPREDICTABLE>
     c64:	00040000 	andeq	r0, r4, r0
     c68:	9f7dd091 	svcls	0x007dd091
	...
     c74:	00000001 	andeq	r0, r0, r1
     c78:	0000070c 	andeq	r0, r0, ip, lsl #14
     c7c:	000007ec 	andeq	r0, r0, ip, ror #15
     c80:	80080003 	andhi	r0, r8, r3
     c84:	0008949f 	muleq	r8, pc, r4	; <UNPREDICTABLE>
     c88:	0008a800 	andeq	sl, r8, r0, lsl #16
     c8c:	08000300 	stmdaeq	r0, {r8, r9}
     c90:	00009f80 	andeq	r9, r0, r0, lsl #31
	...
     c9c:	070c0000 	streq	r0, [ip, -r0]
     ca0:	07ec0000 	strbeq	r0, [ip, r0]!
     ca4:	00020000 	andeq	r0, r2, r0
     ca8:	08949f30 	ldmeq	r4, {r4, r5, r8, r9, sl, fp, ip, pc}
     cac:	08a80000 	stmiaeq	r8!, {}	; <UNPREDICTABLE>
     cb0:	00020000 	andeq	r0, r2, r0
     cb4:	00009f30 	andeq	r9, r0, r0, lsr pc
	...
     cc0:	070c0000 	streq	r0, [ip, -r0]
     cc4:	07d00000 	ldrbeq	r0, [r0, r0]
     cc8:	00010000 	andeq	r0, r1, r0
     ccc:	00089455 	andeq	r9, r8, r5, asr r4
     cd0:	0008a800 	andeq	sl, r8, r0, lsl #16
     cd4:	55000100 	strpl	r0, [r0, #-256]	; 0xffffff00
	...
     ce4:	070c0000 	streq	r0, [ip, -r0]
     ce8:	07d00000 	ldrbeq	r0, [r0, r0]
     cec:	00040000 	andeq	r0, r4, r0
     cf0:	9f7dd091 	svcls	0x007dd091
     cf4:	000007d0 	ldrdeq	r0, [r0], -r0	; <UNPREDICTABLE>
     cf8:	000007ec 	andeq	r0, r0, ip, ror #15
     cfc:	94550001 	ldrbls	r0, [r5], #-1
     d00:	a8000008 	stmdage	r0, {r3}
     d04:	04000008 	streq	r0, [r0], #-8
     d08:	7dd09100 	ldfvcp	f1, [r0]
     d0c:	0000009f 	muleq	r0, pc, r0	; <UNPREDICTABLE>
	...
     d18:	00070c00 	andeq	r0, r7, r0, lsl #24
     d1c:	0007ec00 	andeq	lr, r7, r0, lsl #24
     d20:	32000200 	andcc	r0, r0, #0, 4
     d24:	0008949f 	muleq	r8, pc, r4	; <UNPREDICTABLE>
     d28:	0008a800 	andeq	sl, r8, r0, lsl #16
     d2c:	32000200 	andcc	r0, r0, #0, 4
     d30:	0000009f 	muleq	r0, pc, r0	; <UNPREDICTABLE>
     d34:	00000000 	andeq	r0, r0, r0
     d38:	05050300 	streq	r0, [r5, #-768]	; 0xfffffd00
     d3c:	00000000 	andeq	r0, r0, r0
     d40:	0c000000 	stceq	0, cr0, [r0], {-0}
     d44:	0c000007 	stceq	0, cr0, [r0], {7}
     d48:	01000007 	tsteq	r0, r7
     d4c:	070c5100 	streq	r5, [ip, -r0, lsl #2]
     d50:	071c0000 	ldreq	r0, [ip, -r0]
     d54:	00010000 	andeq	r0, r1, r0
     d58:	00071c53 	andeq	r1, r7, r3, asr ip
     d5c:	00072400 	andeq	r2, r7, r0, lsl #8
     d60:	72000300 	andvc	r0, r0, #0, 6
     d64:	07249f01 	streq	r9, [r4, -r1, lsl #30]!
     d68:	07cc0000 	strbeq	r0, [ip, r0]
     d6c:	00010000 	andeq	r0, r1, r0
     d70:	00089453 	andeq	r9, r8, r3, asr r4
     d74:	0008a800 	andeq	sl, r8, r0, lsl #16
     d78:	53000100 	movwpl	r0, #256	; 0x100
	...
     d84:	00010005 	andeq	r0, r1, r5
     d88:	0000070c 	andeq	r0, r0, ip, lsl #14
     d8c:	00000720 	andeq	r0, r0, r0, lsr #14
     d90:	24500001 	ldrbcs	r0, [r0], #-1
     d94:	2c000007 	stccs	0, cr0, [r0], {7}
     d98:	01000007 	tsteq	r0, r7
     d9c:	00005000 	andeq	r5, r0, r0
     da0:	00000000 	andeq	r0, r0, r0
     da4:	01030000 	mrseq	r0, (UNDEF: 3)
     da8:	07280100 	streq	r0, [r8, -r0, lsl #2]!
     dac:	07b00000 	ldreq	r0, [r0, r0]!
     db0:	00010000 	andeq	r0, r1, r0
     db4:	00089455 	andeq	r9, r8, r5, asr r4
     db8:	0008a000 	andeq	sl, r8, r0
     dbc:	55000100 	strpl	r0, [r0, #-256]	; 0xffffff00
	...
     dc8:	01000103 	tsteq	r0, r3, lsl #2
     dcc:	00000728 	andeq	r0, r0, r8, lsr #14
     dd0:	000007b0 			; <UNDEFINED> instruction: 0x000007b0
     dd4:	94510001 	ldrbls	r0, [r1], #-1
     dd8:	a0000008 	andge	r0, r0, r8
     ddc:	01000008 	tsteq	r0, r8
     de0:	00005100 	andeq	r5, r0, r0, lsl #2
     de4:	00000000 	andeq	r0, r0, r0
     de8:	00030000 	andeq	r0, r3, r0
     dec:	01010100 	mrseq	r0, (UNDEF: 17)
     df0:	02030301 	andeq	r0, r3, #67108864	; 0x4000000
     df4:	07280100 	streq	r0, [r8, -r0, lsl #2]!
     df8:	07500000 	ldrbeq	r0, [r0, -r0]
     dfc:	00010000 	andeq	r0, r1, r0
     e00:	00077453 	andeq	r7, r7, r3, asr r4
     e04:	00077400 	andeq	r7, r7, r0, lsl #8
     e08:	5e000100 	adfpls	f0, f0, f0
     e0c:	00000774 	andeq	r0, r0, r4, ror r7
     e10:	00000788 	andeq	r0, r0, r8, lsl #15
     e14:	017e0003 	cmneq	lr, r3
     e18:	0007889f 	muleq	r7, pc, r8	; <UNPREDICTABLE>
     e1c:	00079400 	andeq	r9, r7, r0, lsl #8
     e20:	7e000300 	cdpvc	3, 0, cr0, cr0, cr0, {0}
     e24:	07949f02 	ldreq	r9, [r4, r2, lsl #30]
     e28:	07980000 	ldreq	r0, [r8, r0]
     e2c:	00030000 	andeq	r0, r3, r0
     e30:	949f037e 	ldrls	r0, [pc], #894	; e38 <__code_start__-0x71c8>
     e34:	a0000008 	andge	r0, r0, r8
     e38:	01000008 	tsteq	r0, r8
     e3c:	00005300 	andeq	r5, r0, r0, lsl #6
	...
     e48:	01010100 	mrseq	r0, (UNDEF: 17)
     e4c:	02010101 	andeq	r0, r1, #1073741824	; 0x40000000
     e50:	072c0100 	streq	r0, [ip, -r0, lsl #2]!
     e54:	07500000 	ldrbeq	r0, [r0, -r0]
     e58:	00010000 	andeq	r0, r1, r0
     e5c:	00077450 	andeq	r7, r7, r0, asr r4
     e60:	00078400 	andeq	r8, r7, r0, lsl #8
     e64:	50000100 	andpl	r0, r0, r0, lsl #2
     e68:	00000784 	andeq	r0, r0, r4, lsl #15
     e6c:	00000794 	muleq	r0, r4, r7
     e70:	945b0001 	ldrbls	r0, [fp], #-1
     e74:	98000007 	stmdals	r0, {r0, r1, r2}
     e78:	01000007 	tsteq	r0, r7
     e7c:	07985000 	ldreq	r5, [r8, r0]
     e80:	07980000 	ldreq	r0, [r8, r0]
     e84:	00030000 	andeq	r0, r3, r0
     e88:	949f0170 	ldrls	r0, [pc], #368	; e90 <__code_start__-0x7170>
     e8c:	a0000008 	andge	r0, r0, r8
     e90:	01000008 	tsteq	r0, r8
     e94:	00005000 	andeq	r5, r0, r0
     e98:	00000000 	andeq	r0, r0, r0
     e9c:	00010000 	andeq	r0, r1, r0
     ea0:	07b00001 	ldreq	r0, [r0, r1]!
     ea4:	07ec0000 	strbeq	r0, [ip, r0]!
     ea8:	00010000 	andeq	r0, r1, r0
     eac:	0008a051 	andeq	sl, r8, r1, asr r0
     eb0:	0008a800 	andeq	sl, r8, r0, lsl #16
     eb4:	51000100 	mrspl	r0, (UNDEF: 16)
	...
     ec0:	00000001 	andeq	r0, r0, r1
     ec4:	00010100 	andeq	r0, r1, r0, lsl #2
     ec8:	07b00001 	ldreq	r0, [r0, r1]!
     ecc:	07b40000 	ldreq	r0, [r4, r0]!
     ed0:	00060000 	andeq	r0, r6, r0
     ed4:	007c0073 	rsbseq	r0, ip, r3, ror r0
     ed8:	07d49f22 	ldrbeq	r9, [r4, r2, lsr #30]
     edc:	07d80000 	ldrbeq	r0, [r8, r0]
     ee0:	00030000 	andeq	r0, r3, r0
     ee4:	d89f7f73 	ldmle	pc, {r0, r1, r4, r5, r6, r8, r9, sl, fp, ip, sp, lr}	; <UNPREDICTABLE>
     ee8:	e0000007 	and	r0, r0, r7
     eec:	01000007 	tsteq	r0, r7
     ef0:	07e05300 	strbeq	r5, [r0, r0, lsl #6]!
     ef4:	07e80000 	strbeq	r0, [r8, r0]!
     ef8:	00030000 	andeq	r0, r3, r0
     efc:	a09f7f73 	addsge	r7, pc, r3, ror pc	; <UNPREDICTABLE>
     f00:	a8000008 	stmdage	r0, {r3}
     f04:	01000008 	tsteq	r0, r8
     f08:	00005300 	andeq	r5, r0, r0, lsl #6
     f0c:	00000000 	andeq	r0, r0, r0
     f10:	00010000 	andeq	r0, r1, r0
     f14:	07b00001 	ldreq	r0, [r0, r1]!
     f18:	07ec0000 	strbeq	r0, [ip, r0]!
     f1c:	00030000 	andeq	r0, r3, r0
     f20:	a09f8008 	addsge	r8, pc, r8
     f24:	a8000008 	stmdage	r0, {r3}
     f28:	03000008 	movweq	r0, #8
     f2c:	9f800800 	svcls	0x00800800
	...
     f38:	00000001 	andeq	r0, r0, r1
     f3c:	00010100 	andeq	r0, r1, r0, lsl #2
     f40:	00010000 	andeq	r0, r1, r0
     f44:	000007b0 			; <UNDEFINED> instruction: 0x000007b0
     f48:	000007d0 	ldrdeq	r0, [r0], -r0	; <UNPREDICTABLE>
     f4c:	d0910004 	addsle	r0, r1, r4
     f50:	07d09f7d 			; <UNDEFINED> instruction: 0x07d09f7d
     f54:	07d40000 	ldrbeq	r0, [r4, r0]
     f58:	00010000 	andeq	r0, r1, r0
     f5c:	0007d455 	andeq	sp, r7, r5, asr r4
     f60:	0007d400 	andeq	sp, r7, r0, lsl #8
     f64:	7c000300 	stcvc	3, cr0, [r0], {-0}
     f68:	07d49f01 	ldrbeq	r9, [r4, r1, lsl #30]
     f6c:	07e00000 	strbeq	r0, [r0, r0]!
     f70:	00030000 	andeq	r0, r3, r0
     f74:	e09f027c 	adds	r0, pc, ip, ror r2	; <UNPREDICTABLE>
     f78:	ec000007 	stc	0, cr0, [r0], {7}
     f7c:	03000007 	movweq	r0, #7
     f80:	9f017c00 	svcls	0x00017c00
     f84:	000008a0 	andeq	r0, r0, r0, lsr #17
     f88:	000008a8 	andeq	r0, r0, r8, lsr #17
     f8c:	d0910004 	addsle	r0, r1, r4
     f90:	00009f7d 	andeq	r9, r0, sp, ror pc
     f94:	00000000 	andeq	r0, r0, r0
     f98:	00040000 	andeq	r0, r4, r0
     f9c:	07b00004 	ldreq	r0, [r0, r4]!
     fa0:	07b40000 	ldreq	r0, [r4, r0]!
     fa4:	00030000 	andeq	r0, r3, r0
     fa8:	a09f0170 	addsge	r0, pc, r0, ror r1	; <UNPREDICTABLE>
     fac:	a8000008 	stmdage	r0, {r3}
     fb0:	03000008 	movweq	r0, #8
     fb4:	9f017000 	svcls	0x00017000
	...
     fc0:	00000001 	andeq	r0, r0, r1
     fc4:	000007bc 			; <UNDEFINED> instruction: 0x000007bc
     fc8:	000007d0 	ldrdeq	r0, [r0], -r0	; <UNPREDICTABLE>
     fcc:	d0910004 	addsle	r0, r1, r4
     fd0:	07d09f7d 			; <UNDEFINED> instruction: 0x07d09f7d
     fd4:	07ec0000 	strbeq	r0, [ip, r0]!
     fd8:	00010000 	andeq	r0, r1, r0
     fdc:	00000055 	andeq	r0, r0, r5, asr r0
	...
     fe8:	00032800 	andeq	r2, r3, r0, lsl #16
     fec:	00036400 	andeq	r6, r3, r0, lsl #8
     ff0:	50000100 	andpl	r0, r0, r0, lsl #2
     ff4:	00000364 	andeq	r0, r0, r4, ror #6
     ff8:	00000388 	andeq	r0, r0, r8, lsl #7
     ffc:	01f30004 	mvnseq	r0, r4
    1000:	00009f50 	andeq	r9, r0, r0, asr pc
	...
    100c:	03280000 			; <UNDEFINED> instruction: 0x03280000
    1010:	035c0000 	cmpeq	ip, #0, 0
    1014:	00010000 	andeq	r0, r1, r0
    1018:	00035c51 	andeq	r5, r3, r1, asr ip
    101c:	00038800 	andeq	r8, r3, r0, lsl #16
    1020:	f3000400 	vshl.u8	d0, d0, d0
    1024:	009f5101 	addseq	r5, pc, r1, lsl #2
	...
    1048:	14000000 	strne	r0, [r0], #-0
    104c:	01000000 	mrseq	r0, (UNDEF: 0)
    1050:	00145000 	andseq	r5, r4, r0
    1054:	00200000 	eoreq	r0, r0, r0
    1058:	00010000 	andeq	r0, r1, r0
    105c:	0000205c 	andeq	r2, r0, ip, asr r0
    1060:	00006800 	andeq	r6, r0, r0, lsl #16
    1064:	71000300 	mrsvc	r0, LR_irq
    1068:	00689f02 	rsbeq	r9, r8, r2, lsl #30
    106c:	006c0000 	rsbeq	r0, ip, r0
    1070:	00030000 	andeq	r0, r3, r0
    1074:	6c9f0273 	lfmvs	f0, 4, [pc], {115}	; 0x73
    1078:	94000000 	strls	r0, [r0], #-0
    107c:	04000001 	streq	r0, [r0], #-1
    1080:	5001f300 	andpl	pc, r1, r0, lsl #6
    1084:	0001949f 	muleq	r1, pc, r4	; <UNPREDICTABLE>
    1088:	00019800 	andeq	r9, r1, r0, lsl #16
    108c:	73000300 	movwvc	r0, #768	; 0x300
    1090:	01989f02 	orrseq	r9, r8, r2, lsl #30
    1094:	01c00000 	biceq	r0, r0, r0
    1098:	00040000 	andeq	r0, r4, r0
    109c:	9f5001f3 	svcls	0x005001f3
    10a0:	000001c0 	andeq	r0, r0, r0, asr #3
    10a4:	000001c8 	andeq	r0, r0, r8, asr #3
    10a8:	c85c0001 	ldmdagt	ip, {r0}^
    10ac:	14000001 	strne	r0, [r0], #-1
    10b0:	03000002 	movweq	r0, #2
    10b4:	9f027300 	svcls	0x00027300
    10b8:	00000214 	andeq	r0, r0, r4, lsl r2
    10bc:	000002ec 	andeq	r0, r0, ip, ror #5
    10c0:	01f30004 	mvnseq	r0, r4
    10c4:	02ec9f50 	rsceq	r9, ip, #80, 30	; 0x140
    10c8:	02f40000 	rscseq	r0, r4, #0, 0
    10cc:	00030000 	andeq	r0, r3, r0
    10d0:	f49f0273 			; <UNDEFINED> instruction: 0xf49f0273
    10d4:	28000002 	stmdacs	r0, {r1}
    10d8:	04000003 	streq	r0, [r0], #-3
    10dc:	5001f300 	andpl	pc, r1, r0, lsl #6
    10e0:	0000009f 	muleq	r0, pc, r0	; <UNPREDICTABLE>
	...
    10f4:	00001c00 	andeq	r1, r0, r0, lsl #24
    10f8:	51000100 	mrspl	r0, (UNDEF: 16)
    10fc:	0000001c 	andeq	r0, r0, ip, lsl r0
    1100:	000002e0 	andeq	r0, r0, r0, ror #5
    1104:	e0500001 	subs	r0, r0, r1
    1108:	ec000002 	stc	0, cr0, [r0], {2}
    110c:	04000002 	streq	r0, [r0], #-2
    1110:	5101f300 	mrspl	pc, SP_irq	; <UNPREDICTABLE>
    1114:	0002ec9f 	muleq	r2, pc, ip	; <UNPREDICTABLE>
    1118:	00032800 	andeq	r2, r3, r0, lsl #16
    111c:	50000100 	andpl	r0, r0, r0, lsl #2
	...
    112c:	00000100 	andeq	r0, r0, r0, lsl #2
    1130:	00000000 	andeq	r0, r0, r0
    1134:	00020200 	andeq	r0, r2, r0, lsl #4
	...
    114c:	00000070 	andeq	r0, r0, r0, ror r0
    1150:	70520001 	subsvc	r0, r2, r1
    1154:	78000000 	stmdavc	r0, {}	; <UNPREDICTABLE>
    1158:	01000000 	mrseq	r0, (UNDEF: 0)
    115c:	00785c00 	rsbseq	r5, r8, r0, lsl #24
    1160:	00a40000 	adceq	r0, r4, r0
    1164:	00040000 	andeq	r0, r4, r0
    1168:	9f5201f3 	svcls	0x005201f3
    116c:	00000194 	muleq	r0, r4, r1
    1170:	0000019c 	muleq	r0, ip, r1
    1174:	9c520001 	mrrcls	0, 0, r0, r2, cr1
    1178:	a4000001 	strge	r0, [r0], #-1
    117c:	01000001 	tsteq	r0, r1
    1180:	01a45c00 			; <UNDEFINED> instruction: 0x01a45c00
    1184:	01c00000 	biceq	r0, r0, r0
    1188:	00040000 	andeq	r0, r4, r0
    118c:	9f5201f3 	svcls	0x005201f3
    1190:	000001c0 	andeq	r0, r0, r0, asr #3
    1194:	00000220 	andeq	r0, r0, r0, lsr #4
    1198:	20520001 	subscs	r0, r2, r1
    119c:	28000002 	stmdacs	r0, {r1}
    11a0:	04000002 	streq	r0, [r0], #-2
    11a4:	1f007200 	svcne	0x00007200
    11a8:	0002289f 	muleq	r2, pc, r8	; <UNPREDICTABLE>
    11ac:	00027400 	andeq	r7, r2, r0, lsl #8
    11b0:	f3000500 	vrshl.u8	d0, d0, d0
    11b4:	9f1f5201 	svcls	0x001f5201
    11b8:	00000274 	andeq	r0, r0, r4, ror r2
    11bc:	00000288 	andeq	r0, r0, r8, lsl #5
    11c0:	88520001 	ldmdahi	r2, {r0}^
    11c4:	a0000002 	andge	r0, r0, r2
    11c8:	01000002 	tsteq	r0, r2
    11cc:	02cc5c00 	sbceq	r5, ip, #0, 24
    11d0:	02d00000 	sbcseq	r0, r0, #0, 0
    11d4:	00010000 	andeq	r0, r1, r0
    11d8:	0002d052 	andeq	sp, r2, r2, asr r0
    11dc:	0002e700 	andeq	lr, r2, r0, lsl #14
    11e0:	5c000100 	stfpls	f0, [r0], {-0}
    11e4:	000002e7 	andeq	r0, r0, r7, ror #5
    11e8:	000002ec 	andeq	r0, r0, ip, ror #5
    11ec:	01f30004 	mvnseq	r0, r4
    11f0:	02ec9f52 	rsceq	r9, ip, #328	; 0x148
    11f4:	03000000 	movweq	r0, #0
    11f8:	00010000 	andeq	r0, r1, r0
    11fc:	00030052 	andeq	r0, r3, r2, asr r0
    1200:	00032800 	andeq	r2, r3, r0, lsl #16
    1204:	5c000100 	stfpls	f0, [r0], {-0}
	...
    1220:	00680000 	rsbeq	r0, r8, r0
    1224:	00010000 	andeq	r0, r1, r0
    1228:	00006853 	andeq	r6, r0, r3, asr r8
    122c:	00006c00 	andeq	r6, r0, r0, lsl #24
    1230:	08000300 	stmdaeq	r0, {r8, r9}
    1234:	01949f7f 	orrseq	r9, r4, pc, ror pc
    1238:	01980000 	orrseq	r0, r8, r0
    123c:	00030000 	andeq	r0, r3, r0
    1240:	c09f7f08 	addsgt	r7, pc, r8, lsl #30
    1244:	14000001 	strne	r0, [r0], #-1
    1248:	03000002 	movweq	r0, #2
    124c:	9f7f0800 	svcls	0x007f0800
    1250:	00000274 	andeq	r0, r0, r4, ror r2
    1254:	00000290 	muleq	r0, r0, r2
    1258:	90530001 	subsls	r0, r3, r1
    125c:	a0000002 	andge	r0, r0, r2
    1260:	04000002 	streq	r0, [r0], #-2
    1264:	5301f300 	movwpl	pc, #4864	; 0x1300	; <UNPREDICTABLE>
    1268:	0002ec9f 	muleq	r2, pc, ip	; <UNPREDICTABLE>
    126c:	00032800 	andeq	r2, r3, r0, lsl #16
    1270:	08000300 	stmdaeq	r0, {r8, r9}
    1274:	00009f7f 	andeq	r9, r0, pc, ror pc
    1278:	00000000 	andeq	r0, r0, r0
    127c:	00010000 	andeq	r0, r1, r0
    1280:	02000000 	andeq	r0, r0, #0, 0
    1284:	01000002 	tsteq	r0, r2
    1288:	00000001 	andeq	r0, r0, r1
    128c:	00000000 	andeq	r0, r0, r0
    1290:	00020200 	andeq	r0, r2, r0, lsl #4
    1294:	00010000 	andeq	r0, r1, r0
    1298:	00000000 	andeq	r0, r0, r0
    129c:	01000000 	mrseq	r0, (UNDEF: 0)
    12a0:	00000001 	andeq	r0, r0, r1
    12a4:	00020200 	andeq	r0, r2, r0, lsl #4
    12a8:	00000000 	andeq	r0, r0, r0
    12ac:	00010100 	andeq	r0, r1, r0, lsl #2
    12b0:	00180000 	andseq	r0, r8, r0
    12b4:	00700000 	rsbseq	r0, r0, r0
    12b8:	00040000 	andeq	r0, r4, r0
    12bc:	9f7fa091 	svcls	0x007fa091
    12c0:	00000070 	andeq	r0, r0, r0, ror r0
    12c4:	00000078 	andeq	r0, r0, r8, ror r0
    12c8:	78520001 	ldmdavc	r2, {r0}^
    12cc:	78000000 	stmdavc	r0, {}	; <UNPREDICTABLE>
    12d0:	01000000 	mrseq	r0, (UNDEF: 0)
    12d4:	00785400 	rsbseq	r5, r8, r0, lsl #8
    12d8:	00880000 	addeq	r0, r8, r0
    12dc:	00030000 	andeq	r0, r3, r0
    12e0:	889f0174 	ldmhi	pc, {r2, r4, r5, r6, r8}	; <UNPREDICTABLE>
    12e4:	90000000 	andls	r0, r0, r0
    12e8:	01000000 	mrseq	r0, (UNDEF: 0)
    12ec:	00905400 	addseq	r5, r0, r0, lsl #8
    12f0:	00a00000 	adceq	r0, r0, r0
    12f4:	00030000 	andeq	r0, r3, r0
    12f8:	a09f0274 	addsge	r0, pc, r4, ror r2	; <UNPREDICTABLE>
    12fc:	b0000000 	andlt	r0, r0, r0
    1300:	01000000 	mrseq	r0, (UNDEF: 0)
    1304:	01945e00 	orrseq	r5, r4, r0, lsl #28
    1308:	019c0000 	orrseq	r0, ip, r0
    130c:	00040000 	andeq	r0, r4, r0
    1310:	9f7fa091 	svcls	0x007fa091
    1314:	0000019c 	muleq	r0, ip, r1
    1318:	000001a4 	andeq	r0, r0, r4, lsr #3
    131c:	a4520001 	ldrbge	r0, [r2], #-1
    1320:	a4000001 	strge	r0, [r0], #-1
    1324:	01000001 	tsteq	r0, r1
    1328:	01a45e00 			; <UNDEFINED> instruction: 0x01a45e00
    132c:	01b40000 			; <UNDEFINED> instruction: 0x01b40000
    1330:	00030000 	andeq	r0, r3, r0
    1334:	b49f017e 	ldrlt	r0, [pc], #382	; 133c <__code_start__-0x6cc4>
    1338:	c0000001 	andgt	r0, r0, r1
    133c:	01000001 	tsteq	r0, r1
    1340:	01c05e00 	biceq	r5, r0, r0, lsl #28
    1344:	02280000 	eoreq	r0, r8, #0, 0
    1348:	00040000 	andeq	r0, r4, r0
    134c:	9f7fa091 	svcls	0x007fa091
    1350:	00000228 	andeq	r0, r0, r8, lsr #4
    1354:	00000234 	andeq	r0, r0, r4, lsr r2
    1358:	34520001 	ldrbcc	r0, [r2], #-1
    135c:	58000002 	stmdapl	r0, {r1}
    1360:	01000002 	tsteq	r0, r2
    1364:	02585e00 	subseq	r5, r8, #0, 28
    1368:	025c0000 	subseq	r0, ip, #0, 0
    136c:	00030000 	andeq	r0, r3, r0
    1370:	5c9f017e 	ldfpls	f0, [pc], {126}	; 0x7e
    1374:	64000002 	strvs	r0, [r0], #-2
    1378:	01000002 	tsteq	r0, r2
    137c:	02645e00 	rsbeq	r5, r4, #0, 28
    1380:	02700000 	rsbseq	r0, r0, #0, 0
    1384:	00030000 	andeq	r0, r3, r0
    1388:	709f0271 	addsvc	r0, pc, r1, ror r2	; <UNPREDICTABLE>
    138c:	74000002 	strvc	r0, [r0], #-2
    1390:	01000002 	tsteq	r0, r2
    1394:	02745e00 	rsbseq	r5, r4, #0, 28
    1398:	02740000 	rsbseq	r0, r4, #0, 0
    139c:	00040000 	andeq	r0, r4, r0
    13a0:	9f7fa091 	svcls	0x007fa091
    13a4:	00000274 	andeq	r0, r0, r4, ror r2
    13a8:	000002a0 	andeq	r0, r0, r0, lsr #5
    13ac:	a1910004 	orrsge	r0, r1, r4
    13b0:	02c09f7f 	sbceq	r9, r0, #508	; 0x1fc
    13b4:	02c80000 	sbceq	r0, r8, #0, 0
    13b8:	00010000 	andeq	r0, r1, r0
    13bc:	0002c85e 	andeq	ip, r2, lr, asr r8
    13c0:	0002cc00 	andeq	ip, r2, r0, lsl #24
    13c4:	56000100 	strpl	r0, [r0], -r0, lsl #2
    13c8:	000002cc 	andeq	r0, r0, ip, asr #5
    13cc:	000002ec 	andeq	r0, r0, ip, ror #5
    13d0:	a0910004 	addsge	r0, r1, r4
    13d4:	02ec9f7f 	rsceq	r9, ip, #508	; 0x1fc
    13d8:	02fc0000 	rscseq	r0, ip, #0, 0
    13dc:	00040000 	andeq	r0, r4, r0
    13e0:	9f7fa191 	svcls	0x007fa191
    13e4:	000002fc 	strdeq	r0, [r0], -ip
    13e8:	00000328 	andeq	r0, r0, r8, lsr #6
    13ec:	005e0001 	subseq	r0, lr, r1
	...
    1404:	01010000 	mrseq	r0, (UNDEF: 1)
	...
    1418:	00002000 	andeq	r2, r0, r0
    141c:	00007000 	andeq	r7, r0, r0
    1420:	52000100 	andpl	r0, r0, #0
    1424:	00000070 	andeq	r0, r0, r0, ror r0
    1428:	00000094 	muleq	r0, r4, r0
    142c:	945c0001 	ldrbls	r0, [ip], #-1
    1430:	9c000001 	stcls	0, cr0, [r0], {1}
    1434:	01000001 	tsteq	r0, r1
    1438:	019c5200 	orrseq	r5, ip, r0, lsl #4
    143c:	01c00000 	biceq	r0, r0, r0
    1440:	00010000 	andeq	r0, r1, r0
    1444:	0001c85c 	andeq	ip, r1, ip, asr r8
    1448:	00021000 	andeq	r1, r2, r0
    144c:	5c000100 	stfpls	f0, [r0], {-0}
    1450:	00000210 	andeq	r0, r0, r0, lsl r2
    1454:	00000224 	andeq	r0, r0, r4, lsr #4
    1458:	24520001 	ldrbcs	r0, [r2], #-1
    145c:	48000002 	stmdami	r0, {r1}
    1460:	01000002 	tsteq	r0, r2
    1464:	02485c00 	subeq	r5, r8, #0, 24
    1468:	025c0000 	subseq	r0, ip, #0, 0
    146c:	00010000 	andeq	r0, r1, r0
    1470:	00025c55 	andeq	r5, r2, r5, asr ip
    1474:	00026800 	andeq	r6, r2, r0, lsl #16
    1478:	5c000100 	stfpls	f0, [r0], {-0}
    147c:	00000268 	andeq	r0, r0, r8, ror #4
    1480:	00000274 	andeq	r0, r0, r4, ror r2
    1484:	00750019 	rsbseq	r0, r5, r9, lsl r0
    1488:	25f72cf7 	ldrbcs	r2, [r7, #3319]!	; 0xcf7
    148c:	2cf70076 	ldclcs	0, cr0, [r7], #472	; 0x1d8
    1490:	081e25f7 	ldmdaeq	lr, {r0, r1, r2, r4, r5, r6, r7, r8, sl, sp}
    1494:	2525f720 	strcs	pc, [r5, #-1824]!	; 0xfffff8e0
    1498:	00f72cf7 	ldrshteq	r2, [r7], #199	; 0xc7
    149c:	749f2533 	ldrvc	r2, [pc], #1331	; 14a4 <__code_start__-0x6b5c>
    14a0:	88000002 	stmdahi	r0, {r1}
    14a4:	01000002 	tsteq	r0, r2
    14a8:	02885200 	addeq	r5, r8, #0, 4
    14ac:	02a00000 	adceq	r0, r0, #0, 0
    14b0:	00010000 	andeq	r0, r1, r0
    14b4:	0002cc5c 	andeq	ip, r2, ip, asr ip
    14b8:	0002d000 	andeq	sp, r2, r0
    14bc:	52000100 	andpl	r0, r0, #0
    14c0:	000002d0 	ldrdeq	r0, [r0], -r0	; <UNPREDICTABLE>
    14c4:	000002e7 	andeq	r0, r0, r7, ror #5
    14c8:	e75c0001 	ldrb	r0, [ip, -r1]
    14cc:	ec000002 	stc	0, cr0, [r0], {2}
    14d0:	04000002 	streq	r0, [r0], #-2
    14d4:	5201f300 	andpl	pc, r1, #0, 6
    14d8:	0002ec9f 	muleq	r2, pc, ip	; <UNPREDICTABLE>
    14dc:	00030000 	andeq	r0, r3, r0
    14e0:	52000100 	andpl	r0, r0, #0
    14e4:	00000300 	andeq	r0, r0, r0, lsl #6
    14e8:	00000328 	andeq	r0, r0, r8, lsr #6
    14ec:	005c0001 	subseq	r0, ip, r1
    14f0:	00000000 	andeq	r0, r0, r0
    14f4:	04000000 	streq	r0, [r0], #-0
    14f8:	00000400 	andeq	r0, r0, r0, lsl #8
    14fc:	04000001 	streq	r0, [r0], #-1
    1500:	0000a400 	andeq	sl, r0, r0, lsl #8
    1504:	0000b000 	andeq	fp, r0, r0
    1508:	53000100 	movwpl	r0, #256	; 0x100
    150c:	0000027c 	andeq	r0, r0, ip, ror r2
    1510:	00000290 	muleq	r0, r0, r2
    1514:	90530001 	subsls	r0, r3, r1
    1518:	9c000002 	stcls	0, cr0, [r0], {2}
    151c:	04000002 	streq	r0, [r0], #-2
    1520:	5301f300 	movwpl	pc, #4864	; 0x1300	; <UNPREDICTABLE>
    1524:	0002c09f 	muleq	r2, pc, r0	; <UNPREDICTABLE>
    1528:	0002cc00 	andeq	ip, r2, r0, lsl #24
    152c:	53000100 	movwpl	r0, #256	; 0x100
    1530:	000002f0 	strdeq	r0, [r0], -r0	; <UNPREDICTABLE>
    1534:	00000328 	andeq	r0, r0, r8, lsr #6
    1538:	7f080003 	svcvc	0x00080003
    153c:	0000009f 	muleq	r0, pc, r0	; <UNPREDICTABLE>
    1540:	00000000 	andeq	r0, r0, r0
    1544:	00000400 	andeq	r0, r0, r0, lsl #8
    1548:	00000401 	andeq	r0, r0, r1, lsl #8
    154c:	00000001 	andeq	r0, r0, r1
    1550:	00000400 	andeq	r0, r0, r0, lsl #8
    1554:	0000a400 	andeq	sl, r0, r0, lsl #8
    1558:	0000b000 	andeq	fp, r0, r0
    155c:	52000100 	andpl	r0, r0, #0
    1560:	000000b0 	strheq	r0, [r0], -r0	; <UNPREDICTABLE>
    1564:	0000015c 	andeq	r0, r0, ip, asr r1
    1568:	a0910004 	addsge	r0, r1, r4
    156c:	027c9f7f 	rsbseq	r9, ip, #508	; 0x1fc
    1570:	02940000 	addseq	r0, r4, #0, 0
    1574:	00040000 	andeq	r0, r4, r0
    1578:	9f7fa091 	svcls	0x007fa091
    157c:	00000294 	muleq	r0, r4, r2
    1580:	0000029c 	muleq	r0, ip, r2
    1584:	b45e0001 	ldrblt	r0, [lr], #-1
    1588:	c0000002 	andgt	r0, r0, r2
    158c:	04000002 	streq	r0, [r0], #-2
    1590:	7fa09100 	svcvc	0x00a09100
    1594:	0002c09f 	muleq	r2, pc, r0	; <UNPREDICTABLE>
    1598:	0002cc00 	andeq	ip, r2, r0, lsl #24
    159c:	52000100 	andpl	r0, r0, #0
    15a0:	000002f0 	strdeq	r0, [r0], -r0	; <UNPREDICTABLE>
    15a4:	00000300 	andeq	r0, r0, r0, lsl #6
    15a8:	a0910004 	addsge	r0, r1, r4
    15ac:	03009f7f 	movweq	r9, #3967	; 0xf7f
    15b0:	03280000 			; <UNDEFINED> instruction: 0x03280000
    15b4:	00010000 	andeq	r0, r1, r0
    15b8:	00000052 	andeq	r0, r0, r2, asr r0
    15bc:	00000000 	andeq	r0, r0, r0
    15c0:	00000400 	andeq	r0, r0, r0, lsl #8
    15c4:	01010101 	tsteq	r1, r1, lsl #2
    15c8:	04020303 	streq	r0, [r2], #-771	; 0xfffffcfd
    15cc:	00000001 	andeq	r0, r0, r1
    15d0:	00000400 	andeq	r0, r0, r0, lsl #8
    15d4:	0000a400 	andeq	sl, r0, r0, lsl #8
    15d8:	0000b000 	andeq	fp, r0, r0
    15dc:	5e000100 	adfpls	f0, f0, f0
    15e0:	0000010c 	andeq	r0, r0, ip, lsl #2
    15e4:	0000010c 	andeq	r0, r0, ip, lsl #2
    15e8:	0c550001 	mrrceq	0, 0, r0, r5, cr1
    15ec:	20000001 	andcs	r0, r0, r1
    15f0:	03000001 	movweq	r0, #1
    15f4:	9f017500 	svcls	0x00017500
    15f8:	00000120 	andeq	r0, r0, r0, lsr #2
    15fc:	0000012c 	andeq	r0, r0, ip, lsr #2
    1600:	02750003 	rsbseq	r0, r5, #3, 0
    1604:	00012c9f 	muleq	r1, pc, ip	; <UNPREDICTABLE>
    1608:	00013000 	andeq	r3, r1, r0
    160c:	75000300 	strvc	r0, [r0, #-768]	; 0xfffffd00
    1610:	027c9f03 	rsbseq	r9, ip, #3, 30
    1614:	029c0000 	addseq	r0, ip, #0, 0
    1618:	00040000 	andeq	r0, r4, r0
    161c:	9f7fa191 	svcls	0x007fa191
    1620:	000002c0 	andeq	r0, r0, r0, asr #5
    1624:	000002c8 	andeq	r0, r0, r8, asr #5
    1628:	c85e0001 	ldmdagt	lr, {r0}^
    162c:	cc000002 	stcgt	0, cr0, [r0], {2}
    1630:	01000002 	tsteq	r0, r2
    1634:	02f05600 	rscseq	r5, r0, #0, 12
    1638:	02fc0000 	rscseq	r0, ip, #0, 0
    163c:	00040000 	andeq	r0, r4, r0
    1640:	9f7fa191 	svcls	0x007fa191
    1644:	000002fc 	strdeq	r0, [r0], -ip
    1648:	00000328 	andeq	r0, r0, r8, lsr #6
    164c:	005e0001 	subseq	r0, lr, r1
	...
    1658:	01010000 	mrseq	r0, (UNDEF: 1)
    165c:	01010101 	tsteq	r1, r1, lsl #2
    1660:	00010602 	andeq	r0, r1, r2, lsl #12
    1664:	a8000600 	stmdage	r0, {r9, sl}
    1668:	b0000000 	andlt	r0, r0, r0
    166c:	01000000 	mrseq	r0, (UNDEF: 0)
    1670:	010c5100 	mrseq	r5, (UNDEF: 28)
    1674:	011c0000 	tsteq	ip, r0
    1678:	00010000 	andeq	r0, r1, r0
    167c:	00011c5c 	andeq	r1, r1, ip, asr ip
    1680:	00012c00 	andeq	r2, r1, r0, lsl #24
    1684:	58000100 	stmdapl	r0, {r8}
    1688:	0000012c 	andeq	r0, r0, ip, lsr #2
    168c:	00000130 	andeq	r0, r0, r0, lsr r1
    1690:	305c0001 	subscc	r0, ip, r1
    1694:	30000001 	andcc	r0, r0, r1
    1698:	03000001 	movweq	r0, #1
    169c:	9f017c00 	svcls	0x00017c00
    16a0:	0000027c 	andeq	r0, r0, ip, ror r2
    16a4:	0000029c 	muleq	r0, ip, r2
    16a8:	9f310002 	svcls	0x00310002
    16ac:	000002c0 	andeq	r0, r0, r0, asr #5
    16b0:	000002cc 	andeq	r0, r0, ip, asr #5
    16b4:	f0510001 			; <UNDEFINED> instruction: 0xf0510001
    16b8:	28000002 	stmdacs	r0, {r1}
    16bc:	02000003 	andeq	r0, r0, #3, 0
    16c0:	009f3100 	addseq	r3, pc, r0, lsl #2
    16c4:	00000000 	andeq	r0, r0, r0
    16c8:	01000000 	mrseq	r0, (UNDEF: 0)
    16cc:	01010606 	tsteq	r1, r6, lsl #12
    16d0:	5c010000 	stcpl	0, cr0, [r1], {-0}
    16d4:	5c000001 	stcpl	0, cr0, [r0], {1}
    16d8:	04000001 	streq	r0, [r0], #-1
    16dc:	7fa09100 	svcvc	0x00a09100
    16e0:	00015c9f 	muleq	r1, pc, ip	; <UNPREDICTABLE>
    16e4:	00018c00 	andeq	r8, r1, r0, lsl #24
    16e8:	52000100 	andpl	r0, r0, #0
    16ec:	0000029c 	muleq	r0, ip, r2
    16f0:	000002a0 	andeq	r0, r0, r0, lsr #5
    16f4:	a05e0001 	subsge	r0, lr, r1
    16f8:	ac000002 	stcge	0, cr0, [r0], {2}
    16fc:	01000002 	tsteq	r0, r2
    1700:	00005200 	andeq	r5, r0, r0, lsl #4
	...
    170c:	00010100 	andeq	r0, r1, r0, lsl #2
    1710:	016c0701 	cmneq	ip, r1, lsl #14
    1714:	01700000 	cmneq	r0, r0
    1718:	00030000 	andeq	r0, r3, r0
    171c:	709f7f73 	addsvc	r7, pc, r3, ror pc	; <UNPREDICTABLE>
    1720:	78000001 	stmdavc	r0, {r0}
    1724:	01000001 	tsteq	r0, r1
    1728:	01785300 	cmneq	r8, r0, lsl #6
    172c:	01840000 	orreq	r0, r4, r0
    1730:	00030000 	andeq	r0, r3, r0
    1734:	9c9f7f73 	ldcls	15, cr7, [pc], {115}	; 0x73
    1738:	9c000002 	stcls	0, cr0, [r0], {2}
    173c:	04000002 	streq	r0, [r0], #-2
    1740:	7fa19100 	svcvc	0x00a19100
    1744:	0000009f 	muleq	r0, pc, r0	; <UNPREDICTABLE>
    1748:	00000000 	andeq	r0, r0, r0
    174c:	01010100 	mrseq	r0, (UNDEF: 17)
    1750:	00015c01 	andeq	r5, r1, r1, lsl #24
    1754:	00018c00 	andeq	r8, r1, r0, lsl #24
    1758:	08000300 	stmdaeq	r0, {r8, r9}
    175c:	029c9f80 	addseq	r9, ip, #128, 30	; 0x200
    1760:	02ac0000 	adceq	r0, ip, #0, 0
    1764:	00030000 	andeq	r0, r3, r0
    1768:	009f8008 	addseq	r8, pc, r8
    176c:	00000000 	andeq	r0, r0, r0
    1770:	01000000 	mrseq	r0, (UNDEF: 0)
    1774:	01010000 	mrseq	r0, (UNDEF: 1)
    1778:	01010000 	mrseq	r0, (UNDEF: 1)
    177c:	01010101 	tsteq	r1, r1, lsl #2
    1780:	00015c01 	andeq	r5, r1, r1, lsl #24
    1784:	00016c00 	andeq	r6, r1, r0, lsl #24
    1788:	50000100 	andpl	r0, r0, r0, lsl #2
    178c:	0000016c 	andeq	r0, r0, ip, ror #2
    1790:	0000016c 	andeq	r0, r0, ip, ror #2
    1794:	017c0003 	cmneq	ip, r3
    1798:	00016c9f 	muleq	r1, pc, ip	; <UNPREDICTABLE>
    179c:	00017800 	andeq	r7, r1, r0, lsl #16
    17a0:	7c000300 	stcvc	3, cr0, [r0], {-0}
    17a4:	01789f02 	cmneq	r8, r2, lsl #30
    17a8:	01880000 	orreq	r0, r8, r0
    17ac:	00030000 	andeq	r0, r3, r0
    17b0:	889f017c 	ldmhi	pc, {r2, r3, r4, r5, r6, r8}	; <UNPREDICTABLE>
    17b4:	8c000001 	stchi	0, cr0, [r0], {1}
    17b8:	03000001 	movweq	r0, #1
    17bc:	9f017e00 	svcls	0x00017e00
    17c0:	0000029c 	muleq	r0, ip, r2
    17c4:	000002a4 	andeq	r0, r0, r4, lsr #5
    17c8:	a4500001 	ldrbge	r0, [r0], #-1
    17cc:	ac000002 	stcge	0, cr0, [r0], {2}
    17d0:	03000002 	movweq	r0, #2
    17d4:	9f017e00 	svcls	0x00017e00
	...
    17e0:	00040004 	andeq	r0, r4, r4
    17e4:	015c0100 	cmpeq	ip, r0, lsl #2
    17e8:	01600000 	cmneq	r0, r0
    17ec:	00030000 	andeq	r0, r3, r0
    17f0:	9c9f0171 	ldflss	f0, [pc], {113}	; 0x71
    17f4:	a0000002 	andge	r0, r0, r2
    17f8:	02000002 	andeq	r0, r0, #2, 0
    17fc:	a09f3200 	addsge	r3, pc, r0, lsl #4
    1800:	ac000002 	stcge	0, cr0, [r0], {2}
    1804:	03000002 	movweq	r0, #2
    1808:	9f017100 	svcls	0x00017100
	...
    1814:	00060007 	andeq	r0, r6, r7
    1818:	0000015c 	andeq	r0, r0, ip, asr r1
    181c:	00000194 	muleq	r0, r4, r1
    1820:	9c500001 	mrrcls	0, 0, r0, r0, cr1	; <UNPREDICTABLE>
    1824:	b4000002 	strlt	r0, [r0], #-2
    1828:	01000002 	tsteq	r0, r2
    182c:	00005000 	andeq	r5, r0, r0
    1830:	00000000 	andeq	r0, r0, r0
    1834:	01010000 	mrseq	r0, (UNDEF: 1)
    1838:	02140001 	andseq	r0, r4, #1, 0
    183c:	02200000 	eoreq	r0, r0, #0, 0
    1840:	00020000 	andeq	r0, r2, r0
    1844:	02209f30 	eoreq	r9, r0, #48, 30	; 0xc0
    1848:	02340000 	eorseq	r0, r4, #0, 0
    184c:	00020000 	andeq	r0, r2, r0
    1850:	00009f31 	andeq	r9, r0, r1, lsr pc
    1854:	00000000 	andeq	r0, r0, r0
    1858:	01000000 	mrseq	r0, (UNDEF: 0)
    185c:	01000001 	tsteq	r0, r1
    1860:	01000001 	tsteq	r0, r1
    1864:	01000001 	tsteq	r0, r1
    1868:	01000001 	tsteq	r0, r1
    186c:	02000001 	andeq	r0, r0, #1, 0
    1870:	00800102 	addeq	r0, r0, r2, lsl #2
    1874:	00800000 	addeq	r0, r0, r0
    1878:	00010000 	andeq	r0, r1, r0
    187c:	00008053 	andeq	r8, r0, r3, asr r0
    1880:	00008c00 	andeq	r8, r0, r0, lsl #24
    1884:	73000300 	movwvc	r0, #768	; 0x300
    1888:	008c9f04 	addeq	r9, ip, r4, lsl #30
    188c:	00940000 	addseq	r0, r4, r0
    1890:	00010000 	andeq	r0, r1, r0
    1894:	00009451 	andeq	r9, r0, r1, asr r4
    1898:	00009800 	andeq	r9, r0, r0, lsl #16
    189c:	73000300 	movwvc	r0, #768	; 0x300
    18a0:	00989f08 	addseq	r9, r8, r8, lsl #30
    18a4:	00a40000 	adceq	r0, r4, r0
    18a8:	00010000 	andeq	r0, r1, r0
    18ac:	0000a451 	andeq	sl, r0, r1, asr r4
    18b0:	0000a800 	andeq	sl, r0, r0, lsl #16
    18b4:	73000300 	movwvc	r0, #768	; 0x300
    18b8:	00a89f0c 	adceq	r9, r8, ip, lsl #30
    18bc:	00b40000 	adcseq	r0, r4, r0
    18c0:	00010000 	andeq	r0, r1, r0
    18c4:	0000b451 	andeq	fp, r0, r1, asr r4
    18c8:	0000b800 	andeq	fp, r0, r0, lsl #16
    18cc:	73000300 	movwvc	r0, #768	; 0x300
    18d0:	00b89f10 	adcseq	r9, r8, r0, lsl pc
    18d4:	00c40000 	sbceq	r0, r4, r0
    18d8:	00010000 	andeq	r0, r1, r0
    18dc:	0000c451 	andeq	ip, r0, r1, asr r4
    18e0:	0000c800 	andeq	ip, r0, r0, lsl #16
    18e4:	73000300 	movwvc	r0, #768	; 0x300
    18e8:	00c89f14 	sbceq	r9, r8, r4, lsl pc
    18ec:	00d00000 	sbcseq	r0, r0, r0
    18f0:	00010000 	andeq	r0, r1, r0
    18f4:	0000d051 	andeq	sp, r0, r1, asr r0
    18f8:	0000d400 	andeq	sp, r0, r0, lsl #8
    18fc:	71000300 	mrsvc	r0, LR_irq
    1900:	00009f04 	andeq	r9, r0, r4, lsl #30
    1904:	00000000 	andeq	r0, r0, r0
    1908:	00020000 	andeq	r0, r2, r0
    190c:	000000d8 	ldrdeq	r0, [r0], -r8
    1910:	000000e8 	andeq	r0, r0, r8, ror #1
    1914:	9f310002 	svcls	0x00310002
	...
    1920:	01000004 	tsteq	r0, r4
    1924:	00008e84 	andeq	r8, r0, r4, lsl #29
    1928:	00008e8c 	andeq	r8, r0, ip, lsl #29
    192c:	9f300002 	svcls	0x00300002
    1930:	00008e8c 	andeq	r8, r0, ip, lsl #29
    1934:	00008e8c 	andeq	r8, r0, ip, lsl #29
    1938:	00530001 	subseq	r0, r3, r1
    193c:	00000000 	andeq	r0, r0, r0
    1940:	03000000 	movweq	r0, #0
    1944:	00000000 	andeq	r0, r0, r0
    1948:	98000000 	stmdals	r0, {}	; <UNPREDICTABLE>
    194c:	9c00008e 	stcls	0, cr0, [r0], {142}	; 0x8e
    1950:	0200008e 	andeq	r0, r0, #142, 0	; 0x8e
    1954:	9c9f3000 	ldcls	0, cr3, [pc], {0}
    1958:	a000008e 	andge	r0, r0, lr, lsl #1
    195c:	0100008e 	smlabbeq	r0, lr, r0, r0
    1960:	8ea05300 	cdphi	3, 10, cr5, cr0, cr0, {0}
    1964:	8ea40000 	cdphi	0, 10, cr0, cr4, cr0, {0}
    1968:	00050000 	andeq	r0, r5, r0
    196c:	21400073 	hvccs	3
    1970:	008ea49f 	umulleq	sl, lr, pc, r4	; <UNPREDICTABLE>
    1974:	008ea800 	addeq	sl, lr, r0, lsl #16
    1978:	53000100 	movwpl	r0, #256	; 0x100
	...
    1984:	00000002 	andeq	r0, r0, r2
    1988:	00008e58 	andeq	r8, r0, r8, asr lr
    198c:	00008e5c 	andeq	r8, r0, ip, asr lr
    1990:	9f300002 	svcls	0x00300002
    1994:	00008e5c 	andeq	r8, r0, ip, asr lr
    1998:	00008e60 	andeq	r8, r0, r0, ror #28
    199c:	00500001 	subseq	r0, r0, r1
    19a0:	00000000 	andeq	r0, r0, r0
    19a4:	02000000 	andeq	r0, r0, #0, 0
    19a8:	00000000 	andeq	r0, r0, r0
    19ac:	70000000 	andvc	r0, r0, r0
    19b0:	7400008e 	strvc	r0, [r0], #-142	; 0xffffff72
    19b4:	0200008e 	andeq	r0, r0, #142, 0	; 0x8e
    19b8:	749f3000 	ldrvc	r3, [pc], #0	; 19c0 <__code_start__-0x6640>
    19bc:	7800008e 	stmdavc	r0, {r1, r2, r3, r7}
    19c0:	0100008e 	smlabbeq	r0, lr, r0, r0
    19c4:	8e785300 	cdphi	3, 7, cr5, cr8, cr0, {0}
    19c8:	8e7c0000 	cdphi	0, 7, cr0, cr12, cr0, {0}
    19cc:	00050000 	andeq	r0, r5, r0
    19d0:	21400073 	hvccs	3
    19d4:	008e7c9f 	umulleq	r7, lr, pc, ip	; <UNPREDICTABLE>
    19d8:	008e8400 	addeq	r8, lr, r0, lsl #8
    19dc:	53000100 	movwpl	r0, #256	; 0x100
	...
    19ec:	000000c8 	andeq	r0, r0, r8, asr #1
    19f0:	000000d8 	ldrdeq	r0, [r0], -r8
    19f4:	d8500001 	ldmdale	r0, {r0}^
    19f8:	1c000000 	stcne	0, cr0, [r0], {-0}
    19fc:	04000001 	streq	r0, [r0], #-1
    1a00:	5001f300 	andpl	pc, r1, r0, lsl #6
    1a04:	0000009f 	muleq	r0, pc, r0	; <UNPREDICTABLE>
    1a08:	00000000 	andeq	r0, r0, r0
    1a0c:	00000200 	andeq	r0, r0, r0, lsl #4
    1a10:	0000c800 	andeq	ip, r0, r0, lsl #16
    1a14:	0000d800 	andeq	sp, r0, r0, lsl #16
    1a18:	70000700 	andvc	r0, r0, r0, lsl #14
    1a1c:	03e80a00 	mvneq	r0, #0, 20
    1a20:	00d89f1e 	sbcseq	r9, r8, lr, lsl pc
    1a24:	011c0000 	tsteq	ip, r0
    1a28:	00080000 	andeq	r0, r8, r0
    1a2c:	0a5001f3 	beq	1402200 <__bss_end__+0x13f80d8>
    1a30:	9f1e03e8 	svcls	0x001e03e8
	...
    1a3c:	00dc0000 	sbcseq	r0, ip, r0
    1a40:	011c0000 	tsteq	ip, r0
    1a44:	00010000 	andeq	r0, r1, r0
    1a48:	00000054 	andeq	r0, r0, r4, asr r0
    1a4c:	00000000 	andeq	r0, r0, r0
    1a50:	f0000100 			; <UNDEFINED> instruction: 0xf0000100
    1a54:	1c000000 	stcne	0, cr0, [r0], {-0}
    1a58:	01000001 	tsteq	r0, r1
    1a5c:	00005600 	andeq	r5, r0, r0, lsl #12
	...
    1a68:	00ec0000 	rsceq	r0, ip, r0
    1a6c:	00ef0000 	rsceq	r0, pc, r0
    1a70:	00010000 	andeq	r0, r1, r0
    1a74:	0000ef50 	andeq	lr, r0, r0, asr pc
    1a78:	00011c00 	andeq	r1, r1, r0, lsl #24
    1a7c:	56000100 	strpl	r0, [r0], -r0, lsl #2
	...
    1a88:	01040000 	mrseq	r0, (UNDEF: 4)
    1a8c:	010b0000 	mrseq	r0, (UNDEF: 11)
    1a90:	00010000 	andeq	r0, r1, r0
    1a94:	00000050 	andeq	r0, r0, r0, asr r0
	...
    1aa0:	00002000 	andeq	r2, r0, r0
    1aa4:	00002300 	andeq	r2, r0, r0, lsl #6
    1aa8:	50000100 	andpl	r0, r0, r0, lsl #2
    1aac:	00000023 	andeq	r0, r0, r3, lsr #32
    1ab0:	00000030 	andeq	r0, r0, r0, lsr r0
    1ab4:	00540001 	subseq	r0, r4, r1
	...
    1ac0:	30000000 	andcc	r0, r0, r0
    1ac4:	3b000000 	blcc	1acc <__code_start__-0x6534>
    1ac8:	01000000 	mrseq	r0, (UNDEF: 0)
    1acc:	003b5000 	eorseq	r5, fp, r0
    1ad0:	00780000 	rsbseq	r0, r8, r0
    1ad4:	00010000 	andeq	r0, r1, r0
    1ad8:	00000056 	andeq	r0, r0, r6, asr r0
    1adc:	00000000 	andeq	r0, r0, r0
    1ae0:	4c000100 	stfmis	f0, [r0], {-0}
    1ae4:	78000000 	stmdavc	r0, {}	; <UNPREDICTABLE>
    1ae8:	01000000 	mrseq	r0, (UNDEF: 0)
    1aec:	00005500 	andeq	r5, r0, r0, lsl #10
	...
    1af8:	00480000 	subeq	r0, r8, r0
    1afc:	004b0000 	subeq	r0, fp, r0
    1b00:	00010000 	andeq	r0, r1, r0
    1b04:	00004b50 	andeq	r4, r0, r0, asr fp
    1b08:	00007800 	andeq	r7, r0, r0, lsl #16
    1b0c:	55000100 	strpl	r0, [r0, #-256]	; 0xffffff00
	...
    1b18:	00600000 	rsbeq	r0, r0, r0
    1b1c:	00670000 	rsbeq	r0, r7, r0
    1b20:	00010000 	andeq	r0, r1, r0
    1b24:	00000050 	andeq	r0, r0, r0, asr r0
	...
    1b30:	00007800 	andeq	r7, r0, r0, lsl #16
    1b34:	00008400 	andeq	r8, r0, r0, lsl #8
    1b38:	50000100 	andpl	r0, r0, r0, lsl #2
    1b3c:	00000084 	andeq	r0, r0, r4, lsl #1
    1b40:	000000c8 	andeq	r0, r0, r8, asr #1
    1b44:	01f30004 	mvnseq	r0, r4
    1b48:	00009f50 	andeq	r9, r0, r0, asr pc
	...
    1b54:	00000088 	andeq	r0, r0, r8, lsl #1
    1b58:	000000c8 	andeq	r0, r0, r8, asr #1
    1b5c:	00540001 	subseq	r0, r4, r1
    1b60:	00000000 	andeq	r0, r0, r0
    1b64:	01000000 	mrseq	r0, (UNDEF: 0)
    1b68:	00009c00 	andeq	r9, r0, r0, lsl #24
    1b6c:	0000c800 	andeq	ip, r0, r0, lsl #16
    1b70:	56000100 	strpl	r0, [r0], -r0, lsl #2
	...
    1b80:	00000098 	muleq	r0, r8, r0
    1b84:	0000009b 	muleq	r0, fp, r0
    1b88:	9b500001 	blls	1401b94 <__bss_end__+0x13f7a6c>
    1b8c:	c8000000 	stmdagt	r0, {}	; <UNPREDICTABLE>
    1b90:	01000000 	mrseq	r0, (UNDEF: 0)
    1b94:	00005600 	andeq	r5, r0, r0, lsl #12
	...
    1ba0:	000000b0 	strheq	r0, [r0], -r0	; <UNPREDICTABLE>
    1ba4:	000000b7 	strheq	r0, [r0], -r7
    1ba8:	00500001 	subseq	r0, r0, r1
	...
    1bb4:	58000000 	stmdapl	r0, {}	; <UNPREDICTABLE>
    1bb8:	63000001 	movwvs	r0, #1
    1bbc:	01000001 	tsteq	r0, r1
    1bc0:	01635000 	cmneq	r3, r0
    1bc4:	01880000 	orreq	r0, r8, r0
    1bc8:	00010000 	andeq	r0, r1, r0
    1bcc:	00000054 	andeq	r0, r0, r4, asr r0
    1bd0:	00000000 	andeq	r0, r0, r0
    1bd4:	48000000 	stmdami	r0, {}	; <UNPREDICTABLE>
    1bd8:	58000001 	stmdapl	r0, {r0}
    1bdc:	01000001 	tsteq	r0, r1
    1be0:	00005400 	andeq	r5, r0, r0, lsl #8
	...
    1bf0:	000f0000 	andeq	r0, pc, r0
    1bf4:	00010000 	andeq	r0, r1, r0
    1bf8:	00000f50 	andeq	r0, r0, r0, asr pc
    1bfc:	00002000 	andeq	r2, r0, r0
    1c00:	54000100 	strpl	r0, [r0], #-256	; 0xffffff00
	...
    1c14:	0000000f 	andeq	r0, r0, pc
    1c18:	0f510001 	svceq	0x00510001
    1c1c:	20000000 	andcs	r0, r0, r0
    1c20:	01000000 	mrseq	r0, (UNDEF: 0)
    1c24:	00005500 	andeq	r5, r0, r0, lsl #10
	...
    1c30:	00200000 	eoreq	r0, r0, r0
    1c34:	002f0000 	eoreq	r0, pc, r0
    1c38:	00010000 	andeq	r0, r1, r0
    1c3c:	00002f50 	andeq	r2, r0, r0, asr pc
    1c40:	00004000 	andeq	r4, r0, r0
    1c44:	54000100 	strpl	r0, [r0], #-256	; 0xffffff00
	...
    1c54:	00000020 	andeq	r0, r0, r0, lsr #32
    1c58:	0000002f 	andeq	r0, r0, pc, lsr #32
    1c5c:	2f510001 	svccs	0x00510001
    1c60:	40000000 	andmi	r0, r0, r0
    1c64:	01000000 	mrseq	r0, (UNDEF: 0)
    1c68:	00005500 	andeq	r5, r0, r0, lsl #10
	...
    1c78:	00000350 	andeq	r0, r0, r0, asr r3
    1c7c:	00000398 	muleq	r0, r8, r3
    1c80:	98500001 	ldmdals	r0, {r0}^
    1c84:	9b000003 	blls	1c98 <__code_start__-0x6368>
    1c88:	02000003 	andeq	r0, r0, #3, 0
    1c8c:	9b689100 	blls	1a26094 <__bss_end__+0x1a1bf6c>
    1c90:	b0000003 	andlt	r0, r0, r3
    1c94:	04000003 	streq	r0, [r0], #-3
    1c98:	5001f300 	andpl	pc, r1, r0, lsl #6
    1c9c:	0000009f 	muleq	r0, pc, r0	; <UNPREDICTABLE>
	...
    1cb8:	00022000 	andeq	r2, r2, r0
    1cbc:	00027b00 	andeq	r7, r2, r0, lsl #22
    1cc0:	50000100 	andpl	r0, r0, r0, lsl #2
    1cc4:	0000027b 	andeq	r0, r0, fp, ror r2
    1cc8:	00000284 	andeq	r0, r0, r4, lsl #5
    1ccc:	01f30004 	mvnseq	r0, r4
    1cd0:	02849f50 	addeq	r9, r4, #80, 30	; 0x140
    1cd4:	029c0000 	addseq	r0, ip, #0, 0
    1cd8:	00010000 	andeq	r0, r1, r0
    1cdc:	00029c50 	andeq	r9, r2, r0, asr ip
    1ce0:	0002a400 	andeq	sl, r2, r0, lsl #8
    1ce4:	f3000400 	vshl.u8	d0, d0, d0
    1ce8:	a49f5001 	ldrge	r5, [pc], #1	; 1cf0 <__code_start__-0x6310>
    1cec:	a7000002 	strge	r0, [r0, -r2]
    1cf0:	01000002 	tsteq	r0, r2
    1cf4:	02a75000 	adceq	r5, r7, #0, 0
    1cf8:	02c80000 	sbceq	r0, r8, #0, 0
    1cfc:	00040000 	andeq	r0, r4, r0
    1d00:	9f5001f3 	svcls	0x005001f3
    1d04:	000002c8 	andeq	r0, r0, r8, asr #5
    1d08:	000002e0 	andeq	r0, r0, r0, ror #5
    1d0c:	e0500001 	subs	r0, r0, r1
    1d10:	e8000002 	stmda	r0, {r1}
    1d14:	04000002 	streq	r0, [r0], #-2
    1d18:	5001f300 	andpl	pc, r1, r0, lsl #6
    1d1c:	0002e89f 	muleq	r2, pc, r8	; <UNPREDICTABLE>
    1d20:	0002eb00 	andeq	lr, r2, r0, lsl #22
    1d24:	50000100 	andpl	r0, r0, r0, lsl #2
    1d28:	000002eb 	andeq	r0, r0, fp, ror #5
    1d2c:	00000338 	andeq	r0, r0, r8, lsr r3
    1d30:	01f30004 	mvnseq	r0, r4
    1d34:	00009f50 	andeq	r9, r0, r0, asr pc
	...
    1d50:	02200000 	eoreq	r0, r0, #0, 0
    1d54:	02440000 	subeq	r0, r4, #0, 0
    1d58:	00010000 	andeq	r0, r1, r0
    1d5c:	00024451 	andeq	r4, r2, r1, asr r4
    1d60:	00026800 	andeq	r6, r2, r0, lsl #16
    1d64:	51000100 	mrspl	r0, (UNDEF: 16)
    1d68:	00000268 	andeq	r0, r0, r8, ror #4
    1d6c:	0000027b 	andeq	r0, r0, fp, ror r2
    1d70:	01710003 	cmneq	r1, r3
    1d74:	00027b9f 	muleq	r2, pc, fp	; <UNPREDICTABLE>
    1d78:	00028400 	andeq	r8, r2, r0, lsl #8
    1d7c:	38001700 	stmdacc	r0, {r8, r9, sl, ip}
    1d80:	f35101f3 	vbsl	q8, <illegal reg q8.5>, <illegal reg q9.5>
    1d84:	4b405101 	blmi	1016190 <__bss_end__+0x100c068>
    1d88:	080c2224 	stmdaeq	ip, {r2, r5, r9, sp}
    1d8c:	2d800000 	stccs	0, cr0, [r0]
    1d90:	16000128 	strne	r0, [r0], -r8, lsr #2
    1d94:	02849f13 	addeq	r9, r4, #76	; 0x4c
    1d98:	02980000 	addseq	r0, r8, #0, 0
    1d9c:	00010000 	andeq	r0, r1, r0
    1da0:	00029851 	andeq	r9, r2, r1, asr r8
    1da4:	0002a400 	andeq	sl, r2, r0, lsl #8
    1da8:	f3000400 	vshl.u8	d0, d0, d0
    1dac:	a49f5101 	ldrge	r5, [pc], #257	; 1db4 <__code_start__-0x624c>
    1db0:	a7000002 	strge	r0, [r0, -r2]
    1db4:	01000002 	tsteq	r0, r2
    1db8:	02a75100 	adceq	r5, r7, #0
    1dbc:	02c80000 	sbceq	r0, r8, #0, 0
    1dc0:	00040000 	andeq	r0, r4, r0
    1dc4:	9f5101f3 	svcls	0x005101f3
    1dc8:	000002c8 	andeq	r0, r0, r8, asr #5
    1dcc:	000002dc 	ldrdeq	r0, [r0], -ip
    1dd0:	dc510001 	mrrcle	0, 0, r0, r1, cr1
    1dd4:	38000002 	stmdacc	r0, {r1}
    1dd8:	17000003 	strne	r0, [r0, -r3]
    1ddc:	01f33800 	mvnseq	r3, r0, lsl #16
    1de0:	5101f351 	tstpl	r1, r1, asr r3	; <UNPREDICTABLE>
    1de4:	22244b40 	eorcs	r4, r4, #64, 22	; 0x10000
    1de8:	0000080c 	andeq	r0, r0, ip, lsl #16
    1dec:	01282d80 	smlawbeq	r8, r0, sp, r2
    1df0:	9f131600 	svcls	0x00131600
	...
    1e08:	0000024c 	andeq	r0, r0, ip, asr #4
    1e0c:	0000025c 	andeq	r0, r0, ip, asr r2
    1e10:	5c520001 	mrrcpl	0, 0, r0, r2, cr1
    1e14:	64000002 	strvs	r0, [r0], #-2
    1e18:	05000002 	streq	r0, [r0, #-2]
    1e1c:	9d000300 	stcls	3, cr0, [r0, #-0]
    1e20:	02640000 	rsbeq	r0, r4, #0, 0
    1e24:	027b0000 	rsbseq	r0, fp, #0, 0
    1e28:	00010000 	andeq	r0, r1, r0
    1e2c:	0002c853 	andeq	ip, r2, r3, asr r8
    1e30:	0002d800 	andeq	sp, r2, r0, lsl #16
    1e34:	52000100 	andpl	r0, r0, #0
    1e38:	000002d8 	ldrdeq	r0, [r0], -r8
    1e3c:	000002e3 	andeq	r0, r0, r3, ror #5
    1e40:	00030005 	andeq	r0, r3, r5
    1e44:	e800009d 	stmda	r0, {r0, r2, r3, r4, r7}
    1e48:	eb000002 	bl	1e58 <__code_start__-0x61a8>
    1e4c:	01000002 	tsteq	r0, r2
    1e50:	00005300 	andeq	r5, r0, r0, lsl #6
    1e54:	00000000 	andeq	r0, r0, r0
    1e58:	00040000 	andeq	r0, r4, r0
    1e5c:	00000230 	andeq	r0, r0, r0, lsr r2
    1e60:	00000234 	andeq	r0, r0, r4, lsr r2
    1e64:	00510001 	subseq	r0, r1, r1
    1e68:	00000000 	andeq	r0, r0, r0
    1e6c:	02000000 	andeq	r0, r0, #0, 0
    1e70:	00023c00 	andeq	r3, r2, r0, lsl #24
    1e74:	00024400 	andeq	r4, r2, r0, lsl #8
    1e78:	38000200 	stmdacc	r0, {r9}
    1e7c:	0000009f 	muleq	r0, pc, r0	; <UNPREDICTABLE>
    1e80:	00000000 	andeq	r0, r0, r0
    1e84:	3c000200 	sfmcc	f0, 4, [r0], {-0}
    1e88:	44000002 	strmi	r0, [r0], #-2
    1e8c:	01000002 	tsteq	r0, r2
    1e90:	00005100 	andeq	r5, r0, r0, lsl #2
    1e94:	00000000 	andeq	r0, r0, r0
    1e98:	00010000 	andeq	r0, r1, r0
    1e9c:	00000000 	andeq	r0, r0, r0
    1ea0:	0000024c 	andeq	r0, r0, ip, asr #4
    1ea4:	00000264 	andeq	r0, r0, r4, ror #4
    1ea8:	c8510001 	ldmdagt	r1, {r0}^
    1eac:	dc000002 	stcle	0, cr0, [r0], {2}
    1eb0:	01000002 	tsteq	r0, r2
    1eb4:	02dc5100 	sbcseq	r5, ip, #0
    1eb8:	02e80000 	rsceq	r0, r8, #0, 0
    1ebc:	00170000 	andseq	r0, r7, r0
    1ec0:	5101f338 	tstpl	r1, r8, lsr r3	; <UNPREDICTABLE>
    1ec4:	405101f3 	ldrshmi	r0, [r1], #-19	; 0xffffffed
    1ec8:	0c22244b 	cfstrseq	mvf2, [r2], #-300	; 0xfffffed4
    1ecc:	80000008 	andhi	r0, r0, r8
    1ed0:	0001282d 	andeq	r2, r1, sp, lsr #16
    1ed4:	009f1316 	addseq	r1, pc, r6, lsl r3	; <UNPREDICTABLE>
    1ed8:	00000000 	andeq	r0, r0, r0
    1edc:	01000000 	mrseq	r0, (UNDEF: 0)
    1ee0:	00000000 	andeq	r0, r0, r0
    1ee4:	4c000000 	stcmi	0, cr0, [r0], {-0}
    1ee8:	5c000002 	stcpl	0, cr0, [r0], {2}
    1eec:	01000002 	tsteq	r0, r2
    1ef0:	025c5200 	subseq	r5, ip, #0, 4
    1ef4:	02640000 	rsbeq	r0, r4, #0, 0
    1ef8:	00050000 	andeq	r0, r5, r0
    1efc:	009d0003 	addseq	r0, sp, r3
    1f00:	0002c800 	andeq	ip, r2, r0, lsl #16
    1f04:	0002d800 	andeq	sp, r2, r0, lsl #16
    1f08:	52000100 	andpl	r0, r0, #0
    1f0c:	000002d8 	ldrdeq	r0, [r0], -r8
    1f10:	000002e3 	andeq	r0, r0, r3, ror #5
    1f14:	00030005 	andeq	r0, r3, r5
    1f18:	0000009d 	muleq	r0, sp, r0
    1f1c:	00000000 	andeq	r0, r0, r0
    1f20:	04000000 	streq	r0, [r0], #-0
    1f24:	00024c00 	andeq	r4, r2, r0, lsl #24
    1f28:	00025000 	andeq	r5, r2, r0
    1f2c:	51000100 	mrspl	r0, (UNDEF: 16)
	...
    1f38:	02640003 	rsbeq	r0, r4, #3, 0
    1f3c:	02680000 	rsbeq	r0, r8, #0, 0
    1f40:	00010000 	andeq	r0, r1, r0
    1f44:	00000051 	andeq	r0, r0, r1, asr r0
    1f48:	00000000 	andeq	r0, r0, r0
    1f4c:	64000300 	strvs	r0, [r0], #-768	; 0xfffffd00
    1f50:	68000002 	stmdavs	r0, {r1}
    1f54:	01000002 	tsteq	r0, r2
    1f58:	00005300 	andeq	r5, r0, r0, lsl #6
	...
    1f68:	01bc0000 			; <UNDEFINED> instruction: 0x01bc0000
    1f6c:	01d30000 	bicseq	r0, r3, r0
    1f70:	00010000 	andeq	r0, r1, r0
    1f74:	0001d350 	andeq	sp, r1, r0, asr r3
    1f78:	0001f000 	andeq	pc, r1, r0
    1f7c:	54000100 	strpl	r0, [r0], #-256	; 0xffffff00
    1f80:	000001f0 	strdeq	r0, [r0], -r0	; <UNPREDICTABLE>
    1f84:	00000208 	andeq	r0, r0, r8, lsl #4
    1f88:	08500001 	ldmdaeq	r0, {r0}^
    1f8c:	20000002 	andcs	r0, r0, r2
    1f90:	01000002 	tsteq	r0, r2
    1f94:	00005400 	andeq	r5, r0, r0, lsl #8
	...
    1fa0:	01d80000 	bicseq	r0, r8, r0
    1fa4:	01e30000 	mvneq	r0, r0
    1fa8:	00010000 	andeq	r0, r1, r0
    1fac:	0001e350 	andeq	lr, r1, r0, asr r3
    1fb0:	0001f000 	andeq	pc, r1, r0
    1fb4:	55000100 	strpl	r0, [r0, #-256]	; 0xffffff00
	...
    1fd0:	00000124 	andeq	r0, r0, r4, lsr #2
    1fd4:	00000138 	andeq	r0, r0, r8, lsr r1
    1fd8:	38500001 	ldmdacc	r0, {r0}^
    1fdc:	3c000001 	stccc	0, cr0, [r0], {1}
    1fe0:	03000001 	movweq	r0, #1
    1fe4:	9f797000 	svcls	0x00797000
    1fe8:	0000013c 	andeq	r0, r0, ip, lsr r1
    1fec:	00000160 	andeq	r0, r0, r0, ror #2
    1ff0:	60530001 	subsvs	r0, r3, r1
    1ff4:	78000001 	stmdavc	r0, {r0}
    1ff8:	01000001 	tsteq	r0, r1
    1ffc:	01785000 	cmneq	r8, r0
    2000:	01800000 	orreq	r0, r0, r0
    2004:	00040000 	andeq	r0, r4, r0
    2008:	9f5001f3 	svcls	0x005001f3
    200c:	00000180 	andeq	r0, r0, r0, lsl #3
    2010:	00000190 	muleq	r0, r0, r1
    2014:	90530001 	subsls	r0, r3, r1
    2018:	9f000001 	svcls	0x00000001
    201c:	02000001 	andeq	r0, r0, #1, 0
    2020:	9f689100 	svcls	0x00689100
    2024:	bc000001 	stclt	0, cr0, [r0], {1}
    2028:	09000001 	stmdbeq	r0, {r0}
    202c:	5001f300 	andpl	pc, r1, r0, lsl #6
    2030:	f8090723 			; <UNDEFINED> instruction: 0xf8090723
    2034:	00009f1a 	andeq	r9, r0, sl, lsl pc
	...
    2040:	01440000 	mrseq	r0, (UNDEF: 68)
    2044:	01600000 	cmneq	r0, r0
    2048:	00010000 	andeq	r0, r1, r0
    204c:	00018050 	andeq	r8, r1, r0, asr r0
    2050:	00019c00 	andeq	r9, r1, r0, lsl #24
    2054:	50000100 	andpl	r0, r0, r0, lsl #2
	...
    2060:	01340003 	teqeq	r4, r3
    2064:	013c0000 	teqeq	ip, r0
    2068:	00020000 	andeq	r0, r2, r0
    206c:	00009f38 	andeq	r9, r0, r8, lsr pc
    2070:	00000000 	andeq	r0, r0, r0
    2074:	00030000 	andeq	r0, r3, r0
    2078:	01340000 	teqeq	r4, r0
    207c:	01380000 	teqeq	r8, r0
    2080:	00010000 	andeq	r0, r1, r0
    2084:	00013850 	andeq	r3, r1, r0, asr r8
    2088:	00013c00 	andeq	r3, r1, r0, lsl #24
    208c:	70000300 	andvc	r0, r0, r0, lsl #6
    2090:	00009f79 	andeq	r9, r0, r9, ror pc
	...
    20a8:	00000030 	andeq	r0, r0, r0, lsr r0
    20ac:	00000060 	andeq	r0, r0, r0, rrx
    20b0:	60500001 	subsvs	r0, r0, r1
    20b4:	6c000000 	stcvs	0, cr0, [r0], {-0}
    20b8:	05000000 	streq	r0, [r0, #-0]
    20bc:	9d000300 	stcls	3, cr0, [r0, #-0]
    20c0:	006c0000 	rsbeq	r0, ip, r0
    20c4:	00840000 	addeq	r0, r4, r0
    20c8:	00010000 	andeq	r0, r1, r0
    20cc:	00008450 	andeq	r8, r0, r0, asr r4
    20d0:	00008c00 	andeq	r8, r0, r0, lsl #24
    20d4:	f3000400 	vshl.u8	d0, d0, d0
    20d8:	8c9f5001 	ldchi	0, cr5, [pc], {1}
    20dc:	ac000000 	stcge	0, cr0, [r0], {-0}
    20e0:	01000000 	mrseq	r0, (UNDEF: 0)
    20e4:	00ac5000 	adceq	r5, ip, r0
    20e8:	00af0000 	adceq	r0, pc, r0
    20ec:	00020000 	andeq	r0, r2, r0
    20f0:	00af6891 	umlaleq	r6, pc, r1, r8	; <UNPREDICTABLE>
    20f4:	00cc0000 	sbceq	r0, ip, r0
    20f8:	00040000 	andeq	r0, r4, r0
    20fc:	9f5001f3 	svcls	0x005001f3
	...
    2110:	00000030 	andeq	r0, r0, r0, lsr r0
    2114:	00000080 	andeq	r0, r0, r0, lsl #1
    2118:	80510001 	subshi	r0, r1, r1
    211c:	8c000000 	stchi	0, cr0, [r0], {-0}
    2120:	04000000 	streq	r0, [r0], #-0
    2124:	5101f300 	mrspl	pc, SP_irq	; <UNPREDICTABLE>
    2128:	00008c9f 	muleq	r0, pc, ip	; <UNPREDICTABLE>
    212c:	0000a800 	andeq	sl, r0, r0, lsl #16
    2130:	51000100 	mrspl	r0, (UNDEF: 16)
    2134:	000000a8 	andeq	r0, r0, r8, lsr #1
    2138:	000000cc 	andeq	r0, r0, ip, asr #1
    213c:	01f30004 	mvnseq	r0, r4
    2140:	00009f51 	andeq	r9, r0, r1, asr pc
    2144:	00000000 	andeq	r0, r0, r0
    2148:	00010000 	andeq	r0, r1, r0
	...
    2158:	00000038 	andeq	r0, r0, r8, lsr r0
    215c:	00000060 	andeq	r0, r0, r0, rrx
    2160:	60500001 	subsvs	r0, r0, r1
    2164:	6c000000 	stcvs	0, cr0, [r0], {-0}
    2168:	05000000 	streq	r0, [r0, #-0]
    216c:	9d000300 	stcls	3, cr0, [r0, #-0]
    2170:	006c0000 	rsbeq	r0, ip, r0
    2174:	00840000 	addeq	r0, r4, r0
    2178:	00010000 	andeq	r0, r1, r0
    217c:	00008450 	andeq	r8, r0, r0, asr r4
    2180:	00008c00 	andeq	r8, r0, r0, lsl #24
    2184:	f3000400 	vshl.u8	d0, d0, d0
    2188:	8c9f5001 	ldchi	0, cr5, [pc], {1}
    218c:	ac000000 	stcge	0, cr0, [r0], {-0}
    2190:	01000000 	mrseq	r0, (UNDEF: 0)
    2194:	00ac5000 	adceq	r5, ip, r0
    2198:	00af0000 	adceq	r0, pc, r0
    219c:	00020000 	andeq	r0, r2, r0
    21a0:	00af6891 	umlaleq	r6, pc, r1, r8	; <UNPREDICTABLE>
    21a4:	00cc0000 	sbceq	r0, ip, r0
    21a8:	00040000 	andeq	r0, r4, r0
    21ac:	9f5001f3 	svcls	0x005001f3
	...
    21bc:	01700000 	cmneq	r0, r0
    21c0:	017c0000 	cmneq	ip, r0
    21c4:	00010000 	andeq	r0, r1, r0
    21c8:	00017c50 	andeq	r7, r1, r0, asr ip
    21cc:	00018800 	andeq	r8, r1, r0, lsl #16
    21d0:	54000100 	strpl	r0, [r0], #-256	; 0xffffff00
    21d4:	00000188 	andeq	r0, r0, r8, lsl #3
    21d8:	00000198 	muleq	r0, r8, r1
    21dc:	01f30004 	mvnseq	r0, r4
    21e0:	00009f50 	andeq	r9, r0, r0, asr pc
	...
    21f4:	00000178 	andeq	r0, r0, r8, ror r1
    21f8:	0000017c 	andeq	r0, r0, ip, ror r1
    21fc:	0070000b 	rsbseq	r0, r0, fp
    2200:	b4232535 	strtlt	r2, [r3], #-1333	; 0xfffffacb
    2204:	02818080 	addeq	r8, r1, #128, 0	; 0x80
    2208:	00017c9f 	muleq	r1, pc, ip	; <UNPREDICTABLE>
    220c:	00018000 	andeq	r8, r1, r0
    2210:	74000b00 	strvc	r0, [r0], #-2816	; 0xfffff500
    2214:	23253500 			; <UNDEFINED> instruction: 0x23253500
    2218:	818080b4 	strhhi	r8, [r0, r4]
    221c:	01809f02 	orreq	r9, r0, r2, lsl #30
    2220:	01830000 	orreq	r0, r3, r0
    2224:	00010000 	andeq	r0, r1, r0
    2228:	00018350 	andeq	r8, r1, r0, asr r3
    222c:	00018800 	andeq	r8, r1, r0, lsl #16
    2230:	74000b00 	strvc	r0, [r0], #-2816	; 0xfffff500
    2234:	23253500 			; <UNDEFINED> instruction: 0x23253500
    2238:	818080b4 	strhhi	r8, [r0, r4]
    223c:	01889f02 	orreq	r9, r8, r2, lsl #30
    2240:	01980000 	orrseq	r0, r8, r0
    2244:	000c0000 	andeq	r0, ip, r0
    2248:	355001f3 	ldrbcc	r0, [r0, #-499]	; 0xfffffe0d
    224c:	80b42325 	adcshi	r2, r4, r5, lsr #6
    2250:	9f028180 	svcls	0x00028180
	...
    225c:	00000001 	andeq	r0, r0, r1
    2260:	01780000 	cmneq	r8, r0
    2264:	017c0000 	cmneq	ip, r0
    2268:	00050000 	andeq	r0, r5, r0
    226c:	1a4f0070 	bne	13c2434 <__bss_end__+0x13b830c>
    2270:	00017c9f 	muleq	r1, pc, ip	; <UNPREDICTABLE>
    2274:	00018800 	andeq	r8, r1, r0, lsl #16
    2278:	74000500 	strvc	r0, [r0], #-1280	; 0xfffffb00
    227c:	9f1a4f00 	svcls	0x001a4f00
    2280:	00000188 	andeq	r0, r0, r8, lsl #3
    2284:	00000198 	muleq	r0, r8, r1
    2288:	00540001 	subseq	r0, r4, r1
	...
    229c:	40000000 	andmi	r0, r0, r0
    22a0:	54000001 	strpl	r0, [r0], #-1
    22a4:	01000001 	tsteq	r0, r1
    22a8:	01545000 	cmpeq	r4, r0
    22ac:	01580000 	cmpeq	r8, r0
    22b0:	00010000 	andeq	r0, r1, r0
    22b4:	00015851 	andeq	r5, r1, r1, asr r8
    22b8:	00015c00 	andeq	r5, r1, r0, lsl #24
    22bc:	f3000400 	vshl.u8	d0, d0, d0
    22c0:	5c9f5001 	ldcpl	0, cr5, [pc], {1}
    22c4:	60000001 	andvs	r0, r0, r1
    22c8:	01000001 	tsteq	r0, r1
    22cc:	01605000 	cmneq	r0, r0
    22d0:	01640000 	cmneq	r4, r0
    22d4:	00010000 	andeq	r0, r1, r0
    22d8:	00016451 	andeq	r6, r1, r1, asr r4
    22dc:	00017000 	andeq	r7, r1, r0
    22e0:	f3000400 	vshl.u8	d0, d0, d0
    22e4:	009f5001 	addseq	r5, pc, r1
	...
    22f0:	40000000 	andmi	r0, r0, r0
    22f4:	4c000001 	stcmi	0, cr0, [r0], {1}
    22f8:	01000001 	tsteq	r0, r1
    22fc:	014c5100 	mrseq	r5, (UNDEF: 92)
    2300:	01700000 	cmneq	r0, r0
    2304:	00040000 	andeq	r0, r4, r0
    2308:	9f5101f3 	svcls	0x005101f3
	...
    2314:	00000001 	andeq	r0, r0, r1
    2318:	01500000 	cmpeq	r0, r0
    231c:	01540000 	cmpeq	r4, r0
    2320:	00010000 	andeq	r0, r1, r0
    2324:	00015450 	andeq	r5, r1, r0, asr r4
    2328:	00015800 	andeq	r5, r1, r0, lsl #16
    232c:	51000100 	mrspl	r0, (UNDEF: 16)
    2330:	00000158 	andeq	r0, r0, r8, asr r1
    2334:	0000015c 	andeq	r0, r0, ip, asr r1
    2338:	01f30004 	mvnseq	r0, r4
    233c:	00009f50 	andeq	r9, r0, r0, asr pc
    2340:	00000000 	andeq	r0, r0, r0
    2344:	00020000 	andeq	r0, r2, r0
    2348:	00000000 	andeq	r0, r0, r0
    234c:	0000015c 	andeq	r0, r0, ip, asr r1
    2350:	00000160 	andeq	r0, r0, r0, ror #2
    2354:	60500001 	subsvs	r0, r0, r1
    2358:	64000001 	strvs	r0, [r0], #-1
    235c:	01000001 	tsteq	r0, r1
    2360:	01645100 	cmneq	r4, r0, lsl #2
    2364:	01700000 	cmneq	r0, r0
    2368:	00040000 	andeq	r0, r4, r0
    236c:	9f5001f3 	svcls	0x005001f3
	...
    237c:	00e80000 	rsceq	r0, r8, r0
    2380:	01080000 	mrseq	r0, (UNDEF: 8)
    2384:	00010000 	andeq	r0, r1, r0
    2388:	00010850 	andeq	r0, r1, r0, asr r8
    238c:	00012800 	andeq	r2, r1, r0, lsl #16
    2390:	54000100 	strpl	r0, [r0], #-256	; 0xffffff00
    2394:	00000128 	andeq	r0, r0, r8, lsr #2
    2398:	00000140 	andeq	r0, r0, r0, asr #2
    239c:	01f30004 	mvnseq	r0, r4
    23a0:	00009f50 	andeq	r9, r0, r0, asr pc
    23a4:	00000000 	andeq	r0, r0, r0
    23a8:	00020000 	andeq	r0, r2, r0
    23ac:	00000000 	andeq	r0, r0, r0
    23b0:	000000e8 	andeq	r0, r0, r8, ror #1
    23b4:	00000108 	andeq	r0, r0, r8, lsl #2
    23b8:	08500001 	ldmdaeq	r0, {r0}^
    23bc:	28000001 	stmdacs	r0, {r0}
    23c0:	01000001 	tsteq	r0, r1
    23c4:	01285400 			; <UNDEFINED> instruction: 0x01285400
    23c8:	01400000 	mrseq	r0, (UNDEF: 64)
    23cc:	00040000 	andeq	r0, r4, r0
    23d0:	9f5001f3 	svcls	0x005001f3
	...
    23e0:	00f00000 	rscseq	r0, r0, r0
    23e4:	01080000 	mrseq	r0, (UNDEF: 8)
    23e8:	00010000 	andeq	r0, r1, r0
    23ec:	00010850 	andeq	r0, r1, r0, asr r8
    23f0:	00012800 	andeq	r2, r1, r0, lsl #16
    23f4:	54000100 	strpl	r0, [r0], #-256	; 0xffffff00
    23f8:	00000128 	andeq	r0, r0, r8, lsr #2
    23fc:	00000140 	andeq	r0, r0, r0, asr #2
    2400:	01f30004 	mvnseq	r0, r4
    2404:	00009f50 	andeq	r9, r0, r0, asr pc
    2408:	00000000 	andeq	r0, r0, r0
    240c:	00030000 	andeq	r0, r3, r0
    2410:	00000000 	andeq	r0, r0, r0
    2414:	000000f0 	strdeq	r0, [r0], -r0	; <UNPREDICTABLE>
    2418:	00000108 	andeq	r0, r0, r8, lsl #2
    241c:	00700007 	rsbseq	r0, r0, r7
    2420:	1e331d3a 	mrcne	13, 1, r1, cr3, cr10, {1}
    2424:	0001089f 	muleq	r1, pc, r8	; <UNPREDICTABLE>
    2428:	00012800 	andeq	r2, r1, r0, lsl #16
    242c:	74000700 	strvc	r0, [r0], #-1792	; 0xfffff900
    2430:	331d3a00 	tstcc	sp, #0, 20
    2434:	01289f1e 			; <UNDEFINED> instruction: 0x01289f1e
    2438:	01400000 	mrseq	r0, (UNDEF: 64)
    243c:	00080000 	andeq	r0, r8, r0
    2440:	3a5001f3 	bcc	1402c14 <__bss_end__+0x13f8aec>
    2444:	9f1e331d 	svcls	0x001e331d
	...
    2454:	01100000 	tsteq	r0, r0
    2458:	01380000 	teqeq	r8, r0
    245c:	00010000 	andeq	r0, r1, r0
    2460:	00013856 	andeq	r3, r1, r6, asr r8
    2464:	00013b00 	andeq	r3, r1, r0, lsl #22
    2468:	50000100 	andpl	r0, r0, r0, lsl #2
    246c:	0000013b 	andeq	r0, r0, fp, lsr r1
    2470:	00000140 	andeq	r0, r0, r0, asr #2
    2474:	01f30026 	mvnseq	r0, r6, lsr #32
    2478:	f72cf750 			; <UNDEFINED> instruction: 0xf72cf750
    247c:	0825f425 	stmdaeq	r5!, {r0, r2, r5, sl, ip, sp, lr, pc}
    2480:	cccccccd 	stclgt	12, cr12, [ip], {205}	; 0xcd
    2484:	00000000 	andeq	r0, r0, r0
    2488:	f720081e 			; <UNDEFINED> instruction: 0xf720081e
    248c:	2cf72525 	cfldr64cs	mvdx2, [r7], #148	; 0x94
    2490:	253300f7 	ldrcs	r0, [r3, #-247]!	; 0xffffff09
    2494:	a0808023 	addge	r8, r0, r3, lsr #32
    2498:	9f243240 	svcls	0x00243240
	...
    24a4:	00010100 	andeq	r0, r1, r0, lsl #2
    24a8:	00000000 	andeq	r0, r0, r0
    24ac:	00000120 	andeq	r0, r0, r0, lsr #2
    24b0:	00000120 	andeq	r0, r0, r0, lsr #2
    24b4:	20500001 	subscs	r0, r0, r1
    24b8:	28000001 	stmdacs	r0, {r0}
    24bc:	0d000001 	stceq	0, cr0, [r0, #-4]
    24c0:	00743700 	rsbseq	r3, r4, r0, lsl #14
    24c4:	1e331d3a 	mrcne	13, 1, r1, cr3, cr10, {1}
    24c8:	00702024 	rsbseq	r2, r0, r4, lsr #32
    24cc:	01289f1a 			; <UNDEFINED> instruction: 0x01289f1a
    24d0:	01300000 	teqeq	r0, r0
    24d4:	000e0000 	andeq	r0, lr, r0
    24d8:	5001f337 	andpl	pc, r1, r7, lsr r3	; <UNPREDICTABLE>
    24dc:	1e331d3a 	mrcne	13, 1, r1, cr3, cr10, {1}
    24e0:	00702024 	rsbseq	r2, r0, r4, lsr #32
    24e4:	01309f1a 	teqeq	r0, sl, lsl pc
    24e8:	013b0000 	teqeq	fp, r0
    24ec:	000e0000 	andeq	r0, lr, r0
    24f0:	5001f337 	andpl	pc, r1, r7, lsr r3	; <UNPREDICTABLE>
    24f4:	1e331d3a 	mrcne	13, 1, r1, cr3, cr10, {1}
    24f8:	00732024 	rsbseq	r2, r3, r4, lsr #32
    24fc:	00009f1a 	andeq	r9, r0, sl, lsl pc
	...
    2508:	00600000 	rsbeq	r0, r0, r0
    250c:	00900000 	addseq	r0, r0, r0
    2510:	00010000 	andeq	r0, r1, r0
    2514:	00009050 	andeq	r9, r0, r0, asr r0
    2518:	0000b800 	andeq	fp, r0, r0, lsl #16
    251c:	f3000400 	vshl.u8	d0, d0, d0
    2520:	009f5001 	addseq	r5, pc, r1
    2524:	00000000 	andeq	r0, r0, r0
    2528:	02000000 	andeq	r0, r0, #0, 0
    252c:	60000000 	andvs	r0, r0, r0
    2530:	90000000 	andls	r0, r0, r0
    2534:	01000000 	mrseq	r0, (UNDEF: 0)
    2538:	00905000 	addseq	r5, r0, r0
    253c:	00b80000 	adcseq	r0, r8, r0
    2540:	00040000 	andeq	r0, r4, r0
    2544:	9f5001f3 	svcls	0x005001f3
	...
    2554:	00000068 	andeq	r0, r0, r8, rrx
    2558:	00000090 	muleq	r0, r0, r0
    255c:	90500001 	subsls	r0, r0, r1
    2560:	b8000000 	stmdalt	r0, {}	; <UNPREDICTABLE>
    2564:	04000000 	streq	r0, [r0], #-0
    2568:	5001f300 	andpl	pc, r1, r0, lsl #6
    256c:	0000009f 	muleq	r0, pc, r0	; <UNPREDICTABLE>
	...
    2578:	0000a000 	andeq	sl, r0, r0
    257c:	0000b000 	andeq	fp, r0, r0
    2580:	54000100 	strpl	r0, [r0], #-256	; 0xffffff00
    2584:	000000b0 	strheq	r0, [r0], -r0	; <UNPREDICTABLE>
    2588:	000000b8 	strheq	r0, [r0], -r8
    258c:	01f30029 	mvnseq	r0, r9, lsr #32
    2590:	5001f350 	andpl	pc, r1, r0, asr r3	; <UNPREDICTABLE>
    2594:	25f72cf7 	ldrbcs	r2, [r7, #3319]!	; 0xcf7
    2598:	cd0825f4 	cfstr32gt	mvfx2, [r8, #-976]	; 0xfffffc30
    259c:	00cccccc 	sbceq	ip, ip, ip, asr #25
    25a0:	1e000000 	cdpne	0, 0, cr0, cr0, cr0, {0}
    25a4:	25f72008 	ldrbcs	r2, [r7, #8]!
    25a8:	f72cf725 			; <UNDEFINED> instruction: 0xf72cf725
    25ac:	35253300 	strcc	r3, [r5, #-768]!	; 0xfffffd00
    25b0:	1c24311e 	stfnes	f3, [r4], #-120	; 0xffffff88
    25b4:	009f1e33 	addseq	r1, pc, r3, lsr lr	; <UNPREDICTABLE>
    25b8:	00000000 	andeq	r0, r0, r0
    25bc:	01000000 	mrseq	r0, (UNDEF: 0)
    25c0:	00000000 	andeq	r0, r0, r0
    25c4:	0000a000 	andeq	sl, r0, r0
    25c8:	0000b000 	andeq	fp, r0, r0
    25cc:	55000100 	strpl	r0, [r0, #-256]	; 0xffffff00
    25d0:	000000b0 	strheq	r0, [r0], -r0	; <UNPREDICTABLE>
    25d4:	000000b3 	strheq	r0, [r0], -r3
    25d8:	b3500001 	cmplt	r0, #1, 0
    25dc:	b8000000 	stmdalt	r0, {}	; <UNPREDICTABLE>
    25e0:	26000000 	strcs	r0, [r0], -r0
    25e4:	5001f300 	andpl	pc, r1, r0, lsl #6
    25e8:	25f72cf7 	ldrbcs	r2, [r7, #3319]!	; 0xcf7
    25ec:	cd0825f4 	cfstr32gt	mvfx2, [r8, #-976]	; 0xfffffc30
    25f0:	00cccccc 	sbceq	ip, ip, ip, asr #25
    25f4:	1e000000 	cdpne	0, 0, cr0, cr0, cr0, {0}
    25f8:	25f72008 	ldrbcs	r2, [r7, #8]!
    25fc:	f72cf725 			; <UNDEFINED> instruction: 0xf72cf725
    2600:	23253300 			; <UNDEFINED> instruction: 0x23253300
    2604:	40a08080 	adcmi	r8, r0, r0, lsl #1
    2608:	009f2432 	addseq	r2, pc, r2, lsr r4	; <UNPREDICTABLE>
    260c:	00000000 	andeq	r0, r0, r0
    2610:	02000000 	andeq	r0, r0, #0, 0
    2614:	01010000 	mrseq	r0, (UNDEF: 1)
    2618:	a0000000 	andge	r0, r0, r0
    261c:	a4000000 	strge	r0, [r0], #-0
    2620:	01000000 	mrseq	r0, (UNDEF: 0)
    2624:	00a45000 	adceq	r5, r4, r0
    2628:	00a40000 	adceq	r0, r4, r0
    262c:	00010000 	andeq	r0, r1, r0
    2630:	0000a453 	andeq	sl, r0, r3, asr r4
    2634:	0000a800 	andeq	sl, r0, r0, lsl #16
    2638:	31000800 	tstcc	r0, r0, lsl #16
    263c:	73240074 			; <UNDEFINED> instruction: 0x73240074
    2640:	a89f2100 	ldmge	pc, {r8, sp}	; <UNPREDICTABLE>
    2644:	b3000000 	movwlt	r0, #0
    2648:	01000000 	mrseq	r0, (UNDEF: 0)
    264c:	00005100 	andeq	r5, r0, r0, lsl #2
	...
    265c:	003c0000 	eorseq	r0, ip, r0
    2660:	00010000 	andeq	r0, r1, r0
    2664:	00003c50 	andeq	r3, r0, r0, asr ip
    2668:	00006000 	andeq	r6, r0, r0
    266c:	f3000400 	vshl.u8	d0, d0, d0
    2670:	009f5001 	addseq	r5, pc, r1
	...
    2680:	3f000000 	svccc	0x00000000
    2684:	01000000 	mrseq	r0, (UNDEF: 0)
    2688:	003f5100 	eorseq	r5, pc, r0, lsl #2
    268c:	00600000 	rsbeq	r0, r0, r0
    2690:	00040000 	andeq	r0, r4, r0
    2694:	9f5101f3 	svcls	0x005101f3
	...
    26a4:	00000008 	andeq	r0, r0, r8
    26a8:	0000003f 	andeq	r0, r0, pc, lsr r0
    26ac:	3f510001 	svccc	0x00510001
    26b0:	60000000 	andvs	r0, r0, r0
    26b4:	04000000 	streq	r0, [r0], #-0
    26b8:	5101f300 	mrspl	pc, SP_irq	; <UNPREDICTABLE>
    26bc:	0000009f 	muleq	r0, pc, r0	; <UNPREDICTABLE>
	...
    26c8:	00000800 	andeq	r0, r0, r0, lsl #16
    26cc:	00003c00 	andeq	r3, r0, r0, lsl #24
    26d0:	50000100 	andpl	r0, r0, r0, lsl #2
    26d4:	0000003c 	andeq	r0, r0, ip, lsr r0
    26d8:	00000060 	andeq	r0, r0, r0, rrx
    26dc:	01f30004 	mvnseq	r0, r4
    26e0:	00009f50 	andeq	r9, r0, r0, asr pc
	...
    26ec:	00480000 	subeq	r0, r8, r0
    26f0:	00580000 	subseq	r0, r8, r0
    26f4:	00010000 	andeq	r0, r1, r0
    26f8:	00005854 	andeq	r5, r0, r4, asr r8
    26fc:	00006000 	andeq	r6, r0, r0
    2700:	f3002900 	vmls.i8	d2, d0, d0
    2704:	01f35001 	mvnseq	r5, r1
    2708:	f72cf750 			; <UNDEFINED> instruction: 0xf72cf750
    270c:	0825f425 	stmdaeq	r5!, {r0, r2, r5, sl, ip, sp, lr, pc}
    2710:	cccccccd 	stclgt	12, cr12, [ip], {205}	; 0xcd
    2714:	00000000 	andeq	r0, r0, r0
    2718:	f720081e 			; <UNDEFINED> instruction: 0xf720081e
    271c:	2cf72525 	cfldr64cs	mvdx2, [r7], #148	; 0x94
    2720:	253300f7 	ldrcs	r0, [r3, #-247]!	; 0xffffff09
    2724:	24311e35 	ldrtcs	r1, [r1], #-3637	; 0xfffff1cb
    2728:	9f1e331c 	svcls	0x001e331c
	...
    2734:	00000001 	andeq	r0, r0, r1
    2738:	00480000 	subeq	r0, r8, r0
    273c:	00580000 	subseq	r0, r8, r0
    2740:	00010000 	andeq	r0, r1, r0
    2744:	00005856 	andeq	r5, r0, r6, asr r8
    2748:	00005b00 	andeq	r5, r0, r0, lsl #22
    274c:	50000100 	andpl	r0, r0, r0, lsl #2
    2750:	0000005b 	andeq	r0, r0, fp, asr r0
    2754:	00000060 	andeq	r0, r0, r0, rrx
    2758:	01f30026 	mvnseq	r0, r6, lsr #32
    275c:	f72cf750 			; <UNDEFINED> instruction: 0xf72cf750
    2760:	0825f425 	stmdaeq	r5!, {r0, r2, r5, sl, ip, sp, lr, pc}
    2764:	cccccccd 	stclgt	12, cr12, [ip], {205}	; 0xcd
    2768:	00000000 	andeq	r0, r0, r0
    276c:	f720081e 			; <UNDEFINED> instruction: 0xf720081e
    2770:	2cf72525 	cfldr64cs	mvdx2, [r7], #148	; 0x94
    2774:	253300f7 	ldrcs	r0, [r3, #-247]!	; 0xffffff09
    2778:	a0808023 	addge	r8, r0, r3, lsr #32
    277c:	9f243240 	svcls	0x00243240
	...
    2788:	01000002 	tsteq	r0, r2
    278c:	00000001 	andeq	r0, r0, r1
    2790:	00000048 	andeq	r0, r0, r8, asr #32
    2794:	0000004c 	andeq	r0, r0, ip, asr #32
    2798:	4c500001 	mrrcmi	0, 0, r0, r0, cr1	; <UNPREDICTABLE>
    279c:	4c000000 	stcmi	0, cr0, [r0], {-0}
    27a0:	01000000 	mrseq	r0, (UNDEF: 0)
    27a4:	004c5100 	subeq	r5, ip, r0, lsl #2
    27a8:	00500000 	subseq	r0, r0, r0
    27ac:	000c0000 	andeq	r0, ip, r0
    27b0:	ff080075 			; <UNDEFINED> instruction: 0xff080075
    27b4:	2400741a 	strcs	r7, [r0], #-1050	; 0xfffffbe6
    27b8:	9f210071 	svcls	0x00210071
    27bc:	00000050 	andeq	r0, r0, r0, asr r0
    27c0:	00000054 	andeq	r0, r0, r4, asr r0
    27c4:	74370012 	ldrtvc	r0, [r7], #-18	; 0xffffffee
    27c8:	70202400 	eorvc	r2, r0, r0, lsl #8
    27cc:	00751a00 	rsbseq	r1, r5, r0, lsl #20
    27d0:	741aff08 	ldrvc	pc, [sl], #-3848	; 0xfffff0f8
    27d4:	9f212400 	svcls	0x00212400
	...
    27e4:	00b80000 	adcseq	r0, r8, r0
    27e8:	00c40000 	sbceq	r0, r4, r0
    27ec:	00010000 	andeq	r0, r1, r0
    27f0:	0000c450 	andeq	ip, r0, r0, asr r4
    27f4:	0000cb00 	andeq	ip, r0, r0, lsl #22
    27f8:	53000100 	movwpl	r0, #256	; 0x100
    27fc:	000000cb 	andeq	r0, r0, fp, asr #1
    2800:	000000d0 	ldrdeq	r0, [r0], -r0	; <UNPREDICTABLE>
    2804:	01f30004 	mvnseq	r0, r4
    2808:	00009f50 	andeq	r9, r0, r0, asr pc
	...
    2818:	000000d0 	ldrdeq	r0, [r0], -r0	; <UNPREDICTABLE>
    281c:	000000dc 	ldrdeq	r0, [r0], -ip
    2820:	dc500001 	mrrcle	0, 0, r0, r0, cr1	; <UNPREDICTABLE>
    2824:	e3000000 	movw	r0, #0
    2828:	01000000 	mrseq	r0, (UNDEF: 0)
    282c:	00e35300 	rsceq	r5, r3, r0, lsl #6
    2830:	00e80000 	rsceq	r0, r8, r0
    2834:	00040000 	andeq	r0, r4, r0
    2838:	9f5001f3 	svcls	0x005001f3
	...
    284c:	0000001c 	andeq	r0, r0, ip, lsl r0
    2850:	1c510001 	mrrcne	0, 0, r0, r1, cr1
    2854:	78000000 	stmdavc	r0, {}	; <UNPREDICTABLE>
    2858:	04000000 	streq	r0, [r0], #-0
    285c:	5101f300 	mrspl	pc, SP_irq	; <UNPREDICTABLE>
    2860:	0000009f 	muleq	r0, pc, r0	; <UNPREDICTABLE>
	...
    2870:	00005800 	andeq	r5, r0, r0, lsl #16
    2874:	52000100 	andpl	r0, r0, #0
    2878:	00000058 	andeq	r0, r0, r8, asr r0
    287c:	00000078 	andeq	r0, r0, r8, ror r0
    2880:	01f30004 	mvnseq	r0, r4
    2884:	00009f52 	andeq	r9, r0, r2, asr pc
    2888:	00000000 	andeq	r0, r0, r0
    288c:	00020000 	andeq	r0, r2, r0
    2890:	00010100 	andeq	r0, r1, r0, lsl #2
    2894:	00010100 	andeq	r0, r1, r0, lsl #2
    2898:	00010100 	andeq	r0, r1, r0, lsl #2
    289c:	00000000 	andeq	r0, r0, r0
    28a0:	00000038 	andeq	r0, r0, r8, lsr r0
    28a4:	54500001 	ldrbpl	r0, [r0], #-1
    28a8:	54000000 	strpl	r0, [r0], #-0
    28ac:	01000000 	mrseq	r0, (UNDEF: 0)
    28b0:	00545300 	subseq	r5, r4, r0, lsl #6
    28b4:	005c0000 	subseq	r0, ip, r0
    28b8:	00030000 	andeq	r0, r3, r0
    28bc:	5c9f0173 	ldfpls	f0, [pc], {115}	; 0x73
    28c0:	64000000 	strvs	r0, [r0], #-0
    28c4:	01000000 	mrseq	r0, (UNDEF: 0)
    28c8:	00645200 	rsbeq	r5, r4, r0, lsl #4
    28cc:	00680000 	rsbeq	r0, r8, r0
    28d0:	00030000 	andeq	r0, r3, r0
    28d4:	689f0273 	ldmvs	pc, {r0, r1, r4, r5, r6, r9}	; <UNPREDICTABLE>
    28d8:	74000000 	strvc	r0, [r0], #-0
    28dc:	01000000 	mrseq	r0, (UNDEF: 0)
    28e0:	00745200 	rsbseq	r5, r4, r0, lsl #4
    28e4:	00780000 	rsbseq	r0, r8, r0
    28e8:	00030000 	andeq	r0, r3, r0
    28ec:	009f0172 	addseq	r0, pc, r2, ror r1	; <UNPREDICTABLE>
	...
    28f8:	00000800 	andeq	r0, r0, r0, lsl #16
    28fc:	00007800 	andeq	r7, r0, r0, lsl #16
    2900:	54000100 	strpl	r0, [r0], #-256	; 0xffffff00
	...
    2914:	0000000b 	andeq	r0, r0, fp
    2918:	0b500001 	bleq	1402924 <__bss_end__+0x13f87fc>
    291c:	14000000 	strne	r0, [r0], #-0
    2920:	01000000 	mrseq	r0, (UNDEF: 0)
    2924:	00005400 	andeq	r5, r0, r0, lsl #8
	...
    2934:	00180000 	andseq	r0, r8, r0
    2938:	00010000 	andeq	r0, r1, r0
    293c:	00001851 	andeq	r1, r0, r1, asr r8
    2940:	00002c00 	andeq	r2, r0, r0, lsl #24
    2944:	f3000400 	vshl.u8	d0, d0, d0
    2948:	009f5101 	addseq	r5, pc, r1, lsl #2
    294c:	00000000 	andeq	r0, r0, r0
    2950:	02000000 	andeq	r0, r0, #0, 0
	...
    295c:	00000101 	andeq	r0, r0, r1, lsl #2
    2960:	00000000 	andeq	r0, r0, r0
    2964:	00000400 	andeq	r0, r0, r0, lsl #8
    2968:	50000100 	andpl	r0, r0, r0, lsl #2
    296c:	00000004 	andeq	r0, r0, r4
    2970:	00000008 	andeq	r0, r0, r8
    2974:	08520001 	ldmdaeq	r2, {r0}^
    2978:	0c000000 	stceq	0, cr0, [r0], {-0}
    297c:	03000000 	movweq	r0, #0
    2980:	9f017200 	svcls	0x00017200
    2984:	0000000c 	andeq	r0, r0, ip
    2988:	00000018 	andeq	r0, r0, r8, lsl r0
    298c:	18520001 	ldmdane	r2, {r0}^
    2990:	1c000000 	stcne	0, cr0, [r0], {-0}
    2994:	01000000 	mrseq	r0, (UNDEF: 0)
    2998:	001c5300 	andseq	r5, ip, r0, lsl #6
    299c:	00240000 	eoreq	r0, r4, r0
    29a0:	00030000 	andeq	r0, r3, r0
    29a4:	249f0173 	ldrcs	r0, [pc], #371	; 29ac <__code_start__-0x5654>
    29a8:	2c000000 	stccs	0, cr0, [r0], {-0}
    29ac:	01000000 	mrseq	r0, (UNDEF: 0)
    29b0:	00005300 	andeq	r5, r0, r0, lsl #6
    29b4:	00000000 	andeq	r0, r0, r0
    29b8:	02030000 	andeq	r0, r3, #0, 0
    29bc:	00000002 	andeq	r0, r0, r2
    29c0:	00000000 	andeq	r0, r0, r0
    29c4:	00000018 	andeq	r0, r0, r8, lsl r0
    29c8:	18510001 	ldmdane	r1, {r0}^
    29cc:	1c000000 	stcne	0, cr0, [r0], {-0}
    29d0:	03000000 	movweq	r0, #0
    29d4:	9f017100 	svcls	0x00017100
    29d8:	0000001c 	andeq	r0, r0, ip, lsl r0
    29dc:	0000002c 	andeq	r0, r0, ip, lsr #32
    29e0:	00510001 	subseq	r0, r1, r1
	...
    29f0:	00000800 	andeq	r0, r0, r0, lsl #16
    29f4:	00000c00 	andeq	r0, r0, r0, lsl #24
    29f8:	72000200 	andvc	r0, r0, #0, 4
    29fc:	00000c00 	andeq	r0, r0, r0, lsl #24
    2a00:	00001800 	andeq	r1, r0, r0, lsl #16
    2a04:	73000200 	movwvc	r0, #512	; 0x200
    2a08:	00001c00 	andeq	r1, r0, r0, lsl #24
    2a0c:	00002c00 	andeq	r2, r0, r0, lsl #24
    2a10:	52000100 	andpl	r0, r0, #0
	...
    2a2c:	00000014 	andeq	r0, r0, r4, lsl r0
    2a30:	14500001 	ldrbne	r0, [r0], #-1
    2a34:	18000000 	stmdane	r0, {}	; <UNPREDICTABLE>
    2a38:	03000000 	movweq	r0, #0
    2a3c:	9f017000 	svcls	0x00017000
    2a40:	00000018 	andeq	r0, r0, r8, lsl r0
    2a44:	00000020 	andeq	r0, r0, r0, lsr #32
    2a48:	24500001 	ldrbcs	r0, [r0], #-1
    2a4c:	28000000 	stmdacs	r0, {}	; <UNPREDICTABLE>
    2a50:	01000000 	mrseq	r0, (UNDEF: 0)
    2a54:	00285000 	eoreq	r5, r8, r0
    2a58:	00300000 	eorseq	r0, r0, r0
    2a5c:	00030000 	andeq	r0, r3, r0
    2a60:	389f0170 	ldmcc	pc, {r4, r5, r6, r8}	; <UNPREDICTABLE>
    2a64:	40000000 	andmi	r0, r0, r0
    2a68:	01000000 	mrseq	r0, (UNDEF: 0)
    2a6c:	00005000 	andeq	r5, r0, r0
	...
    2a80:	00000024 	andeq	r0, r0, r4, lsr #32
    2a84:	24510001 	ldrbcs	r0, [r1], #-1
    2a88:	28000000 	stmdacs	r0, {}	; <UNPREDICTABLE>
    2a8c:	01000000 	mrseq	r0, (UNDEF: 0)
    2a90:	00285c00 	eoreq	r5, r8, r0, lsl #24
    2a94:	00440000 	subeq	r0, r4, r0
    2a98:	00010000 	andeq	r0, r1, r0
    2a9c:	00000051 	andeq	r0, r0, r1, asr r0
    2aa0:	00000000 	andeq	r0, r0, r0
    2aa4:	02020000 	andeq	r0, r2, #0, 0
    2aa8:	00000000 	andeq	r0, r0, r0
    2aac:	04000000 	streq	r0, [r0], #-0
    2ab0:	01000000 	mrseq	r0, (UNDEF: 0)
    2ab4:	00045100 	andeq	r5, r4, r0, lsl #2
    2ab8:	00080000 	andeq	r0, r8, r0
    2abc:	00030000 	andeq	r0, r3, r0
    2ac0:	089f0171 	ldmeq	pc, {r0, r4, r5, r6, r8}	; <UNPREDICTABLE>
    2ac4:	18000000 	stmdane	r0, {}	; <UNPREDICTABLE>
    2ac8:	01000000 	mrseq	r0, (UNDEF: 0)
    2acc:	00005100 	andeq	r5, r0, r0, lsl #2
    2ad0:	00000000 	andeq	r0, r0, r0
    2ad4:	00020000 	andeq	r0, r2, r0
    2ad8:	00000000 	andeq	r0, r0, r0
    2adc:	00000004 	andeq	r0, r0, r4
    2ae0:	00500001 	subseq	r0, r0, r1
	...
    2af0:	08000000 	stmdaeq	r0, {}	; <UNPREDICTABLE>
    2af4:	01000000 	mrseq	r0, (UNDEF: 0)
    2af8:	00085000 	andeq	r5, r8, r0
    2afc:	00300000 	eorseq	r0, r0, r0
    2b00:	00040000 	andeq	r0, r4, r0
    2b04:	9f5001f3 	svcls	0x005001f3
	...
    2b18:	00000008 	andeq	r0, r0, r8
    2b1c:	08510001 	ldmdaeq	r1, {r0}^
    2b20:	30000000 	andcc	r0, r0, r0
    2b24:	04000000 	streq	r0, [r0], #-0
    2b28:	5101f300 	mrspl	pc, SP_irq	; <UNPREDICTABLE>
    2b2c:	0000009f 	muleq	r0, pc, r0	; <UNPREDICTABLE>
	...
    2b38:	01000000 	mrseq	r0, (UNDEF: 0)
    2b3c:	00000202 	andeq	r0, r0, r2, lsl #4
    2b40:	04000000 	streq	r0, [r0], #-0
    2b44:	01000000 	mrseq	r0, (UNDEF: 0)
    2b48:	00045200 	andeq	r5, r4, r0, lsl #4
    2b4c:	00080000 	andeq	r0, r8, r0
    2b50:	00040000 	andeq	r0, r4, r0
    2b54:	9f5201f3 	svcls	0x005201f3
    2b58:	00000008 	andeq	r0, r0, r8
    2b5c:	00000018 	andeq	r0, r0, r8, lsl r0
    2b60:	01f30006 	mvnseq	r0, r6
    2b64:	9f1c3152 	svcls	0x001c3152
    2b68:	00000018 	andeq	r0, r0, r8, lsl r0
    2b6c:	00000018 	andeq	r0, r0, r8, lsl r0
    2b70:	01f30004 	mvnseq	r0, r4
    2b74:	00189f52 	andseq	r9, r8, r2, asr pc
    2b78:	00300000 	eorseq	r0, r0, r0
    2b7c:	00060000 	andeq	r0, r6, r0
    2b80:	315201f3 	ldrshcc	r0, [r2, #-19]	; 0xffffffed
    2b84:	00009f1c 	andeq	r9, r0, ip, lsl pc
    2b88:	00000000 	andeq	r0, r0, r0
    2b8c:	00020000 	andeq	r0, r2, r0
    2b90:	00010000 	andeq	r0, r1, r0
    2b94:	00000000 	andeq	r0, r0, r0
    2b98:	000c0000 	andeq	r0, ip, r0
    2b9c:	00010000 	andeq	r0, r1, r0
    2ba0:	00000c50 	andeq	r0, r0, r0, asr ip
    2ba4:	00001800 	andeq	r1, r0, r0, lsl #16
    2ba8:	70000300 	andvc	r0, r0, r0, lsl #6
    2bac:	00189f7f 	andseq	r9, r8, pc, ror pc
    2bb0:	00240000 	eoreq	r0, r4, r0
    2bb4:	00010000 	andeq	r0, r1, r0
    2bb8:	00002850 	andeq	r2, r0, r0, asr r8
    2bbc:	00002c00 	andeq	r2, r0, r0, lsl #24
    2bc0:	70000300 	andvc	r0, r0, r0, lsl #6
    2bc4:	00009f7f 	andeq	r9, r0, pc, ror pc
    2bc8:	00000000 	andeq	r0, r0, r0
    2bcc:	00020000 	andeq	r0, r2, r0
	...
    2bd8:	0000000c 	andeq	r0, r0, ip
    2bdc:	0c510001 	mrrceq	0, 0, r0, r1, cr1
    2be0:	10000000 	andne	r0, r0, r0
    2be4:	03000000 	movweq	r0, #0
    2be8:	9f017100 	svcls	0x00017100
    2bec:	00000010 	andeq	r0, r0, r0, lsl r0
    2bf0:	00000030 	andeq	r0, r0, r0, lsr r0
    2bf4:	00510001 	subseq	r0, r1, r1
    2bf8:	00000000 	andeq	r0, r0, r0
    2bfc:	Address 0x0000000000002bfc is out of bounds.


Disassembly of section .debug_aranges:

00000000 <.debug_aranges>:
   0:	0000001c 	andeq	r0, r0, ip, lsl r0
   4:	00000002 	andeq	r0, r0, r2
   8:	00040000 	andeq	r0, r4, r0
   c:	00000000 	andeq	r0, r0, r0
  10:	00008038 	andeq	r8, r0, r8, lsr r0
  14:	000000fc 	strdeq	r0, [r0], -ip
	...
  20:	0000001c 	andeq	r0, r0, ip, lsl r0
  24:	02d40002 	sbcseq	r0, r4, #2, 0
  28:	00040000 	andeq	r0, r4, r0
  2c:	00000000 	andeq	r0, r0, r0
  30:	00008134 	andeq	r8, r0, r4, lsr r1
  34:	000001ac 	andeq	r0, r0, ip, lsr #3
	...
  40:	0000001c 	andeq	r0, r0, ip, lsl r0
  44:	059a0002 	ldreq	r0, [sl, #2]
  48:	00040000 	andeq	r0, r4, r0
  4c:	00000000 	andeq	r0, r0, r0
  50:	000082e0 	andeq	r8, r0, r0, ror #5
  54:	0000000c 	andeq	r0, r0, ip
	...
  60:	0000001c 	andeq	r0, r0, ip, lsl r0
  64:	06a80002 	strteq	r0, [r8], r2
  68:	00040000 	andeq	r0, r4, r0
  6c:	00000000 	andeq	r0, r0, r0
  70:	000082ec 	andeq	r8, r0, ip, ror #5
  74:	00000058 	andeq	r0, r0, r8, asr r0
	...
  80:	0000001c 	andeq	r0, r0, ip, lsl r0
  84:	08490002 	stmdaeq	r9, {r1}^
  88:	00040000 	andeq	r0, r4, r0
  8c:	00000000 	andeq	r0, r0, r0
  90:	00008344 	andeq	r8, r0, r4, asr #6
  94:	00000038 	andeq	r0, r0, r8, lsr r0
	...
  a0:	0000001c 	andeq	r0, r0, ip, lsl r0
  a4:	09400002 	stmdbeq	r0, {r1}^
  a8:	00040000 	andeq	r0, r4, r0
  ac:	00000000 	andeq	r0, r0, r0
  b0:	0000837c 	andeq	r8, r0, ip, ror r3
  b4:	000009b4 			; <UNDEFINED> instruction: 0x000009b4
	...
  c0:	0000001c 	andeq	r0, r0, ip, lsl r0
  c4:	15c30002 	strbne	r0, [r3, #2]
  c8:	00040000 	andeq	r0, r4, r0
  cc:	00000000 	andeq	r0, r0, r0
  d0:	00008d30 	andeq	r8, r0, r0, lsr sp
  d4:	0000002c 	andeq	r0, r0, ip, lsr #32
	...
  e0:	0000001c 	andeq	r0, r0, ip, lsl r0
  e4:	16f60002 	ldrbtne	r0, [r6], r2
  e8:	00040000 	andeq	r0, r4, r0
  ec:	00000000 	andeq	r0, r0, r0
  f0:	00008d5c 	andeq	r8, r0, ip, asr sp
  f4:	000000f8 	strdeq	r0, [r0], -r8
	...
 100:	0000001c 	andeq	r0, r0, ip, lsl r0
 104:	188a0002 	stmne	sl, {r1}
 108:	00040000 	andeq	r0, r4, r0
 10c:	00000000 	andeq	r0, r0, r0
 110:	00008e54 	andeq	r8, r0, r4, asr lr
 114:	00000004 	andeq	r0, r0, r4
	...
 120:	0000001c 	andeq	r0, r0, ip, lsl r0
 124:	195c0002 	ldmdbne	ip, {r1}^
 128:	00040000 	andeq	r0, r4, r0
 12c:	00000000 	andeq	r0, r0, r0
 130:	00008e58 	andeq	r8, r0, r8, asr lr
 134:	0000008c 	andeq	r0, r0, ip, lsl #1
	...
 140:	0000001c 	andeq	r0, r0, ip, lsl r0
 144:	1bdd0002 	blne	ff740154 <__bss_end__+0xff73602c>
 148:	00040000 	andeq	r0, r4, r0
 14c:	00000000 	andeq	r0, r0, r0
 150:	00008ee4 	andeq	r8, r0, r4, ror #29
 154:	0000011c 	andeq	r0, r0, ip, lsl r1
	...
 160:	0000001c 	andeq	r0, r0, ip, lsl r0
 164:	21200002 			; <UNDEFINED> instruction: 0x21200002
 168:	00040000 	andeq	r0, r4, r0
 16c:	00000000 	andeq	r0, r0, r0
 170:	00009000 	andeq	r9, r0, r0
 174:	000001f0 	strdeq	r0, [r0], -r0	; <UNPREDICTABLE>
	...
 180:	0000001c 	andeq	r0, r0, ip, lsl r0
 184:	26f10002 	ldrbtcs	r0, [r1], r2
 188:	00040000 	andeq	r0, r4, r0
 18c:	00000000 	andeq	r0, r0, r0
 190:	000091f0 	strdeq	r9, [r0], -r0
 194:	000003b0 			; <UNDEFINED> instruction: 0x000003b0
	...
 1a0:	0000001c 	andeq	r0, r0, ip, lsl r0
 1a4:	2fde0002 	svccs	0x00de0002
 1a8:	00040000 	andeq	r0, r4, r0
 1ac:	00000000 	andeq	r0, r0, r0
 1b0:	000095a0 	andeq	r9, r0, r0, lsr #11
 1b4:	00000198 	muleq	r0, r8, r1
	...
 1c0:	0000001c 	andeq	r0, r0, ip, lsl r0
 1c4:	36550002 	ldrbcc	r0, [r5], -r2
 1c8:	00040000 	andeq	r0, r4, r0
 1cc:	00000000 	andeq	r0, r0, r0
 1d0:	00009738 	andeq	r9, r0, r8, lsr r7
 1d4:	00000078 	andeq	r0, r0, r8, ror r0
	...
 1e0:	0000001c 	andeq	r0, r0, ip, lsl r0
 1e4:	37990002 	ldrcc	r0, [r9, r2]
 1e8:	00040000 	andeq	r0, r4, r0
 1ec:	00000000 	andeq	r0, r0, r0
 1f0:	000097b0 			; <UNDEFINED> instruction: 0x000097b0
 1f4:	0000003c 	andeq	r0, r0, ip, lsr r0
	...
 200:	0000001c 	andeq	r0, r0, ip, lsl r0
 204:	38e60002 	stmiacc	r6!, {r1}^
 208:	00040000 	andeq	r0, r4, r0
 20c:	00000000 	andeq	r0, r0, r0
 210:	000097ec 	andeq	r9, r0, ip, ror #15
 214:	0000002c 	andeq	r0, r0, ip, lsr #32
	...
 220:	0000001c 	andeq	r0, r0, ip, lsl r0
 224:	3a210002 	bcc	840234 <__bss_end__+0x83610c>
 228:	00040000 	andeq	r0, r4, r0
 22c:	00000000 	andeq	r0, r0, r0
 230:	00009818 	andeq	r9, r0, r8, lsl r8
 234:	00000044 	andeq	r0, r0, r4, asr #32
	...
 240:	0000001c 	andeq	r0, r0, ip, lsl r0
 244:	3b1c0002 	blcc	700254 <__bss_end__+0x6f612c>
 248:	00040000 	andeq	r0, r4, r0
 24c:	00000000 	andeq	r0, r0, r0
 250:	0000985c 	andeq	r9, r0, ip, asr r8
 254:	00000018 	andeq	r0, r0, r8, lsl r0
	...
 260:	0000001c 	andeq	r0, r0, ip, lsl r0
 264:	3c2f0002 	stccc	0, cr0, [pc], #-8	; 264 <__code_start__-0x7d9c>
 268:	00040000 	andeq	r0, r4, r0
 26c:	00000000 	andeq	r0, r0, r0
 270:	00009874 	andeq	r9, r0, r4, ror r8
 274:	00000030 	andeq	r0, r0, r0, lsr r0
	...
 280:	0000001c 	andeq	r0, r0, ip, lsl r0
 284:	3d810002 	stccc	0, cr0, [r1, #8]
 288:	00040000 	andeq	r0, r4, r0
 28c:	00000000 	andeq	r0, r0, r0
 290:	000098a4 	andeq	r9, r0, r4, lsr #17
 294:	00000004 	andeq	r0, r0, r4
	...

Disassembly of section .debug_ranges:

00000000 <.debug_ranges>:
   0:	0000002c 	andeq	r0, r0, ip, lsr #32
   4:	00000064 	andeq	r0, r0, r4, rrx
   8:	0000006c 	andeq	r0, r0, ip, rrx
   c:	000000bc 	strheq	r0, [r0], -ip
	...
  18:	000000a4 	andeq	r0, r0, r4, lsr #1
  1c:	00000148 	andeq	r0, r0, r8, asr #2
  20:	00000158 	andeq	r0, r0, r8, asr r1
  24:	0000015c 	andeq	r0, r0, ip, asr r1
  28:	00000274 	andeq	r0, r0, r4, ror r2
  2c:	00000278 	andeq	r0, r0, r8, ror r2
  30:	0000027c 	andeq	r0, r0, ip, ror r2
  34:	00000280 	andeq	r0, r0, r0, lsl #5
  38:	00000288 	andeq	r0, r0, r8, lsl #5
  3c:	0000029c 	muleq	r0, ip, r2
  40:	000002c0 	andeq	r0, r0, r0, asr #5
  44:	000002cc 	andeq	r0, r0, ip, asr #5
  48:	000002f0 	strdeq	r0, [r0], -r0	; <UNPREDICTABLE>
  4c:	000002f0 	strdeq	r0, [r0], -r0	; <UNPREDICTABLE>
  50:	000002f4 	strdeq	r0, [r0], -r4
  54:	000002f8 	strdeq	r0, [r0], -r8
	...
  60:	00000148 	andeq	r0, r0, r8, asr #2
  64:	00000158 	andeq	r0, r0, r8, asr r1
  68:	0000015c 	andeq	r0, r0, ip, asr r1
  6c:	0000018c 	andeq	r0, r0, ip, lsl #3
  70:	0000029c 	muleq	r0, ip, r2
  74:	000002ac 	andeq	r0, r0, ip, lsr #5
	...
  80:	000003c8 	andeq	r0, r0, r8, asr #7
  84:	000003d0 	ldrdeq	r0, [r0], -r0	; <UNPREDICTABLE>
  88:	00000404 	andeq	r0, r0, r4, lsl #8
  8c:	000004ac 	andeq	r0, r0, ip, lsr #9
  90:	000004c0 	andeq	r0, r0, r0, asr #9
  94:	00000920 	andeq	r0, r0, r0, lsr #18
  98:	00000928 	andeq	r0, r0, r8, lsr #18
  9c:	000009b4 			; <UNDEFINED> instruction: 0x000009b4
	...
  a8:	000003c8 	andeq	r0, r0, r8, asr #7
  ac:	000003d0 	ldrdeq	r0, [r0], -r0	; <UNPREDICTABLE>
  b0:	00000504 	andeq	r0, r0, r4, lsl #10
  b4:	000005d0 	ldrdeq	r0, [r0], -r0	; <UNPREDICTABLE>
  b8:	00000800 	andeq	r0, r0, r0, lsl #16
  bc:	00000888 	andeq	r0, r0, r8, lsl #17
  c0:	00000930 	andeq	r0, r0, r0, lsr r9
  c4:	000009b4 			; <UNDEFINED> instruction: 0x000009b4
	...
  d0:	00000404 	andeq	r0, r0, r4, lsl #8
  d4:	00000408 	andeq	r0, r0, r8, lsl #8
  d8:	00000414 	andeq	r0, r0, r4, lsl r4
  dc:	00000414 	andeq	r0, r0, r4, lsl r4
  e0:	00000428 	andeq	r0, r0, r8, lsr #8
  e4:	0000042c 	andeq	r0, r0, ip, lsr #8
	...
  f0:	000005fc 	strdeq	r0, [r0], -ip
  f4:	00000700 	andeq	r0, r0, r0, lsl #14
  f8:	000007ec 	andeq	r0, r0, ip, ror #15
  fc:	000007f4 	strdeq	r0, [r0], -r4
 100:	00000888 	andeq	r0, r0, r8, lsl #17
 104:	00000894 	muleq	r0, r4, r8
 108:	000008a8 	andeq	r0, r0, r8, lsr #17
 10c:	000008bc 			; <UNDEFINED> instruction: 0x000008bc
 110:	00000910 	andeq	r0, r0, r0, lsl r9
 114:	00000920 	andeq	r0, r0, r0, lsr #18
	...
 120:	00000600 	andeq	r0, r0, r0, lsl #12
 124:	00000604 	andeq	r0, r0, r4, lsl #12
 128:	00000608 	andeq	r0, r0, r8, lsl #12
 12c:	000006b4 			; <UNDEFINED> instruction: 0x000006b4
 130:	000006cc 	andeq	r0, r0, ip, asr #13
 134:	000006d0 	ldrdeq	r0, [r0], -r0	; <UNPREDICTABLE>
 138:	000008a8 	andeq	r0, r0, r8, lsr #17
 13c:	000008b8 			; <UNDEFINED> instruction: 0x000008b8
 140:	00000910 	andeq	r0, r0, r0, lsl r9
 144:	00000920 	andeq	r0, r0, r0, lsr #18
	...
 150:	000006b4 			; <UNDEFINED> instruction: 0x000006b4
 154:	000006cc 	andeq	r0, r0, ip, asr #13
 158:	000006d0 	ldrdeq	r0, [r0], -r0	; <UNPREDICTABLE>
 15c:	00000700 	andeq	r0, r0, r0, lsl #14
 160:	000007ec 	andeq	r0, r0, ip, ror #15
 164:	000007f4 	strdeq	r0, [r0], -r4
 168:	00000888 	andeq	r0, r0, r8, lsl #17
 16c:	00000894 	muleq	r0, r4, r8
 170:	000008b8 			; <UNDEFINED> instruction: 0x000008b8
 174:	000008bc 			; <UNDEFINED> instruction: 0x000008bc
	...
 180:	00000700 	andeq	r0, r0, r0, lsl #14
 184:	00000708 	andeq	r0, r0, r8, lsl #14
 188:	0000070c 	andeq	r0, r0, ip, lsl #14
 18c:	000007ec 	andeq	r0, r0, ip, ror #15
 190:	00000894 	muleq	r0, r4, r8
 194:	000008a8 	andeq	r0, r0, r8, lsr #17
	...
 1a0:	00000728 	andeq	r0, r0, r8, lsr #14
 1a4:	000007a4 	andeq	r0, r0, r4, lsr #15
 1a8:	000007ac 	andeq	r0, r0, ip, lsr #15
 1ac:	000007b0 			; <UNDEFINED> instruction: 0x000007b0
 1b0:	00000894 	muleq	r0, r4, r8
 1b4:	00000898 	muleq	r0, r8, r8
 1b8:	0000089c 	muleq	r0, ip, r8
 1bc:	000008a0 	andeq	r0, r0, r0, lsr #17
	...
 1c8:	000007a4 	andeq	r0, r0, r4, lsr #15
 1cc:	000007ac 	andeq	r0, r0, ip, lsr #15
 1d0:	000007b0 			; <UNDEFINED> instruction: 0x000007b0
 1d4:	000007ec 	andeq	r0, r0, ip, ror #15
 1d8:	00000898 	muleq	r0, r8, r8
 1dc:	0000089c 	muleq	r0, ip, r8
 1e0:	000008a0 	andeq	r0, r0, r0, lsr #17
 1e4:	000008a8 	andeq	r0, r0, r8, lsr #17
	...
 1f0:	00008e84 	andeq	r8, r0, r4, lsl #29
 1f4:	00008e84 	andeq	r8, r0, r4, lsl #29
 1f8:	00008e88 	andeq	r8, r0, r8, lsl #29
 1fc:	00008e90 	muleq	r0, r0, lr
	...
 208:	00008e58 	andeq	r8, r0, r8, asr lr
 20c:	00008ee4 	andeq	r8, r0, r4, ror #29
	...
 218:	00000030 	andeq	r0, r0, r0, lsr r0
 21c:	00000030 	andeq	r0, r0, r0, lsr r0
 220:	00000038 	andeq	r0, r0, r8, lsr r0
 224:	0000004c 	andeq	r0, r0, ip, asr #32
	...
 230:	0000004c 	andeq	r0, r0, ip, asr #32
 234:	00000050 	andeq	r0, r0, r0, asr r0
 238:	00000050 	andeq	r0, r0, r0, asr r0
 23c:	00000078 	andeq	r0, r0, r8, ror r0
	...
 248:	0000004c 	andeq	r0, r0, ip, asr #32
 24c:	00000050 	andeq	r0, r0, r0, asr r0
 250:	00000050 	andeq	r0, r0, r0, asr r0
 254:	00000060 	andeq	r0, r0, r0, rrx
 258:	00000064 	andeq	r0, r0, r4, rrx
 25c:	00000068 	andeq	r0, r0, r8, rrx
	...
 268:	0000004c 	andeq	r0, r0, ip, asr #32
 26c:	00000050 	andeq	r0, r0, r0, asr r0
 270:	00000054 	andeq	r0, r0, r4, asr r0
 274:	00000060 	andeq	r0, r0, r0, rrx
	...
 280:	0000009c 	muleq	r0, ip, r0
 284:	000000a0 	andeq	r0, r0, r0, lsr #1
 288:	000000a0 	andeq	r0, r0, r0, lsr #1
 28c:	000000c8 	andeq	r0, r0, r8, asr #1
	...
 298:	0000009c 	muleq	r0, ip, r0
 29c:	000000a0 	andeq	r0, r0, r0, lsr #1
 2a0:	000000a0 	andeq	r0, r0, r0, lsr #1
 2a4:	000000b0 	strheq	r0, [r0], -r0	; <UNPREDICTABLE>
 2a8:	000000b4 	strheq	r0, [r0], -r4
 2ac:	000000b8 	strheq	r0, [r0], -r8
	...
 2b8:	0000009c 	muleq	r0, ip, r0
 2bc:	000000a0 	andeq	r0, r0, r0, lsr #1
 2c0:	000000a4 	andeq	r0, r0, r4, lsr #1
 2c4:	000000b0 	strheq	r0, [r0], -r0	; <UNPREDICTABLE>
	...
 2d0:	000000c8 	andeq	r0, r0, r8, asr #1
 2d4:	000000c8 	andeq	r0, r0, r8, asr #1
 2d8:	000000cc 	andeq	r0, r0, ip, asr #1
 2dc:	0000011c 	andeq	r0, r0, ip, lsl r1
	...
 2e8:	000000f0 	strdeq	r0, [r0], -r0	; <UNPREDICTABLE>
 2ec:	000000f4 	strdeq	r0, [r0], -r4
 2f0:	000000f4 	strdeq	r0, [r0], -r4
 2f4:	0000011c 	andeq	r0, r0, ip, lsl r1
	...
 300:	000000f0 	strdeq	r0, [r0], -r0	; <UNPREDICTABLE>
 304:	000000f4 	strdeq	r0, [r0], -r4
 308:	000000f4 	strdeq	r0, [r0], -r4
 30c:	00000104 	andeq	r0, r0, r4, lsl #2
 310:	00000108 	andeq	r0, r0, r8, lsl #2
 314:	0000010c 	andeq	r0, r0, ip, lsl #2
	...
 320:	000000f0 	strdeq	r0, [r0], -r0	; <UNPREDICTABLE>
 324:	000000f4 	strdeq	r0, [r0], -r4
 328:	000000f8 	strdeq	r0, [r0], -r8
 32c:	00000104 	andeq	r0, r0, r4, lsl #2
	...
 338:	00000134 	andeq	r0, r0, r4, lsr r1
 33c:	00000134 	andeq	r0, r0, r4, lsr r1
 340:	00000134 	andeq	r0, r0, r4, lsr r1
 344:	0000013c 	andeq	r0, r0, ip, lsr r1
	...
 350:	0000024c 	andeq	r0, r0, ip, asr #4
 354:	00000264 	andeq	r0, r0, r4, ror #4
 358:	000002c8 	andeq	r0, r0, r8, asr #5
 35c:	000002e8 	andeq	r0, r0, r8, ror #5
	...
 368:	00000008 	andeq	r0, r0, r8
 36c:	0000000c 	andeq	r0, r0, ip
 370:	00000014 	andeq	r0, r0, r4, lsl r0
 374:	00000054 	andeq	r0, r0, r4, asr r0
 378:	00000058 	andeq	r0, r0, r8, asr r0
 37c:	00000060 	andeq	r0, r0, r0, rrx
	...
 388:	00000060 	andeq	r0, r0, r0, rrx
 38c:	00000068 	andeq	r0, r0, r8, rrx
 390:	0000006c 	andeq	r0, r0, ip, rrx
 394:	000000ac 	andeq	r0, r0, ip, lsr #1
 398:	000000b0 	strheq	r0, [r0], -r0	; <UNPREDICTABLE>
 39c:	000000b8 	strheq	r0, [r0], -r8
	...
 3a8:	00000068 	andeq	r0, r0, r8, rrx
 3ac:	00000068 	andeq	r0, r0, r8, rrx
 3b0:	0000006c 	andeq	r0, r0, ip, rrx
 3b4:	000000ac 	andeq	r0, r0, ip, lsr #1
 3b8:	000000b0 	strheq	r0, [r0], -r0	; <UNPREDICTABLE>
 3bc:	000000b8 	strheq	r0, [r0], -r8
	...
 3c8:	000000e8 	andeq	r0, r0, r8, ror #1
 3cc:	000000f0 	strdeq	r0, [r0], -r0	; <UNPREDICTABLE>
 3d0:	000000f4 	strdeq	r0, [r0], -r4
 3d4:	00000134 	andeq	r0, r0, r4, lsr r1
 3d8:	00000138 	andeq	r0, r0, r8, lsr r1
 3dc:	00000140 	andeq	r0, r0, r0, asr #2
	...
 3e8:	000000f0 	strdeq	r0, [r0], -r0	; <UNPREDICTABLE>
 3ec:	000000f0 	strdeq	r0, [r0], -r0	; <UNPREDICTABLE>
 3f0:	000000f4 	strdeq	r0, [r0], -r4
 3f4:	00000134 	andeq	r0, r0, r4, lsr r1
 3f8:	00000138 	andeq	r0, r0, r8, lsr r1
 3fc:	00000140 	andeq	r0, r0, r0, asr #2
	...
 408:	00000144 	andeq	r0, r0, r4, asr #2
 40c:	00000148 	andeq	r0, r0, r8, asr #2
 410:	00000150 	andeq	r0, r0, r0, asr r1
 414:	0000015c 	andeq	r0, r0, ip, asr r1
	...

Disassembly of section .debug_line:

00000000 <.debug_line>:
       0:	0000011f 	andeq	r0, r0, pc, lsl r1
       4:	00680003 	rsbeq	r0, r8, r3
       8:	01020000 	mrseq	r0, (UNDEF: 2)
       c:	000d0efb 	strdeq	r0, [sp], -fp
      10:	01010101 	tsteq	r1, r1, lsl #2
      14:	01000000 	mrseq	r0, (UNDEF: 0)
      18:	2f010000 	svccs	0x00010000
      1c:	72657355 	rsbvc	r7, r5, #1409286145	; 0x54000001
      20:	696d2f73 	stmdbvs	sp!, {r0, r1, r4, r5, r6, r8, r9, sl, fp, sp}^
      24:	2f73656c 	svccs	0x0073656c
      28:	72756f53 	rsbsvc	r6, r5, #332	; 0x14c
      2c:	632f6563 			; <UNDEFINED> instruction: 0x632f6563
      30:	30343273 	eorscc	r3, r4, r3, ror r2
      34:	6c2f786c 	stcvs	8, cr7, [pc], #-432	; fffffe8c <__bss_end__+0xffff5d64>
      38:	69706269 	ldmdbvs	r0!, {r0, r3, r5, r6, r9, sp, lr}^
      3c:	636e692f 	cmnvs	lr, #770048	; 0xbc000
      40:	6564756c 	strbvs	r7, [r4, #-1388]!	; 0xfffffa94
      44:	2d310000 	ldccs	0, cr0, [r1, #-0]
      48:	74736574 	ldrbtvc	r6, [r3], #-1396	; 0xfffffa8c
      4c:	6c616d2d 	stclvs	13, cr6, [r1], #-180	; 0xffffff4c
      50:	2e636f6c 	cdpcs	15, 6, cr6, cr3, cr12, {3}
      54:	00000063 	andeq	r0, r0, r3, rrx
      58:	69707200 	ldmdbvs	r0!, {r9, ip, sp, lr}^
      5c:	0100682e 	tsteq	r0, lr, lsr #16
      60:	726b0000 	rsbvc	r0, fp, #0, 0
      64:	6c616d2d 	stclvs	13, cr6, [r1], #-180	; 0xffffff4c
      68:	2e636f6c 	cdpcs	15, 6, cr6, cr3, cr12, {3}
      6c:	00000068 	andeq	r0, r0, r8, rrx
      70:	14050000 	strne	r0, [r5], #-0
      74:	38020500 	stmdacc	r2, {r8, sl}
      78:	03000080 	movweq	r0, #128	; 0x80
      7c:	05050114 	streq	r0, [r5, #-276]	; 0xfffffeec
      80:	0610054e 	ldreq	r0, [r0], -lr, asr #10
      84:	06050501 	streq	r0, [r5], -r1, lsl #10
      88:	06141567 	ldreq	r1, [r4], -r7, ror #10
      8c:	052f064a 	streq	r0, [pc, #-1610]!	; fffffa4a <__bss_end__+0xffff5922>
      90:	0d050109 	stfeqs	f0, [r5, #-36]	; 0xffffffdc
      94:	14050106 	strne	r0, [r5], #-262	; 0xfffffefa
      98:	01040200 	mrseq	r0, R12_usr
      9c:	05052e06 	streq	r2, [r5, #-3590]	; 0xfffff1fa
      a0:	01040200 	mrseq	r0, R12_usr
      a4:	09050106 	stmdbeq	r5, {r1, r2, r8}
      a8:	14054b06 	strne	r4, [r5], #-2822	; 0xfffff4fa
      ac:	09050106 	stmdbeq	r5, {r1, r2, r8}
      b0:	4a066706 	bmi	199cd0 <__bss_end__+0x18fba8>
      b4:	00013006 	andeq	r3, r1, r6
      b8:	4a020402 	bmi	810c8 <__bss_end__+0x76fa0>
      bc:	02040200 	andeq	r0, r4, #0, 4
      c0:	04020001 	streq	r0, [r2], #-1
      c4:	0f051302 	svceq	0x00051302
      c8:	02040200 	andeq	r0, r4, #0, 4
      cc:	0b050106 	bleq	1404ec <__bss_end__+0x1363c4>
      d0:	02040200 	andeq	r0, r4, #0, 4
      d4:	000d052e 	andeq	r0, sp, lr, lsr #10
      d8:	06020402 	streq	r0, [r2], -r2, lsl #8
      dc:	0402004b 	streq	r0, [r2], #-75	; 0xffffffb5
      e0:	20051402 	andcs	r1, r5, r2, lsl #8
      e4:	02040200 	andeq	r0, r4, #0, 4
      e8:	05667803 	strbeq	r7, [r6, #-2051]!	; 0xfffff7fd
      ec:	04020021 	streq	r0, [r2], #-33	; 0xffffffdf
      f0:	00010602 	andeq	r0, r1, r2, lsl #12
      f4:	2e020402 	cdpcs	4, 0, cr0, cr2, cr2, {0}
      f8:	02000905 	andeq	r0, r0, #81920	; 0x14000
      fc:	32060104 	andcc	r0, r6, #1
     100:	01040200 	mrseq	r0, R12_usr
     104:	04020001 	streq	r0, [r2], #-1
     108:	0d05d601 	stceq	6, cr13, [r5, #-4]
     10c:	58080130 	stmdapl	r8, {r4, r5, r8}
     110:	05052e06 	streq	r2, [r5, #-3590]	; 0xfffff1fa
     114:	4a011606 	bmi	45934 <__bss_end__+0x3b80c>
     118:	06010566 	streq	r0, [r1], -r6, ror #10
     11c:	12024a13 	andne	r4, r2, #77824	; 0x13000
     120:	27010100 	strcs	r0, [r1, -r0, lsl #2]
     124:	03000002 	movweq	r0, #2
     128:	00006400 	andeq	r6, r0, r0, lsl #8
     12c:	fb010200 	blx	40936 <__bss_end__+0x3680e>
     130:	01000d0e 	tsteq	r0, lr, lsl #26
     134:	00010101 	andeq	r0, r1, r1, lsl #2
     138:	00010000 	andeq	r0, r1, r0
     13c:	552f0100 	strpl	r0, [pc, #-256]!	; 44 <__code_start__-0x7fbc>
     140:	73726573 	cmnvc	r2, #482344960	; 0x1cc00000
     144:	6c696d2f 	stclvs	13, cr6, [r9], #-188	; 0xffffff44
     148:	532f7365 			; <UNDEFINED> instruction: 0x532f7365
     14c:	6372756f 	cmnvs	r2, #465567744	; 0x1bc00000
     150:	73632f65 	cmnvc	r3, #404	; 0x194
     154:	6c303432 	cfldrsvs	mvf3, [r0], #-200	; 0xffffff38
     158:	696c2f78 	stmdbvs	ip!, {r3, r4, r5, r6, r8, r9, sl, fp, sp}^
     15c:	2f697062 	svccs	0x00697062
     160:	6c636e69 	stclvs	14, cr6, [r3], #-420	; 0xfffffe5c
     164:	00656475 	rsbeq	r6, r5, r5, ror r4
     168:	2d726b00 	vldmdbcs	r2!, {d22-d21}
     16c:	6c6c616d 	stfvse	f6, [ip], #-436	; 0xfffffe4c
     170:	632e636f 			; <UNDEFINED> instruction: 0x632e636f
     174:	00000000 	andeq	r0, r0, r0
     178:	2e697072 	mcrcs	0, 3, r7, cr9, cr2, {3}
     17c:	00010068 	andeq	r0, r1, r8, rrx
     180:	2d726b00 	vldmdbcs	r2!, {d22-d21}
     184:	6c6c616d 	stfvse	f6, [ip], #-436	; 0xfffffe4c
     188:	682e636f 	stmdavs	lr!, {r0, r1, r2, r3, r5, r6, r8, r9, sp, lr}
     18c:	00000000 	andeq	r0, r0, r0
     190:	00010500 	andeq	r0, r1, r0, lsl #10
     194:	81340205 	teqhi	r4, r5, lsl #4
     198:	d2030000 	andle	r0, r3, #0, 0
     19c:	01060100 	mrseq	r0, (UNDEF: 22)
     1a0:	2f060205 	svccs	0x00060205
     1a4:	06050513 			; <UNDEFINED> instruction: 0x06050513
     1a8:	06020501 	streq	r0, [r2], -r1, lsl #10
     1ac:	0609052f 	streq	r0, [r9], -pc, lsr #10
     1b0:	4a020501 	bmi	815bc <__bss_end__+0x77494>
     1b4:	0012052e 	andseq	r0, r2, lr, lsr #10
     1b8:	06010402 	streq	r0, [r1], -r2, lsl #8
     1bc:	0002052e 	andeq	r0, r2, lr, lsr #10
     1c0:	06010402 	streq	r0, [r1], -r2, lsl #8
     1c4:	00270501 	eoreq	r0, r7, r1, lsl #10
     1c8:	4a030402 	bmi	c11d8 <__bss_end__+0xb70b0>
     1cc:	02001205 	andeq	r1, r0, #1342177280	; 0x50000000
     1d0:	052e0304 	streq	r0, [lr, #-772]!	; 0xfffffcfc
     1d4:	054b0603 	strbeq	r0, [fp, #-1539]	; 0xfffff9fd
     1d8:	05010610 	streq	r0, [r1, #-1552]	; 0xfffff9f0
     1dc:	15052e06 	strne	r2, [r5, #-3590]	; 0xfffff1fa
     1e0:	01040200 	mrseq	r0, R12_usr
     1e4:	0020054a 	eoreq	r0, r0, sl, asr #10
     1e8:	4a020402 	bmi	811f8 <__bss_end__+0x770d0>
     1ec:	02040200 	andeq	r0, r4, #0, 4
     1f0:	0602054a 	streq	r0, [r2], -sl, asr #10
     1f4:	06100530 			; <UNDEFINED> instruction: 0x06100530
     1f8:	2e090501 	cfsh32cs	mvfx0, mvfx9, #1
     1fc:	052e1d05 	streq	r1, [lr, #-3333]!	; 0xfffff2fb
     200:	03052e05 	movweq	r2, #24069	; 0x5e05
     204:	0d055006 	stceq	0, cr5, [r5, #-24]	; 0xffffffe8
     208:	02050106 	andeq	r0, r5, #-2147483647	; 0x80000001
     20c:	0e052f06 	cdpeq	15, 0, cr2, cr5, cr6, {0}
     210:	08050106 	stmdaeq	r5, {r1, r2, r8}
     214:	2e05052e 	cfsh32cs	mvfx0, mvfx5, #30
     218:	50060305 	andpl	r0, r6, r5, lsl #6
     21c:	01060c05 	tsteq	r6, r5, lsl #24
     220:	2f060205 	svccs	0x00060205
     224:	01060805 	tsteq	r6, r5, lsl #16
     228:	054b0105 	strbeq	r0, [fp, #-261]	; 0xfffffefb
     22c:	73030603 	movwvc	r0, #13827	; 0x3603
     230:	061c052e 	ldreq	r0, [ip], -lr, lsr #10
     234:	2e0e0501 	cfsh32cs	mvfx0, mvfx14, #1
     238:	4b060305 	blmi	180e54 <__bss_end__+0x176d2c>
     23c:	01061305 	tsteq	r6, r5, lsl #6
     240:	052e1a05 	streq	r1, [lr, #-2565]!	; 0xfffff5fb
     244:	03052e0d 	movweq	r2, #24077	; 0x5e0d
     248:	15055006 	strne	r5, [r5, #-6]
     24c:	0d050106 	stfeqs	f0, [r5, #-24]	; 0xffffffe8
     250:	0603052e 	streq	r0, [r3], -lr, lsr #10
     254:	0613054b 	ldreq	r0, [r3], -fp, asr #10
     258:	2e0c0501 	cfsh32cs	mvfx0, mvfx12, #1
     25c:	03060105 	movweq	r0, #24837	; 0x6105
     260:	06667fba 			; <UNDEFINED> instruction: 0x06667fba
     264:	06020501 	streq	r0, [r2], -r1, lsl #10
     268:	0605054b 	streq	r0, [r5], -fp, asr #10
     26c:	2f060501 	svccs	0x00060501
     270:	2f060205 	svccs	0x00060205
     274:	01060d05 	tsteq	r6, r5, lsl #26
     278:	4b060205 	blmi	180a94 <__bss_end__+0x17696c>
     27c:	01060505 	tsteq	r6, r5, lsl #10
     280:	4c060205 	sfmmi	f0, 4, [r6], {5}
     284:	060d0513 			; <UNDEFINED> instruction: 0x060d0513
     288:	06020501 	streq	r0, [r2], -r1, lsl #10
     28c:	062e062f 	strteq	r0, [lr], -pc, lsr #12
     290:	0609052f 	streq	r0, [r9], -pc, lsr #10
     294:	620a0501 	andvs	r0, sl, #4194304	; 0x400000
     298:	06330105 	ldrteq	r0, [r3], -r5, lsl #2
     29c:	0501064e 	streq	r0, [r1, #-1614]	; 0xfffff9b2
     2a0:	132f0602 			; <UNDEFINED> instruction: 0x132f0602
     2a4:	06240514 			; <UNDEFINED> instruction: 0x06240514
     2a8:	2e290501 	cfsh64cs	mvdx0, mvdx9, #1
     2ac:	052e0905 	streq	r0, [lr, #-2309]!	; 0xfffff6fb
     2b0:	052f0602 	streq	r0, [pc, #-1538]!	; fffffcb6 <__bss_end__+0xffff5b8e>
     2b4:	0501060d 	streq	r0, [r1, #-1549]	; 0xfffff9f3
     2b8:	02054a05 	andeq	r4, r5, #20480	; 0x5000
     2bc:	09055006 	stmdbeq	r5, {r1, r2, ip, lr}
     2c0:	052e0106 	streq	r0, [lr, #-262]!	; 0xfffffefa
     2c4:	052a0603 	streq	r0, [sl, #-1539]!	; 0xfffff9fd
     2c8:	05010616 	streq	r0, [r1, #-1558]	; 0xfffff9ea
     2cc:	03054a0e 	movweq	r4, #23054	; 0x5a0e
     2d0:	0f052f06 	svceq	0x00052f06
     2d4:	04050106 	streq	r0, [r5], #-262	; 0xfffffefa
     2d8:	07056d06 	streq	r6, [r5, -r6, lsl #26]
     2dc:	05050106 	streq	r0, [r5, #-262]	; 0xfffffefa
     2e0:	0f053406 	svceq	0x00053406
     2e4:	05050106 	streq	r0, [r5, #-262]	; 0xfffffefa
     2e8:	07054b06 	streq	r4, [r5, -r6, lsl #22]
     2ec:	05050106 	streq	r0, [r5, #-262]	; 0xfffffefa
     2f0:	0f052f06 	svceq	0x00052f06
     2f4:	04050106 	streq	r0, [r5], #-262	; 0xfffffefa
     2f8:	0a053006 	beq	14c318 <__bss_end__+0x1421f0>
     2fc:	04050106 	streq	r0, [r5], #-262	; 0xfffffefa
     300:	0b054b06 	bleq	152f20 <__bss_end__+0x148df8>
     304:	052e0106 	streq	r0, [lr, #-262]!	; 0xfffffefa
     308:	77030605 	strvc	r0, [r3, -r5, lsl #12]
     30c:	0618052e 	ldreq	r0, [r8], -lr, lsr #10
     310:	2e120501 	cfmul32cs	mvfx0, mvfx2, mvfx1
     314:	03061a05 	movweq	r1, #27141	; 0x6a05
     318:	18054a7a 	stmdane	r5, {r1, r3, r4, r5, r6, r9, fp, lr}
     31c:	06200501 	strteq	r0, [r0], -r1, lsl #10
     320:	2e270501 	cfsh64cs	mvdx0, mvdx7, #1
     324:	30060305 	andcc	r0, r6, r5, lsl #6
     328:	01060b05 	tsteq	r6, r5, lsl #22
     32c:	052e0605 	streq	r0, [lr, #-1541]!	; 0xfffff9fb
     330:	0f030603 	svceq	0x00030603
     334:	0609054a 	streq	r0, [r9], -sl, asr #10
     338:	4a060501 	bmi	181744 <__bss_end__+0x17761c>
     33c:	4c060405 	cfstrsmi	mvf0, [r6], {5}
     340:	01060d05 	tsteq	r6, r5, lsl #26
     344:	2e07052e 	cfsh32cs	mvfx0, mvfx7, #30
     348:	0006022e 	andeq	r0, r6, lr, lsr #4
     34c:	00750101 	rsbseq	r0, r5, r1, lsl #2
     350:	00030000 	andeq	r0, r3, r0
     354:	00000053 	andeq	r0, r0, r3, asr r0
     358:	0efb0102 	cdpeq	1, 15, cr0, cr11, cr2, {0}
     35c:	0101000d 	tsteq	r1, sp
     360:	00000101 	andeq	r0, r0, r1, lsl #2
     364:	00000100 	andeq	r0, r0, r0, lsl #2
     368:	73552f01 	cmpvc	r5, #1, 30
     36c:	2f737265 	svccs	0x00737265
     370:	656c696d 	strbvs	r6, [ip, #-2413]!	; 0xfffff693
     374:	6f532f73 	svcvs	0x00532f73
     378:	65637275 	strbvs	r7, [r3, #-629]!	; 0xfffffd8b
     37c:	3273632f 	rsbscc	r6, r3, #-1140850688	; 0xbc000000
     380:	786c3034 	stmdavc	ip!, {r2, r4, r5, ip, sp}^
     384:	62696c2f 	rsbvs	r6, r9, #12032	; 0x2f00
     388:	692f6970 	stmdbvs	pc!, {r4, r5, r6, r8, fp, sp, lr}	; <UNPREDICTABLE>
     38c:	756c636e 	strbvc	r6, [ip, #-878]!	; 0xfffffc92
     390:	00006564 	andeq	r6, r0, r4, ror #10
     394:	732d6970 			; <UNDEFINED> instruction: 0x732d6970
     398:	2e6b7262 	cdpcs	2, 6, cr7, cr11, cr2, {3}
     39c:	00000063 	andeq	r0, r0, r3, rrx
     3a0:	69707200 	ldmdbvs	r0!, {r9, ip, sp, lr}^
     3a4:	0100682e 	tsteq	r0, lr, lsr #16
     3a8:	05000000 	streq	r0, [r0, #-0]
     3ac:	0205001c 	andeq	r0, r5, #28, 0
     3b0:	000082e0 	andeq	r8, r0, r0, ror #5
     3b4:	05010615 	streq	r0, [r1, #-1557]	; 0xfffff9eb
     3b8:	052f0605 	streq	r0, [pc, #-1541]!	; fffffdbb <__bss_end__+0xffff5c93>
     3bc:	0501060c 	streq	r0, [r1, #-1548]	; 0xfffff9f4
     3c0:	02022f01 	andeq	r2, r2, #1, 30
     3c4:	20010100 	andcs	r0, r1, r0, lsl #2
     3c8:	03000001 	movweq	r0, #1
     3cc:	0000db00 	andeq	sp, r0, r0, lsl #22
     3d0:	fb010200 	blx	40bda <__bss_end__+0x36ab2>
     3d4:	01000d0e 	tsteq	r0, lr, lsl #26
     3d8:	00010101 	andeq	r0, r1, r1, lsl #2
     3dc:	00010000 	andeq	r0, r1, r0
     3e0:	2f2e0100 	svccs	0x002e0100
     3e4:	6362696c 	cmnvs	r2, #108, 18	; 0x1b0000
     3e8:	706f2f00 	rsbvc	r2, pc, r0, lsl #30
     3ec:	6f682f74 	svcvs	0x00682f74
     3f0:	7262656d 	rsbvc	r6, r2, #457179136	; 0x1b400000
     3f4:	432f7765 			; <UNDEFINED> instruction: 0x432f7765
     3f8:	616c6c65 	cmnvs	ip, r5, ror #24
     3fc:	72612f72 	rsbvc	r2, r1, #456	; 0x1c8
     400:	6f6e2d6d 	svcvs	0x006e2d6d
     404:	652d656e 	strvs	r6, [sp, #-1390]!	; 0xfffffa92
     408:	2d696261 	sfmcs	f6, 2, [r9, #-388]!	; 0xfffffe7c
     40c:	2d392f39 	ldccs	15, cr2, [r9, #-228]!	; 0xffffff1c
     410:	39313032 	ldmdbcc	r1!, {r1, r4, r5, ip, sp}
     414:	632d3471 			; <UNDEFINED> instruction: 0x632d3471
     418:	37303173 			; <UNDEFINED> instruction: 0x37303173
     41c:	696c2f65 	stmdbvs	ip!, {r0, r2, r5, r6, r8, r9, sl, fp, sp}^
     420:	63672f62 	cmnvs	r7, #392	; 0x188
     424:	72612f63 	rsbvc	r2, r1, #396	; 0x18c
     428:	6f6e2d6d 	svcvs	0x006e2d6d
     42c:	652d656e 	strvs	r6, [sp, #-1390]!	; 0xfffffa92
     430:	2f696261 	svccs	0x00696261
     434:	2e322e39 	mrccs	14, 1, r2, cr2, cr9, {1}
     438:	6e692f31 	mcrvs	15, 3, r2, cr9, cr1, {1}
     43c:	64756c63 	ldrbtvs	r6, [r5], #-3171	; 0xfffff39d
     440:	552f0065 	strpl	r0, [pc, #-101]!	; 3e3 <__code_start__-0x7c1d>
     444:	73726573 	cmnvc	r2, #482344960	; 0x1cc00000
     448:	6c696d2f 	stclvs	13, cr6, [r9], #-188	; 0xffffff44
     44c:	532f7365 			; <UNDEFINED> instruction: 0x532f7365
     450:	6372756f 	cmnvs	r2, #465567744	; 0x1bc00000
     454:	73632f65 	cmnvc	r3, #404	; 0x194
     458:	6c303432 	cfldrsvs	mvf3, [r0], #-200	; 0xffffff38
     45c:	696c2f78 	stmdbvs	ip!, {r3, r4, r5, r6, r8, r9, sl, fp, sp}^
     460:	2f697062 	svccs	0x00697062
     464:	6c636e69 	stclvs	14, cr6, [r3], #-420	; 0xfffffe5c
     468:	00656475 	rsbeq	r6, r5, r5, ror r4
     46c:	69727000 	ldmdbvs	r2!, {ip, sp, lr}^
     470:	2e6b746e 	cdpcs	4, 6, cr7, cr11, cr14, {3}
     474:	00010063 	andeq	r0, r1, r3, rrx
     478:	64747300 	ldrbtvs	r7, [r4], #-768	; 0xfffffd00
     47c:	2e677261 	cdpcs	2, 6, cr7, cr7, cr1, {3}
     480:	00020068 	andeq	r0, r2, r8, rrx
     484:	69707200 	ldmdbvs	r0!, {r9, ip, sp, lr}^
     488:	0300682e 	movweq	r6, #2094	; 0x82e
     48c:	623c0000 	eorsvs	r0, ip, #0, 0
     490:	746c6975 	strbtvc	r6, [ip], #-2421	; 0xfffff68b
     494:	3e6e692d 	vmulcc.f16	s13, s28, s27	; <UNPREDICTABLE>
     498:	00000000 	andeq	r0, r0, r0
     49c:	702d6176 	eorvc	r6, sp, r6, ror r1
     4a0:	746e6972 	strbtvc	r6, [lr], #-2418	; 0xfffff68e
     4a4:	00682e6b 	rsbeq	r2, r8, fp, ror #28
     4a8:	00000001 	andeq	r0, r0, r1
     4ac:	05002205 	streq	r2, [r0, #-517]	; 0xfffffdfb
     4b0:	0082ec02 	addeq	lr, r2, r2, lsl #24
     4b4:	05051700 	streq	r1, [r5, #-1792]	; 0xfffff900
     4b8:	05141314 	ldreq	r1, [r4, #-788]	; 0xfffffcec
     4bc:	050d0622 	streq	r0, [sp, #-1570]	; 0xfffff9de
     4c0:	22055012 	andcs	r5, r5, #18, 0
     4c4:	052e7a03 	streq	r7, [lr, #-2563]!	; 0xfffff5fd
     4c8:	12053305 	andne	r3, r5, #335544320	; 0x14000000
     4cc:	6505052f 	strvs	r0, [r5, #-1327]	; 0xfffffad1
     4d0:	2f060905 	svccs	0x00060905
     4d4:	01061205 	tsteq	r6, r5, lsl #4
     4d8:	4b060505 	blmi	1818f4 <__bss_end__+0x1777cc>
     4dc:	064a0616 			; <UNDEFINED> instruction: 0x064a0616
     4e0:	06010550 			; <UNDEFINED> instruction: 0x06010550
     4e4:	08026613 	stmdaeq	r2, {r0, r1, r4, r9, sl, sp, lr}
     4e8:	a0010100 	andge	r0, r1, r0, lsl #2
     4ec:	03000000 	movweq	r0, #0
     4f0:	00005700 	andeq	r5, r0, r0, lsl #14
     4f4:	fb010200 	blx	40cfe <__bss_end__+0x36bd6>
     4f8:	01000d0e 	tsteq	r0, lr, lsl #26
     4fc:	00010101 	andeq	r0, r1, r1, lsl #2
     500:	00010000 	andeq	r0, r1, r0
     504:	2f2e0100 	svccs	0x002e0100
     508:	6362696c 	cmnvs	r2, #108, 18	; 0x1b0000
     50c:	73552f00 	cmpvc	r5, #0, 30
     510:	2f737265 	svccs	0x00737265
     514:	656c696d 	strbvs	r6, [ip, #-2413]!	; 0xfffff693
     518:	6f532f73 	svcvs	0x00532f73
     51c:	65637275 	strbvs	r7, [r3, #-629]!	; 0xfffffd8b
     520:	3273632f 	rsbscc	r6, r3, #-1140850688	; 0xbc000000
     524:	786c3034 	stmdavc	ip!, {r2, r4, r5, ip, sp}^
     528:	62696c2f 	rsbvs	r6, r9, #12032	; 0x2f00
     52c:	692f6970 	stmdbvs	pc!, {r4, r5, r6, r8, fp, sp, lr}	; <UNPREDICTABLE>
     530:	756c636e 	strbvc	r6, [ip, #-878]!	; 0xfffffc92
     534:	00006564 	andeq	r6, r0, r4, ror #10
     538:	6b747570 	blvs	1d1db00 <__bss_end__+0x1d139d8>
     53c:	0100632e 	tsteq	r0, lr, lsr #6
     540:	70720000 	rsbsvc	r0, r2, r0
     544:	00682e69 	rsbeq	r2, r8, r9, ror #28
     548:	00000002 	andeq	r0, r0, r2
     54c:	05002205 	streq	r2, [r0, #-517]	; 0xfffffdfb
     550:	00834402 	addeq	r4, r3, r2, lsl #8
     554:	05051500 	streq	r1, [r5, #-1280]	; 0xfffffb00
     558:	06220513 			; <UNDEFINED> instruction: 0x06220513
     55c:	0b052e11 	bleq	14bda8 <__bss_end__+0x141c80>
     560:	05052f06 	streq	r2, [r5, #-3846]	; 0xfffff0fa
     564:	09052e06 	stmdbeq	r5, {r1, r2, r9, sl, fp, sp}
     568:	02040200 	andeq	r0, r4, #0, 4
     56c:	0f056706 	svceq	0x00056706
     570:	02040200 	andeq	r0, r4, #0, 4
     574:	000b0549 	andeq	r0, fp, r9, asr #10
     578:	01020402 	tsteq	r2, r2, lsl #8
     57c:	02000505 	andeq	r0, r0, #20971520	; 0x1400000
     580:	2e060204 	cdpcs	2, 0, cr0, cr6, cr4, {0}
     584:	01054e06 	tsteq	r5, r6, lsl #28
     588:	06021306 	streq	r1, [r2], -r6, lsl #6
     58c:	fa010100 	blx	40994 <__bss_end__+0x3686c>
     590:	03000008 	movweq	r0, #8
     594:	0000f100 	andeq	pc, r0, r0, lsl #2
     598:	fb010200 	blx	40da2 <__bss_end__+0x36c7a>
     59c:	01000d0e 	tsteq	r0, lr, lsl #26
     5a0:	00010101 	andeq	r0, r1, r1, lsl #2
     5a4:	00010000 	andeq	r0, r1, r0
     5a8:	2f2e0100 	svccs	0x002e0100
     5ac:	6362696c 	cmnvs	r2, #108, 18	; 0x1b0000
     5b0:	706f2f00 	rsbvc	r2, pc, r0, lsl #30
     5b4:	6f682f74 	svcvs	0x00682f74
     5b8:	7262656d 	rsbvc	r6, r2, #457179136	; 0x1b400000
     5bc:	432f7765 			; <UNDEFINED> instruction: 0x432f7765
     5c0:	616c6c65 	cmnvs	ip, r5, ror #24
     5c4:	72612f72 	rsbvc	r2, r1, #456	; 0x1c8
     5c8:	6f6e2d6d 	svcvs	0x006e2d6d
     5cc:	652d656e 	strvs	r6, [sp, #-1390]!	; 0xfffffa92
     5d0:	2d696261 	sfmcs	f6, 2, [r9, #-388]!	; 0xfffffe7c
     5d4:	2d392f39 	ldccs	15, cr2, [r9, #-228]!	; 0xffffff1c
     5d8:	39313032 	ldmdbcc	r1!, {r1, r4, r5, ip, sp}
     5dc:	632d3471 			; <UNDEFINED> instruction: 0x632d3471
     5e0:	37303173 			; <UNDEFINED> instruction: 0x37303173
     5e4:	696c2f65 	stmdbvs	ip!, {r0, r2, r5, r6, r8, r9, sl, fp, sp}^
     5e8:	63672f62 	cmnvs	r7, #392	; 0x188
     5ec:	72612f63 	rsbvc	r2, r1, #396	; 0x18c
     5f0:	6f6e2d6d 	svcvs	0x006e2d6d
     5f4:	652d656e 	strvs	r6, [sp, #-1390]!	; 0xfffffa92
     5f8:	2f696261 	svccs	0x00696261
     5fc:	2e322e39 	mrccs	14, 1, r2, cr2, cr9, {1}
     600:	6e692f31 	mcrvs	15, 3, r2, cr9, cr1, {1}
     604:	64756c63 	ldrbtvs	r6, [r5], #-3171	; 0xfffff39d
     608:	552f0065 	strpl	r0, [pc, #-101]!	; 5ab <__code_start__-0x7a55>
     60c:	73726573 	cmnvc	r2, #482344960	; 0x1cc00000
     610:	6c696d2f 	stclvs	13, cr6, [r9], #-188	; 0xffffff44
     614:	532f7365 			; <UNDEFINED> instruction: 0x532f7365
     618:	6372756f 	cmnvs	r2, #465567744	; 0x1bc00000
     61c:	73632f65 	cmnvc	r3, #404	; 0x194
     620:	6c303432 	cfldrsvs	mvf3, [r0], #-200	; 0xffffff38
     624:	696c2f78 	stmdbvs	ip!, {r3, r4, r5, r6, r8, r9, sl, fp, sp}^
     628:	2f697062 	svccs	0x00697062
     62c:	6c636e69 	stclvs	14, cr6, [r3], #-420	; 0xfffffe5c
     630:	00656475 	rsbeq	r6, r5, r5, ror r4
     634:	2d617600 	stclcs	6, cr7, [r1, #-0]
     638:	6e697270 	mcrvs	2, 3, r7, cr9, cr0, {3}
     63c:	632e6b74 			; <UNDEFINED> instruction: 0x632e6b74
     640:	00000100 	andeq	r0, r0, r0, lsl #2
     644:	69647473 	stmdbvs	r4!, {r0, r1, r4, r5, r6, sl, ip, sp, lr}^
     648:	672d746e 	strvs	r7, [sp, -lr, ror #8]!
     64c:	682e6363 	stmdavs	lr!, {r0, r1, r5, r6, r8, r9, sp, lr}
     650:	00000200 	andeq	r0, r0, r0, lsl #4
     654:	2e697072 	mcrcs	0, 3, r7, cr9, cr2, {3}
     658:	00030068 	andeq	r0, r3, r8, rrx
     65c:	69707200 	ldmdbvs	r0!, {r9, ip, sp, lr}^
     660:	746e692d 	strbtvc	r6, [lr], #-2349	; 0xfffff6d3
     664:	616e7265 	cmnvs	lr, r5, ror #4
     668:	00682e6c 	rsbeq	r2, r8, ip, ror #28
     66c:	73000003 	movwvc	r0, #3
     670:	72616474 	rsbvc	r6, r1, #116, 8	; 0x74000000
     674:	00682e67 	rsbeq	r2, r8, r7, ror #28
     678:	3c000002 	stccc	0, cr0, [r0], {2}
     67c:	6c697562 	cfstr64vs	mvdx7, [r9], #-392	; 0xfffffe78
     680:	6e692d74 	mcrvs	13, 3, r2, cr9, cr4, {3}
     684:	0000003e 	andeq	r0, r0, lr, lsr r0
     688:	01050000 	mrseq	r0, (UNDEF: 5)
     68c:	7c020500 	cfstr32vc	mvfx0, [r2], {-0}
     690:	03000083 	movweq	r0, #131	; 0x83
     694:	050100c8 	streq	r0, [r1, #-200]	; 0xffffff38
     698:	01051402 	tsteq	r5, r2, lsl #8
     69c:	04051006 	streq	r1, [r5], #-6
     6a0:	2c010530 	cfstr32cs	mvfx0, [r1], {48}	; 0x30
     6a4:	3004054a 	andcc	r0, r4, sl, asr #10
     6a8:	31060205 	tstcc	r6, r5, lsl #4
     6ac:	060b0513 			; <UNDEFINED> instruction: 0x060b0513
     6b0:	0602052e 	streq	r0, [r2], -lr, lsr #10
     6b4:	06090530 			; <UNDEFINED> instruction: 0x06090530
     6b8:	2e0d2402 	cdpcs	4, 0, cr2, cr13, cr2, {0}
     6bc:	060d052e 	streq	r0, [sp], -lr, lsr #10
     6c0:	054a1703 	strbeq	r1, [sl, #-1795]	; 0xfffff8fd
     6c4:	2d051311 	stccs	3, cr1, [r5, #-68]	; 0xffffffbc
     6c8:	16050106 	strne	r0, [r5], -r6, lsl #2
     6cc:	2f0d052e 	svccs	0x000d052e
     6d0:	052d1605 	streq	r1, [sp, #-1541]!	; 0xfffff9fb
     6d4:	052f0614 	streq	r0, [pc, #-1556]!	; c8 <__code_start__-0x7f38>
     6d8:	05010617 	streq	r0, [r1, #-1559]	; 0xfffff9e9
     6dc:	2f062e0d 	svccs	0x00062e0d
     6e0:	01061205 	tsteq	r6, r5, lsl #4
     6e4:	052d2f2e 	streq	r2, [sp, #-3886]!	; 0xfffff0d2
     6e8:	052f060d 	streq	r0, [pc, #-1549]!	; e3 <__code_start__-0x7f1d>
     6ec:	05010612 	streq	r0, [r1, #-1554]	; 0xfffff9ee
     6f0:	052f0619 	streq	r0, [pc, #-1561]!	; df <__code_start__-0x7f21>
     6f4:	01110304 	tsteq	r1, r4, lsl #6
     6f8:	15020501 	strne	r0, [r2, #-1281]	; 0xfffffaff
     6fc:	b2030e05 	andlt	r0, r3, #80	; 0x50
     700:	0205017f 	andeq	r0, r5, #-1073741793	; 0xc000001f
     704:	06060513 			; <UNDEFINED> instruction: 0x06060513
     708:	06020501 	streq	r0, [r2], -r1, lsl #10
     70c:	01080530 	tsteq	r8, r0, lsr r5
     710:	01060205 	tsteq	r6, r5, lsl #4
     714:	0808054a 	stmdaeq	r8, {r1, r3, r6, r8, sl}
     718:	06030591 			; <UNDEFINED> instruction: 0x06030591
     71c:	0608054a 	streq	r0, [r8], -sl, asr #10
     720:	06150501 	ldreq	r0, [r5], -r1, lsl #10
     724:	0108052d 	tsteq	r8, sp, lsr #10
     728:	05d70305 	ldrbeq	r0, [r7, #773]	; 0x305
     72c:	05010608 	streq	r0, [r1, #-1544]	; 0xfffff9f8
     730:	02052d18 	andeq	r2, r5, #24, 26	; 0x600
     734:	2f08052e 	svccs	0x0008052e
     738:	2d061505 	cfstr32cs	mvfx1, [r6, #-20]	; 0xffffffec
     73c:	05010805 	streq	r0, [r1, #-2053]	; 0xfffff7fb
     740:	05010602 	streq	r0, [r1, #-1538]	; 0xfffff9fe
     744:	052f0603 	streq	r0, [pc, #-1539]!	; 149 <__code_start__-0x7eb7>
     748:	05110618 	ldreq	r0, [r1, #-1560]	; 0xfffff9e8
     74c:	08052e02 	stmdaeq	r5, {r1, r9, sl, fp, sp}
     750:	0615052f 	ldreq	r0, [r5], -pc, lsr #10
     754:	0108052d 	tsteq	r8, sp, lsr #10
     758:	05130305 	ldreq	r0, [r3, #-773]	; 0xfffffcfb
     75c:	05010608 	streq	r0, [r1, #-1544]	; 0xfffff9f8
     760:	052d0615 	streq	r0, [sp, #-1557]!	; 0xfffff9eb
     764:	01060108 	tsteq	r6, r8, lsl #2
     768:	a0060205 	andge	r0, r6, r5, lsl #4
     76c:	01060505 	tsteq	r6, r5, lsl #10
     770:	05360405 	ldreq	r0, [r6, #-1029]!	; 0xfffffbfb
     774:	09052f11 	stmdbeq	r5, {r0, r4, r8, r9, sl, fp, sp}
     778:	3302052e 	movwcc	r0, #9518	; 0x252e
     77c:	72030505 	andvc	r0, r3, #20971520	; 0x1400000
     780:	0602052e 	streq	r0, [r2], -lr, lsr #10
     784:	0501062f 	streq	r0, [r1, #-1583]	; 0xfffff9d1
     788:	0516060e 	ldreq	r0, [r6, #-1550]	; 0xfffff9f2
     78c:	05131402 	ldreq	r1, [r3, #-1026]	; 0xfffffbfe
     790:	02051303 	andeq	r1, r5, #201326592	; 0xc000000
     794:	0b051514 	bleq	145bec <__bss_end__+0x13bac4>
     798:	06020501 	streq	r0, [r2], -r1, lsl #10
     79c:	03052e01 	movweq	r2, #24065	; 0x5e01
     7a0:	0a056706 	beq	15a3c0 <__bss_end__+0x150298>
     7a4:	02050106 	andeq	r0, r5, #-2147483647	; 0x80000001
     7a8:	2f0a052d 	svccs	0x000a052d
     7ac:	2d061705 	stccs	7, cr1, [r6, #-20]	; 0xffffffec
     7b0:	05010b05 	streq	r0, [r1, #-2821]	; 0xfffff4fb
     7b4:	05010602 	streq	r0, [r1, #-1538]	; 0xfffff9fe
     7b8:	052e4c09 	streq	r4, [lr, #-3081]!	; 0xfffff3f7
     7bc:	052e0602 	streq	r0, [lr, #-1538]!	; 0xfffff9fe
     7c0:	05010609 	streq	r0, [r1, #-1545]	; 0xfffff9f7
     7c4:	06300602 	ldrteq	r0, [r0], -r2, lsl #12
     7c8:	03010501 	movweq	r0, #5377	; 0x1501
     7cc:	09050138 	stmdbeq	r5, {r3, r4, r5, r8}
     7d0:	2e4a4f03 	cdpcs	15, 4, cr4, cr10, cr3, {0}
     7d4:	0619052e 	ldreq	r0, [r9], -lr, lsr #10
     7d8:	054a2703 	strbeq	r2, [sl, #-1795]	; 0xfffff8fd
     7dc:	2805131a 	stmdacs	r5, {r1, r3, r4, r8, r9, ip}
     7e0:	1f050106 	svcne	0x00050106
     7e4:	2f04052e 	svccs	0x0004052e
     7e8:	052d1f05 	streq	r1, [sp, #-3845]!	; 0xfffff0fb
     7ec:	052f060b 	streq	r0, [pc, #-1547]!	; 1e9 <__code_start__-0x7e17>
     7f0:	0501060e 	streq	r0, [r1, #-1550]	; 0xfffff9f2
     7f4:	02052e04 	andeq	r2, r5, #4, 28	; 0x40
     7f8:	4a590306 	bmi	1641418 <__bss_end__+0x16372f0>
     7fc:	060b0513 			; <UNDEFINED> instruction: 0x060b0513
     800:	0602052e 	streq	r0, [r2], -lr, lsr #10
     804:	06090530 			; <UNDEFINED> instruction: 0x06090530
     808:	050d2402 	streq	r2, [sp, #-1026]	; 0xfffffbfe
     80c:	13360604 	teqne	r6, #4, 12	; 0x400000
     810:	01060605 	tsteq	r6, r5, lsl #12
     814:	67060505 	strvs	r0, [r6, -r5, lsl #10]
     818:	09051313 	stmdbeq	r5, {r0, r1, r4, r8, r9, ip}
     81c:	0d051106 	stfeqs	f1, [r5, #-24]	; 0xffffffe8
     820:	300b052b 	andcc	r0, fp, fp, lsr #10
     824:	052c0d05 	streq	r0, [ip, #-3333]!	; 0xfffff2fb
     828:	0405351b 	streq	r3, [r5], #-1307	; 0xfffffae5
     82c:	05052d06 	streq	r2, [r5, #-3334]	; 0xfffff2fa
     830:	061b0513 			; <UNDEFINED> instruction: 0x061b0513
     834:	820a052e 	andhi	r0, sl, #192937984	; 0xb800000
     838:	052f0405 	streq	r0, [pc, #-1029]!	; 43b <__code_start__-0x7bc5>
     83c:	0a052e0e 	beq	14c07c <__bss_end__+0x141f54>
     840:	060b0549 	streq	r0, [fp], -r9, asr #10
     844:	0604052f 	streq	r0, [r4], -pc, lsr #10
     848:	052f0601 	streq	r0, [pc, #-1537]!	; 24f <__code_start__-0x7db1>
     84c:	05010606 	streq	r0, [r1, #-1542]	; 0xfffff9fa
     850:	052f0605 	streq	r0, [pc, #-1541]!	; 253 <__code_start__-0x7dad>
     854:	2e01060a 	cfmadd32cs	mvax0, mvfx0, mvfx1, mvfx10
     858:	2e2e0705 	cdpcs	7, 2, cr0, cr14, cr5, {0}
     85c:	0604052e 	streq	r0, [r4], -lr, lsr #10
     860:	05010d03 	streq	r0, [r1, #-3331]	; 0xfffff2fd
     864:	46030602 	strmi	r0, [r3], -r2, lsl #12
     868:	03090501 	movweq	r0, #38145	; 0x9501
     86c:	04052e3a 	streq	r2, [r5], #-3642	; 0xfffff1c6
     870:	0d032f06 	stceq	15, cr2, [r3, #-24]	; 0xffffffe8
     874:	02050101 	andeq	r0, r5, #1073741824	; 0x40000000
     878:	030e0515 	movweq	r0, #58645	; 0xe515
     87c:	05017fb2 	streq	r7, [r1, #-4018]	; 0xfffff04e
     880:	05141302 	ldreq	r1, [r4, #-770]	; 0xfffffcfe
     884:	06050108 	streq	r0, [r5], -r8, lsl #2
     888:	3c031006 	stccc	0, cr1, [r3], {6}
     88c:	0302052e 	movweq	r0, #9518	; 0x252e
     890:	30064a46 	andcc	r4, r6, r6, asr #20
     894:	01060505 	tsteq	r6, r5, lsl #10
     898:	02052e2e 	andeq	r2, r5, #736	; 0x2e0
     89c:	01064b06 	tsteq	r6, r6, lsl #22
     8a0:	16060e05 	strne	r0, [r6], -r5, lsl #28
     8a4:	13140205 	tstne	r4, #1342177280	; 0x50000000
     8a8:	0b051515 	bleq	145d04 <__bss_end__+0x13bbdc>
     8ac:	06020501 	streq	r0, [r2], -r1, lsl #10
     8b0:	0530062e 	ldreq	r0, [r0, #-1582]!	; 0xfffff9d2
     8b4:	05010609 	streq	r0, [r1, #-1545]	; 0xfffff9f7
     8b8:	064c0602 	strbeq	r0, [ip], -r2, lsl #12
     8bc:	03010501 	movweq	r0, #5377	; 0x1501
     8c0:	06050138 			; <UNDEFINED> instruction: 0x06050138
     8c4:	054a6e03 	strbeq	r6, [sl, #-3587]	; 0xfffff1fd
     8c8:	66460302 	strbvs	r0, [r6], -r2, lsl #6
     8cc:	04052e4a 	streq	r2, [r5], #-3658	; 0xfffff1b6
     8d0:	00c80306 	sbceq	r0, r8, r6, lsl #6
     8d4:	01010101 	tsteq	r1, r1, lsl #2
     8d8:	06822e06 	streq	r2, [r2], r6, lsl #28
     8dc:	2e72034a 	cdpcs	3, 7, cr0, cr2, cr10, {2}
     8e0:	01060905 	tsteq	r6, r5, lsl #18
     8e4:	2f060405 	svccs	0x00060405
     8e8:	01010d03 	tsteq	r1, r3, lsl #26
     8ec:	05150205 	ldreq	r0, [r5, #-517]	; 0xfffffdfb
     8f0:	7fb2030e 	svcvc	0x00b2030e
     8f4:	13020501 	movwne	r0, #9473	; 0x2501
     8f8:	01080514 	tsteq	r8, r4, lsl r5
     8fc:	03060905 	movweq	r0, #26885	; 0x6905
     900:	0605011b 			; <UNDEFINED> instruction: 0x0605011b
     904:	032e6303 			; <UNDEFINED> instruction: 0x032e6303
     908:	2e2e2e3c 	mcrcs	14, 1, r2, cr14, cr12, {1}
     90c:	03064805 	movweq	r4, #26629	; 0x6805
     910:	3c087fb4 	stccc	15, cr7, [r8], {180}	; 0xb4
     914:	01130505 	tsteq	r3, r5, lsl #10
     918:	02002e06 	andeq	r2, r0, #96	; 0x60
     91c:	2e060204 	cdpcs	2, 0, cr0, cr6, cr4, {0}
     920:	02040200 	andeq	r0, r4, #0, 4
     924:	04020001 	streq	r0, [r2], #-1
     928:	11051302 	tstne	r5, r2, lsl #6
     92c:	02040200 	andeq	r0, r4, #0, 4
     930:	07050106 	streq	r0, [r5, -r6, lsl #2]
     934:	02040200 	andeq	r0, r4, #0, 4
     938:	0011052f 	andseq	r0, r1, pc, lsr #10
     93c:	2d020402 	cfstrscs	mvf0, [r2, #-8]
     940:	02000505 	andeq	r0, r0, #20971520	; 0x1400000
     944:	2f060204 	svccs	0x00060204
     948:	02000905 	andeq	r0, r0, #81920	; 0x14000
     94c:	05130204 	ldreq	r0, [r3, #-516]	; 0xfffffdfc
     950:	0402000e 	streq	r0, [r2], #-14
     954:	05010602 	streq	r0, [r1, #-1538]	; 0xfffff9fe
     958:	04020005 	streq	r0, [r2], #-5
     95c:	00630601 	rsbeq	r0, r3, r1, lsl #12
     960:	01010402 	tsteq	r1, r2, lsl #8
     964:	02004805 	andeq	r4, r0, #327680	; 0x50000
     968:	11060104 	tstne	r6, r4, lsl #2
     96c:	02000505 	andeq	r0, r0, #20971520	; 0x1400000
     970:	052f0104 	streq	r0, [pc, #-260]!	; 874 <__code_start__-0x778c>
     974:	04020048 	streq	r0, [r2], #-72	; 0xffffffb8
     978:	05052d01 	streq	r2, [r5, #-3329]	; 0xfffff2ff
     97c:	01040200 	mrseq	r0, R12_usr
     980:	0402002f 	streq	r0, [r2], #-47	; 0xffffffd1
     984:	02004a01 	andeq	r4, r0, #4096	; 0x1000
     988:	004a0104 	subeq	r0, sl, r4, lsl #2
     98c:	06010402 	streq	r0, [r1], -r2, lsl #8
     990:	0340054a 	movteq	r0, #1354	; 0x54a
     994:	06d600e1 	ldrbeq	r0, [r6], r1, ror #1
     998:	4e090501 	cfsh32mi	mvfx0, mvfx9, #1
     99c:	3008052e 	andcc	r0, r8, lr, lsr #10
     9a0:	05291e05 	streq	r1, [r9, #-3589]!	; 0xfffff1fb
     9a4:	0d052e12 	stceq	14, cr2, [r5, #-72]	; 0xffffffb8
     9a8:	06020533 			; <UNDEFINED> instruction: 0x06020533
     9ac:	13050545 	movwne	r0, #21829	; 0x5545
     9b0:	05140205 	ldreq	r0, [r4, #-517]	; 0xfffffdfb
     9b4:	02051305 	andeq	r1, r5, #335544320	; 0x14000000
     9b8:	01080513 	tsteq	r8, r3, lsl r5
     9bc:	03064005 	movweq	r4, #24581	; 0x6005
     9c0:	052e017a 	streq	r0, [lr, #-378]!	; 0xfffffe86
     9c4:	0566340d 	strbeq	r3, [r6, #-1037]!	; 0xfffffbf3
     9c8:	4a200311 	bmi	801614 <__bss_end__+0x7f74ec>
     9cc:	0604054a 	streq	r0, [r4], -sl, asr #10
     9d0:	05016203 	streq	r6, [r1, #-515]	; 0xfffffdfd
     9d4:	05010609 	streq	r0, [r1, #-1545]	; 0xfffff9f7
     9d8:	08052e0f 	stmdaeq	r5, {r0, r1, r2, r3, r9, sl, fp, sp}
     9dc:	0d052c06 	stceq	12, cr2, [r5, #-24]	; 0xffffffe8
     9e0:	03052e06 	movweq	r2, #24070	; 0x5e06
     9e4:	05056706 	streq	r6, [r5, #-1798]	; 0xfffff8fa
     9e8:	08050106 	stmdaeq	r5, {r1, r2, r8}
     9ec:	0e054d06 	cdpeq	13, 0, cr4, cr5, cr6, {0}
     9f0:	0a050106 	beq	140e10 <__bss_end__+0x136ce8>
     9f4:	2f09052e 	svccs	0x0009052e
     9f8:	2f060405 	svccs	0x00060405
     9fc:	01060705 	tsteq	r6, r5, lsl #14
     a00:	052c0a05 	streq	r0, [ip, #-2565]!	; 0xfffff5fb
     a04:	05320604 	ldreq	r0, [r2, #-1540]!	; 0xfffff9fc
     a08:	9803062d 	stmdals	r3, {r0, r2, r3, r5, r9, sl}
     a0c:	0905017f 	stmdbeq	r5, {r0, r1, r2, r3, r4, r5, r6, r8}
     a10:	2e00ed03 	cdpcs	13, 0, cr14, cr0, cr3, {0}
     a14:	052c0d05 	streq	r0, [ip, #-3333]!	; 0xfffff2fb
     a18:	04052b07 	streq	r2, [r5], #-2823	; 0xfffff4f9
     a1c:	14133006 	ldrne	r3, [r3], #-6
     a20:	05010905 	streq	r0, [r1, #-2309]	; 0xfffff6fb
     a24:	7f93030c 	svcvc	0x0093030c
     a28:	011d0501 	tsteq	sp, r1, lsl #10
     a2c:	09050106 	stmdbeq	r5, {r1, r2, r8}
     a30:	0100ed03 	tsteq	r0, r3, lsl #26
     a34:	2f060505 	svccs	0x00060505
     a38:	01061205 	tsteq	r6, r5, lsl #4
     a3c:	0b052d2e 	bleq	14befc <__bss_end__+0x141dd4>
     a40:	0605052f 	streq	r0, [r5], -pc, lsr #10
     a44:	1009052f 	andne	r0, r9, pc, lsr #10
     a48:	93030c05 	movwls	r0, #15365	; 0x3c05
     a4c:	1d05017f 	stfnes	f0, [r5, #-508]	; 0xfffffe04
     a50:	062d0501 	strteq	r0, [sp], -r1, lsl #10
     a54:	03090501 	movweq	r0, #38145	; 0x9501
     a58:	052e00ed 	streq	r0, [lr, #-237]!	; 0xffffff13
     a5c:	014e0604 	cmpeq	lr, r4, lsl #12
     a60:	02040200 	andeq	r0, r4, #0, 4
     a64:	0402004a 	streq	r0, [r2], #-74	; 0xffffffb6
     a68:	02000102 	andeq	r0, r0, #-2147483648	; 0x80000000
     a6c:	00150204 	andseq	r0, r5, r4, lsl #4
     a70:	06020402 	streq	r0, [r2], -r2, lsl #8
     a74:	00123602 	andseq	r3, r2, r2, lsl #12
     a78:	2e020402 	cdpcs	4, 0, cr0, cr2, cr2, {0}
     a7c:	03060205 	movweq	r0, #25093	; 0x6205
     a80:	050100d1 	streq	r0, [r1, #-209]	; 0xffffff2f
     a84:	2e010607 	cfmadd32cs	mvax0, mvfx0, mvfx1, mvfx7
     a88:	2f060205 	svccs	0x00060205
     a8c:	01060b05 	tsteq	r6, r5, lsl #22
     a90:	052f0105 	streq	r0, [pc, #-261]!	; 993 <__code_start__-0x766d>
     a94:	65030605 	strvs	r0, [r3, #-1541]	; 0xfffff9fb
     a98:	0609054a 	streq	r0, [r9], -sl, asr #10
     a9c:	05056601 	streq	r6, [r5, #-1537]	; 0xfffff9ff
     aa0:	04059f06 	streq	r9, [r5], #-3846	; 0xfffff0fa
     aa4:	05011103 	streq	r1, [r1, #-259]	; 0xfffffefd
     aa8:	05010607 	streq	r0, [r1, #-1543]	; 0xfffff9f9
     aac:	05310604 	ldreq	r0, [r1, #-1540]!	; 0xfffff9fc
     ab0:	1305010a 	movwne	r0, #20746	; 0x510a
     ab4:	01040200 	mrseq	r0, R12_usr
     ab8:	10052e06 	andne	r2, r5, r6, lsl #28
     abc:	01040200 	mrseq	r0, R12_usr
     ac0:	0605052e 	streq	r0, [r5], -lr, lsr #10
     ac4:	060a054b 	streq	r0, [sl], -fp, asr #10
     ac8:	052d0601 	streq	r0, [sp, #-1537]!	; 0xfffff9ff
     acc:	05010604 	streq	r0, [r1, #-1540]	; 0xfffff9fc
     ad0:	b6030611 			; <UNDEFINED> instruction: 0xb6030611
     ad4:	0113667f 	tsteq	r3, pc, ror r6
     ad8:	02040200 	andeq	r0, r4, #0, 4
     adc:	ba06ba06 	blt	1af2fc <__bss_end__+0x1a51d4>
     ae0:	1a051401 	bne	145aec <__bss_end__+0x13b9c4>
     ae4:	2e2e1306 	cdpcs	3, 2, cr1, cr14, cr6, {0}
     ae8:	674e1105 	strbvs	r1, [lr, -r5, lsl #2]
     aec:	05681405 	strbeq	r1, [r8, #-1029]!	; 0xfffffbfb
     af0:	15058213 	strne	r8, [r5, #-531]	; 0xfffffded
     af4:	054a7803 	strbeq	r7, [sl, #-2051]	; 0xfffff7fd
     af8:	134b0611 	movtne	r0, #46609	; 0xb611
     afc:	14131413 	ldrne	r1, [r3], #-1043	; 0xfffffbed
     b00:	01061305 	tsteq	r6, r5, lsl #6
     b04:	2f060905 	svccs	0x00060905
     b08:	01060d05 	tsteq	r6, r5, lsl #26
     b0c:	09052e2e 	stmdbeq	r5, {r1, r2, r3, r5, r9, sl, fp, sp}
     b10:	9d0d05bb 	cfstr32ls	mvfx0, [sp, #-748]	; 0xfffffd14
     b14:	2f060905 	svccs	0x00060905
     b18:	062f1505 	strteq	r1, [pc], -r5, lsl #10
     b1c:	034a7503 	movteq	r7, #42243	; 0xa503
     b20:	054a2e0b 	strbeq	r2, [sl, #-3595]	; 0xfffff1f5
     b24:	23030605 	movwcs	r0, #13829	; 0x3605
     b28:	06090501 	streq	r0, [r9], -r1, lsl #10
     b2c:	05052e01 	streq	r2, [r5, #-3585]	; 0xfffff1ff
     b30:	6e03d706 	cdpvs	7, 0, cr13, cr3, cr6, {0}
     b34:	010e032e 	tsteq	lr, lr, lsr #6
     b38:	01060905 	tsteq	r6, r5, lsl #18
     b3c:	03060505 	movweq	r0, #25861	; 0x6505
     b40:	01054a10 	tsteq	r5, r0, lsl sl
     b44:	017eed03 	cmneq	lr, r3, lsl #26
     b48:	15140205 	ldrne	r0, [r4, #-517]	; 0xfffffdfb
     b4c:	04051413 	streq	r1, [r5], #-1043	; 0xfffffbed
     b50:	05011a03 	streq	r1, [r1, #-2563]	; 0xfffff5fd
     b54:	05010609 	streq	r0, [r1, #-1545]	; 0xfffff9f7
     b58:	2e460302 	cdpcs	3, 4, cr0, cr6, cr2, {0}
     b5c:	3a030905 	bcc	c2f78 <__bss_end__+0xb8e50>
     b60:	0604052e 	streq	r0, [r4], -lr, lsr #10
     b64:	010d032f 	tsteq	sp, pc, lsr #6
     b68:	15020501 	strne	r0, [r2, #-1281]	; 0xfffffaff
     b6c:	b2030e05 	andlt	r0, r3, #80	; 0x50
     b70:	0205017f 	andeq	r0, r5, #-1073741793	; 0xc000001f
     b74:	08051413 	stmdaeq	r5, {r0, r1, r4, sl, ip}
     b78:	06020501 	streq	r0, [r2], -r1, lsl #10
     b7c:	9f080501 	svcls	0x00080501
     b80:	4a060305 	bmi	18179c <__bss_end__+0x177674>
     b84:	08050106 	stmdaeq	r5, {r1, r2, r8}
     b88:	0615052e 	ldreq	r0, [r5], -lr, lsr #10
     b8c:	0108052d 	tsteq	r8, sp, lsr #10
     b90:	062f0305 	strteq	r0, [pc], -r5, lsl #6
     b94:	2e080501 	cfsh32cs	mvfx0, mvfx8, #1
     b98:	2d061505 	cfstr32cs	mvfx1, [r6, #-20]	; 0xffffffec
     b9c:	05010805 	streq	r0, [r1, #-2053]	; 0xfffff7fb
     ba0:	01062f03 	tsteq	r6, r3, lsl #30
     ba4:	052e0805 	streq	r0, [lr, #-2053]!	; 0xfffff7fb
     ba8:	052d0615 	streq	r0, [sp, #-1557]!	; 0xfffff9eb
     bac:	03050108 	movweq	r0, #20744	; 0x5108
     bb0:	0501062f 	streq	r0, [r1, #-1583]	; 0xfffff9d1
     bb4:	15052e08 	strne	r2, [r5, #-3592]	; 0xfffff1f8
     bb8:	08052d06 	stmdaeq	r5, {r1, r2, r8, sl, fp, sp}
     bbc:	2f030501 	svccs	0x00030501
     bc0:	08050106 	stmdaeq	r5, {r1, r2, r8}
     bc4:	0615052e 	ldreq	r0, [r5], -lr, lsr #10
     bc8:	0108052d 	tsteq	r8, sp, lsr #10
     bcc:	062f0305 	strteq	r0, [pc], -r5, lsl #6
     bd0:	2e080501 	cfsh32cs	mvfx0, mvfx8, #1
     bd4:	2d061505 	cfstr32cs	mvfx1, [r6, #-20]	; 0xffffffec
     bd8:	05010805 	streq	r0, [r1, #-2053]	; 0xfffff7fb
     bdc:	08051303 	stmdaeq	r5, {r0, r1, r8, r9, ip}
     be0:	15050106 	strne	r0, [r5, #-262]	; 0xfffffefa
     be4:	08052d06 	stmdaeq	r5, {r1, r2, r8, sl, fp, sp}
     be8:	05660601 	strbeq	r0, [r6, #-1537]!	; 0xfffff9ff
     bec:	05670603 	strbeq	r0, [r7, #-1539]!	; 0xfffff9fd
     bf0:	05010608 	streq	r0, [r1, #-1544]	; 0xfffff9f8
     bf4:	02052d18 	andeq	r2, r5, #24, 26	; 0x600
     bf8:	2f08052e 	svccs	0x0008052e
     bfc:	2d061505 	cfstr32cs	mvfx1, [r6, #-20]	; 0xffffffec
     c00:	05010805 	streq	r0, [r1, #-2053]	; 0xfffff7fb
     c04:	05010602 	streq	r0, [r1, #-1538]	; 0xfffff9fe
     c08:	052f0603 	streq	r0, [pc, #-1539]!	; 60d <__code_start__-0x79f3>
     c0c:	05110618 	ldreq	r0, [r1, #-1560]	; 0xfffff9e8
     c10:	08052e02 	stmdaeq	r5, {r1, r9, sl, fp, sp}
     c14:	0615052f 	ldreq	r0, [r5], -pc, lsr #10
     c18:	0108052d 	tsteq	r8, sp, lsr #10
     c1c:	05130305 	ldreq	r0, [r3, #-773]	; 0xfffffcfb
     c20:	05010608 	streq	r0, [r1, #-1544]	; 0xfffff9f8
     c24:	052d0615 	streq	r0, [sp, #-1557]!	; 0xfffff9eb
     c28:	05050108 	streq	r0, [r5, #-264]	; 0xfffffef8
     c2c:	054a1406 	strbeq	r1, [sl, #-1030]	; 0xfffffbfa
     c30:	052e0602 	streq	r0, [lr, #-1538]!	; 0xfffff9fe
     c34:	0519060e 	ldreq	r0, [r9, #-1550]	; 0xfffff9f2
     c38:	11052f04 	tstne	r5, r4, lsl #30
     c3c:	4a09052f 	bmi	242100 <__bss_end__+0x237fd8>
     c40:	05330205 	ldreq	r0, [r3, #-517]!	; 0xfffffdfb
     c44:	2e720305 	cdpcs	3, 7, cr0, cr2, cr5, {0}
     c48:	2f060205 	svccs	0x00060205
     c4c:	0e050106 	adfeqs	f0, f5, f6
     c50:	02051606 	andeq	r1, r5, #6291456	; 0x600000
     c54:	03051314 	movweq	r1, #21268	; 0x5314
     c58:	14020513 	strne	r0, [r2], #-1299	; 0xfffffaed
     c5c:	010b0515 	tsteq	fp, r5, lsl r5
     c60:	01060205 	tsteq	r6, r5, lsl #4
     c64:	0305662e 	movweq	r6, #22062	; 0x562e
     c68:	0a052f06 	beq	14c888 <__bss_end__+0x142760>
     c6c:	02050106 	andeq	r0, r5, #-2147483647	; 0x80000001
     c70:	2f0a052d 	svccs	0x000a052d
     c74:	2d061705 	stccs	7, cr1, [r6, #-20]	; 0xffffffec
     c78:	05010b05 	streq	r0, [r1, #-2821]	; 0xfffff4fb
     c7c:	4a010602 	bmi	4248c <__bss_end__+0x38364>
     c80:	0605054a 	streq	r0, [r5], -sl, asr #10
     c84:	01019503 	tsteq	r1, r3, lsl #10
     c88:	03061105 	movweq	r1, #24837	; 0x6105
     c8c:	05017ef8 	streq	r7, [r1, #-3832]	; 0xfffff108
     c90:	0188031b 	orreq	r0, r8, fp, lsl r3
     c94:	0601054a 	streq	r0, [r1], -sl, asr #10
     c98:	2e7ef303 	cdpcs	3, 7, cr15, cr14, cr3, {0}
     c9c:	15140205 	ldrne	r0, [r4, #-517]	; 0xfffffdfb
     ca0:	19051413 	stmdbne	r5, {r0, r1, r4, sl, ip}
     ca4:	05012203 	streq	r2, [r1, #-515]	; 0xfffffdfd
     ca8:	2805131a 	stmdacs	r5, {r1, r3, r4, r8, r9, ip}
     cac:	1f050106 	svcne	0x00050106
     cb0:	2f04052e 	svccs	0x0004052e
     cb4:	054a0e05 	strbeq	r0, [sl, #-3589]	; 0xfffff1fb
     cb8:	0b052d1f 	bleq	14c13c <__bss_end__+0x142014>
     cbc:	04052f06 	streq	r2, [r5], #-3846	; 0xfffff0fa
     cc0:	32060106 	andcc	r0, r6, #-2147483647	; 0x80000001
     cc4:	15020501 	strne	r0, [r2, #-1281]	; 0xfffffaff
     cc8:	b2030e05 	andlt	r0, r3, #80	; 0x50
     ccc:	0205017f 	andeq	r0, r5, #-1073741793	; 0xc000001f
     cd0:	06060513 			; <UNDEFINED> instruction: 0x06060513
     cd4:	06020501 	streq	r0, [r2], -r1, lsl #10
     cd8:	01080530 	tsteq	r8, r0, lsr r5
     cdc:	01060205 	tsteq	r6, r5, lsl #4
     ce0:	08060305 	stmdaeq	r6, {r0, r2, r8, r9}
     ce4:	06080521 	streq	r0, [r8], -r1, lsr #10
     ce8:	06150501 	ldreq	r0, [r5], -r1, lsl #10
     cec:	01080549 	tsteq	r8, r9, asr #10
     cf0:	05d70305 	ldrbeq	r0, [r7, #773]	; 0x305
     cf4:	05010608 	streq	r0, [r1, #-1544]	; 0xfffff9f8
     cf8:	02052d18 	andeq	r2, r5, #24, 26	; 0x600
     cfc:	2f08052e 	svccs	0x0008052e
     d00:	2d061505 	cfstr32cs	mvfx1, [r6, #-20]	; 0xffffffec
     d04:	05010805 	streq	r0, [r1, #-2053]	; 0xfffff7fb
     d08:	05010602 	streq	r0, [r1, #-1538]	; 0xfffff9fe
     d0c:	052f0603 	streq	r0, [pc, #-1539]!	; 711 <__code_start__-0x78ef>
     d10:	05110618 	ldreq	r0, [r1, #-1560]	; 0xfffff9e8
     d14:	08052e02 	stmdaeq	r5, {r1, r9, sl, fp, sp}
     d18:	0615052f 	ldreq	r0, [r5], -pc, lsr #10
     d1c:	0108052d 	tsteq	r8, sp, lsr #10
     d20:	05130305 	ldreq	r0, [r3, #-773]	; 0xfffffcfb
     d24:	05010608 	streq	r0, [r1, #-1544]	; 0xfffff9f8
     d28:	052d0615 	streq	r0, [sp, #-1557]!	; 0xfffff9eb
     d2c:	05050108 	streq	r0, [r5, #-264]	; 0xfffffef8
     d30:	02051406 	andeq	r1, r5, #100663296	; 0x6000000
     d34:	04056606 	streq	r6, [r5], #-1542	; 0xfffff9fa
     d38:	05051a06 	streq	r1, [r5, #-2566]	; 0xfffff5fa
     d3c:	054a7803 	strbeq	r7, [sl, #-2051]	; 0xfffff7fd
     d40:	062f0602 	strteq	r0, [pc], -r2, lsl #12
     d44:	060e0501 	streq	r0, [lr], -r1, lsl #10
     d48:	14020516 	strne	r0, [r2], #-1302	; 0xfffffaea
     d4c:	06040513 			; <UNDEFINED> instruction: 0x06040513
     d50:	06030501 	streq	r0, [r3], -r1, lsl #10
     d54:	0611052f 	ldreq	r0, [r1], -pc, lsr #10
     d58:	2e090501 	cfsh32cs	mvfx0, mvfx9, #1
     d5c:	30060205 	andcc	r0, r6, r5, lsl #4
     d60:	010b0515 	tsteq	fp, r5, lsl r5
     d64:	01060205 	tsteq	r6, r5, lsl #4
     d68:	052e4a4a 	streq	r4, [lr, #-2634]!	; 0xfffff5b6
     d6c:	052f0603 	streq	r0, [pc, #-1539]!	; 771 <__code_start__-0x788f>
     d70:	0501060a 	streq	r0, [r1, #-1546]	; 0xfffff9f6
     d74:	0a052d02 	beq	14c184 <__bss_end__+0x14205c>
     d78:	0617052f 	ldreq	r0, [r7], -pc, lsr #10
     d7c:	010b052d 	tsteq	fp, sp, lsr #10
     d80:	01060205 	tsteq	r6, r5, lsl #4
     d84:	14062e4a 	strne	r2, [r6], #-3658	; 0xfffff1b6
     d88:	01060905 	tsteq	r6, r5, lsl #18
     d8c:	4c060205 	sfmmi	f0, 4, [r6], {5}
     d90:	05050106 	streq	r0, [r5, #-262]	; 0xfffffefa
     d94:	01980306 	orrseq	r0, r8, r6, lsl #6
     d98:	07052a01 	streq	r2, [r5, -r1, lsl #20]
     d9c:	05050106 	streq	r0, [r5, #-262]	; 0xfffffefa
     da0:	18052f06 	stmdane	r5, {r1, r2, r8, r9, sl, fp, sp}
     da4:	052e5303 	streq	r5, [lr, #-771]!	; 0xfffffcfd
     da8:	0501061b 	streq	r0, [r1, #-1563]	; 0xfffff9e5
     dac:	0905821a 	stmdbeq	r5, {r1, r3, r4, r9, pc}
     db0:	0d054b06 	vstreq	d4, [r5, #-24]	; 0xffffffe8
     db4:	052e0106 	streq	r0, [lr, #-262]!	; 0xfffffefa
     db8:	0d05d709 	stceq	7, cr13, [r5, #-36]	; 0xffffffdc
     dbc:	0609059d 			; <UNDEFINED> instruction: 0x0609059d
     dc0:	3015052f 	andscc	r0, r5, pc, lsr #10
     dc4:	01061805 	tsteq	r6, r5, lsl #16
     dc8:	05661705 	strbeq	r1, [r6, #-1797]!	; 0xfffff8fb
     dcc:	17052f19 	smladne	r5, r9, pc, r2	; <UNPREDICTABLE>
     dd0:	06190549 	ldreq	r0, [r9], -r9, asr #10
     dd4:	0615052f 	ldreq	r0, [r5], -pc, lsr #10
     dd8:	052e6f03 	streq	r6, [lr, #-3843]!	; 0xfffff0fd
     ddc:	13030619 	movwne	r0, #13849	; 0x3619
     de0:	0615054a 	ldreq	r0, [r5], -sl, asr #10
     de4:	4a2e6d03 	bmi	b9c1f8 <__bss_end__+0xb920d0>
     de8:	a0030205 	andge	r0, r3, r5, lsl #4
     dec:	0666017f 			; <UNDEFINED> instruction: 0x0666017f
     df0:	05017203 	streq	r7, [r1, #-515]	; 0xfffffdfd
     df4:	05010605 	streq	r0, [r1, #-1541]	; 0xfffff9fb
     df8:	05053604 	streq	r3, [r5, #-1540]	; 0xfffff9fc
     dfc:	052e7803 	streq	r7, [lr, #-2051]!	; 0xfffff7fd
     e00:	062f0602 	strteq	r0, [pc], -r2, lsl #12
     e04:	060e0501 	streq	r0, [lr], -r1, lsl #10
     e08:	14020516 	strne	r0, [r2], #-1302	; 0xfffffaea
     e0c:	06040513 			; <UNDEFINED> instruction: 0x06040513
     e10:	02054a01 	andeq	r4, r5, #4096	; 0x1000
     e14:	01780306 	cmneq	r8, r6, lsl #6
     e18:	01060505 	tsteq	r6, r5, lsl #10
     e1c:	0602054a 	streq	r0, [r2], -sl, asr #10
     e20:	0501064b 	streq	r0, [r1, #-1611]	; 0xfffff9b5
     e24:	0516060e 	ldreq	r0, [r6, #-1550]	; 0xfffff9f2
     e28:	15131402 	ldrne	r1, [r3, #-1026]	; 0xfffffbfe
     e2c:	010b0515 	tsteq	fp, r5, lsl r5
     e30:	11052e06 	tstne	r5, r6, lsl #28
     e34:	019e0306 	orrseq	r0, lr, r6, lsl #6
     e38:	06220501 	strteq	r0, [r2], -r1, lsl #10
     e3c:	2f050501 	svccs	0x00050501
     e40:	052d2205 	streq	r2, [sp, #-517]!	; 0xfffffdfb
     e44:	052f0605 	streq	r0, [pc, #-1541]!	; 847 <__code_start__-0x77b9>
     e48:	05054b11 	streq	r4, [r5, #-2833]	; 0xfffff4ef
     e4c:	039e0183 	orrseq	r0, lr, #-1073741792	; 0xc0000020
     e50:	9e012e5c 	mcrls	14, 0, r2, cr1, cr12, {2}
     e54:	03060205 	movweq	r0, #25093	; 0x6205
     e58:	2e2e7ef3 	mcrcs	14, 1, r7, cr14, cr3, {7}
     e5c:	4a2c0605 	bmi	b02678 <__bss_end__+0xaf8550>
     e60:	d8030d05 	stmdale	r3, {r0, r2, r8, sl, fp}
     e64:	04050100 	streq	r0, [r5], #-256	; 0xffffff00
     e68:	01040200 	mrseq	r0, R12_usr
     e6c:	4a110306 	bmi	441a8c <__bss_end__+0x437964>
     e70:	01040200 	mrseq	r0, R12_usr
     e74:	06110501 	ldreq	r0, [r1], -r1, lsl #10
     e78:	059e0651 	ldreq	r0, [lr, #1617]	; 0x651
     e7c:	2e170315 	mrccs	3, 0, r0, cr7, cr5, {0}
     e80:	1105ba01 	tstne	r5, r1, lsl #20
     e84:	012e6903 			; <UNDEFINED> instruction: 0x012e6903
     e88:	01002802 	tsteq	r0, r2, lsl #16
     e8c:	00008701 	andeq	r8, r0, r1, lsl #14
     e90:	64000300 	strvs	r0, [r0], #-768	; 0xfffffd00
     e94:	02000000 	andeq	r0, r0, #0, 0
     e98:	0d0efb01 	vstreq	d15, [lr, #-4]
     e9c:	01010100 	mrseq	r0, (UNDEF: 17)
     ea0:	00000001 	andeq	r0, r0, r1
     ea4:	01000001 	tsteq	r0, r1
     ea8:	74732f2e 	ldrbtvc	r2, [r3], #-3886	; 0xfffff0d2
     eac:	2d666661 	stclcs	6, cr6, [r6, #-388]!	; 0xfffffe7c
     eb0:	00637273 	rsbeq	r7, r3, r3, ror r2
     eb4:	6573552f 	ldrbvs	r5, [r3, #-1327]!	; 0xfffffad1
     eb8:	6d2f7372 	stcvs	3, cr7, [pc, #-456]!	; cf8 <__code_start__-0x7308>
     ebc:	73656c69 	cmnvc	r5, #26880	; 0x6900
     ec0:	756f532f 	strbvc	r5, [pc, #-815]!	; b99 <__code_start__-0x7467>
     ec4:	2f656372 	svccs	0x00656372
     ec8:	34327363 	ldrtcc	r7, [r2], #-867	; 0xfffffc9d
     ecc:	2f786c30 	svccs	0x00786c30
     ed0:	7062696c 	rsbvc	r6, r2, ip, ror #18
     ed4:	6e692f69 	cdpvs	15, 6, cr2, cr9, cr9, {3}
     ed8:	64756c63 	ldrbtvs	r6, [r5], #-3171	; 0xfffff39d
     edc:	63000065 	movwvs	r0, #101	; 0x65
     ee0:	6e61656c 	cdpvs	5, 6, cr6, cr1, cr12, {3}
     ee4:	6265722d 	rsbvs	r7, r5, #-805306366	; 0xd0000002
     ee8:	2e746f6f 	cdpcs	15, 7, cr6, cr4, cr15, {3}
     eec:	00010063 	andeq	r0, r1, r3, rrx
     ef0:	69707200 	ldmdbvs	r0!, {r9, ip, sp, lr}^
     ef4:	0200682e 	andeq	r6, r0, #3014656	; 0x2e0000
     ef8:	05000000 	streq	r0, [r0, #-0]
     efc:	02050019 	andeq	r0, r5, #25, 0
     f00:	00008d30 	andeq	r8, r0, r0, lsr sp
     f04:	13050515 	movwne	r0, #21781	; 0x5515
     f08:	2d061905 	vstrcs.16	s2, [r6, #-10]	; <UNPREDICTABLE>
     f0c:	062f0505 	strteq	r0, [pc], -r5, lsl #10
     f10:	024b2f67 	subeq	r2, fp, #412	; 0x19c
     f14:	01010006 	tsteq	r1, r6
     f18:	00000112 	andeq	r0, r0, r2, lsl r1
     f1c:	005e0003 	subseq	r0, lr, r3
     f20:	01020000 	mrseq	r0, (UNDEF: 2)
     f24:	000d0efb 	strdeq	r0, [sp], -fp
     f28:	01010101 	tsteq	r1, r1, lsl #2
     f2c:	01000000 	mrseq	r0, (UNDEF: 0)
     f30:	2e010000 	cdpcs	0, 0, cr0, cr1, cr0, {0}
     f34:	6174732f 	cmnvs	r4, pc, lsr #6
     f38:	732d6666 			; <UNDEFINED> instruction: 0x732d6666
     f3c:	2f006372 	svccs	0x00006372
     f40:	72657355 	rsbvc	r7, r5, #1409286145	; 0x54000001
     f44:	696d2f73 	stmdbvs	sp!, {r0, r1, r4, r5, r6, r8, r9, sl, fp, sp}^
     f48:	2f73656c 	svccs	0x0073656c
     f4c:	72756f53 	rsbsvc	r6, r5, #332	; 0x14c
     f50:	632f6563 			; <UNDEFINED> instruction: 0x632f6563
     f54:	30343273 	eorscc	r3, r4, r3, ror r2
     f58:	6c2f786c 	stcvs	8, cr7, [pc], #-432	; db0 <__code_start__-0x7250>
     f5c:	69706269 	ldmdbvs	r0!, {r0, r3, r5, r6, r9, sp, lr}^
     f60:	636e692f 	cmnvs	lr, #770048	; 0xbc000
     f64:	6564756c 	strbvs	r7, [r4, #-1388]!	; 0xfffffa94
     f68:	73630000 	cmnvc	r3, #0, 0
     f6c:	74726174 	ldrbtvc	r6, [r2], #-372	; 0xfffffe8c
     f70:	0100632e 	tsteq	r0, lr, lsr #6
     f74:	70720000 	rsbsvc	r0, r2, r0
     f78:	00682e69 	rsbeq	r2, r8, r9, ror #28
     f7c:	00000002 	andeq	r0, r0, r2
     f80:	05001005 	streq	r1, [r0, #-5]
     f84:	008d5c02 	addeq	r5, sp, r2, lsl #24
     f88:	05051500 	streq	r1, [r5, #-1280]	; 0xfffffb00
     f8c:	13020513 	movwne	r0, #9491	; 0x2513
     f90:	05140505 	ldreq	r0, [r4, #-1285]	; 0xfffffafb
     f94:	050e0610 	streq	r0, [lr, #-1552]	; 0xfffff9f0
     f98:	30063205 	andcc	r3, r6, r5, lsl #4
     f9c:	0a051413 	beq	145ff0 <__bss_end__+0x13bec8>
     fa0:	08090501 	stmdaeq	r9, {r0, r8, sl}
     fa4:	06100591 			; <UNDEFINED> instruction: 0x06100591
     fa8:	9a0a0501 	bls	2823b4 <__bss_end__+0x27828c>
     fac:	056a1005 	strbeq	r1, [sl, #-5]!
     fb0:	052d060a 	streq	r0, [sp, #-1546]!	; 0xfffff9f6
     fb4:	10052f09 	andne	r2, r5, r9, lsl #30
     fb8:	0a050106 	beq	1413d8 <__bss_end__+0x1372b0>
     fbc:	09052d06 	stmdbeq	r5, {r1, r2, r8, sl, fp, sp}
     fc0:	061005bb 			; <UNDEFINED> instruction: 0x061005bb
     fc4:	060a0501 	streq	r0, [sl], -r1, lsl #10
     fc8:	4b090565 	blmi	242564 <__bss_end__+0x23843c>
     fcc:	01060d05 	tsteq	r6, r5, lsl #26
     fd0:	052d0a05 	streq	r0, [sp, #-2565]!	; 0xfffff5fb
     fd4:	0a052f10 	beq	14cc1c <__bss_end__+0x142af4>
     fd8:	09052d06 	stmdbeq	r5, {r1, r2, r8, sl, fp, sp}
     fdc:	060d052f 	streq	r0, [sp], -pc, lsr #10
     fe0:	2d0a0501 	cfstr32cs	mvfx0, [sl, #-4]
     fe4:	052f1005 	streq	r1, [pc, #-5]!	; fe7 <__code_start__-0x7019>
     fe8:	052d060a 	streq	r0, [sp, #-1546]!	; 0xfffff9f6
     fec:	0d052f09 	stceq	15, cr2, [r5, #-36]	; 0xffffffdc
     ff0:	0a050106 	beq	141410 <__bss_end__+0x1372e8>
     ff4:	2f10052d 	svccs	0x0010052d
     ff8:	2d060a05 	vstrcs	s0, [r6, #-20]	; 0xffffffec
     ffc:	052f0905 	streq	r0, [pc, #-2309]!	; 6ff <__code_start__-0x7901>
    1000:	0501060d 	streq	r0, [r1, #-1549]	; 0xfffff9f3
    1004:	10052d0a 	andne	r2, r5, sl, lsl #26
    1008:	060a052f 	streq	r0, [sl], -pc, lsr #10
    100c:	1309052d 	movwne	r0, #38189	; 0x952d
    1010:	01061005 	tsteq	r6, r5
    1014:	2d060a05 	vstrcs	s0, [r6, #-20]	; 0xffffffec
    1018:	32150505 	andscc	r0, r5, #20971520	; 0x1400000
    101c:	144a0101 	strbne	r0, [sl], #-257	; 0xfffffeff
    1020:	052f0205 	streq	r0, [pc, #-517]!	; e23 <__code_start__-0x71dd>
    1024:	7303060a 	movwvc	r0, #13834	; 0x360a
    1028:	0008022e 	andeq	r0, r8, lr, lsr #4
    102c:	007d0101 	rsbseq	r0, sp, r1, lsl #2
    1030:	00030000 	andeq	r0, r3, r0
    1034:	00000065 	andeq	r0, r0, r5, rrx
    1038:	0efb0102 	cdpeq	1, 15, cr0, cr11, cr2, {0}
    103c:	0101000d 	tsteq	r1, sp
    1040:	00000101 	andeq	r0, r0, r1, lsl #2
    1044:	00000100 	andeq	r0, r0, r0, lsl #2
    1048:	732f2e01 			; <UNDEFINED> instruction: 0x732f2e01
    104c:	66666174 			; <UNDEFINED> instruction: 0x66666174
    1050:	6372732d 	cmnvs	r2, #-1275068416	; 0xb4000000
    1054:	73552f00 	cmpvc	r5, #0, 30
    1058:	2f737265 	svccs	0x00737265
    105c:	656c696d 	strbvs	r6, [ip, #-2413]!	; 0xfffff693
    1060:	6f532f73 	svcvs	0x00532f73
    1064:	65637275 	strbvs	r7, [r3, #-629]!	; 0xfffffd8b
    1068:	3273632f 	rsbscc	r6, r3, #-1140850688	; 0xbc000000
    106c:	786c3034 	stmdavc	ip!, {r2, r4, r5, ip, sp}^
    1070:	62696c2f 	rsbvs	r6, r9, #12032	; 0x2f00
    1074:	692f6970 	stmdbvs	pc!, {r4, r5, r6, r8, fp, sp, lr}	; <UNPREDICTABLE>
    1078:	756c636e 	strbvc	r6, [ip, #-878]!	; 0xfffffc92
    107c:	00006564 	andeq	r6, r0, r4, ror #10
    1080:	74737563 	ldrbtvc	r7, [r3], #-1379	; 0xfffffa9d
    1084:	6c2d6d6f 	stcvs	13, cr6, [sp], #-444	; 0xfffffe44
    1088:	6564616f 	strbvs	r6, [r4, #-367]!	; 0xfffffe91
    108c:	00632e72 	rsbeq	r2, r3, r2, ror lr
    1090:	72000001 	andvc	r0, r0, #1, 0
    1094:	682e6970 	stmdavs	lr!, {r4, r5, r6, r8, fp, sp, lr}
    1098:	00000200 	andeq	r0, r0, r0, lsl #4
    109c:	001a0500 	andseq	r0, sl, r0, lsl #10
    10a0:	8e540205 	cdphi	2, 5, cr0, cr4, cr5, {0}
    10a4:	05150000 	ldreq	r0, [r5, #-0]
    10a8:	02021401 	andeq	r1, r2, #16777216	; 0x1000000
    10ac:	14010100 	strne	r0, [r1], #-256	; 0xffffff00
    10b0:	03000001 	movweq	r0, #1
    10b4:	00005e00 	andeq	r5, r0, r0, lsl #28
    10b8:	fb010200 	blx	418c2 <__bss_end__+0x3779a>
    10bc:	01000d0e 	tsteq	r0, lr, lsl #26
    10c0:	00010101 	andeq	r0, r1, r1, lsl #2
    10c4:	00010000 	andeq	r0, r1, r0
    10c8:	2f2e0100 	svccs	0x002e0100
    10cc:	66617473 			; <UNDEFINED> instruction: 0x66617473
    10d0:	72732d66 	rsbsvc	r2, r3, #6528	; 0x1980
    10d4:	552f0063 	strpl	r0, [pc, #-99]!	; 1079 <__code_start__-0x6f87>
    10d8:	73726573 	cmnvc	r2, #482344960	; 0x1cc00000
    10dc:	6c696d2f 	stclvs	13, cr6, [r9], #-188	; 0xffffff44
    10e0:	532f7365 			; <UNDEFINED> instruction: 0x532f7365
    10e4:	6372756f 	cmnvs	r2, #465567744	; 0x1bc00000
    10e8:	73632f65 	cmnvc	r3, #404	; 0x194
    10ec:	6c303432 	cfldrsvs	mvf3, [r0], #-200	; 0xffffff38
    10f0:	696c2f78 	stmdbvs	ip!, {r3, r4, r5, r6, r8, r9, sl, fp, sp}^
    10f4:	2f697062 	svccs	0x00697062
    10f8:	6c636e69 	stclvs	14, cr6, [r3], #-420	; 0xfffffe5c
    10fc:	00656475 	rsbeq	r6, r5, r5, ror r4
    1100:	62657200 	rsbvs	r7, r5, #0, 4
    1104:	2e746f6f 	cdpcs	15, 7, cr6, cr4, cr15, {3}
    1108:	00010063 	andeq	r0, r1, r3, rrx
    110c:	69707200 	ldmdbvs	r0!, {r9, ip, sp, lr}^
    1110:	0200682e 	andeq	r6, r0, #3014656	; 0x2e0000
    1114:	05000000 	streq	r0, [r0, #-0]
    1118:	02050019 	andeq	r0, r5, #25, 0
    111c:	00008e58 	andeq	r8, r0, r8, asr lr
    1120:	05010d03 	streq	r0, [r1, #-3331]	; 0xfffff2fd
    1124:	31131305 	tstcc	r3, r5, lsl #6
    1128:	01061305 	tsteq	r6, r5, lsl #6
    112c:	052f0105 	streq	r0, [pc, #-261]!	; 102f <__code_start__-0x6fd1>
    1130:	0585061b 	streq	r0, [r5, #1563]	; 0x61b
    1134:	05141305 	ldreq	r1, [r4, #-773]	; 0xfffffcfb
    1138:	16052f09 	strne	r2, [r5], -r9, lsl #30
    113c:	05050106 	streq	r0, [r5, #-262]	; 0xfffffefa
    1140:	0e052f06 	cdpeq	15, 0, cr2, cr5, cr6, {0}
    1144:	05051106 	streq	r1, [r5, #-262]	; 0xfffffefa
    1148:	2f01052f 	svccs	0x0001052f
    114c:	30061705 	andcc	r1, r6, r5, lsl #14
    1150:	03130505 	tsteq	r3, #20971520	; 0x1400000
    1154:	1313016e 	tstne	r3, #-2147483621	; 0x8000001b
    1158:	03061705 	movweq	r1, #26373	; 0x6705
    115c:	0505010f 	streq	r0, [r5, #-271]	; 0xfffffef1
    1160:	062e7103 	strteq	r7, [lr], -r3, lsl #2
    1164:	06130531 			; <UNDEFINED> instruction: 0x06130531
    1168:	03070501 	movweq	r0, #29953	; 0x7501
    116c:	09052e0d 	stmdbeq	r5, {r0, r2, r3, r9, sl, fp, sp}
    1170:	06054b06 	streq	r4, [r5], -r6, lsl #22
    1174:	05017603 	streq	r7, [r1, #-1539]	; 0xfffff9fd
    1178:	05141305 	ldreq	r1, [r4, #-773]	; 0xfffffcfb
    117c:	16052f09 	strne	r2, [r5], -r9, lsl #30
    1180:	05050106 	streq	r0, [r5, #-262]	; 0xfffffefa
    1184:	0e052f06 	cdpeq	15, 0, cr2, cr5, cr6, {0}
    1188:	05051106 	streq	r1, [r5, #-262]	; 0xfffffefa
    118c:	03062e2f 	movweq	r2, #28207	; 0x6e2f
    1190:	2f30010a 	svccs	0x0030010a
    1194:	1313134d 	tstne	r3, #872415233	; 0x34000001
    1198:	02006715 	andeq	r6, r0, #5505024	; 0x540000
    119c:	05670104 	strbeq	r0, [r7, #-260]!	; 0xfffffefc
    11a0:	0402000d 	streq	r0, [r2], #-13
    11a4:	0a050101 	beq	1415b0 <__bss_end__+0x137488>
    11a8:	01040200 	mrseq	r0, R12_usr
    11ac:	00050501 	andeq	r0, r5, r1, lsl #10
    11b0:	01010402 	tsteq	r1, r2, lsl #8
    11b4:	02000d05 	andeq	r0, r0, #320	; 0x140
    11b8:	05010104 	streq	r0, [r1, #-260]	; 0xfffffefc
    11bc:	0402000a 	streq	r0, [r2], #-10
    11c0:	0a020101 	beq	815cc <__bss_end__+0x774a4>
    11c4:	fa010100 	blx	415cc <__bss_end__+0x374a4>
    11c8:	03000001 	movweq	r0, #1
    11cc:	00005d00 	andeq	r5, r0, r0, lsl #26
    11d0:	fb010200 	blx	419da <__bss_end__+0x378b2>
    11d4:	01000d0e 	tsteq	r0, lr, lsl #26
    11d8:	00010101 	andeq	r0, r1, r1, lsl #2
    11dc:	00010000 	andeq	r0, r1, r0
    11e0:	2f2e0100 	svccs	0x002e0100
    11e4:	66617473 			; <UNDEFINED> instruction: 0x66617473
    11e8:	72732d66 	rsbsvc	r2, r3, #6528	; 0x1980
    11ec:	552f0063 	strpl	r0, [pc, #-99]!	; 1191 <__code_start__-0x6e6f>
    11f0:	73726573 	cmnvc	r2, #482344960	; 0x1cc00000
    11f4:	6c696d2f 	stclvs	13, cr6, [r9], #-188	; 0xffffff44
    11f8:	532f7365 			; <UNDEFINED> instruction: 0x532f7365
    11fc:	6372756f 	cmnvs	r2, #465567744	; 0x1bc00000
    1200:	73632f65 	cmnvc	r3, #404	; 0x194
    1204:	6c303432 	cfldrsvs	mvf3, [r0], #-200	; 0xffffff38
    1208:	696c2f78 	stmdbvs	ip!, {r3, r4, r5, r6, r8, r9, sl, fp, sp}^
    120c:	2f697062 	svccs	0x00697062
    1210:	6c636e69 	stclvs	14, cr6, [r3], #-420	; 0xfffffe5c
    1214:	00656475 	rsbeq	r6, r5, r5, ror r4
    1218:	6d697400 	cfstrdvs	mvd7, [r9, #-0]
    121c:	632e7265 			; <UNDEFINED> instruction: 0x632e7265
    1220:	00000100 	andeq	r0, r0, r0, lsl #2
    1224:	2e697072 	mcrcs	0, 3, r7, cr9, cr2, {3}
    1228:	00020068 	andeq	r0, r2, r8, rrx
    122c:	23050000 	movwcs	r0, #20480	; 0x5000
    1230:	e4020500 	str	r0, [r2], #-1280	; 0xfffffb00
    1234:	1500008e 	strne	r0, [r0, #-142]	; 0xffffff72
    1238:	05130505 	ldreq	r0, [r3, #-1285]	; 0xfffffafb
    123c:	0501060c 	streq	r0, [r1, #-1548]	; 0xfffff9f4
    1240:	056a061f 	strbeq	r0, [sl, #-1567]!	; 0xfffff9e1
    1244:	1f051505 	svcne	0x00051505
    1248:	05050f06 	streq	r0, [r5, #-3846]	; 0xfffff0fa
    124c:	052f0631 	streq	r0, [pc, #-1585]!	; c23 <__code_start__-0x73dd>
    1250:	0177030a 	cmneq	r7, sl, lsl #6
    1254:	05130505 	ldreq	r0, [r3, #-1285]	; 0xfffffafb
    1258:	6601060c 	strvs	r0, [r1], -ip, lsl #12
    125c:	03060505 	movweq	r0, #25861	; 0x6505
    1260:	052f0109 	streq	r0, [pc, #-265]!	; 115f <__code_start__-0x6ea1>
    1264:	05130601 	ldreq	r0, [r3, #-1537]	; 0xfffff9ff
    1268:	0568061c 	strbeq	r0, [r8, #-1564]!	; 0xfffff9e4
    126c:	0a051305 	beq	145e88 <__bss_end__+0x13bd60>
    1270:	05017603 	streq	r7, [r1, #-1539]	; 0xfffff9fd
    1274:	1c051505 	cfstr32ne	mvfx1, [r5], {5}
    1278:	052e1806 	streq	r1, [lr, #-2054]!	; 0xfffff7fa
    127c:	2e7a0305 	cdpcs	3, 7, cr0, cr10, cr5, {0}
    1280:	0a052f06 	beq	14cea0 <__bss_end__+0x142d78>
    1284:	05017703 	streq	r7, [r1, #-1795]	; 0xfffff8fd
    1288:	0c051305 	stceq	3, cr1, [r5], {5}
    128c:	05660106 	strbeq	r0, [r6, #-262]!	; 0xfffffefa
    1290:	09030605 	stmdbeq	r3, {r0, r2, r9, sl}
    1294:	01062f01 	tsteq	r6, r1, lsl #30
    1298:	76030c05 	strvc	r0, [r3], -r5, lsl #24
    129c:	06050501 	streq	r0, [r5], -r1, lsl #10
    12a0:	052e0f03 	streq	r0, [lr, #-3843]!	; 0xfffff0fd
    12a4:	0a051309 	beq	145ed0 <__bss_end__+0x13bda8>
    12a8:	05017403 	streq	r7, [r1, #-1027]	; 0xfffffbfd
    12ac:	052f1505 	streq	r1, [pc, #-1285]!	; daf <__code_start__-0x7251>
    12b0:	0177030a 	cmneq	r7, sl, lsl #6
    12b4:	05130505 	ldreq	r0, [r3, #-1285]	; 0xfffffafb
    12b8:	6601060c 	strvs	r0, [r1], -ip, lsl #12
    12bc:	03060505 	movweq	r0, #25861	; 0x6505
    12c0:	11050109 	tstne	r5, r9, lsl #2
    12c4:	05051a06 	streq	r1, [r5, #-2566]	; 0xfffff5fa
    12c8:	062e7803 	strteq	r7, [lr], -r3, lsl #16
    12cc:	1909052f 	stmdbne	r9, {r0, r1, r2, r3, r5, r8, sl}
    12d0:	01060c05 	tsteq	r6, r5, lsl #24
    12d4:	87061c05 	strhi	r1, [r6, -r5, lsl #24]
    12d8:	05130505 	ldreq	r0, [r3, #-1285]	; 0xfffffafb
    12dc:	0511061c 	ldreq	r0, [r1, #-1564]	; 0xfffff9e4
    12e0:	054a2f05 	strbeq	r2, [sl, #-3845]	; 0xfffff0fb
    12e4:	76030606 	strvc	r0, [r3], -r6, lsl #12
    12e8:	1305052e 	movwne	r0, #21806	; 0x552e
    12ec:	76030a05 	strvc	r0, [r3], -r5, lsl #20
    12f0:	15050501 	strne	r0, [r5, #-1281]	; 0xfffffaff
    12f4:	030a052f 	movweq	r0, #42287	; 0xa52f
    12f8:	05050177 	streq	r0, [r5, #-375]	; 0xfffffe89
    12fc:	060c0513 			; <UNDEFINED> instruction: 0x060c0513
    1300:	05056601 	streq	r6, [r5, #-1537]	; 0xfffff9ff
    1304:	01090306 	tsteq	r9, r6, lsl #6
    1308:	0501062f 	streq	r0, [r1, #-1583]	; 0xfffff9d1
    130c:	0176030c 	cmneq	r6, ip, lsl #6
    1310:	03060505 	movweq	r0, #25861	; 0x6505
    1314:	09052e0f 	stmdbeq	r5, {r0, r1, r2, r3, r9, sl, fp, sp}
    1318:	030a0513 	movweq	r0, #42259	; 0xa513
    131c:	05050174 	streq	r0, [r5, #-372]	; 0xfffffe8c
    1320:	0a052f15 	beq	14cf7c <__bss_end__+0x142e54>
    1324:	05017703 	streq	r7, [r1, #-1795]	; 0xfffff8fd
    1328:	0c051305 	stceq	3, cr1, [r5], {5}
    132c:	05660106 	strbeq	r0, [r6, #-262]!	; 0xfffffefa
    1330:	09030605 	stmdbeq	r3, {r0, r2, r9, sl}
    1334:	06110501 	ldreq	r0, [r1], -r1, lsl #10
    1338:	0305051a 	movweq	r0, #21786	; 0x551a
    133c:	2f062e78 	svccs	0x00062e78
    1340:	05190905 	ldreq	r0, [r9, #-2309]	; 0xfffff6fb
    1344:	0501060c 	streq	r0, [r1, #-1548]	; 0xfffff9f4
    1348:	058a061e 	streq	r0, [sl, #1566]	; 0x61e
    134c:	06051305 	streq	r1, [r5], -r5, lsl #6
    1350:	1305050e 	movwne	r0, #21774	; 0x550e
    1354:	14061e05 	strne	r1, [r6], #-3589	; 0xfffff1fb
    1358:	662c0505 	strtvs	r0, [ip], -r5, lsl #10
    135c:	03060605 	movweq	r0, #26117	; 0x6605
    1360:	05052e76 	streq	r2, [r5, #-3702]	; 0xfffff18a
    1364:	030a0513 	movweq	r0, #42259	; 0xa513
    1368:	05050176 	streq	r0, [r5, #-374]	; 0xfffffe8a
    136c:	0a052f15 	beq	14cfc8 <__bss_end__+0x142ea0>
    1370:	05017703 	streq	r7, [r1, #-1795]	; 0xfffff8fd
    1374:	0c051305 	stceq	3, cr1, [r5], {5}
    1378:	05660106 	strbeq	r0, [r6, #-262]!	; 0xfffffefa
    137c:	09030605 	stmdbeq	r3, {r0, r2, r9, sl}
    1380:	01062f01 	tsteq	r6, r1, lsl #30
    1384:	76030c05 	strvc	r0, [r3], -r5, lsl #24
    1388:	06050501 	streq	r0, [r5], -r1, lsl #10
    138c:	052e0f03 	streq	r0, [lr, #-3843]!	; 0xfffff0fd
    1390:	0a051309 	beq	145fbc <__bss_end__+0x13be94>
    1394:	05017403 	streq	r7, [r1, #-1027]	; 0xfffffbfd
    1398:	052f1505 	streq	r1, [pc, #-1285]!	; e9b <__code_start__-0x7165>
    139c:	0177030a 	cmneq	r7, sl, lsl #6
    13a0:	05130505 	ldreq	r0, [r3, #-1285]	; 0xfffffafb
    13a4:	6601060c 	strvs	r0, [r1], -ip, lsl #12
    13a8:	03060505 	movweq	r0, #25861	; 0x6505
    13ac:	11050109 	tstne	r5, r9, lsl #2
    13b0:	05051a06 	streq	r1, [r5, #-2566]	; 0xfffff5fa
    13b4:	062e7803 	strteq	r7, [lr], -r3, lsl #16
    13b8:	1909052f 	stmdbne	r9, {r0, r1, r2, r3, r5, r8, sl}
    13bc:	01060c05 	tsteq	r6, r5, lsl #24
    13c0:	01000802 	tsteq	r0, r2, lsl #16
    13c4:	00020401 	andeq	r0, r2, r1, lsl #8
    13c8:	c8000300 	stmdagt	r0, {r8, r9}
    13cc:	02000000 	andeq	r0, r0, #0, 0
    13d0:	0d0efb01 	vstreq	d15, [lr, #-4]
    13d4:	01010100 	mrseq	r0, (UNDEF: 17)
    13d8:	00000001 	andeq	r0, r0, r1
    13dc:	01000001 	tsteq	r0, r1
    13e0:	6d6f682f 	stclvs	8, cr6, [pc, #-188]!	; 132c <__code_start__-0x6cd4>
    13e4:	6e652f65 	cdpvs	15, 6, cr2, cr5, cr5, {3}
    13e8:	72656c67 	rsbvc	r6, r5, #26368	; 0x6700
    13ec:	616c632f 	cmnvs	ip, pc, lsr #6
    13f0:	632f7373 			; <UNDEFINED> instruction: 0x632f7373
    13f4:	30343173 	eorscc	r3, r4, r3, ror r1
    13f8:	32322d65 	eorscc	r2, r2, #6464	; 0x1940
    13fc:	2f6e6977 	svccs	0x006e6977
    1400:	62696c2f 	rsbvs	r6, r9, #12032	; 0x2f00
    1404:	692f6970 	stmdbvs	pc!, {r4, r5, r6, r8, fp, sp, lr}	; <UNPREDICTABLE>
    1408:	756c636e 	strbvc	r6, [ip, #-878]!	; 0xfffffc92
    140c:	2f006564 	svccs	0x00006564
    1410:	2f727375 	svccs	0x00727375
    1414:	72616873 	rsbvc	r6, r1, #7536640	; 0x730000
    1418:	63672f65 	cmnvs	r7, #404	; 0x194
    141c:	72612d63 	rsbvc	r2, r1, #6336	; 0x18c0
    1420:	6f6e2d6d 	svcvs	0x006e2d6d
    1424:	652d656e 	strvs	r6, [sp, #-1390]!	; 0xfffffa92
    1428:	2d696261 	sfmcs	f6, 2, [r9, #-388]!	; 0xfffffe7c
    142c:	332e3031 			; <UNDEFINED> instruction: 0x332e3031
    1430:	3230322d 	eorscc	r3, r0, #-805306366	; 0xd0000002
    1434:	30312e31 	eorscc	r2, r1, r1, lsr lr
    1438:	62696c2f 	rsbvs	r6, r9, #12032	; 0x2f00
    143c:	6363672f 	cmnvs	r3, #12320768	; 0xbc0000
    1440:	6d72612f 	ldfvse	f6, [r2, #-188]!	; 0xffffff44
    1444:	6e6f6e2d 	cdpvs	14, 6, cr6, cr15, cr13, {1}
    1448:	61652d65 	cmnvs	r5, r5, ror #26
    144c:	312f6962 			; <UNDEFINED> instruction: 0x312f6962
    1450:	2e332e30 	mrccs	14, 1, r2, cr3, cr0, {1}
    1454:	6e692f31 	mcrvs	15, 3, r2, cr9, cr1, {1}
    1458:	64756c63 	ldrbtvs	r6, [r5], #-3171	; 0xfffff39d
    145c:	75000065 	strvc	r0, [r0, #-101]	; 0xffffff9b
    1460:	2e747261 	cdpcs	2, 7, cr7, cr4, cr1, {3}
    1464:	00000063 	andeq	r0, r0, r3, rrx
    1468:	72617500 	rsbvc	r7, r1, #0, 10
    146c:	00682e74 	rsbeq	r2, r8, r4, ror lr
    1470:	72000001 	andvc	r0, r0, #1, 0
    1474:	682e6970 	stmdavs	lr!, {r4, r5, r6, r8, fp, sp, lr}
    1478:	00000100 	andeq	r0, r0, r0, lsl #2
    147c:	6f697067 	svcvs	0x00697067
    1480:	0100682e 	tsteq	r0, lr, lsr #16
    1484:	74730000 	ldrbtvc	r0, [r3], #-0
    1488:	746e6964 	strbtvc	r6, [lr], #-2404	; 0xfffff69c
    148c:	6363672d 	cmnvs	r3, #11796480	; 0xb40000
    1490:	0200682e 	andeq	r6, r0, #3014656	; 0x2e0000
    1494:	05000000 	streq	r0, [r0, #-0]
    1498:	02050039 	andeq	r0, r5, #57, 0	; 0x39
    149c:	00009000 	andeq	r9, r0, r0
    14a0:	06013003 	streq	r3, [r1], -r3
    14a4:	06050501 	streq	r0, [r5], -r1, lsl #10
    14a8:	06110567 	ldreq	r0, [r1], -r7, ror #10
    14ac:	2e050501 	cfsh32cs	mvfx0, mvfx5, #1
    14b0:	05670105 	strbeq	r0, [r7, #-261]!	; 0xfffffefb
    14b4:	06290638 			; <UNDEFINED> instruction: 0x06290638
    14b8:	06050501 	streq	r0, [r5], -r1, lsl #10
    14bc:	06110567 	ldreq	r0, [r1], -r7, ror #10
    14c0:	2e050501 	cfsh32cs	mvfx0, mvfx5, #1
    14c4:	05670105 	strbeq	r0, [r7, #-261]!	; 0xfffffefb
    14c8:	15030616 	strne	r0, [r3, #-1558]	; 0xfffff9ea
    14cc:	3505052e 	strcc	r0, [r5, #-1326]	; 0xfffffad2
    14d0:	68356867 	ldmdavs	r5!, {r0, r1, r2, r5, r6, fp, sp, lr}
    14d4:	852e0c03 	strhi	r0, [lr, #-3075]!	; 0xfffff3fd
    14d8:	0369696b 	cmneq	r9, #1753088	; 0x1ac000
    14dc:	6b13660c 	blvs	4dad14 <__bss_end__+0x4d0bec>
    14e0:	06010567 	streq	r0, [r1], -r7, ror #10
    14e4:	0619052f 	ldreq	r0, [r9], -pc, lsr #10
    14e8:	05052508 	streq	r2, [r5, #-1288]	; 0xfffffaf8
    14ec:	060d0534 			; <UNDEFINED> instruction: 0x060d0534
    14f0:	4c010501 	cfstr32mi	mvfx0, [r1], {1}
    14f4:	67061905 	strvs	r1, [r6, -r5, lsl #18]
    14f8:	05360505 	ldreq	r0, [r6, #-1285]!	; 0xfffffafb
    14fc:	0501060d 	streq	r0, [r1, #-1549]	; 0xfffff9f3
    1500:	01054a28 	tsteq	r5, r8, lsr #20
    1504:	06150530 			; <UNDEFINED> instruction: 0x06150530
    1508:	2f050587 	svccs	0x00050587
    150c:	0009052f 	andeq	r0, r9, pc, lsr #10
    1510:	13010402 	movwne	r0, #5122	; 0x1402
    1514:	02000a05 	andeq	r0, r0, #20480	; 0x5000
    1518:	05110104 	ldreq	r0, [r1, #-260]	; 0xfffffefc
    151c:	0402000c 	streq	r0, [r2], #-12
    1520:	05010601 	streq	r0, [r1, #-1537]	; 0xfffff9ff
    1524:	0402000a 	streq	r0, [r2], #-10
    1528:	05052e01 	streq	r2, [r5, #-3585]	; 0xfffff1ff
    152c:	0e054c06 	cdpeq	12, 0, cr4, cr5, cr6, {0}
    1530:	09050106 	stmdbeq	r5, {r1, r2, r8}
    1534:	0605054a 	streq	r0, [r5], -sl, asr #10
    1538:	01052f2f 	tsteq	r5, pc, lsr #30
    153c:	1c051306 	stcne	3, cr1, [r5], {6}
    1540:	01066706 	tsteq	r6, r6, lsl #14
    1544:	4b060505 	blmi	182960 <__bss_end__+0x178838>
    1548:	0009052f 	andeq	r0, r9, pc, lsr #10
    154c:	13010402 	movwne	r0, #5122	; 0x1402
    1550:	02000a05 	andeq	r0, r0, #20480	; 0x5000
    1554:	05110104 	ldreq	r0, [r1, #-260]	; 0xfffffefc
    1558:	0402000c 	streq	r0, [r2], #-12
    155c:	05010601 	streq	r0, [r1, #-1537]	; 0xfffff9ff
    1560:	0402000a 	streq	r0, [r2], #-10
    1564:	05052e01 	streq	r2, [r5, #-3585]	; 0xfffff1ff
    1568:	05674c06 	strbeq	r4, [r7, #-3078]!	; 0xfffff3fa
    156c:	052f0601 	streq	r0, [pc, #-1537]!	; f73 <__code_start__-0x708d>
    1570:	054c0619 	strbeq	r0, [ip, #-1561]	; 0xfffff9e7
    1574:	2a052e1b 	bcs	14cde8 <__bss_end__+0x142cc0>
    1578:	0631052e 	ldrteq	r0, [r1], -lr, lsr #10
    157c:	2e420501 	cdpcs	5, 4, cr0, cr2, cr1, {0}
    1580:	31061c05 	tstcc	r6, r5, lsl #24
    1584:	032f0505 			; <UNDEFINED> instruction: 0x032f0505
    1588:	0e052e09 	cdpeq	14, 0, cr2, cr5, cr9, {0}
    158c:	21050106 	tstcs	r5, r6, lsl #2
    1590:	0301054a 	movweq	r0, #5450	; 0x154a
    1594:	1a052e0a 	bne	14cdc4 <__bss_end__+0x142c9c>
    1598:	09056806 	stmdbeq	r5, {r1, r2, fp, sp, lr}
    159c:	01040200 	mrseq	r0, R12_usr
    15a0:	000a0530 	andeq	r0, sl, r0, lsr r5
    15a4:	11010402 	tstne	r1, r2, lsl #8
    15a8:	02000c05 	andeq	r0, r0, #1280	; 0x500
    15ac:	01060104 	tsteq	r6, r4, lsl #2
    15b0:	02000a05 	andeq	r0, r0, #20480	; 0x5000
    15b4:	052e0104 	streq	r0, [lr, #-260]!	; 0xfffffefc
    15b8:	e8030619 	stmda	r3, {r0, r3, r4, r9, sl}
    15bc:	0505667e 	streq	r6, [r5, #-1662]	; 0xfffff982
    15c0:	672f2f2f 	strvs	r2, [pc, -pc, lsr #30]!
    15c4:	2f060105 	svccs	0x00060105
    15c8:	01000402 	tsteq	r0, r2, lsl #8
    15cc:	00039201 	andeq	r9, r3, r1, lsl #4
    15d0:	b7000300 	strlt	r0, [r0, -r0, lsl #6]
    15d4:	02000000 	andeq	r0, r0, #0, 0
    15d8:	0d0efb01 	vstreq	d15, [lr, #-4]
    15dc:	01010100 	mrseq	r0, (UNDEF: 17)
    15e0:	00000001 	andeq	r0, r0, r1
    15e4:	01000001 	tsteq	r0, r1
    15e8:	6d6f682f 	stclvs	8, cr6, [pc, #-188]!	; 1534 <__code_start__-0x6acc>
    15ec:	6e652f65 	cdpvs	15, 6, cr2, cr5, cr5, {3}
    15f0:	72656c67 	rsbvc	r6, r5, #26368	; 0x6700
    15f4:	616c632f 	cmnvs	ip, pc, lsr #6
    15f8:	632f7373 			; <UNDEFINED> instruction: 0x632f7373
    15fc:	30343173 	eorscc	r3, r4, r3, ror r1
    1600:	32322d65 	eorscc	r2, r2, #6464	; 0x1940
    1604:	2f6e6977 	svccs	0x006e6977
    1608:	62696c2f 	rsbvs	r6, r9, #12032	; 0x2f00
    160c:	692f6970 	stmdbvs	pc!, {r4, r5, r6, r8, fp, sp, lr}	; <UNPREDICTABLE>
    1610:	756c636e 	strbvc	r6, [ip, #-878]!	; 0xfffffc92
    1614:	2f006564 	svccs	0x00006564
    1618:	2f727375 	svccs	0x00727375
    161c:	72616873 	rsbvc	r6, r1, #7536640	; 0x730000
    1620:	63672f65 	cmnvs	r7, #404	; 0x194
    1624:	72612d63 	rsbvc	r2, r1, #6336	; 0x18c0
    1628:	6f6e2d6d 	svcvs	0x006e2d6d
    162c:	652d656e 	strvs	r6, [sp, #-1390]!	; 0xfffffa92
    1630:	2d696261 	sfmcs	f6, 2, [r9, #-388]!	; 0xfffffe7c
    1634:	332e3031 			; <UNDEFINED> instruction: 0x332e3031
    1638:	3230322d 	eorscc	r3, r0, #-805306366	; 0xd0000002
    163c:	30312e31 	eorscc	r2, r1, r1, lsr lr
    1640:	62696c2f 	rsbvs	r6, r9, #12032	; 0x2f00
    1644:	6363672f 	cmnvs	r3, #12320768	; 0xbc0000
    1648:	6d72612f 	ldfvse	f6, [r2, #-188]!	; 0xffffff44
    164c:	6e6f6e2d 	cdpvs	14, 6, cr6, cr15, cr13, {1}
    1650:	61652d65 	cmnvs	r5, r5, ror #26
    1654:	312f6962 			; <UNDEFINED> instruction: 0x312f6962
    1658:	2e332e30 	mrccs	14, 1, r2, cr3, cr0, {1}
    165c:	6e692f31 	mcrvs	15, 3, r2, cr9, cr1, {1}
    1660:	64756c63 	ldrbtvs	r6, [r5], #-3171	; 0xfffff39d
    1664:	6b000065 	blvs	1800 <__code_start__-0x6800>
    1668:	6c6c616d 	stfvse	f6, [ip], #-436	; 0xfffffe4c
    166c:	632e636f 			; <UNDEFINED> instruction: 0x632e636f
    1670:	00000000 	andeq	r0, r0, r0
    1674:	2e697072 	mcrcs	0, 3, r7, cr9, cr2, {3}
    1678:	00010068 	andeq	r0, r1, r8, rrx
    167c:	64747300 	ldrbtvs	r7, [r4], #-768	; 0xfffffd00
    1680:	2d746e69 	ldclcs	14, cr6, [r4, #-420]!	; 0xfffffe5c
    1684:	2e636367 	cdpcs	3, 6, cr6, cr3, cr7, {3}
    1688:	00020068 	andeq	r0, r2, r8, rrx
    168c:	1e050000 	cdpne	0, 0, cr0, cr5, cr0, {0}
    1690:	f0020500 			; <UNDEFINED> instruction: 0xf0020500
    1694:	03000091 	movweq	r0, #145	; 0x91
    1698:	20050127 	andcs	r0, r5, r7, lsr #2
    169c:	062d0501 	strteq	r0, [sp], -r1, lsl #10
    16a0:	06200501 	strteq	r0, [r0], -r1, lsl #10
    16a4:	01220583 	smlawbeq	r2, r3, r5, r0
    16a8:	01063505 	tsteq	r6, r5, lsl #10
    16ac:	83061e05 	movwhi	r1, #28165	; 0x6e05
    16b0:	05012005 	streq	r2, [r1, #-5]
    16b4:	0501062d 	streq	r0, [r1, #-1581]	; 0xfffff9d3
    16b8:	06850642 	streq	r0, [r5], r2, asr #12
    16bc:	06050501 	streq	r0, [r5], -r1, lsl #10
    16c0:	0601144b 	streq	r1, [r1], -fp, asr #8
    16c4:	0402002e 	streq	r0, [r2], #-46	; 0xffffffd2
    16c8:	002e0602 	eoreq	r0, lr, r2, lsl #12
    16cc:	01020402 	tsteq	r2, r2, lsl #8
    16d0:	02040200 	andeq	r0, r4, #0, 4
    16d4:	000d0515 	andeq	r0, sp, r5, lsl r5
    16d8:	06020402 	streq	r0, [r2], -r2, lsl #8
    16dc:	00070501 	andeq	r0, r7, r1, lsl #10
    16e0:	4a020402 	bmi	826f0 <__bss_end__+0x785c8>
    16e4:	4b060905 	blmi	183b00 <__bss_end__+0x1799d8>
    16e8:	05150505 	ldreq	r0, [r5, #-1285]	; 0xfffffafb
    16ec:	05010617 	streq	r0, [r1, #-1559]	; 0xfffff9e9
    16f0:	05054a10 	streq	r4, [r5, #-2576]	; 0xfffff5f0
    16f4:	1b052f06 	blne	14d314 <__bss_end__+0x1431ec>
    16f8:	0e050106 	adfeqs	f0, f5, f6
    16fc:	2f01052e 	svccs	0x0001052e
    1700:	02000505 	andeq	r0, r0, #20971520	; 0x1400000
    1704:	03060104 	movweq	r0, #24836	; 0x6104
    1708:	02004a77 	andeq	r4, r0, #487424	; 0x77000
    170c:	00010104 	andeq	r0, r1, r4, lsl #2
    1710:	06010402 	streq	r0, [r1], -r2, lsl #8
    1714:	0402009e 	streq	r0, [r2], #-158	; 0xffffff62
    1718:	02002e01 	andeq	r2, r0, #1, 28
    171c:	2e060104 	adfcss	f0, f6, f4
    1720:	01320905 	teqeq	r2, r5, lsl #18
    1724:	062ed606 	strteq	sp, [lr], -r6, lsl #12
    1728:	de19052e 	cfmul64le	mvdx0, mvdx9, mvdx14
    172c:	142f0505 	strtne	r0, [pc], #-1285	; 1734 <__code_start__-0x68cc>
    1730:	01060805 	tsteq	r6, r5, lsl #16
    1734:	054a0705 	strbeq	r0, [sl, #-1797]	; 0xfffff8fb
    1738:	054b0609 	strbeq	r0, [fp, #-1545]	; 0xfffff9f7
    173c:	0c051305 	stceq	3, cr1, [r5], {5}
    1740:	05050106 	streq	r0, [r5, #-262]	; 0xfffffefa
    1744:	05136706 	ldreq	r6, [r3, #-1798]	; 0xfffff8fa
    1748:	05670601 	strbeq	r0, [r7, #-1537]!	; 0xfffff9ff
    174c:	012a0609 			; <UNDEFINED> instruction: 0x012a0609
    1750:	a528059e 	strge	r0, [r8, #-1438]!	; 0xfffffa62
    1754:	05050106 	streq	r0, [r5, #-262]	; 0xfffffefa
    1758:	06014b06 	streq	r4, [r1], -r6, lsl #22
    175c:	012e062e 			; <UNDEFINED> instruction: 0x012e062e
    1760:	03180513 	tsteq	r8, #79691776	; 0x4c00000
    1764:	05050147 	streq	r0, [r5, #-327]	; 0xfffffeb9
    1768:	01060113 	tsteq	r6, r3, lsl r1
    176c:	01150f06 	tsteq	r5, r6, lsl #30
    1770:	060e0513 			; <UNDEFINED> instruction: 0x060e0513
    1774:	2e160501 	cfmul32cs	mvfx0, mvfx6, mvfx1
    1778:	0605052e 	streq	r0, [r5], -lr, lsr #10
    177c:	05013903 	streq	r3, [r1, #-2307]	; 0xfffff6fd
    1780:	0501060b 	streq	r0, [r1, #-1547]	; 0xfffff9f5
    1784:	054b0605 	strbeq	r0, [fp, #-1541]	; 0xfffff9fb
    1788:	0501060a 	streq	r0, [r1, #-1546]	; 0xfffff9f6
    178c:	054b0605 	strbeq	r0, [fp, #-1541]	; 0xfffff9fb
    1790:	0501060d 	streq	r0, [r1, #-1549]	; 0xfffff9f3
    1794:	01052e07 	tsteq	r5, r7, lsl #28
    1798:	0005054d 	andeq	r0, r5, sp, asr #10
    179c:	06010402 	streq	r0, [r1], -r2, lsl #8
    17a0:	004a7803 	subeq	r7, sl, r3, lsl #16
    17a4:	01010402 	tsteq	r1, r2, lsl #8
    17a8:	01040200 	mrseq	r0, R12_usr
    17ac:	0200ba06 	andeq	fp, r0, #24576	; 0x6000
    17b0:	2e060104 	adfcss	f0, f6, f4
    17b4:	01340905 	teqeq	r4, r5, lsl #18
    17b8:	06668206 	strbteq	r8, [r6], -r6, lsl #4
    17bc:	db20052e 	blle	802c7c <__bss_end__+0x7f8b54>
    17c0:	05050106 	streq	r0, [r5, #-262]	; 0xfffffefa
    17c4:	00014b06 	andeq	r4, r1, r6, lsl #22
    17c8:	4a020402 	bmi	827d8 <__bss_end__+0x786b0>
    17cc:	02040200 	andeq	r0, r4, #0, 4
    17d0:	04020001 	streq	r0, [r2], #-1
    17d4:	12051302 	andne	r1, r5, #134217728	; 0x8000000
    17d8:	02040200 	andeq	r0, r4, #0, 4
    17dc:	02000106 	andeq	r0, r0, #-2147483647	; 0x80000001
    17e0:	002e0204 	eoreq	r0, lr, r4, lsl #4
    17e4:	2e020402 	cdpcs	4, 0, cr0, cr2, cr2, {0}
    17e8:	02000505 	andeq	r0, r0, #20971520	; 0x1400000
    17ec:	2f060204 	svccs	0x00060204
    17f0:	02040200 	andeq	r0, r4, #0, 4
    17f4:	00010567 	andeq	r0, r1, r7, ror #10
    17f8:	06020402 	streq	r0, [r2], -r2, lsl #8
    17fc:	00050513 	andeq	r0, r5, r3, lsl r5
    1800:	06010402 	streq	r0, [r1], -r2, lsl #8
    1804:	04020062 	streq	r0, [r2], #-98	; 0xffffff9e
    1808:	02000101 	andeq	r0, r0, #1073741824	; 0x40000000
    180c:	ba060104 	blt	181c24 <__bss_end__+0x177afc>
    1810:	01040200 	mrseq	r0, R12_usr
    1814:	3c052e06 	stccc	14, cr2, [r5], {6}
    1818:	069e0a03 	ldreq	r0, [lr], r3, lsl #20
    181c:	06050501 	streq	r0, [r5], -r1, lsl #10
    1820:	2e06014b 	adfcssm	f0, f6, #3.0
    1824:	13012e06 	movwne	r2, #7686	; 0x1e06
    1828:	03180501 	tsteq	r8, #4194304	; 0x400000
    182c:	05017fad 	streq	r7, [r1, #-4013]	; 0xfffff053
    1830:	11051305 	tstne	r5, r5, lsl #6
    1834:	052e0106 	streq	r0, [lr, #-262]!	; 0xfffffefa
    1838:	00d20305 	sbcseq	r0, r2, r5, lsl #6
    183c:	134a0601 	movtne	r0, #42497	; 0xa601
    1840:	a3031805 	movwge	r1, #14341	; 0x3805
    1844:	0505017f 	streq	r0, [r5, #-383]	; 0xfffffe81
    1848:	06160513 			; <UNDEFINED> instruction: 0x06160513
    184c:	05054a01 	streq	r4, [r5, #-2561]	; 0xfffff5ff
    1850:	00e10306 	rsceq	r0, r1, r6, lsl #6
    1854:	06120501 	ldreq	r0, [r2], -r1, lsl #10
    1858:	06050501 	streq	r0, [r5], -r1, lsl #10
    185c:	0318054b 	tsteq	r8, #314572800	; 0x12c00000
    1860:	05017fa9 	streq	r7, [r1, #-4009]	; 0xfffff057
    1864:	05011305 	streq	r1, [r1, #-773]	; 0xfffffcfb
    1868:	05050e18 	streq	r0, [r5, #-3608]	; 0xfffff1e8
    186c:	06110513 			; <UNDEFINED> instruction: 0x06110513
    1870:	05052e01 	streq	r2, [r5, #-3585]	; 0xfffff1ff
    1874:	014a0615 	cmpeq	sl, r5, lsl r6
    1878:	060e0513 			; <UNDEFINED> instruction: 0x060e0513
    187c:	16052e01 	strne	r2, [r5], -r1, lsl #28
    1880:	05052e2e 	streq	r2, [r5, #-3630]	; 0xfffff1d2
    1884:	00d60306 	sbcseq	r0, r6, r6, lsl #6
    1888:	18050101 	stmdane	r5, {r0, r8}
    188c:	017f9f03 	cmneq	pc, r3, lsl #30
    1890:	05130505 	ldreq	r0, [r3, #-1285]	; 0xfffffafb
    1894:	2e010619 	mcrcs	6, 0, r0, cr1, cr9, {0}
    1898:	e0030505 	and	r0, r3, r5, lsl #10
    189c:	02000100 	andeq	r0, r0, #0
    18a0:	4a060204 	bmi	1820b8 <__bss_end__+0x177f90>
    18a4:	02040200 	andeq	r0, r4, #0, 4
    18a8:	000a0514 	andeq	r0, sl, r4, lsl r5
    18ac:	06020402 	streq	r0, [r2], -r2, lsl #8
    18b0:	00050501 	andeq	r0, r5, r1, lsl #10
    18b4:	06020402 	streq	r0, [r2], -r2, lsl #8
    18b8:	000c054b 	andeq	r0, ip, fp, asr #10
    18bc:	06020402 	streq	r0, [r2], -r2, lsl #8
    18c0:	00010501 	andeq	r0, r1, r1, lsl #10
    18c4:	2f020402 	svccs	0x00020402
    18c8:	02000505 	andeq	r0, r0, #20971520	; 0x1400000
    18cc:	03060104 	movweq	r0, #24836	; 0x6104
    18d0:	02004a73 	andeq	r4, r0, #471040	; 0x73000
    18d4:	00010104 	andeq	r0, r1, r4, lsl #2
    18d8:	06010402 	streq	r0, [r1], -r2, lsl #8
    18dc:	0402009e 	streq	r0, [r2], #-158	; 0xffffff62
    18e0:	02002e01 	andeq	r2, r0, #1, 28
    18e4:	2e060104 	adfcss	f0, f6, f4
    18e8:	01040200 	mrseq	r0, R12_usr
    18ec:	0402002f 	streq	r0, [r2], #-47	; 0xffffffd1
    18f0:	02002e01 	andeq	r2, r0, #1, 28
    18f4:	03d60104 	bicseq	r0, r6, #1
    18f8:	012e7fb1 			; <UNDEFINED> instruction: 0x012e7fb1
    18fc:	2e2e8206 	cdpcs	2, 2, cr8, cr14, cr6, {0}
    1900:	2e062e06 	cdpcs	14, 0, cr2, cr6, cr6, {0}
    1904:	01040200 	mrseq	r0, R12_usr
    1908:	00d70306 	sbcseq	r0, r7, r6, lsl #6
    190c:	04020001 	streq	r0, [r2], #-1
    1910:	02002e01 	andeq	r2, r0, #1, 28
    1914:	05d60104 	ldrbeq	r0, [r6, #260]	; 0x104
    1918:	057b0815 	ldrbeq	r0, [fp, #-2069]!	; 0xfffff7eb
    191c:	16050117 			; <UNDEFINED> instruction: 0x16050117
    1920:	01180531 	tsteq	r8, r1, lsr r5
    1924:	01061d05 	tsteq	r6, r5, lsl #26
    1928:	05662b05 	strbeq	r2, [r6, #-2821]!	; 0xfffff4fb
    192c:	054d0619 	strbeq	r0, [sp, #-1561]	; 0xfffff9e7
    1930:	0c051305 	stceq	3, cr1, [r5], {5}
    1934:	07050106 	streq	r0, [r5, -r6, lsl #2]
    1938:	0025054a 	eoreq	r0, r5, sl, asr #10
    193c:	4a010402 	bmi	4294c <__bss_end__+0x38824>
    1940:	02001e05 	andeq	r1, r0, #80	; 0x50
    1944:	054a0104 	strbeq	r0, [sl, #-260]	; 0xfffffefc
    1948:	054b0609 	strbeq	r0, [fp, #-1545]	; 0xfffff9f7
    194c:	0a051305 	beq	146568 <__bss_end__+0x13c440>
    1950:	19050106 	stmdbne	r5, {r1, r2, r8}
    1954:	06090563 	streq	r0, [r9], -r3, ror #10
    1958:	9e06014c 	adflssm	f0, f6, #4.0
    195c:	0a022e06 	beq	8d17c <__bss_end__+0x83054>
    1960:	89010100 	stmdbhi	r1, {r8}
    1964:	03000002 	movweq	r0, #2
    1968:	0000c900 	andeq	ip, r0, r0, lsl #18
    196c:	fb010200 	blx	42176 <__bss_end__+0x3804e>
    1970:	01000d0e 	tsteq	r0, lr, lsl #26
    1974:	00010101 	andeq	r0, r1, r1, lsl #2
    1978:	00010000 	andeq	r0, r1, r0
    197c:	2f2e0100 	svccs	0x002e0100
    1980:	00637273 	rsbeq	r7, r3, r3, ror r2
    1984:	6573552f 	ldrbvs	r5, [r3, #-1327]!	; 0xfffffad1
    1988:	6d2f7372 	stcvs	3, cr7, [pc, #-456]!	; 17c8 <__code_start__-0x6838>
    198c:	73656c69 	cmnvc	r5, #26880	; 0x6900
    1990:	756f532f 	strbvc	r5, [pc, #-815]!	; 1669 <__code_start__-0x6997>
    1994:	2f656372 	svccs	0x00656372
    1998:	34327363 	ldrtcc	r7, [r2], #-867	; 0xfffffc9d
    199c:	2f786c30 	svccs	0x00786c30
    19a0:	7062696c 	rsbvc	r6, r2, ip, ror #18
    19a4:	6e692f69 	cdpvs	15, 6, cr2, cr9, cr9, {3}
    19a8:	64756c63 	ldrbtvs	r6, [r5], #-3171	; 0xfffff39d
    19ac:	6f2f0065 	svcvs	0x002f0065
    19b0:	682f7470 	stmdavs	pc!, {r4, r5, r6, sl, ip, sp, lr}	; <UNPREDICTABLE>
    19b4:	62656d6f 	rsbvs	r6, r5, #7104	; 0x1bc0
    19b8:	2f776572 	svccs	0x00776572
    19bc:	6c6c6543 	cfstr64vs	mvdx6, [ip], #-268	; 0xfffffef4
    19c0:	612f7261 			; <UNDEFINED> instruction: 0x612f7261
    19c4:	6e2d6d72 	mcrvs	13, 1, r6, cr13, cr2, {3}
    19c8:	2d656e6f 	stclcs	14, cr6, [r5, #-444]!	; 0xfffffe44
    19cc:	69626165 	stmdbvs	r2!, {r0, r2, r5, r6, r8, sp, lr}^
    19d0:	392f392d 	stmdbcc	pc!, {r0, r2, r3, r5, r8, fp, ip, sp}	; <UNPREDICTABLE>
    19d4:	3130322d 	teqcc	r0, sp, lsr #4
    19d8:	2d347139 	ldfcss	f7, [r4, #-228]!	; 0xffffff1c
    19dc:	30317363 	eorscc	r7, r1, r3, ror #6
    19e0:	6c2f6537 	cfstr32vs	mvfx6, [pc], #-220	; 190c <__code_start__-0x66f4>
    19e4:	672f6269 	strvs	r6, [pc, -r9, ror #4]!
    19e8:	612f6363 			; <UNDEFINED> instruction: 0x612f6363
    19ec:	6e2d6d72 	mcrvs	13, 1, r6, cr13, cr2, {3}
    19f0:	2d656e6f 	stclcs	14, cr6, [r5, #-444]!	; 0xfffffe44
    19f4:	69626165 	stmdbvs	r2!, {r0, r2, r5, r6, r8, sp, lr}^
    19f8:	322e392f 	eorcc	r3, lr, #770048	; 0xbc000
    19fc:	692f312e 	stmdbvs	pc!, {r1, r2, r3, r5, r8, ip, sp}	; <UNPREDICTABLE>
    1a00:	756c636e 	strbvc	r6, [ip, #-878]!	; 0xfffffc92
    1a04:	00006564 	andeq	r6, r0, r4, ror #10
    1a08:	6f697067 	svcvs	0x00697067
    1a0c:	0100632e 	tsteq	r0, lr, lsr #6
    1a10:	70720000 	rsbsvc	r0, r2, r0
    1a14:	00682e69 	rsbeq	r2, r8, r9, ror #28
    1a18:	73000002 	movwvc	r0, #2
    1a1c:	6e696474 	mcrvs	4, 3, r6, cr9, cr4, {3}
    1a20:	63672d74 	cmnvs	r7, #116, 26	; 0x1d00
    1a24:	00682e63 	rsbeq	r2, r8, r3, ror #28
    1a28:	67000003 	strvs	r0, [r0, -r3]
    1a2c:	2e6f6970 			; <UNDEFINED> instruction: 0x2e6f6970
    1a30:	00020068 	andeq	r0, r2, r8, rrx
    1a34:	38050000 	stmdacc	r5, {}	; <UNPREDICTABLE>
    1a38:	a0020500 	andge	r0, r2, r0, lsl #10
    1a3c:	03000095 	movweq	r0, #149	; 0x95
    1a40:	05050127 	streq	r0, [r5, #-295]	; 0xfffffed9
    1a44:	06070513 			; <UNDEFINED> instruction: 0x06070513
    1a48:	06060501 	streq	r0, [r6], -r1, lsl #10
    1a4c:	15050549 	strne	r0, [r5, #-1353]	; 0xfffffab7
    1a50:	01060705 	tsteq	r6, r5, lsl #14
    1a54:	052b3805 	streq	r3, [fp, #-2053]!	; 0xfffff7fb
    1a58:	05054d07 	streq	r4, [r5, #-3335]	; 0xfffff2f9
    1a5c:	18053006 	stmdane	r5, {r1, r2, ip, sp}
    1a60:	1c050106 	stfnes	f0, [r5], {6}
    1a64:	4a0e0567 	bmi	383008 <__bss_end__+0x378ee0>
    1a68:	052d1805 	streq	r1, [sp, #-2053]!	; 0xfffff7fb
    1a6c:	2f2e4d12 	svccs	0x002e4d12
    1a70:	052a0e05 	streq	r0, [sl, #-3589]!	; 0xfffff1fb
    1a74:	142f0605 	strtne	r0, [pc], #-1541	; 1a7c <__code_start__-0x6584>
    1a78:	06070513 			; <UNDEFINED> instruction: 0x06070513
    1a7c:	06050501 	streq	r0, [r5], -r1, lsl #10
    1a80:	2e06132f 	cdpcs	3, 0, cr1, cr6, cr15, {1}
    1a84:	1301052e 	movwne	r0, #5422	; 0x152e
    1a88:	2e2d0505 	cfsh64cs	mvdx0, mvdx13, #5
    1a8c:	00062405 	andeq	r2, r6, r5, lsl #8
    1a90:	96000205 	strls	r0, [r0], -r5, lsl #4
    1a94:	05150000 	ldreq	r0, [r5, #-0]
    1a98:	06051305 	streq	r1, [r5], -r5, lsl #6
    1a9c:	05017103 	streq	r7, [r1, #-259]	; 0xfffffefd
    1aa0:	07051305 	streq	r1, [r5, -r5, lsl #6]
    1aa4:	06050106 	streq	r0, [r5], -r6, lsl #2
    1aa8:	05054906 	streq	r4, [r5, #-2310]	; 0xfffff6fa
    1aac:	24051415 	strcs	r1, [r5], #-1045	; 0xfffffbeb
    1ab0:	01090306 	tsteq	r9, r6, lsl #6
    1ab4:	77031805 	strvc	r1, [r3, -r5, lsl #16]
    1ab8:	671c052e 	ldrvs	r0, [ip, -lr, lsr #10]
    1abc:	054a0e05 	strbeq	r0, [sl, #-3589]	; 0xfffff1fb
    1ac0:	12052d18 	andne	r2, r5, #24, 26	; 0x600
    1ac4:	052f2e4d 	streq	r2, [pc, #-3661]!	; c7f <__code_start__-0x7381>
    1ac8:	0e052f0f 	cdpeq	15, 0, cr2, cr5, cr15, {0}
    1acc:	06050529 	streq	r0, [r5], -r9, lsr #10
    1ad0:	0513142f 	ldreq	r1, [r3, #-1071]	; 0xfffffbd1
    1ad4:	05010607 	streq	r0, [r1, #-1543]	; 0xfffff9f9
    1ad8:	132f0605 			; <UNDEFINED> instruction: 0x132f0605
    1adc:	01052e06 	tsteq	r5, r6, lsl #28
    1ae0:	29050533 	stmdbcs	r5, {r0, r1, r4, r5, r8, sl}
    1ae4:	0627052e 	strteq	r0, [r7], -lr, lsr #10
    1ae8:	58020500 	stmdapl	r2, {r8, sl}
    1aec:	1a000096 	bne	1d4c <__code_start__-0x62b4>
    1af0:	05130505 	ldreq	r0, [r3, #-1285]	; 0xfffffafb
    1af4:	05110627 	ldreq	r0, [r1, #-1575]	; 0xfffff9d9
    1af8:	05052f18 	streq	r2, [r5, #-3864]	; 0xfffff0e8
    1afc:	054a2e2e 	strbeq	r2, [sl, #-3630]	; 0xfffff1d2
    1b00:	05000628 	streq	r0, [r0, #-1576]	; 0xfffff9d8
    1b04:	00967002 	addseq	r7, r6, r2
    1b08:	05051600 	streq	r1, [r5, #-1536]	; 0xfffffa00
    1b0c:	06280513 			; <UNDEFINED> instruction: 0x06280513
    1b10:	2f180511 	svccs	0x00180511
    1b14:	2e2e0505 	cfsh64cs	mvdx0, mvdx14, #5
    1b18:	0623054a 	strteq	r0, [r3], -sl, asr #10
    1b1c:	88020500 	stmdahi	r2, {r8, sl}
    1b20:	16000096 			; <UNDEFINED> instruction: 0x16000096
    1b24:	05130505 	ldreq	r0, [r3, #-1285]	; 0xfffffafb
    1b28:	01620306 	cmneq	r2, r6, lsl #6
    1b2c:	05130505 	ldreq	r0, [r3, #-1285]	; 0xfffffafb
    1b30:	05010607 	streq	r0, [r1, #-1543]	; 0xfffff9f9
    1b34:	05490606 	strbeq	r0, [r9, #-1542]	; 0xfffff9fa
    1b38:	13141505 	tstne	r4, #20971520	; 0x1400000
    1b3c:	03062305 	movweq	r2, #25349	; 0x6305
    1b40:	22050117 	andcs	r0, r5, #-1073741819	; 0xc0000005
    1b44:	052e6903 	streq	r6, [lr, #-2307]!	; 0xfffff6fd
    1b48:	052e821c 	streq	r8, [lr, #-540]!	; 0xfffffde4
    1b4c:	05052e0e 	streq	r2, [r5, #-3598]	; 0xfffff1f2
    1b50:	12053006 	andne	r3, r5, #6, 0
    1b54:	2d4b0106 	stfcse	f0, [fp, #-24]	; 0xffffffe8
    1b58:	2f060505 	svccs	0x00060505
    1b5c:	18051313 	stmdane	r5, {r0, r1, r4, r8, r9, ip}
    1b60:	017a0306 	cmneq	sl, r6, lsl #6
    1b64:	054a0e05 	strbeq	r0, [sl, #-3589]	; 0xfffff1fb
    1b68:	052e3405 	streq	r3, [lr, #-1029]!	; 0xfffffbfb
    1b6c:	2e140301 	cdpcs	3, 1, cr0, cr4, cr1, {0}
    1b70:	6c030505 	cfstr32vs	mvfx0, [r3], {5}
    1b74:	2b052e2e 	blcs	14d434 <__bss_end__+0x14330c>
    1b78:	02050006 	andeq	r0, r5, #6, 0
    1b7c:	000096e0 	andeq	r9, r0, r0, ror #13
    1b80:	05011703 	streq	r1, [r1, #-1795]	; 0xfffff8fd
    1b84:	07051305 	streq	r1, [r5, -r5, lsl #6]
    1b88:	18050106 	stmdane	r5, {r1, r2, r8}
    1b8c:	052e7103 	streq	r7, [lr, #-259]!	; 0xfffffefd
    1b90:	2e0e032b 	cdpcs	3, 0, cr0, cr14, cr11, {1}
    1b94:	052f0705 	streq	r0, [pc, #-1797]!	; 1497 <__code_start__-0x6b69>
    1b98:	052f0609 	streq	r0, [pc, #-1545]!	; 1597 <__code_start__-0x6a69>
    1b9c:	016f030d 	cmneq	pc, sp, lsl #6
    1ba0:	06130505 	ldreq	r0, [r3], -r5, lsl #10
    1ba4:	052e2e2e 	streq	r2, [lr, #-3630]!	; 0xfffff1d2
    1ba8:	12030609 	andne	r0, r3, #9437184	; 0x900000
    1bac:	030d0501 	movweq	r0, #54529	; 0xd501
    1bb0:	05050172 	streq	r0, [r5, #-370]	; 0xfffffe8e
    1bb4:	2e2e0613 	mcrcs	6, 1, r0, cr14, cr3, {0}
    1bb8:	03061d05 	movweq	r1, #27909	; 0x6d05
    1bbc:	05056610 	streq	r6, [r5, #-1552]	; 0xfffff9f0
    1bc0:	061d0513 			; <UNDEFINED> instruction: 0x061d0513
    1bc4:	05052e11 	streq	r2, [r5, #-3601]	; 0xfffff1ef
    1bc8:	05133006 	ldreq	r3, [r3, #-6]
    1bcc:	0510060e 	ldreq	r0, [r0, #-1550]	; 0xfffff9f2
    1bd0:	042e3017 	strteq	r3, [lr], #-23	; 0xffffffe9
    1bd4:	06300502 	ldrteq	r0, [r0], -r2, lsl #10
    1bd8:	2e00dd03 	cdpcs	13, 0, cr13, cr0, cr3, {0}
    1bdc:	0e050104 	adfeqs	f0, f5, f4
    1be0:	7fa20306 	svcvc	0x00a20306
    1be4:	2f230501 	svccs	0x00230501
    1be8:	022f0105 	eoreq	r0, pc, #1073741825	; 0x40000001
    1bec:	01010006 	tsteq	r1, r6
    1bf0:	00000121 	andeq	r0, r0, r1, lsr #2
    1bf4:	00be0003 	adcseq	r0, lr, r3
    1bf8:	01020000 	mrseq	r0, (UNDEF: 2)
    1bfc:	000d0efb 	strdeq	r0, [sp], -fp
    1c00:	01010101 	tsteq	r1, r1, lsl #2
    1c04:	01000000 	mrseq	r0, (UNDEF: 0)
    1c08:	2e010000 	cdpcs	0, 0, cr0, cr1, cr0, {0}
    1c0c:	62696c2f 	rsbvs	r6, r9, #12032	; 0x2f00
    1c10:	552f0063 	strpl	r0, [pc, #-99]!	; 1bb5 <__code_start__-0x644b>
    1c14:	73726573 	cmnvc	r2, #482344960	; 0x1cc00000
    1c18:	6c696d2f 	stclvs	13, cr6, [r9], #-188	; 0xffffff44
    1c1c:	532f7365 			; <UNDEFINED> instruction: 0x532f7365
    1c20:	6372756f 	cmnvs	r2, #465567744	; 0x1bc00000
    1c24:	73632f65 	cmnvc	r3, #404	; 0x194
    1c28:	6c303432 	cfldrsvs	mvf3, [r0], #-200	; 0xffffff38
    1c2c:	696c2f78 	stmdbvs	ip!, {r3, r4, r5, r6, r8, r9, sl, fp, sp}^
    1c30:	2f697062 	svccs	0x00697062
    1c34:	6c636e69 	stclvs	14, cr6, [r3], #-420	; 0xfffffe5c
    1c38:	00656475 	rsbeq	r6, r5, r5, ror r4
    1c3c:	74706f2f 	ldrbtvc	r6, [r0], #-3887	; 0xfffff0d1
    1c40:	6d6f682f 	stclvs	8, cr6, [pc, #-188]!	; 1b8c <__code_start__-0x6474>
    1c44:	65726265 	ldrbvs	r6, [r2, #-613]!	; 0xfffffd9b
    1c48:	65432f77 	strbvs	r2, [r3, #-3959]	; 0xfffff089
    1c4c:	72616c6c 	rsbvc	r6, r1, #108, 24	; 0x6c00
    1c50:	6d72612f 	ldfvse	f6, [r2, #-188]!	; 0xffffff44
    1c54:	6e6f6e2d 	cdpvs	14, 6, cr6, cr15, cr13, {1}
    1c58:	61652d65 	cmnvs	r5, r5, ror #26
    1c5c:	392d6962 	pushcc	{r1, r5, r6, r8, fp, sp, lr}
    1c60:	322d392f 	eorcc	r3, sp, #770048	; 0xbc000
    1c64:	71393130 	teqvc	r9, r0, lsr r1
    1c68:	73632d34 	cmnvc	r3, #52, 26	; 0xd00
    1c6c:	65373031 	ldrvs	r3, [r7, #-49]!	; 0xffffffcf
    1c70:	62696c2f 	rsbvs	r6, r9, #12032	; 0x2f00
    1c74:	6363672f 	cmnvs	r3, #12320768	; 0xbc0000
    1c78:	6d72612f 	ldfvse	f6, [r2, #-188]!	; 0xffffff44
    1c7c:	6e6f6e2d 	cdpvs	14, 6, cr6, cr15, cr13, {1}
    1c80:	61652d65 	cmnvs	r5, r5, ror #26
    1c84:	392f6962 	stmdbcc	pc!, {r1, r5, r6, r8, fp, sp, lr}	; <UNPREDICTABLE>
    1c88:	312e322e 			; <UNDEFINED> instruction: 0x312e322e
    1c8c:	636e692f 	cmnvs	lr, #770048	; 0xbc000
    1c90:	6564756c 	strbvs	r7, [r4, #-1388]!	; 0xfffffa94
    1c94:	656d0000 	strbvs	r0, [sp, #-0]!
    1c98:	7465736d 	strbtvc	r7, [r5], #-877	; 0xfffffc93
    1c9c:	0100632e 	tsteq	r0, lr, lsr #6
    1ca0:	70720000 	rsbsvc	r0, r2, r0
    1ca4:	00682e69 	rsbeq	r2, r8, r9, ror #28
    1ca8:	73000002 	movwvc	r0, #2
    1cac:	65646474 	strbvs	r6, [r4, #-1140]!	; 0xfffffb8c
    1cb0:	00682e66 	rsbeq	r2, r8, r6, ror #28
    1cb4:	00000003 	andeq	r0, r0, r3
    1cb8:	05002905 	streq	r2, [r0, #-2309]	; 0xfffff6fb
    1cbc:	00973802 	addseq	r3, r7, r2, lsl #16
    1cc0:	05051500 	streq	r1, [r5, #-1280]	; 0xfffffb00
    1cc4:	06290513 			; <UNDEFINED> instruction: 0x06290513
    1cc8:	2f140511 	svccs	0x00140511
    1ccc:	30060505 	andcc	r0, r6, r5, lsl #10
    1cd0:	06010a05 	streq	r0, [r1], -r5, lsl #20
    1cd4:	0609059e 			; <UNDEFINED> instruction: 0x0609059e
    1cd8:	060e05d7 			; <UNDEFINED> instruction: 0x060e05d7
    1cdc:	060a0501 	streq	r0, [sl], -r1, lsl #10
    1ce0:	bb09052d 	bllt	24319c <__bss_end__+0x239074>
    1ce4:	01060e05 	tsteq	r6, r5, lsl #28
    1ce8:	060a052e 	streq	r0, [sl], -lr, lsr #10
    1cec:	4b09052d 	blmi	2431a8 <__bss_end__+0x239080>
    1cf0:	01060b05 	tsteq	r6, r5, lsl #22
    1cf4:	052d0a05 	streq	r0, [sp, #-2565]!	; 0xfffff5fb
    1cf8:	0a052f0e 	beq	14d938 <__bss_end__+0x143810>
    1cfc:	0e052d06 	cdpeq	13, 0, cr2, cr5, cr6, {0}
    1d00:	09051306 	stmdbeq	r5, {r1, r2, r8, r9, ip}
    1d04:	0a052e06 	beq	14d524 <__bss_end__+0x1433fc>
    1d08:	14050511 	strne	r0, [r5], #-1297	; 0xfffffaef
    1d0c:	13060105 	movwne	r0, #24837	; 0x6105
    1d10:	01000202 	tsteq	r0, r2, lsl #4
    1d14:	00009e01 	andeq	r9, r0, r1, lsl #28
    1d18:	5a000300 	bpl	2920 <__code_start__-0x56e0>
    1d1c:	02000000 	andeq	r0, r0, #0, 0
    1d20:	0d0efb01 	vstreq	d15, [lr, #-4]
    1d24:	01010100 	mrseq	r0, (UNDEF: 17)
    1d28:	00000001 	andeq	r0, r0, r1
    1d2c:	01000001 	tsteq	r0, r1
    1d30:	696c2f2e 	stmdbvs	ip!, {r1, r2, r3, r5, r8, r9, sl, fp, sp}^
    1d34:	2f006362 	svccs	0x00006362
    1d38:	72657355 	rsbvc	r7, r5, #1409286145	; 0x54000001
    1d3c:	696d2f73 	stmdbvs	sp!, {r0, r1, r4, r5, r6, r8, r9, sl, fp, sp}^
    1d40:	2f73656c 	svccs	0x0073656c
    1d44:	72756f53 	rsbsvc	r6, r5, #332	; 0x14c
    1d48:	632f6563 			; <UNDEFINED> instruction: 0x632f6563
    1d4c:	30343273 	eorscc	r3, r4, r3, ror r2
    1d50:	6c2f786c 	stcvs	8, cr7, [pc], #-432	; 1ba8 <__code_start__-0x6458>
    1d54:	69706269 	ldmdbvs	r0!, {r0, r3, r5, r6, r9, sp, lr}^
    1d58:	636e692f 	cmnvs	lr, #770048	; 0xbc000
    1d5c:	6564756c 	strbvs	r7, [r4, #-1388]!	; 0xfffffa94
    1d60:	75700000 	ldrbvc	r0, [r0, #-0]!
    1d64:	61686374 	smcvs	34356	; 0x8634
    1d68:	00632e72 	rsbeq	r2, r3, r2, ror lr
    1d6c:	72000001 	andvc	r0, r0, #1, 0
    1d70:	682e6970 	stmdavs	lr!, {r4, r5, r6, r8, fp, sp, lr}
    1d74:	00000200 	andeq	r0, r0, r0, lsl #4
    1d78:	00240500 	eoreq	r0, r4, r0, lsl #10
    1d7c:	97b00205 	ldrls	r0, [r0, r5, lsl #4]!
    1d80:	05140000 	ldreq	r0, [r4, #-0]
    1d84:	24050126 	strcs	r0, [r5], #-294	; 0xfffffeda
    1d88:	052e0106 	streq	r0, [lr, #-262]!	; 0xfffffefa
    1d8c:	34052e26 	strcc	r2, [r5], #-3622	; 0xfffff1da
    1d90:	01052e06 	tsteq	r5, r6, lsl #28
    1d94:	1b050106 	blne	1421b4 <__bss_end__+0x13808c>
    1d98:	05054f06 	streq	r4, [r5, #-3846]	; 0xfffff0fa
    1d9c:	06110513 			; <UNDEFINED> instruction: 0x06110513
    1da0:	67010501 	strvs	r0, [r1, -r1, lsl #10]
    1da4:	67062305 	strvs	r2, [r6, -r5, lsl #6]
    1da8:	05130505 	ldreq	r0, [r3, #-1285]	; 0xfffffafb
    1dac:	05010611 	streq	r0, [r1, #-1553]	; 0xfffff9ef
    1db0:	04024b01 	streq	r4, [r2], #-2817	; 0xfffff4ff
    1db4:	e2010100 	and	r0, r1, #0
    1db8:	03000000 	movweq	r0, #0
    1dbc:	00005900 	andeq	r5, r0, r0, lsl #18
    1dc0:	fb010200 	blx	425ca <__bss_end__+0x384a2>
    1dc4:	01000d0e 	tsteq	r0, lr, lsl #26
    1dc8:	00010101 	andeq	r0, r1, r1, lsl #2
    1dcc:	00010000 	andeq	r0, r1, r0
    1dd0:	2f2e0100 	svccs	0x002e0100
    1dd4:	6362696c 	cmnvs	r2, #108, 18	; 0x1b0000
    1dd8:	73552f00 	cmpvc	r5, #0, 30
    1ddc:	2f737265 	svccs	0x00737265
    1de0:	656c696d 	strbvs	r6, [ip, #-2413]!	; 0xfffff693
    1de4:	6f532f73 	svcvs	0x00532f73
    1de8:	65637275 	strbvs	r7, [r3, #-629]!	; 0xfffffd8b
    1dec:	3273632f 	rsbscc	r6, r3, #-1140850688	; 0xbc000000
    1df0:	786c3034 	stmdavc	ip!, {r2, r4, r5, ip, sp}^
    1df4:	62696c2f 	rsbvs	r6, r9, #12032	; 0x2f00
    1df8:	692f6970 	stmdbvs	pc!, {r4, r5, r6, r8, fp, sp, lr}	; <UNPREDICTABLE>
    1dfc:	756c636e 	strbvc	r6, [ip, #-878]!	; 0xfffffc92
    1e00:	00006564 	andeq	r6, r0, r4, ror #10
    1e04:	63727473 	cmnvs	r2, #1929379840	; 0x73000000
    1e08:	632e7461 			; <UNDEFINED> instruction: 0x632e7461
    1e0c:	00000100 	andeq	r0, r0, r0, lsl #2
    1e10:	2e697072 	mcrcs	0, 3, r7, cr9, cr2, {3}
    1e14:	00020068 	andeq	r0, r2, r8, rrx
    1e18:	2c050000 	stccs	0, cr0, [r5], {-0}
    1e1c:	ec020500 	cfstr32	mvfx0, [r2], {-0}
    1e20:	15000097 	strne	r0, [r0, #-151]	; 0xffffff69
    1e24:	13130505 	tstne	r3, #20971520	; 0x1400000
    1e28:	11060b05 	tstne	r6, r5, lsl #22
    1e2c:	02000505 	andeq	r0, r0, #20971520	; 0x1400000
    1e30:	30060104 	andcc	r0, r6, r4, lsl #2
    1e34:	01040200 	mrseq	r0, R12_usr
    1e38:	00090515 	andeq	r0, r9, r5, lsl r5
    1e3c:	13010402 	movwne	r0, #5122	; 0x1402
    1e40:	02000b05 	andeq	r0, r0, #5120	; 0x1400
    1e44:	052f0104 	streq	r0, [pc, #-260]!	; 1d48 <__code_start__-0x62b8>
    1e48:	04020005 	streq	r0, [r2], #-5
    1e4c:	00010601 	andeq	r0, r1, r1, lsl #12
    1e50:	2e010402 	cdpcs	4, 0, cr0, cr1, cr2, {0}
    1e54:	08054e06 	stmdaeq	r5, {r1, r2, r9, sl, fp, lr}
    1e58:	05050106 	streq	r0, [r5, #-262]	; 0xfffffefa
    1e5c:	01040200 	mrseq	r0, R12_usr
    1e60:	09052f06 	stmdbeq	r5, {r1, r2, r8, r9, sl, fp, sp}
    1e64:	01040200 	mrseq	r0, R12_usr
    1e68:	000b0513 	andeq	r0, fp, r3, lsl r5
    1e6c:	06010402 	streq	r0, [r1], -r2, lsl #8
    1e70:	00090501 	andeq	r0, r9, r1, lsl #10
    1e74:	06010402 	streq	r0, [r1], -r2, lsl #8
    1e78:	0005052f 	andeq	r0, r5, pc, lsr #10
    1e7c:	06010402 	streq	r0, [r1], -r2, lsl #8
    1e80:	000f0513 	andeq	r0, pc, r3, lsl r5	; <UNPREDICTABLE>
    1e84:	2d010402 	cfstrscs	mvf0, [r1, #-8]
    1e88:	02000d05 	andeq	r0, r0, #320	; 0x140
    1e8c:	2f060104 	svccs	0x00060104
    1e90:	02000505 	andeq	r0, r0, #20971520	; 0x1400000
    1e94:	01060104 	tsteq	r6, r4, lsl #2
    1e98:	01000402 	tsteq	r0, r2, lsl #8
    1e9c:	0000b201 	andeq	fp, r0, r1, lsl #4
    1ea0:	59000300 	stmdbpl	r0, {r8, r9}
    1ea4:	02000000 	andeq	r0, r0, #0, 0
    1ea8:	0d0efb01 	vstreq	d15, [lr, #-4]
    1eac:	01010100 	mrseq	r0, (UNDEF: 17)
    1eb0:	00000001 	andeq	r0, r0, r1
    1eb4:	01000001 	tsteq	r0, r1
    1eb8:	696c2f2e 	stmdbvs	ip!, {r1, r2, r3, r5, r8, r9, sl, fp, sp}^
    1ebc:	2f006362 	svccs	0x00006362
    1ec0:	72657355 	rsbvc	r7, r5, #1409286145	; 0x54000001
    1ec4:	696d2f73 	stmdbvs	sp!, {r0, r1, r4, r5, r6, r8, r9, sl, fp, sp}^
    1ec8:	2f73656c 	svccs	0x0073656c
    1ecc:	72756f53 	rsbsvc	r6, r5, #332	; 0x14c
    1ed0:	632f6563 			; <UNDEFINED> instruction: 0x632f6563
    1ed4:	30343273 	eorscc	r3, r4, r3, ror r2
    1ed8:	6c2f786c 	stcvs	8, cr7, [pc], #-432	; 1d30 <__code_start__-0x62d0>
    1edc:	69706269 	ldmdbvs	r0!, {r0, r3, r5, r6, r9, sp, lr}^
    1ee0:	636e692f 	cmnvs	lr, #770048	; 0xbc000
    1ee4:	6564756c 	strbvs	r7, [r4, #-1388]!	; 0xfffffa94
    1ee8:	74730000 	ldrbtvc	r0, [r3], #-0
    1eec:	706d6372 	rsbvc	r6, sp, r2, ror r3
    1ef0:	0100632e 	tsteq	r0, lr, lsr #6
    1ef4:	70720000 	rsbsvc	r0, r2, r0
    1ef8:	00682e69 	rsbeq	r2, r8, r9, ror #28
    1efc:	00000002 	andeq	r0, r0, r2
    1f00:	05002a05 	streq	r2, [r0, #-2565]	; 0xfffff5fb
    1f04:	00981802 	addseq	r1, r8, r2, lsl #16
    1f08:	09051400 	stmdbeq	r5, {sl, ip}
    1f0c:	06100513 			; <UNDEFINED> instruction: 0x06100513
    1f10:	060f0501 	streq	r0, [pc], -r1, lsl #10
    1f14:	0610052e 	ldreq	r0, [r0], -lr, lsr #10
    1f18:	2e0f0582 	cfsh32cs	mvfx0, mvfx15, #-62
    1f1c:	02001105 	andeq	r1, r0, #1073741825	; 0x40000001
    1f20:	4b060104 	blmi	182338 <__bss_end__+0x178210>
    1f24:	02001c05 	andeq	r1, r0, #1280	; 0x500
    1f28:	2d060104 	stfcss	f0, [r6, #-16]
    1f2c:	02000f05 	andeq	r0, r0, #5, 30
    1f30:	2e060104 	adfcss	f0, f6, f4
    1f34:	02001305 	andeq	r1, r0, #335544320	; 0x14000000
    1f38:	01060104 	tsteq	r6, r4, lsl #2
    1f3c:	4c060905 			; <UNDEFINED> instruction: 0x4c060905
    1f40:	13060105 	movwne	r0, #24837	; 0x6105
    1f44:	0609054a 	streq	r0, [r9], -sl, asr #10
    1f48:	0601052d 	streq	r0, [r1], -sp, lsr #10
    1f4c:	02022e13 	andeq	r2, r2, #304	; 0x130
    1f50:	9d010100 	stflss	f0, [r1, #-0]
    1f54:	03000000 	movweq	r0, #0
    1f58:	00005900 	andeq	r5, r0, r0, lsl #18
    1f5c:	fb010200 	blx	42766 <__bss_end__+0x3863e>
    1f60:	01000d0e 	tsteq	r0, lr, lsl #26
    1f64:	00010101 	andeq	r0, r1, r1, lsl #2
    1f68:	00010000 	andeq	r0, r1, r0
    1f6c:	2f2e0100 	svccs	0x002e0100
    1f70:	6362696c 	cmnvs	r2, #108, 18	; 0x1b0000
    1f74:	73552f00 	cmpvc	r5, #0, 30
    1f78:	2f737265 	svccs	0x00737265
    1f7c:	656c696d 	strbvs	r6, [ip, #-2413]!	; 0xfffff693
    1f80:	6f532f73 	svcvs	0x00532f73
    1f84:	65637275 	strbvs	r7, [r3, #-629]!	; 0xfffffd8b
    1f88:	3273632f 	rsbscc	r6, r3, #-1140850688	; 0xbc000000
    1f8c:	786c3034 	stmdavc	ip!, {r2, r4, r5, ip, sp}^
    1f90:	62696c2f 	rsbvs	r6, r9, #12032	; 0x2f00
    1f94:	692f6970 	stmdbvs	pc!, {r4, r5, r6, r8, fp, sp, lr}	; <UNPREDICTABLE>
    1f98:	756c636e 	strbvc	r6, [ip, #-878]!	; 0xfffffc92
    1f9c:	00006564 	andeq	r6, r0, r4, ror #10
    1fa0:	63727473 	cmnvs	r2, #1929379840	; 0x73000000
    1fa4:	632e7970 			; <UNDEFINED> instruction: 0x632e7970
    1fa8:	00000100 	andeq	r0, r0, r0, lsl #2
    1fac:	2e697072 	mcrcs	0, 3, r7, cr9, cr2, {3}
    1fb0:	00020068 	andeq	r0, r2, r8, rrx
    1fb4:	2a050000 	bcs	141fbc <__bss_end__+0x137e94>
    1fb8:	5c020500 	cfstr32pl	mvfx0, [r2], {-0}
    1fbc:	14000098 	strne	r0, [r0], #-152	; 0xffffff68
    1fc0:	13130505 	tstne	r3, #20971520	; 0x1400000
    1fc4:	02002205 	andeq	r2, r0, #1342177280	; 0x50000000
    1fc8:	052e0104 	streq	r0, [lr, #-260]!	; 0xfffffefc
    1fcc:	0402000b 	streq	r0, [r2], #-11
    1fd0:	15050101 	strne	r0, [r5, #-257]	; 0xfffffeff
    1fd4:	01040200 	mrseq	r0, R12_usr
    1fd8:	0b050106 	bleq	1423f8 <__bss_end__+0x1382d0>
    1fdc:	01040200 	mrseq	r0, R12_usr
    1fe0:	0013052e 	andseq	r0, r3, lr, lsr #10
    1fe4:	2e010402 	cdpcs	4, 0, cr0, cr1, cr2, {0}
    1fe8:	02000b05 	andeq	r0, r0, #5120	; 0x1400
    1fec:	022e0104 	eoreq	r0, lr, #1
    1ff0:	01010004 	tsteq	r1, r4
    1ff4:	000000fd 	strdeq	r0, [r0], -sp
    1ff8:	00bf0003 	adcseq	r0, pc, r3
    1ffc:	01020000 	mrseq	r0, (UNDEF: 2)
    2000:	000d0efb 	strdeq	r0, [sp], -fp
    2004:	01010101 	tsteq	r1, r1, lsl #2
    2008:	01000000 	mrseq	r0, (UNDEF: 0)
    200c:	2e010000 	cdpcs	0, 0, cr0, cr1, cr0, {0}
    2010:	62696c2f 	rsbvs	r6, r9, #12032	; 0x2f00
    2014:	552f0063 	strpl	r0, [pc, #-99]!	; 1fb9 <__code_start__-0x6047>
    2018:	73726573 	cmnvc	r2, #482344960	; 0x1cc00000
    201c:	6c696d2f 	stclvs	13, cr6, [r9], #-188	; 0xffffff44
    2020:	532f7365 			; <UNDEFINED> instruction: 0x532f7365
    2024:	6372756f 	cmnvs	r2, #465567744	; 0x1bc00000
    2028:	73632f65 	cmnvc	r3, #404	; 0x194
    202c:	6c303432 	cfldrsvs	mvf3, [r0], #-200	; 0xffffff38
    2030:	696c2f78 	stmdbvs	ip!, {r3, r4, r5, r6, r8, r9, sl, fp, sp}^
    2034:	2f697062 	svccs	0x00697062
    2038:	6c636e69 	stclvs	14, cr6, [r3], #-420	; 0xfffffe5c
    203c:	00656475 	rsbeq	r6, r5, r5, ror r4
    2040:	74706f2f 	ldrbtvc	r6, [r0], #-3887	; 0xfffff0d1
    2044:	6d6f682f 	stclvs	8, cr6, [pc, #-188]!	; 1f90 <__code_start__-0x6070>
    2048:	65726265 	ldrbvs	r6, [r2, #-613]!	; 0xfffffd9b
    204c:	65432f77 	strbvs	r2, [r3, #-3959]	; 0xfffff089
    2050:	72616c6c 	rsbvc	r6, r1, #108, 24	; 0x6c00
    2054:	6d72612f 	ldfvse	f6, [r2, #-188]!	; 0xffffff44
    2058:	6e6f6e2d 	cdpvs	14, 6, cr6, cr15, cr13, {1}
    205c:	61652d65 	cmnvs	r5, r5, ror #26
    2060:	392d6962 	pushcc	{r1, r5, r6, r8, fp, sp, lr}
    2064:	322d392f 	eorcc	r3, sp, #770048	; 0xbc000
    2068:	71393130 	teqvc	r9, r0, lsr r1
    206c:	73632d34 	cmnvc	r3, #52, 26	; 0xd00
    2070:	65373031 	ldrvs	r3, [r7, #-49]!	; 0xffffffcf
    2074:	62696c2f 	rsbvs	r6, r9, #12032	; 0x2f00
    2078:	6363672f 	cmnvs	r3, #12320768	; 0xbc0000
    207c:	6d72612f 	ldfvse	f6, [r2, #-188]!	; 0xffffff44
    2080:	6e6f6e2d 	cdpvs	14, 6, cr6, cr15, cr13, {1}
    2084:	61652d65 	cmnvs	r5, r5, ror #26
    2088:	392f6962 	stmdbcc	pc!, {r1, r5, r6, r8, fp, sp, lr}	; <UNPREDICTABLE>
    208c:	312e322e 			; <UNDEFINED> instruction: 0x312e322e
    2090:	636e692f 	cmnvs	lr, #770048	; 0xbc000
    2094:	6564756c 	strbvs	r7, [r4, #-1388]!	; 0xfffffa94
    2098:	74730000 	ldrbtvc	r0, [r3], #-0
    209c:	6d636e72 	stclvs	14, cr6, [r3, #-456]!	; 0xfffffe38
    20a0:	00632e70 	rsbeq	r2, r3, r0, ror lr
    20a4:	72000001 	andvc	r0, r0, #1, 0
    20a8:	682e6970 	stmdavs	lr!, {r4, r5, r6, r8, fp, sp, lr}
    20ac:	00000200 	andeq	r0, r0, r0, lsl #4
    20b0:	64647473 	strbtvs	r7, [r4], #-1139	; 0xfffffb8d
    20b4:	682e6665 	stmdavs	lr!, {r0, r2, r5, r6, r9, sl, sp, lr}
    20b8:	00000300 	andeq	r0, r0, r0, lsl #6
    20bc:	00390500 	eorseq	r0, r9, r0, lsl #10
    20c0:	98740205 	ldmdals	r4!, {r0, r2, r9}^
    20c4:	05150000 	ldreq	r0, [r5, #-0]
    20c8:	05131305 	ldreq	r1, [r3, #-773]	; 0xfffffcfb
    20cc:	052e060a 	streq	r0, [lr, #-1546]!	; 0xfffff9f6
    20d0:	13052f0c 	movwne	r2, #24332	; 0x5f0c
    20d4:	2e0b052e 	cfsh32cs	mvfx0, mvfx11, #30
    20d8:	4a060905 	bmi	1844f4 <__bss_end__+0x17a3cc>
    20dc:	06110a05 	ldreq	r0, [r1], -r5, lsl #20
    20e0:	4e0c0501 	cfsh32mi	mvfx0, mvfx12, #1
    20e4:	052f0105 	streq	r0, [pc, #-261]!	; 1fe7 <__code_start__-0x6019>
    20e8:	052b060d 	streq	r0, [fp, #-1549]!	; 0xfffff9f3
    20ec:	2e01061b 	mcrcs	6, 0, r0, cr1, cr11, {0}
    20f0:	01000202 	tsteq	r0, r2, lsl #4
    20f4:	00008a01 	andeq	r8, r0, r1, lsl #20
    20f8:	6e000300 	cdpvs	3, 0, cr0, cr0, cr0, {0}
    20fc:	02000000 	andeq	r0, r0, #0, 0
    2100:	0d0efb01 	vstreq	d15, [lr, #-4]
    2104:	01010100 	mrseq	r0, (UNDEF: 17)
    2108:	00000001 	andeq	r0, r0, r1
    210c:	01000001 	tsteq	r0, r1
    2110:	74732f2e 	ldrbtvc	r2, [r3], #-3886	; 0xfffff0d2
    2114:	2d666661 	stclcs	6, cr6, [r6, #-388]!	; 0xfffffe7c
    2118:	00637273 	rsbeq	r7, r3, r3, ror r2
    211c:	6573552f 	ldrbvs	r5, [r3, #-1327]!	; 0xfffffad1
    2120:	6d2f7372 	stcvs	3, cr7, [pc, #-456]!	; 1f60 <__code_start__-0x60a0>
    2124:	73656c69 	cmnvc	r5, #26880	; 0x6900
    2128:	756f532f 	strbvc	r5, [pc, #-815]!	; 1e01 <__code_start__-0x61ff>
    212c:	2f656372 	svccs	0x00656372
    2130:	34327363 	ldrtcc	r7, [r2], #-867	; 0xfffffc9d
    2134:	2f786c30 	svccs	0x00786c30
    2138:	7062696c 	rsbvc	r6, r2, ip, ror #18
    213c:	6e692f69 	cdpvs	15, 6, cr2, cr9, cr9, {3}
    2140:	64756c63 	ldrbtvs	r6, [r5], #-3171	; 0xfffff39d
    2144:	64000065 	strvs	r0, [r0], #-101	; 0xffffff9b
    2148:	75616665 	strbvc	r6, [r1, #-1637]!	; 0xfffff99b
    214c:	722d746c 	eorvc	r7, sp, #108, 8	; 0x6c000000
    2150:	6f6f6265 	svcvs	0x006f6265
    2154:	61632d74 	smcvs	13012	; 0x32d4
    2158:	756f6c6c 	strbvc	r6, [pc, #-3180]!	; 14f4 <__code_start__-0x6b0c>
    215c:	00632e74 	rsbeq	r2, r3, r4, ror lr
    2160:	72000001 	andvc	r0, r0, #1, 0
    2164:	682e6970 	stmdavs	lr!, {r4, r5, r6, r8, fp, sp, lr}
    2168:	00000200 	andeq	r0, r0, r0, lsl #4
    216c:	001b0500 	andseq	r0, fp, r0, lsl #10
    2170:	98a40205 	stmials	r4!, {r0, r2, r9}
    2174:	05140000 	ldreq	r0, [r4, #-0]
    2178:	0105011c 	tsteq	r5, ip, lsl r1
    217c:	02020106 	andeq	r0, r2, #-2147483647	; 0x80000001
    2180:	Address 0x0000000000002180 is out of bounds.


Disassembly of section .debug_str:

00000000 <.debug_str>:
   0:	6d746f6e 	ldclvs	15, cr6, [r4, #-440]!	; 0xfffffe48
   4:	006e6961 	rsbeq	r6, lr, r1, ror #18
   8:	69736e75 	ldmdbvs	r3!, {r0, r2, r4, r5, r6, r9, sl, fp, sp, lr}^
   c:	64656e67 	strbtvs	r6, [r5], #-3687	; 0xfffff199
  10:	61686320 	cmnvs	r8, r0, lsr #6
  14:	6c630072 	stclvs	0, cr0, [r3], #-456	; 0xfffffe38
  18:	5f6e6165 	svcpl	0x006e6165
  1c:	6f626572 	svcvs	0x00626572
  20:	2f00746f 	svccs	0x0000746f
  24:	72657355 	rsbvc	r7, r5, #1409286145	; 0x54000001
  28:	696d2f73 	stmdbvs	sp!, {r0, r1, r4, r5, r6, r8, r9, sl, fp, sp}^
  2c:	2f73656c 	svccs	0x0073656c
  30:	72756f53 	rsbsvc	r6, r5, #332	; 0x14c
  34:	632f6563 			; <UNDEFINED> instruction: 0x632f6563
  38:	30343273 	eorscc	r3, r4, r3, ror r2
  3c:	6c2f786c 	stcvs	8, cr7, [pc], #-432	; fffffe94 <__bss_end__+0xffff5d6c>
  40:	2f736261 	svccs	0x00736261
  44:	616d2d35 	cmnvs	sp, r5, lsr sp
  48:	636f6c6c 	cmnvs	pc, #108, 24	; 0x6c00
  4c:	2f63672b 	svccs	0x0063672b
  50:	616d2d31 	cmnvs	sp, r1, lsr sp
  54:	636f6c6c 	cmnvs	pc, #108, 24	; 0x6c00
  58:	6f687300 	svcvs	0x00687300
  5c:	75207472 	strvc	r7, [r0, #-1138]!	; 0xfffffb8e
  60:	6769736e 	strbvs	r7, [r9, -lr, ror #6]!
  64:	2064656e 	rsbcs	r6, r4, lr, ror #10
  68:	00746e69 	rsbseq	r6, r4, r9, ror #28
  6c:	62756f64 	rsbsvs	r6, r5, #100, 30	; 0x190
  70:	5f00656c 	svcpl	0x0000656c
  74:	4e55465f 	mrcmi	6, 2, r4, cr5, cr15, {2}
  78:	4f495443 	svcmi	0x00495443
  7c:	005f5f4e 	subseq	r5, pc, lr, asr #30
  80:	7365746e 	cmnvc	r5, #1845493760	; 0x6e000000
  84:	31007374 	tstcc	r0, r4, ror r3
  88:	7365742d 	cmnvc	r5, #754974720	; 0x2d000000
  8c:	616d2d74 	smcvs	53972	; 0xd2d4
  90:	636f6c6c 	cmnvs	pc, #108, 24	; 0x6c00
  94:	6c00632e 	stcvs	3, cr6, [r0], {46}	; 0x2e
  98:	20676e6f 	rsbcs	r6, r7, pc, ror #28
  9c:	676e6f6c 	strbvs	r6, [lr, -ip, ror #30]!
  a0:	736e7520 	cmnvc	lr, #32, 10	; 0x8000000
  a4:	656e6769 	strbvs	r6, [lr, #-1897]!	; 0xfffff897
  a8:	6e692064 	cdpvs	0, 6, cr2, cr9, cr4, {3}
  ac:	6f6c0074 	svcvs	0x006c0074
  b0:	6c20676e 	stcvs	7, cr6, [r0], #-440	; 0xfffffe48
  b4:	20676e6f 	rsbcs	r6, r7, pc, ror #28
  b8:	00746e69 	rsbseq	r6, r4, r9, ror #28
  bc:	5f697072 	svcpl	0x00697072
  c0:	63747570 	cmnvs	r4, #112, 10	; 0x1c000000
  c4:	00726168 	rsbseq	r6, r2, r8, ror #2
  c8:	726f6873 	rsbvc	r6, pc, #7536640	; 0x730000
  cc:	6e692074 	mcrvs	0, 3, r2, cr9, cr4, {3}
  d0:	726b0074 	rsbvc	r0, fp, #116, 0	; 0x74
  d4:	6c616d5f 	stclvs	13, cr6, [r1], #-380	; 0xfffffe84
  d8:	00636f6c 	rsbeq	r6, r3, ip, ror #30
  dc:	20554e47 	subscs	r4, r5, r7, asr #28
  e0:	20393943 	eorscs	r3, r9, r3, asr #18
  e4:	2e322e39 	mrccs	14, 1, r2, cr2, cr9, {1}
  e8:	30322031 	eorscc	r2, r2, r1, lsr r0
  ec:	30313931 	eorscc	r3, r1, r1, lsr r9
  f0:	28203532 	stmdacs	r0!, {r1, r4, r5, r8, sl, ip, sp}
  f4:	656c6572 	strbvs	r6, [ip, #-1394]!	; 0xfffffa8e
  f8:	29657361 	stmdbcs	r5!, {r0, r5, r6, r8, r9, ip, sp, lr}^
  fc:	52415b20 	subpl	r5, r1, #32, 22	; 0x8000
 100:	72612f4d 	rsbvc	r2, r1, #308	; 0x134
 104:	2d392d6d 	ldccs	13, cr2, [r9, #-436]!	; 0xfffffe4c
 108:	6e617262 	cdpvs	2, 6, cr7, cr1, cr2, {3}
 10c:	72206863 	eorvc	r6, r0, #6488064	; 0x630000
 110:	73697665 	cmnvc	r9, #105906176	; 0x6500000
 114:	206e6f69 	rsbcs	r6, lr, r9, ror #30
 118:	35373732 	ldrcc	r3, [r7, #-1842]!	; 0xfffff8ce
 11c:	205d3939 	subscs	r3, sp, r9, lsr r9
 120:	70636d2d 	rsbvc	r6, r3, sp, lsr #26
 124:	72613d75 	rsbvc	r3, r1, #7488	; 0x1d40
 128:	3731316d 	ldrcc	r3, [r1, -sp, ror #2]!
 12c:	667a6a36 			; <UNDEFINED> instruction: 0x667a6a36
 130:	2d20732d 	stccs	3, cr7, [r0, #-180]!	; 0xffffff4c
 134:	6e75746d 	cdpvs	4, 7, cr7, cr5, cr13, {3}
 138:	72613d65 	rsbvc	r3, r1, #6464	; 0x1940
 13c:	3731316d 	ldrcc	r3, [r1, -sp, ror #2]!
 140:	667a6a36 			; <UNDEFINED> instruction: 0x667a6a36
 144:	2d20732d 	stccs	3, cr7, [r0, #-180]!	; 0xffffff4c
 148:	6f6c666d 	svcvs	0x006c666d
 14c:	612d7461 			; <UNDEFINED> instruction: 0x612d7461
 150:	733d6962 	teqvc	sp, #1605632	; 0x188000
 154:	2074666f 	rsbscs	r6, r4, pc, ror #12
 158:	72616d2d 	rsbvc	r6, r1, #2880	; 0xb40
 15c:	6d2d206d 	stcvs	0, cr2, [sp, #-436]!	; 0xfffffe4c
 160:	68637261 	stmdavs	r3!, {r0, r5, r6, r9, ip, sp, lr}^
 164:	6d72613d 	ldfvse	f6, [r2, #-244]!	; 0xffffff0c
 168:	7a6b3676 	bvc	1acdb48 <__bss_end__+0x1ac3a20>
 16c:	67672d20 	strbvs	r2, [r7, -r0, lsr #26]!
 170:	2d206264 	sfmcs	f6, 4, [r0, #-400]!	; 0xfffffe70
 174:	2d20674f 	stccs	7, cr6, [r0, #-316]!	; 0xfffffec4
 178:	3d647473 	cfstrdcc	mvd7, [r4, #-460]!	; 0xfffffe34
 17c:	39756e67 	ldmdbcc	r5!, {r0, r1, r2, r5, r6, r9, sl, fp, sp, lr}^
 180:	662d2039 			; <UNDEFINED> instruction: 0x662d2039
 184:	65657266 	strbvs	r7, [r5, #-614]!	; 0xfffffd9a
 188:	6e617473 	mcrvs	4, 3, r7, cr1, cr3, {3}
 18c:	676e6964 	strbvs	r6, [lr, -r4, ror #18]!
 190:	61656800 	cmnvs	r5, r0, lsl #16
 194:	00726564 	rsbseq	r6, r2, r4, ror #10
 198:	76657270 			; <UNDEFINED> instruction: 0x76657270
 19c:	6c610070 	stclvs	0, cr0, [r1], #-448	; 0xfffffe40
 1a0:	006e6769 	rsbeq	r6, lr, r9, ror #14
 1a4:	665f726b 	ldrbvs	r7, [pc], -fp, ror #4
 1a8:	00656572 	rsbeq	r6, r5, r2, ror r5
 1ac:	65657266 	strbvs	r7, [r5, #-614]!	; 0xfffffd9a
 1b0:	756e0070 	strbvc	r0, [lr, #-112]!	; 0xffffff90
 1b4:	7374696e 	cmnvc	r4, #1802240	; 0x1b8000
 1b8:	2d726b00 	vldmdbcs	r2!, {d22-d21}
 1bc:	6c6c616d 	stfvse	f6, [ip], #-436	; 0xfffffe4c
 1c0:	632e636f 			; <UNDEFINED> instruction: 0x632e636f
 1c4:	73616200 	cmnvc	r1, #0, 4
 1c8:	62730065 	rsbsvs	r0, r3, #101, 0	; 0x65
 1cc:	6d006b72 	vstrvs	d6, [r0, #-456]	; 0xfffffe38
 1d0:	6365726f 	cmnvs	r5, #-268435450	; 0xf0000006
 1d4:	0065726f 	rsbeq	r7, r5, pc, ror #4
 1d8:	657a6973 	ldrbvs	r6, [sl, #-2419]!	; 0xfffff68d
 1dc:	61654800 	cmnvs	r5, r0, lsl #16
 1e0:	00726564 	rsbseq	r6, r2, r4, ror #10
 1e4:	72636e69 	rsbvc	r6, r3, #1680	; 0x690
 1e8:	6e656d65 	cdpvs	13, 6, cr6, cr5, cr5, {3}
 1ec:	6d6b0074 	stclvs	0, cr0, [fp, #-464]!	; 0xfffffe30
 1f0:	6f6c6c61 	svcvs	0x006c6c61
 1f4:	69700063 	ldmdbvs	r0!, {r0, r1, r5, r6}^
 1f8:	7262732d 	rsbvc	r7, r2, #-1275068416	; 0xb4000000
 1fc:	00632e6b 	rsbeq	r2, r3, fp, ror #28
 200:	73677261 	cmnvc	r7, #268435462	; 0x10000006
 204:	5f617600 	svcpl	0x00617600
 208:	6e697270 	mcrvs	2, 3, r7, cr9, cr0, {3}
 20c:	5f006b74 	svcpl	0x00006b74
 210:	756e675f 	strbvc	r6, [lr, #-1887]!	; 0xfffff8a1
 214:	61765f63 	cmnvs	r6, r3, ror #30
 218:	73696c5f 	cmnvc	r9, #24320	; 0x5f00
 21c:	4e470074 	mcrmi	0, 2, r0, cr7, cr4, {3}
 220:	39432055 	stmdbcc	r3, {r0, r2, r4, r6, sp}^
 224:	2e392039 	mrccs	0, 1, r2, cr9, cr9, {1}
 228:	20312e32 	eorscs	r2, r1, r2, lsr lr
 22c:	39313032 	ldmdbcc	r1!, {r1, r4, r5, ip, sp}
 230:	35323031 	ldrcc	r3, [r2, #-49]!	; 0xffffffcf
 234:	65722820 	ldrbvs	r2, [r2, #-2080]!	; 0xfffff7e0
 238:	7361656c 	cmnvc	r1, #108, 10	; 0x1b000000
 23c:	5b202965 	blpl	80a7d8 <__bss_end__+0x8006b0>
 240:	2f4d5241 	svccs	0x004d5241
 244:	2d6d7261 	sfmcs	f7, 2, [sp, #-388]!	; 0xfffffe7c
 248:	72622d39 	rsbvc	r2, r2, #3648	; 0xe40
 24c:	68636e61 	stmdavs	r3!, {r0, r5, r6, r9, sl, fp, sp, lr}^
 250:	76657220 	strbtvc	r7, [r5], -r0, lsr #4
 254:	6f697369 	svcvs	0x00697369
 258:	3732206e 	ldrcc	r2, [r2, -lr, rrx]!
 25c:	39393537 	ldmdbcc	r9!, {r0, r1, r2, r4, r5, r8, sl, ip, sp}
 260:	6d2d205d 	stcvs	0, cr2, [sp, #-372]!	; 0xfffffe8c
 264:	3d757063 	ldclcc	0, cr7, [r5, #-396]!	; 0xfffffe74
 268:	316d7261 	cmncc	sp, r1, ror #4
 26c:	6a363731 	bvs	d8df38 <__bss_end__+0xd83e10>
 270:	732d667a 			; <UNDEFINED> instruction: 0x732d667a
 274:	746d2d20 	strbtvc	r2, [sp], #-3360	; 0xfffff2e0
 278:	3d656e75 	stclcc	14, cr6, [r5, #-468]!	; 0xfffffe2c
 27c:	316d7261 	cmncc	sp, r1, ror #4
 280:	6a363731 	bvs	d8df4c <__bss_end__+0xd83e24>
 284:	732d667a 			; <UNDEFINED> instruction: 0x732d667a
 288:	666d2d20 	strbtvs	r2, [sp], -r0, lsr #26
 28c:	74616f6c 	strbtvc	r6, [r1], #-3948	; 0xfffff094
 290:	6962612d 	stmdbvs	r2!, {r0, r2, r3, r5, r8, sp, lr}^
 294:	666f733d 			; <UNDEFINED> instruction: 0x666f733d
 298:	6d2d2074 	stcvs	0, cr2, [sp, #-464]!	; 0xfffffe30
 29c:	206d7261 	rsbcs	r7, sp, r1, ror #4
 2a0:	72616d2d 	rsbvc	r6, r1, #2880	; 0xb40
 2a4:	613d6863 	teqvs	sp, r3, ror #16
 2a8:	36766d72 			; <UNDEFINED> instruction: 0x36766d72
 2ac:	2d207a6b 	vstmdbcs	r0!, {s14-s120}
 2b0:	62646767 	rsbvs	r6, r4, #27000832	; 0x19c0000
 2b4:	664f2d20 	strbvs	r2, [pc], -r0, lsr #26
 2b8:	20747361 	rsbscs	r7, r4, r1, ror #6
 2bc:	6474732d 	ldrbtvs	r7, [r4], #-813	; 0xfffffcd3
 2c0:	756e673d 	strbvc	r6, [lr, #-1853]!	; 0xfffff8c3
 2c4:	2d203939 			; <UNDEFINED> instruction: 0x2d203939
 2c8:	65726666 	ldrbvs	r6, [r2, #-1638]!	; 0xfffff99a
 2cc:	61747365 	cmnvs	r4, r5, ror #6
 2d0:	6e69646e 	cdpvs	4, 6, cr6, cr9, cr14, {3}
 2d4:	5f5f0067 	svcpl	0x005f0067
 2d8:	2e007061 	cdpcs	0, 0, cr7, cr0, cr1, {3}
 2dc:	62696c2f 	rsbvs	r6, r9, #12032	; 0x2f00
 2e0:	72702f63 	rsbsvc	r2, r0, #396	; 0x18c
 2e4:	6b746e69 	blvs	1d1bc90 <__bss_end__+0x1d11b68>
 2e8:	5f00632e 	svcpl	0x0000632e
 2ec:	5f61765f 	svcpl	0x0061765f
 2f0:	7473696c 	ldrbtvc	r6, [r3], #-2412	; 0xfffff694
 2f4:	73552f00 	cmpvc	r5, #0, 30
 2f8:	2f737265 	svccs	0x00737265
 2fc:	656c696d 	strbvs	r6, [ip, #-2413]!	; 0xfffff693
 300:	6f532f73 	svcvs	0x00532f73
 304:	65637275 	strbvs	r7, [r3, #-629]!	; 0xfffffd8b
 308:	3273632f 	rsbscc	r6, r3, #-1140850688	; 0xbc000000
 30c:	786c3034 	stmdavc	ip!, {r2, r4, r5, ip, sp}^
 310:	62696c2f 	rsbvs	r6, r9, #12032	; 0x2f00
 314:	69006970 	stmdbvs	r0, {r4, r5, r6, r8, fp, sp, lr}
 318:	7265746e 	rsbvc	r7, r5, #1845493760	; 0x6e000000
 31c:	5f6c616e 	svcpl	0x006c616e
 320:	6b747570 	blvs	1d1d8e8 <__bss_end__+0x1d137c0>
 324:	6c2f2e00 	stcvs	14, cr2, [pc], #-0	; 32c <__code_start__-0x7cd4>
 328:	2f636269 	svccs	0x00636269
 32c:	6b747570 	blvs	1d1d8f4 <__bss_end__+0x1d137cc>
 330:	6900632e 	stmdbvs	r0, {r1, r2, r3, r5, r8, r9, sp, lr}
 334:	67696473 			; <UNDEFINED> instruction: 0x67696473
 338:	75007469 	strvc	r7, [r0, #-1129]	; 0xfffffb97
 33c:	36746e69 	ldrbtcc	r6, [r4], -r9, ror #28
 340:	00745f34 	rsbseq	r5, r4, r4, lsr pc
 344:	696c2f2e 	stmdbvs	ip!, {r1, r2, r3, r5, r8, r9, sl, fp, sp}^
 348:	762f6362 	strtvc	r6, [pc], -r2, ror #6
 34c:	72702d61 	rsbsvc	r2, r0, #6208	; 0x1840
 350:	6b746e69 	blvs	1d1bcfc <__bss_end__+0x1d11bd4>
 354:	5f00632e 	svcpl	0x0000632e
 358:	646f635f 	strbtvs	r6, [pc], #-863	; 360 <__code_start__-0x7ca0>
 35c:	74735f65 	ldrbtvc	r5, [r3], #-3941	; 0xfffff09b
 360:	5f747261 	svcpl	0x00747261
 364:	5f5f005f 	svcpl	0x005f005f
 368:	5f737362 	svcpl	0x00737362
 36c:	72617473 	rsbvc	r7, r1, #1929379840	; 0x73000000
 370:	005f5f74 	subseq	r5, pc, r4, ror pc	; <UNPREDICTABLE>
 374:	74646977 	strbtvc	r6, [r4], #-2423	; 0xfffff689
 378:	5f5f0068 	svcpl	0x005f0068
 37c:	61746164 	cmnvs	r4, r4, ror #2
 380:	646e655f 	strbtvs	r6, [lr], #-1375	; 0xfffffaa1
 384:	70005f5f 	andvc	r5, r0, pc, asr pc
 388:	5f637475 	svcpl	0x00637475
 38c:	5f007066 	svcpl	0x00007066
 390:	7373625f 	cmnvc	r3, #-268435451	; 0xf0000005
 394:	646e655f 	strbtvs	r6, [lr], #-1375	; 0xfffffaa1
 398:	5f005f5f 	svcpl	0x00005f5f
 39c:	6165685f 	cmnvs	r5, pc, asr r8
 3a0:	74735f70 	ldrbtvc	r5, [r3], #-3952	; 0xfffff090
 3a4:	5f747261 	svcpl	0x00747261
 3a8:	6975005f 	ldmdbvs	r5!, {r0, r1, r2, r3, r4, r6}^
 3ac:	3233746e 	eorscc	r7, r3, #1845493760	; 0x6e000000
 3b0:	7200745f 	andvc	r7, r0, #1593835520	; 0x5f000000
 3b4:	735f6970 	cmpvc	pc, #112, 18	; 0x1c0000
 3b8:	6f5f7465 	svcvs	0x005f7465
 3bc:	75707475 	ldrbvc	r7, [r0, #-1141]!	; 0xfffffb8b
 3c0:	6d660074 	stclvs	0, cr0, [r6, #-464]!	; 0xfffffe30
 3c4:	74735f74 	ldrbtvc	r5, [r3], #-3956	; 0xfffff08c
 3c8:	00747261 	rsbseq	r7, r4, r1, ror #4
 3cc:	63727473 	cmnvs	r2, #1929379840	; 0x73000000
 3d0:	73007461 	movwvc	r7, #1121	; 0x461
 3d4:	70637274 	rsbvc	r7, r3, r4, ror r2
 3d8:	656e0079 	strbvs	r0, [lr, #-121]!	; 0xffffff87
 3dc:	00705f67 	rsbseq	r5, r0, r7, ror #30
 3e0:	6f635f5f 	svcvs	0x00635f5f
 3e4:	655f6564 	ldrbvs	r6, [pc, #-1380]	; fffffe88 <__bss_end__+0xffff5d60>
 3e8:	5f5f646e 	svcpl	0x005f646e
 3ec:	696d6500 	stmdbvs	sp!, {r8, sl, sp, lr}^
 3f0:	65720074 	ldrbvs	r0, [r2, #-116]!	; 0xffffff8c
 3f4:	73726576 	cmnvc	r2, #494927872	; 0x1d800000
 3f8:	74730065 	ldrbtvc	r0, [r3], #-101	; 0xffffff9b
 3fc:	706d6372 	rsbvc	r6, sp, r2, ror r3
 400:	74757000 	ldrbtvc	r7, [r5], #-0
 404:	70665f73 	rsbvc	r5, r6, r3, ror pc
 408:	645f5f00 	ldrbvs	r5, [pc], #-3840	; 410 <__code_start__-0x7bf0>
 40c:	5f617461 	svcpl	0x00617461
 410:	72617473 	rsbvc	r7, r1, #1929379840	; 0x73000000
 414:	005f5f74 	subseq	r5, pc, r4, ror pc	; <UNPREDICTABLE>
 418:	72705f5f 	rsbsvc	r5, r0, #380	; 0x17c
 41c:	655f676f 	ldrbvs	r6, [pc, #-1903]	; fffffcb5 <__bss_end__+0xffff5b8d>
 420:	5f5f646e 	svcpl	0x005f646e
 424:	6d756e00 	ldclvs	14, cr6, [r5, #-0]
 428:	74730031 	ldrbtvc	r0, [r3], #-49	; 0xffffffcf
 42c:	6d636e72 	stclvs	14, cr6, [r3, #-456]!	; 0xfffffe38
 430:	69730070 	ldmdbvs	r3!, {r4, r5, r6}^
 434:	64656e67 	strbtvs	r6, [r5], #-3687	; 0xfffff199
 438:	7200705f 	andvc	r7, r0, #95, 0	; 0x5f
 43c:	725f6970 	subsvc	r6, pc, #112, 18	; 0x1c0000
 440:	6f6f6265 	svcvs	0x006f6265
 444:	65640074 	strbvs	r0, [r4, #-116]!	; 0xffffff8c
 448:	5f79616c 	svcpl	0x0079616c
 44c:	2e00736d 	cdpcs	3, 0, cr7, cr0, cr13, {3}
 450:	6174732f 	cmnvs	r4, pc, lsr #6
 454:	732d6666 			; <UNDEFINED> instruction: 0x732d6666
 458:	632f6372 			; <UNDEFINED> instruction: 0x632f6372
 45c:	6e61656c 	cdpvs	5, 6, cr6, cr1, cr12, {3}
 460:	6265722d 	rsbvs	r7, r5, #-805306366	; 0xd0000002
 464:	2e746f6f 	cdpcs	15, 7, cr6, cr4, cr15, {3}
 468:	61750063 	cmnvs	r5, r3, rrx
 46c:	665f7472 			; <UNDEFINED> instruction: 0x665f7472
 470:	6873756c 	ldmdavs	r3!, {r2, r3, r5, r6, r8, sl, ip, sp, lr}^
 474:	0078745f 	rsbseq	r7, r8, pc, asr r4
 478:	7473635f 	ldrbtvc	r6, [r3], #-863	; 0xfffffca1
 47c:	00747261 	rsbseq	r7, r4, r1, ror #4
 480:	5f737362 	svcpl	0x00737362
 484:	00646e65 	rsbeq	r6, r4, r5, ror #28
 488:	74726175 	ldrbtvc	r6, [r2], #-373	; 0xfffffe8b
 48c:	696e695f 	stmdbvs	lr!, {r0, r1, r2, r3, r4, r6, r8, fp, sp, lr}^
 490:	75630074 	strbvc	r0, [r3, #-116]!	; 0xffffff8c
 494:	6d6f7473 	cfstrdvs	mvd7, [pc, #-460]!	; 2d0 <__code_start__-0x7d30>
 498:	616f6c5f 	cmnvs	pc, pc, asr ip	; <UNPREDICTABLE>
 49c:	00726564 	rsbseq	r6, r2, r4, ror #10
 4a0:	74732f2e 	ldrbtvc	r2, [r3], #-3886	; 0xfffff0d2
 4a4:	2d666661 	stclcs	6, cr6, [r6, #-388]!	; 0xfffffe7c
 4a8:	2f637273 	svccs	0x00637273
 4ac:	61747363 	cmnvs	r4, r3, ror #6
 4b0:	632e7472 			; <UNDEFINED> instruction: 0x632e7472
 4b4:	732f2e00 			; <UNDEFINED> instruction: 0x732f2e00
 4b8:	66666174 			; <UNDEFINED> instruction: 0x66666174
 4bc:	6372732d 	cmnvs	r2, #-1275068416	; 0xb4000000
 4c0:	7375632f 	cmnvc	r5, #-1140850688	; 0xbc000000
 4c4:	2d6d6f74 	stclcs	15, cr6, [sp, #-464]!	; 0xfffffe30
 4c8:	64616f6c 	strbtvs	r6, [r1], #-3948	; 0xfffff094
 4cc:	632e7265 			; <UNDEFINED> instruction: 0x632e7265
 4d0:	62657200 	rsbvs	r7, r5, #0, 4
 4d4:	5f746f6f 	svcpl	0x00746f6f
 4d8:	6c6c6163 	stfvse	f6, [ip], #-396	; 0xfffffe74
 4dc:	0074756f 	rsbseq	r7, r4, pc, ror #10
 4e0:	575f4d50 			; <UNDEFINED> instruction: 0x575f4d50
 4e4:	00474f44 	subeq	r4, r7, r4, asr #30
 4e8:	33545550 	cmpcc	r4, #80, 10	; 0x14000000
 4ec:	65730032 	ldrbvs	r0, [r3, #-50]!	; 0xffffffce
 4f0:	73755f74 	cmnvc	r5, #116, 30	; 0x1d0
 4f4:	6c5f7265 	lfmvs	f7, 2, [pc], {101}	; 0x65
 4f8:	6c657665 	stclvs	6, cr7, [r5], #-404	; 0xfffffe6c
 4fc:	732f2e00 			; <UNDEFINED> instruction: 0x732f2e00
 500:	66666174 			; <UNDEFINED> instruction: 0x66666174
 504:	6372732d 	cmnvs	r2, #-1275068416	; 0xb4000000
 508:	6265722f 	rsbvs	r7, r5, #-268435454	; 0xf0000002
 50c:	2e746f6f 	cdpcs	15, 7, cr6, cr4, cr15, {3}
 510:	4d500063 	ldclmi	0, cr0, [r0, #-396]	; 0xfffffe74
 514:	5341505f 	movtpl	r5, #4191	; 0x105f
 518:	524f5753 	subpl	r5, pc, #21757952	; 0x14c0000
 51c:	74610044 	strbtvc	r0, [r1], #-68	; 0xffffffbc
 520:	6573755f 	ldrbvs	r7, [r3, #-1375]!	; 0xfffffaa1
 524:	656c5f72 	strbvs	r5, [ip, #-3954]!	; 0xfffff08e
 528:	006c6576 	rsbeq	r6, ip, r6, ror r5
 52c:	525f4d50 	subspl	r4, pc, #80, 26	; 0x1400
 530:	5f435453 	svcpl	0x00435453
 534:	46435257 			; <UNDEFINED> instruction: 0x46435257
 538:	55465f47 	strbpl	r5, [r6, #-3911]	; 0xfffff0b9
 53c:	525f4c4c 	subspl	r4, pc, #76, 24	; 0x4c00
 540:	54455345 	strbpl	r5, [r5], #-837	; 0xfffffcbb
 544:	5f4d5000 	svcpl	0x004d5000
 548:	43545352 	cmpmi	r4, #1207959553	; 0x48000001
 54c:	73706300 	cmnvc	r0, #0, 6
 550:	65640072 	strbvs	r0, [r4, #-114]!	; 0xffffff8e
 554:	61625f76 	smcvs	9718	; 0x25f6
 558:	65697272 	strbvs	r7, [r9, #-626]!	; 0xfffffd8e
 55c:	65640072 	strbvs	r0, [r4, #-114]!	; 0xffffff8e
 560:	5f79616c 	svcpl	0x0079616c
 564:	00636573 	rsbeq	r6, r3, r3, ror r5
 568:	74732f2e 	ldrbtvc	r2, [r3], #-3886	; 0xfffff0d2
 56c:	2d666661 	stclcs	6, cr6, [r6, #-388]!	; 0xfffffe7c
 570:	2f637273 	svccs	0x00637273
 574:	656d6974 	strbvs	r6, [sp, #-2420]!	; 0xfffff68c
 578:	00632e72 	rsbeq	r2, r3, r2, ror lr
 57c:	33544547 	cmpcc	r4, #297795584	; 0x11c00000
 580:	69740032 	ldmdbvs	r4!, {r1, r4, r5}^
 584:	5f72656d 	svcpl	0x0072656d
 588:	5f746567 	svcpl	0x00746567
 58c:	63657375 	cmnvs	r5, #-738197503	; 0xd4000001
 590:	6c656400 	cfstrdvs	mvd6, [r5], #-0
 594:	755f7961 	ldrbvc	r7, [pc, #-2401]	; fffffc3b <__bss_end__+0xffff5b13>
 598:	69740073 	ldmdbvs	r4!, {r0, r1, r4, r5, r6}^
 59c:	5f72656d 	svcpl	0x0072656d
 5a0:	5f746567 	svcpl	0x00746567
 5a4:	63657375 	cmnvs	r5, #-738197503	; 0xd4000001
 5a8:	7761725f 			; <UNDEFINED> instruction: 0x7761725f
 5ac:	74757000 	ldrbtvc	r7, [r5], #-0
 5b0:	62003233 	andvs	r3, r0, #805306371	; 0x30000003
 5b4:	5f647561 	svcpl	0x00647561
 5b8:	006c6176 	rsbeq	r6, ip, r6, ror r1
 5bc:	74617473 	strbtvc	r7, [r1], #-1139	; 0xfffffb8d
 5c0:	72617500 	rsbvc	r7, r1, #0, 10
 5c4:	61635f74 	smcvs	13812	; 0x35f4
 5c8:	65675f6e 	strbvs	r5, [r7, #-3950]!	; 0xfffff092
 5cc:	47006374 	smlsdxmi	r0, r4, r3, r6
 5d0:	5f4f4950 	svcpl	0x004f4950
 5d4:	434e5546 	movtmi	r5, #58694	; 0xe546
 5d8:	54554f5f 	ldrbpl	r4, [r5], #-3935	; 0xfffff0a1
 5dc:	00545550 	subseq	r5, r4, r0, asr r5
 5e0:	5f787561 	svcpl	0x00787561
 5e4:	69726570 	ldmdbvs	r2!, {r4, r5, r6, r8, sl, sp, lr}^
 5e8:	00736870 	rsbseq	r6, r3, r0, ror r8
 5ec:	74726175 	ldrbtvc	r6, [r2], #-373	; 0xfffffe8b
 5f0:	7500632e 	strvc	r6, [r0, #-814]	; 0xfffffcd2
 5f4:	5f747261 	svcpl	0x00747261
 5f8:	5f6e6163 	svcpl	0x006e6163
 5fc:	63747570 	cmnvs	r4, #112, 10	; 0x1c000000
 600:	72617500 	rsbvc	r7, r1, #0, 10
 604:	78745f74 	ldmdavc	r4!, {r2, r4, r5, r6, r8, r9, sl, fp, ip, lr}^
 608:	5f73695f 	svcpl	0x0073695f
 60c:	74706d65 	ldrbtvc	r6, [r0], #-3429	; 0xfffff29b
 610:	50470079 	subpl	r0, r7, r9, ror r0
 614:	465f4f49 	ldrbmi	r4, [pc], -r9, asr #30
 618:	5f434e55 	svcpl	0x00434e55
 61c:	30544c41 	subscc	r4, r4, r1, asr #24
 620:	49504700 	ldmdbmi	r0, {r8, r9, sl, lr}^
 624:	55465f4f 	strbpl	r5, [r6, #-3919]	; 0xfffff0b1
 628:	415f434e 	cmpmi	pc, lr, asr #6
 62c:	0031544c 	eorseq	r5, r1, ip, asr #8
 630:	4f495047 	svcmi	0x00495047
 634:	4e55465f 	mrcmi	6, 2, r4, cr5, cr15, {2}
 638:	4c415f43 	mcrrmi	15, 4, r5, r1, cr3
 63c:	47003254 	smlsdmi	r0, r4, r2, r3
 640:	5f4f4950 	svcpl	0x004f4950
 644:	434e5546 	movtmi	r5, #58694	; 0xe546
 648:	544c415f 	strbpl	r4, [ip], #-351	; 0xfffffea1
 64c:	50470033 	subpl	r0, r7, r3, lsr r0
 650:	465f4f49 	ldrbmi	r4, [pc], -r9, asr #30
 654:	5f434e55 	svcpl	0x00434e55
 658:	35544c41 	ldrbcc	r4, [r4, #-3137]	; 0xfffff3bf
 65c:	6f682f00 	svcvs	0x00682f00
 660:	652f656d 	strvs	r6, [pc, #-1389]!	; fb <__code_start__-0x7f05>
 664:	656c676e 	strbvs	r6, [ip, #-1902]!	; 0xfffff892
 668:	6c632f72 	stclvs	15, cr2, [r3], #-456	; 0xfffffe38
 66c:	2f737361 	svccs	0x00737361
 670:	34327363 	ldrtcc	r7, [r2], #-867	; 0xfffffc9d
 674:	2d786c30 	ldclcs	12, cr6, [r8, #-192]!	; 0xffffff40
 678:	70733232 	rsbsvc	r3, r3, r2, lsr r2
 67c:	696c2f72 	stmdbvs	ip!, {r1, r4, r5, r6, r8, r9, sl, fp, sp}^
 680:	2f697062 	svccs	0x00697062
 684:	66617473 			; <UNDEFINED> instruction: 0x66617473
 688:	72702d66 	rsbsvc	r2, r0, #6528	; 0x1980
 68c:	74617669 	strbtvc	r7, [r1], #-1641	; 0xfffff997
 690:	61620065 	cmnvs	r2, r5, rrx
 694:	61006475 	tstvs	r0, r5, ror r4
 698:	655f7875 	ldrbvs	r7, [pc, #-2165]	; fffffe2b <__bss_end__+0xffff5d03>
 69c:	6c62616e 	stfvse	f6, [r2], #-440	; 0xfffffe48
 6a0:	75007365 	strvc	r7, [r0, #-869]	; 0xfffffc9b
 6a4:	5f747261 	svcpl	0x00747261
 6a8:	63746567 	cmnvs	r4, #432013312	; 0x19c00000
 6ac:	554e4700 	strbpl	r4, [lr, #-1792]	; 0xfffff900
 6b0:	39394320 	ldmdbcc	r9!, {r5, r8, r9, lr}
 6b4:	2e303120 	rsfcssp	f3, f0, f0
 6b8:	20312e33 	eorscs	r2, r1, r3, lsr lr
 6bc:	31323032 	teqcc	r2, r2, lsr r0
 6c0:	34323830 	ldrtcc	r3, [r2], #-2096	; 0xfffff7d0
 6c4:	65722820 	ldrbvs	r2, [r2, #-2080]!	; 0xfffff7e0
 6c8:	7361656c 	cmnvc	r1, #108, 10	; 0x1b000000
 6cc:	2d202965 			; <UNDEFINED> instruction: 0x2d202965
 6d0:	7570636d 	ldrbvc	r6, [r0, #-877]!	; 0xfffffc93
 6d4:	6d72613d 	ldfvse	f6, [r2, #-244]!	; 0xffffff0c
 6d8:	36373131 			; <UNDEFINED> instruction: 0x36373131
 6dc:	2d667a6a 	vstmdbcs	r6!, {s15-s120}
 6e0:	6d2d2073 	stcvs	0, cr2, [sp, #-460]!	; 0xfffffe34
 6e4:	656e7574 	strbvs	r7, [lr, #-1396]!	; 0xfffffa8c
 6e8:	6d72613d 	ldfvse	f6, [r2, #-244]!	; 0xffffff0c
 6ec:	36373131 			; <UNDEFINED> instruction: 0x36373131
 6f0:	2d667a6a 	vstmdbcs	r6!, {s15-s120}
 6f4:	6d2d2073 	stcvs	0, cr2, [sp, #-460]!	; 0xfffffe34
 6f8:	616f6c66 	cmnvs	pc, r6, ror #24
 6fc:	62612d74 	rsbvs	r2, r1, #116, 26	; 0x1d00
 700:	6f733d69 	svcvs	0x00733d69
 704:	2d207466 	cfstrscs	mvf7, [r0, #-408]!	; 0xfffffe68
 708:	6d72616d 	ldfvse	f6, [r2, #-436]!	; 0xfffffe4c
 70c:	616d2d20 	cmnvs	sp, r0, lsr #26
 710:	3d686372 	stclcc	3, cr6, [r8, #-456]!	; 0xfffffe38
 714:	766d7261 	strbtvc	r7, [sp], -r1, ror #4
 718:	207a6b36 	rsbscs	r6, sl, r6, lsr fp
 71c:	6467672d 	strbtvs	r6, [r7], #-1837	; 0xfffff8d3
 720:	4f2d2062 	svcmi	0x002d2062
 724:	732d2067 			; <UNDEFINED> instruction: 0x732d2067
 728:	673d6474 			; <UNDEFINED> instruction: 0x673d6474
 72c:	3939756e 	ldmdbcc	r9!, {r1, r2, r3, r5, r6, r8, sl, ip, sp, lr}
 730:	66662d20 	strbtvs	r2, [r6], -r0, lsr #26
 734:	73656572 	cmnvc	r5, #478150656	; 0x1c800000
 738:	646e6174 	strbtvs	r6, [lr], #-372	; 0xfffffe8c
 73c:	00676e69 	rsbeq	r6, r7, r9, ror #28
 740:	6c746e63 	ldclvs	14, cr6, [r4], #-396	; 0xfffffe74
 744:	72617500 	rsbvc	r7, r1, #0, 10
 748:	69645f74 	stmdbvs	r4!, {r2, r4, r5, r6, r8, r9, sl, fp, ip, lr}^
 74c:	6c626173 	stfvse	f6, [r2], #-460	; 0xfffffe34
 750:	61750065 	cmnvs	r5, r5, rrx
 754:	685f7472 	ldmdavs	pc, {r1, r4, r5, r6, sl, ip, sp, lr}^	; <UNPREDICTABLE>
 758:	645f7361 	ldrbvs	r7, [pc], #-865	; 760 <__code_start__-0x78a0>
 75c:	00617461 	rsbeq	r7, r1, r1, ror #8
 760:	4f495047 	svcmi	0x00495047
 764:	4e55465f 	mrcmi	6, 2, r4, cr5, cr15, {2}
 768:	4c415f43 	mcrrmi	15, 4, r5, r1, cr3
 76c:	6f003454 	svcvs	0x00003454
 770:	6e695f72 	mcrvs	15, 3, r5, cr9, cr2, {3}
 774:	73003233 	movwvc	r3, #563	; 0x233
 778:	74617263 	strbtvc	r7, [r1], #-611	; 0xfffffd9d
 77c:	75006863 	strvc	r6, [r0, #-2147]	; 0xfffff79d
 780:	00747261 	rsbseq	r7, r4, r1, ror #4
 784:	5f646e61 	svcpl	0x00646e61
 788:	32336e69 	eorscc	r6, r3, #1680	; 0x690
 78c:	72617500 	rsbvc	r7, r1, #0, 10
 790:	75705f74 	ldrbvc	r5, [r0, #-3956]!	; 0xfffff08c
 794:	47006374 	smlsdxmi	r0, r4, r3, r6
 798:	5f4f4950 	svcpl	0x004f4950
 79c:	434e5546 	movtmi	r5, #58694	; 0xe546
 7a0:	504e495f 	subpl	r4, lr, pc, asr r9
 7a4:	67005455 	smlsdvs	r0, r5, r4, r5
 7a8:	5f6f6970 	svcpl	0x006f6970
 7ac:	5f746573 	svcpl	0x00746573
 7b0:	636e7566 	cmnvs	lr, #427819008	; 0x19800000
 7b4:	6e6f6974 			; <UNDEFINED> instruction: 0x6e6f6974
 7b8:	74656700 	strbtvc	r6, [r5], #-1792	; 0xfffff900
 7bc:	6b003233 	blvs	d090 <__bss_end__+0x2f68>
 7c0:	6c6c616d 	stfvse	f6, [ip], #-436	; 0xfffffe4c
 7c4:	685f636f 	ldmdavs	pc, {r0, r1, r2, r3, r5, r6, r8, r9, sp, lr}^	; <UNPREDICTABLE>
 7c8:	5f706165 	svcpl	0x00706165
 7cc:	72617473 	rsbvc	r7, r1, #1929379840	; 0x73000000
 7d0:	616d0074 	smcvs	53252	; 0xd004
 7d4:	626e5f78 	rsbvs	r5, lr, #120, 30	; 0x1e0
 7d8:	73657479 	cmnvc	r5, #2030043136	; 0x79000000
 7dc:	64615f00 	strbtvs	r5, [r1], #-3840	; 0xfffff100
 7e0:	6b007264 	blvs	1d178 <__bss_end__+0x13050>
 7e4:	65657266 	strbvs	r7, [r5, #-614]!	; 0xfffffd9a
 7e8:	61656800 	cmnvs	r5, r0, lsl #16
 7ec:	616d5f70 	smcvs	54768	; 0xd5f0
 7f0:	666b0078 			; <UNDEFINED> instruction: 0x666b0078
 7f4:	5f656572 	svcpl	0x00656572
 7f8:	006c6c61 	rsbeq	r6, ip, r1, ror #24
 7fc:	6e756f72 	mrcvs	15, 3, r6, cr5, cr2, {3}
 800:	00707564 	rsbseq	r7, r0, r4, ror #10
 804:	70616568 	rsbvc	r6, r1, r8, ror #10
 808:	696e6900 	stmdbvs	lr!, {r8, fp, sp, lr}^
 80c:	00705f74 	rsbseq	r5, r0, r4, ror pc
 810:	6572666b 	ldrbvs	r6, [r2, #-1643]!	; 0xfffff995
 814:	6f705f65 	svcvs	0x00705f65
 818:	656d0070 	strbvs	r0, [sp, #-112]!	; 0xffffff90
 81c:	7465736d 	strbtvc	r7, [r5], #-877	; 0xfffffc93
 820:	696c6100 	stmdbvs	ip!, {r8, sp, lr}^
 824:	656d6e67 	strbvs	r6, [sp, #-3687]!	; 0xfffff199
 828:	6d00746e 	cfstrsvs	mvf7, [r0, #-440]	; 0xfffffe48
 82c:	755f7861 	ldrbvc	r7, [pc, #-2145]	; ffffffd3 <__bss_end__+0xffff5eab>
 830:	4f003233 	svcmi	0x00003233
 834:	424d656e 	submi	r6, sp, #461373440	; 0x1b800000
 838:	616d6b00 	cmnvs	sp, r0, lsl #22
 83c:	636f6c6c 	cmnvs	pc, #108, 24	; 0x6c00
 840:	6165685f 	cmnvs	r5, pc, asr r8
 844:	6e655f70 	mcrvs	15, 3, r5, cr5, cr0, {3}
 848:	6d6b0064 	stclvs	0, cr0, [fp, #-400]!	; 0xfffffe70
 84c:	6f6c6c61 	svcvs	0x006c6c61
 850:	6f6e5f63 	svcvs	0x006e5f63
 854:	72657a74 	rsbvc	r7, r5, #116, 20	; 0x74000
 858:	7369006f 	cmnvc	r9, #111, 0	; 0x6f
 85c:	776f705f 			; <UNDEFINED> instruction: 0x776f705f
 860:	6d6b0032 	stclvs	0, cr0, [fp, #-200]!	; 0xffffff38
 864:	6f6c6c61 	svcvs	0x006c6c61
 868:	00632e63 	rsbeq	r2, r3, r3, ror #28
 86c:	6c616d6b 	stclvs	13, cr6, [r1], #-428	; 0xfffffe54
 870:	5f636f6c 	svcpl	0x00636f6c
 874:	74696e69 	strbtvc	r6, [r9], #-3689	; 0xfffff197
 878:	5f736900 	svcpl	0x00736900
 87c:	67696c61 	strbvs	r6, [r9, -r1, ror #24]!
 880:	0064656e 	rsbeq	r6, r4, lr, ror #10
 884:	6c616d6b 	stclvs	13, cr6, [r1], #-428	; 0xfffffe54
 888:	5f636f6c 	svcpl	0x00636f6c
 88c:	70616568 	rsbvc	r6, r1, r8, ror #10
 890:	7274705f 	rsbsvc	r7, r4, #95, 0	; 0x5f
 894:	616d6b00 	cmnvs	sp, r0, lsl #22
 898:	636f6c6c 	cmnvs	pc, #108, 24	; 0x6c00
 89c:	696e695f 	stmdbvs	lr!, {r0, r1, r2, r3, r4, r6, r8, fp, sp, lr}^
 8a0:	65735f74 	ldrbvs	r5, [r3, #-3956]!	; 0xfffff08c
 8a4:	74735f74 	ldrbtvc	r5, [r3], #-3956	; 0xfffff08c
 8a8:	00747261 	rsbseq	r7, r4, r1, ror #4
 8ac:	5f697072 	svcpl	0x00697072
 8b0:	65736572 	ldrbvs	r6, [r3, #-1394]!	; 0xfffffa8e
 8b4:	75705f74 	ldrbvc	r5, [r0, #-3956]!	; 0xfffff08c
 8b8:	6b006374 	blvs	19690 <__bss_end__+0xf568>
 8bc:	6c6c616d 	stfvse	f6, [ip], #-436	; 0xfffffe4c
 8c0:	615f636f 	cmpvs	pc, pc, ror #6
 8c4:	6e67696c 	vnmulvs.f16	s13, s14, s25	; <UNPREDICTABLE>
 8c8:	67006465 	strvs	r6, [r0, -r5, ror #8]
 8cc:	5f6f6970 	svcpl	0x006f6970
 8d0:	30726c63 	rsbscc	r6, r2, r3, ror #24
 8d4:	69706700 	ldmdbvs	r0!, {r8, r9, sl, sp, lr}^
 8d8:	65735f6f 	ldrbvs	r5, [r3, #-3951]!	; 0xfffff091
 8dc:	67003074 	smlsdxvs	r0, r4, r0, r3
 8e0:	5f6f6970 	svcpl	0x006f6970
 8e4:	74697277 	strbtvc	r7, [r9], #-631	; 0xfffffd89
 8e8:	45440065 	strbmi	r0, [r4, #-101]	; 0xffffff9b
 8ec:	41565f56 	cmpmi	r6, r6, asr pc
 8f0:	0032334c 	eorseq	r3, r2, ip, asr #6
 8f4:	6f697067 	svcvs	0x00697067
 8f8:	6165725f 	cmnvs	r5, pc, asr r2
 8fc:	2f2e0064 	svccs	0x002e0064
 900:	2f637273 	svccs	0x00637273
 904:	6f697067 	svcvs	0x00697067
 908:	6700632e 	strvs	r6, [r0, -lr, lsr #6]
 90c:	5f6f6970 	svcpl	0x006f6970
 910:	5f746573 	svcpl	0x00746573
 914:	75706e69 	ldrbvc	r6, [r0, #-3689]!	; 0xfffff197
 918:	70670074 	rsbvc	r0, r7, r4, ror r0
 91c:	735f6f69 	cmpvc	pc, #420	; 0x1a4
 920:	6f5f7465 	svcvs	0x005f7465
 924:	67006666 	strvs	r6, [r0, -r6, ror #12]
 928:	5f6f6970 	svcpl	0x006f6970
 92c:	5f746573 	svcpl	0x00746573
 930:	7074756f 	rsbsvc	r7, r4, pc, ror #10
 934:	66007475 			; <UNDEFINED> instruction: 0x66007475
 938:	00636e75 	rsbeq	r6, r3, r5, ror lr
 93c:	6f697067 	svcvs	0x00697067
 940:	6e75665f 	mrcvs	6, 3, r6, cr5, cr15, {2}
 944:	00745f63 	rsbseq	r5, r4, r3, ror #30
 948:	6f697067 	svcvs	0x00697067
 94c:	76656c5f 			; <UNDEFINED> instruction: 0x76656c5f
 950:	61620030 	cmnvs	r2, r0, lsr r0
 954:	67006b6e 	strvs	r6, [r0, -lr, ror #22]
 958:	5f6f6970 	svcpl	0x006f6970
 95c:	5f746573 	svcpl	0x00746573
 960:	73006e6f 	movwvc	r6, #3695	; 0xe6f
 964:	5f657a69 	svcpl	0x00657a69
 968:	2f2e0074 	svccs	0x002e0074
 96c:	6362696c 	cmnvs	r2, #108, 18	; 0x1b0000
 970:	6d656d2f 	stclvs	13, cr6, [r5, #-188]!	; 0xffffff44
 974:	2e746573 	mrccs	5, 3, r6, cr4, cr3, {3}
 978:	6e690063 	cdpvs	0, 6, cr0, cr9, cr3, {3}
 97c:	6e726574 	mrcvs	5, 3, r6, cr2, cr4, {3}
 980:	705f6c61 	subsvc	r6, pc, r1, ror #24
 984:	68637475 	stmdavs	r3!, {r0, r2, r4, r5, r6, sl, ip, sp, lr}^
 988:	72007261 	andvc	r7, r0, #268435462	; 0x10000006
 98c:	735f6970 	cmpvc	pc, #112, 18	; 0x1c0000
 990:	705f7465 	subsvc	r7, pc, r5, ror #8
 994:	00637475 	rsbeq	r7, r3, r5, ror r4
 998:	696c2f2e 	stmdbvs	ip!, {r1, r2, r3, r5, r8, r9, sl, fp, sp}^
 99c:	702f6362 	eorvc	r6, pc, r2, ror #6
 9a0:	68637475 	stmdavs	r3!, {r0, r2, r4, r5, r6, sl, ip, sp, lr}^
 9a4:	632e7261 			; <UNDEFINED> instruction: 0x632e7261
 9a8:	6c2f2e00 	stcvs	14, cr2, [pc], #-0	; 9b0 <__code_start__-0x7650>
 9ac:	2f636269 	svccs	0x00636269
 9b0:	63727473 	cmnvs	r2, #1929379840	; 0x73000000
 9b4:	632e7461 			; <UNDEFINED> instruction: 0x632e7461
 9b8:	73656400 	cmnvc	r5, #0, 8
 9bc:	2f2e0074 	svccs	0x002e0074
 9c0:	6362696c 	cmnvs	r2, #108, 18	; 0x1b0000
 9c4:	7274732f 	rsbsvc	r7, r4, #-1140850688	; 0xbc000000
 9c8:	2e706d63 	cdpcs	13, 7, cr6, cr0, cr3, {3}
 9cc:	2f2e0063 	svccs	0x002e0063
 9d0:	6362696c 	cmnvs	r2, #108, 18	; 0x1b0000
 9d4:	7274732f 	rsbsvc	r7, r4, #-1140850688	; 0xbc000000
 9d8:	2e797063 	cdpcs	0, 7, cr7, cr9, cr3, {3}
 9dc:	2f2e0063 	svccs	0x002e0063
 9e0:	6362696c 	cmnvs	r2, #108, 18	; 0x1b0000
 9e4:	7274732f 	rsbsvc	r7, r4, #-1140850688	; 0xbc000000
 9e8:	706d636e 	rsbvc	r6, sp, lr, ror #6
 9ec:	2e00632e 	cdpcs	3, 0, cr6, cr0, cr14, {1}
 9f0:	6174732f 	cmnvs	r4, pc, lsr #6
 9f4:	732d6666 			; <UNDEFINED> instruction: 0x732d6666
 9f8:	642f6372 	strtvs	r6, [pc], #-882	; a00 <__code_start__-0x7600>
 9fc:	75616665 	strbvc	r6, [r1, #-1637]!	; 0xfffff99b
 a00:	722d746c 	eorvc	r7, sp, #108, 8	; 0x6c000000
 a04:	6f6f6265 	svcvs	0x006f6265
 a08:	61632d74 	smcvs	13012	; 0x32d4
 a0c:	756f6c6c 	strbvc	r6, [pc, #-3180]!	; fffffda8 <__bss_end__+0xffff5c80>
 a10:	00632e74 	rsbeq	r2, r3, r4, ror lr

Disassembly of section .debug_frame:

00000000 <.debug_frame>:
   0:	0000000c 	andeq	r0, r0, ip
   4:	ffffffff 			; <UNDEFINED> instruction: 0xffffffff
   8:	7c020001 	stcvc	0, cr0, [r2], {1}
   c:	000d0c0e 	andeq	r0, sp, lr, lsl #24
  10:	00000020 	andeq	r0, r0, r0, lsr #32
  14:	00000000 	andeq	r0, r0, r0
  18:	00008038 	andeq	r8, r0, r8, lsr r0
  1c:	000000fc 	strdeq	r0, [r0], -ip
  20:	84100e42 	ldrhi	r0, [r0], #-3650	; 0xfffff1be
  24:	86038504 	strhi	r8, [r3], -r4, lsl #10
  28:	42018e02 	andmi	r8, r1, #2, 28
  2c:	6602200e 	strvs	r2, [r2], -lr
  30:	0000100e 	andeq	r1, r0, lr
  34:	0000000c 	andeq	r0, r0, ip
  38:	ffffffff 			; <UNDEFINED> instruction: 0xffffffff
  3c:	7c020001 	stcvc	0, cr0, [r2], {1}
  40:	000d0c0e 	andeq	r0, sp, lr, lsl #24
  44:	00000014 	andeq	r0, r0, r4, lsl r0
  48:	00000034 	andeq	r0, r0, r4, lsr r0
  4c:	00008134 	andeq	r8, r0, r4, lsr r1
  50:	000000bc 	strheq	r0, [r0], -ip
  54:	8e040e42 	cdphi	14, 0, cr0, cr4, cr2, {2}
  58:	00000001 	andeq	r0, r0, r1
  5c:	00000014 	andeq	r0, r0, r4, lsl r0
  60:	00000034 	andeq	r0, r0, r4, lsr r0
  64:	000081f0 	strdeq	r8, [r0], -r0
  68:	00000044 	andeq	r0, r0, r4, asr #32
  6c:	84080e42 	strhi	r0, [r8], #-3650	; 0xfffff1be
  70:	00018e02 	andeq	r8, r1, r2, lsl #28
  74:	00000014 	andeq	r0, r0, r4, lsl r0
  78:	00000034 	andeq	r0, r0, r4, lsr r0
  7c:	00008234 	andeq	r8, r0, r4, lsr r2
  80:	000000ac 	andeq	r0, r0, ip, lsr #1
  84:	84080e42 	strhi	r0, [r8], #-3650	; 0xfffff1be
  88:	00018e02 	andeq	r8, r1, r2, lsl #28
  8c:	0000000c 	andeq	r0, r0, ip
  90:	ffffffff 			; <UNDEFINED> instruction: 0xffffffff
  94:	7c020001 	stcvc	0, cr0, [r2], {1}
  98:	000d0c0e 	andeq	r0, sp, lr, lsl #24
  9c:	00000014 	andeq	r0, r0, r4, lsl r0
  a0:	0000008c 	andeq	r0, r0, ip, lsl #1
  a4:	000082e0 	andeq	r8, r0, r0, ror #5
  a8:	0000000c 	andeq	r0, r0, ip
  ac:	84080e42 	strhi	r0, [r8], #-3650	; 0xfffff1be
  b0:	00018e02 	andeq	r8, r1, r2, lsl #28
  b4:	0000000c 	andeq	r0, r0, ip
  b8:	ffffffff 			; <UNDEFINED> instruction: 0xffffffff
  bc:	7c020001 	stcvc	0, cr0, [r2], {1}
  c0:	000d0c0e 	andeq	r0, sp, lr, lsl #24
  c4:	00000034 	andeq	r0, r0, r4, lsr r0
  c8:	000000b4 	strheq	r0, [r0], -r4
  cc:	000082ec 	andeq	r8, r0, ip, ror #5
  d0:	00000058 	andeq	r0, r0, r8, asr r0
  d4:	80100e42 	andshi	r0, r0, r2, asr #28
  d8:	82038104 	andhi	r8, r3, #1
  dc:	42018302 	andmi	r8, r1, #134217728	; 0x8000000
  e0:	07841c0e 	streq	r1, [r4, lr, lsl #24]
  e4:	058e0685 	streq	r0, [lr, #1669]	; 0x685
  e8:	5a280e44 	bpl	a03a00 <__bss_end__+0x9f98d8>
  ec:	ce421c0e 	cdpgt	12, 4, cr1, cr2, cr14, {0}
  f0:	100ec4c5 	andne	ip, lr, r5, asr #9
  f4:	c1c2c342 	bicgt	ip, r2, r2, asr #6
  f8:	00000ec0 	andeq	r0, r0, r0, asr #29
  fc:	0000000c 	andeq	r0, r0, ip
 100:	ffffffff 			; <UNDEFINED> instruction: 0xffffffff
 104:	7c020001 	stcvc	0, cr0, [r2], {1}
 108:	000d0c0e 	andeq	r0, sp, lr, lsl #24
 10c:	00000018 	andeq	r0, r0, r8, lsl r0
 110:	000000fc 	strdeq	r0, [r0], -ip
 114:	00008344 	andeq	r8, r0, r4, asr #6
 118:	00000038 	andeq	r0, r0, r8, lsr r0
 11c:	84100e42 	ldrhi	r0, [r0], #-3650	; 0xfffff1be
 120:	86038504 	strhi	r8, [r3], -r4, lsl #10
 124:	00018e02 	andeq	r8, r1, r2, lsl #28
 128:	0000000c 	andeq	r0, r0, ip
 12c:	ffffffff 			; <UNDEFINED> instruction: 0xffffffff
 130:	7c020001 	stcvc	0, cr0, [r2], {1}
 134:	000d0c0e 	andeq	r0, sp, lr, lsl #24
 138:	0000002c 	andeq	r0, r0, ip, lsr #32
 13c:	00000128 	andeq	r0, r0, r8, lsr #2
 140:	0000837c 	andeq	r8, r0, ip, ror r3
 144:	00000328 	andeq	r0, r0, r8, lsr #6
 148:	84180e42 	ldrhi	r0, [r8], #-3650	; 0xfffff1be
 14c:	86058506 	strhi	r8, [r5], -r6, lsl #10
 150:	88038704 	stmdahi	r3, {r2, r8, r9, sl, pc}
 154:	46018e02 	strmi	r8, [r1], -r2, lsl #28
 158:	c002600e 	andgt	r6, r2, lr
 15c:	42180e0a 	andsmi	r0, r8, #160	; 0xa0
 160:	0a8e020b 	beq	fe380994 <__bss_end__+0xfe37686c>
 164:	0b42180e 	bleq	10861a4 <__bss_end__+0x107c07c>
 168:	00000014 	andeq	r0, r0, r4, lsl r0
 16c:	00000128 	andeq	r0, r0, r8, lsr #2
 170:	000086a4 	andeq	r8, r0, r4, lsr #13
 174:	00000060 	andeq	r0, r0, r0, rrx
 178:	8e040e52 	mcrhi	14, 0, r0, cr4, cr2, {2}
 17c:	100e4401 	andne	r4, lr, r1, lsl #8
 180:	0000002c 	andeq	r0, r0, ip, lsr #32
 184:	00000128 	andeq	r0, r0, r8, lsr #2
 188:	00008704 	andeq	r8, r0, r4, lsl #14
 18c:	0000062c 	andeq	r0, r0, ip, lsr #12
 190:	84240e42 	strthi	r0, [r4], #-3650	; 0xfffff1be
 194:	86088509 	strhi	r8, [r8], -r9, lsl #10
 198:	88068707 	stmdahi	r6, {r0, r1, r2, r8, r9, sl, pc}
 19c:	8a048905 	bhi	1225b8 <__bss_end__+0x118490>
 1a0:	8e028b03 	vmlahi.f64	d8, d2, d3
 1a4:	c00e5201 	andgt	r5, lr, r1, lsl #4
 1a8:	0a860202 	beq	fe1809b8 <__bss_end__+0xfe176890>
 1ac:	0b42240e 	bleq	10891ec <__bss_end__+0x107f0c4>
 1b0:	0000000c 	andeq	r0, r0, ip
 1b4:	ffffffff 			; <UNDEFINED> instruction: 0xffffffff
 1b8:	7c020001 	stcvc	0, cr0, [r2], {1}
 1bc:	000d0c0e 	andeq	r0, sp, lr, lsl #24
 1c0:	00000014 	andeq	r0, r0, r4, lsl r0
 1c4:	000001b0 			; <UNDEFINED> instruction: 0x000001b0
 1c8:	00008d30 	andeq	r8, r0, r0, lsr sp
 1cc:	0000002c 	andeq	r0, r0, ip, lsr #32
 1d0:	84080e44 	strhi	r0, [r8], #-3652	; 0xfffff1bc
 1d4:	00018e02 	andeq	r8, r1, r2, lsl #28
 1d8:	0000000c 	andeq	r0, r0, ip
 1dc:	ffffffff 			; <UNDEFINED> instruction: 0xffffffff
 1e0:	7c020001 	stcvc	0, cr0, [r2], {1}
 1e4:	000d0c0e 	andeq	r0, sp, lr, lsl #24
 1e8:	00000018 	andeq	r0, r0, r8, lsl r0
 1ec:	000001d8 	ldrdeq	r0, [r0], -r8
 1f0:	00008d5c 	andeq	r8, r0, ip, asr sp
 1f4:	000000f8 	strdeq	r0, [r0], -r8
 1f8:	84100e42 	ldrhi	r0, [r0], #-3650	; 0xfffff1be
 1fc:	86038504 	strhi	r8, [r3], -r4, lsl #10
 200:	00018e02 	andeq	r8, r1, r2, lsl #28
 204:	0000000c 	andeq	r0, r0, ip
 208:	ffffffff 			; <UNDEFINED> instruction: 0xffffffff
 20c:	7c020001 	stcvc	0, cr0, [r2], {1}
 210:	000d0c0e 	andeq	r0, sp, lr, lsl #24
 214:	0000000c 	andeq	r0, r0, ip
 218:	00000204 	andeq	r0, r0, r4, lsl #4
 21c:	00008e54 	andeq	r8, r0, r4, asr lr
 220:	00000004 	andeq	r0, r0, r4
 224:	0000000c 	andeq	r0, r0, ip
 228:	ffffffff 			; <UNDEFINED> instruction: 0xffffffff
 22c:	7c020001 	stcvc	0, cr0, [r2], {1}
 230:	000d0c0e 	andeq	r0, sp, lr, lsl #24
 234:	0000000c 	andeq	r0, r0, ip
 238:	00000224 	andeq	r0, r0, r4, lsr #4
 23c:	00008e58 	andeq	r8, r0, r8, asr lr
 240:	00000018 	andeq	r0, r0, r8, lsl r0
 244:	0000000c 	andeq	r0, r0, ip
 248:	00000224 	andeq	r0, r0, r4, lsr #4
 24c:	00008e70 	andeq	r8, r0, r0, ror lr
 250:	00000014 	andeq	r0, r0, r4, lsl r0
 254:	00000014 	andeq	r0, r0, r4, lsl r0
 258:	00000224 	andeq	r0, r0, r4, lsr #4
 25c:	00008e84 	andeq	r8, r0, r4, lsl #29
 260:	00000060 	andeq	r0, r0, r0, rrx
 264:	84080e42 	strhi	r0, [r8], #-3650	; 0xfffff1be
 268:	00018e02 	andeq	r8, r1, r2, lsl #28
 26c:	0000000c 	andeq	r0, r0, ip
 270:	ffffffff 			; <UNDEFINED> instruction: 0xffffffff
 274:	7c020001 	stcvc	0, cr0, [r2], {1}
 278:	000d0c0e 	andeq	r0, sp, lr, lsl #24
 27c:	0000000c 	andeq	r0, r0, ip
 280:	0000026c 	andeq	r0, r0, ip, ror #4
 284:	00008ee4 	andeq	r8, r0, r4, ror #29
 288:	0000000c 	andeq	r0, r0, ip
 28c:	00000014 	andeq	r0, r0, r4, lsl r0
 290:	0000026c 	andeq	r0, r0, ip, ror #4
 294:	00008ef0 	strdeq	r8, [r0], -r0
 298:	00000024 	andeq	r0, r0, r4, lsr #32
 29c:	84080e42 	strhi	r0, [r8], #-3650	; 0xfffff1be
 2a0:	00018e02 	andeq	r8, r1, r2, lsl #28
 2a4:	0000001c 	andeq	r0, r0, ip, lsl r0
 2a8:	0000026c 	andeq	r0, r0, ip, ror #4
 2ac:	00008f14 	andeq	r8, r0, r4, lsl pc
 2b0:	00000048 	andeq	r0, r0, r8, asr #32
 2b4:	84180e42 	ldrhi	r0, [r8], #-3650	; 0xfffff1be
 2b8:	86058506 	strhi	r8, [r5], -r6, lsl #10
 2bc:	88038704 	stmdahi	r3, {r2, r8, r9, sl, pc}
 2c0:	00018e02 	andeq	r8, r1, r2, lsl #28
 2c4:	0000001c 	andeq	r0, r0, ip, lsl r0
 2c8:	0000026c 	andeq	r0, r0, ip, ror #4
 2cc:	00008f5c 	andeq	r8, r0, ip, asr pc
 2d0:	00000050 	andeq	r0, r0, r0, asr r0
 2d4:	84180e42 	ldrhi	r0, [r8], #-3650	; 0xfffff1be
 2d8:	86058506 	strhi	r8, [r5], -r6, lsl #10
 2dc:	88038704 	stmdahi	r3, {r2, r8, r9, sl, pc}
 2e0:	00018e02 	andeq	r8, r1, r2, lsl #28
 2e4:	0000001c 	andeq	r0, r0, ip, lsl r0
 2e8:	0000026c 	andeq	r0, r0, ip, ror #4
 2ec:	00008fac 	andeq	r8, r0, ip, lsr #31
 2f0:	00000054 	andeq	r0, r0, r4, asr r0
 2f4:	84180e42 	ldrhi	r0, [r8], #-3650	; 0xfffff1be
 2f8:	86058506 	strhi	r8, [r5], -r6, lsl #10
 2fc:	88038704 	stmdahi	r3, {r2, r8, r9, sl, pc}
 300:	00018e02 	andeq	r8, r1, r2, lsl #28
 304:	0000000c 	andeq	r0, r0, ip
 308:	ffffffff 			; <UNDEFINED> instruction: 0xffffffff
 30c:	7c020001 	stcvc	0, cr0, [r2], {1}
 310:	000d0c0e 	andeq	r0, sp, lr, lsl #24
 314:	00000018 	andeq	r0, r0, r8, lsl r0
 318:	00000304 	andeq	r0, r0, r4, lsl #6
 31c:	00009000 	andeq	r9, r0, r0
 320:	00000020 	andeq	r0, r0, r0, lsr #32
 324:	84100e42 	ldrhi	r0, [r0], #-3650	; 0xfffff1be
 328:	86038504 	strhi	r8, [r3], -r4, lsl #10
 32c:	00018e02 	andeq	r8, r1, r2, lsl #28
 330:	00000018 	andeq	r0, r0, r8, lsl r0
 334:	00000304 	andeq	r0, r0, r4, lsl #6
 338:	00009020 	andeq	r9, r0, r0, lsr #32
 33c:	00000020 	andeq	r0, r0, r0, lsr #32
 340:	84100e42 	ldrhi	r0, [r0], #-3650	; 0xfffff1be
 344:	86038504 	strhi	r8, [r3], -r4, lsl #10
 348:	00018e02 	andeq	r8, r1, r2, lsl #28
 34c:	00000014 	andeq	r0, r0, r4, lsl r0
 350:	00000304 	andeq	r0, r0, r4, lsl #6
 354:	00009040 	andeq	r9, r0, r0, asr #32
 358:	000000b0 	strheq	r0, [r0], -r0	; <UNPREDICTABLE>
 35c:	84080e42 	strhi	r0, [r8], #-3650	; 0xfffff1be
 360:	00018e02 	andeq	r8, r1, r2, lsl #28
 364:	00000014 	andeq	r0, r0, r4, lsl r0
 368:	00000304 	andeq	r0, r0, r4, lsl #6
 36c:	000090f0 	strdeq	r9, [r0], -r0
 370:	00000018 	andeq	r0, r0, r8, lsl r0
 374:	84080e42 	strhi	r0, [r8], #-3650	; 0xfffff1be
 378:	00018e02 	andeq	r8, r1, r2, lsl #28
 37c:	00000014 	andeq	r0, r0, r4, lsl r0
 380:	00000304 	andeq	r0, r0, r4, lsl #6
 384:	00009108 	andeq	r9, r0, r8, lsl #2
 388:	00000020 	andeq	r0, r0, r0, lsr #32
 38c:	84080e42 	strhi	r0, [r8], #-3650	; 0xfffff1be
 390:	00018e02 	andeq	r8, r1, r2, lsl #28
 394:	00000014 	andeq	r0, r0, r4, lsl r0
 398:	00000304 	andeq	r0, r0, r4, lsl #6
 39c:	00009128 	andeq	r9, r0, r8, lsr #2
 3a0:	00000030 	andeq	r0, r0, r0, lsr r0
 3a4:	84080e42 	strhi	r0, [r8], #-3650	; 0xfffff1be
 3a8:	00018e02 	andeq	r8, r1, r2, lsl #28
 3ac:	00000014 	andeq	r0, r0, r4, lsl r0
 3b0:	00000304 	andeq	r0, r0, r4, lsl #6
 3b4:	00009158 	andeq	r9, r0, r8, asr r1
 3b8:	00000030 	andeq	r0, r0, r0, lsr r0
 3bc:	84080e42 	strhi	r0, [r8], #-3650	; 0xfffff1be
 3c0:	00018e02 	andeq	r8, r1, r2, lsl #28
 3c4:	00000014 	andeq	r0, r0, r4, lsl r0
 3c8:	00000304 	andeq	r0, r0, r4, lsl #6
 3cc:	00009188 	andeq	r9, r0, r8, lsl #3
 3d0:	00000010 	andeq	r0, r0, r0, lsl r0
 3d4:	84080e42 	strhi	r0, [r8], #-3650	; 0xfffff1be
 3d8:	00018e02 	andeq	r8, r1, r2, lsl #28
 3dc:	00000014 	andeq	r0, r0, r4, lsl r0
 3e0:	00000304 	andeq	r0, r0, r4, lsl #6
 3e4:	00009198 	muleq	r0, r8, r1
 3e8:	00000020 	andeq	r0, r0, r0, lsr #32
 3ec:	84080e42 	strhi	r0, [r8], #-3650	; 0xfffff1be
 3f0:	00018e02 	andeq	r8, r1, r2, lsl #28
 3f4:	00000014 	andeq	r0, r0, r4, lsl r0
 3f8:	00000304 	andeq	r0, r0, r4, lsl #6
 3fc:	000091b8 			; <UNDEFINED> instruction: 0x000091b8
 400:	00000014 	andeq	r0, r0, r4, lsl r0
 404:	84080e42 	strhi	r0, [r8], #-3650	; 0xfffff1be
 408:	00018e02 	andeq	r8, r1, r2, lsl #28
 40c:	00000014 	andeq	r0, r0, r4, lsl r0
 410:	00000304 	andeq	r0, r0, r4, lsl #6
 414:	000091cc 	andeq	r9, r0, ip, asr #3
 418:	00000024 	andeq	r0, r0, r4, lsr #32
 41c:	84080e42 	strhi	r0, [r8], #-3650	; 0xfffff1be
 420:	00018e02 	andeq	r8, r1, r2, lsl #28
 424:	0000000c 	andeq	r0, r0, ip
 428:	ffffffff 			; <UNDEFINED> instruction: 0xffffffff
 42c:	7c020001 	stcvc	0, cr0, [r2], {1}
 430:	000d0c0e 	andeq	r0, sp, lr, lsl #24
 434:	0000000c 	andeq	r0, r0, ip
 438:	00000424 	andeq	r0, r0, r4, lsr #8
 43c:	000091f0 	strdeq	r9, [r0], -r0
 440:	00000010 	andeq	r0, r0, r0, lsl r0
 444:	0000000c 	andeq	r0, r0, ip
 448:	00000424 	andeq	r0, r0, r4, lsr #8
 44c:	00009200 	andeq	r9, r0, r0, lsl #4
 450:	00000010 	andeq	r0, r0, r0, lsl r0
 454:	0000000c 	andeq	r0, r0, ip
 458:	00000424 	andeq	r0, r0, r4, lsr #8
 45c:	00009210 	andeq	r9, r0, r0, lsl r2
 460:	00000010 	andeq	r0, r0, r0, lsl r0
 464:	0000001c 	andeq	r0, r0, ip, lsl r0
 468:	00000424 	andeq	r0, r0, r4, lsr #8
 46c:	00009220 	andeq	r9, r0, r0, lsr #4
 470:	0000009c 	muleq	r0, ip, r0
 474:	8e040e42 	cdphi	14, 0, cr0, cr4, cr2, {2}
 478:	100e4201 	andne	r4, lr, r1, lsl #4
 47c:	040e0a58 	streq	r0, [lr], #-2648	; 0xfffff5a8
 480:	00000b42 	andeq	r0, r0, r2, asr #22
 484:	00000014 	andeq	r0, r0, r4, lsl r0
 488:	00000424 	andeq	r0, r0, r4, lsr #8
 48c:	000092bc 			; <UNDEFINED> instruction: 0x000092bc
 490:	00000058 	andeq	r0, r0, r8, asr r0
 494:	84080e42 	strhi	r0, [r8], #-3650	; 0xfffff1be
 498:	00018e02 	andeq	r8, r1, r2, lsl #28
 49c:	0000001c 	andeq	r0, r0, ip, lsl r0
 4a0:	00000424 	andeq	r0, r0, r4, lsr #8
 4a4:	00009314 	andeq	r9, r0, r4, lsl r3
 4a8:	00000098 	muleq	r0, r8, r0
 4ac:	8e040e42 	cdphi	14, 0, cr0, cr4, cr2, {2}
 4b0:	100e4201 	andne	r4, lr, r1, lsl #4
 4b4:	040e0a58 	streq	r0, [lr], #-2648	; 0xfffff5a8
 4b8:	00000b42 	andeq	r0, r0, r2, asr #22
 4bc:	00000020 	andeq	r0, r0, r0, lsr #32
 4c0:	00000424 	andeq	r0, r0, r4, lsr #8
 4c4:	000093ac 	andeq	r9, r0, ip, lsr #7
 4c8:	00000064 	andeq	r0, r0, r4, rrx
 4cc:	840c0e42 	strhi	r0, [ip], #-3650	; 0xfffff1be
 4d0:	8e028503 	cfsh32hi	mvfx8, mvfx2, #3
 4d4:	180e4201 	stmdane	lr, {r0, r9, lr}
 4d8:	0c0e0a54 			; <UNDEFINED> instruction: 0x0c0e0a54
 4dc:	00000b42 	andeq	r0, r0, r2, asr #22
 4e0:	0000001c 	andeq	r0, r0, ip, lsl r0
 4e4:	00000424 	andeq	r0, r0, r4, lsr #8
 4e8:	00009410 	andeq	r9, r0, r0, lsl r4
 4ec:	00000118 	andeq	r0, r0, r8, lsl r1
 4f0:	8e040e42 	cdphi	14, 0, cr0, cr4, cr2, {2}
 4f4:	100e4201 	andne	r4, lr, r1, lsl #4
 4f8:	040e0a6c 	streq	r0, [lr], #-2668	; 0xfffff594
 4fc:	00000b42 	andeq	r0, r0, r2, asr #22
 500:	0000000c 	andeq	r0, r0, ip
 504:	00000424 	andeq	r0, r0, r4, lsr #8
 508:	00009528 	andeq	r9, r0, r8, lsr #10
 50c:	00000004 	andeq	r0, r0, r4
 510:	0000000c 	andeq	r0, r0, ip
 514:	00000424 	andeq	r0, r0, r4, lsr #8
 518:	0000952c 	andeq	r9, r0, ip, lsr #10
 51c:	00000014 	andeq	r0, r0, r4, lsl r0
 520:	00000014 	andeq	r0, r0, r4, lsl r0
 524:	00000424 	andeq	r0, r0, r4, lsr #8
 528:	00009540 	andeq	r9, r0, r0, asr #10
 52c:	00000060 	andeq	r0, r0, r0, rrx
 530:	8e040e58 	mcrhi	14, 0, r0, cr4, cr8, {2}
 534:	100e4201 	andne	r4, lr, r1, lsl #4
 538:	0000000c 	andeq	r0, r0, ip
 53c:	ffffffff 			; <UNDEFINED> instruction: 0xffffffff
 540:	7c020001 	stcvc	0, cr0, [r2], {1}
 544:	000d0c0e 	andeq	r0, sp, lr, lsl #24
 548:	00000020 	andeq	r0, r0, r0, lsr #32
 54c:	00000538 	andeq	r0, r0, r8, lsr r5
 550:	000095a0 	andeq	r9, r0, r0, lsr #11
 554:	00000060 	andeq	r0, r0, r0, rrx
 558:	84100e48 	ldrhi	r0, [r0], #-3656	; 0xfffff1b8
 55c:	86038504 	strhi	r8, [r3], -r4, lsl #10
 560:	64018e02 	strvs	r8, [r1], #-3586	; 0xfffff1fe
 564:	c4c5c6ce 	strbgt	ip, [r5], #1742	; 0x6ce
 568:	0000000e 	andeq	r0, r0, lr
 56c:	00000020 	andeq	r0, r0, r0, lsr #32
 570:	00000538 	andeq	r0, r0, r8, lsr r5
 574:	00009600 	andeq	r9, r0, r0, lsl #12
 578:	00000058 	andeq	r0, r0, r8, asr r0
 57c:	84100e46 	ldrhi	r0, [r0], #-3654	; 0xfffff1ba
 580:	86038504 	strhi	r8, [r3], -r4, lsl #10
 584:	62018e02 	andvs	r8, r1, #2, 28
 588:	c4c5c6ce 	strbgt	ip, [r5], #1742	; 0x6ce
 58c:	0000000e 	andeq	r0, r0, lr
 590:	0000000c 	andeq	r0, r0, ip
 594:	00000538 	andeq	r0, r0, r8, lsr r5
 598:	00009658 	andeq	r9, r0, r8, asr r6
 59c:	00000018 	andeq	r0, r0, r8, lsl r0
 5a0:	0000000c 	andeq	r0, r0, ip
 5a4:	00000538 	andeq	r0, r0, r8, lsr r5
 5a8:	00009670 	andeq	r9, r0, r0, ror r6
 5ac:	00000018 	andeq	r0, r0, r8, lsl r0
 5b0:	00000020 	andeq	r0, r0, r0, lsr #32
 5b4:	00000538 	andeq	r0, r0, r8, lsr r5
 5b8:	00009688 	andeq	r9, r0, r8, lsl #13
 5bc:	00000058 	andeq	r0, r0, r8, asr r0
 5c0:	84100e46 	ldrhi	r0, [r0], #-3654	; 0xfffff1ba
 5c4:	86038504 	strhi	r8, [r3], -r4, lsl #10
 5c8:	62018e02 	andvs	r8, r1, #2, 28
 5cc:	c4c5c6ce 	strbgt	ip, [r5], #1742	; 0x6ce
 5d0:	0000000e 	andeq	r0, r0, lr
 5d4:	0000000c 	andeq	r0, r0, ip
 5d8:	00000538 	andeq	r0, r0, r8, lsr r5
 5dc:	000096e0 	andeq	r9, r0, r0, ror #13
 5e0:	00000030 	andeq	r0, r0, r0, lsr r0
 5e4:	00000014 	andeq	r0, r0, r4, lsl r0
 5e8:	00000538 	andeq	r0, r0, r8, lsr r5
 5ec:	00009710 	andeq	r9, r0, r0, lsl r7
 5f0:	00000028 	andeq	r0, r0, r8, lsr #32
 5f4:	84080e42 	strhi	r0, [r8], #-3650	; 0xfffff1be
 5f8:	00018e02 	andeq	r8, r1, r2, lsl #28
 5fc:	0000000c 	andeq	r0, r0, ip
 600:	ffffffff 			; <UNDEFINED> instruction: 0xffffffff
 604:	7c020001 	stcvc	0, cr0, [r2], {1}
 608:	000d0c0e 	andeq	r0, sp, lr, lsl #24
 60c:	00000014 	andeq	r0, r0, r4, lsl r0
 610:	000005fc 	strdeq	r0, [r0], -ip
 614:	00009738 	andeq	r9, r0, r8, lsr r7
 618:	00000078 	andeq	r0, r0, r8, ror r0
 61c:	84080e42 	strhi	r0, [r8], #-3650	; 0xfffff1be
 620:	00018e02 	andeq	r8, r1, r2, lsl #28
 624:	0000000c 	andeq	r0, r0, ip
 628:	ffffffff 			; <UNDEFINED> instruction: 0xffffffff
 62c:	7c020001 	stcvc	0, cr0, [r2], {1}
 630:	000d0c0e 	andeq	r0, sp, lr, lsl #24
 634:	00000014 	andeq	r0, r0, r4, lsl r0
 638:	00000624 	andeq	r0, r0, r4, lsr #12
 63c:	000097b0 			; <UNDEFINED> instruction: 0x000097b0
 640:	00000014 	andeq	r0, r0, r4, lsl r0
 644:	84080e42 	strhi	r0, [r8], #-3650	; 0xfffff1be
 648:	00018e02 	andeq	r8, r1, r2, lsl #28
 64c:	0000000c 	andeq	r0, r0, ip
 650:	00000624 	andeq	r0, r0, r4, lsr #12
 654:	000097c4 	andeq	r9, r0, r4, asr #15
 658:	00000018 	andeq	r0, r0, r8, lsl r0
 65c:	0000000c 	andeq	r0, r0, ip
 660:	00000624 	andeq	r0, r0, r4, lsr #12
 664:	000097dc 	ldrdeq	r9, [r0], -ip
 668:	00000010 	andeq	r0, r0, r0, lsl r0
 66c:	0000000c 	andeq	r0, r0, ip
 670:	ffffffff 			; <UNDEFINED> instruction: 0xffffffff
 674:	7c020001 	stcvc	0, cr0, [r2], {1}
 678:	000d0c0e 	andeq	r0, sp, lr, lsl #24
 67c:	0000000c 	andeq	r0, r0, ip
 680:	0000066c 	andeq	r0, r0, ip, ror #12
 684:	000097ec 	andeq	r9, r0, ip, ror #15
 688:	0000002c 	andeq	r0, r0, ip, lsr #32
 68c:	0000000c 	andeq	r0, r0, ip
 690:	ffffffff 			; <UNDEFINED> instruction: 0xffffffff
 694:	7c020001 	stcvc	0, cr0, [r2], {1}
 698:	000d0c0e 	andeq	r0, sp, lr, lsl #24
 69c:	0000000c 	andeq	r0, r0, ip
 6a0:	0000068c 	andeq	r0, r0, ip, lsl #13
 6a4:	00009818 	andeq	r9, r0, r8, lsl r8
 6a8:	00000044 	andeq	r0, r0, r4, asr #32
 6ac:	0000000c 	andeq	r0, r0, ip
 6b0:	ffffffff 			; <UNDEFINED> instruction: 0xffffffff
 6b4:	7c020001 	stcvc	0, cr0, [r2], {1}
 6b8:	000d0c0e 	andeq	r0, sp, lr, lsl #24
 6bc:	0000000c 	andeq	r0, r0, ip
 6c0:	000006ac 	andeq	r0, r0, ip, lsr #13
 6c4:	0000985c 	andeq	r9, r0, ip, asr r8
 6c8:	00000018 	andeq	r0, r0, r8, lsl r0
 6cc:	0000000c 	andeq	r0, r0, ip
 6d0:	ffffffff 			; <UNDEFINED> instruction: 0xffffffff
 6d4:	7c020001 	stcvc	0, cr0, [r2], {1}
 6d8:	000d0c0e 	andeq	r0, sp, lr, lsl #24
 6dc:	0000000c 	andeq	r0, r0, ip
 6e0:	000006cc 	andeq	r0, r0, ip, asr #13
 6e4:	00009874 	andeq	r9, r0, r4, ror r8
 6e8:	00000030 	andeq	r0, r0, r0, lsr r0
 6ec:	0000000c 	andeq	r0, r0, ip
 6f0:	ffffffff 			; <UNDEFINED> instruction: 0xffffffff
 6f4:	7c020001 	stcvc	0, cr0, [r2], {1}
 6f8:	000d0c0e 	andeq	r0, sp, lr, lsl #24
 6fc:	0000000c 	andeq	r0, r0, ip
 700:	000006ec 	andeq	r0, r0, ip, ror #13
 704:	000098a4 	andeq	r9, r0, r4, lsr #17
 708:	00000004 	andeq	r0, r0, r4
