
2-test-malloc.elf:     file format elf32-littlearm


Disassembly of section .text:

00008000 <__code_start__>:
    8000:	e3a00013 	mov	r0, #19, 0
    8004:	e3800080 	orr	r0, r0, #128, 0	; 0x80
    8008:	e129f000 	msr	CPSR_fc, r0
    800c:	e3a01000 	mov	r1, #0, 0
    8010:	ee071f95 	mcr	15, 0, r1, cr7, cr5, {4}
    8014:	e3a0d302 	mov	sp, #134217728	; 0x8000000
    8018:	e3a0b000 	mov	fp, #0, 0
    801c:	eb00038b 	bl	8e50 <_cstart>
    8020:	eb0003d4 	bl	8f78 <rpi_reboot>

00008024 <PUT32>:
    8024:	e5801000 	str	r1, [r0]
    8028:	e12fff1e 	bx	lr

0000802c <GET32>:
    802c:	e5900000 	ldr	r0, [r0]
    8030:	e12fff1e 	bx	lr

00008034 <BRANCHTO>:
    8034:	e12fff10 	bx	r0

00008038 <test_alloc_free>:
    8038:	e92d40f0 	push	{r4, r5, r6, r7, lr}
    803c:	e24dd014 	sub	sp, sp, #20, 0
    8040:	e1a06000 	mov	r6, r0
    8044:	e1a00100 	lsl	r0, r0, #2
    8048:	eb0000a7 	bl	82ec <kr_malloc>
    804c:	e1a05000 	mov	r5, r0
    8050:	e3a04000 	mov	r4, #0, 0
    8054:	e1540006 	cmp	r4, r6
    8058:	2a000019 	bcs	80c4 <test_alloc_free+0x8c>
    805c:	e0857104 	add	r7, r5, r4, lsl #2
    8060:	e3a00001 	mov	r0, #1, 0
    8064:	eb0000a0 	bl	82ec <kr_malloc>
    8068:	e7850104 	str	r0, [r5, r4, lsl #2]
    806c:	e6ef3074 	uxtb	r3, r4
    8070:	e5c03000 	strb	r3, [r0]
    8074:	e7952104 	ldr	r2, [r5, r4, lsl #2]
    8078:	e5d22000 	ldrb	r2, [r2]
    807c:	e1530002 	cmp	r3, r2
    8080:	02844001 	addeq	r4, r4, #1, 0
    8084:	0afffff2 	beq	8054 <test_alloc_free+0x1c>
    8088:	eb0000e0 	bl	8410 <rpi_reset_putc>
    808c:	e5973000 	ldr	r3, [r7]
    8090:	e5d33000 	ldrb	r3, [r3]
    8094:	e6ef2074 	uxtb	r2, r4
    8098:	e58d200c 	str	r2, [sp, #12]
    809c:	e58d3008 	str	r3, [sp, #8]
    80a0:	e58d4004 	str	r4, [sp, #4]
    80a4:	e59f308c 	ldr	r3, [pc, #140]	; 8138 <test_alloc_free+0x100>
    80a8:	e58d3000 	str	r3, [sp]
    80ac:	e3a03012 	mov	r3, #18, 0
    80b0:	e59f2084 	ldr	r2, [pc, #132]	; 813c <test_alloc_free+0x104>
    80b4:	e59f1084 	ldr	r1, [pc, #132]	; 8140 <test_alloc_free+0x108>
    80b8:	e59f0084 	ldr	r0, [pc, #132]	; 8144 <test_alloc_free+0x10c>
    80bc:	eb0000b8 	bl	83a4 <printk>
    80c0:	eb000357 	bl	8e24 <clean_reboot>
    80c4:	e3a03000 	mov	r3, #0, 0
    80c8:	e1530006 	cmp	r3, r6
    80cc:	2a00000d 	bcs	8108 <test_alloc_free+0xd0>
    80d0:	e7952103 	ldr	r2, [r5, r3, lsl #2]
    80d4:	e5d21000 	ldrb	r1, [r2]
    80d8:	e6ef2073 	uxtb	r2, r3
    80dc:	e1510002 	cmp	r1, r2
    80e0:	02833001 	addeq	r3, r3, #1, 0
    80e4:	0afffff7 	beq	80c8 <test_alloc_free+0x90>
    80e8:	e59f3048 	ldr	r3, [pc, #72]	; 8138 <test_alloc_free+0x100>
    80ec:	e58d3000 	str	r3, [sp]
    80f0:	e3a03016 	mov	r3, #22, 0
    80f4:	e59f2040 	ldr	r2, [pc, #64]	; 813c <test_alloc_free+0x104>
    80f8:	e59f1040 	ldr	r1, [pc, #64]	; 8140 <test_alloc_free+0x108>
    80fc:	e59f0044 	ldr	r0, [pc, #68]	; 8148 <test_alloc_free+0x110>
    8100:	eb0000a7 	bl	83a4 <printk>
    8104:	eb000346 	bl	8e24 <clean_reboot>
    8108:	e3a04000 	mov	r4, #0, 0
    810c:	ea000002 	b	811c <test_alloc_free+0xe4>
    8110:	e7950104 	ldr	r0, [r5, r4, lsl #2]
    8114:	eb000034 	bl	81ec <kr_free>
    8118:	e2844001 	add	r4, r4, #1, 0
    811c:	e1540006 	cmp	r4, r6
    8120:	3afffffa 	bcc	8110 <test_alloc_free+0xd8>
    8124:	e1a00005 	mov	r0, r5
    8128:	eb00002f 	bl	81ec <kr_free>
    812c:	e1a00005 	mov	r0, r5
    8130:	e28dd014 	add	sp, sp, #20, 0
    8134:	e8bd80f0 	pop	{r4, r5, r6, r7, pc}
    8138:	000099bc 			; <UNDEFINED> instruction: 0x000099bc
    813c:	00009a3c 	andeq	r9, r0, ip, lsr sl
    8140:	00009978 	andeq	r9, r0, r8, ror r9
    8144:	00009988 	andeq	r9, r0, r8, lsl #19
    8148:	000099d4 	ldrdeq	r9, [r0], -r4

0000814c <notmain>:
    814c:	e92d4030 	push	{r4, r5, lr}
    8150:	e24dd00c 	sub	sp, sp, #12, 0
    8154:	e3a00080 	mov	r0, #128, 0	; 0x80
    8158:	ebffffb6 	bl	8038 <test_alloc_free>
    815c:	e1a05000 	mov	r5, r0
    8160:	e3a04000 	mov	r4, #0, 0
    8164:	e3540009 	cmp	r4, #9, 0
    8168:	ca000012 	bgt	81b8 <notmain+0x6c>
    816c:	e3a00080 	mov	r0, #128, 0	; 0x80
    8170:	ebffffb0 	bl	8038 <test_alloc_free>
    8174:	e1550000 	cmp	r5, r0
    8178:	1a000006 	bne	8198 <notmain+0x4c>
    817c:	e59f004c 	ldr	r0, [pc, #76]	; 81d0 <notmain+0x84>
    8180:	eb000087 	bl	83a4 <printk>
    8184:	e1a01004 	mov	r1, r4
    8188:	e59f0044 	ldr	r0, [pc, #68]	; 81d4 <notmain+0x88>
    818c:	eb000084 	bl	83a4 <printk>
    8190:	e2844001 	add	r4, r4, #1, 0
    8194:	eafffff2 	b	8164 <notmain+0x18>
    8198:	e59f3038 	ldr	r3, [pc, #56]	; 81d8 <notmain+0x8c>
    819c:	e58d3000 	str	r3, [sp]
    81a0:	e3a0302a 	mov	r3, #42, 0	; 0x2a
    81a4:	e59f2030 	ldr	r2, [pc, #48]	; 81dc <notmain+0x90>
    81a8:	e59f1030 	ldr	r1, [pc, #48]	; 81e0 <notmain+0x94>
    81ac:	e59f0030 	ldr	r0, [pc, #48]	; 81e4 <notmain+0x98>
    81b0:	eb00007b 	bl	83a4 <printk>
    81b4:	eb00031a 	bl	8e24 <clean_reboot>
    81b8:	e59f0010 	ldr	r0, [pc, #16]	; 81d0 <notmain+0x84>
    81bc:	eb000078 	bl	83a4 <printk>
    81c0:	e59f0020 	ldr	r0, [pc, #32]	; 81e8 <notmain+0x9c>
    81c4:	eb000076 	bl	83a4 <printk>
    81c8:	e28dd00c 	add	sp, sp, #12, 0
    81cc:	e8bd8030 	pop	{r4, r5, pc}
    81d0:	000099f4 	strdeq	r9, [r0], -r4
    81d4:	000099fc 	strdeq	r9, [r0], -ip
    81d8:	000099e8 	andeq	r9, r0, r8, ror #19
    81dc:	00009a4c 	andeq	r9, r0, ip, asr #20
    81e0:	00009978 	andeq	r9, r0, r8, ror r9
    81e4:	000099d4 	ldrdeq	r9, [r0], -r4
    81e8:	00009a14 	andeq	r9, r0, r4, lsl sl

000081ec <kr_free>:
    81ec:	e52de004 	push	{lr}		; (str lr, [sp, #-4]!)
    81f0:	e2401008 	sub	r1, r0, #8, 0
    81f4:	e59f30a8 	ldr	r3, [pc, #168]	; 82a4 <kr_free+0xb8>
    81f8:	e5933000 	ldr	r3, [r3]
    81fc:	ea000000 	b	8204 <kr_free+0x18>
    8200:	e1a03002 	mov	r3, r2
    8204:	e1530001 	cmp	r3, r1
    8208:	2a000002 	bcs	8218 <kr_free+0x2c>
    820c:	e5932000 	ldr	r2, [r3]
    8210:	e1520001 	cmp	r2, r1
    8214:	8a000007 	bhi	8238 <kr_free+0x4c>
    8218:	e5932000 	ldr	r2, [r3]
    821c:	e1520003 	cmp	r2, r3
    8220:	8afffff6 	bhi	8200 <kr_free+0x14>
    8224:	e1530001 	cmp	r3, r1
    8228:	3a000002 	bcc	8238 <kr_free+0x4c>
    822c:	e1520001 	cmp	r2, r1
    8230:	91a03002 	movls	r3, r2
    8234:	9afffff2 	bls	8204 <kr_free+0x18>
    8238:	e510c004 	ldr	ip, [r0, #-4]
    823c:	e081e18c 	add	lr, r1, ip, lsl #3
    8240:	e5932000 	ldr	r2, [r3]
    8244:	e15e0002 	cmp	lr, r2
    8248:	0a000008 	beq	8270 <kr_free+0x84>
    824c:	e5002008 	str	r2, [r0, #-8]
    8250:	e5932004 	ldr	r2, [r3, #4]
    8254:	e083c182 	add	ip, r3, r2, lsl #3
    8258:	e15c0001 	cmp	ip, r1
    825c:	0a00000a 	beq	828c <kr_free+0xa0>
    8260:	e5831000 	str	r1, [r3]
    8264:	e59f2038 	ldr	r2, [pc, #56]	; 82a4 <kr_free+0xb8>
    8268:	e5823000 	str	r3, [r2]
    826c:	e49df004 	pop	{pc}		; (ldr pc, [sp], #4)
    8270:	e5922004 	ldr	r2, [r2, #4]
    8274:	e08cc002 	add	ip, ip, r2
    8278:	e500c004 	str	ip, [r0, #-4]
    827c:	e5932000 	ldr	r2, [r3]
    8280:	e5922000 	ldr	r2, [r2]
    8284:	e5002008 	str	r2, [r0, #-8]
    8288:	eafffff0 	b	8250 <kr_free+0x64>
    828c:	e5101004 	ldr	r1, [r0, #-4]
    8290:	e0822001 	add	r2, r2, r1
    8294:	e5832004 	str	r2, [r3, #4]
    8298:	e5102008 	ldr	r2, [r0, #-8]
    829c:	e5832000 	str	r2, [r3]
    82a0:	eaffffef 	b	8264 <kr_free+0x78>
    82a4:	00009dd8 	ldrdeq	r9, [r0], -r8

000082a8 <morecore>:
    82a8:	e92d4010 	push	{r4, lr}
    82ac:	e1a04000 	mov	r4, r0
    82b0:	e3500b01 	cmp	r0, #1024	; 0x400
    82b4:	33a04b01 	movcc	r4, #1024	; 0x400
    82b8:	e1a00184 	lsl	r0, r4, #3
    82bc:	eb000035 	bl	8398 <sbrk>
    82c0:	e3700001 	cmn	r0, #1, 0
    82c4:	0a000005 	beq	82e0 <morecore+0x38>
    82c8:	e5804004 	str	r4, [r0, #4]
    82cc:	e2800008 	add	r0, r0, #8, 0
    82d0:	ebffffc5 	bl	81ec <kr_free>
    82d4:	e59f300c 	ldr	r3, [pc, #12]	; 82e8 <morecore+0x40>
    82d8:	e5930000 	ldr	r0, [r3]
    82dc:	e8bd8010 	pop	{r4, pc}
    82e0:	e3a00000 	mov	r0, #0, 0
    82e4:	e8bd8010 	pop	{r4, pc}
    82e8:	00009dd8 	ldrdeq	r9, [r0], -r8

000082ec <kr_malloc>:
    82ec:	e92d4010 	push	{r4, lr}
    82f0:	e2804007 	add	r4, r0, #7, 0
    82f4:	e1a041a4 	lsr	r4, r4, #3
    82f8:	e2844001 	add	r4, r4, #1, 0
    82fc:	e59f3090 	ldr	r3, [pc, #144]	; 8394 <kr_malloc+0xa8>
    8300:	e5932000 	ldr	r2, [r3]
    8304:	e3520000 	cmp	r2, #0, 0
    8308:	0a000001 	beq	8314 <kr_malloc+0x28>
    830c:	e5920000 	ldr	r0, [r2]
    8310:	ea000013 	b	8364 <kr_malloc+0x78>
    8314:	e2832008 	add	r2, r3, #8, 0
    8318:	e5832000 	str	r2, [r3]
    831c:	e5832008 	str	r2, [r3, #8]
    8320:	e3a01000 	mov	r1, #0, 0
    8324:	e583100c 	str	r1, [r3, #12]
    8328:	eafffff7 	b	830c <kr_malloc+0x20>
    832c:	0a000007 	beq	8350 <kr_malloc+0x64>
    8330:	e0433004 	sub	r3, r3, r4
    8334:	e5803004 	str	r3, [r0, #4]
    8338:	e0800183 	add	r0, r0, r3, lsl #3
    833c:	e5804004 	str	r4, [r0, #4]
    8340:	e59f304c 	ldr	r3, [pc, #76]	; 8394 <kr_malloc+0xa8>
    8344:	e5832000 	str	r2, [r3]
    8348:	e2800008 	add	r0, r0, #8, 0
    834c:	e8bd8010 	pop	{r4, pc}
    8350:	e5903000 	ldr	r3, [r0]
    8354:	e5823000 	str	r3, [r2]
    8358:	eafffff8 	b	8340 <kr_malloc+0x54>
    835c:	e1a02000 	mov	r2, r0
    8360:	e5900000 	ldr	r0, [r0]
    8364:	e5903004 	ldr	r3, [r0, #4]
    8368:	e1530004 	cmp	r3, r4
    836c:	2affffee 	bcs	832c <kr_malloc+0x40>
    8370:	e59f301c 	ldr	r3, [pc, #28]	; 8394 <kr_malloc+0xa8>
    8374:	e5933000 	ldr	r3, [r3]
    8378:	e1530000 	cmp	r3, r0
    837c:	1afffff6 	bne	835c <kr_malloc+0x70>
    8380:	e1a00004 	mov	r0, r4
    8384:	ebffffc7 	bl	82a8 <morecore>
    8388:	e3500000 	cmp	r0, #0, 0
    838c:	1afffff2 	bne	835c <kr_malloc+0x70>
    8390:	e8bd8010 	pop	{r4, pc}
    8394:	00009dd8 	ldrdeq	r9, [r0], -r8

00008398 <sbrk>:
    8398:	e92d4010 	push	{r4, lr}
    839c:	eb00043f 	bl	94a0 <kmalloc>
    83a0:	e8bd8010 	pop	{r4, pc}

000083a4 <printk>:
    83a4:	e92d000f 	push	{r0, r1, r2, r3}
    83a8:	e92d4030 	push	{r4, r5, lr}
    83ac:	e59f5040 	ldr	r5, [pc, #64]	; 83f4 <printk+0x50>
    83b0:	e24dd00c 	sub	sp, sp, #12, 0
    83b4:	e28d301c 	add	r3, sp, #28, 0
    83b8:	e3a01b01 	mov	r1, #1024	; 0x400
    83bc:	e59d2018 	ldr	r2, [sp, #24]
    83c0:	e1a00005 	mov	r0, r5
    83c4:	e58d3004 	str	r3, [sp, #4]
    83c8:	eb00010a 	bl	87f8 <va_printk>
    83cc:	e1a04000 	mov	r4, r0
    83d0:	e59f3020 	ldr	r3, [pc, #32]	; 83f8 <printk+0x54>
    83d4:	e1a00005 	mov	r0, r5
    83d8:	e5933000 	ldr	r3, [r3]
    83dc:	e12fff33 	blx	r3
    83e0:	e1a00004 	mov	r0, r4
    83e4:	e28dd00c 	add	sp, sp, #12, 0
    83e8:	e8bd4030 	pop	{r4, r5, lr}
    83ec:	e28dd010 	add	sp, sp, #16, 0
    83f0:	e12fff1e 	bx	lr
    83f4:	00009de8 	andeq	r9, r0, r8, ror #27
    83f8:	00009dc8 	andeq	r9, r0, r8, asr #27

000083fc <internal_putchar>:
    83fc:	e92d4010 	push	{r4, lr}
    8400:	e1a04000 	mov	r4, r0
    8404:	eb000390 	bl	924c <uart_putc>
    8408:	e1a00004 	mov	r0, r4
    840c:	e8bd8010 	pop	{r4, pc}

00008410 <rpi_reset_putc>:
    8410:	e59f3008 	ldr	r3, [pc, #8]	; 8420 <rpi_reset_putc+0x10>
    8414:	e59f2008 	ldr	r2, [pc, #8]	; 8424 <rpi_reset_putc+0x14>
    8418:	e5832000 	str	r2, [r3]
    841c:	e12fff1e 	bx	lr
    8420:	00009dc4 	andeq	r9, r0, r4, asr #27
    8424:	000083fc 	strdeq	r8, [r0], -ip

00008428 <rpi_set_putc>:
    8428:	e59f3004 	ldr	r3, [pc, #4]	; 8434 <rpi_set_putc+0xc>
    842c:	e5830000 	str	r0, [r3]
    8430:	e12fff1e 	bx	lr
    8434:	00009dc4 	andeq	r9, r0, r4, asr #27

00008438 <internal_putk>:
    8438:	e92d4070 	push	{r4, r5, r6, lr}
    843c:	e1a04000 	mov	r4, r0
    8440:	e5d00000 	ldrb	r0, [r0]
    8444:	e3500000 	cmp	r0, #0, 0
    8448:	0a000005 	beq	8464 <internal_putk+0x2c>
    844c:	e59f5018 	ldr	r5, [pc, #24]	; 846c <internal_putk+0x34>
    8450:	e5953000 	ldr	r3, [r5]
    8454:	e12fff33 	blx	r3
    8458:	e5f40001 	ldrb	r0, [r4, #1]!
    845c:	e3500000 	cmp	r0, #0, 0
    8460:	1afffffa 	bne	8450 <internal_putk+0x18>
    8464:	e3a00001 	mov	r0, #1, 0
    8468:	e8bd8070 	pop	{r4, r5, r6, pc}
    846c:	00009dc4 	andeq	r9, r0, r4, asr #27

00008470 <emit.constprop.0>:
    8470:	e92d41f0 	push	{r4, r5, r6, r7, r8, lr}
    8474:	e3530080 	cmp	r3, #128, 0	; 0x80
    8478:	e1a0c000 	mov	ip, r0
    847c:	e24dd048 	sub	sp, sp, #72, 0	; 0x48
    8480:	e1a00001 	mov	r0, r1
    8484:	ca000069 	bgt	8630 <emit.constprop.0+0x1c0>
    8488:	e24c1002 	sub	r1, ip, #2, 0
    848c:	e1a0c002 	mov	ip, r2
    8490:	e351000e 	cmp	r1, #14, 0
    8494:	979ff101 	ldrls	pc, [pc, r1, lsl #2]
    8498:	ea0000a7 	b	873c <emit.constprop.0+0x2cc>
    849c:	00008608 	andeq	r8, r0, r8, lsl #12
    84a0:	0000873c 	andeq	r8, r0, ip, lsr r7
    84a4:	0000873c 	andeq	r8, r0, ip, lsr r7
    84a8:	0000873c 	andeq	r8, r0, ip, lsr r7
    84ac:	0000873c 	andeq	r8, r0, ip, lsr r7
    84b0:	0000873c 	andeq	r8, r0, ip, lsr r7
    84b4:	000086e4 	andeq	r8, r0, r4, ror #13
    84b8:	0000873c 	andeq	r8, r0, ip, lsr r7
    84bc:	00008684 	andeq	r8, r0, r4, lsl #13
    84c0:	0000873c 	andeq	r8, r0, ip, lsr r7
    84c4:	0000873c 	andeq	r8, r0, ip, lsr r7
    84c8:	0000873c 	andeq	r8, r0, ip, lsr r7
    84cc:	0000873c 	andeq	r8, r0, ip, lsr r7
    84d0:	0000873c 	andeq	r8, r0, ip, lsr r7
    84d4:	000084dc 	ldrdeq	r8, [r0], -ip
    84d8:	e3a0307f 	mov	r3, #127, 0	; 0x7f
    84dc:	e28d2008 	add	r2, sp, #8, 0
    84e0:	e1a04002 	mov	r4, r2
    84e4:	e59f1288 	ldr	r1, [pc, #648]	; 8774 <emit.constprop.0+0x304>
    84e8:	e20ce00f 	and	lr, ip, #15, 0
    84ec:	e7d1e00e 	ldrb	lr, [r1, lr]
    84f0:	e35c000f 	cmp	ip, #15, 0
    84f4:	e4c4e001 	strb	lr, [r4], #1
    84f8:	e1a0c22c 	lsr	ip, ip, #4
    84fc:	8afffff9 	bhi	84e8 <emit.constprop.0+0x78>
    8500:	e3a0c078 	mov	ip, #120, 0	; 0x78
    8504:	e1a0e004 	mov	lr, r4
    8508:	e3a01030 	mov	r1, #48, 0	; 0x30
    850c:	e4cec002 	strb	ip, [lr], #2
    8510:	e5c41001 	strb	r1, [r4, #1]
    8514:	e04e1002 	sub	r1, lr, r2
    8518:	e1510003 	cmp	r1, r3
    851c:	aa000083 	bge	8730 <emit.constprop.0+0x2c0>
    8520:	e1510003 	cmp	r1, r3
    8524:	a3a0c001 	movge	ip, #1, 0
    8528:	b3a0c000 	movlt	ip, #0, 0
    852c:	e2434001 	sub	r4, r3, #1, 0
    8530:	e0444001 	sub	r4, r4, r1
    8534:	b0436001 	sublt	r6, r3, r1
    8538:	a3a06001 	movge	r6, #1, 0
    853c:	e3540002 	cmp	r4, #2, 0
    8540:	938cc001 	orrls	ip, ip, #1, 0
    8544:	e35c0000 	cmp	ip, #0, 0
    8548:	1a000075 	bne	8724 <emit.constprop.0+0x2b4>
    854c:	e1a0c00e 	mov	ip, lr
    8550:	e3c65003 	bic	r5, r6, #3, 0
    8554:	e59f721c 	ldr	r7, [pc, #540]	; 8778 <emit.constprop.0+0x308>
    8558:	e085500e 	add	r5, r5, lr
    855c:	e48c7004 	str	r7, [ip], #4
    8560:	e15c0005 	cmp	ip, r5
    8564:	1afffffc 	bne	855c <emit.constprop.0+0xec>
    8568:	e3c6c003 	bic	ip, r6, #3, 0
    856c:	e156000c 	cmp	r6, ip
    8570:	e08e500c 	add	r5, lr, ip
    8574:	e08cc001 	add	ip, ip, r1
    8578:	0a000008 	beq	85a0 <emit.constprop.0+0x130>
    857c:	e3a07020 	mov	r7, #32, 0
    8580:	e28c8001 	add	r8, ip, #1, 0
    8584:	e1580003 	cmp	r8, r3
    8588:	e5c57000 	strb	r7, [r5]
    858c:	aa000003 	bge	85a0 <emit.constprop.0+0x130>
    8590:	e28cc002 	add	ip, ip, #2, 0
    8594:	e15c0003 	cmp	ip, r3
    8598:	e5c57001 	strb	r7, [r5, #1]
    859c:	b5c57002 	strblt	r7, [r5, #2]
    85a0:	e1510003 	cmp	r1, r3
    85a4:	a3a04000 	movge	r4, #0, 0
    85a8:	e08e6006 	add	r6, lr, r6
    85ac:	e0461002 	sub	r1, r6, r2
    85b0:	e08ee004 	add	lr, lr, r4
    85b4:	e3a03000 	mov	r3, #0, 0
    85b8:	e351007f 	cmp	r1, #127, 0	; 0x7f
    85bc:	c241407f 	subgt	r4, r1, #127, 0	; 0x7f
    85c0:	c0822004 	addgt	r2, r2, r4
    85c4:	e152000e 	cmp	r2, lr
    85c8:	e5c63000 	strb	r3, [r6]
    85cc:	8a00004f 	bhi	8710 <emit.constprop.0+0x2a0>
    85d0:	e28ee001 	add	lr, lr, #1, 0
    85d4:	e1a0300e 	mov	r3, lr
    85d8:	e240c001 	sub	ip, r0, #1, 0
    85dc:	e5734001 	ldrb	r4, [r3, #-1]!
    85e0:	e1530002 	cmp	r3, r2
    85e4:	e5ec4001 	strb	r4, [ip, #1]!
    85e8:	1afffffb 	bne	85dc <emit.constprop.0+0x16c>
    85ec:	e04ee003 	sub	lr, lr, r3
    85f0:	e3a03000 	mov	r3, #0, 0
    85f4:	e080e00e 	add	lr, r0, lr
    85f8:	e5ce3000 	strb	r3, [lr]
    85fc:	e28dd048 	add	sp, sp, #72, 0	; 0x48
    8600:	e8bd81f0 	pop	{r4, r5, r6, r7, r8, pc}
    8604:	e3a0307f 	mov	r3, #127, 0	; 0x7f
    8608:	e28d2008 	add	r2, sp, #8, 0
    860c:	e1a0e002 	mov	lr, r2
    8610:	e59f1164 	ldr	r1, [pc, #356]	; 877c <emit.constprop.0+0x30c>
    8614:	e20c4001 	and	r4, ip, #1, 0
    8618:	e7d14004 	ldrb	r4, [r1, r4]
    861c:	e35c0001 	cmp	ip, #1, 0
    8620:	e4ce4001 	strb	r4, [lr], #1
    8624:	e1a0c0ac 	lsr	ip, ip, #1
    8628:	8afffff9 	bhi	8614 <emit.constprop.0+0x1a4>
    862c:	eaffffb8 	b	8514 <emit.constprop.0+0xa4>
    8630:	e24c3002 	sub	r3, ip, #2, 0
    8634:	e1a0c002 	mov	ip, r2
    8638:	e353000e 	cmp	r3, #14, 0
    863c:	979ff103 	ldrls	pc, [pc, r3, lsl #2]
    8640:	ea00003d 	b	873c <emit.constprop.0+0x2cc>
    8644:	00008604 	andeq	r8, r0, r4, lsl #12
    8648:	0000873c 	andeq	r8, r0, ip, lsr r7
    864c:	0000873c 	andeq	r8, r0, ip, lsr r7
    8650:	0000873c 	andeq	r8, r0, ip, lsr r7
    8654:	0000873c 	andeq	r8, r0, ip, lsr r7
    8658:	0000873c 	andeq	r8, r0, ip, lsr r7
    865c:	0000875c 	andeq	r8, r0, ip, asr r7
    8660:	0000873c 	andeq	r8, r0, ip, lsr r7
    8664:	00008680 	andeq	r8, r0, r0, lsl #13
    8668:	0000873c 	andeq	r8, r0, ip, lsr r7
    866c:	0000873c 	andeq	r8, r0, ip, lsr r7
    8670:	0000873c 	andeq	r8, r0, ip, lsr r7
    8674:	0000873c 	andeq	r8, r0, ip, lsr r7
    8678:	0000873c 	andeq	r8, r0, ip, lsr r7
    867c:	000084d8 	ldrdeq	r8, [r0], -r8	; <UNPREDICTABLE>
    8680:	e3a0307f 	mov	r3, #127, 0	; 0x7f
    8684:	e59d1060 	ldr	r1, [sp, #96]	; 0x60
    8688:	e59f70f0 	ldr	r7, [pc, #240]	; 8780 <emit.constprop.0+0x310>
    868c:	e0118fa2 	ands	r8, r1, r2, lsr #31
    8690:	1262c000 	rsbne	ip, r2, #0, 0
    8694:	e28d2008 	add	r2, sp, #8, 0
    8698:	13a08001 	movne	r8, #1, 0
    869c:	e1a0e002 	mov	lr, r2
    86a0:	e59f60dc 	ldr	r6, [pc, #220]	; 8784 <emit.constprop.0+0x314>
    86a4:	e1a0500c 	mov	r5, ip
    86a8:	e0814c96 	umull	r4, r1, r6, ip
    86ac:	e1a011a1 	lsr	r1, r1, #3
    86b0:	e0814101 	add	r4, r1, r1, lsl #2
    86b4:	e04cc084 	sub	ip, ip, r4, lsl #1
    86b8:	e7d7400c 	ldrb	r4, [r7, ip]
    86bc:	e3550009 	cmp	r5, #9, 0
    86c0:	e1a0c001 	mov	ip, r1
    86c4:	e1a0100e 	mov	r1, lr
    86c8:	e4ce4001 	strb	r4, [lr], #1
    86cc:	8afffff4 	bhi	86a4 <emit.constprop.0+0x234>
    86d0:	e3580000 	cmp	r8, #0, 0
    86d4:	13a0c02d 	movne	ip, #45, 0	; 0x2d
    86d8:	15cec000 	strbne	ip, [lr]
    86dc:	1281e002 	addne	lr, r1, #2, 0
    86e0:	eaffff8b 	b	8514 <emit.constprop.0+0xa4>
    86e4:	e3530001 	cmp	r3, #1, 0
    86e8:	e5cd2008 	strb	r2, [sp, #8]
    86ec:	c3a01001 	movgt	r1, #1, 0
    86f0:	c28de009 	addgt	lr, sp, #9, 0
    86f4:	c28d2008 	addgt	r2, sp, #8, 0
    86f8:	caffff88 	bgt	8520 <emit.constprop.0+0xb0>
    86fc:	e3a03000 	mov	r3, #0, 0
    8700:	e28de008 	add	lr, sp, #8, 0
    8704:	e1a0200e 	mov	r2, lr
    8708:	e5cd3009 	strb	r3, [sp, #9]
    870c:	eaffffaf 	b	85d0 <emit.constprop.0+0x160>
    8710:	e1a0e000 	mov	lr, r0
    8714:	e3a03000 	mov	r3, #0, 0
    8718:	e5ce3000 	strb	r3, [lr]
    871c:	e28dd048 	add	sp, sp, #72, 0	; 0x48
    8720:	e8bd81f0 	pop	{r4, r5, r6, r7, r8, pc}
    8724:	e1a0c001 	mov	ip, r1
    8728:	e1a0500e 	mov	r5, lr
    872c:	eaffff92 	b	857c <emit.constprop.0+0x10c>
    8730:	e1a0600e 	mov	r6, lr
    8734:	e24ee001 	sub	lr, lr, #1, 0
    8738:	eaffff9d 	b	85b4 <emit.constprop.0+0x144>
    873c:	e59f2044 	ldr	r2, [pc, #68]	; 8788 <emit.constprop.0+0x318>
    8740:	e3a03079 	mov	r3, #121, 0	; 0x79
    8744:	e59f1040 	ldr	r1, [pc, #64]	; 878c <emit.constprop.0+0x31c>
    8748:	e58d2000 	str	r2, [sp]
    874c:	e59f003c 	ldr	r0, [pc, #60]	; 8790 <emit.constprop.0+0x320>
    8750:	e59f203c 	ldr	r2, [pc, #60]	; 8794 <emit.constprop.0+0x324>
    8754:	ebffff12 	bl	83a4 <printk>
    8758:	eb0001b1 	bl	8e24 <clean_reboot>
    875c:	e5cd2008 	strb	r2, [sp, #8]
    8760:	e3a0307f 	mov	r3, #127, 0	; 0x7f
    8764:	e3a01001 	mov	r1, #1, 0
    8768:	e28de009 	add	lr, sp, #9, 0
    876c:	e28d2008 	add	r2, sp, #8, 0
    8770:	eaffff6a 	b	8520 <emit.constprop.0+0xb0>
    8774:	00009a6c 	andeq	r9, r0, ip, ror #20
    8778:	20202020 	eorcs	r2, r0, r0, lsr #32
    877c:	00009a80 	andeq	r9, r0, r0, lsl #21
    8780:	00009a84 	andeq	r9, r0, r4, lsl #21
    8784:	cccccccd 	stclgt	12, cr12, [ip], {205}	; 0xcd
    8788:	00009a68 	andeq	r9, r0, r8, ror #20
    878c:	00009a54 	andeq	r9, r0, r4, asr sl
    8790:	000099d4 	ldrdeq	r9, [r0], -r4
    8794:	00009b98 	muleq	r0, r8, fp

00008798 <rpi_set_output>:
    8798:	e3500000 	cmp	r0, #0, 0
    879c:	0a000005 	beq	87b8 <rpi_set_output+0x20>
    87a0:	e59f3038 	ldr	r3, [pc, #56]	; 87e0 <rpi_set_output+0x48>
    87a4:	e3510000 	cmp	r1, #0, 0
    87a8:	e5830000 	str	r0, [r3]
    87ac:	159f3030 	ldrne	r3, [pc, #48]	; 87e4 <rpi_set_output+0x4c>
    87b0:	15831000 	strne	r1, [r3]
    87b4:	e12fff1e 	bx	lr
    87b8:	e52de004 	push	{lr}		; (str lr, [sp, #-4]!)
    87bc:	e59f2024 	ldr	r2, [pc, #36]	; 87e8 <rpi_set_output+0x50>
    87c0:	e24dd00c 	sub	sp, sp, #12, 0
    87c4:	e3a03020 	mov	r3, #32, 0
    87c8:	e59f101c 	ldr	r1, [pc, #28]	; 87ec <rpi_set_output+0x54>
    87cc:	e58d2000 	str	r2, [sp]
    87d0:	e59f0018 	ldr	r0, [pc, #24]	; 87f0 <rpi_set_output+0x58>
    87d4:	e59f2018 	ldr	r2, [pc, #24]	; 87f4 <rpi_set_output+0x5c>
    87d8:	ebfffef1 	bl	83a4 <printk>
    87dc:	eb000190 	bl	8e24 <clean_reboot>
    87e0:	00009dc4 	andeq	r9, r0, r4, asr #27
    87e4:	00009dc8 	andeq	r9, r0, r8, asr #27
    87e8:	00009a90 	muleq	r0, r0, sl
    87ec:	00009a54 	andeq	r9, r0, r4, asr sl
    87f0:	000099d4 	ldrdeq	r9, [r0], -r4
    87f4:	00009ba0 	andeq	r9, r0, r0, lsr #23

000087f8 <va_printk>:
    87f8:	e92d4ff0 	push	{r4, r5, r6, r7, r8, r9, sl, fp, lr}
    87fc:	e1a0b000 	mov	fp, r0
    8800:	e3a00000 	mov	r0, #0, 0
    8804:	e5cb0000 	strb	r0, [fp]
    8808:	e5d2c000 	ldrb	ip, [r2]
    880c:	e2417001 	sub	r7, r1, #1, 0
    8810:	e08b7007 	add	r7, fp, r7
    8814:	e15c0000 	cmp	ip, r0
    8818:	115b0007 	cmpne	fp, r7
    881c:	e24ddf47 	sub	sp, sp, #284	; 0x11c
    8820:	e58d2010 	str	r2, [sp, #16]
    8824:	2a000159 	bcs	8d90 <va_printk+0x598>
    8828:	e1a06002 	mov	r6, r2
    882c:	e1a08003 	mov	r8, r3
    8830:	e1a0400b 	mov	r4, fp
    8834:	e59fa5a4 	ldr	sl, [pc, #1444]	; 8de0 <va_printk+0x5e8>
    8838:	e58db00c 	str	fp, [sp, #12]
    883c:	ea000005 	b	8858 <va_printk+0x60>
    8840:	e4c4c001 	strb	ip, [r4], #1
    8844:	e2866001 	add	r6, r6, #1, 0
    8848:	e5d6c000 	ldrb	ip, [r6]
    884c:	e35c0000 	cmp	ip, #0, 0
    8850:	11570004 	cmpne	r7, r4
    8854:	9a00002f 	bls	8918 <va_printk+0x120>
    8858:	e35c0025 	cmp	ip, #37, 0	; 0x25
    885c:	1afffff7 	bne	8840 <va_printk+0x48>
    8860:	e5d62001 	ldrb	r2, [r6, #1]
    8864:	e3520025 	cmp	r2, #37, 0	; 0x25
    8868:	04c4c001 	strbeq	ip, [r4], #1
    886c:	02866002 	addeq	r6, r6, #2, 0
    8870:	0afffff4 	beq	8848 <va_printk+0x50>
    8874:	e2423030 	sub	r3, r2, #48, 0	; 0x30
    8878:	e3530009 	cmp	r3, #9, 0
    887c:	e3a05000 	mov	r5, #0, 0
    8880:	e2866001 	add	r6, r6, #1, 0
    8884:	8a000008 	bhi	88ac <va_printk+0xb4>
    8888:	e0855105 	add	r5, r5, r5, lsl #2
    888c:	e0825085 	add	r5, r2, r5, lsl #1
    8890:	e5f62001 	ldrb	r2, [r6, #1]!
    8894:	e2455030 	sub	r5, r5, #48, 0	; 0x30
    8898:	e2423030 	sub	r3, r2, #48, 0	; 0x30
    889c:	e3530009 	cmp	r3, #9, 0
    88a0:	9afffff8 	bls	8888 <va_printk+0x90>
    88a4:	e355001f 	cmp	r5, #31, 0
    88a8:	8a00013a 	bhi	8d98 <va_printk+0x5a0>
    88ac:	e2423062 	sub	r3, r2, #98, 0	; 0x62
    88b0:	e3530016 	cmp	r3, #22, 0
    88b4:	979ff103 	ldrls	pc, [pc, r3, lsl #2]
    88b8:	ea00011b 	b	8d2c <va_printk+0x534>
    88bc:	00008b70 	andeq	r8, r0, r0, ror fp
    88c0:	00008a6c 	andeq	r8, r0, ip, ror #20
    88c4:	00008a64 	andeq	r8, r0, r4, ror #20
    88c8:	00008d2c 	andeq	r8, r0, ip, lsr #26
    88cc:	00008d68 	andeq	r8, r0, r8, ror #26
    88d0:	00008d2c 	andeq	r8, r0, ip, lsr #26
    88d4:	00008d2c 	andeq	r8, r0, ip, lsr #26
    88d8:	00008d2c 	andeq	r8, r0, ip, lsr #26
    88dc:	00008d2c 	andeq	r8, r0, ip, lsr #26
    88e0:	00008d2c 	andeq	r8, r0, ip, lsr #26
    88e4:	00008974 	andeq	r8, r0, r4, ror r9
    88e8:	00008d2c 	andeq	r8, r0, ip, lsr #26
    88ec:	00008d2c 	andeq	r8, r0, ip, lsr #26
    88f0:	00008d2c 	andeq	r8, r0, ip, lsr #26
    88f4:	00008930 	andeq	r8, r0, r0, lsr r9
    88f8:	00008d2c 	andeq	r8, r0, ip, lsr #26
    88fc:	00008d2c 	andeq	r8, r0, ip, lsr #26
    8900:	00008c68 	andeq	r8, r0, r8, ror #24
    8904:	00008d2c 	andeq	r8, r0, ip, lsr #26
    8908:	00008a40 	andeq	r8, r0, r0, asr #20
    890c:	00008d2c 	andeq	r8, r0, ip, lsr #26
    8910:	00008d2c 	andeq	r8, r0, ip, lsr #26
    8914:	00008930 	andeq	r8, r0, r0, lsr r9
    8918:	e59db00c 	ldr	fp, [sp, #12]
    891c:	e3a03000 	mov	r3, #0, 0
    8920:	e4c43001 	strb	r3, [r4], #1
    8924:	e044000b 	sub	r0, r4, fp
    8928:	e28ddf47 	add	sp, sp, #284	; 0x11c
    892c:	e8bd8ff0 	pop	{r4, r5, r6, r7, r8, r9, sl, fp, pc}
    8930:	e3a01000 	mov	r1, #0, 0
    8934:	e1a03005 	mov	r3, r5
    8938:	e4982004 	ldr	r2, [r8], #4
    893c:	e3a00010 	mov	r0, #16, 0
    8940:	e58d1000 	str	r1, [sp]
    8944:	e28d1018 	add	r1, sp, #24, 0
    8948:	ebfffec8 	bl	8470 <emit.constprop.0>
    894c:	e1a05000 	mov	r5, r0
    8950:	e2866001 	add	r6, r6, #1, 0
    8954:	e2455001 	sub	r5, r5, #1, 0
    8958:	e5f53001 	ldrb	r3, [r5, #1]!
    895c:	e3530000 	cmp	r3, #0, 0
    8960:	0affffb8 	beq	8848 <va_printk+0x50>
    8964:	e4c43001 	strb	r3, [r4], #1
    8968:	e1570004 	cmp	r7, r4
    896c:	8afffff9 	bhi	8958 <va_printk+0x160>
    8970:	eaffffb4 	b	8848 <va_printk+0x50>
    8974:	e3a02003 	mov	r2, #3, 0
    8978:	e1a00006 	mov	r0, r6
    897c:	e59f1460 	ldr	r1, [pc, #1120]	; 8de4 <va_printk+0x5ec>
    8980:	eb0003e9 	bl	992c <strncmp>
    8984:	e3500000 	cmp	r0, #0, 0
    8988:	0a000005 	beq	89a4 <va_printk+0x1ac>
    898c:	e3a02003 	mov	r2, #3, 0
    8990:	e1a00006 	mov	r0, r6
    8994:	e59f144c 	ldr	r1, [pc, #1100]	; 8de8 <va_printk+0x5f0>
    8998:	eb0003e3 	bl	992c <strncmp>
    899c:	e3500000 	cmp	r0, #0, 0
    89a0:	1a00010b 	bne	8dd4 <va_printk+0x5dc>
    89a4:	e2888007 	add	r8, r8, #7, 0
    89a8:	e3c88007 	bic	r8, r8, #7, 0
    89ac:	e598b004 	ldr	fp, [r8, #4]
    89b0:	e4989008 	ldr	r9, [r8], #8
    89b4:	e1a0100b 	mov	r1, fp
    89b8:	e59f042c 	ldr	r0, [pc, #1068]	; 8dec <va_printk+0x5f4>
    89bc:	ebfffe78 	bl	83a4 <printk>
    89c0:	e1a01009 	mov	r1, r9
    89c4:	e59f0424 	ldr	r0, [pc, #1060]	; 8df0 <va_printk+0x5f8>
    89c8:	ebfffe75 	bl	83a4 <printk>
    89cc:	e3a02003 	mov	r2, #3, 0
    89d0:	e1a00006 	mov	r0, r6
    89d4:	e59f1408 	ldr	r1, [pc, #1032]	; 8de4 <va_printk+0x5ec>
    89d8:	eb0003d3 	bl	992c <strncmp>
    89dc:	e2503000 	subs	r3, r0, #0, 0
    89e0:	e1a02003 	mov	r2, r3
    89e4:	e2863002 	add	r3, r6, #2, 0
    89e8:	e58d3014 	str	r3, [sp, #20]
    89ec:	1a00009f 	bne	8c70 <va_printk+0x478>
    89f0:	e1a06002 	mov	r6, r2
    89f4:	e1a03005 	mov	r3, r5
    89f8:	e58d2000 	str	r2, [sp]
    89fc:	e28d1018 	add	r1, sp, #24, 0
    8a00:	e1a0200b 	mov	r2, fp
    8a04:	e3a00010 	mov	r0, #16, 0
    8a08:	ebfffe98 	bl	8470 <emit.constprop.0>
    8a0c:	e1a0c000 	mov	ip, r0
    8a10:	e1a03005 	mov	r3, r5
    8a14:	e58d6000 	str	r6, [sp]
    8a18:	e28d1098 	add	r1, sp, #152, 0	; 0x98
    8a1c:	e1a02009 	mov	r2, r9
    8a20:	e3a00010 	mov	r0, #16, 0
    8a24:	e1a0500c 	mov	r5, ip
    8a28:	ebfffe90 	bl	8470 <emit.constprop.0>
    8a2c:	e28d0018 	add	r0, sp, #24, 0
    8a30:	e28d109a 	add	r1, sp, #154, 0	; 0x9a
    8a34:	e59d6014 	ldr	r6, [sp, #20]
    8a38:	eb000399 	bl	98a4 <strcat>
    8a3c:	eaffffc3 	b	8950 <va_printk+0x158>
    8a40:	e3a01000 	mov	r1, #0, 0
    8a44:	e1a03005 	mov	r3, r5
    8a48:	e4982004 	ldr	r2, [r8], #4
    8a4c:	e3a0000a 	mov	r0, #10, 0
    8a50:	e58d1000 	str	r1, [sp]
    8a54:	e28d1018 	add	r1, sp, #24, 0
    8a58:	ebfffe84 	bl	8470 <emit.constprop.0>
    8a5c:	e1a05000 	mov	r5, r0
    8a60:	eaffffba 	b	8950 <va_printk+0x158>
    8a64:	e3a01001 	mov	r1, #1, 0
    8a68:	eafffff5 	b	8a44 <va_printk+0x24c>
    8a6c:	e4983004 	ldr	r3, [r8], #4
    8a70:	e3550001 	cmp	r5, #1, 0
    8a74:	e5cd3098 	strb	r3, [sp, #152]	; 0x98
    8a78:	9a0000a6 	bls	8d18 <va_printk+0x520>
    8a7c:	e2453002 	sub	r3, r5, #2, 0
    8a80:	e3530002 	cmp	r3, #2, 0
    8a84:	e2451001 	sub	r1, r5, #1, 0
    8a88:	9a0000bc 	bls	8d80 <va_printk+0x588>
    8a8c:	e59f0360 	ldr	r0, [pc, #864]	; 8df4 <va_printk+0x5fc>
    8a90:	e1a02121 	lsr	r2, r1, #2
    8a94:	e3520001 	cmp	r2, #1, 0
    8a98:	e58d0099 	str	r0, [sp, #153]	; 0x99
    8a9c:	0a00000e 	beq	8adc <va_printk+0x2e4>
    8aa0:	e3520002 	cmp	r2, #2, 0
    8aa4:	e58d009d 	str	r0, [sp, #157]	; 0x9d
    8aa8:	0a00000b 	beq	8adc <va_printk+0x2e4>
    8aac:	e3520003 	cmp	r2, #3, 0
    8ab0:	e58d00a1 	str	r0, [sp, #161]	; 0xa1
    8ab4:	0a000008 	beq	8adc <va_printk+0x2e4>
    8ab8:	e3520004 	cmp	r2, #4, 0
    8abc:	e58d00a5 	str	r0, [sp, #165]	; 0xa5
    8ac0:	0a000005 	beq	8adc <va_printk+0x2e4>
    8ac4:	e3520005 	cmp	r2, #5, 0
    8ac8:	e58d00a9 	str	r0, [sp, #169]	; 0xa9
    8acc:	0a000002 	beq	8adc <va_printk+0x2e4>
    8ad0:	e3520007 	cmp	r2, #7, 0
    8ad4:	e58d00ad 	str	r0, [sp, #173]	; 0xad
    8ad8:	058d00b1 	streq	r0, [sp, #177]	; 0xb1
    8adc:	e3c12003 	bic	r2, r1, #3, 0
    8ae0:	e1510002 	cmp	r1, r2
    8ae4:	e28dc099 	add	ip, sp, #153, 0	; 0x99
    8ae8:	e08c0002 	add	r0, ip, r2
    8aec:	e2822001 	add	r2, r2, #1, 0
    8af0:	0a000008 	beq	8b18 <va_printk+0x320>
    8af4:	e3a0e020 	mov	lr, #32, 0
    8af8:	e2829001 	add	r9, r2, #1, 0
    8afc:	e1550009 	cmp	r5, r9
    8b00:	e5c0e000 	strb	lr, [r0]
    8b04:	da000003 	ble	8b18 <va_printk+0x320>
    8b08:	e2822002 	add	r2, r2, #2, 0
    8b0c:	e1550002 	cmp	r5, r2
    8b10:	e5c0e001 	strb	lr, [r0, #1]
    8b14:	c5c0e002 	strbgt	lr, [r0, #2]
    8b18:	e3a0e000 	mov	lr, #0, 0
    8b1c:	e28d0098 	add	r0, sp, #152, 0	; 0x98
    8b20:	e08c2001 	add	r2, ip, r1
    8b24:	e0422000 	sub	r2, r2, r0
    8b28:	e352007f 	cmp	r2, #127, 0	; 0x7f
    8b2c:	c242207f 	subgt	r2, r2, #127, 0	; 0x7f
    8b30:	e08c3003 	add	r3, ip, r3
    8b34:	c0800002 	addgt	r0, r0, r2
    8b38:	e1530000 	cmp	r3, r0
    8b3c:	e7cce001 	strb	lr, [ip, r1]
    8b40:	3a00006c 	bcc	8cf8 <va_printk+0x500>
    8b44:	e283c001 	add	ip, r3, #1, 0
    8b48:	e1a0300c 	mov	r3, ip
    8b4c:	e28d5018 	add	r5, sp, #24, 0
    8b50:	e2452001 	sub	r2, r5, #1, 0
    8b54:	e5731001 	ldrb	r1, [r3, #-1]!
    8b58:	e1500003 	cmp	r0, r3
    8b5c:	e5e21001 	strb	r1, [r2, #1]!
    8b60:	1afffffb 	bne	8b54 <va_printk+0x35c>
    8b64:	e04c3000 	sub	r3, ip, r0
    8b68:	e0853003 	add	r3, r5, r3
    8b6c:	ea00003a 	b	8c5c <va_printk+0x464>
    8b70:	e28d1098 	add	r1, sp, #152, 0	; 0x98
    8b74:	e1a03001 	mov	r3, r1
    8b78:	e4980004 	ldr	r0, [r8], #4
    8b7c:	e200c001 	and	ip, r0, #1, 0
    8b80:	e7dac00c 	ldrb	ip, [sl, ip]
    8b84:	e3500001 	cmp	r0, #1, 0
    8b88:	e1a02003 	mov	r2, r3
    8b8c:	e1a000a0 	lsr	r0, r0, #1
    8b90:	e4c3c001 	strb	ip, [r3], #1
    8b94:	8afffff8 	bhi	8b7c <va_printk+0x384>
    8b98:	e0430001 	sub	r0, r3, r1
    8b9c:	e1550000 	cmp	r5, r0
    8ba0:	da000057 	ble	8d04 <va_printk+0x50c>
    8ba4:	e045c000 	sub	ip, r5, r0
    8ba8:	e24ce001 	sub	lr, ip, #1, 0
    8bac:	e35e0002 	cmp	lr, #2, 0
    8bb0:	e1a0e003 	mov	lr, r3
    8bb4:	9a00000a 	bls	8be4 <va_printk+0x3ec>
    8bb8:	e3cc9003 	bic	r9, ip, #3, 0
    8bbc:	e0899003 	add	r9, r9, r3
    8bc0:	e59fb22c 	ldr	fp, [pc, #556]	; 8df4 <va_printk+0x5fc>
    8bc4:	e48eb004 	str	fp, [lr], #4
    8bc8:	e15e0009 	cmp	lr, r9
    8bcc:	1afffffb 	bne	8bc0 <va_printk+0x3c8>
    8bd0:	e3cce003 	bic	lr, ip, #3, 0
    8bd4:	e15e000c 	cmp	lr, ip
    8bd8:	e080000e 	add	r0, r0, lr
    8bdc:	e083e00e 	add	lr, r3, lr
    8be0:	0a000008 	beq	8c08 <va_printk+0x410>
    8be4:	e3a09020 	mov	r9, #32, 0
    8be8:	e280b001 	add	fp, r0, #1, 0
    8bec:	e155000b 	cmp	r5, fp
    8bf0:	e5ce9000 	strb	r9, [lr]
    8bf4:	da000003 	ble	8c08 <va_printk+0x410>
    8bf8:	e2800002 	add	r0, r0, #2, 0
    8bfc:	e1550000 	cmp	r5, r0
    8c00:	e5ce9001 	strb	r9, [lr, #1]
    8c04:	c5ce9002 	strbgt	r9, [lr, #2]
    8c08:	e3a0e000 	mov	lr, #0, 0
    8c0c:	e083000c 	add	r0, r3, ip
    8c10:	e0400001 	sub	r0, r0, r1
    8c14:	e350007f 	cmp	r0, #127, 0	; 0x7f
    8c18:	e082200c 	add	r2, r2, ip
    8c1c:	e7c3e00c 	strb	lr, [r3, ip]
    8c20:	da000001 	ble	8c2c <va_printk+0x434>
    8c24:	e240007f 	sub	r0, r0, #127, 0	; 0x7f
    8c28:	e0811000 	add	r1, r1, r0
    8c2c:	e1510002 	cmp	r1, r2
    8c30:	8a000030 	bhi	8cf8 <va_printk+0x500>
    8c34:	e2822001 	add	r2, r2, #1, 0
    8c38:	e1a03002 	mov	r3, r2
    8c3c:	e28d5018 	add	r5, sp, #24, 0
    8c40:	e245c001 	sub	ip, r5, #1, 0
    8c44:	e5730001 	ldrb	r0, [r3, #-1]!
    8c48:	e1530001 	cmp	r3, r1
    8c4c:	e5ec0001 	strb	r0, [ip, #1]!
    8c50:	1afffffb 	bne	8c44 <va_printk+0x44c>
    8c54:	e0423003 	sub	r3, r2, r3
    8c58:	e0853003 	add	r3, r5, r3
    8c5c:	e3a02000 	mov	r2, #0, 0
    8c60:	e5c32000 	strb	r2, [r3]
    8c64:	eaffff39 	b	8950 <va_printk+0x158>
    8c68:	e4985004 	ldr	r5, [r8], #4
    8c6c:	eaffff37 	b	8950 <va_printk+0x158>
    8c70:	e3a02003 	mov	r2, #3, 0
    8c74:	e1a00006 	mov	r0, r6
    8c78:	e59f1168 	ldr	r1, [pc, #360]	; 8de8 <va_printk+0x5f0>
    8c7c:	eb00032a 	bl	992c <strncmp>
    8c80:	e2503000 	subs	r3, r0, #0, 0
    8c84:	1a00004b 	bne	8db8 <va_printk+0x5c0>
    8c88:	e1a06003 	mov	r6, r3
    8c8c:	e1a0200b 	mov	r2, fp
    8c90:	e58d3000 	str	r3, [sp]
    8c94:	e28d1018 	add	r1, sp, #24, 0
    8c98:	e1a03005 	mov	r3, r5
    8c9c:	e3a0000a 	mov	r0, #10, 0
    8ca0:	ebfffdf2 	bl	8470 <emit.constprop.0>
    8ca4:	e1a0c000 	mov	ip, r0
    8ca8:	e1a03005 	mov	r3, r5
    8cac:	e1a02009 	mov	r2, r9
    8cb0:	e28d1098 	add	r1, sp, #152, 0	; 0x98
    8cb4:	e3a0000a 	mov	r0, #10, 0
    8cb8:	e58d6000 	str	r6, [sp]
    8cbc:	e1a0500c 	mov	r5, ip
    8cc0:	ebfffdea 	bl	8470 <emit.constprop.0>
    8cc4:	e59f112c 	ldr	r1, [pc, #300]	; 8df8 <va_printk+0x600>
    8cc8:	e28d0018 	add	r0, sp, #24, 0
    8ccc:	eb0002ff 	bl	98d0 <strcmp>
    8cd0:	e3500000 	cmp	r0, #0, 0
    8cd4:	e28d1098 	add	r1, sp, #152, 0	; 0x98
    8cd8:	e28d0018 	add	r0, sp, #24, 0
    8cdc:	1a000002 	bne	8cec <va_printk+0x4f4>
    8ce0:	eb00030b 	bl	9914 <strcpy>
    8ce4:	e59d6014 	ldr	r6, [sp, #20]
    8ce8:	eaffff18 	b	8950 <va_printk+0x158>
    8cec:	eb0002ec 	bl	98a4 <strcat>
    8cf0:	e59d6014 	ldr	r6, [sp, #20]
    8cf4:	eaffff15 	b	8950 <va_printk+0x158>
    8cf8:	e28d5018 	add	r5, sp, #24, 0
    8cfc:	e1a03005 	mov	r3, r5
    8d00:	eaffffd5 	b	8c5c <va_printk+0x464>
    8d04:	e3a0c000 	mov	ip, #0, 0
    8d08:	e350007f 	cmp	r0, #127, 0	; 0x7f
    8d0c:	e5c3c000 	strb	ip, [r3]
    8d10:	caffffc3 	bgt	8c24 <va_printk+0x42c>
    8d14:	eaffffc6 	b	8c34 <va_printk+0x43c>
    8d18:	e3a02000 	mov	r2, #0, 0
    8d1c:	e28d3098 	add	r3, sp, #152, 0	; 0x98
    8d20:	e1a00003 	mov	r0, r3
    8d24:	e5cd2099 	strb	r2, [sp, #153]	; 0x99
    8d28:	eaffff85 	b	8b44 <va_printk+0x34c>
    8d2c:	e3a03000 	mov	r3, #0, 0
    8d30:	e1a01002 	mov	r1, r2
    8d34:	e5c63001 	strb	r3, [r6, #1]
    8d38:	e59f00bc 	ldr	r0, [pc, #188]	; 8dfc <va_printk+0x604>
    8d3c:	ebfffd98 	bl	83a4 <printk>
    8d40:	e59f30b8 	ldr	r3, [pc, #184]	; 8e00 <va_printk+0x608>
    8d44:	e59d0010 	ldr	r0, [sp, #16]
    8d48:	e5933000 	ldr	r3, [r3]
    8d4c:	e12fff33 	blx	r3
    8d50:	e3a030e2 	mov	r3, #226, 0	; 0xe2
    8d54:	e59f20a8 	ldr	r2, [pc, #168]	; 8e04 <va_printk+0x60c>
    8d58:	e59f10a8 	ldr	r1, [pc, #168]	; 8e08 <va_printk+0x610>
    8d5c:	e59f00a8 	ldr	r0, [pc, #168]	; 8e0c <va_printk+0x614>
    8d60:	ebfffd8f 	bl	83a4 <printk>
    8d64:	eb00002e 	bl	8e24 <clean_reboot>
    8d68:	e3a030be 	mov	r3, #190, 0	; 0xbe
    8d6c:	e59f2090 	ldr	r2, [pc, #144]	; 8e04 <va_printk+0x60c>
    8d70:	e59f1090 	ldr	r1, [pc, #144]	; 8e08 <va_printk+0x610>
    8d74:	e59f0094 	ldr	r0, [pc, #148]	; 8e10 <va_printk+0x618>
    8d78:	ebfffd89 	bl	83a4 <printk>
    8d7c:	eb000028 	bl	8e24 <clean_reboot>
    8d80:	e28dc099 	add	ip, sp, #153, 0	; 0x99
    8d84:	e1a0000c 	mov	r0, ip
    8d88:	e3a02001 	mov	r2, #1, 0
    8d8c:	eaffff58 	b	8af4 <va_printk+0x2fc>
    8d90:	e1a0400b 	mov	r4, fp
    8d94:	eafffee0 	b	891c <va_printk+0x124>
    8d98:	e3a03098 	mov	r3, #152, 0	; 0x98
    8d9c:	e59f2070 	ldr	r2, [pc, #112]	; 8e14 <va_printk+0x61c>
    8da0:	e59f1060 	ldr	r1, [pc, #96]	; 8e08 <va_printk+0x610>
    8da4:	e58d2000 	str	r2, [sp]
    8da8:	e59f0068 	ldr	r0, [pc, #104]	; 8e18 <va_printk+0x620>
    8dac:	e59f2050 	ldr	r2, [pc, #80]	; 8e04 <va_printk+0x60c>
    8db0:	ebfffd7b 	bl	83a4 <printk>
    8db4:	eb00001a 	bl	8e24 <clean_reboot>
    8db8:	e3a030b6 	mov	r3, #182, 0	; 0xb6
    8dbc:	e59f2040 	ldr	r2, [pc, #64]	; 8e04 <va_printk+0x60c>
    8dc0:	e59f1040 	ldr	r1, [pc, #64]	; 8e08 <va_printk+0x610>
    8dc4:	e59f0050 	ldr	r0, [pc, #80]	; 8e1c <va_printk+0x624>
    8dc8:	e58d6000 	str	r6, [sp]
    8dcc:	ebfffd74 	bl	83a4 <printk>
    8dd0:	eb000013 	bl	8e24 <clean_reboot>
    8dd4:	e3a0309f 	mov	r3, #159, 0	; 0x9f
    8dd8:	e59f2040 	ldr	r2, [pc, #64]	; 8e20 <va_printk+0x628>
    8ddc:	eaffffef 	b	8da0 <va_printk+0x5a8>
    8de0:	00009a80 	andeq	r9, r0, r0, lsl #21
    8de4:	00009aa4 	andeq	r9, r0, r4, lsr #21
    8de8:	00009ab8 			; <UNDEFINED> instruction: 0x00009ab8
    8dec:	00009aa8 	andeq	r9, r0, r8, lsr #21
    8df0:	00009ab0 			; <UNDEFINED> instruction: 0x00009ab0
    8df4:	20202020 	eorcs	r2, r0, r0, lsr #32
    8df8:	00009a68 	andeq	r9, r0, r8, ror #20
    8dfc:	00009b48 	andeq	r9, r0, r8, asr #22
    8e00:	00009dc8 	andeq	r9, r0, r8, asr #27
    8e04:	00009bb0 			; <UNDEFINED> instruction: 0x00009bb0
    8e08:	00009a54 	andeq	r9, r0, r4, asr sl
    8e0c:	00009b78 	andeq	r9, r0, r8, ror fp
    8e10:	00009b20 	andeq	r9, r0, r0, lsr #22
    8e14:	00009a98 	muleq	r0, r8, sl
    8e18:	000099d4 	ldrdeq	r9, [r0], -r4
    8e1c:	00009af8 	strdeq	r9, [r0], -r8
    8e20:	00009abc 			; <UNDEFINED> instruction: 0x00009abc

00008e24 <clean_reboot>:
    8e24:	e59f301c 	ldr	r3, [pc, #28]	; 8e48 <clean_reboot+0x24>
    8e28:	e92d4010 	push	{r4, lr}
    8e2c:	e5933000 	ldr	r3, [r3]
    8e30:	e59f0014 	ldr	r0, [pc, #20]	; 8e4c <clean_reboot+0x28>
    8e34:	e12fff33 	blx	r3
    8e38:	eb00011b 	bl	92ac <uart_flush_tx>
    8e3c:	e3a0000a 	mov	r0, #10, 0
    8e40:	eb000082 	bl	9050 <delay_ms>
    8e44:	eb00004b 	bl	8f78 <rpi_reboot>
    8e48:	00009dc8 	andeq	r9, r0, r8, asr #27
    8e4c:	00009bbc 			; <UNDEFINED> instruction: 0x00009bbc

00008e50 <_cstart>:
    8e50:	e92d4070 	push	{r4, r5, r6, lr}
    8e54:	eb00003b 	bl	8f48 <custom_loader>
    8e58:	e59f20e0 	ldr	r2, [pc, #224]	; 8f40 <_cstart+0xf0>
    8e5c:	e59fc0e0 	ldr	ip, [pc, #224]	; 8f44 <_cstart+0xf4>
    8e60:	e152000c 	cmp	r2, ip
    8e64:	2a00002e 	bcs	8f24 <_cstart+0xd4>
    8e68:	e24c1001 	sub	r1, ip, #1, 0
    8e6c:	e0411002 	sub	r1, r1, r2
    8e70:	e3510017 	cmp	r1, #23, 0
    8e74:	e1a03122 	lsr	r3, r2, #2
    8e78:	e1a01121 	lsr	r1, r1, #2
    8e7c:	e2811001 	add	r1, r1, #1, 0
    8e80:	e2033001 	and	r3, r3, #1, 0
    8e84:	9a00002b 	bls	8f38 <_cstart+0xe8>
    8e88:	e3530000 	cmp	r3, #0, 0
    8e8c:	11a00002 	movne	r0, r2
    8e90:	13a0e000 	movne	lr, #0, 0
    8e94:	e3a04000 	mov	r4, #0, 0
    8e98:	e3a05000 	mov	r5, #0, 0
    8e9c:	e0411003 	sub	r1, r1, r3
    8ea0:	01a00002 	moveq	r0, r2
    8ea4:	e0823103 	add	r3, r2, r3, lsl #2
    8ea8:	e1a020a1 	lsr	r2, r1, #1
    8eac:	1480e004 	strne	lr, [r0], #4
    8eb0:	e0832182 	add	r2, r3, r2, lsl #3
    8eb4:	e0c340f8 	strd	r4, [r3], #8
    8eb8:	e1520003 	cmp	r2, r3
    8ebc:	1afffffc 	bne	8eb4 <_cstart+0x64>
    8ec0:	e3c13001 	bic	r3, r1, #1, 0
    8ec4:	e1510003 	cmp	r1, r3
    8ec8:	e0803103 	add	r3, r0, r3, lsl #2
    8ecc:	0a000014 	beq	8f24 <_cstart+0xd4>
    8ed0:	e1a01003 	mov	r1, r3
    8ed4:	e3a02000 	mov	r2, #0, 0
    8ed8:	e4812004 	str	r2, [r1], #4
    8edc:	e151000c 	cmp	r1, ip
    8ee0:	2a00000f 	bcs	8f24 <_cstart+0xd4>
    8ee4:	e2831008 	add	r1, r3, #8, 0
    8ee8:	e151000c 	cmp	r1, ip
    8eec:	e5832004 	str	r2, [r3, #4]
    8ef0:	2a00000b 	bcs	8f24 <_cstart+0xd4>
    8ef4:	e283100c 	add	r1, r3, #12, 0
    8ef8:	e151000c 	cmp	r1, ip
    8efc:	e5832008 	str	r2, [r3, #8]
    8f00:	2a000007 	bcs	8f24 <_cstart+0xd4>
    8f04:	e2831010 	add	r1, r3, #16, 0
    8f08:	e151000c 	cmp	r1, ip
    8f0c:	e583200c 	str	r2, [r3, #12]
    8f10:	2a000003 	bcs	8f24 <_cstart+0xd4>
    8f14:	e2831014 	add	r1, r3, #20, 0
    8f18:	e151000c 	cmp	r1, ip
    8f1c:	e5832010 	str	r2, [r3, #16]
    8f20:	35832014 	strcc	r2, [r3, #20]
    8f24:	eb000082 	bl	9134 <uart_init>
    8f28:	e3a03001 	mov	r3, #1, 0
    8f2c:	ee0f3f1c 	mcr	15, 0, r3, cr15, cr12, {0}
    8f30:	ebfffc85 	bl	814c <notmain>
    8f34:	ebffffba 	bl	8e24 <clean_reboot>
    8f38:	e1a03002 	mov	r3, r2
    8f3c:	eaffffe3 	b	8ed0 <_cstart+0x80>
    8f40:	00009dd8 	ldrdeq	r9, [r0], -r8
    8f44:	0000a1f0 	strdeq	sl, [r0], -r0

00008f48 <custom_loader>:
    8f48:	e12fff1e 	bx	lr

00008f4c <at_user_level>:
    8f4c:	e10f0000 	mrs	r0, CPSR
    8f50:	e200001f 	and	r0, r0, #31, 0
    8f54:	e2400010 	sub	r0, r0, #16, 0
    8f58:	e16f0f10 	clz	r0, r0
    8f5c:	e1a002a0 	lsr	r0, r0, #5
    8f60:	e12fff1e 	bx	lr

00008f64 <set_user_level>:
    8f64:	e10f3000 	mrs	r3, CPSR
    8f68:	e3c3301f 	bic	r3, r3, #31, 0
    8f6c:	e3833010 	orr	r3, r3, #16, 0
    8f70:	e129f003 	msr	CPSR_fc, r3
    8f74:	e12fff1e 	bx	lr

00008f78 <rpi_reboot>:
    8f78:	e92d4010 	push	{r4, lr}
    8f7c:	e10f3000 	mrs	r3, CPSR
    8f80:	e203301f 	and	r3, r3, #31, 0
    8f84:	e3530010 	cmp	r3, #16, 0
    8f88:	1a000003 	bne	8f9c <rpi_reboot+0x24>
    8f8c:	e10f3000 	mrs	r3, CPSR
    8f90:	e3c3301f 	bic	r3, r3, #31, 0
    8f94:	e3833010 	orr	r3, r3, #16, 0
    8f98:	e129f003 	msr	CPSR_fc, r3
    8f9c:	eb00026e 	bl	995c <reboot_callout>
    8fa0:	eb0000c1 	bl	92ac <uart_flush_tx>
    8fa4:	e3a0000a 	mov	r0, #10, 0
    8fa8:	eb000028 	bl	9050 <delay_ms>
    8fac:	e59f1014 	ldr	r1, [pc, #20]	; 8fc8 <rpi_reboot+0x50>
    8fb0:	e59f0014 	ldr	r0, [pc, #20]	; 8fcc <rpi_reboot+0x54>
    8fb4:	ebfffc1a 	bl	8024 <PUT32>
    8fb8:	e59f1010 	ldr	r1, [pc, #16]	; 8fd0 <rpi_reboot+0x58>
    8fbc:	e59f0010 	ldr	r0, [pc, #16]	; 8fd4 <rpi_reboot+0x5c>
    8fc0:	ebfffc17 	bl	8024 <PUT32>
    8fc4:	eafffffe 	b	8fc4 <rpi_reboot+0x4c>
    8fc8:	5a000001 	bpl	8fd4 <rpi_reboot+0x5c>
    8fcc:	20100024 	andscs	r0, r0, r4, lsr #32
    8fd0:	5a000020 	bpl	9058 <delay_ms+0x8>
    8fd4:	2010001c 	andscs	r0, r0, ip, lsl r0

00008fd8 <timer_get_usec_raw>:
    8fd8:	e59f0000 	ldr	r0, [pc]	; 8fe0 <timer_get_usec_raw+0x8>
    8fdc:	eafffc12 	b	802c <GET32>
    8fe0:	20003004 	andcs	r3, r0, r4

00008fe4 <timer_get_usec>:
    8fe4:	e92d4010 	push	{r4, lr}
    8fe8:	eb00025c 	bl	9960 <dev_barrier>
    8fec:	e59f0010 	ldr	r0, [pc, #16]	; 9004 <timer_get_usec+0x20>
    8ff0:	ebfffc0d 	bl	802c <GET32>
    8ff4:	e1a04000 	mov	r4, r0
    8ff8:	eb000258 	bl	9960 <dev_barrier>
    8ffc:	e1a00004 	mov	r0, r4
    9000:	e8bd8010 	pop	{r4, pc}
    9004:	20003004 	andcs	r3, r0, r4

00009008 <delay_us>:
    9008:	e92d41f0 	push	{r4, r5, r6, r7, r8, lr}
    900c:	e1a06000 	mov	r6, r0
    9010:	eb000252 	bl	9960 <dev_barrier>
    9014:	e59f0030 	ldr	r0, [pc, #48]	; 904c <delay_us+0x44>
    9018:	ebfffc03 	bl	802c <GET32>
    901c:	e1a05000 	mov	r5, r0
    9020:	eb00024e 	bl	9960 <dev_barrier>
    9024:	e59f7020 	ldr	r7, [pc, #32]	; 904c <delay_us+0x44>
    9028:	eb00024c 	bl	9960 <dev_barrier>
    902c:	e1a00007 	mov	r0, r7
    9030:	ebfffbfd 	bl	802c <GET32>
    9034:	e1a04000 	mov	r4, r0
    9038:	e0444005 	sub	r4, r4, r5
    903c:	eb000247 	bl	9960 <dev_barrier>
    9040:	e1540006 	cmp	r4, r6
    9044:	3afffff7 	bcc	9028 <delay_us+0x20>
    9048:	e8bd81f0 	pop	{r4, r5, r6, r7, r8, pc}
    904c:	20003004 	andcs	r3, r0, r4

00009050 <delay_ms>:
    9050:	e92d41f0 	push	{r4, r5, r6, r7, r8, lr}
    9054:	e0604280 	rsb	r4, r0, r0, lsl #5
    9058:	e0800104 	add	r0, r0, r4, lsl #2
    905c:	e1a04180 	lsl	r4, r0, #3
    9060:	eb00023e 	bl	9960 <dev_barrier>
    9064:	e59f0030 	ldr	r0, [pc, #48]	; 909c <delay_ms+0x4c>
    9068:	ebfffbef 	bl	802c <GET32>
    906c:	e1a06000 	mov	r6, r0
    9070:	eb00023a 	bl	9960 <dev_barrier>
    9074:	e59f7020 	ldr	r7, [pc, #32]	; 909c <delay_ms+0x4c>
    9078:	eb000238 	bl	9960 <dev_barrier>
    907c:	e1a00007 	mov	r0, r7
    9080:	ebfffbe9 	bl	802c <GET32>
    9084:	e1a05000 	mov	r5, r0
    9088:	e0455006 	sub	r5, r5, r6
    908c:	eb000233 	bl	9960 <dev_barrier>
    9090:	e1540005 	cmp	r4, r5
    9094:	8afffff7 	bhi	9078 <delay_ms+0x28>
    9098:	e8bd81f0 	pop	{r4, r5, r6, r7, r8, pc}
    909c:	20003004 	andcs	r3, r0, r4

000090a0 <delay_sec>:
    90a0:	e92d41f0 	push	{r4, r5, r6, r7, r8, lr}
    90a4:	e0604280 	rsb	r4, r0, r0, lsl #5
    90a8:	e0644304 	rsb	r4, r4, r4, lsl #6
    90ac:	e0800184 	add	r0, r0, r4, lsl #3
    90b0:	e1a04300 	lsl	r4, r0, #6
    90b4:	eb000229 	bl	9960 <dev_barrier>
    90b8:	e59f0030 	ldr	r0, [pc, #48]	; 90f0 <delay_sec+0x50>
    90bc:	ebfffbda 	bl	802c <GET32>
    90c0:	e1a06000 	mov	r6, r0
    90c4:	eb000225 	bl	9960 <dev_barrier>
    90c8:	e59f7020 	ldr	r7, [pc, #32]	; 90f0 <delay_sec+0x50>
    90cc:	eb000223 	bl	9960 <dev_barrier>
    90d0:	e1a00007 	mov	r0, r7
    90d4:	ebfffbd4 	bl	802c <GET32>
    90d8:	e1a05000 	mov	r5, r0
    90dc:	e0455006 	sub	r5, r5, r6
    90e0:	eb00021e 	bl	9960 <dev_barrier>
    90e4:	e1540005 	cmp	r4, r5
    90e8:	8afffff7 	bhi	90cc <delay_sec+0x2c>
    90ec:	e8bd81f0 	pop	{r4, r5, r6, r7, r8, pc}
    90f0:	20003004 	andcs	r3, r0, r4

000090f4 <and_in32>:
    90f4:	e92d4070 	push	{r4, r5, r6, lr}
    90f8:	e1a04000 	mov	r4, r0
    90fc:	e1a05001 	mov	r5, r1
    9100:	ebfffbc9 	bl	802c <GET32>
    9104:	e0001005 	and	r1, r0, r5
    9108:	e1a00004 	mov	r0, r4
    910c:	ebfffbc4 	bl	8024 <PUT32>
    9110:	e8bd8070 	pop	{r4, r5, r6, pc}

00009114 <or_in32>:
    9114:	e92d4070 	push	{r4, r5, r6, lr}
    9118:	e1a04000 	mov	r4, r0
    911c:	e1a05001 	mov	r5, r1
    9120:	ebfffbc1 	bl	802c <GET32>
    9124:	e1801005 	orr	r1, r0, r5
    9128:	e1a00004 	mov	r0, r4
    912c:	ebfffbbc 	bl	8024 <PUT32>
    9130:	e8bd8070 	pop	{r4, r5, r6, pc}

00009134 <uart_init>:
    9134:	e92d4010 	push	{r4, lr}
    9138:	e3a01002 	mov	r1, #2, 0
    913c:	e3a0000e 	mov	r0, #14, 0
    9140:	eb000153 	bl	9694 <gpio_set_function>
    9144:	e3a01002 	mov	r1, #2, 0
    9148:	e3a0000f 	mov	r0, #15, 0
    914c:	eb000150 	bl	9694 <gpio_set_function>
    9150:	eb000202 	bl	9960 <dev_barrier>
    9154:	e3a01001 	mov	r1, #1, 0
    9158:	e59f0064 	ldr	r0, [pc, #100]	; 91c4 <uart_init+0x90>
    915c:	ebffffec 	bl	9114 <or_in32>
    9160:	eb0001fe 	bl	9960 <dev_barrier>
    9164:	e59f405c 	ldr	r4, [pc, #92]	; 91c8 <uart_init+0x94>
    9168:	e3a01000 	mov	r1, #0, 0
    916c:	e1a00004 	mov	r0, r4
    9170:	ebfffbab 	bl	8024 <PUT32>
    9174:	e3a01000 	mov	r1, #0, 0
    9178:	e59f004c 	ldr	r0, [pc, #76]	; 91cc <uart_init+0x98>
    917c:	ebfffba8 	bl	8024 <PUT32>
    9180:	e3a01003 	mov	r1, #3, 0
    9184:	e59f0044 	ldr	r0, [pc, #68]	; 91d0 <uart_init+0x9c>
    9188:	ebfffba5 	bl	8024 <PUT32>
    918c:	e3a01000 	mov	r1, #0, 0
    9190:	e59f003c 	ldr	r0, [pc, #60]	; 91d4 <uart_init+0xa0>
    9194:	ebfffba2 	bl	8024 <PUT32>
    9198:	e3a010c7 	mov	r1, #199, 0	; 0xc7
    919c:	e59f0034 	ldr	r0, [pc, #52]	; 91d8 <uart_init+0xa4>
    91a0:	ebfffb9f 	bl	8024 <PUT32>
    91a4:	e59f1030 	ldr	r1, [pc, #48]	; 91dc <uart_init+0xa8>
    91a8:	e59f0030 	ldr	r0, [pc, #48]	; 91e0 <uart_init+0xac>
    91ac:	ebfffb9c 	bl	8024 <PUT32>
    91b0:	e3a01003 	mov	r1, #3, 0
    91b4:	e1a00004 	mov	r0, r4
    91b8:	ebfffb99 	bl	8024 <PUT32>
    91bc:	eb0001e7 	bl	9960 <dev_barrier>
    91c0:	e8bd8010 	pop	{r4, pc}
    91c4:	20215004 	eorcs	r5, r1, r4
    91c8:	20215060 	eorcs	r5, r1, r0, rrx
    91cc:	20215044 	eorcs	r5, r1, r4, asr #32
    91d0:	2021504c 	eorcs	r5, r1, ip, asr #32
    91d4:	20215050 	eorcs	r5, r1, r0, asr r0
    91d8:	20215048 	eorcs	r5, r1, r8, asr #32
    91dc:	0000010e 	andeq	r0, r0, lr, lsl #2
    91e0:	20215068 	eorcs	r5, r1, r8, rrx

000091e4 <uart_can_getc>:
    91e4:	e92d4010 	push	{r4, lr}
    91e8:	e59f0008 	ldr	r0, [pc, #8]	; 91f8 <uart_can_getc+0x14>
    91ec:	ebfffb8e 	bl	802c <GET32>
    91f0:	e2000001 	and	r0, r0, #1, 0
    91f4:	e8bd8010 	pop	{r4, pc}
    91f8:	20215064 	eorcs	r5, r1, r4, rrx

000091fc <uart_can_putc>:
    91fc:	e92d4010 	push	{r4, lr}
    9200:	e59f0010 	ldr	r0, [pc, #16]	; 9218 <uart_can_putc+0x1c>
    9204:	ebfffb88 	bl	802c <GET32>
    9208:	e3100002 	tst	r0, #2, 0
    920c:	13a00001 	movne	r0, #1, 0
    9210:	03a00000 	moveq	r0, #0, 0
    9214:	e8bd8010 	pop	{r4, pc}
    9218:	20215064 	eorcs	r5, r1, r4, rrx

0000921c <uart_getc>:
    921c:	e92d4010 	push	{r4, lr}
    9220:	eb0001ce 	bl	9960 <dev_barrier>
    9224:	ebffffee 	bl	91e4 <uart_can_getc>
    9228:	e3500000 	cmp	r0, #0, 0
    922c:	0afffffc 	beq	9224 <uart_getc+0x8>
    9230:	e59f0010 	ldr	r0, [pc, #16]	; 9248 <uart_getc+0x2c>
    9234:	ebfffb7c 	bl	802c <GET32>
    9238:	e6ef4070 	uxtb	r4, r0
    923c:	eb0001c7 	bl	9960 <dev_barrier>
    9240:	e1a00004 	mov	r0, r4
    9244:	e8bd8010 	pop	{r4, pc}
    9248:	20215040 	eorcs	r5, r1, r0, asr #32

0000924c <uart_putc>:
    924c:	e92d4010 	push	{r4, lr}
    9250:	e1a04000 	mov	r4, r0
    9254:	eb0001c1 	bl	9960 <dev_barrier>
    9258:	ebffffe7 	bl	91fc <uart_can_putc>
    925c:	e3500000 	cmp	r0, #0, 0
    9260:	0afffffc 	beq	9258 <uart_putc+0xc>
    9264:	e6ef1074 	uxtb	r1, r4
    9268:	e59f0008 	ldr	r0, [pc, #8]	; 9278 <uart_putc+0x2c>
    926c:	ebfffb6c 	bl	8024 <PUT32>
    9270:	eb0001ba 	bl	9960 <dev_barrier>
    9274:	e8bd8010 	pop	{r4, pc}
    9278:	20215040 	eorcs	r5, r1, r0, asr #32

0000927c <uart_has_data>:
    927c:	e92d4010 	push	{r4, lr}
    9280:	eb0001b6 	bl	9960 <dev_barrier>
    9284:	ebffffd6 	bl	91e4 <uart_can_getc>
    9288:	e8bd8010 	pop	{r4, pc}

0000928c <uart_tx_is_empty>:
    928c:	e92d4010 	push	{r4, lr}
    9290:	eb0001b2 	bl	9960 <dev_barrier>
    9294:	e59f000c 	ldr	r0, [pc, #12]	; 92a8 <uart_tx_is_empty+0x1c>
    9298:	ebfffb63 	bl	802c <GET32>
    929c:	e1a004a0 	lsr	r0, r0, #9
    92a0:	e2000001 	and	r0, r0, #1, 0
    92a4:	e8bd8010 	pop	{r4, pc}
    92a8:	20215064 	eorcs	r5, r1, r4, rrx

000092ac <uart_flush_tx>:
    92ac:	e92d4010 	push	{r4, lr}
    92b0:	ebfffff5 	bl	928c <uart_tx_is_empty>
    92b4:	e3500000 	cmp	r0, #0, 0
    92b8:	0afffffc 	beq	92b0 <uart_flush_tx+0x4>
    92bc:	e8bd8010 	pop	{r4, pc}

000092c0 <uart_disable>:
    92c0:	e92d4010 	push	{r4, lr}
    92c4:	ebfffff8 	bl	92ac <uart_flush_tx>
    92c8:	eb0001a4 	bl	9960 <dev_barrier>
    92cc:	e3e01001 	mvn	r1, #1, 0
    92d0:	e59f0008 	ldr	r0, [pc, #8]	; 92e0 <uart_disable+0x20>
    92d4:	ebffff86 	bl	90f4 <and_in32>
    92d8:	eb0001a0 	bl	9960 <dev_barrier>
    92dc:	e8bd8010 	pop	{r4, pc}
    92e0:	20215004 	eorcs	r5, r1, r4

000092e4 <kmalloc_heap_end>:
    92e4:	e59f3004 	ldr	r3, [pc, #4]	; 92f0 <kmalloc_heap_end+0xc>
    92e8:	e5930000 	ldr	r0, [r3]
    92ec:	e12fff1e 	bx	lr
    92f0:	00009dcc 	andeq	r9, r0, ip, asr #27

000092f4 <kmalloc_heap_start>:
    92f4:	e59f3004 	ldr	r3, [pc, #4]	; 9300 <kmalloc_heap_start+0xc>
    92f8:	e5930004 	ldr	r0, [r3, #4]
    92fc:	e12fff1e 	bx	lr
    9300:	00009dcc 	andeq	r9, r0, ip, asr #27

00009304 <kmalloc_heap_ptr>:
    9304:	e59f3004 	ldr	r3, [pc, #4]	; 9310 <kmalloc_heap_ptr+0xc>
    9308:	e5930000 	ldr	r0, [r3]
    930c:	e12fff1e 	bx	lr
    9310:	00009dcc 	andeq	r9, r0, ip, asr #27

00009314 <kmalloc_init_set_start>:
    9314:	e52de004 	push	{lr}		; (str lr, [sp, #-4]!)
    9318:	e24dd00c 	sub	sp, sp, #12, 0
    931c:	e3510000 	cmp	r1, #0, 0
    9320:	0a00000a 	beq	9350 <kmalloc_init_set_start+0x3c>
    9324:	e59f306c 	ldr	r3, [pc, #108]	; 9398 <kmalloc_init_set_start+0x84>
    9328:	e5933000 	ldr	r3, [r3]
    932c:	e1530000 	cmp	r3, r0
    9330:	8a00000e 	bhi	9370 <kmalloc_init_set_start+0x5c>
    9334:	e59f305c 	ldr	r3, [pc, #92]	; 9398 <kmalloc_init_set_start+0x84>
    9338:	e5830000 	str	r0, [r3]
    933c:	e5830004 	str	r0, [r3, #4]
    9340:	e0800001 	add	r0, r0, r1
    9344:	e5830008 	str	r0, [r3, #8]
    9348:	e28dd00c 	add	sp, sp, #12, 0
    934c:	e49df004 	pop	{pc}		; (ldr pc, [sp], #4)
    9350:	e59f3044 	ldr	r3, [pc, #68]	; 939c <kmalloc_init_set_start+0x88>
    9354:	e58d3000 	str	r3, [sp]
    9358:	e3a03030 	mov	r3, #48, 0	; 0x30
    935c:	e59f203c 	ldr	r2, [pc, #60]	; 93a0 <kmalloc_init_set_start+0x8c>
    9360:	e59f103c 	ldr	r1, [pc, #60]	; 93a4 <kmalloc_init_set_start+0x90>
    9364:	e59f003c 	ldr	r0, [pc, #60]	; 93a8 <kmalloc_init_set_start+0x94>
    9368:	ebfffc0d 	bl	83a4 <printk>
    936c:	ebfffeac 	bl	8e24 <clean_reboot>
    9370:	e59f3020 	ldr	r3, [pc, #32]	; 9398 <kmalloc_init_set_start+0x84>
    9374:	e5933008 	ldr	r3, [r3, #8]
    9378:	e58d3004 	str	r3, [sp, #4]
    937c:	e58d0000 	str	r0, [sp]
    9380:	e3a03034 	mov	r3, #52, 0	; 0x34
    9384:	e59f2014 	ldr	r2, [pc, #20]	; 93a0 <kmalloc_init_set_start+0x8c>
    9388:	e59f1014 	ldr	r1, [pc, #20]	; 93a4 <kmalloc_init_set_start+0x90>
    938c:	e59f0018 	ldr	r0, [pc, #24]	; 93ac <kmalloc_init_set_start+0x98>
    9390:	ebfffc03 	bl	83a4 <printk>
    9394:	ebfffea2 	bl	8e24 <clean_reboot>
    9398:	00009dcc 	andeq	r9, r0, ip, asr #27
    939c:	00009bd4 	ldrdeq	r9, [r0], -r4
    93a0:	00009d60 	andeq	r9, r0, r0, ror #26
    93a4:	00009bc8 	andeq	r9, r0, r8, asr #23
    93a8:	000099d4 	ldrdeq	r9, [r0], -r4
    93ac:	00009be0 	andeq	r9, r0, r0, ror #23

000093b0 <kmalloc_init>:
    93b0:	e92d4010 	push	{r4, lr}
    93b4:	e59f303c 	ldr	r3, [pc, #60]	; 93f8 <kmalloc_init+0x48>
    93b8:	e5933000 	ldr	r3, [r3]
    93bc:	e3530000 	cmp	r3, #0, 0
    93c0:	1a000006 	bne	93e0 <kmalloc_init+0x30>
    93c4:	e59f302c 	ldr	r3, [pc, #44]	; 93f8 <kmalloc_init+0x48>
    93c8:	e3a02001 	mov	r2, #1, 0
    93cc:	e5832000 	str	r2, [r3]
    93d0:	e3a01201 	mov	r1, #268435456	; 0x10000000
    93d4:	e3a00601 	mov	r0, #1048576	; 0x100000
    93d8:	ebffffcd 	bl	9314 <kmalloc_init_set_start>
    93dc:	e8bd8010 	pop	{r4, pc}
    93e0:	e3a03040 	mov	r3, #64, 0	; 0x40
    93e4:	e59f2010 	ldr	r2, [pc, #16]	; 93fc <kmalloc_init+0x4c>
    93e8:	e59f1010 	ldr	r1, [pc, #16]	; 9400 <kmalloc_init+0x50>
    93ec:	e59f0010 	ldr	r0, [pc, #16]	; 9404 <kmalloc_init+0x54>
    93f0:	ebfffbeb 	bl	83a4 <printk>
    93f4:	ebfffe8a 	bl	8e24 <clean_reboot>
    93f8:	0000a1e8 	andeq	sl, r0, r8, ror #3
    93fc:	00009d78 	andeq	r9, r0, r8, ror sp
    9400:	00009bc8 	andeq	r9, r0, r8, asr #23
    9404:	00009c24 	andeq	r9, r0, r4, lsr #24

00009408 <kmalloc_notzero>:
    9408:	e52de004 	push	{lr}		; (str lr, [sp, #-4]!)
    940c:	e24dd00c 	sub	sp, sp, #12, 0
    9410:	e3500000 	cmp	r0, #0, 0
    9414:	0a00000a 	beq	9444 <kmalloc_notzero+0x3c>
    9418:	e2800007 	add	r0, r0, #7, 0
    941c:	e3c03007 	bic	r3, r0, #7, 0
    9420:	e59f2060 	ldr	r2, [pc, #96]	; 9488 <kmalloc_notzero+0x80>
    9424:	e5920000 	ldr	r0, [r2]
    9428:	e0801003 	add	r1, r0, r3
    942c:	e5821000 	str	r1, [r2]
    9430:	e5922008 	ldr	r2, [r2, #8]
    9434:	e1510002 	cmp	r1, r2
    9438:	8a000009 	bhi	9464 <kmalloc_notzero+0x5c>
    943c:	e28dd00c 	add	sp, sp, #12, 0
    9440:	e49df004 	pop	{pc}		; (ldr pc, [sp], #4)
    9444:	e59f3040 	ldr	r3, [pc, #64]	; 948c <kmalloc_notzero+0x84>
    9448:	e58d3000 	str	r3, [sp]
    944c:	e3a03048 	mov	r3, #72, 0	; 0x48
    9450:	e59f2038 	ldr	r2, [pc, #56]	; 9490 <kmalloc_notzero+0x88>
    9454:	e59f1038 	ldr	r1, [pc, #56]	; 9494 <kmalloc_notzero+0x8c>
    9458:	e59f0038 	ldr	r0, [pc, #56]	; 9498 <kmalloc_notzero+0x90>
    945c:	ebfffbd0 	bl	83a4 <printk>
    9460:	ebfffe6f 	bl	8e24 <clean_reboot>
    9464:	e0422000 	sub	r2, r2, r0
    9468:	e58d2004 	str	r2, [sp, #4]
    946c:	e58d3000 	str	r3, [sp]
    9470:	e3a0304e 	mov	r3, #78, 0	; 0x4e
    9474:	e59f2014 	ldr	r2, [pc, #20]	; 9490 <kmalloc_notzero+0x88>
    9478:	e59f1014 	ldr	r1, [pc, #20]	; 9494 <kmalloc_notzero+0x8c>
    947c:	e59f0018 	ldr	r0, [pc, #24]	; 949c <kmalloc_notzero+0x94>
    9480:	ebfffbc7 	bl	83a4 <printk>
    9484:	ebfffe66 	bl	8e24 <clean_reboot>
    9488:	00009dcc 	andeq	r9, r0, ip, asr #27
    948c:	00009bd8 	ldrdeq	r9, [r0], -r8
    9490:	00009d88 	andeq	r9, r0, r8, lsl #27
    9494:	00009bc8 	andeq	r9, r0, r8, asr #23
    9498:	000099d4 	ldrdeq	r9, [r0], -r4
    949c:	00009c54 	andeq	r9, r0, r4, asr ip

000094a0 <kmalloc>:
    94a0:	e92d4030 	push	{r4, r5, lr}
    94a4:	e24dd00c 	sub	sp, sp, #12, 0
    94a8:	e2504000 	subs	r4, r0, #0, 0
    94ac:	0a000008 	beq	94d4 <kmalloc+0x34>
    94b0:	e1a00004 	mov	r0, r4
    94b4:	ebffffd3 	bl	9408 <kmalloc_notzero>
    94b8:	e1a05000 	mov	r5, r0
    94bc:	e1a02004 	mov	r2, r4
    94c0:	e3a01000 	mov	r1, #0, 0
    94c4:	eb0000d8 	bl	982c <memset>
    94c8:	e1a00005 	mov	r0, r5
    94cc:	e28dd00c 	add	sp, sp, #12, 0
    94d0:	e8bd8030 	pop	{r4, r5, pc}
    94d4:	e59f3018 	ldr	r3, [pc, #24]	; 94f4 <kmalloc+0x54>
    94d8:	e58d3000 	str	r3, [sp]
    94dc:	e3a03054 	mov	r3, #84, 0	; 0x54
    94e0:	e59f2010 	ldr	r2, [pc, #16]	; 94f8 <kmalloc+0x58>
    94e4:	e59f1010 	ldr	r1, [pc, #16]	; 94fc <kmalloc+0x5c>
    94e8:	e59f0010 	ldr	r0, [pc, #16]	; 9500 <kmalloc+0x60>
    94ec:	ebfffbac 	bl	83a4 <printk>
    94f0:	ebfffe4b 	bl	8e24 <clean_reboot>
    94f4:	00009bd8 	ldrdeq	r9, [r0], -r8
    94f8:	00009d98 	muleq	r0, r8, sp
    94fc:	00009bc8 	andeq	r9, r0, r8, asr #23
    9500:	000099d4 	ldrdeq	r9, [r0], -r4

00009504 <kmalloc_aligned>:
    9504:	e52de004 	push	{lr}		; (str lr, [sp, #-4]!)
    9508:	e24dd00c 	sub	sp, sp, #12, 0
    950c:	e3500000 	cmp	r0, #0, 0
    9510:	0a000014 	beq	9568 <kmalloc_aligned+0x64>
    9514:	e2613000 	rsb	r3, r1, #0, 0
    9518:	e1d13003 	bics	r3, r1, r3
    951c:	1a000019 	bne	9588 <kmalloc_aligned+0x84>
    9520:	e3510008 	cmp	r1, #8, 0
    9524:	33a01008 	movcc	r1, #8, 0
    9528:	e59f30c0 	ldr	r3, [pc, #192]	; 95f0 <kmalloc_aligned+0xec>
    952c:	e5932000 	ldr	r2, [r3]
    9530:	e2613000 	rsb	r3, r1, #0, 0
    9534:	e1d1c003 	bics	ip, r1, r3
    9538:	1a00001b 	bne	95ac <kmalloc_aligned+0xa8>
    953c:	e0822001 	add	r2, r2, r1
    9540:	e2422001 	sub	r2, r2, #1, 0
    9544:	e0033002 	and	r3, r3, r2
    9548:	e2411001 	sub	r1, r1, #1, 0
    954c:	e1110003 	tst	r1, r3
    9550:	1a00001d 	bne	95cc <kmalloc_aligned+0xc8>
    9554:	e59f2094 	ldr	r2, [pc, #148]	; 95f0 <kmalloc_aligned+0xec>
    9558:	e5823000 	str	r3, [r2]
    955c:	ebffffcf 	bl	94a0 <kmalloc>
    9560:	e28dd00c 	add	sp, sp, #12, 0
    9564:	e49df004 	pop	{pc}		; (ldr pc, [sp], #4)
    9568:	e59f3084 	ldr	r3, [pc, #132]	; 95f4 <kmalloc_aligned+0xf0>
    956c:	e58d3000 	str	r3, [sp]
    9570:	e3a0305f 	mov	r3, #95, 0	; 0x5f
    9574:	e59f207c 	ldr	r2, [pc, #124]	; 95f8 <kmalloc_aligned+0xf4>
    9578:	e59f107c 	ldr	r1, [pc, #124]	; 95fc <kmalloc_aligned+0xf8>
    957c:	e59f007c 	ldr	r0, [pc, #124]	; 9600 <kmalloc_aligned+0xfc>
    9580:	ebfffb87 	bl	83a4 <printk>
    9584:	ebfffe26 	bl	8e24 <clean_reboot>
    9588:	ebfffba0 	bl	8410 <rpi_reset_putc>
    958c:	e59f3070 	ldr	r3, [pc, #112]	; 9604 <kmalloc_aligned+0x100>
    9590:	e58d3000 	str	r3, [sp]
    9594:	e3a03060 	mov	r3, #96, 0	; 0x60
    9598:	e59f2058 	ldr	r2, [pc, #88]	; 95f8 <kmalloc_aligned+0xf4>
    959c:	e59f1058 	ldr	r1, [pc, #88]	; 95fc <kmalloc_aligned+0xf8>
    95a0:	e59f0060 	ldr	r0, [pc, #96]	; 9608 <kmalloc_aligned+0x104>
    95a4:	ebfffb7e 	bl	83a4 <printk>
    95a8:	ebfffe1d 	bl	8e24 <clean_reboot>
    95ac:	e59f3058 	ldr	r3, [pc, #88]	; 960c <kmalloc_aligned+0x108>
    95b0:	e58d3000 	str	r3, [sp]
    95b4:	e3a03011 	mov	r3, #17, 0
    95b8:	e59f2050 	ldr	r2, [pc, #80]	; 9610 <kmalloc_aligned+0x10c>
    95bc:	e59f1038 	ldr	r1, [pc, #56]	; 95fc <kmalloc_aligned+0xf8>
    95c0:	e59f0038 	ldr	r0, [pc, #56]	; 9600 <kmalloc_aligned+0xfc>
    95c4:	ebfffb76 	bl	83a4 <printk>
    95c8:	ebfffe15 	bl	8e24 <clean_reboot>
    95cc:	ebfffb8f 	bl	8410 <rpi_reset_putc>
    95d0:	e59f303c 	ldr	r3, [pc, #60]	; 9614 <kmalloc_aligned+0x110>
    95d4:	e58d3000 	str	r3, [sp]
    95d8:	e3a03068 	mov	r3, #104, 0	; 0x68
    95dc:	e59f2014 	ldr	r2, [pc, #20]	; 95f8 <kmalloc_aligned+0xf4>
    95e0:	e59f1014 	ldr	r1, [pc, #20]	; 95fc <kmalloc_aligned+0xf8>
    95e4:	e59f002c 	ldr	r0, [pc, #44]	; 9618 <kmalloc_aligned+0x114>
    95e8:	ebfffb6d 	bl	83a4 <printk>
    95ec:	ebfffe0c 	bl	8e24 <clean_reboot>
    95f0:	00009dcc 	andeq	r9, r0, ip, asr #27
    95f4:	00009bd8 	ldrdeq	r9, [r0], -r8
    95f8:	00009da0 	andeq	r9, r0, r0, lsr #27
    95fc:	00009bc8 	andeq	r9, r0, r8, asr #23
    9600:	000099d4 	ldrdeq	r9, [r0], -r4
    9604:	00009cc8 	andeq	r9, r0, r8, asr #25
    9608:	00009c94 	muleq	r0, r4, ip
    960c:	00009cdc 	ldrdeq	r9, [r0], -ip
    9610:	00009db0 			; <UNDEFINED> instruction: 0x00009db0
    9614:	00009d14 	andeq	r9, r0, r4, lsl sp
    9618:	00009ce8 	andeq	r9, r0, r8, ror #25

0000961c <kfree>:
    961c:	e12fff1e 	bx	lr

00009620 <kfree_all>:
    9620:	e59f3008 	ldr	r3, [pc, #8]	; 9630 <kfree_all+0x10>
    9624:	e5932004 	ldr	r2, [r3, #4]
    9628:	e5832000 	str	r2, [r3]
    962c:	e12fff1e 	bx	lr
    9630:	00009dcc 	andeq	r9, r0, ip, asr #27

00009634 <kfree_pop>:
    9634:	e59f3048 	ldr	r3, [pc, #72]	; 9684 <kfree_pop+0x50>
    9638:	e5933004 	ldr	r3, [r3, #4]
    963c:	e1530000 	cmp	r3, r0
    9640:	8a000006 	bhi	9660 <kfree_pop+0x2c>
    9644:	e59f3038 	ldr	r3, [pc, #56]	; 9684 <kfree_pop+0x50>
    9648:	e5933008 	ldr	r3, [r3, #8]
    964c:	e1530000 	cmp	r3, r0
    9650:	3a000002 	bcc	9660 <kfree_pop+0x2c>
    9654:	e59f3028 	ldr	r3, [pc, #40]	; 9684 <kfree_pop+0x50>
    9658:	e5830000 	str	r0, [r3]
    965c:	e12fff1e 	bx	lr
    9660:	e52de004 	push	{lr}		; (str lr, [sp, #-4]!)
    9664:	e24dd00c 	sub	sp, sp, #12, 0
    9668:	e58d0000 	str	r0, [sp]
    966c:	e3a03077 	mov	r3, #119, 0	; 0x77
    9670:	e59f2010 	ldr	r2, [pc, #16]	; 9688 <kfree_pop+0x54>
    9674:	e59f1010 	ldr	r1, [pc, #16]	; 968c <kfree_pop+0x58>
    9678:	e59f0010 	ldr	r0, [pc, #16]	; 9690 <kfree_pop+0x5c>
    967c:	ebfffb48 	bl	83a4 <printk>
    9680:	ebfffde7 	bl	8e24 <clean_reboot>
    9684:	00009dcc 	andeq	r9, r0, ip, asr #27
    9688:	00009db8 			; <UNDEFINED> instruction: 0x00009db8
    968c:	00009bc8 	andeq	r9, r0, r8, asr #23
    9690:	00009d30 	andeq	r9, r0, r0, lsr sp

00009694 <gpio_set_function>:
    9694:	e350001f 	cmp	r0, #31, 0
    9698:	812fff1e 	bxhi	lr
    969c:	e3d13007 	bics	r3, r1, #7, 0
    96a0:	e92d4070 	push	{r4, r5, r6, lr}
    96a4:	e1a05001 	mov	r5, r1
    96a8:	18bd8070 	popne	{r4, r5, r6, pc}
    96ac:	e59f403c 	ldr	r4, [pc, #60]	; 96f0 <gpio_set_function+0x5c>
    96b0:	e0843094 	umull	r3, r4, r4, r0
    96b4:	e1a041a4 	lsr	r4, r4, #3
    96b8:	e2843302 	add	r3, r4, #134217728	; 0x8000000
    96bc:	e2833702 	add	r3, r3, #524288	; 0x80000
    96c0:	e1a06103 	lsl	r6, r3, #2
    96c4:	e0844104 	add	r4, r4, r4, lsl #2
    96c8:	e0404084 	sub	r4, r0, r4, lsl #1
    96cc:	e1a00006 	mov	r0, r6
    96d0:	ebfffa55 	bl	802c <GET32>
    96d4:	e3a01007 	mov	r1, #7, 0
    96d8:	e0844084 	add	r4, r4, r4, lsl #1
    96dc:	e1c01411 	bic	r1, r0, r1, lsl r4
    96e0:	e1811415 	orr	r1, r1, r5, lsl r4
    96e4:	e1a00006 	mov	r0, r6
    96e8:	e8bd4070 	pop	{r4, r5, r6, lr}
    96ec:	eafffa4c 	b	8024 <PUT32>
    96f0:	cccccccd 	stclgt	12, cr12, [ip], {205}	; 0xcd

000096f4 <gpio_set_output>:
    96f4:	e350001f 	cmp	r0, #31, 0
    96f8:	812fff1e 	bxhi	lr
    96fc:	e92d4070 	push	{r4, r5, r6, lr}
    9700:	e59f4040 	ldr	r4, [pc, #64]	; 9748 <gpio_set_output+0x54>
    9704:	e0843094 	umull	r3, r4, r4, r0
    9708:	e1a041a4 	lsr	r4, r4, #3
    970c:	e2843302 	add	r3, r4, #134217728	; 0x8000000
    9710:	e2833702 	add	r3, r3, #524288	; 0x80000
    9714:	e1a05103 	lsl	r5, r3, #2
    9718:	e0844104 	add	r4, r4, r4, lsl #2
    971c:	e0404084 	sub	r4, r0, r4, lsl #1
    9720:	e1a00005 	mov	r0, r5
    9724:	ebfffa40 	bl	802c <GET32>
    9728:	e3a03007 	mov	r3, #7, 0
    972c:	e3a01001 	mov	r1, #1, 0
    9730:	e0844084 	add	r4, r4, r4, lsl #1
    9734:	e1c03413 	bic	r3, r0, r3, lsl r4
    9738:	e1831411 	orr	r1, r3, r1, lsl r4
    973c:	e1a00005 	mov	r0, r5
    9740:	e8bd4070 	pop	{r4, r5, r6, lr}
    9744:	eafffa36 	b	8024 <PUT32>
    9748:	cccccccd 	stclgt	12, cr12, [ip], {205}	; 0xcd

0000974c <gpio_set_on>:
    974c:	e1a03000 	mov	r3, r0
    9750:	e3a01001 	mov	r1, #1, 0
    9754:	e59f0004 	ldr	r0, [pc, #4]	; 9760 <gpio_set_on+0x14>
    9758:	e1a01311 	lsl	r1, r1, r3
    975c:	eafffa30 	b	8024 <PUT32>
    9760:	2020001c 	eorcs	r0, r0, ip, lsl r0

00009764 <gpio_set_off>:
    9764:	e1a03000 	mov	r3, r0
    9768:	e3a01001 	mov	r1, #1, 0
    976c:	e59f0004 	ldr	r0, [pc, #4]	; 9778 <gpio_set_off+0x14>
    9770:	e1a01311 	lsl	r1, r1, r3
    9774:	eafffa2a 	b	8024 <PUT32>
    9778:	20200028 	eorcs	r0, r0, r8, lsr #32

0000977c <gpio_set_input>:
    977c:	e350001f 	cmp	r0, #31, 0
    9780:	812fff1e 	bxhi	lr
    9784:	e92d4070 	push	{r4, r5, r6, lr}
    9788:	e59f5040 	ldr	r5, [pc, #64]	; 97d0 <gpio_set_input+0x54>
    978c:	e1a04000 	mov	r4, r0
    9790:	e0853095 	umull	r3, r5, r5, r0
    9794:	e1a051a5 	lsr	r5, r5, #3
    9798:	e2850302 	add	r0, r5, #134217728	; 0x8000000
    979c:	e2800702 	add	r0, r0, #524288	; 0x80000
    97a0:	e1a06100 	lsl	r6, r0, #2
    97a4:	e1a00006 	mov	r0, r6
    97a8:	ebfffa1f 	bl	802c <GET32>
    97ac:	e3a01007 	mov	r1, #7, 0
    97b0:	e1a03000 	mov	r3, r0
    97b4:	e0855105 	add	r5, r5, r5, lsl #2
    97b8:	e0444085 	sub	r4, r4, r5, lsl #1
    97bc:	e0844084 	add	r4, r4, r4, lsl #1
    97c0:	e1a00006 	mov	r0, r6
    97c4:	e1c31411 	bic	r1, r3, r1, lsl r4
    97c8:	e8bd4070 	pop	{r4, r5, r6, lr}
    97cc:	eafffa14 	b	8024 <PUT32>
    97d0:	cccccccd 	stclgt	12, cr12, [ip], {205}	; 0xcd

000097d4 <gpio_write>:
    97d4:	e3510000 	cmp	r1, #0, 0
    97d8:	e3a03001 	mov	r3, #1, 0
    97dc:	e1a01000 	mov	r1, r0
    97e0:	0a000002 	beq	97f0 <gpio_write+0x1c>
    97e4:	e59f0010 	ldr	r0, [pc, #16]	; 97fc <gpio_write+0x28>
    97e8:	e1a01113 	lsl	r1, r3, r1
    97ec:	eafffa0c 	b	8024 <PUT32>
    97f0:	e59f0008 	ldr	r0, [pc, #8]	; 9800 <gpio_write+0x2c>
    97f4:	e1a01113 	lsl	r1, r3, r1
    97f8:	eafffa09 	b	8024 <PUT32>
    97fc:	2020001c 	eorcs	r0, r0, ip, lsl r0
    9800:	20200028 	eorcs	r0, r0, r8, lsr #32

00009804 <gpio_read>:
    9804:	e92d4010 	push	{r4, lr}
    9808:	e1a04000 	mov	r4, r0
    980c:	e59f0014 	ldr	r0, [pc, #20]	; 9828 <gpio_read+0x24>
    9810:	e08002a4 	add	r0, r0, r4, lsr #5
    9814:	ebfffa04 	bl	802c <GET32>
    9818:	e204401f 	and	r4, r4, #31, 0
    981c:	e1a00430 	lsr	r0, r0, r4
    9820:	e2000001 	and	r0, r0, #1, 0
    9824:	e8bd8010 	pop	{r4, pc}
    9828:	20200034 	eorcs	r0, r0, r4, lsr r0

0000982c <memset>:
    982c:	e92d4010 	push	{r4, lr}
    9830:	e0804002 	add	r4, r0, r2
    9834:	e1500004 	cmp	r0, r4
    9838:	28bd8010 	popcs	{r4, pc}
    983c:	e2423001 	sub	r3, r2, #1, 0
    9840:	e3530002 	cmp	r3, #2, 0
    9844:	e6ef1071 	uxtb	r1, r1
    9848:	e1a03000 	mov	r3, r0
    984c:	9a00000b 	bls	9880 <memset+0x54>
    9850:	e181e401 	orr	lr, r1, r1, lsl #8
    9854:	e18ee801 	orr	lr, lr, r1, lsl #16
    9858:	e3c2c003 	bic	ip, r2, #3, 0
    985c:	e18eec01 	orr	lr, lr, r1, lsl #24
    9860:	e08cc000 	add	ip, ip, r0
    9864:	e483e004 	str	lr, [r3], #4
    9868:	e153000c 	cmp	r3, ip
    986c:	1afffffc 	bne	9864 <memset+0x38>
    9870:	e3c23003 	bic	r3, r2, #3, 0
    9874:	e1520003 	cmp	r2, r3
    9878:	e0803003 	add	r3, r0, r3
    987c:	08bd8010 	popeq	{r4, pc}
    9880:	e1a02003 	mov	r2, r3
    9884:	e4c21001 	strb	r1, [r2], #1
    9888:	e1540002 	cmp	r4, r2
    988c:	98bd8010 	popls	{r4, pc}
    9890:	e2832002 	add	r2, r3, #2, 0
    9894:	e1540002 	cmp	r4, r2
    9898:	e5c31001 	strb	r1, [r3, #1]
    989c:	85c31002 	strbhi	r1, [r3, #2]
    98a0:	e8bd8010 	pop	{r4, pc}

000098a4 <strcat>:
    98a4:	e1a02000 	mov	r2, r0
    98a8:	e1a03002 	mov	r3, r2
    98ac:	e4d2c001 	ldrb	ip, [r2], #1
    98b0:	e35c0000 	cmp	ip, #0, 0
    98b4:	1afffffb 	bne	98a8 <strcat+0x4>
    98b8:	e2433001 	sub	r3, r3, #1, 0
    98bc:	e4d12001 	ldrb	r2, [r1], #1
    98c0:	e3520000 	cmp	r2, #0, 0
    98c4:	e5e32001 	strb	r2, [r3, #1]!
    98c8:	1afffffb 	bne	98bc <strcat+0x18>
    98cc:	e12fff1e 	bx	lr

000098d0 <strcmp>:
    98d0:	e5d03000 	ldrb	r3, [r0]
    98d4:	e3530000 	cmp	r3, #0, 0
    98d8:	05d12000 	ldrbeq	r2, [r1]
    98dc:	1a000003 	bne	98f0 <strcmp+0x20>
    98e0:	ea000006 	b	9900 <strcmp+0x30>
    98e4:	e5f03001 	ldrb	r3, [r0, #1]!
    98e8:	e3530000 	cmp	r3, #0, 0
    98ec:	0a000005 	beq	9908 <strcmp+0x38>
    98f0:	e1a0c001 	mov	ip, r1
    98f4:	e4d12001 	ldrb	r2, [r1], #1
    98f8:	e1520003 	cmp	r2, r3
    98fc:	0afffff8 	beq	98e4 <strcmp+0x14>
    9900:	e0430002 	sub	r0, r3, r2
    9904:	e12fff1e 	bx	lr
    9908:	e5dc2001 	ldrb	r2, [ip, #1]
    990c:	e0430002 	sub	r0, r3, r2
    9910:	e12fff1e 	bx	lr

00009914 <strcpy>:
    9914:	e2402001 	sub	r2, r0, #1, 0
    9918:	e4d13001 	ldrb	r3, [r1], #1
    991c:	e3530000 	cmp	r3, #0, 0
    9920:	e5e23001 	strb	r3, [r2, #1]!
    9924:	1afffffb 	bne	9918 <strcpy+0x4>
    9928:	e12fff1e 	bx	lr

0000992c <strncmp>:
    992c:	e0802002 	add	r2, r0, r2
    9930:	ea000003 	b	9944 <strncmp+0x18>
    9934:	e4d03001 	ldrb	r3, [r0], #1
    9938:	e4d1c001 	ldrb	ip, [r1], #1
    993c:	e153000c 	cmp	r3, ip
    9940:	1a000003 	bne	9954 <strncmp+0x28>
    9944:	e1500002 	cmp	r0, r2
    9948:	1afffff9 	bne	9934 <strncmp+0x8>
    994c:	e3a00000 	mov	r0, #0, 0
    9950:	e12fff1e 	bx	lr
    9954:	e043000c 	sub	r0, r3, ip
    9958:	e12fff1e 	bx	lr

0000995c <reboot_callout>:
    995c:	e12fff1e 	bx	lr

00009960 <dev_barrier>:
    9960:	ea000002 	b	9970 <dsb>

00009964 <dmb>:
    9964:	e3a00000 	mov	r0, #0, 0
    9968:	ee070fba 	mcr	15, 0, r0, cr7, cr10, {5}
    996c:	e12fff1e 	bx	lr

00009970 <dsb>:
    9970:	ee070f9a 	mcr	15, 0, r0, cr7, cr10, {4}
    9974:	e12fff1e 	bx	lr

Disassembly of section .rodata:

00009978 <__FUNCTION__.3948-0xc4>:
    9978:	65742d32 	ldrbvs	r2, [r4, #-3378]!	; 0xfffff2ce
    997c:	6d2d7473 	cfstrsvs	mvf7, [sp, #-460]!	; 0xfffffe34
    9980:	6f6c6c61 	svcvs	0x006c6c61
    9984:	00632e63 	rsbeq	r2, r3, r3, ror #28
    9988:	4f525245 	svcmi	0x00525245
    998c:	73253a52 			; <UNDEFINED> instruction: 0x73253a52
    9990:	3a73253a 	bcc	1cd2e80 <__bss_end__+0x1cc8c90>
    9994:	203a6425 	eorscs	r6, sl, r5, lsr #8
    9998:	534c4146 	movtpl	r4, #49478	; 0xc146
    999c:	253c2845 	ldrcs	r2, [ip, #-2117]!	; 0xfffff7bb
    99a0:	3a293e73 	bcc	a59374 <__bss_end__+0xa4f184>
    99a4:	5b622220 	blpl	189222c <__bss_end__+0x188803c>
    99a8:	3d5d6425 	cfldrdcc	mvd6, [sp, #-148]	; 0xffffff6c
    99ac:	202c6425 	eorcs	r6, ip, r5, lsr #8
    99b0:	64253d69 	strtvs	r3, [r5], #-3433	; 0xfffff297
    99b4:	0a226e5c 	beq	8a532c <__bss_end__+0x89b13c>
    99b8:	00000000 	andeq	r0, r0, r0
    99bc:	7274702a 	rsbsvc	r7, r4, #42, 0	; 0x2a
    99c0:	5d695b73 	fstmdbxpl	r9!, {d21-d77}	;@ Deprecated
    99c4:	203d3d20 	eorscs	r3, sp, r0, lsr #26
    99c8:	6e697528 	cdpvs	5, 6, cr7, cr9, cr8, {1}
    99cc:	745f3874 	ldrbvc	r3, [pc], #-2164	; 99d4 <__code_end__+0x5c>
    99d0:	00006929 	andeq	r6, r0, r9, lsr #18
    99d4:	494e4150 	stmdbmi	lr, {r4, r6, r8, lr}^
    99d8:	73253a43 			; <UNDEFINED> instruction: 0x73253a43
    99dc:	3a73253a 	bcc	1cd2ecc <__bss_end__+0x1cc8cdc>
    99e0:	253a6425 	ldrcs	r6, [sl, #-1061]!	; 0xfffffbdb
    99e4:	00000a73 	andeq	r0, r0, r3, ror sl
    99e8:	3d203070 	stccc	0, cr3, [r0, #-448]!	; 0xfffffe40
    99ec:	3170203d 	cmncc	r0, sp, lsr r0
    99f0:	00000000 	andeq	r0, r0, r0
    99f4:	43415254 	movtmi	r5, #4692	; 0x1254
    99f8:	00003a45 	andeq	r3, r0, r5, asr #20
    99fc:	74736574 	ldrbtvc	r6, [r3], #-1396	; 0xfffffa8c
    9a00:	65746920 	ldrbvs	r6, [r4, #-2336]!	; 0xfffff6e0
    9a04:	64252072 	strtvs	r2, [r5], #-114	; 0xffffff8e
    9a08:	73617020 	cmnvc	r1, #32, 0
    9a0c:	0a646573 	beq	1922fe0 <__bss_end__+0x1918df0>
    9a10:	00000000 	andeq	r0, r0, r0
    9a14:	63637573 	cmnvs	r3, #482344960	; 0x1cc00000
    9a18:	3a737365 	bcc	1ce67b4 <__bss_end__+0x1cdc5c4>
    9a1c:	6c616d20 	stclvs	13, cr6, [r1], #-128	; 0xffffff80
    9a20:	2f636f6c 	svccs	0x00636f6c
    9a24:	65657266 	strbvs	r7, [r5, #-614]!	; 0xfffffd9a
    9a28:	70706120 	rsbsvc	r6, r0, r0, lsr #2
    9a2c:	20726165 	rsbscs	r6, r2, r5, ror #2
    9a30:	77206f74 			; <UNDEFINED> instruction: 0x77206f74
    9a34:	216b726f 	cmncs	fp, pc, ror #4
    9a38:	0000000a 	andeq	r0, r0, sl

00009a3c <__FUNCTION__.3948>:
    9a3c:	74736574 	ldrbtvc	r6, [r3], #-1396	; 0xfffffa8c
    9a40:	6c6c615f 	stfvse	f6, [ip], #-380	; 0xfffffe84
    9a44:	665f636f 	ldrbvs	r6, [pc], -pc, ror #6
    9a48:	00656572 	rsbeq	r6, r5, r2, ror r5

00009a4c <__FUNCTION__.3970>:
    9a4c:	6d746f6e 	ldclvs	15, cr6, [r4, #-440]!	; 0xfffffe48
    9a50:	006e6961 	rsbeq	r6, lr, r1, ror #18
    9a54:	696c2f2e 	stmdbvs	ip!, {r1, r2, r3, r5, r8, r9, sl, fp, sp}^
    9a58:	762f6362 	strtvc	r6, [pc], -r2, ror #6
    9a5c:	72702d61 	rsbsvc	r2, r0, #6208	; 0x1840
    9a60:	6b746e69 	blvs	1d2540c <__bss_end__+0x1d1b21c>
    9a64:	0000632e 	andeq	r6, r0, lr, lsr #6
    9a68:	00000030 	andeq	r0, r0, r0, lsr r0
    9a6c:	33323130 	teqcc	r2, #12
    9a70:	37363534 			; <UNDEFINED> instruction: 0x37363534
    9a74:	62613938 	rsbvs	r3, r1, #56, 18	; 0xe0000
    9a78:	66656463 	strbtvs	r6, [r5], -r3, ror #8
    9a7c:	00000000 	andeq	r0, r0, r0
    9a80:	00003130 	andeq	r3, r0, r0, lsr r1
    9a84:	33323130 	teqcc	r2, #12
    9a88:	37363534 			; <UNDEFINED> instruction: 0x37363534
    9a8c:	00003938 	andeq	r3, r0, r8, lsr r9
    9a90:	63747570 	cmnvs	r4, #112, 10	; 0x1c000000
    9a94:	0070665f 	rsbseq	r6, r0, pc, asr r6
    9a98:	74646977 	strbtvc	r6, [r4], #-2423	; 0xfffff689
    9a9c:	203c2068 	eorscs	r2, ip, r8, rrx
    9aa0:	00003233 	andeq	r3, r0, r3, lsr r2
    9aa4:	00786c6c 	rsbseq	r6, r8, ip, ror #24
    9aa8:	253d3078 	ldrcs	r3, [sp, #-120]!	; 0xffffff88
    9aac:	00000a78 	andeq	r0, r0, r8, ror sl
    9ab0:	253d3178 	ldrcs	r3, [sp, #-376]!	; 0xfffffe88
    9ab4:	00000a78 	andeq	r0, r0, r8, ror sl
    9ab8:	00646c6c 	rsbeq	r6, r4, ip, ror #24
    9abc:	6e727473 	mrcvs	4, 3, r7, cr2, cr3, {3}
    9ac0:	28706d63 	ldmdacs	r0!, {r0, r1, r5, r6, r8, sl, fp, sp, lr}^
    9ac4:	202c7974 	eorcs	r7, ip, r4, ror r9
    9ac8:	786c6c22 	stmdavc	ip!, {r1, r5, sl, fp, sp, lr}^
    9acc:	33202c22 			; <UNDEFINED> instruction: 0x33202c22
    9ad0:	3d3d2029 	ldccc	0, cr2, [sp, #-164]!	; 0xffffff5c
    9ad4:	7c203020 	stcvc	0, cr3, [r0], #-128	; 0xffffff80
    9ad8:	7473207c 	ldrbtvc	r2, [r3], #-124	; 0xffffff84
    9adc:	6d636e72 	stclvs	14, cr6, [r3, #-456]!	; 0xfffffe38
    9ae0:	79742870 	ldmdbvc	r4!, {r4, r5, r6, fp, sp}^
    9ae4:	6c22202c 	stcvs	0, cr2, [r2], #-176	; 0xffffff50
    9ae8:	2c22646c 	cfstrscs	mvf6, [r2], #-432	; 0xfffffe50
    9aec:	20293320 	eorcs	r3, r9, r0, lsr #6
    9af0:	30203d3d 	eorcc	r3, r0, sp, lsr sp
    9af4:	00000000 	andeq	r0, r0, r0
    9af8:	494e4150 	stmdbmi	lr, {r4, r6, r8, lr}^
    9afc:	73253a43 			; <UNDEFINED> instruction: 0x73253a43
    9b00:	3a73253a 	bcc	1cd2ff0 <__bss_end__+0x1cc8e00>
    9b04:	693a6425 	ldmdbvs	sl!, {r0, r2, r5, sl, sp, lr}
    9b08:	736f706d 	cmnvc	pc, #109, 0	; 0x6d
    9b0c:	6c626973 			; <UNDEFINED> instruction: 0x6c626973
    9b10:	66203a65 	strtvs	r3, [r0], -r5, ror #20
    9b14:	3c3d746d 	cfldrscc	mvf7, [sp], #-436	; 0xfffffe4c
    9b18:	0a3e7325 	beq	fa67b4 <__bss_end__+0xf9c5c4>
    9b1c:	0000000a 	andeq	r0, r0, sl
    9b20:	494e4150 	stmdbmi	lr, {r4, r6, r8, lr}^
    9b24:	73253a43 			; <UNDEFINED> instruction: 0x73253a43
    9b28:	3a73253a 	bcc	1cd3018 <__bss_end__+0x1cc8e28>
    9b2c:	663a6425 	ldrtvs	r6, [sl], -r5, lsr #8
    9b30:	74616f6c 	strbtvc	r6, [r1], #-3948	; 0xfffff094
    9b34:	746f6e20 	strbtvc	r6, [pc], #-3616	; 9b3c <__FUNCTION__.3970+0xf0>
    9b38:	616e6520 	cmnvs	lr, r0, lsr #10
    9b3c:	64656c62 	strbtvs	r6, [r5], #-3170	; 0xfffff39e
    9b40:	0a212121 	beq	851fcc <__bss_end__+0x847ddc>
    9b44:	00000000 	andeq	r0, r0, r0
    9b48:	6e697270 	mcrvs	2, 3, r7, cr9, cr0, {3}
    9b4c:	203a6b74 	eorscs	r6, sl, r4, ror fp
    9b50:	20746f6e 	rsbscs	r6, r4, lr, ror #30
    9b54:	646e6168 	strbtvs	r6, [lr], #-360	; 0xfffffe98
    9b58:	676e696c 	strbvs	r6, [lr, -ip, ror #18]!
    9b5c:	65707320 	ldrbvs	r7, [r0, #-800]!	; 0xfffffce0
    9b60:	69666963 	stmdbvs	r6!, {r0, r1, r5, r6, r8, fp, sp, lr}^
    9b64:	27207265 	strcs	r7, [r0, -r5, ror #4]!
    9b68:	20276325 	eorcs	r6, r7, r5, lsr #6
    9b6c:	63736128 	cmnvs	r3, #10
    9b70:	253d6969 	ldrcs	r6, [sp, #-2409]!	; 0xfffff697
    9b74:	000a2964 	andeq	r2, sl, r4, ror #18
    9b78:	494e4150 	stmdbmi	lr, {r4, r6, r8, lr}^
    9b7c:	73253a43 			; <UNDEFINED> instruction: 0x73253a43
    9b80:	3a73253a 	bcc	1cd3070 <__bss_end__+0x1cc8e80>
    9b84:	703a6425 	eorsvc	r6, sl, r5, lsr #8
    9b88:	746e6972 	strbtvc	r6, [lr], #-2418	; 0xfffff68e
    9b8c:	7265206b 	rsbvc	r2, r5, #107, 0	; 0x6b
    9b90:	0a726f72 	beq	1ca5960 <__bss_end__+0x1c9b770>
    9b94:	0000000a 	andeq	r0, r0, sl

00009b98 <__FUNCTION__.4004>:
    9b98:	74696d65 	strbtvc	r6, [r9], #-3429	; 0xfffff29b
    9b9c:	00000000 	andeq	r0, r0, r0

00009ba0 <__FUNCTION__.3952>:
    9ba0:	5f697072 	svcpl	0x00697072
    9ba4:	5f746573 	svcpl	0x00746573
    9ba8:	7074756f 	rsbsvc	r7, r4, pc, ror #10
    9bac:	00007475 	andeq	r7, r0, r5, ror r4

00009bb0 <__FUNCTION__.4030>:
    9bb0:	705f6176 	subsvc	r6, pc, r6, ror r1	; <UNPREDICTABLE>
    9bb4:	746e6972 	strbtvc	r6, [lr], #-2418	; 0xfffff68e
    9bb8:	0000006b 	andeq	r0, r0, fp, rrx
    9bbc:	454e4f44 	strbmi	r4, [lr, #-3908]	; 0xfffff0bc
    9bc0:	0a212121 	beq	85204c <__bss_end__+0x847e5c>
    9bc4:	00000000 	andeq	r0, r0, r0
    9bc8:	6c616d6b 	stclvs	13, cr6, [r1], #-428	; 0xfffffe54
    9bcc:	2e636f6c 	cdpcs	15, 6, cr6, cr3, cr12, {3}
    9bd0:	00000063 	andeq	r0, r0, r3, rrx
    9bd4:	5f78616d 	svcpl	0x0078616d
    9bd8:	7479626e 	ldrbtvc	r6, [r9], #-622	; 0xfffffd92
    9bdc:	00007365 	andeq	r7, r0, r5, ror #6
    9be0:	494e4150 	stmdbmi	lr, {r4, r6, r8, lr}^
    9be4:	73253a43 			; <UNDEFINED> instruction: 0x73253a43
    9be8:	3a73253a 	bcc	1cd30d8 <__bss_end__+0x1cc8ee8>
    9bec:	733a6425 	teqvc	sl, #620756992	; 0x25000000
    9bf0:	69747465 	ldmdbvs	r4!, {r0, r2, r5, r6, sl, ip, sp, lr}^
    9bf4:	6820676e 	stmdavs	r0!, {r1, r2, r3, r5, r6, r8, r9, sl, sp, lr}
    9bf8:	20706165 	rsbscs	r6, r0, r5, ror #2
    9bfc:	25206f74 	strcs	r6, [r0, #-3956]!	; 0xfffff08c
    9c00:	77203a70 			; <UNDEFINED> instruction: 0x77203a70
    9c04:	206c6c69 	rsbcs	r6, ip, r9, ror #24
    9c08:	20746968 	rsbscs	r6, r4, r8, ror #18
    9c0c:	20656874 	rsbcs	r6, r5, r4, ror r8
    9c10:	20646c6f 	rsbcs	r6, r4, pc, ror #24
    9c14:	70616568 	rsbvc	r6, r1, r8, ror #10
    9c18:	20746120 	rsbscs	r6, r4, r0, lsr #2
    9c1c:	0a0a7025 	beq	2a5cb8 <__bss_end__+0x29bac8>
    9c20:	00000000 	andeq	r0, r0, r0
    9c24:	494e4150 	stmdbmi	lr, {r4, r6, r8, lr}^
    9c28:	73253a43 			; <UNDEFINED> instruction: 0x73253a43
    9c2c:	3a73253a 	bcc	1cd311c <__bss_end__+0x1cc8f2c>
    9c30:	613a6425 	teqvs	sl, r5, lsr #8
    9c34:	6165726c 	cmnvs	r5, ip, ror #4
    9c38:	63207964 			; <UNDEFINED> instruction: 0x63207964
    9c3c:	656c6c61 	strbvs	r6, [ip, #-3169]!	; 0xfffff39f
    9c40:	6d6b2064 	stclvs	0, cr2, [fp, #-400]!	; 0xfffffe70
    9c44:	6f6c6c61 	svcvs	0x006c6c61
    9c48:	6e695f63 	cdpvs	15, 6, cr5, cr9, cr3, {3}
    9c4c:	0a0a7469 	beq	2a6df8 <__bss_end__+0x29cc08>
    9c50:	00000000 	andeq	r0, r0, r0
    9c54:	494e4150 	stmdbmi	lr, {r4, r6, r8, lr}^
    9c58:	73253a43 			; <UNDEFINED> instruction: 0x73253a43
    9c5c:	3a73253a 	bcc	1cd314c <__bss_end__+0x1cc8f5c>
    9c60:	253a6425 	ldrcs	r6, [sl, #-1061]!	; 0xfffffbdb
    9c64:	626e2064 	rsbvs	r2, lr, #100, 0	; 0x64
    9c68:	73657479 	cmnvc	r5, #2030043136	; 0x79000000
    9c6c:	63786520 	cmnvs	r8, #32, 10	; 0x8000000
    9c70:	65646565 	strbvs	r6, [r4, #-1381]!	; 0xfffffa9b
    9c74:	69732064 	ldmdbvs	r3!, {r2, r5, r6, sp}^
    9c78:	6f20657a 	svcvs	0x0020657a
    9c7c:	65682066 	strbvs	r2, [r8, #-102]!	; 0xffffff9a
    9c80:	62207061 	eorvs	r7, r0, #97, 0	; 0x61
    9c84:	75252079 	strvc	r2, [r5, #-121]!	; 0xffffff87
    9c88:	79626e20 	stmdbvc	r2!, {r5, r9, sl, fp, sp, lr}^
    9c8c:	0a736574 	beq	1ce3264 <__bss_end__+0x1cd9074>
    9c90:	0000000a 	andeq	r0, r0, sl
    9c94:	4f525245 	svcmi	0x00525245
    9c98:	73253a52 			; <UNDEFINED> instruction: 0x73253a52
    9c9c:	3a73253a 	bcc	1cd318c <__bss_end__+0x1cc8f9c>
    9ca0:	203a6425 	eorscs	r6, sl, r5, lsr #8
    9ca4:	534c4146 	movtpl	r4, #49478	; 0xc146
    9ca8:	253c2845 	ldrcs	r2, [ip, #-2117]!	; 0xfffff7bb
    9cac:	3a293e73 	bcc	a59680 <__bss_end__+0xa4f490>
    9cb0:	73736120 	cmnvc	r3, #8
    9cb4:	6e696d75 	mcrvs	13, 3, r6, cr9, cr5, {3}
    9cb8:	6f702067 	svcvs	0x00702067
    9cbc:	20726577 	rsbscs	r6, r2, r7, ror r5
    9cc0:	7420666f 	strtvc	r6, [r0], #-1647	; 0xfffff991
    9cc4:	000a6f77 	andeq	r6, sl, r7, ror pc
    9cc8:	705f7369 	subsvc	r7, pc, r9, ror #6
    9ccc:	2832776f 	ldmdacs	r2!, {r0, r1, r2, r3, r5, r6, r8, r9, sl, ip, sp, lr}
    9cd0:	67696c61 	strbvs	r6, [r9, -r1, ror #24]!
    9cd4:	6e656d6e 	cdpvs	13, 6, cr6, cr5, cr14, {3}
    9cd8:	00002974 	andeq	r2, r0, r4, ror r9
    9cdc:	705f7369 	subsvc	r7, pc, r9, ror #6
    9ce0:	2832776f 	ldmdacs	r2!, {r0, r1, r2, r3, r5, r6, r8, r9, sl, ip, sp, lr}
    9ce4:	0000296e 	andeq	r2, r0, lr, ror #18
    9ce8:	4f525245 	svcmi	0x00525245
    9cec:	73253a52 			; <UNDEFINED> instruction: 0x73253a52
    9cf0:	3a73253a 	bcc	1cd31e0 <__bss_end__+0x1cc8ff0>
    9cf4:	203a6425 	eorscs	r6, sl, r5, lsr #8
    9cf8:	534c4146 	movtpl	r4, #49478	; 0xc146
    9cfc:	253c2845 	ldrcs	r2, [ip, #-2117]!	; 0xfffff7bb
    9d00:	3a293e73 	bcc	a596d4 <__bss_end__+0xa4f4e4>
    9d04:	706d6920 	rsbvc	r6, sp, r0, lsr #18
    9d08:	6973736f 	ldmdbvs	r3!, {r0, r1, r2, r3, r5, r6, r8, r9, ip, sp, lr}^
    9d0c:	0a656c62 	beq	1964e9c <__bss_end__+0x195acac>
    9d10:	00000000 	andeq	r0, r0, r0
    9d14:	615f7369 	cmpvs	pc, r9, ror #6
    9d18:	6e67696c 	vnmulvs.f16	s13, s14, s25	; <UNPREDICTABLE>
    9d1c:	68286465 	stmdavs	r8!, {r0, r2, r5, r6, sl, sp, lr}
    9d20:	6c61202c 	stclvs	0, cr2, [r1], #-176	; 0xffffff50
    9d24:	6d6e6769 	stclvs	7, cr6, [lr, #-420]!	; 0xfffffe5c
    9d28:	29746e65 	ldmdbcs	r4!, {r0, r2, r5, r6, r9, sl, fp, sp, lr}^
    9d2c:	00000000 	andeq	r0, r0, r0
    9d30:	494e4150 	stmdbmi	lr, {r4, r6, r8, lr}^
    9d34:	73253a43 			; <UNDEFINED> instruction: 0x73253a43
    9d38:	3a73253a 	bcc	1cd3228 <__bss_end__+0x1cc9038>
    9d3c:	703a6425 	eorsvc	r6, sl, r5, lsr #8
    9d40:	746e696f 	strbtvc	r6, [lr], #-2415	; 0xfffff691
    9d44:	25207265 	strcs	r7, [r0, #-613]!	; 0xfffffd9b
    9d48:	61772070 	cmnvs	r7, r0, ror r0
    9d4c:	656e2073 	strbvs	r2, [lr, #-115]!	; 0xffffff8d
    9d50:	20726576 	rsbscs	r6, r2, r6, ror r5
    9d54:	6f6c6c61 	svcvs	0x006c6c61
    9d58:	65746163 	ldrbvs	r6, [r4, #-355]!	; 0xfffffe9d
    9d5c:	000a0a64 	andeq	r0, sl, r4, ror #20

00009d60 <__FUNCTION__.7>:
    9d60:	6c616d6b 	stclvs	13, cr6, [r1], #-428	; 0xfffffe54
    9d64:	5f636f6c 	svcpl	0x00636f6c
    9d68:	74696e69 	strbtvc	r6, [r9], #-3689	; 0xfffff197
    9d6c:	7465735f 	strbtvc	r7, [r5], #-863	; 0xfffffca1
    9d70:	6174735f 	cmnvs	r4, pc, asr r3
    9d74:	00007472 	andeq	r7, r0, r2, ror r4

00009d78 <__FUNCTION__.5>:
    9d78:	6c616d6b 	stclvs	13, cr6, [r1], #-428	; 0xfffffe54
    9d7c:	5f636f6c 	svcpl	0x00636f6c
    9d80:	74696e69 	strbtvc	r6, [r9], #-3689	; 0xfffff197
    9d84:	00000000 	andeq	r0, r0, r0

00009d88 <__FUNCTION__.4>:
    9d88:	6c616d6b 	stclvs	13, cr6, [r1], #-428	; 0xfffffe54
    9d8c:	5f636f6c 	svcpl	0x00636f6c
    9d90:	7a746f6e 	bvc	1d25b50 <__bss_end__+0x1d1b960>
    9d94:	006f7265 	rsbeq	r7, pc, r5, ror #4

00009d98 <__FUNCTION__.2>:
    9d98:	6c616d6b 	stclvs	13, cr6, [r1], #-428	; 0xfffffe54
    9d9c:	00636f6c 	rsbeq	r6, r3, ip, ror #30

00009da0 <__FUNCTION__.1>:
    9da0:	6c616d6b 	stclvs	13, cr6, [r1], #-428	; 0xfffffe54
    9da4:	5f636f6c 	svcpl	0x00636f6c
    9da8:	67696c61 	strbvs	r6, [r9, -r1, ror #24]!
    9dac:	0064656e 	rsbeq	r6, r4, lr, ror #10

00009db0 <__FUNCTION__.3>:
    9db0:	6e756f72 	mrcvs	15, 3, r6, cr5, cr2, {3}
    9db4:	00707564 	rsbseq	r7, r0, r4, ror #10

00009db8 <__FUNCTION__.0>:
    9db8:	6572666b 	ldrbvs	r6, [r2, #-1643]!	; 0xfffff995
    9dbc:	6f705f65 	svcvs	0x00705f65
    9dc0:	Address 0x0000000000009dc0 is out of bounds.


Disassembly of section .data:

00009dc4 <rpi_putchar>:
    9dc4:	000083fc 	strdeq	r8, [r0], -ip

00009dc8 <putk>:
    9dc8:	00008438 	andeq	r8, r0, r8, lsr r4

00009dcc <heap>:
    9dcc:	0000a1f0 	strdeq	sl, [r0], -r0

00009dd0 <heap_start>:
    9dd0:	0000a1f0 	strdeq	sl, [r0], -r0

00009dd4 <heap_end>:
    9dd4:	0020a1f0 	strdeq	sl, [r0], -r0	; <UNPREDICTABLE>

Disassembly of section .bss:

00009dd8 <__bss_start__>:
	...

00009de0 <base>:
	...

00009de8 <buf.3944>:
	...

0000a1e8 <init_p.6>:
	...

Disassembly of section .ARM.attributes:

00000000 <.ARM.attributes>:
   0:	00002a41 	andeq	r2, r0, r1, asr #20
   4:	61656100 	cmnvs	r5, r0, lsl #2
   8:	01006962 	tsteq	r0, r2, ror #18
   c:	00000020 	andeq	r0, r0, r0, lsr #32
  10:	4b5a3605 	blmi	168d82c <__bss_end__+0x168363c>
  14:	08070600 	stmdaeq	r7, {r9, sl}
  18:	12010901 	andne	r0, r1, #16384	; 0x4000
  1c:	15011404 	strne	r1, [r1, #-1028]	; 0xfffffbfc
  20:	18031701 	stmdane	r3, {r0, r8, r9, sl, ip}
  24:	22011a01 	andcs	r1, r1, #4096	; 0x1000
  28:	Address 0x0000000000000028 is out of bounds.


Disassembly of section .comment:

00000000 <.comment>:
   0:	3a434347 	bcc	10d0d24 <__bss_end__+0x10c6b34>
   4:	4e472820 	cdpmi	8, 4, cr2, cr7, cr0, {1}
   8:	6f542055 	svcvs	0x00542055
   c:	20736c6f 	rsbscs	r6, r3, pc, ror #24
  10:	20726f66 	rsbscs	r6, r2, r6, ror #30
  14:	206d7241 	rsbcs	r7, sp, r1, asr #4
  18:	65626d45 	strbvs	r6, [r2, #-3397]!	; 0xfffff2bb
  1c:	64656464 	strbtvs	r6, [r5], #-1124	; 0xfffffb9c
  20:	6f725020 	svcvs	0x00725020
  24:	73736563 	cmnvc	r3, #415236096	; 0x18c00000
  28:	2073726f 	rsbscs	r7, r3, pc, ror #4
  2c:	30322d39 	eorscc	r2, r2, r9, lsr sp
  30:	712d3931 			; <UNDEFINED> instruction: 0x712d3931
  34:	616d2d34 	cmnvs	sp, r4, lsr sp
  38:	29726f6a 	ldmdbcs	r2!, {r1, r3, r5, r6, r8, r9, sl, fp, sp, lr}^
  3c:	322e3920 	eorcc	r3, lr, #32, 18	; 0x80000
  40:	3220312e 	eorcc	r3, r0, #-2147483637	; 0x8000000b
  44:	31393130 	teqcc	r9, r0, lsr r1
  48:	20353230 	eorscs	r3, r5, r0, lsr r2
  4c:	6c657228 	sfmvs	f7, 2, [r5], #-160	; 0xffffff60
  50:	65736165 	ldrbvs	r6, [r3, #-357]!	; 0xfffffe9b
  54:	415b2029 	cmpmi	fp, r9, lsr #32
  58:	612f4d52 			; <UNDEFINED> instruction: 0x612f4d52
  5c:	392d6d72 	pushcc	{r1, r4, r5, r6, r8, sl, fp, sp, lr}
  60:	6172622d 	cmnvs	r2, sp, lsr #4
  64:	2068636e 	rsbcs	r6, r8, lr, ror #6
  68:	69766572 	ldmdbvs	r6!, {r1, r4, r5, r6, r8, sl, sp, lr}^
  6c:	6e6f6973 			; <UNDEFINED> instruction: 0x6e6f6973
  70:	37373220 	ldrcc	r3, [r7, -r0, lsr #4]!
  74:	5d393935 			; <UNDEFINED> instruction: 0x5d393935
  78:	43434700 	movtmi	r4, #14080	; 0x3700
  7c:	4728203a 			; <UNDEFINED> instruction: 0x4728203a
  80:	4120554e 			; <UNDEFINED> instruction: 0x4120554e
  84:	45206d72 	strmi	r6, [r0, #-3442]!	; 0xfffff28e
  88:	6465626d 	strbtvs	r6, [r5], #-621	; 0xfffffd93
  8c:	20646564 	rsbcs	r6, r4, r4, ror #10
  90:	6c6f6f54 	stclvs	15, cr6, [pc], #-336	; ffffff48 <__bss_end__+0xffff5d58>
  94:	69616863 	stmdbvs	r1!, {r0, r1, r5, r6, fp, sp, lr}^
  98:	3031206e 	eorscc	r2, r1, lr, rrx
  9c:	322d332e 	eorcc	r3, sp, #-1207959552	; 0xb8000000
  a0:	2e313230 	mrccs	2, 1, r3, cr1, cr0, {1}
  a4:	20293031 	eorcs	r3, r9, r1, lsr r0
  a8:	332e3031 			; <UNDEFINED> instruction: 0x332e3031
  ac:	3220312e 	eorcc	r3, r0, #-2147483637	; 0x8000000b
  b0:	30313230 	eorscc	r3, r1, r0, lsr r2
  b4:	20343238 	eorscs	r3, r4, r8, lsr r2
  b8:	6c657228 	sfmvs	f7, 2, [r5], #-160	; 0xffffff60
  bc:	65736165 	ldrbvs	r6, [r3, #-357]!	; 0xfffffe9b
  c0:	Address 0x00000000000000c0 is out of bounds.


Disassembly of section .debug_info:

00000000 <.debug_info>:
       0:	00000434 	andeq	r0, r0, r4, lsr r4
       4:	00000004 	andeq	r0, r0, r4
       8:	01040000 	mrseq	r0, (UNDEF: 4)
       c:	000000fa 	strdeq	r0, [r0], -sl
      10:	0000ac0c 	andeq	sl, r0, ip, lsl #24
      14:	00002300 	andeq	r2, r0, r0, lsl #6
      18:	00803800 	addeq	r3, r0, r0, lsl #16
      1c:	0001b400 	andeq	fp, r1, r0, lsl #8
      20:	00000000 	andeq	r0, r0, r0
      24:	05040200 	streq	r0, [r4, #-512]	; 0xfffffe00
      28:	00746e69 	rsbseq	r6, r4, r9, ror #28
      2c:	97070403 	strls	r0, [r7, -r3, lsl #8]
      30:	03000000 	movweq	r0, #0
      34:	000a0601 	andeq	r0, sl, r1, lsl #12
      38:	02030000 	andeq	r0, r3, #0, 0
      3c:	0000e605 	andeq	lr, r0, r5, lsl #12
      40:	05040300 	streq	r0, [r4, #-768]	; 0xfffffd00
      44:	000000d1 	ldrdeq	r0, [r0], -r1
      48:	cc050803 	stcgt	8, cr0, [r5], {3}
      4c:	04000000 	streq	r0, [r0], #-0
      50:	000000a4 	andeq	r0, r0, r4, lsr #1
      54:	5b182e04 	blpl	60b86c <__bss_end__+0x60167c>
      58:	03000000 	movweq	r0, #0
      5c:	00080801 	andeq	r0, r8, r1, lsl #16
      60:	02030000 	andeq	r0, r3, #0, 0
      64:	00005907 	andeq	r5, r0, r7, lsl #18
      68:	07040300 	streq	r0, [r4, -r0, lsl #6]
      6c:	00000092 	muleq	r0, r2, r0
      70:	8d070803 	stchi	8, cr0, [r7, #-12]
      74:	05000000 	streq	r0, [r0, #-0]
      78:	00000025 	andeq	r0, r0, r5, lsr #32
      7c:	00000086 	andeq	r0, r0, r6, lsl #1
      80:	00002506 	andeq	r2, r0, r6, lsl #10
      84:	da070000 	ble	1c008c <__bss_end__+0x1b5e9c>
      88:	02000000 	andeq	r0, r0, #0, 0
      8c:	00920e1c 	addseq	r0, r2, ip, lsl lr
      90:	04080000 	streq	r0, [r8], #-0
      94:	00000077 	andeq	r0, r0, r7, ror r0
      98:	00002505 	andeq	r2, r0, r5, lsl #10
      9c:	0000a700 	andeq	sl, r0, r0, lsl #14
      a0:	00a70600 	adceq	r0, r7, r0, lsl #12
      a4:	08000000 	stmdaeq	r0, {}	; <UNPREDICTABLE>
      a8:	0000b404 	andeq	fp, r0, r4, lsl #8
      ac:	08010300 	stmdaeq	r1, {r8, r9}
      b0:	00000011 	andeq	r0, r0, r1, lsl r0
      b4:	0000ad09 	andeq	sl, r0, r9, lsl #26
      b8:	03850700 	orreq	r0, r5, #0, 14
      bc:	21020000 	mrscs	r0, (UNDEF: 2)
      c0:	0000c50e 	andeq	ip, r0, lr, lsl #10
      c4:	98040800 	stmdals	r4, {fp}
      c8:	0a000000 	beq	d0 <__code_start__-0x7f30>
      cc:	00000000 	andeq	r0, r0, r0
      d0:	4c061f01 	stcmi	15, cr1, [r6], {1}
      d4:	a0000081 	andge	r0, r0, r1, lsl #1
      d8:	01000000 	mrseq	r0, (UNDEF: 0)
      dc:	00021d9c 	muleq	r2, ip, sp
      e0:	006e0b00 	rsbeq	r0, lr, r0, lsl #22
      e4:	2c0e2201 	sfmcs	f2, 4, [lr], {1}
      e8:	80000000 	andhi	r0, r0, r0
      ec:	0030700c 	eorseq	r7, r0, ip
      f0:	1d0b2401 	cfstrsne	mvf2, [fp, #-4]
      f4:	04000002 	streq	r0, [r0], #-2
      f8:	00000000 	andeq	r0, r0, r0
      fc:	0d000000 	stceq	0, cr0, [r0, #-0]
     100:	00000086 	andeq	r0, r0, r6, lsl #1
     104:	25092501 	strcs	r2, [r9, #-1281]	; 0xfffffaff
     108:	0a000000 	beq	110 <__code_start__-0x7ef0>
     10c:	0000790e 	andeq	r7, r0, lr, lsl #18
     110:	00022f00 	andeq	r2, r2, r0, lsl #30
     114:	4c030500 	cfstr32mi	mvfx0, [r3], {-0}
     118:	0f00009a 	svceq	0x0000009a
     11c:	00008160 	andeq	r8, r0, r0, ror #2
     120:	00000058 	andeq	r0, r0, r8, asr r0
     124:	000001de 	ldrdeq	r0, [r0], -lr
     128:	0100690c 	tsteq	r0, ip, lsl #18
     12c:	00250d26 	eoreq	r0, r5, r6, lsr #26
     130:	00260000 	eoreq	r0, r6, r0
     134:	00220000 	eoreq	r0, r2, r0
     138:	18100000 	ldmdane	r0, {}	; <UNPREDICTABLE>
     13c:	0c000000 	stceq	0, cr0, [r0], {-0}
     140:	01003170 	tsteq	r0, r0, ror r1
     144:	021d0f27 	andseq	r0, sp, #156	; 0x9c
     148:	00490000 	subeq	r0, r9, r0
     14c:	00450000 	subeq	r0, r5, r0
     150:	74110000 	ldrvc	r0, [r1], #-0
     154:	34000081 	strcc	r0, [r0], #-129	; 0xffffff7f
     158:	66000002 	strvs	r0, [r0], -r2
     15c:	12000001 	andne	r0, r0, #1, 0
     160:	08025001 	stmdaeq	r2, {r0, ip, lr}
     164:	84110080 	ldrhi	r0, [r1], #-128	; 0xffffff80
     168:	fb000081 	blx	376 <__code_start__-0x7c8a>
     16c:	7d000003 	stcvc	0, cr0, [r0, #-12]
     170:	12000001 	andne	r0, r0, #1, 0
     174:	03055001 	movweq	r5, #20481	; 0x5001
     178:	000099f4 	strdeq	r9, [r0], -r4
     17c:	81901100 	orrshi	r1, r0, r0, lsl #2
     180:	03fb0000 	mvnseq	r0, #0, 0
     184:	019a0000 	orrseq	r0, sl, r0
     188:	01120000 	tsteq	r2, r0
     18c:	fc030550 	stc2	5, cr0, [r3], {80}	; 0x50
     190:	12000099 	andne	r0, r0, #153, 0	; 0x99
     194:	74025101 	strvc	r5, [r2], #-257	; 0xfffffeff
     198:	b4110000 	ldrlt	r0, [r1], #-0
     19c:	fb000081 	blx	3aa <__code_start__-0x7c56>
     1a0:	d3000003 	movwle	r0, #3
     1a4:	12000001 	andne	r0, r0, #1, 0
     1a8:	03055001 	movweq	r5, #20481	; 0x5001
     1ac:	000099d4 	ldrdeq	r9, [r0], -r4
     1b0:	05510112 	ldrbeq	r0, [r1, #-274]	; 0xfffffeee
     1b4:	00997803 	addseq	r7, r9, r3, lsl #16
     1b8:	52011200 	andpl	r1, r1, #0, 4
     1bc:	9a4c0305 	bls	1300dd8 <__bss_end__+0x12f6be8>
     1c0:	01120000 	tsteq	r2, r0
     1c4:	2a080253 	bcs	200b18 <__bss_end__+0x1f6928>
     1c8:	007d0212 	rsbseq	r0, sp, r2, lsl r2
     1cc:	99e80305 	stmibls	r8!, {r0, r2, r8, r9}^
     1d0:	13000000 	movwne	r0, #0
     1d4:	000081b8 			; <UNDEFINED> instruction: 0x000081b8
     1d8:	00000407 	andeq	r0, r0, r7, lsl #8
     1dc:	5c110000 	ldcpl	0, cr0, [r1], {-0}
     1e0:	34000081 	strcc	r0, [r0], #-129	; 0xffffff7f
     1e4:	f2000002 	vhadd.s8	d0, d0, d2
     1e8:	12000001 	andne	r0, r0, #1, 0
     1ec:	08025001 	stmdaeq	r2, {r0, ip, lr}
     1f0:	c0110080 	andsgt	r0, r1, r0, lsl #1
     1f4:	fb000081 	blx	402 <__code_start__-0x7bfe>
     1f8:	09000003 	stmdbeq	r0, {r0, r1}
     1fc:	12000002 	andne	r0, r0, #2, 0
     200:	03055001 	movweq	r5, #20481	; 0x5001
     204:	000099f4 	strdeq	r9, [r0], -r4
     208:	81c81400 	bichi	r1, r8, r0, lsl #8
     20c:	03fb0000 	mvnseq	r0, #0, 0
     210:	01120000 	tsteq	r2, r0
     214:	14030550 	strne	r0, [r3], #-1360	; 0xfffffab0
     218:	0000009a 	muleq	r0, sl, r0
     21c:	16041500 	strne	r1, [r4], -r0, lsl #10
     220:	000000b4 	strheq	r0, [r0], -r4
     224:	0000022f 	andeq	r0, r0, pc, lsr #4
     228:	00002c17 	andeq	r2, r0, r7, lsl ip
     22c:	09000700 	stmdbeq	r0, {r8, r9, sl}
     230:	0000021f 	andeq	r0, r0, pc, lsl r2
     234:	0000bc18 	andeq	fp, r0, r8, lsl ip
     238:	0e090100 	adfeqe	f0, f1, f0
     23c:	0000021d 	andeq	r0, r0, sp, lsl r2
     240:	00008038 	andeq	r8, r0, r8, lsr r0
     244:	00000114 	andeq	r0, r0, r4, lsl r1
     248:	03da9c01 	bicseq	r9, sl, #256	; 0x100
     24c:	6e190000 	cdpvs	0, 1, cr0, cr9, cr0, {0}
     250:	27090100 	strcs	r0, [r9, -r0, lsl #2]
     254:	0000002c 	andeq	r0, r0, ip, lsr #32
     258:	0000006d 	andeq	r0, r0, sp, rrx
     25c:	00000067 	andeq	r0, r0, r7, rrx
     260:	0000741a 	andeq	r7, r0, sl, lsl r4
     264:	0f0a0100 	svceq	0x000a0100
     268:	000003da 	ldrdeq	r0, [r0], -sl
     26c:	0000009f 	muleq	r0, pc, r0	; <UNPREDICTABLE>
     270:	00000099 	muleq	r0, r9, r0
     274:	0000790e 	andeq	r7, r0, lr, lsl #18
     278:	0003f600 	andeq	pc, r3, r0, lsl #12
     27c:	3c030500 	cfstr32cc	mvfx0, [r3], {-0}
     280:	0f00009a 	svceq	0x0000009a
     284:	00008050 	andeq	r8, r0, r0, asr r0
     288:	00000074 	andeq	r0, r0, r4, ror r0
     28c:	00000329 	andeq	r0, r0, r9, lsr #6
     290:	0100690c 	tsteq	r0, ip, lsl #18
     294:	00250d0c 	eoreq	r0, r5, ip, lsl #26
     298:	00cc0000 	sbceq	r0, ip, r0
     29c:	00c80000 	sbceq	r0, r8, r0
     2a0:	00100000 	andseq	r0, r0, r0
     2a4:	0c000000 	stceq	0, cr0, [r0], {-0}
     2a8:	0d010070 	stceq	0, cr0, [r1, #-448]	; 0xfffffe40
     2ac:	0003e012 	andeq	lr, r3, r2, lsl r0
     2b0:	0000ed00 	andeq	lr, r0, r0, lsl #26
     2b4:	0000eb00 	andeq	lr, r0, r0, lsl #22
     2b8:	80681100 	rsbhi	r1, r8, r0, lsl #2
     2bc:	04130000 	ldreq	r0, [r3], #-0
     2c0:	02cc0000 	sbceq	r0, ip, #0, 0
     2c4:	01120000 	tsteq	r2, r0
     2c8:	00310150 	eorseq	r0, r1, r0, asr r1
     2cc:	00808c13 	addeq	r8, r0, r3, lsl ip
     2d0:	00041f00 	andeq	r1, r4, r0, lsl #30
     2d4:	80c01100 	sbchi	r1, r0, r0, lsl #2
     2d8:	03fb0000 	mvnseq	r0, #0, 0
     2dc:	031e0000 	tsteq	lr, #0, 0
     2e0:	01120000 	tsteq	r2, r0
     2e4:	88030550 	stmdahi	r3, {r4, r6, r8, sl}
     2e8:	12000099 	andne	r0, r0, #153, 0	; 0x99
     2ec:	03055101 	movweq	r5, #20737	; 0x5101
     2f0:	00009978 	andeq	r9, r0, r8, ror r9
     2f4:	05520112 	ldrbeq	r0, [r2, #-274]	; 0xfffffeee
     2f8:	009a3c03 	addseq	r3, sl, r3, lsl #24
     2fc:	53011200 	movwpl	r1, #4608	; 0x1200
     300:	02124201 	andseq	r4, r2, #268435456	; 0x10000000
     304:	0305007d 	movweq	r0, #20605	; 0x507d
     308:	000099bc 			; <UNDEFINED> instruction: 0x000099bc
     30c:	047d0212 	ldrbteq	r0, [sp], #-530	; 0xfffffdee
     310:	12007402 	andne	r7, r0, #33554432	; 0x2000000
     314:	050c7d02 	streq	r7, [ip, #-3330]	; 0xfffff2fe
     318:	ff080074 			; <UNDEFINED> instruction: 0xff080074
     31c:	c413001a 	ldrgt	r0, [r3], #-26	; 0xffffffe6
     320:	07000080 	streq	r0, [r0, -r0, lsl #1]
     324:	00000004 	andeq	r0, r0, r4
     328:	80c40f00 	sbchi	r0, r4, r0, lsl #30
     32c:	00440000 	subeq	r0, r4, r0
     330:	038a0000 	orreq	r0, sl, #0, 0
     334:	690c0000 	stmdbvs	ip, {}	; <UNPREDICTABLE>
     338:	0d150100 	ldfeqs	f0, [r5, #-0]
     33c:	00000025 	andeq	r0, r0, r5, lsr #32
     340:	00000104 	andeq	r0, r0, r4, lsl #2
     344:	00000100 	andeq	r0, r0, r0, lsl #2
     348:	00810411 	addeq	r0, r1, r1, lsl r4
     34c:	0003fb00 	andeq	pc, r3, r0, lsl #22
     350:	00038000 	andeq	r8, r3, r0
     354:	50011200 	andpl	r1, r1, r0, lsl #4
     358:	99d40305 	ldmibls	r4, {r0, r2, r8, r9}^
     35c:	01120000 	tsteq	r2, r0
     360:	78030551 	stmdavc	r3, {r0, r4, r6, r8, sl}
     364:	12000099 	andne	r0, r0, #153, 0	; 0x99
     368:	03055201 	movweq	r5, #20993	; 0x5201
     36c:	00009a3c 	andeq	r9, r0, ip, lsr sl
     370:	01530112 	cmpeq	r3, r2, lsl r1
     374:	7d021246 	sfmvc	f1, 4, [r2, #-280]	; 0xfffffee8
     378:	bc030500 	cfstr32lt	mvfx0, [r3], {-0}
     37c:	00000099 	muleq	r0, r9, r0
     380:	00810813 	addeq	r0, r1, r3, lsl r8
     384:	00040700 	andeq	r0, r4, r0, lsl #14
     388:	080f0000 	stmdaeq	pc, {}	; <UNPREDICTABLE>
     38c:	1c000081 	stcne	0, cr0, [r0], {129}	; 0x81
     390:	b3000000 	movwlt	r0, #0
     394:	0c000003 	stceq	0, cr0, [r0], {3}
     398:	18010069 	stmdane	r1, {r0, r3, r5, r6}
     39c:	0000250d 	andeq	r2, r0, sp, lsl #10
     3a0:	00012400 	andeq	r2, r1, r0, lsl #8
     3a4:	00012200 	andeq	r2, r1, r0, lsl #4
     3a8:	81181300 	tsthi	r8, r0, lsl #6
     3ac:	042b0000 	strteq	r0, [fp], #-0
     3b0:	11000000 	mrsne	r0, (UNDEF: 0)
     3b4:	0000804c 	andeq	r8, r0, ip, asr #32
     3b8:	00000413 	andeq	r0, r0, r3, lsl r4
     3bc:	000003c9 	andeq	r0, r0, r9, asr #7
     3c0:	04500112 	ldrbeq	r0, [r0], #-274	; 0xfffffeee
     3c4:	24320076 	ldrtcs	r0, [r2], #-118	; 0xffffff8a
     3c8:	812c1400 			; <UNDEFINED> instruction: 0x812c1400
     3cc:	042b0000 	strteq	r0, [fp], #-0
     3d0:	01120000 	tsteq	r2, r0
     3d4:	00750250 	rsbseq	r0, r5, r0, asr r2
     3d8:	04080000 	streq	r0, [r8], #-0
     3dc:	000003e0 	andeq	r0, r0, r0, ror #7
     3e0:	004f0408 	subeq	r0, pc, r8, lsl #8
     3e4:	b4160000 	ldrlt	r0, [r6], #-0
     3e8:	f6000000 			; <UNDEFINED> instruction: 0xf6000000
     3ec:	17000003 	strne	r0, [r0, -r3]
     3f0:	0000002c 	andeq	r0, r0, ip, lsr #32
     3f4:	e609000f 	str	r0, [r9], -pc
     3f8:	1b000003 	blne	40c <__code_start__-0x7bf4>
     3fc:	00000234 	andeq	r0, r0, r4, lsr r2
     400:	00000234 	andeq	r0, r0, r4, lsr r2
     404:	1b062802 	blne	18a414 <__bss_end__+0x180224>
     408:	00000016 	andeq	r0, r0, r6, lsl r0
     40c:	00000016 	andeq	r0, r0, r6, lsl r0
     410:	1b066e02 	blne	19bc20 <__bss_end__+0x191a30>
     414:	000000f0 	strdeq	r0, [r0], -r0	; <UNPREDICTABLE>
     418:	000000f0 	strdeq	r0, [r0], -r0	; <UNPREDICTABLE>
     41c:	1b071e03 	blne	1c7c30 <__bss_end__+0x1bda40>
     420:	000001af 	andeq	r0, r0, pc, lsr #3
     424:	000001af 	andeq	r0, r0, pc, lsr #3
     428:	1b061d02 	blne	187838 <__bss_end__+0x17d648>
     42c:	0000006c 	andeq	r0, r0, ip, rrx
     430:	0000006c 	andeq	r0, r0, ip, rrx
     434:	00061f03 	andeq	r1, r6, r3, lsl #30
     438:	000002c2 	andeq	r0, r0, r2, asr #5
     43c:	017e0004 	cmneq	lr, r4
     440:	01040000 	mrseq	r0, (UNDEF: 4)
     444:	000000fa 	strdeq	r0, [r0], -sl
     448:	0001de0c 	andeq	sp, r1, ip, lsl #28
     44c:	00002300 	andeq	r2, r0, r0, lsl #6
     450:	0081ec00 	addeq	lr, r1, r0, lsl #24
     454:	0001ac00 	andeq	sl, r1, r0, lsl #24
     458:	00028800 	andeq	r8, r2, r0, lsl #16
     45c:	05040200 	streq	r0, [r4, #-512]	; 0xfffffe00
     460:	00746e69 	rsbseq	r6, r4, r9, ror #28
     464:	97070403 	strls	r0, [r7, -r3, lsl #8]
     468:	03000000 	movweq	r0, #0
     46c:	000a0601 	andeq	r0, sl, r1, lsl #12
     470:	02030000 	andeq	r0, r3, #0, 0
     474:	0000e605 	andeq	lr, r0, r5, lsl #12
     478:	05040300 	streq	r0, [r4, #-768]	; 0xfffffd00
     47c:	000000d1 	ldrdeq	r0, [r0], -r1
     480:	cc050803 	stcgt	8, cr0, [r5], {3}
     484:	03000000 	movweq	r0, #0
     488:	00080801 	andeq	r0, r8, r1, lsl #16
     48c:	02030000 	andeq	r0, r3, #0, 0
     490:	00005907 	andeq	r5, r0, r7, lsl #18
     494:	07040300 	streq	r0, [r4, -r0, lsl #6]
     498:	00000092 	muleq	r0, r2, r0
     49c:	8d070803 	stchi	8, cr0, [r7, #-12]
     4a0:	04000000 	streq	r0, [r0], #-0
     4a4:	00000025 	andeq	r0, r0, r5, lsr #32
     4a8:	0000007a 	andeq	r0, r0, sl, ror r0
     4ac:	00002505 	andeq	r2, r0, r5, lsl #10
     4b0:	da060000 	ble	1804b8 <__bss_end__+0x1762c8>
     4b4:	02000000 	andeq	r0, r0, #0, 0
     4b8:	00860e1c 	addeq	r0, r6, ip, lsl lr
     4bc:	04070000 	streq	r0, [r7], #-0
     4c0:	0000006b 	andeq	r0, r0, fp, rrx
     4c4:	00002504 	andeq	r2, r0, r4, lsl #10
     4c8:	00009b00 	andeq	r9, r0, r0, lsl #22
     4cc:	009b0500 	addseq	r0, fp, r0, lsl #10
     4d0:	07000000 	streq	r0, [r0, -r0]
     4d4:	0000a804 	andeq	sl, r0, r4, lsl #16
     4d8:	08010300 	stmdaeq	r1, {r8, r9}
     4dc:	00000011 	andeq	r0, r0, r1, lsl r0
     4e0:	0000a108 	andeq	sl, r0, r8, lsl #2
     4e4:	03850600 	orreq	r0, r5, #0, 12
     4e8:	21020000 	mrscs	r0, (UNDEF: 2)
     4ec:	0000b90e 	andeq	fp, r0, lr, lsl #18
     4f0:	8c040700 	stchi	7, cr0, [r4], {-0}
     4f4:	09000000 	stmdbeq	r0, {}	; <UNPREDICTABLE>
     4f8:	000001cb 	andeq	r0, r0, fp, asr #3
     4fc:	07050108 	streq	r0, [r5, -r8, lsl #2]
     500:	000000ec 	andeq	r0, r0, ip, ror #1
     504:	0100640a 	tsteq	r0, sl, lsl #8
     508:	00ec0907 	rsceq	r0, ip, r7, lsl #18
     50c:	700a0000 	andvc	r0, sl, r0
     510:	08080100 	stmdaeq	r8, {r8}
     514:	000000f3 	strdeq	r0, [r0], -r3
     518:	0070660a 	rsbseq	r6, r0, sl, lsl #12
     51c:	f6090901 			; <UNDEFINED> instruction: 0xf6090901
     520:	00000000 	andeq	r0, r0, r0
     524:	ea040803 	b	102538 <__bss_end__+0xf8348>
     528:	0b000001 	bleq	534 <__code_start__-0x7acc>
     52c:	04070c04 	streq	r0, [r7], #-3076	; 0xfffff3fc
     530:	000000f5 	strdeq	r0, [r0], -r5
     534:	0e01080d 	cdpeq	8, 0, cr0, cr1, cr13, {0}
     538:	00012002 	andeq	r2, r1, r2
     53c:	74700e00 	ldrbtvc	r0, [r0], #-3584	; 0xfffff200
     540:	10010072 	andne	r0, r1, r2, ror r0
     544:	00014211 	andeq	r4, r1, r1, lsl r2
     548:	040f0000 	streq	r0, [pc], #-0	; 550 <__code_start__-0x7ab0>
     54c:	01000002 	tsteq	r0, r2
     550:	002c0c11 	eoreq	r0, ip, r1, lsl ip
     554:	00040000 	andeq	r0, r4, r0
     558:	0001be09 	andeq	fp, r1, r9, lsl #28
     55c:	0c010800 	stceq	8, cr0, [r1], {-0}
     560:	0001420f 	andeq	r4, r1, pc, lsl #4
     564:	00730a00 	rsbseq	r0, r3, r0, lsl #20
     568:	fc041201 	stc2	2, cr1, [r4], {1}
     56c:	0a000000 	beq	574 <__code_start__-0x7a8c>
     570:	13010078 	movwne	r0, #4216	; 0x1078
     574:	0000bf0e 	andeq	fp, r0, lr, lsl #30
     578:	04070000 	streq	r0, [r7], #-0
     57c:	00000120 	andeq	r0, r0, r0, lsr #2
     580:	00020910 	andeq	r0, r2, r0, lsl r9
     584:	03140100 	tsteq	r4, #0
     588:	00000120 	andeq	r0, r0, r0, lsr #2
     58c:	0001f111 	andeq	pc, r1, r1, lsl r1	; <UNPREDICTABLE>
     590:	0f180100 	svceq	0x00180100
     594:	00000148 	andeq	r0, r0, r8, asr #2
     598:	9de00305 	stclls	3, cr0, [r0, #20]!
     59c:	d1110000 	tstle	r1, r0
     5a0:	01000001 	tsteq	r0, r1
     5a4:	01781019 	cmneq	r8, r9, lsl r0
     5a8:	03050000 	movweq	r0, #20480	; 0x5000
     5ac:	00009dd8 	ldrdeq	r9, [r0], -r8
     5b0:	01480407 	cmpeq	r8, r7, lsl #8
     5b4:	6c120000 	ldcvs	0, cr0, [r2], {-0}
     5b8:	01000000 	mrseq	r0, (UNDEF: 0)
     5bc:	81ec0652 	mvnhi	r0, r2, asr r6
     5c0:	00bc0000 	adcseq	r0, ip, r0
     5c4:	9c010000 	stcls	0, cr0, [r1], {-0}
     5c8:	000001c7 	andeq	r0, r0, r7, asr #3
     5cc:	00706113 	rsbseq	r6, r0, r3, lsl r1
     5d0:	f3145201 	vhsub.u16	d5, d4, d1
     5d4:	01000000 	mrseq	r0, (UNDEF: 0)
     5d8:	70621450 	rsbvc	r1, r2, r0, asr r4
     5dc:	0a540100 	beq	15009e4 <__bss_end__+0x14f67f4>
     5e0:	00000178 	andeq	r0, r0, r8, ror r1
     5e4:	0000013f 	andeq	r0, r0, pc, lsr r1
     5e8:	00000137 	andeq	r0, r0, r7, lsr r1
     5ec:	01007014 	tsteq	r0, r4, lsl r0
     5f0:	01780f54 	cmneq	r8, r4, asr pc
     5f4:	017b0000 	cmneq	fp, r0
     5f8:	01770000 	cmneq	r7, r0
     5fc:	15000000 	strne	r0, [r0, #-0]
     600:	000000f0 	strdeq	r0, [r0], -r0	; <UNPREDICTABLE>
     604:	f3072a01 	vpmax.u8	d2, d7, d1
     608:	ec000000 	stc	0, cr0, [r0], {-0}
     60c:	ac000082 	stcge	0, cr0, [r0], {130}	; 0x82
     610:	01000000 	mrseq	r0, (UNDEF: 0)
     614:	0002409c 	muleq	r2, ip, r0
     618:	08311600 	ldmdaeq	r1!, {r9, sl, ip}
     61c:	2a010000 	bcs	40624 <__bss_end__+0x36434>
     620:	00002c1a 	andeq	r2, r0, sl, lsl ip
     624:	0001a100 	andeq	sl, r1, r0, lsl #2
     628:	00019900 	andeq	r9, r1, r0, lsl #18
     62c:	00701400 	rsbseq	r1, r0, r0, lsl #8
     630:	780a2c01 	stmdavc	sl, {r0, sl, fp, sp}
     634:	e9000001 	stmdb	r0, {r0}
     638:	db000001 	blle	644 <__code_start__-0x79bc>
     63c:	17000001 	strne	r0, [r0, -r1]
     640:	000001c5 	andeq	r0, r0, r5, asr #3
     644:	780e2c01 	stmdavc	lr, {r0, sl, fp, sp}
     648:	4b000001 	blmi	654 <__code_start__-0x79ac>
     64c:	41000002 	tstmi	r0, r2
     650:	17000002 	strne	r0, [r0, -r2]
     654:	000001d7 	ldrdeq	r0, [r0], -r7
     658:	2c0b2d01 	stccs	13, cr2, [fp], {1}
     65c:	91000000 	mrsls	r0, (UNDEF: 0)
     660:	8f000002 	svchi	0x00000002
     664:	18000002 	stmdane	r0, {r1}
     668:	00008388 	andeq	r8, r0, r8, lsl #7
     66c:	00000240 	andeq	r0, r0, r0, asr #4
     670:	02500119 	subseq	r0, r0, #1073741830	; 0x40000006
     674:	00000074 	andeq	r0, r0, r4, ror r0
     678:	0001fb1a 	andeq	pc, r1, sl, lsl fp	; <UNPREDICTABLE>
     67c:	101c0100 	andsne	r0, ip, r0, lsl #2
     680:	00000178 	andeq	r0, r0, r8, ror r1
     684:	000082a8 	andeq	r8, r0, r8, lsr #5
     688:	00000044 	andeq	r0, r0, r4, asr #32
     68c:	02b39c01 	adcseq	r9, r3, #256	; 0x100
     690:	6e1b0000 	cdpvs	0, 1, cr0, cr11, cr0, {0}
     694:	1c010075 	stcne	0, cr0, [r1], {117}	; 0x75
     698:	00002c22 	andeq	r2, r0, r2, lsr #24
     69c:	0002a800 	andeq	sl, r2, r0, lsl #16
     6a0:	0002a400 	andeq	sl, r2, r0, lsl #8
     6a4:	70631400 	rsbvc	r1, r3, r0, lsl #8
     6a8:	08200100 	stmdaeq	r0!, {r8}
     6ac:	000002b3 			; <UNDEFINED> instruction: 0x000002b3
     6b0:	000002cc 	andeq	r0, r0, ip, asr #5
     6b4:	000002c6 	andeq	r0, r0, r6, asr #5
     6b8:	00707514 	rsbseq	r7, r0, r4, lsl r5
     6bc:	780a2301 	stmdavc	sl, {r0, r8, r9, sp}
     6c0:	fb000001 	blx	6ce <__code_start__-0x7932>
     6c4:	f7000002 			; <UNDEFINED> instruction: 0xf7000002
     6c8:	1c000002 	stcne	0, cr0, [r0], {2}
     6cc:	000082c0 	andeq	r8, r0, r0, asr #5
     6d0:	000002b9 			; <UNDEFINED> instruction: 0x000002b9
     6d4:	000002a9 	andeq	r0, r0, r9, lsr #5
     6d8:	04500119 	ldrbeq	r0, [r0], #-281	; 0xfffffee7
     6dc:	24330074 	ldrtcs	r0, [r3], #-116	; 0xffffff8c
     6e0:	82d41d00 	sbcshi	r1, r4, #0, 26
     6e4:	017e0000 	cmneq	lr, r0
     6e8:	07000000 	streq	r0, [r0, -r0]
     6ec:	0000a104 	andeq	sl, r0, r4, lsl #2
     6f0:	01f61e00 	mvnseq	r1, r0, lsl #28
     6f4:	01f60000 	mvnseq	r0, r0
     6f8:	1a030000 	bne	c0700 <__bss_end__+0xb6510>
     6fc:	010a000b 	tsteq	sl, fp
     700:	00040000 	andeq	r0, r4, r0
     704:	00000355 	andeq	r0, r0, r5, asr r3
     708:	00fa0104 	rscseq	r0, sl, r4, lsl #2
     70c:	220c0000 	andcs	r0, ip, #0, 0
     710:	23000002 	movwcs	r0, #2
     714:	98000000 	stmdals	r0, {}	; <UNPREDICTABLE>
     718:	0c000083 	stceq	0, cr0, [r0], {131}	; 0x83
     71c:	b3000000 	movwlt	r0, #0
     720:	02000004 	andeq	r0, r0, #4, 0
     724:	6e690504 	cdpvs	5, 6, cr0, cr9, cr4, {0}
     728:	04030074 	streq	r0, [r3], #-116	; 0xffffff8c
     72c:	00009707 	andeq	r9, r0, r7, lsl #14
     730:	06010300 	streq	r0, [r1], -r0, lsl #6
     734:	0000000a 	andeq	r0, r0, sl
     738:	e6050203 	str	r0, [r5], -r3, lsl #4
     73c:	03000000 	movweq	r0, #0
     740:	00d10504 	sbcseq	r0, r1, r4, lsl #10
     744:	08030000 	stmdaeq	r3, {}	; <UNPREDICTABLE>
     748:	0000cc05 	andeq	ip, r0, r5, lsl #24
     74c:	08010300 	stmdaeq	r1, {r8, r9}
     750:	00000008 	andeq	r0, r0, r8
     754:	59070203 	stmdbpl	r7, {r0, r1, r9}
     758:	03000000 	movweq	r0, #0
     75c:	00920704 	addseq	r0, r2, r4, lsl #14
     760:	08030000 	stmdaeq	r3, {}	; <UNPREDICTABLE>
     764:	00008d07 	andeq	r8, r0, r7, lsl #26
     768:	00250400 	eoreq	r0, r5, r0, lsl #8
     76c:	007a0000 	rsbseq	r0, sl, r0
     770:	25050000 	strcs	r0, [r5, #-0]
     774:	00000000 	andeq	r0, r0, r0
     778:	0000da06 	andeq	sp, r0, r6, lsl #20
     77c:	0e1c0200 	cdpeq	2, 1, cr0, cr12, cr0, {0}
     780:	00000086 	andeq	r0, r0, r6, lsl #1
     784:	006b0407 	rsbeq	r0, fp, r7, lsl #8
     788:	25040000 	strcs	r0, [r4, #-0]
     78c:	9b000000 	blls	794 <__code_start__-0x786c>
     790:	05000000 	streq	r0, [r0, #-0]
     794:	0000009b 	muleq	r0, fp, r0
     798:	a8040700 	stmdage	r4, {r8, r9, sl}
     79c:	03000000 	movweq	r0, #0
     7a0:	00110801 	andseq	r0, r1, r1, lsl #16
     7a4:	a1080000 	mrsge	r0, (UNDEF: 8)
     7a8:	06000000 	streq	r0, [r0], -r0
     7ac:	00000385 	andeq	r0, r0, r5, lsl #7
     7b0:	b90e2102 	stmdblt	lr, {r1, r8, sp}
     7b4:	07000000 	streq	r0, [r0, -r0]
     7b8:	00008c04 	andeq	r8, r0, r4, lsl #24
     7bc:	01f60900 	mvnseq	r0, r0, lsl #18
     7c0:	04010000 	streq	r0, [r1], #-0
     7c4:	0000ff07 	andeq	pc, r0, r7, lsl #30
     7c8:	00839800 	addeq	r9, r3, r0, lsl #16
     7cc:	00000c00 	andeq	r0, r0, r0, lsl #24
     7d0:	ff9c0100 			; <UNDEFINED> instruction: 0xff9c0100
     7d4:	0a000000 	beq	7dc <__code_start__-0x7824>
     7d8:	00000210 	andeq	r0, r0, r0, lsl r2
     7dc:	41110401 	tstmi	r1, r1, lsl #8
     7e0:	1f000000 	svcne	0x00000000
     7e4:	1b000003 	blne	7f8 <__code_start__-0x7808>
     7e8:	0b000003 	bleq	7fc <__code_start__-0x7804>
     7ec:	000083a0 	andeq	r8, r0, r0, lsr #7
     7f0:	00000101 	andeq	r0, r0, r1, lsl #2
     7f4:	0350010c 	cmpeq	r0, #3
     7f8:	005001f3 	ldrsheq	r0, [r0], #-19	; 0xffffffed
     7fc:	0e040d00 	cdpeq	13, 0, cr0, cr4, cr0, {0}
     800:	0000021a 	andeq	r0, r0, sl, lsl r2
     804:	0000021a 	andeq	r0, r0, sl, lsl r2
     808:	00077b02 	andeq	r7, r7, r2, lsl #22
     80c:	0000019d 	muleq	r0, sp, r1
     810:	04170004 	ldreq	r0, [r7], #-4
     814:	01040000 	mrseq	r0, (UNDEF: 4)
     818:	0000024a 	andeq	r0, r0, sl, asr #4
     81c:	0003070c 	andeq	r0, r3, ip, lsl #14
     820:	00032100 	andeq	r2, r3, r0, lsl #2
     824:	0083a400 	addeq	sl, r3, r0, lsl #8
     828:	00005800 	andeq	r5, r0, r0, lsl #16
     82c:	00052c00 	andeq	r2, r5, r0, lsl #24
     830:	023b0200 	eorseq	r0, fp, #0, 4
     834:	28020000 	stmdacs	r2, {}	; <UNPREDICTABLE>
     838:	0000311b 	andeq	r3, r0, fp, lsl r1
     83c:	03170300 	tsteq	r7, #0, 6
     840:	04040000 	streq	r0, [r4], #-0
     844:	00004800 	andeq	r4, r0, r0, lsl #16
     848:	03020400 	movweq	r0, #9216	; 0x2400
     84c:	00480000 	subeq	r0, r8, r0
     850:	00000000 	andeq	r0, r0, r0
     854:	19020405 	stmdbne	r2, {r0, r2, sl}
     858:	02000003 	andeq	r0, r0, #3, 0
     85c:	00251863 	eoreq	r1, r5, r3, ror #16
     860:	04060000 	streq	r0, [r6], #-0
     864:	746e6905 	strbtvc	r6, [lr], #-2309	; 0xfffff6fb
     868:	07040700 	streq	r0, [r4, -r0, lsl #14]
     86c:	00000097 	muleq	r0, r7, r0
     870:	0a060107 	beq	180c94 <__bss_end__+0x176aa4>
     874:	07000000 	streq	r0, [r0, -r0]
     878:	00e60502 	rsceq	r0, r6, r2, lsl #10
     87c:	04070000 	streq	r0, [r7], #-0
     880:	0000d105 	andeq	sp, r0, r5, lsl #2
     884:	05080700 	streq	r0, [r8, #-1792]	; 0xfffff900
     888:	000000cc 	andeq	r0, r0, ip, asr #1
     88c:	08080107 	stmdaeq	r8, {r0, r1, r2, r8}
     890:	07000000 	streq	r0, [r0, -r0]
     894:	00590702 	subseq	r0, r9, r2, lsl #14
     898:	04070000 	streq	r0, [r7], #-0
     89c:	00009207 	andeq	r9, r0, r7, lsl #4
     8a0:	07080700 	streq	r0, [r8, -r0, lsl #14]
     8a4:	0000008d 	andeq	r0, r0, sp, lsl #1
     8a8:	00005608 	andeq	r5, r0, r8, lsl #12
     8ac:	0000ab00 	andeq	sl, r0, r0, lsl #22
     8b0:	00560900 	subseq	r0, r6, r0, lsl #18
     8b4:	0a000000 	beq	8bc <__code_start__-0x7744>
     8b8:	000000da 	ldrdeq	r0, [r0], -sl
     8bc:	b70e1c03 	strlt	r1, [lr, -r3, lsl #24]
     8c0:	0b000000 	bleq	8c8 <__code_start__-0x7738>
     8c4:	00009c04 	andeq	r9, r0, r4, lsl #24
     8c8:	00560800 	subseq	r0, r6, r0, lsl #16
     8cc:	00cc0000 	sbceq	r0, ip, r0
     8d0:	cc090000 	stcgt	0, cr0, [r9], {-0}
     8d4:	00000000 	andeq	r0, r0, r0
     8d8:	00d9040b 	sbcseq	r0, r9, fp, lsl #8
     8dc:	01070000 	mrseq	r0, (UNDEF: 7)
     8e0:	00001108 	andeq	r1, r0, r8, lsl #2
     8e4:	00d20c00 	sbcseq	r0, r2, r0, lsl #24
     8e8:	850a0000 	strhi	r0, [sl, #-0]
     8ec:	03000003 	movweq	r0, #3
     8f0:	00ea0e21 	rsceq	r0, sl, r1, lsr #28
     8f4:	040b0000 	streq	r0, [fp], #-0
     8f8:	000000bd 	strheq	r0, [r0], -sp
     8fc:	0002340d 	andeq	r3, r2, sp, lsl #8
     900:	05060100 	streq	r0, [r6, #-256]	; 0xffffff00
     904:	00000056 	andeq	r0, r0, r6, asr r0
     908:	000083a4 	andeq	r8, r0, r4, lsr #7
     90c:	00000058 	andeq	r0, r0, r8, asr r0
     910:	01839c01 	orreq	r9, r3, r1, lsl #24
     914:	660e0000 	strvs	r0, [lr], -r0
     918:	0100746d 	tsteq	r0, sp, ror #8
     91c:	00cc1806 	sbceq	r1, ip, r6, lsl #16
     920:	91020000 	mrsls	r0, (UNDEF: 2)
     924:	62100f70 	andsvs	r0, r0, #112, 30	; 0x1c0
     928:	01006675 	tsteq	r0, r5, ror r6
     92c:	01831108 	orreq	r1, r3, r8, lsl #2
     930:	03050000 	movweq	r0, #20480	; 0x5000
     934:	00009de8 	andeq	r9, r0, r8, ror #27
     938:	00022c11 	andeq	r2, r2, r1, lsl ip
     93c:	0d090100 	stfeqs	f0, [r9, #-0]
     940:	0000004a 	andeq	r0, r0, sl, asr #32
     944:	125c9102 	subsne	r9, ip, #-2147483648	; 0x80000000
     948:	01007a73 	tsteq	r0, r3, ror sl
     94c:	00560d0c 	subseq	r0, r6, ip, lsl #26
     950:	03460000 	movteq	r0, #24576	; 0x6000
     954:	03400000 	movteq	r0, #0
     958:	cc130000 	ldcgt	0, cr0, [r3], {-0}
     95c:	94000083 	strls	r0, [r0], #-131	; 0xffffff7d
     960:	76000001 	strvc	r0, [r0], -r1
     964:	14000001 	strne	r0, [r0], #-1
     968:	75025001 	strvc	r5, [r2, #-1]
     96c:	51011400 	tstpl	r1, r0, lsl #8
     970:	04000a03 	streq	r0, [r0], #-2563	; 0xfffff5fd
     974:	03520114 	cmpeq	r2, #5
     978:	14064891 	strne	r4, [r6], #-2193	; 0xfffff76f
     97c:	91025301 	tstls	r2, r1, lsl #6
     980:	e015004c 	ands	r0, r5, ip, asr #32
     984:	14000083 	strne	r0, [r0], #-131	; 0xffffff7d
     988:	75025001 	strvc	r5, [r2, #-1]
     98c:	16000000 	strne	r0, [r0], -r0
     990:	000000d2 	ldrdeq	r0, [r0], -r2
     994:	00000194 	muleq	r0, r4, r1
     998:	00005d17 	andeq	r5, r0, r7, lsl sp
     99c:	0003ff00 	andeq	pc, r3, r0, lsl #30
     9a0:	00023118 	andeq	r3, r2, r8, lsl r1
     9a4:	00023100 	andeq	r3, r2, r0, lsl #2
     9a8:	05020500 	streq	r0, [r2, #-1280]	; 0xfffffb00
     9ac:	00014900 	andeq	r4, r1, r0, lsl #18
     9b0:	59000400 	stmdbpl	r0, {sl}
     9b4:	04000005 	streq	r0, [r0], #-5
     9b8:	00024a01 	andeq	r4, r2, r1, lsl #20
     9bc:	03610c00 	cmneq	r1, #0, 24
     9c0:	03210000 			; <UNDEFINED> instruction: 0x03210000
     9c4:	83fc0000 	mvnshi	r0, #0, 0
     9c8:	003c0000 	eorseq	r0, ip, r0
     9cc:	06500000 	ldrbeq	r0, [r0], -r0
     9d0:	04020000 	streq	r0, [r2], #-0
     9d4:	746e6905 	strbtvc	r6, [lr], #-2309	; 0xfffff6fb
     9d8:	07040300 	streq	r0, [r4, -r0, lsl #6]
     9dc:	00000097 	muleq	r0, r7, r0
     9e0:	0a060103 	beq	180df4 <__bss_end__+0x176c04>
     9e4:	03000000 	movweq	r0, #0
     9e8:	00e60502 	rsceq	r0, r6, r2, lsl #10
     9ec:	04030000 	streq	r0, [r3], #-0
     9f0:	0000d105 	andeq	sp, r0, r5, lsl #2
     9f4:	05080300 	streq	r0, [r8, #-768]	; 0xfffffd00
     9f8:	000000cc 	andeq	r0, r0, ip, asr #1
     9fc:	08080103 	stmdaeq	r8, {r0, r1, r8}
     a00:	03000000 	movweq	r0, #0
     a04:	00590702 	subseq	r0, r9, r2, lsl #14
     a08:	04030000 	streq	r0, [r3], #-0
     a0c:	00009207 	andeq	r9, r0, r7, lsl #4
     a10:	07080300 	streq	r0, [r8, -r0, lsl #6]
     a14:	0000008d 	andeq	r0, r0, sp, lsl #1
     a18:	00002504 	andeq	r2, r0, r4, lsl #10
     a1c:	00007a00 	andeq	r7, r0, r0, lsl #20
     a20:	00250500 	eoreq	r0, r5, r0, lsl #10
     a24:	06000000 	streq	r0, [r0], -r0
     a28:	000000da 	ldrdeq	r0, [r0], -sl
     a2c:	860e1c02 	strhi	r1, [lr], -r2, lsl #24
     a30:	07000000 	streq	r0, [r0, -r0]
     a34:	00006b04 	andeq	r6, r0, r4, lsl #22
     a38:	00250400 	eoreq	r0, r5, r0, lsl #8
     a3c:	009b0000 	addseq	r0, fp, r0
     a40:	9b050000 	blls	140a48 <__bss_end__+0x136858>
     a44:	00000000 	andeq	r0, r0, r0
     a48:	00a80407 	adceq	r0, r8, r7, lsl #8
     a4c:	01030000 	mrseq	r0, (UNDEF: 3)
     a50:	00001108 	andeq	r1, r0, r8, lsl #2
     a54:	00a10800 	adceq	r0, r1, r0, lsl #16
     a58:	85060000 	strhi	r0, [r6, #-0]
     a5c:	02000003 	andeq	r0, r0, #3, 0
     a60:	00b90e21 	adcseq	r0, r9, r1, lsr #28
     a64:	04070000 	streq	r0, [r7], #-0
     a68:	0000008c 	andeq	r0, r0, ip, lsl #1
     a6c:	00007a09 	andeq	r7, r0, r9, lsl #20
     a70:	07060100 	streq	r0, [r6, -r0, lsl #2]
     a74:	9dc40305 	stclls	3, cr0, [r4, #20]
     a78:	540a0000 	strpl	r0, [sl], #-0
     a7c:	01000003 	tsteq	r0, r3
     a80:	8428060b 	strthi	r0, [r8], #-1547	; 0xfffff9f5
     a84:	00100000 	andseq	r0, r0, r0
     a88:	9c010000 	stcls	0, cr0, [r1], {-0}
     a8c:	000000f1 	strdeq	r0, [r0], -r1
     a90:	0070660b 	rsbseq	r6, r0, fp, lsl #12
     a94:	86190b01 	ldrhi	r0, [r9], -r1, lsl #22
     a98:	01000000 	mrseq	r0, (UNDEF: 0)
     a9c:	af0c0050 	svcge	0x000c0050
     aa0:	01000001 	tsteq	r0, r1
     aa4:	84100608 	ldrhi	r0, [r0], #-1544	; 0xfffff9f8
     aa8:	00180000 	andseq	r0, r8, r0
     aac:	9c010000 	stcls	0, cr0, [r1], {-0}
     ab0:	0003430d 	andeq	r4, r3, sp, lsl #6
     ab4:	0c030100 	stfeqs	f0, [r3], {-0}
     ab8:	00000025 	andeq	r0, r0, r5, lsr #32
     abc:	000083fc 	strdeq	r8, [r0], -ip
     ac0:	00000014 	andeq	r0, r0, r4, lsl r0
     ac4:	01409c01 	cmpeq	r0, r1, lsl #24
     ac8:	630e0000 	movwvs	r0, #57344	; 0xe000
     acc:	21030100 	mrscs	r0, (UNDEF: 19)
     ad0:	00000025 	andeq	r0, r0, r5, lsr #32
     ad4:	00000373 	andeq	r0, r0, r3, ror r3
     ad8:	0000036f 	andeq	r0, r0, pc, ror #6
     adc:	0084080f 	addeq	r0, r4, pc, lsl #16
     ae0:	00014000 	andeq	r4, r1, r0
     ae4:	50011000 	andpl	r1, r1, r0
     ae8:	00007402 	andeq	r7, r0, r2, lsl #8
     aec:	03721100 	cmneq	r2, #0
     af0:	03720000 	cmneq	r2, #0, 0
     af4:	42020000 	andmi	r0, r2, #0, 0
     af8:	00f30006 	rscseq	r0, r3, r6
     afc:	00040000 	andeq	r0, r4, r0
     b00:	00000668 	andeq	r0, r0, r8, ror #12
     b04:	024a0104 	subeq	r0, sl, #1
     b08:	8a0c0000 	bhi	300b10 <__bss_end__+0x2f6920>
     b0c:	21000003 	tstcs	r0, r3
     b10:	38000003 	stmdacc	r0, {r0, r1}
     b14:	38000084 	stmdacc	r0, {r2, r7}
     b18:	f2000000 	vhadd.s8	d0, d0, d0
     b1c:	02000006 	andeq	r0, r0, #6, 0
     b20:	6e690504 	cdpvs	5, 6, cr0, cr9, cr4, {0}
     b24:	04030074 	streq	r0, [r3], #-116	; 0xffffff8c
     b28:	00009707 	andeq	r9, r0, r7, lsl #14
     b2c:	06010300 	streq	r0, [r1], -r0, lsl #6
     b30:	0000000a 	andeq	r0, r0, sl
     b34:	e6050203 	str	r0, [r5], -r3, lsl #4
     b38:	03000000 	movweq	r0, #0
     b3c:	00d10504 	sbcseq	r0, r1, r4, lsl #10
     b40:	08030000 	stmdaeq	r3, {}	; <UNPREDICTABLE>
     b44:	0000cc05 	andeq	ip, r0, r5, lsl #24
     b48:	08010300 	stmdaeq	r1, {r8, r9}
     b4c:	00000008 	andeq	r0, r0, r8
     b50:	59070203 	stmdbpl	r7, {r0, r1, r9}
     b54:	03000000 	movweq	r0, #0
     b58:	00920704 	addseq	r0, r2, r4, lsl #14
     b5c:	08030000 	stmdaeq	r3, {}	; <UNPREDICTABLE>
     b60:	00008d07 	andeq	r8, r0, r7, lsl #26
     b64:	00250400 	eoreq	r0, r5, r0, lsl #8
     b68:	007a0000 	rsbseq	r0, sl, r0
     b6c:	25050000 	strcs	r0, [r5, #-0]
     b70:	00000000 	andeq	r0, r0, r0
     b74:	0000da06 	andeq	sp, r0, r6, lsl #20
     b78:	0e1c0200 	cdpeq	2, 1, cr0, cr12, cr0, {0}
     b7c:	00000086 	andeq	r0, r0, r6, lsl #1
     b80:	006b0407 	rsbeq	r0, fp, r7, lsl #8
     b84:	25040000 	strcs	r0, [r4, #-0]
     b88:	9b000000 	blls	b90 <__code_start__-0x7470>
     b8c:	05000000 	streq	r0, [r0, #-0]
     b90:	0000009b 	muleq	r0, fp, r0
     b94:	a8040700 	stmdage	r4, {r8, r9, sl}
     b98:	03000000 	movweq	r0, #0
     b9c:	00110801 	andseq	r0, r1, r1, lsl #16
     ba0:	a1080000 	mrsge	r0, (UNDEF: 8)
     ba4:	06000000 	streq	r0, [r0], -r0
     ba8:	00000385 	andeq	r0, r0, r5, lsl #7
     bac:	b90e2102 	stmdblt	lr, {r1, r8, sp}
     bb0:	07000000 	streq	r0, [r0, -r0]
     bb4:	00008c04 	andeq	r8, r0, r4, lsl #24
     bb8:	00ad0900 	adceq	r0, sp, r0, lsl #18
     bbc:	0c010000 	stceq	0, cr0, [r1], {-0}
     bc0:	c8030507 	stmdagt	r3, {r0, r1, r2, r8, sl}
     bc4:	0a00009d 	beq	e40 <__code_start__-0x71c0>
     bc8:	0000037c 	andeq	r0, r0, ip, ror r3
     bcc:	25050401 	strcs	r0, [r5, #-1025]	; 0xfffffbff
     bd0:	38000000 	stmdacc	r0, {}	; <UNPREDICTABLE>
     bd4:	38000084 	stmdacc	r0, {r2, r7}
     bd8:	01000000 	mrseq	r0, (UNDEF: 0)
     bdc:	00700b9c 			; <UNDEFINED> instruction: 0x00700b9c
     be0:	9b1f0401 	blls	7c1bec <__bss_end__+0x7b79fc>
     be4:	99000000 	stmdbls	r0, {}	; <UNPREDICTABLE>
     be8:	91000003 	tstls	r0, r3
     bec:	00000003 	andeq	r0, r0, r3
     bf0:	000c7f00 	andeq	r7, ip, r0, lsl #30
     bf4:	06000400 	streq	r0, [r0], -r0, lsl #8
     bf8:	04000007 	streq	r0, [r0], #-7
     bfc:	00024a01 	andeq	r4, r2, r1, lsl #20
     c00:	03a90c00 			; <UNDEFINED> instruction: 0x03a90c00
     c04:	03210000 			; <UNDEFINED> instruction: 0x03210000
     c08:	84700000 	ldrbthi	r0, [r0], #-0
     c0c:	09b40000 	ldmibeq	r4!, {}	; <UNPREDICTABLE>
     c10:	07960000 	ldreq	r0, [r6, r0]
     c14:	08020000 	stmdaeq	r2, {}	; <UNPREDICTABLE>
     c18:	00008d07 	andeq	r8, r0, r7, lsl #26
     c1c:	07040200 	streq	r0, [r4, -r0, lsl #4]
     c20:	00000097 	muleq	r0, r7, r0
     c24:	69050403 	stmdbvs	r5, {r0, r1, sl}
     c28:	0200746e 	andeq	r7, r0, #1845493760	; 0x6e000000
     c2c:	000a0601 	andeq	r0, sl, r1, lsl #12
     c30:	02020000 	andeq	r0, r2, #0, 0
     c34:	0000e605 	andeq	lr, r0, r5, lsl #12
     c38:	05040200 	streq	r0, [r4, #-512]	; 0xfffffe00
     c3c:	000000d1 	ldrdeq	r0, [r0], -r1
     c40:	cc050802 	stcgt	8, cr0, [r5], {2}
     c44:	02000000 	andeq	r0, r0, #0, 0
     c48:	00080801 	andeq	r0, r8, r1, lsl #16
     c4c:	02020000 	andeq	r0, r2, #0, 0
     c50:	00005907 	andeq	r5, r0, r7, lsl #18
     c54:	040f0400 	streq	r0, [pc], #-1024	; c5c <__code_start__-0x73a4>
     c58:	34020000 	strcc	r0, [r2], #-0
     c5c:	00007019 	andeq	r7, r0, r9, lsl r0
     c60:	07040200 	streq	r0, [r4, -r0, lsl #4]
     c64:	00000092 	muleq	r0, r2, r0
     c68:	0003a004 	andeq	sl, r3, r4
     c6c:	19370200 	ldmdbne	r7!, {r9}
     c70:	00000025 	andeq	r0, r0, r5, lsr #32
     c74:	00003305 	andeq	r3, r0, r5, lsl #6
     c78:	00009200 	andeq	r9, r0, r0, lsl #4
     c7c:	00330600 	eorseq	r0, r3, r0, lsl #12
     c80:	07000000 	streq	r0, [r0, -r0]
     c84:	000000da 	ldrdeq	r0, [r0], -sl
     c88:	9e0e1c03 	cdpls	12, 0, cr1, cr14, cr3, {0}
     c8c:	08000000 	stmdaeq	r0, {}	; <UNPREDICTABLE>
     c90:	00008304 	andeq	r8, r0, r4, lsl #6
     c94:	00330500 	eorseq	r0, r3, r0, lsl #10
     c98:	00b30000 	adcseq	r0, r3, r0
     c9c:	b3060000 	movwlt	r0, #24576	; 0x6000
     ca0:	00000000 	andeq	r0, r0, r0
     ca4:	00c00408 	sbceq	r0, r0, r8, lsl #8
     ca8:	01020000 	mrseq	r0, (UNDEF: 2)
     cac:	00001108 	andeq	r1, r0, r8, lsl #2
     cb0:	00b90900 	adcseq	r0, r9, r0, lsl #18
     cb4:	85070000 	strhi	r0, [r7, #-0]
     cb8:	03000003 	movweq	r0, #3
     cbc:	00d10e21 	sbcseq	r0, r1, r1, lsr #28
     cc0:	04080000 	streq	r0, [r8], #-0
     cc4:	000000a4 	andeq	r0, r0, r4, lsr #1
     cc8:	0003bc07 	andeq	fp, r3, r7, lsl #24
     ccc:	0d0b0400 	cfstrseq	mvf0, [fp, #-0]
     cd0:	000000b9 	strheq	r0, [r0], -r9
     cd4:	00044507 	andeq	r4, r4, r7, lsl #10
     cd8:	0d0c0400 	cfstrseq	mvf0, [ip, #-0]
     cdc:	000000b9 	strheq	r0, [r0], -r9
     ce0:	0003cb07 	andeq	ip, r3, r7, lsl #22
     ce4:	0d0d0400 	cfstrseq	mvf0, [sp, #-0]
     ce8:	000000b9 	strheq	r0, [r0], -r9
     cec:	0003f407 	andeq	pc, r3, r7, lsl #8
     cf0:	0d0e0400 	cfstrseq	mvf0, [lr, #-0]
     cf4:	000000b9 	strheq	r0, [r0], -r9
     cf8:	00046e07 	andeq	r6, r4, r7, lsl #28
     cfc:	0d0f0400 	cfstrseq	mvf0, [pc, #-0]	; d04 <__code_start__-0x72fc>
     d00:	000000b9 	strheq	r0, [r0], -r9
     d04:	0003df07 	andeq	sp, r3, r7, lsl #30
     d08:	0d100400 	cfldrseq	mvf0, [r0, #-0]
     d0c:	000000b9 	strheq	r0, [r0], -r9
     d10:	00047d07 	andeq	r7, r4, r7, lsl #26
     d14:	0d110400 	cfldrseq	mvf0, [r1, #-0]
     d18:	000000b9 	strheq	r0, [r0], -r9
     d1c:	00040007 	andeq	r0, r4, r7
     d20:	0d120400 	cfldrseq	mvf0, [r2, #-0]
     d24:	000000b9 	strheq	r0, [r0], -r9
     d28:	00023b04 	andeq	r3, r2, r4, lsl #22
     d2c:	1b280500 	blne	a02134 <__bss_end__+0x9f7f44>
     d30:	00000143 	andeq	r0, r0, r3, asr #2
     d34:	0003170a 	andeq	r1, r3, sl, lsl #14
     d38:	00060400 	andeq	r0, r6, r0, lsl #8
     d3c:	0000015a 	andeq	r0, r0, sl, asr r1
     d40:	0003020b 	andeq	r0, r3, fp, lsl #4
     d44:	00015a00 	andeq	r5, r1, r0, lsl #20
     d48:	0c000000 	stceq	0, cr0, [r0], {-0}
     d4c:	03190404 	tsteq	r9, #4, 8	; 0x4000000
     d50:	63050000 	movwvs	r0, #20480	; 0x5000
     d54:	00013718 	andeq	r3, r1, r8, lsl r7
     d58:	02310d00 	eorseq	r0, r1, #0, 26
     d5c:	81010000 	mrshi	r0, (UNDEF: 1)
     d60:	00003305 	andeq	r3, r0, r5, lsl #6
     d64:	0087f800 	addeq	pc, r7, r0, lsl #16
     d68:	00062c00 	andeq	r2, r6, r0, lsl #24
     d6c:	6a9c0100 	bvs	fe701174 <__bss_end__+0xfe6f6f84>
     d70:	0e000008 	cdpeq	0, 0, cr0, cr0, cr8, {0}
     d74:	00667562 	rsbeq	r7, r6, r2, ror #10
     d78:	6a158101 	bvs	561184 <__bss_end__+0x556f94>
     d7c:	d9000008 	stmdble	r0, {r3}
     d80:	cf000003 	svcgt	0x00000003
     d84:	0e000003 	cdpeq	0, 0, cr0, cr0, cr3, {0}
     d88:	8101006e 	tsthi	r1, lr, rrx
     d8c:	0000331e 	andeq	r3, r0, lr, lsl r3
     d90:	00042600 	andeq	r2, r4, r0, lsl #12
     d94:	00041e00 	andeq	r1, r4, r0, lsl #28
     d98:	6d660e00 	stclvs	14, cr0, [r6, #-0]
     d9c:	81010074 	tsthi	r1, r4, ror r0
     da0:	0000b32d 	andeq	fp, r0, sp, lsr #6
     da4:	00047800 	andeq	r7, r4, r0, lsl #16
     da8:	00046000 	andeq	r6, r4, r0
     dac:	022c0f00 	eoreq	r0, ip, #0, 30
     db0:	81010000 	mrshi	r0, (UNDEF: 1)
     db4:	00015c3a 	andeq	r5, r1, sl, lsr ip
     db8:	00053a00 	andeq	r3, r5, r0, lsl #20
     dbc:	00050c00 	andeq	r0, r5, r0, lsl #24
     dc0:	00701000 	rsbseq	r1, r0, r0
     dc4:	6a088201 	bvs	2215d0 <__bss_end__+0x2173e0>
     dc8:	8d000008 	stchi	0, cr0, [r0, #-32]	; 0xffffffe0
     dcc:	77000006 	strvc	r0, [r0, -r6]
     dd0:	10000006 	andne	r0, r0, r6
     dd4:	82010065 	andhi	r0, r1, #101, 0	; 0x65
     dd8:	00086a12 	andeq	r6, r8, r2, lsl sl
     ddc:	00071600 	andeq	r1, r7, r0, lsl #12
     de0:	00071400 	andeq	r1, r7, r0, lsl #8
     de4:	30781000 	rsbscc	r1, r8, r0
     de8:	0e830100 	rmfeqs	f0, f3, f0
     dec:	00000064 	andeq	r0, r0, r4, rrx
     df0:	0000072f 	andeq	r0, r0, pc, lsr #14
     df4:	00000729 	andeq	r0, r0, r9, lsr #14
     df8:	00317810 	eorseq	r7, r1, r0, lsl r8
     dfc:	64118301 	ldrvs	r8, [r1], #-769	; 0xfffffcff
     e00:	5e000000 	cdppl	0, 0, cr0, cr0, cr0, {0}
     e04:	58000007 	stmdapl	r0, {r0, r1, r2}
     e08:	11000007 	tstne	r0, r7
     e0c:	00000427 	andeq	r0, r0, r7, lsr #8
     e10:	b3118601 	tstlt	r1, #1048576	; 0x100000
     e14:	8f000000 	svchi	0x00000000
     e18:	87000007 	strhi	r0, [r0, -r7]
     e1c:	12000007 	andne	r0, r0, #7, 0
     e20:	00000079 	andeq	r0, r0, r9, ror r0
     e24:	00000880 	andeq	r0, r0, r0, lsl #17
     e28:	9bb00305 	blls	fec01a44 <__bss_end__+0xfebf7854>
     e2c:	98130000 	ldmdals	r3, {}	; <UNPREDICTABLE>
     e30:	10000000 	andne	r0, r0, r0
     e34:	91010073 	tstls	r1, r3, ror r0
     e38:	00086a0a 	andeq	r6, r8, sl, lsl #20
     e3c:	0007d500 	andeq	sp, r7, r0, lsl #10
     e40:	0007c900 	andeq	ip, r7, r0, lsl #18
     e44:	756e1400 	strbvc	r1, [lr, #-1024]!	; 0xfffffc00
     e48:	9101006d 	tstls	r1, sp, rrx
     e4c:	0008850d 	andeq	r8, r8, sp, lsl #10
     e50:	d8910300 	ldmle	r1, {r8, r9}
     e54:	048a157d 	streq	r1, [sl], #1405	; 0x57d
     e58:	91010000 	mrsls	r0, (UNDEF: 1)
     e5c:	00088517 	andeq	r8, r8, r7, lsl r5
     e60:	d8910300 	ldmle	r1, {r8, r9}
     e64:	03d9117e 	bicseq	r1, r9, #-2147483617	; 0x8000001f
     e68:	92010000 	andls	r0, r1, #0, 0
     e6c:	00002c0d 	andeq	r2, r0, sp, lsl #24
     e70:	00082700 	andeq	r2, r8, r0, lsl #14
     e74:	00081f00 	andeq	r1, r8, r0, lsl #30
     e78:	00c01600 	sbceq	r1, r0, r0, lsl #12
     e7c:	04f10000 	ldrbteq	r0, [r1], #0
     e80:	74100000 	ldrvc	r0, [r0], #-0
     e84:	9e010079 	mcrls	0, 0, r0, cr1, cr9, {3}
     e88:	0000b31d 	andeq	fp, r0, sp, lsl r3
     e8c:	00086800 	andeq	r6, r8, r0, lsl #16
     e90:	00085c00 	andeq	r5, r8, r0, lsl #24
     e94:	78781400 	ldmdavc	r8!, {sl, ip}^
     e98:	1aa20100 	bne	fe8812a0 <__bss_end__+0xfe8770b0>
     e9c:	00000077 	andeq	r0, r0, r7, ror r0
     ea0:	04935906 	ldreq	r5, [r3], #2310	; 0x906
     ea4:	1704935b 	smlsdne	r4, fp, r3, r9
     ea8:	00008984 	andeq	r8, r0, r4, lsl #19
     eac:	00000c3a 	andeq	r0, r0, sl, lsr ip
     eb0:	000002d8 	ldrdeq	r0, [r0], -r8
     eb4:	02500118 	subseq	r0, r0, #6
     eb8:	01180076 	tsteq	r8, r6, ror r0
     ebc:	a4030551 	strge	r0, [r3], #-1361	; 0xfffffaaf
     ec0:	1800009a 	stmdane	r0, {r1, r3, r4, r7}
     ec4:	33015201 	movwcc	r5, #4609	; 0x1201
     ec8:	899c1700 	ldmibhi	ip, {r8, r9, sl, ip}
     ecc:	0c3a0000 	ldceq	0, cr0, [sl], #-0
     ed0:	02fa0000 	rscseq	r0, sl, #0, 0
     ed4:	01180000 	tsteq	r8, r0
     ed8:	00760250 	rsbseq	r0, r6, r0, asr r2
     edc:	05510118 	ldrbeq	r0, [r1, #-280]	; 0xfffffee8
     ee0:	009ab803 	addseq	fp, sl, r3, lsl #16
     ee4:	52011800 	andpl	r1, r1, #0, 16
     ee8:	17003301 	strne	r3, [r0, -r1, lsl #6]
     eec:	000089c0 	andeq	r8, r0, r0, asr #19
     ef0:	00000c46 	andeq	r0, r0, r6, asr #24
     ef4:	00000317 	andeq	r0, r0, r7, lsl r3
     ef8:	05500118 	ldrbeq	r0, [r0, #-280]	; 0xfffffee8
     efc:	009aa803 	addseq	sl, sl, r3, lsl #16
     f00:	51011800 	tstpl	r1, r0, lsl #16
     f04:	00007b02 	andeq	r7, r0, r2, lsl #22
     f08:	0089cc17 	addeq	ip, r9, r7, lsl ip
     f0c:	000c4600 	andeq	r4, ip, r0, lsl #12
     f10:	00033400 	andeq	r3, r3, r0, lsl #8
     f14:	50011800 	andpl	r1, r1, r0, lsl #16
     f18:	9ab00305 	bls	fec01b34 <__bss_end__+0xfebf7944>
     f1c:	01180000 	tsteq	r8, r0
     f20:	00790251 	rsbseq	r0, r9, r1, asr r2
     f24:	89dc1700 	ldmibhi	ip, {r8, r9, sl, ip}^
     f28:	0c3a0000 	ldceq	0, cr0, [sl], #-0
     f2c:	03560000 	cmpeq	r6, #0, 0
     f30:	01180000 	tsteq	r8, r0
     f34:	00760250 	rsbseq	r0, r6, r0, asr r2
     f38:	05510118 	ldrbeq	r0, [r1, #-280]	; 0xfffffee8
     f3c:	009aa403 	addseq	sl, sl, r3, lsl #8
     f40:	52011800 	andpl	r1, r1, #0, 16
     f44:	17003301 	strne	r3, [r0, -r1, lsl #6]
     f48:	00008a0c 	andeq	r8, r0, ip, lsl #20
     f4c:	00000aa4 	andeq	r0, r0, r4, lsr #21
     f50:	00000383 	andeq	r0, r0, r3, lsl #7
     f54:	01500118 	cmpeq	r0, r8, lsl r1
     f58:	51011840 	tstpl	r1, r0, asr #16
     f5c:	7dd09103 	ldfvcp	f1, [r0, #12]
     f60:	02520118 	subseq	r0, r2, #6
     f64:	0118007b 	tsteq	r8, fp, ror r0
     f68:	00750253 	rsbseq	r0, r5, r3, asr r2
     f6c:	007d0218 	rsbseq	r0, sp, r8, lsl r2
     f70:	00007602 	andeq	r7, r0, r2, lsl #12
     f74:	008a2c17 	addeq	r2, sl, r7, lsl ip
     f78:	000aa400 	andeq	sl, sl, r0, lsl #8
     f7c:	0003aa00 	andeq	sl, r3, r0, lsl #20
     f80:	50011800 	andpl	r1, r1, r0, lsl #16
     f84:	01184001 	tsteq	r8, r1
     f88:	d0910351 	addsle	r0, r1, r1, asr r3
     f8c:	5201187e 	andpl	r1, r1, #8257536	; 0x7e0000
     f90:	18007902 	stmdane	r0, {r1, r8, fp, ip, sp, lr}
     f94:	02007d02 	andeq	r7, r0, #128	; 0x80
     f98:	17000076 	smlsdxne	r0, r6, r0, r0
     f9c:	00008a3c 	andeq	r8, r0, ip, lsr sl
     fa0:	00000c52 	andeq	r0, r0, r2, asr ip
     fa4:	000003c6 	andeq	r0, r0, r6, asr #7
     fa8:	03500118 	cmpeq	r0, #6
     fac:	187dd091 	ldmdane	sp!, {r0, r4, r7, ip, lr, pc}^
     fb0:	91035101 	tstls	r3, r1, lsl #2
     fb4:	17007ed2 			; <UNDEFINED> instruction: 0x17007ed2
     fb8:	00008c80 	andeq	r8, r0, r0, lsl #25
     fbc:	00000c3a 	andeq	r0, r0, sl, lsr ip
     fc0:	000003e8 	andeq	r0, r0, r8, ror #7
     fc4:	02500118 	subseq	r0, r0, #6
     fc8:	01180076 	tsteq	r8, r6, ror r0
     fcc:	b8030551 	stmdalt	r3, {r0, r4, r6, r8, sl}
     fd0:	1800009a 	stmdane	r0, {r1, r3, r4, r7}
     fd4:	33015201 	movwcc	r5, #4609	; 0x1201
     fd8:	8ca41700 	stchi	7, cr1, [r4]
     fdc:	0aa40000 	beq	fe900fe4 <__bss_end__+0xfe8f6df4>
     fe0:	04150000 	ldreq	r0, [r5], #-0
     fe4:	01180000 	tsteq	r8, r0
     fe8:	183a0150 	ldmdane	sl!, {r4, r6, r8}
     fec:	91035101 	tstls	r3, r1, lsl #2
     ff0:	01187dd0 			; <UNDEFINED> instruction: 0x01187dd0
     ff4:	007b0252 	rsbseq	r0, fp, r2, asr r2
     ff8:	02530118 	subseq	r0, r3, #6
     ffc:	02180075 	andseq	r0, r8, #117, 0	; 0x75
    1000:	7602007d 			; <UNDEFINED> instruction: 0x7602007d
    1004:	c4170000 	ldrgt	r0, [r7], #-0
    1008:	a400008c 	strge	r0, [r0], #-140	; 0xffffff74
    100c:	3c00000a 	stccc	0, cr0, [r0], {10}
    1010:	18000004 	stmdane	r0, {r2}
    1014:	3a015001 	bcc	55020 <__bss_end__+0x4ae30>
    1018:	03510118 	cmpeq	r1, #6
    101c:	187ed091 	ldmdane	lr!, {r0, r4, r7, ip, lr, pc}^
    1020:	79025201 	stmdbvc	r2, {r0, r9, ip, lr}
    1024:	7d021800 	stcvc	8, cr1, [r2, #-0]
    1028:	00760200 	rsbseq	r0, r6, r0, lsl #4
    102c:	8cd01700 	ldclhi	7, cr1, [r0], {0}
    1030:	0c5e0000 	mraeq	r0, lr, acc0
    1034:	045a0000 	ldrbeq	r0, [sl], #-0
    1038:	01180000 	tsteq	r8, r0
    103c:	d0910350 	addsle	r0, r1, r0, asr r3
    1040:	5101187d 	tstpl	r1, sp, ror r8
    1044:	9a680305 	bls	1a01c60 <__bss_end__+0x19f7a70>
    1048:	17000000 	strne	r0, [r0, -r0]
    104c:	00008ce4 	andeq	r8, r0, r4, ror #25
    1050:	00000c6a 	andeq	r0, r0, sl, ror #24
    1054:	00000476 	andeq	r0, r0, r6, ror r4
    1058:	03500118 	cmpeq	r0, #6
    105c:	187dd091 	ldmdane	sp!, {r0, r4, r7, ip, lr, pc}^
    1060:	91035101 	tstls	r3, r1, lsl #2
    1064:	19007ed0 	stmdbne	r0, {r4, r6, r7, r9, sl, fp, ip, sp, lr}
    1068:	00008cf0 	strdeq	r8, [r0], -r0
    106c:	00000c52 	andeq	r0, r0, r2, asr ip
    1070:	008db417 	addeq	fp, sp, r7, lsl r4
    1074:	000c4600 	andeq	r4, ip, r0, lsl #12
    1078:	0004a800 	andeq	sl, r4, r0, lsl #16
    107c:	50011800 	andpl	r1, r1, r0, lsl #16
    1080:	99d40305 	ldmibls	r4, {r0, r2, r8, r9}^
    1084:	01180000 	tsteq	r8, r0
    1088:	54030551 	strpl	r0, [r3], #-1361	; 0xfffffaaf
    108c:	1800009a 	stmdane	r0, {r1, r3, r4, r7}
    1090:	03055201 	movweq	r5, #20993	; 0x5201
    1094:	00009bb0 			; <UNDEFINED> instruction: 0x00009bb0
    1098:	8db81900 			; <UNDEFINED> instruction: 0x8db81900
    109c:	0c760000 	ldcleq	0, cr0, [r6], #-0
    10a0:	d0170000 	andsle	r0, r7, r0
    10a4:	4600008d 	strmi	r0, [r0], -sp, lsl #1
    10a8:	e700000c 	str	r0, [r0, -ip]
    10ac:	18000004 	stmdane	r0, {r2}
    10b0:	03055001 	movweq	r5, #20481	; 0x5001
    10b4:	00009af8 	strdeq	r9, [r0], -r8
    10b8:	05510118 	ldrbeq	r0, [r1, #-280]	; 0xfffffee8
    10bc:	009a5403 	addseq	r5, sl, r3, lsl #8
    10c0:	52011800 	andpl	r1, r1, #0, 16
    10c4:	9bb00305 	blls	fec01ce0 <__bss_end__+0xfebf7af0>
    10c8:	01180000 	tsteq	r8, r0
    10cc:	b6080253 			; <UNDEFINED> instruction: 0xb6080253
    10d0:	007d0218 	rsbseq	r0, sp, r8, lsl r2
    10d4:	00007602 	andeq	r7, r0, r2, lsl #12
    10d8:	008dd419 	addeq	sp, sp, r9, lsl r4
    10dc:	000c7600 	andeq	r7, ip, r0, lsl #12
    10e0:	e31a0000 	tst	sl, #0, 0
    10e4:	84000009 	strhi	r0, [r0], #-9
    10e8:	04000088 	streq	r0, [r0], #-136	; 0xffffff78
    10ec:	0000e800 	andeq	lr, r0, r0, lsl #16
    10f0:	0a940100 	beq	fe5014f8 <__bss_end__+0xfe4f7308>
    10f4:	00000515 	andeq	r0, r0, r5, lsl r5
    10f8:	0009f41b 	andeq	pc, r9, fp, lsl r4	; <UNPREDICTABLE>
    10fc:	0008c400 	andeq	ip, r8, r0, lsl #8
    1100:	0008c000 	andeq	ip, r8, r0
    1104:	951a0000 	ldrls	r0, [sl, #-0]
    1108:	6c000008 	stcvs	0, cr0, [r0], {8}
    110c:	0100008a 	smlabbeq	r0, sl, r0, r0
    1110:	00010800 	andeq	r0, r1, r0, lsl #16
    1114:	09dc0100 	ldmibeq	ip, {r8}^
    1118:	0000064b 	andeq	r0, r0, fp, asr #12
    111c:	0008be1b 	andeq	fp, r8, fp, lsl lr
    1120:	0008f200 	andeq	pc, r8, r0, lsl #4
    1124:	0008ec00 	andeq	lr, r8, r0, lsl #24
    1128:	08e01b00 	stmiaeq	r0!, {r8, r9, fp, ip}^
    112c:	09270000 	stmdbeq	r7!, {}	; <UNPREDICTABLE>
    1130:	09210000 	stmdbeq	r1!, {}	; <UNPREDICTABLE>
    1134:	d41b0000 	ldrle	r0, [fp], #-0
    1138:	59000008 	stmdbpl	r0, {r3}
    113c:	53000009 	movwpl	r0, #9
    1140:	1c000009 	stcne	0, cr0, [r0], {9}
    1144:	000008c8 	andeq	r0, r0, r8, asr #17
    1148:	0008b21b 	andeq	fp, r8, fp, lsl r2
    114c:	00098a00 	andeq	r8, r9, r0, lsl #20
    1150:	00098200 	andeq	r8, r9, r0, lsl #4
    1154:	08a61b00 	stmiaeq	r6!, {r8, r9, fp, ip}
    1158:	09cd0000 	stmibeq	sp, {}^	; <UNPREDICTABLE>
    115c:	09c70000 	stmibeq	r7, {}^	; <UNPREDICTABLE>
    1160:	08130000 	ldmdaeq	r3, {}	; <UNPREDICTABLE>
    1164:	1d000001 	stcne	0, cr0, [r0, #-4]
    1168:	000008ec 	andeq	r0, r0, ip, ror #17
    116c:	7ed89103 	atnvce	f1, f3
    1170:	0008f81e 	andeq	pc, r8, lr, lsl r8	; <UNPREDICTABLE>
    1174:	000a0700 	andeq	r0, sl, r0, lsl #14
    1178:	0009f900 	andeq	pc, r9, r0, lsl #18
    117c:	09021f00 	stmdbeq	r2, {r8, r9, sl, fp, ip}
    1180:	a31a0000 	tstge	sl, #0, 0
    1184:	78000009 	stmdavc	r0, {r0, r3}
    1188:	0400008a 	streq	r0, [r0], #-138	; 0xffffff76
    118c:	00013800 	andeq	r3, r1, r0, lsl #16
    1190:	097c0100 	ldmdbeq	ip!, {r8}^
    1194:	000005e2 	andeq	r0, r0, r2, ror #11
    1198:	0009ca1b 	andeq	ip, r9, fp, lsl sl
    119c:	000a7100 	andeq	r7, sl, r0, lsl #2
    11a0:	000a6b00 	andeq	r6, sl, r0, lsl #22
    11a4:	09be1b00 	ldmibeq	lr!, {r8, r9, fp, ip}
    11a8:	0aa60000 	beq	fe9811b0 <__bss_end__+0xfe976fc0>
    11ac:	0a9a0000 	beq	fe6811b4 <__bss_end__+0xfe676fc4>
    11b0:	b41b0000 	ldrlt	r0, [fp], #-0
    11b4:	0c000009 	stceq	0, cr0, [r0], {9}
    11b8:	fc00000b 	stc2	0, cr0, [r0], {11}
    11bc:	1300000a 	movwne	r0, #10
    11c0:	00000138 	andeq	r0, r0, r8, lsr r1
    11c4:	0009d61e 	andeq	sp, r9, lr, lsl r6
    11c8:	000b8900 	andeq	r8, fp, r0, lsl #18
    11cc:	000b7b00 	andeq	r7, fp, r0, lsl #22
    11d0:	20000000 	andcs	r0, r0, r0
    11d4:	0000094f 	andeq	r0, r0, pc, asr #18
    11d8:	00008b40 	andeq	r8, r0, r0, asr #22
    11dc:	01680002 	cmneq	r8, r2
    11e0:	7c010000 	stcvc	0, cr0, [r1], {-0}
    11e4:	09801b09 	stmibeq	r0, {r0, r3, r8, r9, fp, ip}
    11e8:	0be90000 	bleq	ffa411f0 <__bss_end__+0xffa37000>
    11ec:	0be30000 	bleq	ff8c11f4 <__bss_end__+0xff8b7004>
    11f0:	761b0000 	ldrvc	r0, [fp], -r0
    11f4:	1f000009 	svcne	0x00000009
    11f8:	1500000c 	strne	r0, [r0, #-12]
    11fc:	1b00000c 	blne	1234 <__code_start__-0x6dcc>
    1200:	0000096c 	andeq	r0, r0, ip, ror #18
    1204:	00000c6e 	andeq	r0, r0, lr, ror #24
    1208:	00000c6a 	andeq	r0, r0, sl, ror #24
    120c:	0009601b 	andeq	r6, r9, fp, lsl r0
    1210:	000c9e00 	andeq	r9, ip, r0, lsl #28
    1214:	000c9000 	andeq	r9, ip, r0
    1218:	01681300 	cmneq	r8, r0, lsl #6
    121c:	8c1e0000 	ldchi	0, cr0, [lr], {-0}
    1220:	03000009 	movweq	r0, #9
    1224:	0100000d 	tsteq	r0, sp
    1228:	1e00000d 	cdpne	0, 0, cr0, cr0, cr13, {0}
    122c:	00000998 	muleq	r0, r8, r9
    1230:	00000d1d 	andeq	r0, r0, sp, lsl sp
    1234:	00000d17 	andeq	r0, r0, r7, lsl sp
    1238:	00000000 	andeq	r0, r0, r0
    123c:	0008951a 	andeq	r9, r8, sl, lsl r5
    1240:	008b7c00 	addeq	r7, fp, r0, lsl #24
    1244:	98000000 	stmdals	r0, {}	; <UNPREDICTABLE>
    1248:	01000001 	tsteq	r0, r1
    124c:	078909d6 			; <UNDEFINED> instruction: 0x078909d6
    1250:	be1b0000 	cdplt	0, 1, cr0, cr11, cr0, {0}
    1254:	50000008 	andpl	r0, r0, r8
    1258:	4c00000d 	stcmi	0, cr0, [r0], {13}
    125c:	1b00000d 	blne	1298 <__code_start__-0x6d68>
    1260:	000008e0 	andeq	r0, r0, r0, ror #17
    1264:	00000d76 	andeq	r0, r0, r6, ror sp
    1268:	00000d72 	andeq	r0, r0, r2, ror sp
    126c:	0008d41b 	andeq	sp, r8, fp, lsl r4
    1270:	000d9a00 	andeq	r9, sp, r0, lsl #20
    1274:	000d9600 	andeq	r9, sp, r0, lsl #12
    1278:	08c81c00 	stmiaeq	r8, {sl, fp, ip}^
    127c:	b21b0000 	andslt	r0, fp, #0, 0
    1280:	be000008 	cdplt	0, 0, cr0, cr0, cr8, {0}
    1284:	b800000d 	stmdalt	r0, {r0, r2, r3}
    1288:	1b00000d 	blne	12c4 <__code_start__-0x6d3c>
    128c:	000008a6 	andeq	r0, r0, r6, lsr #17
    1290:	00000df1 	strdeq	r0, [r0], -r1
    1294:	00000ded 	andeq	r0, r0, sp, ror #27
    1298:	00019813 	andeq	r9, r1, r3, lsl r8
    129c:	08ec1d00 	stmiaeq	ip!, {r8, sl, fp, ip}^
    12a0:	91030000 	mrsls	r0, (UNDEF: 3)
    12a4:	f81e7ed8 			; <UNDEFINED> instruction: 0xf81e7ed8
    12a8:	1b000008 	blne	12d0 <__code_start__-0x6d30>
    12ac:	1100000e 	tstne	r0, lr
    12b0:	1e00000e 	cdpne	0, 0, cr0, cr0, cr14, {0}
    12b4:	00000902 	andeq	r0, r0, r2, lsl #18
    12b8:	00000e60 	andeq	r0, r0, r0, ror #28
    12bc:	00000e5c 	andeq	r0, r0, ip, asr lr
    12c0:	0009a31a 	andeq	sl, r9, sl, lsl r3
    12c4:	008b9800 	addeq	r9, fp, r0, lsl #16
    12c8:	b8000300 	stmdalt	r0, {r8, r9}
    12cc:	01000001 	tsteq	r0, r1
    12d0:	0720097c 			; <UNDEFINED> instruction: 0x0720097c
    12d4:	ca1b0000 	bgt	6c12dc <__bss_end__+0x6b70ec>
    12d8:	82000009 	andhi	r0, r0, #9, 0
    12dc:	7e00000e 	cdpvc	0, 0, cr0, cr0, cr14, {0}
    12e0:	1b00000e 	blne	1320 <__code_start__-0x6ce0>
    12e4:	000009be 			; <UNDEFINED> instruction: 0x000009be
    12e8:	00000ea4 	andeq	r0, r0, r4, lsr #29
    12ec:	00000ea0 	andeq	r0, r0, r0, lsr #29
    12f0:	0009b41b 	andeq	fp, r9, fp, lsl r4
    12f4:	000ece00 	andeq	ip, lr, r0, lsl #28
    12f8:	000ec200 	andeq	ip, lr, r0, lsl #4
    12fc:	01b81300 			; <UNDEFINED> instruction: 0x01b81300
    1300:	d61e0000 	ldrle	r0, [lr], -r0
    1304:	2a000009 	bcs	1330 <__code_start__-0x6cd0>
    1308:	1e00000f 	cdpne	0, 0, cr0, cr0, cr15, {0}
    130c:	0000000f 	andeq	r0, r0, pc
    1310:	094f2000 	stmdbeq	pc, {sp}^	; <UNPREDICTABLE>
    1314:	8c200000 	stchi	0, cr0, [r0], #-0
    1318:	00020000 	andeq	r0, r2, r0
    131c:	000001e0 	andeq	r0, r0, r0, ror #3
    1320:	1b097c01 	blne	26032c <__bss_end__+0x25613c>
    1324:	00000980 	andeq	r0, r0, r0, lsl #19
    1328:	00000f7a 	andeq	r0, r0, sl, ror pc
    132c:	00000f76 	andeq	r0, r0, r6, ror pc
    1330:	0009761b 	andeq	r7, r9, fp, lsl r6
    1334:	000fa200 	andeq	sl, pc, r0, lsl #4
    1338:	000f9800 	andeq	r9, pc, r0, lsl #16
    133c:	096c1b00 	stmdbeq	ip!, {r8, r9, fp, ip}^
    1340:	0fee0000 	svceq	0x00ee0000
    1344:	0fea0000 	svceq	0x00ea0000
    1348:	601b0000 	andsvs	r0, fp, r0
    134c:	1c000009 	stcne	0, cr0, [r0], {9}
    1350:	10000010 	andne	r0, r0, r0, lsl r0
    1354:	13000010 	movwne	r0, #16
    1358:	000001e0 	andeq	r0, r0, r0, ror #3
    135c:	00098c1e 	andeq	r8, r9, lr, lsl ip
    1360:	00107600 	andseq	r7, r0, r0, lsl #12
    1364:	00107200 	andseq	r7, r0, r0, lsl #4
    1368:	09981e00 	ldmibeq	r8, {r9, sl, fp, ip}
    136c:	109c0000 	addsne	r0, ip, r0
    1370:	10980000 	addsne	r0, r8, r0
    1374:	00000000 	andeq	r0, r0, r0
    1378:	4c170000 	ldcmi	0, cr0, [r7], {-0}
    137c:	a4000089 	strge	r0, [r0], #-137	; 0xffffff77
    1380:	af00000a 	svcge	0x0000000a
    1384:	18000007 	stmdane	r0, {r0, r1, r2}
    1388:	40015001 	andmi	r5, r1, r1
    138c:	03510118 	cmpeq	r1, #6
    1390:	187dd091 	ldmdane	sp!, {r0, r4, r7, ip, lr, pc}^
    1394:	75025301 	strvc	r5, [r2, #-769]	; 0xfffffcff
    1398:	7d021800 	stcvc	8, cr1, [r2, #-0]
    139c:	00300100 	eorseq	r0, r0, r0, lsl #2
    13a0:	008a5c17 	addeq	r5, sl, r7, lsl ip
    13a4:	000aa400 	andeq	sl, sl, r0, lsl #8
    13a8:	0007cf00 	andeq	ip, r7, r0, lsl #30
    13ac:	50011800 	andpl	r1, r1, r0, lsl #16
    13b0:	01183a01 	tsteq	r8, r1, lsl #20
    13b4:	d0910351 	addsle	r0, r1, r1, asr r3
    13b8:	5301187d 	movwpl	r1, #6269	; 0x187d
    13bc:	00007502 	andeq	r7, r0, r2, lsl #10
    13c0:	008d4017 	addeq	r4, sp, r7, lsl r0
    13c4:	000c4600 	andeq	r4, ip, r0, lsl #12
    13c8:	0007e600 	andeq	lr, r7, r0, lsl #12
    13cc:	50011800 	andpl	r1, r1, r0, lsl #16
    13d0:	9b480305 	blls	1201fec <__bss_end__+0x11f7dfc>
    13d4:	21000000 	mrscs	r0, (UNDEF: 0)
    13d8:	00008d50 	andeq	r8, r0, r0, asr sp
    13dc:	000007f8 	strdeq	r0, [r0], -r8
    13e0:	04500118 	ldrbeq	r0, [r0], #-280	; 0xfffffee8
    13e4:	067dc891 			; <UNDEFINED> instruction: 0x067dc891
    13e8:	8d641700 	stclhi	7, cr1, [r4, #-0]
    13ec:	0c460000 	mareq	acc0, r0, r6
    13f0:	08270000 	stmdaeq	r7!, {}	; <UNPREDICTABLE>
    13f4:	01180000 	tsteq	r8, r0
    13f8:	78030550 	stmdavc	r3, {r4, r6, r8, sl}
    13fc:	1800009b 	stmdane	r0, {r0, r1, r3, r4, r7}
    1400:	03055101 	movweq	r5, #20737	; 0x5101
    1404:	00009a54 	andeq	r9, r0, r4, asr sl
    1408:	05520118 	ldrbeq	r0, [r2, #-280]	; 0xfffffee8
    140c:	009bb003 	addseq	fp, fp, r3
    1410:	53011800 	movwpl	r1, #6144	; 0x1800
    1414:	00e20802 	rsceq	r0, r2, r2, lsl #16
    1418:	008d6819 	addeq	r6, sp, r9, lsl r8
    141c:	000c7600 	andeq	r7, ip, r0, lsl #12
    1420:	8d7c1700 	ldclhi	7, cr1, [ip, #-0]
    1424:	0c460000 	mareq	acc0, r0, r6
    1428:	085f0000 	ldmdaeq	pc, {}^	; <UNPREDICTABLE>
    142c:	01180000 	tsteq	r8, r0
    1430:	20030550 	andcs	r0, r3, r0, asr r5
    1434:	1800009b 	stmdane	r0, {r0, r1, r3, r4, r7}
    1438:	03055101 	movweq	r5, #20737	; 0x5101
    143c:	00009a54 	andeq	r9, r0, r4, asr sl
    1440:	05520118 	ldrbeq	r0, [r2, #-280]	; 0xfffffee8
    1444:	009bb003 	addseq	fp, fp, r3
    1448:	53011800 	movwpl	r1, #6144	; 0x1800
    144c:	00be0802 	adcseq	r0, lr, r2, lsl #16
    1450:	008d8019 	addeq	r8, sp, r9, lsl r0
    1454:	000c7600 	andeq	r7, ip, r0, lsl #12
    1458:	08000000 	stmdaeq	r0, {}	; <UNPREDICTABLE>
    145c:	0000b904 	andeq	fp, r0, r4, lsl #18
    1460:	00c02200 	sbceq	r2, r0, r0, lsl #4
    1464:	08800000 	stmeq	r0, {}	; <UNPREDICTABLE>
    1468:	2c230000 	stccs	0, cr0, [r3], #-0
    146c:	09000000 	stmdbeq	r0, {}	; <UNPREDICTABLE>
    1470:	08700900 	ldmdaeq	r0!, {r8, fp}^
    1474:	b9220000 	stmdblt	r2!, {}	; <UNPREDICTABLE>
    1478:	95000000 	strls	r0, [r0, #-0]
    147c:	23000008 	movwcs	r0, #8
    1480:	0000002c 	andeq	r0, r0, ip, lsr #32
    1484:	5224007f 	eorpl	r0, r4, #127, 0	; 0x7f
    1488:	01000004 	tsteq	r0, r4
    148c:	086a0149 	stmdaeq	sl!, {r0, r3, r6, r8}^
    1490:	2a010000 	bcs	41498 <__bss_end__+0x372a8>
    1494:	25000009 	strcs	r0, [r0, #-9]
    1498:	000001f1 	strdeq	r0, [r0], -r1
    149c:	2c0f4901 			; <UNDEFINED> instruction: 0x2c0f4901
    14a0:	26000000 	strcs	r0, [r0], -r0
    14a4:	00747364 	rsbseq	r7, r4, r4, ror #6
    14a8:	6a1b4901 	bvs	6d38b4 <__bss_end__+0x6c96c4>
    14ac:	26000008 	strcs	r0, [r0], -r8
    14b0:	4901006e 	stmdbmi	r1, {r1, r2, r3, r5, r6}
    14b4:	00003324 	andeq	r3, r0, r4, lsr #6
    14b8:	61762600 	cmnvs	r6, r0, lsl #12
    14bc:	4901006c 	stmdbmi	r1, {r2, r3, r5, r6}
    14c0:	0000332b 	andeq	r3, r0, fp, lsr #6
    14c4:	03d92500 	bicseq	r2, r9, #0, 10
    14c8:	49010000 	stmdbmi	r1, {}	; <UNPREDICTABLE>
    14cc:	00003334 	andeq	r3, r0, r4, lsr r3
    14d0:	04972500 	ldreq	r2, [r7], #1280	; 0x500
    14d4:	49010000 	stmdbmi	r1, {}	; <UNPREDICTABLE>
    14d8:	0000333f 	andeq	r3, r0, pc, lsr r3
    14dc:	75622700 	strbvc	r2, [r2, #-1792]!	; 0xfffff900
    14e0:	4e010066 	cdpmi	0, 0, cr0, cr1, cr6, {3}
    14e4:	00092a07 	andeq	r2, r9, r7, lsl #20
    14e8:	00702700 	rsbseq	r2, r0, r0, lsl #14
    14ec:	6a114e01 	bvs	454cf8 <__bss_end__+0x44ab08>
    14f0:	27000008 	strcs	r0, [r0, -r8]
    14f4:	4f010075 	svcmi	0x00010075
    14f8:	00002c0b 	andeq	r2, r0, fp, lsl #24
    14fc:	00791200 	rsbseq	r1, r9, r0, lsl #4
    1500:	094a0000 	stmdbeq	sl, {}^	; <UNPREDICTABLE>
    1504:	03050000 	movweq	r0, #20480	; 0x5000
    1508:	00009b98 	muleq	r0, r8, fp
    150c:	043f2928 	ldrteq	r2, [pc], #-2344	; 1514 <__code_start__-0x6aec>
    1510:	54010000 	strpl	r0, [r1], #-0
    1514:	00002c0d 	andeq	r2, r0, sp, lsl #24
    1518:	22000000 	andcs	r0, r0, #0, 0
    151c:	000000b9 	strheq	r0, [r0], -r9
    1520:	0000093a 	andeq	r0, r0, sl, lsr r9
    1524:	00002c23 	andeq	r2, r0, r3, lsr #24
    1528:	22003f00 	andcs	r3, r0, #0, 30
    152c:	000000c0 	andeq	r0, r0, r0, asr #1
    1530:	0000094a 	andeq	r0, r0, sl, asr #18
    1534:	00002c23 	andeq	r2, r0, r3, lsr #24
    1538:	09000400 	stmdbeq	r0, {sl}
    153c:	0000093a 	andeq	r0, r0, sl, lsr r9
    1540:	00045724 	andeq	r5, r4, r4, lsr #14
    1544:	0e380100 	rsfeqe	f0, f0, f0
    1548:	0000086a 	andeq	r0, r0, sl, ror #16
    154c:	0009a301 	andeq	sl, r9, r1, lsl #6
    1550:	73642600 	cmnvc	r4, #0, 12
    1554:	38010074 	stmdacc	r1, {r2, r4, r5, r6}
    1558:	00086a1c 	andeq	r6, r8, ip, lsl sl
    155c:	006e2600 	rsbeq	r2, lr, r0, lsl #12
    1560:	33253801 			; <UNDEFINED> instruction: 0x33253801
    1564:	26000000 	strcs	r0, [r0], -r0
    1568:	38010070 	stmdacc	r1, {r4, r5, r6}
    156c:	00086a2e 	andeq	r6, r8, lr, lsr #20
    1570:	08272500 	stmdaeq	r7!, {r8, sl, sp}
    1574:	38010000 	stmdacc	r1, {}	; <UNPREDICTABLE>
    1578:	00086a37 	andeq	r6, r8, r7, lsr sl
    157c:	656c2700 	strbvs	r2, [ip, #-1792]!	; 0xfffff900
    1580:	3a01006e 	bcc	41740 <__bss_end__+0x37550>
    1584:	00003306 	andeq	r3, r0, r6, lsl #6
    1588:	00732700 	rsbseq	r2, r3, r0, lsl #14
    158c:	6a083e01 	bvs	210d98 <__bss_end__+0x206ba8>
    1590:	00000008 	andeq	r0, r0, r8
    1594:	6461702a 	strbtvs	r7, [r1], #-42	; 0xffffffd6
    1598:	0e2e0100 	sufeqe	f0, f6, f0
    159c:	0000086a 	andeq	r0, r0, sl, ror #16
    15a0:	0009e301 	andeq	lr, r9, r1, lsl #6
    15a4:	00702600 	rsbseq	r2, r0, r0, lsl #12
    15a8:	6a182e01 	bvs	60cdb4 <__bss_end__+0x602bc4>
    15ac:	25000008 	strcs	r0, [r0, #-8]
    15b0:	000001f1 	strdeq	r0, [r0], -r1
    15b4:	6a222e01 	bvs	88cdc0 <__bss_end__+0x882bd0>
    15b8:	25000008 	strcs	r0, [r0, #-8]
    15bc:	000003d9 	ldrdeq	r0, [r0], -r9
    15c0:	332c2e01 			; <UNDEFINED> instruction: 0x332c2e01
    15c4:	27000000 	strcs	r0, [r0, -r0]
    15c8:	006e656c 	rsbeq	r6, lr, ip, ror #10
    15cc:	33062f01 	movwcc	r2, #28417	; 0x6f01
    15d0:	00000000 	andeq	r0, r0, r0
    15d4:	00039824 	andeq	r9, r3, r4, lsr #16
    15d8:	0c270100 	stfeqs	f0, [r7], #-0
    15dc:	00000033 	andeq	r0, r0, r3, lsr r0
    15e0:	0009ff01 	andeq	pc, r9, r1, lsl #30
    15e4:	00632600 	rsbeq	r2, r3, r0, lsl #12
    15e8:	33182701 	tstcc	r8, #262144	; 0x40000
    15ec:	00000000 	andeq	r0, r0, r0
    15f0:	0004182b 	andeq	r1, r4, fp, lsr #16
    15f4:	061f0100 	ldreq	r0, [pc], -r0, lsl #2
    15f8:	00008798 	muleq	r0, r8, r7
    15fc:	00000060 	andeq	r0, r0, r0, rrx
    1600:	0a8f9c01 	beq	fe3e860c <__bss_end__+0xfe3de41c>
    1604:	ec0f0000 	stc	0, cr0, [pc], {-0}
    1608:	01000003 	tsteq	r0, r3
    160c:	009e1b1f 	addseq	r1, lr, pc, lsl fp
    1610:	10c10000 	sbcne	r0, r1, r0
    1614:	10bd0000 	adcsne	r0, sp, r0
    1618:	660f0000 	strvs	r0, [pc], -r0
    161c:	01000004 	tsteq	r0, r4
    1620:	00d1301f 	sbcseq	r3, r1, pc, lsl r0
    1624:	10e60000 	rscne	r0, r6, r0
    1628:	10e20000 	rscne	r0, r2, r0
    162c:	79120000 	ldmdbvc	r2, {}	; <UNPREDICTABLE>
    1630:	9f000000 	svcls	0x00000000
    1634:	0500000a 	streq	r0, [r0, #-10]
    1638:	009ba003 	addseq	sl, fp, r3
    163c:	87dc1700 	ldrbhi	r1, [ip, r0, lsl #14]
    1640:	0c460000 	mareq	acc0, r0, r6
    1644:	0a850000 	beq	fe14164c <__bss_end__+0xfe13745c>
    1648:	01180000 	tsteq	r8, r0
    164c:	d4030550 	strle	r0, [r3], #-1360	; 0xfffffab0
    1650:	18000099 	stmdane	r0, {r0, r3, r4, r7}
    1654:	03055101 	movweq	r5, #20737	; 0x5101
    1658:	00009a54 	andeq	r9, r0, r4, asr sl
    165c:	05520118 	ldrbeq	r0, [r2, #-280]	; 0xfffffee8
    1660:	009ba003 	addseq	sl, fp, r3
    1664:	53011800 	movwpl	r1, #6144	; 0x1800
    1668:	18200802 	stmdane	r0!, {r1, fp}
    166c:	05007d02 	streq	r7, [r0, #-3330]	; 0xfffff2fe
    1670:	009a9003 	addseq	r9, sl, r3
    1674:	e0190000 	ands	r0, r9, r0
    1678:	76000087 	strvc	r0, [r0], -r7, lsl #1
    167c:	0000000c 	andeq	r0, r0, ip
    1680:	0000c022 	andeq	ip, r0, r2, lsr #32
    1684:	000a9f00 	andeq	r9, sl, r0, lsl #30
    1688:	002c2300 	eoreq	r2, ip, r0, lsl #6
    168c:	000e0000 	andeq	r0, lr, r0
    1690:	000a8f09 	andeq	r8, sl, r9, lsl #30
    1694:	08952c00 	ldmeq	r5, {sl, fp, sp}
    1698:	84700000 	ldrbthi	r0, [r0], #-0
    169c:	03280000 			; <UNDEFINED> instruction: 0x03280000
    16a0:	9c010000 	stcls	0, cr0, [r1], {-0}
    16a4:	00000c3a 	andeq	r0, r0, sl, lsr ip
    16a8:	0008a61b 	andeq	sl, r8, fp, lsl r6
    16ac:	00111f00 	andseq	r1, r1, r0, lsl #30
    16b0:	00110700 	andseq	r0, r1, r0, lsl #14
    16b4:	08b21b00 	ldmeq	r2!, {r8, r9, fp, ip}
    16b8:	11c90000 	bicne	r0, r9, r0
    16bc:	11c10000 	bicne	r0, r1, r0
    16c0:	c81b0000 	ldmdagt	fp, {}	; <UNPREDICTABLE>
    16c4:	20000008 	andcs	r0, r0, r8
    16c8:	00000012 	andeq	r0, r0, r2, lsl r0
    16cc:	1b000012 	blne	171c <__code_start__-0x68e4>
    16d0:	000008d4 	ldrdeq	r0, [r0], -r4
    16d4:	000012f6 	strdeq	r1, [r0], -r6
    16d8:	000012e8 	andeq	r1, r0, r8, ror #5
    16dc:	0008e02d 	andeq	lr, r8, sp, lsr #32
    16e0:	00910200 	addseq	r0, r1, r0, lsl #4
    16e4:	0008ec1d 	andeq	lr, r8, sp, lsl ip
    16e8:	a8910300 	ldmge	r1, {r8, r9}
    16ec:	08f81e7f 	ldmeq	r8!, {r0, r1, r2, r3, r4, r5, r6, r9, sl, fp, ip}^
    16f0:	138a0000 	orrne	r0, sl, #0, 0
    16f4:	13560000 	cmpne	r6, #0, 0
    16f8:	021e0000 	andseq	r0, lr, #0, 0
    16fc:	f1000009 	cps	#9
    1700:	cf000014 	svcgt	0x00000014
    1704:	2e000014 	mcrcs	0, 0, r0, cr0, cr4, {0}
    1708:	000008be 			; <UNDEFINED> instruction: 0x000008be
    170c:	09a31a80 	stmibeq	r3!, {r7, r9, fp, ip}
    1710:	85140000 	ldrhi	r0, [r4, #-0]
    1714:	00040000 	andeq	r0, r4, r0
    1718:	00000030 	andeq	r0, r0, r0, lsr r0
    171c:	6d097c01 	stcvs	12, cr7, [r9, #-4]
    1720:	1b00000b 	blne	1754 <__code_start__-0x68ac>
    1724:	000009ca 	andeq	r0, r0, sl, asr #19
    1728:	000015d9 	ldrdeq	r1, [r0], -r9
    172c:	000015cf 	andeq	r1, r0, pc, asr #11
    1730:	0009be1b 	andeq	fp, r9, fp, lsl lr
    1734:	00162d00 	andseq	r2, r6, r0, lsl #26
    1738:	00161d00 	andseq	r1, r6, r0, lsl #26
    173c:	09b41b00 	ldmibeq	r4!, {r8, r9, fp, ip}
    1740:	16ad0000 	strtne	r0, [sp], r0
    1744:	16990000 	ldrne	r0, [r9], r0
    1748:	30130000 	andscc	r0, r3, r0
    174c:	1e000000 	cdpne	0, 0, cr0, cr0, cr0, {0}
    1750:	000009d6 	ldrdeq	r0, [r0], -r6
    1754:	0000173f 	andeq	r1, r0, pc, lsr r7
    1758:	0000172f 	andeq	r1, r0, pc, lsr #14
    175c:	4f1a0000 	svcmi	0x001a0000
    1760:	cc000009 	stcgt	0, cr0, [r0], {9}
    1764:	02000085 	andeq	r0, r0, #133, 0	; 0x85
    1768:	00007800 	andeq	r7, r0, r0, lsl #16
    176c:	097c0100 	ldmdbeq	ip!, {r8}^
    1770:	00000bd8 	ldrdeq	r0, [r0], -r8
    1774:	0009801b 	andeq	r8, r9, fp, lsl r0
    1778:	0017ab00 	andseq	sl, r7, r0, lsl #22
    177c:	0017a300 	andseq	sl, r7, r0, lsl #6
    1780:	09761b00 	ldmdbeq	r6!, {r8, r9, fp, ip}^
    1784:	17ea0000 	strbne	r0, [sl, r0]!
    1788:	17e20000 	strbne	r0, [r2, r0]!
    178c:	6c1b0000 	ldcvs	0, cr0, [fp], {-0}
    1790:	29000009 	stmdbcs	r0, {r0, r3}
    1794:	25000018 	strcs	r0, [r0, #-24]	; 0xffffffe8
    1798:	1b000018 	blne	1800 <__code_start__-0x6800>
    179c:	00000960 	andeq	r0, r0, r0, ror #18
    17a0:	00001859 	andeq	r1, r0, r9, asr r8
    17a4:	0000184b 	andeq	r1, r0, fp, asr #16
    17a8:	00007813 	andeq	r7, r0, r3, lsl r8
    17ac:	098c1e00 	stmibeq	ip, {r9, sl, fp, ip}
    17b0:	18be0000 	ldmne	lr!, {}	; <UNPREDICTABLE>
    17b4:	18b80000 	ldmne	r8!, {}	; <UNPREDICTABLE>
    17b8:	981e0000 	ldmdals	lr, {}	; <UNPREDICTABLE>
    17bc:	f0000009 			; <UNDEFINED> instruction: 0xf0000009
    17c0:	ec000018 	stc	0, cr0, [r0], {24}
    17c4:	00000018 	andeq	r0, r0, r8, lsl r0
    17c8:	091b2f00 	ldmdbeq	fp, {r8, r9, sl, fp, sp}
    17cc:	86840000 	strhi	r0, [r4], r0
    17d0:	00600000 	rsbeq	r0, r0, r0
    17d4:	0bf70000 	bleq	ffdc17dc <__bss_end__+0xffdb75ec>
    17d8:	1c1e0000 	ldcne	0, cr0, [lr], {-0}
    17dc:	12000009 	andne	r0, r0, #9, 0
    17e0:	0e000019 	mcreq	0, 0, r0, cr0, cr9, {0}
    17e4:	00000019 	andeq	r0, r0, r9, lsl r0
    17e8:	00875817 	addeq	r5, r7, r7, lsl r8
    17ec:	000c4600 	andeq	r4, ip, r0, lsl #12
    17f0:	000c3000 	andeq	r3, ip, r0
    17f4:	50011800 	andpl	r1, r1, r0, lsl #16
    17f8:	99d40305 	ldmibls	r4, {r0, r2, r8, r9}^
    17fc:	01180000 	tsteq	r8, r0
    1800:	54030551 	strpl	r0, [r3], #-1361	; 0xfffffaaf
    1804:	1800009a 	stmdane	r0, {r1, r3, r4, r7}
    1808:	03055201 	movweq	r5, #20993	; 0x5201
    180c:	00009b98 	muleq	r0, r8, fp
    1810:	02530118 	subseq	r0, r3, #6
    1814:	02187908 	andseq	r7, r8, #8, 18	; 0x20000
    1818:	0305007d 	movweq	r0, #20605	; 0x507d
    181c:	00009a68 	andeq	r9, r0, r8, ror #20
    1820:	875c1900 	ldrbhi	r1, [ip, -r0, lsl #18]
    1824:	0c760000 	ldcleq	0, cr0, [r6], #-0
    1828:	30000000 	andcc	r0, r0, r0
    182c:	0000048f 	andeq	r0, r0, pc, lsl #9
    1830:	0000048f 	andeq	r0, r0, pc, lsl #9
    1834:	3005eb03 	andcc	lr, r5, r3, lsl #22
    1838:	00000234 	andeq	r0, r0, r4, lsr r2
    183c:	00000234 	andeq	r0, r0, r4, lsr r2
    1840:	30062803 	andcc	r2, r6, r3, lsl #16
    1844:	00000431 	andeq	r0, r0, r1, lsr r4
    1848:	00000431 	andeq	r0, r0, r1, lsr r4
    184c:	3007ee03 	andcc	lr, r7, r3, lsl #28
    1850:	0000045f 	andeq	r0, r0, pc, asr r4
    1854:	0000045f 	andeq	r0, r0, pc, asr r4
    1858:	3005ea03 	andcc	lr, r5, r3, lsl #20
    185c:	00000438 	andeq	r0, r0, r8, lsr r4
    1860:	00000438 	andeq	r0, r0, r8, lsr r4
    1864:	3007ed03 	andcc	lr, r7, r3, lsl #26
    1868:	00000016 	andeq	r0, r0, r6, lsl r0
    186c:	00000016 	andeq	r0, r0, r6, lsl r0
    1870:	00066e03 	andeq	r6, r6, r3, lsl #28
    1874:	0000012f 	andeq	r0, r0, pc, lsr #2
    1878:	09a90004 	stmibeq	r9!, {r2}
    187c:	01040000 	mrseq	r0, (UNDEF: 4)
    1880:	0000024a 	andeq	r0, r0, sl, asr #4
    1884:	0004b40c 	andeq	fp, r4, ip, lsl #8
    1888:	00032100 	andeq	r2, r3, r0, lsl #2
    188c:	008e2400 	addeq	r2, lr, r0, lsl #8
    1890:	00002c00 	andeq	r2, r0, r0, lsl #24
    1894:	00109400 	andseq	r9, r0, r0, lsl #8
    1898:	05040200 	streq	r0, [r4, #-512]	; 0xfffffe00
    189c:	00746e69 	rsbseq	r6, r4, r9, ror #28
    18a0:	97070403 	strls	r0, [r7, -r3, lsl #8]
    18a4:	03000000 	movweq	r0, #0
    18a8:	000a0601 	andeq	r0, sl, r1, lsl #12
    18ac:	02030000 	andeq	r0, r3, #0, 0
    18b0:	0000e605 	andeq	lr, r0, r5, lsl #12
    18b4:	05040300 	streq	r0, [r4, #-768]	; 0xfffffd00
    18b8:	000000d1 	ldrdeq	r0, [r0], -r1
    18bc:	cc050803 	stcgt	8, cr0, [r5], {3}
    18c0:	03000000 	movweq	r0, #0
    18c4:	00080801 	andeq	r0, r8, r1, lsl #16
    18c8:	02030000 	andeq	r0, r3, #0, 0
    18cc:	00005907 	andeq	r5, r0, r7, lsl #18
    18d0:	07040300 	streq	r0, [r4, -r0, lsl #6]
    18d4:	00000092 	muleq	r0, r2, r0
    18d8:	8d070803 	stchi	8, cr0, [r7, #-12]
    18dc:	04000000 	streq	r0, [r0], #-0
    18e0:	00000025 	andeq	r0, r0, r5, lsr #32
    18e4:	0000007a 	andeq	r0, r0, sl, ror r0
    18e8:	00002505 	andeq	r2, r0, r5, lsl #10
    18ec:	da060000 	ble	1818f4 <__bss_end__+0x177704>
    18f0:	02000000 	andeq	r0, r0, #0, 0
    18f4:	00860e1c 	addeq	r0, r6, ip, lsl lr
    18f8:	04070000 	streq	r0, [r7], #-0
    18fc:	0000006b 	andeq	r0, r0, fp, rrx
    1900:	00002504 	andeq	r2, r0, r4, lsl #10
    1904:	00009b00 	andeq	r9, r0, r0, lsl #22
    1908:	009b0500 	addseq	r0, fp, r0, lsl #10
    190c:	07000000 	streq	r0, [r0, -r0]
    1910:	0000a804 	andeq	sl, r0, r4, lsl #16
    1914:	08010300 	stmdaeq	r1, {r8, r9}
    1918:	00000011 	andeq	r0, r0, r1, lsl r0
    191c:	0000a108 	andeq	sl, r0, r8, lsl #2
    1920:	03850600 	orreq	r0, r5, #0, 12
    1924:	21020000 	mrscs	r0, (UNDEF: 2)
    1928:	0000b90e 	andeq	fp, r0, lr, lsl #18
    192c:	8c040700 	stchi	7, cr0, [r4], {-0}
    1930:	09000000 	stmdbeq	r0, {}	; <UNPREDICTABLE>
    1934:	00000016 	andeq	r0, r0, r6, lsl r0
    1938:	24060401 	strcs	r0, [r6], #-1025	; 0xfffffbff
    193c:	2c00008e 	stccs	0, cr0, [r0], {142}	; 0x8e
    1940:	01000000 	mrseq	r0, (UNDEF: 0)
    1944:	00010e9c 	muleq	r1, ip, lr
    1948:	8e380a00 	vaddhi.f32	s0, s16, s0
    194c:	00e80000 	rsceq	r0, r8, r0
    1950:	010b0000 	mrseq	r0, (UNDEF: 11)
    1954:	bc030550 	cfstr32lt	mvfx0, [r3], {80}	; 0x50
    1958:	0000009b 	muleq	r0, fp, r0
    195c:	008e3c0c 	addeq	r3, lr, ip, lsl #24
    1960:	00010e00 	andeq	r0, r1, r0, lsl #28
    1964:	8e440d00 	cdphi	13, 4, cr0, cr4, cr0, {0}
    1968:	011a0000 	tsteq	sl, r0
    196c:	01040000 	mrseq	r0, (UNDEF: 4)
    1970:	010b0000 	mrseq	r0, (UNDEF: 11)
    1974:	003a0150 	eorseq	r0, sl, r0, asr r1
    1978:	008e480c 	addeq	r4, lr, ip, lsl #16
    197c:	00012600 	andeq	r2, r1, r0, lsl #12
    1980:	cf0e0000 	svcgt	0x000e0000
    1984:	cf000004 	svcgt	0x00000004
    1988:	02000004 	andeq	r0, r0, #4, 0
    198c:	ab0e064d 	blge	3832c8 <__bss_end__+0x3790d8>
    1990:	ab000004 	blge	19a8 <__code_start__-0x6658>
    1994:	02000004 	andeq	r0, r0, #4, 0
    1998:	a00e0658 	andge	r0, lr, r8, asr r6
    199c:	a0000004 	andge	r0, r0, r4
    19a0:	02000004 	andeq	r0, r0, #4, 0
    19a4:	9000066b 	andls	r0, r0, fp, ror #12
    19a8:	04000001 	streq	r0, [r0], #-1
    19ac:	000a6900 	andeq	r6, sl, r0, lsl #18
    19b0:	4a010400 	bmi	429b8 <__bss_end__+0x387c8>
    19b4:	0c000002 	stceq	0, cr0, [r0], {2}
    19b8:	00000505 	andeq	r0, r0, r5, lsl #10
    19bc:	00000321 	andeq	r0, r0, r1, lsr #6
    19c0:	00008e50 	andeq	r8, r0, r0, asr lr
    19c4:	000000f8 	strdeq	r0, [r0], -r8
    19c8:	0000111f 	andeq	r1, r0, pc, lsl r1
    19cc:	69050402 	stmdbvs	r5, {r1, sl}
    19d0:	0300746e 	movweq	r7, #1134	; 0x46e
    19d4:	00970704 	addseq	r0, r7, r4, lsl #14
    19d8:	01030000 	mrseq	r0, (UNDEF: 3)
    19dc:	00000a06 	andeq	r0, r0, r6, lsl #20
    19e0:	05020300 	streq	r0, [r2, #-768]	; 0xfffffd00
    19e4:	000000e6 	andeq	r0, r0, r6, ror #1
    19e8:	d1050403 	tstle	r5, r3, lsl #8
    19ec:	03000000 	movweq	r0, #0
    19f0:	00cc0508 	sbceq	r0, ip, r8, lsl #10
    19f4:	01030000 	mrseq	r0, (UNDEF: 3)
    19f8:	00000808 	andeq	r0, r0, r8, lsl #16
    19fc:	07020300 	streq	r0, [r2, -r0, lsl #6]
    1a00:	00000059 	andeq	r0, r0, r9, asr r0
    1a04:	92070403 	andls	r0, r7, #50331648	; 0x3000000
    1a08:	03000000 	movweq	r0, #0
    1a0c:	008d0708 	addeq	r0, sp, r8, lsl #14
    1a10:	25040000 	strcs	r0, [r4, #-0]
    1a14:	7a000000 	bvc	1a1c <__code_start__-0x65e4>
    1a18:	05000000 	streq	r0, [r0, #-0]
    1a1c:	00000025 	andeq	r0, r0, r5, lsr #32
    1a20:	00da0600 	sbcseq	r0, sl, r0, lsl #12
    1a24:	1c020000 	stcne	0, cr0, [r2], {-0}
    1a28:	0000860e 	andeq	r8, r0, lr, lsl #12
    1a2c:	6b040700 	blvs	103634 <__bss_end__+0xf9444>
    1a30:	04000000 	streq	r0, [r0], #-0
    1a34:	00000025 	andeq	r0, r0, r5, lsr #32
    1a38:	0000009b 	muleq	r0, fp, r0
    1a3c:	00009b05 	andeq	r9, r0, r5, lsl #22
    1a40:	04070000 	streq	r0, [r7], #-0
    1a44:	000000a8 	andeq	r0, r0, r8, lsr #1
    1a48:	11080103 	tstne	r8, r3, lsl #2
    1a4c:	08000000 	stmdaeq	r0, {}	; <UNPREDICTABLE>
    1a50:	000000a1 	andeq	r0, r0, r1, lsr #1
    1a54:	00038506 	andeq	r8, r3, r6, lsl #10
    1a58:	0e210200 	cdpeq	2, 2, cr0, cr1, cr0, {0}
    1a5c:	000000b9 	strheq	r0, [r0], -r9
    1a60:	008c0407 	addeq	r0, ip, r7, lsl #8
    1a64:	dd090000 	stcle	0, cr0, [r9, #-0]
    1a68:	01000004 	tsteq	r0, r4
    1a6c:	8e500604 	cdphi	6, 5, cr0, cr0, cr4, {0}
    1a70:	00f80000 	rscseq	r0, r8, r0
    1a74:	9c010000 	stcls	0, cr0, [r1], {-0}
    1a78:	0000015b 	andeq	r0, r0, fp, asr r1
    1a7c:	0003cb06 	andeq	ip, r3, r6, lsl #22
    1a80:	10050100 	andne	r0, r5, r0, lsl #2
    1a84:	00000025 	andeq	r0, r0, r5, lsr #32
    1a88:	0003f406 	andeq	pc, r3, r6, lsl #8
    1a8c:	1f050100 	svcne	0x00050100
    1a90:	00000025 	andeq	r0, r0, r5, lsr #32
    1a94:	0000000a 	andeq	r0, r0, sl
    1a98:	07060100 	streq	r0, [r6, -r0, lsl #2]
    1a9c:	7373620b 	cmnvc	r3, #-1342177280	; 0xb0000000
    1aa0:	0a0a0100 	beq	281ea8 <__bss_end__+0x277cb8>
    1aa4:	0000015b 	andeq	r0, r0, fp, asr r1
    1aa8:	0000194a 	andeq	r1, r0, sl, asr #18
    1aac:	00001932 	andeq	r1, r0, r2, lsr r9
    1ab0:	0004e50c 	andeq	lr, r4, ip, lsl #10
    1ab4:	0a0b0100 	beq	2c1ebc <__bss_end__+0x2b7ccc>
    1ab8:	0000015b 	andeq	r0, r0, fp, asr r1
    1abc:	008f280d 	addeq	r2, pc, sp, lsl #16
    1ac0:	00000800 	andeq	r0, r0, r0, lsl #16
    1ac4:	00013600 	andeq	r3, r1, r0, lsl #12
    1ac8:	6e690b00 	vmulvs.f64	d16, d9, d0
    1acc:	05140100 	ldreq	r0, [r4, #-256]	; 0xffffff00
    1ad0:	0000002c 	andeq	r0, r0, ip, lsr #32
    1ad4:	000019e4 	andeq	r1, r0, r4, ror #19
    1ad8:	000019e2 	andeq	r1, r0, r2, ror #19
    1adc:	8e580e00 	cdphi	14, 5, cr0, cr8, cr0, {0}
    1ae0:	01610000 	cmneq	r1, r0
    1ae4:	280e0000 	stmdacs	lr, {}	; <UNPREDICTABLE>
    1ae8:	6e00008f 	cdpvs	0, 0, cr0, cr0, cr15, {4}
    1aec:	0e000001 	cdpeq	0, 0, cr0, cr0, cr1, {0}
    1af0:	00008f34 	andeq	r8, r0, r4, lsr pc
    1af4:	0000017a 	andeq	r0, r0, sl, ror r1
    1af8:	008f380e 	addeq	r3, pc, lr, lsl #16
    1afc:	00018700 	andeq	r8, r1, r0, lsl #14
    1b00:	04070000 	streq	r0, [r7], #-0
    1b04:	00000025 	andeq	r0, r0, r5, lsr #32
    1b08:	0004f70f 	andeq	pc, r4, pc, lsl #14
    1b0c:	0004f700 	andeq	pc, r4, r0, lsl #14
    1b10:	01310200 	teqeq	r1, r0, lsl #4
    1b14:	04ed1006 	strbteq	r1, [sp], #6
    1b18:	04ed0000 	strbteq	r0, [sp], #0
    1b1c:	3b020000 	blcc	81b24 <__bss_end__+0x77934>
    1b20:	00000f06 	andeq	r0, r0, r6, lsl #30
    1b24:	00000000 	andeq	r0, r0, r0
    1b28:	05020000 	streq	r0, [r2, #-0]
    1b2c:	16100601 	ldrne	r0, [r0], -r1, lsl #12
    1b30:	16000000 	strne	r0, [r0], -r0
    1b34:	02000000 	andeq	r0, r0, #0, 0
    1b38:	ce00066e 	cfmadd32gt	mvax3, mvfx0, mvfx0, mvfx14
    1b3c:	04000000 	streq	r0, [r0], #-0
    1b40:	000b5400 	andeq	r5, fp, r0, lsl #8
    1b44:	4a010400 	bmi	42b4c <__bss_end__+0x3895c>
    1b48:	0c000002 	stceq	0, cr0, [r0], {2}
    1b4c:	0000051a 	andeq	r0, r0, sl, lsl r5
    1b50:	00000321 	andeq	r0, r0, r1, lsr #6
    1b54:	00008f48 	andeq	r8, r0, r8, asr #30
    1b58:	00000004 	andeq	r0, r0, r4
    1b5c:	00001235 	andeq	r1, r0, r5, lsr r2
    1b60:	69050402 	stmdbvs	r5, {r1, sl}
    1b64:	0300746e 	movweq	r7, #1134	; 0x46e
    1b68:	00970704 	addseq	r0, r7, r4, lsl #14
    1b6c:	01030000 	mrseq	r0, (UNDEF: 3)
    1b70:	00000a06 	andeq	r0, r0, r6, lsl #20
    1b74:	05020300 	streq	r0, [r2, #-768]	; 0xfffffd00
    1b78:	000000e6 	andeq	r0, r0, r6, ror #1
    1b7c:	d1050403 	tstle	r5, r3, lsl #8
    1b80:	03000000 	movweq	r0, #0
    1b84:	00cc0508 	sbceq	r0, ip, r8, lsl #10
    1b88:	01030000 	mrseq	r0, (UNDEF: 3)
    1b8c:	00000808 	andeq	r0, r0, r8, lsl #16
    1b90:	07020300 	streq	r0, [r2, -r0, lsl #6]
    1b94:	00000059 	andeq	r0, r0, r9, asr r0
    1b98:	92070403 	andls	r0, r7, #50331648	; 0x3000000
    1b9c:	03000000 	movweq	r0, #0
    1ba0:	008d0708 	addeq	r0, sp, r8, lsl #14
    1ba4:	25040000 	strcs	r0, [r4, #-0]
    1ba8:	7a000000 	bvc	1bb0 <__code_start__-0x6450>
    1bac:	05000000 	streq	r0, [r0, #-0]
    1bb0:	00000025 	andeq	r0, r0, r5, lsr #32
    1bb4:	00da0600 	sbcseq	r0, sl, r0, lsl #12
    1bb8:	1c020000 	stcne	0, cr0, [r2], {-0}
    1bbc:	0000860e 	andeq	r8, r0, lr, lsl #12
    1bc0:	6b040700 	blvs	1037c8 <__bss_end__+0xf95d8>
    1bc4:	04000000 	streq	r0, [r0], #-0
    1bc8:	00000025 	andeq	r0, r0, r5, lsr #32
    1bcc:	0000009b 	muleq	r0, fp, r0
    1bd0:	00009b05 	andeq	r9, r0, r5, lsl #22
    1bd4:	04070000 	streq	r0, [r7], #-0
    1bd8:	000000a8 	andeq	r0, r0, r8, lsr #1
    1bdc:	11080103 	tstne	r8, r3, lsl #2
    1be0:	08000000 	stmdaeq	r0, {}	; <UNPREDICTABLE>
    1be4:	000000a1 	andeq	r0, r0, r1, lsr #1
    1be8:	00038506 	andeq	r8, r3, r6, lsl #10
    1bec:	0e210200 	cdpeq	2, 2, cr0, cr1, cr0, {0}
    1bf0:	000000b9 	strheq	r0, [r0], -r9
    1bf4:	008c0407 	addeq	r0, ip, r7, lsl #8
    1bf8:	f7090000 			; <UNDEFINED> instruction: 0xf7090000
    1bfc:	01000004 	tsteq	r0, r4
    1c00:	8f480604 	svchi	0x00480604
    1c04:	00040000 	andeq	r0, r4, r0
    1c08:	9c010000 	stcls	0, cr0, [r1], {-0}
    1c0c:	00027d00 	andeq	r7, r2, r0, lsl #26
    1c10:	cd000400 	cfstrsgt	mvf0, [r0, #-0]
    1c14:	0400000b 	streq	r0, [r0], #-11
    1c18:	00024a01 	andeq	r4, r2, r1, lsl #20
    1c1c:	05620c00 	strbeq	r0, [r2, #-3072]!	; 0xfffff400
    1c20:	03210000 			; <UNDEFINED> instruction: 0x03210000
    1c24:	02200000 	eoreq	r0, r0, #0, 0
    1c28:	00000000 	andeq	r0, r0, r0
    1c2c:	12b60000 	adcsne	r0, r6, #0, 0
    1c30:	04020000 	streq	r0, [r2], #-0
    1c34:	746e6905 	strbtvc	r6, [lr], #-2309	; 0xfffff6fb
    1c38:	00250300 	eoreq	r0, r5, r0, lsl #6
    1c3c:	04040000 	streq	r0, [r4], #-0
    1c40:	00009707 	andeq	r9, r0, r7, lsl #14
    1c44:	06010400 	streq	r0, [r1], -r0, lsl #8
    1c48:	0000000a 	andeq	r0, r0, sl
    1c4c:	e6050204 	str	r0, [r5], -r4, lsl #4
    1c50:	04000000 	streq	r0, [r0], #-0
    1c54:	00d10504 	sbcseq	r0, r1, r4, lsl #10
    1c58:	08040000 	stmdaeq	r4, {}	; <UNPREDICTABLE>
    1c5c:	0000cc05 	andeq	ip, r0, r5, lsl #24
    1c60:	08010400 	stmdaeq	r1, {sl}
    1c64:	00000008 	andeq	r0, r0, r8
    1c68:	59070204 	stmdbpl	r7, {r2, r9}
    1c6c:	04000000 	streq	r0, [r0], #-0
    1c70:	00920704 	addseq	r0, r2, r4, lsl #14
    1c74:	08040000 	stmdaeq	r4, {}	; <UNPREDICTABLE>
    1c78:	00008d07 	andeq	r8, r0, r7, lsl #26
    1c7c:	00250500 	eoreq	r0, r5, r0, lsl #10
    1c80:	007f0000 	rsbseq	r0, pc, r0
    1c84:	25060000 	strcs	r0, [r6, #-0]
    1c88:	00000000 	andeq	r0, r0, r0
    1c8c:	0000da07 	andeq	sp, r0, r7, lsl #20
    1c90:	0e1c0200 	cdpeq	2, 1, cr0, cr12, cr0, {0}
    1c94:	0000008b 	andeq	r0, r0, fp, lsl #1
    1c98:	00700408 	rsbseq	r0, r0, r8, lsl #8
    1c9c:	25050000 	strcs	r0, [r5, #-0]
    1ca0:	a0000000 	andge	r0, r0, r0
    1ca4:	06000000 	streq	r0, [r0], -r0
    1ca8:	000000a0 	andeq	r0, r0, r0, lsr #1
    1cac:	ad040800 	stcge	8, cr0, [r4, #-0]
    1cb0:	04000000 	streq	r0, [r0], #-0
    1cb4:	00110801 	andseq	r0, r1, r1, lsl #16
    1cb8:	a6030000 	strge	r0, [r3], -r0
    1cbc:	07000000 	streq	r0, [r0, -r0]
    1cc0:	00000385 	andeq	r0, r0, r5, lsl #7
    1cc4:	be0e2102 	adflte	f2, f6, f2
    1cc8:	08000000 	stmdaeq	r0, {}	; <UNPREDICTABLE>
    1ccc:	00009104 	andeq	r9, r0, r4, lsl #2
    1cd0:	05860900 	streq	r0, [r6, #2304]	; 0x900
    1cd4:	0d010000 	stceq	0, cr0, [r1, #-0]
    1cd8:	00003111 	andeq	r3, r0, r1, lsl r1
    1cdc:	04a00a00 	strteq	r0, [r0], #2560	; 0xa00
    1ce0:	1f010000 	svcne	0x00010000
    1ce4:	008f7806 	addeq	r7, pc, r6, lsl #16
    1ce8:	00006000 	andeq	r6, r0, r0
    1cec:	d59c0100 	ldrle	r0, [ip, #256]	; 0x100
    1cf0:	0b000001 	bleq	1cfc <__code_start__-0x6304>
    1cf4:	000005aa 	andeq	r0, r0, sl, lsr #11
    1cf8:	2c0f2c01 	stccs	12, cr2, [pc], {1}
    1cfc:	1c000000 	stcne	0, cr0, [r0], {-0}
    1d00:	0b201000 	bleq	805d08 <__bss_end__+0x7fbb18>
    1d04:	00000545 	andeq	r0, r0, r5, asr #10
    1d08:	2c0f2d01 	stccs	13, cr2, [pc], {1}
    1d0c:	24000000 	strcs	r0, [r0], #-0
    1d10:	0b201000 	bleq	805d18 <__bss_end__+0x7fbb28>
    1d14:	00000577 	andeq	r0, r0, r7, ror r5
    1d18:	2c0f2e01 	stccs	14, cr2, [pc], {1}
    1d1c:	00000000 	andeq	r0, r0, r0
    1d20:	0c5a0000 	mraeq	r0, sl, acc0
    1d24:	00000591 	muleq	r0, r1, r5
    1d28:	2c0f2f01 	stccs	15, cr2, [pc], {1}
    1d2c:	20000000 	andcs	r0, r0, r0
    1d30:	0001ef0d 	andeq	lr, r1, sp, lsl #30
    1d34:	008f7800 	addeq	r7, pc, r0, lsl #16
    1d38:	02080200 	andeq	r0, r8, #0, 4
    1d3c:	20010000 	andcs	r0, r1, r0
    1d40:	00014c08 	andeq	r4, r1, r8, lsl #24
    1d44:	02080e00 	andeq	r0, r8, #0, 28
    1d48:	000f0000 	andeq	r0, pc, r0
    1d4c:	fc000002 	stc2	0, cr0, [r0], {2}
    1d50:	f8000019 			; <UNDEFINED> instruction: 0xf8000019
    1d54:	00000019 	andeq	r0, r0, r9, lsl r0
    1d58:	01d51000 	bicseq	r1, r5, r0
    1d5c:	8f8c0000 	svchi	0x008c0000
    1d60:	8c010000 	stchi	0, cr0, [r1], {-0}
    1d64:	1000008f 	andne	r0, r0, pc, lsl #1
    1d68:	01000000 	mrseq	r0, (UNDEF: 0)
    1d6c:	01730921 	cmneq	r3, r1, lsr #18
    1d70:	e20f0000 	and	r0, pc, #0, 0
    1d74:	23000001 	movwcs	r0, #1
    1d78:	1b00001a 	blne	1de8 <__code_start__-0x6218>
    1d7c:	0000001a 	andeq	r0, r0, sl, lsl r0
    1d80:	008fa011 	addeq	sl, pc, r1, lsl r0	; <UNPREDICTABLE>
    1d84:	00024f00 	andeq	r4, r2, r0, lsl #30
    1d88:	8fa41100 	svchi	0x00a41100
    1d8c:	025c0000 	subseq	r0, ip, #0, 0
    1d90:	ac120000 	ldcge	0, cr0, [r2], {-0}
    1d94:	6800008f 	stmdavs	r0, {r0, r1, r2, r3, r7}
    1d98:	98000002 	stmdals	r0, {r1}
    1d9c:	13000001 	movwne	r0, #1
    1da0:	3a015001 	bcc	55dac <__bss_end__+0x4bbbc>
    1da4:	8fb81200 	svchi	0x00b81200
    1da8:	02740000 	rsbseq	r0, r4, #0, 0
    1dac:	01b80000 			; <UNDEFINED> instruction: 0x01b80000
    1db0:	01130000 	tsteq	r3, r0
    1db4:	240c0550 	strcs	r0, [ip], #-1360	; 0xfffffab0
    1db8:	13201000 	nopne	{0}	; <UNPREDICTABLE>
    1dbc:	0c055101 	stfeqs	f5, [r5], {1}
    1dc0:	5a000001 	bpl	1dcc <__code_start__-0x6234>
    1dc4:	8fc41400 	svchi	0x00c41400
    1dc8:	02740000 	rsbseq	r0, r4, #0, 0
    1dcc:	01130000 	tsteq	r3, r0
    1dd0:	1c0c0550 	cfstr32ne	mvfx0, [ip], {80}	; 0x50
    1dd4:	13201000 	nopne	{0}	; <UNPREDICTABLE>
    1dd8:	0c055101 	stfeqs	f5, [r5], {1}
    1ddc:	5a000020 	bpl	1e64 <__code_start__-0x619c>
    1de0:	53150000 	tstpl	r5, #0, 0
    1de4:	01000005 	tsteq	r0, r5
    1de8:	ef010617 	svc	0x00010617
    1dec:	09000001 	stmdbeq	r0, {r0}
    1df0:	000005b2 			; <UNDEFINED> instruction: 0x000005b2
    1df4:	310e1801 	tstcc	lr, r1, lsl #16
    1df8:	00000000 	andeq	r0, r0, r0
    1dfc:	00058316 	andeq	r8, r5, r6, lsl r3
    1e00:	050e0100 	streq	r0, [lr, #-256]	; 0xffffff00
    1e04:	00000025 	andeq	r0, r0, r5, lsr #32
    1e08:	00020d01 	andeq	r0, r2, r1, lsl #26
    1e0c:	05b20900 	ldreq	r0, [r2, #2304]!	; 0x900
    1e10:	0f010000 	svceq	0x00010000
    1e14:	0000310e 	andeq	r3, r0, lr, lsl #2
    1e18:	ef170000 	svc	0x00170000
    1e1c:	4c000001 	stcmi	0, cr0, [r0], {1}
    1e20:	1800008f 	stmdane	r0, {r0, r1, r2, r3, r7}
    1e24:	01000000 	mrseq	r0, (UNDEF: 0)
    1e28:	00022e9c 	muleq	r2, ip, lr
    1e2c:	02000f00 	andeq	r0, r0, #0, 30
    1e30:	1a600000 	bne	1801e38 <__bss_end__+0x17f7c48>
    1e34:	1a5c0000 	bne	1701e3c <__bss_end__+0x16f7c4c>
    1e38:	17000000 	strne	r0, [r0, -r0]
    1e3c:	000001d5 	ldrdeq	r0, [r0], -r5
    1e40:	00008f64 	andeq	r8, r0, r4, ror #30
    1e44:	00000014 	andeq	r0, r0, r4, lsl r0
    1e48:	024f9c01 	subeq	r9, pc, #256	; 0x100
    1e4c:	e20f0000 	and	r0, pc, #0, 0
    1e50:	87000001 	strhi	r0, [r0, -r1]
    1e54:	7f00001a 	svcvc	0x0000001a
    1e58:	0000001a 	andeq	r0, r0, sl, lsl r0
    1e5c:	00053618 	andeq	r3, r5, r8, lsl r6
    1e60:	00053600 	andeq	r3, r5, r0, lsl #12
    1e64:	01360200 	teqeq	r6, r0, lsl #4
    1e68:	04cf1906 	strbeq	r1, [pc], #2310	; 1e70 <__code_start__-0x6190>
    1e6c:	04cf0000 	strbeq	r0, [pc], #0	; 1e74 <__code_start__-0x618c>
    1e70:	4d020000 	stcmi	0, cr0, [r2, #-0]
    1e74:	04ab1906 	strteq	r1, [fp], #2310	; 0x906
    1e78:	04ab0000 	strteq	r0, [fp], #0
    1e7c:	58020000 	stmdapl	r2, {}	; <UNPREDICTABLE>
    1e80:	054d1906 	strbeq	r1, [sp, #-2310]	; 0xfffff6fa
    1e84:	054d0000 	strbeq	r0, [sp, #-0]
    1e88:	ad020000 	stcge	0, cr0, [r2, #-0]
    1e8c:	053f0006 	ldreq	r0, [pc, #-6]!	; 1e8e <__code_start__-0x6172>
    1e90:	00040000 	andeq	r0, r4, r0
    1e94:	00000d50 	andeq	r0, r0, r0, asr sp
    1e98:	024a0104 	subeq	r0, sl, #1
    1e9c:	cd0c0000 	stcgt	0, cr0, [ip, #-0]
    1ea0:	21000005 	tstcs	r0, r5
    1ea4:	d8000003 	stmdale	r0, {r0, r1}
    1ea8:	1c00008f 	stcne	0, cr0, [r0], {143}	; 0x8f
    1eac:	ce000001 	cdpgt	0, 0, cr0, cr0, cr1, {0}
    1eb0:	02000013 	andeq	r0, r0, #19, 0
    1eb4:	6e690504 	cdpvs	5, 6, cr0, cr9, cr4, {0}
    1eb8:	04030074 	streq	r0, [r3], #-116	; 0xffffff8c
    1ebc:	00009707 	andeq	r9, r0, r7, lsl #14
    1ec0:	06010300 	streq	r0, [r1], -r0, lsl #6
    1ec4:	0000000a 	andeq	r0, r0, sl
    1ec8:	e6050203 	str	r0, [r5], -r3, lsl #4
    1ecc:	03000000 	movweq	r0, #0
    1ed0:	00d10504 	sbcseq	r0, r1, r4, lsl #10
    1ed4:	08030000 	stmdaeq	r3, {}	; <UNPREDICTABLE>
    1ed8:	0000cc05 	andeq	ip, r0, r5, lsl #24
    1edc:	08010300 	stmdaeq	r1, {r8, r9}
    1ee0:	00000008 	andeq	r0, r0, r8
    1ee4:	59070203 	stmdbpl	r7, {r0, r1, r9}
    1ee8:	03000000 	movweq	r0, #0
    1eec:	00920704 	addseq	r0, r2, r4, lsl #14
    1ef0:	08030000 	stmdaeq	r3, {}	; <UNPREDICTABLE>
    1ef4:	00008d07 	andeq	r8, r0, r7, lsl #26
    1ef8:	00250400 	eoreq	r0, r5, r0, lsl #8
    1efc:	007a0000 	rsbseq	r0, sl, r0
    1f00:	25050000 	strcs	r0, [r5, #-0]
    1f04:	00000000 	andeq	r0, r0, r0
    1f08:	0000da06 	andeq	sp, r0, r6, lsl #20
    1f0c:	0e1c0200 	cdpeq	2, 1, cr0, cr12, cr0, {0}
    1f10:	00000086 	andeq	r0, r0, r6, lsl #1
    1f14:	006b0407 	rsbeq	r0, fp, r7, lsl #8
    1f18:	25040000 	strcs	r0, [r4, #-0]
    1f1c:	9b000000 	blls	1f24 <__code_start__-0x60dc>
    1f20:	05000000 	streq	r0, [r0, #-0]
    1f24:	0000009b 	muleq	r0, fp, r0
    1f28:	a8040700 	stmdage	r4, {r8, r9, sl}
    1f2c:	03000000 	movweq	r0, #0
    1f30:	00110801 	andseq	r0, r1, r1, lsl #16
    1f34:	a1080000 	mrsge	r0, (UNDEF: 8)
    1f38:	06000000 	streq	r0, [r0], -r0
    1f3c:	00000385 	andeq	r0, r0, r5, lsl #7
    1f40:	b90e2102 	stmdblt	lr, {r1, r8, sp}
    1f44:	07000000 	streq	r0, [r0, -r0]
    1f48:	00008c04 	andeq	r8, r0, r4, lsl #24
    1f4c:	05c30900 	strbeq	r0, [r3, #2304]	; 0x900
    1f50:	1e010000 	cdpne	0, 0, cr0, cr1, cr0, {0}
    1f54:	0090a006 	addseq	sl, r0, r6
    1f58:	00005400 	andeq	r5, r0, r0, lsl #8
    1f5c:	0b9c0100 	bleq	fe702364 <__bss_end__+0xfe6f8174>
    1f60:	0a000002 	beq	1f70 <__code_start__-0x6090>
    1f64:	00636573 	rsbeq	r6, r3, r3, ror r5
    1f68:	2c191e01 	ldccs	14, cr1, [r9], {1}
    1f6c:	c4000000 	strgt	r0, [r0], #-0
    1f70:	c000001a 	andgt	r0, r0, sl, lsl r0
    1f74:	0b00001a 	bleq	1fe4 <__code_start__-0x601c>
    1f78:	0000020b 	andeq	r0, r0, fp, lsl #4
    1f7c:	000090a0 	andeq	r9, r0, r0, lsr #1
    1f80:	0002e802 	andeq	lr, r2, r2, lsl #16
    1f84:	051f0100 	ldreq	r0, [pc, #-256]	; 1e8c <__code_start__-0x6174>
    1f88:	0002180c 	andeq	r1, r2, ip, lsl #16
    1f8c:	001ae900 	andseq	lr, sl, r0, lsl #18
    1f90:	001ae500 	andseq	lr, sl, r0, lsl #10
    1f94:	02240d00 	eoreq	r0, r4, #0, 26
    1f98:	90b40000 	adcsls	r0, r4, r0
    1f9c:	b4000000 	strlt	r0, [r0], #-0
    1fa0:	40000090 	mulmi	r0, r0, r0
    1fa4:	01000000 	mrseq	r0, (UNDEF: 0)
    1fa8:	310c051c 	tstcc	ip, ip, lsl r5
    1fac:	16000002 	strne	r0, [r0], -r2
    1fb0:	1400001b 	strne	r0, [r0], #-27	; 0xffffffe5
    1fb4:	0e00001b 	mcreq	0, 0, r0, cr0, cr11, {0}
    1fb8:	0000023c 	andeq	r0, r0, ip, lsr r2
    1fbc:	00001b2b 	andeq	r1, r0, fp, lsr #22
    1fc0:	00001b29 	andeq	r1, r0, r9, lsr #22
    1fc4:	0002550f 	andeq	r5, r2, pc, lsl #10
    1fc8:	0090b400 	addseq	fp, r0, r0, lsl #8
    1fcc:	90b40200 	adcsls	r0, r4, r0, lsl #4
    1fd0:	00140000 	andseq	r0, r4, r0
    1fd4:	13010000 	movwne	r0, #4096	; 0x1000
    1fd8:	00019c13 	andeq	r9, r1, r3, lsl ip
    1fdc:	02660e00 	rsbeq	r0, r6, #0, 28
    1fe0:	1b420000 	blne	1081fe8 <__bss_end__+0x1077df8>
    1fe4:	1b3e0000 	blne	f81fec <__bss_end__+0xf77dfc>
    1fe8:	710f0000 	mrsvc	r0, CPSR
    1fec:	b8000002 	stmdalt	r0, {r1}
    1ff0:	01000090 	swpeq	r0, r0, [r0]	; <UNPREDICTABLE>
    1ff4:	000090b8 	strheq	r9, [r0], -r8
    1ff8:	0000000c 	andeq	r0, r0, ip
    1ffc:	89120d01 	ldmdbhi	r2, {r0, r8, sl, fp}
    2000:	10000001 	andne	r0, r0, r1
    2004:	000090c0 	andeq	r9, r0, r0, asr #1
    2008:	0000052a 	andeq	r0, r0, sl, lsr #10
    200c:	05500111 	ldrbeq	r0, [r0, #-273]	; 0xfffffeef
    2010:	0030040c 	eorseq	r0, r0, ip, lsl #8
    2014:	12000020 	andne	r0, r0, #32, 0
    2018:	000090b8 	strheq	r9, [r0], -r8
    201c:	00000536 	andeq	r0, r0, r6, lsr r5
    2020:	0090c812 	addseq	ip, r0, r2, lsl r8
    2024:	00053600 	andeq	r3, r5, r0, lsl #12
    2028:	47130000 	ldrmi	r0, [r3, -r0]
    202c:	00000002 	andeq	r0, r0, r2
    2030:	14000003 	strne	r0, [r0], #-3
    2034:	00000248 	andeq	r0, r0, r8, asr #4
    2038:	0002550b 	andeq	r5, r2, fp, lsl #10
    203c:	0090cc00 	addseq	ip, r0, r0, lsl #24
    2040:	03180200 	tsteq	r8, #0, 4
    2044:	15010000 	strne	r0, [r1, #-0]
    2048:	03181517 	tsteq	r8, #96468992	; 0x5c00000
    204c:	660e0000 	strvs	r0, [lr], -r0
    2050:	62000002 	andvs	r0, r0, #2, 0
    2054:	6000001b 	andvs	r0, r0, fp, lsl r0
    2058:	1600001b 			; <UNDEFINED> instruction: 0x1600001b
    205c:	00000271 	andeq	r0, r0, r1, ror r2
    2060:	000090d0 	ldrdeq	r9, [r0], -r0
    2064:	00033801 	andeq	r3, r3, r1, lsl #16
    2068:	120d0100 	andne	r0, sp, #0
    206c:	000001f3 	strdeq	r0, [r0], -r3
    2070:	0090d810 	addseq	sp, r0, r0, lsl r8
    2074:	00052a00 	andeq	r2, r5, r0, lsl #20
    2078:	50011100 	andpl	r1, r1, r0, lsl #2
    207c:	00007702 	andeq	r7, r0, r2, lsl #14
    2080:	90d01200 	sbcsls	r1, r0, r0, lsl #4
    2084:	05360000 	ldreq	r0, [r6, #-0]!
    2088:	e4120000 	ldr	r0, [r2], #-0
    208c:	36000090 			; <UNDEFINED> instruction: 0x36000090
    2090:	00000005 	andeq	r0, r0, r5
    2094:	00000000 	andeq	r0, r0, r0
    2098:	04ab1700 	strteq	r1, [fp], #1792	; 0x700
    209c:	1b010000 	blne	420a4 <__bss_end__+0x37eb4>
    20a0:	02240106 	eoreq	r0, r4, #-2147483647	; 0x80000001
    20a4:	6d180000 	ldcvs	0, cr0, [r8, #-0]
    20a8:	1b010073 	blne	4227c <__bss_end__+0x3808c>
    20ac:	00002c18 	andeq	r2, r0, r8, lsl ip
    20b0:	f6170000 			; <UNDEFINED> instruction: 0xf6170000
    20b4:	01000005 	tsteq	r0, r5
    20b8:	55010612 	strpl	r0, [r1, #-1554]	; 0xfffff9ee
    20bc:	18000002 	stmdane	r0, {r1}
    20c0:	01007375 	tsteq	r0, r5, ror r3
    20c4:	002c1812 	eoreq	r1, ip, r2, lsl r8
    20c8:	72190000 	andsvc	r0, r9, #0, 0
    20cc:	13010062 	movwne	r0, #4194	; 0x1062
    20d0:	00002c0e 	andeq	r2, r0, lr, lsl #24
    20d4:	72191a00 	andsvc	r1, r9, #0, 20
    20d8:	15010061 	strne	r0, [r1, #-97]	; 0xffffff9f
    20dc:	00002c12 	andeq	r2, r0, r2, lsl ip
    20e0:	1b000000 	blne	20e8 <__code_start__-0x5f18>
    20e4:	000005e7 	andeq	r0, r0, r7, ror #11
    20e8:	2c0a0901 			; <UNDEFINED> instruction: 0x2c0a0901
    20ec:	01000000 	mrseq	r0, (UNDEF: 0)
    20f0:	00000271 	andeq	r0, r0, r1, ror r2
    20f4:	01007519 	tsteq	r0, r9, lsl r5
    20f8:	002c0e0d 	eoreq	r0, ip, sp, lsl #28
    20fc:	1c000000 	stcne	0, cr0, [r0], {-0}
    2100:	000005ff 	strdeq	r0, [r0], -pc	; <UNPREDICTABLE>
    2104:	2c0a0401 	cfstrscs	mvf0, [sl], {1}
    2108:	01000000 	mrseq	r0, (UNDEF: 0)
    210c:	0002711d 	andeq	r7, r2, sp, lsl r1
    2110:	008fd800 	addeq	sp, pc, r0, lsl #16
    2114:	00000c00 	andeq	r0, r0, r0, lsl #24
    2118:	a59c0100 	ldrge	r0, [ip, #256]	; 0x100
    211c:	1e000002 	cdpne	0, 0, cr0, cr0, cr2, {0}
    2120:	00008fe0 	andeq	r8, r0, r0, ror #31
    2124:	0000052a 	andeq	r0, r0, sl, lsr #10
    2128:	05500111 	ldrbeq	r0, [r0, #-273]	; 0xfffffeef
    212c:	0030040c 	eorseq	r0, r0, ip, lsl #8
    2130:	1d000020 	stcne	0, cr0, [r0, #-128]	; 0xffffff80
    2134:	00000255 	andeq	r0, r0, r5, asr r2
    2138:	00008fe4 	andeq	r8, r0, r4, ror #31
    213c:	00000024 	andeq	r0, r0, r4, lsr #32
    2140:	03059c01 	movweq	r9, #23553	; 0x5c01
    2144:	660e0000 	strvs	r0, [lr], -r0
    2148:	79000002 	stmdbvc	r0, {r1}
    214c:	7500001b 	strvc	r0, [r0, #-27]	; 0xffffffe5
    2150:	0f00001b 	svceq	0x0000001b
    2154:	00000271 	andeq	r0, r0, r1, ror r2
    2158:	00008fec 	andeq	r8, r0, ip, ror #31
    215c:	008fec01 	addeq	lr, pc, r1, lsl #24
    2160:	00000c00 	andeq	r0, r0, r0, lsl #24
    2164:	120d0100 	andne	r0, sp, #0
    2168:	000002f2 	strdeq	r0, [r0], -r2
    216c:	008ff410 	addeq	pc, pc, r0, lsl r4	; <UNPREDICTABLE>
    2170:	00052a00 	andeq	r2, r5, r0, lsl #20
    2174:	50011100 	andpl	r1, r1, r0, lsl #2
    2178:	30040c05 	andcc	r0, r4, r5, lsl #24
    217c:	00002000 	andeq	r2, r0, r0
    2180:	008fec12 	addeq	lr, pc, r2, lsl ip	; <UNPREDICTABLE>
    2184:	00053600 	andeq	r3, r5, r0, lsl #12
    2188:	8ffc1200 	svchi	0x00fc1200
    218c:	05360000 	ldreq	r0, [r6, #-0]!
    2190:	1d000000 	stcne	0, cr0, [r0, #-0]
    2194:	00000224 	andeq	r0, r0, r4, lsr #4
    2198:	00009008 	andeq	r9, r0, r8
    219c:	00000048 	andeq	r0, r0, r8, asr #32
    21a0:	04079c01 	streq	r9, [r7], #-3073	; 0xfffff3ff
    21a4:	310c0000 	mrscc	r0, (UNDEF: 12)
    21a8:	9b000002 	blls	21b8 <__code_start__-0x5e48>
    21ac:	9700001b 	smladls	r0, fp, r0, r0
    21b0:	0e00001b 	mcreq	0, 0, r0, cr0, cr11, {0}
    21b4:	0000023c 	andeq	r0, r0, ip, lsr r2
    21b8:	00001bbb 			; <UNDEFINED> instruction: 0x00001bbb
    21bc:	00001bb9 			; <UNDEFINED> instruction: 0x00001bb9
    21c0:	00025516 	andeq	r5, r2, r6, lsl r5
    21c4:	00900800 	addseq	r0, r0, r0, lsl #16
    21c8:	02300200 	eorseq	r0, r0, #0, 4
    21cc:	13010000 	movwne	r0, #4096	; 0x1000
    21d0:	00039a13 	andeq	r9, r3, r3, lsl sl
    21d4:	02301500 	eorseq	r1, r0, #0, 10
    21d8:	660e0000 	strvs	r0, [lr], -r0
    21dc:	d2000002 	andle	r0, r0, #2, 0
    21e0:	ce00001b 	mcrgt	0, 0, r0, cr0, cr11, {0}
    21e4:	0f00001b 	svceq	0x0000001b
    21e8:	00000271 	andeq	r0, r0, r1, ror r2
    21ec:	00009014 	andeq	r9, r0, r4, lsl r0
    21f0:	00901401 	addseq	r1, r0, r1, lsl #8
    21f4:	00000c00 	andeq	r0, r0, r0, lsl #24
    21f8:	120d0100 	andne	r0, sp, #0
    21fc:	00000386 	andeq	r0, r0, r6, lsl #7
    2200:	00901c10 	addseq	r1, r0, r0, lsl ip
    2204:	00052a00 	andeq	r2, r5, r0, lsl #20
    2208:	50011100 	andpl	r1, r1, r0, lsl #2
    220c:	30040c05 	andcc	r0, r4, r5, lsl #24
    2210:	00002000 	andeq	r2, r0, r0
    2214:	00901412 	addseq	r1, r0, r2, lsl r4
    2218:	00053600 	andeq	r3, r5, r0, lsl #12
    221c:	90241200 	eorls	r1, r4, r0, lsl #4
    2220:	05360000 	ldreq	r0, [r6, #-0]!
    2224:	00000000 	andeq	r0, r0, r0
    2228:	00024713 	andeq	r4, r2, r3, lsl r7
    222c:	00024800 	andeq	r4, r2, r0, lsl #16
    2230:	02481400 	subeq	r1, r8, #0, 8
    2234:	550b0000 	strpl	r0, [fp, #-0]
    2238:	28000002 	stmdacs	r0, {r1}
    223c:	02000090 	andeq	r0, r0, #144, 0	; 0x90
    2240:	00000260 	andeq	r0, r0, r0, ror #4
    2244:	15171501 	ldrne	r1, [r7, #-1281]	; 0xfffffaff
    2248:	00000260 	andeq	r0, r0, r0, ror #4
    224c:	0002660e 	andeq	r6, r2, lr, lsl #12
    2250:	001bf200 	andseq	pc, fp, r0, lsl #4
    2254:	001bf000 	andseq	pc, fp, r0
    2258:	02711600 	rsbseq	r1, r1, #0, 12
    225c:	902c0000 	eorls	r0, ip, r0
    2260:	80010000 	andhi	r0, r1, r0
    2264:	01000002 	tsteq	r0, r2
    2268:	03f1120d 	mvnseq	r1, #-805306368	; 0xd0000000
    226c:	34100000 	ldrcc	r0, [r0], #-0
    2270:	2a000090 	bcs	24b8 <__code_start__-0x5b48>
    2274:	11000005 	tstne	r0, r5
    2278:	77025001 	strvc	r5, [r2, -r1]
    227c:	12000000 	andne	r0, r0, #0, 0
    2280:	0000902c 	andeq	r9, r0, ip, lsr #32
    2284:	00000536 	andeq	r0, r0, r6, lsr r5
    2288:	00904012 	addseq	r4, r0, r2, lsl r0
    228c:	00053600 	andeq	r3, r5, r0, lsl #12
    2290:	00000000 	andeq	r0, r0, r0
    2294:	020b1d00 	andeq	r1, fp, #0, 26
    2298:	90500000 	subsls	r0, r0, r0
    229c:	00500000 	subseq	r0, r0, r0
    22a0:	9c010000 	stcls	0, cr0, [r1], {-0}
    22a4:	0000052a 	andeq	r0, r0, sl, lsr #10
    22a8:	0002180c 	andeq	r1, r2, ip, lsl #16
    22ac:	001c0900 	andseq	r0, ip, r0, lsl #18
    22b0:	001c0500 	andseq	r0, ip, r0, lsl #10
    22b4:	02240d00 	eoreq	r0, r4, #0, 26
    22b8:	90600000 	rsbls	r0, r0, r0
    22bc:	60000000 	andvs	r0, r0, r0
    22c0:	40000090 	mulmi	r0, r0, r0
    22c4:	01000000 	mrseq	r0, (UNDEF: 0)
    22c8:	310c051c 	tstcc	ip, ip, lsl r5
    22cc:	2c000002 	stccs	0, cr0, [r0], {2}
    22d0:	2a00001c 	bcs	2348 <__code_start__-0x5cb8>
    22d4:	0e00001c 	mcreq	0, 0, r0, cr0, cr12, {0}
    22d8:	0000023c 	andeq	r0, r0, ip, lsr r2
    22dc:	00001c41 	andeq	r1, r0, r1, asr #24
    22e0:	00001c3f 	andeq	r1, r0, pc, lsr ip
    22e4:	0002550f 	andeq	r5, r2, pc, lsl #10
    22e8:	00906000 	addseq	r6, r0, r0
    22ec:	90600200 	rsbls	r0, r0, r0, lsl #4
    22f0:	00140000 	andseq	r0, r4, r0
    22f4:	13010000 	movwne	r0, #4096	; 0x1000
    22f8:	0004bc13 	andeq	fp, r4, r3, lsl ip
    22fc:	02660e00 	rsbeq	r0, r6, #0, 28
    2300:	1c580000 	mrane	r0, r8, acc0
    2304:	1c540000 	mrane	r0, r4, acc0
    2308:	710f0000 	mrsvc	r0, CPSR
    230c:	64000002 	strvs	r0, [r0], #-2
    2310:	01000090 	swpeq	r0, r0, [r0]	; <UNPREDICTABLE>
    2314:	00009064 	andeq	r9, r0, r4, rrx
    2318:	0000000c 	andeq	r0, r0, ip
    231c:	a9120d01 	ldmdbge	r2, {r0, r8, sl, fp}
    2320:	10000004 	andne	r0, r0, r4
    2324:	0000906c 	andeq	r9, r0, ip, rrx
    2328:	0000052a 	andeq	r0, r0, sl, lsr #10
    232c:	05500111 	ldrbeq	r0, [r0, #-273]	; 0xfffffeef
    2330:	0030040c 	eorseq	r0, r0, ip, lsl #8
    2334:	12000020 	andne	r0, r0, #32, 0
    2338:	00009064 	andeq	r9, r0, r4, rrx
    233c:	00000536 	andeq	r0, r0, r6, lsr r5
    2340:	00907412 	addseq	r7, r0, r2, lsl r4
    2344:	00053600 	andeq	r3, r5, r0, lsl #12
    2348:	47130000 	ldrmi	r0, [r3, -r0]
    234c:	98000002 	stmdals	r0, {r1}
    2350:	14000002 	strne	r0, [r0], #-2
    2354:	00000248 	andeq	r0, r0, r8, asr #4
    2358:	0002550b 	andeq	r5, r2, fp, lsl #10
    235c:	00907800 	addseq	r7, r0, r0, lsl #16
    2360:	02b00200 	adcseq	r0, r0, #0, 4
    2364:	15010000 	strne	r0, [r1, #-0]
    2368:	02b01517 	adcseq	r1, r0, #96468992	; 0x5c00000
    236c:	660e0000 	strvs	r0, [lr], -r0
    2370:	78000002 	stmdavc	r0, {r1}
    2374:	7600001c 			; <UNDEFINED> instruction: 0x7600001c
    2378:	1600001c 			; <UNDEFINED> instruction: 0x1600001c
    237c:	00000271 	andeq	r0, r0, r1, ror r2
    2380:	0000907c 	andeq	r9, r0, ip, ror r0
    2384:	0002d001 	andeq	sp, r2, r1
    2388:	120d0100 	andne	r0, sp, #0
    238c:	00000513 	andeq	r0, r0, r3, lsl r5
    2390:	00908410 	addseq	r8, r0, r0, lsl r4
    2394:	00052a00 	andeq	r2, r5, r0, lsl #20
    2398:	50011100 	andpl	r1, r1, r0, lsl #2
    239c:	00007702 	andeq	r7, r0, r2, lsl #14
    23a0:	907c1200 	rsbsls	r1, ip, r0, lsl #4
    23a4:	05360000 	ldreq	r0, [r6, #-0]!
    23a8:	90120000 	andsls	r0, r2, r0
    23ac:	36000090 			; <UNDEFINED> instruction: 0x36000090
    23b0:	00000005 	andeq	r0, r0, r5
    23b4:	00000000 	andeq	r0, r0, r0
    23b8:	0005e11f 	andeq	lr, r5, pc, lsl r1
    23bc:	0005e100 	andeq	lr, r5, r0, lsl #2
    23c0:	0ac20200 	beq	ff082bc8 <__bss_end__+0xff0789d8>
    23c4:	0005b71f 	andeq	fp, r5, pc, lsl r7
    23c8:	0005b700 	andeq	fp, r5, r0, lsl #14
    23cc:	069c0200 	ldreq	r0, [ip], r0, lsl #4
    23d0:	0005cd00 	andeq	ip, r5, r0, lsl #26
    23d4:	1f000400 	svcne	0x00000400
    23d8:	0400000f 	streq	r0, [r0], #-15
    23dc:	00071201 	andeq	r1, r7, r1, lsl #4
    23e0:	06510c00 	ldrbeq	r0, [r1], -r0, lsl #24
    23e4:	06c20000 	strbeq	r0, [r2], r0
    23e8:	90f40000 	rscsls	r0, r4, r0
    23ec:	01f00000 	mvnseq	r0, r0
    23f0:	15cc0000 	strbne	r0, [ip]
    23f4:	04020000 	streq	r0, [r2], #-0
    23f8:	746e6905 	strbtvc	r6, [lr], #-2309	; 0xfffff6fb
    23fc:	07040300 	streq	r0, [r4, -r0, lsl #6]
    2400:	00000097 	muleq	r0, r7, r0
    2404:	00002c04 	andeq	r2, r0, r4, lsl #24
    2408:	06010300 	streq	r0, [r1], -r0, lsl #6
    240c:	0000000a 	andeq	r0, r0, sl
    2410:	e6050203 	str	r0, [r5], -r3, lsl #4
    2414:	03000000 	movweq	r0, #0
    2418:	00d10504 	sbcseq	r0, r1, r4, lsl #10
    241c:	08030000 	stmdaeq	r3, {}	; <UNPREDICTABLE>
    2420:	0000cc05 	andeq	ip, r0, r5, lsl #24
    2424:	08010300 	stmdaeq	r1, {r8, r9}
    2428:	00000008 	andeq	r0, r0, r8
    242c:	59070203 	stmdbpl	r7, {r0, r1, r9}
    2430:	05000000 	streq	r0, [r0, #-0]
    2434:	0000040f 	andeq	r0, r0, pc, lsl #8
    2438:	6e193405 	cfmulsvs	mvf3, mvf9, mvf5
    243c:	03000000 	movweq	r0, #0
    2440:	00920704 	addseq	r0, r2, r4, lsl #14
    2444:	08030000 	stmdaeq	r3, {}	; <UNPREDICTABLE>
    2448:	00008d07 	andeq	r8, r0, r7, lsl #26
    244c:	08010300 	stmdaeq	r1, {r8, r9}
    2450:	00000011 	andeq	r0, r0, r1, lsl r0
    2454:	54010706 	strpl	r0, [r1], #-1798	; 0xfffff8fa
    2458:	04000000 	streq	r0, [r0], #-0
    245c:	00c20e0c 	sbceq	r0, r2, ip, lsl #28
    2460:	f2070000 	vhadd.s8	d0, d7, d0
    2464:	00000007 	andeq	r0, r0, r7
    2468:	00063407 	andeq	r3, r6, r7, lsl #8
    246c:	77070100 	strvc	r0, [r7, -r0, lsl #2]
    2470:	04000006 	streq	r0, [r0], #-6
    2474:	00068607 	andeq	r8, r6, r7, lsl #12
    2478:	95070500 	strls	r0, [r7, #-1280]	; 0xfffffb00
    247c:	06000006 	streq	r0, [r0], -r6
    2480:	0006a407 	andeq	sl, r6, r7, lsl #8
    2484:	c5070700 	strgt	r0, [r7, #-1792]	; 0xfffff900
    2488:	03000007 	movweq	r0, #7
    248c:	0006b307 	andeq	fp, r6, r7, lsl #6
    2490:	08000200 	stmdaeq	r0, {r9}
    2494:	00000645 	andeq	r0, r0, r5, asr #12
    2498:	0806022c 	stmdaeq	r6, {r2, r3, r5, r9}
    249c:	0000015e 	andeq	r0, r0, lr, asr r1
    24a0:	006f6909 	rsbeq	r6, pc, r9, lsl #18
    24a4:	33090902 	movwcc	r0, #39170	; 0x9902
    24a8:	00000000 	andeq	r0, r0, r0
    24ac:	72656909 	rsbvc	r6, r5, #147456	; 0x24000
    24b0:	090a0200 	stmdbeq	sl, {r9}
    24b4:	00000033 	andeq	r0, r0, r3, lsr r0
    24b8:	69690904 	stmdbvs	r9!, {r2, r8, fp}^
    24bc:	11020072 	tstne	r2, r2, ror r0
    24c0:	00003309 	andeq	r3, r0, r9, lsl #6
    24c4:	6c090800 	stcvs	8, cr0, [r9], {-0}
    24c8:	02007263 	andeq	r7, r0, #805306374	; 0x30000006
    24cc:	00330913 	eorseq	r0, r3, r3, lsl r9
    24d0:	090c0000 	stmdbeq	ip, {}	; <UNPREDICTABLE>
    24d4:	0072636d 	rsbseq	r6, r2, sp, ror #6
    24d8:	33091402 	movwcc	r1, #37890	; 0x9402
    24dc:	10000000 	andne	r0, r0, r0
    24e0:	72736c09 	rsbsvc	r6, r3, #2304	; 0x900
    24e4:	09150200 	ldmdbeq	r5, {r9}
    24e8:	00000033 	andeq	r0, r0, r3, lsr r0
    24ec:	736d0914 	cmnvc	sp, #20, 18	; 0x50000
    24f0:	16020072 			; <UNDEFINED> instruction: 0x16020072
    24f4:	00003309 	andeq	r3, r0, r9, lsl #6
    24f8:	dc0a1800 	stcle	8, cr1, [sl], {-0}
    24fc:	02000007 	andeq	r0, r0, #7, 0
    2500:	00330917 	eorseq	r0, r3, r7, lsl r9
    2504:	0a1c0000 	beq	70250c <__bss_end__+0x6f831c>
    2508:	000007a5 	andeq	r0, r0, r5, lsr #15
    250c:	33091b02 	movwcc	r1, #39682	; 0x9b02
    2510:	20000000 	andcs	r0, r0, r0
    2514:	0006210a 	andeq	r2, r6, sl, lsl #2
    2518:	091d0200 	ldmdbeq	sp, {r9}
    251c:	00000033 	andeq	r0, r0, r3, lsr r0
    2520:	06f70a24 	ldrbteq	r0, [r7], r4, lsr #20
    2524:	1e020000 	cdpne	0, 0, cr0, cr2, cr0, {0}
    2528:	00003309 	andeq	r3, r0, r9, lsl #6
    252c:	0b002800 	bleq	c534 <__bss_end__+0x2344>
    2530:	000006fc 	strdeq	r0, [r0], -ip
    2534:	74090801 	strvc	r0, [r9], #-2049	; 0xfffff7ff
    2538:	04000001 	streq	r0, [r0], #-1
    253c:	0c202150 	stfeqs	f2, [r0], #-320	; 0xfffffec0
    2540:	00003304 	andeq	r3, r0, r4, lsl #6
    2544:	016e0d00 	cmneq	lr, r0, lsl #26
    2548:	e40b0000 	str	r0, [fp], #-0
    254c:	01000007 	tsteq	r0, r7
    2550:	018f2329 	orreq	r2, pc, r9, lsr #6
    2554:	50400000 	subpl	r0, r0, r0
    2558:	040c2021 	streq	r2, [ip], #-33	; 0xffffffdf
    255c:	000000c2 	andeq	r0, r0, r2, asr #1
    2560:	0001890d 	andeq	r8, r1, sp, lsl #18
    2564:	04cf0e00 	strbeq	r0, [pc], #3584	; 256c <__code_start__-0x5a94>
    2568:	cc010000 	stcgt	0, cr0, [r1], {-0}
    256c:	0092ac06 	addseq	sl, r2, r6, lsl #24
    2570:	00001400 	andeq	r1, r0, r0, lsl #8
    2574:	b49c0100 	ldrlt	r0, [ip], #256	; 0x100
    2578:	0f000001 	svceq	0x00000001
    257c:	000092b4 			; <UNDEFINED> instruction: 0x000092b4
    2580:	000001b4 			; <UNDEFINED> instruction: 0x000001b4
    2584:	06661000 	strbteq	r1, [r6], -r0
    2588:	b6010000 	strlt	r0, [r1], -r0
    258c:	00002505 	andeq	r2, r0, r5, lsl #10
    2590:	00928c00 	addseq	r8, r2, r0, lsl #24
    2594:	00002000 	andeq	r2, r0, r0
    2598:	eb9c0100 	bl	fe7029a0 <__bss_end__+0xfe6f87b0>
    259c:	0f000001 	svceq	0x00000001
    25a0:	00009294 	muleq	r0, r4, r2
    25a4:	000005a0 	andeq	r0, r0, r0, lsr #11
    25a8:	00929c11 	addseq	r9, r2, r1, lsl ip
    25ac:	0005ac00 	andeq	sl, r5, r0, lsl #24
    25b0:	50011200 	andpl	r1, r1, r0, lsl #4
    25b4:	50640c05 	rsbpl	r0, r4, r5, lsl #24
    25b8:	00002021 	andeq	r2, r0, r1, lsr #32
    25bc:	0007b710 	andeq	fp, r7, r0, lsl r7
    25c0:	05b30100 	ldreq	r0, [r3, #256]!	; 0x100
    25c4:	00000025 	andeq	r0, r0, r5, lsr #32
    25c8:	0000927c 	andeq	r9, r0, ip, ror r2
    25cc:	00000010 	andeq	r0, r0, r0, lsl r0
    25d0:	02189c01 	andseq	r9, r8, #256	; 0x100
    25d4:	840f0000 	strhi	r0, [pc], #-0	; 25dc <__code_start__-0x5a24>
    25d8:	a0000092 	mulge	r0, r2, r0
    25dc:	0f000005 	svceq	0x00000005
    25e0:	00009288 	andeq	r9, r0, r8, lsl #5
    25e4:	00000309 	andeq	r0, r0, r9, lsl #6
    25e8:	03720e00 	cmneq	r2, #0, 28
    25ec:	ab010000 	blge	425f4 <__bss_end__+0x38404>
    25f0:	00924c06 	addseq	r4, r2, r6, lsl #24
    25f4:	00003000 	andeq	r3, r0, r0
    25f8:	7c9c0100 	ldfvcs	f0, [ip], {0}
    25fc:	13000002 	movwne	r0, #2
    2600:	ab010063 	blge	42794 <__bss_end__+0x385a4>
    2604:	00002c19 	andeq	r2, r0, r9, lsl ip
    2608:	001c8f00 	andseq	r8, ip, r0, lsl #30
    260c:	001c8b00 	andseq	r8, ip, r0, lsl #22
    2610:	92580f00 	subsls	r0, r8, #0, 30
    2614:	05a00000 	streq	r0, [r0, #0]!
    2618:	5c0f0000 	stcpl	0, cr0, [pc], {-0}
    261c:	db000092 	blle	286c <__code_start__-0x5794>
    2620:	14000002 	strne	r0, [r0], #-2
    2624:	00009270 	andeq	r9, r0, r0, ror r2
    2628:	000005b8 			; <UNDEFINED> instruction: 0x000005b8
    262c:	00000272 	andeq	r0, r0, r2, ror r2
    2630:	05500112 	ldrbeq	r0, [r0, #-274]	; 0xfffffeee
    2634:	2150400c 	cmpcs	r0, ip
    2638:	51011220 	tstpl	r1, r0, lsr #4
    263c:	08007405 	stmdaeq	r0, {r0, r2, sl, ip, sp, lr}
    2640:	0f001aff 	svceq	0x00001aff
    2644:	00009274 	andeq	r9, r0, r4, ror r2
    2648:	000005a0 	andeq	r0, r0, r0, lsr #11
    264c:	07081000 	streq	r1, [r8, -r0]
    2650:	a3010000 	movwge	r0, #4096	; 0x1000
    2654:	00002505 	andeq	r2, r0, r5, lsl #10
    2658:	00921c00 	addseq	r1, r2, r0, lsl #24
    265c:	00003000 	andeq	r3, r0, r0
    2660:	db9c0100 	blle	fe702a68 <__bss_end__+0xfe6f8878>
    2664:	15000002 	strne	r0, [r0, #-2]
    2668:	a7010063 	strge	r0, [r1, -r3, rrx]
    266c:	00002509 	andeq	r2, r0, r9, lsl #10
    2670:	001caf00 	andseq	sl, ip, r0, lsl #30
    2674:	001cad00 	andseq	sl, ip, r0, lsl #26
    2678:	92240f00 	eorls	r0, r4, #0, 30
    267c:	05a00000 	streq	r0, [r0, #0]!
    2680:	280f0000 	stmdacs	pc, {}	; <UNPREDICTABLE>
    2684:	09000092 	stmdbeq	r0, {r1, r4, r7}
    2688:	14000003 	strne	r0, [r0], #-3
    268c:	00009238 	andeq	r9, r0, r8, lsr r2
    2690:	000005ac 	andeq	r0, r0, ip, lsr #11
    2694:	000002d1 	ldrdeq	r0, [r0], -r1
    2698:	05500112 	ldrbeq	r0, [r0, #-274]	; 0xfffffeee
    269c:	2150400c 	cmpcs	r0, ip
    26a0:	400f0020 	andmi	r0, pc, r0, lsr #32
    26a4:	a0000092 	mulge	r0, r2, r0
    26a8:	00000005 	andeq	r0, r0, r5
    26ac:	00065810 	andeq	r5, r6, r0, lsl r8
    26b0:	05940100 	ldreq	r0, [r4, #256]	; 0x100
    26b4:	00000025 	andeq	r0, r0, r5, lsr #32
    26b8:	000091fc 	strdeq	r9, [r0], -ip
    26bc:	00000020 	andeq	r0, r0, r0, lsr #32
    26c0:	03099c01 	movweq	r9, #39937	; 0x9c01
    26c4:	08110000 	ldmdaeq	r1, {}	; <UNPREDICTABLE>
    26c8:	ac000092 	stcge	0, cr0, [r0], {146}	; 0x92
    26cc:	12000005 	andne	r0, r0, #5, 0
    26d0:	0c055001 	stceq	0, cr5, [r5], {1}
    26d4:	20215064 	eorcs	r5, r1, r4, rrx
    26d8:	26100000 	ldrcs	r0, [r0], -r0
    26dc:	01000006 	tsteq	r0, r6
    26e0:	0025058b 	eoreq	r0, r5, fp, lsl #11
    26e4:	91e40000 	mvnls	r0, r0
    26e8:	00180000 	andseq	r0, r8, r0
    26ec:	9c010000 	stcls	0, cr0, [r1], {-0}
    26f0:	00000337 	andeq	r0, r0, r7, lsr r3
    26f4:	0091f011 	addseq	pc, r1, r1, lsl r0	; <UNPREDICTABLE>
    26f8:	0005ac00 	andeq	sl, r5, r0, lsl #24
    26fc:	50011200 	andpl	r1, r1, r0, lsl #4
    2700:	50640c05 	rsbpl	r0, r4, r5, lsl #24
    2704:	00002021 	andeq	r2, r0, r1, lsr #32
    2708:	0004ed0e 	andeq	lr, r4, lr, lsl #26
    270c:	06450100 	strbeq	r0, [r5], -r0, lsl #2
    2710:	00009134 	andeq	r9, r0, r4, lsr r1
    2714:	000000b0 	strheq	r0, [r0], -r0	; <UNPREDICTABLE>
    2718:	04849c01 	streq	r9, [r4], #3073	; 0xc01
    271c:	18160000 	ldmdane	r6, {}	; <UNPREDICTABLE>
    2720:	01000006 	tsteq	r0, r6
    2724:	00620e7e 	rsbeq	r0, r2, lr, ror lr
    2728:	010e0000 	mrseq	r0, (UNDEF: 14)
    272c:	00914414 	addseq	r4, r1, r4, lsl r4
    2730:	0005c400 	andeq	ip, r5, r0, lsl #8
    2734:	00037300 	andeq	r7, r3, r0, lsl #6
    2738:	50011200 	andpl	r1, r1, r0, lsl #4
    273c:	01123e01 	tsteq	r2, r1, lsl #28
    2740:	00320151 	eorseq	r0, r2, r1, asr r1
    2744:	00915014 	addseq	r5, r1, r4, lsl r0
    2748:	0005c400 	andeq	ip, r5, r0, lsl #8
    274c:	00038b00 	andeq	r8, r3, r0, lsl #22
    2750:	50011200 	andpl	r1, r1, r0, lsl #4
    2754:	01123f01 	tsteq	r2, r1, lsl #30
    2758:	00320151 	eorseq	r0, r2, r1, asr r1
    275c:	0091540f 	addseq	r5, r1, pc, lsl #8
    2760:	0005a000 	andeq	sl, r5, r0
    2764:	91601400 	cmnls	r0, r0, lsl #8
    2768:	053d0000 	ldreq	r0, [sp, #-0]!
    276c:	03b00000 	movseq	r0, #0, 0
    2770:	01120000 	tsteq	r2, r0
    2774:	040c0550 	streq	r0, [ip], #-1360	; 0xfffffab0
    2778:	12202150 	eorne	r2, r0, #20
    277c:	31015101 	tstcc	r1, r1, lsl #2
    2780:	91640f00 	cmnls	r4, r0, lsl #30
    2784:	05a00000 	streq	r0, [r0, #0]!
    2788:	74140000 	ldrvc	r0, [r4], #-0
    278c:	b8000091 	stmdalt	r0, {r0, r4, r7}
    2790:	d2000005 	andle	r0, r0, #5, 0
    2794:	12000003 	andne	r0, r0, #3, 0
    2798:	74025001 	strvc	r5, [r2], #-1
    279c:	51011200 	mrspl	r1, R9_usr
    27a0:	14003001 	strne	r3, [r0], #-1
    27a4:	00009180 	andeq	r9, r0, r0, lsl #3
    27a8:	000005b8 			; <UNDEFINED> instruction: 0x000005b8
    27ac:	000003ee 	andeq	r0, r0, lr, ror #7
    27b0:	05500112 	ldrbeq	r0, [r0, #-274]	; 0xfffffeee
    27b4:	2150440c 	cmpcs	r0, ip, lsl #8
    27b8:	51011220 	tstpl	r1, r0, lsr #4
    27bc:	14003001 	strne	r3, [r0], #-1
    27c0:	0000918c 	andeq	r9, r0, ip, lsl #3
    27c4:	000005b8 			; <UNDEFINED> instruction: 0x000005b8
    27c8:	0000040a 	andeq	r0, r0, sl, lsl #8
    27cc:	05500112 	ldrbeq	r0, [r0, #-274]	; 0xfffffeee
    27d0:	21504c0c 	cmpcs	r0, ip, lsl #24
    27d4:	51011220 	tstpl	r1, r0, lsr #4
    27d8:	14003301 	strne	r3, [r0], #-769	; 0xfffffcff
    27dc:	00009198 	muleq	r0, r8, r1
    27e0:	000005b8 			; <UNDEFINED> instruction: 0x000005b8
    27e4:	00000426 	andeq	r0, r0, r6, lsr #8
    27e8:	05500112 	ldrbeq	r0, [r0, #-274]	; 0xfffffeee
    27ec:	2150500c 	cmpcs	r0, ip
    27f0:	51011220 	tstpl	r1, r0, lsr #4
    27f4:	14003001 	strne	r3, [r0], #-1
    27f8:	000091a4 	andeq	r9, r0, r4, lsr #3
    27fc:	000005b8 			; <UNDEFINED> instruction: 0x000005b8
    2800:	00000443 	andeq	r0, r0, r3, asr #8
    2804:	05500112 	ldrbeq	r0, [r0, #-274]	; 0xfffffeee
    2808:	2150480c 	cmpcs	r0, ip, lsl #16
    280c:	51011220 	tstpl	r1, r0, lsr #4
    2810:	00c70802 	sbceq	r0, r7, r2, lsl #16
    2814:	0091b014 	addseq	fp, r1, r4, lsl r0
    2818:	0005b800 	andeq	fp, r5, r0, lsl #16
    281c:	00046100 	andeq	r6, r4, r0, lsl #2
    2820:	50011200 	andpl	r1, r1, r0, lsl #4
    2824:	50680c05 	rsbpl	r0, r8, r5, lsl #24
    2828:	01122021 	tsteq	r2, r1, lsr #32
    282c:	0e0a0351 	mcreq	3, 0, r0, cr10, cr1, {2}
    2830:	bc140001 	ldclt	0, cr0, [r4], {1}
    2834:	b8000091 	stmdalt	r0, {r0, r4, r7}
    2838:	7a000005 	bvc	2854 <__code_start__-0x57ac>
    283c:	12000004 	andne	r0, r0, #4, 0
    2840:	74025001 	strvc	r5, [r2], #-1
    2844:	51011200 	mrspl	r1, R9_usr
    2848:	0f003301 	svceq	0x00003301
    284c:	000091c0 	andeq	r9, r0, r0, asr #3
    2850:	000005a0 	andeq	r0, r0, r0, lsr #11
    2854:	07aa0e00 	streq	r0, [sl, r0, lsl #28]!
    2858:	35010000 	strcc	r0, [r1, #-0]
    285c:	0092c006 	addseq	ip, r2, r6
    2860:	00002400 	andeq	r2, r0, r0, lsl #8
    2864:	d39c0100 	orrsle	r0, ip, #0
    2868:	0f000004 	svceq	0x00000004
    286c:	000092c8 	andeq	r9, r0, r8, asr #5
    2870:	00000194 	muleq	r0, r4, r1
    2874:	0092cc0f 	addseq	ip, r2, pc, lsl #24
    2878:	0005a000 	andeq	sl, r5, r0
    287c:	92d81400 	sbcsls	r1, r8, #0, 8
    2880:	04d30000 	ldrbeq	r0, [r3], #0
    2884:	04c90000 	strbeq	r0, [r9], #0
    2888:	01120000 	tsteq	r2, r0
    288c:	040c0550 	streq	r0, [ip], #-1360	; 0xfffffab0
    2890:	12202150 	eorne	r2, r0, #20
    2894:	09025101 	stmdbeq	r2, {r0, r8, ip, lr}
    2898:	dc0f00fe 	stcle	0, cr0, [pc], {254}	; 0xfe
    289c:	a0000092 	mulge	r0, r2, r0
    28a0:	00000005 	andeq	r0, r0, r5
    28a4:	0007e917 	andeq	lr, r7, r7, lsl r9
    28a8:	0d310100 	ldfeqs	f0, [r1, #-0]
    28ac:	000090f4 	strdeq	r9, [r0], -r4
    28b0:	00000020 	andeq	r0, r0, r0, lsr #32
    28b4:	05369c01 	ldreq	r9, [r6, #-3073]!	; 0xfffff3ff
    28b8:	39180000 	ldmdbcc	r8, {}	; <UNPREDICTABLE>
    28bc:	01000008 	tsteq	r0, r8
    28c0:	05362531 	ldreq	r2, [r6, #-1329]!	; 0xfffffacf
    28c4:	1cc60000 	stclne	0, cr0, [r6], {0}
    28c8:	1cc20000 	stclne	0, cr0, [r2], {0}
    28cc:	76130000 	ldrvc	r0, [r3], -r0
    28d0:	01006c61 	tsteq	r0, r1, ror #24
    28d4:	002c3431 	eoreq	r3, ip, r1, lsr r4
    28d8:	1ce80000 	stclne	0, cr0, [r8]
    28dc:	1ce40000 	stclne	0, cr0, [r4]
    28e0:	04140000 	ldreq	r0, [r4], #-0
    28e4:	ac000091 	stcge	0, cr0, [r0], {145}	; 0x91
    28e8:	25000005 	strcs	r0, [r0, #-5]
    28ec:	12000005 	andne	r0, r0, #5, 0
    28f0:	74025001 	strvc	r5, [r2], #-1
    28f4:	10110000 	andsne	r0, r1, r0
    28f8:	b8000091 	stmdalt	r0, {r0, r4, r7}
    28fc:	12000005 	andne	r0, r0, #5, 0
    2900:	74025001 	strvc	r5, [r2], #-1
    2904:	0c000000 	stceq	0, cr0, [r0], {-0}
    2908:	00053c04 	andeq	r3, r5, r4, lsl #24
    290c:	d4171900 	ldrle	r1, [r7], #-2304	; 0xfffff700
    2910:	01000007 	tsteq	r0, r7
    2914:	91140d2e 	tstls	r4, lr, lsr #26
    2918:	00200000 	eoreq	r0, r0, r0
    291c:	9c010000 	stcls	0, cr0, [r1], {-0}
    2920:	000005a0 	andeq	r0, r0, r0, lsr #11
    2924:	00083918 	andeq	r3, r8, r8, lsl r9
    2928:	242e0100 	strtcs	r0, [lr], #-256	; 0xffffff00
    292c:	00000536 	andeq	r0, r0, r6, lsr r5
    2930:	00001d0a 	andeq	r1, r0, sl, lsl #26
    2934:	00001d06 	andeq	r1, r0, r6, lsl #26
    2938:	6c617613 	stclvs	6, cr7, [r1], #-76	; 0xffffffb4
    293c:	332e0100 			; <UNDEFINED> instruction: 0x332e0100
    2940:	0000002c 	andeq	r0, r0, ip, lsr #32
    2944:	00001d2c 	andeq	r1, r0, ip, lsr #26
    2948:	00001d28 	andeq	r1, r0, r8, lsr #26
    294c:	00912414 	addseq	r2, r1, r4, lsl r4
    2950:	0005ac00 	andeq	sl, r5, r0, lsl #24
    2954:	00058f00 	andeq	r8, r5, r0, lsl #30
    2958:	50011200 	andpl	r1, r1, r0, lsl #4
    295c:	00007402 	andeq	r7, r0, r2, lsl #8
    2960:	00913011 	addseq	r3, r1, r1, lsl r0
    2964:	0005b800 	andeq	fp, r5, r0, lsl #16
    2968:	50011200 	andpl	r1, r1, r0, lsl #4
    296c:	00007402 	andeq	r7, r0, r2, lsl #8
    2970:	05b71a00 	ldreq	r1, [r7, #2560]!	; 0xa00
    2974:	05b70000 	ldreq	r0, [r7, #0]!
    2978:	9c030000 	stcls	0, cr0, [r3], {-0}
    297c:	08141a06 	ldmdaeq	r4, {r1, r2, r9, fp, ip}
    2980:	08140000 	ldmdaeq	r4, {}	; <UNPREDICTABLE>
    2984:	c3030000 	movwgt	r0, #12288	; 0x3000
    2988:	06121a0b 	ldreq	r1, [r2], -fp, lsl #20
    298c:	06120000 	ldreq	r0, [r2], -r0
    2990:	ae030000 	cdpge	0, 0, cr0, cr3, cr0, {0}
    2994:	08021a06 	stmdaeq	r2, {r1, r2, r9, fp, ip}
    2998:	08020000 	stmdaeq	r2, {}	; <UNPREDICTABLE>
    299c:	19040000 	stmdbne	r4, {}	; <UNPREDICTABLE>
    29a0:	08e90006 	stmiaeq	r9!, {r1, r2}^
    29a4:	00040000 	andeq	r0, r4, r0
    29a8:	000010b7 	strheq	r1, [r0], -r7
    29ac:	07120104 	ldreq	r0, [r2, -r4, lsl #2]
    29b0:	bd0c0000 	stclt	0, cr0, [ip, #-0]
    29b4:	c2000008 	andgt	r0, r0, #8, 0
    29b8:	e4000006 	str	r0, [r0], #-6
    29bc:	b0000092 	mullt	r0, r2, r0
    29c0:	d4000003 	strle	r0, [r0], #-3
    29c4:	02000017 	andeq	r0, r0, #23, 0
    29c8:	6e690504 	cdpvs	5, 6, cr0, cr9, cr4, {0}
    29cc:	04030074 	streq	r0, [r3], #-116	; 0xffffff8c
    29d0:	00009707 	andeq	r9, r0, r7, lsl #14
    29d4:	06010300 	streq	r0, [r1], -r0, lsl #6
    29d8:	0000000a 	andeq	r0, r0, sl
    29dc:	e6050203 	str	r0, [r5], -r3, lsl #4
    29e0:	03000000 	movweq	r0, #0
    29e4:	00d10504 	sbcseq	r0, r1, r4, lsl #10
    29e8:	08030000 	stmdaeq	r3, {}	; <UNPREDICTABLE>
    29ec:	0000cc05 	andeq	ip, r0, r5, lsl #24
    29f0:	08010300 	stmdaeq	r1, {r8, r9}
    29f4:	00000008 	andeq	r0, r0, r8
    29f8:	59070203 	stmdbpl	r7, {r0, r1, r9}
    29fc:	04000000 	streq	r0, [r0], #-0
    2a00:	0000040f 	andeq	r0, r0, pc, lsl #8
    2a04:	69193403 	ldmdbvs	r9, {r0, r1, sl, ip, sp}
    2a08:	03000000 	movweq	r0, #0
    2a0c:	00920704 	addseq	r0, r2, r4, lsl #14
    2a10:	08030000 	stmdaeq	r3, {}	; <UNPREDICTABLE>
    2a14:	00008d07 	andeq	r8, r0, r7, lsl #26
    2a18:	08010300 	stmdaeq	r1, {r8, r9}
    2a1c:	00000011 	andeq	r0, r0, r1, lsl r0
    2a20:	00007705 	andeq	r7, r0, r5, lsl #14
    2a24:	04080300 	streq	r0, [r8], #-768	; 0xfffffd00
    2a28:	000001ea 	andeq	r0, r0, sl, ror #3
    2a2c:	07070406 	streq	r0, [r7, -r6, lsl #8]
    2a30:	00002c04 	andeq	r2, r0, r4, lsl #24
    2a34:	061f0100 	ldreq	r0, [pc], -r0, lsl #2
    2a38:	000000a4 	andeq	r0, r0, r4, lsr #1
    2a3c:	00084408 	andeq	r4, r8, r8, lsl #8
    2a40:	20000000 	andcs	r0, r0, r0
    2a44:	00090000 	andeq	r0, r9, r0
    2a48:	01000004 	tsteq	r0, r4
    2a4c:	00770d22 	rsbseq	r0, r7, r2, lsr #26
    2a50:	5f0a0000 	svcpl	0x000a0000
    2a54:	01000008 	tsteq	r0, r8
    2a58:	00c20e23 	sbceq	r0, r2, r3, lsr #28
    2a5c:	03050000 	movweq	r0, #20480	; 0x5000
    2a60:	00009dcc 	andeq	r9, r0, ip, asr #27
    2a64:	0077040b 	rsbseq	r0, r7, fp, lsl #8
    2a68:	220a0000 	andcs	r0, sl, #0, 0
    2a6c:	01000008 	tsteq	r0, r8
    2a70:	00c20e24 	sbceq	r0, r2, r4, lsr #28
    2a74:	03050000 	movweq	r0, #20480	; 0x5000
    2a78:	00009dd0 	ldrdeq	r9, [r0], -r0
    2a7c:	00089c0a 	andeq	r9, r8, sl, lsl #24
    2a80:	0e250100 	sufeqs	f0, f5, f0
    2a84:	000000c2 	andeq	r0, r0, r2, asr #1
    2a88:	9dd40305 	ldclls	3, cr0, [r4, #20]
    2a8c:	6b0c0000 	blvs	302a94 <__bss_end__+0x2f88a4>
    2a90:	01000008 	tsteq	r0, r8
    2a94:	96340675 			; <UNDEFINED> instruction: 0x96340675
    2a98:	00600000 	rsbeq	r0, r0, r0
    2a9c:	9c010000 	stcls	0, cr0, [r1], {-0}
    2aa0:	00000164 	andeq	r0, r0, r4, ror #2
    2aa4:	0100700d 	tsteq	r0, sp
    2aa8:	008a1675 	addeq	r1, sl, r5, ror r6
    2aac:	1d500000 	ldclne	0, cr0, [r0, #-0]
    2ab0:	1d4a0000 	stclne	0, cr0, [sl, #-0]
    2ab4:	790e0000 	stmdbvc	lr, {}	; <UNPREDICTABLE>
    2ab8:	74000000 	strvc	r0, [r0], #-0
    2abc:	05000001 	streq	r0, [r0, #-1]
    2ac0:	009db803 	addseq	fp, sp, r3, lsl #16
    2ac4:	96800f00 	strls	r0, [r0], r0, lsl #30
    2ac8:	08bc0000 	ldmeq	ip!, {}	; <UNPREDICTABLE>
    2acc:	015a0000 	cmpeq	sl, r0
    2ad0:	01100000 	tsteq	r0, r0
    2ad4:	30030550 	andcc	r0, r3, r0, asr r5
    2ad8:	1000009d 	mulne	r0, sp, r0
    2adc:	03055101 	movweq	r5, #20737	; 0x5101
    2ae0:	00009bc8 	andeq	r9, r0, r8, asr #23
    2ae4:	05520110 	ldrbeq	r0, [r2, #-272]	; 0xfffffef0
    2ae8:	009db803 	addseq	fp, sp, r3, lsl #16
    2aec:	53011000 	movwpl	r1, #4096	; 0x1000
    2af0:	10770802 	rsbsne	r0, r7, r2, lsl #16
    2af4:	03007d02 	movweq	r7, #3330	; 0xd02
    2af8:	005001f3 	ldrsheq	r0, [r0], #-19	; 0xffffffed
    2afc:	00968411 	addseq	r8, r6, r1, lsl r4
    2b00:	0008c800 	andeq	ip, r8, r0, lsl #16
    2b04:	7e120000 	cdpvc	0, 1, cr0, cr2, cr0, {0}
    2b08:	74000000 	strvc	r0, [r0], #-0
    2b0c:	13000001 	movwne	r0, #1
    2b10:	0000002c 	andeq	r0, r0, ip, lsr #32
    2b14:	64050009 	strvs	r0, [r5], #-9
    2b18:	14000001 	strne	r0, [r0], #-1
    2b1c:	0000084d 	andeq	r0, r0, sp, asr #16
    2b20:	20067201 	andcs	r7, r6, r1, lsl #4
    2b24:	14000096 	strne	r0, [r0], #-150	; 0xffffff6a
    2b28:	01000000 	mrseq	r0, (UNDEF: 0)
    2b2c:	083e0c9c 	ldmdaeq	lr!, {r2, r3, r4, r7, sl, fp}
    2b30:	6f010000 	svcvs	0x00010000
    2b34:	00961c06 	addseq	r1, r6, r6, lsl #24
    2b38:	00000400 	andeq	r0, r0, r0, lsl #8
    2b3c:	ae9c0100 	fmlgee	f0, f4, f0
    2b40:	15000001 	strne	r0, [r0, #-1]
    2b44:	6f010070 	svcvs	0x00010070
    2b48:	00008a12 	andeq	r8, r0, r2, lsl sl
    2b4c:	00500100 	subseq	r0, r0, r0, lsl #2
    2b50:	00090716 	andeq	r0, r9, r6, lsl r7
    2b54:	075e0100 	ldrbeq	r0, [lr, -r0, lsl #2]
    2b58:	0000008a 	andeq	r0, r0, sl, lsl #1
    2b5c:	00009504 	andeq	r9, r0, r4, lsl #10
    2b60:	00000118 	andeq	r0, r0, r8, lsl r1
    2b64:	042c9c01 	strteq	r9, [ip], #-3073	; 0xfffff3ff
    2b68:	31170000 	tstcc	r7, r0
    2b6c:	01000008 	tsteq	r0, r8
    2b70:	002c205e 	eoreq	r2, ip, lr, asr r0
    2b74:	1d910000 	ldcne	0, cr0, [r1]
    2b78:	1d7d0000 	ldclne	0, cr0, [sp, #-0]
    2b7c:	7c170000 	ldcvc	0, cr0, [r7], {-0}
    2b80:	01000008 	tsteq	r0, r8
    2b84:	002c315e 	eoreq	r3, ip, lr, asr r1
    2b88:	1e2a0000 	cdpne	0, 2, cr0, cr10, cr0, {0}
    2b8c:	1e160000 	cdpne	0, 1, cr0, cr6, cr0, {0}
    2b90:	790e0000 	stmdbvc	lr, {}	; <UNPREDICTABLE>
    2b94:	3c000000 	stccc	0, cr0, [r0], {-0}
    2b98:	05000004 	streq	r0, [r0, #-4]
    2b9c:	009da003 	addseq	sl, sp, r3
    2ba0:	00681800 	rsbeq	r1, r8, r0, lsl #16
    2ba4:	2c0e6601 	stccs	6, cr6, [lr], {1}
    2ba8:	e0000000 	and	r0, r0, r0
    2bac:	d400001e 	strle	r0, [r0], #-30	; 0xffffffe2
    2bb0:	1900001e 	stmdbne	r0, {r1, r2, r3, r4}
    2bb4:	00000854 	andeq	r0, r0, r4, asr r8
    2bb8:	00009514 	andeq	r9, r0, r4, lsl r5
    2bbc:	00951404 	addseq	r1, r5, r4, lsl #8
    2bc0:	00000400 	andeq	r0, r0, r0, lsl #8
    2bc4:	05600100 	strbeq	r0, [r0, #-256]!	; 0xffffff00
    2bc8:	00000238 	andeq	r0, r0, r8, lsr r2
    2bcc:	0008651a 	andeq	r6, r8, sl, lsl r5
    2bd0:	001f3400 	andseq	r3, pc, r0, lsl #8
    2bd4:	001f3200 	andseq	r3, pc, r0, lsl #4
    2bd8:	96190000 	ldrls	r0, [r9], -r0
    2bdc:	20000008 	andcs	r0, r0, r8
    2be0:	02000095 	andeq	r0, r0, #149, 0	; 0x95
    2be4:	00009520 	andeq	r9, r0, r0, lsr #10
    2be8:	00000008 	andeq	r0, r0, r8
    2bec:	6c116101 	ldfvss	f6, [r1], {1}
    2bf0:	1a000002 	bne	2c00 <__code_start__-0x5400>
    2bf4:	000008b1 			; <UNDEFINED> instruction: 0x000008b1
    2bf8:	00001f49 	andeq	r1, r0, r9, asr #30
    2bfc:	00001f47 	andeq	r1, r0, r7, asr #30
    2c00:	0008a71a 	andeq	sl, r8, sl, lsl r7
    2c04:	001f5f00 	andseq	r5, pc, r0, lsl #30
    2c08:	001f5d00 	andseq	r5, pc, r0, lsl #26
    2c0c:	1f1b0000 	svcne	0x001b0000
    2c10:	30000008 	andcc	r0, r0, r8
    2c14:	01000095 	swpeq	r0, r5, [r0]	; <UNPREDICTABLE>
    2c18:	00000368 	andeq	r0, r0, r8, ror #6
    2c1c:	0a096701 	beq	25c828 <__bss_end__+0x252638>
    2c20:	1a000003 	bne	2c34 <__code_start__-0x53cc>
    2c24:	0000083a 	andeq	r0, r0, sl, lsr r8
    2c28:	00001f78 	andeq	r1, r0, r8, ror pc
    2c2c:	00001f72 	andeq	r1, r0, r2, ror pc
    2c30:	0008301a 	andeq	r3, r8, sl, lsl r0
    2c34:	001fbf00 	andseq	fp, pc, r0, lsl #30
    2c38:	001fb700 	andseq	fp, pc, r0, lsl #14
    2c3c:	03681c00 	cmneq	r8, #0, 24
    2c40:	54190000 	ldrpl	r0, [r9], #-0
    2c44:	30000008 	andcc	r0, r0, r8
    2c48:	04000095 	streq	r0, [r0], #-149	; 0xffffff6b
    2c4c:	00009530 	andeq	r9, r0, r0, lsr r5
    2c50:	00000004 	andeq	r0, r0, r4
    2c54:	c7051101 	strgt	r1, [r5, -r1, lsl #2]
    2c58:	1a000002 	bne	2c68 <__code_start__-0x5398>
    2c5c:	00000865 	andeq	r0, r0, r5, ror #16
    2c60:	00001ffd 	strdeq	r1, [r0], -sp
    2c64:	00001ffb 	strdeq	r1, [r0], -fp
    2c68:	95c80f00 	strbls	r0, [r8, #3840]	; 0xf00
    2c6c:	08bc0000 	ldmeq	ip!, {}	; <UNPREDICTABLE>
    2c70:	02ff0000 	rscseq	r0, pc, #0, 0
    2c74:	01100000 	tsteq	r0, r0
    2c78:	d4030550 	strle	r0, [r3], #-1360	; 0xfffffab0
    2c7c:	10000099 	mulne	r0, r9, r0
    2c80:	03055101 	movweq	r5, #20737	; 0x5101
    2c84:	00009bc8 	andeq	r9, r0, r8, asr #23
    2c88:	05520110 	ldrbeq	r0, [r2, #-272]	; 0xfffffef0
    2c8c:	009db003 	addseq	fp, sp, r3
    2c90:	53011000 	movwpl	r1, #4096	; 0x1000
    2c94:	02104101 	andseq	r4, r0, #1073741824	; 0x40000000
    2c98:	0305007d 	movweq	r0, #20605	; 0x507d
    2c9c:	00009cdc 	ldrdeq	r9, [r0], -ip
    2ca0:	95cc1100 	strbls	r1, [ip, #256]	; 0x100
    2ca4:	08c80000 	stmiaeq	r8, {}^	; <UNPREDICTABLE>
    2ca8:	00000000 	andeq	r0, r0, r0
    2cac:	00087019 	andeq	r7, r8, r9, lsl r0
    2cb0:	00954800 	addseq	r4, r5, r0, lsl #16
    2cb4:	95480300 	strbls	r0, [r8, #-768]	; 0xfffffd00
    2cb8:	00040000 	andeq	r0, r4, r0
    2cbc:	68010000 	stmdavs	r1, {}	; <UNPREDICTABLE>
    2cc0:	00033e05 	andeq	r3, r3, r5, lsl #28
    2cc4:	088b1a00 	stmeq	fp, {r9, fp, ip}
    2cc8:	20120000 	andscs	r0, r2, r0
    2ccc:	20100000 	andscs	r0, r0, r0
    2cd0:	811a0000 	tsthi	sl, r0
    2cd4:	27000008 	strcs	r0, [r0, -r8]
    2cd8:	25000020 	strcs	r0, [r0, #-32]	; 0xffffffe0
    2cdc:	00000020 	andeq	r0, r0, r0, lsr #32
    2ce0:	0095600f 	addseq	r6, r5, pc
    2ce4:	00044100 	andeq	r4, r4, r0, lsl #2
    2ce8:	00035300 	andeq	r5, r3, r0, lsl #6
    2cec:	50011000 	andpl	r1, r1, r0
    2cf0:	5001f303 	andpl	pc, r1, r3, lsl #6
    2cf4:	95840f00 	strls	r0, [r4, #3840]	; 0xf00
    2cf8:	08bc0000 	ldmeq	ip!, {}	; <UNPREDICTABLE>
    2cfc:	038c0000 	orreq	r0, ip, #0, 0
    2d00:	01100000 	tsteq	r0, r0
    2d04:	d4030550 	strle	r0, [r3], #-1360	; 0xfffffab0
    2d08:	10000099 	mulne	r0, r9, r0
    2d0c:	03055101 	movweq	r5, #20737	; 0x5101
    2d10:	00009bc8 	andeq	r9, r0, r8, asr #23
    2d14:	05520110 	ldrbeq	r0, [r2, #-272]	; 0xfffffef0
    2d18:	009da003 	addseq	sl, sp, r3
    2d1c:	53011000 	movwpl	r1, #4096	; 0x1000
    2d20:	105f0802 	subsne	r0, pc, r2, lsl #16
    2d24:	05007d02 	streq	r7, [r0, #-3330]	; 0xfffff2fe
    2d28:	009bd803 	addseq	sp, fp, r3, lsl #16
    2d2c:	88110000 	ldmdahi	r1, {}	; <UNPREDICTABLE>
    2d30:	c8000095 	stmdagt	r0, {r0, r2, r4, r7}
    2d34:	11000008 	tstne	r0, r8
    2d38:	0000958c 	andeq	r9, r0, ip, lsl #11
    2d3c:	000008d4 	ldrdeq	r0, [r0], -r4
    2d40:	0095a80f 	addseq	sl, r5, pc, lsl #16
    2d44:	0008bc00 	andeq	fp, r8, r0, lsl #24
    2d48:	0003d700 	andeq	sp, r3, r0, lsl #14
    2d4c:	50011000 	andpl	r1, r1, r0
    2d50:	9c940305 	ldcls	3, cr0, [r4], {5}
    2d54:	01100000 	tsteq	r0, r0
    2d58:	c8030551 	stmdagt	r3, {r0, r4, r6, r8, sl}
    2d5c:	1000009b 	mulne	r0, fp, r0
    2d60:	03055201 	movweq	r5, #20993	; 0x5201
    2d64:	00009da0 	andeq	r9, r0, r0, lsr #27
    2d68:	02530110 	subseq	r0, r3, #4
    2d6c:	02106008 	andseq	r6, r0, #8, 0
    2d70:	0305007d 	movweq	r0, #20605	; 0x507d
    2d74:	00009cc8 	andeq	r9, r0, r8, asr #25
    2d78:	95ac1100 	strls	r1, [ip, #256]!	; 0x100
    2d7c:	08c80000 	stmiaeq	r8, {}^	; <UNPREDICTABLE>
    2d80:	d0110000 	andsle	r0, r1, r0
    2d84:	d4000095 	strle	r0, [r0], #-149	; 0xffffff6b
    2d88:	0f000008 	svceq	0x00000008
    2d8c:	000095ec 	andeq	r9, r0, ip, ror #11
    2d90:	000008bc 			; <UNDEFINED> instruction: 0x000008bc
    2d94:	00000422 	andeq	r0, r0, r2, lsr #8
    2d98:	05500110 	ldrbeq	r0, [r0, #-272]	; 0xfffffef0
    2d9c:	009ce803 	addseq	lr, ip, r3, lsl #16
    2da0:	51011000 	mrspl	r1, (UNDEF: 1)
    2da4:	9bc80305 	blls	ff2039c0 <__bss_end__+0xff1f97d0>
    2da8:	01100000 	tsteq	r0, r0
    2dac:	a0030552 	andge	r0, r3, r2, asr r5
    2db0:	1000009d 	mulne	r0, sp, r0
    2db4:	08025301 	stmdaeq	r2, {r0, r8, r9, ip, lr}
    2db8:	7d021068 	stcvc	0, cr1, [r2, #-416]	; 0xfffffe60
    2dbc:	14030500 	strne	r0, [r3], #-1280	; 0xfffffb00
    2dc0:	0000009d 	muleq	r0, sp, r0
    2dc4:	0095f011 	addseq	pc, r5, r1, lsl r0	; <UNPREDICTABLE>
    2dc8:	0008c800 	andeq	ip, r8, r0, lsl #16
    2dcc:	7e120000 	cdpvc	0, 1, cr0, cr2, cr0, {0}
    2dd0:	3c000000 	stccc	0, cr0, [r0], {-0}
    2dd4:	13000004 	movwne	r0, #4
    2dd8:	0000002c 	andeq	r0, r0, ip, lsr #32
    2ddc:	2c05000f 	stccs	0, cr0, [r5], {15}
    2de0:	16000004 	strne	r0, [r0], -r4
    2de4:	0000021a 	andeq	r0, r0, sl, lsl r2
    2de8:	8a075301 	bhi	1d79f4 <__bss_end__+0x1cd804>
    2dec:	a0000000 	andge	r0, r0, r0
    2df0:	64000094 	strvs	r0, [r0], #-148	; 0xffffff6c
    2df4:	01000000 	mrseq	r0, (UNDEF: 0)
    2df8:	0005089c 	muleq	r5, ip, r8
    2dfc:	08311700 	ldmdaeq	r1!, {r8, r9, sl, ip}
    2e00:	53010000 	movwpl	r0, #4096	; 0x1000
    2e04:	00002c18 	andeq	r2, r0, r8, lsl ip
    2e08:	00204200 	eoreq	r4, r0, r0, lsl #4
    2e0c:	00203a00 	eoreq	r3, r0, r0, lsl #20
    2e10:	00790e00 	rsbseq	r0, r9, r0, lsl #28
    2e14:	05180000 	ldreq	r0, [r8, #-0]
    2e18:	03050000 	movweq	r0, #20480	; 0x5000
    2e1c:	00009d98 	muleq	r0, r8, sp
    2e20:	0008391d 	andeq	r3, r8, sp, lsl r9
    2e24:	0b550100 	bleq	154322c <__bss_end__+0x153903c>
    2e28:	0000008a 	andeq	r0, r0, sl, lsl #1
    2e2c:	0000207a 	andeq	r2, r0, sl, ror r0
    2e30:	00002076 	andeq	r2, r0, r6, ror r0
    2e34:	0094b80f 	addseq	fp, r4, pc, lsl #16
    2e38:	00051d00 	andeq	r1, r5, r0, lsl #26
    2e3c:	0004a600 	andeq	sl, r4, r0, lsl #12
    2e40:	50011000 	andpl	r1, r1, r0
    2e44:	00007402 	andeq	r7, r0, r2, lsl #8
    2e48:	0094c80f 	addseq	ip, r4, pc, lsl #16
    2e4c:	0008e000 	andeq	lr, r8, r0
    2e50:	0004c500 	andeq	ip, r4, r0, lsl #10
    2e54:	50011000 	andpl	r1, r1, r0
    2e58:	10007502 	andne	r7, r0, r2, lsl #10
    2e5c:	30015101 	andcc	r5, r1, r1, lsl #2
    2e60:	02520110 	subseq	r0, r2, #4
    2e64:	0f000074 	svceq	0x00000074
    2e68:	000094f0 	strdeq	r9, [r0], -r0
    2e6c:	000008bc 			; <UNDEFINED> instruction: 0x000008bc
    2e70:	000004fe 	strdeq	r0, [r0], -lr
    2e74:	05500110 	ldrbeq	r0, [r0, #-272]	; 0xfffffef0
    2e78:	0099d403 	addseq	sp, r9, r3, lsl #8
    2e7c:	51011000 	mrspl	r1, (UNDEF: 1)
    2e80:	9bc80305 	blls	ff203a9c <__bss_end__+0xff1f98ac>
    2e84:	01100000 	tsteq	r0, r0
    2e88:	98030552 	stmdals	r3, {r1, r4, r6, r8, sl}
    2e8c:	1000009d 	mulne	r0, sp, r0
    2e90:	08025301 	stmdaeq	r2, {r0, r8, r9, ip, lr}
    2e94:	7d021054 	stcvc	0, cr1, [r2, #-336]	; 0xfffffeb0
    2e98:	d8030500 	stmdale	r3, {r8, sl}
    2e9c:	0000009b 	muleq	r0, fp, r0
    2ea0:	0094f411 	addseq	pc, r4, r1, lsl r4	; <UNPREDICTABLE>
    2ea4:	0008c800 	andeq	ip, r8, r0, lsl #16
    2ea8:	7e120000 	cdpvc	0, 1, cr0, cr2, cr0, {0}
    2eac:	18000000 	stmdane	r0, {}	; <UNPREDICTABLE>
    2eb0:	13000005 	movwne	r0, #5
    2eb4:	0000002c 	andeq	r0, r0, ip, lsr #32
    2eb8:	08050007 	stmdaeq	r5, {r0, r1, r2}
    2ebc:	16000005 	strne	r0, [r0], -r5
    2ec0:	000008a5 	andeq	r0, r0, r5, lsr #17
    2ec4:	8a074701 	bhi	1d4ad0 <__bss_end__+0x1ca8e0>
    2ec8:	08000000 	stmdaeq	r0, {}	; <UNPREDICTABLE>
    2ecc:	98000094 	stmdals	r0, {r2, r4, r7}
    2ed0:	01000000 	mrseq	r0, (UNDEF: 0)
    2ed4:	00062b9c 	muleq	r6, ip, fp
    2ed8:	08311700 	ldmdaeq	r1!, {r8, r9, sl, ip}
    2edc:	47010000 	strmi	r0, [r1, -r0]
    2ee0:	00002c20 	andeq	r2, r0, r0, lsr #24
    2ee4:	0020a800 	eoreq	sl, r0, r0, lsl #16
    2ee8:	00209800 	eoreq	r9, r0, r0, lsl #16
    2eec:	00790e00 	rsbseq	r0, r9, r0, lsl #28
    2ef0:	043c0000 	ldrteq	r0, [ip], #-0
    2ef4:	03050000 	movweq	r0, #20480	; 0x5000
    2ef8:	00009d88 	andeq	r9, r0, r8, lsl #27
    2efc:	0008391d 	andeq	r3, r8, sp, lsl r9
    2f00:	0b4b0100 	bleq	12c3308 <__bss_end__+0x12b9118>
    2f04:	0000008a 	andeq	r0, r0, sl, lsl #1
    2f08:	0000211a 	andeq	r2, r0, sl, lsl r1
    2f0c:	00002116 	andeq	r2, r0, r6, lsl r1
    2f10:	00081f1b 	andeq	r1, r8, fp, lsl pc
    2f14:	00941800 	addseq	r1, r4, r0, lsl #16
    2f18:	03500300 	cmpeq	r0, #0, 6
    2f1c:	49010000 	stmdbmi	r1, {}	; <UNPREDICTABLE>
    2f20:	0005a30e 	andeq	sl, r5, lr, lsl #6
    2f24:	083a1a00 	ldmdaeq	sl!, {r9, fp, ip}
    2f28:	213a0000 	teqcs	sl, r0
    2f2c:	21380000 	teqcs	r8, r0
    2f30:	301a0000 	andscc	r0, sl, r0
    2f34:	52000008 	andpl	r0, r0, #8, 0
    2f38:	4e000021 	cdpmi	0, 0, cr0, cr0, cr1, {1}
    2f3c:	1e000021 	cdpne	0, 0, cr0, cr0, cr1, {1}
    2f40:	00000350 	andeq	r0, r0, r0, asr r3
    2f44:	94600f00 	strbtls	r0, [r0], #-3840	; 0xfffff100
    2f48:	08bc0000 	ldmeq	ip!, {}	; <UNPREDICTABLE>
    2f4c:	05dc0000 	ldrbeq	r0, [ip]
    2f50:	01100000 	tsteq	r0, r0
    2f54:	d4030550 	strle	r0, [r3], #-1360	; 0xfffffab0
    2f58:	10000099 	mulne	r0, r9, r0
    2f5c:	03055101 	movweq	r5, #20737	; 0x5101
    2f60:	00009bc8 	andeq	r9, r0, r8, asr #23
    2f64:	05520110 	ldrbeq	r0, [r2, #-272]	; 0xfffffef0
    2f68:	009d8803 	addseq	r8, sp, r3, lsl #16
    2f6c:	53011000 	movwpl	r1, #4096	; 0x1000
    2f70:	10480802 	subne	r0, r8, r2, lsl #16
    2f74:	05007d02 	streq	r7, [r0, #-3330]	; 0xfffff2fe
    2f78:	009bd803 	addseq	sp, fp, r3, lsl #16
    2f7c:	64110000 	ldrvs	r0, [r1], #-0
    2f80:	c8000094 	stmdagt	r0, {r2, r4, r7}
    2f84:	0f000008 	svceq	0x00000008
    2f88:	00009484 	andeq	r9, r0, r4, lsl #9
    2f8c:	000008bc 			; <UNDEFINED> instruction: 0x000008bc
    2f90:	00000621 	andeq	r0, r0, r1, lsr #12
    2f94:	05500110 	ldrbeq	r0, [r0, #-272]	; 0xfffffef0
    2f98:	009c5403 	addseq	r5, ip, r3, lsl #8
    2f9c:	51011000 	mrspl	r1, (UNDEF: 1)
    2fa0:	9bc80305 	blls	ff203bbc <__bss_end__+0xff1f99cc>
    2fa4:	01100000 	tsteq	r0, r0
    2fa8:	88030552 	stmdahi	r3, {r1, r4, r6, r8, sl}
    2fac:	1000009d 	mulne	r0, sp, r0
    2fb0:	08025301 	stmdaeq	r2, {r0, r8, r9, ip, lr}
    2fb4:	7d02104e 	stcvc	0, cr1, [r2, #-312]	; 0xfffffec8
    2fb8:	01f30800 	mvnseq	r0, r0, lsl #16
    2fbc:	09072350 	stmdbeq	r7, {r4, r6, r8, r9, sp}
    2fc0:	11001af8 	strdne	r1, [r0, -r8]
    2fc4:	00009488 	andeq	r9, r0, r8, lsl #9
    2fc8:	000008c8 	andeq	r0, r0, r8, asr #17
    2fcc:	08c70c00 	stmiaeq	r7, {sl, fp}^
    2fd0:	3c010000 	stccc	0, cr0, [r1], {-0}
    2fd4:	0093b006 	addseq	fp, r3, r6
    2fd8:	00005800 	andeq	r5, r0, r0, lsl #16
    2fdc:	cf9c0100 	svcgt	0x009c0100
    2fe0:	0a000006 	beq	3000 <__code_start__-0x5000>
    2fe4:	00000864 	andeq	r0, r0, r4, ror #16
    2fe8:	25103d01 	ldrcs	r3, [r0, #-3329]	; 0xfffff2ff
    2fec:	05000000 	streq	r0, [r0, #-0]
    2ff0:	00a1e803 	adceq	lr, r1, r3, lsl #16
    2ff4:	00790e00 	rsbseq	r0, r9, r0, lsl #28
    2ff8:	06df0000 	ldrbeq	r0, [pc], r0
    2ffc:	03050000 	movweq	r0, #20480	; 0x5000
    3000:	00009d78 	andeq	r9, r0, r8, ror sp
    3004:	2c040707 	stccs	7, cr0, [r4], {7}
    3008:	01000000 	mrseq	r0, (UNDEF: 0)
    300c:	067a0a42 	ldrbteq	r0, [sl], -r2, asr #20
    3010:	8e080000 	cdphi	0, 0, cr0, cr8, cr0, {0}
    3014:	00000008 	andeq	r0, r0, r8
    3018:	00001000 	andeq	r1, r0, r0
    301c:	0093dc0f 	addseq	sp, r3, pc, lsl #24
    3020:	0006e400 	andeq	lr, r6, r0, lsl #8
    3024:	00069600 	andeq	r9, r6, r0, lsl #12
    3028:	50011000 	andpl	r1, r1, r0
    302c:	24404003 	strbcs	r4, [r0], #-3
    3030:	03510110 	cmpeq	r1, #4
    3034:	00244840 	eoreq	r4, r4, r0, asr #16
    3038:	0093f40f 	addseq	pc, r3, pc, lsl #8
    303c:	0008bc00 	andeq	fp, r8, r0, lsl #24
    3040:	0006c500 	andeq	ip, r6, r0, lsl #10
    3044:	50011000 	andpl	r1, r1, r0
    3048:	9c240305 	stcls	3, cr0, [r4], #-20	; 0xffffffec
    304c:	01100000 	tsteq	r0, r0
    3050:	c8030551 	stmdagt	r3, {r0, r4, r6, r8, sl}
    3054:	1000009b 	mulne	r0, fp, r0
    3058:	03055201 	movweq	r5, #20993	; 0x5201
    305c:	00009d78 	andeq	r9, r0, r8, ror sp
    3060:	02530110 	subseq	r0, r3, #4
    3064:	11004008 	tstne	r0, r8
    3068:	000093f8 	strdeq	r9, [r0], -r8
    306c:	000008c8 	andeq	r0, r0, r8, asr #17
    3070:	007e1200 	rsbseq	r1, lr, r0, lsl #4
    3074:	06df0000 	ldrbeq	r0, [pc], r0
    3078:	2c130000 	ldccs	0, cr0, [r3], {-0}
    307c:	0c000000 	stceq	0, cr0, [r0], {-0}
    3080:	06cf0500 	strbeq	r0, [pc], r0, lsl #10
    3084:	f00c0000 			; <UNDEFINED> instruction: 0xf00c0000
    3088:	01000008 	tsteq	r0, r8
    308c:	9314062d 	tstls	r4, #47185920	; 0x2d00000
    3090:	009c0000 	addseq	r0, ip, r0
    3094:	9c010000 	stcls	0, cr0, [r1], {-0}
    3098:	000007c8 	andeq	r0, r0, r8, asr #15
    309c:	00083817 	andeq	r3, r8, r7, lsl r8
    30a0:	262d0100 	strtcs	r0, [sp], -r0, lsl #2
    30a4:	0000002c 	andeq	r0, r0, ip, lsr #32
    30a8:	00002180 	andeq	r2, r0, r0, lsl #3
    30ac:	00002172 	andeq	r2, r0, r2, ror r1
    30b0:	00082d17 	andeq	r2, r8, r7, lsl sp
    30b4:	362d0100 	strtcc	r0, [sp], -r0, lsl #2
    30b8:	0000002c 	andeq	r0, r0, ip, lsr #32
    30bc:	000021e8 	andeq	r2, r0, r8, ror #3
    30c0:	000021e0 	andeq	r2, r0, r0, ror #3
    30c4:	0008391d 	andeq	r3, r8, sp, lsl r9
    30c8:	0b2e0100 	bleq	b834d0 <__bss_end__+0xb792e0>
    30cc:	000000c2 	andeq	r0, r0, r2, asr #1
    30d0:	00002230 	andeq	r2, r0, r0, lsr r2
    30d4:	00002222 	andeq	r2, r0, r2, lsr #4
    30d8:	0000790e 	andeq	r7, r0, lr, lsl #18
    30dc:	0007d800 	andeq	sp, r7, r0, lsl #16
    30e0:	60030500 	andvs	r0, r3, r0, lsl #10
    30e4:	0f00009d 	svceq	0x0000009d
    30e8:	0000936c 	andeq	r9, r0, ip, ror #6
    30ec:	000008bc 			; <UNDEFINED> instruction: 0x000008bc
    30f0:	0000077e 	andeq	r0, r0, lr, ror r7
    30f4:	05500110 	ldrbeq	r0, [r0, #-272]	; 0xfffffef0
    30f8:	0099d403 	addseq	sp, r9, r3, lsl #8
    30fc:	51011000 	mrspl	r1, (UNDEF: 1)
    3100:	9bc80305 	blls	ff203d1c <__bss_end__+0xff1f9b2c>
    3104:	01100000 	tsteq	r0, r0
    3108:	60030552 	andvs	r0, r3, r2, asr r5
    310c:	1000009d 	mulne	r0, sp, r0
    3110:	08025301 	stmdaeq	r2, {r0, r8, r9, ip, lr}
    3114:	7d021030 	stcvc	0, cr1, [r2, #-192]	; 0xffffff40
    3118:	d4030500 	strle	r0, [r3], #-1280	; 0xfffffb00
    311c:	0000009b 	muleq	r0, fp, r0
    3120:	00937011 	addseq	r7, r3, r1, lsl r0
    3124:	0008c800 	andeq	ip, r8, r0, lsl #16
    3128:	93940f00 	orrsls	r0, r4, #0, 30
    312c:	08bc0000 	ldmeq	ip!, {}	; <UNPREDICTABLE>
    3130:	07be0000 	ldreq	r0, [lr, r0]!
    3134:	01100000 	tsteq	r0, r0
    3138:	e0030550 	and	r0, r3, r0, asr r5
    313c:	1000009b 	mulne	r0, fp, r0
    3140:	03055101 	movweq	r5, #20737	; 0x5101
    3144:	00009bc8 	andeq	r9, r0, r8, asr #23
    3148:	05520110 	ldrbeq	r0, [r2, #-272]	; 0xfffffef0
    314c:	009d6003 	addseq	r6, sp, r3
    3150:	53011000 	movwpl	r1, #4096	; 0x1000
    3154:	10340802 	eorsne	r0, r4, r2, lsl #16
    3158:	03007d02 	movweq	r7, #3330	; 0xd02
    315c:	005001f3 	ldrsheq	r0, [r0], #-19	; 0xffffffed
    3160:	00939811 	addseq	r9, r3, r1, lsl r8
    3164:	0008c800 	andeq	ip, r8, r0, lsl #16
    3168:	7e120000 	cdpvc	0, 1, cr0, cr2, cr0, {0}
    316c:	d8000000 	stmdale	r0, {}	; <UNPREDICTABLE>
    3170:	13000007 	movwne	r0, #7
    3174:	0000002c 	andeq	r0, r0, ip, lsr #32
    3178:	c8050016 	stmdagt	r5, {r1, r2, r4}
    317c:	1f000007 	svcne	0x00000007
    3180:	000008df 	ldrdeq	r0, [r0], -pc	; <UNPREDICTABLE>
    3184:	8a072a01 	bhi	1cd990 <__bss_end__+0x1c37a0>
    3188:	04000000 	streq	r0, [r0], #-0
    318c:	10000093 	mulne	r0, r3, r0
    3190:	01000000 	mrseq	r0, (UNDEF: 0)
    3194:	081a1f9c 	ldmdaeq	sl, {r2, r3, r4, r7, r8, r9, sl, fp, ip}
    3198:	29010000 	stmdbcs	r1, {}	; <UNPREDICTABLE>
    319c:	00008a07 	andeq	r8, r0, r7, lsl #20
    31a0:	0092f400 	addseq	pc, r2, r0, lsl #8
    31a4:	00001000 	andeq	r1, r0, r0
    31a8:	1f9c0100 	svcne	0x009c0100
    31ac:	00000894 	muleq	r0, r4, r8
    31b0:	8a072801 	bhi	1cd1bc <__bss_end__+0x1c2fcc>
    31b4:	e4000000 	str	r0, [r0], #-0
    31b8:	10000092 	mulne	r0, r2, r0
    31bc:	01000000 	mrseq	r0, (UNDEF: 0)
    31c0:	0857209c 	ldmdaeq	r7, {r2, r3, r4, r7, sp}^
    31c4:	10010000 	andne	r0, r1, r0
    31c8:	00002c18 	andeq	r2, r0, r8, lsl ip
    31cc:	08540300 	ldmdaeq	r4, {r8, r9}^
    31d0:	78210000 	stmdavc	r1!, {}	; <UNPREDICTABLE>
    31d4:	29100100 	ldmdbcs	r0, {r8}
    31d8:	0000002c 	andeq	r0, r0, ip, lsr #32
    31dc:	01006e21 	tsteq	r0, r1, lsr #28
    31e0:	002c3510 	eoreq	r3, ip, r0, lsl r5
    31e4:	790e0000 	stmdbvc	lr, {}	; <UNPREDICTABLE>
    31e8:	18000000 	stmdane	r0, {}	; <UNPREDICTABLE>
    31ec:	05000005 	streq	r0, [r0, #-5]
    31f0:	009db003 	addseq	fp, sp, r3
    31f4:	b5200000 	strlt	r0, [r0, #-0]!
    31f8:	01000008 	tsteq	r0, r8
    31fc:	002c180d 	eoreq	r1, ip, sp, lsl #16
    3200:	70030000 	andvc	r0, r3, r0
    3204:	21000008 	tstcs	r0, r8
    3208:	0d010078 	stceq	0, cr0, [r1, #-480]	; 0xfffffe20
    320c:	00002c29 	andeq	r2, r0, r9, lsr #24
    3210:	d4200000 	strtle	r0, [r0], #-0
    3214:	01000008 	tsteq	r0, r8
    3218:	002c1807 	eoreq	r1, ip, r7, lsl #16
    321c:	96030000 	strls	r0, [r3], -r0
    3220:	21000008 	tstcs	r0, r8
    3224:	07010078 	smlsdxeq	r1, r8, r0, r0
    3228:	00002c2c 	andeq	r2, r0, ip, lsr #24
    322c:	006e2100 	rsbeq	r2, lr, r0, lsl #2
    3230:	2c380701 	ldccs	7, cr0, [r8], #-4
    3234:	00000000 	andeq	r0, r0, r0
    3238:	00088620 	andeq	r8, r8, r0, lsr #12
    323c:	18040100 	stmdane	r4, {r8}
    3240:	0000005d 	andeq	r0, r0, sp, asr r0
    3244:	0008bc03 	andeq	fp, r8, r3, lsl #24
    3248:	00782100 	rsbseq	r2, r8, r0, lsl #2
    324c:	5d290401 	cfstrspl	mvf0, [r9, #-4]!
    3250:	21000000 	mrscs	r0, (UNDEF: 0)
    3254:	04010079 	streq	r0, [r1], #-121	; 0xffffff87
    3258:	00005d35 	andeq	r5, r0, r5, lsr sp
    325c:	34220000 	strtcc	r0, [r2], #-0
    3260:	34000002 	strcc	r0, [r0], #-2
    3264:	02000002 	andeq	r0, r0, #2, 0
    3268:	16220628 	strtne	r0, [r2], -r8, lsr #12
    326c:	16000000 	strne	r0, [r0], -r0
    3270:	02000000 	andeq	r0, r0, #0, 0
    3274:	af22066e 	svcge	0x0022066e
    3278:	af000001 	svcge	0x00000001
    327c:	02000001 	andeq	r0, r0, #1, 0
    3280:	7522061d 	strvc	r0, [r2, #-1565]!	; 0xfffff9e3
    3284:	75000008 	strvc	r0, [r0, #-8]
    3288:	02000008 	andeq	r0, r0, #8, 0
    328c:	730007f2 	movwvc	r0, #2034	; 0x7f2
    3290:	04000006 	streq	r0, [r0], #-6
    3294:	0012da00 	andseq	sp, r2, r0, lsl #20
    3298:	4a010400 	bmi	442a0 <__bss_end__+0x3a0b0>
    329c:	0c000002 	stceq	0, cr0, [r0], {2}
    32a0:	0000094a 	andeq	r0, r0, sl, asr #18
    32a4:	00000321 	andeq	r0, r0, r1, lsr #6
    32a8:	00009694 	muleq	r0, r4, r6
    32ac:	00000198 	muleq	r0, r8, r1
    32b0:	00001b6a 	andeq	r1, r0, sl, ror #22
    32b4:	8d070802 	stchi	8, cr0, [r7, #-8]
    32b8:	02000000 	andeq	r0, r0, #0, 0
    32bc:	00970704 	addseq	r0, r7, r4, lsl #14
    32c0:	04030000 	streq	r0, [r3], #-0
    32c4:	746e6905 	strbtvc	r6, [lr], #-2309	; 0xfffff6fb
    32c8:	002c0400 	eoreq	r0, ip, r0, lsl #8
    32cc:	01020000 	mrseq	r0, (UNDEF: 2)
    32d0:	00000a06 	andeq	r0, r0, r6, lsl #20
    32d4:	05020200 	streq	r0, [r2, #-512]	; 0xfffffe00
    32d8:	000000e6 	andeq	r0, r0, r6, ror #1
    32dc:	d1050402 	tstle	r5, r2, lsl #8
    32e0:	02000000 	andeq	r0, r0, #0, 0
    32e4:	00cc0508 	sbceq	r0, ip, r8, lsl #10
    32e8:	01020000 	mrseq	r0, (UNDEF: 2)
    32ec:	00000808 	andeq	r0, r0, r8, lsl #16
    32f0:	07020200 	streq	r0, [r2, -r0, lsl #4]
    32f4:	00000059 	andeq	r0, r0, r9, asr r0
    32f8:	00040f05 	andeq	r0, r4, r5, lsl #30
    32fc:	19340300 	ldmdbne	r4!, {r8, r9}
    3300:	00000075 	andeq	r0, r0, r5, ror r0
    3304:	92070402 	andls	r0, r7, #33554432	; 0x2000000
    3308:	06000000 	streq	r0, [r0], -r0
    330c:	00000033 	andeq	r0, r0, r3, lsr r0
    3310:	0000008b 	andeq	r0, r0, fp, lsl #1
    3314:	00003307 	andeq	r3, r0, r7, lsl #6
    3318:	da080000 	ble	203320 <__bss_end__+0x1f9130>
    331c:	02000000 	andeq	r0, r0, #0, 0
    3320:	00970e1c 	addseq	r0, r7, ip, lsl lr
    3324:	04090000 	streq	r0, [r9], #-0
    3328:	0000007c 	andeq	r0, r0, ip, ror r0
    332c:	00003306 	andeq	r3, r0, r6, lsl #6
    3330:	0000ac00 	andeq	sl, r0, r0, lsl #24
    3334:	00ac0700 	adceq	r0, ip, r0, lsl #14
    3338:	09000000 	stmdbeq	r0, {}	; <UNPREDICTABLE>
    333c:	0000b904 	andeq	fp, r0, r4, lsl #18
    3340:	08010200 	stmdaeq	r1, {r9}
    3344:	00000011 	andeq	r0, r0, r1, lsl r0
    3348:	0000b204 	andeq	fp, r0, r4, lsl #4
    334c:	03850800 	orreq	r0, r5, #0, 16
    3350:	21020000 	mrscs	r0, (UNDEF: 2)
    3354:	0000ca0e 	andeq	ip, r0, lr, lsl #20
    3358:	9d040900 	vstrls.16	s0, [r4, #-0]	; <UNPREDICTABLE>
    335c:	0a000000 	beq	3364 <__code_start__-0x4c9c>
    3360:	005b0107 	subseq	r0, fp, r7, lsl #2
    3364:	0c040000 	stceq	0, cr0, [r4], {-0}
    3368:	00010f0e 	andeq	r0, r1, lr, lsl #30
    336c:	07f20b00 	ldrbeq	r0, [r2, r0, lsl #22]!
    3370:	0b000000 	bleq	3378 <__code_start__-0x4c88>
    3374:	00000634 	andeq	r0, r0, r4, lsr r6
    3378:	06770b01 	ldrbteq	r0, [r7], -r1, lsl #22
    337c:	0b040000 	bleq	103384 <__bss_end__+0xf9194>
    3380:	00000686 	andeq	r0, r0, r6, lsl #13
    3384:	06950b05 	ldreq	r0, [r5], r5, lsl #22
    3388:	0b060000 	bleq	183390 <__bss_end__+0x1791a0>
    338c:	000006a4 	andeq	r0, r0, r4, lsr #13
    3390:	07c50b07 	strbeq	r0, [r5, r7, lsl #22]
    3394:	0b030000 	bleq	c339c <__bss_end__+0xb91ac>
    3398:	000006b3 			; <UNDEFINED> instruction: 0x000006b3
    339c:	88050002 	stmdahi	r5, {r1}
    33a0:	04000009 	streq	r0, [r0], #-9
    33a4:	00d00315 	sbcseq	r0, r0, r5, lsl r3
    33a8:	210c0000 	mrscs	r0, (UNDEF: 12)
    33ac:	01000009 	tsteq	r0, r9
    33b0:	003a171d 	eorseq	r1, sl, sp, lsl r7
    33b4:	001c0000 	andseq	r0, ip, r0
    33b8:	170c2020 	strne	r2, [ip, -r0, lsr #32]
    33bc:	01000009 	tsteq	r0, r9
    33c0:	003a171e 	eorseq	r1, sl, lr, lsl r7
    33c4:	00280000 	eoreq	r0, r8, r0
    33c8:	940c2020 	strls	r2, [ip], #-32	; 0xffffffe0
    33cc:	01000009 	tsteq	r0, r9
    33d0:	003a171f 	eorseq	r1, sl, pc, lsl r7
    33d4:	00340000 	eorseq	r0, r4, r0
    33d8:	400d2020 	andmi	r2, sp, r0, lsr #32
    33dc:	01000009 	tsteq	r0, r9
    33e0:	00330551 	eorseq	r0, r3, r1, asr r5
    33e4:	98040000 	stmdals	r4, {}	; <UNPREDICTABLE>
    33e8:	00280000 	eoreq	r0, r8, r0
    33ec:	9c010000 	stcls	0, cr0, [r1], {-0}
    33f0:	000001ba 			; <UNDEFINED> instruction: 0x000001ba
    33f4:	6e69700e 	cdpvs	0, 6, cr7, cr9, cr14, {0}
    33f8:	18510100 	ldmdane	r1, {r8}^
    33fc:	0000002c 	andeq	r0, r0, ip, lsr #32
    3400:	00002296 	muleq	r0, r6, r2
    3404:	00002290 	muleq	r0, r0, r2
    3408:	00099e0f 	andeq	r9, r9, pc, lsl #28
    340c:	0e520100 	rdfeqs	f0, f2, f0
    3410:	0000002c 	andeq	r0, r0, ip, lsr #32
    3414:	000022cc 	andeq	r2, r0, ip, asr #5
    3418:	000022c2 	andeq	r2, r0, r2, asr #5
    341c:	66666f10 	uqadd16vs	r6, r6, r0
    3420:	0e530100 	rdfeqs	f0, f3, f0
    3424:	0000002c 	andeq	r0, r0, ip, lsr #32
    3428:	0000233a 	andeq	r2, r0, sl, lsr r3
    342c:	00002334 	andeq	r2, r0, r4, lsr r3
    3430:	00981811 	addseq	r1, r8, r1, lsl r8
    3434:	00065e00 	andeq	r5, r6, r0, lsl #28
    3438:	50011200 	andpl	r1, r1, r0, lsl #4
    343c:	3500740a 	strcc	r7, [r0, #-1034]	; 0xfffffbf6
    3440:	80b42325 	adcshi	r2, r4, r5, lsr #6
    3444:	00028180 	andeq	r8, r2, r0, lsl #3
    3448:	092b1300 	stmdbeq	fp!, {r8, r9, ip}
    344c:	4a010000 	bmi	43454 <__bss_end__+0x39264>
    3450:	0097d406 	addseq	sp, r7, r6, lsl #8
    3454:	00003000 	andeq	r3, r0, r0
    3458:	759c0100 	ldrvc	r0, [ip, #256]	; 0x100
    345c:	0e000002 	cdpeq	0, 0, cr0, cr0, cr2, {0}
    3460:	006e6970 	rsbeq	r6, lr, r0, ror r9
    3464:	2c1a4a01 			; <UNDEFINED> instruction: 0x2c1a4a01
    3468:	77000000 	strvc	r0, [r0, -r0]
    346c:	6b000023 	blvs	3500 <__code_start__-0x4b00>
    3470:	0e000023 	cdpeq	0, 0, cr0, cr0, cr3, {1}
    3474:	4a010076 	bmi	43654 <__bss_end__+0x39464>
    3478:	00002c28 	andeq	r2, r0, r8, lsr #24
    347c:	0023cb00 	eoreq	ip, r3, r0, lsl #22
    3480:	0023c700 	eoreq	ip, r3, r0, lsl #14
    3484:	038d1400 	orreq	r1, sp, #0, 8
    3488:	97e40000 	strbls	r0, [r4, r0]!
    348c:	20010000 	andcs	r0, r1, r0
    3490:	01000004 	tsteq	r0, r4
    3494:	0235094c 	eorseq	r0, r5, #76, 18	; 0x130000
    3498:	9a150000 	bls	5434a0 <__bss_end__+0x5392b0>
    349c:	f2000003 	vhadd.s8	d0, d0, d3
    34a0:	ec000023 	stc	0, cr0, [r0], {35}	; 0x23
    34a4:	16000023 	strne	r0, [r0], -r3, lsr #32
    34a8:	000097f0 	strdeq	r9, [r0], -r0
    34ac:	0000066a 	andeq	r0, r0, sl, ror #12
    34b0:	05500112 	ldrbeq	r0, [r0, #-274]	; 0xfffffeee
    34b4:	20001c0c 	andcs	r1, r0, ip, lsl #24
    34b8:	51011220 	tstpl	r1, r0, lsr #4
    34bc:	01f33105 	mvnseq	r3, r5, lsl #2
    34c0:	00002450 	andeq	r2, r0, r0, asr r4
    34c4:	00037317 	andeq	r7, r3, r7, lsl r3
    34c8:	0097f000 	addseq	pc, r7, r0
    34cc:	97f00200 	ldrbls	r0, [r0, r0, lsl #4]!
    34d0:	00140000 	andseq	r0, r4, r0
    34d4:	4e010000 	cdpmi	0, 0, cr0, cr1, cr0, {0}
    34d8:	03801509 	orreq	r1, r0, #37748736	; 0x2400000
    34dc:	24240000 	strtcs	r0, [r4], #-0
    34e0:	241e0000 	ldrcs	r0, [lr], #-0
    34e4:	fc160000 	ldc2	0, cr0, [r6], {-0}
    34e8:	6a000097 	bvs	374c <__code_start__-0x48b4>
    34ec:	12000006 	andne	r0, r0, #6, 0
    34f0:	0c055001 	stceq	0, cr5, [r5], {1}
    34f4:	20200028 	eorcs	r0, r0, r8, lsr #32
    34f8:	05510112 	ldrbeq	r0, [r1, #-274]	; 0xfffffeee
    34fc:	5001f331 	andpl	pc, r1, r1, lsr r3	; <UNPREDICTABLE>
    3500:	00000024 	andeq	r0, r0, r4, lsr #32
    3504:	00095713 	andeq	r5, r9, r3, lsl r7
    3508:	06450100 	strbeq	r0, [r5], -r0, lsl #2
    350c:	0000977c 	andeq	r9, r0, ip, ror r7
    3510:	00000058 	andeq	r0, r0, r8, asr r0
    3514:	03739c01 	cmneq	r3, #256	; 0x100
    3518:	700e0000 	andvc	r0, lr, r0
    351c:	01006e69 	tsteq	r0, r9, ror #28
    3520:	002c1e45 	eoreq	r1, ip, r5, asr #28
    3524:	24560000 	ldrbcs	r0, [r6], #-0
    3528:	24500000 	ldrbcs	r0, [r0], #-0
    352c:	a5180000 	ldrge	r0, [r8, #-0]
    3530:	7c000004 	stcvc	0, cr0, [r0], {4}
    3534:	02000097 	andeq	r0, r0, #151, 0	; 0x97
    3538:	000003e0 	andeq	r0, r0, r0, ror #7
    353c:	19054601 	stmdbne	r5, {r0, r9, sl, lr}
    3540:	000004be 			; <UNDEFINED> instruction: 0x000004be
    3544:	04b21500 	ldrteq	r1, [r2], #1280	; 0x500
    3548:	24880000 	strcs	r0, [r8], #0
    354c:	24820000 	strcs	r0, [r2], #0
    3550:	e01a0000 	ands	r0, sl, r0
    3554:	1b000003 	blne	3568 <__code_start__-0x4a98>
    3558:	000004ca 	andeq	r0, r0, sl, asr #9
    355c:	0004d61b 	andeq	sp, r4, fp, lsl r6
    3560:	04e01b00 	strbteq	r1, [r0], #2816	; 0xb00
    3564:	a5180000 	ldrge	r0, [r8, #-0]
    3568:	84000004 	strhi	r0, [r0], #-4
    356c:	00000097 	muleq	r0, r7, r0
    3570:	00000400 	andeq	r0, r0, r0, lsl #8
    3574:	19062801 	stmdbne	r6, {r0, fp, sp}
    3578:	000004be 			; <UNDEFINED> instruction: 0x000004be
    357c:	04b21500 	ldrteq	r1, [r2], #1280	; 0x500
    3580:	24ba0000 	ldrtcs	r0, [sl], #0
    3584:	24b40000 	ldrtcs	r0, [r4], #0
    3588:	001a0000 	andseq	r0, sl, r0
    358c:	1c000004 	stcne	0, cr0, [r0], {4}
    3590:	000004ca 	andeq	r0, r0, sl, asr #9
    3594:	000024ec 	andeq	r2, r0, ip, ror #9
    3598:	000024e6 	andeq	r2, r0, r6, ror #9
    359c:	0004d61c 	andeq	sp, r4, ip, lsl r6
    35a0:	00252e00 	eoreq	r2, r5, r0, lsl #28
    35a4:	00252800 	eoreq	r2, r5, r0, lsl #16
    35a8:	04e01c00 	strbteq	r1, [r0], #3072	; 0xc00
    35ac:	25840000 	strcs	r0, [r4]
    35b0:	257c0000 	ldrbcs	r0, [ip, #-0]!
    35b4:	ac1d0000 	ldcge	0, cr0, [sp], {-0}
    35b8:	5e000097 	mcrpl	0, 0, r0, cr0, cr7, {4}
    35bc:	3b000006 	blcc	35dc <__code_start__-0x4a24>
    35c0:	12000003 	andne	r0, r0, #3, 0
    35c4:	76025001 	strvc	r5, [r2], -r1
    35c8:	d0160000 	andsle	r0, r6, r0
    35cc:	6a000097 	bvs	3830 <__code_start__-0x47d0>
    35d0:	12000006 	andne	r0, r0, #6, 0
    35d4:	f3255001 	vhadd.u32	d5, d5, d1
    35d8:	2cf75001 	ldclcs	0, cr5, [r7], #4
    35dc:	25f425f7 	ldrbcs	r2, [r4, #1527]!	; 0x5f7
    35e0:	cccccd08 	stclgt	13, cr12, [ip], {8}
    35e4:	000000cc 	andeq	r0, r0, ip, asr #1
    35e8:	20081e00 	andcs	r1, r8, r0, lsl #28
    35ec:	f72525f7 			; <UNDEFINED> instruction: 0xf72525f7
    35f0:	3300f72c 	movwcc	pc, #1836	; 0x72c	; <UNPREDICTABLE>
    35f4:	80802325 	addhi	r2, r0, r5, lsr #6
    35f8:	243240a0 	ldrtcs	r4, [r2], #-160	; 0xffffff60
    35fc:	00000000 	andeq	r0, r0, r0
    3600:	661e0000 	ldrvs	r0, [lr], -r0
    3604:	01000009 	tsteq	r0, r9
    3608:	8d030d40 	stchi	13, cr0, [r3, #-256]	; 0xffffff00
    360c:	1f000003 	svcne	0x00000003
    3610:	006e6970 	rsbeq	r6, lr, r0, ror r9
    3614:	2c234001 	stccs	0, cr4, [r3], #-4
    3618:	00000000 	andeq	r0, r0, r0
    361c:	0009a31e 	andeq	sl, r9, lr, lsl r3
    3620:	0d3b0100 	ldfeqs	f0, [fp, #-0]
    3624:	0003a703 	andeq	sl, r3, r3, lsl #14
    3628:	69701f00 	ldmdbvs	r0!, {r8, r9, sl, fp, ip}^
    362c:	3b01006e 	blcc	437ec <__bss_end__+0x395fc>
    3630:	00002c22 	andeq	r2, r0, r2, lsr #24
    3634:	73130000 	tstvc	r3, #0, 0
    3638:	01000009 	tsteq	r0, r9
    363c:	96f40636 			; <UNDEFINED> instruction: 0x96f40636
    3640:	00580000 	subseq	r0, r8, r0
    3644:	9c010000 	stcls	0, cr0, [r1], {-0}
    3648:	000004a5 	andeq	r0, r0, r5, lsr #9
    364c:	6e69700e 	cdpvs	0, 6, cr7, cr9, cr14, {0}
    3650:	1f360100 	svcne	0x00360100
    3654:	0000002c 	andeq	r0, r0, ip, lsr #32
    3658:	000025e2 	andeq	r2, r0, r2, ror #11
    365c:	000025de 	ldrdeq	r2, [r0], -lr
    3660:	0004a518 	andeq	sl, r4, r8, lsl r5
    3664:	0096f400 	addseq	pc, r6, r0, lsl #8
    3668:	03a00200 	moveq	r0, #0, 4
    366c:	37010000 	strcc	r0, [r1, -r0]
    3670:	04be1905 	ldrteq	r1, [lr], #2309	; 0x905
    3674:	15010000 	strne	r0, [r1, #-0]
    3678:	000004b2 			; <UNDEFINED> instruction: 0x000004b2
    367c:	00002607 	andeq	r2, r0, r7, lsl #12
    3680:	00002603 	andeq	r2, r0, r3, lsl #12
    3684:	0003a01a 	andeq	sl, r3, sl, lsl r0
    3688:	04ca1b00 	strbeq	r1, [sl], #2816	; 0xb00
    368c:	d61b0000 	ldrle	r0, [fp], -r0
    3690:	1b000004 	blne	36a8 <__code_start__-0x4958>
    3694:	000004e0 	andeq	r0, r0, r0, ror #9
    3698:	0004a518 	andeq	sl, r4, r8, lsl r5
    369c:	0096fc00 	addseq	pc, r6, r0, lsl #24
    36a0:	03c00000 	biceq	r0, r0, #0, 0
    36a4:	28010000 	stmdacs	r1, {}	; <UNPREDICTABLE>
    36a8:	04be1906 	ldrteq	r1, [lr], #2310	; 0x906
    36ac:	15010000 	strne	r0, [r1, #-0]
    36b0:	000004b2 			; <UNDEFINED> instruction: 0x000004b2
    36b4:	0000262c 	andeq	r2, r0, ip, lsr #12
    36b8:	00002628 	andeq	r2, r0, r8, lsr #12
    36bc:	0003c01a 	andeq	ip, r3, sl, lsl r0
    36c0:	04ca1c00 	strbeq	r1, [sl], #3072	; 0xc00
    36c4:	26510000 	ldrbcs	r0, [r1], -r0
    36c8:	264d0000 	strbcs	r0, [sp], -r0
    36cc:	d61c0000 	ldrle	r0, [ip], -r0
    36d0:	9d000004 	stcls	0, cr0, [r0, #-16]
    36d4:	97000026 	strls	r0, [r0, -r6, lsr #32]
    36d8:	1c000026 	stcne	0, cr0, [r0], {38}	; 0x26
    36dc:	000004e0 	andeq	r0, r0, r0, ror #9
    36e0:	000026f3 	strdeq	r2, [r0], -r3
    36e4:	000026eb 	andeq	r2, r0, fp, ror #13
    36e8:	0097281d 	addseq	r2, r7, sp, lsl r8
    36ec:	00065e00 	andeq	r5, r6, r0, lsl #28
    36f0:	00046d00 	andeq	r6, r4, r0, lsl #26
    36f4:	50011200 	andpl	r1, r1, r0, lsl #4
    36f8:	00007502 	andeq	r7, r0, r2, lsl #10
    36fc:	00974816 	addseq	r4, r7, r6, lsl r8
    3700:	00066a00 	andeq	r6, r6, r0, lsl #20
    3704:	50011200 	andpl	r1, r1, r0, lsl #4
    3708:	5001f325 	andpl	pc, r1, r5, lsr #6
    370c:	25f72cf7 	ldrbcs	r2, [r7, #3319]!	; 0xcf7
    3710:	cd0825f4 	cfstr32gt	mvfx2, [r8, #-976]	; 0xfffffc30
    3714:	00cccccc 	sbceq	ip, ip, ip, asr #25
    3718:	1e000000 	cdpne	0, 0, cr0, cr0, cr0, {0}
    371c:	25f72008 	ldrbcs	r2, [r7, #8]!
    3720:	f72cf725 			; <UNDEFINED> instruction: 0xf72cf725
    3724:	23253300 			; <UNDEFINED> instruction: 0x23253300
    3728:	40a08080 	adcmi	r8, r0, r0, lsl #1
    372c:	00002432 	andeq	r2, r0, r2, lsr r4
    3730:	00000000 	andeq	r0, r0, r0
    3734:	0008021e 	andeq	r0, r8, lr, lsl r2
    3738:	06280100 	strteq	r0, [r8], -r0, lsl #2
    373c:	0004eb01 	andeq	lr, r4, r1, lsl #22
    3740:	69701f00 	ldmdbvs	r0!, {r8, r9, sl, fp, ip}^
    3744:	2801006e 	stmdacs	r1, {r1, r2, r3, r5, r6}
    3748:	00002c21 	andeq	r2, r0, r1, lsr #24
    374c:	09832000 	stmibeq	r3, {sp}
    3750:	28010000 	stmdacs	r1, {}	; <UNPREDICTABLE>
    3754:	00010f32 	andeq	r0, r1, r2, lsr pc
    3758:	666f2100 	strbtvs	r2, [pc], -r0, lsl #2
    375c:	2d010066 	stccs	0, cr0, [r1, #-408]	; 0xfffffe68
    3760:	00002c0e 	andeq	r2, r0, lr, lsl #24
    3764:	00672100 	rsbeq	r2, r7, r0, lsl #2
    3768:	2c0e2e01 	stccs	14, cr2, [lr], {1}
    376c:	21000000 	mrscs	r0, (UNDEF: 0)
    3770:	30010076 	andcc	r0, r1, r6, ror r0
    3774:	00002c0e 	andeq	r2, r0, lr, lsl #24
    3778:	36220000 	strtcc	r0, [r2], -r0
    377c:	02000009 	andeq	r0, r0, #9, 0
    3780:	006918b1 	strhteq	r1, [r9], #-129	; 0xffffff7f
    3784:	07030000 	streq	r0, [r3, -r0]
    3788:	1f000005 	svcne	0x00000005
    378c:	b1020078 	tstlt	r2, r8, ror r0
    3790:	0000692b 	andeq	r6, r0, fp, lsr #18
    3794:	a5230000 	strge	r0, [r3, #-0]!
    3798:	94000004 	strls	r0, [r0], #-4
    379c:	60000096 	mulvs	r0, r6, r0
    37a0:	01000000 	mrseq	r0, (UNDEF: 0)
    37a4:	0005e49c 	muleq	r5, ip, r4
    37a8:	04b21500 	ldrteq	r1, [r2], #1280	; 0x500
    37ac:	27320000 	ldrcs	r0, [r2, -r0]!
    37b0:	272e0000 	strcs	r0, [lr, -r0]!
    37b4:	be150000 	cdplt	0, 1, cr0, cr5, cr0, {0}
    37b8:	57000004 	strpl	r0, [r0, -r4]
    37bc:	53000027 	movwpl	r0, #39	; 0x27
    37c0:	1b000027 	blne	3864 <__code_start__-0x479c>
    37c4:	000004ca 	andeq	r0, r0, sl, asr #9
    37c8:	0004d61b 	andeq	sp, r4, fp, lsl r6
    37cc:	04e01b00 	strbteq	r1, [r0], #2816	; 0xb00
    37d0:	a5180000 	ldrge	r0, [r8, #-0]
    37d4:	9c000004 	stcls	0, cr0, [r0], {4}
    37d8:	00000096 	muleq	r0, r6, r0
    37dc:	00000380 	andeq	r0, r0, r0, lsl #7
    37e0:	15062801 	strne	r2, [r6, #-2049]	; 0xfffff7ff
    37e4:	000004be 			; <UNDEFINED> instruction: 0x000004be
    37e8:	0000277c 	andeq	r2, r0, ip, ror r7
    37ec:	00002778 	andeq	r2, r0, r8, ror r7
    37f0:	0004b215 	andeq	fp, r4, r5, lsl r2
    37f4:	0027a100 	eoreq	sl, r7, r0, lsl #2
    37f8:	00279d00 	eoreq	r9, r7, r0, lsl #26
    37fc:	03801a00 	orreq	r1, r0, #0, 20
    3800:	ca1c0000 	bgt	703808 <__bss_end__+0x6f9618>
    3804:	c6000004 	strgt	r0, [r0], -r4
    3808:	c2000027 	andgt	r0, r0, #39, 0	; 0x27
    380c:	1c000027 	stcne	0, cr0, [r0], {39}	; 0x27
    3810:	000004d6 	ldrdeq	r0, [r0], -r6
    3814:	00002812 	andeq	r2, r0, r2, lsl r8
    3818:	0000280c 	andeq	r2, r0, ip, lsl #16
    381c:	0004e01c 	andeq	lr, r4, ip, lsl r0
    3820:	00286800 	eoreq	r6, r8, r0, lsl #16
    3824:	00286000 	eoreq	r6, r8, r0
    3828:	96d41d00 	ldrbls	r1, [r4], r0, lsl #26
    382c:	065e0000 	ldrbeq	r0, [lr], -r0
    3830:	05ae0000 	streq	r0, [lr, #0]!
    3834:	01120000 	tsteq	r2, r0
    3838:	00760250 	rsbseq	r0, r6, r0, asr r2
    383c:	96f01600 	ldrbtls	r1, [r0], r0, lsl #12
    3840:	066a0000 	strbteq	r0, [sl], -r0
    3844:	01120000 	tsteq	r2, r0
    3848:	01f32550 	mvnseq	r2, r0, asr r5
    384c:	f72cf750 			; <UNDEFINED> instruction: 0xf72cf750
    3850:	0825f425 	stmdaeq	r5!, {r0, r2, r5, sl, ip, sp, lr, pc}
    3854:	cccccccd 	stclgt	12, cr12, [ip], {205}	; 0xcd
    3858:	00000000 	andeq	r0, r0, r0
    385c:	f720081e 			; <UNDEFINED> instruction: 0xf720081e
    3860:	2cf72525 	cfldr64cs	mvdx2, [r7], #148	; 0x94
    3864:	253300f7 	ldrcs	r0, [r3, #-247]!	; 0xffffff09
    3868:	a0808023 	addge	r8, r0, r3, lsr #32
    386c:	00243240 	eoreq	r3, r4, r0, asr #4
    3870:	23000000 	movwcs	r0, #0
    3874:	0000038d 	andeq	r0, r0, sp, lsl #7
    3878:	0000974c 	andeq	r9, r0, ip, asr #14
    387c:	00000018 	andeq	r0, r0, r8, lsl r0
    3880:	06219c01 	strteq	r9, [r1], -r1, lsl #24
    3884:	9a150000 	bls	54388c <__bss_end__+0x53969c>
    3888:	be000003 	cdplt	0, 0, cr0, cr0, cr3, {0}
    388c:	b8000028 	stmdalt	r0, {r3, r5}
    3890:	16000028 	strne	r0, [r0], -r8, lsr #32
    3894:	00009760 	andeq	r9, r0, r0, ror #14
    3898:	0000066a 	andeq	r0, r0, sl, ror #12
    389c:	05500112 	ldrbeq	r0, [r0, #-274]	; 0xfffffeee
    38a0:	20001c0c 	andcs	r1, r0, ip, lsl #24
    38a4:	51011220 	tstpl	r1, r0, lsr #4
    38a8:	01f33105 	mvnseq	r3, r5, lsl #2
    38ac:	00002450 	andeq	r2, r0, r0, asr r4
    38b0:	00037323 	andeq	r7, r3, r3, lsr #6
    38b4:	00976400 	addseq	r6, r7, r0, lsl #8
    38b8:	00001800 	andeq	r1, r0, r0, lsl #16
    38bc:	5e9c0100 	fmlple	f0, f4, f0
    38c0:	15000006 	strne	r0, [r0, #-6]
    38c4:	00000380 	andeq	r0, r0, r0, lsl #7
    38c8:	000028f0 	strdeq	r2, [r0], -r0
    38cc:	000028ea 	andeq	r2, r0, sl, ror #17
    38d0:	00977816 	addseq	r7, r7, r6, lsl r8
    38d4:	00066a00 	andeq	r6, r6, r0, lsl #20
    38d8:	50011200 	andpl	r1, r1, r0, lsl #4
    38dc:	00280c05 	eoreq	r0, r8, r5, lsl #24
    38e0:	01122020 	tsteq	r2, r0, lsr #32
    38e4:	f3310551 	vqrshl.u64	q0, <illegal reg q0.5>, <illegal reg q0.5>
    38e8:	00245001 	eoreq	r5, r4, r1
    38ec:	05e12400 	strbeq	r2, [r1, #1024]!	; 0x400
    38f0:	05e10000 	strbeq	r0, [r1, #0]!
    38f4:	c2020000 	andgt	r0, r2, #0, 0
    38f8:	054d240a 	strbeq	r2, [sp, #-1034]	; 0xfffffbf6
    38fc:	054d0000 	strbeq	r0, [sp, #-0]
    3900:	ad020000 	stcge	0, cr0, [r2, #-0]
    3904:	01400006 	cmpeq	r0, r6
    3908:	00040000 	andeq	r0, r4, r0
    390c:	00001508 	andeq	r1, r0, r8, lsl #10
    3910:	024a0104 	subeq	r0, sl, #1
    3914:	b60c0000 	strlt	r0, [ip], -r0
    3918:	21000009 	tstcs	r0, r9
    391c:	2c000003 	stccs	0, cr0, [r0], {3}
    3920:	78000098 	stmdavc	r0, {r3, r4, r7}
    3924:	f7000000 			; <UNDEFINED> instruction: 0xf7000000
    3928:	0200001d 	andeq	r0, r0, #29, 0
    392c:	6e690504 	cdpvs	5, 6, cr0, cr9, cr4, {0}
    3930:	af030074 	svcge	0x00030074
    3934:	03000009 	movweq	r0, #9
    3938:	003817d1 	ldrsbteq	r1, [r8], -r1
    393c:	04040000 	streq	r0, [r4], #-0
    3940:	00009707 	andeq	r9, r0, r7, lsl #14
    3944:	06010400 	streq	r0, [r1], -r0, lsl #8
    3948:	0000000a 	andeq	r0, r0, sl
    394c:	e6050204 	str	r0, [r5], -r4, lsl #4
    3950:	04000000 	streq	r0, [r0], #-0
    3954:	00d10504 	sbcseq	r0, r1, r4, lsl #10
    3958:	08040000 	stmdaeq	r4, {}	; <UNPREDICTABLE>
    395c:	0000cc05 	andeq	ip, r0, r5, lsl #24
    3960:	08010400 	stmdaeq	r1, {sl}
    3964:	00000008 	andeq	r0, r0, r8
    3968:	59070204 	stmdbpl	r7, {r2, r9}
    396c:	04000000 	streq	r0, [r0], #-0
    3970:	00920704 	addseq	r0, r2, r4, lsl #14
    3974:	08040000 	stmdaeq	r4, {}	; <UNPREDICTABLE>
    3978:	00008d07 	andeq	r8, r0, r7, lsl #26
    397c:	00250500 	eoreq	r0, r5, r0, lsl #10
    3980:	00860000 	addeq	r0, r6, r0
    3984:	25060000 	strcs	r0, [r6, #-0]
    3988:	00000000 	andeq	r0, r0, r0
    398c:	0000da07 	andeq	sp, r0, r7, lsl #20
    3990:	0e1c0200 	cdpeq	2, 1, cr0, cr12, cr0, {0}
    3994:	00000092 	muleq	r0, r2, r0
    3998:	00770408 	rsbseq	r0, r7, r8, lsl #8
    399c:	25050000 	strcs	r0, [r5, #-0]
    39a0:	a7000000 	strge	r0, [r0, -r0]
    39a4:	06000000 	streq	r0, [r0], -r0
    39a8:	000000a7 	andeq	r0, r0, r7, lsr #1
    39ac:	b4040800 	strlt	r0, [r4], #-2048	; 0xfffff800
    39b0:	04000000 	streq	r0, [r0], #-0
    39b4:	00110801 	andseq	r0, r1, r1, lsl #16
    39b8:	ad090000 	stcge	0, cr0, [r9, #-0]
    39bc:	07000000 	streq	r0, [r0, -r0]
    39c0:	00000385 	andeq	r0, r0, r5, lsl #7
    39c4:	c50e2102 	strgt	r2, [lr, #-258]	; 0xfffffefe
    39c8:	08000000 	stmdaeq	r0, {}	; <UNPREDICTABLE>
    39cc:	00009804 	andeq	r9, r0, r4, lsl #16
    39d0:	08750a00 	ldmdaeq	r5!, {r9, fp}^
    39d4:	04010000 	streq	r0, [r1], #-0
    39d8:	00013b07 	andeq	r3, r1, r7, lsl #22
    39dc:	00982c00 	addseq	r2, r8, r0, lsl #24
    39e0:	00007800 	andeq	r7, r0, r0, lsl #16
    39e4:	3b9c0100 	blcc	fe703dec <__bss_end__+0xfe6f9bfc>
    39e8:	0b000001 	bleq	39f4 <__code_start__-0x460c>
    39ec:	0100705f 	qaddeq	r7, pc, r0	; <UNPREDICTABLE>
    39f0:	013b1404 	teqeq	fp, r4, lsl #8
    39f4:	50010000 	andpl	r0, r1, r0
    39f8:	0100630c 	tsteq	r0, ip, lsl #6
    39fc:	00251c04 	eoreq	r1, r5, r4, lsl #24
    3a00:	29200000 	stmdbcs	r0!, {}	; <UNPREDICTABLE>
    3a04:	291c0000 	ldmdbcs	ip, {}	; <UNPREDICTABLE>
    3a08:	6e0c0000 	cdpvs	0, 0, cr0, cr12, cr0, {0}
    3a0c:	26040100 	strcs	r0, [r4], -r0, lsl #2
    3a10:	0000002c 	andeq	r0, r0, ip, lsr #32
    3a14:	00002945 	andeq	r2, r0, r5, asr #18
    3a18:	00002941 	andeq	r2, r0, r1, asr #18
    3a1c:	0100700d 	tsteq	r0, sp
    3a20:	013d0b05 	teqeq	sp, r5, lsl #22
    3a24:	29740000 	ldmdbcs	r4!, {}^	; <UNPREDICTABLE>
    3a28:	29660000 	stmdbcs	r6!, {}^	; <UNPREDICTABLE>
    3a2c:	650d0000 	strvs	r0, [sp, #-0]
    3a30:	14050100 	strne	r0, [r5], #-256	; 0xffffff00
    3a34:	0000013d 	andeq	r0, r0, sp, lsr r1
    3a38:	000029d1 	ldrdeq	r2, [r0], -r1
    3a3c:	000029cf 	andeq	r2, r0, pc, asr #19
    3a40:	08040e00 	stmdaeq	r4, {r9, sl, fp}
    3a44:	0000ad04 	andeq	sl, r0, r4, lsl #26
    3a48:	01370000 	teqeq	r7, r0
    3a4c:	00040000 	andeq	r0, r4, r0
    3a50:	000015d4 	ldrdeq	r1, [r0], -r4
    3a54:	024a0104 	subeq	r0, sl, #1
    3a58:	c60c0000 	strgt	r0, [ip], -r0
    3a5c:	21000009 	tstcs	r0, r9
    3a60:	a4000003 	strge	r0, [r0], #-3
    3a64:	2c000098 	stccs	0, cr0, [r0], {152}	; 0x98
    3a68:	1c000000 	stcne	0, cr0, [r0], {-0}
    3a6c:	0200001f 	andeq	r0, r0, #31, 0
    3a70:	6e690504 	cdpvs	5, 6, cr0, cr9, cr4, {0}
    3a74:	04030074 	streq	r0, [r3], #-116	; 0xffffff8c
    3a78:	00009707 	andeq	r9, r0, r7, lsl #14
    3a7c:	06010300 	streq	r0, [r1], -r0, lsl #6
    3a80:	0000000a 	andeq	r0, r0, sl
    3a84:	e6050203 	str	r0, [r5], -r3, lsl #4
    3a88:	03000000 	movweq	r0, #0
    3a8c:	00d10504 	sbcseq	r0, r1, r4, lsl #10
    3a90:	08030000 	stmdaeq	r3, {}	; <UNPREDICTABLE>
    3a94:	0000cc05 	andeq	ip, r0, r5, lsl #24
    3a98:	08010300 	stmdaeq	r1, {r8, r9}
    3a9c:	00000008 	andeq	r0, r0, r8
    3aa0:	59070203 	stmdbpl	r7, {r0, r1, r9}
    3aa4:	03000000 	movweq	r0, #0
    3aa8:	00920704 	addseq	r0, r2, r4, lsl #14
    3aac:	08030000 	stmdaeq	r3, {}	; <UNPREDICTABLE>
    3ab0:	00008d07 	andeq	r8, r0, r7, lsl #26
    3ab4:	00250400 	eoreq	r0, r5, r0, lsl #8
    3ab8:	007a0000 	rsbseq	r0, sl, r0
    3abc:	25050000 	strcs	r0, [r5, #-0]
    3ac0:	00000000 	andeq	r0, r0, r0
    3ac4:	0000da06 	andeq	sp, r0, r6, lsl #20
    3ac8:	0e1c0200 	cdpeq	2, 1, cr0, cr12, cr0, {0}
    3acc:	00000086 	andeq	r0, r0, r6, lsl #1
    3ad0:	006b0407 	rsbeq	r0, fp, r7, lsl #8
    3ad4:	25040000 	strcs	r0, [r4, #-0]
    3ad8:	9b000000 	blls	3ae0 <__code_start__-0x4520>
    3adc:	05000000 	streq	r0, [r0, #-0]
    3ae0:	0000009b 	muleq	r0, fp, r0
    3ae4:	a8040700 	stmdage	r4, {r8, r9, sl}
    3ae8:	03000000 	movweq	r0, #0
    3aec:	00110801 	andseq	r0, r1, r1, lsl #16
    3af0:	a1080000 	mrsge	r0, (UNDEF: 8)
    3af4:	06000000 	streq	r0, [r0], -r0
    3af8:	00000385 	andeq	r0, r0, r5, lsl #7
    3afc:	b90e2102 	stmdblt	lr, {r1, r8, sp}
    3b00:	07000000 	streq	r0, [r0, -r0]
    3b04:	00008c04 	andeq	r8, r0, r4, lsl #24
    3b08:	04310900 	ldrteq	r0, [r1], #-2304	; 0xfffff700
    3b0c:	04010000 	streq	r0, [r1], #-0
    3b10:	00013407 	andeq	r3, r1, r7, lsl #8
    3b14:	0098a400 	addseq	sl, r8, r0, lsl #8
    3b18:	00002c00 	andeq	r2, r0, r0, lsl #24
    3b1c:	349c0100 	ldrcc	r0, [ip], #256	; 0x100
    3b20:	0a000001 	beq	3b2c <__code_start__-0x44d4>
    3b24:	000009d6 	ldrdeq	r0, [r0], -r6
    3b28:	34150401 	ldrcc	r0, [r5], #-1025	; 0xfffffbff
    3b2c:	01000001 	tsteq	r0, r1
    3b30:	72730b50 	rsbsvc	r0, r3, #80, 22	; 0x14000
    3b34:	04010063 	streq	r0, [r1], #-99	; 0xffffff9d
    3b38:	00009b27 	andeq	r9, r0, r7, lsr #22
    3b3c:	0029e800 	eoreq	lr, r9, r0, lsl #16
    3b40:	0029e400 	eoreq	lr, r9, r0, lsl #8
    3b44:	31730c00 	cmncc	r3, r0, lsl #24
    3b48:	0b050100 	bleq	143f50 <__bss_end__+0x139d60>
    3b4c:	00000134 	andeq	r0, r0, r4, lsr r1
    3b50:	00002a17 	andeq	r2, r0, r7, lsl sl
    3b54:	00002a09 	andeq	r2, r0, r9, lsl #20
    3b58:	0032730c 	eorseq	r7, r2, ip, lsl #6
    3b5c:	9b110601 	blls	445368 <__bss_end__+0x43b178>
    3b60:	76000000 	strvc	r0, [r0], -r0
    3b64:	7000002a 	andvc	r0, r0, sl, lsr #32
    3b68:	0c00002a 	stceq	0, cr0, [r0], {42}	; 0x2a
    3b6c:	07010063 	streq	r0, [r1, -r3, rrx]
    3b70:	0000a10a 	andeq	sl, r0, sl, lsl #2
    3b74:	002aa700 	eoreq	sl, sl, r0, lsl #14
    3b78:	002aa100 	eoreq	sl, sl, r0, lsl #2
    3b7c:	04070000 	streq	r0, [r7], #-0
    3b80:	000000a1 	andeq	r0, r0, r1, lsr #1
    3b84:	0000f700 	andeq	pc, r0, r0, lsl #14
    3b88:	8a000400 	bhi	4b90 <__code_start__-0x3470>
    3b8c:	04000016 	streq	r0, [r0], #-22	; 0xffffffea
    3b90:	00024a01 	andeq	r4, r2, r1, lsl #20
    3b94:	09db0c00 	ldmibeq	fp, {sl, fp}^
    3b98:	03210000 			; <UNDEFINED> instruction: 0x03210000
    3b9c:	98d00000 	ldmls	r0, {}^	; <UNPREDICTABLE>
    3ba0:	00440000 	subeq	r0, r4, r0
    3ba4:	20020000 	andcs	r0, r2, r0
    3ba8:	04020000 	streq	r0, [r2], #-0
    3bac:	746e6905 	strbtvc	r6, [lr], #-2309	; 0xfffff6fb
    3bb0:	07040300 	streq	r0, [r4, -r0, lsl #6]
    3bb4:	00000097 	muleq	r0, r7, r0
    3bb8:	0a060103 	beq	183fcc <__bss_end__+0x179ddc>
    3bbc:	03000000 	movweq	r0, #0
    3bc0:	00e60502 	rsceq	r0, r6, r2, lsl #10
    3bc4:	04030000 	streq	r0, [r3], #-0
    3bc8:	0000d105 	andeq	sp, r0, r5, lsl #2
    3bcc:	05080300 	streq	r0, [r8, #-768]	; 0xfffffd00
    3bd0:	000000cc 	andeq	r0, r0, ip, asr #1
    3bd4:	08080103 	stmdaeq	r8, {r0, r1, r8}
    3bd8:	03000000 	movweq	r0, #0
    3bdc:	00590702 	subseq	r0, r9, r2, lsl #14
    3be0:	04030000 	streq	r0, [r3], #-0
    3be4:	00009207 	andeq	r9, r0, r7, lsl #4
    3be8:	07080300 	streq	r0, [r8, -r0, lsl #6]
    3bec:	0000008d 	andeq	r0, r0, sp, lsl #1
    3bf0:	00002504 	andeq	r2, r0, r4, lsl #10
    3bf4:	00007a00 	andeq	r7, r0, r0, lsl #20
    3bf8:	00250500 	eoreq	r0, r5, r0, lsl #10
    3bfc:	06000000 	streq	r0, [r0], -r0
    3c00:	000000da 	ldrdeq	r0, [r0], -sl
    3c04:	860e1c02 	strhi	r1, [lr], -r2, lsl #24
    3c08:	07000000 	streq	r0, [r0, -r0]
    3c0c:	00006b04 	andeq	r6, r0, r4, lsl #22
    3c10:	00250400 	eoreq	r0, r5, r0, lsl #8
    3c14:	009b0000 	addseq	r0, fp, r0
    3c18:	9b050000 	blls	143c20 <__bss_end__+0x139a30>
    3c1c:	00000000 	andeq	r0, r0, r0
    3c20:	00a80407 	adceq	r0, r8, r7, lsl #8
    3c24:	01030000 	mrseq	r0, (UNDEF: 3)
    3c28:	00001108 	andeq	r1, r0, r8, lsl #2
    3c2c:	00a10800 	adceq	r0, r1, r0, lsl #16
    3c30:	85060000 	strhi	r0, [r6, #-0]
    3c34:	02000003 	andeq	r0, r0, #3, 0
    3c38:	00b90e21 	adcseq	r0, r9, r1, lsr #28
    3c3c:	04070000 	streq	r0, [r7], #-0
    3c40:	0000008c 	andeq	r0, r0, ip, lsl #1
    3c44:	00045f09 	andeq	r5, r4, r9, lsl #30
    3c48:	05030100 	streq	r0, [r3, #-256]	; 0xffffff00
    3c4c:	00000025 	andeq	r0, r0, r5, lsr #32
    3c50:	000098d0 	ldrdeq	r9, [r0], -r0
    3c54:	00000044 	andeq	r0, r0, r4, asr #32
    3c58:	610a9c01 	tstvs	sl, r1, lsl #24
    3c5c:	18030100 	stmdane	r3, {r8}
    3c60:	0000009b 	muleq	r0, fp, r0
    3c64:	00002ade 	ldrdeq	r2, [r0], -lr
    3c68:	00002ad2 	ldrdeq	r2, [r0], -r2	; <UNPREDICTABLE>
    3c6c:	0100620a 	tsteq	r0, sl, lsl #4
    3c70:	009b2703 	addseq	r2, fp, r3, lsl #14
    3c74:	2b320000 	blcs	c83c7c <__bss_end__+0xc79a8c>
    3c78:	2b2c0000 	blcs	b03c80 <__bss_end__+0xaf9a90>
    3c7c:	00000000 	andeq	r0, r0, r0
    3c80:	0000010f 	andeq	r0, r0, pc, lsl #2
    3c84:	17190004 	ldrne	r0, [r9, -r4]
    3c88:	01040000 	mrseq	r0, (UNDEF: 4)
    3c8c:	0000024a 	andeq	r0, r0, sl, asr #4
    3c90:	0009eb0c 	andeq	lr, r9, ip, lsl #22
    3c94:	00032100 	andeq	r2, r3, r0, lsl #2
    3c98:	00991400 	addseq	r1, r9, r0, lsl #8
    3c9c:	00001800 	andeq	r1, r0, r0, lsl #16
    3ca0:	0020b800 	eoreq	fp, r0, r0, lsl #16
    3ca4:	05040200 	streq	r0, [r4, #-512]	; 0xfffffe00
    3ca8:	00746e69 	rsbseq	r6, r4, r9, ror #28
    3cac:	97070403 	strls	r0, [r7, -r3, lsl #8]
    3cb0:	03000000 	movweq	r0, #0
    3cb4:	000a0601 	andeq	r0, sl, r1, lsl #12
    3cb8:	02030000 	andeq	r0, r3, #0, 0
    3cbc:	0000e605 	andeq	lr, r0, r5, lsl #12
    3cc0:	05040300 	streq	r0, [r4, #-768]	; 0xfffffd00
    3cc4:	000000d1 	ldrdeq	r0, [r0], -r1
    3cc8:	cc050803 	stcgt	8, cr0, [r5], {3}
    3ccc:	03000000 	movweq	r0, #0
    3cd0:	00080801 	andeq	r0, r8, r1, lsl #16
    3cd4:	02030000 	andeq	r0, r3, #0, 0
    3cd8:	00005907 	andeq	r5, r0, r7, lsl #18
    3cdc:	07040300 	streq	r0, [r4, -r0, lsl #6]
    3ce0:	00000092 	muleq	r0, r2, r0
    3ce4:	8d070803 	stchi	8, cr0, [r7, #-12]
    3ce8:	04000000 	streq	r0, [r0], #-0
    3cec:	00000025 	andeq	r0, r0, r5, lsr #32
    3cf0:	0000007a 	andeq	r0, r0, sl, ror r0
    3cf4:	00002505 	andeq	r2, r0, r5, lsl #10
    3cf8:	da060000 	ble	183d00 <__bss_end__+0x179b10>
    3cfc:	02000000 	andeq	r0, r0, #0, 0
    3d00:	00860e1c 	addeq	r0, r6, ip, lsl lr
    3d04:	04070000 	streq	r0, [r7], #-0
    3d08:	0000006b 	andeq	r0, r0, fp, rrx
    3d0c:	00002504 	andeq	r2, r0, r4, lsl #10
    3d10:	00009b00 	andeq	r9, r0, r0, lsl #22
    3d14:	009b0500 	addseq	r0, fp, r0, lsl #10
    3d18:	07000000 	streq	r0, [r0, -r0]
    3d1c:	0000a804 	andeq	sl, r0, r4, lsl #16
    3d20:	08010300 	stmdaeq	r1, {r8, r9}
    3d24:	00000011 	andeq	r0, r0, r1, lsl r0
    3d28:	0000a108 	andeq	sl, r0, r8, lsl #2
    3d2c:	03850600 	orreq	r0, r5, #0, 12
    3d30:	21020000 	mrscs	r0, (UNDEF: 2)
    3d34:	0000b90e 	andeq	fp, r0, lr, lsl #18
    3d38:	8c040700 	stchi	7, cr0, [r4], {-0}
    3d3c:	09000000 	stmdbeq	r0, {}	; <UNPREDICTABLE>
    3d40:	00000438 	andeq	r0, r0, r8, lsr r4
    3d44:	0c070301 	stceq	3, cr0, [r7], {1}
    3d48:	14000001 	strne	r0, [r0], #-1
    3d4c:	18000099 	stmdane	r0, {r0, r3, r4, r7}
    3d50:	01000000 	mrseq	r0, (UNDEF: 0)
    3d54:	00010c9c 	muleq	r1, ip, ip
    3d58:	31730a00 	cmncc	r3, r0, lsl #20
    3d5c:	15030100 	strne	r0, [r3, #-256]	; 0xffffff00
    3d60:	0000010c 	andeq	r0, r0, ip, lsl #2
    3d64:	730b5001 	movwvc	r5, #45057	; 0xb001
    3d68:	03010032 	movweq	r0, #4146	; 0x1032
    3d6c:	00009b26 	andeq	r9, r0, r6, lsr #22
    3d70:	002b6100 	eoreq	r6, fp, r0, lsl #2
    3d74:	002b5b00 	eoreq	r5, fp, r0, lsl #22
    3d78:	00730c00 	rsbseq	r0, r3, r0, lsl #24
    3d7c:	0c140401 	cfldrseq	mvf0, [r4], {1}
    3d80:	8e000001 	cdphi	0, 0, cr0, cr0, cr1, {0}
    3d84:	8c00002b 	stchi	0, cr0, [r0], {43}	; 0x2b
    3d88:	0000002b 	andeq	r0, r0, fp, lsr #32
    3d8c:	00a10407 	adceq	r0, r1, r7, lsl #8
    3d90:	4e000000 	cdpmi	0, 0, cr0, cr0, cr0, {0}
    3d94:	04000001 	streq	r0, [r0], #-1
    3d98:	0017cf00 	andseq	ip, r7, r0, lsl #30
    3d9c:	4a010400 	bmi	44da4 <__bss_end__+0x3abb4>
    3da0:	0c000002 	stceq	0, cr0, [r0], {2}
    3da4:	000009fb 	strdeq	r0, [r0], -fp
    3da8:	00000321 	andeq	r0, r0, r1, lsr #6
    3dac:	0000992c 	andeq	r9, r0, ip, lsr #18
    3db0:	00000030 	andeq	r0, r0, r0, lsr r0
    3db4:	00002159 	andeq	r2, r0, r9, asr r1
    3db8:	69050402 	stmdbvs	r5, {r1, sl}
    3dbc:	0300746e 	movweq	r7, #1134	; 0x46e
    3dc0:	000009af 	andeq	r0, r0, pc, lsr #19
    3dc4:	3817d103 	ldmdacc	r7, {r0, r1, r8, ip, lr, pc}
    3dc8:	04000000 	streq	r0, [r0], #-0
    3dcc:	00970704 	addseq	r0, r7, r4, lsl #14
    3dd0:	01040000 	mrseq	r0, (UNDEF: 4)
    3dd4:	00000a06 	andeq	r0, r0, r6, lsl #20
    3dd8:	05020400 	streq	r0, [r2, #-1024]	; 0xfffffc00
    3ddc:	000000e6 	andeq	r0, r0, r6, ror #1
    3de0:	d1050404 	tstle	r5, r4, lsl #8
    3de4:	04000000 	streq	r0, [r0], #-0
    3de8:	00cc0508 	sbceq	r0, ip, r8, lsl #10
    3dec:	01040000 	mrseq	r0, (UNDEF: 4)
    3df0:	00000808 	andeq	r0, r0, r8, lsl #16
    3df4:	005b0500 	subseq	r0, fp, r0, lsl #10
    3df8:	02040000 	andeq	r0, r4, #0, 0
    3dfc:	00005907 	andeq	r5, r0, r7, lsl #18
    3e00:	07040400 	streq	r0, [r4, -r0, lsl #8]
    3e04:	00000092 	muleq	r0, r2, r0
    3e08:	8d070804 	stchi	8, cr0, [r7, #-16]
    3e0c:	06000000 	streq	r0, [r0], -r0
    3e10:	00000025 	andeq	r0, r0, r5, lsr #32
    3e14:	0000008b 	andeq	r0, r0, fp, lsl #1
    3e18:	00002507 	andeq	r2, r0, r7, lsl #10
    3e1c:	da080000 	ble	203e24 <__bss_end__+0x1f9c34>
    3e20:	02000000 	andeq	r0, r0, #0, 0
    3e24:	00970e1c 	addseq	r0, r7, ip, lsl lr
    3e28:	04090000 	streq	r0, [r9], #-0
    3e2c:	0000007c 	andeq	r0, r0, ip, ror r0
    3e30:	00002506 	andeq	r2, r0, r6, lsl #10
    3e34:	0000ac00 	andeq	sl, r0, r0, lsl #24
    3e38:	00ac0700 	adceq	r0, ip, r0, lsl #14
    3e3c:	09000000 	stmdbeq	r0, {}	; <UNPREDICTABLE>
    3e40:	0000b904 	andeq	fp, r0, r4, lsl #18
    3e44:	08010400 	stmdaeq	r1, {sl}
    3e48:	00000011 	andeq	r0, r0, r1, lsl r0
    3e4c:	0000b205 	andeq	fp, r0, r5, lsl #4
    3e50:	03850800 	orreq	r0, r5, #0, 16
    3e54:	21020000 	mrscs	r0, (UNDEF: 2)
    3e58:	0000ca0e 	andeq	ip, r0, lr, lsl #20
    3e5c:	9d040900 	vstrls.16	s0, [r4, #-0]	; <UNPREDICTABLE>
    3e60:	0a000000 	beq	3e68 <__code_start__-0x4198>
    3e64:	0000048f 	andeq	r0, r0, pc, lsl #9
    3e68:	25050401 	strcs	r0, [r5, #-1025]	; 0xfffffbff
    3e6c:	2c000000 	stccs	0, cr0, [r0], {-0}
    3e70:	30000099 	mulcc	r0, r9, r0
    3e74:	01000000 	mrseq	r0, (UNDEF: 0)
    3e78:	00014b9c 	muleq	r1, ip, fp
    3e7c:	735f0b00 	cmpvc	pc, #0, 22
    3e80:	04010031 	streq	r0, [r1], #-49	; 0xffffffcf
    3e84:	0000ac19 	andeq	sl, r0, r9, lsl ip
    3e88:	002ba500 	eoreq	sl, fp, r0, lsl #10
    3e8c:	002ba100 	eoreq	sl, fp, r0, lsl #2
    3e90:	735f0b00 	cmpvc	pc, #0, 22
    3e94:	04010032 	streq	r0, [r1], #-50	; 0xffffffce
    3e98:	0000ac2a 	andeq	sl, r0, sl, lsr #24
    3e9c:	002bca00 	eoreq	ip, fp, r0, lsl #20
    3ea0:	002bc600 	eoreq	ip, fp, r0, lsl #12
    3ea4:	006e0b00 	rsbeq	r0, lr, r0, lsl #22
    3ea8:	2c360401 	cfldrscs	mvf0, [r6], #-4
    3eac:	f5000000 			; <UNDEFINED> instruction: 0xf5000000
    3eb0:	eb00002b 	bl	3f64 <__code_start__-0x409c>
    3eb4:	0c00002b 	stceq	0, cr0, [r0], {43}	; 0x2b
    3eb8:	01003173 	tsteq	r0, r3, ror r1
    3ebc:	014b1a05 	cmpeq	fp, r5, lsl #20
    3ec0:	2c4c0000 	marcs	acc0, r0, ip
    3ec4:	2c440000 	marcs	acc0, r0, r4
    3ec8:	730c0000 	movwvc	r0, #49152	; 0xc000
    3ecc:	05010032 	streq	r0, [r1, #-50]	; 0xffffffce
    3ed0:	00014b2c 	andeq	r4, r1, ip, lsr #22
    3ed4:	002c8a00 	eoreq	r8, ip, r0, lsl #20
    3ed8:	002c8400 	eoreq	r8, ip, r0, lsl #8
    3edc:	04090000 	streq	r0, [r9], #-0
    3ee0:	00000062 	andeq	r0, r0, r2, rrx
    3ee4:	0000ce00 	andeq	ip, r0, r0, lsl #28
    3ee8:	83000400 	movwhi	r0, #1024	; 0x400
    3eec:	04000018 	streq	r0, [r0], #-24	; 0xffffffe8
    3ef0:	00024a01 	andeq	r4, r2, r1, lsl #20
    3ef4:	0a0c0c00 	beq	306efc <__bss_end__+0x2fcd0c>
    3ef8:	03210000 			; <UNDEFINED> instruction: 0x03210000
    3efc:	995c0000 	ldmdbls	ip, {}^	; <UNPREDICTABLE>
    3f00:	00040000 	andeq	r0, r4, r0
    3f04:	225a0000 	subscs	r0, sl, #0, 0
    3f08:	04020000 	streq	r0, [r2], #-0
    3f0c:	746e6905 	strbtvc	r6, [lr], #-2309	; 0xfffff6fb
    3f10:	07040300 	streq	r0, [r4, -r0, lsl #6]
    3f14:	00000097 	muleq	r0, r7, r0
    3f18:	0a060103 	beq	18432c <__bss_end__+0x17a13c>
    3f1c:	03000000 	movweq	r0, #0
    3f20:	00e60502 	rsceq	r0, r6, r2, lsl #10
    3f24:	04030000 	streq	r0, [r3], #-0
    3f28:	0000d105 	andeq	sp, r0, r5, lsl #2
    3f2c:	05080300 	streq	r0, [r8, #-768]	; 0xfffffd00
    3f30:	000000cc 	andeq	r0, r0, ip, asr #1
    3f34:	08080103 	stmdaeq	r8, {r0, r1, r8}
    3f38:	03000000 	movweq	r0, #0
    3f3c:	00590702 	subseq	r0, r9, r2, lsl #14
    3f40:	04030000 	streq	r0, [r3], #-0
    3f44:	00009207 	andeq	r9, r0, r7, lsl #4
    3f48:	07080300 	streq	r0, [r8, -r0, lsl #6]
    3f4c:	0000008d 	andeq	r0, r0, sp, lsl #1
    3f50:	00002504 	andeq	r2, r0, r4, lsl #10
    3f54:	00007a00 	andeq	r7, r0, r0, lsl #20
    3f58:	00250500 	eoreq	r0, r5, r0, lsl #10
    3f5c:	06000000 	streq	r0, [r0], -r0
    3f60:	000000da 	ldrdeq	r0, [r0], -sl
    3f64:	860e1c02 	strhi	r1, [lr], -r2, lsl #24
    3f68:	07000000 	streq	r0, [r0, -r0]
    3f6c:	00006b04 	andeq	r6, r0, r4, lsl #22
    3f70:	00250400 	eoreq	r0, r5, r0, lsl #8
    3f74:	009b0000 	addseq	r0, fp, r0
    3f78:	9b050000 	blls	143f80 <__bss_end__+0x139d90>
    3f7c:	00000000 	andeq	r0, r0, r0
    3f80:	00a80407 	adceq	r0, r8, r7, lsl #8
    3f84:	01030000 	mrseq	r0, (UNDEF: 3)
    3f88:	00001108 	andeq	r1, r0, r8, lsl #2
    3f8c:	00a10800 	adceq	r0, r1, r0, lsl #16
    3f90:	85060000 	strhi	r0, [r6, #-0]
    3f94:	02000003 	andeq	r0, r0, #3, 0
    3f98:	00b90e21 	adcseq	r0, r9, r1, lsr #28
    3f9c:	04070000 	streq	r0, [r7], #-0
    3fa0:	0000008c 	andeq	r0, r0, ip, lsl #1
    3fa4:	00053609 	andeq	r3, r5, r9, lsl #12
    3fa8:	06030100 	streq	r0, [r3], -r0, lsl #2
    3fac:	0000995c 	andeq	r9, r0, ip, asr r9
    3fb0:	00000004 	andeq	r0, r0, r4
    3fb4:	Address 0x0000000000003fb4 is out of bounds.


Disassembly of section .debug_abbrev:

00000000 <.debug_abbrev>:
       0:	25011101 	strcs	r1, [r1, #-257]	; 0xfffffeff
       4:	030b130e 	movweq	r1, #45838	; 0xb30e
       8:	110e1b0e 	tstne	lr, lr, lsl #22
       c:	10061201 	andne	r1, r6, r1, lsl #4
      10:	02000017 	andeq	r0, r0, #23, 0
      14:	0b0b0024 	bleq	2c00ac <__bss_end__+0x2b5ebc>
      18:	08030b3e 	stmdaeq	r3, {r1, r2, r3, r4, r5, r8, r9, fp}
      1c:	24030000 	strcs	r0, [r3], #-0
      20:	3e0b0b00 	vmlacc.f64	d0, d11, d0
      24:	000e030b 	andeq	r0, lr, fp, lsl #6
      28:	00160400 	andseq	r0, r6, r0, lsl #8
      2c:	0b3a0e03 	bleq	e83840 <__bss_end__+0xe79650>
      30:	0b390b3b 	bleq	e42d24 <__bss_end__+0xe38b34>
      34:	00001349 	andeq	r1, r0, r9, asr #6
      38:	27011505 	strcs	r1, [r1, -r5, lsl #10]
      3c:	01134919 	tsteq	r3, r9, lsl r9
      40:	06000013 			; <UNDEFINED> instruction: 0x06000013
      44:	13490005 	movtne	r0, #36869	; 0x9005
      48:	34070000 	strcc	r0, [r7], #-0
      4c:	3a0e0300 	bcc	380c54 <__bss_end__+0x376a64>
      50:	390b3b0b 	stmdbcc	fp, {r0, r1, r3, r8, r9, fp, ip, sp}
      54:	3f13490b 	svccc	0x0013490b
      58:	00193c19 	andseq	r3, r9, r9, lsl ip
      5c:	000f0800 	andeq	r0, pc, r0, lsl #16
      60:	13490b0b 	movtne	r0, #39691	; 0x9b0b
      64:	26090000 	strcs	r0, [r9], -r0
      68:	00134900 	andseq	r4, r3, r0, lsl #18
      6c:	012e0a00 			; <UNDEFINED> instruction: 0x012e0a00
      70:	0e03193f 			; <UNDEFINED> instruction: 0x0e03193f
      74:	0b3b0b3a 	bleq	ec2d64 <__bss_end__+0xeb8b74>
      78:	19270b39 	stmdbne	r7!, {r0, r3, r4, r5, r8, r9, fp}
      7c:	06120111 			; <UNDEFINED> instruction: 0x06120111
      80:	42971840 	addsmi	r1, r7, #64, 16	; 0x400000
      84:	00130119 	andseq	r0, r3, r9, lsl r1
      88:	00340b00 	eorseq	r0, r4, r0, lsl #22
      8c:	0b3a0803 	bleq	e820a0 <__bss_end__+0xe77eb0>
      90:	0b390b3b 	bleq	e42d84 <__bss_end__+0xe38b94>
      94:	0b1c1349 	bleq	704dc0 <__bss_end__+0x6fabd0>
      98:	340c0000 	strcc	r0, [ip], #-0
      9c:	3a080300 	bcc	200ca4 <__bss_end__+0x1f6ab4>
      a0:	390b3b0b 	stmdbcc	fp, {r0, r1, r3, r8, r9, fp, ip, sp}
      a4:	0213490b 	andseq	r4, r3, #180224	; 0x2c000
      a8:	1742b717 	smlaldne	fp, r2, r7, r7
      ac:	340d0000 	strcc	r0, [sp], #-0
      b0:	3a0e0300 	bcc	380cb8 <__bss_end__+0x376ac8>
      b4:	390b3b0b 	stmdbcc	fp, {r0, r1, r3, r8, r9, fp, ip, sp}
      b8:	1c13490b 			; <UNDEFINED> instruction: 0x1c13490b
      bc:	0e00000b 	cdpeq	0, 0, cr0, cr0, cr11, {0}
      c0:	0e030034 	mcreq	0, 0, r0, cr3, cr4, {1}
      c4:	19341349 	ldmdbne	r4!, {r0, r3, r6, r8, r9, ip}
      c8:	00001802 	andeq	r1, r0, r2, lsl #16
      cc:	11010b0f 	tstne	r1, pc, lsl #22
      d0:	01061201 	tsteq	r6, r1, lsl #4
      d4:	10000013 	andne	r0, r0, r3, lsl r0
      d8:	1755010b 	ldrbne	r0, [r5, -fp, lsl #2]
      dc:	89110000 	ldmdbhi	r1, {}	; <UNPREDICTABLE>
      e0:	11010182 	smlabbne	r1, r2, r1, r0
      e4:	01133101 	tsteq	r3, r1, lsl #2
      e8:	12000013 	andne	r0, r0, #19, 0
      ec:	0001828a 	andeq	r8, r1, sl, lsl #5
      f0:	42911802 	addsmi	r1, r1, #131072	; 0x20000
      f4:	13000018 	movwne	r0, #24
      f8:	00018289 	andeq	r8, r1, r9, lsl #5
      fc:	13310111 	teqne	r1, #1073741828	; 0x40000004
     100:	89140000 	ldmdbhi	r4, {}	; <UNPREDICTABLE>
     104:	11010182 	smlabbne	r1, r2, r1, r0
     108:	00133101 	andseq	r3, r3, r1, lsl #2
     10c:	000f1500 	andeq	r1, pc, r0, lsl #10
     110:	00000b0b 	andeq	r0, r0, fp, lsl #22
     114:	49010116 	stmdbmi	r1, {r1, r2, r4, r8}
     118:	00130113 	andseq	r0, r3, r3, lsl r1
     11c:	00211700 	eoreq	r1, r1, r0, lsl #14
     120:	0b2f1349 	bleq	bc4e4c <__bss_end__+0xbbac5c>
     124:	2e180000 	cdpcs	0, 1, cr0, cr8, cr0, {0}
     128:	3a0e0301 	bcc	380d34 <__bss_end__+0x376b44>
     12c:	390b3b0b 	stmdbcc	fp, {r0, r1, r3, r8, r9, fp, ip, sp}
     130:	4919270b 	ldmdbmi	r9, {r0, r1, r3, r8, r9, sl, sp}
     134:	12011113 	andne	r1, r1, #-1073741820	; 0xc0000004
     138:	97184006 	ldrls	r4, [r8, -r6]
     13c:	13011942 	movwne	r1, #6466	; 0x1942
     140:	05190000 	ldreq	r0, [r9, #-0]
     144:	3a080300 	bcc	200d4c <__bss_end__+0x1f6b5c>
     148:	390b3b0b 	stmdbcc	fp, {r0, r1, r3, r8, r9, fp, ip, sp}
     14c:	0213490b 	andseq	r4, r3, #180224	; 0x2c000
     150:	1742b717 	smlaldne	fp, r2, r7, r7
     154:	341a0000 	ldrcc	r0, [sl], #-0
     158:	3a0e0300 	bcc	380d60 <__bss_end__+0x376b70>
     15c:	390b3b0b 	stmdbcc	fp, {r0, r1, r3, r8, r9, fp, ip, sp}
     160:	0213490b 	andseq	r4, r3, #180224	; 0x2c000
     164:	1742b717 	smlaldne	fp, r2, r7, r7
     168:	2e1b0000 	cdpcs	0, 1, cr0, cr11, cr0, {0}
     16c:	3c193f00 	ldccc	15, cr3, [r9], {-0}
     170:	030e6e19 	movweq	r6, #60953	; 0xee19
     174:	3b0b3a0e 	blcc	2ce9b4 <__bss_end__+0x2c47c4>
     178:	000b390b 	andeq	r3, fp, fp, lsl #18
     17c:	11010000 	mrsne	r0, (UNDEF: 1)
     180:	130e2501 	movwne	r2, #58625	; 0xe501
     184:	1b0e030b 	blne	380db8 <__bss_end__+0x376bc8>
     188:	1201110e 	andne	r1, r1, #-2147483645	; 0x80000003
     18c:	00171006 	andseq	r1, r7, r6
     190:	00240200 	eoreq	r0, r4, r0, lsl #4
     194:	0b3e0b0b 	bleq	f82dc8 <__bss_end__+0xf78bd8>
     198:	00000803 	andeq	r0, r0, r3, lsl #16
     19c:	0b002403 	bleq	91b0 <uart_init+0x7c>
     1a0:	030b3e0b 	movweq	r3, #48651	; 0xbe0b
     1a4:	0400000e 	streq	r0, [r0], #-14
     1a8:	19270115 	stmdbne	r7!, {r0, r2, r4, r8}
     1ac:	13011349 	movwne	r1, #4937	; 0x1349
     1b0:	05050000 	streq	r0, [r5, #-0]
     1b4:	00134900 	andseq	r4, r3, r0, lsl #18
     1b8:	00340600 	eorseq	r0, r4, r0, lsl #12
     1bc:	0b3a0e03 	bleq	e839d0 <__bss_end__+0xe797e0>
     1c0:	0b390b3b 	bleq	e42eb4 <__bss_end__+0xe38cc4>
     1c4:	193f1349 	ldmdbne	pc!, {r0, r3, r6, r8, r9, ip}	; <UNPREDICTABLE>
     1c8:	0000193c 	andeq	r1, r0, ip, lsr r9
     1cc:	0b000f07 	bleq	3df0 <__code_start__-0x4210>
     1d0:	0013490b 	andseq	r4, r3, fp, lsl #18
     1d4:	00260800 	eoreq	r0, r6, r0, lsl #16
     1d8:	00001349 	andeq	r1, r0, r9, asr #6
     1dc:	03011709 	movweq	r1, #5897	; 0x1709
     1e0:	3a0b0b0e 	bcc	2c2e20 <__bss_end__+0x2b8c30>
     1e4:	390b3b0b 	stmdbcc	fp, {r0, r1, r3, r8, r9, fp, ip, sp}
     1e8:	0013010b 	andseq	r0, r3, fp, lsl #2
     1ec:	000d0a00 	andeq	r0, sp, r0, lsl #20
     1f0:	0b3a0803 	bleq	e82204 <__bss_end__+0xe78014>
     1f4:	0b390b3b 	bleq	e42ee8 <__bss_end__+0xe38cf8>
     1f8:	00001349 	andeq	r1, r0, r9, asr #6
     1fc:	0b000f0b 	bleq	3e30 <__code_start__-0x41d0>
     200:	0c00000b 	stceq	0, cr0, [r0], {11}
     204:	19270015 	stmdbne	r7!, {r0, r2, r4}
     208:	130d0000 	movwne	r0, #53248	; 0xd000
     20c:	3a0b0b01 	bcc	2c2e18 <__bss_end__+0x2b8c28>
     210:	390b3b0b 	stmdbcc	fp, {r0, r1, r3, r8, r9, fp, ip, sp}
     214:	0013010b 	andseq	r0, r3, fp, lsl #2
     218:	000d0e00 	andeq	r0, sp, r0, lsl #28
     21c:	0b3a0803 	bleq	e82230 <__bss_end__+0xe78040>
     220:	0b390b3b 	bleq	e42f14 <__bss_end__+0xe38d24>
     224:	0b381349 	bleq	e04f50 <__bss_end__+0xdfad60>
     228:	0d0f0000 	stceq	0, cr0, [pc, #-0]	; 230 <__code_start__-0x7dd0>
     22c:	3a0e0300 	bcc	380e34 <__bss_end__+0x376c44>
     230:	390b3b0b 	stmdbcc	fp, {r0, r1, r3, r8, r9, fp, ip, sp}
     234:	3813490b 	ldmdacc	r3, {r0, r1, r3, r8, fp, lr}
     238:	1000000b 	andne	r0, r0, fp
     23c:	0e030016 	mcreq	0, 0, r0, cr3, cr6, {0}
     240:	0b3b0b3a 	bleq	ec2f30 <__bss_end__+0xeb8d40>
     244:	13490b39 	movtne	r0, #39737	; 0x9b39
     248:	34110000 	ldrcc	r0, [r1], #-0
     24c:	3a0e0300 	bcc	380e54 <__bss_end__+0x376c64>
     250:	390b3b0b 	stmdbcc	fp, {r0, r1, r3, r8, r9, fp, ip, sp}
     254:	0213490b 	andseq	r4, r3, #180224	; 0x2c000
     258:	12000018 	andne	r0, r0, #24, 0
     25c:	193f012e 	ldmdbne	pc!, {r1, r2, r3, r5, r8}	; <UNPREDICTABLE>
     260:	0b3a0e03 	bleq	e83a74 <__bss_end__+0xe79884>
     264:	0b390b3b 	bleq	e42f58 <__bss_end__+0xe38d68>
     268:	01111927 	tsteq	r1, r7, lsr #18
     26c:	18400612 	stmdane	r0, {r1, r4, r9, sl}^
     270:	01194297 			; <UNDEFINED> instruction: 0x01194297
     274:	13000013 	movwne	r0, #19
     278:	08030005 	stmdaeq	r3, {r0, r2}
     27c:	0b3b0b3a 	bleq	ec2f6c <__bss_end__+0xeb8d7c>
     280:	13490b39 	movtne	r0, #39737	; 0x9b39
     284:	00001802 	andeq	r1, r0, r2, lsl #16
     288:	03003414 	movweq	r3, #1044	; 0x414
     28c:	3b0b3a08 	blcc	2ceab4 <__bss_end__+0x2c48c4>
     290:	490b390b 	stmdbmi	fp, {r0, r1, r3, r8, fp, ip, sp}
     294:	b7170213 			; <UNDEFINED> instruction: 0xb7170213
     298:	00001742 	andeq	r1, r0, r2, asr #14
     29c:	3f012e15 	svccc	0x00012e15
     2a0:	3a0e0319 	bcc	380f0c <__bss_end__+0x376d1c>
     2a4:	390b3b0b 	stmdbcc	fp, {r0, r1, r3, r8, r9, fp, ip, sp}
     2a8:	4919270b 	ldmdbmi	r9, {r0, r1, r3, r8, r9, sl, sp}
     2ac:	12011113 	andne	r1, r1, #-1073741820	; 0xc0000004
     2b0:	97184006 	ldrls	r4, [r8, -r6]
     2b4:	13011942 	movwne	r1, #6466	; 0x1942
     2b8:	05160000 	ldreq	r0, [r6, #-0]
     2bc:	3a0e0300 	bcc	380ec4 <__bss_end__+0x376cd4>
     2c0:	390b3b0b 	stmdbcc	fp, {r0, r1, r3, r8, r9, fp, ip, sp}
     2c4:	0213490b 	andseq	r4, r3, #180224	; 0x2c000
     2c8:	1742b717 	smlaldne	fp, r2, r7, r7
     2cc:	34170000 	ldrcc	r0, [r7], #-0
     2d0:	3a0e0300 	bcc	380ed8 <__bss_end__+0x376ce8>
     2d4:	390b3b0b 	stmdbcc	fp, {r0, r1, r3, r8, r9, fp, ip, sp}
     2d8:	0213490b 	andseq	r4, r3, #180224	; 0x2c000
     2dc:	1742b717 	smlaldne	fp, r2, r7, r7
     2e0:	89180000 	ldmdbhi	r8, {}	; <UNPREDICTABLE>
     2e4:	11010182 	smlabbne	r1, r2, r1, r0
     2e8:	00133101 	andseq	r3, r3, r1, lsl #2
     2ec:	828a1900 	addhi	r1, sl, #0, 18
     2f0:	18020001 	stmdane	r2, {r0}
     2f4:	00184291 	mulseq	r8, r1, r2
     2f8:	012e1a00 			; <UNDEFINED> instruction: 0x012e1a00
     2fc:	0b3a0e03 	bleq	e83b10 <__bss_end__+0xe79920>
     300:	0b390b3b 	bleq	e42ff4 <__bss_end__+0xe38e04>
     304:	13491927 	movtne	r1, #39207	; 0x9927
     308:	06120111 			; <UNDEFINED> instruction: 0x06120111
     30c:	42971840 	addsmi	r1, r7, #64, 16	; 0x400000
     310:	00130119 	andseq	r0, r3, r9, lsl r1
     314:	00051b00 	andeq	r1, r5, r0, lsl #22
     318:	0b3a0803 	bleq	e8232c <__bss_end__+0xe7813c>
     31c:	0b390b3b 	bleq	e43010 <__bss_end__+0xe38e20>
     320:	17021349 	strne	r1, [r2, -r9, asr #6]
     324:	001742b7 			; <UNDEFINED> instruction: 0x001742b7
     328:	82891c00 	addhi	r1, r9, #0, 24
     32c:	01110101 	tsteq	r1, r1, lsl #2
     330:	13011331 	movwne	r1, #4913	; 0x1331
     334:	891d0000 	ldmdbhi	sp, {}	; <UNPREDICTABLE>
     338:	11000182 	smlabbne	r0, r2, r1, r0
     33c:	00133101 	andseq	r3, r3, r1, lsl #2
     340:	002e1e00 	eoreq	r1, lr, r0, lsl #28
     344:	193c193f 	ldmdbne	ip!, {r0, r1, r2, r3, r4, r5, r8, fp, ip}
     348:	0e030e6e 	cdpeq	14, 0, cr0, cr3, cr14, {3}
     34c:	0b3b0b3a 	bleq	ec303c <__bss_end__+0xeb8e4c>
     350:	00000b39 	andeq	r0, r0, r9, lsr fp
     354:	01110100 	tsteq	r1, r0, lsl #2
     358:	0b130e25 	bleq	4c3bf4 <__bss_end__+0x4b9a04>
     35c:	0e1b0e03 	cdpeq	14, 1, cr0, cr11, cr3, {0}
     360:	06120111 			; <UNDEFINED> instruction: 0x06120111
     364:	00001710 	andeq	r1, r0, r0, lsl r7
     368:	0b002402 	bleq	9378 <kmalloc_init_set_start+0x64>
     36c:	030b3e0b 	movweq	r3, #48651	; 0xbe0b
     370:	03000008 	movweq	r0, #8
     374:	0b0b0024 	bleq	2c040c <__bss_end__+0x2b621c>
     378:	0e030b3e 	vmoveq.16	d3[0], r0
     37c:	15040000 	strne	r0, [r4, #-0]
     380:	49192701 	ldmdbmi	r9, {r0, r8, r9, sl, sp}
     384:	00130113 	andseq	r0, r3, r3, lsl r1
     388:	00050500 	andeq	r0, r5, r0, lsl #10
     38c:	00001349 	andeq	r1, r0, r9, asr #6
     390:	03003406 	movweq	r3, #1030	; 0x406
     394:	3b0b3a0e 	blcc	2cebd4 <__bss_end__+0x2c49e4>
     398:	490b390b 	stmdbmi	fp, {r0, r1, r3, r8, fp, ip, sp}
     39c:	3c193f13 	ldccc	15, cr3, [r9], {19}
     3a0:	07000019 	smladeq	r0, r9, r0, r0
     3a4:	0b0b000f 	bleq	2c03e8 <__bss_end__+0x2b61f8>
     3a8:	00001349 	andeq	r1, r0, r9, asr #6
     3ac:	49002608 	stmdbmi	r0, {r3, r9, sl, sp}
     3b0:	09000013 	stmdbeq	r0, {r0, r1, r4}
     3b4:	193f012e 	ldmdbne	pc!, {r1, r2, r3, r5, r8}	; <UNPREDICTABLE>
     3b8:	0b3a0e03 	bleq	e83bcc <__bss_end__+0xe799dc>
     3bc:	0b390b3b 	bleq	e430b0 <__bss_end__+0xe38ec0>
     3c0:	13491927 	movtne	r1, #39207	; 0x9927
     3c4:	06120111 			; <UNDEFINED> instruction: 0x06120111
     3c8:	42971840 	addsmi	r1, r7, #64, 16	; 0x400000
     3cc:	00130119 	andseq	r0, r3, r9, lsl r1
     3d0:	00050a00 	andeq	r0, r5, r0, lsl #20
     3d4:	0b3a0e03 	bleq	e83be8 <__bss_end__+0xe799f8>
     3d8:	0b390b3b 	bleq	e430cc <__bss_end__+0xe38edc>
     3dc:	17021349 	strne	r1, [r2, -r9, asr #6]
     3e0:	001742b7 			; <UNDEFINED> instruction: 0x001742b7
     3e4:	82890b00 	addhi	r0, r9, #0, 22
     3e8:	01110101 	tsteq	r1, r1, lsl #2
     3ec:	00001331 	andeq	r1, r0, r1, lsr r3
     3f0:	01828a0c 	orreq	r8, r2, ip, lsl #20
     3f4:	91180200 	tstls	r8, r0, lsl #4
     3f8:	00001842 	andeq	r1, r0, r2, asr #16
     3fc:	0b000f0d 	bleq	4038 <__code_start__-0x3fc8>
     400:	0e00000b 	cdpeq	0, 0, cr0, cr0, cr11, {0}
     404:	193f002e 	ldmdbne	pc!, {r1, r2, r3, r5}	; <UNPREDICTABLE>
     408:	0e6e193c 			; <UNDEFINED> instruction: 0x0e6e193c
     40c:	0b3a0e03 	bleq	e83c20 <__bss_end__+0xe79a30>
     410:	0b390b3b 	bleq	e43104 <__bss_end__+0xe38f14>
     414:	01000000 	mrseq	r0, (UNDEF: 0)
     418:	0e250111 	mcreq	1, 1, r0, cr5, cr1, {0}
     41c:	0e030b13 	vmoveq.32	d3[0], r0
     420:	01110e1b 	tsteq	r1, fp, lsl lr
     424:	17100612 			; <UNDEFINED> instruction: 0x17100612
     428:	16020000 	strne	r0, [r2], -r0
     42c:	3a0e0300 	bcc	381034 <__bss_end__+0x376e44>
     430:	390b3b0b 	stmdbcc	fp, {r0, r1, r3, r8, r9, fp, ip, sp}
     434:	0013490b 	andseq	r4, r3, fp, lsl #18
     438:	01130300 	tsteq	r3, r0, lsl #6
     43c:	0b0b0e03 	bleq	2c3c50 <__bss_end__+0x2b9a60>
     440:	0b3b0b3a 	bleq	ec3130 <__bss_end__+0xeb8f40>
     444:	00001301 	andeq	r1, r0, r1, lsl #6
     448:	03000d04 	movweq	r0, #3332	; 0xd04
     44c:	3813490e 	ldmdacc	r3, {r1, r2, r3, r8, fp, lr}
     450:	0019340b 	andseq	r3, r9, fp, lsl #8
     454:	000f0500 	andeq	r0, pc, r0, lsl #10
     458:	00000b0b 	andeq	r0, r0, fp, lsl #22
     45c:	0b002406 	bleq	947c <kmalloc_notzero+0x74>
     460:	030b3e0b 	movweq	r3, #48651	; 0xbe0b
     464:	07000008 	streq	r0, [r0, -r8]
     468:	0b0b0024 	bleq	2c0500 <__bss_end__+0x2b6310>
     46c:	0e030b3e 	vmoveq.16	d3[0], r0
     470:	15080000 	strne	r0, [r8, #-0]
     474:	49192701 	ldmdbmi	r9, {r0, r8, r9, sl, sp}
     478:	00130113 	andseq	r0, r3, r3, lsl r1
     47c:	00050900 	andeq	r0, r5, r0, lsl #18
     480:	00001349 	andeq	r1, r0, r9, asr #6
     484:	0300340a 	movweq	r3, #1034	; 0x40a
     488:	3b0b3a0e 	blcc	2cecc8 <__bss_end__+0x2c4ad8>
     48c:	490b390b 	stmdbmi	fp, {r0, r1, r3, r8, fp, ip, sp}
     490:	3c193f13 	ldccc	15, cr3, [r9], {19}
     494:	0b000019 	bleq	500 <__code_start__-0x7b00>
     498:	0b0b000f 	bleq	2c04dc <__bss_end__+0x2b62ec>
     49c:	00001349 	andeq	r1, r0, r9, asr #6
     4a0:	4900260c 	stmdbmi	r0, {r2, r3, r9, sl, sp}
     4a4:	0d000013 	stceq	0, cr0, [r0, #-76]	; 0xffffffb4
     4a8:	193f012e 	ldmdbne	pc!, {r1, r2, r3, r5, r8}	; <UNPREDICTABLE>
     4ac:	0b3a0e03 	bleq	e83cc0 <__bss_end__+0xe79ad0>
     4b0:	0b390b3b 	bleq	e431a4 <__bss_end__+0xe38fb4>
     4b4:	13491927 	movtne	r1, #39207	; 0x9927
     4b8:	06120111 			; <UNDEFINED> instruction: 0x06120111
     4bc:	42971840 	addsmi	r1, r7, #64, 16	; 0x400000
     4c0:	00130119 	andseq	r0, r3, r9, lsl r1
     4c4:	00050e00 	andeq	r0, r5, r0, lsl #28
     4c8:	0b3a0803 	bleq	e824dc <__bss_end__+0xe782ec>
     4cc:	0b390b3b 	bleq	e431c0 <__bss_end__+0xe38fd0>
     4d0:	18021349 	stmdane	r2, {r0, r3, r6, r8, r9, ip}
     4d4:	180f0000 	stmdane	pc, {}	; <UNPREDICTABLE>
     4d8:	10000000 	andne	r0, r0, r0
     4dc:	08030034 	stmdaeq	r3, {r2, r4, r5}
     4e0:	0b3b0b3a 	bleq	ec31d0 <__bss_end__+0xeb8fe0>
     4e4:	13490b39 	movtne	r0, #39737	; 0x9b39
     4e8:	00001802 	andeq	r1, r0, r2, lsl #16
     4ec:	03003411 	movweq	r3, #1041	; 0x411
     4f0:	3b0b3a0e 	blcc	2ced30 <__bss_end__+0x2c4b40>
     4f4:	490b390b 	stmdbmi	fp, {r0, r1, r3, r8, fp, ip, sp}
     4f8:	00180213 	andseq	r0, r8, r3, lsl r2
     4fc:	00341200 	eorseq	r1, r4, r0, lsl #4
     500:	0b3a0803 	bleq	e82514 <__bss_end__+0xe78324>
     504:	0b390b3b 	bleq	e431f8 <__bss_end__+0xe39008>
     508:	17021349 	strne	r1, [r2, -r9, asr #6]
     50c:	001742b7 			; <UNDEFINED> instruction: 0x001742b7
     510:	82891300 	addhi	r1, r9, #0, 6
     514:	01110101 	tsteq	r1, r1, lsl #2
     518:	13011331 	movwne	r1, #4913	; 0x1331
     51c:	8a140000 	bhi	500524 <__bss_end__+0x4f6334>
     520:	02000182 	andeq	r0, r0, #-2147483616	; 0x80000020
     524:	18429118 	stmdane	r2, {r3, r4, r8, ip, pc}^
     528:	89150000 	ldmdbhi	r5, {}	; <UNPREDICTABLE>
     52c:	11010182 	smlabbne	r1, r2, r1, r0
     530:	16000001 	strne	r0, [r0], -r1
     534:	13490101 	movtne	r0, #37121	; 0x9101
     538:	00001301 	andeq	r1, r0, r1, lsl #6
     53c:	49002117 	stmdbmi	r0, {r0, r1, r2, r4, r8, sp}
     540:	00052f13 	andeq	r2, r5, r3, lsl pc
     544:	002e1800 	eoreq	r1, lr, r0, lsl #16
     548:	193c193f 	ldmdbne	ip!, {r0, r1, r2, r3, r4, r5, r8, fp, ip}
     54c:	0e030e6e 	cdpeq	14, 0, cr0, cr3, cr14, {3}
     550:	0b3b0b3a 	bleq	ec3240 <__bss_end__+0xeb9050>
     554:	00000b39 	andeq	r0, r0, r9, lsr fp
     558:	01110100 	tsteq	r1, r0, lsl #2
     55c:	0b130e25 	bleq	4c3df8 <__bss_end__+0x4b9c08>
     560:	0e1b0e03 	cdpeq	14, 1, cr0, cr11, cr3, {0}
     564:	06120111 			; <UNDEFINED> instruction: 0x06120111
     568:	00001710 	andeq	r1, r0, r0, lsl r7
     56c:	0b002402 	bleq	957c <kmalloc_aligned+0x78>
     570:	030b3e0b 	movweq	r3, #48651	; 0xbe0b
     574:	03000008 	movweq	r0, #8
     578:	0b0b0024 	bleq	2c0610 <__bss_end__+0x2b6420>
     57c:	0e030b3e 	vmoveq.16	d3[0], r0
     580:	15040000 	strne	r0, [r4, #-0]
     584:	49192701 	ldmdbmi	r9, {r0, r8, r9, sl, sp}
     588:	00130113 	andseq	r0, r3, r3, lsl r1
     58c:	00050500 	andeq	r0, r5, r0, lsl #10
     590:	00001349 	andeq	r1, r0, r9, asr #6
     594:	03003406 	movweq	r3, #1030	; 0x406
     598:	3b0b3a0e 	blcc	2cedd8 <__bss_end__+0x2c4be8>
     59c:	490b390b 	stmdbmi	fp, {r0, r1, r3, r8, fp, ip, sp}
     5a0:	3c193f13 	ldccc	15, cr3, [r9], {19}
     5a4:	07000019 	smladeq	r0, r9, r0, r0
     5a8:	0b0b000f 	bleq	2c05ec <__bss_end__+0x2b63fc>
     5ac:	00001349 	andeq	r1, r0, r9, asr #6
     5b0:	49002608 	stmdbmi	r0, {r3, r9, sl, sp}
     5b4:	09000013 	stmdbeq	r0, {r0, r1, r4}
     5b8:	13470034 	movtne	r0, #28724	; 0x7034
     5bc:	0b3b0b3a 	bleq	ec32ac <__bss_end__+0xeb90bc>
     5c0:	18020b39 	stmdane	r2, {r0, r3, r4, r5, r8, r9, fp}
     5c4:	2e0a0000 	cdpcs	0, 0, cr0, cr10, cr0, {0}
     5c8:	03193f01 	tsteq	r9, #1, 30
     5cc:	3b0b3a0e 	blcc	2cee0c <__bss_end__+0x2c4c1c>
     5d0:	270b390b 	strcs	r3, [fp, -fp, lsl #18]
     5d4:	12011119 	andne	r1, r1, #1073741830	; 0x40000006
     5d8:	97184006 	ldrls	r4, [r8, -r6]
     5dc:	13011942 	movwne	r1, #6466	; 0x1942
     5e0:	050b0000 	streq	r0, [fp, #-0]
     5e4:	3a080300 	bcc	2011ec <__bss_end__+0x1f6ffc>
     5e8:	390b3b0b 	stmdbcc	fp, {r0, r1, r3, r8, r9, fp, ip, sp}
     5ec:	0213490b 	andseq	r4, r3, #180224	; 0x2c000
     5f0:	0c000018 	stceq	0, cr0, [r0], {24}
     5f4:	193f002e 	ldmdbne	pc!, {r1, r2, r3, r5}	; <UNPREDICTABLE>
     5f8:	0b3a0e03 	bleq	e83e0c <__bss_end__+0xe79c1c>
     5fc:	0b390b3b 	bleq	e432f0 <__bss_end__+0xe39100>
     600:	01111927 	tsteq	r1, r7, lsr #18
     604:	18400612 	stmdane	r0, {r1, r4, r9, sl}^
     608:	00194297 	mulseq	r9, r7, r2
     60c:	012e0d00 			; <UNDEFINED> instruction: 0x012e0d00
     610:	0b3a0e03 	bleq	e83e24 <__bss_end__+0xe79c34>
     614:	0b390b3b 	bleq	e43308 <__bss_end__+0xe39118>
     618:	13491927 	movtne	r1, #39207	; 0x9927
     61c:	06120111 			; <UNDEFINED> instruction: 0x06120111
     620:	42971840 	addsmi	r1, r7, #64, 16	; 0x400000
     624:	00130119 	andseq	r0, r3, r9, lsl r1
     628:	00050e00 	andeq	r0, r5, r0, lsl #28
     62c:	0b3a0803 	bleq	e82640 <__bss_end__+0xe78450>
     630:	0b390b3b 	bleq	e43324 <__bss_end__+0xe39134>
     634:	17021349 	strne	r1, [r2, -r9, asr #6]
     638:	001742b7 			; <UNDEFINED> instruction: 0x001742b7
     63c:	82890f00 	addhi	r0, r9, #0, 30
     640:	01110101 	tsteq	r1, r1, lsl #2
     644:	00001331 	andeq	r1, r0, r1, lsr r3
     648:	01828a10 	orreq	r8, r2, r0, lsl sl
     64c:	91180200 	tstls	r8, r0, lsl #4
     650:	00001842 	andeq	r1, r0, r2, asr #16
     654:	3f002e11 	svccc	0x00002e11
     658:	6e193c19 	mrcvs	12, 0, r3, cr9, cr9, {0}
     65c:	3a0e030e 	bcc	38129c <__bss_end__+0x3770ac>
     660:	390b3b0b 	stmdbcc	fp, {r0, r1, r3, r8, r9, fp, ip, sp}
     664:	0000000b 	andeq	r0, r0, fp
     668:	25011101 	strcs	r1, [r1, #-257]	; 0xfffffeff
     66c:	030b130e 	movweq	r1, #45838	; 0xb30e
     670:	110e1b0e 	tstne	lr, lr, lsl #22
     674:	10061201 	andne	r1, r6, r1, lsl #4
     678:	02000017 	andeq	r0, r0, #23, 0
     67c:	0b0b0024 	bleq	2c0714 <__bss_end__+0x2b6524>
     680:	08030b3e 	stmdaeq	r3, {r1, r2, r3, r4, r5, r8, r9, fp}
     684:	24030000 	strcs	r0, [r3], #-0
     688:	3e0b0b00 	vmlacc.f64	d0, d11, d0
     68c:	000e030b 	andeq	r0, lr, fp, lsl #6
     690:	01150400 	tsteq	r5, r0, lsl #8
     694:	13491927 	movtne	r1, #39207	; 0x9927
     698:	00001301 	andeq	r1, r0, r1, lsl #6
     69c:	49000505 	stmdbmi	r0, {r0, r2, r8, sl}
     6a0:	06000013 			; <UNDEFINED> instruction: 0x06000013
     6a4:	0e030034 	mcreq	0, 0, r0, cr3, cr4, {1}
     6a8:	0b3b0b3a 	bleq	ec3398 <__bss_end__+0xeb91a8>
     6ac:	13490b39 	movtne	r0, #39737	; 0x9b39
     6b0:	193c193f 	ldmdbne	ip!, {r0, r1, r2, r3, r4, r5, r8, fp, ip}
     6b4:	0f070000 	svceq	0x00070000
     6b8:	490b0b00 	stmdbmi	fp, {r8, r9, fp}
     6bc:	08000013 	stmdaeq	r0, {r0, r1, r4}
     6c0:	13490026 	movtne	r0, #36902	; 0x9026
     6c4:	34090000 	strcc	r0, [r9], #-0
     6c8:	3a134700 	bcc	4d22d0 <__bss_end__+0x4c80e0>
     6cc:	390b3b0b 	stmdbcc	fp, {r0, r1, r3, r8, r9, fp, ip, sp}
     6d0:	0018020b 	andseq	r0, r8, fp, lsl #4
     6d4:	012e0a00 			; <UNDEFINED> instruction: 0x012e0a00
     6d8:	0e03193f 			; <UNDEFINED> instruction: 0x0e03193f
     6dc:	0b3b0b3a 	bleq	ec33cc <__bss_end__+0xeb91dc>
     6e0:	19270b39 	stmdbne	r7!, {r0, r3, r4, r5, r8, r9, fp}
     6e4:	01111349 	tsteq	r1, r9, asr #6
     6e8:	18400612 	stmdane	r0, {r1, r4, r9, sl}^
     6ec:	00194296 	mulseq	r9, r6, r2
     6f0:	00050b00 	andeq	r0, r5, r0, lsl #22
     6f4:	0b3a0803 	bleq	e82708 <__bss_end__+0xe78518>
     6f8:	0b390b3b 	bleq	e433ec <__bss_end__+0xe391fc>
     6fc:	17021349 	strne	r1, [r2, -r9, asr #6]
     700:	001742b7 			; <UNDEFINED> instruction: 0x001742b7
     704:	11010000 	mrsne	r0, (UNDEF: 1)
     708:	130e2501 	movwne	r2, #58625	; 0xe501
     70c:	1b0e030b 	blne	381340 <__bss_end__+0x377150>
     710:	1201110e 	andne	r1, r1, #-2147483645	; 0x80000003
     714:	00171006 	andseq	r1, r7, r6
     718:	00240200 	eoreq	r0, r4, r0, lsl #4
     71c:	0b3e0b0b 	bleq	f83350 <__bss_end__+0xf79160>
     720:	00000e03 	andeq	r0, r0, r3, lsl #28
     724:	0b002403 	bleq	9738 <gpio_set_output+0x44>
     728:	030b3e0b 	movweq	r3, #48651	; 0xbe0b
     72c:	04000008 	streq	r0, [r0], #-8
     730:	0e030016 	mcreq	0, 0, r0, cr3, cr6, {0}
     734:	0b3b0b3a 	bleq	ec3424 <__bss_end__+0xeb9234>
     738:	13490b39 	movtne	r0, #39737	; 0x9b39
     73c:	15050000 	strne	r0, [r5, #-0]
     740:	49192701 	ldmdbmi	r9, {r0, r8, r9, sl, sp}
     744:	00130113 	andseq	r0, r3, r3, lsl r1
     748:	00050600 	andeq	r0, r5, r0, lsl #12
     74c:	00001349 	andeq	r1, r0, r9, asr #6
     750:	03003407 	movweq	r3, #1031	; 0x407
     754:	3b0b3a0e 	blcc	2cef94 <__bss_end__+0x2c4da4>
     758:	490b390b 	stmdbmi	fp, {r0, r1, r3, r8, fp, ip, sp}
     75c:	3c193f13 	ldccc	15, cr3, [r9], {19}
     760:	08000019 	stmdaeq	r0, {r0, r3, r4}
     764:	0b0b000f 	bleq	2c07a8 <__bss_end__+0x2b65b8>
     768:	00001349 	andeq	r1, r0, r9, asr #6
     76c:	49002609 	stmdbmi	r0, {r0, r3, r9, sl, sp}
     770:	0a000013 	beq	7c4 <__code_start__-0x783c>
     774:	0e030113 	mcreq	1, 0, r0, cr3, cr3, {0}
     778:	0b3a0b0b 	bleq	e833ac <__bss_end__+0xe791bc>
     77c:	13010b3b 	movwne	r0, #6971	; 0x1b3b
     780:	0d0b0000 	stceq	0, cr0, [fp, #-0]
     784:	490e0300 	stmdbmi	lr, {r8, r9}
     788:	340b3813 	strcc	r3, [fp], #-2067	; 0xfffff7ed
     78c:	0c000019 	stceq	0, cr0, [r0], {25}
     790:	0b0b000f 	bleq	2c07d4 <__bss_end__+0x2b65e4>
     794:	2e0d0000 	cdpcs	0, 0, cr0, cr13, cr0, {0}
     798:	03193f01 	tsteq	r9, #1, 30
     79c:	3b0b3a0e 	blcc	2cefdc <__bss_end__+0x2c4dec>
     7a0:	270b390b 	strcs	r3, [fp, -fp, lsl #18]
     7a4:	11134919 	tstne	r3, r9, lsl r9
     7a8:	40061201 	andmi	r1, r6, r1, lsl #4
     7ac:	19429718 	stmdbne	r2, {r3, r4, r8, r9, sl, ip, pc}^
     7b0:	00001301 	andeq	r1, r0, r1, lsl #6
     7b4:	0300050e 	movweq	r0, #1294	; 0x50e
     7b8:	3b0b3a08 	blcc	2cefe0 <__bss_end__+0x2c4df0>
     7bc:	490b390b 	stmdbmi	fp, {r0, r1, r3, r8, fp, ip, sp}
     7c0:	b7170213 			; <UNDEFINED> instruction: 0xb7170213
     7c4:	00001742 	andeq	r1, r0, r2, asr #14
     7c8:	0300050f 	movweq	r0, #1295	; 0x50f
     7cc:	3b0b3a0e 	blcc	2cf00c <__bss_end__+0x2c4e1c>
     7d0:	490b390b 	stmdbmi	fp, {r0, r1, r3, r8, fp, ip, sp}
     7d4:	b7170213 			; <UNDEFINED> instruction: 0xb7170213
     7d8:	00001742 	andeq	r1, r0, r2, asr #14
     7dc:	03003410 	movweq	r3, #1040	; 0x410
     7e0:	3b0b3a08 	blcc	2cf008 <__bss_end__+0x2c4e18>
     7e4:	490b390b 	stmdbmi	fp, {r0, r1, r3, r8, fp, ip, sp}
     7e8:	b7170213 			; <UNDEFINED> instruction: 0xb7170213
     7ec:	00001742 	andeq	r1, r0, r2, asr #14
     7f0:	03003411 	movweq	r3, #1041	; 0x411
     7f4:	3b0b3a0e 	blcc	2cf034 <__bss_end__+0x2c4e44>
     7f8:	490b390b 	stmdbmi	fp, {r0, r1, r3, r8, fp, ip, sp}
     7fc:	b7170213 			; <UNDEFINED> instruction: 0xb7170213
     800:	00001742 	andeq	r1, r0, r2, asr #14
     804:	03003412 	movweq	r3, #1042	; 0x412
     808:	3413490e 	ldrcc	r4, [r3], #-2318	; 0xfffff6f2
     80c:	00180219 	andseq	r0, r8, r9, lsl r2
     810:	010b1300 	mrseq	r1, (UNDEF: 59)
     814:	00001755 	andeq	r1, r0, r5, asr r7
     818:	03003414 	movweq	r3, #1044	; 0x414
     81c:	3b0b3a08 	blcc	2cf044 <__bss_end__+0x2c4e54>
     820:	490b390b 	stmdbmi	fp, {r0, r1, r3, r8, fp, ip, sp}
     824:	00180213 	andseq	r0, r8, r3, lsl r2
     828:	00341500 	eorseq	r1, r4, r0, lsl #10
     82c:	0b3a0e03 	bleq	e84040 <__bss_end__+0xe79e50>
     830:	0b390b3b 	bleq	e43524 <__bss_end__+0xe39334>
     834:	18021349 	stmdane	r2, {r0, r3, r6, r8, r9, ip}
     838:	0b160000 	bleq	580840 <__bss_end__+0x576650>
     83c:	01175501 	tsteq	r7, r1, lsl #10
     840:	17000013 	smladne	r0, r3, r0, r0
     844:	01018289 	smlabbeq	r1, r9, r2, r8
     848:	13310111 	teqne	r1, #1073741828	; 0x40000004
     84c:	00001301 	andeq	r1, r0, r1, lsl #6
     850:	01828a18 	orreq	r8, r2, r8, lsl sl
     854:	91180200 	tstls	r8, r0, lsl #4
     858:	00001842 	andeq	r1, r0, r2, asr #16
     85c:	01828919 	orreq	r8, r2, r9, lsl r9
     860:	31011100 	mrscc	r1, (UNDEF: 17)
     864:	1a000013 	bne	8b8 <__code_start__-0x7748>
     868:	1331011d 	teqne	r1, #1073741831	; 0x40000007
     86c:	42b80152 	adcsmi	r0, r8, #-2147483628	; 0x80000014
     870:	58175505 	ldmdapl	r7, {r0, r2, r8, sl, ip, lr}
     874:	570b590b 	strpl	r5, [fp, -fp, lsl #18]
     878:	0013010b 	andseq	r0, r3, fp, lsl #2
     87c:	00051b00 	andeq	r1, r5, r0, lsl #22
     880:	17021331 	smladxne	r2, r1, r3, r1
     884:	001742b7 			; <UNDEFINED> instruction: 0x001742b7
     888:	00051c00 	andeq	r1, r5, r0, lsl #24
     88c:	00001331 	andeq	r1, r0, r1, lsr r3
     890:	3100341d 	tstcc	r0, sp, lsl r4
     894:	00180213 	andseq	r0, r8, r3, lsl r2
     898:	00341e00 	eorseq	r1, r4, r0, lsl #28
     89c:	17021331 	smladxne	r2, r1, r3, r1
     8a0:	001742b7 			; <UNDEFINED> instruction: 0x001742b7
     8a4:	00341f00 	eorseq	r1, r4, r0, lsl #30
     8a8:	00001331 	andeq	r1, r0, r1, lsr r3
     8ac:	31011d20 	tstcc	r1, r0, lsr #26
     8b0:	b8015213 	stmdalt	r1, {r0, r1, r4, r9, ip, lr}
     8b4:	17550542 	ldrbne	r0, [r5, -r2, asr #10]
     8b8:	0b590b58 	bleq	1643620 <__bss_end__+0x1639430>
     8bc:	00000b57 	andeq	r0, r0, r7, asr fp
     8c0:	01828921 	orreq	r8, r2, r1, lsr #18
     8c4:	01011101 	tsteq	r1, r1, lsl #2
     8c8:	22000013 	andcs	r0, r0, #19, 0
     8cc:	13490101 	movtne	r0, #37121	; 0x9101
     8d0:	00001301 	andeq	r1, r0, r1, lsl #6
     8d4:	49002123 	stmdbmi	r0, {r0, r1, r5, r8, sp}
     8d8:	000b2f13 	andeq	r2, fp, r3, lsl pc
     8dc:	012e2400 			; <UNDEFINED> instruction: 0x012e2400
     8e0:	0b3a0e03 	bleq	e840f4 <__bss_end__+0xe79f04>
     8e4:	0b390b3b 	bleq	e435d8 <__bss_end__+0xe393e8>
     8e8:	13491927 	movtne	r1, #39207	; 0x9927
     8ec:	13010b20 	movwne	r0, #6944	; 0x1b20
     8f0:	05250000 	streq	r0, [r5, #-0]!
     8f4:	3a0e0300 	bcc	3814fc <__bss_end__+0x37730c>
     8f8:	390b3b0b 	stmdbcc	fp, {r0, r1, r3, r8, r9, fp, ip, sp}
     8fc:	0013490b 	andseq	r4, r3, fp, lsl #18
     900:	00052600 	andeq	r2, r5, r0, lsl #12
     904:	0b3a0803 	bleq	e82918 <__bss_end__+0xe78728>
     908:	0b390b3b 	bleq	e435fc <__bss_end__+0xe3940c>
     90c:	00001349 	andeq	r1, r0, r9, asr #6
     910:	03003427 	movweq	r3, #1063	; 0x427
     914:	3b0b3a08 	blcc	2cf13c <__bss_end__+0x2c4f4c>
     918:	490b390b 	stmdbmi	fp, {r0, r1, r3, r8, fp, ip, sp}
     91c:	28000013 	stmdacs	r0, {r0, r1, r4}
     920:	0000010b 	andeq	r0, r0, fp, lsl #2
     924:	03003429 	movweq	r3, #1065	; 0x429
     928:	3b0b3a0e 	blcc	2cf168 <__bss_end__+0x2c4f78>
     92c:	490b390b 	stmdbmi	fp, {r0, r1, r3, r8, fp, ip, sp}
     930:	2a000013 	bcs	984 <__code_start__-0x767c>
     934:	0803012e 	stmdaeq	r3, {r1, r2, r3, r5, r8}
     938:	0b3b0b3a 	bleq	ec3628 <__bss_end__+0xeb9438>
     93c:	19270b39 	stmdbne	r7!, {r0, r3, r4, r5, r8, r9, fp}
     940:	0b201349 	bleq	80566c <__bss_end__+0x7fb47c>
     944:	00001301 	andeq	r1, r0, r1, lsl #6
     948:	3f012e2b 	svccc	0x00012e2b
     94c:	3a0e0319 	bcc	3815b8 <__bss_end__+0x3773c8>
     950:	390b3b0b 	stmdbcc	fp, {r0, r1, r3, r8, r9, fp, ip, sp}
     954:	1119270b 	tstne	r9, fp, lsl #14
     958:	40061201 	andmi	r1, r6, r1, lsl #4
     95c:	19429718 	stmdbne	r2, {r3, r4, r8, r9, sl, ip, pc}^
     960:	00001301 	andeq	r1, r0, r1, lsl #6
     964:	31012e2c 	tstcc	r1, ip, lsr #28
     968:	12011113 	andne	r1, r1, #-1073741820	; 0xc0000004
     96c:	97184006 	ldrls	r4, [r8, -r6]
     970:	13011942 	movwne	r1, #6466	; 0x1942
     974:	052d0000 	streq	r0, [sp, #-0]!
     978:	02133100 	andseq	r3, r3, #0
     97c:	2e000018 	mcrcs	0, 0, r0, cr0, cr8, {0}
     980:	13310005 	teqne	r1, #5, 0
     984:	00000b1c 	andeq	r0, r0, ip, lsl fp
     988:	31010b2f 	tstcc	r1, pc, lsr #22
     98c:	12011113 	andne	r1, r1, #-1073741820	; 0xc0000004
     990:	00130106 	andseq	r0, r3, r6, lsl #2
     994:	002e3000 	eoreq	r3, lr, r0
     998:	193c193f 	ldmdbne	ip!, {r0, r1, r2, r3, r4, r5, r8, fp, ip}
     99c:	0e030e6e 	cdpeq	14, 0, cr0, cr3, cr14, {3}
     9a0:	0b3b0b3a 	bleq	ec3690 <__bss_end__+0xeb94a0>
     9a4:	00000b39 	andeq	r0, r0, r9, lsr fp
     9a8:	01110100 	tsteq	r1, r0, lsl #2
     9ac:	0b130e25 	bleq	4c4248 <__bss_end__+0x4ba058>
     9b0:	0e1b0e03 	cdpeq	14, 1, cr0, cr11, cr3, {0}
     9b4:	06120111 			; <UNDEFINED> instruction: 0x06120111
     9b8:	00001710 	andeq	r1, r0, r0, lsl r7
     9bc:	0b002402 	bleq	99cc <__code_end__+0x54>
     9c0:	030b3e0b 	movweq	r3, #48651	; 0xbe0b
     9c4:	03000008 	movweq	r0, #8
     9c8:	0b0b0024 	bleq	2c0a60 <__bss_end__+0x2b6870>
     9cc:	0e030b3e 	vmoveq.16	d3[0], r0
     9d0:	15040000 	strne	r0, [r4, #-0]
     9d4:	49192701 	ldmdbmi	r9, {r0, r8, r9, sl, sp}
     9d8:	00130113 	andseq	r0, r3, r3, lsl r1
     9dc:	00050500 	andeq	r0, r5, r0, lsl #10
     9e0:	00001349 	andeq	r1, r0, r9, asr #6
     9e4:	03003406 	movweq	r3, #1030	; 0x406
     9e8:	3b0b3a0e 	blcc	2cf228 <__bss_end__+0x2c5038>
     9ec:	490b390b 	stmdbmi	fp, {r0, r1, r3, r8, fp, ip, sp}
     9f0:	3c193f13 	ldccc	15, cr3, [r9], {19}
     9f4:	07000019 	smladeq	r0, r9, r0, r0
     9f8:	0b0b000f 	bleq	2c0a3c <__bss_end__+0x2b684c>
     9fc:	00001349 	andeq	r1, r0, r9, asr #6
     a00:	49002608 	stmdbmi	r0, {r3, r9, sl, sp}
     a04:	09000013 	stmdbeq	r0, {r0, r1, r4}
     a08:	193f012e 	ldmdbne	pc!, {r1, r2, r3, r5, r8}	; <UNPREDICTABLE>
     a0c:	0b3a0e03 	bleq	e84220 <__bss_end__+0xe7a030>
     a10:	0b390b3b 	bleq	e43704 <__bss_end__+0xe39514>
     a14:	01871927 	orreq	r1, r7, r7, lsr #18
     a18:	12011119 	andne	r1, r1, #1073741830	; 0x40000006
     a1c:	97184006 	ldrls	r4, [r8, -r6]
     a20:	13011942 	movwne	r1, #6466	; 0x1942
     a24:	890a0000 	stmdbhi	sl, {}	; <UNPREDICTABLE>
     a28:	11010182 	smlabbne	r1, r2, r1, r0
     a2c:	00130101 	andseq	r0, r3, r1, lsl #2
     a30:	828a0b00 	addhi	r0, sl, #0, 22
     a34:	18020001 	stmdane	r2, {r0}
     a38:	00184291 	mulseq	r8, r1, r2
     a3c:	82890c00 	addhi	r0, r9, #0, 24
     a40:	01110001 	tsteq	r1, r1
     a44:	00001331 	andeq	r1, r0, r1, lsr r3
     a48:	0182890d 	orreq	r8, r2, sp, lsl #18
     a4c:	31011101 	tstcc	r1, r1, lsl #2
     a50:	00130113 	andseq	r0, r3, r3, lsl r1
     a54:	002e0e00 	eoreq	r0, lr, r0, lsl #28
     a58:	193c193f 	ldmdbne	ip!, {r0, r1, r2, r3, r4, r5, r8, fp, ip}
     a5c:	0e030e6e 	cdpeq	14, 0, cr0, cr3, cr14, {3}
     a60:	0b3b0b3a 	bleq	ec3750 <__bss_end__+0xeb9560>
     a64:	00000b39 	andeq	r0, r0, r9, lsr fp
     a68:	01110100 	tsteq	r1, r0, lsl #2
     a6c:	0b130e25 	bleq	4c4308 <__bss_end__+0x4ba118>
     a70:	0e1b0e03 	cdpeq	14, 1, cr0, cr11, cr3, {0}
     a74:	06120111 			; <UNDEFINED> instruction: 0x06120111
     a78:	00001710 	andeq	r1, r0, r0, lsl r7
     a7c:	0b002402 	bleq	9a8c <__FUNCTION__.3970+0x40>
     a80:	030b3e0b 	movweq	r3, #48651	; 0xbe0b
     a84:	03000008 	movweq	r0, #8
     a88:	0b0b0024 	bleq	2c0b20 <__bss_end__+0x2b6930>
     a8c:	0e030b3e 	vmoveq.16	d3[0], r0
     a90:	15040000 	strne	r0, [r4, #-0]
     a94:	49192701 	ldmdbmi	r9, {r0, r8, r9, sl, sp}
     a98:	00130113 	andseq	r0, r3, r3, lsl r1
     a9c:	00050500 	andeq	r0, r5, r0, lsl #10
     aa0:	00001349 	andeq	r1, r0, r9, asr #6
     aa4:	03003406 	movweq	r3, #1030	; 0x406
     aa8:	3b0b3a0e 	blcc	2cf2e8 <__bss_end__+0x2c50f8>
     aac:	490b390b 	stmdbmi	fp, {r0, r1, r3, r8, fp, ip, sp}
     ab0:	3c193f13 	ldccc	15, cr3, [r9], {19}
     ab4:	07000019 	smladeq	r0, r9, r0, r0
     ab8:	0b0b000f 	bleq	2c0afc <__bss_end__+0x2b690c>
     abc:	00001349 	andeq	r1, r0, r9, asr #6
     ac0:	49002608 	stmdbmi	r0, {r3, r9, sl, sp}
     ac4:	09000013 	stmdbeq	r0, {r0, r1, r4}
     ac8:	193f012e 	ldmdbne	pc!, {r1, r2, r3, r5, r8}	; <UNPREDICTABLE>
     acc:	0b3a0e03 	bleq	e842e0 <__bss_end__+0xe7a0f0>
     ad0:	0b390b3b 	bleq	e437c4 <__bss_end__+0xe395d4>
     ad4:	06120111 			; <UNDEFINED> instruction: 0x06120111
     ad8:	42971840 	addsmi	r1, r7, #64, 16	; 0x400000
     adc:	00130119 	andseq	r0, r3, r9, lsl r1
     ae0:	002e0a00 	eoreq	r0, lr, r0, lsl #20
     ae4:	0e03193f 			; <UNDEFINED> instruction: 0x0e03193f
     ae8:	0b3b0b3a 	bleq	ec37d8 <__bss_end__+0xeb95e8>
     aec:	19270b39 	stmdbne	r7!, {r0, r3, r4, r5, r8, r9, fp}
     af0:	0000193c 	andeq	r1, r0, ip, lsr r9
     af4:	0300340b 	movweq	r3, #1035	; 0x40b
     af8:	3b0b3a08 	blcc	2cf320 <__bss_end__+0x2c5130>
     afc:	490b390b 	stmdbmi	fp, {r0, r1, r3, r8, fp, ip, sp}
     b00:	b7170213 			; <UNDEFINED> instruction: 0xb7170213
     b04:	00001742 	andeq	r1, r0, r2, asr #14
     b08:	0300340c 	movweq	r3, #1036	; 0x40c
     b0c:	3b0b3a0e 	blcc	2cf34c <__bss_end__+0x2c515c>
     b10:	490b390b 	stmdbmi	fp, {r0, r1, r3, r8, fp, ip, sp}
     b14:	0d000013 	stceq	0, cr0, [r0, #-76]	; 0xffffffb4
     b18:	0111010b 	tsteq	r1, fp, lsl #2
     b1c:	13010612 	movwne	r0, #5650	; 0x1612
     b20:	890e0000 	stmdbhi	lr, {}	; <UNPREDICTABLE>
     b24:	11000182 	smlabbne	r0, r2, r1, r0
     b28:	00133101 	andseq	r3, r3, r1, lsl #2
     b2c:	002e0f00 	eoreq	r0, lr, r0, lsl #30
     b30:	193c193f 	ldmdbne	ip!, {r0, r1, r2, r3, r4, r5, r8, fp, ip}
     b34:	0e030e6e 	cdpeq	14, 0, cr0, cr3, cr14, {3}
     b38:	053b0b3a 	ldreq	r0, [fp, #-2874]!	; 0xfffff4c6
     b3c:	00000b39 	andeq	r0, r0, r9, lsr fp
     b40:	3f002e10 	svccc	0x00002e10
     b44:	6e193c19 	mrcvs	12, 0, r3, cr9, cr9, {0}
     b48:	3a0e030e 	bcc	381788 <__bss_end__+0x377598>
     b4c:	390b3b0b 	stmdbcc	fp, {r0, r1, r3, r8, r9, fp, ip, sp}
     b50:	0000000b 	andeq	r0, r0, fp
     b54:	25011101 	strcs	r1, [r1, #-257]	; 0xfffffeff
     b58:	030b130e 	movweq	r1, #45838	; 0xb30e
     b5c:	110e1b0e 	tstne	lr, lr, lsl #22
     b60:	10061201 	andne	r1, r6, r1, lsl #4
     b64:	02000017 	andeq	r0, r0, #23, 0
     b68:	0b0b0024 	bleq	2c0c00 <__bss_end__+0x2b6a10>
     b6c:	08030b3e 	stmdaeq	r3, {r1, r2, r3, r4, r5, r8, r9, fp}
     b70:	24030000 	strcs	r0, [r3], #-0
     b74:	3e0b0b00 	vmlacc.f64	d0, d11, d0
     b78:	000e030b 	andeq	r0, lr, fp, lsl #6
     b7c:	01150400 	tsteq	r5, r0, lsl #8
     b80:	13491927 	movtne	r1, #39207	; 0x9927
     b84:	00001301 	andeq	r1, r0, r1, lsl #6
     b88:	49000505 	stmdbmi	r0, {r0, r2, r8, sl}
     b8c:	06000013 			; <UNDEFINED> instruction: 0x06000013
     b90:	0e030034 	mcreq	0, 0, r0, cr3, cr4, {1}
     b94:	0b3b0b3a 	bleq	ec3884 <__bss_end__+0xeb9694>
     b98:	13490b39 	movtne	r0, #39737	; 0x9b39
     b9c:	193c193f 	ldmdbne	ip!, {r0, r1, r2, r3, r4, r5, r8, fp, ip}
     ba0:	0f070000 	svceq	0x00070000
     ba4:	490b0b00 	stmdbmi	fp, {r8, r9, fp}
     ba8:	08000013 	stmdaeq	r0, {r0, r1, r4}
     bac:	13490026 	movtne	r0, #36902	; 0x9026
     bb0:	2e090000 	cdpcs	0, 0, cr0, cr9, cr0, {0}
     bb4:	03193f00 	tsteq	r9, #0, 30
     bb8:	3b0b3a0e 	blcc	2cf3f8 <__bss_end__+0x2c5208>
     bbc:	270b390b 	strcs	r3, [fp, -fp, lsl #18]
     bc0:	12011119 	andne	r1, r1, #1073741830	; 0x40000006
     bc4:	97184006 	ldrls	r4, [r8, -r6]
     bc8:	00001942 	andeq	r1, r0, r2, asr #18
     bcc:	01110100 	tsteq	r1, r0, lsl #2
     bd0:	0b130e25 	bleq	4c446c <__bss_end__+0x4ba27c>
     bd4:	0e1b0e03 	cdpeq	14, 1, cr0, cr11, cr3, {0}
     bd8:	01111755 	tsteq	r1, r5, asr r7
     bdc:	00001710 	andeq	r1, r0, r0, lsl r7
     be0:	0b002402 	bleq	9bf0 <__FUNCTION__.4030+0x40>
     be4:	030b3e0b 	movweq	r3, #48651	; 0xbe0b
     be8:	03000008 	movweq	r0, #8
     bec:	13490026 	movtne	r0, #36902	; 0x9026
     bf0:	24040000 	strcs	r0, [r4], #-0
     bf4:	3e0b0b00 	vmlacc.f64	d0, d11, d0
     bf8:	000e030b 	andeq	r0, lr, fp, lsl #6
     bfc:	01150500 	tsteq	r5, r0, lsl #10
     c00:	13491927 	movtne	r1, #39207	; 0x9927
     c04:	00001301 	andeq	r1, r0, r1, lsl #6
     c08:	49000506 	stmdbmi	r0, {r1, r2, r8, sl}
     c0c:	07000013 	smladeq	r0, r3, r0, r0
     c10:	0e030034 	mcreq	0, 0, r0, cr3, cr4, {1}
     c14:	0b3b0b3a 	bleq	ec3904 <__bss_end__+0xeb9714>
     c18:	13490b39 	movtne	r0, #39737	; 0x9b39
     c1c:	193c193f 	ldmdbne	ip!, {r0, r1, r2, r3, r4, r5, r8, fp, ip}
     c20:	0f080000 	svceq	0x00080000
     c24:	490b0b00 	stmdbmi	fp, {r8, r9, fp}
     c28:	09000013 	stmdbeq	r0, {r0, r1, r4}
     c2c:	0e030034 	mcreq	0, 0, r0, cr3, cr4, {1}
     c30:	0b3b0b3a 	bleq	ec3920 <__bss_end__+0xeb9730>
     c34:	13490b39 	movtne	r0, #39737	; 0x9b39
     c38:	2e0a0000 	cdpcs	0, 0, cr0, cr10, cr0, {0}
     c3c:	03193f01 	tsteq	r9, #1, 30
     c40:	3b0b3a0e 	blcc	2cf480 <__bss_end__+0x2c5290>
     c44:	270b390b 	strcs	r3, [fp, -fp, lsl #18]
     c48:	19018719 	stmdbne	r1, {r0, r3, r4, r8, r9, sl, pc}
     c4c:	06120111 			; <UNDEFINED> instruction: 0x06120111
     c50:	42971840 	addsmi	r1, r7, #64, 16	; 0x400000
     c54:	00130119 	andseq	r0, r3, r9, lsl r1
     c58:	00340b00 	eorseq	r0, r4, r0, lsl #22
     c5c:	0b3a0e03 	bleq	e84470 <__bss_end__+0xe7a280>
     c60:	0b390b3b 	bleq	e43954 <__bss_end__+0xe39764>
     c64:	061c1349 	ldreq	r1, [ip], -r9, asr #6
     c68:	340c0000 	strcc	r0, [ip], #-0
     c6c:	3a0e0300 	bcc	381874 <__bss_end__+0x377684>
     c70:	390b3b0b 	stmdbcc	fp, {r0, r1, r3, r8, r9, fp, ip, sp}
     c74:	1c13490b 			; <UNDEFINED> instruction: 0x1c13490b
     c78:	0d00000b 	stceq	0, cr0, [r0, #-44]	; 0xffffffd4
     c7c:	1331011d 	teqne	r1, #1073741831	; 0x40000007
     c80:	42b80152 	adcsmi	r0, r8, #-2147483628	; 0x80000014
     c84:	5817550b 	ldmdapl	r7, {r0, r1, r3, r8, sl, ip, lr}
     c88:	570b590b 	strpl	r5, [fp, -fp, lsl #18]
     c8c:	0013010b 	andseq	r0, r3, fp, lsl #2
     c90:	010b0e00 	tsteq	fp, r0, lsl #28
     c94:	00001755 	andeq	r1, r0, r5, asr r7
     c98:	3100340f 	tstcc	r0, pc, lsl #8
     c9c:	b7170213 			; <UNDEFINED> instruction: 0xb7170213
     ca0:	00001742 	andeq	r1, r0, r2, asr #14
     ca4:	31011d10 	tstcc	r1, r0, lsl sp
     ca8:	b8015213 	stmdalt	r1, {r0, r1, r4, r9, ip, lr}
     cac:	01110b42 	tsteq	r1, r2, asr #22
     cb0:	0b580612 	bleq	1602500 <__bss_end__+0x15f8310>
     cb4:	0b570b59 	bleq	15c3a20 <__bss_end__+0x15b9830>
     cb8:	00001301 	andeq	r1, r0, r1, lsl #6
     cbc:	01828911 	orreq	r8, r2, r1, lsl r9
     cc0:	31011100 	mrscc	r1, (UNDEF: 17)
     cc4:	12000013 	andne	r0, r0, #19, 0
     cc8:	01018289 	smlabbeq	r1, r9, r2, r8
     ccc:	13310111 	teqne	r1, #1073741828	; 0x40000004
     cd0:	00001301 	andeq	r1, r0, r1, lsl #6
     cd4:	01828a13 	orreq	r8, r2, r3, lsl sl
     cd8:	91180200 	tstls	r8, r0, lsl #4
     cdc:	00001842 	andeq	r1, r0, r2, asr #16
     ce0:	01828914 	orreq	r8, r2, r4, lsl r9
     ce4:	31011101 	tstcc	r1, r1, lsl #2
     ce8:	15000013 	strne	r0, [r0, #-19]	; 0xffffffed
     cec:	193f012e 	ldmdbne	pc!, {r1, r2, r3, r5, r8}	; <UNPREDICTABLE>
     cf0:	0b3a0e03 	bleq	e84504 <__bss_end__+0xe7a314>
     cf4:	0b390b3b 	bleq	e439e8 <__bss_end__+0xe397f8>
     cf8:	0b201927 	bleq	80719c <__bss_end__+0x7fcfac>
     cfc:	00001301 	andeq	r1, r0, r1, lsl #6
     d00:	3f012e16 	svccc	0x00012e16
     d04:	3a0e0319 	bcc	381970 <__bss_end__+0x377780>
     d08:	390b3b0b 	stmdbcc	fp, {r0, r1, r3, r8, r9, fp, ip, sp}
     d0c:	4919270b 	ldmdbmi	r9, {r0, r1, r3, r8, r9, sl, sp}
     d10:	010b2013 	tsteq	fp, r3, lsl r0
     d14:	17000013 	smladne	r0, r3, r0, r0
     d18:	1331012e 	teqne	r1, #-2147483637	; 0x8000000b
     d1c:	06120111 			; <UNDEFINED> instruction: 0x06120111
     d20:	42971840 	addsmi	r1, r7, #64, 16	; 0x400000
     d24:	00130119 	andseq	r0, r3, r9, lsl r1
     d28:	002e1800 	eoreq	r1, lr, r0, lsl #16
     d2c:	193c193f 	ldmdbne	ip!, {r0, r1, r2, r3, r4, r5, r8, fp, ip}
     d30:	0e030e6e 	cdpeq	14, 0, cr0, cr3, cr14, {3}
     d34:	053b0b3a 	ldreq	r0, [fp, #-2874]!	; 0xfffff4c6
     d38:	00000b39 	andeq	r0, r0, r9, lsr fp
     d3c:	3f002e19 	svccc	0x00002e19
     d40:	6e193c19 	mrcvs	12, 0, r3, cr9, cr9, {0}
     d44:	3a0e030e 	bcc	381984 <__bss_end__+0x377794>
     d48:	390b3b0b 	stmdbcc	fp, {r0, r1, r3, r8, r9, fp, ip, sp}
     d4c:	0000000b 	andeq	r0, r0, fp
     d50:	25011101 	strcs	r1, [r1, #-257]	; 0xfffffeff
     d54:	030b130e 	movweq	r1, #45838	; 0xb30e
     d58:	110e1b0e 	tstne	lr, lr, lsl #22
     d5c:	10061201 	andne	r1, r6, r1, lsl #4
     d60:	02000017 	andeq	r0, r0, #23, 0
     d64:	0b0b0024 	bleq	2c0dfc <__bss_end__+0x2b6c0c>
     d68:	08030b3e 	stmdaeq	r3, {r1, r2, r3, r4, r5, r8, r9, fp}
     d6c:	24030000 	strcs	r0, [r3], #-0
     d70:	3e0b0b00 	vmlacc.f64	d0, d11, d0
     d74:	000e030b 	andeq	r0, lr, fp, lsl #6
     d78:	01150400 	tsteq	r5, r0, lsl #8
     d7c:	13491927 	movtne	r1, #39207	; 0x9927
     d80:	00001301 	andeq	r1, r0, r1, lsl #6
     d84:	49000505 	stmdbmi	r0, {r0, r2, r8, sl}
     d88:	06000013 			; <UNDEFINED> instruction: 0x06000013
     d8c:	0e030034 	mcreq	0, 0, r0, cr3, cr4, {1}
     d90:	0b3b0b3a 	bleq	ec3a80 <__bss_end__+0xeb9890>
     d94:	13490b39 	movtne	r0, #39737	; 0x9b39
     d98:	193c193f 	ldmdbne	ip!, {r0, r1, r2, r3, r4, r5, r8, fp, ip}
     d9c:	0f070000 	svceq	0x00070000
     da0:	490b0b00 	stmdbmi	fp, {r8, r9, fp}
     da4:	08000013 	stmdaeq	r0, {r0, r1, r4}
     da8:	13490026 	movtne	r0, #36902	; 0x9026
     dac:	2e090000 	cdpcs	0, 0, cr0, cr9, cr0, {0}
     db0:	03193f01 	tsteq	r9, #1, 30
     db4:	3b0b3a0e 	blcc	2cf5f4 <__bss_end__+0x2c5404>
     db8:	270b390b 	strcs	r3, [fp, -fp, lsl #18]
     dbc:	12011119 	andne	r1, r1, #1073741830	; 0x40000006
     dc0:	97184006 	ldrls	r4, [r8, -r6]
     dc4:	13011942 	movwne	r1, #6466	; 0x1942
     dc8:	050a0000 	streq	r0, [sl, #-0]
     dcc:	3a080300 	bcc	2019d4 <__bss_end__+0x1f77e4>
     dd0:	390b3b0b 	stmdbcc	fp, {r0, r1, r3, r8, r9, fp, ip, sp}
     dd4:	0213490b 	andseq	r4, r3, #180224	; 0x2c000
     dd8:	1742b717 	smlaldne	fp, r2, r7, r7
     ddc:	1d0b0000 	stcne	0, cr0, [fp, #-0]
     de0:	52133101 	andspl	r3, r3, #1073741824	; 0x40000000
     de4:	0b42b801 	bleq	10aedf0 <__bss_end__+0x10a4c00>
     de8:	0b581755 	bleq	1606b44 <__bss_end__+0x15fc954>
     dec:	0b570b59 	bleq	15c3b58 <__bss_end__+0x15b9968>
     df0:	050c0000 	streq	r0, [ip, #-0]
     df4:	02133100 	andseq	r3, r3, #0
     df8:	1742b717 	smlaldne	fp, r2, r7, r7
     dfc:	1d0d0000 	stcne	0, cr0, [sp, #-0]
     e00:	52133101 	andspl	r3, r3, #1073741824	; 0x40000000
     e04:	0b42b801 	bleq	10aee10 <__bss_end__+0x10a4c20>
     e08:	06120111 			; <UNDEFINED> instruction: 0x06120111
     e0c:	0b590b58 	bleq	1643b74 <__bss_end__+0x1639984>
     e10:	00000b57 	andeq	r0, r0, r7, asr fp
     e14:	3100340e 	tstcc	r0, lr, lsl #8
     e18:	b7170213 			; <UNDEFINED> instruction: 0xb7170213
     e1c:	00001742 	andeq	r1, r0, r2, asr #14
     e20:	31011d0f 	tstcc	r1, pc, lsl #26
     e24:	b8015213 	stmdalt	r1, {r0, r1, r4, r9, ip, lr}
     e28:	01110b42 	tsteq	r1, r2, asr #22
     e2c:	0b580612 	bleq	160267c <__bss_end__+0x15f848c>
     e30:	0b570b59 	bleq	15c3b9c <__bss_end__+0x15b99ac>
     e34:	00001301 	andeq	r1, r0, r1, lsl #6
     e38:	01828910 	orreq	r8, r2, r0, lsl r9
     e3c:	31011101 	tstcc	r1, r1, lsl #2
     e40:	11000013 	tstne	r0, r3, lsl r0
     e44:	0001828a 	andeq	r8, r1, sl, lsl #5
     e48:	42911802 	addsmi	r1, r1, #131072	; 0x20000
     e4c:	12000018 	andne	r0, r0, #24, 0
     e50:	00018289 	andeq	r8, r1, r9, lsl #5
     e54:	13310111 	teqne	r1, #1073741828	; 0x40000004
     e58:	0b130000 	bleq	4c0e60 <__bss_end__+0x4b6c70>
     e5c:	55133101 	ldrpl	r3, [r3, #-257]	; 0xfffffeff
     e60:	14000017 	strne	r0, [r0], #-23	; 0xffffffe9
     e64:	13310034 	teqne	r1, #52, 0	; 0x34
     e68:	0b150000 	bleq	540e70 <__bss_end__+0x536c80>
     e6c:	00175501 	andseq	r5, r7, r1, lsl #10
     e70:	011d1600 	tsteq	sp, r0, lsl #12
     e74:	01521331 	cmpeq	r2, r1, lsr r3
     e78:	550b42b8 	strpl	r4, [fp, #-696]	; 0xfffffd48
     e7c:	590b5817 	stmdbpl	fp, {r0, r1, r2, r4, fp, ip, lr}
     e80:	010b570b 	tsteq	fp, fp, lsl #14
     e84:	17000013 	smladne	r0, r3, r0, r0
     e88:	193f012e 	ldmdbne	pc!, {r1, r2, r3, r5, r8}	; <UNPREDICTABLE>
     e8c:	0b3a0e03 	bleq	e846a0 <__bss_end__+0xe7a4b0>
     e90:	0b390b3b 	bleq	e43b84 <__bss_end__+0xe39994>
     e94:	0b201927 	bleq	807338 <__bss_end__+0x7fd148>
     e98:	00001301 	andeq	r1, r0, r1, lsl #6
     e9c:	03000518 	movweq	r0, #1304	; 0x518
     ea0:	3b0b3a08 	blcc	2cf6c8 <__bss_end__+0x2c54d8>
     ea4:	490b390b 	stmdbmi	fp, {r0, r1, r3, r8, fp, ip, sp}
     ea8:	19000013 	stmdbne	r0, {r0, r1, r4}
     eac:	08030034 	stmdaeq	r3, {r2, r4, r5}
     eb0:	0b3b0b3a 	bleq	ec3ba0 <__bss_end__+0xeb99b0>
     eb4:	13490b39 	movtne	r0, #39737	; 0x9b39
     eb8:	0b1a0000 	bleq	680ec0 <__bss_end__+0x676cd0>
     ebc:	1b000001 	blne	ec8 <__code_start__-0x7138>
     ec0:	193f012e 	ldmdbne	pc!, {r1, r2, r3, r5, r8}	; <UNPREDICTABLE>
     ec4:	0b3a0e03 	bleq	e846d8 <__bss_end__+0xe7a4e8>
     ec8:	0b390b3b 	bleq	e43bbc <__bss_end__+0xe399cc>
     ecc:	13491927 	movtne	r1, #39207	; 0x9927
     ed0:	13010b20 	movwne	r0, #6944	; 0x1b20
     ed4:	2e1c0000 	cdpcs	0, 1, cr0, cr12, cr0, {0}
     ed8:	03193f00 	tsteq	r9, #0, 30
     edc:	3b0b3a0e 	blcc	2cf71c <__bss_end__+0x2c552c>
     ee0:	270b390b 	strcs	r3, [fp, -fp, lsl #18]
     ee4:	20134919 	andscs	r4, r3, r9, lsl r9
     ee8:	1d00000b 	stcne	0, cr0, [r0, #-44]	; 0xffffffd4
     eec:	1331012e 	teqne	r1, #-2147483637	; 0x8000000b
     ef0:	06120111 			; <UNDEFINED> instruction: 0x06120111
     ef4:	42971840 	addsmi	r1, r7, #64, 16	; 0x400000
     ef8:	00130119 	andseq	r0, r3, r9, lsl r1
     efc:	82891e00 	addhi	r1, r9, #0, 28
     f00:	01110101 	tsteq	r1, r1, lsl #2
     f04:	31194295 			; <UNDEFINED> instruction: 0x31194295
     f08:	1f000013 	svcne	0x00000013
     f0c:	193f002e 	ldmdbne	pc!, {r1, r2, r3, r5}	; <UNPREDICTABLE>
     f10:	0e6e193c 			; <UNDEFINED> instruction: 0x0e6e193c
     f14:	0b3a0e03 	bleq	e84728 <__bss_end__+0xe7a538>
     f18:	0b390b3b 	bleq	e43c0c <__bss_end__+0xe39a1c>
     f1c:	01000000 	mrseq	r0, (UNDEF: 0)
     f20:	0e250111 	mcreq	1, 1, r0, cr5, cr1, {0}
     f24:	0e030b13 	vmoveq.32	d3[0], r0
     f28:	01110e1b 	tsteq	r1, fp, lsl lr
     f2c:	17100612 			; <UNDEFINED> instruction: 0x17100612
     f30:	24020000 	strcs	r0, [r2], #-0
     f34:	3e0b0b00 	vmlacc.f64	d0, d11, d0
     f38:	0008030b 	andeq	r0, r8, fp, lsl #6
     f3c:	00240300 	eoreq	r0, r4, r0, lsl #6
     f40:	0b3e0b0b 	bleq	f83b74 <__bss_end__+0xf79984>
     f44:	00000e03 	andeq	r0, r0, r3, lsl #28
     f48:	49003504 	stmdbmi	r0, {r2, r8, sl, ip, sp}
     f4c:	05000013 	streq	r0, [r0, #-19]	; 0xffffffed
     f50:	0e030016 	mcreq	0, 0, r0, cr3, cr6, {0}
     f54:	0b3b0b3a 	bleq	ec3c44 <__bss_end__+0xeb9a54>
     f58:	13490b39 	movtne	r0, #39737	; 0x9b39
     f5c:	04060000 	streq	r0, [r6], #-0
     f60:	0b0b3e01 	bleq	2d076c <__bss_end__+0x2c657c>
     f64:	3a13490b 	bcc	4d3398 <__bss_end__+0x4c91a8>
     f68:	390b3b0b 	stmdbcc	fp, {r0, r1, r3, r8, r9, fp, ip, sp}
     f6c:	0013010b 	andseq	r0, r3, fp, lsl #2
     f70:	00280700 	eoreq	r0, r8, r0, lsl #14
     f74:	0b1c0e03 	bleq	704788 <__bss_end__+0x6fa598>
     f78:	13080000 	movwne	r0, #32768	; 0x8000
     f7c:	0b0e0301 	bleq	381b88 <__bss_end__+0x377998>
     f80:	3b0b3a0b 	blcc	2cf7b4 <__bss_end__+0x2c55c4>
     f84:	010b390b 	tsteq	fp, fp, lsl #18
     f88:	09000013 	stmdbeq	r0, {r0, r1, r4}
     f8c:	0803000d 	stmdaeq	r3, {r0, r2, r3}
     f90:	0b3b0b3a 	bleq	ec3c80 <__bss_end__+0xeb9a90>
     f94:	13490b39 	movtne	r0, #39737	; 0x9b39
     f98:	00000b38 	andeq	r0, r0, r8, lsr fp
     f9c:	03000d0a 	movweq	r0, #3338	; 0xd0a
     fa0:	3b0b3a0e 	blcc	2cf7e0 <__bss_end__+0x2c55f0>
     fa4:	490b390b 	stmdbmi	fp, {r0, r1, r3, r8, fp, ip, sp}
     fa8:	000b3813 	andeq	r3, fp, r3, lsl r8
     fac:	00340b00 	eorseq	r0, r4, r0, lsl #22
     fb0:	0b3a0e03 	bleq	e847c4 <__bss_end__+0xe7a5d4>
     fb4:	0b390b3b 	bleq	e43ca8 <__bss_end__+0xe39ab8>
     fb8:	061c1349 	ldreq	r1, [ip], -r9, asr #6
     fbc:	0f0c0000 	svceq	0x000c0000
     fc0:	490b0b00 	stmdbmi	fp, {r8, r9, fp}
     fc4:	0d000013 	stceq	0, cr0, [r0, #-76]	; 0xffffffb4
     fc8:	13490026 	movtne	r0, #36902	; 0x9026
     fcc:	2e0e0000 	cdpcs	0, 0, cr0, cr14, cr0, {0}
     fd0:	03193f01 	tsteq	r9, #1, 30
     fd4:	3b0b3a0e 	blcc	2cf814 <__bss_end__+0x2c5624>
     fd8:	270b390b 	strcs	r3, [fp, -fp, lsl #18]
     fdc:	12011119 	andne	r1, r1, #1073741830	; 0x40000006
     fe0:	97184006 	ldrls	r4, [r8, -r6]
     fe4:	13011942 	movwne	r1, #6466	; 0x1942
     fe8:	890f0000 	stmdbhi	pc, {}	; <UNPREDICTABLE>
     fec:	11000182 	smlabbne	r0, r2, r1, r0
     ff0:	00133101 	andseq	r3, r3, r1, lsl #2
     ff4:	012e1000 			; <UNDEFINED> instruction: 0x012e1000
     ff8:	0e03193f 			; <UNDEFINED> instruction: 0x0e03193f
     ffc:	0b3b0b3a 	bleq	ec3cec <__bss_end__+0xeb9afc>
    1000:	19270b39 	stmdbne	r7!, {r0, r3, r4, r5, r8, r9, fp}
    1004:	01111349 	tsteq	r1, r9, asr #6
    1008:	18400612 	stmdane	r0, {r1, r4, r9, sl}^
    100c:	01194297 			; <UNDEFINED> instruction: 0x01194297
    1010:	11000013 	tstne	r0, r3, lsl r0
    1014:	01018289 	smlabbeq	r1, r9, r2, r8
    1018:	13310111 	teqne	r1, #1073741828	; 0x40000004
    101c:	8a120000 	bhi	481024 <__bss_end__+0x476e34>
    1020:	02000182 	andeq	r0, r0, #-2147483616	; 0x80000020
    1024:	18429118 	stmdane	r2, {r3, r4, r8, ip, pc}^
    1028:	05130000 	ldreq	r0, [r3, #-0]
    102c:	3a080300 	bcc	201c34 <__bss_end__+0x1f7a44>
    1030:	390b3b0b 	stmdbcc	fp, {r0, r1, r3, r8, r9, fp, ip, sp}
    1034:	0213490b 	andseq	r4, r3, #180224	; 0x2c000
    1038:	1742b717 	smlaldne	fp, r2, r7, r7
    103c:	89140000 	ldmdbhi	r4, {}	; <UNPREDICTABLE>
    1040:	11010182 	smlabbne	r1, r2, r1, r0
    1044:	01133101 	tsteq	r3, r1, lsl #2
    1048:	15000013 	strne	r0, [r0, #-19]	; 0xffffffed
    104c:	08030034 	stmdaeq	r3, {r2, r4, r5}
    1050:	0b3b0b3a 	bleq	ec3d40 <__bss_end__+0xeb9b50>
    1054:	13490b39 	movtne	r0, #39737	; 0x9b39
    1058:	42b71702 	adcsmi	r1, r7, #524288	; 0x80000
    105c:	16000017 			; <UNDEFINED> instruction: 0x16000017
    1060:	0e030034 	mcreq	0, 0, r0, cr3, cr4, {1}
    1064:	0b3b0b3a 	bleq	ec3d54 <__bss_end__+0xeb9b64>
    1068:	13490b39 	movtne	r0, #39737	; 0x9b39
    106c:	0000051c 	andeq	r0, r0, ip, lsl r5
    1070:	03012e17 	movweq	r2, #7703	; 0x1e17
    1074:	3b0b3a0e 	blcc	2cf8b4 <__bss_end__+0x2c56c4>
    1078:	270b390b 	strcs	r3, [fp, -fp, lsl #18]
    107c:	12011119 	andne	r1, r1, #1073741830	; 0x40000006
    1080:	97184006 	ldrls	r4, [r8, -r6]
    1084:	13011942 	movwne	r1, #6466	; 0x1942
    1088:	05180000 	ldreq	r0, [r8, #-0]
    108c:	3a0e0300 	bcc	381c94 <__bss_end__+0x377aa4>
    1090:	390b3b0b 	stmdbcc	fp, {r0, r1, r3, r8, r9, fp, ip, sp}
    1094:	0213490b 	andseq	r4, r3, #180224	; 0x2c000
    1098:	1742b717 	smlaldne	fp, r2, r7, r7
    109c:	35190000 	ldrcc	r0, [r9, #-0]
    10a0:	1a000000 	bne	10a8 <__code_start__-0x6f58>
    10a4:	193f002e 	ldmdbne	pc!, {r1, r2, r3, r5}	; <UNPREDICTABLE>
    10a8:	0e6e193c 			; <UNDEFINED> instruction: 0x0e6e193c
    10ac:	0b3a0e03 	bleq	e848c0 <__bss_end__+0xe7a6d0>
    10b0:	0b390b3b 	bleq	e43da4 <__bss_end__+0xe39bb4>
    10b4:	01000000 	mrseq	r0, (UNDEF: 0)
    10b8:	0e250111 	mcreq	1, 1, r0, cr5, cr1, {0}
    10bc:	0e030b13 	vmoveq.32	d3[0], r0
    10c0:	01110e1b 	tsteq	r1, fp, lsl lr
    10c4:	17100612 			; <UNDEFINED> instruction: 0x17100612
    10c8:	24020000 	strcs	r0, [r2], #-0
    10cc:	3e0b0b00 	vmlacc.f64	d0, d11, d0
    10d0:	0008030b 	andeq	r0, r8, fp, lsl #6
    10d4:	00240300 	eoreq	r0, r4, r0, lsl #6
    10d8:	0b3e0b0b 	bleq	f83d0c <__bss_end__+0xf79b1c>
    10dc:	00000e03 	andeq	r0, r0, r3, lsl #28
    10e0:	03001604 	movweq	r1, #1540	; 0x604
    10e4:	3b0b3a0e 	blcc	2cf924 <__bss_end__+0x2c5734>
    10e8:	490b390b 	stmdbmi	fp, {r0, r1, r3, r8, fp, ip, sp}
    10ec:	05000013 	streq	r0, [r0, #-19]	; 0xffffffed
    10f0:	13490026 	movtne	r0, #36902	; 0x9026
    10f4:	0f060000 	svceq	0x00060000
    10f8:	000b0b00 	andeq	r0, fp, r0, lsl #22
    10fc:	01040700 	tsteq	r4, r0, lsl #14
    1100:	0b0b0b3e 	bleq	2c3e00 <__bss_end__+0x2b9c10>
    1104:	0b3a1349 	bleq	e85e30 <__bss_end__+0xe7bc40>
    1108:	0b390b3b 	bleq	e43dfc <__bss_end__+0xe39c0c>
    110c:	00001301 	andeq	r1, r0, r1, lsl #6
    1110:	03002808 	movweq	r2, #2056	; 0x808
    1114:	00061c0e 	andeq	r1, r6, lr, lsl #24
    1118:	00340900 	eorseq	r0, r4, r0, lsl #18
    111c:	0b3a0e03 	bleq	e84930 <__bss_end__+0xe7a740>
    1120:	0b390b3b 	bleq	e43e14 <__bss_end__+0xe39c24>
    1124:	193f1349 	ldmdbne	pc!, {r0, r3, r6, r8, r9, ip}	; <UNPREDICTABLE>
    1128:	0000193c 	andeq	r1, r0, ip, lsr r9
    112c:	0300340a 	movweq	r3, #1034	; 0x40a
    1130:	3b0b3a0e 	blcc	2cf970 <__bss_end__+0x2c5780>
    1134:	490b390b 	stmdbmi	fp, {r0, r1, r3, r8, fp, ip, sp}
    1138:	00180213 	andseq	r0, r8, r3, lsl r2
    113c:	000f0b00 	andeq	r0, pc, r0, lsl #22
    1140:	13490b0b 	movtne	r0, #39691	; 0x9b0b
    1144:	2e0c0000 	cdpcs	0, 0, cr0, cr12, cr0, {0}
    1148:	03193f01 	tsteq	r9, #1, 30
    114c:	3b0b3a0e 	blcc	2cf98c <__bss_end__+0x2c579c>
    1150:	270b390b 	strcs	r3, [fp, -fp, lsl #18]
    1154:	12011119 	andne	r1, r1, #1073741830	; 0x40000006
    1158:	97184006 	ldrls	r4, [r8, -r6]
    115c:	13011942 	movwne	r1, #6466	; 0x1942
    1160:	050d0000 	streq	r0, [sp, #-0]
    1164:	3a080300 	bcc	201d6c <__bss_end__+0x1f7b7c>
    1168:	390b3b0b 	stmdbcc	fp, {r0, r1, r3, r8, r9, fp, ip, sp}
    116c:	0213490b 	andseq	r4, r3, #180224	; 0x2c000
    1170:	1742b717 	smlaldne	fp, r2, r7, r7
    1174:	340e0000 	strcc	r0, [lr], #-0
    1178:	490e0300 	stmdbmi	lr, {r8, r9}
    117c:	02193413 	andseq	r3, r9, #318767104	; 0x13000000
    1180:	0f000018 	svceq	0x00000018
    1184:	01018289 	smlabbeq	r1, r9, r2, r8
    1188:	13310111 	teqne	r1, #1073741828	; 0x40000004
    118c:	00001301 	andeq	r1, r0, r1, lsl #6
    1190:	01828a10 	orreq	r8, r2, r0, lsl sl
    1194:	91180200 	tstls	r8, r0, lsl #4
    1198:	00001842 	andeq	r1, r0, r2, asr #16
    119c:	01828911 	orreq	r8, r2, r1, lsl r9
    11a0:	31011100 	mrscc	r1, (UNDEF: 17)
    11a4:	12000013 	andne	r0, r0, #19, 0
    11a8:	13490101 	movtne	r0, #37121	; 0x9101
    11ac:	00001301 	andeq	r1, r0, r1, lsl #6
    11b0:	49002113 	stmdbmi	r0, {r0, r1, r4, r8, sp}
    11b4:	000b2f13 	andeq	r2, fp, r3, lsl pc
    11b8:	002e1400 	eoreq	r1, lr, r0, lsl #8
    11bc:	0e03193f 			; <UNDEFINED> instruction: 0x0e03193f
    11c0:	0b3b0b3a 	bleq	ec3eb0 <__bss_end__+0xeb9cc0>
    11c4:	19270b39 	stmdbne	r7!, {r0, r3, r4, r5, r8, r9, fp}
    11c8:	06120111 			; <UNDEFINED> instruction: 0x06120111
    11cc:	42971840 	addsmi	r1, r7, #64, 16	; 0x400000
    11d0:	15000019 	strne	r0, [r0, #-25]	; 0xffffffe7
    11d4:	08030005 	stmdaeq	r3, {r0, r2}
    11d8:	0b3b0b3a 	bleq	ec3ec8 <__bss_end__+0xeb9cd8>
    11dc:	13490b39 	movtne	r0, #39737	; 0x9b39
    11e0:	00001802 	andeq	r1, r0, r2, lsl #16
    11e4:	3f012e16 	svccc	0x00012e16
    11e8:	3a0e0319 	bcc	381e54 <__bss_end__+0x377c64>
    11ec:	390b3b0b 	stmdbcc	fp, {r0, r1, r3, r8, r9, fp, ip, sp}
    11f0:	4919270b 	ldmdbmi	r9, {r0, r1, r3, r8, r9, sl, sp}
    11f4:	12011113 	andne	r1, r1, #-1073741820	; 0xc0000004
    11f8:	97184006 	ldrls	r4, [r8, -r6]
    11fc:	13011942 	movwne	r1, #6466	; 0x1942
    1200:	05170000 	ldreq	r0, [r7, #-0]
    1204:	3a0e0300 	bcc	381e0c <__bss_end__+0x377c1c>
    1208:	390b3b0b 	stmdbcc	fp, {r0, r1, r3, r8, r9, fp, ip, sp}
    120c:	0213490b 	andseq	r4, r3, #180224	; 0x2c000
    1210:	1742b717 	smlaldne	fp, r2, r7, r7
    1214:	34180000 	ldrcc	r0, [r8], #-0
    1218:	3a080300 	bcc	201e20 <__bss_end__+0x1f7c30>
    121c:	390b3b0b 	stmdbcc	fp, {r0, r1, r3, r8, r9, fp, ip, sp}
    1220:	0213490b 	andseq	r4, r3, #180224	; 0x2c000
    1224:	1742b717 	smlaldne	fp, r2, r7, r7
    1228:	1d190000 	ldcne	0, cr0, [r9, #-0]
    122c:	52133101 	andspl	r3, r3, #1073741824	; 0x40000000
    1230:	0b42b801 	bleq	10af23c <__bss_end__+0x10a504c>
    1234:	06120111 			; <UNDEFINED> instruction: 0x06120111
    1238:	0b590b58 	bleq	1643fa0 <__bss_end__+0x1639db0>
    123c:	13010b57 	movwne	r0, #6999	; 0x1b57
    1240:	051a0000 	ldreq	r0, [sl, #-0]
    1244:	02133100 	andseq	r3, r3, #0
    1248:	1742b717 	smlaldne	fp, r2, r7, r7
    124c:	1d1b0000 	ldcne	0, cr0, [fp, #-0]
    1250:	52133101 	andspl	r3, r3, #1073741824	; 0x40000000
    1254:	0b42b801 	bleq	10af260 <__bss_end__+0x10a5070>
    1258:	0b581755 	bleq	1606fb4 <__bss_end__+0x15fcdc4>
    125c:	0b570b59 	bleq	15c3fc8 <__bss_end__+0x15b9dd8>
    1260:	00001301 	andeq	r1, r0, r1, lsl #6
    1264:	55010b1c 	strpl	r0, [r1, #-2844]	; 0xfffff4e4
    1268:	1d000017 	stcne	0, cr0, [r0, #-92]	; 0xffffffa4
    126c:	0e030034 	mcreq	0, 0, r0, cr3, cr4, {1}
    1270:	0b3b0b3a 	bleq	ec3f60 <__bss_end__+0xeb9d70>
    1274:	13490b39 	movtne	r0, #39737	; 0x9b39
    1278:	42b71702 	adcsmi	r1, r7, #524288	; 0x80000
    127c:	1e000017 	mcrne	0, 0, r0, cr0, cr7, {0}
    1280:	1755000b 	ldrbne	r0, [r5, -fp]
    1284:	2e1f0000 	cdpcs	0, 1, cr0, cr15, cr0, {0}
    1288:	03193f00 	tsteq	r9, #0, 30
    128c:	3b0b3a0e 	blcc	2cfacc <__bss_end__+0x2c58dc>
    1290:	270b390b 	strcs	r3, [fp, -fp, lsl #18]
    1294:	11134919 	tstne	r3, r9, lsl r9
    1298:	40061201 	andmi	r1, r6, r1, lsl #4
    129c:	19429718 	stmdbne	r2, {r3, r4, r8, r9, sl, ip, pc}^
    12a0:	2e200000 	cdpcs	0, 2, cr0, cr0, cr0, {0}
    12a4:	3a0e0301 	bcc	381eb0 <__bss_end__+0x377cc0>
    12a8:	390b3b0b 	stmdbcc	fp, {r0, r1, r3, r8, r9, fp, ip, sp}
    12ac:	4919270b 	ldmdbmi	r9, {r0, r1, r3, r8, r9, sl, sp}
    12b0:	010b2013 	tsteq	fp, r3, lsl r0
    12b4:	21000013 	tstcs	r0, r3, lsl r0
    12b8:	08030005 	stmdaeq	r3, {r0, r2}
    12bc:	0b3b0b3a 	bleq	ec3fac <__bss_end__+0xeb9dbc>
    12c0:	13490b39 	movtne	r0, #39737	; 0x9b39
    12c4:	2e220000 	cdpcs	0, 2, cr0, cr2, cr0, {0}
    12c8:	3c193f00 	ldccc	15, cr3, [r9], {-0}
    12cc:	030e6e19 	movweq	r6, #60953	; 0xee19
    12d0:	3b0b3a0e 	blcc	2cfb10 <__bss_end__+0x2c5920>
    12d4:	000b390b 	andeq	r3, fp, fp, lsl #18
    12d8:	11010000 	mrsne	r0, (UNDEF: 1)
    12dc:	130e2501 	movwne	r2, #58625	; 0xe501
    12e0:	1b0e030b 	blne	381f14 <__bss_end__+0x377d24>
    12e4:	1201110e 	andne	r1, r1, #-2147483645	; 0x80000003
    12e8:	00171006 	andseq	r1, r7, r6
    12ec:	00240200 	eoreq	r0, r4, r0, lsl #4
    12f0:	0b3e0b0b 	bleq	f83f24 <__bss_end__+0xf79d34>
    12f4:	00000e03 	andeq	r0, r0, r3, lsl #28
    12f8:	0b002403 	bleq	a30c <__bss_end__+0x11c>
    12fc:	030b3e0b 	movweq	r3, #48651	; 0xbe0b
    1300:	04000008 	streq	r0, [r0], #-8
    1304:	13490026 	movtne	r0, #36902	; 0x9026
    1308:	16050000 	strne	r0, [r5], -r0
    130c:	3a0e0300 	bcc	381f14 <__bss_end__+0x377d24>
    1310:	390b3b0b 	stmdbcc	fp, {r0, r1, r3, r8, r9, fp, ip, sp}
    1314:	0013490b 	andseq	r4, r3, fp, lsl #18
    1318:	01150600 	tsteq	r5, r0, lsl #12
    131c:	13491927 	movtne	r1, #39207	; 0x9927
    1320:	00001301 	andeq	r1, r0, r1, lsl #6
    1324:	49000507 	stmdbmi	r0, {r0, r1, r2, r8, sl}
    1328:	08000013 	stmdaeq	r0, {r0, r1, r4}
    132c:	0e030034 	mcreq	0, 0, r0, cr3, cr4, {1}
    1330:	0b3b0b3a 	bleq	ec4020 <__bss_end__+0xeb9e30>
    1334:	13490b39 	movtne	r0, #39737	; 0x9b39
    1338:	193c193f 	ldmdbne	ip!, {r0, r1, r2, r3, r4, r5, r8, fp, ip}
    133c:	0f090000 	svceq	0x00090000
    1340:	490b0b00 	stmdbmi	fp, {r8, r9, fp}
    1344:	0a000013 	beq	1398 <__code_start__-0x6c68>
    1348:	0b3e0104 	bleq	f81760 <__bss_end__+0xf77570>
    134c:	13490b0b 	movtne	r0, #39691	; 0x9b0b
    1350:	0b3b0b3a 	bleq	ec4040 <__bss_end__+0xeb9e50>
    1354:	13010b39 	movwne	r0, #6969	; 0x1b39
    1358:	280b0000 	stmdacs	fp, {}	; <UNPREDICTABLE>
    135c:	1c0e0300 	stcne	3, cr0, [lr], {-0}
    1360:	0c00000b 	stceq	0, cr0, [r0], {11}
    1364:	0e030034 	mcreq	0, 0, r0, cr3, cr4, {1}
    1368:	0b3b0b3a 	bleq	ec4058 <__bss_end__+0xeb9e68>
    136c:	13490b39 	movtne	r0, #39737	; 0x9b39
    1370:	0000061c 	andeq	r0, r0, ip, lsl r6
    1374:	3f012e0d 	svccc	0x00012e0d
    1378:	3a0e0319 	bcc	381fe4 <__bss_end__+0x377df4>
    137c:	390b3b0b 	stmdbcc	fp, {r0, r1, r3, r8, r9, fp, ip, sp}
    1380:	4919270b 	ldmdbmi	r9, {r0, r1, r3, r8, r9, sl, sp}
    1384:	12011113 	andne	r1, r1, #-1073741820	; 0xc0000004
    1388:	97184006 	ldrls	r4, [r8, -r6]
    138c:	13011942 	movwne	r1, #6466	; 0x1942
    1390:	050e0000 	streq	r0, [lr, #-0]
    1394:	3a080300 	bcc	201f9c <__bss_end__+0x1f7dac>
    1398:	390b3b0b 	stmdbcc	fp, {r0, r1, r3, r8, r9, fp, ip, sp}
    139c:	0213490b 	andseq	r4, r3, #180224	; 0x2c000
    13a0:	1742b717 	smlaldne	fp, r2, r7, r7
    13a4:	340f0000 	strcc	r0, [pc], #-0	; 13ac <__code_start__-0x6c54>
    13a8:	3a0e0300 	bcc	381fb0 <__bss_end__+0x377dc0>
    13ac:	390b3b0b 	stmdbcc	fp, {r0, r1, r3, r8, r9, fp, ip, sp}
    13b0:	0213490b 	andseq	r4, r3, #180224	; 0x2c000
    13b4:	1742b717 	smlaldne	fp, r2, r7, r7
    13b8:	34100000 	ldrcc	r0, [r0], #-0
    13bc:	3a080300 	bcc	201fc4 <__bss_end__+0x1f7dd4>
    13c0:	390b3b0b 	stmdbcc	fp, {r0, r1, r3, r8, r9, fp, ip, sp}
    13c4:	0213490b 	andseq	r4, r3, #180224	; 0x2c000
    13c8:	1742b717 	smlaldne	fp, r2, r7, r7
    13cc:	89110000 	ldmdbhi	r1, {}	; <UNPREDICTABLE>
    13d0:	11010182 	smlabbne	r1, r2, r1, r0
    13d4:	00133101 	andseq	r3, r3, r1, lsl #2
    13d8:	828a1200 	addhi	r1, sl, #0, 4
    13dc:	18020001 	stmdane	r2, {r0}
    13e0:	00184291 	mulseq	r8, r1, r2
    13e4:	012e1300 			; <UNDEFINED> instruction: 0x012e1300
    13e8:	0e03193f 			; <UNDEFINED> instruction: 0x0e03193f
    13ec:	0b3b0b3a 	bleq	ec40dc <__bss_end__+0xeb9eec>
    13f0:	19270b39 	stmdbne	r7!, {r0, r3, r4, r5, r8, r9, fp}
    13f4:	06120111 			; <UNDEFINED> instruction: 0x06120111
    13f8:	42971840 	addsmi	r1, r7, #64, 16	; 0x400000
    13fc:	00130119 	andseq	r0, r3, r9, lsl r1
    1400:	011d1400 	tsteq	sp, r0, lsl #8
    1404:	01521331 	cmpeq	r2, r1, lsr r3
    1408:	550b42b8 	strpl	r4, [fp, #-696]	; 0xfffffd48
    140c:	590b5817 	stmdbpl	fp, {r0, r1, r2, r4, fp, ip, lr}
    1410:	010b570b 	tsteq	fp, fp, lsl #14
    1414:	15000013 	strne	r0, [r0, #-19]	; 0xffffffed
    1418:	13310005 	teqne	r1, #5, 0
    141c:	42b71702 	adcsmi	r1, r7, #524288	; 0x80000
    1420:	16000017 			; <UNDEFINED> instruction: 0x16000017
    1424:	01018289 	smlabbeq	r1, r9, r2, r8
    1428:	42950111 	addsmi	r0, r5, #1073741828	; 0x40000004
    142c:	00133119 	andseq	r3, r3, r9, lsl r1
    1430:	011d1700 	tsteq	sp, r0, lsl #14
    1434:	01521331 	cmpeq	r2, r1, lsr r3
    1438:	110b42b8 			; <UNDEFINED> instruction: 0x110b42b8
    143c:	58061201 	stmdapl	r6, {r0, r9, ip}
    1440:	570b590b 	strpl	r5, [fp, -fp, lsl #18]
    1444:	1800000b 	stmdane	r0, {r0, r1, r3}
    1448:	1331011d 	teqne	r1, #1073741831	; 0x40000007
    144c:	42b80152 	adcsmi	r0, r8, #-2147483628	; 0x80000014
    1450:	5817550b 	ldmdapl	r7, {r0, r1, r3, r8, sl, ip, lr}
    1454:	570b590b 	strpl	r5, [fp, -fp, lsl #18]
    1458:	1900000b 	stmdbne	r0, {r0, r1, r3}
    145c:	13310005 	teqne	r1, #5, 0
    1460:	00000b1c 	andeq	r0, r0, ip, lsl fp
    1464:	55010b1a 	strpl	r0, [r1, #-2842]	; 0xfffff4e6
    1468:	1b000017 	blne	14cc <__code_start__-0x6b34>
    146c:	13310034 	teqne	r1, #52, 0	; 0x34
    1470:	341c0000 	ldrcc	r0, [ip], #-0
    1474:	02133100 	andseq	r3, r3, #0
    1478:	1742b717 	smlaldne	fp, r2, r7, r7
    147c:	891d0000 	ldmdbhi	sp, {}	; <UNPREDICTABLE>
    1480:	11010182 	smlabbne	r1, r2, r1, r0
    1484:	01133101 	tsteq	r3, r1, lsl #2
    1488:	1e000013 	mcrne	0, 0, r0, cr0, cr3, {0}
    148c:	193f012e 	ldmdbne	pc!, {r1, r2, r3, r5, r8}	; <UNPREDICTABLE>
    1490:	0b3a0e03 	bleq	e84ca4 <__bss_end__+0xe7aab4>
    1494:	0b390b3b 	bleq	e44188 <__bss_end__+0xe39f98>
    1498:	0b201927 	bleq	80793c <__bss_end__+0x7fd74c>
    149c:	00001301 	andeq	r1, r0, r1, lsl #6
    14a0:	0300051f 	movweq	r0, #1311	; 0x51f
    14a4:	3b0b3a08 	blcc	2cfccc <__bss_end__+0x2c5adc>
    14a8:	490b390b 	stmdbmi	fp, {r0, r1, r3, r8, fp, ip, sp}
    14ac:	20000013 	andcs	r0, r0, r3, lsl r0
    14b0:	0e030005 	cdpeq	0, 0, cr0, cr3, cr5, {0}
    14b4:	0b3b0b3a 	bleq	ec41a4 <__bss_end__+0xeb9fb4>
    14b8:	13490b39 	movtne	r0, #39737	; 0x9b39
    14bc:	34210000 	strtcc	r0, [r1], #-0
    14c0:	3a080300 	bcc	2020c8 <__bss_end__+0x1f7ed8>
    14c4:	390b3b0b 	stmdbcc	fp, {r0, r1, r3, r8, r9, fp, ip, sp}
    14c8:	0013490b 	andseq	r4, r3, fp, lsl #18
    14cc:	012e2200 			; <UNDEFINED> instruction: 0x012e2200
    14d0:	0b3a0e03 	bleq	e84ce4 <__bss_end__+0xe7aaf4>
    14d4:	0b390b3b 	bleq	e441c8 <__bss_end__+0xe39fd8>
    14d8:	13491927 	movtne	r1, #39207	; 0x9927
    14dc:	13010b20 	movwne	r0, #6944	; 0x1b20
    14e0:	2e230000 	cdpcs	0, 2, cr0, cr3, cr0, {0}
    14e4:	11133101 	tstne	r3, r1, lsl #2
    14e8:	40061201 	andmi	r1, r6, r1, lsl #4
    14ec:	19429718 	stmdbne	r2, {r3, r4, r8, r9, sl, ip, pc}^
    14f0:	00001301 	andeq	r1, r0, r1, lsl #6
    14f4:	3f002e24 	svccc	0x00002e24
    14f8:	6e193c19 	mrcvs	12, 0, r3, cr9, cr9, {0}
    14fc:	3a0e030e 	bcc	38213c <__bss_end__+0x377f4c>
    1500:	390b3b0b 	stmdbcc	fp, {r0, r1, r3, r8, r9, fp, ip, sp}
    1504:	0000000b 	andeq	r0, r0, fp
    1508:	25011101 	strcs	r1, [r1, #-257]	; 0xfffffeff
    150c:	030b130e 	movweq	r1, #45838	; 0xb30e
    1510:	110e1b0e 	tstne	lr, lr, lsl #22
    1514:	10061201 	andne	r1, r6, r1, lsl #4
    1518:	02000017 	andeq	r0, r0, #23, 0
    151c:	0b0b0024 	bleq	2c15b4 <__bss_end__+0x2b73c4>
    1520:	08030b3e 	stmdaeq	r3, {r1, r2, r3, r4, r5, r8, r9, fp}
    1524:	16030000 	strne	r0, [r3], -r0
    1528:	3a0e0300 	bcc	382130 <__bss_end__+0x377f40>
    152c:	390b3b0b 	stmdbcc	fp, {r0, r1, r3, r8, r9, fp, ip, sp}
    1530:	0013490b 	andseq	r4, r3, fp, lsl #18
    1534:	00240400 	eoreq	r0, r4, r0, lsl #8
    1538:	0b3e0b0b 	bleq	f8416c <__bss_end__+0xf79f7c>
    153c:	00000e03 	andeq	r0, r0, r3, lsl #28
    1540:	27011505 	strcs	r1, [r1, -r5, lsl #10]
    1544:	01134919 	tsteq	r3, r9, lsl r9
    1548:	06000013 			; <UNDEFINED> instruction: 0x06000013
    154c:	13490005 	movtne	r0, #36869	; 0x9005
    1550:	34070000 	strcc	r0, [r7], #-0
    1554:	3a0e0300 	bcc	38215c <__bss_end__+0x377f6c>
    1558:	390b3b0b 	stmdbcc	fp, {r0, r1, r3, r8, r9, fp, ip, sp}
    155c:	3f13490b 	svccc	0x0013490b
    1560:	00193c19 	andseq	r3, r9, r9, lsl ip
    1564:	000f0800 	andeq	r0, pc, r0, lsl #16
    1568:	13490b0b 	movtne	r0, #39691	; 0x9b0b
    156c:	26090000 	strcs	r0, [r9], -r0
    1570:	00134900 	andseq	r4, r3, r0, lsl #18
    1574:	012e0a00 			; <UNDEFINED> instruction: 0x012e0a00
    1578:	0e03193f 			; <UNDEFINED> instruction: 0x0e03193f
    157c:	0b3b0b3a 	bleq	ec426c <__bss_end__+0xeba07c>
    1580:	19270b39 	stmdbne	r7!, {r0, r3, r4, r5, r8, r9, fp}
    1584:	01111349 	tsteq	r1, r9, asr #6
    1588:	18400612 	stmdane	r0, {r1, r4, r9, sl}^
    158c:	01194297 			; <UNDEFINED> instruction: 0x01194297
    1590:	0b000013 	bleq	15e4 <__code_start__-0x6a1c>
    1594:	08030005 	stmdaeq	r3, {r0, r2}
    1598:	0b3b0b3a 	bleq	ec4288 <__bss_end__+0xeba098>
    159c:	13490b39 	movtne	r0, #39737	; 0x9b39
    15a0:	00001802 	andeq	r1, r0, r2, lsl #16
    15a4:	0300050c 	movweq	r0, #1292	; 0x50c
    15a8:	3b0b3a08 	blcc	2cfdd0 <__bss_end__+0x2c5be0>
    15ac:	490b390b 	stmdbmi	fp, {r0, r1, r3, r8, fp, ip, sp}
    15b0:	b7170213 			; <UNDEFINED> instruction: 0xb7170213
    15b4:	00001742 	andeq	r1, r0, r2, asr #14
    15b8:	0300340d 	movweq	r3, #1037	; 0x40d
    15bc:	3b0b3a08 	blcc	2cfde4 <__bss_end__+0x2c5bf4>
    15c0:	490b390b 	stmdbmi	fp, {r0, r1, r3, r8, fp, ip, sp}
    15c4:	b7170213 			; <UNDEFINED> instruction: 0xb7170213
    15c8:	00001742 	andeq	r1, r0, r2, asr #14
    15cc:	0b000f0e 	bleq	520c <__code_start__-0x2df4>
    15d0:	0000000b 	andeq	r0, r0, fp
    15d4:	25011101 	strcs	r1, [r1, #-257]	; 0xfffffeff
    15d8:	030b130e 	movweq	r1, #45838	; 0xb30e
    15dc:	110e1b0e 	tstne	lr, lr, lsl #22
    15e0:	10061201 	andne	r1, r6, r1, lsl #4
    15e4:	02000017 	andeq	r0, r0, #23, 0
    15e8:	0b0b0024 	bleq	2c1680 <__bss_end__+0x2b7490>
    15ec:	08030b3e 	stmdaeq	r3, {r1, r2, r3, r4, r5, r8, r9, fp}
    15f0:	24030000 	strcs	r0, [r3], #-0
    15f4:	3e0b0b00 	vmlacc.f64	d0, d11, d0
    15f8:	000e030b 	andeq	r0, lr, fp, lsl #6
    15fc:	01150400 	tsteq	r5, r0, lsl #8
    1600:	13491927 	movtne	r1, #39207	; 0x9927
    1604:	00001301 	andeq	r1, r0, r1, lsl #6
    1608:	49000505 	stmdbmi	r0, {r0, r2, r8, sl}
    160c:	06000013 			; <UNDEFINED> instruction: 0x06000013
    1610:	0e030034 	mcreq	0, 0, r0, cr3, cr4, {1}
    1614:	0b3b0b3a 	bleq	ec4304 <__bss_end__+0xeba114>
    1618:	13490b39 	movtne	r0, #39737	; 0x9b39
    161c:	193c193f 	ldmdbne	ip!, {r0, r1, r2, r3, r4, r5, r8, fp, ip}
    1620:	0f070000 	svceq	0x00070000
    1624:	490b0b00 	stmdbmi	fp, {r8, r9, fp}
    1628:	08000013 	stmdaeq	r0, {r0, r1, r4}
    162c:	13490026 	movtne	r0, #36902	; 0x9026
    1630:	2e090000 	cdpcs	0, 0, cr0, cr9, cr0, {0}
    1634:	03193f01 	tsteq	r9, #1, 30
    1638:	3b0b3a0e 	blcc	2cfe78 <__bss_end__+0x2c5c88>
    163c:	270b390b 	strcs	r3, [fp, -fp, lsl #18]
    1640:	11134919 	tstne	r3, r9, lsl r9
    1644:	40061201 	andmi	r1, r6, r1, lsl #4
    1648:	19429718 	stmdbne	r2, {r3, r4, r8, r9, sl, ip, pc}^
    164c:	00001301 	andeq	r1, r0, r1, lsl #6
    1650:	0300050a 	movweq	r0, #1290	; 0x50a
    1654:	3b0b3a0e 	blcc	2cfe94 <__bss_end__+0x2c5ca4>
    1658:	490b390b 	stmdbmi	fp, {r0, r1, r3, r8, fp, ip, sp}
    165c:	00180213 	andseq	r0, r8, r3, lsl r2
    1660:	00050b00 	andeq	r0, r5, r0, lsl #22
    1664:	0b3a0803 	bleq	e83678 <__bss_end__+0xe79488>
    1668:	0b390b3b 	bleq	e4435c <__bss_end__+0xe3a16c>
    166c:	17021349 	strne	r1, [r2, -r9, asr #6]
    1670:	001742b7 			; <UNDEFINED> instruction: 0x001742b7
    1674:	00340c00 	eorseq	r0, r4, r0, lsl #24
    1678:	0b3a0803 	bleq	e8368c <__bss_end__+0xe7949c>
    167c:	0b390b3b 	bleq	e44370 <__bss_end__+0xe3a180>
    1680:	17021349 	strne	r1, [r2, -r9, asr #6]
    1684:	001742b7 			; <UNDEFINED> instruction: 0x001742b7
    1688:	11010000 	mrsne	r0, (UNDEF: 1)
    168c:	130e2501 	movwne	r2, #58625	; 0xe501
    1690:	1b0e030b 	blne	3822c4 <__bss_end__+0x3780d4>
    1694:	1201110e 	andne	r1, r1, #-2147483645	; 0x80000003
    1698:	00171006 	andseq	r1, r7, r6
    169c:	00240200 	eoreq	r0, r4, r0, lsl #4
    16a0:	0b3e0b0b 	bleq	f842d4 <__bss_end__+0xf7a0e4>
    16a4:	00000803 	andeq	r0, r0, r3, lsl #16
    16a8:	0b002403 	bleq	a6bc <__bss_end__+0x4cc>
    16ac:	030b3e0b 	movweq	r3, #48651	; 0xbe0b
    16b0:	0400000e 	streq	r0, [r0], #-14
    16b4:	19270115 	stmdbne	r7!, {r0, r2, r4, r8}
    16b8:	13011349 	movwne	r1, #4937	; 0x1349
    16bc:	05050000 	streq	r0, [r5, #-0]
    16c0:	00134900 	andseq	r4, r3, r0, lsl #18
    16c4:	00340600 	eorseq	r0, r4, r0, lsl #12
    16c8:	0b3a0e03 	bleq	e84edc <__bss_end__+0xe7acec>
    16cc:	0b390b3b 	bleq	e443c0 <__bss_end__+0xe3a1d0>
    16d0:	193f1349 	ldmdbne	pc!, {r0, r3, r6, r8, r9, ip}	; <UNPREDICTABLE>
    16d4:	0000193c 	andeq	r1, r0, ip, lsr r9
    16d8:	0b000f07 	bleq	52fc <__code_start__-0x2d04>
    16dc:	0013490b 	andseq	r4, r3, fp, lsl #18
    16e0:	00260800 	eoreq	r0, r6, r0, lsl #16
    16e4:	00001349 	andeq	r1, r0, r9, asr #6
    16e8:	3f012e09 	svccc	0x00012e09
    16ec:	3a0e0319 	bcc	382358 <__bss_end__+0x378168>
    16f0:	390b3b0b 	stmdbcc	fp, {r0, r1, r3, r8, r9, fp, ip, sp}
    16f4:	4919270b 	ldmdbmi	r9, {r0, r1, r3, r8, r9, sl, sp}
    16f8:	12011113 	andne	r1, r1, #-1073741820	; 0xc0000004
    16fc:	97184006 	ldrls	r4, [r8, -r6]
    1700:	00001942 	andeq	r1, r0, r2, asr #18
    1704:	0300050a 	movweq	r0, #1290	; 0x50a
    1708:	3b0b3a08 	blcc	2cff30 <__bss_end__+0x2c5d40>
    170c:	490b390b 	stmdbmi	fp, {r0, r1, r3, r8, fp, ip, sp}
    1710:	b7170213 			; <UNDEFINED> instruction: 0xb7170213
    1714:	00001742 	andeq	r1, r0, r2, asr #14
    1718:	01110100 	tsteq	r1, r0, lsl #2
    171c:	0b130e25 	bleq	4c4fb8 <__bss_end__+0x4badc8>
    1720:	0e1b0e03 	cdpeq	14, 1, cr0, cr11, cr3, {0}
    1724:	06120111 			; <UNDEFINED> instruction: 0x06120111
    1728:	00001710 	andeq	r1, r0, r0, lsl r7
    172c:	0b002402 	bleq	a73c <__bss_end__+0x54c>
    1730:	030b3e0b 	movweq	r3, #48651	; 0xbe0b
    1734:	03000008 	movweq	r0, #8
    1738:	0b0b0024 	bleq	2c17d0 <__bss_end__+0x2b75e0>
    173c:	0e030b3e 	vmoveq.16	d3[0], r0
    1740:	15040000 	strne	r0, [r4, #-0]
    1744:	49192701 	ldmdbmi	r9, {r0, r8, r9, sl, sp}
    1748:	00130113 	andseq	r0, r3, r3, lsl r1
    174c:	00050500 	andeq	r0, r5, r0, lsl #10
    1750:	00001349 	andeq	r1, r0, r9, asr #6
    1754:	03003406 	movweq	r3, #1030	; 0x406
    1758:	3b0b3a0e 	blcc	2cff98 <__bss_end__+0x2c5da8>
    175c:	490b390b 	stmdbmi	fp, {r0, r1, r3, r8, fp, ip, sp}
    1760:	3c193f13 	ldccc	15, cr3, [r9], {19}
    1764:	07000019 	smladeq	r0, r9, r0, r0
    1768:	0b0b000f 	bleq	2c17ac <__bss_end__+0x2b75bc>
    176c:	00001349 	andeq	r1, r0, r9, asr #6
    1770:	49002608 	stmdbmi	r0, {r3, r9, sl, sp}
    1774:	09000013 	stmdbeq	r0, {r0, r1, r4}
    1778:	193f012e 	ldmdbne	pc!, {r1, r2, r3, r5, r8}	; <UNPREDICTABLE>
    177c:	0b3a0e03 	bleq	e84f90 <__bss_end__+0xe7ada0>
    1780:	0b390b3b 	bleq	e44474 <__bss_end__+0xe3a284>
    1784:	13491927 	movtne	r1, #39207	; 0x9927
    1788:	06120111 			; <UNDEFINED> instruction: 0x06120111
    178c:	42971840 	addsmi	r1, r7, #64, 16	; 0x400000
    1790:	00130119 	andseq	r0, r3, r9, lsl r1
    1794:	00050a00 	andeq	r0, r5, r0, lsl #20
    1798:	0b3a0803 	bleq	e837ac <__bss_end__+0xe795bc>
    179c:	0b390b3b 	bleq	e44490 <__bss_end__+0xe3a2a0>
    17a0:	18021349 	stmdane	r2, {r0, r3, r6, r8, r9, ip}
    17a4:	050b0000 	streq	r0, [fp, #-0]
    17a8:	3a080300 	bcc	2023b0 <__bss_end__+0x1f81c0>
    17ac:	390b3b0b 	stmdbcc	fp, {r0, r1, r3, r8, r9, fp, ip, sp}
    17b0:	0213490b 	andseq	r4, r3, #180224	; 0x2c000
    17b4:	1742b717 	smlaldne	fp, r2, r7, r7
    17b8:	340c0000 	strcc	r0, [ip], #-0
    17bc:	3a080300 	bcc	2023c4 <__bss_end__+0x1f81d4>
    17c0:	390b3b0b 	stmdbcc	fp, {r0, r1, r3, r8, r9, fp, ip, sp}
    17c4:	0213490b 	andseq	r4, r3, #180224	; 0x2c000
    17c8:	1742b717 	smlaldne	fp, r2, r7, r7
    17cc:	01000000 	mrseq	r0, (UNDEF: 0)
    17d0:	0e250111 	mcreq	1, 1, r0, cr5, cr1, {0}
    17d4:	0e030b13 	vmoveq.32	d3[0], r0
    17d8:	01110e1b 	tsteq	r1, fp, lsl lr
    17dc:	17100612 			; <UNDEFINED> instruction: 0x17100612
    17e0:	24020000 	strcs	r0, [r2], #-0
    17e4:	3e0b0b00 	vmlacc.f64	d0, d11, d0
    17e8:	0008030b 	andeq	r0, r8, fp, lsl #6
    17ec:	00160300 	andseq	r0, r6, r0, lsl #6
    17f0:	0b3a0e03 	bleq	e85004 <__bss_end__+0xe7ae14>
    17f4:	0b390b3b 	bleq	e444e8 <__bss_end__+0xe3a2f8>
    17f8:	00001349 	andeq	r1, r0, r9, asr #6
    17fc:	0b002404 	bleq	a814 <__bss_end__+0x624>
    1800:	030b3e0b 	movweq	r3, #48651	; 0xbe0b
    1804:	0500000e 	streq	r0, [r0, #-14]
    1808:	13490026 	movtne	r0, #36902	; 0x9026
    180c:	15060000 	strne	r0, [r6, #-0]
    1810:	49192701 	ldmdbmi	r9, {r0, r8, r9, sl, sp}
    1814:	00130113 	andseq	r0, r3, r3, lsl r1
    1818:	00050700 	andeq	r0, r5, r0, lsl #14
    181c:	00001349 	andeq	r1, r0, r9, asr #6
    1820:	03003408 	movweq	r3, #1032	; 0x408
    1824:	3b0b3a0e 	blcc	2d0064 <__bss_end__+0x2c5e74>
    1828:	490b390b 	stmdbmi	fp, {r0, r1, r3, r8, fp, ip, sp}
    182c:	3c193f13 	ldccc	15, cr3, [r9], {19}
    1830:	09000019 	stmdbeq	r0, {r0, r3, r4}
    1834:	0b0b000f 	bleq	2c1878 <__bss_end__+0x2b7688>
    1838:	00001349 	andeq	r1, r0, r9, asr #6
    183c:	3f012e0a 	svccc	0x00012e0a
    1840:	3a0e0319 	bcc	3824ac <__bss_end__+0x3782bc>
    1844:	390b3b0b 	stmdbcc	fp, {r0, r1, r3, r8, r9, fp, ip, sp}
    1848:	4919270b 	ldmdbmi	r9, {r0, r1, r3, r8, r9, sl, sp}
    184c:	12011113 	andne	r1, r1, #-1073741820	; 0xc0000004
    1850:	97184006 	ldrls	r4, [r8, -r6]
    1854:	13011942 	movwne	r1, #6466	; 0x1942
    1858:	050b0000 	streq	r0, [fp, #-0]
    185c:	3a080300 	bcc	202464 <__bss_end__+0x1f8274>
    1860:	390b3b0b 	stmdbcc	fp, {r0, r1, r3, r8, r9, fp, ip, sp}
    1864:	0213490b 	andseq	r4, r3, #180224	; 0x2c000
    1868:	1742b717 	smlaldne	fp, r2, r7, r7
    186c:	340c0000 	strcc	r0, [ip], #-0
    1870:	3a080300 	bcc	202478 <__bss_end__+0x1f8288>
    1874:	390b3b0b 	stmdbcc	fp, {r0, r1, r3, r8, r9, fp, ip, sp}
    1878:	0213490b 	andseq	r4, r3, #180224	; 0x2c000
    187c:	1742b717 	smlaldne	fp, r2, r7, r7
    1880:	01000000 	mrseq	r0, (UNDEF: 0)
    1884:	0e250111 	mcreq	1, 1, r0, cr5, cr1, {0}
    1888:	0e030b13 	vmoveq.32	d3[0], r0
    188c:	01110e1b 	tsteq	r1, fp, lsl lr
    1890:	17100612 			; <UNDEFINED> instruction: 0x17100612
    1894:	24020000 	strcs	r0, [r2], #-0
    1898:	3e0b0b00 	vmlacc.f64	d0, d11, d0
    189c:	0008030b 	andeq	r0, r8, fp, lsl #6
    18a0:	00240300 	eoreq	r0, r4, r0, lsl #6
    18a4:	0b3e0b0b 	bleq	f844d8 <__bss_end__+0xf7a2e8>
    18a8:	00000e03 	andeq	r0, r0, r3, lsl #28
    18ac:	27011504 	strcs	r1, [r1, -r4, lsl #10]
    18b0:	01134919 	tsteq	r3, r9, lsl r9
    18b4:	05000013 	streq	r0, [r0, #-19]	; 0xffffffed
    18b8:	13490005 	movtne	r0, #36869	; 0x9005
    18bc:	34060000 	strcc	r0, [r6], #-0
    18c0:	3a0e0300 	bcc	3824c8 <__bss_end__+0x3782d8>
    18c4:	390b3b0b 	stmdbcc	fp, {r0, r1, r3, r8, r9, fp, ip, sp}
    18c8:	3f13490b 	svccc	0x0013490b
    18cc:	00193c19 	andseq	r3, r9, r9, lsl ip
    18d0:	000f0700 	andeq	r0, pc, r0, lsl #14
    18d4:	13490b0b 	movtne	r0, #39691	; 0x9b0b
    18d8:	26080000 	strcs	r0, [r8], -r0
    18dc:	00134900 	andseq	r4, r3, r0, lsl #18
    18e0:	002e0900 	eoreq	r0, lr, r0, lsl #18
    18e4:	0e03193f 			; <UNDEFINED> instruction: 0x0e03193f
    18e8:	0b3b0b3a 	bleq	ec45d8 <__bss_end__+0xeba3e8>
    18ec:	19270b39 	stmdbne	r7!, {r0, r3, r4, r5, r8, r9, fp}
    18f0:	06120111 			; <UNDEFINED> instruction: 0x06120111
    18f4:	42971840 	addsmi	r1, r7, #64, 16	; 0x400000
    18f8:	00000019 	andeq	r0, r0, r9, lsl r0

Disassembly of section .debug_loc:

00000000 <.debug_loc>:
       0:	00000000 	andeq	r0, r0, r0
       4:	00000128 	andeq	r0, r0, r8, lsr #2
       8:	0000012c 	andeq	r0, r0, ip, lsr #2
       c:	2c500001 	mrrccs	0, 0, r0, r0, cr1	; <UNPREDICTABLE>
      10:	98000001 	stmdals	r0, {r0}
      14:	01000001 	tsteq	r0, r1
      18:	00005500 	andeq	r5, r0, r0, lsl #10
      1c:	00000000 	andeq	r0, r0, r0
      20:	00030000 	andeq	r0, r3, r0
      24:	01280000 			; <UNDEFINED> instruction: 0x01280000
      28:	012c0000 			; <UNDEFINED> instruction: 0x012c0000
      2c:	00020000 	andeq	r0, r2, r0
      30:	012c9f30 			; <UNDEFINED> instruction: 0x012c9f30
      34:	01980000 	orrseq	r0, r8, r0
      38:	00010000 	andeq	r0, r1, r0
      3c:	00000054 	andeq	r0, r0, r4, asr r0
	...
      48:	00013c00 	andeq	r3, r1, r0, lsl #24
      4c:	00014800 	andeq	r4, r1, r0, lsl #16
      50:	50000100 	andpl	r0, r0, r0, lsl #2
      54:	00000160 	andeq	r0, r0, r0, ror #2
      58:	00000178 	andeq	r0, r0, r8, ror r1
      5c:	00500001 	subseq	r0, r0, r1
	...
      70:	00001000 	andeq	r1, r0, r0
      74:	50000100 	andpl	r0, r0, r0, lsl #2
      78:	00000010 	andeq	r0, r0, r0, lsl r0
      7c:	00000100 	andeq	r0, r0, r0, lsl #2
      80:	00560001 	subseq	r0, r6, r1
      84:	14000001 	strne	r0, [r0], #-1
      88:	04000001 	streq	r0, [r0], #-1
      8c:	5001f300 	andpl	pc, r1, r0, lsl #6
      90:	0000009f 	muleq	r0, pc, r0	; <UNPREDICTABLE>
	...
      9c:	18000000 	stmdane	r0, {}	; <UNPREDICTABLE>
      a0:	1c000000 	stcne	0, cr0, [r0], {-0}
      a4:	01000000 	mrseq	r0, (UNDEF: 0)
      a8:	001c5000 	andseq	r5, ip, r0
      ac:	01000000 	mrseq	r0, (UNDEF: 0)
      b0:	00010000 	andeq	r0, r1, r0
      b4:	00010055 	andeq	r0, r1, r5, asr r0
      b8:	00011400 	andeq	r1, r1, r0, lsl #8
      bc:	50000100 	andpl	r0, r0, r0, lsl #2
	...
      c8:	00000002 	andeq	r0, r0, r2
      cc:	00000018 	andeq	r0, r0, r8, lsl r0
      d0:	0000001c 	andeq	r0, r0, ip, lsl r0
      d4:	9f300002 	svcls	0x00300002
      d8:	0000001c 	andeq	r0, r0, ip, lsl r0
      dc:	000000d4 	ldrdeq	r0, [r0], -r4
      e0:	00540001 	subseq	r0, r4, r1
	...
      ec:	00003400 	andeq	r3, r0, r0, lsl #8
      f0:	00005300 	andeq	r5, r0, r0, lsl #6
      f4:	50000100 	andpl	r0, r0, r0, lsl #2
	...
     104:	00000090 	muleq	r0, r0, r0
     108:	000000b4 	strheq	r0, [r0], -r4
     10c:	d0530001 	subsle	r0, r3, r1
     110:	d8000000 	stmdale	r0, {}	; <UNPREDICTABLE>
     114:	01000000 	mrseq	r0, (UNDEF: 0)
     118:	00005300 	andeq	r5, r0, r0, lsl #6
	...
     124:	000000d8 	ldrdeq	r0, [r0], -r8
     128:	00000100 	andeq	r0, r0, r0, lsl #2
     12c:	00540001 	subseq	r0, r4, r1
	...
     13c:	08000000 	stmdaeq	r0, {}	; <UNPREDICTABLE>
     140:	78000000 	stmdavc	r0, {}	; <UNPREDICTABLE>
     144:	01000000 	mrseq	r0, (UNDEF: 0)
     148:	00785100 	rsbseq	r5, r8, r0, lsl #2
     14c:	00840000 	addeq	r0, r4, r0
     150:	00030000 	andeq	r0, r3, r0
     154:	849f7870 	ldrhi	r7, [pc], #2160	; 15c <__code_start__-0x7ea4>
     158:	a4000000 	strge	r0, [r0], #-0
     15c:	01000000 	mrseq	r0, (UNDEF: 0)
     160:	00a45100 	adceq	r5, r4, r0, lsl #2
     164:	00bc0000 	adcseq	r0, ip, r0
     168:	00030000 	andeq	r0, r3, r0
     16c:	009f7870 	addseq	r7, pc, r0, ror r8	; <UNPREDICTABLE>
	...
     178:	10000000 	andne	r0, r0, r0
     17c:	48000000 	stmdami	r0, {}	; <UNPREDICTABLE>
     180:	01000000 	mrseq	r0, (UNDEF: 0)
     184:	004c5300 	subeq	r5, ip, r0, lsl #6
     188:	00bc0000 	adcseq	r0, ip, r0
     18c:	00010000 	andeq	r0, r1, r0
     190:	00000053 	andeq	r0, r0, r3, asr r0
	...
     1a0:	00010000 	andeq	r0, r1, r0
     1a4:	00012400 	andeq	r2, r1, r0, lsl #8
     1a8:	50000100 	andpl	r0, r0, r0, lsl #2
     1ac:	00000124 	andeq	r0, r0, r4, lsr #2
     1b0:	00000128 	andeq	r0, r0, r8, lsr #2
     1b4:	01f30004 	mvnseq	r0, r4
     1b8:	01289f50 			; <UNDEFINED> instruction: 0x01289f50
     1bc:	01400000 	mrseq	r0, (UNDEF: 64)
     1c0:	00010000 	andeq	r0, r1, r0
     1c4:	00014050 	andeq	r4, r1, r0, asr r0
     1c8:	0001ac00 	andeq	sl, r1, r0, lsl #24
     1cc:	f3000400 	vshl.u8	d0, d0, d0
     1d0:	009f5001 	addseq	r5, pc, r1
	...
     1e0:	01010000 	mrseq	r0, (UNDEF: 1)
     1e4:	00000000 	andeq	r0, r0, r0
     1e8:	00012400 	andeq	r2, r1, r0, lsl #8
     1ec:	00012800 	andeq	r2, r1, r0, lsl #16
     1f0:	50000100 	andpl	r0, r0, r0, lsl #2
     1f4:	00000140 	andeq	r0, r0, r0, asr #2
     1f8:	00000160 	andeq	r0, r0, r0, ror #2
     1fc:	60500001 	subsvs	r0, r0, r1
     200:	64000001 	strvs	r0, [r0], #-1
     204:	03000001 	movweq	r0, #1
     208:	9f787000 	svcls	0x00787000
     20c:	00000164 	andeq	r0, r0, r4, ror #2
     210:	00000170 	andeq	r0, r0, r0, ror r1
     214:	70500001 	subsvc	r0, r0, r1
     218:	78000001 	stmdavc	r0, {r0}
     21c:	02000001 	andeq	r0, r0, #1, 0
     220:	78007000 	stmdavc	r0, {ip, sp, lr}
     224:	98000001 	stmdals	r0, {r0}
     228:	01000001 	tsteq	r0, r1
     22c:	019c5000 	orrseq	r5, ip, r0
     230:	01ac0000 			; <UNDEFINED> instruction: 0x01ac0000
     234:	00010000 	andeq	r0, r1, r0
     238:	00000050 	andeq	r0, r0, r0, asr r0
     23c:	00000000 	andeq	r0, r0, r0
     240:	01010000 	mrseq	r0, (UNDEF: 1)
     244:	01000000 	mrseq	r0, (UNDEF: 0)
     248:	18000000 	stmdane	r0, {}	; <UNPREDICTABLE>
     24c:	28000001 	stmdacs	r0, {r0}
     250:	01000001 	tsteq	r0, r1
     254:	01285200 			; <UNDEFINED> instruction: 0x01285200
     258:	01400000 	mrseq	r0, (UNDEF: 64)
     25c:	00060000 	andeq	r0, r6, r0
     260:	009de003 	addseq	lr, sp, r3
     264:	01409f00 	cmpeq	r0, r0, lsl #30
     268:	01700000 	cmneq	r0, r0
     26c:	00010000 	andeq	r0, r1, r0
     270:	00017052 	andeq	r7, r1, r2, asr r0
     274:	00017800 	andeq	r7, r1, r0, lsl #16
     278:	50000100 	andpl	r0, r0, r0, lsl #2
     27c:	00000178 	andeq	r0, r0, r8, ror r1
     280:	0000019b 	muleq	r0, fp, r1
     284:	00520001 	subseq	r0, r2, r1
	...
     290:	00011000 	andeq	r1, r1, r0
     294:	0001ac00 	andeq	sl, r1, r0, lsl #24
     298:	54000100 	strpl	r0, [r0], #-256	; 0xffffff00
	...
     2a8:	000000bc 	strheq	r0, [r0], -ip
     2ac:	000000cc 	andeq	r0, r0, ip, asr #1
     2b0:	cc500001 	mrrcgt	0, 0, r0, r0, cr1	; <UNPREDICTABLE>
     2b4:	00000000 	andeq	r0, r0, r0
     2b8:	01000001 	tsteq	r0, r1
     2bc:	00005400 	andeq	r5, r0, r0, lsl #8
	...
     2cc:	000000d4 	ldrdeq	r0, [r0], -r4
     2d0:	000000e4 	andeq	r0, r0, r4, ror #1
     2d4:	e4500001 	ldrb	r0, [r0], #-1
     2d8:	e7000000 	str	r0, [r0, -r0]
     2dc:	03000000 	movweq	r0, #0
     2e0:	9f787000 	svcls	0x00787000
     2e4:	000000f4 	strdeq	r0, [r0], -r4
     2e8:	000000f8 	strdeq	r0, [r0], -r8
     2ec:	00500001 	subseq	r0, r0, r1
     2f0:	00000000 	andeq	r0, r0, r0
     2f4:	01000000 	mrseq	r0, (UNDEF: 0)
     2f8:	dc000000 	stcle	0, cr0, [r0], {-0}
     2fc:	e4000000 	str	r0, [r0], #-0
     300:	01000000 	mrseq	r0, (UNDEF: 0)
     304:	00e45000 	rsceq	r5, r4, r0
     308:	00e70000 	rsceq	r0, r7, r0
     30c:	00030000 	andeq	r0, r3, r0
     310:	009f7870 	addseq	r7, pc, r0, ror r8	; <UNPREDICTABLE>
	...
     320:	07000000 	streq	r0, [r0, -r0]
     324:	01000000 	mrseq	r0, (UNDEF: 0)
     328:	00075000 	andeq	r5, r7, r0
     32c:	000c0000 	andeq	r0, ip, r0
     330:	00040000 	andeq	r0, r4, r0
     334:	9f5001f3 	svcls	0x005001f3
	...
     344:	002c0000 	eoreq	r0, ip, r0
     348:	00340000 	eorseq	r0, r4, r0
     34c:	00010000 	andeq	r0, r1, r0
     350:	00003450 	andeq	r3, r0, r0, asr r4
     354:	00004800 	andeq	r4, r0, r0, lsl #16
     358:	54000100 	strpl	r0, [r0], #-256	; 0xffffff00
     35c:	00000048 	andeq	r0, r0, r8, asr #32
     360:	00000058 	andeq	r0, r0, r8, asr r0
     364:	00500001 	subseq	r0, r0, r1
	...
     374:	0b000000 	bleq	37c <__code_start__-0x7c84>
     378:	01000000 	mrseq	r0, (UNDEF: 0)
     37c:	000b5000 	andeq	r5, fp, r0
     380:	00140000 	andseq	r0, r4, r0
     384:	00010000 	andeq	r0, r1, r0
     388:	00000054 	andeq	r0, r0, r4, asr r0
	...
     394:	00000101 	andeq	r0, r0, r1, lsl #2
     398:	00000000 	andeq	r0, r0, r0
     39c:	00000c00 	andeq	r0, r0, r0, lsl #24
     3a0:	50000100 	andpl	r0, r0, r0, lsl #2
     3a4:	0000000c 	andeq	r0, r0, ip
     3a8:	00000020 	andeq	r0, r0, r0, lsr #32
     3ac:	20540001 	subscs	r0, r4, r1
     3b0:	24000000 	strcs	r0, [r0], #-0
     3b4:	03000000 	movweq	r0, #0
     3b8:	9f017400 	svcls	0x00017400
     3bc:	00000024 	andeq	r0, r0, r4, lsr #32
     3c0:	00000038 	andeq	r0, r0, r8, lsr r0
     3c4:	00540001 	subseq	r0, r4, r1
	...
     3d8:	00038800 	andeq	r8, r3, r0, lsl #16
     3dc:	00039400 	andeq	r9, r3, r0, lsl #8
     3e0:	50000100 	andpl	r0, r0, r0, lsl #2
     3e4:	00000394 	muleq	r0, r4, r3
     3e8:	000003d0 	ldrdeq	r0, [r0], -r0	; <UNPREDICTABLE>
     3ec:	d05b0001 	subsle	r0, fp, r1
     3f0:	20000003 	andcs	r0, r0, r3
     3f4:	04000009 	streq	r0, [r0], #-9
     3f8:	5001f300 	andpl	pc, r1, r0, lsl #6
     3fc:	0009209f 	muleq	r9, pc, r0	; <UNPREDICTABLE>
     400:	00092800 	andeq	r2, r9, r0, lsl #16
     404:	5b000100 	blpl	80c <__code_start__-0x77f4>
     408:	00000928 	andeq	r0, r0, r8, lsr #18
     40c:	000009b4 			; <UNDEFINED> instruction: 0x000009b4
     410:	01f30004 	mvnseq	r0, r4
     414:	00009f50 	andeq	r9, r0, r0, asr pc
	...
     424:	03880000 	orreq	r0, r8, #0, 0
     428:	03d00000 	bicseq	r0, r0, #0, 0
     42c:	00010000 	andeq	r0, r1, r0
     430:	0003d051 	andeq	sp, r3, r1, asr r0
     434:	00092000 	andeq	r2, r9, r0
     438:	f3000400 	vshl.u8	d0, d0, d0
     43c:	209f5101 	addscs	r5, pc, r1, lsl #2
     440:	28000009 	stmdacs	r0, {r0, r3}
     444:	01000009 	tsteq	r0, r9
     448:	09285100 	stmdbeq	r8!, {r8, ip, lr}
     44c:	09b40000 	ldmibeq	r4!, {}	; <UNPREDICTABLE>
     450:	00040000 	andeq	r0, r4, r0
     454:	9f5101f3 	svcls	0x005101f3
	...
     464:	01000000 	mrseq	r0, (UNDEF: 0)
     468:	00010000 	andeq	r0, r1, r0
	...
     478:	00000388 	andeq	r0, r0, r8, lsl #7
     47c:	000003d0 	ldrdeq	r0, [r0], -r0	; <UNPREDICTABLE>
     480:	d0520001 	subsle	r0, r2, r1
     484:	00000003 	andeq	r0, r0, r3
     488:	01000004 	tsteq	r0, r4
     48c:	04145600 	ldreq	r5, [r4], #-1536	; 0xfffffa00
     490:	04240000 	strteq	r0, [r4], #-0
     494:	00010000 	andeq	r0, r1, r0
     498:	00042456 	andeq	r2, r4, r6, asr r4
     49c:	00042800 	andeq	r2, r4, r0, lsl #16
     4a0:	76000300 	strvc	r0, [r0], -r0, lsl #6
     4a4:	04a89f7f 	strteq	r9, [r8], #3967	; 0xf7f
     4a8:	04ac0000 	strteq	r0, [ip], #0
     4ac:	00010000 	andeq	r0, r1, r0
     4b0:	0004e056 	andeq	lr, r4, r6, asr r0
     4b4:	00050400 	andeq	r0, r5, r0, lsl #8
     4b8:	56000100 	strpl	r0, [r0], -r0, lsl #2
     4bc:	0000057c 	andeq	r0, r0, ip, ror r5
     4c0:	00000588 	andeq	r0, r0, r8, lsl #11
     4c4:	88530001 	ldmdahi	r3, {r0}^
     4c8:	d0000005 	andle	r0, r0, r5
     4cc:	03000005 	movweq	r0, #5
     4d0:	7dcc9100 	stfvcp	f1, [ip]
     4d4:	00000800 	andeq	r0, r0, r0, lsl #16
     4d8:	0000080f 	andeq	r0, r0, pc, lsl #16
     4dc:	0f530001 	svceq	0x00530001
     4e0:	88000008 	stmdahi	r0, {r3}
     4e4:	03000008 	movweq	r0, #8
     4e8:	7dcc9100 	stfvcp	f1, [ip]
     4ec:	00000920 	andeq	r0, r0, r0, lsr #18
     4f0:	00000928 	andeq	r0, r0, r8, lsr #18
     4f4:	48520001 	ldmdami	r2, {r0}^
     4f8:	64000009 	strvs	r0, [r0], #-9
     4fc:	03000009 	movweq	r0, #9
     500:	7dcc9100 	stfvcp	f1, [ip]
	...
     514:	00010100 	andeq	r0, r1, r0, lsl #2
     518:	00010100 	andeq	r0, r1, r0, lsl #2
     51c:	02000000 	andeq	r0, r0, #0, 0
     520:	02000002 	andeq	r0, r0, #2, 0
     524:	01000002 	tsteq	r0, r2
     528:	02000001 	andeq	r0, r0, #1, 0
     52c:	01000002 	tsteq	r0, r2
     530:	00000001 	andeq	r0, r0, r1
     534:	00000000 	andeq	r0, r0, r0
     538:	03880000 	orreq	r0, r8, #0, 0
     53c:	03ac0000 			; <UNDEFINED> instruction: 0x03ac0000
     540:	00010000 	andeq	r0, r1, r0
     544:	0003ac53 	andeq	sl, r3, r3, asr ip
     548:	0003c000 	andeq	ip, r3, r0
     54c:	53000300 	movwpl	r0, #768	; 0x300
     550:	03d00493 	bicseq	r0, r0, #-1828716544	; 0x93000000
     554:	03e80000 	mvneq	r0, #0, 0
     558:	00030000 	andeq	r0, r3, r0
     55c:	e8049358 	stmda	r4, {r3, r4, r6, r8, r9, ip, pc}
     560:	ac000003 	stcge	0, cr0, [r0], {3}
     564:	03000004 	movweq	r0, #4
     568:	04935800 	ldreq	r5, [r3], #2048	; 0x800
     56c:	000004c0 	andeq	r0, r0, r0, asr #9
     570:	000004c0 	andeq	r0, r0, r0, asr #9
     574:	93580003 	cmpls	r8, #3, 0
     578:	0004c004 	andeq	ip, r4, r4
     57c:	0004cc00 	andeq	ip, r4, r0, lsl #24
     580:	78000500 	stmdavc	r0, {r8, sl}
     584:	04939f04 	ldreq	r9, [r3], #3844	; 0xf04
     588:	000004cc 	andeq	r0, r0, ip, asr #9
     58c:	000004e0 	andeq	r0, r0, r0, ror #9
     590:	93580003 	cmpls	r8, #3, 0
     594:	0004e004 	andeq	lr, r4, r4
     598:	00053800 	andeq	r3, r5, r0, lsl #16
     59c:	58000300 	stmdapl	r0, {r8, r9}
     5a0:	05380493 	ldreq	r0, [r8, #-1171]!	; 0xfffffb6d
     5a4:	053c0000 	ldreq	r0, [ip, #-0]!
     5a8:	00050000 	andeq	r0, r5, r0
     5ac:	939f7978 	orrsls	r7, pc, #120, 18	; 0x1e0000
     5b0:	0005d004 	andeq	sp, r5, r4
     5b4:	0005d000 	andeq	sp, r5, r0
     5b8:	58000300 	stmdapl	r0, {r8, r9}
     5bc:	05d00493 	ldrbeq	r0, [r0, #1171]	; 0x493
     5c0:	05d40000 	ldrbeq	r0, [r4]
     5c4:	00050000 	andeq	r0, r5, r0
     5c8:	939f0478 	orrsls	r0, pc, #120, 8	; 0x78000000
     5cc:	0005f404 	andeq	pc, r5, r4, lsl #8
     5d0:	0005f400 	andeq	pc, r5, r0, lsl #8
     5d4:	58000300 	stmdapl	r0, {r8, r9}
     5d8:	05f40493 	ldrbeq	r0, [r4, #1171]!	; 0x493
     5dc:	05fc0000 	ldrbeq	r0, [ip, #0]!
     5e0:	00050000 	andeq	r0, r5, r0
     5e4:	939f0478 	orrsls	r0, pc, #120, 8	; 0x78000000
     5e8:	0005fc04 	andeq	pc, r5, r4, lsl #24
     5ec:	0005fc00 	andeq	pc, r5, r0, lsl #24
     5f0:	58000300 	stmdapl	r0, {r8, r9}
     5f4:	05fc0493 	ldrbeq	r0, [ip, #1171]!	; 0x493
     5f8:	06000000 	streq	r0, [r0], -r0
     5fc:	00050000 	andeq	r0, r5, r0
     600:	939f0478 	orrsls	r0, pc, #120, 8	; 0x78000000
     604:	00060004 	andeq	r0, r6, r4
     608:	00070000 	andeq	r0, r7, r0
     60c:	58000300 	stmdapl	r0, {r8, r9}
     610:	07000493 			; <UNDEFINED> instruction: 0x07000493
     614:	070c0000 	streq	r0, [ip, -r0]
     618:	00050000 	andeq	r0, r5, r0
     61c:	939f0478 	orrsls	r0, pc, #120, 8	; 0x78000000
     620:	00070c04 	andeq	r0, r7, r4, lsl #24
     624:	0007f800 	andeq	pc, r7, r0, lsl #16
     628:	58000300 	stmdapl	r0, {r8, r9}
     62c:	07f80493 			; <UNDEFINED> instruction: 0x07f80493
     630:	07fc0000 	ldrbeq	r0, [ip, r0]!
     634:	00050000 	andeq	r0, r5, r0
     638:	939f0478 	orrsls	r0, pc, #120, 8	; 0x78000000
     63c:	0007fc04 	andeq	pc, r7, r4, lsl #24
     640:	00080000 	andeq	r0, r8, r0
     644:	58000300 	stmdapl	r0, {r8, r9}
     648:	08880493 	stmeq	r8, {r0, r1, r4, r7, sl}
     64c:	09200000 	stmdbeq	r0!, {}	; <UNPREDICTABLE>
     650:	00030000 	andeq	r0, r3, r0
     654:	20049358 	andcs	r9, r4, r8, asr r3
     658:	28000009 	stmdacs	r0, {r0, r3}
     65c:	01000009 	tsteq	r0, r9
     660:	09645300 	stmdbeq	r4!, {r8, r9, ip, lr}^
     664:	09b40000 	ldmibeq	r4!, {}	; <UNPREDICTABLE>
     668:	00030000 	andeq	r0, r3, r0
     66c:	00049358 	andeq	r9, r4, r8, asr r3
     670:	00000000 	andeq	r0, r0, r0
     674:	01000000 	mrseq	r0, (UNDEF: 0)
	...
     680:	00000202 	andeq	r0, r0, r2, lsl #4
     684:	01010100 	mrseq	r0, (UNDEF: 17)
     688:	00000000 	andeq	r0, r0, r0
     68c:	0003ac00 	andeq	sl, r3, r0, lsl #24
     690:	0003d000 	andeq	sp, r3, r0
     694:	5b000100 	blpl	a9c <__code_start__-0x7564>
     698:	000003d0 	ldrdeq	r0, [r0], -r0	; <UNPREDICTABLE>
     69c:	000003d4 	ldrdeq	r0, [r0], -r4
     6a0:	d4540001 	ldrble	r0, [r4], #-1
     6a4:	d8000003 	stmdale	r0, {r0, r1}
     6a8:	03000003 	movweq	r0, #3
     6ac:	9f7f7400 	svcls	0x007f7400
     6b0:	000003d8 	ldrdeq	r0, [r0], -r8
     6b4:	000003fc 	strdeq	r0, [r0], -ip
     6b8:	a8540001 	ldmdage	r4, {r0}^
     6bc:	ac000004 	stcge	0, cr0, [r0], {4}
     6c0:	01000004 	tsteq	r0, r4
     6c4:	04ac5400 	strteq	r5, [ip], #1024	; 0x400
     6c8:	04b40000 	ldrteq	r0, [r4], #0
     6cc:	00030000 	andeq	r0, r3, r0
     6d0:	b49f0174 	ldrlt	r0, [pc], #372	; 6d8 <__code_start__-0x7928>
     6d4:	c0000004 	andgt	r0, r0, r4
     6d8:	01000004 	tsteq	r0, r4
     6dc:	04e45400 	strbteq	r5, [r4], #1024	; 0x400
     6e0:	04f40000 	ldrbteq	r0, [r4], #0
     6e4:	00010000 	andeq	r0, r1, r0
     6e8:	0004f454 	andeq	pc, r4, r4, asr r4	; <UNPREDICTABLE>
     6ec:	0004f800 	andeq	pc, r4, r0, lsl #16
     6f0:	74000300 	strvc	r0, [r0], #-768	; 0xfffffd00
     6f4:	04f89f01 	ldrbteq	r9, [r8], #3841	; 0xf01
     6f8:	05040000 	streq	r0, [r4, #-0]
     6fc:	00010000 	andeq	r0, r1, r0
     700:	00092054 	andeq	r2, r9, r4, asr r0
     704:	00092800 	andeq	r2, r9, r0, lsl #16
     708:	5b000100 	blpl	b10 <__code_start__-0x74f0>
	...
     714:	03ac0001 			; <UNDEFINED> instruction: 0x03ac0001
     718:	09b40000 	ldmibeq	r4!, {}	; <UNPREDICTABLE>
     71c:	00010000 	andeq	r0, r1, r0
     720:	00000057 	andeq	r0, r0, r7, asr r0
     724:	00000000 	andeq	r0, r0, r0
     728:	00000200 	andeq	r0, r0, r0, lsl #4
     72c:	7c000000 	stcvc	0, cr0, [r0], {-0}
     730:	d0000005 	andle	r0, r0, r5
     734:	01000005 	tsteq	r0, r5
     738:	08005b00 	stmdaeq	r0, {r8, r9, fp, ip, lr}
     73c:	08880000 	stmeq	r8, {}	; <UNPREDICTABLE>
     740:	00010000 	andeq	r0, r1, r0
     744:	0009485b 	andeq	r4, r9, fp, asr r8
     748:	00096400 	andeq	r6, r9, r0, lsl #8
     74c:	5b000100 	blpl	b54 <__code_start__-0x74ac>
	...
     758:	00000003 	andeq	r0, r0, r3
     75c:	057c0000 	ldrbeq	r0, [ip, #-0]!
     760:	05d00000 	ldrbeq	r0, [r0]
     764:	00010000 	andeq	r0, r1, r0
     768:	00080059 	andeq	r0, r8, r9, asr r0
     76c:	00088800 	andeq	r8, r8, r0, lsl #16
     770:	59000100 	stmdbpl	r0, {r8}
     774:	00000948 	andeq	r0, r0, r8, asr #18
     778:	00000964 	andeq	r0, r0, r4, ror #18
     77c:	00590001 	subseq	r0, r9, r1
     780:	00000000 	andeq	r0, r0, r0
     784:	04000000 	streq	r0, [r0], #-0
     788:	00000000 	andeq	r0, r0, r0
     78c:	ac000000 	stcge	0, cr0, [r0], {-0}
     790:	d0000003 	andle	r0, r0, r3
     794:	01000003 	tsteq	r0, r3
     798:	03d05200 	bicseq	r5, r0, #0, 4
     79c:	09200000 	stmdbeq	r0!, {}	; <UNPREDICTABLE>
     7a0:	00040000 	andeq	r0, r4, r0
     7a4:	9f5201f3 	svcls	0x005201f3
     7a8:	00000920 	andeq	r0, r0, r0, lsr #18
     7ac:	00000928 	andeq	r0, r0, r8, lsr #18
     7b0:	28520001 	ldmdacs	r2, {r0}^
     7b4:	b4000009 	strlt	r0, [r0], #-9
     7b8:	04000009 	streq	r0, [r0], #-9
     7bc:	5201f300 	andpl	pc, r1, #0, 6
     7c0:	0000009f 	muleq	r0, pc, r0	; <UNPREDICTABLE>
     7c4:	00000000 	andeq	r0, r0, r0
     7c8:	01010000 	mrseq	r0, (UNDEF: 1)
     7cc:	00000000 	andeq	r0, r0, r0
     7d0:	00000100 	andeq	r0, r0, r0, lsl #2
     7d4:	0004e000 	andeq	lr, r4, r0
     7d8:	0004e000 	andeq	lr, r4, r0
     7dc:	50000100 	andpl	r0, r0, r0, lsl #2
     7e0:	000004e0 	andeq	r0, r0, r0, ror #9
     7e4:	000004e8 	andeq	r0, r0, r8, ror #9
     7e8:	b8550001 	ldmdalt	r5, {r0}^
     7ec:	d0000005 	andle	r0, r0, r5
     7f0:	01000005 	tsteq	r0, r5
     7f4:	05f05500 	ldrbeq	r5, [r0, #1280]!	; 0x500
     7f8:	05f40000 	ldrbeq	r0, [r4, #0]!
     7fc:	00010000 	andeq	r0, r1, r0
     800:	0007f450 	andeq	pc, r7, r0, asr r4	; <UNPREDICTABLE>
     804:	0007f800 	andeq	pc, r7, r0, lsl #16
     808:	55000100 	strpl	r0, [r0, #-256]	; 0xffffff00
     80c:	00000850 	andeq	r0, r0, r0, asr r8
     810:	00000888 	andeq	r0, r0, r8, lsl #17
     814:	00550001 	subseq	r0, r5, r1
     818:	00000000 	andeq	r0, r0, r0
     81c:	02000000 	andeq	r0, r0, #0, 0
     820:	00000000 	andeq	r0, r0, r0
     824:	14000000 	strne	r0, [r0], #-0
     828:	18000004 	stmdane	r0, {r2}
     82c:	02000004 	andeq	r0, r0, #4, 0
     830:	189f3000 	ldmne	pc, {ip, sp}	; <UNPREDICTABLE>
     834:	1c000004 	stcne	0, cr0, [r0], {4}
     838:	01000004 	tsteq	r0, r4
     83c:	04285500 	strteq	r5, [r8], #-1280	; 0xfffffb00
     840:	043c0000 	ldrteq	r0, [ip], #-0
     844:	00010000 	andeq	r0, r1, r0
     848:	00092855 	andeq	r2, r9, r5, asr r8
     84c:	00093000 	andeq	r3, r9, r0
     850:	55000100 	strpl	r0, [r0, #-256]	; 0xffffff00
	...
     85c:	00000001 	andeq	r0, r0, r1
	...
     868:	00000504 	andeq	r0, r0, r4, lsl #10
     86c:	00000584 	andeq	r0, r0, r4, lsl #11
     870:	84560001 	ldrbhi	r0, [r6], #-1
     874:	88000005 	stmdahi	r0, {r0, r2}
     878:	03000005 	movweq	r0, #5
     87c:	9f7e7300 	svcls	0x007e7300
     880:	00000588 	andeq	r0, r0, r8, lsl #11
     884:	000005d0 	ldrdeq	r0, [r0], -r0	; <UNPREDICTABLE>
     888:	cc910007 	ldcgt	0, cr0, [r1], {7}
     88c:	1c32067d 	ldcne	6, cr0, [r2], #-500	; 0xfffffe0c
     890:	0008009f 	muleq	r8, pc, r0	; <UNPREDICTABLE>
     894:	00081c00 	andeq	r1, r8, r0, lsl #24
     898:	56000100 	strpl	r0, [r0], -r0, lsl #2
     89c:	0000081c 	andeq	r0, r0, ip, lsl r8
     8a0:	00000888 	andeq	r0, r0, r8, lsl #17
     8a4:	cc910007 	ldcgt	0, cr0, [r1], {7}
     8a8:	1c32067d 	ldcne	6, cr0, [r2], #-500	; 0xfffffe0c
     8ac:	0009489f 	muleq	r9, pc, r8	; <UNPREDICTABLE>
     8b0:	0009b400 	andeq	fp, r9, r0, lsl #8
     8b4:	56000100 	strpl	r0, [r0], -r0, lsl #2
	...
     8c0:	04020604 	streq	r0, [r2], #-1540	; 0xfffff9fc
     8c4:	00000414 	andeq	r0, r0, r4, lsl r4
     8c8:	00000414 	andeq	r0, r0, r4, lsl r4
     8cc:	00720006 	rsbseq	r0, r2, r6
     8d0:	9f1aff08 	svcls	0x001aff08
     8d4:	00000428 	andeq	r0, r0, r8, lsr #8
     8d8:	00000428 	andeq	r0, r0, r8, lsr #8
     8dc:	00720006 	rsbseq	r0, r2, r6
     8e0:	9f1aff08 	svcls	0x001aff08
	...
     8ec:	00000002 	andeq	r0, r0, r2
     8f0:	05fc0000 	ldrbeq	r0, [ip, #0]!
     8f4:	07000000 	streq	r0, [r0, -r0]
     8f8:	00030000 	andeq	r0, r3, r0
     8fc:	a89f8008 	ldmge	pc, {r3, pc}	; <UNPREDICTABLE>
     900:	bc000008 	stclt	0, cr0, [r0], {8}
     904:	03000008 	movweq	r0, #8
     908:	9f800800 	svcls	0x00800800
     90c:	00000910 	andeq	r0, r0, r0, lsl r9
     910:	00000920 	andeq	r0, r0, r0, lsr #18
     914:	80080003 	andhi	r0, r8, r3
     918:	0000009f 	muleq	r0, pc, r0	; <UNPREDICTABLE>
     91c:	00000000 	andeq	r0, r0, r0
     920:	00000100 	andeq	r0, r0, r0, lsl #2
     924:	fc000000 	stc2	0, cr0, [r0], {-0}
     928:	00000005 	andeq	r0, r0, r5
     92c:	02000007 	andeq	r0, r0, #7, 0
     930:	a89f3000 	ldmge	pc, {ip, sp}	; <UNPREDICTABLE>
     934:	bc000008 	stclt	0, cr0, [r0], {8}
     938:	02000008 	andeq	r0, r0, #8, 0
     93c:	109f3000 	addsne	r3, pc, r0
     940:	20000009 	andcs	r0, r0, r9
     944:	02000009 	andeq	r0, r0, #9, 0
     948:	009f3000 	addseq	r3, pc, r0
     94c:	00000000 	andeq	r0, r0, r0
     950:	01000000 	mrseq	r0, (UNDEF: 0)
     954:	00000000 	andeq	r0, r0, r0
     958:	0005fc00 	andeq	pc, r5, r0, lsl #24
     95c:	0006e000 	andeq	lr, r6, r0
     960:	55000100 	strpl	r0, [r0, #-256]	; 0xffffff00
     964:	000008a8 	andeq	r0, r0, r8, lsr #17
     968:	000008bc 			; <UNDEFINED> instruction: 0x000008bc
     96c:	10550001 	subsne	r0, r5, r1
     970:	20000009 	andcs	r0, r0, r9
     974:	01000009 	tsteq	r0, r9
     978:	00005500 	andeq	r5, r0, r0, lsl #10
     97c:	00000000 	andeq	r0, r0, r0
     980:	00010000 	andeq	r0, r1, r0
     984:	00000000 	andeq	r0, r0, r0
     988:	05fc0000 	ldrbeq	r0, [ip, #0]!
     98c:	06e00000 	strbteq	r0, [r0], r0
     990:	00040000 	andeq	r0, r4, r0
     994:	9f7dd091 	svcls	0x007dd091
     998:	000006e0 	andeq	r0, r0, r0, ror #13
     99c:	00000700 	andeq	r0, r0, r0, lsl #14
     9a0:	a8550001 	ldmdage	r5, {r0}^
     9a4:	bc000008 	stclt	0, cr0, [r0], {8}
     9a8:	04000008 	streq	r0, [r0], #-8
     9ac:	7dd09100 	ldfvcp	f1, [r0]
     9b0:	0009109f 	muleq	r9, pc, r0	; <UNPREDICTABLE>
     9b4:	00092000 	andeq	r2, r9, r0
     9b8:	91000400 	tstls	r0, r0, lsl #8
     9bc:	009f7dd0 			; <UNDEFINED> instruction: 0x009f7dd0
     9c0:	00000000 	andeq	r0, r0, r0
     9c4:	01000000 	mrseq	r0, (UNDEF: 0)
     9c8:	00000000 	andeq	r0, r0, r0
     9cc:	0005fc00 	andeq	pc, r5, r0, lsl #24
     9d0:	00070000 	andeq	r0, r7, r0
     9d4:	38000200 	stmdacc	r0, {r9}
     9d8:	0008a89f 	muleq	r8, pc, r8	; <UNPREDICTABLE>
     9dc:	0008bc00 	andeq	fp, r8, r0, lsl #24
     9e0:	38000200 	stmdacc	r0, {r9}
     9e4:	0009109f 	muleq	r9, pc, r0	; <UNPREDICTABLE>
     9e8:	00092000 	andeq	r2, r9, r0
     9ec:	38000200 	stmdacc	r0, {r9}
     9f0:	0000009f 	muleq	r0, pc, r0	; <UNPREDICTABLE>
     9f4:	00000000 	andeq	r0, r0, r0
     9f8:	07070400 	streq	r0, [r7, -r0, lsl #8]
	...
     a04:	fc000000 	stc2	0, cr0, [r0], {-0}
     a08:	fc000005 	stc2	0, cr0, [r0], {5}
     a0c:	04000005 	streq	r0, [r0], #-5
     a10:	7ed09100 	atnvcs	f1, f0
     a14:	0005fc9f 	muleq	r5, pc, ip	; <UNPREDICTABLE>
     a18:	00067800 	andeq	r7, r6, r0, lsl #16
     a1c:	91000400 	tstls	r0, r0, lsl #8
     a20:	789f7ed1 	ldmvc	pc, {r0, r4, r6, r7, r9, sl, fp, ip, sp, lr}	; <UNPREDICTABLE>
     a24:	d4000006 	strle	r0, [r0], #-6
     a28:	01000006 	tsteq	r0, r6
     a2c:	06d45c00 	ldrbeq	r5, [r4], r0, lsl #24
     a30:	07000000 	streq	r0, [r0, -r0]
     a34:	00040000 	andeq	r0, r4, r0
     a38:	9f7ed191 	svcls	0x007ed191
     a3c:	000008a8 	andeq	r0, r0, r8, lsr #17
     a40:	000008bc 			; <UNDEFINED> instruction: 0x000008bc
     a44:	d1910004 	orrsle	r0, r1, r4
     a48:	09109f7e 	ldmdbeq	r0, {r1, r2, r3, r4, r5, r6, r8, r9, sl, fp, ip, pc}
     a4c:	09140000 	ldmdbeq	r4, {}	; <UNPREDICTABLE>
     a50:	00040000 	andeq	r0, r4, r0
     a54:	9f7ed191 	svcls	0x007ed191
     a58:	00000914 	andeq	r0, r0, r4, lsl r9
     a5c:	00000920 	andeq	r0, r0, r0, lsr #18
     a60:	005c0001 	subseq	r0, ip, r1
     a64:	00000000 	andeq	r0, r0, r0
     a68:	04000000 	streq	r0, [r0], #-0
     a6c:	00010001 	andeq	r0, r1, r1
     a70:	00060800 	andeq	r0, r6, r0, lsl #16
     a74:	0006d000 	andeq	sp, r6, r0
     a78:	55000100 	strpl	r0, [r0, #-256]	; 0xffffff00
     a7c:	000008a8 	andeq	r0, r0, r8, lsr #17
     a80:	000008b8 			; <UNDEFINED> instruction: 0x000008b8
     a84:	10550001 	subsne	r0, r5, r1
     a88:	20000009 	andcs	r0, r0, r9
     a8c:	01000009 	tsteq	r0, r9
     a90:	00005500 	andeq	r5, r0, r0, lsl #10
     a94:	00000000 	andeq	r0, r0, r0
     a98:	00040000 	andeq	r0, r4, r0
     a9c:	01000000 	mrseq	r0, (UNDEF: 0)
     aa0:	01000000 	mrseq	r0, (UNDEF: 0)
     aa4:	06080000 	streq	r0, [r8], -r0
     aa8:	06b00000 	ldrteq	r0, [r0], r0
     aac:	00040000 	andeq	r0, r4, r0
     ab0:	9f7ed091 	svcls	0x007ed091
     ab4:	000006b0 			; <UNDEFINED> instruction: 0x000006b0
     ab8:	000006c8 	andeq	r0, r0, r8, asr #13
     abc:	c8500001 	ldmdagt	r0, {r0}^
     ac0:	d0000006 	andle	r0, r0, r6
     ac4:	04000006 	streq	r0, [r0], #-6
     ac8:	7ed09100 	atnvcs	f1, f0
     acc:	0008a89f 	muleq	r8, pc, r8	; <UNPREDICTABLE>
     ad0:	0008b000 	andeq	fp, r8, r0
     ad4:	91000400 	tstls	r0, r0, lsl #8
     ad8:	b09f7ed0 			; <UNDEFINED> instruction: 0xb09f7ed0
     adc:	b8000008 	stmdalt	r0, {r3}
     ae0:	01000008 	tsteq	r0, r8
     ae4:	09105300 	ldmdbeq	r0, {r8, r9, ip, lr}
     ae8:	09200000 	stmdbeq	r0!, {}	; <UNPREDICTABLE>
     aec:	00040000 	andeq	r0, r4, r0
     af0:	9f7ed091 	svcls	0x007ed091
	...
     afc:	01000004 	tsteq	r0, r4
     b00:	03010101 	movweq	r0, #4353	; 0x1101
     b04:	01000203 	tsteq	r0, r3, lsl #4
     b08:	00000000 	andeq	r0, r0, r0
     b0c:	00000608 	andeq	r0, r0, r8, lsl #12
     b10:	00000624 	andeq	r0, r0, r4, lsr #12
     b14:	d1910004 	orrsle	r0, r1, r4
     b18:	06849f7e 			; <UNDEFINED> instruction: 0x06849f7e
     b1c:	06840000 	streq	r0, [r4], r0
     b20:	00010000 	andeq	r0, r1, r0
     b24:	00068450 	andeq	r8, r6, r0, asr r4
     b28:	00069800 	andeq	r9, r6, r0, lsl #16
     b2c:	70000300 	andvc	r0, r0, r0, lsl #6
     b30:	06989f01 	ldreq	r9, [r8], r1, lsl #30
     b34:	06a40000 	strteq	r0, [r4], r0
     b38:	00030000 	andeq	r0, r3, r0
     b3c:	a49f0270 	ldrge	r0, [pc], #624	; b44 <__code_start__-0x74bc>
     b40:	a8000006 	stmdage	r0, {r1, r2}
     b44:	03000006 	movweq	r0, #6
     b48:	9f037000 	svcls	0x00037000
     b4c:	000008a8 	andeq	r0, r0, r8, lsr #17
     b50:	000008b8 			; <UNDEFINED> instruction: 0x000008b8
     b54:	d1910004 	orrsle	r0, r1, r4
     b58:	09109f7e 	ldmdbeq	r0, {r1, r2, r3, r4, r5, r6, r8, r9, sl, fp, ip, pc}
     b5c:	09140000 	ldmdbeq	r4, {}	; <UNPREDICTABLE>
     b60:	00040000 	andeq	r0, r4, r0
     b64:	9f7ed191 	svcls	0x007ed191
     b68:	00000914 	andeq	r0, r0, r4, lsl r9
     b6c:	00000920 	andeq	r0, r0, r0, lsr #18
     b70:	005c0001 	subseq	r0, ip, r1
     b74:	00000000 	andeq	r0, r0, r0
     b78:	06000000 	streq	r0, [r0], -r0
     b7c:	01010000 	mrseq	r0, (UNDEF: 1)
     b80:	01010101 	tsteq	r1, r1, lsl #2
     b84:	00010002 	andeq	r0, r1, r2
     b88:	00060800 	andeq	r0, r6, r0, lsl #16
     b8c:	00062400 	andeq	r2, r6, r0, lsl #8
     b90:	31000200 	mrscc	r0, R8_usr
     b94:	0006849f 	muleq	r6, pc, r4	; <UNPREDICTABLE>
     b98:	00069400 	andeq	r9, r6, r0, lsl #8
     b9c:	52000100 	andpl	r0, r0, #0
     ba0:	00000694 	muleq	r0, r4, r6
     ba4:	000006a4 	andeq	r0, r0, r4, lsr #13
     ba8:	a4590001 	ldrbge	r0, [r9], #-1
     bac:	a8000006 	stmdage	r0, {r1, r2}
     bb0:	01000006 	tsteq	r0, r6
     bb4:	06a85200 	strteq	r5, [r8], r0, lsl #4
     bb8:	06a80000 	strteq	r0, [r8], r0
     bbc:	00030000 	andeq	r0, r3, r0
     bc0:	a89f0172 	ldmge	pc, {r1, r4, r5, r6, r8}	; <UNPREDICTABLE>
     bc4:	b8000008 	stmdalt	r0, {r3}
     bc8:	02000008 	andeq	r0, r0, #8, 0
     bcc:	109f3100 	addsne	r3, pc, r0, lsl #2
     bd0:	20000009 	andcs	r0, r0, r9
     bd4:	02000009 	andeq	r0, r0, #9, 0
     bd8:	009f3100 	addseq	r3, pc, r0, lsl #2
     bdc:	00000000 	andeq	r0, r0, r0
     be0:	01000000 	mrseq	r0, (UNDEF: 0)
     be4:	01000606 	tsteq	r0, r6, lsl #12
     be8:	0006d000 	andeq	sp, r6, r0
     bec:	0006d000 	andeq	sp, r6, r0
     bf0:	91000400 	tstls	r0, r0, lsl #8
     bf4:	d09f7ed0 			; <UNDEFINED> instruction: 0xd09f7ed0
     bf8:	00000006 	andeq	r0, r0, r6
     bfc:	01000007 	tsteq	r0, r7
     c00:	08b85000 	ldmeq	r8!, {ip, lr}
     c04:	08bc0000 	ldmeq	ip!, {}	; <UNPREDICTABLE>
     c08:	00010000 	andeq	r0, r1, r0
     c0c:	00000053 	andeq	r0, r0, r3, asr r0
     c10:	00000000 	andeq	r0, r0, r0
     c14:	00080100 	andeq	r0, r8, r0, lsl #2
     c18:	01010000 	mrseq	r0, (UNDEF: 1)
     c1c:	d0070100 	andle	r0, r7, r0, lsl #2
     c20:	d0000006 	andle	r0, r0, r6
     c24:	06000006 	streq	r0, [r0], -r6
     c28:	71007c00 	tstvc	r0, r0, lsl #24
     c2c:	e49f2200 	ldr	r2, [pc], #512	; c34 <__code_start__-0x73cc>
     c30:	e8000006 	stmda	r0, {r1, r2}
     c34:	03000006 	movweq	r0, #6
     c38:	9f7f7300 	svcls	0x007f7300
     c3c:	000006e8 	andeq	r0, r0, r8, ror #13
     c40:	000006f0 	strdeq	r0, [r0], -r0	; <UNPREDICTABLE>
     c44:	f0530001 			; <UNDEFINED> instruction: 0xf0530001
     c48:	f8000006 			; <UNDEFINED> instruction: 0xf8000006
     c4c:	03000006 	movweq	r0, #6
     c50:	9f7f7300 	svcls	0x007f7300
     c54:	000008b8 			; <UNDEFINED> instruction: 0x000008b8
     c58:	000008b8 			; <UNDEFINED> instruction: 0x000008b8
     c5c:	d1910004 	orrsle	r0, r1, r4
     c60:	00009f7e 	andeq	r9, r0, lr, ror pc
     c64:	00000000 	andeq	r0, r0, r0
     c68:	00010000 	andeq	r0, r1, r0
     c6c:	06d00001 	ldrbeq	r0, [r0], r1
     c70:	07000000 	streq	r0, [r0, -r0]
     c74:	00030000 	andeq	r0, r3, r0
     c78:	b89f8008 	ldmlt	pc, {r3, pc}	; <UNPREDICTABLE>
     c7c:	bc000008 	stclt	0, cr0, [r0], {8}
     c80:	03000008 	movweq	r0, #8
     c84:	9f800800 	svcls	0x00800800
	...
     c90:	00000001 	andeq	r0, r0, r1
     c94:	00010100 	andeq	r0, r1, r0, lsl #2
     c98:	01020000 	mrseq	r0, (UNDEF: 2)
     c9c:	06d00001 	ldrbeq	r0, [r0], r1
     ca0:	06e00000 	strbteq	r0, [r0], r0
     ca4:	00040000 	andeq	r0, r4, r0
     ca8:	9f7dd091 	svcls	0x007dd091
     cac:	000006e0 	andeq	r0, r0, r0, ror #13
     cb0:	000006e4 	andeq	r0, r0, r4, ror #13
     cb4:	e4550001 	ldrb	r0, [r5], #-1
     cb8:	e4000006 	str	r0, [r0], #-6
     cbc:	03000006 	movweq	r0, #6
     cc0:	9f017200 	svcls	0x00017200
     cc4:	000006e4 	andeq	r0, r0, r4, ror #13
     cc8:	000006f0 	strdeq	r0, [r0], -r0	; <UNPREDICTABLE>
     ccc:	02720003 	rsbseq	r0, r2, #3, 0
     cd0:	0006f09f 	muleq	r6, pc, r0	; <UNPREDICTABLE>
     cd4:	00070000 	andeq	r0, r7, r0
     cd8:	72000300 	andvc	r0, r0, #0, 6
     cdc:	07ec9f01 	strbeq	r9, [ip, r1, lsl #30]!
     ce0:	07f40000 	ldrbeq	r0, [r4, r0]!
     ce4:	00030000 	andeq	r0, r3, r0
     ce8:	b89f0173 	ldmlt	pc, {r0, r1, r4, r5, r6, r8}	; <UNPREDICTABLE>
     cec:	bc000008 	stclt	0, cr0, [r0], {8}
     cf0:	04000008 	streq	r0, [r0], #-8
     cf4:	7dd09100 	ldfvcp	f1, [r0]
     cf8:	0000009f 	muleq	r0, pc, r0	; <UNPREDICTABLE>
     cfc:	00000000 	andeq	r0, r0, r0
     d00:	b8000400 	stmdalt	r0, {sl}
     d04:	bc000008 	stclt	0, cr0, [r0], {8}
     d08:	02000008 	andeq	r0, r0, #8, 0
     d0c:	009f3200 	addseq	r3, pc, r0, lsl #4
     d10:	00000000 	andeq	r0, r0, r0
     d14:	07000000 	streq	r0, [r0, -r0]
     d18:	06000000 	streq	r0, [r0], -r0
     d1c:	0006d000 	andeq	sp, r6, r0
     d20:	0006e000 	andeq	lr, r6, r0
     d24:	91000400 	tstls	r0, r0, lsl #8
     d28:	e09f7dd0 			; <UNDEFINED> instruction: 0xe09f7dd0
     d2c:	00000006 	andeq	r0, r0, r6
     d30:	01000007 	tsteq	r0, r7
     d34:	08b85500 	ldmeq	r8!, {r8, sl, ip, lr}
     d38:	08bc0000 	ldmeq	ip!, {}	; <UNPREDICTABLE>
     d3c:	00040000 	andeq	r0, r4, r0
     d40:	9f7dd091 	svcls	0x007dd091
	...
     d4c:	00000001 	andeq	r0, r0, r1
     d50:	0000070c 	andeq	r0, r0, ip, lsl #14
     d54:	000007ec 	andeq	r0, r0, ip, ror #15
     d58:	80080003 	andhi	r0, r8, r3
     d5c:	0008949f 	muleq	r8, pc, r4	; <UNPREDICTABLE>
     d60:	0008a800 	andeq	sl, r8, r0, lsl #16
     d64:	08000300 	stmdaeq	r0, {r8, r9}
     d68:	00009f80 	andeq	r9, r0, r0, lsl #31
	...
     d74:	070c0000 	streq	r0, [ip, -r0]
     d78:	07ec0000 	strbeq	r0, [ip, r0]!
     d7c:	00020000 	andeq	r0, r2, r0
     d80:	08949f30 	ldmeq	r4, {r4, r5, r8, r9, sl, fp, ip, pc}
     d84:	08a80000 	stmiaeq	r8!, {}	; <UNPREDICTABLE>
     d88:	00020000 	andeq	r0, r2, r0
     d8c:	00009f30 	andeq	r9, r0, r0, lsr pc
	...
     d98:	070c0000 	streq	r0, [ip, -r0]
     d9c:	07d00000 	ldrbeq	r0, [r0, r0]
     da0:	00010000 	andeq	r0, r1, r0
     da4:	00089455 	andeq	r9, r8, r5, asr r4
     da8:	0008a800 	andeq	sl, r8, r0, lsl #16
     dac:	55000100 	strpl	r0, [r0, #-256]	; 0xffffff00
	...
     dbc:	070c0000 	streq	r0, [ip, -r0]
     dc0:	07d00000 	ldrbeq	r0, [r0, r0]
     dc4:	00040000 	andeq	r0, r4, r0
     dc8:	9f7dd091 	svcls	0x007dd091
     dcc:	000007d0 	ldrdeq	r0, [r0], -r0	; <UNPREDICTABLE>
     dd0:	000007ec 	andeq	r0, r0, ip, ror #15
     dd4:	94550001 	ldrbls	r0, [r5], #-1
     dd8:	a8000008 	stmdage	r0, {r3}
     ddc:	04000008 	streq	r0, [r0], #-8
     de0:	7dd09100 	ldfvcp	f1, [r0]
     de4:	0000009f 	muleq	r0, pc, r0	; <UNPREDICTABLE>
	...
     df0:	00070c00 	andeq	r0, r7, r0, lsl #24
     df4:	0007ec00 	andeq	lr, r7, r0, lsl #24
     df8:	32000200 	andcc	r0, r0, #0, 4
     dfc:	0008949f 	muleq	r8, pc, r4	; <UNPREDICTABLE>
     e00:	0008a800 	andeq	sl, r8, r0, lsl #16
     e04:	32000200 	andcc	r0, r0, #0, 4
     e08:	0000009f 	muleq	r0, pc, r0	; <UNPREDICTABLE>
     e0c:	00000000 	andeq	r0, r0, r0
     e10:	05050300 	streq	r0, [r5, #-768]	; 0xfffffd00
     e14:	00000000 	andeq	r0, r0, r0
     e18:	0c000000 	stceq	0, cr0, [r0], {-0}
     e1c:	0c000007 	stceq	0, cr0, [r0], {7}
     e20:	01000007 	tsteq	r0, r7
     e24:	070c5100 	streq	r5, [ip, -r0, lsl #2]
     e28:	071c0000 	ldreq	r0, [ip, -r0]
     e2c:	00010000 	andeq	r0, r1, r0
     e30:	00071c53 	andeq	r1, r7, r3, asr ip
     e34:	00072400 	andeq	r2, r7, r0, lsl #8
     e38:	72000300 	andvc	r0, r0, #0, 6
     e3c:	07249f01 	streq	r9, [r4, -r1, lsl #30]!
     e40:	07cc0000 	strbeq	r0, [ip, r0]
     e44:	00010000 	andeq	r0, r1, r0
     e48:	00089453 	andeq	r9, r8, r3, asr r4
     e4c:	0008a800 	andeq	sl, r8, r0, lsl #16
     e50:	53000100 	movwpl	r0, #256	; 0x100
	...
     e5c:	00010005 	andeq	r0, r1, r5
     e60:	0000070c 	andeq	r0, r0, ip, lsl #14
     e64:	00000720 	andeq	r0, r0, r0, lsr #14
     e68:	24500001 	ldrbcs	r0, [r0], #-1
     e6c:	2c000007 	stccs	0, cr0, [r0], {7}
     e70:	01000007 	tsteq	r0, r7
     e74:	00005000 	andeq	r5, r0, r0
     e78:	00000000 	andeq	r0, r0, r0
     e7c:	01030000 	mrseq	r0, (UNDEF: 3)
     e80:	07280100 	streq	r0, [r8, -r0, lsl #2]!
     e84:	07b00000 	ldreq	r0, [r0, r0]!
     e88:	00010000 	andeq	r0, r1, r0
     e8c:	00089455 	andeq	r9, r8, r5, asr r4
     e90:	0008a000 	andeq	sl, r8, r0
     e94:	55000100 	strpl	r0, [r0, #-256]	; 0xffffff00
	...
     ea0:	01000103 	tsteq	r0, r3, lsl #2
     ea4:	00000728 	andeq	r0, r0, r8, lsr #14
     ea8:	000007b0 			; <UNDEFINED> instruction: 0x000007b0
     eac:	94510001 	ldrbls	r0, [r1], #-1
     eb0:	a0000008 	andge	r0, r0, r8
     eb4:	01000008 	tsteq	r0, r8
     eb8:	00005100 	andeq	r5, r0, r0, lsl #2
     ebc:	00000000 	andeq	r0, r0, r0
     ec0:	00030000 	andeq	r0, r3, r0
     ec4:	01010100 	mrseq	r0, (UNDEF: 17)
     ec8:	02030301 	andeq	r0, r3, #67108864	; 0x4000000
     ecc:	07280100 	streq	r0, [r8, -r0, lsl #2]!
     ed0:	07500000 	ldrbeq	r0, [r0, -r0]
     ed4:	00010000 	andeq	r0, r1, r0
     ed8:	00077453 	andeq	r7, r7, r3, asr r4
     edc:	00077400 	andeq	r7, r7, r0, lsl #8
     ee0:	5e000100 	adfpls	f0, f0, f0
     ee4:	00000774 	andeq	r0, r0, r4, ror r7
     ee8:	00000788 	andeq	r0, r0, r8, lsl #15
     eec:	017e0003 	cmneq	lr, r3
     ef0:	0007889f 	muleq	r7, pc, r8	; <UNPREDICTABLE>
     ef4:	00079400 	andeq	r9, r7, r0, lsl #8
     ef8:	7e000300 	cdpvc	3, 0, cr0, cr0, cr0, {0}
     efc:	07949f02 	ldreq	r9, [r4, r2, lsl #30]
     f00:	07980000 	ldreq	r0, [r8, r0]
     f04:	00030000 	andeq	r0, r3, r0
     f08:	949f037e 	ldrls	r0, [pc], #894	; f10 <__code_start__-0x70f0>
     f0c:	a0000008 	andge	r0, r0, r8
     f10:	01000008 	tsteq	r0, r8
     f14:	00005300 	andeq	r5, r0, r0, lsl #6
	...
     f20:	01010100 	mrseq	r0, (UNDEF: 17)
     f24:	02010101 	andeq	r0, r1, #1073741824	; 0x40000000
     f28:	072c0100 	streq	r0, [ip, -r0, lsl #2]!
     f2c:	07500000 	ldrbeq	r0, [r0, -r0]
     f30:	00010000 	andeq	r0, r1, r0
     f34:	00077450 	andeq	r7, r7, r0, asr r4
     f38:	00078400 	andeq	r8, r7, r0, lsl #8
     f3c:	50000100 	andpl	r0, r0, r0, lsl #2
     f40:	00000784 	andeq	r0, r0, r4, lsl #15
     f44:	00000794 	muleq	r0, r4, r7
     f48:	945b0001 	ldrbls	r0, [fp], #-1
     f4c:	98000007 	stmdals	r0, {r0, r1, r2}
     f50:	01000007 	tsteq	r0, r7
     f54:	07985000 	ldreq	r5, [r8, r0]
     f58:	07980000 	ldreq	r0, [r8, r0]
     f5c:	00030000 	andeq	r0, r3, r0
     f60:	949f0170 	ldrls	r0, [pc], #368	; f68 <__code_start__-0x7098>
     f64:	a0000008 	andge	r0, r0, r8
     f68:	01000008 	tsteq	r0, r8
     f6c:	00005000 	andeq	r5, r0, r0
     f70:	00000000 	andeq	r0, r0, r0
     f74:	00010000 	andeq	r0, r1, r0
     f78:	07b00001 	ldreq	r0, [r0, r1]!
     f7c:	07ec0000 	strbeq	r0, [ip, r0]!
     f80:	00010000 	andeq	r0, r1, r0
     f84:	0008a051 	andeq	sl, r8, r1, asr r0
     f88:	0008a800 	andeq	sl, r8, r0, lsl #16
     f8c:	51000100 	mrspl	r0, (UNDEF: 16)
	...
     f98:	00000001 	andeq	r0, r0, r1
     f9c:	00010100 	andeq	r0, r1, r0, lsl #2
     fa0:	07b00001 	ldreq	r0, [r0, r1]!
     fa4:	07b40000 	ldreq	r0, [r4, r0]!
     fa8:	00060000 	andeq	r0, r6, r0
     fac:	007c0073 	rsbseq	r0, ip, r3, ror r0
     fb0:	07d49f22 	ldrbeq	r9, [r4, r2, lsr #30]
     fb4:	07d80000 	ldrbeq	r0, [r8, r0]
     fb8:	00030000 	andeq	r0, r3, r0
     fbc:	d89f7f73 	ldmle	pc, {r0, r1, r4, r5, r6, r8, r9, sl, fp, ip, sp, lr}	; <UNPREDICTABLE>
     fc0:	e0000007 	and	r0, r0, r7
     fc4:	01000007 	tsteq	r0, r7
     fc8:	07e05300 	strbeq	r5, [r0, r0, lsl #6]!
     fcc:	07e80000 	strbeq	r0, [r8, r0]!
     fd0:	00030000 	andeq	r0, r3, r0
     fd4:	a09f7f73 	addsge	r7, pc, r3, ror pc	; <UNPREDICTABLE>
     fd8:	a8000008 	stmdage	r0, {r3}
     fdc:	01000008 	tsteq	r0, r8
     fe0:	00005300 	andeq	r5, r0, r0, lsl #6
     fe4:	00000000 	andeq	r0, r0, r0
     fe8:	00010000 	andeq	r0, r1, r0
     fec:	07b00001 	ldreq	r0, [r0, r1]!
     ff0:	07ec0000 	strbeq	r0, [ip, r0]!
     ff4:	00030000 	andeq	r0, r3, r0
     ff8:	a09f8008 	addsge	r8, pc, r8
     ffc:	a8000008 	stmdage	r0, {r3}
    1000:	03000008 	movweq	r0, #8
    1004:	9f800800 	svcls	0x00800800
	...
    1010:	00000001 	andeq	r0, r0, r1
    1014:	00010100 	andeq	r0, r1, r0, lsl #2
    1018:	00010000 	andeq	r0, r1, r0
    101c:	000007b0 			; <UNDEFINED> instruction: 0x000007b0
    1020:	000007d0 	ldrdeq	r0, [r0], -r0	; <UNPREDICTABLE>
    1024:	d0910004 	addsle	r0, r1, r4
    1028:	07d09f7d 			; <UNDEFINED> instruction: 0x07d09f7d
    102c:	07d40000 	ldrbeq	r0, [r4, r0]
    1030:	00010000 	andeq	r0, r1, r0
    1034:	0007d455 	andeq	sp, r7, r5, asr r4
    1038:	0007d400 	andeq	sp, r7, r0, lsl #8
    103c:	7c000300 	stcvc	3, cr0, [r0], {-0}
    1040:	07d49f01 	ldrbeq	r9, [r4, r1, lsl #30]
    1044:	07e00000 	strbeq	r0, [r0, r0]!
    1048:	00030000 	andeq	r0, r3, r0
    104c:	e09f027c 	adds	r0, pc, ip, ror r2	; <UNPREDICTABLE>
    1050:	ec000007 	stc	0, cr0, [r0], {7}
    1054:	03000007 	movweq	r0, #7
    1058:	9f017c00 	svcls	0x00017c00
    105c:	000008a0 	andeq	r0, r0, r0, lsr #17
    1060:	000008a8 	andeq	r0, r0, r8, lsr #17
    1064:	d0910004 	addsle	r0, r1, r4
    1068:	00009f7d 	andeq	r9, r0, sp, ror pc
    106c:	00000000 	andeq	r0, r0, r0
    1070:	00040000 	andeq	r0, r4, r0
    1074:	07b00004 	ldreq	r0, [r0, r4]!
    1078:	07b40000 	ldreq	r0, [r4, r0]!
    107c:	00030000 	andeq	r0, r3, r0
    1080:	a09f0170 	addsge	r0, pc, r0, ror r1	; <UNPREDICTABLE>
    1084:	a8000008 	stmdage	r0, {r3}
    1088:	03000008 	movweq	r0, #8
    108c:	9f017000 	svcls	0x00017000
	...
    1098:	00000001 	andeq	r0, r0, r1
    109c:	000007bc 			; <UNDEFINED> instruction: 0x000007bc
    10a0:	000007d0 	ldrdeq	r0, [r0], -r0	; <UNPREDICTABLE>
    10a4:	d0910004 	addsle	r0, r1, r4
    10a8:	07d09f7d 			; <UNDEFINED> instruction: 0x07d09f7d
    10ac:	07ec0000 	strbeq	r0, [ip, r0]!
    10b0:	00010000 	andeq	r0, r1, r0
    10b4:	00000055 	andeq	r0, r0, r5, asr r0
	...
    10c0:	00032800 	andeq	r2, r3, r0, lsl #16
    10c4:	00036400 	andeq	r6, r3, r0, lsl #8
    10c8:	50000100 	andpl	r0, r0, r0, lsl #2
    10cc:	00000364 	andeq	r0, r0, r4, ror #6
    10d0:	00000388 	andeq	r0, r0, r8, lsl #7
    10d4:	01f30004 	mvnseq	r0, r4
    10d8:	00009f50 	andeq	r9, r0, r0, asr pc
	...
    10e4:	03280000 			; <UNDEFINED> instruction: 0x03280000
    10e8:	035c0000 	cmpeq	ip, #0, 0
    10ec:	00010000 	andeq	r0, r1, r0
    10f0:	00035c51 	andeq	r5, r3, r1, asr ip
    10f4:	00038800 	andeq	r8, r3, r0, lsl #16
    10f8:	f3000400 	vshl.u8	d0, d0, d0
    10fc:	009f5101 	addseq	r5, pc, r1, lsl #2
	...
    1120:	14000000 	strne	r0, [r0], #-0
    1124:	01000000 	mrseq	r0, (UNDEF: 0)
    1128:	00145000 	andseq	r5, r4, r0
    112c:	00200000 	eoreq	r0, r0, r0
    1130:	00010000 	andeq	r0, r1, r0
    1134:	0000205c 	andeq	r2, r0, ip, asr r0
    1138:	00006800 	andeq	r6, r0, r0, lsl #16
    113c:	71000300 	mrsvc	r0, LR_irq
    1140:	00689f02 	rsbeq	r9, r8, r2, lsl #30
    1144:	006c0000 	rsbeq	r0, ip, r0
    1148:	00030000 	andeq	r0, r3, r0
    114c:	6c9f0273 	lfmvs	f0, 4, [pc], {115}	; 0x73
    1150:	94000000 	strls	r0, [r0], #-0
    1154:	04000001 	streq	r0, [r0], #-1
    1158:	5001f300 	andpl	pc, r1, r0, lsl #6
    115c:	0001949f 	muleq	r1, pc, r4	; <UNPREDICTABLE>
    1160:	00019800 	andeq	r9, r1, r0, lsl #16
    1164:	73000300 	movwvc	r0, #768	; 0x300
    1168:	01989f02 	orrseq	r9, r8, r2, lsl #30
    116c:	01c00000 	biceq	r0, r0, r0
    1170:	00040000 	andeq	r0, r4, r0
    1174:	9f5001f3 	svcls	0x005001f3
    1178:	000001c0 	andeq	r0, r0, r0, asr #3
    117c:	000001c8 	andeq	r0, r0, r8, asr #3
    1180:	c85c0001 	ldmdagt	ip, {r0}^
    1184:	14000001 	strne	r0, [r0], #-1
    1188:	03000002 	movweq	r0, #2
    118c:	9f027300 	svcls	0x00027300
    1190:	00000214 	andeq	r0, r0, r4, lsl r2
    1194:	000002ec 	andeq	r0, r0, ip, ror #5
    1198:	01f30004 	mvnseq	r0, r4
    119c:	02ec9f50 	rsceq	r9, ip, #80, 30	; 0x140
    11a0:	02f40000 	rscseq	r0, r4, #0, 0
    11a4:	00030000 	andeq	r0, r3, r0
    11a8:	f49f0273 			; <UNDEFINED> instruction: 0xf49f0273
    11ac:	28000002 	stmdacs	r0, {r1}
    11b0:	04000003 	streq	r0, [r0], #-3
    11b4:	5001f300 	andpl	pc, r1, r0, lsl #6
    11b8:	0000009f 	muleq	r0, pc, r0	; <UNPREDICTABLE>
	...
    11cc:	00001c00 	andeq	r1, r0, r0, lsl #24
    11d0:	51000100 	mrspl	r0, (UNDEF: 16)
    11d4:	0000001c 	andeq	r0, r0, ip, lsl r0
    11d8:	000002e0 	andeq	r0, r0, r0, ror #5
    11dc:	e0500001 	subs	r0, r0, r1
    11e0:	ec000002 	stc	0, cr0, [r0], {2}
    11e4:	04000002 	streq	r0, [r0], #-2
    11e8:	5101f300 	mrspl	pc, SP_irq	; <UNPREDICTABLE>
    11ec:	0002ec9f 	muleq	r2, pc, ip	; <UNPREDICTABLE>
    11f0:	00032800 	andeq	r2, r3, r0, lsl #16
    11f4:	50000100 	andpl	r0, r0, r0, lsl #2
	...
    1204:	00000100 	andeq	r0, r0, r0, lsl #2
    1208:	00000000 	andeq	r0, r0, r0
    120c:	00020200 	andeq	r0, r2, r0, lsl #4
	...
    1224:	00000070 	andeq	r0, r0, r0, ror r0
    1228:	70520001 	subsvc	r0, r2, r1
    122c:	78000000 	stmdavc	r0, {}	; <UNPREDICTABLE>
    1230:	01000000 	mrseq	r0, (UNDEF: 0)
    1234:	00785c00 	rsbseq	r5, r8, r0, lsl #24
    1238:	00a40000 	adceq	r0, r4, r0
    123c:	00040000 	andeq	r0, r4, r0
    1240:	9f5201f3 	svcls	0x005201f3
    1244:	00000194 	muleq	r0, r4, r1
    1248:	0000019c 	muleq	r0, ip, r1
    124c:	9c520001 	mrrcls	0, 0, r0, r2, cr1
    1250:	a4000001 	strge	r0, [r0], #-1
    1254:	01000001 	tsteq	r0, r1
    1258:	01a45c00 			; <UNDEFINED> instruction: 0x01a45c00
    125c:	01c00000 	biceq	r0, r0, r0
    1260:	00040000 	andeq	r0, r4, r0
    1264:	9f5201f3 	svcls	0x005201f3
    1268:	000001c0 	andeq	r0, r0, r0, asr #3
    126c:	00000220 	andeq	r0, r0, r0, lsr #4
    1270:	20520001 	subscs	r0, r2, r1
    1274:	28000002 	stmdacs	r0, {r1}
    1278:	04000002 	streq	r0, [r0], #-2
    127c:	1f007200 	svcne	0x00007200
    1280:	0002289f 	muleq	r2, pc, r8	; <UNPREDICTABLE>
    1284:	00027400 	andeq	r7, r2, r0, lsl #8
    1288:	f3000500 	vrshl.u8	d0, d0, d0
    128c:	9f1f5201 	svcls	0x001f5201
    1290:	00000274 	andeq	r0, r0, r4, ror r2
    1294:	00000288 	andeq	r0, r0, r8, lsl #5
    1298:	88520001 	ldmdahi	r2, {r0}^
    129c:	a0000002 	andge	r0, r0, r2
    12a0:	01000002 	tsteq	r0, r2
    12a4:	02cc5c00 	sbceq	r5, ip, #0, 24
    12a8:	02d00000 	sbcseq	r0, r0, #0, 0
    12ac:	00010000 	andeq	r0, r1, r0
    12b0:	0002d052 	andeq	sp, r2, r2, asr r0
    12b4:	0002e700 	andeq	lr, r2, r0, lsl #14
    12b8:	5c000100 	stfpls	f0, [r0], {-0}
    12bc:	000002e7 	andeq	r0, r0, r7, ror #5
    12c0:	000002ec 	andeq	r0, r0, ip, ror #5
    12c4:	01f30004 	mvnseq	r0, r4
    12c8:	02ec9f52 	rsceq	r9, ip, #328	; 0x148
    12cc:	03000000 	movweq	r0, #0
    12d0:	00010000 	andeq	r0, r1, r0
    12d4:	00030052 	andeq	r0, r3, r2, asr r0
    12d8:	00032800 	andeq	r2, r3, r0, lsl #16
    12dc:	5c000100 	stfpls	f0, [r0], {-0}
	...
    12f8:	00680000 	rsbeq	r0, r8, r0
    12fc:	00010000 	andeq	r0, r1, r0
    1300:	00006853 	andeq	r6, r0, r3, asr r8
    1304:	00006c00 	andeq	r6, r0, r0, lsl #24
    1308:	08000300 	stmdaeq	r0, {r8, r9}
    130c:	01949f7f 	orrseq	r9, r4, pc, ror pc
    1310:	01980000 	orrseq	r0, r8, r0
    1314:	00030000 	andeq	r0, r3, r0
    1318:	c09f7f08 	addsgt	r7, pc, r8, lsl #30
    131c:	14000001 	strne	r0, [r0], #-1
    1320:	03000002 	movweq	r0, #2
    1324:	9f7f0800 	svcls	0x007f0800
    1328:	00000274 	andeq	r0, r0, r4, ror r2
    132c:	00000290 	muleq	r0, r0, r2
    1330:	90530001 	subsls	r0, r3, r1
    1334:	a0000002 	andge	r0, r0, r2
    1338:	04000002 	streq	r0, [r0], #-2
    133c:	5301f300 	movwpl	pc, #4864	; 0x1300	; <UNPREDICTABLE>
    1340:	0002ec9f 	muleq	r2, pc, ip	; <UNPREDICTABLE>
    1344:	00032800 	andeq	r2, r3, r0, lsl #16
    1348:	08000300 	stmdaeq	r0, {r8, r9}
    134c:	00009f7f 	andeq	r9, r0, pc, ror pc
    1350:	00000000 	andeq	r0, r0, r0
    1354:	00010000 	andeq	r0, r1, r0
    1358:	02000000 	andeq	r0, r0, #0, 0
    135c:	01000002 	tsteq	r0, r2
    1360:	00000001 	andeq	r0, r0, r1
    1364:	00000000 	andeq	r0, r0, r0
    1368:	00020200 	andeq	r0, r2, r0, lsl #4
    136c:	00010000 	andeq	r0, r1, r0
    1370:	00000000 	andeq	r0, r0, r0
    1374:	01000000 	mrseq	r0, (UNDEF: 0)
    1378:	00000001 	andeq	r0, r0, r1
    137c:	00020200 	andeq	r0, r2, r0, lsl #4
    1380:	00000000 	andeq	r0, r0, r0
    1384:	00010100 	andeq	r0, r1, r0, lsl #2
    1388:	00180000 	andseq	r0, r8, r0
    138c:	00700000 	rsbseq	r0, r0, r0
    1390:	00040000 	andeq	r0, r4, r0
    1394:	9f7fa091 	svcls	0x007fa091
    1398:	00000070 	andeq	r0, r0, r0, ror r0
    139c:	00000078 	andeq	r0, r0, r8, ror r0
    13a0:	78520001 	ldmdavc	r2, {r0}^
    13a4:	78000000 	stmdavc	r0, {}	; <UNPREDICTABLE>
    13a8:	01000000 	mrseq	r0, (UNDEF: 0)
    13ac:	00785400 	rsbseq	r5, r8, r0, lsl #8
    13b0:	00880000 	addeq	r0, r8, r0
    13b4:	00030000 	andeq	r0, r3, r0
    13b8:	889f0174 	ldmhi	pc, {r2, r4, r5, r6, r8}	; <UNPREDICTABLE>
    13bc:	90000000 	andls	r0, r0, r0
    13c0:	01000000 	mrseq	r0, (UNDEF: 0)
    13c4:	00905400 	addseq	r5, r0, r0, lsl #8
    13c8:	00a00000 	adceq	r0, r0, r0
    13cc:	00030000 	andeq	r0, r3, r0
    13d0:	a09f0274 	addsge	r0, pc, r4, ror r2	; <UNPREDICTABLE>
    13d4:	b0000000 	andlt	r0, r0, r0
    13d8:	01000000 	mrseq	r0, (UNDEF: 0)
    13dc:	01945e00 	orrseq	r5, r4, r0, lsl #28
    13e0:	019c0000 	orrseq	r0, ip, r0
    13e4:	00040000 	andeq	r0, r4, r0
    13e8:	9f7fa091 	svcls	0x007fa091
    13ec:	0000019c 	muleq	r0, ip, r1
    13f0:	000001a4 	andeq	r0, r0, r4, lsr #3
    13f4:	a4520001 	ldrbge	r0, [r2], #-1
    13f8:	a4000001 	strge	r0, [r0], #-1
    13fc:	01000001 	tsteq	r0, r1
    1400:	01a45e00 			; <UNDEFINED> instruction: 0x01a45e00
    1404:	01b40000 			; <UNDEFINED> instruction: 0x01b40000
    1408:	00030000 	andeq	r0, r3, r0
    140c:	b49f017e 	ldrlt	r0, [pc], #382	; 1414 <__code_start__-0x6bec>
    1410:	c0000001 	andgt	r0, r0, r1
    1414:	01000001 	tsteq	r0, r1
    1418:	01c05e00 	biceq	r5, r0, r0, lsl #28
    141c:	02280000 	eoreq	r0, r8, #0, 0
    1420:	00040000 	andeq	r0, r4, r0
    1424:	9f7fa091 	svcls	0x007fa091
    1428:	00000228 	andeq	r0, r0, r8, lsr #4
    142c:	00000234 	andeq	r0, r0, r4, lsr r2
    1430:	34520001 	ldrbcc	r0, [r2], #-1
    1434:	58000002 	stmdapl	r0, {r1}
    1438:	01000002 	tsteq	r0, r2
    143c:	02585e00 	subseq	r5, r8, #0, 28
    1440:	025c0000 	subseq	r0, ip, #0, 0
    1444:	00030000 	andeq	r0, r3, r0
    1448:	5c9f017e 	ldfpls	f0, [pc], {126}	; 0x7e
    144c:	64000002 	strvs	r0, [r0], #-2
    1450:	01000002 	tsteq	r0, r2
    1454:	02645e00 	rsbeq	r5, r4, #0, 28
    1458:	02700000 	rsbseq	r0, r0, #0, 0
    145c:	00030000 	andeq	r0, r3, r0
    1460:	709f0271 	addsvc	r0, pc, r1, ror r2	; <UNPREDICTABLE>
    1464:	74000002 	strvc	r0, [r0], #-2
    1468:	01000002 	tsteq	r0, r2
    146c:	02745e00 	rsbseq	r5, r4, #0, 28
    1470:	02740000 	rsbseq	r0, r4, #0, 0
    1474:	00040000 	andeq	r0, r4, r0
    1478:	9f7fa091 	svcls	0x007fa091
    147c:	00000274 	andeq	r0, r0, r4, ror r2
    1480:	000002a0 	andeq	r0, r0, r0, lsr #5
    1484:	a1910004 	orrsge	r0, r1, r4
    1488:	02c09f7f 	sbceq	r9, r0, #508	; 0x1fc
    148c:	02c80000 	sbceq	r0, r8, #0, 0
    1490:	00010000 	andeq	r0, r1, r0
    1494:	0002c85e 	andeq	ip, r2, lr, asr r8
    1498:	0002cc00 	andeq	ip, r2, r0, lsl #24
    149c:	56000100 	strpl	r0, [r0], -r0, lsl #2
    14a0:	000002cc 	andeq	r0, r0, ip, asr #5
    14a4:	000002ec 	andeq	r0, r0, ip, ror #5
    14a8:	a0910004 	addsge	r0, r1, r4
    14ac:	02ec9f7f 	rsceq	r9, ip, #508	; 0x1fc
    14b0:	02fc0000 	rscseq	r0, ip, #0, 0
    14b4:	00040000 	andeq	r0, r4, r0
    14b8:	9f7fa191 	svcls	0x007fa191
    14bc:	000002fc 	strdeq	r0, [r0], -ip
    14c0:	00000328 	andeq	r0, r0, r8, lsr #6
    14c4:	005e0001 	subseq	r0, lr, r1
	...
    14dc:	01010000 	mrseq	r0, (UNDEF: 1)
	...
    14f0:	00002000 	andeq	r2, r0, r0
    14f4:	00007000 	andeq	r7, r0, r0
    14f8:	52000100 	andpl	r0, r0, #0
    14fc:	00000070 	andeq	r0, r0, r0, ror r0
    1500:	00000094 	muleq	r0, r4, r0
    1504:	945c0001 	ldrbls	r0, [ip], #-1
    1508:	9c000001 	stcls	0, cr0, [r0], {1}
    150c:	01000001 	tsteq	r0, r1
    1510:	019c5200 	orrseq	r5, ip, r0, lsl #4
    1514:	01c00000 	biceq	r0, r0, r0
    1518:	00010000 	andeq	r0, r1, r0
    151c:	0001c85c 	andeq	ip, r1, ip, asr r8
    1520:	00021000 	andeq	r1, r2, r0
    1524:	5c000100 	stfpls	f0, [r0], {-0}
    1528:	00000210 	andeq	r0, r0, r0, lsl r2
    152c:	00000224 	andeq	r0, r0, r4, lsr #4
    1530:	24520001 	ldrbcs	r0, [r2], #-1
    1534:	48000002 	stmdami	r0, {r1}
    1538:	01000002 	tsteq	r0, r2
    153c:	02485c00 	subeq	r5, r8, #0, 24
    1540:	025c0000 	subseq	r0, ip, #0, 0
    1544:	00010000 	andeq	r0, r1, r0
    1548:	00025c55 	andeq	r5, r2, r5, asr ip
    154c:	00026800 	andeq	r6, r2, r0, lsl #16
    1550:	5c000100 	stfpls	f0, [r0], {-0}
    1554:	00000268 	andeq	r0, r0, r8, ror #4
    1558:	00000274 	andeq	r0, r0, r4, ror r2
    155c:	00750019 	rsbseq	r0, r5, r9, lsl r0
    1560:	25f72cf7 	ldrbcs	r2, [r7, #3319]!	; 0xcf7
    1564:	2cf70076 	ldclcs	0, cr0, [r7], #472	; 0x1d8
    1568:	081e25f7 	ldmdaeq	lr, {r0, r1, r2, r4, r5, r6, r7, r8, sl, sp}
    156c:	2525f720 	strcs	pc, [r5, #-1824]!	; 0xfffff8e0
    1570:	00f72cf7 	ldrshteq	r2, [r7], #199	; 0xc7
    1574:	749f2533 	ldrvc	r2, [pc], #1331	; 157c <__code_start__-0x6a84>
    1578:	88000002 	stmdahi	r0, {r1}
    157c:	01000002 	tsteq	r0, r2
    1580:	02885200 	addeq	r5, r8, #0, 4
    1584:	02a00000 	adceq	r0, r0, #0, 0
    1588:	00010000 	andeq	r0, r1, r0
    158c:	0002cc5c 	andeq	ip, r2, ip, asr ip
    1590:	0002d000 	andeq	sp, r2, r0
    1594:	52000100 	andpl	r0, r0, #0
    1598:	000002d0 	ldrdeq	r0, [r0], -r0	; <UNPREDICTABLE>
    159c:	000002e7 	andeq	r0, r0, r7, ror #5
    15a0:	e75c0001 	ldrb	r0, [ip, -r1]
    15a4:	ec000002 	stc	0, cr0, [r0], {2}
    15a8:	04000002 	streq	r0, [r0], #-2
    15ac:	5201f300 	andpl	pc, r1, #0, 6
    15b0:	0002ec9f 	muleq	r2, pc, ip	; <UNPREDICTABLE>
    15b4:	00030000 	andeq	r0, r3, r0
    15b8:	52000100 	andpl	r0, r0, #0
    15bc:	00000300 	andeq	r0, r0, r0, lsl #6
    15c0:	00000328 	andeq	r0, r0, r8, lsr #6
    15c4:	005c0001 	subseq	r0, ip, r1
    15c8:	00000000 	andeq	r0, r0, r0
    15cc:	04000000 	streq	r0, [r0], #-0
    15d0:	00000400 	andeq	r0, r0, r0, lsl #8
    15d4:	04000001 	streq	r0, [r0], #-1
    15d8:	0000a400 	andeq	sl, r0, r0, lsl #8
    15dc:	0000b000 	andeq	fp, r0, r0
    15e0:	53000100 	movwpl	r0, #256	; 0x100
    15e4:	0000027c 	andeq	r0, r0, ip, ror r2
    15e8:	00000290 	muleq	r0, r0, r2
    15ec:	90530001 	subsls	r0, r3, r1
    15f0:	9c000002 	stcls	0, cr0, [r0], {2}
    15f4:	04000002 	streq	r0, [r0], #-2
    15f8:	5301f300 	movwpl	pc, #4864	; 0x1300	; <UNPREDICTABLE>
    15fc:	0002c09f 	muleq	r2, pc, r0	; <UNPREDICTABLE>
    1600:	0002cc00 	andeq	ip, r2, r0, lsl #24
    1604:	53000100 	movwpl	r0, #256	; 0x100
    1608:	000002f0 	strdeq	r0, [r0], -r0	; <UNPREDICTABLE>
    160c:	00000328 	andeq	r0, r0, r8, lsr #6
    1610:	7f080003 	svcvc	0x00080003
    1614:	0000009f 	muleq	r0, pc, r0	; <UNPREDICTABLE>
    1618:	00000000 	andeq	r0, r0, r0
    161c:	00000400 	andeq	r0, r0, r0, lsl #8
    1620:	00000401 	andeq	r0, r0, r1, lsl #8
    1624:	00000001 	andeq	r0, r0, r1
    1628:	00000400 	andeq	r0, r0, r0, lsl #8
    162c:	0000a400 	andeq	sl, r0, r0, lsl #8
    1630:	0000b000 	andeq	fp, r0, r0
    1634:	52000100 	andpl	r0, r0, #0
    1638:	000000b0 	strheq	r0, [r0], -r0	; <UNPREDICTABLE>
    163c:	0000015c 	andeq	r0, r0, ip, asr r1
    1640:	a0910004 	addsge	r0, r1, r4
    1644:	027c9f7f 	rsbseq	r9, ip, #508	; 0x1fc
    1648:	02940000 	addseq	r0, r4, #0, 0
    164c:	00040000 	andeq	r0, r4, r0
    1650:	9f7fa091 	svcls	0x007fa091
    1654:	00000294 	muleq	r0, r4, r2
    1658:	0000029c 	muleq	r0, ip, r2
    165c:	b45e0001 	ldrblt	r0, [lr], #-1
    1660:	c0000002 	andgt	r0, r0, r2
    1664:	04000002 	streq	r0, [r0], #-2
    1668:	7fa09100 	svcvc	0x00a09100
    166c:	0002c09f 	muleq	r2, pc, r0	; <UNPREDICTABLE>
    1670:	0002cc00 	andeq	ip, r2, r0, lsl #24
    1674:	52000100 	andpl	r0, r0, #0
    1678:	000002f0 	strdeq	r0, [r0], -r0	; <UNPREDICTABLE>
    167c:	00000300 	andeq	r0, r0, r0, lsl #6
    1680:	a0910004 	addsge	r0, r1, r4
    1684:	03009f7f 	movweq	r9, #3967	; 0xf7f
    1688:	03280000 			; <UNDEFINED> instruction: 0x03280000
    168c:	00010000 	andeq	r0, r1, r0
    1690:	00000052 	andeq	r0, r0, r2, asr r0
    1694:	00000000 	andeq	r0, r0, r0
    1698:	00000400 	andeq	r0, r0, r0, lsl #8
    169c:	01010101 	tsteq	r1, r1, lsl #2
    16a0:	04020303 	streq	r0, [r2], #-771	; 0xfffffcfd
    16a4:	00000001 	andeq	r0, r0, r1
    16a8:	00000400 	andeq	r0, r0, r0, lsl #8
    16ac:	0000a400 	andeq	sl, r0, r0, lsl #8
    16b0:	0000b000 	andeq	fp, r0, r0
    16b4:	5e000100 	adfpls	f0, f0, f0
    16b8:	0000010c 	andeq	r0, r0, ip, lsl #2
    16bc:	0000010c 	andeq	r0, r0, ip, lsl #2
    16c0:	0c550001 	mrrceq	0, 0, r0, r5, cr1
    16c4:	20000001 	andcs	r0, r0, r1
    16c8:	03000001 	movweq	r0, #1
    16cc:	9f017500 	svcls	0x00017500
    16d0:	00000120 	andeq	r0, r0, r0, lsr #2
    16d4:	0000012c 	andeq	r0, r0, ip, lsr #2
    16d8:	02750003 	rsbseq	r0, r5, #3, 0
    16dc:	00012c9f 	muleq	r1, pc, ip	; <UNPREDICTABLE>
    16e0:	00013000 	andeq	r3, r1, r0
    16e4:	75000300 	strvc	r0, [r0, #-768]	; 0xfffffd00
    16e8:	027c9f03 	rsbseq	r9, ip, #3, 30
    16ec:	029c0000 	addseq	r0, ip, #0, 0
    16f0:	00040000 	andeq	r0, r4, r0
    16f4:	9f7fa191 	svcls	0x007fa191
    16f8:	000002c0 	andeq	r0, r0, r0, asr #5
    16fc:	000002c8 	andeq	r0, r0, r8, asr #5
    1700:	c85e0001 	ldmdagt	lr, {r0}^
    1704:	cc000002 	stcgt	0, cr0, [r0], {2}
    1708:	01000002 	tsteq	r0, r2
    170c:	02f05600 	rscseq	r5, r0, #0, 12
    1710:	02fc0000 	rscseq	r0, ip, #0, 0
    1714:	00040000 	andeq	r0, r4, r0
    1718:	9f7fa191 	svcls	0x007fa191
    171c:	000002fc 	strdeq	r0, [r0], -ip
    1720:	00000328 	andeq	r0, r0, r8, lsr #6
    1724:	005e0001 	subseq	r0, lr, r1
	...
    1730:	01010000 	mrseq	r0, (UNDEF: 1)
    1734:	01010101 	tsteq	r1, r1, lsl #2
    1738:	00010602 	andeq	r0, r1, r2, lsl #12
    173c:	a8000600 	stmdage	r0, {r9, sl}
    1740:	b0000000 	andlt	r0, r0, r0
    1744:	01000000 	mrseq	r0, (UNDEF: 0)
    1748:	010c5100 	mrseq	r5, (UNDEF: 28)
    174c:	011c0000 	tsteq	ip, r0
    1750:	00010000 	andeq	r0, r1, r0
    1754:	00011c5c 	andeq	r1, r1, ip, asr ip
    1758:	00012c00 	andeq	r2, r1, r0, lsl #24
    175c:	58000100 	stmdapl	r0, {r8}
    1760:	0000012c 	andeq	r0, r0, ip, lsr #2
    1764:	00000130 	andeq	r0, r0, r0, lsr r1
    1768:	305c0001 	subscc	r0, ip, r1
    176c:	30000001 	andcc	r0, r0, r1
    1770:	03000001 	movweq	r0, #1
    1774:	9f017c00 	svcls	0x00017c00
    1778:	0000027c 	andeq	r0, r0, ip, ror r2
    177c:	0000029c 	muleq	r0, ip, r2
    1780:	9f310002 	svcls	0x00310002
    1784:	000002c0 	andeq	r0, r0, r0, asr #5
    1788:	000002cc 	andeq	r0, r0, ip, asr #5
    178c:	f0510001 			; <UNDEFINED> instruction: 0xf0510001
    1790:	28000002 	stmdacs	r0, {r1}
    1794:	02000003 	andeq	r0, r0, #3, 0
    1798:	009f3100 	addseq	r3, pc, r0, lsl #2
    179c:	00000000 	andeq	r0, r0, r0
    17a0:	01000000 	mrseq	r0, (UNDEF: 0)
    17a4:	01010606 	tsteq	r1, r6, lsl #12
    17a8:	5c010000 	stcpl	0, cr0, [r1], {-0}
    17ac:	5c000001 	stcpl	0, cr0, [r0], {1}
    17b0:	04000001 	streq	r0, [r0], #-1
    17b4:	7fa09100 	svcvc	0x00a09100
    17b8:	00015c9f 	muleq	r1, pc, ip	; <UNPREDICTABLE>
    17bc:	00018c00 	andeq	r8, r1, r0, lsl #24
    17c0:	52000100 	andpl	r0, r0, #0
    17c4:	0000029c 	muleq	r0, ip, r2
    17c8:	000002a0 	andeq	r0, r0, r0, lsr #5
    17cc:	a05e0001 	subsge	r0, lr, r1
    17d0:	ac000002 	stcge	0, cr0, [r0], {2}
    17d4:	01000002 	tsteq	r0, r2
    17d8:	00005200 	andeq	r5, r0, r0, lsl #4
	...
    17e4:	00010100 	andeq	r0, r1, r0, lsl #2
    17e8:	016c0701 	cmneq	ip, r1, lsl #14
    17ec:	01700000 	cmneq	r0, r0
    17f0:	00030000 	andeq	r0, r3, r0
    17f4:	709f7f73 	addsvc	r7, pc, r3, ror pc	; <UNPREDICTABLE>
    17f8:	78000001 	stmdavc	r0, {r0}
    17fc:	01000001 	tsteq	r0, r1
    1800:	01785300 	cmneq	r8, r0, lsl #6
    1804:	01840000 	orreq	r0, r4, r0
    1808:	00030000 	andeq	r0, r3, r0
    180c:	9c9f7f73 	ldcls	15, cr7, [pc], {115}	; 0x73
    1810:	9c000002 	stcls	0, cr0, [r0], {2}
    1814:	04000002 	streq	r0, [r0], #-2
    1818:	7fa19100 	svcvc	0x00a19100
    181c:	0000009f 	muleq	r0, pc, r0	; <UNPREDICTABLE>
    1820:	00000000 	andeq	r0, r0, r0
    1824:	01010100 	mrseq	r0, (UNDEF: 17)
    1828:	00015c01 	andeq	r5, r1, r1, lsl #24
    182c:	00018c00 	andeq	r8, r1, r0, lsl #24
    1830:	08000300 	stmdaeq	r0, {r8, r9}
    1834:	029c9f80 	addseq	r9, ip, #128, 30	; 0x200
    1838:	02ac0000 	adceq	r0, ip, #0, 0
    183c:	00030000 	andeq	r0, r3, r0
    1840:	009f8008 	addseq	r8, pc, r8
    1844:	00000000 	andeq	r0, r0, r0
    1848:	01000000 	mrseq	r0, (UNDEF: 0)
    184c:	01010000 	mrseq	r0, (UNDEF: 1)
    1850:	01010000 	mrseq	r0, (UNDEF: 1)
    1854:	01010101 	tsteq	r1, r1, lsl #2
    1858:	00015c01 	andeq	r5, r1, r1, lsl #24
    185c:	00016c00 	andeq	r6, r1, r0, lsl #24
    1860:	50000100 	andpl	r0, r0, r0, lsl #2
    1864:	0000016c 	andeq	r0, r0, ip, ror #2
    1868:	0000016c 	andeq	r0, r0, ip, ror #2
    186c:	017c0003 	cmneq	ip, r3
    1870:	00016c9f 	muleq	r1, pc, ip	; <UNPREDICTABLE>
    1874:	00017800 	andeq	r7, r1, r0, lsl #16
    1878:	7c000300 	stcvc	3, cr0, [r0], {-0}
    187c:	01789f02 	cmneq	r8, r2, lsl #30
    1880:	01880000 	orreq	r0, r8, r0
    1884:	00030000 	andeq	r0, r3, r0
    1888:	889f017c 	ldmhi	pc, {r2, r3, r4, r5, r6, r8}	; <UNPREDICTABLE>
    188c:	8c000001 	stchi	0, cr0, [r0], {1}
    1890:	03000001 	movweq	r0, #1
    1894:	9f017e00 	svcls	0x00017e00
    1898:	0000029c 	muleq	r0, ip, r2
    189c:	000002a4 	andeq	r0, r0, r4, lsr #5
    18a0:	a4500001 	ldrbge	r0, [r0], #-1
    18a4:	ac000002 	stcge	0, cr0, [r0], {2}
    18a8:	03000002 	movweq	r0, #2
    18ac:	9f017e00 	svcls	0x00017e00
	...
    18b8:	00040004 	andeq	r0, r4, r4
    18bc:	015c0100 	cmpeq	ip, r0, lsl #2
    18c0:	01600000 	cmneq	r0, r0
    18c4:	00030000 	andeq	r0, r3, r0
    18c8:	9c9f0171 	ldflss	f0, [pc], {113}	; 0x71
    18cc:	a0000002 	andge	r0, r0, r2
    18d0:	02000002 	andeq	r0, r0, #2, 0
    18d4:	a09f3200 	addsge	r3, pc, r0, lsl #4
    18d8:	ac000002 	stcge	0, cr0, [r0], {2}
    18dc:	03000002 	movweq	r0, #2
    18e0:	9f017100 	svcls	0x00017100
	...
    18ec:	00060007 	andeq	r0, r6, r7
    18f0:	0000015c 	andeq	r0, r0, ip, asr r1
    18f4:	00000194 	muleq	r0, r4, r1
    18f8:	9c500001 	mrrcls	0, 0, r0, r0, cr1	; <UNPREDICTABLE>
    18fc:	b4000002 	strlt	r0, [r0], #-2
    1900:	01000002 	tsteq	r0, r2
    1904:	00005000 	andeq	r5, r0, r0
    1908:	00000000 	andeq	r0, r0, r0
    190c:	01010000 	mrseq	r0, (UNDEF: 1)
    1910:	02140001 	andseq	r0, r4, #1, 0
    1914:	02200000 	eoreq	r0, r0, #0, 0
    1918:	00020000 	andeq	r0, r2, r0
    191c:	02209f30 	eoreq	r9, r0, #48, 30	; 0xc0
    1920:	02340000 	eorseq	r0, r4, #0, 0
    1924:	00020000 	andeq	r0, r2, r0
    1928:	00009f31 	andeq	r9, r0, r1, lsr pc
    192c:	00000000 	andeq	r0, r0, r0
    1930:	01000000 	mrseq	r0, (UNDEF: 0)
    1934:	01000001 	tsteq	r0, r1
    1938:	01000001 	tsteq	r0, r1
    193c:	01000001 	tsteq	r0, r1
    1940:	01000001 	tsteq	r0, r1
    1944:	02000001 	andeq	r0, r0, #1, 0
    1948:	00800102 	addeq	r0, r0, r2, lsl #2
    194c:	00800000 	addeq	r0, r0, r0
    1950:	00010000 	andeq	r0, r1, r0
    1954:	00008053 	andeq	r8, r0, r3, asr r0
    1958:	00008c00 	andeq	r8, r0, r0, lsl #24
    195c:	73000300 	movwvc	r0, #768	; 0x300
    1960:	008c9f04 	addeq	r9, ip, r4, lsl #30
    1964:	00940000 	addseq	r0, r4, r0
    1968:	00010000 	andeq	r0, r1, r0
    196c:	00009451 	andeq	r9, r0, r1, asr r4
    1970:	00009800 	andeq	r9, r0, r0, lsl #16
    1974:	73000300 	movwvc	r0, #768	; 0x300
    1978:	00989f08 	addseq	r9, r8, r8, lsl #30
    197c:	00a40000 	adceq	r0, r4, r0
    1980:	00010000 	andeq	r0, r1, r0
    1984:	0000a451 	andeq	sl, r0, r1, asr r4
    1988:	0000a800 	andeq	sl, r0, r0, lsl #16
    198c:	73000300 	movwvc	r0, #768	; 0x300
    1990:	00a89f0c 	adceq	r9, r8, ip, lsl #30
    1994:	00b40000 	adcseq	r0, r4, r0
    1998:	00010000 	andeq	r0, r1, r0
    199c:	0000b451 	andeq	fp, r0, r1, asr r4
    19a0:	0000b800 	andeq	fp, r0, r0, lsl #16
    19a4:	73000300 	movwvc	r0, #768	; 0x300
    19a8:	00b89f10 	adcseq	r9, r8, r0, lsl pc
    19ac:	00c40000 	sbceq	r0, r4, r0
    19b0:	00010000 	andeq	r0, r1, r0
    19b4:	0000c451 	andeq	ip, r0, r1, asr r4
    19b8:	0000c800 	andeq	ip, r0, r0, lsl #16
    19bc:	73000300 	movwvc	r0, #768	; 0x300
    19c0:	00c89f14 	sbceq	r9, r8, r4, lsl pc
    19c4:	00d00000 	sbcseq	r0, r0, r0
    19c8:	00010000 	andeq	r0, r1, r0
    19cc:	0000d051 	andeq	sp, r0, r1, asr r0
    19d0:	0000d400 	andeq	sp, r0, r0, lsl #8
    19d4:	71000300 	mrsvc	r0, LR_irq
    19d8:	00009f04 	andeq	r9, r0, r4, lsl #30
    19dc:	00000000 	andeq	r0, r0, r0
    19e0:	00020000 	andeq	r0, r2, r0
    19e4:	000000d8 	ldrdeq	r0, [r0], -r8
    19e8:	000000e8 	andeq	r0, r0, r8, ror #1
    19ec:	9f310002 	svcls	0x00310002
	...
    19f8:	01000004 	tsteq	r0, r4
    19fc:	00008f78 	andeq	r8, r0, r8, ror pc
    1a00:	00008f80 	andeq	r8, r0, r0, lsl #31
    1a04:	9f300002 	svcls	0x00300002
    1a08:	00008f80 	andeq	r8, r0, r0, lsl #31
    1a0c:	00008f80 	andeq	r8, r0, r0, lsl #31
    1a10:	00530001 	subseq	r0, r3, r1
    1a14:	00000000 	andeq	r0, r0, r0
    1a18:	03000000 	movweq	r0, #0
    1a1c:	00000000 	andeq	r0, r0, r0
    1a20:	8c000000 	stchi	0, cr0, [r0], {-0}
    1a24:	9000008f 	andls	r0, r0, pc, lsl #1
    1a28:	0200008f 	andeq	r0, r0, #143, 0	; 0x8f
    1a2c:	909f3000 	addsls	r3, pc, r0
    1a30:	9400008f 	strls	r0, [r0], #-143	; 0xffffff71
    1a34:	0100008f 	smlabbeq	r0, pc, r0, r0	; <UNPREDICTABLE>
    1a38:	8f945300 	svchi	0x00945300
    1a3c:	8f980000 	svchi	0x00980000
    1a40:	00050000 	andeq	r0, r5, r0
    1a44:	21400073 	hvccs	3
    1a48:	008f989f 	umulleq	r9, pc, pc, r8	; <UNPREDICTABLE>
    1a4c:	008f9c00 	addeq	r9, pc, r0, lsl #24
    1a50:	53000100 	movwpl	r0, #256	; 0x100
	...
    1a5c:	00000002 	andeq	r0, r0, r2
    1a60:	00008f4c 	andeq	r8, r0, ip, asr #30
    1a64:	00008f50 	andeq	r8, r0, r0, asr pc
    1a68:	9f300002 	svcls	0x00300002
    1a6c:	00008f50 	andeq	r8, r0, r0, asr pc
    1a70:	00008f54 	andeq	r8, r0, r4, asr pc
    1a74:	00500001 	subseq	r0, r0, r1
    1a78:	00000000 	andeq	r0, r0, r0
    1a7c:	02000000 	andeq	r0, r0, #0, 0
    1a80:	00000000 	andeq	r0, r0, r0
    1a84:	64000000 	strvs	r0, [r0], #-0
    1a88:	6800008f 	stmdavs	r0, {r0, r1, r2, r3, r7}
    1a8c:	0200008f 	andeq	r0, r0, #143, 0	; 0x8f
    1a90:	689f3000 	ldmvs	pc, {ip, sp}	; <UNPREDICTABLE>
    1a94:	6c00008f 	stcvs	0, cr0, [r0], {143}	; 0x8f
    1a98:	0100008f 	smlabbeq	r0, pc, r0, r0	; <UNPREDICTABLE>
    1a9c:	8f6c5300 	svchi	0x006c5300
    1aa0:	8f700000 	svchi	0x00700000
    1aa4:	00050000 	andeq	r0, r5, r0
    1aa8:	21400073 	hvccs	3
    1aac:	008f709f 	umulleq	r7, pc, pc, r0	; <UNPREDICTABLE>
    1ab0:	008f7800 	addeq	r7, pc, r0, lsl #16
    1ab4:	53000100 	movwpl	r0, #256	; 0x100
	...
    1ac4:	000000c8 	andeq	r0, r0, r8, asr #1
    1ac8:	000000d8 	ldrdeq	r0, [r0], -r8
    1acc:	d8500001 	ldmdale	r0, {r0}^
    1ad0:	1c000000 	stcne	0, cr0, [r0], {-0}
    1ad4:	04000001 	streq	r0, [r0], #-1
    1ad8:	5001f300 	andpl	pc, r1, r0, lsl #6
    1adc:	0000009f 	muleq	r0, pc, r0	; <UNPREDICTABLE>
    1ae0:	00000000 	andeq	r0, r0, r0
    1ae4:	00000200 	andeq	r0, r0, r0, lsl #4
    1ae8:	0000c800 	andeq	ip, r0, r0, lsl #16
    1aec:	0000d800 	andeq	sp, r0, r0, lsl #16
    1af0:	70000700 	andvc	r0, r0, r0, lsl #14
    1af4:	03e80a00 	mvneq	r0, #0, 20
    1af8:	00d89f1e 	sbcseq	r9, r8, lr, lsl pc
    1afc:	011c0000 	tsteq	ip, r0
    1b00:	00080000 	andeq	r0, r8, r0
    1b04:	0a5001f3 	beq	14022d8 <__bss_end__+0x13f80e8>
    1b08:	9f1e03e8 	svcls	0x001e03e8
	...
    1b14:	00dc0000 	sbcseq	r0, ip, r0
    1b18:	011c0000 	tsteq	ip, r0
    1b1c:	00010000 	andeq	r0, r1, r0
    1b20:	00000054 	andeq	r0, r0, r4, asr r0
    1b24:	00000000 	andeq	r0, r0, r0
    1b28:	f0000100 			; <UNDEFINED> instruction: 0xf0000100
    1b2c:	1c000000 	stcne	0, cr0, [r0], {-0}
    1b30:	01000001 	tsteq	r0, r1
    1b34:	00005600 	andeq	r5, r0, r0, lsl #12
	...
    1b40:	00ec0000 	rsceq	r0, ip, r0
    1b44:	00ef0000 	rsceq	r0, pc, r0
    1b48:	00010000 	andeq	r0, r1, r0
    1b4c:	0000ef50 	andeq	lr, r0, r0, asr pc
    1b50:	00011c00 	andeq	r1, r1, r0, lsl #24
    1b54:	56000100 	strpl	r0, [r0], -r0, lsl #2
	...
    1b60:	01040000 	mrseq	r0, (UNDEF: 4)
    1b64:	010b0000 	mrseq	r0, (UNDEF: 11)
    1b68:	00010000 	andeq	r0, r1, r0
    1b6c:	00000050 	andeq	r0, r0, r0, asr r0
	...
    1b78:	00002000 	andeq	r2, r0, r0
    1b7c:	00002300 	andeq	r2, r0, r0, lsl #6
    1b80:	50000100 	andpl	r0, r0, r0, lsl #2
    1b84:	00000023 	andeq	r0, r0, r3, lsr #32
    1b88:	00000030 	andeq	r0, r0, r0, lsr r0
    1b8c:	00540001 	subseq	r0, r4, r1
	...
    1b98:	30000000 	andcc	r0, r0, r0
    1b9c:	3b000000 	blcc	1ba4 <__code_start__-0x645c>
    1ba0:	01000000 	mrseq	r0, (UNDEF: 0)
    1ba4:	003b5000 	eorseq	r5, fp, r0
    1ba8:	00780000 	rsbseq	r0, r8, r0
    1bac:	00010000 	andeq	r0, r1, r0
    1bb0:	00000056 	andeq	r0, r0, r6, asr r0
    1bb4:	00000000 	andeq	r0, r0, r0
    1bb8:	4c000100 	stfmis	f0, [r0], {-0}
    1bbc:	78000000 	stmdavc	r0, {}	; <UNPREDICTABLE>
    1bc0:	01000000 	mrseq	r0, (UNDEF: 0)
    1bc4:	00005500 	andeq	r5, r0, r0, lsl #10
	...
    1bd0:	00480000 	subeq	r0, r8, r0
    1bd4:	004b0000 	subeq	r0, fp, r0
    1bd8:	00010000 	andeq	r0, r1, r0
    1bdc:	00004b50 	andeq	r4, r0, r0, asr fp
    1be0:	00007800 	andeq	r7, r0, r0, lsl #16
    1be4:	55000100 	strpl	r0, [r0, #-256]	; 0xffffff00
	...
    1bf0:	00600000 	rsbeq	r0, r0, r0
    1bf4:	00670000 	rsbeq	r0, r7, r0
    1bf8:	00010000 	andeq	r0, r1, r0
    1bfc:	00000050 	andeq	r0, r0, r0, asr r0
	...
    1c08:	00007800 	andeq	r7, r0, r0, lsl #16
    1c0c:	00008400 	andeq	r8, r0, r0, lsl #8
    1c10:	50000100 	andpl	r0, r0, r0, lsl #2
    1c14:	00000084 	andeq	r0, r0, r4, lsl #1
    1c18:	000000c8 	andeq	r0, r0, r8, asr #1
    1c1c:	01f30004 	mvnseq	r0, r4
    1c20:	00009f50 	andeq	r9, r0, r0, asr pc
	...
    1c2c:	00000088 	andeq	r0, r0, r8, lsl #1
    1c30:	000000c8 	andeq	r0, r0, r8, asr #1
    1c34:	00540001 	subseq	r0, r4, r1
    1c38:	00000000 	andeq	r0, r0, r0
    1c3c:	01000000 	mrseq	r0, (UNDEF: 0)
    1c40:	00009c00 	andeq	r9, r0, r0, lsl #24
    1c44:	0000c800 	andeq	ip, r0, r0, lsl #16
    1c48:	56000100 	strpl	r0, [r0], -r0, lsl #2
	...
    1c58:	00000098 	muleq	r0, r8, r0
    1c5c:	0000009b 	muleq	r0, fp, r0
    1c60:	9b500001 	blls	1401c6c <__bss_end__+0x13f7a7c>
    1c64:	c8000000 	stmdagt	r0, {}	; <UNPREDICTABLE>
    1c68:	01000000 	mrseq	r0, (UNDEF: 0)
    1c6c:	00005600 	andeq	r5, r0, r0, lsl #12
	...
    1c78:	000000b0 	strheq	r0, [r0], -r0	; <UNPREDICTABLE>
    1c7c:	000000b7 	strheq	r0, [r0], -r7
    1c80:	00500001 	subseq	r0, r0, r1
	...
    1c8c:	58000000 	stmdapl	r0, {}	; <UNPREDICTABLE>
    1c90:	63000001 	movwvs	r0, #1
    1c94:	01000001 	tsteq	r0, r1
    1c98:	01635000 	cmneq	r3, r0
    1c9c:	01880000 	orreq	r0, r8, r0
    1ca0:	00010000 	andeq	r0, r1, r0
    1ca4:	00000054 	andeq	r0, r0, r4, asr r0
    1ca8:	00000000 	andeq	r0, r0, r0
    1cac:	48000000 	stmdami	r0, {}	; <UNPREDICTABLE>
    1cb0:	58000001 	stmdapl	r0, {r0}
    1cb4:	01000001 	tsteq	r0, r1
    1cb8:	00005400 	andeq	r5, r0, r0, lsl #8
	...
    1cc8:	000f0000 	andeq	r0, pc, r0
    1ccc:	00010000 	andeq	r0, r1, r0
    1cd0:	00000f50 	andeq	r0, r0, r0, asr pc
    1cd4:	00002000 	andeq	r2, r0, r0
    1cd8:	54000100 	strpl	r0, [r0], #-256	; 0xffffff00
	...
    1cec:	0000000f 	andeq	r0, r0, pc
    1cf0:	0f510001 	svceq	0x00510001
    1cf4:	20000000 	andcs	r0, r0, r0
    1cf8:	01000000 	mrseq	r0, (UNDEF: 0)
    1cfc:	00005500 	andeq	r5, r0, r0, lsl #10
	...
    1d08:	00200000 	eoreq	r0, r0, r0
    1d0c:	002f0000 	eoreq	r0, pc, r0
    1d10:	00010000 	andeq	r0, r1, r0
    1d14:	00002f50 	andeq	r2, r0, r0, asr pc
    1d18:	00004000 	andeq	r4, r0, r0
    1d1c:	54000100 	strpl	r0, [r0], #-256	; 0xffffff00
	...
    1d2c:	00000020 	andeq	r0, r0, r0, lsr #32
    1d30:	0000002f 	andeq	r0, r0, pc, lsr #32
    1d34:	2f510001 	svccs	0x00510001
    1d38:	40000000 	andmi	r0, r0, r0
    1d3c:	01000000 	mrseq	r0, (UNDEF: 0)
    1d40:	00005500 	andeq	r5, r0, r0, lsl #10
	...
    1d50:	00000350 	andeq	r0, r0, r0, asr r3
    1d54:	00000398 	muleq	r0, r8, r3
    1d58:	98500001 	ldmdals	r0, {r0}^
    1d5c:	9b000003 	blls	1d70 <__code_start__-0x6290>
    1d60:	02000003 	andeq	r0, r0, #3, 0
    1d64:	9b689100 	blls	1a2616c <__bss_end__+0x1a1bf7c>
    1d68:	b0000003 	andlt	r0, r0, r3
    1d6c:	04000003 	streq	r0, [r0], #-3
    1d70:	5001f300 	andpl	pc, r1, r0, lsl #6
    1d74:	0000009f 	muleq	r0, pc, r0	; <UNPREDICTABLE>
	...
    1d90:	00022000 	andeq	r2, r2, r0
    1d94:	00027b00 	andeq	r7, r2, r0, lsl #22
    1d98:	50000100 	andpl	r0, r0, r0, lsl #2
    1d9c:	0000027b 	andeq	r0, r0, fp, ror r2
    1da0:	00000284 	andeq	r0, r0, r4, lsl #5
    1da4:	01f30004 	mvnseq	r0, r4
    1da8:	02849f50 	addeq	r9, r4, #80, 30	; 0x140
    1dac:	029c0000 	addseq	r0, ip, #0, 0
    1db0:	00010000 	andeq	r0, r1, r0
    1db4:	00029c50 	andeq	r9, r2, r0, asr ip
    1db8:	0002a400 	andeq	sl, r2, r0, lsl #8
    1dbc:	f3000400 	vshl.u8	d0, d0, d0
    1dc0:	a49f5001 	ldrge	r5, [pc], #1	; 1dc8 <__code_start__-0x6238>
    1dc4:	a7000002 	strge	r0, [r0, -r2]
    1dc8:	01000002 	tsteq	r0, r2
    1dcc:	02a75000 	adceq	r5, r7, #0, 0
    1dd0:	02c80000 	sbceq	r0, r8, #0, 0
    1dd4:	00040000 	andeq	r0, r4, r0
    1dd8:	9f5001f3 	svcls	0x005001f3
    1ddc:	000002c8 	andeq	r0, r0, r8, asr #5
    1de0:	000002e0 	andeq	r0, r0, r0, ror #5
    1de4:	e0500001 	subs	r0, r0, r1
    1de8:	e8000002 	stmda	r0, {r1}
    1dec:	04000002 	streq	r0, [r0], #-2
    1df0:	5001f300 	andpl	pc, r1, r0, lsl #6
    1df4:	0002e89f 	muleq	r2, pc, r8	; <UNPREDICTABLE>
    1df8:	0002eb00 	andeq	lr, r2, r0, lsl #22
    1dfc:	50000100 	andpl	r0, r0, r0, lsl #2
    1e00:	000002eb 	andeq	r0, r0, fp, ror #5
    1e04:	00000338 	andeq	r0, r0, r8, lsr r3
    1e08:	01f30004 	mvnseq	r0, r4
    1e0c:	00009f50 	andeq	r9, r0, r0, asr pc
	...
    1e28:	02200000 	eoreq	r0, r0, #0, 0
    1e2c:	02440000 	subeq	r0, r4, #0, 0
    1e30:	00010000 	andeq	r0, r1, r0
    1e34:	00024451 	andeq	r4, r2, r1, asr r4
    1e38:	00026800 	andeq	r6, r2, r0, lsl #16
    1e3c:	51000100 	mrspl	r0, (UNDEF: 16)
    1e40:	00000268 	andeq	r0, r0, r8, ror #4
    1e44:	0000027b 	andeq	r0, r0, fp, ror r2
    1e48:	01710003 	cmneq	r1, r3
    1e4c:	00027b9f 	muleq	r2, pc, fp	; <UNPREDICTABLE>
    1e50:	00028400 	andeq	r8, r2, r0, lsl #8
    1e54:	38001700 	stmdacc	r0, {r8, r9, sl, ip}
    1e58:	f35101f3 	vbsl	q8, <illegal reg q8.5>, <illegal reg q9.5>
    1e5c:	4b405101 	blmi	1016268 <__bss_end__+0x100c078>
    1e60:	080c2224 	stmdaeq	ip, {r2, r5, r9, sp}
    1e64:	2d800000 	stccs	0, cr0, [r0]
    1e68:	16000128 	strne	r0, [r0], -r8, lsr #2
    1e6c:	02849f13 	addeq	r9, r4, #76	; 0x4c
    1e70:	02980000 	addseq	r0, r8, #0, 0
    1e74:	00010000 	andeq	r0, r1, r0
    1e78:	00029851 	andeq	r9, r2, r1, asr r8
    1e7c:	0002a400 	andeq	sl, r2, r0, lsl #8
    1e80:	f3000400 	vshl.u8	d0, d0, d0
    1e84:	a49f5101 	ldrge	r5, [pc], #257	; 1e8c <__code_start__-0x6174>
    1e88:	a7000002 	strge	r0, [r0, -r2]
    1e8c:	01000002 	tsteq	r0, r2
    1e90:	02a75100 	adceq	r5, r7, #0
    1e94:	02c80000 	sbceq	r0, r8, #0, 0
    1e98:	00040000 	andeq	r0, r4, r0
    1e9c:	9f5101f3 	svcls	0x005101f3
    1ea0:	000002c8 	andeq	r0, r0, r8, asr #5
    1ea4:	000002dc 	ldrdeq	r0, [r0], -ip
    1ea8:	dc510001 	mrrcle	0, 0, r0, r1, cr1
    1eac:	38000002 	stmdacc	r0, {r1}
    1eb0:	17000003 	strne	r0, [r0, -r3]
    1eb4:	01f33800 	mvnseq	r3, r0, lsl #16
    1eb8:	5101f351 	tstpl	r1, r1, asr r3	; <UNPREDICTABLE>
    1ebc:	22244b40 	eorcs	r4, r4, #64, 22	; 0x10000
    1ec0:	0000080c 	andeq	r0, r0, ip, lsl #16
    1ec4:	01282d80 	smlawbeq	r8, r0, sp, r2
    1ec8:	9f131600 	svcls	0x00131600
	...
    1ee0:	0000024c 	andeq	r0, r0, ip, asr #4
    1ee4:	0000025c 	andeq	r0, r0, ip, asr r2
    1ee8:	5c520001 	mrrcpl	0, 0, r0, r2, cr1
    1eec:	64000002 	strvs	r0, [r0], #-2
    1ef0:	05000002 	streq	r0, [r0, #-2]
    1ef4:	9dcc0300 	stclls	3, cr0, [ip]
    1ef8:	02640000 	rsbeq	r0, r4, #0, 0
    1efc:	027b0000 	rsbseq	r0, fp, #0, 0
    1f00:	00010000 	andeq	r0, r1, r0
    1f04:	0002c853 	andeq	ip, r2, r3, asr r8
    1f08:	0002d800 	andeq	sp, r2, r0, lsl #16
    1f0c:	52000100 	andpl	r0, r0, #0
    1f10:	000002d8 	ldrdeq	r0, [r0], -r8
    1f14:	000002e3 	andeq	r0, r0, r3, ror #5
    1f18:	cc030005 	stcgt	0, cr0, [r3], {5}
    1f1c:	e800009d 	stmda	r0, {r0, r2, r3, r4, r7}
    1f20:	eb000002 	bl	1f30 <__code_start__-0x60d0>
    1f24:	01000002 	tsteq	r0, r2
    1f28:	00005300 	andeq	r5, r0, r0, lsl #6
    1f2c:	00000000 	andeq	r0, r0, r0
    1f30:	00040000 	andeq	r0, r4, r0
    1f34:	00000230 	andeq	r0, r0, r0, lsr r2
    1f38:	00000234 	andeq	r0, r0, r4, lsr r2
    1f3c:	00510001 	subseq	r0, r1, r1
    1f40:	00000000 	andeq	r0, r0, r0
    1f44:	02000000 	andeq	r0, r0, #0, 0
    1f48:	00023c00 	andeq	r3, r2, r0, lsl #24
    1f4c:	00024400 	andeq	r4, r2, r0, lsl #8
    1f50:	38000200 	stmdacc	r0, {r9}
    1f54:	0000009f 	muleq	r0, pc, r0	; <UNPREDICTABLE>
    1f58:	00000000 	andeq	r0, r0, r0
    1f5c:	3c000200 	sfmcc	f0, 4, [r0], {-0}
    1f60:	44000002 	strmi	r0, [r0], #-2
    1f64:	01000002 	tsteq	r0, r2
    1f68:	00005100 	andeq	r5, r0, r0, lsl #2
    1f6c:	00000000 	andeq	r0, r0, r0
    1f70:	00010000 	andeq	r0, r1, r0
    1f74:	00000000 	andeq	r0, r0, r0
    1f78:	0000024c 	andeq	r0, r0, ip, asr #4
    1f7c:	00000264 	andeq	r0, r0, r4, ror #4
    1f80:	c8510001 	ldmdagt	r1, {r0}^
    1f84:	dc000002 	stcle	0, cr0, [r0], {2}
    1f88:	01000002 	tsteq	r0, r2
    1f8c:	02dc5100 	sbcseq	r5, ip, #0
    1f90:	02e80000 	rsceq	r0, r8, #0, 0
    1f94:	00170000 	andseq	r0, r7, r0
    1f98:	5101f338 	tstpl	r1, r8, lsr r3	; <UNPREDICTABLE>
    1f9c:	405101f3 	ldrshmi	r0, [r1], #-19	; 0xffffffed
    1fa0:	0c22244b 	cfstrseq	mvf2, [r2], #-300	; 0xfffffed4
    1fa4:	80000008 	andhi	r0, r0, r8
    1fa8:	0001282d 	andeq	r2, r1, sp, lsr #16
    1fac:	009f1316 	addseq	r1, pc, r6, lsl r3	; <UNPREDICTABLE>
    1fb0:	00000000 	andeq	r0, r0, r0
    1fb4:	01000000 	mrseq	r0, (UNDEF: 0)
    1fb8:	00000000 	andeq	r0, r0, r0
    1fbc:	4c000000 	stcmi	0, cr0, [r0], {-0}
    1fc0:	5c000002 	stcpl	0, cr0, [r0], {2}
    1fc4:	01000002 	tsteq	r0, r2
    1fc8:	025c5200 	subseq	r5, ip, #0, 4
    1fcc:	02640000 	rsbeq	r0, r4, #0, 0
    1fd0:	00050000 	andeq	r0, r5, r0
    1fd4:	009dcc03 	addseq	ip, sp, r3, lsl #24
    1fd8:	0002c800 	andeq	ip, r2, r0, lsl #16
    1fdc:	0002d800 	andeq	sp, r2, r0, lsl #16
    1fe0:	52000100 	andpl	r0, r0, #0
    1fe4:	000002d8 	ldrdeq	r0, [r0], -r8
    1fe8:	000002e3 	andeq	r0, r0, r3, ror #5
    1fec:	cc030005 	stcgt	0, cr0, [r3], {5}
    1ff0:	0000009d 	muleq	r0, sp, r0
    1ff4:	00000000 	andeq	r0, r0, r0
    1ff8:	04000000 	streq	r0, [r0], #-0
    1ffc:	00024c00 	andeq	r4, r2, r0, lsl #24
    2000:	00025000 	andeq	r5, r2, r0
    2004:	51000100 	mrspl	r0, (UNDEF: 16)
	...
    2010:	02640003 	rsbeq	r0, r4, #3, 0
    2014:	02680000 	rsbeq	r0, r8, #0, 0
    2018:	00010000 	andeq	r0, r1, r0
    201c:	00000051 	andeq	r0, r0, r1, asr r0
    2020:	00000000 	andeq	r0, r0, r0
    2024:	64000300 	strvs	r0, [r0], #-768	; 0xfffffd00
    2028:	68000002 	stmdavs	r0, {r1}
    202c:	01000002 	tsteq	r0, r2
    2030:	00005300 	andeq	r5, r0, r0, lsl #6
	...
    2040:	01bc0000 			; <UNDEFINED> instruction: 0x01bc0000
    2044:	01d30000 	bicseq	r0, r3, r0
    2048:	00010000 	andeq	r0, r1, r0
    204c:	0001d350 	andeq	sp, r1, r0, asr r3
    2050:	0001f000 	andeq	pc, r1, r0
    2054:	54000100 	strpl	r0, [r0], #-256	; 0xffffff00
    2058:	000001f0 	strdeq	r0, [r0], -r0	; <UNPREDICTABLE>
    205c:	00000208 	andeq	r0, r0, r8, lsl #4
    2060:	08500001 	ldmdaeq	r0, {r0}^
    2064:	20000002 	andcs	r0, r0, r2
    2068:	01000002 	tsteq	r0, r2
    206c:	00005400 	andeq	r5, r0, r0, lsl #8
	...
    2078:	01d80000 	bicseq	r0, r8, r0
    207c:	01e30000 	mvneq	r0, r0
    2080:	00010000 	andeq	r0, r1, r0
    2084:	0001e350 	andeq	lr, r1, r0, asr r3
    2088:	0001f000 	andeq	pc, r1, r0
    208c:	55000100 	strpl	r0, [r0, #-256]	; 0xffffff00
	...
    20a8:	00000124 	andeq	r0, r0, r4, lsr #2
    20ac:	00000138 	andeq	r0, r0, r8, lsr r1
    20b0:	38500001 	ldmdacc	r0, {r0}^
    20b4:	3c000001 	stccc	0, cr0, [r0], {1}
    20b8:	03000001 	movweq	r0, #1
    20bc:	9f797000 	svcls	0x00797000
    20c0:	0000013c 	andeq	r0, r0, ip, lsr r1
    20c4:	00000160 	andeq	r0, r0, r0, ror #2
    20c8:	60530001 	subsvs	r0, r3, r1
    20cc:	78000001 	stmdavc	r0, {r0}
    20d0:	01000001 	tsteq	r0, r1
    20d4:	01785000 	cmneq	r8, r0
    20d8:	01800000 	orreq	r0, r0, r0
    20dc:	00040000 	andeq	r0, r4, r0
    20e0:	9f5001f3 	svcls	0x005001f3
    20e4:	00000180 	andeq	r0, r0, r0, lsl #3
    20e8:	00000190 	muleq	r0, r0, r1
    20ec:	90530001 	subsls	r0, r3, r1
    20f0:	9f000001 	svcls	0x00000001
    20f4:	02000001 	andeq	r0, r0, #1, 0
    20f8:	9f689100 	svcls	0x00689100
    20fc:	bc000001 	stclt	0, cr0, [r0], {1}
    2100:	09000001 	stmdbeq	r0, {r0}
    2104:	5001f300 	andpl	pc, r1, r0, lsl #6
    2108:	f8090723 			; <UNDEFINED> instruction: 0xf8090723
    210c:	00009f1a 	andeq	r9, r0, sl, lsl pc
	...
    2118:	01440000 	mrseq	r0, (UNDEF: 68)
    211c:	01600000 	cmneq	r0, r0
    2120:	00010000 	andeq	r0, r1, r0
    2124:	00018050 	andeq	r8, r1, r0, asr r0
    2128:	00019c00 	andeq	r9, r1, r0, lsl #24
    212c:	50000100 	andpl	r0, r0, r0, lsl #2
	...
    2138:	01340003 	teqeq	r4, r3
    213c:	013c0000 	teqeq	ip, r0
    2140:	00020000 	andeq	r0, r2, r0
    2144:	00009f38 	andeq	r9, r0, r8, lsr pc
    2148:	00000000 	andeq	r0, r0, r0
    214c:	00030000 	andeq	r0, r3, r0
    2150:	01340000 	teqeq	r4, r0
    2154:	01380000 	teqeq	r8, r0
    2158:	00010000 	andeq	r0, r1, r0
    215c:	00013850 	andeq	r3, r1, r0, asr r8
    2160:	00013c00 	andeq	r3, r1, r0, lsl #24
    2164:	70000300 	andvc	r0, r0, r0, lsl #6
    2168:	00009f79 	andeq	r9, r0, r9, ror pc
	...
    2180:	00000030 	andeq	r0, r0, r0, lsr r0
    2184:	00000060 	andeq	r0, r0, r0, rrx
    2188:	60500001 	subsvs	r0, r0, r1
    218c:	6c000000 	stcvs	0, cr0, [r0], {-0}
    2190:	05000000 	streq	r0, [r0, #-0]
    2194:	9dcc0300 	stclls	3, cr0, [ip]
    2198:	006c0000 	rsbeq	r0, ip, r0
    219c:	00840000 	addeq	r0, r4, r0
    21a0:	00010000 	andeq	r0, r1, r0
    21a4:	00008450 	andeq	r8, r0, r0, asr r4
    21a8:	00008c00 	andeq	r8, r0, r0, lsl #24
    21ac:	f3000400 	vshl.u8	d0, d0, d0
    21b0:	8c9f5001 	ldchi	0, cr5, [pc], {1}
    21b4:	ac000000 	stcge	0, cr0, [r0], {-0}
    21b8:	01000000 	mrseq	r0, (UNDEF: 0)
    21bc:	00ac5000 	adceq	r5, ip, r0
    21c0:	00af0000 	adceq	r0, pc, r0
    21c4:	00020000 	andeq	r0, r2, r0
    21c8:	00af6891 	umlaleq	r6, pc, r1, r8	; <UNPREDICTABLE>
    21cc:	00cc0000 	sbceq	r0, ip, r0
    21d0:	00040000 	andeq	r0, r4, r0
    21d4:	9f5001f3 	svcls	0x005001f3
	...
    21e8:	00000030 	andeq	r0, r0, r0, lsr r0
    21ec:	00000080 	andeq	r0, r0, r0, lsl #1
    21f0:	80510001 	subshi	r0, r1, r1
    21f4:	8c000000 	stchi	0, cr0, [r0], {-0}
    21f8:	04000000 	streq	r0, [r0], #-0
    21fc:	5101f300 	mrspl	pc, SP_irq	; <UNPREDICTABLE>
    2200:	00008c9f 	muleq	r0, pc, ip	; <UNPREDICTABLE>
    2204:	0000a800 	andeq	sl, r0, r0, lsl #16
    2208:	51000100 	mrspl	r0, (UNDEF: 16)
    220c:	000000a8 	andeq	r0, r0, r8, lsr #1
    2210:	000000cc 	andeq	r0, r0, ip, asr #1
    2214:	01f30004 	mvnseq	r0, r4
    2218:	00009f51 	andeq	r9, r0, r1, asr pc
    221c:	00000000 	andeq	r0, r0, r0
    2220:	00010000 	andeq	r0, r1, r0
	...
    2230:	00000038 	andeq	r0, r0, r8, lsr r0
    2234:	00000060 	andeq	r0, r0, r0, rrx
    2238:	60500001 	subsvs	r0, r0, r1
    223c:	6c000000 	stcvs	0, cr0, [r0], {-0}
    2240:	05000000 	streq	r0, [r0, #-0]
    2244:	9dcc0300 	stclls	3, cr0, [ip]
    2248:	006c0000 	rsbeq	r0, ip, r0
    224c:	00840000 	addeq	r0, r4, r0
    2250:	00010000 	andeq	r0, r1, r0
    2254:	00008450 	andeq	r8, r0, r0, asr r4
    2258:	00008c00 	andeq	r8, r0, r0, lsl #24
    225c:	f3000400 	vshl.u8	d0, d0, d0
    2260:	8c9f5001 	ldchi	0, cr5, [pc], {1}
    2264:	ac000000 	stcge	0, cr0, [r0], {-0}
    2268:	01000000 	mrseq	r0, (UNDEF: 0)
    226c:	00ac5000 	adceq	r5, ip, r0
    2270:	00af0000 	adceq	r0, pc, r0
    2274:	00020000 	andeq	r0, r2, r0
    2278:	00af6891 	umlaleq	r6, pc, r1, r8	; <UNPREDICTABLE>
    227c:	00cc0000 	sbceq	r0, ip, r0
    2280:	00040000 	andeq	r0, r4, r0
    2284:	9f5001f3 	svcls	0x005001f3
	...
    2294:	01700000 	cmneq	r0, r0
    2298:	017c0000 	cmneq	ip, r0
    229c:	00010000 	andeq	r0, r1, r0
    22a0:	00017c50 	andeq	r7, r1, r0, asr ip
    22a4:	00018800 	andeq	r8, r1, r0, lsl #16
    22a8:	54000100 	strpl	r0, [r0], #-256	; 0xffffff00
    22ac:	00000188 	andeq	r0, r0, r8, lsl #3
    22b0:	00000198 	muleq	r0, r8, r1
    22b4:	01f30004 	mvnseq	r0, r4
    22b8:	00009f50 	andeq	r9, r0, r0, asr pc
	...
    22cc:	00000178 	andeq	r0, r0, r8, ror r1
    22d0:	0000017c 	andeq	r0, r0, ip, ror r1
    22d4:	0070000b 	rsbseq	r0, r0, fp
    22d8:	b4232535 	strtlt	r2, [r3], #-1333	; 0xfffffacb
    22dc:	02818080 	addeq	r8, r1, #128, 0	; 0x80
    22e0:	00017c9f 	muleq	r1, pc, ip	; <UNPREDICTABLE>
    22e4:	00018000 	andeq	r8, r1, r0
    22e8:	74000b00 	strvc	r0, [r0], #-2816	; 0xfffff500
    22ec:	23253500 			; <UNDEFINED> instruction: 0x23253500
    22f0:	818080b4 	strhhi	r8, [r0, r4]
    22f4:	01809f02 	orreq	r9, r0, r2, lsl #30
    22f8:	01830000 	orreq	r0, r3, r0
    22fc:	00010000 	andeq	r0, r1, r0
    2300:	00018350 	andeq	r8, r1, r0, asr r3
    2304:	00018800 	andeq	r8, r1, r0, lsl #16
    2308:	74000b00 	strvc	r0, [r0], #-2816	; 0xfffff500
    230c:	23253500 			; <UNDEFINED> instruction: 0x23253500
    2310:	818080b4 	strhhi	r8, [r0, r4]
    2314:	01889f02 	orreq	r9, r8, r2, lsl #30
    2318:	01980000 	orrseq	r0, r8, r0
    231c:	000c0000 	andeq	r0, ip, r0
    2320:	355001f3 	ldrbcc	r0, [r0, #-499]	; 0xfffffe0d
    2324:	80b42325 	adcshi	r2, r4, r5, lsr #6
    2328:	9f028180 	svcls	0x00028180
	...
    2334:	00000001 	andeq	r0, r0, r1
    2338:	01780000 	cmneq	r8, r0
    233c:	017c0000 	cmneq	ip, r0
    2340:	00050000 	andeq	r0, r5, r0
    2344:	1a4f0070 	bne	13c250c <__bss_end__+0x13b831c>
    2348:	00017c9f 	muleq	r1, pc, ip	; <UNPREDICTABLE>
    234c:	00018800 	andeq	r8, r1, r0, lsl #16
    2350:	74000500 	strvc	r0, [r0], #-1280	; 0xfffffb00
    2354:	9f1a4f00 	svcls	0x001a4f00
    2358:	00000188 	andeq	r0, r0, r8, lsl #3
    235c:	00000198 	muleq	r0, r8, r1
    2360:	00540001 	subseq	r0, r4, r1
	...
    2374:	40000000 	andmi	r0, r0, r0
    2378:	54000001 	strpl	r0, [r0], #-1
    237c:	01000001 	tsteq	r0, r1
    2380:	01545000 	cmpeq	r4, r0
    2384:	01580000 	cmpeq	r8, r0
    2388:	00010000 	andeq	r0, r1, r0
    238c:	00015851 	andeq	r5, r1, r1, asr r8
    2390:	00015c00 	andeq	r5, r1, r0, lsl #24
    2394:	f3000400 	vshl.u8	d0, d0, d0
    2398:	5c9f5001 	ldcpl	0, cr5, [pc], {1}
    239c:	60000001 	andvs	r0, r0, r1
    23a0:	01000001 	tsteq	r0, r1
    23a4:	01605000 	cmneq	r0, r0
    23a8:	01640000 	cmneq	r4, r0
    23ac:	00010000 	andeq	r0, r1, r0
    23b0:	00016451 	andeq	r6, r1, r1, asr r4
    23b4:	00017000 	andeq	r7, r1, r0
    23b8:	f3000400 	vshl.u8	d0, d0, d0
    23bc:	009f5001 	addseq	r5, pc, r1
	...
    23c8:	40000000 	andmi	r0, r0, r0
    23cc:	4c000001 	stcmi	0, cr0, [r0], {1}
    23d0:	01000001 	tsteq	r0, r1
    23d4:	014c5100 	mrseq	r5, (UNDEF: 92)
    23d8:	01700000 	cmneq	r0, r0
    23dc:	00040000 	andeq	r0, r4, r0
    23e0:	9f5101f3 	svcls	0x005101f3
	...
    23ec:	00000001 	andeq	r0, r0, r1
    23f0:	01500000 	cmpeq	r0, r0
    23f4:	01540000 	cmpeq	r4, r0
    23f8:	00010000 	andeq	r0, r1, r0
    23fc:	00015450 	andeq	r5, r1, r0, asr r4
    2400:	00015800 	andeq	r5, r1, r0, lsl #16
    2404:	51000100 	mrspl	r0, (UNDEF: 16)
    2408:	00000158 	andeq	r0, r0, r8, asr r1
    240c:	0000015c 	andeq	r0, r0, ip, asr r1
    2410:	01f30004 	mvnseq	r0, r4
    2414:	00009f50 	andeq	r9, r0, r0, asr pc
    2418:	00000000 	andeq	r0, r0, r0
    241c:	00020000 	andeq	r0, r2, r0
    2420:	00000000 	andeq	r0, r0, r0
    2424:	0000015c 	andeq	r0, r0, ip, asr r1
    2428:	00000160 	andeq	r0, r0, r0, ror #2
    242c:	60500001 	subsvs	r0, r0, r1
    2430:	64000001 	strvs	r0, [r0], #-1
    2434:	01000001 	tsteq	r0, r1
    2438:	01645100 	cmneq	r4, r0, lsl #2
    243c:	01700000 	cmneq	r0, r0
    2440:	00040000 	andeq	r0, r4, r0
    2444:	9f5001f3 	svcls	0x005001f3
	...
    2454:	00e80000 	rsceq	r0, r8, r0
    2458:	01080000 	mrseq	r0, (UNDEF: 8)
    245c:	00010000 	andeq	r0, r1, r0
    2460:	00010850 	andeq	r0, r1, r0, asr r8
    2464:	00012800 	andeq	r2, r1, r0, lsl #16
    2468:	54000100 	strpl	r0, [r0], #-256	; 0xffffff00
    246c:	00000128 	andeq	r0, r0, r8, lsr #2
    2470:	00000140 	andeq	r0, r0, r0, asr #2
    2474:	01f30004 	mvnseq	r0, r4
    2478:	00009f50 	andeq	r9, r0, r0, asr pc
    247c:	00000000 	andeq	r0, r0, r0
    2480:	00020000 	andeq	r0, r2, r0
    2484:	00000000 	andeq	r0, r0, r0
    2488:	000000e8 	andeq	r0, r0, r8, ror #1
    248c:	00000108 	andeq	r0, r0, r8, lsl #2
    2490:	08500001 	ldmdaeq	r0, {r0}^
    2494:	28000001 	stmdacs	r0, {r0}
    2498:	01000001 	tsteq	r0, r1
    249c:	01285400 			; <UNDEFINED> instruction: 0x01285400
    24a0:	01400000 	mrseq	r0, (UNDEF: 64)
    24a4:	00040000 	andeq	r0, r4, r0
    24a8:	9f5001f3 	svcls	0x005001f3
	...
    24b8:	00f00000 	rscseq	r0, r0, r0
    24bc:	01080000 	mrseq	r0, (UNDEF: 8)
    24c0:	00010000 	andeq	r0, r1, r0
    24c4:	00010850 	andeq	r0, r1, r0, asr r8
    24c8:	00012800 	andeq	r2, r1, r0, lsl #16
    24cc:	54000100 	strpl	r0, [r0], #-256	; 0xffffff00
    24d0:	00000128 	andeq	r0, r0, r8, lsr #2
    24d4:	00000140 	andeq	r0, r0, r0, asr #2
    24d8:	01f30004 	mvnseq	r0, r4
    24dc:	00009f50 	andeq	r9, r0, r0, asr pc
    24e0:	00000000 	andeq	r0, r0, r0
    24e4:	00030000 	andeq	r0, r3, r0
    24e8:	00000000 	andeq	r0, r0, r0
    24ec:	000000f0 	strdeq	r0, [r0], -r0	; <UNPREDICTABLE>
    24f0:	00000108 	andeq	r0, r0, r8, lsl #2
    24f4:	00700007 	rsbseq	r0, r0, r7
    24f8:	1e331d3a 	mrcne	13, 1, r1, cr3, cr10, {1}
    24fc:	0001089f 	muleq	r1, pc, r8	; <UNPREDICTABLE>
    2500:	00012800 	andeq	r2, r1, r0, lsl #16
    2504:	74000700 	strvc	r0, [r0], #-1792	; 0xfffff900
    2508:	331d3a00 	tstcc	sp, #0, 20
    250c:	01289f1e 			; <UNDEFINED> instruction: 0x01289f1e
    2510:	01400000 	mrseq	r0, (UNDEF: 64)
    2514:	00080000 	andeq	r0, r8, r0
    2518:	3a5001f3 	bcc	1402cec <__bss_end__+0x13f8afc>
    251c:	9f1e331d 	svcls	0x001e331d
	...
    252c:	01100000 	tsteq	r0, r0
    2530:	01380000 	teqeq	r8, r0
    2534:	00010000 	andeq	r0, r1, r0
    2538:	00013856 	andeq	r3, r1, r6, asr r8
    253c:	00013b00 	andeq	r3, r1, r0, lsl #22
    2540:	50000100 	andpl	r0, r0, r0, lsl #2
    2544:	0000013b 	andeq	r0, r0, fp, lsr r1
    2548:	00000140 	andeq	r0, r0, r0, asr #2
    254c:	01f30026 	mvnseq	r0, r6, lsr #32
    2550:	f72cf750 			; <UNDEFINED> instruction: 0xf72cf750
    2554:	0825f425 	stmdaeq	r5!, {r0, r2, r5, sl, ip, sp, lr, pc}
    2558:	cccccccd 	stclgt	12, cr12, [ip], {205}	; 0xcd
    255c:	00000000 	andeq	r0, r0, r0
    2560:	f720081e 			; <UNDEFINED> instruction: 0xf720081e
    2564:	2cf72525 	cfldr64cs	mvdx2, [r7], #148	; 0x94
    2568:	253300f7 	ldrcs	r0, [r3, #-247]!	; 0xffffff09
    256c:	a0808023 	addge	r8, r0, r3, lsr #32
    2570:	9f243240 	svcls	0x00243240
	...
    257c:	00010100 	andeq	r0, r1, r0, lsl #2
    2580:	00000000 	andeq	r0, r0, r0
    2584:	00000120 	andeq	r0, r0, r0, lsr #2
    2588:	00000120 	andeq	r0, r0, r0, lsr #2
    258c:	20500001 	subscs	r0, r0, r1
    2590:	28000001 	stmdacs	r0, {r0}
    2594:	0d000001 	stceq	0, cr0, [r0, #-4]
    2598:	00743700 	rsbseq	r3, r4, r0, lsl #14
    259c:	1e331d3a 	mrcne	13, 1, r1, cr3, cr10, {1}
    25a0:	00702024 	rsbseq	r2, r0, r4, lsr #32
    25a4:	01289f1a 			; <UNDEFINED> instruction: 0x01289f1a
    25a8:	01300000 	teqeq	r0, r0
    25ac:	000e0000 	andeq	r0, lr, r0
    25b0:	5001f337 	andpl	pc, r1, r7, lsr r3	; <UNPREDICTABLE>
    25b4:	1e331d3a 	mrcne	13, 1, r1, cr3, cr10, {1}
    25b8:	00702024 	rsbseq	r2, r0, r4, lsr #32
    25bc:	01309f1a 	teqeq	r0, sl, lsl pc
    25c0:	013b0000 	teqeq	fp, r0
    25c4:	000e0000 	andeq	r0, lr, r0
    25c8:	5001f337 	andpl	pc, r1, r7, lsr r3	; <UNPREDICTABLE>
    25cc:	1e331d3a 	mrcne	13, 1, r1, cr3, cr10, {1}
    25d0:	00732024 	rsbseq	r2, r3, r4, lsr #32
    25d4:	00009f1a 	andeq	r9, r0, sl, lsl pc
	...
    25e0:	00600000 	rsbeq	r0, r0, r0
    25e4:	00900000 	addseq	r0, r0, r0
    25e8:	00010000 	andeq	r0, r1, r0
    25ec:	00009050 	andeq	r9, r0, r0, asr r0
    25f0:	0000b800 	andeq	fp, r0, r0, lsl #16
    25f4:	f3000400 	vshl.u8	d0, d0, d0
    25f8:	009f5001 	addseq	r5, pc, r1
    25fc:	00000000 	andeq	r0, r0, r0
    2600:	02000000 	andeq	r0, r0, #0, 0
    2604:	60000000 	andvs	r0, r0, r0
    2608:	90000000 	andls	r0, r0, r0
    260c:	01000000 	mrseq	r0, (UNDEF: 0)
    2610:	00905000 	addseq	r5, r0, r0
    2614:	00b80000 	adcseq	r0, r8, r0
    2618:	00040000 	andeq	r0, r4, r0
    261c:	9f5001f3 	svcls	0x005001f3
	...
    262c:	00000068 	andeq	r0, r0, r8, rrx
    2630:	00000090 	muleq	r0, r0, r0
    2634:	90500001 	subsls	r0, r0, r1
    2638:	b8000000 	stmdalt	r0, {}	; <UNPREDICTABLE>
    263c:	04000000 	streq	r0, [r0], #-0
    2640:	5001f300 	andpl	pc, r1, r0, lsl #6
    2644:	0000009f 	muleq	r0, pc, r0	; <UNPREDICTABLE>
	...
    2650:	0000a000 	andeq	sl, r0, r0
    2654:	0000b000 	andeq	fp, r0, r0
    2658:	54000100 	strpl	r0, [r0], #-256	; 0xffffff00
    265c:	000000b0 	strheq	r0, [r0], -r0	; <UNPREDICTABLE>
    2660:	000000b8 	strheq	r0, [r0], -r8
    2664:	01f30029 	mvnseq	r0, r9, lsr #32
    2668:	5001f350 	andpl	pc, r1, r0, asr r3	; <UNPREDICTABLE>
    266c:	25f72cf7 	ldrbcs	r2, [r7, #3319]!	; 0xcf7
    2670:	cd0825f4 	cfstr32gt	mvfx2, [r8, #-976]	; 0xfffffc30
    2674:	00cccccc 	sbceq	ip, ip, ip, asr #25
    2678:	1e000000 	cdpne	0, 0, cr0, cr0, cr0, {0}
    267c:	25f72008 	ldrbcs	r2, [r7, #8]!
    2680:	f72cf725 			; <UNDEFINED> instruction: 0xf72cf725
    2684:	35253300 	strcc	r3, [r5, #-768]!	; 0xfffffd00
    2688:	1c24311e 	stfnes	f3, [r4], #-120	; 0xffffff88
    268c:	009f1e33 	addseq	r1, pc, r3, lsr lr	; <UNPREDICTABLE>
    2690:	00000000 	andeq	r0, r0, r0
    2694:	01000000 	mrseq	r0, (UNDEF: 0)
    2698:	00000000 	andeq	r0, r0, r0
    269c:	0000a000 	andeq	sl, r0, r0
    26a0:	0000b000 	andeq	fp, r0, r0
    26a4:	55000100 	strpl	r0, [r0, #-256]	; 0xffffff00
    26a8:	000000b0 	strheq	r0, [r0], -r0	; <UNPREDICTABLE>
    26ac:	000000b3 	strheq	r0, [r0], -r3
    26b0:	b3500001 	cmplt	r0, #1, 0
    26b4:	b8000000 	stmdalt	r0, {}	; <UNPREDICTABLE>
    26b8:	26000000 	strcs	r0, [r0], -r0
    26bc:	5001f300 	andpl	pc, r1, r0, lsl #6
    26c0:	25f72cf7 	ldrbcs	r2, [r7, #3319]!	; 0xcf7
    26c4:	cd0825f4 	cfstr32gt	mvfx2, [r8, #-976]	; 0xfffffc30
    26c8:	00cccccc 	sbceq	ip, ip, ip, asr #25
    26cc:	1e000000 	cdpne	0, 0, cr0, cr0, cr0, {0}
    26d0:	25f72008 	ldrbcs	r2, [r7, #8]!
    26d4:	f72cf725 			; <UNDEFINED> instruction: 0xf72cf725
    26d8:	23253300 			; <UNDEFINED> instruction: 0x23253300
    26dc:	40a08080 	adcmi	r8, r0, r0, lsl #1
    26e0:	009f2432 	addseq	r2, pc, r2, lsr r4	; <UNPREDICTABLE>
    26e4:	00000000 	andeq	r0, r0, r0
    26e8:	02000000 	andeq	r0, r0, #0, 0
    26ec:	01010000 	mrseq	r0, (UNDEF: 1)
    26f0:	a0000000 	andge	r0, r0, r0
    26f4:	a4000000 	strge	r0, [r0], #-0
    26f8:	01000000 	mrseq	r0, (UNDEF: 0)
    26fc:	00a45000 	adceq	r5, r4, r0
    2700:	00a40000 	adceq	r0, r4, r0
    2704:	00010000 	andeq	r0, r1, r0
    2708:	0000a453 	andeq	sl, r0, r3, asr r4
    270c:	0000a800 	andeq	sl, r0, r0, lsl #16
    2710:	31000800 	tstcc	r0, r0, lsl #16
    2714:	73240074 			; <UNDEFINED> instruction: 0x73240074
    2718:	a89f2100 	ldmge	pc, {r8, sp}	; <UNPREDICTABLE>
    271c:	b3000000 	movwlt	r0, #0
    2720:	01000000 	mrseq	r0, (UNDEF: 0)
    2724:	00005100 	andeq	r5, r0, r0, lsl #2
	...
    2734:	003c0000 	eorseq	r0, ip, r0
    2738:	00010000 	andeq	r0, r1, r0
    273c:	00003c50 	andeq	r3, r0, r0, asr ip
    2740:	00006000 	andeq	r6, r0, r0
    2744:	f3000400 	vshl.u8	d0, d0, d0
    2748:	009f5001 	addseq	r5, pc, r1
	...
    2758:	3f000000 	svccc	0x00000000
    275c:	01000000 	mrseq	r0, (UNDEF: 0)
    2760:	003f5100 	eorseq	r5, pc, r0, lsl #2
    2764:	00600000 	rsbeq	r0, r0, r0
    2768:	00040000 	andeq	r0, r4, r0
    276c:	9f5101f3 	svcls	0x005101f3
	...
    277c:	00000008 	andeq	r0, r0, r8
    2780:	0000003f 	andeq	r0, r0, pc, lsr r0
    2784:	3f510001 	svccc	0x00510001
    2788:	60000000 	andvs	r0, r0, r0
    278c:	04000000 	streq	r0, [r0], #-0
    2790:	5101f300 	mrspl	pc, SP_irq	; <UNPREDICTABLE>
    2794:	0000009f 	muleq	r0, pc, r0	; <UNPREDICTABLE>
	...
    27a0:	00000800 	andeq	r0, r0, r0, lsl #16
    27a4:	00003c00 	andeq	r3, r0, r0, lsl #24
    27a8:	50000100 	andpl	r0, r0, r0, lsl #2
    27ac:	0000003c 	andeq	r0, r0, ip, lsr r0
    27b0:	00000060 	andeq	r0, r0, r0, rrx
    27b4:	01f30004 	mvnseq	r0, r4
    27b8:	00009f50 	andeq	r9, r0, r0, asr pc
	...
    27c4:	00480000 	subeq	r0, r8, r0
    27c8:	00580000 	subseq	r0, r8, r0
    27cc:	00010000 	andeq	r0, r1, r0
    27d0:	00005854 	andeq	r5, r0, r4, asr r8
    27d4:	00006000 	andeq	r6, r0, r0
    27d8:	f3002900 	vmls.i8	d2, d0, d0
    27dc:	01f35001 	mvnseq	r5, r1
    27e0:	f72cf750 			; <UNDEFINED> instruction: 0xf72cf750
    27e4:	0825f425 	stmdaeq	r5!, {r0, r2, r5, sl, ip, sp, lr, pc}
    27e8:	cccccccd 	stclgt	12, cr12, [ip], {205}	; 0xcd
    27ec:	00000000 	andeq	r0, r0, r0
    27f0:	f720081e 			; <UNDEFINED> instruction: 0xf720081e
    27f4:	2cf72525 	cfldr64cs	mvdx2, [r7], #148	; 0x94
    27f8:	253300f7 	ldrcs	r0, [r3, #-247]!	; 0xffffff09
    27fc:	24311e35 	ldrtcs	r1, [r1], #-3637	; 0xfffff1cb
    2800:	9f1e331c 	svcls	0x001e331c
	...
    280c:	00000001 	andeq	r0, r0, r1
    2810:	00480000 	subeq	r0, r8, r0
    2814:	00580000 	subseq	r0, r8, r0
    2818:	00010000 	andeq	r0, r1, r0
    281c:	00005856 	andeq	r5, r0, r6, asr r8
    2820:	00005b00 	andeq	r5, r0, r0, lsl #22
    2824:	50000100 	andpl	r0, r0, r0, lsl #2
    2828:	0000005b 	andeq	r0, r0, fp, asr r0
    282c:	00000060 	andeq	r0, r0, r0, rrx
    2830:	01f30026 	mvnseq	r0, r6, lsr #32
    2834:	f72cf750 			; <UNDEFINED> instruction: 0xf72cf750
    2838:	0825f425 	stmdaeq	r5!, {r0, r2, r5, sl, ip, sp, lr, pc}
    283c:	cccccccd 	stclgt	12, cr12, [ip], {205}	; 0xcd
    2840:	00000000 	andeq	r0, r0, r0
    2844:	f720081e 			; <UNDEFINED> instruction: 0xf720081e
    2848:	2cf72525 	cfldr64cs	mvdx2, [r7], #148	; 0x94
    284c:	253300f7 	ldrcs	r0, [r3, #-247]!	; 0xffffff09
    2850:	a0808023 	addge	r8, r0, r3, lsr #32
    2854:	9f243240 	svcls	0x00243240
	...
    2860:	01000002 	tsteq	r0, r2
    2864:	00000001 	andeq	r0, r0, r1
    2868:	00000048 	andeq	r0, r0, r8, asr #32
    286c:	0000004c 	andeq	r0, r0, ip, asr #32
    2870:	4c500001 	mrrcmi	0, 0, r0, r0, cr1	; <UNPREDICTABLE>
    2874:	4c000000 	stcmi	0, cr0, [r0], {-0}
    2878:	01000000 	mrseq	r0, (UNDEF: 0)
    287c:	004c5100 	subeq	r5, ip, r0, lsl #2
    2880:	00500000 	subseq	r0, r0, r0
    2884:	000c0000 	andeq	r0, ip, r0
    2888:	ff080075 			; <UNDEFINED> instruction: 0xff080075
    288c:	2400741a 	strcs	r7, [r0], #-1050	; 0xfffffbe6
    2890:	9f210071 	svcls	0x00210071
    2894:	00000050 	andeq	r0, r0, r0, asr r0
    2898:	00000054 	andeq	r0, r0, r4, asr r0
    289c:	74370012 	ldrtvc	r0, [r7], #-18	; 0xffffffee
    28a0:	70202400 	eorvc	r2, r0, r0, lsl #8
    28a4:	00751a00 	rsbseq	r1, r5, r0, lsl #20
    28a8:	741aff08 	ldrvc	pc, [sl], #-3848	; 0xfffff0f8
    28ac:	9f212400 	svcls	0x00212400
	...
    28bc:	00b80000 	adcseq	r0, r8, r0
    28c0:	00c40000 	sbceq	r0, r4, r0
    28c4:	00010000 	andeq	r0, r1, r0
    28c8:	0000c450 	andeq	ip, r0, r0, asr r4
    28cc:	0000cb00 	andeq	ip, r0, r0, lsl #22
    28d0:	53000100 	movwpl	r0, #256	; 0x100
    28d4:	000000cb 	andeq	r0, r0, fp, asr #1
    28d8:	000000d0 	ldrdeq	r0, [r0], -r0	; <UNPREDICTABLE>
    28dc:	01f30004 	mvnseq	r0, r4
    28e0:	00009f50 	andeq	r9, r0, r0, asr pc
	...
    28f0:	000000d0 	ldrdeq	r0, [r0], -r0	; <UNPREDICTABLE>
    28f4:	000000dc 	ldrdeq	r0, [r0], -ip
    28f8:	dc500001 	mrrcle	0, 0, r0, r0, cr1	; <UNPREDICTABLE>
    28fc:	e3000000 	movw	r0, #0
    2900:	01000000 	mrseq	r0, (UNDEF: 0)
    2904:	00e35300 	rsceq	r5, r3, r0, lsl #6
    2908:	00e80000 	rsceq	r0, r8, r0
    290c:	00040000 	andeq	r0, r4, r0
    2910:	9f5001f3 	svcls	0x005001f3
	...
    2924:	0000001c 	andeq	r0, r0, ip, lsl r0
    2928:	1c510001 	mrrcne	0, 0, r0, r1, cr1
    292c:	78000000 	stmdavc	r0, {}	; <UNPREDICTABLE>
    2930:	04000000 	streq	r0, [r0], #-0
    2934:	5101f300 	mrspl	pc, SP_irq	; <UNPREDICTABLE>
    2938:	0000009f 	muleq	r0, pc, r0	; <UNPREDICTABLE>
	...
    2948:	00005800 	andeq	r5, r0, r0, lsl #16
    294c:	52000100 	andpl	r0, r0, #0
    2950:	00000058 	andeq	r0, r0, r8, asr r0
    2954:	00000078 	andeq	r0, r0, r8, ror r0
    2958:	01f30004 	mvnseq	r0, r4
    295c:	00009f52 	andeq	r9, r0, r2, asr pc
    2960:	00000000 	andeq	r0, r0, r0
    2964:	00020000 	andeq	r0, r2, r0
    2968:	00010100 	andeq	r0, r1, r0, lsl #2
    296c:	00010100 	andeq	r0, r1, r0, lsl #2
    2970:	00010100 	andeq	r0, r1, r0, lsl #2
    2974:	00000000 	andeq	r0, r0, r0
    2978:	00000038 	andeq	r0, r0, r8, lsr r0
    297c:	54500001 	ldrbpl	r0, [r0], #-1
    2980:	54000000 	strpl	r0, [r0], #-0
    2984:	01000000 	mrseq	r0, (UNDEF: 0)
    2988:	00545300 	subseq	r5, r4, r0, lsl #6
    298c:	005c0000 	subseq	r0, ip, r0
    2990:	00030000 	andeq	r0, r3, r0
    2994:	5c9f0173 	ldfpls	f0, [pc], {115}	; 0x73
    2998:	64000000 	strvs	r0, [r0], #-0
    299c:	01000000 	mrseq	r0, (UNDEF: 0)
    29a0:	00645200 	rsbeq	r5, r4, r0, lsl #4
    29a4:	00680000 	rsbeq	r0, r8, r0
    29a8:	00030000 	andeq	r0, r3, r0
    29ac:	689f0273 	ldmvs	pc, {r0, r1, r4, r5, r6, r9}	; <UNPREDICTABLE>
    29b0:	74000000 	strvc	r0, [r0], #-0
    29b4:	01000000 	mrseq	r0, (UNDEF: 0)
    29b8:	00745200 	rsbseq	r5, r4, r0, lsl #4
    29bc:	00780000 	rsbseq	r0, r8, r0
    29c0:	00030000 	andeq	r0, r3, r0
    29c4:	009f0172 	addseq	r0, pc, r2, ror r1	; <UNPREDICTABLE>
	...
    29d0:	00000800 	andeq	r0, r0, r0, lsl #16
    29d4:	00007800 	andeq	r7, r0, r0, lsl #16
    29d8:	54000100 	strpl	r0, [r0], #-256	; 0xffffff00
	...
    29ec:	00000018 	andeq	r0, r0, r8, lsl r0
    29f0:	18510001 	ldmdane	r1, {r0}^
    29f4:	2c000000 	stccs	0, cr0, [r0], {-0}
    29f8:	04000000 	streq	r0, [r0], #-0
    29fc:	5101f300 	mrspl	pc, SP_irq	; <UNPREDICTABLE>
    2a00:	0000009f 	muleq	r0, pc, r0	; <UNPREDICTABLE>
    2a04:	00000000 	andeq	r0, r0, r0
    2a08:	00000200 	andeq	r0, r0, r0, lsl #4
    2a0c:	00000000 	andeq	r0, r0, r0
    2a10:	01010000 	mrseq	r0, (UNDEF: 1)
    2a14:	00000000 	andeq	r0, r0, r0
    2a18:	04000000 	streq	r0, [r0], #-0
    2a1c:	01000000 	mrseq	r0, (UNDEF: 0)
    2a20:	00045000 	andeq	r5, r4, r0
    2a24:	00080000 	andeq	r0, r8, r0
    2a28:	00010000 	andeq	r0, r1, r0
    2a2c:	00000852 	andeq	r0, r0, r2, asr r8
    2a30:	00000c00 	andeq	r0, r0, r0, lsl #24
    2a34:	72000300 	andvc	r0, r0, #0, 6
    2a38:	000c9f01 	andeq	r9, ip, r1, lsl #30
    2a3c:	00180000 	andseq	r0, r8, r0
    2a40:	00010000 	andeq	r0, r1, r0
    2a44:	00001852 	andeq	r1, r0, r2, asr r8
    2a48:	00001c00 	andeq	r1, r0, r0, lsl #24
    2a4c:	53000100 	movwpl	r0, #256	; 0x100
    2a50:	0000001c 	andeq	r0, r0, ip, lsl r0
    2a54:	00000024 	andeq	r0, r0, r4, lsr #32
    2a58:	01730003 	cmneq	r3, r3
    2a5c:	0000249f 	muleq	r0, pc, r4	; <UNPREDICTABLE>
    2a60:	00002c00 	andeq	r2, r0, r0, lsl #24
    2a64:	53000100 	movwpl	r0, #256	; 0x100
	...
    2a70:	00020203 	andeq	r0, r2, r3, lsl #4
    2a74:	00000000 	andeq	r0, r0, r0
    2a78:	00180000 	andseq	r0, r8, r0
    2a7c:	00010000 	andeq	r0, r1, r0
    2a80:	00001851 	andeq	r1, r0, r1, asr r8
    2a84:	00001c00 	andeq	r1, r0, r0, lsl #24
    2a88:	71000300 	mrsvc	r0, LR_irq
    2a8c:	001c9f01 	andseq	r9, ip, r1, lsl #30
    2a90:	002c0000 	eoreq	r0, ip, r0
    2a94:	00010000 	andeq	r0, r1, r0
    2a98:	00000051 	andeq	r0, r0, r1, asr r0
	...
    2aa4:	08000000 	stmdaeq	r0, {}	; <UNPREDICTABLE>
    2aa8:	0c000000 	stceq	0, cr0, [r0], {-0}
    2aac:	02000000 	andeq	r0, r0, #0, 0
    2ab0:	0c007200 	sfmeq	f7, 4, [r0], {-0}
    2ab4:	18000000 	stmdane	r0, {}	; <UNPREDICTABLE>
    2ab8:	02000000 	andeq	r0, r0, #0, 0
    2abc:	1c007300 	stcne	3, cr7, [r0], {-0}
    2ac0:	2c000000 	stccs	0, cr0, [r0], {-0}
    2ac4:	01000000 	mrseq	r0, (UNDEF: 0)
    2ac8:	00005200 	andeq	r5, r0, r0, lsl #4
	...
    2ae0:	00140000 	andseq	r0, r4, r0
    2ae4:	00010000 	andeq	r0, r1, r0
    2ae8:	00001450 	andeq	r1, r0, r0, asr r4
    2aec:	00001800 	andeq	r1, r0, r0, lsl #16
    2af0:	70000300 	andvc	r0, r0, r0, lsl #6
    2af4:	00189f01 	andseq	r9, r8, r1, lsl #30
    2af8:	00200000 	eoreq	r0, r0, r0
    2afc:	00010000 	andeq	r0, r1, r0
    2b00:	00002450 	andeq	r2, r0, r0, asr r4
    2b04:	00002800 	andeq	r2, r0, r0, lsl #16
    2b08:	50000100 	andpl	r0, r0, r0, lsl #2
    2b0c:	00000028 	andeq	r0, r0, r8, lsr #32
    2b10:	00000030 	andeq	r0, r0, r0, lsr r0
    2b14:	01700003 	cmneq	r0, r3
    2b18:	0000389f 	muleq	r0, pc, r8	; <UNPREDICTABLE>
    2b1c:	00004000 	andeq	r4, r0, r0
    2b20:	50000100 	andpl	r0, r0, r0, lsl #2
	...
    2b34:	00240000 	eoreq	r0, r4, r0
    2b38:	00010000 	andeq	r0, r1, r0
    2b3c:	00002451 	andeq	r2, r0, r1, asr r4
    2b40:	00002800 	andeq	r2, r0, r0, lsl #16
    2b44:	5c000100 	stfpls	f0, [r0], {-0}
    2b48:	00000028 	andeq	r0, r0, r8, lsr #32
    2b4c:	00000044 	andeq	r0, r0, r4, asr #32
    2b50:	00510001 	subseq	r0, r1, r1
	...
    2b5c:	00000202 	andeq	r0, r0, r2, lsl #4
    2b60:	00000000 	andeq	r0, r0, r0
    2b64:	00000400 	andeq	r0, r0, r0, lsl #8
    2b68:	51000100 	mrspl	r0, (UNDEF: 16)
    2b6c:	00000004 	andeq	r0, r0, r4
    2b70:	00000008 	andeq	r0, r0, r8
    2b74:	01710003 	cmneq	r1, r3
    2b78:	0000089f 	muleq	r0, pc, r8	; <UNPREDICTABLE>
    2b7c:	00001800 	andeq	r1, r0, r0, lsl #16
    2b80:	51000100 	mrspl	r0, (UNDEF: 16)
	...
    2b8c:	00000002 	andeq	r0, r0, r2
    2b90:	00040000 	andeq	r0, r4, r0
    2b94:	00010000 	andeq	r0, r1, r0
    2b98:	00000050 	andeq	r0, r0, r0, asr r0
	...
    2ba8:	00000800 	andeq	r0, r0, r0, lsl #16
    2bac:	50000100 	andpl	r0, r0, r0, lsl #2
    2bb0:	00000008 	andeq	r0, r0, r8
    2bb4:	00000030 	andeq	r0, r0, r0, lsr r0
    2bb8:	01f30004 	mvnseq	r0, r4
    2bbc:	00009f50 	andeq	r9, r0, r0, asr pc
	...
    2bcc:	00080000 	andeq	r0, r8, r0
    2bd0:	00010000 	andeq	r0, r1, r0
    2bd4:	00000851 	andeq	r0, r0, r1, asr r8
    2bd8:	00003000 	andeq	r3, r0, r0
    2bdc:	f3000400 	vshl.u8	d0, d0, d0
    2be0:	009f5101 	addseq	r5, pc, r1, lsl #2
	...
    2bf0:	02020100 	andeq	r0, r2, #0
    2bf4:	00000000 	andeq	r0, r0, r0
    2bf8:	00000400 	andeq	r0, r0, r0, lsl #8
    2bfc:	52000100 	andpl	r0, r0, #0
    2c00:	00000004 	andeq	r0, r0, r4
    2c04:	00000008 	andeq	r0, r0, r8
    2c08:	01f30004 	mvnseq	r0, r4
    2c0c:	00089f52 	andeq	r9, r8, r2, asr pc
    2c10:	00180000 	andseq	r0, r8, r0
    2c14:	00060000 	andeq	r0, r6, r0
    2c18:	315201f3 	ldrshcc	r0, [r2, #-19]	; 0xffffffed
    2c1c:	00189f1c 	andseq	r9, r8, ip, lsl pc
    2c20:	00180000 	andseq	r0, r8, r0
    2c24:	00040000 	andeq	r0, r4, r0
    2c28:	9f5201f3 	svcls	0x005201f3
    2c2c:	00000018 	andeq	r0, r0, r8, lsl r0
    2c30:	00000030 	andeq	r0, r0, r0, lsr r0
    2c34:	01f30006 	mvnseq	r0, r6
    2c38:	9f1c3152 	svcls	0x001c3152
	...
    2c44:	00000002 	andeq	r0, r0, r2
    2c48:	00000001 	andeq	r0, r0, r1
    2c4c:	00000000 	andeq	r0, r0, r0
    2c50:	0000000c 	andeq	r0, r0, ip
    2c54:	0c500001 	mrrceq	0, 0, r0, r0, cr1	; <UNPREDICTABLE>
    2c58:	18000000 	stmdane	r0, {}	; <UNPREDICTABLE>
    2c5c:	03000000 	movweq	r0, #0
    2c60:	9f7f7000 	svcls	0x007f7000
    2c64:	00000018 	andeq	r0, r0, r8, lsl r0
    2c68:	00000024 	andeq	r0, r0, r4, lsr #32
    2c6c:	28500001 	ldmdacs	r0, {r0}^
    2c70:	2c000000 	stccs	0, cr0, [r0], {-0}
    2c74:	03000000 	movweq	r0, #0
    2c78:	9f7f7000 	svcls	0x007f7000
	...
    2c84:	00000002 	andeq	r0, r0, r2
    2c88:	00000000 	andeq	r0, r0, r0
    2c8c:	000c0000 	andeq	r0, ip, r0
    2c90:	00010000 	andeq	r0, r1, r0
    2c94:	00000c51 	andeq	r0, r0, r1, asr ip
    2c98:	00001000 	andeq	r1, r0, r0
    2c9c:	71000300 	mrsvc	r0, LR_irq
    2ca0:	00109f01 	andseq	r9, r0, r1, lsl #30
    2ca4:	00300000 	eorseq	r0, r0, r0
    2ca8:	00010000 	andeq	r0, r1, r0
    2cac:	00000051 	andeq	r0, r0, r1, asr r0
    2cb0:	00000000 	andeq	r0, r0, r0
	...

Disassembly of section .debug_aranges:

00000000 <.debug_aranges>:
   0:	0000001c 	andeq	r0, r0, ip, lsl r0
   4:	00000002 	andeq	r0, r0, r2
   8:	00040000 	andeq	r0, r4, r0
   c:	00000000 	andeq	r0, r0, r0
  10:	00008038 	andeq	r8, r0, r8, lsr r0
  14:	000001b4 			; <UNDEFINED> instruction: 0x000001b4
	...
  20:	0000001c 	andeq	r0, r0, ip, lsl r0
  24:	04380002 	ldrteq	r0, [r8], #-2
  28:	00040000 	andeq	r0, r4, r0
  2c:	00000000 	andeq	r0, r0, r0
  30:	000081ec 	andeq	r8, r0, ip, ror #3
  34:	000001ac 	andeq	r0, r0, ip, lsr #3
	...
  40:	0000001c 	andeq	r0, r0, ip, lsl r0
  44:	06fe0002 	ldrbteq	r0, [lr], r2
  48:	00040000 	andeq	r0, r4, r0
  4c:	00000000 	andeq	r0, r0, r0
  50:	00008398 	muleq	r0, r8, r3
  54:	0000000c 	andeq	r0, r0, ip
	...
  60:	0000001c 	andeq	r0, r0, ip, lsl r0
  64:	080c0002 	stmdaeq	ip, {r1}
  68:	00040000 	andeq	r0, r4, r0
  6c:	00000000 	andeq	r0, r0, r0
  70:	000083a4 	andeq	r8, r0, r4, lsr #7
  74:	00000058 	andeq	r0, r0, r8, asr r0
	...
  80:	0000001c 	andeq	r0, r0, ip, lsl r0
  84:	09ad0002 	stmibeq	sp!, {r1}
  88:	00040000 	andeq	r0, r4, r0
  8c:	00000000 	andeq	r0, r0, r0
  90:	000083fc 	strdeq	r8, [r0], -ip
  94:	0000003c 	andeq	r0, r0, ip, lsr r0
	...
  a0:	0000001c 	andeq	r0, r0, ip, lsl r0
  a4:	0afa0002 	beq	ffe800b4 <__bss_end__+0xffe75ec4>
  a8:	00040000 	andeq	r0, r4, r0
  ac:	00000000 	andeq	r0, r0, r0
  b0:	00008438 	andeq	r8, r0, r8, lsr r4
  b4:	00000038 	andeq	r0, r0, r8, lsr r0
	...
  c0:	0000001c 	andeq	r0, r0, ip, lsl r0
  c4:	0bf10002 	bleq	ffc400d4 <__bss_end__+0xffc35ee4>
  c8:	00040000 	andeq	r0, r4, r0
  cc:	00000000 	andeq	r0, r0, r0
  d0:	00008470 	andeq	r8, r0, r0, ror r4
  d4:	000009b4 			; <UNDEFINED> instruction: 0x000009b4
	...
  e0:	0000001c 	andeq	r0, r0, ip, lsl r0
  e4:	18740002 	ldmdane	r4!, {r1}^
  e8:	00040000 	andeq	r0, r4, r0
  ec:	00000000 	andeq	r0, r0, r0
  f0:	00008e24 	andeq	r8, r0, r4, lsr #28
  f4:	0000002c 	andeq	r0, r0, ip, lsr #32
	...
 100:	0000001c 	andeq	r0, r0, ip, lsl r0
 104:	19a70002 	stmibne	r7!, {r1}
 108:	00040000 	andeq	r0, r4, r0
 10c:	00000000 	andeq	r0, r0, r0
 110:	00008e50 	andeq	r8, r0, r0, asr lr
 114:	000000f8 	strdeq	r0, [r0], -r8
	...
 120:	0000001c 	andeq	r0, r0, ip, lsl r0
 124:	1b3b0002 	blne	ec0134 <__bss_end__+0xeb5f44>
 128:	00040000 	andeq	r0, r4, r0
 12c:	00000000 	andeq	r0, r0, r0
 130:	00008f48 	andeq	r8, r0, r8, asr #30
 134:	00000004 	andeq	r0, r0, r4
	...
 140:	0000001c 	andeq	r0, r0, ip, lsl r0
 144:	1c0d0002 	stcne	0, cr0, [sp], {2}
 148:	00040000 	andeq	r0, r4, r0
 14c:	00000000 	andeq	r0, r0, r0
 150:	00008f4c 	andeq	r8, r0, ip, asr #30
 154:	0000008c 	andeq	r0, r0, ip, lsl #1
	...
 160:	0000001c 	andeq	r0, r0, ip, lsl r0
 164:	1e8e0002 	cdpne	0, 8, cr0, cr14, cr2, {0}
 168:	00040000 	andeq	r0, r4, r0
 16c:	00000000 	andeq	r0, r0, r0
 170:	00008fd8 	ldrdeq	r8, [r0], -r8	; <UNPREDICTABLE>
 174:	0000011c 	andeq	r0, r0, ip, lsl r1
	...
 180:	0000001c 	andeq	r0, r0, ip, lsl r0
 184:	23d10002 	bicscs	r0, r1, #2, 0
 188:	00040000 	andeq	r0, r4, r0
 18c:	00000000 	andeq	r0, r0, r0
 190:	000090f4 	strdeq	r9, [r0], -r4
 194:	000001f0 	strdeq	r0, [r0], -r0	; <UNPREDICTABLE>
	...
 1a0:	0000001c 	andeq	r0, r0, ip, lsl r0
 1a4:	29a20002 	stmibcs	r2!, {r1}
 1a8:	00040000 	andeq	r0, r4, r0
 1ac:	00000000 	andeq	r0, r0, r0
 1b0:	000092e4 	andeq	r9, r0, r4, ror #5
 1b4:	000003b0 			; <UNDEFINED> instruction: 0x000003b0
	...
 1c0:	0000001c 	andeq	r0, r0, ip, lsl r0
 1c4:	328f0002 	addcc	r0, pc, #2, 0
 1c8:	00040000 	andeq	r0, r4, r0
 1cc:	00000000 	andeq	r0, r0, r0
 1d0:	00009694 	muleq	r0, r4, r6
 1d4:	00000198 	muleq	r0, r8, r1
	...
 1e0:	0000001c 	andeq	r0, r0, ip, lsl r0
 1e4:	39060002 	stmdbcc	r6, {r1}
 1e8:	00040000 	andeq	r0, r4, r0
 1ec:	00000000 	andeq	r0, r0, r0
 1f0:	0000982c 	andeq	r9, r0, ip, lsr #16
 1f4:	00000078 	andeq	r0, r0, r8, ror r0
	...
 200:	0000001c 	andeq	r0, r0, ip, lsl r0
 204:	3a4a0002 	bcc	1280214 <__bss_end__+0x1276024>
 208:	00040000 	andeq	r0, r4, r0
 20c:	00000000 	andeq	r0, r0, r0
 210:	000098a4 	andeq	r9, r0, r4, lsr #17
 214:	0000002c 	andeq	r0, r0, ip, lsr #32
	...
 220:	0000001c 	andeq	r0, r0, ip, lsl r0
 224:	3b850002 	blcc	fe140234 <__bss_end__+0xfe136044>
 228:	00040000 	andeq	r0, r4, r0
 22c:	00000000 	andeq	r0, r0, r0
 230:	000098d0 	ldrdeq	r9, [r0], -r0
 234:	00000044 	andeq	r0, r0, r4, asr #32
	...
 240:	0000001c 	andeq	r0, r0, ip, lsl r0
 244:	3c800002 	stccc	0, cr0, [r0], {2}
 248:	00040000 	andeq	r0, r4, r0
 24c:	00000000 	andeq	r0, r0, r0
 250:	00009914 	andeq	r9, r0, r4, lsl r9
 254:	00000018 	andeq	r0, r0, r8, lsl r0
	...
 260:	0000001c 	andeq	r0, r0, ip, lsl r0
 264:	3d930002 	ldccc	0, cr0, [r3, #8]
 268:	00040000 	andeq	r0, r4, r0
 26c:	00000000 	andeq	r0, r0, r0
 270:	0000992c 	andeq	r9, r0, ip, lsr #18
 274:	00000030 	andeq	r0, r0, r0, lsr r0
	...
 280:	0000001c 	andeq	r0, r0, ip, lsl r0
 284:	3ee50002 	cdpcc	0, 14, cr0, cr5, cr2, {0}
 288:	00040000 	andeq	r0, r4, r0
 28c:	00000000 	andeq	r0, r0, r0
 290:	0000995c 	andeq	r9, r0, ip, asr r9
 294:	00000004 	andeq	r0, r0, r4
	...

Disassembly of section .debug_ranges:

00000000 <.debug_ranges>:
   0:	00000024 	andeq	r0, r0, r4, lsr #32
   4:	00000048 	andeq	r0, r0, r8, asr #32
   8:	00000050 	andeq	r0, r0, r0, asr r0
   c:	0000008c 	andeq	r0, r0, ip, lsl #1
	...
  18:	00000134 	andeq	r0, r0, r4, lsr r1
  1c:	00000158 	andeq	r0, r0, r8, asr r1
  20:	00000160 	andeq	r0, r0, r0, ror #2
  24:	00000180 	andeq	r0, r0, r0, lsl #3
	...
  30:	000000a4 	andeq	r0, r0, r4, lsr #1
  34:	00000148 	andeq	r0, r0, r8, asr #2
  38:	00000158 	andeq	r0, r0, r8, asr r1
  3c:	0000015c 	andeq	r0, r0, ip, asr r1
  40:	00000274 	andeq	r0, r0, r4, ror r2
  44:	00000278 	andeq	r0, r0, r8, ror r2
  48:	0000027c 	andeq	r0, r0, ip, ror r2
  4c:	00000280 	andeq	r0, r0, r0, lsl #5
  50:	00000288 	andeq	r0, r0, r8, lsl #5
  54:	0000029c 	muleq	r0, ip, r2
  58:	000002c0 	andeq	r0, r0, r0, asr #5
  5c:	000002cc 	andeq	r0, r0, ip, asr #5
  60:	000002f0 	strdeq	r0, [r0], -r0	; <UNPREDICTABLE>
  64:	000002f0 	strdeq	r0, [r0], -r0	; <UNPREDICTABLE>
  68:	000002f4 	strdeq	r0, [r0], -r4
  6c:	000002f8 	strdeq	r0, [r0], -r8
	...
  78:	00000148 	andeq	r0, r0, r8, asr #2
  7c:	00000158 	andeq	r0, r0, r8, asr r1
  80:	0000015c 	andeq	r0, r0, ip, asr r1
  84:	0000018c 	andeq	r0, r0, ip, lsl #3
  88:	0000029c 	muleq	r0, ip, r2
  8c:	000002ac 	andeq	r0, r0, ip, lsr #5
	...
  98:	000003c8 	andeq	r0, r0, r8, asr #7
  9c:	000003d0 	ldrdeq	r0, [r0], -r0	; <UNPREDICTABLE>
  a0:	00000404 	andeq	r0, r0, r4, lsl #8
  a4:	000004ac 	andeq	r0, r0, ip, lsr #9
  a8:	000004c0 	andeq	r0, r0, r0, asr #9
  ac:	00000920 	andeq	r0, r0, r0, lsr #18
  b0:	00000928 	andeq	r0, r0, r8, lsr #18
  b4:	000009b4 			; <UNDEFINED> instruction: 0x000009b4
	...
  c0:	000003c8 	andeq	r0, r0, r8, asr #7
  c4:	000003d0 	ldrdeq	r0, [r0], -r0	; <UNPREDICTABLE>
  c8:	00000504 	andeq	r0, r0, r4, lsl #10
  cc:	000005d0 	ldrdeq	r0, [r0], -r0	; <UNPREDICTABLE>
  d0:	00000800 	andeq	r0, r0, r0, lsl #16
  d4:	00000888 	andeq	r0, r0, r8, lsl #17
  d8:	00000930 	andeq	r0, r0, r0, lsr r9
  dc:	000009b4 			; <UNDEFINED> instruction: 0x000009b4
	...
  e8:	00000404 	andeq	r0, r0, r4, lsl #8
  ec:	00000408 	andeq	r0, r0, r8, lsl #8
  f0:	00000414 	andeq	r0, r0, r4, lsl r4
  f4:	00000414 	andeq	r0, r0, r4, lsl r4
  f8:	00000428 	andeq	r0, r0, r8, lsr #8
  fc:	0000042c 	andeq	r0, r0, ip, lsr #8
	...
 108:	000005fc 	strdeq	r0, [r0], -ip
 10c:	00000700 	andeq	r0, r0, r0, lsl #14
 110:	000007ec 	andeq	r0, r0, ip, ror #15
 114:	000007f4 	strdeq	r0, [r0], -r4
 118:	00000888 	andeq	r0, r0, r8, lsl #17
 11c:	00000894 	muleq	r0, r4, r8
 120:	000008a8 	andeq	r0, r0, r8, lsr #17
 124:	000008bc 			; <UNDEFINED> instruction: 0x000008bc
 128:	00000910 	andeq	r0, r0, r0, lsl r9
 12c:	00000920 	andeq	r0, r0, r0, lsr #18
	...
 138:	00000600 	andeq	r0, r0, r0, lsl #12
 13c:	00000604 	andeq	r0, r0, r4, lsl #12
 140:	00000608 	andeq	r0, r0, r8, lsl #12
 144:	000006b4 			; <UNDEFINED> instruction: 0x000006b4
 148:	000006cc 	andeq	r0, r0, ip, asr #13
 14c:	000006d0 	ldrdeq	r0, [r0], -r0	; <UNPREDICTABLE>
 150:	000008a8 	andeq	r0, r0, r8, lsr #17
 154:	000008b8 			; <UNDEFINED> instruction: 0x000008b8
 158:	00000910 	andeq	r0, r0, r0, lsl r9
 15c:	00000920 	andeq	r0, r0, r0, lsr #18
	...
 168:	000006b4 			; <UNDEFINED> instruction: 0x000006b4
 16c:	000006cc 	andeq	r0, r0, ip, asr #13
 170:	000006d0 	ldrdeq	r0, [r0], -r0	; <UNPREDICTABLE>
 174:	00000700 	andeq	r0, r0, r0, lsl #14
 178:	000007ec 	andeq	r0, r0, ip, ror #15
 17c:	000007f4 	strdeq	r0, [r0], -r4
 180:	00000888 	andeq	r0, r0, r8, lsl #17
 184:	00000894 	muleq	r0, r4, r8
 188:	000008b8 			; <UNDEFINED> instruction: 0x000008b8
 18c:	000008bc 			; <UNDEFINED> instruction: 0x000008bc
	...
 198:	00000700 	andeq	r0, r0, r0, lsl #14
 19c:	00000708 	andeq	r0, r0, r8, lsl #14
 1a0:	0000070c 	andeq	r0, r0, ip, lsl #14
 1a4:	000007ec 	andeq	r0, r0, ip, ror #15
 1a8:	00000894 	muleq	r0, r4, r8
 1ac:	000008a8 	andeq	r0, r0, r8, lsr #17
	...
 1b8:	00000728 	andeq	r0, r0, r8, lsr #14
 1bc:	000007a4 	andeq	r0, r0, r4, lsr #15
 1c0:	000007ac 	andeq	r0, r0, ip, lsr #15
 1c4:	000007b0 			; <UNDEFINED> instruction: 0x000007b0
 1c8:	00000894 	muleq	r0, r4, r8
 1cc:	00000898 	muleq	r0, r8, r8
 1d0:	0000089c 	muleq	r0, ip, r8
 1d4:	000008a0 	andeq	r0, r0, r0, lsr #17
	...
 1e0:	000007a4 	andeq	r0, r0, r4, lsr #15
 1e4:	000007ac 	andeq	r0, r0, ip, lsr #15
 1e8:	000007b0 			; <UNDEFINED> instruction: 0x000007b0
 1ec:	000007ec 	andeq	r0, r0, ip, ror #15
 1f0:	00000898 	muleq	r0, r8, r8
 1f4:	0000089c 	muleq	r0, ip, r8
 1f8:	000008a0 	andeq	r0, r0, r0, lsr #17
 1fc:	000008a8 	andeq	r0, r0, r8, lsr #17
	...
 208:	00008f78 	andeq	r8, r0, r8, ror pc
 20c:	00008f78 	andeq	r8, r0, r8, ror pc
 210:	00008f7c 	andeq	r8, r0, ip, ror pc
 214:	00008f84 	andeq	r8, r0, r4, lsl #31
	...
 220:	00008f4c 	andeq	r8, r0, ip, asr #30
 224:	00008fd8 	ldrdeq	r8, [r0], -r8	; <UNPREDICTABLE>
	...
 230:	00000030 	andeq	r0, r0, r0, lsr r0
 234:	00000030 	andeq	r0, r0, r0, lsr r0
 238:	00000038 	andeq	r0, r0, r8, lsr r0
 23c:	0000004c 	andeq	r0, r0, ip, asr #32
	...
 248:	0000004c 	andeq	r0, r0, ip, asr #32
 24c:	00000050 	andeq	r0, r0, r0, asr r0
 250:	00000050 	andeq	r0, r0, r0, asr r0
 254:	00000078 	andeq	r0, r0, r8, ror r0
	...
 260:	0000004c 	andeq	r0, r0, ip, asr #32
 264:	00000050 	andeq	r0, r0, r0, asr r0
 268:	00000050 	andeq	r0, r0, r0, asr r0
 26c:	00000060 	andeq	r0, r0, r0, rrx
 270:	00000064 	andeq	r0, r0, r4, rrx
 274:	00000068 	andeq	r0, r0, r8, rrx
	...
 280:	0000004c 	andeq	r0, r0, ip, asr #32
 284:	00000050 	andeq	r0, r0, r0, asr r0
 288:	00000054 	andeq	r0, r0, r4, asr r0
 28c:	00000060 	andeq	r0, r0, r0, rrx
	...
 298:	0000009c 	muleq	r0, ip, r0
 29c:	000000a0 	andeq	r0, r0, r0, lsr #1
 2a0:	000000a0 	andeq	r0, r0, r0, lsr #1
 2a4:	000000c8 	andeq	r0, r0, r8, asr #1
	...
 2b0:	0000009c 	muleq	r0, ip, r0
 2b4:	000000a0 	andeq	r0, r0, r0, lsr #1
 2b8:	000000a0 	andeq	r0, r0, r0, lsr #1
 2bc:	000000b0 	strheq	r0, [r0], -r0	; <UNPREDICTABLE>
 2c0:	000000b4 	strheq	r0, [r0], -r4
 2c4:	000000b8 	strheq	r0, [r0], -r8
	...
 2d0:	0000009c 	muleq	r0, ip, r0
 2d4:	000000a0 	andeq	r0, r0, r0, lsr #1
 2d8:	000000a4 	andeq	r0, r0, r4, lsr #1
 2dc:	000000b0 	strheq	r0, [r0], -r0	; <UNPREDICTABLE>
	...
 2e8:	000000c8 	andeq	r0, r0, r8, asr #1
 2ec:	000000c8 	andeq	r0, r0, r8, asr #1
 2f0:	000000cc 	andeq	r0, r0, ip, asr #1
 2f4:	0000011c 	andeq	r0, r0, ip, lsl r1
	...
 300:	000000f0 	strdeq	r0, [r0], -r0	; <UNPREDICTABLE>
 304:	000000f4 	strdeq	r0, [r0], -r4
 308:	000000f4 	strdeq	r0, [r0], -r4
 30c:	0000011c 	andeq	r0, r0, ip, lsl r1
	...
 318:	000000f0 	strdeq	r0, [r0], -r0	; <UNPREDICTABLE>
 31c:	000000f4 	strdeq	r0, [r0], -r4
 320:	000000f4 	strdeq	r0, [r0], -r4
 324:	00000104 	andeq	r0, r0, r4, lsl #2
 328:	00000108 	andeq	r0, r0, r8, lsl #2
 32c:	0000010c 	andeq	r0, r0, ip, lsl #2
	...
 338:	000000f0 	strdeq	r0, [r0], -r0	; <UNPREDICTABLE>
 33c:	000000f4 	strdeq	r0, [r0], -r4
 340:	000000f8 	strdeq	r0, [r0], -r8
 344:	00000104 	andeq	r0, r0, r4, lsl #2
	...
 350:	00000134 	andeq	r0, r0, r4, lsr r1
 354:	00000134 	andeq	r0, r0, r4, lsr r1
 358:	00000134 	andeq	r0, r0, r4, lsr r1
 35c:	0000013c 	andeq	r0, r0, ip, lsr r1
	...
 368:	0000024c 	andeq	r0, r0, ip, asr #4
 36c:	00000264 	andeq	r0, r0, r4, ror #4
 370:	000002c8 	andeq	r0, r0, r8, asr #5
 374:	000002e8 	andeq	r0, r0, r8, ror #5
	...
 380:	00000008 	andeq	r0, r0, r8
 384:	0000000c 	andeq	r0, r0, ip
 388:	00000014 	andeq	r0, r0, r4, lsl r0
 38c:	00000054 	andeq	r0, r0, r4, asr r0
 390:	00000058 	andeq	r0, r0, r8, asr r0
 394:	00000060 	andeq	r0, r0, r0, rrx
	...
 3a0:	00000060 	andeq	r0, r0, r0, rrx
 3a4:	00000068 	andeq	r0, r0, r8, rrx
 3a8:	0000006c 	andeq	r0, r0, ip, rrx
 3ac:	000000ac 	andeq	r0, r0, ip, lsr #1
 3b0:	000000b0 	strheq	r0, [r0], -r0	; <UNPREDICTABLE>
 3b4:	000000b8 	strheq	r0, [r0], -r8
	...
 3c0:	00000068 	andeq	r0, r0, r8, rrx
 3c4:	00000068 	andeq	r0, r0, r8, rrx
 3c8:	0000006c 	andeq	r0, r0, ip, rrx
 3cc:	000000ac 	andeq	r0, r0, ip, lsr #1
 3d0:	000000b0 	strheq	r0, [r0], -r0	; <UNPREDICTABLE>
 3d4:	000000b8 	strheq	r0, [r0], -r8
	...
 3e0:	000000e8 	andeq	r0, r0, r8, ror #1
 3e4:	000000f0 	strdeq	r0, [r0], -r0	; <UNPREDICTABLE>
 3e8:	000000f4 	strdeq	r0, [r0], -r4
 3ec:	00000134 	andeq	r0, r0, r4, lsr r1
 3f0:	00000138 	andeq	r0, r0, r8, lsr r1
 3f4:	00000140 	andeq	r0, r0, r0, asr #2
	...
 400:	000000f0 	strdeq	r0, [r0], -r0	; <UNPREDICTABLE>
 404:	000000f0 	strdeq	r0, [r0], -r0	; <UNPREDICTABLE>
 408:	000000f4 	strdeq	r0, [r0], -r4
 40c:	00000134 	andeq	r0, r0, r4, lsr r1
 410:	00000138 	andeq	r0, r0, r8, lsr r1
 414:	00000140 	andeq	r0, r0, r0, asr #2
	...
 420:	00000144 	andeq	r0, r0, r4, asr #2
 424:	00000148 	andeq	r0, r0, r8, asr #2
 428:	00000150 	andeq	r0, r0, r0, asr r1
 42c:	0000015c 	andeq	r0, r0, ip, asr r1
	...

Disassembly of section .debug_line:

00000000 <.debug_line>:
       0:	00000284 	andeq	r0, r0, r4, lsl #5
       4:	00d10003 	sbcseq	r0, r1, r3
       8:	01020000 	mrseq	r0, (UNDEF: 2)
       c:	000d0efb 	strdeq	r0, [sp], -fp
      10:	01010101 	tsteq	r1, r1, lsl #2
      14:	01000000 	mrseq	r0, (UNDEF: 0)
      18:	2f010000 	svccs	0x00010000
      1c:	72657355 	rsbvc	r7, r5, #1409286145	; 0x54000001
      20:	696d2f73 	stmdbvs	sp!, {r0, r1, r4, r5, r6, r8, r9, sl, fp, sp}^
      24:	2f73656c 	svccs	0x0073656c
      28:	72756f53 	rsbsvc	r6, r5, #332	; 0x14c
      2c:	632f6563 			; <UNDEFINED> instruction: 0x632f6563
      30:	30343273 	eorscc	r3, r4, r3, ror r2
      34:	6c2f786c 	stcvs	8, cr7, [pc], #-432	; fffffe8c <__bss_end__+0xffff5c9c>
      38:	69706269 	ldmdbvs	r0!, {r0, r3, r5, r6, r9, sp, lr}^
      3c:	636e692f 	cmnvs	lr, #770048	; 0xbc000
      40:	6564756c 	strbvs	r7, [r4, #-1388]!	; 0xfffffa94
      44:	706f2f00 	rsbvc	r2, pc, r0, lsl #30
      48:	6f682f74 	svcvs	0x00682f74
      4c:	7262656d 	rsbvc	r6, r2, #457179136	; 0x1b400000
      50:	432f7765 			; <UNDEFINED> instruction: 0x432f7765
      54:	616c6c65 	cmnvs	ip, r5, ror #24
      58:	72612f72 	rsbvc	r2, r1, #456	; 0x1c8
      5c:	6f6e2d6d 	svcvs	0x006e2d6d
      60:	652d656e 	strvs	r6, [sp, #-1390]!	; 0xfffffa92
      64:	2d696261 	sfmcs	f6, 2, [r9, #-388]!	; 0xfffffe7c
      68:	2d392f39 	ldccs	15, cr2, [r9, #-228]!	; 0xffffff1c
      6c:	39313032 	ldmdbcc	r1!, {r1, r4, r5, ip, sp}
      70:	632d3471 			; <UNDEFINED> instruction: 0x632d3471
      74:	37303173 			; <UNDEFINED> instruction: 0x37303173
      78:	696c2f65 	stmdbvs	ip!, {r0, r2, r5, r6, r8, r9, sl, fp, sp}^
      7c:	63672f62 	cmnvs	r7, #392	; 0x188
      80:	72612f63 	rsbvc	r2, r1, #396	; 0x18c
      84:	6f6e2d6d 	svcvs	0x006e2d6d
      88:	652d656e 	strvs	r6, [sp, #-1390]!	; 0xfffffa92
      8c:	2f696261 	svccs	0x00696261
      90:	2e322e39 	mrccs	14, 1, r2, cr2, cr9, {1}
      94:	6e692f31 	mcrvs	15, 3, r2, cr9, cr1, {1}
      98:	64756c63 	ldrbtvs	r6, [r5], #-3171	; 0xfffff39d
      9c:	32000065 	andcc	r0, r0, #101, 0	; 0x65
      a0:	7365742d 	cmnvc	r5, #754974720	; 0x2d000000
      a4:	616d2d74 	smcvs	53972	; 0xd2d4
      a8:	636f6c6c 	cmnvs	pc, #108, 24	; 0x6c00
      ac:	0000632e 	andeq	r6, r0, lr, lsr #6
      b0:	70720000 	rsbsvc	r0, r2, r0
      b4:	00682e69 	rsbeq	r2, r8, r9, ror #28
      b8:	6b000001 	blvs	c4 <__code_start__-0x7f3c>
      bc:	616d2d72 	smcvs	53970	; 0xd2d2
      c0:	636f6c6c 	cmnvs	pc, #108, 24	; 0x6c00
      c4:	0000682e 	andeq	r6, r0, lr, lsr #16
      c8:	74730000 	ldrbtvc	r0, [r3], #-0
      cc:	746e6964 	strbtvc	r6, [lr], #-2404	; 0xfffff69c
      d0:	6363672d 	cmnvs	r3, #11796480	; 0xb40000
      d4:	0200682e 	andeq	r6, r0, #3014656	; 0x2e0000
      d8:	05000000 	streq	r0, [r0, #-0]
      dc:	0205002a 	andeq	r0, r5, #42, 0	; 0x2a
      e0:	00008038 	andeq	r8, r0, r8, lsr r0
      e4:	0501061a 	streq	r0, [r1, #-1562]	; 0xfffff9e6
      e8:	05670605 	strbeq	r0, [r7, #-1541]!	; 0xfffff9fb
      ec:	2e010616 	mcrcs	6, 0, r0, cr1, cr6, {0}
      f0:	4c060505 	cfstr32mi	mvfx0, [r6], {5}
      f4:	05010905 	streq	r0, [r1, #-2309]	; 0xfffff6fb
      f8:	0501060d 	streq	r0, [r1, #-1549]	; 0xfffff9f3
      fc:	04020014 	streq	r0, [r2], #-20	; 0xffffffec
     100:	052e0602 	streq	r0, [lr, #-1538]!	; 0xfffff9fe
     104:	04020005 	streq	r0, [r2], #-5
     108:	05010602 	streq	r0, [r1, #-1538]	; 0xfffff9fe
     10c:	054b0609 	strbeq	r0, [fp, #-1545]	; 0xfffff9f7
     110:	0501061a 	streq	r0, [r1, #-1562]	; 0xfffff9e6
     114:	1e052e20 	cdpne	14, 0, cr2, cr5, cr0, {1}
     118:	0609054a 	streq	r0, [r9], -sl, asr #10
     11c:	060c0532 			; <UNDEFINED> instruction: 0x060c0532
     120:	06090501 	streq	r0, [r9], -r1, lsl #10
     124:	0200014b 	andeq	r0, r0, #-1073741806	; 0xc0000012
     128:	05660204 	strbeq	r0, [r6, #-516]!	; 0xfffffdfc
     12c:	0402001b 	streq	r0, [r2], #-27	; 0xffffffe5
     130:	017a0302 	cmneq	sl, r2, lsl #6
     134:	02001c05 	andeq	r1, r0, #1280	; 0x500
     138:	01060204 	tsteq	r6, r4, lsl #4
     13c:	02040200 	andeq	r0, r4, #0, 4
     140:	0009052e 	andeq	r0, r9, lr, lsr #10
     144:	06010402 	streq	r0, [r1], -r2, lsl #8
     148:	04020034 	streq	r0, [r2], #-52	; 0xffffffcc
     14c:	02002e01 	andeq	r2, r0, #1, 28
     150:	90080104 	andls	r0, r8, r4, lsl #2
     154:	01040200 	mrseq	r0, R12_usr
     158:	0d052e06 	stceq	14, cr2, [r5, #-24]	; 0xffffffe8
     15c:	00140515 	andseq	r0, r4, r5, lsl r5
     160:	06020402 	streq	r0, [r2], -r2, lsl #8
     164:	0005052e 	andeq	r0, r5, lr, lsr #10
     168:	06020402 	streq	r0, [r2], -r2, lsl #8
     16c:	06090501 	streq	r0, [r9], -r1, lsl #10
     170:	0200014b 	andeq	r0, r0, #-1073741806	; 0xc0000012
     174:	00820204 	addeq	r0, r2, r4, lsl #4
     178:	01020402 	tsteq	r2, r2, lsl #8
     17c:	02001b05 	andeq	r1, r0, #5120	; 0x1400
     180:	05110204 	ldreq	r0, [r1, #-516]	; 0xfffffdfc
     184:	0402001c 	streq	r0, [r2], #-28	; 0xffffffe4
     188:	00010602 	andeq	r0, r1, r2, lsl #12
     18c:	2e020402 	cdpcs	4, 0, cr0, cr2, cr2, {0}
     190:	02000905 	andeq	r0, r0, #81920	; 0x14000
     194:	2f060104 	svccs	0x00060104
     198:	01040200 	mrseq	r0, R12_usr
     19c:	04020001 	streq	r0, [r2], #-1
     1a0:	002e0601 	eoreq	r0, lr, r1, lsl #12
     1a4:	06010402 	streq	r0, [r1], -r2, lsl #8
     1a8:	040200ba 	streq	r0, [r2], #-186	; 0xffffff46
     1ac:	052e0601 	streq	r0, [lr, #-1537]!	; 0xfffff9ff
     1b0:	052e140d 	streq	r1, [lr, #-1037]!	; 0xfffffbf3
     1b4:	04020009 	streq	r0, [r2], #-9
     1b8:	052f0603 	streq	r0, [pc, #-1539]!	; fffffbbd <__bss_end__+0xffff59cd>
     1bc:	0402001b 	streq	r0, [r2], #-27	; 0xffffffe5
     1c0:	1c054903 			; <UNDEFINED> instruction: 0x1c054903
     1c4:	03040200 	movweq	r0, #16896	; 0x4200
     1c8:	14050106 	strne	r0, [r5], #-262	; 0xfffffefa
     1cc:	01040200 	mrseq	r0, R12_usr
     1d0:	05052e06 	streq	r2, [r5, #-3590]	; 0xfffff1fa
     1d4:	01040200 	mrseq	r0, R12_usr
     1d8:	4c060106 	stfmis	f0, [r6], {6}
     1dc:	0601054c 	streq	r0, [r1], -ip, asr #10
     1e0:	14056613 	strne	r6, [r5], #-1555	; 0xfffff9ed
     1e4:	02050006 	andeq	r0, r5, #6, 0
     1e8:	0000814c 	andeq	r8, r0, ip, asr #2
     1ec:	4b050514 	blmi	141644 <__bss_end__+0x137454>
     1f0:	10051414 	andne	r1, r5, r4, lsl r4
     1f4:	05050106 	streq	r0, [r5, #-262]	; 0xfffffefa
     1f8:	05136706 	ldreq	r6, [r3, #-1798]	; 0xfffff8fa
     1fc:	0d050109 	stfeqs	f0, [r5, #-36]	; 0xffffffdc
     200:	14050106 	strne	r0, [r5], #-262	; 0xfffffefa
     204:	02040200 	andeq	r0, r4, #0, 4
     208:	05052e06 	streq	r2, [r5, #-3590]	; 0xfffff1fa
     20c:	02040200 	andeq	r0, r4, #0, 4
     210:	09050106 	stmdbeq	r5, {r1, r2, r8}
     214:	14054b06 	strne	r4, [r5], #-2822	; 0xfffff4fa
     218:	09050106 	stmdbeq	r5, {r1, r2, r8}
     21c:	00014d06 	andeq	r4, r1, r6, lsl #26
     220:	4a020402 	bmi	81230 <__bss_end__+0x77040>
     224:	02040200 	andeq	r0, r4, #0, 4
     228:	04020001 	streq	r0, [r2], #-1
     22c:	02001302 	andeq	r1, r0, #134217728	; 0x8000000
     230:	00010204 	andeq	r0, r1, r4, lsl #4
     234:	06020402 	streq	r0, [r2], -r2, lsl #8
     238:	0402002e 	streq	r0, [r2], #-46	; 0xffffffd2
     23c:	002e0602 	eoreq	r0, lr, r2, lsl #12
     240:	66020402 	strvs	r0, [r2], -r2, lsl #8
     244:	02002005 	andeq	r2, r0, #5, 0
     248:	050d0204 	streq	r0, [sp, #-516]	; 0xfffffdfc
     24c:	04020021 	streq	r0, [r2], #-33	; 0xffffffdf
     250:	00010602 	andeq	r0, r1, r2, lsl #12
     254:	2e020402 	cdpcs	4, 0, cr0, cr2, cr2, {0}
     258:	02000905 	andeq	r0, r0, #81920	; 0x14000
     25c:	32060104 	andcc	r0, r6, #1
     260:	01040200 	mrseq	r0, R12_usr
     264:	04020001 	streq	r0, [r2], #-1
     268:	00ba0601 	adcseq	r0, sl, r1, lsl #12
     26c:	06010402 	streq	r0, [r1], -r2, lsl #8
     270:	0402002e 	streq	r0, [r2], #-46	; 0xffffffd2
     274:	052e0601 	streq	r0, [lr, #-1537]!	; 0xfffff9ff
     278:	01150605 	tsteq	r5, r5, lsl #12
     27c:	01054a4a 	tsteq	r5, sl, asr #20
     280:	024a1306 	subeq	r1, sl, #402653184	; 0x18000000
     284:	0101000e 	tsteq	r1, lr
     288:	00000227 	andeq	r0, r0, r7, lsr #4
     28c:	00640003 	rsbeq	r0, r4, r3
     290:	01020000 	mrseq	r0, (UNDEF: 2)
     294:	000d0efb 	strdeq	r0, [sp], -fp
     298:	01010101 	tsteq	r1, r1, lsl #2
     29c:	01000000 	mrseq	r0, (UNDEF: 0)
     2a0:	2f010000 	svccs	0x00010000
     2a4:	72657355 	rsbvc	r7, r5, #1409286145	; 0x54000001
     2a8:	696d2f73 	stmdbvs	sp!, {r0, r1, r4, r5, r6, r8, r9, sl, fp, sp}^
     2ac:	2f73656c 	svccs	0x0073656c
     2b0:	72756f53 	rsbsvc	r6, r5, #332	; 0x14c
     2b4:	632f6563 			; <UNDEFINED> instruction: 0x632f6563
     2b8:	30343273 	eorscc	r3, r4, r3, ror r2
     2bc:	6c2f786c 	stcvs	8, cr7, [pc], #-432	; 114 <__code_start__-0x7eec>
     2c0:	69706269 	ldmdbvs	r0!, {r0, r3, r5, r6, r9, sp, lr}^
     2c4:	636e692f 	cmnvs	lr, #770048	; 0xbc000
     2c8:	6564756c 	strbvs	r7, [r4, #-1388]!	; 0xfffffa94
     2cc:	726b0000 	rsbvc	r0, fp, #0, 0
     2d0:	6c616d2d 	stclvs	13, cr6, [r1], #-180	; 0xffffff4c
     2d4:	2e636f6c 	cdpcs	15, 6, cr6, cr3, cr12, {3}
     2d8:	00000063 	andeq	r0, r0, r3, rrx
     2dc:	69707200 	ldmdbvs	r0!, {r9, ip, sp, lr}^
     2e0:	0100682e 	tsteq	r0, lr, lsr #16
     2e4:	726b0000 	rsbvc	r0, fp, #0, 0
     2e8:	6c616d2d 	stclvs	13, cr6, [r1], #-180	; 0xffffff4c
     2ec:	2e636f6c 	cdpcs	15, 6, cr6, cr3, cr12, {3}
     2f0:	00000068 	andeq	r0, r0, r8, rrx
     2f4:	01050000 	mrseq	r0, (UNDEF: 5)
     2f8:	ec020500 	cfstr32	mvfx0, [r2], {-0}
     2fc:	03000081 	movweq	r0, #129	; 0x81
     300:	060100d2 			; <UNDEFINED> instruction: 0x060100d2
     304:	06020501 	streq	r0, [r2], -r1, lsl #10
     308:	0505132f 	streq	r1, [r5, #-815]	; 0xfffffcd1
     30c:	02050106 	andeq	r0, r5, #-2147483647	; 0x80000001
     310:	09052f06 	stmdbeq	r5, {r1, r2, r8, r9, sl, fp, sp}
     314:	02050106 	andeq	r0, r5, #-2147483647	; 0x80000001
     318:	12052e4a 	andne	r2, r5, #1184	; 0x4a0
     31c:	01040200 	mrseq	r0, R12_usr
     320:	02052e06 	andeq	r2, r5, #96	; 0x60
     324:	01040200 	mrseq	r0, R12_usr
     328:	27050106 	strcs	r0, [r5, -r6, lsl #2]
     32c:	03040200 	movweq	r0, #16896	; 0x4200
     330:	0012054a 	andseq	r0, r2, sl, asr #10
     334:	2e030402 	cdpcs	4, 0, cr0, cr3, cr2, {0}
     338:	4b060305 	blmi	180f54 <__bss_end__+0x176d64>
     33c:	01061005 	tsteq	r6, r5
     340:	052e0605 	streq	r0, [lr, #-1541]!	; 0xfffff9fb
     344:	04020015 	streq	r0, [r2], #-21	; 0xffffffeb
     348:	20054a01 	andcs	r4, r5, r1, lsl #20
     34c:	02040200 	andeq	r0, r4, #0, 4
     350:	0402004a 	streq	r0, [r2], #-74	; 0xffffffb6
     354:	02054a02 	andeq	r4, r5, #8192	; 0x2000
     358:	10053006 	andne	r3, r5, r6
     35c:	09050106 	stmdbeq	r5, {r1, r2, r8}
     360:	2e1d052e 	cfmul64cs	mvdx0, mvdx13, mvdx14
     364:	052e0505 	streq	r0, [lr, #-1285]!	; 0xfffffafb
     368:	05500603 	ldrbeq	r0, [r0, #-1539]	; 0xfffff9fd
     36c:	0501060d 	streq	r0, [r1, #-1549]	; 0xfffff9f3
     370:	052f0602 	streq	r0, [pc, #-1538]!	; fffffd76 <__bss_end__+0xffff5b86>
     374:	0501060e 	streq	r0, [r1, #-1550]	; 0xfffff9f2
     378:	05052e08 	streq	r2, [r5, #-3592]	; 0xfffff1f8
     37c:	0603052e 	streq	r0, [r3], -lr, lsr #10
     380:	060c0550 			; <UNDEFINED> instruction: 0x060c0550
     384:	06020501 	streq	r0, [r2], -r1, lsl #10
     388:	0608052f 	streq	r0, [r8], -pc, lsr #10
     38c:	4b010501 	blmi	41798 <__bss_end__+0x375a8>
     390:	03060305 	movweq	r0, #25349	; 0x6305
     394:	1c052e73 	stcne	14, cr2, [r5], {115}	; 0x73
     398:	0e050106 	adfeqs	f0, f5, f6
     39c:	0603052e 	streq	r0, [r3], -lr, lsr #10
     3a0:	0613054b 	ldreq	r0, [r3], -fp, asr #10
     3a4:	2e1a0501 	cfmul32cs	mvfx0, mvfx10, mvfx1
     3a8:	052e0d05 	streq	r0, [lr, #-3333]!	; 0xfffff2fb
     3ac:	05500603 	ldrbeq	r0, [r0, #-1539]	; 0xfffff9fd
     3b0:	05010615 	streq	r0, [r1, #-1557]	; 0xfffff9eb
     3b4:	03052e0d 	movweq	r2, #24077	; 0x5e0d
     3b8:	13054b06 	movwne	r4, #23302	; 0x5b06
     3bc:	0c050106 	stfeqs	f0, [r5], {6}
     3c0:	0601052e 	streq	r0, [r1], -lr, lsr #10
     3c4:	667fba03 	ldrbtvs	fp, [pc], -r3, lsl #20
     3c8:	02050106 	andeq	r0, r5, #-2147483647	; 0x80000001
     3cc:	05054b06 	streq	r4, [r5, #-2822]	; 0xfffff4fa
     3d0:	06050106 	streq	r0, [r5], -r6, lsl #2
     3d4:	0602052f 	streq	r0, [r2], -pc, lsr #10
     3d8:	060d052f 	streq	r0, [sp], -pc, lsr #10
     3dc:	06020501 	streq	r0, [r2], -r1, lsl #10
     3e0:	0605054b 	streq	r0, [r5], -fp, asr #10
     3e4:	06020501 	streq	r0, [r2], -r1, lsl #10
     3e8:	0d05134c 	stceq	3, cr1, [r5, #-304]	; 0xfffffed0
     3ec:	02050106 	andeq	r0, r5, #-2147483647	; 0x80000001
     3f0:	2e062f06 	cdpcs	15, 0, cr2, cr6, cr6, {0}
     3f4:	09052f06 	stmdbeq	r5, {r1, r2, r8, r9, sl, fp, sp}
     3f8:	0a050106 	beq	140818 <__bss_end__+0x136628>
     3fc:	33010562 	movwcc	r0, #5474	; 0x1562
     400:	01064e06 	tsteq	r6, r6, lsl #28
     404:	2f060205 	svccs	0x00060205
     408:	24051413 	strcs	r1, [r5], #-1043	; 0xfffffbed
     40c:	29050106 	stmdbcs	r5, {r1, r2, r8}
     410:	2e09052e 	cfsh32cs	mvfx0, mvfx9, #30
     414:	2f060205 	svccs	0x00060205
     418:	01060d05 	tsteq	r6, r5, lsl #26
     41c:	054a0505 	strbeq	r0, [sl, #-1285]	; 0xfffffafb
     420:	05500602 	ldrbeq	r0, [r0, #-1538]	; 0xfffff9fe
     424:	2e010609 	cfmadd32cs	mvax0, mvfx0, mvfx1, mvfx9
     428:	2a060305 	bcs	181044 <__bss_end__+0x176e54>
     42c:	01061605 	tsteq	r6, r5, lsl #12
     430:	054a0e05 	strbeq	r0, [sl, #-3589]	; 0xfffff1fb
     434:	052f0603 	streq	r0, [pc, #-1539]!	; fffffe39 <__bss_end__+0xffff5c49>
     438:	0501060f 	streq	r0, [r1, #-1551]	; 0xfffff9f1
     43c:	056d0604 	strbeq	r0, [sp, #-1540]!	; 0xfffff9fc
     440:	05010607 	streq	r0, [r1, #-1543]	; 0xfffff9f9
     444:	05340605 	ldreq	r0, [r4, #-1541]!	; 0xfffff9fb
     448:	0501060f 	streq	r0, [r1, #-1551]	; 0xfffff9f1
     44c:	054b0605 	strbeq	r0, [fp, #-1541]	; 0xfffff9fb
     450:	05010607 	streq	r0, [r1, #-1543]	; 0xfffff9f9
     454:	052f0605 	streq	r0, [pc, #-1541]!	; fffffe57 <__bss_end__+0xffff5c67>
     458:	0501060f 	streq	r0, [r1, #-1551]	; 0xfffff9f1
     45c:	05300604 	ldreq	r0, [r0, #-1540]!	; 0xfffff9fc
     460:	0501060a 	streq	r0, [r1, #-1546]	; 0xfffff9f6
     464:	054b0604 	strbeq	r0, [fp, #-1540]	; 0xfffff9fc
     468:	2e01060b 	cfmadd32cs	mvax0, mvfx0, mvfx1, mvfx11
     46c:	03060505 	movweq	r0, #25861	; 0x6505
     470:	18052e77 	stmdane	r5, {r0, r1, r2, r4, r5, r6, r9, sl, fp, sp}
     474:	12050106 	andne	r0, r5, #-2147483647	; 0x80000001
     478:	061a052e 	ldreq	r0, [sl], -lr, lsr #10
     47c:	054a7a03 	strbeq	r7, [sl, #-2563]	; 0xfffff5fd
     480:	20050118 	andcs	r0, r5, r8, lsl r1
     484:	27050106 	strcs	r0, [r5, -r6, lsl #2]
     488:	0603052e 	streq	r0, [r3], -lr, lsr #10
     48c:	060b0530 			; <UNDEFINED> instruction: 0x060b0530
     490:	2e060501 	cfsh32cs	mvfx0, mvfx6, #1
     494:	03060305 	movweq	r0, #25349	; 0x6305
     498:	09054a0f 	stmdbeq	r5, {r0, r1, r2, r3, r9, fp, lr}
     49c:	06050106 	streq	r0, [r5], -r6, lsl #2
     4a0:	0604054a 	streq	r0, [r4], -sl, asr #10
     4a4:	060d054c 	streq	r0, [sp], -ip, asr #10
     4a8:	07052e01 	streq	r2, [r5, -r1, lsl #28]
     4ac:	06022e2e 	streq	r2, [r2], -lr, lsr #28
     4b0:	75010100 	strvc	r0, [r1, #-256]	; 0xffffff00
     4b4:	03000000 	movweq	r0, #0
     4b8:	00005300 	andeq	r5, r0, r0, lsl #6
     4bc:	fb010200 	blx	40cc6 <__bss_end__+0x36ad6>
     4c0:	01000d0e 	tsteq	r0, lr, lsl #26
     4c4:	00010101 	andeq	r0, r1, r1, lsl #2
     4c8:	00010000 	andeq	r0, r1, r0
     4cc:	552f0100 	strpl	r0, [pc, #-256]!	; 3d4 <__code_start__-0x7c2c>
     4d0:	73726573 	cmnvc	r2, #482344960	; 0x1cc00000
     4d4:	6c696d2f 	stclvs	13, cr6, [r9], #-188	; 0xffffff44
     4d8:	532f7365 			; <UNDEFINED> instruction: 0x532f7365
     4dc:	6372756f 	cmnvs	r2, #465567744	; 0x1bc00000
     4e0:	73632f65 	cmnvc	r3, #404	; 0x194
     4e4:	6c303432 	cfldrsvs	mvf3, [r0], #-200	; 0xffffff38
     4e8:	696c2f78 	stmdbvs	ip!, {r3, r4, r5, r6, r8, r9, sl, fp, sp}^
     4ec:	2f697062 	svccs	0x00697062
     4f0:	6c636e69 	stclvs	14, cr6, [r3], #-420	; 0xfffffe5c
     4f4:	00656475 	rsbeq	r6, r5, r5, ror r4
     4f8:	2d697000 	stclcs	0, cr7, [r9, #-0]
     4fc:	6b726273 	blvs	1c98ed0 <__bss_end__+0x1c8ece0>
     500:	0000632e 	andeq	r6, r0, lr, lsr #6
     504:	70720000 	rsbsvc	r0, r2, r0
     508:	00682e69 	rsbeq	r2, r8, r9, ror #28
     50c:	00000001 	andeq	r0, r0, r1
     510:	05001c05 	streq	r1, [r0, #-3077]	; 0xfffff3fb
     514:	00839802 	addeq	r9, r3, r2, lsl #16
     518:	01061500 	tsteq	r6, r0, lsl #10
     51c:	2f060505 	svccs	0x00060505
     520:	01060c05 	tsteq	r6, r5, lsl #24
     524:	022f0105 	eoreq	r0, pc, #1073741825	; 0x40000001
     528:	01010002 	tsteq	r1, r2
     52c:	00000120 	andeq	r0, r0, r0, lsr #2
     530:	00db0003 	sbcseq	r0, fp, r3
     534:	01020000 	mrseq	r0, (UNDEF: 2)
     538:	000d0efb 	strdeq	r0, [sp], -fp
     53c:	01010101 	tsteq	r1, r1, lsl #2
     540:	01000000 	mrseq	r0, (UNDEF: 0)
     544:	2e010000 	cdpcs	0, 0, cr0, cr1, cr0, {0}
     548:	62696c2f 	rsbvs	r6, r9, #12032	; 0x2f00
     54c:	6f2f0063 	svcvs	0x002f0063
     550:	682f7470 	stmdavs	pc!, {r4, r5, r6, sl, ip, sp, lr}	; <UNPREDICTABLE>
     554:	62656d6f 	rsbvs	r6, r5, #7104	; 0x1bc0
     558:	2f776572 	svccs	0x00776572
     55c:	6c6c6543 	cfstr64vs	mvdx6, [ip], #-268	; 0xfffffef4
     560:	612f7261 			; <UNDEFINED> instruction: 0x612f7261
     564:	6e2d6d72 	mcrvs	13, 1, r6, cr13, cr2, {3}
     568:	2d656e6f 	stclcs	14, cr6, [r5, #-444]!	; 0xfffffe44
     56c:	69626165 	stmdbvs	r2!, {r0, r2, r5, r6, r8, sp, lr}^
     570:	392f392d 	stmdbcc	pc!, {r0, r2, r3, r5, r8, fp, ip, sp}	; <UNPREDICTABLE>
     574:	3130322d 	teqcc	r0, sp, lsr #4
     578:	2d347139 	ldfcss	f7, [r4, #-228]!	; 0xffffff1c
     57c:	30317363 	eorscc	r7, r1, r3, ror #6
     580:	6c2f6537 	cfstr32vs	mvfx6, [pc], #-220	; 4ac <__code_start__-0x7b54>
     584:	672f6269 	strvs	r6, [pc, -r9, ror #4]!
     588:	612f6363 			; <UNDEFINED> instruction: 0x612f6363
     58c:	6e2d6d72 	mcrvs	13, 1, r6, cr13, cr2, {3}
     590:	2d656e6f 	stclcs	14, cr6, [r5, #-444]!	; 0xfffffe44
     594:	69626165 	stmdbvs	r2!, {r0, r2, r5, r6, r8, sp, lr}^
     598:	322e392f 	eorcc	r3, lr, #770048	; 0xbc000
     59c:	692f312e 	stmdbvs	pc!, {r1, r2, r3, r5, r8, ip, sp}	; <UNPREDICTABLE>
     5a0:	756c636e 	strbvc	r6, [ip, #-878]!	; 0xfffffc92
     5a4:	2f006564 	svccs	0x00006564
     5a8:	72657355 	rsbvc	r7, r5, #1409286145	; 0x54000001
     5ac:	696d2f73 	stmdbvs	sp!, {r0, r1, r4, r5, r6, r8, r9, sl, fp, sp}^
     5b0:	2f73656c 	svccs	0x0073656c
     5b4:	72756f53 	rsbsvc	r6, r5, #332	; 0x14c
     5b8:	632f6563 			; <UNDEFINED> instruction: 0x632f6563
     5bc:	30343273 	eorscc	r3, r4, r3, ror r2
     5c0:	6c2f786c 	stcvs	8, cr7, [pc], #-432	; 418 <__code_start__-0x7be8>
     5c4:	69706269 	ldmdbvs	r0!, {r0, r3, r5, r6, r9, sp, lr}^
     5c8:	636e692f 	cmnvs	lr, #770048	; 0xbc000
     5cc:	6564756c 	strbvs	r7, [r4, #-1388]!	; 0xfffffa94
     5d0:	72700000 	rsbsvc	r0, r0, #0, 0
     5d4:	6b746e69 	blvs	1d1bf80 <__bss_end__+0x1d11d90>
     5d8:	0100632e 	tsteq	r0, lr, lsr #6
     5dc:	74730000 	ldrbtvc	r0, [r3], #-0
     5e0:	67726164 	ldrbvs	r6, [r2, -r4, ror #2]!
     5e4:	0200682e 	andeq	r6, r0, #3014656	; 0x2e0000
     5e8:	70720000 	rsbsvc	r0, r2, r0
     5ec:	00682e69 	rsbeq	r2, r8, r9, ror #28
     5f0:	3c000003 	stccc	0, cr0, [r0], {3}
     5f4:	6c697562 	cfstr64vs	mvdx7, [r9], #-392	; 0xfffffe78
     5f8:	6e692d74 	mcrvs	13, 3, r2, cr9, cr4, {3}
     5fc:	0000003e 	andeq	r0, r0, lr, lsr r0
     600:	2d617600 	stclcs	6, cr7, [r1, #-0]
     604:	6e697270 	mcrvs	2, 3, r7, cr9, cr0, {3}
     608:	682e6b74 	stmdavs	lr!, {r2, r4, r5, r6, r8, r9, fp, sp, lr}
     60c:	00000100 	andeq	r0, r0, r0, lsl #2
     610:	00220500 	eoreq	r0, r2, r0, lsl #10
     614:	83a40205 			; <UNDEFINED> instruction: 0x83a40205
     618:	05170000 	ldreq	r0, [r7, #-0]
     61c:	14131405 	ldrne	r1, [r3], #-1029	; 0xfffffbfb
     620:	0d062205 	sfmeq	f2, 4, [r6, #-20]	; 0xffffffec
     624:	05501205 	ldrbeq	r1, [r0, #-517]	; 0xfffffdfb
     628:	2e7a0322 	cdpcs	3, 7, cr0, cr10, cr2, {1}
     62c:	05330505 	ldreq	r0, [r3, #-1285]!	; 0xfffffafb
     630:	05052f12 	streq	r2, [r5, #-3858]	; 0xfffff0ee
     634:	06090565 	streq	r0, [r9], -r5, ror #10
     638:	0612052f 	ldreq	r0, [r2], -pc, lsr #10
     63c:	06050501 	streq	r0, [r5], -r1, lsl #10
     640:	4a06164b 	bmi	185f74 <__bss_end__+0x17bd84>
     644:	01055006 	tsteq	r5, r6
     648:	02661306 	rsbeq	r1, r6, #402653184	; 0x18000000
     64c:	01010008 	tsteq	r1, r8
     650:	0000009e 	muleq	r0, lr, r0
     654:	005a0003 	subseq	r0, sl, r3
     658:	01020000 	mrseq	r0, (UNDEF: 2)
     65c:	000d0efb 	strdeq	r0, [sp], -fp
     660:	01010101 	tsteq	r1, r1, lsl #2
     664:	01000000 	mrseq	r0, (UNDEF: 0)
     668:	2e010000 	cdpcs	0, 0, cr0, cr1, cr0, {0}
     66c:	62696c2f 	rsbvs	r6, r9, #12032	; 0x2f00
     670:	552f0063 	strpl	r0, [pc, #-99]!	; 615 <__code_start__-0x79eb>
     674:	73726573 	cmnvc	r2, #482344960	; 0x1cc00000
     678:	6c696d2f 	stclvs	13, cr6, [r9], #-188	; 0xffffff44
     67c:	532f7365 			; <UNDEFINED> instruction: 0x532f7365
     680:	6372756f 	cmnvs	r2, #465567744	; 0x1bc00000
     684:	73632f65 	cmnvc	r3, #404	; 0x194
     688:	6c303432 	cfldrsvs	mvf3, [r0], #-200	; 0xffffff38
     68c:	696c2f78 	stmdbvs	ip!, {r3, r4, r5, r6, r8, r9, sl, fp, sp}^
     690:	2f697062 	svccs	0x00697062
     694:	6c636e69 	stclvs	14, cr6, [r3], #-420	; 0xfffffe5c
     698:	00656475 	rsbeq	r6, r5, r5, ror r4
     69c:	74757000 	ldrbtvc	r7, [r5], #-0
     6a0:	72616863 	rsbvc	r6, r1, #6488064	; 0x630000
     6a4:	0100632e 	tsteq	r0, lr, lsr #6
     6a8:	70720000 	rsbsvc	r0, r2, r0
     6ac:	00682e69 	rsbeq	r2, r8, r9, ror #28
     6b0:	00000002 	andeq	r0, r0, r2
     6b4:	05002405 	streq	r2, [r0, #-1029]	; 0xfffffbfb
     6b8:	0083fc02 	addeq	pc, r3, r2, lsl #24
     6bc:	26051400 	strcs	r1, [r5], -r0, lsl #8
     6c0:	06240501 	strteq	r0, [r4], -r1, lsl #10
     6c4:	26052e01 	strcs	r2, [r5], -r1, lsl #28
     6c8:	0634052e 	ldrteq	r0, [r4], -lr, lsr #10
     6cc:	0601052e 	streq	r0, [r1], -lr, lsr #10
     6d0:	061b0501 	ldreq	r0, [fp], -r1, lsl #10
     6d4:	1305054f 	movwne	r0, #21839	; 0x554f
     6d8:	01061105 	tsteq	r6, r5, lsl #2
     6dc:	05670105 	strbeq	r0, [r7, #-261]!	; 0xfffffefb
     6e0:	05670623 	strbeq	r0, [r7, #-1571]!	; 0xfffff9dd
     6e4:	11051305 	tstne	r5, r5, lsl #6
     6e8:	01050106 	tsteq	r5, r6, lsl #2
     6ec:	0004024b 	andeq	r0, r4, fp, asr #4
     6f0:	00a00101 	adceq	r0, r0, r1, lsl #2
     6f4:	00030000 	andeq	r0, r3, r0
     6f8:	00000057 	andeq	r0, r0, r7, asr r0
     6fc:	0efb0102 	cdpeq	1, 15, cr0, cr11, cr2, {0}
     700:	0101000d 	tsteq	r1, sp
     704:	00000101 	andeq	r0, r0, r1, lsl #2
     708:	00000100 	andeq	r0, r0, r0, lsl #2
     70c:	6c2f2e01 	stcvs	14, cr2, [pc], #-4	; 710 <__code_start__-0x78f0>
     710:	00636269 	rsbeq	r6, r3, r9, ror #4
     714:	6573552f 	ldrbvs	r5, [r3, #-1327]!	; 0xfffffad1
     718:	6d2f7372 	stcvs	3, cr7, [pc, #-456]!	; 558 <__code_start__-0x7aa8>
     71c:	73656c69 	cmnvc	r5, #26880	; 0x6900
     720:	756f532f 	strbvc	r5, [pc, #-815]!	; 3f9 <__code_start__-0x7c07>
     724:	2f656372 	svccs	0x00656372
     728:	34327363 	ldrtcc	r7, [r2], #-867	; 0xfffffc9d
     72c:	2f786c30 	svccs	0x00786c30
     730:	7062696c 	rsbvc	r6, r2, ip, ror #18
     734:	6e692f69 	cdpvs	15, 6, cr2, cr9, cr9, {3}
     738:	64756c63 	ldrbtvs	r6, [r5], #-3171	; 0xfffff39d
     73c:	70000065 	andvc	r0, r0, r5, rrx
     740:	2e6b7475 	mcrcs	4, 3, r7, cr11, cr5, {3}
     744:	00010063 	andeq	r0, r1, r3, rrx
     748:	69707200 	ldmdbvs	r0!, {r9, ip, sp, lr}^
     74c:	0200682e 	andeq	r6, r0, #3014656	; 0x2e0000
     750:	05000000 	streq	r0, [r0, #-0]
     754:	02050022 	andeq	r0, r5, #34, 0	; 0x22
     758:	00008438 	andeq	r8, r0, r8, lsr r4
     75c:	13050515 	movwne	r0, #21781	; 0x5515
     760:	11062205 	tstne	r6, r5, lsl #4
     764:	060b052e 	streq	r0, [fp], -lr, lsr #10
     768:	0605052f 	streq	r0, [r5], -pc, lsr #10
     76c:	0009052e 	andeq	r0, r9, lr, lsr #10
     770:	06020402 	streq	r0, [r2], -r2, lsl #8
     774:	000f0567 	andeq	r0, pc, r7, ror #10
     778:	49020402 	stmdbmi	r2, {r1, sl}
     77c:	02000b05 	andeq	r0, r0, #5120	; 0x1400
     780:	05010204 	streq	r0, [r1, #-516]	; 0xfffffdfc
     784:	04020005 	streq	r0, [r2], #-5
     788:	062e0602 	strteq	r0, [lr], -r2, lsl #12
     78c:	0601054e 	streq	r0, [r1], -lr, asr #10
     790:	00060213 	andeq	r0, r6, r3, lsl r2
     794:	08fa0101 	ldmeq	sl!, {r0, r8}^
     798:	00030000 	andeq	r0, r3, r0
     79c:	000000f1 	strdeq	r0, [r0], -r1
     7a0:	0efb0102 	cdpeq	1, 15, cr0, cr11, cr2, {0}
     7a4:	0101000d 	tsteq	r1, sp
     7a8:	00000101 	andeq	r0, r0, r1, lsl #2
     7ac:	00000100 	andeq	r0, r0, r0, lsl #2
     7b0:	6c2f2e01 	stcvs	14, cr2, [pc], #-4	; 7b4 <__code_start__-0x784c>
     7b4:	00636269 	rsbeq	r6, r3, r9, ror #4
     7b8:	74706f2f 	ldrbtvc	r6, [r0], #-3887	; 0xfffff0d1
     7bc:	6d6f682f 	stclvs	8, cr6, [pc, #-188]!	; 708 <__code_start__-0x78f8>
     7c0:	65726265 	ldrbvs	r6, [r2, #-613]!	; 0xfffffd9b
     7c4:	65432f77 	strbvs	r2, [r3, #-3959]	; 0xfffff089
     7c8:	72616c6c 	rsbvc	r6, r1, #108, 24	; 0x6c00
     7cc:	6d72612f 	ldfvse	f6, [r2, #-188]!	; 0xffffff44
     7d0:	6e6f6e2d 	cdpvs	14, 6, cr6, cr15, cr13, {1}
     7d4:	61652d65 	cmnvs	r5, r5, ror #26
     7d8:	392d6962 	pushcc	{r1, r5, r6, r8, fp, sp, lr}
     7dc:	322d392f 	eorcc	r3, sp, #770048	; 0xbc000
     7e0:	71393130 	teqvc	r9, r0, lsr r1
     7e4:	73632d34 	cmnvc	r3, #52, 26	; 0xd00
     7e8:	65373031 	ldrvs	r3, [r7, #-49]!	; 0xffffffcf
     7ec:	62696c2f 	rsbvs	r6, r9, #12032	; 0x2f00
     7f0:	6363672f 	cmnvs	r3, #12320768	; 0xbc0000
     7f4:	6d72612f 	ldfvse	f6, [r2, #-188]!	; 0xffffff44
     7f8:	6e6f6e2d 	cdpvs	14, 6, cr6, cr15, cr13, {1}
     7fc:	61652d65 	cmnvs	r5, r5, ror #26
     800:	392f6962 	stmdbcc	pc!, {r1, r5, r6, r8, fp, sp, lr}	; <UNPREDICTABLE>
     804:	312e322e 			; <UNDEFINED> instruction: 0x312e322e
     808:	636e692f 	cmnvs	lr, #770048	; 0xbc000
     80c:	6564756c 	strbvs	r7, [r4, #-1388]!	; 0xfffffa94
     810:	73552f00 	cmpvc	r5, #0, 30
     814:	2f737265 	svccs	0x00737265
     818:	656c696d 	strbvs	r6, [ip, #-2413]!	; 0xfffff693
     81c:	6f532f73 	svcvs	0x00532f73
     820:	65637275 	strbvs	r7, [r3, #-629]!	; 0xfffffd8b
     824:	3273632f 	rsbscc	r6, r3, #-1140850688	; 0xbc000000
     828:	786c3034 	stmdavc	ip!, {r2, r4, r5, ip, sp}^
     82c:	62696c2f 	rsbvs	r6, r9, #12032	; 0x2f00
     830:	692f6970 	stmdbvs	pc!, {r4, r5, r6, r8, fp, sp, lr}	; <UNPREDICTABLE>
     834:	756c636e 	strbvc	r6, [ip, #-878]!	; 0xfffffc92
     838:	00006564 	andeq	r6, r0, r4, ror #10
     83c:	702d6176 	eorvc	r6, sp, r6, ror r1
     840:	746e6972 	strbtvc	r6, [lr], #-2418	; 0xfffff68e
     844:	00632e6b 	rsbeq	r2, r3, fp, ror #28
     848:	73000001 	movwvc	r0, #1
     84c:	6e696474 	mcrvs	4, 3, r6, cr9, cr4, {3}
     850:	63672d74 	cmnvs	r7, #116, 26	; 0x1d00
     854:	00682e63 	rsbeq	r2, r8, r3, ror #28
     858:	72000002 	andvc	r0, r0, #2, 0
     85c:	682e6970 	stmdavs	lr!, {r4, r5, r6, r8, fp, sp, lr}
     860:	00000300 	andeq	r0, r0, r0, lsl #6
     864:	2d697072 	stclcs	0, cr7, [r9, #-456]!	; 0xfffffe38
     868:	65746e69 	ldrbvs	r6, [r4, #-3689]!	; 0xfffff197
     86c:	6c616e72 	stclvs	14, cr6, [r1], #-456	; 0xfffffe38
     870:	0300682e 	movweq	r6, #2094	; 0x82e
     874:	74730000 	ldrbtvc	r0, [r3], #-0
     878:	67726164 	ldrbvs	r6, [r2, -r4, ror #2]!
     87c:	0200682e 	andeq	r6, r0, #3014656	; 0x2e0000
     880:	623c0000 	eorsvs	r0, ip, #0, 0
     884:	746c6975 	strbtvc	r6, [ip], #-2421	; 0xfffff68b
     888:	3e6e692d 	vmulcc.f16	s13, s28, s27	; <UNPREDICTABLE>
     88c:	00000000 	andeq	r0, r0, r0
     890:	00010500 	andeq	r0, r1, r0, lsl #10
     894:	84700205 	ldrbthi	r0, [r0], #-517	; 0xfffffdfb
     898:	c8030000 	stmdagt	r3, {}	; <UNPREDICTABLE>
     89c:	02050100 	andeq	r0, r5, #0
     8a0:	06010514 			; <UNDEFINED> instruction: 0x06010514
     8a4:	30040510 	andcc	r0, r4, r0, lsl r5
     8a8:	4a2c0105 	bmi	b00cc4 <__bss_end__+0xaf6ad4>
     8ac:	05300405 	ldreq	r0, [r0, #-1029]!	; 0xfffffbfb
     8b0:	13310602 	teqne	r1, #2097152	; 0x200000
     8b4:	2e060b05 	vmlacs.f64	d0, d6, d5
     8b8:	30060205 	andcc	r0, r6, r5, lsl #4
     8bc:	02060905 	andeq	r0, r6, #81920	; 0x14000
     8c0:	2e2e0d24 	cdpcs	13, 2, cr0, cr14, cr4, {1}
     8c4:	03060d05 	movweq	r0, #27909	; 0x6d05
     8c8:	11054a17 	tstne	r5, r7, lsl sl
     8cc:	062d0513 			; <UNDEFINED> instruction: 0x062d0513
     8d0:	2e160501 	cfmul32cs	mvfx0, mvfx6, mvfx1
     8d4:	052f0d05 	streq	r0, [pc, #-3333]!	; fffffbd7 <__bss_end__+0xffff59e7>
     8d8:	14052d16 	strne	r2, [r5], #-3350	; 0xfffff2ea
     8dc:	17052f06 	strne	r2, [r5, -r6, lsl #30]
     8e0:	0d050106 	stfeqs	f0, [r5, #-24]	; 0xffffffe8
     8e4:	052f062e 	streq	r0, [pc, #-1582]!	; 2be <__code_start__-0x7d42>
     8e8:	2e010612 	mcrcs	6, 0, r0, cr1, cr2, {0}
     8ec:	0d052d2f 	stceq	13, cr2, [r5, #-188]	; 0xffffff44
     8f0:	12052f06 	andne	r2, r5, #6, 30
     8f4:	19050106 	stmdbne	r5, {r1, r2, r8}
     8f8:	04052f06 	streq	r2, [r5], #-3846	; 0xfffff0fa
     8fc:	01011103 	tsteq	r1, r3, lsl #2
     900:	05150205 	ldreq	r0, [r5, #-517]	; 0xfffffdfb
     904:	7fb2030e 	svcvc	0x00b2030e
     908:	13020501 	movwne	r0, #9473	; 0x2501
     90c:	01060605 	tsteq	r6, r5, lsl #12
     910:	30060205 	andcc	r0, r6, r5, lsl #4
     914:	05010805 	streq	r0, [r1, #-2053]	; 0xfffff7fb
     918:	4a010602 	bmi	42128 <__bss_end__+0x37f38>
     91c:	91080805 	tstls	r8, r5, lsl #16
     920:	4a060305 	bmi	18153c <__bss_end__+0x17734c>
     924:	01060805 	tsteq	r6, r5, lsl #16
     928:	2d061505 	cfstr32cs	mvfx1, [r6, #-20]	; 0xffffffec
     92c:	05010805 	streq	r0, [r1, #-2053]	; 0xfffff7fb
     930:	0805d703 	stmdaeq	r5, {r0, r1, r8, r9, sl, ip, lr, pc}
     934:	18050106 	stmdane	r5, {r1, r2, r8}
     938:	2e02052d 	cfsh32cs	mvfx0, mvfx2, #29
     93c:	052f0805 	streq	r0, [pc, #-2053]!	; 13f <__code_start__-0x7ec1>
     940:	052d0615 	streq	r0, [sp, #-1557]!	; 0xfffff9eb
     944:	02050108 	andeq	r0, r5, #2
     948:	03050106 	movweq	r0, #20742	; 0x5106
     94c:	18052f06 	stmdane	r5, {r1, r2, r8, r9, sl, fp, sp}
     950:	02051106 	andeq	r1, r5, #-2147483647	; 0x80000001
     954:	2f08052e 	svccs	0x0008052e
     958:	2d061505 	cfstr32cs	mvfx1, [r6, #-20]	; 0xffffffec
     95c:	05010805 	streq	r0, [r1, #-2053]	; 0xfffff7fb
     960:	08051303 	stmdaeq	r5, {r0, r1, r8, r9, ip}
     964:	15050106 	strne	r0, [r5, #-262]	; 0xfffffefa
     968:	08052d06 	stmdaeq	r5, {r1, r2, r8, sl, fp, sp}
     96c:	05010601 	streq	r0, [r1, #-1537]	; 0xfffff9ff
     970:	05a00602 	streq	r0, [r0, #1538]!	; 0x602
     974:	05010605 	streq	r0, [r1, #-1541]	; 0xfffff9fb
     978:	11053604 	tstne	r5, r4, lsl #12
     97c:	2e09052f 	cfsh32cs	mvfx0, mvfx9, #31
     980:	05330205 	ldreq	r0, [r3, #-517]!	; 0xfffffdfb
     984:	2e720305 	cdpcs	3, 7, cr0, cr2, cr5, {0}
     988:	2f060205 	svccs	0x00060205
     98c:	0e050106 	adfeqs	f0, f5, f6
     990:	02051606 	andeq	r1, r5, #6291456	; 0x600000
     994:	03051314 	movweq	r1, #21268	; 0x5314
     998:	14020513 	strne	r0, [r2], #-1299	; 0xfffffaed
     99c:	010b0515 	tsteq	fp, r5, lsl r5
     9a0:	01060205 	tsteq	r6, r5, lsl #4
     9a4:	0603052e 	streq	r0, [r3], -lr, lsr #10
     9a8:	060a0567 	streq	r0, [sl], -r7, ror #10
     9ac:	2d020501 	cfstr32cs	mvfx0, [r2, #-4]
     9b0:	052f0a05 	streq	r0, [pc, #-2565]!	; ffffffb3 <__bss_end__+0xffff5dc3>
     9b4:	052d0617 	streq	r0, [sp, #-1559]!	; 0xfffff9e9
     9b8:	0205010b 	andeq	r0, r5, #-1073741822	; 0xc0000002
     9bc:	09050106 	stmdbeq	r5, {r1, r2, r8}
     9c0:	02052e4c 	andeq	r2, r5, #76, 28	; 0x4c0
     9c4:	09052e06 	stmdbeq	r5, {r1, r2, r9, sl, fp, sp}
     9c8:	02050106 	andeq	r0, r5, #-2147483647	; 0x80000001
     9cc:	01063006 	tsteq	r6, r6
     9d0:	38030105 	stmdacc	r3, {r0, r2, r8}
     9d4:	03090501 	movweq	r0, #38145	; 0x9501
     9d8:	2e2e4a4f 	vnmulcs.f32	s8, s28, s30
     9dc:	03061905 	movweq	r1, #26885	; 0x6905
     9e0:	1a054a27 	bne	153284 <__bss_end__+0x149094>
     9e4:	06280513 			; <UNDEFINED> instruction: 0x06280513
     9e8:	2e1f0501 	cfmul32cs	mvfx0, mvfx15, mvfx1
     9ec:	052f0405 	streq	r0, [pc, #-1029]!	; 5ef <__code_start__-0x7a11>
     9f0:	0b052d1f 	bleq	14be74 <__bss_end__+0x141c84>
     9f4:	0e052f06 	cdpeq	15, 0, cr2, cr5, cr6, {0}
     9f8:	04050106 	streq	r0, [r5], #-262	; 0xfffffefa
     9fc:	0602052e 	streq	r0, [r2], -lr, lsr #10
     a00:	134a5903 	movtne	r5, #43267	; 0xa903
     a04:	2e060b05 	vmlacs.f64	d0, d6, d5
     a08:	30060205 	andcc	r0, r6, r5, lsl #4
     a0c:	02060905 	andeq	r0, r6, #81920	; 0x14000
     a10:	04050d24 	streq	r0, [r5], #-3364	; 0xfffff2dc
     a14:	05133606 	ldreq	r3, [r3, #-1542]	; 0xfffff9fa
     a18:	05010606 	streq	r0, [r1, #-1542]	; 0xfffff9fa
     a1c:	13670605 	cmnne	r7, #5242880	; 0x500000
     a20:	06090513 			; <UNDEFINED> instruction: 0x06090513
     a24:	2b0d0511 	blcs	341e70 <__bss_end__+0x337c80>
     a28:	05300b05 	ldreq	r0, [r0, #-2821]!	; 0xfffff4fb
     a2c:	1b052c0d 	blne	14ba68 <__bss_end__+0x141878>
     a30:	06040535 			; <UNDEFINED> instruction: 0x06040535
     a34:	1305052d 	movwne	r0, #21805	; 0x552d
     a38:	2e061b05 	vmlacs.f64	d1, d6, d5
     a3c:	05820a05 	streq	r0, [r2, #2565]	; 0xa05
     a40:	0e052f04 	cdpeq	15, 0, cr2, cr5, cr4, {0}
     a44:	490a052e 	stmdbmi	sl, {r1, r2, r3, r5, r8, sl}
     a48:	2f060b05 	svccs	0x00060b05
     a4c:	01060405 	tsteq	r6, r5, lsl #8
     a50:	06052f06 	streq	r2, [r5], -r6, lsl #30
     a54:	05050106 	streq	r0, [r5, #-262]	; 0xfffffefa
     a58:	0a052f06 	beq	14c678 <__bss_end__+0x142488>
     a5c:	052e0106 	streq	r0, [lr, #-262]!	; 0xfffffefa
     a60:	2e2e2e07 	cdpcs	14, 2, cr2, cr14, cr7, {0}
     a64:	03060405 	movweq	r0, #25605	; 0x6405
     a68:	0205010d 	andeq	r0, r5, #1073741827	; 0x40000003
     a6c:	01460306 	cmpeq	r6, r6, lsl #6
     a70:	3a030905 	bcc	c2e8c <__bss_end__+0xb8c9c>
     a74:	0604052e 	streq	r0, [r4], -lr, lsr #10
     a78:	010d032f 	tsteq	sp, pc, lsr #6
     a7c:	15020501 	strne	r0, [r2, #-1281]	; 0xfffffaff
     a80:	b2030e05 	andlt	r0, r3, #80	; 0x50
     a84:	0205017f 	andeq	r0, r5, #-1073741793	; 0xc000001f
     a88:	08051413 	stmdaeq	r5, {r0, r1, r4, sl, ip}
     a8c:	06060501 	streq	r0, [r6], -r1, lsl #10
     a90:	2e3c0310 	mrccs	3, 1, r0, cr12, cr0, {0}
     a94:	46030205 	strmi	r0, [r3], -r5, lsl #4
     a98:	0530064a 	ldreq	r0, [r0, #-1610]!	; 0xfffff9b6
     a9c:	2e010605 	cfmadd32cs	mvax0, mvfx0, mvfx1, mvfx5
     aa0:	0602052e 	streq	r0, [r2], -lr, lsr #10
     aa4:	0501064b 	streq	r0, [r1, #-1611]	; 0xfffff9b5
     aa8:	0516060e 	ldreq	r0, [r6, #-1550]	; 0xfffff9f2
     aac:	15131402 	ldrne	r1, [r3, #-1026]	; 0xfffffbfe
     ab0:	010b0515 	tsteq	fp, r5, lsl r5
     ab4:	2e060205 	cdpcs	2, 0, cr0, cr6, cr5, {0}
     ab8:	09053006 	stmdbeq	r5, {r1, r2, ip, sp}
     abc:	02050106 	andeq	r0, r5, #-2147483647	; 0x80000001
     ac0:	01064c06 	tsteq	r6, r6, lsl #24
     ac4:	38030105 	stmdacc	r3, {r0, r2, r8}
     ac8:	03060501 	movweq	r0, #25857	; 0x6501
     acc:	02054a6e 	andeq	r4, r5, #450560	; 0x6e000
     ad0:	4a664603 	bmi	19922e4 <__bss_end__+0x19880f4>
     ad4:	0604052e 	streq	r0, [r4], -lr, lsr #10
     ad8:	0100c803 	tsteq	r0, r3, lsl #16
     adc:	06010101 	streq	r0, [r1], -r1, lsl #2
     ae0:	4a06822e 	bmi	1a13a0 <__bss_end__+0x1971b0>
     ae4:	052e7203 	streq	r7, [lr, #-515]!	; 0xfffffdfd
     ae8:	05010609 	streq	r0, [r1, #-1545]	; 0xfffff9f7
     aec:	032f0604 			; <UNDEFINED> instruction: 0x032f0604
     af0:	0501010d 	streq	r0, [r1, #-269]	; 0xfffffef3
     af4:	0e051502 	cfsh32eq	mvfx1, mvfx5, #2
     af8:	017fb203 	cmneq	pc, r3, lsl #4
     afc:	14130205 	ldrne	r0, [r3], #-517	; 0xfffffdfb
     b00:	05010805 	streq	r0, [r1, #-2053]	; 0xfffff7fb
     b04:	1b030609 	blne	c2330 <__bss_end__+0xb8140>
     b08:	03060501 	movweq	r0, #25857	; 0x6501
     b0c:	3c032e63 	stccc	14, cr2, [r3], {99}	; 0x63
     b10:	052e2e2e 	streq	r2, [lr, #-3630]!	; 0xfffff1d2
     b14:	b4030648 	strlt	r0, [r3], #-1608	; 0xfffff9b8
     b18:	053c087f 	ldreq	r0, [ip, #-2175]!	; 0xfffff781
     b1c:	06011305 	streq	r1, [r1], -r5, lsl #6
     b20:	0402002e 	streq	r0, [r2], #-46	; 0xffffffd2
     b24:	002e0602 	eoreq	r0, lr, r2, lsl #12
     b28:	01020402 	tsteq	r2, r2, lsl #8
     b2c:	02040200 	andeq	r0, r4, #0, 4
     b30:	00110513 	andseq	r0, r1, r3, lsl r5
     b34:	06020402 	streq	r0, [r2], -r2, lsl #8
     b38:	00070501 	andeq	r0, r7, r1, lsl #10
     b3c:	2f020402 	svccs	0x00020402
     b40:	02001105 	andeq	r1, r0, #1073741825	; 0x40000001
     b44:	052d0204 	streq	r0, [sp, #-516]!	; 0xfffffdfc
     b48:	04020005 	streq	r0, [r2], #-5
     b4c:	052f0602 	streq	r0, [pc, #-1538]!	; 552 <__code_start__-0x7aae>
     b50:	04020009 	streq	r0, [r2], #-9
     b54:	0e051302 	cdpeq	3, 0, cr1, cr5, cr2, {0}
     b58:	02040200 	andeq	r0, r4, #0, 4
     b5c:	05050106 	streq	r0, [r5, #-262]	; 0xfffffefa
     b60:	01040200 	mrseq	r0, R12_usr
     b64:	02006306 	andeq	r6, r0, #402653184	; 0x18000000
     b68:	05010104 	streq	r0, [r1, #-260]	; 0xfffffefc
     b6c:	04020048 	streq	r0, [r2], #-72	; 0xffffffb8
     b70:	05110601 	ldreq	r0, [r1, #-1537]	; 0xfffff9ff
     b74:	04020005 	streq	r0, [r2], #-5
     b78:	48052f01 	stmdami	r5, {r0, r8, r9, sl, fp, sp}
     b7c:	01040200 	mrseq	r0, R12_usr
     b80:	0005052d 	andeq	r0, r5, sp, lsr #10
     b84:	2f010402 	svccs	0x00010402
     b88:	01040200 	mrseq	r0, R12_usr
     b8c:	0402004a 	streq	r0, [r2], #-74	; 0xffffffb6
     b90:	02004a01 	andeq	r4, r0, #4096	; 0x1000
     b94:	4a060104 	bmi	180fac <__bss_end__+0x176dbc>
     b98:	e1034005 	tst	r3, r5
     b9c:	0106d600 	tsteq	r6, r0, lsl #12
     ba0:	2e4e0905 	vmlacs.f16	s1, s28, s10	; <UNPREDICTABLE>
     ba4:	05300805 	ldreq	r0, [r0, #-2053]!	; 0xfffff7fb
     ba8:	1205291e 	andne	r2, r5, #491520	; 0x78000
     bac:	330d052e 	movwcc	r0, #54574	; 0xd52e
     bb0:	45060205 	strmi	r0, [r6, #-517]	; 0xfffffdfb
     bb4:	05130505 	ldreq	r0, [r3, #-1285]	; 0xfffffafb
     bb8:	05051402 	streq	r1, [r5, #-1026]	; 0xfffffbfe
     bbc:	13020513 	movwne	r0, #9491	; 0x2513
     bc0:	05010805 	streq	r0, [r1, #-2053]	; 0xfffff7fb
     bc4:	7a030640 	bvc	c24cc <__bss_end__+0xb82dc>
     bc8:	0d052e01 	stceq	14, cr2, [r5, #-4]
     bcc:	11056634 	tstne	r5, r4, lsr r6
     bd0:	4a4a2003 	bmi	1288be4 <__bss_end__+0x127e9f4>
     bd4:	03060405 	movweq	r0, #25605	; 0x6405
     bd8:	09050162 	stmdbeq	r5, {r1, r5, r6, r8}
     bdc:	0f050106 	svceq	0x00050106
     be0:	0608052e 	streq	r0, [r8], -lr, lsr #10
     be4:	060d052c 	streq	r0, [sp], -ip, lsr #10
     be8:	0603052e 	streq	r0, [r3], -lr, lsr #10
     bec:	06050567 	streq	r0, [r5], -r7, ror #10
     bf0:	06080501 	streq	r0, [r8], -r1, lsl #10
     bf4:	060e054d 	streq	r0, [lr], -sp, asr #10
     bf8:	2e0a0501 	cfsh32cs	mvfx0, mvfx10, #1
     bfc:	052f0905 	streq	r0, [pc, #-2309]!	; 2ff <__code_start__-0x7d01>
     c00:	052f0604 	streq	r0, [pc, #-1540]!	; 604 <__code_start__-0x79fc>
     c04:	05010607 	streq	r0, [r1, #-1543]	; 0xfffff9f9
     c08:	04052c0a 	streq	r2, [r5], #-3082	; 0xfffff3f6
     c0c:	2d053206 	sfmcs	f3, 4, [r5, #-24]	; 0xffffffe8
     c10:	7f980306 	svcvc	0x00980306
     c14:	03090501 	movweq	r0, #38145	; 0x9501
     c18:	052e00ed 	streq	r0, [lr, #-237]!	; 0xffffff13
     c1c:	07052c0d 	streq	r2, [r5, -sp, lsl #24]
     c20:	0604052b 	streq	r0, [r4], -fp, lsr #10
     c24:	05141330 	ldreq	r1, [r4, #-816]	; 0xfffffcd0
     c28:	0c050109 	stfeqs	f0, [r5], {9}
     c2c:	017f9303 	cmneq	pc, r3, lsl #6
     c30:	06011d05 	streq	r1, [r1], -r5, lsl #26
     c34:	03090501 	movweq	r0, #38145	; 0x9501
     c38:	050100ed 	streq	r0, [r1, #-237]	; 0xffffff13
     c3c:	052f0605 	streq	r0, [pc, #-1541]!	; 63f <__code_start__-0x79c1>
     c40:	2e010612 	mcrcs	6, 0, r0, cr1, cr2, {0}
     c44:	2f0b052d 	svccs	0x000b052d
     c48:	2f060505 	svccs	0x00060505
     c4c:	05100905 	ldreq	r0, [r0, #-2309]	; 0xfffff6fb
     c50:	7f93030c 	svcvc	0x0093030c
     c54:	011d0501 	tsteq	sp, r1, lsl #10
     c58:	01062d05 	tsteq	r6, r5, lsl #26
     c5c:	ed030905 	vstr.16	s0, [r3, #-10]
     c60:	04052e00 	streq	r2, [r5], #-3584	; 0xfffff200
     c64:	00014e06 	andeq	r4, r1, r6, lsl #28
     c68:	4a020402 	bmi	81c78 <__bss_end__+0x77a88>
     c6c:	02040200 	andeq	r0, r4, #0, 4
     c70:	04020001 	streq	r0, [r2], #-1
     c74:	02001502 	andeq	r1, r0, #8388608	; 0x800000
     c78:	02060204 	andeq	r0, r6, #4, 4	; 0x40000000
     c7c:	02001236 	andeq	r1, r0, #1610612739	; 0x60000003
     c80:	052e0204 	streq	r0, [lr, #-516]!	; 0xfffffdfc
     c84:	d1030602 	tstle	r3, r2, lsl #12
     c88:	07050100 	streq	r0, [r5, -r0, lsl #2]
     c8c:	052e0106 	streq	r0, [lr, #-262]!	; 0xfffffefa
     c90:	052f0602 	streq	r0, [pc, #-1538]!	; 696 <__code_start__-0x796a>
     c94:	0501060b 	streq	r0, [r1, #-1547]	; 0xfffff9f5
     c98:	05052f01 	streq	r2, [r5, #-3841]	; 0xfffff0ff
     c9c:	4a650306 	bmi	19418bc <__bss_end__+0x19376cc>
     ca0:	01060905 	tsteq	r6, r5, lsl #18
     ca4:	06050566 	streq	r0, [r5], -r6, ror #10
     ca8:	0304059f 	movweq	r0, #17823	; 0x459f
     cac:	07050111 	smladeq	r5, r1, r1, r0
     cb0:	04050106 	streq	r0, [r5], #-262	; 0xfffffefa
     cb4:	0a053106 	beq	14d0d4 <__bss_end__+0x142ee4>
     cb8:	00130501 	andseq	r0, r3, r1, lsl #10
     cbc:	06010402 	streq	r0, [r1], -r2, lsl #8
     cc0:	0010052e 	andseq	r0, r0, lr, lsr #10
     cc4:	2e010402 	cdpcs	4, 0, cr0, cr1, cr2, {0}
     cc8:	4b060505 	blmi	1820e4 <__bss_end__+0x177ef4>
     ccc:	01060a05 	tsteq	r6, r5, lsl #20
     cd0:	04052d06 	streq	r2, [r5], #-3334	; 0xfffff2fa
     cd4:	11050106 	tstne	r5, r6, lsl #2
     cd8:	7fb60306 	svcvc	0x00b60306
     cdc:	00011366 	andeq	r1, r1, r6, ror #6
     ce0:	06020402 	streq	r0, [r2], -r2, lsl #8
     ce4:	01ba06ba 			; <UNDEFINED> instruction: 0x01ba06ba
     ce8:	061a0514 			; <UNDEFINED> instruction: 0x061a0514
     cec:	052e2e13 	streq	r2, [lr, #-3603]!	; 0xfffff1ed
     cf0:	05674e11 	strbeq	r4, [r7, #-3601]!	; 0xfffff1ef
     cf4:	13056814 	movwne	r6, #22548	; 0x5814
     cf8:	03150582 	tsteq	r5, #545259520	; 0x20800000
     cfc:	11054a78 	tstne	r5, r8, ror sl
     d00:	13134b06 	tstne	r3, #6144	; 0x1800
     d04:	05141314 	ldreq	r1, [r4, #-788]	; 0xfffffcec
     d08:	05010613 	streq	r0, [r1, #-1555]	; 0xfffff9ed
     d0c:	052f0609 	streq	r0, [pc, #-1545]!	; 70b <__code_start__-0x78f5>
     d10:	2e01060d 	cfmadd32cs	mvax0, mvfx0, mvfx1, mvfx13
     d14:	bb09052e 	bllt	2421d4 <__bss_end__+0x237fe4>
     d18:	059d0d05 	ldreq	r0, [sp, #3333]	; 0xd05
     d1c:	052f0609 	streq	r0, [pc, #-1545]!	; 71b <__code_start__-0x78e5>
     d20:	03062f15 	movweq	r2, #28437	; 0x6f15
     d24:	0b034a75 	bleq	d3700 <__bss_end__+0xc9510>
     d28:	05054a2e 	streq	r4, [r5, #-2606]	; 0xfffff5d2
     d2c:	01230306 			; <UNDEFINED> instruction: 0x01230306
     d30:	01060905 	tsteq	r6, r5, lsl #18
     d34:	0605052e 	streq	r0, [r5], -lr, lsr #10
     d38:	2e6e03d7 	mcrcs	3, 3, r0, cr14, cr7, {6}
     d3c:	05010e03 	streq	r0, [r1, #-3587]	; 0xfffff1fd
     d40:	05010609 	streq	r0, [r1, #-1545]	; 0xfffff9f7
     d44:	10030605 	andne	r0, r3, r5, lsl #12
     d48:	0301054a 	movweq	r0, #5450	; 0x154a
     d4c:	05017eed 	streq	r7, [r1, #-3821]	; 0xfffff113
     d50:	13151402 	tstne	r5, #33554432	; 0x2000000
     d54:	03040514 	movweq	r0, #17684	; 0x4514
     d58:	0905011a 	stmdbeq	r5, {r1, r3, r4, r8}
     d5c:	02050106 	andeq	r0, r5, #-2147483647	; 0x80000001
     d60:	052e4603 	streq	r4, [lr, #-1539]!	; 0xfffff9fd
     d64:	2e3a0309 	cdpcs	3, 3, cr0, cr10, cr9, {0}
     d68:	2f060405 	svccs	0x00060405
     d6c:	01010d03 	tsteq	r1, r3, lsl #26
     d70:	05150205 	ldreq	r0, [r5, #-517]	; 0xfffffdfb
     d74:	7fb2030e 	svcvc	0x00b2030e
     d78:	13020501 	movwne	r0, #9473	; 0x2501
     d7c:	01080514 	tsteq	r8, r4, lsl r5
     d80:	01060205 	tsteq	r6, r5, lsl #4
     d84:	059f0805 	ldreq	r0, [pc, #2053]	; 1591 <__code_start__-0x6a6f>
     d88:	064a0603 	strbeq	r0, [sl], -r3, lsl #12
     d8c:	2e080501 	cfsh32cs	mvfx0, mvfx8, #1
     d90:	2d061505 	cfstr32cs	mvfx1, [r6, #-20]	; 0xffffffec
     d94:	05010805 	streq	r0, [r1, #-2053]	; 0xfffff7fb
     d98:	01062f03 	tsteq	r6, r3, lsl #30
     d9c:	052e0805 	streq	r0, [lr, #-2053]!	; 0xfffff7fb
     da0:	052d0615 	streq	r0, [sp, #-1557]!	; 0xfffff9eb
     da4:	03050108 	movweq	r0, #20744	; 0x5108
     da8:	0501062f 	streq	r0, [r1, #-1583]	; 0xfffff9d1
     dac:	15052e08 	strne	r2, [r5, #-3592]	; 0xfffff1f8
     db0:	08052d06 	stmdaeq	r5, {r1, r2, r8, sl, fp, sp}
     db4:	2f030501 	svccs	0x00030501
     db8:	08050106 	stmdaeq	r5, {r1, r2, r8}
     dbc:	0615052e 	ldreq	r0, [r5], -lr, lsr #10
     dc0:	0108052d 	tsteq	r8, sp, lsr #10
     dc4:	062f0305 	strteq	r0, [pc], -r5, lsl #6
     dc8:	2e080501 	cfsh32cs	mvfx0, mvfx8, #1
     dcc:	2d061505 	cfstr32cs	mvfx1, [r6, #-20]	; 0xffffffec
     dd0:	05010805 	streq	r0, [r1, #-2053]	; 0xfffff7fb
     dd4:	01062f03 	tsteq	r6, r3, lsl #30
     dd8:	052e0805 	streq	r0, [lr, #-2053]!	; 0xfffff7fb
     ddc:	052d0615 	streq	r0, [sp, #-1557]!	; 0xfffff9eb
     de0:	03050108 	movweq	r0, #20744	; 0x5108
     de4:	06080513 			; <UNDEFINED> instruction: 0x06080513
     de8:	06150501 	ldreq	r0, [r5], -r1, lsl #10
     dec:	0108052d 	tsteq	r8, sp, lsr #10
     df0:	03056606 	movweq	r6, #22022	; 0x5606
     df4:	08056706 	stmdaeq	r5, {r1, r2, r8, r9, sl, sp, lr}
     df8:	18050106 	stmdane	r5, {r1, r2, r8}
     dfc:	2e02052d 	cfsh32cs	mvfx0, mvfx2, #29
     e00:	052f0805 	streq	r0, [pc, #-2053]!	; 603 <__code_start__-0x79fd>
     e04:	052d0615 	streq	r0, [sp, #-1557]!	; 0xfffff9eb
     e08:	02050108 	andeq	r0, r5, #2
     e0c:	03050106 	movweq	r0, #20742	; 0x5106
     e10:	18052f06 	stmdane	r5, {r1, r2, r8, r9, sl, fp, sp}
     e14:	02051106 	andeq	r1, r5, #-2147483647	; 0x80000001
     e18:	2f08052e 	svccs	0x0008052e
     e1c:	2d061505 	cfstr32cs	mvfx1, [r6, #-20]	; 0xffffffec
     e20:	05010805 	streq	r0, [r1, #-2053]	; 0xfffff7fb
     e24:	08051303 	stmdaeq	r5, {r0, r1, r8, r9, ip}
     e28:	15050106 	strne	r0, [r5, #-262]	; 0xfffffefa
     e2c:	08052d06 	stmdaeq	r5, {r1, r2, r8, sl, fp, sp}
     e30:	06050501 	streq	r0, [r5], -r1, lsl #10
     e34:	02054a14 	andeq	r4, r5, #20, 20	; 0x14000
     e38:	0e052e06 	cdpeq	14, 0, cr2, cr5, cr6, {0}
     e3c:	04051906 	streq	r1, [r5], #-2310	; 0xfffff6fa
     e40:	2f11052f 	svccs	0x0011052f
     e44:	054a0905 	strbeq	r0, [sl, #-2309]	; 0xfffff6fb
     e48:	05053302 	streq	r3, [r5, #-770]	; 0xfffffcfe
     e4c:	052e7203 	streq	r7, [lr, #-515]!	; 0xfffffdfd
     e50:	062f0602 	strteq	r0, [pc], -r2, lsl #12
     e54:	060e0501 	streq	r0, [lr], -r1, lsl #10
     e58:	14020516 	strne	r0, [r2], #-1302	; 0xfffffaea
     e5c:	13030513 	movwne	r0, #13587	; 0x3513
     e60:	15140205 	ldrne	r0, [r4, #-517]	; 0xfffffdfb
     e64:	05010b05 	streq	r0, [r1, #-2821]	; 0xfffff4fb
     e68:	2e010602 	cfmadd32cs	mvax0, mvfx0, mvfx1, mvfx2
     e6c:	06030566 	streq	r0, [r3], -r6, ror #10
     e70:	060a052f 	streq	r0, [sl], -pc, lsr #10
     e74:	2d020501 	cfstr32cs	mvfx0, [r2, #-4]
     e78:	052f0a05 	streq	r0, [pc, #-2565]!	; 47b <__code_start__-0x7b85>
     e7c:	052d0617 	streq	r0, [sp, #-1559]!	; 0xfffff9e9
     e80:	0205010b 	andeq	r0, r5, #-1073741822	; 0xc0000002
     e84:	4a4a0106 	bmi	12812a4 <__bss_end__+0x12770b4>
     e88:	03060505 	movweq	r0, #25861	; 0x6505
     e8c:	05010195 	streq	r0, [r1, #-405]	; 0xfffffe6b
     e90:	f8030611 			; <UNDEFINED> instruction: 0xf8030611
     e94:	1b05017e 	blne	141494 <__bss_end__+0x1372a4>
     e98:	4a018803 	bmi	62eac <__bss_end__+0x58cbc>
     e9c:	03060105 	movweq	r0, #24837	; 0x6105
     ea0:	052e7ef3 	streq	r7, [lr, #-3827]!	; 0xfffff10d
     ea4:	13151402 	tstne	r5, #33554432	; 0x2000000
     ea8:	03190514 	tsteq	r9, #20, 10	; 0x5000000
     eac:	1a050122 	bne	14133c <__bss_end__+0x13714c>
     eb0:	06280513 			; <UNDEFINED> instruction: 0x06280513
     eb4:	2e1f0501 	cfmul32cs	mvfx0, mvfx15, mvfx1
     eb8:	052f0405 	streq	r0, [pc, #-1029]!	; abb <__code_start__-0x7545>
     ebc:	1f054a0e 	svcne	0x00054a0e
     ec0:	060b052d 	streq	r0, [fp], -sp, lsr #10
     ec4:	0604052f 	streq	r0, [r4], -pc, lsr #10
     ec8:	01320601 	teqeq	r2, r1, lsl #12
     ecc:	05150205 	ldreq	r0, [r5, #-517]	; 0xfffffdfb
     ed0:	7fb2030e 	svcvc	0x00b2030e
     ed4:	13020501 	movwne	r0, #9473	; 0x2501
     ed8:	01060605 	tsteq	r6, r5, lsl #12
     edc:	30060205 	andcc	r0, r6, r5, lsl #4
     ee0:	05010805 	streq	r0, [r1, #-2053]	; 0xfffff7fb
     ee4:	05010602 	streq	r0, [r1, #-1538]	; 0xfffff9fe
     ee8:	21080603 	tstcs	r8, r3, lsl #12
     eec:	01060805 	tsteq	r6, r5, lsl #16
     ef0:	49061505 	stmdbmi	r6, {r0, r2, r8, sl, ip}
     ef4:	05010805 	streq	r0, [r1, #-2053]	; 0xfffff7fb
     ef8:	0805d703 	stmdaeq	r5, {r0, r1, r8, r9, sl, ip, lr, pc}
     efc:	18050106 	stmdane	r5, {r1, r2, r8}
     f00:	2e02052d 	cfsh32cs	mvfx0, mvfx2, #29
     f04:	052f0805 	streq	r0, [pc, #-2053]!	; 707 <__code_start__-0x78f9>
     f08:	052d0615 	streq	r0, [sp, #-1557]!	; 0xfffff9eb
     f0c:	02050108 	andeq	r0, r5, #2
     f10:	03050106 	movweq	r0, #20742	; 0x5106
     f14:	18052f06 	stmdane	r5, {r1, r2, r8, r9, sl, fp, sp}
     f18:	02051106 	andeq	r1, r5, #-2147483647	; 0x80000001
     f1c:	2f08052e 	svccs	0x0008052e
     f20:	2d061505 	cfstr32cs	mvfx1, [r6, #-20]	; 0xffffffec
     f24:	05010805 	streq	r0, [r1, #-2053]	; 0xfffff7fb
     f28:	08051303 	stmdaeq	r5, {r0, r1, r8, r9, ip}
     f2c:	15050106 	strne	r0, [r5, #-262]	; 0xfffffefa
     f30:	08052d06 	stmdaeq	r5, {r1, r2, r8, sl, fp, sp}
     f34:	06050501 	streq	r0, [r5], -r1, lsl #10
     f38:	06020514 			; <UNDEFINED> instruction: 0x06020514
     f3c:	06040566 	streq	r0, [r4], -r6, ror #10
     f40:	0305051a 	movweq	r0, #21786	; 0x551a
     f44:	02054a78 	andeq	r4, r5, #120, 20	; 0x78000
     f48:	01062f06 	tsteq	r6, r6, lsl #30
     f4c:	16060e05 	strne	r0, [r6], -r5, lsl #28
     f50:	13140205 	tstne	r4, #1342177280	; 0x50000000
     f54:	01060405 	tsteq	r6, r5, lsl #8
     f58:	2f060305 	svccs	0x00060305
     f5c:	01061105 	tsteq	r6, r5, lsl #2
     f60:	052e0905 	streq	r0, [lr, #-2309]!	; 0xfffff6fb
     f64:	15300602 	ldrne	r0, [r0, #-1538]!	; 0xfffff9fe
     f68:	05010b05 	streq	r0, [r1, #-2821]	; 0xfffff4fb
     f6c:	4a010602 	bmi	4277c <__bss_end__+0x3858c>
     f70:	03052e4a 	movweq	r2, #24138	; 0x5e4a
     f74:	0a052f06 	beq	14cb94 <__bss_end__+0x1429a4>
     f78:	02050106 	andeq	r0, r5, #-2147483647	; 0x80000001
     f7c:	2f0a052d 	svccs	0x000a052d
     f80:	2d061705 	stccs	7, cr1, [r6, #-20]	; 0xffffffec
     f84:	05010b05 	streq	r0, [r1, #-2821]	; 0xfffff4fb
     f88:	4a010602 	bmi	42798 <__bss_end__+0x385a8>
     f8c:	0514062e 	ldreq	r0, [r4, #-1582]	; 0xfffff9d2
     f90:	05010609 	streq	r0, [r1, #-1545]	; 0xfffff9f7
     f94:	064c0602 	strbeq	r0, [ip], -r2, lsl #12
     f98:	06050501 	streq	r0, [r5], -r1, lsl #10
     f9c:	01019803 	tsteq	r1, r3, lsl #16
     fa0:	0607052a 	streq	r0, [r7], -sl, lsr #10
     fa4:	06050501 	streq	r0, [r5], -r1, lsl #10
     fa8:	0318052f 	tsteq	r8, #197132288	; 0xbc00000
     fac:	1b052e53 	blne	14c900 <__bss_end__+0x142710>
     fb0:	1a050106 	bne	1413d0 <__bss_end__+0x1371e0>
     fb4:	06090582 	streq	r0, [r9], -r2, lsl #11
     fb8:	060d054b 	streq	r0, [sp], -fp, asr #10
     fbc:	09052e01 	stmdbeq	r5, {r0, r9, sl, fp, sp}
     fc0:	9d0d05d7 	cfstr32ls	mvfx0, [sp, #-860]	; 0xfffffca4
     fc4:	2f060905 	svccs	0x00060905
     fc8:	05301505 	ldreq	r1, [r0, #-1285]!	; 0xfffffafb
     fcc:	05010618 	streq	r0, [r1, #-1560]	; 0xfffff9e8
     fd0:	19056617 	stmdbne	r5, {r0, r1, r2, r4, r9, sl, sp, lr}
     fd4:	4917052f 	ldmdbmi	r7, {r0, r1, r2, r3, r5, r8, sl}
     fd8:	2f061905 	svccs	0x00061905
     fdc:	03061505 	movweq	r1, #25861	; 0x6505
     fe0:	19052e6f 	stmdbne	r5, {r0, r1, r2, r3, r5, r6, r9, sl, fp, sp}
     fe4:	4a130306 	bmi	4c1c04 <__bss_end__+0x4b7a14>
     fe8:	03061505 	movweq	r1, #25861	; 0x6505
     fec:	054a2e6d 	strbeq	r2, [sl, #-3693]	; 0xfffff193
     ff0:	7fa00302 	svcvc	0x00a00302
     ff4:	03066601 	movweq	r6, #26113	; 0x6601
     ff8:	05050172 	streq	r0, [r5, #-370]	; 0xfffffe8e
     ffc:	04050106 	streq	r0, [r5], #-262	; 0xfffffefa
    1000:	03050536 	movweq	r0, #21814	; 0x5536
    1004:	02052e78 	andeq	r2, r5, #120, 28	; 0x780
    1008:	01062f06 	tsteq	r6, r6, lsl #30
    100c:	16060e05 	strne	r0, [r6], -r5, lsl #28
    1010:	13140205 	tstne	r4, #1342177280	; 0x50000000
    1014:	01060405 	tsteq	r6, r5, lsl #8
    1018:	0602054a 	streq	r0, [r2], -sl, asr #10
    101c:	05017803 	streq	r7, [r1, #-2051]	; 0xfffff7fd
    1020:	4a010605 	bmi	4283c <__bss_end__+0x3864c>
    1024:	4b060205 	blmi	181840 <__bss_end__+0x177650>
    1028:	0e050106 	adfeqs	f0, f5, f6
    102c:	02051606 	andeq	r1, r5, #6291456	; 0x600000
    1030:	15151314 	ldrne	r1, [r5, #-788]	; 0xfffffcec
    1034:	06010b05 	streq	r0, [r1], -r5, lsl #22
    1038:	0611052e 	ldreq	r0, [r1], -lr, lsr #10
    103c:	01019e03 	tsteq	r1, r3, lsl #28
    1040:	01062205 	tsteq	r6, r5, lsl #4
    1044:	052f0505 	streq	r0, [pc, #-1285]!	; b47 <__code_start__-0x74b9>
    1048:	05052d22 	streq	r2, [r5, #-3362]	; 0xfffff2de
    104c:	11052f06 	tstne	r5, r6, lsl #30
    1050:	8305054b 	movwhi	r0, #21835	; 0x554b
    1054:	5c039e01 	stcpl	14, cr9, [r3], {1}
    1058:	059e012e 	ldreq	r0, [lr, #302]	; 0x12e
    105c:	f3030602 	vmax.u8	d0, d3, d2
    1060:	052e2e7e 	streq	r2, [lr, #-3710]!	; 0xfffff182
    1064:	054a2c06 	strbeq	r2, [sl, #-3078]	; 0xfffff3fa
    1068:	00d8030d 	sbcseq	r0, r8, sp, lsl #6
    106c:	00040501 	andeq	r0, r4, r1, lsl #10
    1070:	06010402 	streq	r0, [r1], -r2, lsl #8
    1074:	004a1103 	subeq	r1, sl, r3, lsl #2
    1078:	01010402 	tsteq	r1, r2, lsl #8
    107c:	51061105 	tstpl	r6, r5, lsl #2
    1080:	15059e06 	strne	r9, [r5, #-3590]	; 0xfffff1fa
    1084:	012e1703 			; <UNDEFINED> instruction: 0x012e1703
    1088:	031105ba 	tsteq	r1, #780140544	; 0x2e800000
    108c:	02012e69 	andeq	r2, r1, #1680	; 0x690
    1090:	01010028 	tsteq	r1, r8, lsr #32
    1094:	00000087 	andeq	r0, r0, r7, lsl #1
    1098:	00640003 	rsbeq	r0, r4, r3
    109c:	01020000 	mrseq	r0, (UNDEF: 2)
    10a0:	000d0efb 	strdeq	r0, [sp], -fp
    10a4:	01010101 	tsteq	r1, r1, lsl #2
    10a8:	01000000 	mrseq	r0, (UNDEF: 0)
    10ac:	2e010000 	cdpcs	0, 0, cr0, cr1, cr0, {0}
    10b0:	6174732f 	cmnvs	r4, pc, lsr #6
    10b4:	732d6666 			; <UNDEFINED> instruction: 0x732d6666
    10b8:	2f006372 	svccs	0x00006372
    10bc:	72657355 	rsbvc	r7, r5, #1409286145	; 0x54000001
    10c0:	696d2f73 	stmdbvs	sp!, {r0, r1, r4, r5, r6, r8, r9, sl, fp, sp}^
    10c4:	2f73656c 	svccs	0x0073656c
    10c8:	72756f53 	rsbsvc	r6, r5, #332	; 0x14c
    10cc:	632f6563 			; <UNDEFINED> instruction: 0x632f6563
    10d0:	30343273 	eorscc	r3, r4, r3, ror r2
    10d4:	6c2f786c 	stcvs	8, cr7, [pc], #-432	; f2c <__code_start__-0x70d4>
    10d8:	69706269 	ldmdbvs	r0!, {r0, r3, r5, r6, r9, sp, lr}^
    10dc:	636e692f 	cmnvs	lr, #770048	; 0xbc000
    10e0:	6564756c 	strbvs	r7, [r4, #-1388]!	; 0xfffffa94
    10e4:	6c630000 	stclvs	0, cr0, [r3], #-0
    10e8:	2d6e6165 	stfcse	f6, [lr, #-404]!	; 0xfffffe6c
    10ec:	6f626572 	svcvs	0x00626572
    10f0:	632e746f 			; <UNDEFINED> instruction: 0x632e746f
    10f4:	00000100 	andeq	r0, r0, r0, lsl #2
    10f8:	2e697072 	mcrcs	0, 3, r7, cr9, cr2, {3}
    10fc:	00020068 	andeq	r0, r2, r8, rrx
    1100:	19050000 	stmdbne	r5, {}	; <UNPREDICTABLE>
    1104:	24020500 	strcs	r0, [r2], #-1280	; 0xfffffb00
    1108:	1500008e 	strne	r0, [r0, #-142]	; 0xffffff72
    110c:	05130505 	ldreq	r0, [r3, #-1285]	; 0xfffffafb
    1110:	052d0619 	streq	r0, [sp, #-1561]!	; 0xfffff9e7
    1114:	67062f05 	strvs	r2, [r6, -r5, lsl #30]
    1118:	06024b2f 	streq	r4, [r2], -pc, lsr #22
    111c:	12010100 	andne	r0, r1, #0
    1120:	03000001 	movweq	r0, #1
    1124:	00005e00 	andeq	r5, r0, r0, lsl #28
    1128:	fb010200 	blx	41932 <__bss_end__+0x37742>
    112c:	01000d0e 	tsteq	r0, lr, lsl #26
    1130:	00010101 	andeq	r0, r1, r1, lsl #2
    1134:	00010000 	andeq	r0, r1, r0
    1138:	2f2e0100 	svccs	0x002e0100
    113c:	66617473 			; <UNDEFINED> instruction: 0x66617473
    1140:	72732d66 	rsbsvc	r2, r3, #6528	; 0x1980
    1144:	552f0063 	strpl	r0, [pc, #-99]!	; 10e9 <__code_start__-0x6f17>
    1148:	73726573 	cmnvc	r2, #482344960	; 0x1cc00000
    114c:	6c696d2f 	stclvs	13, cr6, [r9], #-188	; 0xffffff44
    1150:	532f7365 			; <UNDEFINED> instruction: 0x532f7365
    1154:	6372756f 	cmnvs	r2, #465567744	; 0x1bc00000
    1158:	73632f65 	cmnvc	r3, #404	; 0x194
    115c:	6c303432 	cfldrsvs	mvf3, [r0], #-200	; 0xffffff38
    1160:	696c2f78 	stmdbvs	ip!, {r3, r4, r5, r6, r8, r9, sl, fp, sp}^
    1164:	2f697062 	svccs	0x00697062
    1168:	6c636e69 	stclvs	14, cr6, [r3], #-420	; 0xfffffe5c
    116c:	00656475 	rsbeq	r6, r5, r5, ror r4
    1170:	74736300 	ldrbtvc	r6, [r3], #-768	; 0xfffffd00
    1174:	2e747261 	cdpcs	2, 7, cr7, cr4, cr1, {3}
    1178:	00010063 	andeq	r0, r1, r3, rrx
    117c:	69707200 	ldmdbvs	r0!, {r9, ip, sp, lr}^
    1180:	0200682e 	andeq	r6, r0, #3014656	; 0x2e0000
    1184:	05000000 	streq	r0, [r0, #-0]
    1188:	02050010 	andeq	r0, r5, #16, 0
    118c:	00008e50 	andeq	r8, r0, r0, asr lr
    1190:	13050515 	movwne	r0, #21781	; 0x5515
    1194:	05130205 	ldreq	r0, [r3, #-517]	; 0xfffffdfb
    1198:	10051405 	andne	r1, r5, r5, lsl #8
    119c:	05050e06 	streq	r0, [r5, #-3590]	; 0xfffff1fa
    11a0:	13300632 	teqne	r0, #52428800	; 0x3200000
    11a4:	010a0514 	tsteq	sl, r4, lsl r5
    11a8:	91080905 	tstls	r8, r5, lsl #18
    11ac:	01061005 	tsteq	r6, r5
    11b0:	059a0a05 	ldreq	r0, [sl, #2565]	; 0xa05
    11b4:	0a056a10 	beq	15b9fc <__bss_end__+0x15180c>
    11b8:	09052d06 	stmdbeq	r5, {r1, r2, r8, sl, fp, sp}
    11bc:	0610052f 	ldreq	r0, [r0], -pc, lsr #10
    11c0:	060a0501 	streq	r0, [sl], -r1, lsl #10
    11c4:	bb09052d 	bllt	242680 <__bss_end__+0x238490>
    11c8:	01061005 	tsteq	r6, r5
    11cc:	65060a05 	strvs	r0, [r6, #-2565]	; 0xfffff5fb
    11d0:	054b0905 	strbeq	r0, [fp, #-2309]	; 0xfffff6fb
    11d4:	0501060d 	streq	r0, [r1, #-1549]	; 0xfffff9f3
    11d8:	10052d0a 	andne	r2, r5, sl, lsl #26
    11dc:	060a052f 	streq	r0, [sl], -pc, lsr #10
    11e0:	2f09052d 	svccs	0x0009052d
    11e4:	01060d05 	tsteq	r6, r5, lsl #26
    11e8:	052d0a05 	streq	r0, [sp, #-2565]!	; 0xfffff5fb
    11ec:	0a052f10 	beq	14ce34 <__bss_end__+0x142c44>
    11f0:	09052d06 	stmdbeq	r5, {r1, r2, r8, sl, fp, sp}
    11f4:	060d052f 	streq	r0, [sp], -pc, lsr #10
    11f8:	2d0a0501 	cfstr32cs	mvfx0, [sl, #-4]
    11fc:	052f1005 	streq	r1, [pc, #-5]!	; 11ff <__code_start__-0x6e01>
    1200:	052d060a 	streq	r0, [sp, #-1546]!	; 0xfffff9f6
    1204:	0d052f09 	stceq	15, cr2, [r5, #-36]	; 0xffffffdc
    1208:	0a050106 	beq	141628 <__bss_end__+0x137438>
    120c:	2f10052d 	svccs	0x0010052d
    1210:	2d060a05 	vstrcs	s0, [r6, #-20]	; 0xffffffec
    1214:	05130905 	ldreq	r0, [r3, #-2309]	; 0xfffff6fb
    1218:	05010610 	streq	r0, [r1, #-1552]	; 0xfffff9f0
    121c:	052d060a 	streq	r0, [sp, #-1546]!	; 0xfffff9f6
    1220:	01321505 	teqeq	r2, r5, lsl #10
    1224:	05144a01 	ldreq	r4, [r4, #-2561]	; 0xfffff5ff
    1228:	0a052f02 	beq	14ce38 <__bss_end__+0x142c48>
    122c:	2e730306 	cdpcs	3, 7, cr0, cr3, cr6, {0}
    1230:	01000802 	tsteq	r0, r2, lsl #16
    1234:	00007d01 	andeq	r7, r0, r1, lsl #26
    1238:	65000300 	strvs	r0, [r0, #-768]	; 0xfffffd00
    123c:	02000000 	andeq	r0, r0, #0, 0
    1240:	0d0efb01 	vstreq	d15, [lr, #-4]
    1244:	01010100 	mrseq	r0, (UNDEF: 17)
    1248:	00000001 	andeq	r0, r0, r1
    124c:	01000001 	tsteq	r0, r1
    1250:	74732f2e 	ldrbtvc	r2, [r3], #-3886	; 0xfffff0d2
    1254:	2d666661 	stclcs	6, cr6, [r6, #-388]!	; 0xfffffe7c
    1258:	00637273 	rsbeq	r7, r3, r3, ror r2
    125c:	6573552f 	ldrbvs	r5, [r3, #-1327]!	; 0xfffffad1
    1260:	6d2f7372 	stcvs	3, cr7, [pc, #-456]!	; 10a0 <__code_start__-0x6f60>
    1264:	73656c69 	cmnvc	r5, #26880	; 0x6900
    1268:	756f532f 	strbvc	r5, [pc, #-815]!	; f41 <__code_start__-0x70bf>
    126c:	2f656372 	svccs	0x00656372
    1270:	34327363 	ldrtcc	r7, [r2], #-867	; 0xfffffc9d
    1274:	2f786c30 	svccs	0x00786c30
    1278:	7062696c 	rsbvc	r6, r2, ip, ror #18
    127c:	6e692f69 	cdpvs	15, 6, cr2, cr9, cr9, {3}
    1280:	64756c63 	ldrbtvs	r6, [r5], #-3171	; 0xfffff39d
    1284:	63000065 	movwvs	r0, #101	; 0x65
    1288:	6f747375 	svcvs	0x00747375
    128c:	6f6c2d6d 	svcvs	0x006c2d6d
    1290:	72656461 	rsbvc	r6, r5, #1627389952	; 0x61000000
    1294:	0100632e 	tsteq	r0, lr, lsr #6
    1298:	70720000 	rsbsvc	r0, r2, r0
    129c:	00682e69 	rsbeq	r2, r8, r9, ror #28
    12a0:	00000002 	andeq	r0, r0, r2
    12a4:	05001a05 	streq	r1, [r0, #-2565]	; 0xfffff5fb
    12a8:	008f4802 	addeq	r4, pc, r2, lsl #16
    12ac:	01051500 	tsteq	r5, r0, lsl #10
    12b0:	00020214 	andeq	r0, r2, r4, lsl r2
    12b4:	01140101 	tsteq	r4, r1, lsl #2
    12b8:	00030000 	andeq	r0, r3, r0
    12bc:	0000005e 	andeq	r0, r0, lr, asr r0
    12c0:	0efb0102 	cdpeq	1, 15, cr0, cr11, cr2, {0}
    12c4:	0101000d 	tsteq	r1, sp
    12c8:	00000101 	andeq	r0, r0, r1, lsl #2
    12cc:	00000100 	andeq	r0, r0, r0, lsl #2
    12d0:	732f2e01 			; <UNDEFINED> instruction: 0x732f2e01
    12d4:	66666174 			; <UNDEFINED> instruction: 0x66666174
    12d8:	6372732d 	cmnvs	r2, #-1275068416	; 0xb4000000
    12dc:	73552f00 	cmpvc	r5, #0, 30
    12e0:	2f737265 	svccs	0x00737265
    12e4:	656c696d 	strbvs	r6, [ip, #-2413]!	; 0xfffff693
    12e8:	6f532f73 	svcvs	0x00532f73
    12ec:	65637275 	strbvs	r7, [r3, #-629]!	; 0xfffffd8b
    12f0:	3273632f 	rsbscc	r6, r3, #-1140850688	; 0xbc000000
    12f4:	786c3034 	stmdavc	ip!, {r2, r4, r5, ip, sp}^
    12f8:	62696c2f 	rsbvs	r6, r9, #12032	; 0x2f00
    12fc:	692f6970 	stmdbvs	pc!, {r4, r5, r6, r8, fp, sp, lr}	; <UNPREDICTABLE>
    1300:	756c636e 	strbvc	r6, [ip, #-878]!	; 0xfffffc92
    1304:	00006564 	andeq	r6, r0, r4, ror #10
    1308:	6f626572 	svcvs	0x00626572
    130c:	632e746f 			; <UNDEFINED> instruction: 0x632e746f
    1310:	00000100 	andeq	r0, r0, r0, lsl #2
    1314:	2e697072 	mcrcs	0, 3, r7, cr9, cr2, {3}
    1318:	00020068 	andeq	r0, r2, r8, rrx
    131c:	19050000 	stmdbne	r5, {}	; <UNPREDICTABLE>
    1320:	4c020500 	cfstr32mi	mvfx0, [r2], {-0}
    1324:	0300008f 	movweq	r0, #143	; 0x8f
    1328:	0505010d 	streq	r0, [r5, #-269]	; 0xfffffef3
    132c:	05311313 	ldreq	r1, [r1, #-787]!	; 0xfffffced
    1330:	05010613 	streq	r0, [r1, #-1555]	; 0xfffff9ed
    1334:	1b052f01 	blne	14cf40 <__bss_end__+0x142d50>
    1338:	05058506 	streq	r8, [r5, #-1286]	; 0xfffffafa
    133c:	09051413 	stmdbeq	r5, {r0, r1, r4, sl, ip}
    1340:	0616052f 	ldreq	r0, [r6], -pc, lsr #10
    1344:	06050501 	streq	r0, [r5], -r1, lsl #10
    1348:	060e052f 	streq	r0, [lr], -pc, lsr #10
    134c:	2f050511 	svccs	0x00050511
    1350:	052f0105 	streq	r0, [pc, #-261]!	; 1253 <__code_start__-0x6dad>
    1354:	05300617 	ldreq	r0, [r0, #-1559]!	; 0xfffff9e9
    1358:	6e031305 	cdpvs	3, 0, cr1, cr3, cr5, {0}
    135c:	05131301 	ldreq	r1, [r3, #-769]	; 0xfffffcff
    1360:	0f030617 	svceq	0x00030617
    1364:	03050501 	movweq	r0, #21761	; 0x5501
    1368:	31062e71 	tstcc	r6, r1, ror lr
    136c:	01061305 	tsteq	r6, r5, lsl #6
    1370:	0d030705 	stceq	7, cr0, [r3, #-20]	; 0xffffffec
    1374:	0609052e 	streq	r0, [r9], -lr, lsr #10
    1378:	0306054b 	movweq	r0, #25931	; 0x654b
    137c:	05050176 	streq	r0, [r5, #-374]	; 0xfffffe8a
    1380:	09051413 	stmdbeq	r5, {r0, r1, r4, sl, ip}
    1384:	0616052f 	ldreq	r0, [r6], -pc, lsr #10
    1388:	06050501 	streq	r0, [r5], -r1, lsl #10
    138c:	060e052f 	streq	r0, [lr], -pc, lsr #10
    1390:	2f050511 	svccs	0x00050511
    1394:	0a03062e 	beq	c2c54 <__bss_end__+0xb8a64>
    1398:	4d2f3001 	stcmi	0, cr3, [pc, #-4]!	; 139c <__code_start__-0x6c64>
    139c:	15131313 	ldrne	r1, [r3, #-787]	; 0xfffffced
    13a0:	04020067 	streq	r0, [r2], #-103	; 0xffffff99
    13a4:	0d056701 	stceq	7, cr6, [r5, #-4]
    13a8:	01040200 	mrseq	r0, R12_usr
    13ac:	000a0501 	andeq	r0, sl, r1, lsl #10
    13b0:	01010402 	tsteq	r1, r2, lsl #8
    13b4:	02000505 	andeq	r0, r0, #20971520	; 0x1400000
    13b8:	05010104 	streq	r0, [r1, #-260]	; 0xfffffefc
    13bc:	0402000d 	streq	r0, [r2], #-13
    13c0:	0a050101 	beq	1417cc <__bss_end__+0x1375dc>
    13c4:	01040200 	mrseq	r0, R12_usr
    13c8:	000a0201 	andeq	r0, sl, r1, lsl #4
    13cc:	01fa0101 	mvnseq	r0, r1, lsl #2
    13d0:	00030000 	andeq	r0, r3, r0
    13d4:	0000005d 	andeq	r0, r0, sp, asr r0
    13d8:	0efb0102 	cdpeq	1, 15, cr0, cr11, cr2, {0}
    13dc:	0101000d 	tsteq	r1, sp
    13e0:	00000101 	andeq	r0, r0, r1, lsl #2
    13e4:	00000100 	andeq	r0, r0, r0, lsl #2
    13e8:	732f2e01 			; <UNDEFINED> instruction: 0x732f2e01
    13ec:	66666174 			; <UNDEFINED> instruction: 0x66666174
    13f0:	6372732d 	cmnvs	r2, #-1275068416	; 0xb4000000
    13f4:	73552f00 	cmpvc	r5, #0, 30
    13f8:	2f737265 	svccs	0x00737265
    13fc:	656c696d 	strbvs	r6, [ip, #-2413]!	; 0xfffff693
    1400:	6f532f73 	svcvs	0x00532f73
    1404:	65637275 	strbvs	r7, [r3, #-629]!	; 0xfffffd8b
    1408:	3273632f 	rsbscc	r6, r3, #-1140850688	; 0xbc000000
    140c:	786c3034 	stmdavc	ip!, {r2, r4, r5, ip, sp}^
    1410:	62696c2f 	rsbvs	r6, r9, #12032	; 0x2f00
    1414:	692f6970 	stmdbvs	pc!, {r4, r5, r6, r8, fp, sp, lr}	; <UNPREDICTABLE>
    1418:	756c636e 	strbvc	r6, [ip, #-878]!	; 0xfffffc92
    141c:	00006564 	andeq	r6, r0, r4, ror #10
    1420:	656d6974 	strbvs	r6, [sp, #-2420]!	; 0xfffff68c
    1424:	00632e72 	rsbeq	r2, r3, r2, ror lr
    1428:	72000001 	andvc	r0, r0, #1, 0
    142c:	682e6970 	stmdavs	lr!, {r4, r5, r6, r8, fp, sp, lr}
    1430:	00000200 	andeq	r0, r0, r0, lsl #4
    1434:	00230500 	eoreq	r0, r3, r0, lsl #10
    1438:	8fd80205 	svchi	0x00d80205
    143c:	05150000 	ldreq	r0, [r5, #-0]
    1440:	0c051305 	stceq	3, cr1, [r5], {5}
    1444:	1f050106 	svcne	0x00050106
    1448:	05056a06 	streq	r6, [r5, #-2566]	; 0xfffff5fa
    144c:	061f0515 			; <UNDEFINED> instruction: 0x061f0515
    1450:	3105050f 	tstcc	r5, pc, lsl #10
    1454:	0a052f06 	beq	14d074 <__bss_end__+0x142e84>
    1458:	05017703 	streq	r7, [r1, #-1795]	; 0xfffff8fd
    145c:	0c051305 	stceq	3, cr1, [r5], {5}
    1460:	05660106 	strbeq	r0, [r6, #-262]!	; 0xfffffefa
    1464:	09030605 	stmdbeq	r3, {r0, r2, r9, sl}
    1468:	01052f01 	tsteq	r5, r1, lsl #30
    146c:	1c051306 	stcne	3, cr1, [r5], {6}
    1470:	05056806 	streq	r6, [r5, #-2054]	; 0xfffff7fa
    1474:	030a0513 	movweq	r0, #42259	; 0xa513
    1478:	05050176 	streq	r0, [r5, #-374]	; 0xfffffe8a
    147c:	061c0515 			; <UNDEFINED> instruction: 0x061c0515
    1480:	05052e18 	streq	r2, [r5, #-3608]	; 0xfffff1e8
    1484:	062e7a03 	strteq	r7, [lr], -r3, lsl #20
    1488:	030a052f 	movweq	r0, #42287	; 0xa52f
    148c:	05050177 	streq	r0, [r5, #-375]	; 0xfffffe89
    1490:	060c0513 			; <UNDEFINED> instruction: 0x060c0513
    1494:	05056601 	streq	r6, [r5, #-1537]	; 0xfffff9ff
    1498:	01090306 	tsteq	r9, r6, lsl #6
    149c:	0501062f 	streq	r0, [r1, #-1583]	; 0xfffff9d1
    14a0:	0176030c 	cmneq	r6, ip, lsl #6
    14a4:	03060505 	movweq	r0, #25861	; 0x6505
    14a8:	09052e0f 	stmdbeq	r5, {r0, r1, r2, r3, r9, sl, fp, sp}
    14ac:	030a0513 	movweq	r0, #42259	; 0xa513
    14b0:	05050174 	streq	r0, [r5, #-372]	; 0xfffffe8c
    14b4:	0a052f15 	beq	14d110 <__bss_end__+0x142f20>
    14b8:	05017703 	streq	r7, [r1, #-1795]	; 0xfffff8fd
    14bc:	0c051305 	stceq	3, cr1, [r5], {5}
    14c0:	05660106 	strbeq	r0, [r6, #-262]!	; 0xfffffefa
    14c4:	09030605 	stmdbeq	r3, {r0, r2, r9, sl}
    14c8:	06110501 	ldreq	r0, [r1], -r1, lsl #10
    14cc:	0305051a 	movweq	r0, #21786	; 0x551a
    14d0:	2f062e78 	svccs	0x00062e78
    14d4:	05190905 	ldreq	r0, [r9, #-2309]	; 0xfffff6fb
    14d8:	0501060c 	streq	r0, [r1, #-1548]	; 0xfffff9f4
    14dc:	0587061c 	streq	r0, [r7, #1564]	; 0x61c
    14e0:	1c051305 	stcne	3, cr1, [r5], {5}
    14e4:	05051106 	streq	r1, [r5, #-262]	; 0xfffffefa
    14e8:	06054a2f 	streq	r4, [r5], -pc, lsr #20
    14ec:	2e760306 	cdpcs	3, 7, cr0, cr6, cr6, {0}
    14f0:	05130505 	ldreq	r0, [r3, #-1285]	; 0xfffffafb
    14f4:	0176030a 	cmneq	r6, sl, lsl #6
    14f8:	2f150505 	svccs	0x00150505
    14fc:	77030a05 	strvc	r0, [r3, -r5, lsl #20]
    1500:	13050501 	movwne	r0, #21761	; 0x5501
    1504:	01060c05 	tsteq	r6, r5, lsl #24
    1508:	06050566 	streq	r0, [r5], -r6, ror #10
    150c:	2f010903 	svccs	0x00010903
    1510:	0c050106 	stfeqs	f0, [r5], {6}
    1514:	05017603 	streq	r7, [r1, #-1539]	; 0xfffff9fd
    1518:	0f030605 	svceq	0x00030605
    151c:	1309052e 	movwne	r0, #38190	; 0x952e
    1520:	74030a05 	strvc	r0, [r3], #-2565	; 0xfffff5fb
    1524:	15050501 	strne	r0, [r5, #-1281]	; 0xfffffaff
    1528:	030a052f 	movweq	r0, #42287	; 0xa52f
    152c:	05050177 	streq	r0, [r5, #-375]	; 0xfffffe89
    1530:	060c0513 			; <UNDEFINED> instruction: 0x060c0513
    1534:	05056601 	streq	r6, [r5, #-1537]	; 0xfffff9ff
    1538:	01090306 	tsteq	r9, r6, lsl #6
    153c:	1a061105 	bne	185958 <__bss_end__+0x17b768>
    1540:	78030505 	stmdavc	r3, {r0, r2, r8, sl}
    1544:	052f062e 	streq	r0, [pc, #-1582]!	; f1e <__code_start__-0x70e2>
    1548:	0c051909 			; <UNDEFINED> instruction: 0x0c051909
    154c:	1e050106 	adfnes	f0, f5, f6
    1550:	05058a06 	streq	r8, [r5, #-2566]	; 0xfffff5fa
    1554:	0e060513 	mcreq	5, 0, r0, cr6, cr3, {0}
    1558:	05130505 	ldreq	r0, [r3, #-1285]	; 0xfffffafb
    155c:	0514061e 	ldreq	r0, [r4, #-1566]	; 0xfffff9e2
    1560:	05662c05 	strbeq	r2, [r6, #-3077]!	; 0xfffff3fb
    1564:	76030606 	strvc	r0, [r3], -r6, lsl #12
    1568:	1305052e 	movwne	r0, #21806	; 0x552e
    156c:	76030a05 	strvc	r0, [r3], -r5, lsl #20
    1570:	15050501 	strne	r0, [r5, #-1281]	; 0xfffffaff
    1574:	030a052f 	movweq	r0, #42287	; 0xa52f
    1578:	05050177 	streq	r0, [r5, #-375]	; 0xfffffe89
    157c:	060c0513 			; <UNDEFINED> instruction: 0x060c0513
    1580:	05056601 	streq	r6, [r5, #-1537]	; 0xfffff9ff
    1584:	01090306 	tsteq	r9, r6, lsl #6
    1588:	0501062f 	streq	r0, [r1, #-1583]	; 0xfffff9d1
    158c:	0176030c 	cmneq	r6, ip, lsl #6
    1590:	03060505 	movweq	r0, #25861	; 0x6505
    1594:	09052e0f 	stmdbeq	r5, {r0, r1, r2, r3, r9, sl, fp, sp}
    1598:	030a0513 	movweq	r0, #42259	; 0xa513
    159c:	05050174 	streq	r0, [r5, #-372]	; 0xfffffe8c
    15a0:	0a052f15 	beq	14d1fc <__bss_end__+0x14300c>
    15a4:	05017703 	streq	r7, [r1, #-1795]	; 0xfffff8fd
    15a8:	0c051305 	stceq	3, cr1, [r5], {5}
    15ac:	05660106 	strbeq	r0, [r6, #-262]!	; 0xfffffefa
    15b0:	09030605 	stmdbeq	r3, {r0, r2, r9, sl}
    15b4:	06110501 	ldreq	r0, [r1], -r1, lsl #10
    15b8:	0305051a 	movweq	r0, #21786	; 0x551a
    15bc:	2f062e78 	svccs	0x00062e78
    15c0:	05190905 	ldreq	r0, [r9, #-2309]	; 0xfffff6fb
    15c4:	0201060c 	andeq	r0, r1, #12, 12	; 0xc00000
    15c8:	01010008 	tsteq	r1, r8
    15cc:	00000204 	andeq	r0, r0, r4, lsl #4
    15d0:	00c80003 	sbceq	r0, r8, r3
    15d4:	01020000 	mrseq	r0, (UNDEF: 2)
    15d8:	000d0efb 	strdeq	r0, [sp], -fp
    15dc:	01010101 	tsteq	r1, r1, lsl #2
    15e0:	01000000 	mrseq	r0, (UNDEF: 0)
    15e4:	2f010000 	svccs	0x00010000
    15e8:	656d6f68 	strbvs	r6, [sp, #-3944]!	; 0xfffff098
    15ec:	676e652f 	strbvs	r6, [lr, -pc, lsr #10]!
    15f0:	2f72656c 	svccs	0x0072656c
    15f4:	73616c63 	cmnvc	r1, #25344	; 0x6300
    15f8:	73632f73 	cmnvc	r3, #460	; 0x1cc
    15fc:	65303431 	ldrvs	r3, [r0, #-1073]!	; 0xfffffbcf
    1600:	7732322d 	ldrvc	r3, [r2, -sp, lsr #4]!
    1604:	2f2f6e69 	svccs	0x002f6e69
    1608:	7062696c 	rsbvc	r6, r2, ip, ror #18
    160c:	6e692f69 	cdpvs	15, 6, cr2, cr9, cr9, {3}
    1610:	64756c63 	ldrbtvs	r6, [r5], #-3171	; 0xfffff39d
    1614:	752f0065 	strvc	r0, [pc, #-101]!	; 15b7 <__code_start__-0x6a49>
    1618:	732f7273 			; <UNDEFINED> instruction: 0x732f7273
    161c:	65726168 	ldrbvs	r6, [r2, #-360]!	; 0xfffffe98
    1620:	6363672f 	cmnvs	r3, #12320768	; 0xbc0000
    1624:	6d72612d 	ldfvse	f6, [r2, #-180]!	; 0xffffff4c
    1628:	6e6f6e2d 	cdpvs	14, 6, cr6, cr15, cr13, {1}
    162c:	61652d65 	cmnvs	r5, r5, ror #26
    1630:	312d6962 			; <UNDEFINED> instruction: 0x312d6962
    1634:	2d332e30 	ldccs	14, cr2, [r3, #-192]!	; 0xffffff40
    1638:	31323032 	teqcc	r2, r2, lsr r0
    163c:	2f30312e 	svccs	0x0030312e
    1640:	2f62696c 	svccs	0x0062696c
    1644:	2f636367 	svccs	0x00636367
    1648:	2d6d7261 	sfmcs	f7, 2, [sp, #-388]!	; 0xfffffe7c
    164c:	656e6f6e 	strbvs	r6, [lr, #-3950]!	; 0xfffff092
    1650:	6261652d 	rsbvs	r6, r1, #188743680	; 0xb400000
    1654:	30312f69 	eorscc	r2, r1, r9, ror #30
    1658:	312e332e 			; <UNDEFINED> instruction: 0x312e332e
    165c:	636e692f 	cmnvs	lr, #770048	; 0xbc000
    1660:	6564756c 	strbvs	r7, [r4, #-1388]!	; 0xfffffa94
    1664:	61750000 	cmnvs	r5, r0
    1668:	632e7472 			; <UNDEFINED> instruction: 0x632e7472
    166c:	00000000 	andeq	r0, r0, r0
    1670:	74726175 	ldrbtvc	r6, [r2], #-373	; 0xfffffe8b
    1674:	0100682e 	tsteq	r0, lr, lsr #16
    1678:	70720000 	rsbsvc	r0, r2, r0
    167c:	00682e69 	rsbeq	r2, r8, r9, ror #28
    1680:	67000001 	strvs	r0, [r0, -r1]
    1684:	2e6f6970 			; <UNDEFINED> instruction: 0x2e6f6970
    1688:	00010068 	andeq	r0, r1, r8, rrx
    168c:	64747300 	ldrbtvs	r7, [r4], #-768	; 0xfffffd00
    1690:	2d746e69 	ldclcs	14, cr6, [r4, #-420]!	; 0xfffffe5c
    1694:	2e636367 	cdpcs	3, 6, cr6, cr3, cr7, {3}
    1698:	00020068 	andeq	r0, r2, r8, rrx
    169c:	39050000 	stmdbcc	r5, {}	; <UNPREDICTABLE>
    16a0:	f4020500 	vst3.8	{d0,d2,d4}, [r2], r0
    16a4:	03000090 	movweq	r0, #144	; 0x90
    16a8:	01060130 	tsteq	r6, r0, lsr r1
    16ac:	67060505 	strvs	r0, [r6, -r5, lsl #10]
    16b0:	01061105 	tsteq	r6, r5, lsl #2
    16b4:	052e0505 	streq	r0, [lr, #-1285]!	; 0xfffffafb
    16b8:	38056701 	stmdacc	r5, {r0, r8, r9, sl, sp, lr}
    16bc:	01062906 	tsteq	r6, r6, lsl #18
    16c0:	67060505 	strvs	r0, [r6, -r5, lsl #10]
    16c4:	01061105 	tsteq	r6, r5, lsl #2
    16c8:	052e0505 	streq	r0, [lr, #-1285]!	; 0xfffffafb
    16cc:	16056701 	strne	r6, [r5], -r1, lsl #14
    16d0:	2e150306 	cdpcs	3, 1, cr0, cr5, cr6, {0}
    16d4:	67350505 	ldrvs	r0, [r5, -r5, lsl #10]!
    16d8:	03683568 	cmneq	r8, #104, 10	; 0x1a000000
    16dc:	6b852e0c 	blvs	fe14cf14 <__bss_end__+0xfe142d24>
    16e0:	0c036969 			; <UNDEFINED> instruction: 0x0c036969
    16e4:	676b1366 	strbvs	r1, [fp, -r6, ror #6]!
    16e8:	2f060105 	svccs	0x00060105
    16ec:	08061905 	stmdaeq	r6, {r0, r2, r8, fp, ip}
    16f0:	34050525 	strcc	r0, [r5], #-1317	; 0xfffffadb
    16f4:	01060d05 	tsteq	r6, r5, lsl #26
    16f8:	054c0105 	strbeq	r0, [ip, #-261]	; 0xfffffefb
    16fc:	05670619 	strbeq	r0, [r7, #-1561]!	; 0xfffff9e7
    1700:	0d053605 	stceq	6, cr3, [r5, #-20]	; 0xffffffec
    1704:	28050106 	stmdacs	r5, {r1, r2, r8}
    1708:	3001054a 	andcc	r0, r1, sl, asr #10
    170c:	87061505 	strhi	r1, [r6, -r5, lsl #10]
    1710:	2f2f0505 	svccs	0x002f0505
    1714:	02000905 	andeq	r0, r0, #81920	; 0x14000
    1718:	05130104 	ldreq	r0, [r3, #-260]	; 0xfffffefc
    171c:	0402000a 	streq	r0, [r2], #-10
    1720:	0c051101 	stfeqs	f1, [r5], {1}
    1724:	01040200 	mrseq	r0, R12_usr
    1728:	0a050106 	beq	141b48 <__bss_end__+0x137958>
    172c:	01040200 	mrseq	r0, R12_usr
    1730:	0605052e 	streq	r0, [r5], -lr, lsr #10
    1734:	060e054c 	streq	r0, [lr], -ip, asr #10
    1738:	4a090501 	bmi	242b44 <__bss_end__+0x238954>
    173c:	2f060505 	svccs	0x00060505
    1740:	0601052f 	streq	r0, [r1], -pc, lsr #10
    1744:	061c0513 			; <UNDEFINED> instruction: 0x061c0513
    1748:	05010667 	streq	r0, [r1, #-1639]	; 0xfffff999
    174c:	2f4b0605 	svccs	0x004b0605
    1750:	02000905 	andeq	r0, r0, #81920	; 0x14000
    1754:	05130104 	ldreq	r0, [r3, #-260]	; 0xfffffefc
    1758:	0402000a 	streq	r0, [r2], #-10
    175c:	0c051101 	stfeqs	f1, [r5], {1}
    1760:	01040200 	mrseq	r0, R12_usr
    1764:	0a050106 	beq	141b84 <__bss_end__+0x137994>
    1768:	01040200 	mrseq	r0, R12_usr
    176c:	0605052e 	streq	r0, [r5], -lr, lsr #10
    1770:	0105674c 	tsteq	r5, ip, asr #14
    1774:	19052f06 	stmdbne	r5, {r1, r2, r8, r9, sl, fp, sp}
    1778:	1b054c06 	blne	154798 <__bss_end__+0x14a5a8>
    177c:	2e2a052e 	cfsh64cs	mvdx0, mvdx10, #30
    1780:	01063105 	tsteq	r6, r5, lsl #2
    1784:	052e4205 	streq	r4, [lr, #-517]!	; 0xfffffdfb
    1788:	0531061c 	ldreq	r0, [r1, #-1564]!	; 0xfffff9e4
    178c:	09032f05 	stmdbeq	r3, {r0, r2, r8, r9, sl, fp, sp}
    1790:	060e052e 	streq	r0, [lr], -lr, lsr #10
    1794:	4a210501 	bmi	842ba0 <__bss_end__+0x8389b0>
    1798:	0a030105 	beq	c1bb4 <__bss_end__+0xb79c4>
    179c:	061a052e 	ldreq	r0, [sl], -lr, lsr #10
    17a0:	00090568 	andeq	r0, r9, r8, ror #10
    17a4:	30010402 	andcc	r0, r1, r2, lsl #8
    17a8:	02000a05 	andeq	r0, r0, #20480	; 0x5000
    17ac:	05110104 	ldreq	r0, [r1, #-260]	; 0xfffffefc
    17b0:	0402000c 	streq	r0, [r2], #-12
    17b4:	05010601 	streq	r0, [r1, #-1537]	; 0xfffff9ff
    17b8:	0402000a 	streq	r0, [r2], #-10
    17bc:	19052e01 	stmdbne	r5, {r0, r9, sl, fp, sp}
    17c0:	7ee80306 	cdpvc	3, 14, cr0, cr8, cr6, {0}
    17c4:	2f050566 	svccs	0x00050566
    17c8:	05672f2f 	strbeq	r2, [r7, #-3887]!	; 0xfffff0d1
    17cc:	022f0601 	eoreq	r0, pc, #1048576	; 0x100000
    17d0:	01010004 	tsteq	r1, r4
    17d4:	00000392 	muleq	r0, r2, r3
    17d8:	00b70003 	adcseq	r0, r7, r3
    17dc:	01020000 	mrseq	r0, (UNDEF: 2)
    17e0:	000d0efb 	strdeq	r0, [sp], -fp
    17e4:	01010101 	tsteq	r1, r1, lsl #2
    17e8:	01000000 	mrseq	r0, (UNDEF: 0)
    17ec:	2f010000 	svccs	0x00010000
    17f0:	656d6f68 	strbvs	r6, [sp, #-3944]!	; 0xfffff098
    17f4:	676e652f 	strbvs	r6, [lr, -pc, lsr #10]!
    17f8:	2f72656c 	svccs	0x0072656c
    17fc:	73616c63 	cmnvc	r1, #25344	; 0x6300
    1800:	73632f73 	cmnvc	r3, #460	; 0x1cc
    1804:	65303431 	ldrvs	r3, [r0, #-1073]!	; 0xfffffbcf
    1808:	7732322d 	ldrvc	r3, [r2, -sp, lsr #4]!
    180c:	2f2f6e69 	svccs	0x002f6e69
    1810:	7062696c 	rsbvc	r6, r2, ip, ror #18
    1814:	6e692f69 	cdpvs	15, 6, cr2, cr9, cr9, {3}
    1818:	64756c63 	ldrbtvs	r6, [r5], #-3171	; 0xfffff39d
    181c:	752f0065 	strvc	r0, [pc, #-101]!	; 17bf <__code_start__-0x6841>
    1820:	732f7273 			; <UNDEFINED> instruction: 0x732f7273
    1824:	65726168 	ldrbvs	r6, [r2, #-360]!	; 0xfffffe98
    1828:	6363672f 	cmnvs	r3, #12320768	; 0xbc0000
    182c:	6d72612d 	ldfvse	f6, [r2, #-180]!	; 0xffffff4c
    1830:	6e6f6e2d 	cdpvs	14, 6, cr6, cr15, cr13, {1}
    1834:	61652d65 	cmnvs	r5, r5, ror #26
    1838:	312d6962 			; <UNDEFINED> instruction: 0x312d6962
    183c:	2d332e30 	ldccs	14, cr2, [r3, #-192]!	; 0xffffff40
    1840:	31323032 	teqcc	r2, r2, lsr r0
    1844:	2f30312e 	svccs	0x0030312e
    1848:	2f62696c 	svccs	0x0062696c
    184c:	2f636367 	svccs	0x00636367
    1850:	2d6d7261 	sfmcs	f7, 2, [sp, #-388]!	; 0xfffffe7c
    1854:	656e6f6e 	strbvs	r6, [lr, #-3950]!	; 0xfffff092
    1858:	6261652d 	rsbvs	r6, r1, #188743680	; 0xb400000
    185c:	30312f69 	eorscc	r2, r1, r9, ror #30
    1860:	312e332e 			; <UNDEFINED> instruction: 0x312e332e
    1864:	636e692f 	cmnvs	lr, #770048	; 0xbc000
    1868:	6564756c 	strbvs	r7, [r4, #-1388]!	; 0xfffffa94
    186c:	6d6b0000 	stclvs	0, cr0, [fp, #-0]
    1870:	6f6c6c61 	svcvs	0x006c6c61
    1874:	00632e63 	rsbeq	r2, r3, r3, ror #28
    1878:	72000000 	andvc	r0, r0, #0, 0
    187c:	682e6970 	stmdavs	lr!, {r4, r5, r6, r8, fp, sp, lr}
    1880:	00000100 	andeq	r0, r0, r0, lsl #2
    1884:	69647473 	stmdbvs	r4!, {r0, r1, r4, r5, r6, sl, ip, sp, lr}^
    1888:	672d746e 	strvs	r7, [sp, -lr, ror #8]!
    188c:	682e6363 	stmdavs	lr!, {r0, r1, r5, r6, r8, r9, sp, lr}
    1890:	00000200 	andeq	r0, r0, r0, lsl #4
    1894:	001e0500 	andseq	r0, lr, r0, lsl #10
    1898:	92e40205 	rscls	r0, r4, #1342177280	; 0x50000000
    189c:	27030000 	strcs	r0, [r3, -r0]
    18a0:	01200501 			; <UNDEFINED> instruction: 0x01200501
    18a4:	01062d05 	tsteq	r6, r5, lsl #26
    18a8:	83062005 	movwhi	r2, #24581	; 0x6005
    18ac:	05012205 	streq	r2, [r1, #-517]	; 0xfffffdfb
    18b0:	05010635 	streq	r0, [r1, #-1589]	; 0xfffff9cb
    18b4:	0583061e 	streq	r0, [r3, #1566]	; 0x61e
    18b8:	2d050120 	stfcss	f0, [r5, #-128]	; 0xffffff80
    18bc:	42050106 	andmi	r0, r5, #-2147483647	; 0x80000001
    18c0:	01068506 	tsteq	r6, r6, lsl #10
    18c4:	4b060505 	blmi	182ce0 <__bss_end__+0x178af0>
    18c8:	2e060114 	mcrcs	1, 0, r0, cr6, cr4, {0}
    18cc:	02040200 	andeq	r0, r4, #0, 4
    18d0:	02002e06 	andeq	r2, r0, #96	; 0x60
    18d4:	00010204 	andeq	r0, r1, r4, lsl #4
    18d8:	15020402 	strne	r0, [r2, #-1026]	; 0xfffffbfe
    18dc:	02000d05 	andeq	r0, r0, #320	; 0x140
    18e0:	01060204 	tsteq	r6, r4, lsl #4
    18e4:	02000705 	andeq	r0, r0, #1310720	; 0x140000
    18e8:	054a0204 	strbeq	r0, [sl, #-516]	; 0xfffffdfc
    18ec:	054b0609 	strbeq	r0, [fp, #-1545]	; 0xfffff9f7
    18f0:	17051505 	strne	r1, [r5, -r5, lsl #10]
    18f4:	10050106 	andne	r0, r5, r6, lsl #2
    18f8:	0605054a 	streq	r0, [r5], -sl, asr #10
    18fc:	061b052f 	ldreq	r0, [fp], -pc, lsr #10
    1900:	2e0e0501 	cfsh32cs	mvfx0, mvfx14, #1
    1904:	052f0105 	streq	r0, [pc, #-261]!	; 1807 <__code_start__-0x67f9>
    1908:	04020005 	streq	r0, [r2], #-5
    190c:	77030601 	strvc	r0, [r3, -r1, lsl #12]
    1910:	0402004a 	streq	r0, [r2], #-74	; 0xffffffb6
    1914:	02000101 	andeq	r0, r0, #1073741824	; 0x40000000
    1918:	9e060104 	adflss	f0, f6, f4
    191c:	01040200 	mrseq	r0, R12_usr
    1920:	0402002e 	streq	r0, [r2], #-46	; 0xffffffd2
    1924:	052e0601 	streq	r0, [lr, #-1537]!	; 0xfffff9ff
    1928:	06013209 	streq	r3, [r1], -r9, lsl #4
    192c:	2e062ed6 	mcrcs	14, 0, r2, cr6, cr6, {6}
    1930:	05de1905 	ldrbeq	r1, [lr, #2309]	; 0x905
    1934:	05142f05 	ldreq	r2, [r4, #-3845]	; 0xfffff0fb
    1938:	05010608 	streq	r0, [r1, #-1544]	; 0xfffff9f8
    193c:	09054a07 	stmdbeq	r5, {r0, r1, r2, r9, fp, lr}
    1940:	05054b06 	streq	r4, [r5, #-2822]	; 0xfffff4fa
    1944:	060c0513 			; <UNDEFINED> instruction: 0x060c0513
    1948:	06050501 	streq	r0, [r5], -r1, lsl #10
    194c:	01051367 	tsteq	r5, r7, ror #6
    1950:	09056706 	stmdbeq	r5, {r1, r2, r8, r9, sl, sp, lr}
    1954:	9e012a06 	vmlals.f32	s4, s2, s12
    1958:	06a52805 	strteq	r2, [r5], r5, lsl #16
    195c:	06050501 	streq	r0, [r5], -r1, lsl #10
    1960:	2e06014b 	adfcssm	f0, f6, #3.0
    1964:	13012e06 	movwne	r2, #7686	; 0x1e06
    1968:	47031805 	strmi	r1, [r3, -r5, lsl #16]
    196c:	13050501 	movwne	r0, #21761	; 0x5501
    1970:	06010601 	streq	r0, [r1], -r1, lsl #12
    1974:	1301150f 	movwne	r1, #5391	; 0x150f
    1978:	01060e05 	tsteq	r6, r5, lsl #28
    197c:	2e2e1605 	cfmadda32cs	mvax0, mvax1, mvfx14, mvfx5
    1980:	03060505 	movweq	r0, #25861	; 0x6505
    1984:	0b050139 	bleq	141e70 <__bss_end__+0x137c80>
    1988:	05050106 	streq	r0, [r5, #-262]	; 0xfffffefa
    198c:	0a054b06 	beq	1545ac <__bss_end__+0x14a3bc>
    1990:	05050106 	streq	r0, [r5, #-262]	; 0xfffffefa
    1994:	0d054b06 	vstreq	d4, [r5, #-24]	; 0xffffffe8
    1998:	07050106 	streq	r0, [r5, -r6, lsl #2]
    199c:	4d01052e 	cfstr32mi	mvfx0, [r1, #-184]	; 0xffffff48
    19a0:	02000505 	andeq	r0, r0, #20971520	; 0x1400000
    19a4:	03060104 	movweq	r0, #24836	; 0x6104
    19a8:	02004a78 	andeq	r4, r0, #120, 20	; 0x78000
    19ac:	00010104 	andeq	r0, r1, r4, lsl #2
    19b0:	06010402 	streq	r0, [r1], -r2, lsl #8
    19b4:	040200ba 	streq	r0, [r2], #-186	; 0xffffff46
    19b8:	052e0601 	streq	r0, [lr, #-1537]!	; 0xfffff9ff
    19bc:	06013409 	streq	r3, [r1], -r9, lsl #8
    19c0:	2e066682 	cfmadd32cs	mvax4, mvfx6, mvfx6, mvfx2
    19c4:	06db2005 	ldrbeq	r2, [fp], r5
    19c8:	06050501 	streq	r0, [r5], -r1, lsl #10
    19cc:	0200014b 	andeq	r0, r0, #-1073741806	; 0xc0000012
    19d0:	004a0204 	subeq	r0, sl, r4, lsl #4
    19d4:	01020402 	tsteq	r2, r2, lsl #8
    19d8:	02040200 	andeq	r0, r4, #0, 4
    19dc:	00120513 	andseq	r0, r2, r3, lsl r5
    19e0:	06020402 	streq	r0, [r2], -r2, lsl #8
    19e4:	04020001 	streq	r0, [r2], #-1
    19e8:	02002e02 	andeq	r2, r0, #2, 28
    19ec:	052e0204 	streq	r0, [lr, #-516]!	; 0xfffffdfc
    19f0:	04020005 	streq	r0, [r2], #-5
    19f4:	002f0602 	eoreq	r0, pc, r2, lsl #12
    19f8:	67020402 	strvs	r0, [r2, -r2, lsl #8]
    19fc:	02000105 	andeq	r0, r0, #1073741825	; 0x40000001
    1a00:	13060204 	movwne	r0, #25092	; 0x6204
    1a04:	02000505 	andeq	r0, r0, #20971520	; 0x1400000
    1a08:	62060104 	andvs	r0, r6, #1
    1a0c:	01040200 	mrseq	r0, R12_usr
    1a10:	04020001 	streq	r0, [r2], #-1
    1a14:	00ba0601 	adcseq	r0, sl, r1, lsl #12
    1a18:	06010402 	streq	r0, [r1], -r2, lsl #8
    1a1c:	033c052e 	teqeq	ip, #192937984	; 0xb800000
    1a20:	01069e0a 	tsteq	r6, sl, lsl #28
    1a24:	4b060505 	blmi	182e40 <__bss_end__+0x178c50>
    1a28:	062e0601 	strteq	r0, [lr], -r1, lsl #12
    1a2c:	0113012e 	tsteq	r3, lr, lsr #2
    1a30:	ad031805 	stcge	8, cr1, [r3, #-20]	; 0xffffffec
    1a34:	0505017f 	streq	r0, [r5, #-383]	; 0xfffffe81
    1a38:	06110513 			; <UNDEFINED> instruction: 0x06110513
    1a3c:	05052e01 	streq	r2, [r5, #-3585]	; 0xfffff1ff
    1a40:	0100d203 	tsteq	r0, r3, lsl #4
    1a44:	05134a06 	ldreq	r4, [r3, #-2566]	; 0xfffff5fa
    1a48:	7fa30318 	svcvc	0x00a30318
    1a4c:	13050501 	movwne	r0, #21761	; 0x5501
    1a50:	01061605 	tsteq	r6, r5, lsl #12
    1a54:	0605054a 	streq	r0, [r5], -sl, asr #10
    1a58:	0100e103 	tsteq	r0, r3, lsl #2
    1a5c:	01061205 	tsteq	r6, r5, lsl #4
    1a60:	4b060505 	blmi	182e7c <__bss_end__+0x178c8c>
    1a64:	a9031805 	stmdbge	r3, {r0, r2, fp, ip}
    1a68:	0505017f 	streq	r0, [r5, #-383]	; 0xfffffe81
    1a6c:	18050113 	stmdane	r5, {r0, r1, r4, r8}
    1a70:	1305050e 	movwne	r0, #21774	; 0x550e
    1a74:	01061105 	tsteq	r6, r5, lsl #2
    1a78:	1505052e 	strne	r0, [r5, #-1326]	; 0xfffffad2
    1a7c:	13014a06 	movwne	r4, #6662	; 0x1a06
    1a80:	01060e05 	tsteq	r6, r5, lsl #28
    1a84:	2e16052e 	cfmul64cs	mvdx0, mvdx6, mvdx14
    1a88:	0605052e 	streq	r0, [r5], -lr, lsr #10
    1a8c:	0100d603 	tsteq	r0, r3, lsl #12
    1a90:	03180501 	tsteq	r8, #4194304	; 0x400000
    1a94:	05017f9f 	streq	r7, [r1, #-3999]	; 0xfffff061
    1a98:	19051305 	stmdbne	r5, {r0, r2, r8, r9, ip}
    1a9c:	052e0106 	streq	r0, [lr, #-262]!	; 0xfffffefa
    1aa0:	00e00305 	rsceq	r0, r0, r5, lsl #6
    1aa4:	04020001 	streq	r0, [r2], #-1
    1aa8:	004a0602 	subeq	r0, sl, r2, lsl #12
    1aac:	14020402 	strne	r0, [r2], #-1026	; 0xfffffbfe
    1ab0:	02000a05 	andeq	r0, r0, #20480	; 0x5000
    1ab4:	01060204 	tsteq	r6, r4, lsl #4
    1ab8:	02000505 	andeq	r0, r0, #20971520	; 0x1400000
    1abc:	4b060204 	blmi	1822d4 <__bss_end__+0x1780e4>
    1ac0:	02000c05 	andeq	r0, r0, #1280	; 0x500
    1ac4:	01060204 	tsteq	r6, r4, lsl #4
    1ac8:	02000105 	andeq	r0, r0, #1073741825	; 0x40000001
    1acc:	052f0204 	streq	r0, [pc, #-516]!	; 18d0 <__code_start__-0x6730>
    1ad0:	04020005 	streq	r0, [r2], #-5
    1ad4:	73030601 	movwvc	r0, #13825	; 0x3601
    1ad8:	0402004a 	streq	r0, [r2], #-74	; 0xffffffb6
    1adc:	02000101 	andeq	r0, r0, #1073741824	; 0x40000000
    1ae0:	9e060104 	adflss	f0, f6, f4
    1ae4:	01040200 	mrseq	r0, R12_usr
    1ae8:	0402002e 	streq	r0, [r2], #-46	; 0xffffffd2
    1aec:	002e0601 	eoreq	r0, lr, r1, lsl #12
    1af0:	2f010402 	svccs	0x00010402
    1af4:	01040200 	mrseq	r0, R12_usr
    1af8:	0402002e 	streq	r0, [r2], #-46	; 0xffffffd2
    1afc:	b103d601 	tstlt	r3, r1, lsl #12
    1b00:	06012e7f 			; <UNDEFINED> instruction: 0x06012e7f
    1b04:	062e2e82 	strteq	r2, [lr], -r2, lsl #29
    1b08:	002e062e 	eoreq	r0, lr, lr, lsr #12
    1b0c:	06010402 	streq	r0, [r1], -r2, lsl #8
    1b10:	0100d703 	tsteq	r0, r3, lsl #14
    1b14:	01040200 	mrseq	r0, R12_usr
    1b18:	0402002e 	streq	r0, [r2], #-46	; 0xffffffd2
    1b1c:	1505d601 	strne	sp, [r5, #-1537]	; 0xfffff9ff
    1b20:	17057b08 	strne	r7, [r5, -r8, lsl #22]
    1b24:	31160501 	tstcc	r6, r1, lsl #10
    1b28:	05011805 	streq	r1, [r1, #-2053]	; 0xfffff7fb
    1b2c:	0501061d 	streq	r0, [r1, #-1565]	; 0xfffff9e3
    1b30:	1905662b 	stmdbne	r5, {r0, r1, r3, r5, r9, sl, sp, lr}
    1b34:	05054d06 	streq	r4, [r5, #-3334]	; 0xfffff2fa
    1b38:	060c0513 			; <UNDEFINED> instruction: 0x060c0513
    1b3c:	4a070501 	bmi	1c2f48 <__bss_end__+0x1b8d58>
    1b40:	02002505 	andeq	r2, r0, #20971520	; 0x1400000
    1b44:	054a0104 	strbeq	r0, [sl, #-260]	; 0xfffffefc
    1b48:	0402001e 	streq	r0, [r2], #-30	; 0xffffffe2
    1b4c:	09054a01 	stmdbeq	r5, {r0, r9, fp, lr}
    1b50:	05054b06 	streq	r4, [r5, #-2822]	; 0xfffff4fa
    1b54:	060a0513 			; <UNDEFINED> instruction: 0x060a0513
    1b58:	63190501 	tstvs	r9, #4194304	; 0x400000
    1b5c:	4c060905 			; <UNDEFINED> instruction: 0x4c060905
    1b60:	069e0601 	ldreq	r0, [lr], r1, lsl #12
    1b64:	000a022e 	andeq	r0, sl, lr, lsr #4
    1b68:	02890101 	addeq	r0, r9, #1073741824	; 0x40000000
    1b6c:	00030000 	andeq	r0, r3, r0
    1b70:	000000c9 	andeq	r0, r0, r9, asr #1
    1b74:	0efb0102 	cdpeq	1, 15, cr0, cr11, cr2, {0}
    1b78:	0101000d 	tsteq	r1, sp
    1b7c:	00000101 	andeq	r0, r0, r1, lsl #2
    1b80:	00000100 	andeq	r0, r0, r0, lsl #2
    1b84:	732f2e01 			; <UNDEFINED> instruction: 0x732f2e01
    1b88:	2f006372 	svccs	0x00006372
    1b8c:	72657355 	rsbvc	r7, r5, #1409286145	; 0x54000001
    1b90:	696d2f73 	stmdbvs	sp!, {r0, r1, r4, r5, r6, r8, r9, sl, fp, sp}^
    1b94:	2f73656c 	svccs	0x0073656c
    1b98:	72756f53 	rsbsvc	r6, r5, #332	; 0x14c
    1b9c:	632f6563 			; <UNDEFINED> instruction: 0x632f6563
    1ba0:	30343273 	eorscc	r3, r4, r3, ror r2
    1ba4:	6c2f786c 	stcvs	8, cr7, [pc], #-432	; 19fc <__code_start__-0x6604>
    1ba8:	69706269 	ldmdbvs	r0!, {r0, r3, r5, r6, r9, sp, lr}^
    1bac:	636e692f 	cmnvs	lr, #770048	; 0xbc000
    1bb0:	6564756c 	strbvs	r7, [r4, #-1388]!	; 0xfffffa94
    1bb4:	706f2f00 	rsbvc	r2, pc, r0, lsl #30
    1bb8:	6f682f74 	svcvs	0x00682f74
    1bbc:	7262656d 	rsbvc	r6, r2, #457179136	; 0x1b400000
    1bc0:	432f7765 			; <UNDEFINED> instruction: 0x432f7765
    1bc4:	616c6c65 	cmnvs	ip, r5, ror #24
    1bc8:	72612f72 	rsbvc	r2, r1, #456	; 0x1c8
    1bcc:	6f6e2d6d 	svcvs	0x006e2d6d
    1bd0:	652d656e 	strvs	r6, [sp, #-1390]!	; 0xfffffa92
    1bd4:	2d696261 	sfmcs	f6, 2, [r9, #-388]!	; 0xfffffe7c
    1bd8:	2d392f39 	ldccs	15, cr2, [r9, #-228]!	; 0xffffff1c
    1bdc:	39313032 	ldmdbcc	r1!, {r1, r4, r5, ip, sp}
    1be0:	632d3471 			; <UNDEFINED> instruction: 0x632d3471
    1be4:	37303173 			; <UNDEFINED> instruction: 0x37303173
    1be8:	696c2f65 	stmdbvs	ip!, {r0, r2, r5, r6, r8, r9, sl, fp, sp}^
    1bec:	63672f62 	cmnvs	r7, #392	; 0x188
    1bf0:	72612f63 	rsbvc	r2, r1, #396	; 0x18c
    1bf4:	6f6e2d6d 	svcvs	0x006e2d6d
    1bf8:	652d656e 	strvs	r6, [sp, #-1390]!	; 0xfffffa92
    1bfc:	2f696261 	svccs	0x00696261
    1c00:	2e322e39 	mrccs	14, 1, r2, cr2, cr9, {1}
    1c04:	6e692f31 	mcrvs	15, 3, r2, cr9, cr1, {1}
    1c08:	64756c63 	ldrbtvs	r6, [r5], #-3171	; 0xfffff39d
    1c0c:	67000065 	strvs	r0, [r0, -r5, rrx]
    1c10:	2e6f6970 			; <UNDEFINED> instruction: 0x2e6f6970
    1c14:	00010063 	andeq	r0, r1, r3, rrx
    1c18:	69707200 	ldmdbvs	r0!, {r9, ip, sp, lr}^
    1c1c:	0200682e 	andeq	r6, r0, #3014656	; 0x2e0000
    1c20:	74730000 	ldrbtvc	r0, [r3], #-0
    1c24:	746e6964 	strbtvc	r6, [lr], #-2404	; 0xfffff69c
    1c28:	6363672d 	cmnvs	r3, #11796480	; 0xb40000
    1c2c:	0300682e 	movweq	r6, #2094	; 0x82e
    1c30:	70670000 	rsbvc	r0, r7, r0
    1c34:	682e6f69 	stmdavs	lr!, {r0, r3, r5, r6, r8, r9, sl, fp, sp, lr}
    1c38:	00000200 	andeq	r0, r0, r0, lsl #4
    1c3c:	00380500 	eorseq	r0, r8, r0, lsl #10
    1c40:	96940205 	ldrls	r0, [r4], r5, lsl #4
    1c44:	27030000 	strcs	r0, [r3, -r0]
    1c48:	13050501 	movwne	r0, #21761	; 0x5501
    1c4c:	01060705 	tsteq	r6, r5, lsl #14
    1c50:	49060605 	stmdbmi	r6, {r0, r2, r9, sl}
    1c54:	05150505 	ldreq	r0, [r5, #-1285]	; 0xfffffafb
    1c58:	05010607 	streq	r0, [r1, #-1543]	; 0xfffff9f9
    1c5c:	07052b38 	smladxeq	r5, r8, fp, r2
    1c60:	0605054d 	streq	r0, [r5], -sp, asr #10
    1c64:	06180530 			; <UNDEFINED> instruction: 0x06180530
    1c68:	671c0501 	ldrvs	r0, [ip, -r1, lsl #10]
    1c6c:	054a0e05 	strbeq	r0, [sl, #-3589]	; 0xfffff1fb
    1c70:	12052d18 	andne	r2, r5, #24, 26	; 0x600
    1c74:	052f2e4d 	streq	r2, [pc, #-3661]!	; e2f <__code_start__-0x71d1>
    1c78:	05052a0e 	streq	r2, [r5, #-2574]	; 0xfffff5f2
    1c7c:	13142f06 	tstne	r4, #6, 30
    1c80:	01060705 	tsteq	r6, r5, lsl #14
    1c84:	2f060505 	svccs	0x00060505
    1c88:	2e2e0613 	mcrcs	6, 1, r0, cr14, cr3, {0}
    1c8c:	05130105 	ldreq	r0, [r3, #-261]	; 0xfffffefb
    1c90:	052e2d05 	streq	r2, [lr, #-3333]!	; 0xfffff2fb
    1c94:	05000624 	streq	r0, [r0, #-1572]	; 0xfffff9dc
    1c98:	0096f402 	addseq	pc, r6, r2, lsl #8
    1c9c:	05051500 	streq	r1, [r5, #-1280]	; 0xfffffb00
    1ca0:	03060513 	movweq	r0, #25875	; 0x6513
    1ca4:	05050171 	streq	r0, [r5, #-369]	; 0xfffffe8f
    1ca8:	06070513 			; <UNDEFINED> instruction: 0x06070513
    1cac:	06060501 	streq	r0, [r6], -r1, lsl #10
    1cb0:	15050549 	strne	r0, [r5, #-1353]	; 0xfffffab7
    1cb4:	06240514 			; <UNDEFINED> instruction: 0x06240514
    1cb8:	05010903 	streq	r0, [r1, #-2307]	; 0xfffff6fd
    1cbc:	2e770318 	mrccs	3, 3, r0, cr7, cr8, {0}
    1cc0:	05671c05 	strbeq	r1, [r7, #-3077]!	; 0xfffff3fb
    1cc4:	18054a0e 	stmdane	r5, {r1, r2, r3, r9, fp, lr}
    1cc8:	4d12052d 	cfldr32mi	mvfx0, [r2, #-180]	; 0xffffff4c
    1ccc:	0f052f2e 	svceq	0x00052f2e
    1cd0:	290e052f 	stmdbcs	lr, {r0, r1, r2, r3, r5, r8, sl}
    1cd4:	2f060505 	svccs	0x00060505
    1cd8:	07051314 	smladeq	r5, r4, r3, r1
    1cdc:	05050106 	streq	r0, [r5, #-262]	; 0xfffffefa
    1ce0:	06132f06 	ldreq	r2, [r3], -r6, lsl #30
    1ce4:	3301052e 	movwcc	r0, #5422	; 0x152e
    1ce8:	2e290505 	cfsh64cs	mvdx0, mvdx9, #5
    1cec:	00062705 	andeq	r2, r6, r5, lsl #14
    1cf0:	974c0205 	strbls	r0, [ip, -r5, lsl #4]
    1cf4:	051a0000 	ldreq	r0, [sl, #-0]
    1cf8:	27051305 	strcs	r1, [r5, -r5, lsl #6]
    1cfc:	18051106 	stmdane	r5, {r1, r2, r8, ip}
    1d00:	2e05052f 	cfsh32cs	mvfx0, mvfx5, #31
    1d04:	28054a2e 	stmdacs	r5, {r1, r2, r3, r5, r9, fp, lr}
    1d08:	02050006 	andeq	r0, r5, #6, 0
    1d0c:	00009764 	andeq	r9, r0, r4, ror #14
    1d10:	13050516 	movwne	r0, #21782	; 0x5516
    1d14:	11062805 	tstne	r6, r5, lsl #16
    1d18:	052f1805 	streq	r1, [pc, #-2053]!	; 151b <__code_start__-0x6ae5>
    1d1c:	4a2e2e05 	bmi	b8d538 <__bss_end__+0xb83348>
    1d20:	00062305 	andeq	r2, r6, r5, lsl #6
    1d24:	977c0205 	ldrbls	r0, [ip, -r5, lsl #4]!
    1d28:	05160000 	ldreq	r0, [r6, #-0]
    1d2c:	06051305 	streq	r1, [r5], -r5, lsl #6
    1d30:	05016203 	streq	r6, [r1, #-515]	; 0xfffffdfd
    1d34:	07051305 	streq	r1, [r5, -r5, lsl #6]
    1d38:	06050106 	streq	r0, [r5], -r6, lsl #2
    1d3c:	05054906 	streq	r4, [r5, #-2310]	; 0xfffff6fa
    1d40:	05131415 	ldreq	r1, [r3, #-1045]	; 0xfffffbeb
    1d44:	17030623 	strne	r0, [r3, -r3, lsr #12]
    1d48:	03220501 			; <UNDEFINED> instruction: 0x03220501
    1d4c:	1c052e69 	stcne	14, cr2, [r5], {105}	; 0x69
    1d50:	0e052e82 	cdpeq	14, 0, cr2, cr5, cr2, {4}
    1d54:	0605052e 	streq	r0, [r5], -lr, lsr #10
    1d58:	06120530 			; <UNDEFINED> instruction: 0x06120530
    1d5c:	052d4b01 	streq	r4, [sp, #-2817]!	; 0xfffff4ff
    1d60:	132f0605 			; <UNDEFINED> instruction: 0x132f0605
    1d64:	06180513 			; <UNDEFINED> instruction: 0x06180513
    1d68:	05017a03 	streq	r7, [r1, #-2563]	; 0xfffff5fd
    1d6c:	05054a0e 	streq	r4, [r5, #-2574]	; 0xfffff5f2
    1d70:	01052e34 	tsteq	r5, r4, lsr lr
    1d74:	052e1403 	streq	r1, [lr, #-1027]!	; 0xfffffbfd
    1d78:	2e6c0305 	cdpcs	3, 6, cr0, cr12, cr5, {0}
    1d7c:	062b052e 	strteq	r0, [fp], -lr, lsr #10
    1d80:	d4020500 	strle	r0, [r2], #-1280	; 0xfffffb00
    1d84:	03000097 	movweq	r0, #151	; 0x97
    1d88:	05050117 	streq	r0, [r5, #-279]	; 0xfffffee9
    1d8c:	06070513 			; <UNDEFINED> instruction: 0x06070513
    1d90:	03180501 	tsteq	r8, #4194304	; 0x400000
    1d94:	2b052e71 	blcs	14d760 <__bss_end__+0x143570>
    1d98:	052e0e03 	streq	r0, [lr, #-3587]!	; 0xfffff1fd
    1d9c:	09052f07 	stmdbeq	r5, {r0, r1, r2, r8, r9, sl, fp, sp}
    1da0:	0d052f06 	stceq	15, cr2, [r5, #-24]	; 0xffffffe8
    1da4:	05016f03 	streq	r6, [r1, #-3843]	; 0xfffff0fd
    1da8:	2e061305 	cdpcs	3, 0, cr1, cr6, cr5, {0}
    1dac:	09052e2e 	stmdbeq	r5, {r1, r2, r3, r5, r9, sl, fp, sp}
    1db0:	01120306 	tsteq	r2, r6, lsl #6
    1db4:	72030d05 	andvc	r0, r3, #320	; 0x140
    1db8:	13050501 	movwne	r0, #21761	; 0x5501
    1dbc:	052e2e06 	streq	r2, [lr, #-3590]!	; 0xfffff1fa
    1dc0:	1003061d 	andne	r0, r3, sp, lsl r6
    1dc4:	13050566 	movwne	r0, #21862	; 0x5566
    1dc8:	11061d05 	tstne	r6, r5, lsl #26
    1dcc:	0605052e 	streq	r0, [r5], -lr, lsr #10
    1dd0:	0e051330 	mcreq	3, 0, r1, cr5, cr0, {1}
    1dd4:	17051006 	strne	r1, [r5, -r6]
    1dd8:	02042e30 	andeq	r2, r4, #48, 28	; 0x300
    1ddc:	03063005 	movweq	r3, #24581	; 0x6005
    1de0:	042e00dd 	strteq	r0, [lr], #-221	; 0xffffff23
    1de4:	060e0501 	streq	r0, [lr], -r1, lsl #10
    1de8:	017fa203 	cmneq	pc, r3, lsl #4
    1dec:	052f2305 	streq	r2, [pc, #-773]!	; 1aef <__code_start__-0x6511>
    1df0:	06022f01 	streq	r2, [r2], -r1, lsl #30
    1df4:	21010100 	mrscs	r0, (UNDEF: 17)
    1df8:	03000001 	movweq	r0, #1
    1dfc:	0000be00 	andeq	fp, r0, r0, lsl #28
    1e00:	fb010200 	blx	4260a <__bss_end__+0x3841a>
    1e04:	01000d0e 	tsteq	r0, lr, lsl #26
    1e08:	00010101 	andeq	r0, r1, r1, lsl #2
    1e0c:	00010000 	andeq	r0, r1, r0
    1e10:	2f2e0100 	svccs	0x002e0100
    1e14:	6362696c 	cmnvs	r2, #108, 18	; 0x1b0000
    1e18:	73552f00 	cmpvc	r5, #0, 30
    1e1c:	2f737265 	svccs	0x00737265
    1e20:	656c696d 	strbvs	r6, [ip, #-2413]!	; 0xfffff693
    1e24:	6f532f73 	svcvs	0x00532f73
    1e28:	65637275 	strbvs	r7, [r3, #-629]!	; 0xfffffd8b
    1e2c:	3273632f 	rsbscc	r6, r3, #-1140850688	; 0xbc000000
    1e30:	786c3034 	stmdavc	ip!, {r2, r4, r5, ip, sp}^
    1e34:	62696c2f 	rsbvs	r6, r9, #12032	; 0x2f00
    1e38:	692f6970 	stmdbvs	pc!, {r4, r5, r6, r8, fp, sp, lr}	; <UNPREDICTABLE>
    1e3c:	756c636e 	strbvc	r6, [ip, #-878]!	; 0xfffffc92
    1e40:	2f006564 	svccs	0x00006564
    1e44:	2f74706f 	svccs	0x0074706f
    1e48:	656d6f68 	strbvs	r6, [sp, #-3944]!	; 0xfffff098
    1e4c:	77657262 	strbvc	r7, [r5, -r2, ror #4]!
    1e50:	6c65432f 	stclvs	3, cr4, [r5], #-188	; 0xffffff44
    1e54:	2f72616c 	svccs	0x0072616c
    1e58:	2d6d7261 	sfmcs	f7, 2, [sp, #-388]!	; 0xfffffe7c
    1e5c:	656e6f6e 	strbvs	r6, [lr, #-3950]!	; 0xfffff092
    1e60:	6261652d 	rsbvs	r6, r1, #188743680	; 0xb400000
    1e64:	2f392d69 	svccs	0x00392d69
    1e68:	30322d39 	eorscc	r2, r2, r9, lsr sp
    1e6c:	34713931 	ldrbtcc	r3, [r1], #-2353	; 0xfffff6cf
    1e70:	3173632d 	cmncc	r3, sp, lsr #6
    1e74:	2f653730 	svccs	0x00653730
    1e78:	2f62696c 	svccs	0x0062696c
    1e7c:	2f636367 	svccs	0x00636367
    1e80:	2d6d7261 	sfmcs	f7, 2, [sp, #-388]!	; 0xfffffe7c
    1e84:	656e6f6e 	strbvs	r6, [lr, #-3950]!	; 0xfffff092
    1e88:	6261652d 	rsbvs	r6, r1, #188743680	; 0xb400000
    1e8c:	2e392f69 	cdpcs	15, 3, cr2, cr9, cr9, {3}
    1e90:	2f312e32 	svccs	0x00312e32
    1e94:	6c636e69 	stclvs	14, cr6, [r3], #-420	; 0xfffffe5c
    1e98:	00656475 	rsbeq	r6, r5, r5, ror r4
    1e9c:	6d656d00 	stclvs	13, cr6, [r5, #-0]
    1ea0:	2e746573 	mrccs	5, 3, r6, cr4, cr3, {3}
    1ea4:	00010063 	andeq	r0, r1, r3, rrx
    1ea8:	69707200 	ldmdbvs	r0!, {r9, ip, sp, lr}^
    1eac:	0200682e 	andeq	r6, r0, #3014656	; 0x2e0000
    1eb0:	74730000 	ldrbtvc	r0, [r3], #-0
    1eb4:	66656464 	strbtvs	r6, [r5], -r4, ror #8
    1eb8:	0300682e 	movweq	r6, #2094	; 0x82e
    1ebc:	05000000 	streq	r0, [r0, #-0]
    1ec0:	02050029 	andeq	r0, r5, #41, 0	; 0x29
    1ec4:	0000982c 	andeq	r9, r0, ip, lsr #16
    1ec8:	13050515 	movwne	r0, #21781	; 0x5515
    1ecc:	11062905 	tstne	r6, r5, lsl #18
    1ed0:	052f1405 	streq	r1, [pc, #-1029]!	; 1ad3 <__code_start__-0x652d>
    1ed4:	05300605 	ldreq	r0, [r0, #-1541]!	; 0xfffff9fb
    1ed8:	9e06010a 	adflss	f0, f6, #2.0
    1edc:	d7060905 	strle	r0, [r6, -r5, lsl #18]
    1ee0:	01060e05 	tsteq	r6, r5, lsl #28
    1ee4:	2d060a05 	vstrcs	s0, [r6, #-20]	; 0xffffffec
    1ee8:	05bb0905 	ldreq	r0, [fp, #2309]!	; 0x905
    1eec:	2e01060e 	cfmadd32cs	mvax0, mvfx0, mvfx1, mvfx14
    1ef0:	2d060a05 	vstrcs	s0, [r6, #-20]	; 0xffffffec
    1ef4:	054b0905 	strbeq	r0, [fp, #-2309]	; 0xfffff6fb
    1ef8:	0501060b 	streq	r0, [r1, #-1547]	; 0xfffff9f5
    1efc:	0e052d0a 	cdpeq	13, 0, cr2, cr5, cr10, {0}
    1f00:	060a052f 	streq	r0, [sl], -pc, lsr #10
    1f04:	060e052d 	streq	r0, [lr], -sp, lsr #10
    1f08:	06090513 			; <UNDEFINED> instruction: 0x06090513
    1f0c:	110a052e 	tstne	sl, lr, lsr #10
    1f10:	05140505 	ldreq	r0, [r4, #-1285]	; 0xfffffafb
    1f14:	02130601 	andseq	r0, r3, #1048576	; 0x100000
    1f18:	01010002 	tsteq	r1, r2
    1f1c:	000000e2 	andeq	r0, r0, r2, ror #1
    1f20:	00590003 	subseq	r0, r9, r3
    1f24:	01020000 	mrseq	r0, (UNDEF: 2)
    1f28:	000d0efb 	strdeq	r0, [sp], -fp
    1f2c:	01010101 	tsteq	r1, r1, lsl #2
    1f30:	01000000 	mrseq	r0, (UNDEF: 0)
    1f34:	2e010000 	cdpcs	0, 0, cr0, cr1, cr0, {0}
    1f38:	62696c2f 	rsbvs	r6, r9, #12032	; 0x2f00
    1f3c:	552f0063 	strpl	r0, [pc, #-99]!	; 1ee1 <__code_start__-0x611f>
    1f40:	73726573 	cmnvc	r2, #482344960	; 0x1cc00000
    1f44:	6c696d2f 	stclvs	13, cr6, [r9], #-188	; 0xffffff44
    1f48:	532f7365 			; <UNDEFINED> instruction: 0x532f7365
    1f4c:	6372756f 	cmnvs	r2, #465567744	; 0x1bc00000
    1f50:	73632f65 	cmnvc	r3, #404	; 0x194
    1f54:	6c303432 	cfldrsvs	mvf3, [r0], #-200	; 0xffffff38
    1f58:	696c2f78 	stmdbvs	ip!, {r3, r4, r5, r6, r8, r9, sl, fp, sp}^
    1f5c:	2f697062 	svccs	0x00697062
    1f60:	6c636e69 	stclvs	14, cr6, [r3], #-420	; 0xfffffe5c
    1f64:	00656475 	rsbeq	r6, r5, r5, ror r4
    1f68:	72747300 	rsbsvc	r7, r4, #0, 6
    1f6c:	2e746163 	rpwcssz	f6, f4, f3
    1f70:	00010063 	andeq	r0, r1, r3, rrx
    1f74:	69707200 	ldmdbvs	r0!, {r9, ip, sp, lr}^
    1f78:	0200682e 	andeq	r6, r0, #3014656	; 0x2e0000
    1f7c:	05000000 	streq	r0, [r0, #-0]
    1f80:	0205002c 	andeq	r0, r5, #44, 0	; 0x2c
    1f84:	000098a4 	andeq	r9, r0, r4, lsr #17
    1f88:	13050515 	movwne	r0, #21781	; 0x5515
    1f8c:	060b0513 			; <UNDEFINED> instruction: 0x060b0513
    1f90:	00050511 	andeq	r0, r5, r1, lsl r5
    1f94:	06010402 	streq	r0, [r1], -r2, lsl #8
    1f98:	04020030 	streq	r0, [r2], #-48	; 0xffffffd0
    1f9c:	09051501 	stmdbeq	r5, {r0, r8, sl, ip}
    1fa0:	01040200 	mrseq	r0, R12_usr
    1fa4:	000b0513 	andeq	r0, fp, r3, lsl r5
    1fa8:	2f010402 	svccs	0x00010402
    1fac:	02000505 	andeq	r0, r0, #20971520	; 0x1400000
    1fb0:	01060104 	tsteq	r6, r4, lsl #2
    1fb4:	01040200 	mrseq	r0, R12_usr
    1fb8:	054e062e 	strbeq	r0, [lr, #-1582]	; 0xfffff9d2
    1fbc:	05010608 	streq	r0, [r1, #-1544]	; 0xfffff9f8
    1fc0:	04020005 	streq	r0, [r2], #-5
    1fc4:	052f0601 	streq	r0, [pc, #-1537]!	; 19cb <__code_start__-0x6635>
    1fc8:	04020009 	streq	r0, [r2], #-9
    1fcc:	0b051301 	bleq	146bd8 <__bss_end__+0x13c9e8>
    1fd0:	01040200 	mrseq	r0, R12_usr
    1fd4:	09050106 	stmdbeq	r5, {r1, r2, r8}
    1fd8:	01040200 	mrseq	r0, R12_usr
    1fdc:	05052f06 	streq	r2, [r5, #-3846]	; 0xfffff0fa
    1fe0:	01040200 	mrseq	r0, R12_usr
    1fe4:	0f051306 	svceq	0x00051306
    1fe8:	01040200 	mrseq	r0, R12_usr
    1fec:	000d052d 	andeq	r0, sp, sp, lsr #10
    1ff0:	06010402 	streq	r0, [r1], -r2, lsl #8
    1ff4:	0005052f 	andeq	r0, r5, pc, lsr #10
    1ff8:	06010402 	streq	r0, [r1], -r2, lsl #8
    1ffc:	00040201 	andeq	r0, r4, r1, lsl #4
    2000:	00b20101 	adcseq	r0, r2, r1, lsl #2
    2004:	00030000 	andeq	r0, r3, r0
    2008:	00000059 	andeq	r0, r0, r9, asr r0
    200c:	0efb0102 	cdpeq	1, 15, cr0, cr11, cr2, {0}
    2010:	0101000d 	tsteq	r1, sp
    2014:	00000101 	andeq	r0, r0, r1, lsl #2
    2018:	00000100 	andeq	r0, r0, r0, lsl #2
    201c:	6c2f2e01 	stcvs	14, cr2, [pc], #-4	; 2020 <__code_start__-0x5fe0>
    2020:	00636269 	rsbeq	r6, r3, r9, ror #4
    2024:	6573552f 	ldrbvs	r5, [r3, #-1327]!	; 0xfffffad1
    2028:	6d2f7372 	stcvs	3, cr7, [pc, #-456]!	; 1e68 <__code_start__-0x6198>
    202c:	73656c69 	cmnvc	r5, #26880	; 0x6900
    2030:	756f532f 	strbvc	r5, [pc, #-815]!	; 1d09 <__code_start__-0x62f7>
    2034:	2f656372 	svccs	0x00656372
    2038:	34327363 	ldrtcc	r7, [r2], #-867	; 0xfffffc9d
    203c:	2f786c30 	svccs	0x00786c30
    2040:	7062696c 	rsbvc	r6, r2, ip, ror #18
    2044:	6e692f69 	cdpvs	15, 6, cr2, cr9, cr9, {3}
    2048:	64756c63 	ldrbtvs	r6, [r5], #-3171	; 0xfffff39d
    204c:	73000065 	movwvc	r0, #101	; 0x65
    2050:	6d637274 	sfmvs	f7, 2, [r3, #-464]!	; 0xfffffe30
    2054:	00632e70 	rsbeq	r2, r3, r0, ror lr
    2058:	72000001 	andvc	r0, r0, #1, 0
    205c:	682e6970 	stmdavs	lr!, {r4, r5, r6, r8, fp, sp, lr}
    2060:	00000200 	andeq	r0, r0, r0, lsl #4
    2064:	002a0500 	eoreq	r0, sl, r0, lsl #10
    2068:	98d00205 	ldmls	r0, {r0, r2, r9}^
    206c:	05140000 	ldreq	r0, [r4, #-0]
    2070:	10051309 	andne	r1, r5, r9, lsl #6
    2074:	0f050106 	svceq	0x00050106
    2078:	10052e06 	andne	r2, r5, r6, lsl #28
    207c:	0f058206 	svceq	0x00058206
    2080:	0011052e 	andseq	r0, r1, lr, lsr #10
    2084:	06010402 	streq	r0, [r1], -r2, lsl #8
    2088:	001c054b 	andseq	r0, ip, fp, asr #10
    208c:	06010402 	streq	r0, [r1], -r2, lsl #8
    2090:	000f052d 	andeq	r0, pc, sp, lsr #10
    2094:	06010402 	streq	r0, [r1], -r2, lsl #8
    2098:	0013052e 	andseq	r0, r3, lr, lsr #10
    209c:	06010402 	streq	r0, [r1], -r2, lsl #8
    20a0:	06090501 	streq	r0, [r9], -r1, lsl #10
    20a4:	0601054c 	streq	r0, [r1], -ip, asr #10
    20a8:	09054a13 	stmdbeq	r5, {r0, r1, r4, r9, fp, lr}
    20ac:	01052d06 	tsteq	r5, r6, lsl #26
    20b0:	022e1306 	eoreq	r1, lr, #402653184	; 0x18000000
    20b4:	01010002 	tsteq	r1, r2
    20b8:	0000009d 	muleq	r0, sp, r0
    20bc:	00590003 	subseq	r0, r9, r3
    20c0:	01020000 	mrseq	r0, (UNDEF: 2)
    20c4:	000d0efb 	strdeq	r0, [sp], -fp
    20c8:	01010101 	tsteq	r1, r1, lsl #2
    20cc:	01000000 	mrseq	r0, (UNDEF: 0)
    20d0:	2e010000 	cdpcs	0, 0, cr0, cr1, cr0, {0}
    20d4:	62696c2f 	rsbvs	r6, r9, #12032	; 0x2f00
    20d8:	552f0063 	strpl	r0, [pc, #-99]!	; 207d <__code_start__-0x5f83>
    20dc:	73726573 	cmnvc	r2, #482344960	; 0x1cc00000
    20e0:	6c696d2f 	stclvs	13, cr6, [r9], #-188	; 0xffffff44
    20e4:	532f7365 			; <UNDEFINED> instruction: 0x532f7365
    20e8:	6372756f 	cmnvs	r2, #465567744	; 0x1bc00000
    20ec:	73632f65 	cmnvc	r3, #404	; 0x194
    20f0:	6c303432 	cfldrsvs	mvf3, [r0], #-200	; 0xffffff38
    20f4:	696c2f78 	stmdbvs	ip!, {r3, r4, r5, r6, r8, r9, sl, fp, sp}^
    20f8:	2f697062 	svccs	0x00697062
    20fc:	6c636e69 	stclvs	14, cr6, [r3], #-420	; 0xfffffe5c
    2100:	00656475 	rsbeq	r6, r5, r5, ror r4
    2104:	72747300 	rsbsvc	r7, r4, #0, 6
    2108:	2e797063 	cdpcs	0, 7, cr7, cr9, cr3, {3}
    210c:	00010063 	andeq	r0, r1, r3, rrx
    2110:	69707200 	ldmdbvs	r0!, {r9, ip, sp, lr}^
    2114:	0200682e 	andeq	r6, r0, #3014656	; 0x2e0000
    2118:	05000000 	streq	r0, [r0, #-0]
    211c:	0205002a 	andeq	r0, r5, #42, 0	; 0x2a
    2120:	00009914 	andeq	r9, r0, r4, lsl r9
    2124:	13050514 	movwne	r0, #21780	; 0x5514
    2128:	00220513 	eoreq	r0, r2, r3, lsl r5
    212c:	2e010402 	cdpcs	4, 0, cr0, cr1, cr2, {0}
    2130:	02000b05 	andeq	r0, r0, #5120	; 0x1400
    2134:	05010104 	streq	r0, [r1, #-260]	; 0xfffffefc
    2138:	04020015 	streq	r0, [r2], #-21	; 0xffffffeb
    213c:	05010601 	streq	r0, [r1, #-1537]	; 0xfffff9ff
    2140:	0402000b 	streq	r0, [r2], #-11
    2144:	13052e01 	movwne	r2, #24065	; 0x5e01
    2148:	01040200 	mrseq	r0, R12_usr
    214c:	000b052e 	andeq	r0, fp, lr, lsr #10
    2150:	2e010402 	cdpcs	4, 0, cr0, cr1, cr2, {0}
    2154:	01000402 	tsteq	r0, r2, lsl #8
    2158:	0000fd01 	andeq	pc, r0, r1, lsl #26
    215c:	bf000300 	svclt	0x00000300
    2160:	02000000 	andeq	r0, r0, #0, 0
    2164:	0d0efb01 	vstreq	d15, [lr, #-4]
    2168:	01010100 	mrseq	r0, (UNDEF: 17)
    216c:	00000001 	andeq	r0, r0, r1
    2170:	01000001 	tsteq	r0, r1
    2174:	696c2f2e 	stmdbvs	ip!, {r1, r2, r3, r5, r8, r9, sl, fp, sp}^
    2178:	2f006362 	svccs	0x00006362
    217c:	72657355 	rsbvc	r7, r5, #1409286145	; 0x54000001
    2180:	696d2f73 	stmdbvs	sp!, {r0, r1, r4, r5, r6, r8, r9, sl, fp, sp}^
    2184:	2f73656c 	svccs	0x0073656c
    2188:	72756f53 	rsbsvc	r6, r5, #332	; 0x14c
    218c:	632f6563 			; <UNDEFINED> instruction: 0x632f6563
    2190:	30343273 	eorscc	r3, r4, r3, ror r2
    2194:	6c2f786c 	stcvs	8, cr7, [pc], #-432	; 1fec <__code_start__-0x6014>
    2198:	69706269 	ldmdbvs	r0!, {r0, r3, r5, r6, r9, sp, lr}^
    219c:	636e692f 	cmnvs	lr, #770048	; 0xbc000
    21a0:	6564756c 	strbvs	r7, [r4, #-1388]!	; 0xfffffa94
    21a4:	706f2f00 	rsbvc	r2, pc, r0, lsl #30
    21a8:	6f682f74 	svcvs	0x00682f74
    21ac:	7262656d 	rsbvc	r6, r2, #457179136	; 0x1b400000
    21b0:	432f7765 			; <UNDEFINED> instruction: 0x432f7765
    21b4:	616c6c65 	cmnvs	ip, r5, ror #24
    21b8:	72612f72 	rsbvc	r2, r1, #456	; 0x1c8
    21bc:	6f6e2d6d 	svcvs	0x006e2d6d
    21c0:	652d656e 	strvs	r6, [sp, #-1390]!	; 0xfffffa92
    21c4:	2d696261 	sfmcs	f6, 2, [r9, #-388]!	; 0xfffffe7c
    21c8:	2d392f39 	ldccs	15, cr2, [r9, #-228]!	; 0xffffff1c
    21cc:	39313032 	ldmdbcc	r1!, {r1, r4, r5, ip, sp}
    21d0:	632d3471 			; <UNDEFINED> instruction: 0x632d3471
    21d4:	37303173 			; <UNDEFINED> instruction: 0x37303173
    21d8:	696c2f65 	stmdbvs	ip!, {r0, r2, r5, r6, r8, r9, sl, fp, sp}^
    21dc:	63672f62 	cmnvs	r7, #392	; 0x188
    21e0:	72612f63 	rsbvc	r2, r1, #396	; 0x18c
    21e4:	6f6e2d6d 	svcvs	0x006e2d6d
    21e8:	652d656e 	strvs	r6, [sp, #-1390]!	; 0xfffffa92
    21ec:	2f696261 	svccs	0x00696261
    21f0:	2e322e39 	mrccs	14, 1, r2, cr2, cr9, {1}
    21f4:	6e692f31 	mcrvs	15, 3, r2, cr9, cr1, {1}
    21f8:	64756c63 	ldrbtvs	r6, [r5], #-3171	; 0xfffff39d
    21fc:	73000065 	movwvc	r0, #101	; 0x65
    2200:	636e7274 	cmnvs	lr, #116, 4	; 0x40000007
    2204:	632e706d 			; <UNDEFINED> instruction: 0x632e706d
    2208:	00000100 	andeq	r0, r0, r0, lsl #2
    220c:	2e697072 	mcrcs	0, 3, r7, cr9, cr2, {3}
    2210:	00020068 	andeq	r0, r2, r8, rrx
    2214:	64747300 	ldrbtvs	r7, [r4], #-768	; 0xfffffd00
    2218:	2e666564 	cdpcs	5, 6, cr6, cr6, cr4, {3}
    221c:	00030068 	andeq	r0, r3, r8, rrx
    2220:	39050000 	stmdbcc	r5, {}	; <UNPREDICTABLE>
    2224:	2c020500 	cfstr32cs	mvfx0, [r2], {-0}
    2228:	15000099 	strne	r0, [r0, #-153]	; 0xffffff67
    222c:	13130505 	tstne	r3, #20971520	; 0x1400000
    2230:	2e060a05 	vmlacs.f32	s0, s12, s10
    2234:	052f0c05 	streq	r0, [pc, #-3077]!	; 1637 <__code_start__-0x69c9>
    2238:	0b052e13 	bleq	14da8c <__bss_end__+0x14389c>
    223c:	0609052e 	streq	r0, [r9], -lr, lsr #10
    2240:	110a054a 	tstne	sl, sl, asr #10
    2244:	0c050106 	stfeqs	f0, [r5], {6}
    2248:	2f01054e 	svccs	0x0001054e
    224c:	2b060d05 	blcs	185668 <__bss_end__+0x17b478>
    2250:	01061b05 	tsteq	r6, r5, lsl #22
    2254:	0002022e 	andeq	r0, r2, lr, lsr #4
    2258:	008a0101 	addeq	r0, sl, r1, lsl #2
    225c:	00030000 	andeq	r0, r3, r0
    2260:	0000006e 	andeq	r0, r0, lr, rrx
    2264:	0efb0102 	cdpeq	1, 15, cr0, cr11, cr2, {0}
    2268:	0101000d 	tsteq	r1, sp
    226c:	00000101 	andeq	r0, r0, r1, lsl #2
    2270:	00000100 	andeq	r0, r0, r0, lsl #2
    2274:	732f2e01 			; <UNDEFINED> instruction: 0x732f2e01
    2278:	66666174 			; <UNDEFINED> instruction: 0x66666174
    227c:	6372732d 	cmnvs	r2, #-1275068416	; 0xb4000000
    2280:	73552f00 	cmpvc	r5, #0, 30
    2284:	2f737265 	svccs	0x00737265
    2288:	656c696d 	strbvs	r6, [ip, #-2413]!	; 0xfffff693
    228c:	6f532f73 	svcvs	0x00532f73
    2290:	65637275 	strbvs	r7, [r3, #-629]!	; 0xfffffd8b
    2294:	3273632f 	rsbscc	r6, r3, #-1140850688	; 0xbc000000
    2298:	786c3034 	stmdavc	ip!, {r2, r4, r5, ip, sp}^
    229c:	62696c2f 	rsbvs	r6, r9, #12032	; 0x2f00
    22a0:	692f6970 	stmdbvs	pc!, {r4, r5, r6, r8, fp, sp, lr}	; <UNPREDICTABLE>
    22a4:	756c636e 	strbvc	r6, [ip, #-878]!	; 0xfffffc92
    22a8:	00006564 	andeq	r6, r0, r4, ror #10
    22ac:	61666564 	cmnvs	r6, r4, ror #10
    22b0:	2d746c75 	ldclcs	12, cr6, [r4, #-468]!	; 0xfffffe2c
    22b4:	6f626572 	svcvs	0x00626572
    22b8:	632d746f 			; <UNDEFINED> instruction: 0x632d746f
    22bc:	6f6c6c61 	svcvs	0x006c6c61
    22c0:	632e7475 			; <UNDEFINED> instruction: 0x632e7475
    22c4:	00000100 	andeq	r0, r0, r0, lsl #2
    22c8:	2e697072 	mcrcs	0, 3, r7, cr9, cr2, {3}
    22cc:	00020068 	andeq	r0, r2, r8, rrx
    22d0:	1b050000 	blne	1422d8 <__bss_end__+0x1380e8>
    22d4:	5c020500 	cfstr32pl	mvfx0, [r2], {-0}
    22d8:	14000099 	strne	r0, [r0], #-153	; 0xffffff67
    22dc:	05011c05 	streq	r1, [r1, #-3077]	; 0xfffff3fb
    22e0:	02010601 	andeq	r0, r1, #1048576	; 0x100000
    22e4:	01010002 	tsteq	r1, r2

Disassembly of section .debug_str:

00000000 <.debug_str>:
   0:	6d746f6e 	ldclvs	15, cr6, [r4, #-440]!	; 0xfffffe48
   4:	006e6961 	rsbeq	r6, lr, r1, ror #18
   8:	69736e75 	ldmdbvs	r3!, {r0, r2, r4, r5, r6, r9, sl, fp, sp, lr}^
   c:	64656e67 	strbtvs	r6, [r5], #-3687	; 0xfffff199
  10:	61686320 	cmnvs	r8, r0, lsr #6
  14:	6c630072 	stclvs	0, cr0, [r3], #-456	; 0xfffffe38
  18:	5f6e6165 	svcpl	0x006e6165
  1c:	6f626572 	svcvs	0x00626572
  20:	2f00746f 	svccs	0x0000746f
  24:	72657355 	rsbvc	r7, r5, #1409286145	; 0x54000001
  28:	696d2f73 	stmdbvs	sp!, {r0, r1, r4, r5, r6, r8, r9, sl, fp, sp}^
  2c:	2f73656c 	svccs	0x0073656c
  30:	72756f53 	rsbsvc	r6, r5, #332	; 0x14c
  34:	632f6563 			; <UNDEFINED> instruction: 0x632f6563
  38:	30343273 	eorscc	r3, r4, r3, ror r2
  3c:	6c2f786c 	stcvs	8, cr7, [pc], #-432	; fffffe94 <__bss_end__+0xffff5ca4>
  40:	2f736261 	svccs	0x00736261
  44:	616d2d35 	cmnvs	sp, r5, lsr sp
  48:	636f6c6c 	cmnvs	pc, #108, 24	; 0x6c00
  4c:	2f63672b 	svccs	0x0063672b
  50:	616d2d31 	cmnvs	sp, r1, lsr sp
  54:	636f6c6c 	cmnvs	pc, #108, 24	; 0x6c00
  58:	6f687300 	svcvs	0x00687300
  5c:	75207472 	strvc	r7, [r0, #-1138]!	; 0xfffffb8e
  60:	6769736e 	strbvs	r7, [r9, -lr, ror #6]!
  64:	2064656e 	rsbcs	r6, r4, lr, ror #10
  68:	00746e69 	rsbseq	r6, r4, r9, ror #28
  6c:	665f726b 	ldrbvs	r7, [pc], -fp, ror #4
  70:	00656572 	rsbeq	r6, r5, r2, ror r5
  74:	73727470 	cmnvc	r2, #112, 8	; 0x70000000
  78:	465f5f00 	ldrbmi	r5, [pc], -r0, lsl #30
  7c:	54434e55 	strbpl	r4, [r3], #-3669	; 0xfffff1ab
  80:	5f4e4f49 	svcpl	0x004e4f49
  84:	746e005f 	strbtvc	r0, [lr], #-95	; 0xffffffa1
  88:	73747365 	cmnvc	r4, #-1811939327	; 0x94000001
  8c:	6e6f6c00 	cdpvs	12, 6, cr6, cr15, cr0, {0}
  90:	6f6c2067 	svcvs	0x006c2067
  94:	7520676e 	strvc	r6, [r0, #-1902]!	; 0xfffff892
  98:	6769736e 	strbvs	r7, [r9, -lr, ror #6]!
  9c:	2064656e 	rsbcs	r6, r4, lr, ror #10
  a0:	00746e69 	rsbseq	r6, r4, r9, ror #28
  a4:	746e6975 	strbtvc	r6, [lr], #-2421	; 0xfffff68b
  a8:	00745f38 	rsbseq	r5, r4, r8, lsr pc
  ac:	65742d32 	ldrbvs	r2, [r4, #-3378]!	; 0xfffff2ce
  b0:	6d2d7473 	cfstrsvs	mvf7, [sp, #-460]!	; 0xfffffe34
  b4:	6f6c6c61 	svcvs	0x006c6c61
  b8:	00632e63 	rsbeq	r2, r3, r3, ror #28
  bc:	74736574 	ldrbtvc	r6, [r3], #-1396	; 0xfffffa8c
  c0:	6c6c615f 	stfvse	f6, [ip], #-380	; 0xfffffe84
  c4:	665f636f 	ldrbvs	r6, [pc], -pc, ror #6
  c8:	00656572 	rsbeq	r6, r5, r2, ror r5
  cc:	676e6f6c 	strbvs	r6, [lr, -ip, ror #30]!
  d0:	6e6f6c20 	cdpvs	12, 6, cr6, cr15, cr0, {1}
  d4:	6e692067 	cdpvs	0, 6, cr2, cr9, cr7, {3}
  d8:	70720074 	rsbsvc	r0, r2, r4, ror r0
  dc:	75705f69 	ldrbvc	r5, [r0, #-3945]!	; 0xfffff097
  e0:	61686374 	smcvs	34356	; 0x8634
  e4:	68730072 	ldmdavs	r3!, {r1, r4, r5, r6}^
  e8:	2074726f 	rsbscs	r7, r4, pc, ror #4
  ec:	00746e69 	rsbseq	r6, r4, r9, ror #28
  f0:	6d5f726b 	lfmvs	f7, 2, [pc, #-428]	; ffffff4c <__bss_end__+0xffff5d5c>
  f4:	6f6c6c61 	svcvs	0x006c6c61
  f8:	4e470063 	cdpmi	0, 4, cr0, cr7, cr3, {3}
  fc:	39432055 	stmdbcc	r3, {r0, r2, r4, r6, sp}^
 100:	2e392039 	mrccs	0, 1, r2, cr9, cr9, {1}
 104:	20312e32 	eorscs	r2, r1, r2, lsr lr
 108:	39313032 	ldmdbcc	r1!, {r1, r4, r5, ip, sp}
 10c:	35323031 	ldrcc	r3, [r2, #-49]!	; 0xffffffcf
 110:	65722820 	ldrbvs	r2, [r2, #-2080]!	; 0xfffff7e0
 114:	7361656c 	cmnvc	r1, #108, 10	; 0x1b000000
 118:	5b202965 	blpl	80a6b4 <__bss_end__+0x8004c4>
 11c:	2f4d5241 	svccs	0x004d5241
 120:	2d6d7261 	sfmcs	f7, 2, [sp, #-388]!	; 0xfffffe7c
 124:	72622d39 	rsbvc	r2, r2, #3648	; 0xe40
 128:	68636e61 	stmdavs	r3!, {r0, r5, r6, r9, sl, fp, sp, lr}^
 12c:	76657220 	strbtvc	r7, [r5], -r0, lsr #4
 130:	6f697369 	svcvs	0x00697369
 134:	3732206e 	ldrcc	r2, [r2, -lr, rrx]!
 138:	39393537 	ldmdbcc	r9!, {r0, r1, r2, r4, r5, r8, sl, ip, sp}
 13c:	6d2d205d 	stcvs	0, cr2, [sp, #-372]!	; 0xfffffe8c
 140:	3d757063 	ldclcc	0, cr7, [r5, #-396]!	; 0xfffffe74
 144:	316d7261 	cmncc	sp, r1, ror #4
 148:	6a363731 	bvs	d8de14 <__bss_end__+0xd83c24>
 14c:	732d667a 			; <UNDEFINED> instruction: 0x732d667a
 150:	746d2d20 	strbtvc	r2, [sp], #-3360	; 0xfffff2e0
 154:	3d656e75 	stclcc	14, cr6, [r5, #-468]!	; 0xfffffe2c
 158:	316d7261 	cmncc	sp, r1, ror #4
 15c:	6a363731 	bvs	d8de28 <__bss_end__+0xd83c38>
 160:	732d667a 			; <UNDEFINED> instruction: 0x732d667a
 164:	666d2d20 	strbtvs	r2, [sp], -r0, lsr #26
 168:	74616f6c 	strbtvc	r6, [r1], #-3948	; 0xfffff094
 16c:	6962612d 	stmdbvs	r2!, {r0, r2, r3, r5, r8, sp, lr}^
 170:	666f733d 			; <UNDEFINED> instruction: 0x666f733d
 174:	6d2d2074 	stcvs	0, cr2, [sp, #-464]!	; 0xfffffe30
 178:	206d7261 	rsbcs	r7, sp, r1, ror #4
 17c:	72616d2d 	rsbvc	r6, r1, #2880	; 0xb40
 180:	613d6863 	teqvs	sp, r3, ror #16
 184:	36766d72 			; <UNDEFINED> instruction: 0x36766d72
 188:	2d207a6b 	vstmdbcs	r0!, {s14-s120}
 18c:	62646767 	rsbvs	r6, r4, #27000832	; 0x19c0000
 190:	674f2d20 	strbvs	r2, [pc, -r0, lsr #26]
 194:	74732d20 	ldrbtvc	r2, [r3], #-3360	; 0xfffff2e0
 198:	6e673d64 	cdpvs	13, 6, cr3, cr7, cr4, {3}
 19c:	20393975 	eorscs	r3, r9, r5, ror r9
 1a0:	7266662d 	rsbvc	r6, r6, #47185920	; 0x2d00000
 1a4:	74736565 	ldrbtvc	r6, [r3], #-1381	; 0xfffffa9b
 1a8:	69646e61 	stmdbvs	r4!, {r0, r5, r6, r9, sl, fp, sp, lr}^
 1ac:	7200676e 	andvc	r6, r0, #28835840	; 0x1b80000
 1b0:	725f6970 	subsvc	r6, pc, #112, 18	; 0x1c0000
 1b4:	74657365 	strbtvc	r7, [r5], #-869	; 0xfffffc9b
 1b8:	7475705f 	ldrbtvc	r7, [r5], #-95	; 0xffffffa1
 1bc:	65680063 	strbvs	r0, [r8, #-99]!	; 0xffffff9d
 1c0:	72656461 	rsbvc	r6, r5, #1627389952	; 0x61000000
 1c4:	65727000 	ldrbvs	r7, [r2, #-0]!
 1c8:	61007076 	tstvs	r0, r6, ror r0
 1cc:	6e67696c 	vnmulvs.f16	s13, s14, s25	; <UNPREDICTABLE>
 1d0:	65726600 	ldrbvs	r6, [r2, #-1536]!	; 0xfffffa00
 1d4:	6e007065 	cdpvs	0, 0, cr7, cr0, cr5, {3}
 1d8:	74696e75 	strbtvc	r6, [r9], #-3701	; 0xfffff18b
 1dc:	726b0073 	rsbvc	r0, fp, #115, 0	; 0x73
 1e0:	6c616d2d 	stclvs	13, cr6, [r1], #-180	; 0xffffff4c
 1e4:	2e636f6c 	cdpcs	15, 6, cr6, cr3, cr12, {3}
 1e8:	6f640063 	svcvs	0x00640063
 1ec:	656c6275 	strbvs	r6, [ip, #-629]!	; 0xfffffd8b
 1f0:	73616200 	cmnvc	r1, #0, 4
 1f4:	62730065 	rsbsvs	r0, r3, #101, 0	; 0x65
 1f8:	6d006b72 	vstrvs	d6, [r0, #-456]	; 0xfffffe38
 1fc:	6365726f 	cmnvs	r5, #-268435450	; 0xf0000006
 200:	0065726f 	rsbeq	r7, r5, pc, ror #4
 204:	657a6973 	ldrbvs	r6, [sl, #-2419]!	; 0xfffff68d
 208:	61654800 	cmnvs	r5, r0, lsl #16
 20c:	00726564 	rsbseq	r6, r2, r4, ror #10
 210:	72636e69 	rsbvc	r6, r3, #1680	; 0x690
 214:	6e656d65 	cdpvs	13, 6, cr6, cr5, cr5, {3}
 218:	6d6b0074 	stclvs	0, cr0, [fp, #-464]!	; 0xfffffe30
 21c:	6f6c6c61 	svcvs	0x006c6c61
 220:	69700063 	ldmdbvs	r0!, {r0, r1, r5, r6}^
 224:	7262732d 	rsbvc	r7, r2, #-1275068416	; 0xb4000000
 228:	00632e6b 	rsbeq	r2, r3, fp, ror #28
 22c:	73677261 	cmnvc	r7, #268435462	; 0x10000006
 230:	5f617600 	svcpl	0x00617600
 234:	6e697270 	mcrvs	2, 3, r7, cr9, cr0, {3}
 238:	5f006b74 	svcpl	0x00006b74
 23c:	756e675f 	strbvc	r6, [lr, #-1887]!	; 0xfffff8a1
 240:	61765f63 	cmnvs	r6, r3, ror #30
 244:	73696c5f 	cmnvc	r9, #24320	; 0x5f00
 248:	4e470074 	mcrmi	0, 2, r0, cr7, cr4, {3}
 24c:	39432055 	stmdbcc	r3, {r0, r2, r4, r6, sp}^
 250:	2e392039 	mrccs	0, 1, r2, cr9, cr9, {1}
 254:	20312e32 	eorscs	r2, r1, r2, lsr lr
 258:	39313032 	ldmdbcc	r1!, {r1, r4, r5, ip, sp}
 25c:	35323031 	ldrcc	r3, [r2, #-49]!	; 0xffffffcf
 260:	65722820 	ldrbvs	r2, [r2, #-2080]!	; 0xfffff7e0
 264:	7361656c 	cmnvc	r1, #108, 10	; 0x1b000000
 268:	5b202965 	blpl	80a804 <__bss_end__+0x800614>
 26c:	2f4d5241 	svccs	0x004d5241
 270:	2d6d7261 	sfmcs	f7, 2, [sp, #-388]!	; 0xfffffe7c
 274:	72622d39 	rsbvc	r2, r2, #3648	; 0xe40
 278:	68636e61 	stmdavs	r3!, {r0, r5, r6, r9, sl, fp, sp, lr}^
 27c:	76657220 	strbtvc	r7, [r5], -r0, lsr #4
 280:	6f697369 	svcvs	0x00697369
 284:	3732206e 	ldrcc	r2, [r2, -lr, rrx]!
 288:	39393537 	ldmdbcc	r9!, {r0, r1, r2, r4, r5, r8, sl, ip, sp}
 28c:	6d2d205d 	stcvs	0, cr2, [sp, #-372]!	; 0xfffffe8c
 290:	3d757063 	ldclcc	0, cr7, [r5, #-396]!	; 0xfffffe74
 294:	316d7261 	cmncc	sp, r1, ror #4
 298:	6a363731 	bvs	d8df64 <__bss_end__+0xd83d74>
 29c:	732d667a 			; <UNDEFINED> instruction: 0x732d667a
 2a0:	746d2d20 	strbtvc	r2, [sp], #-3360	; 0xfffff2e0
 2a4:	3d656e75 	stclcc	14, cr6, [r5, #-468]!	; 0xfffffe2c
 2a8:	316d7261 	cmncc	sp, r1, ror #4
 2ac:	6a363731 	bvs	d8df78 <__bss_end__+0xd83d88>
 2b0:	732d667a 			; <UNDEFINED> instruction: 0x732d667a
 2b4:	666d2d20 	strbtvs	r2, [sp], -r0, lsr #26
 2b8:	74616f6c 	strbtvc	r6, [r1], #-3948	; 0xfffff094
 2bc:	6962612d 	stmdbvs	r2!, {r0, r2, r3, r5, r8, sp, lr}^
 2c0:	666f733d 			; <UNDEFINED> instruction: 0x666f733d
 2c4:	6d2d2074 	stcvs	0, cr2, [sp, #-464]!	; 0xfffffe30
 2c8:	206d7261 	rsbcs	r7, sp, r1, ror #4
 2cc:	72616d2d 	rsbvc	r6, r1, #2880	; 0xb40
 2d0:	613d6863 	teqvs	sp, r3, ror #16
 2d4:	36766d72 			; <UNDEFINED> instruction: 0x36766d72
 2d8:	2d207a6b 	vstmdbcs	r0!, {s14-s120}
 2dc:	62646767 	rsbvs	r6, r4, #27000832	; 0x19c0000
 2e0:	664f2d20 	strbvs	r2, [pc], -r0, lsr #26
 2e4:	20747361 	rsbscs	r7, r4, r1, ror #6
 2e8:	6474732d 	ldrbtvs	r7, [r4], #-813	; 0xfffffcd3
 2ec:	756e673d 	strbvc	r6, [lr, #-1853]!	; 0xfffff8c3
 2f0:	2d203939 			; <UNDEFINED> instruction: 0x2d203939
 2f4:	65726666 	ldrbvs	r6, [r2, #-1638]!	; 0xfffff99a
 2f8:	61747365 	cmnvs	r4, r5, ror #6
 2fc:	6e69646e 	cdpvs	4, 6, cr6, cr9, cr14, {3}
 300:	5f5f0067 	svcpl	0x005f0067
 304:	2e007061 	cdpcs	0, 0, cr7, cr0, cr1, {3}
 308:	62696c2f 	rsbvs	r6, r9, #12032	; 0x2f00
 30c:	72702f63 	rsbsvc	r2, r0, #396	; 0x18c
 310:	6b746e69 	blvs	1d1bcbc <__bss_end__+0x1d11acc>
 314:	5f00632e 	svcpl	0x0000632e
 318:	5f61765f 	svcpl	0x0061765f
 31c:	7473696c 	ldrbtvc	r6, [r3], #-2412	; 0xfffff694
 320:	73552f00 	cmpvc	r5, #0, 30
 324:	2f737265 	svccs	0x00737265
 328:	656c696d 	strbvs	r6, [ip, #-2413]!	; 0xfffff693
 32c:	6f532f73 	svcvs	0x00532f73
 330:	65637275 	strbvs	r7, [r3, #-629]!	; 0xfffffd8b
 334:	3273632f 	rsbscc	r6, r3, #-1140850688	; 0xbc000000
 338:	786c3034 	stmdavc	ip!, {r2, r4, r5, ip, sp}^
 33c:	62696c2f 	rsbvs	r6, r9, #12032	; 0x2f00
 340:	69006970 	stmdbvs	r0, {r4, r5, r6, r8, fp, sp, lr}
 344:	7265746e 	rsbvc	r7, r5, #1845493760	; 0x6e000000
 348:	5f6c616e 	svcpl	0x006c616e
 34c:	63747570 	cmnvs	r4, #112, 10	; 0x1c000000
 350:	00726168 	rsbseq	r6, r2, r8, ror #2
 354:	5f697072 	svcpl	0x00697072
 358:	5f746573 	svcpl	0x00746573
 35c:	63747570 	cmnvs	r4, #112, 10	; 0x1c000000
 360:	6c2f2e00 	stcvs	14, cr2, [pc], #-0	; 368 <__code_start__-0x7c98>
 364:	2f636269 	svccs	0x00636269
 368:	63747570 	cmnvs	r4, #112, 10	; 0x1c000000
 36c:	2e726168 	rpwcssz	f6, f2, #0.0
 370:	61750063 	cmnvs	r5, r3, rrx
 374:	705f7472 	subsvc	r7, pc, r2, ror r4	; <UNPREDICTABLE>
 378:	00637475 	rsbeq	r7, r3, r5, ror r4
 37c:	65746e69 	ldrbvs	r6, [r4, #-3689]!	; 0xfffff197
 380:	6c616e72 	stclvs	14, cr6, [r1], #-456	; 0xfffffe38
 384:	7475705f 	ldrbtvc	r7, [r5], #-95	; 0xffffffa1
 388:	2f2e006b 	svccs	0x002e006b
 38c:	6362696c 	cmnvs	r2, #108, 18	; 0x1b0000
 390:	7475702f 	ldrbtvc	r7, [r5], #-47	; 0xffffffd1
 394:	00632e6b 	rsbeq	r2, r3, fp, ror #28
 398:	69647369 	stmdbvs	r4!, {r0, r3, r5, r6, r8, r9, ip, sp, lr}^
 39c:	00746967 	rsbseq	r6, r4, r7, ror #18
 3a0:	746e6975 	strbtvc	r6, [lr], #-2421	; 0xfffff68b
 3a4:	745f3436 	ldrbvc	r3, [pc], #-1078	; 3ac <__code_start__-0x7c54>
 3a8:	6c2f2e00 	stcvs	14, cr2, [pc], #-0	; 3b0 <__code_start__-0x7c50>
 3ac:	2f636269 	svccs	0x00636269
 3b0:	702d6176 	eorvc	r6, sp, r6, ror r1
 3b4:	746e6972 	strbtvc	r6, [lr], #-2418	; 0xfffff68e
 3b8:	00632e6b 	rsbeq	r2, r3, fp, ror #28
 3bc:	6f635f5f 	svcvs	0x00635f5f
 3c0:	735f6564 	cmpvc	pc, #100, 10	; 0x19000000
 3c4:	74726174 	ldrbtvc	r6, [r2], #-372	; 0xfffffe8c
 3c8:	5f005f5f 	svcpl	0x00005f5f
 3cc:	7373625f 	cmnvc	r3, #-268435451	; 0xf0000005
 3d0:	6174735f 	cmnvs	r4, pc, asr r3
 3d4:	5f5f7472 	svcpl	0x005f7472
 3d8:	64697700 	strbtvs	r7, [r9], #-1792	; 0xfffff900
 3dc:	5f006874 	svcpl	0x00006874
 3e0:	7461645f 	strbtvc	r6, [r1], #-1119	; 0xfffffba1
 3e4:	6e655f61 	cdpvs	15, 6, cr5, cr5, cr1, {3}
 3e8:	005f5f64 	subseq	r5, pc, r4, ror #30
 3ec:	63747570 	cmnvs	r4, #112, 10	; 0x1c000000
 3f0:	0070665f 	rsbseq	r6, r0, pc, asr r6
 3f4:	73625f5f 	cmnvc	r2, #380	; 0x17c
 3f8:	6e655f73 	mcrvs	15, 3, r5, cr5, cr3, {3}
 3fc:	005f5f64 	subseq	r5, pc, r4, ror #30
 400:	65685f5f 	strbvs	r5, [r8, #-3935]!	; 0xfffff0a1
 404:	735f7061 	cmpvc	pc, #97, 0	; 0x61
 408:	74726174 	ldrbtvc	r6, [r2], #-372	; 0xfffffe8c
 40c:	75005f5f 	strvc	r5, [r0, #-3935]	; 0xfffff0a1
 410:	33746e69 	cmncc	r4, #1680	; 0x690
 414:	00745f32 	rsbseq	r5, r4, r2, lsr pc
 418:	5f697072 	svcpl	0x00697072
 41c:	5f746573 	svcpl	0x00746573
 420:	7074756f 	rsbsvc	r7, r4, pc, ror #10
 424:	66007475 			; <UNDEFINED> instruction: 0x66007475
 428:	735f746d 	cmpvc	pc, #1828716544	; 0x6d000000
 42c:	74726174 	ldrbtvc	r6, [r2], #-372	; 0xfffffe8c
 430:	72747300 	rsbsvc	r7, r4, #0, 6
 434:	00746163 	rsbseq	r6, r4, r3, ror #2
 438:	63727473 	cmnvs	r2, #1929379840	; 0x73000000
 43c:	6e007970 			; <UNDEFINED> instruction: 0x6e007970
 440:	705f6765 	subsvc	r6, pc, r5, ror #14
 444:	635f5f00 	cmpvs	pc, #0, 30
 448:	5f65646f 	svcpl	0x0065646f
 44c:	5f646e65 	svcpl	0x00646e65
 450:	6d65005f 	stclvs	0, cr0, [r5, #-380]!	; 0xfffffe84
 454:	72007469 	andvc	r7, r0, #1761607680	; 0x69000000
 458:	72657665 	rsbvc	r7, r5, #105906176	; 0x6500000
 45c:	73006573 	movwvc	r6, #1395	; 0x573
 460:	6d637274 	sfmvs	f7, 2, [r3, #-464]!	; 0xfffffe30
 464:	75700070 	ldrbvc	r0, [r0, #-112]!	; 0xffffff90
 468:	665f7374 			; <UNDEFINED> instruction: 0x665f7374
 46c:	5f5f0070 	svcpl	0x005f0070
 470:	61746164 	cmnvs	r4, r4, ror #2
 474:	6174735f 	cmnvs	r4, pc, asr r3
 478:	5f5f7472 	svcpl	0x005f7472
 47c:	705f5f00 	subsvc	r5, pc, r0, lsl #30
 480:	5f676f72 	svcpl	0x00676f72
 484:	5f646e65 	svcpl	0x00646e65
 488:	756e005f 	strbvc	r0, [lr, #-95]!	; 0xffffffa1
 48c:	7300316d 	movwvc	r3, #365	; 0x16d
 490:	636e7274 	cmnvs	lr, #116, 4	; 0x40000007
 494:	7300706d 	movwvc	r7, #109	; 0x6d
 498:	656e6769 	strbvs	r6, [lr, #-1897]!	; 0xfffff897
 49c:	00705f64 	rsbseq	r5, r0, r4, ror #30
 4a0:	5f697072 	svcpl	0x00697072
 4a4:	6f626572 	svcvs	0x00626572
 4a8:	6400746f 	strvs	r7, [r0], #-1135	; 0xfffffb91
 4ac:	79616c65 	stmdbvc	r1!, {r0, r2, r5, r6, sl, fp, sp, lr}^
 4b0:	00736d5f 	rsbseq	r6, r3, pc, asr sp
 4b4:	74732f2e 	ldrbtvc	r2, [r3], #-3886	; 0xfffff0d2
 4b8:	2d666661 	stclcs	6, cr6, [r6, #-388]!	; 0xfffffe7c
 4bc:	2f637273 	svccs	0x00637273
 4c0:	61656c63 	cmnvs	r5, r3, ror #24
 4c4:	65722d6e 	ldrbvs	r2, [r2, #-3438]!	; 0xfffff292
 4c8:	746f6f62 	strbtvc	r6, [pc], #-3938	; 4d0 <__code_start__-0x7b30>
 4cc:	7500632e 	strvc	r6, [r0, #-814]	; 0xfffffcd2
 4d0:	5f747261 	svcpl	0x00747261
 4d4:	73756c66 	cmnvc	r5, #26112	; 0x6600
 4d8:	78745f68 	ldmdavc	r4!, {r3, r5, r6, r8, r9, sl, fp, ip, lr}^
 4dc:	73635f00 	cmnvc	r3, #0, 30
 4e0:	74726174 	ldrbtvc	r6, [r2], #-372	; 0xfffffe8c
 4e4:	73736200 	cmnvc	r3, #0, 4
 4e8:	646e655f 	strbtvs	r6, [lr], #-1375	; 0xfffffaa1
 4ec:	72617500 	rsbvc	r7, r1, #0, 10
 4f0:	6e695f74 	mcrvs	15, 3, r5, cr9, cr4, {3}
 4f4:	63007469 	movwvs	r7, #1129	; 0x469
 4f8:	6f747375 	svcvs	0x00747375
 4fc:	6f6c5f6d 	svcvs	0x006c5f6d
 500:	72656461 	rsbvc	r6, r5, #1627389952	; 0x61000000
 504:	732f2e00 			; <UNDEFINED> instruction: 0x732f2e00
 508:	66666174 			; <UNDEFINED> instruction: 0x66666174
 50c:	6372732d 	cmnvs	r2, #-1275068416	; 0xb4000000
 510:	7473632f 	ldrbtvc	r6, [r3], #-815	; 0xfffffcd1
 514:	2e747261 	cdpcs	2, 7, cr7, cr4, cr1, {3}
 518:	2f2e0063 	svccs	0x002e0063
 51c:	66617473 			; <UNDEFINED> instruction: 0x66617473
 520:	72732d66 	rsbsvc	r2, r3, #6528	; 0x1980
 524:	75632f63 	strbvc	r2, [r3, #-3939]!	; 0xfffff09d
 528:	6d6f7473 	cfstrdvs	mvd7, [pc, #-460]!	; 364 <__code_start__-0x7c9c>
 52c:	616f6c2d 	cmnvs	pc, sp, lsr #24
 530:	2e726564 	cdpcs	5, 7, cr6, cr2, cr4, {3}
 534:	65720063 	ldrbvs	r0, [r2, #-99]!	; 0xffffff9d
 538:	746f6f62 	strbtvc	r6, [pc], #-3938	; 540 <__code_start__-0x7ac0>
 53c:	6c61635f 	stclvs	3, cr6, [r1], #-380	; 0xfffffe84
 540:	74756f6c 	ldrbtvc	r6, [r5], #-3948	; 0xfffff094
 544:	5f4d5000 	svcpl	0x004d5000
 548:	474f4457 	smlsldmi	r4, pc, r7, r4	; <UNPREDICTABLE>
 54c:	54555000 	ldrbpl	r5, [r5], #-0
 550:	73003233 	movwvc	r3, #563	; 0x233
 554:	755f7465 	ldrbvc	r7, [pc, #-1125]	; f7 <__code_start__-0x7f09>
 558:	5f726573 	svcpl	0x00726573
 55c:	6576656c 	ldrbvs	r6, [r6, #-1388]!	; 0xfffffa94
 560:	2f2e006c 	svccs	0x002e006c
 564:	66617473 			; <UNDEFINED> instruction: 0x66617473
 568:	72732d66 	rsbsvc	r2, r3, #6528	; 0x1980
 56c:	65722f63 	ldrbvs	r2, [r2, #-3939]!	; 0xfffff09d
 570:	746f6f62 	strbtvc	r6, [pc], #-3938	; 578 <__code_start__-0x7a88>
 574:	5000632e 	andpl	r6, r0, lr, lsr #6
 578:	41505f4d 	cmpmi	r0, sp, asr #30
 57c:	4f575353 	svcmi	0x00575353
 580:	61004452 	tstvs	r0, r2, asr r4
 584:	73755f74 	cmnvc	r5, #116, 30	; 0x1d0
 588:	6c5f7265 	lfmvs	f7, 2, [pc], {101}	; 0x65
 58c:	6c657665 	stclvs	6, cr7, [r5], #-404	; 0xfffffe6c
 590:	5f4d5000 	svcpl	0x004d5000
 594:	43545352 	cmpmi	r4, #1207959553	; 0x48000001
 598:	4352575f 	cmpmi	r2, #24903680	; 0x17c0000
 59c:	465f4746 	ldrbmi	r4, [pc], -r6, asr #14
 5a0:	5f4c4c55 	svcpl	0x004c4c55
 5a4:	45534552 	ldrbmi	r4, [r3, #-1362]	; 0xfffffaae
 5a8:	4d500054 	ldclmi	0, cr0, [r0, #-336]	; 0xfffffeb0
 5ac:	5453525f 	ldrbpl	r5, [r3], #-607	; 0xfffffda1
 5b0:	70630043 	rsbvc	r0, r3, r3, asr #32
 5b4:	64007273 	strvs	r7, [r0], #-627	; 0xfffffd8d
 5b8:	625f7665 	subsvs	r7, pc, #105906176	; 0x6500000
 5bc:	69727261 	ldmdbvs	r2!, {r0, r5, r6, r9, ip, sp, lr}^
 5c0:	64007265 	strvs	r7, [r0], #-613	; 0xfffffd9b
 5c4:	79616c65 	stmdbvc	r1!, {r0, r2, r5, r6, sl, fp, sp, lr}^
 5c8:	6365735f 	cmnvs	r5, #2080374785	; 0x7c000001
 5cc:	732f2e00 			; <UNDEFINED> instruction: 0x732f2e00
 5d0:	66666174 			; <UNDEFINED> instruction: 0x66666174
 5d4:	6372732d 	cmnvs	r2, #-1275068416	; 0xb4000000
 5d8:	6d69742f 	cfstrdvs	mvd7, [r9, #-188]!	; 0xffffff44
 5dc:	632e7265 			; <UNDEFINED> instruction: 0x632e7265
 5e0:	54454700 	strbpl	r4, [r5], #-1792	; 0xfffff900
 5e4:	74003233 	strvc	r3, [r0], #-563	; 0xfffffdcd
 5e8:	72656d69 	rsbvc	r6, r5, #6720	; 0x1a40
 5ec:	7465675f 	strbtvc	r6, [r5], #-1887	; 0xfffff8a1
 5f0:	6573755f 	ldrbvs	r7, [r3, #-1375]!	; 0xfffffaa1
 5f4:	65640063 	strbvs	r0, [r4, #-99]!	; 0xffffff9d
 5f8:	5f79616c 	svcpl	0x0079616c
 5fc:	74007375 	strvc	r7, [r0], #-885	; 0xfffffc8b
 600:	72656d69 	rsbvc	r6, r5, #6720	; 0x1a40
 604:	7465675f 	strbtvc	r6, [r5], #-1887	; 0xfffff8a1
 608:	6573755f 	ldrbvs	r7, [r3, #-1375]!	; 0xfffffaa1
 60c:	61725f63 	cmnvs	r2, r3, ror #30
 610:	75700077 	ldrbvc	r0, [r0, #-119]!	; 0xffffff89
 614:	00323374 	eorseq	r3, r2, r4, ror r3
 618:	64756162 	ldrbtvs	r6, [r5], #-354	; 0xfffffe9e
 61c:	6c61765f 	stclvs	6, cr7, [r1], #-380	; 0xfffffe84
 620:	61747300 	cmnvs	r4, r0, lsl #6
 624:	61750074 	cmnvs	r5, r4, ror r0
 628:	635f7472 	cmpvs	pc, #1912602624	; 0x72000000
 62c:	675f6e61 	ldrbvs	r6, [pc, -r1, ror #28]
 630:	00637465 	rsbeq	r7, r3, r5, ror #8
 634:	4f495047 	svcmi	0x00495047
 638:	4e55465f 	mrcmi	6, 2, r4, cr5, cr15, {2}
 63c:	554f5f43 	strbpl	r5, [pc, #-3907]	; fffff701 <__bss_end__+0xffff5511>
 640:	54555054 	ldrbpl	r5, [r5], #-84	; 0xffffffac
 644:	78756100 	ldmdavc	r5!, {r8, sp, lr}^
 648:	7265705f 	rsbvc	r7, r5, #95, 0	; 0x5f
 64c:	73687069 	cmnvc	r8, #105, 0	; 0x69
 650:	72617500 	rsbvc	r7, r1, #0, 10
 654:	00632e74 	rsbeq	r2, r3, r4, ror lr
 658:	74726175 	ldrbtvc	r6, [r2], #-373	; 0xfffffe8b
 65c:	6e61635f 	mcrvs	3, 3, r6, cr1, cr15, {2}
 660:	7475705f 	ldrbtvc	r7, [r5], #-95	; 0xffffffa1
 664:	61750063 	cmnvs	r5, r3, rrx
 668:	745f7472 	ldrbvc	r7, [pc], #-1138	; 670 <__code_start__-0x7990>
 66c:	73695f78 	cmnvc	r9, #120, 30	; 0x1e0
 670:	706d655f 	rsbvc	r6, sp, pc, asr r5
 674:	47007974 	smlsdxmi	r0, r4, r9, r7
 678:	5f4f4950 	svcpl	0x004f4950
 67c:	434e5546 	movtmi	r5, #58694	; 0xe546
 680:	544c415f 	strbpl	r4, [ip], #-351	; 0xfffffea1
 684:	50470030 	subpl	r0, r7, r0, lsr r0
 688:	465f4f49 	ldrbmi	r4, [pc], -r9, asr #30
 68c:	5f434e55 	svcpl	0x00434e55
 690:	31544c41 	cmpcc	r4, r1, asr #24
 694:	49504700 	ldmdbmi	r0, {r8, r9, sl, lr}^
 698:	55465f4f 	strbpl	r5, [r6, #-3919]	; 0xfffff0b1
 69c:	415f434e 	cmpmi	pc, lr, asr #6
 6a0:	0032544c 	eorseq	r5, r2, ip, asr #8
 6a4:	4f495047 	svcmi	0x00495047
 6a8:	4e55465f 	mrcmi	6, 2, r4, cr5, cr15, {2}
 6ac:	4c415f43 	mcrrmi	15, 4, r5, r1, cr3
 6b0:	47003354 	smlsdmi	r0, r4, r3, r3
 6b4:	5f4f4950 	svcpl	0x004f4950
 6b8:	434e5546 	movtmi	r5, #58694	; 0xe546
 6bc:	544c415f 	strbpl	r4, [ip], #-351	; 0xfffffea1
 6c0:	682f0035 	stmdavs	pc!, {r0, r2, r4, r5}	; <UNPREDICTABLE>
 6c4:	2f656d6f 	svccs	0x00656d6f
 6c8:	6c676e65 	stclvs	14, cr6, [r7], #-404	; 0xfffffe6c
 6cc:	632f7265 			; <UNDEFINED> instruction: 0x632f7265
 6d0:	7373616c 	cmnvc	r3, #27
 6d4:	3273632f 	rsbscc	r6, r3, #-1140850688	; 0xbc000000
 6d8:	786c3034 	stmdavc	ip!, {r2, r4, r5, ip, sp}^
 6dc:	7332322d 	teqvc	r2, #-805306366	; 0xd0000002
 6e0:	6c2f7270 	sfmvs	f7, 4, [pc], #-448	; 528 <__code_start__-0x7ad8>
 6e4:	69706269 	ldmdbvs	r0!, {r0, r3, r5, r6, r9, sp, lr}^
 6e8:	6174732f 	cmnvs	r4, pc, lsr #6
 6ec:	702d6666 	eorvc	r6, sp, r6, ror #12
 6f0:	61766972 	cmnvs	r6, r2, ror r9
 6f4:	62006574 	andvs	r6, r0, #116, 10	; 0x1d000000
 6f8:	00647561 	rsbeq	r7, r4, r1, ror #10
 6fc:	5f787561 	svcpl	0x00787561
 700:	62616e65 	rsbvs	r6, r1, #1616	; 0x650
 704:	0073656c 	rsbseq	r6, r3, ip, ror #10
 708:	74726175 	ldrbtvc	r6, [r2], #-373	; 0xfffffe8b
 70c:	7465675f 	strbtvc	r6, [r5], #-1887	; 0xfffff8a1
 710:	4e470063 	cdpmi	0, 4, cr0, cr7, cr3, {3}
 714:	39432055 	stmdbcc	r3, {r0, r2, r4, r6, sp}^
 718:	30312039 	eorscc	r2, r1, r9, lsr r0
 71c:	312e332e 			; <UNDEFINED> instruction: 0x312e332e
 720:	32303220 	eorscc	r3, r0, #32, 4
 724:	32383031 	eorscc	r3, r8, #49, 0	; 0x31
 728:	72282034 	eorvc	r2, r8, #52, 0	; 0x34
 72c:	61656c65 	cmnvs	r5, r5, ror #24
 730:	20296573 	eorcs	r6, r9, r3, ror r5
 734:	70636d2d 	rsbvc	r6, r3, sp, lsr #26
 738:	72613d75 	rsbvc	r3, r1, #7488	; 0x1d40
 73c:	3731316d 	ldrcc	r3, [r1, -sp, ror #2]!
 740:	667a6a36 			; <UNDEFINED> instruction: 0x667a6a36
 744:	2d20732d 	stccs	3, cr7, [r0, #-180]!	; 0xffffff4c
 748:	6e75746d 	cdpvs	4, 7, cr7, cr5, cr13, {3}
 74c:	72613d65 	rsbvc	r3, r1, #6464	; 0x1940
 750:	3731316d 	ldrcc	r3, [r1, -sp, ror #2]!
 754:	667a6a36 			; <UNDEFINED> instruction: 0x667a6a36
 758:	2d20732d 	stccs	3, cr7, [r0, #-180]!	; 0xffffff4c
 75c:	6f6c666d 	svcvs	0x006c666d
 760:	612d7461 			; <UNDEFINED> instruction: 0x612d7461
 764:	733d6962 	teqvc	sp, #1605632	; 0x188000
 768:	2074666f 	rsbscs	r6, r4, pc, ror #12
 76c:	72616d2d 	rsbvc	r6, r1, #2880	; 0xb40
 770:	6d2d206d 	stcvs	0, cr2, [sp, #-436]!	; 0xfffffe4c
 774:	68637261 	stmdavs	r3!, {r0, r5, r6, r9, ip, sp, lr}^
 778:	6d72613d 	ldfvse	f6, [r2, #-244]!	; 0xffffff0c
 77c:	7a6b3676 	bvc	1ace15c <__bss_end__+0x1ac3f6c>
 780:	67672d20 	strbvs	r2, [r7, -r0, lsr #26]!
 784:	2d206264 	sfmcs	f6, 4, [r0, #-400]!	; 0xfffffe70
 788:	2d20674f 	stccs	7, cr6, [r0, #-316]!	; 0xfffffec4
 78c:	3d647473 	cfstrdcc	mvd7, [r4, #-460]!	; 0xfffffe34
 790:	39756e67 	ldmdbcc	r5!, {r0, r1, r2, r5, r6, r9, sl, fp, sp, lr}^
 794:	662d2039 			; <UNDEFINED> instruction: 0x662d2039
 798:	65657266 	strbvs	r7, [r5, #-614]!	; 0xfffffd9a
 79c:	6e617473 	mcrvs	4, 3, r7, cr1, cr3, {3}
 7a0:	676e6964 	strbvs	r6, [lr, -r4, ror #18]!
 7a4:	746e6300 	strbtvc	r6, [lr], #-768	; 0xfffffd00
 7a8:	6175006c 	cmnvs	r5, ip, rrx
 7ac:	645f7472 	ldrbvs	r7, [pc], #-1138	; 7b4 <__code_start__-0x784c>
 7b0:	62617369 	rsbvs	r7, r1, #-1543503871	; 0xa4000001
 7b4:	7500656c 	strvc	r6, [r0, #-1388]	; 0xfffffa94
 7b8:	5f747261 	svcpl	0x00747261
 7bc:	5f736168 	svcpl	0x00736168
 7c0:	61746164 	cmnvs	r4, r4, ror #2
 7c4:	49504700 	ldmdbmi	r0, {r8, r9, sl, lr}^
 7c8:	55465f4f 	strbpl	r5, [r6, #-3919]	; 0xfffff0b1
 7cc:	415f434e 	cmpmi	pc, lr, asr #6
 7d0:	0034544c 	eorseq	r5, r4, ip, asr #8
 7d4:	695f726f 	ldmdbvs	pc, {r0, r1, r2, r3, r5, r6, r9, ip, sp, lr}^	; <UNPREDICTABLE>
 7d8:	0032336e 	eorseq	r3, r2, lr, ror #6
 7dc:	61726373 	cmnvs	r2, r3, ror r3
 7e0:	00686374 	rsbeq	r6, r8, r4, ror r3
 7e4:	74726175 	ldrbtvc	r6, [r2], #-373	; 0xfffffe8b
 7e8:	646e6100 	strbtvs	r6, [lr], #-256	; 0xffffff00
 7ec:	336e695f 	cmncc	lr, #1556480	; 0x17c000
 7f0:	50470032 	subpl	r0, r7, r2, lsr r0
 7f4:	465f4f49 	ldrbmi	r4, [pc], -r9, asr #30
 7f8:	5f434e55 	svcpl	0x00434e55
 7fc:	55504e49 	ldrbpl	r4, [r0, #-3657]	; 0xfffff1b7
 800:	70670054 	rsbvc	r0, r7, r4, asr r0
 804:	735f6f69 	cmpvc	pc, #420	; 0x1a4
 808:	665f7465 	ldrbvs	r7, [pc], -r5, ror #8
 80c:	74636e75 	strbtvc	r6, [r3], #-3701	; 0xfffff18b
 810:	006e6f69 	rsbeq	r6, lr, r9, ror #30
 814:	33746567 	cmncc	r4, #432013312	; 0x19c00000
 818:	6d6b0032 	stclvs	0, cr0, [fp, #-200]!	; 0xffffff38
 81c:	6f6c6c61 	svcvs	0x006c6c61
 820:	65685f63 	strbvs	r5, [r8, #-3939]!	; 0xfffff09d
 824:	735f7061 	cmpvc	pc, #97, 0	; 0x61
 828:	74726174 	ldrbtvc	r6, [r2], #-372	; 0xfffffe8c
 82c:	78616d00 	stmdavc	r1!, {r8, sl, fp, sp, lr}^
 830:	79626e5f 	stmdbvc	r2!, {r0, r1, r2, r3, r4, r6, r9, sl, fp, sp, lr}^
 834:	00736574 	rsbseq	r6, r3, r4, ror r5
 838:	6464615f 	strbtvs	r6, [r4], #-351	; 0xfffffea1
 83c:	666b0072 			; <UNDEFINED> instruction: 0x666b0072
 840:	00656572 	rsbeq	r6, r5, r2, ror r5
 844:	70616568 	rsbvc	r6, r1, r8, ror #10
 848:	78616d5f 	stmdavc	r1!, {r0, r1, r2, r3, r4, r6, r8, sl, fp, sp, lr}^
 84c:	72666b00 	rsbvc	r6, r6, #0, 22
 850:	615f6565 	cmpvs	pc, r5, ror #10
 854:	72006c6c 	andvc	r6, r0, #108, 24	; 0x6c00
 858:	646e756f 	strbtvs	r7, [lr], #-1391	; 0xfffffa91
 85c:	68007075 	stmdavs	r0, {r0, r2, r4, r5, r6, ip, sp, lr}
 860:	00706165 	rsbseq	r6, r0, r5, ror #2
 864:	74696e69 	strbtvc	r6, [r9], #-3689	; 0xfffff197
 868:	6b00705f 	blvs	1c9ec <__bss_end__+0x127fc>
 86c:	65657266 	strbvs	r7, [r5, #-614]!	; 0xfffffd9a
 870:	706f705f 	rsbvc	r7, pc, pc, asr r0	; <UNPREDICTABLE>
 874:	6d656d00 	stclvs	13, cr6, [r5, #-0]
 878:	00746573 	rsbseq	r6, r4, r3, ror r5
 87c:	67696c61 	strbvs	r6, [r9, -r1, ror #24]!
 880:	6e656d6e 	cdpvs	13, 6, cr6, cr5, cr14, {3}
 884:	616d0074 	smcvs	53252	; 0xd004
 888:	33755f78 	cmncc	r5, #120, 30	; 0x1e0
 88c:	6e4f0032 	mcrvs	0, 2, r0, cr15, cr2, {1}
 890:	00424d65 	subeq	r4, r2, r5, ror #26
 894:	6c616d6b 	stclvs	13, cr6, [r1], #-428	; 0xfffffe54
 898:	5f636f6c 	svcpl	0x00636f6c
 89c:	70616568 	rsbvc	r6, r1, r8, ror #10
 8a0:	646e655f 	strbtvs	r6, [lr], #-1375	; 0xfffffaa1
 8a4:	616d6b00 	cmnvs	sp, r0, lsl #22
 8a8:	636f6c6c 	cmnvs	pc, #108, 24	; 0x6c00
 8ac:	746f6e5f 	strbtvc	r6, [pc], #-3679	; 8b4 <__code_start__-0x774c>
 8b0:	6f72657a 	svcvs	0x0072657a
 8b4:	5f736900 	svcpl	0x00736900
 8b8:	32776f70 	rsbscc	r6, r7, #112, 30	; 0x1c0
 8bc:	616d6b00 	cmnvs	sp, r0, lsl #22
 8c0:	636f6c6c 	cmnvs	pc, #108, 24	; 0x6c00
 8c4:	6b00632e 	blvs	19584 <__bss_end__+0xf394>
 8c8:	6c6c616d 	stfvse	f6, [ip], #-436	; 0xfffffe4c
 8cc:	695f636f 	ldmdbvs	pc, {r0, r1, r2, r3, r5, r6, r8, r9, sp, lr}^	; <UNPREDICTABLE>
 8d0:	0074696e 	rsbseq	r6, r4, lr, ror #18
 8d4:	615f7369 	cmpvs	pc, r9, ror #6
 8d8:	6e67696c 	vnmulvs.f16	s13, s14, s25	; <UNPREDICTABLE>
 8dc:	6b006465 	blvs	19a78 <__bss_end__+0xf888>
 8e0:	6c6c616d 	stfvse	f6, [ip], #-436	; 0xfffffe4c
 8e4:	685f636f 	ldmdavs	pc, {r0, r1, r2, r3, r5, r6, r8, r9, sp, lr}^	; <UNPREDICTABLE>
 8e8:	5f706165 	svcpl	0x00706165
 8ec:	00727470 	rsbseq	r7, r2, r0, ror r4
 8f0:	6c616d6b 	stclvs	13, cr6, [r1], #-428	; 0xfffffe54
 8f4:	5f636f6c 	svcpl	0x00636f6c
 8f8:	74696e69 	strbtvc	r6, [r9], #-3689	; 0xfffff197
 8fc:	7465735f 	strbtvc	r7, [r5], #-863	; 0xfffffca1
 900:	6174735f 	cmnvs	r4, pc, asr r3
 904:	6b007472 	blvs	1dad4 <__bss_end__+0x138e4>
 908:	6c6c616d 	stfvse	f6, [ip], #-436	; 0xfffffe4c
 90c:	615f636f 	cmpvs	pc, pc, ror #6
 910:	6e67696c 	vnmulvs.f16	s13, s14, s25	; <UNPREDICTABLE>
 914:	67006465 	strvs	r6, [r0, -r5, ror #8]
 918:	5f6f6970 	svcpl	0x006f6970
 91c:	30726c63 	rsbscc	r6, r2, r3, ror #24
 920:	69706700 	ldmdbvs	r0!, {r8, r9, sl, sp, lr}^
 924:	65735f6f 	ldrbvs	r5, [r3, #-3951]!	; 0xfffff091
 928:	67003074 	smlsdxvs	r0, r4, r0, r3
 92c:	5f6f6970 	svcpl	0x006f6970
 930:	74697277 	strbtvc	r7, [r9], #-631	; 0xfffffd89
 934:	45440065 	strbmi	r0, [r4, #-101]	; 0xffffff9b
 938:	41565f56 	cmpmi	r6, r6, asr pc
 93c:	0032334c 	eorseq	r3, r2, ip, asr #6
 940:	6f697067 	svcvs	0x00697067
 944:	6165725f 	cmnvs	r5, pc, asr r2
 948:	2f2e0064 	svccs	0x002e0064
 94c:	2f637273 	svccs	0x00637273
 950:	6f697067 	svcvs	0x00697067
 954:	6700632e 	strvs	r6, [r0, -lr, lsr #6]
 958:	5f6f6970 	svcpl	0x006f6970
 95c:	5f746573 	svcpl	0x00746573
 960:	75706e69 	ldrbvc	r6, [r0, #-3689]!	; 0xfffff197
 964:	70670074 	rsbvc	r0, r7, r4, ror r0
 968:	735f6f69 	cmpvc	pc, #420	; 0x1a4
 96c:	6f5f7465 	svcvs	0x005f7465
 970:	67006666 	strvs	r6, [r0, -r6, ror #12]
 974:	5f6f6970 	svcpl	0x006f6970
 978:	5f746573 	svcpl	0x00746573
 97c:	7074756f 	rsbsvc	r7, r4, pc, ror #10
 980:	66007475 			; <UNDEFINED> instruction: 0x66007475
 984:	00636e75 	rsbeq	r6, r3, r5, ror lr
 988:	6f697067 	svcvs	0x00697067
 98c:	6e75665f 	mrcvs	6, 3, r6, cr5, cr15, {2}
 990:	00745f63 	rsbseq	r5, r4, r3, ror #30
 994:	6f697067 	svcvs	0x00697067
 998:	76656c5f 			; <UNDEFINED> instruction: 0x76656c5f
 99c:	61620030 	cmnvs	r2, r0, lsr r0
 9a0:	67006b6e 	strvs	r6, [r0, -lr, ror #22]
 9a4:	5f6f6970 	svcpl	0x006f6970
 9a8:	5f746573 	svcpl	0x00746573
 9ac:	73006e6f 	movwvc	r6, #3695	; 0xe6f
 9b0:	5f657a69 	svcpl	0x00657a69
 9b4:	2f2e0074 	svccs	0x002e0074
 9b8:	6362696c 	cmnvs	r2, #108, 18	; 0x1b0000
 9bc:	6d656d2f 	stclvs	13, cr6, [r5, #-188]!	; 0xffffff44
 9c0:	2e746573 	mrccs	5, 3, r6, cr4, cr3, {3}
 9c4:	2f2e0063 	svccs	0x002e0063
 9c8:	6362696c 	cmnvs	r2, #108, 18	; 0x1b0000
 9cc:	7274732f 	rsbsvc	r7, r4, #-1140850688	; 0xbc000000
 9d0:	2e746163 	rpwcssz	f6, f4, f3
 9d4:	65640063 	strbvs	r0, [r4, #-99]!	; 0xffffff9d
 9d8:	2e007473 	mcrcs	4, 0, r7, cr0, cr3, {3}
 9dc:	62696c2f 	rsbvs	r6, r9, #12032	; 0x2f00
 9e0:	74732f63 	ldrbtvc	r2, [r3], #-3939	; 0xfffff09d
 9e4:	706d6372 	rsbvc	r6, sp, r2, ror r3
 9e8:	2e00632e 	cdpcs	3, 0, cr6, cr0, cr14, {1}
 9ec:	62696c2f 	rsbvs	r6, r9, #12032	; 0x2f00
 9f0:	74732f63 	ldrbtvc	r2, [r3], #-3939	; 0xfffff09d
 9f4:	79706372 	ldmdbvc	r0!, {r1, r4, r5, r6, r8, r9, sp, lr}^
 9f8:	2e00632e 	cdpcs	3, 0, cr6, cr0, cr14, {1}
 9fc:	62696c2f 	rsbvs	r6, r9, #12032	; 0x2f00
 a00:	74732f63 	ldrbtvc	r2, [r3], #-3939	; 0xfffff09d
 a04:	6d636e72 	stclvs	14, cr6, [r3, #-456]!	; 0xfffffe38
 a08:	00632e70 	rsbeq	r2, r3, r0, ror lr
 a0c:	74732f2e 	ldrbtvc	r2, [r3], #-3886	; 0xfffff0d2
 a10:	2d666661 	stclcs	6, cr6, [r6, #-388]!	; 0xfffffe7c
 a14:	2f637273 	svccs	0x00637273
 a18:	61666564 	cmnvs	r6, r4, ror #10
 a1c:	2d746c75 	ldclcs	12, cr6, [r4, #-468]!	; 0xfffffe2c
 a20:	6f626572 	svcvs	0x00626572
 a24:	632d746f 			; <UNDEFINED> instruction: 0x632d746f
 a28:	6f6c6c61 	svcvs	0x006c6c61
 a2c:	632e7475 			; <UNDEFINED> instruction: 0x632e7475
	...

Disassembly of section .debug_frame:

00000000 <.debug_frame>:
   0:	0000000c 	andeq	r0, r0, ip
   4:	ffffffff 			; <UNDEFINED> instruction: 0xffffffff
   8:	7c020001 	stcvc	0, cr0, [r2], {1}
   c:	000d0c0e 	andeq	r0, sp, lr, lsl #24
  10:	00000020 	andeq	r0, r0, r0, lsr #32
  14:	00000000 	andeq	r0, r0, r0
  18:	00008038 	andeq	r8, r0, r8, lsr r0
  1c:	00000114 	andeq	r0, r0, r4, lsl r1
  20:	84140e42 	ldrhi	r0, [r4], #-3650	; 0xfffff1be
  24:	86048505 	strhi	r8, [r4], -r5, lsl #10
  28:	8e028703 	cdphi	7, 0, cr8, cr2, cr3, {0}
  2c:	280e4201 	stmdacs	lr, {r0, r9, lr}
  30:	140e7a02 	strne	r7, [lr], #-2562	; 0xfffff5fe
  34:	0000001c 	andeq	r0, r0, ip, lsl r0
  38:	00000000 	andeq	r0, r0, r0
  3c:	0000814c 	andeq	r8, r0, ip, asr #2
  40:	000000a0 	andeq	r0, r0, r0, lsr #1
  44:	840c0e42 	strhi	r0, [ip], #-3650	; 0xfffff1be
  48:	8e028503 	cfsh32hi	mvfx8, mvfx2, #3
  4c:	180e4201 	stmdane	lr, {r0, r9, lr}
  50:	000c0e7c 	andeq	r0, ip, ip, ror lr
  54:	0000000c 	andeq	r0, r0, ip
  58:	ffffffff 			; <UNDEFINED> instruction: 0xffffffff
  5c:	7c020001 	stcvc	0, cr0, [r2], {1}
  60:	000d0c0e 	andeq	r0, sp, lr, lsl #24
  64:	00000014 	andeq	r0, r0, r4, lsl r0
  68:	00000054 	andeq	r0, r0, r4, asr r0
  6c:	000081ec 	andeq	r8, r0, ip, ror #3
  70:	000000bc 	strheq	r0, [r0], -ip
  74:	8e040e42 	cdphi	14, 0, cr0, cr4, cr2, {2}
  78:	00000001 	andeq	r0, r0, r1
  7c:	00000014 	andeq	r0, r0, r4, lsl r0
  80:	00000054 	andeq	r0, r0, r4, asr r0
  84:	000082a8 	andeq	r8, r0, r8, lsr #5
  88:	00000044 	andeq	r0, r0, r4, asr #32
  8c:	84080e42 	strhi	r0, [r8], #-3650	; 0xfffff1be
  90:	00018e02 	andeq	r8, r1, r2, lsl #28
  94:	00000014 	andeq	r0, r0, r4, lsl r0
  98:	00000054 	andeq	r0, r0, r4, asr r0
  9c:	000082ec 	andeq	r8, r0, ip, ror #5
  a0:	000000ac 	andeq	r0, r0, ip, lsr #1
  a4:	84080e42 	strhi	r0, [r8], #-3650	; 0xfffff1be
  a8:	00018e02 	andeq	r8, r1, r2, lsl #28
  ac:	0000000c 	andeq	r0, r0, ip
  b0:	ffffffff 			; <UNDEFINED> instruction: 0xffffffff
  b4:	7c020001 	stcvc	0, cr0, [r2], {1}
  b8:	000d0c0e 	andeq	r0, sp, lr, lsl #24
  bc:	00000014 	andeq	r0, r0, r4, lsl r0
  c0:	000000ac 	andeq	r0, r0, ip, lsr #1
  c4:	00008398 	muleq	r0, r8, r3
  c8:	0000000c 	andeq	r0, r0, ip
  cc:	84080e42 	strhi	r0, [r8], #-3650	; 0xfffff1be
  d0:	00018e02 	andeq	r8, r1, r2, lsl #28
  d4:	0000000c 	andeq	r0, r0, ip
  d8:	ffffffff 			; <UNDEFINED> instruction: 0xffffffff
  dc:	7c020001 	stcvc	0, cr0, [r2], {1}
  e0:	000d0c0e 	andeq	r0, sp, lr, lsl #24
  e4:	00000034 	andeq	r0, r0, r4, lsr r0
  e8:	000000d4 	ldrdeq	r0, [r0], -r4
  ec:	000083a4 	andeq	r8, r0, r4, lsr #7
  f0:	00000058 	andeq	r0, r0, r8, asr r0
  f4:	80100e42 	andshi	r0, r0, r2, asr #28
  f8:	82038104 	andhi	r8, r3, #1
  fc:	42018302 	andmi	r8, r1, #134217728	; 0x8000000
 100:	07841c0e 	streq	r1, [r4, lr, lsl #24]
 104:	058e0685 	streq	r0, [lr, #1669]	; 0x685
 108:	5a280e44 	bpl	a03a20 <__bss_end__+0x9f9830>
 10c:	ce421c0e 	cdpgt	12, 4, cr1, cr2, cr14, {0}
 110:	100ec4c5 	andne	ip, lr, r5, asr #9
 114:	c1c2c342 	bicgt	ip, r2, r2, asr #6
 118:	00000ec0 	andeq	r0, r0, r0, asr #29
 11c:	0000000c 	andeq	r0, r0, ip
 120:	ffffffff 			; <UNDEFINED> instruction: 0xffffffff
 124:	7c020001 	stcvc	0, cr0, [r2], {1}
 128:	000d0c0e 	andeq	r0, sp, lr, lsl #24
 12c:	00000014 	andeq	r0, r0, r4, lsl r0
 130:	0000011c 	andeq	r0, r0, ip, lsl r1
 134:	000083fc 	strdeq	r8, [r0], -ip
 138:	00000014 	andeq	r0, r0, r4, lsl r0
 13c:	84080e42 	strhi	r0, [r8], #-3650	; 0xfffff1be
 140:	00018e02 	andeq	r8, r1, r2, lsl #28
 144:	0000000c 	andeq	r0, r0, ip
 148:	0000011c 	andeq	r0, r0, ip, lsl r1
 14c:	00008410 	andeq	r8, r0, r0, lsl r4
 150:	00000018 	andeq	r0, r0, r8, lsl r0
 154:	0000000c 	andeq	r0, r0, ip
 158:	0000011c 	andeq	r0, r0, ip, lsl r1
 15c:	00008428 	andeq	r8, r0, r8, lsr #8
 160:	00000010 	andeq	r0, r0, r0, lsl r0
 164:	0000000c 	andeq	r0, r0, ip
 168:	ffffffff 			; <UNDEFINED> instruction: 0xffffffff
 16c:	7c020001 	stcvc	0, cr0, [r2], {1}
 170:	000d0c0e 	andeq	r0, sp, lr, lsl #24
 174:	00000018 	andeq	r0, r0, r8, lsl r0
 178:	00000164 	andeq	r0, r0, r4, ror #2
 17c:	00008438 	andeq	r8, r0, r8, lsr r4
 180:	00000038 	andeq	r0, r0, r8, lsr r0
 184:	84100e42 	ldrhi	r0, [r0], #-3650	; 0xfffff1be
 188:	86038504 	strhi	r8, [r3], -r4, lsl #10
 18c:	00018e02 	andeq	r8, r1, r2, lsl #28
 190:	0000000c 	andeq	r0, r0, ip
 194:	ffffffff 			; <UNDEFINED> instruction: 0xffffffff
 198:	7c020001 	stcvc	0, cr0, [r2], {1}
 19c:	000d0c0e 	andeq	r0, sp, lr, lsl #24
 1a0:	0000002c 	andeq	r0, r0, ip, lsr #32
 1a4:	00000190 	muleq	r0, r0, r1
 1a8:	00008470 	andeq	r8, r0, r0, ror r4
 1ac:	00000328 	andeq	r0, r0, r8, lsr #6
 1b0:	84180e42 	ldrhi	r0, [r8], #-3650	; 0xfffff1be
 1b4:	86058506 	strhi	r8, [r5], -r6, lsl #10
 1b8:	88038704 	stmdahi	r3, {r2, r8, r9, sl, pc}
 1bc:	46018e02 	strmi	r8, [r1], -r2, lsl #28
 1c0:	c002600e 	andgt	r6, r2, lr
 1c4:	42180e0a 	andsmi	r0, r8, #160	; 0xa0
 1c8:	0a8e020b 	beq	fe3809fc <__bss_end__+0xfe37680c>
 1cc:	0b42180e 	bleq	108620c <__bss_end__+0x107c01c>
 1d0:	00000014 	andeq	r0, r0, r4, lsl r0
 1d4:	00000190 	muleq	r0, r0, r1
 1d8:	00008798 	muleq	r0, r8, r7
 1dc:	00000060 	andeq	r0, r0, r0, rrx
 1e0:	8e040e52 	mcrhi	14, 0, r0, cr4, cr2, {2}
 1e4:	100e4401 	andne	r4, lr, r1, lsl #8
 1e8:	0000002c 	andeq	r0, r0, ip, lsr #32
 1ec:	00000190 	muleq	r0, r0, r1
 1f0:	000087f8 	strdeq	r8, [r0], -r8	; <UNPREDICTABLE>
 1f4:	0000062c 	andeq	r0, r0, ip, lsr #12
 1f8:	84240e42 	strthi	r0, [r4], #-3650	; 0xfffff1be
 1fc:	86088509 	strhi	r8, [r8], -r9, lsl #10
 200:	88068707 	stmdahi	r6, {r0, r1, r2, r8, r9, sl, pc}
 204:	8a048905 	bhi	122620 <__bss_end__+0x118430>
 208:	8e028b03 	vmlahi.f64	d8, d2, d3
 20c:	c00e5201 	andgt	r5, lr, r1, lsl #4
 210:	0a860202 	beq	fe180a20 <__bss_end__+0xfe176830>
 214:	0b42240e 	bleq	1089254 <__bss_end__+0x107f064>
 218:	0000000c 	andeq	r0, r0, ip
 21c:	ffffffff 			; <UNDEFINED> instruction: 0xffffffff
 220:	7c020001 	stcvc	0, cr0, [r2], {1}
 224:	000d0c0e 	andeq	r0, sp, lr, lsl #24
 228:	00000014 	andeq	r0, r0, r4, lsl r0
 22c:	00000218 	andeq	r0, r0, r8, lsl r2
 230:	00008e24 	andeq	r8, r0, r4, lsr #28
 234:	0000002c 	andeq	r0, r0, ip, lsr #32
 238:	84080e44 	strhi	r0, [r8], #-3652	; 0xfffff1bc
 23c:	00018e02 	andeq	r8, r1, r2, lsl #28
 240:	0000000c 	andeq	r0, r0, ip
 244:	ffffffff 			; <UNDEFINED> instruction: 0xffffffff
 248:	7c020001 	stcvc	0, cr0, [r2], {1}
 24c:	000d0c0e 	andeq	r0, sp, lr, lsl #24
 250:	00000018 	andeq	r0, r0, r8, lsl r0
 254:	00000240 	andeq	r0, r0, r0, asr #4
 258:	00008e50 	andeq	r8, r0, r0, asr lr
 25c:	000000f8 	strdeq	r0, [r0], -r8
 260:	84100e42 	ldrhi	r0, [r0], #-3650	; 0xfffff1be
 264:	86038504 	strhi	r8, [r3], -r4, lsl #10
 268:	00018e02 	andeq	r8, r1, r2, lsl #28
 26c:	0000000c 	andeq	r0, r0, ip
 270:	ffffffff 			; <UNDEFINED> instruction: 0xffffffff
 274:	7c020001 	stcvc	0, cr0, [r2], {1}
 278:	000d0c0e 	andeq	r0, sp, lr, lsl #24
 27c:	0000000c 	andeq	r0, r0, ip
 280:	0000026c 	andeq	r0, r0, ip, ror #4
 284:	00008f48 	andeq	r8, r0, r8, asr #30
 288:	00000004 	andeq	r0, r0, r4
 28c:	0000000c 	andeq	r0, r0, ip
 290:	ffffffff 			; <UNDEFINED> instruction: 0xffffffff
 294:	7c020001 	stcvc	0, cr0, [r2], {1}
 298:	000d0c0e 	andeq	r0, sp, lr, lsl #24
 29c:	0000000c 	andeq	r0, r0, ip
 2a0:	0000028c 	andeq	r0, r0, ip, lsl #5
 2a4:	00008f4c 	andeq	r8, r0, ip, asr #30
 2a8:	00000018 	andeq	r0, r0, r8, lsl r0
 2ac:	0000000c 	andeq	r0, r0, ip
 2b0:	0000028c 	andeq	r0, r0, ip, lsl #5
 2b4:	00008f64 	andeq	r8, r0, r4, ror #30
 2b8:	00000014 	andeq	r0, r0, r4, lsl r0
 2bc:	00000014 	andeq	r0, r0, r4, lsl r0
 2c0:	0000028c 	andeq	r0, r0, ip, lsl #5
 2c4:	00008f78 	andeq	r8, r0, r8, ror pc
 2c8:	00000060 	andeq	r0, r0, r0, rrx
 2cc:	84080e42 	strhi	r0, [r8], #-3650	; 0xfffff1be
 2d0:	00018e02 	andeq	r8, r1, r2, lsl #28
 2d4:	0000000c 	andeq	r0, r0, ip
 2d8:	ffffffff 			; <UNDEFINED> instruction: 0xffffffff
 2dc:	7c020001 	stcvc	0, cr0, [r2], {1}
 2e0:	000d0c0e 	andeq	r0, sp, lr, lsl #24
 2e4:	0000000c 	andeq	r0, r0, ip
 2e8:	000002d4 	ldrdeq	r0, [r0], -r4
 2ec:	00008fd8 	ldrdeq	r8, [r0], -r8	; <UNPREDICTABLE>
 2f0:	0000000c 	andeq	r0, r0, ip
 2f4:	00000014 	andeq	r0, r0, r4, lsl r0
 2f8:	000002d4 	ldrdeq	r0, [r0], -r4
 2fc:	00008fe4 	andeq	r8, r0, r4, ror #31
 300:	00000024 	andeq	r0, r0, r4, lsr #32
 304:	84080e42 	strhi	r0, [r8], #-3650	; 0xfffff1be
 308:	00018e02 	andeq	r8, r1, r2, lsl #28
 30c:	0000001c 	andeq	r0, r0, ip, lsl r0
 310:	000002d4 	ldrdeq	r0, [r0], -r4
 314:	00009008 	andeq	r9, r0, r8
 318:	00000048 	andeq	r0, r0, r8, asr #32
 31c:	84180e42 	ldrhi	r0, [r8], #-3650	; 0xfffff1be
 320:	86058506 	strhi	r8, [r5], -r6, lsl #10
 324:	88038704 	stmdahi	r3, {r2, r8, r9, sl, pc}
 328:	00018e02 	andeq	r8, r1, r2, lsl #28
 32c:	0000001c 	andeq	r0, r0, ip, lsl r0
 330:	000002d4 	ldrdeq	r0, [r0], -r4
 334:	00009050 	andeq	r9, r0, r0, asr r0
 338:	00000050 	andeq	r0, r0, r0, asr r0
 33c:	84180e42 	ldrhi	r0, [r8], #-3650	; 0xfffff1be
 340:	86058506 	strhi	r8, [r5], -r6, lsl #10
 344:	88038704 	stmdahi	r3, {r2, r8, r9, sl, pc}
 348:	00018e02 	andeq	r8, r1, r2, lsl #28
 34c:	0000001c 	andeq	r0, r0, ip, lsl r0
 350:	000002d4 	ldrdeq	r0, [r0], -r4
 354:	000090a0 	andeq	r9, r0, r0, lsr #1
 358:	00000054 	andeq	r0, r0, r4, asr r0
 35c:	84180e42 	ldrhi	r0, [r8], #-3650	; 0xfffff1be
 360:	86058506 	strhi	r8, [r5], -r6, lsl #10
 364:	88038704 	stmdahi	r3, {r2, r8, r9, sl, pc}
 368:	00018e02 	andeq	r8, r1, r2, lsl #28
 36c:	0000000c 	andeq	r0, r0, ip
 370:	ffffffff 			; <UNDEFINED> instruction: 0xffffffff
 374:	7c020001 	stcvc	0, cr0, [r2], {1}
 378:	000d0c0e 	andeq	r0, sp, lr, lsl #24
 37c:	00000018 	andeq	r0, r0, r8, lsl r0
 380:	0000036c 	andeq	r0, r0, ip, ror #6
 384:	000090f4 	strdeq	r9, [r0], -r4
 388:	00000020 	andeq	r0, r0, r0, lsr #32
 38c:	84100e42 	ldrhi	r0, [r0], #-3650	; 0xfffff1be
 390:	86038504 	strhi	r8, [r3], -r4, lsl #10
 394:	00018e02 	andeq	r8, r1, r2, lsl #28
 398:	00000018 	andeq	r0, r0, r8, lsl r0
 39c:	0000036c 	andeq	r0, r0, ip, ror #6
 3a0:	00009114 	andeq	r9, r0, r4, lsl r1
 3a4:	00000020 	andeq	r0, r0, r0, lsr #32
 3a8:	84100e42 	ldrhi	r0, [r0], #-3650	; 0xfffff1be
 3ac:	86038504 	strhi	r8, [r3], -r4, lsl #10
 3b0:	00018e02 	andeq	r8, r1, r2, lsl #28
 3b4:	00000014 	andeq	r0, r0, r4, lsl r0
 3b8:	0000036c 	andeq	r0, r0, ip, ror #6
 3bc:	00009134 	andeq	r9, r0, r4, lsr r1
 3c0:	000000b0 	strheq	r0, [r0], -r0	; <UNPREDICTABLE>
 3c4:	84080e42 	strhi	r0, [r8], #-3650	; 0xfffff1be
 3c8:	00018e02 	andeq	r8, r1, r2, lsl #28
 3cc:	00000014 	andeq	r0, r0, r4, lsl r0
 3d0:	0000036c 	andeq	r0, r0, ip, ror #6
 3d4:	000091e4 	andeq	r9, r0, r4, ror #3
 3d8:	00000018 	andeq	r0, r0, r8, lsl r0
 3dc:	84080e42 	strhi	r0, [r8], #-3650	; 0xfffff1be
 3e0:	00018e02 	andeq	r8, r1, r2, lsl #28
 3e4:	00000014 	andeq	r0, r0, r4, lsl r0
 3e8:	0000036c 	andeq	r0, r0, ip, ror #6
 3ec:	000091fc 	strdeq	r9, [r0], -ip
 3f0:	00000020 	andeq	r0, r0, r0, lsr #32
 3f4:	84080e42 	strhi	r0, [r8], #-3650	; 0xfffff1be
 3f8:	00018e02 	andeq	r8, r1, r2, lsl #28
 3fc:	00000014 	andeq	r0, r0, r4, lsl r0
 400:	0000036c 	andeq	r0, r0, ip, ror #6
 404:	0000921c 	andeq	r9, r0, ip, lsl r2
 408:	00000030 	andeq	r0, r0, r0, lsr r0
 40c:	84080e42 	strhi	r0, [r8], #-3650	; 0xfffff1be
 410:	00018e02 	andeq	r8, r1, r2, lsl #28
 414:	00000014 	andeq	r0, r0, r4, lsl r0
 418:	0000036c 	andeq	r0, r0, ip, ror #6
 41c:	0000924c 	andeq	r9, r0, ip, asr #4
 420:	00000030 	andeq	r0, r0, r0, lsr r0
 424:	84080e42 	strhi	r0, [r8], #-3650	; 0xfffff1be
 428:	00018e02 	andeq	r8, r1, r2, lsl #28
 42c:	00000014 	andeq	r0, r0, r4, lsl r0
 430:	0000036c 	andeq	r0, r0, ip, ror #6
 434:	0000927c 	andeq	r9, r0, ip, ror r2
 438:	00000010 	andeq	r0, r0, r0, lsl r0
 43c:	84080e42 	strhi	r0, [r8], #-3650	; 0xfffff1be
 440:	00018e02 	andeq	r8, r1, r2, lsl #28
 444:	00000014 	andeq	r0, r0, r4, lsl r0
 448:	0000036c 	andeq	r0, r0, ip, ror #6
 44c:	0000928c 	andeq	r9, r0, ip, lsl #5
 450:	00000020 	andeq	r0, r0, r0, lsr #32
 454:	84080e42 	strhi	r0, [r8], #-3650	; 0xfffff1be
 458:	00018e02 	andeq	r8, r1, r2, lsl #28
 45c:	00000014 	andeq	r0, r0, r4, lsl r0
 460:	0000036c 	andeq	r0, r0, ip, ror #6
 464:	000092ac 	andeq	r9, r0, ip, lsr #5
 468:	00000014 	andeq	r0, r0, r4, lsl r0
 46c:	84080e42 	strhi	r0, [r8], #-3650	; 0xfffff1be
 470:	00018e02 	andeq	r8, r1, r2, lsl #28
 474:	00000014 	andeq	r0, r0, r4, lsl r0
 478:	0000036c 	andeq	r0, r0, ip, ror #6
 47c:	000092c0 	andeq	r9, r0, r0, asr #5
 480:	00000024 	andeq	r0, r0, r4, lsr #32
 484:	84080e42 	strhi	r0, [r8], #-3650	; 0xfffff1be
 488:	00018e02 	andeq	r8, r1, r2, lsl #28
 48c:	0000000c 	andeq	r0, r0, ip
 490:	ffffffff 			; <UNDEFINED> instruction: 0xffffffff
 494:	7c020001 	stcvc	0, cr0, [r2], {1}
 498:	000d0c0e 	andeq	r0, sp, lr, lsl #24
 49c:	0000000c 	andeq	r0, r0, ip
 4a0:	0000048c 	andeq	r0, r0, ip, lsl #9
 4a4:	000092e4 	andeq	r9, r0, r4, ror #5
 4a8:	00000010 	andeq	r0, r0, r0, lsl r0
 4ac:	0000000c 	andeq	r0, r0, ip
 4b0:	0000048c 	andeq	r0, r0, ip, lsl #9
 4b4:	000092f4 	strdeq	r9, [r0], -r4
 4b8:	00000010 	andeq	r0, r0, r0, lsl r0
 4bc:	0000000c 	andeq	r0, r0, ip
 4c0:	0000048c 	andeq	r0, r0, ip, lsl #9
 4c4:	00009304 	andeq	r9, r0, r4, lsl #6
 4c8:	00000010 	andeq	r0, r0, r0, lsl r0
 4cc:	0000001c 	andeq	r0, r0, ip, lsl r0
 4d0:	0000048c 	andeq	r0, r0, ip, lsl #9
 4d4:	00009314 	andeq	r9, r0, r4, lsl r3
 4d8:	0000009c 	muleq	r0, ip, r0
 4dc:	8e040e42 	cdphi	14, 0, cr0, cr4, cr2, {2}
 4e0:	100e4201 	andne	r4, lr, r1, lsl #4
 4e4:	040e0a58 	streq	r0, [lr], #-2648	; 0xfffff5a8
 4e8:	00000b42 	andeq	r0, r0, r2, asr #22
 4ec:	00000014 	andeq	r0, r0, r4, lsl r0
 4f0:	0000048c 	andeq	r0, r0, ip, lsl #9
 4f4:	000093b0 			; <UNDEFINED> instruction: 0x000093b0
 4f8:	00000058 	andeq	r0, r0, r8, asr r0
 4fc:	84080e42 	strhi	r0, [r8], #-3650	; 0xfffff1be
 500:	00018e02 	andeq	r8, r1, r2, lsl #28
 504:	0000001c 	andeq	r0, r0, ip, lsl r0
 508:	0000048c 	andeq	r0, r0, ip, lsl #9
 50c:	00009408 	andeq	r9, r0, r8, lsl #8
 510:	00000098 	muleq	r0, r8, r0
 514:	8e040e42 	cdphi	14, 0, cr0, cr4, cr2, {2}
 518:	100e4201 	andne	r4, lr, r1, lsl #4
 51c:	040e0a58 	streq	r0, [lr], #-2648	; 0xfffff5a8
 520:	00000b42 	andeq	r0, r0, r2, asr #22
 524:	00000020 	andeq	r0, r0, r0, lsr #32
 528:	0000048c 	andeq	r0, r0, ip, lsl #9
 52c:	000094a0 	andeq	r9, r0, r0, lsr #9
 530:	00000064 	andeq	r0, r0, r4, rrx
 534:	840c0e42 	strhi	r0, [ip], #-3650	; 0xfffff1be
 538:	8e028503 	cfsh32hi	mvfx8, mvfx2, #3
 53c:	180e4201 	stmdane	lr, {r0, r9, lr}
 540:	0c0e0a54 			; <UNDEFINED> instruction: 0x0c0e0a54
 544:	00000b42 	andeq	r0, r0, r2, asr #22
 548:	0000001c 	andeq	r0, r0, ip, lsl r0
 54c:	0000048c 	andeq	r0, r0, ip, lsl #9
 550:	00009504 	andeq	r9, r0, r4, lsl #10
 554:	00000118 	andeq	r0, r0, r8, lsl r1
 558:	8e040e42 	cdphi	14, 0, cr0, cr4, cr2, {2}
 55c:	100e4201 	andne	r4, lr, r1, lsl #4
 560:	040e0a6c 	streq	r0, [lr], #-2668	; 0xfffff594
 564:	00000b42 	andeq	r0, r0, r2, asr #22
 568:	0000000c 	andeq	r0, r0, ip
 56c:	0000048c 	andeq	r0, r0, ip, lsl #9
 570:	0000961c 	andeq	r9, r0, ip, lsl r6
 574:	00000004 	andeq	r0, r0, r4
 578:	0000000c 	andeq	r0, r0, ip
 57c:	0000048c 	andeq	r0, r0, ip, lsl #9
 580:	00009620 	andeq	r9, r0, r0, lsr #12
 584:	00000014 	andeq	r0, r0, r4, lsl r0
 588:	00000014 	andeq	r0, r0, r4, lsl r0
 58c:	0000048c 	andeq	r0, r0, ip, lsl #9
 590:	00009634 	andeq	r9, r0, r4, lsr r6
 594:	00000060 	andeq	r0, r0, r0, rrx
 598:	8e040e58 	mcrhi	14, 0, r0, cr4, cr8, {2}
 59c:	100e4201 	andne	r4, lr, r1, lsl #4
 5a0:	0000000c 	andeq	r0, r0, ip
 5a4:	ffffffff 			; <UNDEFINED> instruction: 0xffffffff
 5a8:	7c020001 	stcvc	0, cr0, [r2], {1}
 5ac:	000d0c0e 	andeq	r0, sp, lr, lsl #24
 5b0:	00000020 	andeq	r0, r0, r0, lsr #32
 5b4:	000005a0 	andeq	r0, r0, r0, lsr #11
 5b8:	00009694 	muleq	r0, r4, r6
 5bc:	00000060 	andeq	r0, r0, r0, rrx
 5c0:	84100e48 	ldrhi	r0, [r0], #-3656	; 0xfffff1b8
 5c4:	86038504 	strhi	r8, [r3], -r4, lsl #10
 5c8:	64018e02 	strvs	r8, [r1], #-3586	; 0xfffff1fe
 5cc:	c4c5c6ce 	strbgt	ip, [r5], #1742	; 0x6ce
 5d0:	0000000e 	andeq	r0, r0, lr
 5d4:	00000020 	andeq	r0, r0, r0, lsr #32
 5d8:	000005a0 	andeq	r0, r0, r0, lsr #11
 5dc:	000096f4 	strdeq	r9, [r0], -r4
 5e0:	00000058 	andeq	r0, r0, r8, asr r0
 5e4:	84100e46 	ldrhi	r0, [r0], #-3654	; 0xfffff1ba
 5e8:	86038504 	strhi	r8, [r3], -r4, lsl #10
 5ec:	62018e02 	andvs	r8, r1, #2, 28
 5f0:	c4c5c6ce 	strbgt	ip, [r5], #1742	; 0x6ce
 5f4:	0000000e 	andeq	r0, r0, lr
 5f8:	0000000c 	andeq	r0, r0, ip
 5fc:	000005a0 	andeq	r0, r0, r0, lsr #11
 600:	0000974c 	andeq	r9, r0, ip, asr #14
 604:	00000018 	andeq	r0, r0, r8, lsl r0
 608:	0000000c 	andeq	r0, r0, ip
 60c:	000005a0 	andeq	r0, r0, r0, lsr #11
 610:	00009764 	andeq	r9, r0, r4, ror #14
 614:	00000018 	andeq	r0, r0, r8, lsl r0
 618:	00000020 	andeq	r0, r0, r0, lsr #32
 61c:	000005a0 	andeq	r0, r0, r0, lsr #11
 620:	0000977c 	andeq	r9, r0, ip, ror r7
 624:	00000058 	andeq	r0, r0, r8, asr r0
 628:	84100e46 	ldrhi	r0, [r0], #-3654	; 0xfffff1ba
 62c:	86038504 	strhi	r8, [r3], -r4, lsl #10
 630:	62018e02 	andvs	r8, r1, #2, 28
 634:	c4c5c6ce 	strbgt	ip, [r5], #1742	; 0x6ce
 638:	0000000e 	andeq	r0, r0, lr
 63c:	0000000c 	andeq	r0, r0, ip
 640:	000005a0 	andeq	r0, r0, r0, lsr #11
 644:	000097d4 	ldrdeq	r9, [r0], -r4
 648:	00000030 	andeq	r0, r0, r0, lsr r0
 64c:	00000014 	andeq	r0, r0, r4, lsl r0
 650:	000005a0 	andeq	r0, r0, r0, lsr #11
 654:	00009804 	andeq	r9, r0, r4, lsl #16
 658:	00000028 	andeq	r0, r0, r8, lsr #32
 65c:	84080e42 	strhi	r0, [r8], #-3650	; 0xfffff1be
 660:	00018e02 	andeq	r8, r1, r2, lsl #28
 664:	0000000c 	andeq	r0, r0, ip
 668:	ffffffff 			; <UNDEFINED> instruction: 0xffffffff
 66c:	7c020001 	stcvc	0, cr0, [r2], {1}
 670:	000d0c0e 	andeq	r0, sp, lr, lsl #24
 674:	00000014 	andeq	r0, r0, r4, lsl r0
 678:	00000664 	andeq	r0, r0, r4, ror #12
 67c:	0000982c 	andeq	r9, r0, ip, lsr #16
 680:	00000078 	andeq	r0, r0, r8, ror r0
 684:	84080e42 	strhi	r0, [r8], #-3650	; 0xfffff1be
 688:	00018e02 	andeq	r8, r1, r2, lsl #28
 68c:	0000000c 	andeq	r0, r0, ip
 690:	ffffffff 			; <UNDEFINED> instruction: 0xffffffff
 694:	7c020001 	stcvc	0, cr0, [r2], {1}
 698:	000d0c0e 	andeq	r0, sp, lr, lsl #24
 69c:	0000000c 	andeq	r0, r0, ip
 6a0:	0000068c 	andeq	r0, r0, ip, lsl #13
 6a4:	000098a4 	andeq	r9, r0, r4, lsr #17
 6a8:	0000002c 	andeq	r0, r0, ip, lsr #32
 6ac:	0000000c 	andeq	r0, r0, ip
 6b0:	ffffffff 			; <UNDEFINED> instruction: 0xffffffff
 6b4:	7c020001 	stcvc	0, cr0, [r2], {1}
 6b8:	000d0c0e 	andeq	r0, sp, lr, lsl #24
 6bc:	0000000c 	andeq	r0, r0, ip
 6c0:	000006ac 	andeq	r0, r0, ip, lsr #13
 6c4:	000098d0 	ldrdeq	r9, [r0], -r0
 6c8:	00000044 	andeq	r0, r0, r4, asr #32
 6cc:	0000000c 	andeq	r0, r0, ip
 6d0:	ffffffff 			; <UNDEFINED> instruction: 0xffffffff
 6d4:	7c020001 	stcvc	0, cr0, [r2], {1}
 6d8:	000d0c0e 	andeq	r0, sp, lr, lsl #24
 6dc:	0000000c 	andeq	r0, r0, ip
 6e0:	000006cc 	andeq	r0, r0, ip, asr #13
 6e4:	00009914 	andeq	r9, r0, r4, lsl r9
 6e8:	00000018 	andeq	r0, r0, r8, lsl r0
 6ec:	0000000c 	andeq	r0, r0, ip
 6f0:	ffffffff 			; <UNDEFINED> instruction: 0xffffffff
 6f4:	7c020001 	stcvc	0, cr0, [r2], {1}
 6f8:	000d0c0e 	andeq	r0, sp, lr, lsl #24
 6fc:	0000000c 	andeq	r0, r0, ip
 700:	000006ec 	andeq	r0, r0, ip, ror #13
 704:	0000992c 	andeq	r9, r0, ip, lsr #18
 708:	00000030 	andeq	r0, r0, r0, lsr r0
 70c:	0000000c 	andeq	r0, r0, ip
 710:	ffffffff 			; <UNDEFINED> instruction: 0xffffffff
 714:	7c020001 	stcvc	0, cr0, [r2], {1}
 718:	000d0c0e 	andeq	r0, sp, lr, lsl #24
 71c:	0000000c 	andeq	r0, r0, ip
 720:	0000070c 	andeq	r0, r0, ip, lsl #14
 724:	0000995c 	andeq	r9, r0, ip, asr r9
 728:	00000004 	andeq	r0, r0, r4
