
driver.elf:     file format elf32-littlearm


Disassembly of section .text:

00008000 <__code_start__>:
    8000:	e3a00013 	mov	r0, #19, 0
    8004:	e3800080 	orr	r0, r0, #128, 0	; 0x80
    8008:	e129f000 	msr	CPSR_fc, r0
    800c:	e3a01000 	mov	r1, #0, 0
    8010:	ee071f95 	mcr	15, 0, r1, cr7, cr5, {4}
    8014:	e3a0d302 	mov	sp, #134217728	; 0x8000000
    8018:	e3a0b000 	mov	fp, #0, 0
    801c:	eb000525 	bl	94b8 <_cstart>
    8020:	eb000580 	bl	9628 <rpi_reboot>

00008024 <PUT32>:
    8024:	e5801000 	str	r1, [r0]
    8028:	e12fff1e 	bx	lr

0000802c <GET32>:
    802c:	e5900000 	ldr	r0, [r0]
    8030:	e12fff1e 	bx	lr

00008034 <BRANCHTO>:
    8034:	e12fff10 	bx	r0

00008038 <notmain>:
    8038:	e92d4070 	push	{r4, r5, r6, lr}
    803c:	eb000037 	bl	8120 <ads1115_config>
    8040:	e1a06000 	mov	r6, r0
    8044:	ea000003 	b	8058 <notmain+0x20>
    8048:	e59f0034 	ldr	r0, [pc, #52]	; 8084 <notmain+0x4c>
    804c:	eb00026e 	bl	8a0c <printk>
    8050:	e3a00001 	mov	r0, #1, 0
    8054:	eb0005a9 	bl	9700 <delay_ms>
    8058:	e3a01000 	mov	r1, #0, 0
    805c:	e1a00006 	mov	r0, r6
    8060:	eb00001e 	bl	80e0 <ads1115_read16>
    8064:	e6bf5070 	sxth	r5, r0
    8068:	e3a04000 	mov	r4, #0, 0
    806c:	e1550004 	cmp	r5, r4
    8070:	dafffff4 	ble	8048 <notmain+0x10>
    8074:	e59f000c 	ldr	r0, [pc, #12]	; 8088 <notmain+0x50>
    8078:	eb000263 	bl	8a0c <printk>
    807c:	e28440c8 	add	r4, r4, #200, 0	; 0xc8
    8080:	eafffff9 	b	806c <notmain+0x34>
    8084:	00009d80 	andeq	r9, r0, r0, lsl #27
    8088:	00009a50 	andeq	r9, r0, r0, asr sl

0000808c <ads1115_reset>:
    808c:	e52de004 	push	{lr}		; (str lr, [sp, #-4]!)
    8090:	e24dd00c 	sub	sp, sp, #12, 0
    8094:	e3a03006 	mov	r3, #6, 0
    8098:	e5cd3007 	strb	r3, [sp, #7]
    809c:	e3a02001 	mov	r2, #1, 0
    80a0:	e28d1007 	add	r1, sp, #7, 0
    80a4:	e3a00000 	mov	r0, #0, 0
    80a8:	eb000161 	bl	8634 <i2c_write>
    80ac:	e28dd00c 	add	sp, sp, #12, 0
    80b0:	e49df004 	pop	{pc}		; (ldr pc, [sp], #4)

000080b4 <ads1115_write16>:
    80b4:	e52de004 	push	{lr}		; (str lr, [sp, #-4]!)
    80b8:	e24dd00c 	sub	sp, sp, #12, 0
    80bc:	e5cd1004 	strb	r1, [sp, #4]
    80c0:	e1a03422 	lsr	r3, r2, #8
    80c4:	e5cd3005 	strb	r3, [sp, #5]
    80c8:	e5cd2006 	strb	r2, [sp, #6]
    80cc:	e3a02003 	mov	r2, #3, 0
    80d0:	e28d1004 	add	r1, sp, #4, 0
    80d4:	eb000156 	bl	8634 <i2c_write>
    80d8:	e28dd00c 	add	sp, sp, #12, 0
    80dc:	e49df004 	pop	{pc}		; (ldr pc, [sp], #4)

000080e0 <ads1115_read16>:
    80e0:	e92d4010 	push	{r4, lr}
    80e4:	e24dd010 	sub	sp, sp, #16, 0
    80e8:	e1a04000 	mov	r4, r0
    80ec:	e5cd1007 	strb	r1, [sp, #7]
    80f0:	e3a02001 	mov	r2, #1, 0
    80f4:	e28d1007 	add	r1, sp, #7, 0
    80f8:	eb00014d 	bl	8634 <i2c_write>
    80fc:	e3a02002 	mov	r2, #2, 0
    8100:	e28d100c 	add	r1, sp, #12, 0
    8104:	e1a00004 	mov	r0, r4
    8108:	eb000178 	bl	86f0 <i2c_read>
    810c:	e5dd000c 	ldrb	r0, [sp, #12]
    8110:	e5dd300d 	ldrb	r3, [sp, #13]
    8114:	e1830400 	orr	r0, r3, r0, lsl #8
    8118:	e28dd010 	add	sp, sp, #16, 0
    811c:	e8bd8010 	pop	{r4, pc}

00008120 <ads1115_config>:
    8120:	e92d4030 	push	{r4, r5, lr}
    8124:	e24dd00c 	sub	sp, sp, #12, 0
    8128:	e3a0001e 	mov	r0, #30, 0
    812c:	eb000573 	bl	9700 <delay_ms>
    8130:	eb0001a1 	bl	87bc <i2c_init>
    8134:	e3a0001e 	mov	r0, #30, 0
    8138:	eb000570 	bl	9700 <delay_ms>
    813c:	ebffffd2 	bl	808c <ads1115_reset>
    8140:	e3a00019 	mov	r0, #25, 0
    8144:	eb00055b 	bl	96b8 <delay_us>
    8148:	e3a01001 	mov	r1, #1, 0
    814c:	e3a00048 	mov	r0, #72, 0	; 0x48
    8150:	ebffffe2 	bl	80e0 <ads1115_read16>
    8154:	e1a04000 	mov	r4, r0
    8158:	e1a05420 	lsr	r5, r0, #8
    815c:	e6ff3075 	uxth	r3, r5
    8160:	e6ef2070 	uxtb	r2, r0
    8164:	e1a01000 	mov	r1, r0
    8168:	e59f015c 	ldr	r0, [pc, #348]	; 82cc <ads1115_config+0x1ac>
    816c:	eb000226 	bl	8a0c <printk>
    8170:	e3150001 	tst	r5, #1, 0
    8174:	0a00001e 	beq	81f4 <ads1115_config+0xd4>
    8178:	e1a032a4 	lsr	r3, r4, #5
    817c:	e2033007 	and	r3, r3, #7, 0
    8180:	e3530004 	cmp	r3, #4, 0
    8184:	1a000023 	bne	8218 <ads1115_config+0xf8>
    8188:	e1a044a4 	lsr	r4, r4, #9
    818c:	e2044007 	and	r4, r4, #7, 0
    8190:	e3540002 	cmp	r4, #2, 0
    8194:	1a000028 	bne	823c <ads1115_config+0x11c>
    8198:	e3a01e2e 	mov	r1, #736	; 0x2e0
    819c:	e59f012c 	ldr	r0, [pc, #300]	; 82d0 <ads1115_config+0x1b0>
    81a0:	eb000219 	bl	8a0c <printk>
    81a4:	e3a02e2e 	mov	r2, #736	; 0x2e0
    81a8:	e3a01001 	mov	r1, #1, 0
    81ac:	e3a00048 	mov	r0, #72, 0	; 0x48
    81b0:	ebffffbf 	bl	80b4 <ads1115_write16>
    81b4:	e3a01001 	mov	r1, #1, 0
    81b8:	e3a00048 	mov	r0, #72, 0	; 0x48
    81bc:	ebffffc7 	bl	80e0 <ads1115_read16>
    81c0:	e1a034a0 	lsr	r3, r0, #9
    81c4:	e2033007 	and	r3, r3, #7, 0
    81c8:	e3530001 	cmp	r3, #1, 0
    81cc:	1a000023 	bne	8260 <ads1115_config+0x140>
    81d0:	e3100c01 	tst	r0, #256	; 0x100
    81d4:	1a00002a 	bne	8284 <ads1115_config+0x164>
    81d8:	e1a002a0 	lsr	r0, r0, #5
    81dc:	e2000007 	and	r0, r0, #7, 0
    81e0:	e3500007 	cmp	r0, #7, 0
    81e4:	1a00002f 	bne	82a8 <ads1115_config+0x188>
    81e8:	e3a00048 	mov	r0, #72, 0	; 0x48
    81ec:	e28dd00c 	add	sp, sp, #12, 0
    81f0:	e8bd8030 	pop	{r4, r5, pc}
    81f4:	eb00021f 	bl	8a78 <rpi_reset_putc>
    81f8:	e59f30d4 	ldr	r3, [pc, #212]	; 82d4 <ads1115_config+0x1b4>
    81fc:	e58d3000 	str	r3, [sp]
    8200:	e3a03065 	mov	r3, #101, 0	; 0x65
    8204:	e59f20cc 	ldr	r2, [pc, #204]	; 82d8 <ads1115_config+0x1b8>
    8208:	e59f10cc 	ldr	r1, [pc, #204]	; 82dc <ads1115_config+0x1bc>
    820c:	e59f00cc 	ldr	r0, [pc, #204]	; 82e0 <ads1115_config+0x1c0>
    8210:	eb0001fd 	bl	8a0c <printk>
    8214:	eb00049c 	bl	948c <clean_reboot>
    8218:	eb000216 	bl	8a78 <rpi_reset_putc>
    821c:	e59f30c0 	ldr	r3, [pc, #192]	; 82e4 <ads1115_config+0x1c4>
    8220:	e58d3000 	str	r3, [sp]
    8224:	e3a03066 	mov	r3, #102, 0	; 0x66
    8228:	e59f20a8 	ldr	r2, [pc, #168]	; 82d8 <ads1115_config+0x1b8>
    822c:	e59f10a8 	ldr	r1, [pc, #168]	; 82dc <ads1115_config+0x1bc>
    8230:	e59f00a8 	ldr	r0, [pc, #168]	; 82e0 <ads1115_config+0x1c0>
    8234:	eb0001f4 	bl	8a0c <printk>
    8238:	eb000493 	bl	948c <clean_reboot>
    823c:	eb00020d 	bl	8a78 <rpi_reset_putc>
    8240:	e59f30a0 	ldr	r3, [pc, #160]	; 82e8 <ads1115_config+0x1c8>
    8244:	e58d3000 	str	r3, [sp]
    8248:	e3a03067 	mov	r3, #103, 0	; 0x67
    824c:	e59f2084 	ldr	r2, [pc, #132]	; 82d8 <ads1115_config+0x1b8>
    8250:	e59f1084 	ldr	r1, [pc, #132]	; 82dc <ads1115_config+0x1bc>
    8254:	e59f0084 	ldr	r0, [pc, #132]	; 82e0 <ads1115_config+0x1c0>
    8258:	eb0001eb 	bl	8a0c <printk>
    825c:	eb00048a 	bl	948c <clean_reboot>
    8260:	eb000204 	bl	8a78 <rpi_reset_putc>
    8264:	e59f3080 	ldr	r3, [pc, #128]	; 82ec <ads1115_config+0x1cc>
    8268:	e58d3000 	str	r3, [sp]
    826c:	e3a03079 	mov	r3, #121, 0	; 0x79
    8270:	e59f2060 	ldr	r2, [pc, #96]	; 82d8 <ads1115_config+0x1b8>
    8274:	e59f1060 	ldr	r1, [pc, #96]	; 82dc <ads1115_config+0x1bc>
    8278:	e59f0070 	ldr	r0, [pc, #112]	; 82f0 <ads1115_config+0x1d0>
    827c:	eb0001e2 	bl	8a0c <printk>
    8280:	eb000481 	bl	948c <clean_reboot>
    8284:	eb0001fb 	bl	8a78 <rpi_reset_putc>
    8288:	e59f3064 	ldr	r3, [pc, #100]	; 82f4 <ads1115_config+0x1d4>
    828c:	e58d3000 	str	r3, [sp]
    8290:	e3a0307a 	mov	r3, #122, 0	; 0x7a
    8294:	e59f203c 	ldr	r2, [pc, #60]	; 82d8 <ads1115_config+0x1b8>
    8298:	e59f103c 	ldr	r1, [pc, #60]	; 82dc <ads1115_config+0x1bc>
    829c:	e59f004c 	ldr	r0, [pc, #76]	; 82f0 <ads1115_config+0x1d0>
    82a0:	eb0001d9 	bl	8a0c <printk>
    82a4:	eb000478 	bl	948c <clean_reboot>
    82a8:	eb0001f2 	bl	8a78 <rpi_reset_putc>
    82ac:	e59f3044 	ldr	r3, [pc, #68]	; 82f8 <ads1115_config+0x1d8>
    82b0:	e58d3000 	str	r3, [sp]
    82b4:	e3a0307b 	mov	r3, #123, 0	; 0x7b
    82b8:	e59f2018 	ldr	r2, [pc, #24]	; 82d8 <ads1115_config+0x1b8>
    82bc:	e59f1018 	ldr	r1, [pc, #24]	; 82dc <ads1115_config+0x1bc>
    82c0:	e59f0028 	ldr	r0, [pc, #40]	; 82f0 <ads1115_config+0x1d0>
    82c4:	eb0001d0 	bl	8a0c <printk>
    82c8:	eb00046f 	bl	948c <clean_reboot>
    82cc:	00009a54 	andeq	r9, r0, r4, asr sl
    82d0:	00009b04 	andeq	r9, r0, r4, lsl #22
    82d4:	00009ac0 	andeq	r9, r0, r0, asr #21
    82d8:	00009b90 	muleq	r0, r0, fp
    82dc:	00009a80 	andeq	r9, r0, r0, lsl #21
    82e0:	00009a8c 	andeq	r9, r0, ip, lsl #21
    82e4:	00009ad0 	ldrdeq	r9, [r0], -r0
    82e8:	00009ae8 	andeq	r9, r0, r8, ror #21
    82ec:	00009b48 	andeq	r9, r0, r8, asr #22
    82f0:	00009b1c 	andeq	r9, r0, ip, lsl fp
    82f4:	00009b64 	andeq	r9, r0, r4, ror #22
    82f8:	00009b78 	andeq	r9, r0, r8, ror fp

000082fc <clear_c>:
    82fc:	e3c00b1e 	bic	r0, r0, #30720	; 0x7800
    8300:	e3c0004e 	bic	r0, r0, #78, 0	; 0x4e
    8304:	e6ff0070 	uxth	r0, r0
    8308:	e12fff1e 	bx	lr

0000830c <clear_s>:
    830c:	e1a00b00 	lsl	r0, r0, #22
    8310:	e1a00b20 	lsr	r0, r0, #22
    8314:	e12fff1e 	bx	lr

00008318 <xfer_end>:
    8318:	e52de004 	push	{lr}		; (str lr, [sp, #-4]!)
    831c:	e24dd00c 	sub	sp, sp, #12, 0
    8320:	e59f30c4 	ldr	r3, [pc, #196]	; 83ec <xfer_end+0xd4>
    8324:	e5933004 	ldr	r3, [r3, #4]
    8328:	e3130002 	tst	r3, #2, 0
    832c:	1a000013 	bne	8380 <xfer_end+0x68>
    8330:	e59f30b4 	ldr	r3, [pc, #180]	; 83ec <xfer_end+0xd4>
    8334:	e5933004 	ldr	r3, [r3, #4]
    8338:	e3130c01 	tst	r3, #256	; 0x100
    833c:	1a000009 	bne	8368 <xfer_end+0x50>
    8340:	e59f30a4 	ldr	r3, [pc, #164]	; 83ec <xfer_end+0xd4>
    8344:	e5933004 	ldr	r3, [r3, #4]
    8348:	e3130c02 	tst	r3, #512	; 0x200
    834c:	0afffff3 	beq	8320 <xfer_end+0x8>
    8350:	e59f3098 	ldr	r3, [pc, #152]	; 83f0 <xfer_end+0xd8>
    8354:	e59f2098 	ldr	r2, [pc, #152]	; 83f4 <xfer_end+0xdc>
    8358:	e59f1098 	ldr	r1, [pc, #152]	; 83f8 <xfer_end+0xe0>
    835c:	e59f0098 	ldr	r0, [pc, #152]	; 83fc <xfer_end+0xe4>
    8360:	eb0001a9 	bl	8a0c <printk>
    8364:	eb000448 	bl	948c <clean_reboot>
    8368:	e59f3080 	ldr	r3, [pc, #128]	; 83f0 <xfer_end+0xd8>
    836c:	e59f2080 	ldr	r2, [pc, #128]	; 83f4 <xfer_end+0xdc>
    8370:	e59f1080 	ldr	r1, [pc, #128]	; 83f8 <xfer_end+0xe0>
    8374:	e59f0084 	ldr	r0, [pc, #132]	; 8400 <xfer_end+0xe8>
    8378:	eb0001a3 	bl	8a0c <printk>
    837c:	eb000442 	bl	948c <clean_reboot>
    8380:	e59f3064 	ldr	r3, [pc, #100]	; 83ec <xfer_end+0xd4>
    8384:	e5933004 	ldr	r3, [r3, #4]
    8388:	e3130001 	tst	r3, #1, 0
    838c:	1a000006 	bne	83ac <xfer_end+0x94>
    8390:	e59f3054 	ldr	r3, [pc, #84]	; 83ec <xfer_end+0xd4>
    8394:	e5933004 	ldr	r3, [r3, #4]
    8398:	e3130c01 	tst	r3, #256	; 0x100
    839c:	1a00000a 	bne	83cc <xfer_end+0xb4>
    83a0:	eb00048f 	bl	95e4 <dev_barrier>
    83a4:	e28dd00c 	add	sp, sp, #12, 0
    83a8:	e49df004 	pop	{pc}		; (ldr pc, [sp], #4)
    83ac:	e59f3050 	ldr	r3, [pc, #80]	; 8404 <xfer_end+0xec>
    83b0:	e58d3000 	str	r3, [sp]
    83b4:	e59f304c 	ldr	r3, [pc, #76]	; 8408 <xfer_end+0xf0>
    83b8:	e59f2034 	ldr	r2, [pc, #52]	; 83f4 <xfer_end+0xdc>
    83bc:	e59f1034 	ldr	r1, [pc, #52]	; 83f8 <xfer_end+0xe0>
    83c0:	e59f0044 	ldr	r0, [pc, #68]	; 840c <xfer_end+0xf4>
    83c4:	eb000190 	bl	8a0c <printk>
    83c8:	eb00042f 	bl	948c <clean_reboot>
    83cc:	e59f303c 	ldr	r3, [pc, #60]	; 8410 <xfer_end+0xf8>
    83d0:	e58d3000 	str	r3, [sp]
    83d4:	e59f3038 	ldr	r3, [pc, #56]	; 8414 <xfer_end+0xfc>
    83d8:	e59f2014 	ldr	r2, [pc, #20]	; 83f4 <xfer_end+0xdc>
    83dc:	e59f1014 	ldr	r1, [pc, #20]	; 83f8 <xfer_end+0xe0>
    83e0:	e59f0024 	ldr	r0, [pc, #36]	; 840c <xfer_end+0xf4>
    83e4:	eb000188 	bl	8a0c <printk>
    83e8:	eb000427 	bl	948c <clean_reboot>
    83ec:	20804000 	addcs	r4, r0, r0
    83f0:	00000116 	andeq	r0, r0, r6, lsl r1
    83f4:	00009c80 	andeq	r9, r0, r0, lsl #25
    83f8:	00009ba0 	andeq	r9, r0, r0, lsr #23
    83fc:	00009bd0 	ldrdeq	r9, [r0], -r0
    8400:	00009bac 	andeq	r9, r0, ip, lsr #23
    8404:	00009c14 	andeq	r9, r0, r4, lsl ip
    8408:	00000119 	andeq	r0, r0, r9, lsl r1
    840c:	00009c00 	andeq	r9, r0, r0, lsl #24
    8410:	00009c28 	andeq	r9, r0, r8, lsr #24
    8414:	0000011b 	andeq	r0, r0, fp, lsl r1

00008418 <read_s>:
    8418:	e92d4010 	push	{r4, lr}
    841c:	ebffff02 	bl	802c <GET32>
    8420:	ebffffb9 	bl	830c <clear_s>
    8424:	e8bd8010 	pop	{r4, pc}

00008428 <reset_status>:
    8428:	e92d4010 	push	{r4, lr}
    842c:	e59f4018 	ldr	r4, [pc, #24]	; 844c <reset_status+0x24>
    8430:	e1a00004 	mov	r0, r4
    8434:	ebfffff7 	bl	8418 <read_s>
    8438:	e3801c03 	orr	r1, r0, #768	; 0x300
    843c:	e3811002 	orr	r1, r1, #2, 0
    8440:	e1a00004 	mov	r0, r4
    8444:	ebfffef6 	bl	8024 <PUT32>
    8448:	e8bd8010 	pop	{r4, pc}
    844c:	20804004 	addcs	r4, r0, r4

00008450 <read_c>:
    8450:	e92d4010 	push	{r4, lr}
    8454:	ebfffef4 	bl	802c <GET32>
    8458:	ebffffa7 	bl	82fc <clear_c>
    845c:	e8bd8010 	pop	{r4, pc}

00008460 <xfer_start>:
    8460:	e92d4070 	push	{r4, r5, r6, lr}
    8464:	e24dd008 	sub	sp, sp, #8, 0
    8468:	e1a06000 	mov	r6, r0
    846c:	e1a05001 	mov	r5, r1
    8470:	e1a04002 	mov	r4, r2
    8474:	eb00045a 	bl	95e4 <dev_barrier>
    8478:	e59f3180 	ldr	r3, [pc, #384]	; 8600 <xfer_start+0x1a0>
    847c:	e5933004 	ldr	r3, [r3, #4]
    8480:	e3130001 	tst	r3, #1, 0
    8484:	0a000013 	beq	84d8 <xfer_start+0x78>
    8488:	e59f3170 	ldr	r3, [pc, #368]	; 8600 <xfer_start+0x1a0>
    848c:	e5933004 	ldr	r3, [r3, #4]
    8490:	e3130c01 	tst	r3, #256	; 0x100
    8494:	1a000009 	bne	84c0 <xfer_start+0x60>
    8498:	e59f3160 	ldr	r3, [pc, #352]	; 8600 <xfer_start+0x1a0>
    849c:	e5933004 	ldr	r3, [r3, #4]
    84a0:	e3130c02 	tst	r3, #512	; 0x200
    84a4:	0afffff3 	beq	8478 <xfer_start+0x18>
    84a8:	e3a030f6 	mov	r3, #246, 0	; 0xf6
    84ac:	e59f2150 	ldr	r2, [pc, #336]	; 8604 <xfer_start+0x1a4>
    84b0:	e59f1150 	ldr	r1, [pc, #336]	; 8608 <xfer_start+0x1a8>
    84b4:	e59f0150 	ldr	r0, [pc, #336]	; 860c <xfer_start+0x1ac>
    84b8:	eb000153 	bl	8a0c <printk>
    84bc:	eb0003f2 	bl	948c <clean_reboot>
    84c0:	e3a030f6 	mov	r3, #246, 0	; 0xf6
    84c4:	e59f2138 	ldr	r2, [pc, #312]	; 8604 <xfer_start+0x1a4>
    84c8:	e59f1138 	ldr	r1, [pc, #312]	; 8608 <xfer_start+0x1a8>
    84cc:	e59f013c 	ldr	r0, [pc, #316]	; 8610 <xfer_start+0x1b0>
    84d0:	eb00014d 	bl	8a0c <printk>
    84d4:	eb0003ec 	bl	948c <clean_reboot>
    84d8:	e59f3120 	ldr	r3, [pc, #288]	; 8600 <xfer_start+0x1a0>
    84dc:	e5933004 	ldr	r3, [r3, #4]
    84e0:	e3130040 	tst	r3, #64, 0	; 0x40
    84e4:	0a000025 	beq	8580 <xfer_start+0x120>
    84e8:	ebffffce 	bl	8428 <reset_status>
    84ec:	e1b033a6 	lsrs	r3, r6, #7
    84f0:	1a00002a 	bne	85a0 <xfer_start+0x140>
    84f4:	e1a01006 	mov	r1, r6
    84f8:	e59f0114 	ldr	r0, [pc, #276]	; 8614 <xfer_start+0x1b4>
    84fc:	ebfffec8 	bl	8024 <PUT32>
    8500:	e1b03825 	lsrs	r3, r5, #16
    8504:	1a00002d 	bne	85c0 <xfer_start+0x160>
    8508:	e1a01005 	mov	r1, r5
    850c:	e59f0104 	ldr	r0, [pc, #260]	; 8618 <xfer_start+0x1b8>
    8510:	ebfffec3 	bl	8024 <PUT32>
    8514:	e59f50e4 	ldr	r5, [pc, #228]	; 8600 <xfer_start+0x1a0>
    8518:	e1a00005 	mov	r0, r5
    851c:	ebffffcb 	bl	8450 <read_c>
    8520:	e38030b0 	orr	r3, r0, #176, 0	; 0xb0
    8524:	e2041001 	and	r1, r4, #1, 0
    8528:	e3c33001 	bic	r3, r3, #1, 0
    852c:	e1811003 	orr	r1, r1, r3
    8530:	e1a00005 	mov	r0, r5
    8534:	ebfffeba 	bl	8024 <PUT32>
    8538:	e59f30c0 	ldr	r3, [pc, #192]	; 8600 <xfer_start+0x1a0>
    853c:	e5933004 	ldr	r3, [r3, #4]
    8540:	e3130001 	tst	r3, #1, 0
    8544:	1a00002b 	bne	85f8 <xfer_start+0x198>
    8548:	e59f30b0 	ldr	r3, [pc, #176]	; 8600 <xfer_start+0x1a0>
    854c:	e5933004 	ldr	r3, [r3, #4]
    8550:	e3130c01 	tst	r3, #256	; 0x100
    8554:	1a000021 	bne	85e0 <xfer_start+0x180>
    8558:	e59f30a0 	ldr	r3, [pc, #160]	; 8600 <xfer_start+0x1a0>
    855c:	e5933004 	ldr	r3, [r3, #4]
    8560:	e3130c02 	tst	r3, #512	; 0x200
    8564:	0afffff3 	beq	8538 <xfer_start+0xd8>
    8568:	e59f30ac 	ldr	r3, [pc, #172]	; 861c <xfer_start+0x1bc>
    856c:	e59f2090 	ldr	r2, [pc, #144]	; 8604 <xfer_start+0x1a4>
    8570:	e59f1090 	ldr	r1, [pc, #144]	; 8608 <xfer_start+0x1a8>
    8574:	e59f0090 	ldr	r0, [pc, #144]	; 860c <xfer_start+0x1ac>
    8578:	eb000123 	bl	8a0c <printk>
    857c:	eb0003c2 	bl	948c <clean_reboot>
    8580:	e59f3098 	ldr	r3, [pc, #152]	; 8620 <xfer_start+0x1c0>
    8584:	e58d3000 	str	r3, [sp]
    8588:	e3a030f9 	mov	r3, #249, 0	; 0xf9
    858c:	e59f2070 	ldr	r2, [pc, #112]	; 8604 <xfer_start+0x1a4>
    8590:	e59f1070 	ldr	r1, [pc, #112]	; 8608 <xfer_start+0x1a8>
    8594:	e59f0088 	ldr	r0, [pc, #136]	; 8624 <xfer_start+0x1c4>
    8598:	eb00011b 	bl	8a0c <printk>
    859c:	eb0003ba 	bl	948c <clean_reboot>
    85a0:	e59f3080 	ldr	r3, [pc, #128]	; 8628 <xfer_start+0x1c8>
    85a4:	e58d3000 	str	r3, [sp]
    85a8:	e3a030fe 	mov	r3, #254, 0	; 0xfe
    85ac:	e59f2050 	ldr	r2, [pc, #80]	; 8604 <xfer_start+0x1a4>
    85b0:	e59f1050 	ldr	r1, [pc, #80]	; 8608 <xfer_start+0x1a8>
    85b4:	e59f0068 	ldr	r0, [pc, #104]	; 8624 <xfer_start+0x1c4>
    85b8:	eb000113 	bl	8a0c <printk>
    85bc:	eb0003b2 	bl	948c <clean_reboot>
    85c0:	e59f3064 	ldr	r3, [pc, #100]	; 862c <xfer_start+0x1cc>
    85c4:	e58d3000 	str	r3, [sp]
    85c8:	e59f3060 	ldr	r3, [pc, #96]	; 8630 <xfer_start+0x1d0>
    85cc:	e59f2030 	ldr	r2, [pc, #48]	; 8604 <xfer_start+0x1a4>
    85d0:	e59f1030 	ldr	r1, [pc, #48]	; 8608 <xfer_start+0x1a8>
    85d4:	e59f0048 	ldr	r0, [pc, #72]	; 8624 <xfer_start+0x1c4>
    85d8:	eb00010b 	bl	8a0c <printk>
    85dc:	eb0003aa 	bl	948c <clean_reboot>
    85e0:	e59f3034 	ldr	r3, [pc, #52]	; 861c <xfer_start+0x1bc>
    85e4:	e59f2018 	ldr	r2, [pc, #24]	; 8604 <xfer_start+0x1a4>
    85e8:	e59f1018 	ldr	r1, [pc, #24]	; 8608 <xfer_start+0x1a8>
    85ec:	e59f001c 	ldr	r0, [pc, #28]	; 8610 <xfer_start+0x1b0>
    85f0:	eb000105 	bl	8a0c <printk>
    85f4:	eb0003a4 	bl	948c <clean_reboot>
    85f8:	e28dd008 	add	sp, sp, #8, 0
    85fc:	e8bd8070 	pop	{r4, r5, r6, pc}
    8600:	20804000 	addcs	r4, r0, r0
    8604:	00009c8c 	andeq	r9, r0, ip, lsl #25
    8608:	00009ba0 	andeq	r9, r0, r0, lsr #23
    860c:	00009bd0 	ldrdeq	r9, [r0], -r0
    8610:	00009bac 	andeq	r9, r0, ip, lsr #23
    8614:	2080400c 	addcs	r4, r0, ip
    8618:	20804008 	addcs	r4, r0, r8
    861c:	00000111 	andeq	r0, r0, r1, lsl r1
    8620:	00009c3c 	andeq	r9, r0, ip, lsr ip
    8624:	00009c00 	andeq	r9, r0, r0, lsl #24
    8628:	00009c54 	andeq	r9, r0, r4, asr ip
    862c:	00009c68 	andeq	r9, r0, r8, ror #24
    8630:	00000102 	andeq	r0, r0, r2, lsl #2

00008634 <i2c_write>:
    8634:	e92d4070 	push	{r4, r5, r6, lr}
    8638:	e1a05001 	mov	r5, r1
    863c:	e1a04002 	mov	r4, r2
    8640:	e3a02000 	mov	r2, #0, 0
    8644:	e1a01004 	mov	r1, r4
    8648:	ebffff84 	bl	8460 <xfer_start>
    864c:	e3a02000 	mov	r2, #0, 0
    8650:	ea000009 	b	867c <i2c_write+0x48>
    8654:	e59f307c 	ldr	r3, [pc, #124]	; 86d8 <i2c_write+0xa4>
    8658:	e59f207c 	ldr	r2, [pc, #124]	; 86dc <i2c_write+0xa8>
    865c:	e59f107c 	ldr	r1, [pc, #124]	; 86e0 <i2c_write+0xac>
    8660:	e59f007c 	ldr	r0, [pc, #124]	; 86e4 <i2c_write+0xb0>
    8664:	eb0000e8 	bl	8a0c <printk>
    8668:	eb000387 	bl	948c <clean_reboot>
    866c:	e7d51002 	ldrb	r1, [r5, r2]
    8670:	e59f3070 	ldr	r3, [pc, #112]	; 86e8 <i2c_write+0xb4>
    8674:	e5831010 	str	r1, [r3, #16]
    8678:	e2822001 	add	r2, r2, #1, 0
    867c:	e1520004 	cmp	r2, r4
    8680:	2a000011 	bcs	86cc <i2c_write+0x98>
    8684:	e59f305c 	ldr	r3, [pc, #92]	; 86e8 <i2c_write+0xb4>
    8688:	e5933004 	ldr	r3, [r3, #4]
    868c:	e3130010 	tst	r3, #16, 0
    8690:	1afffff5 	bne	866c <i2c_write+0x38>
    8694:	e59f304c 	ldr	r3, [pc, #76]	; 86e8 <i2c_write+0xb4>
    8698:	e5933004 	ldr	r3, [r3, #4]
    869c:	e3130c01 	tst	r3, #256	; 0x100
    86a0:	1affffeb 	bne	8654 <i2c_write+0x20>
    86a4:	e59f303c 	ldr	r3, [pc, #60]	; 86e8 <i2c_write+0xb4>
    86a8:	e5933004 	ldr	r3, [r3, #4]
    86ac:	e3130c02 	tst	r3, #512	; 0x200
    86b0:	0afffff3 	beq	8684 <i2c_write+0x50>
    86b4:	e59f301c 	ldr	r3, [pc, #28]	; 86d8 <i2c_write+0xa4>
    86b8:	e59f201c 	ldr	r2, [pc, #28]	; 86dc <i2c_write+0xa8>
    86bc:	e59f101c 	ldr	r1, [pc, #28]	; 86e0 <i2c_write+0xac>
    86c0:	e59f0024 	ldr	r0, [pc, #36]	; 86ec <i2c_write+0xb8>
    86c4:	eb0000d0 	bl	8a0c <printk>
    86c8:	eb00036f 	bl	948c <clean_reboot>
    86cc:	ebffff11 	bl	8318 <xfer_end>
    86d0:	e3a00001 	mov	r0, #1, 0
    86d4:	e8bd8070 	pop	{r4, r5, r6, pc}
    86d8:	00000126 	andeq	r0, r0, r6, lsr #2
    86dc:	00009c98 	muleq	r0, r8, ip
    86e0:	00009ba0 	andeq	r9, r0, r0, lsr #23
    86e4:	00009bac 	andeq	r9, r0, ip, lsr #23
    86e8:	20804000 	addcs	r4, r0, r0
    86ec:	00009bd0 	ldrdeq	r9, [r0], -r0

000086f0 <i2c_read>:
    86f0:	e92d4070 	push	{r4, r5, r6, lr}
    86f4:	e1a05001 	mov	r5, r1
    86f8:	e1a04002 	mov	r4, r2
    86fc:	e3a02001 	mov	r2, #1, 0
    8700:	e1a01004 	mov	r1, r4
    8704:	ebffff55 	bl	8460 <xfer_start>
    8708:	e3a02000 	mov	r2, #0, 0
    870c:	ea000009 	b	8738 <i2c_read+0x48>
    8710:	e59f307c 	ldr	r3, [pc, #124]	; 8794 <i2c_read+0xa4>
    8714:	e59f207c 	ldr	r2, [pc, #124]	; 8798 <i2c_read+0xa8>
    8718:	e59f107c 	ldr	r1, [pc, #124]	; 879c <i2c_read+0xac>
    871c:	e59f007c 	ldr	r0, [pc, #124]	; 87a0 <i2c_read+0xb0>
    8720:	eb0000b9 	bl	8a0c <printk>
    8724:	eb000358 	bl	948c <clean_reboot>
    8728:	e59f3074 	ldr	r3, [pc, #116]	; 87a4 <i2c_read+0xb4>
    872c:	e5933010 	ldr	r3, [r3, #16]
    8730:	e7c53002 	strb	r3, [r5, r2]
    8734:	e2822001 	add	r2, r2, #1, 0
    8738:	e1520004 	cmp	r2, r4
    873c:	2a000011 	bcs	8788 <i2c_read+0x98>
    8740:	e59f305c 	ldr	r3, [pc, #92]	; 87a4 <i2c_read+0xb4>
    8744:	e5933004 	ldr	r3, [r3, #4]
    8748:	e3130020 	tst	r3, #32, 0
    874c:	1afffff5 	bne	8728 <i2c_read+0x38>
    8750:	e59f304c 	ldr	r3, [pc, #76]	; 87a4 <i2c_read+0xb4>
    8754:	e5933004 	ldr	r3, [r3, #4]
    8758:	e3130c01 	tst	r3, #256	; 0x100
    875c:	1affffeb 	bne	8710 <i2c_read+0x20>
    8760:	e59f303c 	ldr	r3, [pc, #60]	; 87a4 <i2c_read+0xb4>
    8764:	e5933004 	ldr	r3, [r3, #4]
    8768:	e3130c02 	tst	r3, #512	; 0x200
    876c:	0afffff3 	beq	8740 <i2c_read+0x50>
    8770:	e59f301c 	ldr	r3, [pc, #28]	; 8794 <i2c_read+0xa4>
    8774:	e59f201c 	ldr	r2, [pc, #28]	; 8798 <i2c_read+0xa8>
    8778:	e59f101c 	ldr	r1, [pc, #28]	; 879c <i2c_read+0xac>
    877c:	e59f0024 	ldr	r0, [pc, #36]	; 87a8 <i2c_read+0xb8>
    8780:	eb0000a1 	bl	8a0c <printk>
    8784:	eb000340 	bl	948c <clean_reboot>
    8788:	ebfffee2 	bl	8318 <xfer_end>
    878c:	e3a00001 	mov	r0, #1, 0
    8790:	e8bd8070 	pop	{r4, r5, r6, pc}
    8794:	00000137 	andeq	r0, r0, r7, lsr r1
    8798:	00009ca4 	andeq	r9, r0, r4, lsr #25
    879c:	00009ba0 	andeq	r9, r0, r0, lsr #23
    87a0:	00009bac 	andeq	r9, r0, ip, lsr #23
    87a4:	20804000 	addcs	r4, r0, r0
    87a8:	00009bd0 	ldrdeq	r9, [r0], -r0

000087ac <i2c_is_initialized>:
    87ac:	e59f3004 	ldr	r3, [pc, #4]	; 87b8 <i2c_is_initialized+0xc>
    87b0:	e5930000 	ldr	r0, [r3]
    87b4:	e12fff1e 	bx	lr
    87b8:	00009e50 	andeq	r9, r0, r0, asr lr

000087bc <i2c_init>:
    87bc:	e92d4010 	push	{r4, lr}
    87c0:	e24dd008 	sub	sp, sp, #8, 0
    87c4:	eb000386 	bl	95e4 <dev_barrier>
    87c8:	e3a01004 	mov	r1, #4, 0
    87cc:	e3a00002 	mov	r0, #2, 0
    87d0:	eb000027 	bl	8874 <gpio_set_function>
    87d4:	e3a01004 	mov	r1, #4, 0
    87d8:	e3a00003 	mov	r0, #3, 0
    87dc:	eb000024 	bl	8874 <gpio_set_function>
    87e0:	eb00037f 	bl	95e4 <dev_barrier>
    87e4:	e59f4054 	ldr	r4, [pc, #84]	; 8840 <i2c_init+0x84>
    87e8:	e3a01902 	mov	r1, #32768	; 0x8000
    87ec:	e1a00004 	mov	r0, r4
    87f0:	ebfffe0b 	bl	8024 <PUT32>
    87f4:	eb00037a 	bl	95e4 <dev_barrier>
    87f8:	ebffff0a 	bl	8428 <reset_status>
    87fc:	eb000378 	bl	95e4 <dev_barrier>
    8800:	e5943004 	ldr	r3, [r4, #4]
    8804:	e3130001 	tst	r3, #1, 0
    8808:	1a000004 	bne	8820 <i2c_init+0x64>
    880c:	e59f3030 	ldr	r3, [pc, #48]	; 8844 <i2c_init+0x88>
    8810:	e3a02001 	mov	r2, #1, 0
    8814:	e5832000 	str	r2, [r3]
    8818:	e28dd008 	add	sp, sp, #8, 0
    881c:	e8bd8010 	pop	{r4, pc}
    8820:	e59f3020 	ldr	r3, [pc, #32]	; 8848 <i2c_init+0x8c>
    8824:	e58d3000 	str	r3, [sp]
    8828:	e59f301c 	ldr	r3, [pc, #28]	; 884c <i2c_init+0x90>
    882c:	e59f201c 	ldr	r2, [pc, #28]	; 8850 <i2c_init+0x94>
    8830:	e59f101c 	ldr	r1, [pc, #28]	; 8854 <i2c_init+0x98>
    8834:	e59f001c 	ldr	r0, [pc, #28]	; 8858 <i2c_init+0x9c>
    8838:	eb000073 	bl	8a0c <printk>
    883c:	eb000312 	bl	948c <clean_reboot>
    8840:	20804000 	addcs	r4, r0, r0
    8844:	00009e50 	andeq	r9, r0, r0, asr lr
    8848:	00009c14 	andeq	r9, r0, r4, lsl ip
    884c:	0000016e 	andeq	r0, r0, lr, ror #2
    8850:	00009cb0 			; <UNDEFINED> instruction: 0x00009cb0
    8854:	00009ba0 	andeq	r9, r0, r0, lsr #23
    8858:	00009c00 	andeq	r9, r0, r0, lsl #24

0000885c <i2c_init_once>:
    885c:	e92d4010 	push	{r4, lr}
    8860:	ebffffd1 	bl	87ac <i2c_is_initialized>
    8864:	e3500000 	cmp	r0, #0, 0
    8868:	18bd8010 	popne	{r4, pc}
    886c:	ebffffd2 	bl	87bc <i2c_init>
    8870:	e8bd8010 	pop	{r4, pc}

00008874 <gpio_set_function>:
    8874:	e350001f 	cmp	r0, #31, 0
    8878:	812fff1e 	bxhi	lr
    887c:	e3d13007 	bics	r3, r1, #7, 0
    8880:	e92d4070 	push	{r4, r5, r6, lr}
    8884:	e1a05001 	mov	r5, r1
    8888:	18bd8070 	popne	{r4, r5, r6, pc}
    888c:	e59f403c 	ldr	r4, [pc, #60]	; 88d0 <gpio_set_function+0x5c>
    8890:	e0843094 	umull	r3, r4, r4, r0
    8894:	e1a041a4 	lsr	r4, r4, #3
    8898:	e2843302 	add	r3, r4, #134217728	; 0x8000000
    889c:	e2833702 	add	r3, r3, #524288	; 0x80000
    88a0:	e1a06103 	lsl	r6, r3, #2
    88a4:	e0844104 	add	r4, r4, r4, lsl #2
    88a8:	e0404084 	sub	r4, r0, r4, lsl #1
    88ac:	e1a00006 	mov	r0, r6
    88b0:	ebfffddd 	bl	802c <GET32>
    88b4:	e3a01007 	mov	r1, #7, 0
    88b8:	e0844084 	add	r4, r4, r4, lsl #1
    88bc:	e1c01411 	bic	r1, r0, r1, lsl r4
    88c0:	e1811415 	orr	r1, r1, r5, lsl r4
    88c4:	e1a00006 	mov	r0, r6
    88c8:	e8bd4070 	pop	{r4, r5, r6, lr}
    88cc:	eafffdd4 	b	8024 <PUT32>
    88d0:	cccccccd 	stclgt	12, cr12, [ip], {205}	; 0xcd

000088d4 <gpio_set_output>:
    88d4:	e350001f 	cmp	r0, #31, 0
    88d8:	812fff1e 	bxhi	lr
    88dc:	e92d4070 	push	{r4, r5, r6, lr}
    88e0:	e59f4040 	ldr	r4, [pc, #64]	; 8928 <gpio_set_output+0x54>
    88e4:	e0843094 	umull	r3, r4, r4, r0
    88e8:	e1a041a4 	lsr	r4, r4, #3
    88ec:	e2843302 	add	r3, r4, #134217728	; 0x8000000
    88f0:	e2833702 	add	r3, r3, #524288	; 0x80000
    88f4:	e1a05103 	lsl	r5, r3, #2
    88f8:	e0844104 	add	r4, r4, r4, lsl #2
    88fc:	e0404084 	sub	r4, r0, r4, lsl #1
    8900:	e1a00005 	mov	r0, r5
    8904:	ebfffdc8 	bl	802c <GET32>
    8908:	e3a03007 	mov	r3, #7, 0
    890c:	e3a01001 	mov	r1, #1, 0
    8910:	e0844084 	add	r4, r4, r4, lsl #1
    8914:	e1c03413 	bic	r3, r0, r3, lsl r4
    8918:	e1831411 	orr	r1, r3, r1, lsl r4
    891c:	e1a00005 	mov	r0, r5
    8920:	e8bd4070 	pop	{r4, r5, r6, lr}
    8924:	eafffdbe 	b	8024 <PUT32>
    8928:	cccccccd 	stclgt	12, cr12, [ip], {205}	; 0xcd

0000892c <gpio_set_on>:
    892c:	e1a03000 	mov	r3, r0
    8930:	e3a01001 	mov	r1, #1, 0
    8934:	e59f0004 	ldr	r0, [pc, #4]	; 8940 <gpio_set_on+0x14>
    8938:	e1a01311 	lsl	r1, r1, r3
    893c:	eafffdb8 	b	8024 <PUT32>
    8940:	2020001c 	eorcs	r0, r0, ip, lsl r0

00008944 <gpio_set_off>:
    8944:	e1a03000 	mov	r3, r0
    8948:	e3a01001 	mov	r1, #1, 0
    894c:	e59f0004 	ldr	r0, [pc, #4]	; 8958 <gpio_set_off+0x14>
    8950:	e1a01311 	lsl	r1, r1, r3
    8954:	eafffdb2 	b	8024 <PUT32>
    8958:	20200028 	eorcs	r0, r0, r8, lsr #32

0000895c <gpio_set_input>:
    895c:	e350001f 	cmp	r0, #31, 0
    8960:	812fff1e 	bxhi	lr
    8964:	e92d4070 	push	{r4, r5, r6, lr}
    8968:	e59f5040 	ldr	r5, [pc, #64]	; 89b0 <gpio_set_input+0x54>
    896c:	e1a04000 	mov	r4, r0
    8970:	e0853095 	umull	r3, r5, r5, r0
    8974:	e1a051a5 	lsr	r5, r5, #3
    8978:	e2850302 	add	r0, r5, #134217728	; 0x8000000
    897c:	e2800702 	add	r0, r0, #524288	; 0x80000
    8980:	e1a06100 	lsl	r6, r0, #2
    8984:	e1a00006 	mov	r0, r6
    8988:	ebfffda7 	bl	802c <GET32>
    898c:	e3a01007 	mov	r1, #7, 0
    8990:	e1a03000 	mov	r3, r0
    8994:	e0855105 	add	r5, r5, r5, lsl #2
    8998:	e0444085 	sub	r4, r4, r5, lsl #1
    899c:	e0844084 	add	r4, r4, r4, lsl #1
    89a0:	e1a00006 	mov	r0, r6
    89a4:	e1c31411 	bic	r1, r3, r1, lsl r4
    89a8:	e8bd4070 	pop	{r4, r5, r6, lr}
    89ac:	eafffd9c 	b	8024 <PUT32>
    89b0:	cccccccd 	stclgt	12, cr12, [ip], {205}	; 0xcd

000089b4 <gpio_write>:
    89b4:	e3510000 	cmp	r1, #0, 0
    89b8:	e3a03001 	mov	r3, #1, 0
    89bc:	e1a01000 	mov	r1, r0
    89c0:	0a000002 	beq	89d0 <gpio_write+0x1c>
    89c4:	e59f0010 	ldr	r0, [pc, #16]	; 89dc <gpio_write+0x28>
    89c8:	e1a01113 	lsl	r1, r3, r1
    89cc:	eafffd94 	b	8024 <PUT32>
    89d0:	e59f0008 	ldr	r0, [pc, #8]	; 89e0 <gpio_write+0x2c>
    89d4:	e1a01113 	lsl	r1, r3, r1
    89d8:	eafffd91 	b	8024 <PUT32>
    89dc:	2020001c 	eorcs	r0, r0, ip, lsl r0
    89e0:	20200028 	eorcs	r0, r0, r8, lsr #32

000089e4 <gpio_read>:
    89e4:	e92d4010 	push	{r4, lr}
    89e8:	e1a04000 	mov	r4, r0
    89ec:	e59f0014 	ldr	r0, [pc, #20]	; 8a08 <gpio_read+0x24>
    89f0:	e08002a4 	add	r0, r0, r4, lsr #5
    89f4:	ebfffd8c 	bl	802c <GET32>
    89f8:	e204401f 	and	r4, r4, #31, 0
    89fc:	e1a00430 	lsr	r0, r0, r4
    8a00:	e2000001 	and	r0, r0, #1, 0
    8a04:	e8bd8010 	pop	{r4, pc}
    8a08:	20200034 	eorcs	r0, r0, r4, lsr r0

00008a0c <printk>:
    8a0c:	e92d000f 	push	{r0, r1, r2, r3}
    8a10:	e92d4030 	push	{r4, r5, lr}
    8a14:	e59f5040 	ldr	r5, [pc, #64]	; 8a5c <printk+0x50>
    8a18:	e24dd00c 	sub	sp, sp, #12, 0
    8a1c:	e28d301c 	add	r3, sp, #28, 0
    8a20:	e3a01b01 	mov	r1, #1024	; 0x400
    8a24:	e59d2018 	ldr	r2, [sp, #24]
    8a28:	e1a00005 	mov	r0, r5
    8a2c:	e58d3004 	str	r3, [sp, #4]
    8a30:	eb00010a 	bl	8e60 <va_printk>
    8a34:	e1a04000 	mov	r4, r0
    8a38:	e59f3020 	ldr	r3, [pc, #32]	; 8a60 <printk+0x54>
    8a3c:	e1a00005 	mov	r0, r5
    8a40:	e5933000 	ldr	r3, [r3]
    8a44:	e12fff33 	blx	r3
    8a48:	e1a00004 	mov	r0, r4
    8a4c:	e28dd00c 	add	sp, sp, #12, 0
    8a50:	e8bd4030 	pop	{r4, r5, lr}
    8a54:	e28dd010 	add	sp, sp, #16, 0
    8a58:	e12fff1e 	bx	lr
    8a5c:	00009e54 	andeq	r9, r0, r4, asr lr
    8a60:	00009e4c 	andeq	r9, r0, ip, asr #28

00008a64 <internal_putchar>:
    8a64:	e92d4010 	push	{r4, lr}
    8a68:	e1a04000 	mov	r4, r0
    8a6c:	eb0003a2 	bl	98fc <uart_putc>
    8a70:	e1a00004 	mov	r0, r4
    8a74:	e8bd8010 	pop	{r4, pc}

00008a78 <rpi_reset_putc>:
    8a78:	e59f3008 	ldr	r3, [pc, #8]	; 8a88 <rpi_reset_putc+0x10>
    8a7c:	e59f2008 	ldr	r2, [pc, #8]	; 8a8c <rpi_reset_putc+0x14>
    8a80:	e5832000 	str	r2, [r3]
    8a84:	e12fff1e 	bx	lr
    8a88:	00009e48 	andeq	r9, r0, r8, asr #28
    8a8c:	00008a64 	andeq	r8, r0, r4, ror #20

00008a90 <rpi_set_putc>:
    8a90:	e59f3004 	ldr	r3, [pc, #4]	; 8a9c <rpi_set_putc+0xc>
    8a94:	e5830000 	str	r0, [r3]
    8a98:	e12fff1e 	bx	lr
    8a9c:	00009e48 	andeq	r9, r0, r8, asr #28

00008aa0 <internal_putk>:
    8aa0:	e92d4070 	push	{r4, r5, r6, lr}
    8aa4:	e1a04000 	mov	r4, r0
    8aa8:	e5d00000 	ldrb	r0, [r0]
    8aac:	e3500000 	cmp	r0, #0, 0
    8ab0:	0a000005 	beq	8acc <internal_putk+0x2c>
    8ab4:	e59f5018 	ldr	r5, [pc, #24]	; 8ad4 <internal_putk+0x34>
    8ab8:	e5953000 	ldr	r3, [r5]
    8abc:	e12fff33 	blx	r3
    8ac0:	e5f40001 	ldrb	r0, [r4, #1]!
    8ac4:	e3500000 	cmp	r0, #0, 0
    8ac8:	1afffffa 	bne	8ab8 <internal_putk+0x18>
    8acc:	e3a00001 	mov	r0, #1, 0
    8ad0:	e8bd8070 	pop	{r4, r5, r6, pc}
    8ad4:	00009e48 	andeq	r9, r0, r8, asr #28

00008ad8 <emit.constprop.0>:
    8ad8:	e92d41f0 	push	{r4, r5, r6, r7, r8, lr}
    8adc:	e3530080 	cmp	r3, #128, 0	; 0x80
    8ae0:	e1a0c000 	mov	ip, r0
    8ae4:	e24dd048 	sub	sp, sp, #72, 0	; 0x48
    8ae8:	e1a00001 	mov	r0, r1
    8aec:	ca000069 	bgt	8c98 <emit.constprop.0+0x1c0>
    8af0:	e24c1002 	sub	r1, ip, #2, 0
    8af4:	e1a0c002 	mov	ip, r2
    8af8:	e351000e 	cmp	r1, #14, 0
    8afc:	979ff101 	ldrls	pc, [pc, r1, lsl #2]
    8b00:	ea0000a7 	b	8da4 <emit.constprop.0+0x2cc>
    8b04:	00008c70 	andeq	r8, r0, r0, ror ip
    8b08:	00008da4 	andeq	r8, r0, r4, lsr #27
    8b0c:	00008da4 	andeq	r8, r0, r4, lsr #27
    8b10:	00008da4 	andeq	r8, r0, r4, lsr #27
    8b14:	00008da4 	andeq	r8, r0, r4, lsr #27
    8b18:	00008da4 	andeq	r8, r0, r4, lsr #27
    8b1c:	00008d4c 	andeq	r8, r0, ip, asr #26
    8b20:	00008da4 	andeq	r8, r0, r4, lsr #27
    8b24:	00008cec 	andeq	r8, r0, ip, ror #25
    8b28:	00008da4 	andeq	r8, r0, r4, lsr #27
    8b2c:	00008da4 	andeq	r8, r0, r4, lsr #27
    8b30:	00008da4 	andeq	r8, r0, r4, lsr #27
    8b34:	00008da4 	andeq	r8, r0, r4, lsr #27
    8b38:	00008da4 	andeq	r8, r0, r4, lsr #27
    8b3c:	00008b44 	andeq	r8, r0, r4, asr #22
    8b40:	e3a0307f 	mov	r3, #127, 0	; 0x7f
    8b44:	e28d2008 	add	r2, sp, #8, 0
    8b48:	e1a04002 	mov	r4, r2
    8b4c:	e59f1288 	ldr	r1, [pc, #648]	; 8ddc <emit.constprop.0+0x304>
    8b50:	e20ce00f 	and	lr, ip, #15, 0
    8b54:	e7d1e00e 	ldrb	lr, [r1, lr]
    8b58:	e35c000f 	cmp	ip, #15, 0
    8b5c:	e4c4e001 	strb	lr, [r4], #1
    8b60:	e1a0c22c 	lsr	ip, ip, #4
    8b64:	8afffff9 	bhi	8b50 <emit.constprop.0+0x78>
    8b68:	e3a0c078 	mov	ip, #120, 0	; 0x78
    8b6c:	e1a0e004 	mov	lr, r4
    8b70:	e3a01030 	mov	r1, #48, 0	; 0x30
    8b74:	e4cec002 	strb	ip, [lr], #2
    8b78:	e5c41001 	strb	r1, [r4, #1]
    8b7c:	e04e1002 	sub	r1, lr, r2
    8b80:	e1510003 	cmp	r1, r3
    8b84:	aa000083 	bge	8d98 <emit.constprop.0+0x2c0>
    8b88:	e1510003 	cmp	r1, r3
    8b8c:	a3a0c001 	movge	ip, #1, 0
    8b90:	b3a0c000 	movlt	ip, #0, 0
    8b94:	e2434001 	sub	r4, r3, #1, 0
    8b98:	e0444001 	sub	r4, r4, r1
    8b9c:	b0436001 	sublt	r6, r3, r1
    8ba0:	a3a06001 	movge	r6, #1, 0
    8ba4:	e3540002 	cmp	r4, #2, 0
    8ba8:	938cc001 	orrls	ip, ip, #1, 0
    8bac:	e35c0000 	cmp	ip, #0, 0
    8bb0:	1a000075 	bne	8d8c <emit.constprop.0+0x2b4>
    8bb4:	e1a0c00e 	mov	ip, lr
    8bb8:	e3c65003 	bic	r5, r6, #3, 0
    8bbc:	e59f721c 	ldr	r7, [pc, #540]	; 8de0 <emit.constprop.0+0x308>
    8bc0:	e085500e 	add	r5, r5, lr
    8bc4:	e48c7004 	str	r7, [ip], #4
    8bc8:	e15c0005 	cmp	ip, r5
    8bcc:	1afffffc 	bne	8bc4 <emit.constprop.0+0xec>
    8bd0:	e3c6c003 	bic	ip, r6, #3, 0
    8bd4:	e156000c 	cmp	r6, ip
    8bd8:	e08e500c 	add	r5, lr, ip
    8bdc:	e08cc001 	add	ip, ip, r1
    8be0:	0a000008 	beq	8c08 <emit.constprop.0+0x130>
    8be4:	e3a07020 	mov	r7, #32, 0
    8be8:	e28c8001 	add	r8, ip, #1, 0
    8bec:	e1580003 	cmp	r8, r3
    8bf0:	e5c57000 	strb	r7, [r5]
    8bf4:	aa000003 	bge	8c08 <emit.constprop.0+0x130>
    8bf8:	e28cc002 	add	ip, ip, #2, 0
    8bfc:	e15c0003 	cmp	ip, r3
    8c00:	e5c57001 	strb	r7, [r5, #1]
    8c04:	b5c57002 	strblt	r7, [r5, #2]
    8c08:	e1510003 	cmp	r1, r3
    8c0c:	a3a04000 	movge	r4, #0, 0
    8c10:	e08e6006 	add	r6, lr, r6
    8c14:	e0461002 	sub	r1, r6, r2
    8c18:	e08ee004 	add	lr, lr, r4
    8c1c:	e3a03000 	mov	r3, #0, 0
    8c20:	e351007f 	cmp	r1, #127, 0	; 0x7f
    8c24:	c241407f 	subgt	r4, r1, #127, 0	; 0x7f
    8c28:	c0822004 	addgt	r2, r2, r4
    8c2c:	e152000e 	cmp	r2, lr
    8c30:	e5c63000 	strb	r3, [r6]
    8c34:	8a00004f 	bhi	8d78 <emit.constprop.0+0x2a0>
    8c38:	e28ee001 	add	lr, lr, #1, 0
    8c3c:	e1a0300e 	mov	r3, lr
    8c40:	e240c001 	sub	ip, r0, #1, 0
    8c44:	e5734001 	ldrb	r4, [r3, #-1]!
    8c48:	e1530002 	cmp	r3, r2
    8c4c:	e5ec4001 	strb	r4, [ip, #1]!
    8c50:	1afffffb 	bne	8c44 <emit.constprop.0+0x16c>
    8c54:	e04ee003 	sub	lr, lr, r3
    8c58:	e3a03000 	mov	r3, #0, 0
    8c5c:	e080e00e 	add	lr, r0, lr
    8c60:	e5ce3000 	strb	r3, [lr]
    8c64:	e28dd048 	add	sp, sp, #72, 0	; 0x48
    8c68:	e8bd81f0 	pop	{r4, r5, r6, r7, r8, pc}
    8c6c:	e3a0307f 	mov	r3, #127, 0	; 0x7f
    8c70:	e28d2008 	add	r2, sp, #8, 0
    8c74:	e1a0e002 	mov	lr, r2
    8c78:	e59f1164 	ldr	r1, [pc, #356]	; 8de4 <emit.constprop.0+0x30c>
    8c7c:	e20c4001 	and	r4, ip, #1, 0
    8c80:	e7d14004 	ldrb	r4, [r1, r4]
    8c84:	e35c0001 	cmp	ip, #1, 0
    8c88:	e4ce4001 	strb	r4, [lr], #1
    8c8c:	e1a0c0ac 	lsr	ip, ip, #1
    8c90:	8afffff9 	bhi	8c7c <emit.constprop.0+0x1a4>
    8c94:	eaffffb8 	b	8b7c <emit.constprop.0+0xa4>
    8c98:	e24c3002 	sub	r3, ip, #2, 0
    8c9c:	e1a0c002 	mov	ip, r2
    8ca0:	e353000e 	cmp	r3, #14, 0
    8ca4:	979ff103 	ldrls	pc, [pc, r3, lsl #2]
    8ca8:	ea00003d 	b	8da4 <emit.constprop.0+0x2cc>
    8cac:	00008c6c 	andeq	r8, r0, ip, ror #24
    8cb0:	00008da4 	andeq	r8, r0, r4, lsr #27
    8cb4:	00008da4 	andeq	r8, r0, r4, lsr #27
    8cb8:	00008da4 	andeq	r8, r0, r4, lsr #27
    8cbc:	00008da4 	andeq	r8, r0, r4, lsr #27
    8cc0:	00008da4 	andeq	r8, r0, r4, lsr #27
    8cc4:	00008dc4 	andeq	r8, r0, r4, asr #27
    8cc8:	00008da4 	andeq	r8, r0, r4, lsr #27
    8ccc:	00008ce8 	andeq	r8, r0, r8, ror #25
    8cd0:	00008da4 	andeq	r8, r0, r4, lsr #27
    8cd4:	00008da4 	andeq	r8, r0, r4, lsr #27
    8cd8:	00008da4 	andeq	r8, r0, r4, lsr #27
    8cdc:	00008da4 	andeq	r8, r0, r4, lsr #27
    8ce0:	00008da4 	andeq	r8, r0, r4, lsr #27
    8ce4:	00008b40 	andeq	r8, r0, r0, asr #22
    8ce8:	e3a0307f 	mov	r3, #127, 0	; 0x7f
    8cec:	e59d1060 	ldr	r1, [sp, #96]	; 0x60
    8cf0:	e59f70f0 	ldr	r7, [pc, #240]	; 8de8 <emit.constprop.0+0x310>
    8cf4:	e0118fa2 	ands	r8, r1, r2, lsr #31
    8cf8:	1262c000 	rsbne	ip, r2, #0, 0
    8cfc:	e28d2008 	add	r2, sp, #8, 0
    8d00:	13a08001 	movne	r8, #1, 0
    8d04:	e1a0e002 	mov	lr, r2
    8d08:	e59f60dc 	ldr	r6, [pc, #220]	; 8dec <emit.constprop.0+0x314>
    8d0c:	e1a0500c 	mov	r5, ip
    8d10:	e0814c96 	umull	r4, r1, r6, ip
    8d14:	e1a011a1 	lsr	r1, r1, #3
    8d18:	e0814101 	add	r4, r1, r1, lsl #2
    8d1c:	e04cc084 	sub	ip, ip, r4, lsl #1
    8d20:	e7d7400c 	ldrb	r4, [r7, ip]
    8d24:	e3550009 	cmp	r5, #9, 0
    8d28:	e1a0c001 	mov	ip, r1
    8d2c:	e1a0100e 	mov	r1, lr
    8d30:	e4ce4001 	strb	r4, [lr], #1
    8d34:	8afffff4 	bhi	8d0c <emit.constprop.0+0x234>
    8d38:	e3580000 	cmp	r8, #0, 0
    8d3c:	13a0c02d 	movne	ip, #45, 0	; 0x2d
    8d40:	15cec000 	strbne	ip, [lr]
    8d44:	1281e002 	addne	lr, r1, #2, 0
    8d48:	eaffff8b 	b	8b7c <emit.constprop.0+0xa4>
    8d4c:	e3530001 	cmp	r3, #1, 0
    8d50:	e5cd2008 	strb	r2, [sp, #8]
    8d54:	c3a01001 	movgt	r1, #1, 0
    8d58:	c28de009 	addgt	lr, sp, #9, 0
    8d5c:	c28d2008 	addgt	r2, sp, #8, 0
    8d60:	caffff88 	bgt	8b88 <emit.constprop.0+0xb0>
    8d64:	e3a03000 	mov	r3, #0, 0
    8d68:	e28de008 	add	lr, sp, #8, 0
    8d6c:	e1a0200e 	mov	r2, lr
    8d70:	e5cd3009 	strb	r3, [sp, #9]
    8d74:	eaffffaf 	b	8c38 <emit.constprop.0+0x160>
    8d78:	e1a0e000 	mov	lr, r0
    8d7c:	e3a03000 	mov	r3, #0, 0
    8d80:	e5ce3000 	strb	r3, [lr]
    8d84:	e28dd048 	add	sp, sp, #72, 0	; 0x48
    8d88:	e8bd81f0 	pop	{r4, r5, r6, r7, r8, pc}
    8d8c:	e1a0c001 	mov	ip, r1
    8d90:	e1a0500e 	mov	r5, lr
    8d94:	eaffff92 	b	8be4 <emit.constprop.0+0x10c>
    8d98:	e1a0600e 	mov	r6, lr
    8d9c:	e24ee001 	sub	lr, lr, #1, 0
    8da0:	eaffff9d 	b	8c1c <emit.constprop.0+0x144>
    8da4:	e59f2044 	ldr	r2, [pc, #68]	; 8df0 <emit.constprop.0+0x318>
    8da8:	e3a03079 	mov	r3, #121, 0	; 0x79
    8dac:	e59f1040 	ldr	r1, [pc, #64]	; 8df4 <emit.constprop.0+0x31c>
    8db0:	e58d2000 	str	r2, [sp]
    8db4:	e59f003c 	ldr	r0, [pc, #60]	; 8df8 <emit.constprop.0+0x320>
    8db8:	e59f203c 	ldr	r2, [pc, #60]	; 8dfc <emit.constprop.0+0x324>
    8dbc:	ebffff12 	bl	8a0c <printk>
    8dc0:	eb0001b1 	bl	948c <clean_reboot>
    8dc4:	e5cd2008 	strb	r2, [sp, #8]
    8dc8:	e3a0307f 	mov	r3, #127, 0	; 0x7f
    8dcc:	e3a01001 	mov	r1, #1, 0
    8dd0:	e28de009 	add	lr, sp, #9, 0
    8dd4:	e28d2008 	add	r2, sp, #8, 0
    8dd8:	eaffff6a 	b	8b88 <emit.constprop.0+0xb0>
    8ddc:	00009cd0 	ldrdeq	r9, [r0], -r0
    8de0:	20202020 	eorcs	r2, r0, r0, lsr #32
    8de4:	00009ce4 	andeq	r9, r0, r4, ror #25
    8de8:	00009ce8 	andeq	r9, r0, r8, ror #25
    8dec:	cccccccd 	stclgt	12, cr12, [ip], {205}	; 0xcd
    8df0:	00009c7c 	andeq	r9, r0, ip, ror ip
    8df4:	00009cbc 			; <UNDEFINED> instruction: 0x00009cbc
    8df8:	00009c00 	andeq	r9, r0, r0, lsl #24
    8dfc:	00009dfc 	strdeq	r9, [r0], -ip

00008e00 <rpi_set_output>:
    8e00:	e3500000 	cmp	r0, #0, 0
    8e04:	0a000005 	beq	8e20 <rpi_set_output+0x20>
    8e08:	e59f3038 	ldr	r3, [pc, #56]	; 8e48 <rpi_set_output+0x48>
    8e0c:	e3510000 	cmp	r1, #0, 0
    8e10:	e5830000 	str	r0, [r3]
    8e14:	159f3030 	ldrne	r3, [pc, #48]	; 8e4c <rpi_set_output+0x4c>
    8e18:	15831000 	strne	r1, [r3]
    8e1c:	e12fff1e 	bx	lr
    8e20:	e52de004 	push	{lr}		; (str lr, [sp, #-4]!)
    8e24:	e59f2024 	ldr	r2, [pc, #36]	; 8e50 <rpi_set_output+0x50>
    8e28:	e24dd00c 	sub	sp, sp, #12, 0
    8e2c:	e3a03020 	mov	r3, #32, 0
    8e30:	e59f101c 	ldr	r1, [pc, #28]	; 8e54 <rpi_set_output+0x54>
    8e34:	e58d2000 	str	r2, [sp]
    8e38:	e59f0018 	ldr	r0, [pc, #24]	; 8e58 <rpi_set_output+0x58>
    8e3c:	e59f2018 	ldr	r2, [pc, #24]	; 8e5c <rpi_set_output+0x5c>
    8e40:	ebfffef1 	bl	8a0c <printk>
    8e44:	eb000190 	bl	948c <clean_reboot>
    8e48:	00009e48 	andeq	r9, r0, r8, asr #28
    8e4c:	00009e4c 	andeq	r9, r0, ip, asr #28
    8e50:	00009cf4 	strdeq	r9, [r0], -r4
    8e54:	00009cbc 			; <UNDEFINED> instruction: 0x00009cbc
    8e58:	00009c00 	andeq	r9, r0, r0, lsl #24
    8e5c:	00009e04 	andeq	r9, r0, r4, lsl #28

00008e60 <va_printk>:
    8e60:	e92d4ff0 	push	{r4, r5, r6, r7, r8, r9, sl, fp, lr}
    8e64:	e1a0b000 	mov	fp, r0
    8e68:	e3a00000 	mov	r0, #0, 0
    8e6c:	e5cb0000 	strb	r0, [fp]
    8e70:	e5d2c000 	ldrb	ip, [r2]
    8e74:	e2417001 	sub	r7, r1, #1, 0
    8e78:	e08b7007 	add	r7, fp, r7
    8e7c:	e15c0000 	cmp	ip, r0
    8e80:	115b0007 	cmpne	fp, r7
    8e84:	e24ddf47 	sub	sp, sp, #284	; 0x11c
    8e88:	e58d2010 	str	r2, [sp, #16]
    8e8c:	2a000159 	bcs	93f8 <va_printk+0x598>
    8e90:	e1a06002 	mov	r6, r2
    8e94:	e1a08003 	mov	r8, r3
    8e98:	e1a0400b 	mov	r4, fp
    8e9c:	e59fa5a4 	ldr	sl, [pc, #1444]	; 9448 <va_printk+0x5e8>
    8ea0:	e58db00c 	str	fp, [sp, #12]
    8ea4:	ea000005 	b	8ec0 <va_printk+0x60>
    8ea8:	e4c4c001 	strb	ip, [r4], #1
    8eac:	e2866001 	add	r6, r6, #1, 0
    8eb0:	e5d6c000 	ldrb	ip, [r6]
    8eb4:	e35c0000 	cmp	ip, #0, 0
    8eb8:	11570004 	cmpne	r7, r4
    8ebc:	9a00002f 	bls	8f80 <va_printk+0x120>
    8ec0:	e35c0025 	cmp	ip, #37, 0	; 0x25
    8ec4:	1afffff7 	bne	8ea8 <va_printk+0x48>
    8ec8:	e5d62001 	ldrb	r2, [r6, #1]
    8ecc:	e3520025 	cmp	r2, #37, 0	; 0x25
    8ed0:	04c4c001 	strbeq	ip, [r4], #1
    8ed4:	02866002 	addeq	r6, r6, #2, 0
    8ed8:	0afffff4 	beq	8eb0 <va_printk+0x50>
    8edc:	e2423030 	sub	r3, r2, #48, 0	; 0x30
    8ee0:	e3530009 	cmp	r3, #9, 0
    8ee4:	e3a05000 	mov	r5, #0, 0
    8ee8:	e2866001 	add	r6, r6, #1, 0
    8eec:	8a000008 	bhi	8f14 <va_printk+0xb4>
    8ef0:	e0855105 	add	r5, r5, r5, lsl #2
    8ef4:	e0825085 	add	r5, r2, r5, lsl #1
    8ef8:	e5f62001 	ldrb	r2, [r6, #1]!
    8efc:	e2455030 	sub	r5, r5, #48, 0	; 0x30
    8f00:	e2423030 	sub	r3, r2, #48, 0	; 0x30
    8f04:	e3530009 	cmp	r3, #9, 0
    8f08:	9afffff8 	bls	8ef0 <va_printk+0x90>
    8f0c:	e355001f 	cmp	r5, #31, 0
    8f10:	8a00013a 	bhi	9400 <va_printk+0x5a0>
    8f14:	e2423062 	sub	r3, r2, #98, 0	; 0x62
    8f18:	e3530016 	cmp	r3, #22, 0
    8f1c:	979ff103 	ldrls	pc, [pc, r3, lsl #2]
    8f20:	ea00011b 	b	9394 <va_printk+0x534>
    8f24:	000091d8 	ldrdeq	r9, [r0], -r8
    8f28:	000090d4 	ldrdeq	r9, [r0], -r4
    8f2c:	000090cc 	andeq	r9, r0, ip, asr #1
    8f30:	00009394 	muleq	r0, r4, r3
    8f34:	000093d0 	ldrdeq	r9, [r0], -r0
    8f38:	00009394 	muleq	r0, r4, r3
    8f3c:	00009394 	muleq	r0, r4, r3
    8f40:	00009394 	muleq	r0, r4, r3
    8f44:	00009394 	muleq	r0, r4, r3
    8f48:	00009394 	muleq	r0, r4, r3
    8f4c:	00008fdc 	ldrdeq	r8, [r0], -ip
    8f50:	00009394 	muleq	r0, r4, r3
    8f54:	00009394 	muleq	r0, r4, r3
    8f58:	00009394 	muleq	r0, r4, r3
    8f5c:	00008f98 	muleq	r0, r8, pc	; <UNPREDICTABLE>
    8f60:	00009394 	muleq	r0, r4, r3
    8f64:	00009394 	muleq	r0, r4, r3
    8f68:	000092d0 	ldrdeq	r9, [r0], -r0
    8f6c:	00009394 	muleq	r0, r4, r3
    8f70:	000090a8 	andeq	r9, r0, r8, lsr #1
    8f74:	00009394 	muleq	r0, r4, r3
    8f78:	00009394 	muleq	r0, r4, r3
    8f7c:	00008f98 	muleq	r0, r8, pc	; <UNPREDICTABLE>
    8f80:	e59db00c 	ldr	fp, [sp, #12]
    8f84:	e3a03000 	mov	r3, #0, 0
    8f88:	e4c43001 	strb	r3, [r4], #1
    8f8c:	e044000b 	sub	r0, r4, fp
    8f90:	e28ddf47 	add	sp, sp, #284	; 0x11c
    8f94:	e8bd8ff0 	pop	{r4, r5, r6, r7, r8, r9, sl, fp, pc}
    8f98:	e3a01000 	mov	r1, #0, 0
    8f9c:	e1a03005 	mov	r3, r5
    8fa0:	e4982004 	ldr	r2, [r8], #4
    8fa4:	e3a00010 	mov	r0, #16, 0
    8fa8:	e58d1000 	str	r1, [sp]
    8fac:	e28d1018 	add	r1, sp, #24, 0
    8fb0:	ebfffec8 	bl	8ad8 <emit.constprop.0>
    8fb4:	e1a05000 	mov	r5, r0
    8fb8:	e2866001 	add	r6, r6, #1, 0
    8fbc:	e2455001 	sub	r5, r5, #1, 0
    8fc0:	e5f53001 	ldrb	r3, [r5, #1]!
    8fc4:	e3530000 	cmp	r3, #0, 0
    8fc8:	0affffb8 	beq	8eb0 <va_printk+0x50>
    8fcc:	e4c43001 	strb	r3, [r4], #1
    8fd0:	e1570004 	cmp	r7, r4
    8fd4:	8afffff9 	bhi	8fc0 <va_printk+0x160>
    8fd8:	eaffffb4 	b	8eb0 <va_printk+0x50>
    8fdc:	e3a02003 	mov	r2, #3, 0
    8fe0:	e1a00006 	mov	r0, r6
    8fe4:	e59f1460 	ldr	r1, [pc, #1120]	; 944c <va_printk+0x5ec>
    8fe8:	eb00028b 	bl	9a1c <strncmp>
    8fec:	e3500000 	cmp	r0, #0, 0
    8ff0:	0a000005 	beq	900c <va_printk+0x1ac>
    8ff4:	e3a02003 	mov	r2, #3, 0
    8ff8:	e1a00006 	mov	r0, r6
    8ffc:	e59f144c 	ldr	r1, [pc, #1100]	; 9450 <va_printk+0x5f0>
    9000:	eb000285 	bl	9a1c <strncmp>
    9004:	e3500000 	cmp	r0, #0, 0
    9008:	1a00010b 	bne	943c <va_printk+0x5dc>
    900c:	e2888007 	add	r8, r8, #7, 0
    9010:	e3c88007 	bic	r8, r8, #7, 0
    9014:	e598b004 	ldr	fp, [r8, #4]
    9018:	e4989008 	ldr	r9, [r8], #8
    901c:	e1a0100b 	mov	r1, fp
    9020:	e59f042c 	ldr	r0, [pc, #1068]	; 9454 <va_printk+0x5f4>
    9024:	ebfffe78 	bl	8a0c <printk>
    9028:	e1a01009 	mov	r1, r9
    902c:	e59f0424 	ldr	r0, [pc, #1060]	; 9458 <va_printk+0x5f8>
    9030:	ebfffe75 	bl	8a0c <printk>
    9034:	e3a02003 	mov	r2, #3, 0
    9038:	e1a00006 	mov	r0, r6
    903c:	e59f1408 	ldr	r1, [pc, #1032]	; 944c <va_printk+0x5ec>
    9040:	eb000275 	bl	9a1c <strncmp>
    9044:	e2503000 	subs	r3, r0, #0, 0
    9048:	e1a02003 	mov	r2, r3
    904c:	e2863002 	add	r3, r6, #2, 0
    9050:	e58d3014 	str	r3, [sp, #20]
    9054:	1a00009f 	bne	92d8 <va_printk+0x478>
    9058:	e1a06002 	mov	r6, r2
    905c:	e1a03005 	mov	r3, r5
    9060:	e58d2000 	str	r2, [sp]
    9064:	e28d1018 	add	r1, sp, #24, 0
    9068:	e1a0200b 	mov	r2, fp
    906c:	e3a00010 	mov	r0, #16, 0
    9070:	ebfffe98 	bl	8ad8 <emit.constprop.0>
    9074:	e1a0c000 	mov	ip, r0
    9078:	e1a03005 	mov	r3, r5
    907c:	e58d6000 	str	r6, [sp]
    9080:	e28d1098 	add	r1, sp, #152, 0	; 0x98
    9084:	e1a02009 	mov	r2, r9
    9088:	e3a00010 	mov	r0, #16, 0
    908c:	e1a0500c 	mov	r5, ip
    9090:	ebfffe90 	bl	8ad8 <emit.constprop.0>
    9094:	e28d0018 	add	r0, sp, #24, 0
    9098:	e28d109a 	add	r1, sp, #154, 0	; 0x9a
    909c:	e59d6014 	ldr	r6, [sp, #20]
    90a0:	eb00023b 	bl	9994 <strcat>
    90a4:	eaffffc3 	b	8fb8 <va_printk+0x158>
    90a8:	e3a01000 	mov	r1, #0, 0
    90ac:	e1a03005 	mov	r3, r5
    90b0:	e4982004 	ldr	r2, [r8], #4
    90b4:	e3a0000a 	mov	r0, #10, 0
    90b8:	e58d1000 	str	r1, [sp]
    90bc:	e28d1018 	add	r1, sp, #24, 0
    90c0:	ebfffe84 	bl	8ad8 <emit.constprop.0>
    90c4:	e1a05000 	mov	r5, r0
    90c8:	eaffffba 	b	8fb8 <va_printk+0x158>
    90cc:	e3a01001 	mov	r1, #1, 0
    90d0:	eafffff5 	b	90ac <va_printk+0x24c>
    90d4:	e4983004 	ldr	r3, [r8], #4
    90d8:	e3550001 	cmp	r5, #1, 0
    90dc:	e5cd3098 	strb	r3, [sp, #152]	; 0x98
    90e0:	9a0000a6 	bls	9380 <va_printk+0x520>
    90e4:	e2453002 	sub	r3, r5, #2, 0
    90e8:	e3530002 	cmp	r3, #2, 0
    90ec:	e2451001 	sub	r1, r5, #1, 0
    90f0:	9a0000bc 	bls	93e8 <va_printk+0x588>
    90f4:	e59f0360 	ldr	r0, [pc, #864]	; 945c <va_printk+0x5fc>
    90f8:	e1a02121 	lsr	r2, r1, #2
    90fc:	e3520001 	cmp	r2, #1, 0
    9100:	e58d0099 	str	r0, [sp, #153]	; 0x99
    9104:	0a00000e 	beq	9144 <va_printk+0x2e4>
    9108:	e3520002 	cmp	r2, #2, 0
    910c:	e58d009d 	str	r0, [sp, #157]	; 0x9d
    9110:	0a00000b 	beq	9144 <va_printk+0x2e4>
    9114:	e3520003 	cmp	r2, #3, 0
    9118:	e58d00a1 	str	r0, [sp, #161]	; 0xa1
    911c:	0a000008 	beq	9144 <va_printk+0x2e4>
    9120:	e3520004 	cmp	r2, #4, 0
    9124:	e58d00a5 	str	r0, [sp, #165]	; 0xa5
    9128:	0a000005 	beq	9144 <va_printk+0x2e4>
    912c:	e3520005 	cmp	r2, #5, 0
    9130:	e58d00a9 	str	r0, [sp, #169]	; 0xa9
    9134:	0a000002 	beq	9144 <va_printk+0x2e4>
    9138:	e3520007 	cmp	r2, #7, 0
    913c:	e58d00ad 	str	r0, [sp, #173]	; 0xad
    9140:	058d00b1 	streq	r0, [sp, #177]	; 0xb1
    9144:	e3c12003 	bic	r2, r1, #3, 0
    9148:	e1510002 	cmp	r1, r2
    914c:	e28dc099 	add	ip, sp, #153, 0	; 0x99
    9150:	e08c0002 	add	r0, ip, r2
    9154:	e2822001 	add	r2, r2, #1, 0
    9158:	0a000008 	beq	9180 <va_printk+0x320>
    915c:	e3a0e020 	mov	lr, #32, 0
    9160:	e2829001 	add	r9, r2, #1, 0
    9164:	e1550009 	cmp	r5, r9
    9168:	e5c0e000 	strb	lr, [r0]
    916c:	da000003 	ble	9180 <va_printk+0x320>
    9170:	e2822002 	add	r2, r2, #2, 0
    9174:	e1550002 	cmp	r5, r2
    9178:	e5c0e001 	strb	lr, [r0, #1]
    917c:	c5c0e002 	strbgt	lr, [r0, #2]
    9180:	e3a0e000 	mov	lr, #0, 0
    9184:	e28d0098 	add	r0, sp, #152, 0	; 0x98
    9188:	e08c2001 	add	r2, ip, r1
    918c:	e0422000 	sub	r2, r2, r0
    9190:	e352007f 	cmp	r2, #127, 0	; 0x7f
    9194:	c242207f 	subgt	r2, r2, #127, 0	; 0x7f
    9198:	e08c3003 	add	r3, ip, r3
    919c:	c0800002 	addgt	r0, r0, r2
    91a0:	e1530000 	cmp	r3, r0
    91a4:	e7cce001 	strb	lr, [ip, r1]
    91a8:	3a00006c 	bcc	9360 <va_printk+0x500>
    91ac:	e283c001 	add	ip, r3, #1, 0
    91b0:	e1a0300c 	mov	r3, ip
    91b4:	e28d5018 	add	r5, sp, #24, 0
    91b8:	e2452001 	sub	r2, r5, #1, 0
    91bc:	e5731001 	ldrb	r1, [r3, #-1]!
    91c0:	e1500003 	cmp	r0, r3
    91c4:	e5e21001 	strb	r1, [r2, #1]!
    91c8:	1afffffb 	bne	91bc <va_printk+0x35c>
    91cc:	e04c3000 	sub	r3, ip, r0
    91d0:	e0853003 	add	r3, r5, r3
    91d4:	ea00003a 	b	92c4 <va_printk+0x464>
    91d8:	e28d1098 	add	r1, sp, #152, 0	; 0x98
    91dc:	e1a03001 	mov	r3, r1
    91e0:	e4980004 	ldr	r0, [r8], #4
    91e4:	e200c001 	and	ip, r0, #1, 0
    91e8:	e7dac00c 	ldrb	ip, [sl, ip]
    91ec:	e3500001 	cmp	r0, #1, 0
    91f0:	e1a02003 	mov	r2, r3
    91f4:	e1a000a0 	lsr	r0, r0, #1
    91f8:	e4c3c001 	strb	ip, [r3], #1
    91fc:	8afffff8 	bhi	91e4 <va_printk+0x384>
    9200:	e0430001 	sub	r0, r3, r1
    9204:	e1550000 	cmp	r5, r0
    9208:	da000057 	ble	936c <va_printk+0x50c>
    920c:	e045c000 	sub	ip, r5, r0
    9210:	e24ce001 	sub	lr, ip, #1, 0
    9214:	e35e0002 	cmp	lr, #2, 0
    9218:	e1a0e003 	mov	lr, r3
    921c:	9a00000a 	bls	924c <va_printk+0x3ec>
    9220:	e3cc9003 	bic	r9, ip, #3, 0
    9224:	e0899003 	add	r9, r9, r3
    9228:	e59fb22c 	ldr	fp, [pc, #556]	; 945c <va_printk+0x5fc>
    922c:	e48eb004 	str	fp, [lr], #4
    9230:	e15e0009 	cmp	lr, r9
    9234:	1afffffb 	bne	9228 <va_printk+0x3c8>
    9238:	e3cce003 	bic	lr, ip, #3, 0
    923c:	e15e000c 	cmp	lr, ip
    9240:	e080000e 	add	r0, r0, lr
    9244:	e083e00e 	add	lr, r3, lr
    9248:	0a000008 	beq	9270 <va_printk+0x410>
    924c:	e3a09020 	mov	r9, #32, 0
    9250:	e280b001 	add	fp, r0, #1, 0
    9254:	e155000b 	cmp	r5, fp
    9258:	e5ce9000 	strb	r9, [lr]
    925c:	da000003 	ble	9270 <va_printk+0x410>
    9260:	e2800002 	add	r0, r0, #2, 0
    9264:	e1550000 	cmp	r5, r0
    9268:	e5ce9001 	strb	r9, [lr, #1]
    926c:	c5ce9002 	strbgt	r9, [lr, #2]
    9270:	e3a0e000 	mov	lr, #0, 0
    9274:	e083000c 	add	r0, r3, ip
    9278:	e0400001 	sub	r0, r0, r1
    927c:	e350007f 	cmp	r0, #127, 0	; 0x7f
    9280:	e082200c 	add	r2, r2, ip
    9284:	e7c3e00c 	strb	lr, [r3, ip]
    9288:	da000001 	ble	9294 <va_printk+0x434>
    928c:	e240007f 	sub	r0, r0, #127, 0	; 0x7f
    9290:	e0811000 	add	r1, r1, r0
    9294:	e1510002 	cmp	r1, r2
    9298:	8a000030 	bhi	9360 <va_printk+0x500>
    929c:	e2822001 	add	r2, r2, #1, 0
    92a0:	e1a03002 	mov	r3, r2
    92a4:	e28d5018 	add	r5, sp, #24, 0
    92a8:	e245c001 	sub	ip, r5, #1, 0
    92ac:	e5730001 	ldrb	r0, [r3, #-1]!
    92b0:	e1530001 	cmp	r3, r1
    92b4:	e5ec0001 	strb	r0, [ip, #1]!
    92b8:	1afffffb 	bne	92ac <va_printk+0x44c>
    92bc:	e0423003 	sub	r3, r2, r3
    92c0:	e0853003 	add	r3, r5, r3
    92c4:	e3a02000 	mov	r2, #0, 0
    92c8:	e5c32000 	strb	r2, [r3]
    92cc:	eaffff39 	b	8fb8 <va_printk+0x158>
    92d0:	e4985004 	ldr	r5, [r8], #4
    92d4:	eaffff37 	b	8fb8 <va_printk+0x158>
    92d8:	e3a02003 	mov	r2, #3, 0
    92dc:	e1a00006 	mov	r0, r6
    92e0:	e59f1168 	ldr	r1, [pc, #360]	; 9450 <va_printk+0x5f0>
    92e4:	eb0001cc 	bl	9a1c <strncmp>
    92e8:	e2503000 	subs	r3, r0, #0, 0
    92ec:	1a00004b 	bne	9420 <va_printk+0x5c0>
    92f0:	e1a06003 	mov	r6, r3
    92f4:	e1a0200b 	mov	r2, fp
    92f8:	e58d3000 	str	r3, [sp]
    92fc:	e28d1018 	add	r1, sp, #24, 0
    9300:	e1a03005 	mov	r3, r5
    9304:	e3a0000a 	mov	r0, #10, 0
    9308:	ebfffdf2 	bl	8ad8 <emit.constprop.0>
    930c:	e1a0c000 	mov	ip, r0
    9310:	e1a03005 	mov	r3, r5
    9314:	e1a02009 	mov	r2, r9
    9318:	e28d1098 	add	r1, sp, #152, 0	; 0x98
    931c:	e3a0000a 	mov	r0, #10, 0
    9320:	e58d6000 	str	r6, [sp]
    9324:	e1a0500c 	mov	r5, ip
    9328:	ebfffdea 	bl	8ad8 <emit.constprop.0>
    932c:	e59f112c 	ldr	r1, [pc, #300]	; 9460 <va_printk+0x600>
    9330:	e28d0018 	add	r0, sp, #24, 0
    9334:	eb0001a1 	bl	99c0 <strcmp>
    9338:	e3500000 	cmp	r0, #0, 0
    933c:	e28d1098 	add	r1, sp, #152, 0	; 0x98
    9340:	e28d0018 	add	r0, sp, #24, 0
    9344:	1a000002 	bne	9354 <va_printk+0x4f4>
    9348:	eb0001ad 	bl	9a04 <strcpy>
    934c:	e59d6014 	ldr	r6, [sp, #20]
    9350:	eaffff18 	b	8fb8 <va_printk+0x158>
    9354:	eb00018e 	bl	9994 <strcat>
    9358:	e59d6014 	ldr	r6, [sp, #20]
    935c:	eaffff15 	b	8fb8 <va_printk+0x158>
    9360:	e28d5018 	add	r5, sp, #24, 0
    9364:	e1a03005 	mov	r3, r5
    9368:	eaffffd5 	b	92c4 <va_printk+0x464>
    936c:	e3a0c000 	mov	ip, #0, 0
    9370:	e350007f 	cmp	r0, #127, 0	; 0x7f
    9374:	e5c3c000 	strb	ip, [r3]
    9378:	caffffc3 	bgt	928c <va_printk+0x42c>
    937c:	eaffffc6 	b	929c <va_printk+0x43c>
    9380:	e3a02000 	mov	r2, #0, 0
    9384:	e28d3098 	add	r3, sp, #152, 0	; 0x98
    9388:	e1a00003 	mov	r0, r3
    938c:	e5cd2099 	strb	r2, [sp, #153]	; 0x99
    9390:	eaffff85 	b	91ac <va_printk+0x34c>
    9394:	e3a03000 	mov	r3, #0, 0
    9398:	e1a01002 	mov	r1, r2
    939c:	e5c63001 	strb	r3, [r6, #1]
    93a0:	e59f00bc 	ldr	r0, [pc, #188]	; 9464 <va_printk+0x604>
    93a4:	ebfffd98 	bl	8a0c <printk>
    93a8:	e59f30b8 	ldr	r3, [pc, #184]	; 9468 <va_printk+0x608>
    93ac:	e59d0010 	ldr	r0, [sp, #16]
    93b0:	e5933000 	ldr	r3, [r3]
    93b4:	e12fff33 	blx	r3
    93b8:	e3a030e2 	mov	r3, #226, 0	; 0xe2
    93bc:	e59f20a8 	ldr	r2, [pc, #168]	; 946c <va_printk+0x60c>
    93c0:	e59f10a8 	ldr	r1, [pc, #168]	; 9470 <va_printk+0x610>
    93c4:	e59f00a8 	ldr	r0, [pc, #168]	; 9474 <va_printk+0x614>
    93c8:	ebfffd8f 	bl	8a0c <printk>
    93cc:	eb00002e 	bl	948c <clean_reboot>
    93d0:	e3a030be 	mov	r3, #190, 0	; 0xbe
    93d4:	e59f2090 	ldr	r2, [pc, #144]	; 946c <va_printk+0x60c>
    93d8:	e59f1090 	ldr	r1, [pc, #144]	; 9470 <va_printk+0x610>
    93dc:	e59f0094 	ldr	r0, [pc, #148]	; 9478 <va_printk+0x618>
    93e0:	ebfffd89 	bl	8a0c <printk>
    93e4:	eb000028 	bl	948c <clean_reboot>
    93e8:	e28dc099 	add	ip, sp, #153, 0	; 0x99
    93ec:	e1a0000c 	mov	r0, ip
    93f0:	e3a02001 	mov	r2, #1, 0
    93f4:	eaffff58 	b	915c <va_printk+0x2fc>
    93f8:	e1a0400b 	mov	r4, fp
    93fc:	eafffee0 	b	8f84 <va_printk+0x124>
    9400:	e3a03098 	mov	r3, #152, 0	; 0x98
    9404:	e59f2070 	ldr	r2, [pc, #112]	; 947c <va_printk+0x61c>
    9408:	e59f1060 	ldr	r1, [pc, #96]	; 9470 <va_printk+0x610>
    940c:	e58d2000 	str	r2, [sp]
    9410:	e59f0068 	ldr	r0, [pc, #104]	; 9480 <va_printk+0x620>
    9414:	e59f2050 	ldr	r2, [pc, #80]	; 946c <va_printk+0x60c>
    9418:	ebfffd7b 	bl	8a0c <printk>
    941c:	eb00001a 	bl	948c <clean_reboot>
    9420:	e3a030b6 	mov	r3, #182, 0	; 0xb6
    9424:	e59f2040 	ldr	r2, [pc, #64]	; 946c <va_printk+0x60c>
    9428:	e59f1040 	ldr	r1, [pc, #64]	; 9470 <va_printk+0x610>
    942c:	e59f0050 	ldr	r0, [pc, #80]	; 9484 <va_printk+0x624>
    9430:	e58d6000 	str	r6, [sp]
    9434:	ebfffd74 	bl	8a0c <printk>
    9438:	eb000013 	bl	948c <clean_reboot>
    943c:	e3a0309f 	mov	r3, #159, 0	; 0x9f
    9440:	e59f2040 	ldr	r2, [pc, #64]	; 9488 <va_printk+0x628>
    9444:	eaffffef 	b	9408 <va_printk+0x5a8>
    9448:	00009ce4 	andeq	r9, r0, r4, ror #25
    944c:	00009d08 	andeq	r9, r0, r8, lsl #26
    9450:	00009d1c 	andeq	r9, r0, ip, lsl sp
    9454:	00009d0c 	andeq	r9, r0, ip, lsl #26
    9458:	00009d14 	andeq	r9, r0, r4, lsl sp
    945c:	20202020 	eorcs	r2, r0, r0, lsr #32
    9460:	00009c7c 	andeq	r9, r0, ip, ror ip
    9464:	00009dac 	andeq	r9, r0, ip, lsr #27
    9468:	00009e4c 	andeq	r9, r0, ip, asr #28
    946c:	00009e14 	andeq	r9, r0, r4, lsl lr
    9470:	00009cbc 			; <UNDEFINED> instruction: 0x00009cbc
    9474:	00009ddc 	ldrdeq	r9, [r0], -ip
    9478:	00009d84 	andeq	r9, r0, r4, lsl #27
    947c:	00009cfc 	strdeq	r9, [r0], -ip
    9480:	00009c00 	andeq	r9, r0, r0, lsl #24
    9484:	00009d5c 	andeq	r9, r0, ip, asr sp
    9488:	00009d20 	andeq	r9, r0, r0, lsr #26

0000948c <clean_reboot>:
    948c:	e59f301c 	ldr	r3, [pc, #28]	; 94b0 <clean_reboot+0x24>
    9490:	e92d4010 	push	{r4, lr}
    9494:	e5933000 	ldr	r3, [r3]
    9498:	e59f0014 	ldr	r0, [pc, #20]	; 94b4 <clean_reboot+0x28>
    949c:	e12fff33 	blx	r3
    94a0:	eb00012d 	bl	995c <uart_flush_tx>
    94a4:	e3a0000a 	mov	r0, #10, 0
    94a8:	eb000094 	bl	9700 <delay_ms>
    94ac:	eb00005d 	bl	9628 <rpi_reboot>
    94b0:	00009e4c 	andeq	r9, r0, ip, asr #28
    94b4:	00009e20 	andeq	r9, r0, r0, lsr #28

000094b8 <_cstart>:
    94b8:	e92d4070 	push	{r4, r5, r6, lr}
    94bc:	eb000047 	bl	95e0 <custom_loader>
    94c0:	e59f2108 	ldr	r2, [pc, #264]	; 95d0 <_cstart+0x118>
    94c4:	e59fc108 	ldr	ip, [pc, #264]	; 95d4 <_cstart+0x11c>
    94c8:	e152000c 	cmp	r2, ip
    94cc:	2a00002e 	bcs	958c <_cstart+0xd4>
    94d0:	e24c1001 	sub	r1, ip, #1, 0
    94d4:	e0411002 	sub	r1, r1, r2
    94d8:	e3510017 	cmp	r1, #23, 0
    94dc:	e1a03122 	lsr	r3, r2, #2
    94e0:	e1a01121 	lsr	r1, r1, #2
    94e4:	e2811001 	add	r1, r1, #1, 0
    94e8:	e2033001 	and	r3, r3, #1, 0
    94ec:	9a000035 	bls	95c8 <_cstart+0x110>
    94f0:	e3530000 	cmp	r3, #0, 0
    94f4:	11a00002 	movne	r0, r2
    94f8:	13a0e000 	movne	lr, #0, 0
    94fc:	e3a04000 	mov	r4, #0, 0
    9500:	e3a05000 	mov	r5, #0, 0
    9504:	e0411003 	sub	r1, r1, r3
    9508:	01a00002 	moveq	r0, r2
    950c:	e0823103 	add	r3, r2, r3, lsl #2
    9510:	e1a020a1 	lsr	r2, r1, #1
    9514:	1480e004 	strne	lr, [r0], #4
    9518:	e0832182 	add	r2, r3, r2, lsl #3
    951c:	e0c340f8 	strd	r4, [r3], #8
    9520:	e1520003 	cmp	r2, r3
    9524:	1afffffc 	bne	951c <_cstart+0x64>
    9528:	e3c13001 	bic	r3, r1, #1, 0
    952c:	e1510003 	cmp	r1, r3
    9530:	e0803103 	add	r3, r0, r3, lsl #2
    9534:	0a000014 	beq	958c <_cstart+0xd4>
    9538:	e1a01003 	mov	r1, r3
    953c:	e3a02000 	mov	r2, #0, 0
    9540:	e4812004 	str	r2, [r1], #4
    9544:	e151000c 	cmp	r1, ip
    9548:	2a00000f 	bcs	958c <_cstart+0xd4>
    954c:	e2831008 	add	r1, r3, #8, 0
    9550:	e151000c 	cmp	r1, ip
    9554:	e5832004 	str	r2, [r3, #4]
    9558:	2a00000b 	bcs	958c <_cstart+0xd4>
    955c:	e283100c 	add	r1, r3, #12, 0
    9560:	e151000c 	cmp	r1, ip
    9564:	e5832008 	str	r2, [r3, #8]
    9568:	2a000007 	bcs	958c <_cstart+0xd4>
    956c:	e2831010 	add	r1, r3, #16, 0
    9570:	e151000c 	cmp	r1, ip
    9574:	e583200c 	str	r2, [r3, #12]
    9578:	2a000003 	bcs	958c <_cstart+0xd4>
    957c:	e2831014 	add	r1, r3, #20, 0
    9580:	e151000c 	cmp	r1, ip
    9584:	e5832010 	str	r2, [r3, #16]
    9588:	35832014 	strcc	r2, [r3, #20]
    958c:	eb000094 	bl	97e4 <uart_init>
    9590:	e3a03001 	mov	r3, #1, 0
    9594:	ee0f3f1c 	mcr	15, 0, r3, cr15, cr12, {0}
    9598:	ee1f3f3c 	mrc	15, 0, r3, cr15, cr12, {1}
    959c:	e59f4034 	ldr	r4, [pc, #52]	; 95d8 <_cstart+0x120>
    95a0:	e5843000 	str	r3, [r4]
    95a4:	ebfffaa3 	bl	8038 <notmain>
    95a8:	ee1f3f3c 	mrc	15, 0, r3, cr15, cr12, {1}
    95ac:	e5941000 	ldr	r1, [r4]
    95b0:	e59f0024 	ldr	r0, [pc, #36]	; 95dc <_cstart+0x124>
    95b4:	e3510000 	cmp	r1, #0, 0
    95b8:	10431001 	subne	r1, r3, r1
    95bc:	e5843000 	str	r3, [r4]
    95c0:	ebfffd11 	bl	8a0c <printk>
    95c4:	ebffffb0 	bl	948c <clean_reboot>
    95c8:	e1a03002 	mov	r3, r2
    95cc:	eaffffd9 	b	9538 <_cstart+0x80>
    95d0:	00009e50 	andeq	r9, r0, r0, asr lr
    95d4:	0000a258 	andeq	sl, r0, r8, asr r2
    95d8:	0000a254 	andeq	sl, r0, r4, asr r2
    95dc:	00009e2c 	andeq	r9, r0, ip, lsr #28

000095e0 <custom_loader>:
    95e0:	e12fff1e 	bx	lr

000095e4 <dev_barrier>:
    95e4:	ea000002 	b	95f4 <dsb>

000095e8 <dmb>:
    95e8:	e3a00000 	mov	r0, #0, 0
    95ec:	ee070fba 	mcr	15, 0, r0, cr7, cr10, {5}
    95f0:	e12fff1e 	bx	lr

000095f4 <dsb>:
    95f4:	ee070f9a 	mcr	15, 0, r0, cr7, cr10, {4}
    95f8:	e12fff1e 	bx	lr

000095fc <at_user_level>:
    95fc:	e10f0000 	mrs	r0, CPSR
    9600:	e200001f 	and	r0, r0, #31, 0
    9604:	e2400010 	sub	r0, r0, #16, 0
    9608:	e16f0f10 	clz	r0, r0
    960c:	e1a002a0 	lsr	r0, r0, #5
    9610:	e12fff1e 	bx	lr

00009614 <set_user_level>:
    9614:	e10f3000 	mrs	r3, CPSR
    9618:	e3c3301f 	bic	r3, r3, #31, 0
    961c:	e3833010 	orr	r3, r3, #16, 0
    9620:	e129f003 	msr	CPSR_fc, r3
    9624:	e12fff1e 	bx	lr

00009628 <rpi_reboot>:
    9628:	e92d4010 	push	{r4, lr}
    962c:	e10f3000 	mrs	r3, CPSR
    9630:	e203301f 	and	r3, r3, #31, 0
    9634:	e3530010 	cmp	r3, #16, 0
    9638:	1a000003 	bne	964c <rpi_reboot+0x24>
    963c:	e10f3000 	mrs	r3, CPSR
    9640:	e3c3301f 	bic	r3, r3, #31, 0
    9644:	e3833010 	orr	r3, r3, #16, 0
    9648:	e129f003 	msr	CPSR_fc, r3
    964c:	eb0000fe 	bl	9a4c <reboot_callout>
    9650:	eb0000c1 	bl	995c <uart_flush_tx>
    9654:	e3a0000a 	mov	r0, #10, 0
    9658:	eb000028 	bl	9700 <delay_ms>
    965c:	e59f1014 	ldr	r1, [pc, #20]	; 9678 <rpi_reboot+0x50>
    9660:	e59f0014 	ldr	r0, [pc, #20]	; 967c <rpi_reboot+0x54>
    9664:	ebfffa6e 	bl	8024 <PUT32>
    9668:	e59f1010 	ldr	r1, [pc, #16]	; 9680 <rpi_reboot+0x58>
    966c:	e59f0010 	ldr	r0, [pc, #16]	; 9684 <rpi_reboot+0x5c>
    9670:	ebfffa6b 	bl	8024 <PUT32>
    9674:	eafffffe 	b	9674 <rpi_reboot+0x4c>
    9678:	5a000001 	bpl	9684 <rpi_reboot+0x5c>
    967c:	20100024 	andscs	r0, r0, r4, lsr #32
    9680:	5a000020 	bpl	9708 <delay_ms+0x8>
    9684:	2010001c 	andscs	r0, r0, ip, lsl r0

00009688 <timer_get_usec_raw>:
    9688:	e59f0000 	ldr	r0, [pc]	; 9690 <timer_get_usec_raw+0x8>
    968c:	eafffa66 	b	802c <GET32>
    9690:	20003004 	andcs	r3, r0, r4

00009694 <timer_get_usec>:
    9694:	e92d4010 	push	{r4, lr}
    9698:	ebffffd1 	bl	95e4 <dev_barrier>
    969c:	e59f0010 	ldr	r0, [pc, #16]	; 96b4 <timer_get_usec+0x20>
    96a0:	ebfffa61 	bl	802c <GET32>
    96a4:	e1a04000 	mov	r4, r0
    96a8:	ebffffcd 	bl	95e4 <dev_barrier>
    96ac:	e1a00004 	mov	r0, r4
    96b0:	e8bd8010 	pop	{r4, pc}
    96b4:	20003004 	andcs	r3, r0, r4

000096b8 <delay_us>:
    96b8:	e92d41f0 	push	{r4, r5, r6, r7, r8, lr}
    96bc:	e1a06000 	mov	r6, r0
    96c0:	ebffffc7 	bl	95e4 <dev_barrier>
    96c4:	e59f0030 	ldr	r0, [pc, #48]	; 96fc <delay_us+0x44>
    96c8:	ebfffa57 	bl	802c <GET32>
    96cc:	e1a05000 	mov	r5, r0
    96d0:	ebffffc3 	bl	95e4 <dev_barrier>
    96d4:	e59f7020 	ldr	r7, [pc, #32]	; 96fc <delay_us+0x44>
    96d8:	ebffffc1 	bl	95e4 <dev_barrier>
    96dc:	e1a00007 	mov	r0, r7
    96e0:	ebfffa51 	bl	802c <GET32>
    96e4:	e1a04000 	mov	r4, r0
    96e8:	e0444005 	sub	r4, r4, r5
    96ec:	ebffffbc 	bl	95e4 <dev_barrier>
    96f0:	e1540006 	cmp	r4, r6
    96f4:	3afffff7 	bcc	96d8 <delay_us+0x20>
    96f8:	e8bd81f0 	pop	{r4, r5, r6, r7, r8, pc}
    96fc:	20003004 	andcs	r3, r0, r4

00009700 <delay_ms>:
    9700:	e92d41f0 	push	{r4, r5, r6, r7, r8, lr}
    9704:	e0604280 	rsb	r4, r0, r0, lsl #5
    9708:	e0800104 	add	r0, r0, r4, lsl #2
    970c:	e1a04180 	lsl	r4, r0, #3
    9710:	ebffffb3 	bl	95e4 <dev_barrier>
    9714:	e59f0030 	ldr	r0, [pc, #48]	; 974c <delay_ms+0x4c>
    9718:	ebfffa43 	bl	802c <GET32>
    971c:	e1a06000 	mov	r6, r0
    9720:	ebffffaf 	bl	95e4 <dev_barrier>
    9724:	e59f7020 	ldr	r7, [pc, #32]	; 974c <delay_ms+0x4c>
    9728:	ebffffad 	bl	95e4 <dev_barrier>
    972c:	e1a00007 	mov	r0, r7
    9730:	ebfffa3d 	bl	802c <GET32>
    9734:	e1a05000 	mov	r5, r0
    9738:	e0455006 	sub	r5, r5, r6
    973c:	ebffffa8 	bl	95e4 <dev_barrier>
    9740:	e1540005 	cmp	r4, r5
    9744:	8afffff7 	bhi	9728 <delay_ms+0x28>
    9748:	e8bd81f0 	pop	{r4, r5, r6, r7, r8, pc}
    974c:	20003004 	andcs	r3, r0, r4

00009750 <delay_sec>:
    9750:	e92d41f0 	push	{r4, r5, r6, r7, r8, lr}
    9754:	e0604280 	rsb	r4, r0, r0, lsl #5
    9758:	e0644304 	rsb	r4, r4, r4, lsl #6
    975c:	e0800184 	add	r0, r0, r4, lsl #3
    9760:	e1a04300 	lsl	r4, r0, #6
    9764:	ebffff9e 	bl	95e4 <dev_barrier>
    9768:	e59f0030 	ldr	r0, [pc, #48]	; 97a0 <delay_sec+0x50>
    976c:	ebfffa2e 	bl	802c <GET32>
    9770:	e1a06000 	mov	r6, r0
    9774:	ebffff9a 	bl	95e4 <dev_barrier>
    9778:	e59f7020 	ldr	r7, [pc, #32]	; 97a0 <delay_sec+0x50>
    977c:	ebffff98 	bl	95e4 <dev_barrier>
    9780:	e1a00007 	mov	r0, r7
    9784:	ebfffa28 	bl	802c <GET32>
    9788:	e1a05000 	mov	r5, r0
    978c:	e0455006 	sub	r5, r5, r6
    9790:	ebffff93 	bl	95e4 <dev_barrier>
    9794:	e1540005 	cmp	r4, r5
    9798:	8afffff7 	bhi	977c <delay_sec+0x2c>
    979c:	e8bd81f0 	pop	{r4, r5, r6, r7, r8, pc}
    97a0:	20003004 	andcs	r3, r0, r4

000097a4 <and_in32>:
    97a4:	e92d4070 	push	{r4, r5, r6, lr}
    97a8:	e1a04000 	mov	r4, r0
    97ac:	e1a05001 	mov	r5, r1
    97b0:	ebfffa1d 	bl	802c <GET32>
    97b4:	e0001005 	and	r1, r0, r5
    97b8:	e1a00004 	mov	r0, r4
    97bc:	ebfffa18 	bl	8024 <PUT32>
    97c0:	e8bd8070 	pop	{r4, r5, r6, pc}

000097c4 <or_in32>:
    97c4:	e92d4070 	push	{r4, r5, r6, lr}
    97c8:	e1a04000 	mov	r4, r0
    97cc:	e1a05001 	mov	r5, r1
    97d0:	ebfffa15 	bl	802c <GET32>
    97d4:	e1801005 	orr	r1, r0, r5
    97d8:	e1a00004 	mov	r0, r4
    97dc:	ebfffa10 	bl	8024 <PUT32>
    97e0:	e8bd8070 	pop	{r4, r5, r6, pc}

000097e4 <uart_init>:
    97e4:	e92d4010 	push	{r4, lr}
    97e8:	e3a01002 	mov	r1, #2, 0
    97ec:	e3a0000e 	mov	r0, #14, 0
    97f0:	ebfffc1f 	bl	8874 <gpio_set_function>
    97f4:	e3a01002 	mov	r1, #2, 0
    97f8:	e3a0000f 	mov	r0, #15, 0
    97fc:	ebfffc1c 	bl	8874 <gpio_set_function>
    9800:	ebffff77 	bl	95e4 <dev_barrier>
    9804:	e3a01001 	mov	r1, #1, 0
    9808:	e59f0064 	ldr	r0, [pc, #100]	; 9874 <uart_init+0x90>
    980c:	ebffffec 	bl	97c4 <or_in32>
    9810:	ebffff73 	bl	95e4 <dev_barrier>
    9814:	e59f405c 	ldr	r4, [pc, #92]	; 9878 <uart_init+0x94>
    9818:	e3a01000 	mov	r1, #0, 0
    981c:	e1a00004 	mov	r0, r4
    9820:	ebfff9ff 	bl	8024 <PUT32>
    9824:	e3a01000 	mov	r1, #0, 0
    9828:	e59f004c 	ldr	r0, [pc, #76]	; 987c <uart_init+0x98>
    982c:	ebfff9fc 	bl	8024 <PUT32>
    9830:	e3a01003 	mov	r1, #3, 0
    9834:	e59f0044 	ldr	r0, [pc, #68]	; 9880 <uart_init+0x9c>
    9838:	ebfff9f9 	bl	8024 <PUT32>
    983c:	e3a01000 	mov	r1, #0, 0
    9840:	e59f003c 	ldr	r0, [pc, #60]	; 9884 <uart_init+0xa0>
    9844:	ebfff9f6 	bl	8024 <PUT32>
    9848:	e3a010c7 	mov	r1, #199, 0	; 0xc7
    984c:	e59f0034 	ldr	r0, [pc, #52]	; 9888 <uart_init+0xa4>
    9850:	ebfff9f3 	bl	8024 <PUT32>
    9854:	e59f1030 	ldr	r1, [pc, #48]	; 988c <uart_init+0xa8>
    9858:	e59f0030 	ldr	r0, [pc, #48]	; 9890 <uart_init+0xac>
    985c:	ebfff9f0 	bl	8024 <PUT32>
    9860:	e3a01003 	mov	r1, #3, 0
    9864:	e1a00004 	mov	r0, r4
    9868:	ebfff9ed 	bl	8024 <PUT32>
    986c:	ebffff5c 	bl	95e4 <dev_barrier>
    9870:	e8bd8010 	pop	{r4, pc}
    9874:	20215004 	eorcs	r5, r1, r4
    9878:	20215060 	eorcs	r5, r1, r0, rrx
    987c:	20215044 	eorcs	r5, r1, r4, asr #32
    9880:	2021504c 	eorcs	r5, r1, ip, asr #32
    9884:	20215050 	eorcs	r5, r1, r0, asr r0
    9888:	20215048 	eorcs	r5, r1, r8, asr #32
    988c:	0000010e 	andeq	r0, r0, lr, lsl #2
    9890:	20215068 	eorcs	r5, r1, r8, rrx

00009894 <uart_can_getc>:
    9894:	e92d4010 	push	{r4, lr}
    9898:	e59f0008 	ldr	r0, [pc, #8]	; 98a8 <uart_can_getc+0x14>
    989c:	ebfff9e2 	bl	802c <GET32>
    98a0:	e2000001 	and	r0, r0, #1, 0
    98a4:	e8bd8010 	pop	{r4, pc}
    98a8:	20215064 	eorcs	r5, r1, r4, rrx

000098ac <uart_can_putc>:
    98ac:	e92d4010 	push	{r4, lr}
    98b0:	e59f0010 	ldr	r0, [pc, #16]	; 98c8 <uart_can_putc+0x1c>
    98b4:	ebfff9dc 	bl	802c <GET32>
    98b8:	e3100002 	tst	r0, #2, 0
    98bc:	13a00001 	movne	r0, #1, 0
    98c0:	03a00000 	moveq	r0, #0, 0
    98c4:	e8bd8010 	pop	{r4, pc}
    98c8:	20215064 	eorcs	r5, r1, r4, rrx

000098cc <uart_getc>:
    98cc:	e92d4010 	push	{r4, lr}
    98d0:	ebffff43 	bl	95e4 <dev_barrier>
    98d4:	ebffffee 	bl	9894 <uart_can_getc>
    98d8:	e3500000 	cmp	r0, #0, 0
    98dc:	0afffffc 	beq	98d4 <uart_getc+0x8>
    98e0:	e59f0010 	ldr	r0, [pc, #16]	; 98f8 <uart_getc+0x2c>
    98e4:	ebfff9d0 	bl	802c <GET32>
    98e8:	e6ef4070 	uxtb	r4, r0
    98ec:	ebffff3c 	bl	95e4 <dev_barrier>
    98f0:	e1a00004 	mov	r0, r4
    98f4:	e8bd8010 	pop	{r4, pc}
    98f8:	20215040 	eorcs	r5, r1, r0, asr #32

000098fc <uart_putc>:
    98fc:	e92d4010 	push	{r4, lr}
    9900:	e1a04000 	mov	r4, r0
    9904:	ebffff36 	bl	95e4 <dev_barrier>
    9908:	ebffffe7 	bl	98ac <uart_can_putc>
    990c:	e3500000 	cmp	r0, #0, 0
    9910:	0afffffc 	beq	9908 <uart_putc+0xc>
    9914:	e6ef1074 	uxtb	r1, r4
    9918:	e59f0008 	ldr	r0, [pc, #8]	; 9928 <uart_putc+0x2c>
    991c:	ebfff9c0 	bl	8024 <PUT32>
    9920:	ebffff2f 	bl	95e4 <dev_barrier>
    9924:	e8bd8010 	pop	{r4, pc}
    9928:	20215040 	eorcs	r5, r1, r0, asr #32

0000992c <uart_has_data>:
    992c:	e92d4010 	push	{r4, lr}
    9930:	ebffff2b 	bl	95e4 <dev_barrier>
    9934:	ebffffd6 	bl	9894 <uart_can_getc>
    9938:	e8bd8010 	pop	{r4, pc}

0000993c <uart_tx_is_empty>:
    993c:	e92d4010 	push	{r4, lr}
    9940:	ebffff27 	bl	95e4 <dev_barrier>
    9944:	e59f000c 	ldr	r0, [pc, #12]	; 9958 <uart_tx_is_empty+0x1c>
    9948:	ebfff9b7 	bl	802c <GET32>
    994c:	e1a004a0 	lsr	r0, r0, #9
    9950:	e2000001 	and	r0, r0, #1, 0
    9954:	e8bd8010 	pop	{r4, pc}
    9958:	20215064 	eorcs	r5, r1, r4, rrx

0000995c <uart_flush_tx>:
    995c:	e92d4010 	push	{r4, lr}
    9960:	ebfffff5 	bl	993c <uart_tx_is_empty>
    9964:	e3500000 	cmp	r0, #0, 0
    9968:	0afffffc 	beq	9960 <uart_flush_tx+0x4>
    996c:	e8bd8010 	pop	{r4, pc}

00009970 <uart_disable>:
    9970:	e92d4010 	push	{r4, lr}
    9974:	ebfffff8 	bl	995c <uart_flush_tx>
    9978:	ebffff19 	bl	95e4 <dev_barrier>
    997c:	e3e01001 	mvn	r1, #1, 0
    9980:	e59f0008 	ldr	r0, [pc, #8]	; 9990 <uart_disable+0x20>
    9984:	ebffff86 	bl	97a4 <and_in32>
    9988:	ebffff15 	bl	95e4 <dev_barrier>
    998c:	e8bd8010 	pop	{r4, pc}
    9990:	20215004 	eorcs	r5, r1, r4

00009994 <strcat>:
    9994:	e1a02000 	mov	r2, r0
    9998:	e1a03002 	mov	r3, r2
    999c:	e4d2c001 	ldrb	ip, [r2], #1
    99a0:	e35c0000 	cmp	ip, #0, 0
    99a4:	1afffffb 	bne	9998 <strcat+0x4>
    99a8:	e2433001 	sub	r3, r3, #1, 0
    99ac:	e4d12001 	ldrb	r2, [r1], #1
    99b0:	e3520000 	cmp	r2, #0, 0
    99b4:	e5e32001 	strb	r2, [r3, #1]!
    99b8:	1afffffb 	bne	99ac <strcat+0x18>
    99bc:	e12fff1e 	bx	lr

000099c0 <strcmp>:
    99c0:	e5d03000 	ldrb	r3, [r0]
    99c4:	e3530000 	cmp	r3, #0, 0
    99c8:	05d12000 	ldrbeq	r2, [r1]
    99cc:	1a000003 	bne	99e0 <strcmp+0x20>
    99d0:	ea000006 	b	99f0 <strcmp+0x30>
    99d4:	e5f03001 	ldrb	r3, [r0, #1]!
    99d8:	e3530000 	cmp	r3, #0, 0
    99dc:	0a000005 	beq	99f8 <strcmp+0x38>
    99e0:	e1a0c001 	mov	ip, r1
    99e4:	e4d12001 	ldrb	r2, [r1], #1
    99e8:	e1520003 	cmp	r2, r3
    99ec:	0afffff8 	beq	99d4 <strcmp+0x14>
    99f0:	e0430002 	sub	r0, r3, r2
    99f4:	e12fff1e 	bx	lr
    99f8:	e5dc2001 	ldrb	r2, [ip, #1]
    99fc:	e0430002 	sub	r0, r3, r2
    9a00:	e12fff1e 	bx	lr

00009a04 <strcpy>:
    9a04:	e2402001 	sub	r2, r0, #1, 0
    9a08:	e4d13001 	ldrb	r3, [r1], #1
    9a0c:	e3530000 	cmp	r3, #0, 0
    9a10:	e5e23001 	strb	r3, [r2, #1]!
    9a14:	1afffffb 	bne	9a08 <strcpy+0x4>
    9a18:	e12fff1e 	bx	lr

00009a1c <strncmp>:
    9a1c:	e0802002 	add	r2, r0, r2
    9a20:	ea000003 	b	9a34 <strncmp+0x18>
    9a24:	e4d03001 	ldrb	r3, [r0], #1
    9a28:	e4d1c001 	ldrb	ip, [r1], #1
    9a2c:	e153000c 	cmp	r3, ip
    9a30:	1a000003 	bne	9a44 <strncmp+0x28>
    9a34:	e1500002 	cmp	r0, r2
    9a38:	1afffff9 	bne	9a24 <strncmp+0x8>
    9a3c:	e3a00000 	mov	r0, #0, 0
    9a40:	e12fff1e 	bx	lr
    9a44:	e043000c 	sub	r0, r3, ip
    9a48:	e12fff1e 	bx	lr

00009a4c <reboot_callout>:
    9a4c:	e12fff1e 	bx	lr

Disassembly of section .rodata:

00009a50 <__FUNCTION__.4073-0x140>:
    9a50:	00000023 	andeq	r0, r0, r3, lsr #32
    9a54:	74696e69 	strbtvc	r6, [r9], #-3689	; 0xfffff197
    9a58:	3a6c6169 	bcc	1b22004 <__bss_end__+0x1b17dac>
    9a5c:	6e6f6320 	cdpvs	3, 6, cr6, cr15, cr0, {1}
    9a60:	20676966 	rsbcs	r6, r7, r6, ror #18
    9a64:	20676572 	rsbcs	r6, r7, r2, ror r5
    9a68:	253d203d 	ldrcs	r2, [sp, #-61]!	; 0xffffffc3
    9a6c:	6c282078 	stcvs	0, cr2, [r8], #-480	; 0xfffffe20
    9a70:	62253d6f 	eorvs	r3, r5, #7104	; 0x1bc0
    9a74:	3d69682c 	stclcc	8, cr6, [r9, #-176]!	; 0xffffff50
    9a78:	0a296225 	beq	a62314 <__bss_end__+0xa580bc>
    9a7c:	00000000 	andeq	r0, r0, r0
    9a80:	31736461 	cmncc	r3, r1, ror #8
    9a84:	2e353131 	mrccs	1, 1, r3, cr5, cr1, {1}
    9a88:	00000063 	andeq	r0, r0, r3, rrx
    9a8c:	4f525245 	svcmi	0x00525245
    9a90:	73253a52 			; <UNDEFINED> instruction: 0x73253a52
    9a94:	3a73253a 	bcc	1cd2f84 <__bss_end__+0x1cc8d2c>
    9a98:	203a6425 	eorscs	r6, sl, r5, lsr #8
    9a9c:	534c4146 	movtpl	r4, #49478	; 0xc146
    9aa0:	253c2845 	ldrcs	r2, [ip, #-2117]!	; 0xfffff7bb
    9aa4:	3a293e73 	bcc	a59478 <__bss_end__+0xa4f220>
    9aa8:	61622220 	cmnvs	r2, r0, lsr #4
    9aac:	6e692064 	cdpvs	0, 6, cr2, cr9, cr4, {3}
    9ab0:	61697469 	cmnvs	r9, r9, ror #8
    9ab4:	6f63206c 	svcvs	0x0063206c
    9ab8:	6769666e 	strbvs	r6, [r9, -lr, ror #12]!
    9abc:	00000a22 	andeq	r0, r0, r2, lsr #20
    9ac0:	5f746962 	svcpl	0x00746962
    9ac4:	6f5f7369 	svcvs	0x005f7369
    9ac8:	2c63286e 	stclcs	8, cr2, [r3], #-440	; 0xfffffe48
    9acc:	00293820 	eoreq	r3, r9, r0, lsr #16
    9ad0:	73746962 	cmnvc	r4, #1605632	; 0x188000
    9ad4:	2871655f 	ldmdacs	r1!, {r0, r1, r2, r3, r4, r6, r8, sl, sp, lr}^
    9ad8:	35202c63 	strcc	r2, [r0, #-3171]!	; 0xfffff39d
    9adc:	2c37202c 	ldccs	0, cr2, [r7], #-176	; 0xffffff50
    9ae0:	31623020 	cmncc	r2, r0, lsr #32
    9ae4:	00293030 	eoreq	r3, r9, r0, lsr r0
    9ae8:	73746962 	cmnvc	r4, #1605632	; 0x188000
    9aec:	2871655f 	ldmdacs	r1!, {r0, r1, r2, r3, r4, r6, r8, sl, sp, lr}^
    9af0:	39202c63 	stmdbcc	r0!, {r0, r1, r5, r6, sl, fp, sp}
    9af4:	3131202c 	teqcc	r1, ip, lsr #32
    9af8:	6230202c 	eorsvs	r2, r0, #44, 0	; 0x2c
    9afc:	29303130 	ldmdbcs	r0!, {r4, r5, r8, ip, sp}
    9b00:	00000000 	andeq	r0, r0, r0
    9b04:	74697277 	strbtvc	r7, [r9], #-631	; 0xfffffd89
    9b08:	20676e69 	rsbcs	r6, r7, r9, ror #28
    9b0c:	666e6f63 	strbtvs	r6, [lr], -r3, ror #30
    9b10:	203a6769 	eorscs	r6, sl, r9, ror #14
    9b14:	78257830 	stmdavc	r5!, {r4, r5, fp, ip, sp, lr}
    9b18:	0000000a 	andeq	r0, r0, sl
    9b1c:	4f525245 	svcmi	0x00525245
    9b20:	73253a52 			; <UNDEFINED> instruction: 0x73253a52
    9b24:	3a73253a 	bcc	1cd3014 <__bss_end__+0x1cc8dbc>
    9b28:	203a6425 	eorscs	r6, sl, r5, lsr #8
    9b2c:	534c4146 	movtpl	r4, #49478	; 0xc146
    9b30:	253c2845 	ldrcs	r2, [ip, #-2117]!	; 0xfffff7bb
    9b34:	3a293e73 	bcc	a59508 <__bss_end__+0xa4f2b0>
    9b38:	61622220 	cmnvs	r2, r0, lsr #4
    9b3c:	6f632064 	svcvs	0x00632064
    9b40:	6769666e 	strbvs	r6, [r9, -lr, ror #12]!
    9b44:	00000a22 	andeq	r0, r0, r2, lsr #20
    9b48:	73746962 	cmnvc	r4, #1605632	; 0x188000
    9b4c:	2871655f 	ldmdacs	r1!, {r0, r1, r2, r3, r4, r6, r8, sl, sp, lr}^
    9b50:	39202c63 	stmdbcc	r0!, {r0, r1, r5, r6, sl, fp, sp}
    9b54:	3131202c 	teqcc	r1, ip, lsr #32
    9b58:	6230202c 	eorsvs	r2, r0, #44, 0	; 0x2c
    9b5c:	29313030 	ldmdbcs	r1!, {r4, r5, ip, sp}
    9b60:	00000000 	andeq	r0, r0, r0
    9b64:	5f746962 	svcpl	0x00746962
    9b68:	6f5f7369 	svcvs	0x005f7369
    9b6c:	63286666 			; <UNDEFINED> instruction: 0x63286666
    9b70:	2938202c 	ldmdbcs	r8!, {r2, r3, r5, sp}
    9b74:	00000000 	andeq	r0, r0, r0
    9b78:	73746962 	cmnvc	r4, #1605632	; 0x188000
    9b7c:	2871655f 	ldmdacs	r1!, {r0, r1, r2, r3, r4, r6, r8, sl, sp, lr}^
    9b80:	35202c63 	strcc	r2, [r0, #-3171]!	; 0xfffff39d
    9b84:	2c37202c 	ldccs	0, cr2, [r7], #-176	; 0xffffff50
    9b88:	31623020 	cmncc	r2, r0, lsr #32
    9b8c:	00293131 	eoreq	r3, r9, r1, lsr r1

00009b90 <__FUNCTION__.4073>:
    9b90:	31736461 	cmncc	r3, r1, ror #8
    9b94:	5f353131 	svcpl	0x00353131
    9b98:	666e6f63 	strbtvs	r6, [lr], -r3, ror #30
    9b9c:	00006769 	andeq	r6, r0, r9, ror #14
    9ba0:	66617473 			; <UNDEFINED> instruction: 0x66617473
    9ba4:	32692d66 	rsbcc	r2, r9, #6528	; 0x1980
    9ba8:	00632e63 	rsbeq	r2, r3, r3, ror #28
    9bac:	494e4150 	stmdbmi	lr, {r4, r6, r8, lr}^
    9bb0:	73253a43 			; <UNDEFINED> instruction: 0x73253a43
    9bb4:	3a73253a 	bcc	1cd30a4 <__bss_end__+0x1cc8e4c>
    9bb8:	693a6425 	ldmdbvs	sl!, {r0, r2, r5, sl, sp, lr}
    9bbc:	73206332 			; <UNDEFINED> instruction: 0x73206332
    9bc0:	6576616c 	ldrbvs	r6, [r6, #-364]!	; 0xfffffe94
    9bc4:	6b636120 	blvs	18e204c <__bss_end__+0x18d7df4>
    9bc8:	72726520 	rsbsvc	r6, r2, #32, 10	; 0x8000000
    9bcc:	000a726f 	andeq	r7, sl, pc, ror #4
    9bd0:	494e4150 	stmdbmi	lr, {r4, r6, r8, lr}^
    9bd4:	73253a43 			; <UNDEFINED> instruction: 0x73253a43
    9bd8:	3a73253a 	bcc	1cd30c8 <__bss_end__+0x1cc8e70>
    9bdc:	693a6425 	ldmdbvs	sl!, {r0, r2, r5, sl, sp, lr}
    9be0:	73206332 			; <UNDEFINED> instruction: 0x73206332
    9be4:	6576616c 	ldrbvs	r6, [r6, #-364]!	; 0xfffffe94
    9be8:	6c656820 	stclvs	8, cr6, [r5], #-128	; 0xffffff80
    9bec:	696c2064 	stmdbvs	ip!, {r2, r5, r6, sp}^
    9bf0:	7420656e 	strtvc	r6, [r0], #-1390	; 0xfffffa92
    9bf4:	6c206f6f 	stcvs	15, cr6, [r0], #-444	; 0xfffffe44
    9bf8:	0a676e6f 	beq	19e55bc <__bss_end__+0x19db364>
    9bfc:	00000000 	andeq	r0, r0, r0
    9c00:	494e4150 	stmdbmi	lr, {r4, r6, r8, lr}^
    9c04:	73253a43 			; <UNDEFINED> instruction: 0x73253a43
    9c08:	3a73253a 	bcc	1cd30f8 <__bss_end__+0x1cc8ea0>
    9c0c:	253a6425 	ldrcs	r6, [sl, #-1061]!	; 0xfffffbdb
    9c10:	00000a73 	andeq	r0, r0, r3, ror sl
    9c14:	2d633269 	sfmcs	f3, 2, [r3, #-420]!	; 0xfffffe5c
    9c18:	6174733e 	cmnvs	r4, lr, lsr r3
    9c1c:	2e737574 	mrccs	5, 3, r7, cr3, cr4, {3}
    9c20:	3d206174 	stfccs	f6, [r0, #-464]!	; 0xfffffe30
    9c24:	0030203d 	eorseq	r2, r0, sp, lsr r0
    9c28:	63326921 	teqvs	r2, #540672	; 0x84000
    9c2c:	74733e2d 	ldrbtvc	r3, [r3], #-3629	; 0xfffff1d3
    9c30:	73757461 	cmnvc	r5, #1627389952	; 0x61000000
    9c34:	7272652e 	rsbsvc	r6, r2, #192937984	; 0xb800000
    9c38:	00000000 	andeq	r0, r0, r0
    9c3c:	2d633269 	sfmcs	f3, 2, [r3, #-420]!	; 0xfffffe5c
    9c40:	6174733e 	cmnvs	r4, lr, lsr r3
    9c44:	2e737574 	mrccs	5, 3, r7, cr3, cr4, {3}
    9c48:	20657874 	rsbcs	r7, r5, r4, ror r8
    9c4c:	31203d3d 			; <UNDEFINED> instruction: 0x31203d3d
    9c50:	00000000 	andeq	r0, r0, r0
    9c54:	64612828 	strbtvs	r2, [r1], #-2088	; 0xfffff7d8
    9c58:	20297264 	eorcs	r7, r9, r4, ror #4
    9c5c:	37203e3e 			; <UNDEFINED> instruction: 0x37203e3e
    9c60:	3d3d2029 	ldccc	0, cr2, [sp, #-164]!	; 0xffffff5c
    9c64:	00003020 	andeq	r3, r0, r0, lsr #32
    9c68:	626e2828 	rsbvs	r2, lr, #40, 16	; 0x280000
    9c6c:	73657479 	cmnvc	r5, #2030043136	; 0x79000000
    9c70:	3e3e2029 	cdpcc	0, 3, cr2, cr14, cr9, {1}
    9c74:	29363120 	ldmdbcs	r6!, {r5, r8, ip, sp}
    9c78:	203d3d20 	eorscs	r3, sp, r0, lsr #26
    9c7c:	00000030 	andeq	r0, r0, r0, lsr r0

00009c80 <__FUNCTION__.3>:
    9c80:	72656678 	rsbvc	r6, r5, #120, 12	; 0x7800000
    9c84:	646e655f 	strbtvs	r6, [lr], #-1375	; 0xfffffaa1
    9c88:	00000000 	andeq	r0, r0, r0

00009c8c <__FUNCTION__.4>:
    9c8c:	72656678 	rsbvc	r6, r5, #120, 12	; 0x7800000
    9c90:	6174735f 	cmnvs	r4, pc, asr r3
    9c94:	00007472 	andeq	r7, r0, r2, ror r4

00009c98 <__FUNCTION__.5>:
    9c98:	5f633269 	svcpl	0x00633269
    9c9c:	74697277 	strbtvc	r7, [r9], #-631	; 0xfffffd89
    9ca0:	00000065 	andeq	r0, r0, r5, rrx

00009ca4 <__FUNCTION__.2>:
    9ca4:	5f633269 	svcpl	0x00633269
    9ca8:	64616572 	strbtvs	r6, [r1], #-1394	; 0xfffffa8e
    9cac:	00000000 	andeq	r0, r0, r0

00009cb0 <__FUNCTION__.1>:
    9cb0:	5f633269 	svcpl	0x00633269
    9cb4:	74696e69 	strbtvc	r6, [r9], #-3689	; 0xfffff197
    9cb8:	00000000 	andeq	r0, r0, r0
    9cbc:	696c2f2e 	stmdbvs	ip!, {r1, r2, r3, r5, r8, r9, sl, fp, sp}^
    9cc0:	762f6362 	strtvc	r6, [pc], -r2, ror #6
    9cc4:	72702d61 	rsbsvc	r2, r0, #6208	; 0x1840
    9cc8:	6b746e69 	blvs	1d25674 <__bss_end__+0x1d1b41c>
    9ccc:	0000632e 	andeq	r6, r0, lr, lsr #6
    9cd0:	33323130 	teqcc	r2, #12
    9cd4:	37363534 			; <UNDEFINED> instruction: 0x37363534
    9cd8:	62613938 	rsbvs	r3, r1, #56, 18	; 0xe0000
    9cdc:	66656463 	strbtvs	r6, [r5], -r3, ror #8
    9ce0:	00000000 	andeq	r0, r0, r0
    9ce4:	00003130 	andeq	r3, r0, r0, lsr r1
    9ce8:	33323130 	teqcc	r2, #12
    9cec:	37363534 			; <UNDEFINED> instruction: 0x37363534
    9cf0:	00003938 	andeq	r3, r0, r8, lsr r9
    9cf4:	63747570 	cmnvs	r4, #112, 10	; 0x1c000000
    9cf8:	0070665f 	rsbseq	r6, r0, pc, asr r6
    9cfc:	74646977 	strbtvc	r6, [r4], #-2423	; 0xfffff689
    9d00:	203c2068 	eorscs	r2, ip, r8, rrx
    9d04:	00003233 	andeq	r3, r0, r3, lsr r2
    9d08:	00786c6c 	rsbseq	r6, r8, ip, ror #24
    9d0c:	253d3078 	ldrcs	r3, [sp, #-120]!	; 0xffffff88
    9d10:	00000a78 	andeq	r0, r0, r8, ror sl
    9d14:	253d3178 	ldrcs	r3, [sp, #-376]!	; 0xfffffe88
    9d18:	00000a78 	andeq	r0, r0, r8, ror sl
    9d1c:	00646c6c 	rsbeq	r6, r4, ip, ror #24
    9d20:	6e727473 	mrcvs	4, 3, r7, cr2, cr3, {3}
    9d24:	28706d63 	ldmdacs	r0!, {r0, r1, r5, r6, r8, sl, fp, sp, lr}^
    9d28:	202c7974 	eorcs	r7, ip, r4, ror r9
    9d2c:	786c6c22 	stmdavc	ip!, {r1, r5, sl, fp, sp, lr}^
    9d30:	33202c22 			; <UNDEFINED> instruction: 0x33202c22
    9d34:	3d3d2029 	ldccc	0, cr2, [sp, #-164]!	; 0xffffff5c
    9d38:	7c203020 	stcvc	0, cr3, [r0], #-128	; 0xffffff80
    9d3c:	7473207c 	ldrbtvc	r2, [r3], #-124	; 0xffffff84
    9d40:	6d636e72 	stclvs	14, cr6, [r3, #-456]!	; 0xfffffe38
    9d44:	79742870 	ldmdbvc	r4!, {r4, r5, r6, fp, sp}^
    9d48:	6c22202c 	stcvs	0, cr2, [r2], #-176	; 0xffffff50
    9d4c:	2c22646c 	cfstrscs	mvf6, [r2], #-432	; 0xfffffe50
    9d50:	20293320 	eorcs	r3, r9, r0, lsr #6
    9d54:	30203d3d 	eorcc	r3, r0, sp, lsr sp
    9d58:	00000000 	andeq	r0, r0, r0
    9d5c:	494e4150 	stmdbmi	lr, {r4, r6, r8, lr}^
    9d60:	73253a43 			; <UNDEFINED> instruction: 0x73253a43
    9d64:	3a73253a 	bcc	1cd3254 <__bss_end__+0x1cc8ffc>
    9d68:	693a6425 	ldmdbvs	sl!, {r0, r2, r5, sl, sp, lr}
    9d6c:	736f706d 	cmnvc	pc, #109, 0	; 0x6d
    9d70:	6c626973 			; <UNDEFINED> instruction: 0x6c626973
    9d74:	66203a65 	strtvs	r3, [r0], -r5, ror #20
    9d78:	3c3d746d 	cfldrscc	mvf7, [sp], #-436	; 0xfffffe4c
    9d7c:	0a3e7325 	beq	fa6a18 <__bss_end__+0xf9c7c0>
    9d80:	0000000a 	andeq	r0, r0, sl
    9d84:	494e4150 	stmdbmi	lr, {r4, r6, r8, lr}^
    9d88:	73253a43 			; <UNDEFINED> instruction: 0x73253a43
    9d8c:	3a73253a 	bcc	1cd327c <__bss_end__+0x1cc9024>
    9d90:	663a6425 	ldrtvs	r6, [sl], -r5, lsr #8
    9d94:	74616f6c 	strbtvc	r6, [r1], #-3948	; 0xfffff094
    9d98:	746f6e20 	strbtvc	r6, [pc], #-3616	; 9da0 <__FUNCTION__.1+0xf0>
    9d9c:	616e6520 	cmnvs	lr, r0, lsr #10
    9da0:	64656c62 	strbtvs	r6, [r5], #-3170	; 0xfffff39e
    9da4:	0a212121 	beq	852230 <__bss_end__+0x847fd8>
    9da8:	00000000 	andeq	r0, r0, r0
    9dac:	6e697270 	mcrvs	2, 3, r7, cr9, cr0, {3}
    9db0:	203a6b74 	eorscs	r6, sl, r4, ror fp
    9db4:	20746f6e 	rsbscs	r6, r4, lr, ror #30
    9db8:	646e6168 	strbtvs	r6, [lr], #-360	; 0xfffffe98
    9dbc:	676e696c 	strbvs	r6, [lr, -ip, ror #18]!
    9dc0:	65707320 	ldrbvs	r7, [r0, #-800]!	; 0xfffffce0
    9dc4:	69666963 	stmdbvs	r6!, {r0, r1, r5, r6, r8, fp, sp, lr}^
    9dc8:	27207265 	strcs	r7, [r0, -r5, ror #4]!
    9dcc:	20276325 	eorcs	r6, r7, r5, lsr #6
    9dd0:	63736128 	cmnvs	r3, #10
    9dd4:	253d6969 	ldrcs	r6, [sp, #-2409]!	; 0xfffff697
    9dd8:	000a2964 	andeq	r2, sl, r4, ror #18
    9ddc:	494e4150 	stmdbmi	lr, {r4, r6, r8, lr}^
    9de0:	73253a43 			; <UNDEFINED> instruction: 0x73253a43
    9de4:	3a73253a 	bcc	1cd32d4 <__bss_end__+0x1cc907c>
    9de8:	703a6425 	eorsvc	r6, sl, r5, lsr #8
    9dec:	746e6972 	strbtvc	r6, [lr], #-2418	; 0xfffff68e
    9df0:	7265206b 	rsbvc	r2, r5, #107, 0	; 0x6b
    9df4:	0a726f72 	beq	1ca5bc4 <__bss_end__+0x1c9b96c>
    9df8:	0000000a 	andeq	r0, r0, sl

00009dfc <__FUNCTION__.4008>:
    9dfc:	74696d65 	strbtvc	r6, [r9], #-3429	; 0xfffff29b
    9e00:	00000000 	andeq	r0, r0, r0

00009e04 <__FUNCTION__.3956>:
    9e04:	5f697072 	svcpl	0x00697072
    9e08:	5f746573 	svcpl	0x00746573
    9e0c:	7074756f 	rsbsvc	r7, r4, pc, ror #10
    9e10:	00007475 	andeq	r7, r0, r5, ror r4

00009e14 <__FUNCTION__.4034>:
    9e14:	705f6176 	subsvc	r6, pc, r6, ror r1	; <UNPREDICTABLE>
    9e18:	746e6972 	strbtvc	r6, [lr], #-2418	; 0xfffff68e
    9e1c:	0000006b 	andeq	r0, r0, fp, rrx
    9e20:	454e4f44 	strbmi	r4, [lr, #-3908]	; 0xfffff0bc
    9e24:	0a212121 	beq	8522b0 <__bss_end__+0x848058>
    9e28:	00000000 	andeq	r0, r0, r0
    9e2c:	6e75525b 	mrcvs	2, 3, r5, cr5, cr11, {2}
    9e30:	676e696e 	strbvs	r6, [lr, -lr, ror #18]!
    9e34:	6f6f7420 	svcvs	0x006f7420
    9e38:	6425206b 	strtvs	r2, [r5], #-107	; 0xffffff95
    9e3c:	63796320 	cmnvs	r9, #32, 6	; 0x80000000
    9e40:	5d73656c 	cfldr64pl	mvdx6, [r3, #-432]!	; 0xfffffe50
    9e44:	Address 0x0000000000009e44 is out of bounds.


Disassembly of section .data:

00009e48 <rpi_putchar>:
    9e48:	00008a64 	andeq	r8, r0, r4, ror #20

00009e4c <putk>:
    9e4c:	00008aa0 	andeq	r8, r0, r0, lsr #21

Disassembly of section .bss:

00009e50 <__bss_start__>:
    9e50:	00000000 	andeq	r0, r0, r0

00009e54 <buf.3948>:
	...

0000a254 <last.3941>:
    a254:	00000000 	andeq	r0, r0, r0

Disassembly of section .ARM.attributes:

00000000 <.ARM.attributes>:
   0:	00002a41 	andeq	r2, r0, r1, asr #20
   4:	61656100 	cmnvs	r5, r0, lsl #2
   8:	01006962 	tsteq	r0, r2, ror #18
   c:	00000020 	andeq	r0, r0, r0, lsr #32
  10:	4b5a3605 	blmi	168d82c <__bss_end__+0x16835d4>
  14:	08070600 	stmdaeq	r7, {r9, sl}
  18:	12010901 	andne	r0, r1, #16384	; 0x4000
  1c:	15011404 	strne	r1, [r1, #-1028]	; 0xfffffbfc
  20:	18031701 	stmdane	r3, {r0, r8, r9, sl, ip}
  24:	22011a01 	andcs	r1, r1, #4096	; 0x1000
  28:	Address 0x0000000000000028 is out of bounds.


Disassembly of section .comment:

00000000 <.comment>:
   0:	3a434347 	bcc	10d0d24 <__bss_end__+0x10c6acc>
   4:	4e472820 	cdpmi	8, 4, cr2, cr7, cr0, {1}
   8:	6f542055 	svcvs	0x00542055
   c:	20736c6f 	rsbscs	r6, r3, pc, ror #24
  10:	20726f66 	rsbscs	r6, r2, r6, ror #30
  14:	206d7241 	rsbcs	r7, sp, r1, asr #4
  18:	65626d45 	strbvs	r6, [r2, #-3397]!	; 0xfffff2bb
  1c:	64656464 	strbtvs	r6, [r5], #-1124	; 0xfffffb9c
  20:	6f725020 	svcvs	0x00725020
  24:	73736563 	cmnvc	r3, #415236096	; 0x18c00000
  28:	2073726f 	rsbscs	r7, r3, pc, ror #4
  2c:	30322d39 	eorscc	r2, r2, r9, lsr sp
  30:	712d3931 			; <UNDEFINED> instruction: 0x712d3931
  34:	616d2d34 	cmnvs	sp, r4, lsr sp
  38:	29726f6a 	ldmdbcs	r2!, {r1, r3, r5, r6, r8, r9, sl, fp, sp, lr}^
  3c:	322e3920 	eorcc	r3, lr, #32, 18	; 0x80000
  40:	3220312e 	eorcc	r3, r0, #-2147483637	; 0x8000000b
  44:	31393130 	teqcc	r9, r0, lsr r1
  48:	20353230 	eorscs	r3, r5, r0, lsr r2
  4c:	6c657228 	sfmvs	f7, 2, [r5], #-160	; 0xffffff60
  50:	65736165 	ldrbvs	r6, [r3, #-357]!	; 0xfffffe9b
  54:	415b2029 	cmpmi	fp, r9, lsr #32
  58:	612f4d52 			; <UNDEFINED> instruction: 0x612f4d52
  5c:	392d6d72 	pushcc	{r1, r4, r5, r6, r8, sl, fp, sp, lr}
  60:	6172622d 	cmnvs	r2, sp, lsr #4
  64:	2068636e 	rsbcs	r6, r8, lr, ror #6
  68:	69766572 	ldmdbvs	r6!, {r1, r4, r5, r6, r8, sl, sp, lr}^
  6c:	6e6f6973 			; <UNDEFINED> instruction: 0x6e6f6973
  70:	37373220 	ldrcc	r3, [r7, -r0, lsr #4]!
  74:	5d393935 			; <UNDEFINED> instruction: 0x5d393935
  78:	43434700 	movtmi	r4, #14080	; 0x3700
  7c:	4728203a 			; <UNDEFINED> instruction: 0x4728203a
  80:	4120554e 			; <UNDEFINED> instruction: 0x4120554e
  84:	45206d72 	strmi	r6, [r0, #-3442]!	; 0xfffff28e
  88:	6465626d 	strbtvs	r6, [r5], #-621	; 0xfffffd93
  8c:	20646564 	rsbcs	r6, r4, r4, ror #10
  90:	6c6f6f54 	stclvs	15, cr6, [pc], #-336	; ffffff48 <__bss_end__+0xffff5cf0>
  94:	69616863 	stmdbvs	r1!, {r0, r1, r5, r6, fp, sp, lr}^
  98:	3031206e 	eorscc	r2, r1, lr, rrx
  9c:	322d332e 	eorcc	r3, sp, #-1207959552	; 0xb8000000
  a0:	2e313230 	mrccs	2, 1, r3, cr1, cr0, {1}
  a4:	20293031 	eorcs	r3, r9, r1, lsr r0
  a8:	332e3031 			; <UNDEFINED> instruction: 0x332e3031
  ac:	3220312e 	eorcc	r3, r0, #-2147483637	; 0x8000000b
  b0:	30313230 	eorscc	r3, r1, r0, lsr r2
  b4:	20343238 	eorscs	r3, r4, r8, lsr r2
  b8:	6c657228 	sfmvs	f7, 2, [r5], #-160	; 0xffffff60
  bc:	65736165 	ldrbvs	r6, [r3, #-357]!	; 0xfffffe9b
  c0:	Address 0x00000000000000c0 is out of bounds.


Disassembly of section .debug_info:

00000000 <.debug_info>:
       0:	000001c9 	andeq	r0, r0, r9, asr #3
       4:	00000004 	andeq	r0, r0, r4
       8:	01040000 	mrseq	r0, (UNDEF: 4)
       c:	000000e7 	andeq	r0, r0, r7, ror #1
      10:	00006a0c 	andeq	r6, r0, ip, lsl #20
      14:	0000ae00 	andeq	sl, r0, r0, lsl #28
      18:	00803800 	addeq	r3, r0, r0, lsl #16
      1c:	00005400 	andeq	r5, r0, r0, lsl #8
      20:	00000000 	andeq	r0, r0, r0
      24:	05040200 	streq	r0, [r4, #-512]	; 0xfffffe00
      28:	00746e69 	rsbseq	r6, r4, r9, ror #28
      2c:	7d070403 	cfstrsvc	mvf0, [r7, #-12]
      30:	03000000 	movweq	r0, #0
      34:	00240601 	eoreq	r0, r4, r1, lsl #12
      38:	02030000 	andeq	r0, r3, #0, 0
      3c:	0000a405 	andeq	sl, r0, r5, lsl #8
      40:	05040300 	streq	r0, [r4, #-768]	; 0xfffffd00
      44:	0000008f 	andeq	r0, r0, pc, lsl #1
      48:	8a050803 	bhi	14205c <__bss_end__+0x137e04>
      4c:	03000000 	movweq	r0, #0
      50:	00220801 	eoreq	r0, r2, r1, lsl #16
      54:	02030000 	andeq	r0, r3, #0, 0
      58:	00003907 	andeq	r3, r0, r7, lsl #18
      5c:	07040300 	streq	r0, [r4, -r0, lsl #6]
      60:	00000078 	andeq	r0, r0, r8, ror r0
      64:	73070803 	movwvc	r0, #30723	; 0x7803
      68:	04000000 	streq	r0, [r0], #-0
      6c:	00000025 	andeq	r0, r0, r5, lsr #32
      70:	0000007a 	andeq	r0, r0, sl, ror r0
      74:	00002505 	andeq	r2, r0, r5, lsl #10
      78:	98060000 	stmdals	r6, {}	; <UNPREDICTABLE>
      7c:	02000000 	andeq	r0, r0, #0, 0
      80:	00860e1c 	addeq	r0, r6, ip, lsl lr
      84:	04070000 	streq	r0, [r7], #-0
      88:	0000006b 	andeq	r0, r0, fp, rrx
      8c:	00002504 	andeq	r2, r0, r4, lsl #10
      90:	00009b00 	andeq	r9, r0, r0, lsl #22
      94:	009b0500 	addseq	r0, fp, r0, lsl #10
      98:	07000000 	streq	r0, [r0, -r0]
      9c:	0000a804 	andeq	sl, r0, r4, lsl #16
      a0:	08010300 	stmdaeq	r1, {r8, r9}
      a4:	0000002b 	andeq	r0, r0, fp, lsr #32
      a8:	0000a108 	andeq	sl, r0, r8, lsl #2
      ac:	07630600 	strbeq	r0, [r3, -r0, lsl #12]!
      b0:	21020000 	mrscs	r0, (UNDEF: 2)
      b4:	0000b90e 	andeq	fp, r0, lr, lsl #18
      b8:	8c040700 	stchi	7, cr0, [r4], {-0}
      bc:	09000000 	stmdbeq	r0, {}	; <UNPREDICTABLE>
      c0:	004f0107 	subeq	r0, pc, r7, lsl #2
      c4:	0d030000 	stceq	0, cr0, [r3, #-0]
      c8:	0000da06 	andeq	sp, r0, r6, lsl #20
      cc:	000b0a00 	andeq	r0, fp, r0, lsl #20
      d0:	0a000000 	beq	d8 <__code_start__-0x7f28>
      d4:	00000000 	andeq	r0, r0, r0
      d8:	1a0b0001 	bne	2c00e4 <__bss_end__+0x2b5e8c>
      dc:	01000000 	mrseq	r0, (UNDEF: 0)
      e0:	80380611 	eorshi	r0, r8, r1, lsl r6
      e4:	00540000 	subseq	r0, r4, r0
      e8:	9c010000 	stcls	0, cr0, [r1], {-0}
      ec:	0000019c 	muleq	r0, ip, r1
      f0:	0000de0c 	andeq	sp, r0, ip, lsl #28
      f4:	0e120100 	mufeqs	f0, f2, f0
      f8:	0000002c 	andeq	r0, r0, ip, lsr #32
      fc:	00000002 	andeq	r0, r0, r2
     100:	00000000 	andeq	r0, r0, r0
     104:	0000000d 	andeq	r0, r0, sp
     108:	00019200 	andeq	r9, r1, r0, lsl #4
     10c:	00760e00 	rsbseq	r0, r6, r0, lsl #28
     110:	3a0f1e01 	bcc	3c791c <__bss_end__+0x3bd6c4>
     114:	1e000000 	cdpne	0, 0, cr0, cr0, cr0, {0}
     118:	1a000000 	bne	120 <__code_start__-0x7ee0>
     11c:	0f000000 	svceq	0x00000000
     120:	00008068 	andeq	r8, r0, r8, rrx
     124:	00000024 	andeq	r0, r0, r4, lsr #32
     128:	00000152 	andeq	r0, r0, r2, asr r1
     12c:	0100690e 	tsteq	r0, lr, lsl #18
     130:	00251120 	eoreq	r1, r5, r0, lsr #2
     134:	00420000 	subeq	r0, r2, r0
     138:	003c0000 	eorseq	r0, ip, r0
     13c:	7c100000 	ldcvc	0, cr0, [r0], {-0}
     140:	9c000080 	stcls	0, cr0, [r0], {128}	; 0x80
     144:	11000001 	tstne	r0, r1
     148:	03055001 	movweq	r5, #20481	; 0x5001
     14c:	00009a50 	andeq	r9, r0, r0, asr sl
     150:	50120000 	andspl	r0, r2, r0
     154:	9c000080 	stcls	0, cr0, [r0], {128}	; 0x80
     158:	69000001 	stmdbvs	r0, {r0}
     15c:	11000001 	tstne	r0, r1
     160:	03055001 	movweq	r5, #20481	; 0x5001
     164:	00009d80 	andeq	r9, r0, r0, lsl #27
     168:	80581200 	subshi	r1, r8, r0, lsl #4
     16c:	01a80000 			; <UNDEFINED> instruction: 0x01a80000
     170:	017c0000 	cmneq	ip, r0
     174:	01110000 	tsteq	r1, r0
     178:	00310150 	eorseq	r0, r1, r0, asr r1
     17c:	00806410 	addeq	r6, r0, r0, lsl r4
     180:	0001b400 	andeq	fp, r1, r0, lsl #8
     184:	50011100 	andpl	r1, r1, r0, lsl #2
     188:	11007602 	tstne	r0, r2, lsl #12
     18c:	30015101 	andcc	r5, r1, r1, lsl #2
     190:	40130000 	andsmi	r0, r3, r0
     194:	c0000080 	andgt	r0, r0, r0, lsl #1
     198:	00000001 	andeq	r0, r0, r1
     19c:	0006ec14 	andeq	lr, r6, r4, lsl ip
     1a0:	0006ec00 	andeq	lr, r6, r0, lsl #24
     1a4:	06280200 	strteq	r0, [r8], -r0, lsl #4
     1a8:	00003014 	andeq	r3, r0, r4, lsl r0
     1ac:	00003000 	andeq	r3, r0, r0
     1b0:	06580200 	ldrbeq	r0, [r8], -r0, lsl #4
     1b4:	00004c14 	andeq	r4, r0, r4, lsl ip
     1b8:	00004c00 	andeq	r4, r0, r0, lsl #24
     1bc:	0a080300 	beq	200dc4 <__bss_end__+0x1f6b6c>
     1c0:	00005b14 	andeq	r5, r0, r4, lsl fp
     1c4:	00005b00 	andeq	r5, r0, r0, lsl #22
     1c8:	090a0300 	stmdbeq	sl, {r8, r9}
     1cc:	000aa200 	andeq	sl, sl, r0, lsl #4
     1d0:	15000400 	strne	r0, [r0, #-1024]	; 0xfffffc00
     1d4:	04000001 	streq	r0, [r0], #-1
     1d8:	0000e701 	andeq	lr, r0, r1, lsl #14
     1dc:	02650c00 	rsbeq	r0, r5, #0, 24
     1e0:	00ae0000 	adceq	r0, lr, r0
     1e4:	808c0000 	addhi	r0, ip, r0
     1e8:	02700000 	rsbseq	r0, r0, #0, 0
     1ec:	00d20000 	sbcseq	r0, r2, r0
     1f0:	04020000 	streq	r0, [r2], #-0
     1f4:	746e6905 	strbtvc	r6, [lr], #-2309	; 0xfffff6fb
     1f8:	07040300 	streq	r0, [r4, -r0, lsl #6]
     1fc:	0000007d 	andeq	r0, r0, sp, ror r0
     200:	24060103 	strcs	r0, [r6], #-259	; 0xfffffefd
     204:	03000000 	movweq	r0, #0
     208:	00a40502 	adceq	r0, r4, r2, lsl #10
     20c:	04030000 	streq	r0, [r3], #-0
     210:	00008f05 	andeq	r8, r0, r5, lsl #30
     214:	05080300 	streq	r0, [r8, #-768]	; 0xfffffd00
     218:	0000008a 	andeq	r0, r0, sl, lsl #1
     21c:	00022804 	andeq	r2, r2, r4, lsl #16
     220:	182e0300 	stmdane	lr!, {r8, r9}
     224:	0000005b 	andeq	r0, r0, fp, asr r0
     228:	22080103 	andcs	r0, r8, #-1073741824	; 0xc0000000
     22c:	04000000 	streq	r0, [r0], #-0
     230:	00000242 	andeq	r0, r0, r2, asr #4
     234:	6e193103 	mufvse	f3, f1, f3
     238:	03000000 	movweq	r0, #0
     23c:	00390702 	eorseq	r0, r9, r2, lsl #14
     240:	5c040000 	stcpl	0, cr0, [r4], {-0}
     244:	03000002 	movweq	r0, #2
     248:	00811934 	addeq	r1, r1, r4, lsr r9
     24c:	04030000 	streq	r0, [r3], #-0
     250:	00007807 	andeq	r7, r0, r7, lsl #16
     254:	07080300 	streq	r0, [r8, -r0, lsl #6]
     258:	00000073 	andeq	r0, r0, r3, ror r0
     25c:	00002505 	andeq	r2, r0, r5, lsl #10
     260:	00009e00 	andeq	r9, r0, r0, lsl #28
     264:	00250600 	eoreq	r0, r5, r0, lsl #12
     268:	07000000 	streq	r0, [r0, -r0]
     26c:	00000098 	muleq	r0, r8, r0
     270:	aa0e1c04 	bge	387288 <__bss_end__+0x37d030>
     274:	08000000 	stmdaeq	r0, {}	; <UNPREDICTABLE>
     278:	00008f04 	andeq	r8, r0, r4, lsl #30
     27c:	00250500 	eoreq	r0, r5, r0, lsl #10
     280:	00bf0000 	adcseq	r0, pc, r0
     284:	bf060000 	svclt	0x00060000
     288:	00000000 	andeq	r0, r0, r0
     28c:	00cc0408 	sbceq	r0, ip, r8, lsl #8
     290:	01030000 	mrseq	r0, (UNDEF: 3)
     294:	00002b08 	andeq	r2, r0, r8, lsl #22
     298:	00c50900 	sbceq	r0, r5, r0, lsl #18
     29c:	63070000 	movwvs	r0, #28672	; 0x7000
     2a0:	04000007 	streq	r0, [r0], #-7
     2a4:	00dd0e21 	sbcseq	r0, sp, r1, lsr #28
     2a8:	04080000 	streq	r0, [r8], #-0
     2ac:	000000b0 	strheq	r0, [r0], -r0	; <UNPREDICTABLE>
     2b0:	5b01070a 	blpl	41ee0 <__bss_end__+0x37c88>
     2b4:	05000000 	streq	r0, [r0, #-0]
     2b8:	00fe060d 	rscseq	r0, lr, sp, lsl #12
     2bc:	0b0b0000 	bleq	2c02c4 <__bss_end__+0x2b606c>
     2c0:	00000000 	andeq	r0, r0, r0
     2c4:	0000000b 	andeq	r0, r0, fp
     2c8:	0c000100 	stfeqs	f0, [r0], {-0}
     2cc:	0000005b 	andeq	r0, r0, fp, asr r0
     2d0:	4f094201 	svcmi	0x00094201
     2d4:	20000000 	andcs	r0, r0, r0
     2d8:	dc000081 	stcle	0, cr0, [r0], {129}	; 0x81
     2dc:	01000001 	tsteq	r0, r1
     2e0:	0006bf9c 	muleq	r6, ip, pc	; <UNPREDICTABLE>
     2e4:	01070a00 	tsteq	r7, r0, lsl #20
     2e8:	0000005b 	andeq	r0, r0, fp, asr r0
     2ec:	2d0a4801 	stccs	8, cr4, [sl, #-4]
     2f0:	0b000001 	bleq	2fc <__code_start__-0x7d04>
     2f4:	000000de 	ldrdeq	r0, [r0], -lr
     2f8:	630d0048 	movwvs	r0, #53320	; 0xd048
     2fc:	0b5e0100 	bleq	1780704 <__bss_end__+0x17764ac>
     300:	00000062 	andeq	r0, r0, r2, rrx
     304:	0000007a 	andeq	r0, r0, sl, ror r0
     308:	0000006c 	andeq	r0, r0, ip, rrx
     30c:	0002080e 	andeq	r0, r2, lr, lsl #16
     310:	0006cf00 	andeq	ip, r6, r0, lsl #30
     314:	90030500 	andls	r0, r3, r0, lsl #10
     318:	0f00009b 	svceq	0x0000009b
     31c:	000009db 	ldrdeq	r0, [r0], -fp
     320:	00008170 	andeq	r8, r0, r0, ror r1
     324:	00817002 	addeq	r7, r1, r2
     328:	00000000 	andeq	r0, r0, r0
     32c:	05650100 	strbeq	r0, [r5, #-256]!	; 0xffffff00
     330:	00000182 	andeq	r0, r0, r2, lsl #3
     334:	0009f610 	andeq	pc, r9, r0, lsl r6	; <UNPREDICTABLE>
     338:	0000d800 	andeq	sp, r0, r0, lsl #16
     33c:	0000d600 	andeq	sp, r0, r0, lsl #12
     340:	09ec1000 	stmibeq	ip!, {ip}^
     344:	00ee0000 	rsceq	r0, lr, r0
     348:	00ec0000 	rsceq	r0, ip, r0
     34c:	11000000 	mrsne	r0, (UNDEF: 0)
     350:	00000835 	andeq	r0, r0, r5, lsr r8
     354:	00008178 	andeq	r8, r0, r8, ror r1
     358:	00001803 	andeq	r1, r0, r3, lsl #16
     35c:	05660100 	strbeq	r0, [r6, #-256]!	; 0xffffff00
     360:	00000210 	andeq	r0, r0, r0, lsl r2
     364:	00086610 	andeq	r6, r8, r0, lsl r6
     368:	00010300 	andeq	r0, r1, r0, lsl #6
     36c:	00010100 	andeq	r0, r1, r0, lsl #2
     370:	085b1000 	ldmdaeq	fp, {ip}^
     374:	01190000 	tsteq	r9, r0
     378:	01170000 	tsteq	r7, r0
     37c:	50100000 	andspl	r0, r0, r0
     380:	2f000008 	svccs	0x00000008
     384:	2d000001 	stccs	0, cr0, [r0, #-4]
     388:	10000001 	andne	r0, r0, r1
     38c:	00000846 	andeq	r0, r0, r6, asr #16
     390:	00000145 	andeq	r0, r0, r5, asr #2
     394:	00000143 	andeq	r0, r0, r3, asr #2
     398:	00001812 	andeq	r1, r0, r2, lsl r8
     39c:	093c1300 	ldmdbeq	ip!, {r8, r9, ip}
     3a0:	81780000 	cmnhi	r8, r0
     3a4:	18070000 	stmdane	r7, {}	; <UNPREDICTABLE>
     3a8:	02000000 	andeq	r0, r0, #0, 0
     3ac:	62100c62 	andsvs	r0, r0, #25088	; 0x6200
     3b0:	5a000009 	bpl	3dc <__code_start__-0x7c24>
     3b4:	58000001 	stmdapl	r0, {r0}
     3b8:	10000001 	andne	r0, r0, r1
     3bc:	00000957 	andeq	r0, r0, r7, asr r9
     3c0:	00000170 	andeq	r0, r0, r0, ror r1
     3c4:	0000016e 	andeq	r0, r0, lr, ror #2
     3c8:	00094d10 	andeq	r4, r9, r0, lsl sp
     3cc:	00018600 	andeq	r8, r1, r0, lsl #12
     3d0:	00018400 	andeq	r8, r1, r0, lsl #8
     3d4:	00181400 	andseq	r1, r8, r0, lsl #8
     3d8:	00000000 	andeq	r0, r0, r0
     3dc:	08351100 	ldmdaeq	r5!, {r8, ip}
     3e0:	81880000 	orrhi	r0, r8, r0
     3e4:	30030000 	andcc	r0, r3, r0
     3e8:	01000000 	mrseq	r0, (UNDEF: 0)
     3ec:	029e0567 	addseq	r0, lr, #432013312	; 0x19c00000
     3f0:	66100000 	ldrvs	r0, [r0], -r0
     3f4:	9b000008 	blls	41c <__code_start__-0x7be4>
     3f8:	99000001 	stmdbls	r0, {r0}
     3fc:	10000001 	andne	r0, r0, r1
     400:	0000085b 	andeq	r0, r0, fp, asr r8
     404:	000001b1 			; <UNDEFINED> instruction: 0x000001b1
     408:	000001af 	andeq	r0, r0, pc, lsr #3
     40c:	00085010 	andeq	r5, r8, r0, lsl r0
     410:	0001c700 	andeq	ip, r1, r0, lsl #14
     414:	0001c500 	andeq	ip, r1, r0, lsl #10
     418:	08461000 	stmdaeq	r6, {ip}^
     41c:	01dd0000 	bicseq	r0, sp, r0
     420:	01db0000 	bicseq	r0, fp, r0
     424:	30120000 	andscc	r0, r2, r0
     428:	13000000 	movwne	r0, #0
     42c:	0000093c 	andeq	r0, r0, ip, lsr r9
     430:	00008188 	andeq	r8, r0, r8, lsl #3
     434:	00003007 	andeq	r3, r0, r7
     438:	0c620200 	sfmeq	f0, 2, [r2], #-0
     43c:	00096210 	andeq	r6, r9, r0, lsl r2
     440:	0001f200 	andeq	pc, r1, r0, lsl #4
     444:	0001f000 	andeq	pc, r1, r0
     448:	09571000 	ldmdbeq	r7, {ip}^
     44c:	02080000 	andeq	r0, r8, #0, 0
     450:	02060000 	andeq	r0, r6, #0, 0
     454:	4d100000 	ldcmi	0, cr0, [r0, #-0]
     458:	1e000009 	cdpne	0, 0, cr0, cr0, cr9, {0}
     45c:	1c000002 	stcne	0, cr0, [r0], {2}
     460:	14000002 	strne	r0, [r0], #-2
     464:	00000030 	andeq	r0, r0, r0, lsr r0
     468:	11000000 	mrsne	r0, (UNDEF: 0)
     46c:	00000835 	andeq	r0, r0, r5, lsr r8
     470:	000081c0 	andeq	r8, r0, r0, asr #3
     474:	00004802 	andeq	r4, r0, r2, lsl #16
     478:	05790100 	ldrbeq	r0, [r9, #-256]!	; 0xffffff00
     47c:	0000032c 	andeq	r0, r0, ip, lsr #6
     480:	00086610 	andeq	r6, r8, r0, lsl r6
     484:	00023300 	andeq	r3, r2, r0, lsl #6
     488:	00023100 	andeq	r3, r2, r0, lsl #2
     48c:	085b1000 	ldmdaeq	fp, {ip}^
     490:	02490000 	subeq	r0, r9, #0, 0
     494:	02470000 	subeq	r0, r7, #0, 0
     498:	50100000 	andspl	r0, r0, r0
     49c:	5f000008 	svcpl	0x00000008
     4a0:	5d000002 	stcpl	0, cr0, [r0, #-8]
     4a4:	10000002 	andne	r0, r0, r2
     4a8:	00000846 	andeq	r0, r0, r6, asr #16
     4ac:	00000275 	andeq	r0, r0, r5, ror r2
     4b0:	00000273 	andeq	r0, r0, r3, ror r2
     4b4:	00004812 	andeq	r4, r0, r2, lsl r8
     4b8:	093c1300 	ldmdbeq	ip!, {r8, r9, ip}
     4bc:	81c00000 	bichi	r0, r0, r0
     4c0:	48060000 	stmdami	r6, {}	; <UNPREDICTABLE>
     4c4:	02000000 	andeq	r0, r0, #0, 0
     4c8:	62100c62 	andsvs	r0, r0, #25088	; 0x6200
     4cc:	8a000009 	bhi	4f8 <__code_start__-0x7b08>
     4d0:	88000002 	stmdahi	r0, {r1}
     4d4:	10000002 	andne	r0, r0, r2
     4d8:	00000957 	andeq	r0, r0, r7, asr r9
     4dc:	000002a0 	andeq	r0, r0, r0, lsr #5
     4e0:	0000029e 	muleq	r0, lr, r2
     4e4:	00094d10 	andeq	r4, r9, r0, lsl sp
     4e8:	0002b600 	andeq	fp, r2, r0, lsl #12
     4ec:	0002b400 	andeq	fp, r2, r0, lsl #8
     4f0:	00481400 	subeq	r1, r8, r0, lsl #8
     4f4:	00000000 	andeq	r0, r0, r0
     4f8:	09b31100 	ldmibeq	r3!, {r8, ip}
     4fc:	81d00000 	bicshi	r0, r0, r0
     500:	60030000 	andvs	r0, r3, r0
     504:	01000000 	mrseq	r0, (UNDEF: 0)
     508:	038c057a 	orreq	r0, ip, #511705088	; 0x1e800000
     50c:	ce100000 	cdpgt	0, 1, cr0, cr0, cr0, {0}
     510:	cb000009 	blgt	53c <__code_start__-0x7ac4>
     514:	c9000002 	stmdbgt	r0, {r1}
     518:	10000002 	andne	r0, r0, r2
     51c:	000009c4 	andeq	r0, r0, r4, asr #19
     520:	000002e1 	andeq	r0, r0, r1, ror #5
     524:	000002df 	ldrdeq	r0, [r0], -pc	; <UNPREDICTABLE>
     528:	0009db15 	andeq	sp, r9, r5, lsl fp
     52c:	0081d000 	addeq	sp, r1, r0
     530:	81d00500 	bicshi	r0, r0, r0, lsl #10
     534:	00000000 	andeq	r0, r0, r0
     538:	24020000 	strcs	r0, [r2], #-0
     53c:	09f6100c 	ldmibeq	r6!, {r2, r3, ip}^
     540:	02f60000 	rscseq	r0, r6, #0, 0
     544:	02f40000 	rscseq	r0, r4, #0, 0
     548:	ec100000 	ldc	0, cr0, [r0], {-0}
     54c:	0c000009 	stceq	0, cr0, [r0], {9}
     550:	0a000003 	beq	564 <__code_start__-0x7a9c>
     554:	00000003 	andeq	r0, r0, r3
     558:	08351100 	ldmdaeq	r5!, {r8, ip}
     55c:	81d80000 	bicshi	r0, r8, r0
     560:	78030000 	stmdavc	r3, {}	; <UNPREDICTABLE>
     564:	01000000 	mrseq	r0, (UNDEF: 0)
     568:	041a057b 	ldreq	r0, [sl], #-1403	; 0xfffffa85
     56c:	66100000 	ldrvs	r0, [r0], -r0
     570:	21000008 	tstcs	r0, r8
     574:	1f000003 	svcne	0x00000003
     578:	10000003 	andne	r0, r0, r3
     57c:	0000085b 	andeq	r0, r0, fp, asr r8
     580:	00000321 	andeq	r0, r0, r1, lsr #6
     584:	0000031f 	andeq	r0, r0, pc, lsl r3
     588:	00085010 	andeq	r5, r8, r0, lsl r0
     58c:	00033700 	andeq	r3, r3, r0, lsl #14
     590:	00033500 	andeq	r3, r3, r0, lsl #10
     594:	08461000 	stmdaeq	r6, {ip}^
     598:	034d0000 	movteq	r0, #53248	; 0xd000
     59c:	034b0000 	movteq	r0, #45056	; 0xb000
     5a0:	78120000 	ldmdavc	r2, {}	; <UNPREDICTABLE>
     5a4:	13000000 	movwne	r0, #0
     5a8:	0000093c 	andeq	r0, r0, ip, lsr r9
     5ac:	000081d8 	ldrdeq	r8, [r0], -r8	; <UNPREDICTABLE>
     5b0:	00007807 	andeq	r7, r0, r7, lsl #16
     5b4:	0c620200 	sfmeq	f0, 2, [r2], #-0
     5b8:	00096210 	andeq	r6, r9, r0, lsl r2
     5bc:	00036200 	andeq	r6, r3, r0, lsl #4
     5c0:	00036000 	andeq	r6, r3, r0
     5c4:	09571000 	ldmdbeq	r7, {ip}^
     5c8:	03780000 	cmneq	r8, #0, 0
     5cc:	03760000 	cmneq	r6, #0, 0
     5d0:	4d100000 	ldcmi	0, cr0, [r0, #-0]
     5d4:	8e000009 	cdphi	0, 0, cr0, cr0, cr9, {0}
     5d8:	8c000003 	stchi	0, cr0, [r0], {3}
     5dc:	14000003 	strne	r0, [r0], #-3
     5e0:	00000078 	andeq	r0, r0, r8, ror r0
     5e4:	16000000 	strne	r0, [r0], -r0
     5e8:	00008130 	andeq	r8, r0, r0, lsr r1
     5ec:	00000a45 	andeq	r0, r0, r5, asr #20
     5f0:	0000042d 	andeq	r0, r0, sp, lsr #8
     5f4:	01500117 	cmpeq	r0, r7, lsl r1
     5f8:	3418004e 	ldrcc	r0, [r8], #-78	; 0xffffffb2
     5fc:	51000081 	smlabbpl	r0, r1, r0, r0
     600:	1600000a 	strne	r0, [r0], -sl
     604:	0000813c 	andeq	r8, r0, ip, lsr r1
     608:	00000a45 	andeq	r0, r0, r5, asr #20
     60c:	00000449 	andeq	r0, r0, r9, asr #8
     610:	01500117 	cmpeq	r0, r7, lsl r1
     614:	4018004e 	andsmi	r0, r8, lr, asr #32
     618:	f5000081 			; <UNDEFINED> instruction: 0xf5000081
     61c:	16000007 	strne	r0, [r0], -r7
     620:	00008148 	andeq	r8, r0, r8, asr #2
     624:	00000a5d 	andeq	r0, r0, sp, asr sl
     628:	00000465 	andeq	r0, r0, r5, ror #8
     62c:	01500117 	cmpeq	r0, r7, lsl r1
     630:	54160049 	ldrpl	r0, [r6], #-73	; 0xffffffb7
     634:	d4000081 	strle	r0, [r0], #-129	; 0xffffff7f
     638:	7e000006 	cdpvc	0, 0, cr0, cr0, cr6, {0}
     63c:	17000004 	strne	r0, [r0, -r4]
     640:	08025001 	stmdaeq	r2, {r0, ip, lr}
     644:	51011748 	tstpl	r1, r8, asr #14
     648:	16003101 	strne	r3, [r0], -r1, lsl #2
     64c:	00008170 	andeq	r8, r0, r0, ror r1
     650:	00000a69 	andeq	r0, r0, r9, ror #20
     654:	000004a5 	andeq	r0, r0, r5, lsr #9
     658:	05500117 	ldrbeq	r0, [r0, #-279]	; 0xfffffee9
     65c:	009a5403 	addseq	r5, sl, r3, lsl #8
     660:	51011700 	tstpl	r1, r0, lsl #14
     664:	17007402 	strne	r7, [r0, -r2, lsl #8]
     668:	75065301 	strvc	r5, [r6, #-769]	; 0xfffffcff
     66c:	ffff0a00 			; <UNDEFINED> instruction: 0xffff0a00
     670:	a416001a 	ldrge	r0, [r6], #-26	; 0xffffffe6
     674:	69000081 	stmdbvs	r0, {r0, r7}
     678:	c300000a 	movwgt	r0, #10
     67c:	17000004 	strne	r0, [r0, -r4]
     680:	03055001 	movweq	r5, #20481	; 0x5001
     684:	00009b04 	andeq	r9, r0, r4, lsl #22
     688:	03510117 	cmpeq	r1, #-1073741819	; 0xc0000005
     68c:	0002e00a 	andeq	lr, r2, sl
     690:	0081b416 	addeq	fp, r1, r6, lsl r4
     694:	00077000 	andeq	r7, r7, r0
     698:	0004e300 	andeq	lr, r4, r0, lsl #6
     69c:	50011700 	andpl	r1, r1, r0, lsl #14
     6a0:	17480802 	strbne	r0, [r8, -r2, lsl #16]
     6a4:	31015101 	tstcc	r1, r1, lsl #2
     6a8:	03520117 	cmpeq	r2, #-1073741819	; 0xc0000005
     6ac:	0002e00a 	andeq	lr, r2, sl
     6b0:	0081c016 	addeq	ip, r1, r6, lsl r0
     6b4:	0006d400 	andeq	sp, r6, r0, lsl #8
     6b8:	0004fc00 	andeq	pc, r4, r0, lsl #24
     6bc:	50011700 	andpl	r1, r1, r0, lsl #14
     6c0:	17480802 	strbne	r0, [r8, -r2, lsl #16]
     6c4:	31015101 	tstcc	r1, r1, lsl #2
     6c8:	81f81800 	mvnshi	r1, r0, lsl #16
     6cc:	0a750000 	beq	1d406d4 <__bss_end__+0x1d3647c>
     6d0:	14160000 	ldrne	r0, [r6], #-0
     6d4:	69000082 	stmdbvs	r0, {r1, r7}
     6d8:	3e00000a 	cdpcc	0, 0, cr0, cr0, cr10, {0}
     6dc:	17000005 	strne	r0, [r0, -r5]
     6e0:	03055001 	movweq	r5, #20481	; 0x5001
     6e4:	00009a8c 	andeq	r9, r0, ip, lsl #21
     6e8:	05510117 	ldrbeq	r0, [r1, #-279]	; 0xfffffee9
     6ec:	009a8003 	addseq	r8, sl, r3
     6f0:	52011700 	andpl	r1, r1, #0, 14
     6f4:	9b900305 	blls	fe401310 <__bss_end__+0xfe3f70b8>
     6f8:	01170000 	tsteq	r7, r0
     6fc:	65080253 	strvs	r0, [r8, #-595]	; 0xfffffdad
     700:	007d0217 	rsbseq	r0, sp, r7, lsl r2
     704:	9ac00305 	bls	ff001320 <__bss_end__+0xfeff70c8>
     708:	18000000 	stmdane	r0, {}	; <UNPREDICTABLE>
     70c:	00008218 	andeq	r8, r0, r8, lsl r2
     710:	00000a81 	andeq	r0, r0, r1, lsl #21
     714:	00821c18 	addeq	r1, r2, r8, lsl ip
     718:	000a7500 	andeq	r7, sl, r0, lsl #10
     71c:	82381600 	eorshi	r1, r8, #0, 12
     720:	0a690000 	beq	1a40728 <__bss_end__+0x1a364d0>
     724:	05890000 	streq	r0, [r9]
     728:	01170000 	tsteq	r7, r0
     72c:	8c030550 	cfstr32hi	mvfx0, [r3], {80}	; 0x50
     730:	1700009a 			; <UNDEFINED> instruction: 0x1700009a
     734:	03055101 	movweq	r5, #20737	; 0x5101
     738:	00009a80 	andeq	r9, r0, r0, lsl #21
     73c:	05520117 	ldrbeq	r0, [r2, #-279]	; 0xfffffee9
     740:	009b9003 	addseq	r9, fp, r3
     744:	53011700 	movwpl	r1, #5888	; 0x1700
     748:	17660802 	strbne	r0, [r6, -r2, lsl #16]!
     74c:	05007d02 	streq	r7, [r0, #-3330]	; 0xfffff2fe
     750:	009ad003 	addseq	sp, sl, r3
     754:	3c180000 	ldccc	0, cr0, [r8], {-0}
     758:	81000082 	smlabbhi	r0, r2, r0, r0
     75c:	1800000a 	stmdane	r0, {r1, r3}
     760:	00008240 	andeq	r8, r0, r0, asr #4
     764:	00000a75 	andeq	r0, r0, r5, ror sl
     768:	00825c16 	addeq	r5, r2, r6, lsl ip
     76c:	000a6900 	andeq	r6, sl, r0, lsl #18
     770:	0005d400 	andeq	sp, r5, r0, lsl #8
     774:	50011700 	andpl	r1, r1, r0, lsl #14
     778:	9a8c0305 	bls	fe301394 <__bss_end__+0xfe2f713c>
     77c:	01170000 	tsteq	r7, r0
     780:	80030551 	andhi	r0, r3, r1, asr r5
     784:	1700009a 			; <UNDEFINED> instruction: 0x1700009a
     788:	03055201 	movweq	r5, #20993	; 0x5201
     78c:	00009b90 	muleq	r0, r0, fp
     790:	02530117 	subseq	r0, r3, #-1073741819	; 0xc0000005
     794:	02176708 	andseq	r6, r7, #8, 14	; 0x200000
     798:	0305007d 	movweq	r0, #20605	; 0x507d
     79c:	00009ae8 	andeq	r9, r0, r8, ror #21
     7a0:	82601800 	rsbhi	r1, r0, #0, 16
     7a4:	0a810000 	beq	fe0407ac <__bss_end__+0xfe036554>
     7a8:	64180000 	ldrvs	r0, [r8], #-0
     7ac:	75000082 	strvc	r0, [r0, #-130]	; 0xffffff7e
     7b0:	1600000a 	strne	r0, [r0], -sl
     7b4:	00008280 	andeq	r8, r0, r0, lsl #5
     7b8:	00000a69 	andeq	r0, r0, r9, ror #20
     7bc:	0000061f 	andeq	r0, r0, pc, lsl r6
     7c0:	05500117 	ldrbeq	r0, [r0, #-279]	; 0xfffffee9
     7c4:	009b1c03 	addseq	r1, fp, r3, lsl #24
     7c8:	51011700 	tstpl	r1, r0, lsl #14
     7cc:	9a800305 	bls	fe0013e8 <__bss_end__+0xfdff7190>
     7d0:	01170000 	tsteq	r7, r0
     7d4:	90030552 	andls	r0, r3, r2, asr r5
     7d8:	1700009b 			; <UNDEFINED> instruction: 0x1700009b
     7dc:	08025301 	stmdaeq	r2, {r0, r8, r9, ip, lr}
     7e0:	7d021779 	stcvc	7, cr1, [r2, #-484]	; 0xfffffe1c
     7e4:	48030500 	stmdami	r3, {r8, sl}
     7e8:	0000009b 	muleq	r0, fp, r0
     7ec:	00828418 	addeq	r8, r2, r8, lsl r4
     7f0:	000a8100 	andeq	r8, sl, r0, lsl #2
     7f4:	82881800 	addhi	r1, r8, #0, 16
     7f8:	0a750000 	beq	1d40800 <__bss_end__+0x1d365a8>
     7fc:	a4160000 	ldrge	r0, [r6], #-0
     800:	69000082 	stmdbvs	r0, {r1, r7}
     804:	6a00000a 	bvs	834 <__code_start__-0x77cc>
     808:	17000006 	strne	r0, [r0, -r6]
     80c:	03055001 	movweq	r5, #20481	; 0x5001
     810:	00009b1c 	andeq	r9, r0, ip, lsl fp
     814:	05510117 	ldrbeq	r0, [r1, #-279]	; 0xfffffee9
     818:	009a8003 	addseq	r8, sl, r3
     81c:	52011700 	andpl	r1, r1, #0, 14
     820:	9b900305 	blls	fe40143c <__bss_end__+0xfe3f71e4>
     824:	01170000 	tsteq	r7, r0
     828:	7a080253 	bvc	20117c <__bss_end__+0x1f6f24>
     82c:	007d0217 	rsbseq	r0, sp, r7, lsl r2
     830:	9b640305 	blls	190144c <__bss_end__+0x18f71f4>
     834:	18000000 	stmdane	r0, {}	; <UNPREDICTABLE>
     838:	000082a8 	andeq	r8, r0, r8, lsr #5
     83c:	00000a81 	andeq	r0, r0, r1, lsl #21
     840:	0082ac18 	addeq	sl, r2, r8, lsl ip
     844:	000a7500 	andeq	r7, sl, r0, lsl #10
     848:	82c81600 	sbchi	r1, r8, #0, 12
     84c:	0a690000 	beq	1a40854 <__bss_end__+0x1a365fc>
     850:	06b50000 	ldrteq	r0, [r5], r0
     854:	01170000 	tsteq	r7, r0
     858:	1c030550 	cfstr32ne	mvfx0, [r3], {80}	; 0x50
     85c:	1700009b 			; <UNDEFINED> instruction: 0x1700009b
     860:	03055101 	movweq	r5, #20737	; 0x5101
     864:	00009a80 	andeq	r9, r0, r0, lsl #21
     868:	05520117 	ldrbeq	r0, [r2, #-279]	; 0xfffffee9
     86c:	009b9003 	addseq	r9, fp, r3
     870:	53011700 	movwpl	r1, #5888	; 0x1700
     874:	177b0802 	ldrbne	r0, [fp, -r2, lsl #16]!
     878:	05007d02 	streq	r7, [r0, #-3330]	; 0xfffff2fe
     87c:	009b7803 	addseq	r7, fp, r3, lsl #16
     880:	cc180000 	ldcgt	0, cr0, [r8], {-0}
     884:	81000082 	smlabbhi	r0, r2, r0, r0
     888:	0000000a 	andeq	r0, r0, sl
     88c:	0000cc19 	andeq	ip, r0, r9, lsl ip
     890:	0006cf00 	andeq	ip, r6, r0, lsl #30
     894:	002c1a00 	eoreq	r1, ip, r0, lsl #20
     898:	000e0000 	andeq	r0, lr, r0
     89c:	0006bf09 	andeq	fp, r6, r9, lsl #30
     8a0:	004c0c00 	subeq	r0, ip, r0, lsl #24
     8a4:	38010000 	stmdacc	r1, {}	; <UNPREDICTABLE>
     8a8:	0000620a 	andeq	r6, r0, sl, lsl #4
     8ac:	0080e000 	addeq	lr, r0, r0
     8b0:	00004000 	andeq	r4, r0, r0
     8b4:	609c0100 	addsvs	r0, ip, r0, lsl #2
     8b8:	1b000007 	blne	8dc <__code_start__-0x7724>
     8bc:	000000de 	ldrdeq	r0, [r0], -lr
     8c0:	4f213801 	svcmi	0x00213801
     8c4:	a5000000 	strge	r0, [r0, #-0]
     8c8:	a1000003 	tstge	r0, r3
     8cc:	1c000003 	stcne	0, cr0, [r0], {3}
     8d0:	00676572 	rsbeq	r6, r7, r2, ror r5
     8d4:	4f333801 	svcmi	0x00333801
     8d8:	ca000000 	bgt	8e0 <__code_start__-0x7720>
     8dc:	c6000003 	strgt	r0, [r0], -r3
     8e0:	1d000003 	stcne	0, cr0, [r0, #-12]
     8e4:	00000a90 	muleq	r0, r0, sl
     8e8:	600a3b01 	andvs	r3, sl, r1, lsl #22
     8ec:	02000007 	andeq	r0, r0, #7, 0
     8f0:	fc167491 	ldc2	4, cr7, [r6], {145}	; 0x91
     8f4:	8d000080 	stchi	0, cr0, [r0, #-512]	; 0xfffffe00
     8f8:	4400000a 	strmi	r0, [r0], #-10
     8fc:	17000007 	strne	r0, [r0, -r7]
     900:	74025001 	strvc	r5, [r2], #-1
     904:	51011700 	tstpl	r1, r0, lsl #14
     908:	17679102 	strbne	r9, [r7, -r2, lsl #2]!
     90c:	31015201 	tstcc	r1, r1, lsl #4
     910:	810c1e00 	tsthi	ip, r0, lsl #28
     914:	0a990000 	beq	fe64091c <__bss_end__+0xfe6366c4>
     918:	01170000 	tsteq	r7, r0
     91c:	00740250 	rsbseq	r0, r4, r0, asr r2
     920:	02510117 	subseq	r0, r1, #-1073741819	; 0xc0000005
     924:	01176c91 			; <UNDEFINED> instruction: 0x01176c91
     928:	00320152 	eorseq	r0, r2, r2, asr r1
     92c:	00c51900 	sbceq	r1, r5, r0, lsl #18
     930:	07700000 	ldrbeq	r0, [r0, -r0]!
     934:	2c1a0000 	ldccs	0, cr0, [sl], {-0}
     938:	01000000 	mrseq	r0, (UNDEF: 0)
     93c:	027e1f00 	rsbseq	r1, lr, #0, 30
     940:	2c010000 	stccs	0, cr0, [r1], {-0}
     944:	0080b406 	addeq	fp, r0, r6, lsl #8
     948:	00002c00 	andeq	r2, r0, r0, lsl #24
     94c:	e59c0100 	ldr	r0, [ip, #256]	; 0x100
     950:	1b000007 	blne	974 <__code_start__-0x768c>
     954:	000000de 	ldrdeq	r0, [r0], -lr
     958:	4f1e2c01 	svcmi	0x001e2c01
     95c:	ed000000 	stc	0, cr0, [r0, #-0]
     960:	e9000003 	stmdb	r0, {r0, r1}
     964:	1c000003 	stcne	0, cr0, [r0], {3}
     968:	00676572 	rsbeq	r6, r7, r2, ror r5
     96c:	4f302c01 	svcmi	0x00302c01
     970:	14000000 	strne	r0, [r0], #-0
     974:	0e000004 	cdpeq	0, 0, cr0, cr0, cr4, {0}
     978:	1c000004 	stcne	0, cr0, [r0], {4}
     97c:	2c010076 	stccs	0, cr0, [r1], {118}	; 0x76
     980:	0000623e 	andeq	r6, r0, lr, lsr r2
     984:	00044500 	andeq	r4, r4, r0, lsl #10
     988:	00044100 	andeq	r4, r4, r0, lsl #2
     98c:	01ab1d00 			; <UNDEFINED> instruction: 0x01ab1d00
     990:	2d010000 	stccs	0, cr0, [r1, #-0]
     994:	0007e50a 	andeq	lr, r7, sl, lsl #10
     998:	74910200 	ldrvc	r0, [r1], #512	; 0x200
     99c:	0080d81e 	addeq	sp, r0, lr, lsl r8
     9a0:	000a8d00 	andeq	r8, sl, r0, lsl #26
     9a4:	51011700 	tstpl	r1, r0, lsl #14
     9a8:	176c9102 	strbne	r9, [ip, -r2, lsl #2]!
     9ac:	33015201 	movwcc	r5, #4609	; 0x1201
     9b0:	c5190000 	ldrgt	r0, [r9, #-0]
     9b4:	f5000000 			; <UNDEFINED> instruction: 0xf5000000
     9b8:	1a000007 	bne	9dc <__code_start__-0x7624>
     9bc:	0000002c 	andeq	r0, r0, ip, lsr #32
     9c0:	c61f0002 	ldrgt	r0, [pc], -r2
     9c4:	01000001 	tsteq	r0, r1
     9c8:	808c0621 	addhi	r0, ip, r1, lsr #12
     9cc:	00280000 	eoreq	r0, r8, r0
     9d0:	9c010000 	stcls	0, cr0, [r1], {-0}
     9d4:	00000835 	andeq	r0, r0, r5, lsr r8
     9d8:	74737220 	ldrbtvc	r7, [r3], #-544	; 0xfffffde0
     9dc:	0d220100 	stfeqs	f0, [r2, #-0]
     9e0:	0000004f 	andeq	r0, r0, pc, asr #32
     9e4:	1e779102 	expnes	f1, f2
     9e8:	000080ac 	andeq	r8, r0, ip, lsr #1
     9ec:	00000a8d 	andeq	r0, r0, sp, lsl #21
     9f0:	01500117 	cmpeq	r0, r7, lsl r1
     9f4:	51011730 	tstpl	r1, r0, lsr r7
     9f8:	176f9102 	strbne	r9, [pc, -r2, lsl #2]!
     9fc:	31015201 	tstcc	r1, r1, lsl #4
     a00:	4b210000 	blmi	840a08 <__bss_end__+0x8367b0>
     a04:	02000002 	andeq	r0, r0, #2, 0
     a08:	002c015f 	eoreq	r0, ip, pc, asr r1
     a0c:	7c030000 	stcvc	0, cr0, [r3], {-0}
     a10:	22000008 	andcs	r0, r0, #8, 0
     a14:	5f020078 	svcpl	0x00020078
     a18:	00007512 	andeq	r7, r0, r2, lsl r5
     a1c:	626c2200 	rsbvs	r2, ip, #0, 4
     a20:	1e5f0200 	cdpne	2, 5, cr0, cr15, cr0, {0}
     a24:	0000002c 	andeq	r0, r0, ip, lsr #32
     a28:	00627522 	rsbeq	r7, r2, r2, lsr #10
     a2c:	2c2b5f02 	stccs	15, cr5, [fp], #-8
     a30:	22000000 	andcs	r0, r0, #0, 0
     a34:	006c6176 	rsbeq	r6, ip, r6, ror r1
     a38:	75385f02 	ldrvc	r5, [r8, #-3842]!	; 0xfffff0fe
     a3c:	23000000 	movwcs	r0, #0
     a40:	000001b4 			; <UNDEFINED> instruction: 0x000001b4
     a44:	0000088c 	andeq	r0, r0, ip, lsl #17
     a48:	00cc1900 	sbceq	r1, ip, r0, lsl #18
     a4c:	088c0000 	stmeq	ip, {}	; <UNPREDICTABLE>
     a50:	2c1a0000 	ldccs	0, cr0, [sl], {-0}
     a54:	07000000 	streq	r0, [r0, -r0]
     a58:	087c0900 	ldmdaeq	ip!, {r8, fp}^
     a5c:	bd210000 	stclt	0, cr0, [r1, #-0]
     a60:	02000001 	andeq	r0, r0, #1, 0
     a64:	0075014d 	rsbseq	r0, r5, sp, asr #2
     a68:	e0030000 	and	r0, r3, r0
     a6c:	22000008 	andcs	r0, r0, #8, 0
     a70:	4d020078 	stcmi	0, cr0, [r2, #-480]	; 0xfffffe20
     a74:	00007513 	andeq	r7, r0, r3, lsl r5
     a78:	626c2200 	rsbvs	r2, ip, #0, 4
     a7c:	1f4d0200 	svcne	0x004d0200
     a80:	0000002c 	andeq	r0, r0, ip, lsr #32
     a84:	00627522 	rsbeq	r7, r2, r2, lsr #10
     a88:	2c2c4d02 	stccs	13, cr4, [ip], #-8
     a8c:	22000000 	andcs	r0, r0, #0, 0
     a90:	4d020076 	stcmi	0, cr0, [r2, #-472]	; 0xfffffe28
     a94:	00007539 	andeq	r7, r0, r9, lsr r5
     a98:	01b42300 			; <UNDEFINED> instruction: 0x01b42300
     a9c:	08f00000 	ldmeq	r0!, {}^	; <UNPREDICTABLE>
     aa0:	6e240000 	cdpvs	0, 2, cr0, cr4, cr0, {0}
     aa4:	0e560200 	cdpeq	2, 5, cr0, cr6, cr0, {0}
     aa8:	0000002c 	andeq	r0, r0, ip, lsr #32
     aac:	00cc1900 	sbceq	r1, ip, r0, lsl #18
     ab0:	08f00000 	ldmeq	r0!, {}^	; <UNPREDICTABLE>
     ab4:	2c1a0000 	ldccs	0, cr0, [sl], {-0}
     ab8:	08000000 	stmdaeq	r0, {}	; <UNPREDICTABLE>
     abc:	08e00900 	stmiaeq	r0!, {r8, fp}^
     ac0:	e1210000 			; <UNDEFINED> instruction: 0xe1210000
     ac4:	02000001 	andeq	r0, r0, #1, 0
     ac8:	00750141 	rsbseq	r0, r5, r1, asr #2
     acc:	3c030000 	stccc	0, cr0, [r3], {-0}
     ad0:	22000009 	andcs	r0, r0, #9, 0
     ad4:	41020078 	tstmi	r2, r8, ror r0
     ad8:	00007513 	andeq	r7, r0, r3, lsl r5
     adc:	626c2200 	rsbvs	r2, ip, #0, 4
     ae0:	1f410200 	svcne	0x00410200
     ae4:	0000002c 	andeq	r0, r0, ip, lsr #32
     ae8:	00627522 	rsbeq	r7, r2, r2, lsr #10
     aec:	2c2c4102 	stfcss	f4, [ip], #-8
     af0:	23000000 	movwcs	r0, #0
     af4:	000001b4 			; <UNDEFINED> instruction: 0x000001b4
     af8:	000008f0 	strdeq	r0, [r0], -r0	; <UNPREDICTABLE>
     afc:	00023525 	andeq	r3, r2, r5, lsr #10
     b00:	0e450200 	cdpeq	2, 4, cr0, cr5, cr0, {0}
     b04:	00000075 	andeq	r0, r0, r5, ror r0
     b08:	01a22100 			; <UNDEFINED> instruction: 0x01a22100
     b0c:	39020000 	stmdbcc	r2, {}	; <UNPREDICTABLE>
     b10:	00007501 	andeq	r7, r0, r1, lsl #10
     b14:	09770300 	ldmdbeq	r7!, {r8, r9}^
     b18:	78220000 	stmdavc	r2!, {}	; <UNPREDICTABLE>
     b1c:	13390200 	teqne	r9, #0, 4
     b20:	00000075 	andeq	r0, r0, r5, ror r0
     b24:	00626c22 	rsbeq	r6, r2, r2, lsr #24
     b28:	2c1f3902 			; <UNDEFINED> instruction: 0x2c1f3902
     b2c:	22000000 	andcs	r0, r0, #0, 0
     b30:	02006275 	andeq	r6, r0, #1342177287	; 0x50000007
     b34:	002c2c39 	eoreq	r2, ip, r9, lsr ip
     b38:	b4230000 	strtlt	r0, [r3], #-0
     b3c:	f0000001 			; <UNDEFINED> instruction: 0xf0000001
     b40:	00000008 	andeq	r0, r0, r8
     b44:	00023021 	andeq	r3, r2, r1, lsr #32
     b48:	182f0200 	stmdane	pc!, {r9}	; <UNPREDICTABLE>
     b4c:	00000075 	andeq	r0, r0, r5, ror r0
     b50:	00099e03 	andeq	r9, r9, r3, lsl #28
     b54:	019c2600 	orrseq	r2, ip, r0, lsl #12
     b58:	2f020000 	svccs	0x00020000
     b5c:	00002c2b 	andeq	r2, r0, fp, lsr #24
     b60:	01b42300 			; <UNDEFINED> instruction: 0x01b42300
     b64:	09ae0000 	stmibeq	lr!, {}	; <UNPREDICTABLE>
     b68:	19000000 	stmdbne	r0, {}	; <UNPREDICTABLE>
     b6c:	000000cc 	andeq	r0, r0, ip, asr #1
     b70:	000009ae 	andeq	r0, r0, lr, lsr #19
     b74:	00002c1a 	andeq	r2, r0, sl, lsl ip
     b78:	09000900 	stmdbeq	r0, {r8, fp}
     b7c:	0000099e 	muleq	r0, lr, r9
     b80:	0001fd21 	andeq	pc, r1, r1, lsr #26
     b84:	01230200 			; <UNDEFINED> instruction: 0x01230200
     b88:	0000002c 	andeq	r0, r0, ip, lsr #32
     b8c:	0009db03 	andeq	sp, r9, r3, lsl #22
     b90:	00782200 	rsbseq	r2, r8, r0, lsl #4
     b94:	75152302 	ldrvc	r2, [r5, #-770]	; 0xfffffcfe
     b98:	22000000 	andcs	r0, r0, #0, 0
     b9c:	00746962 	rsbseq	r6, r4, r2, ror #18
     ba0:	2c212302 	stccs	3, cr2, [r1], #-8
     ba4:	00000000 	andeq	r0, r0, r0
     ba8:	00021e21 	andeq	r1, r2, r1, lsr #28
     bac:	011e0200 	tsteq	lr, r0, lsl #4
     bb0:	0000002c 	andeq	r0, r0, ip, lsr #32
     bb4:	000a1003 	andeq	r1, sl, r3
     bb8:	00782200 	rsbseq	r2, r8, r0, lsl #4
     bbc:	75141e02 	ldrvc	r1, [r4, #-3586]	; 0xfffff1fe
     bc0:	22000000 	andcs	r0, r0, #0, 0
     bc4:	00746962 	rsbseq	r6, r4, r2, ror #18
     bc8:	2c201e02 	stccs	14, cr1, [r0], #-8
     bcc:	27000000 	strcs	r0, [r0, -r0]
     bd0:	000001b4 			; <UNDEFINED> instruction: 0x000001b4
     bd4:	000009ae 	andeq	r0, r0, lr, lsr #19
     bd8:	0000021e 	andeq	r0, r0, lr, lsl r2
     bdc:	023a2100 	eorseq	r2, sl, #0
     be0:	07020000 	streq	r0, [r2, -r0]
     be4:	00007501 	andeq	r7, r0, r1, lsl #10
     be8:	0a450300 	beq	11417f0 <__bss_end__+0x1137598>
     bec:	78220000 	stmdavc	r2!, {}	; <UNPREDICTABLE>
     bf0:	12070200 	andne	r0, r7, #0, 4
     bf4:	00000075 	andeq	r0, r0, r5, ror r0
     bf8:	74696222 	strbtvc	r6, [r9], #-546	; 0xfffffdde
     bfc:	1e070200 	cdpne	2, 0, cr0, cr7, cr0, {0}
     c00:	0000002c 	andeq	r0, r0, ip, lsr #32
     c04:	0001b427 	andeq	fp, r1, r7, lsr #8
     c08:	00088c00 	andeq	r8, r8, r0, lsl #24
     c0c:	00023a00 	andeq	r3, r2, r0, lsl #20
     c10:	30280000 	eorcc	r0, r8, r0
     c14:	30000000 	andcc	r0, r0, r0
     c18:	04000000 	streq	r0, [r0], #-0
     c1c:	ea280658 	b	a02584 <__bss_end__+0x9f832c>
     c20:	ea000001 	b	c2c <__code_start__-0x73d4>
     c24:	06000001 	streq	r0, [r0], -r1
     c28:	15280606 	strne	r0, [r8, #-1542]!	; 0xfffff9fa
     c2c:	15000002 	strne	r0, [r0, #-2]
     c30:	04000002 	streq	r0, [r0], #-2
     c34:	ec280656 	stc	6, cr0, [r8], #-344	; 0xfffffea8
     c38:	ec000006 	stc	0, cr0, [r0], {6}
     c3c:	04000006 	streq	r0, [r0], #-6
     c40:	6f280628 	svcvs	0x00280628
     c44:	6f000002 	svcvs	0x00000002
     c48:	04000002 	streq	r0, [r0], #-2
     c4c:	d428061d 	strtle	r0, [r8], #-1565	; 0xfffff9e3
     c50:	d4000001 	strle	r0, [r0], #-1
     c54:	04000001 	streq	r0, [r0], #-1
     c58:	f328066e 	vmax.u32	q0, q4, q15
     c5c:	f3000001 	vhadd.u8	d0, d0, d1
     c60:	06000001 	streq	r0, [r0], -r1
     c64:	5328050c 			; <UNDEFINED> instruction: 0x5328050c
     c68:	53000002 	movwpl	r0, #2
     c6c:	06000002 	streq	r0, [r0], -r2
     c70:	d600050e 	strle	r0, [r0], -lr, lsl #10
     c74:	04000013 	streq	r0, [r0], #-19	; 0xffffffed
     c78:	00037300 	andeq	r7, r3, r0, lsl #6
     c7c:	ce010400 	cfcpysgt	mvf0, mvf1
     c80:	0c000003 	stceq	0, cr0, [r0], {3}
     c84:	00000478 	andeq	r0, r0, r8, ror r4
     c88:	000002b1 			; <UNDEFINED> instruction: 0x000002b1
     c8c:	000082fc 	strdeq	r8, [r0], -ip
     c90:	00000578 	andeq	r0, r0, r8, ror r5
     c94:	00000467 	andeq	r0, r0, r7, ror #8
     c98:	69050402 	stmdbvs	r5, {r1, sl}
     c9c:	0300746e 	movweq	r7, #1134	; 0x46e
     ca0:	007d0704 	rsbseq	r0, sp, r4, lsl #14
     ca4:	2c040000 	stccs	0, cr0, [r4], {-0}
     ca8:	03000000 	movweq	r0, #0
     cac:	00240601 	eoreq	r0, r4, r1, lsl #12
     cb0:	02030000 	andeq	r0, r3, #0, 0
     cb4:	0000a405 	andeq	sl, r0, r5, lsl #8
     cb8:	05040300 	streq	r0, [r4, #-768]	; 0xfffffd00
     cbc:	0000008f 	andeq	r0, r0, pc, lsl #1
     cc0:	8a050803 	bhi	142cd4 <__bss_end__+0x138a7c>
     cc4:	05000000 	streq	r0, [r0, #-0]
     cc8:	00000228 	andeq	r0, r0, r8, lsr #4
     ccc:	60182e02 	andsvs	r2, r8, r2, lsl #28
     cd0:	03000000 	movweq	r0, #0
     cd4:	00220801 	eoreq	r0, r2, r1, lsl #16
     cd8:	02030000 	andeq	r0, r3, #0, 0
     cdc:	00003907 	andeq	r3, r0, r7, lsl #18
     ce0:	025c0500 	subseq	r0, ip, #0, 10
     ce4:	34020000 	strcc	r0, [r2], #-0
     ce8:	00007a19 	andeq	r7, r0, r9, lsl sl
     cec:	07040300 	streq	r0, [r4, -r0, lsl #6]
     cf0:	00000078 	andeq	r0, r0, r8, ror r0
     cf4:	73070803 	movwvc	r0, #30723	; 0x7803
     cf8:	03000000 	movweq	r0, #0
     cfc:	002b0801 	eoreq	r0, fp, r1, lsl #16
     d00:	88040000 	stmdahi	r4, {}	; <UNPREDICTABLE>
     d04:	06000000 	streq	r0, [r0], -r0
     d08:	00600107 	rsbeq	r0, r0, r7, lsl #2
     d0c:	0c040000 	stceq	0, cr0, [r4], {-0}
     d10:	0000d30e 	andeq	sp, r0, lr, lsl #6
     d14:	03b90700 			; <UNDEFINED> instruction: 0x03b90700
     d18:	07000000 	streq	r0, [r0, -r0]
     d1c:	0000030a 	andeq	r0, r0, sl, lsl #6
     d20:	03230701 			; <UNDEFINED> instruction: 0x03230701
     d24:	07040000 	streq	r0, [r4, -r0]
     d28:	00000332 	andeq	r0, r0, r2, lsr r3
     d2c:	03410705 	movteq	r0, #5893	; 0x1705
     d30:	07060000 	streq	r0, [r6, -r0]
     d34:	00000350 	andeq	r0, r0, r0, asr r3
     d38:	035f0707 	cmpeq	pc, #1835008	; 0x1c0000
     d3c:	07030000 	streq	r0, [r3, -r0]
     d40:	0000036e 	andeq	r0, r0, lr, ror #6
     d44:	04080002 	streq	r0, [r8], #-2
     d48:	8c095901 			; <UNDEFINED> instruction: 0x8c095901
     d4c:	09000001 	stmdbeq	r0, {r0}
     d50:	00000257 	andeq	r0, r0, r7, asr r2
     d54:	6e0b5a01 	vmlavs.f32	s10, s22, s2
     d58:	04000000 	streq	r0, [r0], #-0
     d5c:	09001f01 	stmdbeq	r0, {r0, r8, r9, sl, fp, ip}
     d60:	0000050d 	andeq	r0, r0, sp, lsl #10
     d64:	6e035c01 	cdpvs	12, 0, cr5, cr3, cr1, {0}
     d68:	04000000 	streq	r0, [r0], #-0
     d6c:	09001c03 	stmdbeq	r0, {r0, r1, sl, fp, ip}
     d70:	000003ae 	andeq	r0, r0, lr, lsr #7
     d74:	6e035d01 	cdpvs	13, 0, cr5, cr3, cr1, {0}
     d78:	04000000 	streq	r0, [r0], #-0
     d7c:	09001a02 	stmdbeq	r0, {r1, r9, fp, ip}
     d80:	00000517 	andeq	r0, r0, r7, lsl r5
     d84:	6e036301 	cdpvs	3, 0, cr6, cr3, cr1, {0}
     d88:	04000000 	streq	r0, [r0], #-0
     d8c:	0a001901 	beq	7198 <__code_start__-0xe68>
     d90:	01007473 	tsteq	r0, r3, ror r4
     d94:	006e0364 	rsbeq	r0, lr, r4, ror #6
     d98:	01040000 	mrseq	r0, (UNDEF: 4)
     d9c:	c9090018 	stmdbgt	r9, {r3, r4}
     da0:	01000003 	tsteq	r0, r3
     da4:	006e0368 	rsbeq	r0, lr, r8, ror #6
     da8:	01040000 	mrseq	r0, (UNDEF: 4)
     dac:	66090017 			; <UNDEFINED> instruction: 0x66090017
     db0:	01000004 	tsteq	r0, r4
     db4:	006e036b 	rsbeq	r0, lr, fp, ror #6
     db8:	01040000 	mrseq	r0, (UNDEF: 4)
     dbc:	61090016 	tstvs	r9, r6, lsl r0
     dc0:	01000004 	tsteq	r0, r4
     dc4:	006e036e 	rsbeq	r0, lr, lr, ror #6
     dc8:	01040000 	mrseq	r0, (UNDEF: 4)
     dcc:	21090015 	tstcs	r9, r5, lsl r0
     dd0:	01000005 	tsteq	r0, r5
     dd4:	006e0371 	rsbeq	r0, lr, r1, ror r3
     dd8:	04040000 	streq	r0, [r4], #-0
     ddc:	9e090011 	mcrls	0, 0, r0, cr9, cr1, {0}
     de0:	01000004 	tsteq	r0, r4
     de4:	006e0372 	rsbeq	r0, lr, r2, ror r3
     de8:	01040000 	mrseq	r0, (UNDEF: 4)
     dec:	2b090010 	blcs	240e34 <__bss_end__+0x236bdc>
     df0:	01000005 	tsteq	r0, r5
     df4:	006e0375 	rsbeq	r0, lr, r5, ror r3
     df8:	10040000 	andne	r0, r4, r0
     dfc:	05000000 	streq	r0, [r0, #-0]
     e00:	00000393 	muleq	r0, r3, r3
     e04:	d3037601 	movwle	r7, #13825	; 0x3601
     e08:	0b000000 	bleq	e10 <__code_start__-0x71f0>
     e0c:	0000018c 	andeq	r0, r0, ip, lsl #3
     e10:	84010408 	strhi	r0, [r1], #-1032	; 0xfffffbf8
     e14:	00025609 	andeq	r5, r2, r9, lsl #12
     e18:	61740a00 	cmnvs	r4, r0, lsl #20
     e1c:	0b850100 	bleq	fe141224 <__bss_end__+0xfe136fcc>
     e20:	0000002c 	andeq	r0, r0, ip, lsr #32
     e24:	001f0104 	andseq	r0, pc, r4, lsl #2
     e28:	0003b409 	andeq	fp, r3, r9, lsl #8
     e2c:	03880100 	orreq	r0, r8, #0
     e30:	0000002c 	andeq	r0, r0, ip, lsr #32
     e34:	001e0104 	andseq	r0, lr, r4, lsl #2
     e38:	7778740a 	ldrbvc	r7, [r8, -sl, lsl #8]!
     e3c:	038c0100 	orreq	r0, ip, #0
     e40:	0000002c 	andeq	r0, r0, ip, lsr #32
     e44:	001d0104 	andseq	r0, sp, r4, lsl #2
     e48:	7278720a 	rsbsvc	r7, r8, #-1610612736	; 0xa0000000
     e4c:	03920100 	orrseq	r0, r2, #0
     e50:	0000002c 	andeq	r0, r0, ip, lsr #32
     e54:	001c0104 	andseq	r0, ip, r4, lsl #2
     e58:	6478740a 	ldrbtvs	r7, [r8], #-1034	; 0xfffffbf6
     e5c:	03980100 	orrseq	r0, r8, #0
     e60:	0000002c 	andeq	r0, r0, ip, lsr #32
     e64:	001b0104 	andseq	r0, fp, r4, lsl #2
     e68:	6478720a 	ldrbtvs	r7, [r8], #-522	; 0xfffffdf6
     e6c:	039b0100 	orrseq	r0, fp, #0
     e70:	0000002c 	andeq	r0, r0, ip, lsr #32
     e74:	001a0104 	andseq	r0, sl, r4, lsl #2
     e78:	6578740a 	ldrbvs	r7, [r8, #-1034]!	; 0xfffffbf6
     e7c:	039f0100 	orrseq	r0, pc, #0
     e80:	0000002c 	andeq	r0, r0, ip, lsr #32
     e84:	00190104 	andseq	r0, r9, r4, lsl #2
     e88:	6678720a 	ldrbtvs	r7, [r8], -sl, lsl #4
     e8c:	03a40100 			; <UNDEFINED> instruction: 0x03a40100
     e90:	0000002c 	andeq	r0, r0, ip, lsr #32
     e94:	00180104 	andseq	r0, r8, r4, lsl #2
     e98:	7272650a 	rsbsvc	r6, r2, #41943040	; 0x2800000
     e9c:	03a70100 			; <UNDEFINED> instruction: 0x03a70100
     ea0:	0000002c 	andeq	r0, r0, ip, lsr #32
     ea4:	00170104 	andseq	r0, r7, r4, lsl #2
     ea8:	0004d709 	andeq	sp, r4, r9, lsl #14
     eac:	03ab0100 			; <UNDEFINED> instruction: 0x03ab0100
     eb0:	0000002c 	andeq	r0, r0, ip, lsr #32
     eb4:	00160104 	andseq	r0, r6, r4, lsl #2
     eb8:	00050d09 	andeq	r0, r5, r9, lsl #26
     ebc:	03b00100 	movseq	r0, #0
     ec0:	0000002c 	andeq	r0, r0, ip, lsr #32
     ec4:	00001604 	andeq	r1, r0, r4, lsl #12
     ec8:	037d0500 	cmneq	sp, #0, 10
     ecc:	b1010000 	mrslt	r0, (UNDEF: 1)
     ed0:	00019d03 	andeq	r9, r1, r3, lsl #26
     ed4:	02560b00 	subseq	r0, r6, #0, 22
     ed8:	960c0000 	strls	r0, [ip], -r0
     edc:	20000004 	andcs	r0, r0, r4
     ee0:	dd10bc01 	ldcle	12, cr11, [r0, #-4]
     ee4:	0d000002 	stceq	0, cr0, [r0, #-8]
     ee8:	00000470 	andeq	r0, r0, r0, ror r4
     eec:	8c0dbd01 	stchi	13, cr11, [sp], {1}
     ef0:	00000001 	andeq	r0, r0, r1
     ef4:	00053b0d 	andeq	r3, r5, sp, lsl #22
     ef8:	0dbe0100 	ldfeqs	f0, [lr]
     efc:	00000256 	andeq	r0, r0, r6, asr r2
     f00:	03880d04 	orreq	r0, r8, #4, 26	; 0x100
     f04:	c1010000 	mrsgt	r0, (UNDEF: 1)
     f08:	00006e0b 	andeq	r6, r0, fp, lsl #28
     f0c:	de0d0800 	cdple	8, 0, cr0, cr13, cr0, {0}
     f10:	01000000 	mrseq	r0, (UNDEF: 0)
     f14:	006e0cca 	rsbeq	r0, lr, sl, asr #25
     f18:	0d0c0000 	stceq	0, cr0, [ip, #-0]
     f1c:	0000046b 	andeq	r0, r0, fp, ror #8
     f20:	6e0bcc01 	cdpvs	12, 0, cr12, cr11, cr1, {0}
     f24:	10000000 	andne	r0, r0, r0
     f28:	0003a40d 	andeq	sl, r3, sp, lsl #8
     f2c:	0bce0100 	bleq	ff381334 <__bss_end__+0xff3770dc>
     f30:	0000006e 	andeq	r0, r0, lr, rrx
     f34:	05420d14 	strbeq	r0, [r2, #-3348]	; 0xfffff2ec
     f38:	d0010000 	andle	r0, r1, r0
     f3c:	00006e0b 	andeq	r6, r0, fp, lsl #28
     f40:	ec0d1800 	stc	8, cr1, [sp], {-0}
     f44:	01000002 	tsteq	r0, r2
     f48:	006e0bd2 	ldrdeq	r0, [lr], #-178	; 0xffffff4e	; <UNPREDICTABLE>
     f4c:	001c0000 	andseq	r0, ip, r0
     f50:	00049605 	andeq	r9, r4, r5, lsl #12
     f54:	03d30100 	bicseq	r0, r3, #0
     f58:	00000267 	andeq	r0, r0, r7, ror #4
     f5c:	0002dd0b 	andeq	sp, r2, fp, lsl #26
     f60:	32690e00 	rsbcc	r0, r9, #0, 28
     f64:	d7010063 	strle	r0, [r1, -r3, rrx]
     f68:	0002fa1a 	andeq	pc, r2, sl, lsl sl	; <UNPREDICTABLE>
     f6c:	e9040f00 	stmdb	r4, {r8, r9, sl, fp}
     f70:	10000002 	andne	r0, r0, r2
     f74:	00000296 	muleq	r0, r6, r2
     f78:	0c014201 	sfmeq	f4, 4, [r1], {1}
     f7c:	00000025 	andeq	r0, r0, r5, lsr #32
     f80:	9e500305 	cdpls	3, 5, cr0, cr0, cr5, {0}
     f84:	a4110000 	ldrge	r0, [r1], #-0
     f88:	01000002 	tsteq	r0, r2
     f8c:	460d0175 			; <UNDEFINED> instruction: 0x460d0175
     f90:	12000009 	andne	r0, r0, #9, 0
     f94:	00000208 	andeq	r0, r0, r8, lsl #4
     f98:	00000956 	andeq	r0, r0, r6, asr r9
     f9c:	000002a4 	andeq	r0, r0, r4, lsr #5
     fa0:	00038913 	andeq	r8, r3, r3, lsl r9
     fa4:	755f1400 	ldrbvc	r1, [pc, #-1024]	; bac <__code_start__-0x7454>
     fa8:	80010400 	andhi	r0, r1, r0, lsl #8
     fac:	03560201 	cmpeq	r6, #268435456	; 0x10000000
     fb0:	73150000 	tstvc	r5, #0, 0
     fb4:	01800100 	orreq	r0, r0, r0, lsl #2
     fb8:	00018c02 	andeq	r8, r1, r2, lsl #24
     fbc:	00751500 	rsbseq	r1, r5, r0, lsl #10
     fc0:	02018001 	andeq	r8, r1, #1, 0
     fc4:	0000002c 	andeq	r0, r0, ip, lsr #32
     fc8:	00781600 	rsbseq	r1, r8, r0, lsl #12
     fcc:	02018001 	andeq	r8, r1, #1, 0
     fd0:	00000332 	andeq	r0, r0, r2, lsr r3
     fd4:	70786516 	rsbsvc	r6, r8, r6, lsl r5
     fd8:	01800100 	orreq	r0, r0, r0, lsl #2
     fdc:	00002c02 	andeq	r2, r0, r2, lsl #24
     fe0:	039e1700 	orrseq	r1, lr, #0, 14
     fe4:	80010000 	andhi	r0, r1, r0
     fe8:	002c0201 	eoreq	r0, ip, r1, lsl #4
     fec:	8e170000 	cdphi	0, 1, cr0, cr7, cr0, {0}
     ff0:	01000002 	tsteq	r0, r2
     ff4:	2c020180 	stfcss	f0, [r2], {128}	; 0x80
     ff8:	00000000 	andeq	r0, r0, r0
     ffc:	0003e513 	andeq	lr, r3, r3, lsl r5
    1000:	755f1400 	ldrbvc	r1, [pc, #-1024]	; c08 <__code_start__-0x73f8>
    1004:	81010400 	tsthi	r1, r0, lsl #8
    1008:	03b20201 			; <UNDEFINED> instruction: 0x03b20201
    100c:	73150000 	tstvc	r5, #0, 0
    1010:	01810100 	orreq	r0, r1, r0, lsl #2
    1014:	00018c02 	andeq	r8, r1, r2, lsl #24
    1018:	00751500 	rsbseq	r1, r5, r0, lsl #10
    101c:	02018101 	andeq	r8, r1, #1073741824	; 0x40000000
    1020:	0000002c 	andeq	r0, r0, ip, lsr #32
    1024:	00781600 	rsbseq	r1, r8, r0, lsl #12
    1028:	02018101 	andeq	r8, r1, #1073741824	; 0x40000000
    102c:	0000038e 	andeq	r0, r0, lr, lsl #7
    1030:	70786516 	rsbsvc	r6, r8, r6, lsl r5
    1034:	01810100 	orreq	r0, r1, r0, lsl #2
    1038:	00002c02 	andeq	r2, r0, r2, lsl #24
    103c:	039e1700 	orrseq	r1, lr, #0, 14
    1040:	81010000 	mrshi	r0, (UNDEF: 1)
    1044:	002c0201 	eoreq	r0, ip, r1, lsl #4
    1048:	8e170000 	cdphi	0, 1, cr0, cr7, cr0, {0}
    104c:	01000002 	tsteq	r0, r2
    1050:	2c020181 	stfcss	f0, [r2], {129}	; 0x81
    1054:	00000000 	andeq	r0, r0, r0
    1058:	00044113 	andeq	r4, r4, r3, lsl r1
    105c:	755f1400 	ldrbvc	r1, [pc, #-1024]	; c64 <__code_start__-0x739c>
    1060:	82010400 	andhi	r0, r1, #0, 8
    1064:	040e0201 	streq	r0, [lr], #-513	; 0xfffffdff
    1068:	73150000 	tstvc	r5, #0, 0
    106c:	01820100 	orreq	r0, r2, r0, lsl #2
    1070:	00018c02 	andeq	r8, r1, r2, lsl #24
    1074:	00751500 	rsbseq	r1, r5, r0, lsl #10
    1078:	02018201 	andeq	r8, r1, #268435456	; 0x10000000
    107c:	0000002c 	andeq	r0, r0, ip, lsr #32
    1080:	00781600 	rsbseq	r1, r8, r0, lsl #12
    1084:	02018201 	andeq	r8, r1, #268435456	; 0x10000000
    1088:	000003ea 	andeq	r0, r0, sl, ror #7
    108c:	70786516 	rsbsvc	r6, r8, r6, lsl r5
    1090:	01820100 	orreq	r0, r2, r0, lsl #2
    1094:	00002c02 	andeq	r2, r0, r2, lsl #24
    1098:	039e1700 	orrseq	r1, lr, #0, 14
    109c:	82010000 	andhi	r0, r1, #0, 0
    10a0:	002c0201 	eoreq	r0, ip, r1, lsl #4
    10a4:	8e170000 	cdphi	0, 1, cr0, cr7, cr0, {0}
    10a8:	01000002 	tsteq	r0, r2
    10ac:	2c020182 	stfcss	f0, [r2], {130}	; 0x82
    10b0:	00000000 	andeq	r0, r0, r0
    10b4:	00049d13 	andeq	r9, r4, r3, lsl sp
    10b8:	755f1400 	ldrbvc	r1, [pc, #-1024]	; cc0 <__code_start__-0x7340>
    10bc:	83010400 	movwhi	r0, #5120	; 0x1400
    10c0:	046a0201 	strbteq	r0, [sl], #-513	; 0xfffffdff
    10c4:	73150000 	tstvc	r5, #0, 0
    10c8:	01830100 	orreq	r0, r3, r0, lsl #2
    10cc:	00018c02 	andeq	r8, r1, r2, lsl #24
    10d0:	00751500 	rsbseq	r1, r5, r0, lsl #10
    10d4:	02018301 	andeq	r8, r1, #67108864	; 0x4000000
    10d8:	0000002c 	andeq	r0, r0, ip, lsr #32
    10dc:	00781600 	rsbseq	r1, r8, r0, lsl #12
    10e0:	02018301 	andeq	r8, r1, #67108864	; 0x4000000
    10e4:	00000446 	andeq	r0, r0, r6, asr #8
    10e8:	70786516 	rsbsvc	r6, r8, r6, lsl r5
    10ec:	01830100 	orreq	r0, r3, r0, lsl #2
    10f0:	00002c02 	andeq	r2, r0, r2, lsl #24
    10f4:	039e1700 	orrseq	r1, lr, #0, 14
    10f8:	83010000 	movwhi	r0, #4096	; 0x1000
    10fc:	002c0201 	eoreq	r0, ip, r1, lsl #4
    1100:	8e170000 	cdphi	0, 1, cr0, cr7, cr0, {0}
    1104:	01000002 	tsteq	r0, r2
    1108:	2c020183 	stfcss	f0, [r2], {131}	; 0x83
    110c:	00000000 	andeq	r0, r0, r0
    1110:	0004f913 	andeq	pc, r4, r3, lsl r9	; <UNPREDICTABLE>
    1114:	755f1400 	ldrbvc	r1, [pc, #-1024]	; d1c <__code_start__-0x72e4>
    1118:	84010400 	strhi	r0, [r1], #-1024	; 0xfffffc00
    111c:	04c60201 	strbeq	r0, [r6], #513	; 0x201
    1120:	73150000 	tstvc	r5, #0, 0
    1124:	01840100 	orreq	r0, r4, r0, lsl #2
    1128:	00018c02 	andeq	r8, r1, r2, lsl #24
    112c:	00751500 	rsbseq	r1, r5, r0, lsl #10
    1130:	02018401 	andeq	r8, r1, #16777216	; 0x1000000
    1134:	0000002c 	andeq	r0, r0, ip, lsr #32
    1138:	00781600 	rsbseq	r1, r8, r0, lsl #12
    113c:	02018401 	andeq	r8, r1, #16777216	; 0x1000000
    1140:	000004a2 	andeq	r0, r0, r2, lsr #9
    1144:	70786516 	rsbsvc	r6, r8, r6, lsl r5
    1148:	01840100 	orreq	r0, r4, r0, lsl #2
    114c:	00002c02 	andeq	r2, r0, r2, lsl #24
    1150:	039e1700 	orrseq	r1, lr, #0, 14
    1154:	84010000 	strhi	r0, [r1], #-0
    1158:	002c0201 	eoreq	r0, ip, r1, lsl #4
    115c:	8e170000 	cdphi	0, 1, cr0, cr7, cr0, {0}
    1160:	01000002 	tsteq	r0, r2
    1164:	2c020184 	stfcss	f0, [r2], {132}	; 0x84
    1168:	00000000 	andeq	r0, r0, r0
    116c:	00055513 	andeq	r5, r5, r3, lsl r5
    1170:	755f1400 	ldrbvc	r1, [pc, #-1024]	; d78 <__code_start__-0x7288>
    1174:	85010400 	strhi	r0, [r1, #-1024]	; 0xfffffc00
    1178:	05220201 	streq	r0, [r2, #-513]!	; 0xfffffdff
    117c:	73150000 	tstvc	r5, #0, 0
    1180:	01850100 	orreq	r0, r5, r0, lsl #2
    1184:	00018c02 	andeq	r8, r1, r2, lsl #24
    1188:	00751500 	rsbseq	r1, r5, r0, lsl #10
    118c:	02018501 	andeq	r8, r1, #4194304	; 0x400000
    1190:	0000002c 	andeq	r0, r0, ip, lsr #32
    1194:	00781600 	rsbseq	r1, r8, r0, lsl #12
    1198:	02018501 	andeq	r8, r1, #4194304	; 0x400000
    119c:	000004fe 	strdeq	r0, [r0], -lr
    11a0:	70786516 	rsbsvc	r6, r8, r6, lsl r5
    11a4:	01850100 	orreq	r0, r5, r0, lsl #2
    11a8:	00002c02 	andeq	r2, r0, r2, lsl #24
    11ac:	039e1700 	orrseq	r1, lr, #0, 14
    11b0:	85010000 	strhi	r0, [r1, #-0]
    11b4:	002c0201 	eoreq	r0, ip, r1, lsl #4
    11b8:	8e170000 	cdphi	0, 1, cr0, cr7, cr0, {0}
    11bc:	01000002 	tsteq	r0, r2
    11c0:	2c020185 	stfcss	f0, [r2], {133}	; 0x85
    11c4:	00000000 	andeq	r0, r0, r0
    11c8:	0005b113 	andeq	fp, r5, r3, lsl r1
    11cc:	755f1400 	ldrbvc	r1, [pc, #-1024]	; dd4 <__code_start__-0x722c>
    11d0:	86010400 	strhi	r0, [r1], -r0, lsl #8
    11d4:	057e0201 	ldrbeq	r0, [lr, #-513]!	; 0xfffffdff
    11d8:	73150000 	tstvc	r5, #0, 0
    11dc:	01860100 	orreq	r0, r6, r0, lsl #2
    11e0:	00018c02 	andeq	r8, r1, r2, lsl #24
    11e4:	00751500 	rsbseq	r1, r5, r0, lsl #10
    11e8:	02018601 	andeq	r8, r1, #1048576	; 0x100000
    11ec:	0000002c 	andeq	r0, r0, ip, lsr #32
    11f0:	00781600 	rsbseq	r1, r8, r0, lsl #12
    11f4:	02018601 	andeq	r8, r1, #1048576	; 0x100000
    11f8:	0000055a 	andeq	r0, r0, sl, asr r5
    11fc:	70786516 	rsbsvc	r6, r8, r6, lsl r5
    1200:	01860100 	orreq	r0, r6, r0, lsl #2
    1204:	00002c02 	andeq	r2, r0, r2, lsl #24
    1208:	039e1700 	orrseq	r1, lr, #0, 14
    120c:	86010000 	strhi	r0, [r1], -r0
    1210:	002c0201 	eoreq	r0, ip, r1, lsl #4
    1214:	8e170000 	cdphi	0, 1, cr0, cr7, cr0, {0}
    1218:	01000002 	tsteq	r0, r2
    121c:	2c020186 	stfcss	f0, [r2], {134}	; 0x86
    1220:	00000000 	andeq	r0, r0, r0
    1224:	00060d13 	andeq	r0, r6, r3, lsl sp
    1228:	755f1400 	ldrbvc	r1, [pc, #-1024]	; e30 <__code_start__-0x71d0>
    122c:	89010400 	stmdbhi	r1, {sl}
    1230:	05da0201 	ldrbeq	r0, [sl, #513]	; 0x201
    1234:	73150000 	tstvc	r5, #0, 0
    1238:	01890100 	orreq	r0, r9, r0, lsl #2
    123c:	00025602 	andeq	r5, r2, r2, lsl #12
    1240:	00751500 	rsbseq	r1, r5, r0, lsl #10
    1244:	02018901 	andeq	r8, r1, #16384	; 0x4000
    1248:	0000002c 	andeq	r0, r0, ip, lsr #32
    124c:	00781600 	rsbseq	r1, r8, r0, lsl #12
    1250:	02018901 	andeq	r8, r1, #16384	; 0x4000
    1254:	000005b6 			; <UNDEFINED> instruction: 0x000005b6
    1258:	70786516 	rsbsvc	r6, r8, r6, lsl r5
    125c:	01890100 	orreq	r0, r9, r0, lsl #2
    1260:	00002c02 	andeq	r2, r0, r2, lsl #24
    1264:	039e1700 	orrseq	r1, lr, #0, 14
    1268:	89010000 	stmdbhi	r1, {}	; <UNPREDICTABLE>
    126c:	002c0201 	eoreq	r0, ip, r1, lsl #4
    1270:	8e170000 	cdphi	0, 1, cr0, cr7, cr0, {0}
    1274:	01000002 	tsteq	r0, r2
    1278:	2c020189 	stfcss	f0, [r2], {137}	; 0x89
    127c:	00000000 	andeq	r0, r0, r0
    1280:	00066913 	andeq	r6, r6, r3, lsl r9
    1284:	755f1400 	ldrbvc	r1, [pc, #-1024]	; e8c <__code_start__-0x7174>
    1288:	8a010400 	bhi	42290 <__bss_end__+0x38038>
    128c:	06360201 	ldrteq	r0, [r6], -r1, lsl #4
    1290:	73150000 	tstvc	r5, #0, 0
    1294:	018a0100 	orreq	r0, sl, r0, lsl #2
    1298:	00025602 	andeq	r5, r2, r2, lsl #12
    129c:	00751500 	rsbseq	r1, r5, r0, lsl #10
    12a0:	02018a01 	andeq	r8, r1, #4096	; 0x1000
    12a4:	0000002c 	andeq	r0, r0, ip, lsr #32
    12a8:	00781600 	rsbseq	r1, r8, r0, lsl #12
    12ac:	02018a01 	andeq	r8, r1, #4096	; 0x1000
    12b0:	00000612 	andeq	r0, r0, r2, lsl r6
    12b4:	70786516 	rsbsvc	r6, r8, r6, lsl r5
    12b8:	018a0100 	orreq	r0, sl, r0, lsl #2
    12bc:	00002c02 	andeq	r2, r0, r2, lsl #24
    12c0:	039e1700 	orrseq	r1, lr, #0, 14
    12c4:	8a010000 	bhi	412cc <__bss_end__+0x37074>
    12c8:	002c0201 	eoreq	r0, ip, r1, lsl #4
    12cc:	8e170000 	cdphi	0, 1, cr0, cr7, cr0, {0}
    12d0:	01000002 	tsteq	r0, r2
    12d4:	2c02018a 	stfcss	f0, [r2], {138}	; 0x8a
    12d8:	00000000 	andeq	r0, r0, r0
    12dc:	0006c513 	andeq	ip, r6, r3, lsl r5
    12e0:	755f1400 	ldrbvc	r1, [pc, #-1024]	; ee8 <__code_start__-0x7118>
    12e4:	8b010400 	blhi	422ec <__bss_end__+0x38094>
    12e8:	06920201 	ldreq	r0, [r2], r1, lsl #4
    12ec:	73150000 	tstvc	r5, #0, 0
    12f0:	018b0100 	orreq	r0, fp, r0, lsl #2
    12f4:	00025602 	andeq	r5, r2, r2, lsl #12
    12f8:	00751500 	rsbseq	r1, r5, r0, lsl #10
    12fc:	02018b01 	andeq	r8, r1, #1024	; 0x400
    1300:	0000002c 	andeq	r0, r0, ip, lsr #32
    1304:	00781600 	rsbseq	r1, r8, r0, lsl #12
    1308:	02018b01 	andeq	r8, r1, #1024	; 0x400
    130c:	0000066e 	andeq	r0, r0, lr, ror #12
    1310:	70786516 	rsbsvc	r6, r8, r6, lsl r5
    1314:	018b0100 	orreq	r0, fp, r0, lsl #2
    1318:	00002c02 	andeq	r2, r0, r2, lsl #24
    131c:	039e1700 	orrseq	r1, lr, #0, 14
    1320:	8b010000 	blhi	41328 <__bss_end__+0x370d0>
    1324:	002c0201 	eoreq	r0, ip, r1, lsl #4
    1328:	8e170000 	cdphi	0, 1, cr0, cr7, cr0, {0}
    132c:	01000002 	tsteq	r0, r2
    1330:	2c02018b 	stfcss	f0, [r2], {139}	; 0x8b
    1334:	00000000 	andeq	r0, r0, r0
    1338:	00072113 	andeq	r2, r7, r3, lsl r1
    133c:	755f1400 	ldrbvc	r1, [pc, #-1024]	; f44 <__code_start__-0x70bc>
    1340:	8c010400 	cfstrshi	mvf0, [r1], {-0}
    1344:	06ee0201 	strbteq	r0, [lr], r1, lsl #4
    1348:	73150000 	tstvc	r5, #0, 0
    134c:	018c0100 	orreq	r0, ip, r0, lsl #2
    1350:	00025602 	andeq	r5, r2, r2, lsl #12
    1354:	00751500 	rsbseq	r1, r5, r0, lsl #10
    1358:	02018c01 	andeq	r8, r1, #256	; 0x100
    135c:	0000002c 	andeq	r0, r0, ip, lsr #32
    1360:	00781600 	rsbseq	r1, r8, r0, lsl #12
    1364:	02018c01 	andeq	r8, r1, #256	; 0x100
    1368:	000006ca 	andeq	r0, r0, sl, asr #13
    136c:	70786516 	rsbsvc	r6, r8, r6, lsl r5
    1370:	018c0100 	orreq	r0, ip, r0, lsl #2
    1374:	00002c02 	andeq	r2, r0, r2, lsl #24
    1378:	039e1700 	orrseq	r1, lr, #0, 14
    137c:	8c010000 	stchi	0, cr0, [r1], {-0}
    1380:	002c0201 	eoreq	r0, ip, r1, lsl #4
    1384:	8e170000 	cdphi	0, 1, cr0, cr7, cr0, {0}
    1388:	01000002 	tsteq	r0, r2
    138c:	2c02018c 	stfcss	f0, [r2], {140}	; 0x8c
    1390:	00000000 	andeq	r0, r0, r0
    1394:	00077d13 	andeq	r7, r7, r3, lsl sp
    1398:	755f1400 	ldrbvc	r1, [pc, #-1024]	; fa0 <__code_start__-0x7060>
    139c:	8d010400 	cfstrshi	mvf0, [r1, #-0]
    13a0:	074a0201 	strbeq	r0, [sl, -r1, lsl #4]
    13a4:	73150000 	tstvc	r5, #0, 0
    13a8:	018d0100 	orreq	r0, sp, r0, lsl #2
    13ac:	00025602 	andeq	r5, r2, r2, lsl #12
    13b0:	00751500 	rsbseq	r1, r5, r0, lsl #10
    13b4:	02018d01 	andeq	r8, r1, #64	; 0x40
    13b8:	0000002c 	andeq	r0, r0, ip, lsr #32
    13bc:	00781600 	rsbseq	r1, r8, r0, lsl #12
    13c0:	02018d01 	andeq	r8, r1, #64	; 0x40
    13c4:	00000726 	andeq	r0, r0, r6, lsr #14
    13c8:	70786516 	rsbsvc	r6, r8, r6, lsl r5
    13cc:	018d0100 	orreq	r0, sp, r0, lsl #2
    13d0:	00002c02 	andeq	r2, r0, r2, lsl #24
    13d4:	039e1700 	orrseq	r1, lr, #0, 14
    13d8:	8d010000 	stchi	0, cr0, [r1, #-0]
    13dc:	002c0201 	eoreq	r0, ip, r1, lsl #4
    13e0:	8e170000 	cdphi	0, 1, cr0, cr7, cr0, {0}
    13e4:	01000002 	tsteq	r0, r2
    13e8:	2c02018d 	stfcss	f0, [r2], {141}	; 0x8d
    13ec:	00000000 	andeq	r0, r0, r0
    13f0:	0007d913 	andeq	sp, r7, r3, lsl r9
    13f4:	755f1400 	ldrbvc	r1, [pc, #-1024]	; ffc <__code_start__-0x7004>
    13f8:	8e010400 	cfcpyshi	mvf0, mvf1
    13fc:	07a60201 	streq	r0, [r6, r1, lsl #4]!
    1400:	73150000 	tstvc	r5, #0, 0
    1404:	018e0100 	orreq	r0, lr, r0, lsl #2
    1408:	00025602 	andeq	r5, r2, r2, lsl #12
    140c:	00751500 	rsbseq	r1, r5, r0, lsl #10
    1410:	02018e01 	andeq	r8, r1, #1, 28
    1414:	0000002c 	andeq	r0, r0, ip, lsr #32
    1418:	00781600 	rsbseq	r1, r8, r0, lsl #12
    141c:	02018e01 	andeq	r8, r1, #1, 28
    1420:	00000782 	andeq	r0, r0, r2, lsl #15
    1424:	70786516 	rsbsvc	r6, r8, r6, lsl r5
    1428:	018e0100 	orreq	r0, lr, r0, lsl #2
    142c:	00002c02 	andeq	r2, r0, r2, lsl #24
    1430:	039e1700 	orrseq	r1, lr, #0, 14
    1434:	8e010000 	cdphi	0, 0, cr0, cr1, cr0, {0}
    1438:	002c0201 	eoreq	r0, ip, r1, lsl #4
    143c:	8e170000 	cdphi	0, 1, cr0, cr7, cr0, {0}
    1440:	01000002 	tsteq	r0, r2
    1444:	2c02018e 	stfcss	f0, [r2], {142}	; 0x8e
    1448:	00000000 	andeq	r0, r0, r0
    144c:	00083513 	andeq	r3, r8, r3, lsl r5
    1450:	755f1400 	ldrbvc	r1, [pc, #-1024]	; 1058 <__code_start__-0x6fa8>
    1454:	8f010400 	svchi	0x00010400
    1458:	08020201 	stmdaeq	r2, {r0, r9}
    145c:	73150000 	tstvc	r5, #0, 0
    1460:	018f0100 	orreq	r0, pc, r0, lsl #2
    1464:	00025602 	andeq	r5, r2, r2, lsl #12
    1468:	00751500 	rsbseq	r1, r5, r0, lsl #10
    146c:	02018f01 	andeq	r8, r1, #1, 30
    1470:	0000002c 	andeq	r0, r0, ip, lsr #32
    1474:	00781600 	rsbseq	r1, r8, r0, lsl #12
    1478:	02018f01 	andeq	r8, r1, #1, 30
    147c:	000007de 	ldrdeq	r0, [r0], -lr
    1480:	70786516 	rsbsvc	r6, r8, r6, lsl r5
    1484:	018f0100 	orreq	r0, pc, r0, lsl #2
    1488:	00002c02 	andeq	r2, r0, r2, lsl #24
    148c:	039e1700 	orrseq	r1, lr, #0, 14
    1490:	8f010000 	svchi	0x00010000
    1494:	002c0201 	eoreq	r0, ip, r1, lsl #4
    1498:	8e170000 	cdphi	0, 1, cr0, cr7, cr0, {0}
    149c:	01000002 	tsteq	r0, r2
    14a0:	2c02018f 	stfcss	f0, [r2], {143}	; 0x8f
    14a4:	00000000 	andeq	r0, r0, r0
    14a8:	00089113 	andeq	r9, r8, r3, lsl r1
    14ac:	755f1400 	ldrbvc	r1, [pc, #-1024]	; 10b4 <__code_start__-0x6f4c>
    14b0:	90010400 	andls	r0, r1, r0, lsl #8
    14b4:	085e0201 	ldmdaeq	lr, {r0, r9}^
    14b8:	73150000 	tstvc	r5, #0, 0
    14bc:	01900100 	orrseq	r0, r0, r0, lsl #2
    14c0:	00025602 	andeq	r5, r2, r2, lsl #12
    14c4:	00751500 	rsbseq	r1, r5, r0, lsl #10
    14c8:	02019001 	andeq	r9, r1, #1, 0
    14cc:	0000002c 	andeq	r0, r0, ip, lsr #32
    14d0:	00781600 	rsbseq	r1, r8, r0, lsl #12
    14d4:	02019001 	andeq	r9, r1, #1, 0
    14d8:	0000083a 	andeq	r0, r0, sl, lsr r8
    14dc:	70786516 	rsbsvc	r6, r8, r6, lsl r5
    14e0:	01900100 	orrseq	r0, r0, r0, lsl #2
    14e4:	00002c02 	andeq	r2, r0, r2, lsl #24
    14e8:	039e1700 	orrseq	r1, lr, #0, 14
    14ec:	90010000 	andls	r0, r1, r0
    14f0:	002c0201 	eoreq	r0, ip, r1, lsl #4
    14f4:	8e170000 	cdphi	0, 1, cr0, cr7, cr0, {0}
    14f8:	01000002 	tsteq	r0, r2
    14fc:	2c020190 	stfcss	f0, [r2], {144}	; 0x90
    1500:	00000000 	andeq	r0, r0, r0
    1504:	0008ed13 	andeq	lr, r8, r3, lsl sp
    1508:	755f1400 	ldrbvc	r1, [pc, #-1024]	; 1110 <__code_start__-0x6ef0>
    150c:	91010400 	tstls	r1, r0, lsl #8
    1510:	08ba0201 	ldmeq	sl!, {r0, r9}
    1514:	73150000 	tstvc	r5, #0, 0
    1518:	01910100 	orrseq	r0, r1, r0, lsl #2
    151c:	00025602 	andeq	r5, r2, r2, lsl #12
    1520:	00751500 	rsbseq	r1, r5, r0, lsl #10
    1524:	02019101 	andeq	r9, r1, #1073741824	; 0x40000000
    1528:	0000002c 	andeq	r0, r0, ip, lsr #32
    152c:	00781600 	rsbseq	r1, r8, r0, lsl #12
    1530:	02019101 	andeq	r9, r1, #1073741824	; 0x40000000
    1534:	00000896 	muleq	r0, r6, r8
    1538:	70786516 	rsbsvc	r6, r8, r6, lsl r5
    153c:	01910100 	orrseq	r0, r1, r0, lsl #2
    1540:	00002c02 	andeq	r2, r0, r2, lsl #24
    1544:	039e1700 	orrseq	r1, lr, #0, 14
    1548:	91010000 	mrsls	r0, (UNDEF: 1)
    154c:	002c0201 	eoreq	r0, ip, r1, lsl #4
    1550:	8e170000 	cdphi	0, 1, cr0, cr7, cr0, {0}
    1554:	01000002 	tsteq	r0, r2
    1558:	2c020191 	stfcss	f0, [r2], {145}	; 0x91
    155c:	00000000 	andeq	r0, r0, r0
    1560:	755f1418 	ldrbvc	r1, [pc, #-1048]	; 1150 <__code_start__-0x6eb0>
    1564:	92010400 	andls	r0, r1, #0, 8
    1568:	09120201 	ldmdbeq	r2, {r0, r9}
    156c:	73150000 	tstvc	r5, #0, 0
    1570:	01920100 	orrseq	r0, r2, r0, lsl #2
    1574:	00025602 	andeq	r5, r2, r2, lsl #12
    1578:	00751500 	rsbseq	r1, r5, r0, lsl #10
    157c:	02019201 	andeq	r9, r1, #268435456	; 0x10000000
    1580:	0000002c 	andeq	r0, r0, ip, lsr #32
    1584:	00781600 	rsbseq	r1, r8, r0, lsl #12
    1588:	02019201 	andeq	r9, r1, #268435456	; 0x10000000
    158c:	000008ee 	andeq	r0, r0, lr, ror #17
    1590:	70786516 	rsbsvc	r6, r8, r6, lsl r5
    1594:	01920100 	orrseq	r0, r2, r0, lsl #2
    1598:	00002c02 	andeq	r2, r0, r2, lsl #24
    159c:	039e1700 	orrseq	r1, lr, #0, 14
    15a0:	92010000 	andls	r0, r1, #0, 0
    15a4:	002c0201 	eoreq	r0, ip, r1, lsl #4
    15a8:	8e170000 	cdphi	0, 1, cr0, cr7, cr0, {0}
    15ac:	01000002 	tsteq	r0, r2
    15b0:	2c020192 	stfcss	f0, [r2], {146}	; 0x92
    15b4:	00000000 	andeq	r0, r0, r0
    15b8:	008f1900 	addeq	r1, pc, r0, lsl #18
    15bc:	09560000 	ldmdbeq	r6, {}^	; <UNPREDICTABLE>
    15c0:	2c1a0000 	ldccs	0, cr0, [sl], {-0}
    15c4:	0c000000 	stceq	0, cr0, [r0], {-0}
    15c8:	09460400 	stmdbeq	r6, {sl}^
    15cc:	ea1b0000 	b	6c15d4 <__bss_end__+0x6b737c>
    15d0:	01000001 	tsteq	r0, r1
    15d4:	bc060151 	stflts	f0, [r6], {81}	; 0x51
    15d8:	a0000087 	andge	r0, r0, r7, lsl #1
    15dc:	01000000 	mrseq	r0, (UNDEF: 0)
    15e0:	000ae09c 	muleq	sl, ip, r0
    15e4:	44531c00 	ldrbmi	r1, [r3], #-3072	; 0xfffff400
    15e8:	59010041 	stmdbpl	r1, {r0, r6}
    15ec:	00331201 	eorseq	r1, r3, r1, lsl #4
    15f0:	1c020000 	stcne	0, cr0, [r2], {-0}
    15f4:	004c4353 	subeq	r4, ip, r3, asr r3
    15f8:	12015a01 	andne	r5, r1, #4096	; 0x1000
    15fc:	00000033 	andeq	r0, r0, r3, lsr r0
    1600:	00631603 	rsbeq	r1, r3, r3, lsl #12
    1604:	0e016301 	cdpeq	3, 0, cr6, cr1, cr1, {0}
    1608:	0000018c 	andeq	r0, r0, ip, lsl #3
    160c:	0002081d 	andeq	r0, r2, sp, lsl r8
    1610:	000af000 	andeq	pc, sl, r0
    1614:	b0030500 	andlt	r0, r3, r0, lsl #10
    1618:	1e00009c 	mcrne	0, 0, r0, cr0, cr12, {4}
    161c:	000087e4 	andeq	r8, r0, r4, ror #15
    1620:	00000000 	andeq	r0, r0, r0
    1624:	000009e5 	andeq	r0, r0, r5, ror #19
    1628:	00755f14 	rsbseq	r5, r5, r4, lsl pc
    162c:	01630104 	cmneq	r3, r4, lsl #2
    1630:	0009d912 	andeq	sp, r9, r2, lsl r9
    1634:	00761500 	rsbseq	r1, r6, r0, lsl #10
    1638:	12016301 	andne	r6, r1, #67108864	; 0x4000000
    163c:	0000018c 	andeq	r0, r0, ip, lsl #3
    1640:	01007515 	tsteq	r0, r5, lsl r5
    1644:	2c120163 	ldfcss	f0, [r2], {99}	; 0x63
    1648:	00000000 	andeq	r0, r0, r0
    164c:	01007516 	tsteq	r0, r6, lsl r5
    1650:	b5120163 	ldrlt	r0, [r2, #-355]	; 0xfffffe9d
    1654:	00000009 	andeq	r0, r0, r9
    1658:	0087e81e 	addeq	lr, r7, lr, lsl r8
    165c:	00000000 	andeq	r0, r0, r0
    1660:	000a2400 	andeq	r2, sl, r0, lsl #8
    1664:	755f1400 	ldrbvc	r1, [pc, #-1024]	; 126c <__code_start__-0x6d94>
    1668:	65010400 	strvs	r0, [r1, #-1024]	; 0xfffffc00
    166c:	0a180301 	beq	602278 <__bss_end__+0x5f8020>
    1670:	76150000 	ldrvc	r0, [r5], -r0
    1674:	65010076 	strvs	r0, [r1, #-118]	; 0xffffff8a
    1678:	018c0301 	orreq	r0, ip, r1, lsl #6
    167c:	75150000 	ldrvc	r0, [r5, #-0]
    1680:	65010075 	strvs	r0, [r1, #-117]	; 0xffffff8b
    1684:	006e0301 	rsbeq	r0, lr, r1, lsl #6
    1688:	16000000 	strne	r0, [r0], -r0
    168c:	65010075 	strvs	r0, [r1, #-117]	; 0xffffff8b
    1690:	09f20301 	ldmibeq	r2!, {r0, r8, r9}^
    1694:	1f000000 	svcne	0x00000000
    1698:	000087c8 	andeq	r8, r0, r8, asr #15
    169c:	00001391 	muleq	r0, r1, r3
    16a0:	0087d420 	addeq	sp, r7, r0, lsr #8
    16a4:	00139d00 	andseq	r9, r3, r0, lsl #26
    16a8:	000a4500 	andeq	r4, sl, r0, lsl #10
    16ac:	50012100 	andpl	r2, r1, r0, lsl #2
    16b0:	01213201 			; <UNDEFINED> instruction: 0x01213201
    16b4:	00340151 	eorseq	r0, r4, r1, asr r1
    16b8:	0087e020 	addeq	lr, r7, r0, lsr #32
    16bc:	00139d00 	andseq	r9, r3, r0, lsl #26
    16c0:	000a5d00 	andeq	r5, sl, r0, lsl #26
    16c4:	50012100 	andpl	r2, r1, r0, lsl #2
    16c8:	01213301 			; <UNDEFINED> instruction: 0x01213301
    16cc:	00340151 	eorseq	r0, r4, r1, asr r1
    16d0:	0087e41f 	addeq	lr, r7, pc, lsl r4
    16d4:	00139100 	andseq	r9, r3, r0, lsl #2
    16d8:	87f42000 	ldrbhi	r2, [r4, r0]!
    16dc:	13a90000 			; <UNDEFINED> instruction: 0x13a90000
    16e0:	0a810000 	beq	fe0416e8 <__bss_end__+0xfe037490>
    16e4:	01210000 			; <UNDEFINED> instruction: 0x01210000
    16e8:	00740250 	rsbseq	r0, r4, r0, asr r2
    16ec:	03510121 	cmpeq	r1, #1073741832	; 0x40000008
    16f0:	0080000a 	addeq	r0, r0, sl
    16f4:	0087f81f 	addeq	pc, r7, pc, lsl r8	; <UNPREDICTABLE>
    16f8:	00139100 	andseq	r9, r3, r0, lsl #2
    16fc:	87fc1f00 	ldrbhi	r1, [ip, r0, lsl #30]!
    1700:	11ab0000 			; <UNDEFINED> instruction: 0x11ab0000
    1704:	001f0000 	andseq	r0, pc, r0
    1708:	91000088 	smlabbls	r0, r8, r0, r0
    170c:	20000013 	andcs	r0, r0, r3, lsl r0
    1710:	0000883c 	andeq	r8, r0, ip, lsr r8
    1714:	000013b5 			; <UNDEFINED> instruction: 0x000013b5
    1718:	00000ad6 	ldrdeq	r0, [r0], -r6
    171c:	05500121 	ldrbeq	r0, [r0, #-289]	; 0xfffffedf
    1720:	009c0003 	addseq	r0, ip, r3
    1724:	51012100 	mrspl	r2, (UNDEF: 17)
    1728:	9ba00305 	blls	fe802344 <__bss_end__+0xfe7f80ec>
    172c:	01210000 			; <UNDEFINED> instruction: 0x01210000
    1730:	b0030552 	andlt	r0, r3, r2, asr r5
    1734:	2100009c 	swpcs	r0, ip, [r0]	; <UNPREDICTABLE>
    1738:	0a035301 	beq	d6344 <__bss_end__+0xcc0ec>
    173c:	0221016e 	eoreq	r0, r1, #-2147483621	; 0x8000001b
    1740:	0305007d 	movweq	r0, #20605	; 0x507d
    1744:	00009c14 	andeq	r9, r0, r4, lsl ip
    1748:	88401f00 	stmdahi	r0, {r8, r9, sl, fp, ip}^
    174c:	13c10000 	bicne	r0, r1, #0, 0
    1750:	19000000 	stmdbne	r0, {}	; <UNPREDICTABLE>
    1754:	0000008f 	andeq	r0, r0, pc, lsl #1
    1758:	00000af0 	strdeq	r0, [r0], -r0	; <UNPREDICTABLE>
    175c:	00002c1a 	andeq	r2, r0, sl, lsl ip
    1760:	04000800 	streq	r0, [r0], #-2048	; 0xfffff800
    1764:	00000ae0 	andeq	r0, r0, r0, ror #21
    1768:	0004ff1b 	andeq	pc, r4, fp, lsl pc	; <UNPREDICTABLE>
    176c:	01470100 	mrseq	r0, (UNDEF: 87)
    1770:	00885c06 	addeq	r5, r8, r6, lsl #24
    1774:	00001800 	andeq	r1, r0, r0, lsl #16
    1778:	1f9c0100 	svcne	0x009c0100
    177c:	1f00000b 	svcne	0x0000000b
    1780:	00008864 	andeq	r8, r0, r4, ror #16
    1784:	00000b1f 	andeq	r0, r0, pc, lsl fp
    1788:	0088701f 	addeq	r7, r8, pc, lsl r0
    178c:	00095b00 	andeq	r5, r9, r0, lsl #22
    1790:	b2220000 	eorlt	r0, r2, #0, 0
    1794:	01000004 	tsteq	r0, r4
    1798:	25050144 	strcs	r0, [r5, #-324]	; 0xfffffebc
    179c:	ac000000 	stcge	0, cr0, [r0], {-0}
    17a0:	10000087 	andne	r0, r0, r7, lsl #1
    17a4:	01000000 	mrseq	r0, (UNDEF: 0)
    17a8:	0253239c 	subseq	r2, r3, #156, 6	; 0x70000002
    17ac:	31010000 	mrscc	r0, (UNDEF: 1)
    17b0:	00250501 	eoreq	r0, r5, r1, lsl #10
    17b4:	86f00000 	ldrbthi	r0, [r0], r0
    17b8:	00bc0000 	adcseq	r0, ip, r0
    17bc:	9c010000 	stcls	0, cr0, [r1], {-0}
    17c0:	00000c5c 	andeq	r0, r0, ip, asr ip
    17c4:	0000e224 	andeq	lr, r0, r4, lsr #4
    17c8:	01310100 	teqeq	r1, r0, lsl #2
    17cc:	00002c17 	andeq	r2, r0, r7, lsl ip
    17d0:	00046a00 	andeq	r6, r4, r0, lsl #20
    17d4:	00046600 	andeq	r6, r4, r0, lsl #12
    17d8:	0a902400 	beq	fe40a7e0 <__bss_end__+0xfe400588>
    17dc:	31010000 	mrscc	r0, (UNDEF: 1)
    17e0:	0c5c2501 	cfldr64eq	mvdx2, [ip], {1}
    17e4:	048f0000 	streq	r0, [pc], #0	; 17ec <__code_start__-0x6814>
    17e8:	048b0000 	streq	r0, [fp], #0
    17ec:	a4240000 	strtge	r0, [r4], #-0
    17f0:	01000004 	tsteq	r0, r4
    17f4:	2c360131 	ldfcss	f0, [r6], #-196	; 0xffffff3c
    17f8:	b1000000 	mrslt	r0, (UNDEF: 0)
    17fc:	ad000004 	stcge	0, cr0, [r0, #-16]
    1800:	1d000004 	stcne	0, cr0, [r0, #-16]
    1804:	00000208 	andeq	r0, r0, r8, lsl #4
    1808:	00000af0 	strdeq	r0, [r0], -r0	; <UNPREDICTABLE>
    180c:	9ca40305 	stcls	3, cr0, [r4], #20
    1810:	081e0000 	ldmdaeq	lr, {}	; <UNPREDICTABLE>
    1814:	80000087 	andhi	r0, r0, r7, lsl #1
    1818:	32000000 	andcc	r0, r0, #0, 0
    181c:	2500000c 	strcs	r0, [r0, #-12]
    1820:	35010069 	strcc	r0, [r1, #-105]	; 0xffffff97
    1824:	002c0f01 	eoreq	r0, ip, r1, lsl #30
    1828:	04d70000 	ldrbeq	r0, [r7], #0
    182c:	04cf0000 	strbeq	r0, [pc], #0	; 1834 <__code_start__-0x67cc>
    1830:	24200000 	strtcs	r0, [r0], #-0
    1834:	b5000087 	strlt	r0, [r0, #-135]	; 0xffffff79
    1838:	ef000013 	svc	0x00000013
    183c:	2100000b 	tstcs	r0, fp
    1840:	03055001 	movweq	r5, #20481	; 0x5001
    1844:	00009bac 	andeq	r9, r0, ip, lsr #23
    1848:	05510121 	ldrbeq	r0, [r1, #-289]	; 0xfffffedf
    184c:	009ba003 	addseq	sl, fp, r3
    1850:	52012100 	andpl	r2, r1, #0
    1854:	9ca40305 	stcls	3, cr0, [r4], #20
    1858:	01210000 			; <UNDEFINED> instruction: 0x01210000
    185c:	370a0353 	smlsdcc	sl, r3, r3, r0
    1860:	281f0001 	ldmdacs	pc, {r0}	; <UNPREDICTABLE>
    1864:	c1000087 	smlabbgt	r0, r7, r0, r0
    1868:	20000013 	andcs	r0, r0, r3, lsl r0
    186c:	00008784 	andeq	r8, r0, r4, lsl #15
    1870:	000013b5 			; <UNDEFINED> instruction: 0x000013b5
    1874:	00000c28 	andeq	r0, r0, r8, lsr #24
    1878:	05500121 	ldrbeq	r0, [r0, #-289]	; 0xfffffedf
    187c:	009bd003 	addseq	sp, fp, r3
    1880:	51012100 	mrspl	r2, (UNDEF: 17)
    1884:	9ba00305 	blls	fe8024a0 <__bss_end__+0xfe7f8248>
    1888:	01210000 			; <UNDEFINED> instruction: 0x01210000
    188c:	a4030552 	strge	r0, [r3], #-1362	; 0xfffffaae
    1890:	2100009c 	swpcs	r0, ip, [r0]	; <UNPREDICTABLE>
    1894:	0a035301 	beq	d64a0 <__bss_end__+0xcc248>
    1898:	1f000137 	svcne	0x00000137
    189c:	00008788 	andeq	r8, r0, r8, lsl #15
    18a0:	000013c1 	andeq	r1, r0, r1, asr #7
    18a4:	87082000 	strhi	r2, [r8, -r0]
    18a8:	0ec50000 	cdpeq	0, 12, cr0, cr5, cr0, {0}
    18ac:	0c520000 	mraeq	r0, r2, acc0
    18b0:	01210000 			; <UNDEFINED> instruction: 0x01210000
    18b4:	01f30350 	mvnseq	r0, r0, asr r3
    18b8:	51012150 	tstpl	r1, r0, asr r1
    18bc:	21007402 	tstcs	r0, r2, lsl #8
    18c0:	31015201 	tstcc	r1, r1, lsl #4
    18c4:	878c1f00 	strhi	r1, [ip, r0, lsl #30]
    18c8:	0d9d0000 	ldceq	0, cr0, [sp]
    18cc:	0f000000 	svceq	0x00000000
    18d0:	00005404 	andeq	r5, r0, r4, lsl #8
    18d4:	01f32300 	mvnseq	r2, r0, lsl #6
    18d8:	21010000 	mrscs	r0, (UNDEF: 1)
    18dc:	00250501 	eoreq	r0, r5, r1, lsl #10
    18e0:	86340000 	ldrthi	r0, [r4], -r0
    18e4:	00bc0000 	adcseq	r0, ip, r0
    18e8:	9c010000 	stcls	0, cr0, [r1], {-0}
    18ec:	00000d88 	andeq	r0, r0, r8, lsl #27
    18f0:	0000e224 	andeq	lr, r0, r4, lsr #4
    18f4:	01210100 			; <UNDEFINED> instruction: 0x01210100
    18f8:	00002c18 	andeq	r2, r0, r8, lsl ip
    18fc:	00051000 	andeq	r1, r5, r0
    1900:	00050c00 	andeq	r0, r5, r0, lsl #24
    1904:	0a902400 	beq	fe40a90c <__bss_end__+0xfe4006b4>
    1908:	21010000 	mrscs	r0, (UNDEF: 1)
    190c:	0c5c2601 	mrrceq	6, 0, r2, ip, cr1
    1910:	05350000 	ldreq	r0, [r5, #-0]!
    1914:	05310000 	ldreq	r0, [r1, #-0]!
    1918:	a4240000 	strtge	r0, [r4], #-0
    191c:	01000004 	tsteq	r0, r4
    1920:	2c370121 	ldfcss	f0, [r7], #-132	; 0xffffff7c
    1924:	57000000 	strpl	r0, [r0, -r0]
    1928:	53000005 	movwpl	r0, #5
    192c:	1d000005 	stcne	0, cr0, [r0, #-20]	; 0xffffffec
    1930:	00000208 	andeq	r0, r0, r8, lsl #4
    1934:	00000d98 	muleq	r0, r8, sp
    1938:	9c980305 	ldcls	3, cr0, [r8], {5}
    193c:	4c1e0000 	ldcmi	0, cr0, [lr], {-0}
    1940:	80000086 	andhi	r0, r0, r6, lsl #1
    1944:	5e000000 	cdppl	0, 0, cr0, cr0, cr0, {0}
    1948:	2500000d 	strcs	r0, [r0, #-13]
    194c:	24010069 	strcs	r0, [r1], #-105	; 0xffffff97
    1950:	002c0f01 	eoreq	r0, ip, r1, lsl #30
    1954:	057d0000 	ldrbeq	r0, [sp, #-0]!
    1958:	05750000 	ldrbeq	r0, [r5, #-0]!
    195c:	68200000 	stmdavs	r0!, {}	; <UNPREDICTABLE>
    1960:	b5000086 	strlt	r0, [r0, #-134]	; 0xffffff7a
    1964:	1b000013 	blne	19b8 <__code_start__-0x6648>
    1968:	2100000d 	tstcs	r0, sp
    196c:	03055001 	movweq	r5, #20481	; 0x5001
    1970:	00009bac 	andeq	r9, r0, ip, lsr #23
    1974:	05510121 	ldrbeq	r0, [r1, #-289]	; 0xfffffedf
    1978:	009ba003 	addseq	sl, fp, r3
    197c:	52012100 	andpl	r2, r1, #0
    1980:	9c980305 	ldcls	3, cr0, [r8], {5}
    1984:	01210000 			; <UNDEFINED> instruction: 0x01210000
    1988:	260a0353 			; <UNDEFINED> instruction: 0x260a0353
    198c:	6c1f0001 	ldcvs	0, cr0, [pc], {1}
    1990:	c1000086 	smlabbgt	r0, r6, r0, r0
    1994:	20000013 	andcs	r0, r0, r3, lsl r0
    1998:	000086c8 	andeq	r8, r0, r8, asr #13
    199c:	000013b5 			; <UNDEFINED> instruction: 0x000013b5
    19a0:	00000d54 	andeq	r0, r0, r4, asr sp
    19a4:	05500121 	ldrbeq	r0, [r0, #-289]	; 0xfffffedf
    19a8:	009bd003 	addseq	sp, fp, r3
    19ac:	51012100 	mrspl	r2, (UNDEF: 17)
    19b0:	9ba00305 	blls	fe8025cc <__bss_end__+0xfe7f8374>
    19b4:	01210000 			; <UNDEFINED> instruction: 0x01210000
    19b8:	98030552 	stmdals	r3, {r1, r4, r6, r8, sl}
    19bc:	2100009c 	swpcs	r0, ip, [r0]	; <UNPREDICTABLE>
    19c0:	0a035301 	beq	d65cc <__bss_end__+0xcc374>
    19c4:	1f000126 	svcne	0x00000126
    19c8:	000086cc 	andeq	r8, r0, ip, asr #13
    19cc:	000013c1 	andeq	r1, r0, r1, asr #7
    19d0:	864c2000 	strbhi	r2, [ip], -r0
    19d4:	0ec50000 	cdpeq	0, 12, cr0, cr5, cr0, {0}
    19d8:	0d7e0000 	ldcleq	0, cr0, [lr, #-0]
    19dc:	01210000 			; <UNDEFINED> instruction: 0x01210000
    19e0:	01f30350 	mvnseq	r0, r0, asr r3
    19e4:	51012150 	tstpl	r1, r0, asr r1
    19e8:	21007402 	tstcs	r0, r2, lsl #8
    19ec:	30015201 	andcc	r5, r1, r1, lsl #4
    19f0:	86d01f00 	ldrbhi	r1, [r0], r0, lsl #30
    19f4:	0d9d0000 	ldceq	0, cr0, [sp]
    19f8:	19000000 	stmdbne	r0, {}	; <UNPREDICTABLE>
    19fc:	0000008f 	andeq	r0, r0, pc, lsl #1
    1a00:	00000d98 	muleq	r0, r8, sp
    1a04:	00002c1a 	andeq	r2, r0, sl, lsl ip
    1a08:	04000900 	streq	r0, [r0], #-2304	; 0xfffff700
    1a0c:	00000d88 	andeq	r0, r0, r8, lsl #27
    1a10:	0004ef26 	andeq	lr, r4, r6, lsr #30
    1a14:	01140100 	tsteq	r4, r0, lsl #2
    1a18:	0083180d 	addeq	r1, r3, sp, lsl #16
    1a1c:	00010000 	andeq	r0, r1, r0
    1a20:	c59c0100 	ldrgt	r0, [ip, #256]	; 0x100
    1a24:	1d00000e 	stcne	0, cr0, [r0, #-56]	; 0xffffffc8
    1a28:	00000208 	andeq	r0, r0, r8, lsl #4
    1a2c:	00000af0 	strdeq	r0, [r0], -r0	; <UNPREDICTABLE>
    1a30:	9c800305 	stcls	3, cr0, [r0], {5}
    1a34:	64200000 	strtvs	r0, [r0], #-0
    1a38:	b5000083 	strlt	r0, [r0, #-131]	; 0xffffff7d
    1a3c:	f3000013 	vqadd.u8	d0, d0, d3
    1a40:	2100000d 	tstcs	r0, sp
    1a44:	03055001 	movweq	r5, #20481	; 0x5001
    1a48:	00009bd0 	ldrdeq	r9, [r0], -r0
    1a4c:	05510121 	ldrbeq	r0, [r1, #-289]	; 0xfffffedf
    1a50:	009ba003 	addseq	sl, fp, r3
    1a54:	52012100 	andpl	r2, r1, #0
    1a58:	9c800305 	stcls	3, cr0, [r0], {5}
    1a5c:	01210000 			; <UNDEFINED> instruction: 0x01210000
    1a60:	160a0353 			; <UNDEFINED> instruction: 0x160a0353
    1a64:	681f0001 	ldmdavs	pc, {r0}	; <UNPREDICTABLE>
    1a68:	c1000083 	smlabbgt	r0, r3, r0, r0
    1a6c:	20000013 	andcs	r0, r0, r3, lsl r0
    1a70:	0000837c 	andeq	r8, r0, ip, ror r3
    1a74:	000013b5 			; <UNDEFINED> instruction: 0x000013b5
    1a78:	00000e2c 	andeq	r0, r0, ip, lsr #28
    1a7c:	05500121 	ldrbeq	r0, [r0, #-289]	; 0xfffffedf
    1a80:	009bac03 	addseq	sl, fp, r3, lsl #24
    1a84:	51012100 	mrspl	r2, (UNDEF: 17)
    1a88:	9ba00305 	blls	fe8026a4 <__bss_end__+0xfe7f844c>
    1a8c:	01210000 			; <UNDEFINED> instruction: 0x01210000
    1a90:	80030552 	andhi	r0, r3, r2, asr r5
    1a94:	2100009c 	swpcs	r0, ip, [r0]	; <UNPREDICTABLE>
    1a98:	0a035301 	beq	d66a4 <__bss_end__+0xcc44c>
    1a9c:	1f000116 	svcne	0x00000116
    1aa0:	00008380 	andeq	r8, r0, r0, lsl #7
    1aa4:	000013c1 	andeq	r1, r0, r1, asr #7
    1aa8:	0083a41f 	addeq	sl, r3, pc, lsl r4
    1aac:	00139100 	andseq	r9, r3, r0, lsl #2
    1ab0:	83c82000 	bichi	r2, r8, #0, 0
    1ab4:	13b50000 			; <UNDEFINED> instruction: 0x13b50000
    1ab8:	0e780000 	cdpeq	0, 7, cr0, cr8, cr0, {0}
    1abc:	01210000 			; <UNDEFINED> instruction: 0x01210000
    1ac0:	00030550 	andeq	r0, r3, r0, asr r5
    1ac4:	2100009c 	swpcs	r0, ip, [r0]	; <UNPREDICTABLE>
    1ac8:	03055101 	movweq	r5, #20737	; 0x5101
    1acc:	00009ba0 	andeq	r9, r0, r0, lsr #23
    1ad0:	05520121 	ldrbeq	r0, [r2, #-289]	; 0xfffffedf
    1ad4:	009c8003 	addseq	r8, ip, r3
    1ad8:	53012100 	movwpl	r2, #4352	; 0x1100
    1adc:	01190a03 	tsteq	r9, r3, lsl #20
    1ae0:	007d0221 	rsbseq	r0, sp, r1, lsr #4
    1ae4:	9c140305 	ldcls	3, cr0, [r4], {5}
    1ae8:	1f000000 	svcne	0x00000000
    1aec:	000083cc 	andeq	r8, r0, ip, asr #7
    1af0:	000013c1 	andeq	r1, r0, r1, asr #7
    1af4:	0083e820 	addeq	lr, r3, r0, lsr #16
    1af8:	0013b500 	andseq	fp, r3, r0, lsl #10
    1afc:	000ebb00 	andeq	fp, lr, r0, lsl #22
    1b00:	50012100 	andpl	r2, r1, r0, lsl #2
    1b04:	9c000305 	stcls	3, cr0, [r0], {5}
    1b08:	01210000 			; <UNDEFINED> instruction: 0x01210000
    1b0c:	a0030551 	andge	r0, r3, r1, asr r5
    1b10:	2100009b 	swpcs	r0, fp, [r0]	; <UNPREDICTABLE>
    1b14:	03055201 	movweq	r5, #20993	; 0x5201
    1b18:	00009c80 	andeq	r9, r0, r0, lsl #25
    1b1c:	03530121 	cmpeq	r3, #1073741832	; 0x40000008
    1b20:	21011b0a 	tstcs	r1, sl, lsl #22
    1b24:	05007d02 	streq	r7, [r0, #-3330]	; 0xfffff2fe
    1b28:	009c2803 	addseq	r2, ip, r3, lsl #16
    1b2c:	ec1f0000 	ldc	0, cr0, [pc], {-0}
    1b30:	c1000083 	smlabbgt	r0, r3, r0, r0
    1b34:	00000013 	andeq	r0, r0, r3, lsl r0
    1b38:	0004cc27 	andeq	ip, r4, r7, lsr #24
    1b3c:	0df20100 	ldfeqe	f0, [r2]
    1b40:	00008460 	andeq	r8, r0, r0, ror #8
    1b44:	000001d4 	ldrdeq	r0, [r0], -r4
    1b48:	11969c01 	orrsne	r9, r6, r1, lsl #24
    1b4c:	e2280000 	eor	r0, r8, #0, 0
    1b50:	01000000 	mrseq	r0, (UNDEF: 0)
    1b54:	002c21f2 	strdeq	r2, [ip], -r2	; <UNPREDICTABLE>
    1b58:	05b80000 	ldreq	r0, [r8, #0]!
    1b5c:	05b20000 	ldreq	r0, [r2, #0]!
    1b60:	a4280000 	strtge	r0, [r8], #-0
    1b64:	01000004 	tsteq	r0, r4
    1b68:	002c30f2 	strdeq	r3, [ip], -r2	; <UNPREDICTABLE>
    1b6c:	05ee0000 	strbeq	r0, [lr, #0]!
    1b70:	05e40000 	strbeq	r0, [r4, #0]!
    1b74:	c5280000 	strgt	r0, [r8, #-0]!
    1b78:	01000004 	tsteq	r0, r4
    1b7c:	00253cf2 	strdeq	r3, [r5], -r2	; <UNPREDICTABLE>
    1b80:	06390000 	ldrteq	r0, [r9], -r0
    1b84:	06330000 	ldrteq	r0, [r3], -r0
    1b88:	081d0000 	ldmdaeq	sp, {}	; <UNPREDICTABLE>
    1b8c:	a6000002 	strge	r0, [r0], -r2
    1b90:	05000011 	streq	r0, [r0, #-17]	; 0xffffffef
    1b94:	009c8c03 	addseq	r8, ip, r3, lsl #24
    1b98:	00632500 	rsbeq	r2, r3, r0, lsl #10
    1b9c:	0d010501 	cfstr32eq	mvfx0, [r1, #-4]
    1ba0:	0000018c 	andeq	r0, r0, ip, lsl #3
    1ba4:	00000667 	andeq	r0, r0, r7, ror #12
    1ba8:	00000665 	andeq	r0, r0, r5, ror #12
    1bac:	00852c1e 	addeq	r2, r5, lr, lsl ip
    1bb0:	00000000 	andeq	r0, r0, r0
    1bb4:	000f7800 	andeq	r7, pc, r0, lsl #16
    1bb8:	755f1400 	ldrbvc	r1, [pc, #-1024]	; 17c0 <__code_start__-0x6840>
    1bbc:	09010400 	stmdbeq	r1, {sl}
    1bc0:	0f6c0201 	svceq	0x006c0201
    1bc4:	76150000 	ldrvc	r0, [r5], -r0
    1bc8:	09010076 	stmdbeq	r1, {r1, r2, r4, r5, r6}
    1bcc:	018c0201 	orreq	r0, ip, r1, lsl #4
    1bd0:	75150000 	ldrvc	r0, [r5, #-0]
    1bd4:	09010075 	stmdbeq	r1, {r0, r2, r4, r5, r6}
    1bd8:	006e0201 	rsbeq	r0, lr, r1, lsl #4
    1bdc:	16000000 	strne	r0, [r0], -r0
    1be0:	09010075 	stmdbeq	r1, {r0, r2, r4, r5, r6}
    1be4:	0f460201 	svceq	0x00460201
    1be8:	1f000000 	svcne	0x00000000
    1bec:	00008478 	andeq	r8, r0, r8, ror r4
    1bf0:	00001391 	muleq	r0, r1, r3
    1bf4:	0084bc20 	addeq	fp, r4, r0, lsr #24
    1bf8:	0013b500 	andseq	fp, r3, r0, lsl #10
    1bfc:	000fb000 	andeq	fp, pc, r0
    1c00:	50012100 	andpl	r2, r1, r0, lsl #2
    1c04:	9bd00305 	blls	ff402820 <__bss_end__+0xff3f85c8>
    1c08:	01210000 			; <UNDEFINED> instruction: 0x01210000
    1c0c:	a0030551 	andge	r0, r3, r1, asr r5
    1c10:	2100009b 	swpcs	r0, fp, [r0]	; <UNPREDICTABLE>
    1c14:	03055201 	movweq	r5, #20993	; 0x5201
    1c18:	00009c8c 	andeq	r9, r0, ip, lsl #25
    1c1c:	02530121 	subseq	r0, r3, #1073741832	; 0x40000008
    1c20:	1f00f608 	svcne	0x0000f608
    1c24:	000084c0 	andeq	r8, r0, r0, asr #9
    1c28:	000013c1 	andeq	r1, r0, r1, asr #7
    1c2c:	0084d420 	addeq	sp, r4, r0, lsr #8
    1c30:	0013b500 	andseq	fp, r3, r0, lsl #10
    1c34:	000fe800 	andeq	lr, pc, r0, lsl #16
    1c38:	50012100 	andpl	r2, r1, r0, lsl #2
    1c3c:	9bac0305 	blls	feb02858 <__bss_end__+0xfeaf8600>
    1c40:	01210000 			; <UNDEFINED> instruction: 0x01210000
    1c44:	a0030551 	andge	r0, r3, r1, asr r5
    1c48:	2100009b 	swpcs	r0, fp, [r0]	; <UNPREDICTABLE>
    1c4c:	03055201 	movweq	r5, #20993	; 0x5201
    1c50:	00009c8c 	andeq	r9, r0, ip, lsl #25
    1c54:	02530121 	subseq	r0, r3, #1073741832	; 0x40000008
    1c58:	1f00f608 	svcne	0x0000f608
    1c5c:	000084d8 	ldrdeq	r8, [r0], -r8	; <UNPREDICTABLE>
    1c60:	000013c1 	andeq	r1, r0, r1, asr #7
    1c64:	0084ec1f 	addeq	lr, r4, pc, lsl ip
    1c68:	0011ab00 	andseq	sl, r1, r0, lsl #22
    1c6c:	85002000 	strhi	r2, [r0, #-0]
    1c70:	13a90000 			; <UNDEFINED> instruction: 0x13a90000
    1c74:	10170000 	andsne	r0, r7, r0
    1c78:	01210000 			; <UNDEFINED> instruction: 0x01210000
    1c7c:	0c0c0550 	cfstr32eq	mvfx0, [ip], {80}	; 0x50
    1c80:	21208040 			; <UNDEFINED> instruction: 0x21208040
    1c84:	76025101 	strvc	r5, [r2], -r1, lsl #2
    1c88:	14200000 	strtne	r0, [r0], #-0
    1c8c:	a9000085 	stmdbge	r0, {r0, r2, r7}
    1c90:	34000013 	strcc	r0, [r0], #-19	; 0xffffffed
    1c94:	21000010 	tstcs	r0, r0, lsl r0
    1c98:	0c055001 	stceq	0, cr5, [r5], {1}
    1c9c:	20804008 	addcs	r4, r0, r8
    1ca0:	02510121 	subseq	r0, r1, #1073741832	; 0x40000008
    1ca4:	20000075 	andcs	r0, r0, r5, ror r0
    1ca8:	00008520 	andeq	r8, r0, r0, lsr #10
    1cac:	000012de 	ldrdeq	r1, [r0], -lr
    1cb0:	00001048 	andeq	r1, r0, r8, asr #32
    1cb4:	02500121 	subseq	r0, r0, #1073741832	; 0x40000008
    1cb8:	20000075 	andcs	r0, r0, r5, ror r0
    1cbc:	00008538 	andeq	r8, r0, r8, lsr r5
    1cc0:	000013a9 	andeq	r1, r0, r9, lsr #7
    1cc4:	0000105c 	andeq	r1, r0, ip, asr r0
    1cc8:	02500121 	subseq	r0, r0, #1073741832	; 0x40000008
    1ccc:	20000075 	andcs	r0, r0, r5, ror r0
    1cd0:	0000857c 	andeq	r8, r0, ip, ror r5
    1cd4:	000013b5 			; <UNDEFINED> instruction: 0x000013b5
    1cd8:	0000108c 	andeq	r1, r0, ip, lsl #1
    1cdc:	05500121 	ldrbeq	r0, [r0, #-289]	; 0xfffffedf
    1ce0:	009bd003 	addseq	sp, fp, r3
    1ce4:	51012100 	mrspl	r2, (UNDEF: 17)
    1ce8:	9ba00305 	blls	fe802904 <__bss_end__+0xfe7f86ac>
    1cec:	01210000 			; <UNDEFINED> instruction: 0x01210000
    1cf0:	8c030552 	cfstr32hi	mvfx0, [r3], {82}	; 0x52
    1cf4:	2100009c 	swpcs	r0, ip, [r0]	; <UNPREDICTABLE>
    1cf8:	0a035301 	beq	d6904 <__bss_end__+0xcc6ac>
    1cfc:	1f000111 	svcne	0x00000111
    1d00:	00008580 	andeq	r8, r0, r0, lsl #11
    1d04:	000013c1 	andeq	r1, r0, r1, asr #7
    1d08:	00859c20 	addeq	r9, r5, r0, lsr #24
    1d0c:	0013b500 	andseq	fp, r3, r0, lsl #10
    1d10:	0010ce00 	andseq	ip, r0, r0, lsl #28
    1d14:	50012100 	andpl	r2, r1, r0, lsl #2
    1d18:	9c000305 	stcls	3, cr0, [r0], {5}
    1d1c:	01210000 			; <UNDEFINED> instruction: 0x01210000
    1d20:	a0030551 	andge	r0, r3, r1, asr r5
    1d24:	2100009b 	swpcs	r0, fp, [r0]	; <UNPREDICTABLE>
    1d28:	03055201 	movweq	r5, #20993	; 0x5201
    1d2c:	00009c8c 	andeq	r9, r0, ip, lsl #25
    1d30:	02530121 	subseq	r0, r3, #1073741832	; 0x40000008
    1d34:	0221f908 	eoreq	pc, r1, #8, 18	; 0x20000
    1d38:	0305007d 	movweq	r0, #20605	; 0x507d
    1d3c:	00009c3c 	andeq	r9, r0, ip, lsr ip
    1d40:	85a01f00 	strhi	r1, [r0, #3840]!	; 0xf00
    1d44:	13c10000 	bicne	r0, r1, #0, 0
    1d48:	bc200000 	stclt	0, cr0, [r0], #-0
    1d4c:	b5000085 	strlt	r0, [r0, #-133]	; 0xffffff7b
    1d50:	10000013 	andne	r0, r0, r3, lsl r0
    1d54:	21000011 	tstcs	r0, r1, lsl r0
    1d58:	03055001 	movweq	r5, #20481	; 0x5001
    1d5c:	00009c00 	andeq	r9, r0, r0, lsl #24
    1d60:	05510121 	ldrbeq	r0, [r1, #-289]	; 0xfffffedf
    1d64:	009ba003 	addseq	sl, fp, r3
    1d68:	52012100 	andpl	r2, r1, #0
    1d6c:	9c8c0305 	stcls	3, cr0, [ip], {5}
    1d70:	01210000 			; <UNDEFINED> instruction: 0x01210000
    1d74:	fe080253 	mcr2	2, 0, r0, cr8, cr3, {2}
    1d78:	007d0221 	rsbseq	r0, sp, r1, lsr #4
    1d7c:	9c540305 	mrrcls	3, 0, r0, r4, cr5
    1d80:	1f000000 	svcne	0x00000000
    1d84:	000085c0 	andeq	r8, r0, r0, asr #11
    1d88:	000013c1 	andeq	r1, r0, r1, asr #7
    1d8c:	0085dc20 	addeq	sp, r5, r0, lsr #24
    1d90:	0013b500 	andseq	fp, r3, r0, lsl #10
    1d94:	00115300 	andseq	r5, r1, r0, lsl #6
    1d98:	50012100 	andpl	r2, r1, r0, lsl #2
    1d9c:	9c000305 	stcls	3, cr0, [r0], {5}
    1da0:	01210000 			; <UNDEFINED> instruction: 0x01210000
    1da4:	a0030551 	andge	r0, r3, r1, asr r5
    1da8:	2100009b 	swpcs	r0, fp, [r0]	; <UNPREDICTABLE>
    1dac:	03055201 	movweq	r5, #20993	; 0x5201
    1db0:	00009c8c 	andeq	r9, r0, ip, lsl #25
    1db4:	03530121 	cmpeq	r3, #1073741832	; 0x40000008
    1db8:	2101020a 	tstcs	r1, sl, lsl #4
    1dbc:	05007d02 	streq	r7, [r0, #-3330]	; 0xfffff2fe
    1dc0:	009c6803 	addseq	r6, ip, r3, lsl #16
    1dc4:	e01f0000 	ands	r0, pc, r0
    1dc8:	c1000085 	smlabbgt	r0, r5, r0, r0
    1dcc:	20000013 	andcs	r0, r0, r3, lsl r0
    1dd0:	000085f4 	strdeq	r8, [r0], -r4
    1dd4:	000013b5 			; <UNDEFINED> instruction: 0x000013b5
    1dd8:	0000118c 	andeq	r1, r0, ip, lsl #3
    1ddc:	05500121 	ldrbeq	r0, [r0, #-289]	; 0xfffffedf
    1de0:	009bac03 	addseq	sl, fp, r3, lsl #24
    1de4:	51012100 	mrspl	r2, (UNDEF: 17)
    1de8:	9ba00305 	blls	fe802a04 <__bss_end__+0xfe7f87ac>
    1dec:	01210000 			; <UNDEFINED> instruction: 0x01210000
    1df0:	8c030552 	cfstr32hi	mvfx0, [r3], {82}	; 0x52
    1df4:	2100009c 	swpcs	r0, ip, [r0]	; <UNPREDICTABLE>
    1df8:	0a035301 	beq	d6a04 <__bss_end__+0xcc7ac>
    1dfc:	1f000111 	svcne	0x00000111
    1e00:	000085f8 	strdeq	r8, [r0], -r8	; <UNPREDICTABLE>
    1e04:	000013c1 	andeq	r1, r0, r1, asr #7
    1e08:	008f1900 	addeq	r1, pc, r0, lsl #18
    1e0c:	11a60000 			; <UNDEFINED> instruction: 0x11a60000
    1e10:	2c1a0000 	ldccs	0, cr0, [sl], {-0}
    1e14:	0a000000 	beq	1e1c <__code_start__-0x61e4>
    1e18:	11960400 	orrsne	r0, r6, r0, lsl #8
    1e1c:	35270000 	strcc	r0, [r7, #-0]!
    1e20:	01000005 	tsteq	r0, r5
    1e24:	84280de7 	strthi	r0, [r8], #-3559	; 0xfffff219
    1e28:	00280000 	eoreq	r0, r8, r0
    1e2c:	9c010000 	stcls	0, cr0, [r1], {-0}
    1e30:	0000122b 	andeq	r1, r0, fp, lsr #4
    1e34:	0100730e 	tsteq	r0, lr, lsl #6
    1e38:	02560de8 	subseq	r0, r6, #232, 26	; 0x3a00
    1e3c:	381e0000 	ldmdacc	lr, {}	; <UNPREDICTABLE>
    1e40:	00000084 	andeq	r0, r0, r4, lsl #1
    1e44:	06000000 	streq	r0, [r0], -r0
    1e48:	29000012 	stmdbcs	r0, {r1, r4}
    1e4c:	0400755f 	streq	r7, [r0], #-1375	; 0xfffffaa1
    1e50:	fb02ef01 	blx	bda5e <__bss_end__+0xb3806>
    1e54:	2a000011 	bcs	1ea0 <__code_start__-0x6160>
    1e58:	01007676 	tsteq	r0, r6, ror r6
    1e5c:	025602ef 	subseq	r0, r6, #-268435442	; 0xf000000e
    1e60:	752a0000 	strvc	r0, [sl, #-0]!
    1e64:	ef010075 	svc	0x00010075
    1e68:	00006e02 	andeq	r6, r0, r2, lsl #28
    1e6c:	750e0000 	strvc	r0, [lr, #-0]
    1e70:	02ef0100 	rsceq	r0, pc, #0
    1e74:	000011d8 	ldrdeq	r1, [r0], -r8
    1e78:	84382000 	ldrthi	r2, [r8], #-0
    1e7c:	122b0000 	eorne	r0, fp, #0, 0
    1e80:	121a0000 	andsne	r0, sl, #0, 0
    1e84:	01210000 			; <UNDEFINED> instruction: 0x01210000
    1e88:	00740250 	rsbseq	r0, r4, r0, asr r2
    1e8c:	84482b00 	strbhi	r2, [r8], #-2816	; 0xfffff500
    1e90:	13a90000 			; <UNDEFINED> instruction: 0x13a90000
    1e94:	01210000 			; <UNDEFINED> instruction: 0x01210000
    1e98:	00740250 	rsbseq	r0, r4, r0, asr r2
    1e9c:	ab2c0000 	blge	b01ea4 <__bss_end__+0xaf7c4c>
    1ea0:	01000004 	tsteq	r0, r4
    1ea4:	025613b8 	subseq	r1, r6, #184, 6	; 0xe0000002
    1ea8:	84180000 	ldrhi	r0, [r8], #-0
    1eac:	00100000 	andseq	r0, r0, r0
    1eb0:	9c010000 	stcls	0, cr0, [r1], {-0}
    1eb4:	000012ab 	andeq	r1, r0, fp, lsr #5
    1eb8:	0100732d 	tsteq	r0, sp, lsr #6
    1ebc:	12ab2fb8 	adcne	r2, fp, #184, 30	; 0x2e0
    1ec0:	067e0000 	ldrbteq	r0, [lr], -r0
    1ec4:	067a0000 	ldrbteq	r0, [sl], -r0
    1ec8:	1c1e0000 	ldcne	0, cr0, [lr], {-0}
    1ecc:	04000084 	streq	r0, [r0], #-132	; 0xffffff7c
    1ed0:	a1000000 	mrsge	r0, (UNDEF: 0)
    1ed4:	29000012 	stmdbcs	r0, {r1, r4}
    1ed8:	0400755f 	streq	r7, [r0], #-1375	; 0xfffffaa1
    1edc:	8511b901 	ldrhi	fp, [r1, #-2305]	; 0xfffff6ff
    1ee0:	2a000012 	bcs	1f30 <__code_start__-0x60d0>
    1ee4:	b9010076 	stmdblt	r1, {r1, r2, r4, r5, r6}
    1ee8:	00026211 	andeq	r6, r2, r1, lsl r2
    1eec:	00752a00 	rsbseq	r2, r5, r0, lsl #20
    1ef0:	2c11b901 			; <UNDEFINED> instruction: 0x2c11b901
    1ef4:	00000000 	andeq	r0, r0, r0
    1ef8:	0100750e 	tsteq	r0, lr, lsl #10
    1efc:	126411b9 	rsbne	r1, r4, #1073741870	; 0x4000002e
    1f00:	202b0000 	eorcs	r0, fp, r0
    1f04:	cd000084 	stcgt	0, cr0, [r0, #-528]	; 0xfffffdf0
    1f08:	21000013 	tstcs	r0, r3, lsl r0
    1f0c:	f3035001 	vhadd.u8	d5, d3, d1
    1f10:	00005001 	andeq	r5, r0, r1
    1f14:	0084241f 	addeq	r2, r4, pc, lsl r4
    1f18:	0012b100 	andseq	fp, r2, r0, lsl #2
    1f1c:	040f0000 	streq	r0, [pc], #-0	; 1f24 <__code_start__-0x60dc>
    1f20:	00000262 	andeq	r0, r0, r2, ror #4
    1f24:	00031b2c 	andeq	r1, r3, ip, lsr #22
    1f28:	13b40100 			; <UNDEFINED> instruction: 0x13b40100
    1f2c:	00000256 	andeq	r0, r0, r6, asr r2
    1f30:	0000830c 	andeq	r8, r0, ip, lsl #6
    1f34:	0000000c 	andeq	r0, r0, ip
    1f38:	12de9c01 	sbcsne	r9, lr, #256	; 0x100
    1f3c:	732d0000 			; <UNDEFINED> instruction: 0x732d0000
    1f40:	26b40100 	ldrtcs	r0, [r4], r0, lsl #2
    1f44:	00000256 	andeq	r0, r0, r6, asr r2
    1f48:	000006a1 	andeq	r0, r0, r1, lsr #13
    1f4c:	0000069f 	muleq	r0, pc, r6	; <UNPREDICTABLE>
    1f50:	04f82c00 	ldrbteq	r2, [r8], #3072	; 0xc00
    1f54:	7e010000 	cdpvc	0, 0, cr0, cr1, cr0, {0}
    1f58:	00018c13 	andeq	r8, r1, r3, lsl ip
    1f5c:	00845000 	addeq	r5, r4, r0
    1f60:	00001000 	andeq	r1, r0, r0
    1f64:	5e9c0100 	fmlple	f0, f4, f0
    1f68:	2d000013 	stccs	0, cr0, [r0, #-76]	; 0xffffffb4
    1f6c:	7e010063 	cdpvc	0, 0, cr0, cr1, cr3, {3}
    1f70:	00135e2f 	andseq	r5, r3, pc, lsr #28
    1f74:	0006b800 	andeq	fp, r6, r0, lsl #16
    1f78:	0006b400 	andeq	fp, r6, r0, lsl #8
    1f7c:	84541e00 	ldrbhi	r1, [r4], #-3584	; 0xfffff200
    1f80:	00040000 	andeq	r0, r4, r0
    1f84:	13540000 	cmpne	r4, #0, 0
    1f88:	5f290000 	svcpl	0x00290000
    1f8c:	01040075 	tsteq	r4, r5, ror r0
    1f90:	1338117f 	teqne	r8, #-1073741793	; 0xc000001f
    1f94:	762a0000 	strtvc	r0, [sl], -r0
    1f98:	117f0100 	cmnne	pc, r0, lsl #2
    1f9c:	00000198 	muleq	r0, r8, r1
    1fa0:	0100752a 	tsteq	r0, sl, lsr #10
    1fa4:	002c117f 	eoreq	r1, ip, pc, ror r1
    1fa8:	0e000000 	cdpeq	0, 0, cr0, cr0, cr0, {0}
    1fac:	7f010075 	svcvc	0x00010075
    1fb0:	00131711 	andseq	r1, r3, r1, lsl r7
    1fb4:	84582b00 	ldrbhi	r2, [r8], #-2816	; 0xfffff500
    1fb8:	13cd0000 	bicne	r0, sp, #0, 0
    1fbc:	01210000 			; <UNDEFINED> instruction: 0x01210000
    1fc0:	01f30350 	mvnseq	r0, r0, asr r3
    1fc4:	1f000050 	svcne	0x00000050
    1fc8:	0000845c 	andeq	r8, r0, ip, asr r4
    1fcc:	00001364 	andeq	r1, r0, r4, ror #6
    1fd0:	98040f00 	stmdals	r4, {r8, r9, sl, fp}
    1fd4:	2c000001 	stccs	0, cr0, [r0], {1}
    1fd8:	00000302 	andeq	r0, r0, r2, lsl #6
    1fdc:	8c137701 	ldchi	7, cr7, [r3], {1}
    1fe0:	fc000001 	stc2	0, cr0, [r0], {1}
    1fe4:	10000082 	andne	r0, r0, r2, lsl #1
    1fe8:	01000000 	mrseq	r0, (UNDEF: 0)
    1fec:	0013919c 	mulseq	r3, ip, r1
    1ff0:	00632d00 	rsbeq	r2, r3, r0, lsl #26
    1ff4:	8c267701 	stchi	7, cr7, [r6], #-4
    1ff8:	dd000001 	stcle	0, cr0, [r0, #-4]
    1ffc:	d9000006 	stmdble	r0, {r1, r2}
    2000:	00000006 	andeq	r0, r0, r6
    2004:	0004842e 	andeq	r8, r4, lr, lsr #8
    2008:	00048400 	andeq	r8, r4, r0, lsl #8
    200c:	06930300 	ldreq	r0, [r3], r0, lsl #6
    2010:	0004dd2e 	andeq	sp, r4, lr, lsr #26
    2014:	0004dd00 	andeq	sp, r4, r0, lsl #26
    2018:	06190400 	ldreq	r0, [r9], -r0, lsl #8
    201c:	00038d2e 	andeq	r8, r3, lr, lsr #26
    2020:	00038d00 	andeq	r8, r3, r0, lsl #26
    2024:	06a50300 	strteq	r0, [r5], r0, lsl #6
    2028:	0006ec2e 	andeq	lr, r6, lr, lsr #24
    202c:	0006ec00 	andeq	lr, r6, r0, lsl #24
    2030:	06280300 	strteq	r0, [r8], -r0, lsl #6
    2034:	0001d42e 	andeq	sp, r1, lr, lsr #8
    2038:	0001d400 	andeq	sp, r1, r0, lsl #8
    203c:	06670300 	strbteq	r0, [r7], -r0, lsl #6
    2040:	0004902e 	andeq	r9, r4, lr, lsr #32
    2044:	00049000 	andeq	r9, r4, r0
    2048:	0bb10300 	bleq	fec42c50 <__bss_end__+0xfec389f8>
    204c:	00067300 	andeq	r7, r6, r0, lsl #6
    2050:	59000400 	stmdbpl	r0, {sl}
    2054:	04000006 	streq	r0, [r0], #-6
    2058:	0005d701 	andeq	sp, r5, r1, lsl #14
    205c:	058d0c00 	streq	r0, [sp, #3072]	; 0xc00
    2060:	06b10000 	ldrteq	r0, [r1], r0
    2064:	88740000 	ldmdahi	r4!, {}^	; <UNPREDICTABLE>
    2068:	01980000 	orrseq	r0, r8, r0
    206c:	09ce0000 	stmibeq	lr, {}^	; <UNPREDICTABLE>
    2070:	08020000 	stmdaeq	r2, {}	; <UNPREDICTABLE>
    2074:	00007307 	andeq	r7, r0, r7, lsl #6
    2078:	07040200 	streq	r0, [r4, -r0, lsl #4]
    207c:	0000007d 	andeq	r0, r0, sp, ror r0
    2080:	69050403 	stmdbvs	r5, {r0, r1, sl}
    2084:	0400746e 	streq	r7, [r0], #-1134	; 0xfffffb92
    2088:	0000002c 	andeq	r0, r0, ip, lsr #32
    208c:	24060102 	strcs	r0, [r6], #-258	; 0xfffffefe
    2090:	02000000 	andeq	r0, r0, #0, 0
    2094:	00a40502 	adceq	r0, r4, r2, lsl #10
    2098:	04020000 	streq	r0, [r2], #-0
    209c:	00008f05 	andeq	r8, r0, r5, lsl #30
    20a0:	05080200 	streq	r0, [r8, #-512]	; 0xfffffe00
    20a4:	0000008a 	andeq	r0, r0, sl, lsl #1
    20a8:	22080102 	andcs	r0, r8, #-2147483648	; 0x80000000
    20ac:	02000000 	andeq	r0, r0, #0, 0
    20b0:	00390702 	eorseq	r0, r9, r2, lsl #14
    20b4:	5c050000 	stcpl	0, cr0, [r5], {-0}
    20b8:	03000002 	movweq	r0, #2
    20bc:	00751934 	rsbseq	r1, r5, r4, lsr r9
    20c0:	04020000 	streq	r0, [r2], #-0
    20c4:	00007807 	andeq	r7, r0, r7, lsl #16
    20c8:	00330600 	eorseq	r0, r3, r0, lsl #12
    20cc:	008b0000 	addeq	r0, fp, r0
    20d0:	33070000 	movwcc	r0, #28672	; 0x7000
    20d4:	00000000 	andeq	r0, r0, r0
    20d8:	00009808 	andeq	r9, r0, r8, lsl #16
    20dc:	0e1c0200 	cdpeq	2, 1, cr0, cr12, cr0, {0}
    20e0:	00000097 	muleq	r0, r7, r0
    20e4:	007c0409 	rsbseq	r0, ip, r9, lsl #8
    20e8:	33060000 	movwcc	r0, #24576	; 0x6000
    20ec:	ac000000 	stcge	0, cr0, [r0], {-0}
    20f0:	07000000 	streq	r0, [r0, -r0]
    20f4:	000000ac 	andeq	r0, r0, ip, lsr #1
    20f8:	b9040900 	stmdblt	r4, {r8, fp}
    20fc:	02000000 	andeq	r0, r0, #0, 0
    2100:	002b0801 	eoreq	r0, fp, r1, lsl #16
    2104:	b2040000 	andlt	r0, r4, #0, 0
    2108:	08000000 	stmdaeq	r0, {}	; <UNPREDICTABLE>
    210c:	00000763 	andeq	r0, r0, r3, ror #14
    2110:	ca0e2102 	bgt	38a520 <__bss_end__+0x3802c8>
    2114:	09000000 	stmdbeq	r0, {}	; <UNPREDICTABLE>
    2118:	00009d04 	andeq	r9, r0, r4, lsl #26
    211c:	01070a00 	tsteq	r7, r0, lsl #20
    2120:	0000005b 	andeq	r0, r0, fp, asr r0
    2124:	0f0e0c04 	svceq	0x000e0c04
    2128:	0b000001 	bleq	2134 <__code_start__-0x5ecc>
    212c:	000003b9 			; <UNDEFINED> instruction: 0x000003b9
    2130:	030a0b00 	movweq	r0, #43776	; 0xab00
    2134:	0b010000 	bleq	4213c <__bss_end__+0x37ee4>
    2138:	00000323 	andeq	r0, r0, r3, lsr #6
    213c:	03320b04 	teqeq	r2, #4, 22	; 0x1000
    2140:	0b050000 	bleq	142148 <__bss_end__+0x137ef0>
    2144:	00000341 	andeq	r0, r0, r1, asr #6
    2148:	03500b06 	cmpeq	r0, #6144	; 0x1800
    214c:	0b070000 	bleq	1c2154 <__bss_end__+0x1b7efc>
    2150:	0000035f 	andeq	r0, r0, pc, asr r3
    2154:	036e0b03 	cmneq	lr, #3072	; 0xc00
    2158:	00020000 	andeq	r0, r2, r0
    215c:	0005cb05 	andeq	ip, r5, r5, lsl #22
    2160:	03150400 	tsteq	r5, #0, 8
    2164:	000000d0 	ldrdeq	r0, [r0], -r0	; <UNPREDICTABLE>
    2168:	0005580c 	andeq	r5, r5, ip, lsl #16
    216c:	171d0100 	ldrne	r0, [sp, -r0, lsl #2]
    2170:	0000003a 	andeq	r0, r0, sl, lsr r0
    2174:	2020001c 	eorcs	r0, r0, ip, lsl r0
    2178:	00054e0c 	andeq	r4, r5, ip, lsl #28
    217c:	171e0100 	ldrne	r0, [lr, -r0, lsl #2]
    2180:	0000003a 	andeq	r0, r0, sl, lsr r0
    2184:	20200028 	eorcs	r0, r0, r8, lsr #32
    2188:	0006a70c 	andeq	sl, r6, ip, lsl #14
    218c:	171f0100 	ldrne	r0, [pc, -r0, lsl #2]
    2190:	0000003a 	andeq	r0, r0, sl, lsr r0
    2194:	20200034 	eorcs	r0, r0, r4, lsr r0
    2198:	00057d0d 	andeq	r7, r5, sp, lsl #26
    219c:	05510100 	ldrbeq	r0, [r1, #-256]	; 0xffffff00
    21a0:	00000033 	andeq	r0, r0, r3, lsr r0
    21a4:	000089e4 	andeq	r8, r0, r4, ror #19
    21a8:	00000028 	andeq	r0, r0, r8, lsr #32
    21ac:	01ba9c01 			; <UNDEFINED> instruction: 0x01ba9c01
    21b0:	700e0000 	andvc	r0, lr, r0
    21b4:	01006e69 	tsteq	r0, r9, ror #28
    21b8:	002c1851 	eoreq	r1, ip, r1, asr r8
    21bc:	07010000 	streq	r0, [r1, -r0]
    21c0:	06fb0000 	ldrbteq	r0, [fp], r0
    21c4:	d30f0000 	movwle	r0, #61440	; 0xf000
    21c8:	01000006 	tsteq	r0, r6
    21cc:	002c0e52 	eoreq	r0, ip, r2, asr lr
    21d0:	07370000 	ldreq	r0, [r7, -r0]!
    21d4:	072d0000 	streq	r0, [sp, -r0]!
    21d8:	6f100000 	svcvs	0x00100000
    21dc:	01006666 	tsteq	r0, r6, ror #12
    21e0:	002c0e53 	eoreq	r0, ip, r3, asr lr
    21e4:	07a50000 	streq	r0, [r5, r0]!
    21e8:	079f0000 	ldreq	r0, [pc, r0]
    21ec:	f8110000 			; <UNDEFINED> instruction: 0xf8110000
    21f0:	5e000089 	cdppl	0, 0, cr0, cr0, cr9, {4}
    21f4:	12000006 	andne	r0, r0, #6, 0
    21f8:	740a5001 	strvc	r5, [sl], #-1
    21fc:	23253500 			; <UNDEFINED> instruction: 0x23253500
    2200:	818080b4 	strhhi	r8, [r0, r4]
    2204:	13000002 	movwne	r0, #2
    2208:	00000562 	andeq	r0, r0, r2, ror #10
    220c:	b4064a01 	strlt	r4, [r6], #-2561	; 0xfffff5ff
    2210:	30000089 	andcc	r0, r0, r9, lsl #1
    2214:	01000000 	mrseq	r0, (UNDEF: 0)
    2218:	0002759c 	muleq	r2, ip, r5
    221c:	69700e00 	ldmdbvs	r0!, {r9, sl, fp}^
    2220:	4a01006e 	bmi	423e0 <__bss_end__+0x38188>
    2224:	00002c1a 	andeq	r2, r0, sl, lsl ip
    2228:	0007e200 	andeq	lr, r7, r0, lsl #4
    222c:	0007d600 	andeq	sp, r7, r0, lsl #12
    2230:	00760e00 	rsbseq	r0, r6, r0, lsl #28
    2234:	2c284a01 			; <UNDEFINED> instruction: 0x2c284a01
    2238:	36000000 	strcc	r0, [r0], -r0
    223c:	32000008 	andcc	r0, r0, #8, 0
    2240:	14000008 	strne	r0, [r0], #-8
    2244:	0000038d 	andeq	r0, r0, sp, lsl #7
    2248:	000089c4 	andeq	r8, r0, r4, asr #19
    224c:	00013001 	andeq	r3, r1, r1
    2250:	094c0100 	stmdbeq	ip, {r8}^
    2254:	00000235 	andeq	r0, r0, r5, lsr r2
    2258:	00039a15 	andeq	r9, r3, r5, lsl sl
    225c:	00085d00 	andeq	r5, r8, r0, lsl #26
    2260:	00085700 	andeq	r5, r8, r0, lsl #14
    2264:	89d01600 	ldmibhi	r0, {r9, sl, ip}^
    2268:	066a0000 	strbteq	r0, [sl], -r0
    226c:	01120000 	tsteq	r2, r0
    2270:	1c0c0550 	cfstr32ne	mvfx0, [ip], {80}	; 0x50
    2274:	12202000 	eorne	r2, r0, #0, 0
    2278:	31055101 	tstcc	r5, r1, lsl #2
    227c:	245001f3 	ldrbcs	r0, [r0], #-499	; 0xfffffe0d
    2280:	73170000 	tstvc	r7, #0, 0
    2284:	d0000003 	andle	r0, r0, r3
    2288:	02000089 	andeq	r0, r0, #137, 0	; 0x89
    228c:	000089d0 	ldrdeq	r8, [r0], -r0
    2290:	00000014 	andeq	r0, r0, r4, lsl r0
    2294:	15094e01 	strne	r4, [r9, #-3585]	; 0xfffff1ff
    2298:	00000380 	andeq	r0, r0, r0, lsl #7
    229c:	0000088f 	andeq	r0, r0, pc, lsl #17
    22a0:	00000889 	andeq	r0, r0, r9, lsl #17
    22a4:	0089dc16 	addeq	sp, r9, r6, lsl ip
    22a8:	00066a00 	andeq	r6, r6, r0, lsl #20
    22ac:	50011200 	andpl	r1, r1, r0, lsl #4
    22b0:	00280c05 	eoreq	r0, r8, r5, lsl #24
    22b4:	01122020 	tsteq	r2, r0, lsr #32
    22b8:	f3310551 	vqrshl.u64	q0, <illegal reg q0.5>, <illegal reg q0.5>
    22bc:	00245001 	eoreq	r5, r4, r1
    22c0:	9a130000 	bls	4c22c8 <__bss_end__+0x4b8070>
    22c4:	01000005 	tsteq	r0, r5
    22c8:	895c0645 	ldmdbhi	ip, {r0, r2, r6, r9, sl}^
    22cc:	00580000 	subseq	r0, r8, r0
    22d0:	9c010000 	stcls	0, cr0, [r1], {-0}
    22d4:	00000373 	andeq	r0, r0, r3, ror r3
    22d8:	6e69700e 	cdpvs	0, 6, cr7, cr9, cr14, {0}
    22dc:	1e450100 	dvfnes	f0, f5, f0
    22e0:	0000002c 	andeq	r0, r0, ip, lsr #32
    22e4:	000008c1 	andeq	r0, r0, r1, asr #17
    22e8:	000008bb 			; <UNDEFINED> instruction: 0x000008bb
    22ec:	0004a518 	andeq	sl, r4, r8, lsl r5
    22f0:	00895c00 	addeq	r5, r9, r0, lsl #24
    22f4:	00f00200 	rscseq	r0, r0, r0, lsl #4
    22f8:	46010000 	strmi	r0, [r1], -r0
    22fc:	04be1905 	ldrteq	r1, [lr], #2309	; 0x905
    2300:	15000000 	strne	r0, [r0, #-0]
    2304:	000004b2 			; <UNDEFINED> instruction: 0x000004b2
    2308:	000008f3 	strdeq	r0, [r0], -r3
    230c:	000008ed 	andeq	r0, r0, sp, ror #17
    2310:	0000f01a 	andeq	pc, r0, sl, lsl r0	; <UNPREDICTABLE>
    2314:	04ca1b00 	strbeq	r1, [sl], #2816	; 0xb00
    2318:	d61b0000 	ldrle	r0, [fp], -r0
    231c:	1b000004 	blne	2334 <__code_start__-0x5ccc>
    2320:	000004e0 	andeq	r0, r0, r0, ror #9
    2324:	0004a518 	andeq	sl, r4, r8, lsl r5
    2328:	00896400 	addeq	r6, r9, r0, lsl #8
    232c:	01100000 	tsteq	r0, r0
    2330:	28010000 	stmdacs	r1, {}	; <UNPREDICTABLE>
    2334:	04be1906 	ldrteq	r1, [lr], #2310	; 0x906
    2338:	15000000 	strne	r0, [r0, #-0]
    233c:	000004b2 			; <UNDEFINED> instruction: 0x000004b2
    2340:	00000925 	andeq	r0, r0, r5, lsr #18
    2344:	0000091f 	andeq	r0, r0, pc, lsl r9
    2348:	0001101a 	andeq	r1, r1, sl, lsl r0
    234c:	04ca1c00 	strbeq	r1, [sl], #3072	; 0xc00
    2350:	09570000 	ldmdbeq	r7, {}^	; <UNPREDICTABLE>
    2354:	09510000 	ldmdbeq	r1, {}^	; <UNPREDICTABLE>
    2358:	d61c0000 	ldrle	r0, [ip], -r0
    235c:	99000004 	stmdbls	r0, {r2}
    2360:	93000009 	movwls	r0, #9
    2364:	1c000009 	stcne	0, cr0, [r0], {9}
    2368:	000004e0 	andeq	r0, r0, r0, ror #9
    236c:	000009ef 	andeq	r0, r0, pc, ror #19
    2370:	000009e7 	andeq	r0, r0, r7, ror #19
    2374:	00898c1d 	addeq	r8, r9, sp, lsl ip
    2378:	00065e00 	andeq	r5, r6, r0, lsl #28
    237c:	00033b00 	andeq	r3, r3, r0, lsl #22
    2380:	50011200 	andpl	r1, r1, r0, lsl #4
    2384:	00007602 	andeq	r7, r0, r2, lsl #12
    2388:	0089b016 	addeq	fp, r9, r6, lsl r0
    238c:	00066a00 	andeq	r6, r6, r0, lsl #20
    2390:	50011200 	andpl	r1, r1, r0, lsl #4
    2394:	5001f325 	andpl	pc, r1, r5, lsr #6
    2398:	25f72cf7 	ldrbcs	r2, [r7, #3319]!	; 0xcf7
    239c:	cd0825f4 	cfstr32gt	mvfx2, [r8, #-976]	; 0xfffffc30
    23a0:	00cccccc 	sbceq	ip, ip, ip, asr #25
    23a4:	1e000000 	cdpne	0, 0, cr0, cr0, cr0, {0}
    23a8:	25f72008 	ldrbcs	r2, [r7, #8]!
    23ac:	f72cf725 			; <UNDEFINED> instruction: 0xf72cf725
    23b0:	23253300 			; <UNDEFINED> instruction: 0x23253300
    23b4:	40a08080 	adcmi	r8, r0, r0, lsl #1
    23b8:	00002432 	andeq	r2, r0, r2, lsr r4
    23bc:	00000000 	andeq	r0, r0, r0
    23c0:	0005a91e 	andeq	sl, r5, lr, lsl r9
    23c4:	0d400100 	stfeqe	f0, [r0, #-0]
    23c8:	00038d03 	andeq	r8, r3, r3, lsl #26
    23cc:	69701f00 	ldmdbvs	r0!, {r8, r9, sl, fp, ip}^
    23d0:	4001006e 	andmi	r0, r1, lr, rrx
    23d4:	00002c23 	andeq	r2, r0, r3, lsr #24
    23d8:	d81e0000 	ldmdale	lr, {}	; <UNPREDICTABLE>
    23dc:	01000006 	tsteq	r0, r6
    23e0:	a7030d3b 	smladxge	r3, fp, sp, r0
    23e4:	1f000003 	svcne	0x00000003
    23e8:	006e6970 	rsbeq	r6, lr, r0, ror r9
    23ec:	2c223b01 			; <UNDEFINED> instruction: 0x2c223b01
    23f0:	00000000 	andeq	r0, r0, r0
    23f4:	0005b613 	andeq	fp, r5, r3, lsl r6
    23f8:	06360100 	ldrteq	r0, [r6], -r0, lsl #2
    23fc:	000088d4 	ldrdeq	r8, [r0], -r4
    2400:	00000058 	andeq	r0, r0, r8, asr r0
    2404:	04a59c01 	strteq	r9, [r5], #3073	; 0xc01
    2408:	700e0000 	andvc	r0, lr, r0
    240c:	01006e69 	tsteq	r0, r9, ror #28
    2410:	002c1f36 	eoreq	r1, ip, r6, lsr pc
    2414:	0a4d0000 	beq	134241c <__bss_end__+0x13381c4>
    2418:	0a490000 	beq	1242420 <__bss_end__+0x12381c8>
    241c:	a5180000 	ldrge	r0, [r8, #-0]
    2420:	d4000004 	strle	r0, [r0], #-4
    2424:	02000088 	andeq	r0, r0, #136, 0	; 0x88
    2428:	000000b0 	strheq	r0, [r0], -r0	; <UNPREDICTABLE>
    242c:	19053701 	stmdbne	r5, {r0, r8, r9, sl, ip, sp}
    2430:	000004be 			; <UNDEFINED> instruction: 0x000004be
    2434:	04b21501 	ldrteq	r1, [r2], #1281	; 0x501
    2438:	0a720000 	beq	1c82440 <__bss_end__+0x1c781e8>
    243c:	0a6e0000 	beq	1b82444 <__bss_end__+0x1b781ec>
    2440:	b01a0000 	andslt	r0, sl, r0
    2444:	1b000000 	blne	244c <__code_start__-0x5bb4>
    2448:	000004ca 	andeq	r0, r0, sl, asr #9
    244c:	0004d61b 	andeq	sp, r4, fp, lsl r6
    2450:	04e01b00 	strbteq	r1, [r0], #2816	; 0xb00
    2454:	a5180000 	ldrge	r0, [r8, #-0]
    2458:	dc000004 	stcle	0, cr0, [r0], {4}
    245c:	00000088 	andeq	r0, r0, r8, lsl #1
    2460:	000000d0 	ldrdeq	r0, [r0], -r0	; <UNPREDICTABLE>
    2464:	19062801 	stmdbne	r6, {r0, fp, sp}
    2468:	000004be 			; <UNDEFINED> instruction: 0x000004be
    246c:	04b21501 	ldrteq	r1, [r2], #1281	; 0x501
    2470:	0a970000 	beq	fe5c2478 <__bss_end__+0xfe5b8220>
    2474:	0a930000 	beq	fe4c247c <__bss_end__+0xfe4b8224>
    2478:	d01a0000 	andsle	r0, sl, r0
    247c:	1c000000 	stcne	0, cr0, [r0], {-0}
    2480:	000004ca 	andeq	r0, r0, sl, asr #9
    2484:	00000abc 			; <UNDEFINED> instruction: 0x00000abc
    2488:	00000ab8 			; <UNDEFINED> instruction: 0x00000ab8
    248c:	0004d61c 	andeq	sp, r4, ip, lsl r6
    2490:	000b0800 	andeq	r0, fp, r0, lsl #16
    2494:	000b0200 	andeq	r0, fp, r0, lsl #4
    2498:	04e01c00 	strbteq	r1, [r0], #3072	; 0xc00
    249c:	0b5e0000 	bleq	17824a4 <__bss_end__+0x177824c>
    24a0:	0b560000 	bleq	15824a8 <__bss_end__+0x1578250>
    24a4:	081d0000 	ldmdaeq	sp, {}	; <UNPREDICTABLE>
    24a8:	5e000089 	cdppl	0, 0, cr0, cr0, cr9, {4}
    24ac:	6d000006 	stcvs	0, cr0, [r0, #-24]	; 0xffffffe8
    24b0:	12000004 	andne	r0, r0, #4, 0
    24b4:	75025001 	strvc	r5, [r2, #-1]
    24b8:	28160000 	ldmdacs	r6, {}	; <UNPREDICTABLE>
    24bc:	6a000089 	bvs	26e8 <__code_start__-0x5918>
    24c0:	12000006 	andne	r0, r0, #6, 0
    24c4:	f3255001 	vhadd.u32	d5, d5, d1
    24c8:	2cf75001 	ldclcs	0, cr5, [r7], #4
    24cc:	25f425f7 	ldrbcs	r2, [r4, #1527]!	; 0x5f7
    24d0:	cccccd08 	stclgt	13, cr12, [ip], {8}
    24d4:	000000cc 	andeq	r0, r0, ip, asr #1
    24d8:	20081e00 	andcs	r1, r8, r0, lsl #28
    24dc:	f72525f7 			; <UNDEFINED> instruction: 0xf72525f7
    24e0:	3300f72c 	movwcc	pc, #1836	; 0x72c	; <UNPREDICTABLE>
    24e4:	80802325 	addhi	r2, r0, r5, lsr #6
    24e8:	243240a0 	ldrtcs	r4, [r2], #-160	; 0xffffff60
    24ec:	00000000 	andeq	r0, r0, r0
    24f0:	dd1e0000 	ldcle	0, cr0, [lr, #-0]
    24f4:	01000004 	tsteq	r0, r4
    24f8:	eb010628 	bl	43da0 <__bss_end__+0x39b48>
    24fc:	1f000004 	svcne	0x00000004
    2500:	006e6970 	rsbeq	r6, lr, r0, ror r9
    2504:	2c212801 	stccs	8, cr2, [r1], #-4
    2508:	20000000 	andcs	r0, r0, r0
    250c:	000005c6 	andeq	r0, r0, r6, asr #11
    2510:	0f322801 	svceq	0x00322801
    2514:	21000001 	tstcs	r0, r1
    2518:	0066666f 	rsbeq	r6, r6, pc, ror #12
    251c:	2c0e2d01 	stccs	13, cr2, [lr], {1}
    2520:	21000000 	mrscs	r0, (UNDEF: 0)
    2524:	2e010067 	cdpcs	0, 0, cr0, cr1, cr7, {3}
    2528:	00002c0e 	andeq	r2, r0, lr, lsl #24
    252c:	00762100 	rsbseq	r2, r6, r0, lsl #2
    2530:	2c0e3001 	stccs	0, cr3, [lr], {1}
    2534:	00000000 	andeq	r0, r0, r0
    2538:	00056d22 	andeq	r6, r5, r2, lsr #26
    253c:	18b60200 	ldmne	r6!, {r9}
    2540:	00000069 	andeq	r0, r0, r9, rrx
    2544:	00050703 	andeq	r0, r5, r3, lsl #14
    2548:	00781f00 	rsbseq	r1, r8, r0, lsl #30
    254c:	692bb602 	stmdbvs	fp!, {r1, r9, sl, ip, sp, pc}
    2550:	00000000 	andeq	r0, r0, r0
    2554:	0004a523 	andeq	sl, r4, r3, lsr #10
    2558:	00887400 	addeq	r7, r8, r0, lsl #8
    255c:	00006000 	andeq	r6, r0, r0
    2560:	e49c0100 	ldr	r0, [ip], #256	; 0x100
    2564:	15000005 	strne	r0, [r0, #-5]
    2568:	000004b2 			; <UNDEFINED> instruction: 0x000004b2
    256c:	00000b9d 	muleq	r0, sp, fp
    2570:	00000b99 	muleq	r0, r9, fp
    2574:	0004be15 	andeq	fp, r4, r5, lsl lr
    2578:	000bc200 	andeq	ip, fp, r0, lsl #4
    257c:	000bbe00 	andeq	fp, fp, r0, lsl #28
    2580:	04ca1b00 	strbeq	r1, [sl], #2816	; 0xb00
    2584:	d61b0000 	ldrle	r0, [fp], -r0
    2588:	1b000004 	blne	25a0 <__code_start__-0x5a60>
    258c:	000004e0 	andeq	r0, r0, r0, ror #9
    2590:	0004a518 	andeq	sl, r4, r8, lsl r5
    2594:	00887c00 	addeq	r7, r8, r0, lsl #24
    2598:	00900000 	addseq	r0, r0, r0
    259c:	28010000 	stmdacs	r1, {}	; <UNPREDICTABLE>
    25a0:	04be1506 	ldrteq	r1, [lr], #1286	; 0x506
    25a4:	0be70000 	bleq	ff9c25ac <__bss_end__+0xff9b8354>
    25a8:	0be30000 	bleq	ff8c25b0 <__bss_end__+0xff8b8358>
    25ac:	b2150000 	andslt	r0, r5, #0, 0
    25b0:	0c000004 	stceq	0, cr0, [r0], {4}
    25b4:	0800000c 	stmdaeq	r0, {r2, r3}
    25b8:	1a00000c 	bne	25f0 <__code_start__-0x5a10>
    25bc:	00000090 	muleq	r0, r0, r0
    25c0:	0004ca1c 	andeq	ip, r4, ip, lsl sl
    25c4:	000c3100 	andeq	r3, ip, r0, lsl #2
    25c8:	000c2d00 	andeq	r2, ip, r0, lsl #26
    25cc:	04d61c00 	ldrbeq	r1, [r6], #3072	; 0xc00
    25d0:	0c7d0000 	ldcleq	0, cr0, [sp], #-0
    25d4:	0c770000 	ldcleq	0, cr0, [r7], #-0
    25d8:	e01c0000 	ands	r0, ip, r0
    25dc:	d3000004 	movwle	r0, #4
    25e0:	cb00000c 	blgt	2618 <__code_start__-0x59e8>
    25e4:	1d00000c 	stcne	0, cr0, [r0, #-48]	; 0xffffffd0
    25e8:	000088b4 			; <UNDEFINED> instruction: 0x000088b4
    25ec:	0000065e 	andeq	r0, r0, lr, asr r6
    25f0:	000005ae 	andeq	r0, r0, lr, lsr #11
    25f4:	02500112 	subseq	r0, r0, #-2147483644	; 0x80000004
    25f8:	16000076 			; <UNDEFINED> instruction: 0x16000076
    25fc:	000088d0 	ldrdeq	r8, [r0], -r0
    2600:	0000066a 	andeq	r0, r0, sl, ror #12
    2604:	25500112 	ldrbcs	r0, [r0, #-274]	; 0xfffffeee
    2608:	f75001f3 			; <UNDEFINED> instruction: 0xf75001f3
    260c:	f425f72c 	vld1.8	{d15}, [r5 :128], ip
    2610:	cccd0825 	stclgt	8, cr0, [sp], {37}	; 0x25
    2614:	0000cccc 	andeq	ip, r0, ip, asr #25
    2618:	081e0000 	ldmdaeq	lr, {}	; <UNPREDICTABLE>
    261c:	2525f720 	strcs	pc, [r5, #-1824]!	; 0xfffff8e0
    2620:	00f72cf7 	ldrshteq	r2, [r7], #199	; 0xc7
    2624:	80232533 	eorhi	r2, r3, r3, lsr r5
    2628:	3240a080 	subcc	sl, r0, #128, 0	; 0x80
    262c:	00000024 	andeq	r0, r0, r4, lsr #32
    2630:	038d2300 	orreq	r2, sp, #0, 6
    2634:	892c0000 	stmdbhi	ip!, {}	; <UNPREDICTABLE>
    2638:	00180000 	andseq	r0, r8, r0
    263c:	9c010000 	stcls	0, cr0, [r1], {-0}
    2640:	00000621 	andeq	r0, r0, r1, lsr #12
    2644:	00039a15 	andeq	r9, r3, r5, lsl sl
    2648:	000d2900 	andeq	r2, sp, r0, lsl #18
    264c:	000d2300 	andeq	r2, sp, r0, lsl #6
    2650:	89401600 	stmdbhi	r0, {r9, sl, ip}^
    2654:	066a0000 	strbteq	r0, [sl], -r0
    2658:	01120000 	tsteq	r2, r0
    265c:	1c0c0550 	cfstr32ne	mvfx0, [ip], {80}	; 0x50
    2660:	12202000 	eorne	r2, r0, #0, 0
    2664:	31055101 	tstcc	r5, r1, lsl #2
    2668:	245001f3 	ldrbcs	r0, [r0], #-499	; 0xfffffe0d
    266c:	73230000 			; <UNDEFINED> instruction: 0x73230000
    2670:	44000003 	strmi	r0, [r0], #-3
    2674:	18000089 	stmdane	r0, {r0, r3, r7}
    2678:	01000000 	mrseq	r0, (UNDEF: 0)
    267c:	00065e9c 	muleq	r6, ip, lr
    2680:	03801500 	orreq	r1, r0, #0, 10
    2684:	0d5b0000 	ldcleq	0, cr0, [fp, #-0]
    2688:	0d550000 	ldcleq	0, cr0, [r5, #-0]
    268c:	58160000 	ldmdapl	r6, {}	; <UNPREDICTABLE>
    2690:	6a000089 	bvs	28bc <__code_start__-0x5744>
    2694:	12000006 	andne	r0, r0, #6, 0
    2698:	0c055001 	stceq	0, cr5, [r5], {1}
    269c:	20200028 	eorcs	r0, r0, r8, lsr #32
    26a0:	05510112 	ldrbeq	r0, [r1, #-274]	; 0xfffffeee
    26a4:	5001f331 	andpl	pc, r1, r1, lsr r3	; <UNPREDICTABLE>
    26a8:	24000024 	strcs	r0, [r0], #-36	; 0xffffffdc
    26ac:	00000587 	andeq	r0, r0, r7, lsl #11
    26b0:	00000587 	andeq	r0, r0, r7, lsl #11
    26b4:	240ac702 	strcs	ip, [sl], #-1794	; 0xfffff8fe
    26b8:	00000577 	andeq	r0, r0, r7, ror r5
    26bc:	00000577 	andeq	r0, r0, r7, ror r5
    26c0:	0006b202 	andeq	fp, r6, r2, lsl #4
    26c4:	0000019d 	muleq	r0, sp, r1
    26c8:	08870004 	stmeq	r7, {r2}
    26cc:	01040000 	mrseq	r0, (UNDEF: 4)
    26d0:	000005d7 	ldrdeq	r0, [r0], -r7
    26d4:	0007070c 	andeq	r0, r7, ip, lsl #14
    26d8:	0006b100 	andeq	fp, r6, r0, lsl #2
    26dc:	008a0c00 	addeq	r0, sl, r0, lsl #24
    26e0:	00005800 	andeq	r5, r0, r0, lsl #16
    26e4:	000c5b00 	andeq	r5, ip, r0, lsl #22
    26e8:	06f30200 	ldrbteq	r0, [r3], r0, lsl #4
    26ec:	28020000 	stmdacs	r2, {}	; <UNPREDICTABLE>
    26f0:	0000311b 	andeq	r3, r0, fp, lsl r1
    26f4:	07170300 	ldreq	r0, [r7, -r0, lsl #6]
    26f8:	04040000 	streq	r0, [r4], #-0
    26fc:	00004800 	andeq	r4, r0, r0, lsl #16
    2700:	07020400 	streq	r0, [r2, -r0, lsl #8]
    2704:	00480000 	subeq	r0, r8, r0
    2708:	00000000 	andeq	r0, r0, r0
    270c:	19020405 	stmdbne	r2, {r0, r2, sl}
    2710:	02000007 	andeq	r0, r0, #7, 0
    2714:	00251863 	eoreq	r1, r5, r3, ror #16
    2718:	04060000 	streq	r0, [r6], #-0
    271c:	746e6905 	strbtvc	r6, [lr], #-2309	; 0xfffff6fb
    2720:	07040700 	streq	r0, [r4, -r0, lsl #14]
    2724:	0000007d 	andeq	r0, r0, sp, ror r0
    2728:	24060107 	strcs	r0, [r6], #-263	; 0xfffffef9
    272c:	07000000 	streq	r0, [r0, -r0]
    2730:	00a40502 	adceq	r0, r4, r2, lsl #10
    2734:	04070000 	streq	r0, [r7], #-0
    2738:	00008f05 	andeq	r8, r0, r5, lsl #30
    273c:	05080700 	streq	r0, [r8, #-1792]	; 0xfffff900
    2740:	0000008a 	andeq	r0, r0, sl, lsl #1
    2744:	22080107 	andcs	r0, r8, #-1073741823	; 0xc0000001
    2748:	07000000 	streq	r0, [r0, -r0]
    274c:	00390702 	eorseq	r0, r9, r2, lsl #14
    2750:	04070000 	streq	r0, [r7], #-0
    2754:	00007807 	andeq	r7, r0, r7, lsl #16
    2758:	07080700 	streq	r0, [r8, -r0, lsl #14]
    275c:	00000073 	andeq	r0, r0, r3, ror r0
    2760:	00005608 	andeq	r5, r0, r8, lsl #12
    2764:	0000ab00 	andeq	sl, r0, r0, lsl #22
    2768:	00560900 	subseq	r0, r6, r0, lsl #18
    276c:	0a000000 	beq	2774 <__code_start__-0x588c>
    2770:	00000098 	muleq	r0, r8, r0
    2774:	b70e1c03 	strlt	r1, [lr, -r3, lsl #24]
    2778:	0b000000 	bleq	2780 <__code_start__-0x5880>
    277c:	00009c04 	andeq	r9, r0, r4, lsl #24
    2780:	00560800 	subseq	r0, r6, r0, lsl #16
    2784:	00cc0000 	sbceq	r0, ip, r0
    2788:	cc090000 	stcgt	0, cr0, [r9], {-0}
    278c:	00000000 	andeq	r0, r0, r0
    2790:	00d9040b 	sbcseq	r0, r9, fp, lsl #8
    2794:	01070000 	mrseq	r0, (UNDEF: 7)
    2798:	00002b08 	andeq	r2, r0, r8, lsl #22
    279c:	00d20c00 	sbcseq	r0, r2, r0, lsl #24
    27a0:	630a0000 	movwvs	r0, #40960	; 0xa000
    27a4:	03000007 	movweq	r0, #7
    27a8:	00ea0e21 	rsceq	r0, sl, r1, lsr #28
    27ac:	040b0000 	streq	r0, [fp], #-0
    27b0:	000000bd 	strheq	r0, [r0], -sp
    27b4:	0006ec0d 	andeq	lr, r6, sp, lsl #24
    27b8:	05060100 	streq	r0, [r6, #-256]	; 0xffffff00
    27bc:	00000056 	andeq	r0, r0, r6, asr r0
    27c0:	00008a0c 	andeq	r8, r0, ip, lsl #20
    27c4:	00000058 	andeq	r0, r0, r8, asr r0
    27c8:	01839c01 	orreq	r9, r3, r1, lsl #24
    27cc:	660e0000 	strvs	r0, [lr], -r0
    27d0:	0100746d 	tsteq	r0, sp, ror #8
    27d4:	00cc1806 	sbceq	r1, ip, r6, lsl #16
    27d8:	91020000 	mrsls	r0, (UNDEF: 2)
    27dc:	62100f70 	andsvs	r0, r0, #112, 30	; 0x1c0
    27e0:	01006675 	tsteq	r0, r5, ror r6
    27e4:	01831108 	orreq	r1, r3, r8, lsl #2
    27e8:	03050000 	movweq	r0, #20480	; 0x5000
    27ec:	00009e54 	andeq	r9, r0, r4, asr lr
    27f0:	0006e411 	andeq	lr, r6, r1, lsl r4
    27f4:	0d090100 	stfeqs	f0, [r9, #-0]
    27f8:	0000004a 	andeq	r0, r0, sl, asr #32
    27fc:	125c9102 	subsne	r9, ip, #-2147483648	; 0x80000000
    2800:	01007a73 	tsteq	r0, r3, ror sl
    2804:	00560d0c 	subseq	r0, r6, ip, lsl #26
    2808:	0d8d0000 	stceq	0, cr0, [sp]
    280c:	0d870000 	stceq	0, cr0, [r7]
    2810:	34130000 	ldrcc	r0, [r3], #-0
    2814:	9400008a 	strls	r0, [r0], #-138	; 0xffffff76
    2818:	76000001 	strvc	r0, [r0], -r1
    281c:	14000001 	strne	r0, [r0], #-1
    2820:	75025001 	strvc	r5, [r2, #-1]
    2824:	51011400 	tstpl	r1, r0, lsl #8
    2828:	04000a03 	streq	r0, [r0], #-2563	; 0xfffff5fd
    282c:	03520114 	cmpeq	r2, #5
    2830:	14064891 	strne	r4, [r6], #-2193	; 0xfffff76f
    2834:	91025301 	tstls	r2, r1, lsl #6
    2838:	4815004c 	ldmdami	r5, {r2, r3, r6}
    283c:	1400008a 	strne	r0, [r0], #-138	; 0xffffff76
    2840:	75025001 	strvc	r5, [r2, #-1]
    2844:	16000000 	strne	r0, [r0], -r0
    2848:	000000d2 	ldrdeq	r0, [r0], -r2
    284c:	00000194 	muleq	r0, r4, r1
    2850:	00005d17 	andeq	r5, r0, r7, lsl sp
    2854:	0003ff00 	andeq	pc, r3, r0, lsl #30
    2858:	0006e918 	andeq	lr, r6, r8, lsl r9
    285c:	0006e900 	andeq	lr, r6, r0, lsl #18
    2860:	05020500 	streq	r0, [r2, #-1280]	; 0xfffffb00
    2864:	00014900 	andeq	r4, r1, r0, lsl #18
    2868:	c9000400 	stmdbgt	r0, {sl}
    286c:	04000009 	streq	r0, [r0], #-9
    2870:	0005d701 	andeq	sp, r5, r1, lsl #14
    2874:	073f0c00 	ldreq	r0, [pc, -r0, lsl #24]!
    2878:	06b10000 	ldrteq	r0, [r1], r0
    287c:	8a640000 	bhi	1902884 <__bss_end__+0x18f862c>
    2880:	003c0000 	eorseq	r0, ip, r0
    2884:	0d7f0000 	ldcleq	0, cr0, [pc, #-0]	; 288c <__code_start__-0x5774>
    2888:	04020000 	streq	r0, [r2], #-0
    288c:	746e6905 	strbtvc	r6, [lr], #-2309	; 0xfffff6fb
    2890:	07040300 	streq	r0, [r4, -r0, lsl #6]
    2894:	0000007d 	andeq	r0, r0, sp, ror r0
    2898:	24060103 	strcs	r0, [r6], #-259	; 0xfffffefd
    289c:	03000000 	movweq	r0, #0
    28a0:	00a40502 	adceq	r0, r4, r2, lsl #10
    28a4:	04030000 	streq	r0, [r3], #-0
    28a8:	00008f05 	andeq	r8, r0, r5, lsl #30
    28ac:	05080300 	streq	r0, [r8, #-768]	; 0xfffffd00
    28b0:	0000008a 	andeq	r0, r0, sl, lsl #1
    28b4:	22080103 	andcs	r0, r8, #-1073741824	; 0xc0000000
    28b8:	03000000 	movweq	r0, #0
    28bc:	00390702 	eorseq	r0, r9, r2, lsl #14
    28c0:	04030000 	streq	r0, [r3], #-0
    28c4:	00007807 	andeq	r7, r0, r7, lsl #16
    28c8:	07080300 	streq	r0, [r8, -r0, lsl #6]
    28cc:	00000073 	andeq	r0, r0, r3, ror r0
    28d0:	00002504 	andeq	r2, r0, r4, lsl #10
    28d4:	00007a00 	andeq	r7, r0, r0, lsl #20
    28d8:	00250500 	eoreq	r0, r5, r0, lsl #10
    28dc:	06000000 	streq	r0, [r0], -r0
    28e0:	00000098 	muleq	r0, r8, r0
    28e4:	860e1c02 	strhi	r1, [lr], -r2, lsl #24
    28e8:	07000000 	streq	r0, [r0, -r0]
    28ec:	00006b04 	andeq	r6, r0, r4, lsl #22
    28f0:	00250400 	eoreq	r0, r5, r0, lsl #8
    28f4:	009b0000 	addseq	r0, fp, r0
    28f8:	9b050000 	blls	142900 <__bss_end__+0x1386a8>
    28fc:	00000000 	andeq	r0, r0, r0
    2900:	00a80407 	adceq	r0, r8, r7, lsl #8
    2904:	01030000 	mrseq	r0, (UNDEF: 3)
    2908:	00002b08 	andeq	r2, r0, r8, lsl #22
    290c:	00a10800 	adceq	r0, r1, r0, lsl #16
    2910:	63060000 	movwvs	r0, #24576	; 0x6000
    2914:	02000007 	andeq	r0, r0, #7, 0
    2918:	00b90e21 	adcseq	r0, r9, r1, lsr #28
    291c:	04070000 	streq	r0, [r7], #-0
    2920:	0000008c 	andeq	r0, r0, ip, lsl #1
    2924:	00007a09 	andeq	r7, r0, r9, lsl #20
    2928:	07060100 	streq	r0, [r6, -r0, lsl #2]
    292c:	9e480305 	cdpls	3, 4, cr0, cr8, cr5, {0}
    2930:	320a0000 	andcc	r0, sl, #0, 0
    2934:	01000007 	tsteq	r0, r7
    2938:	8a90060b 	bhi	fe40416c <__bss_end__+0xfe3f9f14>
    293c:	00100000 	andseq	r0, r0, r0
    2940:	9c010000 	stcls	0, cr0, [r1], {-0}
    2944:	000000f1 	strdeq	r0, [r0], -r1
    2948:	0070660b 	rsbseq	r6, r0, fp, lsl #12
    294c:	86190b01 	ldrhi	r0, [r9], -r1, lsl #22
    2950:	01000000 	mrseq	r0, (UNDEF: 0)
    2954:	6f0c0050 	svcvs	0x000c0050
    2958:	01000002 	tsteq	r0, r2
    295c:	8a780608 	bhi	1e04184 <__bss_end__+0x1df9f2c>
    2960:	00180000 	andseq	r0, r8, r0
    2964:	9c010000 	stcls	0, cr0, [r1], {-0}
    2968:	0007210d 	andeq	r2, r7, sp, lsl #2
    296c:	0c030100 	stfeqs	f0, [r3], {-0}
    2970:	00000025 	andeq	r0, r0, r5, lsr #32
    2974:	00008a64 	andeq	r8, r0, r4, ror #20
    2978:	00000014 	andeq	r0, r0, r4, lsl r0
    297c:	01409c01 	cmpeq	r0, r1, lsl #24
    2980:	630e0000 	movwvs	r0, #57344	; 0xe000
    2984:	21030100 	mrscs	r0, (UNDEF: 19)
    2988:	00000025 	andeq	r0, r0, r5, lsr #32
    298c:	00000dba 			; <UNDEFINED> instruction: 0x00000dba
    2990:	00000db6 			; <UNDEFINED> instruction: 0x00000db6
    2994:	008a700f 	addeq	r7, sl, pc
    2998:	00014000 	andeq	r4, r1, r0
    299c:	50011000 	andpl	r1, r1, r0
    29a0:	00007402 	andeq	r7, r0, r2, lsl #8
    29a4:	07501100 	ldrbeq	r1, [r0, -r0, lsl #2]
    29a8:	07500000 	ldrbeq	r0, [r0, -r0]
    29ac:	42020000 	andmi	r0, r2, #0, 0
    29b0:	00f30006 	rscseq	r0, r3, r6
    29b4:	00040000 	andeq	r0, r4, r0
    29b8:	00000ad8 	ldrdeq	r0, [r0], -r8
    29bc:	05d70104 	ldrbeq	r0, [r7, #260]	; 0x104
    29c0:	680c0000 	stmdavs	ip, {}	; <UNPREDICTABLE>
    29c4:	b1000007 	tstlt	r0, r7
    29c8:	a0000006 	andge	r0, r0, r6
    29cc:	3800008a 	stmdacc	r0, {r1, r3, r7}
    29d0:	21000000 	mrscs	r0, (UNDEF: 0)
    29d4:	0200000e 	andeq	r0, r0, #14, 0
    29d8:	6e690504 	cdpvs	5, 6, cr0, cr9, cr4, {0}
    29dc:	04030074 	streq	r0, [r3], #-116	; 0xffffff8c
    29e0:	00007d07 	andeq	r7, r0, r7, lsl #26
    29e4:	06010300 	streq	r0, [r1], -r0, lsl #6
    29e8:	00000024 	andeq	r0, r0, r4, lsr #32
    29ec:	a4050203 	strge	r0, [r5], #-515	; 0xfffffdfd
    29f0:	03000000 	movweq	r0, #0
    29f4:	008f0504 	addeq	r0, pc, r4, lsl #10
    29f8:	08030000 	stmdaeq	r3, {}	; <UNPREDICTABLE>
    29fc:	00008a05 	andeq	r8, r0, r5, lsl #20
    2a00:	08010300 	stmdaeq	r1, {r8, r9}
    2a04:	00000022 	andeq	r0, r0, r2, lsr #32
    2a08:	39070203 	stmdbcc	r7, {r0, r1, r9}
    2a0c:	03000000 	movweq	r0, #0
    2a10:	00780704 	rsbseq	r0, r8, r4, lsl #14
    2a14:	08030000 	stmdaeq	r3, {}	; <UNPREDICTABLE>
    2a18:	00007307 	andeq	r7, r0, r7, lsl #6
    2a1c:	00250400 	eoreq	r0, r5, r0, lsl #8
    2a20:	007a0000 	rsbseq	r0, sl, r0
    2a24:	25050000 	strcs	r0, [r5, #-0]
    2a28:	00000000 	andeq	r0, r0, r0
    2a2c:	00009806 	andeq	r9, r0, r6, lsl #16
    2a30:	0e1c0200 	cdpeq	2, 1, cr0, cr12, cr0, {0}
    2a34:	00000086 	andeq	r0, r0, r6, lsl #1
    2a38:	006b0407 	rsbeq	r0, fp, r7, lsl #8
    2a3c:	25040000 	strcs	r0, [r4, #-0]
    2a40:	9b000000 	blls	2a48 <__code_start__-0x55b8>
    2a44:	05000000 	streq	r0, [r0, #-0]
    2a48:	0000009b 	muleq	r0, fp, r0
    2a4c:	a8040700 	stmdage	r4, {r8, r9, sl}
    2a50:	03000000 	movweq	r0, #0
    2a54:	002b0801 	eoreq	r0, fp, r1, lsl #16
    2a58:	a1080000 	mrsge	r0, (UNDEF: 8)
    2a5c:	06000000 	streq	r0, [r0], -r0
    2a60:	00000763 	andeq	r0, r0, r3, ror #14
    2a64:	b90e2102 	stmdblt	lr, {r1, r8, sp}
    2a68:	07000000 	streq	r0, [r0, -r0]
    2a6c:	00008c04 	andeq	r8, r0, r4, lsl #24
    2a70:	00ad0900 	adceq	r0, sp, r0, lsl #18
    2a74:	0c010000 	stceq	0, cr0, [r1], {-0}
    2a78:	4c030507 	cfstr32mi	mvfx0, [r3], {7}
    2a7c:	0a00009e 	beq	2cfc <__code_start__-0x5304>
    2a80:	0000075a 	andeq	r0, r0, sl, asr r7
    2a84:	25050401 	strcs	r0, [r5, #-1025]	; 0xfffffbff
    2a88:	a0000000 	andge	r0, r0, r0
    2a8c:	3800008a 	stmdacc	r0, {r1, r3, r7}
    2a90:	01000000 	mrseq	r0, (UNDEF: 0)
    2a94:	00700b9c 			; <UNDEFINED> instruction: 0x00700b9c
    2a98:	9b1f0401 	blls	7c3aa4 <__bss_end__+0x7b984c>
    2a9c:	e0000000 	and	r0, r0, r0
    2aa0:	d800000d 	stmdale	r0, {r0, r2, r3}
    2aa4:	0000000d 	andeq	r0, r0, sp
    2aa8:	000c7f00 	andeq	r7, ip, r0, lsl #30
    2aac:	76000400 	strvc	r0, [r0], -r0, lsl #8
    2ab0:	0400000b 	streq	r0, [r0], #-11
    2ab4:	0005d701 	andeq	sp, r5, r1, lsl #14
    2ab8:	07870c00 	streq	r0, [r7, r0, lsl #24]
    2abc:	06b10000 	ldrteq	r0, [r1], r0
    2ac0:	8ad80000 	bhi	ff602ac8 <__bss_end__+0xff5f8870>
    2ac4:	09b40000 	ldmibeq	r4!, {}	; <UNPREDICTABLE>
    2ac8:	0ec50000 	cdpeq	0, 12, cr0, cr5, cr0, {0}
    2acc:	08020000 	stmdaeq	r2, {}	; <UNPREDICTABLE>
    2ad0:	00007307 	andeq	r7, r0, r7, lsl #6
    2ad4:	07040200 	streq	r0, [r4, -r0, lsl #4]
    2ad8:	0000007d 	andeq	r0, r0, sp, ror r0
    2adc:	69050403 	stmdbvs	r5, {r0, r1, sl}
    2ae0:	0200746e 	andeq	r7, r0, #1845493760	; 0x6e000000
    2ae4:	00240601 	eoreq	r0, r4, r1, lsl #12
    2ae8:	02020000 	andeq	r0, r2, #0, 0
    2aec:	0000a405 	andeq	sl, r0, r5, lsl #8
    2af0:	05040200 	streq	r0, [r4, #-512]	; 0xfffffe00
    2af4:	0000008f 	andeq	r0, r0, pc, lsl #1
    2af8:	8a050802 	bhi	144b08 <__bss_end__+0x13a8b0>
    2afc:	02000000 	andeq	r0, r0, #0, 0
    2b00:	00220801 	eoreq	r0, r2, r1, lsl #16
    2b04:	02020000 	andeq	r0, r2, #0, 0
    2b08:	00003907 	andeq	r3, r0, r7, lsl #18
    2b0c:	025c0400 	subseq	r0, ip, #0, 8
    2b10:	34020000 	strcc	r0, [r2], #-0
    2b14:	00007019 	andeq	r7, r0, r9, lsl r0
    2b18:	07040200 	streq	r0, [r4, -r0, lsl #4]
    2b1c:	00000078 	andeq	r0, r0, r8, ror r0
    2b20:	00077e04 	andeq	r7, r7, r4, lsl #28
    2b24:	19370200 	ldmdbne	r7!, {r9}
    2b28:	00000025 	andeq	r0, r0, r5, lsr #32
    2b2c:	00003305 	andeq	r3, r0, r5, lsl #6
    2b30:	00009200 	andeq	r9, r0, r0, lsl #4
    2b34:	00330600 	eorseq	r0, r3, r0, lsl #12
    2b38:	07000000 	streq	r0, [r0, -r0]
    2b3c:	00000098 	muleq	r0, r8, r0
    2b40:	9e0e1c03 	cdpls	12, 0, cr1, cr14, cr3, {0}
    2b44:	08000000 	stmdaeq	r0, {}	; <UNPREDICTABLE>
    2b48:	00008304 	andeq	r8, r0, r4, lsl #6
    2b4c:	00330500 	eorseq	r0, r3, r0, lsl #10
    2b50:	00b30000 	adcseq	r0, r3, r0
    2b54:	b3060000 	movwlt	r0, #24576	; 0x6000
    2b58:	00000000 	andeq	r0, r0, r0
    2b5c:	00c00408 	sbceq	r0, r0, r8, lsl #8
    2b60:	01020000 	mrseq	r0, (UNDEF: 2)
    2b64:	00002b08 	andeq	r2, r0, r8, lsl #22
    2b68:	00b90900 	adcseq	r0, r9, r0, lsl #18
    2b6c:	63070000 	movwvs	r0, #28672	; 0x7000
    2b70:	03000007 	movweq	r0, #7
    2b74:	00d10e21 	sbcseq	r0, r1, r1, lsr #28
    2b78:	04080000 	streq	r0, [r8], #-0
    2b7c:	000000a4 	andeq	r0, r0, r4, lsr #1
    2b80:	00079a07 	andeq	r9, r7, r7, lsl #20
    2b84:	0d0b0400 	cfstrseq	mvf0, [fp, #-0]
    2b88:	000000b9 	strheq	r0, [r0], -r9
    2b8c:	00082307 	andeq	r2, r8, r7, lsl #6
    2b90:	0d0c0400 	cfstrseq	mvf0, [ip, #-0]
    2b94:	000000b9 	strheq	r0, [r0], -r9
    2b98:	0007a907 	andeq	sl, r7, r7, lsl #18
    2b9c:	0d0d0400 	cfstrseq	mvf0, [sp, #-0]
    2ba0:	000000b9 	strheq	r0, [r0], -r9
    2ba4:	0007db07 	andeq	sp, r7, r7, lsl #22
    2ba8:	0d0e0400 	cfstrseq	mvf0, [lr, #-0]
    2bac:	000000b9 	strheq	r0, [r0], -r9
    2bb0:	00084c07 	andeq	r4, r8, r7, lsl #24
    2bb4:	0d0f0400 	cfstrseq	mvf0, [pc, #-0]	; 2bbc <__code_start__-0x5444>
    2bb8:	000000b9 	strheq	r0, [r0], -r9
    2bbc:	0007bd07 	andeq	fp, r7, r7, lsl #26
    2bc0:	0d100400 	cfldrseq	mvf0, [r0, #-0]
    2bc4:	000000b9 	strheq	r0, [r0], -r9
    2bc8:	00085b07 	andeq	r5, r8, r7, lsl #22
    2bcc:	0d110400 	cfldrseq	mvf0, [r1, #-0]
    2bd0:	000000b9 	strheq	r0, [r0], -r9
    2bd4:	0007e707 	andeq	lr, r7, r7, lsl #14
    2bd8:	0d120400 	cfldrseq	mvf0, [r2, #-0]
    2bdc:	000000b9 	strheq	r0, [r0], -r9
    2be0:	0006f304 	andeq	pc, r6, r4, lsl #6
    2be4:	1b280500 	blne	a03fec <__bss_end__+0x9f9d94>
    2be8:	00000143 	andeq	r0, r0, r3, asr #2
    2bec:	0007170a 	andeq	r1, r7, sl, lsl #14
    2bf0:	00060400 	andeq	r0, r6, r0, lsl #8
    2bf4:	0000015a 	andeq	r0, r0, sl, asr r1
    2bf8:	0007020b 	andeq	r0, r7, fp, lsl #4
    2bfc:	00015a00 	andeq	r5, r1, r0, lsl #20
    2c00:	0c000000 	stceq	0, cr0, [r0], {-0}
    2c04:	07190404 	ldreq	r0, [r9, -r4, lsl #8]
    2c08:	63050000 	movwvs	r0, #20480	; 0x5000
    2c0c:	00013718 	andeq	r3, r1, r8, lsl r7
    2c10:	06e90d00 	strbteq	r0, [r9], r0, lsl #26
    2c14:	81010000 	mrshi	r0, (UNDEF: 1)
    2c18:	00003305 	andeq	r3, r0, r5, lsl #6
    2c1c:	008e6000 	addeq	r6, lr, r0
    2c20:	00062c00 	andeq	r2, r6, r0, lsl #24
    2c24:	6a9c0100 	bvs	fe70302c <__bss_end__+0xfe6f8dd4>
    2c28:	0e000008 	cdpeq	0, 0, cr0, cr0, cr8, {0}
    2c2c:	00667562 	rsbeq	r7, r6, r2, ror #10
    2c30:	6a158101 	bvs	56303c <__bss_end__+0x558de4>
    2c34:	20000008 	andcs	r0, r0, r8
    2c38:	1600000e 	strne	r0, [r0], -lr
    2c3c:	0e00000e 	cdpeq	0, 0, cr0, cr0, cr14, {0}
    2c40:	8101006e 	tsthi	r1, lr, rrx
    2c44:	0000331e 	andeq	r3, r0, lr, lsl r3
    2c48:	000e6d00 	andeq	r6, lr, r0, lsl #26
    2c4c:	000e6500 	andeq	r6, lr, r0, lsl #10
    2c50:	6d660e00 	stclvs	14, cr0, [r6, #-0]
    2c54:	81010074 	tsthi	r1, r4, ror r0
    2c58:	0000b32d 	andeq	fp, r0, sp, lsr #6
    2c5c:	000ebf00 	andeq	fp, lr, r0, lsl #30
    2c60:	000ea700 	andeq	sl, lr, r0, lsl #14
    2c64:	06e40f00 	strbteq	r0, [r4], r0, lsl #30
    2c68:	81010000 	mrshi	r0, (UNDEF: 1)
    2c6c:	00015c3a 	andeq	r5, r1, sl, lsr ip
    2c70:	000f8300 	andeq	r8, pc, r0, lsl #6
    2c74:	000f5300 	andeq	r5, pc, r0, lsl #6
    2c78:	00701000 	rsbseq	r1, r0, r0
    2c7c:	6a088201 	bvs	223488 <__bss_end__+0x219230>
    2c80:	e3000008 	movw	r0, #8
    2c84:	cd000010 	stcgt	0, cr0, [r0, #-64]	; 0xffffffc0
    2c88:	10000010 	andne	r0, r0, r0, lsl r0
    2c8c:	82010065 	andhi	r0, r1, #101, 0	; 0x65
    2c90:	00086a12 	andeq	r6, r8, r2, lsl sl
    2c94:	00116c00 	andseq	r6, r1, r0, lsl #24
    2c98:	00116a00 	andseq	r6, r1, r0, lsl #20
    2c9c:	30781000 	rsbscc	r1, r8, r0
    2ca0:	0e830100 	rmfeqs	f0, f3, f0
    2ca4:	00000064 	andeq	r0, r0, r4, rrx
    2ca8:	00001185 	andeq	r1, r0, r5, lsl #3
    2cac:	0000117f 	andeq	r1, r0, pc, ror r1
    2cb0:	00317810 	eorseq	r7, r1, r0, lsl r8
    2cb4:	64118301 	ldrvs	r8, [r1], #-769	; 0xfffffcff
    2cb8:	b4000000 	strlt	r0, [r0], #-0
    2cbc:	ae000011 	mcrge	0, 0, r0, cr0, cr1, {0}
    2cc0:	11000011 	tstne	r0, r1, lsl r0
    2cc4:	00000805 	andeq	r0, r0, r5, lsl #16
    2cc8:	b3118601 	tstlt	r1, #1048576	; 0x100000
    2ccc:	e5000000 	str	r0, [r0, #-0]
    2cd0:	dd000011 	stcle	0, cr0, [r0, #-68]	; 0xffffffbc
    2cd4:	12000011 	andne	r0, r0, #17, 0
    2cd8:	00000208 	andeq	r0, r0, r8, lsl #4
    2cdc:	00000880 	andeq	r0, r0, r0, lsl #17
    2ce0:	9e140305 	cdpls	3, 1, cr0, cr4, cr5, {0}
    2ce4:	b0130000 	andslt	r0, r3, r0
    2ce8:	10000001 	andne	r0, r0, r1
    2cec:	91010073 	tstls	r1, r3, ror r0
    2cf0:	00086a0a 	andeq	r6, r8, sl, lsl #20
    2cf4:	00122b00 	andseq	r2, r2, r0, lsl #22
    2cf8:	00121f00 	andseq	r1, r2, r0, lsl #30
    2cfc:	756e1400 	strbvc	r1, [lr, #-1024]!	; 0xfffffc00
    2d00:	9101006d 	tstls	r1, sp, rrx
    2d04:	0008850d 	andeq	r8, r8, sp, lsl #10
    2d08:	d8910300 	ldmle	r1, {r8, r9}
    2d0c:	0868157d 	stmdaeq	r8!, {r0, r2, r3, r4, r5, r6, r8, sl, ip}^
    2d10:	91010000 	mrsls	r0, (UNDEF: 1)
    2d14:	00088517 	andeq	r8, r8, r7, lsl r5
    2d18:	d8910300 	ldmle	r1, {r8, r9}
    2d1c:	07b7117e 			; <UNDEFINED> instruction: 0x07b7117e
    2d20:	92010000 	andls	r0, r1, #0, 0
    2d24:	00002c0d 	andeq	r2, r0, sp, lsl #24
    2d28:	00127d00 	andseq	r7, r2, r0, lsl #26
    2d2c:	00127500 	andseq	r7, r2, r0, lsl #10
    2d30:	01d81600 	bicseq	r1, r8, r0, lsl #12
    2d34:	04f10000 	ldrbteq	r0, [r1], #0
    2d38:	74100000 	ldrvc	r0, [r0], #-0
    2d3c:	9e010079 	mcrls	0, 0, r0, cr1, cr9, {3}
    2d40:	0000b31d 	andeq	fp, r0, sp, lsl r3
    2d44:	0012be00 	andseq	fp, r2, r0, lsl #28
    2d48:	0012b200 	andseq	fp, r2, r0, lsl #4
    2d4c:	78781400 	ldmdavc	r8!, {sl, ip}^
    2d50:	1aa20100 	bne	fe883158 <__bss_end__+0xfe878f00>
    2d54:	00000077 	andeq	r0, r0, r7, ror r0
    2d58:	04935906 	ldreq	r5, [r3], #2310	; 0x906
    2d5c:	1704935b 	smlsdne	r4, fp, r3, r9
    2d60:	00008fec 	andeq	r8, r0, ip, ror #31
    2d64:	00000c3a 	andeq	r0, r0, sl, lsr ip
    2d68:	000002d8 	ldrdeq	r0, [r0], -r8
    2d6c:	02500118 	subseq	r0, r0, #6
    2d70:	01180076 	tsteq	r8, r6, ror r0
    2d74:	08030551 	stmdaeq	r3, {r0, r4, r6, r8, sl}
    2d78:	1800009d 	stmdane	r0, {r0, r2, r3, r4, r7}
    2d7c:	33015201 	movwcc	r5, #4609	; 0x1201
    2d80:	90041700 	andls	r1, r4, r0, lsl #14
    2d84:	0c3a0000 	ldceq	0, cr0, [sl], #-0
    2d88:	02fa0000 	rscseq	r0, sl, #0, 0
    2d8c:	01180000 	tsteq	r8, r0
    2d90:	00760250 	rsbseq	r0, r6, r0, asr r2
    2d94:	05510118 	ldrbeq	r0, [r1, #-280]	; 0xfffffee8
    2d98:	009d1c03 	addseq	r1, sp, r3, lsl #24
    2d9c:	52011800 	andpl	r1, r1, #0, 16
    2da0:	17003301 	strne	r3, [r0, -r1, lsl #6]
    2da4:	00009028 	andeq	r9, r0, r8, lsr #32
    2da8:	00000c46 	andeq	r0, r0, r6, asr #24
    2dac:	00000317 	andeq	r0, r0, r7, lsl r3
    2db0:	05500118 	ldrbeq	r0, [r0, #-280]	; 0xfffffee8
    2db4:	009d0c03 	addseq	r0, sp, r3, lsl #24
    2db8:	51011800 	tstpl	r1, r0, lsl #16
    2dbc:	00007b02 	andeq	r7, r0, r2, lsl #22
    2dc0:	00903417 	addseq	r3, r0, r7, lsl r4
    2dc4:	000c4600 	andeq	r4, ip, r0, lsl #12
    2dc8:	00033400 	andeq	r3, r3, r0, lsl #8
    2dcc:	50011800 	andpl	r1, r1, r0, lsl #16
    2dd0:	9d140305 	ldcls	3, cr0, [r4, #-20]	; 0xffffffec
    2dd4:	01180000 	tsteq	r8, r0
    2dd8:	00790251 	rsbseq	r0, r9, r1, asr r2
    2ddc:	90441700 	subls	r1, r4, r0, lsl #14
    2de0:	0c3a0000 	ldceq	0, cr0, [sl], #-0
    2de4:	03560000 	cmpeq	r6, #0, 0
    2de8:	01180000 	tsteq	r8, r0
    2dec:	00760250 	rsbseq	r0, r6, r0, asr r2
    2df0:	05510118 	ldrbeq	r0, [r1, #-280]	; 0xfffffee8
    2df4:	009d0803 	addseq	r0, sp, r3, lsl #16
    2df8:	52011800 	andpl	r1, r1, #0, 16
    2dfc:	17003301 	strne	r3, [r0, -r1, lsl #6]
    2e00:	00009074 	andeq	r9, r0, r4, ror r0
    2e04:	00000aa4 	andeq	r0, r0, r4, lsr #21
    2e08:	00000383 	andeq	r0, r0, r3, lsl #7
    2e0c:	01500118 	cmpeq	r0, r8, lsl r1
    2e10:	51011840 	tstpl	r1, r0, asr #16
    2e14:	7dd09103 	ldfvcp	f1, [r0, #12]
    2e18:	02520118 	subseq	r0, r2, #6
    2e1c:	0118007b 	tsteq	r8, fp, ror r0
    2e20:	00750253 	rsbseq	r0, r5, r3, asr r2
    2e24:	007d0218 	rsbseq	r0, sp, r8, lsl r2
    2e28:	00007602 	andeq	r7, r0, r2, lsl #12
    2e2c:	00909417 	addseq	r9, r0, r7, lsl r4
    2e30:	000aa400 	andeq	sl, sl, r0, lsl #8
    2e34:	0003aa00 	andeq	sl, r3, r0, lsl #20
    2e38:	50011800 	andpl	r1, r1, r0, lsl #16
    2e3c:	01184001 	tsteq	r8, r1
    2e40:	d0910351 	addsle	r0, r1, r1, asr r3
    2e44:	5201187e 	andpl	r1, r1, #8257536	; 0x7e0000
    2e48:	18007902 	stmdane	r0, {r1, r8, fp, ip, sp, lr}
    2e4c:	02007d02 	andeq	r7, r0, #128	; 0x80
    2e50:	17000076 	smlsdxne	r0, r6, r0, r0
    2e54:	000090a4 	andeq	r9, r0, r4, lsr #1
    2e58:	00000c52 	andeq	r0, r0, r2, asr ip
    2e5c:	000003c6 	andeq	r0, r0, r6, asr #7
    2e60:	03500118 	cmpeq	r0, #6
    2e64:	187dd091 	ldmdane	sp!, {r0, r4, r7, ip, lr, pc}^
    2e68:	91035101 	tstls	r3, r1, lsl #2
    2e6c:	17007ed2 			; <UNDEFINED> instruction: 0x17007ed2
    2e70:	000092e8 	andeq	r9, r0, r8, ror #5
    2e74:	00000c3a 	andeq	r0, r0, sl, lsr ip
    2e78:	000003e8 	andeq	r0, r0, r8, ror #7
    2e7c:	02500118 	subseq	r0, r0, #6
    2e80:	01180076 	tsteq	r8, r6, ror r0
    2e84:	1c030551 	cfstr32ne	mvfx0, [r3], {81}	; 0x51
    2e88:	1800009d 	stmdane	r0, {r0, r2, r3, r4, r7}
    2e8c:	33015201 	movwcc	r5, #4609	; 0x1201
    2e90:	930c1700 	movwls	r1, #50944	; 0xc700
    2e94:	0aa40000 	beq	fe902e9c <__bss_end__+0xfe8f8c44>
    2e98:	04150000 	ldreq	r0, [r5], #-0
    2e9c:	01180000 	tsteq	r8, r0
    2ea0:	183a0150 	ldmdane	sl!, {r4, r6, r8}
    2ea4:	91035101 	tstls	r3, r1, lsl #2
    2ea8:	01187dd0 			; <UNDEFINED> instruction: 0x01187dd0
    2eac:	007b0252 	rsbseq	r0, fp, r2, asr r2
    2eb0:	02530118 	subseq	r0, r3, #6
    2eb4:	02180075 	andseq	r0, r8, #117, 0	; 0x75
    2eb8:	7602007d 			; <UNDEFINED> instruction: 0x7602007d
    2ebc:	2c170000 	ldccs	0, cr0, [r7], {-0}
    2ec0:	a4000093 	strge	r0, [r0], #-147	; 0xffffff6d
    2ec4:	3c00000a 	stccc	0, cr0, [r0], {10}
    2ec8:	18000004 	stmdane	r0, {r2}
    2ecc:	3a015001 	bcc	56ed8 <__bss_end__+0x4cc80>
    2ed0:	03510118 	cmpeq	r1, #6
    2ed4:	187ed091 	ldmdane	lr!, {r0, r4, r7, ip, lr, pc}^
    2ed8:	79025201 	stmdbvc	r2, {r0, r9, ip, lr}
    2edc:	7d021800 	stcvc	8, cr1, [r2, #-0]
    2ee0:	00760200 	rsbseq	r0, r6, r0, lsl #4
    2ee4:	93381700 	teqls	r8, #0, 14
    2ee8:	0c5e0000 	mraeq	r0, lr, acc0
    2eec:	045a0000 	ldrbeq	r0, [sl], #-0
    2ef0:	01180000 	tsteq	r8, r0
    2ef4:	d0910350 	addsle	r0, r1, r0, asr r3
    2ef8:	5101187d 	tstpl	r1, sp, ror r8
    2efc:	9c7c0305 	ldclls	3, cr0, [ip], #-20	; 0xffffffec
    2f00:	17000000 	strne	r0, [r0, -r0]
    2f04:	0000934c 	andeq	r9, r0, ip, asr #6
    2f08:	00000c6a 	andeq	r0, r0, sl, ror #24
    2f0c:	00000476 	andeq	r0, r0, r6, ror r4
    2f10:	03500118 	cmpeq	r0, #6
    2f14:	187dd091 	ldmdane	sp!, {r0, r4, r7, ip, lr, pc}^
    2f18:	91035101 	tstls	r3, r1, lsl #2
    2f1c:	19007ed0 	stmdbne	r0, {r4, r6, r7, r9, sl, fp, ip, sp, lr}
    2f20:	00009358 	andeq	r9, r0, r8, asr r3
    2f24:	00000c52 	andeq	r0, r0, r2, asr ip
    2f28:	00941c17 	addseq	r1, r4, r7, lsl ip
    2f2c:	000c4600 	andeq	r4, ip, r0, lsl #12
    2f30:	0004a800 	andeq	sl, r4, r0, lsl #16
    2f34:	50011800 	andpl	r1, r1, r0, lsl #16
    2f38:	9c000305 	stcls	3, cr0, [r0], {5}
    2f3c:	01180000 	tsteq	r8, r0
    2f40:	bc030551 	cfstr32lt	mvfx0, [r3], {81}	; 0x51
    2f44:	1800009c 	stmdane	r0, {r2, r3, r4, r7}
    2f48:	03055201 	movweq	r5, #20993	; 0x5201
    2f4c:	00009e14 	andeq	r9, r0, r4, lsl lr
    2f50:	94201900 	strtls	r1, [r0], #-2304	; 0xfffff700
    2f54:	0c760000 	ldcleq	0, cr0, [r6], #-0
    2f58:	38170000 	ldmdacc	r7, {}	; <UNPREDICTABLE>
    2f5c:	46000094 			; <UNDEFINED> instruction: 0x46000094
    2f60:	e700000c 	str	r0, [r0, -ip]
    2f64:	18000004 	stmdane	r0, {r2}
    2f68:	03055001 	movweq	r5, #20481	; 0x5001
    2f6c:	00009d5c 	andeq	r9, r0, ip, asr sp
    2f70:	05510118 	ldrbeq	r0, [r1, #-280]	; 0xfffffee8
    2f74:	009cbc03 	addseq	fp, ip, r3, lsl #24
    2f78:	52011800 	andpl	r1, r1, #0, 16
    2f7c:	9e140305 	cdpls	3, 1, cr0, cr4, cr5, {0}
    2f80:	01180000 	tsteq	r8, r0
    2f84:	b6080253 			; <UNDEFINED> instruction: 0xb6080253
    2f88:	007d0218 	rsbseq	r0, sp, r8, lsl r2
    2f8c:	00007602 	andeq	r7, r0, r2, lsl #12
    2f90:	00943c19 	addseq	r3, r4, r9, lsl ip
    2f94:	000c7600 	andeq	r7, ip, r0, lsl #12
    2f98:	e31a0000 	tst	sl, #0, 0
    2f9c:	ec000009 	stc	0, cr0, [r0], {9}
    2fa0:	0400008e 	streq	r0, [r0], #-142	; 0xffffff72
    2fa4:	00020000 	andeq	r0, r2, r0
    2fa8:	0a940100 	beq	fe5033b0 <__bss_end__+0xfe4f9158>
    2fac:	00000515 	andeq	r0, r0, r5, lsl r5
    2fb0:	0009f41b 	andeq	pc, r9, fp, lsl r4	; <UNPREDICTABLE>
    2fb4:	00131a00 	andseq	r1, r3, r0, lsl #20
    2fb8:	00131600 	andseq	r1, r3, r0, lsl #12
    2fbc:	951a0000 	ldrls	r0, [sl, #-0]
    2fc0:	d4000008 	strle	r0, [r0], #-8
    2fc4:	01000090 	swpeq	r0, r0, [r0]	; <UNPREDICTABLE>
    2fc8:	00022000 	andeq	r2, r2, r0
    2fcc:	09dc0100 	ldmibeq	ip, {r8}^
    2fd0:	0000064b 	andeq	r0, r0, fp, asr #12
    2fd4:	0008be1b 	andeq	fp, r8, fp, lsl lr
    2fd8:	00134800 	andseq	r4, r3, r0, lsl #16
    2fdc:	00134200 	andseq	r4, r3, r0, lsl #4
    2fe0:	08e01b00 	stmiaeq	r0!, {r8, r9, fp, ip}^
    2fe4:	137d0000 	cmnne	sp, #0, 0
    2fe8:	13770000 	cmnne	r7, #0, 0
    2fec:	d41b0000 	ldrle	r0, [fp], #-0
    2ff0:	af000008 	svcge	0x00000008
    2ff4:	a9000013 	stmdbge	r0, {r0, r1, r4}
    2ff8:	1c000013 	stcne	0, cr0, [r0], {19}
    2ffc:	000008c8 	andeq	r0, r0, r8, asr #17
    3000:	0008b21b 	andeq	fp, r8, fp, lsl r2
    3004:	0013e000 	andseq	lr, r3, r0
    3008:	0013d800 	andseq	sp, r3, r0, lsl #16
    300c:	08a61b00 	stmiaeq	r6!, {r8, r9, fp, ip}
    3010:	14230000 	strtne	r0, [r3], #-0
    3014:	141d0000 	ldrne	r0, [sp], #-0
    3018:	20130000 	andscs	r0, r3, r0
    301c:	1d000002 	stcne	0, cr0, [r0, #-8]
    3020:	000008ec 	andeq	r0, r0, ip, ror #17
    3024:	7ed89103 	atnvce	f1, f3
    3028:	0008f81e 	andeq	pc, r8, lr, lsl r8	; <UNPREDICTABLE>
    302c:	00145d00 	andseq	r5, r4, r0, lsl #26
    3030:	00144f00 	andseq	r4, r4, r0, lsl #30
    3034:	09021f00 	stmdbeq	r2, {r8, r9, sl, fp, ip}
    3038:	a31a0000 	tstge	sl, #0, 0
    303c:	e0000009 	and	r0, r0, r9
    3040:	04000090 	streq	r0, [r0], #-144	; 0xffffff70
    3044:	00025000 	andeq	r5, r2, r0
    3048:	097c0100 	ldmdbeq	ip!, {r8}^
    304c:	000005e2 	andeq	r0, r0, r2, ror #11
    3050:	0009ca1b 	andeq	ip, r9, fp, lsl sl
    3054:	0014c700 	andseq	ip, r4, r0, lsl #14
    3058:	0014c100 	andseq	ip, r4, r0, lsl #2
    305c:	09be1b00 	ldmibeq	lr!, {r8, r9, fp, ip}
    3060:	14fc0000 	ldrbtne	r0, [ip], #0
    3064:	14f00000 	ldrbtne	r0, [r0], #0
    3068:	b41b0000 	ldrlt	r0, [fp], #-0
    306c:	62000009 	andvs	r0, r0, #9, 0
    3070:	52000015 	andpl	r0, r0, #21, 0
    3074:	13000015 	movwne	r0, #21
    3078:	00000250 	andeq	r0, r0, r0, asr r2
    307c:	0009d61e 	andeq	sp, r9, lr, lsl r6
    3080:	0015df00 	andseq	sp, r5, r0, lsl #30
    3084:	0015d100 	andseq	sp, r5, r0, lsl #2
    3088:	20000000 	andcs	r0, r0, r0
    308c:	0000094f 	andeq	r0, r0, pc, asr #18
    3090:	000091a8 	andeq	r9, r0, r8, lsr #3
    3094:	02800002 	addeq	r0, r0, #2, 0
    3098:	7c010000 	stcvc	0, cr0, [r1], {-0}
    309c:	09801b09 	stmibeq	r0, {r0, r3, r8, r9, fp, ip}
    30a0:	163f0000 	ldrtne	r0, [pc], -r0
    30a4:	16390000 	ldrtne	r0, [r9], -r0
    30a8:	761b0000 	ldrvc	r0, [fp], -r0
    30ac:	75000009 	strvc	r0, [r0, #-9]
    30b0:	6b000016 	blvs	3110 <__code_start__-0x4ef0>
    30b4:	1b000016 	blne	3114 <__code_start__-0x4eec>
    30b8:	0000096c 	andeq	r0, r0, ip, ror #18
    30bc:	000016c4 	andeq	r1, r0, r4, asr #13
    30c0:	000016c0 	andeq	r1, r0, r0, asr #13
    30c4:	0009601b 	andeq	r6, r9, fp, lsl r0
    30c8:	0016f400 	andseq	pc, r6, r0, lsl #8
    30cc:	0016e600 	andseq	lr, r6, r0, lsl #12
    30d0:	02801300 	addeq	r1, r0, #0, 6
    30d4:	8c1e0000 	ldchi	0, cr0, [lr], {-0}
    30d8:	59000009 	stmdbpl	r0, {r0, r3}
    30dc:	57000017 	smladpl	r0, r7, r0, r0
    30e0:	1e000017 	mcrne	0, 0, r0, cr0, cr7, {0}
    30e4:	00000998 	muleq	r0, r8, r9
    30e8:	00001773 	andeq	r1, r0, r3, ror r7
    30ec:	0000176d 	andeq	r1, r0, sp, ror #14
    30f0:	00000000 	andeq	r0, r0, r0
    30f4:	0008951a 	andeq	r9, r8, sl, lsl r5
    30f8:	0091e400 	addseq	lr, r1, r0, lsl #8
    30fc:	b0000000 	andlt	r0, r0, r0
    3100:	01000002 	tsteq	r0, r2
    3104:	078909d6 			; <UNDEFINED> instruction: 0x078909d6
    3108:	be1b0000 	cdplt	0, 1, cr0, cr11, cr0, {0}
    310c:	a6000008 	strge	r0, [r0], -r8
    3110:	a2000017 	andge	r0, r0, #23, 0
    3114:	1b000017 	blne	3178 <__code_start__-0x4e88>
    3118:	000008e0 	andeq	r0, r0, r0, ror #17
    311c:	000017cc 	andeq	r1, r0, ip, asr #15
    3120:	000017c8 	andeq	r1, r0, r8, asr #15
    3124:	0008d41b 	andeq	sp, r8, fp, lsl r4
    3128:	0017f000 	andseq	pc, r7, r0
    312c:	0017ec00 	andseq	lr, r7, r0, lsl #24
    3130:	08c81c00 	stmiaeq	r8, {sl, fp, ip}^
    3134:	b21b0000 	andslt	r0, fp, #0, 0
    3138:	14000008 	strne	r0, [r0], #-8
    313c:	0e000018 	mcreq	0, 0, r0, cr0, cr8, {0}
    3140:	1b000018 	blne	31a8 <__code_start__-0x4e58>
    3144:	000008a6 	andeq	r0, r0, r6, lsr #17
    3148:	00001847 	andeq	r1, r0, r7, asr #16
    314c:	00001843 	andeq	r1, r0, r3, asr #16
    3150:	0002b013 	andeq	fp, r2, r3, lsl r0
    3154:	08ec1d00 	stmiaeq	ip!, {r8, sl, fp, ip}^
    3158:	91030000 	mrsls	r0, (UNDEF: 3)
    315c:	f81e7ed8 			; <UNDEFINED> instruction: 0xf81e7ed8
    3160:	71000008 	tstvc	r0, r8
    3164:	67000018 	smladvs	r0, r8, r0, r0
    3168:	1e000018 	mcrne	0, 0, r0, cr0, cr8, {0}
    316c:	00000902 	andeq	r0, r0, r2, lsl #18
    3170:	000018b6 			; <UNDEFINED> instruction: 0x000018b6
    3174:	000018b2 			; <UNDEFINED> instruction: 0x000018b2
    3178:	0009a31a 	andeq	sl, r9, sl, lsl r3
    317c:	00920000 	addseq	r0, r2, r0
    3180:	d0000300 	andle	r0, r0, r0, lsl #6
    3184:	01000002 	tsteq	r0, r2
    3188:	0720097c 			; <UNDEFINED> instruction: 0x0720097c
    318c:	ca1b0000 	bgt	6c3194 <__bss_end__+0x6b8f3c>
    3190:	d8000009 	stmdale	r0, {r0, r3}
    3194:	d4000018 	strle	r0, [r0], #-24	; 0xffffffe8
    3198:	1b000018 	blne	3200 <__code_start__-0x4e00>
    319c:	000009be 			; <UNDEFINED> instruction: 0x000009be
    31a0:	000018fa 	strdeq	r1, [r0], -sl
    31a4:	000018f6 	strdeq	r1, [r0], -r6
    31a8:	0009b41b 	andeq	fp, r9, fp, lsl r4
    31ac:	00192400 	andseq	r2, r9, r0, lsl #8
    31b0:	00191800 	andseq	r1, r9, r0, lsl #16
    31b4:	02d01300 	sbcseq	r1, r0, #0, 6
    31b8:	d61e0000 	ldrle	r0, [lr], -r0
    31bc:	80000009 	andhi	r0, r0, r9
    31c0:	74000019 	strvc	r0, [r0], #-25	; 0xffffffe7
    31c4:	00000019 	andeq	r0, r0, r9, lsl r0
    31c8:	094f2000 	stmdbeq	pc, {sp}^	; <UNPREDICTABLE>
    31cc:	92880000 	addls	r0, r8, #0, 0
    31d0:	00020000 	andeq	r0, r2, r0
    31d4:	000002f8 	strdeq	r0, [r0], -r8
    31d8:	1b097c01 	blne	2621e4 <__bss_end__+0x257f8c>
    31dc:	00000980 	andeq	r0, r0, r0, lsl #19
    31e0:	000019d0 	ldrdeq	r1, [r0], -r0
    31e4:	000019cc 	andeq	r1, r0, ip, asr #19
    31e8:	0009761b 	andeq	r7, r9, fp, lsl r6
    31ec:	0019f800 	andseq	pc, r9, r0, lsl #16
    31f0:	0019ee00 	andseq	lr, r9, r0, lsl #28
    31f4:	096c1b00 	stmdbeq	ip!, {r8, r9, fp, ip}^
    31f8:	1a440000 	bne	1103200 <__bss_end__+0x10f8fa8>
    31fc:	1a400000 	bne	1003204 <__bss_end__+0xff8fac>
    3200:	601b0000 	andsvs	r0, fp, r0
    3204:	72000009 	andvc	r0, r0, #9, 0
    3208:	6600001a 			; <UNDEFINED> instruction: 0x6600001a
    320c:	1300001a 	movwne	r0, #26
    3210:	000002f8 	strdeq	r0, [r0], -r8
    3214:	00098c1e 	andeq	r8, r9, lr, lsl ip
    3218:	001acc00 	andseq	ip, sl, r0, lsl #24
    321c:	001ac800 	andseq	ip, sl, r0, lsl #16
    3220:	09981e00 	ldmibeq	r8, {r9, sl, fp, ip}
    3224:	1af20000 	bne	ffc8322c <__bss_end__+0xffc78fd4>
    3228:	1aee0000 	bne	ffb83230 <__bss_end__+0xffb78fd8>
    322c:	00000000 	andeq	r0, r0, r0
    3230:	b4170000 	ldrlt	r0, [r7], #-0
    3234:	a400008f 	strge	r0, [r0], #-143	; 0xffffff71
    3238:	af00000a 	svcge	0x0000000a
    323c:	18000007 	stmdane	r0, {r0, r1, r2}
    3240:	40015001 	andmi	r5, r1, r1
    3244:	03510118 	cmpeq	r1, #6
    3248:	187dd091 	ldmdane	sp!, {r0, r4, r7, ip, lr, pc}^
    324c:	75025301 	strvc	r5, [r2, #-769]	; 0xfffffcff
    3250:	7d021800 	stcvc	8, cr1, [r2, #-0]
    3254:	00300100 	eorseq	r0, r0, r0, lsl #2
    3258:	0090c417 	addseq	ip, r0, r7, lsl r4
    325c:	000aa400 	andeq	sl, sl, r0, lsl #8
    3260:	0007cf00 	andeq	ip, r7, r0, lsl #30
    3264:	50011800 	andpl	r1, r1, r0, lsl #16
    3268:	01183a01 	tsteq	r8, r1, lsl #20
    326c:	d0910351 	addsle	r0, r1, r1, asr r3
    3270:	5301187d 	movwpl	r1, #6269	; 0x187d
    3274:	00007502 	andeq	r7, r0, r2, lsl #10
    3278:	0093a817 	addseq	sl, r3, r7, lsl r8
    327c:	000c4600 	andeq	r4, ip, r0, lsl #12
    3280:	0007e600 	andeq	lr, r7, r0, lsl #12
    3284:	50011800 	andpl	r1, r1, r0, lsl #16
    3288:	9dac0305 	stcls	3, cr0, [ip, #20]!
    328c:	21000000 	mrscs	r0, (UNDEF: 0)
    3290:	000093b8 			; <UNDEFINED> instruction: 0x000093b8
    3294:	000007f8 	strdeq	r0, [r0], -r8
    3298:	04500118 	ldrbeq	r0, [r0], #-280	; 0xfffffee8
    329c:	067dc891 			; <UNDEFINED> instruction: 0x067dc891
    32a0:	93cc1700 	bicls	r1, ip, #0, 14
    32a4:	0c460000 	mareq	acc0, r0, r6
    32a8:	08270000 	stmdaeq	r7!, {}	; <UNPREDICTABLE>
    32ac:	01180000 	tsteq	r8, r0
    32b0:	dc030550 	cfstr32le	mvfx0, [r3], {80}	; 0x50
    32b4:	1800009d 	stmdane	r0, {r0, r2, r3, r4, r7}
    32b8:	03055101 	movweq	r5, #20737	; 0x5101
    32bc:	00009cbc 			; <UNDEFINED> instruction: 0x00009cbc
    32c0:	05520118 	ldrbeq	r0, [r2, #-280]	; 0xfffffee8
    32c4:	009e1403 	addseq	r1, lr, r3, lsl #8
    32c8:	53011800 	movwpl	r1, #6144	; 0x1800
    32cc:	00e20802 	rsceq	r0, r2, r2, lsl #16
    32d0:	0093d019 	addseq	sp, r3, r9, lsl r0
    32d4:	000c7600 	andeq	r7, ip, r0, lsl #12
    32d8:	93e41700 	mvnls	r1, #0, 14
    32dc:	0c460000 	mareq	acc0, r0, r6
    32e0:	085f0000 	ldmdaeq	pc, {}^	; <UNPREDICTABLE>
    32e4:	01180000 	tsteq	r8, r0
    32e8:	84030550 	strhi	r0, [r3], #-1360	; 0xfffffab0
    32ec:	1800009d 	stmdane	r0, {r0, r2, r3, r4, r7}
    32f0:	03055101 	movweq	r5, #20737	; 0x5101
    32f4:	00009cbc 			; <UNDEFINED> instruction: 0x00009cbc
    32f8:	05520118 	ldrbeq	r0, [r2, #-280]	; 0xfffffee8
    32fc:	009e1403 	addseq	r1, lr, r3, lsl #8
    3300:	53011800 	movwpl	r1, #6144	; 0x1800
    3304:	00be0802 	adcseq	r0, lr, r2, lsl #16
    3308:	0093e819 	addseq	lr, r3, r9, lsl r8
    330c:	000c7600 	andeq	r7, ip, r0, lsl #12
    3310:	08000000 	stmdaeq	r0, {}	; <UNPREDICTABLE>
    3314:	0000b904 	andeq	fp, r0, r4, lsl #18
    3318:	00c02200 	sbceq	r2, r0, r0, lsl #4
    331c:	08800000 	stmeq	r0, {}	; <UNPREDICTABLE>
    3320:	2c230000 	stccs	0, cr0, [r3], #-0
    3324:	09000000 	stmdbeq	r0, {}	; <UNPREDICTABLE>
    3328:	08700900 	ldmdaeq	r0!, {r8, fp}^
    332c:	b9220000 	stmdblt	r2!, {}	; <UNPREDICTABLE>
    3330:	95000000 	strls	r0, [r0, #-0]
    3334:	23000008 	movwcs	r0, #8
    3338:	0000002c 	andeq	r0, r0, ip, lsr #32
    333c:	3024007f 	eorcc	r0, r4, pc, ror r0
    3340:	01000008 	tsteq	r0, r8
    3344:	086a0149 	stmdaeq	sl!, {r0, r3, r6, r8}^
    3348:	2a010000 	bcs	43350 <__bss_end__+0x390f8>
    334c:	25000009 	strcs	r0, [r0, #-9]
    3350:	00000875 	andeq	r0, r0, r5, ror r8
    3354:	2c0f4901 			; <UNDEFINED> instruction: 0x2c0f4901
    3358:	26000000 	strcs	r0, [r0], -r0
    335c:	00747364 	rsbseq	r7, r4, r4, ror #6
    3360:	6a1b4901 	bvs	6d576c <__bss_end__+0x6cb514>
    3364:	26000008 	strcs	r0, [r0], -r8
    3368:	4901006e 	stmdbmi	r1, {r1, r2, r3, r5, r6}
    336c:	00003324 	andeq	r3, r0, r4, lsr #6
    3370:	61762600 	cmnvs	r6, r0, lsl #12
    3374:	4901006c 	stmdbmi	r1, {r2, r3, r5, r6}
    3378:	0000332b 	andeq	r3, r0, fp, lsr #6
    337c:	07b72500 	ldreq	r2, [r7, r0, lsl #10]!
    3380:	49010000 	stmdbmi	r1, {}	; <UNPREDICTABLE>
    3384:	00003334 	andeq	r3, r0, r4, lsr r3
    3388:	07ca2500 	strbeq	r2, [sl, r0, lsl #10]
    338c:	49010000 	stmdbmi	r1, {}	; <UNPREDICTABLE>
    3390:	0000333f 	andeq	r3, r0, pc, lsr r3
    3394:	75622700 	strbvc	r2, [r2, #-1792]!	; 0xfffff900
    3398:	4e010066 	cdpmi	0, 0, cr0, cr1, cr6, {3}
    339c:	00092a07 	andeq	r2, r9, r7, lsl #20
    33a0:	00702700 	rsbseq	r2, r0, r0, lsl #14
    33a4:	6a114e01 	bvs	456bb0 <__bss_end__+0x44c958>
    33a8:	27000008 	strcs	r0, [r0, -r8]
    33ac:	4f010075 	svcmi	0x00010075
    33b0:	00002c0b 	andeq	r2, r0, fp, lsl #24
    33b4:	02081200 	andeq	r1, r8, #0, 4
    33b8:	094a0000 	stmdbeq	sl, {}^	; <UNPREDICTABLE>
    33bc:	03050000 	movweq	r0, #20480	; 0x5000
    33c0:	00009dfc 	strdeq	r9, [r0], -ip
    33c4:	081d2928 	ldmdaeq	sp, {r3, r5, r8, fp, sp}
    33c8:	54010000 	strpl	r0, [r1], #-0
    33cc:	00002c0d 	andeq	r2, r0, sp, lsl #24
    33d0:	22000000 	andcs	r0, r0, #0, 0
    33d4:	000000b9 	strheq	r0, [r0], -r9
    33d8:	0000093a 	andeq	r0, r0, sl, lsr r9
    33dc:	00002c23 	andeq	r2, r0, r3, lsr #24
    33e0:	22003f00 	andcs	r3, r0, #0, 30
    33e4:	000000c0 	andeq	r0, r0, r0, asr #1
    33e8:	0000094a 	andeq	r0, r0, sl, asr #18
    33ec:	00002c23 	andeq	r2, r0, r3, lsr #24
    33f0:	09000400 	stmdbeq	r0, {sl}
    33f4:	0000093a 	andeq	r0, r0, sl, lsr r9
    33f8:	00083d24 	andeq	r3, r8, r4, lsr #26
    33fc:	0e380100 	rsfeqe	f0, f0, f0
    3400:	0000086a 	andeq	r0, r0, sl, ror #16
    3404:	0009a301 	andeq	sl, r9, r1, lsl #6
    3408:	73642600 	cmnvc	r4, #0, 12
    340c:	38010074 	stmdacc	r1, {r2, r4, r5, r6}
    3410:	00086a1c 	andeq	r6, r8, ip, lsl sl
    3414:	006e2600 	rsbeq	r2, lr, r0, lsl #12
    3418:	33253801 			; <UNDEFINED> instruction: 0x33253801
    341c:	26000000 	strcs	r0, [r0], -r0
    3420:	38010070 	stmdacc	r1, {r4, r5, r6}
    3424:	00086a2e 	andeq	r6, r8, lr, lsr #20
    3428:	04d12500 	ldrbeq	r2, [r1], #1280	; 0x500
    342c:	38010000 	stmdacc	r1, {}	; <UNPREDICTABLE>
    3430:	00086a37 	andeq	r6, r8, r7, lsr sl
    3434:	656c2700 	strbvs	r2, [ip, #-1792]!	; 0xfffff900
    3438:	3a01006e 	bcc	435f8 <__bss_end__+0x393a0>
    343c:	00003306 	andeq	r3, r0, r6, lsl #6
    3440:	00732700 	rsbseq	r2, r3, r0, lsl #14
    3444:	6a083e01 	bvs	212c50 <__bss_end__+0x2089f8>
    3448:	00000008 	andeq	r0, r0, r8
    344c:	6461702a 	strbtvs	r7, [r1], #-42	; 0xffffffd6
    3450:	0e2e0100 	sufeqe	f0, f6, f0
    3454:	0000086a 	andeq	r0, r0, sl, ror #16
    3458:	0009e301 	andeq	lr, r9, r1, lsl #6
    345c:	00702600 	rsbseq	r2, r0, r0, lsl #12
    3460:	6a182e01 	bvs	60ec6c <__bss_end__+0x604a14>
    3464:	25000008 	strcs	r0, [r0, #-8]
    3468:	00000875 	andeq	r0, r0, r5, ror r8
    346c:	6a222e01 	bvs	88ec78 <__bss_end__+0x884a20>
    3470:	25000008 	strcs	r0, [r0, #-8]
    3474:	000007b7 			; <UNDEFINED> instruction: 0x000007b7
    3478:	332c2e01 			; <UNDEFINED> instruction: 0x332c2e01
    347c:	27000000 	strcs	r0, [r0, -r0]
    3480:	006e656c 	rsbeq	r6, lr, ip, ror #10
    3484:	33062f01 	movwcc	r2, #28417	; 0x6f01
    3488:	00000000 	andeq	r0, r0, r0
    348c:	00077624 	andeq	r7, r7, r4, lsr #12
    3490:	0c270100 	stfeqs	f0, [r7], #-0
    3494:	00000033 	andeq	r0, r0, r3, lsr r0
    3498:	0009ff01 	andeq	pc, r9, r1, lsl #30
    349c:	00632600 	rsbeq	r2, r3, r0, lsl #12
    34a0:	33182701 	tstcc	r8, #262144	; 0x40000
    34a4:	00000000 	andeq	r0, r0, r0
    34a8:	0007f62b 	andeq	pc, r7, fp, lsr #12
    34ac:	061f0100 	ldreq	r0, [pc], -r0, lsl #2
    34b0:	00008e00 	andeq	r8, r0, r0, lsl #28
    34b4:	00000060 	andeq	r0, r0, r0, rrx
    34b8:	0a8f9c01 	beq	fe3ea4c4 <__bss_end__+0xfe3e026c>
    34bc:	d30f0000 	movwle	r0, #61440	; 0xf000
    34c0:	01000007 	tsteq	r0, r7
    34c4:	009e1b1f 	addseq	r1, lr, pc, lsl fp
    34c8:	1b170000 	blne	5c34d0 <__bss_end__+0x5b9278>
    34cc:	1b130000 	blne	4c34d4 <__bss_end__+0x4b927c>
    34d0:	350f0000 	strcc	r0, [pc, #-0]	; 34d8 <__code_start__-0x4b28>
    34d4:	01000008 	tsteq	r0, r8
    34d8:	00d1301f 	sbcseq	r3, r1, pc, lsl r0
    34dc:	1b3c0000 	blne	f034e4 <__bss_end__+0xef928c>
    34e0:	1b380000 	blne	e034e8 <__bss_end__+0xdf9290>
    34e4:	08120000 	ldmdaeq	r2, {}	; <UNPREDICTABLE>
    34e8:	9f000002 	svcls	0x00000002
    34ec:	0500000a 	streq	r0, [r0, #-10]
    34f0:	009e0403 	addseq	r0, lr, r3, lsl #8
    34f4:	8e441700 	cdphi	7, 4, cr1, cr4, cr0, {0}
    34f8:	0c460000 	mareq	acc0, r0, r6
    34fc:	0a850000 	beq	fe143504 <__bss_end__+0xfe1392ac>
    3500:	01180000 	tsteq	r8, r0
    3504:	00030550 	andeq	r0, r3, r0, asr r5
    3508:	1800009c 	stmdane	r0, {r2, r3, r4, r7}
    350c:	03055101 	movweq	r5, #20737	; 0x5101
    3510:	00009cbc 			; <UNDEFINED> instruction: 0x00009cbc
    3514:	05520118 	ldrbeq	r0, [r2, #-280]	; 0xfffffee8
    3518:	009e0403 	addseq	r0, lr, r3, lsl #8
    351c:	53011800 	movwpl	r1, #6144	; 0x1800
    3520:	18200802 	stmdane	r0!, {r1, fp}
    3524:	05007d02 	streq	r7, [r0, #-3330]	; 0xfffff2fe
    3528:	009cf403 	addseq	pc, ip, r3, lsl #8
    352c:	48190000 	ldmdami	r9, {}	; <UNPREDICTABLE>
    3530:	7600008e 	strvc	r0, [r0], -lr, lsl #1
    3534:	0000000c 	andeq	r0, r0, ip
    3538:	0000c022 	andeq	ip, r0, r2, lsr #32
    353c:	000a9f00 	andeq	r9, sl, r0, lsl #30
    3540:	002c2300 	eoreq	r2, ip, r0, lsl #6
    3544:	000e0000 	andeq	r0, lr, r0
    3548:	000a8f09 	andeq	r8, sl, r9, lsl #30
    354c:	08952c00 	ldmeq	r5, {sl, fp, sp}
    3550:	8ad80000 	bhi	ff603558 <__bss_end__+0xff5f9300>
    3554:	03280000 			; <UNDEFINED> instruction: 0x03280000
    3558:	9c010000 	stcls	0, cr0, [r1], {-0}
    355c:	00000c3a 	andeq	r0, r0, sl, lsr ip
    3560:	0008a61b 	andeq	sl, r8, fp, lsl r6
    3564:	001b7500 	andseq	r7, fp, r0, lsl #10
    3568:	001b5d00 	andseq	r5, fp, r0, lsl #26
    356c:	08b21b00 	ldmeq	r2!, {r8, r9, fp, ip}
    3570:	1c1f0000 	ldcne	0, cr0, [pc], {-0}
    3574:	1c170000 	ldcne	0, cr0, [r7], {-0}
    3578:	c81b0000 	ldmdagt	fp, {}	; <UNPREDICTABLE>
    357c:	76000008 	strvc	r0, [r0], -r8
    3580:	5600001c 			; <UNDEFINED> instruction: 0x5600001c
    3584:	1b00001c 	blne	35fc <__code_start__-0x4a04>
    3588:	000008d4 	ldrdeq	r0, [r0], -r4
    358c:	00001d4c 	andeq	r1, r0, ip, asr #26
    3590:	00001d3e 	andeq	r1, r0, lr, lsr sp
    3594:	0008e02d 	andeq	lr, r8, sp, lsr #32
    3598:	00910200 	addseq	r0, r1, r0, lsl #4
    359c:	0008ec1d 	andeq	lr, r8, sp, lsl ip
    35a0:	a8910300 	ldmge	r1, {r8, r9}
    35a4:	08f81e7f 	ldmeq	r8!, {r0, r1, r2, r3, r4, r5, r6, r9, sl, fp, ip}^
    35a8:	1de00000 	stclne	0, cr0, [r0]
    35ac:	1dac0000 	stcne	0, cr0, [ip]
    35b0:	021e0000 	andseq	r0, lr, #0, 0
    35b4:	47000009 	strmi	r0, [r0, -r9]
    35b8:	2500001f 	strcs	r0, [r0, #-31]	; 0xffffffe1
    35bc:	2e00001f 	mcrcs	0, 0, r0, cr0, cr15, {0}
    35c0:	000008be 			; <UNDEFINED> instruction: 0x000008be
    35c4:	09a31a80 	stmibeq	r3!, {r7, r9, fp, ip}
    35c8:	8b7c0000 	blhi	1f035d0 <__bss_end__+0x1ef9378>
    35cc:	00040000 	andeq	r0, r4, r0
    35d0:	00000148 	andeq	r0, r0, r8, asr #2
    35d4:	6d097c01 	stcvs	12, cr7, [r9, #-4]
    35d8:	1b00000b 	blne	360c <__code_start__-0x49f4>
    35dc:	000009ca 	andeq	r0, r0, sl, asr #19
    35e0:	0000202f 	andeq	r2, r0, pc, lsr #32
    35e4:	00002025 	andeq	r2, r0, r5, lsr #32
    35e8:	0009be1b 	andeq	fp, r9, fp, lsl lr
    35ec:	00208300 	eoreq	r8, r0, r0, lsl #6
    35f0:	00207300 	eoreq	r7, r0, r0, lsl #6
    35f4:	09b41b00 	ldmibeq	r4!, {r8, r9, fp, ip}
    35f8:	21030000 	mrscs	r0, (UNDEF: 3)
    35fc:	20ef0000 	rsccs	r0, pc, r0
    3600:	48130000 	ldmdami	r3, {}	; <UNPREDICTABLE>
    3604:	1e000001 	cdpne	0, 0, cr0, cr0, cr1, {0}
    3608:	000009d6 	ldrdeq	r0, [r0], -r6
    360c:	00002195 	muleq	r0, r5, r1
    3610:	00002185 	andeq	r2, r0, r5, lsl #3
    3614:	4f1a0000 	svcmi	0x001a0000
    3618:	34000009 	strcc	r0, [r0], #-9
    361c:	0200008c 	andeq	r0, r0, #140, 0	; 0x8c
    3620:	00019000 	andeq	r9, r1, r0
    3624:	097c0100 	ldmdbeq	ip!, {r8}^
    3628:	00000bd8 	ldrdeq	r0, [r0], -r8
    362c:	0009801b 	andeq	r8, r9, fp, lsl r0
    3630:	00220100 	eoreq	r0, r2, r0, lsl #2
    3634:	0021f900 	eoreq	pc, r1, r0, lsl #18
    3638:	09761b00 	ldmdbeq	r6!, {r8, r9, fp, ip}^
    363c:	22400000 	subcs	r0, r0, #0, 0
    3640:	22380000 	eorscs	r0, r8, #0, 0
    3644:	6c1b0000 	ldcvs	0, cr0, [fp], {-0}
    3648:	7f000009 	svcvc	0x00000009
    364c:	7b000022 	blvc	36dc <__code_start__-0x4924>
    3650:	1b000022 	blne	36e0 <__code_start__-0x4920>
    3654:	00000960 	andeq	r0, r0, r0, ror #18
    3658:	000022af 	andeq	r2, r0, pc, lsr #5
    365c:	000022a1 	andeq	r2, r0, r1, lsr #5
    3660:	00019013 	andeq	r9, r1, r3, lsl r0
    3664:	098c1e00 	stmibeq	ip, {r9, sl, fp, ip}
    3668:	23140000 	tstcs	r4, #0, 0
    366c:	230e0000 	movwcs	r0, #57344	; 0xe000
    3670:	981e0000 	ldmdals	lr, {}	; <UNPREDICTABLE>
    3674:	46000009 	strmi	r0, [r0], -r9
    3678:	42000023 	andmi	r0, r0, #35, 0	; 0x23
    367c:	00000023 	andeq	r0, r0, r3, lsr #32
    3680:	091b2f00 	ldmdbeq	fp, {r8, r9, sl, fp, sp}
    3684:	8cec0000 	stclhi	0, cr0, [ip]
    3688:	00600000 	rsbeq	r0, r0, r0
    368c:	0bf70000 	bleq	ffdc3694 <__bss_end__+0xffdb943c>
    3690:	1c1e0000 	ldcne	0, cr0, [lr], {-0}
    3694:	68000009 	stmdavs	r0, {r0, r3}
    3698:	64000023 	strvs	r0, [r0], #-35	; 0xffffffdd
    369c:	00000023 	andeq	r0, r0, r3, lsr #32
    36a0:	008dc017 	addeq	ip, sp, r7, lsl r0
    36a4:	000c4600 	andeq	r4, ip, r0, lsl #12
    36a8:	000c3000 	andeq	r3, ip, r0
    36ac:	50011800 	andpl	r1, r1, r0, lsl #16
    36b0:	9c000305 	stcls	3, cr0, [r0], {5}
    36b4:	01180000 	tsteq	r8, r0
    36b8:	bc030551 	cfstr32lt	mvfx0, [r3], {81}	; 0x51
    36bc:	1800009c 	stmdane	r0, {r2, r3, r4, r7}
    36c0:	03055201 	movweq	r5, #20993	; 0x5201
    36c4:	00009dfc 	strdeq	r9, [r0], -ip
    36c8:	02530118 	subseq	r0, r3, #6
    36cc:	02187908 	andseq	r7, r8, #8, 18	; 0x20000
    36d0:	0305007d 	movweq	r0, #20605	; 0x507d
    36d4:	00009c7c 	andeq	r9, r0, ip, ror ip
    36d8:	8dc41900 	vstrhi.16	s3, [r4]	; <UNPREDICTABLE>
    36dc:	0c760000 	ldcleq	0, cr0, [r6], #-0
    36e0:	30000000 	andcc	r0, r0, r0
    36e4:	0000086d 	andeq	r0, r0, sp, ror #16
    36e8:	0000086d 	andeq	r0, r0, sp, ror #16
    36ec:	3005f003 	andcc	pc, r5, r3
    36f0:	000006ec 	andeq	r0, r0, ip, ror #13
    36f4:	000006ec 	andeq	r0, r0, ip, ror #13
    36f8:	30062803 	andcc	r2, r6, r3, lsl #16
    36fc:	0000080f 	andeq	r0, r0, pc, lsl #16
    3700:	0000080f 	andeq	r0, r0, pc, lsl #16
    3704:	3007f303 	andcc	pc, r7, r3, lsl #6
    3708:	00000845 	andeq	r0, r0, r5, asr #16
    370c:	00000845 	andeq	r0, r0, r5, asr #16
    3710:	3005ef03 	andcc	lr, r5, r3, lsl #30
    3714:	00000816 	andeq	r0, r0, r6, lsl r8
    3718:	00000816 	andeq	r0, r0, r6, lsl r8
    371c:	3007f203 	andcc	pc, r7, r3, lsl #4
    3720:	000001d4 	ldrdeq	r0, [r0], -r4
    3724:	000001d4 	ldrdeq	r0, [r0], -r4
    3728:	00066e03 	andeq	r6, r6, r3, lsl #28
    372c:	0000012f 	andeq	r0, r0, pc, lsr #2
    3730:	0e190004 	cdpeq	0, 1, cr0, cr9, cr4, {0}
    3734:	01040000 	mrseq	r0, (UNDEF: 4)
    3738:	000005d7 	ldrdeq	r0, [r0], -r7
    373c:	0008850c 	andeq	r8, r8, ip, lsl #10
    3740:	0006b100 	andeq	fp, r6, r0, lsl #2
    3744:	00948c00 	addseq	r8, r4, r0, lsl #24
    3748:	00002c00 	andeq	r2, r0, r0, lsl #24
    374c:	0017c300 	andseq	ip, r7, r0, lsl #6
    3750:	05040200 	streq	r0, [r4, #-512]	; 0xfffffe00
    3754:	00746e69 	rsbseq	r6, r4, r9, ror #28
    3758:	7d070403 	cfstrsvc	mvf0, [r7, #-12]
    375c:	03000000 	movweq	r0, #0
    3760:	00240601 	eoreq	r0, r4, r1, lsl #12
    3764:	02030000 	andeq	r0, r3, #0, 0
    3768:	0000a405 	andeq	sl, r0, r5, lsl #8
    376c:	05040300 	streq	r0, [r4, #-768]	; 0xfffffd00
    3770:	0000008f 	andeq	r0, r0, pc, lsl #1
    3774:	8a050803 	bhi	145788 <__bss_end__+0x13b530>
    3778:	03000000 	movweq	r0, #0
    377c:	00220801 	eoreq	r0, r2, r1, lsl #16
    3780:	02030000 	andeq	r0, r3, #0, 0
    3784:	00003907 	andeq	r3, r0, r7, lsl #18
    3788:	07040300 	streq	r0, [r4, -r0, lsl #6]
    378c:	00000078 	andeq	r0, r0, r8, ror r0
    3790:	73070803 	movwvc	r0, #30723	; 0x7803
    3794:	04000000 	streq	r0, [r0], #-0
    3798:	00000025 	andeq	r0, r0, r5, lsr #32
    379c:	0000007a 	andeq	r0, r0, sl, ror r0
    37a0:	00002505 	andeq	r2, r0, r5, lsl #10
    37a4:	98060000 	stmdals	r6, {}	; <UNPREDICTABLE>
    37a8:	02000000 	andeq	r0, r0, #0, 0
    37ac:	00860e1c 	addeq	r0, r6, ip, lsl lr
    37b0:	04070000 	streq	r0, [r7], #-0
    37b4:	0000006b 	andeq	r0, r0, fp, rrx
    37b8:	00002504 	andeq	r2, r0, r4, lsl #10
    37bc:	00009b00 	andeq	r9, r0, r0, lsl #22
    37c0:	009b0500 	addseq	r0, fp, r0, lsl #10
    37c4:	07000000 	streq	r0, [r0, -r0]
    37c8:	0000a804 	andeq	sl, r0, r4, lsl #16
    37cc:	08010300 	stmdaeq	r1, {r8, r9}
    37d0:	0000002b 	andeq	r0, r0, fp, lsr #32
    37d4:	0000a108 	andeq	sl, r0, r8, lsl #2
    37d8:	07630600 	strbeq	r0, [r3, -r0, lsl #12]!
    37dc:	21020000 	mrscs	r0, (UNDEF: 2)
    37e0:	0000b90e 	andeq	fp, r0, lr, lsl #18
    37e4:	8c040700 	stchi	7, cr0, [r4], {-0}
    37e8:	09000000 	stmdbeq	r0, {}	; <UNPREDICTABLE>
    37ec:	000001d4 	ldrdeq	r0, [r0], -r4
    37f0:	8c060401 	cfstrshi	mvf0, [r6], {1}
    37f4:	2c000094 	stccs	0, cr0, [r0], {148}	; 0x94
    37f8:	01000000 	mrseq	r0, (UNDEF: 0)
    37fc:	00010e9c 	muleq	r1, ip, lr
    3800:	94a00a00 	strtls	r0, [r0], #2560	; 0xa00
    3804:	00e80000 	rsceq	r0, r8, r0
    3808:	010b0000 	mrseq	r0, (UNDEF: 11)
    380c:	20030550 	andcs	r0, r3, r0, asr r5
    3810:	0000009e 	muleq	r0, lr, r0
    3814:	0094a40c 	addseq	sl, r4, ip, lsl #8
    3818:	00010e00 	andeq	r0, r1, r0, lsl #28
    381c:	94ac0d00 	strtls	r0, [ip], #3328	; 0xd00
    3820:	011a0000 	tsteq	sl, r0
    3824:	01040000 	mrseq	r0, (UNDEF: 4)
    3828:	010b0000 	mrseq	r0, (UNDEF: 11)
    382c:	003a0150 	eorseq	r0, sl, r0, asr r1
    3830:	0094b00c 	addseq	fp, r4, ip
    3834:	00012600 	andeq	r2, r1, r0, lsl #12
    3838:	a00e0000 	andge	r0, lr, r0
    383c:	a0000008 	andge	r0, r0, r8
    3840:	02000008 	andeq	r0, r0, #8, 0
    3844:	300e064d 	andcc	r0, lr, sp, asr #12
    3848:	30000000 	andcc	r0, r0, r0
    384c:	02000000 	andeq	r0, r0, #0, 0
    3850:	7a0e0658 	bvc	3851b8 <__bss_end__+0x37af60>
    3854:	7a000008 	bvc	387c <__code_start__-0x4784>
    3858:	02000008 	andeq	r0, r0, #8, 0
    385c:	b100066b 	tstlt	r0, fp, ror #12
    3860:	04000002 	streq	r0, [r0], #-2
    3864:	000ed900 	andeq	sp, lr, r0, lsl #18
    3868:	d7010400 	strle	r0, [r1, -r0, lsl #8]
    386c:	0c000005 	stceq	0, cr0, [r0], {5}
    3870:	000008d6 	ldrdeq	r0, [r0], -r6
    3874:	000006b1 			; <UNDEFINED> instruction: 0x000006b1
    3878:	000094b8 			; <UNDEFINED> instruction: 0x000094b8
    387c:	00000128 	andeq	r0, r0, r8, lsr #2
    3880:	0000184e 	andeq	r1, r0, lr, asr #16
    3884:	69050402 	stmdbvs	r5, {r1, sl}
    3888:	0300746e 	movweq	r7, #1134	; 0x46e
    388c:	007d0704 	rsbseq	r0, sp, r4, lsl #14
    3890:	01030000 	mrseq	r0, (UNDEF: 3)
    3894:	00002406 	andeq	r2, r0, r6, lsl #8
    3898:	05020300 	streq	r0, [r2, #-768]	; 0xfffffd00
    389c:	000000a4 	andeq	r0, r0, r4, lsr #1
    38a0:	8f050403 	svchi	0x00050403
    38a4:	03000000 	movweq	r0, #0
    38a8:	008a0508 	addeq	r0, sl, r8, lsl #10
    38ac:	01030000 	mrseq	r0, (UNDEF: 3)
    38b0:	00002208 	andeq	r2, r0, r8, lsl #4
    38b4:	07020300 	streq	r0, [r2, -r0, lsl #6]
    38b8:	00000039 	andeq	r0, r0, r9, lsr r0
    38bc:	78070403 	stmdavc	r7, {r0, r1, sl}
    38c0:	03000000 	movweq	r0, #0
    38c4:	00730708 	rsbseq	r0, r3, r8, lsl #14
    38c8:	25040000 	strcs	r0, [r4, #-0]
    38cc:	7a000000 	bvc	38d4 <__code_start__-0x472c>
    38d0:	05000000 	streq	r0, [r0, #-0]
    38d4:	00000025 	andeq	r0, r0, r5, lsr #32
    38d8:	00980600 	addseq	r0, r8, r0, lsl #12
    38dc:	1c020000 	stcne	0, cr0, [r2], {-0}
    38e0:	0000860e 	andeq	r8, r0, lr, lsl #12
    38e4:	6b040700 	blvs	1054ec <__bss_end__+0xfb294>
    38e8:	04000000 	streq	r0, [r0], #-0
    38ec:	00000025 	andeq	r0, r0, r5, lsr #32
    38f0:	0000009b 	muleq	r0, fp, r0
    38f4:	00009b05 	andeq	r9, r0, r5, lsl #22
    38f8:	04070000 	streq	r0, [r7], #-0
    38fc:	000000a8 	andeq	r0, r0, r8, lsr #1
    3900:	2b080103 	blcs	203d14 <__bss_end__+0x1f9abc>
    3904:	08000000 	stmdaeq	r0, {}	; <UNPREDICTABLE>
    3908:	000000a1 	andeq	r0, r0, r1, lsr #1
    390c:	00076306 	andeq	r6, r7, r6, lsl #6
    3910:	0e210200 	cdpeq	2, 2, cr0, cr1, cr0, {0}
    3914:	000000b9 	strheq	r0, [r0], -r9
    3918:	008c0407 	addeq	r0, ip, r7, lsl #8
    391c:	ae090000 	cdpge	0, 0, cr0, cr9, cr0, {0}
    3920:	01000008 	tsteq	r0, r8
    3924:	94b80611 	ldrtls	r0, [r8], #1553	; 0x611
    3928:	01280000 			; <UNDEFINED> instruction: 0x01280000
    392c:	9c010000 	stcls	0, cr0, [r1], {-0}
    3930:	00000226 	andeq	r0, r0, r6, lsr #4
    3934:	0007a906 	andeq	sl, r7, r6, lsl #18
    3938:	10120100 	andsne	r0, r2, r0, lsl #2
    393c:	00000025 	andeq	r0, r0, r5, lsr #32
    3940:	0007db06 	andeq	sp, r7, r6, lsl #22
    3944:	1f120100 	svcne	0x00120100
    3948:	00000025 	andeq	r0, r0, r5, lsr #32
    394c:	00001a0a 	andeq	r1, r0, sl, lsl #20
    3950:	07130100 	ldreq	r0, [r3, -r0, lsl #2]
    3954:	7373620b 	cmnvc	r3, #-1342177280	; 0xb0000000
    3958:	0a170100 	beq	5c3d60 <__bss_end__+0x5b9b08>
    395c:	00000226 	andeq	r0, r0, r6, lsr #4
    3960:	000023a0 	andeq	r2, r0, r0, lsr #7
    3964:	00002388 	andeq	r2, r0, r8, lsl #7
    3968:	0008b60c 	andeq	fp, r8, ip, lsl #12
    396c:	0a180100 	beq	603d74 <__bss_end__+0x5f9b1c>
    3970:	00000226 	andeq	r0, r0, r6, lsr #4
    3974:	0008f60d 	andeq	pc, r8, sp, lsl #12
    3978:	0e250100 	sufeqs	f0, f5, f0
    397c:	0000002c 	andeq	r0, r0, ip, lsr #32
    3980:	0000243a 	andeq	r2, r0, sl, lsr r4
    3984:	00002438 	andeq	r2, r0, r8, lsr r4
    3988:	0095900e 	addseq	r9, r5, lr
    398c:	00000800 	andeq	r0, r0, r0, lsl #16
    3990:	00014a00 	andeq	r4, r1, r0, lsl #20
    3994:	6e690b00 	vmulvs.f64	d16, d9, d0
    3998:	05210100 	streq	r0, [r1, #-256]!	; 0xffffff00
    399c:	0000002c 	andeq	r0, r0, ip, lsr #32
    39a0:	0000244f 	andeq	r2, r0, pc, asr #8
    39a4:	0000244d 	andeq	r2, r0, sp, asr #8
    39a8:	022c0f00 	eoreq	r0, ip, #0, 30
    39ac:	95980000 	ldrls	r0, [r8]
    39b0:	98020000 	stmdals	r2, {}	; <UNPREDICTABLE>
    39b4:	0c000095 	stceq	0, cr0, [r0], {149}	; 0x95
    39b8:	01000000 	mrseq	r0, (UNDEF: 0)
    39bc:	01990523 	orrseq	r0, r9, r3, lsr #10
    39c0:	4f100000 	svcmi	0x00100000
    39c4:	65000002 	strvs	r0, [r0, #-2]
    39c8:	63000024 	movwvs	r0, #36	; 0x24
    39cc:	10000024 	andne	r0, r0, r4, lsr #32
    39d0:	0000025b 	andeq	r0, r0, fp, asr r2
    39d4:	0000247b 	andeq	r2, r0, fp, ror r4
    39d8:	00002479 	andeq	r2, r0, r9, ror r4
    39dc:	00026711 	andeq	r6, r2, r1, lsl r7
    39e0:	00959800 	addseq	r9, r5, r0, lsl #16
    39e4:	00000400 	andeq	r0, r0, r0, lsl #8
    39e8:	02681000 	rsbeq	r1, r8, #0, 0
    39ec:	24900000 	ldrcs	r0, [r0], #0
    39f0:	248e0000 	strcs	r0, [lr], #0
    39f4:	00000000 	andeq	r0, r0, r0
    39f8:	00022c12 	andeq	r2, r2, r2, lsl ip
    39fc:	0095a800 	addseq	sl, r5, r0, lsl #16
    3a00:	03200100 	nopeq	{0}	; <UNPREDICTABLE>
    3a04:	25010000 	strcs	r0, [r1, #-0]
    3a08:	0001ea15 	andeq	lr, r1, r5, lsl sl
    3a0c:	03201300 	nopeq	{0}	; <UNPREDICTABLE>
    3a10:	4f100000 	svcmi	0x00100000
    3a14:	a7000002 	strge	r0, [r0, -r2]
    3a18:	a3000024 	movwge	r0, #36	; 0x24
    3a1c:	10000024 	andne	r0, r0, r4, lsr #32
    3a20:	0000025b 	andeq	r0, r0, fp, asr r2
    3a24:	000024c8 	andeq	r2, r0, r8, asr #9
    3a28:	000024c6 	andeq	r2, r0, r6, asr #9
    3a2c:	00026711 	andeq	r6, r2, r1, lsl r7
    3a30:	0095a800 	addseq	sl, r5, r0, lsl #16
    3a34:	00000400 	andeq	r0, r0, r0, lsl #8
    3a38:	02681000 	rsbeq	r1, r8, #0, 0
    3a3c:	24dd0000 	ldrbcs	r0, [sp], #0
    3a40:	24db0000 	ldrbcs	r0, [fp], #0
    3a44:	00000000 	andeq	r0, r0, r0
    3a48:	94c01400 	strbls	r1, [r0], #1024	; 0x400
    3a4c:	02760000 	rsbseq	r0, r6, #0, 0
    3a50:	90140000 	andsls	r0, r4, r0
    3a54:	83000095 	movwhi	r0, #149	; 0x95
    3a58:	14000002 	strne	r0, [r0], #-2
    3a5c:	000095a8 	andeq	r9, r0, r8, lsr #11
    3a60:	0000028f 	andeq	r0, r0, pc, lsl #5
    3a64:	0095c415 	addseq	ip, r5, r5, lsl r4
    3a68:	00029c00 	andeq	r9, r2, r0, lsl #24
    3a6c:	00021c00 	andeq	r1, r2, r0, lsl #24
    3a70:	50011600 	andpl	r1, r1, r0, lsl #12
    3a74:	9e2c0305 	cdpls	3, 2, cr0, cr12, cr5, {0}
    3a78:	14000000 	strne	r0, [r0], #-0
    3a7c:	000095c8 	andeq	r9, r0, r8, asr #11
    3a80:	000002a8 	andeq	r0, r0, r8, lsr #5
    3a84:	25040700 	strcs	r0, [r4, #-1792]	; 0xfffff900
    3a88:	17000000 	strne	r0, [r0, -r0]
    3a8c:	000008f0 	strdeq	r0, [r0], -r0	; <UNPREDICTABLE>
    3a90:	2c110401 	cfldrscs	mvf0, [r1], {1}
    3a94:	01000000 	mrseq	r0, (UNDEF: 0)
    3a98:	00000276 	andeq	r0, r0, r6, ror r2
    3a9c:	0008fb18 	andeq	pc, r8, r8, lsl fp	; <UNPREDICTABLE>
    3aa0:	15050100 	strne	r0, [r5, #-256]	; 0xffffff00
    3aa4:	0000002c 	andeq	r0, r0, ip, lsr #32
    3aa8:	a2540305 	subsge	r0, r4, #335544320	; 0x14000000
    3aac:	f60c0000 			; <UNDEFINED> instruction: 0xf60c0000
    3ab0:	01000008 	tsteq	r0, r8
    3ab4:	002c0e07 	eoreq	r0, ip, r7, lsl #28
    3ab8:	63190000 	tstvs	r9, #0, 0
    3abc:	01007275 	tsteq	r0, r5, ror r2
    3ac0:	002c0e09 	eoreq	r0, ip, r9, lsl #28
    3ac4:	0c1a0000 	ldceq	0, cr0, [sl], {-0}
    3ac8:	000008eb 	andeq	r0, r0, fp, ror #17
    3acc:	2c140901 			; <UNDEFINED> instruction: 0x2c140901
    3ad0:	00000000 	andeq	r0, r0, r0
    3ad4:	08c81b00 	stmiaeq	r8, {r8, r9, fp, ip}^
    3ad8:	08c80000 	stmiaeq	r8, {}^	; <UNPREDICTABLE>
    3adc:	36020000 	strcc	r0, [r2], -r0
    3ae0:	be1c0601 	cfmsub32lt	mvax0, mvfx0, mvfx12, mvfx1
    3ae4:	be000008 	cdplt	0, 0, cr0, cr0, cr8, {0}
    3ae8:	02000008 	andeq	r0, r0, #8, 0
    3aec:	1a1b063b 	bne	6c53e0 <__bss_end__+0x6bb188>
    3af0:	1a000000 	bne	3af8 <__code_start__-0x4508>
    3af4:	02000000 	andeq	r0, r0, #0, 0
    3af8:	1c06010a 	stfnes	f0, [r6], {10}
    3afc:	000006ec 	andeq	r0, r0, ip, ror #13
    3b00:	000006ec 	andeq	r0, r0, ip, ror #13
    3b04:	1c062802 	stcne	8, cr2, [r6], {2}
    3b08:	000001d4 	ldrdeq	r0, [r0], -r4
    3b0c:	000001d4 	ldrdeq	r0, [r0], -r4
    3b10:	00066e02 	andeq	r6, r6, r2, lsl #28
    3b14:	000000ce 	andeq	r0, r0, lr, asr #1
    3b18:	10770004 	rsbsne	r0, r7, r4
    3b1c:	01040000 	mrseq	r0, (UNDEF: 4)
    3b20:	000005d7 	ldrdeq	r0, [r0], -r7
    3b24:	0009000c 	andeq	r0, r9, ip
    3b28:	0006b100 	andeq	fp, r6, r0, lsl #2
    3b2c:	0095e000 	addseq	lr, r5, r0
    3b30:	00000400 	andeq	r0, r0, r0, lsl #8
    3b34:	0019c800 	andseq	ip, r9, r0, lsl #16
    3b38:	05040200 	streq	r0, [r4, #-512]	; 0xfffffe00
    3b3c:	00746e69 	rsbseq	r6, r4, r9, ror #28
    3b40:	7d070403 	cfstrsvc	mvf0, [r7, #-12]
    3b44:	03000000 	movweq	r0, #0
    3b48:	00240601 	eoreq	r0, r4, r1, lsl #12
    3b4c:	02030000 	andeq	r0, r3, #0, 0
    3b50:	0000a405 	andeq	sl, r0, r5, lsl #8
    3b54:	05040300 	streq	r0, [r4, #-768]	; 0xfffffd00
    3b58:	0000008f 	andeq	r0, r0, pc, lsl #1
    3b5c:	8a050803 	bhi	145b70 <__bss_end__+0x13b918>
    3b60:	03000000 	movweq	r0, #0
    3b64:	00220801 	eoreq	r0, r2, r1, lsl #16
    3b68:	02030000 	andeq	r0, r3, #0, 0
    3b6c:	00003907 	andeq	r3, r0, r7, lsl #18
    3b70:	07040300 	streq	r0, [r4, -r0, lsl #6]
    3b74:	00000078 	andeq	r0, r0, r8, ror r0
    3b78:	73070803 	movwvc	r0, #30723	; 0x7803
    3b7c:	04000000 	streq	r0, [r0], #-0
    3b80:	00000025 	andeq	r0, r0, r5, lsr #32
    3b84:	0000007a 	andeq	r0, r0, sl, ror r0
    3b88:	00002505 	andeq	r2, r0, r5, lsl #10
    3b8c:	98060000 	stmdals	r6, {}	; <UNPREDICTABLE>
    3b90:	02000000 	andeq	r0, r0, #0, 0
    3b94:	00860e1c 	addeq	r0, r6, ip, lsl lr
    3b98:	04070000 	streq	r0, [r7], #-0
    3b9c:	0000006b 	andeq	r0, r0, fp, rrx
    3ba0:	00002504 	andeq	r2, r0, r4, lsl #10
    3ba4:	00009b00 	andeq	r9, r0, r0, lsl #22
    3ba8:	009b0500 	addseq	r0, fp, r0, lsl #10
    3bac:	07000000 	streq	r0, [r0, -r0]
    3bb0:	0000a804 	andeq	sl, r0, r4, lsl #16
    3bb4:	08010300 	stmdaeq	r1, {r8, r9}
    3bb8:	0000002b 	andeq	r0, r0, fp, lsr #32
    3bbc:	0000a108 	andeq	sl, r0, r8, lsl #2
    3bc0:	07630600 	strbeq	r0, [r3, -r0, lsl #12]!
    3bc4:	21020000 	mrscs	r0, (UNDEF: 2)
    3bc8:	0000b90e 	andeq	fp, r0, lr, lsl #18
    3bcc:	8c040700 	stchi	7, cr0, [r4], {-0}
    3bd0:	09000000 	stmdbeq	r0, {}	; <UNPREDICTABLE>
    3bd4:	000008c8 	andeq	r0, r0, r8, asr #17
    3bd8:	e0060401 	and	r0, r6, r1, lsl #8
    3bdc:	04000095 	streq	r0, [r0], #-149	; 0xffffff6b
    3be0:	01000000 	mrseq	r0, (UNDEF: 0)
    3be4:	027d009c 	rsbseq	r0, sp, #156, 0	; 0x9c
    3be8:	00040000 	andeq	r0, r4, r0
    3bec:	000010f0 	strdeq	r1, [r0], -r0
    3bf0:	05d70104 	ldrbeq	r0, [r7, #260]	; 0x104
    3bf4:	420c0000 	andmi	r0, ip, #0, 0
    3bf8:	b1000009 	tstlt	r0, r9
    3bfc:	50000006 	andpl	r0, r0, r6
    3c00:	00000003 	andeq	r0, r0, r3
    3c04:	49000000 	stmdbmi	r0, {}	; <UNPREDICTABLE>
    3c08:	0200001a 	andeq	r0, r0, #26, 0
    3c0c:	6e690504 	cdpvs	5, 6, cr0, cr9, cr4, {0}
    3c10:	25030074 	strcs	r0, [r3, #-116]	; 0xffffff8c
    3c14:	04000000 	streq	r0, [r0], #-0
    3c18:	007d0704 	rsbseq	r0, sp, r4, lsl #14
    3c1c:	01040000 	mrseq	r0, (UNDEF: 4)
    3c20:	00002406 	andeq	r2, r0, r6, lsl #8
    3c24:	05020400 	streq	r0, [r2, #-1024]	; 0xfffffc00
    3c28:	000000a4 	andeq	r0, r0, r4, lsr #1
    3c2c:	8f050404 	svchi	0x00050404
    3c30:	04000000 	streq	r0, [r0], #-0
    3c34:	008a0508 	addeq	r0, sl, r8, lsl #10
    3c38:	01040000 	mrseq	r0, (UNDEF: 4)
    3c3c:	00002208 	andeq	r2, r0, r8, lsl #4
    3c40:	07020400 	streq	r0, [r2, -r0, lsl #8]
    3c44:	00000039 	andeq	r0, r0, r9, lsr r0
    3c48:	78070404 	stmdavc	r7, {r2, sl}
    3c4c:	04000000 	streq	r0, [r0], #-0
    3c50:	00730708 	rsbseq	r0, r3, r8, lsl #14
    3c54:	25050000 	strcs	r0, [r5, #-0]
    3c58:	7f000000 	svcvc	0x00000000
    3c5c:	06000000 	streq	r0, [r0], -r0
    3c60:	00000025 	andeq	r0, r0, r5, lsr #32
    3c64:	00980700 	addseq	r0, r8, r0, lsl #14
    3c68:	1c020000 	stcne	0, cr0, [r2], {-0}
    3c6c:	00008b0e 	andeq	r8, r0, lr, lsl #22
    3c70:	70040800 	andvc	r0, r4, r0, lsl #16
    3c74:	05000000 	streq	r0, [r0, #-0]
    3c78:	00000025 	andeq	r0, r0, r5, lsr #32
    3c7c:	000000a0 	andeq	r0, r0, r0, lsr #1
    3c80:	0000a006 	andeq	sl, r0, r6
    3c84:	04080000 	streq	r0, [r8], #-0
    3c88:	000000ad 	andeq	r0, r0, sp, lsr #1
    3c8c:	2b080104 	blcs	2040a4 <__bss_end__+0x1f9e4c>
    3c90:	03000000 	movweq	r0, #0
    3c94:	000000a6 	andeq	r0, r0, r6, lsr #1
    3c98:	00076307 	andeq	r6, r7, r7, lsl #6
    3c9c:	0e210200 	cdpeq	2, 2, cr0, cr1, cr0, {0}
    3ca0:	000000be 	strheq	r0, [r0], -lr
    3ca4:	00910408 	addseq	r0, r1, r8, lsl #8
    3ca8:	66090000 	strvs	r0, [r9], -r0
    3cac:	01000009 	tsteq	r0, r9
    3cb0:	0031110d 	eorseq	r1, r1, sp, lsl #2
    3cb4:	7a0a0000 	bvc	283cbc <__bss_end__+0x279a64>
    3cb8:	01000008 	tsteq	r0, r8
    3cbc:	9628061f 			; <UNDEFINED> instruction: 0x9628061f
    3cc0:	00600000 	rsbeq	r0, r0, r0
    3cc4:	9c010000 	stcls	0, cr0, [r1], {-0}
    3cc8:	000001d5 	ldrdeq	r0, [r0], -r5
    3ccc:	00098a0b 	andeq	r8, r9, fp, lsl #20
    3cd0:	0f2c0100 	svceq	0x002c0100
    3cd4:	0000002c 	andeq	r0, r0, ip, lsr #32
    3cd8:	2010001c 	andscs	r0, r0, ip, lsl r0
    3cdc:	00092b0b 	andeq	r2, r9, fp, lsl #22
    3ce0:	0f2d0100 	svceq	0x002d0100
    3ce4:	0000002c 	andeq	r0, r0, ip, lsr #32
    3ce8:	20100024 	andscs	r0, r0, r4, lsr #32
    3cec:	0009570b 	andeq	r5, r9, fp, lsl #14
    3cf0:	0f2e0100 	svceq	0x002e0100
    3cf4:	0000002c 	andeq	r0, r0, ip, lsr #32
    3cf8:	5a000000 	bpl	3d00 <__code_start__-0x4300>
    3cfc:	0009710c 	andeq	r7, r9, ip, lsl #2
    3d00:	0f2f0100 	svceq	0x002f0100
    3d04:	0000002c 	andeq	r0, r0, ip, lsr #32
    3d08:	01ef0d20 	mvneq	r0, r0, lsr #26
    3d0c:	96280000 	strtls	r0, [r8], -r0
    3d10:	38020000 	stmdacc	r2, {}	; <UNPREDICTABLE>
    3d14:	01000003 	tsteq	r0, r3
    3d18:	014c0820 	cmpeq	ip, r0, lsr #16
    3d1c:	380e0000 	stmdacc	lr, {}	; <UNPREDICTABLE>
    3d20:	0f000003 	svceq	0x00000003
    3d24:	00000200 	andeq	r0, r0, r0, lsl #4
    3d28:	000024f4 	strdeq	r2, [r0], -r4
    3d2c:	000024f0 	strdeq	r2, [r0], -r0
    3d30:	d5100000 	ldrle	r0, [r0, #-0]
    3d34:	3c000001 	stccc	0, cr0, [r0], {1}
    3d38:	01000096 	swpeq	r0, r6, [r0]	; <UNPREDICTABLE>
    3d3c:	0000963c 	andeq	r9, r0, ip, lsr r6
    3d40:	00000010 	andeq	r0, r0, r0, lsl r0
    3d44:	73092101 	movwvc	r2, #37121	; 0x9101
    3d48:	0f000001 	svceq	0x00000001
    3d4c:	000001e2 	andeq	r0, r0, r2, ror #3
    3d50:	0000251b 	andeq	r2, r0, fp, lsl r5
    3d54:	00002513 	andeq	r2, r0, r3, lsl r5
    3d58:	96501100 	ldrbls	r1, [r0], -r0, lsl #2
    3d5c:	024f0000 	subeq	r0, pc, #0, 0
    3d60:	54110000 	ldrpl	r0, [r1], #-0
    3d64:	5c000096 	stcpl	0, cr0, [r0], {150}	; 0x96
    3d68:	12000002 	andne	r0, r0, #2, 0
    3d6c:	0000965c 	andeq	r9, r0, ip, asr r6
    3d70:	00000268 	andeq	r0, r0, r8, ror #4
    3d74:	00000198 	muleq	r0, r8, r1
    3d78:	01500113 	cmpeq	r0, r3, lsl r1
    3d7c:	6812003a 	ldmdavs	r2, {r1, r3, r4, r5}
    3d80:	74000096 	strvc	r0, [r0], #-150	; 0xffffff6a
    3d84:	b8000002 	stmdalt	r0, {r1}
    3d88:	13000001 	movwne	r0, #1
    3d8c:	0c055001 	stceq	0, cr5, [r5], {1}
    3d90:	20100024 	andscs	r0, r0, r4, lsr #32
    3d94:	05510113 	ldrbeq	r0, [r1, #-275]	; 0xfffffeed
    3d98:	0000010c 	andeq	r0, r0, ip, lsl #2
    3d9c:	7414005a 	ldrvc	r0, [r4], #-90	; 0xffffffa6
    3da0:	74000096 	strvc	r0, [r0], #-150	; 0xffffff6a
    3da4:	13000002 	movwne	r0, #2
    3da8:	0c055001 	stceq	0, cr5, [r5], {1}
    3dac:	2010001c 	andscs	r0, r0, ip, lsl r0
    3db0:	05510113 	ldrbeq	r0, [r1, #-275]	; 0xfffffeed
    3db4:	0000200c 	andeq	r2, r0, ip
    3db8:	1500005a 	strne	r0, [r0, #-90]	; 0xffffffa6
    3dbc:	00000933 	andeq	r0, r0, r3, lsr r9
    3dc0:	01061701 	tsteq	r6, r1, lsl #14
    3dc4:	000001ef 	andeq	r0, r0, pc, ror #3
    3dc8:	00099209 	andeq	r9, r9, r9, lsl #4
    3dcc:	0e180100 	mufeqe	f0, f0, f0
    3dd0:	00000031 	andeq	r0, r0, r1, lsr r0
    3dd4:	09631600 	stmdbeq	r3!, {r9, sl, ip}^
    3dd8:	0e010000 	cdpeq	0, 0, cr0, cr1, cr0, {0}
    3ddc:	00002505 	andeq	r2, r0, r5, lsl #10
    3de0:	020d0100 	andeq	r0, sp, #0
    3de4:	92090000 	andls	r0, r9, #0, 0
    3de8:	01000009 	tsteq	r0, r9
    3dec:	00310e0f 	eorseq	r0, r1, pc, lsl #28
    3df0:	17000000 	strne	r0, [r0, -r0]
    3df4:	000001ef 	andeq	r0, r0, pc, ror #3
    3df8:	000095fc 	strdeq	r9, [r0], -ip
    3dfc:	00000018 	andeq	r0, r0, r8, lsl r0
    3e00:	022e9c01 	eoreq	r9, lr, #256	; 0x100
    3e04:	000f0000 	andeq	r0, pc, r0
    3e08:	58000002 	stmdapl	r0, {r1}
    3e0c:	54000025 	strpl	r0, [r0], #-37	; 0xffffffdb
    3e10:	00000025 	andeq	r0, r0, r5, lsr #32
    3e14:	0001d517 	andeq	sp, r1, r7, lsl r5
    3e18:	00961400 	addseq	r1, r6, r0, lsl #8
    3e1c:	00001400 	andeq	r1, r0, r0, lsl #8
    3e20:	4f9c0100 	svcmi	0x009c0100
    3e24:	0f000002 	svceq	0x00000002
    3e28:	000001e2 	andeq	r0, r0, r2, ror #3
    3e2c:	0000257f 	andeq	r2, r0, pc, ror r5
    3e30:	00002577 	andeq	r2, r0, r7, ror r5
    3e34:	091c1800 	ldmdbeq	ip, {fp, ip}
    3e38:	091c0000 	ldmdbeq	ip, {}	; <UNPREDICTABLE>
    3e3c:	3b020000 	blcc	83e44 <__bss_end__+0x79bec>
    3e40:	a0190601 	andsge	r0, r9, r1, lsl #12
    3e44:	a0000008 	andge	r0, r0, r8
    3e48:	02000008 	andeq	r0, r0, #8, 0
    3e4c:	3019064d 	andscc	r0, r9, sp, asr #12
    3e50:	30000000 	andcc	r0, r0, r0
    3e54:	02000000 	andeq	r0, r0, #0, 0
    3e58:	77190658 			; <UNDEFINED> instruction: 0x77190658
    3e5c:	77000005 	strvc	r0, [r0, -r5]
    3e60:	02000005 	andeq	r0, r0, #5, 0
    3e64:	3f0006b2 	svccc	0x000006b2
    3e68:	04000005 	streq	r0, [r0], #-5
    3e6c:	00127300 	andseq	r7, r2, r0, lsl #6
    3e70:	d7010400 	strle	r0, [r1, -r0, lsl #8]
    3e74:	0c000005 	stceq	0, cr0, [r0], {5}
    3e78:	000009a1 	andeq	r0, r0, r1, lsr #19
    3e7c:	000006b1 			; <UNDEFINED> instruction: 0x000006b1
    3e80:	00009688 	andeq	r9, r0, r8, lsl #13
    3e84:	0000011c 	andeq	r0, r0, ip, lsl r1
    3e88:	00001b61 	andeq	r1, r0, r1, ror #22
    3e8c:	69050402 	stmdbvs	r5, {r1, sl}
    3e90:	0300746e 	movweq	r7, #1134	; 0x46e
    3e94:	007d0704 	rsbseq	r0, sp, r4, lsl #14
    3e98:	01030000 	mrseq	r0, (UNDEF: 3)
    3e9c:	00002406 	andeq	r2, r0, r6, lsl #8
    3ea0:	05020300 	streq	r0, [r2, #-768]	; 0xfffffd00
    3ea4:	000000a4 	andeq	r0, r0, r4, lsr #1
    3ea8:	8f050403 	svchi	0x00050403
    3eac:	03000000 	movweq	r0, #0
    3eb0:	008a0508 	addeq	r0, sl, r8, lsl #10
    3eb4:	01030000 	mrseq	r0, (UNDEF: 3)
    3eb8:	00002208 	andeq	r2, r0, r8, lsl #4
    3ebc:	07020300 	streq	r0, [r2, -r0, lsl #6]
    3ec0:	00000039 	andeq	r0, r0, r9, lsr r0
    3ec4:	78070403 	stmdavc	r7, {r0, r1, sl}
    3ec8:	03000000 	movweq	r0, #0
    3ecc:	00730708 	rsbseq	r0, r3, r8, lsl #14
    3ed0:	25040000 	strcs	r0, [r4, #-0]
    3ed4:	7a000000 	bvc	3edc <__code_start__-0x4124>
    3ed8:	05000000 	streq	r0, [r0, #-0]
    3edc:	00000025 	andeq	r0, r0, r5, lsr #32
    3ee0:	00980600 	addseq	r0, r8, r0, lsl #12
    3ee4:	1c020000 	stcne	0, cr0, [r2], {-0}
    3ee8:	0000860e 	andeq	r8, r0, lr, lsl #12
    3eec:	6b040700 	blvs	105af4 <__bss_end__+0xfb89c>
    3ef0:	04000000 	streq	r0, [r0], #-0
    3ef4:	00000025 	andeq	r0, r0, r5, lsr #32
    3ef8:	0000009b 	muleq	r0, fp, r0
    3efc:	00009b05 	andeq	r9, r0, r5, lsl #22
    3f00:	04070000 	streq	r0, [r7], #-0
    3f04:	000000a8 	andeq	r0, r0, r8, lsr #1
    3f08:	2b080103 	blcs	20431c <__bss_end__+0x1fa0c4>
    3f0c:	08000000 	stmdaeq	r0, {}	; <UNPREDICTABLE>
    3f10:	000000a1 	andeq	r0, r0, r1, lsr #1
    3f14:	00076306 	andeq	r6, r7, r6, lsl #6
    3f18:	0e210200 	cdpeq	2, 2, cr0, cr1, cr0, {0}
    3f1c:	000000b9 	strheq	r0, [r0], -r9
    3f20:	008c0407 	addeq	r0, ip, r7, lsl #8
    3f24:	97090000 	strls	r0, [r9, -r0]
    3f28:	01000009 	tsteq	r0, r9
    3f2c:	9750061e 	smmlals	r0, lr, r6, r0
    3f30:	00540000 	subseq	r0, r4, r0
    3f34:	9c010000 	stcls	0, cr0, [r1], {-0}
    3f38:	0000020b 	andeq	r0, r0, fp, lsl #4
    3f3c:	6365730a 	cmnvs	r5, #671088640	; 0x28000000
    3f40:	191e0100 	ldmdbne	lr, {r8}
    3f44:	0000002c 	andeq	r0, r0, ip, lsr #32
    3f48:	000025bc 			; <UNDEFINED> instruction: 0x000025bc
    3f4c:	000025b8 			; <UNDEFINED> instruction: 0x000025b8
    3f50:	00020b0b 	andeq	r0, r2, fp, lsl #22
    3f54:	00975000 	addseq	r5, r7, r0
    3f58:	04180200 	ldreq	r0, [r8], #-512	; 0xfffffe00
    3f5c:	1f010000 	svcne	0x00010000
    3f60:	02180c05 	andseq	r0, r8, #1280	; 0x500
    3f64:	25e10000 	strbcs	r0, [r1, #0]!
    3f68:	25dd0000 	ldrbcs	r0, [sp]
    3f6c:	240d0000 	strcs	r0, [sp], #-0
    3f70:	64000002 	strvs	r0, [r0], #-2
    3f74:	00000097 	muleq	r0, r7, r0
    3f78:	00009764 	andeq	r9, r0, r4, ror #14
    3f7c:	00000040 	andeq	r0, r0, r0, asr #32
    3f80:	0c051c01 	stceq	12, cr1, [r5], {1}
    3f84:	00000231 	andeq	r0, r0, r1, lsr r2
    3f88:	0000260e 	andeq	r2, r0, lr, lsl #12
    3f8c:	0000260c 	andeq	r2, r0, ip, lsl #12
    3f90:	00023c0e 	andeq	r3, r2, lr, lsl #24
    3f94:	00262300 	eoreq	r2, r6, r0, lsl #6
    3f98:	00262100 	eoreq	r2, r6, r0, lsl #2
    3f9c:	02550f00 	subseq	r0, r5, #0, 30
    3fa0:	97640000 	strbls	r0, [r4, -r0]!
    3fa4:	64020000 	strvs	r0, [r2], #-0
    3fa8:	14000097 	strne	r0, [r0], #-151	; 0xffffff69
    3fac:	01000000 	mrseq	r0, (UNDEF: 0)
    3fb0:	019c1313 	orrseq	r1, ip, r3, lsl r3
    3fb4:	660e0000 	strvs	r0, [lr], -r0
    3fb8:	3a000002 	bcc	3fc8 <__code_start__-0x4038>
    3fbc:	36000026 	strcc	r0, [r0], -r6, lsr #32
    3fc0:	0f000026 	svceq	0x00000026
    3fc4:	00000271 	andeq	r0, r0, r1, ror r2
    3fc8:	00009768 	andeq	r9, r0, r8, ror #14
    3fcc:	00976801 	addseq	r6, r7, r1, lsl #16
    3fd0:	00000c00 	andeq	r0, r0, r0, lsl #24
    3fd4:	120d0100 	andne	r0, sp, #0
    3fd8:	00000189 	andeq	r0, r0, r9, lsl #3
    3fdc:	00977010 	addseq	r7, r7, r0, lsl r0
    3fe0:	00052a00 	andeq	r2, r5, r0, lsl #20
    3fe4:	50011100 	andpl	r1, r1, r0, lsl #2
    3fe8:	30040c05 	andcc	r0, r4, r5, lsl #24
    3fec:	00002000 	andeq	r2, r0, r0
    3ff0:	00976812 	addseq	r6, r7, r2, lsl r8
    3ff4:	00053600 	andeq	r3, r5, r0, lsl #12
    3ff8:	97781200 	ldrbls	r1, [r8, -r0, lsl #4]!
    3ffc:	05360000 	ldreq	r0, [r6, #-0]!
    4000:	13000000 	movwne	r0, #0
    4004:	00000247 	andeq	r0, r0, r7, asr #4
    4008:	00000430 	andeq	r0, r0, r0, lsr r4
    400c:	00024814 	andeq	r4, r2, r4, lsl r8
    4010:	02550b00 	subseq	r0, r5, #0, 22
    4014:	977c0000 	ldrbls	r0, [ip, -r0]!
    4018:	48020000 	stmdami	r2, {}	; <UNPREDICTABLE>
    401c:	01000004 	tsteq	r0, r4
    4020:	48151715 	ldmdami	r5, {r0, r2, r4, r8, r9, sl, ip}
    4024:	0e000004 	cdpeq	0, 0, cr0, cr0, cr4, {0}
    4028:	00000266 	andeq	r0, r0, r6, ror #4
    402c:	0000265a 	andeq	r2, r0, sl, asr r6
    4030:	00002658 	andeq	r2, r0, r8, asr r6
    4034:	00027116 	andeq	r7, r2, r6, lsl r1
    4038:	00978000 	addseq	r8, r7, r0
    403c:	04680100 	strbteq	r0, [r8], #-256	; 0xffffff00
    4040:	0d010000 	stceq	0, cr0, [r1, #-0]
    4044:	0001f312 	andeq	pc, r1, r2, lsl r3	; <UNPREDICTABLE>
    4048:	97881000 	strls	r1, [r8, r0]
    404c:	052a0000 	streq	r0, [sl, #-0]!
    4050:	01110000 	tsteq	r1, r0
    4054:	00770250 	rsbseq	r0, r7, r0, asr r2
    4058:	80120000 	andshi	r0, r2, r0
    405c:	36000097 			; <UNDEFINED> instruction: 0x36000097
    4060:	12000005 	andne	r0, r0, #5, 0
    4064:	00009794 	muleq	r0, r4, r7
    4068:	00000536 	andeq	r0, r0, r6, lsr r5
    406c:	00000000 	andeq	r0, r0, r0
    4070:	30170000 	andscc	r0, r7, r0
    4074:	01000000 	mrseq	r0, (UNDEF: 0)
    4078:	2401061b 	strcs	r0, [r1], #-1563	; 0xfffff9e5
    407c:	18000002 	stmdane	r0, {r1}
    4080:	0100736d 	tsteq	r0, sp, ror #6
    4084:	002c181b 	eoreq	r1, ip, fp, lsl r8
    4088:	17000000 	strne	r0, [r0, -r0]
    408c:	00000215 	andeq	r0, r0, r5, lsl r2
    4090:	01061201 	tsteq	r6, r1, lsl #4
    4094:	00000255 	andeq	r0, r0, r5, asr r2
    4098:	00737518 	rsbseq	r7, r3, r8, lsl r5
    409c:	2c181201 	lfmcs	f1, 4, [r8], {1}
    40a0:	19000000 	stmdbne	r0, {}	; <UNPREDICTABLE>
    40a4:	01006272 	tsteq	r0, r2, ror r2
    40a8:	002c0e13 	eoreq	r0, ip, r3, lsl lr
    40ac:	191a0000 	ldmdbne	sl, {}	; <UNPREDICTABLE>
    40b0:	01006172 	tsteq	r0, r2, ror r1
    40b4:	002c1215 	eoreq	r1, ip, r5, lsl r2
    40b8:	00000000 	andeq	r0, r0, r0
    40bc:	0009b51b 	andeq	fp, r9, fp, lsl r5
    40c0:	0a090100 	beq	2444c8 <__bss_end__+0x23a270>
    40c4:	0000002c 	andeq	r0, r0, ip, lsr #32
    40c8:	00027101 	andeq	r7, r2, r1, lsl #2
    40cc:	00751900 	rsbseq	r1, r5, r0, lsl #18
    40d0:	2c0e0d01 	stccs	13, cr0, [lr], {1}
    40d4:	00000000 	andeq	r0, r0, r0
    40d8:	0009c41c 	andeq	ip, r9, ip, lsl r4
    40dc:	0a040100 	beq	1044e4 <__bss_end__+0xfa28c>
    40e0:	0000002c 	andeq	r0, r0, ip, lsr #32
    40e4:	02711d01 	rsbseq	r1, r1, #64	; 0x40
    40e8:	96880000 	strls	r0, [r8], r0
    40ec:	000c0000 	andeq	r0, ip, r0
    40f0:	9c010000 	stcls	0, cr0, [r1], {-0}
    40f4:	000002a5 	andeq	r0, r0, r5, lsr #5
    40f8:	0096901e 	addseq	r9, r6, lr, lsl r0
    40fc:	00052a00 	andeq	r2, r5, r0, lsl #20
    4100:	50011100 	andpl	r1, r1, r0, lsl #2
    4104:	30040c05 	andcc	r0, r4, r5, lsl #24
    4108:	00002000 	andeq	r2, r0, r0
    410c:	0002551d 	andeq	r5, r2, sp, lsl r5
    4110:	00969400 	addseq	r9, r6, r0, lsl #8
    4114:	00002400 	andeq	r2, r0, r0, lsl #8
    4118:	059c0100 	ldreq	r0, [ip, #256]	; 0x100
    411c:	0e000003 	cdpeq	0, 0, cr0, cr0, cr3, {0}
    4120:	00000266 	andeq	r0, r0, r6, ror #4
    4124:	00002671 	andeq	r2, r0, r1, ror r6
    4128:	0000266d 	andeq	r2, r0, sp, ror #12
    412c:	0002710f 	andeq	r7, r2, pc, lsl #2
    4130:	00969c00 	addseq	r9, r6, r0, lsl #24
    4134:	969c0100 	ldrls	r0, [ip], r0, lsl #2
    4138:	000c0000 	andeq	r0, ip, r0
    413c:	0d010000 	stceq	0, cr0, [r1, #-0]
    4140:	0002f212 	andeq	pc, r2, r2, lsl r2	; <UNPREDICTABLE>
    4144:	96a41000 	strtls	r1, [r4], r0
    4148:	052a0000 	streq	r0, [sl, #-0]!
    414c:	01110000 	tsteq	r1, r0
    4150:	040c0550 	streq	r0, [ip], #-1360	; 0xfffffab0
    4154:	00200030 	eoreq	r0, r0, r0, lsr r0
    4158:	969c1200 	ldrls	r1, [ip], r0, lsl #4
    415c:	05360000 	ldreq	r0, [r6, #-0]!
    4160:	ac120000 	ldcge	0, cr0, [r2], {-0}
    4164:	36000096 			; <UNDEFINED> instruction: 0x36000096
    4168:	00000005 	andeq	r0, r0, r5
    416c:	0002241d 	andeq	r2, r2, sp, lsl r4
    4170:	0096b800 	addseq	fp, r6, r0, lsl #16
    4174:	00004800 	andeq	r4, r0, r0, lsl #16
    4178:	079c0100 	ldreq	r0, [ip, r0, lsl #2]
    417c:	0c000004 	stceq	0, cr0, [r0], {4}
    4180:	00000231 	andeq	r0, r0, r1, lsr r2
    4184:	00002693 	muleq	r0, r3, r6
    4188:	0000268f 	andeq	r2, r0, pc, lsl #13
    418c:	00023c0e 	andeq	r3, r2, lr, lsl #24
    4190:	0026b300 	eoreq	fp, r6, r0, lsl #6
    4194:	0026b100 	eoreq	fp, r6, r0, lsl #2
    4198:	02551600 	subseq	r1, r5, #0, 12
    419c:	96b80000 	ldrtls	r0, [r8], r0
    41a0:	60020000 	andvs	r0, r2, r0
    41a4:	01000003 	tsteq	r0, r3
    41a8:	039a1313 	orrseq	r1, sl, #1275068416	; 0x4c000000
    41ac:	60150000 	andsvs	r0, r5, r0
    41b0:	0e000003 	cdpeq	0, 0, cr0, cr0, cr3, {0}
    41b4:	00000266 	andeq	r0, r0, r6, ror #4
    41b8:	000026ca 	andeq	r2, r0, sl, asr #13
    41bc:	000026c6 	andeq	r2, r0, r6, asr #13
    41c0:	0002710f 	andeq	r7, r2, pc, lsl #2
    41c4:	0096c400 	addseq	ip, r6, r0, lsl #8
    41c8:	96c40100 	strbls	r0, [r4], r0, lsl #2
    41cc:	000c0000 	andeq	r0, ip, r0
    41d0:	0d010000 	stceq	0, cr0, [r1, #-0]
    41d4:	00038612 	andeq	r8, r3, r2, lsl r6
    41d8:	96cc1000 	strbls	r1, [ip], r0
    41dc:	052a0000 	streq	r0, [sl, #-0]!
    41e0:	01110000 	tsteq	r1, r0
    41e4:	040c0550 	streq	r0, [ip], #-1360	; 0xfffffab0
    41e8:	00200030 	eoreq	r0, r0, r0, lsr r0
    41ec:	96c41200 	strbls	r1, [r4], r0, lsl #4
    41f0:	05360000 	ldreq	r0, [r6, #-0]!
    41f4:	d4120000 	ldrle	r0, [r2], #-0
    41f8:	36000096 			; <UNDEFINED> instruction: 0x36000096
    41fc:	00000005 	andeq	r0, r0, r5
    4200:	02471300 	subeq	r1, r7, #0, 6
    4204:	03780000 	cmneq	r8, #0, 0
    4208:	48140000 	ldmdami	r4, {}	; <UNPREDICTABLE>
    420c:	0b000002 	bleq	421c <__code_start__-0x3de4>
    4210:	00000255 	andeq	r0, r0, r5, asr r2
    4214:	000096d8 	ldrdeq	r9, [r0], -r8
    4218:	00039002 	andeq	r9, r3, r2
    421c:	17150100 	ldrne	r0, [r5, -r0, lsl #2]
    4220:	00039015 	andeq	r9, r3, r5, lsl r0
    4224:	02660e00 	rsbeq	r0, r6, #0, 28
    4228:	26ea0000 	strbtcs	r0, [sl], r0
    422c:	26e80000 	strbtcs	r0, [r8], r0
    4230:	71160000 	tstvc	r6, r0
    4234:	dc000002 	stcle	0, cr0, [r0], {2}
    4238:	01000096 	swpeq	r0, r6, [r0]	; <UNPREDICTABLE>
    423c:	000003b0 			; <UNDEFINED> instruction: 0x000003b0
    4240:	f1120d01 			; <UNDEFINED> instruction: 0xf1120d01
    4244:	10000003 	andne	r0, r0, r3
    4248:	000096e4 	andeq	r9, r0, r4, ror #13
    424c:	0000052a 	andeq	r0, r0, sl, lsr #10
    4250:	02500111 	subseq	r0, r0, #1073741828	; 0x40000004
    4254:	00000077 	andeq	r0, r0, r7, ror r0
    4258:	0096dc12 	addseq	sp, r6, r2, lsl ip
    425c:	00053600 	andeq	r3, r5, r0, lsl #12
    4260:	96f01200 	ldrbtls	r1, [r0], r0, lsl #4
    4264:	05360000 	ldreq	r0, [r6, #-0]!
    4268:	00000000 	andeq	r0, r0, r0
    426c:	0b1d0000 	bleq	744274 <__bss_end__+0x73a01c>
    4270:	00000002 	andeq	r0, r0, r2
    4274:	50000097 	mulpl	r0, r7, r0
    4278:	01000000 	mrseq	r0, (UNDEF: 0)
    427c:	00052a9c 	muleq	r5, ip, sl
    4280:	02180c00 	andseq	r0, r8, #0, 24
    4284:	27010000 	strcs	r0, [r1, -r0]
    4288:	26fd0000 	ldrbtcs	r0, [sp], r0
    428c:	240d0000 	strcs	r0, [sp], #-0
    4290:	10000002 	andne	r0, r0, r2
    4294:	00000097 	muleq	r0, r7, r0
    4298:	00009710 	andeq	r9, r0, r0, lsl r7
    429c:	00000040 	andeq	r0, r0, r0, asr #32
    42a0:	0c051c01 	stceq	12, cr1, [r5], {1}
    42a4:	00000231 	andeq	r0, r0, r1, lsr r2
    42a8:	00002724 	andeq	r2, r0, r4, lsr #14
    42ac:	00002722 	andeq	r2, r0, r2, lsr #14
    42b0:	00023c0e 	andeq	r3, r2, lr, lsl #24
    42b4:	00273900 	eoreq	r3, r7, r0, lsl #18
    42b8:	00273700 	eoreq	r3, r7, r0, lsl #14
    42bc:	02550f00 	subseq	r0, r5, #0, 30
    42c0:	97100000 	ldrls	r0, [r0, -r0]
    42c4:	10020000 	andne	r0, r2, r0
    42c8:	14000097 	strne	r0, [r0], #-151	; 0xffffff69
    42cc:	01000000 	mrseq	r0, (UNDEF: 0)
    42d0:	04bc1313 	ldrteq	r1, [ip], #787	; 0x313
    42d4:	660e0000 	strvs	r0, [lr], -r0
    42d8:	50000002 	andpl	r0, r0, r2
    42dc:	4c000027 	stcmi	0, cr0, [r0], {39}	; 0x27
    42e0:	0f000027 	svceq	0x00000027
    42e4:	00000271 	andeq	r0, r0, r1, ror r2
    42e8:	00009714 	andeq	r9, r0, r4, lsl r7
    42ec:	00971401 	addseq	r1, r7, r1, lsl #8
    42f0:	00000c00 	andeq	r0, r0, r0, lsl #24
    42f4:	120d0100 	andne	r0, sp, #0
    42f8:	000004a9 	andeq	r0, r0, r9, lsr #9
    42fc:	00971c10 	addseq	r1, r7, r0, lsl ip
    4300:	00052a00 	andeq	r2, r5, r0, lsl #20
    4304:	50011100 	andpl	r1, r1, r0, lsl #2
    4308:	30040c05 	andcc	r0, r4, r5, lsl #24
    430c:	00002000 	andeq	r2, r0, r0
    4310:	00971412 	addseq	r1, r7, r2, lsl r4
    4314:	00053600 	andeq	r3, r5, r0, lsl #12
    4318:	97241200 	strls	r1, [r4, -r0, lsl #4]!
    431c:	05360000 	ldreq	r0, [r6, #-0]!
    4320:	13000000 	movwne	r0, #0
    4324:	00000247 	andeq	r0, r0, r7, asr #4
    4328:	000003c8 	andeq	r0, r0, r8, asr #7
    432c:	00024814 	andeq	r4, r2, r4, lsl r8
    4330:	02550b00 	subseq	r0, r5, #0, 22
    4334:	97280000 	strls	r0, [r8, -r0]!
    4338:	e0020000 	and	r0, r2, r0
    433c:	01000003 	tsteq	r0, r3
    4340:	e0151715 	ands	r1, r5, r5, lsl r7
    4344:	0e000003 	cdpeq	0, 0, cr0, cr0, cr3, {0}
    4348:	00000266 	andeq	r0, r0, r6, ror #4
    434c:	00002770 	andeq	r2, r0, r0, ror r7
    4350:	0000276e 	andeq	r2, r0, lr, ror #14
    4354:	00027116 	andeq	r7, r2, r6, lsl r1
    4358:	00972c00 	addseq	r2, r7, r0, lsl #24
    435c:	04000100 	streq	r0, [r0], #-256	; 0xffffff00
    4360:	0d010000 	stceq	0, cr0, [r1, #-0]
    4364:	00051312 	andeq	r1, r5, r2, lsl r3
    4368:	97341000 	ldrls	r1, [r4, -r0]!
    436c:	052a0000 	streq	r0, [sl, #-0]!
    4370:	01110000 	tsteq	r1, r0
    4374:	00770250 	rsbseq	r0, r7, r0, asr r2
    4378:	2c120000 	ldccs	0, cr0, [r2], {-0}
    437c:	36000097 			; <UNDEFINED> instruction: 0x36000097
    4380:	12000005 	andne	r0, r0, #5, 0
    4384:	00009740 	andeq	r9, r0, r0, asr #14
    4388:	00000536 	andeq	r0, r0, r6, lsr r5
    438c:	00000000 	andeq	r0, r0, r0
    4390:	05871f00 	streq	r1, [r7, #3840]	; 0xf00
    4394:	05870000 	streq	r0, [r7]
    4398:	c7020000 	strgt	r0, [r2, -r0]
    439c:	04841f0a 	streq	r1, [r4], #3850	; 0xf0a
    43a0:	04840000 	streq	r0, [r4], #0
    43a4:	a1020000 	mrsge	r0, (UNDEF: 2)
    43a8:	05cd0006 	strbeq	r0, [sp, #6]
    43ac:	00040000 	andeq	r0, r4, r0
    43b0:	00001442 	andeq	r1, r0, r2, asr #8
    43b4:	03ce0104 	biceq	r0, lr, #1
    43b8:	ff0c0000 			; <UNDEFINED> instruction: 0xff0c0000
    43bc:	25000009 	strcs	r0, [r0, #-9]
    43c0:	a400000a 	strge	r0, [r0], #-10
    43c4:	f0000097 			; <UNDEFINED> instruction: 0xf0000097
    43c8:	5f000001 	svcpl	0x00000001
    43cc:	0200001d 	andeq	r0, r0, #29, 0
    43d0:	6e690504 	cdpvs	5, 6, cr0, cr9, cr4, {0}
    43d4:	04030074 	streq	r0, [r3], #-116	; 0xffffff8c
    43d8:	00007d07 	andeq	r7, r0, r7, lsl #26
    43dc:	002c0400 	eoreq	r0, ip, r0, lsl #8
    43e0:	01030000 	mrseq	r0, (UNDEF: 3)
    43e4:	00002406 	andeq	r2, r0, r6, lsl #8
    43e8:	05020300 	streq	r0, [r2, #-768]	; 0xfffffd00
    43ec:	000000a4 	andeq	r0, r0, r4, lsr #1
    43f0:	8f050403 	svchi	0x00050403
    43f4:	03000000 	movweq	r0, #0
    43f8:	008a0508 	addeq	r0, sl, r8, lsl #10
    43fc:	01030000 	mrseq	r0, (UNDEF: 3)
    4400:	00002208 	andeq	r2, r0, r8, lsl #4
    4404:	07020300 	streq	r0, [r2, -r0, lsl #6]
    4408:	00000039 	andeq	r0, r0, r9, lsr r0
    440c:	00025c05 	andeq	r5, r2, r5, lsl #24
    4410:	19340500 	ldmdbne	r4!, {r8, sl}
    4414:	0000006e 	andeq	r0, r0, lr, rrx
    4418:	78070403 	stmdavc	r7, {r0, r1, sl}
    441c:	03000000 	movweq	r0, #0
    4420:	00730708 	rsbseq	r0, r3, r8, lsl #14
    4424:	01030000 	mrseq	r0, (UNDEF: 3)
    4428:	00002b08 	andeq	r2, r0, r8, lsl #22
    442c:	01070600 	tsteq	r7, r0, lsl #12
    4430:	00000054 	andeq	r0, r0, r4, asr r0
    4434:	c20e0c04 	andgt	r0, lr, #4, 24	; 0x400
    4438:	07000000 	streq	r0, [r0, -r0]
    443c:	000003b9 			; <UNDEFINED> instruction: 0x000003b9
    4440:	030a0700 	movweq	r0, #42752	; 0xa700
    4444:	07010000 	streq	r0, [r1, -r0]
    4448:	00000323 	andeq	r0, r0, r3, lsr #6
    444c:	03320704 	teqeq	r2, #4, 14	; 0x100000
    4450:	07050000 	streq	r0, [r5, -r0]
    4454:	00000341 	andeq	r0, r0, r1, asr #6
    4458:	03500706 	cmpeq	r0, #1572864	; 0x180000
    445c:	07070000 	streq	r0, [r7, -r0]
    4460:	0000035f 	andeq	r0, r0, pc, asr r3
    4464:	036e0703 	cmneq	lr, #786432	; 0xc0000
    4468:	00020000 	andeq	r0, r2, r0
    446c:	0009f308 	andeq	pc, r9, r8, lsl #6
    4470:	06022c00 	streq	r2, [r2], -r0, lsl #24
    4474:	00015e08 	andeq	r5, r1, r8, lsl #28
    4478:	6f690900 	svcvs	0x00690900
    447c:	09090200 	stmdbeq	r9, {r9}
    4480:	00000033 	andeq	r0, r0, r3, lsr r0
    4484:	65690900 	strbvs	r0, [r9, #-2304]!	; 0xfffff700
    4488:	0a020072 	beq	84658 <__bss_end__+0x7a400>
    448c:	00003309 	andeq	r3, r0, r9, lsl #6
    4490:	69090400 	stmdbvs	r9, {sl}
    4494:	02007269 	andeq	r7, r0, #-1879048186	; 0x90000006
    4498:	00330911 	eorseq	r0, r3, r1, lsl r9
    449c:	09080000 	stmdbeq	r8, {}	; <UNPREDICTABLE>
    44a0:	0072636c 	rsbseq	r6, r2, ip, ror #6
    44a4:	33091302 	movwcc	r1, #37634	; 0x9302
    44a8:	0c000000 	stceq	0, cr0, [r0], {-0}
    44ac:	72636d09 	rsbvc	r6, r3, #576	; 0x240
    44b0:	09140200 	ldmdbeq	r4, {r9}
    44b4:	00000033 	andeq	r0, r0, r3, lsr r0
    44b8:	736c0910 	cmnvc	ip, #16, 18	; 0x40000
    44bc:	15020072 	strne	r0, [r2, #-114]	; 0xffffff8e
    44c0:	00003309 	andeq	r3, r0, r9, lsl #6
    44c4:	6d091400 	cfstrsvs	mvf1, [r9, #-0]
    44c8:	02007273 	andeq	r7, r0, #805306375	; 0x30000007
    44cc:	00330916 	eorseq	r0, r3, r6, lsl r9
    44d0:	0a180000 	beq	6044d8 <__bss_end__+0x5fa280>
    44d4:	00000a9d 	muleq	r0, sp, sl
    44d8:	33091702 	movwcc	r1, #38658	; 0x9702
    44dc:	1c000000 	stcne	0, cr0, [r0], {-0}
    44e0:	000a750a 	andeq	r7, sl, sl, lsl #10
    44e4:	091b0200 	ldmdbeq	fp, {r9}
    44e8:	00000033 	andeq	r0, r0, r3, lsr r0
    44ec:	09e00a20 	stmibeq	r0!, {r5, r9, fp}^
    44f0:	1d020000 	stcne	0, cr0, [r2, #-0]
    44f4:	00003309 	andeq	r3, r0, r9, lsl #6
    44f8:	5a0a2400 	bpl	28d500 <__bss_end__+0x2832a8>
    44fc:	0200000a 	andeq	r0, r0, #10, 0
    4500:	0033091e 	eorseq	r0, r3, lr, lsl r9
    4504:	00280000 	eoreq	r0, r8, r0
    4508:	000a5f0b 	andeq	r5, sl, fp, lsl #30
    450c:	09080100 	stmdbeq	r8, {r8}
    4510:	00000174 	andeq	r0, r0, r4, ror r1
    4514:	20215004 	eorcs	r5, r1, r4
    4518:	0033040c 	eorseq	r0, r3, ip, lsl #8
    451c:	6e0d0000 	cdpvs	0, 0, cr0, cr13, cr0, {0}
    4520:	0b000001 	bleq	452c <__code_start__-0x3ad4>
    4524:	00000aa5 	andeq	r0, r0, r5, lsr #21
    4528:	8f232901 	svchi	0x00232901
    452c:	40000001 	andmi	r0, r0, r1
    4530:	0c202150 	stfeqs	f2, [r0], #-320	; 0xfffffec0
    4534:	0000c204 	andeq	ip, r0, r4, lsl #4
    4538:	01890d00 	orreq	r0, r9, r0, lsl #26
    453c:	a00e0000 	andge	r0, lr, r0
    4540:	01000008 	tsteq	r0, r8
    4544:	995c06cc 	ldmdbls	ip, {r2, r3, r6, r7, r9, sl}^
    4548:	00140000 	andseq	r0, r4, r0
    454c:	9c010000 	stcls	0, cr0, [r1], {-0}
    4550:	000001b4 			; <UNDEFINED> instruction: 0x000001b4
    4554:	0099640f 	addseq	r6, r9, pc, lsl #8
    4558:	0001b400 	andeq	fp, r1, r0, lsl #8
    455c:	14100000 	ldrne	r0, [r0], #-0
    4560:	0100000a 	tsteq	r0, sl
    4564:	002505b6 	strhteq	r0, [r5], -r6
    4568:	993c0000 	ldmdbls	ip!, {}	; <UNPREDICTABLE>
    456c:	00200000 	eoreq	r0, r0, r0
    4570:	9c010000 	stcls	0, cr0, [r1], {-0}
    4574:	000001eb 	andeq	r0, r0, fp, ror #3
    4578:	0099440f 	addseq	r4, r9, pc, lsl #8
    457c:	0005a000 	andeq	sl, r5, r0
    4580:	994c1100 	stmdbls	ip, {r8, ip}^
    4584:	05ac0000 	streq	r0, [ip, #0]!
    4588:	01120000 	tsteq	r2, r0
    458c:	640c0550 	strvs	r0, [ip], #-1360	; 0xfffffab0
    4590:	00202150 	eoreq	r2, r0, r0, asr r1
    4594:	0a871000 	beq	fe1c859c <__bss_end__+0xfe1be344>
    4598:	b3010000 	movwlt	r0, #4096	; 0x1000
    459c:	00002505 	andeq	r2, r0, r5, lsl #10
    45a0:	00992c00 	addseq	r2, r9, r0, lsl #24
    45a4:	00001000 	andeq	r1, r0, r0
    45a8:	189c0100 	ldmne	ip, {r8}
    45ac:	0f000002 	svceq	0x00000002
    45b0:	00009934 	andeq	r9, r0, r4, lsr r9
    45b4:	000005a0 	andeq	r0, r0, r0, lsr #11
    45b8:	0099380f 	addseq	r3, r9, pc, lsl #16
    45bc:	00030900 	andeq	r0, r3, r0, lsl #18
    45c0:	500e0000 	andpl	r0, lr, r0
    45c4:	01000007 	tsteq	r0, r7
    45c8:	98fc06ab 	ldmls	ip!, {r0, r1, r3, r5, r7, r9, sl}^
    45cc:	00300000 	eorseq	r0, r0, r0
    45d0:	9c010000 	stcls	0, cr0, [r1], {-0}
    45d4:	0000027c 	andeq	r0, r0, ip, ror r2
    45d8:	01006313 	tsteq	r0, r3, lsl r3
    45dc:	002c19ab 	eoreq	r1, ip, fp, lsr #19
    45e0:	27870000 	strcs	r0, [r7, r0]
    45e4:	27830000 	strcs	r0, [r3, r0]
    45e8:	080f0000 	stmdaeq	pc, {}	; <UNPREDICTABLE>
    45ec:	a0000099 	mulge	r0, r9, r0
    45f0:	0f000005 	svceq	0x00000005
    45f4:	0000990c 	andeq	r9, r0, ip, lsl #18
    45f8:	000002db 	ldrdeq	r0, [r0], -fp
    45fc:	00992014 	addseq	r2, r9, r4, lsl r0
    4600:	0005b800 	andeq	fp, r5, r0, lsl #16
    4604:	00027200 	andeq	r7, r2, r0, lsl #4
    4608:	50011200 	andpl	r1, r1, r0, lsl #4
    460c:	50400c05 	subpl	r0, r0, r5, lsl #24
    4610:	01122021 	tsteq	r2, r1, lsr #32
    4614:	00740551 	rsbseq	r0, r4, r1, asr r5
    4618:	001aff08 	andseq	pc, sl, r8, lsl #30
    461c:	0099240f 	addseq	r2, r9, pc, lsl #8
    4620:	0005a000 	andeq	sl, r5, r0
    4624:	6b100000 	blvs	40462c <__bss_end__+0x3fa3d4>
    4628:	0100000a 	tsteq	r0, sl
    462c:	002505a3 	eoreq	r0, r5, r3, lsr #11
    4630:	98cc0000 	stmials	ip, {}^	; <UNPREDICTABLE>
    4634:	00300000 	eorseq	r0, r0, r0
    4638:	9c010000 	stcls	0, cr0, [r1], {-0}
    463c:	000002db 	ldrdeq	r0, [r0], -fp
    4640:	01006315 	tsteq	r0, r5, lsl r3
    4644:	002509a7 	eoreq	r0, r5, r7, lsr #19
    4648:	27a70000 	strcs	r0, [r7, r0]!
    464c:	27a50000 	strcs	r0, [r5, r0]!
    4650:	d40f0000 	strle	r0, [pc], #-0	; 4658 <__code_start__-0x39a8>
    4654:	a0000098 	mulge	r0, r8, r0
    4658:	0f000005 	svceq	0x00000005
    465c:	000098d8 	ldrdeq	r9, [r0], -r8
    4660:	00000309 	andeq	r0, r0, r9, lsl #6
    4664:	0098e814 	addseq	lr, r8, r4, lsl r8
    4668:	0005ac00 	andeq	sl, r5, r0, lsl #24
    466c:	0002d100 	andeq	sp, r2, r0, lsl #2
    4670:	50011200 	andpl	r1, r1, r0, lsl #4
    4674:	50400c05 	subpl	r0, r0, r5, lsl #24
    4678:	0f002021 	svceq	0x00002021
    467c:	000098f0 	strdeq	r9, [r0], -r0
    4680:	000005a0 	andeq	r0, r0, r0, lsr #11
    4684:	0a061000 	beq	18868c <__bss_end__+0x17e434>
    4688:	94010000 	strls	r0, [r1], #-0
    468c:	00002505 	andeq	r2, r0, r5, lsl #10
    4690:	0098ac00 	addseq	sl, r8, r0, lsl #24
    4694:	00002000 	andeq	r2, r0, r0
    4698:	099c0100 	ldmibeq	ip, {r8}
    469c:	11000003 	tstne	r0, r3
    46a0:	000098b8 			; <UNDEFINED> instruction: 0x000098b8
    46a4:	000005ac 	andeq	r0, r0, ip, lsr #11
    46a8:	05500112 	ldrbeq	r0, [r0, #-274]	; 0xfffffeee
    46ac:	2150640c 	cmpcs	r0, ip, lsl #8
    46b0:	10000020 	andne	r0, r0, r0, lsr #32
    46b4:	000009e5 	andeq	r0, r0, r5, ror #19
    46b8:	25058b01 	strcs	r8, [r5, #-2817]	; 0xfffff4ff
    46bc:	94000000 	strls	r0, [r0], #-0
    46c0:	18000098 	stmdane	r0, {r3, r4, r7}
    46c4:	01000000 	mrseq	r0, (UNDEF: 0)
    46c8:	0003379c 	muleq	r3, ip, r7
    46cc:	98a01100 	stmials	r0!, {r8, ip}
    46d0:	05ac0000 	streq	r0, [ip, #0]!
    46d4:	01120000 	tsteq	r2, r0
    46d8:	640c0550 	strvs	r0, [ip], #-1360	; 0xfffffab0
    46dc:	00202150 	eoreq	r2, r0, r0, asr r1
    46e0:	08be0e00 	ldmeq	lr!, {r9, sl, fp}
    46e4:	45010000 	strmi	r0, [r1, #-0]
    46e8:	0097e406 	addseq	lr, r7, r6, lsl #8
    46ec:	0000b000 	andeq	fp, r0, r0
    46f0:	849c0100 	ldrhi	r0, [ip], #256	; 0x100
    46f4:	16000004 	strne	r0, [r0], -r4
    46f8:	000009d7 	ldrdeq	r0, [r0], -r7
    46fc:	620e7e01 	andvs	r7, lr, #1, 28
    4700:	0e000000 	cdpeq	0, 0, cr0, cr0, cr0, {0}
    4704:	97f41401 	ldrbls	r1, [r4, r1, lsl #8]!
    4708:	05c40000 	strbeq	r0, [r4]
    470c:	03730000 	cmneq	r3, #0, 0
    4710:	01120000 	tsteq	r2, r0
    4714:	123e0150 	eorsne	r0, lr, #20
    4718:	32015101 	andcc	r5, r1, #1073741824	; 0x40000000
    471c:	98001400 	stmdals	r0, {sl, ip}
    4720:	05c40000 	strbeq	r0, [r4]
    4724:	038b0000 	orreq	r0, fp, #0, 0
    4728:	01120000 	tsteq	r2, r0
    472c:	123f0150 	eorsne	r0, pc, #20
    4730:	32015101 	andcc	r5, r1, #1073741824	; 0x40000000
    4734:	98040f00 	stmdals	r4, {r8, r9, sl, fp}
    4738:	05a00000 	streq	r0, [r0, #0]!
    473c:	10140000 	andsne	r0, r4, r0
    4740:	3d000098 	stccc	0, cr0, [r0, #-608]	; 0xfffffda0
    4744:	b0000005 	andlt	r0, r0, r5
    4748:	12000003 	andne	r0, r0, #3, 0
    474c:	0c055001 	stceq	0, cr5, [r5], {1}
    4750:	20215004 	eorcs	r5, r1, r4
    4754:	01510112 	cmpeq	r1, r2, lsl r1
    4758:	140f0031 	strne	r0, [pc], #-49	; 4760 <__code_start__-0x38a0>
    475c:	a0000098 	mulge	r0, r8, r0
    4760:	14000005 	strne	r0, [r0], #-5
    4764:	00009824 	andeq	r9, r0, r4, lsr #16
    4768:	000005b8 			; <UNDEFINED> instruction: 0x000005b8
    476c:	000003d2 	ldrdeq	r0, [r0], -r2
    4770:	02500112 	subseq	r0, r0, #-2147483644	; 0x80000004
    4774:	01120074 	tsteq	r2, r4, ror r0
    4778:	00300151 	eorseq	r0, r0, r1, asr r1
    477c:	00983014 	addseq	r3, r8, r4, lsl r0
    4780:	0005b800 	andeq	fp, r5, r0, lsl #16
    4784:	0003ee00 	andeq	lr, r3, r0, lsl #28
    4788:	50011200 	andpl	r1, r1, r0, lsl #4
    478c:	50440c05 	subpl	r0, r4, r5, lsl #24
    4790:	01122021 	tsteq	r2, r1, lsr #32
    4794:	00300151 	eorseq	r0, r0, r1, asr r1
    4798:	00983c14 	addseq	r3, r8, r4, lsl ip
    479c:	0005b800 	andeq	fp, r5, r0, lsl #16
    47a0:	00040a00 	andeq	r0, r4, r0, lsl #20
    47a4:	50011200 	andpl	r1, r1, r0, lsl #4
    47a8:	504c0c05 	subpl	r0, ip, r5, lsl #24
    47ac:	01122021 	tsteq	r2, r1, lsr #32
    47b0:	00330151 	eorseq	r0, r3, r1, asr r1
    47b4:	00984814 	addseq	r4, r8, r4, lsl r8
    47b8:	0005b800 	andeq	fp, r5, r0, lsl #16
    47bc:	00042600 	andeq	r2, r4, r0, lsl #12
    47c0:	50011200 	andpl	r1, r1, r0, lsl #4
    47c4:	50500c05 	subspl	r0, r0, r5, lsl #24
    47c8:	01122021 	tsteq	r2, r1, lsr #32
    47cc:	00300151 	eorseq	r0, r0, r1, asr r1
    47d0:	00985414 	addseq	r5, r8, r4, lsl r4
    47d4:	0005b800 	andeq	fp, r5, r0, lsl #16
    47d8:	00044300 	andeq	r4, r4, r0, lsl #6
    47dc:	50011200 	andpl	r1, r1, r0, lsl #4
    47e0:	50480c05 	subpl	r0, r8, r5, lsl #24
    47e4:	01122021 	tsteq	r2, r1, lsr #32
    47e8:	c7080251 	smlsdgt	r8, r1, r2, r0
    47ec:	98601400 	stmdals	r0!, {sl, ip}^
    47f0:	05b80000 	ldreq	r0, [r8, #0]!
    47f4:	04610000 	strbteq	r0, [r1], #-0
    47f8:	01120000 	tsteq	r2, r0
    47fc:	680c0550 	stmdavs	ip, {r4, r6, r8, sl}
    4800:	12202150 	eorne	r2, r0, #20
    4804:	0a035101 	beq	d8c10 <__bss_end__+0xce9b8>
    4808:	1400010e 	strne	r0, [r0], #-270	; 0xfffffef2
    480c:	0000986c 	andeq	r9, r0, ip, ror #16
    4810:	000005b8 			; <UNDEFINED> instruction: 0x000005b8
    4814:	0000047a 	andeq	r0, r0, sl, ror r4
    4818:	02500112 	subseq	r0, r0, #-2147483644	; 0x80000004
    481c:	01120074 	tsteq	r2, r4, ror r0
    4820:	00330151 	eorseq	r0, r3, r1, asr r1
    4824:	0098700f 	addseq	r7, r8, pc
    4828:	0005a000 	andeq	sl, r5, r0
    482c:	7a0e0000 	bvc	384834 <__bss_end__+0x37a5dc>
    4830:	0100000a 	tsteq	r0, sl
    4834:	99700635 	ldmdbls	r0!, {r0, r2, r4, r5, r9, sl}^
    4838:	00240000 	eoreq	r0, r4, r0
    483c:	9c010000 	stcls	0, cr0, [r1], {-0}
    4840:	000004d3 	ldrdeq	r0, [r0], -r3
    4844:	0099780f 	addseq	r7, r9, pc, lsl #16
    4848:	00019400 	andeq	r9, r1, r0, lsl #8
    484c:	997c0f00 	ldmdbls	ip!, {r8, r9, sl, fp}^
    4850:	05a00000 	streq	r0, [r0, #0]!
    4854:	88140000 	ldmdahi	r4, {}	; <UNPREDICTABLE>
    4858:	d3000099 	movwle	r0, #153	; 0x99
    485c:	c9000004 	stmdbgt	r0, {r2}
    4860:	12000004 	andne	r0, r0, #4, 0
    4864:	0c055001 	stceq	0, cr5, [r5], {1}
    4868:	20215004 	eorcs	r5, r1, r4
    486c:	02510112 	subseq	r0, r1, #-2147483644	; 0x80000004
    4870:	0f00fe09 	svceq	0x0000fe09
    4874:	0000998c 	andeq	r9, r0, ip, lsl #19
    4878:	000005a0 	andeq	r0, r0, r0, lsr #11
    487c:	0aaa1700 	beq	fea8a484 <__bss_end__+0xfea8022c>
    4880:	31010000 	mrscc	r0, (UNDEF: 1)
    4884:	0097a40d 	addseq	sl, r7, sp, lsl #8
    4888:	00002000 	andeq	r2, r0, r0
    488c:	369c0100 	ldrcc	r0, [ip], r0, lsl #2
    4890:	18000005 	stmdane	r0, {r0, r2}
    4894:	000000e2 	andeq	r0, r0, r2, ror #1
    4898:	36253101 	strtcc	r3, [r5], -r1, lsl #2
    489c:	be000005 	cdplt	0, 0, cr0, cr0, cr5, {0}
    48a0:	ba000027 	blt	4944 <__code_start__-0x36bc>
    48a4:	13000027 	movwne	r0, #39	; 0x27
    48a8:	006c6176 	rsbeq	r6, ip, r6, ror r1
    48ac:	2c343101 	ldfcss	f3, [r4], #-4
    48b0:	e0000000 	and	r0, r0, r0
    48b4:	dc000027 	stcle	0, cr0, [r0], {39}	; 0x27
    48b8:	14000027 	strne	r0, [r0], #-39	; 0xffffffd9
    48bc:	000097b4 			; <UNDEFINED> instruction: 0x000097b4
    48c0:	000005ac 	andeq	r0, r0, ip, lsr #11
    48c4:	00000525 	andeq	r0, r0, r5, lsr #10
    48c8:	02500112 	subseq	r0, r0, #-2147483644	; 0x80000004
    48cc:	11000074 	tstne	r0, r4, ror r0
    48d0:	000097c0 	andeq	r9, r0, r0, asr #15
    48d4:	000005b8 			; <UNDEFINED> instruction: 0x000005b8
    48d8:	02500112 	subseq	r0, r0, #-2147483644	; 0x80000004
    48dc:	00000074 	andeq	r0, r0, r4, ror r0
    48e0:	053c040c 	ldreq	r0, [ip, #-1036]!	; 0xfffffbf4
    48e4:	17190000 	ldrne	r0, [r9, -r0]
    48e8:	00000a95 	muleq	r0, r5, sl
    48ec:	c40d2e01 	strgt	r2, [sp], #-3585	; 0xfffff1ff
    48f0:	20000097 	mulcs	r0, r7, r0
    48f4:	01000000 	mrseq	r0, (UNDEF: 0)
    48f8:	0005a09c 	muleq	r5, ip, r0
    48fc:	00e21800 	rsceq	r1, r2, r0, lsl #16
    4900:	2e010000 	cdpcs	0, 0, cr0, cr1, cr0, {0}
    4904:	00053624 	andeq	r3, r5, r4, lsr #12
    4908:	00280200 	eoreq	r0, r8, r0, lsl #4
    490c:	0027fe00 	eoreq	pc, r7, r0, lsl #28
    4910:	61761300 	cmnvs	r6, r0, lsl #6
    4914:	2e01006c 	cdpcs	0, 0, cr0, cr1, cr12, {3}
    4918:	00002c33 	andeq	r2, r0, r3, lsr ip
    491c:	00282400 	eoreq	r2, r8, r0, lsl #8
    4920:	00282000 	eoreq	r2, r8, r0
    4924:	97d41400 	ldrbls	r1, [r4, r0, lsl #8]
    4928:	05ac0000 	streq	r0, [ip, #0]!
    492c:	058f0000 	streq	r0, [pc]	; 4934 <__code_start__-0x36cc>
    4930:	01120000 	tsteq	r2, r0
    4934:	00740250 	rsbseq	r0, r4, r0, asr r2
    4938:	97e01100 	strbls	r1, [r0, r0, lsl #2]!
    493c:	05b80000 	ldreq	r0, [r8, #0]!
    4940:	01120000 	tsteq	r2, r0
    4944:	00740250 	rsbseq	r0, r4, r0, asr r2
    4948:	841a0000 	ldrhi	r0, [sl], #-0
    494c:	84000004 	strhi	r0, [r0], #-4
    4950:	03000004 	movweq	r0, #4
    4954:	901a06a1 	andsls	r0, sl, r1, lsr #13
    4958:	90000004 	andls	r0, r0, r4
    495c:	03000004 	movweq	r0, #4
    4960:	8d1a0bc8 	vldrhi	d0, [sl, #-800]	; 0xfffffce0
    4964:	8d000003 	stchi	0, cr0, [r0, #-12]
    4968:	03000003 	movweq	r0, #3
    496c:	dd1a06b3 	ldcle	6, cr0, [sl, #-716]	; 0xfffffd34
    4970:	dd000004 	stcle	0, cr0, [r0, #-16]
    4974:	04000004 	streq	r0, [r0], #-4
    4978:	37000619 	smladcc	r0, r9, r6, r0
    497c:	04000001 	streq	r0, [r0], #-1
    4980:	0015da00 	andseq	sp, r5, r0, lsl #20
    4984:	d7010400 	strle	r0, [r1, -r0, lsl #8]
    4988:	0c000005 	stceq	0, cr0, [r0], {5}
    498c:	00000ab8 			; <UNDEFINED> instruction: 0x00000ab8
    4990:	000006b1 			; <UNDEFINED> instruction: 0x000006b1
    4994:	00009994 	muleq	r0, r4, r9
    4998:	0000002c 	andeq	r0, r0, ip, lsr #32
    499c:	00001f68 	andeq	r1, r0, r8, ror #30
    49a0:	69050402 	stmdbvs	r5, {r1, sl}
    49a4:	0300746e 	movweq	r7, #1134	; 0x46e
    49a8:	007d0704 	rsbseq	r0, sp, r4, lsl #14
    49ac:	01030000 	mrseq	r0, (UNDEF: 3)
    49b0:	00002406 	andeq	r2, r0, r6, lsl #8
    49b4:	05020300 	streq	r0, [r2, #-768]	; 0xfffffd00
    49b8:	000000a4 	andeq	r0, r0, r4, lsr #1
    49bc:	8f050403 	svchi	0x00050403
    49c0:	03000000 	movweq	r0, #0
    49c4:	008a0508 	addeq	r0, sl, r8, lsl #10
    49c8:	01030000 	mrseq	r0, (UNDEF: 3)
    49cc:	00002208 	andeq	r2, r0, r8, lsl #4
    49d0:	07020300 	streq	r0, [r2, -r0, lsl #6]
    49d4:	00000039 	andeq	r0, r0, r9, lsr r0
    49d8:	78070403 	stmdavc	r7, {r0, r1, sl}
    49dc:	03000000 	movweq	r0, #0
    49e0:	00730708 	rsbseq	r0, r3, r8, lsl #14
    49e4:	25040000 	strcs	r0, [r4, #-0]
    49e8:	7a000000 	bvc	49f0 <__code_start__-0x3610>
    49ec:	05000000 	streq	r0, [r0, #-0]
    49f0:	00000025 	andeq	r0, r0, r5, lsr #32
    49f4:	00980600 	addseq	r0, r8, r0, lsl #12
    49f8:	1c020000 	stcne	0, cr0, [r2], {-0}
    49fc:	0000860e 	andeq	r8, r0, lr, lsl #12
    4a00:	6b040700 	blvs	106608 <__bss_end__+0xfc3b0>
    4a04:	04000000 	streq	r0, [r0], #-0
    4a08:	00000025 	andeq	r0, r0, r5, lsr #32
    4a0c:	0000009b 	muleq	r0, fp, r0
    4a10:	00009b05 	andeq	r9, r0, r5, lsl #22
    4a14:	04070000 	streq	r0, [r7], #-0
    4a18:	000000a8 	andeq	r0, r0, r8, lsr #1
    4a1c:	2b080103 	blcs	204e30 <__bss_end__+0x1fabd8>
    4a20:	08000000 	stmdaeq	r0, {}	; <UNPREDICTABLE>
    4a24:	000000a1 	andeq	r0, r0, r1, lsr #1
    4a28:	00076306 	andeq	r6, r7, r6, lsl #6
    4a2c:	0e210200 	cdpeq	2, 2, cr0, cr1, cr0, {0}
    4a30:	000000b9 	strheq	r0, [r0], -r9
    4a34:	008c0407 	addeq	r0, ip, r7, lsl #8
    4a38:	0f090000 	svceq	0x00090000
    4a3c:	01000008 	tsteq	r0, r8
    4a40:	01340704 	teqeq	r4, r4, lsl #14
    4a44:	99940000 	ldmibls	r4, {}	; <UNPREDICTABLE>
    4a48:	002c0000 	eoreq	r0, ip, r0
    4a4c:	9c010000 	stcls	0, cr0, [r1], {-0}
    4a50:	00000134 	andeq	r0, r0, r4, lsr r1
    4a54:	000ab30a 	andeq	fp, sl, sl, lsl #6
    4a58:	15040100 	strne	r0, [r4, #-256]	; 0xffffff00
    4a5c:	00000134 	andeq	r0, r0, r4, lsr r1
    4a60:	730b5001 	movwvc	r5, #45057	; 0xb001
    4a64:	01006372 	tsteq	r0, r2, ror r3
    4a68:	009b2704 	addseq	r2, fp, r4, lsl #14
    4a6c:	28460000 	stmdacs	r6, {}^	; <UNPREDICTABLE>
    4a70:	28420000 	stmdacs	r2, {}^	; <UNPREDICTABLE>
    4a74:	730c0000 	movwvc	r0, #49152	; 0xc000
    4a78:	05010031 	streq	r0, [r1, #-49]	; 0xffffffcf
    4a7c:	0001340b 	andeq	r3, r1, fp, lsl #8
    4a80:	00287500 	eoreq	r7, r8, r0, lsl #10
    4a84:	00286700 	eoreq	r6, r8, r0, lsl #14
    4a88:	32730c00 	rsbscc	r0, r3, #0, 24
    4a8c:	11060100 	mrsne	r0, (UNDEF: 22)
    4a90:	0000009b 	muleq	r0, fp, r0
    4a94:	000028d4 	ldrdeq	r2, [r0], -r4
    4a98:	000028ce 	andeq	r2, r0, lr, asr #17
    4a9c:	0100630c 	tsteq	r0, ip, lsl #6
    4aa0:	00a10a07 	adceq	r0, r1, r7, lsl #20
    4aa4:	29050000 	stmdbcs	r5, {}	; <UNPREDICTABLE>
    4aa8:	28ff0000 	ldmcs	pc!, {}^	; <UNPREDICTABLE>
    4aac:	07000000 	streq	r0, [r0, -r0]
    4ab0:	0000a104 	andeq	sl, r0, r4, lsl #2
    4ab4:	00f70000 	rscseq	r0, r7, r0
    4ab8:	00040000 	andeq	r0, r4, r0
    4abc:	00001690 	muleq	r0, r0, r6
    4ac0:	05d70104 	ldrbeq	r0, [r7, #260]	; 0x104
    4ac4:	c80c0000 	stmdagt	ip, {}	; <UNPREDICTABLE>
    4ac8:	b100000a 	tstlt	r0, sl
    4acc:	c0000006 	andgt	r0, r0, r6
    4ad0:	44000099 	strmi	r0, [r0], #-153	; 0xffffff67
    4ad4:	4e000000 	cdpmi	0, 0, cr0, cr0, cr0, {0}
    4ad8:	02000020 	andeq	r0, r0, #32, 0
    4adc:	6e690504 	cdpvs	5, 6, cr0, cr9, cr4, {0}
    4ae0:	04030074 	streq	r0, [r3], #-116	; 0xffffff8c
    4ae4:	00007d07 	andeq	r7, r0, r7, lsl #26
    4ae8:	06010300 	streq	r0, [r1], -r0, lsl #6
    4aec:	00000024 	andeq	r0, r0, r4, lsr #32
    4af0:	a4050203 	strge	r0, [r5], #-515	; 0xfffffdfd
    4af4:	03000000 	movweq	r0, #0
    4af8:	008f0504 	addeq	r0, pc, r4, lsl #10
    4afc:	08030000 	stmdaeq	r3, {}	; <UNPREDICTABLE>
    4b00:	00008a05 	andeq	r8, r0, r5, lsl #20
    4b04:	08010300 	stmdaeq	r1, {r8, r9}
    4b08:	00000022 	andeq	r0, r0, r2, lsr #32
    4b0c:	39070203 	stmdbcc	r7, {r0, r1, r9}
    4b10:	03000000 	movweq	r0, #0
    4b14:	00780704 	rsbseq	r0, r8, r4, lsl #14
    4b18:	08030000 	stmdaeq	r3, {}	; <UNPREDICTABLE>
    4b1c:	00007307 	andeq	r7, r0, r7, lsl #6
    4b20:	00250400 	eoreq	r0, r5, r0, lsl #8
    4b24:	007a0000 	rsbseq	r0, sl, r0
    4b28:	25050000 	strcs	r0, [r5, #-0]
    4b2c:	00000000 	andeq	r0, r0, r0
    4b30:	00009806 	andeq	r9, r0, r6, lsl #16
    4b34:	0e1c0200 	cdpeq	2, 1, cr0, cr12, cr0, {0}
    4b38:	00000086 	andeq	r0, r0, r6, lsl #1
    4b3c:	006b0407 	rsbeq	r0, fp, r7, lsl #8
    4b40:	25040000 	strcs	r0, [r4, #-0]
    4b44:	9b000000 	blls	4b4c <__code_start__-0x34b4>
    4b48:	05000000 	streq	r0, [r0, #-0]
    4b4c:	0000009b 	muleq	r0, fp, r0
    4b50:	a8040700 	stmdage	r4, {r8, r9, sl}
    4b54:	03000000 	movweq	r0, #0
    4b58:	002b0801 	eoreq	r0, fp, r1, lsl #16
    4b5c:	a1080000 	mrsge	r0, (UNDEF: 8)
    4b60:	06000000 	streq	r0, [r0], -r0
    4b64:	00000763 	andeq	r0, r0, r3, ror #14
    4b68:	b90e2102 	stmdblt	lr, {r1, r8, sp}
    4b6c:	07000000 	streq	r0, [r0, -r0]
    4b70:	00008c04 	andeq	r8, r0, r4, lsl #24
    4b74:	08450900 	stmdaeq	r5, {r8, fp}^
    4b78:	03010000 	movweq	r0, #4096	; 0x1000
    4b7c:	00002505 	andeq	r2, r0, r5, lsl #10
    4b80:	0099c000 	addseq	ip, r9, r0
    4b84:	00004400 	andeq	r4, r0, r0, lsl #8
    4b88:	0a9c0100 	beq	fe704f90 <__bss_end__+0xfe6fad38>
    4b8c:	03010061 	movweq	r0, #4193	; 0x1061
    4b90:	00009b18 	andeq	r9, r0, r8, lsl fp
    4b94:	00293c00 	eoreq	r3, r9, r0, lsl #24
    4b98:	00293000 	eoreq	r3, r9, r0
    4b9c:	00620a00 	rsbeq	r0, r2, r0, lsl #20
    4ba0:	9b270301 	blls	9c57ac <__bss_end__+0x9bb554>
    4ba4:	90000000 	andls	r0, r0, r0
    4ba8:	8a000029 	bhi	4c54 <__code_start__-0x33ac>
    4bac:	00000029 	andeq	r0, r0, r9, lsr #32
    4bb0:	00010f00 	andeq	r0, r1, r0, lsl #30
    4bb4:	1f000400 	svcne	0x00000400
    4bb8:	04000017 	streq	r0, [r0], #-23	; 0xffffffe9
    4bbc:	0005d701 	andeq	sp, r5, r1, lsl #14
    4bc0:	0ad80c00 	beq	ff607bc8 <__bss_end__+0xff5fd970>
    4bc4:	06b10000 	ldrteq	r0, [r1], r0
    4bc8:	9a040000 	bls	104bd0 <__bss_end__+0xfa978>
    4bcc:	00180000 	andseq	r0, r8, r0
    4bd0:	21040000 	mrscs	r0, (UNDEF: 4)
    4bd4:	04020000 	streq	r0, [r2], #-0
    4bd8:	746e6905 	strbtvc	r6, [lr], #-2309	; 0xfffff6fb
    4bdc:	07040300 	streq	r0, [r4, -r0, lsl #6]
    4be0:	0000007d 	andeq	r0, r0, sp, ror r0
    4be4:	24060103 	strcs	r0, [r6], #-259	; 0xfffffefd
    4be8:	03000000 	movweq	r0, #0
    4bec:	00a40502 	adceq	r0, r4, r2, lsl #10
    4bf0:	04030000 	streq	r0, [r3], #-0
    4bf4:	00008f05 	andeq	r8, r0, r5, lsl #30
    4bf8:	05080300 	streq	r0, [r8, #-768]	; 0xfffffd00
    4bfc:	0000008a 	andeq	r0, r0, sl, lsl #1
    4c00:	22080103 	andcs	r0, r8, #-1073741824	; 0xc0000000
    4c04:	03000000 	movweq	r0, #0
    4c08:	00390702 	eorseq	r0, r9, r2, lsl #14
    4c0c:	04030000 	streq	r0, [r3], #-0
    4c10:	00007807 	andeq	r7, r0, r7, lsl #16
    4c14:	07080300 	streq	r0, [r8, -r0, lsl #6]
    4c18:	00000073 	andeq	r0, r0, r3, ror r0
    4c1c:	00002504 	andeq	r2, r0, r4, lsl #10
    4c20:	00007a00 	andeq	r7, r0, r0, lsl #20
    4c24:	00250500 	eoreq	r0, r5, r0, lsl #10
    4c28:	06000000 	streq	r0, [r0], -r0
    4c2c:	00000098 	muleq	r0, r8, r0
    4c30:	860e1c02 	strhi	r1, [lr], -r2, lsl #24
    4c34:	07000000 	streq	r0, [r0, -r0]
    4c38:	00006b04 	andeq	r6, r0, r4, lsl #22
    4c3c:	00250400 	eoreq	r0, r5, r0, lsl #8
    4c40:	009b0000 	addseq	r0, fp, r0
    4c44:	9b050000 	blls	144c4c <__bss_end__+0x13a9f4>
    4c48:	00000000 	andeq	r0, r0, r0
    4c4c:	00a80407 	adceq	r0, r8, r7, lsl #8
    4c50:	01030000 	mrseq	r0, (UNDEF: 3)
    4c54:	00002b08 	andeq	r2, r0, r8, lsl #22
    4c58:	00a10800 	adceq	r0, r1, r0, lsl #16
    4c5c:	63060000 	movwvs	r0, #24576	; 0x6000
    4c60:	02000007 	andeq	r0, r0, #7, 0
    4c64:	00b90e21 	adcseq	r0, r9, r1, lsr #28
    4c68:	04070000 	streq	r0, [r7], #-0
    4c6c:	0000008c 	andeq	r0, r0, ip, lsl #1
    4c70:	00081609 	andeq	r1, r8, r9, lsl #12
    4c74:	07030100 	streq	r0, [r3, -r0, lsl #2]
    4c78:	0000010c 	andeq	r0, r0, ip, lsl #2
    4c7c:	00009a04 	andeq	r9, r0, r4, lsl #20
    4c80:	00000018 	andeq	r0, r0, r8, lsl r0
    4c84:	010c9c01 	tsteq	ip, r1, lsl #24
    4c88:	730a0000 	movwvc	r0, #40960	; 0xa000
    4c8c:	03010031 	movweq	r0, #4145	; 0x1031
    4c90:	00010c15 	andeq	r0, r1, r5, lsl ip
    4c94:	0b500100 	bleq	140509c <__bss_end__+0x13fae44>
    4c98:	01003273 	tsteq	r0, r3, ror r2
    4c9c:	009b2603 	addseq	r2, fp, r3, lsl #12
    4ca0:	29bf0000 	ldmibcs	pc!, {}	; <UNPREDICTABLE>
    4ca4:	29b90000 	ldmibcs	r9!, {}	; <UNPREDICTABLE>
    4ca8:	730c0000 	movwvc	r0, #49152	; 0xc000
    4cac:	14040100 	strne	r0, [r4], #-256	; 0xffffff00
    4cb0:	0000010c 	andeq	r0, r0, ip, lsl #2
    4cb4:	000029ec 	andeq	r2, r0, ip, ror #19
    4cb8:	000029ea 	andeq	r2, r0, sl, ror #19
    4cbc:	a1040700 	tstge	r4, r0, lsl #14
    4cc0:	00000000 	andeq	r0, r0, r0
    4cc4:	0000014e 	andeq	r0, r0, lr, asr #2
    4cc8:	17d50004 	ldrbne	r0, [r5, r4]
    4ccc:	01040000 	mrseq	r0, (UNDEF: 4)
    4cd0:	000005d7 	ldrdeq	r0, [r0], -r7
    4cd4:	000aef0c 	andeq	lr, sl, ip, lsl #30
    4cd8:	0006b100 	andeq	fp, r6, r0, lsl #2
    4cdc:	009a1c00 	addseq	r1, sl, r0, lsl #24
    4ce0:	00003000 	andeq	r3, r0, r0
    4ce4:	0021a500 	eoreq	sl, r1, r0, lsl #10
    4ce8:	05040200 	streq	r0, [r4, #-512]	; 0xfffffe00
    4cec:	00746e69 	rsbseq	r6, r4, r9, ror #28
    4cf0:	000ae803 	andeq	lr, sl, r3, lsl #16
    4cf4:	17d10300 	ldrbne	r0, [r1, r0, lsl #6]
    4cf8:	00000038 	andeq	r0, r0, r8, lsr r0
    4cfc:	7d070404 	cfstrsvc	mvf0, [r7, #-16]
    4d00:	04000000 	streq	r0, [r0], #-0
    4d04:	00240601 	eoreq	r0, r4, r1, lsl #12
    4d08:	02040000 	andeq	r0, r4, #0, 0
    4d0c:	0000a405 	andeq	sl, r0, r5, lsl #8
    4d10:	05040400 	streq	r0, [r4, #-1024]	; 0xfffffc00
    4d14:	0000008f 	andeq	r0, r0, pc, lsl #1
    4d18:	8a050804 	bhi	146d30 <__bss_end__+0x13cad8>
    4d1c:	04000000 	streq	r0, [r0], #-0
    4d20:	00220801 	eoreq	r0, r2, r1, lsl #16
    4d24:	5b050000 	blpl	144d2c <__bss_end__+0x13aad4>
    4d28:	04000000 	streq	r0, [r0], #-0
    4d2c:	00390702 	eorseq	r0, r9, r2, lsl #14
    4d30:	04040000 	streq	r0, [r4], #-0
    4d34:	00007807 	andeq	r7, r0, r7, lsl #16
    4d38:	07080400 	streq	r0, [r8, -r0, lsl #8]
    4d3c:	00000073 	andeq	r0, r0, r3, ror r0
    4d40:	00002506 	andeq	r2, r0, r6, lsl #10
    4d44:	00008b00 	andeq	r8, r0, r0, lsl #22
    4d48:	00250700 	eoreq	r0, r5, r0, lsl #14
    4d4c:	08000000 	stmdaeq	r0, {}	; <UNPREDICTABLE>
    4d50:	00000098 	muleq	r0, r8, r0
    4d54:	970e1c02 	strls	r1, [lr, -r2, lsl #24]
    4d58:	09000000 	stmdbeq	r0, {}	; <UNPREDICTABLE>
    4d5c:	00007c04 	andeq	r7, r0, r4, lsl #24
    4d60:	00250600 	eoreq	r0, r5, r0, lsl #12
    4d64:	00ac0000 	adceq	r0, ip, r0
    4d68:	ac070000 	stcge	0, cr0, [r7], {-0}
    4d6c:	00000000 	andeq	r0, r0, r0
    4d70:	00b90409 	adcseq	r0, r9, r9, lsl #8
    4d74:	01040000 	mrseq	r0, (UNDEF: 4)
    4d78:	00002b08 	andeq	r2, r0, r8, lsl #22
    4d7c:	00b20500 	adcseq	r0, r2, r0, lsl #10
    4d80:	63080000 	movwvs	r0, #32768	; 0x8000
    4d84:	02000007 	andeq	r0, r0, #7, 0
    4d88:	00ca0e21 	sbceq	r0, sl, r1, lsr #28
    4d8c:	04090000 	streq	r0, [r9], #-0
    4d90:	0000009d 	muleq	r0, sp, r0
    4d94:	00086d0a 	andeq	r6, r8, sl, lsl #26
    4d98:	05040100 	streq	r0, [r4, #-256]	; 0xffffff00
    4d9c:	00000025 	andeq	r0, r0, r5, lsr #32
    4da0:	00009a1c 	andeq	r9, r0, ip, lsl sl
    4da4:	00000030 	andeq	r0, r0, r0, lsr r0
    4da8:	014b9c01 	cmpeq	fp, r1, lsl #24
    4dac:	5f0b0000 	svcpl	0x000b0000
    4db0:	01003173 	tsteq	r0, r3, ror r1
    4db4:	00ac1904 	adceq	r1, ip, r4, lsl #18
    4db8:	2a030000 	bcs	c4dc0 <__bss_end__+0xbab68>
    4dbc:	29ff0000 	ldmibcs	pc!, {}^	; <UNPREDICTABLE>
    4dc0:	5f0b0000 	svcpl	0x000b0000
    4dc4:	01003273 	tsteq	r0, r3, ror r2
    4dc8:	00ac2a04 	adceq	r2, ip, r4, lsl #20
    4dcc:	2a280000 	bcs	a04dd4 <__bss_end__+0x9fab7c>
    4dd0:	2a240000 	bcs	904dd8 <__bss_end__+0x8fab80>
    4dd4:	6e0b0000 	cdpvs	0, 0, cr0, cr11, cr0, {0}
    4dd8:	36040100 	strcc	r0, [r4], -r0, lsl #2
    4ddc:	0000002c 	andeq	r0, r0, ip, lsr #32
    4de0:	00002a53 	andeq	r2, r0, r3, asr sl
    4de4:	00002a49 	andeq	r2, r0, r9, asr #20
    4de8:	0031730c 	eorseq	r7, r1, ip, lsl #6
    4dec:	4b1a0501 	blmi	6861f8 <__bss_end__+0x67bfa0>
    4df0:	aa000001 	bge	4dfc <__code_start__-0x3204>
    4df4:	a200002a 	andge	r0, r0, #42, 0	; 0x2a
    4df8:	0c00002a 	stceq	0, cr0, [r0], {42}	; 0x2a
    4dfc:	01003273 	tsteq	r0, r3, ror r2
    4e00:	014b2c05 	cmpeq	fp, r5, lsl #24
    4e04:	2ae80000 	bcs	ffa04e0c <__bss_end__+0xff9fabb4>
    4e08:	2ae20000 	bcs	ff884e10 <__bss_end__+0xff87abb8>
    4e0c:	09000000 	stmdbeq	r0, {}	; <UNPREDICTABLE>
    4e10:	00006204 	andeq	r6, r0, r4, lsl #4
    4e14:	00ce0000 	sbceq	r0, lr, r0
    4e18:	00040000 	andeq	r0, r4, r0
    4e1c:	00001889 	andeq	r1, r0, r9, lsl #17
    4e20:	05d70104 	ldrbeq	r0, [r7, #260]	; 0x104
    4e24:	000c0000 	andeq	r0, ip, r0
    4e28:	b100000b 	tstlt	r0, fp
    4e2c:	4c000006 	stcmi	0, cr0, [r0], {6}
    4e30:	0400009a 	streq	r0, [r0], #-154	; 0xffffff66
    4e34:	a6000000 	strge	r0, [r0], -r0
    4e38:	02000022 	andeq	r0, r0, #34, 0	; 0x22
    4e3c:	6e690504 	cdpvs	5, 6, cr0, cr9, cr4, {0}
    4e40:	04030074 	streq	r0, [r3], #-116	; 0xffffff8c
    4e44:	00007d07 	andeq	r7, r0, r7, lsl #26
    4e48:	06010300 	streq	r0, [r1], -r0, lsl #6
    4e4c:	00000024 	andeq	r0, r0, r4, lsr #32
    4e50:	a4050203 	strge	r0, [r5], #-515	; 0xfffffdfd
    4e54:	03000000 	movweq	r0, #0
    4e58:	008f0504 	addeq	r0, pc, r4, lsl #10
    4e5c:	08030000 	stmdaeq	r3, {}	; <UNPREDICTABLE>
    4e60:	00008a05 	andeq	r8, r0, r5, lsl #20
    4e64:	08010300 	stmdaeq	r1, {r8, r9}
    4e68:	00000022 	andeq	r0, r0, r2, lsr #32
    4e6c:	39070203 	stmdbcc	r7, {r0, r1, r9}
    4e70:	03000000 	movweq	r0, #0
    4e74:	00780704 	rsbseq	r0, r8, r4, lsl #14
    4e78:	08030000 	stmdaeq	r3, {}	; <UNPREDICTABLE>
    4e7c:	00007307 	andeq	r7, r0, r7, lsl #6
    4e80:	00250400 	eoreq	r0, r5, r0, lsl #8
    4e84:	007a0000 	rsbseq	r0, sl, r0
    4e88:	25050000 	strcs	r0, [r5, #-0]
    4e8c:	00000000 	andeq	r0, r0, r0
    4e90:	00009806 	andeq	r9, r0, r6, lsl #16
    4e94:	0e1c0200 	cdpeq	2, 1, cr0, cr12, cr0, {0}
    4e98:	00000086 	andeq	r0, r0, r6, lsl #1
    4e9c:	006b0407 	rsbeq	r0, fp, r7, lsl #8
    4ea0:	25040000 	strcs	r0, [r4, #-0]
    4ea4:	9b000000 	blls	4eac <__code_start__-0x3154>
    4ea8:	05000000 	streq	r0, [r0, #-0]
    4eac:	0000009b 	muleq	r0, fp, r0
    4eb0:	a8040700 	stmdage	r4, {r8, r9, sl}
    4eb4:	03000000 	movweq	r0, #0
    4eb8:	002b0801 	eoreq	r0, fp, r1, lsl #16
    4ebc:	a1080000 	mrsge	r0, (UNDEF: 8)
    4ec0:	06000000 	streq	r0, [r0], -r0
    4ec4:	00000763 	andeq	r0, r0, r3, ror #14
    4ec8:	b90e2102 	stmdblt	lr, {r1, r8, sp}
    4ecc:	07000000 	streq	r0, [r0, -r0]
    4ed0:	00008c04 	andeq	r8, r0, r4, lsl #24
    4ed4:	091c0900 	ldmdbeq	ip, {r8, fp}
    4ed8:	03010000 	movweq	r0, #4096	; 0x1000
    4edc:	009a4c06 	addseq	r4, sl, r6, lsl #24
    4ee0:	00000400 	andeq	r0, r0, r0, lsl #8
    4ee4:	009c0100 	addseq	r0, ip, r0, lsl #2

Disassembly of section .debug_abbrev:

00000000 <.debug_abbrev>:
       0:	25011101 	strcs	r1, [r1, #-257]	; 0xfffffeff
       4:	030b130e 	movweq	r1, #45838	; 0xb30e
       8:	110e1b0e 	tstne	lr, lr, lsl #22
       c:	10061201 	andne	r1, r6, r1, lsl #4
      10:	02000017 	andeq	r0, r0, #23, 0
      14:	0b0b0024 	bleq	2c00ac <__bss_end__+0x2b5e54>
      18:	08030b3e 	stmdaeq	r3, {r1, r2, r3, r4, r5, r8, r9, fp}
      1c:	24030000 	strcs	r0, [r3], #-0
      20:	3e0b0b00 	vmlacc.f64	d0, d11, d0
      24:	000e030b 	andeq	r0, lr, fp, lsl #6
      28:	01150400 	tsteq	r5, r0, lsl #8
      2c:	13491927 	movtne	r1, #39207	; 0x9927
      30:	00001301 	andeq	r1, r0, r1, lsl #6
      34:	49000505 	stmdbmi	r0, {r0, r2, r8, sl}
      38:	06000013 			; <UNDEFINED> instruction: 0x06000013
      3c:	0e030034 	mcreq	0, 0, r0, cr3, cr4, {1}
      40:	0b3b0b3a 	bleq	ec2d30 <__bss_end__+0xeb8ad8>
      44:	13490b39 	movtne	r0, #39737	; 0x9b39
      48:	193c193f 	ldmdbne	ip!, {r0, r1, r2, r3, r4, r5, r8, fp, ip}
      4c:	0f070000 	svceq	0x00070000
      50:	490b0b00 	stmdbmi	fp, {r8, r9, fp}
      54:	08000013 	stmdaeq	r0, {r0, r1, r4}
      58:	13490026 	movtne	r0, #36902	; 0x9026
      5c:	04090000 	streq	r0, [r9], #-0
      60:	0b0b3e01 	bleq	2cf86c <__bss_end__+0x2c5614>
      64:	3a13490b 	bcc	4d2498 <__bss_end__+0x4c8240>
      68:	390b3b0b 	stmdbcc	fp, {r0, r1, r3, r8, r9, fp, ip, sp}
      6c:	0013010b 	andseq	r0, r3, fp, lsl #2
      70:	00280a00 	eoreq	r0, r8, r0, lsl #20
      74:	0b1c0e03 	bleq	703888 <__bss_end__+0x6f9630>
      78:	2e0b0000 	cdpcs	0, 0, cr0, cr11, cr0, {0}
      7c:	03193f01 	tsteq	r9, #1, 30
      80:	3b0b3a0e 	blcc	2ce8c0 <__bss_end__+0x2c4668>
      84:	270b390b 	strcs	r3, [fp, -fp, lsl #18]
      88:	12011119 	andne	r1, r1, #1073741830	; 0x40000006
      8c:	97184006 	ldrls	r4, [r8, -r6]
      90:	13011942 	movwne	r1, #6466	; 0x1942
      94:	340c0000 	strcc	r0, [ip], #-0
      98:	3a0e0300 	bcc	380ca0 <__bss_end__+0x376a48>
      9c:	390b3b0b 	stmdbcc	fp, {r0, r1, r3, r8, r9, fp, ip, sp}
      a0:	0213490b 	andseq	r4, r3, #180224	; 0x2c000
      a4:	1742b717 	smlaldne	fp, r2, r7, r7
      a8:	0b0d0000 	bleq	3400b0 <__bss_end__+0x335e58>
      ac:	01175501 	tsteq	r7, r1, lsl #10
      b0:	0e000013 	mcreq	0, 0, r0, cr0, cr3, {0}
      b4:	08030034 	stmdaeq	r3, {r2, r4, r5}
      b8:	0b3b0b3a 	bleq	ec2da8 <__bss_end__+0xeb8b50>
      bc:	13490b39 	movtne	r0, #39737	; 0x9b39
      c0:	42b71702 	adcsmi	r1, r7, #524288	; 0x80000
      c4:	0f000017 	svceq	0x00000017
      c8:	0111010b 	tsteq	r1, fp, lsl #2
      cc:	13010612 	movwne	r0, #5650	; 0x1612
      d0:	89100000 	ldmdbhi	r0, {}	; <UNPREDICTABLE>
      d4:	11010182 	smlabbne	r1, r2, r1, r0
      d8:	00133101 	andseq	r3, r3, r1, lsl #2
      dc:	828a1100 	addhi	r1, sl, #0
      e0:	18020001 	stmdane	r2, {r0}
      e4:	00184291 	mulseq	r8, r1, r2
      e8:	82891200 	addhi	r1, r9, #0, 4
      ec:	01110101 	tsteq	r1, r1, lsl #2
      f0:	13011331 	movwne	r1, #4913	; 0x1331
      f4:	89130000 	ldmdbhi	r3, {}	; <UNPREDICTABLE>
      f8:	11000182 	smlabbne	r0, r2, r1, r0
      fc:	00133101 	andseq	r3, r3, r1, lsl #2
     100:	002e1400 	eoreq	r1, lr, r0, lsl #8
     104:	193c193f 	ldmdbne	ip!, {r0, r1, r2, r3, r4, r5, r8, fp, ip}
     108:	0e030e6e 	cdpeq	14, 0, cr0, cr3, cr14, {3}
     10c:	0b3b0b3a 	bleq	ec2dfc <__bss_end__+0xeb8ba4>
     110:	00000b39 	andeq	r0, r0, r9, lsr fp
     114:	01110100 	tsteq	r1, r0, lsl #2
     118:	0b130e25 	bleq	4c39b4 <__bss_end__+0x4b975c>
     11c:	0e1b0e03 	cdpeq	14, 1, cr0, cr11, cr3, {0}
     120:	06120111 			; <UNDEFINED> instruction: 0x06120111
     124:	00001710 	andeq	r1, r0, r0, lsl r7
     128:	0b002402 	bleq	9138 <va_printk+0x2d8>
     12c:	030b3e0b 	movweq	r3, #48651	; 0xbe0b
     130:	03000008 	movweq	r0, #8
     134:	0b0b0024 	bleq	2c01cc <__bss_end__+0x2b5f74>
     138:	0e030b3e 	vmoveq.16	d3[0], r0
     13c:	16040000 	strne	r0, [r4], -r0
     140:	3a0e0300 	bcc	380d48 <__bss_end__+0x376af0>
     144:	390b3b0b 	stmdbcc	fp, {r0, r1, r3, r8, r9, fp, ip, sp}
     148:	0013490b 	andseq	r4, r3, fp, lsl #18
     14c:	01150500 	tsteq	r5, r0, lsl #10
     150:	13491927 	movtne	r1, #39207	; 0x9927
     154:	00001301 	andeq	r1, r0, r1, lsl #6
     158:	49000506 	stmdbmi	r0, {r1, r2, r8, sl}
     15c:	07000013 	smladeq	r0, r3, r0, r0
     160:	0e030034 	mcreq	0, 0, r0, cr3, cr4, {1}
     164:	0b3b0b3a 	bleq	ec2e54 <__bss_end__+0xeb8bfc>
     168:	13490b39 	movtne	r0, #39737	; 0x9b39
     16c:	193c193f 	ldmdbne	ip!, {r0, r1, r2, r3, r4, r5, r8, fp, ip}
     170:	0f080000 	svceq	0x00080000
     174:	490b0b00 	stmdbmi	fp, {r8, r9, fp}
     178:	09000013 	stmdbeq	r0, {r0, r1, r4}
     17c:	13490026 	movtne	r0, #36902	; 0x9026
     180:	040a0000 	streq	r0, [sl], #-0
     184:	0b0b3e01 	bleq	2cf990 <__bss_end__+0x2c5738>
     188:	3a13490b 	bcc	4d25bc <__bss_end__+0x4c8364>
     18c:	390b3b0b 	stmdbcc	fp, {r0, r1, r3, r8, r9, fp, ip, sp}
     190:	0013010b 	andseq	r0, r3, fp, lsl #2
     194:	00280b00 	eoreq	r0, r8, r0, lsl #22
     198:	0b1c0e03 	bleq	7039ac <__bss_end__+0x6f9754>
     19c:	2e0c0000 	cdpcs	0, 0, cr0, cr12, cr0, {0}
     1a0:	03193f01 	tsteq	r9, #1, 30
     1a4:	3b0b3a0e 	blcc	2ce9e4 <__bss_end__+0x2c478c>
     1a8:	270b390b 	strcs	r3, [fp, -fp, lsl #18]
     1ac:	11134919 	tstne	r3, r9, lsl r9
     1b0:	40061201 	andmi	r1, r6, r1, lsl #4
     1b4:	19429718 	stmdbne	r2, {r3, r4, r8, r9, sl, ip, pc}^
     1b8:	00001301 	andeq	r1, r0, r1, lsl #6
     1bc:	0300340d 	movweq	r3, #1037	; 0x40d
     1c0:	3b0b3a08 	blcc	2ce9e8 <__bss_end__+0x2c4790>
     1c4:	490b390b 	stmdbmi	fp, {r0, r1, r3, r8, fp, ip, sp}
     1c8:	b7170213 			; <UNDEFINED> instruction: 0xb7170213
     1cc:	00001742 	andeq	r1, r0, r2, asr #14
     1d0:	0300340e 	movweq	r3, #1038	; 0x40e
     1d4:	3413490e 	ldrcc	r4, [r3], #-2318	; 0xfffff6f2
     1d8:	00180219 	andseq	r0, r8, r9, lsl r2
     1dc:	011d0f00 	tsteq	sp, r0, lsl #30
     1e0:	01521331 	cmpeq	r2, r1, lsr r3
     1e4:	110b42b8 			; <UNDEFINED> instruction: 0x110b42b8
     1e8:	58061201 	stmdapl	r6, {r0, r9, ip}
     1ec:	570b590b 	strpl	r5, [fp, -fp, lsl #18]
     1f0:	0013010b 	andseq	r0, r3, fp, lsl #2
     1f4:	00051000 	andeq	r1, r5, r0
     1f8:	17021331 	smladxne	r2, r1, r3, r1
     1fc:	001742b7 			; <UNDEFINED> instruction: 0x001742b7
     200:	011d1100 	tsteq	sp, r0, lsl #2
     204:	01521331 	cmpeq	r2, r1, lsr r3
     208:	550b42b8 	strpl	r4, [fp, #-696]	; 0xfffffd48
     20c:	590b5817 	stmdbpl	fp, {r0, r1, r2, r4, fp, ip, lr}
     210:	010b570b 	tsteq	fp, fp, lsl #14
     214:	12000013 	andne	r0, r0, #19, 0
     218:	1755010b 	ldrbne	r0, [r5, -fp, lsl #2]
     21c:	1d130000 	ldcne	0, cr0, [r3, #-0]
     220:	52133101 	andspl	r3, r3, #1073741824	; 0x40000000
     224:	0b42b801 	bleq	10ae230 <__bss_end__+0x10a3fd8>
     228:	0b581755 	bleq	1605f84 <__bss_end__+0x15fbd2c>
     22c:	0b570b59 	bleq	15c2f98 <__bss_end__+0x15b8d40>
     230:	0b140000 	bleq	500238 <__bss_end__+0x4f5fe0>
     234:	00175500 	andseq	r5, r7, r0, lsl #10
     238:	011d1500 	tsteq	sp, r0, lsl #10
     23c:	01521331 	cmpeq	r2, r1, lsr r3
     240:	110b42b8 			; <UNDEFINED> instruction: 0x110b42b8
     244:	58061201 	stmdapl	r6, {r0, r9, ip}
     248:	570b590b 	strpl	r5, [fp, -fp, lsl #18]
     24c:	1600000b 	strne	r0, [r0], -fp
     250:	01018289 	smlabbeq	r1, r9, r2, r8
     254:	13310111 	teqne	r1, #1073741828	; 0x40000004
     258:	00001301 	andeq	r1, r0, r1, lsl #6
     25c:	01828a17 	orreq	r8, r2, r7, lsl sl
     260:	91180200 	tstls	r8, r0, lsl #4
     264:	00001842 	andeq	r1, r0, r2, asr #16
     268:	01828918 	orreq	r8, r2, r8, lsl r9
     26c:	31011100 	mrscc	r1, (UNDEF: 17)
     270:	19000013 	stmdbne	r0, {r0, r1, r4}
     274:	13490101 	movtne	r0, #37121	; 0x9101
     278:	00001301 	andeq	r1, r0, r1, lsl #6
     27c:	4900211a 	stmdbmi	r0, {r1, r3, r4, r8, sp}
     280:	000b2f13 	andeq	r2, fp, r3, lsl pc
     284:	00051b00 	andeq	r1, r5, r0, lsl #22
     288:	0b3a0e03 	bleq	e83a9c <__bss_end__+0xe79844>
     28c:	0b390b3b 	bleq	e42f80 <__bss_end__+0xe38d28>
     290:	17021349 	strne	r1, [r2, -r9, asr #6]
     294:	001742b7 			; <UNDEFINED> instruction: 0x001742b7
     298:	00051c00 	andeq	r1, r5, r0, lsl #24
     29c:	0b3a0803 	bleq	e822b0 <__bss_end__+0xe78058>
     2a0:	0b390b3b 	bleq	e42f94 <__bss_end__+0xe38d3c>
     2a4:	17021349 	strne	r1, [r2, -r9, asr #6]
     2a8:	001742b7 			; <UNDEFINED> instruction: 0x001742b7
     2ac:	00341d00 	eorseq	r1, r4, r0, lsl #26
     2b0:	0b3a0e03 	bleq	e83ac4 <__bss_end__+0xe7986c>
     2b4:	0b390b3b 	bleq	e42fa8 <__bss_end__+0xe38d50>
     2b8:	18021349 	stmdane	r2, {r0, r3, r6, r8, r9, ip}
     2bc:	891e0000 	ldmdbhi	lr, {}	; <UNPREDICTABLE>
     2c0:	11010182 	smlabbne	r1, r2, r1, r0
     2c4:	00133101 	andseq	r3, r3, r1, lsl #2
     2c8:	012e1f00 			; <UNDEFINED> instruction: 0x012e1f00
     2cc:	0e03193f 			; <UNDEFINED> instruction: 0x0e03193f
     2d0:	0b3b0b3a 	bleq	ec2fc0 <__bss_end__+0xeb8d68>
     2d4:	19270b39 	stmdbne	r7!, {r0, r3, r4, r5, r8, r9, fp}
     2d8:	06120111 			; <UNDEFINED> instruction: 0x06120111
     2dc:	42971840 	addsmi	r1, r7, #64, 16	; 0x400000
     2e0:	00130119 	andseq	r0, r3, r9, lsl r1
     2e4:	00342000 	eorseq	r2, r4, r0
     2e8:	0b3a0803 	bleq	e822fc <__bss_end__+0xe780a4>
     2ec:	0b390b3b 	bleq	e42fe0 <__bss_end__+0xe38d88>
     2f0:	18021349 	stmdane	r2, {r0, r3, r6, r8, r9, ip}
     2f4:	2e210000 	cdpcs	0, 2, cr0, cr1, cr0, {0}
     2f8:	3a0e0301 	bcc	380f04 <__bss_end__+0x376cac>
     2fc:	390b3b0b 	stmdbcc	fp, {r0, r1, r3, r8, r9, fp, ip, sp}
     300:	4919270b 	ldmdbmi	r9, {r0, r1, r3, r8, r9, sl, sp}
     304:	010b2013 	tsteq	fp, r3, lsl r0
     308:	22000013 	andcs	r0, r0, #19, 0
     30c:	08030005 	stmdaeq	r3, {r0, r2}
     310:	0b3b0b3a 	bleq	ec3000 <__bss_end__+0xeb8da8>
     314:	13490b39 	movtne	r0, #39737	; 0x9b39
     318:	34230000 	strtcc	r0, [r3], #-0
     31c:	490e0300 	stmdbmi	lr, {r8, r9}
     320:	00193413 	andseq	r3, r9, r3, lsl r4
     324:	00342400 	eorseq	r2, r4, r0, lsl #8
     328:	0b3a0803 	bleq	e8233c <__bss_end__+0xe780e4>
     32c:	0b390b3b 	bleq	e43020 <__bss_end__+0xe38dc8>
     330:	00001349 	andeq	r1, r0, r9, asr #6
     334:	03003425 	movweq	r3, #1061	; 0x425
     338:	3b0b3a0e 	blcc	2ceb78 <__bss_end__+0x2c4920>
     33c:	490b390b 	stmdbmi	fp, {r0, r1, r3, r8, fp, ip, sp}
     340:	26000013 			; <UNDEFINED> instruction: 0x26000013
     344:	0e030005 	cdpeq	0, 0, cr0, cr3, cr5, {0}
     348:	0b3b0b3a 	bleq	ec3038 <__bss_end__+0xeb8de0>
     34c:	13490b39 	movtne	r0, #39737	; 0x9b39
     350:	34270000 	strtcc	r0, [r7], #-0
     354:	490e0300 	stmdbmi	lr, {r8, r9}
     358:	1c193413 	cfldrsne	mvf3, [r9], {19}
     35c:	2800000e 	stmdacs	r0, {r1, r2, r3}
     360:	193f002e 	ldmdbne	pc!, {r1, r2, r3, r5}	; <UNPREDICTABLE>
     364:	0e6e193c 			; <UNDEFINED> instruction: 0x0e6e193c
     368:	0b3a0e03 	bleq	e83b7c <__bss_end__+0xe79924>
     36c:	0b390b3b 	bleq	e43060 <__bss_end__+0xe38e08>
     370:	01000000 	mrseq	r0, (UNDEF: 0)
     374:	0e250111 	mcreq	1, 1, r0, cr5, cr1, {0}
     378:	0e030b13 	vmoveq.32	d3[0], r0
     37c:	01110e1b 	tsteq	r1, fp, lsl lr
     380:	17100612 			; <UNDEFINED> instruction: 0x17100612
     384:	24020000 	strcs	r0, [r2], #-0
     388:	3e0b0b00 	vmlacc.f64	d0, d11, d0
     38c:	0008030b 	andeq	r0, r8, fp, lsl #6
     390:	00240300 	eoreq	r0, r4, r0, lsl #6
     394:	0b3e0b0b 	bleq	f82fc8 <__bss_end__+0xf78d70>
     398:	00000e03 	andeq	r0, r0, r3, lsl #28
     39c:	49002604 	stmdbmi	r0, {r2, r9, sl, sp}
     3a0:	05000013 	streq	r0, [r0, #-19]	; 0xffffffed
     3a4:	0e030016 	mcreq	0, 0, r0, cr3, cr6, {0}
     3a8:	0b3b0b3a 	bleq	ec3098 <__bss_end__+0xeb8e40>
     3ac:	13490b39 	movtne	r0, #39737	; 0x9b39
     3b0:	04060000 	streq	r0, [r6], #-0
     3b4:	0b0b3e01 	bleq	2cfbc0 <__bss_end__+0x2c5968>
     3b8:	3a13490b 	bcc	4d27ec <__bss_end__+0x4c8594>
     3bc:	390b3b0b 	stmdbcc	fp, {r0, r1, r3, r8, r9, fp, ip, sp}
     3c0:	0013010b 	andseq	r0, r3, fp, lsl #2
     3c4:	00280700 	eoreq	r0, r8, r0, lsl #14
     3c8:	0b1c0e03 	bleq	703bdc <__bss_end__+0x6f9984>
     3cc:	13080000 	movwne	r0, #32768	; 0x8000
     3d0:	3a0b0b01 	bcc	2c2fdc <__bss_end__+0x2b8d84>
     3d4:	390b3b0b 	stmdbcc	fp, {r0, r1, r3, r8, r9, fp, ip, sp}
     3d8:	0013010b 	andseq	r0, r3, fp, lsl #2
     3dc:	000d0900 	andeq	r0, sp, r0, lsl #18
     3e0:	0b3a0e03 	bleq	e83bf4 <__bss_end__+0xe7999c>
     3e4:	0b390b3b 	bleq	e430d8 <__bss_end__+0xe38e80>
     3e8:	0b0b1349 	bleq	2c5114 <__bss_end__+0x2baebc>
     3ec:	0b0c0b0d 	bleq	303028 <__bss_end__+0x2f8dd0>
     3f0:	00000b38 	andeq	r0, r0, r8, lsr fp
     3f4:	03000d0a 	movweq	r0, #3338	; 0xd0a
     3f8:	3b0b3a08 	blcc	2cec20 <__bss_end__+0x2c49c8>
     3fc:	490b390b 	stmdbmi	fp, {r0, r1, r3, r8, fp, ip, sp}
     400:	0d0b0b13 	vstreq	d0, [fp, #-76]	; 0xffffffb4
     404:	380b0c0b 	stmdacc	fp, {r0, r1, r3, sl, fp}
     408:	0b00000b 	bleq	43c <__code_start__-0x7bc4>
     40c:	13490035 	movtne	r0, #36917	; 0x9035
     410:	130c0000 	movwne	r0, #49152	; 0xc000
     414:	0b0e0301 	bleq	381020 <__bss_end__+0x376dc8>
     418:	3b0b3a0b 	blcc	2cec4c <__bss_end__+0x2c49f4>
     41c:	010b390b 	tsteq	fp, fp, lsl #18
     420:	0d000013 	stceq	0, cr0, [r0, #-76]	; 0xffffffb4
     424:	0e03000d 	cdpeq	0, 0, cr0, cr3, cr13, {0}
     428:	0b3b0b3a 	bleq	ec3118 <__bss_end__+0xeb8ec0>
     42c:	13490b39 	movtne	r0, #39737	; 0x9b39
     430:	00000b38 	andeq	r0, r0, r8, lsr fp
     434:	0300340e 	movweq	r3, #1038	; 0x40e
     438:	3b0b3a08 	blcc	2cec60 <__bss_end__+0x2c4a08>
     43c:	490b390b 	stmdbmi	fp, {r0, r1, r3, r8, fp, ip, sp}
     440:	0f000013 	svceq	0x00000013
     444:	0b0b000f 	bleq	2c0488 <__bss_end__+0x2b6230>
     448:	00001349 	andeq	r1, r0, r9, asr #6
     44c:	03003410 	movweq	r3, #1040	; 0x410
     450:	3b0b3a0e 	blcc	2cec90 <__bss_end__+0x2c4a38>
     454:	490b3905 	stmdbmi	fp, {r0, r2, r8, fp, ip, sp}
     458:	00180213 	andseq	r0, r8, r3, lsl r2
     45c:	012e1100 			; <UNDEFINED> instruction: 0x012e1100
     460:	0b3a0e03 	bleq	e83c74 <__bss_end__+0xe79a1c>
     464:	0b39053b 	bleq	e41958 <__bss_end__+0xe37700>
     468:	13011927 	movwne	r1, #6439	; 0x1927
     46c:	34120000 	ldrcc	r0, [r2], #-0
     470:	490e0300 	stmdbmi	lr, {r8, r9}
     474:	1c193413 	cfldrsne	mvf3, [r9], {19}
     478:	1300000e 	movwne	r0, #14
     47c:	1301010b 	movwne	r0, #4363	; 0x110b
     480:	17140000 	ldrne	r0, [r4, -r0]
     484:	0b080301 	bleq	201090 <__bss_end__+0x1f6e38>
     488:	3b0b3a0b 	blcc	2cecbc <__bss_end__+0x2c4a64>
     48c:	010b3905 	tsteq	fp, r5, lsl #18
     490:	15000013 	strne	r0, [r0, #-19]	; 0xffffffed
     494:	0803000d 	stmdaeq	r3, {r0, r2, r3}
     498:	053b0b3a 	ldreq	r0, [fp, #-2874]!	; 0xfffff4c6
     49c:	13490b39 	movtne	r0, #39737	; 0x9b39
     4a0:	34160000 	ldrcc	r0, [r6], #-0
     4a4:	3a080300 	bcc	2010ac <__bss_end__+0x1f6e54>
     4a8:	39053b0b 	stmdbcc	r5, {r0, r1, r3, r8, r9, fp, ip, sp}
     4ac:	0013490b 	andseq	r4, r3, fp, lsl #18
     4b0:	00341700 	eorseq	r1, r4, r0, lsl #14
     4b4:	0b3a0e03 	bleq	e83cc8 <__bss_end__+0xe79a70>
     4b8:	0b39053b 	bleq	e419ac <__bss_end__+0xe37754>
     4bc:	00001349 	andeq	r1, r0, r9, asr #6
     4c0:	00010b18 	andeq	r0, r1, r8, lsl fp
     4c4:	01011900 	tsteq	r1, r0, lsl #18
     4c8:	13011349 	movwne	r1, #4937	; 0x1349
     4cc:	211a0000 	tstcs	sl, r0
     4d0:	2f134900 	svccs	0x00134900
     4d4:	1b00000b 	blne	508 <__code_start__-0x7af8>
     4d8:	193f012e 	ldmdbne	pc!, {r1, r2, r3, r5, r8}	; <UNPREDICTABLE>
     4dc:	0b3a0e03 	bleq	e83cf0 <__bss_end__+0xe79a98>
     4e0:	0b39053b 	bleq	e419d4 <__bss_end__+0xe3777c>
     4e4:	01111927 	tsteq	r1, r7, lsr #18
     4e8:	18400612 	stmdane	r0, {r1, r4, r9, sl}^
     4ec:	01194297 			; <UNDEFINED> instruction: 0x01194297
     4f0:	1c000013 	stcne	0, cr0, [r0], {19}
     4f4:	08030034 	stmdaeq	r3, {r2, r4, r5}
     4f8:	053b0b3a 	ldreq	r0, [fp, #-2874]!	; 0xfffff4c6
     4fc:	13490b39 	movtne	r0, #39737	; 0x9b39
     500:	00000b1c 	andeq	r0, r0, ip, lsl fp
     504:	0300341d 	movweq	r3, #1053	; 0x41d
     508:	3413490e 	ldrcc	r4, [r3], #-2318	; 0xfffff6f2
     50c:	00180219 	andseq	r0, r8, r9, lsl r2
     510:	010b1e00 	tsteq	fp, r0, lsl #28
     514:	06120111 			; <UNDEFINED> instruction: 0x06120111
     518:	00001301 	andeq	r1, r0, r1, lsl #6
     51c:	0182891f 	orreq	r8, r2, pc, lsl r9
     520:	31011100 	mrscc	r1, (UNDEF: 17)
     524:	20000013 	andcs	r0, r0, r3, lsl r0
     528:	01018289 	smlabbeq	r1, r9, r2, r8
     52c:	13310111 	teqne	r1, #1073741828	; 0x40000004
     530:	00001301 	andeq	r1, r0, r1, lsl #6
     534:	01828a21 	orreq	r8, r2, r1, lsr #20
     538:	91180200 	tstls	r8, r0, lsl #4
     53c:	00001842 	andeq	r1, r0, r2, asr #16
     540:	3f002e22 	svccc	0x00002e22
     544:	3a0e0319 	bcc	3811b0 <__bss_end__+0x376f58>
     548:	39053b0b 	stmdbcc	r5, {r0, r1, r3, r8, r9, fp, ip, sp}
     54c:	4919270b 	ldmdbmi	r9, {r0, r1, r3, r8, r9, sl, sp}
     550:	12011113 	andne	r1, r1, #-1073741820	; 0xc0000004
     554:	97184006 	ldrls	r4, [r8, -r6]
     558:	00001942 	andeq	r1, r0, r2, asr #18
     55c:	3f012e23 	svccc	0x00012e23
     560:	3a0e0319 	bcc	3811cc <__bss_end__+0x376f74>
     564:	39053b0b 	stmdbcc	r5, {r0, r1, r3, r8, r9, fp, ip, sp}
     568:	4919270b 	ldmdbmi	r9, {r0, r1, r3, r8, r9, sl, sp}
     56c:	12011113 	andne	r1, r1, #-1073741820	; 0xc0000004
     570:	97184006 	ldrls	r4, [r8, -r6]
     574:	13011942 	movwne	r1, #6466	; 0x1942
     578:	05240000 	streq	r0, [r4, #-0]!
     57c:	3a0e0300 	bcc	381184 <__bss_end__+0x376f2c>
     580:	39053b0b 	stmdbcc	r5, {r0, r1, r3, r8, r9, fp, ip, sp}
     584:	0213490b 	andseq	r4, r3, #180224	; 0x2c000
     588:	1742b717 	smlaldne	fp, r2, r7, r7
     58c:	34250000 	strtcc	r0, [r5], #-0
     590:	3a080300 	bcc	201198 <__bss_end__+0x1f6f40>
     594:	39053b0b 	stmdbcc	r5, {r0, r1, r3, r8, r9, fp, ip, sp}
     598:	0213490b 	andseq	r4, r3, #180224	; 0x2c000
     59c:	1742b717 	smlaldne	fp, r2, r7, r7
     5a0:	2e260000 	cdpcs	0, 2, cr0, cr6, cr0, {0}
     5a4:	3a0e0301 	bcc	3811b0 <__bss_end__+0x376f58>
     5a8:	39053b0b 	stmdbcc	r5, {r0, r1, r3, r8, r9, fp, ip, sp}
     5ac:	1119270b 	tstne	r9, fp, lsl #14
     5b0:	40061201 	andmi	r1, r6, r1, lsl #4
     5b4:	19429718 	stmdbne	r2, {r3, r4, r8, r9, sl, ip, pc}^
     5b8:	00001301 	andeq	r1, r0, r1, lsl #6
     5bc:	03012e27 	movweq	r2, #7719	; 0x1e27
     5c0:	3b0b3a0e 	blcc	2cee00 <__bss_end__+0x2c4ba8>
     5c4:	270b390b 	strcs	r3, [fp, -fp, lsl #18]
     5c8:	12011119 	andne	r1, r1, #1073741830	; 0x40000006
     5cc:	97184006 	ldrls	r4, [r8, -r6]
     5d0:	13011942 	movwne	r1, #6466	; 0x1942
     5d4:	05280000 	streq	r0, [r8, #-0]!
     5d8:	3a0e0300 	bcc	3811e0 <__bss_end__+0x376f88>
     5dc:	390b3b0b 	stmdbcc	fp, {r0, r1, r3, r8, r9, fp, ip, sp}
     5e0:	0213490b 	andseq	r4, r3, #180224	; 0x2c000
     5e4:	1742b717 	smlaldne	fp, r2, r7, r7
     5e8:	17290000 	strne	r0, [r9, -r0]!
     5ec:	0b080301 	bleq	2011f8 <__bss_end__+0x1f6fa0>
     5f0:	3b0b3a0b 	blcc	2cee24 <__bss_end__+0x2c4bcc>
     5f4:	010b390b 	tsteq	fp, fp, lsl #18
     5f8:	2a000013 	bcs	64c <__code_start__-0x79b4>
     5fc:	0803000d 	stmdaeq	r3, {r0, r2, r3}
     600:	0b3b0b3a 	bleq	ec32f0 <__bss_end__+0xeb9098>
     604:	13490b39 	movtne	r0, #39737	; 0x9b39
     608:	892b0000 	stmdbhi	fp!, {}	; <UNPREDICTABLE>
     60c:	11010182 	smlabbne	r1, r2, r1, r0
     610:	00133101 	andseq	r3, r3, r1, lsl #2
     614:	012e2c00 			; <UNDEFINED> instruction: 0x012e2c00
     618:	0b3a0e03 	bleq	e83e2c <__bss_end__+0xe79bd4>
     61c:	0b390b3b 	bleq	e43310 <__bss_end__+0xe390b8>
     620:	13491927 	movtne	r1, #39207	; 0x9927
     624:	06120111 			; <UNDEFINED> instruction: 0x06120111
     628:	42971840 	addsmi	r1, r7, #64, 16	; 0x400000
     62c:	00130119 	andseq	r0, r3, r9, lsl r1
     630:	00052d00 	andeq	r2, r5, r0, lsl #26
     634:	0b3a0803 	bleq	e82648 <__bss_end__+0xe783f0>
     638:	0b390b3b 	bleq	e4332c <__bss_end__+0xe390d4>
     63c:	17021349 	strne	r1, [r2, -r9, asr #6]
     640:	001742b7 			; <UNDEFINED> instruction: 0x001742b7
     644:	002e2e00 	eoreq	r2, lr, r0, lsl #28
     648:	193c193f 	ldmdbne	ip!, {r0, r1, r2, r3, r4, r5, r8, fp, ip}
     64c:	0e030e6e 	cdpeq	14, 0, cr0, cr3, cr14, {3}
     650:	0b3b0b3a 	bleq	ec3340 <__bss_end__+0xeb90e8>
     654:	00000b39 	andeq	r0, r0, r9, lsr fp
     658:	01110100 	tsteq	r1, r0, lsl #2
     65c:	0b130e25 	bleq	4c3ef8 <__bss_end__+0x4b9ca0>
     660:	0e1b0e03 	cdpeq	14, 1, cr0, cr11, cr3, {0}
     664:	06120111 			; <UNDEFINED> instruction: 0x06120111
     668:	00001710 	andeq	r1, r0, r0, lsl r7
     66c:	0b002402 	bleq	967c <rpi_reboot+0x54>
     670:	030b3e0b 	movweq	r3, #48651	; 0xbe0b
     674:	0300000e 	movweq	r0, #14
     678:	0b0b0024 	bleq	2c0710 <__bss_end__+0x2b64b8>
     67c:	08030b3e 	stmdaeq	r3, {r1, r2, r3, r4, r5, r8, r9, fp}
     680:	26040000 	strcs	r0, [r4], -r0
     684:	00134900 	andseq	r4, r3, r0, lsl #18
     688:	00160500 	andseq	r0, r6, r0, lsl #10
     68c:	0b3a0e03 	bleq	e83ea0 <__bss_end__+0xe79c48>
     690:	0b390b3b 	bleq	e43384 <__bss_end__+0xe3912c>
     694:	00001349 	andeq	r1, r0, r9, asr #6
     698:	27011506 	strcs	r1, [r1, -r6, lsl #10]
     69c:	01134919 	tsteq	r3, r9, lsl r9
     6a0:	07000013 	smladeq	r0, r3, r0, r0
     6a4:	13490005 	movtne	r0, #36869	; 0x9005
     6a8:	34080000 	strcc	r0, [r8], #-0
     6ac:	3a0e0300 	bcc	3812b4 <__bss_end__+0x37705c>
     6b0:	390b3b0b 	stmdbcc	fp, {r0, r1, r3, r8, r9, fp, ip, sp}
     6b4:	3f13490b 	svccc	0x0013490b
     6b8:	00193c19 	andseq	r3, r9, r9, lsl ip
     6bc:	000f0900 	andeq	r0, pc, r0, lsl #18
     6c0:	13490b0b 	movtne	r0, #39691	; 0x9b0b
     6c4:	040a0000 	streq	r0, [sl], #-0
     6c8:	0b0b3e01 	bleq	2cfed4 <__bss_end__+0x2c5c7c>
     6cc:	3a13490b 	bcc	4d2b00 <__bss_end__+0x4c88a8>
     6d0:	390b3b0b 	stmdbcc	fp, {r0, r1, r3, r8, r9, fp, ip, sp}
     6d4:	0013010b 	andseq	r0, r3, fp, lsl #2
     6d8:	00280b00 	eoreq	r0, r8, r0, lsl #22
     6dc:	0b1c0e03 	bleq	703ef0 <__bss_end__+0x6f9c98>
     6e0:	340c0000 	strcc	r0, [ip], #-0
     6e4:	3a0e0300 	bcc	3812ec <__bss_end__+0x377094>
     6e8:	390b3b0b 	stmdbcc	fp, {r0, r1, r3, r8, r9, fp, ip, sp}
     6ec:	1c13490b 			; <UNDEFINED> instruction: 0x1c13490b
     6f0:	0d000006 	stceq	0, cr0, [r0, #-24]	; 0xffffffe8
     6f4:	193f012e 	ldmdbne	pc!, {r1, r2, r3, r5, r8}	; <UNPREDICTABLE>
     6f8:	0b3a0e03 	bleq	e83f0c <__bss_end__+0xe79cb4>
     6fc:	0b390b3b 	bleq	e433f0 <__bss_end__+0xe39198>
     700:	13491927 	movtne	r1, #39207	; 0x9927
     704:	06120111 			; <UNDEFINED> instruction: 0x06120111
     708:	42971840 	addsmi	r1, r7, #64, 16	; 0x400000
     70c:	00130119 	andseq	r0, r3, r9, lsl r1
     710:	00050e00 	andeq	r0, r5, r0, lsl #28
     714:	0b3a0803 	bleq	e82728 <__bss_end__+0xe784d0>
     718:	0b390b3b 	bleq	e4340c <__bss_end__+0xe391b4>
     71c:	17021349 	strne	r1, [r2, -r9, asr #6]
     720:	001742b7 			; <UNDEFINED> instruction: 0x001742b7
     724:	00340f00 	eorseq	r0, r4, r0, lsl #30
     728:	0b3a0e03 	bleq	e83f3c <__bss_end__+0xe79ce4>
     72c:	0b390b3b 	bleq	e43420 <__bss_end__+0xe391c8>
     730:	17021349 	strne	r1, [r2, -r9, asr #6]
     734:	001742b7 			; <UNDEFINED> instruction: 0x001742b7
     738:	00341000 	eorseq	r1, r4, r0
     73c:	0b3a0803 	bleq	e82750 <__bss_end__+0xe784f8>
     740:	0b390b3b 	bleq	e43434 <__bss_end__+0xe391dc>
     744:	17021349 	strne	r1, [r2, -r9, asr #6]
     748:	001742b7 			; <UNDEFINED> instruction: 0x001742b7
     74c:	82891100 	addhi	r1, r9, #0
     750:	01110101 	tsteq	r1, r1, lsl #2
     754:	00001331 	andeq	r1, r0, r1, lsr r3
     758:	01828a12 	orreq	r8, r2, r2, lsl sl
     75c:	91180200 	tstls	r8, r0, lsl #4
     760:	00001842 	andeq	r1, r0, r2, asr #16
     764:	3f012e13 	svccc	0x00012e13
     768:	3a0e0319 	bcc	3813d4 <__bss_end__+0x37717c>
     76c:	390b3b0b 	stmdbcc	fp, {r0, r1, r3, r8, r9, fp, ip, sp}
     770:	1119270b 	tstne	r9, fp, lsl #14
     774:	40061201 	andmi	r1, r6, r1, lsl #4
     778:	19429718 	stmdbne	r2, {r3, r4, r8, r9, sl, ip, pc}^
     77c:	00001301 	andeq	r1, r0, r1, lsl #6
     780:	31011d14 	tstcc	r1, r4, lsl sp
     784:	b8015213 	stmdalt	r1, {r0, r1, r4, r9, ip, lr}
     788:	17550b42 	ldrbne	r0, [r5, -r2, asr #22]
     78c:	0b590b58 	bleq	16434f4 <__bss_end__+0x163929c>
     790:	13010b57 	movwne	r0, #6999	; 0x1b57
     794:	05150000 	ldreq	r0, [r5, #-0]
     798:	02133100 	andseq	r3, r3, #0
     79c:	1742b717 	smlaldne	fp, r2, r7, r7
     7a0:	89160000 	ldmdbhi	r6, {}	; <UNPREDICTABLE>
     7a4:	11010182 	smlabbne	r1, r2, r1, r0
     7a8:	19429501 	stmdbne	r2, {r0, r8, sl, ip, pc}^
     7ac:	00001331 	andeq	r1, r0, r1, lsr r3
     7b0:	31011d17 	tstcc	r1, r7, lsl sp
     7b4:	b8015213 	stmdalt	r1, {r0, r1, r4, r9, ip, lr}
     7b8:	01110b42 	tsteq	r1, r2, asr #22
     7bc:	0b580612 	bleq	160200c <__bss_end__+0x15f7db4>
     7c0:	0b570b59 	bleq	15c352c <__bss_end__+0x15b92d4>
     7c4:	1d180000 	ldcne	0, cr0, [r8, #-0]
     7c8:	52133101 	andspl	r3, r3, #1073741824	; 0x40000000
     7cc:	0b42b801 	bleq	10ae7d8 <__bss_end__+0x10a4580>
     7d0:	0b581755 	bleq	160652c <__bss_end__+0x15fc2d4>
     7d4:	0b570b59 	bleq	15c3540 <__bss_end__+0x15b92e8>
     7d8:	05190000 	ldreq	r0, [r9, #-0]
     7dc:	1c133100 	ldfnes	f3, [r3], {-0}
     7e0:	1a00000b 	bne	814 <__code_start__-0x77ec>
     7e4:	1755010b 	ldrbne	r0, [r5, -fp, lsl #2]
     7e8:	341b0000 	ldrcc	r0, [fp], #-0
     7ec:	00133100 	andseq	r3, r3, r0, lsl #2
     7f0:	00341c00 	eorseq	r1, r4, r0, lsl #24
     7f4:	17021331 	smladxne	r2, r1, r3, r1
     7f8:	001742b7 			; <UNDEFINED> instruction: 0x001742b7
     7fc:	82891d00 	addhi	r1, r9, #0, 26
     800:	01110101 	tsteq	r1, r1, lsl #2
     804:	13011331 	movwne	r1, #4913	; 0x1331
     808:	2e1e0000 	cdpcs	0, 1, cr0, cr14, cr0, {0}
     80c:	03193f01 	tsteq	r9, #1, 30
     810:	3b0b3a0e 	blcc	2cf050 <__bss_end__+0x2c4df8>
     814:	270b390b 	strcs	r3, [fp, -fp, lsl #18]
     818:	010b2019 	tsteq	fp, r9, lsl r0
     81c:	1f000013 	svcne	0x00000013
     820:	08030005 	stmdaeq	r3, {r0, r2}
     824:	0b3b0b3a 	bleq	ec3514 <__bss_end__+0xeb92bc>
     828:	13490b39 	movtne	r0, #39737	; 0x9b39
     82c:	05200000 	streq	r0, [r0, #-0]!
     830:	3a0e0300 	bcc	381438 <__bss_end__+0x3771e0>
     834:	390b3b0b 	stmdbcc	fp, {r0, r1, r3, r8, r9, fp, ip, sp}
     838:	0013490b 	andseq	r4, r3, fp, lsl #18
     83c:	00342100 	eorseq	r2, r4, r0, lsl #2
     840:	0b3a0803 	bleq	e82854 <__bss_end__+0xe785fc>
     844:	0b390b3b 	bleq	e43538 <__bss_end__+0xe392e0>
     848:	00001349 	andeq	r1, r0, r9, asr #6
     84c:	03012e22 	movweq	r2, #7714	; 0x1e22
     850:	3b0b3a0e 	blcc	2cf090 <__bss_end__+0x2c4e38>
     854:	270b390b 	strcs	r3, [fp, -fp, lsl #18]
     858:	20134919 	andscs	r4, r3, r9, lsl r9
     85c:	0013010b 	andseq	r0, r3, fp, lsl #2
     860:	012e2300 			; <UNDEFINED> instruction: 0x012e2300
     864:	01111331 	tsteq	r1, r1, lsr r3
     868:	18400612 	stmdane	r0, {r1, r4, r9, sl}^
     86c:	01194297 			; <UNDEFINED> instruction: 0x01194297
     870:	24000013 	strcs	r0, [r0], #-19	; 0xffffffed
     874:	193f002e 	ldmdbne	pc!, {r1, r2, r3, r5}	; <UNPREDICTABLE>
     878:	0e6e193c 			; <UNDEFINED> instruction: 0x0e6e193c
     87c:	0b3a0e03 	bleq	e84090 <__bss_end__+0xe79e38>
     880:	0b390b3b 	bleq	e43574 <__bss_end__+0xe3931c>
     884:	01000000 	mrseq	r0, (UNDEF: 0)
     888:	0e250111 	mcreq	1, 1, r0, cr5, cr1, {0}
     88c:	0e030b13 	vmoveq.32	d3[0], r0
     890:	01110e1b 	tsteq	r1, fp, lsl lr
     894:	17100612 			; <UNDEFINED> instruction: 0x17100612
     898:	16020000 	strne	r0, [r2], -r0
     89c:	3a0e0300 	bcc	3814a4 <__bss_end__+0x37724c>
     8a0:	390b3b0b 	stmdbcc	fp, {r0, r1, r3, r8, r9, fp, ip, sp}
     8a4:	0013490b 	andseq	r4, r3, fp, lsl #18
     8a8:	01130300 	tsteq	r3, r0, lsl #6
     8ac:	0b0b0e03 	bleq	2c40c0 <__bss_end__+0x2b9e68>
     8b0:	0b3b0b3a 	bleq	ec35a0 <__bss_end__+0xeb9348>
     8b4:	00001301 	andeq	r1, r0, r1, lsl #6
     8b8:	03000d04 	movweq	r0, #3332	; 0xd04
     8bc:	3813490e 	ldmdacc	r3, {r1, r2, r3, r8, fp, lr}
     8c0:	0019340b 	andseq	r3, r9, fp, lsl #8
     8c4:	000f0500 	andeq	r0, pc, r0, lsl #10
     8c8:	00000b0b 	andeq	r0, r0, fp, lsl #22
     8cc:	0b002406 	bleq	98ec <uart_getc+0x20>
     8d0:	030b3e0b 	movweq	r3, #48651	; 0xbe0b
     8d4:	07000008 	streq	r0, [r0, -r8]
     8d8:	0b0b0024 	bleq	2c0970 <__bss_end__+0x2b6718>
     8dc:	0e030b3e 	vmoveq.16	d3[0], r0
     8e0:	15080000 	strne	r0, [r8, #-0]
     8e4:	49192701 	ldmdbmi	r9, {r0, r8, r9, sl, sp}
     8e8:	00130113 	andseq	r0, r3, r3, lsl r1
     8ec:	00050900 	andeq	r0, r5, r0, lsl #18
     8f0:	00001349 	andeq	r1, r0, r9, asr #6
     8f4:	0300340a 	movweq	r3, #1034	; 0x40a
     8f8:	3b0b3a0e 	blcc	2cf138 <__bss_end__+0x2c4ee0>
     8fc:	490b390b 	stmdbmi	fp, {r0, r1, r3, r8, fp, ip, sp}
     900:	3c193f13 	ldccc	15, cr3, [r9], {19}
     904:	0b000019 	bleq	970 <__code_start__-0x7690>
     908:	0b0b000f 	bleq	2c094c <__bss_end__+0x2b66f4>
     90c:	00001349 	andeq	r1, r0, r9, asr #6
     910:	4900260c 	stmdbmi	r0, {r2, r3, r9, sl, sp}
     914:	0d000013 	stceq	0, cr0, [r0, #-76]	; 0xffffffb4
     918:	193f012e 	ldmdbne	pc!, {r1, r2, r3, r5, r8}	; <UNPREDICTABLE>
     91c:	0b3a0e03 	bleq	e84130 <__bss_end__+0xe79ed8>
     920:	0b390b3b 	bleq	e43614 <__bss_end__+0xe393bc>
     924:	13491927 	movtne	r1, #39207	; 0x9927
     928:	06120111 			; <UNDEFINED> instruction: 0x06120111
     92c:	42971840 	addsmi	r1, r7, #64, 16	; 0x400000
     930:	00130119 	andseq	r0, r3, r9, lsl r1
     934:	00050e00 	andeq	r0, r5, r0, lsl #28
     938:	0b3a0803 	bleq	e8294c <__bss_end__+0xe786f4>
     93c:	0b390b3b 	bleq	e43630 <__bss_end__+0xe393d8>
     940:	18021349 	stmdane	r2, {r0, r3, r6, r8, r9, ip}
     944:	180f0000 	stmdane	pc, {}	; <UNPREDICTABLE>
     948:	10000000 	andne	r0, r0, r0
     94c:	08030034 	stmdaeq	r3, {r2, r4, r5}
     950:	0b3b0b3a 	bleq	ec3640 <__bss_end__+0xeb93e8>
     954:	13490b39 	movtne	r0, #39737	; 0x9b39
     958:	00001802 	andeq	r1, r0, r2, lsl #16
     95c:	03003411 	movweq	r3, #1041	; 0x411
     960:	3b0b3a0e 	blcc	2cf1a0 <__bss_end__+0x2c4f48>
     964:	490b390b 	stmdbmi	fp, {r0, r1, r3, r8, fp, ip, sp}
     968:	00180213 	andseq	r0, r8, r3, lsl r2
     96c:	00341200 	eorseq	r1, r4, r0, lsl #4
     970:	0b3a0803 	bleq	e82984 <__bss_end__+0xe7872c>
     974:	0b390b3b 	bleq	e43668 <__bss_end__+0xe39410>
     978:	17021349 	strne	r1, [r2, -r9, asr #6]
     97c:	001742b7 			; <UNDEFINED> instruction: 0x001742b7
     980:	82891300 	addhi	r1, r9, #0, 6
     984:	01110101 	tsteq	r1, r1, lsl #2
     988:	13011331 	movwne	r1, #4913	; 0x1331
     98c:	8a140000 	bhi	500994 <__bss_end__+0x4f673c>
     990:	02000182 	andeq	r0, r0, #-2147483616	; 0x80000020
     994:	18429118 	stmdane	r2, {r3, r4, r8, ip, pc}^
     998:	89150000 	ldmdbhi	r5, {}	; <UNPREDICTABLE>
     99c:	11010182 	smlabbne	r1, r2, r1, r0
     9a0:	16000001 	strne	r0, [r0], -r1
     9a4:	13490101 	movtne	r0, #37121	; 0x9101
     9a8:	00001301 	andeq	r1, r0, r1, lsl #6
     9ac:	49002117 	stmdbmi	r0, {r0, r1, r2, r4, r8, sp}
     9b0:	00052f13 	andeq	r2, r5, r3, lsl pc
     9b4:	002e1800 	eoreq	r1, lr, r0, lsl #16
     9b8:	193c193f 	ldmdbne	ip!, {r0, r1, r2, r3, r4, r5, r8, fp, ip}
     9bc:	0e030e6e 	cdpeq	14, 0, cr0, cr3, cr14, {3}
     9c0:	0b3b0b3a 	bleq	ec36b0 <__bss_end__+0xeb9458>
     9c4:	00000b39 	andeq	r0, r0, r9, lsr fp
     9c8:	01110100 	tsteq	r1, r0, lsl #2
     9cc:	0b130e25 	bleq	4c4268 <__bss_end__+0x4ba010>
     9d0:	0e1b0e03 	cdpeq	14, 1, cr0, cr11, cr3, {0}
     9d4:	06120111 			; <UNDEFINED> instruction: 0x06120111
     9d8:	00001710 	andeq	r1, r0, r0, lsl r7
     9dc:	0b002402 	bleq	99ec <strcmp+0x2c>
     9e0:	030b3e0b 	movweq	r3, #48651	; 0xbe0b
     9e4:	03000008 	movweq	r0, #8
     9e8:	0b0b0024 	bleq	2c0a80 <__bss_end__+0x2b6828>
     9ec:	0e030b3e 	vmoveq.16	d3[0], r0
     9f0:	15040000 	strne	r0, [r4, #-0]
     9f4:	49192701 	ldmdbmi	r9, {r0, r8, r9, sl, sp}
     9f8:	00130113 	andseq	r0, r3, r3, lsl r1
     9fc:	00050500 	andeq	r0, r5, r0, lsl #10
     a00:	00001349 	andeq	r1, r0, r9, asr #6
     a04:	03003406 	movweq	r3, #1030	; 0x406
     a08:	3b0b3a0e 	blcc	2cf248 <__bss_end__+0x2c4ff0>
     a0c:	490b390b 	stmdbmi	fp, {r0, r1, r3, r8, fp, ip, sp}
     a10:	3c193f13 	ldccc	15, cr3, [r9], {19}
     a14:	07000019 	smladeq	r0, r9, r0, r0
     a18:	0b0b000f 	bleq	2c0a5c <__bss_end__+0x2b6804>
     a1c:	00001349 	andeq	r1, r0, r9, asr #6
     a20:	49002608 	stmdbmi	r0, {r3, r9, sl, sp}
     a24:	09000013 	stmdbeq	r0, {r0, r1, r4}
     a28:	13470034 	movtne	r0, #28724	; 0x7034
     a2c:	0b3b0b3a 	bleq	ec371c <__bss_end__+0xeb94c4>
     a30:	18020b39 	stmdane	r2, {r0, r3, r4, r5, r8, r9, fp}
     a34:	2e0a0000 	cdpcs	0, 0, cr0, cr10, cr0, {0}
     a38:	03193f01 	tsteq	r9, #1, 30
     a3c:	3b0b3a0e 	blcc	2cf27c <__bss_end__+0x2c5024>
     a40:	270b390b 	strcs	r3, [fp, -fp, lsl #18]
     a44:	12011119 	andne	r1, r1, #1073741830	; 0x40000006
     a48:	97184006 	ldrls	r4, [r8, -r6]
     a4c:	13011942 	movwne	r1, #6466	; 0x1942
     a50:	050b0000 	streq	r0, [fp, #-0]
     a54:	3a080300 	bcc	20165c <__bss_end__+0x1f7404>
     a58:	390b3b0b 	stmdbcc	fp, {r0, r1, r3, r8, r9, fp, ip, sp}
     a5c:	0213490b 	andseq	r4, r3, #180224	; 0x2c000
     a60:	0c000018 	stceq	0, cr0, [r0], {24}
     a64:	193f002e 	ldmdbne	pc!, {r1, r2, r3, r5}	; <UNPREDICTABLE>
     a68:	0b3a0e03 	bleq	e8427c <__bss_end__+0xe7a024>
     a6c:	0b390b3b 	bleq	e43760 <__bss_end__+0xe39508>
     a70:	01111927 	tsteq	r1, r7, lsr #18
     a74:	18400612 	stmdane	r0, {r1, r4, r9, sl}^
     a78:	00194297 	mulseq	r9, r7, r2
     a7c:	012e0d00 			; <UNDEFINED> instruction: 0x012e0d00
     a80:	0b3a0e03 	bleq	e84294 <__bss_end__+0xe7a03c>
     a84:	0b390b3b 	bleq	e43778 <__bss_end__+0xe39520>
     a88:	13491927 	movtne	r1, #39207	; 0x9927
     a8c:	06120111 			; <UNDEFINED> instruction: 0x06120111
     a90:	42971840 	addsmi	r1, r7, #64, 16	; 0x400000
     a94:	00130119 	andseq	r0, r3, r9, lsl r1
     a98:	00050e00 	andeq	r0, r5, r0, lsl #28
     a9c:	0b3a0803 	bleq	e82ab0 <__bss_end__+0xe78858>
     aa0:	0b390b3b 	bleq	e43794 <__bss_end__+0xe3953c>
     aa4:	17021349 	strne	r1, [r2, -r9, asr #6]
     aa8:	001742b7 			; <UNDEFINED> instruction: 0x001742b7
     aac:	82890f00 	addhi	r0, r9, #0, 30
     ab0:	01110101 	tsteq	r1, r1, lsl #2
     ab4:	00001331 	andeq	r1, r0, r1, lsr r3
     ab8:	01828a10 	orreq	r8, r2, r0, lsl sl
     abc:	91180200 	tstls	r8, r0, lsl #4
     ac0:	00001842 	andeq	r1, r0, r2, asr #16
     ac4:	3f002e11 	svccc	0x00002e11
     ac8:	6e193c19 	mrcvs	12, 0, r3, cr9, cr9, {0}
     acc:	3a0e030e 	bcc	38170c <__bss_end__+0x3774b4>
     ad0:	390b3b0b 	stmdbcc	fp, {r0, r1, r3, r8, r9, fp, ip, sp}
     ad4:	0000000b 	andeq	r0, r0, fp
     ad8:	25011101 	strcs	r1, [r1, #-257]	; 0xfffffeff
     adc:	030b130e 	movweq	r1, #45838	; 0xb30e
     ae0:	110e1b0e 	tstne	lr, lr, lsl #22
     ae4:	10061201 	andne	r1, r6, r1, lsl #4
     ae8:	02000017 	andeq	r0, r0, #23, 0
     aec:	0b0b0024 	bleq	2c0b84 <__bss_end__+0x2b692c>
     af0:	08030b3e 	stmdaeq	r3, {r1, r2, r3, r4, r5, r8, r9, fp}
     af4:	24030000 	strcs	r0, [r3], #-0
     af8:	3e0b0b00 	vmlacc.f64	d0, d11, d0
     afc:	000e030b 	andeq	r0, lr, fp, lsl #6
     b00:	01150400 	tsteq	r5, r0, lsl #8
     b04:	13491927 	movtne	r1, #39207	; 0x9927
     b08:	00001301 	andeq	r1, r0, r1, lsl #6
     b0c:	49000505 	stmdbmi	r0, {r0, r2, r8, sl}
     b10:	06000013 			; <UNDEFINED> instruction: 0x06000013
     b14:	0e030034 	mcreq	0, 0, r0, cr3, cr4, {1}
     b18:	0b3b0b3a 	bleq	ec3808 <__bss_end__+0xeb95b0>
     b1c:	13490b39 	movtne	r0, #39737	; 0x9b39
     b20:	193c193f 	ldmdbne	ip!, {r0, r1, r2, r3, r4, r5, r8, fp, ip}
     b24:	0f070000 	svceq	0x00070000
     b28:	490b0b00 	stmdbmi	fp, {r8, r9, fp}
     b2c:	08000013 	stmdaeq	r0, {r0, r1, r4}
     b30:	13490026 	movtne	r0, #36902	; 0x9026
     b34:	34090000 	strcc	r0, [r9], #-0
     b38:	3a134700 	bcc	4d2740 <__bss_end__+0x4c84e8>
     b3c:	390b3b0b 	stmdbcc	fp, {r0, r1, r3, r8, r9, fp, ip, sp}
     b40:	0018020b 	andseq	r0, r8, fp, lsl #4
     b44:	012e0a00 			; <UNDEFINED> instruction: 0x012e0a00
     b48:	0e03193f 			; <UNDEFINED> instruction: 0x0e03193f
     b4c:	0b3b0b3a 	bleq	ec383c <__bss_end__+0xeb95e4>
     b50:	19270b39 	stmdbne	r7!, {r0, r3, r4, r5, r8, r9, fp}
     b54:	01111349 	tsteq	r1, r9, asr #6
     b58:	18400612 	stmdane	r0, {r1, r4, r9, sl}^
     b5c:	00194296 	mulseq	r9, r6, r2
     b60:	00050b00 	andeq	r0, r5, r0, lsl #22
     b64:	0b3a0803 	bleq	e82b78 <__bss_end__+0xe78920>
     b68:	0b390b3b 	bleq	e4385c <__bss_end__+0xe39604>
     b6c:	17021349 	strne	r1, [r2, -r9, asr #6]
     b70:	001742b7 			; <UNDEFINED> instruction: 0x001742b7
     b74:	11010000 	mrsne	r0, (UNDEF: 1)
     b78:	130e2501 	movwne	r2, #58625	; 0xe501
     b7c:	1b0e030b 	blne	3817b0 <__bss_end__+0x377558>
     b80:	1201110e 	andne	r1, r1, #-2147483645	; 0x80000003
     b84:	00171006 	andseq	r1, r7, r6
     b88:	00240200 	eoreq	r0, r4, r0, lsl #4
     b8c:	0b3e0b0b 	bleq	f837c0 <__bss_end__+0xf79568>
     b90:	00000e03 	andeq	r0, r0, r3, lsl #28
     b94:	0b002403 	bleq	9ba8 <__FUNCTION__.4073+0x18>
     b98:	030b3e0b 	movweq	r3, #48651	; 0xbe0b
     b9c:	04000008 	streq	r0, [r0], #-8
     ba0:	0e030016 	mcreq	0, 0, r0, cr3, cr6, {0}
     ba4:	0b3b0b3a 	bleq	ec3894 <__bss_end__+0xeb963c>
     ba8:	13490b39 	movtne	r0, #39737	; 0x9b39
     bac:	15050000 	strne	r0, [r5, #-0]
     bb0:	49192701 	ldmdbmi	r9, {r0, r8, r9, sl, sp}
     bb4:	00130113 	andseq	r0, r3, r3, lsl r1
     bb8:	00050600 	andeq	r0, r5, r0, lsl #12
     bbc:	00001349 	andeq	r1, r0, r9, asr #6
     bc0:	03003407 	movweq	r3, #1031	; 0x407
     bc4:	3b0b3a0e 	blcc	2cf404 <__bss_end__+0x2c51ac>
     bc8:	490b390b 	stmdbmi	fp, {r0, r1, r3, r8, fp, ip, sp}
     bcc:	3c193f13 	ldccc	15, cr3, [r9], {19}
     bd0:	08000019 	stmdaeq	r0, {r0, r3, r4}
     bd4:	0b0b000f 	bleq	2c0c18 <__bss_end__+0x2b69c0>
     bd8:	00001349 	andeq	r1, r0, r9, asr #6
     bdc:	49002609 	stmdbmi	r0, {r0, r3, r9, sl, sp}
     be0:	0a000013 	beq	c34 <__code_start__-0x73cc>
     be4:	0e030113 	mcreq	1, 0, r0, cr3, cr3, {0}
     be8:	0b3a0b0b 	bleq	e8381c <__bss_end__+0xe795c4>
     bec:	13010b3b 	movwne	r0, #6971	; 0x1b3b
     bf0:	0d0b0000 	stceq	0, cr0, [fp, #-0]
     bf4:	490e0300 	stmdbmi	lr, {r8, r9}
     bf8:	340b3813 	strcc	r3, [fp], #-2067	; 0xfffff7ed
     bfc:	0c000019 	stceq	0, cr0, [r0], {25}
     c00:	0b0b000f 	bleq	2c0c44 <__bss_end__+0x2b69ec>
     c04:	2e0d0000 	cdpcs	0, 0, cr0, cr13, cr0, {0}
     c08:	03193f01 	tsteq	r9, #1, 30
     c0c:	3b0b3a0e 	blcc	2cf44c <__bss_end__+0x2c51f4>
     c10:	270b390b 	strcs	r3, [fp, -fp, lsl #18]
     c14:	11134919 	tstne	r3, r9, lsl r9
     c18:	40061201 	andmi	r1, r6, r1, lsl #4
     c1c:	19429718 	stmdbne	r2, {r3, r4, r8, r9, sl, ip, pc}^
     c20:	00001301 	andeq	r1, r0, r1, lsl #6
     c24:	0300050e 	movweq	r0, #1294	; 0x50e
     c28:	3b0b3a08 	blcc	2cf450 <__bss_end__+0x2c51f8>
     c2c:	490b390b 	stmdbmi	fp, {r0, r1, r3, r8, fp, ip, sp}
     c30:	b7170213 			; <UNDEFINED> instruction: 0xb7170213
     c34:	00001742 	andeq	r1, r0, r2, asr #14
     c38:	0300050f 	movweq	r0, #1295	; 0x50f
     c3c:	3b0b3a0e 	blcc	2cf47c <__bss_end__+0x2c5224>
     c40:	490b390b 	stmdbmi	fp, {r0, r1, r3, r8, fp, ip, sp}
     c44:	b7170213 			; <UNDEFINED> instruction: 0xb7170213
     c48:	00001742 	andeq	r1, r0, r2, asr #14
     c4c:	03003410 	movweq	r3, #1040	; 0x410
     c50:	3b0b3a08 	blcc	2cf478 <__bss_end__+0x2c5220>
     c54:	490b390b 	stmdbmi	fp, {r0, r1, r3, r8, fp, ip, sp}
     c58:	b7170213 			; <UNDEFINED> instruction: 0xb7170213
     c5c:	00001742 	andeq	r1, r0, r2, asr #14
     c60:	03003411 	movweq	r3, #1041	; 0x411
     c64:	3b0b3a0e 	blcc	2cf4a4 <__bss_end__+0x2c524c>
     c68:	490b390b 	stmdbmi	fp, {r0, r1, r3, r8, fp, ip, sp}
     c6c:	b7170213 			; <UNDEFINED> instruction: 0xb7170213
     c70:	00001742 	andeq	r1, r0, r2, asr #14
     c74:	03003412 	movweq	r3, #1042	; 0x412
     c78:	3413490e 	ldrcc	r4, [r3], #-2318	; 0xfffff6f2
     c7c:	00180219 	andseq	r0, r8, r9, lsl r2
     c80:	010b1300 	mrseq	r1, (UNDEF: 59)
     c84:	00001755 	andeq	r1, r0, r5, asr r7
     c88:	03003414 	movweq	r3, #1044	; 0x414
     c8c:	3b0b3a08 	blcc	2cf4b4 <__bss_end__+0x2c525c>
     c90:	490b390b 	stmdbmi	fp, {r0, r1, r3, r8, fp, ip, sp}
     c94:	00180213 	andseq	r0, r8, r3, lsl r2
     c98:	00341500 	eorseq	r1, r4, r0, lsl #10
     c9c:	0b3a0e03 	bleq	e844b0 <__bss_end__+0xe7a258>
     ca0:	0b390b3b 	bleq	e43994 <__bss_end__+0xe3973c>
     ca4:	18021349 	stmdane	r2, {r0, r3, r6, r8, r9, ip}
     ca8:	0b160000 	bleq	580cb0 <__bss_end__+0x576a58>
     cac:	01175501 	tsteq	r7, r1, lsl #10
     cb0:	17000013 	smladne	r0, r3, r0, r0
     cb4:	01018289 	smlabbeq	r1, r9, r2, r8
     cb8:	13310111 	teqne	r1, #1073741828	; 0x40000004
     cbc:	00001301 	andeq	r1, r0, r1, lsl #6
     cc0:	01828a18 	orreq	r8, r2, r8, lsl sl
     cc4:	91180200 	tstls	r8, r0, lsl #4
     cc8:	00001842 	andeq	r1, r0, r2, asr #16
     ccc:	01828919 	orreq	r8, r2, r9, lsl r9
     cd0:	31011100 	mrscc	r1, (UNDEF: 17)
     cd4:	1a000013 	bne	d28 <__code_start__-0x72d8>
     cd8:	1331011d 	teqne	r1, #1073741831	; 0x40000007
     cdc:	42b80152 	adcsmi	r0, r8, #-2147483628	; 0x80000014
     ce0:	58175505 	ldmdapl	r7, {r0, r2, r8, sl, ip, lr}
     ce4:	570b590b 	strpl	r5, [fp, -fp, lsl #18]
     ce8:	0013010b 	andseq	r0, r3, fp, lsl #2
     cec:	00051b00 	andeq	r1, r5, r0, lsl #22
     cf0:	17021331 	smladxne	r2, r1, r3, r1
     cf4:	001742b7 			; <UNDEFINED> instruction: 0x001742b7
     cf8:	00051c00 	andeq	r1, r5, r0, lsl #24
     cfc:	00001331 	andeq	r1, r0, r1, lsr r3
     d00:	3100341d 	tstcc	r0, sp, lsl r4
     d04:	00180213 	andseq	r0, r8, r3, lsl r2
     d08:	00341e00 	eorseq	r1, r4, r0, lsl #28
     d0c:	17021331 	smladxne	r2, r1, r3, r1
     d10:	001742b7 			; <UNDEFINED> instruction: 0x001742b7
     d14:	00341f00 	eorseq	r1, r4, r0, lsl #30
     d18:	00001331 	andeq	r1, r0, r1, lsr r3
     d1c:	31011d20 	tstcc	r1, r0, lsr #26
     d20:	b8015213 	stmdalt	r1, {r0, r1, r4, r9, ip, lr}
     d24:	17550542 	ldrbne	r0, [r5, -r2, asr #10]
     d28:	0b590b58 	bleq	1643a90 <__bss_end__+0x1639838>
     d2c:	00000b57 	andeq	r0, r0, r7, asr fp
     d30:	01828921 	orreq	r8, r2, r1, lsr #18
     d34:	01011101 	tsteq	r1, r1, lsl #2
     d38:	22000013 	andcs	r0, r0, #19, 0
     d3c:	13490101 	movtne	r0, #37121	; 0x9101
     d40:	00001301 	andeq	r1, r0, r1, lsl #6
     d44:	49002123 	stmdbmi	r0, {r0, r1, r5, r8, sp}
     d48:	000b2f13 	andeq	r2, fp, r3, lsl pc
     d4c:	012e2400 			; <UNDEFINED> instruction: 0x012e2400
     d50:	0b3a0e03 	bleq	e84564 <__bss_end__+0xe7a30c>
     d54:	0b390b3b 	bleq	e43a48 <__bss_end__+0xe397f0>
     d58:	13491927 	movtne	r1, #39207	; 0x9927
     d5c:	13010b20 	movwne	r0, #6944	; 0x1b20
     d60:	05250000 	streq	r0, [r5, #-0]!
     d64:	3a0e0300 	bcc	38196c <__bss_end__+0x377714>
     d68:	390b3b0b 	stmdbcc	fp, {r0, r1, r3, r8, r9, fp, ip, sp}
     d6c:	0013490b 	andseq	r4, r3, fp, lsl #18
     d70:	00052600 	andeq	r2, r5, r0, lsl #12
     d74:	0b3a0803 	bleq	e82d88 <__bss_end__+0xe78b30>
     d78:	0b390b3b 	bleq	e43a6c <__bss_end__+0xe39814>
     d7c:	00001349 	andeq	r1, r0, r9, asr #6
     d80:	03003427 	movweq	r3, #1063	; 0x427
     d84:	3b0b3a08 	blcc	2cf5ac <__bss_end__+0x2c5354>
     d88:	490b390b 	stmdbmi	fp, {r0, r1, r3, r8, fp, ip, sp}
     d8c:	28000013 	stmdacs	r0, {r0, r1, r4}
     d90:	0000010b 	andeq	r0, r0, fp, lsl #2
     d94:	03003429 	movweq	r3, #1065	; 0x429
     d98:	3b0b3a0e 	blcc	2cf5d8 <__bss_end__+0x2c5380>
     d9c:	490b390b 	stmdbmi	fp, {r0, r1, r3, r8, fp, ip, sp}
     da0:	2a000013 	bcs	df4 <__code_start__-0x720c>
     da4:	0803012e 	stmdaeq	r3, {r1, r2, r3, r5, r8}
     da8:	0b3b0b3a 	bleq	ec3a98 <__bss_end__+0xeb9840>
     dac:	19270b39 	stmdbne	r7!, {r0, r3, r4, r5, r8, r9, fp}
     db0:	0b201349 	bleq	805adc <__bss_end__+0x7fb884>
     db4:	00001301 	andeq	r1, r0, r1, lsl #6
     db8:	3f012e2b 	svccc	0x00012e2b
     dbc:	3a0e0319 	bcc	381a28 <__bss_end__+0x3777d0>
     dc0:	390b3b0b 	stmdbcc	fp, {r0, r1, r3, r8, r9, fp, ip, sp}
     dc4:	1119270b 	tstne	r9, fp, lsl #14
     dc8:	40061201 	andmi	r1, r6, r1, lsl #4
     dcc:	19429718 	stmdbne	r2, {r3, r4, r8, r9, sl, ip, pc}^
     dd0:	00001301 	andeq	r1, r0, r1, lsl #6
     dd4:	31012e2c 	tstcc	r1, ip, lsr #28
     dd8:	12011113 	andne	r1, r1, #-1073741820	; 0xc0000004
     ddc:	97184006 	ldrls	r4, [r8, -r6]
     de0:	13011942 	movwne	r1, #6466	; 0x1942
     de4:	052d0000 	streq	r0, [sp, #-0]!
     de8:	02133100 	andseq	r3, r3, #0
     dec:	2e000018 	mcrcs	0, 0, r0, cr0, cr8, {0}
     df0:	13310005 	teqne	r1, #5, 0
     df4:	00000b1c 	andeq	r0, r0, ip, lsl fp
     df8:	31010b2f 	tstcc	r1, pc, lsr #22
     dfc:	12011113 	andne	r1, r1, #-1073741820	; 0xc0000004
     e00:	00130106 	andseq	r0, r3, r6, lsl #2
     e04:	002e3000 	eoreq	r3, lr, r0
     e08:	193c193f 	ldmdbne	ip!, {r0, r1, r2, r3, r4, r5, r8, fp, ip}
     e0c:	0e030e6e 	cdpeq	14, 0, cr0, cr3, cr14, {3}
     e10:	0b3b0b3a 	bleq	ec3b00 <__bss_end__+0xeb98a8>
     e14:	00000b39 	andeq	r0, r0, r9, lsr fp
     e18:	01110100 	tsteq	r1, r0, lsl #2
     e1c:	0b130e25 	bleq	4c46b8 <__bss_end__+0x4ba460>
     e20:	0e1b0e03 	cdpeq	14, 1, cr0, cr11, cr3, {0}
     e24:	06120111 			; <UNDEFINED> instruction: 0x06120111
     e28:	00001710 	andeq	r1, r0, r0, lsl r7
     e2c:	0b002402 	bleq	9e3c <__FUNCTION__.4034+0x28>
     e30:	030b3e0b 	movweq	r3, #48651	; 0xbe0b
     e34:	03000008 	movweq	r0, #8
     e38:	0b0b0024 	bleq	2c0ed0 <__bss_end__+0x2b6c78>
     e3c:	0e030b3e 	vmoveq.16	d3[0], r0
     e40:	15040000 	strne	r0, [r4, #-0]
     e44:	49192701 	ldmdbmi	r9, {r0, r8, r9, sl, sp}
     e48:	00130113 	andseq	r0, r3, r3, lsl r1
     e4c:	00050500 	andeq	r0, r5, r0, lsl #10
     e50:	00001349 	andeq	r1, r0, r9, asr #6
     e54:	03003406 	movweq	r3, #1030	; 0x406
     e58:	3b0b3a0e 	blcc	2cf698 <__bss_end__+0x2c5440>
     e5c:	490b390b 	stmdbmi	fp, {r0, r1, r3, r8, fp, ip, sp}
     e60:	3c193f13 	ldccc	15, cr3, [r9], {19}
     e64:	07000019 	smladeq	r0, r9, r0, r0
     e68:	0b0b000f 	bleq	2c0eac <__bss_end__+0x2b6c54>
     e6c:	00001349 	andeq	r1, r0, r9, asr #6
     e70:	49002608 	stmdbmi	r0, {r3, r9, sl, sp}
     e74:	09000013 	stmdbeq	r0, {r0, r1, r4}
     e78:	193f012e 	ldmdbne	pc!, {r1, r2, r3, r5, r8}	; <UNPREDICTABLE>
     e7c:	0b3a0e03 	bleq	e84690 <__bss_end__+0xe7a438>
     e80:	0b390b3b 	bleq	e43b74 <__bss_end__+0xe3991c>
     e84:	01871927 	orreq	r1, r7, r7, lsr #18
     e88:	12011119 	andne	r1, r1, #1073741830	; 0x40000006
     e8c:	97184006 	ldrls	r4, [r8, -r6]
     e90:	13011942 	movwne	r1, #6466	; 0x1942
     e94:	890a0000 	stmdbhi	sl, {}	; <UNPREDICTABLE>
     e98:	11010182 	smlabbne	r1, r2, r1, r0
     e9c:	00130101 	andseq	r0, r3, r1, lsl #2
     ea0:	828a0b00 	addhi	r0, sl, #0, 22
     ea4:	18020001 	stmdane	r2, {r0}
     ea8:	00184291 	mulseq	r8, r1, r2
     eac:	82890c00 	addhi	r0, r9, #0, 24
     eb0:	01110001 	tsteq	r1, r1
     eb4:	00001331 	andeq	r1, r0, r1, lsr r3
     eb8:	0182890d 	orreq	r8, r2, sp, lsl #18
     ebc:	31011101 	tstcc	r1, r1, lsl #2
     ec0:	00130113 	andseq	r0, r3, r3, lsl r1
     ec4:	002e0e00 	eoreq	r0, lr, r0, lsl #28
     ec8:	193c193f 	ldmdbne	ip!, {r0, r1, r2, r3, r4, r5, r8, fp, ip}
     ecc:	0e030e6e 	cdpeq	14, 0, cr0, cr3, cr14, {3}
     ed0:	0b3b0b3a 	bleq	ec3bc0 <__bss_end__+0xeb9968>
     ed4:	00000b39 	andeq	r0, r0, r9, lsr fp
     ed8:	01110100 	tsteq	r1, r0, lsl #2
     edc:	0b130e25 	bleq	4c4778 <__bss_end__+0x4ba520>
     ee0:	0e1b0e03 	cdpeq	14, 1, cr0, cr11, cr3, {0}
     ee4:	06120111 			; <UNDEFINED> instruction: 0x06120111
     ee8:	00001710 	andeq	r1, r0, r0, lsl r7
     eec:	0b002402 	bleq	9efc <buf.3948+0xa8>
     ef0:	030b3e0b 	movweq	r3, #48651	; 0xbe0b
     ef4:	03000008 	movweq	r0, #8
     ef8:	0b0b0024 	bleq	2c0f90 <__bss_end__+0x2b6d38>
     efc:	0e030b3e 	vmoveq.16	d3[0], r0
     f00:	15040000 	strne	r0, [r4, #-0]
     f04:	49192701 	ldmdbmi	r9, {r0, r8, r9, sl, sp}
     f08:	00130113 	andseq	r0, r3, r3, lsl r1
     f0c:	00050500 	andeq	r0, r5, r0, lsl #10
     f10:	00001349 	andeq	r1, r0, r9, asr #6
     f14:	03003406 	movweq	r3, #1030	; 0x406
     f18:	3b0b3a0e 	blcc	2cf758 <__bss_end__+0x2c5500>
     f1c:	490b390b 	stmdbmi	fp, {r0, r1, r3, r8, fp, ip, sp}
     f20:	3c193f13 	ldccc	15, cr3, [r9], {19}
     f24:	07000019 	smladeq	r0, r9, r0, r0
     f28:	0b0b000f 	bleq	2c0f6c <__bss_end__+0x2b6d14>
     f2c:	00001349 	andeq	r1, r0, r9, asr #6
     f30:	49002608 	stmdbmi	r0, {r3, r9, sl, sp}
     f34:	09000013 	stmdbeq	r0, {r0, r1, r4}
     f38:	193f012e 	ldmdbne	pc!, {r1, r2, r3, r5, r8}	; <UNPREDICTABLE>
     f3c:	0b3a0e03 	bleq	e84750 <__bss_end__+0xe7a4f8>
     f40:	0b390b3b 	bleq	e43c34 <__bss_end__+0xe399dc>
     f44:	06120111 			; <UNDEFINED> instruction: 0x06120111
     f48:	42971840 	addsmi	r1, r7, #64, 16	; 0x400000
     f4c:	00130119 	andseq	r0, r3, r9, lsl r1
     f50:	002e0a00 	eoreq	r0, lr, r0, lsl #20
     f54:	0e03193f 			; <UNDEFINED> instruction: 0x0e03193f
     f58:	0b3b0b3a 	bleq	ec3c48 <__bss_end__+0xeb99f0>
     f5c:	19270b39 	stmdbne	r7!, {r0, r3, r4, r5, r8, r9, fp}
     f60:	0000193c 	andeq	r1, r0, ip, lsr r9
     f64:	0300340b 	movweq	r3, #1035	; 0x40b
     f68:	3b0b3a08 	blcc	2cf790 <__bss_end__+0x2c5538>
     f6c:	490b390b 	stmdbmi	fp, {r0, r1, r3, r8, fp, ip, sp}
     f70:	b7170213 			; <UNDEFINED> instruction: 0xb7170213
     f74:	00001742 	andeq	r1, r0, r2, asr #14
     f78:	0300340c 	movweq	r3, #1036	; 0x40c
     f7c:	3b0b3a0e 	blcc	2cf7bc <__bss_end__+0x2c5564>
     f80:	490b390b 	stmdbmi	fp, {r0, r1, r3, r8, fp, ip, sp}
     f84:	0d000013 	stceq	0, cr0, [r0, #-76]	; 0xffffffb4
     f88:	0e030034 	mcreq	0, 0, r0, cr3, cr4, {1}
     f8c:	0b3b0b3a 	bleq	ec3c7c <__bss_end__+0xeb9a24>
     f90:	13490b39 	movtne	r0, #39737	; 0x9b39
     f94:	42b71702 	adcsmi	r1, r7, #524288	; 0x80000
     f98:	0e000017 	mcreq	0, 0, r0, cr0, cr7, {0}
     f9c:	0111010b 	tsteq	r1, fp, lsl #2
     fa0:	13010612 	movwne	r0, #5650	; 0x1612
     fa4:	1d0f0000 	stcne	0, cr0, [pc, #-0]	; fac <__code_start__-0x7054>
     fa8:	52133101 	andspl	r3, r3, #1073741824	; 0x40000000
     fac:	0b42b801 	bleq	10aefb8 <__bss_end__+0x10a4d60>
     fb0:	06120111 			; <UNDEFINED> instruction: 0x06120111
     fb4:	0b590b58 	bleq	1643d1c <__bss_end__+0x1639ac4>
     fb8:	13010b57 	movwne	r0, #6999	; 0x1b57
     fbc:	34100000 	ldrcc	r0, [r0], #-0
     fc0:	02133100 	andseq	r3, r3, #0
     fc4:	1742b717 	smlaldne	fp, r2, r7, r7
     fc8:	0b110000 	bleq	440fd0 <__bss_end__+0x436d78>
     fcc:	11133101 	tstne	r3, r1, lsl #2
     fd0:	00061201 	andeq	r1, r6, r1, lsl #4
     fd4:	011d1200 	tsteq	sp, r0, lsl #4
     fd8:	01521331 	cmpeq	r2, r1, lsr r3
     fdc:	550b42b8 	strpl	r4, [fp, #-696]	; 0xfffffd48
     fe0:	590b5817 	stmdbpl	fp, {r0, r1, r2, r4, fp, ip, lr}
     fe4:	010b570b 	tsteq	fp, fp, lsl #14
     fe8:	13000013 	movwne	r0, #19
     fec:	1755010b 	ldrbne	r0, [r5, -fp, lsl #2]
     ff0:	89140000 	ldmdbhi	r4, {}	; <UNPREDICTABLE>
     ff4:	11000182 	smlabbne	r0, r2, r1, r0
     ff8:	00133101 	andseq	r3, r3, r1, lsl #2
     ffc:	82891500 	addhi	r1, r9, #0, 10
    1000:	01110101 	tsteq	r1, r1, lsl #2
    1004:	13011331 	movwne	r1, #4913	; 0x1331
    1008:	8a160000 	bhi	581010 <__bss_end__+0x576db8>
    100c:	02000182 	andeq	r0, r0, #-2147483616	; 0x80000020
    1010:	18429118 	stmdane	r2, {r3, r4, r8, ip, pc}^
    1014:	2e170000 	cdpcs	0, 1, cr0, cr7, cr0, {0}
    1018:	3a0e0301 	bcc	381c24 <__bss_end__+0x3779cc>
    101c:	390b3b0b 	stmdbcc	fp, {r0, r1, r3, r8, r9, fp, ip, sp}
    1020:	4919270b 	ldmdbmi	r9, {r0, r1, r3, r8, r9, sl, sp}
    1024:	010b2013 	tsteq	fp, r3, lsl r0
    1028:	18000013 	stmdane	r0, {r0, r1, r4}
    102c:	0e030034 	mcreq	0, 0, r0, cr3, cr4, {1}
    1030:	0b3b0b3a 	bleq	ec3d20 <__bss_end__+0xeb9ac8>
    1034:	13490b39 	movtne	r0, #39737	; 0x9b39
    1038:	00001802 	andeq	r1, r0, r2, lsl #16
    103c:	03003419 	movweq	r3, #1049	; 0x419
    1040:	3b0b3a08 	blcc	2cf868 <__bss_end__+0x2c5610>
    1044:	490b390b 	stmdbmi	fp, {r0, r1, r3, r8, fp, ip, sp}
    1048:	1a000013 	bne	109c <__code_start__-0x6f64>
    104c:	0000010b 	andeq	r0, r0, fp, lsl #2
    1050:	3f002e1b 	svccc	0x00002e1b
    1054:	6e193c19 	mrcvs	12, 0, r3, cr9, cr9, {0}
    1058:	3a0e030e 	bcc	381c98 <__bss_end__+0x377a40>
    105c:	39053b0b 	stmdbcc	r5, {r0, r1, r3, r8, r9, fp, ip, sp}
    1060:	1c00000b 	stcne	0, cr0, [r0], {11}
    1064:	193f002e 	ldmdbne	pc!, {r1, r2, r3, r5}	; <UNPREDICTABLE>
    1068:	0e6e193c 			; <UNDEFINED> instruction: 0x0e6e193c
    106c:	0b3a0e03 	bleq	e84880 <__bss_end__+0xe7a628>
    1070:	0b390b3b 	bleq	e43d64 <__bss_end__+0xe39b0c>
    1074:	01000000 	mrseq	r0, (UNDEF: 0)
    1078:	0e250111 	mcreq	1, 1, r0, cr5, cr1, {0}
    107c:	0e030b13 	vmoveq.32	d3[0], r0
    1080:	01110e1b 	tsteq	r1, fp, lsl lr
    1084:	17100612 			; <UNDEFINED> instruction: 0x17100612
    1088:	24020000 	strcs	r0, [r2], #-0
    108c:	3e0b0b00 	vmlacc.f64	d0, d11, d0
    1090:	0008030b 	andeq	r0, r8, fp, lsl #6
    1094:	00240300 	eoreq	r0, r4, r0, lsl #6
    1098:	0b3e0b0b 	bleq	f83ccc <__bss_end__+0xf79a74>
    109c:	00000e03 	andeq	r0, r0, r3, lsl #28
    10a0:	27011504 	strcs	r1, [r1, -r4, lsl #10]
    10a4:	01134919 	tsteq	r3, r9, lsl r9
    10a8:	05000013 	streq	r0, [r0, #-19]	; 0xffffffed
    10ac:	13490005 	movtne	r0, #36869	; 0x9005
    10b0:	34060000 	strcc	r0, [r6], #-0
    10b4:	3a0e0300 	bcc	381cbc <__bss_end__+0x377a64>
    10b8:	390b3b0b 	stmdbcc	fp, {r0, r1, r3, r8, r9, fp, ip, sp}
    10bc:	3f13490b 	svccc	0x0013490b
    10c0:	00193c19 	andseq	r3, r9, r9, lsl ip
    10c4:	000f0700 	andeq	r0, pc, r0, lsl #14
    10c8:	13490b0b 	movtne	r0, #39691	; 0x9b0b
    10cc:	26080000 	strcs	r0, [r8], -r0
    10d0:	00134900 	andseq	r4, r3, r0, lsl #18
    10d4:	002e0900 	eoreq	r0, lr, r0, lsl #18
    10d8:	0e03193f 			; <UNDEFINED> instruction: 0x0e03193f
    10dc:	0b3b0b3a 	bleq	ec3dcc <__bss_end__+0xeb9b74>
    10e0:	19270b39 	stmdbne	r7!, {r0, r3, r4, r5, r8, r9, fp}
    10e4:	06120111 			; <UNDEFINED> instruction: 0x06120111
    10e8:	42971840 	addsmi	r1, r7, #64, 16	; 0x400000
    10ec:	00000019 	andeq	r0, r0, r9, lsl r0
    10f0:	25011101 	strcs	r1, [r1, #-257]	; 0xfffffeff
    10f4:	030b130e 	movweq	r1, #45838	; 0xb30e
    10f8:	550e1b0e 	strpl	r1, [lr, #-2830]	; 0xfffff4f2
    10fc:	10011117 	andne	r1, r1, r7, lsl r1
    1100:	02000017 	andeq	r0, r0, #23, 0
    1104:	0b0b0024 	bleq	2c119c <__bss_end__+0x2b6f44>
    1108:	08030b3e 	stmdaeq	r3, {r1, r2, r3, r4, r5, r8, r9, fp}
    110c:	26030000 	strcs	r0, [r3], -r0
    1110:	00134900 	andseq	r4, r3, r0, lsl #18
    1114:	00240400 	eoreq	r0, r4, r0, lsl #8
    1118:	0b3e0b0b 	bleq	f83d4c <__bss_end__+0xf79af4>
    111c:	00000e03 	andeq	r0, r0, r3, lsl #28
    1120:	27011505 	strcs	r1, [r1, -r5, lsl #10]
    1124:	01134919 	tsteq	r3, r9, lsl r9
    1128:	06000013 			; <UNDEFINED> instruction: 0x06000013
    112c:	13490005 	movtne	r0, #36869	; 0x9005
    1130:	34070000 	strcc	r0, [r7], #-0
    1134:	3a0e0300 	bcc	381d3c <__bss_end__+0x377ae4>
    1138:	390b3b0b 	stmdbcc	fp, {r0, r1, r3, r8, r9, fp, ip, sp}
    113c:	3f13490b 	svccc	0x0013490b
    1140:	00193c19 	andseq	r3, r9, r9, lsl ip
    1144:	000f0800 	andeq	r0, pc, r0, lsl #16
    1148:	13490b0b 	movtne	r0, #39691	; 0x9b0b
    114c:	34090000 	strcc	r0, [r9], #-0
    1150:	3a0e0300 	bcc	381d58 <__bss_end__+0x377b00>
    1154:	390b3b0b 	stmdbcc	fp, {r0, r1, r3, r8, r9, fp, ip, sp}
    1158:	0013490b 	andseq	r4, r3, fp, lsl #18
    115c:	012e0a00 			; <UNDEFINED> instruction: 0x012e0a00
    1160:	0e03193f 			; <UNDEFINED> instruction: 0x0e03193f
    1164:	0b3b0b3a 	bleq	ec3e54 <__bss_end__+0xeb9bfc>
    1168:	19270b39 	stmdbne	r7!, {r0, r3, r4, r5, r8, r9, fp}
    116c:	11190187 	tstne	r9, r7, lsl #3
    1170:	40061201 	andmi	r1, r6, r1, lsl #4
    1174:	19429718 	stmdbne	r2, {r3, r4, r8, r9, sl, ip, pc}^
    1178:	00001301 	andeq	r1, r0, r1, lsl #6
    117c:	0300340b 	movweq	r3, #1035	; 0x40b
    1180:	3b0b3a0e 	blcc	2cf9c0 <__bss_end__+0x2c5768>
    1184:	490b390b 	stmdbmi	fp, {r0, r1, r3, r8, fp, ip, sp}
    1188:	00061c13 	andeq	r1, r6, r3, lsl ip
    118c:	00340c00 	eorseq	r0, r4, r0, lsl #24
    1190:	0b3a0e03 	bleq	e849a4 <__bss_end__+0xe7a74c>
    1194:	0b390b3b 	bleq	e43e88 <__bss_end__+0xe39c30>
    1198:	0b1c1349 	bleq	705ec4 <__bss_end__+0x6fbc6c>
    119c:	1d0d0000 	stcne	0, cr0, [sp, #-0]
    11a0:	52133101 	andspl	r3, r3, #1073741824	; 0x40000000
    11a4:	0b42b801 	bleq	10af1b0 <__bss_end__+0x10a4f58>
    11a8:	0b581755 	bleq	1606f04 <__bss_end__+0x15fccac>
    11ac:	0b570b59 	bleq	15c3f18 <__bss_end__+0x15b9cc0>
    11b0:	00001301 	andeq	r1, r0, r1, lsl #6
    11b4:	55010b0e 	strpl	r0, [r1, #-2830]	; 0xfffff4f2
    11b8:	0f000017 	svceq	0x00000017
    11bc:	13310034 	teqne	r1, #52, 0	; 0x34
    11c0:	42b71702 	adcsmi	r1, r7, #524288	; 0x80000
    11c4:	10000017 	andne	r0, r0, r7, lsl r0
    11c8:	1331011d 	teqne	r1, #1073741831	; 0x40000007
    11cc:	42b80152 	adcsmi	r0, r8, #-2147483628	; 0x80000014
    11d0:	1201110b 	andne	r1, r1, #-1073741822	; 0xc0000002
    11d4:	590b5806 	stmdbpl	fp, {r1, r2, fp, ip, lr}
    11d8:	010b570b 	tsteq	fp, fp, lsl #14
    11dc:	11000013 	tstne	r0, r3, lsl r0
    11e0:	00018289 	andeq	r8, r1, r9, lsl #5
    11e4:	13310111 	teqne	r1, #1073741828	; 0x40000004
    11e8:	89120000 	ldmdbhi	r2, {}	; <UNPREDICTABLE>
    11ec:	11010182 	smlabbne	r1, r2, r1, r0
    11f0:	01133101 	tsteq	r3, r1, lsl #2
    11f4:	13000013 	movwne	r0, #19
    11f8:	0001828a 	andeq	r8, r1, sl, lsl #5
    11fc:	42911802 	addsmi	r1, r1, #131072	; 0x20000
    1200:	14000018 	strne	r0, [r0], #-24	; 0xffffffe8
    1204:	01018289 	smlabbeq	r1, r9, r2, r8
    1208:	13310111 	teqne	r1, #1073741828	; 0x40000004
    120c:	2e150000 	cdpcs	0, 1, cr0, cr5, cr0, {0}
    1210:	03193f01 	tsteq	r9, #1, 30
    1214:	3b0b3a0e 	blcc	2cfa54 <__bss_end__+0x2c57fc>
    1218:	270b390b 	strcs	r3, [fp, -fp, lsl #18]
    121c:	010b2019 	tsteq	fp, r9, lsl r0
    1220:	16000013 			; <UNDEFINED> instruction: 0x16000013
    1224:	193f012e 	ldmdbne	pc!, {r1, r2, r3, r5, r8}	; <UNPREDICTABLE>
    1228:	0b3a0e03 	bleq	e84a3c <__bss_end__+0xe7a7e4>
    122c:	0b390b3b 	bleq	e43f20 <__bss_end__+0xe39cc8>
    1230:	13491927 	movtne	r1, #39207	; 0x9927
    1234:	13010b20 	movwne	r0, #6944	; 0x1b20
    1238:	2e170000 	cdpcs	0, 1, cr0, cr7, cr0, {0}
    123c:	11133101 	tstne	r3, r1, lsl #2
    1240:	40061201 	andmi	r1, r6, r1, lsl #4
    1244:	19429718 	stmdbne	r2, {r3, r4, r8, r9, sl, ip, pc}^
    1248:	00001301 	andeq	r1, r0, r1, lsl #6
    124c:	3f002e18 	svccc	0x00002e18
    1250:	6e193c19 	mrcvs	12, 0, r3, cr9, cr9, {0}
    1254:	3a0e030e 	bcc	381e94 <__bss_end__+0x377c3c>
    1258:	39053b0b 	stmdbcc	r5, {r0, r1, r3, r8, r9, fp, ip, sp}
    125c:	1900000b 	stmdbne	r0, {r0, r1, r3}
    1260:	193f002e 	ldmdbne	pc!, {r1, r2, r3, r5}	; <UNPREDICTABLE>
    1264:	0e6e193c 			; <UNDEFINED> instruction: 0x0e6e193c
    1268:	0b3a0e03 	bleq	e84a7c <__bss_end__+0xe7a824>
    126c:	0b390b3b 	bleq	e43f60 <__bss_end__+0xe39d08>
    1270:	01000000 	mrseq	r0, (UNDEF: 0)
    1274:	0e250111 	mcreq	1, 1, r0, cr5, cr1, {0}
    1278:	0e030b13 	vmoveq.32	d3[0], r0
    127c:	01110e1b 	tsteq	r1, fp, lsl lr
    1280:	17100612 			; <UNDEFINED> instruction: 0x17100612
    1284:	24020000 	strcs	r0, [r2], #-0
    1288:	3e0b0b00 	vmlacc.f64	d0, d11, d0
    128c:	0008030b 	andeq	r0, r8, fp, lsl #6
    1290:	00240300 	eoreq	r0, r4, r0, lsl #6
    1294:	0b3e0b0b 	bleq	f83ec8 <__bss_end__+0xf79c70>
    1298:	00000e03 	andeq	r0, r0, r3, lsl #28
    129c:	27011504 	strcs	r1, [r1, -r4, lsl #10]
    12a0:	01134919 	tsteq	r3, r9, lsl r9
    12a4:	05000013 	streq	r0, [r0, #-19]	; 0xffffffed
    12a8:	13490005 	movtne	r0, #36869	; 0x9005
    12ac:	34060000 	strcc	r0, [r6], #-0
    12b0:	3a0e0300 	bcc	381eb8 <__bss_end__+0x377c60>
    12b4:	390b3b0b 	stmdbcc	fp, {r0, r1, r3, r8, r9, fp, ip, sp}
    12b8:	3f13490b 	svccc	0x0013490b
    12bc:	00193c19 	andseq	r3, r9, r9, lsl ip
    12c0:	000f0700 	andeq	r0, pc, r0, lsl #14
    12c4:	13490b0b 	movtne	r0, #39691	; 0x9b0b
    12c8:	26080000 	strcs	r0, [r8], -r0
    12cc:	00134900 	andseq	r4, r3, r0, lsl #18
    12d0:	012e0900 			; <UNDEFINED> instruction: 0x012e0900
    12d4:	0e03193f 			; <UNDEFINED> instruction: 0x0e03193f
    12d8:	0b3b0b3a 	bleq	ec3fc8 <__bss_end__+0xeb9d70>
    12dc:	19270b39 	stmdbne	r7!, {r0, r3, r4, r5, r8, r9, fp}
    12e0:	06120111 			; <UNDEFINED> instruction: 0x06120111
    12e4:	42971840 	addsmi	r1, r7, #64, 16	; 0x400000
    12e8:	00130119 	andseq	r0, r3, r9, lsl r1
    12ec:	00050a00 	andeq	r0, r5, r0, lsl #20
    12f0:	0b3a0803 	bleq	e83304 <__bss_end__+0xe790ac>
    12f4:	0b390b3b 	bleq	e43fe8 <__bss_end__+0xe39d90>
    12f8:	17021349 	strne	r1, [r2, -r9, asr #6]
    12fc:	001742b7 			; <UNDEFINED> instruction: 0x001742b7
    1300:	011d0b00 	tsteq	sp, r0, lsl #22
    1304:	01521331 	cmpeq	r2, r1, lsr r3
    1308:	550b42b8 	strpl	r4, [fp, #-696]	; 0xfffffd48
    130c:	590b5817 	stmdbpl	fp, {r0, r1, r2, r4, fp, ip, lr}
    1310:	000b570b 	andeq	r5, fp, fp, lsl #14
    1314:	00050c00 	andeq	r0, r5, r0, lsl #24
    1318:	17021331 	smladxne	r2, r1, r3, r1
    131c:	001742b7 			; <UNDEFINED> instruction: 0x001742b7
    1320:	011d0d00 	tsteq	sp, r0, lsl #26
    1324:	01521331 	cmpeq	r2, r1, lsr r3
    1328:	110b42b8 			; <UNDEFINED> instruction: 0x110b42b8
    132c:	58061201 	stmdapl	r6, {r0, r9, ip}
    1330:	570b590b 	strpl	r5, [fp, -fp, lsl #18]
    1334:	0e00000b 	cdpeq	0, 0, cr0, cr0, cr11, {0}
    1338:	13310034 	teqne	r1, #52, 0	; 0x34
    133c:	42b71702 	adcsmi	r1, r7, #524288	; 0x80000
    1340:	0f000017 	svceq	0x00000017
    1344:	1331011d 	teqne	r1, #1073741831	; 0x40000007
    1348:	42b80152 	adcsmi	r0, r8, #-2147483628	; 0x80000014
    134c:	1201110b 	andne	r1, r1, #-1073741822	; 0xc0000002
    1350:	590b5806 	stmdbpl	fp, {r1, r2, fp, ip, lr}
    1354:	010b570b 	tsteq	fp, fp, lsl #14
    1358:	10000013 	andne	r0, r0, r3, lsl r0
    135c:	01018289 	smlabbeq	r1, r9, r2, r8
    1360:	13310111 	teqne	r1, #1073741828	; 0x40000004
    1364:	8a110000 	bhi	44136c <__bss_end__+0x437114>
    1368:	02000182 	andeq	r0, r0, #-2147483616	; 0x80000020
    136c:	18429118 	stmdane	r2, {r3, r4, r8, ip, pc}^
    1370:	89120000 	ldmdbhi	r2, {}	; <UNPREDICTABLE>
    1374:	11000182 	smlabbne	r0, r2, r1, r0
    1378:	00133101 	andseq	r3, r3, r1, lsl #2
    137c:	010b1300 	mrseq	r1, (UNDEF: 59)
    1380:	17551331 	smmlarne	r5, r1, r3, r1
    1384:	34140000 	ldrcc	r0, [r4], #-0
    1388:	00133100 	andseq	r3, r3, r0, lsl #2
    138c:	010b1500 	tsteq	fp, r0, lsl #10
    1390:	00001755 	andeq	r1, r0, r5, asr r7
    1394:	31011d16 	tstcc	r1, r6, lsl sp
    1398:	b8015213 	stmdalt	r1, {r0, r1, r4, r9, ip, lr}
    139c:	17550b42 	ldrbne	r0, [r5, -r2, asr #22]
    13a0:	0b590b58 	bleq	1644108 <__bss_end__+0x1639eb0>
    13a4:	13010b57 	movwne	r0, #6999	; 0x1b57
    13a8:	2e170000 	cdpcs	0, 1, cr0, cr7, cr0, {0}
    13ac:	03193f01 	tsteq	r9, #1, 30
    13b0:	3b0b3a0e 	blcc	2cfbf0 <__bss_end__+0x2c5998>
    13b4:	270b390b 	strcs	r3, [fp, -fp, lsl #18]
    13b8:	010b2019 	tsteq	fp, r9, lsl r0
    13bc:	18000013 	stmdane	r0, {r0, r1, r4}
    13c0:	08030005 	stmdaeq	r3, {r0, r2}
    13c4:	0b3b0b3a 	bleq	ec40b4 <__bss_end__+0xeb9e5c>
    13c8:	13490b39 	movtne	r0, #39737	; 0x9b39
    13cc:	34190000 	ldrcc	r0, [r9], #-0
    13d0:	3a080300 	bcc	201fd8 <__bss_end__+0x1f7d80>
    13d4:	390b3b0b 	stmdbcc	fp, {r0, r1, r3, r8, r9, fp, ip, sp}
    13d8:	0013490b 	andseq	r4, r3, fp, lsl #18
    13dc:	010b1a00 	tsteq	fp, r0, lsl #20
    13e0:	2e1b0000 	cdpcs	0, 1, cr0, cr11, cr0, {0}
    13e4:	03193f01 	tsteq	r9, #1, 30
    13e8:	3b0b3a0e 	blcc	2cfc28 <__bss_end__+0x2c59d0>
    13ec:	270b390b 	strcs	r3, [fp, -fp, lsl #18]
    13f0:	20134919 	andscs	r4, r3, r9, lsl r9
    13f4:	0013010b 	andseq	r0, r3, fp, lsl #2
    13f8:	002e1c00 	eoreq	r1, lr, r0, lsl #24
    13fc:	0e03193f 			; <UNDEFINED> instruction: 0x0e03193f
    1400:	0b3b0b3a 	bleq	ec40f0 <__bss_end__+0xeb9e98>
    1404:	19270b39 	stmdbne	r7!, {r0, r3, r4, r5, r8, r9, fp}
    1408:	0b201349 	bleq	806134 <__bss_end__+0x7fbedc>
    140c:	2e1d0000 	cdpcs	0, 1, cr0, cr13, cr0, {0}
    1410:	11133101 	tstne	r3, r1, lsl #2
    1414:	40061201 	andmi	r1, r6, r1, lsl #4
    1418:	19429718 	stmdbne	r2, {r3, r4, r8, r9, sl, ip, pc}^
    141c:	00001301 	andeq	r1, r0, r1, lsl #6
    1420:	0182891e 	orreq	r8, r2, lr, lsl r9
    1424:	95011101 	strls	r1, [r1, #-257]	; 0xfffffeff
    1428:	13311942 	teqne	r1, #1081344	; 0x108000
    142c:	2e1f0000 	cdpcs	0, 1, cr0, cr15, cr0, {0}
    1430:	3c193f00 	ldccc	15, cr3, [r9], {-0}
    1434:	030e6e19 	movweq	r6, #60953	; 0xee19
    1438:	3b0b3a0e 	blcc	2cfc78 <__bss_end__+0x2c5a20>
    143c:	000b390b 	andeq	r3, fp, fp, lsl #18
    1440:	11010000 	mrsne	r0, (UNDEF: 1)
    1444:	130e2501 	movwne	r2, #58625	; 0xe501
    1448:	1b0e030b 	blne	38207c <__bss_end__+0x377e24>
    144c:	1201110e 	andne	r1, r1, #-2147483645	; 0x80000003
    1450:	00171006 	andseq	r1, r7, r6
    1454:	00240200 	eoreq	r0, r4, r0, lsl #4
    1458:	0b3e0b0b 	bleq	f8408c <__bss_end__+0xf79e34>
    145c:	00000803 	andeq	r0, r0, r3, lsl #16
    1460:	0b002403 	bleq	a474 <__bss_end__+0x21c>
    1464:	030b3e0b 	movweq	r3, #48651	; 0xbe0b
    1468:	0400000e 	streq	r0, [r0], #-14
    146c:	13490035 	movtne	r0, #36917	; 0x9035
    1470:	16050000 	strne	r0, [r5], -r0
    1474:	3a0e0300 	bcc	38207c <__bss_end__+0x377e24>
    1478:	390b3b0b 	stmdbcc	fp, {r0, r1, r3, r8, r9, fp, ip, sp}
    147c:	0013490b 	andseq	r4, r3, fp, lsl #18
    1480:	01040600 	tsteq	r4, r0, lsl #12
    1484:	0b0b0b3e 	bleq	2c4184 <__bss_end__+0x2b9f2c>
    1488:	0b3a1349 	bleq	e861b4 <__bss_end__+0xe7bf5c>
    148c:	0b390b3b 	bleq	e44180 <__bss_end__+0xe39f28>
    1490:	00001301 	andeq	r1, r0, r1, lsl #6
    1494:	03002807 	movweq	r2, #2055	; 0x807
    1498:	000b1c0e 	andeq	r1, fp, lr, lsl #24
    149c:	01130800 	tsteq	r3, r0, lsl #16
    14a0:	0b0b0e03 	bleq	2c4cb4 <__bss_end__+0x2baa5c>
    14a4:	0b3b0b3a 	bleq	ec4194 <__bss_end__+0xeb9f3c>
    14a8:	13010b39 	movwne	r0, #6969	; 0x1b39
    14ac:	0d090000 	stceq	0, cr0, [r9, #-0]
    14b0:	3a080300 	bcc	2020b8 <__bss_end__+0x1f7e60>
    14b4:	390b3b0b 	stmdbcc	fp, {r0, r1, r3, r8, r9, fp, ip, sp}
    14b8:	3813490b 	ldmdacc	r3, {r0, r1, r3, r8, fp, lr}
    14bc:	0a00000b 	beq	14f0 <__code_start__-0x6b10>
    14c0:	0e03000d 	cdpeq	0, 0, cr0, cr3, cr13, {0}
    14c4:	0b3b0b3a 	bleq	ec41b4 <__bss_end__+0xeb9f5c>
    14c8:	13490b39 	movtne	r0, #39737	; 0x9b39
    14cc:	00000b38 	andeq	r0, r0, r8, lsr fp
    14d0:	0300340b 	movweq	r3, #1035	; 0x40b
    14d4:	3b0b3a0e 	blcc	2cfd14 <__bss_end__+0x2c5abc>
    14d8:	490b390b 	stmdbmi	fp, {r0, r1, r3, r8, fp, ip, sp}
    14dc:	00061c13 	andeq	r1, r6, r3, lsl ip
    14e0:	000f0c00 	andeq	r0, pc, r0, lsl #24
    14e4:	13490b0b 	movtne	r0, #39691	; 0x9b0b
    14e8:	260d0000 	strcs	r0, [sp], -r0
    14ec:	00134900 	andseq	r4, r3, r0, lsl #18
    14f0:	012e0e00 			; <UNDEFINED> instruction: 0x012e0e00
    14f4:	0e03193f 			; <UNDEFINED> instruction: 0x0e03193f
    14f8:	0b3b0b3a 	bleq	ec41e8 <__bss_end__+0xeb9f90>
    14fc:	19270b39 	stmdbne	r7!, {r0, r3, r4, r5, r8, r9, fp}
    1500:	06120111 			; <UNDEFINED> instruction: 0x06120111
    1504:	42971840 	addsmi	r1, r7, #64, 16	; 0x400000
    1508:	00130119 	andseq	r0, r3, r9, lsl r1
    150c:	82890f00 	addhi	r0, r9, #0, 30
    1510:	01110001 	tsteq	r1, r1
    1514:	00001331 	andeq	r1, r0, r1, lsr r3
    1518:	3f012e10 	svccc	0x00012e10
    151c:	3a0e0319 	bcc	382188 <__bss_end__+0x377f30>
    1520:	390b3b0b 	stmdbcc	fp, {r0, r1, r3, r8, r9, fp, ip, sp}
    1524:	4919270b 	ldmdbmi	r9, {r0, r1, r3, r8, r9, sl, sp}
    1528:	12011113 	andne	r1, r1, #-1073741820	; 0xc0000004
    152c:	97184006 	ldrls	r4, [r8, -r6]
    1530:	13011942 	movwne	r1, #6466	; 0x1942
    1534:	89110000 	ldmdbhi	r1, {}	; <UNPREDICTABLE>
    1538:	11010182 	smlabbne	r1, r2, r1, r0
    153c:	00133101 	andseq	r3, r3, r1, lsl #2
    1540:	828a1200 	addhi	r1, sl, #0, 4
    1544:	18020001 	stmdane	r2, {r0}
    1548:	00184291 	mulseq	r8, r1, r2
    154c:	00051300 	andeq	r1, r5, r0, lsl #6
    1550:	0b3a0803 	bleq	e83564 <__bss_end__+0xe7930c>
    1554:	0b390b3b 	bleq	e44248 <__bss_end__+0xe39ff0>
    1558:	17021349 	strne	r1, [r2, -r9, asr #6]
    155c:	001742b7 			; <UNDEFINED> instruction: 0x001742b7
    1560:	82891400 	addhi	r1, r9, #0, 8
    1564:	01110101 	tsteq	r1, r1, lsl #2
    1568:	13011331 	movwne	r1, #4913	; 0x1331
    156c:	34150000 	ldrcc	r0, [r5], #-0
    1570:	3a080300 	bcc	202178 <__bss_end__+0x1f7f20>
    1574:	390b3b0b 	stmdbcc	fp, {r0, r1, r3, r8, r9, fp, ip, sp}
    1578:	0213490b 	andseq	r4, r3, #180224	; 0x2c000
    157c:	1742b717 	smlaldne	fp, r2, r7, r7
    1580:	34160000 	ldrcc	r0, [r6], #-0
    1584:	3a0e0300 	bcc	38218c <__bss_end__+0x377f34>
    1588:	390b3b0b 	stmdbcc	fp, {r0, r1, r3, r8, r9, fp, ip, sp}
    158c:	1c13490b 			; <UNDEFINED> instruction: 0x1c13490b
    1590:	17000005 	strne	r0, [r0, -r5]
    1594:	0e03012e 	adfeqsp	f0, f3, #0.5
    1598:	0b3b0b3a 	bleq	ec4288 <__bss_end__+0xeba030>
    159c:	19270b39 	stmdbne	r7!, {r0, r3, r4, r5, r8, r9, fp}
    15a0:	06120111 			; <UNDEFINED> instruction: 0x06120111
    15a4:	42971840 	addsmi	r1, r7, #64, 16	; 0x400000
    15a8:	00130119 	andseq	r0, r3, r9, lsl r1
    15ac:	00051800 	andeq	r1, r5, r0, lsl #16
    15b0:	0b3a0e03 	bleq	e84dc4 <__bss_end__+0xe7ab6c>
    15b4:	0b390b3b 	bleq	e442a8 <__bss_end__+0xe3a050>
    15b8:	17021349 	strne	r1, [r2, -r9, asr #6]
    15bc:	001742b7 			; <UNDEFINED> instruction: 0x001742b7
    15c0:	00351900 	eorseq	r1, r5, r0, lsl #18
    15c4:	2e1a0000 	cdpcs	0, 1, cr0, cr10, cr0, {0}
    15c8:	3c193f00 	ldccc	15, cr3, [r9], {-0}
    15cc:	030e6e19 	movweq	r6, #60953	; 0xee19
    15d0:	3b0b3a0e 	blcc	2cfe10 <__bss_end__+0x2c5bb8>
    15d4:	000b390b 	andeq	r3, fp, fp, lsl #18
    15d8:	11010000 	mrsne	r0, (UNDEF: 1)
    15dc:	130e2501 	movwne	r2, #58625	; 0xe501
    15e0:	1b0e030b 	blne	382214 <__bss_end__+0x377fbc>
    15e4:	1201110e 	andne	r1, r1, #-2147483645	; 0x80000003
    15e8:	00171006 	andseq	r1, r7, r6
    15ec:	00240200 	eoreq	r0, r4, r0, lsl #4
    15f0:	0b3e0b0b 	bleq	f84224 <__bss_end__+0xf79fcc>
    15f4:	00000803 	andeq	r0, r0, r3, lsl #16
    15f8:	0b002403 	bleq	a60c <__bss_end__+0x3b4>
    15fc:	030b3e0b 	movweq	r3, #48651	; 0xbe0b
    1600:	0400000e 	streq	r0, [r0], #-14
    1604:	19270115 	stmdbne	r7!, {r0, r2, r4, r8}
    1608:	13011349 	movwne	r1, #4937	; 0x1349
    160c:	05050000 	streq	r0, [r5, #-0]
    1610:	00134900 	andseq	r4, r3, r0, lsl #18
    1614:	00340600 	eorseq	r0, r4, r0, lsl #12
    1618:	0b3a0e03 	bleq	e84e2c <__bss_end__+0xe7abd4>
    161c:	0b390b3b 	bleq	e44310 <__bss_end__+0xe3a0b8>
    1620:	193f1349 	ldmdbne	pc!, {r0, r3, r6, r8, r9, ip}	; <UNPREDICTABLE>
    1624:	0000193c 	andeq	r1, r0, ip, lsr r9
    1628:	0b000f07 	bleq	524c <__code_start__-0x2db4>
    162c:	0013490b 	andseq	r4, r3, fp, lsl #18
    1630:	00260800 	eoreq	r0, r6, r0, lsl #16
    1634:	00001349 	andeq	r1, r0, r9, asr #6
    1638:	3f012e09 	svccc	0x00012e09
    163c:	3a0e0319 	bcc	3822a8 <__bss_end__+0x378050>
    1640:	390b3b0b 	stmdbcc	fp, {r0, r1, r3, r8, r9, fp, ip, sp}
    1644:	4919270b 	ldmdbmi	r9, {r0, r1, r3, r8, r9, sl, sp}
    1648:	12011113 	andne	r1, r1, #-1073741820	; 0xc0000004
    164c:	97184006 	ldrls	r4, [r8, -r6]
    1650:	13011942 	movwne	r1, #6466	; 0x1942
    1654:	050a0000 	streq	r0, [sl, #-0]
    1658:	3a0e0300 	bcc	382260 <__bss_end__+0x378008>
    165c:	390b3b0b 	stmdbcc	fp, {r0, r1, r3, r8, r9, fp, ip, sp}
    1660:	0213490b 	andseq	r4, r3, #180224	; 0x2c000
    1664:	0b000018 	bleq	16cc <__code_start__-0x6934>
    1668:	08030005 	stmdaeq	r3, {r0, r2}
    166c:	0b3b0b3a 	bleq	ec435c <__bss_end__+0xeba104>
    1670:	13490b39 	movtne	r0, #39737	; 0x9b39
    1674:	42b71702 	adcsmi	r1, r7, #524288	; 0x80000
    1678:	0c000017 	stceq	0, cr0, [r0], {23}
    167c:	08030034 	stmdaeq	r3, {r2, r4, r5}
    1680:	0b3b0b3a 	bleq	ec4370 <__bss_end__+0xeba118>
    1684:	13490b39 	movtne	r0, #39737	; 0x9b39
    1688:	42b71702 	adcsmi	r1, r7, #524288	; 0x80000
    168c:	00000017 	andeq	r0, r0, r7, lsl r0
    1690:	25011101 	strcs	r1, [r1, #-257]	; 0xfffffeff
    1694:	030b130e 	movweq	r1, #45838	; 0xb30e
    1698:	110e1b0e 	tstne	lr, lr, lsl #22
    169c:	10061201 	andne	r1, r6, r1, lsl #4
    16a0:	02000017 	andeq	r0, r0, #23, 0
    16a4:	0b0b0024 	bleq	2c173c <__bss_end__+0x2b74e4>
    16a8:	08030b3e 	stmdaeq	r3, {r1, r2, r3, r4, r5, r8, r9, fp}
    16ac:	24030000 	strcs	r0, [r3], #-0
    16b0:	3e0b0b00 	vmlacc.f64	d0, d11, d0
    16b4:	000e030b 	andeq	r0, lr, fp, lsl #6
    16b8:	01150400 	tsteq	r5, r0, lsl #8
    16bc:	13491927 	movtne	r1, #39207	; 0x9927
    16c0:	00001301 	andeq	r1, r0, r1, lsl #6
    16c4:	49000505 	stmdbmi	r0, {r0, r2, r8, sl}
    16c8:	06000013 			; <UNDEFINED> instruction: 0x06000013
    16cc:	0e030034 	mcreq	0, 0, r0, cr3, cr4, {1}
    16d0:	0b3b0b3a 	bleq	ec43c0 <__bss_end__+0xeba168>
    16d4:	13490b39 	movtne	r0, #39737	; 0x9b39
    16d8:	193c193f 	ldmdbne	ip!, {r0, r1, r2, r3, r4, r5, r8, fp, ip}
    16dc:	0f070000 	svceq	0x00070000
    16e0:	490b0b00 	stmdbmi	fp, {r8, r9, fp}
    16e4:	08000013 	stmdaeq	r0, {r0, r1, r4}
    16e8:	13490026 	movtne	r0, #36902	; 0x9026
    16ec:	2e090000 	cdpcs	0, 0, cr0, cr9, cr0, {0}
    16f0:	03193f01 	tsteq	r9, #1, 30
    16f4:	3b0b3a0e 	blcc	2cff34 <__bss_end__+0x2c5cdc>
    16f8:	270b390b 	strcs	r3, [fp, -fp, lsl #18]
    16fc:	11134919 	tstne	r3, r9, lsl r9
    1700:	40061201 	andmi	r1, r6, r1, lsl #4
    1704:	19429718 	stmdbne	r2, {r3, r4, r8, r9, sl, ip, pc}^
    1708:	050a0000 	streq	r0, [sl, #-0]
    170c:	3a080300 	bcc	202314 <__bss_end__+0x1f80bc>
    1710:	390b3b0b 	stmdbcc	fp, {r0, r1, r3, r8, r9, fp, ip, sp}
    1714:	0213490b 	andseq	r4, r3, #180224	; 0x2c000
    1718:	1742b717 	smlaldne	fp, r2, r7, r7
    171c:	01000000 	mrseq	r0, (UNDEF: 0)
    1720:	0e250111 	mcreq	1, 1, r0, cr5, cr1, {0}
    1724:	0e030b13 	vmoveq.32	d3[0], r0
    1728:	01110e1b 	tsteq	r1, fp, lsl lr
    172c:	17100612 			; <UNDEFINED> instruction: 0x17100612
    1730:	24020000 	strcs	r0, [r2], #-0
    1734:	3e0b0b00 	vmlacc.f64	d0, d11, d0
    1738:	0008030b 	andeq	r0, r8, fp, lsl #6
    173c:	00240300 	eoreq	r0, r4, r0, lsl #6
    1740:	0b3e0b0b 	bleq	f84374 <__bss_end__+0xf7a11c>
    1744:	00000e03 	andeq	r0, r0, r3, lsl #28
    1748:	27011504 	strcs	r1, [r1, -r4, lsl #10]
    174c:	01134919 	tsteq	r3, r9, lsl r9
    1750:	05000013 	streq	r0, [r0, #-19]	; 0xffffffed
    1754:	13490005 	movtne	r0, #36869	; 0x9005
    1758:	34060000 	strcc	r0, [r6], #-0
    175c:	3a0e0300 	bcc	382364 <__bss_end__+0x37810c>
    1760:	390b3b0b 	stmdbcc	fp, {r0, r1, r3, r8, r9, fp, ip, sp}
    1764:	3f13490b 	svccc	0x0013490b
    1768:	00193c19 	andseq	r3, r9, r9, lsl ip
    176c:	000f0700 	andeq	r0, pc, r0, lsl #14
    1770:	13490b0b 	movtne	r0, #39691	; 0x9b0b
    1774:	26080000 	strcs	r0, [r8], -r0
    1778:	00134900 	andseq	r4, r3, r0, lsl #18
    177c:	012e0900 			; <UNDEFINED> instruction: 0x012e0900
    1780:	0e03193f 			; <UNDEFINED> instruction: 0x0e03193f
    1784:	0b3b0b3a 	bleq	ec4474 <__bss_end__+0xeba21c>
    1788:	19270b39 	stmdbne	r7!, {r0, r3, r4, r5, r8, r9, fp}
    178c:	01111349 	tsteq	r1, r9, asr #6
    1790:	18400612 	stmdane	r0, {r1, r4, r9, sl}^
    1794:	01194297 			; <UNDEFINED> instruction: 0x01194297
    1798:	0a000013 	beq	17ec <__code_start__-0x6814>
    179c:	08030005 	stmdaeq	r3, {r0, r2}
    17a0:	0b3b0b3a 	bleq	ec4490 <__bss_end__+0xeba238>
    17a4:	13490b39 	movtne	r0, #39737	; 0x9b39
    17a8:	00001802 	andeq	r1, r0, r2, lsl #16
    17ac:	0300050b 	movweq	r0, #1291	; 0x50b
    17b0:	3b0b3a08 	blcc	2cffd8 <__bss_end__+0x2c5d80>
    17b4:	490b390b 	stmdbmi	fp, {r0, r1, r3, r8, fp, ip, sp}
    17b8:	b7170213 			; <UNDEFINED> instruction: 0xb7170213
    17bc:	00001742 	andeq	r1, r0, r2, asr #14
    17c0:	0300340c 	movweq	r3, #1036	; 0x40c
    17c4:	3b0b3a08 	blcc	2cffec <__bss_end__+0x2c5d94>
    17c8:	490b390b 	stmdbmi	fp, {r0, r1, r3, r8, fp, ip, sp}
    17cc:	b7170213 			; <UNDEFINED> instruction: 0xb7170213
    17d0:	00001742 	andeq	r1, r0, r2, asr #14
    17d4:	01110100 	tsteq	r1, r0, lsl #2
    17d8:	0b130e25 	bleq	4c5074 <__bss_end__+0x4bae1c>
    17dc:	0e1b0e03 	cdpeq	14, 1, cr0, cr11, cr3, {0}
    17e0:	06120111 			; <UNDEFINED> instruction: 0x06120111
    17e4:	00001710 	andeq	r1, r0, r0, lsl r7
    17e8:	0b002402 	bleq	a7f8 <__bss_end__+0x5a0>
    17ec:	030b3e0b 	movweq	r3, #48651	; 0xbe0b
    17f0:	03000008 	movweq	r0, #8
    17f4:	0e030016 	mcreq	0, 0, r0, cr3, cr6, {0}
    17f8:	0b3b0b3a 	bleq	ec44e8 <__bss_end__+0xeba290>
    17fc:	13490b39 	movtne	r0, #39737	; 0x9b39
    1800:	24040000 	strcs	r0, [r4], #-0
    1804:	3e0b0b00 	vmlacc.f64	d0, d11, d0
    1808:	000e030b 	andeq	r0, lr, fp, lsl #6
    180c:	00260500 	eoreq	r0, r6, r0, lsl #10
    1810:	00001349 	andeq	r1, r0, r9, asr #6
    1814:	27011506 	strcs	r1, [r1, -r6, lsl #10]
    1818:	01134919 	tsteq	r3, r9, lsl r9
    181c:	07000013 	smladeq	r0, r3, r0, r0
    1820:	13490005 	movtne	r0, #36869	; 0x9005
    1824:	34080000 	strcc	r0, [r8], #-0
    1828:	3a0e0300 	bcc	382430 <__bss_end__+0x3781d8>
    182c:	390b3b0b 	stmdbcc	fp, {r0, r1, r3, r8, r9, fp, ip, sp}
    1830:	3f13490b 	svccc	0x0013490b
    1834:	00193c19 	andseq	r3, r9, r9, lsl ip
    1838:	000f0900 	andeq	r0, pc, r0, lsl #18
    183c:	13490b0b 	movtne	r0, #39691	; 0x9b0b
    1840:	2e0a0000 	cdpcs	0, 0, cr0, cr10, cr0, {0}
    1844:	03193f01 	tsteq	r9, #1, 30
    1848:	3b0b3a0e 	blcc	2d0088 <__bss_end__+0x2c5e30>
    184c:	270b390b 	strcs	r3, [fp, -fp, lsl #18]
    1850:	11134919 	tstne	r3, r9, lsl r9
    1854:	40061201 	andmi	r1, r6, r1, lsl #4
    1858:	19429718 	stmdbne	r2, {r3, r4, r8, r9, sl, ip, pc}^
    185c:	00001301 	andeq	r1, r0, r1, lsl #6
    1860:	0300050b 	movweq	r0, #1291	; 0x50b
    1864:	3b0b3a08 	blcc	2d008c <__bss_end__+0x2c5e34>
    1868:	490b390b 	stmdbmi	fp, {r0, r1, r3, r8, fp, ip, sp}
    186c:	b7170213 			; <UNDEFINED> instruction: 0xb7170213
    1870:	00001742 	andeq	r1, r0, r2, asr #14
    1874:	0300340c 	movweq	r3, #1036	; 0x40c
    1878:	3b0b3a08 	blcc	2d00a0 <__bss_end__+0x2c5e48>
    187c:	490b390b 	stmdbmi	fp, {r0, r1, r3, r8, fp, ip, sp}
    1880:	b7170213 			; <UNDEFINED> instruction: 0xb7170213
    1884:	00001742 	andeq	r1, r0, r2, asr #14
    1888:	01110100 	tsteq	r1, r0, lsl #2
    188c:	0b130e25 	bleq	4c5128 <__bss_end__+0x4baed0>
    1890:	0e1b0e03 	cdpeq	14, 1, cr0, cr11, cr3, {0}
    1894:	06120111 			; <UNDEFINED> instruction: 0x06120111
    1898:	00001710 	andeq	r1, r0, r0, lsl r7
    189c:	0b002402 	bleq	a8ac <__bss_end__+0x654>
    18a0:	030b3e0b 	movweq	r3, #48651	; 0xbe0b
    18a4:	03000008 	movweq	r0, #8
    18a8:	0b0b0024 	bleq	2c1940 <__bss_end__+0x2b76e8>
    18ac:	0e030b3e 	vmoveq.16	d3[0], r0
    18b0:	15040000 	strne	r0, [r4, #-0]
    18b4:	49192701 	ldmdbmi	r9, {r0, r8, r9, sl, sp}
    18b8:	00130113 	andseq	r0, r3, r3, lsl r1
    18bc:	00050500 	andeq	r0, r5, r0, lsl #10
    18c0:	00001349 	andeq	r1, r0, r9, asr #6
    18c4:	03003406 	movweq	r3, #1030	; 0x406
    18c8:	3b0b3a0e 	blcc	2d0108 <__bss_end__+0x2c5eb0>
    18cc:	490b390b 	stmdbmi	fp, {r0, r1, r3, r8, fp, ip, sp}
    18d0:	3c193f13 	ldccc	15, cr3, [r9], {19}
    18d4:	07000019 	smladeq	r0, r9, r0, r0
    18d8:	0b0b000f 	bleq	2c191c <__bss_end__+0x2b76c4>
    18dc:	00001349 	andeq	r1, r0, r9, asr #6
    18e0:	49002608 	stmdbmi	r0, {r3, r9, sl, sp}
    18e4:	09000013 	stmdbeq	r0, {r0, r1, r4}
    18e8:	193f002e 	ldmdbne	pc!, {r1, r2, r3, r5}	; <UNPREDICTABLE>
    18ec:	0b3a0e03 	bleq	e85100 <__bss_end__+0xe7aea8>
    18f0:	0b390b3b 	bleq	e445e4 <__bss_end__+0xe3a38c>
    18f4:	01111927 	tsteq	r1, r7, lsr #18
    18f8:	18400612 	stmdane	r0, {r1, r4, r9, sl}^
    18fc:	00194297 	mulseq	r9, r7, r2
	...

Disassembly of section .debug_loc:

00000000 <.debug_loc>:
       0:	000c0000 	andeq	r0, ip, r0
       4:	00540000 	subseq	r0, r4, r0
       8:	00060000 	andeq	r0, r6, r0
       c:	ff080076 			; <UNDEFINED> instruction: 0xff080076
      10:	00009f1a 	andeq	r9, r0, sl, lsl pc
      14:	00000000 	andeq	r0, r0, r0
      18:	01000000 	mrseq	r0, (UNDEF: 0)
      1c:	00100000 	andseq	r0, r0, r0
      20:	00200000 	eoreq	r0, r0, r0
      24:	00010000 	andeq	r0, r1, r0
      28:	00003055 	andeq	r3, r0, r5, asr r0
      2c:	00005400 	andeq	r5, r0, r0, lsl #8
      30:	55000100 	strpl	r0, [r0, #-256]	; 0xffffff00
	...
      3c:	00020100 	andeq	r0, r2, r0, lsl #2
      40:	00100000 	andseq	r0, r0, r0
      44:	00200000 	eoreq	r0, r0, r0
      48:	00010000 	andeq	r0, r1, r0
      4c:	00003054 	andeq	r3, r0, r4, asr r0
      50:	00003400 	andeq	r3, r0, r0, lsl #8
      54:	30000200 	andcc	r0, r0, r0, lsl #4
      58:	0000349f 	muleq	r0, pc, r4	; <UNPREDICTABLE>
      5c:	00005400 	andeq	r5, r0, r0, lsl #8
      60:	54000100 	strpl	r0, [r0], #-256	; 0xffffff00
	...
      6c:	13020000 	movwne	r0, #8192	; 0x2000
      70:	00272713 	eoreq	r2, r7, r3, lsl r7
      74:	00000000 	andeq	r0, r0, r0
      78:	00cc0000 	sbceq	r0, ip, r0
      7c:	00e00000 	rsceq	r0, r0, r0
      80:	00010000 	andeq	r0, r1, r0
      84:	00010c50 	andeq	r0, r1, r0, asr ip
      88:	00010c00 	andeq	r0, r1, r0, lsl #24
      8c:	30000200 	andcc	r0, r0, r0, lsl #4
      90:	00010c9f 	muleq	r1, pc, ip	; <UNPREDICTABLE>
      94:	00010c00 	andeq	r0, r1, r0, lsl #24
      98:	0a000400 	beq	10a0 <__code_start__-0x6f60>
      9c:	0c9f0200 	lfmeq	f0, 4, [pc], {0}
      a0:	34000001 	strcc	r0, [r0], #-1
      a4:	04000001 	streq	r0, [r0], #-1
      a8:	02e00a00 	rsceq	r0, r0, #0, 20
      ac:	0001349f 	muleq	r1, pc, r4	; <UNPREDICTABLE>
      b0:	00015000 	andeq	r5, r1, r0
      b4:	50000100 	andpl	r0, r0, r0, lsl #2
      b8:	000001d4 	ldrdeq	r0, [r0], -r4
      bc:	000001d7 	ldrdeq	r0, [r0], -r7
      c0:	f8500001 			; <UNDEFINED> instruction: 0xf8500001
      c4:	fb000001 	blx	d2 <__code_start__-0x7f2e>
      c8:	01000001 	tsteq	r0, r1
      cc:	00005000 	andeq	r5, r0, r0
      d0:	00000000 	andeq	r0, r0, r0
      d4:	05020000 	streq	r0, [r2, #-0]
      d8:	000000e4 	andeq	r0, r0, r4, ror #1
      dc:	000000e4 	andeq	r0, r0, r4, ror #1
      e0:	9f380002 	svcls	0x00380002
	...
      ec:	00e40502 	rsceq	r0, r4, r2, lsl #10
      f0:	00e40000 	rsceq	r0, r4, r0
      f4:	00010000 	andeq	r0, r1, r0
      f8:	00000054 	andeq	r0, r0, r4, asr r0
      fc:	00000000 	andeq	r0, r0, r0
     100:	ec000300 	stc	3, cr0, [r0], {-0}
     104:	f4000000 	vst4.8	{d0-d3}, [r0], r0
     108:	02000000 	andeq	r0, r0, #0, 0
     10c:	009f3400 	addseq	r3, pc, r0, lsl #8
     110:	00000000 	andeq	r0, r0, r0
     114:	03000000 	movweq	r0, #0
     118:	0000ec00 	andeq	lr, r0, r0, lsl #24
     11c:	0000f400 	andeq	pc, r0, r0, lsl #8
     120:	37000200 	strcc	r0, [r0, -r0, lsl #4]
     124:	0000009f 	muleq	r0, pc, r0	; <UNPREDICTABLE>
     128:	00000000 	andeq	r0, r0, r0
     12c:	ec000300 	stc	3, cr0, [r0], {-0}
     130:	f4000000 	vst4.8	{d0-d3}, [r0], r0
     134:	02000000 	andeq	r0, r0, #0, 0
     138:	009f3500 	addseq	r3, pc, r0, lsl #10
     13c:	00000000 	andeq	r0, r0, r0
     140:	03000000 	movweq	r0, #0
     144:	0000ec00 	andeq	lr, r0, r0, lsl #24
     148:	0000f400 	andeq	pc, r0, r0, lsl #8
     14c:	54000100 	strpl	r0, [r0], #-256	; 0xffffff00
	...
     158:	00ec0007 	rsceq	r0, ip, r7
     15c:	00f40000 	rscseq	r0, r4, r0
     160:	00020000 	andeq	r0, r2, r0
     164:	00009f37 	andeq	r9, r0, r7, lsr pc
     168:	00000000 	andeq	r0, r0, r0
     16c:	00070000 	andeq	r0, r7, r0
     170:	000000ec 	andeq	r0, r0, ip, ror #1
     174:	000000f4 	strdeq	r0, [r0], -r4
     178:	9f350002 	svcls	0x00350002
	...
     184:	00ec0007 	rsceq	r0, ip, r7
     188:	00f40000 	rscseq	r0, r4, r0
     18c:	00010000 	andeq	r0, r1, r0
     190:	00000054 	andeq	r0, r0, r4, asr r0
     194:	00000000 	andeq	r0, r0, r0
     198:	fc000300 	stc2	3, cr0, [r0], {-0}
     19c:	04000000 	streq	r0, [r0], #-0
     1a0:	02000001 	andeq	r0, r0, #1, 0
     1a4:	009f3200 	addseq	r3, pc, r0, lsl #4
     1a8:	00000000 	andeq	r0, r0, r0
     1ac:	03000000 	movweq	r0, #0
     1b0:	0000fc00 	andeq	pc, r0, r0, lsl #24
     1b4:	00010400 	andeq	r0, r1, r0, lsl #8
     1b8:	3b000200 	blcc	9c0 <__code_start__-0x7640>
     1bc:	0000009f 	muleq	r0, pc, r0	; <UNPREDICTABLE>
     1c0:	00000000 	andeq	r0, r0, r0
     1c4:	fc000300 	stc2	3, cr0, [r0], {-0}
     1c8:	04000000 	streq	r0, [r0], #-0
     1cc:	02000001 	andeq	r0, r0, #1, 0
     1d0:	009f3900 	addseq	r3, pc, r0, lsl #18
     1d4:	00000000 	andeq	r0, r0, r0
     1d8:	03000000 	movweq	r0, #0
     1dc:	0000fc00 	andeq	pc, r0, r0, lsl #24
     1e0:	00010000 	andeq	r0, r1, r0
     1e4:	54000100 	strpl	r0, [r0], #-256	; 0xffffff00
	...
     1f0:	00fc0007 	rscseq	r0, ip, r7
     1f4:	01040000 	mrseq	r0, (UNDEF: 4)
     1f8:	00020000 	andeq	r0, r2, r0
     1fc:	00009f3b 	andeq	r9, r0, fp, lsr pc
     200:	00000000 	andeq	r0, r0, r0
     204:	00070000 	andeq	r0, r7, r0
     208:	000000fc 	strdeq	r0, [r0], -ip
     20c:	00000104 	andeq	r0, r0, r4, lsl #2
     210:	9f390002 	svcls	0x00390002
	...
     21c:	00fc0007 	rscseq	r0, ip, r7
     220:	01000000 	mrseq	r0, (UNDEF: 0)
     224:	00010000 	andeq	r0, r1, r0
     228:	00000054 	andeq	r0, r0, r4, asr r0
     22c:	00000000 	andeq	r0, r0, r0
     230:	34000200 	strcc	r0, [r0], #-512	; 0xfffffe00
     234:	3c000001 	stccc	0, cr0, [r0], {1}
     238:	02000001 	andeq	r0, r0, #1, 0
     23c:	009f3100 	addseq	r3, pc, r0, lsl #2
     240:	00000000 	andeq	r0, r0, r0
     244:	02000000 	andeq	r0, r0, #0, 0
     248:	00013400 	andeq	r3, r1, r0, lsl #8
     24c:	00013c00 	andeq	r3, r1, r0, lsl #24
     250:	3b000200 	blcc	a58 <__code_start__-0x75a8>
     254:	0000009f 	muleq	r0, pc, r0	; <UNPREDICTABLE>
     258:	00000000 	andeq	r0, r0, r0
     25c:	34000200 	strcc	r0, [r0], #-512	; 0xfffffe00
     260:	3c000001 	stccc	0, cr0, [r0], {1}
     264:	02000001 	andeq	r0, r0, #1, 0
     268:	009f3900 	addseq	r3, pc, r0, lsl #18
     26c:	00000000 	andeq	r0, r0, r0
     270:	02000000 	andeq	r0, r0, #0, 0
     274:	00013400 	andeq	r3, r1, r0, lsl #8
     278:	00013c00 	andeq	r3, r1, r0, lsl #24
     27c:	50000100 	andpl	r0, r0, r0, lsl #2
	...
     288:	01340006 	teqeq	r4, r6
     28c:	013c0000 	teqeq	ip, r0
     290:	00020000 	andeq	r0, r2, r0
     294:	00009f3b 	andeq	r9, r0, fp, lsr pc
     298:	00000000 	andeq	r0, r0, r0
     29c:	00060000 	andeq	r0, r6, r0
     2a0:	00000134 	andeq	r0, r0, r4, lsr r1
     2a4:	0000013c 	andeq	r0, r0, ip, lsr r1
     2a8:	9f390002 	svcls	0x00390002
	...
     2b4:	01340006 	teqeq	r4, r6
     2b8:	013c0000 	teqeq	ip, r0
     2bc:	00010000 	andeq	r0, r1, r0
     2c0:	00000050 	andeq	r0, r0, r0, asr r0
     2c4:	00000000 	andeq	r0, r0, r0
     2c8:	44080300 	strmi	r0, [r8], #-768	; 0xfffffd00
     2cc:	44000001 	strmi	r0, [r0], #-1
     2d0:	02000001 	andeq	r0, r0, #1, 0
     2d4:	009f3800 	addseq	r3, pc, r0, lsl #16
     2d8:	00000000 	andeq	r0, r0, r0
     2dc:	03000000 	movweq	r0, #0
     2e0:	00014408 	andeq	r4, r1, r8, lsl #8
     2e4:	00014400 	andeq	r4, r1, r0, lsl #8
     2e8:	50000100 	andpl	r0, r0, r0, lsl #2
	...
     2f4:	01440805 	cmpeq	r4, r5, lsl #16
     2f8:	01440000 	mrseq	r0, (UNDEF: 68)
     2fc:	00020000 	andeq	r0, r2, r0
     300:	00009f38 	andeq	r9, r0, r8, lsr pc
     304:	00000000 	andeq	r0, r0, r0
     308:	08050000 	stmdaeq	r5, {}	; <UNPREDICTABLE>
     30c:	00000144 	andeq	r0, r0, r4, asr #2
     310:	00000144 	andeq	r0, r0, r4, asr #2
     314:	00500001 	subseq	r0, r0, r1
     318:	00000000 	andeq	r0, r0, r0
     31c:	03000000 	movweq	r0, #0
     320:	00014c00 	andeq	r4, r1, r0, lsl #24
     324:	00015400 	andeq	r5, r1, r0, lsl #8
     328:	37000200 	strcc	r0, [r0, -r0, lsl #4]
     32c:	0000009f 	muleq	r0, pc, r0	; <UNPREDICTABLE>
     330:	00000000 	andeq	r0, r0, r0
     334:	4c000300 	stcmi	3, cr0, [r0], {-0}
     338:	54000001 	strpl	r0, [r0], #-1
     33c:	02000001 	andeq	r0, r0, #1, 0
     340:	009f3500 	addseq	r3, pc, r0, lsl #10
     344:	00000000 	andeq	r0, r0, r0
     348:	03000000 	movweq	r0, #0
     34c:	00014c00 	andeq	r4, r1, r0, lsl #24
     350:	00015000 	andeq	r5, r1, r0
     354:	50000100 	andpl	r0, r0, r0, lsl #2
	...
     360:	014c0007 	cmpeq	ip, r7
     364:	01540000 	cmpeq	r4, r0
     368:	00020000 	andeq	r0, r2, r0
     36c:	00009f37 	andeq	r9, r0, r7, lsr pc
     370:	00000000 	andeq	r0, r0, r0
     374:	00070000 	andeq	r0, r7, r0
     378:	0000014c 	andeq	r0, r0, ip, asr #2
     37c:	00000154 	andeq	r0, r0, r4, asr r1
     380:	9f350002 	svcls	0x00350002
	...
     38c:	014c0007 	cmpeq	ip, r7
     390:	01500000 	cmpeq	r0, r0
     394:	00010000 	andeq	r0, r1, r0
     398:	00000050 	andeq	r0, r0, r0, asr r0
	...
     3a4:	00005400 	andeq	r5, r0, r0, lsl #8
     3a8:	00006f00 	andeq	r6, r0, r0, lsl #30
     3ac:	50000100 	andpl	r0, r0, r0, lsl #2
     3b0:	0000006f 	andeq	r0, r0, pc, rrx
     3b4:	00000094 	muleq	r0, r4, r0
     3b8:	01f30004 	mvnseq	r0, r4
     3bc:	00009f50 	andeq	r9, r0, r0, asr pc
	...
     3c8:	00540000 	subseq	r0, r4, r0
     3cc:	006c0000 	rsbeq	r0, ip, r0
     3d0:	00010000 	andeq	r0, r1, r0
     3d4:	00006c51 	andeq	r6, r0, r1, asr ip
     3d8:	00006f00 	andeq	r6, r0, r0, lsl #30
     3dc:	71000200 	mrsvc	r0, R8_usr
	...
     3ec:	00002800 	andeq	r2, r0, r0, lsl #16
     3f0:	00004b00 	andeq	r4, r0, r0, lsl #22
     3f4:	50000100 	andpl	r0, r0, r0, lsl #2
     3f8:	0000004b 	andeq	r0, r0, fp, asr #32
     3fc:	00000054 	andeq	r0, r0, r4, asr r0
     400:	01f30004 	mvnseq	r0, r4
     404:	00009f50 	andeq	r9, r0, r0, asr pc
	...
     414:	00000028 	andeq	r0, r0, r8, lsr #32
     418:	00000048 	andeq	r0, r0, r8, asr #32
     41c:	48510001 	ldmdami	r1, {r0}^
     420:	4b000000 	blmi	428 <__code_start__-0x7bd8>
     424:	02000000 	andeq	r0, r0, #0, 0
     428:	4b007100 	blmi	1c830 <__bss_end__+0x125d8>
     42c:	54000000 	strpl	r0, [r0], #-0
     430:	04000000 	streq	r0, [r0], #-0
     434:	5101f300 	mrspl	pc, SP_irq	; <UNPREDICTABLE>
     438:	0000009f 	muleq	r0, pc, r0	; <UNPREDICTABLE>
	...
     444:	00002800 	andeq	r2, r0, r0, lsl #16
     448:	00004400 	andeq	r4, r0, r0, lsl #8
     44c:	52000100 	andpl	r0, r0, #0
     450:	00000044 	andeq	r0, r0, r4, asr #32
     454:	00000054 	andeq	r0, r0, r4, asr r0
     458:	01f30004 	mvnseq	r0, r4
     45c:	00009f52 	andeq	r9, r0, r2, asr pc
	...
     468:	03f40000 	mvnseq	r0, #0, 0
     46c:	040b0000 	streq	r0, [fp], #-0
     470:	00010000 	andeq	r0, r1, r0
     474:	00040b50 	andeq	r0, r4, r0, asr fp
     478:	0004b000 	andeq	fp, r4, r0
     47c:	f3000400 	vshl.u8	d0, d0, d0
     480:	009f5001 	addseq	r5, pc, r1
	...
     48c:	f4000000 	vst4.8	{d0-d3}, [r0], r0
     490:	08000003 	stmdaeq	r0, {r0, r1}
     494:	01000004 	tsteq	r0, r4
     498:	04085100 	streq	r5, [r8], #-256	; 0xffffff00
     49c:	04b00000 	ldrteq	r0, [r0], #0
     4a0:	00010000 	andeq	r0, r1, r0
     4a4:	00000055 	andeq	r0, r0, r5, asr r0
	...
     4b0:	0003f400 	andeq	pc, r3, r0, lsl #8
     4b4:	00040400 	andeq	r0, r4, r0, lsl #8
     4b8:	52000100 	andpl	r0, r0, #0
     4bc:	00000404 	andeq	r0, r0, r4, lsl #8
     4c0:	000004b0 			; <UNDEFINED> instruction: 0x000004b0
     4c4:	00540001 	subseq	r0, r4, r1
     4c8:	00000000 	andeq	r0, r0, r0
     4cc:	02000000 	andeq	r0, r0, #0, 0
     4d0:	00000000 	andeq	r0, r0, r0
     4d4:	0c000000 	stceq	0, cr0, [r0], {-0}
     4d8:	14000004 	strne	r0, [r0], #-4
     4dc:	02000004 	andeq	r0, r0, #4, 0
     4e0:	149f3000 	ldrne	r3, [pc], #0	; 4e8 <__code_start__-0x7b18>
     4e4:	1c000004 	stcne	0, cr0, [r0], {4}
     4e8:	01000004 	tsteq	r0, r4
     4ec:	042c5200 	strteq	r5, [ip], #-512	; 0xfffffe00
     4f0:	047c0000 	ldrbteq	r0, [ip], #-0
     4f4:	00010000 	andeq	r0, r1, r0
     4f8:	00048c52 	andeq	r8, r4, r2, asr ip
     4fc:	00048f00 	andeq	r8, r4, r0, lsl #30
     500:	52000100 	andpl	r0, r0, #0
	...
     510:	00000338 	andeq	r0, r0, r8, lsr r3
     514:	0000034f 	andeq	r0, r0, pc, asr #6
     518:	4f500001 	svcmi	0x00500001
     51c:	f4000003 	vst4.8	{d0-d3}, [r0], r3
     520:	04000003 	streq	r0, [r0], #-3
     524:	5001f300 	andpl	pc, r1, r0, lsl #6
     528:	0000009f 	muleq	r0, pc, r0	; <UNPREDICTABLE>
	...
     534:	00033800 	andeq	r3, r3, r0, lsl #16
     538:	00034c00 	andeq	r4, r3, r0, lsl #24
     53c:	51000100 	mrspl	r0, (UNDEF: 16)
     540:	0000034c 	andeq	r0, r0, ip, asr #6
     544:	000003f4 	strdeq	r0, [r0], -r4
     548:	00550001 	subseq	r0, r5, r1
	...
     554:	38000000 	stmdacc	r0, {}	; <UNPREDICTABLE>
     558:	48000003 	stmdami	r0, {r0, r1}
     55c:	01000003 	tsteq	r0, r3
     560:	03485200 	movteq	r5, #33280	; 0x8200
     564:	03f40000 	mvnseq	r0, #0, 0
     568:	00010000 	andeq	r0, r1, r0
     56c:	00000054 	andeq	r0, r0, r4, asr r0
     570:	00000000 	andeq	r0, r0, r0
     574:	00000200 	andeq	r0, r0, r0, lsl #4
     578:	00000000 	andeq	r0, r0, r0
     57c:	00035000 	andeq	r5, r3, r0
     580:	00035800 	andeq	r5, r3, r0, lsl #16
     584:	30000200 	andcc	r0, r0, r0, lsl #4
     588:	0003589f 	muleq	r3, pc, r8	; <UNPREDICTABLE>
     58c:	00036000 	andeq	r6, r3, r0
     590:	52000100 	andpl	r0, r0, #0
     594:	00000370 	andeq	r0, r0, r0, ror r3
     598:	000003c0 	andeq	r0, r0, r0, asr #7
     59c:	d0520001 	subsle	r0, r2, r1
     5a0:	d3000003 	movwle	r0, #3
     5a4:	01000003 	tsteq	r0, r3
     5a8:	00005200 	andeq	r5, r0, r0, lsl #4
	...
     5b8:	00000164 	andeq	r0, r0, r4, ror #2
     5bc:	0000017b 	andeq	r0, r0, fp, ror r1
     5c0:	7b500001 	blvc	14005cc <__bss_end__+0x13f6374>
     5c4:	04000001 	streq	r0, [r0], #-1
     5c8:	01000003 	tsteq	r0, r3
     5cc:	03045600 	movweq	r5, #17920	; 0x4600
     5d0:	03380000 	teqeq	r8, #0, 0
     5d4:	00040000 	andeq	r0, r4, r0
     5d8:	9f5001f3 	svcls	0x005001f3
	...
     5ec:	01640000 	cmneq	r4, r0
     5f0:	017b0000 	cmneq	fp, r0
     5f4:	00010000 	andeq	r0, r1, r0
     5f8:	00017b51 	andeq	r7, r1, r1, asr fp
     5fc:	00021c00 	andeq	r1, r2, r0, lsl #24
     600:	55000100 	strpl	r0, [r0, #-256]	; 0xffffff00
     604:	0000021c 	andeq	r0, r0, ip, lsl r2
     608:	00000284 	andeq	r0, r0, r4, lsl #5
     60c:	01f30004 	mvnseq	r0, r4
     610:	02849f51 	addeq	r9, r4, #324	; 0x144
     614:	02e40000 	rsceq	r0, r4, #0, 0
     618:	00010000 	andeq	r0, r1, r0
     61c:	0002e455 	andeq	lr, r2, r5, asr r4
     620:	00033800 	andeq	r3, r3, r0, lsl #16
     624:	f3000400 	vshl.u8	d0, d0, d0
     628:	009f5101 	addseq	r5, pc, r1, lsl #2
	...
     638:	00016400 	andeq	r6, r1, r0, lsl #8
     63c:	00017b00 	andeq	r7, r1, r0, lsl #22
     640:	52000100 	andpl	r0, r0, #0
     644:	0000017b 	andeq	r0, r0, fp, ror r1
     648:	00000304 	andeq	r0, r0, r4, lsl #6
     64c:	04540001 	ldrbeq	r0, [r4], #-1
     650:	38000003 	stmdacc	r0, {r0, r1}
     654:	04000003 	streq	r0, [r0], #-3
     658:	5201f300 	andpl	pc, r1, #0, 6
     65c:	0000009f 	muleq	r0, pc, r0	; <UNPREDICTABLE>
     660:	00000000 	andeq	r0, r0, r0
     664:	2c000000 	stccs	0, cr0, [r0], {-0}
     668:	30000002 	andcc	r0, r0, r2
     66c:	01000002 	tsteq	r0, r2
     670:	00005300 	andeq	r5, r0, r0, lsl #6
	...
     67c:	011c0000 	tsteq	ip, r0
     680:	01230000 			; <UNDEFINED> instruction: 0x01230000
     684:	00010000 	andeq	r0, r1, r0
     688:	00012350 	andeq	r2, r1, r0, asr r3
     68c:	00012c00 	andeq	r2, r1, r0, lsl #24
     690:	f3000400 	vshl.u8	d0, d0, d0
     694:	009f5001 	addseq	r5, pc, r1
	...
     6a0:	00001000 	andeq	r1, r0, r0
     6a4:	00001400 	andeq	r1, r0, r0, lsl #8
     6a8:	50000100 	andpl	r0, r0, r0, lsl #2
	...
     6b8:	00000154 	andeq	r0, r0, r4, asr r1
     6bc:	0000015b 	andeq	r0, r0, fp, asr r1
     6c0:	5b500001 	blpl	14006cc <__bss_end__+0x13f6474>
     6c4:	64000001 	strvs	r0, [r0], #-1
     6c8:	04000001 	streq	r0, [r0], #-1
     6cc:	5001f300 	andpl	pc, r1, r0, lsl #6
     6d0:	0000009f 	muleq	r0, pc, r0	; <UNPREDICTABLE>
	...
     6dc:	00000001 	andeq	r0, r0, r1
     6e0:	00000400 	andeq	r0, r0, r0, lsl #8
     6e4:	50000100 	andpl	r0, r0, r0, lsl #2
     6e8:	0000000c 	andeq	r0, r0, ip
     6ec:	0000000c 	andeq	r0, r0, ip
     6f0:	00500001 	subseq	r0, r0, r1
	...
     700:	00017000 	andeq	r7, r1, r0
     704:	00017c00 	andeq	r7, r1, r0, lsl #24
     708:	50000100 	andpl	r0, r0, r0, lsl #2
     70c:	0000017c 	andeq	r0, r0, ip, ror r1
     710:	00000188 	andeq	r0, r0, r8, lsl #3
     714:	88540001 	ldmdahi	r4, {r0}^
     718:	98000001 	stmdals	r0, {r0}
     71c:	04000001 	streq	r0, [r0], #-1
     720:	5001f300 	andpl	pc, r1, r0, lsl #6
     724:	0000009f 	muleq	r0, pc, r0	; <UNPREDICTABLE>
	...
     734:	78000000 	stmdavc	r0, {}	; <UNPREDICTABLE>
     738:	7c000001 	stcvc	0, cr0, [r0], {1}
     73c:	0b000001 	bleq	748 <__code_start__-0x78b8>
     740:	35007000 	strcc	r7, [r0, #-0]
     744:	80b42325 	adcshi	r2, r4, r5, lsr #6
     748:	9f028180 	svcls	0x00028180
     74c:	0000017c 	andeq	r0, r0, ip, ror r1
     750:	00000180 	andeq	r0, r0, r0, lsl #3
     754:	0074000b 	rsbseq	r0, r4, fp
     758:	b4232535 	strtlt	r2, [r3], #-1333	; 0xfffffacb
     75c:	02818080 	addeq	r8, r1, #128, 0	; 0x80
     760:	0001809f 	muleq	r1, pc, r0	; <UNPREDICTABLE>
     764:	00018300 	andeq	r8, r1, r0, lsl #6
     768:	50000100 	andpl	r0, r0, r0, lsl #2
     76c:	00000183 	andeq	r0, r0, r3, lsl #3
     770:	00000188 	andeq	r0, r0, r8, lsl #3
     774:	0074000b 	rsbseq	r0, r4, fp
     778:	b4232535 	strtlt	r2, [r3], #-1333	; 0xfffffacb
     77c:	02818080 	addeq	r8, r1, #128, 0	; 0x80
     780:	0001889f 	muleq	r1, pc, r8	; <UNPREDICTABLE>
     784:	00019800 	andeq	r9, r1, r0, lsl #16
     788:	f3000c00 			; <UNDEFINED> instruction: 0xf3000c00
     78c:	25355001 	ldrcs	r5, [r5, #-1]!
     790:	8080b423 	addhi	fp, r0, r3, lsr #8
     794:	009f0281 	addseq	r0, pc, r1, lsl #5
     798:	00000000 	andeq	r0, r0, r0
     79c:	01000000 	mrseq	r0, (UNDEF: 0)
     7a0:	00000000 	andeq	r0, r0, r0
     7a4:	00017800 	andeq	r7, r1, r0, lsl #16
     7a8:	00017c00 	andeq	r7, r1, r0, lsl #24
     7ac:	70000500 	andvc	r0, r0, r0, lsl #10
     7b0:	9f1a4f00 	svcls	0x001a4f00
     7b4:	0000017c 	andeq	r0, r0, ip, ror r1
     7b8:	00000188 	andeq	r0, r0, r8, lsl #3
     7bc:	00740005 	rsbseq	r0, r4, r5
     7c0:	889f1a4f 	ldmhi	pc, {r0, r1, r2, r3, r6, r9, fp, ip}	; <UNPREDICTABLE>
     7c4:	98000001 	stmdals	r0, {r0}
     7c8:	01000001 	tsteq	r0, r1
     7cc:	00005400 	andeq	r5, r0, r0, lsl #8
	...
     7e0:	01400000 	mrseq	r0, (UNDEF: 64)
     7e4:	01540000 	cmpeq	r4, r0
     7e8:	00010000 	andeq	r0, r1, r0
     7ec:	00015450 	andeq	r5, r1, r0, asr r4
     7f0:	00015800 	andeq	r5, r1, r0, lsl #16
     7f4:	51000100 	mrspl	r0, (UNDEF: 16)
     7f8:	00000158 	andeq	r0, r0, r8, asr r1
     7fc:	0000015c 	andeq	r0, r0, ip, asr r1
     800:	01f30004 	mvnseq	r0, r4
     804:	015c9f50 	cmpeq	ip, r0, asr pc
     808:	01600000 	cmneq	r0, r0
     80c:	00010000 	andeq	r0, r1, r0
     810:	00016050 	andeq	r6, r1, r0, asr r0
     814:	00016400 	andeq	r6, r1, r0, lsl #8
     818:	51000100 	mrspl	r0, (UNDEF: 16)
     81c:	00000164 	andeq	r0, r0, r4, ror #2
     820:	00000170 	andeq	r0, r0, r0, ror r1
     824:	01f30004 	mvnseq	r0, r4
     828:	00009f50 	andeq	r9, r0, r0, asr pc
	...
     834:	01400000 	mrseq	r0, (UNDEF: 64)
     838:	014c0000 	mrseq	r0, (UNDEF: 76)
     83c:	00010000 	andeq	r0, r1, r0
     840:	00014c51 	andeq	r4, r1, r1, asr ip
     844:	00017000 	andeq	r7, r1, r0
     848:	f3000400 	vshl.u8	d0, d0, d0
     84c:	009f5101 	addseq	r5, pc, r1, lsl #2
     850:	00000000 	andeq	r0, r0, r0
     854:	01000000 	mrseq	r0, (UNDEF: 0)
     858:	00000000 	andeq	r0, r0, r0
     85c:	00015000 	andeq	r5, r1, r0
     860:	00015400 	andeq	r5, r1, r0, lsl #8
     864:	50000100 	andpl	r0, r0, r0, lsl #2
     868:	00000154 	andeq	r0, r0, r4, asr r1
     86c:	00000158 	andeq	r0, r0, r8, asr r1
     870:	58510001 	ldmdapl	r1, {r0}^
     874:	5c000001 	stcpl	0, cr0, [r0], {1}
     878:	04000001 	streq	r0, [r0], #-1
     87c:	5001f300 	andpl	pc, r1, r0, lsl #6
     880:	0000009f 	muleq	r0, pc, r0	; <UNPREDICTABLE>
     884:	00000000 	andeq	r0, r0, r0
     888:	00000200 	andeq	r0, r0, r0, lsl #4
     88c:	5c000000 	stcpl	0, cr0, [r0], {-0}
     890:	60000001 	andvs	r0, r0, r1
     894:	01000001 	tsteq	r0, r1
     898:	01605000 	cmneq	r0, r0
     89c:	01640000 	cmneq	r4, r0
     8a0:	00010000 	andeq	r0, r1, r0
     8a4:	00016451 	andeq	r6, r1, r1, asr r4
     8a8:	00017000 	andeq	r7, r1, r0
     8ac:	f3000400 	vshl.u8	d0, d0, d0
     8b0:	009f5001 	addseq	r5, pc, r1
	...
     8c0:	0000e800 	andeq	lr, r0, r0, lsl #16
     8c4:	00010800 	andeq	r0, r1, r0, lsl #16
     8c8:	50000100 	andpl	r0, r0, r0, lsl #2
     8cc:	00000108 	andeq	r0, r0, r8, lsl #2
     8d0:	00000128 	andeq	r0, r0, r8, lsr #2
     8d4:	28540001 	ldmdacs	r4, {r0}^
     8d8:	40000001 	andmi	r0, r0, r1
     8dc:	04000001 	streq	r0, [r0], #-1
     8e0:	5001f300 	andpl	pc, r1, r0, lsl #6
     8e4:	0000009f 	muleq	r0, pc, r0	; <UNPREDICTABLE>
     8e8:	00000000 	andeq	r0, r0, r0
     8ec:	00000200 	andeq	r0, r0, r0, lsl #4
     8f0:	e8000000 	stmda	r0, {}	; <UNPREDICTABLE>
     8f4:	08000000 	stmdaeq	r0, {}	; <UNPREDICTABLE>
     8f8:	01000001 	tsteq	r0, r1
     8fc:	01085000 	mrseq	r5, (UNDEF: 8)
     900:	01280000 			; <UNDEFINED> instruction: 0x01280000
     904:	00010000 	andeq	r0, r1, r0
     908:	00012854 	andeq	r2, r1, r4, asr r8
     90c:	00014000 	andeq	r4, r1, r0
     910:	f3000400 	vshl.u8	d0, d0, d0
     914:	009f5001 	addseq	r5, pc, r1
	...
     924:	0000f000 	andeq	pc, r0, r0
     928:	00010800 	andeq	r0, r1, r0, lsl #16
     92c:	50000100 	andpl	r0, r0, r0, lsl #2
     930:	00000108 	andeq	r0, r0, r8, lsl #2
     934:	00000128 	andeq	r0, r0, r8, lsr #2
     938:	28540001 	ldmdacs	r4, {r0}^
     93c:	40000001 	andmi	r0, r0, r1
     940:	04000001 	streq	r0, [r0], #-1
     944:	5001f300 	andpl	pc, r1, r0, lsl #6
     948:	0000009f 	muleq	r0, pc, r0	; <UNPREDICTABLE>
     94c:	00000000 	andeq	r0, r0, r0
     950:	00000300 	andeq	r0, r0, r0, lsl #6
     954:	f0000000 			; <UNDEFINED> instruction: 0xf0000000
     958:	08000000 	stmdaeq	r0, {}	; <UNPREDICTABLE>
     95c:	07000001 	streq	r0, [r0, -r1]
     960:	3a007000 	bcc	1c968 <__bss_end__+0x12710>
     964:	9f1e331d 	svcls	0x001e331d
     968:	00000108 	andeq	r0, r0, r8, lsl #2
     96c:	00000128 	andeq	r0, r0, r8, lsr #2
     970:	00740007 	rsbseq	r0, r4, r7
     974:	1e331d3a 	mrcne	13, 1, r1, cr3, cr10, {1}
     978:	0001289f 	muleq	r1, pc, r8	; <UNPREDICTABLE>
     97c:	00014000 	andeq	r4, r1, r0
     980:	f3000800 	vsub.i8	d0, d0, d0
     984:	1d3a5001 	ldcne	0, cr5, [sl, #-4]!
     988:	009f1e33 	addseq	r1, pc, r3, lsr lr	; <UNPREDICTABLE>
	...
     998:	00011000 	andeq	r1, r1, r0
     99c:	00013800 	andeq	r3, r1, r0, lsl #16
     9a0:	56000100 	strpl	r0, [r0], -r0, lsl #2
     9a4:	00000138 	andeq	r0, r0, r8, lsr r1
     9a8:	0000013b 	andeq	r0, r0, fp, lsr r1
     9ac:	3b500001 	blcc	14009b8 <__bss_end__+0x13f6760>
     9b0:	40000001 	andmi	r0, r0, r1
     9b4:	26000001 	strcs	r0, [r0], -r1
     9b8:	5001f300 	andpl	pc, r1, r0, lsl #6
     9bc:	25f72cf7 	ldrbcs	r2, [r7, #3319]!	; 0xcf7
     9c0:	cd0825f4 	cfstr32gt	mvfx2, [r8, #-976]	; 0xfffffc30
     9c4:	00cccccc 	sbceq	ip, ip, ip, asr #25
     9c8:	1e000000 	cdpne	0, 0, cr0, cr0, cr0, {0}
     9cc:	25f72008 	ldrbcs	r2, [r7, #8]!
     9d0:	f72cf725 			; <UNDEFINED> instruction: 0xf72cf725
     9d4:	23253300 			; <UNDEFINED> instruction: 0x23253300
     9d8:	40a08080 	adcmi	r8, r0, r0, lsl #1
     9dc:	009f2432 	addseq	r2, pc, r2, lsr r4	; <UNPREDICTABLE>
	...
     9e8:	00000101 	andeq	r0, r0, r1, lsl #2
     9ec:	20000000 	andcs	r0, r0, r0
     9f0:	20000001 	andcs	r0, r0, r1
     9f4:	01000001 	tsteq	r0, r1
     9f8:	01205000 			; <UNDEFINED> instruction: 0x01205000
     9fc:	01280000 			; <UNDEFINED> instruction: 0x01280000
     a00:	000d0000 	andeq	r0, sp, r0
     a04:	3a007437 	bcc	1dae8 <__bss_end__+0x13890>
     a08:	241e331d 	ldrcs	r3, [lr], #-797	; 0xfffffce3
     a0c:	1a007020 	bne	1ca94 <__bss_end__+0x1283c>
     a10:	0001289f 	muleq	r1, pc, r8	; <UNPREDICTABLE>
     a14:	00013000 	andeq	r3, r1, r0
     a18:	37000e00 	strcc	r0, [r0, -r0, lsl #28]
     a1c:	3a5001f3 	bcc	14011f0 <__bss_end__+0x13f6f98>
     a20:	241e331d 	ldrcs	r3, [lr], #-797	; 0xfffffce3
     a24:	1a007020 	bne	1caac <__bss_end__+0x12854>
     a28:	0001309f 	muleq	r1, pc, r0	; <UNPREDICTABLE>
     a2c:	00013b00 	andeq	r3, r1, r0, lsl #22
     a30:	37000e00 	strcc	r0, [r0, -r0, lsl #28]
     a34:	3a5001f3 	bcc	1401208 <__bss_end__+0x13f6fb0>
     a38:	241e331d 	ldrcs	r3, [lr], #-797	; 0xfffffce3
     a3c:	1a007320 	bne	1d6c4 <__bss_end__+0x1346c>
     a40:	0000009f 	muleq	r0, pc, r0	; <UNPREDICTABLE>
	...
     a4c:	00006000 	andeq	r6, r0, r0
     a50:	00009000 	andeq	r9, r0, r0
     a54:	50000100 	andpl	r0, r0, r0, lsl #2
     a58:	00000090 	muleq	r0, r0, r0
     a5c:	000000b8 	strheq	r0, [r0], -r8
     a60:	01f30004 	mvnseq	r0, r4
     a64:	00009f50 	andeq	r9, r0, r0, asr pc
     a68:	00000000 	andeq	r0, r0, r0
     a6c:	00020000 	andeq	r0, r2, r0
     a70:	00600000 	rsbeq	r0, r0, r0
     a74:	00900000 	addseq	r0, r0, r0
     a78:	00010000 	andeq	r0, r1, r0
     a7c:	00009050 	andeq	r9, r0, r0, asr r0
     a80:	0000b800 	andeq	fp, r0, r0, lsl #16
     a84:	f3000400 	vshl.u8	d0, d0, d0
     a88:	009f5001 	addseq	r5, pc, r1
	...
     a94:	68000000 	stmdavs	r0, {}	; <UNPREDICTABLE>
     a98:	90000000 	andls	r0, r0, r0
     a9c:	01000000 	mrseq	r0, (UNDEF: 0)
     aa0:	00905000 	addseq	r5, r0, r0
     aa4:	00b80000 	adcseq	r0, r8, r0
     aa8:	00040000 	andeq	r0, r4, r0
     aac:	9f5001f3 	svcls	0x005001f3
	...
     abc:	000000a0 	andeq	r0, r0, r0, lsr #1
     ac0:	000000b0 	strheq	r0, [r0], -r0	; <UNPREDICTABLE>
     ac4:	b0540001 	subslt	r0, r4, r1
     ac8:	b8000000 	stmdalt	r0, {}	; <UNPREDICTABLE>
     acc:	29000000 	stmdbcs	r0, {}	; <UNPREDICTABLE>
     ad0:	5001f300 	andpl	pc, r1, r0, lsl #6
     ad4:	f75001f3 			; <UNDEFINED> instruction: 0xf75001f3
     ad8:	f425f72c 	vld1.8	{d15}, [r5 :128], ip
     adc:	cccd0825 	stclgt	8, cr0, [sp], {37}	; 0x25
     ae0:	0000cccc 	andeq	ip, r0, ip, asr #25
     ae4:	081e0000 	ldmdaeq	lr, {}	; <UNPREDICTABLE>
     ae8:	2525f720 	strcs	pc, [r5, #-1824]!	; 0xfffff8e0
     aec:	00f72cf7 	ldrshteq	r2, [r7], #199	; 0xc7
     af0:	1e352533 	mrcne	5, 1, r2, cr5, cr3, {1}
     af4:	331c2431 	tstcc	ip, #822083584	; 0x31000000
     af8:	00009f1e 	andeq	r9, r0, lr, lsl pc
     afc:	00000000 	andeq	r0, r0, r0
     b00:	00010000 	andeq	r0, r1, r0
     b04:	00000000 	andeq	r0, r0, r0
     b08:	000000a0 	andeq	r0, r0, r0, lsr #1
     b0c:	000000b0 	strheq	r0, [r0], -r0	; <UNPREDICTABLE>
     b10:	b0550001 	subslt	r0, r5, r1
     b14:	b3000000 	movwlt	r0, #0
     b18:	01000000 	mrseq	r0, (UNDEF: 0)
     b1c:	00b35000 	adcseq	r5, r3, r0
     b20:	00b80000 	adcseq	r0, r8, r0
     b24:	00260000 	eoreq	r0, r6, r0
     b28:	f75001f3 			; <UNDEFINED> instruction: 0xf75001f3
     b2c:	f425f72c 	vld1.8	{d15}, [r5 :128], ip
     b30:	cccd0825 	stclgt	8, cr0, [sp], {37}	; 0x25
     b34:	0000cccc 	andeq	ip, r0, ip, asr #25
     b38:	081e0000 	ldmdaeq	lr, {}	; <UNPREDICTABLE>
     b3c:	2525f720 	strcs	pc, [r5, #-1824]!	; 0xfffff8e0
     b40:	00f72cf7 	ldrshteq	r2, [r7], #199	; 0xc7
     b44:	80232533 	eorhi	r2, r3, r3, lsr r5
     b48:	3240a080 	subcc	sl, r0, #128, 0	; 0x80
     b4c:	00009f24 	andeq	r9, r0, r4, lsr #30
     b50:	00000000 	andeq	r0, r0, r0
     b54:	00020000 	andeq	r0, r2, r0
     b58:	00010100 	andeq	r0, r1, r0, lsl #2
     b5c:	00a00000 	adceq	r0, r0, r0
     b60:	00a40000 	adceq	r0, r4, r0
     b64:	00010000 	andeq	r0, r1, r0
     b68:	0000a450 	andeq	sl, r0, r0, asr r4
     b6c:	0000a400 	andeq	sl, r0, r0, lsl #8
     b70:	53000100 	movwpl	r0, #256	; 0x100
     b74:	000000a4 	andeq	r0, r0, r4, lsr #1
     b78:	000000a8 	andeq	r0, r0, r8, lsr #1
     b7c:	74310008 	ldrtvc	r0, [r1], #-8
     b80:	00732400 	rsbseq	r2, r3, r0, lsl #8
     b84:	00a89f21 	adceq	r9, r8, r1, lsr #30
     b88:	00b30000 	adcseq	r0, r3, r0
     b8c:	00010000 	andeq	r0, r1, r0
     b90:	00000051 	andeq	r0, r0, r1, asr r0
	...
     ba0:	00003c00 	andeq	r3, r0, r0, lsl #24
     ba4:	50000100 	andpl	r0, r0, r0, lsl #2
     ba8:	0000003c 	andeq	r0, r0, ip, lsr r0
     bac:	00000060 	andeq	r0, r0, r0, rrx
     bb0:	01f30004 	mvnseq	r0, r4
     bb4:	00009f50 	andeq	r9, r0, r0, asr pc
	...
     bc4:	003f0000 	eorseq	r0, pc, r0
     bc8:	00010000 	andeq	r0, r1, r0
     bcc:	00003f51 	andeq	r3, r0, r1, asr pc
     bd0:	00006000 	andeq	r6, r0, r0
     bd4:	f3000400 	vshl.u8	d0, d0, d0
     bd8:	009f5101 	addseq	r5, pc, r1, lsl #2
	...
     be4:	08000000 	stmdaeq	r0, {}	; <UNPREDICTABLE>
     be8:	3f000000 	svccc	0x00000000
     bec:	01000000 	mrseq	r0, (UNDEF: 0)
     bf0:	003f5100 	eorseq	r5, pc, r0, lsl #2
     bf4:	00600000 	rsbeq	r0, r0, r0
     bf8:	00040000 	andeq	r0, r4, r0
     bfc:	9f5101f3 	svcls	0x005101f3
	...
     c0c:	00000008 	andeq	r0, r0, r8
     c10:	0000003c 	andeq	r0, r0, ip, lsr r0
     c14:	3c500001 	mrrccc	0, 0, r0, r0, cr1	; <UNPREDICTABLE>
     c18:	60000000 	andvs	r0, r0, r0
     c1c:	04000000 	streq	r0, [r0], #-0
     c20:	5001f300 	andpl	pc, r1, r0, lsl #6
     c24:	0000009f 	muleq	r0, pc, r0	; <UNPREDICTABLE>
	...
     c30:	00004800 	andeq	r4, r0, r0, lsl #16
     c34:	00005800 	andeq	r5, r0, r0, lsl #16
     c38:	54000100 	strpl	r0, [r0], #-256	; 0xffffff00
     c3c:	00000058 	andeq	r0, r0, r8, asr r0
     c40:	00000060 	andeq	r0, r0, r0, rrx
     c44:	01f30029 	mvnseq	r0, r9, lsr #32
     c48:	5001f350 	andpl	pc, r1, r0, asr r3	; <UNPREDICTABLE>
     c4c:	25f72cf7 	ldrbcs	r2, [r7, #3319]!	; 0xcf7
     c50:	cd0825f4 	cfstr32gt	mvfx2, [r8, #-976]	; 0xfffffc30
     c54:	00cccccc 	sbceq	ip, ip, ip, asr #25
     c58:	1e000000 	cdpne	0, 0, cr0, cr0, cr0, {0}
     c5c:	25f72008 	ldrbcs	r2, [r7, #8]!
     c60:	f72cf725 			; <UNDEFINED> instruction: 0xf72cf725
     c64:	35253300 	strcc	r3, [r5, #-768]!	; 0xfffffd00
     c68:	1c24311e 	stfnes	f3, [r4], #-120	; 0xffffff88
     c6c:	009f1e33 	addseq	r1, pc, r3, lsr lr	; <UNPREDICTABLE>
     c70:	00000000 	andeq	r0, r0, r0
     c74:	01000000 	mrseq	r0, (UNDEF: 0)
     c78:	00000000 	andeq	r0, r0, r0
     c7c:	00004800 	andeq	r4, r0, r0, lsl #16
     c80:	00005800 	andeq	r5, r0, r0, lsl #16
     c84:	56000100 	strpl	r0, [r0], -r0, lsl #2
     c88:	00000058 	andeq	r0, r0, r8, asr r0
     c8c:	0000005b 	andeq	r0, r0, fp, asr r0
     c90:	5b500001 	blpl	1400c9c <__bss_end__+0x13f6a44>
     c94:	60000000 	andvs	r0, r0, r0
     c98:	26000000 	strcs	r0, [r0], -r0
     c9c:	5001f300 	andpl	pc, r1, r0, lsl #6
     ca0:	25f72cf7 	ldrbcs	r2, [r7, #3319]!	; 0xcf7
     ca4:	cd0825f4 	cfstr32gt	mvfx2, [r8, #-976]	; 0xfffffc30
     ca8:	00cccccc 	sbceq	ip, ip, ip, asr #25
     cac:	1e000000 	cdpne	0, 0, cr0, cr0, cr0, {0}
     cb0:	25f72008 	ldrbcs	r2, [r7, #8]!
     cb4:	f72cf725 			; <UNDEFINED> instruction: 0xf72cf725
     cb8:	23253300 			; <UNDEFINED> instruction: 0x23253300
     cbc:	40a08080 	adcmi	r8, r0, r0, lsl #1
     cc0:	009f2432 	addseq	r2, pc, r2, lsr r4	; <UNPREDICTABLE>
     cc4:	00000000 	andeq	r0, r0, r0
     cc8:	02000000 	andeq	r0, r0, #0, 0
     ccc:	01010000 	mrseq	r0, (UNDEF: 1)
     cd0:	48000000 	stmdami	r0, {}	; <UNPREDICTABLE>
     cd4:	4c000000 	stcmi	0, cr0, [r0], {-0}
     cd8:	01000000 	mrseq	r0, (UNDEF: 0)
     cdc:	004c5000 	subeq	r5, ip, r0
     ce0:	004c0000 	subeq	r0, ip, r0
     ce4:	00010000 	andeq	r0, r1, r0
     ce8:	00004c51 	andeq	r4, r0, r1, asr ip
     cec:	00005000 	andeq	r5, r0, r0
     cf0:	75000c00 	strvc	r0, [r0, #-3072]	; 0xfffff400
     cf4:	1aff0800 	bne	fffc2cfc <__bss_end__+0xfffb8aa4>
     cf8:	71240074 			; <UNDEFINED> instruction: 0x71240074
     cfc:	509f2100 	addspl	r2, pc, r0, lsl #2
     d00:	54000000 	strpl	r0, [r0], #-0
     d04:	12000000 	andne	r0, r0, #0, 0
     d08:	00743700 	rsbseq	r3, r4, r0, lsl #14
     d0c:	00702024 	rsbseq	r2, r0, r4, lsr #32
     d10:	0800751a 	stmdaeq	r0, {r1, r3, r4, r8, sl, ip, sp, lr}
     d14:	00741aff 	ldrshteq	r1, [r4], #-175	; 0xffffff51
     d18:	009f2124 	addseq	r2, pc, r4, lsr #2
	...
     d28:	0000b800 	andeq	fp, r0, r0, lsl #16
     d2c:	0000c400 	andeq	ip, r0, r0, lsl #8
     d30:	50000100 	andpl	r0, r0, r0, lsl #2
     d34:	000000c4 	andeq	r0, r0, r4, asr #1
     d38:	000000cb 	andeq	r0, r0, fp, asr #1
     d3c:	cb530001 	blgt	14c0d48 <__bss_end__+0x14b6af0>
     d40:	d0000000 	andle	r0, r0, r0
     d44:	04000000 	streq	r0, [r0], #-0
     d48:	5001f300 	andpl	pc, r1, r0, lsl #6
     d4c:	0000009f 	muleq	r0, pc, r0	; <UNPREDICTABLE>
	...
     d58:	d0000000 	andle	r0, r0, r0
     d5c:	dc000000 	stcle	0, cr0, [r0], {-0}
     d60:	01000000 	mrseq	r0, (UNDEF: 0)
     d64:	00dc5000 	sbcseq	r5, ip, r0
     d68:	00e30000 	rsceq	r0, r3, r0
     d6c:	00010000 	andeq	r0, r1, r0
     d70:	0000e353 	andeq	lr, r0, r3, asr r3
     d74:	0000e800 	andeq	lr, r0, r0, lsl #16
     d78:	f3000400 	vshl.u8	d0, d0, d0
     d7c:	009f5001 	addseq	r5, pc, r1
	...
     d8c:	00002c00 	andeq	r2, r0, r0, lsl #24
     d90:	00003400 	andeq	r3, r0, r0, lsl #8
     d94:	50000100 	andpl	r0, r0, r0, lsl #2
     d98:	00000034 	andeq	r0, r0, r4, lsr r0
     d9c:	00000048 	andeq	r0, r0, r8, asr #32
     da0:	48540001 	ldmdami	r4, {r0}^
     da4:	58000000 	stmdapl	r0, {}	; <UNPREDICTABLE>
     da8:	01000000 	mrseq	r0, (UNDEF: 0)
     dac:	00005000 	andeq	r5, r0, r0
	...
     dbc:	000b0000 	andeq	r0, fp, r0
     dc0:	00010000 	andeq	r0, r1, r0
     dc4:	00000b50 	andeq	r0, r0, r0, asr fp
     dc8:	00001400 	andeq	r1, r0, r0, lsl #8
     dcc:	54000100 	strpl	r0, [r0], #-256	; 0xffffff00
	...
     dd8:	01000000 	mrseq	r0, (UNDEF: 0)
     ddc:	00000001 	andeq	r0, r0, r1
     de0:	00000000 	andeq	r0, r0, r0
     de4:	0000000c 	andeq	r0, r0, ip
     de8:	0c500001 	mrrceq	0, 0, r0, r0, cr1	; <UNPREDICTABLE>
     dec:	20000000 	andcs	r0, r0, r0
     df0:	01000000 	mrseq	r0, (UNDEF: 0)
     df4:	00205400 	eoreq	r5, r0, r0, lsl #8
     df8:	00240000 	eoreq	r0, r4, r0
     dfc:	00030000 	andeq	r0, r3, r0
     e00:	249f0174 	ldrcs	r0, [pc], #372	; e08 <__code_start__-0x71f8>
     e04:	38000000 	stmdacc	r0, {}	; <UNPREDICTABLE>
     e08:	01000000 	mrseq	r0, (UNDEF: 0)
     e0c:	00005400 	andeq	r5, r0, r0, lsl #8
	...
     e20:	00000388 	andeq	r0, r0, r8, lsl #7
     e24:	00000394 	muleq	r0, r4, r3
     e28:	94500001 	ldrbls	r0, [r0], #-1
     e2c:	d0000003 	andle	r0, r0, r3
     e30:	01000003 	tsteq	r0, r3
     e34:	03d05b00 	bicseq	r5, r0, #0, 22
     e38:	09200000 	stmdbeq	r0!, {}	; <UNPREDICTABLE>
     e3c:	00040000 	andeq	r0, r4, r0
     e40:	9f5001f3 	svcls	0x005001f3
     e44:	00000920 	andeq	r0, r0, r0, lsr #18
     e48:	00000928 	andeq	r0, r0, r8, lsr #18
     e4c:	285b0001 	ldmdacs	fp, {r0}^
     e50:	b4000009 	strlt	r0, [r0], #-9
     e54:	04000009 	streq	r0, [r0], #-9
     e58:	5001f300 	andpl	pc, r1, r0, lsl #6
     e5c:	0000009f 	muleq	r0, pc, r0	; <UNPREDICTABLE>
	...
     e6c:	00038800 	andeq	r8, r3, r0, lsl #16
     e70:	0003d000 	andeq	sp, r3, r0
     e74:	51000100 	mrspl	r0, (UNDEF: 16)
     e78:	000003d0 	ldrdeq	r0, [r0], -r0	; <UNPREDICTABLE>
     e7c:	00000920 	andeq	r0, r0, r0, lsr #18
     e80:	01f30004 	mvnseq	r0, r4
     e84:	09209f51 	stmdbeq	r0!, {r0, r4, r6, r8, r9, sl, fp, ip, pc}
     e88:	09280000 	stmdbeq	r8!, {}	; <UNPREDICTABLE>
     e8c:	00010000 	andeq	r0, r1, r0
     e90:	00092851 	andeq	r2, r9, r1, asr r8
     e94:	0009b400 	andeq	fp, r9, r0, lsl #8
     e98:	f3000400 	vshl.u8	d0, d0, d0
     e9c:	009f5101 	addseq	r5, pc, r1, lsl #2
	...
     eac:	00010000 	andeq	r0, r1, r0
     eb0:	00000100 	andeq	r0, r0, r0, lsl #2
	...
     ebc:	88000000 	stmdahi	r0, {}	; <UNPREDICTABLE>
     ec0:	d0000003 	andle	r0, r0, r3
     ec4:	01000003 	tsteq	r0, r3
     ec8:	03d05200 	bicseq	r5, r0, #0, 4
     ecc:	04000000 	streq	r0, [r0], #-0
     ed0:	00010000 	andeq	r0, r1, r0
     ed4:	00041456 	andeq	r1, r4, r6, asr r4
     ed8:	00042400 	andeq	r2, r4, r0, lsl #8
     edc:	56000100 	strpl	r0, [r0], -r0, lsl #2
     ee0:	00000424 	andeq	r0, r0, r4, lsr #8
     ee4:	00000428 	andeq	r0, r0, r8, lsr #8
     ee8:	7f760003 	svcvc	0x00760003
     eec:	0004a89f 	muleq	r4, pc, r8	; <UNPREDICTABLE>
     ef0:	0004ac00 	andeq	sl, r4, r0, lsl #24
     ef4:	56000100 	strpl	r0, [r0], -r0, lsl #2
     ef8:	000004e0 	andeq	r0, r0, r0, ror #9
     efc:	00000504 	andeq	r0, r0, r4, lsl #10
     f00:	7c560001 	mrrcvc	0, 0, r0, r6, cr1
     f04:	88000005 	stmdahi	r0, {r0, r2}
     f08:	01000005 	tsteq	r0, r5
     f0c:	05885300 	streq	r5, [r8, #768]	; 0x300
     f10:	05d00000 	ldrbeq	r0, [r0]
     f14:	00030000 	andeq	r0, r3, r0
     f18:	007dcc91 			; <UNDEFINED> instruction: 0x007dcc91
     f1c:	0f000008 	svceq	0x00000008
     f20:	01000008 	tsteq	r0, r8
     f24:	080f5300 	stmdaeq	pc, {r8, r9, ip, lr}	; <UNPREDICTABLE>
     f28:	08880000 	stmeq	r8, {}	; <UNPREDICTABLE>
     f2c:	00030000 	andeq	r0, r3, r0
     f30:	207dcc91 			; <UNDEFINED> instruction: 0x207dcc91
     f34:	28000009 	stmdacs	r0, {r0, r3}
     f38:	01000009 	tsteq	r0, r9
     f3c:	09485200 	stmdbeq	r8, {r9, ip, lr}^
     f40:	09640000 	stmdbeq	r4!, {}^	; <UNPREDICTABLE>
     f44:	00030000 	andeq	r0, r3, r0
     f48:	007dcc91 			; <UNDEFINED> instruction: 0x007dcc91
	...
     f5c:	01010000 	mrseq	r0, (UNDEF: 1)
     f60:	01010000 	mrseq	r0, (UNDEF: 1)
     f64:	00000000 	andeq	r0, r0, r0
     f68:	00000202 	andeq	r0, r0, r2, lsl #4
     f6c:	00000202 	andeq	r0, r0, r2, lsl #4
     f70:	00000101 	andeq	r0, r0, r1, lsl #2
     f74:	00000202 	andeq	r0, r0, r2, lsl #4
     f78:	00000101 	andeq	r0, r0, r1, lsl #2
     f7c:	00000000 	andeq	r0, r0, r0
     f80:	88000000 	stmdahi	r0, {}	; <UNPREDICTABLE>
     f84:	ac000003 	stcge	0, cr0, [r0], {3}
     f88:	01000003 	tsteq	r0, r3
     f8c:	03ac5300 			; <UNDEFINED> instruction: 0x03ac5300
     f90:	03c00000 	biceq	r0, r0, #0, 0
     f94:	00030000 	andeq	r0, r3, r0
     f98:	d0049353 	andle	r9, r4, r3, asr r3
     f9c:	e8000003 	stmda	r0, {r0, r1}
     fa0:	03000003 	movweq	r0, #3
     fa4:	04935800 	ldreq	r5, [r3], #2048	; 0x800
     fa8:	000003e8 	andeq	r0, r0, r8, ror #7
     fac:	000004ac 	andeq	r0, r0, ip, lsr #9
     fb0:	93580003 	cmpls	r8, #3, 0
     fb4:	0004ac04 	andeq	sl, r4, r4, lsl #24
     fb8:	0004b000 	andeq	fp, r4, r0
     fbc:	53000100 	movwpl	r0, #256	; 0x100
     fc0:	000004c0 	andeq	r0, r0, r0, asr #9
     fc4:	000004c0 	andeq	r0, r0, r0, asr #9
     fc8:	93580003 	cmpls	r8, #3, 0
     fcc:	0004c004 	andeq	ip, r4, r4
     fd0:	0004cc00 	andeq	ip, r4, r0, lsl #24
     fd4:	78000500 	stmdavc	r0, {r8, sl}
     fd8:	04939f04 	ldreq	r9, [r3], #3844	; 0xf04
     fdc:	000004cc 	andeq	r0, r0, ip, asr #9
     fe0:	000004e0 	andeq	r0, r0, r0, ror #9
     fe4:	93580003 	cmpls	r8, #3, 0
     fe8:	0004e004 	andeq	lr, r4, r4
     fec:	00053800 	andeq	r3, r5, r0, lsl #16
     ff0:	58000300 	stmdapl	r0, {r8, r9}
     ff4:	05380493 	ldreq	r0, [r8, #-1171]!	; 0xfffffb6d
     ff8:	053c0000 	ldreq	r0, [ip, #-0]!
     ffc:	00050000 	andeq	r0, r5, r0
    1000:	939f7978 	orrsls	r7, pc, #120, 18	; 0x1e0000
    1004:	0005d004 	andeq	sp, r5, r4
    1008:	0005d000 	andeq	sp, r5, r0
    100c:	58000300 	stmdapl	r0, {r8, r9}
    1010:	05d00493 	ldrbeq	r0, [r0, #1171]	; 0x493
    1014:	05d40000 	ldrbeq	r0, [r4]
    1018:	00050000 	andeq	r0, r5, r0
    101c:	939f0478 	orrsls	r0, pc, #120, 8	; 0x78000000
    1020:	0005f404 	andeq	pc, r5, r4, lsl #8
    1024:	0005f400 	andeq	pc, r5, r0, lsl #8
    1028:	58000300 	stmdapl	r0, {r8, r9}
    102c:	05f40493 	ldrbeq	r0, [r4, #1171]!	; 0x493
    1030:	05fc0000 	ldrbeq	r0, [ip, #0]!
    1034:	00050000 	andeq	r0, r5, r0
    1038:	939f0478 	orrsls	r0, pc, #120, 8	; 0x78000000
    103c:	0005fc04 	andeq	pc, r5, r4, lsl #24
    1040:	0005fc00 	andeq	pc, r5, r0, lsl #24
    1044:	58000300 	stmdapl	r0, {r8, r9}
    1048:	05fc0493 	ldrbeq	r0, [ip, #1171]!	; 0x493
    104c:	06000000 	streq	r0, [r0], -r0
    1050:	00050000 	andeq	r0, r5, r0
    1054:	939f0478 	orrsls	r0, pc, #120, 8	; 0x78000000
    1058:	00060004 	andeq	r0, r6, r4
    105c:	00070000 	andeq	r0, r7, r0
    1060:	58000300 	stmdapl	r0, {r8, r9}
    1064:	07000493 			; <UNDEFINED> instruction: 0x07000493
    1068:	070c0000 	streq	r0, [ip, -r0]
    106c:	00050000 	andeq	r0, r5, r0
    1070:	939f0478 	orrsls	r0, pc, #120, 8	; 0x78000000
    1074:	00070c04 	andeq	r0, r7, r4, lsl #24
    1078:	0007f800 	andeq	pc, r7, r0, lsl #16
    107c:	58000300 	stmdapl	r0, {r8, r9}
    1080:	07f80493 			; <UNDEFINED> instruction: 0x07f80493
    1084:	07fc0000 	ldrbeq	r0, [ip, r0]!
    1088:	00050000 	andeq	r0, r5, r0
    108c:	939f0478 	orrsls	r0, pc, #120, 8	; 0x78000000
    1090:	0007fc04 	andeq	pc, r7, r4, lsl #24
    1094:	00080000 	andeq	r0, r8, r0
    1098:	58000300 	stmdapl	r0, {r8, r9}
    109c:	08880493 	stmeq	r8, {r0, r1, r4, r7, sl}
    10a0:	09200000 	stmdbeq	r0!, {}	; <UNPREDICTABLE>
    10a4:	00030000 	andeq	r0, r3, r0
    10a8:	20049358 	andcs	r9, r4, r8, asr r3
    10ac:	28000009 	stmdacs	r0, {r0, r3}
    10b0:	03000009 	movweq	r0, #9
    10b4:	04935300 	ldreq	r5, [r3], #768	; 0x300
    10b8:	00000964 	andeq	r0, r0, r4, ror #18
    10bc:	000009b4 			; <UNDEFINED> instruction: 0x000009b4
    10c0:	93580003 	cmpls	r8, #3, 0
    10c4:	00000004 	andeq	r0, r0, r4
    10c8:	00000000 	andeq	r0, r0, r0
    10cc:	00000100 	andeq	r0, r0, r0, lsl #2
    10d0:	00000000 	andeq	r0, r0, r0
    10d4:	02020000 	andeq	r0, r2, #0, 0
    10d8:	01000000 	mrseq	r0, (UNDEF: 0)
    10dc:	00000101 	andeq	r0, r0, r1, lsl #2
    10e0:	ac000000 	stcge	0, cr0, [r0], {-0}
    10e4:	d0000003 	andle	r0, r0, r3
    10e8:	01000003 	tsteq	r0, r3
    10ec:	03d05b00 	bicseq	r5, r0, #0, 22
    10f0:	03d40000 	bicseq	r0, r4, #0, 0
    10f4:	00010000 	andeq	r0, r1, r0
    10f8:	0003d454 	andeq	sp, r3, r4, asr r4
    10fc:	0003d800 	andeq	sp, r3, r0, lsl #16
    1100:	74000300 	strvc	r0, [r0], #-768	; 0xfffffd00
    1104:	03d89f7f 	bicseq	r9, r8, #508	; 0x1fc
    1108:	03fc0000 	mvnseq	r0, #0, 0
    110c:	00010000 	andeq	r0, r1, r0
    1110:	0004a854 	andeq	sl, r4, r4, asr r8
    1114:	0004ac00 	andeq	sl, r4, r0, lsl #24
    1118:	54000100 	strpl	r0, [r0], #-256	; 0xffffff00
    111c:	000004ac 	andeq	r0, r0, ip, lsr #9
    1120:	000004b4 			; <UNDEFINED> instruction: 0x000004b4
    1124:	01740003 	cmneq	r4, r3
    1128:	0004b49f 	muleq	r4, pc, r4	; <UNPREDICTABLE>
    112c:	0004c000 	andeq	ip, r4, r0
    1130:	54000100 	strpl	r0, [r0], #-256	; 0xffffff00
    1134:	000004e4 	andeq	r0, r0, r4, ror #9
    1138:	000004f4 	strdeq	r0, [r0], -r4
    113c:	f4540001 			; <UNDEFINED> instruction: 0xf4540001
    1140:	f8000004 			; <UNDEFINED> instruction: 0xf8000004
    1144:	03000004 	movweq	r0, #4
    1148:	9f017400 	svcls	0x00017400
    114c:	000004f8 	strdeq	r0, [r0], -r8
    1150:	00000504 	andeq	r0, r0, r4, lsl #10
    1154:	20540001 	subscs	r0, r4, r1
    1158:	28000009 	stmdacs	r0, {r0, r3}
    115c:	01000009 	tsteq	r0, r9
    1160:	00005b00 	andeq	r5, r0, r0, lsl #22
    1164:	00000000 	andeq	r0, r0, r0
    1168:	00010000 	andeq	r0, r1, r0
    116c:	000003ac 	andeq	r0, r0, ip, lsr #7
    1170:	000009b4 			; <UNDEFINED> instruction: 0x000009b4
    1174:	00570001 	subseq	r0, r7, r1
    1178:	00000000 	andeq	r0, r0, r0
    117c:	02000000 	andeq	r0, r0, #0, 0
    1180:	00000000 	andeq	r0, r0, r0
    1184:	00057c00 	andeq	r7, r5, r0, lsl #24
    1188:	0005d000 	andeq	sp, r5, r0
    118c:	5b000100 	blpl	1594 <__code_start__-0x6a6c>
    1190:	00000800 	andeq	r0, r0, r0, lsl #16
    1194:	00000888 	andeq	r0, r0, r8, lsl #17
    1198:	485b0001 	ldmdami	fp, {r0}^
    119c:	64000009 	strvs	r0, [r0], #-9
    11a0:	01000009 	tsteq	r0, r9
    11a4:	00005b00 	andeq	r5, r0, r0, lsl #22
    11a8:	00000000 	andeq	r0, r0, r0
    11ac:	00030000 	andeq	r0, r3, r0
    11b0:	00000000 	andeq	r0, r0, r0
    11b4:	0000057c 	andeq	r0, r0, ip, ror r5
    11b8:	000005d0 	ldrdeq	r0, [r0], -r0	; <UNPREDICTABLE>
    11bc:	00590001 	subseq	r0, r9, r1
    11c0:	88000008 	stmdahi	r0, {r3}
    11c4:	01000008 	tsteq	r0, r8
    11c8:	09485900 	stmdbeq	r8, {r8, fp, ip, lr}^
    11cc:	09640000 	stmdbeq	r4!, {}^	; <UNPREDICTABLE>
    11d0:	00010000 	andeq	r0, r1, r0
    11d4:	00000059 	andeq	r0, r0, r9, asr r0
    11d8:	00000000 	andeq	r0, r0, r0
    11dc:	00000400 	andeq	r0, r0, r0, lsl #8
    11e0:	00000000 	andeq	r0, r0, r0
    11e4:	0003ac00 	andeq	sl, r3, r0, lsl #24
    11e8:	0003d000 	andeq	sp, r3, r0
    11ec:	52000100 	andpl	r0, r0, #0
    11f0:	000003d0 	ldrdeq	r0, [r0], -r0	; <UNPREDICTABLE>
    11f4:	00000920 	andeq	r0, r0, r0, lsr #18
    11f8:	01f30004 	mvnseq	r0, r4
    11fc:	09209f52 	stmdbeq	r0!, {r1, r4, r6, r8, r9, sl, fp, ip, pc}
    1200:	09280000 	stmdbeq	r8!, {}	; <UNPREDICTABLE>
    1204:	00010000 	andeq	r0, r1, r0
    1208:	00092852 	andeq	r2, r9, r2, asr r8
    120c:	0009b400 	andeq	fp, r9, r0, lsl #8
    1210:	f3000400 	vshl.u8	d0, d0, d0
    1214:	009f5201 	addseq	r5, pc, r1, lsl #4
	...
    1220:	00000101 	andeq	r0, r0, r1, lsl #2
    1224:	01000000 	mrseq	r0, (UNDEF: 0)
    1228:	e0000000 	and	r0, r0, r0
    122c:	e0000004 	and	r0, r0, r4
    1230:	01000004 	tsteq	r0, r4
    1234:	04e05000 	strbteq	r5, [r0], #0
    1238:	04e80000 	strbteq	r0, [r8], #0
    123c:	00010000 	andeq	r0, r1, r0
    1240:	0005b855 	andeq	fp, r5, r5, asr r8
    1244:	0005d000 	andeq	sp, r5, r0
    1248:	55000100 	strpl	r0, [r0, #-256]	; 0xffffff00
    124c:	000005f0 	strdeq	r0, [r0], -r0	; <UNPREDICTABLE>
    1250:	000005f4 	strdeq	r0, [r0], -r4
    1254:	f4500001 			; <UNDEFINED> instruction: 0xf4500001
    1258:	f8000007 			; <UNDEFINED> instruction: 0xf8000007
    125c:	01000007 	tsteq	r0, r7
    1260:	08505500 	ldmdaeq	r0, {r8, sl, ip, lr}^
    1264:	08880000 	stmeq	r8, {}	; <UNPREDICTABLE>
    1268:	00010000 	andeq	r0, r1, r0
    126c:	00000055 	andeq	r0, r0, r5, asr r0
    1270:	00000000 	andeq	r0, r0, r0
    1274:	00000200 	andeq	r0, r0, r0, lsl #4
    1278:	00000000 	andeq	r0, r0, r0
    127c:	00041400 	andeq	r1, r4, r0, lsl #8
    1280:	00041800 	andeq	r1, r4, r0, lsl #16
    1284:	30000200 	andcc	r0, r0, r0, lsl #4
    1288:	0004189f 	muleq	r4, pc, r8	; <UNPREDICTABLE>
    128c:	00041c00 	andeq	r1, r4, r0, lsl #24
    1290:	55000100 	strpl	r0, [r0, #-256]	; 0xffffff00
    1294:	00000428 	andeq	r0, r0, r8, lsr #8
    1298:	0000043c 	andeq	r0, r0, ip, lsr r4
    129c:	28550001 	ldmdacs	r5, {r0}^
    12a0:	30000009 	andcc	r0, r0, r9
    12a4:	01000009 	tsteq	r0, r9
    12a8:	00005500 	andeq	r5, r0, r0, lsl #10
    12ac:	00000000 	andeq	r0, r0, r0
    12b0:	00010000 	andeq	r0, r1, r0
	...
    12bc:	05040000 	streq	r0, [r4, #-0]
    12c0:	05840000 	streq	r0, [r4]
    12c4:	00010000 	andeq	r0, r1, r0
    12c8:	00058456 	andeq	r8, r5, r6, asr r4
    12cc:	00058800 	andeq	r8, r5, r0, lsl #16
    12d0:	73000300 	movwvc	r0, #768	; 0x300
    12d4:	05889f7e 	streq	r9, [r8, #3966]	; 0xf7e
    12d8:	05d00000 	ldrbeq	r0, [r0]
    12dc:	00070000 	andeq	r0, r7, r0
    12e0:	067dcc91 			; <UNDEFINED> instruction: 0x067dcc91
    12e4:	009f1c32 	addseq	r1, pc, r2, lsr ip	; <UNPREDICTABLE>
    12e8:	1c000008 	stcne	0, cr0, [r0], {8}
    12ec:	01000008 	tsteq	r0, r8
    12f0:	081c5600 	ldmdaeq	ip, {r9, sl, ip, lr}
    12f4:	08880000 	stmeq	r8, {}	; <UNPREDICTABLE>
    12f8:	00070000 	andeq	r0, r7, r0
    12fc:	067dcc91 			; <UNDEFINED> instruction: 0x067dcc91
    1300:	489f1c32 	ldmmi	pc, {r1, r4, r5, sl, fp, ip}	; <UNPREDICTABLE>
    1304:	b4000009 	strlt	r0, [r0], #-9
    1308:	01000009 	tsteq	r0, r9
    130c:	00005600 	andeq	r5, r0, r0, lsl #12
    1310:	00000000 	andeq	r0, r0, r0
    1314:	06040000 	streq	r0, [r4], -r0
    1318:	04140402 	ldreq	r0, [r4], #-1026	; 0xfffffbfe
    131c:	04140000 	ldreq	r0, [r4], #-0
    1320:	00060000 	andeq	r0, r6, r0
    1324:	ff080072 			; <UNDEFINED> instruction: 0xff080072
    1328:	04289f1a 	strteq	r9, [r8], #-3866	; 0xfffff0e6
    132c:	04280000 	strteq	r0, [r8], #-0
    1330:	00060000 	andeq	r0, r6, r0
    1334:	ff080072 			; <UNDEFINED> instruction: 0xff080072
    1338:	00009f1a 	andeq	r9, r0, sl, lsl pc
    133c:	00000000 	andeq	r0, r0, r0
    1340:	00020000 	andeq	r0, r2, r0
    1344:	00000000 	andeq	r0, r0, r0
    1348:	000005fc 	strdeq	r0, [r0], -ip
    134c:	00000700 	andeq	r0, r0, r0, lsl #14
    1350:	80080003 	andhi	r0, r8, r3
    1354:	0008a89f 	muleq	r8, pc, r8	; <UNPREDICTABLE>
    1358:	0008bc00 	andeq	fp, r8, r0, lsl #24
    135c:	08000300 	stmdaeq	r0, {r8, r9}
    1360:	09109f80 	ldmdbeq	r0, {r7, r8, r9, sl, fp, ip, pc}
    1364:	09200000 	stmdbeq	r0!, {}	; <UNPREDICTABLE>
    1368:	00030000 	andeq	r0, r3, r0
    136c:	009f8008 	addseq	r8, pc, r8
    1370:	00000000 	andeq	r0, r0, r0
    1374:	01000000 	mrseq	r0, (UNDEF: 0)
    1378:	00000000 	andeq	r0, r0, r0
    137c:	0005fc00 	andeq	pc, r5, r0, lsl #24
    1380:	00070000 	andeq	r0, r7, r0
    1384:	30000200 	andcc	r0, r0, r0, lsl #4
    1388:	0008a89f 	muleq	r8, pc, r8	; <UNPREDICTABLE>
    138c:	0008bc00 	andeq	fp, r8, r0, lsl #24
    1390:	30000200 	andcc	r0, r0, r0, lsl #4
    1394:	0009109f 	muleq	r9, pc, r0	; <UNPREDICTABLE>
    1398:	00092000 	andeq	r2, r9, r0
    139c:	30000200 	andcc	r0, r0, r0, lsl #4
    13a0:	0000009f 	muleq	r0, pc, r0	; <UNPREDICTABLE>
    13a4:	00000000 	andeq	r0, r0, r0
    13a8:	00000100 	andeq	r0, r0, r0, lsl #2
    13ac:	fc000000 	stc2	0, cr0, [r0], {-0}
    13b0:	e0000005 	and	r0, r0, r5
    13b4:	01000006 	tsteq	r0, r6
    13b8:	08a85500 	stmiaeq	r8!, {r8, sl, ip, lr}
    13bc:	08bc0000 	ldmeq	ip!, {}	; <UNPREDICTABLE>
    13c0:	00010000 	andeq	r0, r1, r0
    13c4:	00091055 	andeq	r1, r9, r5, asr r0
    13c8:	00092000 	andeq	r2, r9, r0
    13cc:	55000100 	strpl	r0, [r0, #-256]	; 0xffffff00
	...
    13d8:	00000001 	andeq	r0, r0, r1
    13dc:	00000000 	andeq	r0, r0, r0
    13e0:	000005fc 	strdeq	r0, [r0], -ip
    13e4:	000006e0 	andeq	r0, r0, r0, ror #13
    13e8:	d0910004 	addsle	r0, r1, r4
    13ec:	06e09f7d 			; <UNDEFINED> instruction: 0x06e09f7d
    13f0:	07000000 	streq	r0, [r0, -r0]
    13f4:	00010000 	andeq	r0, r1, r0
    13f8:	0008a855 	andeq	sl, r8, r5, asr r8
    13fc:	0008bc00 	andeq	fp, r8, r0, lsl #24
    1400:	91000400 	tstls	r0, r0, lsl #8
    1404:	109f7dd0 			; <UNDEFINED> instruction: 0x109f7dd0
    1408:	20000009 	andcs	r0, r0, r9
    140c:	04000009 	streq	r0, [r0], #-9
    1410:	7dd09100 	ldfvcp	f1, [r0]
    1414:	0000009f 	muleq	r0, pc, r0	; <UNPREDICTABLE>
    1418:	00000000 	andeq	r0, r0, r0
    141c:	00000100 	andeq	r0, r0, r0, lsl #2
    1420:	fc000000 	stc2	0, cr0, [r0], {-0}
    1424:	00000005 	andeq	r0, r0, r5
    1428:	02000007 	andeq	r0, r0, #7, 0
    142c:	a89f3800 	ldmge	pc, {fp, ip, sp}	; <UNPREDICTABLE>
    1430:	bc000008 	stclt	0, cr0, [r0], {8}
    1434:	02000008 	andeq	r0, r0, #8, 0
    1438:	109f3800 	addsne	r3, pc, r0, lsl #16
    143c:	20000009 	andcs	r0, r0, r9
    1440:	02000009 	andeq	r0, r0, #9, 0
    1444:	009f3800 	addseq	r3, pc, r0, lsl #16
    1448:	00000000 	andeq	r0, r0, r0
    144c:	04000000 	streq	r0, [r0], #-0
    1450:	00000707 	andeq	r0, r0, r7, lsl #14
	...
    145c:	0005fc00 	andeq	pc, r5, r0, lsl #24
    1460:	0005fc00 	andeq	pc, r5, r0, lsl #24
    1464:	91000400 	tstls	r0, r0, lsl #8
    1468:	fc9f7ed0 	ldc2	14, cr7, [pc], {208}	; 0xd0
    146c:	78000005 	stmdavc	r0, {r0, r2}
    1470:	04000006 	streq	r0, [r0], #-6
    1474:	7ed19100 	atnvcs	f1, f0
    1478:	0006789f 	muleq	r6, pc, r8	; <UNPREDICTABLE>
    147c:	0006d400 	andeq	sp, r6, r0, lsl #8
    1480:	5c000100 	stfpls	f0, [r0], {-0}
    1484:	000006d4 	ldrdeq	r0, [r0], -r4
    1488:	00000700 	andeq	r0, r0, r0, lsl #14
    148c:	d1910004 	orrsle	r0, r1, r4
    1490:	08a89f7e 	stmiaeq	r8!, {r1, r2, r3, r4, r5, r6, r8, r9, sl, fp, ip, pc}
    1494:	08bc0000 	ldmeq	ip!, {}	; <UNPREDICTABLE>
    1498:	00040000 	andeq	r0, r4, r0
    149c:	9f7ed191 	svcls	0x007ed191
    14a0:	00000910 	andeq	r0, r0, r0, lsl r9
    14a4:	00000914 	andeq	r0, r0, r4, lsl r9
    14a8:	d1910004 	orrsle	r0, r1, r4
    14ac:	09149f7e 	ldmdbeq	r4, {r1, r2, r3, r4, r5, r6, r8, r9, sl, fp, ip, pc}
    14b0:	09200000 	stmdbeq	r0!, {}	; <UNPREDICTABLE>
    14b4:	00010000 	andeq	r0, r1, r0
    14b8:	0000005c 	andeq	r0, r0, ip, asr r0
    14bc:	00000000 	andeq	r0, r0, r0
    14c0:	00010400 	andeq	r0, r1, r0, lsl #8
    14c4:	08000001 	stmdaeq	r0, {r0}
    14c8:	d0000006 	andle	r0, r0, r6
    14cc:	01000006 	tsteq	r0, r6
    14d0:	08a85500 	stmiaeq	r8!, {r8, sl, ip, lr}
    14d4:	08b80000 	ldmeq	r8!, {}	; <UNPREDICTABLE>
    14d8:	00010000 	andeq	r0, r1, r0
    14dc:	00091055 	andeq	r1, r9, r5, asr r0
    14e0:	00092000 	andeq	r2, r9, r0
    14e4:	55000100 	strpl	r0, [r0, #-256]	; 0xffffff00
	...
    14f0:	00000004 	andeq	r0, r0, r4
    14f4:	00000100 	andeq	r0, r0, r0, lsl #2
    14f8:	00000100 	andeq	r0, r0, r0, lsl #2
    14fc:	00000608 	andeq	r0, r0, r8, lsl #12
    1500:	000006b0 			; <UNDEFINED> instruction: 0x000006b0
    1504:	d0910004 	addsle	r0, r1, r4
    1508:	06b09f7e 			; <UNDEFINED> instruction: 0x06b09f7e
    150c:	06c80000 	strbeq	r0, [r8], r0
    1510:	00010000 	andeq	r0, r1, r0
    1514:	0006c850 	andeq	ip, r6, r0, asr r8
    1518:	0006d000 	andeq	sp, r6, r0
    151c:	91000400 	tstls	r0, r0, lsl #8
    1520:	a89f7ed0 	ldmge	pc, {r4, r6, r7, r9, sl, fp, ip, sp, lr}	; <UNPREDICTABLE>
    1524:	b0000008 	andlt	r0, r0, r8
    1528:	04000008 	streq	r0, [r0], #-8
    152c:	7ed09100 	atnvcs	f1, f0
    1530:	0008b09f 	muleq	r8, pc, r0	; <UNPREDICTABLE>
    1534:	0008b800 	andeq	fp, r8, r0, lsl #16
    1538:	53000100 	movwpl	r0, #256	; 0x100
    153c:	00000910 	andeq	r0, r0, r0, lsl r9
    1540:	00000920 	andeq	r0, r0, r0, lsr #18
    1544:	d0910004 	addsle	r0, r1, r4
    1548:	00009f7e 	andeq	r9, r0, lr, ror pc
    154c:	00000000 	andeq	r0, r0, r0
    1550:	00040000 	andeq	r0, r4, r0
    1554:	01010100 	mrseq	r0, (UNDEF: 17)
    1558:	02030301 	andeq	r0, r3, #67108864	; 0x4000000
    155c:	00000100 	andeq	r0, r0, r0, lsl #2
    1560:	06080000 	streq	r0, [r8], -r0
    1564:	06240000 	strteq	r0, [r4], -r0
    1568:	00040000 	andeq	r0, r4, r0
    156c:	9f7ed191 	svcls	0x007ed191
    1570:	00000684 	andeq	r0, r0, r4, lsl #13
    1574:	00000684 	andeq	r0, r0, r4, lsl #13
    1578:	84500001 	ldrbhi	r0, [r0], #-1
    157c:	98000006 	stmdals	r0, {r1, r2}
    1580:	03000006 	movweq	r0, #6
    1584:	9f017000 	svcls	0x00017000
    1588:	00000698 	muleq	r0, r8, r6
    158c:	000006a4 	andeq	r0, r0, r4, lsr #13
    1590:	02700003 	rsbseq	r0, r0, #3, 0
    1594:	0006a49f 	muleq	r6, pc, r4	; <UNPREDICTABLE>
    1598:	0006a800 	andeq	sl, r6, r0, lsl #16
    159c:	70000300 	andvc	r0, r0, r0, lsl #6
    15a0:	08a89f03 	stmiaeq	r8!, {r0, r1, r8, r9, sl, fp, ip, pc}
    15a4:	08b80000 	ldmeq	r8!, {}	; <UNPREDICTABLE>
    15a8:	00040000 	andeq	r0, r4, r0
    15ac:	9f7ed191 	svcls	0x007ed191
    15b0:	00000910 	andeq	r0, r0, r0, lsl r9
    15b4:	00000914 	andeq	r0, r0, r4, lsl r9
    15b8:	d1910004 	orrsle	r0, r1, r4
    15bc:	09149f7e 	ldmdbeq	r4, {r1, r2, r3, r4, r5, r6, r8, r9, sl, fp, ip, pc}
    15c0:	09200000 	stmdbeq	r0!, {}	; <UNPREDICTABLE>
    15c4:	00010000 	andeq	r0, r1, r0
    15c8:	0000005c 	andeq	r0, r0, ip, asr r0
    15cc:	00000000 	andeq	r0, r0, r0
    15d0:	00000600 	andeq	r0, r0, r0, lsl #12
    15d4:	01010101 	tsteq	r1, r1, lsl #2
    15d8:	00020101 	andeq	r0, r2, r1, lsl #2
    15dc:	08000001 	stmdaeq	r0, {r0}
    15e0:	24000006 	strcs	r0, [r0], #-6
    15e4:	02000006 	andeq	r0, r0, #6, 0
    15e8:	849f3100 	ldrhi	r3, [pc], #256	; 15f0 <__code_start__-0x6a10>
    15ec:	94000006 	strls	r0, [r0], #-6
    15f0:	01000006 	tsteq	r0, r6
    15f4:	06945200 	ldreq	r5, [r4], r0, lsl #4
    15f8:	06a40000 	strteq	r0, [r4], r0
    15fc:	00010000 	andeq	r0, r1, r0
    1600:	0006a459 	andeq	sl, r6, r9, asr r4
    1604:	0006a800 	andeq	sl, r6, r0, lsl #16
    1608:	52000100 	andpl	r0, r0, #0
    160c:	000006a8 	andeq	r0, r0, r8, lsr #13
    1610:	000006a8 	andeq	r0, r0, r8, lsr #13
    1614:	01720003 	cmneq	r2, r3
    1618:	0008a89f 	muleq	r8, pc, r8	; <UNPREDICTABLE>
    161c:	0008b800 	andeq	fp, r8, r0, lsl #16
    1620:	31000200 	mrscc	r0, R8_usr
    1624:	0009109f 	muleq	r9, pc, r0	; <UNPREDICTABLE>
    1628:	00092000 	andeq	r2, r9, r0
    162c:	31000200 	mrscc	r0, R8_usr
    1630:	0000009f 	muleq	r0, pc, r0	; <UNPREDICTABLE>
    1634:	00000000 	andeq	r0, r0, r0
    1638:	06060100 	streq	r0, [r6], -r0, lsl #2
    163c:	d0000100 	andle	r0, r0, r0, lsl #2
    1640:	d0000006 	andle	r0, r0, r6
    1644:	04000006 	streq	r0, [r0], #-6
    1648:	7ed09100 	atnvcs	f1, f0
    164c:	0006d09f 	muleq	r6, pc, r0	; <UNPREDICTABLE>
    1650:	00070000 	andeq	r0, r7, r0
    1654:	50000100 	andpl	r0, r0, r0, lsl #2
    1658:	000008b8 			; <UNDEFINED> instruction: 0x000008b8
    165c:	000008bc 			; <UNDEFINED> instruction: 0x000008bc
    1660:	00530001 	subseq	r0, r3, r1
    1664:	00000000 	andeq	r0, r0, r0
    1668:	01000000 	mrseq	r0, (UNDEF: 0)
    166c:	00000008 	andeq	r0, r0, r8
    1670:	01000101 	tsteq	r0, r1, lsl #2
    1674:	0006d007 	andeq	sp, r6, r7
    1678:	0006d000 	andeq	sp, r6, r0
    167c:	7c000600 	stcvc	6, cr0, [r0], {-0}
    1680:	22007100 	andcs	r7, r0, #0
    1684:	0006e49f 	muleq	r6, pc, r4	; <UNPREDICTABLE>
    1688:	0006e800 	andeq	lr, r6, r0, lsl #16
    168c:	73000300 	movwvc	r0, #768	; 0x300
    1690:	06e89f7f 			; <UNDEFINED> instruction: 0x06e89f7f
    1694:	06f00000 	ldrbteq	r0, [r0], r0
    1698:	00010000 	andeq	r0, r1, r0
    169c:	0006f053 	andeq	pc, r6, r3, asr r0	; <UNPREDICTABLE>
    16a0:	0006f800 	andeq	pc, r6, r0, lsl #16
    16a4:	73000300 	movwvc	r0, #768	; 0x300
    16a8:	08b89f7f 	ldmeq	r8!, {r0, r1, r2, r3, r4, r5, r6, r8, r9, sl, fp, ip, pc}
    16ac:	08b80000 	ldmeq	r8!, {}	; <UNPREDICTABLE>
    16b0:	00040000 	andeq	r0, r4, r0
    16b4:	9f7ed191 	svcls	0x007ed191
	...
    16c0:	00010001 	andeq	r0, r1, r1
    16c4:	000006d0 	ldrdeq	r0, [r0], -r0	; <UNPREDICTABLE>
    16c8:	00000700 	andeq	r0, r0, r0, lsl #14
    16cc:	80080003 	andhi	r0, r8, r3
    16d0:	0008b89f 	muleq	r8, pc, r8	; <UNPREDICTABLE>
    16d4:	0008bc00 	andeq	fp, r8, r0, lsl #24
    16d8:	08000300 	stmdaeq	r0, {r8, r9}
    16dc:	00009f80 	andeq	r9, r0, r0, lsl #31
    16e0:	00000000 	andeq	r0, r0, r0
    16e4:	00010000 	andeq	r0, r1, r0
    16e8:	01000000 	mrseq	r0, (UNDEF: 0)
    16ec:	00000001 	andeq	r0, r0, r1
    16f0:	00010102 	andeq	r0, r1, r2, lsl #2
    16f4:	000006d0 	ldrdeq	r0, [r0], -r0	; <UNPREDICTABLE>
    16f8:	000006e0 	andeq	r0, r0, r0, ror #13
    16fc:	d0910004 	addsle	r0, r1, r4
    1700:	06e09f7d 			; <UNDEFINED> instruction: 0x06e09f7d
    1704:	06e40000 	strbteq	r0, [r4], r0
    1708:	00010000 	andeq	r0, r1, r0
    170c:	0006e455 	andeq	lr, r6, r5, asr r4
    1710:	0006e400 	andeq	lr, r6, r0, lsl #8
    1714:	72000300 	andvc	r0, r0, #0, 6
    1718:	06e49f01 	strbteq	r9, [r4], r1, lsl #30
    171c:	06f00000 	ldrbteq	r0, [r0], r0
    1720:	00030000 	andeq	r0, r3, r0
    1724:	f09f0272 			; <UNDEFINED> instruction: 0xf09f0272
    1728:	00000006 	andeq	r0, r0, r6
    172c:	03000007 	movweq	r0, #7
    1730:	9f017200 	svcls	0x00017200
    1734:	000007ec 	andeq	r0, r0, ip, ror #15
    1738:	000007f4 	strdeq	r0, [r0], -r4
    173c:	01730003 	cmneq	r3, r3
    1740:	0008b89f 	muleq	r8, pc, r8	; <UNPREDICTABLE>
    1744:	0008bc00 	andeq	fp, r8, r0, lsl #24
    1748:	91000400 	tstls	r0, r0, lsl #8
    174c:	009f7dd0 			; <UNDEFINED> instruction: 0x009f7dd0
    1750:	00000000 	andeq	r0, r0, r0
    1754:	04000000 	streq	r0, [r0], #-0
    1758:	0008b800 	andeq	fp, r8, r0, lsl #16
    175c:	0008bc00 	andeq	fp, r8, r0, lsl #24
    1760:	32000200 	andcc	r0, r0, #0, 4
    1764:	0000009f 	muleq	r0, pc, r0	; <UNPREDICTABLE>
    1768:	00000000 	andeq	r0, r0, r0
    176c:	00000700 	andeq	r0, r0, r0, lsl #14
    1770:	d0000600 	andle	r0, r0, r0, lsl #12
    1774:	e0000006 	and	r0, r0, r6
    1778:	04000006 	streq	r0, [r0], #-6
    177c:	7dd09100 	ldfvcp	f1, [r0]
    1780:	0006e09f 	muleq	r6, pc, r0	; <UNPREDICTABLE>
    1784:	00070000 	andeq	r0, r7, r0
    1788:	55000100 	strpl	r0, [r0, #-256]	; 0xffffff00
    178c:	000008b8 			; <UNDEFINED> instruction: 0x000008b8
    1790:	000008bc 			; <UNDEFINED> instruction: 0x000008bc
    1794:	d0910004 	addsle	r0, r1, r4
    1798:	00009f7d 	andeq	r9, r0, sp, ror pc
    179c:	00000000 	andeq	r0, r0, r0
    17a0:	00010000 	andeq	r0, r1, r0
    17a4:	070c0000 	streq	r0, [ip, -r0]
    17a8:	07ec0000 	strbeq	r0, [ip, r0]!
    17ac:	00030000 	andeq	r0, r3, r0
    17b0:	949f8008 	ldrls	r8, [pc], #8	; 17b8 <__code_start__-0x6848>
    17b4:	a8000008 	stmdage	r0, {r3}
    17b8:	03000008 	movweq	r0, #8
    17bc:	9f800800 	svcls	0x00800800
	...
    17cc:	0000070c 	andeq	r0, r0, ip, lsl #14
    17d0:	000007ec 	andeq	r0, r0, ip, ror #15
    17d4:	9f300002 	svcls	0x00300002
    17d8:	00000894 	muleq	r0, r4, r8
    17dc:	000008a8 	andeq	r0, r0, r8, lsr #17
    17e0:	9f300002 	svcls	0x00300002
	...
    17f0:	0000070c 	andeq	r0, r0, ip, lsl #14
    17f4:	000007d0 	ldrdeq	r0, [r0], -r0	; <UNPREDICTABLE>
    17f8:	94550001 	ldrbls	r0, [r5], #-1
    17fc:	a8000008 	stmdage	r0, {r3}
    1800:	01000008 	tsteq	r0, r8
    1804:	00005500 	andeq	r5, r0, r0, lsl #10
	...
    1814:	0000070c 	andeq	r0, r0, ip, lsl #14
    1818:	000007d0 	ldrdeq	r0, [r0], -r0	; <UNPREDICTABLE>
    181c:	d0910004 	addsle	r0, r1, r4
    1820:	07d09f7d 			; <UNDEFINED> instruction: 0x07d09f7d
    1824:	07ec0000 	strbeq	r0, [ip, r0]!
    1828:	00010000 	andeq	r0, r1, r0
    182c:	00089455 	andeq	r9, r8, r5, asr r4
    1830:	0008a800 	andeq	sl, r8, r0, lsl #16
    1834:	91000400 	tstls	r0, r0, lsl #8
    1838:	009f7dd0 			; <UNDEFINED> instruction: 0x009f7dd0
	...
    1844:	0c000000 	stceq	0, cr0, [r0], {-0}
    1848:	ec000007 	stc	0, cr0, [r0], {7}
    184c:	02000007 	andeq	r0, r0, #7, 0
    1850:	949f3200 	ldrls	r3, [pc], #512	; 1858 <__code_start__-0x67a8>
    1854:	a8000008 	stmdage	r0, {r3}
    1858:	02000008 	andeq	r0, r0, #8, 0
    185c:	009f3200 	addseq	r3, pc, r0, lsl #4
    1860:	00000000 	andeq	r0, r0, r0
    1864:	03000000 	movweq	r0, #0
    1868:	00000505 	andeq	r0, r0, r5, lsl #10
    186c:	00000000 	andeq	r0, r0, r0
    1870:	00070c00 	andeq	r0, r7, r0, lsl #24
    1874:	00070c00 	andeq	r0, r7, r0, lsl #24
    1878:	51000100 	mrspl	r0, (UNDEF: 16)
    187c:	0000070c 	andeq	r0, r0, ip, lsl #14
    1880:	0000071c 	andeq	r0, r0, ip, lsl r7
    1884:	1c530001 	mrrcne	0, 0, r0, r3, cr1
    1888:	24000007 	strcs	r0, [r0], #-7
    188c:	03000007 	movweq	r0, #7
    1890:	9f017200 	svcls	0x00017200
    1894:	00000724 	andeq	r0, r0, r4, lsr #14
    1898:	000007cc 	andeq	r0, r0, ip, asr #15
    189c:	94530001 	ldrbls	r0, [r3], #-1
    18a0:	a8000008 	stmdage	r0, {r3}
    18a4:	01000008 	tsteq	r0, r8
    18a8:	00005300 	andeq	r5, r0, r0, lsl #6
    18ac:	00000000 	andeq	r0, r0, r0
    18b0:	00050000 	andeq	r0, r5, r0
    18b4:	070c0001 	streq	r0, [ip, -r1]
    18b8:	07200000 	streq	r0, [r0, -r0]!
    18bc:	00010000 	andeq	r0, r1, r0
    18c0:	00072450 	andeq	r2, r7, r0, asr r4
    18c4:	00072c00 	andeq	r2, r7, r0, lsl #24
    18c8:	50000100 	andpl	r0, r0, r0, lsl #2
	...
    18d4:	01000103 	tsteq	r0, r3, lsl #2
    18d8:	00000728 	andeq	r0, r0, r8, lsr #14
    18dc:	000007b0 			; <UNDEFINED> instruction: 0x000007b0
    18e0:	94550001 	ldrbls	r0, [r5], #-1
    18e4:	a0000008 	andge	r0, r0, r8
    18e8:	01000008 	tsteq	r0, r8
    18ec:	00005500 	andeq	r5, r0, r0, lsl #10
    18f0:	00000000 	andeq	r0, r0, r0
    18f4:	01030000 	mrseq	r0, (UNDEF: 3)
    18f8:	07280100 	streq	r0, [r8, -r0, lsl #2]!
    18fc:	07b00000 	ldreq	r0, [r0, r0]!
    1900:	00010000 	andeq	r0, r1, r0
    1904:	00089451 	andeq	r9, r8, r1, asr r4
    1908:	0008a000 	andeq	sl, r8, r0
    190c:	51000100 	mrspl	r0, (UNDEF: 16)
	...
    1918:	01000003 	tsteq	r0, r3
    191c:	03010101 	movweq	r0, #4353	; 0x1101
    1920:	01000203 	tsteq	r0, r3, lsl #4
    1924:	00000728 	andeq	r0, r0, r8, lsr #14
    1928:	00000750 	andeq	r0, r0, r0, asr r7
    192c:	74530001 	ldrbvc	r0, [r3], #-1
    1930:	74000007 	strvc	r0, [r0], #-7
    1934:	01000007 	tsteq	r0, r7
    1938:	07745e00 	ldrbeq	r5, [r4, -r0, lsl #28]!
    193c:	07880000 	streq	r0, [r8, r0]
    1940:	00030000 	andeq	r0, r3, r0
    1944:	889f017e 	ldmhi	pc, {r1, r2, r3, r4, r5, r6, r8}	; <UNPREDICTABLE>
    1948:	94000007 	strls	r0, [r0], #-7
    194c:	03000007 	movweq	r0, #7
    1950:	9f027e00 	svcls	0x00027e00
    1954:	00000794 	muleq	r0, r4, r7
    1958:	00000798 	muleq	r0, r8, r7
    195c:	037e0003 	cmneq	lr, #3, 0
    1960:	0008949f 	muleq	r8, pc, r4	; <UNPREDICTABLE>
    1964:	0008a000 	andeq	sl, r8, r0
    1968:	53000100 	movwpl	r0, #256	; 0x100
	...
    1974:	01000000 	mrseq	r0, (UNDEF: 0)
    1978:	01010101 	tsteq	r1, r1, lsl #2
    197c:	01000201 	tsteq	r0, r1, lsl #4
    1980:	0000072c 	andeq	r0, r0, ip, lsr #14
    1984:	00000750 	andeq	r0, r0, r0, asr r7
    1988:	74500001 	ldrbvc	r0, [r0], #-1
    198c:	84000007 	strhi	r0, [r0], #-7
    1990:	01000007 	tsteq	r0, r7
    1994:	07845000 	streq	r5, [r4, r0]
    1998:	07940000 	ldreq	r0, [r4, r0]
    199c:	00010000 	andeq	r0, r1, r0
    19a0:	0007945b 	andeq	r9, r7, fp, asr r4
    19a4:	00079800 	andeq	r9, r7, r0, lsl #16
    19a8:	50000100 	andpl	r0, r0, r0, lsl #2
    19ac:	00000798 	muleq	r0, r8, r7
    19b0:	00000798 	muleq	r0, r8, r7
    19b4:	01700003 	cmneq	r0, r3
    19b8:	0008949f 	muleq	r8, pc, r4	; <UNPREDICTABLE>
    19bc:	0008a000 	andeq	sl, r8, r0
    19c0:	50000100 	andpl	r0, r0, r0, lsl #2
	...
    19cc:	00010001 	andeq	r0, r1, r1
    19d0:	000007b0 			; <UNDEFINED> instruction: 0x000007b0
    19d4:	000007ec 	andeq	r0, r0, ip, ror #15
    19d8:	a0510001 	subsge	r0, r1, r1
    19dc:	a8000008 	stmdage	r0, {r3}
    19e0:	01000008 	tsteq	r0, r8
    19e4:	00005100 	andeq	r5, r0, r0, lsl #2
    19e8:	00000000 	andeq	r0, r0, r0
    19ec:	00010000 	andeq	r0, r1, r0
    19f0:	01000000 	mrseq	r0, (UNDEF: 0)
    19f4:	00010001 	andeq	r0, r1, r1
    19f8:	000007b0 			; <UNDEFINED> instruction: 0x000007b0
    19fc:	000007b4 			; <UNDEFINED> instruction: 0x000007b4
    1a00:	00730006 	rsbseq	r0, r3, r6
    1a04:	9f22007c 	svcls	0x0022007c
    1a08:	000007d4 	ldrdeq	r0, [r0], -r4
    1a0c:	000007d8 	ldrdeq	r0, [r0], -r8
    1a10:	7f730003 	svcvc	0x00730003
    1a14:	0007d89f 	muleq	r7, pc, r8	; <UNPREDICTABLE>
    1a18:	0007e000 	andeq	lr, r7, r0
    1a1c:	53000100 	movwpl	r0, #256	; 0x100
    1a20:	000007e0 	andeq	r0, r0, r0, ror #15
    1a24:	000007e8 	andeq	r0, r0, r8, ror #15
    1a28:	7f730003 	svcvc	0x00730003
    1a2c:	0008a09f 	muleq	r8, pc, r0	; <UNPREDICTABLE>
    1a30:	0008a800 	andeq	sl, r8, r0, lsl #16
    1a34:	53000100 	movwpl	r0, #256	; 0x100
	...
    1a40:	00010001 	andeq	r0, r1, r1
    1a44:	000007b0 			; <UNDEFINED> instruction: 0x000007b0
    1a48:	000007ec 	andeq	r0, r0, ip, ror #15
    1a4c:	80080003 	andhi	r0, r8, r3
    1a50:	0008a09f 	muleq	r8, pc, r0	; <UNPREDICTABLE>
    1a54:	0008a800 	andeq	sl, r8, r0, lsl #16
    1a58:	08000300 	stmdaeq	r0, {r8, r9}
    1a5c:	00009f80 	andeq	r9, r0, r0, lsl #31
    1a60:	00000000 	andeq	r0, r0, r0
    1a64:	00010000 	andeq	r0, r1, r0
    1a68:	01000000 	mrseq	r0, (UNDEF: 0)
    1a6c:	00000001 	andeq	r0, r0, r1
    1a70:	07b00001 	ldreq	r0, [r0, r1]!
    1a74:	07d00000 	ldrbeq	r0, [r0, r0]
    1a78:	00040000 	andeq	r0, r4, r0
    1a7c:	9f7dd091 	svcls	0x007dd091
    1a80:	000007d0 	ldrdeq	r0, [r0], -r0	; <UNPREDICTABLE>
    1a84:	000007d4 	ldrdeq	r0, [r0], -r4
    1a88:	d4550001 	ldrble	r0, [r5], #-1
    1a8c:	d4000007 	strle	r0, [r0], #-7
    1a90:	03000007 	movweq	r0, #7
    1a94:	9f017c00 	svcls	0x00017c00
    1a98:	000007d4 	ldrdeq	r0, [r0], -r4
    1a9c:	000007e0 	andeq	r0, r0, r0, ror #15
    1aa0:	027c0003 	rsbseq	r0, ip, #3, 0
    1aa4:	0007e09f 	muleq	r7, pc, r0	; <UNPREDICTABLE>
    1aa8:	0007ec00 	andeq	lr, r7, r0, lsl #24
    1aac:	7c000300 	stcvc	3, cr0, [r0], {-0}
    1ab0:	08a09f01 	stmiaeq	r0!, {r0, r8, r9, sl, fp, ip, pc}
    1ab4:	08a80000 	stmiaeq	r8!, {}	; <UNPREDICTABLE>
    1ab8:	00040000 	andeq	r0, r4, r0
    1abc:	9f7dd091 	svcls	0x007dd091
	...
    1ac8:	00040004 	andeq	r0, r4, r4
    1acc:	000007b0 			; <UNDEFINED> instruction: 0x000007b0
    1ad0:	000007b4 			; <UNDEFINED> instruction: 0x000007b4
    1ad4:	01700003 	cmneq	r0, r3
    1ad8:	0008a09f 	muleq	r8, pc, r0	; <UNPREDICTABLE>
    1adc:	0008a800 	andeq	sl, r8, r0, lsl #16
    1ae0:	70000300 	andvc	r0, r0, r0, lsl #6
    1ae4:	00009f01 	andeq	r9, r0, r1, lsl #30
    1ae8:	00000000 	andeq	r0, r0, r0
    1aec:	00010000 	andeq	r0, r1, r0
    1af0:	07bc0000 	ldreq	r0, [ip, r0]!
    1af4:	07d00000 	ldrbeq	r0, [r0, r0]
    1af8:	00040000 	andeq	r0, r4, r0
    1afc:	9f7dd091 	svcls	0x007dd091
    1b00:	000007d0 	ldrdeq	r0, [r0], -r0	; <UNPREDICTABLE>
    1b04:	000007ec 	andeq	r0, r0, ip, ror #15
    1b08:	00550001 	subseq	r0, r5, r1
	...
    1b14:	28000000 	stmdacs	r0, {}	; <UNPREDICTABLE>
    1b18:	64000003 	strvs	r0, [r0], #-3
    1b1c:	01000003 	tsteq	r0, r3
    1b20:	03645000 	cmneq	r4, #0, 0
    1b24:	03880000 	orreq	r0, r8, #0, 0
    1b28:	00040000 	andeq	r0, r4, r0
    1b2c:	9f5001f3 	svcls	0x005001f3
	...
    1b3c:	00000328 	andeq	r0, r0, r8, lsr #6
    1b40:	0000035c 	andeq	r0, r0, ip, asr r3
    1b44:	5c510001 	mrrcpl	0, 0, r0, r1, cr1
    1b48:	88000003 	stmdahi	r0, {r0, r1}
    1b4c:	04000003 	streq	r0, [r0], #-3
    1b50:	5101f300 	mrspl	pc, SP_irq	; <UNPREDICTABLE>
    1b54:	0000009f 	muleq	r0, pc, r0	; <UNPREDICTABLE>
	...
    1b78:	00001400 	andeq	r1, r0, r0, lsl #8
    1b7c:	50000100 	andpl	r0, r0, r0, lsl #2
    1b80:	00000014 	andeq	r0, r0, r4, lsl r0
    1b84:	00000020 	andeq	r0, r0, r0, lsr #32
    1b88:	205c0001 	subscs	r0, ip, r1
    1b8c:	68000000 	stmdavs	r0, {}	; <UNPREDICTABLE>
    1b90:	03000000 	movweq	r0, #0
    1b94:	9f027100 	svcls	0x00027100
    1b98:	00000068 	andeq	r0, r0, r8, rrx
    1b9c:	0000006c 	andeq	r0, r0, ip, rrx
    1ba0:	02730003 	rsbseq	r0, r3, #3, 0
    1ba4:	00006c9f 	muleq	r0, pc, ip	; <UNPREDICTABLE>
    1ba8:	00019400 	andeq	r9, r1, r0, lsl #8
    1bac:	f3000400 	vshl.u8	d0, d0, d0
    1bb0:	949f5001 	ldrls	r5, [pc], #1	; 1bb8 <__code_start__-0x6448>
    1bb4:	98000001 	stmdals	r0, {r0}
    1bb8:	03000001 	movweq	r0, #1
    1bbc:	9f027300 	svcls	0x00027300
    1bc0:	00000198 	muleq	r0, r8, r1
    1bc4:	000001c0 	andeq	r0, r0, r0, asr #3
    1bc8:	01f30004 	mvnseq	r0, r4
    1bcc:	01c09f50 	biceq	r9, r0, r0, asr pc
    1bd0:	01c80000 	biceq	r0, r8, r0
    1bd4:	00010000 	andeq	r0, r1, r0
    1bd8:	0001c85c 	andeq	ip, r1, ip, asr r8
    1bdc:	00021400 	andeq	r1, r2, r0, lsl #8
    1be0:	73000300 	movwvc	r0, #768	; 0x300
    1be4:	02149f02 	andseq	r9, r4, #2, 30
    1be8:	02ec0000 	rsceq	r0, ip, #0, 0
    1bec:	00040000 	andeq	r0, r4, r0
    1bf0:	9f5001f3 	svcls	0x005001f3
    1bf4:	000002ec 	andeq	r0, r0, ip, ror #5
    1bf8:	000002f4 	strdeq	r0, [r0], -r4
    1bfc:	02730003 	rsbseq	r0, r3, #3, 0
    1c00:	0002f49f 	muleq	r2, pc, r4	; <UNPREDICTABLE>
    1c04:	00032800 	andeq	r2, r3, r0, lsl #16
    1c08:	f3000400 	vshl.u8	d0, d0, d0
    1c0c:	009f5001 	addseq	r5, pc, r1
	...
    1c20:	1c000000 	stcne	0, cr0, [r0], {-0}
    1c24:	01000000 	mrseq	r0, (UNDEF: 0)
    1c28:	001c5100 	andseq	r5, ip, r0, lsl #2
    1c2c:	02e00000 	rsceq	r0, r0, #0, 0
    1c30:	00010000 	andeq	r0, r1, r0
    1c34:	0002e050 	andeq	lr, r2, r0, asr r0
    1c38:	0002ec00 	andeq	lr, r2, r0, lsl #24
    1c3c:	f3000400 	vshl.u8	d0, d0, d0
    1c40:	ec9f5101 	ldfs	f5, [pc], {1}
    1c44:	28000002 	stmdacs	r0, {r1}
    1c48:	01000003 	tsteq	r0, r3
    1c4c:	00005000 	andeq	r5, r0, r0
	...
    1c58:	01000000 	mrseq	r0, (UNDEF: 0)
    1c5c:	00000000 	andeq	r0, r0, r0
    1c60:	02000000 	andeq	r0, r0, #0, 0
    1c64:	00000002 	andeq	r0, r0, r2
	...
    1c78:	00700000 	rsbseq	r0, r0, r0
    1c7c:	00010000 	andeq	r0, r1, r0
    1c80:	00007052 	andeq	r7, r0, r2, asr r0
    1c84:	00007800 	andeq	r7, r0, r0, lsl #16
    1c88:	5c000100 	stfpls	f0, [r0], {-0}
    1c8c:	00000078 	andeq	r0, r0, r8, ror r0
    1c90:	000000a4 	andeq	r0, r0, r4, lsr #1
    1c94:	01f30004 	mvnseq	r0, r4
    1c98:	01949f52 	orrseq	r9, r4, r2, asr pc
    1c9c:	019c0000 	orrseq	r0, ip, r0
    1ca0:	00010000 	andeq	r0, r1, r0
    1ca4:	00019c52 	andeq	r9, r1, r2, asr ip
    1ca8:	0001a400 	andeq	sl, r1, r0, lsl #8
    1cac:	5c000100 	stfpls	f0, [r0], {-0}
    1cb0:	000001a4 	andeq	r0, r0, r4, lsr #3
    1cb4:	000001c0 	andeq	r0, r0, r0, asr #3
    1cb8:	01f30004 	mvnseq	r0, r4
    1cbc:	01c09f52 	biceq	r9, r0, r2, asr pc
    1cc0:	02200000 	eoreq	r0, r0, #0, 0
    1cc4:	00010000 	andeq	r0, r1, r0
    1cc8:	00022052 	andeq	r2, r2, r2, asr r0
    1ccc:	00022800 	andeq	r2, r2, r0, lsl #16
    1cd0:	72000400 	andvc	r0, r0, #0, 8
    1cd4:	289f1f00 	ldmcs	pc, {r8, r9, sl, fp, ip}	; <UNPREDICTABLE>
    1cd8:	74000002 	strvc	r0, [r0], #-2
    1cdc:	05000002 	streq	r0, [r0, #-2]
    1ce0:	5201f300 	andpl	pc, r1, #0, 6
    1ce4:	02749f1f 	rsbseq	r9, r4, #124	; 0x7c
    1ce8:	02880000 	addeq	r0, r8, #0, 0
    1cec:	00010000 	andeq	r0, r1, r0
    1cf0:	00028852 	andeq	r8, r2, r2, asr r8
    1cf4:	0002a000 	andeq	sl, r2, r0
    1cf8:	5c000100 	stfpls	f0, [r0], {-0}
    1cfc:	000002cc 	andeq	r0, r0, ip, asr #5
    1d00:	000002d0 	ldrdeq	r0, [r0], -r0	; <UNPREDICTABLE>
    1d04:	d0520001 	subsle	r0, r2, r1
    1d08:	e7000002 	str	r0, [r0, -r2]
    1d0c:	01000002 	tsteq	r0, r2
    1d10:	02e75c00 	rsceq	r5, r7, #0, 24
    1d14:	02ec0000 	rsceq	r0, ip, #0, 0
    1d18:	00040000 	andeq	r0, r4, r0
    1d1c:	9f5201f3 	svcls	0x005201f3
    1d20:	000002ec 	andeq	r0, r0, ip, ror #5
    1d24:	00000300 	andeq	r0, r0, r0, lsl #6
    1d28:	00520001 	subseq	r0, r2, r1
    1d2c:	28000003 	stmdacs	r0, {r0, r1}
    1d30:	01000003 	tsteq	r0, r3
    1d34:	00005c00 	andeq	r5, r0, r0, lsl #24
	...
    1d50:	00000068 	andeq	r0, r0, r8, rrx
    1d54:	68530001 	ldmdavs	r3, {r0}^
    1d58:	6c000000 	stcvs	0, cr0, [r0], {-0}
    1d5c:	03000000 	movweq	r0, #0
    1d60:	9f7f0800 	svcls	0x007f0800
    1d64:	00000194 	muleq	r0, r4, r1
    1d68:	00000198 	muleq	r0, r8, r1
    1d6c:	7f080003 	svcvc	0x00080003
    1d70:	0001c09f 	muleq	r1, pc, r0	; <UNPREDICTABLE>
    1d74:	00021400 	andeq	r1, r2, r0, lsl #8
    1d78:	08000300 	stmdaeq	r0, {r8, r9}
    1d7c:	02749f7f 	rsbseq	r9, r4, #508	; 0x1fc
    1d80:	02900000 	addseq	r0, r0, #0, 0
    1d84:	00010000 	andeq	r0, r1, r0
    1d88:	00029053 	andeq	r9, r2, r3, asr r0
    1d8c:	0002a000 	andeq	sl, r2, r0
    1d90:	f3000400 	vshl.u8	d0, d0, d0
    1d94:	ec9f5301 	ldc	3, cr5, [pc], {1}
    1d98:	28000002 	stmdacs	r0, {r1}
    1d9c:	03000003 	movweq	r0, #3
    1da0:	9f7f0800 	svcls	0x007f0800
	...
    1dac:	00000001 	andeq	r0, r0, r1
    1db0:	00020200 	andeq	r0, r2, r0, lsl #4
    1db4:	00010100 	andeq	r0, r1, r0, lsl #2
    1db8:	00000000 	andeq	r0, r0, r0
    1dbc:	02000000 	andeq	r0, r0, #0, 0
    1dc0:	00000002 	andeq	r0, r0, r2
    1dc4:	00000001 	andeq	r0, r0, r1
    1dc8:	00000000 	andeq	r0, r0, r0
    1dcc:	00010100 	andeq	r0, r1, r0, lsl #2
    1dd0:	02000000 	andeq	r0, r0, #0, 0
    1dd4:	00000002 	andeq	r0, r0, r2
    1dd8:	01000000 	mrseq	r0, (UNDEF: 0)
    1ddc:	00000001 	andeq	r0, r0, r1
    1de0:	00000018 	andeq	r0, r0, r8, lsl r0
    1de4:	00000070 	andeq	r0, r0, r0, ror r0
    1de8:	a0910004 	addsge	r0, r1, r4
    1dec:	00709f7f 	rsbseq	r9, r0, pc, ror pc
    1df0:	00780000 	rsbseq	r0, r8, r0
    1df4:	00010000 	andeq	r0, r1, r0
    1df8:	00007852 	andeq	r7, r0, r2, asr r8
    1dfc:	00007800 	andeq	r7, r0, r0, lsl #16
    1e00:	54000100 	strpl	r0, [r0], #-256	; 0xffffff00
    1e04:	00000078 	andeq	r0, r0, r8, ror r0
    1e08:	00000088 	andeq	r0, r0, r8, lsl #1
    1e0c:	01740003 	cmneq	r4, r3
    1e10:	0000889f 	muleq	r0, pc, r8	; <UNPREDICTABLE>
    1e14:	00009000 	andeq	r9, r0, r0
    1e18:	54000100 	strpl	r0, [r0], #-256	; 0xffffff00
    1e1c:	00000090 	muleq	r0, r0, r0
    1e20:	000000a0 	andeq	r0, r0, r0, lsr #1
    1e24:	02740003 	rsbseq	r0, r4, #3, 0
    1e28:	0000a09f 	muleq	r0, pc, r0	; <UNPREDICTABLE>
    1e2c:	0000b000 	andeq	fp, r0, r0
    1e30:	5e000100 	adfpls	f0, f0, f0
    1e34:	00000194 	muleq	r0, r4, r1
    1e38:	0000019c 	muleq	r0, ip, r1
    1e3c:	a0910004 	addsge	r0, r1, r4
    1e40:	019c9f7f 	orrseq	r9, ip, pc, ror pc
    1e44:	01a40000 			; <UNDEFINED> instruction: 0x01a40000
    1e48:	00010000 	andeq	r0, r1, r0
    1e4c:	0001a452 	andeq	sl, r1, r2, asr r4
    1e50:	0001a400 	andeq	sl, r1, r0, lsl #8
    1e54:	5e000100 	adfpls	f0, f0, f0
    1e58:	000001a4 	andeq	r0, r0, r4, lsr #3
    1e5c:	000001b4 			; <UNDEFINED> instruction: 0x000001b4
    1e60:	017e0003 	cmneq	lr, r3
    1e64:	0001b49f 	muleq	r1, pc, r4	; <UNPREDICTABLE>
    1e68:	0001c000 	andeq	ip, r1, r0
    1e6c:	5e000100 	adfpls	f0, f0, f0
    1e70:	000001c0 	andeq	r0, r0, r0, asr #3
    1e74:	00000228 	andeq	r0, r0, r8, lsr #4
    1e78:	a0910004 	addsge	r0, r1, r4
    1e7c:	02289f7f 	eoreq	r9, r8, #508	; 0x1fc
    1e80:	02340000 	eorseq	r0, r4, #0, 0
    1e84:	00010000 	andeq	r0, r1, r0
    1e88:	00023452 	andeq	r3, r2, r2, asr r4
    1e8c:	00025800 	andeq	r5, r2, r0, lsl #16
    1e90:	5e000100 	adfpls	f0, f0, f0
    1e94:	00000258 	andeq	r0, r0, r8, asr r2
    1e98:	0000025c 	andeq	r0, r0, ip, asr r2
    1e9c:	017e0003 	cmneq	lr, r3
    1ea0:	00025c9f 	muleq	r2, pc, ip	; <UNPREDICTABLE>
    1ea4:	00026400 	andeq	r6, r2, r0, lsl #8
    1ea8:	5e000100 	adfpls	f0, f0, f0
    1eac:	00000264 	andeq	r0, r0, r4, ror #4
    1eb0:	00000270 	andeq	r0, r0, r0, ror r2
    1eb4:	02710003 	rsbseq	r0, r1, #3, 0
    1eb8:	0002709f 	muleq	r2, pc, r0	; <UNPREDICTABLE>
    1ebc:	00027400 	andeq	r7, r2, r0, lsl #8
    1ec0:	5e000100 	adfpls	f0, f0, f0
    1ec4:	00000274 	andeq	r0, r0, r4, ror r2
    1ec8:	00000274 	andeq	r0, r0, r4, ror r2
    1ecc:	a0910004 	addsge	r0, r1, r4
    1ed0:	02749f7f 	rsbseq	r9, r4, #508	; 0x1fc
    1ed4:	02a00000 	adceq	r0, r0, #0, 0
    1ed8:	00040000 	andeq	r0, r4, r0
    1edc:	9f7fa191 	svcls	0x007fa191
    1ee0:	000002c0 	andeq	r0, r0, r0, asr #5
    1ee4:	000002c8 	andeq	r0, r0, r8, asr #5
    1ee8:	c85e0001 	ldmdagt	lr, {r0}^
    1eec:	cc000002 	stcgt	0, cr0, [r0], {2}
    1ef0:	01000002 	tsteq	r0, r2
    1ef4:	02cc5600 	sbceq	r5, ip, #0, 12
    1ef8:	02ec0000 	rsceq	r0, ip, #0, 0
    1efc:	00040000 	andeq	r0, r4, r0
    1f00:	9f7fa091 	svcls	0x007fa091
    1f04:	000002ec 	andeq	r0, r0, ip, ror #5
    1f08:	000002fc 	strdeq	r0, [r0], -ip
    1f0c:	a1910004 	orrsge	r0, r1, r4
    1f10:	02fc9f7f 	rscseq	r9, ip, #508	; 0x1fc
    1f14:	03280000 			; <UNDEFINED> instruction: 0x03280000
    1f18:	00010000 	andeq	r0, r1, r0
    1f1c:	0000005e 	andeq	r0, r0, lr, asr r0
	...
    1f34:	00000101 	andeq	r0, r0, r1, lsl #2
	...
    1f44:	20000000 	andcs	r0, r0, r0
    1f48:	70000000 	andvc	r0, r0, r0
    1f4c:	01000000 	mrseq	r0, (UNDEF: 0)
    1f50:	00705200 	rsbseq	r5, r0, r0, lsl #4
    1f54:	00940000 	addseq	r0, r4, r0
    1f58:	00010000 	andeq	r0, r1, r0
    1f5c:	0001945c 	andeq	r9, r1, ip, asr r4
    1f60:	00019c00 	andeq	r9, r1, r0, lsl #24
    1f64:	52000100 	andpl	r0, r0, #0
    1f68:	0000019c 	muleq	r0, ip, r1
    1f6c:	000001c0 	andeq	r0, r0, r0, asr #3
    1f70:	c85c0001 	ldmdagt	ip, {r0}^
    1f74:	10000001 	andne	r0, r0, r1
    1f78:	01000002 	tsteq	r0, r2
    1f7c:	02105c00 	andseq	r5, r0, #0, 24
    1f80:	02240000 	eoreq	r0, r4, #0, 0
    1f84:	00010000 	andeq	r0, r1, r0
    1f88:	00022452 	andeq	r2, r2, r2, asr r4
    1f8c:	00024800 	andeq	r4, r2, r0, lsl #16
    1f90:	5c000100 	stfpls	f0, [r0], {-0}
    1f94:	00000248 	andeq	r0, r0, r8, asr #4
    1f98:	0000025c 	andeq	r0, r0, ip, asr r2
    1f9c:	5c550001 	mrrcpl	0, 0, r0, r5, cr1
    1fa0:	68000002 	stmdavs	r0, {r1}
    1fa4:	01000002 	tsteq	r0, r2
    1fa8:	02685c00 	rsbeq	r5, r8, #0, 24
    1fac:	02740000 	rsbseq	r0, r4, #0, 0
    1fb0:	00190000 	andseq	r0, r9, r0
    1fb4:	2cf70075 	ldclcs	0, cr0, [r7], #468	; 0x1d4
    1fb8:	007625f7 	ldrshteq	r2, [r6], #-87	; 0xffffffa9
    1fbc:	25f72cf7 	ldrbcs	r2, [r7, #3319]!	; 0xcf7
    1fc0:	f720081e 			; <UNDEFINED> instruction: 0xf720081e
    1fc4:	2cf72525 	cfldr64cs	mvdx2, [r7], #148	; 0x94
    1fc8:	253300f7 	ldrcs	r0, [r3, #-247]!	; 0xffffff09
    1fcc:	0002749f 	muleq	r2, pc, r4	; <UNPREDICTABLE>
    1fd0:	00028800 	andeq	r8, r2, r0, lsl #16
    1fd4:	52000100 	andpl	r0, r0, #0
    1fd8:	00000288 	andeq	r0, r0, r8, lsl #5
    1fdc:	000002a0 	andeq	r0, r0, r0, lsr #5
    1fe0:	cc5c0001 	mrrcgt	0, 0, r0, ip, cr1
    1fe4:	d0000002 	andle	r0, r0, r2
    1fe8:	01000002 	tsteq	r0, r2
    1fec:	02d05200 	sbcseq	r5, r0, #0, 4
    1ff0:	02e70000 	rsceq	r0, r7, #0, 0
    1ff4:	00010000 	andeq	r0, r1, r0
    1ff8:	0002e75c 	andeq	lr, r2, ip, asr r7
    1ffc:	0002ec00 	andeq	lr, r2, r0, lsl #24
    2000:	f3000400 	vshl.u8	d0, d0, d0
    2004:	ec9f5201 	lfm	f5, 4, [pc], {1}
    2008:	00000002 	andeq	r0, r0, r2
    200c:	01000003 	tsteq	r0, r3
    2010:	03005200 	movweq	r5, #512	; 0x200
    2014:	03280000 			; <UNDEFINED> instruction: 0x03280000
    2018:	00010000 	andeq	r0, r1, r0
    201c:	0000005c 	andeq	r0, r0, ip, asr r0
    2020:	00000000 	andeq	r0, r0, r0
    2024:	04000400 	streq	r0, [r0], #-1024	; 0xfffffc00
    2028:	00010000 	andeq	r0, r1, r0
    202c:	a4000400 	strge	r0, [r0], #-1024	; 0xfffffc00
    2030:	b0000000 	andlt	r0, r0, r0
    2034:	01000000 	mrseq	r0, (UNDEF: 0)
    2038:	027c5300 	rsbseq	r5, ip, #0, 6
    203c:	02900000 	addseq	r0, r0, #0, 0
    2040:	00010000 	andeq	r0, r1, r0
    2044:	00029053 	andeq	r9, r2, r3, asr r0
    2048:	00029c00 	andeq	r9, r2, r0, lsl #24
    204c:	f3000400 	vshl.u8	d0, d0, d0
    2050:	c09f5301 	addsgt	r5, pc, r1, lsl #6
    2054:	cc000002 	stcgt	0, cr0, [r0], {2}
    2058:	01000002 	tsteq	r0, r2
    205c:	02f05300 	rscseq	r5, r0, #0, 6
    2060:	03280000 			; <UNDEFINED> instruction: 0x03280000
    2064:	00030000 	andeq	r0, r3, r0
    2068:	009f7f08 	addseq	r7, pc, r8, lsl #30
    206c:	00000000 	andeq	r0, r0, r0
    2070:	04000000 	streq	r0, [r0], #-0
    2074:	04010000 	streq	r0, [r1], #-0
    2078:	00010000 	andeq	r0, r1, r0
    207c:	04000000 	streq	r0, [r0], #-0
    2080:	a4000000 	strge	r0, [r0], #-0
    2084:	b0000000 	andlt	r0, r0, r0
    2088:	01000000 	mrseq	r0, (UNDEF: 0)
    208c:	00b05200 	adcseq	r5, r0, r0, lsl #4
    2090:	015c0000 	cmpeq	ip, r0
    2094:	00040000 	andeq	r0, r4, r0
    2098:	9f7fa091 	svcls	0x007fa091
    209c:	0000027c 	andeq	r0, r0, ip, ror r2
    20a0:	00000294 	muleq	r0, r4, r2
    20a4:	a0910004 	addsge	r0, r1, r4
    20a8:	02949f7f 	addseq	r9, r4, #508	; 0x1fc
    20ac:	029c0000 	addseq	r0, ip, #0, 0
    20b0:	00010000 	andeq	r0, r1, r0
    20b4:	0002b45e 	andeq	fp, r2, lr, asr r4
    20b8:	0002c000 	andeq	ip, r2, r0
    20bc:	91000400 	tstls	r0, r0, lsl #8
    20c0:	c09f7fa0 	addsgt	r7, pc, r0, lsr #31
    20c4:	cc000002 	stcgt	0, cr0, [r0], {2}
    20c8:	01000002 	tsteq	r0, r2
    20cc:	02f05200 	rscseq	r5, r0, #0, 4
    20d0:	03000000 	movweq	r0, #0
    20d4:	00040000 	andeq	r0, r4, r0
    20d8:	9f7fa091 	svcls	0x007fa091
    20dc:	00000300 	andeq	r0, r0, r0, lsl #6
    20e0:	00000328 	andeq	r0, r0, r8, lsr #6
    20e4:	00520001 	subseq	r0, r2, r1
    20e8:	00000000 	andeq	r0, r0, r0
    20ec:	04000000 	streq	r0, [r0], #-0
    20f0:	01010000 	mrseq	r0, (UNDEF: 1)
    20f4:	03030101 	movweq	r0, #12545	; 0x3101
    20f8:	00010402 	andeq	r0, r1, r2, lsl #8
    20fc:	04000000 	streq	r0, [r0], #-0
    2100:	a4000000 	strge	r0, [r0], #-0
    2104:	b0000000 	andlt	r0, r0, r0
    2108:	01000000 	mrseq	r0, (UNDEF: 0)
    210c:	010c5e00 	tsteq	ip, r0, lsl #28
    2110:	010c0000 	mrseq	r0, (UNDEF: 12)
    2114:	00010000 	andeq	r0, r1, r0
    2118:	00010c55 	andeq	r0, r1, r5, asr ip
    211c:	00012000 	andeq	r2, r1, r0
    2120:	75000300 	strvc	r0, [r0, #-768]	; 0xfffffd00
    2124:	01209f01 			; <UNDEFINED> instruction: 0x01209f01
    2128:	012c0000 			; <UNDEFINED> instruction: 0x012c0000
    212c:	00030000 	andeq	r0, r3, r0
    2130:	2c9f0275 	lfmcs	f0, 4, [pc], {117}	; 0x75
    2134:	30000001 	andcc	r0, r0, r1
    2138:	03000001 	movweq	r0, #1
    213c:	9f037500 	svcls	0x00037500
    2140:	0000027c 	andeq	r0, r0, ip, ror r2
    2144:	0000029c 	muleq	r0, ip, r2
    2148:	a1910004 	orrsge	r0, r1, r4
    214c:	02c09f7f 	sbceq	r9, r0, #508	; 0x1fc
    2150:	02c80000 	sbceq	r0, r8, #0, 0
    2154:	00010000 	andeq	r0, r1, r0
    2158:	0002c85e 	andeq	ip, r2, lr, asr r8
    215c:	0002cc00 	andeq	ip, r2, r0, lsl #24
    2160:	56000100 	strpl	r0, [r0], -r0, lsl #2
    2164:	000002f0 	strdeq	r0, [r0], -r0	; <UNPREDICTABLE>
    2168:	000002fc 	strdeq	r0, [r0], -ip
    216c:	a1910004 	orrsge	r0, r1, r4
    2170:	02fc9f7f 	rscseq	r9, ip, #508	; 0x1fc
    2174:	03280000 			; <UNDEFINED> instruction: 0x03280000
    2178:	00010000 	andeq	r0, r1, r0
    217c:	0000005e 	andeq	r0, r0, lr, asr r0
	...
    2188:	01010101 	tsteq	r1, r1, lsl #2
    218c:	06020101 	streq	r0, [r2], -r1, lsl #2
    2190:	06000001 	streq	r0, [r0], -r1
    2194:	0000a800 	andeq	sl, r0, r0, lsl #16
    2198:	0000b000 	andeq	fp, r0, r0
    219c:	51000100 	mrspl	r0, (UNDEF: 16)
    21a0:	0000010c 	andeq	r0, r0, ip, lsl #2
    21a4:	0000011c 	andeq	r0, r0, ip, lsl r1
    21a8:	1c5c0001 	mrrcne	0, 0, r0, ip, cr1
    21ac:	2c000001 	stccs	0, cr0, [r0], {1}
    21b0:	01000001 	tsteq	r0, r1
    21b4:	012c5800 			; <UNDEFINED> instruction: 0x012c5800
    21b8:	01300000 	teqeq	r0, r0
    21bc:	00010000 	andeq	r0, r1, r0
    21c0:	0001305c 	andeq	r3, r1, ip, asr r0
    21c4:	00013000 	andeq	r3, r1, r0
    21c8:	7c000300 	stcvc	3, cr0, [r0], {-0}
    21cc:	027c9f01 	rsbseq	r9, ip, #1, 30
    21d0:	029c0000 	addseq	r0, ip, #0, 0
    21d4:	00020000 	andeq	r0, r2, r0
    21d8:	02c09f31 	sbceq	r9, r0, #196	; 0xc4
    21dc:	02cc0000 	sbceq	r0, ip, #0, 0
    21e0:	00010000 	andeq	r0, r1, r0
    21e4:	0002f051 	andeq	pc, r2, r1, asr r0	; <UNPREDICTABLE>
    21e8:	00032800 	andeq	r2, r3, r0, lsl #16
    21ec:	31000200 	mrscc	r0, R8_usr
    21f0:	0000009f 	muleq	r0, pc, r0	; <UNPREDICTABLE>
    21f4:	00000000 	andeq	r0, r0, r0
    21f8:	06060100 	streq	r0, [r6], -r0, lsl #2
    21fc:	00000101 	andeq	r0, r0, r1, lsl #2
    2200:	00015c01 	andeq	r5, r1, r1, lsl #24
    2204:	00015c00 	andeq	r5, r1, r0, lsl #24
    2208:	91000400 	tstls	r0, r0, lsl #8
    220c:	5c9f7fa0 	ldcpl	15, cr7, [pc], {160}	; 0xa0
    2210:	8c000001 	stchi	0, cr0, [r0], {1}
    2214:	01000001 	tsteq	r0, r1
    2218:	029c5200 	addseq	r5, ip, #0, 4
    221c:	02a00000 	adceq	r0, r0, #0, 0
    2220:	00010000 	andeq	r0, r1, r0
    2224:	0002a05e 	andeq	sl, r2, lr, asr r0
    2228:	0002ac00 	andeq	sl, r2, r0, lsl #24
    222c:	52000100 	andpl	r0, r0, #0
	...
    2238:	01000000 	mrseq	r0, (UNDEF: 0)
    223c:	07010001 	streq	r0, [r1, -r1]
    2240:	0000016c 	andeq	r0, r0, ip, ror #2
    2244:	00000170 	andeq	r0, r0, r0, ror r1
    2248:	7f730003 	svcvc	0x00730003
    224c:	0001709f 	muleq	r1, pc, r0	; <UNPREDICTABLE>
    2250:	00017800 	andeq	r7, r1, r0, lsl #16
    2254:	53000100 	movwpl	r0, #256	; 0x100
    2258:	00000178 	andeq	r0, r0, r8, ror r1
    225c:	00000184 	andeq	r0, r0, r4, lsl #3
    2260:	7f730003 	svcvc	0x00730003
    2264:	00029c9f 	muleq	r2, pc, ip	; <UNPREDICTABLE>
    2268:	00029c00 	andeq	r9, r2, r0, lsl #24
    226c:	91000400 	tstls	r0, r0, lsl #8
    2270:	009f7fa1 	addseq	r7, pc, r1, lsr #31
    2274:	00000000 	andeq	r0, r0, r0
    2278:	01000000 	mrseq	r0, (UNDEF: 0)
    227c:	5c010101 	stfpls	f0, [r1], {1}
    2280:	8c000001 	stchi	0, cr0, [r0], {1}
    2284:	03000001 	movweq	r0, #1
    2288:	9f800800 	svcls	0x00800800
    228c:	0000029c 	muleq	r0, ip, r2
    2290:	000002ac 	andeq	r0, r0, ip, lsr #5
    2294:	80080003 	andhi	r0, r8, r3
    2298:	0000009f 	muleq	r0, pc, r0	; <UNPREDICTABLE>
    229c:	00000000 	andeq	r0, r0, r0
    22a0:	00000100 	andeq	r0, r0, r0, lsl #2
    22a4:	00000101 	andeq	r0, r0, r1, lsl #2
    22a8:	01010101 	tsteq	r1, r1, lsl #2
    22ac:	5c010101 	stfpls	f0, [r1], {1}
    22b0:	6c000001 	stcvs	0, cr0, [r0], {1}
    22b4:	01000001 	tsteq	r0, r1
    22b8:	016c5000 	cmneq	ip, r0
    22bc:	016c0000 	cmneq	ip, r0
    22c0:	00030000 	andeq	r0, r3, r0
    22c4:	6c9f017c 	ldfvss	f0, [pc], {124}	; 0x7c
    22c8:	78000001 	stmdavc	r0, {r0}
    22cc:	03000001 	movweq	r0, #1
    22d0:	9f027c00 	svcls	0x00027c00
    22d4:	00000178 	andeq	r0, r0, r8, ror r1
    22d8:	00000188 	andeq	r0, r0, r8, lsl #3
    22dc:	017c0003 	cmneq	ip, r3
    22e0:	0001889f 	muleq	r1, pc, r8	; <UNPREDICTABLE>
    22e4:	00018c00 	andeq	r8, r1, r0, lsl #24
    22e8:	7e000300 	cdpvc	3, 0, cr0, cr0, cr0, {0}
    22ec:	029c9f01 	addseq	r9, ip, #1, 30
    22f0:	02a40000 	adceq	r0, r4, #0, 0
    22f4:	00010000 	andeq	r0, r1, r0
    22f8:	0002a450 	andeq	sl, r2, r0, asr r4
    22fc:	0002ac00 	andeq	sl, r2, r0, lsl #24
    2300:	7e000300 	cdpvc	3, 0, cr0, cr0, cr0, {0}
    2304:	00009f01 	andeq	r9, r0, r1, lsl #30
    2308:	00000000 	andeq	r0, r0, r0
    230c:	00040000 	andeq	r0, r4, r0
    2310:	01000004 	tsteq	r0, r4
    2314:	0000015c 	andeq	r0, r0, ip, asr r1
    2318:	00000160 	andeq	r0, r0, r0, ror #2
    231c:	01710003 	cmneq	r1, r3
    2320:	00029c9f 	muleq	r2, pc, ip	; <UNPREDICTABLE>
    2324:	0002a000 	andeq	sl, r2, r0
    2328:	32000200 	andcc	r0, r0, #0, 4
    232c:	0002a09f 	muleq	r2, pc, r0	; <UNPREDICTABLE>
    2330:	0002ac00 	andeq	sl, r2, r0, lsl #24
    2334:	71000300 	mrsvc	r0, LR_irq
    2338:	00009f01 	andeq	r9, r0, r1, lsl #30
    233c:	00000000 	andeq	r0, r0, r0
    2340:	00070000 	andeq	r0, r7, r0
    2344:	015c0006 	cmpeq	ip, r6
    2348:	01940000 	orrseq	r0, r4, r0
    234c:	00010000 	andeq	r0, r1, r0
    2350:	00029c50 	andeq	r9, r2, r0, asr ip
    2354:	0002b400 	andeq	fp, r2, r0, lsl #8
    2358:	50000100 	andpl	r0, r0, r0, lsl #2
	...
    2364:	00010101 	andeq	r0, r1, r1, lsl #2
    2368:	00000214 	andeq	r0, r0, r4, lsl r2
    236c:	00000220 	andeq	r0, r0, r0, lsr #4
    2370:	9f300002 	svcls	0x00300002
    2374:	00000220 	andeq	r0, r0, r0, lsr #4
    2378:	00000234 	andeq	r0, r0, r4, lsr r2
    237c:	9f310002 	svcls	0x00310002
	...
    2388:	00010100 	andeq	r0, r1, r0, lsl #2
    238c:	00010100 	andeq	r0, r1, r0, lsl #2
    2390:	00010100 	andeq	r0, r1, r0, lsl #2
    2394:	00010100 	andeq	r0, r1, r0, lsl #2
    2398:	00010100 	andeq	r0, r1, r0, lsl #2
    239c:	01020200 	mrseq	r0, R10_usr
    23a0:	00000080 	andeq	r0, r0, r0, lsl #1
    23a4:	00000080 	andeq	r0, r0, r0, lsl #1
    23a8:	80530001 	subshi	r0, r3, r1
    23ac:	8c000000 	stchi	0, cr0, [r0], {-0}
    23b0:	03000000 	movweq	r0, #0
    23b4:	9f047300 	svcls	0x00047300
    23b8:	0000008c 	andeq	r0, r0, ip, lsl #1
    23bc:	00000094 	muleq	r0, r4, r0
    23c0:	94510001 	ldrbls	r0, [r1], #-1
    23c4:	98000000 	stmdals	r0, {}	; <UNPREDICTABLE>
    23c8:	03000000 	movweq	r0, #0
    23cc:	9f087300 	svcls	0x00087300
    23d0:	00000098 	muleq	r0, r8, r0
    23d4:	000000a4 	andeq	r0, r0, r4, lsr #1
    23d8:	a4510001 	ldrbge	r0, [r1], #-1
    23dc:	a8000000 	stmdage	r0, {}	; <UNPREDICTABLE>
    23e0:	03000000 	movweq	r0, #0
    23e4:	9f0c7300 	svcls	0x000c7300
    23e8:	000000a8 	andeq	r0, r0, r8, lsr #1
    23ec:	000000b4 	strheq	r0, [r0], -r4
    23f0:	b4510001 	ldrblt	r0, [r1], #-1
    23f4:	b8000000 	stmdalt	r0, {}	; <UNPREDICTABLE>
    23f8:	03000000 	movweq	r0, #0
    23fc:	9f107300 	svcls	0x00107300
    2400:	000000b8 	strheq	r0, [r0], -r8
    2404:	000000c4 	andeq	r0, r0, r4, asr #1
    2408:	c4510001 	ldrbgt	r0, [r1], #-1
    240c:	c8000000 	stmdagt	r0, {}	; <UNPREDICTABLE>
    2410:	03000000 	movweq	r0, #0
    2414:	9f147300 	svcls	0x00147300
    2418:	000000c8 	andeq	r0, r0, r8, asr #1
    241c:	000000d0 	ldrdeq	r0, [r0], -r0	; <UNPREDICTABLE>
    2420:	d0510001 	subsle	r0, r1, r1
    2424:	d4000000 	strle	r0, [r0], #-0
    2428:	03000000 	movweq	r0, #0
    242c:	9f047100 	svcls	0x00047100
	...
    2438:	01080001 	tsteq	r8, r1
    243c:	010b0000 	mrseq	r0, (UNDEF: 11)
    2440:	00010000 	andeq	r0, r1, r0
    2444:	00000051 	andeq	r0, r0, r1, asr r0
    2448:	00000000 	andeq	r0, r0, r0
    244c:	d8000200 	stmdale	r0, {r9}
    2450:	10000000 	andne	r0, r0, r0
    2454:	02000001 	andeq	r0, r0, #1, 0
    2458:	009f3100 	addseq	r3, pc, r0, lsl #2
    245c:	00000000 	andeq	r0, r0, r0
    2460:	05000000 	streq	r0, [r0, #-0]
    2464:	0000e003 	andeq	lr, r0, r3
    2468:	0000e400 	andeq	lr, r0, r0, lsl #8
    246c:	30000200 	andcc	r0, r0, r0, lsl #4
    2470:	0000009f 	muleq	r0, pc, r0	; <UNPREDICTABLE>
    2474:	00000000 	andeq	r0, r0, r0
    2478:	e4000100 	str	r0, [r0], #-256	; 0xffffff00
    247c:	ef000000 	svc	0x00000000
    2480:	01000000 	mrseq	r0, (UNDEF: 0)
    2484:	00005300 	andeq	r5, r0, r0, lsl #6
    2488:	00000000 	andeq	r0, r0, r0
    248c:	01000000 	mrseq	r0, (UNDEF: 0)
    2490:	000000e4 	andeq	r0, r0, r4, ror #1
    2494:	000000ec 	andeq	r0, r0, ip, ror #1
    2498:	00530001 	subseq	r0, r3, r1
    249c:	00000000 	andeq	r0, r0, r0
    24a0:	04000000 	streq	r0, [r0], #-0
    24a4:	f0010000 			; <UNDEFINED> instruction: 0xf0010000
    24a8:	04000000 	streq	r0, [r0], #-0
    24ac:	02000001 	andeq	r0, r0, #1, 0
    24b0:	049f3000 	ldreq	r3, [pc], #0	; 24b8 <__code_start__-0x5b48>
    24b4:	08000001 	stmdaeq	r0, {r0}
    24b8:	01000001 	tsteq	r0, r1
    24bc:	00005100 	andeq	r5, r0, r0, lsl #2
    24c0:	00000000 	andeq	r0, r0, r0
    24c4:	00010000 	andeq	r0, r1, r0
    24c8:	000000f4 	strdeq	r0, [r0], -r4
    24cc:	0000010b 	andeq	r0, r0, fp, lsl #2
    24d0:	00530001 	subseq	r0, r3, r1
	...
    24dc:	0000f401 	andeq	pc, r0, r1, lsl #8
    24e0:	00010800 	andeq	r0, r1, r0, lsl #16
    24e4:	53000100 	movwpl	r0, #256	; 0x100
	...
    24f0:	01000004 	tsteq	r0, r4
    24f4:	00009628 	andeq	r9, r0, r8, lsr #12
    24f8:	00009630 	andeq	r9, r0, r0, lsr r6
    24fc:	9f300002 	svcls	0x00300002
    2500:	00009630 	andeq	r9, r0, r0, lsr r6
    2504:	00009630 	andeq	r9, r0, r0, lsr r6
    2508:	00530001 	subseq	r0, r3, r1
    250c:	00000000 	andeq	r0, r0, r0
    2510:	03000000 	movweq	r0, #0
    2514:	00000000 	andeq	r0, r0, r0
    2518:	3c000000 	stccc	0, cr0, [r0], {-0}
    251c:	40000096 	mulmi	r0, r6, r0
    2520:	02000096 	andeq	r0, r0, #150, 0	; 0x96
    2524:	409f3000 	addsmi	r3, pc, r0
    2528:	44000096 	strmi	r0, [r0], #-150	; 0xffffff6a
    252c:	01000096 	swpeq	r0, r6, [r0]	; <UNPREDICTABLE>
    2530:	96445300 	strbls	r5, [r4], -r0, lsl #6
    2534:	96480000 	strbls	r0, [r8], -r0
    2538:	00050000 	andeq	r0, r5, r0
    253c:	21400073 	hvccs	3
    2540:	0096489f 	umullseq	r4, r6, pc, r8	; <UNPREDICTABLE>
    2544:	00964c00 	addseq	r4, r6, r0, lsl #24
    2548:	53000100 	movwpl	r0, #256	; 0x100
	...
    2554:	00000002 	andeq	r0, r0, r2
    2558:	000095fc 	strdeq	r9, [r0], -ip
    255c:	00009600 	andeq	r9, r0, r0, lsl #12
    2560:	9f300002 	svcls	0x00300002
    2564:	00009600 	andeq	r9, r0, r0, lsl #12
    2568:	00009604 	andeq	r9, r0, r4, lsl #12
    256c:	00500001 	subseq	r0, r0, r1
    2570:	00000000 	andeq	r0, r0, r0
    2574:	02000000 	andeq	r0, r0, #0, 0
    2578:	00000000 	andeq	r0, r0, r0
    257c:	14000000 	strne	r0, [r0], #-0
    2580:	18000096 	stmdane	r0, {r1, r2, r4, r7}
    2584:	02000096 	andeq	r0, r0, #150, 0	; 0x96
    2588:	189f3000 	ldmne	pc, {ip, sp}	; <UNPREDICTABLE>
    258c:	1c000096 	stcne	0, cr0, [r0], {150}	; 0x96
    2590:	01000096 	swpeq	r0, r6, [r0]	; <UNPREDICTABLE>
    2594:	961c5300 	ldrls	r5, [ip], -r0, lsl #6
    2598:	96200000 	strtls	r0, [r0], -r0
    259c:	00050000 	andeq	r0, r5, r0
    25a0:	21400073 	hvccs	3
    25a4:	0096209f 	umullseq	r2, r6, pc, r0	; <UNPREDICTABLE>
    25a8:	00962800 	addseq	r2, r6, r0, lsl #16
    25ac:	53000100 	movwpl	r0, #256	; 0x100
	...
    25bc:	000000c8 	andeq	r0, r0, r8, asr #1
    25c0:	000000d8 	ldrdeq	r0, [r0], -r8
    25c4:	d8500001 	ldmdale	r0, {r0}^
    25c8:	1c000000 	stcne	0, cr0, [r0], {-0}
    25cc:	04000001 	streq	r0, [r0], #-1
    25d0:	5001f300 	andpl	pc, r1, r0, lsl #6
    25d4:	0000009f 	muleq	r0, pc, r0	; <UNPREDICTABLE>
    25d8:	00000000 	andeq	r0, r0, r0
    25dc:	00000200 	andeq	r0, r0, r0, lsl #4
    25e0:	0000c800 	andeq	ip, r0, r0, lsl #16
    25e4:	0000d800 	andeq	sp, r0, r0, lsl #16
    25e8:	70000700 	andvc	r0, r0, r0, lsl #14
    25ec:	03e80a00 	mvneq	r0, #0, 20
    25f0:	00d89f1e 	sbcseq	r9, r8, lr, lsl pc
    25f4:	011c0000 	tsteq	ip, r0
    25f8:	00080000 	andeq	r0, r8, r0
    25fc:	0a5001f3 	beq	1402dd0 <__bss_end__+0x13f8b78>
    2600:	9f1e03e8 	svcls	0x001e03e8
	...
    260c:	00dc0000 	sbcseq	r0, ip, r0
    2610:	011c0000 	tsteq	ip, r0
    2614:	00010000 	andeq	r0, r1, r0
    2618:	00000054 	andeq	r0, r0, r4, asr r0
    261c:	00000000 	andeq	r0, r0, r0
    2620:	f0000100 			; <UNDEFINED> instruction: 0xf0000100
    2624:	1c000000 	stcne	0, cr0, [r0], {-0}
    2628:	01000001 	tsteq	r0, r1
    262c:	00005600 	andeq	r5, r0, r0, lsl #12
	...
    2638:	00ec0000 	rsceq	r0, ip, r0
    263c:	00ef0000 	rsceq	r0, pc, r0
    2640:	00010000 	andeq	r0, r1, r0
    2644:	0000ef50 	andeq	lr, r0, r0, asr pc
    2648:	00011c00 	andeq	r1, r1, r0, lsl #24
    264c:	56000100 	strpl	r0, [r0], -r0, lsl #2
	...
    2658:	01040000 	mrseq	r0, (UNDEF: 4)
    265c:	010b0000 	mrseq	r0, (UNDEF: 11)
    2660:	00010000 	andeq	r0, r1, r0
    2664:	00000050 	andeq	r0, r0, r0, asr r0
	...
    2670:	00002000 	andeq	r2, r0, r0
    2674:	00002300 	andeq	r2, r0, r0, lsl #6
    2678:	50000100 	andpl	r0, r0, r0, lsl #2
    267c:	00000023 	andeq	r0, r0, r3, lsr #32
    2680:	00000030 	andeq	r0, r0, r0, lsr r0
    2684:	00540001 	subseq	r0, r4, r1
	...
    2690:	30000000 	andcc	r0, r0, r0
    2694:	3b000000 	blcc	269c <__code_start__-0x5964>
    2698:	01000000 	mrseq	r0, (UNDEF: 0)
    269c:	003b5000 	eorseq	r5, fp, r0
    26a0:	00780000 	rsbseq	r0, r8, r0
    26a4:	00010000 	andeq	r0, r1, r0
    26a8:	00000056 	andeq	r0, r0, r6, asr r0
    26ac:	00000000 	andeq	r0, r0, r0
    26b0:	4c000100 	stfmis	f0, [r0], {-0}
    26b4:	78000000 	stmdavc	r0, {}	; <UNPREDICTABLE>
    26b8:	01000000 	mrseq	r0, (UNDEF: 0)
    26bc:	00005500 	andeq	r5, r0, r0, lsl #10
	...
    26c8:	00480000 	subeq	r0, r8, r0
    26cc:	004b0000 	subeq	r0, fp, r0
    26d0:	00010000 	andeq	r0, r1, r0
    26d4:	00004b50 	andeq	r4, r0, r0, asr fp
    26d8:	00007800 	andeq	r7, r0, r0, lsl #16
    26dc:	55000100 	strpl	r0, [r0, #-256]	; 0xffffff00
	...
    26e8:	00600000 	rsbeq	r0, r0, r0
    26ec:	00670000 	rsbeq	r0, r7, r0
    26f0:	00010000 	andeq	r0, r1, r0
    26f4:	00000050 	andeq	r0, r0, r0, asr r0
	...
    2700:	00007800 	andeq	r7, r0, r0, lsl #16
    2704:	00008400 	andeq	r8, r0, r0, lsl #8
    2708:	50000100 	andpl	r0, r0, r0, lsl #2
    270c:	00000084 	andeq	r0, r0, r4, lsl #1
    2710:	000000c8 	andeq	r0, r0, r8, asr #1
    2714:	01f30004 	mvnseq	r0, r4
    2718:	00009f50 	andeq	r9, r0, r0, asr pc
	...
    2724:	00000088 	andeq	r0, r0, r8, lsl #1
    2728:	000000c8 	andeq	r0, r0, r8, asr #1
    272c:	00540001 	subseq	r0, r4, r1
    2730:	00000000 	andeq	r0, r0, r0
    2734:	01000000 	mrseq	r0, (UNDEF: 0)
    2738:	00009c00 	andeq	r9, r0, r0, lsl #24
    273c:	0000c800 	andeq	ip, r0, r0, lsl #16
    2740:	56000100 	strpl	r0, [r0], -r0, lsl #2
	...
    2750:	00000098 	muleq	r0, r8, r0
    2754:	0000009b 	muleq	r0, fp, r0
    2758:	9b500001 	blls	1402764 <__bss_end__+0x13f850c>
    275c:	c8000000 	stmdagt	r0, {}	; <UNPREDICTABLE>
    2760:	01000000 	mrseq	r0, (UNDEF: 0)
    2764:	00005600 	andeq	r5, r0, r0, lsl #12
	...
    2770:	000000b0 	strheq	r0, [r0], -r0	; <UNPREDICTABLE>
    2774:	000000b7 	strheq	r0, [r0], -r7
    2778:	00500001 	subseq	r0, r0, r1
	...
    2784:	58000000 	stmdapl	r0, {}	; <UNPREDICTABLE>
    2788:	63000001 	movwvs	r0, #1
    278c:	01000001 	tsteq	r0, r1
    2790:	01635000 	cmneq	r3, r0
    2794:	01880000 	orreq	r0, r8, r0
    2798:	00010000 	andeq	r0, r1, r0
    279c:	00000054 	andeq	r0, r0, r4, asr r0
    27a0:	00000000 	andeq	r0, r0, r0
    27a4:	48000000 	stmdami	r0, {}	; <UNPREDICTABLE>
    27a8:	58000001 	stmdapl	r0, {r0}
    27ac:	01000001 	tsteq	r0, r1
    27b0:	00005400 	andeq	r5, r0, r0, lsl #8
	...
    27c0:	000f0000 	andeq	r0, pc, r0
    27c4:	00010000 	andeq	r0, r1, r0
    27c8:	00000f50 	andeq	r0, r0, r0, asr pc
    27cc:	00002000 	andeq	r2, r0, r0
    27d0:	54000100 	strpl	r0, [r0], #-256	; 0xffffff00
	...
    27e4:	0000000f 	andeq	r0, r0, pc
    27e8:	0f510001 	svceq	0x00510001
    27ec:	20000000 	andcs	r0, r0, r0
    27f0:	01000000 	mrseq	r0, (UNDEF: 0)
    27f4:	00005500 	andeq	r5, r0, r0, lsl #10
	...
    2800:	00200000 	eoreq	r0, r0, r0
    2804:	002f0000 	eoreq	r0, pc, r0
    2808:	00010000 	andeq	r0, r1, r0
    280c:	00002f50 	andeq	r2, r0, r0, asr pc
    2810:	00004000 	andeq	r4, r0, r0
    2814:	54000100 	strpl	r0, [r0], #-256	; 0xffffff00
	...
    2824:	00000020 	andeq	r0, r0, r0, lsr #32
    2828:	0000002f 	andeq	r0, r0, pc, lsr #32
    282c:	2f510001 	svccs	0x00510001
    2830:	40000000 	andmi	r0, r0, r0
    2834:	01000000 	mrseq	r0, (UNDEF: 0)
    2838:	00005500 	andeq	r5, r0, r0, lsl #10
	...
    2848:	00180000 	andseq	r0, r8, r0
    284c:	00010000 	andeq	r0, r1, r0
    2850:	00001851 	andeq	r1, r0, r1, asr r8
    2854:	00002c00 	andeq	r2, r0, r0, lsl #24
    2858:	f3000400 	vshl.u8	d0, d0, d0
    285c:	009f5101 	addseq	r5, pc, r1, lsl #2
    2860:	00000000 	andeq	r0, r0, r0
    2864:	02000000 	andeq	r0, r0, #0, 0
	...
    2870:	00000101 	andeq	r0, r0, r1, lsl #2
    2874:	00000000 	andeq	r0, r0, r0
    2878:	00000400 	andeq	r0, r0, r0, lsl #8
    287c:	50000100 	andpl	r0, r0, r0, lsl #2
    2880:	00000004 	andeq	r0, r0, r4
    2884:	00000008 	andeq	r0, r0, r8
    2888:	08520001 	ldmdaeq	r2, {r0}^
    288c:	0c000000 	stceq	0, cr0, [r0], {-0}
    2890:	03000000 	movweq	r0, #0
    2894:	9f017200 	svcls	0x00017200
    2898:	0000000c 	andeq	r0, r0, ip
    289c:	00000018 	andeq	r0, r0, r8, lsl r0
    28a0:	18520001 	ldmdane	r2, {r0}^
    28a4:	1c000000 	stcne	0, cr0, [r0], {-0}
    28a8:	01000000 	mrseq	r0, (UNDEF: 0)
    28ac:	001c5300 	andseq	r5, ip, r0, lsl #6
    28b0:	00240000 	eoreq	r0, r4, r0
    28b4:	00030000 	andeq	r0, r3, r0
    28b8:	249f0173 	ldrcs	r0, [pc], #371	; 28c0 <__code_start__-0x5740>
    28bc:	2c000000 	stccs	0, cr0, [r0], {-0}
    28c0:	01000000 	mrseq	r0, (UNDEF: 0)
    28c4:	00005300 	andeq	r5, r0, r0, lsl #6
    28c8:	00000000 	andeq	r0, r0, r0
    28cc:	02030000 	andeq	r0, r3, #0, 0
    28d0:	00000002 	andeq	r0, r0, r2
    28d4:	00000000 	andeq	r0, r0, r0
    28d8:	00000018 	andeq	r0, r0, r8, lsl r0
    28dc:	18510001 	ldmdane	r1, {r0}^
    28e0:	1c000000 	stcne	0, cr0, [r0], {-0}
    28e4:	03000000 	movweq	r0, #0
    28e8:	9f017100 	svcls	0x00017100
    28ec:	0000001c 	andeq	r0, r0, ip, lsl r0
    28f0:	0000002c 	andeq	r0, r0, ip, lsr #32
    28f4:	00510001 	subseq	r0, r1, r1
	...
    2904:	00000800 	andeq	r0, r0, r0, lsl #16
    2908:	00000c00 	andeq	r0, r0, r0, lsl #24
    290c:	72000200 	andvc	r0, r0, #0, 4
    2910:	00000c00 	andeq	r0, r0, r0, lsl #24
    2914:	00001800 	andeq	r1, r0, r0, lsl #16
    2918:	73000200 	movwvc	r0, #512	; 0x200
    291c:	00001c00 	andeq	r1, r0, r0, lsl #24
    2920:	00002c00 	andeq	r2, r0, r0, lsl #24
    2924:	52000100 	andpl	r0, r0, #0
	...
    2940:	00000014 	andeq	r0, r0, r4, lsl r0
    2944:	14500001 	ldrbne	r0, [r0], #-1
    2948:	18000000 	stmdane	r0, {}	; <UNPREDICTABLE>
    294c:	03000000 	movweq	r0, #0
    2950:	9f017000 	svcls	0x00017000
    2954:	00000018 	andeq	r0, r0, r8, lsl r0
    2958:	00000020 	andeq	r0, r0, r0, lsr #32
    295c:	24500001 	ldrbcs	r0, [r0], #-1
    2960:	28000000 	stmdacs	r0, {}	; <UNPREDICTABLE>
    2964:	01000000 	mrseq	r0, (UNDEF: 0)
    2968:	00285000 	eoreq	r5, r8, r0
    296c:	00300000 	eorseq	r0, r0, r0
    2970:	00030000 	andeq	r0, r3, r0
    2974:	389f0170 	ldmcc	pc, {r4, r5, r6, r8}	; <UNPREDICTABLE>
    2978:	40000000 	andmi	r0, r0, r0
    297c:	01000000 	mrseq	r0, (UNDEF: 0)
    2980:	00005000 	andeq	r5, r0, r0
	...
    2994:	00000024 	andeq	r0, r0, r4, lsr #32
    2998:	24510001 	ldrbcs	r0, [r1], #-1
    299c:	28000000 	stmdacs	r0, {}	; <UNPREDICTABLE>
    29a0:	01000000 	mrseq	r0, (UNDEF: 0)
    29a4:	00285c00 	eoreq	r5, r8, r0, lsl #24
    29a8:	00440000 	subeq	r0, r4, r0
    29ac:	00010000 	andeq	r0, r1, r0
    29b0:	00000051 	andeq	r0, r0, r1, asr r0
    29b4:	00000000 	andeq	r0, r0, r0
    29b8:	02020000 	andeq	r0, r2, #0, 0
    29bc:	00000000 	andeq	r0, r0, r0
    29c0:	04000000 	streq	r0, [r0], #-0
    29c4:	01000000 	mrseq	r0, (UNDEF: 0)
    29c8:	00045100 	andeq	r5, r4, r0, lsl #2
    29cc:	00080000 	andeq	r0, r8, r0
    29d0:	00030000 	andeq	r0, r3, r0
    29d4:	089f0171 	ldmeq	pc, {r0, r4, r5, r6, r8}	; <UNPREDICTABLE>
    29d8:	18000000 	stmdane	r0, {}	; <UNPREDICTABLE>
    29dc:	01000000 	mrseq	r0, (UNDEF: 0)
    29e0:	00005100 	andeq	r5, r0, r0, lsl #2
    29e4:	00000000 	andeq	r0, r0, r0
    29e8:	00020000 	andeq	r0, r2, r0
    29ec:	00000000 	andeq	r0, r0, r0
    29f0:	00000004 	andeq	r0, r0, r4
    29f4:	00500001 	subseq	r0, r0, r1
	...
    2a04:	08000000 	stmdaeq	r0, {}	; <UNPREDICTABLE>
    2a08:	01000000 	mrseq	r0, (UNDEF: 0)
    2a0c:	00085000 	andeq	r5, r8, r0
    2a10:	00300000 	eorseq	r0, r0, r0
    2a14:	00040000 	andeq	r0, r4, r0
    2a18:	9f5001f3 	svcls	0x005001f3
	...
    2a2c:	00000008 	andeq	r0, r0, r8
    2a30:	08510001 	ldmdaeq	r1, {r0}^
    2a34:	30000000 	andcc	r0, r0, r0
    2a38:	04000000 	streq	r0, [r0], #-0
    2a3c:	5101f300 	mrspl	pc, SP_irq	; <UNPREDICTABLE>
    2a40:	0000009f 	muleq	r0, pc, r0	; <UNPREDICTABLE>
	...
    2a4c:	01000000 	mrseq	r0, (UNDEF: 0)
    2a50:	00000202 	andeq	r0, r0, r2, lsl #4
    2a54:	04000000 	streq	r0, [r0], #-0
    2a58:	01000000 	mrseq	r0, (UNDEF: 0)
    2a5c:	00045200 	andeq	r5, r4, r0, lsl #4
    2a60:	00080000 	andeq	r0, r8, r0
    2a64:	00040000 	andeq	r0, r4, r0
    2a68:	9f5201f3 	svcls	0x005201f3
    2a6c:	00000008 	andeq	r0, r0, r8
    2a70:	00000018 	andeq	r0, r0, r8, lsl r0
    2a74:	01f30006 	mvnseq	r0, r6
    2a78:	9f1c3152 	svcls	0x001c3152
    2a7c:	00000018 	andeq	r0, r0, r8, lsl r0
    2a80:	00000018 	andeq	r0, r0, r8, lsl r0
    2a84:	01f30004 	mvnseq	r0, r4
    2a88:	00189f52 	andseq	r9, r8, r2, asr pc
    2a8c:	00300000 	eorseq	r0, r0, r0
    2a90:	00060000 	andeq	r0, r6, r0
    2a94:	315201f3 	ldrshcc	r0, [r2, #-19]	; 0xffffffed
    2a98:	00009f1c 	andeq	r9, r0, ip, lsl pc
    2a9c:	00000000 	andeq	r0, r0, r0
    2aa0:	00020000 	andeq	r0, r2, r0
    2aa4:	00010000 	andeq	r0, r1, r0
    2aa8:	00000000 	andeq	r0, r0, r0
    2aac:	000c0000 	andeq	r0, ip, r0
    2ab0:	00010000 	andeq	r0, r1, r0
    2ab4:	00000c50 	andeq	r0, r0, r0, asr ip
    2ab8:	00001800 	andeq	r1, r0, r0, lsl #16
    2abc:	70000300 	andvc	r0, r0, r0, lsl #6
    2ac0:	00189f7f 	andseq	r9, r8, pc, ror pc
    2ac4:	00240000 	eoreq	r0, r4, r0
    2ac8:	00010000 	andeq	r0, r1, r0
    2acc:	00002850 	andeq	r2, r0, r0, asr r8
    2ad0:	00002c00 	andeq	r2, r0, r0, lsl #24
    2ad4:	70000300 	andvc	r0, r0, r0, lsl #6
    2ad8:	00009f7f 	andeq	r9, r0, pc, ror pc
    2adc:	00000000 	andeq	r0, r0, r0
    2ae0:	00020000 	andeq	r0, r2, r0
	...
    2aec:	0000000c 	andeq	r0, r0, ip
    2af0:	0c510001 	mrrceq	0, 0, r0, r1, cr1
    2af4:	10000000 	andne	r0, r0, r0
    2af8:	03000000 	movweq	r0, #0
    2afc:	9f017100 	svcls	0x00017100
    2b00:	00000010 	andeq	r0, r0, r0, lsl r0
    2b04:	00000030 	andeq	r0, r0, r0, lsr r0
    2b08:	00510001 	subseq	r0, r1, r1
    2b0c:	00000000 	andeq	r0, r0, r0
    2b10:	Address 0x0000000000002b10 is out of bounds.


Disassembly of section .debug_aranges:

00000000 <.debug_aranges>:
   0:	0000001c 	andeq	r0, r0, ip, lsl r0
   4:	00000002 	andeq	r0, r0, r2
   8:	00040000 	andeq	r0, r4, r0
   c:	00000000 	andeq	r0, r0, r0
  10:	00008038 	andeq	r8, r0, r8, lsr r0
  14:	00000054 	andeq	r0, r0, r4, asr r0
	...
  20:	0000001c 	andeq	r0, r0, ip, lsl r0
  24:	01cd0002 	biceq	r0, sp, r2
  28:	00040000 	andeq	r0, r4, r0
  2c:	00000000 	andeq	r0, r0, r0
  30:	0000808c 	andeq	r8, r0, ip, lsl #1
  34:	00000270 	andeq	r0, r0, r0, ror r2
	...
  40:	0000001c 	andeq	r0, r0, ip, lsl r0
  44:	0c730002 	ldcleq	0, cr0, [r3], #-8
  48:	00040000 	andeq	r0, r4, r0
  4c:	00000000 	andeq	r0, r0, r0
  50:	000082fc 	strdeq	r8, [r0], -ip
  54:	00000578 	andeq	r0, r0, r8, ror r5
	...
  60:	0000001c 	andeq	r0, r0, ip, lsl r0
  64:	204d0002 	subcs	r0, sp, r2
  68:	00040000 	andeq	r0, r4, r0
  6c:	00000000 	andeq	r0, r0, r0
  70:	00008874 	andeq	r8, r0, r4, ror r8
  74:	00000198 	muleq	r0, r8, r1
	...
  80:	0000001c 	andeq	r0, r0, ip, lsl r0
  84:	26c40002 	strbcs	r0, [r4], r2
  88:	00040000 	andeq	r0, r4, r0
  8c:	00000000 	andeq	r0, r0, r0
  90:	00008a0c 	andeq	r8, r0, ip, lsl #20
  94:	00000058 	andeq	r0, r0, r8, asr r0
	...
  a0:	0000001c 	andeq	r0, r0, ip, lsl r0
  a4:	28650002 	stmdacs	r5!, {r1}^
  a8:	00040000 	andeq	r0, r4, r0
  ac:	00000000 	andeq	r0, r0, r0
  b0:	00008a64 	andeq	r8, r0, r4, ror #20
  b4:	0000003c 	andeq	r0, r0, ip, lsr r0
	...
  c0:	0000001c 	andeq	r0, r0, ip, lsl r0
  c4:	29b20002 	ldmibcs	r2!, {r1}
  c8:	00040000 	andeq	r0, r4, r0
  cc:	00000000 	andeq	r0, r0, r0
  d0:	00008aa0 	andeq	r8, r0, r0, lsr #21
  d4:	00000038 	andeq	r0, r0, r8, lsr r0
	...
  e0:	0000001c 	andeq	r0, r0, ip, lsl r0
  e4:	2aa90002 	bcs	fea400f4 <__bss_end__+0xfea35e9c>
  e8:	00040000 	andeq	r0, r4, r0
  ec:	00000000 	andeq	r0, r0, r0
  f0:	00008ad8 	ldrdeq	r8, [r0], -r8	; <UNPREDICTABLE>
  f4:	000009b4 			; <UNDEFINED> instruction: 0x000009b4
	...
 100:	0000001c 	andeq	r0, r0, ip, lsl r0
 104:	372c0002 	strcc	r0, [ip, -r2]!
 108:	00040000 	andeq	r0, r4, r0
 10c:	00000000 	andeq	r0, r0, r0
 110:	0000948c 	andeq	r9, r0, ip, lsl #9
 114:	0000002c 	andeq	r0, r0, ip, lsr #32
	...
 120:	0000001c 	andeq	r0, r0, ip, lsl r0
 124:	385f0002 	ldmdacc	pc, {r1}^	; <UNPREDICTABLE>
 128:	00040000 	andeq	r0, r4, r0
 12c:	00000000 	andeq	r0, r0, r0
 130:	000094b8 			; <UNDEFINED> instruction: 0x000094b8
 134:	00000128 	andeq	r0, r0, r8, lsr #2
	...
 140:	0000001c 	andeq	r0, r0, ip, lsl r0
 144:	3b140002 	blcc	500154 <__bss_end__+0x4f5efc>
 148:	00040000 	andeq	r0, r4, r0
 14c:	00000000 	andeq	r0, r0, r0
 150:	000095e0 	andeq	r9, r0, r0, ror #11
 154:	00000004 	andeq	r0, r0, r4
	...
 160:	0000001c 	andeq	r0, r0, ip, lsl r0
 164:	3be60002 	blcc	ff980174 <__bss_end__+0xff975f1c>
 168:	00040000 	andeq	r0, r4, r0
 16c:	00000000 	andeq	r0, r0, r0
 170:	000095fc 	strdeq	r9, [r0], -ip
 174:	0000008c 	andeq	r0, r0, ip, lsl #1
	...
 180:	0000001c 	andeq	r0, r0, ip, lsl r0
 184:	3e670002 	cdpcc	0, 6, cr0, cr7, cr2, {0}
 188:	00040000 	andeq	r0, r4, r0
 18c:	00000000 	andeq	r0, r0, r0
 190:	00009688 	andeq	r9, r0, r8, lsl #13
 194:	0000011c 	andeq	r0, r0, ip, lsl r1
	...
 1a0:	0000001c 	andeq	r0, r0, ip, lsl r0
 1a4:	43aa0002 			; <UNDEFINED> instruction: 0x43aa0002
 1a8:	00040000 	andeq	r0, r4, r0
 1ac:	00000000 	andeq	r0, r0, r0
 1b0:	000097a4 	andeq	r9, r0, r4, lsr #15
 1b4:	000001f0 	strdeq	r0, [r0], -r0	; <UNPREDICTABLE>
	...
 1c0:	0000001c 	andeq	r0, r0, ip, lsl r0
 1c4:	497b0002 	ldmdbmi	fp!, {r1}^
 1c8:	00040000 	andeq	r0, r4, r0
 1cc:	00000000 	andeq	r0, r0, r0
 1d0:	00009994 	muleq	r0, r4, r9
 1d4:	0000002c 	andeq	r0, r0, ip, lsr #32
	...
 1e0:	0000001c 	andeq	r0, r0, ip, lsl r0
 1e4:	4ab60002 	bmi	fed801f4 <__bss_end__+0xfed75f9c>
 1e8:	00040000 	andeq	r0, r4, r0
 1ec:	00000000 	andeq	r0, r0, r0
 1f0:	000099c0 	andeq	r9, r0, r0, asr #19
 1f4:	00000044 	andeq	r0, r0, r4, asr #32
	...
 200:	0000001c 	andeq	r0, r0, ip, lsl r0
 204:	4bb10002 	blmi	fec40214 <__bss_end__+0xfec35fbc>
 208:	00040000 	andeq	r0, r4, r0
 20c:	00000000 	andeq	r0, r0, r0
 210:	00009a04 	andeq	r9, r0, r4, lsl #20
 214:	00000018 	andeq	r0, r0, r8, lsl r0
	...
 220:	0000001c 	andeq	r0, r0, ip, lsl r0
 224:	4cc40002 	stclmi	0, cr0, [r4], {2}
 228:	00040000 	andeq	r0, r4, r0
 22c:	00000000 	andeq	r0, r0, r0
 230:	00009a1c 	andeq	r9, r0, ip, lsl sl
 234:	00000030 	andeq	r0, r0, r0, lsr r0
	...
 240:	0000001c 	andeq	r0, r0, ip, lsl r0
 244:	4e160002 	cdpmi	0, 1, cr0, cr6, cr2, {0}
 248:	00040000 	andeq	r0, r4, r0
 24c:	00000000 	andeq	r0, r0, r0
 250:	00009a4c 	andeq	r9, r0, ip, asr #20
 254:	00000004 	andeq	r0, r0, r4
	...

Disassembly of section .debug_ranges:

00000000 <.debug_ranges>:
   0:	00000010 	andeq	r0, r0, r0, lsl r0
   4:	00000020 	andeq	r0, r0, r0, lsr #32
   8:	00000020 	andeq	r0, r0, r0, lsr #32
   c:	00000054 	andeq	r0, r0, r4, asr r0
	...
  18:	000000ec 	andeq	r0, r0, ip, ror #1
  1c:	000000f0 	strdeq	r0, [r0], -r0	; <UNPREDICTABLE>
  20:	000000f0 	strdeq	r0, [r0], -r0	; <UNPREDICTABLE>
  24:	000000f4 	strdeq	r0, [r0], -r4
	...
  30:	000000fc 	strdeq	r0, [r0], -ip
  34:	00000100 	andeq	r0, r0, r0, lsl #2
  38:	00000100 	andeq	r0, r0, r0, lsl #2
  3c:	00000104 	andeq	r0, r0, r4, lsl #2
	...
  48:	00000134 	andeq	r0, r0, r4, lsr r1
  4c:	00000138 	andeq	r0, r0, r8, lsr r1
  50:	00000138 	andeq	r0, r0, r8, lsr r1
  54:	0000013c 	andeq	r0, r0, ip, lsr r1
	...
  60:	00000144 	andeq	r0, r0, r4, asr #2
  64:	00000144 	andeq	r0, r0, r4, asr #2
  68:	00000144 	andeq	r0, r0, r4, asr #2
  6c:	00000144 	andeq	r0, r0, r4, asr #2
	...
  78:	0000014c 	andeq	r0, r0, ip, asr #2
  7c:	00000150 	andeq	r0, r0, r0, asr r1
  80:	00000150 	andeq	r0, r0, r0, asr r1
  84:	00000154 	andeq	r0, r0, r4, asr r1
	...
  90:	00000008 	andeq	r0, r0, r8
  94:	0000000c 	andeq	r0, r0, ip
  98:	00000014 	andeq	r0, r0, r4, lsl r0
  9c:	00000054 	andeq	r0, r0, r4, asr r0
  a0:	00000058 	andeq	r0, r0, r8, asr r0
  a4:	00000060 	andeq	r0, r0, r0, rrx
	...
  b0:	00000060 	andeq	r0, r0, r0, rrx
  b4:	00000068 	andeq	r0, r0, r8, rrx
  b8:	0000006c 	andeq	r0, r0, ip, rrx
  bc:	000000ac 	andeq	r0, r0, ip, lsr #1
  c0:	000000b0 	strheq	r0, [r0], -r0	; <UNPREDICTABLE>
  c4:	000000b8 	strheq	r0, [r0], -r8
	...
  d0:	00000068 	andeq	r0, r0, r8, rrx
  d4:	00000068 	andeq	r0, r0, r8, rrx
  d8:	0000006c 	andeq	r0, r0, ip, rrx
  dc:	000000ac 	andeq	r0, r0, ip, lsr #1
  e0:	000000b0 	strheq	r0, [r0], -r0	; <UNPREDICTABLE>
  e4:	000000b8 	strheq	r0, [r0], -r8
	...
  f0:	000000e8 	andeq	r0, r0, r8, ror #1
  f4:	000000f0 	strdeq	r0, [r0], -r0	; <UNPREDICTABLE>
  f8:	000000f4 	strdeq	r0, [r0], -r4
  fc:	00000134 	andeq	r0, r0, r4, lsr r1
 100:	00000138 	andeq	r0, r0, r8, lsr r1
 104:	00000140 	andeq	r0, r0, r0, asr #2
	...
 110:	000000f0 	strdeq	r0, [r0], -r0	; <UNPREDICTABLE>
 114:	000000f0 	strdeq	r0, [r0], -r0	; <UNPREDICTABLE>
 118:	000000f4 	strdeq	r0, [r0], -r4
 11c:	00000134 	andeq	r0, r0, r4, lsr r1
 120:	00000138 	andeq	r0, r0, r8, lsr r1
 124:	00000140 	andeq	r0, r0, r0, asr #2
	...
 130:	00000144 	andeq	r0, r0, r4, asr #2
 134:	00000148 	andeq	r0, r0, r8, asr #2
 138:	00000150 	andeq	r0, r0, r0, asr r1
 13c:	0000015c 	andeq	r0, r0, ip, asr r1
	...
 148:	000000a4 	andeq	r0, r0, r4, lsr #1
 14c:	00000148 	andeq	r0, r0, r8, asr #2
 150:	00000158 	andeq	r0, r0, r8, asr r1
 154:	0000015c 	andeq	r0, r0, ip, asr r1
 158:	00000274 	andeq	r0, r0, r4, ror r2
 15c:	00000278 	andeq	r0, r0, r8, ror r2
 160:	0000027c 	andeq	r0, r0, ip, ror r2
 164:	00000280 	andeq	r0, r0, r0, lsl #5
 168:	00000288 	andeq	r0, r0, r8, lsl #5
 16c:	0000029c 	muleq	r0, ip, r2
 170:	000002c0 	andeq	r0, r0, r0, asr #5
 174:	000002cc 	andeq	r0, r0, ip, asr #5
 178:	000002f0 	strdeq	r0, [r0], -r0	; <UNPREDICTABLE>
 17c:	000002f0 	strdeq	r0, [r0], -r0	; <UNPREDICTABLE>
 180:	000002f4 	strdeq	r0, [r0], -r4
 184:	000002f8 	strdeq	r0, [r0], -r8
	...
 190:	00000148 	andeq	r0, r0, r8, asr #2
 194:	00000158 	andeq	r0, r0, r8, asr r1
 198:	0000015c 	andeq	r0, r0, ip, asr r1
 19c:	0000018c 	andeq	r0, r0, ip, lsl #3
 1a0:	0000029c 	muleq	r0, ip, r2
 1a4:	000002ac 	andeq	r0, r0, ip, lsr #5
	...
 1b0:	000003c8 	andeq	r0, r0, r8, asr #7
 1b4:	000003d0 	ldrdeq	r0, [r0], -r0	; <UNPREDICTABLE>
 1b8:	00000404 	andeq	r0, r0, r4, lsl #8
 1bc:	000004ac 	andeq	r0, r0, ip, lsr #9
 1c0:	000004c0 	andeq	r0, r0, r0, asr #9
 1c4:	00000920 	andeq	r0, r0, r0, lsr #18
 1c8:	00000928 	andeq	r0, r0, r8, lsr #18
 1cc:	000009b4 			; <UNDEFINED> instruction: 0x000009b4
	...
 1d8:	000003c8 	andeq	r0, r0, r8, asr #7
 1dc:	000003d0 	ldrdeq	r0, [r0], -r0	; <UNPREDICTABLE>
 1e0:	00000504 	andeq	r0, r0, r4, lsl #10
 1e4:	000005d0 	ldrdeq	r0, [r0], -r0	; <UNPREDICTABLE>
 1e8:	00000800 	andeq	r0, r0, r0, lsl #16
 1ec:	00000888 	andeq	r0, r0, r8, lsl #17
 1f0:	00000930 	andeq	r0, r0, r0, lsr r9
 1f4:	000009b4 			; <UNDEFINED> instruction: 0x000009b4
	...
 200:	00000404 	andeq	r0, r0, r4, lsl #8
 204:	00000408 	andeq	r0, r0, r8, lsl #8
 208:	00000414 	andeq	r0, r0, r4, lsl r4
 20c:	00000414 	andeq	r0, r0, r4, lsl r4
 210:	00000428 	andeq	r0, r0, r8, lsr #8
 214:	0000042c 	andeq	r0, r0, ip, lsr #8
	...
 220:	000005fc 	strdeq	r0, [r0], -ip
 224:	00000700 	andeq	r0, r0, r0, lsl #14
 228:	000007ec 	andeq	r0, r0, ip, ror #15
 22c:	000007f4 	strdeq	r0, [r0], -r4
 230:	00000888 	andeq	r0, r0, r8, lsl #17
 234:	00000894 	muleq	r0, r4, r8
 238:	000008a8 	andeq	r0, r0, r8, lsr #17
 23c:	000008bc 			; <UNDEFINED> instruction: 0x000008bc
 240:	00000910 	andeq	r0, r0, r0, lsl r9
 244:	00000920 	andeq	r0, r0, r0, lsr #18
	...
 250:	00000600 	andeq	r0, r0, r0, lsl #12
 254:	00000604 	andeq	r0, r0, r4, lsl #12
 258:	00000608 	andeq	r0, r0, r8, lsl #12
 25c:	000006b4 			; <UNDEFINED> instruction: 0x000006b4
 260:	000006cc 	andeq	r0, r0, ip, asr #13
 264:	000006d0 	ldrdeq	r0, [r0], -r0	; <UNPREDICTABLE>
 268:	000008a8 	andeq	r0, r0, r8, lsr #17
 26c:	000008b8 			; <UNDEFINED> instruction: 0x000008b8
 270:	00000910 	andeq	r0, r0, r0, lsl r9
 274:	00000920 	andeq	r0, r0, r0, lsr #18
	...
 280:	000006b4 			; <UNDEFINED> instruction: 0x000006b4
 284:	000006cc 	andeq	r0, r0, ip, asr #13
 288:	000006d0 	ldrdeq	r0, [r0], -r0	; <UNPREDICTABLE>
 28c:	00000700 	andeq	r0, r0, r0, lsl #14
 290:	000007ec 	andeq	r0, r0, ip, ror #15
 294:	000007f4 	strdeq	r0, [r0], -r4
 298:	00000888 	andeq	r0, r0, r8, lsl #17
 29c:	00000894 	muleq	r0, r4, r8
 2a0:	000008b8 			; <UNDEFINED> instruction: 0x000008b8
 2a4:	000008bc 			; <UNDEFINED> instruction: 0x000008bc
	...
 2b0:	00000700 	andeq	r0, r0, r0, lsl #14
 2b4:	00000708 	andeq	r0, r0, r8, lsl #14
 2b8:	0000070c 	andeq	r0, r0, ip, lsl #14
 2bc:	000007ec 	andeq	r0, r0, ip, ror #15
 2c0:	00000894 	muleq	r0, r4, r8
 2c4:	000008a8 	andeq	r0, r0, r8, lsr #17
	...
 2d0:	00000728 	andeq	r0, r0, r8, lsr #14
 2d4:	000007a4 	andeq	r0, r0, r4, lsr #15
 2d8:	000007ac 	andeq	r0, r0, ip, lsr #15
 2dc:	000007b0 			; <UNDEFINED> instruction: 0x000007b0
 2e0:	00000894 	muleq	r0, r4, r8
 2e4:	00000898 	muleq	r0, r8, r8
 2e8:	0000089c 	muleq	r0, ip, r8
 2ec:	000008a0 	andeq	r0, r0, r0, lsr #17
	...
 2f8:	000007a4 	andeq	r0, r0, r4, lsr #15
 2fc:	000007ac 	andeq	r0, r0, ip, lsr #15
 300:	000007b0 			; <UNDEFINED> instruction: 0x000007b0
 304:	000007ec 	andeq	r0, r0, ip, ror #15
 308:	00000898 	muleq	r0, r8, r8
 30c:	0000089c 	muleq	r0, ip, r8
 310:	000008a0 	andeq	r0, r0, r0, lsr #17
 314:	000008a8 	andeq	r0, r0, r8, lsr #17
	...
 320:	000000f0 	strdeq	r0, [r0], -r0	; <UNPREDICTABLE>
 324:	000000f8 	strdeq	r0, [r0], -r8
 328:	000000fc 	strdeq	r0, [r0], -ip
 32c:	00000108 	andeq	r0, r0, r8, lsl #2
	...
 338:	00009628 	andeq	r9, r0, r8, lsr #12
 33c:	00009628 	andeq	r9, r0, r8, lsr #12
 340:	0000962c 	andeq	r9, r0, ip, lsr #12
 344:	00009634 	andeq	r9, r0, r4, lsr r6
	...
 350:	000095fc 	strdeq	r9, [r0], -ip
 354:	00009688 	andeq	r9, r0, r8, lsl #13
	...
 360:	00000030 	andeq	r0, r0, r0, lsr r0
 364:	00000030 	andeq	r0, r0, r0, lsr r0
 368:	00000038 	andeq	r0, r0, r8, lsr r0
 36c:	0000004c 	andeq	r0, r0, ip, asr #32
	...
 378:	0000004c 	andeq	r0, r0, ip, asr #32
 37c:	00000050 	andeq	r0, r0, r0, asr r0
 380:	00000050 	andeq	r0, r0, r0, asr r0
 384:	00000078 	andeq	r0, r0, r8, ror r0
	...
 390:	0000004c 	andeq	r0, r0, ip, asr #32
 394:	00000050 	andeq	r0, r0, r0, asr r0
 398:	00000050 	andeq	r0, r0, r0, asr r0
 39c:	00000060 	andeq	r0, r0, r0, rrx
 3a0:	00000064 	andeq	r0, r0, r4, rrx
 3a4:	00000068 	andeq	r0, r0, r8, rrx
	...
 3b0:	0000004c 	andeq	r0, r0, ip, asr #32
 3b4:	00000050 	andeq	r0, r0, r0, asr r0
 3b8:	00000054 	andeq	r0, r0, r4, asr r0
 3bc:	00000060 	andeq	r0, r0, r0, rrx
	...
 3c8:	0000009c 	muleq	r0, ip, r0
 3cc:	000000a0 	andeq	r0, r0, r0, lsr #1
 3d0:	000000a0 	andeq	r0, r0, r0, lsr #1
 3d4:	000000c8 	andeq	r0, r0, r8, asr #1
	...
 3e0:	0000009c 	muleq	r0, ip, r0
 3e4:	000000a0 	andeq	r0, r0, r0, lsr #1
 3e8:	000000a0 	andeq	r0, r0, r0, lsr #1
 3ec:	000000b0 	strheq	r0, [r0], -r0	; <UNPREDICTABLE>
 3f0:	000000b4 	strheq	r0, [r0], -r4
 3f4:	000000b8 	strheq	r0, [r0], -r8
	...
 400:	0000009c 	muleq	r0, ip, r0
 404:	000000a0 	andeq	r0, r0, r0, lsr #1
 408:	000000a4 	andeq	r0, r0, r4, lsr #1
 40c:	000000b0 	strheq	r0, [r0], -r0	; <UNPREDICTABLE>
	...
 418:	000000c8 	andeq	r0, r0, r8, asr #1
 41c:	000000c8 	andeq	r0, r0, r8, asr #1
 420:	000000cc 	andeq	r0, r0, ip, asr #1
 424:	0000011c 	andeq	r0, r0, ip, lsl r1
	...
 430:	000000f0 	strdeq	r0, [r0], -r0	; <UNPREDICTABLE>
 434:	000000f4 	strdeq	r0, [r0], -r4
 438:	000000f4 	strdeq	r0, [r0], -r4
 43c:	0000011c 	andeq	r0, r0, ip, lsl r1
	...
 448:	000000f0 	strdeq	r0, [r0], -r0	; <UNPREDICTABLE>
 44c:	000000f4 	strdeq	r0, [r0], -r4
 450:	000000f4 	strdeq	r0, [r0], -r4
 454:	00000104 	andeq	r0, r0, r4, lsl #2
 458:	00000108 	andeq	r0, r0, r8, lsl #2
 45c:	0000010c 	andeq	r0, r0, ip, lsl #2
	...
 468:	000000f0 	strdeq	r0, [r0], -r0	; <UNPREDICTABLE>
 46c:	000000f4 	strdeq	r0, [r0], -r4
 470:	000000f8 	strdeq	r0, [r0], -r8
 474:	00000104 	andeq	r0, r0, r4, lsl #2
	...

Disassembly of section .debug_line:

00000000 <.debug_line>:
       0:	000000ce 	andeq	r0, r0, lr, asr #1
       4:	005f0003 	subseq	r0, pc, r3
       8:	01020000 	mrseq	r0, (UNDEF: 2)
       c:	000d0efb 	strdeq	r0, [sp], -fp
      10:	01010101 	tsteq	r1, r1, lsl #2
      14:	01000000 	mrseq	r0, (UNDEF: 0)
      18:	2f010000 	svccs	0x00010000
      1c:	72657355 	rsbvc	r7, r5, #1409286145	; 0x54000001
      20:	696d2f73 	stmdbvs	sp!, {r0, r1, r4, r5, r6, r8, r9, sl, fp, sp}^
      24:	2f73656c 	svccs	0x0073656c
      28:	72756f53 	rsbsvc	r6, r5, #332	; 0x14c
      2c:	632f6563 			; <UNDEFINED> instruction: 0x632f6563
      30:	30343273 	eorscc	r3, r4, r3, ror r2
      34:	6c2f786c 	stcvs	8, cr7, [pc], #-432	; fffffe8c <__bss_end__+0xffff5c34>
      38:	69706269 	ldmdbvs	r0!, {r0, r3, r5, r6, r9, sp, lr}^
      3c:	636e692f 	cmnvs	lr, #770048	; 0xbc000
      40:	6564756c 	strbvs	r7, [r4, #-1388]!	; 0xfffffa94
      44:	72640000 	rsbvc	r0, r4, #0, 0
      48:	72657669 	rsbvc	r7, r5, #110100480	; 0x6900000
      4c:	0000632e 	andeq	r6, r0, lr, lsr #6
      50:	70720000 	rsbsvc	r0, r2, r0
      54:	00682e69 	rsbeq	r2, r8, r9, ror #28
      58:	61000001 	tstvs	r0, r1
      5c:	31317364 	teqcc	r1, r4, ror #6
      60:	682e3531 	stmdavs	lr!, {r0, r4, r5, r8, sl, ip, sp}
      64:	00000000 	andeq	r0, r0, r0
      68:	00140500 	andseq	r0, r4, r0, lsl #10
      6c:	80380205 	eorshi	r0, r8, r5, lsl #4
      70:	10030000 	andne	r0, r3, r0
      74:	2f050501 	svccs	0x00050501
      78:	01061905 	tsteq	r6, r5, lsl #18
      7c:	0609054a 	streq	r0, [r9], -sl, asr #10
      80:	052e1103 	streq	r1, [lr, #-259]!	; 0xfffffefd
      84:	0e054b03 	vmlaeq.f64	d4, d5, d3
      88:	054a7903 	strbeq	r7, [sl, #-2307]	; 0xfffff6fd
      8c:	05130109 	ldreq	r0, [r3, #-265]	; 0xfffffef7
      90:	05010613 	streq	r0, [r1, #-1555]	; 0xfffff9ed
      94:	0905660f 	stmdbeq	r5, {r0, r1, r2, r3, r9, sl, sp, lr}
      98:	0d053006 	stceq	0, cr3, [r5, #-24]	; 0xffffffe8
      9c:	06110501 	ldreq	r0, [r1], -r1, lsl #10
      a0:	00180501 	andseq	r0, r8, r1, lsl #10
      a4:	06010402 	streq	r0, [r1], -r2, lsl #8
      a8:	0009052e 	andeq	r0, r9, lr, lsr #10
      ac:	06010402 	streq	r0, [r1], -r2, lsl #8
      b0:	000d0501 	andeq	r0, sp, r1, lsl #10
      b4:	06030402 	streq	r0, [r3], -r2, lsl #8
      b8:	001f054b 	andseq	r0, pc, fp, asr #10
      bc:	49030402 	stmdbmi	r3, {r1, sl}
      c0:	02002105 	andeq	r2, r0, #1073741825	; 0x40000001
      c4:	01060304 	tsteq	r6, r4, lsl #6
      c8:	03040200 	movweq	r0, #16896	; 0x4200
      cc:	0006022e 	andeq	r0, r6, lr, lsr #4
      d0:	03910101 	orrseq	r0, r1, #1073741824	; 0x40000000
      d4:	00030000 	andeq	r0, r3, r0
      d8:	0000010a 	andeq	r0, r0, sl, lsl #2
      dc:	0efb0102 	cdpeq	1, 15, cr0, cr11, cr2, {0}
      e0:	0101000d 	tsteq	r1, sp
      e4:	00000101 	andeq	r0, r0, r1, lsl #2
      e8:	00000100 	andeq	r0, r0, r0, lsl #2
      ec:	73552f01 	cmpvc	r5, #1, 30
      f0:	2f737265 	svccs	0x00737265
      f4:	656c696d 	strbvs	r6, [ip, #-2413]!	; 0xfffff693
      f8:	6f532f73 	svcvs	0x00532f73
      fc:	65637275 	strbvs	r7, [r3, #-629]!	; 0xfffffd8b
     100:	3273632f 	rsbscc	r6, r3, #-1140850688	; 0xbc000000
     104:	786c3034 	stmdavc	ip!, {r2, r4, r5, ip, sp}^
     108:	62696c2f 	rsbvs	r6, r9, #12032	; 0x2f00
     10c:	6c2f6970 			; <UNDEFINED> instruction: 0x6c2f6970
     110:	00636269 	rsbeq	r6, r3, r9, ror #4
     114:	74706f2f 	ldrbtvc	r6, [r0], #-3887	; 0xfffff0d1
     118:	6d6f682f 	stclvs	8, cr6, [pc, #-188]!	; 64 <__code_start__-0x7f9c>
     11c:	65726265 	ldrbvs	r6, [r2, #-613]!	; 0xfffffd9b
     120:	65432f77 	strbvs	r2, [r3, #-3959]	; 0xfffff089
     124:	72616c6c 	rsbvc	r6, r1, #108, 24	; 0x6c00
     128:	6d72612f 	ldfvse	f6, [r2, #-188]!	; 0xffffff44
     12c:	6e6f6e2d 	cdpvs	14, 6, cr6, cr15, cr13, {1}
     130:	61652d65 	cmnvs	r5, r5, ror #26
     134:	392d6962 	pushcc	{r1, r5, r6, r8, fp, sp, lr}
     138:	322d392f 	eorcc	r3, sp, #770048	; 0xbc000
     13c:	71393130 	teqvc	r9, r0, lsr r1
     140:	73632d34 	cmnvc	r3, #52, 26	; 0xd00
     144:	65373031 	ldrvs	r3, [r7, #-49]!	; 0xffffffcf
     148:	62696c2f 	rsbvs	r6, r9, #12032	; 0x2f00
     14c:	6363672f 	cmnvs	r3, #12320768	; 0xbc0000
     150:	6d72612f 	ldfvse	f6, [r2, #-188]!	; 0xffffff44
     154:	6e6f6e2d 	cdpvs	14, 6, cr6, cr15, cr13, {1}
     158:	61652d65 	cmnvs	r5, r5, ror #26
     15c:	392f6962 	stmdbcc	pc!, {r1, r5, r6, r8, fp, sp, lr}	; <UNPREDICTABLE>
     160:	312e322e 			; <UNDEFINED> instruction: 0x312e322e
     164:	636e692f 	cmnvs	lr, #770048	; 0xbc000
     168:	6564756c 	strbvs	r7, [r4, #-1388]!	; 0xfffffa94
     16c:	73552f00 	cmpvc	r5, #0, 30
     170:	2f737265 	svccs	0x00737265
     174:	656c696d 	strbvs	r6, [ip, #-2413]!	; 0xfffff693
     178:	6f532f73 	svcvs	0x00532f73
     17c:	65637275 	strbvs	r7, [r3, #-629]!	; 0xfffffd8b
     180:	3273632f 	rsbscc	r6, r3, #-1140850688	; 0xbc000000
     184:	786c3034 	stmdavc	ip!, {r2, r4, r5, ip, sp}^
     188:	62696c2f 	rsbvs	r6, r9, #12032	; 0x2f00
     18c:	692f6970 	stmdbvs	pc!, {r4, r5, r6, r8, fp, sp, lr}	; <UNPREDICTABLE>
     190:	756c636e 	strbvc	r6, [ip, #-878]!	; 0xfffffc92
     194:	00006564 	andeq	r6, r0, r4, ror #10
     198:	31736461 	cmncc	r3, r1, ror #8
     19c:	2e353131 	mrccs	1, 1, r3, cr5, cr1, {1}
     1a0:	00000063 	andeq	r0, r0, r3, rrx
     1a4:	74696200 	strbtvc	r6, [r9], #-512	; 0xfffffe00
     1a8:	7075732d 	rsbsvc	r7, r5, sp, lsr #6
     1ac:	74726f70 	ldrbtvc	r6, [r2], #-3952	; 0xfffff090
     1b0:	0100682e 	tsteq	r0, lr, lsr #16
     1b4:	74730000 	ldrbtvc	r0, [r3], #-0
     1b8:	746e6964 	strbtvc	r6, [lr], #-2404	; 0xfffff69c
     1bc:	6363672d 	cmnvs	r3, #11796480	; 0xb40000
     1c0:	0200682e 	andeq	r6, r0, #3014656	; 0x2e0000
     1c4:	70720000 	rsbsvc	r0, r2, r0
     1c8:	00682e69 	rsbeq	r2, r8, r9, ror #28
     1cc:	61000003 	tstvs	r0, r3
     1d0:	31317364 	teqcc	r1, r4, ror #6
     1d4:	682e3531 	stmdavs	lr!, {r0, r4, r5, r8, sl, ip, sp}
     1d8:	00000000 	andeq	r0, r0, r0
     1dc:	2e633269 	cdpcs	2, 6, cr3, cr3, cr9, {3}
     1e0:	00000068 	andeq	r0, r0, r8, rrx
     1e4:	1a050000 	bne	1401ec <__bss_end__+0x135f94>
     1e8:	8c020500 	cfstr32hi	mvfx0, [r2], {-0}
     1ec:	03000080 	movweq	r0, #128	; 0x80
     1f0:	05050120 	streq	r0, [r5, #-288]	; 0xfffffee0
     1f4:	060d054b 	streq	r0, [sp], -fp, asr #10
     1f8:	06050501 	streq	r0, [r5], -r1, lsl #10
     1fc:	0601054b 	streq	r0, [r1], -fp, asr #10
     200:	06410583 	strbeq	r0, [r1], -r3, lsl #11
     204:	05010652 	streq	r0, [r1, #-1618]	; 0xfffff9ae
     208:	134b0605 	movtne	r0, #46597	; 0xb605
     20c:	01061105 	tsteq	r6, r5, lsl #2
     210:	2f060505 	svccs	0x00060505
     214:	01061105 	tsteq	r6, r5, lsl #2
     218:	4b060505 	blmi	181634 <__bss_end__+0x1773dc>
     21c:	01061105 	tsteq	r6, r5, lsl #2
     220:	2f060505 	svccs	0x00060505
     224:	052e2e06 	streq	r2, [lr, #-3590]!	; 0xfffff1fa
     228:	38052f01 	stmdacc	r5, {r0, r8, r9, sl, fp, sp}
     22c:	01065006 	tsteq	r6, r6
     230:	83060505 	movwhi	r0, #25861	; 0x6505
     234:	30064a06 	andcc	r4, r6, r6, lsl #20
     238:	11058413 	tstne	r5, r3, lsl r4
     23c:	20050106 	andcs	r0, r5, r6, lsl #2
     240:	2f01052e 	svccs	0x0001052e
     244:	69061e05 	stmdbvs	r6, {r0, r2, r9, sl, fp, ip}
     248:	4b4b0505 	blmi	12c1664 <__bss_end__+0x12b740c>
     24c:	10034d2f 	andne	r4, r3, pc, lsr #26
     250:	02053101 	andeq	r3, r5, #1073741824	; 0x40000000
     254:	060f054d 	streq	r0, [pc], -sp, asr #10
     258:	06020501 	streq	r0, [r2], -r1, lsl #10
     25c:	059e0683 	ldreq	r0, [lr, #1667]	; 0x683
     260:	01340605 	teqeq	r4, r5, lsl #12
     264:	01050204 	tsteq	r5, r4, lsl #4
     268:	017fb903 	cmneq	pc, r3, lsl #18
     26c:	13130505 	tstne	r3, #20971520	; 0x1400000
     270:	01040106 	tsteq	r4, r6, lsl #2
     274:	0100c503 	tsteq	r0, r3, lsl #10
     278:	01134a06 	tsteq	r3, r6, lsl #20
     27c:	01050204 	tsteq	r5, r4, lsl #4
     280:	05017903 	streq	r7, [r1, #-2307]	; 0xfffff6fd
     284:	13131305 	tstne	r3, #335544320	; 0x14000000
     288:	57030105 	strpl	r0, [r3, -r5, lsl #2]
     28c:	13050501 	movwne	r0, #21761	; 0x5501
     290:	0f051313 	svceq	0x00051313
     294:	052e0106 	streq	r0, [lr, #-262]!	; 0xfffffefa
     298:	75030605 	strvc	r0, [r3, #-1541]	; 0xfffff9fb
     29c:	05131401 	ldreq	r1, [r3, #-1025]	; 0xfffffbff
     2a0:	2e1a0616 	mrccs	6, 0, r0, cr10, cr6, {0}
     2a4:	05050104 	streq	r0, [r5, #-260]	; 0xfffffefc
     2a8:	06012a03 	streq	r2, [r1], -r3, lsl #20
     2ac:	0401134a 	streq	r1, [r1], #-842	; 0xfffffcb6
     2b0:	03010502 	movweq	r0, #5378	; 0x1502
     2b4:	05050178 	streq	r0, [r5, #-376]	; 0xfffffe88
     2b8:	05131313 	ldreq	r1, [r3, #-787]	; 0xfffffced
     2bc:	01570301 	cmpeq	r7, r1, lsl #6
     2c0:	13130505 	tstne	r3, #20971520	; 0x1400000
     2c4:	060f0513 			; <UNDEFINED> instruction: 0x060f0513
     2c8:	05052e01 	streq	r2, [r5, #-3585]	; 0xfffff1ff
     2cc:	01750306 	cmneq	r5, r6, lsl #6
     2d0:	16051314 			; <UNDEFINED> instruction: 0x16051314
     2d4:	042e1a06 	strteq	r1, [lr], #-2566	; 0xfffff5fa
     2d8:	03050501 	movweq	r0, #21761	; 0x5501
     2dc:	4a06012b 	bmi	180790 <__bss_end__+0x176538>
     2e0:	02041319 	andeq	r1, r4, #1677721600	; 0x64000000
     2e4:	13015f03 	movwne	r5, #7939	; 0x1f03
     2e8:	03131319 	tsteq	r3, #1677721600	; 0x64000000
     2ec:	13140159 	tstne	r4, #1073741846	; 0x40000016
     2f0:	03012603 	movweq	r2, #5635	; 0x1603
     2f4:	14130168 	ldrne	r0, [r3], #-360	; 0xfffffe98
     2f8:	14016c03 	strne	r6, [r1], #-3075	; 0xfffff3fd
     2fc:	01140313 	tsteq	r4, r3, lsl r3
     300:	28030104 	stmdacs	r3, {r2, r8}
     304:	03020401 	movweq	r0, #9217	; 0x2401
     308:	13017f98 	movwne	r7, #8088	; 0x1f98
     30c:	e8030104 	stmda	r3, {r2, r8}
     310:	02040100 	andeq	r0, r4, #0
     314:	13015d03 	movwne	r5, #7427	; 0x1d03
     318:	03131319 	tsteq	r3, #1677721600	; 0x64000000
     31c:	13140159 	tstne	r4, #1073741846	; 0x40000016
     320:	03012603 	movweq	r2, #5635	; 0x1603
     324:	14130168 	ldrne	r0, [r3], #-360	; 0xfffffe98
     328:	14016c03 	strne	r6, [r1], #-3075	; 0xfffff3fd
     32c:	01140313 	tsteq	r4, r3, lsl r3
     330:	02050104 	andeq	r0, r5, #1
     334:	05012b03 	streq	r2, [r1, #-2819]	; 0xfffff4fd
     338:	05866705 	streq	r6, [r6, #1797]	; 0x705
     33c:	05010609 	streq	r0, [r1, #-1545]	; 0xfffff9f7
     340:	01670605 	cmneq	r7, r5, lsl #12
     344:	01050204 	tsteq	r5, r4, lsl #4
     348:	05016603 	streq	r6, [r1, #-1539]	; 0xfffff9fd
     34c:	13131305 	tstne	r3, #335544320	; 0x14000000
     350:	57030105 	strpl	r0, [r3, -r5, lsl #2]
     354:	13050501 	movwne	r0, #21761	; 0x5501
     358:	0f051313 	svceq	0x00051313
     35c:	052e0106 	streq	r0, [lr, #-262]!	; 0xfffffefa
     360:	75030605 	strvc	r0, [r3, #-1541]	; 0xfffff9fb
     364:	05131401 	ldreq	r1, [r3, #-1025]	; 0xfffffbff
     368:	2e1a0616 	mrccs	6, 0, r0, cr10, cr6, {0}
     36c:	05050104 	streq	r0, [r5, #-260]	; 0xfffffefc
     370:	00013d03 	andeq	r3, r1, r3, lsl #26
     374:	06020402 	streq	r0, [r2], -r2, lsl #8
     378:	0402004a 	streq	r0, [r2], #-74	; 0xffffffb6
     37c:	02001302 	andeq	r1, r0, #134217728	; 0x8000000
     380:	04010204 	streq	r0, [r1], #-516	; 0xfffffdfc
     384:	00010502 	andeq	r0, r1, r2, lsl #10
     388:	03020402 	movweq	r0, #9218	; 0x2402
     38c:	05017fa9 	streq	r7, [r1, #-4009]	; 0xfffff057
     390:	04020005 	streq	r0, [r2], #-5
     394:	01051302 	tsteq	r5, r2, lsl #6
     398:	02040200 	andeq	r0, r4, #0, 4
     39c:	05017a03 	streq	r7, [r1, #-2563]	; 0xfffff5fd
     3a0:	04020005 	streq	r0, [r2], #-5
     3a4:	02001302 	andeq	r1, r0, #134217728	; 0x8000000
     3a8:	00130204 	andseq	r0, r3, r4, lsl #4
     3ac:	06020402 	streq	r0, [r2], -r2, lsl #8
     3b0:	00010401 	andeq	r0, r1, r1, lsl #8
     3b4:	03020402 	movweq	r0, #9218	; 0x2402
     3b8:	060100da 			; <UNDEFINED> instruction: 0x060100da
     3bc:	0401134a 	streq	r1, [r1], #-842	; 0xfffffcb6
     3c0:	03010502 	movweq	r0, #5378	; 0x1502
     3c4:	05050164 	streq	r0, [r5, #-356]	; 0xfffffe9c
     3c8:	05131313 	ldreq	r1, [r3, #-787]	; 0xfffffced
     3cc:	01570301 	cmpeq	r7, r1, lsl #6
     3d0:	13130505 	tstne	r3, #20971520	; 0x1400000
     3d4:	060f0513 			; <UNDEFINED> instruction: 0x060f0513
     3d8:	05052e01 	streq	r2, [r5, #-3585]	; 0xfffff1ff
     3dc:	01750306 	cmneq	r5, r6, lsl #6
     3e0:	16051314 			; <UNDEFINED> instruction: 0x16051314
     3e4:	042e1a06 	strteq	r1, [lr], #-2566	; 0xfffff5fa
     3e8:	03050501 	movweq	r0, #21761	; 0x5501
     3ec:	0200013f 	andeq	r0, r0, #-1073741809	; 0xc000000f
     3f0:	4a060204 	bmi	180c08 <__bss_end__+0x1769b0>
     3f4:	02040200 	andeq	r0, r4, #0, 4
     3f8:	00010514 	andeq	r0, r1, r4, lsl r5
     3fc:	06020402 	streq	r0, [r2], -r2, lsl #8
     400:	00050513 	andeq	r0, r5, r3, lsl r5
     404:	06010402 	streq	r0, [r1], -r2, lsl #8
     408:	00666703 	rsbeq	r6, r6, r3, lsl #14
     40c:	2e010402 	cdpcs	4, 0, cr0, cr1, cr2, {0}
     410:	01040200 	mrseq	r0, R12_usr
     414:	040200d6 	streq	r0, [r2], #-214	; 0xffffff2a
     418:	02002f01 	andeq	r2, r0, #1, 30
     41c:	002e0104 	eoreq	r0, lr, r4, lsl #2
     420:	d6010402 	strle	r0, [r1], -r2, lsl #8
     424:	01040200 	mrseq	r0, R12_usr
     428:	0402002f 	streq	r0, [r2], #-47	; 0xffffffd1
     42c:	02002e01 	andeq	r2, r0, #1, 28
     430:	00d60104 	sbcseq	r0, r6, r4, lsl #2
     434:	03010402 	movweq	r0, #5122	; 0x1402
     438:	02002e12 	andeq	r2, r0, #288	; 0x120
     43c:	002e0104 	eoreq	r0, lr, r4, lsl #2
     440:	d6010402 	strle	r0, [r1], -r2, lsl #8
     444:	01040200 	mrseq	r0, R12_usr
     448:	0402002f 	streq	r0, [r2], #-47	; 0xffffffd1
     44c:	02002e01 	andeq	r2, r0, #1, 28
     450:	00d60104 	sbcseq	r0, r6, r4, lsl #2
     454:	2f010402 	svccs	0x00010402
     458:	01040200 	mrseq	r0, R12_usr
     45c:	0402002e 	streq	r0, [r2], #-46	; 0xffffffd2
     460:	1a02d601 	bne	b5c6c <__bss_end__+0xaba14>
     464:	63010100 	movwvs	r0, #4352	; 0x1100
     468:	03000005 	movweq	r0, #5
     46c:	0000c200 	andeq	ip, r0, r0, lsl #4
     470:	fb010200 	blx	40c7a <__bss_end__+0x36a22>
     474:	01000d0e 	tsteq	r0, lr, lsl #26
     478:	00010101 	andeq	r0, r1, r1, lsl #2
     47c:	00010000 	andeq	r0, r1, r0
     480:	752f0100 	strvc	r0, [pc, #-256]!	; 388 <__code_start__-0x7c78>
     484:	732f7273 			; <UNDEFINED> instruction: 0x732f7273
     488:	65726168 	ldrbvs	r6, [r2, #-360]!	; 0xfffffe98
     48c:	6363672f 	cmnvs	r3, #12320768	; 0xbc0000
     490:	6d72612d 	ldfvse	f6, [r2, #-180]!	; 0xffffff4c
     494:	6e6f6e2d 	cdpvs	14, 6, cr6, cr15, cr13, {1}
     498:	61652d65 	cmnvs	r5, r5, ror #26
     49c:	312d6962 			; <UNDEFINED> instruction: 0x312d6962
     4a0:	2d332e30 	ldccs	14, cr2, [r3, #-192]!	; 0xffffff40
     4a4:	31323032 	teqcc	r2, r2, lsr r0
     4a8:	2f30312e 	svccs	0x0030312e
     4ac:	2f62696c 	svccs	0x0062696c
     4b0:	2f636367 	svccs	0x00636367
     4b4:	2d6d7261 	sfmcs	f7, 2, [sp, #-388]!	; 0xfffffe7c
     4b8:	656e6f6e 	strbvs	r6, [lr, #-3950]!	; 0xfffff092
     4bc:	6261652d 	rsbvs	r6, r1, #188743680	; 0xb400000
     4c0:	30312f69 	eorscc	r2, r1, r9, ror #30
     4c4:	312e332e 			; <UNDEFINED> instruction: 0x312e332e
     4c8:	636e692f 	cmnvs	lr, #770048	; 0xbc000
     4cc:	6564756c 	strbvs	r7, [r4, #-1388]!	; 0xfffffa94
     4d0:	6f682f00 	svcvs	0x00682f00
     4d4:	652f656d 	strvs	r6, [pc, #-1389]!	; ffffff6f <__bss_end__+0xffff5d17>
     4d8:	656c676e 	strbvs	r6, [ip, #-1902]!	; 0xfffff892
     4dc:	6c632f72 	stclvs	15, cr2, [r3], #-456	; 0xfffffe38
     4e0:	2f737361 	svccs	0x00737361
     4e4:	39347363 	ldmdbcc	r4!, {r0, r1, r5, r6, r8, r9, ip, sp, lr}
     4e8:	31322d6e 	teqcc	r2, lr, ror #26
     4ec:	2f747561 	svccs	0x00747561
     4f0:	62696c2f 	rsbvs	r6, r9, #12032	; 0x2f00
     4f4:	692f6970 	stmdbvs	pc!, {r4, r5, r6, r8, fp, sp, lr}	; <UNPREDICTABLE>
     4f8:	756c636e 	strbvc	r6, [ip, #-878]!	; 0xfffffc92
     4fc:	00006564 	andeq	r6, r0, r4, ror #10
     500:	66617473 			; <UNDEFINED> instruction: 0x66617473
     504:	32692d66 	rsbcc	r2, r9, #6528	; 0x1980
     508:	00632e63 	rsbeq	r2, r3, r3, ror #28
     50c:	73000000 	movwvc	r0, #0
     510:	6e696474 	mcrvs	4, 3, r6, cr9, cr4, {3}
     514:	63672d74 	cmnvs	r7, #116, 26	; 0x1d00
     518:	00682e63 	rsbeq	r2, r8, r3, ror #28
     51c:	72000001 	andvc	r0, r0, #1, 0
     520:	682e6970 	stmdavs	lr!, {r4, r5, r6, r8, fp, sp, lr}
     524:	00000200 	andeq	r0, r0, r0, lsl #4
     528:	6f697067 	svcvs	0x00697067
     52c:	0200682e 	andeq	r6, r0, #3014656	; 0x2e0000
     530:	05000000 	streq	r0, [r0, #-0]
     534:	02050029 	andeq	r0, r5, #41, 0	; 0x29
     538:	000082fc 	strdeq	r8, [r0], -ip
     53c:	0100f603 	tsteq	r0, r3, lsl #12	; <UNPREDICTABLE>
     540:	13130205 	tstne	r3, #1342177280	; 0x50000000
     544:	060e0513 			; <UNDEFINED> instruction: 0x060e0513
     548:	02052e01 	andeq	r2, r5, #1, 28
     54c:	0e052f06 	cdpeq	15, 0, cr2, cr5, cr6, {0}
     550:	02050106 	andeq	r0, r5, #-2147483647	; 0x80000001
     554:	01052f06 	tsteq	r5, r6, lsl #30
     558:	29051306 	stmdbcs	r5, {r1, r2, r8, r9, ip}
     55c:	2e370306 	cdpcs	3, 3, cr0, cr7, cr6, {0}
     560:	13130205 	tstne	r3, #1342177280	; 0x50000000
     564:	13060105 	movwne	r0, #24837	; 0x6105
     568:	061c052e 	ldreq	r0, [ip], -lr, lsr #10
     56c:	4a00dd03 	bmi	37980 <__bss_end__+0x2d728>
     570:	014c0205 	cmpeq	ip, r5, lsl #4
     574:	04040200 	streq	r0, [r4], #-512	; 0xfffffe00
     578:	04020001 	streq	r0, [r2], #-1
     57c:	02000104 	andeq	r0, r0, #1
     580:	00820504 	addeq	r0, r2, r4, lsl #10
     584:	82020402 	andhi	r0, r2, #33554432	; 0x2000000
     588:	02040200 	andeq	r0, r4, #0, 4
     58c:	04020001 	streq	r0, [r2], #-1
     590:	02008203 	andeq	r8, r0, #805306368	; 0x30000000
     594:	00010304 	andeq	r0, r1, r4, lsl #6
     598:	9e030402 	cdpls	4, 0, cr0, cr3, cr2, {0}
     59c:	01040200 	mrseq	r0, R12_usr
     5a0:	0402002e 	streq	r0, [r2], #-46	; 0xffffffd2
     5a4:	02000101 	andeq	r0, r0, #1073741824	; 0x40000000
     5a8:	009e0104 	addseq	r0, lr, r4, lsl #2
     5ac:	2e060402 	cdpcs	4, 0, cr0, cr6, cr2, {0}
     5b0:	06040200 	streq	r0, [r4], -r0, lsl #4
     5b4:	04020015 	streq	r0, [r2], #-21	; 0xffffffeb
     5b8:	02000106 	andeq	r0, r0, #-2147483647	; 0x80000001
     5bc:	00820204 	addeq	r0, r2, r4, lsl #4
     5c0:	01020402 	tsteq	r2, r2, lsl #8
     5c4:	02040200 	andeq	r0, r4, #0, 4
     5c8:	04020014 	streq	r0, [r2], #-20	; 0xffffffec
     5cc:	02000102 	andeq	r0, r0, #-2147483648	; 0x80000000
     5d0:	00820204 	addeq	r0, r2, r4, lsl #4
     5d4:	01020402 	tsteq	r2, r2, lsl #8
     5d8:	02040200 	andeq	r0, r4, #0, 4
     5dc:	00010514 	andeq	r0, r1, r4, lsl r5
     5e0:	06020402 	streq	r0, [r2], -r2, lsl #8
     5e4:	0002052f 	andeq	r0, r2, pc, lsr #10
     5e8:	06010402 	streq	r0, [r1], -r2, lsl #8
     5ec:	04020045 	streq	r0, [r2], #-69	; 0xffffffbb
     5f0:	02000101 	andeq	r0, r0, #1073741824	; 0x40000000
     5f4:	00d60104 	sbcseq	r0, r6, r4, lsl #2
     5f8:	30010402 	andcc	r0, r1, r2, lsl #8
     5fc:	01040200 	mrseq	r0, R12_usr
     600:	04020001 	streq	r0, [r2], #-1
     604:	3205d601 	andcc	sp, r5, #1048576	; 0x100000
     608:	087f9d03 	ldmdaeq	pc!, {r0, r1, r8, sl, fp, ip, pc}^	; <UNPREDICTABLE>
     60c:	05010674 	streq	r0, [r1, #-1652]	; 0xfffff98c
     610:	052f0602 	streq	r0, [pc, #-1538]!	; 16 <__code_start__-0x7fea>
     614:	01010111 	tsteq	r1, r1, lsl r1
     618:	01010101 	tsteq	r1, r1, lsl #2
     61c:	0609052e 	streq	r0, [r9], -lr, lsr #10
     620:	2f010501 	svccs	0x00010501
     624:	03062005 	movweq	r2, #24581	; 0x6005
     628:	02052e2d 	andeq	r2, r5, #720	; 0x2d0
     62c:	0611052f 	ldreq	r0, [r1], -pc, lsr #10
     630:	06030501 	streq	r0, [r3], -r1, lsl #10
     634:	05131667 	ldreq	r1, [r3, #-1639]	; 0xfffff999
     638:	01011302 	tsteq	r1, r2, lsl #6
     63c:	01010101 	tsteq	r1, r1, lsl #2
     640:	01050101 	tsteq	r5, r1, lsl #2
     644:	32058306 	andcc	r8, r5, #402653184	; 0x18000000
     648:	7f8e0306 	svcvc	0x008e0306
     64c:	0501064a 	streq	r0, [r1, #-1610]	; 0xfffff9b6
     650:	052f0602 	streq	r0, [pc, #-1538]!	; 56 <__code_start__-0x7faa>
     654:	01010111 	tsteq	r1, r1, lsl r1
     658:	01010101 	tsteq	r1, r1, lsl #2
     65c:	0609052e 	streq	r0, [r9], -lr, lsr #10
     660:	2f010501 	svccs	0x00010501
     664:	03064405 	movweq	r4, #25605	; 0x6405
     668:	062e00f2 			; <UNDEFINED> instruction: 0x062e00f2
     66c:	06050501 	streq	r0, [r5], -r1, lsl #10
     670:	3102059f 			; <UNDEFINED> instruction: 0x3102059f
     674:	04020001 	streq	r0, [r2], #-1
     678:	02000104 	andeq	r0, r0, #1
     67c:	00010404 	andeq	r0, r1, r4, lsl #8
     680:	82050402 	andhi	r0, r5, #33554432	; 0x2000000
     684:	02040200 	andeq	r0, r4, #0, 4
     688:	04020082 	streq	r0, [r2], #-130	; 0xffffff7e
     68c:	02000102 	andeq	r0, r0, #-2147483648	; 0x80000000
     690:	00820304 	addeq	r0, r2, r4, lsl #6
     694:	01030402 	tsteq	r3, r2, lsl #8
     698:	03040200 	movweq	r0, #16896	; 0x4200
     69c:	0402009e 	streq	r0, [r2], #-158	; 0xffffff62
     6a0:	02002e01 	andeq	r2, r0, #1, 28
     6a4:	00010104 	andeq	r0, r1, r4, lsl #2
     6a8:	9e010402 	cdpls	4, 0, cr0, cr1, cr2, {0}
     6ac:	06040200 	streq	r0, [r4], -r0, lsl #4
     6b0:	0402002e 	streq	r0, [r2], #-46	; 0xffffffd2
     6b4:	02001506 	andeq	r1, r0, #25165824	; 0x1800000
     6b8:	00010604 	andeq	r0, r1, r4, lsl #12
     6bc:	82020402 	andhi	r0, r2, #33554432	; 0x2000000
     6c0:	02040200 	andeq	r0, r4, #0, 4
     6c4:	04020001 	streq	r0, [r2], #-1
     6c8:	02001402 	andeq	r1, r0, #33554432	; 0x2000000
     6cc:	00310204 	eorseq	r0, r1, r4, lsl #4
     6d0:	01020402 	tsteq	r2, r2, lsl #8
     6d4:	02040200 	andeq	r0, r4, #0, 4
     6d8:	0402004a 	streq	r0, [r2], #-74	; 0xffffffb6
     6dc:	02000102 	andeq	r0, r0, #-2147483648	; 0x80000000
     6e0:	00130204 	andseq	r0, r3, r4, lsl #4
     6e4:	69020402 	stmdbvs	r2, {r1, sl}
     6e8:	02040200 	andeq	r0, r4, #0, 4
     6ec:	04020001 	streq	r0, [r2], #-1
     6f0:	02004a02 	andeq	r4, r0, #8192	; 0x2000
     6f4:	00010204 	andeq	r0, r1, r4, lsl #4
     6f8:	13020402 	movwne	r0, #9218	; 0x2402
     6fc:	02040200 	andeq	r0, r4, #0, 4
     700:	00110568 	andseq	r0, r1, r8, ror #10
     704:	06020402 	streq	r0, [r2], -r2, lsl #8
     708:	04020001 	streq	r0, [r2], #-1
     70c:	03052e02 	movweq	r2, #24066	; 0x5e02
     710:	02040200 	andeq	r0, r4, #0, 4
     714:	02004b06 	andeq	r4, r0, #6144	; 0x1800
     718:	05130204 	ldreq	r0, [r3, #-516]	; 0xfffffdfc
     71c:	04020008 	streq	r0, [r2], #-8
     720:	05010602 	streq	r0, [r1, #-1538]	; 0xfffff9fe
     724:	04020003 	streq	r0, [r2], #-3
     728:	052f0602 	streq	r0, [pc, #-1538]!	; 12e <__code_start__-0x7ed2>
     72c:	0402000a 	streq	r0, [r2], #-10
     730:	00010602 	andeq	r0, r1, r2, lsl #12
     734:	2e020402 	cdpcs	4, 0, cr0, cr2, cr2, {0}
     738:	02000205 	andeq	r0, r0, #1342177280	; 0x50000000
     73c:	2f060204 	svccs	0x00060204
     740:	02040200 	andeq	r0, r4, #0, 4
     744:	04020001 	streq	r0, [r2], #-1
     748:	02000102 	andeq	r0, r0, #-2147483648	; 0x80000000
     74c:	00010204 	andeq	r0, r1, r4, lsl #4
     750:	01020402 	tsteq	r2, r2, lsl #8
     754:	02040200 	andeq	r0, r4, #0, 4
     758:	04020001 	streq	r0, [r2], #-1
     75c:	02000102 	andeq	r0, r0, #-2147483648	; 0x80000000
     760:	00010204 	andeq	r0, r1, r4, lsl #4
     764:	01020402 	tsteq	r2, r2, lsl #8
     768:	02040200 	andeq	r0, r4, #0, 4
     76c:	0402006e 	streq	r0, [r2], #-110	; 0xffffff92
     770:	02000102 	andeq	r0, r0, #-2147483648	; 0x80000000
     774:	00010404 	andeq	r0, r1, r4, lsl #8
     778:	01040402 	tsteq	r4, r2, lsl #8
     77c:	05040200 	streq	r0, [r4, #-512]	; 0xfffffe00
     780:	04020082 	streq	r0, [r2], #-130	; 0xffffff7e
     784:	02008202 	andeq	r8, r0, #536870912	; 0x20000000
     788:	00010204 	andeq	r0, r1, r4, lsl #4
     78c:	82030402 	andhi	r0, r3, #33554432	; 0x2000000
     790:	03040200 	movweq	r0, #16896	; 0x4200
     794:	04020001 	streq	r0, [r2], #-1
     798:	02009e03 	andeq	r9, r0, #3, 28	; 0x30
     79c:	68030104 	stmdavs	r3, {r2, r8}
     7a0:	0402002e 	streq	r0, [r2], #-46	; 0xffffffd2
     7a4:	02000101 	andeq	r0, r0, #1073741824	; 0x40000000
     7a8:	00d60104 	sbcseq	r0, r6, r4, lsl #2
     7ac:	33010402 	movwcc	r0, #5122	; 0x1402
     7b0:	01040200 	mrseq	r0, R12_usr
     7b4:	04020001 	streq	r0, [r2], #-1
     7b8:	0200d601 	andeq	sp, r0, #1048576	; 0x100000
     7bc:	00320104 	eorseq	r0, r2, r4, lsl #2
     7c0:	01010402 	tsteq	r1, r2, lsl #8
     7c4:	01040200 	mrseq	r0, R12_usr
     7c8:	040200d6 	streq	r0, [r2], #-214	; 0xffffff2a
     7cc:	2e0f0301 	cdpcs	3, 0, cr0, cr15, cr1, {0}
     7d0:	01040200 	mrseq	r0, R12_usr
     7d4:	04020001 	streq	r0, [r2], #-1
     7d8:	01059e01 	tsteq	r5, r1, lsl #28
     7dc:	054a2f06 	strbeq	r2, [sl, #-3846]	; 0xfffff0fa
     7e0:	0500063f 	streq	r0, [r0, #-1599]	; 0xfffff9c1
     7e4:	00863402 	addeq	r3, r6, r2, lsl #8
     7e8:	010f0300 	mrseq	r0, SP_hyp
     7ec:	02050106 	andeq	r0, r5, #-2147483647	; 0x80000001
     7f0:	2e066706 	cdpcs	7, 0, cr6, cr6, cr6, {0}
     7f4:	0530062e 	ldreq	r0, [r0, #-1582]!	; 0xfffff9d2
     7f8:	0f050106 	svceq	0x00050106
     7fc:	02050106 	andeq	r0, r5, #-2147483647	; 0x80000001
     800:	0003052e 	andeq	r0, r3, lr, lsr #10
     804:	06010402 	streq	r0, [r1], -r2, lsl #8
     808:	04020030 	streq	r0, [r2], #-48	; 0xffffffd0
     80c:	02000101 	andeq	r0, r0, #1073741824	; 0x40000000
     810:	4a060104 	bmi	180c28 <__bss_end__+0x1769d0>
     814:	01040200 	mrseq	r0, R12_usr
     818:	02006606 	andeq	r6, r0, #6291456	; 0x600000
     81c:	002e0604 	eoreq	r0, lr, r4, lsl #12
     820:	15060402 	strne	r0, [r6, #-1026]	; 0xfffffbfe
     824:	02001305 	andeq	r1, r0, #335544320	; 0x14000000
     828:	01060604 	tsteq	r6, r4, lsl #12
     82c:	02000d05 	andeq	r0, r0, #320	; 0x140
     830:	052e0604 	streq	r0, [lr, #-1540]!	; 0xfffff9fc
     834:	04020022 	streq	r0, [r2], #-34	; 0xffffffde
     838:	05450606 	strbeq	r0, [r5, #-1542]	; 0xfffff9fa
     83c:	04020023 	streq	r0, [r2], #-35	; 0xffffffdd
     840:	05010606 	streq	r0, [r1, #-1542]	; 0xfffff9fa
     844:	04020016 	streq	r0, [r2], #-22	; 0xffffffea
     848:	052e0602 	streq	r0, [lr, #-1538]!	; 0xfffff9fe
     84c:	04020002 	streq	r0, [r2], #-2
     850:	05010602 	streq	r0, [r1, #-1538]	; 0xfffff9fe
     854:	04020003 	streq	r0, [r2], #-3
     858:	004c0604 	subeq	r0, ip, r4, lsl #12
     85c:	01040402 	tsteq	r4, r2, lsl #8
     860:	05040200 	streq	r0, [r4, #-512]	; 0xfffffe00
     864:	04020082 	streq	r0, [r2], #-130	; 0xffffff7e
     868:	02008202 	andeq	r8, r0, #536870912	; 0x20000000
     86c:	00010204 	andeq	r0, r1, r4, lsl #4
     870:	82030402 	andhi	r0, r3, #33554432	; 0x2000000
     874:	03040200 	movweq	r0, #16896	; 0x4200
     878:	04020001 	streq	r0, [r2], #-1
     87c:	004a0603 	subeq	r0, sl, r3, lsl #12
     880:	06030402 	streq	r0, [r3], -r2, lsl #8
     884:	04020066 	streq	r0, [r2], #-102	; 0xffffff9a
     888:	052e0603 	streq	r0, [lr, #-1539]!	; 0xfffff9fd
     88c:	2f180602 	svccs	0x00180602
     890:	13060105 	movwne	r0, #24837	; 0x6105
     894:	f5063e05 			; <UNDEFINED> instruction: 0xf5063e05
     898:	02050106 	andeq	r0, r5, #-2147483647	; 0x80000001
     89c:	2e066706 	cdpcs	7, 0, cr6, cr6, cr6, {0}
     8a0:	0531062e 	ldreq	r0, [r1, #-1582]!	; 0xfffff9d2
     8a4:	0f050106 	svceq	0x00050106
     8a8:	02050106 	andeq	r0, r5, #-2147483647	; 0x80000001
     8ac:	0003052e 	andeq	r0, r3, lr, lsr #10
     8b0:	06010402 	streq	r0, [r1], -r2, lsl #8
     8b4:	04020030 	streq	r0, [r2], #-48	; 0xffffffd0
     8b8:	02000101 	andeq	r0, r0, #1073741824	; 0x40000000
     8bc:	4a060104 	bmi	180cd4 <__bss_end__+0x176a7c>
     8c0:	01040200 	mrseq	r0, R12_usr
     8c4:	02006606 	andeq	r6, r0, #6291456	; 0x600000
     8c8:	002e0604 	eoreq	r0, lr, r4, lsl #12
     8cc:	15060402 	strne	r0, [r6, #-1026]	; 0xfffffbfe
     8d0:	02001005 	andeq	r1, r0, #5, 0
     8d4:	01060604 	tsteq	r6, r4, lsl #12
     8d8:	02000b05 	andeq	r0, r0, #5120	; 0x1400
     8dc:	054a0604 	strbeq	r0, [sl, #-1540]	; 0xfffff9fc
     8e0:	04020022 	streq	r0, [r2], #-34	; 0xffffffde
     8e4:	05290606 	streq	r0, [r9, #-1542]!	; 0xfffff9fa
     8e8:	04020023 	streq	r0, [r2], #-35	; 0xffffffdd
     8ec:	05010606 	streq	r0, [r1, #-1542]	; 0xfffff9fa
     8f0:	04020016 	streq	r0, [r2], #-22	; 0xffffffea
     8f4:	052e0602 	streq	r0, [lr, #-1538]!	; 0xfffff9fe
     8f8:	04020002 	streq	r0, [r2], #-2
     8fc:	05010602 	streq	r0, [r1, #-1538]	; 0xfffff9fe
     900:	04020003 	streq	r0, [r2], #-3
     904:	004c0604 	subeq	r0, ip, r4, lsl #12
     908:	01040402 	tsteq	r4, r2, lsl #8
     90c:	05040200 	streq	r0, [r4, #-512]	; 0xfffffe00
     910:	04020082 	streq	r0, [r2], #-130	; 0xffffff7e
     914:	02008202 	andeq	r8, r0, #536870912	; 0x20000000
     918:	00010204 	andeq	r0, r1, r4, lsl #4
     91c:	82030402 	andhi	r0, r3, #33554432	; 0x2000000
     920:	03040200 	movweq	r0, #16896	; 0x4200
     924:	04020001 	streq	r0, [r2], #-1
     928:	004a0603 	subeq	r0, sl, r3, lsl #12
     92c:	06030402 	streq	r0, [r3], -r2, lsl #8
     930:	04020066 	streq	r0, [r2], #-102	; 0xffffff9a
     934:	052e0603 	streq	r0, [lr, #-1539]!	; 0xfffff9fd
     938:	2f180602 	svccs	0x00180602
     93c:	13060105 	movwne	r0, #24837	; 0x6105
     940:	f7061e05 			; <UNDEFINED> instruction: 0xf7061e05
     944:	05130205 	ldreq	r0, [r3, #-517]	; 0xfffffdfb
     948:	05130601 	ldreq	r0, [r3, #-1537]	; 0xfffff9ff
     94c:	0b030615 	bleq	c21a8 <__bss_end__+0xb7f50>
     950:	4b020582 	blmi	81f60 <__bss_end__+0x77d08>
     954:	32030515 	andcc	r0, r3, #88080384	; 0x5400000
     958:	05671313 	strbeq	r1, [r7, #-787]!	; 0xfffffced
     95c:	03056902 	movweq	r6, #22786	; 0x5902
     960:	01120532 	tsteq	r2, r2, lsr r5
     964:	01010101 	tsteq	r1, r1, lsl #2
     968:	05010101 	streq	r0, [r1, #-257]	; 0xfffffeff
     96c:	2e131303 	cdpcs	3, 1, cr1, cr3, cr3, {0}
     970:	01010101 	tsteq	r1, r1, lsl #2
     974:	05010101 	streq	r0, [r1, #-257]	; 0xfffffeff
     978:	03056902 	movweq	r6, #22786	; 0x5902
     97c:	31020530 	tstcc	r2, r0, lsr r5
     980:	0200012f 	andeq	r0, r0, #-1073741813	; 0xc000000b
     984:	00660204 	rsbeq	r0, r6, r4, lsl #4
     988:	01020402 	tsteq	r2, r2, lsl #8
     98c:	02040200 	andeq	r0, r4, #0, 4
     990:	00100514 	andseq	r0, r0, r4, lsl r5
     994:	06020402 	streq	r0, [r2], -r2, lsl #8
     998:	00010501 	andeq	r0, r1, r1, lsl #10
     99c:	67020402 	strvs	r0, [r2, -r2, lsl #8]
     9a0:	02000205 	andeq	r0, r0, #1342177280	; 0x50000000
     9a4:	47060104 	strmi	r0, [r6, -r4, lsl #2]
     9a8:	01040200 	mrseq	r0, R12_usr
     9ac:	04020001 	streq	r0, [r2], #-1
     9b0:	1a05d601 	bne	1761bc <__bss_end__+0x16bf64>
     9b4:	05f25903 	ldrbeq	r5, [r2, #2307]!	; 0x903
     9b8:	05052f02 	streq	r2, [r5, #-3842]	; 0xfffff0fe
     9bc:	04050106 	streq	r0, [r5], #-262	; 0xfffffefa
     9c0:	0602052e 	streq	r0, [r2], -lr, lsr #10
     9c4:	0601054c 	streq	r0, [r1], -ip, asr #10
     9c8:	0002022f 	andeq	r0, r2, pc, lsr #4
     9cc:	02890101 	addeq	r0, r9, #1073741824	; 0x40000000
     9d0:	00030000 	andeq	r0, r3, r0
     9d4:	000000c9 	andeq	r0, r0, r9, asr #1
     9d8:	0efb0102 	cdpeq	1, 15, cr0, cr11, cr2, {0}
     9dc:	0101000d 	tsteq	r1, sp
     9e0:	00000101 	andeq	r0, r0, r1, lsl #2
     9e4:	00000100 	andeq	r0, r0, r0, lsl #2
     9e8:	732f2e01 			; <UNDEFINED> instruction: 0x732f2e01
     9ec:	2f006372 	svccs	0x00006372
     9f0:	72657355 	rsbvc	r7, r5, #1409286145	; 0x54000001
     9f4:	696d2f73 	stmdbvs	sp!, {r0, r1, r4, r5, r6, r8, r9, sl, fp, sp}^
     9f8:	2f73656c 	svccs	0x0073656c
     9fc:	72756f53 	rsbsvc	r6, r5, #332	; 0x14c
     a00:	632f6563 			; <UNDEFINED> instruction: 0x632f6563
     a04:	30343273 	eorscc	r3, r4, r3, ror r2
     a08:	6c2f786c 	stcvs	8, cr7, [pc], #-432	; 860 <__code_start__-0x77a0>
     a0c:	69706269 	ldmdbvs	r0!, {r0, r3, r5, r6, r9, sp, lr}^
     a10:	636e692f 	cmnvs	lr, #770048	; 0xbc000
     a14:	6564756c 	strbvs	r7, [r4, #-1388]!	; 0xfffffa94
     a18:	706f2f00 	rsbvc	r2, pc, r0, lsl #30
     a1c:	6f682f74 	svcvs	0x00682f74
     a20:	7262656d 	rsbvc	r6, r2, #457179136	; 0x1b400000
     a24:	432f7765 			; <UNDEFINED> instruction: 0x432f7765
     a28:	616c6c65 	cmnvs	ip, r5, ror #24
     a2c:	72612f72 	rsbvc	r2, r1, #456	; 0x1c8
     a30:	6f6e2d6d 	svcvs	0x006e2d6d
     a34:	652d656e 	strvs	r6, [sp, #-1390]!	; 0xfffffa92
     a38:	2d696261 	sfmcs	f6, 2, [r9, #-388]!	; 0xfffffe7c
     a3c:	2d392f39 	ldccs	15, cr2, [r9, #-228]!	; 0xffffff1c
     a40:	39313032 	ldmdbcc	r1!, {r1, r4, r5, ip, sp}
     a44:	632d3471 			; <UNDEFINED> instruction: 0x632d3471
     a48:	37303173 			; <UNDEFINED> instruction: 0x37303173
     a4c:	696c2f65 	stmdbvs	ip!, {r0, r2, r5, r6, r8, r9, sl, fp, sp}^
     a50:	63672f62 	cmnvs	r7, #392	; 0x188
     a54:	72612f63 	rsbvc	r2, r1, #396	; 0x18c
     a58:	6f6e2d6d 	svcvs	0x006e2d6d
     a5c:	652d656e 	strvs	r6, [sp, #-1390]!	; 0xfffffa92
     a60:	2f696261 	svccs	0x00696261
     a64:	2e322e39 	mrccs	14, 1, r2, cr2, cr9, {1}
     a68:	6e692f31 	mcrvs	15, 3, r2, cr9, cr1, {1}
     a6c:	64756c63 	ldrbtvs	r6, [r5], #-3171	; 0xfffff39d
     a70:	67000065 	strvs	r0, [r0, -r5, rrx]
     a74:	2e6f6970 			; <UNDEFINED> instruction: 0x2e6f6970
     a78:	00010063 	andeq	r0, r1, r3, rrx
     a7c:	69707200 	ldmdbvs	r0!, {r9, ip, sp, lr}^
     a80:	0200682e 	andeq	r6, r0, #3014656	; 0x2e0000
     a84:	74730000 	ldrbtvc	r0, [r3], #-0
     a88:	746e6964 	strbtvc	r6, [lr], #-2404	; 0xfffff69c
     a8c:	6363672d 	cmnvs	r3, #11796480	; 0xb40000
     a90:	0300682e 	movweq	r6, #2094	; 0x82e
     a94:	70670000 	rsbvc	r0, r7, r0
     a98:	682e6f69 	stmdavs	lr!, {r0, r3, r5, r6, r8, r9, sl, fp, sp, lr}
     a9c:	00000200 	andeq	r0, r0, r0, lsl #4
     aa0:	00380500 	eorseq	r0, r8, r0, lsl #10
     aa4:	88740205 	ldmdahi	r4!, {r0, r2, r9}^
     aa8:	27030000 	strcs	r0, [r3, -r0]
     aac:	13050501 	movwne	r0, #21761	; 0x5501
     ab0:	01060705 	tsteq	r6, r5, lsl #14
     ab4:	49060605 	stmdbmi	r6, {r0, r2, r9, sl}
     ab8:	05150505 	ldreq	r0, [r5, #-1285]	; 0xfffffafb
     abc:	05010607 	streq	r0, [r1, #-1543]	; 0xfffff9f9
     ac0:	07052b38 	smladxeq	r5, r8, fp, r2
     ac4:	0605054d 	streq	r0, [r5], -sp, asr #10
     ac8:	06180530 			; <UNDEFINED> instruction: 0x06180530
     acc:	671c0501 	ldrvs	r0, [ip, -r1, lsl #10]
     ad0:	054a0e05 	strbeq	r0, [sl, #-3589]	; 0xfffff1fb
     ad4:	12052d18 	andne	r2, r5, #24, 26	; 0x600
     ad8:	052f2e4d 	streq	r2, [pc, #-3661]!	; fffffc93 <__bss_end__+0xffff5a3b>
     adc:	05052a0e 	streq	r2, [r5, #-2574]	; 0xfffff5f2
     ae0:	13142f06 	tstne	r4, #6, 30
     ae4:	01060705 	tsteq	r6, r5, lsl #14
     ae8:	2f060505 	svccs	0x00060505
     aec:	2e2e0613 	mcrcs	6, 1, r0, cr14, cr3, {0}
     af0:	05130105 	ldreq	r0, [r3, #-261]	; 0xfffffefb
     af4:	052e2d05 	streq	r2, [lr, #-3333]!	; 0xfffff2fb
     af8:	05000624 	streq	r0, [r0, #-1572]	; 0xfffff9dc
     afc:	0088d402 	addeq	sp, r8, r2, lsl #8
     b00:	05051500 	streq	r1, [r5, #-1280]	; 0xfffffb00
     b04:	03060513 	movweq	r0, #25875	; 0x6513
     b08:	05050171 	streq	r0, [r5, #-369]	; 0xfffffe8f
     b0c:	06070513 			; <UNDEFINED> instruction: 0x06070513
     b10:	06060501 	streq	r0, [r6], -r1, lsl #10
     b14:	15050549 	strne	r0, [r5, #-1353]	; 0xfffffab7
     b18:	06240514 			; <UNDEFINED> instruction: 0x06240514
     b1c:	05010903 	streq	r0, [r1, #-2307]	; 0xfffff6fd
     b20:	2e770318 	mrccs	3, 3, r0, cr7, cr8, {0}
     b24:	05671c05 	strbeq	r1, [r7, #-3077]!	; 0xfffff3fb
     b28:	18054a0e 	stmdane	r5, {r1, r2, r3, r9, fp, lr}
     b2c:	4d12052d 	cfldr32mi	mvfx0, [r2, #-180]	; 0xffffff4c
     b30:	0f052f2e 	svceq	0x00052f2e
     b34:	290e052f 	stmdbcs	lr, {r0, r1, r2, r3, r5, r8, sl}
     b38:	2f060505 	svccs	0x00060505
     b3c:	07051314 	smladeq	r5, r4, r3, r1
     b40:	05050106 	streq	r0, [r5, #-262]	; 0xfffffefa
     b44:	06132f06 	ldreq	r2, [r3], -r6, lsl #30
     b48:	3301052e 	movwcc	r0, #5422	; 0x152e
     b4c:	2e290505 	cfsh64cs	mvdx0, mvdx9, #5
     b50:	00062705 	andeq	r2, r6, r5, lsl #14
     b54:	892c0205 	stmdbhi	ip!, {r0, r2, r9}
     b58:	051a0000 	ldreq	r0, [sl, #-0]
     b5c:	27051305 	strcs	r1, [r5, -r5, lsl #6]
     b60:	18051106 	stmdane	r5, {r1, r2, r8, ip}
     b64:	2e05052f 	cfsh32cs	mvfx0, mvfx5, #31
     b68:	28054a2e 	stmdacs	r5, {r1, r2, r3, r5, r9, fp, lr}
     b6c:	02050006 	andeq	r0, r5, #6, 0
     b70:	00008944 	andeq	r8, r0, r4, asr #18
     b74:	13050516 	movwne	r0, #21782	; 0x5516
     b78:	11062805 	tstne	r6, r5, lsl #16
     b7c:	052f1805 	streq	r1, [pc, #-2053]!	; 37f <__code_start__-0x7c81>
     b80:	4a2e2e05 	bmi	b8c39c <__bss_end__+0xb82144>
     b84:	00062305 	andeq	r2, r6, r5, lsl #6
     b88:	895c0205 	ldmdbhi	ip, {r0, r2, r9}^
     b8c:	05160000 	ldreq	r0, [r6, #-0]
     b90:	06051305 	streq	r1, [r5], -r5, lsl #6
     b94:	05016203 	streq	r6, [r1, #-515]	; 0xfffffdfd
     b98:	07051305 	streq	r1, [r5, -r5, lsl #6]
     b9c:	06050106 	streq	r0, [r5], -r6, lsl #2
     ba0:	05054906 	streq	r4, [r5, #-2310]	; 0xfffff6fa
     ba4:	05131415 	ldreq	r1, [r3, #-1045]	; 0xfffffbeb
     ba8:	17030623 	strne	r0, [r3, -r3, lsr #12]
     bac:	03220501 			; <UNDEFINED> instruction: 0x03220501
     bb0:	1c052e69 	stcne	14, cr2, [r5], {105}	; 0x69
     bb4:	0e052e82 	cdpeq	14, 0, cr2, cr5, cr2, {4}
     bb8:	0605052e 	streq	r0, [r5], -lr, lsr #10
     bbc:	06120530 			; <UNDEFINED> instruction: 0x06120530
     bc0:	052d4b01 	streq	r4, [sp, #-2817]!	; 0xfffff4ff
     bc4:	132f0605 			; <UNDEFINED> instruction: 0x132f0605
     bc8:	06180513 			; <UNDEFINED> instruction: 0x06180513
     bcc:	05017a03 	streq	r7, [r1, #-2563]	; 0xfffff5fd
     bd0:	05054a0e 	streq	r4, [r5, #-2574]	; 0xfffff5f2
     bd4:	01052e34 	tsteq	r5, r4, lsr lr
     bd8:	052e1403 	streq	r1, [lr, #-1027]!	; 0xfffffbfd
     bdc:	2e6c0305 	cdpcs	3, 6, cr0, cr12, cr5, {0}
     be0:	062b052e 	strteq	r0, [fp], -lr, lsr #10
     be4:	b4020500 	strlt	r0, [r2], #-1280	; 0xfffffb00
     be8:	03000089 	movweq	r0, #137	; 0x89
     bec:	05050117 	streq	r0, [r5, #-279]	; 0xfffffee9
     bf0:	06070513 			; <UNDEFINED> instruction: 0x06070513
     bf4:	03180501 	tsteq	r8, #4194304	; 0x400000
     bf8:	2b052e71 	blcs	14c5c4 <__bss_end__+0x14236c>
     bfc:	052e0e03 	streq	r0, [lr, #-3587]!	; 0xfffff1fd
     c00:	09052f07 	stmdbeq	r5, {r0, r1, r2, r8, r9, sl, fp, sp}
     c04:	0d052f06 	stceq	15, cr2, [r5, #-24]	; 0xffffffe8
     c08:	05016f03 	streq	r6, [r1, #-3843]	; 0xfffff0fd
     c0c:	2e061305 	cdpcs	3, 0, cr1, cr6, cr5, {0}
     c10:	09052e2e 	stmdbeq	r5, {r1, r2, r3, r5, r9, sl, fp, sp}
     c14:	01120306 	tsteq	r2, r6, lsl #6
     c18:	72030d05 	andvc	r0, r3, #320	; 0x140
     c1c:	13050501 	movwne	r0, #21761	; 0x5501
     c20:	052e2e06 	streq	r2, [lr, #-3590]!	; 0xfffff1fa
     c24:	1003061d 	andne	r0, r3, sp, lsl r6
     c28:	13050566 	movwne	r0, #21862	; 0x5566
     c2c:	11061d05 	tstne	r6, r5, lsl #26
     c30:	0605052e 	streq	r0, [r5], -lr, lsr #10
     c34:	0e051330 	mcreq	3, 0, r1, cr5, cr0, {1}
     c38:	17051006 	strne	r1, [r5, -r6]
     c3c:	02042e30 	andeq	r2, r4, #48, 28	; 0x300
     c40:	03063005 	movweq	r3, #24581	; 0x6005
     c44:	042e00e2 	strteq	r0, [lr], #-226	; 0xffffff1e
     c48:	060e0501 	streq	r0, [lr], -r1, lsl #10
     c4c:	017f9d03 	cmneq	pc, r3, lsl #26
     c50:	052f2305 	streq	r2, [pc, #-773]!	; 953 <__code_start__-0x76ad>
     c54:	06022f01 	streq	r2, [r2], -r1, lsl #30
     c58:	20010100 	andcs	r0, r1, r0, lsl #2
     c5c:	03000001 	movweq	r0, #1
     c60:	0000db00 	andeq	sp, r0, r0, lsl #22
     c64:	fb010200 	blx	4146e <__bss_end__+0x37216>
     c68:	01000d0e 	tsteq	r0, lr, lsl #26
     c6c:	00010101 	andeq	r0, r1, r1, lsl #2
     c70:	00010000 	andeq	r0, r1, r0
     c74:	2f2e0100 	svccs	0x002e0100
     c78:	6362696c 	cmnvs	r2, #108, 18	; 0x1b0000
     c7c:	706f2f00 	rsbvc	r2, pc, r0, lsl #30
     c80:	6f682f74 	svcvs	0x00682f74
     c84:	7262656d 	rsbvc	r6, r2, #457179136	; 0x1b400000
     c88:	432f7765 			; <UNDEFINED> instruction: 0x432f7765
     c8c:	616c6c65 	cmnvs	ip, r5, ror #24
     c90:	72612f72 	rsbvc	r2, r1, #456	; 0x1c8
     c94:	6f6e2d6d 	svcvs	0x006e2d6d
     c98:	652d656e 	strvs	r6, [sp, #-1390]!	; 0xfffffa92
     c9c:	2d696261 	sfmcs	f6, 2, [r9, #-388]!	; 0xfffffe7c
     ca0:	2d392f39 	ldccs	15, cr2, [r9, #-228]!	; 0xffffff1c
     ca4:	39313032 	ldmdbcc	r1!, {r1, r4, r5, ip, sp}
     ca8:	632d3471 			; <UNDEFINED> instruction: 0x632d3471
     cac:	37303173 			; <UNDEFINED> instruction: 0x37303173
     cb0:	696c2f65 	stmdbvs	ip!, {r0, r2, r5, r6, r8, r9, sl, fp, sp}^
     cb4:	63672f62 	cmnvs	r7, #392	; 0x188
     cb8:	72612f63 	rsbvc	r2, r1, #396	; 0x18c
     cbc:	6f6e2d6d 	svcvs	0x006e2d6d
     cc0:	652d656e 	strvs	r6, [sp, #-1390]!	; 0xfffffa92
     cc4:	2f696261 	svccs	0x00696261
     cc8:	2e322e39 	mrccs	14, 1, r2, cr2, cr9, {1}
     ccc:	6e692f31 	mcrvs	15, 3, r2, cr9, cr1, {1}
     cd0:	64756c63 	ldrbtvs	r6, [r5], #-3171	; 0xfffff39d
     cd4:	552f0065 	strpl	r0, [pc, #-101]!	; c77 <__code_start__-0x7389>
     cd8:	73726573 	cmnvc	r2, #482344960	; 0x1cc00000
     cdc:	6c696d2f 	stclvs	13, cr6, [r9], #-188	; 0xffffff44
     ce0:	532f7365 			; <UNDEFINED> instruction: 0x532f7365
     ce4:	6372756f 	cmnvs	r2, #465567744	; 0x1bc00000
     ce8:	73632f65 	cmnvc	r3, #404	; 0x194
     cec:	6c303432 	cfldrsvs	mvf3, [r0], #-200	; 0xffffff38
     cf0:	696c2f78 	stmdbvs	ip!, {r3, r4, r5, r6, r8, r9, sl, fp, sp}^
     cf4:	2f697062 	svccs	0x00697062
     cf8:	6c636e69 	stclvs	14, cr6, [r3], #-420	; 0xfffffe5c
     cfc:	00656475 	rsbeq	r6, r5, r5, ror r4
     d00:	69727000 	ldmdbvs	r2!, {ip, sp, lr}^
     d04:	2e6b746e 	cdpcs	4, 6, cr7, cr11, cr14, {3}
     d08:	00010063 	andeq	r0, r1, r3, rrx
     d0c:	64747300 	ldrbtvs	r7, [r4], #-768	; 0xfffffd00
     d10:	2e677261 	cdpcs	2, 6, cr7, cr7, cr1, {3}
     d14:	00020068 	andeq	r0, r2, r8, rrx
     d18:	69707200 	ldmdbvs	r0!, {r9, ip, sp, lr}^
     d1c:	0300682e 	movweq	r6, #2094	; 0x82e
     d20:	623c0000 	eorsvs	r0, ip, #0, 0
     d24:	746c6975 	strbtvc	r6, [ip], #-2421	; 0xfffff68b
     d28:	3e6e692d 	vmulcc.f16	s13, s28, s27	; <UNPREDICTABLE>
     d2c:	00000000 	andeq	r0, r0, r0
     d30:	702d6176 	eorvc	r6, sp, r6, ror r1
     d34:	746e6972 	strbtvc	r6, [lr], #-2418	; 0xfffff68e
     d38:	00682e6b 	rsbeq	r2, r8, fp, ror #28
     d3c:	00000001 	andeq	r0, r0, r1
     d40:	05002205 	streq	r2, [r0, #-517]	; 0xfffffdfb
     d44:	008a0c02 	addeq	r0, sl, r2, lsl #24
     d48:	05051700 	streq	r1, [r5, #-1792]	; 0xfffff900
     d4c:	05141314 	ldreq	r1, [r4, #-788]	; 0xfffffcec
     d50:	050d0622 	streq	r0, [sp, #-1570]	; 0xfffff9de
     d54:	22055012 	andcs	r5, r5, #18, 0
     d58:	052e7a03 	streq	r7, [lr, #-2563]!	; 0xfffff5fd
     d5c:	12053305 	andne	r3, r5, #335544320	; 0x14000000
     d60:	6505052f 	strvs	r0, [r5, #-1327]	; 0xfffffad1
     d64:	2f060905 	svccs	0x00060905
     d68:	01061205 	tsteq	r6, r5, lsl #4
     d6c:	4b060505 	blmi	182188 <__bss_end__+0x177f30>
     d70:	064a0616 			; <UNDEFINED> instruction: 0x064a0616
     d74:	06010550 			; <UNDEFINED> instruction: 0x06010550
     d78:	08026613 	stmdaeq	r2, {r0, r1, r4, r9, sl, sp, lr}
     d7c:	9e010100 	adflss	f0, f1, f0
     d80:	03000000 	movweq	r0, #0
     d84:	00005a00 	andeq	r5, r0, r0, lsl #20
     d88:	fb010200 	blx	41592 <__bss_end__+0x3733a>
     d8c:	01000d0e 	tsteq	r0, lr, lsl #26
     d90:	00010101 	andeq	r0, r1, r1, lsl #2
     d94:	00010000 	andeq	r0, r1, r0
     d98:	2f2e0100 	svccs	0x002e0100
     d9c:	6362696c 	cmnvs	r2, #108, 18	; 0x1b0000
     da0:	73552f00 	cmpvc	r5, #0, 30
     da4:	2f737265 	svccs	0x00737265
     da8:	656c696d 	strbvs	r6, [ip, #-2413]!	; 0xfffff693
     dac:	6f532f73 	svcvs	0x00532f73
     db0:	65637275 	strbvs	r7, [r3, #-629]!	; 0xfffffd8b
     db4:	3273632f 	rsbscc	r6, r3, #-1140850688	; 0xbc000000
     db8:	786c3034 	stmdavc	ip!, {r2, r4, r5, ip, sp}^
     dbc:	62696c2f 	rsbvs	r6, r9, #12032	; 0x2f00
     dc0:	692f6970 	stmdbvs	pc!, {r4, r5, r6, r8, fp, sp, lr}	; <UNPREDICTABLE>
     dc4:	756c636e 	strbvc	r6, [ip, #-878]!	; 0xfffffc92
     dc8:	00006564 	andeq	r6, r0, r4, ror #10
     dcc:	63747570 	cmnvs	r4, #112, 10	; 0x1c000000
     dd0:	2e726168 	rpwcssz	f6, f2, #0.0
     dd4:	00010063 	andeq	r0, r1, r3, rrx
     dd8:	69707200 	ldmdbvs	r0!, {r9, ip, sp, lr}^
     ddc:	0200682e 	andeq	r6, r0, #3014656	; 0x2e0000
     de0:	05000000 	streq	r0, [r0, #-0]
     de4:	02050024 	andeq	r0, r5, #36, 0	; 0x24
     de8:	00008a64 	andeq	r8, r0, r4, ror #20
     dec:	01260514 			; <UNDEFINED> instruction: 0x01260514
     df0:	01062405 	tsteq	r6, r5, lsl #8
     df4:	2e26052e 	cfsh64cs	mvdx0, mvdx6, #30
     df8:	2e063405 	cdpcs	4, 0, cr3, cr6, cr5, {0}
     dfc:	01060105 	tsteq	r6, r5, lsl #2
     e00:	4f061b05 	svcmi	0x00061b05
     e04:	05130505 	ldreq	r0, [r3, #-1285]	; 0xfffffafb
     e08:	05010611 	streq	r0, [r1, #-1553]	; 0xfffff9ef
     e0c:	23056701 	movwcs	r6, #22273	; 0x5701
     e10:	05056706 	streq	r6, [r5, #-1798]	; 0xfffff8fa
     e14:	06110513 			; <UNDEFINED> instruction: 0x06110513
     e18:	4b010501 	blmi	42224 <__bss_end__+0x37fcc>
     e1c:	01000402 	tsteq	r0, r2, lsl #8
     e20:	0000a001 	andeq	sl, r0, r1
     e24:	57000300 	strpl	r0, [r0, -r0, lsl #6]
     e28:	02000000 	andeq	r0, r0, #0, 0
     e2c:	0d0efb01 	vstreq	d15, [lr, #-4]
     e30:	01010100 	mrseq	r0, (UNDEF: 17)
     e34:	00000001 	andeq	r0, r0, r1
     e38:	01000001 	tsteq	r0, r1
     e3c:	696c2f2e 	stmdbvs	ip!, {r1, r2, r3, r5, r8, r9, sl, fp, sp}^
     e40:	2f006362 	svccs	0x00006362
     e44:	72657355 	rsbvc	r7, r5, #1409286145	; 0x54000001
     e48:	696d2f73 	stmdbvs	sp!, {r0, r1, r4, r5, r6, r8, r9, sl, fp, sp}^
     e4c:	2f73656c 	svccs	0x0073656c
     e50:	72756f53 	rsbsvc	r6, r5, #332	; 0x14c
     e54:	632f6563 			; <UNDEFINED> instruction: 0x632f6563
     e58:	30343273 	eorscc	r3, r4, r3, ror r2
     e5c:	6c2f786c 	stcvs	8, cr7, [pc], #-432	; cb4 <__code_start__-0x734c>
     e60:	69706269 	ldmdbvs	r0!, {r0, r3, r5, r6, r9, sp, lr}^
     e64:	636e692f 	cmnvs	lr, #770048	; 0xbc000
     e68:	6564756c 	strbvs	r7, [r4, #-1388]!	; 0xfffffa94
     e6c:	75700000 	ldrbvc	r0, [r0, #-0]!
     e70:	632e6b74 			; <UNDEFINED> instruction: 0x632e6b74
     e74:	00000100 	andeq	r0, r0, r0, lsl #2
     e78:	2e697072 	mcrcs	0, 3, r7, cr9, cr2, {3}
     e7c:	00020068 	andeq	r0, r2, r8, rrx
     e80:	22050000 	andcs	r0, r5, #0, 0
     e84:	a0020500 	andge	r0, r2, r0, lsl #10
     e88:	1500008a 	strne	r0, [r0, #-138]	; 0xffffff76
     e8c:	05130505 	ldreq	r0, [r3, #-1285]	; 0xfffffafb
     e90:	2e110622 	cfmsub32cs	mvax1, mvfx0, mvfx1, mvfx2
     e94:	2f060b05 	svccs	0x00060b05
     e98:	2e060505 	cfsh32cs	mvfx0, mvfx6, #5
     e9c:	02000905 	andeq	r0, r0, #81920	; 0x14000
     ea0:	67060204 	strvs	r0, [r6, -r4, lsl #4]
     ea4:	02000f05 	andeq	r0, r0, #5, 30
     ea8:	05490204 	strbeq	r0, [r9, #-516]	; 0xfffffdfc
     eac:	0402000b 	streq	r0, [r2], #-11
     eb0:	05050102 	streq	r0, [r5, #-258]	; 0xfffffefe
     eb4:	02040200 	andeq	r0, r4, #0, 4
     eb8:	4e062e06 	cdpmi	14, 0, cr2, cr6, cr6, {0}
     ebc:	13060105 	movwne	r0, #24837	; 0x6105
     ec0:	01000602 	tsteq	r0, r2, lsl #12
     ec4:	0008fa01 	andeq	pc, r8, r1, lsl #20
     ec8:	f1000300 			; <UNDEFINED> instruction: 0xf1000300
     ecc:	02000000 	andeq	r0, r0, #0, 0
     ed0:	0d0efb01 	vstreq	d15, [lr, #-4]
     ed4:	01010100 	mrseq	r0, (UNDEF: 17)
     ed8:	00000001 	andeq	r0, r0, r1
     edc:	01000001 	tsteq	r0, r1
     ee0:	696c2f2e 	stmdbvs	ip!, {r1, r2, r3, r5, r8, r9, sl, fp, sp}^
     ee4:	2f006362 	svccs	0x00006362
     ee8:	2f74706f 	svccs	0x0074706f
     eec:	656d6f68 	strbvs	r6, [sp, #-3944]!	; 0xfffff098
     ef0:	77657262 	strbvc	r7, [r5, -r2, ror #4]!
     ef4:	6c65432f 	stclvs	3, cr4, [r5], #-188	; 0xffffff44
     ef8:	2f72616c 	svccs	0x0072616c
     efc:	2d6d7261 	sfmcs	f7, 2, [sp, #-388]!	; 0xfffffe7c
     f00:	656e6f6e 	strbvs	r6, [lr, #-3950]!	; 0xfffff092
     f04:	6261652d 	rsbvs	r6, r1, #188743680	; 0xb400000
     f08:	2f392d69 	svccs	0x00392d69
     f0c:	30322d39 	eorscc	r2, r2, r9, lsr sp
     f10:	34713931 	ldrbtcc	r3, [r1], #-2353	; 0xfffff6cf
     f14:	3173632d 	cmncc	r3, sp, lsr #6
     f18:	2f653730 	svccs	0x00653730
     f1c:	2f62696c 	svccs	0x0062696c
     f20:	2f636367 	svccs	0x00636367
     f24:	2d6d7261 	sfmcs	f7, 2, [sp, #-388]!	; 0xfffffe7c
     f28:	656e6f6e 	strbvs	r6, [lr, #-3950]!	; 0xfffff092
     f2c:	6261652d 	rsbvs	r6, r1, #188743680	; 0xb400000
     f30:	2e392f69 	cdpcs	15, 3, cr2, cr9, cr9, {3}
     f34:	2f312e32 	svccs	0x00312e32
     f38:	6c636e69 	stclvs	14, cr6, [r3], #-420	; 0xfffffe5c
     f3c:	00656475 	rsbeq	r6, r5, r5, ror r4
     f40:	6573552f 	ldrbvs	r5, [r3, #-1327]!	; 0xfffffad1
     f44:	6d2f7372 	stcvs	3, cr7, [pc, #-456]!	; d84 <__code_start__-0x727c>
     f48:	73656c69 	cmnvc	r5, #26880	; 0x6900
     f4c:	756f532f 	strbvc	r5, [pc, #-815]!	; c25 <__code_start__-0x73db>
     f50:	2f656372 	svccs	0x00656372
     f54:	34327363 	ldrtcc	r7, [r2], #-867	; 0xfffffc9d
     f58:	2f786c30 	svccs	0x00786c30
     f5c:	7062696c 	rsbvc	r6, r2, ip, ror #18
     f60:	6e692f69 	cdpvs	15, 6, cr2, cr9, cr9, {3}
     f64:	64756c63 	ldrbtvs	r6, [r5], #-3171	; 0xfffff39d
     f68:	76000065 	strvc	r0, [r0], -r5, rrx
     f6c:	72702d61 	rsbsvc	r2, r0, #6208	; 0x1840
     f70:	6b746e69 	blvs	1d1c91c <__bss_end__+0x1d126c4>
     f74:	0100632e 	tsteq	r0, lr, lsr #6
     f78:	74730000 	ldrbtvc	r0, [r3], #-0
     f7c:	746e6964 	strbtvc	r6, [lr], #-2404	; 0xfffff69c
     f80:	6363672d 	cmnvs	r3, #11796480	; 0xb40000
     f84:	0200682e 	andeq	r6, r0, #3014656	; 0x2e0000
     f88:	70720000 	rsbsvc	r0, r2, r0
     f8c:	00682e69 	rsbeq	r2, r8, r9, ror #28
     f90:	72000003 	andvc	r0, r0, #3, 0
     f94:	692d6970 	pushvs	{r4, r5, r6, r8, fp, sp, lr}
     f98:	7265746e 	rsbvc	r7, r5, #1845493760	; 0x6e000000
     f9c:	2e6c616e 	powcsez	f6, f4, #0.5
     fa0:	00030068 	andeq	r0, r3, r8, rrx
     fa4:	64747300 	ldrbtvs	r7, [r4], #-768	; 0xfffffd00
     fa8:	2e677261 	cdpcs	2, 6, cr7, cr7, cr1, {3}
     fac:	00020068 	andeq	r0, r2, r8, rrx
     fb0:	75623c00 	strbvc	r3, [r2, #-3072]!	; 0xfffff400
     fb4:	2d746c69 	ldclcs	12, cr6, [r4, #-420]!	; 0xfffffe5c
     fb8:	003e6e69 	eorseq	r6, lr, r9, ror #28
     fbc:	00000000 	andeq	r0, r0, r0
     fc0:	05000105 	streq	r0, [r0, #-261]	; 0xfffffefb
     fc4:	008ad802 	addeq	sp, sl, r2, lsl #16
     fc8:	00c80300 	sbceq	r0, r8, r0, lsl #6
     fcc:	14020501 	strne	r0, [r2], #-1281	; 0xfffffaff
     fd0:	10060105 	andne	r0, r6, r5, lsl #2
     fd4:	05300405 	ldreq	r0, [r0, #-1029]!	; 0xfffffbfb
     fd8:	054a2c01 	strbeq	r2, [sl, #-3073]	; 0xfffff3ff
     fdc:	02053004 	andeq	r3, r5, #4, 0
     fe0:	05133106 	ldreq	r3, [r3, #-262]	; 0xfffffefa
     fe4:	052e060b 	streq	r0, [lr, #-1547]!	; 0xfffff9f5
     fe8:	05300602 	ldreq	r0, [r0, #-1538]!	; 0xfffff9fe
     fec:	24020609 	strcs	r0, [r2], #-1545	; 0xfffff9f7
     ff0:	052e2e0d 	streq	r2, [lr, #-3597]!	; 0xfffff1f3
     ff4:	1703060d 	strne	r0, [r3, -sp, lsl #12]
     ff8:	1311054a 	tstne	r1, #310378496	; 0x12800000
     ffc:	01062d05 	tsteq	r6, r5, lsl #26
    1000:	052e1605 	streq	r1, [lr, #-1541]!	; 0xfffff9fb
    1004:	16052f0d 	strne	r2, [r5], -sp, lsl #30
    1008:	0614052d 	ldreq	r0, [r4], -sp, lsr #10
    100c:	0617052f 	ldreq	r0, [r7], -pc, lsr #10
    1010:	2e0d0501 	cfsh32cs	mvfx0, mvfx13, #1
    1014:	12052f06 	andne	r2, r5, #6, 30
    1018:	2f2e0106 	svccs	0x002e0106
    101c:	060d052d 	streq	r0, [sp], -sp, lsr #10
    1020:	0612052f 	ldreq	r0, [r2], -pc, lsr #10
    1024:	06190501 	ldreq	r0, [r9], -r1, lsl #10
    1028:	0304052f 	movweq	r0, #17711	; 0x452f
    102c:	05010111 	streq	r0, [r1, #-273]	; 0xfffffeef
    1030:	0e051502 	cfsh32eq	mvfx1, mvfx5, #2
    1034:	017fb203 	cmneq	pc, r3, lsl #4
    1038:	05130205 	ldreq	r0, [r3, #-517]	; 0xfffffdfb
    103c:	05010606 	streq	r0, [r1, #-1542]	; 0xfffff9fa
    1040:	05300602 	ldreq	r0, [r0, #-1538]!	; 0xfffff9fe
    1044:	02050108 	andeq	r0, r5, #2
    1048:	054a0106 	strbeq	r0, [sl, #-262]	; 0xfffffefa
    104c:	05910808 	ldreq	r0, [r1, #2056]	; 0x808
    1050:	054a0603 	strbeq	r0, [sl, #-1539]	; 0xfffff9fd
    1054:	05010608 	streq	r0, [r1, #-1544]	; 0xfffff9f8
    1058:	052d0615 	streq	r0, [sp, #-1557]!	; 0xfffff9eb
    105c:	03050108 	movweq	r0, #20744	; 0x5108
    1060:	060805d7 			; <UNDEFINED> instruction: 0x060805d7
    1064:	2d180501 	cfldr32cs	mvfx0, [r8, #-4]
    1068:	052e0205 	streq	r0, [lr, #-517]!	; 0xfffffdfb
    106c:	15052f08 	strne	r2, [r5, #-3848]	; 0xfffff0f8
    1070:	08052d06 	stmdaeq	r5, {r1, r2, r8, sl, fp, sp}
    1074:	06020501 	streq	r0, [r2], -r1, lsl #10
    1078:	06030501 	streq	r0, [r3], -r1, lsl #10
    107c:	0618052f 	ldreq	r0, [r8], -pc, lsr #10
    1080:	2e020511 	mcrcs	5, 0, r0, cr2, cr1, {0}
    1084:	052f0805 	streq	r0, [pc, #-2053]!	; 887 <__code_start__-0x7779>
    1088:	052d0615 	streq	r0, [sp, #-1557]!	; 0xfffff9eb
    108c:	03050108 	movweq	r0, #20744	; 0x5108
    1090:	06080513 			; <UNDEFINED> instruction: 0x06080513
    1094:	06150501 	ldreq	r0, [r5], -r1, lsl #10
    1098:	0108052d 	tsteq	r8, sp, lsr #10
    109c:	02050106 	andeq	r0, r5, #-2147483647	; 0x80000001
    10a0:	0505a006 	streq	sl, [r5, #-6]
    10a4:	04050106 	streq	r0, [r5], #-262	; 0xfffffefa
    10a8:	2f110536 	svccs	0x00110536
    10ac:	052e0905 	streq	r0, [lr, #-2309]!	; 0xfffff6fb
    10b0:	05053302 	streq	r3, [r5, #-770]	; 0xfffffcfe
    10b4:	052e7203 	streq	r7, [lr, #-515]!	; 0xfffffdfd
    10b8:	062f0602 	strteq	r0, [pc], -r2, lsl #12
    10bc:	060e0501 	streq	r0, [lr], -r1, lsl #10
    10c0:	14020516 	strne	r0, [r2], #-1302	; 0xfffffaea
    10c4:	13030513 	movwne	r0, #13587	; 0x3513
    10c8:	15140205 	ldrne	r0, [r4, #-517]	; 0xfffffdfb
    10cc:	05010b05 	streq	r0, [r1, #-2821]	; 0xfffff4fb
    10d0:	2e010602 	cfmadd32cs	mvax0, mvfx0, mvfx1, mvfx2
    10d4:	67060305 	strvs	r0, [r6, -r5, lsl #6]
    10d8:	01060a05 	tsteq	r6, r5, lsl #20
    10dc:	052d0205 	streq	r0, [sp, #-517]!	; 0xfffffdfb
    10e0:	17052f0a 	strne	r2, [r5, -sl, lsl #30]
    10e4:	0b052d06 	bleq	14c504 <__bss_end__+0x1422ac>
    10e8:	06020501 	streq	r0, [r2], -r1, lsl #10
    10ec:	4c090501 	cfstr32mi	mvfx0, [r9], {1}
    10f0:	0602052e 	streq	r0, [r2], -lr, lsr #10
    10f4:	0609052e 	streq	r0, [r9], -lr, lsr #10
    10f8:	06020501 	streq	r0, [r2], -r1, lsl #10
    10fc:	05010630 	streq	r0, [r1, #-1584]	; 0xfffff9d0
    1100:	01380301 	teqeq	r8, r1, lsl #6
    1104:	4f030905 	svcmi	0x00030905
    1108:	052e2e4a 	streq	r2, [lr, #-3658]!	; 0xfffff1b6
    110c:	27030619 	smladcs	r3, r9, r6, r0
    1110:	131a054a 	tstne	sl, #310378496	; 0x12800000
    1114:	01062805 	tsteq	r6, r5, lsl #16
    1118:	052e1f05 	streq	r1, [lr, #-3845]!	; 0xfffff0fb
    111c:	1f052f04 	svcne	0x00052f04
    1120:	060b052d 	streq	r0, [fp], -sp, lsr #10
    1124:	060e052f 	streq	r0, [lr], -pc, lsr #10
    1128:	2e040501 	cfsh32cs	mvfx0, mvfx4, #1
    112c:	03060205 	movweq	r0, #25093	; 0x6205
    1130:	05134a59 	ldreq	r4, [r3, #-2649]	; 0xfffff5a7
    1134:	052e060b 	streq	r0, [lr, #-1547]!	; 0xfffff9f5
    1138:	05300602 	ldreq	r0, [r0, #-1538]!	; 0xfffff9fe
    113c:	24020609 	strcs	r0, [r2], #-1545	; 0xfffff9f7
    1140:	0604050d 	streq	r0, [r4], -sp, lsl #10
    1144:	06051336 			; <UNDEFINED> instruction: 0x06051336
    1148:	05050106 	streq	r0, [r5, #-262]	; 0xfffffefa
    114c:	13136706 	tstne	r3, #1572864	; 0x180000
    1150:	11060905 	tstne	r6, r5, lsl #18
    1154:	052b0d05 	streq	r0, [fp, #-3333]!	; 0xfffff2fb
    1158:	0d05300b 	stceq	0, cr3, [r5, #-44]	; 0xffffffd4
    115c:	351b052c 	ldrcc	r0, [fp, #-1324]	; 0xfffffad4
    1160:	2d060405 	cfstrscs	mvf0, [r6, #-20]	; 0xffffffec
    1164:	05130505 	ldreq	r0, [r3, #-1285]	; 0xfffffafb
    1168:	052e061b 	streq	r0, [lr, #-1563]!	; 0xfffff9e5
    116c:	0405820a 	streq	r8, [r5], #-522	; 0xfffffdf6
    1170:	2e0e052f 	cfsh32cs	mvfx0, mvfx14, #31
    1174:	05490a05 	strbeq	r0, [r9, #-2565]	; 0xfffff5fb
    1178:	052f060b 	streq	r0, [pc, #-1547]!	; b75 <__code_start__-0x748b>
    117c:	06010604 	streq	r0, [r1], -r4, lsl #12
    1180:	0606052f 	streq	r0, [r6], -pc, lsr #10
    1184:	06050501 	streq	r0, [r5], -r1, lsl #10
    1188:	060a052f 	streq	r0, [sl], -pc, lsr #10
    118c:	07052e01 	streq	r2, [r5, -r1, lsl #28]
    1190:	052e2e2e 	streq	r2, [lr, #-3630]!	; 0xfffff1d2
    1194:	0d030604 	stceq	6, cr0, [r3, #-16]
    1198:	06020501 	streq	r0, [r2], -r1, lsl #10
    119c:	05014603 	streq	r4, [r1, #-1539]	; 0xfffff9fd
    11a0:	2e3a0309 	cdpcs	3, 3, cr0, cr10, cr9, {0}
    11a4:	2f060405 	svccs	0x00060405
    11a8:	01010d03 	tsteq	r1, r3, lsl #26
    11ac:	05150205 	ldreq	r0, [r5, #-517]	; 0xfffffdfb
    11b0:	7fb2030e 	svcvc	0x00b2030e
    11b4:	13020501 	movwne	r0, #9473	; 0x2501
    11b8:	01080514 	tsteq	r8, r4, lsl r5
    11bc:	10060605 	andne	r0, r6, r5, lsl #12
    11c0:	052e3c03 	streq	r3, [lr, #-3075]!	; 0xfffff3fd
    11c4:	4a460302 	bmi	1181dd4 <__bss_end__+0x1177b7c>
    11c8:	05053006 	streq	r3, [r5, #-6]
    11cc:	2e2e0106 	sufcse	f0, f6, f6
    11d0:	4b060205 	blmi	1819ec <__bss_end__+0x177794>
    11d4:	0e050106 	adfeqs	f0, f5, f6
    11d8:	02051606 	andeq	r1, r5, #6291456	; 0x600000
    11dc:	15151314 	ldrne	r1, [r5, #-788]	; 0xfffffcec
    11e0:	05010b05 	streq	r0, [r1, #-2821]	; 0xfffff4fb
    11e4:	062e0602 	strteq	r0, [lr], -r2, lsl #12
    11e8:	06090530 			; <UNDEFINED> instruction: 0x06090530
    11ec:	06020501 	streq	r0, [r2], -r1, lsl #10
    11f0:	0501064c 	streq	r0, [r1, #-1612]	; 0xfffff9b4
    11f4:	01380301 	teqeq	r8, r1, lsl #6
    11f8:	6e030605 	cfmadd32vs	mvax0, mvfx0, mvfx3, mvfx5
    11fc:	0302054a 	movweq	r0, #9546	; 0x254a
    1200:	2e4a6646 	cdpcs	6, 4, cr6, cr10, cr6, {2}
    1204:	03060405 	movweq	r0, #25605	; 0x6405
    1208:	010100c8 	smlabteq	r1, r8, r0, r0
    120c:	2e060101 	adfcss	f0, f6, f1
    1210:	034a0682 	movteq	r0, #42626	; 0xa682
    1214:	09052e72 	stmdbeq	r5, {r1, r4, r5, r6, r9, sl, fp, sp}
    1218:	04050106 	streq	r0, [r5], #-262	; 0xfffffefa
    121c:	0d032f06 	stceq	15, cr2, [r3, #-24]	; 0xffffffe8
    1220:	02050101 	andeq	r0, r5, #1073741824	; 0x40000000
    1224:	030e0515 	movweq	r0, #58645	; 0xe515
    1228:	05017fb2 	streq	r7, [r1, #-4018]	; 0xfffff04e
    122c:	05141302 	ldreq	r1, [r4, #-770]	; 0xfffffcfe
    1230:	09050108 	stmdbeq	r5, {r3, r8}
    1234:	011b0306 	tsteq	fp, r6, lsl #6
    1238:	63030605 	movwvs	r0, #13829	; 0x3605
    123c:	2e3c032e 	cdpcs	3, 3, cr0, cr12, cr14, {1}
    1240:	48052e2e 	stmdami	r5, {r1, r2, r3, r5, r9, sl, fp, sp}
    1244:	7fb40306 	svcvc	0x00b40306
    1248:	05053c08 	streq	r3, [r5, #-3080]	; 0xfffff3f8
    124c:	2e060113 	mcrcs	1, 0, r0, cr6, cr3, {0}
    1250:	02040200 	andeq	r0, r4, #0, 4
    1254:	02002e06 	andeq	r2, r0, #96	; 0x60
    1258:	00010204 	andeq	r0, r1, r4, lsl #4
    125c:	13020402 	movwne	r0, #9218	; 0x2402
    1260:	02001105 	andeq	r1, r0, #1073741825	; 0x40000001
    1264:	01060204 	tsteq	r6, r4, lsl #4
    1268:	02000705 	andeq	r0, r0, #1310720	; 0x140000
    126c:	052f0204 	streq	r0, [pc, #-516]!	; 1070 <__code_start__-0x6f90>
    1270:	04020011 	streq	r0, [r2], #-17	; 0xffffffef
    1274:	05052d02 	streq	r2, [r5, #-3330]	; 0xfffff2fe
    1278:	02040200 	andeq	r0, r4, #0, 4
    127c:	09052f06 	stmdbeq	r5, {r1, r2, r8, r9, sl, fp, sp}
    1280:	02040200 	andeq	r0, r4, #0, 4
    1284:	000e0513 	andeq	r0, lr, r3, lsl r5
    1288:	06020402 	streq	r0, [r2], -r2, lsl #8
    128c:	00050501 	andeq	r0, r5, r1, lsl #10
    1290:	06010402 	streq	r0, [r1], -r2, lsl #8
    1294:	04020063 	streq	r0, [r2], #-99	; 0xffffff9d
    1298:	48050101 	stmdami	r5, {r0, r8}
    129c:	01040200 	mrseq	r0, R12_usr
    12a0:	05051106 	streq	r1, [r5, #-262]	; 0xfffffefa
    12a4:	01040200 	mrseq	r0, R12_usr
    12a8:	0048052f 	subeq	r0, r8, pc, lsr #10
    12ac:	2d010402 	cfstrscs	mvf0, [r1, #-8]
    12b0:	02000505 	andeq	r0, r0, #20971520	; 0x1400000
    12b4:	002f0104 	eoreq	r0, pc, r4, lsl #2
    12b8:	4a010402 	bmi	422c8 <__bss_end__+0x38070>
    12bc:	01040200 	mrseq	r0, R12_usr
    12c0:	0402004a 	streq	r0, [r2], #-74	; 0xffffffb6
    12c4:	054a0601 	strbeq	r0, [sl, #-1537]	; 0xfffff9ff
    12c8:	00e10340 	rsceq	r0, r1, r0, asr #6
    12cc:	050106d6 	streq	r0, [r1, #-1750]	; 0xfffff92a
    12d0:	052e4e09 	streq	r4, [lr, #-3593]!	; 0xfffff1f7
    12d4:	1e053008 	cdpne	0, 0, cr3, cr5, cr8, {0}
    12d8:	2e120529 	cfmul64cs	mvdx0, mvdx2, mvdx9
    12dc:	05330d05 	ldreq	r0, [r3, #-3333]!	; 0xfffff2fb
    12e0:	05450602 	strbeq	r0, [r5, #-1538]	; 0xfffff9fe
    12e4:	02051305 	andeq	r1, r5, #335544320	; 0x14000000
    12e8:	13050514 	movwne	r0, #21780	; 0x5514
    12ec:	05130205 	ldreq	r0, [r3, #-517]	; 0xfffffdfb
    12f0:	40050108 	andmi	r0, r5, r8, lsl #2
    12f4:	017a0306 	cmneq	sl, r6, lsl #6
    12f8:	340d052e 	strcc	r0, [sp], #-1326	; 0xfffffad2
    12fc:	03110566 	tsteq	r1, #427819008	; 0x19800000
    1300:	054a4a20 	strbeq	r4, [sl, #-2592]	; 0xfffff5e0
    1304:	62030604 	andvs	r0, r3, #4, 12	; 0x400000
    1308:	06090501 	streq	r0, [r9], -r1, lsl #10
    130c:	2e0f0501 	cfsh32cs	mvfx0, mvfx15, #1
    1310:	2c060805 	stccs	8, cr0, [r6], {5}
    1314:	2e060d05 	cdpcs	13, 0, cr0, cr6, cr5, {0}
    1318:	67060305 	strvs	r0, [r6, -r5, lsl #6]
    131c:	01060505 	tsteq	r6, r5, lsl #10
    1320:	4d060805 	stcmi	8, cr0, [r6, #-20]	; 0xffffffec
    1324:	01060e05 	tsteq	r6, r5, lsl #28
    1328:	052e0a05 	streq	r0, [lr, #-2565]!	; 0xfffff5fb
    132c:	04052f09 	streq	r2, [r5], #-3849	; 0xfffff0f7
    1330:	07052f06 	streq	r2, [r5, -r6, lsl #30]
    1334:	0a050106 	beq	141754 <__bss_end__+0x1374fc>
    1338:	0604052c 	streq	r0, [r4], -ip, lsr #10
    133c:	062d0532 			; <UNDEFINED> instruction: 0x062d0532
    1340:	017f9803 	cmneq	pc, r3, lsl #16
    1344:	ed030905 	vstr.16	s0, [r3, #-10]
    1348:	0d052e00 	stceq	14, cr2, [r5, #-0]
    134c:	2b07052c 	blcs	1c2804 <__bss_end__+0x1b85ac>
    1350:	30060405 	andcc	r0, r6, r5, lsl #8
    1354:	09051413 	stmdbeq	r5, {r0, r1, r4, sl, ip}
    1358:	030c0501 	movweq	r0, #50433	; 0xc501
    135c:	05017f93 	streq	r7, [r1, #-3987]	; 0xfffff06d
    1360:	0106011d 	tsteq	r6, sp, lsl r1
    1364:	ed030905 	vstr.16	s0, [r3, #-10]
    1368:	05050100 	streq	r0, [r5, #-256]	; 0xffffff00
    136c:	12052f06 	andne	r2, r5, #6, 30
    1370:	2d2e0106 	stfcss	f0, [lr, #-24]!	; 0xffffffe8
    1374:	052f0b05 	streq	r0, [pc, #-2821]!	; 877 <__code_start__-0x7789>
    1378:	052f0605 	streq	r0, [pc, #-1541]!	; d7b <__code_start__-0x7285>
    137c:	0c051009 	stceq	0, cr1, [r5], {9}
    1380:	017f9303 	cmneq	pc, r3, lsl #6
    1384:	05011d05 	streq	r1, [r1, #-3333]	; 0xfffff2fb
    1388:	0501062d 	streq	r0, [r1, #-1581]	; 0xfffff9d3
    138c:	00ed0309 	rsceq	r0, sp, r9, lsl #6
    1390:	0604052e 	streq	r0, [r4], -lr, lsr #10
    1394:	0200014e 	andeq	r0, r0, #-2147483629	; 0x80000013
    1398:	004a0204 	subeq	r0, sl, r4, lsl #4
    139c:	01020402 	tsteq	r2, r2, lsl #8
    13a0:	02040200 	andeq	r0, r4, #0, 4
    13a4:	04020015 	streq	r0, [r2], #-21	; 0xffffffeb
    13a8:	36020602 	strcc	r0, [r2], -r2, lsl #12
    13ac:	04020012 	streq	r0, [r2], #-18	; 0xffffffee
    13b0:	02052e02 	andeq	r2, r5, #2, 28
    13b4:	00d10306 	sbcseq	r0, r1, r6, lsl #6
    13b8:	06070501 	streq	r0, [r7], -r1, lsl #10
    13bc:	02052e01 	andeq	r2, r5, #1, 28
    13c0:	0b052f06 	bleq	14cfe0 <__bss_end__+0x142d88>
    13c4:	01050106 	tsteq	r5, r6, lsl #2
    13c8:	0605052f 	streq	r0, [r5], -pc, lsr #10
    13cc:	054a6503 	strbeq	r6, [sl, #-1283]	; 0xfffffafd
    13d0:	66010609 	strvs	r0, [r1], -r9, lsl #12
    13d4:	9f060505 	svcls	0x00060505
    13d8:	11030405 	tstne	r3, r5, lsl #8
    13dc:	06070501 	streq	r0, [r7], -r1, lsl #10
    13e0:	06040501 	streq	r0, [r4], -r1, lsl #10
    13e4:	010a0531 	tsteq	sl, r1, lsr r5
    13e8:	02001305 	andeq	r1, r0, #335544320	; 0x14000000
    13ec:	2e060104 	adfcss	f0, f6, f4
    13f0:	02001005 	andeq	r1, r0, #5, 0
    13f4:	052e0104 	streq	r0, [lr, #-260]!	; 0xfffffefc
    13f8:	054b0605 	strbeq	r0, [fp, #-1541]	; 0xfffff9fb
    13fc:	0601060a 	streq	r0, [r1], -sl, lsl #12
    1400:	0604052d 	streq	r0, [r4], -sp, lsr #10
    1404:	06110501 	ldreq	r0, [r1], -r1, lsl #10
    1408:	667fb603 	ldrbtvs	fp, [pc], -r3, lsl #12
    140c:	02000113 	andeq	r0, r0, #-1073741820	; 0xc0000004
    1410:	ba060204 	blt	181c28 <__bss_end__+0x1779d0>
    1414:	1401ba06 	strne	fp, [r1], #-2566	; 0xfffff5fa
    1418:	13061a05 	movwne	r1, #27141	; 0x6a05
    141c:	11052e2e 	tstne	r5, lr, lsr #28
    1420:	1405674e 	strne	r6, [r5], #-1870	; 0xfffff8b2
    1424:	82130568 	andshi	r0, r3, #104, 10	; 0x1a000000
    1428:	78031505 	stmdavc	r3, {r0, r2, r8, sl, ip}
    142c:	0611054a 	ldreq	r0, [r1], -sl, asr #10
    1430:	1413134b 	ldrne	r1, [r3], #-843	; 0xfffffcb5
    1434:	13051413 	movwne	r1, #21523	; 0x5413
    1438:	09050106 	stmdbeq	r5, {r1, r2, r8}
    143c:	0d052f06 	stceq	15, cr2, [r5, #-24]	; 0xffffffe8
    1440:	2e2e0106 	sufcse	f0, f6, f6
    1444:	05bb0905 	ldreq	r0, [fp, #2309]!	; 0x905
    1448:	09059d0d 	stmdbeq	r5, {r0, r2, r3, r8, sl, fp, ip, pc}
    144c:	15052f06 	strne	r2, [r5, #-3846]	; 0xfffff0fa
    1450:	7503062f 	strvc	r0, [r3, #-1583]	; 0xfffff9d1
    1454:	2e0b034a 	cdpcs	3, 0, cr0, cr11, cr10, {2}
    1458:	0605054a 	streq	r0, [r5], -sl, asr #10
    145c:	05012303 	streq	r2, [r1, #-771]	; 0xfffffcfd
    1460:	2e010609 	cfmadd32cs	mvax0, mvfx0, mvfx1, mvfx9
    1464:	d7060505 	strle	r0, [r6, -r5, lsl #10]
    1468:	032e6e03 			; <UNDEFINED> instruction: 0x032e6e03
    146c:	0905010e 	stmdbeq	r5, {r1, r2, r3, r8}
    1470:	05050106 	streq	r0, [r5, #-262]	; 0xfffffefa
    1474:	4a100306 	bmi	402094 <__bss_end__+0x3f7e3c>
    1478:	ed030105 	stfs	f0, [r3, #-20]	; 0xffffffec
    147c:	0205017e 	andeq	r0, r5, #-2147483617	; 0x8000001f
    1480:	14131514 	ldrne	r1, [r3], #-1300	; 0xfffffaec
    1484:	1a030405 	bne	c24a0 <__bss_end__+0xb8248>
    1488:	06090501 	streq	r0, [r9], -r1, lsl #10
    148c:	03020501 	movweq	r0, #9473	; 0x2501
    1490:	09052e46 	stmdbeq	r5, {r1, r2, r6, r9, sl, fp, sp}
    1494:	052e3a03 	streq	r3, [lr, #-2563]!	; 0xfffff5fd
    1498:	032f0604 			; <UNDEFINED> instruction: 0x032f0604
    149c:	0501010d 	streq	r0, [r1, #-269]	; 0xfffffef3
    14a0:	0e051502 	cfsh32eq	mvfx1, mvfx5, #2
    14a4:	017fb203 	cmneq	pc, r3, lsl #4
    14a8:	14130205 	ldrne	r0, [r3], #-517	; 0xfffffdfb
    14ac:	05010805 	streq	r0, [r1, #-2053]	; 0xfffff7fb
    14b0:	05010602 	streq	r0, [r1, #-1538]	; 0xfffff9fe
    14b4:	03059f08 	movweq	r9, #24328	; 0x5f08
    14b8:	01064a06 	tsteq	r6, r6, lsl #20
    14bc:	052e0805 	streq	r0, [lr, #-2053]!	; 0xfffff7fb
    14c0:	052d0615 	streq	r0, [sp, #-1557]!	; 0xfffff9eb
    14c4:	03050108 	movweq	r0, #20744	; 0x5108
    14c8:	0501062f 	streq	r0, [r1, #-1583]	; 0xfffff9d1
    14cc:	15052e08 	strne	r2, [r5, #-3592]	; 0xfffff1f8
    14d0:	08052d06 	stmdaeq	r5, {r1, r2, r8, sl, fp, sp}
    14d4:	2f030501 	svccs	0x00030501
    14d8:	08050106 	stmdaeq	r5, {r1, r2, r8}
    14dc:	0615052e 	ldreq	r0, [r5], -lr, lsr #10
    14e0:	0108052d 	tsteq	r8, sp, lsr #10
    14e4:	062f0305 	strteq	r0, [pc], -r5, lsl #6
    14e8:	2e080501 	cfsh32cs	mvfx0, mvfx8, #1
    14ec:	2d061505 	cfstr32cs	mvfx1, [r6, #-20]	; 0xffffffec
    14f0:	05010805 	streq	r0, [r1, #-2053]	; 0xfffff7fb
    14f4:	01062f03 	tsteq	r6, r3, lsl #30
    14f8:	052e0805 	streq	r0, [lr, #-2053]!	; 0xfffff7fb
    14fc:	052d0615 	streq	r0, [sp, #-1557]!	; 0xfffff9eb
    1500:	03050108 	movweq	r0, #20744	; 0x5108
    1504:	0501062f 	streq	r0, [r1, #-1583]	; 0xfffff9d1
    1508:	15052e08 	strne	r2, [r5, #-3592]	; 0xfffff1f8
    150c:	08052d06 	stmdaeq	r5, {r1, r2, r8, sl, fp, sp}
    1510:	13030501 	movwne	r0, #13569	; 0x3501
    1514:	01060805 	tsteq	r6, r5, lsl #16
    1518:	2d061505 	cfstr32cs	mvfx1, [r6, #-20]	; 0xffffffec
    151c:	06010805 	streq	r0, [r1], -r5, lsl #16
    1520:	06030566 	streq	r0, [r3], -r6, ror #10
    1524:	06080567 	streq	r0, [r8], -r7, ror #10
    1528:	2d180501 	cfldr32cs	mvfx0, [r8, #-4]
    152c:	052e0205 	streq	r0, [lr, #-517]!	; 0xfffffdfb
    1530:	15052f08 	strne	r2, [r5, #-3848]	; 0xfffff0f8
    1534:	08052d06 	stmdaeq	r5, {r1, r2, r8, sl, fp, sp}
    1538:	06020501 	streq	r0, [r2], -r1, lsl #10
    153c:	06030501 	streq	r0, [r3], -r1, lsl #10
    1540:	0618052f 	ldreq	r0, [r8], -pc, lsr #10
    1544:	2e020511 	mcrcs	5, 0, r0, cr2, cr1, {0}
    1548:	052f0805 	streq	r0, [pc, #-2053]!	; d4b <__code_start__-0x72b5>
    154c:	052d0615 	streq	r0, [sp, #-1557]!	; 0xfffff9eb
    1550:	03050108 	movweq	r0, #20744	; 0x5108
    1554:	06080513 			; <UNDEFINED> instruction: 0x06080513
    1558:	06150501 	ldreq	r0, [r5], -r1, lsl #10
    155c:	0108052d 	tsteq	r8, sp, lsr #10
    1560:	14060505 	strne	r0, [r6], #-1285	; 0xfffffafb
    1564:	0602054a 	streq	r0, [r2], -sl, asr #10
    1568:	060e052e 	streq	r0, [lr], -lr, lsr #10
    156c:	2f040519 	svccs	0x00040519
    1570:	052f1105 	streq	r1, [pc, #-261]!	; 1473 <__code_start__-0x6b8d>
    1574:	02054a09 	andeq	r4, r5, #36864	; 0x9000
    1578:	03050533 	movweq	r0, #21811	; 0x5533
    157c:	02052e72 	andeq	r2, r5, #1824	; 0x720
    1580:	01062f06 	tsteq	r6, r6, lsl #30
    1584:	16060e05 	strne	r0, [r6], -r5, lsl #28
    1588:	13140205 	tstne	r4, #1342177280	; 0x50000000
    158c:	05130305 	ldreq	r0, [r3, #-773]	; 0xfffffcfb
    1590:	05151402 	ldreq	r1, [r5, #-1026]	; 0xfffffbfe
    1594:	0205010b 	andeq	r0, r5, #-1073741822	; 0xc0000002
    1598:	662e0106 	strtvs	r0, [lr], -r6, lsl #2
    159c:	2f060305 	svccs	0x00060305
    15a0:	01060a05 	tsteq	r6, r5, lsl #20
    15a4:	052d0205 	streq	r0, [sp, #-517]!	; 0xfffffdfb
    15a8:	17052f0a 	strne	r2, [r5, -sl, lsl #30]
    15ac:	0b052d06 	bleq	14c9cc <__bss_end__+0x142774>
    15b0:	06020501 	streq	r0, [r2], -r1, lsl #10
    15b4:	054a4a01 	strbeq	r4, [sl, #-2561]	; 0xfffff5ff
    15b8:	95030605 	strls	r0, [r3, #-1541]	; 0xfffff9fb
    15bc:	11050101 	tstne	r5, r1, lsl #2
    15c0:	7ef80306 	cdpvc	3, 15, cr0, cr8, cr6, {0}
    15c4:	031b0501 	tsteq	fp, #4194304	; 0x400000
    15c8:	054a0188 	strbeq	r0, [sl, #-392]	; 0xfffffe78
    15cc:	f3030601 	vmax.u8	d0, d3, d1
    15d0:	02052e7e 	andeq	r2, r5, #2016	; 0x7e0
    15d4:	14131514 	ldrne	r1, [r3], #-1300	; 0xfffffaec
    15d8:	22031905 	andcs	r1, r3, #81920	; 0x14000
    15dc:	131a0501 	tstne	sl, #4194304	; 0x400000
    15e0:	01062805 	tsteq	r6, r5, lsl #16
    15e4:	052e1f05 	streq	r1, [lr, #-3845]!	; 0xfffff0fb
    15e8:	0e052f04 	cdpeq	15, 0, cr2, cr5, cr4, {0}
    15ec:	2d1f054a 	cfldr32cs	mvfx0, [pc, #-296]	; 14cc <__code_start__-0x6b34>
    15f0:	2f060b05 	svccs	0x00060b05
    15f4:	01060405 	tsteq	r6, r5, lsl #8
    15f8:	05013206 	streq	r3, [r1, #-518]	; 0xfffffdfa
    15fc:	0e051502 	cfsh32eq	mvfx1, mvfx5, #2
    1600:	017fb203 	cmneq	pc, r3, lsl #4
    1604:	05130205 	ldreq	r0, [r3, #-517]	; 0xfffffdfb
    1608:	05010606 	streq	r0, [r1, #-1542]	; 0xfffff9fa
    160c:	05300602 	ldreq	r0, [r0, #-1538]!	; 0xfffff9fe
    1610:	02050108 	andeq	r0, r5, #2
    1614:	03050106 	movweq	r0, #20742	; 0x5106
    1618:	05210806 	streq	r0, [r1, #-2054]!	; 0xfffff7fa
    161c:	05010608 	streq	r0, [r1, #-1544]	; 0xfffff9f8
    1620:	05490615 	strbeq	r0, [r9, #-1557]	; 0xfffff9eb
    1624:	03050108 	movweq	r0, #20744	; 0x5108
    1628:	060805d7 			; <UNDEFINED> instruction: 0x060805d7
    162c:	2d180501 	cfldr32cs	mvfx0, [r8, #-4]
    1630:	052e0205 	streq	r0, [lr, #-517]!	; 0xfffffdfb
    1634:	15052f08 	strne	r2, [r5, #-3848]	; 0xfffff0f8
    1638:	08052d06 	stmdaeq	r5, {r1, r2, r8, sl, fp, sp}
    163c:	06020501 	streq	r0, [r2], -r1, lsl #10
    1640:	06030501 	streq	r0, [r3], -r1, lsl #10
    1644:	0618052f 	ldreq	r0, [r8], -pc, lsr #10
    1648:	2e020511 	mcrcs	5, 0, r0, cr2, cr1, {0}
    164c:	052f0805 	streq	r0, [pc, #-2053]!	; e4f <__code_start__-0x71b1>
    1650:	052d0615 	streq	r0, [sp, #-1557]!	; 0xfffff9eb
    1654:	03050108 	movweq	r0, #20744	; 0x5108
    1658:	06080513 			; <UNDEFINED> instruction: 0x06080513
    165c:	06150501 	ldreq	r0, [r5], -r1, lsl #10
    1660:	0108052d 	tsteq	r8, sp, lsr #10
    1664:	14060505 	strne	r0, [r6], #-1285	; 0xfffffafb
    1668:	66060205 	strvs	r0, [r6], -r5, lsl #4
    166c:	1a060405 	bne	182688 <__bss_end__+0x178430>
    1670:	78030505 	stmdavc	r3, {r0, r2, r8, sl}
    1674:	0602054a 	streq	r0, [r2], -sl, asr #10
    1678:	0501062f 	streq	r0, [r1, #-1583]	; 0xfffff9d1
    167c:	0516060e 	ldreq	r0, [r6, #-1550]	; 0xfffff9f2
    1680:	05131402 	ldreq	r1, [r3, #-1026]	; 0xfffffbfe
    1684:	05010604 	streq	r0, [r1, #-1540]	; 0xfffff9fc
    1688:	052f0603 	streq	r0, [pc, #-1539]!	; 108d <__code_start__-0x6f73>
    168c:	05010611 	streq	r0, [r1, #-1553]	; 0xfffff9ef
    1690:	02052e09 	andeq	r2, r5, #144	; 0x90
    1694:	05153006 	ldreq	r3, [r5, #-6]
    1698:	0205010b 	andeq	r0, r5, #-1073741822	; 0xc0000002
    169c:	4a4a0106 	bmi	1281abc <__bss_end__+0x1277864>
    16a0:	0603052e 	streq	r0, [r3], -lr, lsr #10
    16a4:	060a052f 	streq	r0, [sl], -pc, lsr #10
    16a8:	2d020501 	cfstr32cs	mvfx0, [r2, #-4]
    16ac:	052f0a05 	streq	r0, [pc, #-2565]!	; caf <__code_start__-0x7351>
    16b0:	052d0617 	streq	r0, [sp, #-1559]!	; 0xfffff9e9
    16b4:	0205010b 	andeq	r0, r5, #-1073741822	; 0xc0000002
    16b8:	2e4a0106 	dvfcse	f0, f2, f6
    16bc:	09051406 	stmdbeq	r5, {r1, r2, sl, ip}
    16c0:	02050106 	andeq	r0, r5, #-2147483647	; 0x80000001
    16c4:	01064c06 	tsteq	r6, r6, lsl #24
    16c8:	03060505 	movweq	r0, #25861	; 0x6505
    16cc:	2a010198 	bcs	41d34 <__bss_end__+0x37adc>
    16d0:	01060705 	tsteq	r6, r5, lsl #14
    16d4:	2f060505 	svccs	0x00060505
    16d8:	53031805 	movwpl	r1, #14341	; 0x3805
    16dc:	061b052e 	ldreq	r0, [fp], -lr, lsr #10
    16e0:	821a0501 	andshi	r0, sl, #4194304	; 0x400000
    16e4:	4b060905 	blmi	183b00 <__bss_end__+0x1798a8>
    16e8:	01060d05 	tsteq	r6, r5, lsl #26
    16ec:	d709052e 	strle	r0, [r9, -lr, lsr #10]
    16f0:	059d0d05 	ldreq	r0, [sp, #3333]	; 0xd05
    16f4:	052f0609 	streq	r0, [pc, #-1545]!	; 10f3 <__code_start__-0x6f0d>
    16f8:	18053015 	stmdane	r5, {r0, r2, r4, ip, sp}
    16fc:	17050106 	strne	r0, [r5, -r6, lsl #2]
    1700:	2f190566 	svccs	0x00190566
    1704:	05491705 	strbeq	r1, [r9, #-1797]	; 0xfffff8fb
    1708:	052f0619 	streq	r0, [pc, #-1561]!	; 10f7 <__code_start__-0x6f09>
    170c:	6f030615 	svcvs	0x00030615
    1710:	0619052e 	ldreq	r0, [r9], -lr, lsr #10
    1714:	054a1303 	strbeq	r1, [sl, #-771]	; 0xfffffcfd
    1718:	6d030615 	stcvs	6, cr0, [r3, #-84]	; 0xffffffac
    171c:	02054a2e 	andeq	r4, r5, #188416	; 0x2e000
    1720:	017fa003 	cmneq	pc, r3
    1724:	72030666 	andvc	r0, r3, #106954752	; 0x6600000
    1728:	06050501 	streq	r0, [r5], -r1, lsl #10
    172c:	36040501 	strcc	r0, [r4], -r1, lsl #10
    1730:	78030505 	stmdavc	r3, {r0, r2, r8, sl}
    1734:	0602052e 	streq	r0, [r2], -lr, lsr #10
    1738:	0501062f 	streq	r0, [r1, #-1583]	; 0xfffff9d1
    173c:	0516060e 	ldreq	r0, [r6, #-1550]	; 0xfffff9f2
    1740:	05131402 	ldreq	r1, [r3, #-1026]	; 0xfffffbfe
    1744:	4a010604 	bmi	42f5c <__bss_end__+0x38d04>
    1748:	03060205 	movweq	r0, #25093	; 0x6205
    174c:	05050178 	streq	r0, [r5, #-376]	; 0xfffffe88
    1750:	054a0106 	strbeq	r0, [sl, #-262]	; 0xfffffefa
    1754:	064b0602 	strbeq	r0, [fp], -r2, lsl #12
    1758:	060e0501 	streq	r0, [lr], -r1, lsl #10
    175c:	14020516 	strne	r0, [r2], #-1302	; 0xfffffaea
    1760:	05151513 	ldreq	r1, [r5, #-1299]	; 0xfffffaed
    1764:	2e06010b 	adfcss	f0, f6, #3.0
    1768:	03061105 	movweq	r1, #24837	; 0x6105
    176c:	0501019e 	streq	r0, [r1, #-414]	; 0xfffffe62
    1770:	05010622 	streq	r0, [r1, #-1570]	; 0xfffff9de
    1774:	22052f05 	andcs	r2, r5, #5, 30
    1778:	0605052d 	streq	r0, [r5], -sp, lsr #10
    177c:	4b11052f 	blmi	442c40 <__bss_end__+0x4389e8>
    1780:	01830505 	orreq	r0, r3, r5, lsl #10
    1784:	2e5c039e 	mrccs	3, 2, r0, cr12, cr14, {4}
    1788:	02059e01 	andeq	r9, r5, #1, 28
    178c:	7ef30306 	cdpvc	3, 15, cr0, cr3, cr6, {0}
    1790:	06052e2e 	streq	r2, [r5], -lr, lsr #28
    1794:	0d054a2c 	vstreq	s8, [r5, #-176]	; 0xffffff50
    1798:	0100d803 	tsteq	r0, r3, lsl #16
    179c:	02000405 	andeq	r0, r0, #83886080	; 0x5000000
    17a0:	03060104 	movweq	r0, #24836	; 0x6104
    17a4:	02004a11 	andeq	r4, r0, #69632	; 0x11000
    17a8:	05010104 	streq	r0, [r1, #-260]	; 0xfffffefc
    17ac:	06510611 			; <UNDEFINED> instruction: 0x06510611
    17b0:	0315059e 	tsteq	r5, #662700032	; 0x27800000
    17b4:	ba012e17 	blt	4d018 <__bss_end__+0x42dc0>
    17b8:	69031105 	stmdbvs	r3, {r0, r2, r8, ip}
    17bc:	2802012e 	stmdacs	r2, {r1, r2, r3, r5, r8}
    17c0:	87010100 	strhi	r0, [r1, -r0, lsl #2]
    17c4:	03000000 	movweq	r0, #0
    17c8:	00006400 	andeq	r6, r0, r0, lsl #8
    17cc:	fb010200 	blx	41fd6 <__bss_end__+0x37d7e>
    17d0:	01000d0e 	tsteq	r0, lr, lsl #26
    17d4:	00010101 	andeq	r0, r1, r1, lsl #2
    17d8:	00010000 	andeq	r0, r1, r0
    17dc:	2f2e0100 	svccs	0x002e0100
    17e0:	66617473 			; <UNDEFINED> instruction: 0x66617473
    17e4:	72732d66 	rsbsvc	r2, r3, #6528	; 0x1980
    17e8:	552f0063 	strpl	r0, [pc, #-99]!	; 178d <__code_start__-0x6873>
    17ec:	73726573 	cmnvc	r2, #482344960	; 0x1cc00000
    17f0:	6c696d2f 	stclvs	13, cr6, [r9], #-188	; 0xffffff44
    17f4:	532f7365 			; <UNDEFINED> instruction: 0x532f7365
    17f8:	6372756f 	cmnvs	r2, #465567744	; 0x1bc00000
    17fc:	73632f65 	cmnvc	r3, #404	; 0x194
    1800:	6c303432 	cfldrsvs	mvf3, [r0], #-200	; 0xffffff38
    1804:	696c2f78 	stmdbvs	ip!, {r3, r4, r5, r6, r8, r9, sl, fp, sp}^
    1808:	2f697062 	svccs	0x00697062
    180c:	6c636e69 	stclvs	14, cr6, [r3], #-420	; 0xfffffe5c
    1810:	00656475 	rsbeq	r6, r5, r5, ror r4
    1814:	656c6300 	strbvs	r6, [ip, #-768]!	; 0xfffffd00
    1818:	722d6e61 	eorvc	r6, sp, #1552	; 0x610
    181c:	6f6f6265 	svcvs	0x006f6265
    1820:	00632e74 	rsbeq	r2, r3, r4, ror lr
    1824:	72000001 	andvc	r0, r0, #1, 0
    1828:	682e6970 	stmdavs	lr!, {r4, r5, r6, r8, fp, sp, lr}
    182c:	00000200 	andeq	r0, r0, r0, lsl #4
    1830:	00190500 	andseq	r0, r9, r0, lsl #10
    1834:	948c0205 	strls	r0, [ip], #517	; 0x205
    1838:	05150000 	ldreq	r0, [r5, #-0]
    183c:	19051305 	stmdbne	r5, {r0, r2, r8, r9, ip}
    1840:	05052d06 	streq	r2, [r5, #-3334]	; 0xfffff2fa
    1844:	2f67062f 	svccs	0x0067062f
    1848:	0006024b 	andeq	r0, r6, fp, asr #4
    184c:	01760101 	cmneq	r6, r1, lsl #2
    1850:	00030000 	andeq	r0, r3, r0
    1854:	0000005e 	andeq	r0, r0, lr, asr r0
    1858:	0efb0102 	cdpeq	1, 15, cr0, cr11, cr2, {0}
    185c:	0101000d 	tsteq	r1, sp
    1860:	00000101 	andeq	r0, r0, r1, lsl #2
    1864:	00000100 	andeq	r0, r0, r0, lsl #2
    1868:	732f2e01 			; <UNDEFINED> instruction: 0x732f2e01
    186c:	66666174 			; <UNDEFINED> instruction: 0x66666174
    1870:	6372732d 	cmnvs	r2, #-1275068416	; 0xb4000000
    1874:	73552f00 	cmpvc	r5, #0, 30
    1878:	2f737265 	svccs	0x00737265
    187c:	656c696d 	strbvs	r6, [ip, #-2413]!	; 0xfffff693
    1880:	6f532f73 	svcvs	0x00532f73
    1884:	65637275 	strbvs	r7, [r3, #-629]!	; 0xfffffd8b
    1888:	3273632f 	rsbscc	r6, r3, #-1140850688	; 0xbc000000
    188c:	786c3034 	stmdavc	ip!, {r2, r4, r5, ip, sp}^
    1890:	62696c2f 	rsbvs	r6, r9, #12032	; 0x2f00
    1894:	692f6970 	stmdbvs	pc!, {r4, r5, r6, r8, fp, sp, lr}	; <UNPREDICTABLE>
    1898:	756c636e 	strbvc	r6, [ip, #-878]!	; 0xfffffc92
    189c:	00006564 	andeq	r6, r0, r4, ror #10
    18a0:	61747363 	cmnvs	r4, r3, ror #6
    18a4:	632e7472 			; <UNDEFINED> instruction: 0x632e7472
    18a8:	00000100 	andeq	r0, r0, r0, lsl #2
    18ac:	2e697072 	mcrcs	0, 3, r7, cr9, cr2, {3}
    18b0:	00020068 	andeq	r0, r2, r8, rrx
    18b4:	10050000 	andne	r0, r5, r0
    18b8:	b8020500 	stmdalt	r2, {r8, sl}
    18bc:	03000094 	movweq	r0, #148	; 0x94
    18c0:	05050110 	streq	r0, [r5, #-272]	; 0xfffffef0
    18c4:	13020513 	movwne	r0, #9491	; 0x2513
    18c8:	05140505 	ldreq	r0, [r4, #-1285]	; 0xfffffafb
    18cc:	050e0610 	streq	r0, [lr, #-1552]	; 0xfffff9f0
    18d0:	30063205 	andcc	r3, r6, r5, lsl #4
    18d4:	0a051413 	beq	146928 <__bss_end__+0x13c6d0>
    18d8:	08090501 	stmdaeq	r9, {r0, r8, sl}
    18dc:	06100591 			; <UNDEFINED> instruction: 0x06100591
    18e0:	9a0a0501 	bls	282cec <__bss_end__+0x278a94>
    18e4:	056a1005 	strbeq	r1, [sl, #-5]!
    18e8:	052d060a 	streq	r0, [sp, #-1546]!	; 0xfffff9f6
    18ec:	10052f09 	andne	r2, r5, r9, lsl #30
    18f0:	0a050106 	beq	141d10 <__bss_end__+0x137ab8>
    18f4:	09052d06 	stmdbeq	r5, {r1, r2, r8, sl, fp, sp}
    18f8:	061005bb 			; <UNDEFINED> instruction: 0x061005bb
    18fc:	060a0501 	streq	r0, [sl], -r1, lsl #10
    1900:	4b090565 	blmi	242e9c <__bss_end__+0x238c44>
    1904:	01060d05 	tsteq	r6, r5, lsl #26
    1908:	052d0a05 	streq	r0, [sp, #-2565]!	; 0xfffff5fb
    190c:	0a052f10 	beq	14d554 <__bss_end__+0x1432fc>
    1910:	09052d06 	stmdbeq	r5, {r1, r2, r8, sl, fp, sp}
    1914:	060d052f 	streq	r0, [sp], -pc, lsr #10
    1918:	2d0a0501 	cfstr32cs	mvfx0, [sl, #-4]
    191c:	052f1005 	streq	r1, [pc, #-5]!	; 191f <__code_start__-0x66e1>
    1920:	052d060a 	streq	r0, [sp, #-1546]!	; 0xfffff9f6
    1924:	0d052f09 	stceq	15, cr2, [r5, #-36]	; 0xffffffdc
    1928:	0a050106 	beq	141d48 <__bss_end__+0x137af0>
    192c:	2f10052d 	svccs	0x0010052d
    1930:	2d060a05 	vstrcs	s0, [r6, #-20]	; 0xffffffec
    1934:	052f0905 	streq	r0, [pc, #-2309]!	; 1037 <__code_start__-0x6fc9>
    1938:	0501060d 	streq	r0, [r1, #-1549]	; 0xfffff9f3
    193c:	10052d0a 	andne	r2, r5, sl, lsl #26
    1940:	060a052f 	streq	r0, [sl], -pc, lsr #10
    1944:	1309052d 	movwne	r0, #38189	; 0x952d
    1948:	01061005 	tsteq	r6, r5
    194c:	2d060a05 	vstrcs	s0, [r6, #-20]	; 0xffffffec
    1950:	32150505 	andscc	r0, r5, #20971520	; 0x1400000
    1954:	144a0101 	strbne	r0, [sl], #-257	; 0xfffffeff
    1958:	61031105 	tstvs	r3, r5, lsl #2
    195c:	13050501 	movwne	r0, #21761	; 0x5501
    1960:	14051414 	strne	r1, [r5], #-1044	; 0xfffffbec
    1964:	062e0101 	strteq	r0, [lr], -r1, lsl #2
    1968:	06050501 	streq	r0, [r5], -r1, lsl #10
    196c:	0a051513 	beq	146dc0 <__bss_end__+0x13cb68>
    1970:	05050106 	streq	r0, [r5, #-262]	; 0xfffffefa
    1974:	01064b06 	tsteq	r6, r6, lsl #22
    1978:	01160306 	tsteq	r6, r6, lsl #6
    197c:	0311052f 	tsteq	r1, #197132288	; 0xbc00000
    1980:	0505015f 	streq	r0, [r5, #-351]	; 0xfffffea1
    1984:	05141413 	ldreq	r1, [r4, #-1043]	; 0xfffffbed
    1988:	2e010114 	mcrcs	1, 0, r0, cr1, cr4, {0}
    198c:	05050106 	streq	r0, [r5, #-262]	; 0xfffffefa
    1990:	08051306 	stmdaeq	r5, {r1, r2, r8, r9, ip}
    1994:	05050106 	streq	r0, [r5, #-262]	; 0xfffffefa
    1998:	052e1c03 	streq	r1, [lr, #-3075]!	; 0xfffff3fd
    199c:	2e640307 	cdpcs	3, 6, cr0, cr4, cr7, {0}
    19a0:	2f060905 	svccs	0x00060905
    19a4:	01060e05 	tsteq	r6, r5, lsl #28
    19a8:	30060505 	andcc	r0, r6, r5, lsl #10
    19ac:	01060a05 	tsteq	r6, r5, lsl #20
    19b0:	2f060505 	svccs	0x00060505
    19b4:	03060106 	movweq	r0, #24838	; 0x6106
    19b8:	02050118 	andeq	r0, r5, #6
    19bc:	060a0530 			; <UNDEFINED> instruction: 0x060a0530
    19c0:	022e6f03 	eoreq	r6, lr, #3, 30
    19c4:	0101000c 	tsteq	r1, ip
    19c8:	0000007d 	andeq	r0, r0, sp, ror r0
    19cc:	00650003 	rsbeq	r0, r5, r3
    19d0:	01020000 	mrseq	r0, (UNDEF: 2)
    19d4:	000d0efb 	strdeq	r0, [sp], -fp
    19d8:	01010101 	tsteq	r1, r1, lsl #2
    19dc:	01000000 	mrseq	r0, (UNDEF: 0)
    19e0:	2e010000 	cdpcs	0, 0, cr0, cr1, cr0, {0}
    19e4:	6174732f 	cmnvs	r4, pc, lsr #6
    19e8:	732d6666 			; <UNDEFINED> instruction: 0x732d6666
    19ec:	2f006372 	svccs	0x00006372
    19f0:	72657355 	rsbvc	r7, r5, #1409286145	; 0x54000001
    19f4:	696d2f73 	stmdbvs	sp!, {r0, r1, r4, r5, r6, r8, r9, sl, fp, sp}^
    19f8:	2f73656c 	svccs	0x0073656c
    19fc:	72756f53 	rsbsvc	r6, r5, #332	; 0x14c
    1a00:	632f6563 			; <UNDEFINED> instruction: 0x632f6563
    1a04:	30343273 	eorscc	r3, r4, r3, ror r2
    1a08:	6c2f786c 	stcvs	8, cr7, [pc], #-432	; 1860 <__code_start__-0x67a0>
    1a0c:	69706269 	ldmdbvs	r0!, {r0, r3, r5, r6, r9, sp, lr}^
    1a10:	636e692f 	cmnvs	lr, #770048	; 0xbc000
    1a14:	6564756c 	strbvs	r7, [r4, #-1388]!	; 0xfffffa94
    1a18:	75630000 	strbvc	r0, [r3, #-0]!
    1a1c:	6d6f7473 	cfstrdvs	mvd7, [pc, #-460]!	; 1858 <__code_start__-0x67a8>
    1a20:	616f6c2d 	cmnvs	pc, sp, lsr #24
    1a24:	2e726564 	cdpcs	5, 7, cr6, cr2, cr4, {3}
    1a28:	00010063 	andeq	r0, r1, r3, rrx
    1a2c:	69707200 	ldmdbvs	r0!, {r9, ip, sp, lr}^
    1a30:	0200682e 	andeq	r6, r0, #3014656	; 0x2e0000
    1a34:	05000000 	streq	r0, [r0, #-0]
    1a38:	0205001a 	andeq	r0, r5, #26, 0
    1a3c:	000095e0 	andeq	r9, r0, r0, ror #11
    1a40:	14010515 	strne	r0, [r1], #-1301	; 0xfffffaeb
    1a44:	01000202 	tsteq	r0, r2, lsl #4
    1a48:	00011401 	andeq	r1, r1, r1, lsl #8
    1a4c:	5e000300 	cdppl	3, 0, cr0, cr0, cr0, {0}
    1a50:	02000000 	andeq	r0, r0, #0, 0
    1a54:	0d0efb01 	vstreq	d15, [lr, #-4]
    1a58:	01010100 	mrseq	r0, (UNDEF: 17)
    1a5c:	00000001 	andeq	r0, r0, r1
    1a60:	01000001 	tsteq	r0, r1
    1a64:	74732f2e 	ldrbtvc	r2, [r3], #-3886	; 0xfffff0d2
    1a68:	2d666661 	stclcs	6, cr6, [r6, #-388]!	; 0xfffffe7c
    1a6c:	00637273 	rsbeq	r7, r3, r3, ror r2
    1a70:	6573552f 	ldrbvs	r5, [r3, #-1327]!	; 0xfffffad1
    1a74:	6d2f7372 	stcvs	3, cr7, [pc, #-456]!	; 18b4 <__code_start__-0x674c>
    1a78:	73656c69 	cmnvc	r5, #26880	; 0x6900
    1a7c:	756f532f 	strbvc	r5, [pc, #-815]!	; 1755 <__code_start__-0x68ab>
    1a80:	2f656372 	svccs	0x00656372
    1a84:	34327363 	ldrtcc	r7, [r2], #-867	; 0xfffffc9d
    1a88:	2f786c30 	svccs	0x00786c30
    1a8c:	7062696c 	rsbvc	r6, r2, ip, ror #18
    1a90:	6e692f69 	cdpvs	15, 6, cr2, cr9, cr9, {3}
    1a94:	64756c63 	ldrbtvs	r6, [r5], #-3171	; 0xfffff39d
    1a98:	72000065 	andvc	r0, r0, #101, 0	; 0x65
    1a9c:	6f6f6265 	svcvs	0x006f6265
    1aa0:	00632e74 	rsbeq	r2, r3, r4, ror lr
    1aa4:	72000001 	andvc	r0, r0, #1, 0
    1aa8:	682e6970 	stmdavs	lr!, {r4, r5, r6, r8, fp, sp, lr}
    1aac:	00000200 	andeq	r0, r0, r0, lsl #4
    1ab0:	00190500 	andseq	r0, r9, r0, lsl #10
    1ab4:	95fc0205 	ldrbls	r0, [ip, #517]!	; 0x205
    1ab8:	0d030000 	stceq	0, cr0, [r3, #-0]
    1abc:	13050501 	movwne	r0, #21761	; 0x5501
    1ac0:	13053113 	movwne	r3, #20755	; 0x5113
    1ac4:	01050106 	tsteq	r5, r6, lsl #2
    1ac8:	061b052f 	ldreq	r0, [fp], -pc, lsr #10
    1acc:	13050585 	movwne	r0, #21893	; 0x5585
    1ad0:	2f090514 	svccs	0x00090514
    1ad4:	01061605 	tsteq	r6, r5, lsl #12
    1ad8:	2f060505 	svccs	0x00060505
    1adc:	11060e05 	tstne	r6, r5, lsl #28
    1ae0:	052f0505 	streq	r0, [pc, #-1285]!	; 15e3 <__code_start__-0x6a1d>
    1ae4:	17052f01 	strne	r2, [r5, -r1, lsl #30]
    1ae8:	05053006 	streq	r3, [r5, #-6]
    1aec:	016e0313 	cmneq	lr, r3, lsl r3
    1af0:	17051313 	smladne	r5, r3, r3, r1
    1af4:	010f0306 	tsteq	pc, r6, lsl #6
    1af8:	71030505 	tstvc	r3, r5, lsl #10
    1afc:	0531062e 	ldreq	r0, [r1, #-1582]!	; 0xfffff9d2
    1b00:	05010613 	streq	r0, [r1, #-1555]	; 0xfffff9ed
    1b04:	2e0d0307 	cdpcs	3, 0, cr0, cr13, cr7, {0}
    1b08:	4b060905 	blmi	183f24 <__bss_end__+0x179ccc>
    1b0c:	76030605 	strvc	r0, [r3], -r5, lsl #12
    1b10:	13050501 	movwne	r0, #21761	; 0x5501
    1b14:	2f090514 	svccs	0x00090514
    1b18:	01061605 	tsteq	r6, r5, lsl #12
    1b1c:	2f060505 	svccs	0x00060505
    1b20:	11060e05 	tstne	r6, r5, lsl #28
    1b24:	2e2f0505 	cfsh64cs	mvdx0, mvdx15, #5
    1b28:	010a0306 	tsteq	sl, r6, lsl #6
    1b2c:	134d2f30 	movtne	r2, #57136	; 0xdf30
    1b30:	67151313 			; <UNDEFINED> instruction: 0x67151313
    1b34:	01040200 	mrseq	r0, R12_usr
    1b38:	000d0567 	andeq	r0, sp, r7, ror #10
    1b3c:	01010402 	tsteq	r1, r2, lsl #8
    1b40:	02000a05 	andeq	r0, r0, #20480	; 0x5000
    1b44:	05010104 	streq	r0, [r1, #-260]	; 0xfffffefc
    1b48:	04020005 	streq	r0, [r2], #-5
    1b4c:	0d050101 	stfeqs	f0, [r5, #-4]
    1b50:	01040200 	mrseq	r0, R12_usr
    1b54:	000a0501 	andeq	r0, sl, r1, lsl #10
    1b58:	01010402 	tsteq	r1, r2, lsl #8
    1b5c:	01000a02 	tsteq	r0, r2, lsl #20
    1b60:	0001fa01 	andeq	pc, r1, r1, lsl #20
    1b64:	5d000300 	stcpl	3, cr0, [r0, #-0]
    1b68:	02000000 	andeq	r0, r0, #0, 0
    1b6c:	0d0efb01 	vstreq	d15, [lr, #-4]
    1b70:	01010100 	mrseq	r0, (UNDEF: 17)
    1b74:	00000001 	andeq	r0, r0, r1
    1b78:	01000001 	tsteq	r0, r1
    1b7c:	74732f2e 	ldrbtvc	r2, [r3], #-3886	; 0xfffff0d2
    1b80:	2d666661 	stclcs	6, cr6, [r6, #-388]!	; 0xfffffe7c
    1b84:	00637273 	rsbeq	r7, r3, r3, ror r2
    1b88:	6573552f 	ldrbvs	r5, [r3, #-1327]!	; 0xfffffad1
    1b8c:	6d2f7372 	stcvs	3, cr7, [pc, #-456]!	; 19cc <__code_start__-0x6634>
    1b90:	73656c69 	cmnvc	r5, #26880	; 0x6900
    1b94:	756f532f 	strbvc	r5, [pc, #-815]!	; 186d <__code_start__-0x6793>
    1b98:	2f656372 	svccs	0x00656372
    1b9c:	34327363 	ldrtcc	r7, [r2], #-867	; 0xfffffc9d
    1ba0:	2f786c30 	svccs	0x00786c30
    1ba4:	7062696c 	rsbvc	r6, r2, ip, ror #18
    1ba8:	6e692f69 	cdpvs	15, 6, cr2, cr9, cr9, {3}
    1bac:	64756c63 	ldrbtvs	r6, [r5], #-3171	; 0xfffff39d
    1bb0:	74000065 	strvc	r0, [r0], #-101	; 0xffffff9b
    1bb4:	72656d69 	rsbvc	r6, r5, #6720	; 0x1a40
    1bb8:	0100632e 	tsteq	r0, lr, lsr #6
    1bbc:	70720000 	rsbsvc	r0, r2, r0
    1bc0:	00682e69 	rsbeq	r2, r8, r9, ror #28
    1bc4:	00000002 	andeq	r0, r0, r2
    1bc8:	05002305 	streq	r2, [r0, #-773]	; 0xfffffcfb
    1bcc:	00968802 	addseq	r8, r6, r2, lsl #16
    1bd0:	05051500 	streq	r1, [r5, #-1280]	; 0xfffffb00
    1bd4:	060c0513 			; <UNDEFINED> instruction: 0x060c0513
    1bd8:	061f0501 	ldreq	r0, [pc], -r1, lsl #10
    1bdc:	1505056a 	strne	r0, [r5, #-1386]	; 0xfffffa96
    1be0:	0f061f05 	svceq	0x00061f05
    1be4:	06310505 	ldrteq	r0, [r1], -r5, lsl #10
    1be8:	030a052f 	movweq	r0, #42287	; 0xa52f
    1bec:	05050177 	streq	r0, [r5, #-375]	; 0xfffffe89
    1bf0:	060c0513 			; <UNDEFINED> instruction: 0x060c0513
    1bf4:	05056601 	streq	r6, [r5, #-1537]	; 0xfffff9ff
    1bf8:	01090306 	tsteq	r9, r6, lsl #6
    1bfc:	0601052f 	streq	r0, [r1], -pc, lsr #10
    1c00:	061c0513 			; <UNDEFINED> instruction: 0x061c0513
    1c04:	13050568 	movwne	r0, #21864	; 0x5568
    1c08:	76030a05 	strvc	r0, [r3], -r5, lsl #20
    1c0c:	15050501 	strne	r0, [r5, #-1281]	; 0xfffffaff
    1c10:	18061c05 	stmdane	r6, {r0, r2, sl, fp, ip}
    1c14:	0305052e 	movweq	r0, #21806	; 0x552e
    1c18:	2f062e7a 	svccs	0x00062e7a
    1c1c:	77030a05 	strvc	r0, [r3, -r5, lsl #20]
    1c20:	13050501 	movwne	r0, #21761	; 0x5501
    1c24:	01060c05 	tsteq	r6, r5, lsl #24
    1c28:	06050566 	streq	r0, [r5], -r6, ror #10
    1c2c:	2f010903 	svccs	0x00010903
    1c30:	0c050106 	stfeqs	f0, [r5], {6}
    1c34:	05017603 	streq	r7, [r1, #-1539]	; 0xfffff9fd
    1c38:	0f030605 	svceq	0x00030605
    1c3c:	1309052e 	movwne	r0, #38190	; 0x952e
    1c40:	74030a05 	strvc	r0, [r3], #-2565	; 0xfffff5fb
    1c44:	15050501 	strne	r0, [r5, #-1281]	; 0xfffffaff
    1c48:	030a052f 	movweq	r0, #42287	; 0xa52f
    1c4c:	05050177 	streq	r0, [r5, #-375]	; 0xfffffe89
    1c50:	060c0513 			; <UNDEFINED> instruction: 0x060c0513
    1c54:	05056601 	streq	r6, [r5, #-1537]	; 0xfffff9ff
    1c58:	01090306 	tsteq	r9, r6, lsl #6
    1c5c:	1a061105 	bne	186078 <__bss_end__+0x17be20>
    1c60:	78030505 	stmdavc	r3, {r0, r2, r8, sl}
    1c64:	052f062e 	streq	r0, [pc, #-1582]!	; 163e <__code_start__-0x69c2>
    1c68:	0c051909 			; <UNDEFINED> instruction: 0x0c051909
    1c6c:	1c050106 	stfnes	f0, [r5], {6}
    1c70:	05058706 	streq	r8, [r5, #-1798]	; 0xfffff8fa
    1c74:	061c0513 			; <UNDEFINED> instruction: 0x061c0513
    1c78:	2f050511 	svccs	0x00050511
    1c7c:	0606054a 	streq	r0, [r6], -sl, asr #10
    1c80:	052e7603 	streq	r7, [lr, #-1539]!	; 0xfffff9fd
    1c84:	0a051305 	beq	1468a0 <__bss_end__+0x13c648>
    1c88:	05017603 	streq	r7, [r1, #-1539]	; 0xfffff9fd
    1c8c:	052f1505 	streq	r1, [pc, #-1285]!	; 178f <__code_start__-0x6871>
    1c90:	0177030a 	cmneq	r7, sl, lsl #6
    1c94:	05130505 	ldreq	r0, [r3, #-1285]	; 0xfffffafb
    1c98:	6601060c 	strvs	r0, [r1], -ip, lsl #12
    1c9c:	03060505 	movweq	r0, #25861	; 0x6505
    1ca0:	062f0109 	strteq	r0, [pc], -r9, lsl #2
    1ca4:	030c0501 	movweq	r0, #50433	; 0xc501
    1ca8:	05050176 	streq	r0, [r5, #-374]	; 0xfffffe8a
    1cac:	2e0f0306 	cdpcs	3, 0, cr0, cr15, cr6, {0}
    1cb0:	05130905 	ldreq	r0, [r3, #-2309]	; 0xfffff6fb
    1cb4:	0174030a 	cmneq	r4, sl, lsl #6
    1cb8:	2f150505 	svccs	0x00150505
    1cbc:	77030a05 	strvc	r0, [r3, -r5, lsl #20]
    1cc0:	13050501 	movwne	r0, #21761	; 0x5501
    1cc4:	01060c05 	tsteq	r6, r5, lsl #24
    1cc8:	06050566 	streq	r0, [r5], -r6, ror #10
    1ccc:	05010903 	streq	r0, [r1, #-2307]	; 0xfffff6fd
    1cd0:	051a0611 	ldreq	r0, [sl, #-1553]	; 0xfffff9ef
    1cd4:	2e780305 	cdpcs	3, 7, cr0, cr8, cr5, {0}
    1cd8:	09052f06 	stmdbeq	r5, {r1, r2, r8, r9, sl, fp, sp}
    1cdc:	060c0519 			; <UNDEFINED> instruction: 0x060c0519
    1ce0:	061e0501 	ldreq	r0, [lr], -r1, lsl #10
    1ce4:	1305058a 	movwne	r0, #21898	; 0x558a
    1ce8:	050e0605 	streq	r0, [lr, #-1541]	; 0xfffff9fb
    1cec:	1e051305 	cdpne	3, 0, cr1, cr5, cr5, {0}
    1cf0:	05051406 	streq	r1, [r5, #-1030]	; 0xfffffbfa
    1cf4:	0605662c 	streq	r6, [r5], -ip, lsr #12
    1cf8:	2e760306 	cdpcs	3, 7, cr0, cr6, cr6, {0}
    1cfc:	05130505 	ldreq	r0, [r3, #-1285]	; 0xfffffafb
    1d00:	0176030a 	cmneq	r6, sl, lsl #6
    1d04:	2f150505 	svccs	0x00150505
    1d08:	77030a05 	strvc	r0, [r3, -r5, lsl #20]
    1d0c:	13050501 	movwne	r0, #21761	; 0x5501
    1d10:	01060c05 	tsteq	r6, r5, lsl #24
    1d14:	06050566 	streq	r0, [r5], -r6, ror #10
    1d18:	2f010903 	svccs	0x00010903
    1d1c:	0c050106 	stfeqs	f0, [r5], {6}
    1d20:	05017603 	streq	r7, [r1, #-1539]	; 0xfffff9fd
    1d24:	0f030605 	svceq	0x00030605
    1d28:	1309052e 	movwne	r0, #38190	; 0x952e
    1d2c:	74030a05 	strvc	r0, [r3], #-2565	; 0xfffff5fb
    1d30:	15050501 	strne	r0, [r5, #-1281]	; 0xfffffaff
    1d34:	030a052f 	movweq	r0, #42287	; 0xa52f
    1d38:	05050177 	streq	r0, [r5, #-375]	; 0xfffffe89
    1d3c:	060c0513 			; <UNDEFINED> instruction: 0x060c0513
    1d40:	05056601 	streq	r6, [r5, #-1537]	; 0xfffff9ff
    1d44:	01090306 	tsteq	r9, r6, lsl #6
    1d48:	1a061105 	bne	186164 <__bss_end__+0x17bf0c>
    1d4c:	78030505 	stmdavc	r3, {r0, r2, r8, sl}
    1d50:	052f062e 	streq	r0, [pc, #-1582]!	; 172a <__code_start__-0x68d6>
    1d54:	0c051909 			; <UNDEFINED> instruction: 0x0c051909
    1d58:	08020106 	stmdaeq	r2, {r1, r2, r8}
    1d5c:	05010100 	streq	r0, [r1, #-256]	; 0xffffff00
    1d60:	03000002 	movweq	r0, #2
    1d64:	0000c900 	andeq	ip, r0, r0, lsl #18
    1d68:	fb010200 	blx	42572 <__bss_end__+0x3831a>
    1d6c:	01000d0e 	tsteq	r0, lr, lsl #26
    1d70:	00010101 	andeq	r0, r1, r1, lsl #2
    1d74:	00010000 	andeq	r0, r1, r0
    1d78:	682f0100 	stmdavs	pc!, {r8}	; <UNPREDICTABLE>
    1d7c:	2f656d6f 	svccs	0x00656d6f
    1d80:	6c676e65 	stclvs	14, cr6, [r7], #-404	; 0xfffffe6c
    1d84:	632f7265 			; <UNDEFINED> instruction: 0x632f7265
    1d88:	7373616c 	cmnvc	r3, #27
    1d8c:	3273632f 	rsbscc	r6, r3, #-1140850688	; 0xbc000000
    1d90:	786c3034 	stmdavc	ip!, {r2, r4, r5, ip, sp}^
    1d94:	7332322d 	teqvc	r2, #-805306366	; 0xd0000002
    1d98:	2f2f7270 	svccs	0x002f7270
    1d9c:	7062696c 	rsbvc	r6, r2, ip, ror #18
    1da0:	6e692f69 	cdpvs	15, 6, cr2, cr9, cr9, {3}
    1da4:	64756c63 	ldrbtvs	r6, [r5], #-3171	; 0xfffff39d
    1da8:	752f0065 	strvc	r0, [pc, #-101]!	; 1d4b <__code_start__-0x62b5>
    1dac:	732f7273 			; <UNDEFINED> instruction: 0x732f7273
    1db0:	65726168 	ldrbvs	r6, [r2, #-360]!	; 0xfffffe98
    1db4:	6363672f 	cmnvs	r3, #12320768	; 0xbc0000
    1db8:	6d72612d 	ldfvse	f6, [r2, #-180]!	; 0xffffff4c
    1dbc:	6e6f6e2d 	cdpvs	14, 6, cr6, cr15, cr13, {1}
    1dc0:	61652d65 	cmnvs	r5, r5, ror #26
    1dc4:	312d6962 			; <UNDEFINED> instruction: 0x312d6962
    1dc8:	2d332e30 	ldccs	14, cr2, [r3, #-192]!	; 0xffffff40
    1dcc:	31323032 	teqcc	r2, r2, lsr r0
    1dd0:	2f30312e 	svccs	0x0030312e
    1dd4:	2f62696c 	svccs	0x0062696c
    1dd8:	2f636367 	svccs	0x00636367
    1ddc:	2d6d7261 	sfmcs	f7, 2, [sp, #-388]!	; 0xfffffe7c
    1de0:	656e6f6e 	strbvs	r6, [lr, #-3950]!	; 0xfffff092
    1de4:	6261652d 	rsbvs	r6, r1, #188743680	; 0xb400000
    1de8:	30312f69 	eorscc	r2, r1, r9, ror #30
    1dec:	312e332e 			; <UNDEFINED> instruction: 0x312e332e
    1df0:	636e692f 	cmnvs	lr, #770048	; 0xbc000
    1df4:	6564756c 	strbvs	r7, [r4, #-1388]!	; 0xfffffa94
    1df8:	61750000 	cmnvs	r5, r0
    1dfc:	632e7472 			; <UNDEFINED> instruction: 0x632e7472
    1e00:	00000000 	andeq	r0, r0, r0
    1e04:	74726175 	ldrbtvc	r6, [r2], #-373	; 0xfffffe8b
    1e08:	0100682e 	tsteq	r0, lr, lsr #16
    1e0c:	70720000 	rsbsvc	r0, r2, r0
    1e10:	00682e69 	rsbeq	r2, r8, r9, ror #28
    1e14:	67000001 	strvs	r0, [r0, -r1]
    1e18:	2e6f6970 			; <UNDEFINED> instruction: 0x2e6f6970
    1e1c:	00010068 	andeq	r0, r1, r8, rrx
    1e20:	64747300 	ldrbtvs	r7, [r4], #-768	; 0xfffffd00
    1e24:	2d746e69 	ldclcs	14, cr6, [r4, #-420]!	; 0xfffffe5c
    1e28:	2e636367 	cdpcs	3, 6, cr6, cr3, cr7, {3}
    1e2c:	00020068 	andeq	r0, r2, r8, rrx
    1e30:	39050000 	stmdbcc	r5, {}	; <UNPREDICTABLE>
    1e34:	a4020500 	strge	r0, [r2], #-1280	; 0xfffffb00
    1e38:	03000097 	movweq	r0, #151	; 0x97
    1e3c:	01060130 	tsteq	r6, r0, lsr r1
    1e40:	67060505 	strvs	r0, [r6, -r5, lsl #10]
    1e44:	01061105 	tsteq	r6, r5, lsl #2
    1e48:	052e0505 	streq	r0, [lr, #-1285]!	; 0xfffffafb
    1e4c:	38056701 	stmdacc	r5, {r0, r8, r9, sl, sp, lr}
    1e50:	01062906 	tsteq	r6, r6, lsl #18
    1e54:	67060505 	strvs	r0, [r6, -r5, lsl #10]
    1e58:	01061105 	tsteq	r6, r5, lsl #2
    1e5c:	052e0505 	streq	r0, [lr, #-1285]!	; 0xfffffafb
    1e60:	16056701 	strne	r6, [r5], -r1, lsl #14
    1e64:	2e150306 	cdpcs	3, 1, cr0, cr5, cr6, {0}
    1e68:	67350505 	ldrvs	r0, [r5, -r5, lsl #10]!
    1e6c:	03683568 	cmneq	r8, #104, 10	; 0x1a000000
    1e70:	6b852e0c 	blvs	fe14d6a8 <__bss_end__+0xfe143450>
    1e74:	0c036969 			; <UNDEFINED> instruction: 0x0c036969
    1e78:	676b1366 	strbvs	r1, [fp, -r6, ror #6]!
    1e7c:	2f060105 	svccs	0x00060105
    1e80:	08061905 	stmdaeq	r6, {r0, r2, r8, fp, ip}
    1e84:	34050525 	strcc	r0, [r5], #-1317	; 0xfffffadb
    1e88:	01060d05 	tsteq	r6, r5, lsl #26
    1e8c:	054c0105 	strbeq	r0, [ip, #-261]	; 0xfffffefb
    1e90:	05670619 	strbeq	r0, [r7, #-1561]!	; 0xfffff9e7
    1e94:	0d053605 	stceq	6, cr3, [r5, #-20]	; 0xffffffec
    1e98:	28050106 	stmdacs	r5, {r1, r2, r8}
    1e9c:	3001054a 	andcc	r0, r1, sl, asr #10
    1ea0:	87061505 	strhi	r1, [r6, -r5, lsl #10]
    1ea4:	2f2f0505 	svccs	0x002f0505
    1ea8:	02000905 	andeq	r0, r0, #81920	; 0x14000
    1eac:	05130104 	ldreq	r0, [r3, #-260]	; 0xfffffefc
    1eb0:	0402000a 	streq	r0, [r2], #-10
    1eb4:	0c051101 	stfeqs	f1, [r5], {1}
    1eb8:	01040200 	mrseq	r0, R12_usr
    1ebc:	0a050106 	beq	1422dc <__bss_end__+0x138084>
    1ec0:	01040200 	mrseq	r0, R12_usr
    1ec4:	0605052e 	streq	r0, [r5], -lr, lsr #10
    1ec8:	060e054c 	streq	r0, [lr], -ip, asr #10
    1ecc:	4a090501 	bmi	2432d8 <__bss_end__+0x239080>
    1ed0:	2f060505 	svccs	0x00060505
    1ed4:	0601052f 	streq	r0, [r1], -pc, lsr #10
    1ed8:	061c0513 			; <UNDEFINED> instruction: 0x061c0513
    1edc:	05010667 	streq	r0, [r1, #-1639]	; 0xfffff999
    1ee0:	2f4b0605 	svccs	0x004b0605
    1ee4:	02000905 	andeq	r0, r0, #81920	; 0x14000
    1ee8:	05130104 	ldreq	r0, [r3, #-260]	; 0xfffffefc
    1eec:	0402000a 	streq	r0, [r2], #-10
    1ef0:	0c051101 	stfeqs	f1, [r5], {1}
    1ef4:	01040200 	mrseq	r0, R12_usr
    1ef8:	0a050106 	beq	142318 <__bss_end__+0x1380c0>
    1efc:	01040200 	mrseq	r0, R12_usr
    1f00:	0605052e 	streq	r0, [r5], -lr, lsr #10
    1f04:	0105674c 	tsteq	r5, ip, asr #14
    1f08:	19052f06 	stmdbne	r5, {r1, r2, r8, r9, sl, fp, sp}
    1f0c:	1b054c06 	blne	154f2c <__bss_end__+0x14acd4>
    1f10:	2e2a052e 	cfsh64cs	mvdx0, mvdx10, #30
    1f14:	01063105 	tsteq	r6, r5, lsl #2
    1f18:	052e4205 	streq	r4, [lr, #-517]!	; 0xfffffdfb
    1f1c:	0531061c 	ldreq	r0, [r1, #-1564]!	; 0xfffff9e4
    1f20:	09032f05 	stmdbeq	r3, {r0, r2, r8, r9, sl, fp, sp}
    1f24:	060e052e 	streq	r0, [lr], -lr, lsr #10
    1f28:	4a210501 	bmi	843334 <__bss_end__+0x8390dc>
    1f2c:	0a030105 	beq	c2348 <__bss_end__+0xb80f0>
    1f30:	061a052e 	ldreq	r0, [sl], -lr, lsr #10
    1f34:	00090568 	andeq	r0, r9, r8, ror #10
    1f38:	30010402 	andcc	r0, r1, r2, lsl #8
    1f3c:	02000a05 	andeq	r0, r0, #20480	; 0x5000
    1f40:	05110104 	ldreq	r0, [r1, #-260]	; 0xfffffefc
    1f44:	0402000c 	streq	r0, [r2], #-12
    1f48:	05010601 	streq	r0, [r1, #-1537]	; 0xfffff9ff
    1f4c:	0402000a 	streq	r0, [r2], #-10
    1f50:	19052e01 	stmdbne	r5, {r0, r9, sl, fp, sp}
    1f54:	7ee80306 	cdpvc	3, 14, cr0, cr8, cr6, {0}
    1f58:	2f050566 	svccs	0x00050566
    1f5c:	05672f2f 	strbeq	r2, [r7, #-3887]!	; 0xfffff0d1
    1f60:	022f0601 	eoreq	r0, pc, #1048576	; 0x100000
    1f64:	01010004 	tsteq	r1, r4
    1f68:	000000e2 	andeq	r0, r0, r2, ror #1
    1f6c:	00590003 	subseq	r0, r9, r3
    1f70:	01020000 	mrseq	r0, (UNDEF: 2)
    1f74:	000d0efb 	strdeq	r0, [sp], -fp
    1f78:	01010101 	tsteq	r1, r1, lsl #2
    1f7c:	01000000 	mrseq	r0, (UNDEF: 0)
    1f80:	2e010000 	cdpcs	0, 0, cr0, cr1, cr0, {0}
    1f84:	62696c2f 	rsbvs	r6, r9, #12032	; 0x2f00
    1f88:	552f0063 	strpl	r0, [pc, #-99]!	; 1f2d <__code_start__-0x60d3>
    1f8c:	73726573 	cmnvc	r2, #482344960	; 0x1cc00000
    1f90:	6c696d2f 	stclvs	13, cr6, [r9], #-188	; 0xffffff44
    1f94:	532f7365 			; <UNDEFINED> instruction: 0x532f7365
    1f98:	6372756f 	cmnvs	r2, #465567744	; 0x1bc00000
    1f9c:	73632f65 	cmnvc	r3, #404	; 0x194
    1fa0:	6c303432 	cfldrsvs	mvf3, [r0], #-200	; 0xffffff38
    1fa4:	696c2f78 	stmdbvs	ip!, {r3, r4, r5, r6, r8, r9, sl, fp, sp}^
    1fa8:	2f697062 	svccs	0x00697062
    1fac:	6c636e69 	stclvs	14, cr6, [r3], #-420	; 0xfffffe5c
    1fb0:	00656475 	rsbeq	r6, r5, r5, ror r4
    1fb4:	72747300 	rsbsvc	r7, r4, #0, 6
    1fb8:	2e746163 	rpwcssz	f6, f4, f3
    1fbc:	00010063 	andeq	r0, r1, r3, rrx
    1fc0:	69707200 	ldmdbvs	r0!, {r9, ip, sp, lr}^
    1fc4:	0200682e 	andeq	r6, r0, #3014656	; 0x2e0000
    1fc8:	05000000 	streq	r0, [r0, #-0]
    1fcc:	0205002c 	andeq	r0, r5, #44, 0	; 0x2c
    1fd0:	00009994 	muleq	r0, r4, r9
    1fd4:	13050515 	movwne	r0, #21781	; 0x5515
    1fd8:	060b0513 			; <UNDEFINED> instruction: 0x060b0513
    1fdc:	00050511 	andeq	r0, r5, r1, lsl r5
    1fe0:	06010402 	streq	r0, [r1], -r2, lsl #8
    1fe4:	04020030 	streq	r0, [r2], #-48	; 0xffffffd0
    1fe8:	09051501 	stmdbeq	r5, {r0, r8, sl, ip}
    1fec:	01040200 	mrseq	r0, R12_usr
    1ff0:	000b0513 	andeq	r0, fp, r3, lsl r5
    1ff4:	2f010402 	svccs	0x00010402
    1ff8:	02000505 	andeq	r0, r0, #20971520	; 0x1400000
    1ffc:	01060104 	tsteq	r6, r4, lsl #2
    2000:	01040200 	mrseq	r0, R12_usr
    2004:	054e062e 	strbeq	r0, [lr, #-1582]	; 0xfffff9d2
    2008:	05010608 	streq	r0, [r1, #-1544]	; 0xfffff9f8
    200c:	04020005 	streq	r0, [r2], #-5
    2010:	052f0601 	streq	r0, [pc, #-1537]!	; 1a17 <__code_start__-0x65e9>
    2014:	04020009 	streq	r0, [r2], #-9
    2018:	0b051301 	bleq	146c24 <__bss_end__+0x13c9cc>
    201c:	01040200 	mrseq	r0, R12_usr
    2020:	09050106 	stmdbeq	r5, {r1, r2, r8}
    2024:	01040200 	mrseq	r0, R12_usr
    2028:	05052f06 	streq	r2, [r5, #-3846]	; 0xfffff0fa
    202c:	01040200 	mrseq	r0, R12_usr
    2030:	0f051306 	svceq	0x00051306
    2034:	01040200 	mrseq	r0, R12_usr
    2038:	000d052d 	andeq	r0, sp, sp, lsr #10
    203c:	06010402 	streq	r0, [r1], -r2, lsl #8
    2040:	0005052f 	andeq	r0, r5, pc, lsr #10
    2044:	06010402 	streq	r0, [r1], -r2, lsl #8
    2048:	00040201 	andeq	r0, r4, r1, lsl #4
    204c:	00b20101 	adcseq	r0, r2, r1, lsl #2
    2050:	00030000 	andeq	r0, r3, r0
    2054:	00000059 	andeq	r0, r0, r9, asr r0
    2058:	0efb0102 	cdpeq	1, 15, cr0, cr11, cr2, {0}
    205c:	0101000d 	tsteq	r1, sp
    2060:	00000101 	andeq	r0, r0, r1, lsl #2
    2064:	00000100 	andeq	r0, r0, r0, lsl #2
    2068:	6c2f2e01 	stcvs	14, cr2, [pc], #-4	; 206c <__code_start__-0x5f94>
    206c:	00636269 	rsbeq	r6, r3, r9, ror #4
    2070:	6573552f 	ldrbvs	r5, [r3, #-1327]!	; 0xfffffad1
    2074:	6d2f7372 	stcvs	3, cr7, [pc, #-456]!	; 1eb4 <__code_start__-0x614c>
    2078:	73656c69 	cmnvc	r5, #26880	; 0x6900
    207c:	756f532f 	strbvc	r5, [pc, #-815]!	; 1d55 <__code_start__-0x62ab>
    2080:	2f656372 	svccs	0x00656372
    2084:	34327363 	ldrtcc	r7, [r2], #-867	; 0xfffffc9d
    2088:	2f786c30 	svccs	0x00786c30
    208c:	7062696c 	rsbvc	r6, r2, ip, ror #18
    2090:	6e692f69 	cdpvs	15, 6, cr2, cr9, cr9, {3}
    2094:	64756c63 	ldrbtvs	r6, [r5], #-3171	; 0xfffff39d
    2098:	73000065 	movwvc	r0, #101	; 0x65
    209c:	6d637274 	sfmvs	f7, 2, [r3, #-464]!	; 0xfffffe30
    20a0:	00632e70 	rsbeq	r2, r3, r0, ror lr
    20a4:	72000001 	andvc	r0, r0, #1, 0
    20a8:	682e6970 	stmdavs	lr!, {r4, r5, r6, r8, fp, sp, lr}
    20ac:	00000200 	andeq	r0, r0, r0, lsl #4
    20b0:	002a0500 	eoreq	r0, sl, r0, lsl #10
    20b4:	99c00205 	stmibls	r0, {r0, r2, r9}^
    20b8:	05140000 	ldreq	r0, [r4, #-0]
    20bc:	10051309 	andne	r1, r5, r9, lsl #6
    20c0:	0f050106 	svceq	0x00050106
    20c4:	10052e06 	andne	r2, r5, r6, lsl #28
    20c8:	0f058206 	svceq	0x00058206
    20cc:	0011052e 	andseq	r0, r1, lr, lsr #10
    20d0:	06010402 	streq	r0, [r1], -r2, lsl #8
    20d4:	001c054b 	andseq	r0, ip, fp, asr #10
    20d8:	06010402 	streq	r0, [r1], -r2, lsl #8
    20dc:	000f052d 	andeq	r0, pc, sp, lsr #10
    20e0:	06010402 	streq	r0, [r1], -r2, lsl #8
    20e4:	0013052e 	andseq	r0, r3, lr, lsr #10
    20e8:	06010402 	streq	r0, [r1], -r2, lsl #8
    20ec:	06090501 	streq	r0, [r9], -r1, lsl #10
    20f0:	0601054c 	streq	r0, [r1], -ip, asr #10
    20f4:	09054a13 	stmdbeq	r5, {r0, r1, r4, r9, fp, lr}
    20f8:	01052d06 	tsteq	r5, r6, lsl #26
    20fc:	022e1306 	eoreq	r1, lr, #402653184	; 0x18000000
    2100:	01010002 	tsteq	r1, r2
    2104:	0000009d 	muleq	r0, sp, r0
    2108:	00590003 	subseq	r0, r9, r3
    210c:	01020000 	mrseq	r0, (UNDEF: 2)
    2110:	000d0efb 	strdeq	r0, [sp], -fp
    2114:	01010101 	tsteq	r1, r1, lsl #2
    2118:	01000000 	mrseq	r0, (UNDEF: 0)
    211c:	2e010000 	cdpcs	0, 0, cr0, cr1, cr0, {0}
    2120:	62696c2f 	rsbvs	r6, r9, #12032	; 0x2f00
    2124:	552f0063 	strpl	r0, [pc, #-99]!	; 20c9 <__code_start__-0x5f37>
    2128:	73726573 	cmnvc	r2, #482344960	; 0x1cc00000
    212c:	6c696d2f 	stclvs	13, cr6, [r9], #-188	; 0xffffff44
    2130:	532f7365 			; <UNDEFINED> instruction: 0x532f7365
    2134:	6372756f 	cmnvs	r2, #465567744	; 0x1bc00000
    2138:	73632f65 	cmnvc	r3, #404	; 0x194
    213c:	6c303432 	cfldrsvs	mvf3, [r0], #-200	; 0xffffff38
    2140:	696c2f78 	stmdbvs	ip!, {r3, r4, r5, r6, r8, r9, sl, fp, sp}^
    2144:	2f697062 	svccs	0x00697062
    2148:	6c636e69 	stclvs	14, cr6, [r3], #-420	; 0xfffffe5c
    214c:	00656475 	rsbeq	r6, r5, r5, ror r4
    2150:	72747300 	rsbsvc	r7, r4, #0, 6
    2154:	2e797063 	cdpcs	0, 7, cr7, cr9, cr3, {3}
    2158:	00010063 	andeq	r0, r1, r3, rrx
    215c:	69707200 	ldmdbvs	r0!, {r9, ip, sp, lr}^
    2160:	0200682e 	andeq	r6, r0, #3014656	; 0x2e0000
    2164:	05000000 	streq	r0, [r0, #-0]
    2168:	0205002a 	andeq	r0, r5, #42, 0	; 0x2a
    216c:	00009a04 	andeq	r9, r0, r4, lsl #20
    2170:	13050514 	movwne	r0, #21780	; 0x5514
    2174:	00220513 	eoreq	r0, r2, r3, lsl r5
    2178:	2e010402 	cdpcs	4, 0, cr0, cr1, cr2, {0}
    217c:	02000b05 	andeq	r0, r0, #5120	; 0x1400
    2180:	05010104 	streq	r0, [r1, #-260]	; 0xfffffefc
    2184:	04020015 	streq	r0, [r2], #-21	; 0xffffffeb
    2188:	05010601 	streq	r0, [r1, #-1537]	; 0xfffff9ff
    218c:	0402000b 	streq	r0, [r2], #-11
    2190:	13052e01 	movwne	r2, #24065	; 0x5e01
    2194:	01040200 	mrseq	r0, R12_usr
    2198:	000b052e 	andeq	r0, fp, lr, lsr #10
    219c:	2e010402 	cdpcs	4, 0, cr0, cr1, cr2, {0}
    21a0:	01000402 	tsteq	r0, r2, lsl #8
    21a4:	0000fd01 	andeq	pc, r0, r1, lsl #26
    21a8:	bf000300 	svclt	0x00000300
    21ac:	02000000 	andeq	r0, r0, #0, 0
    21b0:	0d0efb01 	vstreq	d15, [lr, #-4]
    21b4:	01010100 	mrseq	r0, (UNDEF: 17)
    21b8:	00000001 	andeq	r0, r0, r1
    21bc:	01000001 	tsteq	r0, r1
    21c0:	696c2f2e 	stmdbvs	ip!, {r1, r2, r3, r5, r8, r9, sl, fp, sp}^
    21c4:	2f006362 	svccs	0x00006362
    21c8:	72657355 	rsbvc	r7, r5, #1409286145	; 0x54000001
    21cc:	696d2f73 	stmdbvs	sp!, {r0, r1, r4, r5, r6, r8, r9, sl, fp, sp}^
    21d0:	2f73656c 	svccs	0x0073656c
    21d4:	72756f53 	rsbsvc	r6, r5, #332	; 0x14c
    21d8:	632f6563 			; <UNDEFINED> instruction: 0x632f6563
    21dc:	30343273 	eorscc	r3, r4, r3, ror r2
    21e0:	6c2f786c 	stcvs	8, cr7, [pc], #-432	; 2038 <__code_start__-0x5fc8>
    21e4:	69706269 	ldmdbvs	r0!, {r0, r3, r5, r6, r9, sp, lr}^
    21e8:	636e692f 	cmnvs	lr, #770048	; 0xbc000
    21ec:	6564756c 	strbvs	r7, [r4, #-1388]!	; 0xfffffa94
    21f0:	706f2f00 	rsbvc	r2, pc, r0, lsl #30
    21f4:	6f682f74 	svcvs	0x00682f74
    21f8:	7262656d 	rsbvc	r6, r2, #457179136	; 0x1b400000
    21fc:	432f7765 			; <UNDEFINED> instruction: 0x432f7765
    2200:	616c6c65 	cmnvs	ip, r5, ror #24
    2204:	72612f72 	rsbvc	r2, r1, #456	; 0x1c8
    2208:	6f6e2d6d 	svcvs	0x006e2d6d
    220c:	652d656e 	strvs	r6, [sp, #-1390]!	; 0xfffffa92
    2210:	2d696261 	sfmcs	f6, 2, [r9, #-388]!	; 0xfffffe7c
    2214:	2d392f39 	ldccs	15, cr2, [r9, #-228]!	; 0xffffff1c
    2218:	39313032 	ldmdbcc	r1!, {r1, r4, r5, ip, sp}
    221c:	632d3471 			; <UNDEFINED> instruction: 0x632d3471
    2220:	37303173 			; <UNDEFINED> instruction: 0x37303173
    2224:	696c2f65 	stmdbvs	ip!, {r0, r2, r5, r6, r8, r9, sl, fp, sp}^
    2228:	63672f62 	cmnvs	r7, #392	; 0x188
    222c:	72612f63 	rsbvc	r2, r1, #396	; 0x18c
    2230:	6f6e2d6d 	svcvs	0x006e2d6d
    2234:	652d656e 	strvs	r6, [sp, #-1390]!	; 0xfffffa92
    2238:	2f696261 	svccs	0x00696261
    223c:	2e322e39 	mrccs	14, 1, r2, cr2, cr9, {1}
    2240:	6e692f31 	mcrvs	15, 3, r2, cr9, cr1, {1}
    2244:	64756c63 	ldrbtvs	r6, [r5], #-3171	; 0xfffff39d
    2248:	73000065 	movwvc	r0, #101	; 0x65
    224c:	636e7274 	cmnvs	lr, #116, 4	; 0x40000007
    2250:	632e706d 			; <UNDEFINED> instruction: 0x632e706d
    2254:	00000100 	andeq	r0, r0, r0, lsl #2
    2258:	2e697072 	mcrcs	0, 3, r7, cr9, cr2, {3}
    225c:	00020068 	andeq	r0, r2, r8, rrx
    2260:	64747300 	ldrbtvs	r7, [r4], #-768	; 0xfffffd00
    2264:	2e666564 	cdpcs	5, 6, cr6, cr6, cr4, {3}
    2268:	00030068 	andeq	r0, r3, r8, rrx
    226c:	39050000 	stmdbcc	r5, {}	; <UNPREDICTABLE>
    2270:	1c020500 	cfstr32ne	mvfx0, [r2], {-0}
    2274:	1500009a 	strne	r0, [r0, #-154]	; 0xffffff66
    2278:	13130505 	tstne	r3, #20971520	; 0x1400000
    227c:	2e060a05 	vmlacs.f32	s0, s12, s10
    2280:	052f0c05 	streq	r0, [pc, #-3077]!	; 1683 <__code_start__-0x697d>
    2284:	0b052e13 	bleq	14dad8 <__bss_end__+0x143880>
    2288:	0609052e 	streq	r0, [r9], -lr, lsr #10
    228c:	110a054a 	tstne	sl, sl, asr #10
    2290:	0c050106 	stfeqs	f0, [r5], {6}
    2294:	2f01054e 	svccs	0x0001054e
    2298:	2b060d05 	blcs	1856b4 <__bss_end__+0x17b45c>
    229c:	01061b05 	tsteq	r6, r5, lsl #22
    22a0:	0002022e 	andeq	r0, r2, lr, lsr #4
    22a4:	008a0101 	addeq	r0, sl, r1, lsl #2
    22a8:	00030000 	andeq	r0, r3, r0
    22ac:	0000006e 	andeq	r0, r0, lr, rrx
    22b0:	0efb0102 	cdpeq	1, 15, cr0, cr11, cr2, {0}
    22b4:	0101000d 	tsteq	r1, sp
    22b8:	00000101 	andeq	r0, r0, r1, lsl #2
    22bc:	00000100 	andeq	r0, r0, r0, lsl #2
    22c0:	732f2e01 			; <UNDEFINED> instruction: 0x732f2e01
    22c4:	66666174 			; <UNDEFINED> instruction: 0x66666174
    22c8:	6372732d 	cmnvs	r2, #-1275068416	; 0xb4000000
    22cc:	73552f00 	cmpvc	r5, #0, 30
    22d0:	2f737265 	svccs	0x00737265
    22d4:	656c696d 	strbvs	r6, [ip, #-2413]!	; 0xfffff693
    22d8:	6f532f73 	svcvs	0x00532f73
    22dc:	65637275 	strbvs	r7, [r3, #-629]!	; 0xfffffd8b
    22e0:	3273632f 	rsbscc	r6, r3, #-1140850688	; 0xbc000000
    22e4:	786c3034 	stmdavc	ip!, {r2, r4, r5, ip, sp}^
    22e8:	62696c2f 	rsbvs	r6, r9, #12032	; 0x2f00
    22ec:	692f6970 	stmdbvs	pc!, {r4, r5, r6, r8, fp, sp, lr}	; <UNPREDICTABLE>
    22f0:	756c636e 	strbvc	r6, [ip, #-878]!	; 0xfffffc92
    22f4:	00006564 	andeq	r6, r0, r4, ror #10
    22f8:	61666564 	cmnvs	r6, r4, ror #10
    22fc:	2d746c75 	ldclcs	12, cr6, [r4, #-468]!	; 0xfffffe2c
    2300:	6f626572 	svcvs	0x00626572
    2304:	632d746f 			; <UNDEFINED> instruction: 0x632d746f
    2308:	6f6c6c61 	svcvs	0x006c6c61
    230c:	632e7475 			; <UNDEFINED> instruction: 0x632e7475
    2310:	00000100 	andeq	r0, r0, r0, lsl #2
    2314:	2e697072 	mcrcs	0, 3, r7, cr9, cr2, {3}
    2318:	00020068 	andeq	r0, r2, r8, rrx
    231c:	1b050000 	blne	142324 <__bss_end__+0x1380cc>
    2320:	4c020500 	cfstr32mi	mvfx0, [r2], {-0}
    2324:	1400009a 	strne	r0, [r0], #-154	; 0xffffff66
    2328:	05011c05 	streq	r1, [r1, #-3077]	; 0xfffff3fb
    232c:	02010601 	andeq	r0, r1, #1048576	; 0x100000
    2330:	01010002 	tsteq	r1, r2

Disassembly of section .debug_str:

00000000 <.debug_str>:
   0:	666e6f63 	strbtvs	r6, [lr], -r3, ror #30
   4:	725f6769 	subsvc	r6, pc, #27525120	; 0x1a40000
   8:	63006765 	movwvs	r6, #1893	; 0x765
   c:	65766e6f 	ldrbvs	r6, [r6, #-3695]!	; 0xfffff191
  10:	6f697372 	svcvs	0x00697372
  14:	65725f6e 	ldrbvs	r5, [r2, #-3950]!	; 0xfffff092
  18:	6f6e0067 	svcvs	0x006e0067
  1c:	69616d74 	stmdbvs	r1!, {r2, r4, r5, r6, r8, sl, fp, sp, lr}^
  20:	6e75006e 	cdpvs	0, 7, cr0, cr5, cr14, {3}
  24:	6e676973 			; <UNDEFINED> instruction: 0x6e676973
  28:	63206465 			; <UNDEFINED> instruction: 0x63206465
  2c:	00726168 	rsbseq	r6, r2, r8, ror #2
  30:	616c6564 	cmnvs	ip, r4, ror #10
  34:	736d5f79 	cmnvc	sp, #484	; 0x1e4
  38:	6f687300 	svcvs	0x00687300
  3c:	75207472 	strvc	r7, [r0, #-1138]!	; 0xfffffb8e
  40:	6769736e 	strbvs	r7, [r9, -lr, ror #6]!
  44:	2064656e 	rsbcs	r6, r4, lr, ror #10
  48:	00746e69 	rsbseq	r6, r4, r9, ror #28
  4c:	31736461 	cmncc	r3, r1, ror #8
  50:	5f353131 	svcpl	0x00353131
  54:	64616572 	strbtvs	r6, [r1], #-1394	; 0xfffffa8e
  58:	61003631 	tstvs	r0, r1, lsr r6
  5c:	31317364 	teqcc	r1, r4, ror #6
  60:	635f3531 	cmpvs	pc, #205520896	; 0xc400000
  64:	69666e6f 	stmdbvs	r6!, {r0, r1, r2, r3, r5, r6, r9, sl, fp, sp, lr}^
  68:	72640067 	rsbvc	r0, r4, #103, 0	; 0x67
  6c:	72657669 	rsbvc	r7, r5, #110100480	; 0x6900000
  70:	6c00632e 	stcvs	3, cr6, [r0], {46}	; 0x2e
  74:	20676e6f 	rsbcs	r6, r7, pc, ror #28
  78:	676e6f6c 	strbvs	r6, [lr, -ip, ror #30]!
  7c:	736e7520 	cmnvc	lr, #32, 10	; 0x8000000
  80:	656e6769 	strbvs	r6, [lr, #-1897]!	; 0xfffff897
  84:	6e692064 	cdpvs	0, 6, cr2, cr9, cr4, {3}
  88:	6f6c0074 	svcvs	0x006c0074
  8c:	6c20676e 	stcvs	7, cr6, [r0], #-440	; 0xfffffe48
  90:	20676e6f 	rsbcs	r6, r7, pc, ror #28
  94:	00746e69 	rsbseq	r6, r4, r9, ror #28
  98:	5f697072 	svcpl	0x00697072
  9c:	63747570 	cmnvs	r4, #112, 10	; 0x1c000000
  a0:	00726168 	rsbseq	r6, r2, r8, ror #2
  a4:	726f6873 	rsbvc	r6, pc, #7536640	; 0x730000
  a8:	6e692074 	mcrvs	0, 3, r2, cr9, cr4, {3}
  ac:	552f0074 	strpl	r0, [pc, #-116]!	; 40 <__code_start__-0x7fc0>
  b0:	73726573 	cmnvc	r2, #482344960	; 0x1cc00000
  b4:	6c696d2f 	stclvs	13, cr6, [r9], #-188	; 0xffffff44
  b8:	532f7365 			; <UNDEFINED> instruction: 0x532f7365
  bc:	6372756f 	cmnvs	r2, #465567744	; 0x1bc00000
  c0:	73632f65 	cmnvc	r3, #404	; 0x194
  c4:	6c303432 	cfldrsvs	mvf3, [r0], #-200	; 0xffffff38
  c8:	616c2f78 	smcvs	49912	; 0xc2f8
  cc:	382f7362 	stmdacc	pc!, {r1, r5, r6, r8, r9, ip, sp, lr}	; <UNPREDICTABLE>
  d0:	6332692d 	teqvs	r2, #737280	; 0xb4000
  d4:	6364612d 	cmnvs	r4, #1073741835	; 0x4000000b
  d8:	646f632f 	strbtvs	r6, [pc], #-815	; e0 <__code_start__-0x7f20>
  dc:	65640065 	strbvs	r0, [r4, #-101]!	; 0xffffff9b
  e0:	64615f76 	strbtvs	r5, [r1], #-3958	; 0xfffff08a
  e4:	47007264 	strmi	r7, [r0, -r4, ror #4]
  e8:	4320554e 			; <UNDEFINED> instruction: 0x4320554e
  ec:	39203939 	stmdbcc	r0!, {r0, r3, r4, r5, r8, fp, ip, sp}
  f0:	312e322e 			; <UNDEFINED> instruction: 0x312e322e
  f4:	31303220 	teqcc	r0, r0, lsr #4
  f8:	32303139 	eorscc	r3, r0, #1073741838	; 0x4000000e
  fc:	72282035 	eorvc	r2, r8, #53, 0	; 0x35
 100:	61656c65 	cmnvs	r5, r5, ror #24
 104:	20296573 	eorcs	r6, r9, r3, ror r5
 108:	4d52415b 	ldfmie	f4, [r2, #-364]	; 0xfffffe94
 10c:	6d72612f 	ldfvse	f6, [r2, #-188]!	; 0xffffff44
 110:	622d392d 	eorvs	r3, sp, #737280	; 0xb4000
 114:	636e6172 	cmnvs	lr, #-2147483620	; 0x8000001c
 118:	65722068 	ldrbvs	r2, [r2, #-104]!	; 0xffffff98
 11c:	69736976 	ldmdbvs	r3!, {r1, r2, r4, r5, r6, r8, fp, sp, lr}^
 120:	32206e6f 	eorcc	r6, r0, #1776	; 0x6f0
 124:	39353737 	ldmdbcc	r5!, {r0, r1, r2, r4, r5, r8, r9, sl, ip, sp}
 128:	2d205d39 	stccs	13, cr5, [r0, #-228]!	; 0xffffff1c
 12c:	7570636d 	ldrbvc	r6, [r0, #-877]!	; 0xfffffc93
 130:	6d72613d 	ldfvse	f6, [r2, #-244]!	; 0xffffff0c
 134:	36373131 			; <UNDEFINED> instruction: 0x36373131
 138:	2d667a6a 	vstmdbcs	r6!, {s15-s120}
 13c:	6d2d2073 	stcvs	0, cr2, [sp, #-460]!	; 0xfffffe34
 140:	656e7574 	strbvs	r7, [lr, #-1396]!	; 0xfffffa8c
 144:	6d72613d 	ldfvse	f6, [r2, #-244]!	; 0xffffff0c
 148:	36373131 			; <UNDEFINED> instruction: 0x36373131
 14c:	2d667a6a 	vstmdbcs	r6!, {s15-s120}
 150:	6d2d2073 	stcvs	0, cr2, [sp, #-460]!	; 0xfffffe34
 154:	616f6c66 	cmnvs	pc, r6, ror #24
 158:	62612d74 	rsbvs	r2, r1, #116, 26	; 0x1d00
 15c:	6f733d69 	svcvs	0x00733d69
 160:	2d207466 	cfstrscs	mvf7, [r0, #-408]!	; 0xfffffe68
 164:	6d72616d 	ldfvse	f6, [r2, #-436]!	; 0xfffffe4c
 168:	616d2d20 	cmnvs	sp, r0, lsr #26
 16c:	3d686372 	stclcc	3, cr6, [r8, #-456]!	; 0xfffffe38
 170:	766d7261 	strbtvc	r7, [sp], -r1, ror #4
 174:	207a6b36 	rsbscs	r6, sl, r6, lsr fp
 178:	6467672d 	strbtvs	r6, [r7], #-1837	; 0xfffff8d3
 17c:	4f2d2062 	svcmi	0x002d2062
 180:	732d2067 			; <UNDEFINED> instruction: 0x732d2067
 184:	673d6474 			; <UNDEFINED> instruction: 0x673d6474
 188:	3939756e 	ldmdbcc	r9!, {r1, r2, r3, r5, r6, r8, sl, ip, sp, lr}
 18c:	66662d20 	strbtvs	r2, [r6], -r0, lsr #26
 190:	73656572 	cmnvc	r5, #478150656	; 0x1c800000
 194:	646e6174 	strbtvs	r6, [lr], #-372	; 0xfffffe8c
 198:	00676e69 	rsbeq	r6, r7, r9, ror #28
 19c:	7469626e 	strbtvc	r6, [r9], #-622	; 0xfffffd92
 1a0:	69620073 	stmdbvs	r2!, {r0, r1, r4, r5, r6}^
 1a4:	675f7374 			; <UNDEFINED> instruction: 0x675f7374
 1a8:	74007465 	strvc	r7, [r0], #-1125	; 0xfffffb9b
 1ac:	72775f6f 	rsbsvc	r5, r7, #444	; 0x1bc
 1b0:	00657469 	rsbeq	r7, r5, r9, ror #8
 1b4:	75665f5f 	strbvc	r5, [r6, #-3935]!	; 0xfffff0a1
 1b8:	5f5f636e 	svcpl	0x005f636e
 1bc:	74696200 	strbtvc	r6, [r9], #-512	; 0xfffffe00
 1c0:	65735f73 	ldrbvs	r5, [r3, #-3955]!	; 0xfffff08d
 1c4:	64610074 	strbtvs	r0, [r1], #-116	; 0xffffff8c
 1c8:	31313173 	teqcc	r1, r3, ror r1
 1cc:	65725f35 	ldrbvs	r5, [r2, #-3893]!	; 0xfffff0cb
 1d0:	00746573 	rsbseq	r6, r4, r3, ror r5
 1d4:	61656c63 	cmnvs	r5, r3, ror #24
 1d8:	65725f6e 	ldrbvs	r5, [r2, #-3950]!	; 0xfffff092
 1dc:	746f6f62 	strbtvc	r6, [pc], #-3938	; 1e4 <__code_start__-0x7e1c>
 1e0:	74696200 	strbtvc	r6, [r9], #-512	; 0xfffffe00
 1e4:	6c635f73 	stclvs	15, cr5, [r3], #-460	; 0xfffffe34
 1e8:	32690072 	rsbcc	r0, r9, #114, 0	; 0x72
 1ec:	6e695f63 	cdpvs	15, 6, cr5, cr9, cr3, {3}
 1f0:	69007469 	stmdbvs	r0, {r0, r3, r5, r6, sl, ip, sp, lr}
 1f4:	775f6332 	smmlarvc	pc, r2, r3, r6	; <UNPREDICTABLE>
 1f8:	65746972 	ldrbvs	r6, [r4, #-2418]!	; 0xfffff68e
 1fc:	74696200 	strbtvc	r6, [r9], #-512	; 0xfffffe00
 200:	5f73695f 	svcpl	0x0073695f
 204:	0066666f 	rsbeq	r6, r6, pc, ror #12
 208:	55465f5f 	strbpl	r5, [r6, #-3935]	; 0xfffff0a1
 20c:	4954434e 	ldmdbmi	r4, {r1, r2, r3, r6, r8, r9, lr}^
 210:	5f5f4e4f 	svcpl	0x005f4e4f
 214:	6c656400 	cfstrdvs	mvd6, [r5], #-0
 218:	755f7961 	ldrbvc	r7, [pc, #-2401]	; fffff8bf <__bss_end__+0xffff5667>
 21c:	69620073 	stmdbvs	r2!, {r0, r1, r4, r5, r6}^
 220:	73695f74 	cmnvc	r9, #116, 30	; 0x1d0
 224:	006e6f5f 	rsbeq	r6, lr, pc, asr pc
 228:	746e6975 	strbtvc	r6, [lr], #-2421	; 0xfffff68b
 22c:	00745f38 	rsbseq	r5, r4, r8, lsr pc
 230:	73746962 	cmnvc	r4, #1605632	; 0x188000
 234:	73616d5f 	cmnvc	r1, #6080	; 0x17c0
 238:	6962006b 	stmdbvs	r2!, {r0, r1, r3, r5, r6}^
 23c:	6c635f74 	stclvs	15, cr5, [r3], #-464	; 0xfffffe30
 240:	69750072 	ldmdbvs	r5!, {r1, r4, r5, r6}^
 244:	3631746e 	ldrtcc	r7, [r1], -lr, ror #8
 248:	6200745f 	andvs	r7, r0, #1593835520	; 0x5f000000
 24c:	5f737469 	svcpl	0x00737469
 250:	69007165 	stmdbvs	r0, {r0, r2, r5, r6, r8, ip, sp, lr}
 254:	725f6332 	subsvc	r6, pc, #-939524096	; 0xc8000000
 258:	00646165 	rsbeq	r6, r4, r5, ror #2
 25c:	746e6975 	strbtvc	r6, [lr], #-2421	; 0xfffff68b
 260:	745f3233 	ldrbvc	r3, [pc], #-563	; 268 <__code_start__-0x7d98>
 264:	73646100 	cmnvc	r4, #0
 268:	35313131 	ldrcc	r3, [r1, #-305]!	; 0xfffffecf
 26c:	7200632e 	andvc	r6, r0, #-1207959552	; 0xb8000000
 270:	725f6970 	subsvc	r6, pc, #112, 18	; 0x1c0000
 274:	74657365 	strbtvc	r7, [r5], #-869	; 0xfffffc9b
 278:	7475705f 	ldrbtvc	r7, [r5], #-95	; 0xffffffa1
 27c:	64610063 	strbtvs	r0, [r1], #-99	; 0xffffff9d
 280:	31313173 	teqcc	r1, r3, ror r1
 284:	72775f35 	rsbsvc	r5, r7, #212	; 0xd4
 288:	31657469 	cmncc	r5, r9, ror #8
 28c:	65730036 	ldrbvs	r0, [r3, #-54]!	; 0xffffffca
 290:	6c615f74 	stclvs	15, cr5, [r1], #-464	; 0xfffffe30
 294:	6e69006c 	cdpvs	0, 6, cr0, cr9, cr12, {3}
 298:	61697469 	cmnvs	r9, r9, ror #8
 29c:	657a696c 	ldrbvs	r6, [sl, #-2412]!	; 0xfffff694
 2a0:	00705f64 	rsbseq	r5, r0, r4, ror #30
 2a4:	63656863 	cmnvs	r5, #6488064	; 0x630000
 2a8:	616c5f6b 	cmnvs	ip, fp, ror #30
 2ac:	74756f79 	ldrbtvc	r6, [r5], #-3961	; 0xfffff087
 2b0:	6f682f00 	svcvs	0x00682f00
 2b4:	652f656d 	strvs	r6, [pc, #-1389]!	; fffffd4f <__bss_end__+0xffff5af7>
 2b8:	656c676e 	strbvs	r6, [ip, #-1902]!	; 0xfffff892
 2bc:	6c632f72 	stclvs	15, cr2, [r3], #-456	; 0xfffffe38
 2c0:	2f737361 	svccs	0x00737361
 2c4:	34327363 	ldrtcc	r7, [r2], #-867	; 0xfffffc9d
 2c8:	2d786c30 	ldclcs	12, cr6, [r8, #-192]!	; 0xffffff40
 2cc:	70733232 	rsbsvc	r3, r3, r2, lsr r2
 2d0:	616c2f72 	smcvs	49906	; 0xc2f2
 2d4:	382f7362 	stmdacc	pc!, {r1, r5, r6, r8, r9, ip, sp, lr}	; <UNPREDICTABLE>
 2d8:	6332692d 	teqvs	r2, #737280	; 0xb4000
 2dc:	6364612d 	cmnvs	r4, #1073741835	; 0x4000000b
 2e0:	646f632f 	strbtvs	r6, [pc], #-815	; 2e8 <__code_start__-0x7d18>
 2e4:	74732e65 	ldrbtvc	r2, [r3], #-3685	; 0xfffff19b
 2e8:	00666661 	rsbeq	r6, r6, r1, ror #12
 2ec:	636f6c63 	cmnvs	pc, #25344	; 0x6300
 2f0:	74735f6b 	ldrbtvc	r5, [r3], #-3947	; 0xfffff095
 2f4:	63746572 	cmnvs	r4, #478150656	; 0x1c800000
 2f8:	69745f68 	ldmdbvs	r4!, {r3, r5, r6, r8, r9, sl, fp, ip, lr}^
 2fc:	756f656d 	strbvc	r6, [pc, #-1389]!	; fffffd97 <__bss_end__+0xffff5b3f>
 300:	6c630074 	stclvs	0, cr0, [r3], #-464	; 0xfffffe30
 304:	5f726165 	svcpl	0x00726165
 308:	50470063 	subpl	r0, r7, r3, rrx
 30c:	465f4f49 	ldrbmi	r4, [pc], -r9, asr #30
 310:	5f434e55 	svcpl	0x00434e55
 314:	5054554f 	subspl	r5, r4, pc, asr #10
 318:	63005455 	movwvs	r5, #1109	; 0x455
 31c:	7261656c 	rsbvc	r6, r1, #108, 10	; 0x1b000000
 320:	4700735f 	smlsdmi	r0, pc, r3, r7	; <UNPREDICTABLE>
 324:	5f4f4950 	svcpl	0x004f4950
 328:	434e5546 	movtmi	r5, #58694	; 0xe546
 32c:	544c415f 	strbpl	r4, [ip], #-351	; 0xfffffea1
 330:	50470030 	subpl	r0, r7, r0, lsr r0
 334:	465f4f49 	ldrbmi	r4, [pc], -r9, asr #30
 338:	5f434e55 	svcpl	0x00434e55
 33c:	31544c41 	cmpcc	r4, r1, asr #24
 340:	49504700 	ldmdbmi	r0, {r8, r9, sl, lr}^
 344:	55465f4f 	strbpl	r5, [r6, #-3919]	; 0xfffff0b1
 348:	415f434e 	cmpmi	pc, lr, asr #6
 34c:	0032544c 	eorseq	r5, r2, ip, asr #8
 350:	4f495047 	svcmi	0x00495047
 354:	4e55465f 	mrcmi	6, 2, r4, cr5, cr15, {2}
 358:	4c415f43 	mcrrmi	15, 4, r5, r1, cr3
 35c:	47003354 	smlsdmi	r0, r4, r3, r3
 360:	5f4f4950 	svcpl	0x004f4950
 364:	434e5546 	movtmi	r5, #58694	; 0xe546
 368:	544c415f 	strbpl	r4, [ip], #-351	; 0xfffffea1
 36c:	50470034 	subpl	r0, r7, r4, lsr r0
 370:	465f4f49 	ldrbmi	r4, [pc], -r9, asr #30
 374:	5f434e55 	svcpl	0x00434e55
 378:	35544c41 	ldrbcc	r4, [r4, #-3137]	; 0xfffff3bf
 37c:	725f7300 	subsvc	r7, pc, #0, 6
 380:	73696765 	cmnvc	r9, #26476544	; 0x1940000
 384:	00726574 	rsbseq	r6, r2, r4, ror r5
 388:	6e656c64 	cdpvs	12, 6, cr6, cr5, cr4, {3}
 38c:	74757000 	ldrbtvc	r7, [r5], #-0
 390:	63003233 	movwvs	r3, #563	; 0x233
 394:	6765725f 			; <UNDEFINED> instruction: 0x6765725f
 398:	65747369 	ldrbvs	r7, [r4, #-873]!	; 0xfffffc97
 39c:	68730072 	ldmdavs	r3!, {r1, r4, r5, r6}^
 3a0:	00746669 	rsbseq	r6, r4, r9, ror #12
 3a4:	636f6c63 	cmnvs	pc, #25344	; 0x6300
 3a8:	69645f6b 	stmdbvs	r4!, {r0, r1, r3, r5, r6, r8, r9, sl, fp, ip, lr}^
 3ac:	6c630076 	stclvs	0, cr0, [r3], #-472	; 0xfffffe28
 3b0:	00726165 	rsbseq	r6, r2, r5, ror #2
 3b4:	656e6f64 	strbvs	r6, [lr, #-3940]!	; 0xfffff09c
 3b8:	49504700 	ldmdbmi	r0, {r8, r9, sl, lr}^
 3bc:	55465f4f 	strbpl	r5, [r6, #-3919]	; 0xfffff0b1
 3c0:	495f434e 	ldmdbmi	pc, {r1, r2, r3, r6, r8, r9, lr}^	; <UNPREDICTABLE>
 3c4:	5455504e 	ldrbpl	r5, [r5], #-78	; 0xffffffb2
 3c8:	746e6900 	strbtvc	r6, [lr], #-2304	; 0xfffff700
 3cc:	4e470064 	cdpmi	0, 4, cr0, cr7, cr4, {3}
 3d0:	39432055 	stmdbcc	r3, {r0, r2, r4, r6, sp}^
 3d4:	30312039 	eorscc	r2, r1, r9, lsr r0
 3d8:	312e332e 			; <UNDEFINED> instruction: 0x312e332e
 3dc:	32303220 	eorscc	r3, r0, #32, 4
 3e0:	32383031 	eorscc	r3, r8, #49, 0	; 0x31
 3e4:	72282034 	eorvc	r2, r8, #52, 0	; 0x34
 3e8:	61656c65 	cmnvs	r5, r5, ror #24
 3ec:	20296573 	eorcs	r6, r9, r3, ror r5
 3f0:	70636d2d 	rsbvc	r6, r3, sp, lsr #26
 3f4:	72613d75 	rsbvc	r3, r1, #7488	; 0x1d40
 3f8:	3731316d 	ldrcc	r3, [r1, -sp, ror #2]!
 3fc:	667a6a36 			; <UNDEFINED> instruction: 0x667a6a36
 400:	2d20732d 	stccs	3, cr7, [r0, #-180]!	; 0xffffff4c
 404:	6e75746d 	cdpvs	4, 7, cr7, cr5, cr13, {3}
 408:	72613d65 	rsbvc	r3, r1, #6464	; 0x1940
 40c:	3731316d 	ldrcc	r3, [r1, -sp, ror #2]!
 410:	667a6a36 			; <UNDEFINED> instruction: 0x667a6a36
 414:	2d20732d 	stccs	3, cr7, [r0, #-180]!	; 0xffffff4c
 418:	6f6c666d 	svcvs	0x006c666d
 41c:	612d7461 			; <UNDEFINED> instruction: 0x612d7461
 420:	733d6962 	teqvc	sp, #1605632	; 0x188000
 424:	2074666f 	rsbscs	r6, r4, pc, ror #12
 428:	72616d2d 	rsbvc	r6, r1, #2880	; 0xb40
 42c:	6d2d206d 	stcvs	0, cr2, [sp, #-436]!	; 0xfffffe4c
 430:	68637261 	stmdavs	r3!, {r0, r5, r6, r9, ip, sp, lr}^
 434:	6d72613d 	ldfvse	f6, [r2, #-244]!	; 0xffffff0c
 438:	7a6b3676 	bvc	1acde18 <__bss_end__+0x1ac3bc0>
 43c:	67672d20 	strbvs	r2, [r7, -r0, lsr #26]!
 440:	2d206264 	sfmcs	f6, 4, [r0, #-400]!	; 0xfffffe70
 444:	2d20674f 	stccs	7, cr6, [r0, #-316]!	; 0xfffffec4
 448:	3d647473 	cfstrdcc	mvd7, [r4, #-460]!	; 0xfffffe34
 44c:	39756e67 	ldmdbcc	r5!, {r0, r1, r2, r5, r6, r9, sl, fp, sp, lr}^
 450:	662d2039 			; <UNDEFINED> instruction: 0x662d2039
 454:	65657266 	strbvs	r7, [r5, #-614]!	; 0xfffffd9a
 458:	6e617473 	mcrvs	4, 3, r7, cr1, cr3, {3}
 45c:	676e6964 	strbvs	r6, [lr, -r4, ror #18]!
 460:	746e6900 	strbtvc	r6, [lr], #-2304	; 0xfffff700
 464:	6e690072 	mcrvs	0, 3, r0, cr9, cr2, {3}
 468:	66007474 			; <UNDEFINED> instruction: 0x66007474
 46c:	006f6669 	rsbeq	r6, pc, r9, ror #12
 470:	746e6f63 	strbtvc	r6, [lr], #-3939	; 0xfffff09d
 474:	006c6f72 	rsbeq	r6, ip, r2, ror pc
 478:	66617473 			; <UNDEFINED> instruction: 0x66617473
 47c:	32692d66 	rsbcc	r2, r9, #6528	; 0x1980
 480:	00632e63 	rsbeq	r2, r3, r3, ror #28
 484:	5f766564 	svcpl	0x00766564
 488:	72726162 	rsbsvc	r6, r2, #-2147483624	; 0x80000018
 48c:	00726569 	rsbseq	r6, r2, r9, ror #10
 490:	33746567 	cmncc	r4, #432013312	; 0x19c00000
 494:	50520032 	subspl	r0, r2, r2, lsr r0
 498:	32695f49 	rsbcc	r5, r9, #292	; 0x124
 49c:	32690063 	rsbcc	r0, r9, #99, 0	; 0x63
 4a0:	006e6563 	rsbeq	r6, lr, r3, ror #10
 4a4:	7479626e 	ldrbtvc	r6, [r9], #-622	; 0xfffffd92
 4a8:	72007365 	andvc	r7, r0, #-1811939327	; 0x94000001
 4ac:	5f646165 	svcpl	0x00646165
 4b0:	32690073 	rsbcc	r0, r9, #115, 0	; 0x73
 4b4:	73695f63 	cmnvc	r9, #396	; 0x18c
 4b8:	696e695f 	stmdbvs	lr!, {r0, r1, r2, r3, r4, r6, r8, fp, sp, lr}^
 4bc:	6c616974 			; <UNDEFINED> instruction: 0x6c616974
 4c0:	64657a69 	strbtvs	r7, [r5], #-2665	; 0xfffff597
 4c4:	61657200 	cmnvs	r5, r0, lsl #4
 4c8:	00705f64 	rsbseq	r5, r0, r4, ror #30
 4cc:	72656678 	rsbvc	r6, r5, #120, 12	; 0x7800000
 4d0:	6174735f 	cmnvs	r4, pc, asr r3
 4d4:	63007472 	movwvs	r7, #1138	; 0x472
 4d8:	6b746b6c 	blvs	1d1b290 <__bss_end__+0x1d11038>
 4dc:	69706700 	ldmdbvs	r0!, {r8, r9, sl, sp, lr}^
 4e0:	65735f6f 	ldrbvs	r5, [r3, #-3951]!	; 0xfffff091
 4e4:	75665f74 	strbvc	r5, [r6, #-3956]!	; 0xfffff08c
 4e8:	6974636e 	ldmdbvs	r4!, {r1, r2, r3, r5, r6, r8, r9, sp, lr}^
 4ec:	78006e6f 	stmdavc	r0, {r0, r1, r2, r3, r5, r6, r9, sl, fp, sp, lr}
 4f0:	5f726566 	svcpl	0x00726566
 4f4:	00646e65 	rsbeq	r6, r4, r5, ror #28
 4f8:	64616572 	strbtvs	r6, [r1], #-1394	; 0xfffffa8e
 4fc:	6900635f 	stmdbvs	r0, {r0, r1, r2, r3, r4, r6, r8, r9, sp, lr}
 500:	695f6332 	ldmdbvs	pc, {r1, r4, r5, r8, r9, sp, lr}^	; <UNPREDICTABLE>
 504:	5f74696e 	svcpl	0x0074696e
 508:	65636e6f 	strbvs	r6, [r3, #-3695]!	; 0xfffff191
 50c:	755f5f00 	ldrbvc	r5, [pc, #-3840]	; fffff614 <__bss_end__+0xffff53bc>
 510:	6573756e 	ldrbvs	r7, [r3, #-1390]!	; 0xfffffa92
 514:	5f003064 	svcpl	0x00003064
 518:	756e755f 	strbvc	r7, [lr, #-1375]!	; 0xfffffaa1
 51c:	31646573 	smccc	18003	; 0x4653
 520:	755f5f00 	ldrbvc	r5, [pc, #-3840]	; fffff628 <__bss_end__+0xffff53d0>
 524:	6573756e 	ldrbvs	r7, [r3, #-1390]!	; 0xfffffa92
 528:	5f003264 	svcpl	0x00003264
 52c:	756e755f 	strbvc	r7, [lr, #-1375]!	; 0xfffffaa1
 530:	33646573 	cmncc	r4, #482344960	; 0x1cc00000
 534:	73657200 	cmnvc	r5, #0, 4
 538:	735f7465 	cmpvc	pc, #1694498816	; 0x65000000
 53c:	75746174 	ldrbvc	r6, [r4, #-372]!	; 0xfffffe8c
 540:	6c630073 	stclvs	0, cr0, [r3], #-460	; 0xfffffe34
 544:	5f6b636f 	svcpl	0x006b636f
 548:	616c6564 	cmnvs	ip, r4, ror #10
 54c:	70670079 	rsbvc	r0, r7, r9, ror r0
 550:	635f6f69 	cmpvs	pc, #420	; 0x1a4
 554:	0030726c 	eorseq	r7, r0, ip, ror #4
 558:	6f697067 	svcvs	0x00697067
 55c:	7465735f 	strbtvc	r7, [r5], #-863	; 0xfffffca1
 560:	70670030 	rsbvc	r0, r7, r0, lsr r0
 564:	775f6f69 	ldrbvc	r6, [pc, -r9, ror #30]
 568:	65746972 	ldrbvs	r6, [r4, #-2418]!	; 0xfffff68e
 56c:	56454400 	strbpl	r4, [r5], -r0, lsl #8
 570:	4c41565f 	mcrrmi	6, 5, r5, r1, cr15
 574:	50003233 	andpl	r3, r0, r3, lsr r2
 578:	32335455 	eorscc	r5, r3, #1426063360	; 0x55000000
 57c:	69706700 	ldmdbvs	r0!, {r8, r9, sl, sp, lr}^
 580:	65725f6f 	ldrbvs	r5, [r2, #-3951]!	; 0xfffff091
 584:	47006461 	strmi	r6, [r0, -r1, ror #8]
 588:	32335445 	eorscc	r5, r3, #1157627904	; 0x45000000
 58c:	732f2e00 			; <UNDEFINED> instruction: 0x732f2e00
 590:	672f6372 			; <UNDEFINED> instruction: 0x672f6372
 594:	2e6f6970 			; <UNDEFINED> instruction: 0x2e6f6970
 598:	70670063 	rsbvc	r0, r7, r3, rrx
 59c:	735f6f69 	cmpvc	pc, #420	; 0x1a4
 5a0:	695f7465 	ldmdbvs	pc, {r0, r2, r5, r6, sl, ip, sp, lr}^	; <UNPREDICTABLE>
 5a4:	7475706e 	ldrbtvc	r7, [r5], #-110	; 0xffffff92
 5a8:	69706700 	ldmdbvs	r0!, {r8, r9, sl, sp, lr}^
 5ac:	65735f6f 	ldrbvs	r5, [r3, #-3951]!	; 0xfffff091
 5b0:	666f5f74 	uqsub16vs	r5, pc, r4	; <UNPREDICTABLE>
 5b4:	70670066 	rsbvc	r0, r7, r6, rrx
 5b8:	735f6f69 	cmpvc	pc, #420	; 0x1a4
 5bc:	6f5f7465 	svcvs	0x005f7465
 5c0:	75707475 	ldrbvc	r7, [r0, #-1141]!	; 0xfffffb8b
 5c4:	75660074 	strbvc	r0, [r6, #-116]!	; 0xffffff8c
 5c8:	6700636e 	strvs	r6, [r0, -lr, ror #6]
 5cc:	5f6f6970 	svcpl	0x006f6970
 5d0:	636e7566 	cmnvs	lr, #427819008	; 0x19800000
 5d4:	4700745f 	smlsdmi	r0, pc, r4, r7	; <UNPREDICTABLE>
 5d8:	4320554e 			; <UNDEFINED> instruction: 0x4320554e
 5dc:	39203939 	stmdbcc	r0!, {r0, r3, r4, r5, r8, fp, ip, sp}
 5e0:	312e322e 			; <UNDEFINED> instruction: 0x312e322e
 5e4:	31303220 	teqcc	r0, r0, lsr #4
 5e8:	32303139 	eorscc	r3, r0, #1073741838	; 0x4000000e
 5ec:	72282035 	eorvc	r2, r8, #53, 0	; 0x35
 5f0:	61656c65 	cmnvs	r5, r5, ror #24
 5f4:	20296573 	eorcs	r6, r9, r3, ror r5
 5f8:	4d52415b 	ldfmie	f4, [r2, #-364]	; 0xfffffe94
 5fc:	6d72612f 	ldfvse	f6, [r2, #-188]!	; 0xffffff44
 600:	622d392d 	eorvs	r3, sp, #737280	; 0xb4000
 604:	636e6172 	cmnvs	lr, #-2147483620	; 0x8000001c
 608:	65722068 	ldrbvs	r2, [r2, #-104]!	; 0xffffff98
 60c:	69736976 	ldmdbvs	r3!, {r1, r2, r4, r5, r6, r8, fp, sp, lr}^
 610:	32206e6f 	eorcc	r6, r0, #1776	; 0x6f0
 614:	39353737 	ldmdbcc	r5!, {r0, r1, r2, r4, r5, r8, r9, sl, ip, sp}
 618:	2d205d39 	stccs	13, cr5, [r0, #-228]!	; 0xffffff1c
 61c:	7570636d 	ldrbvc	r6, [r0, #-877]!	; 0xfffffc93
 620:	6d72613d 	ldfvse	f6, [r2, #-244]!	; 0xffffff0c
 624:	36373131 			; <UNDEFINED> instruction: 0x36373131
 628:	2d667a6a 	vstmdbcs	r6!, {s15-s120}
 62c:	6d2d2073 	stcvs	0, cr2, [sp, #-460]!	; 0xfffffe34
 630:	656e7574 	strbvs	r7, [lr, #-1396]!	; 0xfffffa8c
 634:	6d72613d 	ldfvse	f6, [r2, #-244]!	; 0xffffff0c
 638:	36373131 			; <UNDEFINED> instruction: 0x36373131
 63c:	2d667a6a 	vstmdbcs	r6!, {s15-s120}
 640:	6d2d2073 	stcvs	0, cr2, [sp, #-460]!	; 0xfffffe34
 644:	616f6c66 	cmnvs	pc, r6, ror #24
 648:	62612d74 	rsbvs	r2, r1, #116, 26	; 0x1d00
 64c:	6f733d69 	svcvs	0x00733d69
 650:	2d207466 	cfstrscs	mvf7, [r0, #-408]!	; 0xfffffe68
 654:	6d72616d 	ldfvse	f6, [r2, #-436]!	; 0xfffffe4c
 658:	616d2d20 	cmnvs	sp, r0, lsr #26
 65c:	3d686372 	stclcc	3, cr6, [r8, #-456]!	; 0xfffffe38
 660:	766d7261 	strbtvc	r7, [sp], -r1, ror #4
 664:	207a6b36 	rsbscs	r6, sl, r6, lsr fp
 668:	6467672d 	strbtvs	r6, [r7], #-1837	; 0xfffff8d3
 66c:	672d2062 	strvs	r2, [sp, -r2, rrx]!
 670:	20626467 	rsbcs	r6, r2, r7, ror #8
 674:	61664f2d 	cmnvs	r6, sp, lsr #30
 678:	2d207473 	cfstrscs	mvf7, [r0, #-460]!	; 0xfffffe34
 67c:	7361664f 	cmnvc	r1, #82837504	; 0x4f00000
 680:	732d2074 			; <UNDEFINED> instruction: 0x732d2074
 684:	673d6474 			; <UNDEFINED> instruction: 0x673d6474
 688:	3939756e 	ldmdbcc	r9!, {r1, r2, r3, r5, r6, r8, sl, ip, sp, lr}
 68c:	74732d20 	ldrbtvc	r2, [r3], #-3360	; 0xfffff2e0
 690:	6e673d64 	cdpvs	13, 6, cr3, cr7, cr4, {3}
 694:	20393975 	eorscs	r3, r9, r5, ror r9
 698:	7266662d 	rsbvc	r6, r6, #47185920	; 0x2d00000
 69c:	74736565 	ldrbtvc	r6, [r3], #-1381	; 0xfffffa9b
 6a0:	69646e61 	stmdbvs	r4!, {r0, r5, r6, r9, sl, fp, sp, lr}^
 6a4:	6700676e 	strvs	r6, [r0, -lr, ror #14]
 6a8:	5f6f6970 	svcpl	0x006f6970
 6ac:	3076656c 	rsbscc	r6, r6, ip, ror #10
 6b0:	73552f00 	cmpvc	r5, #0, 30
 6b4:	2f737265 	svccs	0x00737265
 6b8:	656c696d 	strbvs	r6, [ip, #-2413]!	; 0xfffff693
 6bc:	6f532f73 	svcvs	0x00532f73
 6c0:	65637275 	strbvs	r7, [r3, #-629]!	; 0xfffffd8b
 6c4:	3273632f 	rsbscc	r6, r3, #-1140850688	; 0xbc000000
 6c8:	786c3034 	stmdavc	ip!, {r2, r4, r5, ip, sp}^
 6cc:	62696c2f 	rsbvs	r6, r9, #12032	; 0x2f00
 6d0:	62006970 	andvs	r6, r0, #112, 18	; 0x1c0000
 6d4:	006b6e61 	rsbeq	r6, fp, r1, ror #28
 6d8:	6f697067 	svcvs	0x00697067
 6dc:	7465735f 	strbtvc	r7, [r5], #-863	; 0xfffffca1
 6e0:	006e6f5f 	rsbeq	r6, lr, pc, asr pc
 6e4:	73677261 	cmnvc	r7, #268435462	; 0x10000006
 6e8:	5f617600 	svcpl	0x00617600
 6ec:	6e697270 	mcrvs	2, 3, r7, cr9, cr0, {3}
 6f0:	5f006b74 	svcpl	0x00006b74
 6f4:	756e675f 	strbvc	r6, [lr, #-1887]!	; 0xfffff8a1
 6f8:	61765f63 	cmnvs	r6, r3, ror #30
 6fc:	73696c5f 	cmnvc	r9, #24320	; 0x5f00
 700:	5f5f0074 	svcpl	0x005f0074
 704:	2e007061 	cdpcs	0, 0, cr7, cr0, cr1, {3}
 708:	62696c2f 	rsbvs	r6, r9, #12032	; 0x2f00
 70c:	72702f63 	rsbsvc	r2, r0, #396	; 0x18c
 710:	6b746e69 	blvs	1d1c0bc <__bss_end__+0x1d11e64>
 714:	5f00632e 	svcpl	0x0000632e
 718:	5f61765f 	svcpl	0x0061765f
 71c:	7473696c 	ldrbtvc	r6, [r3], #-2412	; 0xfffff694
 720:	746e6900 	strbtvc	r6, [lr], #-2304	; 0xfffff700
 724:	616e7265 	cmnvs	lr, r5, ror #4
 728:	75705f6c 	ldrbvc	r5, [r0, #-3948]!	; 0xfffff094
 72c:	61686374 	smcvs	34356	; 0x8634
 730:	70720072 	rsbsvc	r0, r2, r2, ror r0
 734:	65735f69 	ldrbvs	r5, [r3, #-3945]!	; 0xfffff097
 738:	75705f74 	ldrbvc	r5, [r0, #-3956]!	; 0xfffff08c
 73c:	2e006374 	mcrcs	3, 0, r6, cr0, cr4, {3}
 740:	62696c2f 	rsbvs	r6, r9, #12032	; 0x2f00
 744:	75702f63 	ldrbvc	r2, [r0, #-3939]!	; 0xfffff09d
 748:	61686374 	smcvs	34356	; 0x8634
 74c:	00632e72 	rsbeq	r2, r3, r2, ror lr
 750:	74726175 	ldrbtvc	r6, [r2], #-373	; 0xfffffe8b
 754:	7475705f 	ldrbtvc	r7, [r5], #-95	; 0xffffffa1
 758:	6e690063 	cdpvs	0, 6, cr0, cr9, cr3, {3}
 75c:	6e726574 	mrcvs	5, 3, r6, cr2, cr4, {3}
 760:	705f6c61 	subsvc	r6, pc, r1, ror #24
 764:	006b7475 	rsbeq	r7, fp, r5, ror r4
 768:	696c2f2e 	stmdbvs	ip!, {r1, r2, r3, r5, r8, r9, sl, fp, sp}^
 76c:	702f6362 	eorvc	r6, pc, r2, ror #6
 770:	2e6b7475 	mcrcs	4, 3, r7, cr11, cr5, {3}
 774:	73690063 	cmnvc	r9, #99, 0	; 0x63
 778:	69676964 	stmdbvs	r7!, {r2, r5, r6, r8, fp, sp, lr}^
 77c:	69750074 	ldmdbvs	r5!, {r2, r4, r5, r6}^
 780:	3436746e 	ldrtcc	r7, [r6], #-1134	; 0xfffffb92
 784:	2e00745f 	cfmvsrcs	mvf0, r7
 788:	62696c2f 	rsbvs	r6, r9, #12032	; 0x2f00
 78c:	61762f63 	cmnvs	r6, r3, ror #30
 790:	6972702d 	ldmdbvs	r2!, {r0, r2, r3, r5, ip, sp, lr}^
 794:	2e6b746e 	cdpcs	4, 6, cr7, cr11, cr14, {3}
 798:	5f5f0063 	svcpl	0x005f0063
 79c:	65646f63 	strbvs	r6, [r4, #-3939]!	; 0xfffff09d
 7a0:	6174735f 	cmnvs	r4, pc, asr r3
 7a4:	5f5f7472 	svcpl	0x005f7472
 7a8:	625f5f00 	subsvs	r5, pc, #0, 30
 7ac:	735f7373 	cmpvc	pc, #-872415231	; 0xcc000001
 7b0:	74726174 	ldrbtvc	r6, [r2], #-372	; 0xfffffe8c
 7b4:	77005f5f 	smlsdvc	r0, pc, pc, r5	; <UNPREDICTABLE>
 7b8:	68746469 	ldmdavs	r4!, {r0, r3, r5, r6, sl, sp, lr}^
 7bc:	645f5f00 	ldrbvs	r5, [pc], #-3840	; 7c4 <__code_start__-0x783c>
 7c0:	5f617461 	svcpl	0x00617461
 7c4:	5f646e65 	svcpl	0x00646e65
 7c8:	6973005f 	ldmdbvs	r3!, {r0, r1, r2, r3, r4, r6}^
 7cc:	64656e67 	strbtvs	r6, [r5], #-3687	; 0xfffff199
 7d0:	7000705f 	andvc	r7, r0, pc, asr r0
 7d4:	5f637475 	svcpl	0x00637475
 7d8:	5f007066 	svcpl	0x00007066
 7dc:	7373625f 	cmnvc	r3, #-268435451	; 0xf0000005
 7e0:	646e655f 	strbtvs	r6, [lr], #-1375	; 0xfffffaa1
 7e4:	5f005f5f 	svcpl	0x00005f5f
 7e8:	6165685f 	cmnvs	r5, pc, asr r8
 7ec:	74735f70 	ldrbtvc	r5, [r3], #-3952	; 0xfffff090
 7f0:	5f747261 	svcpl	0x00747261
 7f4:	7072005f 	rsbsvc	r0, r2, pc, asr r0
 7f8:	65735f69 	ldrbvs	r5, [r3, #-3945]!	; 0xfffff097
 7fc:	756f5f74 	strbvc	r5, [pc, #-3956]!	; fffff890 <__bss_end__+0xffff5638>
 800:	74757074 	ldrbtvc	r7, [r5], #-116	; 0xffffff8c
 804:	746d6600 	strbtvc	r6, [sp], #-1536	; 0xfffffa00
 808:	6174735f 	cmnvs	r4, pc, asr r3
 80c:	73007472 	movwvc	r7, #1138	; 0x472
 810:	61637274 	smcvs	14116	; 0x3724
 814:	74730074 	ldrbtvc	r0, [r3], #-116	; 0xffffff8c
 818:	79706372 	ldmdbvc	r0!, {r1, r4, r5, r6, r8, r9, sp, lr}^
 81c:	67656e00 	strbvs	r6, [r5, -r0, lsl #28]!
 820:	5f00705f 	svcpl	0x0000705f
 824:	646f635f 	strbtvs	r6, [pc], #-863	; 82c <__code_start__-0x77d4>
 828:	6e655f65 	cdpvs	15, 6, cr5, cr5, cr5, {3}
 82c:	005f5f64 	subseq	r5, pc, r4, ror #30
 830:	74696d65 	strbtvc	r6, [r9], #-3429	; 0xfffff29b
 834:	74757000 	ldrbtvc	r7, [r5], #-0
 838:	70665f73 	rsbvc	r5, r6, r3, ror pc
 83c:	76657200 	strbtvc	r7, [r5], -r0, lsl #4
 840:	65737265 	ldrbvs	r7, [r3, #-613]!	; 0xfffffd9b
 844:	72747300 	rsbsvc	r7, r4, #0, 6
 848:	00706d63 	rsbseq	r6, r0, r3, ror #26
 84c:	61645f5f 	cmnvs	r4, pc, asr pc
 850:	735f6174 	cmpvc	pc, #29
 854:	74726174 	ldrbtvc	r6, [r2], #-372	; 0xfffffe8c
 858:	5f005f5f 	svcpl	0x00005f5f
 85c:	6f72705f 	svcvs	0x0072705f
 860:	6e655f67 	cdpvs	15, 6, cr5, cr5, cr7, {3}
 864:	005f5f64 	subseq	r5, pc, r4, ror #30
 868:	316d756e 	cmncc	sp, lr, ror #10
 86c:	72747300 	rsbsvc	r7, r4, #0, 6
 870:	706d636e 	rsbvc	r6, sp, lr, ror #6
 874:	73616200 	cmnvc	r1, #0, 4
 878:	70720065 	rsbsvc	r0, r2, r5, rrx
 87c:	65725f69 	ldrbvs	r5, [r2, #-3945]!	; 0xfffff097
 880:	746f6f62 	strbtvc	r6, [pc], #-3938	; 888 <__code_start__-0x7778>
 884:	732f2e00 			; <UNDEFINED> instruction: 0x732f2e00
 888:	66666174 			; <UNDEFINED> instruction: 0x66666174
 88c:	6372732d 	cmnvs	r2, #-1275068416	; 0xb4000000
 890:	656c632f 	strbvs	r6, [ip, #-815]!	; 0xfffffcd1
 894:	722d6e61 	eorvc	r6, sp, #1552	; 0x610
 898:	6f6f6265 	svcvs	0x006f6265
 89c:	00632e74 	rsbeq	r2, r3, r4, ror lr
 8a0:	74726175 	ldrbtvc	r6, [r2], #-373	; 0xfffffe8b
 8a4:	756c665f 	strbvc	r6, [ip, #-1631]!	; 0xfffff9a1
 8a8:	745f6873 	ldrbvc	r6, [pc], #-2163	; 8b0 <__code_start__-0x7750>
 8ac:	635f0078 	cmpvs	pc, #120, 0	; 0x78
 8b0:	72617473 	rsbvc	r7, r1, #1929379840	; 0x73000000
 8b4:	73620074 	cmnvc	r2, #116, 0	; 0x74
 8b8:	6e655f73 	mcrvs	15, 3, r5, cr5, cr3, {3}
 8bc:	61750064 	cmnvs	r5, r4, rrx
 8c0:	695f7472 	ldmdbvs	pc, {r1, r4, r5, r6, sl, ip, sp, lr}^	; <UNPREDICTABLE>
 8c4:	0074696e 	rsbseq	r6, r4, lr, ror #18
 8c8:	74737563 	ldrbtvc	r7, [r3], #-1379	; 0xfffffa9d
 8cc:	6c5f6d6f 	mrrcvs	13, 6, r6, pc, cr15	; <UNPREDICTABLE>
 8d0:	6564616f 	strbvs	r6, [r4, #-367]!	; 0xfffffe91
 8d4:	2f2e0072 	svccs	0x002e0072
 8d8:	66617473 			; <UNDEFINED> instruction: 0x66617473
 8dc:	72732d66 	rsbsvc	r2, r3, #6528	; 0x1980
 8e0:	73632f63 	cmnvc	r3, #396	; 0x18c
 8e4:	74726174 	ldrbtvc	r6, [r2], #-372	; 0xfffffe8c
 8e8:	5f00632e 	svcpl	0x0000632e
 8ec:	0074756f 	rsbseq	r7, r4, pc, ror #10
 8f0:	6c637963 			; <UNDEFINED> instruction: 0x6c637963
 8f4:	69645f65 	stmdbvs	r4!, {r0, r2, r5, r6, r8, r9, sl, fp, ip, lr}^
 8f8:	6c006666 	stcvs	6, cr6, [r0], {102}	; 0x66
 8fc:	00747361 	rsbseq	r7, r4, r1, ror #6
 900:	74732f2e 	ldrbtvc	r2, [r3], #-3886	; 0xfffff0d2
 904:	2d666661 	stclcs	6, cr6, [r6, #-388]!	; 0xfffffe7c
 908:	2f637273 	svccs	0x00637273
 90c:	74737563 	ldrbtvc	r7, [r3], #-1379	; 0xfffffa9d
 910:	6c2d6d6f 	stcvs	13, cr6, [sp], #-444	; 0xfffffe44
 914:	6564616f 	strbvs	r6, [r4, #-367]!	; 0xfffffe91
 918:	00632e72 	rsbeq	r2, r3, r2, ror lr
 91c:	6f626572 	svcvs	0x00626572
 920:	635f746f 	cmpvs	pc, #1862270976	; 0x6f000000
 924:	6f6c6c61 	svcvs	0x006c6c61
 928:	50007475 	andpl	r7, r0, r5, ror r4
 92c:	44575f4d 	ldrbmi	r5, [r7], #-3917	; 0xfffff0b3
 930:	7300474f 	movwvc	r4, #1871	; 0x74f
 934:	755f7465 	ldrbvc	r7, [pc, #-1125]	; 4d7 <__code_start__-0x7b29>
 938:	5f726573 	svcpl	0x00726573
 93c:	6576656c 	ldrbvs	r6, [r6, #-1388]!	; 0xfffffa94
 940:	2f2e006c 	svccs	0x002e006c
 944:	66617473 			; <UNDEFINED> instruction: 0x66617473
 948:	72732d66 	rsbsvc	r2, r3, #6528	; 0x1980
 94c:	65722f63 	ldrbvs	r2, [r2, #-3939]!	; 0xfffff09d
 950:	746f6f62 	strbtvc	r6, [pc], #-3938	; 958 <__code_start__-0x76a8>
 954:	5000632e 	andpl	r6, r0, lr, lsr #6
 958:	41505f4d 	cmpmi	r0, sp, asr #30
 95c:	4f575353 	svcmi	0x00575353
 960:	61004452 	tstvs	r0, r2, asr r4
 964:	73755f74 	cmnvc	r5, #116, 30	; 0x1d0
 968:	6c5f7265 	lfmvs	f7, 2, [pc], {101}	; 0x65
 96c:	6c657665 	stclvs	6, cr7, [r5], #-404	; 0xfffffe6c
 970:	5f4d5000 	svcpl	0x004d5000
 974:	43545352 	cmpmi	r4, #1207959553	; 0x48000001
 978:	4352575f 	cmpmi	r2, #24903680	; 0x17c0000
 97c:	465f4746 	ldrbmi	r4, [pc], -r6, asr #14
 980:	5f4c4c55 	svcpl	0x004c4c55
 984:	45534552 	ldrbmi	r4, [r3, #-1362]	; 0xfffffaae
 988:	4d500054 	ldclmi	0, cr0, [r0, #-336]	; 0xfffffeb0
 98c:	5453525f 	ldrbpl	r5, [r3], #-607	; 0xfffffda1
 990:	70630043 	rsbvc	r0, r3, r3, asr #32
 994:	64007273 	strvs	r7, [r0], #-627	; 0xfffffd8d
 998:	79616c65 	stmdbvc	r1!, {r0, r2, r5, r6, sl, fp, sp, lr}^
 99c:	6365735f 	cmnvs	r5, #2080374785	; 0x7c000001
 9a0:	732f2e00 			; <UNDEFINED> instruction: 0x732f2e00
 9a4:	66666174 			; <UNDEFINED> instruction: 0x66666174
 9a8:	6372732d 	cmnvs	r2, #-1275068416	; 0xb4000000
 9ac:	6d69742f 	cfstrdvs	mvd7, [r9, #-188]!	; 0xffffff44
 9b0:	632e7265 			; <UNDEFINED> instruction: 0x632e7265
 9b4:	6d697400 	cfstrdvs	mvd7, [r9, #-0]
 9b8:	675f7265 	ldrbvs	r7, [pc, -r5, ror #4]
 9bc:	755f7465 	ldrbvc	r7, [pc, #-1125]	; 55f <__code_start__-0x7aa1>
 9c0:	00636573 	rsbeq	r6, r3, r3, ror r5
 9c4:	656d6974 	strbvs	r6, [sp, #-2420]!	; 0xfffff68c
 9c8:	65675f72 	strbvs	r5, [r7, #-3954]!	; 0xfffff08e
 9cc:	73755f74 	cmnvc	r5, #116, 30	; 0x1d0
 9d0:	725f6365 	subsvc	r6, pc, #-1811939327	; 0x94000001
 9d4:	62007761 	andvs	r7, r0, #25427968	; 0x1840000
 9d8:	5f647561 	svcpl	0x00647561
 9dc:	006c6176 	rsbeq	r6, ip, r6, ror r1
 9e0:	74617473 	strbtvc	r7, [r1], #-1139	; 0xfffffb8d
 9e4:	72617500 	rsbvc	r7, r1, #0, 10
 9e8:	61635f74 	smcvs	13812	; 0x35f4
 9ec:	65675f6e 	strbvs	r5, [r7, #-3950]!	; 0xfffff092
 9f0:	61006374 	tstvs	r0, r4, ror r3
 9f4:	705f7875 	subsvc	r7, pc, r5, ror r8	; <UNPREDICTABLE>
 9f8:	70697265 	rsbvc	r7, r9, r5, ror #4
 9fc:	75007368 	strvc	r7, [r0, #-872]	; 0xfffffc98
 a00:	2e747261 	cdpcs	2, 7, cr7, cr4, cr1, {3}
 a04:	61750063 	cmnvs	r5, r3, rrx
 a08:	635f7472 	cmpvs	pc, #1912602624	; 0x72000000
 a0c:	705f6e61 	subsvc	r6, pc, r1, ror #28
 a10:	00637475 	rsbeq	r7, r3, r5, ror r4
 a14:	74726175 	ldrbtvc	r6, [r2], #-373	; 0xfffffe8b
 a18:	5f78745f 	svcpl	0x0078745f
 a1c:	655f7369 	ldrbvs	r7, [pc, #-873]	; 6bb <__code_start__-0x7945>
 a20:	7974706d 	ldmdbvc	r4!, {r0, r2, r3, r5, r6, ip, sp, lr}^
 a24:	6f682f00 	svcvs	0x00682f00
 a28:	652f656d 	strvs	r6, [pc, #-1389]!	; 4c3 <__code_start__-0x7b3d>
 a2c:	656c676e 	strbvs	r6, [ip, #-1902]!	; 0xfffff892
 a30:	6c632f72 	stclvs	15, cr2, [r3], #-456	; 0xfffffe38
 a34:	2f737361 	svccs	0x00737361
 a38:	34327363 	ldrtcc	r7, [r2], #-867	; 0xfffffc9d
 a3c:	2d786c30 	ldclcs	12, cr6, [r8, #-192]!	; 0xffffff40
 a40:	70733232 	rsbsvc	r3, r3, r2, lsr r2
 a44:	696c2f72 	stmdbvs	ip!, {r1, r4, r5, r6, r8, r9, sl, fp, sp}^
 a48:	2f697062 	svccs	0x00697062
 a4c:	66617473 			; <UNDEFINED> instruction: 0x66617473
 a50:	72702d66 	rsbsvc	r2, r0, #6528	; 0x1980
 a54:	74617669 	strbtvc	r7, [r1], #-1641	; 0xfffff997
 a58:	61620065 	cmnvs	r2, r5, rrx
 a5c:	61006475 	tstvs	r0, r5, ror r4
 a60:	655f7875 	ldrbvs	r7, [pc, #-2165]	; 1f3 <__code_start__-0x7e0d>
 a64:	6c62616e 	stfvse	f6, [r2], #-440	; 0xfffffe48
 a68:	75007365 	strvc	r7, [r0, #-869]	; 0xfffffc9b
 a6c:	5f747261 	svcpl	0x00747261
 a70:	63746567 	cmnvs	r4, #432013312	; 0x19c00000
 a74:	746e6300 	strbtvc	r6, [lr], #-768	; 0xfffffd00
 a78:	6175006c 	cmnvs	r5, ip, rrx
 a7c:	645f7472 	ldrbvs	r7, [pc], #-1138	; a84 <__code_start__-0x757c>
 a80:	62617369 	rsbvs	r7, r1, #-1543503871	; 0xa4000001
 a84:	7500656c 	strvc	r6, [r0, #-1388]	; 0xfffffa94
 a88:	5f747261 	svcpl	0x00747261
 a8c:	5f736168 	svcpl	0x00736168
 a90:	61746164 	cmnvs	r4, r4, ror #2
 a94:	5f726f00 	svcpl	0x00726f00
 a98:	32336e69 	eorscc	r6, r3, #1680	; 0x690
 a9c:	72637300 	rsbvc	r7, r3, #0, 6
 aa0:	68637461 	stmdavs	r3!, {r0, r5, r6, sl, ip, sp, lr}^
 aa4:	72617500 	rsbvc	r7, r1, #0, 10
 aa8:	6e610074 	mcrvs	0, 3, r0, cr1, cr4, {3}
 aac:	6e695f64 	cdpvs	15, 6, cr5, cr9, cr4, {3}
 ab0:	64003233 	strvs	r3, [r0], #-563	; 0xfffffdcd
 ab4:	00747365 	rsbseq	r7, r4, r5, ror #6
 ab8:	696c2f2e 	stmdbvs	ip!, {r1, r2, r3, r5, r8, r9, sl, fp, sp}^
 abc:	732f6362 			; <UNDEFINED> instruction: 0x732f6362
 ac0:	61637274 	smcvs	14116	; 0x3724
 ac4:	00632e74 	rsbeq	r2, r3, r4, ror lr
 ac8:	696c2f2e 	stmdbvs	ip!, {r1, r2, r3, r5, r8, r9, sl, fp, sp}^
 acc:	732f6362 			; <UNDEFINED> instruction: 0x732f6362
 ad0:	6d637274 	sfmvs	f7, 2, [r3, #-464]!	; 0xfffffe30
 ad4:	00632e70 	rsbeq	r2, r3, r0, ror lr
 ad8:	696c2f2e 	stmdbvs	ip!, {r1, r2, r3, r5, r8, r9, sl, fp, sp}^
 adc:	732f6362 			; <UNDEFINED> instruction: 0x732f6362
 ae0:	70637274 	rsbvc	r7, r3, r4, ror r2
 ae4:	00632e79 	rsbeq	r2, r3, r9, ror lr
 ae8:	657a6973 	ldrbvs	r6, [sl, #-2419]!	; 0xfffff68d
 aec:	2e00745f 	cfmvsrcs	mvf0, r7
 af0:	62696c2f 	rsbvs	r6, r9, #12032	; 0x2f00
 af4:	74732f63 	ldrbtvc	r2, [r3], #-3939	; 0xfffff09d
 af8:	6d636e72 	stclvs	14, cr6, [r3, #-456]!	; 0xfffffe38
 afc:	00632e70 	rsbeq	r2, r3, r0, ror lr
 b00:	74732f2e 	ldrbtvc	r2, [r3], #-3886	; 0xfffff0d2
 b04:	2d666661 	stclcs	6, cr6, [r6, #-388]!	; 0xfffffe7c
 b08:	2f637273 	svccs	0x00637273
 b0c:	61666564 	cmnvs	r6, r4, ror #10
 b10:	2d746c75 	ldclcs	12, cr6, [r4, #-468]!	; 0xfffffe2c
 b14:	6f626572 	svcvs	0x00626572
 b18:	632d746f 			; <UNDEFINED> instruction: 0x632d746f
 b1c:	6f6c6c61 	svcvs	0x006c6c61
 b20:	632e7475 			; <UNDEFINED> instruction: 0x632e7475
	...

Disassembly of section .debug_frame:

00000000 <.debug_frame>:
   0:	0000000c 	andeq	r0, r0, ip
   4:	ffffffff 			; <UNDEFINED> instruction: 0xffffffff
   8:	7c020001 	stcvc	0, cr0, [r2], {1}
   c:	000d0c0e 	andeq	r0, sp, lr, lsl #24
  10:	00000018 	andeq	r0, r0, r8, lsl r0
  14:	00000000 	andeq	r0, r0, r0
  18:	00008038 	andeq	r8, r0, r8, lsr r0
  1c:	00000054 	andeq	r0, r0, r4, asr r0
  20:	84100e42 	ldrhi	r0, [r0], #-3650	; 0xfffff1be
  24:	86038504 	strhi	r8, [r3], -r4, lsl #10
  28:	00018e02 	andeq	r8, r1, r2, lsl #28
  2c:	0000000c 	andeq	r0, r0, ip
  30:	ffffffff 			; <UNDEFINED> instruction: 0xffffffff
  34:	7c020001 	stcvc	0, cr0, [r2], {1}
  38:	000d0c0e 	andeq	r0, sp, lr, lsl #24
  3c:	00000018 	andeq	r0, r0, r8, lsl r0
  40:	0000002c 	andeq	r0, r0, ip, lsr #32
  44:	0000808c 	andeq	r8, r0, ip, lsl #1
  48:	00000028 	andeq	r0, r0, r8, lsr #32
  4c:	8e040e42 	cdphi	14, 0, cr0, cr4, cr2, {2}
  50:	100e4201 	andne	r4, lr, r1, lsl #4
  54:	00040e4e 	andeq	r0, r4, lr, asr #28
  58:	00000018 	andeq	r0, r0, r8, lsl r0
  5c:	0000002c 	andeq	r0, r0, ip, lsr #32
  60:	000080b4 	strheq	r8, [r0], -r4
  64:	0000002c 	andeq	r0, r0, ip, lsr #32
  68:	8e040e42 	cdphi	14, 0, cr0, cr4, cr2, {2}
  6c:	100e4201 	andne	r4, lr, r1, lsl #4
  70:	00040e50 	andeq	r0, r4, r0, asr lr
  74:	0000001c 	andeq	r0, r0, ip, lsl r0
  78:	0000002c 	andeq	r0, r0, ip, lsr #32
  7c:	000080e0 	andeq	r8, r0, r0, ror #1
  80:	00000040 	andeq	r0, r0, r0, asr #32
  84:	84080e42 	strhi	r0, [r8], #-3650	; 0xfffff1be
  88:	42018e02 	andmi	r8, r1, #2, 28
  8c:	0e5a180e 	cdpeq	8, 5, cr1, cr10, cr14, {0}
  90:	00000008 	andeq	r0, r0, r8
  94:	00000020 	andeq	r0, r0, r0, lsr #32
  98:	0000002c 	andeq	r0, r0, ip, lsr #32
  9c:	00008120 	andeq	r8, r0, r0, lsr #2
  a0:	000001dc 	ldrdeq	r0, [r0], -ip
  a4:	840c0e42 	strhi	r0, [ip], #-3650	; 0xfffff1be
  a8:	8e028503 	cfsh32hi	mvfx8, mvfx2, #3
  ac:	180e4201 	stmdane	lr, {r0, r9, lr}
  b0:	0e0a6402 	cdpeq	4, 0, cr6, cr10, cr2, {0}
  b4:	000b420c 	andeq	r4, fp, ip, lsl #4
  b8:	0000000c 	andeq	r0, r0, ip
  bc:	ffffffff 			; <UNDEFINED> instruction: 0xffffffff
  c0:	7c020001 	stcvc	0, cr0, [r2], {1}
  c4:	000d0c0e 	andeq	r0, sp, lr, lsl #24
  c8:	0000000c 	andeq	r0, r0, ip
  cc:	000000b8 	strheq	r0, [r0], -r8
  d0:	000082fc 	strdeq	r8, [r0], -ip
  d4:	00000010 	andeq	r0, r0, r0, lsl r0
  d8:	0000000c 	andeq	r0, r0, ip
  dc:	000000b8 	strheq	r0, [r0], -r8
  e0:	0000830c 	andeq	r8, r0, ip, lsl #6
  e4:	0000000c 	andeq	r0, r0, ip
  e8:	0000001c 	andeq	r0, r0, ip, lsl r0
  ec:	000000b8 	strheq	r0, [r0], -r8
  f0:	00008318 	andeq	r8, r0, r8, lsl r3
  f4:	00000100 	andeq	r0, r0, r0, lsl #2
  f8:	8e040e42 	cdphi	14, 0, cr0, cr4, cr2, {2}
  fc:	100e4201 	andne	r4, lr, r1, lsl #4
 100:	0e0a4402 	cdpeq	4, 0, cr4, cr10, cr2, {0}
 104:	000b4204 	andeq	r4, fp, r4, lsl #4
 108:	00000014 	andeq	r0, r0, r4, lsl r0
 10c:	000000b8 	strheq	r0, [r0], -r8
 110:	00008418 	andeq	r8, r0, r8, lsl r4
 114:	00000010 	andeq	r0, r0, r0, lsl r0
 118:	84080e42 	strhi	r0, [r8], #-3650	; 0xfffff1be
 11c:	00018e02 	andeq	r8, r1, r2, lsl #28
 120:	00000014 	andeq	r0, r0, r4, lsl r0
 124:	000000b8 	strheq	r0, [r0], -r8
 128:	00008428 	andeq	r8, r0, r8, lsr #8
 12c:	00000028 	andeq	r0, r0, r8, lsr #32
 130:	84080e42 	strhi	r0, [r8], #-3650	; 0xfffff1be
 134:	00018e02 	andeq	r8, r1, r2, lsl #28
 138:	00000014 	andeq	r0, r0, r4, lsl r0
 13c:	000000b8 	strheq	r0, [r0], -r8
 140:	00008450 	andeq	r8, r0, r0, asr r4
 144:	00000010 	andeq	r0, r0, r0, lsl r0
 148:	84080e42 	strhi	r0, [r8], #-3650	; 0xfffff1be
 14c:	00018e02 	andeq	r8, r1, r2, lsl #28
 150:	00000020 	andeq	r0, r0, r0, lsr #32
 154:	000000b8 	strheq	r0, [r0], -r8
 158:	00008460 	andeq	r8, r0, r0, ror #8
 15c:	000001d4 	ldrdeq	r0, [r0], -r4
 160:	84100e42 	ldrhi	r0, [r0], #-3650	; 0xfffff1be
 164:	86038504 	strhi	r8, [r3], -r4, lsl #10
 168:	42018e02 	andmi	r8, r1, #2, 28
 16c:	ca02180e 	bgt	861ac <__bss_end__+0x7bf54>
 170:	0000100e 	andeq	r1, r0, lr
 174:	00000018 	andeq	r0, r0, r8, lsl r0
 178:	000000b8 	strheq	r0, [r0], -r8
 17c:	00008634 	andeq	r8, r0, r4, lsr r6
 180:	000000bc 	strheq	r0, [r0], -ip
 184:	84100e42 	ldrhi	r0, [r0], #-3650	; 0xfffff1be
 188:	86038504 	strhi	r8, [r3], -r4, lsl #10
 18c:	00018e02 	andeq	r8, r1, r2, lsl #28
 190:	00000018 	andeq	r0, r0, r8, lsl r0
 194:	000000b8 	strheq	r0, [r0], -r8
 198:	000086f0 	strdeq	r8, [r0], -r0
 19c:	000000bc 	strheq	r0, [r0], -ip
 1a0:	84100e42 	ldrhi	r0, [r0], #-3650	; 0xfffff1be
 1a4:	86038504 	strhi	r8, [r3], -r4, lsl #10
 1a8:	00018e02 	andeq	r8, r1, r2, lsl #28
 1ac:	0000000c 	andeq	r0, r0, ip
 1b0:	000000b8 	strheq	r0, [r0], -r8
 1b4:	000087ac 	andeq	r8, r0, ip, lsr #15
 1b8:	00000010 	andeq	r0, r0, r0, lsl r0
 1bc:	0000001c 	andeq	r0, r0, ip, lsl r0
 1c0:	000000b8 	strheq	r0, [r0], -r8
 1c4:	000087bc 			; <UNDEFINED> instruction: 0x000087bc
 1c8:	000000a0 	andeq	r0, r0, r0, lsr #1
 1cc:	84080e42 	strhi	r0, [r8], #-3650	; 0xfffff1be
 1d0:	42018e02 	andmi	r8, r1, #2, 28
 1d4:	0a6c100e 	beq	1b04214 <__bss_end__+0x1af9fbc>
 1d8:	0b42080e 	bleq	1082218 <__bss_end__+0x1077fc0>
 1dc:	00000014 	andeq	r0, r0, r4, lsl r0
 1e0:	000000b8 	strheq	r0, [r0], -r8
 1e4:	0000885c 	andeq	r8, r0, ip, asr r8
 1e8:	00000018 	andeq	r0, r0, r8, lsl r0
 1ec:	84080e42 	strhi	r0, [r8], #-3650	; 0xfffff1be
 1f0:	00018e02 	andeq	r8, r1, r2, lsl #28
 1f4:	0000000c 	andeq	r0, r0, ip
 1f8:	ffffffff 			; <UNDEFINED> instruction: 0xffffffff
 1fc:	7c020001 	stcvc	0, cr0, [r2], {1}
 200:	000d0c0e 	andeq	r0, sp, lr, lsl #24
 204:	00000020 	andeq	r0, r0, r0, lsr #32
 208:	000001f4 	strdeq	r0, [r0], -r4
 20c:	00008874 	andeq	r8, r0, r4, ror r8
 210:	00000060 	andeq	r0, r0, r0, rrx
 214:	84100e48 	ldrhi	r0, [r0], #-3656	; 0xfffff1b8
 218:	86038504 	strhi	r8, [r3], -r4, lsl #10
 21c:	64018e02 	strvs	r8, [r1], #-3586	; 0xfffff1fe
 220:	c4c5c6ce 	strbgt	ip, [r5], #1742	; 0x6ce
 224:	0000000e 	andeq	r0, r0, lr
 228:	00000020 	andeq	r0, r0, r0, lsr #32
 22c:	000001f4 	strdeq	r0, [r0], -r4
 230:	000088d4 	ldrdeq	r8, [r0], -r4
 234:	00000058 	andeq	r0, r0, r8, asr r0
 238:	84100e46 	ldrhi	r0, [r0], #-3654	; 0xfffff1ba
 23c:	86038504 	strhi	r8, [r3], -r4, lsl #10
 240:	62018e02 	andvs	r8, r1, #2, 28
 244:	c4c5c6ce 	strbgt	ip, [r5], #1742	; 0x6ce
 248:	0000000e 	andeq	r0, r0, lr
 24c:	0000000c 	andeq	r0, r0, ip
 250:	000001f4 	strdeq	r0, [r0], -r4
 254:	0000892c 	andeq	r8, r0, ip, lsr #18
 258:	00000018 	andeq	r0, r0, r8, lsl r0
 25c:	0000000c 	andeq	r0, r0, ip
 260:	000001f4 	strdeq	r0, [r0], -r4
 264:	00008944 	andeq	r8, r0, r4, asr #18
 268:	00000018 	andeq	r0, r0, r8, lsl r0
 26c:	00000020 	andeq	r0, r0, r0, lsr #32
 270:	000001f4 	strdeq	r0, [r0], -r4
 274:	0000895c 	andeq	r8, r0, ip, asr r9
 278:	00000058 	andeq	r0, r0, r8, asr r0
 27c:	84100e46 	ldrhi	r0, [r0], #-3654	; 0xfffff1ba
 280:	86038504 	strhi	r8, [r3], -r4, lsl #10
 284:	62018e02 	andvs	r8, r1, #2, 28
 288:	c4c5c6ce 	strbgt	ip, [r5], #1742	; 0x6ce
 28c:	0000000e 	andeq	r0, r0, lr
 290:	0000000c 	andeq	r0, r0, ip
 294:	000001f4 	strdeq	r0, [r0], -r4
 298:	000089b4 			; <UNDEFINED> instruction: 0x000089b4
 29c:	00000030 	andeq	r0, r0, r0, lsr r0
 2a0:	00000014 	andeq	r0, r0, r4, lsl r0
 2a4:	000001f4 	strdeq	r0, [r0], -r4
 2a8:	000089e4 	andeq	r8, r0, r4, ror #19
 2ac:	00000028 	andeq	r0, r0, r8, lsr #32
 2b0:	84080e42 	strhi	r0, [r8], #-3650	; 0xfffff1be
 2b4:	00018e02 	andeq	r8, r1, r2, lsl #28
 2b8:	0000000c 	andeq	r0, r0, ip
 2bc:	ffffffff 			; <UNDEFINED> instruction: 0xffffffff
 2c0:	7c020001 	stcvc	0, cr0, [r2], {1}
 2c4:	000d0c0e 	andeq	r0, sp, lr, lsl #24
 2c8:	00000034 	andeq	r0, r0, r4, lsr r0
 2cc:	000002b8 			; <UNDEFINED> instruction: 0x000002b8
 2d0:	00008a0c 	andeq	r8, r0, ip, lsl #20
 2d4:	00000058 	andeq	r0, r0, r8, asr r0
 2d8:	80100e42 	andshi	r0, r0, r2, asr #28
 2dc:	82038104 	andhi	r8, r3, #1
 2e0:	42018302 	andmi	r8, r1, #134217728	; 0x8000000
 2e4:	07841c0e 	streq	r1, [r4, lr, lsl #24]
 2e8:	058e0685 	streq	r0, [lr, #1669]	; 0x685
 2ec:	5a280e44 	bpl	a03c04 <__bss_end__+0x9f99ac>
 2f0:	ce421c0e 	cdpgt	12, 4, cr1, cr2, cr14, {0}
 2f4:	100ec4c5 	andne	ip, lr, r5, asr #9
 2f8:	c1c2c342 	bicgt	ip, r2, r2, asr #6
 2fc:	00000ec0 	andeq	r0, r0, r0, asr #29
 300:	0000000c 	andeq	r0, r0, ip
 304:	ffffffff 			; <UNDEFINED> instruction: 0xffffffff
 308:	7c020001 	stcvc	0, cr0, [r2], {1}
 30c:	000d0c0e 	andeq	r0, sp, lr, lsl #24
 310:	00000014 	andeq	r0, r0, r4, lsl r0
 314:	00000300 	andeq	r0, r0, r0, lsl #6
 318:	00008a64 	andeq	r8, r0, r4, ror #20
 31c:	00000014 	andeq	r0, r0, r4, lsl r0
 320:	84080e42 	strhi	r0, [r8], #-3650	; 0xfffff1be
 324:	00018e02 	andeq	r8, r1, r2, lsl #28
 328:	0000000c 	andeq	r0, r0, ip
 32c:	00000300 	andeq	r0, r0, r0, lsl #6
 330:	00008a78 	andeq	r8, r0, r8, ror sl
 334:	00000018 	andeq	r0, r0, r8, lsl r0
 338:	0000000c 	andeq	r0, r0, ip
 33c:	00000300 	andeq	r0, r0, r0, lsl #6
 340:	00008a90 	muleq	r0, r0, sl
 344:	00000010 	andeq	r0, r0, r0, lsl r0
 348:	0000000c 	andeq	r0, r0, ip
 34c:	ffffffff 			; <UNDEFINED> instruction: 0xffffffff
 350:	7c020001 	stcvc	0, cr0, [r2], {1}
 354:	000d0c0e 	andeq	r0, sp, lr, lsl #24
 358:	00000018 	andeq	r0, r0, r8, lsl r0
 35c:	00000348 	andeq	r0, r0, r8, asr #6
 360:	00008aa0 	andeq	r8, r0, r0, lsr #21
 364:	00000038 	andeq	r0, r0, r8, lsr r0
 368:	84100e42 	ldrhi	r0, [r0], #-3650	; 0xfffff1be
 36c:	86038504 	strhi	r8, [r3], -r4, lsl #10
 370:	00018e02 	andeq	r8, r1, r2, lsl #28
 374:	0000000c 	andeq	r0, r0, ip
 378:	ffffffff 			; <UNDEFINED> instruction: 0xffffffff
 37c:	7c020001 	stcvc	0, cr0, [r2], {1}
 380:	000d0c0e 	andeq	r0, sp, lr, lsl #24
 384:	0000002c 	andeq	r0, r0, ip, lsr #32
 388:	00000374 	andeq	r0, r0, r4, ror r3
 38c:	00008ad8 	ldrdeq	r8, [r0], -r8	; <UNPREDICTABLE>
 390:	00000328 	andeq	r0, r0, r8, lsr #6
 394:	84180e42 	ldrhi	r0, [r8], #-3650	; 0xfffff1be
 398:	86058506 	strhi	r8, [r5], -r6, lsl #10
 39c:	88038704 	stmdahi	r3, {r2, r8, r9, sl, pc}
 3a0:	46018e02 	strmi	r8, [r1], -r2, lsl #28
 3a4:	c002600e 	andgt	r6, r2, lr
 3a8:	42180e0a 	andsmi	r0, r8, #160	; 0xa0
 3ac:	0a8e020b 	beq	fe380be0 <__bss_end__+0xfe376988>
 3b0:	0b42180e 	bleq	10863f0 <__bss_end__+0x107c198>
 3b4:	00000014 	andeq	r0, r0, r4, lsl r0
 3b8:	00000374 	andeq	r0, r0, r4, ror r3
 3bc:	00008e00 	andeq	r8, r0, r0, lsl #28
 3c0:	00000060 	andeq	r0, r0, r0, rrx
 3c4:	8e040e52 	mcrhi	14, 0, r0, cr4, cr2, {2}
 3c8:	100e4401 	andne	r4, lr, r1, lsl #8
 3cc:	0000002c 	andeq	r0, r0, ip, lsr #32
 3d0:	00000374 	andeq	r0, r0, r4, ror r3
 3d4:	00008e60 	andeq	r8, r0, r0, ror #28
 3d8:	0000062c 	andeq	r0, r0, ip, lsr #12
 3dc:	84240e42 	strthi	r0, [r4], #-3650	; 0xfffff1be
 3e0:	86088509 	strhi	r8, [r8], -r9, lsl #10
 3e4:	88068707 	stmdahi	r6, {r0, r1, r2, r8, r9, sl, pc}
 3e8:	8a048905 	bhi	122804 <__bss_end__+0x1185ac>
 3ec:	8e028b03 	vmlahi.f64	d8, d2, d3
 3f0:	c00e5201 	andgt	r5, lr, r1, lsl #4
 3f4:	0a860202 	beq	fe180c04 <__bss_end__+0xfe1769ac>
 3f8:	0b42240e 	bleq	1089438 <__bss_end__+0x107f1e0>
 3fc:	0000000c 	andeq	r0, r0, ip
 400:	ffffffff 			; <UNDEFINED> instruction: 0xffffffff
 404:	7c020001 	stcvc	0, cr0, [r2], {1}
 408:	000d0c0e 	andeq	r0, sp, lr, lsl #24
 40c:	00000014 	andeq	r0, r0, r4, lsl r0
 410:	000003fc 	strdeq	r0, [r0], -ip
 414:	0000948c 	andeq	r9, r0, ip, lsl #9
 418:	0000002c 	andeq	r0, r0, ip, lsr #32
 41c:	84080e44 	strhi	r0, [r8], #-3652	; 0xfffff1bc
 420:	00018e02 	andeq	r8, r1, r2, lsl #28
 424:	0000000c 	andeq	r0, r0, ip
 428:	ffffffff 			; <UNDEFINED> instruction: 0xffffffff
 42c:	7c020001 	stcvc	0, cr0, [r2], {1}
 430:	000d0c0e 	andeq	r0, sp, lr, lsl #24
 434:	00000018 	andeq	r0, r0, r8, lsl r0
 438:	00000424 	andeq	r0, r0, r4, lsr #8
 43c:	000094b8 			; <UNDEFINED> instruction: 0x000094b8
 440:	00000128 	andeq	r0, r0, r8, lsr #2
 444:	84100e42 	ldrhi	r0, [r0], #-3650	; 0xfffff1be
 448:	86038504 	strhi	r8, [r3], -r4, lsl #10
 44c:	00018e02 	andeq	r8, r1, r2, lsl #28
 450:	0000000c 	andeq	r0, r0, ip
 454:	ffffffff 			; <UNDEFINED> instruction: 0xffffffff
 458:	7c020001 	stcvc	0, cr0, [r2], {1}
 45c:	000d0c0e 	andeq	r0, sp, lr, lsl #24
 460:	0000000c 	andeq	r0, r0, ip
 464:	00000450 	andeq	r0, r0, r0, asr r4
 468:	000095e0 	andeq	r9, r0, r0, ror #11
 46c:	00000004 	andeq	r0, r0, r4
 470:	0000000c 	andeq	r0, r0, ip
 474:	ffffffff 			; <UNDEFINED> instruction: 0xffffffff
 478:	7c020001 	stcvc	0, cr0, [r2], {1}
 47c:	000d0c0e 	andeq	r0, sp, lr, lsl #24
 480:	0000000c 	andeq	r0, r0, ip
 484:	00000470 	andeq	r0, r0, r0, ror r4
 488:	000095fc 	strdeq	r9, [r0], -ip
 48c:	00000018 	andeq	r0, r0, r8, lsl r0
 490:	0000000c 	andeq	r0, r0, ip
 494:	00000470 	andeq	r0, r0, r0, ror r4
 498:	00009614 	andeq	r9, r0, r4, lsl r6
 49c:	00000014 	andeq	r0, r0, r4, lsl r0
 4a0:	00000014 	andeq	r0, r0, r4, lsl r0
 4a4:	00000470 	andeq	r0, r0, r0, ror r4
 4a8:	00009628 	andeq	r9, r0, r8, lsr #12
 4ac:	00000060 	andeq	r0, r0, r0, rrx
 4b0:	84080e42 	strhi	r0, [r8], #-3650	; 0xfffff1be
 4b4:	00018e02 	andeq	r8, r1, r2, lsl #28
 4b8:	0000000c 	andeq	r0, r0, ip
 4bc:	ffffffff 			; <UNDEFINED> instruction: 0xffffffff
 4c0:	7c020001 	stcvc	0, cr0, [r2], {1}
 4c4:	000d0c0e 	andeq	r0, sp, lr, lsl #24
 4c8:	0000000c 	andeq	r0, r0, ip
 4cc:	000004b8 			; <UNDEFINED> instruction: 0x000004b8
 4d0:	00009688 	andeq	r9, r0, r8, lsl #13
 4d4:	0000000c 	andeq	r0, r0, ip
 4d8:	00000014 	andeq	r0, r0, r4, lsl r0
 4dc:	000004b8 			; <UNDEFINED> instruction: 0x000004b8
 4e0:	00009694 	muleq	r0, r4, r6
 4e4:	00000024 	andeq	r0, r0, r4, lsr #32
 4e8:	84080e42 	strhi	r0, [r8], #-3650	; 0xfffff1be
 4ec:	00018e02 	andeq	r8, r1, r2, lsl #28
 4f0:	0000001c 	andeq	r0, r0, ip, lsl r0
 4f4:	000004b8 			; <UNDEFINED> instruction: 0x000004b8
 4f8:	000096b8 			; <UNDEFINED> instruction: 0x000096b8
 4fc:	00000048 	andeq	r0, r0, r8, asr #32
 500:	84180e42 	ldrhi	r0, [r8], #-3650	; 0xfffff1be
 504:	86058506 	strhi	r8, [r5], -r6, lsl #10
 508:	88038704 	stmdahi	r3, {r2, r8, r9, sl, pc}
 50c:	00018e02 	andeq	r8, r1, r2, lsl #28
 510:	0000001c 	andeq	r0, r0, ip, lsl r0
 514:	000004b8 			; <UNDEFINED> instruction: 0x000004b8
 518:	00009700 	andeq	r9, r0, r0, lsl #14
 51c:	00000050 	andeq	r0, r0, r0, asr r0
 520:	84180e42 	ldrhi	r0, [r8], #-3650	; 0xfffff1be
 524:	86058506 	strhi	r8, [r5], -r6, lsl #10
 528:	88038704 	stmdahi	r3, {r2, r8, r9, sl, pc}
 52c:	00018e02 	andeq	r8, r1, r2, lsl #28
 530:	0000001c 	andeq	r0, r0, ip, lsl r0
 534:	000004b8 			; <UNDEFINED> instruction: 0x000004b8
 538:	00009750 	andeq	r9, r0, r0, asr r7
 53c:	00000054 	andeq	r0, r0, r4, asr r0
 540:	84180e42 	ldrhi	r0, [r8], #-3650	; 0xfffff1be
 544:	86058506 	strhi	r8, [r5], -r6, lsl #10
 548:	88038704 	stmdahi	r3, {r2, r8, r9, sl, pc}
 54c:	00018e02 	andeq	r8, r1, r2, lsl #28
 550:	0000000c 	andeq	r0, r0, ip
 554:	ffffffff 			; <UNDEFINED> instruction: 0xffffffff
 558:	7c020001 	stcvc	0, cr0, [r2], {1}
 55c:	000d0c0e 	andeq	r0, sp, lr, lsl #24
 560:	00000018 	andeq	r0, r0, r8, lsl r0
 564:	00000550 	andeq	r0, r0, r0, asr r5
 568:	000097a4 	andeq	r9, r0, r4, lsr #15
 56c:	00000020 	andeq	r0, r0, r0, lsr #32
 570:	84100e42 	ldrhi	r0, [r0], #-3650	; 0xfffff1be
 574:	86038504 	strhi	r8, [r3], -r4, lsl #10
 578:	00018e02 	andeq	r8, r1, r2, lsl #28
 57c:	00000018 	andeq	r0, r0, r8, lsl r0
 580:	00000550 	andeq	r0, r0, r0, asr r5
 584:	000097c4 	andeq	r9, r0, r4, asr #15
 588:	00000020 	andeq	r0, r0, r0, lsr #32
 58c:	84100e42 	ldrhi	r0, [r0], #-3650	; 0xfffff1be
 590:	86038504 	strhi	r8, [r3], -r4, lsl #10
 594:	00018e02 	andeq	r8, r1, r2, lsl #28
 598:	00000014 	andeq	r0, r0, r4, lsl r0
 59c:	00000550 	andeq	r0, r0, r0, asr r5
 5a0:	000097e4 	andeq	r9, r0, r4, ror #15
 5a4:	000000b0 	strheq	r0, [r0], -r0	; <UNPREDICTABLE>
 5a8:	84080e42 	strhi	r0, [r8], #-3650	; 0xfffff1be
 5ac:	00018e02 	andeq	r8, r1, r2, lsl #28
 5b0:	00000014 	andeq	r0, r0, r4, lsl r0
 5b4:	00000550 	andeq	r0, r0, r0, asr r5
 5b8:	00009894 	muleq	r0, r4, r8
 5bc:	00000018 	andeq	r0, r0, r8, lsl r0
 5c0:	84080e42 	strhi	r0, [r8], #-3650	; 0xfffff1be
 5c4:	00018e02 	andeq	r8, r1, r2, lsl #28
 5c8:	00000014 	andeq	r0, r0, r4, lsl r0
 5cc:	00000550 	andeq	r0, r0, r0, asr r5
 5d0:	000098ac 	andeq	r9, r0, ip, lsr #17
 5d4:	00000020 	andeq	r0, r0, r0, lsr #32
 5d8:	84080e42 	strhi	r0, [r8], #-3650	; 0xfffff1be
 5dc:	00018e02 	andeq	r8, r1, r2, lsl #28
 5e0:	00000014 	andeq	r0, r0, r4, lsl r0
 5e4:	00000550 	andeq	r0, r0, r0, asr r5
 5e8:	000098cc 	andeq	r9, r0, ip, asr #17
 5ec:	00000030 	andeq	r0, r0, r0, lsr r0
 5f0:	84080e42 	strhi	r0, [r8], #-3650	; 0xfffff1be
 5f4:	00018e02 	andeq	r8, r1, r2, lsl #28
 5f8:	00000014 	andeq	r0, r0, r4, lsl r0
 5fc:	00000550 	andeq	r0, r0, r0, asr r5
 600:	000098fc 	strdeq	r9, [r0], -ip
 604:	00000030 	andeq	r0, r0, r0, lsr r0
 608:	84080e42 	strhi	r0, [r8], #-3650	; 0xfffff1be
 60c:	00018e02 	andeq	r8, r1, r2, lsl #28
 610:	00000014 	andeq	r0, r0, r4, lsl r0
 614:	00000550 	andeq	r0, r0, r0, asr r5
 618:	0000992c 	andeq	r9, r0, ip, lsr #18
 61c:	00000010 	andeq	r0, r0, r0, lsl r0
 620:	84080e42 	strhi	r0, [r8], #-3650	; 0xfffff1be
 624:	00018e02 	andeq	r8, r1, r2, lsl #28
 628:	00000014 	andeq	r0, r0, r4, lsl r0
 62c:	00000550 	andeq	r0, r0, r0, asr r5
 630:	0000993c 	andeq	r9, r0, ip, lsr r9
 634:	00000020 	andeq	r0, r0, r0, lsr #32
 638:	84080e42 	strhi	r0, [r8], #-3650	; 0xfffff1be
 63c:	00018e02 	andeq	r8, r1, r2, lsl #28
 640:	00000014 	andeq	r0, r0, r4, lsl r0
 644:	00000550 	andeq	r0, r0, r0, asr r5
 648:	0000995c 	andeq	r9, r0, ip, asr r9
 64c:	00000014 	andeq	r0, r0, r4, lsl r0
 650:	84080e42 	strhi	r0, [r8], #-3650	; 0xfffff1be
 654:	00018e02 	andeq	r8, r1, r2, lsl #28
 658:	00000014 	andeq	r0, r0, r4, lsl r0
 65c:	00000550 	andeq	r0, r0, r0, asr r5
 660:	00009970 	andeq	r9, r0, r0, ror r9
 664:	00000024 	andeq	r0, r0, r4, lsr #32
 668:	84080e42 	strhi	r0, [r8], #-3650	; 0xfffff1be
 66c:	00018e02 	andeq	r8, r1, r2, lsl #28
 670:	0000000c 	andeq	r0, r0, ip
 674:	ffffffff 			; <UNDEFINED> instruction: 0xffffffff
 678:	7c020001 	stcvc	0, cr0, [r2], {1}
 67c:	000d0c0e 	andeq	r0, sp, lr, lsl #24
 680:	0000000c 	andeq	r0, r0, ip
 684:	00000670 	andeq	r0, r0, r0, ror r6
 688:	00009994 	muleq	r0, r4, r9
 68c:	0000002c 	andeq	r0, r0, ip, lsr #32
 690:	0000000c 	andeq	r0, r0, ip
 694:	ffffffff 			; <UNDEFINED> instruction: 0xffffffff
 698:	7c020001 	stcvc	0, cr0, [r2], {1}
 69c:	000d0c0e 	andeq	r0, sp, lr, lsl #24
 6a0:	0000000c 	andeq	r0, r0, ip
 6a4:	00000690 	muleq	r0, r0, r6
 6a8:	000099c0 	andeq	r9, r0, r0, asr #19
 6ac:	00000044 	andeq	r0, r0, r4, asr #32
 6b0:	0000000c 	andeq	r0, r0, ip
 6b4:	ffffffff 			; <UNDEFINED> instruction: 0xffffffff
 6b8:	7c020001 	stcvc	0, cr0, [r2], {1}
 6bc:	000d0c0e 	andeq	r0, sp, lr, lsl #24
 6c0:	0000000c 	andeq	r0, r0, ip
 6c4:	000006b0 			; <UNDEFINED> instruction: 0x000006b0
 6c8:	00009a04 	andeq	r9, r0, r4, lsl #20
 6cc:	00000018 	andeq	r0, r0, r8, lsl r0
 6d0:	0000000c 	andeq	r0, r0, ip
 6d4:	ffffffff 			; <UNDEFINED> instruction: 0xffffffff
 6d8:	7c020001 	stcvc	0, cr0, [r2], {1}
 6dc:	000d0c0e 	andeq	r0, sp, lr, lsl #24
 6e0:	0000000c 	andeq	r0, r0, ip
 6e4:	000006d0 	ldrdeq	r0, [r0], -r0	; <UNPREDICTABLE>
 6e8:	00009a1c 	andeq	r9, r0, ip, lsl sl
 6ec:	00000030 	andeq	r0, r0, r0, lsr r0
 6f0:	0000000c 	andeq	r0, r0, ip
 6f4:	ffffffff 			; <UNDEFINED> instruction: 0xffffffff
 6f8:	7c020001 	stcvc	0, cr0, [r2], {1}
 6fc:	000d0c0e 	andeq	r0, sp, lr, lsl #24
 700:	0000000c 	andeq	r0, r0, ip
 704:	000006f0 	strdeq	r0, [r0], -r0	; <UNPREDICTABLE>
 708:	00009a4c 	andeq	r9, r0, ip, asr #20
 70c:	00000004 	andeq	r0, r0, r4
