
int-compile.elf:     file format elf32-littlearm


Disassembly of section .text:

00008000 <__code_start__>:
    8000:	e3a00013 	mov	r0, #19, 0
    8004:	e3800080 	orr	r0, r0, #128, 0	; 0x80
    8008:	e129f000 	msr	CPSR_fc, r0
    800c:	e3a01000 	mov	r1, #0, 0
    8010:	ee071f95 	mcr	15, 0, r1, cr7, cr5, {4}
    8014:	e3a0d302 	mov	sp, #134217728	; 0x8000000
    8018:	e3a0b000 	mov	fp, #0, 0
    801c:	eb0003a4 	bl	8eb4 <_cstart>
    8020:	eb0003be 	bl	8f20 <rpi_reboot>

00008024 <PUT32>:
    8024:	e5801000 	str	r1, [r0]
    8028:	e12fff1e 	bx	lr

0000802c <GET32>:
    802c:	e5900000 	ldr	r0, [r0]
    8030:	e12fff1e 	bx	lr

00008034 <BRANCHTO>:
    8034:	e12fff10 	bx	r0

00008038 <int_0>:
    8038:	e59f200c 	ldr	r2, [pc, #12]	; 804c <int_0+0x14>
    803c:	e5923000 	ldr	r3, [r2]
    8040:	e2833001 	add	r3, r3, #1, 0
    8044:	e5823000 	str	r3, [r2]
    8048:	e12fff1e 	bx	lr
    804c:	00009cd0 	ldrdeq	r9, [r0], -r0

00008050 <int_1>:
    8050:	e59f200c 	ldr	r2, [pc, #12]	; 8064 <int_1+0x14>
    8054:	e5923000 	ldr	r3, [r2]
    8058:	e2833001 	add	r3, r3, #1, 0
    805c:	e5823000 	str	r3, [r2]
    8060:	e12fff1e 	bx	lr
    8064:	00009cd0 	ldrdeq	r9, [r0], -r0

00008068 <int_2>:
    8068:	e59f200c 	ldr	r2, [pc, #12]	; 807c <int_2+0x14>
    806c:	e5923000 	ldr	r3, [r2]
    8070:	e2833001 	add	r3, r3, #1, 0
    8074:	e5823000 	str	r3, [r2]
    8078:	e12fff1e 	bx	lr
    807c:	00009cd0 	ldrdeq	r9, [r0], -r0

00008080 <int_3>:
    8080:	e59f200c 	ldr	r2, [pc, #12]	; 8094 <int_3+0x14>
    8084:	e5923000 	ldr	r3, [r2]
    8088:	e2833001 	add	r3, r3, #1, 0
    808c:	e5823000 	str	r3, [r2]
    8090:	e12fff1e 	bx	lr
    8094:	00009cd0 	ldrdeq	r9, [r0], -r0

00008098 <int_4>:
    8098:	e59f200c 	ldr	r2, [pc, #12]	; 80ac <int_4+0x14>
    809c:	e5923000 	ldr	r3, [r2]
    80a0:	e2833001 	add	r3, r3, #1, 0
    80a4:	e5823000 	str	r3, [r2]
    80a8:	e12fff1e 	bx	lr
    80ac:	00009cd0 	ldrdeq	r9, [r0], -r0

000080b0 <int_5>:
    80b0:	e59f200c 	ldr	r2, [pc, #12]	; 80c4 <int_5+0x14>
    80b4:	e5923000 	ldr	r3, [r2]
    80b8:	e2833001 	add	r3, r3, #1, 0
    80bc:	e5823000 	str	r3, [r2]
    80c0:	e12fff1e 	bx	lr
    80c4:	00009cd0 	ldrdeq	r9, [r0], -r0

000080c8 <int_6>:
    80c8:	e59f200c 	ldr	r2, [pc, #12]	; 80dc <int_6+0x14>
    80cc:	e5923000 	ldr	r3, [r2]
    80d0:	e2833001 	add	r3, r3, #1, 0
    80d4:	e5823000 	str	r3, [r2]
    80d8:	e12fff1e 	bx	lr
    80dc:	00009cd0 	ldrdeq	r9, [r0], -r0

000080e0 <int_7>:
    80e0:	e59f200c 	ldr	r2, [pc, #12]	; 80f4 <int_7+0x14>
    80e4:	e5923000 	ldr	r3, [r2]
    80e8:	e2833001 	add	r3, r3, #1, 0
    80ec:	e5823000 	str	r3, [r2]
    80f0:	e12fff1e 	bx	lr
    80f4:	00009cd0 	ldrdeq	r9, [r0], -r0

000080f8 <say_hello>:
    80f8:	e92d4010 	push	{r4, lr}
    80fc:	e1a03002 	mov	r3, r2
    8100:	e1a02001 	mov	r2, r1
    8104:	e1a01000 	mov	r1, r0
    8108:	e59f0004 	ldr	r0, [pc, #4]	; 8114 <say_hello+0x1c>
    810c:	eb000153 	bl	8660 <printk>
    8110:	e8bd8010 	pop	{r4, pc}
    8114:	00009798 	muleq	r0, r8, r7

00008118 <generic_call_int>:
    8118:	e92d4070 	push	{r4, r5, r6, lr}
    811c:	e1a06000 	mov	r6, r0
    8120:	e1a05001 	mov	r5, r1
    8124:	e3a04000 	mov	r4, #0, 0
    8128:	e1540005 	cmp	r4, r5
    812c:	28bd8070 	popcs	{r4, r5, r6, pc}
    8130:	e7963104 	ldr	r3, [r6, r4, lsl #2]
    8134:	e12fff33 	blx	r3
    8138:	e2844001 	add	r4, r4, #1, 0
    813c:	eafffff9 	b	8128 <generic_call_int+0x10>

00008140 <int_compile>:
    8140:	e92d4030 	push	{r4, r5, lr}
    8144:	e24dd00c 	sub	sp, sp, #12, 0
    8148:	e1a05000 	mov	r5, r0
    814c:	e1a04001 	mov	r4, r1
    8150:	e3a00b01 	mov	r0, #1024	; 0x400
    8154:	eb000492 	bl	93a4 <kmalloc>
    8158:	e35400f9 	cmp	r4, #249, 0	; 0xf9
    815c:	959f3094 	ldrls	r3, [pc, #148]	; 81f8 <int_compile+0xb8>
    8160:	95803000 	strls	r3, [r0]
    8164:	93a02000 	movls	r2, #0, 0
    8168:	9a000011 	bls	81b4 <int_compile+0x74>
    816c:	e59f3088 	ldr	r3, [pc, #136]	; 81fc <int_compile+0xbc>
    8170:	e58d3000 	str	r3, [sp]
    8174:	e3a03023 	mov	r3, #35, 0	; 0x23
    8178:	e59f2080 	ldr	r2, [pc, #128]	; 8200 <int_compile+0xc0>
    817c:	e59f1080 	ldr	r1, [pc, #128]	; 8204 <int_compile+0xc4>
    8180:	e59f0080 	ldr	r0, [pc, #128]	; 8208 <int_compile+0xc8>
    8184:	eb000135 	bl	8660 <printk>
    8188:	eb00033e 	bl	8e88 <clean_reboot>
    818c:	e2821001 	add	r1, r2, #1, 0
    8190:	e080c101 	add	ip, r0, r1, lsl #2
    8194:	e7953102 	ldr	r3, [r5, r2, lsl #2]
    8198:	e043300c 	sub	r3, r3, ip
    819c:	e2433008 	sub	r3, r3, #8, 0
    81a0:	e1a03123 	lsr	r3, r3, #2
    81a4:	e3c334ff 	bic	r3, r3, #-16777216	; 0xff000000
    81a8:	e38334eb 	orr	r3, r3, #-352321536	; 0xeb000000
    81ac:	e7803101 	str	r3, [r0, r1, lsl #2]
    81b0:	e1a02001 	mov	r2, r1
    81b4:	e2443001 	sub	r3, r4, #1, 0
    81b8:	e1530002 	cmp	r3, r2
    81bc:	8afffff2 	bhi	818c <int_compile+0x4c>
    81c0:	e59f3044 	ldr	r3, [pc, #68]	; 820c <int_compile+0xcc>
    81c4:	e7803104 	str	r3, [r0, r4, lsl #2]
    81c8:	e2842001 	add	r2, r4, #1, 0
    81cc:	e0801102 	add	r1, r0, r2, lsl #2
    81d0:	e2444107 	sub	r4, r4, #-1073741823	; 0xc0000001
    81d4:	e7953104 	ldr	r3, [r5, r4, lsl #2]
    81d8:	e0433001 	sub	r3, r3, r1
    81dc:	e2433008 	sub	r3, r3, #8, 0
    81e0:	e1a03123 	lsr	r3, r3, #2
    81e4:	e3c334ff 	bic	r3, r3, #-16777216	; 0xff000000
    81e8:	e38334ea 	orr	r3, r3, #-369098752	; 0xea000000
    81ec:	e7803102 	str	r3, [r0, r2, lsl #2]
    81f0:	e28dd00c 	add	sp, sp, #12, 0
    81f4:	e8bd8030 	pop	{r4, r5, pc}
    81f8:	e52de004 	push	{lr}		; (str lr, [sp, #-4]!)
    81fc:	000097d4 	ldrdeq	r9, [r0], -r4
    8200:	00009910 	andeq	r9, r0, r0, lsl r9
    8204:	000097b0 			; <UNDEFINED> instruction: 0x000097b0
    8208:	000097c0 	andeq	r9, r0, r0, asr #15
    820c:	e49de004 	pop	{lr}		; (ldr lr, [sp], #4)

00008210 <thunk>:
    8210:	e92d000e 	push	{r1, r2, r3}
    8214:	e92d4070 	push	{r4, r5, r6, lr}
    8218:	e24dd044 	sub	sp, sp, #68, 0	; 0x44
    821c:	e1a05000 	mov	r5, r0
    8220:	e59d4054 	ldr	r4, [sp, #84]	; 0x54
    8224:	e3a00b01 	mov	r0, #1024	; 0x400
    8228:	eb00045d 	bl	93a4 <kmalloc>
    822c:	e354000b 	cmp	r4, #11, 0
    8230:	ca00000d 	bgt	826c <thunk+0x5c>
    8234:	e28d3058 	add	r3, sp, #88, 0	; 0x58
    8238:	e58d303c 	str	r3, [sp, #60]	; 0x3c
    823c:	e3a03000 	mov	r3, #0, 0
    8240:	e1530004 	cmp	r3, r4
    8244:	aa000010 	bge	828c <thunk+0x7c>
    8248:	e59d203c 	ldr	r2, [sp, #60]	; 0x3c
    824c:	e2821004 	add	r1, r2, #4, 0
    8250:	e58d103c 	str	r1, [sp, #60]	; 0x3c
    8254:	e5921000 	ldr	r1, [r2]
    8258:	e28d2040 	add	r2, sp, #64, 0	; 0x40
    825c:	e0822103 	add	r2, r2, r3, lsl #2
    8260:	e5021034 	str	r1, [r2, #-52]	; 0xffffffcc
    8264:	e2833001 	add	r3, r3, #1, 0
    8268:	eafffff4 	b	8240 <thunk+0x30>
    826c:	e59f30c0 	ldr	r3, [pc, #192]	; 8334 <thunk+0x124>
    8270:	e58d3000 	str	r3, [sp]
    8274:	e3a03030 	mov	r3, #48, 0	; 0x30
    8278:	e59f20b8 	ldr	r2, [pc, #184]	; 8338 <thunk+0x128>
    827c:	e59f10b8 	ldr	r1, [pc, #184]	; 833c <thunk+0x12c>
    8280:	e59f00b8 	ldr	r0, [pc, #184]	; 8340 <thunk+0x130>
    8284:	eb0000f5 	bl	8660 <printk>
    8288:	eb0002fe 	bl	8e88 <clean_reboot>
    828c:	e3a03000 	mov	r3, #0, 0
    8290:	e1a02003 	mov	r2, r3
    8294:	ea000009 	b	82c0 <thunk+0xb0>
    8298:	e59f10a4 	ldr	r1, [pc, #164]	; 8344 <thunk+0x134>
    829c:	e1811603 	orr	r1, r1, r3, lsl #12
    82a0:	e7801102 	str	r1, [r0, r2, lsl #2]
    82a4:	e2821040 	add	r1, r2, #64, 0	; 0x40
    82a8:	e28dc040 	add	ip, sp, #64, 0	; 0x40
    82ac:	e08cc103 	add	ip, ip, r3, lsl #2
    82b0:	e51cc034 	ldr	ip, [ip, #-52]	; 0xffffffcc
    82b4:	e780c101 	str	ip, [r0, r1, lsl #2]
    82b8:	e2822001 	add	r2, r2, #1, 0
    82bc:	e2833001 	add	r3, r3, #1, 0
    82c0:	e1530004 	cmp	r3, r4
    82c4:	aa00000f 	bge	8308 <thunk+0xf8>
    82c8:	e3530003 	cmp	r3, #3, 0
    82cc:	dafffff1 	ble	8298 <thunk+0x88>
    82d0:	e0441003 	sub	r1, r4, r3
    82d4:	e2811003 	add	r1, r1, #3, 0
    82d8:	e282c001 	add	ip, r2, #1, 0
    82dc:	e59fe064 	ldr	lr, [pc, #100]	; 8348 <thunk+0x138>
    82e0:	e780e102 	str	lr, [r0, r2, lsl #2]
    82e4:	e282e040 	add	lr, r2, #64, 0	; 0x40
    82e8:	e28d6040 	add	r6, sp, #64, 0	; 0x40
    82ec:	e0861101 	add	r1, r6, r1, lsl #2
    82f0:	e5111034 	ldr	r1, [r1, #-52]	; 0xffffffcc
    82f4:	e780110e 	str	r1, [r0, lr, lsl #2]
    82f8:	e59fe04c 	ldr	lr, [pc, #76]	; 834c <thunk+0x13c>
    82fc:	e780e10c 	str	lr, [r0, ip, lsl #2]
    8300:	e2822002 	add	r2, r2, #2, 0
    8304:	eaffffec 	b	82bc <thunk+0xac>
    8308:	e0803102 	add	r3, r0, r2, lsl #2
    830c:	e0453003 	sub	r3, r5, r3
    8310:	e2433008 	sub	r3, r3, #8, 0
    8314:	e1a03123 	lsr	r3, r3, #2
    8318:	e3c334ff 	bic	r3, r3, #-16777216	; 0xff000000
    831c:	e38334ea 	orr	r3, r3, #-369098752	; 0xea000000
    8320:	e7803102 	str	r3, [r0, r2, lsl #2]
    8324:	e28dd044 	add	sp, sp, #68, 0	; 0x44
    8328:	e8bd4070 	pop	{r4, r5, r6, lr}
    832c:	e28dd00c 	add	sp, sp, #12, 0
    8330:	e12fff1e 	bx	lr
    8334:	000097dc 	ldrdeq	r9, [r0], -ip
    8338:	0000991c 	andeq	r9, r0, ip, lsl r9
    833c:	000097b0 			; <UNDEFINED> instruction: 0x000097b0
    8340:	000097c0 	andeq	r9, r0, r0, asr #15
    8344:	e59f00f8 	ldr	r0, [pc, #248]	; 8444 <notmain+0xcc>
    8348:	e59fc0f8 	ldr	ip, [pc, #248]	; 8448 <notmain+0xd0>
    834c:	e52dc004 	push	{ip}		; (str ip, [sp, #-4]!)

00008350 <specialized_call_int>:
    8350:	e92d4010 	push	{r4, lr}
    8354:	ebffff37 	bl	8038 <int_0>
    8358:	ebffff3c 	bl	8050 <int_1>
    835c:	ebffff41 	bl	8068 <int_2>
    8360:	ebffff46 	bl	8080 <int_3>
    8364:	ebffff4b 	bl	8098 <int_4>
    8368:	ebffff50 	bl	80b0 <int_5>
    836c:	ebffff55 	bl	80c8 <int_6>
    8370:	ebffff5a 	bl	80e0 <int_7>
    8374:	e8bd8010 	pop	{r4, pc}

00008378 <notmain>:
    8378:	e92d4070 	push	{r4, r5, r6, lr}
    837c:	e24dd038 	sub	sp, sp, #56, 0	; 0x38
    8380:	e28dc018 	add	ip, sp, #24, 0
    8384:	e59fe290 	ldr	lr, [pc, #656]	; 861c <notmain+0x2a4>
    8388:	e8be000f 	ldm	lr!, {r0, r1, r2, r3}
    838c:	e8ac000f 	stmia	ip!, {r0, r1, r2, r3}
    8390:	e89e000f 	ldm	lr, {r0, r1, r2, r3}
    8394:	e88c000f 	stm	ip, {r0, r1, r2, r3}
    8398:	e3a03001 	mov	r3, #1, 0
    839c:	ee0f3f1c 	mcr	15, 0, r3, cr15, cr12, {0}
    83a0:	eb0002b0 	bl	8e68 <enable_cache>
    83a4:	e59f4274 	ldr	r4, [pc, #628]	; 8620 <notmain+0x2a8>
    83a8:	e3a03000 	mov	r3, #0, 0
    83ac:	e5843000 	str	r3, [r4]
    83b0:	ee1f5f3c 	mrc	15, 0, r5, cr15, cr12, {1}
    83b4:	e3a01008 	mov	r1, #8, 0
    83b8:	e28d0018 	add	r0, sp, #24, 0
    83bc:	ebffff55 	bl	8118 <generic_call_int>
    83c0:	e3a01008 	mov	r1, #8, 0
    83c4:	e28d0018 	add	r0, sp, #24, 0
    83c8:	ebffff52 	bl	8118 <generic_call_int>
    83cc:	e3a01008 	mov	r1, #8, 0
    83d0:	e28d0018 	add	r0, sp, #24, 0
    83d4:	ebffff4f 	bl	8118 <generic_call_int>
    83d8:	e3a01008 	mov	r1, #8, 0
    83dc:	e28d0018 	add	r0, sp, #24, 0
    83e0:	ebffff4c 	bl	8118 <generic_call_int>
    83e4:	e3a01008 	mov	r1, #8, 0
    83e8:	e28d0018 	add	r0, sp, #24, 0
    83ec:	ebffff49 	bl	8118 <generic_call_int>
    83f0:	e3a01008 	mov	r1, #8, 0
    83f4:	e28d0018 	add	r0, sp, #24, 0
    83f8:	ebffff46 	bl	8118 <generic_call_int>
    83fc:	e3a01008 	mov	r1, #8, 0
    8400:	e28d0018 	add	r0, sp, #24, 0
    8404:	ebffff43 	bl	8118 <generic_call_int>
    8408:	e3a01008 	mov	r1, #8, 0
    840c:	e28d0018 	add	r0, sp, #24, 0
    8410:	ebffff40 	bl	8118 <generic_call_int>
    8414:	e3a01008 	mov	r1, #8, 0
    8418:	e28d0018 	add	r0, sp, #24, 0
    841c:	ebffff3d 	bl	8118 <generic_call_int>
    8420:	e3a01008 	mov	r1, #8, 0
    8424:	e28d0018 	add	r0, sp, #24, 0
    8428:	ebffff3a 	bl	8118 <generic_call_int>
    842c:	ee1f2f3c 	mrc	15, 0, r2, cr15, cr12, {1}
    8430:	e59f31ec 	ldr	r3, [pc, #492]	; 8624 <notmain+0x2ac>
    8434:	e0422005 	sub	r2, r2, r5
    8438:	e59f11e8 	ldr	r1, [pc, #488]	; 8628 <notmain+0x2b0>
    843c:	e59f01e8 	ldr	r0, [pc, #488]	; 862c <notmain+0x2b4>
    8440:	eb000086 	bl	8660 <printk>
    8444:	e5943000 	ldr	r3, [r4]
    8448:	e3530050 	cmp	r3, #80, 0	; 0x50
    844c:	0a00000c 	beq	8484 <notmain+0x10c>
    8450:	eb00009d 	bl	86cc <rpi_reset_putc>
    8454:	e5943000 	ldr	r3, [r4]
    8458:	e3a02050 	mov	r2, #80, 0	; 0x50
    845c:	e58d2008 	str	r2, [sp, #8]
    8460:	e58d3004 	str	r3, [sp, #4]
    8464:	e59f31c4 	ldr	r3, [pc, #452]	; 8630 <notmain+0x2b8>
    8468:	e58d3000 	str	r3, [sp]
    846c:	e3a0306f 	mov	r3, #111, 0	; 0x6f
    8470:	e59f21bc 	ldr	r2, [pc, #444]	; 8634 <notmain+0x2bc>
    8474:	e59f11bc 	ldr	r1, [pc, #444]	; 8638 <notmain+0x2c0>
    8478:	e59f01bc 	ldr	r0, [pc, #444]	; 863c <notmain+0x2c4>
    847c:	eb000077 	bl	8660 <printk>
    8480:	eb000280 	bl	8e88 <clean_reboot>
    8484:	e59f4194 	ldr	r4, [pc, #404]	; 8620 <notmain+0x2a8>
    8488:	e3a03000 	mov	r3, #0, 0
    848c:	e5843000 	str	r3, [r4]
    8490:	ee1f5f3c 	mrc	15, 0, r5, cr15, cr12, {1}
    8494:	ebffffad 	bl	8350 <specialized_call_int>
    8498:	ebffffac 	bl	8350 <specialized_call_int>
    849c:	ebffffab 	bl	8350 <specialized_call_int>
    84a0:	ebffffaa 	bl	8350 <specialized_call_int>
    84a4:	ebffffa9 	bl	8350 <specialized_call_int>
    84a8:	ebffffa8 	bl	8350 <specialized_call_int>
    84ac:	ebffffa7 	bl	8350 <specialized_call_int>
    84b0:	ebffffa6 	bl	8350 <specialized_call_int>
    84b4:	ebffffa5 	bl	8350 <specialized_call_int>
    84b8:	ebffffa4 	bl	8350 <specialized_call_int>
    84bc:	ee1f2f3c 	mrc	15, 0, r2, cr15, cr12, {1}
    84c0:	e59f3178 	ldr	r3, [pc, #376]	; 8640 <notmain+0x2c8>
    84c4:	e0422005 	sub	r2, r2, r5
    84c8:	e59f1174 	ldr	r1, [pc, #372]	; 8644 <notmain+0x2cc>
    84cc:	e59f0158 	ldr	r0, [pc, #344]	; 862c <notmain+0x2b4>
    84d0:	eb000062 	bl	8660 <printk>
    84d4:	e5943000 	ldr	r3, [r4]
    84d8:	e3530050 	cmp	r3, #80, 0	; 0x50
    84dc:	0a00000c 	beq	8514 <notmain+0x19c>
    84e0:	eb000079 	bl	86cc <rpi_reset_putc>
    84e4:	e5943000 	ldr	r3, [r4]
    84e8:	e3a02050 	mov	r2, #80, 0	; 0x50
    84ec:	e58d2008 	str	r2, [sp, #8]
    84f0:	e58d3004 	str	r3, [sp, #4]
    84f4:	e59f3134 	ldr	r3, [pc, #308]	; 8630 <notmain+0x2b8>
    84f8:	e58d3000 	str	r3, [sp]
    84fc:	e3a03084 	mov	r3, #132, 0	; 0x84
    8500:	e59f212c 	ldr	r2, [pc, #300]	; 8634 <notmain+0x2bc>
    8504:	e59f112c 	ldr	r1, [pc, #300]	; 8638 <notmain+0x2c0>
    8508:	e59f012c 	ldr	r0, [pc, #300]	; 863c <notmain+0x2c4>
    850c:	eb000053 	bl	8660 <printk>
    8510:	eb00025c 	bl	8e88 <clean_reboot>
    8514:	e59f5104 	ldr	r5, [pc, #260]	; 8620 <notmain+0x2a8>
    8518:	e3a03000 	mov	r3, #0, 0
    851c:	e5853000 	str	r3, [r5]
    8520:	e3a01008 	mov	r1, #8, 0
    8524:	e28d0018 	add	r0, sp, #24, 0
    8528:	ebffff04 	bl	8140 <int_compile>
    852c:	e1a04000 	mov	r4, r0
    8530:	ee1f6f3c 	mrc	15, 0, r6, cr15, cr12, {1}
    8534:	e12fff30 	blx	r0
    8538:	e12fff34 	blx	r4
    853c:	e12fff34 	blx	r4
    8540:	e12fff34 	blx	r4
    8544:	e12fff34 	blx	r4
    8548:	e12fff34 	blx	r4
    854c:	e12fff34 	blx	r4
    8550:	e12fff34 	blx	r4
    8554:	e12fff34 	blx	r4
    8558:	e12fff34 	blx	r4
    855c:	ee1f2f3c 	mrc	15, 0, r2, cr15, cr12, {1}
    8560:	e59f30e0 	ldr	r3, [pc, #224]	; 8648 <notmain+0x2d0>
    8564:	e0422006 	sub	r2, r2, r6
    8568:	e59f10dc 	ldr	r1, [pc, #220]	; 864c <notmain+0x2d4>
    856c:	e59f00b8 	ldr	r0, [pc, #184]	; 862c <notmain+0x2b4>
    8570:	eb00003a 	bl	8660 <printk>
    8574:	e5953000 	ldr	r3, [r5]
    8578:	e3530050 	cmp	r3, #80, 0	; 0x50
    857c:	0a00000c 	beq	85b4 <notmain+0x23c>
    8580:	eb000051 	bl	86cc <rpi_reset_putc>
    8584:	e5953000 	ldr	r3, [r5]
    8588:	e3a02050 	mov	r2, #80, 0	; 0x50
    858c:	e58d2008 	str	r2, [sp, #8]
    8590:	e58d3004 	str	r3, [sp, #4]
    8594:	e59f3094 	ldr	r3, [pc, #148]	; 8630 <notmain+0x2b8>
    8598:	e58d3000 	str	r3, [sp]
    859c:	e3a0308b 	mov	r3, #139, 0	; 0x8b
    85a0:	e59f208c 	ldr	r2, [pc, #140]	; 8634 <notmain+0x2bc>
    85a4:	e59f108c 	ldr	r1, [pc, #140]	; 8638 <notmain+0x2c0>
    85a8:	e59f008c 	ldr	r0, [pc, #140]	; 863c <notmain+0x2c4>
    85ac:	eb00002b 	bl	8660 <printk>
    85b0:	eb000234 	bl	8e88 <clean_reboot>
    85b4:	e3a04003 	mov	r4, #3, 0
    85b8:	e58d4000 	str	r4, [sp]
    85bc:	e3a03f7d 	mov	r3, #500	; 0x1f4
    85c0:	e3a02005 	mov	r2, #5, 0
    85c4:	e1a01004 	mov	r1, r4
    85c8:	e59f0080 	ldr	r0, [pc, #128]	; 8650 <notmain+0x2d8>
    85cc:	ebffff0f 	bl	8210 <thunk>
    85d0:	e12fff30 	blx	r0
    85d4:	e3a03006 	mov	r3, #6, 0
    85d8:	e58d3010 	str	r3, [sp, #16]
    85dc:	e3a03005 	mov	r3, #5, 0
    85e0:	e58d300c 	str	r3, [sp, #12]
    85e4:	e3a03004 	mov	r3, #4, 0
    85e8:	e58d3008 	str	r3, [sp, #8]
    85ec:	e58d4004 	str	r4, [sp, #4]
    85f0:	e3a03002 	mov	r3, #2, 0
    85f4:	e58d3000 	str	r3, [sp]
    85f8:	e3a03001 	mov	r3, #1, 0
    85fc:	e59f2050 	ldr	r2, [pc, #80]	; 8654 <notmain+0x2dc>
    8600:	e3a01007 	mov	r1, #7, 0
    8604:	e59f004c 	ldr	r0, [pc, #76]	; 8658 <notmain+0x2e0>
    8608:	ebffff00 	bl	8210 <thunk>
    860c:	e12fff30 	blx	r0
    8610:	e59f0044 	ldr	r0, [pc, #68]	; 865c <notmain+0x2e4>
    8614:	eb000011 	bl	8660 <printk>
    8618:	eb00021a 	bl	8e88 <clean_reboot>
    861c:	00009924 	andeq	r9, r0, r4, lsr #18
    8620:	00009cd0 	ldrdeq	r9, [r0], -r0
    8624:	000097e4 	andeq	r9, r0, r4, ror #15
    8628:	00009800 	andeq	r9, r0, r0, lsl #16
    862c:	0000981c 	andeq	r9, r0, ip, lsl r8
    8630:	00009870 	andeq	r9, r0, r0, ror r8
    8634:	00009944 	andeq	r9, r0, r4, asr #18
    8638:	000097b0 			; <UNDEFINED> instruction: 0x000097b0
    863c:	00009838 	andeq	r9, r0, r8, lsr r8
    8640:	0000987c 	andeq	r9, r0, ip, ror r8
    8644:	00009894 	muleq	r0, r4, r8
    8648:	000098b4 			; <UNDEFINED> instruction: 0x000098b4
    864c:	000098bc 			; <UNDEFINED> instruction: 0x000098bc
    8650:	000080f8 	strdeq	r8, [r0], -r8	; <UNPREDICTABLE>
    8654:	000098d8 	ldrdeq	r9, [r0], -r8
    8658:	00008660 	andeq	r8, r0, r0, ror #12
    865c:	00009908 	andeq	r9, r0, r8, lsl #18

00008660 <printk>:
    8660:	e92d000f 	push	{r0, r1, r2, r3}
    8664:	e92d4030 	push	{r4, r5, lr}
    8668:	e24dd00c 	sub	sp, sp, #12, 0
    866c:	e28d301c 	add	r3, sp, #28, 0
    8670:	e58d3004 	str	r3, [sp, #4]
    8674:	e59f5034 	ldr	r5, [pc, #52]	; 86b0 <printk+0x50>
    8678:	e59d2018 	ldr	r2, [sp, #24]
    867c:	e3a01b01 	mov	r1, #1024	; 0x400
    8680:	e1a00005 	mov	r0, r5
    8684:	eb0000c9 	bl	89b0 <va_printk>
    8688:	e1a04000 	mov	r4, r0
    868c:	e59f3020 	ldr	r3, [pc, #32]	; 86b4 <printk+0x54>
    8690:	e5933000 	ldr	r3, [r3]
    8694:	e1a00005 	mov	r0, r5
    8698:	e12fff33 	blx	r3
    869c:	e1a00004 	mov	r0, r4
    86a0:	e28dd00c 	add	sp, sp, #12, 0
    86a4:	e8bd4030 	pop	{r4, r5, lr}
    86a8:	e28dd010 	add	sp, sp, #16, 0
    86ac:	e12fff1e 	bx	lr
    86b0:	00009cd4 	ldrdeq	r9, [r0], -r4
    86b4:	00009cc0 	andeq	r9, r0, r0, asr #25

000086b8 <internal_putchar>:
    86b8:	e92d4010 	push	{r4, lr}
    86bc:	e1a04000 	mov	r4, r0
    86c0:	eb0002a2 	bl	9150 <uart_putc>
    86c4:	e1a00004 	mov	r0, r4
    86c8:	e8bd8010 	pop	{r4, pc}

000086cc <rpi_reset_putc>:
    86cc:	e59f3008 	ldr	r3, [pc, #8]	; 86dc <rpi_reset_putc+0x10>
    86d0:	e59f2008 	ldr	r2, [pc, #8]	; 86e0 <rpi_reset_putc+0x14>
    86d4:	e5832000 	str	r2, [r3]
    86d8:	e12fff1e 	bx	lr
    86dc:	00009cbc 			; <UNDEFINED> instruction: 0x00009cbc
    86e0:	000086b8 			; <UNDEFINED> instruction: 0x000086b8

000086e4 <rpi_set_putc>:
    86e4:	e59f3004 	ldr	r3, [pc, #4]	; 86f0 <rpi_set_putc+0xc>
    86e8:	e5830000 	str	r0, [r3]
    86ec:	e12fff1e 	bx	lr
    86f0:	00009cbc 			; <UNDEFINED> instruction: 0x00009cbc

000086f4 <internal_putk>:
    86f4:	e92d4010 	push	{r4, lr}
    86f8:	e1a04000 	mov	r4, r0
    86fc:	e5d40000 	ldrb	r0, [r4]
    8700:	e3500000 	cmp	r0, #0, 0
    8704:	0a000004 	beq	871c <internal_putk+0x28>
    8708:	e59f3014 	ldr	r3, [pc, #20]	; 8724 <internal_putk+0x30>
    870c:	e5933000 	ldr	r3, [r3]
    8710:	e12fff33 	blx	r3
    8714:	e2844001 	add	r4, r4, #1, 0
    8718:	eafffff7 	b	86fc <internal_putk+0x8>
    871c:	e3a00001 	mov	r0, #1, 0
    8720:	e8bd8010 	pop	{r4, pc}
    8724:	00009cbc 			; <UNDEFINED> instruction: 0x00009cbc

00008728 <isdigit>:
    8728:	e2400030 	sub	r0, r0, #48, 0	; 0x30
    872c:	e3500009 	cmp	r0, #9, 0
    8730:	83a00000 	movhi	r0, #0, 0
    8734:	93a00001 	movls	r0, #1, 0
    8738:	e12fff1e 	bx	lr

0000873c <pad>:
    873c:	e0401001 	sub	r1, r0, r1
    8740:	e1510002 	cmp	r1, r2
    8744:	b3a03020 	movlt	r3, #32, 0
    8748:	b4c03001 	strblt	r3, [r0], #1
    874c:	b2811001 	addlt	r1, r1, #1, 0
    8750:	bafffffa 	blt	8740 <pad+0x4>
    8754:	e3a03000 	mov	r3, #0, 0
    8758:	e5c03000 	strb	r3, [r0]
    875c:	e12fff1e 	bx	lr

00008760 <reverse>:
    8760:	e042c003 	sub	ip, r2, r3
    8764:	e28cc001 	add	ip, ip, #1, 0
    8768:	e15c0001 	cmp	ip, r1
    876c:	c04cc001 	subgt	ip, ip, r1
    8770:	c083300c 	addgt	r3, r3, ip
    8774:	e2421001 	sub	r1, r2, #1, 0
    8778:	e1a02000 	mov	r2, r0
    877c:	e1510003 	cmp	r1, r3
    8780:	2451c001 	ldrbcs	ip, [r1], #-1
    8784:	24c2c001 	strbcs	ip, [r2], #1
    8788:	2afffffb 	bcs	877c <reverse+0x1c>
    878c:	e3a03000 	mov	r3, #0, 0
    8790:	e5c23000 	strb	r3, [r2]
    8794:	e12fff1e 	bx	lr

00008798 <emit>:
    8798:	e92d40f0 	push	{r4, r5, r6, r7, lr}
    879c:	e24dd04c 	sub	sp, sp, #76, 0	; 0x4c
    87a0:	e1a05001 	mov	r5, r1
    87a4:	e1a04002 	mov	r4, r2
    87a8:	e59d2060 	ldr	r2, [sp, #96]	; 0x60
    87ac:	e1520004 	cmp	r2, r4
    87b0:	c2442001 	subgt	r2, r4, #1, 0
    87b4:	e1a0c003 	mov	ip, r3
    87b8:	e2400002 	sub	r0, r0, #2, 0
    87bc:	e350000e 	cmp	r0, #14, 0
    87c0:	979ff100 	ldrls	pc, [pc, r0, lsl #2]
    87c4:	ea000050 	b	890c <emit+0x174>
    87c8:	000088e4 	andeq	r8, r0, r4, ror #17
    87cc:	0000890c 	andeq	r8, r0, ip, lsl #18
    87d0:	0000890c 	andeq	r8, r0, ip, lsl #18
    87d4:	0000890c 	andeq	r8, r0, ip, lsl #18
    87d8:	0000890c 	andeq	r8, r0, ip, lsl #18
    87dc:	0000890c 	andeq	r8, r0, ip, lsl #18
    87e0:	000088d8 	ldrdeq	r8, [r0], -r8	; <UNPREDICTABLE>
    87e4:	0000890c 	andeq	r8, r0, ip, lsl #18
    87e8:	00008804 	andeq	r8, r0, r4, lsl #16
    87ec:	0000890c 	andeq	r8, r0, ip, lsl #18
    87f0:	0000890c 	andeq	r8, r0, ip, lsl #18
    87f4:	0000890c 	andeq	r8, r0, ip, lsl #18
    87f8:	0000890c 	andeq	r8, r0, ip, lsl #18
    87fc:	0000890c 	andeq	r8, r0, ip, lsl #18
    8800:	0000887c 	andeq	r8, r0, ip, ror r8
    8804:	e59d1064 	ldr	r1, [sp, #100]	; 0x64
    8808:	e2511000 	subs	r1, r1, #0, 0
    880c:	13a01001 	movne	r1, #1, 0
    8810:	e0111fa3 	ands	r1, r1, r3, lsr #31
    8814:	0a000016 	beq	8874 <emit+0xdc>
    8818:	e263c000 	rsb	ip, r3, #0, 0
    881c:	e3a06001 	mov	r6, #1, 0
    8820:	e28d0008 	add	r0, sp, #8, 0
    8824:	e59f3100 	ldr	r3, [pc, #256]	; 892c <emit+0x194>
    8828:	e0831c93 	umull	r1, r3, r3, ip
    882c:	e1a031a3 	lsr	r3, r3, #3
    8830:	e1a0e003 	mov	lr, r3
    8834:	e0833103 	add	r3, r3, r3, lsl #2
    8838:	e04c3083 	sub	r3, ip, r3, lsl #1
    883c:	e1a01000 	mov	r1, r0
    8840:	e2800001 	add	r0, r0, #1, 0
    8844:	e59f70e4 	ldr	r7, [pc, #228]	; 8930 <emit+0x198>
    8848:	e7d73003 	ldrb	r3, [r7, r3]
    884c:	e5c13000 	strb	r3, [r1]
    8850:	e1a0300c 	mov	r3, ip
    8854:	e1a0c00e 	mov	ip, lr
    8858:	e3530009 	cmp	r3, #9, 0
    885c:	8afffff0 	bhi	8824 <emit+0x8c>
    8860:	e3560000 	cmp	r6, #0, 0
    8864:	13a0302d 	movne	r3, #45, 0	; 0x2d
    8868:	15c03000 	strbne	r3, [r0]
    886c:	12810002 	addne	r0, r1, #2, 0
    8870:	ea00000f 	b	88b4 <emit+0x11c>
    8874:	e3a06000 	mov	r6, #0, 0
    8878:	eaffffe8 	b	8820 <emit+0x88>
    887c:	e28d1008 	add	r1, sp, #8, 0
    8880:	e20c000f 	and	r0, ip, #15, 0
    8884:	e59fe0a8 	ldr	lr, [pc, #168]	; 8934 <emit+0x19c>
    8888:	e7de0000 	ldrb	r0, [lr, r0]
    888c:	e5c10000 	strb	r0, [r1]
    8890:	e2811001 	add	r1, r1, #1, 0
    8894:	e35c000f 	cmp	ip, #15, 0
    8898:	e1a0c22c 	lsr	ip, ip, #4
    889c:	8afffff7 	bhi	8880 <emit+0xe8>
    88a0:	e1a00001 	mov	r0, r1
    88a4:	e3a03078 	mov	r3, #120, 0	; 0x78
    88a8:	e4c03002 	strb	r3, [r0], #2
    88ac:	e3a03030 	mov	r3, #48, 0	; 0x30
    88b0:	e5c13001 	strb	r3, [r1, #1]
    88b4:	e28d1008 	add	r1, sp, #8, 0
    88b8:	ebffff9f 	bl	873c <pad>
    88bc:	e1a02000 	mov	r2, r0
    88c0:	e28d3008 	add	r3, sp, #8, 0
    88c4:	e1a01004 	mov	r1, r4
    88c8:	e1a00005 	mov	r0, r5
    88cc:	ebffffa3 	bl	8760 <reverse>
    88d0:	e28dd04c 	add	sp, sp, #76, 0	; 0x4c
    88d4:	e8bd80f0 	pop	{r4, r5, r6, r7, pc}
    88d8:	e5cd3008 	strb	r3, [sp, #8]
    88dc:	e28d0009 	add	r0, sp, #9, 0
    88e0:	eafffff3 	b	88b4 <emit+0x11c>
    88e4:	e28d0008 	add	r0, sp, #8, 0
    88e8:	e20c1001 	and	r1, ip, #1, 0
    88ec:	e59fe044 	ldr	lr, [pc, #68]	; 8938 <emit+0x1a0>
    88f0:	e7de1001 	ldrb	r1, [lr, r1]
    88f4:	e5c01000 	strb	r1, [r0]
    88f8:	e2800001 	add	r0, r0, #1, 0
    88fc:	e35c0001 	cmp	ip, #1, 0
    8900:	e1a0c0ac 	lsr	ip, ip, #1
    8904:	8afffff7 	bhi	88e8 <emit+0x150>
    8908:	eaffffe9 	b	88b4 <emit+0x11c>
    890c:	e59f3028 	ldr	r3, [pc, #40]	; 893c <emit+0x1a4>
    8910:	e58d3000 	str	r3, [sp]
    8914:	e3a03079 	mov	r3, #121, 0	; 0x79
    8918:	e59f2020 	ldr	r2, [pc, #32]	; 8940 <emit+0x1a8>
    891c:	e59f1020 	ldr	r1, [pc, #32]	; 8944 <emit+0x1ac>
    8920:	e59f0020 	ldr	r0, [pc, #32]	; 8948 <emit+0x1b0>
    8924:	ebffff4d 	bl	8660 <printk>
    8928:	eb000156 	bl	8e88 <clean_reboot>
    892c:	cccccccd 	stclgt	12, cr12, [ip], {205}	; 0xcd
    8930:	00009964 	andeq	r9, r0, r4, ror #18
    8934:	00009970 	andeq	r9, r0, r0, ror r9
    8938:	00009984 	andeq	r9, r0, r4, lsl #19
    893c:	00009960 	andeq	r9, r0, r0, ror #18
    8940:	00009a90 	muleq	r0, r0, sl
    8944:	0000994c 	andeq	r9, r0, ip, asr #18
    8948:	000097c0 	andeq	r9, r0, r0, asr #15

0000894c <rpi_set_output>:
    894c:	e3500000 	cmp	r0, #0, 0
    8950:	0a000006 	beq	8970 <rpi_set_output+0x24>
    8954:	e59f303c 	ldr	r3, [pc, #60]	; 8998 <rpi_set_output+0x4c>
    8958:	e5830000 	str	r0, [r3]
    895c:	e3510000 	cmp	r1, #0, 0
    8960:	012fff1e 	bxeq	lr
    8964:	e59f3030 	ldr	r3, [pc, #48]	; 899c <rpi_set_output+0x50>
    8968:	e5831000 	str	r1, [r3]
    896c:	e12fff1e 	bx	lr
    8970:	e52de004 	push	{lr}		; (str lr, [sp, #-4]!)
    8974:	e24dd00c 	sub	sp, sp, #12, 0
    8978:	e59f3020 	ldr	r3, [pc, #32]	; 89a0 <rpi_set_output+0x54>
    897c:	e58d3000 	str	r3, [sp]
    8980:	e3a03020 	mov	r3, #32, 0
    8984:	e59f2018 	ldr	r2, [pc, #24]	; 89a4 <rpi_set_output+0x58>
    8988:	e59f1018 	ldr	r1, [pc, #24]	; 89a8 <rpi_set_output+0x5c>
    898c:	e59f0018 	ldr	r0, [pc, #24]	; 89ac <rpi_set_output+0x60>
    8990:	ebffff32 	bl	8660 <printk>
    8994:	eb00013b 	bl	8e88 <clean_reboot>
    8998:	00009cbc 			; <UNDEFINED> instruction: 0x00009cbc
    899c:	00009cc0 	andeq	r9, r0, r0, asr #25
    89a0:	00009988 	andeq	r9, r0, r8, lsl #19
    89a4:	00009a98 	muleq	r0, r8, sl
    89a8:	0000994c 	andeq	r9, r0, ip, asr #18
    89ac:	000097c0 	andeq	r9, r0, r0, asr #15

000089b0 <va_printk>:
    89b0:	e92d4ff0 	push	{r4, r5, r6, r7, r8, r9, sl, fp, lr}
    89b4:	e24ddf45 	sub	sp, sp, #276	; 0x114
    89b8:	e1a09000 	mov	r9, r0
    89bc:	e58d2008 	str	r2, [sp, #8]
    89c0:	e58d300c 	str	r3, [sp, #12]
    89c4:	e2411001 	sub	r1, r1, #1, 0
    89c8:	e0808001 	add	r8, r0, r1
    89cc:	e3a03000 	mov	r3, #0, 0
    89d0:	e5c03000 	strb	r3, [r0]
    89d4:	e1a04000 	mov	r4, r0
    89d8:	e1a06002 	mov	r6, r2
    89dc:	ea000001 	b	89e8 <va_printk+0x38>
    89e0:	e2866001 	add	r6, r6, #1, 0
    89e4:	e4c43001 	strb	r3, [r4], #1
    89e8:	e5d63000 	ldrb	r3, [r6]
    89ec:	e3530000 	cmp	r3, #0, 0
    89f0:	0a000108 	beq	8e18 <va_printk+0x468>
    89f4:	e1540008 	cmp	r4, r8
    89f8:	2a000106 	bcs	8e18 <va_printk+0x468>
    89fc:	e3530025 	cmp	r3, #37, 0	; 0x25
    8a00:	1afffff6 	bne	89e0 <va_printk+0x30>
    8a04:	e5d62001 	ldrb	r2, [r6, #1]
    8a08:	e3520025 	cmp	r2, #37, 0	; 0x25
    8a0c:	04c43001 	strbeq	r3, [r4], #1
    8a10:	02866002 	addeq	r6, r6, #2, 0
    8a14:	0afffff3 	beq	89e8 <va_printk+0x38>
    8a18:	e2866001 	add	r6, r6, #1, 0
    8a1c:	e3a05000 	mov	r5, #0, 0
    8a20:	e5d67000 	ldrb	r7, [r6]
    8a24:	e1a0a007 	mov	sl, r7
    8a28:	e1a00007 	mov	r0, r7
    8a2c:	ebffff3d 	bl	8728 <isdigit>
    8a30:	e3500000 	cmp	r0, #0, 0
    8a34:	0a000004 	beq	8a4c <va_printk+0x9c>
    8a38:	e0855105 	add	r5, r5, r5, lsl #2
    8a3c:	e0875085 	add	r5, r7, r5, lsl #1
    8a40:	e2455030 	sub	r5, r5, #48, 0	; 0x30
    8a44:	e2866001 	add	r6, r6, #1, 0
    8a48:	eafffff4 	b	8a20 <va_printk+0x70>
    8a4c:	e355001f 	cmp	r5, #31, 0
    8a50:	8a00001a 	bhi	8ac0 <va_printk+0x110>
    8a54:	e2477062 	sub	r7, r7, #98, 0	; 0x62
    8a58:	e3570016 	cmp	r7, #22, 0
    8a5c:	979ff107 	ldrls	pc, [pc, r7, lsl #2]
    8a60:	ea0000d4 	b	8db8 <va_printk+0x408>
    8a64:	00008d3c 	andeq	r8, r0, ip, lsr sp
    8a68:	00008d84 	andeq	r8, r0, r4, lsl #27
    8a6c:	00008c9c 	muleq	r0, ip, ip
    8a70:	00008db8 			; <UNDEFINED> instruction: 0x00008db8
    8a74:	00008c84 	andeq	r8, r0, r4, lsl #25
    8a78:	00008db8 			; <UNDEFINED> instruction: 0x00008db8
    8a7c:	00008db8 			; <UNDEFINED> instruction: 0x00008db8
    8a80:	00008db8 			; <UNDEFINED> instruction: 0x00008db8
    8a84:	00008db8 			; <UNDEFINED> instruction: 0x00008db8
    8a88:	00008db8 			; <UNDEFINED> instruction: 0x00008db8
    8a8c:	00008ae0 	andeq	r8, r0, r0, ror #21
    8a90:	00008db8 			; <UNDEFINED> instruction: 0x00008db8
    8a94:	00008db8 			; <UNDEFINED> instruction: 0x00008db8
    8a98:	00008db8 			; <UNDEFINED> instruction: 0x00008db8
    8a9c:	00008d08 	andeq	r8, r0, r8, lsl #26
    8aa0:	00008db8 			; <UNDEFINED> instruction: 0x00008db8
    8aa4:	00008db8 			; <UNDEFINED> instruction: 0x00008db8
    8aa8:	00008d70 	andeq	r8, r0, r0, ror sp
    8aac:	00008db8 			; <UNDEFINED> instruction: 0x00008db8
    8ab0:	00008cd4 	ldrdeq	r8, [r0], -r4
    8ab4:	00008db8 			; <UNDEFINED> instruction: 0x00008db8
    8ab8:	00008db8 			; <UNDEFINED> instruction: 0x00008db8
    8abc:	00008d08 	andeq	r8, r0, r8, lsl #26
    8ac0:	e59f3364 	ldr	r3, [pc, #868]	; 8e2c <va_printk+0x47c>
    8ac4:	e58d3000 	str	r3, [sp]
    8ac8:	e3a03098 	mov	r3, #152, 0	; 0x98
    8acc:	e59f235c 	ldr	r2, [pc, #860]	; 8e30 <va_printk+0x480>
    8ad0:	e59f135c 	ldr	r1, [pc, #860]	; 8e34 <va_printk+0x484>
    8ad4:	e59f035c 	ldr	r0, [pc, #860]	; 8e38 <va_printk+0x488>
    8ad8:	ebfffee0 	bl	8660 <printk>
    8adc:	eb0000e9 	bl	8e88 <clean_reboot>
    8ae0:	e3a02003 	mov	r2, #3, 0
    8ae4:	e59f1350 	ldr	r1, [pc, #848]	; 8e3c <va_printk+0x48c>
    8ae8:	e1a00006 	mov	r0, r6
    8aec:	eb0002cf 	bl	9630 <strncmp>
    8af0:	e3500000 	cmp	r0, #0, 0
    8af4:	0a000005 	beq	8b10 <va_printk+0x160>
    8af8:	e3a02003 	mov	r2, #3, 0
    8afc:	e59f133c 	ldr	r1, [pc, #828]	; 8e40 <va_printk+0x490>
    8b00:	e1a00006 	mov	r0, r6
    8b04:	eb0002c9 	bl	9630 <strncmp>
    8b08:	e3500000 	cmp	r0, #0, 0
    8b0c:	1a000033 	bne	8be0 <va_printk+0x230>
    8b10:	e286b002 	add	fp, r6, #2, 0
    8b14:	e59d300c 	ldr	r3, [sp, #12]
    8b18:	e2833007 	add	r3, r3, #7, 0
    8b1c:	e3c33007 	bic	r3, r3, #7, 0
    8b20:	e2832008 	add	r2, r3, #8, 0
    8b24:	e58d200c 	str	r2, [sp, #12]
    8b28:	e593a000 	ldr	sl, [r3]
    8b2c:	e5937004 	ldr	r7, [r3, #4]
    8b30:	e1a01007 	mov	r1, r7
    8b34:	e59f0308 	ldr	r0, [pc, #776]	; 8e44 <va_printk+0x494>
    8b38:	ebfffec8 	bl	8660 <printk>
    8b3c:	e1a0100a 	mov	r1, sl
    8b40:	e59f0300 	ldr	r0, [pc, #768]	; 8e48 <va_printk+0x498>
    8b44:	ebfffec5 	bl	8660 <printk>
    8b48:	e3a02003 	mov	r2, #3, 0
    8b4c:	e59f12e8 	ldr	r1, [pc, #744]	; 8e3c <va_printk+0x48c>
    8b50:	e1a00006 	mov	r0, r6
    8b54:	eb0002b5 	bl	9630 <strncmp>
    8b58:	e3500000 	cmp	r0, #0, 0
    8b5c:	0a000027 	beq	8c00 <va_printk+0x250>
    8b60:	e3a02003 	mov	r2, #3, 0
    8b64:	e59f12d4 	ldr	r1, [pc, #724]	; 8e40 <va_printk+0x490>
    8b68:	e1a00006 	mov	r0, r6
    8b6c:	eb0002af 	bl	9630 <strncmp>
    8b70:	e3500000 	cmp	r0, #0, 0
    8b74:	1a00003b 	bne	8c68 <va_printk+0x2b8>
    8b78:	e3a06000 	mov	r6, #0, 0
    8b7c:	e58d6004 	str	r6, [sp, #4]
    8b80:	e58d5000 	str	r5, [sp]
    8b84:	e1a03007 	mov	r3, r7
    8b88:	e3a02080 	mov	r2, #128, 0	; 0x80
    8b8c:	e28d1010 	add	r1, sp, #16, 0
    8b90:	e3a0000a 	mov	r0, #10, 0
    8b94:	ebfffeff 	bl	8798 <emit>
    8b98:	e1a07000 	mov	r7, r0
    8b9c:	e58d6004 	str	r6, [sp, #4]
    8ba0:	e58d5000 	str	r5, [sp]
    8ba4:	e1a0300a 	mov	r3, sl
    8ba8:	e3a02080 	mov	r2, #128, 0	; 0x80
    8bac:	e28d1090 	add	r1, sp, #144, 0	; 0x90
    8bb0:	e3a0000a 	mov	r0, #10, 0
    8bb4:	ebfffef7 	bl	8798 <emit>
    8bb8:	e59f128c 	ldr	r1, [pc, #652]	; 8e4c <va_printk+0x49c>
    8bbc:	e28d0010 	add	r0, sp, #16, 0
    8bc0:	eb000287 	bl	95e4 <strcmp>
    8bc4:	e1500006 	cmp	r0, r6
    8bc8:	1a000021 	bne	8c54 <va_printk+0x2a4>
    8bcc:	e28d1090 	add	r1, sp, #144, 0	; 0x90
    8bd0:	e28d0010 	add	r0, sp, #16, 0
    8bd4:	eb00028d 	bl	9610 <strcpy>
    8bd8:	e1a0600b 	mov	r6, fp
    8bdc:	ea00003a 	b	8ccc <va_printk+0x31c>
    8be0:	e59f3268 	ldr	r3, [pc, #616]	; 8e50 <va_printk+0x4a0>
    8be4:	e58d3000 	str	r3, [sp]
    8be8:	e3a0309f 	mov	r3, #159, 0	; 0x9f
    8bec:	e59f223c 	ldr	r2, [pc, #572]	; 8e30 <va_printk+0x480>
    8bf0:	e59f123c 	ldr	r1, [pc, #572]	; 8e34 <va_printk+0x484>
    8bf4:	e59f023c 	ldr	r0, [pc, #572]	; 8e38 <va_printk+0x488>
    8bf8:	ebfffe98 	bl	8660 <printk>
    8bfc:	eb0000a1 	bl	8e88 <clean_reboot>
    8c00:	e3a06000 	mov	r6, #0, 0
    8c04:	e58d6004 	str	r6, [sp, #4]
    8c08:	e58d5000 	str	r5, [sp]
    8c0c:	e1a03007 	mov	r3, r7
    8c10:	e3a02080 	mov	r2, #128, 0	; 0x80
    8c14:	e28d1010 	add	r1, sp, #16, 0
    8c18:	e3a00010 	mov	r0, #16, 0
    8c1c:	ebfffedd 	bl	8798 <emit>
    8c20:	e1a07000 	mov	r7, r0
    8c24:	e58d6004 	str	r6, [sp, #4]
    8c28:	e58d5000 	str	r5, [sp]
    8c2c:	e1a0300a 	mov	r3, sl
    8c30:	e3a02080 	mov	r2, #128, 0	; 0x80
    8c34:	e28d1090 	add	r1, sp, #144, 0	; 0x90
    8c38:	e3a00010 	mov	r0, #16, 0
    8c3c:	ebfffed5 	bl	8798 <emit>
    8c40:	e28d1092 	add	r1, sp, #146, 0	; 0x92
    8c44:	e28d0010 	add	r0, sp, #16, 0
    8c48:	eb000258 	bl	95b0 <strcat>
    8c4c:	e1a0600b 	mov	r6, fp
    8c50:	ea00001d 	b	8ccc <va_printk+0x31c>
    8c54:	e28d1090 	add	r1, sp, #144, 0	; 0x90
    8c58:	e28d0010 	add	r0, sp, #16, 0
    8c5c:	eb000253 	bl	95b0 <strcat>
    8c60:	e1a0600b 	mov	r6, fp
    8c64:	ea000018 	b	8ccc <va_printk+0x31c>
    8c68:	e58d6000 	str	r6, [sp]
    8c6c:	e3a030b6 	mov	r3, #182, 0	; 0xb6
    8c70:	e59f21b8 	ldr	r2, [pc, #440]	; 8e30 <va_printk+0x480>
    8c74:	e59f11b8 	ldr	r1, [pc, #440]	; 8e34 <va_printk+0x484>
    8c78:	e59f01d4 	ldr	r0, [pc, #468]	; 8e54 <va_printk+0x4a4>
    8c7c:	ebfffe77 	bl	8660 <printk>
    8c80:	eb000080 	bl	8e88 <clean_reboot>
    8c84:	e3a030be 	mov	r3, #190, 0	; 0xbe
    8c88:	e59f21a0 	ldr	r2, [pc, #416]	; 8e30 <va_printk+0x480>
    8c8c:	e59f11a0 	ldr	r1, [pc, #416]	; 8e34 <va_printk+0x484>
    8c90:	e59f01c0 	ldr	r0, [pc, #448]	; 8e58 <va_printk+0x4a8>
    8c94:	ebfffe71 	bl	8660 <printk>
    8c98:	eb00007a 	bl	8e88 <clean_reboot>
    8c9c:	e59d300c 	ldr	r3, [sp, #12]
    8ca0:	e2832004 	add	r2, r3, #4, 0
    8ca4:	e58d200c 	str	r2, [sp, #12]
    8ca8:	e5933000 	ldr	r3, [r3]
    8cac:	e3a02001 	mov	r2, #1, 0
    8cb0:	e58d2004 	str	r2, [sp, #4]
    8cb4:	e58d5000 	str	r5, [sp]
    8cb8:	e3a02080 	mov	r2, #128, 0	; 0x80
    8cbc:	e28d1010 	add	r1, sp, #16, 0
    8cc0:	e3a0000a 	mov	r0, #10, 0
    8cc4:	ebfffeb3 	bl	8798 <emit>
    8cc8:	e1a07000 	mov	r7, r0
    8ccc:	e2866001 	add	r6, r6, #1, 0
    8cd0:	ea00004a 	b	8e00 <va_printk+0x450>
    8cd4:	e59d300c 	ldr	r3, [sp, #12]
    8cd8:	e2832004 	add	r2, r3, #4, 0
    8cdc:	e58d200c 	str	r2, [sp, #12]
    8ce0:	e5933000 	ldr	r3, [r3]
    8ce4:	e3a02000 	mov	r2, #0, 0
    8ce8:	e58d2004 	str	r2, [sp, #4]
    8cec:	e58d5000 	str	r5, [sp]
    8cf0:	e3a02080 	mov	r2, #128, 0	; 0x80
    8cf4:	e28d1010 	add	r1, sp, #16, 0
    8cf8:	e3a0000a 	mov	r0, #10, 0
    8cfc:	ebfffea5 	bl	8798 <emit>
    8d00:	e1a07000 	mov	r7, r0
    8d04:	eafffff0 	b	8ccc <va_printk+0x31c>
    8d08:	e59d300c 	ldr	r3, [sp, #12]
    8d0c:	e2832004 	add	r2, r3, #4, 0
    8d10:	e58d200c 	str	r2, [sp, #12]
    8d14:	e5933000 	ldr	r3, [r3]
    8d18:	e3a02000 	mov	r2, #0, 0
    8d1c:	e58d2004 	str	r2, [sp, #4]
    8d20:	e58d5000 	str	r5, [sp]
    8d24:	e3a02080 	mov	r2, #128, 0	; 0x80
    8d28:	e28d1010 	add	r1, sp, #16, 0
    8d2c:	e3a00010 	mov	r0, #16, 0
    8d30:	ebfffe98 	bl	8798 <emit>
    8d34:	e1a07000 	mov	r7, r0
    8d38:	eaffffe3 	b	8ccc <va_printk+0x31c>
    8d3c:	e59d300c 	ldr	r3, [sp, #12]
    8d40:	e2832004 	add	r2, r3, #4, 0
    8d44:	e58d200c 	str	r2, [sp, #12]
    8d48:	e5933000 	ldr	r3, [r3]
    8d4c:	e3a02000 	mov	r2, #0, 0
    8d50:	e58d2004 	str	r2, [sp, #4]
    8d54:	e58d5000 	str	r5, [sp]
    8d58:	e3a02080 	mov	r2, #128, 0	; 0x80
    8d5c:	e28d1010 	add	r1, sp, #16, 0
    8d60:	e3a00002 	mov	r0, #2, 0
    8d64:	ebfffe8b 	bl	8798 <emit>
    8d68:	e1a07000 	mov	r7, r0
    8d6c:	eaffffd6 	b	8ccc <va_printk+0x31c>
    8d70:	e59d300c 	ldr	r3, [sp, #12]
    8d74:	e2832004 	add	r2, r3, #4, 0
    8d78:	e58d200c 	str	r2, [sp, #12]
    8d7c:	e5937000 	ldr	r7, [r3]
    8d80:	eaffffd1 	b	8ccc <va_printk+0x31c>
    8d84:	e59d300c 	ldr	r3, [sp, #12]
    8d88:	e2832004 	add	r2, r3, #4, 0
    8d8c:	e58d200c 	str	r2, [sp, #12]
    8d90:	e5933000 	ldr	r3, [r3]
    8d94:	e3a02000 	mov	r2, #0, 0
    8d98:	e58d2004 	str	r2, [sp, #4]
    8d9c:	e58d5000 	str	r5, [sp]
    8da0:	e3a02080 	mov	r2, #128, 0	; 0x80
    8da4:	e28d1010 	add	r1, sp, #16, 0
    8da8:	e3a00008 	mov	r0, #8, 0
    8dac:	ebfffe79 	bl	8798 <emit>
    8db0:	e1a07000 	mov	r7, r0
    8db4:	eaffffc4 	b	8ccc <va_printk+0x31c>
    8db8:	e3a03000 	mov	r3, #0, 0
    8dbc:	e5c63001 	strb	r3, [r6, #1]
    8dc0:	e1a0200a 	mov	r2, sl
    8dc4:	e1a0100a 	mov	r1, sl
    8dc8:	e59f008c 	ldr	r0, [pc, #140]	; 8e5c <va_printk+0x4ac>
    8dcc:	ebfffe23 	bl	8660 <printk>
    8dd0:	e59f3088 	ldr	r3, [pc, #136]	; 8e60 <va_printk+0x4b0>
    8dd4:	e5933000 	ldr	r3, [r3]
    8dd8:	e59d0008 	ldr	r0, [sp, #8]
    8ddc:	e12fff33 	blx	r3
    8de0:	e3a030e2 	mov	r3, #226, 0	; 0xe2
    8de4:	e59f2044 	ldr	r2, [pc, #68]	; 8e30 <va_printk+0x480>
    8de8:	e59f1044 	ldr	r1, [pc, #68]	; 8e34 <va_printk+0x484>
    8dec:	e59f0070 	ldr	r0, [pc, #112]	; 8e64 <va_printk+0x4b4>
    8df0:	ebfffe1a 	bl	8660 <printk>
    8df4:	eb000023 	bl	8e88 <clean_reboot>
    8df8:	e2877001 	add	r7, r7, #1, 0
    8dfc:	e4c43001 	strb	r3, [r4], #1
    8e00:	e1540008 	cmp	r4, r8
    8e04:	2afffef7 	bcs	89e8 <va_printk+0x38>
    8e08:	e5d73000 	ldrb	r3, [r7]
    8e0c:	e3530000 	cmp	r3, #0, 0
    8e10:	1afffff8 	bne	8df8 <va_printk+0x448>
    8e14:	eafffef3 	b	89e8 <va_printk+0x38>
    8e18:	e3a03000 	mov	r3, #0, 0
    8e1c:	e4c43001 	strb	r3, [r4], #1
    8e20:	e0440009 	sub	r0, r4, r9
    8e24:	e28ddf45 	add	sp, sp, #276	; 0x114
    8e28:	e8bd8ff0 	pop	{r4, r5, r6, r7, r8, r9, sl, fp, pc}
    8e2c:	00009990 	muleq	r0, r0, r9
    8e30:	00009aa8 	andeq	r9, r0, r8, lsr #21
    8e34:	0000994c 	andeq	r9, r0, ip, asr #18
    8e38:	000097c0 	andeq	r9, r0, r0, asr #15
    8e3c:	0000999c 	muleq	r0, ip, r9
    8e40:	000099a0 	andeq	r9, r0, r0, lsr #19
    8e44:	000099a4 	andeq	r9, r0, r4, lsr #19
    8e48:	000099ac 	andeq	r9, r0, ip, lsr #19
    8e4c:	00009960 	andeq	r9, r0, r0, ror #18
    8e50:	000099b4 			; <UNDEFINED> instruction: 0x000099b4
    8e54:	000099f0 	strdeq	r9, [r0], -r0
    8e58:	00009a18 	andeq	r9, r0, r8, lsl sl
    8e5c:	00009a40 	andeq	r9, r0, r0, asr #20
    8e60:	00009cc0 	andeq	r9, r0, r0, asr #25
    8e64:	00009a70 	andeq	r9, r0, r0, ror sl

00008e68 <enable_cache>:
    8e68:	ee113f10 	mrc	15, 0, r3, cr1, cr0, {0}
    8e6c:	e3833b06 	orr	r3, r3, #6144	; 0x1800
    8e70:	ee013f10 	mcr	15, 0, r3, cr1, cr0, {0}
    8e74:	e12fff1e 	bx	lr

00008e78 <disable_cache>:
    8e78:	ee113f10 	mrc	15, 0, r3, cr1, cr0, {0}
    8e7c:	e3c33b06 	bic	r3, r3, #6144	; 0x1800
    8e80:	ee013f10 	mcr	15, 0, r3, cr1, cr0, {0}
    8e84:	e12fff1e 	bx	lr

00008e88 <clean_reboot>:
    8e88:	e92d4010 	push	{r4, lr}
    8e8c:	e59f3018 	ldr	r3, [pc, #24]	; 8eac <clean_reboot+0x24>
    8e90:	e5933000 	ldr	r3, [r3]
    8e94:	e59f0014 	ldr	r0, [pc, #20]	; 8eb0 <clean_reboot+0x28>
    8e98:	e12fff33 	blx	r3
    8e9c:	eb0000c3 	bl	91b0 <uart_flush_tx>
    8ea0:	e3a0000a 	mov	r0, #10, 0
    8ea4:	eb000047 	bl	8fc8 <delay_ms>
    8ea8:	eb00001c 	bl	8f20 <rpi_reboot>
    8eac:	00009cc0 	andeq	r9, r0, r0, asr #25
    8eb0:	00009ab4 			; <UNDEFINED> instruction: 0x00009ab4

00008eb4 <_cstart>:
    8eb4:	e92d4010 	push	{r4, lr}
    8eb8:	eb00000c 	bl	8ef0 <custom_loader>
    8ebc:	e59f3024 	ldr	r3, [pc, #36]	; 8ee8 <_cstart+0x34>
    8ec0:	e59f2024 	ldr	r2, [pc, #36]	; 8eec <_cstart+0x38>
    8ec4:	e1530002 	cmp	r3, r2
    8ec8:	33a02000 	movcc	r2, #0, 0
    8ecc:	34832004 	strcc	r2, [r3], #4
    8ed0:	3afffffa 	bcc	8ec0 <_cstart+0xc>
    8ed4:	eb000057 	bl	9038 <uart_init>
    8ed8:	e3a03001 	mov	r3, #1, 0
    8edc:	ee0f3f1c 	mcr	15, 0, r3, cr15, cr12, {0}
    8ee0:	ebfffd24 	bl	8378 <notmain>
    8ee4:	ebffffe7 	bl	8e88 <clean_reboot>
    8ee8:	00009cd0 	ldrdeq	r9, [r0], -r0
    8eec:	0000a0d8 	ldrdeq	sl, [r0], -r8

00008ef0 <custom_loader>:
    8ef0:	e12fff1e 	bx	lr

00008ef4 <at_user_level>:
    8ef4:	e10f0000 	mrs	r0, CPSR
    8ef8:	e200001f 	and	r0, r0, #31, 0
    8efc:	e3500010 	cmp	r0, #16, 0
    8f00:	13a00000 	movne	r0, #0, 0
    8f04:	03a00001 	moveq	r0, #1, 0
    8f08:	e12fff1e 	bx	lr

00008f0c <set_user_level>:
    8f0c:	e10f3000 	mrs	r3, CPSR
    8f10:	e3c3301f 	bic	r3, r3, #31, 0
    8f14:	e3833010 	orr	r3, r3, #16, 0
    8f18:	e129f003 	msr	CPSR_fc, r3
    8f1c:	e12fff1e 	bx	lr

00008f20 <rpi_reboot>:
    8f20:	e92d4010 	push	{r4, lr}
    8f24:	ebfffff2 	bl	8ef4 <at_user_level>
    8f28:	e3500000 	cmp	r0, #0, 0
    8f2c:	1a00000a 	bne	8f5c <rpi_reboot+0x3c>
    8f30:	eb0001c9 	bl	965c <reboot_callout>
    8f34:	eb00009d 	bl	91b0 <uart_flush_tx>
    8f38:	e3a0000a 	mov	r0, #10, 0
    8f3c:	eb000021 	bl	8fc8 <delay_ms>
    8f40:	e59f101c 	ldr	r1, [pc, #28]	; 8f64 <rpi_reboot+0x44>
    8f44:	e59f001c 	ldr	r0, [pc, #28]	; 8f68 <rpi_reboot+0x48>
    8f48:	ebfffc35 	bl	8024 <PUT32>
    8f4c:	e59f1018 	ldr	r1, [pc, #24]	; 8f6c <rpi_reboot+0x4c>
    8f50:	e59f0018 	ldr	r0, [pc, #24]	; 8f70 <rpi_reboot+0x50>
    8f54:	ebfffc32 	bl	8024 <PUT32>
    8f58:	eafffffe 	b	8f58 <rpi_reboot+0x38>
    8f5c:	ebffffea 	bl	8f0c <set_user_level>
    8f60:	eafffff2 	b	8f30 <rpi_reboot+0x10>
    8f64:	5a000001 	bpl	8f70 <rpi_reboot+0x50>
    8f68:	20100024 	andscs	r0, r0, r4, lsr #32
    8f6c:	5a000020 	bpl	8ff4 <delay_sec+0x14>
    8f70:	2010001c 	andscs	r0, r0, ip, lsl r0

00008f74 <timer_get_usec_raw>:
    8f74:	e92d4010 	push	{r4, lr}
    8f78:	e59f0004 	ldr	r0, [pc, #4]	; 8f84 <timer_get_usec_raw+0x10>
    8f7c:	ebfffc2a 	bl	802c <GET32>
    8f80:	e8bd8010 	pop	{r4, pc}
    8f84:	20003004 	andcs	r3, r0, r4

00008f88 <timer_get_usec>:
    8f88:	e92d4010 	push	{r4, lr}
    8f8c:	eb0001b3 	bl	9660 <dev_barrier>
    8f90:	ebfffff7 	bl	8f74 <timer_get_usec_raw>
    8f94:	e1a04000 	mov	r4, r0
    8f98:	eb0001b0 	bl	9660 <dev_barrier>
    8f9c:	e1a00004 	mov	r0, r4
    8fa0:	e8bd8010 	pop	{r4, pc}

00008fa4 <delay_us>:
    8fa4:	e92d4070 	push	{r4, r5, r6, lr}
    8fa8:	e1a05000 	mov	r5, r0
    8fac:	ebfffff5 	bl	8f88 <timer_get_usec>
    8fb0:	e1a04000 	mov	r4, r0
    8fb4:	ebfffff3 	bl	8f88 <timer_get_usec>
    8fb8:	e0400004 	sub	r0, r0, r4
    8fbc:	e1500005 	cmp	r0, r5
    8fc0:	3afffffb 	bcc	8fb4 <delay_us+0x10>
    8fc4:	e8bd8070 	pop	{r4, r5, r6, pc}

00008fc8 <delay_ms>:
    8fc8:	e92d4010 	push	{r4, lr}
    8fcc:	e0603280 	rsb	r3, r0, r0, lsl #5
    8fd0:	e0800103 	add	r0, r0, r3, lsl #2
    8fd4:	e1a00180 	lsl	r0, r0, #3
    8fd8:	ebfffff1 	bl	8fa4 <delay_us>
    8fdc:	e8bd8010 	pop	{r4, pc}

00008fe0 <delay_sec>:
    8fe0:	e92d4010 	push	{r4, lr}
    8fe4:	e0603280 	rsb	r3, r0, r0, lsl #5
    8fe8:	e0800103 	add	r0, r0, r3, lsl #2
    8fec:	e1a00180 	lsl	r0, r0, #3
    8ff0:	ebfffff4 	bl	8fc8 <delay_ms>
    8ff4:	e8bd8010 	pop	{r4, pc}

00008ff8 <and_in32>:
    8ff8:	e92d4070 	push	{r4, r5, r6, lr}
    8ffc:	e1a04000 	mov	r4, r0
    9000:	e1a05001 	mov	r5, r1
    9004:	ebfffc08 	bl	802c <GET32>
    9008:	e0001005 	and	r1, r0, r5
    900c:	e1a00004 	mov	r0, r4
    9010:	ebfffc03 	bl	8024 <PUT32>
    9014:	e8bd8070 	pop	{r4, r5, r6, pc}

00009018 <or_in32>:
    9018:	e92d4070 	push	{r4, r5, r6, lr}
    901c:	e1a04000 	mov	r4, r0
    9020:	e1a05001 	mov	r5, r1
    9024:	ebfffc00 	bl	802c <GET32>
    9028:	e1801005 	orr	r1, r0, r5
    902c:	e1a00004 	mov	r0, r4
    9030:	ebfffbfb 	bl	8024 <PUT32>
    9034:	e8bd8070 	pop	{r4, r5, r6, pc}

00009038 <uart_init>:
    9038:	e92d4010 	push	{r4, lr}
    903c:	e3a01002 	mov	r1, #2, 0
    9040:	e3a0000e 	mov	r0, #14, 0
    9044:	eb00018b 	bl	9678 <gpio_set_function>
    9048:	e3a01002 	mov	r1, #2, 0
    904c:	e3a0000f 	mov	r0, #15, 0
    9050:	eb000188 	bl	9678 <gpio_set_function>
    9054:	eb000181 	bl	9660 <dev_barrier>
    9058:	e3a01001 	mov	r1, #1, 0
    905c:	e59f0064 	ldr	r0, [pc, #100]	; 90c8 <uart_init+0x90>
    9060:	ebffffec 	bl	9018 <or_in32>
    9064:	eb00017d 	bl	9660 <dev_barrier>
    9068:	e59f405c 	ldr	r4, [pc, #92]	; 90cc <uart_init+0x94>
    906c:	e3a01000 	mov	r1, #0, 0
    9070:	e1a00004 	mov	r0, r4
    9074:	ebfffbea 	bl	8024 <PUT32>
    9078:	e3a01000 	mov	r1, #0, 0
    907c:	e59f004c 	ldr	r0, [pc, #76]	; 90d0 <uart_init+0x98>
    9080:	ebfffbe7 	bl	8024 <PUT32>
    9084:	e3a01003 	mov	r1, #3, 0
    9088:	e59f0044 	ldr	r0, [pc, #68]	; 90d4 <uart_init+0x9c>
    908c:	ebfffbe4 	bl	8024 <PUT32>
    9090:	e3a01000 	mov	r1, #0, 0
    9094:	e59f003c 	ldr	r0, [pc, #60]	; 90d8 <uart_init+0xa0>
    9098:	ebfffbe1 	bl	8024 <PUT32>
    909c:	e3a010c7 	mov	r1, #199, 0	; 0xc7
    90a0:	e59f0034 	ldr	r0, [pc, #52]	; 90dc <uart_init+0xa4>
    90a4:	ebfffbde 	bl	8024 <PUT32>
    90a8:	e59f1030 	ldr	r1, [pc, #48]	; 90e0 <uart_init+0xa8>
    90ac:	e59f0030 	ldr	r0, [pc, #48]	; 90e4 <uart_init+0xac>
    90b0:	ebfffbdb 	bl	8024 <PUT32>
    90b4:	e3a01003 	mov	r1, #3, 0
    90b8:	e1a00004 	mov	r0, r4
    90bc:	ebfffbd8 	bl	8024 <PUT32>
    90c0:	eb000166 	bl	9660 <dev_barrier>
    90c4:	e8bd8010 	pop	{r4, pc}
    90c8:	20215004 	eorcs	r5, r1, r4
    90cc:	20215060 	eorcs	r5, r1, r0, rrx
    90d0:	20215044 	eorcs	r5, r1, r4, asr #32
    90d4:	2021504c 	eorcs	r5, r1, ip, asr #32
    90d8:	20215050 	eorcs	r5, r1, r0, asr r0
    90dc:	20215048 	eorcs	r5, r1, r8, asr #32
    90e0:	0000010e 	andeq	r0, r0, lr, lsl #2
    90e4:	20215068 	eorcs	r5, r1, r8, rrx

000090e8 <uart_can_getc>:
    90e8:	e92d4010 	push	{r4, lr}
    90ec:	e59f0008 	ldr	r0, [pc, #8]	; 90fc <uart_can_getc+0x14>
    90f0:	ebfffbcd 	bl	802c <GET32>
    90f4:	e2000001 	and	r0, r0, #1, 0
    90f8:	e8bd8010 	pop	{r4, pc}
    90fc:	20215064 	eorcs	r5, r1, r4, rrx

00009100 <uart_can_putc>:
    9100:	e92d4010 	push	{r4, lr}
    9104:	e59f0010 	ldr	r0, [pc, #16]	; 911c <uart_can_putc+0x1c>
    9108:	ebfffbc7 	bl	802c <GET32>
    910c:	e3100002 	tst	r0, #2, 0
    9110:	13a00001 	movne	r0, #1, 0
    9114:	03a00000 	moveq	r0, #0, 0
    9118:	e8bd8010 	pop	{r4, pc}
    911c:	20215064 	eorcs	r5, r1, r4, rrx

00009120 <uart_getc>:
    9120:	e92d4010 	push	{r4, lr}
    9124:	eb00014d 	bl	9660 <dev_barrier>
    9128:	ebffffee 	bl	90e8 <uart_can_getc>
    912c:	e3500000 	cmp	r0, #0, 0
    9130:	0afffffc 	beq	9128 <uart_getc+0x8>
    9134:	e59f0010 	ldr	r0, [pc, #16]	; 914c <uart_getc+0x2c>
    9138:	ebfffbbb 	bl	802c <GET32>
    913c:	e6ef4070 	uxtb	r4, r0
    9140:	eb000146 	bl	9660 <dev_barrier>
    9144:	e1a00004 	mov	r0, r4
    9148:	e8bd8010 	pop	{r4, pc}
    914c:	20215040 	eorcs	r5, r1, r0, asr #32

00009150 <uart_putc>:
    9150:	e92d4010 	push	{r4, lr}
    9154:	e1a04000 	mov	r4, r0
    9158:	eb000140 	bl	9660 <dev_barrier>
    915c:	ebffffe7 	bl	9100 <uart_can_putc>
    9160:	e3500000 	cmp	r0, #0, 0
    9164:	0afffffc 	beq	915c <uart_putc+0xc>
    9168:	e6ef1074 	uxtb	r1, r4
    916c:	e59f0008 	ldr	r0, [pc, #8]	; 917c <uart_putc+0x2c>
    9170:	ebfffbab 	bl	8024 <PUT32>
    9174:	eb000139 	bl	9660 <dev_barrier>
    9178:	e8bd8010 	pop	{r4, pc}
    917c:	20215040 	eorcs	r5, r1, r0, asr #32

00009180 <uart_has_data>:
    9180:	e92d4010 	push	{r4, lr}
    9184:	eb000135 	bl	9660 <dev_barrier>
    9188:	ebffffd6 	bl	90e8 <uart_can_getc>
    918c:	e8bd8010 	pop	{r4, pc}

00009190 <uart_tx_is_empty>:
    9190:	e92d4010 	push	{r4, lr}
    9194:	eb000131 	bl	9660 <dev_barrier>
    9198:	e59f000c 	ldr	r0, [pc, #12]	; 91ac <uart_tx_is_empty+0x1c>
    919c:	ebfffba2 	bl	802c <GET32>
    91a0:	e1a004a0 	lsr	r0, r0, #9
    91a4:	e2000001 	and	r0, r0, #1, 0
    91a8:	e8bd8010 	pop	{r4, pc}
    91ac:	20215064 	eorcs	r5, r1, r4, rrx

000091b0 <uart_flush_tx>:
    91b0:	e92d4010 	push	{r4, lr}
    91b4:	ebfffff5 	bl	9190 <uart_tx_is_empty>
    91b8:	e3500000 	cmp	r0, #0, 0
    91bc:	0afffffc 	beq	91b4 <uart_flush_tx+0x4>
    91c0:	e8bd8010 	pop	{r4, pc}

000091c4 <uart_disable>:
    91c4:	e92d4010 	push	{r4, lr}
    91c8:	ebfffff8 	bl	91b0 <uart_flush_tx>
    91cc:	eb000123 	bl	9660 <dev_barrier>
    91d0:	e3e01001 	mvn	r1, #1, 0
    91d4:	e59f0008 	ldr	r0, [pc, #8]	; 91e4 <uart_disable+0x20>
    91d8:	ebffff86 	bl	8ff8 <and_in32>
    91dc:	eb00011f 	bl	9660 <dev_barrier>
    91e0:	e8bd8010 	pop	{r4, pc}
    91e4:	20215004 	eorcs	r5, r1, r4

000091e8 <kmalloc_heap_end>:
    91e8:	e59f3004 	ldr	r3, [pc, #4]	; 91f4 <kmalloc_heap_end+0xc>
    91ec:	e5930000 	ldr	r0, [r3]
    91f0:	e12fff1e 	bx	lr
    91f4:	00009cc4 	andeq	r9, r0, r4, asr #25

000091f8 <kmalloc_heap_start>:
    91f8:	e59f3004 	ldr	r3, [pc, #4]	; 9204 <kmalloc_heap_start+0xc>
    91fc:	e5930004 	ldr	r0, [r3, #4]
    9200:	e12fff1e 	bx	lr
    9204:	00009cc4 	andeq	r9, r0, r4, asr #25

00009208 <kmalloc_heap_ptr>:
    9208:	e59f3004 	ldr	r3, [pc, #4]	; 9214 <kmalloc_heap_ptr+0xc>
    920c:	e5930000 	ldr	r0, [r3]
    9210:	e12fff1e 	bx	lr
    9214:	00009cc4 	andeq	r9, r0, r4, asr #25

00009218 <kmalloc_init_set_start>:
    9218:	e52de004 	push	{lr}		; (str lr, [sp, #-4]!)
    921c:	e24dd00c 	sub	sp, sp, #12, 0
    9220:	e3510000 	cmp	r1, #0, 0
    9224:	0a00000a 	beq	9254 <kmalloc_init_set_start+0x3c>
    9228:	e59f306c 	ldr	r3, [pc, #108]	; 929c <kmalloc_init_set_start+0x84>
    922c:	e5933000 	ldr	r3, [r3]
    9230:	e1530000 	cmp	r3, r0
    9234:	8a00000e 	bhi	9274 <kmalloc_init_set_start+0x5c>
    9238:	e59f305c 	ldr	r3, [pc, #92]	; 929c <kmalloc_init_set_start+0x84>
    923c:	e5830000 	str	r0, [r3]
    9240:	e5830004 	str	r0, [r3, #4]
    9244:	e0800001 	add	r0, r0, r1
    9248:	e5830008 	str	r0, [r3, #8]
    924c:	e28dd00c 	add	sp, sp, #12, 0
    9250:	e49df004 	pop	{pc}		; (ldr pc, [sp], #4)
    9254:	e59f3044 	ldr	r3, [pc, #68]	; 92a0 <kmalloc_init_set_start+0x88>
    9258:	e58d3000 	str	r3, [sp]
    925c:	e3a03030 	mov	r3, #48, 0	; 0x30
    9260:	e59f203c 	ldr	r2, [pc, #60]	; 92a4 <kmalloc_init_set_start+0x8c>
    9264:	e59f103c 	ldr	r1, [pc, #60]	; 92a8 <kmalloc_init_set_start+0x90>
    9268:	e59f003c 	ldr	r0, [pc, #60]	; 92ac <kmalloc_init_set_start+0x94>
    926c:	ebfffcfb 	bl	8660 <printk>
    9270:	ebffff04 	bl	8e88 <clean_reboot>
    9274:	e59f3020 	ldr	r3, [pc, #32]	; 929c <kmalloc_init_set_start+0x84>
    9278:	e5933008 	ldr	r3, [r3, #8]
    927c:	e58d3004 	str	r3, [sp, #4]
    9280:	e58d0000 	str	r0, [sp]
    9284:	e3a03034 	mov	r3, #52, 0	; 0x34
    9288:	e59f2014 	ldr	r2, [pc, #20]	; 92a4 <kmalloc_init_set_start+0x8c>
    928c:	e59f1014 	ldr	r1, [pc, #20]	; 92a8 <kmalloc_init_set_start+0x90>
    9290:	e59f0018 	ldr	r0, [pc, #24]	; 92b0 <kmalloc_init_set_start+0x98>
    9294:	ebfffcf1 	bl	8660 <printk>
    9298:	ebfffefa 	bl	8e88 <clean_reboot>
    929c:	00009cc4 	andeq	r9, r0, r4, asr #25
    92a0:	00009acc 	andeq	r9, r0, ip, asr #21
    92a4:	00009c58 	andeq	r9, r0, r8, asr ip
    92a8:	00009ac0 	andeq	r9, r0, r0, asr #21
    92ac:	000097c0 	andeq	r9, r0, r0, asr #15
    92b0:	00009ad8 	ldrdeq	r9, [r0], -r8

000092b4 <kmalloc_init>:
    92b4:	e92d4010 	push	{r4, lr}
    92b8:	e59f303c 	ldr	r3, [pc, #60]	; 92fc <kmalloc_init+0x48>
    92bc:	e5933000 	ldr	r3, [r3]
    92c0:	e3530000 	cmp	r3, #0, 0
    92c4:	1a000006 	bne	92e4 <kmalloc_init+0x30>
    92c8:	e59f302c 	ldr	r3, [pc, #44]	; 92fc <kmalloc_init+0x48>
    92cc:	e3a02001 	mov	r2, #1, 0
    92d0:	e5832000 	str	r2, [r3]
    92d4:	e3a01201 	mov	r1, #268435456	; 0x10000000
    92d8:	e3a00601 	mov	r0, #1048576	; 0x100000
    92dc:	ebffffcd 	bl	9218 <kmalloc_init_set_start>
    92e0:	e8bd8010 	pop	{r4, pc}
    92e4:	e3a03040 	mov	r3, #64, 0	; 0x40
    92e8:	e59f2010 	ldr	r2, [pc, #16]	; 9300 <kmalloc_init+0x4c>
    92ec:	e59f1010 	ldr	r1, [pc, #16]	; 9304 <kmalloc_init+0x50>
    92f0:	e59f0010 	ldr	r0, [pc, #16]	; 9308 <kmalloc_init+0x54>
    92f4:	ebfffcd9 	bl	8660 <printk>
    92f8:	ebfffee2 	bl	8e88 <clean_reboot>
    92fc:	0000a0d4 	ldrdeq	sl, [r0], -r4
    9300:	00009c70 	andeq	r9, r0, r0, ror ip
    9304:	00009ac0 	andeq	r9, r0, r0, asr #21
    9308:	00009b1c 	andeq	r9, r0, ip, lsl fp

0000930c <kmalloc_notzero>:
    930c:	e52de004 	push	{lr}		; (str lr, [sp, #-4]!)
    9310:	e24dd00c 	sub	sp, sp, #12, 0
    9314:	e3500000 	cmp	r0, #0, 0
    9318:	0a00000a 	beq	9348 <kmalloc_notzero+0x3c>
    931c:	e2800007 	add	r0, r0, #7, 0
    9320:	e3c03007 	bic	r3, r0, #7, 0
    9324:	e59f2060 	ldr	r2, [pc, #96]	; 938c <kmalloc_notzero+0x80>
    9328:	e5920000 	ldr	r0, [r2]
    932c:	e0801003 	add	r1, r0, r3
    9330:	e5821000 	str	r1, [r2]
    9334:	e5922008 	ldr	r2, [r2, #8]
    9338:	e1510002 	cmp	r1, r2
    933c:	8a000009 	bhi	9368 <kmalloc_notzero+0x5c>
    9340:	e28dd00c 	add	sp, sp, #12, 0
    9344:	e49df004 	pop	{pc}		; (ldr pc, [sp], #4)
    9348:	e59f3040 	ldr	r3, [pc, #64]	; 9390 <kmalloc_notzero+0x84>
    934c:	e58d3000 	str	r3, [sp]
    9350:	e3a03048 	mov	r3, #72, 0	; 0x48
    9354:	e59f2038 	ldr	r2, [pc, #56]	; 9394 <kmalloc_notzero+0x88>
    9358:	e59f1038 	ldr	r1, [pc, #56]	; 9398 <kmalloc_notzero+0x8c>
    935c:	e59f0038 	ldr	r0, [pc, #56]	; 939c <kmalloc_notzero+0x90>
    9360:	ebfffcbe 	bl	8660 <printk>
    9364:	ebfffec7 	bl	8e88 <clean_reboot>
    9368:	e0422000 	sub	r2, r2, r0
    936c:	e58d2004 	str	r2, [sp, #4]
    9370:	e58d3000 	str	r3, [sp]
    9374:	e3a0304e 	mov	r3, #78, 0	; 0x4e
    9378:	e59f2014 	ldr	r2, [pc, #20]	; 9394 <kmalloc_notzero+0x88>
    937c:	e59f1014 	ldr	r1, [pc, #20]	; 9398 <kmalloc_notzero+0x8c>
    9380:	e59f0018 	ldr	r0, [pc, #24]	; 93a0 <kmalloc_notzero+0x94>
    9384:	ebfffcb5 	bl	8660 <printk>
    9388:	ebfffebe 	bl	8e88 <clean_reboot>
    938c:	00009cc4 	andeq	r9, r0, r4, asr #25
    9390:	00009ad0 	ldrdeq	r9, [r0], -r0
    9394:	00009c80 	andeq	r9, r0, r0, lsl #25
    9398:	00009ac0 	andeq	r9, r0, r0, asr #21
    939c:	000097c0 	andeq	r9, r0, r0, asr #15
    93a0:	00009b4c 	andeq	r9, r0, ip, asr #22

000093a4 <kmalloc>:
    93a4:	e92d4030 	push	{r4, r5, lr}
    93a8:	e24dd00c 	sub	sp, sp, #12, 0
    93ac:	e2504000 	subs	r4, r0, #0, 0
    93b0:	0a000008 	beq	93d8 <kmalloc+0x34>
    93b4:	e1a00004 	mov	r0, r4
    93b8:	ebffffd3 	bl	930c <kmalloc_notzero>
    93bc:	e1a05000 	mov	r5, r0
    93c0:	e1a02004 	mov	r2, r4
    93c4:	e3a01000 	mov	r1, #0, 0
    93c8:	eb000072 	bl	9598 <memset>
    93cc:	e1a00005 	mov	r0, r5
    93d0:	e28dd00c 	add	sp, sp, #12, 0
    93d4:	e8bd8030 	pop	{r4, r5, pc}
    93d8:	e59f3018 	ldr	r3, [pc, #24]	; 93f8 <kmalloc+0x54>
    93dc:	e58d3000 	str	r3, [sp]
    93e0:	e3a03054 	mov	r3, #84, 0	; 0x54
    93e4:	e59f2010 	ldr	r2, [pc, #16]	; 93fc <kmalloc+0x58>
    93e8:	e59f1010 	ldr	r1, [pc, #16]	; 9400 <kmalloc+0x5c>
    93ec:	e59f0010 	ldr	r0, [pc, #16]	; 9404 <kmalloc+0x60>
    93f0:	ebfffc9a 	bl	8660 <printk>
    93f4:	ebfffea3 	bl	8e88 <clean_reboot>
    93f8:	00009ad0 	ldrdeq	r9, [r0], -r0
    93fc:	00009c90 	muleq	r0, r0, ip
    9400:	00009ac0 	andeq	r9, r0, r0, asr #21
    9404:	000097c0 	andeq	r9, r0, r0, asr #15

00009408 <kmalloc_aligned>:
    9408:	e52de004 	push	{lr}		; (str lr, [sp, #-4]!)
    940c:	e24dd00c 	sub	sp, sp, #12, 0
    9410:	e3500000 	cmp	r0, #0, 0
    9414:	0a000014 	beq	946c <kmalloc_aligned+0x64>
    9418:	e2613000 	rsb	r3, r1, #0, 0
    941c:	e1d13003 	bics	r3, r1, r3
    9420:	1a000019 	bne	948c <kmalloc_aligned+0x84>
    9424:	e3510008 	cmp	r1, #8, 0
    9428:	33a01008 	movcc	r1, #8, 0
    942c:	e59f30c0 	ldr	r3, [pc, #192]	; 94f4 <kmalloc_aligned+0xec>
    9430:	e5932000 	ldr	r2, [r3]
    9434:	e2613000 	rsb	r3, r1, #0, 0
    9438:	e1d1c003 	bics	ip, r1, r3
    943c:	1a00001b 	bne	94b0 <kmalloc_aligned+0xa8>
    9440:	e0822001 	add	r2, r2, r1
    9444:	e2422001 	sub	r2, r2, #1, 0
    9448:	e0033002 	and	r3, r3, r2
    944c:	e2411001 	sub	r1, r1, #1, 0
    9450:	e1110003 	tst	r1, r3
    9454:	1a00001d 	bne	94d0 <kmalloc_aligned+0xc8>
    9458:	e59f2094 	ldr	r2, [pc, #148]	; 94f4 <kmalloc_aligned+0xec>
    945c:	e5823000 	str	r3, [r2]
    9460:	ebffffcf 	bl	93a4 <kmalloc>
    9464:	e28dd00c 	add	sp, sp, #12, 0
    9468:	e49df004 	pop	{pc}		; (ldr pc, [sp], #4)
    946c:	e59f3084 	ldr	r3, [pc, #132]	; 94f8 <kmalloc_aligned+0xf0>
    9470:	e58d3000 	str	r3, [sp]
    9474:	e3a0305f 	mov	r3, #95, 0	; 0x5f
    9478:	e59f207c 	ldr	r2, [pc, #124]	; 94fc <kmalloc_aligned+0xf4>
    947c:	e59f107c 	ldr	r1, [pc, #124]	; 9500 <kmalloc_aligned+0xf8>
    9480:	e59f007c 	ldr	r0, [pc, #124]	; 9504 <kmalloc_aligned+0xfc>
    9484:	ebfffc75 	bl	8660 <printk>
    9488:	ebfffe7e 	bl	8e88 <clean_reboot>
    948c:	ebfffc8e 	bl	86cc <rpi_reset_putc>
    9490:	e59f3070 	ldr	r3, [pc, #112]	; 9508 <kmalloc_aligned+0x100>
    9494:	e58d3000 	str	r3, [sp]
    9498:	e3a03060 	mov	r3, #96, 0	; 0x60
    949c:	e59f2058 	ldr	r2, [pc, #88]	; 94fc <kmalloc_aligned+0xf4>
    94a0:	e59f1058 	ldr	r1, [pc, #88]	; 9500 <kmalloc_aligned+0xf8>
    94a4:	e59f0060 	ldr	r0, [pc, #96]	; 950c <kmalloc_aligned+0x104>
    94a8:	ebfffc6c 	bl	8660 <printk>
    94ac:	ebfffe75 	bl	8e88 <clean_reboot>
    94b0:	e59f3058 	ldr	r3, [pc, #88]	; 9510 <kmalloc_aligned+0x108>
    94b4:	e58d3000 	str	r3, [sp]
    94b8:	e3a03011 	mov	r3, #17, 0
    94bc:	e59f2050 	ldr	r2, [pc, #80]	; 9514 <kmalloc_aligned+0x10c>
    94c0:	e59f1038 	ldr	r1, [pc, #56]	; 9500 <kmalloc_aligned+0xf8>
    94c4:	e59f0038 	ldr	r0, [pc, #56]	; 9504 <kmalloc_aligned+0xfc>
    94c8:	ebfffc64 	bl	8660 <printk>
    94cc:	ebfffe6d 	bl	8e88 <clean_reboot>
    94d0:	ebfffc7d 	bl	86cc <rpi_reset_putc>
    94d4:	e59f303c 	ldr	r3, [pc, #60]	; 9518 <kmalloc_aligned+0x110>
    94d8:	e58d3000 	str	r3, [sp]
    94dc:	e3a03068 	mov	r3, #104, 0	; 0x68
    94e0:	e59f2014 	ldr	r2, [pc, #20]	; 94fc <kmalloc_aligned+0xf4>
    94e4:	e59f1014 	ldr	r1, [pc, #20]	; 9500 <kmalloc_aligned+0xf8>
    94e8:	e59f002c 	ldr	r0, [pc, #44]	; 951c <kmalloc_aligned+0x114>
    94ec:	ebfffc5b 	bl	8660 <printk>
    94f0:	ebfffe64 	bl	8e88 <clean_reboot>
    94f4:	00009cc4 	andeq	r9, r0, r4, asr #25
    94f8:	00009ad0 	ldrdeq	r9, [r0], -r0
    94fc:	00009c98 	muleq	r0, r8, ip
    9500:	00009ac0 	andeq	r9, r0, r0, asr #21
    9504:	000097c0 	andeq	r9, r0, r0, asr #15
    9508:	00009bc0 	andeq	r9, r0, r0, asr #23
    950c:	00009b8c 	andeq	r9, r0, ip, lsl #23
    9510:	00009bd4 	ldrdeq	r9, [r0], -r4
    9514:	00009ca8 	andeq	r9, r0, r8, lsr #25
    9518:	00009c0c 	andeq	r9, r0, ip, lsl #24
    951c:	00009be0 	andeq	r9, r0, r0, ror #23

00009520 <kfree>:
    9520:	e12fff1e 	bx	lr

00009524 <kfree_all>:
    9524:	e59f3008 	ldr	r3, [pc, #8]	; 9534 <kfree_all+0x10>
    9528:	e5932004 	ldr	r2, [r3, #4]
    952c:	e5832000 	str	r2, [r3]
    9530:	e12fff1e 	bx	lr
    9534:	00009cc4 	andeq	r9, r0, r4, asr #25

00009538 <kfree_pop>:
    9538:	e59f3048 	ldr	r3, [pc, #72]	; 9588 <kfree_pop+0x50>
    953c:	e5933004 	ldr	r3, [r3, #4]
    9540:	e1530000 	cmp	r3, r0
    9544:	8a000006 	bhi	9564 <kfree_pop+0x2c>
    9548:	e59f3038 	ldr	r3, [pc, #56]	; 9588 <kfree_pop+0x50>
    954c:	e5933008 	ldr	r3, [r3, #8]
    9550:	e1530000 	cmp	r3, r0
    9554:	3a000002 	bcc	9564 <kfree_pop+0x2c>
    9558:	e59f3028 	ldr	r3, [pc, #40]	; 9588 <kfree_pop+0x50>
    955c:	e5830000 	str	r0, [r3]
    9560:	e12fff1e 	bx	lr
    9564:	e52de004 	push	{lr}		; (str lr, [sp, #-4]!)
    9568:	e24dd00c 	sub	sp, sp, #12, 0
    956c:	e58d0000 	str	r0, [sp]
    9570:	e3a03077 	mov	r3, #119, 0	; 0x77
    9574:	e59f2010 	ldr	r2, [pc, #16]	; 958c <kfree_pop+0x54>
    9578:	e59f1010 	ldr	r1, [pc, #16]	; 9590 <kfree_pop+0x58>
    957c:	e59f0010 	ldr	r0, [pc, #16]	; 9594 <kfree_pop+0x5c>
    9580:	ebfffc36 	bl	8660 <printk>
    9584:	ebfffe3f 	bl	8e88 <clean_reboot>
    9588:	00009cc4 	andeq	r9, r0, r4, asr #25
    958c:	00009cb0 			; <UNDEFINED> instruction: 0x00009cb0
    9590:	00009ac0 	andeq	r9, r0, r0, asr #21
    9594:	00009c28 	andeq	r9, r0, r8, lsr #24

00009598 <memset>:
    9598:	e0802002 	add	r2, r0, r2
    959c:	e1a03000 	mov	r3, r0
    95a0:	e1530002 	cmp	r3, r2
    95a4:	212fff1e 	bxcs	lr
    95a8:	e4c31001 	strb	r1, [r3], #1
    95ac:	eafffffb 	b	95a0 <memset+0x8>

000095b0 <strcat>:
    95b0:	e1a02000 	mov	r2, r0
    95b4:	e1a03002 	mov	r3, r2
    95b8:	e2822001 	add	r2, r2, #1, 0
    95bc:	e5d3c000 	ldrb	ip, [r3]
    95c0:	e35c0000 	cmp	ip, #0, 0
    95c4:	1afffffa 	bne	95b4 <strcat+0x4>
    95c8:	e2433001 	sub	r3, r3, #1, 0
    95cc:	e5d12000 	ldrb	r2, [r1]
    95d0:	e2811001 	add	r1, r1, #1, 0
    95d4:	e5e32001 	strb	r2, [r3, #1]!
    95d8:	e3520000 	cmp	r2, #0, 0
    95dc:	1afffffa 	bne	95cc <strcat+0x1c>
    95e0:	e12fff1e 	bx	lr

000095e4 <strcmp>:
    95e4:	e5d03000 	ldrb	r3, [r0]
    95e8:	e3530000 	cmp	r3, #0, 0
    95ec:	0a000004 	beq	9604 <strcmp+0x20>
    95f0:	e5d12000 	ldrb	r2, [r1]
    95f4:	e1530002 	cmp	r3, r2
    95f8:	02800001 	addeq	r0, r0, #1, 0
    95fc:	02811001 	addeq	r1, r1, #1, 0
    9600:	0afffff7 	beq	95e4 <strcmp>
    9604:	e5d10000 	ldrb	r0, [r1]
    9608:	e0430000 	sub	r0, r3, r0
    960c:	e12fff1e 	bx	lr

00009610 <strcpy>:
    9610:	e1a0c000 	mov	ip, r0
    9614:	e5d12000 	ldrb	r2, [r1]
    9618:	e2811001 	add	r1, r1, #1, 0
    961c:	e5cc2000 	strb	r2, [ip]
    9620:	e28cc001 	add	ip, ip, #1, 0
    9624:	e3520000 	cmp	r2, #0, 0
    9628:	1afffff9 	bne	9614 <strcpy+0x4>
    962c:	e12fff1e 	bx	lr

00009630 <strncmp>:
    9630:	e3520000 	cmp	r2, #0, 0
    9634:	e2422001 	sub	r2, r2, #1, 0
    9638:	0a000005 	beq	9654 <strncmp+0x24>
    963c:	e4d03001 	ldrb	r3, [r0], #1
    9640:	e4d1c001 	ldrb	ip, [r1], #1
    9644:	e153000c 	cmp	r3, ip
    9648:	0afffff8 	beq	9630 <strncmp>
    964c:	e043000c 	sub	r0, r3, ip
    9650:	e12fff1e 	bx	lr
    9654:	e3a00000 	mov	r0, #0, 0
    9658:	e12fff1e 	bx	lr

0000965c <reboot_callout>:
    965c:	e12fff1e 	bx	lr

00009660 <dev_barrier>:
    9660:	ea000002 	b	9670 <dsb>

00009664 <dmb>:
    9664:	e3a00000 	mov	r0, #0, 0
    9668:	ee070fba 	mcr	15, 0, r0, cr7, cr10, {5}
    966c:	e12fff1e 	bx	lr

00009670 <dsb>:
    9670:	ee070f9a 	mcr	15, 0, r0, cr7, cr10, {4}
    9674:	e12fff1e 	bx	lr

00009678 <gpio_set_function>:
    9678:	e350001f 	cmp	r0, #31, 0
    967c:	812fff1e 	bxhi	lr
    9680:	e92d4070 	push	{r4, r5, r6, lr}
    9684:	e1a05001 	mov	r5, r1
    9688:	e3d13007 	bics	r3, r1, #7, 0
    968c:	18bd8070 	popne	{r4, r5, r6, pc}
    9690:	e59f3040 	ldr	r3, [pc, #64]	; 96d8 <gpio_set_function+0x60>
    9694:	e0832093 	umull	r2, r3, r3, r0
    9698:	e1a031a3 	lsr	r3, r3, #3
    969c:	e1a02003 	mov	r2, r3
    96a0:	e0833103 	add	r3, r3, r3, lsl #2
    96a4:	e0403083 	sub	r3, r0, r3, lsl #1
    96a8:	e0834083 	add	r4, r3, r3, lsl #1
    96ac:	e2820302 	add	r0, r2, #134217728	; 0x8000000
    96b0:	e2800702 	add	r0, r0, #524288	; 0x80000
    96b4:	e1a06100 	lsl	r6, r0, #2
    96b8:	e1a00006 	mov	r0, r6
    96bc:	ebfffa5a 	bl	802c <GET32>
    96c0:	e3a01007 	mov	r1, #7, 0
    96c4:	e1c01411 	bic	r1, r0, r1, lsl r4
    96c8:	e1811415 	orr	r1, r1, r5, lsl r4
    96cc:	e1a00006 	mov	r0, r6
    96d0:	ebfffa53 	bl	8024 <PUT32>
    96d4:	e8bd8070 	pop	{r4, r5, r6, pc}
    96d8:	cccccccd 	stclgt	12, cr12, [ip], {205}	; 0xcd

000096dc <gpio_set_output>:
    96dc:	e92d4010 	push	{r4, lr}
    96e0:	e3a01001 	mov	r1, #1, 0
    96e4:	ebffffe3 	bl	9678 <gpio_set_function>
    96e8:	e8bd8010 	pop	{r4, pc}

000096ec <gpio_set_on>:
    96ec:	e350001f 	cmp	r0, #31, 0
    96f0:	812fff1e 	bxhi	lr
    96f4:	e92d4010 	push	{r4, lr}
    96f8:	e3a01001 	mov	r1, #1, 0
    96fc:	e1a01011 	lsl	r1, r1, r0
    9700:	e59f0004 	ldr	r0, [pc, #4]	; 970c <gpio_set_on+0x20>
    9704:	ebfffa46 	bl	8024 <PUT32>
    9708:	e8bd8010 	pop	{r4, pc}
    970c:	2020001c 	eorcs	r0, r0, ip, lsl r0

00009710 <gpio_set_off>:
    9710:	e350001f 	cmp	r0, #31, 0
    9714:	812fff1e 	bxhi	lr
    9718:	e92d4010 	push	{r4, lr}
    971c:	e3a01001 	mov	r1, #1, 0
    9720:	e1a01011 	lsl	r1, r1, r0
    9724:	e59f0004 	ldr	r0, [pc, #4]	; 9730 <gpio_set_off+0x20>
    9728:	ebfffa3d 	bl	8024 <PUT32>
    972c:	e8bd8010 	pop	{r4, pc}
    9730:	20200028 	eorcs	r0, r0, r8, lsr #32

00009734 <gpio_set_input>:
    9734:	e92d4010 	push	{r4, lr}
    9738:	e3a01000 	mov	r1, #0, 0
    973c:	ebffffcd 	bl	9678 <gpio_set_function>
    9740:	e8bd8010 	pop	{r4, pc}

00009744 <gpio_write>:
    9744:	e92d4010 	push	{r4, lr}
    9748:	e3510000 	cmp	r1, #0, 0
    974c:	0a000001 	beq	9758 <gpio_write+0x14>
    9750:	ebffffe5 	bl	96ec <gpio_set_on>
    9754:	e8bd8010 	pop	{r4, pc}
    9758:	ebffffec 	bl	9710 <gpio_set_off>
    975c:	e8bd8010 	pop	{r4, pc}

00009760 <gpio_read>:
    9760:	e350001f 	cmp	r0, #31, 0
    9764:	8a000007 	bhi	9788 <gpio_read+0x28>
    9768:	e92d4010 	push	{r4, lr}
    976c:	e200401f 	and	r4, r0, #31, 0
    9770:	e59f3018 	ldr	r3, [pc, #24]	; 9790 <gpio_read+0x30>
    9774:	e08302a0 	add	r0, r3, r0, lsr #5
    9778:	ebfffa2b 	bl	802c <GET32>
    977c:	e1a00430 	lsr	r0, r0, r4
    9780:	e2000001 	and	r0, r0, #1, 0
    9784:	e8bd8010 	pop	{r4, pc}
    9788:	e3e00000 	mvn	r0, #0, 0
    978c:	e12fff1e 	bx	lr
    9790:	20200034 	eorcs	r0, r0, r4, lsr r0

00009794 <__code_end__>:
    9794:	00000000 	andeq	r0, r0, r0

Disassembly of section .rodata:

00009798 <__FUNCTION__.4109-0x178>:
    9798:	203d2061 	eorscs	r2, sp, r1, rrx
    979c:	202c7825 	eorcs	r7, ip, r5, lsr #16
    97a0:	203d2062 	eorscs	r2, sp, r2, rrx
    97a4:	202c7825 	eorcs	r7, ip, r5, lsr #16
    97a8:	203d2063 	eorscs	r2, sp, r3, rrx
    97ac:	000a7825 	andeq	r7, sl, r5, lsr #16
    97b0:	2d746e69 	ldclcs	14, cr6, [r4, #-420]!	; 0xfffffe5c
    97b4:	706d6f63 	rsbvc	r6, sp, r3, ror #30
    97b8:	2e656c69 	cdpcs	12, 6, cr6, cr5, cr9, {3}
    97bc:	00000063 	andeq	r0, r0, r3, rrx
    97c0:	494e4150 	stmdbmi	lr, {r4, r6, r8, lr}^
    97c4:	73253a43 			; <UNDEFINED> instruction: 0x73253a43
    97c8:	3a73253a 	bcc	1cd2cb8 <__bss_end__+0x1cc8be0>
    97cc:	253a6425 	ldrcs	r6, [sl, #-1061]!	; 0xfffffbdb
    97d0:	00000a73 	andeq	r0, r0, r3, ror sl
    97d4:	203c206e 	eorscs	r2, ip, lr, rrx
    97d8:	00303532 	eorseq	r3, r0, r2, lsr r5
    97dc:	203c206e 	eorscs	r2, ip, lr, rrx
    97e0:	00003231 	andeq	r3, r0, r1, lsr r2
    97e4:	656e6567 	strbvs	r6, [lr, #-1383]!	; 0xfffffa99
    97e8:	5f636972 	svcpl	0x00636972
    97ec:	6c6c6163 	stfvse	f6, [ip], #-396	; 0xfffffe74
    97f0:	746e695f 	strbtvc	r6, [lr], #-2399	; 0xfffff6a1
    97f4:	746e6928 	strbtvc	r6, [lr], #-2344	; 0xfffff6d8
    97f8:	296e2c76 	stmdbcs	lr!, {r1, r2, r4, r5, r6, sl, fp, sp}^
    97fc:	00000000 	andeq	r0, r0, r0
    9800:	74736f63 	ldrbtvc	r6, [r3], #-3939	; 0xfffff09d
    9804:	20666f20 	rsbcs	r6, r6, r0, lsr #30
    9808:	656e6567 	strbvs	r6, [lr, #-1383]!	; 0xfffffa99
    980c:	2d636972 			; <UNDEFINED> instruction: 0x2d636972
    9810:	20746e69 	rsbscs	r6, r4, r9, ror #28
    9814:	6c6c6163 	stfvse	f6, [ip], #-396	; 0xfffffe74
    9818:	00676e69 	rsbeq	r6, r7, r9, ror #28
    981c:	203a7325 	eorscs	r7, sl, r5, lsr #6
    9820:	63206425 			; <UNDEFINED> instruction: 0x63206425
    9824:	656c6379 	strbvs	r6, [ip, #-889]!	; 0xfffffc87
    9828:	78282073 	stmdavc	r8!, {r0, r1, r4, r5, r6, sp}
    982c:	20293031 	eorcs	r3, r9, r1, lsr r0
    9830:	3e73253c 	mrccc	5, 3, r2, cr3, cr12, {1}
    9834:	0000000a 	andeq	r0, r0, sl
    9838:	4f525245 	svcmi	0x00525245
    983c:	73253a52 			; <UNDEFINED> instruction: 0x73253a52
    9840:	3a73253a 	bcc	1cd2d30 <__bss_end__+0x1cc8c58>
    9844:	203a6425 	eorscs	r6, sl, r5, lsr #8
    9848:	534c4146 	movtpl	r4, #49478	; 0xc146
    984c:	253c2845 	ldrcs	r2, [ip, #-2117]!	; 0xfffff7bb
    9850:	3a293e73 	bcc	a59224 <__bss_end__+0xa4f14c>
    9854:	6e632220 	cdpvs	2, 6, cr2, cr3, cr0, {1}
    9858:	64253d74 	strtvs	r3, [r5], #-3444	; 0xfffff28c
    985c:	7865202c 	stmdavc	r5!, {r2, r3, r5, sp}^
    9860:	74636570 	strbtvc	r6, [r3], #-1392	; 0xfffffa90
    9864:	253d6465 	ldrcs	r6, [sp, #-1125]!	; 0xfffffb9b
    9868:	226e5c64 	rsbcs	r5, lr, #100, 24	; 0x6400
    986c:	0000000a 	andeq	r0, r0, sl
    9870:	20746e63 	rsbscs	r6, r4, r3, ror #28
    9874:	6e203d3d 	mcrvs	13, 1, r3, cr0, cr13, {1}
    9878:	0030312a 	eorseq	r3, r0, sl, lsr #2
    987c:	63657073 	cmnvs	r5, #115, 0	; 0x73
    9880:	696c6169 	stmdbvs	ip!, {r0, r3, r5, r6, r8, sp, lr}^
    9884:	5f64657a 	svcpl	0x0064657a
    9888:	6c6c6163 	stfvse	f6, [ip], #-396	; 0xfffffe74
    988c:	746e695f 	strbtvc	r6, [lr], #-2399	; 0xfffff6a1
    9890:	00002928 	andeq	r2, r0, r8, lsr #18
    9894:	74736f63 	ldrbtvc	r6, [r3], #-3939	; 0xfffff09d
    9898:	20666f20 	rsbcs	r6, r6, r0, lsr #30
    989c:	63657073 	cmnvs	r5, #115, 0	; 0x73
    98a0:	696c6169 	stmdbvs	ip!, {r0, r3, r5, r6, r8, sp, lr}^
    98a4:	2064657a 	rsbcs	r6, r4, sl, ror r5
    98a8:	20746e69 	rsbscs	r6, r4, r9, ror #28
    98ac:	6c6c6163 	stfvse	f6, [ip], #-396	; 0xfffffe74
    98b0:	00676e69 	rsbeq	r6, r7, r9, ror #28
    98b4:	29287066 	stmdbcs	r8!, {r1, r2, r5, r6, ip, sp, lr}
    98b8:	00000000 	andeq	r0, r0, r0
    98bc:	74736f63 	ldrbtvc	r6, [r3], #-3939	; 0xfffff09d
    98c0:	20666f20 	rsbcs	r6, r6, r0, lsr #30
    98c4:	20746e69 	rsbscs	r6, r4, r9, ror #28
    98c8:	706d6f63 	rsbvc	r6, sp, r3, ror #30
    98cc:	20656c69 	rsbcs	r6, r5, r9, ror #24
    98d0:	6c6c6163 	stfvse	f6, [ip], #-396	; 0xfffffe74
    98d4:	00676e69 	rsbeq	r6, r7, r9, ror #28
    98d8:	6f6f6f67 	svcvs	0x006f6f67
    98dc:	6f6f6f6f 	svcvs	0x006f6f6f
    98e0:	3d31202c 	ldccc	0, cr2, [r1, #-176]!	; 0xffffff50
    98e4:	202c6425 	eorcs	r6, ip, r5, lsr #8
    98e8:	64253d32 	strtvs	r3, [r5], #-3378	; 0xfffff2ce
    98ec:	3d33202c 	ldccc	0, cr2, [r3, #-176]!	; 0xffffff50
    98f0:	202c6425 	eorcs	r6, ip, r5, lsr #8
    98f4:	64253d34 	strtvs	r3, [r5], #-3380	; 0xfffff2cc
    98f8:	3d35202c 	ldccc	0, cr2, [r5, #-176]!	; 0xffffff50
    98fc:	202c6425 	eorcs	r6, ip, r5, lsr #8
    9900:	64253d36 	strtvs	r3, [r5], #-3382	; 0xfffff2ca
    9904:	0000000a 	andeq	r0, r0, sl
    9908:	656e6f64 	strbvs	r6, [lr, #-3940]!	; 0xfffff09c
    990c:	00000a21 	andeq	r0, r0, r1, lsr #20

00009910 <__FUNCTION__.4109>:
    9910:	5f746e69 	svcpl	0x00746e69
    9914:	706d6f63 	rsbvc	r6, sp, r3, ror #30
    9918:	00656c69 	rsbeq	r6, r5, r9, ror #24

0000991c <__FUNCTION__.4119>:
    991c:	6e756874 	mrcvs	8, 3, r6, cr5, cr4, {3}
    9920:	0000006b 	andeq	r0, r0, fp, rrx
    9924:	00008038 	andeq	r8, r0, r8, lsr r0
    9928:	00008050 	andeq	r8, r0, r0, asr r0
    992c:	00008068 	andeq	r8, r0, r8, rrx
    9930:	00008080 	andeq	r8, r0, r0, lsl #1
    9934:	00008098 	muleq	r0, r8, r0
    9938:	000080b0 	strheq	r8, [r0], -r0
    993c:	000080c8 	andeq	r8, r0, r8, asr #1
    9940:	000080e0 	andeq	r8, r0, r0, ror #1

00009944 <__FUNCTION__.4149>:
    9944:	6d746f6e 	ldclvs	15, cr6, [r4, #-440]!	; 0xfffffe48
    9948:	006e6961 	rsbeq	r6, lr, r1, ror #18
    994c:	696c2f2e 	stmdbvs	ip!, {r1, r2, r3, r5, r8, r9, sl, fp, sp}^
    9950:	762f6362 	strtvc	r6, [pc], -r2, ror #6
    9954:	72702d61 	rsbsvc	r2, r0, #6208	; 0x1840
    9958:	6b746e69 	blvs	1d25304 <__bss_end__+0x1d1b22c>
    995c:	0000632e 	andeq	r6, r0, lr, lsr #6
    9960:	00000030 	andeq	r0, r0, r0, lsr r0
    9964:	33323130 	teqcc	r2, #12
    9968:	37363534 			; <UNDEFINED> instruction: 0x37363534
    996c:	00003938 	andeq	r3, r0, r8, lsr r9
    9970:	33323130 	teqcc	r2, #12
    9974:	37363534 			; <UNDEFINED> instruction: 0x37363534
    9978:	62613938 	rsbvs	r3, r1, #56, 18	; 0xe0000
    997c:	66656463 	strbtvs	r6, [r5], -r3, ror #8
    9980:	00000000 	andeq	r0, r0, r0
    9984:	00003130 	andeq	r3, r0, r0, lsr r1
    9988:	63747570 	cmnvs	r4, #112, 10	; 0x1c000000
    998c:	0070665f 	rsbseq	r6, r0, pc, asr r6
    9990:	74646977 	strbtvc	r6, [r4], #-2423	; 0xfffff689
    9994:	203c2068 	eorscs	r2, ip, r8, rrx
    9998:	00003233 	andeq	r3, r0, r3, lsr r2
    999c:	00786c6c 	rsbseq	r6, r8, ip, ror #24
    99a0:	00646c6c 	rsbeq	r6, r4, ip, ror #24
    99a4:	253d3078 	ldrcs	r3, [sp, #-120]!	; 0xffffff88
    99a8:	00000a78 	andeq	r0, r0, r8, ror sl
    99ac:	253d3178 	ldrcs	r3, [sp, #-376]!	; 0xfffffe88
    99b0:	00000a78 	andeq	r0, r0, r8, ror sl
    99b4:	6e727473 	mrcvs	4, 3, r7, cr2, cr3, {3}
    99b8:	28706d63 	ldmdacs	r0!, {r0, r1, r5, r6, r8, sl, fp, sp, lr}^
    99bc:	202c7974 	eorcs	r7, ip, r4, ror r9
    99c0:	786c6c22 	stmdavc	ip!, {r1, r5, sl, fp, sp, lr}^
    99c4:	33202c22 			; <UNDEFINED> instruction: 0x33202c22
    99c8:	3d3d2029 	ldccc	0, cr2, [sp, #-164]!	; 0xffffff5c
    99cc:	7c203020 	stcvc	0, cr3, [r0], #-128	; 0xffffff80
    99d0:	7473207c 	ldrbtvc	r2, [r3], #-124	; 0xffffff84
    99d4:	6d636e72 	stclvs	14, cr6, [r3, #-456]!	; 0xfffffe38
    99d8:	79742870 	ldmdbvc	r4!, {r4, r5, r6, fp, sp}^
    99dc:	6c22202c 	stcvs	0, cr2, [r2], #-176	; 0xffffff50
    99e0:	2c22646c 	cfstrscs	mvf6, [r2], #-432	; 0xfffffe50
    99e4:	20293320 	eorcs	r3, r9, r0, lsr #6
    99e8:	30203d3d 	eorcc	r3, r0, sp, lsr sp
    99ec:	00000000 	andeq	r0, r0, r0
    99f0:	494e4150 	stmdbmi	lr, {r4, r6, r8, lr}^
    99f4:	73253a43 			; <UNDEFINED> instruction: 0x73253a43
    99f8:	3a73253a 	bcc	1cd2ee8 <__bss_end__+0x1cc8e10>
    99fc:	693a6425 	ldmdbvs	sl!, {r0, r2, r5, sl, sp, lr}
    9a00:	736f706d 	cmnvc	pc, #109, 0	; 0x6d
    9a04:	6c626973 			; <UNDEFINED> instruction: 0x6c626973
    9a08:	66203a65 	strtvs	r3, [r0], -r5, ror #20
    9a0c:	3c3d746d 	cfldrscc	mvf7, [sp], #-436	; 0xfffffe4c
    9a10:	0a3e7325 	beq	fa66ac <__bss_end__+0xf9c5d4>
    9a14:	0000000a 	andeq	r0, r0, sl
    9a18:	494e4150 	stmdbmi	lr, {r4, r6, r8, lr}^
    9a1c:	73253a43 			; <UNDEFINED> instruction: 0x73253a43
    9a20:	3a73253a 	bcc	1cd2f10 <__bss_end__+0x1cc8e38>
    9a24:	663a6425 	ldrtvs	r6, [sl], -r5, lsr #8
    9a28:	74616f6c 	strbtvc	r6, [r1], #-3948	; 0xfffff094
    9a2c:	746f6e20 	strbtvc	r6, [pc], #-3616	; 9a34 <__FUNCTION__.4149+0xf0>
    9a30:	616e6520 	cmnvs	lr, r0, lsr #10
    9a34:	64656c62 	strbtvs	r6, [r5], #-3170	; 0xfffff39e
    9a38:	0a212121 	beq	851ec4 <__bss_end__+0x847dec>
    9a3c:	00000000 	andeq	r0, r0, r0
    9a40:	6e697270 	mcrvs	2, 3, r7, cr9, cr0, {3}
    9a44:	203a6b74 	eorscs	r6, sl, r4, ror fp
    9a48:	20746f6e 	rsbscs	r6, r4, lr, ror #30
    9a4c:	646e6168 	strbtvs	r6, [lr], #-360	; 0xfffffe98
    9a50:	676e696c 	strbvs	r6, [lr, -ip, ror #18]!
    9a54:	65707320 	ldrbvs	r7, [r0, #-800]!	; 0xfffffce0
    9a58:	69666963 	stmdbvs	r6!, {r0, r1, r5, r6, r8, fp, sp, lr}^
    9a5c:	27207265 	strcs	r7, [r0, -r5, ror #4]!
    9a60:	20276325 	eorcs	r6, r7, r5, lsr #6
    9a64:	63736128 	cmnvs	r3, #10
    9a68:	253d6969 	ldrcs	r6, [sp, #-2409]!	; 0xfffff697
    9a6c:	000a2964 	andeq	r2, sl, r4, ror #18
    9a70:	494e4150 	stmdbmi	lr, {r4, r6, r8, lr}^
    9a74:	73253a43 			; <UNDEFINED> instruction: 0x73253a43
    9a78:	3a73253a 	bcc	1cd2f68 <__bss_end__+0x1cc8e90>
    9a7c:	703a6425 	eorsvc	r6, sl, r5, lsr #8
    9a80:	746e6972 	strbtvc	r6, [lr], #-2418	; 0xfffff68e
    9a84:	7265206b 	rsbvc	r2, r5, #107, 0	; 0x6b
    9a88:	0a726f72 	beq	1ca5858 <__bss_end__+0x1c9b780>
    9a8c:	0000000a 	andeq	r0, r0, sl

00009a90 <__FUNCTION__.4000>:
    9a90:	74696d65 	strbtvc	r6, [r9], #-3429	; 0xfffff29b
    9a94:	00000000 	andeq	r0, r0, r0

00009a98 <__FUNCTION__.3948>:
    9a98:	5f697072 	svcpl	0x00697072
    9a9c:	5f746573 	svcpl	0x00746573
    9aa0:	7074756f 	rsbsvc	r7, r4, pc, ror #10
    9aa4:	00007475 	andeq	r7, r0, r5, ror r4

00009aa8 <__FUNCTION__.4026>:
    9aa8:	705f6176 	subsvc	r6, pc, r6, ror r1	; <UNPREDICTABLE>
    9aac:	746e6972 	strbtvc	r6, [lr], #-2418	; 0xfffff68e
    9ab0:	0000006b 	andeq	r0, r0, fp, rrx
    9ab4:	454e4f44 	strbmi	r4, [lr, #-3908]	; 0xfffff0bc
    9ab8:	0a212121 	beq	851f44 <__bss_end__+0x847e6c>
    9abc:	00000000 	andeq	r0, r0, r0
    9ac0:	6c616d6b 	stclvs	13, cr6, [r1], #-428	; 0xfffffe54
    9ac4:	2e636f6c 	cdpcs	15, 6, cr6, cr3, cr12, {3}
    9ac8:	00000063 	andeq	r0, r0, r3, rrx
    9acc:	5f78616d 	svcpl	0x0078616d
    9ad0:	7479626e 	ldrbtvc	r6, [r9], #-622	; 0xfffffd92
    9ad4:	00007365 	andeq	r7, r0, r5, ror #6
    9ad8:	494e4150 	stmdbmi	lr, {r4, r6, r8, lr}^
    9adc:	73253a43 			; <UNDEFINED> instruction: 0x73253a43
    9ae0:	3a73253a 	bcc	1cd2fd0 <__bss_end__+0x1cc8ef8>
    9ae4:	733a6425 	teqvc	sl, #620756992	; 0x25000000
    9ae8:	69747465 	ldmdbvs	r4!, {r0, r2, r5, r6, sl, ip, sp, lr}^
    9aec:	6820676e 	stmdavs	r0!, {r1, r2, r3, r5, r6, r8, r9, sl, sp, lr}
    9af0:	20706165 	rsbscs	r6, r0, r5, ror #2
    9af4:	25206f74 	strcs	r6, [r0, #-3956]!	; 0xfffff08c
    9af8:	77203a70 			; <UNDEFINED> instruction: 0x77203a70
    9afc:	206c6c69 	rsbcs	r6, ip, r9, ror #24
    9b00:	20746968 	rsbscs	r6, r4, r8, ror #18
    9b04:	20656874 	rsbcs	r6, r5, r4, ror r8
    9b08:	20646c6f 	rsbcs	r6, r4, pc, ror #24
    9b0c:	70616568 	rsbvc	r6, r1, r8, ror #10
    9b10:	20746120 	rsbscs	r6, r4, r0, lsr #2
    9b14:	0a0a7025 	beq	2a5bb0 <__bss_end__+0x29bad8>
    9b18:	00000000 	andeq	r0, r0, r0
    9b1c:	494e4150 	stmdbmi	lr, {r4, r6, r8, lr}^
    9b20:	73253a43 			; <UNDEFINED> instruction: 0x73253a43
    9b24:	3a73253a 	bcc	1cd3014 <__bss_end__+0x1cc8f3c>
    9b28:	613a6425 	teqvs	sl, r5, lsr #8
    9b2c:	6165726c 	cmnvs	r5, ip, ror #4
    9b30:	63207964 			; <UNDEFINED> instruction: 0x63207964
    9b34:	656c6c61 	strbvs	r6, [ip, #-3169]!	; 0xfffff39f
    9b38:	6d6b2064 	stclvs	0, cr2, [fp, #-400]!	; 0xfffffe70
    9b3c:	6f6c6c61 	svcvs	0x006c6c61
    9b40:	6e695f63 	cdpvs	15, 6, cr5, cr9, cr3, {3}
    9b44:	0a0a7469 	beq	2a6cf0 <__bss_end__+0x29cc18>
    9b48:	00000000 	andeq	r0, r0, r0
    9b4c:	494e4150 	stmdbmi	lr, {r4, r6, r8, lr}^
    9b50:	73253a43 			; <UNDEFINED> instruction: 0x73253a43
    9b54:	3a73253a 	bcc	1cd3044 <__bss_end__+0x1cc8f6c>
    9b58:	253a6425 	ldrcs	r6, [sl, #-1061]!	; 0xfffffbdb
    9b5c:	626e2064 	rsbvs	r2, lr, #100, 0	; 0x64
    9b60:	73657479 	cmnvc	r5, #2030043136	; 0x79000000
    9b64:	63786520 	cmnvs	r8, #32, 10	; 0x8000000
    9b68:	65646565 	strbvs	r6, [r4, #-1381]!	; 0xfffffa9b
    9b6c:	69732064 	ldmdbvs	r3!, {r2, r5, r6, sp}^
    9b70:	6f20657a 	svcvs	0x0020657a
    9b74:	65682066 	strbvs	r2, [r8, #-102]!	; 0xffffff9a
    9b78:	62207061 	eorvs	r7, r0, #97, 0	; 0x61
    9b7c:	75252079 	strvc	r2, [r5, #-121]!	; 0xffffff87
    9b80:	79626e20 	stmdbvc	r2!, {r5, r9, sl, fp, sp, lr}^
    9b84:	0a736574 	beq	1ce315c <__bss_end__+0x1cd9084>
    9b88:	0000000a 	andeq	r0, r0, sl
    9b8c:	4f525245 	svcmi	0x00525245
    9b90:	73253a52 			; <UNDEFINED> instruction: 0x73253a52
    9b94:	3a73253a 	bcc	1cd3084 <__bss_end__+0x1cc8fac>
    9b98:	203a6425 	eorscs	r6, sl, r5, lsr #8
    9b9c:	534c4146 	movtpl	r4, #49478	; 0xc146
    9ba0:	253c2845 	ldrcs	r2, [ip, #-2117]!	; 0xfffff7bb
    9ba4:	3a293e73 	bcc	a59578 <__bss_end__+0xa4f4a0>
    9ba8:	73736120 	cmnvc	r3, #8
    9bac:	6e696d75 	mcrvs	13, 3, r6, cr9, cr5, {3}
    9bb0:	6f702067 	svcvs	0x00702067
    9bb4:	20726577 	rsbscs	r6, r2, r7, ror r5
    9bb8:	7420666f 	strtvc	r6, [r0], #-1647	; 0xfffff991
    9bbc:	000a6f77 	andeq	r6, sl, r7, ror pc
    9bc0:	705f7369 	subsvc	r7, pc, r9, ror #6
    9bc4:	2832776f 	ldmdacs	r2!, {r0, r1, r2, r3, r5, r6, r8, r9, sl, ip, sp, lr}
    9bc8:	67696c61 	strbvs	r6, [r9, -r1, ror #24]!
    9bcc:	6e656d6e 	cdpvs	13, 6, cr6, cr5, cr14, {3}
    9bd0:	00002974 	andeq	r2, r0, r4, ror r9
    9bd4:	705f7369 	subsvc	r7, pc, r9, ror #6
    9bd8:	2832776f 	ldmdacs	r2!, {r0, r1, r2, r3, r5, r6, r8, r9, sl, ip, sp, lr}
    9bdc:	0000296e 	andeq	r2, r0, lr, ror #18
    9be0:	4f525245 	svcmi	0x00525245
    9be4:	73253a52 			; <UNDEFINED> instruction: 0x73253a52
    9be8:	3a73253a 	bcc	1cd30d8 <__bss_end__+0x1cc9000>
    9bec:	203a6425 	eorscs	r6, sl, r5, lsr #8
    9bf0:	534c4146 	movtpl	r4, #49478	; 0xc146
    9bf4:	253c2845 	ldrcs	r2, [ip, #-2117]!	; 0xfffff7bb
    9bf8:	3a293e73 	bcc	a595cc <__bss_end__+0xa4f4f4>
    9bfc:	706d6920 	rsbvc	r6, sp, r0, lsr #18
    9c00:	6973736f 	ldmdbvs	r3!, {r0, r1, r2, r3, r5, r6, r8, r9, ip, sp, lr}^
    9c04:	0a656c62 	beq	1964d94 <__bss_end__+0x195acbc>
    9c08:	00000000 	andeq	r0, r0, r0
    9c0c:	615f7369 	cmpvs	pc, r9, ror #6
    9c10:	6e67696c 	vnmulvs.f16	s13, s14, s25	; <UNPREDICTABLE>
    9c14:	68286465 	stmdavs	r8!, {r0, r2, r5, r6, sl, sp, lr}
    9c18:	6c61202c 	stclvs	0, cr2, [r1], #-176	; 0xffffff50
    9c1c:	6d6e6769 	stclvs	7, cr6, [lr, #-420]!	; 0xfffffe5c
    9c20:	29746e65 	ldmdbcs	r4!, {r0, r2, r5, r6, r9, sl, fp, sp, lr}^
    9c24:	00000000 	andeq	r0, r0, r0
    9c28:	494e4150 	stmdbmi	lr, {r4, r6, r8, lr}^
    9c2c:	73253a43 			; <UNDEFINED> instruction: 0x73253a43
    9c30:	3a73253a 	bcc	1cd3120 <__bss_end__+0x1cc9048>
    9c34:	703a6425 	eorsvc	r6, sl, r5, lsr #8
    9c38:	746e696f 	strbtvc	r6, [lr], #-2415	; 0xfffff691
    9c3c:	25207265 	strcs	r7, [r0, #-613]!	; 0xfffffd9b
    9c40:	61772070 	cmnvs	r7, r0, ror r0
    9c44:	656e2073 	strbvs	r2, [lr, #-115]!	; 0xffffff8d
    9c48:	20726576 	rsbscs	r6, r2, r6, ror r5
    9c4c:	6f6c6c61 	svcvs	0x006c6c61
    9c50:	65746163 	ldrbvs	r6, [r4, #-355]!	; 0xfffffe9d
    9c54:	000a0a64 	andeq	r0, sl, r4, ror #20

00009c58 <__FUNCTION__.7>:
    9c58:	6c616d6b 	stclvs	13, cr6, [r1], #-428	; 0xfffffe54
    9c5c:	5f636f6c 	svcpl	0x00636f6c
    9c60:	74696e69 	strbtvc	r6, [r9], #-3689	; 0xfffff197
    9c64:	7465735f 	strbtvc	r7, [r5], #-863	; 0xfffffca1
    9c68:	6174735f 	cmnvs	r4, pc, asr r3
    9c6c:	00007472 	andeq	r7, r0, r2, ror r4

00009c70 <__FUNCTION__.5>:
    9c70:	6c616d6b 	stclvs	13, cr6, [r1], #-428	; 0xfffffe54
    9c74:	5f636f6c 	svcpl	0x00636f6c
    9c78:	74696e69 	strbtvc	r6, [r9], #-3689	; 0xfffff197
    9c7c:	00000000 	andeq	r0, r0, r0

00009c80 <__FUNCTION__.4>:
    9c80:	6c616d6b 	stclvs	13, cr6, [r1], #-428	; 0xfffffe54
    9c84:	5f636f6c 	svcpl	0x00636f6c
    9c88:	7a746f6e 	bvc	1d25a48 <__bss_end__+0x1d1b970>
    9c8c:	006f7265 	rsbeq	r7, pc, r5, ror #4

00009c90 <__FUNCTION__.2>:
    9c90:	6c616d6b 	stclvs	13, cr6, [r1], #-428	; 0xfffffe54
    9c94:	00636f6c 	rsbeq	r6, r3, ip, ror #30

00009c98 <__FUNCTION__.1>:
    9c98:	6c616d6b 	stclvs	13, cr6, [r1], #-428	; 0xfffffe54
    9c9c:	5f636f6c 	svcpl	0x00636f6c
    9ca0:	67696c61 	strbvs	r6, [r9, -r1, ror #24]!
    9ca4:	0064656e 	rsbeq	r6, r4, lr, ror #10

00009ca8 <__FUNCTION__.3>:
    9ca8:	6e756f72 	mrcvs	15, 3, r6, cr5, cr2, {3}
    9cac:	00707564 	rsbseq	r7, r0, r4, ror #10

00009cb0 <__FUNCTION__.0>:
    9cb0:	6572666b 	ldrbvs	r6, [r2, #-1643]!	; 0xfffff995
    9cb4:	6f705f65 	svcvs	0x00705f65
    9cb8:	Address 0x0000000000009cb8 is out of bounds.


Disassembly of section .data:

00009cbc <rpi_putchar>:
    9cbc:	000086b8 			; <UNDEFINED> instruction: 0x000086b8

00009cc0 <putk>:
    9cc0:	000086f4 	strdeq	r8, [r0], -r4

00009cc4 <heap>:
    9cc4:	0000a0d8 	ldrdeq	sl, [r0], -r8

00009cc8 <heap_start>:
    9cc8:	0000a0d8 	ldrdeq	sl, [r0], -r8

00009ccc <heap_end>:
    9ccc:	0020a0d8 	ldrdeq	sl, [r0], -r8	; <UNPREDICTABLE>

Disassembly of section .bss:

00009cd0 <__bss_start__>:
    9cd0:	00000000 	andeq	r0, r0, r0

00009cd4 <buf.3940>:
	...

0000a0d4 <init_p.6>:
    a0d4:	00000000 	andeq	r0, r0, r0

Disassembly of section .ARM.attributes:

00000000 <.ARM.attributes>:
   0:	00002a41 	andeq	r2, r0, r1, asr #20
   4:	61656100 	cmnvs	r5, r0, lsl #2
   8:	01006962 	tsteq	r0, r2, ror #18
   c:	00000020 	andeq	r0, r0, r0, lsr #32
  10:	4b5a3605 	blmi	168d82c <__bss_end__+0x1683754>
  14:	08070600 	stmdaeq	r7, {r9, sl}
  18:	12010901 	andne	r0, r1, #16384	; 0x4000
  1c:	15011404 	strne	r1, [r1, #-1028]	; 0xfffffbfc
  20:	18031701 	stmdane	r3, {r0, r8, r9, sl, ip}
  24:	22011a01 	andcs	r1, r1, #4096	; 0x1000
  28:	Address 0x0000000000000028 is out of bounds.


Disassembly of section .comment:

00000000 <.comment>:
   0:	3a434347 	bcc	10d0d24 <__bss_end__+0x10c6c4c>
   4:	4e472820 	cdpmi	8, 4, cr2, cr7, cr0, {1}
   8:	6f542055 	svcvs	0x00542055
   c:	20736c6f 	rsbscs	r6, r3, pc, ror #24
  10:	20726f66 	rsbscs	r6, r2, r6, ror #30
  14:	206d7241 	rsbcs	r7, sp, r1, asr #4
  18:	65626d45 	strbvs	r6, [r2, #-3397]!	; 0xfffff2bb
  1c:	64656464 	strbtvs	r6, [r5], #-1124	; 0xfffffb9c
  20:	6f725020 	svcvs	0x00725020
  24:	73736563 	cmnvc	r3, #415236096	; 0x18c00000
  28:	2073726f 	rsbscs	r7, r3, pc, ror #4
  2c:	30322d39 	eorscc	r2, r2, r9, lsr sp
  30:	712d3931 			; <UNDEFINED> instruction: 0x712d3931
  34:	616d2d34 	cmnvs	sp, r4, lsr sp
  38:	29726f6a 	ldmdbcs	r2!, {r1, r3, r5, r6, r8, r9, sl, fp, sp, lr}^
  3c:	322e3920 	eorcc	r3, lr, #32, 18	; 0x80000
  40:	3220312e 	eorcc	r3, r0, #-2147483637	; 0x8000000b
  44:	31393130 	teqcc	r9, r0, lsr r1
  48:	20353230 	eorscs	r3, r5, r0, lsr r2
  4c:	6c657228 	sfmvs	f7, 2, [r5], #-160	; 0xffffff60
  50:	65736165 	ldrbvs	r6, [r3, #-357]!	; 0xfffffe9b
  54:	415b2029 	cmpmi	fp, r9, lsr #32
  58:	612f4d52 			; <UNDEFINED> instruction: 0x612f4d52
  5c:	392d6d72 	pushcc	{r1, r4, r5, r6, r8, sl, fp, sp, lr}
  60:	6172622d 	cmnvs	r2, sp, lsr #4
  64:	2068636e 	rsbcs	r6, r8, lr, ror #6
  68:	69766572 	ldmdbvs	r6!, {r1, r4, r5, r6, r8, sl, sp, lr}^
  6c:	6e6f6973 			; <UNDEFINED> instruction: 0x6e6f6973
  70:	37373220 	ldrcc	r3, [r7, -r0, lsr #4]!
  74:	5d393935 			; <UNDEFINED> instruction: 0x5d393935
  78:	43434700 	movtmi	r4, #14080	; 0x3700
  7c:	4728203a 			; <UNDEFINED> instruction: 0x4728203a
  80:	4120554e 			; <UNDEFINED> instruction: 0x4120554e
  84:	45206d72 	strmi	r6, [r0, #-3442]!	; 0xfffff28e
  88:	6465626d 	strbtvs	r6, [r5], #-621	; 0xfffffd93
  8c:	20646564 	rsbcs	r6, r4, r4, ror #10
  90:	6c6f6f54 	stclvs	15, cr6, [pc], #-336	; ffffff48 <__bss_end__+0xffff5e70>
  94:	69616863 	stmdbvs	r1!, {r0, r1, r5, r6, fp, sp, lr}^
  98:	3031206e 	eorscc	r2, r1, lr, rrx
  9c:	322d332e 	eorcc	r3, sp, #-1207959552	; 0xb8000000
  a0:	2e313230 	mrccs	2, 1, r3, cr1, cr0, {1}
  a4:	20293031 	eorcs	r3, r9, r1, lsr r0
  a8:	332e3031 			; <UNDEFINED> instruction: 0x332e3031
  ac:	3220312e 	eorcc	r3, r0, #-2147483637	; 0x8000000b
  b0:	30313230 	eorscc	r3, r1, r0, lsr r2
  b4:	20343238 	eorscs	r3, r4, r8, lsr r2
  b8:	6c657228 	sfmvs	f7, 2, [r5], #-160	; 0xffffff60
  bc:	65736165 	ldrbvs	r6, [r3, #-357]!	; 0xfffffe9b
  c0:	Address 0x00000000000000c0 is out of bounds.


Disassembly of section .debug_info:

00000000 <.debug_info>:
       0:	00000f10 	andeq	r0, r0, r0, lsl pc
       4:	00000004 	andeq	r0, r0, r4
       8:	01040000 	mrseq	r0, (UNDEF: 4)
       c:	000002ad 	andeq	r0, r0, sp, lsr #5
      10:	00007d0c 	andeq	r7, r0, ip, lsl #26
      14:	00025300 	andeq	r5, r2, r0, lsl #6
      18:	00803800 	addeq	r3, r0, r0, lsl #16
      1c:	00062800 	andeq	r2, r6, r0, lsl #16
      20:	00000000 	andeq	r0, r0, r0
      24:	05040200 	streq	r0, [r4, #-512]	; 0xfffffe00
      28:	00746e69 	rsbseq	r6, r4, r9, ror #28
      2c:	c5070403 	strgt	r0, [r7, #-1027]	; 0xfffffbfd
      30:	04000001 	streq	r0, [r0], #-1
      34:	0000002c 	andeq	r0, r0, ip, lsr #32
      38:	78060103 	stmdavc	r6, {r0, r1, r8}
      3c:	03000001 	movweq	r0, #1
      40:	002a0502 	eoreq	r0, sl, r2, lsl #10
      44:	da050000 	ble	14004c <__bss_end__+0x135f74>
      48:	03000001 	movweq	r0, #1
      4c:	00521828 	subseq	r1, r2, r8, lsr #16
      50:	04030000 	streq	r0, [r3], #-0
      54:	0000e405 	andeq	lr, r0, r5, lsl #8
      58:	05080300 	streq	r0, [r8, #-768]	; 0xfffffd00
      5c:	000000df 	ldrdeq	r0, [r0], -pc	; <UNPREDICTABLE>
      60:	76080103 	strvc	r0, [r8], -r3, lsl #2
      64:	03000001 	movweq	r0, #1
      68:	02140702 	andseq	r0, r4, #524288	; 0x80000
      6c:	d9050000 	stmdble	r5, {}	; <UNPREDICTABLE>
      70:	03000001 	movweq	r0, #1
      74:	007a1934 	rsbseq	r1, sl, r4, lsr r9
      78:	04030000 	streq	r0, [r3], #-0
      7c:	0001c007 	andeq	ip, r1, r7
      80:	07080300 	streq	r0, [r8, -r0, lsl #6]
      84:	000001bb 			; <UNDEFINED> instruction: 0x000001bb
      88:	00002506 	andeq	r2, r0, r6, lsl #10
      8c:	00009700 	andeq	r9, r0, r0, lsl #14
      90:	00250700 	eoreq	r0, r5, r0, lsl #14
      94:	08000000 	stmdaeq	r0, {}	; <UNPREDICTABLE>
      98:	00000068 	andeq	r0, r0, r8, rrx
      9c:	a30e1c04 	movwge	r1, #60420	; 0xec04
      a0:	09000000 	stmdbeq	r0, {}	; <UNPREDICTABLE>
      a4:	00008804 	andeq	r8, r0, r4, lsl #16
      a8:	00250600 	eoreq	r0, r5, r0, lsl #12
      ac:	00b80000 	adcseq	r0, r8, r0
      b0:	b8070000 	stmdalt	r7, {}	; <UNPREDICTABLE>
      b4:	00000000 	andeq	r0, r0, r0
      b8:	00c50409 	sbceq	r0, r5, r9, lsl #8
      bc:	01030000 	mrseq	r0, (UNDEF: 3)
      c0:	00017f08 	andeq	r7, r1, r8, lsl #30
      c4:	00be0a00 	adcseq	r0, lr, r0, lsl #20
      c8:	e4080000 	str	r0, [r8], #-0
      cc:	04000004 	streq	r0, [r0], #-4
      d0:	00d60e21 	sbcseq	r0, r6, r1, lsr #28
      d4:	04090000 	streq	r0, [r9], #-0
      d8:	000000a9 	andeq	r0, r0, r9, lsr #1
      dc:	0003cf05 	andeq	ip, r3, r5, lsl #30
      e0:	1b280500 	blne	a014e8 <__bss_end__+0x9f7410>
      e4:	000000e8 	andeq	r0, r0, r8, ror #1
      e8:	0000ed0b 	andeq	lr, r0, fp, lsl #26
      ec:	00060400 	andeq	r0, r6, r0, lsl #8
      f0:	000000ff 	strdeq	r0, [r0], -pc	; <UNPREDICTABLE>
      f4:	0002400c 	andeq	r4, r2, ip
      f8:	0000ff00 	andeq	pc, r0, r0, lsl #30
      fc:	0d000000 	stceq	0, cr0, [r0, #-0]
     100:	00ef0504 	rsceq	r0, pc, r4, lsl #10
     104:	63050000 	movwvs	r0, #20480	; 0x5000
     108:	0000dc18 	andeq	sp, r0, r8, lsl ip
     10c:	01070e00 	tsteq	r7, r0, lsl #28
     110:	00000060 	andeq	r0, r0, r0, rrx
     114:	8e060702 	cdphi	7, 0, cr0, cr6, cr2, {0}
     118:	0f000001 	svceq	0x00000001
     11c:	00000191 	muleq	r0, r1, r1
     120:	01980f00 	orrseq	r0, r8, r0, lsl #30
     124:	0f010000 	svceq	0x00010000
     128:	0000019f 	muleq	r0, pc, r1	; <UNPREDICTABLE>
     12c:	01a60f02 			; <UNDEFINED> instruction: 0x01a60f02
     130:	0f030000 	svceq	0x00030000
     134:	000001ad 	andeq	r0, r0, sp, lsr #3
     138:	02a60f04 	adceq	r0, r6, #4, 30
     13c:	0f050000 	svceq	0x00050000
     140:	000001b4 			; <UNDEFINED> instruction: 0x000001b4
     144:	03620f06 	cmneq	r2, #6, 30
     148:	0f070000 	svceq	0x00070000
     14c:	000001d2 	ldrdeq	r0, [r0], -r2
     150:	02450f08 	subeq	r0, r5, #8, 30
     154:	0f090000 	svceq	0x00090000
     158:	0000038a 	andeq	r0, r0, sl, lsl #7
     15c:	03920f0a 	orrseq	r0, r2, #10, 30	; 0x28
     160:	0f0b0000 	svceq	0x000b0000
     164:	0000039a 	muleq	r0, sl, r3
     168:	03a20f0c 			; <UNDEFINED> instruction: 0x03a20f0c
     16c:	0f0d0000 	svceq	0x000d0000
     170:	000003aa 	andeq	r0, r0, sl, lsr #7
     174:	03b20f0e 			; <UNDEFINED> instruction: 0x03b20f0e
     178:	0f0f0000 	svceq	0x000f0000
     17c:	0000000b 	andeq	r0, r0, fp
     180:	008b0f0d 	addeq	r0, fp, sp, lsl #30
     184:	0f0e0000 	svceq	0x000e0000
     188:	00000099 	muleq	r0, r9, r0
     18c:	070e000f 	streq	r0, [lr, -pc]
     190:	00006001 	andeq	r6, r0, r1
     194:	06200200 	strteq	r0, [r0], -r0, lsl #4
     198:	000001f7 	strdeq	r0, [r0], -r7
     19c:	00022e0f 	andeq	r2, r2, pc, lsl #28
     1a0:	550f0000 	strpl	r0, [pc, #-0]	; 1a8 <__code_start__-0x7e58>
     1a4:	01000004 	tsteq	r0, r4
     1a8:	00024c0f 	andeq	r4, r2, pc, lsl #24
     1ac:	120f0200 	andne	r0, pc, #0, 4
     1b0:	03000000 	movweq	r0, #0
     1b4:	0003690f 	andeq	r6, r3, pc, lsl #18
     1b8:	e20f0400 	and	r0, pc, #0, 8
     1bc:	05000001 	streq	r0, [r0, #-1]
     1c0:	0000920f 	andeq	r9, r0, pc, lsl #4
     1c4:	340f0600 	strcc	r0, [pc], #-1536	; 1cc <__code_start__-0x7e34>
     1c8:	07000000 	streq	r0, [r0, -r0]
     1cc:	0001110f 	andeq	r1, r1, pc, lsl #2
     1d0:	8a0f0800 	bhi	3c21d8 <__bss_end__+0x3b8100>
     1d4:	09000001 	stmdbeq	r0, {r0}
     1d8:	00003b0f 	andeq	r3, r0, pc, lsl #22
     1dc:	6f0f0a00 	svcvs	0x000f0a00
     1e0:	0b000001 	bleq	1ec <__code_start__-0x7e14>
     1e4:	00015a0f 	andeq	r5, r1, pc, lsl #20
     1e8:	050f0c00 	streq	r0, [pc, #-3072]	; fffff5f0 <__bss_end__+0xffff5518>
     1ec:	0d000001 	stceq	0, cr0, [r0, #-4]
     1f0:	0001680f 	andeq	r6, r1, pc, lsl #16
     1f4:	0e000e00 	cdpeq	14, 0, cr0, cr0, cr0, {0}
     1f8:	00600107 	rsbeq	r0, r0, r7, lsl #2
     1fc:	34020000 	strcc	r0, [r2], #-0
     200:	00026606 	andeq	r6, r2, r6, lsl #12
     204:	01250f00 			; <UNDEFINED> instruction: 0x01250f00
     208:	0f000000 	svceq	0x00000000
     20c:	0000005d 	andeq	r0, r0, sp, asr r0
     210:	00c90f01 	sbceq	r0, r9, r1, lsl #30
     214:	0f020000 	svceq	0x00020000
     218:	000000d4 	ldrdeq	r0, [r0], -r4
     21c:	00ad0f03 	adceq	r0, sp, r3, lsl #30
     220:	0f040000 	svceq	0x00040000
     224:	00000420 	andeq	r0, r0, r0, lsr #8
     228:	00420f05 	subeq	r0, r2, r5, lsl #30
     22c:	0f060000 	svceq	0x00060000
     230:	000001ee 	andeq	r0, r0, lr, ror #3
     234:	044a0f07 	strbeq	r0, [sl], #-3847	; 0xfffff0f9
     238:	0f080000 	svceq	0x00080000
     23c:	000000be 	strheq	r0, [r0], -lr
     240:	04390f09 	ldrteq	r0, [r9], #-3849	; 0xfffff0f7
     244:	0f0a0000 	svceq	0x000a0000
     248:	00000149 	andeq	r0, r0, r9, asr #2
     24c:	004d0f0b 	subeq	r0, sp, fp, lsl #30
     250:	0f0c0000 	svceq	0x000c0000
     254:	00000235 	andeq	r0, r0, r5, lsr r2
     258:	029b0f0d 	addseq	r0, fp, #13, 30	; 0x34
     25c:	0f0e0000 	svceq	0x000e0000
     260:	00000000 	andeq	r0, r0, r0
     264:	3005000f 	andcc	r0, r5, pc
     268:	01000001 	tsteq	r0, r1
     26c:	02721008 	rsbseq	r1, r2, #8, 0
     270:	04090000 	streq	r0, [r9], #-0
     274:	00000278 	andeq	r0, r0, r8, ror r2
     278:	6e631110 	mcrvs	1, 3, r1, cr3, cr0, {0}
     27c:	0b010074 	bleq	40454 <__bss_end__+0x3637c>
     280:	0000331a 	andeq	r3, r0, sl, lsl r3
     284:	d0030500 	andle	r0, r3, r0, lsl #10
     288:	1200009c 	andne	r0, r0, #156, 0	; 0x9c
     28c:	00000203 	andeq	r0, r0, r3, lsl #4
     290:	78065701 	stmdavc	r6, {r0, r8, r9, sl, ip, lr}
     294:	e8000083 	stmda	r0, {r0, r1, r7}
     298:	01000002 	tsteq	r0, r2
     29c:	0008b69c 	muleq	r8, ip, r6
     2a0:	01f91300 	mvnseq	r1, r0, lsl #6
     2a4:	58010000 	stmdapl	r1, {}	; <UNPREDICTABLE>
     2a8:	0008b60c 	andeq	fp, r8, ip, lsl #12
     2ac:	50910200 	addspl	r0, r1, r0, lsl #4
     2b0:	01006e14 	tsteq	r0, r4, lsl lr
     2b4:	002c0e65 	eoreq	r0, ip, r5, ror #28
     2b8:	15080000 	strne	r0, [r8, #-0]
     2bc:	00000118 	andeq	r0, r0, r8, lsl r1
     2c0:	000008d6 	ldrdeq	r0, [r0], -r6
     2c4:	99440305 	stmdbls	r4, {r0, r2, r8, r9}^
     2c8:	e9160000 	ldmdb	r6, {}	; <UNPREDICTABLE>
     2cc:	01000001 	tsteq	r0, r1
     2d0:	00ff0b87 	rscseq	r0, pc, r7, lsl #23
     2d4:	00040000 	andeq	r0, r4, r0
     2d8:	00000000 	andeq	r0, r0, r0
     2dc:	66170000 	ldrvs	r0, [r7], -r0
     2e0:	88010070 	stmdahi	r1, {r4, r5, r6}
     2e4:	0002720c 	andeq	r7, r2, ip, lsl #4
     2e8:	00002600 	andeq	r2, r0, r0, lsl #12
     2ec:	00002200 	andeq	r2, r0, r0, lsl #4
     2f0:	03761600 	cmneq	r6, #0, 12
     2f4:	8d010000 	stchi	0, cr0, [r1, #-0]
     2f8:	0002660c 	andeq	r6, r2, ip, lsl #12
     2fc:	00004600 	andeq	r4, r0, r0, lsl #12
     300:	00004400 	andeq	r4, r0, r0, lsl #8
     304:	01fe1600 	mvnseq	r1, r0, lsl #12
     308:	90010000 	andls	r0, r1, r0
     30c:	0002660c 	andeq	r6, r2, ip, lsl #12
     310:	00005b00 	andeq	r5, r0, r0, lsl #22
     314:	00005900 	andeq	r5, r0, r0, lsl #18
     318:	83981800 	orrshi	r1, r8, #0, 16
     31c:	00080000 	andeq	r0, r8, r0
     320:	03330000 	teqeq	r3, #0, 0
     324:	69140000 	ldmdbvs	r4, {}	; <UNPREDICTABLE>
     328:	6301006e 	movwvs	r0, #4206	; 0x106e
     32c:	00002c05 	andeq	r2, r0, r5, lsl #24
     330:	18000100 	stmdane	r0, {r8}
     334:	000083b0 			; <UNDEFINED> instruction: 0x000083b0
     338:	00000094 	muleq	r0, r4, r0
     33c:	000004e7 	andeq	r0, r0, r7, ror #9
     340:	00745f17 	rsbseq	r5, r4, r7, lsl pc
     344:	2c056e01 	stccs	14, cr6, [r5], {1}
     348:	72000000 	andvc	r0, r0, #0, 0
     34c:	6e000000 	cdpvs	0, 0, cr0, cr0, cr0, {0}
     350:	18000000 	stmdane	r0, {}	; <UNPREDICTABLE>
     354:	000083b0 			; <UNDEFINED> instruction: 0x000083b0
     358:	00000080 	andeq	r0, r0, r0, lsl #1
     35c:	000004c1 	andeq	r0, r0, r1, asr #9
     360:	00735f17 	rsbseq	r5, r3, r7, lsl pc
     364:	2c056e01 	stccs	14, cr6, [r5], {1}
     368:	97000000 	strls	r0, [r0, -r0]
     36c:	95000000 	strls	r0, [r0, #-0]
     370:	17000000 	strne	r0, [r0, -r0]
     374:	0100655f 	tsteq	r0, pc, asr r5
     378:	002c056e 	eoreq	r0, ip, lr, ror #10
     37c:	00ac0000 	adceq	r0, ip, r0
     380:	00aa0000 	adceq	r0, sl, r0
     384:	b0180000 	andslt	r0, r8, r0
     388:	04000083 	streq	r0, [r0], #-131	; 0xffffff7d
     38c:	a8000000 	stmdage	r0, {}	; <UNPREDICTABLE>
     390:	16000003 	strne	r0, [r0], -r3
     394:	00000058 	andeq	r0, r0, r8, asr r0
     398:	2c056e01 	stccs	14, cr6, [r5], {1}
     39c:	c1000000 	mrsgt	r0, (UNDEF: 0)
     3a0:	bf000000 	svclt	0x00000000
     3a4:	00000000 	andeq	r0, r0, r0
     3a8:	00842c18 	addeq	r2, r4, r8, lsl ip
     3ac:	00000400 	andeq	r0, r0, r0, lsl #8
     3b0:	0003ca00 	andeq	ip, r3, r0, lsl #20
     3b4:	00581600 	subseq	r1, r8, r0, lsl #12
     3b8:	6e010000 	cdpvs	0, 0, cr0, cr1, cr0, {0}
     3bc:	00002c05 	andeq	r2, r0, r5, lsl #24
     3c0:	0000d600 	andeq	sp, r0, r0, lsl #12
     3c4:	0000d400 	andeq	sp, r0, r0, lsl #8
     3c8:	c0190000 	andsgt	r0, r9, r0
     3cc:	9d000083 	stcls	0, cr0, [r0, #-524]	; 0xfffffdf4
     3d0:	e300000c 	movw	r0, #12
     3d4:	1a000003 	bne	3e8 <__code_start__-0x7c18>
     3d8:	91025001 	tstls	r2, r1
     3dc:	51011a48 	tstpl	r1, r8, asr #20
     3e0:	19003801 	stmdbne	r0, {r0, fp, ip, sp}
     3e4:	000083cc 	andeq	r8, r0, ip, asr #7
     3e8:	00000c9d 	muleq	r0, sp, ip
     3ec:	000003fc 	strdeq	r0, [r0], -ip
     3f0:	0250011a 	subseq	r0, r0, #-2147483642	; 0x80000006
     3f4:	011a4891 			; <UNDEFINED> instruction: 0x011a4891
     3f8:	00380151 	eorseq	r0, r8, r1, asr r1
     3fc:	0083d819 	addeq	sp, r3, r9, lsl r8
     400:	000c9d00 	andeq	r9, ip, r0, lsl #26
     404:	00041500 	andeq	r1, r4, r0, lsl #10
     408:	50011a00 	andpl	r1, r1, r0, lsl #20
     40c:	1a489102 	bne	122481c <__bss_end__+0x121a744>
     410:	38015101 	stmdacc	r1, {r0, r8, ip, lr}
     414:	83e41900 	mvnhi	r1, #0, 18
     418:	0c9d0000 	ldceq	0, cr0, [sp], {0}
     41c:	042e0000 	strteq	r0, [lr], #-0
     420:	011a0000 	tsteq	sl, r0
     424:	48910250 	ldmmi	r1, {r4, r6, r9}
     428:	0151011a 	cmpeq	r1, sl, lsl r1
     42c:	f0190038 			; <UNDEFINED> instruction: 0xf0190038
     430:	9d000083 	stcls	0, cr0, [r0, #-524]	; 0xfffffdf4
     434:	4700000c 	strmi	r0, [r0, -ip]
     438:	1a000004 	bne	450 <__code_start__-0x7bb0>
     43c:	91025001 	tstls	r2, r1
     440:	51011a48 	tstpl	r1, r8, asr #20
     444:	19003801 	stmdbne	r0, {r0, fp, ip, sp}
     448:	000083fc 	strdeq	r8, [r0], -ip
     44c:	00000c9d 	muleq	r0, sp, ip
     450:	00000460 	andeq	r0, r0, r0, ror #8
     454:	0250011a 	subseq	r0, r0, #-2147483642	; 0x80000006
     458:	011a4891 			; <UNDEFINED> instruction: 0x011a4891
     45c:	00380151 	eorseq	r0, r8, r1, asr r1
     460:	00840819 	addeq	r0, r4, r9, lsl r8
     464:	000c9d00 	andeq	r9, ip, r0, lsl #26
     468:	00047900 	andeq	r7, r4, r0, lsl #18
     46c:	50011a00 	andpl	r1, r1, r0, lsl #20
     470:	1a489102 	bne	1224880 <__bss_end__+0x121a7a8>
     474:	38015101 	stmdacc	r1, {r0, r8, ip, lr}
     478:	84141900 	ldrhi	r1, [r4], #-2304	; 0xfffff700
     47c:	0c9d0000 	ldceq	0, cr0, [sp], {0}
     480:	04920000 	ldreq	r0, [r2], #0
     484:	011a0000 	tsteq	sl, r0
     488:	48910250 	ldmmi	r1, {r4, r6, r9}
     48c:	0151011a 	cmpeq	r1, sl, lsl r1
     490:	20190038 	andscs	r0, r9, r8, lsr r0
     494:	9d000084 	stcls	0, cr0, [r0, #-528]	; 0xfffffdf0
     498:	ab00000c 	blge	4d0 <__code_start__-0x7b30>
     49c:	1a000004 	bne	4b4 <__code_start__-0x7b4c>
     4a0:	91025001 	tstls	r2, r1
     4a4:	51011a48 	tstpl	r1, r8, asr #20
     4a8:	1b003801 	blne	e4b4 <__bss_end__+0x43dc>
     4ac:	0000842c 	andeq	r8, r0, ip, lsr #8
     4b0:	00000c9d 	muleq	r0, sp, ip
     4b4:	0250011a 	subseq	r0, r0, #-2147483642	; 0x80000006
     4b8:	011a4891 			; <UNDEFINED> instruction: 0x011a4891
     4bc:	00380151 	eorseq	r0, r8, r1, asr r1
     4c0:	84441b00 	strbhi	r1, [r4], #-2816	; 0xfffff500
     4c4:	0ed70000 	cdpeq	0, 13, cr0, cr7, cr0, {0}
     4c8:	011a0000 	tsteq	sl, r0
     4cc:	1c030550 	cfstr32ne	mvfx0, [r3], {80}	; 0x50
     4d0:	1a000098 	bne	738 <__code_start__-0x78c8>
     4d4:	03055101 	movweq	r5, #20737	; 0x5101
     4d8:	00009800 	andeq	r9, r0, r0, lsl #16
     4dc:	0553011a 	ldrbeq	r0, [r3, #-282]	; 0xfffffee6
     4e0:	0097e403 	addseq	lr, r7, r3, lsl #8
     4e4:	18000000 	stmdane	r0, {}	; <UNPREDICTABLE>
     4e8:	00008490 	muleq	r0, r0, r4
     4ec:	00000044 	andeq	r0, r0, r4, asr #32
     4f0:	000005ff 	strdeq	r0, [r0], -pc	; <UNPREDICTABLE>
     4f4:	00745f17 	rsbseq	r5, r4, r7, lsl pc
     4f8:	2c058301 	stccs	3, cr8, [r5], {1}
     4fc:	ed000000 	stc	0, cr0, [r0, #-0]
     500:	e9000000 	stmdb	r0, {}	; <UNPREDICTABLE>
     504:	18000000 	stmdane	r0, {}	; <UNPREDICTABLE>
     508:	00008490 	muleq	r0, r0, r4
     50c:	00000030 	andeq	r0, r0, r0, lsr r0
     510:	000005d9 	ldrdeq	r0, [r0], -r9
     514:	00735f17 	rsbseq	r5, r3, r7, lsl pc
     518:	2c058301 	stccs	3, cr8, [r5], {1}
     51c:	12000000 	andne	r0, r0, #0, 0
     520:	10000001 	andne	r0, r0, r1
     524:	17000001 	strne	r0, [r0, -r1]
     528:	0100655f 	tsteq	r0, pc, asr r5
     52c:	002c0583 	eoreq	r0, ip, r3, lsl #11
     530:	01270000 			; <UNDEFINED> instruction: 0x01270000
     534:	01250000 			; <UNDEFINED> instruction: 0x01250000
     538:	90180000 	andsls	r0, r8, r0
     53c:	04000084 	streq	r0, [r0], #-132	; 0xffffff7c
     540:	5c000000 	stcpl	0, cr0, [r0], {-0}
     544:	16000005 	strne	r0, [r0], -r5
     548:	00000058 	andeq	r0, r0, r8, asr r0
     54c:	2c058301 	stccs	3, cr8, [r5], {1}
     550:	3c000000 	stccc	0, cr0, [r0], {-0}
     554:	3a000001 	bcc	560 <__code_start__-0x7aa0>
     558:	00000001 	andeq	r0, r0, r1
     55c:	0084bc18 	addeq	fp, r4, r8, lsl ip
     560:	00000400 	andeq	r0, r0, r0, lsl #8
     564:	00057e00 	andeq	r7, r5, r0, lsl #28
     568:	00581600 	subseq	r1, r8, r0, lsl #12
     56c:	83010000 	movwhi	r0, #4096	; 0x1000
     570:	00002c05 	andeq	r2, r0, r5, lsl #24
     574:	00015100 	andeq	r5, r1, r0, lsl #2
     578:	00014f00 	andeq	r4, r1, r0, lsl #30
     57c:	981c0000 	ldmdals	ip, {}	; <UNPREDICTABLE>
     580:	db000084 	blle	798 <__code_start__-0x7868>
     584:	1c000008 	stcne	0, cr0, [r0], {8}
     588:	0000849c 	muleq	r0, ip, r4
     58c:	000008db 	ldrdeq	r0, [r0], -fp
     590:	0084a01c 	addeq	sl, r4, ip, lsl r0
     594:	0008db00 	andeq	sp, r8, r0, lsl #22
     598:	84a41c00 	strthi	r1, [r4], #3072	; 0xc00
     59c:	08db0000 	ldmeq	fp, {}^	; <UNPREDICTABLE>
     5a0:	a81c0000 	ldmdage	ip, {}	; <UNPREDICTABLE>
     5a4:	db000084 	blle	7bc <__code_start__-0x7844>
     5a8:	1c000008 	stcne	0, cr0, [r0], {8}
     5ac:	000084ac 	andeq	r8, r0, ip, lsr #9
     5b0:	000008db 	ldrdeq	r0, [r0], -fp
     5b4:	0084b01c 	addeq	fp, r4, ip, lsl r0
     5b8:	0008db00 	andeq	sp, r8, r0, lsl #22
     5bc:	84b41c00 	ldrthi	r1, [r4], #3072	; 0xc00
     5c0:	08db0000 	ldmeq	fp, {}^	; <UNPREDICTABLE>
     5c4:	b81c0000 	ldmdalt	ip, {}	; <UNPREDICTABLE>
     5c8:	db000084 	blle	7e0 <__code_start__-0x7820>
     5cc:	1c000008 	stcne	0, cr0, [r0], {8}
     5d0:	000084bc 			; <UNDEFINED> instruction: 0x000084bc
     5d4:	000008db 	ldrdeq	r0, [r0], -fp
     5d8:	84d41b00 	ldrbhi	r1, [r4], #2816	; 0xb00
     5dc:	0ed70000 	cdpeq	0, 13, cr0, cr7, cr0, {0}
     5e0:	011a0000 	tsteq	sl, r0
     5e4:	1c030550 	cfstr32ne	mvfx0, [r3], {80}	; 0x50
     5e8:	1a000098 	bne	850 <__code_start__-0x77b0>
     5ec:	03055101 	movweq	r5, #20737	; 0x5101
     5f0:	00009894 	muleq	r0, r4, r8
     5f4:	0553011a 	ldrbeq	r0, [r3, #-282]	; 0xfffffee6
     5f8:	00987c03 	addseq	r7, r8, r3, lsl #24
     5fc:	18000000 	stmdane	r0, {}	; <UNPREDICTABLE>
     600:	00008530 	andeq	r8, r0, r0, lsr r5
     604:	00000044 	andeq	r0, r0, r4, asr #32
     608:	0000070d 	andeq	r0, r0, sp, lsl #14
     60c:	00745f17 	rsbseq	r5, r4, r7, lsl pc
     610:	2c058a01 			; <UNDEFINED> instruction: 0x2c058a01
     614:	68000000 	stmdavs	r0, {}	; <UNPREDICTABLE>
     618:	64000001 	strvs	r0, [r0], #-1
     61c:	18000001 	stmdane	r0, {r0}
     620:	00008530 	andeq	r8, r0, r0, lsr r5
     624:	00000030 	andeq	r0, r0, r0, lsr r0
     628:	000006e7 	andeq	r0, r0, r7, ror #13
     62c:	00735f17 	rsbseq	r5, r3, r7, lsl pc
     630:	2c058a01 			; <UNDEFINED> instruction: 0x2c058a01
     634:	8d000000 	stchi	0, cr0, [r0, #-0]
     638:	8b000001 	blhi	644 <__code_start__-0x79bc>
     63c:	17000001 	strne	r0, [r0, -r1]
     640:	0100655f 	tsteq	r0, pc, asr r5
     644:	002c058a 	eoreq	r0, ip, sl, lsl #11
     648:	01a20000 			; <UNDEFINED> instruction: 0x01a20000
     64c:	01a00000 	moveq	r0, r0
     650:	30180000 	andscc	r0, r8, r0
     654:	04000085 	streq	r0, [r0], #-133	; 0xffffff7b
     658:	74000000 	strvc	r0, [r0], #-0
     65c:	16000006 	strne	r0, [r0], -r6
     660:	00000058 	andeq	r0, r0, r8, asr r0
     664:	2c058a01 			; <UNDEFINED> instruction: 0x2c058a01
     668:	b7000000 	strlt	r0, [r0, -r0]
     66c:	b5000001 	strlt	r0, [r0, #-1]
     670:	00000001 	andeq	r0, r0, r1
     674:	00855c18 	addeq	r5, r5, r8, lsl ip
     678:	00000400 	andeq	r0, r0, r0, lsl #8
     67c:	00069600 	andeq	r9, r6, r0, lsl #12
     680:	00581600 	subseq	r1, r8, r0, lsl #12
     684:	8a010000 	bhi	4068c <__bss_end__+0x365b4>
     688:	00002c05 	andeq	r2, r0, r5, lsl #24
     68c:	0001cc00 	andeq	ip, r1, r0, lsl #24
     690:	0001ca00 	andeq	ip, r1, r0, lsl #20
     694:	381d0000 	ldmdacc	sp, {}	; <UNPREDICTABLE>
     698:	02000085 	andeq	r0, r0, #133, 0	; 0x85
     69c:	3c1d0074 	ldccc	0, cr0, [sp], {116}	; 0x74
     6a0:	02000085 	andeq	r0, r0, #133, 0	; 0x85
     6a4:	401d0074 	andsmi	r0, sp, r4, ror r0
     6a8:	02000085 	andeq	r0, r0, #133, 0	; 0x85
     6ac:	441d0074 	ldrmi	r0, [sp], #-116	; 0xffffff8c
     6b0:	02000085 	andeq	r0, r0, #133, 0	; 0x85
     6b4:	481d0074 	ldmdami	sp, {r2, r4, r5, r6}
     6b8:	02000085 	andeq	r0, r0, #133, 0	; 0x85
     6bc:	4c1d0074 	ldcmi	0, cr0, [sp], {116}	; 0x74
     6c0:	02000085 	andeq	r0, r0, #133, 0	; 0x85
     6c4:	501d0074 	andspl	r0, sp, r4, ror r0
     6c8:	02000085 	andeq	r0, r0, #133, 0	; 0x85
     6cc:	541d0074 	ldrpl	r0, [sp], #-116	; 0xffffff8c
     6d0:	02000085 	andeq	r0, r0, #133, 0	; 0x85
     6d4:	581d0074 	ldmdapl	sp, {r2, r4, r5, r6}
     6d8:	02000085 	andeq	r0, r0, #133, 0	; 0x85
     6dc:	5c1d0074 	ldcpl	0, cr0, [sp], {116}	; 0x74
     6e0:	02000085 	andeq	r0, r0, #133, 0	; 0x85
     6e4:	1b000074 	blne	8bc <__code_start__-0x7744>
     6e8:	00008574 	andeq	r8, r0, r4, ror r5
     6ec:	00000ed7 	ldrdeq	r0, [r0], -r7
     6f0:	0550011a 	ldrbeq	r0, [r0, #-282]	; 0xfffffee6
     6f4:	00981c03 	addseq	r1, r8, r3, lsl #24
     6f8:	51011a00 	tstpl	r1, r0, lsl #20
     6fc:	98bc0305 	ldmls	ip!, {r0, r2, r8, r9}
     700:	011a0000 	tsteq	sl, r0
     704:	b4030553 	strlt	r0, [r3], #-1363	; 0xfffffaad
     708:	00000098 	muleq	r0, r8, r0
     70c:	83a41c00 			; <UNDEFINED> instruction: 0x83a41c00
     710:	0ee30000 	cdpeq	0, 14, cr0, cr3, cr0, {0}
     714:	541c0000 	ldrpl	r0, [ip], #-0
     718:	ef000084 	svc	0x00000084
     71c:	1900000e 	stmdbne	r0, {r1, r2, r3}
     720:	00008480 	andeq	r8, r0, r0, lsl #9
     724:	00000ed7 	ldrdeq	r0, [r0], -r7
     728:	0000075f 	andeq	r0, r0, pc, asr r7
     72c:	0550011a 	ldrbeq	r0, [r0, #-282]	; 0xfffffee6
     730:	00983803 	addseq	r3, r8, r3, lsl #16
     734:	51011a00 	tstpl	r1, r0, lsl #20
     738:	97b00305 	ldrls	r0, [r0, r5, lsl #6]!
     73c:	011a0000 	tsteq	sl, r0
     740:	44030552 	strmi	r0, [r3], #-1362	; 0xfffffaae
     744:	1a000099 	bne	9b0 <__code_start__-0x7650>
     748:	08025301 	stmdaeq	r2, {r0, r8, r9, ip, lr}
     74c:	7d021a6f 	vstrvc	s2, [r2, #-444]	; 0xfffffe44
     750:	70030500 	andvc	r0, r3, r0, lsl #10
     754:	1a000098 	bne	9bc <__code_start__-0x7644>
     758:	02087d02 	andeq	r7, r8, #128	; 0x80
     75c:	1c005008 	stcne	0, cr5, [r0], {8}
     760:	00008484 	andeq	r8, r0, r4, lsl #9
     764:	00000efb 	strdeq	r0, [r0], -fp
     768:	0084e41c 	addeq	lr, r4, ip, lsl r4
     76c:	000eef00 	andeq	lr, lr, r0, lsl #30
     770:	85101900 	ldrhi	r1, [r0, #-2304]	; 0xfffff700
     774:	0ed70000 	cdpeq	0, 13, cr0, cr7, cr0, {0}
     778:	07b10000 	ldreq	r0, [r1, r0]!
     77c:	011a0000 	tsteq	sl, r0
     780:	38030550 	stmdacc	r3, {r4, r6, r8, sl}
     784:	1a000098 	bne	9ec <__code_start__-0x7614>
     788:	03055101 	movweq	r5, #20737	; 0x5101
     78c:	000097b0 			; <UNDEFINED> instruction: 0x000097b0
     790:	0552011a 	ldrbeq	r0, [r2, #-282]	; 0xfffffee6
     794:	00994403 	addseq	r4, r9, r3, lsl #8
     798:	53011a00 	movwpl	r1, #6656	; 0x1a00
     79c:	1a840802 	bne	fe1027ac <__bss_end__+0xfe0f86d4>
     7a0:	05007d02 	streq	r7, [r0, #-3330]	; 0xfffff2fe
     7a4:	00987003 	addseq	r7, r8, r3
     7a8:	7d021a00 	vstrvc	s2, [r2, #-0]
     7ac:	50080208 	andpl	r0, r8, r8, lsl #4
     7b0:	85141c00 	ldrhi	r1, [r4, #-3072]	; 0xfffff400
     7b4:	0efb0000 	cdpeq	0, 15, cr0, cr11, cr0, {0}
     7b8:	2c190000 	ldccs	0, cr0, [r9], {-0}
     7bc:	27000085 	strcs	r0, [r0, -r5, lsl #1]
     7c0:	d300000b 	movwle	r0, #11
     7c4:	1a000007 	bne	7e8 <__code_start__-0x7818>
     7c8:	91025001 	tstls	r2, r1
     7cc:	51011a48 	tstpl	r1, r8, asr #20
     7d0:	1c003801 	stcne	8, cr3, [r0], {1}
     7d4:	00008584 	andeq	r8, r0, r4, lsl #11
     7d8:	00000eef 	andeq	r0, r0, pc, ror #29
     7dc:	0085b019 	addeq	fp, r5, r9, lsl r0
     7e0:	000ed700 	andeq	sp, lr, r0, lsl #14
     7e4:	00081c00 	andeq	r1, r8, r0, lsl #24
     7e8:	50011a00 	andpl	r1, r1, r0, lsl #20
     7ec:	98380305 	ldmdals	r8!, {r0, r2, r8, r9}
     7f0:	011a0000 	tsteq	sl, r0
     7f4:	b0030551 	andlt	r0, r3, r1, asr r5
     7f8:	1a000097 	bne	a5c <__code_start__-0x75a4>
     7fc:	03055201 	movweq	r5, #20993	; 0x5201
     800:	00009944 	andeq	r9, r0, r4, asr #18
     804:	0253011a 	subseq	r0, r3, #-2147483642	; 0x80000006
     808:	021a8b08 	andseq	r8, sl, #8, 22	; 0x2000
     80c:	0305007d 	movweq	r0, #20605	; 0x507d
     810:	00009870 	andeq	r9, r0, r0, ror r8
     814:	087d021a 	ldmdaeq	sp!, {r1, r3, r4, r9}^
     818:	00500802 	subseq	r0, r0, r2, lsl #16
     81c:	0085b41c 	addeq	fp, r5, ip, lsl r4
     820:	000efb00 	andeq	pc, lr, r0, lsl #22
     824:	85d01900 	ldrbhi	r1, [r0, #2304]	; 0x900
     828:	093a0000 	ldmdbeq	sl!, {}	; <UNPREDICTABLE>
     82c:	08550000 	ldmdaeq	r5, {}^	; <UNPREDICTABLE>
     830:	011a0000 	tsteq	sl, r0
     834:	f8030550 			; <UNDEFINED> instruction: 0xf8030550
     838:	1a000080 	bne	a40 <__code_start__-0x75c0>
     83c:	74025101 	strvc	r5, [r2], #-257	; 0xfffffeff
     840:	52011a00 	andpl	r1, r1, #0, 20
     844:	011a3501 	tsteq	sl, r1, lsl #10
     848:	f40a0353 	vst2.16	{d0-d3}, [sl :64], r3
     84c:	7d021a01 	vstrvc	s2, [r2, #-4]
     850:	00740200 	rsbseq	r0, r4, r0, lsl #4
     854:	860c1900 	strhi	r1, [ip], -r0, lsl #18
     858:	093a0000 	ldmdbeq	sl!, {}	; <UNPREDICTABLE>
     85c:	08950000 	ldmeq	r5, {}	; <UNPREDICTABLE>
     860:	011a0000 	tsteq	sl, r0
     864:	1a370151 	bne	dc0db0 <__bss_end__+0xdb6cd8>
     868:	03055201 	movweq	r5, #20993	; 0x5201
     86c:	000098d8 	ldrdeq	r9, [r0], -r8
     870:	0153011a 	cmpeq	r3, sl, lsl r1
     874:	7d021a31 	vstrvc	s2, [r2, #-196]	; 0xffffff3c
     878:	1a320100 	bne	c80c80 <__bss_end__+0xc76ba8>
     87c:	02047d02 	andeq	r7, r4, #128	; 0x80
     880:	021a0074 	andseq	r0, sl, #116, 0	; 0x74
     884:	3401087d 	strcc	r0, [r1], #-2173	; 0xfffff783
     888:	0c7d021a 	lfmeq	f0, 2, [sp], #-104	; 0xffffff98
     88c:	021a3501 	andseq	r3, sl, #4194304	; 0x400000
     890:	3601107d 			; <UNDEFINED> instruction: 0x3601107d
     894:	86181900 	ldrhi	r1, [r8], -r0, lsl #18
     898:	0ed70000 	cdpeq	0, 13, cr0, cr7, cr0, {0}
     89c:	08ac0000 	stmiaeq	ip!, {}	; <UNPREDICTABLE>
     8a0:	011a0000 	tsteq	sl, r0
     8a4:	08030550 	stmdaeq	r3, {r4, r6, r8, sl}
     8a8:	00000099 	muleq	r0, r9, r0
     8ac:	00861c1c 	addeq	r1, r6, ip, lsl ip
     8b0:	000efb00 	andeq	pc, lr, r0, lsl #22
     8b4:	661e0000 	ldrvs	r0, [lr], -r0
     8b8:	c6000002 	strgt	r0, [r0], -r2
     8bc:	1f000008 	svcne	0x00000008
     8c0:	0000002c 	andeq	r0, r0, ip, lsr #32
     8c4:	c51e0007 	ldrgt	r0, [lr, #-7]
     8c8:	d6000000 	strle	r0, [r0], -r0
     8cc:	1f000008 	svcne	0x00000008
     8d0:	0000002c 	andeq	r0, r0, ip, lsr #32
     8d4:	c60a0007 	strgt	r0, [sl], -r7
     8d8:	20000008 	andcs	r0, r0, r8
     8dc:	000003de 	ldrdeq	r0, [r0], -lr
     8e0:	50064c01 	andpl	r4, r6, r1, lsl #24
     8e4:	28000083 	stmdacs	r0, {r0, r1, r7}
     8e8:	01000000 	mrseq	r0, (UNDEF: 0)
     8ec:	00093a9c 	muleq	r9, ip, sl
     8f0:	83581c00 	cmphi	r8, #0, 24
     8f4:	0de90000 	stcleq	0, cr0, [r9]
     8f8:	5c1c0000 	ldcpl	0, cr0, [ip], {-0}
     8fc:	d7000083 	strle	r0, [r0, -r3, lsl #1]
     900:	1c00000d 	stcne	0, cr0, [r0], {13}
     904:	00008360 	andeq	r8, r0, r0, ror #6
     908:	00000dc5 	andeq	r0, r0, r5, asr #27
     90c:	0083641c 	addeq	r6, r3, ip, lsl r4
     910:	000db300 	andeq	fp, sp, r0, lsl #6
     914:	83681c00 	cmnhi	r8, #0, 24
     918:	0da10000 	stceq	0, cr0, [r1]
     91c:	6c1c0000 	ldcvs	0, cr0, [ip], {-0}
     920:	8f000083 	svchi	0x00000083
     924:	1c00000d 	stcne	0, cr0, [r0], {13}
     928:	00008370 	andeq	r8, r0, r0, ror r3
     92c:	00000d7d 	andeq	r0, r0, sp, ror sp
     930:	0083741c 	addeq	r7, r3, ip, lsl r4
     934:	000d6b00 	andeq	r6, sp, r0, lsl #22
     938:	54210000 	strtpl	r0, [r1], #-0
     93c:	01000001 	tsteq	r0, r1
     940:	0266082e 	rsbeq	r0, r6, #3014656	; 0x2e0000
     944:	82100000 	andshi	r0, r0, #0, 0
     948:	01400000 	mrseq	r0, (UNDEF: 64)
     94c:	9c010000 	stcls	0, cr0, [r1], {-0}
     950:	00000afc 	strdeq	r0, [r0], -ip
     954:	0003c222 	andeq	ip, r3, r2, lsr #4
     958:	142e0100 	strtne	r0, [lr], #-256	; 0xffffff00
     95c:	000000ff 	strdeq	r0, [r0], -pc	; <UNPREDICTABLE>
     960:	000001e5 	andeq	r0, r0, r5, ror #3
     964:	000001df 	ldrdeq	r0, [r0], -pc	; <UNPREDICTABLE>
     968:	01006e23 	tsteq	r0, r3, lsr #28
     96c:	00251e2e 	eoreq	r1, r5, lr, lsr #28
     970:	91020000 	mrsls	r0, (UNDEF: 2)
     974:	e9162474 	ldmdb	r6, {r2, r4, r5, r6, sl, sp}
     978:	01000001 	tsteq	r0, r1
     97c:	0afc0f2f 	beq	fff04640 <__bss_end__+0xffefa568>
     980:	02150000 	andseq	r0, r5, #0, 0
     984:	02110000 	andseq	r0, r1, #0, 0
     988:	18150000 	ldmdane	r5, {}	; <UNPREDICTABLE>
     98c:	12000001 	andne	r0, r0, #1, 0
     990:	0500000b 	streq	r0, [r0, #-11]
     994:	00991c03 	addseq	r1, r9, r3, lsl #24
     998:	01371300 	teqeq	r7, r0, lsl #6
     99c:	32010000 	andcc	r0, r1, #0, 0
     9a0:	0001010d 	andeq	r0, r1, sp, lsl #2
     9a4:	5c910200 	lfmpl	f0, 4, [r1], {0}
     9a8:	636f6c17 	cmnvs	pc, #5888	; 0x1700
     9ac:	0e340100 	rsfeqs	f0, f4, f0
     9b0:	0000002c 	andeq	r0, r0, ip, lsr #32
     9b4:	00000243 	andeq	r0, r0, r3, asr #4
     9b8:	00000233 	andeq	r0, r0, r3, lsr r2
     9bc:	00020b13 	andeq	r0, r2, r3, lsl fp
     9c0:	0e360100 	rsfeqs	f0, f6, f0
     9c4:	00000b17 	andeq	r0, r0, r7, lsl fp
     9c8:	7fac9103 	svcvc	0x00ac9103
     9cc:	00823c18 	addeq	r3, r2, r8, lsl ip
     9d0:	00003000 	andeq	r3, r0, r0
     9d4:	0009ec00 	andeq	lr, r9, r0, lsl #24
     9d8:	00691700 	rsbeq	r1, r9, r0, lsl #14
     9dc:	250e3701 	strcs	r3, [lr, #-1793]	; 0xfffff8ff
     9e0:	af000000 	svcge	0x00000000
     9e4:	a9000002 	stmdbge	r0, {r1}
     9e8:	00000002 	andeq	r0, r0, r2
     9ec:	00001825 	andeq	r1, r0, r5, lsr #16
     9f0:	000a6300 	andeq	r6, sl, r0, lsl #6
     9f4:	00691700 	rsbeq	r1, r9, r0, lsl #14
     9f8:	250e3b01 	strcs	r3, [lr, #-2817]	; 0xfffff4ff
     9fc:	db000000 	blle	a04 <__code_start__-0x75fc>
     a00:	d9000002 	stmdble	r0, {r1}
     a04:	25000002 	strcs	r0, [r0, #-2]
     a08:	00000040 	andeq	r0, r0, r0, asr #32
     a0c:	00000a25 	andeq	r0, r0, r5, lsr #20
     a10:	00042b16 	andeq	r2, r4, r6, lsl fp
     a14:	11400100 	mrsne	r0, (UNDEF: 80)
     a18:	00000025 	andeq	r0, r0, r5, lsr #32
     a1c:	000002f2 	strdeq	r0, [r0], -r2
     a20:	000002ee 	andeq	r0, r0, lr, ror #5
     a24:	0ea12600 	cdpeq	6, 10, cr2, cr1, cr0, {0}
     a28:	82980000 	addshi	r0, r8, #0, 0
     a2c:	98010000 	stmdals	r1, {}	; <UNPREDICTABLE>
     a30:	08000082 	stmdaeq	r0, {r1, r7}
     a34:	01000000 	mrseq	r0, (UNDEF: 0)
     a38:	ca271b3d 	bgt	9c7734 <__bss_end__+0x9bd65c>
     a3c:	1900000e 	stmdbne	r0, {r1, r2, r3}
     a40:	17000003 	strne	r0, [r0, -r3]
     a44:	27000003 	strcs	r0, [r0, -r3]
     a48:	00000ebe 			; <UNDEFINED> instruction: 0x00000ebe
     a4c:	00000330 	andeq	r0, r0, r0, lsr r3
     a50:	0000032e 	andeq	r0, r0, lr, lsr #6
     a54:	000eb227 	andeq	fp, lr, r7, lsr #4
     a58:	00034600 	andeq	r4, r3, r0, lsl #12
     a5c:	00034400 	andeq	r4, r3, r0, lsl #8
     a60:	28000000 	stmdacs	r0, {}	; <UNPREDICTABLE>
     a64:	00000e37 	andeq	r0, r0, r7, lsr lr
     a68:	0000830c 	andeq	r8, r0, ip, lsl #6
     a6c:	00830c00 	addeq	r0, r3, r0, lsl #24
     a70:	00001400 	andeq	r1, r0, r0, lsl #8
     a74:	11470100 	mrsne	r0, (UNDEF: 87)
     a78:	00000aa4 	andeq	r0, r0, r4, lsr #21
     a7c:	000e5427 	andeq	r5, lr, r7, lsr #8
     a80:	00035b00 	andeq	r5, r3, r0, lsl #22
     a84:	00035900 	andeq	r5, r3, r0, lsl #18
     a88:	0e482700 	cdpeq	7, 4, cr2, cr8, cr0, {0}
     a8c:	03720000 	cmneq	r2, #0, 0
     a90:	036e0000 	cmneq	lr, #0, 0
     a94:	5f290000 	svcpl	0x00290000
     a98:	9d00000e 	stcls	0, cr0, [r0, #-56]	; 0xffffffc8
     a9c:	97000003 	strls	r0, [r0, -r3]
     aa0:	00000003 	andeq	r0, r0, r3
     aa4:	00822c19 	addeq	r2, r2, r9, lsl ip
     aa8:	000f0700 	andeq	r0, pc, r0, lsl #14
     aac:	000ab900 	andeq	fp, sl, r0, lsl #18
     ab0:	50011a00 	andpl	r1, r1, r0, lsl #20
     ab4:	04000a03 	streq	r0, [r0], #-2563	; 0xfffff5fd
     ab8:	82881900 	addhi	r1, r8, #0, 18
     abc:	0ed70000 	cdpeq	0, 13, cr0, cr7, cr0, {0}
     ac0:	0af20000 	beq	ffc80ac8 <__bss_end__+0xffc769f0>
     ac4:	011a0000 	tsteq	sl, r0
     ac8:	c0030550 	andgt	r0, r3, r0, asr r5
     acc:	1a000097 	bne	d30 <__code_start__-0x72d0>
     ad0:	03055101 	movweq	r5, #20737	; 0x5101
     ad4:	000097b0 			; <UNDEFINED> instruction: 0x000097b0
     ad8:	0552011a 	ldrbeq	r0, [r2, #-282]	; 0xfffffee6
     adc:	00991c03 	addseq	r1, r9, r3, lsl #24
     ae0:	53011a00 	movwpl	r1, #6656	; 0x1a00
     ae4:	1a300802 	bne	c02af4 <__bss_end__+0xbf8a1c>
     ae8:	05007d02 	streq	r7, [r0, #-3330]	; 0xfffff2fe
     aec:	0097dc03 	addseq	sp, r7, r3, lsl #24
     af0:	8c1c0000 	ldchi	0, cr0, [ip], {-0}
     af4:	fb000082 	blx	d06 <__code_start__-0x72fa>
     af8:	0000000e 	andeq	r0, r0, lr
     afc:	002c0409 	eoreq	r0, ip, r9, lsl #8
     b00:	c51e0000 	ldrgt	r0, [lr, #-0]
     b04:	12000000 	andne	r0, r0, #0, 0
     b08:	1f00000b 	svcne	0x0000000b
     b0c:	0000002c 	andeq	r0, r0, ip, lsr #32
     b10:	020a0005 	andeq	r0, sl, #5, 0
     b14:	1e00000b 	cdpne	0, 0, cr0, cr0, cr11, {0}
     b18:	0000002c 	andeq	r0, r0, ip, lsr #32
     b1c:	00000b27 	andeq	r0, r0, r7, lsr #22
     b20:	00002c1f 	andeq	r2, r0, pc, lsl ip
     b24:	21000b00 	tstcs	r0, r0, lsl #22
     b28:	0000037e 	andeq	r0, r0, lr, ror r3
     b2c:	ff072001 			; <UNDEFINED> instruction: 0xff072001
     b30:	40000000 	andmi	r0, r0, r0
     b34:	d0000081 	andle	r0, r0, r1, lsl #1
     b38:	01000000 	mrseq	r0, (UNDEF: 0)
     b3c:	000c7c9c 	muleq	ip, ip, ip
     b40:	01f92200 	mvnseq	r2, r0, lsl #4
     b44:	20010000 	andcs	r0, r1, r0
     b48:	000c7c1b 	andeq	r7, ip, fp, lsl ip
     b4c:	0003e900 	andeq	lr, r3, r0, lsl #18
     b50:	0003e300 	andeq	lr, r3, r0, lsl #6
     b54:	006e2a00 	rsbeq	r2, lr, r0, lsl #20
     b58:	2c2a2001 	stccs	0, cr2, [sl], #-4
     b5c:	1d000000 	stcne	0, cr0, [r0, #-0]
     b60:	15000004 	strne	r0, [r0, #-4]
     b64:	16000004 	strne	r0, [r0], -r4
     b68:	000001e9 	andeq	r0, r0, r9, ror #3
     b6c:	820f2101 	andhi	r2, pc, #1073741824	; 0x40000000
     b70:	5d00000c 	stcpl	0, cr0, [r0, #-48]	; 0xffffffd0
     b74:	59000004 	stmdbpl	r0, {r2}
     b78:	15000004 	strne	r0, [r0, #-4]
     b7c:	00000118 	andeq	r0, r0, r8, lsl r1
     b80:	00000c98 	muleq	r0, r8, ip
     b84:	99100305 	ldmdbls	r0, {r0, r2, r8, r9}
     b88:	00250000 	eoreq	r0, r5, r0
     b8c:	e3000000 	movw	r0, #0
     b90:	1700000b 	strne	r0, [r0, -fp]
     b94:	25010069 	strcs	r0, [r1, #-105]	; 0xffffff97
     b98:	0000250d 	andeq	r2, r0, sp, lsl #10
     b9c:	00047f00 	andeq	r7, r4, r0, lsl #30
     ba0:	00047b00 	andeq	r7, r4, r0, lsl #22
     ba4:	0e6c2600 	cdpeq	6, 6, cr2, cr12, cr0, {0}
     ba8:	81980000 	orrshi	r0, r8, r0
     bac:	98000000 	stmdals	r0, {}	; <UNPREDICTABLE>
     bb0:	14000081 	strne	r0, [r0], #-129	; 0xffffff7f
     bb4:	01000000 	mrseq	r0, (UNDEF: 0)
     bb8:	89271526 	stmdbhi	r7!, {r1, r2, r5, r8, sl, ip}
     bbc:	a200000e 	andge	r0, r0, #14, 0
     bc0:	9e000004 	cdpls	0, 0, cr0, cr0, cr4, {0}
     bc4:	27000004 	strcs	r0, [r0, -r4]
     bc8:	00000e7d 	andeq	r0, r0, sp, ror lr
     bcc:	000004c8 	andeq	r0, r0, r8, asr #9
     bd0:	000004c6 	andeq	r0, r0, r6, asr #9
     bd4:	000e9429 	andeq	r9, lr, r9, lsr #8
     bd8:	0004df00 	andeq	sp, r4, r0, lsl #30
     bdc:	0004db00 	andeq	sp, r4, r0, lsl #22
     be0:	28000000 	stmdacs	r0, {}	; <UNPREDICTABLE>
     be4:	00000e37 	andeq	r0, r0, r7, lsr lr
     be8:	000081d8 	ldrdeq	r8, [r0], -r8	; <UNPREDICTABLE>
     bec:	0081d800 	addeq	sp, r1, r0, lsl #16
     bf0:	00001400 	andeq	r1, r0, r0, lsl #8
     bf4:	11290100 			; <UNDEFINED> instruction: 0x11290100
     bf8:	00000c24 	andeq	r0, r0, r4, lsr #24
     bfc:	000e5427 	andeq	r5, lr, r7, lsr #8
     c00:	00051000 	andeq	r1, r5, r0
     c04:	00050c00 	andeq	r0, r5, r0, lsl #24
     c08:	0e482700 	cdpeq	7, 4, cr2, cr8, cr0, {0}
     c0c:	05360000 	ldreq	r0, [r6, #-0]!
     c10:	05340000 	ldreq	r0, [r4, #-0]!
     c14:	5f290000 	svcpl	0x00290000
     c18:	4d00000e 	stcmi	0, cr0, [r0, #-56]	; 0xffffffc8
     c1c:	49000005 	stmdbmi	r0, {r0, r2}
     c20:	00000005 	andeq	r0, r0, r5
     c24:	00815819 	addeq	r5, r1, r9, lsl r8
     c28:	000f0700 	andeq	r0, pc, r0, lsl #14
     c2c:	000c3900 	andeq	r3, ip, r0, lsl #18
     c30:	50011a00 	andpl	r1, r1, r0, lsl #20
     c34:	04000a03 	streq	r0, [r0], #-2563	; 0xfffff5fd
     c38:	81881900 	orrhi	r1, r8, r0, lsl #18
     c3c:	0ed70000 	cdpeq	0, 13, cr0, cr7, cr0, {0}
     c40:	0c720000 	ldcleq	0, cr0, [r2], #-0
     c44:	011a0000 	tsteq	sl, r0
     c48:	c0030550 	andgt	r0, r3, r0, asr r5
     c4c:	1a000097 	bne	eb0 <__code_start__-0x7150>
     c50:	03055101 	movweq	r5, #20737	; 0x5101
     c54:	000097b0 			; <UNDEFINED> instruction: 0x000097b0
     c58:	0552011a 	ldrbeq	r0, [r2, #-282]	; 0xfffffee6
     c5c:	00991003 	addseq	r1, r9, r3
     c60:	53011a00 	movwpl	r1, #6656	; 0x1a00
     c64:	1a230802 	bne	8c2c74 <__bss_end__+0x8b8b9c>
     c68:	05007d02 	streq	r7, [r0, #-3330]	; 0xfffff2fe
     c6c:	0097d403 	addseq	sp, r7, r3, lsl #8
     c70:	8c1c0000 	ldchi	0, cr0, [ip], {-0}
     c74:	fb000081 	blx	e82 <__code_start__-0x717e>
     c78:	0000000e 	andeq	r0, r0, lr
     c7c:	02660409 	rsbeq	r0, r6, #150994944	; 0x9000000
     c80:	04090000 	streq	r0, [r9], #-0
     c84:	0000006e 	andeq	r0, r0, lr, rrx
     c88:	0000c51e 	andeq	ip, r0, lr, lsl r5
     c8c:	000c9800 	andeq	r9, ip, r0, lsl #16
     c90:	002c1f00 	eoreq	r1, ip, r0, lsl #30
     c94:	000b0000 	andeq	r0, fp, r0
     c98:	000c880a 	andeq	r8, ip, sl, lsl #16
     c9c:	00191200 	andseq	r1, r9, r0, lsl #4
     ca0:	1b010000 	blne	40ca8 <__bss_end__+0x36bd0>
     ca4:	00811806 	addeq	r1, r1, r6, lsl #16
     ca8:	00002800 	andeq	r2, r0, r0, lsl #16
     cac:	f69c0100 			; <UNDEFINED> instruction: 0xf69c0100
     cb0:	2200000c 	andcs	r0, r0, #12, 0
     cb4:	000001f9 	strdeq	r0, [r0], -r9
     cb8:	7c1f1b01 			; <UNDEFINED> instruction: 0x7c1f1b01
     cbc:	7e00000c 	cdpvc	0, 0, cr0, cr0, cr12, {0}
     cc0:	7a000005 	bvc	cdc <__code_start__-0x7324>
     cc4:	2a000005 	bcs	ce0 <__code_start__-0x7320>
     cc8:	1b01006e 	blne	40e88 <__bss_end__+0x36db0>
     ccc:	00002c2e 	andeq	r2, r0, lr, lsr #24
     cd0:	0005a000 	andeq	sl, r5, r0
     cd4:	00059c00 	andeq	r9, r5, r0, lsl #24
     cd8:	81242b00 			; <UNDEFINED> instruction: 0x81242b00
     cdc:	001c0000 	andseq	r0, ip, r0
     ce0:	69170000 	ldmdbvs	r7, {}	; <UNPREDICTABLE>
     ce4:	121c0100 	andsne	r0, ip, #0
     ce8:	0000002c 	andeq	r0, r0, ip, lsr #32
     cec:	000005c2 	andeq	r0, r0, r2, asr #11
     cf0:	000005be 			; <UNDEFINED> instruction: 0x000005be
     cf4:	5c200000 	stcpl	0, cr0, [r0], #-0
     cf8:	01000004 	tsteq	r0, r4
     cfc:	80f80617 	rscshi	r0, r8, r7, lsl r6
     d00:	00200000 	eoreq	r0, r0, r0
     d04:	9c010000 	stcls	0, cr0, [r1], {-0}
     d08:	00000d6b 	andeq	r0, r0, fp, ror #26
     d0c:	0100612a 	tsteq	r0, sl, lsr #2
     d10:	002c1917 	eoreq	r1, ip, r7, lsl r9
     d14:	05e70000 	strbeq	r0, [r7, #0]!
     d18:	05e10000 	strbeq	r0, [r1, #0]!
     d1c:	622a0000 	eorvs	r0, sl, #0, 0
     d20:	25170100 	ldrcs	r0, [r7, #-256]	; 0xffffff00
     d24:	0000002c 	andeq	r0, r0, ip, lsr #32
     d28:	00000619 	andeq	r0, r0, r9, lsl r6
     d2c:	00000613 	andeq	r0, r0, r3, lsl r6
     d30:	0100632a 	tsteq	r0, sl, lsr #6
     d34:	002c3117 	eoreq	r3, ip, r7, lsl r1
     d38:	064b0000 	strbeq	r0, [fp], -r0
     d3c:	06450000 	strbeq	r0, [r5], -r0
     d40:	101b0000 	andsne	r0, fp, r0
     d44:	d7000081 	strle	r0, [r0, -r1, lsl #1]
     d48:	1a00000e 	bne	d88 <__code_start__-0x7278>
     d4c:	03055001 	movweq	r5, #20481	; 0x5001
     d50:	00009798 	muleq	r0, r8, r7
     d54:	0351011a 	cmpeq	r1, #-2147483642	; 0x80000006
     d58:	1a5001f3 	bne	140152c <__bss_end__+0x13f7454>
     d5c:	f3035201 	vhsub.u8	d5, d3, d1
     d60:	011a5101 	tsteq	sl, r1, lsl #2
     d64:	01f30353 	mvnseq	r0, r3, asr r3
     d68:	2c000052 	stccs	0, cr0, [r0], {82}	; 0x52
     d6c:	00000444 	andeq	r0, r0, r4, asr #8
     d70:	e0061501 	and	r1, r6, r1, lsl #10
     d74:	18000080 	stmdane	r0, {r7}
     d78:	01000000 	mrseq	r0, (UNDEF: 0)
     d7c:	00b82c9c 	umlalseq	r2, r8, ip, ip
     d80:	14010000 	strne	r0, [r1], #-0
     d84:	0080c806 	addeq	ip, r0, r6, lsl #16
     d88:	00001800 	andeq	r1, r0, r0, lsl #16
     d8c:	2c9c0100 	ldfcss	f0, [ip], {0}
     d90:	000000f7 	strdeq	r0, [r0], -r7
     d94:	b0061301 	andlt	r1, r6, r1, lsl #6
     d98:	18000080 	stmdane	r0, {r7}
     d9c:	01000000 	mrseq	r0, (UNDEF: 0)
     da0:	041a2c9c 	ldreq	r2, [sl], #-3228	; 0xfffff364
     da4:	12010000 	andne	r0, r1, #0, 0
     da8:	00809806 	addeq	r9, r0, r6, lsl #16
     dac:	00001800 	andeq	r1, r0, r0, lsl #16
     db0:	2c9c0100 	ldfcss	f0, [ip], {0}
     db4:	00000414 	andeq	r0, r0, r4, lsl r4
     db8:	80061101 	andhi	r1, r6, r1, lsl #2
     dbc:	18000080 	stmdane	r0, {r7}
     dc0:	01000000 	mrseq	r0, (UNDEF: 0)
     dc4:	040e2c9c 	streq	r2, [lr], #-3228	; 0xfffff364
     dc8:	10010000 	andne	r0, r1, r0
     dcc:	00806806 	addeq	r6, r0, r6, lsl #16
     dd0:	00001800 	andeq	r1, r0, r0, lsl #16
     dd4:	2c9c0100 	ldfcss	f0, [ip], {0}
     dd8:	00000408 	andeq	r0, r0, r8, lsl #8
     ddc:	50060f01 	andpl	r0, r6, r1, lsl #30
     de0:	18000080 	stmdane	r0, {r7}
     de4:	01000000 	mrseq	r0, (UNDEF: 0)
     de8:	04022c9c 	streq	r2, [r2], #-3228	; 0xfffff364
     dec:	0e010000 	cdpeq	0, 0, cr0, cr1, cr0, {0}
     df0:	00803806 	addeq	r3, r0, r6, lsl #16
     df4:	00001800 	andeq	r1, r0, r0, lsl #16
     df8:	2d9c0100 	ldfcss	f0, [ip]
     dfc:	000003ba 			; <UNDEFINED> instruction: 0x000003ba
     e00:	6e188202 	cdpvs	2, 1, cr8, cr8, cr2, {0}
     e04:	03000000 	movweq	r0, #0
     e08:	00000e19 	andeq	r0, r0, r9, lsl lr
     e0c:	6765722e 	strbvs	r7, [r5, -lr, lsr #4]!
     e10:	29820200 	stmibcs	r2, {r9}
     e14:	0000006e 	andeq	r0, r0, lr, rrx
     e18:	00742d00 	rsbseq	r2, r4, r0, lsl #26
     e1c:	7e020000 	cdpvc	0, 0, cr0, cr2, cr0, {0}
     e20:	00006e18 	andeq	r6, r0, r8, lsl lr
     e24:	0e370300 	cdpeq	3, 3, cr0, cr7, cr0, {0}
     e28:	722e0000 	eorvc	r0, lr, #0, 0
     e2c:	02006765 	andeq	r6, r0, #26476544	; 0x1940000
     e30:	006e2a7e 	rsbeq	r2, lr, lr, ror sl
     e34:	2d000000 	stccs	0, cr0, [r0, #-0]
     e38:	00000370 	andeq	r0, r0, r0, ror r3
     e3c:	6e187902 	vnmlsvs.f16	s14, s16, s4	; <UNPREDICTABLE>
     e40:	03000000 	movweq	r0, #0
     e44:	00000e6c 	andeq	r0, r0, ip, ror #28
     e48:	00010c2f 	andeq	r0, r1, pc, lsr #24
     e4c:	27790200 	ldrbcs	r0, [r9, -r0, lsl #4]!
     e50:	0000006e 	andeq	r0, r0, lr, rrx
     e54:	006f742e 	rsbeq	r7, pc, lr, lsr #8
     e58:	6e367902 	vaddvs.f16	s14, s12, s4	; <UNPREDICTABLE>
     e5c:	30000000 	andcc	r0, r0, r0
     e60:	00000184 	andeq	r0, r0, r4, lsl #3
     e64:	460d7a02 	strmi	r7, [sp], -r2, lsl #20
     e68:	00000000 	andeq	r0, r0, r0
     e6c:	0001612d 	andeq	r6, r1, sp, lsr #2
     e70:	18740200 	ldmdane	r4!, {r9}^
     e74:	0000006e 	andeq	r0, r0, lr, rrx
     e78:	000ea103 	andeq	sl, lr, r3, lsl #2
     e7c:	010c2f00 	tsteq	ip, r0, lsl #30
     e80:	74020000 	strvc	r0, [r2], #-0
     e84:	00006e28 	andeq	r6, r0, r8, lsr #28
     e88:	6f742e00 	svcvs	0x00742e00
     e8c:	37740200 	ldrbcc	r0, [r4, -r0, lsl #4]!
     e90:	0000006e 	andeq	r0, r0, lr, rrx
     e94:	00018430 	andeq	r8, r1, r0, lsr r4
     e98:	0d750200 	lfmeq	f0, 2, [r5, #-0]
     e9c:	00000046 	andeq	r0, r0, r6, asr #32
     ea0:	00fd2d00 	rscseq	r2, sp, r0, lsl #26
     ea4:	6a020000 	bvs	80eac <__bss_end__+0x76dd4>
     ea8:	00006e18 	andeq	r6, r0, r8, lsl lr
     eac:	0ed70300 	cdpeq	3, 13, cr0, cr7, cr0, {0}
     eb0:	642e0000 	strtvs	r0, [lr], #-0
     eb4:	02007473 	andeq	r7, r0, #1929379840	; 0x73000000
     eb8:	006e296a 	rsbeq	r2, lr, sl, ror #18
     ebc:	6c2e0000 	stcvs	0, cr0, [lr], #-0
     ec0:	0200636f 	andeq	r6, r0, #-1140850687	; 0xbc000001
     ec4:	006e376a 	rsbeq	r3, lr, sl, ror #14
     ec8:	272f0000 	strcs	r0, [pc, -r0]!
     ecc:	02000002 	andeq	r0, r0, #2, 0
     ed0:	006e456a 	rsbeq	r4, lr, sl, ror #10
     ed4:	31000000 	mrscc	r0, (UNDEF: 0)
     ed8:	00000469 	andeq	r0, r0, r9, ror #8
     edc:	00000469 	andeq	r0, r0, r9, ror #8
     ee0:	31062804 	tstcc	r6, r4, lsl #16
     ee4:	0000013c 	andeq	r0, r0, ip, lsr r1
     ee8:	0000013c 	andeq	r0, r0, ip, lsr r1
     eec:	3106a004 	tstcc	r6, r4
     ef0:	000003f3 	strdeq	r0, [r0], -r3
     ef4:	000003f3 	strdeq	r0, [r0], -r3
     ef8:	31061d04 	tstcc	r6, r4, lsl #26
     efc:	000000a0 	andeq	r0, r0, r0, lsr #1
     f00:	000000a0 	andeq	r0, r0, r0, lsr #1
     f04:	31066e04 	tstcc	r6, r4, lsl #28
     f08:	000003c7 	andeq	r0, r0, r7, asr #7
     f0c:	000003c7 	andeq	r0, r0, r7, asr #7
     f10:	00077b04 	andeq	r7, r7, r4, lsl #22
     f14:	0000019d 	muleq	r0, sp, r1
     f18:	02d40004 	sbcseq	r0, r4, #4, 0
     f1c:	01040000 	mrseq	r0, (UNDEF: 4)
     f20:	000002ad 	andeq	r0, r0, sp, lsr #5
     f24:	0004700c 	andeq	r7, r4, ip
     f28:	00048000 	andeq	r8, r4, r0
     f2c:	00866000 	addeq	r6, r6, r0
     f30:	00005800 	andeq	r5, r0, r0, lsl #16
     f34:	0006c700 	andeq	ip, r6, r0, lsl #14
     f38:	03cf0200 	biceq	r0, pc, #0, 4
     f3c:	28020000 	stmdacs	r2, {}	; <UNPREDICTABLE>
     f40:	0000311b 	andeq	r3, r0, fp, lsl r1
     f44:	00ed0300 	rsceq	r0, sp, r0, lsl #6
     f48:	04040000 	streq	r0, [r4], #-0
     f4c:	00004800 	andeq	r4, r0, r0, lsl #16
     f50:	02400400 	subeq	r0, r0, #0, 8
     f54:	00480000 	subeq	r0, r8, r0
     f58:	00000000 	andeq	r0, r0, r0
     f5c:	ef020405 	svc	0x00020405
     f60:	02000000 	andeq	r0, r0, #0, 0
     f64:	00251863 	eoreq	r1, r5, r3, ror #16
     f68:	04060000 	streq	r0, [r6], #-0
     f6c:	746e6905 	strbtvc	r6, [lr], #-2309	; 0xfffff6fb
     f70:	07040700 	streq	r0, [r4, -r0, lsl #14]
     f74:	000001c5 	andeq	r0, r0, r5, asr #3
     f78:	78060107 	stmdavc	r6, {r0, r1, r2, r8}
     f7c:	07000001 	streq	r0, [r0, -r1]
     f80:	002a0502 	eoreq	r0, sl, r2, lsl #10
     f84:	04070000 	streq	r0, [r7], #-0
     f88:	0000e405 	andeq	lr, r0, r5, lsl #8
     f8c:	05080700 	streq	r0, [r8, #-1792]	; 0xfffff900
     f90:	000000df 	ldrdeq	r0, [r0], -pc	; <UNPREDICTABLE>
     f94:	76080107 	strvc	r0, [r8], -r7, lsl #2
     f98:	07000001 	streq	r0, [r0, -r1]
     f9c:	02140702 	andseq	r0, r4, #524288	; 0x80000
     fa0:	04070000 	streq	r0, [r7], #-0
     fa4:	0001c007 	andeq	ip, r1, r7
     fa8:	07080700 	streq	r0, [r8, -r0, lsl #14]
     fac:	000001bb 			; <UNDEFINED> instruction: 0x000001bb
     fb0:	00005608 	andeq	r5, r0, r8, lsl #12
     fb4:	0000ab00 	andeq	sl, r0, r0, lsl #22
     fb8:	00560900 	subseq	r0, r6, r0, lsl #18
     fbc:	0a000000 	beq	fc4 <__code_start__-0x703c>
     fc0:	00000068 	andeq	r0, r0, r8, rrx
     fc4:	b70e1c03 	strlt	r1, [lr, -r3, lsl #24]
     fc8:	0b000000 	bleq	fd0 <__code_start__-0x7030>
     fcc:	00009c04 	andeq	r9, r0, r4, lsl #24
     fd0:	00560800 	subseq	r0, r6, r0, lsl #16
     fd4:	00cc0000 	sbceq	r0, ip, r0
     fd8:	cc090000 	stcgt	0, cr0, [r9], {-0}
     fdc:	00000000 	andeq	r0, r0, r0
     fe0:	00d9040b 	sbcseq	r0, r9, fp, lsl #8
     fe4:	01070000 	mrseq	r0, (UNDEF: 7)
     fe8:	00017f08 	andeq	r7, r1, r8, lsl #30
     fec:	00d20c00 	sbcseq	r0, r2, r0, lsl #24
     ff0:	e40a0000 	str	r0, [sl], #-0
     ff4:	03000004 	movweq	r0, #4
     ff8:	00ea0e21 	rsceq	r0, sl, r1, lsr #28
     ffc:	040b0000 	streq	r0, [fp], #-0
    1000:	000000bd 	strheq	r0, [r0], -sp
    1004:	0004690d 	andeq	r6, r4, sp, lsl #18
    1008:	05060100 	streq	r0, [r6, #-256]	; 0xffffff00
    100c:	00000056 	andeq	r0, r0, r6, asr r0
    1010:	00008660 	andeq	r8, r0, r0, ror #12
    1014:	00000058 	andeq	r0, r0, r8, asr r0
    1018:	01839c01 	orreq	r9, r3, r1, lsl #24
    101c:	660e0000 	strvs	r0, [lr], -r0
    1020:	0100746d 	tsteq	r0, sp, ror #8
    1024:	00cc1806 	sbceq	r1, ip, r6, lsl #16
    1028:	91020000 	mrsls	r0, (UNDEF: 2)
    102c:	62100f70 	andsvs	r0, r0, #112, 30	; 0x1c0
    1030:	01006675 	tsteq	r0, r5, ror r6
    1034:	01831108 	orreq	r1, r3, r8, lsl #2
    1038:	03050000 	movweq	r0, #20480	; 0x5000
    103c:	00009cd4 	ldrdeq	r9, [r0], -r4
    1040:	00013711 	andeq	r3, r1, r1, lsl r7
    1044:	0d090100 	stfeqs	f0, [r9, #-0]
    1048:	0000004a 	andeq	r0, r0, sl, asr #32
    104c:	125c9102 	subsne	r9, ip, #-2147483648	; 0x80000000
    1050:	01007a73 	tsteq	r0, r3, ror sl
    1054:	00560d0c 	subseq	r0, r6, ip, lsl #26
    1058:	067d0000 	ldrbteq	r0, [sp], -r0
    105c:	06770000 	ldrbteq	r0, [r7], -r0
    1060:	88130000 	ldmdahi	r3, {}	; <UNPREDICTABLE>
    1064:	94000086 	strls	r0, [r0], #-134	; 0xffffff7a
    1068:	76000001 	strvc	r0, [r0], -r1
    106c:	14000001 	strne	r0, [r0], #-1
    1070:	75025001 	strvc	r5, [r2, #-1]
    1074:	51011400 	tstpl	r1, r0, lsl #8
    1078:	04000a03 	streq	r0, [r0], #-2563	; 0xfffff5fd
    107c:	03520114 	cmpeq	r2, #5
    1080:	14064891 	strne	r4, [r6], #-2193	; 0xfffff76f
    1084:	91025301 	tstls	r2, r1, lsl #6
    1088:	9c15004c 	ldcls	0, cr0, [r5], {76}	; 0x4c
    108c:	14000086 	strne	r0, [r0], #-134	; 0xffffff7a
    1090:	75025001 	strvc	r5, [r2, #-1]
    1094:	16000000 	strne	r0, [r0], -r0
    1098:	000000d2 	ldrdeq	r0, [r0], -r2
    109c:	00000194 	muleq	r0, r4, r1
    10a0:	00005d17 	andeq	r5, r0, r7, lsl sp
    10a4:	0003ff00 	andeq	pc, r3, r0, lsl #30
    10a8:	00046618 	andeq	r6, r4, r8, lsl r6
    10ac:	00046600 	andeq	r6, r4, r0, lsl #12
    10b0:	05020500 	streq	r0, [r2, #-1280]	; 0xfffffb00
    10b4:	00014900 	andeq	r4, r1, r0, lsl #18
    10b8:	16000400 	strne	r0, [r0], -r0, lsl #8
    10bc:	04000004 	streq	r0, [r0], #-4
    10c0:	0002ad01 	andeq	sl, r2, r1, lsl #26
    10c4:	04c00c00 	strbeq	r0, [r0], #3072	; 0xc00
    10c8:	04800000 	streq	r0, [r0], #0
    10cc:	86b80000 	ldrthi	r0, [r8], r0
    10d0:	003c0000 	eorseq	r0, ip, r0
    10d4:	07db0000 	ldrbeq	r0, [fp, r0]
    10d8:	04020000 	streq	r0, [r2], #-0
    10dc:	746e6905 	strbtvc	r6, [lr], #-2309	; 0xfffff6fb
    10e0:	07040300 	streq	r0, [r4, -r0, lsl #6]
    10e4:	000001c5 	andeq	r0, r0, r5, asr #3
    10e8:	78060103 	stmdavc	r6, {r0, r1, r8}
    10ec:	03000001 	movweq	r0, #1
    10f0:	002a0502 	eoreq	r0, sl, r2, lsl #10
    10f4:	04030000 	streq	r0, [r3], #-0
    10f8:	0000e405 	andeq	lr, r0, r5, lsl #8
    10fc:	05080300 	streq	r0, [r8, #-768]	; 0xfffffd00
    1100:	000000df 	ldrdeq	r0, [r0], -pc	; <UNPREDICTABLE>
    1104:	76080103 	strvc	r0, [r8], -r3, lsl #2
    1108:	03000001 	movweq	r0, #1
    110c:	02140702 	andseq	r0, r4, #524288	; 0x80000
    1110:	04030000 	streq	r0, [r3], #-0
    1114:	0001c007 	andeq	ip, r1, r7
    1118:	07080300 	streq	r0, [r8, -r0, lsl #6]
    111c:	000001bb 			; <UNDEFINED> instruction: 0x000001bb
    1120:	00002504 	andeq	r2, r0, r4, lsl #10
    1124:	00007a00 	andeq	r7, r0, r0, lsl #20
    1128:	00250500 	eoreq	r0, r5, r0, lsl #10
    112c:	06000000 	streq	r0, [r0], -r0
    1130:	00000068 	andeq	r0, r0, r8, rrx
    1134:	860e1c02 	strhi	r1, [lr], -r2, lsl #24
    1138:	07000000 	streq	r0, [r0, -r0]
    113c:	00006b04 	andeq	r6, r0, r4, lsl #22
    1140:	00250400 	eoreq	r0, r5, r0, lsl #8
    1144:	009b0000 	addseq	r0, fp, r0
    1148:	9b050000 	blls	141150 <__bss_end__+0x137078>
    114c:	00000000 	andeq	r0, r0, r0
    1150:	00a80407 	adceq	r0, r8, r7, lsl #8
    1154:	01030000 	mrseq	r0, (UNDEF: 3)
    1158:	00017f08 	andeq	r7, r1, r8, lsl #30
    115c:	00a10800 	adceq	r0, r1, r0, lsl #16
    1160:	e4060000 	str	r0, [r6], #-0
    1164:	02000004 	andeq	r0, r0, #4, 0
    1168:	00b90e21 	adcseq	r0, r9, r1, lsr #28
    116c:	04070000 	streq	r0, [r7], #-0
    1170:	0000008c 	andeq	r0, r0, ip, lsl #1
    1174:	00007a09 	andeq	r7, r0, r9, lsl #20
    1178:	07060100 	streq	r0, [r6, -r0, lsl #2]
    117c:	9cbc0305 	ldcls	3, cr0, [ip], #20
    1180:	b30a0000 	movwlt	r0, #40960	; 0xa000
    1184:	01000004 	tsteq	r0, r4
    1188:	86e4060b 	strbthi	r0, [r4], fp, lsl #12
    118c:	00100000 	andseq	r0, r0, r0
    1190:	9c010000 	stcls	0, cr0, [r1], {-0}
    1194:	000000f1 	strdeq	r0, [r0], -r1
    1198:	0070660b 	rsbseq	r6, r0, fp, lsl #12
    119c:	86190b01 	ldrhi	r0, [r9], -r1, lsl #22
    11a0:	01000000 	mrseq	r0, (UNDEF: 0)
    11a4:	f30c0050 	vqadd.u8	q0, q6, q0
    11a8:	01000003 	tsteq	r0, r3
    11ac:	86cc0608 	strbhi	r0, [ip], r8, lsl #12
    11b0:	00180000 	andseq	r0, r8, r0
    11b4:	9c010000 	stcls	0, cr0, [r1], {-0}
    11b8:	0004a20d 	andeq	sl, r4, sp, lsl #4
    11bc:	0c030100 	stfeqs	f0, [r3], {-0}
    11c0:	00000025 	andeq	r0, r0, r5, lsr #32
    11c4:	000086b8 			; <UNDEFINED> instruction: 0x000086b8
    11c8:	00000014 	andeq	r0, r0, r4, lsl r0
    11cc:	01409c01 	cmpeq	r0, r1, lsl #24
    11d0:	630e0000 	movwvs	r0, #57344	; 0xe000
    11d4:	21030100 	mrscs	r0, (UNDEF: 19)
    11d8:	00000025 	andeq	r0, r0, r5, lsr #32
    11dc:	000006aa 	andeq	r0, r0, sl, lsr #13
    11e0:	000006a6 	andeq	r0, r0, r6, lsr #13
    11e4:	0086c40f 	addeq	ip, r6, pc, lsl #8
    11e8:	00014000 	andeq	r4, r1, r0
    11ec:	50011000 	andpl	r1, r1, r0
    11f0:	00007402 	andeq	r7, r0, r2, lsl #8
    11f4:	04d11100 	ldrbeq	r1, [r1], #256	; 0x100
    11f8:	04d10000 	ldrbeq	r0, [r1], #0
    11fc:	42020000 	andmi	r0, r2, #0, 0
    1200:	00f30006 	rscseq	r0, r3, r6
    1204:	00040000 	andeq	r0, r4, r0
    1208:	00000525 	andeq	r0, r0, r5, lsr #10
    120c:	02ad0104 	adceq	r0, sp, #1
    1210:	e90c0000 	stmdb	ip, {}	; <UNPREDICTABLE>
    1214:	80000004 	andhi	r0, r0, r4
    1218:	f4000004 	vst4.8	{d0-d3}, [r0], r4
    121c:	34000086 	strcc	r0, [r0], #-134	; 0xffffff7a
    1220:	77000000 	strvc	r0, [r0, -r0]
    1224:	02000008 	andeq	r0, r0, #8, 0
    1228:	6e690504 	cdpvs	5, 6, cr0, cr9, cr4, {0}
    122c:	04030074 	streq	r0, [r3], #-116	; 0xffffff8c
    1230:	0001c507 	andeq	ip, r1, r7, lsl #10
    1234:	06010300 	streq	r0, [r1], -r0, lsl #6
    1238:	00000178 	andeq	r0, r0, r8, ror r1
    123c:	2a050203 	bcs	141a50 <__bss_end__+0x137978>
    1240:	03000000 	movweq	r0, #0
    1244:	00e40504 	rsceq	r0, r4, r4, lsl #10
    1248:	08030000 	stmdaeq	r3, {}	; <UNPREDICTABLE>
    124c:	0000df05 	andeq	sp, r0, r5, lsl #30
    1250:	08010300 	stmdaeq	r1, {r8, r9}
    1254:	00000176 	andeq	r0, r0, r6, ror r1
    1258:	14070203 	strne	r0, [r7], #-515	; 0xfffffdfd
    125c:	03000002 	movweq	r0, #2
    1260:	01c00704 	biceq	r0, r0, r4, lsl #14
    1264:	08030000 	stmdaeq	r3, {}	; <UNPREDICTABLE>
    1268:	0001bb07 	andeq	fp, r1, r7, lsl #22
    126c:	00250400 	eoreq	r0, r5, r0, lsl #8
    1270:	007a0000 	rsbseq	r0, sl, r0
    1274:	25050000 	strcs	r0, [r5, #-0]
    1278:	00000000 	andeq	r0, r0, r0
    127c:	00006806 	andeq	r6, r0, r6, lsl #16
    1280:	0e1c0200 	cdpeq	2, 1, cr0, cr12, cr0, {0}
    1284:	00000086 	andeq	r0, r0, r6, lsl #1
    1288:	006b0407 	rsbeq	r0, fp, r7, lsl #8
    128c:	25040000 	strcs	r0, [r4, #-0]
    1290:	9b000000 	blls	1298 <__code_start__-0x6d68>
    1294:	05000000 	streq	r0, [r0, #-0]
    1298:	0000009b 	muleq	r0, fp, r0
    129c:	a8040700 	stmdage	r4, {r8, r9, sl}
    12a0:	03000000 	movweq	r0, #0
    12a4:	017f0801 	cmneq	pc, r1, lsl #16
    12a8:	a1080000 	mrsge	r0, (UNDEF: 8)
    12ac:	06000000 	streq	r0, [r0], -r0
    12b0:	000004e4 	andeq	r0, r0, r4, ror #9
    12b4:	b90e2102 	stmdblt	lr, {r1, r8, sp}
    12b8:	07000000 	streq	r0, [r0, -r0]
    12bc:	00008c04 	andeq	r8, r0, r4, lsl #24
    12c0:	00ad0900 	adceq	r0, sp, r0, lsl #18
    12c4:	0c010000 	stceq	0, cr0, [r1], {-0}
    12c8:	c0030507 	andgt	r0, r3, r7, lsl #10
    12cc:	0a00009c 	beq	1544 <__code_start__-0x6abc>
    12d0:	000004db 	ldrdeq	r0, [r0], -fp
    12d4:	25050401 	strcs	r0, [r5, #-1025]	; 0xfffffbff
    12d8:	f4000000 	vst4.8	{d0-d3}, [r0], r0
    12dc:	34000086 	strcc	r0, [r0], #-134	; 0xffffff7a
    12e0:	01000000 	mrseq	r0, (UNDEF: 0)
    12e4:	00700b9c 			; <UNDEFINED> instruction: 0x00700b9c
    12e8:	9b1f0401 	blls	7c22f4 <__bss_end__+0x7b821c>
    12ec:	cc000000 	stcgt	0, cr0, [r0], {-0}
    12f0:	c8000006 	stmdagt	r0, {r1, r2}
    12f4:	00000006 	andeq	r0, r0, r6
    12f8:	000ad700 	andeq	sp, sl, r0, lsl #14
    12fc:	c3000400 	movwgt	r0, #1024	; 0x400
    1300:	04000005 	streq	r0, [r0], #-5
    1304:	0002ad01 	andeq	sl, r2, r1, lsl #26
    1308:	05080c00 	streq	r0, [r8, #-3072]	; 0xfffff400
    130c:	04800000 	streq	r0, [r0], #0
    1310:	87280000 	strhi	r0, [r8, -r0]!
    1314:	07400000 	strbeq	r0, [r0, -r0]
    1318:	09200000 	stmdbeq	r0!, {}	; <UNPREDICTABLE>
    131c:	04020000 	streq	r0, [r2], #-0
    1320:	746e6905 	strbtvc	r6, [lr], #-2309	; 0xfffff6fb
    1324:	07040300 	streq	r0, [r4, -r0, lsl #6]
    1328:	000001c5 	andeq	r0, r0, r5, asr #3
    132c:	78060103 	stmdavc	r6, {r0, r1, r8}
    1330:	03000001 	movweq	r0, #1
    1334:	002a0502 	eoreq	r0, sl, r2, lsl #10
    1338:	04030000 	streq	r0, [r3], #-0
    133c:	0000e405 	andeq	lr, r0, r5, lsl #8
    1340:	05080300 	streq	r0, [r8, #-768]	; 0xfffffd00
    1344:	000000df 	ldrdeq	r0, [r0], -pc	; <UNPREDICTABLE>
    1348:	76080103 	strvc	r0, [r8], -r3, lsl #2
    134c:	03000001 	movweq	r0, #1
    1350:	02140702 	andseq	r0, r4, #524288	; 0x80000
    1354:	d9040000 	stmdble	r4, {}	; <UNPREDICTABLE>
    1358:	02000001 	andeq	r0, r0, #1, 0
    135c:	00691934 	rsbeq	r1, r9, r4, lsr r9
    1360:	04030000 	streq	r0, [r3], #-0
    1364:	0001c007 	andeq	ip, r1, r7
    1368:	04ff0400 	ldrbteq	r0, [pc], #1024	; 1370 <__code_start__-0x6c90>
    136c:	37020000 	strcc	r0, [r2, -r0]
    1370:	00007c19 	andeq	r7, r0, r9, lsl ip
    1374:	07080300 	streq	r0, [r8, -r0, lsl #6]
    1378:	000001bb 			; <UNDEFINED> instruction: 0x000001bb
    137c:	00002505 	andeq	r2, r0, r5, lsl #10
    1380:	00009200 	andeq	r9, r0, r0, lsl #4
    1384:	00250600 	eoreq	r0, r5, r0, lsl #12
    1388:	07000000 	streq	r0, [r0, -r0]
    138c:	00000068 	andeq	r0, r0, r8, rrx
    1390:	9e0e1c03 	cdpls	12, 0, cr1, cr14, cr3, {0}
    1394:	08000000 	stmdaeq	r0, {}	; <UNPREDICTABLE>
    1398:	00008304 	andeq	r8, r0, r4, lsl #6
    139c:	00250500 	eoreq	r0, r5, r0, lsl #10
    13a0:	00b30000 	adcseq	r0, r3, r0
    13a4:	b3060000 	movwlt	r0, #24576	; 0x6000
    13a8:	00000000 	andeq	r0, r0, r0
    13ac:	00c00408 	sbceq	r0, r0, r8, lsl #8
    13b0:	01030000 	mrseq	r0, (UNDEF: 3)
    13b4:	00017f08 	andeq	r7, r1, r8, lsl #30
    13b8:	00b90900 	adcseq	r0, r9, r0, lsl #18
    13bc:	e4070000 	str	r0, [r7], #-0
    13c0:	03000004 	movweq	r0, #4
    13c4:	00d10e21 	sbcseq	r0, r1, r1, lsr #28
    13c8:	04080000 	streq	r0, [r8], #-0
    13cc:	000000a4 	andeq	r0, r0, r4, lsr #1
    13d0:	00051b07 	andeq	r1, r5, r7, lsl #22
    13d4:	0d0b0400 	cfstrseq	mvf0, [fp, #-0]
    13d8:	000000b9 	strheq	r0, [r0], -r9
    13dc:	00059b07 	andeq	r9, r5, r7, lsl #22
    13e0:	0d0c0400 	cfstrseq	mvf0, [ip, #-0]
    13e4:	000000b9 	strheq	r0, [r0], -r9
    13e8:	00052a07 	andeq	r2, r5, r7, lsl #20
    13ec:	0d0d0400 	cfstrseq	mvf0, [sp, #-0]
    13f0:	000000b9 	strheq	r0, [r0], -r9
    13f4:	00055307 	andeq	r5, r5, r7, lsl #6
    13f8:	0d0e0400 	cfstrseq	mvf0, [lr, #-0]
    13fc:	000000b9 	strheq	r0, [r0], -r9
    1400:	0005c407 	andeq	ip, r5, r7, lsl #8
    1404:	0d0f0400 	cfstrseq	mvf0, [pc, #-0]	; 140c <__code_start__-0x6bf4>
    1408:	000000b9 	strheq	r0, [r0], -r9
    140c:	00053e07 	andeq	r3, r5, r7, lsl #28
    1410:	0d100400 	cfldrseq	mvf0, [r0, #-0]
    1414:	000000b9 	strheq	r0, [r0], -r9
    1418:	0005d307 	andeq	sp, r5, r7, lsl #6
    141c:	0d110400 	cfldrseq	mvf0, [r1, #-0]
    1420:	000000b9 	strheq	r0, [r0], -r9
    1424:	00055f07 	andeq	r5, r5, r7, lsl #30
    1428:	0d120400 	cfldrseq	mvf0, [r2, #-0]
    142c:	000000b9 	strheq	r0, [r0], -r9
    1430:	0003cf04 	andeq	ip, r3, r4, lsl #30
    1434:	1b280500 	blne	a0283c <__bss_end__+0x9f8764>
    1438:	00000143 	andeq	r0, r0, r3, asr #2
    143c:	0000ed0a 	andeq	lr, r0, sl, lsl #26
    1440:	00060400 	andeq	r0, r6, r0, lsl #8
    1444:	0000015a 	andeq	r0, r0, sl, asr r1
    1448:	0002400b 	andeq	r4, r2, fp
    144c:	00015a00 	andeq	r5, r1, r0, lsl #20
    1450:	0c000000 	stceq	0, cr0, [r0], {-0}
    1454:	00ef0404 	rsceq	r0, pc, r4, lsl #8
    1458:	63050000 	movwvs	r0, #20480	; 0x5000
    145c:	00013718 	andeq	r3, r1, r8, lsl r7
    1460:	04660d00 	strbteq	r0, [r6], #-3328	; 0xfffff300
    1464:	81010000 	mrshi	r0, (UNDEF: 1)
    1468:	00002505 	andeq	r2, r0, r5, lsl #10
    146c:	0089b000 	addeq	fp, r9, r0
    1470:	0004b800 	andeq	fp, r4, r0, lsl #16
    1474:	179c0100 	ldrne	r0, [ip, r0, lsl #2]
    1478:	0e000007 	cdpeq	0, 0, cr0, cr0, cr7, {0}
    147c:	00667562 	rsbeq	r7, r6, r2, ror #10
    1480:	17158101 	ldrne	r8, [r5, -r1, lsl #2]
    1484:	f0000007 			; <UNDEFINED> instruction: 0xf0000007
    1488:	ea000006 	b	14a8 <__code_start__-0x6b58>
    148c:	0e000006 	cdpeq	0, 0, cr0, cr0, cr6, {0}
    1490:	8101006e 	tsthi	r1, lr, rrx
    1494:	0000251e 	andeq	r2, r0, lr, lsl r5
    1498:	00072200 	andeq	r2, r7, r0, lsl #4
    149c:	00071c00 	andeq	r1, r7, r0, lsl #24
    14a0:	6d660e00 	stclvs	14, cr0, [r6, #-0]
    14a4:	81010074 	tsthi	r1, r4, ror r0
    14a8:	0000b32d 	andeq	fp, r0, sp, lsr #6
    14ac:	00075c00 	andeq	r5, r7, r0, lsl #24
    14b0:	00075000 	andeq	r5, r7, r0
    14b4:	01370f00 	teqeq	r7, r0, lsl #30
    14b8:	81010000 	mrshi	r0, (UNDEF: 1)
    14bc:	00015c3a 	andeq	r5, r1, sl, lsr ip
    14c0:	d4910300 	ldrle	r0, [r1], #768	; 0x300
    14c4:	0070107d 	rsbseq	r1, r0, sp, ror r0
    14c8:	17088201 	strne	r8, [r8, -r1, lsl #4]
    14cc:	ba000007 	blt	14f0 <__code_start__-0x6b10>
    14d0:	a6000007 	strge	r0, [r0], -r7
    14d4:	10000007 	andne	r0, r0, r7
    14d8:	82010065 	andhi	r0, r1, #101, 0	; 0x65
    14dc:	00071712 	andeq	r1, r7, r2, lsl r7
    14e0:	00083c00 	andeq	r3, r8, r0, lsl #24
    14e4:	00083800 	andeq	r3, r8, r0, lsl #16
    14e8:	30781000 	rsbscc	r1, r8, r0
    14ec:	0e830100 	rmfeqs	f0, f3, f0
    14f0:	0000005d 	andeq	r0, r0, sp, asr r0
    14f4:	00000869 	andeq	r0, r0, r9, ror #16
    14f8:	00000863 	andeq	r0, r0, r3, ror #16
    14fc:	00317810 	eorseq	r7, r1, r0, lsl r8
    1500:	5d118301 	ldcpl	3, cr8, [r1, #-4]
    1504:	96000000 	strls	r0, [r0], -r0
    1508:	92000008 	andls	r0, r0, #8, 0
    150c:	11000008 	tstne	r0, r8
    1510:	0000057d 	andeq	r0, r0, sp, ror r5
    1514:	b3118601 	tstlt	r1, #1048576	; 0x100000
    1518:	b8000000 	stmdalt	r0, {}	; <UNPREDICTABLE>
    151c:	b4000008 	strlt	r0, [r0], #-8
    1520:	12000008 	andne	r0, r0, #8, 0
    1524:	00000118 	andeq	r0, r0, r8, lsl r1
    1528:	0000072d 	andeq	r0, r0, sp, lsr #14
    152c:	9aa80305 	bls	fea02148 <__bss_end__+0xfe9f8070>
    1530:	18130000 	ldmdane	r3, {}	; <UNPREDICTABLE>
    1534:	0000008a 	andeq	r0, r0, sl, lsl #1
    1538:	10000004 	andne	r0, r0, r4
    153c:	91010073 	tstls	r1, r3, ror r0
    1540:	0007170a 	andeq	r1, r7, sl, lsl #14
    1544:	0008ee00 	andeq	lr, r8, r0, lsl #28
    1548:	0008d800 	andeq	sp, r8, r0, lsl #16
    154c:	756e1400 	strbvc	r1, [lr, #-1024]!	; 0xfffffc00
    1550:	9101006d 	tstls	r1, sp, rrx
    1554:	0007320d 	andeq	r3, r7, sp, lsl #4
    1558:	d8910300 	ldmle	r1, {r8, r9}
    155c:	05e0157d 	strbeq	r1, [r0, #1405]!	; 0x57d
    1560:	91010000 	mrsls	r0, (UNDEF: 1)
    1564:	00073217 	andeq	r3, r7, r7, lsl r2
    1568:	d8910300 	ldmle	r1, {r8, r9}
    156c:	0538117e 	ldreq	r1, [r8, #-382]!	; 0xfffffe82
    1570:	92010000 	andls	r0, r1, #0, 0
    1574:	00002c0d 	andeq	r2, r0, sp, lsl #24
    1578:	00097500 	andeq	r7, r9, r0, lsl #10
    157c:	00096f00 	andeq	r6, r9, r0, lsl #30
    1580:	8ae01600 	bhi	ff806d88 <__bss_end__+0xff7fccb0>
    1584:	01a40000 			; <UNDEFINED> instruction: 0x01a40000
    1588:	05390000 	ldreq	r0, [r9, #-0]!
    158c:	74100000 	ldrvc	r0, [r0], #-0
    1590:	9e010079 	mcrls	0, 0, r0, cr1, cr9, {3}
    1594:	0000b31d 	andeq	fp, r0, sp, lsl r3
    1598:	0009a900 	andeq	sl, r9, r0, lsl #18
    159c:	00099f00 	andeq	r9, r9, r0, lsl #30
    15a0:	78781700 	ldmdavc	r8!, {r8, r9, sl, ip}^
    15a4:	1aa20100 	bne	fe8819ac <__bss_end__+0xfe8778d4>
    15a8:	00000070 	andeq	r0, r0, r0, ror r0
    15ac:	008af018 	addeq	pc, sl, r8, lsl r0	; <UNPREDICTABLE>
    15b0:	000a9200 	andeq	r9, sl, r0, lsl #4
    15b4:	0002d500 	andeq	sp, r2, r0, lsl #10
    15b8:	50011900 	andpl	r1, r1, r0, lsl #18
    15bc:	19007602 	stmdbne	r0, {r1, r9, sl, ip, sp, lr}
    15c0:	03055101 	movweq	r5, #20737	; 0x5101
    15c4:	0000999c 	muleq	r0, ip, r9
    15c8:	01520119 	cmpeq	r2, r9, lsl r1
    15cc:	08180033 	ldmdaeq	r8, {r0, r1, r4, r5}
    15d0:	9200008b 	andls	r0, r0, #139, 0	; 0x8b
    15d4:	f700000a 			; <UNDEFINED> instruction: 0xf700000a
    15d8:	19000002 	stmdbne	r0, {r1}
    15dc:	76025001 	strvc	r5, [r2], -r1
    15e0:	51011900 	tstpl	r1, r0, lsl #18
    15e4:	99a00305 	stmibls	r0!, {r0, r2, r8, r9}
    15e8:	01190000 	tsteq	r9, r0
    15ec:	00330152 	eorseq	r0, r3, r2, asr r1
    15f0:	008b3c18 	addeq	r3, fp, r8, lsl ip
    15f4:	000a9e00 	andeq	r9, sl, r0, lsl #28
    15f8:	00031400 	andeq	r1, r3, r0, lsl #8
    15fc:	50011900 	andpl	r1, r1, r0, lsl #18
    1600:	99a40305 	stmibls	r4!, {r0, r2, r8, r9}
    1604:	01190000 	tsteq	r9, r0
    1608:	00770251 	rsbseq	r0, r7, r1, asr r2
    160c:	8b481800 	blhi	1207614 <__bss_end__+0x11fd53c>
    1610:	0a9e0000 	beq	fe781618 <__bss_end__+0xfe777540>
    1614:	03310000 	teqeq	r1, #0, 0
    1618:	01190000 	tsteq	r9, r0
    161c:	ac030550 	cfstr32ge	mvfx0, [r3], {80}	; 0x50
    1620:	19000099 	stmdbne	r0, {r0, r3, r4, r7}
    1624:	7a025101 	bvc	95a30 <__bss_end__+0x8b958>
    1628:	58180000 	ldmdapl	r8, {}	; <UNPREDICTABLE>
    162c:	9200008b 	andls	r0, r0, #139, 0	; 0x8b
    1630:	5300000a 	movwpl	r0, #10
    1634:	19000003 	stmdbne	r0, {r0, r1}
    1638:	76025001 	strvc	r5, [r2], -r1
    163c:	51011900 	tstpl	r1, r0, lsl #18
    1640:	999c0305 	ldmibls	ip, {r0, r2, r8, r9}
    1644:	01190000 	tsteq	r9, r0
    1648:	00330152 	eorseq	r0, r3, r2, asr r1
    164c:	008b7018 	addeq	r7, fp, r8, lsl r0
    1650:	000a9200 	andeq	r9, sl, r0, lsl #4
    1654:	00037500 	andeq	r7, r3, r0, lsl #10
    1658:	50011900 	andpl	r1, r1, r0, lsl #18
    165c:	19007602 	stmdbne	r0, {r1, r9, sl, ip, sp, lr}
    1660:	03055101 	movweq	r5, #20737	; 0x5101
    1664:	000099a0 	andeq	r9, r0, r0, lsr #19
    1668:	01520119 	cmpeq	r2, r9, lsl r1
    166c:	98180033 	ldmdals	r8, {r0, r1, r4, r5}
    1670:	4200008b 	andmi	r0, r0, #139, 0	; 0x8b
    1674:	a9000007 	stmdbge	r0, {r0, r1, r2}
    1678:	19000003 	stmdbne	r0, {r0, r1}
    167c:	3a015001 	bcc	55688 <__bss_end__+0x4b5b0>
    1680:	03510119 	cmpeq	r1, #1073741830	; 0x40000006
    1684:	197dd091 	ldmdbne	sp!, {r0, r4, r7, ip, lr, pc}^
    1688:	08025201 	stmdaeq	r2, {r0, r9, ip, lr}
    168c:	53011980 	movwpl	r1, #6528	; 0x1980
    1690:	19007702 	stmdbne	r0, {r1, r8, r9, sl, ip, sp, lr}
    1694:	02007d02 	andeq	r7, r0, #128	; 0x80
    1698:	02190075 	andseq	r0, r9, #117, 0	; 0x75
    169c:	7602047d 			; <UNDEFINED> instruction: 0x7602047d
    16a0:	b8180000 	ldmdalt	r8, {}	; <UNPREDICTABLE>
    16a4:	4200008b 	andmi	r0, r0, #139, 0	; 0x8b
    16a8:	dd000007 	stcle	0, cr0, [r0, #-28]	; 0xffffffe4
    16ac:	19000003 	stmdbne	r0, {r0, r1}
    16b0:	3a015001 	bcc	556bc <__bss_end__+0x4b5e4>
    16b4:	03510119 	cmpeq	r1, #1073741830	; 0x40000006
    16b8:	197ed091 	ldmdbne	lr!, {r0, r4, r7, ip, lr, pc}^
    16bc:	08025201 	stmdaeq	r2, {r0, r9, ip, lr}
    16c0:	53011980 	movwpl	r1, #6528	; 0x1980
    16c4:	19007a02 	stmdbne	r0, {r1, r9, fp, ip, sp, lr}
    16c8:	02007d02 	andeq	r7, r0, #128	; 0x80
    16cc:	02190075 	andseq	r0, r9, #117, 0	; 0x75
    16d0:	7602047d 			; <UNDEFINED> instruction: 0x7602047d
    16d4:	c4180000 	ldrgt	r0, [r8], #-0
    16d8:	aa00008b 	bge	190c <__code_start__-0x66f4>
    16dc:	fb00000a 	blx	170e <__code_start__-0x68f2>
    16e0:	19000003 	stmdbne	r0, {r0, r1}
    16e4:	91035001 	tstls	r3, r1
    16e8:	01197dd0 			; <UNDEFINED> instruction: 0x01197dd0
    16ec:	60030551 	andvs	r0, r3, r1, asr r5
    16f0:	00000099 	muleq	r0, r9, r0
    16f4:	008bd818 	addeq	sp, fp, r8, lsl r8
    16f8:	000ab600 	andeq	fp, sl, r0, lsl #12
    16fc:	00041700 	andeq	r1, r4, r0, lsl #14
    1700:	50011900 	andpl	r1, r1, r0, lsl #18
    1704:	7dd09103 	ldfvcp	f1, [r0, #12]
    1708:	03510119 	cmpeq	r1, #1073741830	; 0x40000006
    170c:	007ed091 			; <UNDEFINED> instruction: 0x007ed091
    1710:	008bfc18 	addeq	pc, fp, r8, lsl ip	; <UNPREDICTABLE>
    1714:	000a9e00 	andeq	r9, sl, r0, lsl #28
    1718:	00045000 	andeq	r5, r4, r0
    171c:	50011900 	andpl	r1, r1, r0, lsl #18
    1720:	97c00305 	strbls	r0, [r0, r5, lsl #6]
    1724:	01190000 	tsteq	r9, r0
    1728:	4c030551 	cfstr32mi	mvfx0, [r3], {81}	; 0x51
    172c:	19000099 	stmdbne	r0, {r0, r3, r4, r7}
    1730:	03055201 	movweq	r5, #20993	; 0x5201
    1734:	00009aa8 	andeq	r9, r0, r8, lsr #21
    1738:	02530119 	subseq	r0, r3, #1073741830	; 0x40000006
    173c:	02199f08 	andseq	r9, r9, #8, 30
    1740:	0305007d 	movweq	r0, #20605	; 0x507d
    1744:	000099b4 			; <UNDEFINED> instruction: 0x000099b4
    1748:	8c001a00 			; <UNDEFINED> instruction: 0x8c001a00
    174c:	0ac20000 	beq	ff081754 <__bss_end__+0xff07767c>
    1750:	20180000 	andscs	r0, r8, r0
    1754:	4200008c 	andmi	r0, r0, #140, 0	; 0x8c
    1758:	8d000007 	stchi	0, cr0, [r0, #-28]	; 0xffffffe4
    175c:	19000004 	stmdbne	r0, {r2}
    1760:	40015001 	andmi	r5, r1, r1
    1764:	03510119 	cmpeq	r1, #1073741830	; 0x40000006
    1768:	197dd091 	ldmdbne	sp!, {r0, r4, r7, ip, lr, pc}^
    176c:	08025201 	stmdaeq	r2, {r0, r9, ip, lr}
    1770:	53011980 	movwpl	r1, #6528	; 0x1980
    1774:	19007702 	stmdbne	r0, {r1, r8, r9, sl, ip, sp, lr}
    1778:	02007d02 	andeq	r7, r0, #128	; 0x80
    177c:	02190075 	andseq	r0, r9, #117, 0	; 0x75
    1780:	7602047d 			; <UNDEFINED> instruction: 0x7602047d
    1784:	40180000 	andsmi	r0, r8, r0
    1788:	4200008c 	andmi	r0, r0, #140, 0	; 0x8c
    178c:	c1000007 	tstgt	r0, r7
    1790:	19000004 	stmdbne	r0, {r2}
    1794:	40015001 	andmi	r5, r1, r1
    1798:	03510119 	cmpeq	r1, #1073741830	; 0x40000006
    179c:	197ed091 	ldmdbne	lr!, {r0, r4, r7, ip, lr, pc}^
    17a0:	08025201 	stmdaeq	r2, {r0, r9, ip, lr}
    17a4:	53011980 	movwpl	r1, #6528	; 0x1980
    17a8:	19007a02 	stmdbne	r0, {r1, r9, fp, ip, sp, lr}
    17ac:	02007d02 	andeq	r7, r0, #128	; 0x80
    17b0:	02190075 	andseq	r0, r9, #117, 0	; 0x75
    17b4:	7602047d 			; <UNDEFINED> instruction: 0x7602047d
    17b8:	4c180000 	ldcmi	0, cr0, [r8], {-0}
    17bc:	ce00008c 	cdpgt	0, 0, cr0, cr0, cr12, {4}
    17c0:	dd00000a 	stcle	0, cr0, [r0, #-40]	; 0xffffffd8
    17c4:	19000004 	stmdbne	r0, {r2}
    17c8:	91035001 	tstls	r3, r1
    17cc:	01197dd0 			; <UNDEFINED> instruction: 0x01197dd0
    17d0:	d2910351 	addsle	r0, r1, #1140850689	; 0x44000001
    17d4:	6018007e 	andsvs	r0, r8, lr, ror r0
    17d8:	ce00008c 	cdpgt	0, 0, cr0, cr0, cr12, {4}
    17dc:	f900000a 			; <UNDEFINED> instruction: 0xf900000a
    17e0:	19000004 	stmdbne	r0, {r2}
    17e4:	91035001 	tstls	r3, r1
    17e8:	01197dd0 			; <UNDEFINED> instruction: 0x01197dd0
    17ec:	d0910351 	addsle	r0, r1, r1, asr r3
    17f0:	8018007e 	andshi	r0, r8, lr, ror r0
    17f4:	9e00008c 	cdpls	0, 0, cr0, cr0, cr12, {4}
    17f8:	2f00000a 	svccs	0x0000000a
    17fc:	19000005 	stmdbne	r0, {r0, r2}
    1800:	03055001 	movweq	r5, #20481	; 0x5001
    1804:	000099f0 	strdeq	r9, [r0], -r0
    1808:	05510119 	ldrbeq	r0, [r1, #-281]	; 0xfffffee7
    180c:	00994c03 	addseq	r4, r9, r3, lsl #24
    1810:	52011900 	andpl	r1, r1, #0, 18
    1814:	9aa80305 	bls	fea02430 <__bss_end__+0xfe9f8358>
    1818:	01190000 	tsteq	r9, r0
    181c:	b6080253 			; <UNDEFINED> instruction: 0xb6080253
    1820:	007d0219 	rsbseq	r0, sp, r9, lsl r2
    1824:	00007602 	andeq	r7, r0, r2, lsl #12
    1828:	008c841a 	addeq	r8, ip, sl, lsl r4
    182c:	000ac200 	andeq	ip, sl, r0, lsl #4
    1830:	30180000 	andscc	r0, r8, r0
    1834:	c000008a 	andgt	r0, r0, sl, lsl #1
    1838:	4d000009 	stcmi	0, cr0, [r0, #-36]	; 0xffffffdc
    183c:	19000005 	stmdbne	r0, {r0, r2}
    1840:	77025001 	strvc	r5, [r2, -r1]
    1844:	dc180000 	ldcle	0, cr0, [r8], {-0}
    1848:	9e00008a 	cdpls	0, 0, cr0, cr0, cr10, {4}
    184c:	8600000a 	strhi	r0, [r0], -sl
    1850:	19000005 	stmdbne	r0, {r0, r2}
    1854:	03055001 	movweq	r5, #20481	; 0x5001
    1858:	000097c0 	andeq	r9, r0, r0, asr #15
    185c:	05510119 	ldrbeq	r0, [r1, #-281]	; 0xfffffee7
    1860:	00994c03 	addseq	r4, r9, r3, lsl #24
    1864:	52011900 	andpl	r1, r1, #0, 18
    1868:	9aa80305 	bls	fea02484 <__bss_end__+0xfe9f83ac>
    186c:	01190000 	tsteq	r9, r0
    1870:	98080253 	stmdals	r8, {r0, r1, r4, r6, r9}
    1874:	007d0219 	rsbseq	r0, sp, r9, lsl r2
    1878:	99900305 	ldmibls	r0, {r0, r2, r8, r9}
    187c:	1a000000 	bne	1884 <__code_start__-0x677c>
    1880:	00008ae0 	andeq	r8, r0, r0, ror #21
    1884:	00000ac2 	andeq	r0, r0, r2, asr #21
    1888:	008c9818 	addeq	r9, ip, r8, lsl r8
    188c:	000a9e00 	andeq	r9, sl, r0, lsl #28
    1890:	0005be00 	andeq	fp, r5, r0, lsl #28
    1894:	50011900 	andpl	r1, r1, r0, lsl #18
    1898:	9a180305 	bls	6024b4 <__bss_end__+0x5f83dc>
    189c:	01190000 	tsteq	r9, r0
    18a0:	4c030551 	cfstr32mi	mvfx0, [r3], {81}	; 0x51
    18a4:	19000099 	stmdbne	r0, {r0, r3, r4, r7}
    18a8:	03055201 	movweq	r5, #20993	; 0x5201
    18ac:	00009aa8 	andeq	r9, r0, r8, lsr #21
    18b0:	02530119 	subseq	r0, r3, #1073741830	; 0x40000006
    18b4:	1a00be08 	bne	310dc <__bss_end__+0x27004>
    18b8:	00008c9c 	muleq	r0, ip, ip
    18bc:	00000ac2 	andeq	r0, r0, r2, asr #21
    18c0:	008cc818 	addeq	ip, ip, r8, lsl r8
    18c4:	00074200 	andeq	r4, r7, r0, lsl #4
    18c8:	0005f400 	andeq	pc, r5, r0, lsl #8
    18cc:	50011900 	andpl	r1, r1, r0, lsl #18
    18d0:	01193a01 	tsteq	r9, r1, lsl #20
    18d4:	d0910351 	addsle	r0, r1, r1, asr r3
    18d8:	5201197d 	andpl	r1, r1, #2048000	; 0x1f4000
    18dc:	19800802 	stmibne	r0, {r1, fp}
    18e0:	02007d02 	andeq	r7, r0, #128	; 0x80
    18e4:	02190075 	andseq	r0, r9, #117, 0	; 0x75
    18e8:	3101047d 	tstcc	r1, sp, ror r4
    18ec:	8d001800 	stchi	8, cr1, [r0, #-0]
    18f0:	07420000 	strbeq	r0, [r2, -r0]
    18f4:	06210000 	strteq	r0, [r1], -r0
    18f8:	01190000 	tsteq	r9, r0
    18fc:	193a0150 	ldmdbne	sl!, {r4, r6, r8}
    1900:	91035101 	tstls	r3, r1, lsl #2
    1904:	01197dd0 			; <UNDEFINED> instruction: 0x01197dd0
    1908:	80080252 	andhi	r0, r8, r2, asr r2
    190c:	007d0219 	rsbseq	r0, sp, r9, lsl r2
    1910:	19007502 	stmdbne	r0, {r1, r8, sl, ip, sp, lr}
    1914:	01047d02 	tsteq	r4, r2, lsl #26
    1918:	34180030 	ldrcc	r0, [r8], #-48	; 0xffffffd0
    191c:	4200008d 	andmi	r0, r0, #141, 0	; 0x8d
    1920:	4e000007 	cdpmi	0, 0, cr0, cr0, cr7, {0}
    1924:	19000006 	stmdbne	r0, {r1, r2}
    1928:	40015001 	andmi	r5, r1, r1
    192c:	03510119 	cmpeq	r1, #1073741830	; 0x40000006
    1930:	197dd091 	ldmdbne	sp!, {r0, r4, r7, ip, lr, pc}^
    1934:	08025201 	stmdaeq	r2, {r0, r9, ip, lr}
    1938:	7d021980 	vstrvc.16	s2, [r2, #-256]	; 0xffffff00	; <UNPREDICTABLE>
    193c:	00750200 	rsbseq	r0, r5, r0, lsl #4
    1940:	047d0219 	ldrbteq	r0, [sp], #-537	; 0xfffffde7
    1944:	18003001 	stmdane	r0, {r0, ip, sp}
    1948:	00008d68 	andeq	r8, r0, r8, ror #26
    194c:	00000742 	andeq	r0, r0, r2, asr #14
    1950:	0000067b 	andeq	r0, r0, fp, ror r6
    1954:	01500119 	cmpeq	r0, r9, lsl r1
    1958:	51011932 	tstpl	r1, r2, lsr r9
    195c:	7dd09103 	ldfvcp	f1, [r0, #12]
    1960:	02520119 	subseq	r0, r2, #1073741830	; 0x40000006
    1964:	02198008 	andseq	r8, r9, #8, 0
    1968:	7502007d 	strvc	r0, [r2, #-125]	; 0xffffff83
    196c:	7d021900 	vstrvc.16	s2, [r2, #-0]	; <UNPREDICTABLE>
    1970:	00300104 	eorseq	r0, r0, r4, lsl #2
    1974:	008db018 	addeq	fp, sp, r8, lsl r0
    1978:	00074200 	andeq	r4, r7, r0, lsl #4
    197c:	0006a800 	andeq	sl, r6, r0, lsl #16
    1980:	50011900 	andpl	r1, r1, r0, lsl #18
    1984:	01193801 	tsteq	r9, r1, lsl #16
    1988:	d0910351 	addsle	r0, r1, r1, asr r3
    198c:	5201197d 	andpl	r1, r1, #2048000	; 0x1f4000
    1990:	19800802 	stmibne	r0, {r1, fp}
    1994:	02007d02 	andeq	r7, r0, #128	; 0x80
    1998:	02190075 	andseq	r0, r9, #117, 0	; 0x75
    199c:	3001047d 	andcc	r0, r1, sp, ror r4
    19a0:	8dd01800 	ldclhi	8, cr1, [r0]
    19a4:	0a9e0000 	beq	fe7819ac <__bss_end__+0xfe7778d4>
    19a8:	06cb0000 	strbeq	r0, [fp], r0
    19ac:	01190000 	tsteq	r9, r0
    19b0:	40030550 	andmi	r0, r3, r0, asr r5
    19b4:	1900009a 	stmdbne	r0, {r1, r3, r4, r7}
    19b8:	7a025101 	bvc	95dc4 <__bss_end__+0x8bcec>
    19bc:	52011900 	andpl	r1, r1, #0, 18
    19c0:	00007a02 	andeq	r7, r0, r2, lsl #20
    19c4:	008de01b 	addeq	lr, sp, fp, lsl r0
    19c8:	0006dd00 	andeq	sp, r6, r0, lsl #26
    19cc:	50011900 	andpl	r1, r1, r0, lsl #18
    19d0:	7dc89104 	stfvcp	f1, [r8, #16]
    19d4:	f4180006 			; <UNDEFINED> instruction: 0xf4180006
    19d8:	9e00008d 	cdpls	0, 0, cr0, cr0, cr13, {4}
    19dc:	0c00000a 	stceq	0, cr0, [r0], {10}
    19e0:	19000007 	stmdbne	r0, {r0, r1, r2}
    19e4:	03055001 	movweq	r5, #20481	; 0x5001
    19e8:	00009a70 	andeq	r9, r0, r0, ror sl
    19ec:	05510119 	ldrbeq	r0, [r1, #-281]	; 0xfffffee7
    19f0:	00994c03 	addseq	r4, r9, r3, lsl #24
    19f4:	52011900 	andpl	r1, r1, #0, 18
    19f8:	9aa80305 	bls	fea02614 <__bss_end__+0xfe9f853c>
    19fc:	01190000 	tsteq	r9, r0
    1a00:	e2080253 	and	r0, r8, #805306373	; 0x30000005
    1a04:	8df81a00 			; <UNDEFINED> instruction: 0x8df81a00
    1a08:	0ac20000 	beq	ff081a10 <__bss_end__+0xff077938>
    1a0c:	00000000 	andeq	r0, r0, r0
    1a10:	00b90408 	adcseq	r0, r9, r8, lsl #8
    1a14:	c01c0000 	andsgt	r0, ip, r0
    1a18:	2d000000 	stccs	0, cr0, [r0, #-0]
    1a1c:	1d000007 	stcne	0, cr0, [r0, #-28]	; 0xffffffe4
    1a20:	0000002c 	andeq	r0, r0, ip, lsr #32
    1a24:	1d090009 	stcne	0, cr0, [r9, #-36]	; 0xffffffdc
    1a28:	1c000007 	stcne	0, cr0, [r0], {7}
    1a2c:	000000b9 	strheq	r0, [r0], -r9
    1a30:	00000742 	andeq	r0, r0, r2, asr #14
    1a34:	00002c1d 	andeq	r2, r0, sp, lsl ip
    1a38:	1e007f00 	cdpne	15, 0, cr7, cr0, cr0, {0}
    1a3c:	000005a8 	andeq	r0, r0, r8, lsr #11
    1a40:	17014901 	strne	r4, [r1, -r1, lsl #18]
    1a44:	98000007 	stmdals	r0, {r0, r1, r2}
    1a48:	b4000087 	strlt	r0, [r0], #-135	; 0xffffff79
    1a4c:	01000001 	tsteq	r0, r1
    1a50:	0008ab9c 	muleq	r8, ip, fp
    1a54:	05ed1f00 	strbeq	r1, [sp, #3840]!	; 0xf00
    1a58:	49010000 	stmdbmi	r1, {}	; <UNPREDICTABLE>
    1a5c:	00002c0f 	andeq	r2, r0, pc, lsl #24
    1a60:	0009f200 	andeq	pc, r9, r0, lsl #4
    1a64:	0009ec00 	andeq	lr, r9, r0, lsl #24
    1a68:	73640e00 	cmnvc	r4, #0, 28
    1a6c:	49010074 	stmdbmi	r1, {r2, r4, r5, r6}
    1a70:	0007171b 	andeq	r1, r7, fp, lsl r7
    1a74:	000a3000 	andeq	r3, sl, r0
    1a78:	000a2000 	andeq	r2, sl, r0
    1a7c:	006e0e00 	rsbeq	r0, lr, r0, lsl #28
    1a80:	25244901 	strcs	r4, [r4, #-2305]!	; 0xfffff6ff
    1a84:	94000000 	strls	r0, [r0], #-0
    1a88:	9000000a 	andls	r0, r0, sl
    1a8c:	0e00000a 	cdpeq	0, 0, cr0, cr0, cr10, {0}
    1a90:	006c6176 	rsbeq	r6, ip, r6, ror r1
    1a94:	252b4901 	strcs	r4, [fp, #-2305]!	; 0xfffff6ff
    1a98:	be000000 	cdplt	0, 0, cr0, cr0, cr0, {0}
    1a9c:	b200000a 	andlt	r0, r0, #10, 0
    1aa0:	1f00000a 	svcne	0x0000000a
    1aa4:	00000538 	andeq	r0, r0, r8, lsr r5
    1aa8:	25344901 	ldrcs	r4, [r4, #-2305]!	; 0xfffff6ff
    1aac:	14000000 	strne	r0, [r0], #-0
    1ab0:	0e00000b 	cdpeq	0, 0, cr0, cr0, cr11, {0}
    1ab4:	0f00000b 	svceq	0x0000000b
    1ab8:	000005f2 	strdeq	r0, [r0], -r2
    1abc:	253f4901 	ldrcs	r4, [pc, #-2305]!	; 11c3 <__code_start__-0x6e3d>
    1ac0:	02000000 	andeq	r0, r0, #0, 0
    1ac4:	62140491 	andsvs	r0, r4, #-1862270976	; 0x91000000
    1ac8:	01006675 	tsteq	r0, r5, ror r6
    1acc:	08ab074e 	stmiaeq	fp!, {r1, r2, r3, r6, r8, r9, sl}
    1ad0:	91030000 	mrsls	r0, (UNDEF: 3)
    1ad4:	70107fa8 	andsvc	r7, r0, r8, lsr #31
    1ad8:	114e0100 	mrsne	r0, (UNDEF: 94)
    1adc:	00000717 	andeq	r0, r0, r7, lsl r7
    1ae0:	00000b5e 	andeq	r0, r0, lr, asr fp
    1ae4:	00000b3e 	andeq	r0, r0, lr, lsr fp
    1ae8:	01007510 	tsteq	r0, r0, lsl r5
    1aec:	002c0b4f 	eoreq	r0, ip, pc, asr #22
    1af0:	0c440000 	mareq	acc0, r0, r4
    1af4:	0c300000 	ldceq	0, cr0, [r0], #-0
    1af8:	18120000 	ldmdane	r2, {}	; <UNPREDICTABLE>
    1afc:	cb000001 	blgt	1b08 <__code_start__-0x64f8>
    1b00:	05000008 	streq	r0, [r0, #-8]
    1b04:	009a9003 	addseq	r9, sl, r3
    1b08:	88041600 	stmdahi	r4, {r9, sl, ip}
    1b0c:	00780000 	rsbseq	r0, r8, r0
    1b10:	08320000 	ldmdaeq	r2!, {}	; <UNPREDICTABLE>
    1b14:	95110000 	ldrls	r0, [r1, #-0]
    1b18:	01000005 	tsteq	r0, r5
    1b1c:	002c0d54 	eoreq	r0, ip, r4, asr sp
    1b20:	0cc50000 	stcleq	0, cr0, [r5], {0}
    1b24:	0cbd0000 	ldceq	0, cr0, [sp]
    1b28:	18000000 	stmdane	r0, {}	; <UNPREDICTABLE>
    1b2c:	000088bc 			; <UNDEFINED> instruction: 0x000088bc
    1b30:	0000095d 	andeq	r0, r0, sp, asr r9
    1b34:	00000847 	andeq	r0, r0, r7, asr #16
    1b38:	03510119 	cmpeq	r1, #1073741830	; 0x40000006
    1b3c:	007fa091 			; <UNDEFINED> instruction: 0x007fa091
    1b40:	0088d018 	addeq	sp, r8, r8, lsl r0
    1b44:	0008d000 	andeq	sp, r8, r0
    1b48:	00086800 	andeq	r6, r8, r0, lsl #16
    1b4c:	50011900 	andpl	r1, r1, r0, lsl #18
    1b50:	19007502 	stmdbne	r0, {r1, r8, sl, ip, sp, lr}
    1b54:	74025101 	strvc	r5, [r2], #-257	; 0xfffffeff
    1b58:	53011900 	movwpl	r1, #6400	; 0x1900
    1b5c:	7fa09103 	svcvc	0x00a09103
    1b60:	89281800 	stmdbhi	r8!, {fp, ip}
    1b64:	0a9e0000 	beq	fe781b6c <__bss_end__+0xfe777a94>
    1b68:	08a10000 	stmiaeq	r1!, {}	; <UNPREDICTABLE>
    1b6c:	01190000 	tsteq	r9, r0
    1b70:	c0030550 	andgt	r0, r3, r0, asr r5
    1b74:	19000097 	stmdbne	r0, {r0, r1, r2, r4, r7}
    1b78:	03055101 	movweq	r5, #20737	; 0x5101
    1b7c:	0000994c 	andeq	r9, r0, ip, asr #18
    1b80:	05520119 	ldrbeq	r0, [r2, #-281]	; 0xfffffee7
    1b84:	009a9003 	addseq	r9, sl, r3
    1b88:	53011900 	movwpl	r1, #6400	; 0x1900
    1b8c:	19790802 	ldmdbne	r9!, {r1, fp}^
    1b90:	05007d02 	streq	r7, [r0, #-3330]	; 0xfffff2fe
    1b94:	00996003 	addseq	r6, r9, r3
    1b98:	2c1a0000 	ldccs	0, cr0, [sl], {-0}
    1b9c:	c2000089 	andgt	r0, r0, #137, 0	; 0x89
    1ba0:	0000000a 	andeq	r0, r0, sl
    1ba4:	0000b91c 	andeq	fp, r0, ip, lsl r9
    1ba8:	0008bb00 	andeq	fp, r8, r0, lsl #22
    1bac:	002c1d00 	eoreq	r1, ip, r0, lsl #26
    1bb0:	003f0000 	eorseq	r0, pc, r0
    1bb4:	0000c01c 	andeq	ip, r0, ip, lsl r0
    1bb8:	0008cb00 	andeq	ip, r8, r0, lsl #22
    1bbc:	002c1d00 	eoreq	r1, ip, r0, lsl #26
    1bc0:	00040000 	andeq	r0, r4, r0
    1bc4:	0008bb09 	andeq	fp, r8, r9, lsl #22
    1bc8:	05b51e00 	ldreq	r1, [r5, #3584]!	; 0xe00
    1bcc:	38010000 	stmdacc	r1, {}	; <UNPREDICTABLE>
    1bd0:	0007170e 	andeq	r1, r7, lr, lsl #14
    1bd4:	00876000 	addeq	r6, r7, r0
    1bd8:	00003800 	andeq	r3, r0, r0, lsl #16
    1bdc:	5d9c0100 	ldfpls	f0, [ip]
    1be0:	0e000009 	cdpeq	0, 0, cr0, cr0, cr9, {0}
    1be4:	00747364 	rsbseq	r7, r4, r4, ror #6
    1be8:	171c3801 	ldrne	r3, [ip, -r1, lsl #16]
    1bec:	06000007 	streq	r0, [r0], -r7
    1bf0:	fc00000d 	stc2	0, cr0, [r0], {13}
    1bf4:	0e00000c 	cdpeq	0, 0, cr0, cr0, cr12, {0}
    1bf8:	3801006e 	stmdacc	r1, {r1, r2, r3, r5, r6}
    1bfc:	00002525 	andeq	r2, r0, r5, lsr #10
    1c00:	000d4d00 	andeq	r4, sp, r0, lsl #26
    1c04:	000d4900 	andeq	r4, sp, r0, lsl #18
    1c08:	00700e00 	rsbseq	r0, r0, r0, lsl #28
    1c0c:	172e3801 	strne	r3, [lr, -r1, lsl #16]!
    1c10:	76000007 	strvc	r0, [r0], -r7
    1c14:	6e00000d 	cdpvs	0, 0, cr0, cr0, cr13, {0}
    1c18:	1f00000d 	svcne	0x0000000d
    1c1c:	000009a3 	andeq	r0, r0, r3, lsr #19
    1c20:	17373801 	ldrne	r3, [r7, -r1, lsl #16]!
    1c24:	b0000007 	andlt	r0, r0, r7
    1c28:	ac00000d 	stcge	0, cr0, [r0], {13}
    1c2c:	1000000d 	andne	r0, r0, sp
    1c30:	006e656c 	rsbeq	r6, lr, ip, ror #10
    1c34:	25063a01 	strcs	r3, [r6, #-2561]	; 0xfffff5ff
    1c38:	d6000000 	strle	r0, [r0], -r0
    1c3c:	ce00000d 	cdpgt	0, 0, cr0, cr0, cr13, {0}
    1c40:	1000000d 	andne	r0, r0, sp
    1c44:	3e010073 	mcrcc	0, 0, r0, cr1, cr3, {3}
    1c48:	00071708 	andeq	r1, r7, r8, lsl #14
    1c4c:	000e2400 	andeq	r2, lr, r0, lsl #8
    1c50:	000e2200 	andeq	r2, lr, r0, lsl #4
    1c54:	70200000 	eorvc	r0, r0, r0
    1c58:	01006461 	tsteq	r0, r1, ror #8
    1c5c:	07170e2e 	ldreq	r0, [r7, -lr, lsr #28]
    1c60:	873c0000 	ldrhi	r0, [ip, -r0]!
    1c64:	00240000 	eoreq	r0, r4, r0
    1c68:	9c010000 	stcls	0, cr0, [r1], {-0}
    1c6c:	000009c0 	andeq	r0, r0, r0, asr #19
    1c70:	0100700e 	tsteq	r0, lr
    1c74:	0717182e 	ldreq	r1, [r7, -lr, lsr #16]
    1c78:	0e3d0000 	cdpeq	0, 3, cr0, cr13, cr0, {0}
    1c7c:	0e370000 	cdpeq	0, 3, cr0, cr7, cr0, {0}
    1c80:	ed1f0000 	ldc	0, cr0, [pc, #-0]	; 1c88 <__code_start__-0x6378>
    1c84:	01000005 	tsteq	r0, r5
    1c88:	0717222e 	ldreq	r2, [r7, -lr, lsr #4]
    1c8c:	0e6c0000 	cdpeq	0, 6, cr0, cr12, cr0, {0}
    1c90:	0e680000 	cdpeq	0, 6, cr0, cr8, cr0, {0}
    1c94:	380f0000 	stmdacc	pc, {}	; <UNPREDICTABLE>
    1c98:	01000005 	tsteq	r0, r5
    1c9c:	00252c2e 	eoreq	r2, r5, lr, lsr #24
    1ca0:	52010000 	andpl	r0, r1, #0, 0
    1ca4:	6e656c10 	mcrvs	12, 3, r6, cr5, cr0, {0}
    1ca8:	062f0100 	strteq	r0, [pc], -r0, lsl #2
    1cac:	00000025 	andeq	r0, r0, r5, lsr #32
    1cb0:	00000e8f 	andeq	r0, r0, pc, lsl #29
    1cb4:	00000e8d 	andeq	r0, r0, sp, lsl #29
    1cb8:	04f71e00 	ldrbteq	r1, [r7], #3584	; 0xe00
    1cbc:	27010000 	strcs	r0, [r1, -r0]
    1cc0:	0000250c 	andeq	r2, r0, ip, lsl #10
    1cc4:	00872800 	addeq	r2, r7, r0, lsl #16
    1cc8:	00001400 	andeq	r1, r0, r0, lsl #8
    1ccc:	ed9c0100 	ldfs	f0, [ip]
    1cd0:	0e000009 	cdpeq	0, 0, cr0, cr0, cr9, {0}
    1cd4:	27010063 	strcs	r0, [r1, -r3, rrx]
    1cd8:	00002518 	andeq	r2, r0, r8, lsl r5
    1cdc:	000ea800 	andeq	sl, lr, r0, lsl #16
    1ce0:	000ea200 	andeq	sl, lr, r0, lsl #4
    1ce4:	6e210000 	cdpvs	0, 2, cr0, cr1, cr0, {0}
    1ce8:	01000005 	tsteq	r0, r5
    1cec:	894c061f 	stmdbhi	ip, {r0, r1, r2, r3, r4, r9, sl}^
    1cf0:	00640000 	rsbeq	r0, r4, r0
    1cf4:	9c010000 	stcls	0, cr0, [r1], {-0}
    1cf8:	00000a7d 	andeq	r0, r0, sp, ror sl
    1cfc:	00054b1f 	andeq	r4, r5, pc, lsl fp
    1d00:	1b1f0100 	blne	7c2108 <__bss_end__+0x7b8030>
    1d04:	0000009e 	muleq	r0, lr, r0
    1d08:	00000eda 	ldrdeq	r0, [r0], -sl
    1d0c:	00000ed6 	ldrdeq	r0, [r0], -r6
    1d10:	0005ad1f 	andeq	sl, r5, pc, lsl sp
    1d14:	301f0100 	andscc	r0, pc, r0, lsl #2
    1d18:	000000d1 	ldrdeq	r0, [r0], -r1
    1d1c:	00000eff 	strdeq	r0, [r0], -pc	; <UNPREDICTABLE>
    1d20:	00000efb 	strdeq	r0, [r0], -fp
    1d24:	00011812 	andeq	r1, r1, r2, lsl r8
    1d28:	000a8d00 	andeq	r8, sl, r0, lsl #26
    1d2c:	98030500 	stmdals	r3, {r8, sl}
    1d30:	1800009a 	stmdane	r0, {r1, r3, r4, r7}
    1d34:	00008994 	muleq	r0, r4, r9
    1d38:	00000a9e 	muleq	r0, lr, sl
    1d3c:	00000a73 	andeq	r0, r0, r3, ror sl
    1d40:	05500119 	ldrbeq	r0, [r0, #-281]	; 0xfffffee7
    1d44:	0097c003 	addseq	ip, r7, r3
    1d48:	51011900 	tstpl	r1, r0, lsl #18
    1d4c:	994c0305 	stmdbls	ip, {r0, r2, r8, r9}^
    1d50:	01190000 	tsteq	r9, r0
    1d54:	98030552 	stmdals	r3, {r1, r4, r6, r8, sl}
    1d58:	1900009a 	stmdbne	r0, {r1, r3, r4, r7}
    1d5c:	08025301 	stmdaeq	r2, {r0, r8, r9, ip, lr}
    1d60:	7d021920 	vstrvc.16	s2, [r2, #-64]	; 0xffffffc0	; <UNPREDICTABLE>
    1d64:	88030500 	stmdahi	r3, {r8, sl}
    1d68:	00000099 	muleq	r0, r9, r0
    1d6c:	0089981a 	addeq	r9, r9, sl, lsl r8
    1d70:	000ac200 	andeq	ip, sl, r0, lsl #4
    1d74:	c01c0000 	andsgt	r0, ip, r0
    1d78:	8d000000 	stchi	0, cr0, [r0, #-0]
    1d7c:	1d00000a 	stcne	0, cr0, [r0, #-40]	; 0xffffffd8
    1d80:	0000002c 	andeq	r0, r0, ip, lsr #32
    1d84:	7d09000e 	stcvc	0, cr0, [r9, #-56]	; 0xffffffc8
    1d88:	2200000a 	andcs	r0, r0, #10, 0
    1d8c:	000005e5 	andeq	r0, r0, r5, ror #11
    1d90:	000005e5 	andeq	r0, r0, r5, ror #11
    1d94:	2205eb03 	andcs	lr, r5, #3072	; 0xc00
    1d98:	00000469 	andeq	r0, r0, r9, ror #8
    1d9c:	00000469 	andeq	r0, r0, r9, ror #8
    1da0:	22062803 	andcs	r2, r6, #196608	; 0x30000
    1da4:	000005bd 			; <UNDEFINED> instruction: 0x000005bd
    1da8:	000005bd 			; <UNDEFINED> instruction: 0x000005bd
    1dac:	2205ea03 	andcs	lr, r5, #12288	; 0x3000
    1db0:	0000058e 	andeq	r0, r0, lr, lsl #11
    1db4:	0000058e 	andeq	r0, r0, lr, lsl #11
    1db8:	2207ed03 	andcs	lr, r7, #192	; 0xc0
    1dbc:	000000a0 	andeq	r0, r0, r0, lsr #1
    1dc0:	000000a0 	andeq	r0, r0, r0, lsr #1
    1dc4:	22066e03 	andcs	r6, r6, #3, 28	; 0x30
    1dc8:	00000587 	andeq	r0, r0, r7, lsl #11
    1dcc:	00000587 	andeq	r0, r0, r7, lsl #11
    1dd0:	0007ee03 	andeq	lr, r7, r3, lsl #28
    1dd4:	0000010a 	andeq	r0, r0, sl, lsl #2
    1dd8:	07cd0004 	strbeq	r0, [sp, r4]
    1ddc:	01040000 	mrseq	r0, (UNDEF: 4)
    1de0:	000002ad 	andeq	r0, r0, sp, lsr #5
    1de4:	0006090c 	andeq	r0, r6, ip, lsl #18
    1de8:	00048000 	andeq	r8, r4, r0
    1dec:	00006000 	andeq	r6, r0, r0
    1df0:	00000000 	andeq	r0, r0, r0
    1df4:	000f1e00 	andeq	r1, pc, r0, lsl #28
    1df8:	05040200 	streq	r0, [r4, #-512]	; 0xfffffe00
    1dfc:	00746e69 	rsbseq	r6, r4, r9, ror #28
    1e00:	c5070403 	strgt	r0, [r7, #-1027]	; 0xfffffbfd
    1e04:	03000001 	movweq	r0, #1
    1e08:	01780601 	cmneq	r8, r1, lsl #12
    1e0c:	02030000 	andeq	r0, r3, #0, 0
    1e10:	00002a05 	andeq	r2, r0, r5, lsl #20
    1e14:	05040300 	streq	r0, [r4, #-768]	; 0xfffffd00
    1e18:	000000e4 	andeq	r0, r0, r4, ror #1
    1e1c:	df050803 	svcle	0x00050803
    1e20:	03000000 	movweq	r0, #0
    1e24:	01760801 	cmneq	r6, r1, lsl #16
    1e28:	02030000 	andeq	r0, r3, #0, 0
    1e2c:	00021407 	andeq	r1, r2, r7, lsl #8
    1e30:	07040300 	streq	r0, [r4, -r0, lsl #6]
    1e34:	000001c0 	andeq	r0, r0, r0, asr #3
    1e38:	bb070803 	bllt	1c3e4c <__bss_end__+0x1b9d74>
    1e3c:	04000001 	streq	r0, [r0], #-1
    1e40:	00000025 	andeq	r0, r0, r5, lsr #32
    1e44:	0000007a 	andeq	r0, r0, sl, ror r0
    1e48:	00002505 	andeq	r2, r0, r5, lsl #10
    1e4c:	68060000 	stmdavs	r6, {}	; <UNPREDICTABLE>
    1e50:	02000000 	andeq	r0, r0, #0, 0
    1e54:	00860e1c 	addeq	r0, r6, ip, lsl lr
    1e58:	04070000 	streq	r0, [r7], #-0
    1e5c:	0000006b 	andeq	r0, r0, fp, rrx
    1e60:	00002504 	andeq	r2, r0, r4, lsl #10
    1e64:	00009b00 	andeq	r9, r0, r0, lsl #22
    1e68:	009b0500 	addseq	r0, fp, r0, lsl #10
    1e6c:	07000000 	streq	r0, [r0, -r0]
    1e70:	0000a804 	andeq	sl, r0, r4, lsl #16
    1e74:	08010300 	stmdaeq	r1, {r8, r9}
    1e78:	0000017f 	andeq	r0, r0, pc, ror r1
    1e7c:	0000a108 	andeq	sl, r0, r8, lsl #2
    1e80:	04e40600 	strbteq	r0, [r4], #1536	; 0x600
    1e84:	21020000 	mrscs	r0, (UNDEF: 2)
    1e88:	0000b90e 	andeq	fp, r0, lr, lsl #18
    1e8c:	8c040700 	stchi	7, cr0, [r4], {-0}
    1e90:	09000000 	stmdbeq	r0, {}	; <UNPREDICTABLE>
    1e94:	000005fb 	strdeq	r0, [r0], -fp
    1e98:	78060c01 	stmdavc	r6, {r0, sl, fp}
    1e9c:	1000008e 	andne	r0, r0, lr, lsl #1
    1ea0:	01000000 	mrseq	r0, (UNDEF: 0)
    1ea4:	0000e89c 	muleq	r0, ip, r8
    1ea8:	00720a00 	rsbseq	r0, r2, r0, lsl #20
    1eac:	2c0e0d01 	stccs	13, cr0, [lr], {1}
    1eb0:	26000000 	strcs	r0, [r0], -r0
    1eb4:	2000000f 	andcs	r0, r0, pc
    1eb8:	0000000f 	andeq	r0, r0, pc
    1ebc:	00013c0b 	andeq	r3, r1, fp, lsl #24
    1ec0:	06030100 	streq	r0, [r3], -r0, lsl #2
    1ec4:	00008e68 	andeq	r8, r0, r8, ror #28
    1ec8:	00000010 	andeq	r0, r0, r0, lsl r0
    1ecc:	720a9c01 	andvc	r9, sl, #256	; 0x100
    1ed0:	0e040100 	adfeqs	f0, f4, f0
    1ed4:	0000002c 	andeq	r0, r0, ip, lsr #32
    1ed8:	00000f5b 	andeq	r0, r0, fp, asr pc
    1edc:	00000f55 	andeq	r0, r0, r5, asr pc
    1ee0:	012f0000 			; <UNDEFINED> instruction: 0x012f0000
    1ee4:	00040000 	andeq	r0, r4, r0
    1ee8:	00000876 	andeq	r0, r0, r6, ror r8
    1eec:	02ad0104 	adceq	r0, sp, #1
    1ef0:	310c0000 	mrscc	r0, (UNDEF: 12)
    1ef4:	80000006 	andhi	r0, r0, r6
    1ef8:	88000004 	stmdahi	r0, {r2}
    1efc:	2c00008e 	stccs	0, cr0, [r0], {142}	; 0x8e
    1f00:	c0000000 	andgt	r0, r0, r0
    1f04:	0200000f 	andeq	r0, r0, #15, 0
    1f08:	6e690504 	cdpvs	5, 6, cr0, cr9, cr4, {0}
    1f0c:	04030074 	streq	r0, [r3], #-116	; 0xffffff8c
    1f10:	0001c507 	andeq	ip, r1, r7, lsl #10
    1f14:	06010300 	streq	r0, [r1], -r0, lsl #6
    1f18:	00000178 	andeq	r0, r0, r8, ror r1
    1f1c:	2a050203 	bcs	142730 <__bss_end__+0x138658>
    1f20:	03000000 	movweq	r0, #0
    1f24:	00e40504 	rsceq	r0, r4, r4, lsl #10
    1f28:	08030000 	stmdaeq	r3, {}	; <UNPREDICTABLE>
    1f2c:	0000df05 	andeq	sp, r0, r5, lsl #30
    1f30:	08010300 	stmdaeq	r1, {r8, r9}
    1f34:	00000176 	andeq	r0, r0, r6, ror r1
    1f38:	14070203 	strne	r0, [r7], #-515	; 0xfffffdfd
    1f3c:	03000002 	movweq	r0, #2
    1f40:	01c00704 	biceq	r0, r0, r4, lsl #14
    1f44:	08030000 	stmdaeq	r3, {}	; <UNPREDICTABLE>
    1f48:	0001bb07 	andeq	fp, r1, r7, lsl #22
    1f4c:	00250400 	eoreq	r0, r5, r0, lsl #8
    1f50:	007a0000 	rsbseq	r0, sl, r0
    1f54:	25050000 	strcs	r0, [r5, #-0]
    1f58:	00000000 	andeq	r0, r0, r0
    1f5c:	00006806 	andeq	r6, r0, r6, lsl #16
    1f60:	0e1c0200 	cdpeq	2, 1, cr0, cr12, cr0, {0}
    1f64:	00000086 	andeq	r0, r0, r6, lsl #1
    1f68:	006b0407 	rsbeq	r0, fp, r7, lsl #8
    1f6c:	25040000 	strcs	r0, [r4, #-0]
    1f70:	9b000000 	blls	1f78 <__code_start__-0x6088>
    1f74:	05000000 	streq	r0, [r0, #-0]
    1f78:	0000009b 	muleq	r0, fp, r0
    1f7c:	a8040700 	stmdage	r4, {r8, r9, sl}
    1f80:	03000000 	movweq	r0, #0
    1f84:	017f0801 	cmneq	pc, r1, lsl #16
    1f88:	a1080000 	mrsge	r0, (UNDEF: 8)
    1f8c:	06000000 	streq	r0, [r0], -r0
    1f90:	000004e4 	andeq	r0, r0, r4, ror #9
    1f94:	b90e2102 	stmdblt	lr, {r1, r8, sp}
    1f98:	07000000 	streq	r0, [r0, -r0]
    1f9c:	00008c04 	andeq	r8, r0, r4, lsl #24
    1fa0:	00a00900 	adceq	r0, r0, r0, lsl #18
    1fa4:	04010000 	streq	r0, [r1], #-0
    1fa8:	008e8806 	addeq	r8, lr, r6, lsl #16
    1fac:	00002c00 	andeq	r2, r0, r0, lsl #24
    1fb0:	0e9c0100 	fmleqe	f0, f4, f0
    1fb4:	0a000001 	beq	1fc0 <__code_start__-0x6040>
    1fb8:	00008e9c 	muleq	r0, ip, lr
    1fbc:	000000e8 	andeq	r0, r0, r8, ror #1
    1fc0:	0550010b 	ldrbeq	r0, [r0, #-267]	; 0xfffffef5
    1fc4:	009ab403 	addseq	fp, sl, r3, lsl #8
    1fc8:	a00c0000 	andge	r0, ip, r0
    1fcc:	0e00008e 	cdpeq	0, 0, cr0, cr0, cr14, {4}
    1fd0:	0d000001 	stceq	0, cr0, [r0, #-4]
    1fd4:	00008ea8 	andeq	r8, r0, r8, lsr #29
    1fd8:	0000011a 	andeq	r0, r0, sl, lsl r1
    1fdc:	00000104 	andeq	r0, r0, r4, lsl #2
    1fe0:	0150010b 	cmpeq	r0, fp, lsl #2
    1fe4:	ac0c003a 	stcge	0, cr0, [ip], {58}	; 0x3a
    1fe8:	2600008e 	strcs	r0, [r0], -lr, lsl #1
    1fec:	00000001 	andeq	r0, r0, r1
    1ff0:	00064c0e 	andeq	r4, r6, lr, lsl #24
    1ff4:	00064c00 	andeq	r4, r6, r0, lsl #24
    1ff8:	064d0200 	strbeq	r0, [sp], -r0, lsl #4
    1ffc:	0006280e 	andeq	r2, r6, lr, lsl #16
    2000:	00062800 	andeq	r2, r6, r0, lsl #16
    2004:	06580200 	ldrbeq	r0, [r8], -r0, lsl #4
    2008:	00061d0e 	andeq	r1, r6, lr, lsl #26
    200c:	00061d00 	andeq	r1, r6, r0, lsl #26
    2010:	066b0200 	strbteq	r0, [fp], -r0, lsl #4
    2014:	00018900 	andeq	r8, r1, r0, lsl #18
    2018:	36000400 	strcc	r0, [r0], -r0, lsl #8
    201c:	04000009 	streq	r0, [r0], #-9
    2020:	0002ad01 	andeq	sl, r2, r1, lsl #26
    2024:	06820c00 	streq	r0, [r2], r0, lsl #24
    2028:	04800000 	streq	r0, [r0], #0
    202c:	8eb40000 	cdphi	0, 11, cr0, cr4, cr0, {0}
    2030:	003c0000 	eorseq	r0, ip, r0
    2034:	10430000 	subne	r0, r3, r0
    2038:	04020000 	streq	r0, [r2], #-0
    203c:	746e6905 	strbtvc	r6, [lr], #-2309	; 0xfffff6fb
    2040:	07040300 	streq	r0, [r4, -r0, lsl #6]
    2044:	000001c5 	andeq	r0, r0, r5, asr #3
    2048:	78060103 	stmdavc	r6, {r0, r1, r8}
    204c:	03000001 	movweq	r0, #1
    2050:	002a0502 	eoreq	r0, sl, r2, lsl #10
    2054:	04030000 	streq	r0, [r3], #-0
    2058:	0000e405 	andeq	lr, r0, r5, lsl #8
    205c:	05080300 	streq	r0, [r8, #-768]	; 0xfffffd00
    2060:	000000df 	ldrdeq	r0, [r0], -pc	; <UNPREDICTABLE>
    2064:	76080103 	strvc	r0, [r8], -r3, lsl #2
    2068:	03000001 	movweq	r0, #1
    206c:	02140702 	andseq	r0, r4, #524288	; 0x80000
    2070:	04030000 	streq	r0, [r3], #-0
    2074:	0001c007 	andeq	ip, r1, r7
    2078:	07080300 	streq	r0, [r8, -r0, lsl #6]
    207c:	000001bb 			; <UNDEFINED> instruction: 0x000001bb
    2080:	00002504 	andeq	r2, r0, r4, lsl #10
    2084:	00007a00 	andeq	r7, r0, r0, lsl #20
    2088:	00250500 	eoreq	r0, r5, r0, lsl #10
    208c:	06000000 	streq	r0, [r0], -r0
    2090:	00000068 	andeq	r0, r0, r8, rrx
    2094:	860e1c02 	strhi	r1, [lr], -r2, lsl #24
    2098:	07000000 	streq	r0, [r0, -r0]
    209c:	00006b04 	andeq	r6, r0, r4, lsl #22
    20a0:	00250400 	eoreq	r0, r5, r0, lsl #8
    20a4:	009b0000 	addseq	r0, fp, r0
    20a8:	9b050000 	blls	1420b0 <__bss_end__+0x137fd8>
    20ac:	00000000 	andeq	r0, r0, r0
    20b0:	00a80407 	adceq	r0, r8, r7, lsl #8
    20b4:	01030000 	mrseq	r0, (UNDEF: 3)
    20b8:	00017f08 	andeq	r7, r1, r8, lsl #30
    20bc:	00a10800 	adceq	r0, r1, r0, lsl #16
    20c0:	e4060000 	str	r0, [r6], #-0
    20c4:	02000004 	andeq	r0, r0, #4, 0
    20c8:	00b90e21 	adcseq	r0, r9, r1, lsr #28
    20cc:	04070000 	streq	r0, [r7], #-0
    20d0:	0000008c 	andeq	r0, r0, ip, lsl #1
    20d4:	00065a09 	andeq	r5, r6, r9, lsl #20
    20d8:	06040100 	streq	r0, [r4], -r0, lsl #2
    20dc:	00008eb4 			; <UNDEFINED> instruction: 0x00008eb4
    20e0:	0000003c 	andeq	r0, r0, ip, lsr r0
    20e4:	01549c01 	cmpeq	r4, r1, lsl #24
    20e8:	2a060000 	bcs	1820f0 <__bss_end__+0x178018>
    20ec:	01000005 	tsteq	r0, r5
    20f0:	00251005 	eoreq	r1, r5, r5
    20f4:	53060000 	movwpl	r0, #24576	; 0x6000
    20f8:	01000005 	tsteq	r0, r5
    20fc:	00251f05 	eoreq	r1, r5, r5, lsl #30
    2100:	030a0000 	movweq	r0, #40960	; 0xa000
    2104:	01000002 	tsteq	r0, r2
    2108:	620b0706 	andvs	r0, fp, #1572864	; 0x180000
    210c:	01007373 	tsteq	r0, r3, ror r3
    2110:	01540a0a 	cmpeq	r4, sl, lsl #20
    2114:	0f900000 	svceq	0x00900000
    2118:	0f8a0000 	svceq	0x008a0000
    211c:	620c0000 	andvs	r0, ip, #0, 0
    2120:	01000006 	tsteq	r0, r6
    2124:	01540a0b 	cmpeq	r4, fp, lsl #20
    2128:	d80d0000 	stmdale	sp, {}	; <UNPREDICTABLE>
    212c:	0800008e 	stmdaeq	r0, {r1, r2, r3, r7}
    2130:	2f000000 	svccs	0x00000000
    2134:	0e000001 	cdpeq	0, 0, cr0, cr0, cr1, {0}
    2138:	01006e69 	tsteq	r0, r9, ror #28
    213c:	002c0514 	eoreq	r0, ip, r4, lsl r5
    2140:	00010000 	andeq	r0, r1, r0
    2144:	008ebc0f 	addeq	fp, lr, pc, lsl #24
    2148:	00015a00 	andeq	r5, r1, r0, lsl #20
    214c:	8ed80f00 	cdphi	15, 13, cr0, cr8, cr0, {0}
    2150:	01670000 	cmneq	r7, r0
    2154:	e40f0000 	str	r0, [pc], #-0	; 215c <__code_start__-0x5ea4>
    2158:	7300008e 	movwvc	r0, #142	; 0x8e
    215c:	0f000001 	svceq	0x00000001
    2160:	00008ee8 	andeq	r8, r0, r8, ror #29
    2164:	00000180 	andeq	r0, r0, r0, lsl #3
    2168:	25040700 	strcs	r0, [r4, #-1792]	; 0xfffff900
    216c:	10000000 	andne	r0, r0, r0
    2170:	00000674 	andeq	r0, r0, r4, ror r6
    2174:	00000674 	andeq	r0, r0, r4, ror r6
    2178:	06013102 	streq	r3, [r1], -r2, lsl #2
    217c:	00066a11 	andeq	r6, r6, r1, lsl sl
    2180:	00066a00 	andeq	r6, r6, r0, lsl #20
    2184:	063b0200 	ldrteq	r0, [fp], -r0, lsl #4
    2188:	00020310 	andeq	r0, r2, r0, lsl r3
    218c:	00020300 	andeq	r0, r2, r0, lsl #6
    2190:	01050200 	mrseq	r0, SP_usr
    2194:	00a01106 	adceq	r1, r0, r6, lsl #2
    2198:	00a00000 	adceq	r0, r0, r0
    219c:	6e020000 	cdpvs	0, 0, cr0, cr2, cr0, {0}
    21a0:	00ce0006 	sbceq	r0, lr, r6
    21a4:	00040000 	andeq	r0, r4, r0
    21a8:	00000a32 	andeq	r0, r0, r2, lsr sl
    21ac:	02ad0104 	adceq	r0, sp, #1
    21b0:	970c0000 	strls	r0, [ip, -r0]
    21b4:	80000006 	andhi	r0, r0, r6
    21b8:	f0000004 			; <UNDEFINED> instruction: 0xf0000004
    21bc:	0400008e 	streq	r0, [r0], #-142	; 0xffffff72
    21c0:	e0000000 	and	r0, r0, r0
    21c4:	02000010 	andeq	r0, r0, #16, 0
    21c8:	6e690504 	cdpvs	5, 6, cr0, cr9, cr4, {0}
    21cc:	04030074 	streq	r0, [r3], #-116	; 0xffffff8c
    21d0:	0001c507 	andeq	ip, r1, r7, lsl #10
    21d4:	06010300 	streq	r0, [r1], -r0, lsl #6
    21d8:	00000178 	andeq	r0, r0, r8, ror r1
    21dc:	2a050203 	bcs	1429f0 <__bss_end__+0x138918>
    21e0:	03000000 	movweq	r0, #0
    21e4:	00e40504 	rsceq	r0, r4, r4, lsl #10
    21e8:	08030000 	stmdaeq	r3, {}	; <UNPREDICTABLE>
    21ec:	0000df05 	andeq	sp, r0, r5, lsl #30
    21f0:	08010300 	stmdaeq	r1, {r8, r9}
    21f4:	00000176 	andeq	r0, r0, r6, ror r1
    21f8:	14070203 	strne	r0, [r7], #-515	; 0xfffffdfd
    21fc:	03000002 	movweq	r0, #2
    2200:	01c00704 	biceq	r0, r0, r4, lsl #14
    2204:	08030000 	stmdaeq	r3, {}	; <UNPREDICTABLE>
    2208:	0001bb07 	andeq	fp, r1, r7, lsl #22
    220c:	00250400 	eoreq	r0, r5, r0, lsl #8
    2210:	007a0000 	rsbseq	r0, sl, r0
    2214:	25050000 	strcs	r0, [r5, #-0]
    2218:	00000000 	andeq	r0, r0, r0
    221c:	00006806 	andeq	r6, r0, r6, lsl #16
    2220:	0e1c0200 	cdpeq	2, 1, cr0, cr12, cr0, {0}
    2224:	00000086 	andeq	r0, r0, r6, lsl #1
    2228:	006b0407 	rsbeq	r0, fp, r7, lsl #8
    222c:	25040000 	strcs	r0, [r4, #-0]
    2230:	9b000000 	blls	2238 <__code_start__-0x5dc8>
    2234:	05000000 	streq	r0, [r0, #-0]
    2238:	0000009b 	muleq	r0, fp, r0
    223c:	a8040700 	stmdage	r4, {r8, r9, sl}
    2240:	03000000 	movweq	r0, #0
    2244:	017f0801 	cmneq	pc, r1, lsl #16
    2248:	a1080000 	mrsge	r0, (UNDEF: 8)
    224c:	06000000 	streq	r0, [r0], -r0
    2250:	000004e4 	andeq	r0, r0, r4, ror #9
    2254:	b90e2102 	stmdblt	lr, {r1, r8, sp}
    2258:	07000000 	streq	r0, [r0, -r0]
    225c:	00008c04 	andeq	r8, r0, r4, lsl #24
    2260:	06740900 	ldrbteq	r0, [r4], -r0, lsl #18
    2264:	04010000 	streq	r0, [r1], #-0
    2268:	008ef006 	addeq	pc, lr, r6
    226c:	00000400 	andeq	r0, r0, r0, lsl #8
    2270:	009c0100 	addseq	r0, ip, r0, lsl #2
    2274:	00000236 	andeq	r0, r0, r6, lsr r2
    2278:	0aab0004 	beq	feac2290 <__bss_end__+0xfeab81b8>
    227c:	01040000 	mrseq	r0, (UNDEF: 4)
    2280:	000002ad 	andeq	r0, r0, sp, lsr #5
    2284:	0006df0c 	andeq	sp, r6, ip, lsl #30
    2288:	00048000 	andeq	r8, r4, r0
    228c:	00007000 	andeq	r7, r0, r0
    2290:	00000000 	andeq	r0, r0, r0
    2294:	00116100 	andseq	r6, r1, r0, lsl #2
    2298:	05040200 	streq	r0, [r4, #-512]	; 0xfffffe00
    229c:	00746e69 	rsbseq	r6, r4, r9, ror #28
    22a0:	00002503 	andeq	r2, r0, r3, lsl #10
    22a4:	07040400 	streq	r0, [r4, -r0, lsl #8]
    22a8:	000001c5 	andeq	r0, r0, r5, asr #3
    22ac:	78060104 	stmdavc	r6, {r2, r8}
    22b0:	04000001 	streq	r0, [r0], #-1
    22b4:	002a0502 	eoreq	r0, sl, r2, lsl #10
    22b8:	04040000 	streq	r0, [r4], #-0
    22bc:	0000e405 	andeq	lr, r0, r5, lsl #8
    22c0:	05080400 	streq	r0, [r8, #-1024]	; 0xfffffc00
    22c4:	000000df 	ldrdeq	r0, [r0], -pc	; <UNPREDICTABLE>
    22c8:	76080104 	strvc	r0, [r8], -r4, lsl #2
    22cc:	04000001 	streq	r0, [r0], #-1
    22d0:	02140702 	andseq	r0, r4, #524288	; 0x80000
    22d4:	04040000 	streq	r0, [r4], #-0
    22d8:	0001c007 	andeq	ip, r1, r7
    22dc:	07080400 	streq	r0, [r8, -r0, lsl #8]
    22e0:	000001bb 			; <UNDEFINED> instruction: 0x000001bb
    22e4:	00002505 	andeq	r2, r0, r5, lsl #10
    22e8:	00007f00 	andeq	r7, r0, r0, lsl #30
    22ec:	00250600 	eoreq	r0, r5, r0, lsl #12
    22f0:	07000000 	streq	r0, [r0, -r0]
    22f4:	00000068 	andeq	r0, r0, r8, rrx
    22f8:	8b0e1c02 	blhi	389308 <__bss_end__+0x37f230>
    22fc:	08000000 	stmdaeq	r0, {}	; <UNPREDICTABLE>
    2300:	00007004 	andeq	r7, r0, r4
    2304:	00250500 	eoreq	r0, r5, r0, lsl #10
    2308:	00a00000 	adceq	r0, r0, r0
    230c:	a0060000 	andge	r0, r6, r0
    2310:	00000000 	andeq	r0, r0, r0
    2314:	00ad0408 	adceq	r0, sp, r8, lsl #8
    2318:	01040000 	mrseq	r0, (UNDEF: 4)
    231c:	00017f08 	andeq	r7, r1, r8, lsl #30
    2320:	00a60300 	adceq	r0, r6, r0, lsl #6
    2324:	e4070000 	str	r0, [r7], #-0
    2328:	02000004 	andeq	r0, r0, #4, 0
    232c:	00be0e21 	adcseq	r0, lr, r1, lsr #28
    2330:	04080000 	streq	r0, [r8], #-0
    2334:	00000091 	muleq	r0, r1, r0
    2338:	00070309 	andeq	r0, r7, r9, lsl #6
    233c:	110d0100 	mrsne	r0, (UNDEF: 29)
    2340:	00000031 	andeq	r0, r0, r1, lsr r0
    2344:	00061d0a 	andeq	r1, r6, sl, lsl #26
    2348:	061f0100 	ldreq	r0, [pc], -r0, lsl #2
    234c:	00008f20 	andeq	r8, r0, r0, lsr #30
    2350:	00000054 	andeq	r0, r0, r4, asr r0
    2354:	01ae9c01 			; <UNDEFINED> instruction: 0x01ae9c01
    2358:	270b0000 	strcs	r0, [fp, -r0]
    235c:	01000007 	tsteq	r0, r7
    2360:	002c0f2c 	eoreq	r0, ip, ip, lsr #30
    2364:	0fbd0000 	svceq	0x00bd0000
    2368:	0fbb0000 	svceq	0x00bb0000
    236c:	c20b0000 	andgt	r0, fp, #0, 0
    2370:	01000006 	tsteq	r0, r6
    2374:	002c0f2d 	eoreq	r0, ip, sp, lsr #30
    2378:	0fd70000 	svceq	0x00d70000
    237c:	0fd50000 	svceq	0x00d50000
    2380:	f40b0000 	vst4.8	{d0-d3}, [fp], r0
    2384:	01000006 	tsteq	r0, r6
    2388:	002c0f2e 	eoreq	r0, ip, lr, lsr #30
    238c:	0ff10000 	svceq	0x00f10000
    2390:	0fef0000 	svceq	0x00ef0000
    2394:	0e0b0000 	cdpeq	0, 0, cr0, cr11, cr0, {0}
    2398:	01000007 	tsteq	r0, r7
    239c:	002c0f2f 	eoreq	r0, ip, pc, lsr #30
    23a0:	100a0000 	andne	r0, sl, r0
    23a4:	10080000 	andne	r0, r8, r0
    23a8:	280c0000 	stmdacs	ip, {}	; <UNPREDICTABLE>
    23ac:	d900008f 	stmdble	r0, {r0, r1, r2, r3, r7}
    23b0:	0c000001 	stceq	0, cr0, [r0], {1}
    23b4:	00008f34 	andeq	r8, r0, r4, lsr pc
    23b8:	00000208 	andeq	r0, r0, r8, lsl #4
    23bc:	008f380c 	addeq	r3, pc, ip, lsl #16
    23c0:	00021500 	andeq	r1, r2, r0, lsl #10
    23c4:	8f400d00 	svchi	0x00400d00
    23c8:	02210000 	eoreq	r0, r1, #0, 0
    23cc:	01640000 	cmneq	r4, r0
    23d0:	010e0000 	mrseq	r0, (UNDEF: 14)
    23d4:	003a0150 	eorseq	r0, sl, r0, asr r1
    23d8:	008f4c0d 	addeq	r4, pc, sp, lsl #24
    23dc:	00022d00 	andeq	r2, r2, r0, lsl #26
    23e0:	00018400 	andeq	r8, r1, r0, lsl #8
    23e4:	50010e00 	andpl	r0, r1, r0, lsl #28
    23e8:	00240c05 	eoreq	r0, r4, r5, lsl #24
    23ec:	010e2010 	tsteq	lr, r0, lsl r0
    23f0:	010c0551 	tsteq	ip, r1, asr r5
    23f4:	005a0000 	subseq	r0, sl, r0
    23f8:	008f580d 	addeq	r5, pc, sp, lsl #16
    23fc:	00022d00 	andeq	r2, r2, r0, lsl #26
    2400:	0001a400 	andeq	sl, r1, r0, lsl #8
    2404:	50010e00 	andpl	r0, r1, r0, lsl #28
    2408:	001c0c05 	andseq	r0, ip, r5, lsl #24
    240c:	010e2010 	tsteq	lr, r0, lsl r0
    2410:	200c0551 	andcs	r0, ip, r1, asr r5
    2414:	005a0000 	subseq	r0, sl, r0
    2418:	008f600c 	addeq	r6, pc, ip
    241c:	0001ae00 	andeq	sl, r1, r0, lsl #28
    2420:	d00f0000 	andle	r0, pc, r0
    2424:	01000006 	tsteq	r0, r6
    2428:	8f0c0617 	svchi	0x000c0617
    242c:	00140000 	andseq	r0, r4, r0
    2430:	9c010000 	stcls	0, cr0, [r1], {-0}
    2434:	000001d9 	ldrdeq	r0, [r0], -r9
    2438:	00072f0b 	andeq	r2, r7, fp, lsl #30
    243c:	0e180100 	mufeqe	f0, f0, f0
    2440:	00000031 	andeq	r0, r0, r1, lsr r0
    2444:	00001025 	andeq	r1, r0, r5, lsr #32
    2448:	0000101f 	andeq	r1, r0, pc, lsl r0
    244c:	07001000 	streq	r1, [r0, -r0]
    2450:	0e010000 	cdpeq	0, 0, cr0, cr1, cr0, {0}
    2454:	00002505 	andeq	r2, r0, r5, lsl #10
    2458:	008ef400 	addeq	pc, lr, r0, lsl #8
    245c:	00001800 	andeq	r1, r0, r0, lsl #16
    2460:	089c0100 	ldmeq	ip, {r8}
    2464:	0b000002 	bleq	2474 <__code_start__-0x5b8c>
    2468:	0000072f 	andeq	r0, r0, pc, lsr #14
    246c:	310e0f01 	tstcc	lr, r1, lsl #30
    2470:	53000000 	movwpl	r0, #0
    2474:	4f000010 	svcmi	0x00000010
    2478:	00000010 	andeq	r0, r0, r0, lsl r0
    247c:	0006b311 	andeq	fp, r6, r1, lsl r3
    2480:	0006b300 	andeq	fp, r6, r0, lsl #6
    2484:	01360200 	teqeq	r6, r0, lsl #4
    2488:	064c1206 	strbeq	r1, [ip], -r6, lsl #4
    248c:	064c0000 	strbeq	r0, [ip], -r0
    2490:	4d020000 	stcmi	0, cr0, [r2, #-0]
    2494:	06281206 	strteq	r1, [r8], -r6, lsl #4
    2498:	06280000 	strteq	r0, [r8], -r0
    249c:	58020000 	stmdapl	r2, {}	; <UNPREDICTABLE>
    24a0:	06ca1206 	strbeq	r1, [sl], r6, lsl #4
    24a4:	06ca0000 	strbeq	r0, [sl], r0
    24a8:	ad020000 	stcge	0, cr0, [r2, #-0]
    24ac:	024d0006 	subeq	r0, sp, #6, 0
    24b0:	00040000 	andeq	r0, r4, r0
    24b4:	00000bd0 	ldrdeq	r0, [r0], -r0	; <UNPREDICTABLE>
    24b8:	02ad0104 	adceq	r0, sp, #1
    24bc:	4a0c0000 	bmi	3024c4 <__bss_end__+0x2f83ec>
    24c0:	80000007 	andhi	r0, r0, r7
    24c4:	74000004 	strvc	r0, [r0], #-4
    24c8:	8400008f 	strhi	r0, [r0], #-143	; 0xffffff71
    24cc:	32000000 	andcc	r0, r0, #0, 0
    24d0:	02000012 	andeq	r0, r0, #18, 0
    24d4:	6e690504 	cdpvs	5, 6, cr0, cr9, cr4, {0}
    24d8:	04030074 	streq	r0, [r3], #-116	; 0xffffff8c
    24dc:	0001c507 	andeq	ip, r1, r7, lsl #10
    24e0:	06010300 	streq	r0, [r1], -r0, lsl #6
    24e4:	00000178 	andeq	r0, r0, r8, ror r1
    24e8:	2a050203 	bcs	142cfc <__bss_end__+0x138c24>
    24ec:	03000000 	movweq	r0, #0
    24f0:	00e40504 	rsceq	r0, r4, r4, lsl #10
    24f4:	08030000 	stmdaeq	r3, {}	; <UNPREDICTABLE>
    24f8:	0000df05 	andeq	sp, r0, r5, lsl #30
    24fc:	08010300 	stmdaeq	r1, {r8, r9}
    2500:	00000176 	andeq	r0, r0, r6, ror r1
    2504:	14070203 	strne	r0, [r7], #-515	; 0xfffffdfd
    2508:	03000002 	movweq	r0, #2
    250c:	01c00704 	biceq	r0, r0, r4, lsl #14
    2510:	08030000 	stmdaeq	r3, {}	; <UNPREDICTABLE>
    2514:	0001bb07 	andeq	fp, r1, r7, lsl #22
    2518:	00250400 	eoreq	r0, r5, r0, lsl #8
    251c:	007a0000 	rsbseq	r0, sl, r0
    2520:	25050000 	strcs	r0, [r5, #-0]
    2524:	00000000 	andeq	r0, r0, r0
    2528:	00006806 	andeq	r6, r0, r6, lsl #16
    252c:	0e1c0200 	cdpeq	2, 1, cr0, cr12, cr0, {0}
    2530:	00000086 	andeq	r0, r0, r6, lsl #1
    2534:	006b0407 	rsbeq	r0, fp, r7, lsl #8
    2538:	25040000 	strcs	r0, [r4, #-0]
    253c:	9b000000 	blls	2544 <__code_start__-0x5abc>
    2540:	05000000 	streq	r0, [r0, #-0]
    2544:	0000009b 	muleq	r0, fp, r0
    2548:	a8040700 	stmdage	r4, {r8, r9, sl}
    254c:	03000000 	movweq	r0, #0
    2550:	017f0801 	cmneq	pc, r1, lsl #16
    2554:	a1080000 	mrsge	r0, (UNDEF: 8)
    2558:	06000000 	streq	r0, [r0], -r0
    255c:	000004e4 	andeq	r0, r0, r4, ror #9
    2560:	b90e2102 	stmdblt	lr, {r1, r8, sp}
    2564:	07000000 	streq	r0, [r0, -r0]
    2568:	00008c04 	andeq	r8, r0, r4, lsl #24
    256c:	07400900 	strbeq	r0, [r0, -r0, lsl #18]
    2570:	1e010000 	cdpne	0, 0, cr0, cr1, cr0, {0}
    2574:	008fe006 	addeq	lr, pc, r6
    2578:	00001800 	andeq	r1, r0, r0, lsl #16
    257c:	099c0100 	ldmibeq	ip, {r8}
    2580:	0a000001 	beq	258c <__code_start__-0x5a74>
    2584:	00636573 	rsbeq	r6, r3, r3, ror r5
    2588:	2c191e01 	ldccs	14, cr1, [r9], {1}
    258c:	76000000 	strvc	r0, [r0], -r0
    2590:	72000010 	andvc	r0, r0, #16, 0
    2594:	0b000010 	bleq	25dc <__code_start__-0x5a24>
    2598:	00008ff4 	strdeq	r8, [r0], -r4
    259c:	00000109 	andeq	r0, r0, r9, lsl #2
    25a0:	1150010c 	cmpne	r0, ip, lsl #2
    25a4:	355001f3 	ldrbcc	r0, [r0, #-499]	; 0xfffffe0d
    25a8:	5001f324 	andpl	pc, r1, r4, lsr #6
    25ac:	f324321c 	vqsub.u32	d3, d4, d12
    25b0:	33225001 			; <UNDEFINED> instruction: 0x33225001
    25b4:	09000024 	stmdbeq	r0, {r2, r5}
    25b8:	00000628 	andeq	r0, r0, r8, lsr #12
    25bc:	c8061b01 	stmdagt	r6, {r0, r8, r9, fp, ip}
    25c0:	1800008f 	stmdane	r0, {r0, r1, r2, r3, r7}
    25c4:	01000000 	mrseq	r0, (UNDEF: 0)
    25c8:	0001529c 	muleq	r1, ip, r2
    25cc:	736d0a00 	cmnvc	sp, #0, 20
    25d0:	181b0100 	ldmdane	fp, {r8}
    25d4:	0000002c 	andeq	r0, r0, ip, lsr #32
    25d8:	0000109b 	muleq	r0, fp, r0
    25dc:	00001097 	muleq	r0, r7, r0
    25e0:	008fdc0b 	addeq	sp, pc, fp, lsl #24
    25e4:	00015200 	andeq	r5, r1, r0, lsl #4
    25e8:	50010c00 	andpl	r0, r1, r0, lsl #24
    25ec:	5001f311 	andpl	pc, r1, r1, lsl r3	; <UNPREDICTABLE>
    25f0:	01f32435 	mvnseq	r2, r5, lsr r4
    25f4:	24321c50 	ldrtcs	r1, [r2], #-3152	; 0xfffff3b0
    25f8:	225001f3 	subscs	r0, r0, #-1073741764	; 0xc000003c
    25fc:	00002433 	andeq	r2, r0, r3, lsr r4
    2600:	00077309 	andeq	r7, r7, r9, lsl #6
    2604:	06120100 	ldreq	r0, [r2], -r0, lsl #2
    2608:	00008fa4 	andeq	r8, r0, r4, lsr #31
    260c:	00000024 	andeq	r0, r0, r4, lsr #32
    2610:	01c29c01 	biceq	r9, r2, r1, lsl #24
    2614:	750a0000 	strvc	r0, [sl, #-0]
    2618:	12010073 	andne	r0, r1, #115, 0	; 0x73
    261c:	00002c18 	andeq	r2, r0, r8, lsl ip
    2620:	0010c000 	andseq	ip, r0, r0
    2624:	0010bc00 	andseq	fp, r0, r0, lsl #24
    2628:	62720d00 	rsbsvs	r0, r2, #0, 26
    262c:	0e130100 	mufeqs	f0, f3, f0
    2630:	0000002c 	andeq	r0, r0, ip, lsr #32
    2634:	000010e0 	andeq	r1, r0, r0, ror #1
    2638:	000010de 	ldrdeq	r1, [r0], -lr
    263c:	008fb40e 	addeq	fp, pc, lr, lsl #8
    2640:	00001400 	andeq	r1, r0, r0, lsl #8
    2644:	0001b800 	andeq	fp, r1, r0, lsl #16
    2648:	61720d00 	cmnvs	r2, r0, lsl #26
    264c:	12150100 	andsne	r0, r5, #0
    2650:	0000002c 	andeq	r0, r0, ip, lsr #32
    2654:	000010f5 	strdeq	r1, [r0], -r5
    2658:	000010f3 	strdeq	r1, [r0], -r3
    265c:	008fb80f 	addeq	fp, pc, pc, lsl #16
    2660:	0001c200 	andeq	ip, r1, r0, lsl #4
    2664:	b00f0000 	andlt	r0, pc, r0
    2668:	c200008f 	andgt	r0, r0, #143, 0	; 0x8f
    266c:	00000001 	andeq	r0, r0, r1
    2670:	00076410 	andeq	r6, r7, r0, lsl r4
    2674:	0a090100 	beq	242a7c <__bss_end__+0x2389a4>
    2678:	0000002c 	andeq	r0, r0, ip, lsr #32
    267c:	00008f88 	andeq	r8, r0, r8, lsl #31
    2680:	0000001c 	andeq	r0, r0, ip, lsl r0
    2684:	020a9c01 	andeq	r9, sl, #256	; 0x100
    2688:	750d0000 	strvc	r0, [sp, #-0]
    268c:	0e0d0100 	adfeqe	f0, f5, f0
    2690:	0000002c 	andeq	r0, r0, ip, lsr #32
    2694:	0000110c 	andeq	r1, r0, ip, lsl #2
    2698:	00001108 	andeq	r1, r0, r8, lsl #2
    269c:	008f900f 	addeq	r9, pc, pc
    26a0:	00023800 	andeq	r3, r2, r0, lsl #16
    26a4:	8f940f00 	svchi	0x00940f00
    26a8:	020a0000 	andeq	r0, sl, #0, 0
    26ac:	9c0f0000 	stcls	0, cr0, [pc], {-0}
    26b0:	3800008f 	stmdacc	r0, {r0, r1, r2, r3, r7}
    26b4:	00000002 	andeq	r0, r0, r2
    26b8:	00077c10 	andeq	r7, r7, r0, lsl ip
    26bc:	0a040100 	beq	102ac4 <__bss_end__+0xf89ec>
    26c0:	0000002c 	andeq	r0, r0, ip, lsr #32
    26c4:	00008f74 	andeq	r8, r0, r4, ror pc
    26c8:	00000014 	andeq	r0, r0, r4, lsl r0
    26cc:	02389c01 	eorseq	r9, r8, #256	; 0x100
    26d0:	800b0000 	andhi	r0, fp, r0
    26d4:	4400008f 	strmi	r0, [r0], #-143	; 0xffffff71
    26d8:	0c000002 	stceq	0, cr0, [r0], {2}
    26dc:	0c055001 	stceq	0, cr5, [r5], {1}
    26e0:	20003004 	andcs	r3, r0, r4
    26e4:	34110000 	ldrcc	r0, [r1], #-0
    26e8:	34000007 	strcc	r0, [r0], #-7
    26ec:	02000007 	andeq	r0, r0, #7, 0
    26f0:	5e11069c 	mrcpl	6, 0, r0, cr1, cr12, {4}
    26f4:	5e000007 	cdppl	0, 0, cr0, cr0, cr7, {0}
    26f8:	02000007 	andeq	r0, r0, #7, 0
    26fc:	cd000ac2 	vstrgt	s0, [r0, #-776]	; 0xfffffcf8
    2700:	04000005 	streq	r0, [r0], #-5
    2704:	000cd100 	andeq	sp, ip, r0, lsl #2
    2708:	53010400 	movwpl	r0, #5120	; 0x1400
    270c:	0c000008 	stceq	0, cr0, [r0], {8}
    2710:	000007bc 			; <UNDEFINED> instruction: 0x000007bc
    2714:	00000931 	andeq	r0, r0, r1, lsr r9
    2718:	00008ff8 	strdeq	r8, [r0], -r8	; <UNPREDICTABLE>
    271c:	000001f0 	strdeq	r0, [r0], -r0	; <UNPREDICTABLE>
    2720:	0000130a 	andeq	r1, r0, sl, lsl #6
    2724:	69050402 	stmdbvs	r5, {r1, sl}
    2728:	0300746e 	movweq	r7, #1134	; 0x46e
    272c:	01c50704 	biceq	r0, r5, r4, lsl #14
    2730:	2c040000 	stccs	0, cr0, [r4], {-0}
    2734:	03000000 	movweq	r0, #0
    2738:	01780601 	cmneq	r8, r1, lsl #12
    273c:	02030000 	andeq	r0, r3, #0, 0
    2740:	00002a05 	andeq	r2, r0, r5, lsl #20
    2744:	05040300 	streq	r0, [r4, #-768]	; 0xfffffd00
    2748:	000000e4 	andeq	r0, r0, r4, ror #1
    274c:	df050803 	svcle	0x00050803
    2750:	03000000 	movweq	r0, #0
    2754:	01760801 	cmneq	r6, r1, lsl #16
    2758:	02030000 	andeq	r0, r3, #0, 0
    275c:	00021407 	andeq	r1, r2, r7, lsl #8
    2760:	01d90500 	bicseq	r0, r9, r0, lsl #10
    2764:	34050000 	strcc	r0, [r5], #-0
    2768:	00006e19 	andeq	r6, r0, r9, lsl lr
    276c:	07040300 	streq	r0, [r4, -r0, lsl #6]
    2770:	000001c0 	andeq	r0, r0, r0, asr #3
    2774:	bb070803 	bllt	1c4788 <__bss_end__+0x1ba6b0>
    2778:	03000001 	movweq	r0, #1
    277c:	017f0801 	cmneq	pc, r1, lsl #16
    2780:	07060000 	streq	r0, [r6, -r0]
    2784:	00005401 	andeq	r5, r0, r1, lsl #8
    2788:	0e0c0400 	cfcpyseq	mvf0, mvf12
    278c:	000000c2 	andeq	r0, r0, r2, asr #1
    2790:	00096e07 	andeq	r6, r9, r7, lsl #28
    2794:	ab070000 	blge	1c279c <__bss_end__+0x1b86c4>
    2798:	01000007 	tsteq	r0, r7
    279c:	0007e707 	andeq	lr, r7, r7, lsl #14
    27a0:	f6070400 			; <UNDEFINED> instruction: 0xf6070400
    27a4:	05000007 	streq	r0, [r0, #-7]
    27a8:	00080507 	andeq	r0, r8, r7, lsl #10
    27ac:	14070600 	strne	r0, [r7], #-1536	; 0xfffffa00
    27b0:	07000008 	streq	r0, [r0, -r8]
    27b4:	00090607 	andeq	r0, r9, r7, lsl #12
    27b8:	23070300 	movwcs	r0, #29440	; 0x7300
    27bc:	02000008 	andeq	r0, r0, #8, 0
    27c0:	09250800 	stmdbeq	r5!, {fp}
    27c4:	022c0000 	eoreq	r0, ip, #0, 0
    27c8:	015e0806 	cmpeq	lr, r6, lsl #16
    27cc:	69090000 	stmdbvs	r9, {}	; <UNPREDICTABLE>
    27d0:	0902006f 	stmdbeq	r2, {r0, r1, r2, r3, r5, r6}
    27d4:	00003309 	andeq	r3, r0, r9, lsl #6
    27d8:	69090000 	stmdbvs	r9, {}	; <UNPREDICTABLE>
    27dc:	02007265 	andeq	r7, r0, #1342177286	; 0x50000006
    27e0:	0033090a 	eorseq	r0, r3, sl, lsl #18
    27e4:	09040000 	stmdbeq	r4, {}	; <UNPREDICTABLE>
    27e8:	00726969 	rsbseq	r6, r2, r9, ror #18
    27ec:	33091102 	movwcc	r1, #37122	; 0x9102
    27f0:	08000000 	stmdaeq	r0, {}	; <UNPREDICTABLE>
    27f4:	72636c09 	rsbvc	r6, r3, #2304	; 0x900
    27f8:	09130200 	ldmdbeq	r3, {r9}
    27fc:	00000033 	andeq	r0, r0, r3, lsr r0
    2800:	636d090c 	cmnvs	sp, #12, 18	; 0x30000
    2804:	14020072 	strne	r0, [r2], #-114	; 0xffffff8e
    2808:	00003309 	andeq	r3, r0, r9, lsl #6
    280c:	6c091000 	stcvs	0, cr1, [r9], {-0}
    2810:	02007273 	andeq	r7, r0, #805306375	; 0x30000007
    2814:	00330915 	eorseq	r0, r3, r5, lsl r9
    2818:	09140000 	ldmdbeq	r4, {}	; <UNPREDICTABLE>
    281c:	0072736d 	rsbseq	r7, r2, sp, ror #6
    2820:	33091602 	movwcc	r1, #38402	; 0x9602
    2824:	18000000 	stmdane	r0, {}	; <UNPREDICTABLE>
    2828:	00091d0a 	andeq	r1, r9, sl, lsl #26
    282c:	09170200 	ldmdbeq	r7, {r9}
    2830:	00000033 	andeq	r0, r0, r3, lsr r0
    2834:	08e60a1c 	stmiaeq	r6!, {r2, r3, r4, r9, fp}^
    2838:	1b020000 	blne	82840 <__bss_end__+0x78768>
    283c:	00003309 	andeq	r3, r0, r9, lsl #6
    2840:	980a2000 	stmdals	sl, {sp}
    2844:	02000007 	andeq	r0, r0, #7, 0
    2848:	0033091d 	eorseq	r0, r3, sp, lsl r9
    284c:	0a240000 	beq	902854 <__bss_end__+0x8f877c>
    2850:	00000838 	andeq	r0, r0, r8, lsr r8
    2854:	33091e02 	movwcc	r1, #40450	; 0x9e02
    2858:	28000000 	stmdacs	r0, {}	; <UNPREDICTABLE>
    285c:	083d0b00 	ldmdaeq	sp!, {r8, r9, fp}
    2860:	08010000 	stmdaeq	r1, {}	; <UNPREDICTABLE>
    2864:	00017409 	andeq	r7, r1, r9, lsl #8
    2868:	21500400 	cmpcs	r0, r0, lsl #8
    286c:	33040c20 	movwcc	r0, #19488	; 0x4c20
    2870:	0d000000 	stceq	0, cr0, [r0, #-0]
    2874:	0000016e 	andeq	r0, r0, lr, ror #2
    2878:	0007d10b 	andeq	sp, r7, fp, lsl #2
    287c:	23290100 			; <UNDEFINED> instruction: 0x23290100
    2880:	0000018f 	andeq	r0, r0, pc, lsl #3
    2884:	20215040 	eorcs	r5, r1, r0, asr #32
    2888:	00c2040c 	sbceq	r0, r2, ip, lsl #8
    288c:	890d0000 	stmdbhi	sp, {}	; <UNPREDICTABLE>
    2890:	0e000001 	cdpeq	0, 0, cr0, cr0, cr1, {0}
    2894:	0000064c 	andeq	r0, r0, ip, asr #12
    2898:	b006cc01 	andlt	ip, r6, r1, lsl #24
    289c:	14000091 	strne	r0, [r0], #-145	; 0xffffff6f
    28a0:	01000000 	mrseq	r0, (UNDEF: 0)
    28a4:	0001b49c 	muleq	r1, ip, r4
    28a8:	91b80f00 			; <UNDEFINED> instruction: 0x91b80f00
    28ac:	01b40000 			; <UNDEFINED> instruction: 0x01b40000
    28b0:	10000000 	andne	r0, r0, r0
    28b4:	000007d6 	ldrdeq	r0, [r0], -r6
    28b8:	2505b601 	strcs	fp, [r5, #-1537]	; 0xfffff9ff
    28bc:	90000000 	andls	r0, r0, r0
    28c0:	20000091 	mulcs	r0, r1, r0
    28c4:	01000000 	mrseq	r0, (UNDEF: 0)
    28c8:	0001eb9c 	muleq	r1, ip, fp
    28cc:	91980f00 	orrsls	r0, r8, r0, lsl #30
    28d0:	05a00000 	streq	r0, [r0, #0]!
    28d4:	a0110000 	andsge	r0, r1, r0
    28d8:	ac000091 	stcge	0, cr0, [r0], {145}	; 0x91
    28dc:	12000005 	andne	r0, r0, #5, 0
    28e0:	0c055001 	stceq	0, cr5, [r5], {1}
    28e4:	20215064 	eorcs	r5, r1, r4, rrx
    28e8:	f8100000 			; <UNDEFINED> instruction: 0xf8100000
    28ec:	01000008 	tsteq	r0, r8
    28f0:	002505b3 	strhteq	r0, [r5], -r3
    28f4:	91800000 	orrls	r0, r0, r0
    28f8:	00100000 	andseq	r0, r0, r0
    28fc:	9c010000 	stcls	0, cr0, [r1], {-0}
    2900:	00000218 	andeq	r0, r0, r8, lsl r2
    2904:	0091880f 	addseq	r8, r1, pc, lsl #16
    2908:	0005a000 	andeq	sl, r5, r0
    290c:	918c0f00 	orrls	r0, ip, r0, lsl #30
    2910:	03090000 	movweq	r0, #36864	; 0x9000
    2914:	0e000000 	cdpeq	0, 0, cr0, cr0, cr0, {0}
    2918:	000004d1 	ldrdeq	r0, [r0], -r1
    291c:	5006ab01 	andpl	sl, r6, r1, lsl #22
    2920:	30000091 	mulcc	r0, r1, r0
    2924:	01000000 	mrseq	r0, (UNDEF: 0)
    2928:	00027c9c 	muleq	r2, ip, ip
    292c:	00631300 	rsbeq	r1, r3, r0, lsl #6
    2930:	2c19ab01 			; <UNDEFINED> instruction: 0x2c19ab01
    2934:	2e000000 	cdpcs	0, 0, cr0, cr0, cr0, {0}
    2938:	2a000011 	bcs	2984 <__code_start__-0x567c>
    293c:	0f000011 	svceq	0x00000011
    2940:	0000915c 	andeq	r9, r0, ip, asr r1
    2944:	000005a0 	andeq	r0, r0, r0, lsr #11
    2948:	0091600f 	addseq	r6, r1, pc
    294c:	0002db00 	andeq	sp, r2, r0, lsl #22
    2950:	91741400 	cmnls	r4, r0, lsl #8
    2954:	05b80000 	ldreq	r0, [r8, #0]!
    2958:	02720000 	rsbseq	r0, r2, #0, 0
    295c:	01120000 	tsteq	r2, r0
    2960:	400c0550 	andmi	r0, ip, r0, asr r5
    2964:	12202150 	eorne	r2, r0, #20
    2968:	74055101 	strvc	r5, [r5], #-257	; 0xfffffeff
    296c:	1aff0800 	bne	fffc4974 <__bss_end__+0xfffba89c>
    2970:	91780f00 	cmnls	r8, r0, lsl #30
    2974:	05a00000 	streq	r0, [r0, #0]!
    2978:	10000000 	andne	r0, r0, r0
    297c:	00000849 	andeq	r0, r0, r9, asr #16
    2980:	2505a301 	strcs	sl, [r5, #-769]	; 0xfffffcff
    2984:	20000000 	andcs	r0, r0, r0
    2988:	30000091 	mulcc	r0, r1, r0
    298c:	01000000 	mrseq	r0, (UNDEF: 0)
    2990:	0002db9c 	muleq	r2, ip, fp
    2994:	00631500 	rsbeq	r1, r3, r0, lsl #10
    2998:	2509a701 	strcs	sl, [r9, #-1793]	; 0xfffff8ff
    299c:	4e000000 	cdpmi	0, 0, cr0, cr0, cr0, {0}
    29a0:	4c000011 	stcmi	0, cr0, [r0], {17}
    29a4:	0f000011 	svceq	0x00000011
    29a8:	00009128 	andeq	r9, r0, r8, lsr #2
    29ac:	000005a0 	andeq	r0, r0, r0, lsr #11
    29b0:	00912c0f 	addseq	r2, r1, pc, lsl #24
    29b4:	00030900 	andeq	r0, r3, r0, lsl #18
    29b8:	913c1400 	teqls	ip, r0, lsl #8
    29bc:	05ac0000 	streq	r0, [ip, #0]!
    29c0:	02d10000 	sbcseq	r0, r1, #0, 0
    29c4:	01120000 	tsteq	r2, r0
    29c8:	400c0550 	andmi	r0, ip, r0, asr r5
    29cc:	00202150 	eoreq	r2, r0, r0, asr r1
    29d0:	0091440f 	addseq	r4, r1, pc, lsl #8
    29d4:	0005a000 	andeq	sl, r5, r0
    29d8:	c3100000 	tstgt	r0, #0, 0
    29dc:	01000007 	tsteq	r0, r7
    29e0:	00250594 	mlaeq	r5, r4, r5, r0
    29e4:	91000000 	mrsls	r0, (UNDEF: 0)
    29e8:	00200000 	eoreq	r0, r0, r0
    29ec:	9c010000 	stcls	0, cr0, [r1], {-0}
    29f0:	00000309 	andeq	r0, r0, r9, lsl #6
    29f4:	00910c11 	addseq	r0, r1, r1, lsl ip
    29f8:	0005ac00 	andeq	sl, r5, r0, lsl #24
    29fc:	50011200 	andpl	r1, r1, r0, lsl #4
    2a00:	50640c05 	rsbpl	r0, r4, r5, lsl #24
    2a04:	00002021 	andeq	r2, r0, r1, lsr #32
    2a08:	00079d10 	andeq	r9, r7, r0, lsl sp
    2a0c:	058b0100 	streq	r0, [fp, #256]	; 0x100
    2a10:	00000025 	andeq	r0, r0, r5, lsr #32
    2a14:	000090e8 	andeq	r9, r0, r8, ror #1
    2a18:	00000018 	andeq	r0, r0, r8, lsl r0
    2a1c:	03379c01 	teqeq	r7, #256	; 0x100
    2a20:	f4110000 			; <UNDEFINED> instruction: 0xf4110000
    2a24:	ac000090 	stcge	0, cr0, [r0], {144}	; 0x90
    2a28:	12000005 	andne	r0, r0, #5, 0
    2a2c:	0c055001 	stceq	0, cr5, [r5], {1}
    2a30:	20215064 	eorcs	r5, r1, r4, rrx
    2a34:	6a0e0000 	bvs	382a3c <__bss_end__+0x378964>
    2a38:	01000006 	tsteq	r0, r6
    2a3c:	90380645 	eorsls	r0, r8, r5, asr #12
    2a40:	00b00000 	adcseq	r0, r0, r0
    2a44:	9c010000 	stcls	0, cr0, [r1], {-0}
    2a48:	00000484 	andeq	r0, r0, r4, lsl #9
    2a4c:	00078f16 	andeq	r8, r7, r6, lsl pc
    2a50:	0e7e0100 	rpweqe	f0, f6, f0
    2a54:	00000062 	andeq	r0, r0, r2, rrx
    2a58:	4814010e 	ldmdami	r4, {r1, r2, r3, r8}
    2a5c:	c4000090 	strgt	r0, [r0], #-144	; 0xffffff70
    2a60:	73000005 	movwvc	r0, #5
    2a64:	12000003 	andne	r0, r0, #3, 0
    2a68:	3e015001 	cdpcc	0, 0, cr5, cr1, cr1, {0}
    2a6c:	01510112 	cmpeq	r1, r2, lsl r1
    2a70:	54140032 	ldrpl	r0, [r4], #-50	; 0xffffffce
    2a74:	c4000090 	strgt	r0, [r0], #-144	; 0xffffff70
    2a78:	8b000005 	blhi	2a94 <__code_start__-0x556c>
    2a7c:	12000003 	andne	r0, r0, #3, 0
    2a80:	3f015001 	svccc	0x00015001
    2a84:	01510112 	cmpeq	r1, r2, lsl r1
    2a88:	580f0032 	stmdapl	pc, {r1, r4, r5}	; <UNPREDICTABLE>
    2a8c:	a0000090 	mulge	r0, r0, r0
    2a90:	14000005 	strne	r0, [r0], #-5
    2a94:	00009064 	andeq	r9, r0, r4, rrx
    2a98:	0000053d 	andeq	r0, r0, sp, lsr r5
    2a9c:	000003b0 			; <UNDEFINED> instruction: 0x000003b0
    2aa0:	05500112 	ldrbeq	r0, [r0, #-274]	; 0xfffffeee
    2aa4:	2150040c 	cmpcs	r0, ip, lsl #8
    2aa8:	51011220 	tstpl	r1, r0, lsr #4
    2aac:	0f003101 	svceq	0x00003101
    2ab0:	00009068 	andeq	r9, r0, r8, rrx
    2ab4:	000005a0 	andeq	r0, r0, r0, lsr #11
    2ab8:	00907814 	addseq	r7, r0, r4, lsl r8
    2abc:	0005b800 	andeq	fp, r5, r0, lsl #16
    2ac0:	0003d200 	andeq	sp, r3, r0, lsl #4
    2ac4:	50011200 	andpl	r1, r1, r0, lsl #4
    2ac8:	12007402 	andne	r7, r0, #33554432	; 0x2000000
    2acc:	30015101 	andcc	r5, r1, r1, lsl #2
    2ad0:	90841400 	addls	r1, r4, r0, lsl #8
    2ad4:	05b80000 	ldreq	r0, [r8, #0]!
    2ad8:	03ee0000 	mvneq	r0, #0, 0
    2adc:	01120000 	tsteq	r2, r0
    2ae0:	440c0550 	strmi	r0, [ip], #-1360	; 0xfffffab0
    2ae4:	12202150 	eorne	r2, r0, #20
    2ae8:	30015101 	andcc	r5, r1, r1, lsl #2
    2aec:	90901400 	addsls	r1, r0, r0, lsl #8
    2af0:	05b80000 	ldreq	r0, [r8, #0]!
    2af4:	040a0000 	streq	r0, [sl], #-0
    2af8:	01120000 	tsteq	r2, r0
    2afc:	4c0c0550 	cfstr32mi	mvfx0, [ip], {80}	; 0x50
    2b00:	12202150 	eorne	r2, r0, #20
    2b04:	33015101 	movwcc	r5, #4353	; 0x1101
    2b08:	909c1400 	addsls	r1, ip, r0, lsl #8
    2b0c:	05b80000 	ldreq	r0, [r8, #0]!
    2b10:	04260000 	strteq	r0, [r6], #-0
    2b14:	01120000 	tsteq	r2, r0
    2b18:	500c0550 	andpl	r0, ip, r0, asr r5
    2b1c:	12202150 	eorne	r2, r0, #20
    2b20:	30015101 	andcc	r5, r1, r1, lsl #2
    2b24:	90a81400 	adcls	r1, r8, r0, lsl #8
    2b28:	05b80000 	ldreq	r0, [r8, #0]!
    2b2c:	04430000 	strbeq	r0, [r3], #-0
    2b30:	01120000 	tsteq	r2, r0
    2b34:	480c0550 	stmdami	ip, {r4, r6, r8, sl}
    2b38:	12202150 	eorne	r2, r0, #20
    2b3c:	08025101 	stmdaeq	r2, {r0, r8, ip, lr}
    2b40:	b41400c7 	ldrlt	r0, [r4], #-199	; 0xffffff39
    2b44:	b8000090 	stmdalt	r0, {r4, r7}
    2b48:	61000005 	tstvs	r0, r5
    2b4c:	12000004 	andne	r0, r0, #4, 0
    2b50:	0c055001 	stceq	0, cr5, [r5], {1}
    2b54:	20215068 	eorcs	r5, r1, r8, rrx
    2b58:	03510112 	cmpeq	r1, #-2147483644	; 0x80000004
    2b5c:	00010e0a 	andeq	r0, r1, sl, lsl #28
    2b60:	0090c014 	addseq	ip, r0, r4, lsl r0
    2b64:	0005b800 	andeq	fp, r5, r0, lsl #16
    2b68:	00047a00 	andeq	r7, r4, r0, lsl #20
    2b6c:	50011200 	andpl	r1, r1, r0, lsl #4
    2b70:	12007402 	andne	r7, r0, #33554432	; 0x2000000
    2b74:	33015101 	movwcc	r5, #4353	; 0x1101
    2b78:	90c40f00 	sbcls	r0, r4, r0, lsl #30
    2b7c:	05a00000 	streq	r0, [r0, #0]!
    2b80:	0e000000 	cdpeq	0, 0, cr0, cr0, cr0, {0}
    2b84:	000008eb 	andeq	r0, r0, fp, ror #17
    2b88:	c4063501 	strgt	r3, [r6], #-1281	; 0xfffffaff
    2b8c:	24000091 	strcs	r0, [r0], #-145	; 0xffffff6f
    2b90:	01000000 	mrseq	r0, (UNDEF: 0)
    2b94:	0004d39c 	muleq	r4, ip, r3
    2b98:	91cc0f00 	bicls	r0, ip, r0, lsl #30
    2b9c:	01940000 	orrseq	r0, r4, r0
    2ba0:	d00f0000 	andle	r0, pc, r0
    2ba4:	a0000091 	mulge	r0, r1, r0
    2ba8:	14000005 	strne	r0, [r0], #-5
    2bac:	000091dc 	ldrdeq	r9, [r0], -ip
    2bb0:	000004d3 	ldrdeq	r0, [r0], -r3
    2bb4:	000004c9 	andeq	r0, r0, r9, asr #9
    2bb8:	05500112 	ldrbeq	r0, [r0, #-274]	; 0xfffffeee
    2bbc:	2150040c 	cmpcs	r0, ip, lsl #8
    2bc0:	51011220 	tstpl	r1, r0, lsr #4
    2bc4:	00fe0902 	rscseq	r0, lr, r2, lsl #18
    2bc8:	0091e00f 	addseq	lr, r1, pc
    2bcc:	0005a000 	andeq	sl, r5, r0
    2bd0:	65170000 	ldrvs	r0, [r7, #-0]
    2bd4:	01000009 	tsteq	r0, r9
    2bd8:	8ff80d31 	svchi	0x00f80d31
    2bdc:	00200000 	eoreq	r0, r0, r0
    2be0:	9c010000 	stcls	0, cr0, [r1], {-0}
    2be4:	00000536 	andeq	r0, r0, r6, lsr r5
    2be8:	0009b518 	andeq	fp, r9, r8, lsl r5
    2bec:	25310100 	ldrcs	r0, [r1, #-256]!	; 0xffffff00
    2bf0:	00000536 	andeq	r0, r0, r6, lsr r5
    2bf4:	00001165 	andeq	r1, r0, r5, ror #2
    2bf8:	00001161 	andeq	r1, r0, r1, ror #2
    2bfc:	6c617613 	stclvs	6, cr7, [r1], #-76	; 0xffffffb4
    2c00:	34310100 	ldrtcc	r0, [r1], #-256	; 0xffffff00
    2c04:	0000002c 	andeq	r0, r0, ip, lsr #32
    2c08:	00001187 	andeq	r1, r0, r7, lsl #3
    2c0c:	00001183 	andeq	r1, r0, r3, lsl #3
    2c10:	00900814 	addseq	r0, r0, r4, lsl r8
    2c14:	0005ac00 	andeq	sl, r5, r0, lsl #24
    2c18:	00052500 	andeq	r2, r5, r0, lsl #10
    2c1c:	50011200 	andpl	r1, r1, r0, lsl #4
    2c20:	00007402 	andeq	r7, r0, r2, lsl #8
    2c24:	00901411 	addseq	r1, r0, r1, lsl r4
    2c28:	0005b800 	andeq	fp, r5, r0, lsl #16
    2c2c:	50011200 	andpl	r1, r1, r0, lsl #4
    2c30:	00007402 	andeq	r7, r0, r2, lsl #8
    2c34:	3c040c00 	stccc	12, cr0, [r4], {-0}
    2c38:	19000005 	stmdbne	r0, {r0, r2}
    2c3c:	00091517 	andeq	r1, r9, r7, lsl r5
    2c40:	0d2e0100 	stfeqs	f0, [lr, #-0]
    2c44:	00009018 	andeq	r9, r0, r8, lsl r0
    2c48:	00000020 	andeq	r0, r0, r0, lsr #32
    2c4c:	05a09c01 	streq	r9, [r0, #3073]!	; 0xc01
    2c50:	b5180000 	ldrlt	r0, [r8, #-0]
    2c54:	01000009 	tsteq	r0, r9
    2c58:	0536242e 	ldreq	r2, [r6, #-1070]!	; 0xfffffbd2
    2c5c:	11a90000 			; <UNDEFINED> instruction: 0x11a90000
    2c60:	11a50000 			; <UNDEFINED> instruction: 0x11a50000
    2c64:	76130000 	ldrvc	r0, [r3], -r0
    2c68:	01006c61 	tsteq	r0, r1, ror #24
    2c6c:	002c332e 	eoreq	r3, ip, lr, lsr #6
    2c70:	11cb0000 	bicne	r0, fp, r0
    2c74:	11c70000 	bicne	r0, r7, r0
    2c78:	28140000 	ldmdacs	r4, {}	; <UNPREDICTABLE>
    2c7c:	ac000090 	stcge	0, cr0, [r0], {144}	; 0x90
    2c80:	8f000005 	svchi	0x00000005
    2c84:	12000005 	andne	r0, r0, #5, 0
    2c88:	74025001 	strvc	r5, [r2], #-1
    2c8c:	34110000 	ldrcc	r0, [r1], #-0
    2c90:	b8000090 	stmdalt	r0, {r4, r7}
    2c94:	12000005 	andne	r0, r0, #5, 0
    2c98:	74025001 	strvc	r5, [r2], #-1
    2c9c:	1a000000 	bne	2ca4 <__code_start__-0x535c>
    2ca0:	00000734 	andeq	r0, r0, r4, lsr r7
    2ca4:	00000734 	andeq	r0, r0, r4, lsr r7
    2ca8:	1a069c03 	bne	1a9cbc <__bss_end__+0x19fbe4>
    2cac:	00000990 	muleq	r0, r0, r9
    2cb0:	00000990 	muleq	r0, r0, r9
    2cb4:	1a0bc303 	bne	2f38c8 <__bss_end__+0x2e97f0>
    2cb8:	00000832 	andeq	r0, r0, r2, lsr r8
    2cbc:	00000832 	andeq	r0, r0, r2, lsr r8
    2cc0:	1a06ae03 	bne	1ae4d4 <__bss_end__+0x1a43fc>
    2cc4:	0000097e 	andeq	r0, r0, lr, ror r9
    2cc8:	0000097e 	andeq	r0, r0, lr, ror r9
    2ccc:	00061904 	andeq	r1, r6, r4, lsl #18
    2cd0:	000008e9 	andeq	r0, r0, r9, ror #17
    2cd4:	0e690004 	cdpeq	0, 6, cr0, cr9, cr4, {0}
    2cd8:	01040000 	mrseq	r0, (UNDEF: 4)
    2cdc:	00000853 	andeq	r0, r0, r3, asr r8
    2ce0:	000a490c 	andeq	r4, sl, ip, lsl #18
    2ce4:	00093100 	andeq	r3, r9, r0, lsl #2
    2ce8:	0091e800 	addseq	lr, r1, r0, lsl #16
    2cec:	0003b000 	andeq	fp, r3, r0
    2cf0:	00151200 	andseq	r1, r5, r0, lsl #4
    2cf4:	05040200 	streq	r0, [r4, #-512]	; 0xfffffe00
    2cf8:	00746e69 	rsbseq	r6, r4, r9, ror #28
    2cfc:	c5070403 	strgt	r0, [r7, #-1027]	; 0xfffffbfd
    2d00:	03000001 	movweq	r0, #1
    2d04:	01780601 	cmneq	r8, r1, lsl #12
    2d08:	02030000 	andeq	r0, r3, #0, 0
    2d0c:	00002a05 	andeq	r2, r0, r5, lsl #20
    2d10:	05040300 	streq	r0, [r4, #-768]	; 0xfffffd00
    2d14:	000000e4 	andeq	r0, r0, r4, ror #1
    2d18:	df050803 	svcle	0x00050803
    2d1c:	03000000 	movweq	r0, #0
    2d20:	01760801 	cmneq	r6, r1, lsl #16
    2d24:	02030000 	andeq	r0, r3, #0, 0
    2d28:	00021407 	andeq	r1, r2, r7, lsl #8
    2d2c:	01d90400 	bicseq	r0, r9, r0, lsl #8
    2d30:	34030000 	strcc	r0, [r3], #-0
    2d34:	00006919 	andeq	r6, r0, r9, lsl r9
    2d38:	07040300 	streq	r0, [r4, -r0, lsl #6]
    2d3c:	000001c0 	andeq	r0, r0, r0, asr #3
    2d40:	bb070803 	bllt	1c4d54 <__bss_end__+0x1bac7c>
    2d44:	03000001 	movweq	r0, #1
    2d48:	017f0801 	cmneq	pc, r1, lsl #16
    2d4c:	77050000 	strvc	r0, [r5, -r0]
    2d50:	03000000 	movweq	r0, #0
    2d54:	0a6b0408 	beq	1ac3d7c <__bss_end__+0x1ab9ca4>
    2d58:	04060000 	streq	r0, [r6], #-0
    2d5c:	2c040707 	stccs	7, cr0, [r4], {7}
    2d60:	01000000 	mrseq	r0, (UNDEF: 0)
    2d64:	00a4061f 	adceq	r0, r4, pc, lsl r6
    2d68:	c0080000 	andgt	r0, r8, r0
    2d6c:	00000009 	andeq	r0, r0, r9
    2d70:	00002000 	andeq	r2, r0, r0
    2d74:	00055f09 	andeq	r5, r5, r9, lsl #30
    2d78:	0d220100 	stfeqs	f0, [r2, #-0]
    2d7c:	00000077 	andeq	r0, r0, r7, ror r0
    2d80:	0009ec0a 	andeq	lr, r9, sl, lsl #24
    2d84:	0e230100 	sufeqs	f0, f3, f0
    2d88:	000000c2 	andeq	r0, r0, r2, asr #1
    2d8c:	9cc40305 	stclls	3, cr0, [r4], {5}
    2d90:	040b0000 	streq	r0, [fp], #-0
    2d94:	00000077 	andeq	r0, r0, r7, ror r0
    2d98:	00099e0a 	andeq	r9, r9, sl, lsl #28
    2d9c:	0e240100 	sufeqs	f0, f4, f0
    2da0:	000000c2 	andeq	r0, r0, r2, asr #1
    2da4:	9cc80305 	stclls	3, cr0, [r8], {5}
    2da8:	e30a0000 	movw	r0, #40960	; 0xa000
    2dac:	01000009 	tsteq	r0, r9
    2db0:	00c20e25 	sbceq	r0, r2, r5, lsr #28
    2db4:	03050000 	movweq	r0, #20480	; 0x5000
    2db8:	00009ccc 	andeq	r9, r0, ip, asr #25
    2dbc:	0009f80c 	andeq	pc, r9, ip, lsl #16
    2dc0:	06750100 	ldrbteq	r0, [r5], -r0, lsl #2
    2dc4:	00009538 	andeq	r9, r0, r8, lsr r5
    2dc8:	00000060 	andeq	r0, r0, r0, rrx
    2dcc:	01649c01 	cmneq	r4, r1, lsl #24
    2dd0:	700d0000 	andvc	r0, sp, r0
    2dd4:	16750100 	ldrbtne	r0, [r5], -r0, lsl #2
    2dd8:	0000008a 	andeq	r0, r0, sl, lsl #1
    2ddc:	000011ef 	andeq	r1, r0, pc, ror #3
    2de0:	000011e9 	andeq	r1, r0, r9, ror #3
    2de4:	0001180e 	andeq	r1, r1, lr, lsl #16
    2de8:	00017400 	andeq	r7, r1, r0, lsl #8
    2dec:	b0030500 	andlt	r0, r3, r0, lsl #10
    2df0:	0f00009c 	svceq	0x0000009c
    2df4:	00009584 	andeq	r9, r0, r4, lsl #11
    2df8:	000008bc 			; <UNDEFINED> instruction: 0x000008bc
    2dfc:	0000015a 	andeq	r0, r0, sl, asr r1
    2e00:	05500110 	ldrbeq	r0, [r0, #-272]	; 0xfffffef0
    2e04:	009c2803 	addseq	r2, ip, r3, lsl #16
    2e08:	51011000 	mrspl	r1, (UNDEF: 1)
    2e0c:	9ac00305 	bls	ff003a28 <__bss_end__+0xfeff9950>
    2e10:	01100000 	tsteq	r0, r0
    2e14:	b0030552 	andlt	r0, r3, r2, asr r5
    2e18:	1000009c 	mulne	r0, ip, r0
    2e1c:	08025301 	stmdaeq	r2, {r0, r8, r9, ip, lr}
    2e20:	7d021077 	stcvc	0, cr1, [r2, #-476]	; 0xfffffe24
    2e24:	01f30300 	mvnseq	r0, r0, lsl #6
    2e28:	88110050 	ldmdahi	r1, {r4, r6}
    2e2c:	c8000095 	stmdagt	r0, {r0, r2, r4, r7}
    2e30:	00000008 	andeq	r0, r0, r8
    2e34:	00007e12 	andeq	r7, r0, r2, lsl lr
    2e38:	00017400 	andeq	r7, r1, r0, lsl #8
    2e3c:	002c1300 	eoreq	r1, ip, r0, lsl #6
    2e40:	00090000 	andeq	r0, r9, r0
    2e44:	00016405 	andeq	r6, r1, r5, lsl #8
    2e48:	09c91400 	stmibeq	r9, {sl, ip}^
    2e4c:	72010000 	andvc	r0, r1, #0, 0
    2e50:	00952406 	addseq	r2, r5, r6, lsl #8
    2e54:	00001400 	andeq	r1, r0, r0, lsl #8
    2e58:	0c9c0100 	ldfeqs	f0, [ip], {0}
    2e5c:	000009ba 			; <UNDEFINED> instruction: 0x000009ba
    2e60:	20066f01 	andcs	r6, r6, r1, lsl #30
    2e64:	04000095 	streq	r0, [r0], #-149	; 0xffffff6b
    2e68:	01000000 	mrseq	r0, (UNDEF: 0)
    2e6c:	0001ae9c 	muleq	r1, ip, lr
    2e70:	00701500 	rsbseq	r1, r0, r0, lsl #10
    2e74:	8a126f01 	bhi	49ea80 <__bss_end__+0x4949a8>
    2e78:	01000000 	mrseq	r0, (UNDEF: 0)
    2e7c:	31160050 	tstcc	r6, r0, asr r0
    2e80:	0100000a 	tsteq	r0, sl
    2e84:	008a075e 	addeq	r0, sl, lr, asr r7
    2e88:	94080000 	strls	r0, [r8], #-0
    2e8c:	01180000 	tsteq	r8, r0
    2e90:	9c010000 	stcls	0, cr0, [r1], {-0}
    2e94:	0000042c 	andeq	r0, r0, ip, lsr #8
    2e98:	0009ad17 	andeq	sl, r9, r7, lsl sp
    2e9c:	205e0100 	subscs	r0, lr, r0, lsl #2
    2ea0:	0000002c 	andeq	r0, r0, ip, lsr #32
    2ea4:	00001230 	andeq	r1, r0, r0, lsr r2
    2ea8:	0000121c 	andeq	r1, r0, ip, lsl r2
    2eac:	000a0917 	andeq	r0, sl, r7, lsl r9
    2eb0:	315e0100 	cmpcc	lr, r0, lsl #2
    2eb4:	0000002c 	andeq	r0, r0, ip, lsr #32
    2eb8:	000012c9 	andeq	r1, r0, r9, asr #5
    2ebc:	000012b5 			; <UNDEFINED> instruction: 0x000012b5
    2ec0:	0001180e 	andeq	r1, r1, lr, lsl #16
    2ec4:	00043c00 	andeq	r3, r4, r0, lsl #24
    2ec8:	98030500 	stmdals	r3, {r8, sl}
    2ecc:	1800009c 	stmdane	r0, {r2, r3, r4, r7}
    2ed0:	66010068 	strvs	r0, [r1], -r8, rrx
    2ed4:	00002c0e 	andeq	r2, r0, lr, lsl #24
    2ed8:	00137f00 	andseq	r7, r3, r0, lsl #30
    2edc:	00137300 	andseq	r7, r3, r0, lsl #6
    2ee0:	08541900 	ldmdaeq	r4, {r8, fp, ip}^
    2ee4:	94180000 	ldrls	r0, [r8], #-0
    2ee8:	18040000 	stmdane	r4, {}	; <UNPREDICTABLE>
    2eec:	04000094 	streq	r0, [r0], #-148	; 0xffffff6c
    2ef0:	01000000 	mrseq	r0, (UNDEF: 0)
    2ef4:	02380560 	eorseq	r0, r8, #96, 10	; 0x18000000
    2ef8:	651a0000 	ldrvs	r0, [sl, #-0]
    2efc:	d3000008 	movwle	r0, #8
    2f00:	d1000013 	tstle	r0, r3, lsl r0
    2f04:	00000013 	andeq	r0, r0, r3, lsl r0
    2f08:	00089619 	andeq	r9, r8, r9, lsl r6
    2f0c:	00942400 	addseq	r2, r4, r0, lsl #8
    2f10:	94240200 	strtls	r0, [r4], #-512	; 0xfffffe00
    2f14:	00080000 	andeq	r0, r8, r0
    2f18:	61010000 	mrsvs	r0, (UNDEF: 1)
    2f1c:	00026c11 	andeq	r6, r2, r1, lsl ip
    2f20:	08b11a00 	ldmeq	r1!, {r9, fp, ip}
    2f24:	13e80000 	mvnne	r0, #0, 0
    2f28:	13e60000 	mvnne	r0, #0, 0
    2f2c:	a71a0000 	ldrge	r0, [sl, -r0]
    2f30:	fe000008 	cdp2	0, 0, cr0, cr0, cr8, {0}
    2f34:	fc000013 	stc2	0, cr0, [r0], {19}
    2f38:	00000013 	andeq	r0, r0, r3, lsl r0
    2f3c:	00081f1b 	andeq	r1, r8, fp, lsl pc
    2f40:	00943400 	addseq	r3, r4, r0, lsl #8
    2f44:	00980100 	addseq	r0, r8, r0, lsl #2
    2f48:	67010000 	strvs	r0, [r1, -r0]
    2f4c:	00030a09 	andeq	r0, r3, r9, lsl #20
    2f50:	083a1a00 	ldmdaeq	sl!, {r9, fp, ip}
    2f54:	14170000 	ldrne	r0, [r7], #-0
    2f58:	14110000 	ldrne	r0, [r1], #-0
    2f5c:	301a0000 	andscc	r0, sl, r0
    2f60:	5e000008 	cdppl	0, 0, cr0, cr0, cr8, {0}
    2f64:	56000014 			; <UNDEFINED> instruction: 0x56000014
    2f68:	1c000014 	stcne	0, cr0, [r0], {20}
    2f6c:	00000098 	muleq	r0, r8, r0
    2f70:	00085419 	andeq	r5, r8, r9, lsl r4
    2f74:	00943400 	addseq	r3, r4, r0, lsl #8
    2f78:	94340400 	ldrtls	r0, [r4], #-1024	; 0xfffffc00
    2f7c:	00040000 	andeq	r0, r4, r0
    2f80:	11010000 	mrsne	r0, (UNDEF: 1)
    2f84:	0002c705 	andeq	ip, r2, r5, lsl #14
    2f88:	08651a00 	stmdaeq	r5!, {r9, fp, ip}^
    2f8c:	149c0000 	ldrne	r0, [ip], #0
    2f90:	149a0000 	ldrne	r0, [sl], #0
    2f94:	0f000000 	svceq	0x00000000
    2f98:	000094cc 	andeq	r9, r0, ip, asr #9
    2f9c:	000008bc 			; <UNDEFINED> instruction: 0x000008bc
    2fa0:	000002ff 	strdeq	r0, [r0], -pc	; <UNPREDICTABLE>
    2fa4:	05500110 	ldrbeq	r0, [r0, #-272]	; 0xfffffef0
    2fa8:	0097c003 	addseq	ip, r7, r3
    2fac:	51011000 	mrspl	r1, (UNDEF: 1)
    2fb0:	9ac00305 	bls	ff003bcc <__bss_end__+0xfeff9af4>
    2fb4:	01100000 	tsteq	r0, r0
    2fb8:	a8030552 	stmdage	r3, {r1, r4, r6, r8, sl}
    2fbc:	1000009c 	mulne	r0, ip, r0
    2fc0:	41015301 	tstmi	r1, r1, lsl #6
    2fc4:	007d0210 	rsbseq	r0, sp, r0, lsl r2
    2fc8:	9bd40305 	blls	ff503be4 <__bss_end__+0xff4f9b0c>
    2fcc:	11000000 	mrsne	r0, (UNDEF: 0)
    2fd0:	000094d0 	ldrdeq	r9, [r0], -r0
    2fd4:	000008c8 	andeq	r0, r0, r8, asr #17
    2fd8:	70190000 	andsvc	r0, r9, r0
    2fdc:	4c000008 	stcmi	0, cr0, [r0], {8}
    2fe0:	03000094 	movweq	r0, #148	; 0x94
    2fe4:	0000944c 	andeq	r9, r0, ip, asr #8
    2fe8:	00000004 	andeq	r0, r0, r4
    2fec:	3e056801 	cdpcc	8, 0, cr6, cr5, cr1, {0}
    2ff0:	1a000003 	bne	3004 <__code_start__-0x4ffc>
    2ff4:	0000088b 	andeq	r0, r0, fp, lsl #17
    2ff8:	000014b1 			; <UNDEFINED> instruction: 0x000014b1
    2ffc:	000014af 	andeq	r1, r0, pc, lsr #9
    3000:	0008811a 	andeq	r8, r8, sl, lsl r1
    3004:	0014c600 	andseq	ip, r4, r0, lsl #12
    3008:	0014c400 	andseq	ip, r4, r0, lsl #8
    300c:	640f0000 	strvs	r0, [pc], #-0	; 3014 <__code_start__-0x4fec>
    3010:	41000094 	swpmi	r0, r4, [r0]	; <UNPREDICTABLE>
    3014:	53000004 	movwpl	r0, #4
    3018:	10000003 	andne	r0, r0, r3
    301c:	f3035001 	vhadd.u8	d5, d3, d1
    3020:	0f005001 	svceq	0x00005001
    3024:	00009488 	andeq	r9, r0, r8, lsl #9
    3028:	000008bc 			; <UNDEFINED> instruction: 0x000008bc
    302c:	0000038c 	andeq	r0, r0, ip, lsl #7
    3030:	05500110 	ldrbeq	r0, [r0, #-272]	; 0xfffffef0
    3034:	0097c003 	addseq	ip, r7, r3
    3038:	51011000 	mrspl	r1, (UNDEF: 1)
    303c:	9ac00305 	bls	ff003c58 <__bss_end__+0xfeff9b80>
    3040:	01100000 	tsteq	r0, r0
    3044:	98030552 	stmdals	r3, {r1, r4, r6, r8, sl}
    3048:	1000009c 	mulne	r0, ip, r0
    304c:	08025301 	stmdaeq	r2, {r0, r8, r9, ip, lr}
    3050:	7d02105f 	stcvc	0, cr1, [r2, #-380]	; 0xfffffe84
    3054:	d0030500 	andle	r0, r3, r0, lsl #10
    3058:	0000009a 	muleq	r0, sl, r0
    305c:	00948c11 	addseq	r8, r4, r1, lsl ip
    3060:	0008c800 	andeq	ip, r8, r0, lsl #16
    3064:	94901100 	ldrls	r1, [r0], #256	; 0x100
    3068:	08d40000 	ldmeq	r4, {}^	; <UNPREDICTABLE>
    306c:	ac0f0000 	stcge	0, cr0, [pc], {-0}
    3070:	bc000094 	stclt	0, cr0, [r0], {148}	; 0x94
    3074:	d7000008 	strle	r0, [r0, -r8]
    3078:	10000003 	andne	r0, r0, r3
    307c:	03055001 	movweq	r5, #20481	; 0x5001
    3080:	00009b8c 	andeq	r9, r0, ip, lsl #23
    3084:	05510110 	ldrbeq	r0, [r1, #-272]	; 0xfffffef0
    3088:	009ac003 	addseq	ip, sl, r3
    308c:	52011000 	andpl	r1, r1, #0, 0
    3090:	9c980305 	ldcls	3, cr0, [r8], {5}
    3094:	01100000 	tsteq	r0, r0
    3098:	60080253 	andvs	r0, r8, r3, asr r2
    309c:	007d0210 	rsbseq	r0, sp, r0, lsl r2
    30a0:	9bc00305 	blls	ff003cbc <__bss_end__+0xfeff9be4>
    30a4:	11000000 	mrsne	r0, (UNDEF: 0)
    30a8:	000094b0 			; <UNDEFINED> instruction: 0x000094b0
    30ac:	000008c8 	andeq	r0, r0, r8, asr #17
    30b0:	0094d411 	addseq	sp, r4, r1, lsl r4
    30b4:	0008d400 	andeq	sp, r8, r0, lsl #8
    30b8:	94f00f00 	ldrbtls	r0, [r0], #3840	; 0xf00
    30bc:	08bc0000 	ldmeq	ip!, {}	; <UNPREDICTABLE>
    30c0:	04220000 	strteq	r0, [r2], #-0
    30c4:	01100000 	tsteq	r0, r0
    30c8:	e0030550 	and	r0, r3, r0, asr r5
    30cc:	1000009b 	mulne	r0, fp, r0
    30d0:	03055101 	movweq	r5, #20737	; 0x5101
    30d4:	00009ac0 	andeq	r9, r0, r0, asr #21
    30d8:	05520110 	ldrbeq	r0, [r2, #-272]	; 0xfffffef0
    30dc:	009c9803 	addseq	r9, ip, r3, lsl #16
    30e0:	53011000 	movwpl	r1, #4096	; 0x1000
    30e4:	10680802 	rsbne	r0, r8, r2, lsl #16
    30e8:	05007d02 	streq	r7, [r0, #-3330]	; 0xfffff2fe
    30ec:	009c0c03 	addseq	r0, ip, r3, lsl #24
    30f0:	f4110000 			; <UNDEFINED> instruction: 0xf4110000
    30f4:	c8000094 	stmdagt	r0, {r2, r4, r7}
    30f8:	00000008 	andeq	r0, r0, r8
    30fc:	00007e12 	andeq	r7, r0, r2, lsl lr
    3100:	00043c00 	andeq	r3, r4, r0, lsl #24
    3104:	002c1300 	eoreq	r1, ip, r0, lsl #6
    3108:	000f0000 	andeq	r0, pc, r0
    310c:	00042c05 	andeq	r2, r4, r5, lsl #24
    3110:	03c71600 	biceq	r1, r7, #0, 12
    3114:	53010000 	movwpl	r0, #4096	; 0x1000
    3118:	00008a07 	andeq	r8, r0, r7, lsl #20
    311c:	0093a400 	addseq	sl, r3, r0, lsl #8
    3120:	00006400 	andeq	r6, r0, r0, lsl #8
    3124:	089c0100 	ldmeq	ip, {r8}
    3128:	17000005 	strne	r0, [r0, -r5]
    312c:	000009ad 	andeq	r0, r0, sp, lsr #19
    3130:	2c185301 	ldccs	3, cr5, [r8], {1}
    3134:	e1000000 	mrs	r0, (UNDEF: 0)
    3138:	d9000014 	stmdble	r0, {r2, r4}
    313c:	0e000014 	mcreq	0, 0, r0, cr0, cr4, {0}
    3140:	00000118 	andeq	r0, r0, r8, lsl r1
    3144:	00000518 	andeq	r0, r0, r8, lsl r5
    3148:	9c900305 	ldcls	3, cr0, [r0], {5}
    314c:	b51d0000 	ldrlt	r0, [sp, #-0]
    3150:	01000009 	tsteq	r0, r9
    3154:	008a0b55 	addeq	r0, sl, r5, asr fp
    3158:	15190000 	ldrne	r0, [r9, #-0]
    315c:	15150000 	ldrne	r0, [r5, #-0]
    3160:	bc0f0000 	stclt	0, cr0, [pc], {-0}
    3164:	1d000093 	stcne	0, cr0, [r0, #-588]	; 0xfffffdb4
    3168:	a6000005 	strge	r0, [r0], -r5
    316c:	10000004 	andne	r0, r0, r4
    3170:	74025001 	strvc	r5, [r2], #-1
    3174:	cc0f0000 	stcgt	0, cr0, [pc], {-0}
    3178:	e0000093 	mul	r0, r3, r0
    317c:	c5000008 	strgt	r0, [r0, #-8]
    3180:	10000004 	andne	r0, r0, r4
    3184:	75025001 	strvc	r5, [r2, #-1]
    3188:	51011000 	mrspl	r1, (UNDEF: 1)
    318c:	01103001 	tsteq	r0, r1
    3190:	00740252 	rsbseq	r0, r4, r2, asr r2
    3194:	93f40f00 	mvnsls	r0, #0, 30
    3198:	08bc0000 	ldmeq	ip!, {}	; <UNPREDICTABLE>
    319c:	04fe0000 	ldrbteq	r0, [lr], #0
    31a0:	01100000 	tsteq	r0, r0
    31a4:	c0030550 	andgt	r0, r3, r0, asr r5
    31a8:	10000097 	mulne	r0, r7, r0
    31ac:	03055101 	movweq	r5, #20737	; 0x5101
    31b0:	00009ac0 	andeq	r9, r0, r0, asr #21
    31b4:	05520110 	ldrbeq	r0, [r2, #-272]	; 0xfffffef0
    31b8:	009c9003 	addseq	r9, ip, r3
    31bc:	53011000 	movwpl	r1, #4096	; 0x1000
    31c0:	10540802 	subsne	r0, r4, r2, lsl #16
    31c4:	05007d02 	streq	r7, [r0, #-3330]	; 0xfffff2fe
    31c8:	009ad003 	addseq	sp, sl, r3
    31cc:	f8110000 			; <UNDEFINED> instruction: 0xf8110000
    31d0:	c8000093 	stmdagt	r0, {r0, r1, r4, r7}
    31d4:	00000008 	andeq	r0, r0, r8
    31d8:	00007e12 	andeq	r7, r0, r2, lsl lr
    31dc:	00051800 	andeq	r1, r5, r0, lsl #16
    31e0:	002c1300 	eoreq	r1, ip, r0, lsl #6
    31e4:	00070000 	andeq	r0, r7, r0
    31e8:	00050805 	andeq	r0, r5, r5, lsl #16
    31ec:	0a211600 	beq	8489f4 <__bss_end__+0x83e91c>
    31f0:	47010000 	strmi	r0, [r1, -r0]
    31f4:	00008a07 	andeq	r8, r0, r7, lsl #20
    31f8:	00930c00 	addseq	r0, r3, r0, lsl #24
    31fc:	00009800 	andeq	r9, r0, r0, lsl #16
    3200:	2b9c0100 	blcs	fe703608 <__bss_end__+0xfe6f9530>
    3204:	17000006 	strne	r0, [r0, -r6]
    3208:	000009ad 	andeq	r0, r0, sp, lsr #19
    320c:	2c204701 	stccs	7, cr4, [r0], #-4
    3210:	47000000 	strmi	r0, [r0, -r0]
    3214:	37000015 	smladcc	r0, r5, r0, r0
    3218:	0e000015 	mcreq	0, 0, r0, cr0, cr5, {0}
    321c:	00000118 	andeq	r0, r0, r8, lsl r1
    3220:	0000043c 	andeq	r0, r0, ip, lsr r4
    3224:	9c800305 	stcls	3, cr0, [r0], {5}
    3228:	b51d0000 	ldrlt	r0, [sp, #-0]
    322c:	01000009 	tsteq	r0, r9
    3230:	008a0b4b 	addeq	r0, sl, fp, asr #22
    3234:	15b90000 	ldrne	r0, [r9, #0]!
    3238:	15b50000 	ldrne	r0, [r5, #0]!
    323c:	1f1b0000 	svcne	0x001b0000
    3240:	1c000008 	stcne	0, cr0, [r0], {8}
    3244:	03000093 	movweq	r0, #147	; 0x93
    3248:	00000080 	andeq	r0, r0, r0, lsl #1
    324c:	a30e4901 	movwge	r4, #59649	; 0xe901
    3250:	1a000005 	bne	326c <__code_start__-0x4d94>
    3254:	0000083a 	andeq	r0, r0, sl, lsr r8
    3258:	000015d9 	ldrdeq	r1, [r0], -r9
    325c:	000015d7 	ldrdeq	r1, [r0], -r7
    3260:	0008301a 	andeq	r3, r8, sl, lsl r0
    3264:	0015f100 	andseq	pc, r5, r0, lsl #2
    3268:	0015ed00 	andseq	lr, r5, r0, lsl #26
    326c:	00801e00 	addeq	r1, r0, r0, lsl #28
    3270:	0f000000 	svceq	0x00000000
    3274:	00009364 	andeq	r9, r0, r4, ror #6
    3278:	000008bc 			; <UNDEFINED> instruction: 0x000008bc
    327c:	000005dc 	ldrdeq	r0, [r0], -ip
    3280:	05500110 	ldrbeq	r0, [r0, #-272]	; 0xfffffef0
    3284:	0097c003 	addseq	ip, r7, r3
    3288:	51011000 	mrspl	r1, (UNDEF: 1)
    328c:	9ac00305 	bls	ff003ea8 <__bss_end__+0xfeff9dd0>
    3290:	01100000 	tsteq	r0, r0
    3294:	80030552 	andhi	r0, r3, r2, asr r5
    3298:	1000009c 	mulne	r0, ip, r0
    329c:	08025301 	stmdaeq	r2, {r0, r8, r9, ip, lr}
    32a0:	7d021048 	stcvc	0, cr1, [r2, #-288]	; 0xfffffee0
    32a4:	d0030500 	andle	r0, r3, r0, lsl #10
    32a8:	0000009a 	muleq	r0, sl, r0
    32ac:	00936811 	addseq	r6, r3, r1, lsl r8
    32b0:	0008c800 	andeq	ip, r8, r0, lsl #16
    32b4:	93880f00 	orrls	r0, r8, #0, 30
    32b8:	08bc0000 	ldmeq	ip!, {}	; <UNPREDICTABLE>
    32bc:	06210000 	strteq	r0, [r1], -r0
    32c0:	01100000 	tsteq	r0, r0
    32c4:	4c030550 	cfstr32mi	mvfx0, [r3], {80}	; 0x50
    32c8:	1000009b 	mulne	r0, fp, r0
    32cc:	03055101 	movweq	r5, #20737	; 0x5101
    32d0:	00009ac0 	andeq	r9, r0, r0, asr #21
    32d4:	05520110 	ldrbeq	r0, [r2, #-272]	; 0xfffffef0
    32d8:	009c8003 	addseq	r8, ip, r3
    32dc:	53011000 	movwpl	r1, #4096	; 0x1000
    32e0:	104e0802 	subne	r0, lr, r2, lsl #16
    32e4:	08007d02 	stmdaeq	r0, {r1, r8, sl, fp, ip, sp, lr}
    32e8:	235001f3 	cmpcs	r0, #-1073741764	; 0xc000003c
    32ec:	1af80907 	bne	ffe05710 <__bss_end__+0xffdfb638>
    32f0:	938c1100 	orrls	r1, ip, #0
    32f4:	08c80000 	stmiaeq	r8, {}^	; <UNPREDICTABLE>
    32f8:	0c000000 	stceq	0, cr0, [r0], {-0}
    32fc:	00000a53 	andeq	r0, r0, r3, asr sl
    3300:	b4063c01 	strlt	r3, [r6], #-3073	; 0xfffff3ff
    3304:	58000092 	stmdapl	r0, {r1, r4, r7}
    3308:	01000000 	mrseq	r0, (UNDEF: 0)
    330c:	0006cf9c 	muleq	r6, ip, pc	; <UNPREDICTABLE>
    3310:	09f10a00 	ldmibeq	r1!, {r9, fp}^
    3314:	3d010000 	stccc	0, cr0, [r1, #-0]
    3318:	00002510 	andeq	r2, r0, r0, lsl r5
    331c:	d4030500 	strle	r0, [r3], #-1280	; 0xfffffb00
    3320:	0e0000a0 	cdpeq	0, 0, cr0, cr0, cr0, {5}
    3324:	00000118 	andeq	r0, r0, r8, lsl r1
    3328:	000006df 	ldrdeq	r0, [r0], -pc	; <UNPREDICTABLE>
    332c:	9c700305 	ldclls	3, cr0, [r0], #-20	; 0xffffffec
    3330:	07070000 	streq	r0, [r7, -r0]
    3334:	00002c04 	andeq	r2, r0, r4, lsl #24
    3338:	0a420100 	beq	1083740 <__bss_end__+0x1079668>
    333c:	0000067a 	andeq	r0, r0, sl, ror r6
    3340:	000a1b08 	andeq	r1, sl, r8, lsl #22
    3344:	10000000 	andne	r0, r0, r0
    3348:	e00f0000 	and	r0, pc, r0
    334c:	e4000092 	str	r0, [r0], #-146	; 0xffffff6e
    3350:	96000006 	strls	r0, [r0], -r6
    3354:	10000006 	andne	r0, r0, r6
    3358:	40035001 	andmi	r5, r3, r1
    335c:	01102440 	tsteq	r0, r0, asr #8
    3360:	48400351 	stmdami	r0, {r0, r4, r6, r8, r9}^
    3364:	f80f0024 			; <UNDEFINED> instruction: 0xf80f0024
    3368:	bc000092 	stclt	0, cr0, [r0], {146}	; 0x92
    336c:	c5000008 	strgt	r0, [r0, #-8]
    3370:	10000006 	andne	r0, r0, r6
    3374:	03055001 	movweq	r5, #20481	; 0x5001
    3378:	00009b1c 	andeq	r9, r0, ip, lsl fp
    337c:	05510110 	ldrbeq	r0, [r1, #-272]	; 0xfffffef0
    3380:	009ac003 	addseq	ip, sl, r3
    3384:	52011000 	andpl	r1, r1, #0, 0
    3388:	9c700305 	ldclls	3, cr0, [r0], #-20	; 0xffffffec
    338c:	01100000 	tsteq	r0, r0
    3390:	40080253 	andmi	r0, r8, r3, asr r2
    3394:	92fc1100 	rscsls	r1, ip, #0
    3398:	08c80000 	stmiaeq	r8, {}^	; <UNPREDICTABLE>
    339c:	12000000 	andne	r0, r0, #0, 0
    33a0:	0000007e 	andeq	r0, r0, lr, ror r0
    33a4:	000006df 	ldrdeq	r0, [r0], -pc	; <UNPREDICTABLE>
    33a8:	00002c13 	andeq	r2, r0, r3, lsl ip
    33ac:	05000c00 	streq	r0, [r0, #-3072]	; 0xfffff400
    33b0:	000006cf 	andeq	r0, r0, pc, asr #13
    33b4:	000a830c 	andeq	r8, sl, ip, lsl #6
    33b8:	062d0100 	strteq	r0, [sp], -r0, lsl #2
    33bc:	00009218 	andeq	r9, r0, r8, lsl r2
    33c0:	0000009c 	muleq	r0, ip, r0
    33c4:	07c89c01 	strbeq	r9, [r8, r1, lsl #24]
    33c8:	b4170000 	ldrlt	r0, [r7], #-0
    33cc:	01000009 	tsteq	r0, r9
    33d0:	002c262d 	eoreq	r2, ip, sp, lsr #12
    33d4:	161f0000 	ldrne	r0, [pc], -r0
    33d8:	16110000 	ldrne	r0, [r1], -r0
    33dc:	a9170000 	ldmdbge	r7, {}	; <UNPREDICTABLE>
    33e0:	01000009 	tsteq	r0, r9
    33e4:	002c362d 	eoreq	r3, ip, sp, lsr #12
    33e8:	16870000 	strne	r0, [r7], r0
    33ec:	167f0000 	ldrbtne	r0, [pc], -r0
    33f0:	b51d0000 	ldrlt	r0, [sp, #-0]
    33f4:	01000009 	tsteq	r0, r9
    33f8:	00c20b2e 	sbceq	r0, r2, lr, lsr #22
    33fc:	16cf0000 	strbne	r0, [pc], r0
    3400:	16c10000 	strbne	r0, [r1], r0
    3404:	180e0000 	stmdane	lr, {}	; <UNPREDICTABLE>
    3408:	d8000001 	stmdale	r0, {r0}
    340c:	05000007 	streq	r0, [r0, #-7]
    3410:	009c5803 	addseq	r5, ip, r3, lsl #16
    3414:	92700f00 	rsbsls	r0, r0, #0, 30
    3418:	08bc0000 	ldmeq	ip!, {}	; <UNPREDICTABLE>
    341c:	077e0000 	ldrbeq	r0, [lr, -r0]!
    3420:	01100000 	tsteq	r0, r0
    3424:	c0030550 	andgt	r0, r3, r0, asr r5
    3428:	10000097 	mulne	r0, r7, r0
    342c:	03055101 	movweq	r5, #20737	; 0x5101
    3430:	00009ac0 	andeq	r9, r0, r0, asr #21
    3434:	05520110 	ldrbeq	r0, [r2, #-272]	; 0xfffffef0
    3438:	009c5803 	addseq	r5, ip, r3, lsl #16
    343c:	53011000 	movwpl	r1, #4096	; 0x1000
    3440:	10300802 	eorsne	r0, r0, r2, lsl #16
    3444:	05007d02 	streq	r7, [r0, #-3330]	; 0xfffff2fe
    3448:	009acc03 	addseq	ip, sl, r3, lsl #24
    344c:	74110000 	ldrvc	r0, [r1], #-0
    3450:	c8000092 	stmdagt	r0, {r1, r4, r7}
    3454:	0f000008 	svceq	0x00000008
    3458:	00009298 	muleq	r0, r8, r2
    345c:	000008bc 			; <UNDEFINED> instruction: 0x000008bc
    3460:	000007be 			; <UNDEFINED> instruction: 0x000007be
    3464:	05500110 	ldrbeq	r0, [r0, #-272]	; 0xfffffef0
    3468:	009ad803 	addseq	sp, sl, r3, lsl #16
    346c:	51011000 	mrspl	r1, (UNDEF: 1)
    3470:	9ac00305 	bls	ff00408c <__bss_end__+0xfeff9fb4>
    3474:	01100000 	tsteq	r0, r0
    3478:	58030552 	stmdapl	r3, {r1, r4, r6, r8, sl}
    347c:	1000009c 	mulne	r0, ip, r0
    3480:	08025301 	stmdaeq	r2, {r0, r8, r9, ip, lr}
    3484:	7d021034 	stcvc	0, cr1, [r2, #-208]	; 0xffffff30
    3488:	01f30300 	mvnseq	r0, r0, lsl #6
    348c:	9c110050 	ldcls	0, cr0, [r1], {80}	; 0x50
    3490:	c8000092 	stmdagt	r0, {r1, r4, r7}
    3494:	00000008 	andeq	r0, r0, r8
    3498:	00007e12 	andeq	r7, r0, r2, lsl lr
    349c:	0007d800 	andeq	sp, r7, r0, lsl #16
    34a0:	002c1300 	eoreq	r1, ip, r0, lsl #6
    34a4:	00160000 	andseq	r0, r6, r0
    34a8:	0007c805 	andeq	ip, r7, r5, lsl #16
    34ac:	0a721f00 	beq	1c8b0b4 <__bss_end__+0x1c80fdc>
    34b0:	2a010000 	bcs	434b8 <__bss_end__+0x393e0>
    34b4:	00008a07 	andeq	r8, r0, r7, lsl #20
    34b8:	00920800 	addseq	r0, r2, r0, lsl #16
    34bc:	00001000 	andeq	r1, r0, r0
    34c0:	1f9c0100 	svcne	0x009c0100
    34c4:	00000996 	muleq	r0, r6, r9
    34c8:	8a072901 	bhi	1cd8d4 <__bss_end__+0x1c37fc>
    34cc:	f8000000 			; <UNDEFINED> instruction: 0xf8000000
    34d0:	10000091 	mulne	r0, r1, r0
    34d4:	01000000 	mrseq	r0, (UNDEF: 0)
    34d8:	09db1f9c 	ldmibeq	fp, {r2, r3, r4, r7, r8, r9, sl, fp, ip}^
    34dc:	28010000 	stmdacs	r1, {}	; <UNPREDICTABLE>
    34e0:	00008a07 	andeq	r8, r0, r7, lsl #20
    34e4:	0091e800 	addseq	lr, r1, r0, lsl #16
    34e8:	00001000 	andeq	r1, r0, r0
    34ec:	209c0100 	addscs	r0, ip, r0, lsl #2
    34f0:	000009d3 	ldrdeq	r0, [r0], -r3
    34f4:	2c181001 	ldccs	0, cr1, [r8], {1}
    34f8:	03000000 	movweq	r0, #0
    34fc:	00000854 	andeq	r0, r0, r4, asr r8
    3500:	01007821 	tsteq	r0, r1, lsr #16
    3504:	002c2910 	eoreq	r2, ip, r0, lsl r9
    3508:	6e210000 	cdpvs	0, 2, cr0, cr1, cr0, {0}
    350c:	35100100 	ldrcc	r0, [r0, #-256]	; 0xffffff00
    3510:	0000002c 	andeq	r0, r0, ip, lsr #32
    3514:	0001180e 	andeq	r1, r1, lr, lsl #16
    3518:	00051800 	andeq	r1, r5, r0, lsl #16
    351c:	a8030500 	stmdage	r3, {r8, sl}
    3520:	0000009c 	muleq	r0, ip, r0
    3524:	000a4120 	andeq	r4, sl, r0, lsr #2
    3528:	180d0100 	stmdane	sp, {r8}
    352c:	0000002c 	andeq	r0, r0, ip, lsr #32
    3530:	00087003 	andeq	r7, r8, r3
    3534:	00782100 	rsbseq	r2, r8, r0, lsl #2
    3538:	2c290d01 	stccs	13, cr0, [r9], #-4
    353c:	00000000 	andeq	r0, r0, r0
    3540:	000a6020 	andeq	r6, sl, r0, lsr #32
    3544:	18070100 	stmdane	r7, {r8}
    3548:	0000002c 	andeq	r0, r0, ip, lsr #32
    354c:	00089603 	andeq	r9, r8, r3, lsl #12
    3550:	00782100 	rsbseq	r2, r8, r0, lsl #2
    3554:	2c2c0701 	stccs	7, cr0, [ip], #-4
    3558:	21000000 	mrscs	r0, (UNDEF: 0)
    355c:	0701006e 	streq	r0, [r1, -lr, rrx]
    3560:	00002c38 	andeq	r2, r0, r8, lsr ip
    3564:	13200000 	nopne	{0}	; <UNPREDICTABLE>
    3568:	0100000a 	tsteq	r0, sl
    356c:	005d1804 	subseq	r1, sp, r4, lsl #16
    3570:	bc030000 	stclt	0, cr0, [r3], {-0}
    3574:	21000008 	tstcs	r0, r8
    3578:	04010078 	streq	r0, [r1], #-120	; 0xffffff88
    357c:	00005d29 	andeq	r5, r0, r9, lsr #26
    3580:	00792100 	rsbseq	r2, r9, r0, lsl #2
    3584:	5d350401 	cfldrspl	mvf0, [r5, #-4]!
    3588:	00000000 	andeq	r0, r0, r0
    358c:	00046922 	andeq	r6, r4, r2, lsr #18
    3590:	00046900 	andeq	r6, r4, r0, lsl #18
    3594:	06280200 	strteq	r0, [r8], -r0, lsl #4
    3598:	0000a022 	andeq	sl, r0, r2, lsr #32
    359c:	0000a000 	andeq	sl, r0, r0
    35a0:	066e0200 	strbteq	r0, [lr], -r0, lsl #4
    35a4:	0003f322 	andeq	pc, r3, r2, lsr #6
    35a8:	0003f300 	andeq	pc, r3, r0, lsl #6
    35ac:	061d0200 	ldreq	r0, [sp], -r0, lsl #4
    35b0:	000a0222 	andeq	r0, sl, r2, lsr #4
    35b4:	000a0200 	andeq	r0, sl, r0, lsl #4
    35b8:	07f20200 	ldrbeq	r0, [r2, r0, lsl #4]!
    35bc:	00013a00 	andeq	r3, r1, r0, lsl #20
    35c0:	8c000400 	cfstrshi	mvf0, [r0], {-0}
    35c4:	04000010 	streq	r0, [r0], #-16
    35c8:	0002ad01 	andeq	sl, r2, r1, lsl #26
    35cc:	0aa10c00 	beq	fe8465d4 <__bss_end__+0xfe83c4fc>
    35d0:	04800000 	streq	r0, [r0], #0
    35d4:	95980000 	ldrls	r0, [r8]
    35d8:	00180000 	andseq	r0, r8, r0
    35dc:	18a80000 	stmiane	r8!, {}	; <UNPREDICTABLE>
    35e0:	04020000 	streq	r0, [r2], #-0
    35e4:	746e6905 	strbtvc	r6, [lr], #-2309	; 0xfffff6fb
    35e8:	0a9a0300 	beq	fe6841f0 <__bss_end__+0xfe67a118>
    35ec:	d1030000 	mrsle	r0, (UNDEF: 3)
    35f0:	00003817 	andeq	r3, r0, r7, lsl r8
    35f4:	07040400 	streq	r0, [r4, -r0, lsl #8]
    35f8:	000001c5 	andeq	r0, r0, r5, asr #3
    35fc:	78060104 	stmdavc	r6, {r2, r8}
    3600:	04000001 	streq	r0, [r0], #-1
    3604:	002a0502 	eoreq	r0, sl, r2, lsl #10
    3608:	04040000 	streq	r0, [r4], #-0
    360c:	0000e405 	andeq	lr, r0, r5, lsl #8
    3610:	05080400 	streq	r0, [r8, #-1024]	; 0xfffffc00
    3614:	000000df 	ldrdeq	r0, [r0], -pc	; <UNPREDICTABLE>
    3618:	76080104 	strvc	r0, [r8], -r4, lsl #2
    361c:	04000001 	streq	r0, [r0], #-1
    3620:	02140702 	andseq	r0, r4, #524288	; 0x80000
    3624:	04040000 	streq	r0, [r4], #-0
    3628:	0001c007 	andeq	ip, r1, r7
    362c:	07080400 	streq	r0, [r8, -r0, lsl #8]
    3630:	000001bb 			; <UNDEFINED> instruction: 0x000001bb
    3634:	00002505 	andeq	r2, r0, r5, lsl #10
    3638:	00008600 	andeq	r8, r0, r0, lsl #12
    363c:	00250600 	eoreq	r0, r5, r0, lsl #12
    3640:	07000000 	streq	r0, [r0, -r0]
    3644:	00000068 	andeq	r0, r0, r8, rrx
    3648:	920e1c02 	andls	r1, lr, #512	; 0x200
    364c:	08000000 	stmdaeq	r0, {}	; <UNPREDICTABLE>
    3650:	00007704 	andeq	r7, r0, r4, lsl #14
    3654:	00250500 	eoreq	r0, r5, r0, lsl #10
    3658:	00a70000 	adceq	r0, r7, r0
    365c:	a7060000 	strge	r0, [r6, -r0]
    3660:	00000000 	andeq	r0, r0, r0
    3664:	00b40408 	adcseq	r0, r4, r8, lsl #8
    3668:	01040000 	mrseq	r0, (UNDEF: 4)
    366c:	00017f08 	andeq	r7, r1, r8, lsl #30
    3670:	00ad0900 	adceq	r0, sp, r0, lsl #18
    3674:	e4070000 	str	r0, [r7], #-0
    3678:	02000004 	andeq	r0, r0, #4, 0
    367c:	00c50e21 	sbceq	r0, r5, r1, lsr #28
    3680:	04080000 	streq	r0, [r8], #-0
    3684:	00000098 	muleq	r0, r8, r0
    3688:	000a020a 	andeq	r0, sl, sl, lsl #4
    368c:	07040100 	streq	r0, [r4, -r0, lsl #2]
    3690:	00000135 	andeq	r0, r0, r5, lsr r1
    3694:	00009598 	muleq	r0, r8, r5
    3698:	00000018 	andeq	r0, r0, r8, lsl r0
    369c:	01359c01 	teqeq	r5, r1, lsl #24
    36a0:	5f0b0000 	svcpl	0x000b0000
    36a4:	04010070 	streq	r0, [r1], #-112	; 0xffffff90
    36a8:	00013514 	andeq	r3, r1, r4, lsl r5
    36ac:	0b500100 	bleq	1403ab4 <__bss_end__+0x13f99dc>
    36b0:	04010063 	streq	r0, [r1], #-99	; 0xffffff9d
    36b4:	0000251c 	andeq	r2, r0, ip, lsl r5
    36b8:	0c510100 	ldfeqe	f0, [r1], {-0}
    36bc:	0401006e 	streq	r0, [r1], #-110	; 0xffffff92
    36c0:	00002c26 	andeq	r2, r0, r6, lsr #24
    36c4:	00173300 	andseq	r3, r7, r0, lsl #6
    36c8:	00172f00 	andseq	r2, r7, r0, lsl #30
    36cc:	00700d00 	rsbseq	r0, r0, r0, lsl #26
    36d0:	370b0501 	strcc	r0, [fp, -r1, lsl #10]
    36d4:	5c000001 	stcpl	0, cr0, [r0], {1}
    36d8:	54000017 	strpl	r0, [r0], #-23	; 0xffffffe9
    36dc:	0d000017 	stceq	0, cr0, [r0, #-92]	; 0xffffffa4
    36e0:	05010065 	streq	r0, [r1, #-101]	; 0xffffff9b
    36e4:	00013714 	andeq	r3, r1, r4, lsl r7
    36e8:	00179400 	andseq	r9, r7, r0, lsl #8
    36ec:	00179200 	andseq	r9, r7, r0, lsl #4
    36f0:	040e0000 	streq	r0, [lr], #-0
    36f4:	00ad0408 	adceq	r0, sp, r8, lsl #8
    36f8:	37000000 	strcc	r0, [r0, -r0]
    36fc:	04000001 	streq	r0, [r0], #-1
    3700:	00115800 	andseq	r5, r1, r0, lsl #16
    3704:	ad010400 	cfstrsge	mvf0, [r1, #-0]
    3708:	0c000002 	stceq	0, cr0, [r0], {2}
    370c:	00000ab6 			; <UNDEFINED> instruction: 0x00000ab6
    3710:	00000480 	andeq	r0, r0, r0, lsl #9
    3714:	000095b0 			; <UNDEFINED> instruction: 0x000095b0
    3718:	00000034 	andeq	r0, r0, r4, lsr r0
    371c:	0000199d 	muleq	r0, sp, r9
    3720:	69050402 	stmdbvs	r5, {r1, sl}
    3724:	0300746e 	movweq	r7, #1134	; 0x46e
    3728:	01c50704 	biceq	r0, r5, r4, lsl #14
    372c:	01030000 	mrseq	r0, (UNDEF: 3)
    3730:	00017806 	andeq	r7, r1, r6, lsl #16
    3734:	05020300 	streq	r0, [r2, #-768]	; 0xfffffd00
    3738:	0000002a 	andeq	r0, r0, sl, lsr #32
    373c:	e4050403 	str	r0, [r5], #-1027	; 0xfffffbfd
    3740:	03000000 	movweq	r0, #0
    3744:	00df0508 	sbcseq	r0, pc, r8, lsl #10
    3748:	01030000 	mrseq	r0, (UNDEF: 3)
    374c:	00017608 	andeq	r7, r1, r8, lsl #12
    3750:	07020300 	streq	r0, [r2, -r0, lsl #6]
    3754:	00000214 	andeq	r0, r0, r4, lsl r2
    3758:	c0070403 	andgt	r0, r7, r3, lsl #8
    375c:	03000001 	movweq	r0, #1
    3760:	01bb0708 			; <UNDEFINED> instruction: 0x01bb0708
    3764:	25040000 	strcs	r0, [r4, #-0]
    3768:	7a000000 	bvc	3770 <__code_start__-0x4890>
    376c:	05000000 	streq	r0, [r0, #-0]
    3770:	00000025 	andeq	r0, r0, r5, lsr #32
    3774:	00680600 	rsbeq	r0, r8, r0, lsl #12
    3778:	1c020000 	stcne	0, cr0, [r2], {-0}
    377c:	0000860e 	andeq	r8, r0, lr, lsl #12
    3780:	6b040700 	blvs	105388 <__bss_end__+0xfb2b0>
    3784:	04000000 	streq	r0, [r0], #-0
    3788:	00000025 	andeq	r0, r0, r5, lsr #32
    378c:	0000009b 	muleq	r0, fp, r0
    3790:	00009b05 	andeq	r9, r0, r5, lsl #22
    3794:	04070000 	streq	r0, [r7], #-0
    3798:	000000a8 	andeq	r0, r0, r8, lsr #1
    379c:	7f080103 	svcvc	0x00080103
    37a0:	08000001 	stmdaeq	r0, {r0}
    37a4:	000000a1 	andeq	r0, r0, r1, lsr #1
    37a8:	0004e406 	andeq	lr, r4, r6, lsl #8
    37ac:	0e210200 	cdpeq	2, 2, cr0, cr1, cr0, {0}
    37b0:	000000b9 	strheq	r0, [r0], -r9
    37b4:	008c0407 	addeq	r0, ip, r7, lsl #8
    37b8:	87090000 	strhi	r0, [r9, -r0]
    37bc:	01000005 	tsteq	r0, r5
    37c0:	01340704 	teqeq	r4, r4, lsl #14
    37c4:	95b00000 	ldrls	r0, [r0, #0]!
    37c8:	00340000 	eorseq	r0, r4, r0
    37cc:	9c010000 	stcls	0, cr0, [r1], {-0}
    37d0:	00000134 	andeq	r0, r0, r4, lsr r1
    37d4:	000ab10a 	andeq	fp, sl, sl, lsl #2
    37d8:	15040100 	strne	r0, [r4, #-256]	; 0xffffff00
    37dc:	00000134 	andeq	r0, r0, r4, lsr r1
    37e0:	730b5001 	movwvc	r5, #45057	; 0xb001
    37e4:	01006372 	tsteq	r0, r2, ror r3
    37e8:	009b2704 	addseq	r2, fp, r4, lsl #14
    37ec:	17ab0000 	strne	r0, [fp, r0]!
    37f0:	17a70000 	strne	r0, [r7, r0]!
    37f4:	730c0000 	movwvc	r0, #49152	; 0xc000
    37f8:	05010031 	streq	r0, [r1, #-49]	; 0xffffffcf
    37fc:	0001340b 	andeq	r3, r1, fp, lsl #8
    3800:	0017d600 	andseq	sp, r7, r0, lsl #12
    3804:	0017cc00 	andseq	ip, r7, r0, lsl #24
    3808:	32730c00 	rsbscc	r0, r3, #0, 24
    380c:	11060100 	mrsne	r0, (UNDEF: 22)
    3810:	0000009b 	muleq	r0, fp, r0
    3814:	0000181b 	andeq	r1, r0, fp, lsl r8
    3818:	00001817 	andeq	r1, r0, r7, lsl r8
    381c:	0100630c 	tsteq	r0, ip, lsl #6
    3820:	00a10a07 	adceq	r0, r1, r7, lsl #20
    3824:	183f0000 	ldmdane	pc!, {}	; <UNPREDICTABLE>
    3828:	183b0000 	ldmdane	fp!, {}	; <UNPREDICTABLE>
    382c:	07000000 	streq	r0, [r0, -r0]
    3830:	0000a104 	andeq	sl, r0, r4, lsl #2
    3834:	00f70000 	rscseq	r0, r7, r0
    3838:	00040000 	andeq	r0, r4, r0
    383c:	0000120e 	andeq	r1, r0, lr, lsl #4
    3840:	02ad0104 	adceq	r0, sp, #1
    3844:	c60c0000 	strgt	r0, [ip], -r0
    3848:	8000000a 	andhi	r0, r0, sl
    384c:	e4000004 	str	r0, [r0], #-4
    3850:	2c000095 	stccs	0, cr0, [r0], {149}	; 0x95
    3854:	85000000 	strhi	r0, [r0, #-0]
    3858:	0200001a 	andeq	r0, r0, #26, 0
    385c:	6e690504 	cdpvs	5, 6, cr0, cr9, cr4, {0}
    3860:	04030074 	streq	r0, [r3], #-116	; 0xffffff8c
    3864:	0001c507 	andeq	ip, r1, r7, lsl #10
    3868:	06010300 	streq	r0, [r1], -r0, lsl #6
    386c:	00000178 	andeq	r0, r0, r8, ror r1
    3870:	2a050203 	bcs	144084 <__bss_end__+0x139fac>
    3874:	03000000 	movweq	r0, #0
    3878:	00e40504 	rsceq	r0, r4, r4, lsl #10
    387c:	08030000 	stmdaeq	r3, {}	; <UNPREDICTABLE>
    3880:	0000df05 	andeq	sp, r0, r5, lsl #30
    3884:	08010300 	stmdaeq	r1, {r8, r9}
    3888:	00000176 	andeq	r0, r0, r6, ror r1
    388c:	14070203 	strne	r0, [r7], #-515	; 0xfffffdfd
    3890:	03000002 	movweq	r0, #2
    3894:	01c00704 	biceq	r0, r0, r4, lsl #14
    3898:	08030000 	stmdaeq	r3, {}	; <UNPREDICTABLE>
    389c:	0001bb07 	andeq	fp, r1, r7, lsl #22
    38a0:	00250400 	eoreq	r0, r5, r0, lsl #8
    38a4:	007a0000 	rsbseq	r0, sl, r0
    38a8:	25050000 	strcs	r0, [r5, #-0]
    38ac:	00000000 	andeq	r0, r0, r0
    38b0:	00006806 	andeq	r6, r0, r6, lsl #16
    38b4:	0e1c0200 	cdpeq	2, 1, cr0, cr12, cr0, {0}
    38b8:	00000086 	andeq	r0, r0, r6, lsl #1
    38bc:	006b0407 	rsbeq	r0, fp, r7, lsl #8
    38c0:	25040000 	strcs	r0, [r4, #-0]
    38c4:	9b000000 	blls	38cc <__code_start__-0x4734>
    38c8:	05000000 	streq	r0, [r0, #-0]
    38cc:	0000009b 	muleq	r0, fp, r0
    38d0:	a8040700 	stmdage	r4, {r8, r9, sl}
    38d4:	03000000 	movweq	r0, #0
    38d8:	017f0801 	cmneq	pc, r1, lsl #16
    38dc:	a1080000 	mrsge	r0, (UNDEF: 8)
    38e0:	06000000 	streq	r0, [r0], -r0
    38e4:	000004e4 	andeq	r0, r0, r4, ror #9
    38e8:	b90e2102 	stmdblt	lr, {r1, r8, sp}
    38ec:	07000000 	streq	r0, [r0, -r0]
    38f0:	00008c04 	andeq	r8, r0, r4, lsl #24
    38f4:	05bd0900 	ldreq	r0, [sp, #2304]!	; 0x900
    38f8:	03010000 	movweq	r0, #4096	; 0x1000
    38fc:	00002505 	andeq	r2, r0, r5, lsl #10
    3900:	0095e400 	addseq	lr, r5, r0, lsl #8
    3904:	00002c00 	andeq	r2, r0, r0, lsl #24
    3908:	0a9c0100 	beq	fe703d10 <__bss_end__+0xfe6f9c38>
    390c:	03010061 	movweq	r0, #4193	; 0x1061
    3910:	00009b18 	andeq	r9, r0, r8, lsl fp
    3914:	00186100 	andseq	r6, r8, r0, lsl #2
    3918:	00185d00 	andseq	r5, r8, r0, lsl #26
    391c:	00620a00 	rsbeq	r0, r2, r0, lsl #20
    3920:	9b270301 	blls	9c452c <__bss_end__+0x9ba454>
    3924:	83000000 	movwhi	r0, #0
    3928:	7f000018 	svcvc	0x00000018
    392c:	00000018 	andeq	r0, r0, r8, lsl r0
    3930:	00010f00 	andeq	r0, r1, r0, lsl #30
    3934:	9d000400 	cfstrsls	mvf0, [r0, #-0]
    3938:	04000012 	streq	r0, [r0], #-18	; 0xffffffee
    393c:	0002ad01 	andeq	sl, r2, r1, lsl #26
    3940:	0ad60c00 	beq	ff586948 <__bss_end__+0xff57c870>
    3944:	04800000 	streq	r0, [r0], #0
    3948:	96100000 	ldrls	r0, [r0], -r0
    394c:	00200000 	eoreq	r0, r0, r0
    3950:	1b260000 	blne	983958 <__bss_end__+0x979880>
    3954:	04020000 	streq	r0, [r2], #-0
    3958:	746e6905 	strbtvc	r6, [lr], #-2309	; 0xfffff6fb
    395c:	07040300 	streq	r0, [r4, -r0, lsl #6]
    3960:	000001c5 	andeq	r0, r0, r5, asr #3
    3964:	78060103 	stmdavc	r6, {r0, r1, r8}
    3968:	03000001 	movweq	r0, #1
    396c:	002a0502 	eoreq	r0, sl, r2, lsl #10
    3970:	04030000 	streq	r0, [r3], #-0
    3974:	0000e405 	andeq	lr, r0, r5, lsl #8
    3978:	05080300 	streq	r0, [r8, #-768]	; 0xfffffd00
    397c:	000000df 	ldrdeq	r0, [r0], -pc	; <UNPREDICTABLE>
    3980:	76080103 	strvc	r0, [r8], -r3, lsl #2
    3984:	03000001 	movweq	r0, #1
    3988:	02140702 	andseq	r0, r4, #524288	; 0x80000
    398c:	04030000 	streq	r0, [r3], #-0
    3990:	0001c007 	andeq	ip, r1, r7
    3994:	07080300 	streq	r0, [r8, -r0, lsl #6]
    3998:	000001bb 			; <UNDEFINED> instruction: 0x000001bb
    399c:	00002504 	andeq	r2, r0, r4, lsl #10
    39a0:	00007a00 	andeq	r7, r0, r0, lsl #20
    39a4:	00250500 	eoreq	r0, r5, r0, lsl #10
    39a8:	06000000 	streq	r0, [r0], -r0
    39ac:	00000068 	andeq	r0, r0, r8, rrx
    39b0:	860e1c02 	strhi	r1, [lr], -r2, lsl #24
    39b4:	07000000 	streq	r0, [r0, -r0]
    39b8:	00006b04 	andeq	r6, r0, r4, lsl #22
    39bc:	00250400 	eoreq	r0, r5, r0, lsl #8
    39c0:	009b0000 	addseq	r0, fp, r0
    39c4:	9b050000 	blls	1439cc <__bss_end__+0x1398f4>
    39c8:	00000000 	andeq	r0, r0, r0
    39cc:	00a80407 	adceq	r0, r8, r7, lsl #8
    39d0:	01030000 	mrseq	r0, (UNDEF: 3)
    39d4:	00017f08 	andeq	r7, r1, r8, lsl #30
    39d8:	00a10800 	adceq	r0, r1, r0, lsl #16
    39dc:	e4060000 	str	r0, [r6], #-0
    39e0:	02000004 	andeq	r0, r0, #4, 0
    39e4:	00b90e21 	adcseq	r0, r9, r1, lsr #28
    39e8:	04070000 	streq	r0, [r7], #-0
    39ec:	0000008c 	andeq	r0, r0, ip, lsl #1
    39f0:	00058e09 	andeq	r8, r5, r9, lsl #28
    39f4:	07030100 	streq	r0, [r3, -r0, lsl #2]
    39f8:	0000010c 	andeq	r0, r0, ip, lsl #2
    39fc:	00009610 	andeq	r9, r0, r0, lsl r6
    3a00:	00000020 	andeq	r0, r0, r0, lsr #32
    3a04:	010c9c01 	tsteq	ip, r1, lsl #24
    3a08:	730a0000 	movwvc	r0, #40960	; 0xa000
    3a0c:	03010031 	movweq	r0, #4145	; 0x1031
    3a10:	00010c15 	andeq	r0, r1, r5, lsl ip
    3a14:	0b500100 	bleq	1403e1c <__bss_end__+0x13f9d44>
    3a18:	01003273 	tsteq	r0, r3, ror r2
    3a1c:	009b2603 	addseq	r2, fp, r3, lsl #12
    3a20:	18a70000 	stmiane	r7!, {}	; <UNPREDICTABLE>
    3a24:	18a10000 	stmiane	r1!, {}	; <UNPREDICTABLE>
    3a28:	730c0000 	movwvc	r0, #49152	; 0xc000
    3a2c:	14040100 	strne	r0, [r4], #-256	; 0xffffff00
    3a30:	0000010c 	andeq	r0, r0, ip, lsl #2
    3a34:	000018d8 	ldrdeq	r1, [r0], -r8
    3a38:	000018d2 	ldrdeq	r1, [r0], -r2
    3a3c:	a1040700 	tstge	r4, r0, lsl #14
    3a40:	00000000 	andeq	r0, r0, r0
    3a44:	0000014e 	andeq	r0, r0, lr, asr #2
    3a48:	13530004 	cmpne	r3, #4, 0
    3a4c:	01040000 	mrseq	r0, (UNDEF: 4)
    3a50:	000002ad 	andeq	r0, r0, sp, lsr #5
    3a54:	000ae60c 	andeq	lr, sl, ip, lsl #12
    3a58:	00048000 	andeq	r8, r4, r0
    3a5c:	0000b000 	andeq	fp, r0, r0
    3a60:	00000000 	andeq	r0, r0, r0
    3a64:	001bc500 	andseq	ip, fp, r0, lsl #10
    3a68:	05040200 	streq	r0, [r4, #-512]	; 0xfffffe00
    3a6c:	00746e69 	rsbseq	r6, r4, r9, ror #28
    3a70:	000a9a03 	andeq	r9, sl, r3, lsl #20
    3a74:	17d10300 	ldrbne	r0, [r1, r0, lsl #6]
    3a78:	00000038 	andeq	r0, r0, r8, lsr r0
    3a7c:	c5070404 	strgt	r0, [r7, #-1028]	; 0xfffffbfc
    3a80:	04000001 	streq	r0, [r0], #-1
    3a84:	01780601 	cmneq	r8, r1, lsl #12
    3a88:	02040000 	andeq	r0, r4, #0, 0
    3a8c:	00002a05 	andeq	r2, r0, r5, lsl #20
    3a90:	05040400 	streq	r0, [r4, #-1024]	; 0xfffffc00
    3a94:	000000e4 	andeq	r0, r0, r4, ror #1
    3a98:	df050804 	svcle	0x00050804
    3a9c:	04000000 	streq	r0, [r0], #-0
    3aa0:	01760801 	cmneq	r6, r1, lsl #16
    3aa4:	5b050000 	blpl	143aac <__bss_end__+0x1399d4>
    3aa8:	04000000 	streq	r0, [r0], #-0
    3aac:	02140702 	andseq	r0, r4, #524288	; 0x80000
    3ab0:	04040000 	streq	r0, [r4], #-0
    3ab4:	0001c007 	andeq	ip, r1, r7
    3ab8:	07080400 	streq	r0, [r8, -r0, lsl #8]
    3abc:	000001bb 			; <UNDEFINED> instruction: 0x000001bb
    3ac0:	00002506 	andeq	r2, r0, r6, lsl #10
    3ac4:	00008b00 	andeq	r8, r0, r0, lsl #22
    3ac8:	00250700 	eoreq	r0, r5, r0, lsl #14
    3acc:	08000000 	stmdaeq	r0, {}	; <UNPREDICTABLE>
    3ad0:	00000068 	andeq	r0, r0, r8, rrx
    3ad4:	970e1c02 	strls	r1, [lr, -r2, lsl #24]
    3ad8:	09000000 	stmdbeq	r0, {}	; <UNPREDICTABLE>
    3adc:	00007c04 	andeq	r7, r0, r4, lsl #24
    3ae0:	00250600 	eoreq	r0, r5, r0, lsl #12
    3ae4:	00ac0000 	adceq	r0, ip, r0
    3ae8:	ac070000 	stcge	0, cr0, [r7], {-0}
    3aec:	00000000 	andeq	r0, r0, r0
    3af0:	00b90409 	adcseq	r0, r9, r9, lsl #8
    3af4:	01040000 	mrseq	r0, (UNDEF: 4)
    3af8:	00017f08 	andeq	r7, r1, r8, lsl #30
    3afc:	00b20500 	adcseq	r0, r2, r0, lsl #10
    3b00:	e4080000 	str	r0, [r8], #-0
    3b04:	02000004 	andeq	r0, r0, #4, 0
    3b08:	00ca0e21 	sbceq	r0, sl, r1, lsr #28
    3b0c:	04090000 	streq	r0, [r9], #-0
    3b10:	0000009d 	muleq	r0, sp, r0
    3b14:	0005e50a 	andeq	lr, r5, sl, lsl #10
    3b18:	05040100 	streq	r0, [r4, #-256]	; 0xffffff00
    3b1c:	00000025 	andeq	r0, r0, r5, lsr #32
    3b20:	00009630 	andeq	r9, r0, r0, lsr r6
    3b24:	0000002c 	andeq	r0, r0, ip, lsr #32
    3b28:	014b9c01 	cmpeq	fp, r1, lsl #24
    3b2c:	5f0b0000 	svcpl	0x000b0000
    3b30:	01003173 	tsteq	r0, r3, ror r1
    3b34:	00ac1904 	adceq	r1, ip, r4, lsl #18
    3b38:	19070000 	stmdbne	r7, {}	; <UNPREDICTABLE>
    3b3c:	19030000 	stmdbne	r3, {}	; <UNPREDICTABLE>
    3b40:	5f0b0000 	svcpl	0x000b0000
    3b44:	01003273 	tsteq	r0, r3, ror r2
    3b48:	00ac2a04 	adceq	r2, ip, r4, lsl #20
    3b4c:	192c0000 	stmdbne	ip!, {}	; <UNPREDICTABLE>
    3b50:	19280000 	stmdbne	r8!, {}	; <UNPREDICTABLE>
    3b54:	6e0b0000 	cdpvs	0, 0, cr0, cr11, cr0, {0}
    3b58:	36040100 	strcc	r0, [r4], -r0, lsl #2
    3b5c:	0000002c 	andeq	r0, r0, ip, lsr #32
    3b60:	00001953 	andeq	r1, r0, r3, asr r9
    3b64:	0000194d 	andeq	r1, r0, sp, asr #18
    3b68:	0031730c 	eorseq	r7, r1, ip, lsl #6
    3b6c:	4b1a0501 	blmi	684f78 <__bss_end__+0x67aea0>
    3b70:	86000001 	strhi	r0, [r0], -r1
    3b74:	7e000019 	mcrvc	0, 0, r0, cr0, cr9, {0}
    3b78:	0c000019 	stceq	0, cr0, [r0], {25}
    3b7c:	01003273 	tsteq	r0, r3, ror r2
    3b80:	014b2c05 	cmpeq	fp, r5, lsl #24
    3b84:	19c20000 	stmibne	r2, {}^	; <UNPREDICTABLE>
    3b88:	19bc0000 	ldmibne	ip!, {}	; <UNPREDICTABLE>
    3b8c:	09000000 	stmdbeq	r0, {}	; <UNPREDICTABLE>
    3b90:	00006204 	andeq	r6, r0, r4, lsl #4
    3b94:	00ce0000 	sbceq	r0, lr, r0
    3b98:	00040000 	andeq	r0, r4, r0
    3b9c:	00001407 	andeq	r1, r0, r7, lsl #8
    3ba0:	02ad0104 	adceq	r0, sp, #1
    3ba4:	f70c0000 			; <UNDEFINED> instruction: 0xf70c0000
    3ba8:	8000000a 	andhi	r0, r0, sl
    3bac:	5c000004 	stcpl	0, cr0, [r0], {4}
    3bb0:	04000096 	streq	r0, [r0], #-150	; 0xffffff6a
    3bb4:	c7000000 	strgt	r0, [r0, -r0]
    3bb8:	0200001c 	andeq	r0, r0, #28, 0
    3bbc:	6e690504 	cdpvs	5, 6, cr0, cr9, cr4, {0}
    3bc0:	04030074 	streq	r0, [r3], #-116	; 0xffffff8c
    3bc4:	0001c507 	andeq	ip, r1, r7, lsl #10
    3bc8:	06010300 	streq	r0, [r1], -r0, lsl #6
    3bcc:	00000178 	andeq	r0, r0, r8, ror r1
    3bd0:	2a050203 	bcs	1443e4 <__bss_end__+0x13a30c>
    3bd4:	03000000 	movweq	r0, #0
    3bd8:	00e40504 	rsceq	r0, r4, r4, lsl #10
    3bdc:	08030000 	stmdaeq	r3, {}	; <UNPREDICTABLE>
    3be0:	0000df05 	andeq	sp, r0, r5, lsl #30
    3be4:	08010300 	stmdaeq	r1, {r8, r9}
    3be8:	00000176 	andeq	r0, r0, r6, ror r1
    3bec:	14070203 	strne	r0, [r7], #-515	; 0xfffffdfd
    3bf0:	03000002 	movweq	r0, #2
    3bf4:	01c00704 	biceq	r0, r0, r4, lsl #14
    3bf8:	08030000 	stmdaeq	r3, {}	; <UNPREDICTABLE>
    3bfc:	0001bb07 	andeq	fp, r1, r7, lsl #22
    3c00:	00250400 	eoreq	r0, r5, r0, lsl #8
    3c04:	007a0000 	rsbseq	r0, sl, r0
    3c08:	25050000 	strcs	r0, [r5, #-0]
    3c0c:	00000000 	andeq	r0, r0, r0
    3c10:	00006806 	andeq	r6, r0, r6, lsl #16
    3c14:	0e1c0200 	cdpeq	2, 1, cr0, cr12, cr0, {0}
    3c18:	00000086 	andeq	r0, r0, r6, lsl #1
    3c1c:	006b0407 	rsbeq	r0, fp, r7, lsl #8
    3c20:	25040000 	strcs	r0, [r4, #-0]
    3c24:	9b000000 	blls	3c2c <__code_start__-0x43d4>
    3c28:	05000000 	streq	r0, [r0, #-0]
    3c2c:	0000009b 	muleq	r0, fp, r0
    3c30:	a8040700 	stmdage	r4, {r8, r9, sl}
    3c34:	03000000 	movweq	r0, #0
    3c38:	017f0801 	cmneq	pc, r1, lsl #16
    3c3c:	a1080000 	mrsge	r0, (UNDEF: 8)
    3c40:	06000000 	streq	r0, [r0], -r0
    3c44:	000004e4 	andeq	r0, r0, r4, ror #9
    3c48:	b90e2102 	stmdblt	lr, {r1, r8, sp}
    3c4c:	07000000 	streq	r0, [r0, -r0]
    3c50:	00008c04 	andeq	r8, r0, r4, lsl #24
    3c54:	06b30900 	ldrteq	r0, [r3], r0, lsl #18
    3c58:	03010000 	movweq	r0, #4096	; 0x1000
    3c5c:	00965c06 	addseq	r5, r6, r6, lsl #24
    3c60:	00000400 	andeq	r0, r0, r0, lsl #8
    3c64:	009c0100 	addseq	r0, ip, r0, lsl #2
    3c68:	000003a5 	andeq	r0, r0, r5, lsr #7
    3c6c:	14800004 	strne	r0, [r0], #4
    3c70:	01040000 	mrseq	r0, (UNDEF: 4)
    3c74:	00000853 	andeq	r0, r0, r3, asr r8
    3c78:	000b960c 	andeq	r9, fp, ip, lsl #12
    3c7c:	00093100 	andeq	r3, r9, r0, lsl #2
    3c80:	00967800 	addseq	r7, r6, r0, lsl #16
    3c84:	00011c00 	andeq	r1, r1, r0, lsl #24
    3c88:	001d5500 	andseq	r5, sp, r0, lsl #10
    3c8c:	05040200 	streq	r0, [r4, #-512]	; 0xfffffe00
    3c90:	00746e69 	rsbseq	r6, r4, r9, ror #28
    3c94:	c5070403 	strgt	r0, [r7, #-1027]	; 0xfffffbfd
    3c98:	04000001 	streq	r0, [r0], #-1
    3c9c:	0000002c 	andeq	r0, r0, ip, lsr #32
    3ca0:	78060103 	stmdavc	r6, {r0, r1, r8}
    3ca4:	03000001 	movweq	r0, #1
    3ca8:	002a0502 	eoreq	r0, sl, r2, lsl #10
    3cac:	04030000 	streq	r0, [r3], #-0
    3cb0:	0000e405 	andeq	lr, r0, r5, lsl #8
    3cb4:	05080300 	streq	r0, [r8, #-768]	; 0xfffffd00
    3cb8:	000000df 	ldrdeq	r0, [r0], -pc	; <UNPREDICTABLE>
    3cbc:	76080103 	strvc	r0, [r8], -r3, lsl #2
    3cc0:	03000001 	movweq	r0, #1
    3cc4:	02140702 	andseq	r0, r4, #524288	; 0x80000
    3cc8:	d9050000 	stmdble	r5, {}	; <UNPREDICTABLE>
    3ccc:	03000001 	movweq	r0, #1
    3cd0:	006e1934 	rsbeq	r1, lr, r4, lsr r9
    3cd4:	04030000 	streq	r0, [r3], #-0
    3cd8:	0001c007 	andeq	ip, r1, r7
    3cdc:	07080300 	streq	r0, [r8, -r0, lsl #6]
    3ce0:	000001bb 			; <UNDEFINED> instruction: 0x000001bb
    3ce4:	7f080103 	svcvc	0x00080103
    3ce8:	06000001 	streq	r0, [r0], -r1
    3cec:	00540107 	subseq	r0, r4, r7, lsl #2
    3cf0:	0c040000 	stceq	0, cr0, [r4], {-0}
    3cf4:	0000c20e 	andeq	ip, r0, lr, lsl #4
    3cf8:	096e0700 	stmdbeq	lr!, {r8, r9, sl}^
    3cfc:	07000000 	streq	r0, [r0, -r0]
    3d00:	000007ab 	andeq	r0, r0, fp, lsr #15
    3d04:	07e70701 	strbeq	r0, [r7, r1, lsl #14]!
    3d08:	07040000 	streq	r0, [r4, -r0]
    3d0c:	000007f6 	strdeq	r0, [r0], -r6
    3d10:	08050705 	stmdaeq	r5, {r0, r2, r8, r9, sl}
    3d14:	07060000 	streq	r0, [r6, -r0]
    3d18:	00000814 	andeq	r0, r0, r4, lsl r8
    3d1c:	09060707 	stmdbeq	r6, {r0, r1, r2, r8, r9, sl}
    3d20:	07030000 	streq	r0, [r3, -r0]
    3d24:	00000823 	andeq	r0, r0, r3, lsr #16
    3d28:	7b050002 	blvc	143d38 <__bss_end__+0x139c60>
    3d2c:	0400000b 	streq	r0, [r0], #-11
    3d30:	00830315 	addeq	r0, r3, r5, lsl r3
    3d34:	26080000 	strcs	r0, [r8], -r0
    3d38:	0100000b 	tsteq	r0, fp
    3d3c:	0033171d 	eorseq	r1, r3, sp, lsl r7
    3d40:	001c0000 	andseq	r0, ip, r0
    3d44:	1c082020 	stcne	0, cr2, [r8], {32}
    3d48:	0100000b 	tsteq	r0, fp
    3d4c:	0033171e 	eorseq	r1, r3, lr, lsl r7
    3d50:	00280000 	eoreq	r0, r8, r0
    3d54:	87082020 	strhi	r2, [r8, -r0, lsr #32]
    3d58:	0100000b 	tsteq	r0, fp
    3d5c:	0033171f 	eorseq	r1, r3, pc, lsl r7
    3d60:	00340000 	eorseq	r0, r4, r0
    3d64:	45092020 	strmi	r2, [r9, #-32]	; 0xffffffe0
    3d68:	0100000b 	tsteq	r0, fp
    3d6c:	00250555 	eoreq	r0, r5, r5, asr r5
    3d70:	97600000 	strbls	r0, [r0, -r0]!
    3d74:	00340000 	eorseq	r0, r4, r0
    3d78:	9c010000 	stcls	0, cr0, [r1], {-0}
    3d7c:	0000016e 	andeq	r0, r0, lr, ror #2
    3d80:	6e69700a 	cdpvs	0, 6, cr7, cr9, cr10, {0}
    3d84:	18550100 	ldmdane	r5, {r8}^
    3d88:	0000002c 	andeq	r0, r0, ip, lsr #32
    3d8c:	000019f5 	strdeq	r1, [r0], -r5
    3d90:	000019ed 	andeq	r1, r0, sp, ror #19
    3d94:	000b910b 	andeq	r9, fp, fp, lsl #2
    3d98:	0e580100 	rdfeqe	f0, f0, f0
    3d9c:	0000002c 	andeq	r0, r0, ip, lsr #32
    3da0:	00001a35 	andeq	r1, r0, r5, lsr sl
    3da4:	00001a2f 	andeq	r1, r0, pc, lsr #20
    3da8:	66666f0c 	strbtvs	r6, [r6], -ip, lsl #30
    3dac:	0e590100 	rdfeqe	f0, f1, f0
    3db0:	0000002c 	andeq	r0, r0, ip, lsr #32
    3db4:	00001a75 	andeq	r1, r0, r5, ror sl
    3db8:	00001a73 	andeq	r1, r0, r3, ror sl
    3dbc:	00977c0d 	addseq	r7, r7, sp, lsl #24
    3dc0:	00039000 	andeq	r9, r3, r0
    3dc4:	50010e00 	andpl	r0, r1, r0, lsl #28
    3dc8:	5001f30b 	andpl	pc, r1, fp, lsl #6
    3dcc:	b4232535 	strtlt	r2, [r3], #-1333	; 0xfffffacb
    3dd0:	02818080 	addeq	r8, r1, #128, 0	; 0x80
    3dd4:	300f0000 	andcc	r0, pc, r0
    3dd8:	0100000b 	tsteq	r0, fp
    3ddc:	9744064e 	strbls	r0, [r4, -lr, asr #12]
    3de0:	001c0000 	andseq	r0, ip, r0
    3de4:	9c010000 	stcls	0, cr0, [r1], {-0}
    3de8:	000001c9 	andeq	r0, r0, r9, asr #3
    3dec:	6e69700a 	cdpvs	0, 6, cr7, cr9, cr10, {0}
    3df0:	1a4e0100 	bne	13841f8 <__bss_end__+0x137a120>
    3df4:	0000002c 	andeq	r0, r0, ip, lsr #32
    3df8:	00001a90 	muleq	r0, r0, sl
    3dfc:	00001a88 	andeq	r1, r0, r8, lsl #21
    3e00:	0100760a 	tsteq	r0, sl, lsl #12
    3e04:	002c284e 	eoreq	r2, ip, lr, asr #16
    3e08:	1ad20000 	bne	ff483e10 <__bss_end__+0xff479d38>
    3e0c:	1aca0000 	bne	ff283e14 <__bss_end__+0xff279d3c>
    3e10:	54100000 	ldrpl	r0, [r0], #-0
    3e14:	51000097 	swppl	r0, r7, [r0]	; <UNPREDICTABLE>
    3e18:	bf000002 	svclt	0x00000002
    3e1c:	0e000001 	cdpeq	0, 0, cr0, cr0, cr1, {0}
    3e20:	f3035001 	vhadd.u8	d5, d3, d1
    3e24:	11005001 	tstne	r0, r1
    3e28:	0000975c 	andeq	r9, r0, ip, asr r7
    3e2c:	0000020a 	andeq	r0, r0, sl, lsl #4
    3e30:	0b4f0f00 	bleq	13c7a38 <__bss_end__+0x13bd960>
    3e34:	49010000 	stmdbmi	r1, {}	; <UNPREDICTABLE>
    3e38:	00973406 	addseq	r3, r7, r6, lsl #8
    3e3c:	00001000 	andeq	r1, r0, r0
    3e40:	0a9c0100 	beq	fe704248 <__bss_end__+0xfe6fa170>
    3e44:	0a000002 	beq	3e54 <__code_start__-0x41ac>
    3e48:	006e6970 	rsbeq	r6, lr, r0, ror r9
    3e4c:	2c1e4901 			; <UNDEFINED> instruction: 0x2c1e4901
    3e50:	10000000 	andne	r0, r0, r0
    3e54:	0c00001b 	stceq	0, cr0, [r0], {27}
    3e58:	0d00001b 	stceq	0, cr0, [r0, #-108]	; 0xffffff94
    3e5c:	00009740 	andeq	r9, r0, r0, asr #14
    3e60:	000002d9 	ldrdeq	r0, [r0], -r9
    3e64:	0350010e 	cmpeq	r0, #-2147483645	; 0x80000003
    3e68:	0e5001f3 	mrceq	1, 2, r0, cr0, cr3, {7}
    3e6c:	30015101 	andcc	r5, r1, r1, lsl #2
    3e70:	5e0f0000 	cdppl	0, 0, cr0, cr15, cr0, {0}
    3e74:	0100000b 	tsteq	r0, fp
    3e78:	97100642 	ldrls	r0, [r0, -r2, asr #12]
    3e7c:	00240000 	eoreq	r0, r4, r0
    3e80:	9c010000 	stcls	0, cr0, [r1], {-0}
    3e84:	00000251 	andeq	r0, r0, r1, asr r2
    3e88:	6e69700a 	cdpvs	0, 6, cr7, cr9, cr10, {0}
    3e8c:	1c420100 	stfnee	f0, [r2], {-0}
    3e90:	0000002c 	andeq	r0, r0, ip, lsr #32
    3e94:	00001b35 	andeq	r1, r0, r5, lsr fp
    3e98:	00001b31 	andeq	r1, r0, r1, lsr fp
    3e9c:	00972c0d 	addseq	r2, r7, sp, lsl #24
    3ea0:	00039c00 	andeq	r9, r3, r0, lsl #24
    3ea4:	50010e00 	andpl	r0, r1, r0, lsl #28
    3ea8:	00280c05 	eoreq	r0, r8, r5, lsl #24
    3eac:	010e2020 	tsteq	lr, r0, lsr #32
    3eb0:	f3310551 	vqrshl.u64	q0, <illegal reg q0.5>, <illegal reg q0.5>
    3eb4:	00245001 	eoreq	r5, r4, r1
    3eb8:	0b9d0f00 	bleq	fe747ac0 <__bss_end__+0xfe73d9e8>
    3ebc:	3b010000 	blcc	43ec4 <__bss_end__+0x39dec>
    3ec0:	0096ec06 	addseq	lr, r6, r6, lsl #24
    3ec4:	00002400 	andeq	r2, r0, r0, lsl #8
    3ec8:	989c0100 	ldmls	ip, {r8}
    3ecc:	0a000002 	beq	3edc <__code_start__-0x4124>
    3ed0:	006e6970 	rsbeq	r6, lr, r0, ror r9
    3ed4:	2c1b3b01 			; <UNDEFINED> instruction: 0x2c1b3b01
    3ed8:	5a000000 	bpl	3ee0 <__code_start__-0x4120>
    3edc:	5600001b 			; <UNDEFINED> instruction: 0x5600001b
    3ee0:	0d00001b 	stceq	0, cr0, [r0, #-108]	; 0xffffff94
    3ee4:	00009708 	andeq	r9, r0, r8, lsl #14
    3ee8:	0000039c 	muleq	r0, ip, r3
    3eec:	0550010e 	ldrbeq	r0, [r0, #-270]	; 0xfffffef2
    3ef0:	20001c0c 	andcs	r1, r0, ip, lsl #24
    3ef4:	51010e20 	tstpl	r1, r0, lsr #28
    3ef8:	01f33105 	mvnseq	r3, r5, lsl #2
    3efc:	00002450 	andeq	r2, r0, r0, asr r4
    3f00:	000b6b0f 	andeq	r6, fp, pc, lsl #22
    3f04:	06360100 	ldrteq	r0, [r6], -r0, lsl #2
    3f08:	000096dc 	ldrdeq	r9, [r0], -ip
    3f0c:	00000010 	andeq	r0, r0, r0, lsl r0
    3f10:	02d99c01 	sbcseq	r9, r9, #256	; 0x100
    3f14:	700a0000 	andvc	r0, sl, r0
    3f18:	01006e69 	tsteq	r0, r9, ror #28
    3f1c:	002c1f36 	eoreq	r1, ip, r6, lsr pc
    3f20:	1b7f0000 	blne	1fc3f28 <__bss_end__+0x1fb9e50>
    3f24:	1b7b0000 	blne	1ec3f2c <__bss_end__+0x1eb9e54>
    3f28:	e80d0000 	stmda	sp, {}	; <UNPREDICTABLE>
    3f2c:	d9000096 	stmdble	r0, {r1, r2, r4, r7}
    3f30:	0e000002 	cdpeq	0, 0, cr0, cr0, cr2, {0}
    3f34:	f3035001 	vhadd.u8	d5, d3, d1
    3f38:	010e5001 	tsteq	lr, r1
    3f3c:	00310151 	eorseq	r0, r1, r1, asr r1
    3f40:	097e0f00 	ldmdbeq	lr!, {r8, r9, sl, fp}^
    3f44:	28010000 	stmdacs	r1, {}	; <UNPREDICTABLE>
    3f48:	00967806 	addseq	r7, r6, r6, lsl #16
    3f4c:	00006400 	andeq	r6, r0, r0, lsl #8
    3f50:	749c0100 	ldrvc	r0, [ip], #256	; 0x100
    3f54:	0a000003 	beq	3f68 <__code_start__-0x4098>
    3f58:	006e6970 	rsbeq	r6, lr, r0, ror r9
    3f5c:	2c212801 	stccs	8, cr2, [r1], #-4
    3f60:	a4000000 	strge	r0, [r0], #-0
    3f64:	a000001b 	andge	r0, r0, fp, lsl r0
    3f68:	1200001b 	andne	r0, r0, #27, 0
    3f6c:	000003c2 	andeq	r0, r0, r2, asr #7
    3f70:	c2322801 	eorsgt	r2, r2, #65536	; 0x10000
    3f74:	c9000000 	stmdbgt	r0, {}	; <UNPREDICTABLE>
    3f78:	c500001b 	strgt	r0, [r0, #-27]	; 0xffffffe5
    3f7c:	0c00001b 	stceq	0, cr0, [r0], {27}
    3f80:	0066666f 	rsbeq	r6, r6, pc, ror #12
    3f84:	2c0e2d01 	stccs	13, cr2, [lr], {1}
    3f88:	ec000000 	stc	0, cr0, [r0], {-0}
    3f8c:	ea00001b 	b	4000 <__code_start__-0x4000>
    3f90:	0c00001b 	stceq	0, cr0, [r0], {27}
    3f94:	2e010067 	cdpcs	0, 0, cr0, cr1, cr7, {3}
    3f98:	00002c0e 	andeq	r2, r0, lr, lsl #24
    3f9c:	001c0100 	andseq	r0, ip, r0, lsl #2
    3fa0:	001bff00 	andseq	pc, fp, r0, lsl #30
    3fa4:	00760c00 	rsbseq	r0, r6, r0, lsl #24
    3fa8:	2c0e3001 	stccs	0, cr3, [lr], {1}
    3fac:	1c000000 	stcne	0, cr0, [r0], {-0}
    3fb0:	1400001c 	strne	r0, [r0], #-28	; 0xffffffe4
    3fb4:	1000001c 	andne	r0, r0, ip, lsl r0
    3fb8:	000096c0 	andeq	r9, r0, r0, asr #13
    3fbc:	00000390 	muleq	r0, r0, r3
    3fc0:	00000363 	andeq	r0, r0, r3, ror #6
    3fc4:	0250010e 	subseq	r0, r0, #-2147483645	; 0x80000003
    3fc8:	0d000076 	stceq	0, cr0, [r0, #-472]	; 0xfffffe28
    3fcc:	000096d4 	ldrdeq	r9, [r0], -r4
    3fd0:	0000039c 	muleq	r0, ip, r3
    3fd4:	0250010e 	subseq	r0, r0, #-2147483645	; 0x80000003
    3fd8:	00000076 	andeq	r0, r0, r6, ror r0
    3fdc:	000b3b13 	andeq	r3, fp, r3, lsl fp
    3fe0:	18b10200 	ldmne	r1!, {r9}
    3fe4:	00000062 	andeq	r0, r0, r2, rrx
    3fe8:	00039003 	andeq	r9, r3, r3
    3fec:	00781400 	rsbseq	r1, r8, r0, lsl #8
    3ff0:	622bb102 	eorvs	fp, fp, #-2147483648	; 0x80000000
    3ff4:	00000000 	andeq	r0, r0, r0
    3ff8:	00075e15 	andeq	r5, r7, r5, lsl lr
    3ffc:	00075e00 	andeq	r5, r7, r0, lsl #28
    4000:	0ac20200 	beq	ff084808 <__bss_end__+0xff07a730>
    4004:	0006ca15 	andeq	ip, r6, r5, lsl sl
    4008:	0006ca00 	andeq	ip, r6, r0, lsl #20
    400c:	06ad0200 	strteq	r0, [sp], r0, lsl #4
	...

Disassembly of section .debug_abbrev:

00000000 <.debug_abbrev>:
       0:	25011101 	strcs	r1, [r1, #-257]	; 0xfffffeff
       4:	030b130e 	movweq	r1, #45838	; 0xb30e
       8:	110e1b0e 	tstne	lr, lr, lsl #22
       c:	10061201 	andne	r1, r6, r1, lsl #4
      10:	02000017 	andeq	r0, r0, #23, 0
      14:	0b0b0024 	bleq	2c00ac <__bss_end__+0x2b5fd4>
      18:	08030b3e 	stmdaeq	r3, {r1, r2, r3, r4, r5, r8, r9, fp}
      1c:	24030000 	strcs	r0, [r3], #-0
      20:	3e0b0b00 	vmlacc.f64	d0, d11, d0
      24:	000e030b 	andeq	r0, lr, fp, lsl #6
      28:	00350400 	eorseq	r0, r5, r0, lsl #8
      2c:	00001349 	andeq	r1, r0, r9, asr #6
      30:	03001605 	movweq	r1, #1541	; 0x605
      34:	3b0b3a0e 	blcc	2ce874 <__bss_end__+0x2c479c>
      38:	490b390b 	stmdbmi	fp, {r0, r1, r3, r8, fp, ip, sp}
      3c:	06000013 			; <UNDEFINED> instruction: 0x06000013
      40:	19270115 	stmdbne	r7!, {r0, r2, r4, r8}
      44:	13011349 	movwne	r1, #4937	; 0x1349
      48:	05070000 	streq	r0, [r7, #-0]
      4c:	00134900 	andseq	r4, r3, r0, lsl #18
      50:	00340800 	eorseq	r0, r4, r0, lsl #16
      54:	0b3a0e03 	bleq	e83868 <__bss_end__+0xe79790>
      58:	0b390b3b 	bleq	e42d4c <__bss_end__+0xe38c74>
      5c:	193f1349 	ldmdbne	pc!, {r0, r3, r6, r8, r9, ip}	; <UNPREDICTABLE>
      60:	0000193c 	andeq	r1, r0, ip, lsr r9
      64:	0b000f09 	bleq	3c90 <__code_start__-0x4370>
      68:	0013490b 	andseq	r4, r3, fp, lsl #18
      6c:	00260a00 	eoreq	r0, r6, r0, lsl #20
      70:	00001349 	andeq	r1, r0, r9, asr #6
      74:	0301130b 	movweq	r1, #4875	; 0x130b
      78:	3a0b0b0e 	bcc	2c2cb8 <__bss_end__+0x2b8be0>
      7c:	010b3b0b 	tsteq	fp, fp, lsl #22
      80:	0c000013 	stceq	0, cr0, [r0], {19}
      84:	0e03000d 	cdpeq	0, 0, cr0, cr3, cr13, {0}
      88:	0b381349 	bleq	e04db4 <__bss_end__+0xdfacdc>
      8c:	00001934 	andeq	r1, r0, r4, lsr r9
      90:	0b000f0d 	bleq	3ccc <__code_start__-0x4334>
      94:	0e00000b 	cdpeq	0, 0, cr0, cr0, cr11, {0}
      98:	0b3e0104 	bleq	f804b0 <__bss_end__+0xf763d8>
      9c:	13490b0b 	movtne	r0, #39691	; 0x9b0b
      a0:	0b3b0b3a 	bleq	ec2d90 <__bss_end__+0xeb8cb8>
      a4:	13010b39 	movwne	r0, #6969	; 0x1b39
      a8:	280f0000 	stmdacs	pc, {}	; <UNPREDICTABLE>
      ac:	1c0e0300 	stcne	3, cr0, [lr], {-0}
      b0:	1000000b 	andne	r0, r0, fp
      b4:	19270015 	stmdbne	r7!, {r0, r2, r4}
      b8:	34110000 	ldrcc	r0, [r1], #-0
      bc:	3a080300 	bcc	200cc4 <__bss_end__+0x1f6bec>
      c0:	390b3b0b 	stmdbcc	fp, {r0, r1, r3, r8, r9, fp, ip, sp}
      c4:	0213490b 	andseq	r4, r3, #180224	; 0x2c000
      c8:	12000018 	andne	r0, r0, #24, 0
      cc:	193f012e 	ldmdbne	pc!, {r1, r2, r3, r5, r8}	; <UNPREDICTABLE>
      d0:	0b3a0e03 	bleq	e838e4 <__bss_end__+0xe7980c>
      d4:	0b390b3b 	bleq	e42dc8 <__bss_end__+0xe38cf0>
      d8:	01111927 	tsteq	r1, r7, lsr #18
      dc:	18400612 	stmdane	r0, {r1, r4, r9, sl}^
      e0:	01194296 			; <UNDEFINED> instruction: 0x01194296
      e4:	13000013 	movwne	r0, #19
      e8:	0e030034 	mcreq	0, 0, r0, cr3, cr4, {1}
      ec:	0b3b0b3a 	bleq	ec2ddc <__bss_end__+0xeb8d04>
      f0:	13490b39 	movtne	r0, #39737	; 0x9b39
      f4:	00001802 	andeq	r1, r0, r2, lsl #16
      f8:	03003414 	movweq	r3, #1044	; 0x414
      fc:	3b0b3a08 	blcc	2ce924 <__bss_end__+0x2c484c>
     100:	490b390b 	stmdbmi	fp, {r0, r1, r3, r8, fp, ip, sp}
     104:	000b1c13 	andeq	r1, fp, r3, lsl ip
     108:	00341500 	eorseq	r1, r4, r0, lsl #10
     10c:	13490e03 	movtne	r0, #40451	; 0x9e03
     110:	18021934 	stmdane	r2, {r2, r4, r5, r8, fp, ip}
     114:	34160000 	ldrcc	r0, [r6], #-0
     118:	3a0e0300 	bcc	380d20 <__bss_end__+0x376c48>
     11c:	390b3b0b 	stmdbcc	fp, {r0, r1, r3, r8, r9, fp, ip, sp}
     120:	0213490b 	andseq	r4, r3, #180224	; 0x2c000
     124:	1742b717 	smlaldne	fp, r2, r7, r7
     128:	34170000 	ldrcc	r0, [r7], #-0
     12c:	3a080300 	bcc	200d34 <__bss_end__+0x1f6c5c>
     130:	390b3b0b 	stmdbcc	fp, {r0, r1, r3, r8, r9, fp, ip, sp}
     134:	0213490b 	andseq	r4, r3, #180224	; 0x2c000
     138:	1742b717 	smlaldne	fp, r2, r7, r7
     13c:	0b180000 	bleq	600144 <__bss_end__+0x5f606c>
     140:	12011101 	andne	r1, r1, #1073741824	; 0x40000000
     144:	00130106 	andseq	r0, r3, r6, lsl #2
     148:	82891900 	addhi	r1, r9, #0, 18
     14c:	01110101 	tsteq	r1, r1, lsl #2
     150:	13011331 	movwne	r1, #4913	; 0x1331
     154:	8a1a0000 	bhi	68015c <__bss_end__+0x676084>
     158:	02000182 	andeq	r0, r0, #-2147483616	; 0x80000020
     15c:	18429118 	stmdane	r2, {r3, r4, r8, ip, pc}^
     160:	891b0000 	ldmdbhi	fp, {}	; <UNPREDICTABLE>
     164:	11010182 	smlabbne	r1, r2, r1, r0
     168:	00133101 	andseq	r3, r3, r1, lsl #2
     16c:	82891c00 	addhi	r1, r9, #0, 24
     170:	01110001 	tsteq	r1, r1
     174:	00001331 	andeq	r1, r0, r1, lsr r3
     178:	0182891d 	orreq	r8, r2, sp, lsl r9
     17c:	93011100 	movwls	r1, #4352	; 0x1100
     180:	00001842 	andeq	r1, r0, r2, asr #16
     184:	4901011e 	stmdbmi	r1, {r1, r2, r3, r4, r8}
     188:	00130113 	andseq	r0, r3, r3, lsl r1
     18c:	00211f00 	eoreq	r1, r1, r0, lsl #30
     190:	0b2f1349 	bleq	bc4ebc <__bss_end__+0xbbade4>
     194:	2e200000 	cdpcs	0, 2, cr0, cr0, cr0, {0}
     198:	03193f01 	tsteq	r9, #1, 30
     19c:	3b0b3a0e 	blcc	2ce9dc <__bss_end__+0x2c4904>
     1a0:	270b390b 	strcs	r3, [fp, -fp, lsl #18]
     1a4:	12011119 	andne	r1, r1, #1073741830	; 0x40000006
     1a8:	97184006 	ldrls	r4, [r8, -r6]
     1ac:	13011942 	movwne	r1, #6466	; 0x1942
     1b0:	2e210000 	cdpcs	0, 2, cr0, cr1, cr0, {0}
     1b4:	03193f01 	tsteq	r9, #1, 30
     1b8:	3b0b3a0e 	blcc	2ce9f8 <__bss_end__+0x2c4920>
     1bc:	270b390b 	strcs	r3, [fp, -fp, lsl #18]
     1c0:	11134919 	tstne	r3, r9, lsl r9
     1c4:	40061201 	andmi	r1, r6, r1, lsl #4
     1c8:	19429718 	stmdbne	r2, {r3, r4, r8, r9, sl, ip, pc}^
     1cc:	00001301 	andeq	r1, r0, r1, lsl #6
     1d0:	03000522 	movweq	r0, #1314	; 0x522
     1d4:	3b0b3a0e 	blcc	2cea14 <__bss_end__+0x2c493c>
     1d8:	490b390b 	stmdbmi	fp, {r0, r1, r3, r8, fp, ip, sp}
     1dc:	b7170213 			; <UNDEFINED> instruction: 0xb7170213
     1e0:	00001742 	andeq	r1, r0, r2, asr #14
     1e4:	03000523 	movweq	r0, #1315	; 0x523
     1e8:	3b0b3a08 	blcc	2cea10 <__bss_end__+0x2c4938>
     1ec:	490b390b 	stmdbmi	fp, {r0, r1, r3, r8, fp, ip, sp}
     1f0:	00180213 	andseq	r0, r8, r3, lsl r2
     1f4:	00182400 	andseq	r2, r8, r0, lsl #8
     1f8:	0b250000 	bleq	940200 <__bss_end__+0x936128>
     1fc:	01175501 	tsteq	r7, r1, lsl #10
     200:	26000013 			; <UNDEFINED> instruction: 0x26000013
     204:	1331011d 	teqne	r1, #1073741831	; 0x40000007
     208:	42b80152 	adcsmi	r0, r8, #-2147483628	; 0x80000014
     20c:	1201110b 	andne	r1, r1, #-1073741822	; 0xc0000002
     210:	590b5806 	stmdbpl	fp, {r1, r2, fp, ip, lr}
     214:	000b570b 	andeq	r5, fp, fp, lsl #14
     218:	00052700 	andeq	r2, r5, r0, lsl #14
     21c:	17021331 	smladxne	r2, r1, r3, r1
     220:	001742b7 			; <UNDEFINED> instruction: 0x001742b7
     224:	011d2800 	tsteq	sp, r0, lsl #16
     228:	01521331 	cmpeq	r2, r1, lsr r3
     22c:	110b42b8 			; <UNDEFINED> instruction: 0x110b42b8
     230:	58061201 	stmdapl	r6, {r0, r9, ip}
     234:	570b590b 	strpl	r5, [fp, -fp, lsl #18]
     238:	0013010b 	andseq	r0, r3, fp, lsl #2
     23c:	00342900 	eorseq	r2, r4, r0, lsl #18
     240:	17021331 	smladxne	r2, r1, r3, r1
     244:	001742b7 			; <UNDEFINED> instruction: 0x001742b7
     248:	00052a00 	andeq	r2, r5, r0, lsl #20
     24c:	0b3a0803 	bleq	e82260 <__bss_end__+0xe78188>
     250:	0b390b3b 	bleq	e42f44 <__bss_end__+0xe38e6c>
     254:	17021349 	strne	r1, [r2, -r9, asr #6]
     258:	001742b7 			; <UNDEFINED> instruction: 0x001742b7
     25c:	010b2b00 	tsteq	fp, r0, lsl #22
     260:	06120111 			; <UNDEFINED> instruction: 0x06120111
     264:	2e2c0000 	cdpcs	0, 2, cr0, cr12, cr0, {0}
     268:	03193f00 	tsteq	r9, #0, 30
     26c:	3b0b3a0e 	blcc	2ceaac <__bss_end__+0x2c49d4>
     270:	110b390b 	tstne	fp, fp, lsl #18
     274:	40061201 	andmi	r1, r6, r1, lsl #4
     278:	19429718 	stmdbne	r2, {r3, r4, r8, r9, sl, ip, pc}^
     27c:	2e2d0000 	cdpcs	0, 2, cr0, cr13, cr0, {0}
     280:	3a0e0301 	bcc	380e8c <__bss_end__+0x376db4>
     284:	390b3b0b 	stmdbcc	fp, {r0, r1, r3, r8, r9, fp, ip, sp}
     288:	4919270b 	ldmdbmi	r9, {r0, r1, r3, r8, r9, sl, sp}
     28c:	010b2013 	tsteq	fp, r3, lsl r0
     290:	2e000013 	mcrcs	0, 0, r0, cr0, cr3, {0}
     294:	08030005 	stmdaeq	r3, {r0, r2}
     298:	0b3b0b3a 	bleq	ec2f88 <__bss_end__+0xeb8eb0>
     29c:	13490b39 	movtne	r0, #39737	; 0x9b39
     2a0:	052f0000 	streq	r0, [pc, #-0]!	; 2a8 <__code_start__-0x7d58>
     2a4:	3a0e0300 	bcc	380eac <__bss_end__+0x376dd4>
     2a8:	390b3b0b 	stmdbcc	fp, {r0, r1, r3, r8, r9, fp, ip, sp}
     2ac:	0013490b 	andseq	r4, r3, fp, lsl #18
     2b0:	00343000 	eorseq	r3, r4, r0
     2b4:	0b3a0e03 	bleq	e83ac8 <__bss_end__+0xe799f0>
     2b8:	0b390b3b 	bleq	e42fac <__bss_end__+0xe38ed4>
     2bc:	00001349 	andeq	r1, r0, r9, asr #6
     2c0:	3f002e31 	svccc	0x00002e31
     2c4:	6e193c19 	mrcvs	12, 0, r3, cr9, cr9, {0}
     2c8:	3a0e030e 	bcc	380f08 <__bss_end__+0x376e30>
     2cc:	390b3b0b 	stmdbcc	fp, {r0, r1, r3, r8, r9, fp, ip, sp}
     2d0:	0000000b 	andeq	r0, r0, fp
     2d4:	25011101 	strcs	r1, [r1, #-257]	; 0xfffffeff
     2d8:	030b130e 	movweq	r1, #45838	; 0xb30e
     2dc:	110e1b0e 	tstne	lr, lr, lsl #22
     2e0:	10061201 	andne	r1, r6, r1, lsl #4
     2e4:	02000017 	andeq	r0, r0, #23, 0
     2e8:	0e030016 	mcreq	0, 0, r0, cr3, cr6, {0}
     2ec:	0b3b0b3a 	bleq	ec2fdc <__bss_end__+0xeb8f04>
     2f0:	13490b39 	movtne	r0, #39737	; 0x9b39
     2f4:	13030000 	movwne	r0, #12288	; 0x3000
     2f8:	0b0e0301 	bleq	380f04 <__bss_end__+0x376e2c>
     2fc:	3b0b3a0b 	blcc	2ceb30 <__bss_end__+0x2c4a58>
     300:	0013010b 	andseq	r0, r3, fp, lsl #2
     304:	000d0400 	andeq	r0, sp, r0, lsl #8
     308:	13490e03 	movtne	r0, #40451	; 0x9e03
     30c:	19340b38 	ldmdbne	r4!, {r3, r4, r5, r8, r9, fp}
     310:	0f050000 	svceq	0x00050000
     314:	000b0b00 	andeq	r0, fp, r0, lsl #22
     318:	00240600 	eoreq	r0, r4, r0, lsl #12
     31c:	0b3e0b0b 	bleq	f82f50 <__bss_end__+0xf78e78>
     320:	00000803 	andeq	r0, r0, r3, lsl #16
     324:	0b002407 	bleq	9348 <kmalloc_notzero+0x3c>
     328:	030b3e0b 	movweq	r3, #48651	; 0xbe0b
     32c:	0800000e 	stmdaeq	r0, {r1, r2, r3}
     330:	19270115 	stmdbne	r7!, {r0, r2, r4, r8}
     334:	13011349 	movwne	r1, #4937	; 0x1349
     338:	05090000 	streq	r0, [r9, #-0]
     33c:	00134900 	andseq	r4, r3, r0, lsl #18
     340:	00340a00 	eorseq	r0, r4, r0, lsl #20
     344:	0b3a0e03 	bleq	e83b58 <__bss_end__+0xe79a80>
     348:	0b390b3b 	bleq	e4303c <__bss_end__+0xe38f64>
     34c:	193f1349 	ldmdbne	pc!, {r0, r3, r6, r8, r9, ip}	; <UNPREDICTABLE>
     350:	0000193c 	andeq	r1, r0, ip, lsr r9
     354:	0b000f0b 	bleq	3f88 <__code_start__-0x4078>
     358:	0013490b 	andseq	r4, r3, fp, lsl #18
     35c:	00260c00 	eoreq	r0, r6, r0, lsl #24
     360:	00001349 	andeq	r1, r0, r9, asr #6
     364:	3f012e0d 	svccc	0x00012e0d
     368:	3a0e0319 	bcc	380fd4 <__bss_end__+0x376efc>
     36c:	390b3b0b 	stmdbcc	fp, {r0, r1, r3, r8, r9, fp, ip, sp}
     370:	4919270b 	ldmdbmi	r9, {r0, r1, r3, r8, r9, sl, sp}
     374:	12011113 	andne	r1, r1, #-1073741820	; 0xc0000004
     378:	97184006 	ldrls	r4, [r8, -r6]
     37c:	13011942 	movwne	r1, #6466	; 0x1942
     380:	050e0000 	streq	r0, [lr, #-0]
     384:	3a080300 	bcc	200f8c <__bss_end__+0x1f6eb4>
     388:	390b3b0b 	stmdbcc	fp, {r0, r1, r3, r8, r9, fp, ip, sp}
     38c:	0213490b 	andseq	r4, r3, #180224	; 0x2c000
     390:	0f000018 	svceq	0x00000018
     394:	00000018 	andeq	r0, r0, r8, lsl r0
     398:	03003410 	movweq	r3, #1040	; 0x410
     39c:	3b0b3a08 	blcc	2cebc4 <__bss_end__+0x2c4aec>
     3a0:	490b390b 	stmdbmi	fp, {r0, r1, r3, r8, fp, ip, sp}
     3a4:	00180213 	andseq	r0, r8, r3, lsl r2
     3a8:	00341100 	eorseq	r1, r4, r0, lsl #2
     3ac:	0b3a0e03 	bleq	e83bc0 <__bss_end__+0xe79ae8>
     3b0:	0b390b3b 	bleq	e430a4 <__bss_end__+0xe38fcc>
     3b4:	18021349 	stmdane	r2, {r0, r3, r6, r8, r9, ip}
     3b8:	34120000 	ldrcc	r0, [r2], #-0
     3bc:	3a080300 	bcc	200fc4 <__bss_end__+0x1f6eec>
     3c0:	390b3b0b 	stmdbcc	fp, {r0, r1, r3, r8, r9, fp, ip, sp}
     3c4:	0213490b 	andseq	r4, r3, #180224	; 0x2c000
     3c8:	1742b717 	smlaldne	fp, r2, r7, r7
     3cc:	89130000 	ldmdbhi	r3, {}	; <UNPREDICTABLE>
     3d0:	11010182 	smlabbne	r1, r2, r1, r0
     3d4:	01133101 	tsteq	r3, r1, lsl #2
     3d8:	14000013 	strne	r0, [r0], #-19	; 0xffffffed
     3dc:	0001828a 	andeq	r8, r1, sl, lsl #5
     3e0:	42911802 	addsmi	r1, r1, #131072	; 0x20000
     3e4:	15000018 	strne	r0, [r0, #-24]	; 0xffffffe8
     3e8:	01018289 	smlabbeq	r1, r9, r2, r8
     3ec:	00000111 	andeq	r0, r0, r1, lsl r1
     3f0:	49010116 	stmdbmi	r1, {r1, r2, r4, r8}
     3f4:	00130113 	andseq	r0, r3, r3, lsl r1
     3f8:	00211700 	eoreq	r1, r1, r0, lsl #14
     3fc:	052f1349 	streq	r1, [pc, #-841]!	; bb <__code_start__-0x7f45>
     400:	2e180000 	cdpcs	0, 1, cr0, cr8, cr0, {0}
     404:	3c193f00 	ldccc	15, cr3, [r9], {-0}
     408:	030e6e19 	movweq	r6, #60953	; 0xee19
     40c:	3b0b3a0e 	blcc	2cec4c <__bss_end__+0x2c4b74>
     410:	000b390b 	andeq	r3, fp, fp, lsl #18
     414:	11010000 	mrsne	r0, (UNDEF: 1)
     418:	130e2501 	movwne	r2, #58625	; 0xe501
     41c:	1b0e030b 	blne	381050 <__bss_end__+0x376f78>
     420:	1201110e 	andne	r1, r1, #-2147483645	; 0x80000003
     424:	00171006 	andseq	r1, r7, r6
     428:	00240200 	eoreq	r0, r4, r0, lsl #4
     42c:	0b3e0b0b 	bleq	f83060 <__bss_end__+0xf78f88>
     430:	00000803 	andeq	r0, r0, r3, lsl #16
     434:	0b002403 	bleq	9448 <kmalloc_aligned+0x40>
     438:	030b3e0b 	movweq	r3, #48651	; 0xbe0b
     43c:	0400000e 	streq	r0, [r0], #-14
     440:	19270115 	stmdbne	r7!, {r0, r2, r4, r8}
     444:	13011349 	movwne	r1, #4937	; 0x1349
     448:	05050000 	streq	r0, [r5, #-0]
     44c:	00134900 	andseq	r4, r3, r0, lsl #18
     450:	00340600 	eorseq	r0, r4, r0, lsl #12
     454:	0b3a0e03 	bleq	e83c68 <__bss_end__+0xe79b90>
     458:	0b390b3b 	bleq	e4314c <__bss_end__+0xe39074>
     45c:	193f1349 	ldmdbne	pc!, {r0, r3, r6, r8, r9, ip}	; <UNPREDICTABLE>
     460:	0000193c 	andeq	r1, r0, ip, lsr r9
     464:	0b000f07 	bleq	4088 <__code_start__-0x3f78>
     468:	0013490b 	andseq	r4, r3, fp, lsl #18
     46c:	00260800 	eoreq	r0, r6, r0, lsl #16
     470:	00001349 	andeq	r1, r0, r9, asr #6
     474:	47003409 	strmi	r3, [r0, -r9, lsl #8]
     478:	3b0b3a13 	blcc	2ceccc <__bss_end__+0x2c4bf4>
     47c:	020b390b 	andeq	r3, fp, #180224	; 0x2c000
     480:	0a000018 	beq	4e8 <__code_start__-0x7b18>
     484:	193f012e 	ldmdbne	pc!, {r1, r2, r3, r5, r8}	; <UNPREDICTABLE>
     488:	0b3a0e03 	bleq	e83c9c <__bss_end__+0xe79bc4>
     48c:	0b390b3b 	bleq	e43180 <__bss_end__+0xe390a8>
     490:	01111927 	tsteq	r1, r7, lsr #18
     494:	18400612 	stmdane	r0, {r1, r4, r9, sl}^
     498:	01194297 			; <UNDEFINED> instruction: 0x01194297
     49c:	0b000013 	bleq	4f0 <__code_start__-0x7b10>
     4a0:	08030005 	stmdaeq	r3, {r0, r2}
     4a4:	0b3b0b3a 	bleq	ec3194 <__bss_end__+0xeb90bc>
     4a8:	13490b39 	movtne	r0, #39737	; 0x9b39
     4ac:	00001802 	andeq	r1, r0, r2, lsl #16
     4b0:	3f002e0c 	svccc	0x00002e0c
     4b4:	3a0e0319 	bcc	381120 <__bss_end__+0x377048>
     4b8:	390b3b0b 	stmdbcc	fp, {r0, r1, r3, r8, r9, fp, ip, sp}
     4bc:	1119270b 	tstne	r9, fp, lsl #14
     4c0:	40061201 	andmi	r1, r6, r1, lsl #4
     4c4:	19429718 	stmdbne	r2, {r3, r4, r8, r9, sl, ip, pc}^
     4c8:	2e0d0000 	cdpcs	0, 0, cr0, cr13, cr0, {0}
     4cc:	3a0e0301 	bcc	3810d8 <__bss_end__+0x377000>
     4d0:	390b3b0b 	stmdbcc	fp, {r0, r1, r3, r8, r9, fp, ip, sp}
     4d4:	4919270b 	ldmdbmi	r9, {r0, r1, r3, r8, r9, sl, sp}
     4d8:	12011113 	andne	r1, r1, #-1073741820	; 0xc0000004
     4dc:	97184006 	ldrls	r4, [r8, -r6]
     4e0:	13011942 	movwne	r1, #6466	; 0x1942
     4e4:	050e0000 	streq	r0, [lr, #-0]
     4e8:	3a080300 	bcc	2010f0 <__bss_end__+0x1f7018>
     4ec:	390b3b0b 	stmdbcc	fp, {r0, r1, r3, r8, r9, fp, ip, sp}
     4f0:	0213490b 	andseq	r4, r3, #180224	; 0x2c000
     4f4:	1742b717 	smlaldne	fp, r2, r7, r7
     4f8:	890f0000 	stmdbhi	pc, {}	; <UNPREDICTABLE>
     4fc:	11010182 	smlabbne	r1, r2, r1, r0
     500:	00133101 	andseq	r3, r3, r1, lsl #2
     504:	828a1000 	addhi	r1, sl, #0, 0
     508:	18020001 	stmdane	r2, {r0}
     50c:	00184291 	mulseq	r8, r1, r2
     510:	002e1100 	eoreq	r1, lr, r0, lsl #2
     514:	193c193f 	ldmdbne	ip!, {r0, r1, r2, r3, r4, r5, r8, fp, ip}
     518:	0e030e6e 	cdpeq	14, 0, cr0, cr3, cr14, {3}
     51c:	0b3b0b3a 	bleq	ec320c <__bss_end__+0xeb9134>
     520:	00000b39 	andeq	r0, r0, r9, lsr fp
     524:	01110100 	tsteq	r1, r0, lsl #2
     528:	0b130e25 	bleq	4c3dc4 <__bss_end__+0x4b9cec>
     52c:	0e1b0e03 	cdpeq	14, 1, cr0, cr11, cr3, {0}
     530:	06120111 			; <UNDEFINED> instruction: 0x06120111
     534:	00001710 	andeq	r1, r0, r0, lsl r7
     538:	0b002402 	bleq	9548 <kfree_pop+0x10>
     53c:	030b3e0b 	movweq	r3, #48651	; 0xbe0b
     540:	03000008 	movweq	r0, #8
     544:	0b0b0024 	bleq	2c05dc <__bss_end__+0x2b6504>
     548:	0e030b3e 	vmoveq.16	d3[0], r0
     54c:	15040000 	strne	r0, [r4, #-0]
     550:	49192701 	ldmdbmi	r9, {r0, r8, r9, sl, sp}
     554:	00130113 	andseq	r0, r3, r3, lsl r1
     558:	00050500 	andeq	r0, r5, r0, lsl #10
     55c:	00001349 	andeq	r1, r0, r9, asr #6
     560:	03003406 	movweq	r3, #1030	; 0x406
     564:	3b0b3a0e 	blcc	2ceda4 <__bss_end__+0x2c4ccc>
     568:	490b390b 	stmdbmi	fp, {r0, r1, r3, r8, fp, ip, sp}
     56c:	3c193f13 	ldccc	15, cr3, [r9], {19}
     570:	07000019 	smladeq	r0, r9, r0, r0
     574:	0b0b000f 	bleq	2c05b8 <__bss_end__+0x2b64e0>
     578:	00001349 	andeq	r1, r0, r9, asr #6
     57c:	49002608 	stmdbmi	r0, {r3, r9, sl, sp}
     580:	09000013 	stmdbeq	r0, {r0, r1, r4}
     584:	13470034 	movtne	r0, #28724	; 0x7034
     588:	0b3b0b3a 	bleq	ec3278 <__bss_end__+0xeb91a0>
     58c:	18020b39 	stmdane	r2, {r0, r3, r4, r5, r8, r9, fp}
     590:	2e0a0000 	cdpcs	0, 0, cr0, cr10, cr0, {0}
     594:	03193f01 	tsteq	r9, #1, 30
     598:	3b0b3a0e 	blcc	2cedd8 <__bss_end__+0x2c4d00>
     59c:	270b390b 	strcs	r3, [fp, -fp, lsl #18]
     5a0:	11134919 	tstne	r3, r9, lsl r9
     5a4:	40061201 	andmi	r1, r6, r1, lsl #4
     5a8:	19429618 	stmdbne	r2, {r3, r4, r9, sl, ip, pc}^
     5ac:	050b0000 	streq	r0, [fp, #-0]
     5b0:	3a080300 	bcc	2011b8 <__bss_end__+0x1f70e0>
     5b4:	390b3b0b 	stmdbcc	fp, {r0, r1, r3, r8, r9, fp, ip, sp}
     5b8:	0213490b 	andseq	r4, r3, #180224	; 0x2c000
     5bc:	1742b717 	smlaldne	fp, r2, r7, r7
     5c0:	01000000 	mrseq	r0, (UNDEF: 0)
     5c4:	0e250111 	mcreq	1, 1, r0, cr5, cr1, {0}
     5c8:	0e030b13 	vmoveq.32	d3[0], r0
     5cc:	01110e1b 	tsteq	r1, fp, lsl lr
     5d0:	17100612 			; <UNDEFINED> instruction: 0x17100612
     5d4:	24020000 	strcs	r0, [r2], #-0
     5d8:	3e0b0b00 	vmlacc.f64	d0, d11, d0
     5dc:	0008030b 	andeq	r0, r8, fp, lsl #6
     5e0:	00240300 	eoreq	r0, r4, r0, lsl #6
     5e4:	0b3e0b0b 	bleq	f83218 <__bss_end__+0xf79140>
     5e8:	00000e03 	andeq	r0, r0, r3, lsl #28
     5ec:	03001604 	movweq	r1, #1540	; 0x604
     5f0:	3b0b3a0e 	blcc	2cee30 <__bss_end__+0x2c4d58>
     5f4:	490b390b 	stmdbmi	fp, {r0, r1, r3, r8, fp, ip, sp}
     5f8:	05000013 	streq	r0, [r0, #-19]	; 0xffffffed
     5fc:	19270115 	stmdbne	r7!, {r0, r2, r4, r8}
     600:	13011349 	movwne	r1, #4937	; 0x1349
     604:	05060000 	streq	r0, [r6, #-0]
     608:	00134900 	andseq	r4, r3, r0, lsl #18
     60c:	00340700 	eorseq	r0, r4, r0, lsl #14
     610:	0b3a0e03 	bleq	e83e24 <__bss_end__+0xe79d4c>
     614:	0b390b3b 	bleq	e43308 <__bss_end__+0xe39230>
     618:	193f1349 	ldmdbne	pc!, {r0, r3, r6, r8, r9, ip}	; <UNPREDICTABLE>
     61c:	0000193c 	andeq	r1, r0, ip, lsr r9
     620:	0b000f08 	bleq	4248 <__code_start__-0x3db8>
     624:	0013490b 	andseq	r4, r3, fp, lsl #18
     628:	00260900 	eoreq	r0, r6, r0, lsl #18
     62c:	00001349 	andeq	r1, r0, r9, asr #6
     630:	0301130a 	movweq	r1, #4874	; 0x130a
     634:	3a0b0b0e 	bcc	2c3274 <__bss_end__+0x2b919c>
     638:	010b3b0b 	tsteq	fp, fp, lsl #22
     63c:	0b000013 	bleq	690 <__code_start__-0x7970>
     640:	0e03000d 	cdpeq	0, 0, cr0, cr3, cr13, {0}
     644:	0b381349 	bleq	e05370 <__bss_end__+0xdfb298>
     648:	00001934 	andeq	r1, r0, r4, lsr r9
     64c:	0b000f0c 	bleq	4284 <__code_start__-0x3d7c>
     650:	0d00000b 	stceq	0, cr0, [r0, #-44]	; 0xffffffd4
     654:	193f012e 	ldmdbne	pc!, {r1, r2, r3, r5, r8}	; <UNPREDICTABLE>
     658:	0b3a0e03 	bleq	e83e6c <__bss_end__+0xe79d94>
     65c:	0b390b3b 	bleq	e43350 <__bss_end__+0xe39278>
     660:	13491927 	movtne	r1, #39207	; 0x9927
     664:	06120111 			; <UNDEFINED> instruction: 0x06120111
     668:	42971840 	addsmi	r1, r7, #64, 16	; 0x400000
     66c:	00130119 	andseq	r0, r3, r9, lsl r1
     670:	00050e00 	andeq	r0, r5, r0, lsl #28
     674:	0b3a0803 	bleq	e82688 <__bss_end__+0xe785b0>
     678:	0b390b3b 	bleq	e4336c <__bss_end__+0xe39294>
     67c:	17021349 	strne	r1, [r2, -r9, asr #6]
     680:	001742b7 			; <UNDEFINED> instruction: 0x001742b7
     684:	00050f00 	andeq	r0, r5, r0, lsl #30
     688:	0b3a0e03 	bleq	e83e9c <__bss_end__+0xe79dc4>
     68c:	0b390b3b 	bleq	e43380 <__bss_end__+0xe392a8>
     690:	18021349 	stmdane	r2, {r0, r3, r6, r8, r9, ip}
     694:	34100000 	ldrcc	r0, [r0], #-0
     698:	3a080300 	bcc	2012a0 <__bss_end__+0x1f71c8>
     69c:	390b3b0b 	stmdbcc	fp, {r0, r1, r3, r8, r9, fp, ip, sp}
     6a0:	0213490b 	andseq	r4, r3, #180224	; 0x2c000
     6a4:	1742b717 	smlaldne	fp, r2, r7, r7
     6a8:	34110000 	ldrcc	r0, [r1], #-0
     6ac:	3a0e0300 	bcc	3812b4 <__bss_end__+0x3771dc>
     6b0:	390b3b0b 	stmdbcc	fp, {r0, r1, r3, r8, r9, fp, ip, sp}
     6b4:	0213490b 	andseq	r4, r3, #180224	; 0x2c000
     6b8:	1742b717 	smlaldne	fp, r2, r7, r7
     6bc:	34120000 	ldrcc	r0, [r2], #-0
     6c0:	490e0300 	stmdbmi	lr, {r8, r9}
     6c4:	02193413 	andseq	r3, r9, #318767104	; 0x13000000
     6c8:	13000018 	movwne	r0, #24
     6cc:	0111010b 	tsteq	r1, fp, lsl #2
     6d0:	00000612 	andeq	r0, r0, r2, lsl r6
     6d4:	03003414 	movweq	r3, #1044	; 0x414
     6d8:	3b0b3a08 	blcc	2cef00 <__bss_end__+0x2c4e28>
     6dc:	490b390b 	stmdbmi	fp, {r0, r1, r3, r8, fp, ip, sp}
     6e0:	00180213 	andseq	r0, r8, r3, lsl r2
     6e4:	00341500 	eorseq	r1, r4, r0, lsl #10
     6e8:	0b3a0e03 	bleq	e83efc <__bss_end__+0xe79e24>
     6ec:	0b390b3b 	bleq	e433e0 <__bss_end__+0xe39308>
     6f0:	18021349 	stmdane	r2, {r0, r3, r6, r8, r9, ip}
     6f4:	0b160000 	bleq	5806fc <__bss_end__+0x576624>
     6f8:	12011101 	andne	r1, r1, #1073741824	; 0x40000000
     6fc:	00130106 	andseq	r0, r3, r6, lsl #2
     700:	00341700 	eorseq	r1, r4, r0, lsl #14
     704:	0b3a0803 	bleq	e82718 <__bss_end__+0xe78640>
     708:	0b390b3b 	bleq	e433fc <__bss_end__+0xe39324>
     70c:	00001349 	andeq	r1, r0, r9, asr #6
     710:	01828918 	orreq	r8, r2, r8, lsl r9
     714:	31011101 	tstcc	r1, r1, lsl #2
     718:	00130113 	andseq	r0, r3, r3, lsl r1
     71c:	828a1900 	addhi	r1, sl, #0, 18
     720:	18020001 	stmdane	r2, {r0}
     724:	00184291 	mulseq	r8, r1, r2
     728:	82891a00 	addhi	r1, r9, #0, 20
     72c:	01110001 	tsteq	r1, r1
     730:	00001331 	andeq	r1, r0, r1, lsr r3
     734:	0182891b 	orreq	r8, r2, fp, lsl r9
     738:	01011101 	tsteq	r1, r1, lsl #2
     73c:	1c000013 	stcne	0, cr0, [r0], {19}
     740:	13490101 	movtne	r0, #37121	; 0x9101
     744:	00001301 	andeq	r1, r0, r1, lsl #6
     748:	4900211d 	stmdbmi	r0, {r0, r2, r3, r4, r8, sp}
     74c:	000b2f13 	andeq	r2, fp, r3, lsl pc
     750:	012e1e00 			; <UNDEFINED> instruction: 0x012e1e00
     754:	0b3a0e03 	bleq	e83f68 <__bss_end__+0xe79e90>
     758:	0b390b3b 	bleq	e4344c <__bss_end__+0xe39374>
     75c:	13491927 	movtne	r1, #39207	; 0x9927
     760:	06120111 			; <UNDEFINED> instruction: 0x06120111
     764:	42971840 	addsmi	r1, r7, #64, 16	; 0x400000
     768:	00130119 	andseq	r0, r3, r9, lsl r1
     76c:	00051f00 	andeq	r1, r5, r0, lsl #30
     770:	0b3a0e03 	bleq	e83f84 <__bss_end__+0xe79eac>
     774:	0b390b3b 	bleq	e43468 <__bss_end__+0xe39390>
     778:	17021349 	strne	r1, [r2, -r9, asr #6]
     77c:	001742b7 			; <UNDEFINED> instruction: 0x001742b7
     780:	012e2000 			; <UNDEFINED> instruction: 0x012e2000
     784:	0b3a0803 	bleq	e82798 <__bss_end__+0xe786c0>
     788:	0b390b3b 	bleq	e4347c <__bss_end__+0xe393a4>
     78c:	13491927 	movtne	r1, #39207	; 0x9927
     790:	06120111 			; <UNDEFINED> instruction: 0x06120111
     794:	42971840 	addsmi	r1, r7, #64, 16	; 0x400000
     798:	00130119 	andseq	r0, r3, r9, lsl r1
     79c:	012e2100 			; <UNDEFINED> instruction: 0x012e2100
     7a0:	0e03193f 			; <UNDEFINED> instruction: 0x0e03193f
     7a4:	0b3b0b3a 	bleq	ec3494 <__bss_end__+0xeb93bc>
     7a8:	19270b39 	stmdbne	r7!, {r0, r3, r4, r5, r8, r9, fp}
     7ac:	06120111 			; <UNDEFINED> instruction: 0x06120111
     7b0:	42971840 	addsmi	r1, r7, #64, 16	; 0x400000
     7b4:	00130119 	andseq	r0, r3, r9, lsl r1
     7b8:	002e2200 	eoreq	r2, lr, r0, lsl #4
     7bc:	193c193f 	ldmdbne	ip!, {r0, r1, r2, r3, r4, r5, r8, fp, ip}
     7c0:	0e030e6e 	cdpeq	14, 0, cr0, cr3, cr14, {3}
     7c4:	0b3b0b3a 	bleq	ec34b4 <__bss_end__+0xeb93dc>
     7c8:	00000b39 	andeq	r0, r0, r9, lsr fp
     7cc:	01110100 	tsteq	r1, r0, lsl #2
     7d0:	0b130e25 	bleq	4c406c <__bss_end__+0x4b9f94>
     7d4:	0e1b0e03 	cdpeq	14, 1, cr0, cr11, cr3, {0}
     7d8:	01111755 	tsteq	r1, r5, asr r7
     7dc:	00001710 	andeq	r1, r0, r0, lsl r7
     7e0:	0b002402 	bleq	97f0 <__code_end__+0x5c>
     7e4:	030b3e0b 	movweq	r3, #48651	; 0xbe0b
     7e8:	03000008 	movweq	r0, #8
     7ec:	0b0b0024 	bleq	2c0884 <__bss_end__+0x2b67ac>
     7f0:	0e030b3e 	vmoveq.16	d3[0], r0
     7f4:	15040000 	strne	r0, [r4, #-0]
     7f8:	49192701 	ldmdbmi	r9, {r0, r8, r9, sl, sp}
     7fc:	00130113 	andseq	r0, r3, r3, lsl r1
     800:	00050500 	andeq	r0, r5, r0, lsl #10
     804:	00001349 	andeq	r1, r0, r9, asr #6
     808:	03003406 	movweq	r3, #1030	; 0x406
     80c:	3b0b3a0e 	blcc	2cf04c <__bss_end__+0x2c4f74>
     810:	490b390b 	stmdbmi	fp, {r0, r1, r3, r8, fp, ip, sp}
     814:	3c193f13 	ldccc	15, cr3, [r9], {19}
     818:	07000019 	smladeq	r0, r9, r0, r0
     81c:	0b0b000f 	bleq	2c0860 <__bss_end__+0x2b6788>
     820:	00001349 	andeq	r1, r0, r9, asr #6
     824:	49002608 	stmdbmi	r0, {r3, r9, sl, sp}
     828:	09000013 	stmdbeq	r0, {r0, r1, r4}
     82c:	193f012e 	ldmdbne	pc!, {r1, r2, r3, r5, r8}	; <UNPREDICTABLE>
     830:	0b3a0e03 	bleq	e84044 <__bss_end__+0xe79f6c>
     834:	0b390b3b 	bleq	e43528 <__bss_end__+0xe39450>
     838:	01111927 	tsteq	r1, r7, lsr #18
     83c:	18400612 	stmdane	r0, {r1, r4, r9, sl}^
     840:	01194297 			; <UNDEFINED> instruction: 0x01194297
     844:	0a000013 	beq	898 <__code_start__-0x7768>
     848:	08030034 	stmdaeq	r3, {r2, r4, r5}
     84c:	0b3b0b3a 	bleq	ec353c <__bss_end__+0xeb9464>
     850:	13490b39 	movtne	r0, #39737	; 0x9b39
     854:	42b71702 	adcsmi	r1, r7, #524288	; 0x80000
     858:	0b000017 	bleq	8bc <__code_start__-0x7744>
     85c:	193f012e 	ldmdbne	pc!, {r1, r2, r3, r5, r8}	; <UNPREDICTABLE>
     860:	0b3a0e03 	bleq	e84074 <__bss_end__+0xe79f9c>
     864:	0b390b3b 	bleq	e43558 <__bss_end__+0xe39480>
     868:	01111927 	tsteq	r1, r7, lsr #18
     86c:	18400612 	stmdane	r0, {r1, r4, r9, sl}^
     870:	00194297 	mulseq	r9, r7, r2
     874:	11010000 	mrsne	r0, (UNDEF: 1)
     878:	130e2501 	movwne	r2, #58625	; 0xe501
     87c:	1b0e030b 	blne	3814b0 <__bss_end__+0x3773d8>
     880:	1201110e 	andne	r1, r1, #-2147483645	; 0x80000003
     884:	00171006 	andseq	r1, r7, r6
     888:	00240200 	eoreq	r0, r4, r0, lsl #4
     88c:	0b3e0b0b 	bleq	f834c0 <__bss_end__+0xf793e8>
     890:	00000803 	andeq	r0, r0, r3, lsl #16
     894:	0b002403 	bleq	98a8 <__code_end__+0x114>
     898:	030b3e0b 	movweq	r3, #48651	; 0xbe0b
     89c:	0400000e 	streq	r0, [r0], #-14
     8a0:	19270115 	stmdbne	r7!, {r0, r2, r4, r8}
     8a4:	13011349 	movwne	r1, #4937	; 0x1349
     8a8:	05050000 	streq	r0, [r5, #-0]
     8ac:	00134900 	andseq	r4, r3, r0, lsl #18
     8b0:	00340600 	eorseq	r0, r4, r0, lsl #12
     8b4:	0b3a0e03 	bleq	e840c8 <__bss_end__+0xe79ff0>
     8b8:	0b390b3b 	bleq	e435ac <__bss_end__+0xe394d4>
     8bc:	193f1349 	ldmdbne	pc!, {r0, r3, r6, r8, r9, ip}	; <UNPREDICTABLE>
     8c0:	0000193c 	andeq	r1, r0, ip, lsr r9
     8c4:	0b000f07 	bleq	44e8 <__code_start__-0x3b18>
     8c8:	0013490b 	andseq	r4, r3, fp, lsl #18
     8cc:	00260800 	eoreq	r0, r6, r0, lsl #16
     8d0:	00001349 	andeq	r1, r0, r9, asr #6
     8d4:	3f012e09 	svccc	0x00012e09
     8d8:	3a0e0319 	bcc	381544 <__bss_end__+0x37746c>
     8dc:	390b3b0b 	stmdbcc	fp, {r0, r1, r3, r8, r9, fp, ip, sp}
     8e0:	8719270b 	ldrhi	r2, [r9, -fp, lsl #14]
     8e4:	01111901 	tsteq	r1, r1, lsl #18
     8e8:	18400612 	stmdane	r0, {r1, r4, r9, sl}^
     8ec:	01194297 			; <UNDEFINED> instruction: 0x01194297
     8f0:	0a000013 	beq	944 <__code_start__-0x76bc>
     8f4:	01018289 	smlabbeq	r1, r9, r2, r8
     8f8:	13010111 	movwne	r0, #4369	; 0x1111
     8fc:	8a0b0000 	bhi	2c0904 <__bss_end__+0x2b682c>
     900:	02000182 	andeq	r0, r0, #-2147483616	; 0x80000020
     904:	18429118 	stmdane	r2, {r3, r4, r8, ip, pc}^
     908:	890c0000 	stmdbhi	ip, {}	; <UNPREDICTABLE>
     90c:	11000182 	smlabbne	r0, r2, r1, r0
     910:	00133101 	andseq	r3, r3, r1, lsl #2
     914:	82890d00 	addhi	r0, r9, #0, 26
     918:	01110101 	tsteq	r1, r1, lsl #2
     91c:	13011331 	movwne	r1, #4913	; 0x1331
     920:	2e0e0000 	cdpcs	0, 0, cr0, cr14, cr0, {0}
     924:	3c193f00 	ldccc	15, cr3, [r9], {-0}
     928:	030e6e19 	movweq	r6, #60953	; 0xee19
     92c:	3b0b3a0e 	blcc	2cf16c <__bss_end__+0x2c5094>
     930:	000b390b 	andeq	r3, fp, fp, lsl #18
     934:	11010000 	mrsne	r0, (UNDEF: 1)
     938:	130e2501 	movwne	r2, #58625	; 0xe501
     93c:	1b0e030b 	blne	381570 <__bss_end__+0x377498>
     940:	1201110e 	andne	r1, r1, #-2147483645	; 0x80000003
     944:	00171006 	andseq	r1, r7, r6
     948:	00240200 	eoreq	r0, r4, r0, lsl #4
     94c:	0b3e0b0b 	bleq	f83580 <__bss_end__+0xf794a8>
     950:	00000803 	andeq	r0, r0, r3, lsl #16
     954:	0b002403 	bleq	9968 <__FUNCTION__.4149+0x24>
     958:	030b3e0b 	movweq	r3, #48651	; 0xbe0b
     95c:	0400000e 	streq	r0, [r0], #-14
     960:	19270115 	stmdbne	r7!, {r0, r2, r4, r8}
     964:	13011349 	movwne	r1, #4937	; 0x1349
     968:	05050000 	streq	r0, [r5, #-0]
     96c:	00134900 	andseq	r4, r3, r0, lsl #18
     970:	00340600 	eorseq	r0, r4, r0, lsl #12
     974:	0b3a0e03 	bleq	e84188 <__bss_end__+0xe7a0b0>
     978:	0b390b3b 	bleq	e4366c <__bss_end__+0xe39594>
     97c:	193f1349 	ldmdbne	pc!, {r0, r3, r6, r8, r9, ip}	; <UNPREDICTABLE>
     980:	0000193c 	andeq	r1, r0, ip, lsr r9
     984:	0b000f07 	bleq	45a8 <__code_start__-0x3a58>
     988:	0013490b 	andseq	r4, r3, fp, lsl #18
     98c:	00260800 	eoreq	r0, r6, r0, lsl #16
     990:	00001349 	andeq	r1, r0, r9, asr #6
     994:	3f012e09 	svccc	0x00012e09
     998:	3a0e0319 	bcc	381604 <__bss_end__+0x37752c>
     99c:	390b3b0b 	stmdbcc	fp, {r0, r1, r3, r8, r9, fp, ip, sp}
     9a0:	1201110b 	andne	r1, r1, #-1073741822	; 0xc0000002
     9a4:	97184006 	ldrls	r4, [r8, -r6]
     9a8:	13011942 	movwne	r1, #6466	; 0x1942
     9ac:	2e0a0000 	cdpcs	0, 0, cr0, cr10, cr0, {0}
     9b0:	03193f00 	tsteq	r9, #0, 30
     9b4:	3b0b3a0e 	blcc	2cf1f4 <__bss_end__+0x2c511c>
     9b8:	270b390b 	strcs	r3, [fp, -fp, lsl #18]
     9bc:	00193c19 	andseq	r3, r9, r9, lsl ip
     9c0:	00340b00 	eorseq	r0, r4, r0, lsl #22
     9c4:	0b3a0803 	bleq	e829d8 <__bss_end__+0xe78900>
     9c8:	0b390b3b 	bleq	e436bc <__bss_end__+0xe395e4>
     9cc:	17021349 	strne	r1, [r2, -r9, asr #6]
     9d0:	001742b7 			; <UNDEFINED> instruction: 0x001742b7
     9d4:	00340c00 	eorseq	r0, r4, r0, lsl #24
     9d8:	0b3a0e03 	bleq	e841ec <__bss_end__+0xe7a114>
     9dc:	0b390b3b 	bleq	e436d0 <__bss_end__+0xe395f8>
     9e0:	00001349 	andeq	r1, r0, r9, asr #6
     9e4:	11010b0d 	tstne	r1, sp, lsl #22
     9e8:	01061201 	tsteq	r6, r1, lsl #4
     9ec:	0e000013 	mcreq	0, 0, r0, cr0, cr3, {0}
     9f0:	08030034 	stmdaeq	r3, {r2, r4, r5}
     9f4:	0b3b0b3a 	bleq	ec36e4 <__bss_end__+0xeb960c>
     9f8:	13490b39 	movtne	r0, #39737	; 0x9b39
     9fc:	00000b1c 	andeq	r0, r0, ip, lsl fp
     a00:	0182890f 	orreq	r8, r2, pc, lsl #18
     a04:	31011100 	mrscc	r1, (UNDEF: 17)
     a08:	10000013 	andne	r0, r0, r3, lsl r0
     a0c:	193f002e 	ldmdbne	pc!, {r1, r2, r3, r5}	; <UNPREDICTABLE>
     a10:	0e6e193c 			; <UNDEFINED> instruction: 0x0e6e193c
     a14:	0b3a0e03 	bleq	e84228 <__bss_end__+0xe7a150>
     a18:	0b39053b 	bleq	e41f0c <__bss_end__+0xe37e34>
     a1c:	2e110000 	cdpcs	0, 1, cr0, cr1, cr0, {0}
     a20:	3c193f00 	ldccc	15, cr3, [r9], {-0}
     a24:	030e6e19 	movweq	r6, #60953	; 0xee19
     a28:	3b0b3a0e 	blcc	2cf268 <__bss_end__+0x2c5190>
     a2c:	000b390b 	andeq	r3, fp, fp, lsl #18
     a30:	11010000 	mrsne	r0, (UNDEF: 1)
     a34:	130e2501 	movwne	r2, #58625	; 0xe501
     a38:	1b0e030b 	blne	38166c <__bss_end__+0x377594>
     a3c:	1201110e 	andne	r1, r1, #-2147483645	; 0x80000003
     a40:	00171006 	andseq	r1, r7, r6
     a44:	00240200 	eoreq	r0, r4, r0, lsl #4
     a48:	0b3e0b0b 	bleq	f8367c <__bss_end__+0xf795a4>
     a4c:	00000803 	andeq	r0, r0, r3, lsl #16
     a50:	0b002403 	bleq	9a64 <__FUNCTION__.4149+0x120>
     a54:	030b3e0b 	movweq	r3, #48651	; 0xbe0b
     a58:	0400000e 	streq	r0, [r0], #-14
     a5c:	19270115 	stmdbne	r7!, {r0, r2, r4, r8}
     a60:	13011349 	movwne	r1, #4937	; 0x1349
     a64:	05050000 	streq	r0, [r5, #-0]
     a68:	00134900 	andseq	r4, r3, r0, lsl #18
     a6c:	00340600 	eorseq	r0, r4, r0, lsl #12
     a70:	0b3a0e03 	bleq	e84284 <__bss_end__+0xe7a1ac>
     a74:	0b390b3b 	bleq	e43768 <__bss_end__+0xe39690>
     a78:	193f1349 	ldmdbne	pc!, {r0, r3, r6, r8, r9, ip}	; <UNPREDICTABLE>
     a7c:	0000193c 	andeq	r1, r0, ip, lsr r9
     a80:	0b000f07 	bleq	46a4 <__code_start__-0x395c>
     a84:	0013490b 	andseq	r4, r3, fp, lsl #18
     a88:	00260800 	eoreq	r0, r6, r0, lsl #16
     a8c:	00001349 	andeq	r1, r0, r9, asr #6
     a90:	3f002e09 	svccc	0x00002e09
     a94:	3a0e0319 	bcc	381700 <__bss_end__+0x377628>
     a98:	390b3b0b 	stmdbcc	fp, {r0, r1, r3, r8, r9, fp, ip, sp}
     a9c:	1119270b 	tstne	r9, fp, lsl #14
     aa0:	40061201 	andmi	r1, r6, r1, lsl #4
     aa4:	19429718 	stmdbne	r2, {r3, r4, r8, r9, sl, ip, pc}^
     aa8:	01000000 	mrseq	r0, (UNDEF: 0)
     aac:	0e250111 	mcreq	1, 1, r0, cr5, cr1, {0}
     ab0:	0e030b13 	vmoveq.32	d3[0], r0
     ab4:	17550e1b 	smmlane	r5, fp, lr, r0
     ab8:	17100111 			; <UNDEFINED> instruction: 0x17100111
     abc:	24020000 	strcs	r0, [r2], #-0
     ac0:	3e0b0b00 	vmlacc.f64	d0, d11, d0
     ac4:	0008030b 	andeq	r0, r8, fp, lsl #6
     ac8:	00260300 	eoreq	r0, r6, r0, lsl #6
     acc:	00001349 	andeq	r1, r0, r9, asr #6
     ad0:	0b002404 	bleq	9ae8 <__FUNCTION__.4026+0x40>
     ad4:	030b3e0b 	movweq	r3, #48651	; 0xbe0b
     ad8:	0500000e 	streq	r0, [r0, #-14]
     adc:	19270115 	stmdbne	r7!, {r0, r2, r4, r8}
     ae0:	13011349 	movwne	r1, #4937	; 0x1349
     ae4:	05060000 	streq	r0, [r6, #-0]
     ae8:	00134900 	andseq	r4, r3, r0, lsl #18
     aec:	00340700 	eorseq	r0, r4, r0, lsl #14
     af0:	0b3a0e03 	bleq	e84304 <__bss_end__+0xe7a22c>
     af4:	0b390b3b 	bleq	e437e8 <__bss_end__+0xe39710>
     af8:	193f1349 	ldmdbne	pc!, {r0, r3, r6, r8, r9, ip}	; <UNPREDICTABLE>
     afc:	0000193c 	andeq	r1, r0, ip, lsr r9
     b00:	0b000f08 	bleq	4728 <__code_start__-0x38d8>
     b04:	0013490b 	andseq	r4, r3, fp, lsl #18
     b08:	00340900 	eorseq	r0, r4, r0, lsl #18
     b0c:	0b3a0e03 	bleq	e84320 <__bss_end__+0xe7a248>
     b10:	0b390b3b 	bleq	e43804 <__bss_end__+0xe3972c>
     b14:	00001349 	andeq	r1, r0, r9, asr #6
     b18:	3f012e0a 	svccc	0x00012e0a
     b1c:	3a0e0319 	bcc	381788 <__bss_end__+0x3776b0>
     b20:	390b3b0b 	stmdbcc	fp, {r0, r1, r3, r8, r9, fp, ip, sp}
     b24:	8719270b 	ldrhi	r2, [r9, -fp, lsl #14]
     b28:	01111901 	tsteq	r1, r1, lsl #18
     b2c:	18400612 	stmdane	r0, {r1, r4, r9, sl}^
     b30:	01194297 			; <UNDEFINED> instruction: 0x01194297
     b34:	0b000013 	bleq	b88 <__code_start__-0x7478>
     b38:	0e030034 	mcreq	0, 0, r0, cr3, cr4, {1}
     b3c:	0b3b0b3a 	bleq	ec382c <__bss_end__+0xeb9754>
     b40:	13490b39 	movtne	r0, #39737	; 0x9b39
     b44:	42b71702 	adcsmi	r1, r7, #524288	; 0x80000
     b48:	0c000017 	stceq	0, cr0, [r0], {23}
     b4c:	00018289 	andeq	r8, r1, r9, lsl #5
     b50:	13310111 	teqne	r1, #1073741828	; 0x40000004
     b54:	890d0000 	stmdbhi	sp, {}	; <UNPREDICTABLE>
     b58:	11010182 	smlabbne	r1, r2, r1, r0
     b5c:	01133101 	tsteq	r3, r1, lsl #2
     b60:	0e000013 	mcreq	0, 0, r0, cr0, cr3, {0}
     b64:	0001828a 	andeq	r8, r1, sl, lsl #5
     b68:	42911802 	addsmi	r1, r1, #131072	; 0x20000
     b6c:	0f000018 	svceq	0x00000018
     b70:	193f012e 	ldmdbne	pc!, {r1, r2, r3, r5, r8}	; <UNPREDICTABLE>
     b74:	0b3a0e03 	bleq	e84388 <__bss_end__+0xe7a2b0>
     b78:	0b390b3b 	bleq	e4386c <__bss_end__+0xe39794>
     b7c:	01111927 	tsteq	r1, r7, lsr #18
     b80:	18400612 	stmdane	r0, {r1, r4, r9, sl}^
     b84:	01194297 			; <UNDEFINED> instruction: 0x01194297
     b88:	10000013 	andne	r0, r0, r3, lsl r0
     b8c:	193f012e 	ldmdbne	pc!, {r1, r2, r3, r5, r8}	; <UNPREDICTABLE>
     b90:	0b3a0e03 	bleq	e843a4 <__bss_end__+0xe7a2cc>
     b94:	0b390b3b 	bleq	e43888 <__bss_end__+0xe397b0>
     b98:	13491927 	movtne	r1, #39207	; 0x9927
     b9c:	06120111 			; <UNDEFINED> instruction: 0x06120111
     ba0:	42971840 	addsmi	r1, r7, #64, 16	; 0x400000
     ba4:	00130119 	andseq	r0, r3, r9, lsl r1
     ba8:	002e1100 	eoreq	r1, lr, r0, lsl #2
     bac:	193c193f 	ldmdbne	ip!, {r0, r1, r2, r3, r4, r5, r8, fp, ip}
     bb0:	0e030e6e 	cdpeq	14, 0, cr0, cr3, cr14, {3}
     bb4:	053b0b3a 	ldreq	r0, [fp, #-2874]!	; 0xfffff4c6
     bb8:	00000b39 	andeq	r0, r0, r9, lsr fp
     bbc:	3f002e12 	svccc	0x00002e12
     bc0:	6e193c19 	mrcvs	12, 0, r3, cr9, cr9, {0}
     bc4:	3a0e030e 	bcc	381804 <__bss_end__+0x37772c>
     bc8:	390b3b0b 	stmdbcc	fp, {r0, r1, r3, r8, r9, fp, ip, sp}
     bcc:	0000000b 	andeq	r0, r0, fp
     bd0:	25011101 	strcs	r1, [r1, #-257]	; 0xfffffeff
     bd4:	030b130e 	movweq	r1, #45838	; 0xb30e
     bd8:	110e1b0e 	tstne	lr, lr, lsl #22
     bdc:	10061201 	andne	r1, r6, r1, lsl #4
     be0:	02000017 	andeq	r0, r0, #23, 0
     be4:	0b0b0024 	bleq	2c0c7c <__bss_end__+0x2b6ba4>
     be8:	08030b3e 	stmdaeq	r3, {r1, r2, r3, r4, r5, r8, r9, fp}
     bec:	24030000 	strcs	r0, [r3], #-0
     bf0:	3e0b0b00 	vmlacc.f64	d0, d11, d0
     bf4:	000e030b 	andeq	r0, lr, fp, lsl #6
     bf8:	01150400 	tsteq	r5, r0, lsl #8
     bfc:	13491927 	movtne	r1, #39207	; 0x9927
     c00:	00001301 	andeq	r1, r0, r1, lsl #6
     c04:	49000505 	stmdbmi	r0, {r0, r2, r8, sl}
     c08:	06000013 			; <UNDEFINED> instruction: 0x06000013
     c0c:	0e030034 	mcreq	0, 0, r0, cr3, cr4, {1}
     c10:	0b3b0b3a 	bleq	ec3900 <__bss_end__+0xeb9828>
     c14:	13490b39 	movtne	r0, #39737	; 0x9b39
     c18:	193c193f 	ldmdbne	ip!, {r0, r1, r2, r3, r4, r5, r8, fp, ip}
     c1c:	0f070000 	svceq	0x00070000
     c20:	490b0b00 	stmdbmi	fp, {r8, r9, fp}
     c24:	08000013 	stmdaeq	r0, {r0, r1, r4}
     c28:	13490026 	movtne	r0, #36902	; 0x9026
     c2c:	2e090000 	cdpcs	0, 0, cr0, cr9, cr0, {0}
     c30:	03193f01 	tsteq	r9, #1, 30
     c34:	3b0b3a0e 	blcc	2cf474 <__bss_end__+0x2c539c>
     c38:	270b390b 	strcs	r3, [fp, -fp, lsl #18]
     c3c:	12011119 	andne	r1, r1, #1073741830	; 0x40000006
     c40:	97184006 	ldrls	r4, [r8, -r6]
     c44:	13011942 	movwne	r1, #6466	; 0x1942
     c48:	050a0000 	streq	r0, [sl, #-0]
     c4c:	3a080300 	bcc	201854 <__bss_end__+0x1f777c>
     c50:	390b3b0b 	stmdbcc	fp, {r0, r1, r3, r8, r9, fp, ip, sp}
     c54:	0213490b 	andseq	r4, r3, #180224	; 0x2c000
     c58:	1742b717 	smlaldne	fp, r2, r7, r7
     c5c:	890b0000 	stmdbhi	fp, {}	; <UNPREDICTABLE>
     c60:	11010182 	smlabbne	r1, r2, r1, r0
     c64:	00133101 	andseq	r3, r3, r1, lsl #2
     c68:	828a0c00 	addhi	r0, sl, #0, 24
     c6c:	18020001 	stmdane	r2, {r0}
     c70:	00184291 	mulseq	r8, r1, r2
     c74:	00340d00 	eorseq	r0, r4, r0, lsl #26
     c78:	0b3a0803 	bleq	e82c8c <__bss_end__+0xe78bb4>
     c7c:	0b390b3b 	bleq	e43970 <__bss_end__+0xe39898>
     c80:	17021349 	strne	r1, [r2, -r9, asr #6]
     c84:	001742b7 			; <UNDEFINED> instruction: 0x001742b7
     c88:	010b0e00 	tsteq	fp, r0, lsl #28
     c8c:	06120111 			; <UNDEFINED> instruction: 0x06120111
     c90:	00001301 	andeq	r1, r0, r1, lsl #6
     c94:	0182890f 	orreq	r8, r2, pc, lsl #18
     c98:	31011100 	mrscc	r1, (UNDEF: 17)
     c9c:	10000013 	andne	r0, r0, r3, lsl r0
     ca0:	193f012e 	ldmdbne	pc!, {r1, r2, r3, r5, r8}	; <UNPREDICTABLE>
     ca4:	0b3a0e03 	bleq	e844b8 <__bss_end__+0xe7a3e0>
     ca8:	0b390b3b 	bleq	e4399c <__bss_end__+0xe398c4>
     cac:	13491927 	movtne	r1, #39207	; 0x9927
     cb0:	06120111 			; <UNDEFINED> instruction: 0x06120111
     cb4:	42971840 	addsmi	r1, r7, #64, 16	; 0x400000
     cb8:	00130119 	andseq	r0, r3, r9, lsl r1
     cbc:	002e1100 	eoreq	r1, lr, r0, lsl #2
     cc0:	193c193f 	ldmdbne	ip!, {r0, r1, r2, r3, r4, r5, r8, fp, ip}
     cc4:	0e030e6e 	cdpeq	14, 0, cr0, cr3, cr14, {3}
     cc8:	0b3b0b3a 	bleq	ec39b8 <__bss_end__+0xeb98e0>
     ccc:	00000b39 	andeq	r0, r0, r9, lsr fp
     cd0:	01110100 	tsteq	r1, r0, lsl #2
     cd4:	0b130e25 	bleq	4c4570 <__bss_end__+0x4ba498>
     cd8:	0e1b0e03 	cdpeq	14, 1, cr0, cr11, cr3, {0}
     cdc:	06120111 			; <UNDEFINED> instruction: 0x06120111
     ce0:	00001710 	andeq	r1, r0, r0, lsl r7
     ce4:	0b002402 	bleq	9cf4 <buf.3940+0x20>
     ce8:	030b3e0b 	movweq	r3, #48651	; 0xbe0b
     cec:	03000008 	movweq	r0, #8
     cf0:	0b0b0024 	bleq	2c0d88 <__bss_end__+0x2b6cb0>
     cf4:	0e030b3e 	vmoveq.16	d3[0], r0
     cf8:	35040000 	strcc	r0, [r4, #-0]
     cfc:	00134900 	andseq	r4, r3, r0, lsl #18
     d00:	00160500 	andseq	r0, r6, r0, lsl #10
     d04:	0b3a0e03 	bleq	e84518 <__bss_end__+0xe7a440>
     d08:	0b390b3b 	bleq	e439fc <__bss_end__+0xe39924>
     d0c:	00001349 	andeq	r1, r0, r9, asr #6
     d10:	3e010406 	cdpcc	4, 0, cr0, cr1, cr6, {0}
     d14:	490b0b0b 	stmdbmi	fp, {r0, r1, r3, r8, r9, fp}
     d18:	3b0b3a13 	blcc	2cf56c <__bss_end__+0x2c5494>
     d1c:	010b390b 	tsteq	fp, fp, lsl #18
     d20:	07000013 	smladeq	r0, r3, r0, r0
     d24:	0e030028 	cdpeq	0, 0, cr0, cr3, cr8, {1}
     d28:	00000b1c 	andeq	r0, r0, ip, lsl fp
     d2c:	03011308 	movweq	r1, #4872	; 0x1308
     d30:	3a0b0b0e 	bcc	2c3970 <__bss_end__+0x2b9898>
     d34:	390b3b0b 	stmdbcc	fp, {r0, r1, r3, r8, r9, fp, ip, sp}
     d38:	0013010b 	andseq	r0, r3, fp, lsl #2
     d3c:	000d0900 	andeq	r0, sp, r0, lsl #18
     d40:	0b3a0803 	bleq	e82d54 <__bss_end__+0xe78c7c>
     d44:	0b390b3b 	bleq	e43a38 <__bss_end__+0xe39960>
     d48:	0b381349 	bleq	e05a74 <__bss_end__+0xdfb99c>
     d4c:	0d0a0000 	stceq	0, cr0, [sl, #-0]
     d50:	3a0e0300 	bcc	381958 <__bss_end__+0x377880>
     d54:	390b3b0b 	stmdbcc	fp, {r0, r1, r3, r8, r9, fp, ip, sp}
     d58:	3813490b 	ldmdacc	r3, {r0, r1, r3, r8, fp, lr}
     d5c:	0b00000b 	bleq	d90 <__code_start__-0x7270>
     d60:	0e030034 	mcreq	0, 0, r0, cr3, cr4, {1}
     d64:	0b3b0b3a 	bleq	ec3a54 <__bss_end__+0xeb997c>
     d68:	13490b39 	movtne	r0, #39737	; 0x9b39
     d6c:	0000061c 	andeq	r0, r0, ip, lsl r6
     d70:	0b000f0c 	bleq	49a8 <__code_start__-0x3658>
     d74:	0013490b 	andseq	r4, r3, fp, lsl #18
     d78:	00260d00 	eoreq	r0, r6, r0, lsl #26
     d7c:	00001349 	andeq	r1, r0, r9, asr #6
     d80:	3f012e0e 	svccc	0x00012e0e
     d84:	3a0e0319 	bcc	3819f0 <__bss_end__+0x377918>
     d88:	390b3b0b 	stmdbcc	fp, {r0, r1, r3, r8, r9, fp, ip, sp}
     d8c:	1119270b 	tstne	r9, fp, lsl #14
     d90:	40061201 	andmi	r1, r6, r1, lsl #4
     d94:	19429718 	stmdbne	r2, {r3, r4, r8, r9, sl, ip, pc}^
     d98:	00001301 	andeq	r1, r0, r1, lsl #6
     d9c:	0182890f 	orreq	r8, r2, pc, lsl #18
     da0:	31011100 	mrscc	r1, (UNDEF: 17)
     da4:	10000013 	andne	r0, r0, r3, lsl r0
     da8:	193f012e 	ldmdbne	pc!, {r1, r2, r3, r5, r8}	; <UNPREDICTABLE>
     dac:	0b3a0e03 	bleq	e845c0 <__bss_end__+0xe7a4e8>
     db0:	0b390b3b 	bleq	e43aa4 <__bss_end__+0xe399cc>
     db4:	13491927 	movtne	r1, #39207	; 0x9927
     db8:	06120111 			; <UNDEFINED> instruction: 0x06120111
     dbc:	42971840 	addsmi	r1, r7, #64, 16	; 0x400000
     dc0:	00130119 	andseq	r0, r3, r9, lsl r1
     dc4:	82891100 	addhi	r1, r9, #0
     dc8:	01110101 	tsteq	r1, r1, lsl #2
     dcc:	00001331 	andeq	r1, r0, r1, lsr r3
     dd0:	01828a12 	orreq	r8, r2, r2, lsl sl
     dd4:	91180200 	tstls	r8, r0, lsl #4
     dd8:	00001842 	andeq	r1, r0, r2, asr #16
     ddc:	03000513 	movweq	r0, #1299	; 0x513
     de0:	3b0b3a08 	blcc	2cf608 <__bss_end__+0x2c5530>
     de4:	490b390b 	stmdbmi	fp, {r0, r1, r3, r8, fp, ip, sp}
     de8:	b7170213 			; <UNDEFINED> instruction: 0xb7170213
     dec:	00001742 	andeq	r1, r0, r2, asr #14
     df0:	01828914 	orreq	r8, r2, r4, lsl r9
     df4:	31011101 	tstcc	r1, r1, lsl #2
     df8:	00130113 	andseq	r0, r3, r3, lsl r1
     dfc:	00341500 	eorseq	r1, r4, r0, lsl #10
     e00:	0b3a0803 	bleq	e82e14 <__bss_end__+0xe78d3c>
     e04:	0b390b3b 	bleq	e43af8 <__bss_end__+0xe39a20>
     e08:	17021349 	strne	r1, [r2, -r9, asr #6]
     e0c:	001742b7 			; <UNDEFINED> instruction: 0x001742b7
     e10:	00341600 	eorseq	r1, r4, r0, lsl #12
     e14:	0b3a0e03 	bleq	e84628 <__bss_end__+0xe7a550>
     e18:	0b390b3b 	bleq	e43b0c <__bss_end__+0xe39a34>
     e1c:	051c1349 	ldreq	r1, [ip, #-841]	; 0xfffffcb7
     e20:	2e170000 	cdpcs	0, 1, cr0, cr7, cr0, {0}
     e24:	3a0e0301 	bcc	381a30 <__bss_end__+0x377958>
     e28:	390b3b0b 	stmdbcc	fp, {r0, r1, r3, r8, r9, fp, ip, sp}
     e2c:	1119270b 	tstne	r9, fp, lsl #14
     e30:	40061201 	andmi	r1, r6, r1, lsl #4
     e34:	19429718 	stmdbne	r2, {r3, r4, r8, r9, sl, ip, pc}^
     e38:	00001301 	andeq	r1, r0, r1, lsl #6
     e3c:	03000518 	movweq	r0, #1304	; 0x518
     e40:	3b0b3a0e 	blcc	2cf680 <__bss_end__+0x2c55a8>
     e44:	490b390b 	stmdbmi	fp, {r0, r1, r3, r8, fp, ip, sp}
     e48:	b7170213 			; <UNDEFINED> instruction: 0xb7170213
     e4c:	00001742 	andeq	r1, r0, r2, asr #14
     e50:	00003519 	andeq	r3, r0, r9, lsl r5
     e54:	002e1a00 	eoreq	r1, lr, r0, lsl #20
     e58:	193c193f 	ldmdbne	ip!, {r0, r1, r2, r3, r4, r5, r8, fp, ip}
     e5c:	0e030e6e 	cdpeq	14, 0, cr0, cr3, cr14, {3}
     e60:	0b3b0b3a 	bleq	ec3b50 <__bss_end__+0xeb9a78>
     e64:	00000b39 	andeq	r0, r0, r9, lsr fp
     e68:	01110100 	tsteq	r1, r0, lsl #2
     e6c:	0b130e25 	bleq	4c4708 <__bss_end__+0x4ba630>
     e70:	0e1b0e03 	cdpeq	14, 1, cr0, cr11, cr3, {0}
     e74:	06120111 			; <UNDEFINED> instruction: 0x06120111
     e78:	00001710 	andeq	r1, r0, r0, lsl r7
     e7c:	0b002402 	bleq	9e8c <buf.3940+0x1b8>
     e80:	030b3e0b 	movweq	r3, #48651	; 0xbe0b
     e84:	03000008 	movweq	r0, #8
     e88:	0b0b0024 	bleq	2c0f20 <__bss_end__+0x2b6e48>
     e8c:	0e030b3e 	vmoveq.16	d3[0], r0
     e90:	16040000 	strne	r0, [r4], -r0
     e94:	3a0e0300 	bcc	381a9c <__bss_end__+0x3779c4>
     e98:	390b3b0b 	stmdbcc	fp, {r0, r1, r3, r8, r9, fp, ip, sp}
     e9c:	0013490b 	andseq	r4, r3, fp, lsl #18
     ea0:	00260500 	eoreq	r0, r6, r0, lsl #10
     ea4:	00001349 	andeq	r1, r0, r9, asr #6
     ea8:	0b000f06 	bleq	4ac8 <__code_start__-0x3538>
     eac:	0700000b 	streq	r0, [r0, -fp]
     eb0:	0b3e0104 	bleq	f812c8 <__bss_end__+0xf771f0>
     eb4:	13490b0b 	movtne	r0, #39691	; 0x9b0b
     eb8:	0b3b0b3a 	bleq	ec3ba8 <__bss_end__+0xeb9ad0>
     ebc:	13010b39 	movwne	r0, #6969	; 0x1b39
     ec0:	28080000 	stmdacs	r8, {}	; <UNPREDICTABLE>
     ec4:	1c0e0300 	stcne	3, cr0, [lr], {-0}
     ec8:	09000006 	stmdbeq	r0, {r1, r2}
     ecc:	0e030034 	mcreq	0, 0, r0, cr3, cr4, {1}
     ed0:	0b3b0b3a 	bleq	ec3bc0 <__bss_end__+0xeb9ae8>
     ed4:	13490b39 	movtne	r0, #39737	; 0x9b39
     ed8:	193c193f 	ldmdbne	ip!, {r0, r1, r2, r3, r4, r5, r8, fp, ip}
     edc:	340a0000 	strcc	r0, [sl], #-0
     ee0:	3a0e0300 	bcc	381ae8 <__bss_end__+0x377a10>
     ee4:	390b3b0b 	stmdbcc	fp, {r0, r1, r3, r8, r9, fp, ip, sp}
     ee8:	0213490b 	andseq	r4, r3, #180224	; 0x2c000
     eec:	0b000018 	bleq	f54 <__code_start__-0x70ac>
     ef0:	0b0b000f 	bleq	2c0f34 <__bss_end__+0x2b6e5c>
     ef4:	00001349 	andeq	r1, r0, r9, asr #6
     ef8:	3f012e0c 	svccc	0x00012e0c
     efc:	3a0e0319 	bcc	381b68 <__bss_end__+0x377a90>
     f00:	390b3b0b 	stmdbcc	fp, {r0, r1, r3, r8, r9, fp, ip, sp}
     f04:	1119270b 	tstne	r9, fp, lsl #14
     f08:	40061201 	andmi	r1, r6, r1, lsl #4
     f0c:	19429718 	stmdbne	r2, {r3, r4, r8, r9, sl, ip, pc}^
     f10:	00001301 	andeq	r1, r0, r1, lsl #6
     f14:	0300050d 	movweq	r0, #1293	; 0x50d
     f18:	3b0b3a08 	blcc	2cf740 <__bss_end__+0x2c5668>
     f1c:	490b390b 	stmdbmi	fp, {r0, r1, r3, r8, fp, ip, sp}
     f20:	b7170213 			; <UNDEFINED> instruction: 0xb7170213
     f24:	00001742 	andeq	r1, r0, r2, asr #14
     f28:	0300340e 	movweq	r3, #1038	; 0x40e
     f2c:	3413490e 	ldrcc	r4, [r3], #-2318	; 0xfffff6f2
     f30:	00180219 	andseq	r0, r8, r9, lsl r2
     f34:	82890f00 	addhi	r0, r9, #0, 30
     f38:	01110101 	tsteq	r1, r1, lsl #2
     f3c:	13011331 	movwne	r1, #4913	; 0x1331
     f40:	8a100000 	bhi	400f48 <__bss_end__+0x3f6e70>
     f44:	02000182 	andeq	r0, r0, #-2147483616	; 0x80000020
     f48:	18429118 	stmdane	r2, {r3, r4, r8, ip, pc}^
     f4c:	89110000 	ldmdbhi	r1, {}	; <UNPREDICTABLE>
     f50:	11000182 	smlabbne	r0, r2, r1, r0
     f54:	00133101 	andseq	r3, r3, r1, lsl #2
     f58:	01011200 	mrseq	r1, R9_usr
     f5c:	13011349 	movwne	r1, #4937	; 0x1349
     f60:	21130000 	tstcs	r3, r0
     f64:	2f134900 	svccs	0x00134900
     f68:	1400000b 	strne	r0, [r0], #-11
     f6c:	193f002e 	ldmdbne	pc!, {r1, r2, r3, r5}	; <UNPREDICTABLE>
     f70:	0b3a0e03 	bleq	e84784 <__bss_end__+0xe7a6ac>
     f74:	0b390b3b 	bleq	e43c68 <__bss_end__+0xe39b90>
     f78:	01111927 	tsteq	r1, r7, lsr #18
     f7c:	18400612 	stmdane	r0, {r1, r4, r9, sl}^
     f80:	00194297 	mulseq	r9, r7, r2
     f84:	00051500 	andeq	r1, r5, r0, lsl #10
     f88:	0b3a0803 	bleq	e82f9c <__bss_end__+0xe78ec4>
     f8c:	0b390b3b 	bleq	e43c80 <__bss_end__+0xe39ba8>
     f90:	18021349 	stmdane	r2, {r0, r3, r6, r8, r9, ip}
     f94:	2e160000 	cdpcs	0, 1, cr0, cr6, cr0, {0}
     f98:	03193f01 	tsteq	r9, #1, 30
     f9c:	3b0b3a0e 	blcc	2cf7dc <__bss_end__+0x2c5704>
     fa0:	270b390b 	strcs	r3, [fp, -fp, lsl #18]
     fa4:	11134919 	tstne	r3, r9, lsl r9
     fa8:	40061201 	andmi	r1, r6, r1, lsl #4
     fac:	19429718 	stmdbne	r2, {r3, r4, r8, r9, sl, ip, pc}^
     fb0:	00001301 	andeq	r1, r0, r1, lsl #6
     fb4:	03000517 	movweq	r0, #1303	; 0x517
     fb8:	3b0b3a0e 	blcc	2cf7f8 <__bss_end__+0x2c5720>
     fbc:	490b390b 	stmdbmi	fp, {r0, r1, r3, r8, fp, ip, sp}
     fc0:	b7170213 			; <UNDEFINED> instruction: 0xb7170213
     fc4:	00001742 	andeq	r1, r0, r2, asr #14
     fc8:	03003418 	movweq	r3, #1048	; 0x418
     fcc:	3b0b3a08 	blcc	2cf7f4 <__bss_end__+0x2c571c>
     fd0:	490b390b 	stmdbmi	fp, {r0, r1, r3, r8, fp, ip, sp}
     fd4:	b7170213 			; <UNDEFINED> instruction: 0xb7170213
     fd8:	00001742 	andeq	r1, r0, r2, asr #14
     fdc:	31011d19 	tstcc	r1, r9, lsl sp
     fe0:	b8015213 	stmdalt	r1, {r0, r1, r4, r9, ip, lr}
     fe4:	01110b42 	tsteq	r1, r2, asr #22
     fe8:	0b580612 	bleq	1602838 <__bss_end__+0x15f8760>
     fec:	0b570b59 	bleq	15c3d58 <__bss_end__+0x15b9c80>
     ff0:	00001301 	andeq	r1, r0, r1, lsl #6
     ff4:	3100051a 	tstcc	r0, sl, lsl r5
     ff8:	b7170213 			; <UNDEFINED> instruction: 0xb7170213
     ffc:	00001742 	andeq	r1, r0, r2, asr #14
    1000:	31011d1b 	tstcc	r1, fp, lsl sp
    1004:	b8015213 	stmdalt	r1, {r0, r1, r4, r9, ip, lr}
    1008:	17550b42 	ldrbne	r0, [r5, -r2, asr #22]
    100c:	0b590b58 	bleq	1643d74 <__bss_end__+0x1639c9c>
    1010:	13010b57 	movwne	r0, #6999	; 0x1b57
    1014:	0b1c0000 	bleq	70101c <__bss_end__+0x6f6f44>
    1018:	00175501 	andseq	r5, r7, r1, lsl #10
    101c:	00341d00 	eorseq	r1, r4, r0, lsl #26
    1020:	0b3a0e03 	bleq	e84834 <__bss_end__+0xe7a75c>
    1024:	0b390b3b 	bleq	e43d18 <__bss_end__+0xe39c40>
    1028:	17021349 	strne	r1, [r2, -r9, asr #6]
    102c:	001742b7 			; <UNDEFINED> instruction: 0x001742b7
    1030:	000b1e00 	andeq	r1, fp, r0, lsl #28
    1034:	00001755 	andeq	r1, r0, r5, asr r7
    1038:	3f002e1f 	svccc	0x00002e1f
    103c:	3a0e0319 	bcc	381ca8 <__bss_end__+0x377bd0>
    1040:	390b3b0b 	stmdbcc	fp, {r0, r1, r3, r8, r9, fp, ip, sp}
    1044:	4919270b 	ldmdbmi	r9, {r0, r1, r3, r8, r9, sl, sp}
    1048:	12011113 	andne	r1, r1, #-1073741820	; 0xc0000004
    104c:	97184006 	ldrls	r4, [r8, -r6]
    1050:	00001942 	andeq	r1, r0, r2, asr #18
    1054:	03012e20 	movweq	r2, #7712	; 0x1e20
    1058:	3b0b3a0e 	blcc	2cf898 <__bss_end__+0x2c57c0>
    105c:	270b390b 	strcs	r3, [fp, -fp, lsl #18]
    1060:	20134919 	andscs	r4, r3, r9, lsl r9
    1064:	0013010b 	andseq	r0, r3, fp, lsl #2
    1068:	00052100 	andeq	r2, r5, r0, lsl #2
    106c:	0b3a0803 	bleq	e83080 <__bss_end__+0xe78fa8>
    1070:	0b390b3b 	bleq	e43d64 <__bss_end__+0xe39c8c>
    1074:	00001349 	andeq	r1, r0, r9, asr #6
    1078:	3f002e22 	svccc	0x00002e22
    107c:	6e193c19 	mrcvs	12, 0, r3, cr9, cr9, {0}
    1080:	3a0e030e 	bcc	381cc0 <__bss_end__+0x377be8>
    1084:	390b3b0b 	stmdbcc	fp, {r0, r1, r3, r8, r9, fp, ip, sp}
    1088:	0000000b 	andeq	r0, r0, fp
    108c:	25011101 	strcs	r1, [r1, #-257]	; 0xfffffeff
    1090:	030b130e 	movweq	r1, #45838	; 0xb30e
    1094:	110e1b0e 	tstne	lr, lr, lsl #22
    1098:	10061201 	andne	r1, r6, r1, lsl #4
    109c:	02000017 	andeq	r0, r0, #23, 0
    10a0:	0b0b0024 	bleq	2c1138 <__bss_end__+0x2b7060>
    10a4:	08030b3e 	stmdaeq	r3, {r1, r2, r3, r4, r5, r8, r9, fp}
    10a8:	16030000 	strne	r0, [r3], -r0
    10ac:	3a0e0300 	bcc	381cb4 <__bss_end__+0x377bdc>
    10b0:	390b3b0b 	stmdbcc	fp, {r0, r1, r3, r8, r9, fp, ip, sp}
    10b4:	0013490b 	andseq	r4, r3, fp, lsl #18
    10b8:	00240400 	eoreq	r0, r4, r0, lsl #8
    10bc:	0b3e0b0b 	bleq	f83cf0 <__bss_end__+0xf79c18>
    10c0:	00000e03 	andeq	r0, r0, r3, lsl #28
    10c4:	27011505 	strcs	r1, [r1, -r5, lsl #10]
    10c8:	01134919 	tsteq	r3, r9, lsl r9
    10cc:	06000013 			; <UNDEFINED> instruction: 0x06000013
    10d0:	13490005 	movtne	r0, #36869	; 0x9005
    10d4:	34070000 	strcc	r0, [r7], #-0
    10d8:	3a0e0300 	bcc	381ce0 <__bss_end__+0x377c08>
    10dc:	390b3b0b 	stmdbcc	fp, {r0, r1, r3, r8, r9, fp, ip, sp}
    10e0:	3f13490b 	svccc	0x0013490b
    10e4:	00193c19 	andseq	r3, r9, r9, lsl ip
    10e8:	000f0800 	andeq	r0, pc, r0, lsl #16
    10ec:	13490b0b 	movtne	r0, #39691	; 0x9b0b
    10f0:	26090000 	strcs	r0, [r9], -r0
    10f4:	00134900 	andseq	r4, r3, r0, lsl #18
    10f8:	012e0a00 			; <UNDEFINED> instruction: 0x012e0a00
    10fc:	0e03193f 			; <UNDEFINED> instruction: 0x0e03193f
    1100:	0b3b0b3a 	bleq	ec3df0 <__bss_end__+0xeb9d18>
    1104:	19270b39 	stmdbne	r7!, {r0, r3, r4, r5, r8, r9, fp}
    1108:	01111349 	tsteq	r1, r9, asr #6
    110c:	18400612 	stmdane	r0, {r1, r4, r9, sl}^
    1110:	01194297 			; <UNDEFINED> instruction: 0x01194297
    1114:	0b000013 	bleq	1168 <__code_start__-0x6e98>
    1118:	08030005 	stmdaeq	r3, {r0, r2}
    111c:	0b3b0b3a 	bleq	ec3e0c <__bss_end__+0xeb9d34>
    1120:	13490b39 	movtne	r0, #39737	; 0x9b39
    1124:	00001802 	andeq	r1, r0, r2, lsl #16
    1128:	0300050c 	movweq	r0, #1292	; 0x50c
    112c:	3b0b3a08 	blcc	2cf954 <__bss_end__+0x2c587c>
    1130:	490b390b 	stmdbmi	fp, {r0, r1, r3, r8, fp, ip, sp}
    1134:	b7170213 			; <UNDEFINED> instruction: 0xb7170213
    1138:	00001742 	andeq	r1, r0, r2, asr #14
    113c:	0300340d 	movweq	r3, #1037	; 0x40d
    1140:	3b0b3a08 	blcc	2cf968 <__bss_end__+0x2c5890>
    1144:	490b390b 	stmdbmi	fp, {r0, r1, r3, r8, fp, ip, sp}
    1148:	b7170213 			; <UNDEFINED> instruction: 0xb7170213
    114c:	00001742 	andeq	r1, r0, r2, asr #14
    1150:	0b000f0e 	bleq	4d90 <__code_start__-0x3270>
    1154:	0000000b 	andeq	r0, r0, fp
    1158:	25011101 	strcs	r1, [r1, #-257]	; 0xfffffeff
    115c:	030b130e 	movweq	r1, #45838	; 0xb30e
    1160:	110e1b0e 	tstne	lr, lr, lsl #22
    1164:	10061201 	andne	r1, r6, r1, lsl #4
    1168:	02000017 	andeq	r0, r0, #23, 0
    116c:	0b0b0024 	bleq	2c1204 <__bss_end__+0x2b712c>
    1170:	08030b3e 	stmdaeq	r3, {r1, r2, r3, r4, r5, r8, r9, fp}
    1174:	24030000 	strcs	r0, [r3], #-0
    1178:	3e0b0b00 	vmlacc.f64	d0, d11, d0
    117c:	000e030b 	andeq	r0, lr, fp, lsl #6
    1180:	01150400 	tsteq	r5, r0, lsl #8
    1184:	13491927 	movtne	r1, #39207	; 0x9927
    1188:	00001301 	andeq	r1, r0, r1, lsl #6
    118c:	49000505 	stmdbmi	r0, {r0, r2, r8, sl}
    1190:	06000013 			; <UNDEFINED> instruction: 0x06000013
    1194:	0e030034 	mcreq	0, 0, r0, cr3, cr4, {1}
    1198:	0b3b0b3a 	bleq	ec3e88 <__bss_end__+0xeb9db0>
    119c:	13490b39 	movtne	r0, #39737	; 0x9b39
    11a0:	193c193f 	ldmdbne	ip!, {r0, r1, r2, r3, r4, r5, r8, fp, ip}
    11a4:	0f070000 	svceq	0x00070000
    11a8:	490b0b00 	stmdbmi	fp, {r8, r9, fp}
    11ac:	08000013 	stmdaeq	r0, {r0, r1, r4}
    11b0:	13490026 	movtne	r0, #36902	; 0x9026
    11b4:	2e090000 	cdpcs	0, 0, cr0, cr9, cr0, {0}
    11b8:	03193f01 	tsteq	r9, #1, 30
    11bc:	3b0b3a0e 	blcc	2cf9fc <__bss_end__+0x2c5924>
    11c0:	270b390b 	strcs	r3, [fp, -fp, lsl #18]
    11c4:	11134919 	tstne	r3, r9, lsl r9
    11c8:	40061201 	andmi	r1, r6, r1, lsl #4
    11cc:	19429718 	stmdbne	r2, {r3, r4, r8, r9, sl, ip, pc}^
    11d0:	00001301 	andeq	r1, r0, r1, lsl #6
    11d4:	0300050a 	movweq	r0, #1290	; 0x50a
    11d8:	3b0b3a0e 	blcc	2cfa18 <__bss_end__+0x2c5940>
    11dc:	490b390b 	stmdbmi	fp, {r0, r1, r3, r8, fp, ip, sp}
    11e0:	00180213 	andseq	r0, r8, r3, lsl r2
    11e4:	00050b00 	andeq	r0, r5, r0, lsl #22
    11e8:	0b3a0803 	bleq	e831fc <__bss_end__+0xe79124>
    11ec:	0b390b3b 	bleq	e43ee0 <__bss_end__+0xe39e08>
    11f0:	17021349 	strne	r1, [r2, -r9, asr #6]
    11f4:	001742b7 			; <UNDEFINED> instruction: 0x001742b7
    11f8:	00340c00 	eorseq	r0, r4, r0, lsl #24
    11fc:	0b3a0803 	bleq	e83210 <__bss_end__+0xe79138>
    1200:	0b390b3b 	bleq	e43ef4 <__bss_end__+0xe39e1c>
    1204:	17021349 	strne	r1, [r2, -r9, asr #6]
    1208:	001742b7 			; <UNDEFINED> instruction: 0x001742b7
    120c:	11010000 	mrsne	r0, (UNDEF: 1)
    1210:	130e2501 	movwne	r2, #58625	; 0xe501
    1214:	1b0e030b 	blne	381e48 <__bss_end__+0x377d70>
    1218:	1201110e 	andne	r1, r1, #-2147483645	; 0x80000003
    121c:	00171006 	andseq	r1, r7, r6
    1220:	00240200 	eoreq	r0, r4, r0, lsl #4
    1224:	0b3e0b0b 	bleq	f83e58 <__bss_end__+0xf79d80>
    1228:	00000803 	andeq	r0, r0, r3, lsl #16
    122c:	0b002403 	bleq	a240 <__bss_end__+0x168>
    1230:	030b3e0b 	movweq	r3, #48651	; 0xbe0b
    1234:	0400000e 	streq	r0, [r0], #-14
    1238:	19270115 	stmdbne	r7!, {r0, r2, r4, r8}
    123c:	13011349 	movwne	r1, #4937	; 0x1349
    1240:	05050000 	streq	r0, [r5, #-0]
    1244:	00134900 	andseq	r4, r3, r0, lsl #18
    1248:	00340600 	eorseq	r0, r4, r0, lsl #12
    124c:	0b3a0e03 	bleq	e84a60 <__bss_end__+0xe7a988>
    1250:	0b390b3b 	bleq	e43f44 <__bss_end__+0xe39e6c>
    1254:	193f1349 	ldmdbne	pc!, {r0, r3, r6, r8, r9, ip}	; <UNPREDICTABLE>
    1258:	0000193c 	andeq	r1, r0, ip, lsr r9
    125c:	0b000f07 	bleq	4e80 <__code_start__-0x3180>
    1260:	0013490b 	andseq	r4, r3, fp, lsl #18
    1264:	00260800 	eoreq	r0, r6, r0, lsl #16
    1268:	00001349 	andeq	r1, r0, r9, asr #6
    126c:	3f012e09 	svccc	0x00012e09
    1270:	3a0e0319 	bcc	381edc <__bss_end__+0x377e04>
    1274:	390b3b0b 	stmdbcc	fp, {r0, r1, r3, r8, r9, fp, ip, sp}
    1278:	4919270b 	ldmdbmi	r9, {r0, r1, r3, r8, r9, sl, sp}
    127c:	12011113 	andne	r1, r1, #-1073741820	; 0xc0000004
    1280:	97184006 	ldrls	r4, [r8, -r6]
    1284:	00001942 	andeq	r1, r0, r2, asr #18
    1288:	0300050a 	movweq	r0, #1290	; 0x50a
    128c:	3b0b3a08 	blcc	2cfab4 <__bss_end__+0x2c59dc>
    1290:	490b390b 	stmdbmi	fp, {r0, r1, r3, r8, fp, ip, sp}
    1294:	b7170213 			; <UNDEFINED> instruction: 0xb7170213
    1298:	00001742 	andeq	r1, r0, r2, asr #14
    129c:	01110100 	tsteq	r1, r0, lsl #2
    12a0:	0b130e25 	bleq	4c4b3c <__bss_end__+0x4baa64>
    12a4:	0e1b0e03 	cdpeq	14, 1, cr0, cr11, cr3, {0}
    12a8:	06120111 			; <UNDEFINED> instruction: 0x06120111
    12ac:	00001710 	andeq	r1, r0, r0, lsl r7
    12b0:	0b002402 	bleq	a2c0 <__bss_end__+0x1e8>
    12b4:	030b3e0b 	movweq	r3, #48651	; 0xbe0b
    12b8:	03000008 	movweq	r0, #8
    12bc:	0b0b0024 	bleq	2c1354 <__bss_end__+0x2b727c>
    12c0:	0e030b3e 	vmoveq.16	d3[0], r0
    12c4:	15040000 	strne	r0, [r4, #-0]
    12c8:	49192701 	ldmdbmi	r9, {r0, r8, r9, sl, sp}
    12cc:	00130113 	andseq	r0, r3, r3, lsl r1
    12d0:	00050500 	andeq	r0, r5, r0, lsl #10
    12d4:	00001349 	andeq	r1, r0, r9, asr #6
    12d8:	03003406 	movweq	r3, #1030	; 0x406
    12dc:	3b0b3a0e 	blcc	2cfb1c <__bss_end__+0x2c5a44>
    12e0:	490b390b 	stmdbmi	fp, {r0, r1, r3, r8, fp, ip, sp}
    12e4:	3c193f13 	ldccc	15, cr3, [r9], {19}
    12e8:	07000019 	smladeq	r0, r9, r0, r0
    12ec:	0b0b000f 	bleq	2c1330 <__bss_end__+0x2b7258>
    12f0:	00001349 	andeq	r1, r0, r9, asr #6
    12f4:	49002608 	stmdbmi	r0, {r3, r9, sl, sp}
    12f8:	09000013 	stmdbeq	r0, {r0, r1, r4}
    12fc:	193f012e 	ldmdbne	pc!, {r1, r2, r3, r5, r8}	; <UNPREDICTABLE>
    1300:	0b3a0e03 	bleq	e84b14 <__bss_end__+0xe7aa3c>
    1304:	0b390b3b 	bleq	e43ff8 <__bss_end__+0xe39f20>
    1308:	13491927 	movtne	r1, #39207	; 0x9927
    130c:	06120111 			; <UNDEFINED> instruction: 0x06120111
    1310:	42971840 	addsmi	r1, r7, #64, 16	; 0x400000
    1314:	00130119 	andseq	r0, r3, r9, lsl r1
    1318:	00050a00 	andeq	r0, r5, r0, lsl #20
    131c:	0b3a0803 	bleq	e83330 <__bss_end__+0xe79258>
    1320:	0b390b3b 	bleq	e44014 <__bss_end__+0xe39f3c>
    1324:	18021349 	stmdane	r2, {r0, r3, r6, r8, r9, ip}
    1328:	050b0000 	streq	r0, [fp, #-0]
    132c:	3a080300 	bcc	201f34 <__bss_end__+0x1f7e5c>
    1330:	390b3b0b 	stmdbcc	fp, {r0, r1, r3, r8, r9, fp, ip, sp}
    1334:	0213490b 	andseq	r4, r3, #180224	; 0x2c000
    1338:	1742b717 	smlaldne	fp, r2, r7, r7
    133c:	340c0000 	strcc	r0, [ip], #-0
    1340:	3a080300 	bcc	201f48 <__bss_end__+0x1f7e70>
    1344:	390b3b0b 	stmdbcc	fp, {r0, r1, r3, r8, r9, fp, ip, sp}
    1348:	0213490b 	andseq	r4, r3, #180224	; 0x2c000
    134c:	1742b717 	smlaldne	fp, r2, r7, r7
    1350:	01000000 	mrseq	r0, (UNDEF: 0)
    1354:	0e250111 	mcreq	1, 1, r0, cr5, cr1, {0}
    1358:	0e030b13 	vmoveq.32	d3[0], r0
    135c:	17550e1b 	smmlane	r5, fp, lr, r0
    1360:	17100111 			; <UNDEFINED> instruction: 0x17100111
    1364:	24020000 	strcs	r0, [r2], #-0
    1368:	3e0b0b00 	vmlacc.f64	d0, d11, d0
    136c:	0008030b 	andeq	r0, r8, fp, lsl #6
    1370:	00160300 	andseq	r0, r6, r0, lsl #6
    1374:	0b3a0e03 	bleq	e84b88 <__bss_end__+0xe7aab0>
    1378:	0b390b3b 	bleq	e4406c <__bss_end__+0xe39f94>
    137c:	00001349 	andeq	r1, r0, r9, asr #6
    1380:	0b002404 	bleq	a398 <__bss_end__+0x2c0>
    1384:	030b3e0b 	movweq	r3, #48651	; 0xbe0b
    1388:	0500000e 	streq	r0, [r0, #-14]
    138c:	13490026 	movtne	r0, #36902	; 0x9026
    1390:	15060000 	strne	r0, [r6, #-0]
    1394:	49192701 	ldmdbmi	r9, {r0, r8, r9, sl, sp}
    1398:	00130113 	andseq	r0, r3, r3, lsl r1
    139c:	00050700 	andeq	r0, r5, r0, lsl #14
    13a0:	00001349 	andeq	r1, r0, r9, asr #6
    13a4:	03003408 	movweq	r3, #1032	; 0x408
    13a8:	3b0b3a0e 	blcc	2cfbe8 <__bss_end__+0x2c5b10>
    13ac:	490b390b 	stmdbmi	fp, {r0, r1, r3, r8, fp, ip, sp}
    13b0:	3c193f13 	ldccc	15, cr3, [r9], {19}
    13b4:	09000019 	stmdbeq	r0, {r0, r3, r4}
    13b8:	0b0b000f 	bleq	2c13fc <__bss_end__+0x2b7324>
    13bc:	00001349 	andeq	r1, r0, r9, asr #6
    13c0:	3f012e0a 	svccc	0x00012e0a
    13c4:	3a0e0319 	bcc	382030 <__bss_end__+0x377f58>
    13c8:	390b3b0b 	stmdbcc	fp, {r0, r1, r3, r8, r9, fp, ip, sp}
    13cc:	4919270b 	ldmdbmi	r9, {r0, r1, r3, r8, r9, sl, sp}
    13d0:	12011113 	andne	r1, r1, #-1073741820	; 0xc0000004
    13d4:	97184006 	ldrls	r4, [r8, -r6]
    13d8:	13011942 	movwne	r1, #6466	; 0x1942
    13dc:	050b0000 	streq	r0, [fp, #-0]
    13e0:	3a080300 	bcc	201fe8 <__bss_end__+0x1f7f10>
    13e4:	390b3b0b 	stmdbcc	fp, {r0, r1, r3, r8, r9, fp, ip, sp}
    13e8:	0213490b 	andseq	r4, r3, #180224	; 0x2c000
    13ec:	1742b717 	smlaldne	fp, r2, r7, r7
    13f0:	340c0000 	strcc	r0, [ip], #-0
    13f4:	3a080300 	bcc	201ffc <__bss_end__+0x1f7f24>
    13f8:	390b3b0b 	stmdbcc	fp, {r0, r1, r3, r8, r9, fp, ip, sp}
    13fc:	0213490b 	andseq	r4, r3, #180224	; 0x2c000
    1400:	1742b717 	smlaldne	fp, r2, r7, r7
    1404:	01000000 	mrseq	r0, (UNDEF: 0)
    1408:	0e250111 	mcreq	1, 1, r0, cr5, cr1, {0}
    140c:	0e030b13 	vmoveq.32	d3[0], r0
    1410:	01110e1b 	tsteq	r1, fp, lsl lr
    1414:	17100612 			; <UNDEFINED> instruction: 0x17100612
    1418:	24020000 	strcs	r0, [r2], #-0
    141c:	3e0b0b00 	vmlacc.f64	d0, d11, d0
    1420:	0008030b 	andeq	r0, r8, fp, lsl #6
    1424:	00240300 	eoreq	r0, r4, r0, lsl #6
    1428:	0b3e0b0b 	bleq	f8405c <__bss_end__+0xf79f84>
    142c:	00000e03 	andeq	r0, r0, r3, lsl #28
    1430:	27011504 	strcs	r1, [r1, -r4, lsl #10]
    1434:	01134919 	tsteq	r3, r9, lsl r9
    1438:	05000013 	streq	r0, [r0, #-19]	; 0xffffffed
    143c:	13490005 	movtne	r0, #36869	; 0x9005
    1440:	34060000 	strcc	r0, [r6], #-0
    1444:	3a0e0300 	bcc	38204c <__bss_end__+0x377f74>
    1448:	390b3b0b 	stmdbcc	fp, {r0, r1, r3, r8, r9, fp, ip, sp}
    144c:	3f13490b 	svccc	0x0013490b
    1450:	00193c19 	andseq	r3, r9, r9, lsl ip
    1454:	000f0700 	andeq	r0, pc, r0, lsl #14
    1458:	13490b0b 	movtne	r0, #39691	; 0x9b0b
    145c:	26080000 	strcs	r0, [r8], -r0
    1460:	00134900 	andseq	r4, r3, r0, lsl #18
    1464:	002e0900 	eoreq	r0, lr, r0, lsl #18
    1468:	0e03193f 			; <UNDEFINED> instruction: 0x0e03193f
    146c:	0b3b0b3a 	bleq	ec415c <__bss_end__+0xeba084>
    1470:	19270b39 	stmdbne	r7!, {r0, r3, r4, r5, r8, r9, fp}
    1474:	06120111 			; <UNDEFINED> instruction: 0x06120111
    1478:	42971840 	addsmi	r1, r7, #64, 16	; 0x400000
    147c:	00000019 	andeq	r0, r0, r9, lsl r0
    1480:	25011101 	strcs	r1, [r1, #-257]	; 0xfffffeff
    1484:	030b130e 	movweq	r1, #45838	; 0xb30e
    1488:	110e1b0e 	tstne	lr, lr, lsl #22
    148c:	10061201 	andne	r1, r6, r1, lsl #4
    1490:	02000017 	andeq	r0, r0, #23, 0
    1494:	0b0b0024 	bleq	2c152c <__bss_end__+0x2b7454>
    1498:	08030b3e 	stmdaeq	r3, {r1, r2, r3, r4, r5, r8, r9, fp}
    149c:	24030000 	strcs	r0, [r3], #-0
    14a0:	3e0b0b00 	vmlacc.f64	d0, d11, d0
    14a4:	000e030b 	andeq	r0, lr, fp, lsl #6
    14a8:	00260400 	eoreq	r0, r6, r0, lsl #8
    14ac:	00001349 	andeq	r1, r0, r9, asr #6
    14b0:	03001605 	movweq	r1, #1541	; 0x605
    14b4:	3b0b3a0e 	blcc	2cfcf4 <__bss_end__+0x2c5c1c>
    14b8:	490b390b 	stmdbmi	fp, {r0, r1, r3, r8, fp, ip, sp}
    14bc:	06000013 			; <UNDEFINED> instruction: 0x06000013
    14c0:	0b3e0104 	bleq	f818d8 <__bss_end__+0xf77800>
    14c4:	13490b0b 	movtne	r0, #39691	; 0x9b0b
    14c8:	0b3b0b3a 	bleq	ec41b8 <__bss_end__+0xeba0e0>
    14cc:	13010b39 	movwne	r0, #6969	; 0x1b39
    14d0:	28070000 	stmdacs	r7, {}	; <UNPREDICTABLE>
    14d4:	1c0e0300 	stcne	3, cr0, [lr], {-0}
    14d8:	0800000b 	stmdaeq	r0, {r0, r1, r3}
    14dc:	0e030034 	mcreq	0, 0, r0, cr3, cr4, {1}
    14e0:	0b3b0b3a 	bleq	ec41d0 <__bss_end__+0xeba0f8>
    14e4:	13490b39 	movtne	r0, #39737	; 0x9b39
    14e8:	0000061c 	andeq	r0, r0, ip, lsl r6
    14ec:	3f012e09 	svccc	0x00012e09
    14f0:	3a0e0319 	bcc	38215c <__bss_end__+0x378084>
    14f4:	390b3b0b 	stmdbcc	fp, {r0, r1, r3, r8, r9, fp, ip, sp}
    14f8:	4919270b 	ldmdbmi	r9, {r0, r1, r3, r8, r9, sl, sp}
    14fc:	12011113 	andne	r1, r1, #-1073741820	; 0xc0000004
    1500:	97184006 	ldrls	r4, [r8, -r6]
    1504:	13011942 	movwne	r1, #6466	; 0x1942
    1508:	050a0000 	streq	r0, [sl, #-0]
    150c:	3a080300 	bcc	202114 <__bss_end__+0x1f803c>
    1510:	390b3b0b 	stmdbcc	fp, {r0, r1, r3, r8, r9, fp, ip, sp}
    1514:	0213490b 	andseq	r4, r3, #180224	; 0x2c000
    1518:	1742b717 	smlaldne	fp, r2, r7, r7
    151c:	340b0000 	strcc	r0, [fp], #-0
    1520:	3a0e0300 	bcc	382128 <__bss_end__+0x378050>
    1524:	390b3b0b 	stmdbcc	fp, {r0, r1, r3, r8, r9, fp, ip, sp}
    1528:	0213490b 	andseq	r4, r3, #180224	; 0x2c000
    152c:	1742b717 	smlaldne	fp, r2, r7, r7
    1530:	340c0000 	strcc	r0, [ip], #-0
    1534:	3a080300 	bcc	20213c <__bss_end__+0x1f8064>
    1538:	390b3b0b 	stmdbcc	fp, {r0, r1, r3, r8, r9, fp, ip, sp}
    153c:	0213490b 	andseq	r4, r3, #180224	; 0x2c000
    1540:	1742b717 	smlaldne	fp, r2, r7, r7
    1544:	890d0000 	stmdbhi	sp, {}	; <UNPREDICTABLE>
    1548:	11010182 	smlabbne	r1, r2, r1, r0
    154c:	00133101 	andseq	r3, r3, r1, lsl #2
    1550:	828a0e00 	addhi	r0, sl, #0, 28
    1554:	18020001 	stmdane	r2, {r0}
    1558:	00184291 	mulseq	r8, r1, r2
    155c:	012e0f00 			; <UNDEFINED> instruction: 0x012e0f00
    1560:	0e03193f 			; <UNDEFINED> instruction: 0x0e03193f
    1564:	0b3b0b3a 	bleq	ec4254 <__bss_end__+0xeba17c>
    1568:	19270b39 	stmdbne	r7!, {r0, r3, r4, r5, r8, r9, fp}
    156c:	06120111 			; <UNDEFINED> instruction: 0x06120111
    1570:	42971840 	addsmi	r1, r7, #64, 16	; 0x400000
    1574:	00130119 	andseq	r0, r3, r9, lsl r1
    1578:	82891000 	addhi	r1, r9, #0, 0
    157c:	01110101 	tsteq	r1, r1, lsl #2
    1580:	13011331 	movwne	r1, #4913	; 0x1331
    1584:	89110000 	ldmdbhi	r1, {}	; <UNPREDICTABLE>
    1588:	11000182 	smlabbne	r0, r2, r1, r0
    158c:	00133101 	andseq	r3, r3, r1, lsl #2
    1590:	00051200 	andeq	r1, r5, r0, lsl #4
    1594:	0b3a0e03 	bleq	e84da8 <__bss_end__+0xe7acd0>
    1598:	0b390b3b 	bleq	e4428c <__bss_end__+0xe3a1b4>
    159c:	17021349 	strne	r1, [r2, -r9, asr #6]
    15a0:	001742b7 			; <UNDEFINED> instruction: 0x001742b7
    15a4:	012e1300 			; <UNDEFINED> instruction: 0x012e1300
    15a8:	0b3a0e03 	bleq	e84dbc <__bss_end__+0xe7ace4>
    15ac:	0b390b3b 	bleq	e442a0 <__bss_end__+0xe3a1c8>
    15b0:	13491927 	movtne	r1, #39207	; 0x9927
    15b4:	13010b20 	movwne	r0, #6944	; 0x1b20
    15b8:	05140000 	ldreq	r0, [r4, #-0]
    15bc:	3a080300 	bcc	2021c4 <__bss_end__+0x1f80ec>
    15c0:	390b3b0b 	stmdbcc	fp, {r0, r1, r3, r8, r9, fp, ip, sp}
    15c4:	0013490b 	andseq	r4, r3, fp, lsl #18
    15c8:	002e1500 	eoreq	r1, lr, r0, lsl #10
    15cc:	193c193f 	ldmdbne	ip!, {r0, r1, r2, r3, r4, r5, r8, fp, ip}
    15d0:	0e030e6e 	cdpeq	14, 0, cr0, cr3, cr14, {3}
    15d4:	0b3b0b3a 	bleq	ec42c4 <__bss_end__+0xeba1ec>
    15d8:	00000b39 	andeq	r0, r0, r9, lsr fp
	...

Disassembly of section .debug_loc:

00000000 <.debug_loc>:
       0:	00000000 	andeq	r0, r0, r0
       4:	000004f8 	strdeq	r0, [r0], -r8
       8:	000004ff 	strdeq	r0, [r0], -pc	; <UNPREDICTABLE>
       c:	ff500001 			; <UNDEFINED> instruction: 0xff500001
      10:	80000004 	andhi	r0, r0, r4
      14:	01000005 	tsteq	r0, r5
      18:	00005400 	andeq	r5, r0, r0, lsl #8
      1c:	00000000 	andeq	r0, r0, r0
      20:	00010000 	andeq	r0, r1, r0
      24:	04f80000 	ldrbteq	r0, [r8], #0
      28:	04ff0000 	ldrbteq	r0, [pc], #0	; 30 <__code_start__-0x7fd0>
      2c:	00010000 	andeq	r0, r1, r0
      30:	0004ff50 	andeq	pc, r4, r0, asr pc	; <UNPREDICTABLE>
      34:	00058000 	andeq	r8, r5, r0
      38:	54000100 	strpl	r0, [r0], #-256	; 0xffffff00
	...
      44:	05980000 	ldreq	r0, [r8]
      48:	059b0000 	ldreq	r0, [fp]
      4c:	00010000 	andeq	r0, r1, r0
      50:	00000050 	andeq	r0, r0, r0, asr r0
      54:	00000000 	andeq	r0, r0, r0
      58:	d4000000 	strle	r0, [r0], #-0
      5c:	d7000005 	strle	r0, [r0, -r5]
      60:	01000005 	tsteq	r0, r5
      64:	00005000 	andeq	r5, r0, r0
      68:	00000000 	andeq	r0, r0, r0
      6c:	00030000 	andeq	r0, r3, r0
      70:	03f80000 	mvnseq	r0, #0, 0
      74:	04000000 	streq	r0, [r0], #-0
      78:	00060000 	andeq	r0, r6, r0
      7c:	00750072 	rsbseq	r0, r5, r2, ror r0
      80:	04009f1c 	streq	r9, [r0], #-3868	; 0xfffff0e4
      84:	040b0000 	streq	r0, [fp], #-0
      88:	00010000 	andeq	r0, r1, r0
      8c:	00000052 	andeq	r0, r0, r2, asr r0
      90:	00000000 	andeq	r0, r0, r0
      94:	7c000100 	stfvcs	f0, [r0], {-0}
      98:	5c000003 	stcpl	0, cr0, [r0], {3}
      9c:	01000004 	tsteq	r0, r4
      a0:	00005500 	andeq	r5, r0, r0, lsl #10
      a4:	00000000 	andeq	r0, r0, r0
      a8:	00010000 	andeq	r0, r1, r0
      ac:	000003f8 	strdeq	r0, [r0], -r8
      b0:	00000400 	andeq	r0, r0, r0, lsl #8
      b4:	00520001 	subseq	r0, r2, r1
	...
      c0:	00037c00 	andeq	r7, r3, r0, lsl #24
      c4:	00045c00 	andeq	r5, r4, r0, lsl #24
      c8:	55000100 	strpl	r0, [r0, #-256]	; 0xffffff00
	...
      d4:	03f80000 	mvnseq	r0, #0, 0
      d8:	04000000 	streq	r0, [r0], #-0
      dc:	00010000 	andeq	r0, r1, r0
      e0:	00000052 	andeq	r0, r0, r2, asr r0
      e4:	00000000 	andeq	r0, r0, r0
      e8:	00000300 	andeq	r0, r0, r0, lsl #6
      ec:	00048800 	andeq	r8, r4, r0, lsl #16
      f0:	00049000 	andeq	r9, r4, r0
      f4:	72000600 	andvc	r0, r0, #0, 12
      f8:	1c007500 	cfstr32ne	mvfx7, [r0], {-0}
      fc:	0004909f 	muleq	r4, pc, r0	; <UNPREDICTABLE>
     100:	00049b00 	andeq	r9, r4, r0, lsl #22
     104:	52000100 	andpl	r0, r0, #0
	...
     110:	045c0001 	ldrbeq	r0, [ip], #-1
     114:	04e00000 	strbteq	r0, [r0], #0
     118:	00010000 	andeq	r0, r1, r0
     11c:	00000055 	andeq	r0, r0, r5, asr r0
     120:	00000000 	andeq	r0, r0, r0
     124:	88000100 	stmdahi	r0, {r8}
     128:	90000004 	andls	r0, r0, r4
     12c:	01000004 	tsteq	r0, r4
     130:	00005200 	andeq	r5, r0, r0, lsl #4
	...
     13c:	0000045c 	andeq	r0, r0, ip, asr r4
     140:	000004e0 	andeq	r0, r0, r0, ror #9
     144:	00550001 	subseq	r0, r5, r1
	...
     150:	00048800 	andeq	r8, r4, r0, lsl #16
     154:	00049000 	andeq	r9, r4, r0
     158:	52000100 	andpl	r0, r0, #0
	...
     164:	00000003 	andeq	r0, r0, r3
     168:	00000528 	andeq	r0, r0, r8, lsr #10
     16c:	00000530 	andeq	r0, r0, r0, lsr r5
     170:	00720006 	rsbseq	r0, r2, r6
     174:	9f1c0076 	svcls	0x001c0076
     178:	00000530 	andeq	r0, r0, r0, lsr r5
     17c:	0000053b 	andeq	r0, r0, fp, lsr r5
     180:	00520001 	subseq	r0, r2, r1
     184:	00000000 	andeq	r0, r0, r0
     188:	01000000 	mrseq	r0, (UNDEF: 0)
     18c:	0004fc00 	andeq	pc, r4, r0, lsl #24
     190:	00062800 	andeq	r2, r6, r0, lsl #16
     194:	56000100 	strpl	r0, [r0], -r0, lsl #2
	...
     1a0:	05280001 	streq	r0, [r8, #-1]!
     1a4:	05300000 	ldreq	r0, [r0, #-0]!
     1a8:	00010000 	andeq	r0, r1, r0
     1ac:	00000052 	andeq	r0, r0, r2, asr r0
     1b0:	00000000 	andeq	r0, r0, r0
     1b4:	fc000000 	stc2	0, cr0, [r0], {-0}
     1b8:	28000004 	stmdacs	r0, {r2}
     1bc:	01000006 	tsteq	r0, r6
     1c0:	00005600 	andeq	r5, r0, r0, lsl #12
	...
     1cc:	00000528 	andeq	r0, r0, r8, lsr #10
     1d0:	00000530 	andeq	r0, r0, r0, lsr r5
     1d4:	00520001 	subseq	r0, r2, r1
	...
     1e4:	0001d800 	andeq	sp, r1, r0, lsl #16
     1e8:	0001f000 	andeq	pc, r1, r0
     1ec:	50000100 	andpl	r0, r0, r0, lsl #2
     1f0:	000001f0 	strdeq	r0, [r0], -r0	; <UNPREDICTABLE>
     1f4:	000002f4 	strdeq	r0, [r0], -r4
     1f8:	f4550001 			; <UNDEFINED> instruction: 0xf4550001
     1fc:	18000002 	stmdane	r0, {r1}
     200:	04000003 	streq	r0, [r0], #-3
     204:	5001f300 	andpl	pc, r1, r0, lsl #6
     208:	0000009f 	muleq	r0, pc, r0	; <UNPREDICTABLE>
	...
     214:	0001f400 	andeq	pc, r1, r0, lsl #8
     218:	00024c00 	andeq	r4, r2, r0, lsl #24
     21c:	50000100 	andpl	r0, r0, r0, lsl #2
     220:	00000254 	andeq	r0, r0, r4, asr r2
     224:	00000318 	andeq	r0, r0, r8, lsl r3
     228:	00500001 	subseq	r0, r0, r1
     22c:	00000000 	andeq	r0, r0, r0
     230:	01000000 	mrseq	r0, (UNDEF: 0)
     234:	00000000 	andeq	r0, r0, r0
     238:	00000101 	andeq	r0, r0, r1, lsl #2
     23c:	00000100 	andeq	r0, r0, r0, lsl #2
     240:	04000000 	streq	r0, [r0], #-0
     244:	34000002 	strcc	r0, [r0], #-2
     248:	02000002 	andeq	r0, r0, #2, 0
     24c:	549f3000 	ldrpl	r3, [pc], #0	; 254 <__code_start__-0x7dac>
     250:	60000002 	andvs	r0, r0, r2
     254:	02000002 	andeq	r0, r0, #2, 0
     258:	609f3000 	addsvs	r3, pc, r0
     25c:	60000002 	andvs	r0, r0, r2
     260:	01000002 	tsteq	r0, r2
     264:	02605200 	rsbeq	r5, r0, #0, 4
     268:	02840000 	addeq	r0, r4, #0, 0
     26c:	00030000 	andeq	r0, r3, r0
     270:	849f0172 	ldrhi	r0, [pc], #370	; 278 <__code_start__-0x7d88>
     274:	a4000002 	strge	r0, [r0], #-2
     278:	01000002 	tsteq	r0, r2
     27c:	02c05200 	sbceq	r5, r0, #0, 4
     280:	02cc0000 	sbceq	r0, ip, #0, 0
     284:	00010000 	andeq	r0, r1, r0
     288:	0002cc52 	andeq	ip, r2, r2, asr ip
     28c:	0002d000 	andeq	sp, r2, r0
     290:	72000300 	andvc	r0, r0, #0, 6
     294:	02d09f7e 	sbcseq	r9, r0, #504	; 0x1f8
     298:	03180000 	tsteq	r8, #0, 0
     29c:	00010000 	andeq	r0, r1, r0
     2a0:	00000052 	andeq	r0, r0, r2, asr r0
     2a4:	00000000 	andeq	r0, r0, r0
     2a8:	00000400 	andeq	r0, r0, r0, lsl #8
     2ac:	04000000 	streq	r0, [r0], #-0
     2b0:	08000002 	stmdaeq	r0, {r1}
     2b4:	02000002 	andeq	r0, r0, #2, 0
     2b8:	089f3000 	ldmeq	pc, {ip, sp}	; <UNPREDICTABLE>
     2bc:	34000002 	strcc	r0, [r0], #-2
     2c0:	01000002 	tsteq	r0, r2
     2c4:	02545300 	subseq	r5, r4, #0, 6
     2c8:	02580000 	subseq	r0, r8, #0, 0
     2cc:	00010000 	andeq	r0, r1, r0
     2d0:	00000053 	andeq	r0, r0, r3, asr r0
     2d4:	00000000 	andeq	r0, r0, r0
     2d8:	60000000 	andvs	r0, r0, r0
     2dc:	d4000002 	strle	r0, [r0], #-2
     2e0:	01000002 	tsteq	r0, r2
     2e4:	00005300 	andeq	r5, r0, r0, lsl #6
	...
     2f0:	02a00000 	adceq	r0, r0, #0, 0
     2f4:	02b80000 	adcseq	r0, r8, #0, 0
     2f8:	00010000 	andeq	r0, r1, r0
     2fc:	0002b851 	andeq	fp, r2, r1, asr r8
     300:	0002d000 	andeq	sp, r2, r0
     304:	74000800 	strvc	r0, [r0], #-2048	; 0xfffff800
     308:	1c007300 	stcne	3, cr7, [r0], {-0}
     30c:	009f0323 	addseq	r0, pc, r3, lsr #6
     310:	00000000 	andeq	r0, r0, r0
     314:	01000000 	mrseq	r0, (UNDEF: 0)
     318:	00026000 	andeq	r6, r2, r0
     31c:	00026800 	andeq	r6, r2, r0, lsl #16
     320:	08000300 	stmdaeq	r0, {r8, r9}
     324:	00009ff8 	strdeq	r9, [r0], -r8
     328:	00000000 	andeq	r0, r0, r0
     32c:	00010000 	andeq	r0, r1, r0
     330:	00000260 	andeq	r0, r0, r0, ror #4
     334:	00000268 	andeq	r0, r0, r8, ror #4
     338:	9f3f0002 	svcls	0x003f0002
	...
     344:	02600001 	rsbeq	r0, r0, #1, 0
     348:	02680000 	rsbeq	r0, r8, #0, 0
     34c:	00010000 	andeq	r0, r1, r0
     350:	00000053 	andeq	r0, r0, r3, asr r0
     354:	00000000 	andeq	r0, r0, r0
     358:	d4000000 	strle	r0, [r0], #-0
     35c:	e8000002 	stmda	r0, {r1}
     360:	01000002 	tsteq	r0, r2
     364:	00005500 	andeq	r5, r0, r0, lsl #10
	...
     370:	02d40000 	sbcseq	r0, r4, #0, 0
     374:	02d80000 	sbcseq	r0, r8, #0, 0
     378:	00010000 	andeq	r0, r1, r0
     37c:	0002d853 	andeq	sp, r2, r3, asr r8
     380:	0002e800 	andeq	lr, r2, r0, lsl #16
     384:	72000800 	andvc	r0, r0, #0, 16
     388:	70243200 	eorvc	r3, r4, r0, lsl #4
     38c:	009f2200 	addseq	r2, pc, r0, lsl #4
	...
     39c:	0002e000 	andeq	lr, r2, r0
     3a0:	0002e400 	andeq	lr, r2, r0, lsl #8
     3a4:	53000100 	movwpl	r0, #256	; 0x100
     3a8:	000002e4 	andeq	r0, r0, r4, ror #5
     3ac:	000002f4 	strdeq	r0, [r0], -r4
     3b0:	0075000f 	rsbseq	r0, r5, pc
     3b4:	721c0070 	andsvc	r0, ip, #112, 0	; 0x70
     3b8:	1c243200 	sfmne	f3, 4, [r4], #-0
     3bc:	25321c38 	ldrcs	r1, [r2, #-3128]!	; 0xfffff3c8
     3c0:	0002f49f 	muleq	r2, pc, r4	; <UNPREDICTABLE>
     3c4:	00031800 	andeq	r1, r3, r0, lsl #16
     3c8:	f3001000 	vhadd.u8	d1, d0, d0
     3cc:	00705001 	rsbseq	r5, r0, r1
     3d0:	3200721c 	andcc	r7, r0, #28, 4	; 0xc0000001
     3d4:	1c381c24 	ldcne	12, cr1, [r8], #-144	; 0xffffff70
     3d8:	009f2532 	addseq	r2, pc, r2, lsr r5	; <UNPREDICTABLE>
	...
     3e8:	00010800 	andeq	r0, r1, r0, lsl #16
     3ec:	00011c00 	andeq	r1, r1, r0, lsl #24
     3f0:	50000100 	andpl	r0, r0, r0, lsl #2
     3f4:	0000011c 	andeq	r0, r0, ip, lsl r1
     3f8:	000001c0 	andeq	r0, r0, r0, asr #3
     3fc:	c0550001 	subsgt	r0, r5, r1
     400:	d8000001 	stmdale	r0, {r0}
     404:	04000001 	streq	r0, [r0], #-1
     408:	5001f300 	andpl	pc, r1, r0, lsl #6
     40c:	0000009f 	muleq	r0, pc, r0	; <UNPREDICTABLE>
	...
     41c:	00010800 	andeq	r0, r1, r0, lsl #16
     420:	00011f00 	andeq	r1, r1, r0, lsl #30
     424:	51000100 	mrspl	r0, (UNDEF: 16)
     428:	0000011f 	andeq	r0, r0, pc, lsl r1
     42c:	0000019c 	muleq	r0, ip, r1
     430:	9c540001 	mrrcls	0, 0, r0, r4, cr1
     434:	c0000001 	andgt	r0, r0, r1
     438:	07000001 	streq	r0, [r0, -r1]
     43c:	80817400 	addhi	r7, r1, r0, lsl #8
     440:	9f7c8080 	svcls	0x007c8080
     444:	000001c0 	andeq	r0, r0, r0, asr #3
     448:	000001d8 	ldrdeq	r0, [r0], -r8
     44c:	7f720003 	svcvc	0x00720003
     450:	0000009f 	muleq	r0, pc, r0	; <UNPREDICTABLE>
	...
     45c:	00012000 	andeq	r2, r1, r0
     460:	00014c00 	andeq	r4, r1, r0, lsl #24
     464:	50000100 	andpl	r0, r0, r0, lsl #2
     468:	00000154 	andeq	r0, r0, r4, asr r1
     46c:	000001d8 	ldrdeq	r0, [r0], -r8
     470:	00500001 	subseq	r0, r0, r1
     474:	00000000 	andeq	r0, r0, r0
     478:	02000000 	andeq	r0, r0, #0, 0
     47c:	2c000000 	stccs	0, cr0, [r0], {-0}
     480:	34000001 	strcc	r0, [r0], #-1
     484:	02000001 	andeq	r0, r0, #1, 0
     488:	549f3000 	ldrpl	r3, [pc], #0	; 490 <__code_start__-0x7b70>
     48c:	94000001 	strls	r0, [r0], #-1
     490:	01000001 	tsteq	r0, r1
     494:	00005200 	andeq	r5, r0, r0, lsl #4
	...
     4a0:	01600000 	cmneq	r0, r0
     4a4:	01640000 	cmneq	r4, r0
     4a8:	00010000 	andeq	r0, r1, r0
     4ac:	00016453 	andeq	r6, r1, r3, asr r4
     4b0:	00017400 	andeq	r7, r1, r0, lsl #8
     4b4:	72000700 	andvc	r0, r0, #0, 14
     4b8:	75243200 	strvc	r3, [r4, #-512]!	; 0xfffffe00
     4bc:	00002200 	andeq	r2, r0, r0, lsl #4
	...
     4c8:	00000160 	andeq	r0, r0, r0, ror #2
     4cc:	00000174 	andeq	r0, r0, r4, ror r1
     4d0:	005c0001 	subseq	r0, ip, r1
	...
     4dc:	6c000000 	stcvs	0, cr0, [r0], {-0}
     4e0:	70000001 	andvc	r0, r0, r1
     4e4:	01000001 	tsteq	r0, r1
     4e8:	01705300 	cmneq	r0, r0, lsl #6
     4ec:	01780000 	cmneq	r8, r0
     4f0:	00100000 	andseq	r0, r0, r0
     4f4:	24320072 	ldrtcs	r0, [r2], #-114	; 0xffffff8e
     4f8:	06220075 			; <UNDEFINED> instruction: 0x06220075
     4fc:	381c007c 	ldmdacc	ip, {r2, r3, r4, r5, r6}
     500:	9f25321c 	svcls	0x0025321c
	...
     510:	000001a0 	andeq	r0, r0, r0, lsr #3
     514:	000001a4 	andeq	r0, r0, r4, lsr #3
     518:	a4530001 	ldrbge	r0, [r3], #-1
     51c:	b4000001 	strlt	r0, [r0], #-1
     520:	07000001 	streq	r0, [r0, -r1]
     524:	32007400 	andcc	r7, r0, #0, 8
     528:	22007524 	andcs	r7, r0, #36, 10	; 0x9000000
	...
     534:	01a00000 	moveq	r0, r0
     538:	01b40000 			; <UNDEFINED> instruction: 0x01b40000
     53c:	00010000 	andeq	r0, r1, r0
     540:	00000051 	andeq	r0, r0, r1, asr r0
	...
     54c:	0001ac00 	andeq	sl, r1, r0, lsl #24
     550:	0001b000 	andeq	fp, r1, r0
     554:	53000100 	movwpl	r0, #256	; 0x100
     558:	000001b0 			; <UNDEFINED> instruction: 0x000001b0
     55c:	000001b8 			; <UNDEFINED> instruction: 0x000001b8
     560:	00740010 	rsbseq	r0, r4, r0, lsl r0
     564:	00752432 	rsbseq	r2, r5, r2, lsr r4
     568:	00710622 	rsbseq	r0, r1, r2, lsr #12
     56c:	321c381c 	andscc	r3, ip, #28, 16	; 0x1c0000
     570:	00009f25 	andeq	r9, r0, r5, lsr #30
	...
     57c:	00e00000 	rsceq	r0, r0, r0
     580:	00f00000 	rscseq	r0, r0, r0
     584:	00010000 	andeq	r0, r1, r0
     588:	0000f050 	andeq	pc, r0, r0, asr r0	; <UNPREDICTABLE>
     58c:	00010800 	andeq	r0, r1, r0, lsl #16
     590:	56000100 	strpl	r0, [r0], -r0, lsl #2
	...
     5a0:	000000e0 	andeq	r0, r0, r0, ror #1
     5a4:	000000f0 	strdeq	r0, [r0], -r0	; <UNPREDICTABLE>
     5a8:	f0510001 			; <UNDEFINED> instruction: 0xf0510001
     5ac:	08000000 	stmdaeq	r0, {}	; <UNPREDICTABLE>
     5b0:	01000001 	tsteq	r0, r1
     5b4:	00005500 	andeq	r5, r0, r0, lsl #10
     5b8:	00000000 	andeq	r0, r0, r0
     5bc:	00020000 	andeq	r0, r2, r0
     5c0:	00ec0000 	rsceq	r0, ip, r0
     5c4:	00f00000 	rscseq	r0, r0, r0
     5c8:	00020000 	andeq	r0, r2, r0
     5cc:	00f09f30 	rscseq	r9, r0, r0, lsr pc
     5d0:	01080000 	mrseq	r0, (UNDEF: 8)
     5d4:	00010000 	andeq	r0, r1, r0
     5d8:	00000054 	andeq	r0, r0, r4, asr r0
	...
     5e4:	c0000000 	andgt	r0, r0, r0
     5e8:	d4000000 	strle	r0, [r0], #-0
     5ec:	01000000 	mrseq	r0, (UNDEF: 0)
     5f0:	00d45000 	sbcseq	r5, r4, r0
     5f4:	00d70000 	sbcseq	r0, r7, r0
     5f8:	00010000 	andeq	r0, r1, r0
     5fc:	0000d751 	andeq	sp, r0, r1, asr r7
     600:	0000e000 	andeq	lr, r0, r0
     604:	f3000400 	vshl.u8	d0, d0, d0
     608:	009f5001 	addseq	r5, pc, r1
	...
     618:	0000c000 	andeq	ip, r0, r0
     61c:	0000d000 	andeq	sp, r0, r0
     620:	51000100 	mrspl	r0, (UNDEF: 16)
     624:	000000d0 	ldrdeq	r0, [r0], -r0	; <UNPREDICTABLE>
     628:	000000d7 	ldrdeq	r0, [r0], -r7
     62c:	d7520001 	ldrble	r0, [r2, -r1]
     630:	e0000000 	and	r0, r0, r0
     634:	04000000 	streq	r0, [r0], #-0
     638:	5101f300 	mrspl	pc, SP_irq	; <UNPREDICTABLE>
     63c:	0000009f 	muleq	r0, pc, r0	; <UNPREDICTABLE>
	...
     648:	c0000000 	andgt	r0, r0, r0
     64c:	cc000000 	stcgt	0, cr0, [r0], {-0}
     650:	01000000 	mrseq	r0, (UNDEF: 0)
     654:	00cc5200 	sbceq	r5, ip, r0, lsl #4
     658:	00d70000 	sbcseq	r0, r7, r0
     65c:	00010000 	andeq	r0, r1, r0
     660:	0000d753 	andeq	sp, r0, r3, asr r7
     664:	0000e000 	andeq	lr, r0, r0
     668:	f3000400 	vshl.u8	d0, d0, d0
     66c:	009f5201 	addseq	r5, pc, r1, lsl #4
	...
     67c:	00002c00 	andeq	r2, r0, r0, lsl #24
     680:	00003800 	andeq	r3, r0, r0, lsl #16
     684:	50000100 	andpl	r0, r0, r0, lsl #2
     688:	00000038 	andeq	r0, r0, r8, lsr r0
     68c:	00000048 	andeq	r0, r0, r8, asr #32
     690:	48540001 	ldmdami	r4, {r0}^
     694:	58000000 	stmdapl	r0, {}	; <UNPREDICTABLE>
     698:	01000000 	mrseq	r0, (UNDEF: 0)
     69c:	00005000 	andeq	r5, r0, r0
	...
     6ac:	000b0000 	andeq	r0, fp, r0
     6b0:	00010000 	andeq	r0, r1, r0
     6b4:	00000b50 	andeq	r0, r0, r0, asr fp
     6b8:	00001400 	andeq	r1, r0, r0, lsl #8
     6bc:	54000100 	strpl	r0, [r0], #-256	; 0xffffff00
	...
     6c8:	00010100 	andeq	r0, r1, r0, lsl #2
     6cc:	00000000 	andeq	r0, r0, r0
     6d0:	00000008 	andeq	r0, r0, r8
     6d4:	08500001 	ldmdaeq	r0, {r0}^
     6d8:	34000000 	strcc	r0, [r0], #-0
     6dc:	01000000 	mrseq	r0, (UNDEF: 0)
     6e0:	00005400 	andeq	r5, r0, r0, lsl #8
	...
     6f0:	00000288 	andeq	r0, r0, r8, lsl #5
     6f4:	000002b8 			; <UNDEFINED> instruction: 0x000002b8
     6f8:	b8500001 	ldmdalt	r0, {r0}^
     6fc:	04000002 	streq	r0, [r0], #-2
     700:	01000007 	tsteq	r0, r7
     704:	07045900 	streq	r5, [r4, -r0, lsl #18]
     708:	07400000 	strbeq	r0, [r0, -r0]
     70c:	00040000 	andeq	r0, r4, r0
     710:	9f5001f3 	svcls	0x005001f3
	...
     720:	02880000 	addeq	r0, r8, #0, 0
     724:	02a00000 	adceq	r0, r0, #0, 0
     728:	00010000 	andeq	r0, r1, r0
     72c:	0002a051 	andeq	sl, r2, r1, asr r0
     730:	0002b800 	andeq	fp, r2, r0, lsl #16
     734:	71000300 	mrsvc	r0, LR_irq
     738:	02b89f01 	adcseq	r9, r8, #1, 30
     73c:	07400000 	strbeq	r0, [r0, -r0]
     740:	00040000 	andeq	r0, r4, r0
     744:	9f5101f3 	svcls	0x005101f3
	...
     75c:	00000288 	andeq	r0, r0, r8, lsl #5
     760:	000002b8 			; <UNDEFINED> instruction: 0x000002b8
     764:	b8520001 	ldmdalt	r2, {r0}^
     768:	ec000002 	stc	0, cr0, [r0], {2}
     76c:	01000003 	tsteq	r0, r3
     770:	03ec5600 	mvneq	r5, #0, 12
     774:	04b80000 	ldrteq	r0, [r8], #0
     778:	00010000 	andeq	r0, r1, r0
     77c:	0004b85b 	andeq	fp, r4, fp, asr r8
     780:	0004d800 	andeq	sp, r4, r0, lsl #16
     784:	56000100 	strpl	r0, [r0], -r0, lsl #2
     788:	000004d8 	ldrdeq	r0, [r0], -r8
     78c:	0000055c 	andeq	r0, r0, ip, asr r5
     790:	5c5b0001 	mrrcpl	0, 0, r0, fp, cr1
     794:	04000005 	streq	r0, [r0], #-5
     798:	01000007 	tsteq	r0, r7
     79c:	00005600 	andeq	r5, r0, r0, lsl #12
     7a0:	00000000 	andeq	r0, r0, r0
     7a4:	00010000 	andeq	r0, r1, r0
     7a8:	00000000 	andeq	r0, r0, r0
     7ac:	00010100 	andeq	r0, r1, r0, lsl #2
     7b0:	00000000 	andeq	r0, r0, r0
     7b4:	00020200 	andeq	r0, r2, r0, lsl #4
     7b8:	029c0000 	addseq	r0, ip, #0, 0
     7bc:	02b80000 	adcseq	r0, r8, #0, 0
     7c0:	00010000 	andeq	r0, r1, r0
     7c4:	0002b850 	andeq	fp, r2, r0, asr r8
     7c8:	0002bc00 	andeq	fp, r2, r0, lsl #24
     7cc:	54000100 	strpl	r0, [r0], #-256	; 0xffffff00
     7d0:	000002bc 			; <UNDEFINED> instruction: 0x000002bc
     7d4:	000002c0 	andeq	r0, r0, r0, asr #5
     7d8:	01740003 	cmneq	r4, r3
     7dc:	0002c09f 	muleq	r2, pc, r0	; <UNPREDICTABLE>
     7e0:	0002e400 	andeq	lr, r2, r0, lsl #8
     7e4:	54000100 	strpl	r0, [r0], #-256	; 0xffffff00
     7e8:	000002e4 	andeq	r0, r0, r4, ror #5
     7ec:	000002e8 	andeq	r0, r0, r8, ror #5
     7f0:	01740003 	cmneq	r4, r3
     7f4:	0002e89f 	muleq	r2, pc, r8	; <UNPREDICTABLE>
     7f8:	0006d400 	andeq	sp, r6, r0, lsl #8
     7fc:	54000100 	strpl	r0, [r0], #-256	; 0xffffff00
     800:	000006d4 	ldrdeq	r0, [r0], -r4
     804:	000006d8 	ldrdeq	r0, [r0], -r8
     808:	01740003 	cmneq	r4, r3
     80c:	0006d89f 	muleq	r6, pc, r8	; <UNPREDICTABLE>
     810:	0006f000 	andeq	pc, r6, r0
     814:	54000100 	strpl	r0, [r0], #-256	; 0xffffff00
     818:	000006f0 	strdeq	r0, [r0], -r0	; <UNPREDICTABLE>
     81c:	000006f8 	strdeq	r0, [r0], -r8
     820:	01740003 	cmneq	r4, r3
     824:	0006f89f 	muleq	r6, pc, r8	; <UNPREDICTABLE>
     828:	00070400 	andeq	r0, r7, r0, lsl #8
     82c:	54000100 	strpl	r0, [r0], #-256	; 0xffffff00
	...
     83c:	000002a4 	andeq	r0, r0, r4, lsr #5
     840:	00000704 	andeq	r0, r0, r4, lsl #14
     844:	04580001 	ldrbeq	r0, [r8], #-1
     848:	40000007 	andmi	r0, r0, r7
     84c:	0a000007 	beq	870 <__code_start__-0x7790>
     850:	5101f300 	mrspl	pc, SP_irq	; <UNPREDICTABLE>
     854:	225001f3 	subscs	r0, r0, #-1073741764	; 0xc000003c
     858:	009f1c31 	addseq	r1, pc, r1, lsr ip	; <UNPREDICTABLE>
     85c:	00000000 	andeq	r0, r0, r0
     860:	01000000 	mrseq	r0, (UNDEF: 0)
     864:	00000000 	andeq	r0, r0, r0
     868:	00040800 	andeq	r0, r4, r0, lsl #16
     86c:	00047400 	andeq	r7, r4, r0, lsl #8
     870:	57000100 	strpl	r0, [r0, -r0, lsl #2]
     874:	000004d8 	ldrdeq	r0, [r0], -r8
     878:	000004fc 	strdeq	r0, [r0], -ip
     87c:	40570001 	subsmi	r0, r7, r1
     880:	5c000005 	stcpl	0, cr0, [r0], {5}
     884:	01000005 	tsteq	r0, r5
     888:	00005700 	andeq	r5, r0, r0, lsl #14
     88c:	00000000 	andeq	r0, r0, r0
     890:	00020000 	andeq	r0, r2, r0
     894:	04080000 	streq	r0, [r8], #-0
     898:	04b80000 	ldrteq	r0, [r8], #0
     89c:	00010000 	andeq	r0, r1, r0
     8a0:	0004d85a 	andeq	sp, r4, sl, asr r8
     8a4:	00055c00 	andeq	r5, r5, r0, lsl #24
     8a8:	5a000100 	bpl	cb0 <__code_start__-0x7350>
	...
     8b4:	00000001 	andeq	r0, r0, r1
     8b8:	000002ac 	andeq	r0, r0, ip, lsr #5
     8bc:	000002b8 			; <UNDEFINED> instruction: 0x000002b8
     8c0:	b8520001 	ldmdalt	r2, {r0}^
     8c4:	40000002 	andmi	r0, r0, r2
     8c8:	03000007 	movweq	r0, #7
     8cc:	7dc89100 	stfvcp	f1, [r8]
	...
     8e0:	00010100 	andeq	r0, r1, r0, lsl #2
	...
     8ec:	04740000 	ldrbteq	r0, [r4], #-0
     8f0:	048c0000 	streq	r0, [ip], #0
     8f4:	00010000 	andeq	r0, r1, r0
     8f8:	00048c50 	andeq	r8, r4, r0, asr ip
     8fc:	0004b800 	andeq	fp, r4, r0, lsl #16
     900:	57000100 	strpl	r0, [r0, -r0, lsl #2]
     904:	000004fc 	strdeq	r0, [r0], -ip
     908:	00000514 	andeq	r0, r0, r4, lsl r5
     90c:	14500001 	ldrbne	r0, [r0], #-1
     910:	40000005 	andmi	r0, r0, r5
     914:	01000005 	tsteq	r0, r5
     918:	05a45700 	streq	r5, [r4, #1792]!	; 0x700
     91c:	05a40000 	streq	r0, [r4, #0]!
     920:	00010000 	andeq	r0, r1, r0
     924:	0005a450 	andeq	sl, r5, r0, asr r4
     928:	0005ac00 	andeq	sl, r5, r0, lsl #24
     92c:	57000100 	strpl	r0, [r0, -r0, lsl #2]
     930:	000005dc 	ldrdeq	r0, [r0], -ip
     934:	000005e0 	andeq	r0, r0, r0, ror #11
     938:	10500001 	subsne	r0, r0, r1
     93c:	14000006 	strne	r0, [r0], #-6
     940:	01000006 	tsteq	r0, r6
     944:	06445000 	strbeq	r5, [r4], -r0
     948:	06480000 	strbeq	r0, [r8], -r0
     94c:	00010000 	andeq	r0, r1, r0
     950:	00068c50 	andeq	r8, r6, r0, asr ip
     954:	00069000 	andeq	r9, r6, r0
     958:	50000100 	andpl	r0, r0, r0, lsl #2
     95c:	000006d0 	ldrdeq	r0, [r0], -r0	; <UNPREDICTABLE>
     960:	000006f0 	strdeq	r0, [r0], -r0	; <UNPREDICTABLE>
     964:	00570001 	subseq	r0, r7, r1
     968:	00000000 	andeq	r0, r0, r0
     96c:	02000000 	andeq	r0, r0, #0, 0
     970:	00000000 	andeq	r0, r0, r0
     974:	0002f400 	andeq	pc, r2, r0, lsl #8
     978:	0002f800 	andeq	pc, r2, r0, lsl #16
     97c:	30000200 	andcc	r0, r0, r0, lsl #4
     980:	0002f89f 	muleq	r2, pc, r8	; <UNPREDICTABLE>
     984:	00031400 	andeq	r1, r3, r0, lsl #8
     988:	55000100 	strpl	r0, [r0, #-256]	; 0xffffff00
     98c:	0000031c 	andeq	r0, r0, ip, lsl r3
     990:	000006f0 	strdeq	r0, [r0], -r0	; <UNPREDICTABLE>
     994:	00550001 	subseq	r0, r5, r1
     998:	00000000 	andeq	r0, r0, r0
     99c:	01000000 	mrseq	r0, (UNDEF: 0)
	...
     9a8:	0003b800 	andeq	fp, r3, r0, lsl #16
     9ac:	00045400 	andeq	r5, r4, r0, lsl #8
     9b0:	56000100 	strpl	r0, [r0], -r0, lsl #2
     9b4:	00000454 	andeq	r0, r0, r4, asr r4
     9b8:	000004b8 			; <UNDEFINED> instruction: 0x000004b8
     9bc:	7e7b0003 	cdpvc	0, 7, cr0, cr11, cr3, {0}
     9c0:	0004b89f 	muleq	r4, pc, r8	; <UNPREDICTABLE>
     9c4:	0004dc00 	andeq	sp, r4, r0, lsl #24
     9c8:	56000100 	strpl	r0, [r0], -r0, lsl #2
     9cc:	000004dc 	ldrdeq	r0, [r0], -ip
     9d0:	00000540 	andeq	r0, r0, r0, asr #10
     9d4:	7e7b0003 	cdpvc	0, 7, cr0, cr11, cr3, {0}
     9d8:	0005409f 	muleq	r5, pc, r0	; <UNPREDICTABLE>
     9dc:	00055c00 	andeq	r5, r5, r0, lsl #24
     9e0:	56000100 	strpl	r0, [r0], -r0, lsl #2
	...
     9f0:	00700000 	rsbseq	r0, r0, r0
     9f4:	00940000 	addseq	r0, r4, r0
     9f8:	00010000 	andeq	r0, r1, r0
     9fc:	00009450 	andeq	r9, r0, r0, asr r4
     a00:	0000fc00 	andeq	pc, r0, r0, lsl #24
     a04:	70000300 	andvc	r0, r0, r0, lsl #6
     a08:	00fc9f02 	rscseq	r9, ip, r2, lsl #30
     a0c:	02240000 	eoreq	r0, r4, #0, 0
     a10:	00040000 	andeq	r0, r4, r0
     a14:	9f5001f3 	svcls	0x005001f3
	...
     a30:	00000070 	andeq	r0, r0, r0, ror r0
     a34:	000000e0 	andeq	r0, r0, r0, ror #1
     a38:	e0510001 	subs	r0, r1, r1
     a3c:	54000000 	strpl	r0, [r0], #-0
     a40:	01000001 	tsteq	r0, r1
     a44:	01545500 	cmpeq	r4, r0, lsl #10
     a48:	01580000 	cmpeq	r8, r0
     a4c:	00010000 	andeq	r0, r1, r0
     a50:	00015851 	andeq	r5, r1, r1, asr r8
     a54:	0001b000 	andeq	fp, r1, r0
     a58:	55000100 	strpl	r0, [r0, #-256]	; 0xffffff00
     a5c:	000001b0 			; <UNDEFINED> instruction: 0x000001b0
     a60:	000001c0 	andeq	r0, r0, r0, asr #3
     a64:	c0510001 	subsgt	r0, r1, r1
     a68:	e4000001 	str	r0, [r0], #-1
     a6c:	01000001 	tsteq	r0, r1
     a70:	01e45500 	mvneq	r5, r0, lsl #10
     a74:	01f80000 	mvnseq	r0, r0
     a78:	00010000 	andeq	r0, r1, r0
     a7c:	0001f851 	andeq	pc, r1, r1, asr r8	; <UNPREDICTABLE>
     a80:	00022400 	andeq	r2, r2, r0, lsl #8
     a84:	55000100 	strpl	r0, [r0, #-256]	; 0xffffff00
	...
     a94:	00000070 	andeq	r0, r0, r0, ror r0
     a98:	00000084 	andeq	r0, r0, r4, lsl #1
     a9c:	84520001 	ldrbhi	r0, [r2], #-1
     aa0:	24000000 	strcs	r0, [r0], #-0
     aa4:	01000002 	tsteq	r0, r2
     aa8:	00005400 	andeq	r5, r0, r0, lsl #8
	...
     ab4:	01000000 	mrseq	r0, (UNDEF: 0)
     ab8:	00000000 	andeq	r0, r0, r0
     abc:	00700000 	rsbseq	r0, r0, r0
     ac0:	00f40000 	rscseq	r0, r4, r0
     ac4:	00010000 	andeq	r0, r1, r0
     ac8:	00014c53 	andeq	r4, r1, r3, asr ip
     acc:	00018000 	andeq	r8, r1, r0
     ad0:	53000100 	movwpl	r0, #256	; 0x100
     ad4:	00000180 	andeq	r0, r0, r0, lsl #3
     ad8:	0000018c 	andeq	r0, r0, ip, lsl #3
     adc:	01f30004 	mvnseq	r0, r4
     ae0:	01b09f53 	asrseq	r9, r3, pc
     ae4:	01e80000 	mvneq	r0, r0
     ae8:	00010000 	andeq	r0, r1, r0
     aec:	0001e853 	andeq	lr, r1, r3, asr r8
     af0:	0001ff00 	andeq	pc, r1, r0, lsl #30
     af4:	5c000100 	stfpls	f0, [r0], {-0}
     af8:	000001ff 	strdeq	r0, [r0], -pc	; <UNPREDICTABLE>
     afc:	00000224 	andeq	r0, r0, r4, lsr #4
     b00:	01f30004 	mvnseq	r0, r4
     b04:	00009f53 	andeq	r9, r0, r3, asr pc
	...
     b14:	00000070 	andeq	r0, r0, r0, ror r0
     b18:	0000008c 	andeq	r0, r0, ip, lsl #1
     b1c:	00910002 	addseq	r0, r1, r2
     b20:	0000008c 	andeq	r0, r0, ip, lsl #1
     b24:	00000193 	muleq	r0, r3, r1
     b28:	b0520001 	subslt	r0, r2, r1
     b2c:	f4000001 	vst4.8	{d0-d3}, [r0], r1
     b30:	01000001 	tsteq	r0, r1
     b34:	00005200 	andeq	r5, r0, r0, lsl #4
     b38:	00000000 	andeq	r0, r0, r0
     b3c:	00010000 	andeq	r0, r1, r0
     b40:	00010100 	andeq	r0, r1, r0, lsl #2
     b44:	00000000 	andeq	r0, r0, r0
     b48:	01000000 	mrseq	r0, (UNDEF: 0)
     b4c:	00010101 	andeq	r0, r1, r1, lsl #2
     b50:	00010100 	andeq	r0, r1, r0, lsl #2
	...
     b5c:	008c0000 	addeq	r0, ip, r0
     b60:	00fc0000 	rscseq	r0, ip, r0
     b64:	00040000 	andeq	r0, r4, r0
     b68:	9f7fa091 	svcls	0x007fa091
     b6c:	000000fc 	strdeq	r0, [r0], -ip
     b70:	0000013c 	andeq	r0, r0, ip, lsr r1
     b74:	3c500001 	mrrccc	0, 0, r0, r0, cr1	; <UNPREDICTABLE>
     b78:	48000001 	stmdami	r0, {r0}
     b7c:	03000001 	movweq	r0, #1
     b80:	9f027100 	svcls	0x00027100
     b84:	00000148 	andeq	r0, r0, r8, asr #2
     b88:	0000014c 	andeq	r0, r0, ip, asr #2
     b8c:	4c500001 	mrrcmi	0, 0, r0, r0, cr1	; <UNPREDICTABLE>
     b90:	58000001 	stmdapl	r0, {r0}
     b94:	04000001 	streq	r0, [r0], #-1
     b98:	7fa09100 	svcvc	0x00a09100
     b9c:	0001589f 	muleq	r1, pc, r8	; <UNPREDICTABLE>
     ba0:	00016c00 	andeq	r6, r1, r0, lsl #24
     ba4:	51000100 	mrspl	r0, (UNDEF: 16)
     ba8:	0000016c 	andeq	r0, r0, ip, ror #2
     bac:	00000178 	andeq	r0, r0, r8, ror r1
     bb0:	7f710003 	svcvc	0x00710003
     bb4:	0001789f 	muleq	r1, pc, r8	; <UNPREDICTABLE>
     bb8:	00018400 	andeq	r8, r1, r0, lsl #8
     bbc:	71000300 	mrsvc	r0, LR_irq
     bc0:	01849f01 	orreq	r9, r4, r1, lsl #30
     bc4:	01930000 	orrseq	r0, r3, r0
     bc8:	00010000 	andeq	r0, r1, r0
     bcc:	0001b050 	andeq	fp, r1, r0, asr r0
     bd0:	0001b000 	andeq	fp, r1, r0
     bd4:	91000400 	tstls	r0, r0, lsl #8
     bd8:	b09f7fa0 	addslt	r7, pc, r0, lsr #31
     bdc:	b8000001 	stmdalt	r0, {r0}
     be0:	04000001 	streq	r0, [r0], #-1
     be4:	7fa19100 	svcvc	0x00a19100
     be8:	0001b89f 	muleq	r1, pc, r8	; <UNPREDICTABLE>
     bec:	0001bc00 	andeq	fp, r1, r0, lsl #24
     bf0:	50000100 	andpl	r0, r0, r0, lsl #2
     bf4:	000001bc 			; <UNDEFINED> instruction: 0x000001bc
     bf8:	000001c0 	andeq	r0, r0, r0, asr #3
     bfc:	a0910004 	addsge	r0, r1, r4
     c00:	01c09f7f 	biceq	r9, r0, pc, ror pc
     c04:	01d40000 	bicseq	r0, r4, r0
     c08:	00010000 	andeq	r0, r1, r0
     c0c:	0001d450 	andeq	sp, r1, r0, asr r4
     c10:	0001e400 	andeq	lr, r1, r0, lsl #8
     c14:	70000300 	andvc	r0, r0, r0, lsl #6
     c18:	01e49f7f 	mvneq	r9, pc, ror pc
     c1c:	02240000 	eoreq	r0, r4, #0, 0
     c20:	00040000 	andeq	r0, r4, r0
     c24:	9f7fa091 	svcls	0x007fa091
	...
     c30:	01000000 	mrseq	r0, (UNDEF: 0)
     c34:	00000001 	andeq	r0, r0, r1
	...
     c44:	00000090 	muleq	r0, r0, r0
     c48:	000000dc 	ldrdeq	r0, [r0], -ip
     c4c:	dc5c0001 	mrrcle	0, 0, r0, ip, cr1
     c50:	f4000000 	vst4.8	{d0-d3}, [r0], r0
     c54:	01000000 	mrseq	r0, (UNDEF: 0)
     c58:	00f45300 	rscseq	r5, r4, r0, lsl #6
     c5c:	014c0000 	mrseq	r0, (UNDEF: 76)
     c60:	00010000 	andeq	r0, r1, r0
     c64:	00014c5c 	andeq	r4, r1, ip, asr ip
     c68:	00015800 	andeq	r5, r1, r0, lsl #16
     c6c:	53000100 	movwpl	r0, #256	; 0x100
     c70:	00000158 	andeq	r0, r0, r8, asr r1
     c74:	00000174 	andeq	r0, r0, r4, ror r1
     c78:	b05c0001 	subslt	r0, ip, r1
     c7c:	c0000001 	andgt	r0, r0, r1
     c80:	01000001 	tsteq	r0, r1
     c84:	01c05300 	biceq	r5, r0, r0, lsl #6
     c88:	01dc0000 	bicseq	r0, ip, r0
     c8c:	00010000 	andeq	r0, r1, r0
     c90:	0001e45c 	andeq	lr, r1, ip, asr r4
     c94:	0001e800 	andeq	lr, r1, r0, lsl #16
     c98:	53000100 	movwpl	r0, #256	; 0x100
     c9c:	000001e8 	andeq	r0, r0, r8, ror #3
     ca0:	000001ff 	strdeq	r0, [r0], -pc	; <UNPREDICTABLE>
     ca4:	ff5c0001 			; <UNDEFINED> instruction: 0xff5c0001
     ca8:	24000001 	strcs	r0, [r0], #-1
     cac:	04000002 	streq	r0, [r0], #-2
     cb0:	5301f300 	movwpl	pc, #4864	; 0x1300	; <UNPREDICTABLE>
     cb4:	0000009f 	muleq	r0, pc, r0	; <UNPREDICTABLE>
     cb8:	00000000 	andeq	r0, r0, r0
     cbc:	01010100 	mrseq	r0, (UNDEF: 17)
     cc0:	00000000 	andeq	r0, r0, r0
     cc4:	0000dc00 	andeq	sp, r0, r0, lsl #24
     cc8:	0000f000 	andeq	pc, r0, r0
     ccc:	30000200 	andcc	r0, r0, r0, lsl #4
     cd0:	0000f09f 	muleq	r0, pc, r0	; <UNPREDICTABLE>
     cd4:	0000f800 	andeq	pc, r0, r0, lsl #16
     cd8:	31000200 	mrscc	r0, R8_usr
     cdc:	0000fc9f 	muleq	r0, pc, ip	; <UNPREDICTABLE>
     ce0:	00014c00 	andeq	r4, r1, r0, lsl #24
     ce4:	56000100 	strpl	r0, [r0], -r0, lsl #2
     ce8:	0000014c 	andeq	r0, r0, ip, asr #2
     cec:	00000154 	andeq	r0, r0, r4, asr r1
     cf0:	9f300002 	svcls	0x00300002
	...
     cfc:	01000000 	mrseq	r0, (UNDEF: 0)
     d00:	01000001 	tsteq	r0, r1
     d04:	00380001 	eorseq	r0, r8, r1
     d08:	00540000 	subseq	r0, r4, r0
     d0c:	00010000 	andeq	r0, r1, r0
     d10:	00005450 	andeq	r5, r0, r0, asr r4
     d14:	00005800 	andeq	r5, r0, r0, lsl #16
     d18:	52000100 	andpl	r0, r0, #0
     d1c:	00000058 	andeq	r0, r0, r8, asr r0
     d20:	00000060 	andeq	r0, r0, r0, rrx
     d24:	01720003 	cmneq	r2, r3
     d28:	0000609f 	muleq	r0, pc, r0	; <UNPREDICTABLE>
     d2c:	00006400 	andeq	r6, r0, r0, lsl #8
     d30:	52000100 	andpl	r0, r0, #0
     d34:	00000064 	andeq	r0, r0, r4, rrx
     d38:	00000070 	andeq	r0, r0, r0, ror r0
     d3c:	01720003 	cmneq	r2, r3
     d40:	0000009f 	muleq	r0, pc, r0	; <UNPREDICTABLE>
	...
     d4c:	00003800 	andeq	r3, r0, r0, lsl #16
     d50:	00005000 	andeq	r5, r0, r0
     d54:	51000100 	mrspl	r0, (UNDEF: 16)
     d58:	00000050 	andeq	r0, r0, r0, asr r0
     d5c:	00000070 	andeq	r0, r0, r0, ror r0
     d60:	01f30004 	mvnseq	r0, r4
     d64:	00009f51 	andeq	r9, r0, r1, asr pc
	...
     d70:	01000000 	mrseq	r0, (UNDEF: 0)
     d74:	00380001 	eorseq	r0, r8, r1
     d78:	00500000 	subseq	r0, r0, r0
     d7c:	00010000 	andeq	r0, r1, r0
     d80:	00005052 	andeq	r5, r0, r2, asr r0
     d84:	00005c00 	andeq	r5, r0, r0, lsl #24
     d88:	51000100 	mrspl	r0, (UNDEF: 16)
     d8c:	0000005c 	andeq	r0, r0, ip, asr r0
     d90:	00000060 	andeq	r0, r0, r0, rrx
     d94:	01710003 	cmneq	r1, r3
     d98:	0000609f 	muleq	r0, pc, r0	; <UNPREDICTABLE>
     d9c:	00007000 	andeq	r7, r0, r0
     da0:	51000100 	mrspl	r0, (UNDEF: 16)
	...
     db0:	00000038 	andeq	r0, r0, r8, lsr r0
     db4:	0000004c 	andeq	r0, r0, ip, asr #32
     db8:	4c530001 	mrrcmi	0, 0, r0, r3, cr1
     dbc:	68000000 	stmdavs	r0, {}	; <UNPREDICTABLE>
     dc0:	01000000 	mrseq	r0, (UNDEF: 0)
     dc4:	00005300 	andeq	r5, r0, r0, lsl #6
	...
     dd4:	00400000 	subeq	r0, r0, r0
     dd8:	00480000 	subeq	r0, r8, r0
     ddc:	00010000 	andeq	r0, r1, r0
     de0:	0000485c 	andeq	r4, r0, ip, asr r8
     de4:	00004c00 	andeq	r4, r0, r0, lsl #24
     de8:	72000800 	andvc	r0, r0, #0, 16
     dec:	1c007300 	stcne	3, cr7, [r0], {-0}
     df0:	4c9f0123 	ldfmis	f0, [pc], {35}	; 0x23
     df4:	54000000 	strpl	r0, [r0], #-0
     df8:	09000000 	stmdbeq	r0, {}	; <UNPREDICTABLE>
     dfc:	f3007200 	vhsub.u8	d7, d0, d0
     e00:	231c5301 	tstcs	ip, #67108864	; 0x4000000
     e04:	00549f01 	subseq	r9, r4, r1, lsl #30
     e08:	00700000 	rsbseq	r0, r0, r0
     e0c:	000a0000 	andeq	r0, sl, r0
     e10:	f35201f3 	vbsl	q8, q9, <illegal reg q9.5>
     e14:	231c5301 	tstcs	ip, #67108864	; 0x4000000
     e18:	00009f01 	andeq	r9, r0, r1, lsl #30
     e1c:	00000000 	andeq	r0, r0, r0
     e20:	00010000 	andeq	r0, r1, r0
     e24:	0000004c 	andeq	r0, r0, ip, asr #32
     e28:	00000070 	andeq	r0, r0, r0, ror r0
     e2c:	00500001 	subseq	r0, r0, r1
	...
     e38:	00000101 	andeq	r0, r0, r1, lsl #2
     e3c:	00001400 	andeq	r1, r0, r0, lsl #8
     e40:	00001c00 	andeq	r1, r0, r0, lsl #24
     e44:	50000100 	andpl	r0, r0, r0, lsl #2
     e48:	0000001c 	andeq	r0, r0, ip, lsl r0
     e4c:	00000024 	andeq	r0, r0, r4, lsr #32
     e50:	01700003 	cmneq	r0, r3
     e54:	0000249f 	muleq	r0, pc, r4	; <UNPREDICTABLE>
     e58:	00003800 	andeq	r3, r0, r0, lsl #16
     e5c:	50000100 	andpl	r0, r0, r0, lsl #2
	...
     e6c:	00000014 	andeq	r0, r0, r4, lsl r0
     e70:	00000018 	andeq	r0, r0, r8, lsl r0
     e74:	18510001 	ldmdane	r1, {r0}^
     e78:	38000000 	stmdacc	r0, {}	; <UNPREDICTABLE>
     e7c:	04000000 	streq	r0, [r0], #-0
     e80:	5101f300 	mrspl	pc, SP_irq	; <UNPREDICTABLE>
     e84:	0000009f 	muleq	r0, pc, r0	; <UNPREDICTABLE>
     e88:	00000000 	andeq	r0, r0, r0
     e8c:	18000000 	stmdane	r0, {}	; <UNPREDICTABLE>
     e90:	38000000 	stmdacc	r0, {}	; <UNPREDICTABLE>
     e94:	01000000 	mrseq	r0, (UNDEF: 0)
     e98:	00005100 	andeq	r5, r0, r0, lsl #2
	...
     eac:	00000004 	andeq	r0, r0, r4
     eb0:	04500001 	ldrbeq	r0, [r0], #-1
     eb4:	0c000000 	stceq	0, cr0, [r0], {-0}
     eb8:	03000000 	movweq	r0, #0
     ebc:	9f307000 	svcls	0x00307000
     ec0:	0000000c 	andeq	r0, r0, ip
     ec4:	00000014 	andeq	r0, r0, r4, lsl r0
     ec8:	01f30004 	mvnseq	r0, r4
     ecc:	00009f50 	andeq	r9, r0, r0, asr pc
	...
     ed8:	02240000 	eoreq	r0, r4, #0, 0
     edc:	02680000 	rsbeq	r0, r8, #0, 0
     ee0:	00010000 	andeq	r0, r1, r0
     ee4:	00026850 	andeq	r6, r2, r0, asr r8
     ee8:	00028800 	andeq	r8, r2, r0, lsl #16
     eec:	f3000400 	vshl.u8	d0, d0, d0
     ef0:	009f5001 	addseq	r5, pc, r1
	...
     efc:	24000000 	strcs	r0, [r0], #-0
     f00:	64000002 	strvs	r0, [r0], #-2
     f04:	01000002 	tsteq	r0, r2
     f08:	02645100 	rsbeq	r5, r4, #0
     f0c:	02880000 	addeq	r0, r8, #0, 0
     f10:	00040000 	andeq	r0, r4, r0
     f14:	9f5101f3 	svcls	0x005101f3
	...
     f20:	00010100 	andeq	r0, r1, r0, lsl #2
     f24:	8e7c0000 	cdphi	0, 7, cr0, cr12, cr0, {0}
     f28:	8e7c0000 	cdphi	0, 7, cr0, cr12, cr0, {0}
     f2c:	00010000 	andeq	r0, r1, r0
     f30:	008e7c53 	addeq	r7, lr, r3, asr ip
     f34:	008e8000 	addeq	r8, lr, r0
     f38:	73000700 	movwvc	r0, #1792	; 0x700
     f3c:	efff0b00 	svc	0x00ff0b00
     f40:	8e809f1a 	mcrhi	15, 4, r9, cr0, cr10, {0}
     f44:	8e880000 	cdphi	0, 8, cr0, cr8, cr0, {0}
     f48:	00010000 	andeq	r0, r1, r0
     f4c:	00000053 	andeq	r0, r0, r3, asr r0
     f50:	00000000 	andeq	r0, r0, r0
     f54:	01010000 	mrseq	r0, (UNDEF: 1)
     f58:	6c000000 	stcvs	0, cr0, [r0], {-0}
     f5c:	6c00008e 	stcvs	0, cr0, [r0], {142}	; 0x8e
     f60:	0100008e 	smlabbeq	r0, lr, r0, r0
     f64:	8e6c5300 	cdphi	3, 6, cr5, cr12, cr0, {0}
     f68:	8e700000 	cdphi	0, 7, cr0, cr0, cr0, {0}
     f6c:	00070000 	andeq	r0, r7, r0
     f70:	000a0073 	andeq	r0, sl, r3, ror r0
     f74:	709f2110 	addsvc	r2, pc, r0, lsl r1	; <UNPREDICTABLE>
     f78:	7800008e 	stmdavc	r0, {r1, r2, r3, r7}
     f7c:	0100008e 	smlabbeq	r0, lr, r0, r0
     f80:	00005300 	andeq	r5, r0, r0, lsl #6
     f84:	00000000 	andeq	r0, r0, r0
     f88:	01000000 	mrseq	r0, (UNDEF: 0)
     f8c:	00000001 	andeq	r0, r0, r1
     f90:	0000000c 	andeq	r0, r0, ip
     f94:	00000014 	andeq	r0, r0, r4, lsl r0
     f98:	14530001 	ldrbne	r0, [r3], #-1
     f9c:	1c000000 	stcne	0, cr0, [r0], {-0}
     fa0:	03000000 	movweq	r0, #0
     fa4:	9f047300 	svcls	0x00047300
     fa8:	0000001c 	andeq	r0, r0, ip, lsl r0
     fac:	00000023 	andeq	r0, r0, r3, lsr #32
     fb0:	00530001 	subseq	r0, r3, r1
     fb4:	00000000 	andeq	r0, r0, r0
     fb8:	01000000 	mrseq	r0, (UNDEF: 0)
     fbc:	008f4000 	addeq	r4, pc, r0
     fc0:	008f5c00 	addeq	r5, pc, r0, lsl #24
     fc4:	0c000600 	stceq	6, cr0, [r0], {-0}
     fc8:	2010001c 	andscs	r0, r0, ip, lsl r0
     fcc:	0000009f 	muleq	r0, pc, r0	; <UNPREDICTABLE>
     fd0:	00000000 	andeq	r0, r0, r0
     fd4:	40000200 	andmi	r0, r0, r0, lsl #4
     fd8:	5c00008f 	stcpl	0, cr0, [r0], {143}	; 0x8f
     fdc:	0600008f 	streq	r0, [r0], -pc, lsl #1
     fe0:	00240c00 	eoreq	r0, r4, r0, lsl #24
     fe4:	009f2010 	addseq	r2, pc, r0, lsl r0	; <UNPREDICTABLE>
     fe8:	00000000 	andeq	r0, r0, r0
     fec:	03000000 	movweq	r0, #0
     ff0:	008f4000 	addeq	r4, pc, r0
     ff4:	008f5c00 	addeq	r5, pc, r0, lsl #24
     ff8:	08000500 	stmdaeq	r0, {r8, sl}
     ffc:	9f2447b4 	svcls	0x002447b4
	...
    1008:	8f400004 	svchi	0x00400004
    100c:	8f5c0000 	svchi	0x005c0000
    1010:	00030000 	andeq	r0, r3, r0
    1014:	009f2008 	addseq	r2, pc, r8
    1018:	00000000 	andeq	r0, r0, r0
    101c:	02000000 	andeq	r0, r0, #0, 0
    1020:	00000000 	andeq	r0, r0, r0
    1024:	008f0c00 	addeq	r0, pc, r0, lsl #24
    1028:	008f1000 	addeq	r1, pc, r0
    102c:	30000200 	andcc	r0, r0, r0, lsl #4
    1030:	008f109f 	umulleq	r1, pc, pc, r0	; <UNPREDICTABLE>
    1034:	008f1400 	addeq	r1, pc, r0, lsl #8
    1038:	53000100 	movwpl	r0, #256	; 0x100
    103c:	00008f18 	andeq	r8, r0, r8, lsl pc
    1040:	00008f20 	andeq	r8, r0, r0, lsr #30
    1044:	00530001 	subseq	r0, r3, r1
    1048:	00000000 	andeq	r0, r0, r0
    104c:	02000000 	andeq	r0, r0, #0, 0
    1050:	f4000000 	vst4.8	{d0-d3}, [r0], r0
    1054:	f800008e 			; <UNDEFINED> instruction: 0xf800008e
    1058:	0200008e 	andeq	r0, r0, #142, 0	; 0x8e
    105c:	f89f3000 			; <UNDEFINED> instruction: 0xf89f3000
    1060:	fc00008e 	stc2	0, cr0, [r0], {142}	; 0x8e
    1064:	0100008e 	smlabbeq	r0, lr, r0, r0
    1068:	00005000 	andeq	r5, r0, r0
	...
    1074:	006c0000 	rsbeq	r0, ip, r0
    1078:	00780000 	rsbseq	r0, r8, r0
    107c:	00010000 	andeq	r0, r1, r0
    1080:	00007850 	andeq	r7, r0, r0, asr r8
    1084:	00008400 	andeq	r8, r0, r0, lsl #8
    1088:	f3000400 	vshl.u8	d0, d0, d0
    108c:	009f5001 	addseq	r5, pc, r1
	...
    1098:	54000000 	strpl	r0, [r0], #-0
    109c:	60000000 	andvs	r0, r0, r0
    10a0:	01000000 	mrseq	r0, (UNDEF: 0)
    10a4:	00605000 	rsbeq	r5, r0, r0
    10a8:	006c0000 	rsbeq	r0, ip, r0
    10ac:	00040000 	andeq	r0, r4, r0
    10b0:	9f5001f3 	svcls	0x005001f3
	...
    10c0:	00000030 	andeq	r0, r0, r0, lsr r0
    10c4:	0000003b 	andeq	r0, r0, fp, lsr r0
    10c8:	3b500001 	blcc	14010d4 <__bss_end__+0x13f6ffc>
    10cc:	54000000 	strpl	r0, [r0], #-0
    10d0:	01000000 	mrseq	r0, (UNDEF: 0)
    10d4:	00005500 	andeq	r5, r0, r0, lsl #10
	...
    10e0:	00000040 	andeq	r0, r0, r0, asr #32
    10e4:	00000054 	andeq	r0, r0, r4, asr r0
    10e8:	00540001 	subseq	r0, r4, r1
	...
    10f4:	00004400 	andeq	r4, r0, r0, lsl #8
    10f8:	00004800 	andeq	r4, r0, r0, lsl #16
    10fc:	50000100 	andpl	r0, r0, r0, lsl #2
	...
    110c:	00000024 	andeq	r0, r0, r4, lsr #32
    1110:	00000027 	andeq	r0, r0, r7, lsr #32
    1114:	27500001 	ldrbcs	r0, [r0, -r1]
    1118:	30000000 	andcc	r0, r0, r0
    111c:	01000000 	mrseq	r0, (UNDEF: 0)
    1120:	00005400 	andeq	r5, r0, r0, lsl #8
	...
    112c:	01580000 	cmpeq	r8, r0
    1130:	01630000 	cmneq	r3, r0
    1134:	00010000 	andeq	r0, r1, r0
    1138:	00016350 	andeq	r6, r1, r0, asr r3
    113c:	00018800 	andeq	r8, r1, r0, lsl #16
    1140:	54000100 	strpl	r0, [r0], #-256	; 0xffffff00
	...
    114c:	01480000 	mrseq	r0, (UNDEF: 72)
    1150:	01580000 	cmpeq	r8, r0
    1154:	00010000 	andeq	r0, r1, r0
    1158:	00000054 	andeq	r0, r0, r4, asr r0
	...
    1168:	00000f00 	andeq	r0, r0, r0, lsl #30
    116c:	50000100 	andpl	r0, r0, r0, lsl #2
    1170:	0000000f 	andeq	r0, r0, pc
    1174:	00000020 	andeq	r0, r0, r0, lsr #32
    1178:	00540001 	subseq	r0, r4, r1
	...
    1188:	0f000000 	svceq	0x00000000
    118c:	01000000 	mrseq	r0, (UNDEF: 0)
    1190:	000f5100 	andeq	r5, pc, r0, lsl #2
    1194:	00200000 	eoreq	r0, r0, r0
    1198:	00010000 	andeq	r0, r1, r0
    119c:	00000055 	andeq	r0, r0, r5, asr r0
	...
    11a8:	00002000 	andeq	r2, r0, r0
    11ac:	00002f00 	andeq	r2, r0, r0, lsl #30
    11b0:	50000100 	andpl	r0, r0, r0, lsl #2
    11b4:	0000002f 	andeq	r0, r0, pc, lsr #32
    11b8:	00000040 	andeq	r0, r0, r0, asr #32
    11bc:	00540001 	subseq	r0, r4, r1
	...
    11c8:	20000000 	andcs	r0, r0, r0
    11cc:	2f000000 	svccs	0x00000000
    11d0:	01000000 	mrseq	r0, (UNDEF: 0)
    11d4:	002f5100 	eoreq	r5, pc, r0, lsl #2
    11d8:	00400000 	subeq	r0, r0, r0
    11dc:	00010000 	andeq	r0, r1, r0
    11e0:	00000055 	andeq	r0, r0, r5, asr r0
	...
    11ec:	50000000 	andpl	r0, r0, r0
    11f0:	98000003 	stmdals	r0, {r0, r1}
    11f4:	01000003 	tsteq	r0, r3
    11f8:	03985000 	orrseq	r5, r8, #0, 0
    11fc:	039b0000 	orrseq	r0, fp, #0, 0
    1200:	00020000 	andeq	r0, r2, r0
    1204:	039b6891 	orrseq	r6, fp, #9502720	; 0x910000
    1208:	03b00000 	movseq	r0, #0, 0
    120c:	00040000 	andeq	r0, r4, r0
    1210:	9f5001f3 	svcls	0x005001f3
	...
    1230:	00000220 	andeq	r0, r0, r0, lsr #4
    1234:	0000027b 	andeq	r0, r0, fp, ror r2
    1238:	7b500001 	blvc	1401244 <__bss_end__+0x13f716c>
    123c:	84000002 	strhi	r0, [r0], #-2
    1240:	04000002 	streq	r0, [r0], #-2
    1244:	5001f300 	andpl	pc, r1, r0, lsl #6
    1248:	0002849f 	muleq	r2, pc, r4	; <UNPREDICTABLE>
    124c:	00029c00 	andeq	r9, r2, r0, lsl #24
    1250:	50000100 	andpl	r0, r0, r0, lsl #2
    1254:	0000029c 	muleq	r0, ip, r2
    1258:	000002a4 	andeq	r0, r0, r4, lsr #5
    125c:	01f30004 	mvnseq	r0, r4
    1260:	02a49f50 	adceq	r9, r4, #80, 30	; 0x140
    1264:	02a70000 	adceq	r0, r7, #0, 0
    1268:	00010000 	andeq	r0, r1, r0
    126c:	0002a750 	andeq	sl, r2, r0, asr r7
    1270:	0002c800 	andeq	ip, r2, r0, lsl #16
    1274:	f3000400 	vshl.u8	d0, d0, d0
    1278:	c89f5001 	ldmgt	pc, {r0, ip, lr}	; <UNPREDICTABLE>
    127c:	e0000002 	and	r0, r0, r2
    1280:	01000002 	tsteq	r0, r2
    1284:	02e05000 	rsceq	r5, r0, #0, 0
    1288:	02e80000 	rsceq	r0, r8, #0, 0
    128c:	00040000 	andeq	r0, r4, r0
    1290:	9f5001f3 	svcls	0x005001f3
    1294:	000002e8 	andeq	r0, r0, r8, ror #5
    1298:	000002eb 	andeq	r0, r0, fp, ror #5
    129c:	eb500001 	bl	14012a8 <__bss_end__+0x13f71d0>
    12a0:	38000002 	stmdacc	r0, {r1}
    12a4:	04000003 	streq	r0, [r0], #-3
    12a8:	5001f300 	andpl	pc, r1, r0, lsl #6
    12ac:	0000009f 	muleq	r0, pc, r0	; <UNPREDICTABLE>
	...
    12c8:	00022000 	andeq	r2, r2, r0
    12cc:	00024400 	andeq	r4, r2, r0, lsl #8
    12d0:	51000100 	mrspl	r0, (UNDEF: 16)
    12d4:	00000244 	andeq	r0, r0, r4, asr #4
    12d8:	00000268 	andeq	r0, r0, r8, ror #4
    12dc:	68510001 	ldmdavs	r1, {r0}^
    12e0:	7b000002 	blvc	12f0 <__code_start__-0x6d10>
    12e4:	03000002 	movweq	r0, #2
    12e8:	9f017100 	svcls	0x00017100
    12ec:	0000027b 	andeq	r0, r0, fp, ror r2
    12f0:	00000284 	andeq	r0, r0, r4, lsl #5
    12f4:	f3380017 	vqadd.u64	d0, d8, d7
    12f8:	01f35101 	mvnseq	r5, r1, lsl #2
    12fc:	244b4051 	strbcs	r4, [fp], #-81	; 0xffffffaf
    1300:	00080c22 	andeq	r0, r8, r2, lsr #24
    1304:	282d8000 	stmdacs	sp!, {pc}
    1308:	13160001 	tstne	r6, #1, 0
    130c:	0002849f 	muleq	r2, pc, r4	; <UNPREDICTABLE>
    1310:	00029800 	andeq	r9, r2, r0, lsl #16
    1314:	51000100 	mrspl	r0, (UNDEF: 16)
    1318:	00000298 	muleq	r0, r8, r2
    131c:	000002a4 	andeq	r0, r0, r4, lsr #5
    1320:	01f30004 	mvnseq	r0, r4
    1324:	02a49f51 	adceq	r9, r4, #324	; 0x144
    1328:	02a70000 	adceq	r0, r7, #0, 0
    132c:	00010000 	andeq	r0, r1, r0
    1330:	0002a751 	andeq	sl, r2, r1, asr r7
    1334:	0002c800 	andeq	ip, r2, r0, lsl #16
    1338:	f3000400 	vshl.u8	d0, d0, d0
    133c:	c89f5101 	ldmgt	pc, {r0, r8, ip, lr}	; <UNPREDICTABLE>
    1340:	dc000002 	stcle	0, cr0, [r0], {2}
    1344:	01000002 	tsteq	r0, r2
    1348:	02dc5100 	sbcseq	r5, ip, #0
    134c:	03380000 	teqeq	r8, #0, 0
    1350:	00170000 	andseq	r0, r7, r0
    1354:	5101f338 	tstpl	r1, r8, lsr r3	; <UNPREDICTABLE>
    1358:	405101f3 	ldrshmi	r0, [r1], #-19	; 0xffffffed
    135c:	0c22244b 	cfstrseq	mvf2, [r2], #-300	; 0xfffffed4
    1360:	80000008 	andhi	r0, r0, r8
    1364:	0001282d 	andeq	r2, r1, sp, lsr #16
    1368:	009f1316 	addseq	r1, pc, r6, lsl r3	; <UNPREDICTABLE>
	...
    137c:	4c000000 	stcmi	0, cr0, [r0], {-0}
    1380:	5c000002 	stcpl	0, cr0, [r0], {2}
    1384:	01000002 	tsteq	r0, r2
    1388:	025c5200 	subseq	r5, ip, #0, 4
    138c:	02640000 	rsbeq	r0, r4, #0, 0
    1390:	00050000 	andeq	r0, r5, r0
    1394:	009cc403 	addseq	ip, ip, r3, lsl #8
    1398:	00026400 	andeq	r6, r2, r0, lsl #8
    139c:	00027b00 	andeq	r7, r2, r0, lsl #22
    13a0:	53000100 	movwpl	r0, #256	; 0x100
    13a4:	000002c8 	andeq	r0, r0, r8, asr #5
    13a8:	000002d8 	ldrdeq	r0, [r0], -r8
    13ac:	d8520001 	ldmdale	r2, {r0}^
    13b0:	e3000002 	movw	r0, #2
    13b4:	05000002 	streq	r0, [r0, #-2]
    13b8:	9cc40300 	stclls	3, cr0, [r4], {0}
    13bc:	02e80000 	rsceq	r0, r8, #0, 0
    13c0:	02eb0000 	rsceq	r0, fp, #0, 0
    13c4:	00010000 	andeq	r0, r1, r0
    13c8:	00000053 	andeq	r0, r0, r3, asr r0
    13cc:	00000000 	andeq	r0, r0, r0
    13d0:	30000400 	andcc	r0, r0, r0, lsl #8
    13d4:	34000002 	strcc	r0, [r0], #-2
    13d8:	01000002 	tsteq	r0, r2
    13dc:	00005100 	andeq	r5, r0, r0, lsl #2
    13e0:	00000000 	andeq	r0, r0, r0
    13e4:	00020000 	andeq	r0, r2, r0
    13e8:	0000023c 	andeq	r0, r0, ip, lsr r2
    13ec:	00000244 	andeq	r0, r0, r4, asr #4
    13f0:	9f380002 	svcls	0x00380002
	...
    13fc:	023c0002 	eorseq	r0, ip, #2, 0
    1400:	02440000 	subeq	r0, r4, #0, 0
    1404:	00010000 	andeq	r0, r1, r0
    1408:	00000051 	andeq	r0, r0, r1, asr r0
    140c:	00000000 	andeq	r0, r0, r0
    1410:	00000100 	andeq	r0, r0, r0, lsl #2
    1414:	4c000000 	stcmi	0, cr0, [r0], {-0}
    1418:	64000002 	strvs	r0, [r0], #-2
    141c:	01000002 	tsteq	r0, r2
    1420:	02c85100 	sbceq	r5, r8, #0
    1424:	02dc0000 	sbcseq	r0, ip, #0, 0
    1428:	00010000 	andeq	r0, r1, r0
    142c:	0002dc51 	andeq	sp, r2, r1, asr ip
    1430:	0002e800 	andeq	lr, r2, r0, lsl #16
    1434:	38001700 	stmdacc	r0, {r8, r9, sl, ip}
    1438:	f35101f3 	vbsl	q8, <illegal reg q8.5>, <illegal reg q9.5>
    143c:	4b405101 	blmi	1015848 <__bss_end__+0x100b770>
    1440:	080c2224 	stmdaeq	ip, {r2, r5, r9, sp}
    1444:	2d800000 	stccs	0, cr0, [r0]
    1448:	16000128 	strne	r0, [r0], -r8, lsr #2
    144c:	00009f13 	andeq	r9, r0, r3, lsl pc
    1450:	00000000 	andeq	r0, r0, r0
    1454:	00010000 	andeq	r0, r1, r0
    1458:	00000000 	andeq	r0, r0, r0
    145c:	024c0000 	subeq	r0, ip, #0, 0
    1460:	025c0000 	subseq	r0, ip, #0, 0
    1464:	00010000 	andeq	r0, r1, r0
    1468:	00025c52 	andeq	r5, r2, r2, asr ip
    146c:	00026400 	andeq	r6, r2, r0, lsl #8
    1470:	03000500 	movweq	r0, #1280	; 0x500
    1474:	00009cc4 	andeq	r9, r0, r4, asr #25
    1478:	000002c8 	andeq	r0, r0, r8, asr #5
    147c:	000002d8 	ldrdeq	r0, [r0], -r8
    1480:	d8520001 	ldmdale	r2, {r0}^
    1484:	e3000002 	movw	r0, #2
    1488:	05000002 	streq	r0, [r0, #-2]
    148c:	9cc40300 	stclls	3, cr0, [r4], {0}
	...
    1498:	00040000 	andeq	r0, r4, r0
    149c:	0000024c 	andeq	r0, r0, ip, asr #4
    14a0:	00000250 	andeq	r0, r0, r0, asr r2
    14a4:	00510001 	subseq	r0, r1, r1
    14a8:	00000000 	andeq	r0, r0, r0
    14ac:	03000000 	movweq	r0, #0
    14b0:	00026400 	andeq	r6, r2, r0, lsl #8
    14b4:	00026800 	andeq	r6, r2, r0, lsl #16
    14b8:	51000100 	mrspl	r0, (UNDEF: 16)
	...
    14c4:	02640003 	rsbeq	r0, r4, #3, 0
    14c8:	02680000 	rsbeq	r0, r8, #0, 0
    14cc:	00010000 	andeq	r0, r1, r0
    14d0:	00000053 	andeq	r0, r0, r3, asr r0
	...
    14e0:	0001bc00 	andeq	fp, r1, r0, lsl #24
    14e4:	0001d300 	andeq	sp, r1, r0, lsl #6
    14e8:	50000100 	andpl	r0, r0, r0, lsl #2
    14ec:	000001d3 	ldrdeq	r0, [r0], -r3
    14f0:	000001f0 	strdeq	r0, [r0], -r0	; <UNPREDICTABLE>
    14f4:	f0540001 			; <UNDEFINED> instruction: 0xf0540001
    14f8:	08000001 	stmdaeq	r0, {r0}
    14fc:	01000002 	tsteq	r0, r2
    1500:	02085000 	andeq	r5, r8, #0, 0
    1504:	02200000 	eoreq	r0, r0, #0, 0
    1508:	00010000 	andeq	r0, r1, r0
    150c:	00000054 	andeq	r0, r0, r4, asr r0
	...
    1518:	0001d800 	andeq	sp, r1, r0, lsl #16
    151c:	0001e300 	andeq	lr, r1, r0, lsl #6
    1520:	50000100 	andpl	r0, r0, r0, lsl #2
    1524:	000001e3 	andeq	r0, r0, r3, ror #3
    1528:	000001f0 	strdeq	r0, [r0], -r0	; <UNPREDICTABLE>
    152c:	00550001 	subseq	r0, r5, r1
	...
    1544:	24000000 	strcs	r0, [r0], #-0
    1548:	38000001 	stmdacc	r0, {r0}
    154c:	01000001 	tsteq	r0, r1
    1550:	01385000 	teqeq	r8, r0
    1554:	013c0000 	teqeq	ip, r0
    1558:	00030000 	andeq	r0, r3, r0
    155c:	3c9f7970 			; <UNDEFINED> instruction: 0x3c9f7970
    1560:	60000001 	andvs	r0, r0, r1
    1564:	01000001 	tsteq	r0, r1
    1568:	01605300 	cmneq	r0, r0, lsl #6
    156c:	01780000 	cmneq	r8, r0
    1570:	00010000 	andeq	r0, r1, r0
    1574:	00017850 	andeq	r7, r1, r0, asr r8
    1578:	00018000 	andeq	r8, r1, r0
    157c:	f3000400 	vshl.u8	d0, d0, d0
    1580:	809f5001 	addshi	r5, pc, r1
    1584:	90000001 	andls	r0, r0, r1
    1588:	01000001 	tsteq	r0, r1
    158c:	01905300 	orrseq	r5, r0, r0, lsl #6
    1590:	019f0000 	orrseq	r0, pc, r0
    1594:	00020000 	andeq	r0, r2, r0
    1598:	019f6891 			; <UNDEFINED> instruction: 0x019f6891
    159c:	01bc0000 			; <UNDEFINED> instruction: 0x01bc0000
    15a0:	00090000 	andeq	r0, r9, r0
    15a4:	235001f3 	cmpcs	r0, #-1073741764	; 0xc000003c
    15a8:	1af80907 	bne	ffe039cc <__bss_end__+0xffdf98f4>
    15ac:	0000009f 	muleq	r0, pc, r0	; <UNPREDICTABLE>
	...
    15b8:	00014400 	andeq	r4, r1, r0, lsl #8
    15bc:	00016000 	andeq	r6, r1, r0
    15c0:	50000100 	andpl	r0, r0, r0, lsl #2
    15c4:	00000180 	andeq	r0, r0, r0, lsl #3
    15c8:	0000019c 	muleq	r0, ip, r1
    15cc:	00500001 	subseq	r0, r0, r1
    15d0:	00000000 	andeq	r0, r0, r0
    15d4:	03000000 	movweq	r0, #0
    15d8:	00013400 	andeq	r3, r1, r0, lsl #8
    15dc:	00013c00 	andeq	r3, r1, r0, lsl #24
    15e0:	38000200 	stmdacc	r0, {r9}
    15e4:	0000009f 	muleq	r0, pc, r0	; <UNPREDICTABLE>
    15e8:	00000000 	andeq	r0, r0, r0
    15ec:	00000300 	andeq	r0, r0, r0, lsl #6
    15f0:	00013400 	andeq	r3, r1, r0, lsl #8
    15f4:	00013800 	andeq	r3, r1, r0, lsl #16
    15f8:	50000100 	andpl	r0, r0, r0, lsl #2
    15fc:	00000138 	andeq	r0, r0, r8, lsr r1
    1600:	0000013c 	andeq	r0, r0, ip, lsr r1
    1604:	79700003 	ldmdbvc	r0!, {r0, r1}^
    1608:	0000009f 	muleq	r0, pc, r0	; <UNPREDICTABLE>
	...
    161c:	30000000 	andcc	r0, r0, r0
    1620:	60000000 	andvs	r0, r0, r0
    1624:	01000000 	mrseq	r0, (UNDEF: 0)
    1628:	00605000 	rsbeq	r5, r0, r0
    162c:	006c0000 	rsbeq	r0, ip, r0
    1630:	00050000 	andeq	r0, r5, r0
    1634:	009cc403 	addseq	ip, ip, r3, lsl #8
    1638:	00006c00 	andeq	r6, r0, r0, lsl #24
    163c:	00008400 	andeq	r8, r0, r0, lsl #8
    1640:	50000100 	andpl	r0, r0, r0, lsl #2
    1644:	00000084 	andeq	r0, r0, r4, lsl #1
    1648:	0000008c 	andeq	r0, r0, ip, lsl #1
    164c:	01f30004 	mvnseq	r0, r4
    1650:	008c9f50 	addeq	r9, ip, r0, asr pc
    1654:	00ac0000 	adceq	r0, ip, r0
    1658:	00010000 	andeq	r0, r1, r0
    165c:	0000ac50 	andeq	sl, r0, r0, asr ip
    1660:	0000af00 	andeq	sl, r0, r0, lsl #30
    1664:	91000200 	mrsls	r0, R8_usr
    1668:	0000af68 	andeq	sl, r0, r8, ror #30
    166c:	0000cc00 	andeq	ip, r0, r0, lsl #24
    1670:	f3000400 	vshl.u8	d0, d0, d0
    1674:	009f5001 	addseq	r5, pc, r1
	...
    1684:	30000000 	andcc	r0, r0, r0
    1688:	80000000 	andhi	r0, r0, r0
    168c:	01000000 	mrseq	r0, (UNDEF: 0)
    1690:	00805100 	addeq	r5, r0, r0, lsl #2
    1694:	008c0000 	addeq	r0, ip, r0
    1698:	00040000 	andeq	r0, r4, r0
    169c:	9f5101f3 	svcls	0x005101f3
    16a0:	0000008c 	andeq	r0, r0, ip, lsl #1
    16a4:	000000a8 	andeq	r0, r0, r8, lsr #1
    16a8:	a8510001 	ldmdage	r1, {r0}^
    16ac:	cc000000 	stcgt	0, cr0, [r0], {-0}
    16b0:	04000000 	streq	r0, [r0], #-0
    16b4:	5101f300 	mrspl	pc, SP_irq	; <UNPREDICTABLE>
    16b8:	0000009f 	muleq	r0, pc, r0	; <UNPREDICTABLE>
    16bc:	00000000 	andeq	r0, r0, r0
    16c0:	00000100 	andeq	r0, r0, r0, lsl #2
	...
    16cc:	38000000 	stmdacc	r0, {}	; <UNPREDICTABLE>
    16d0:	60000000 	andvs	r0, r0, r0
    16d4:	01000000 	mrseq	r0, (UNDEF: 0)
    16d8:	00605000 	rsbeq	r5, r0, r0
    16dc:	006c0000 	rsbeq	r0, ip, r0
    16e0:	00050000 	andeq	r0, r5, r0
    16e4:	009cc403 	addseq	ip, ip, r3, lsl #8
    16e8:	00006c00 	andeq	r6, r0, r0, lsl #24
    16ec:	00008400 	andeq	r8, r0, r0, lsl #8
    16f0:	50000100 	andpl	r0, r0, r0, lsl #2
    16f4:	00000084 	andeq	r0, r0, r4, lsl #1
    16f8:	0000008c 	andeq	r0, r0, ip, lsl #1
    16fc:	01f30004 	mvnseq	r0, r4
    1700:	008c9f50 	addeq	r9, ip, r0, asr pc
    1704:	00ac0000 	adceq	r0, ip, r0
    1708:	00010000 	andeq	r0, r1, r0
    170c:	0000ac50 	andeq	sl, r0, r0, asr ip
    1710:	0000af00 	andeq	sl, r0, r0, lsl #30
    1714:	91000200 	mrsls	r0, R8_usr
    1718:	0000af68 	andeq	sl, r0, r8, ror #30
    171c:	0000cc00 	andeq	ip, r0, r0, lsl #24
    1720:	f3000400 	vshl.u8	d0, d0, d0
    1724:	009f5001 	addseq	r5, pc, r1
	...
    1734:	04000000 	streq	r0, [r0], #-0
    1738:	01000000 	mrseq	r0, (UNDEF: 0)
    173c:	00045200 	andeq	r5, r4, r0, lsl #4
    1740:	00180000 	andseq	r0, r8, r0
    1744:	00040000 	andeq	r0, r4, r0
    1748:	9f5201f3 	svcls	0x005201f3
	...
    1754:	01000002 	tsteq	r0, r2
    1758:	00000001 	andeq	r0, r0, r1
    175c:	00000000 	andeq	r0, r0, r0
    1760:	00000008 	andeq	r0, r0, r8
    1764:	08500001 	ldmdaeq	r0, {r0}^
    1768:	10000000 	andne	r0, r0, r0
    176c:	01000000 	mrseq	r0, (UNDEF: 0)
    1770:	00105300 	andseq	r5, r0, r0, lsl #6
    1774:	00140000 	andseq	r0, r4, r0
    1778:	00030000 	andeq	r0, r3, r0
    177c:	149f0173 	ldrne	r0, [pc], #371	; 1784 <__code_start__-0x687c>
    1780:	18000000 	stmdane	r0, {}	; <UNPREDICTABLE>
    1784:	01000000 	mrseq	r0, (UNDEF: 0)
    1788:	00005300 	andeq	r5, r0, r0, lsl #6
	...
    1794:	00000004 	andeq	r0, r0, r4
    1798:	00000018 	andeq	r0, r0, r8, lsl r0
    179c:	00520001 	subseq	r0, r2, r1
	...
    17ac:	1c000000 	stcne	0, cr0, [r0], {-0}
    17b0:	01000000 	mrseq	r0, (UNDEF: 0)
    17b4:	001c5100 	andseq	r5, ip, r0, lsl #2
    17b8:	00340000 	eorseq	r0, r4, r0
    17bc:	00040000 	andeq	r0, r4, r0
    17c0:	9f5101f3 	svcls	0x005101f3
	...
    17cc:	00000002 	andeq	r0, r0, r2
    17d0:	00010100 	andeq	r0, r1, r0, lsl #2
    17d4:	00000000 	andeq	r0, r0, r0
    17d8:	00040000 	andeq	r0, r4, r0
    17dc:	00010000 	andeq	r0, r1, r0
    17e0:	00000450 	andeq	r0, r0, r0, asr r4
    17e4:	00001c00 	andeq	r1, r0, r0, lsl #24
    17e8:	52000100 	andpl	r0, r0, #0
    17ec:	0000001c 	andeq	r0, r0, ip, lsl r0
    17f0:	00000024 	andeq	r0, r0, r4, lsr #32
    17f4:	24530001 	ldrbcs	r0, [r3], #-1
    17f8:	28000000 	stmdacs	r0, {}	; <UNPREDICTABLE>
    17fc:	03000000 	movweq	r0, #0
    1800:	9f017300 	svcls	0x00017300
    1804:	00000028 	andeq	r0, r0, r8, lsr #32
    1808:	00000034 	andeq	r0, r0, r4, lsr r0
    180c:	00530001 	subseq	r0, r3, r1
    1810:	00000000 	andeq	r0, r0, r0
    1814:	03000000 	movweq	r0, #0
    1818:	00000000 	andeq	r0, r0, r0
    181c:	24000000 	strcs	r0, [r0], #-0
    1820:	01000000 	mrseq	r0, (UNDEF: 0)
    1824:	00245100 	eoreq	r5, r4, r0, lsl #2
    1828:	00340000 	eorseq	r0, r4, r0
    182c:	00030000 	andeq	r0, r3, r0
    1830:	009f7f71 	addseq	r7, pc, r1, ror pc	; <UNPREDICTABLE>
	...
    183c:	10000000 	andne	r0, r0, r0
    1840:	1c000000 	stcne	0, cr0, [r0], {-0}
    1844:	01000000 	mrseq	r0, (UNDEF: 0)
    1848:	00245c00 	eoreq	r5, r4, r0, lsl #24
    184c:	00340000 	eorseq	r0, r4, r0
    1850:	00010000 	andeq	r0, r1, r0
    1854:	00000052 	andeq	r0, r0, r2, asr r0
	...
    1864:	00001800 	andeq	r1, r0, r0, lsl #16
    1868:	50000100 	andpl	r0, r0, r0, lsl #2
    186c:	00000018 	andeq	r0, r0, r8, lsl r0
    1870:	00000024 	andeq	r0, r0, r4, lsr #32
    1874:	00500001 	subseq	r0, r0, r1
	...
    1884:	1c000000 	stcne	0, cr0, [r0], {-0}
    1888:	01000000 	mrseq	r0, (UNDEF: 0)
    188c:	001c5100 	andseq	r5, ip, r0, lsl #2
    1890:	002c0000 	eoreq	r0, ip, r0
    1894:	00010000 	andeq	r0, r1, r0
    1898:	00000051 	andeq	r0, r0, r1, asr r0
	...
    18a8:	04000000 	streq	r0, [r0], #-0
    18ac:	01000000 	mrseq	r0, (UNDEF: 0)
    18b0:	00045100 	andeq	r5, r4, r0, lsl #2
    18b4:	000c0000 	andeq	r0, ip, r0
    18b8:	00010000 	andeq	r0, r1, r0
    18bc:	00000c51 	andeq	r0, r0, r1, asr ip
    18c0:	00002000 	andeq	r2, r0, r0
    18c4:	71000300 	mrsvc	r0, LR_irq
    18c8:	00009f7f 	andeq	r9, r0, pc, ror pc
    18cc:	00000000 	andeq	r0, r0, r0
    18d0:	00020000 	andeq	r0, r2, r0
	...
    18dc:	00000004 	andeq	r0, r0, r4
    18e0:	04500001 	ldrbeq	r0, [r0], #-1
    18e4:	14000000 	strne	r0, [r0], #-0
    18e8:	01000000 	mrseq	r0, (UNDEF: 0)
    18ec:	00145c00 	andseq	r5, r4, r0, lsl #24
    18f0:	00200000 	eoreq	r0, r0, r0
    18f4:	00030000 	andeq	r0, r3, r0
    18f8:	009f7f7c 	addseq	r7, pc, ip, ror pc	; <UNPREDICTABLE>
	...
    1904:	30000303 	andcc	r0, r0, r3, lsl #6
    1908:	30000096 	mulcc	r0, r6, r0
    190c:	01000096 	swpeq	r0, r6, [r0]	; <UNPREDICTABLE>
    1910:	96305000 	ldrtls	r5, [r0], -r0
    1914:	965c0000 	ldrbls	r0, [ip], -r0
    1918:	00040000 	andeq	r0, r4, r0
    191c:	9f5001f3 	svcls	0x005001f3
	...
    1928:	00030300 	andeq	r0, r3, r0, lsl #6
    192c:	00009630 	andeq	r9, r0, r0, lsr r6
    1930:	00009630 	andeq	r9, r0, r0, lsr r6
    1934:	30510001 	subscc	r0, r1, r1
    1938:	5c000096 	stcpl	0, cr0, [r0], {150}	; 0x96
    193c:	04000096 	streq	r0, [r0], #-150	; 0xffffff6a
    1940:	5101f300 	mrspl	pc, SP_irq	; <UNPREDICTABLE>
    1944:	0000009f 	muleq	r0, pc, r0	; <UNPREDICTABLE>
    1948:	00000000 	andeq	r0, r0, r0
    194c:	03030000 	movweq	r0, #12288	; 0x3000
    1950:	30000000 	andcc	r0, r0, r0
    1954:	30000096 	mulcc	r0, r6, r0
    1958:	01000096 	swpeq	r0, r6, [r0]	; <UNPREDICTABLE>
    195c:	96305200 	ldrtls	r5, [r0], -r0, lsl #4
    1960:	96380000 	ldrtls	r0, [r8], -r0
    1964:	00010000 	andeq	r0, r1, r0
    1968:	00963852 	addseq	r3, r6, r2, asr r8
    196c:	00965c00 	addseq	r5, r6, r0, lsl #24
    1970:	72000300 	andvc	r0, r0, #0, 6
    1974:	00009f01 	andeq	r9, r0, r1, lsl #30
    1978:	00000000 	andeq	r0, r0, r0
    197c:	01020000 	mrseq	r0, (UNDEF: 2)
    1980:	00000001 	andeq	r0, r0, r1
    1984:	96300000 	ldrtls	r0, [r0], -r0
    1988:	963c0000 	ldrtls	r0, [ip], -r0
    198c:	00010000 	andeq	r0, r1, r0
    1990:	00963c50 	addseq	r3, r6, r0, asr ip
    1994:	00964000 	addseq	r4, r6, r0
    1998:	70000300 	andvc	r0, r0, r0, lsl #6
    199c:	96409f01 	strbls	r9, [r0], -r1, lsl #30
    19a0:	96500000 	ldrbls	r0, [r0], -r0
    19a4:	00010000 	andeq	r0, r1, r0
    19a8:	00965450 	addseq	r5, r6, r0, asr r4
    19ac:	00965800 	addseq	r5, r6, r0, lsl #16
    19b0:	50000100 	andpl	r0, r0, r0, lsl #2
	...
    19bc:	00000002 	andeq	r0, r0, r2
    19c0:	96300000 	ldrtls	r0, [r0], -r0
    19c4:	96400000 	strbls	r0, [r0], -r0
    19c8:	00010000 	andeq	r0, r1, r0
    19cc:	00964051 	addseq	r4, r6, r1, asr r0
    19d0:	00964400 	addseq	r4, r6, r0, lsl #8
    19d4:	71000300 	mrsvc	r0, LR_irq
    19d8:	96449f01 	strbls	r9, [r4], -r1, lsl #30
    19dc:	965c0000 	ldrbls	r0, [ip], -r0
    19e0:	00010000 	andeq	r0, r1, r0
    19e4:	00000051 	andeq	r0, r0, r1, asr r0
	...
    19f4:	0000e800 	andeq	lr, r0, r0, lsl #16
    19f8:	00010000 	andeq	r0, r1, r0
    19fc:	50000100 	andpl	r0, r0, r0, lsl #2
    1a00:	00000100 	andeq	r0, r0, r0, lsl #2
    1a04:	00000110 	andeq	r0, r0, r0, lsl r1
    1a08:	01f30004 	mvnseq	r0, r4
    1a0c:	01109f50 	tsteq	r0, r0, asr pc
    1a10:	01140000 	tsteq	r4, r0
    1a14:	00010000 	andeq	r0, r1, r0
    1a18:	00011450 	andeq	r1, r1, r0, asr r4
    1a1c:	00011c00 	andeq	r1, r1, r0, lsl #24
    1a20:	f3000400 	vshl.u8	d0, d0, d0
    1a24:	009f5001 	addseq	r5, pc, r1
    1a28:	00000000 	andeq	r0, r0, r0
    1a2c:	01000000 	mrseq	r0, (UNDEF: 0)
    1a30:	00000000 	andeq	r0, r0, r0
    1a34:	0000f400 	andeq	pc, r0, r0, lsl #8
    1a38:	00010000 	andeq	r0, r1, r0
    1a3c:	70000b00 	andvc	r0, r0, r0, lsl #22
    1a40:	23253500 			; <UNDEFINED> instruction: 0x23253500
    1a44:	818080b4 	strhhi	r8, [r0, r4]
    1a48:	01009f02 	tsteq	r0, r2, lsl #30
    1a4c:	01030000 	mrseq	r0, (UNDEF: 3)
    1a50:	00010000 	andeq	r0, r1, r0
    1a54:	00010350 	andeq	r0, r1, r0, asr r3
    1a58:	00011000 	andeq	r1, r1, r0
    1a5c:	f3000c00 			; <UNDEFINED> instruction: 0xf3000c00
    1a60:	25355001 	ldrcs	r5, [r5, #-1]!
    1a64:	8080b423 	addhi	fp, r0, r3, lsr #8
    1a68:	009f0281 	addseq	r0, pc, r1, lsl #5
	...
    1a74:	0000f800 	andeq	pc, r0, r0, lsl #16
    1a78:	00011000 	andeq	r1, r1, r0
    1a7c:	54000100 	strpl	r0, [r0], #-256	; 0xffffff00
	...
    1a90:	000000cc 	andeq	r0, r0, ip, asr #1
    1a94:	000000db 	ldrdeq	r0, [r0], -fp
    1a98:	db500001 	blle	1401aa4 <__bss_end__+0x13f79cc>
    1a9c:	e0000000 	and	r0, r0, r0
    1aa0:	04000000 	streq	r0, [r0], #-0
    1aa4:	5001f300 	andpl	pc, r1, r0, lsl #6
    1aa8:	0000e09f 	muleq	r0, pc, r0	; <UNPREDICTABLE>
    1aac:	0000e300 	andeq	lr, r0, r0, lsl #6
    1ab0:	50000100 	andpl	r0, r0, r0, lsl #2
    1ab4:	000000e3 	andeq	r0, r0, r3, ror #1
    1ab8:	000000e8 	andeq	r0, r0, r8, ror #1
    1abc:	01f30004 	mvnseq	r0, r4
    1ac0:	00009f50 	andeq	r9, r0, r0, asr pc
	...
    1ad0:	00cc0000 	sbceq	r0, ip, r0
    1ad4:	00db0000 	sbcseq	r0, fp, r0
    1ad8:	00010000 	andeq	r0, r1, r0
    1adc:	0000db51 	andeq	sp, r0, r1, asr fp
    1ae0:	0000e000 	andeq	lr, r0, r0
    1ae4:	f3000400 	vshl.u8	d0, d0, d0
    1ae8:	e09f5101 	adds	r5, pc, r1, lsl #2
    1aec:	e3000000 	movw	r0, #0
    1af0:	01000000 	mrseq	r0, (UNDEF: 0)
    1af4:	00e35100 	rsceq	r5, r3, r0, lsl #2
    1af8:	00e80000 	rsceq	r0, r8, r0
    1afc:	00040000 	andeq	r0, r4, r0
    1b00:	9f5101f3 	svcls	0x005101f3
	...
    1b10:	000000bc 	strheq	r0, [r0], -ip
    1b14:	000000c7 	andeq	r0, r0, r7, asr #1
    1b18:	c7500001 	ldrbgt	r0, [r0, -r1]
    1b1c:	cc000000 	stcgt	0, cr0, [r0], {-0}
    1b20:	04000000 	streq	r0, [r0], #-0
    1b24:	5001f300 	andpl	pc, r1, r0, lsl #6
    1b28:	0000009f 	muleq	r0, pc, r0	; <UNPREDICTABLE>
	...
    1b34:	00009800 	andeq	r9, r0, r0, lsl #16
    1b38:	0000b000 	andeq	fp, r0, r0
    1b3c:	50000100 	andpl	r0, r0, r0, lsl #2
    1b40:	000000b0 	strheq	r0, [r0], -r0	; <UNPREDICTABLE>
    1b44:	000000bc 	strheq	r0, [r0], -ip
    1b48:	01f30004 	mvnseq	r0, r4
    1b4c:	00009f50 	andeq	r9, r0, r0, asr pc
	...
    1b58:	00740000 	rsbseq	r0, r4, r0
    1b5c:	008c0000 	addeq	r0, ip, r0
    1b60:	00010000 	andeq	r0, r1, r0
    1b64:	00008c50 	andeq	r8, r0, r0, asr ip
    1b68:	00009800 	andeq	r9, r0, r0, lsl #16
    1b6c:	f3000400 	vshl.u8	d0, d0, d0
    1b70:	009f5001 	addseq	r5, pc, r1
	...
    1b7c:	64000000 	strvs	r0, [r0], #-0
    1b80:	6f000000 	svcvs	0x00000000
    1b84:	01000000 	mrseq	r0, (UNDEF: 0)
    1b88:	006f5000 	rsbeq	r5, pc, r0
    1b8c:	00740000 	rsbseq	r0, r4, r0
    1b90:	00040000 	andeq	r0, r4, r0
    1b94:	9f5001f3 	svcls	0x005001f3
	...
    1ba8:	00000038 	andeq	r0, r0, r8, lsr r0
    1bac:	38500001 	ldmdacc	r0, {r0}^
    1bb0:	64000000 	strvs	r0, [r0], #-0
    1bb4:	04000000 	streq	r0, [r0], #-0
    1bb8:	5001f300 	andpl	pc, r1, r0, lsl #6
    1bbc:	0000009f 	muleq	r0, pc, r0	; <UNPREDICTABLE>
	...
    1bcc:	00004700 	andeq	r4, r0, r0, lsl #14
    1bd0:	51000100 	mrspl	r0, (UNDEF: 16)
    1bd4:	00000047 	andeq	r0, r0, r7, asr #32
    1bd8:	00000064 	andeq	r0, r0, r4, rrx
    1bdc:	01f30004 	mvnseq	r0, r4
    1be0:	00009f51 	andeq	r9, r0, r1, asr pc
	...
    1bec:	00000034 	andeq	r0, r0, r4, lsr r0
    1bf0:	00000064 	andeq	r0, r0, r4, rrx
    1bf4:	00540001 	subseq	r0, r4, r1
	...
    1c00:	00004000 	andeq	r4, r0, r0
    1c04:	00006400 	andeq	r6, r0, r0, lsl #8
    1c08:	56000100 	strpl	r0, [r0], -r0, lsl #2
	...
    1c14:	01000000 	mrseq	r0, (UNDEF: 0)
    1c18:	00000001 	andeq	r0, r0, r1
    1c1c:	00000048 	andeq	r0, r0, r8, asr #32
    1c20:	00000050 	andeq	r0, r0, r0, asr r0
    1c24:	50500001 	subspl	r0, r0, r1
    1c28:	50000000 	andpl	r0, r0, r0
    1c2c:	01000000 	mrseq	r0, (UNDEF: 0)
    1c30:	00505100 	subseq	r5, r0, r0, lsl #2
    1c34:	00540000 	subseq	r0, r4, r0
    1c38:	00090000 	andeq	r0, r9, r0
    1c3c:	00740075 	rsbseq	r0, r4, r5, ror r0
    1c40:	21007124 	tstcs	r0, r4, lsr #2
    1c44:	0000549f 	muleq	r0, pc, r4	; <UNPREDICTABLE>
    1c48:	00005b00 	andeq	r5, r0, r0, lsl #22
    1c4c:	51000100 	mrspl	r0, (UNDEF: 16)
	...

Disassembly of section .debug_aranges:

00000000 <.debug_aranges>:
   0:	0000001c 	andeq	r0, r0, ip, lsl r0
   4:	00000002 	andeq	r0, r0, r2
   8:	00040000 	andeq	r0, r4, r0
   c:	00000000 	andeq	r0, r0, r0
  10:	00008038 	andeq	r8, r0, r8, lsr r0
  14:	00000628 	andeq	r0, r0, r8, lsr #12
	...
  20:	0000001c 	andeq	r0, r0, ip, lsl r0
  24:	0f140002 	svceq	0x00140002
  28:	00040000 	andeq	r0, r4, r0
  2c:	00000000 	andeq	r0, r0, r0
  30:	00008660 	andeq	r8, r0, r0, ror #12
  34:	00000058 	andeq	r0, r0, r8, asr r0
	...
  40:	0000001c 	andeq	r0, r0, ip, lsl r0
  44:	10b50002 	adcsne	r0, r5, r2
  48:	00040000 	andeq	r0, r4, r0
  4c:	00000000 	andeq	r0, r0, r0
  50:	000086b8 			; <UNDEFINED> instruction: 0x000086b8
  54:	0000003c 	andeq	r0, r0, ip, lsr r0
	...
  60:	0000001c 	andeq	r0, r0, ip, lsl r0
  64:	12020002 	andne	r0, r2, #2, 0
  68:	00040000 	andeq	r0, r4, r0
  6c:	00000000 	andeq	r0, r0, r0
  70:	000086f4 	strdeq	r8, [r0], -r4
  74:	00000034 	andeq	r0, r0, r4, lsr r0
	...
  80:	0000001c 	andeq	r0, r0, ip, lsl r0
  84:	12f90002 	rscsne	r0, r9, #2, 0
  88:	00040000 	andeq	r0, r4, r0
  8c:	00000000 	andeq	r0, r0, r0
  90:	00008728 	andeq	r8, r0, r8, lsr #14
  94:	00000740 	andeq	r0, r0, r0, asr #14
	...
  a0:	0000001c 	andeq	r0, r0, ip, lsl r0
  a4:	1dd40002 	ldclne	0, cr0, [r4, #8]
  a8:	00040000 	andeq	r0, r4, r0
  ac:	00000000 	andeq	r0, r0, r0
  b0:	00008e68 	andeq	r8, r0, r8, ror #28
  b4:	00000020 	andeq	r0, r0, r0, lsr #32
	...
  c0:	0000001c 	andeq	r0, r0, ip, lsl r0
  c4:	1ee20002 	cdpne	0, 14, cr0, cr2, cr2, {0}
  c8:	00040000 	andeq	r0, r4, r0
  cc:	00000000 	andeq	r0, r0, r0
  d0:	00008e88 	andeq	r8, r0, r8, lsl #29
  d4:	0000002c 	andeq	r0, r0, ip, lsr #32
	...
  e0:	0000001c 	andeq	r0, r0, ip, lsl r0
  e4:	20150002 	andscs	r0, r5, r2
  e8:	00040000 	andeq	r0, r4, r0
  ec:	00000000 	andeq	r0, r0, r0
  f0:	00008eb4 			; <UNDEFINED> instruction: 0x00008eb4
  f4:	0000003c 	andeq	r0, r0, ip, lsr r0
	...
 100:	0000001c 	andeq	r0, r0, ip, lsl r0
 104:	21a20002 			; <UNDEFINED> instruction: 0x21a20002
 108:	00040000 	andeq	r0, r4, r0
 10c:	00000000 	andeq	r0, r0, r0
 110:	00008ef0 	strdeq	r8, [r0], -r0
 114:	00000004 	andeq	r0, r0, r4
	...
 120:	0000001c 	andeq	r0, r0, ip, lsl r0
 124:	22740002 	rsbscs	r0, r4, #2, 0
 128:	00040000 	andeq	r0, r4, r0
 12c:	00000000 	andeq	r0, r0, r0
 130:	00008ef4 	strdeq	r8, [r0], -r4
 134:	00000080 	andeq	r0, r0, r0, lsl #1
	...
 140:	0000001c 	andeq	r0, r0, ip, lsl r0
 144:	24ae0002 	strtcs	r0, [lr], #2
 148:	00040000 	andeq	r0, r4, r0
 14c:	00000000 	andeq	r0, r0, r0
 150:	00008f74 	andeq	r8, r0, r4, ror pc
 154:	00000084 	andeq	r0, r0, r4, lsl #1
	...
 160:	0000001c 	andeq	r0, r0, ip, lsl r0
 164:	26ff0002 	ldrbtcs	r0, [pc], r2
 168:	00040000 	andeq	r0, r4, r0
 16c:	00000000 	andeq	r0, r0, r0
 170:	00008ff8 	strdeq	r8, [r0], -r8	; <UNPREDICTABLE>
 174:	000001f0 	strdeq	r0, [r0], -r0	; <UNPREDICTABLE>
	...
 180:	0000001c 	andeq	r0, r0, ip, lsl r0
 184:	2cd00002 	ldclcs	0, cr0, [r0], {2}
 188:	00040000 	andeq	r0, r4, r0
 18c:	00000000 	andeq	r0, r0, r0
 190:	000091e8 	andeq	r9, r0, r8, ror #3
 194:	000003b0 			; <UNDEFINED> instruction: 0x000003b0
	...
 1a0:	0000001c 	andeq	r0, r0, ip, lsl r0
 1a4:	35bd0002 	ldrcc	r0, [sp, #2]!
 1a8:	00040000 	andeq	r0, r4, r0
 1ac:	00000000 	andeq	r0, r0, r0
 1b0:	00009598 	muleq	r0, r8, r5
 1b4:	00000018 	andeq	r0, r0, r8, lsl r0
	...
 1c0:	0000001c 	andeq	r0, r0, ip, lsl r0
 1c4:	36fb0002 	ldrbtcc	r0, [fp], r2
 1c8:	00040000 	andeq	r0, r4, r0
 1cc:	00000000 	andeq	r0, r0, r0
 1d0:	000095b0 			; <UNDEFINED> instruction: 0x000095b0
 1d4:	00000034 	andeq	r0, r0, r4, lsr r0
	...
 1e0:	0000001c 	andeq	r0, r0, ip, lsl r0
 1e4:	38360002 	ldmdacc	r6!, {r1}
 1e8:	00040000 	andeq	r0, r4, r0
 1ec:	00000000 	andeq	r0, r0, r0
 1f0:	000095e4 	andeq	r9, r0, r4, ror #11
 1f4:	0000002c 	andeq	r0, r0, ip, lsr #32
	...
 200:	0000001c 	andeq	r0, r0, ip, lsl r0
 204:	39310002 	ldmdbcc	r1!, {r1}
 208:	00040000 	andeq	r0, r4, r0
 20c:	00000000 	andeq	r0, r0, r0
 210:	00009610 	andeq	r9, r0, r0, lsl r6
 214:	00000020 	andeq	r0, r0, r0, lsr #32
	...
 220:	0000001c 	andeq	r0, r0, ip, lsl r0
 224:	3a440002 	bcc	1100234 <__bss_end__+0x10f615c>
 228:	00040000 	andeq	r0, r4, r0
 22c:	00000000 	andeq	r0, r0, r0
 230:	00009630 	andeq	r9, r0, r0, lsr r6
 234:	0000002c 	andeq	r0, r0, ip, lsr #32
	...
 240:	0000001c 	andeq	r0, r0, ip, lsl r0
 244:	3b960002 	blcc	fe580254 <__bss_end__+0xfe57617c>
 248:	00040000 	andeq	r0, r4, r0
 24c:	00000000 	andeq	r0, r0, r0
 250:	0000965c 	andeq	r9, r0, ip, asr r6
 254:	00000004 	andeq	r0, r0, r4
	...
 260:	0000001c 	andeq	r0, r0, ip, lsl r0
 264:	3c680002 	stclcc	0, cr0, [r8], #-8
 268:	00040000 	andeq	r0, r4, r0
 26c:	00000000 	andeq	r0, r0, r0
 270:	00009678 	andeq	r9, r0, r8, ror r6
 274:	0000011c 	andeq	r0, r0, ip, lsl r1
	...

Disassembly of section .debug_ranges:

00000000 <.debug_ranges>:
   0:	0000012c 	andeq	r0, r0, ip, lsr #2
   4:	00000134 	andeq	r0, r0, r4, lsr r1
   8:	00000154 	andeq	r0, r0, r4, asr r1
   c:	00000188 	andeq	r0, r0, r8, lsl #3
	...
  18:	00000254 	andeq	r0, r0, r4, asr r2
  1c:	00000258 	andeq	r0, r0, r8, asr r2
  20:	00000260 	andeq	r0, r0, r0, ror #4
  24:	000002a4 	andeq	r0, r0, r4, lsr #5
  28:	000002a4 	andeq	r0, r0, r4, lsr #5
  2c:	000002c0 	andeq	r0, r0, r0, asr #5
  30:	000002c0 	andeq	r0, r0, r0, asr #5
  34:	000002d0 	ldrdeq	r0, [r0], -r0	; <UNPREDICTABLE>
	...
  40:	00000298 	muleq	r0, r8, r2
  44:	000002a4 	andeq	r0, r0, r4, lsr #5
  48:	000002a4 	andeq	r0, r0, r4, lsr #5
  4c:	000002c0 	andeq	r0, r0, r0, asr #5
  50:	000002c0 	andeq	r0, r0, r0, asr #5
  54:	000002d0 	ldrdeq	r0, [r0], -r0	; <UNPREDICTABLE>
	...
  60:	00008e68 	andeq	r8, r0, r8, ror #28
  64:	00008e88 	andeq	r8, r0, r8, lsl #29
	...
  70:	00008ef4 	strdeq	r8, [r0], -r4
  74:	00008f74 	andeq	r8, r0, r4, ror pc
	...
  80:	00000134 	andeq	r0, r0, r4, lsr r1
  84:	00000134 	andeq	r0, r0, r4, lsr r1
  88:	00000134 	andeq	r0, r0, r4, lsr r1
  8c:	0000013c 	andeq	r0, r0, ip, lsr r1
	...
  98:	0000024c 	andeq	r0, r0, ip, asr #4
  9c:	00000264 	andeq	r0, r0, r4, ror #4
  a0:	000002c8 	andeq	r0, r0, r8, asr #5
  a4:	000002e8 	andeq	r0, r0, r8, ror #5
	...
  b0:	00009630 	andeq	r9, r0, r0, lsr r6
  b4:	0000965c 	andeq	r9, r0, ip, asr r6
	...

Disassembly of section .debug_line:

00000000 <.debug_line>:
       0:	000006c3 	andeq	r0, r0, r3, asr #13
       4:	00fb0003 	rscseq	r0, fp, r3
       8:	01020000 	mrseq	r0, (UNDEF: 2)
       c:	000d0efb 	strdeq	r0, [sp], -fp
      10:	01010101 	tsteq	r1, r1, lsl #2
      14:	01000000 	mrseq	r0, (UNDEF: 0)
      18:	2e010000 	cdpcs	0, 0, cr0, cr1, cr0, {0}
      1c:	6e752f2e 	cdpvs	15, 7, cr2, cr5, cr14, {1}
      20:	732d7869 			; <UNDEFINED> instruction: 0x732d7869
      24:	00656469 	rsbeq	r6, r5, r9, ror #8
      28:	74706f2f 	ldrbtvc	r6, [r0], #-3887	; 0xfffff0d1
      2c:	6d6f682f 	stclvs	8, cr6, [pc, #-188]!	; ffffff78 <__bss_end__+0xffff5ea0>
      30:	65726265 	ldrbvs	r6, [r2, #-613]!	; 0xfffffd9b
      34:	65432f77 	strbvs	r2, [r3, #-3959]	; 0xfffff089
      38:	72616c6c 	rsbvc	r6, r1, #108, 24	; 0x6c00
      3c:	6d72612f 	ldfvse	f6, [r2, #-188]!	; 0xffffff44
      40:	6e6f6e2d 	cdpvs	14, 6, cr6, cr15, cr13, {1}
      44:	61652d65 	cmnvs	r5, r5, ror #26
      48:	742d6962 	strtvc	r6, [sp], #-2402	; 0xfffff69e
      4c:	2f747365 	svccs	0x00747365
      50:	30322d39 	eorscc	r2, r2, r9, lsr sp
      54:	34713931 	ldrbtcc	r3, [r1], #-2353	; 0xfffff6cf
      58:	3173632d 	cmncc	r3, sp, lsr #6
      5c:	2f653730 	svccs	0x00653730
      60:	2f62696c 	svccs	0x0062696c
      64:	2f636367 	svccs	0x00636367
      68:	2d6d7261 	sfmcs	f7, 2, [sp, #-388]!	; 0xfffffe7c
      6c:	656e6f6e 	strbvs	r6, [lr, #-3950]!	; 0xfffff092
      70:	6261652d 	rsbvs	r6, r1, #188743680	; 0xb400000
      74:	2e392f69 	cdpcs	15, 3, cr2, cr9, cr9, {3}
      78:	2f312e32 	svccs	0x00312e32
      7c:	6c636e69 	stclvs	14, cr6, [r3], #-420	; 0xfffffe5c
      80:	00656475 	rsbeq	r6, r5, r5, ror r4
      84:	6573552f 	ldrbvs	r5, [r3, #-1327]!	; 0xfffffad1
      88:	6d2f7372 	stcvs	3, cr7, [pc, #-456]!	; fffffec8 <__bss_end__+0xffff5df0>
      8c:	73656c69 	cmnvc	r5, #26880	; 0x6900
      90:	756f532f 	strbvc	r5, [pc, #-815]!	; fffffd69 <__bss_end__+0xffff5c91>
      94:	2f656372 	svccs	0x00656372
      98:	34327363 	ldrtcc	r7, [r2], #-867	; 0xfffffc9d
      9c:	2f786c30 	svccs	0x00786c30
      a0:	7062696c 	rsbvc	r6, r2, ip, ror #18
      a4:	6e692f69 	cdpvs	15, 6, cr2, cr9, cr9, {3}
      a8:	64756c63 	ldrbtvs	r6, [r5], #-3171	; 0xfffff39d
      ac:	69000065 	stmdbvs	r0, {r0, r2, r5, r6}
      b0:	632d746e 			; <UNDEFINED> instruction: 0x632d746e
      b4:	69706d6f 	ldmdbvs	r0!, {r0, r1, r2, r3, r5, r6, r8, sl, fp, sp, lr}^
      b8:	632e656c 			; <UNDEFINED> instruction: 0x632e656c
      bc:	00000000 	andeq	r0, r0, r0
      c0:	766d7261 	strbtvc	r7, [sp], -r1, ror #4
      c4:	6e692d36 	mcrvs	13, 3, r2, cr9, cr6, {1}
      c8:	2e737473 	mrccs	4, 3, r7, cr3, cr3, {3}
      cc:	00010068 	andeq	r0, r1, r8, rrx
      d0:	64747300 	ldrbtvs	r7, [r4], #-768	; 0xfffffd00
      d4:	2d746e69 	ldclcs	14, cr6, [r4, #-420]!	; 0xfffffe5c
      d8:	2e636367 	cdpcs	3, 6, cr6, cr3, cr7, {3}
      dc:	00020068 	andeq	r0, r2, r8, rrx
      e0:	69707200 	ldmdbvs	r0!, {r9, ip, sp, lr}^
      e4:	0300682e 	movweq	r6, #2094	; 0x82e
      e8:	74730000 	ldrbtvc	r0, [r3], #-0
      ec:	67726164 	ldrbvs	r6, [r2, -r4, ror #2]!
      f0:	0200682e 	andeq	r6, r0, #3014656	; 0x2e0000
      f4:	623c0000 	eorsvs	r0, ip, #0, 0
      f8:	746c6975 	strbtvc	r6, [ip], #-2421	; 0xfffff68b
      fc:	3e6e692d 	vmulcc.f16	s13, s28, s27	; <UNPREDICTABLE>
     100:	00000000 	andeq	r0, r0, r0
     104:	000e0500 	andeq	r0, lr, r0, lsl #10
     108:	80380205 	eorshi	r0, r8, r5, lsl #4
     10c:	0d030000 	stceq	0, cr0, [r3, #-0]
     110:	01100501 	tsteq	r0, r1, lsl #10
     114:	01061305 	tsteq	r6, r5, lsl #6
     118:	05820105 	streq	r0, [r2, #261]	; 0x105
     11c:	054b060e 	strbeq	r0, [fp, #-1550]	; 0xfffff9f2
     120:	13050110 	movwne	r0, #20752	; 0x5110
     124:	01050106 	tsteq	r5, r6, lsl #2
     128:	060e0582 	streq	r0, [lr], -r2, lsl #11
     12c:	0110054b 	tsteq	r0, fp, asr #10
     130:	01061305 	tsteq	r6, r5, lsl #6
     134:	05820105 	streq	r0, [r2, #261]	; 0x105
     138:	054b060e 	strbeq	r0, [fp, #-1550]	; 0xfffff9f2
     13c:	13050110 	movwne	r0, #20752	; 0x5110
     140:	01050106 	tsteq	r5, r6, lsl #2
     144:	060e0582 	streq	r0, [lr], -r2, lsl #11
     148:	0110054b 	tsteq	r0, fp, asr #10
     14c:	01061305 	tsteq	r6, r5, lsl #6
     150:	05820105 	streq	r0, [r2, #261]	; 0x105
     154:	054b060e 	strbeq	r0, [fp, #-1550]	; 0xfffff9f2
     158:	13050110 	movwne	r0, #20752	; 0x5110
     15c:	01050106 	tsteq	r5, r6, lsl #2
     160:	060e0582 	streq	r0, [lr], -r2, lsl #11
     164:	0110054b 	tsteq	r0, fp, asr #10
     168:	01061305 	tsteq	r6, r5, lsl #6
     16c:	05820105 	streq	r0, [r2, #261]	; 0x105
     170:	054b060e 	strbeq	r0, [fp, #-1550]	; 0xfffff9f2
     174:	13050110 	movwne	r0, #20752	; 0x5110
     178:	01050106 	tsteq	r5, r6, lsl #2
     17c:	06340582 	ldrteq	r0, [r4], -r2, lsl #11
     180:	0501064c 	streq	r0, [r1, #-1612]	; 0xfffff9b4
     184:	064b0605 	strbeq	r0, [fp], -r5, lsl #12
     188:	052e2e2e 	streq	r2, [lr, #-3630]!	; 0xfffff1d2
     18c:	31052f01 	tstcc	r5, r1, lsl #30
     190:	01064c06 	tsteq	r6, r6, lsl #24
     194:	67060505 	strvs	r0, [r6, -r5, lsl #10]
     198:	05010905 	streq	r0, [r1, #-2309]	; 0xfffff6fb
     19c:	05010612 	streq	r0, [r1, #-1554]	; 0xfffff9ee
     1a0:	04020019 	streq	r0, [r2], #-25	; 0xffffffe7
     1a4:	052e0601 	streq	r0, [lr, #-1537]!	; 0xfffff9ff
     1a8:	04020005 	streq	r0, [r2], #-5
     1ac:	05010601 	streq	r0, [r1, #-1537]	; 0xfffff9ff
     1b0:	04020009 	streq	r0, [r2], #-9
     1b4:	054b0603 	strbeq	r0, [fp, #-1539]	; 0xfffff9fd
     1b8:	0402000d 	streq	r0, [r2], #-13
     1bc:	05010603 	streq	r0, [r1, #-1539]	; 0xfffff9fd
     1c0:	04020009 	streq	r0, [r2], #-9
     1c4:	20052e03 	andcs	r2, r5, r3, lsl #28
     1c8:	03040200 	movweq	r0, #16896	; 0x4200
     1cc:	21052d06 	tstcs	r5, r6, lsl #26
     1d0:	03040200 	movweq	r0, #16896	; 0x4200
     1d4:	02000106 	andeq	r0, r0, #-2147483647	; 0x80000001
     1d8:	052e0304 	streq	r0, [lr, #-772]!	; 0xfffffcfc
     1dc:	0632062d 	ldrteq	r0, [r2], -sp, lsr #12
     1e0:	06050501 	streq	r0, [r5], -r1, lsl #10
     1e4:	06160583 	ldreq	r0, [r6], -r3, lsl #11
     1e8:	05052e01 	streq	r2, [r5, #-3585]	; 0xfffff1ff
     1ec:	2e013006 	cdpcs	0, 0, cr3, cr1, cr6, {0}
     1f0:	02041301 	andeq	r1, r4, #67108864	; 0x4000000
     1f4:	0100db03 	tsteq	r0, r3, lsl #22
     1f8:	0d050104 	stfeqs	f0, [r5, #-16]
     1fc:	7fa50306 	svcvc	0x00a50306
     200:	06050501 	streq	r0, [r5], -r1, lsl #10
     204:	0109054b 	tsteq	r9, fp, asr #10
     208:	01060d05 	tsteq	r6, r5, lsl #26
     20c:	2e2e0505 	cfsh64cs	mvdx0, mvdx14, #5
     210:	01040200 	mrseq	r0, R12_usr
     214:	02001006 	andeq	r1, r0, #6, 0
     218:	00010104 	andeq	r0, r1, r4, lsl #2
     21c:	06010402 	streq	r0, [r1], -r2, lsl #8
     220:	040200ba 	streq	r0, [r2], #-186	; 0xffffff46
     224:	052e0601 	streq	r0, [lr, #-1537]!	; 0xfffff9ff
     228:	04020009 	streq	r0, [r2], #-9
     22c:	2c053103 	stfcss	f3, [r5], {3}
     230:	03040200 	movweq	r0, #16896	; 0x4200
     234:	27050106 	strcs	r0, [r5, -r6, lsl #2]
     238:	03040200 	movweq	r0, #16896	; 0x4200
     23c:	0042052e 	subeq	r0, r2, lr, lsr #10
     240:	2e030402 	cdpcs	4, 0, cr0, cr3, cr2, {0}
     244:	18050204 	stmdane	r5, {r2, r9}
     248:	03040200 	movweq	r0, #16896	; 0x4200
     24c:	00ce0306 	sbceq	r0, lr, r6, lsl #6
     250:	0005052e 	andeq	r0, r5, lr, lsr #10
     254:	13030402 	movwne	r0, #13314	; 0x3402
     258:	02001905 	andeq	r1, r0, #81920	; 0x14000
     25c:	01060304 	tsteq	r6, r4, lsl #6
     260:	03040200 	movweq	r0, #16896	; 0x4200
     264:	0027052e 	eoreq	r0, r7, lr, lsr #10
     268:	2e030402 	cdpcs	4, 0, cr0, cr3, cr2, {0}
     26c:	02000505 	andeq	r0, r0, #20971520	; 0x1400000
     270:	2f060304 	svccs	0x00060304
     274:	02002205 	andeq	r2, r0, #1342177280	; 0x50000000
     278:	01060304 	tsteq	r6, r4, lsl #6
     27c:	02001705 	andeq	r1, r0, #1310720	; 0x140000
     280:	002e0304 	eoreq	r0, lr, r4, lsl #6
     284:	2e030402 	cdpcs	4, 0, cr0, cr3, cr2, {0}
     288:	13050104 	movwne	r0, #20740	; 0x5104
     28c:	03040200 	movweq	r0, #16896	; 0x4200
     290:	017fb003 	cmneq	pc, r3
     294:	02001f05 	andeq	r1, r0, #5, 30
     298:	2d060304 	stccs	3, cr0, [r6, #-16]
     29c:	02002005 	andeq	r2, r0, #5, 0
     2a0:	01060304 	tsteq	r6, r4, lsl #6
     2a4:	02001405 	andeq	r1, r0, #83886080	; 0x5000000
     2a8:	2e060104 	adfcss	f0, f6, f4
     2ac:	02001a05 	andeq	r1, r0, #20480	; 0x5000
     2b0:	01060104 	tsteq	r6, r4, lsl #2
     2b4:	02000505 	andeq	r0, r0, #20971520	; 0x1400000
     2b8:	062e0104 	strteq	r0, [lr], -r4, lsl #2
     2bc:	0302044d 	movweq	r0, #9293	; 0x244d
     2c0:	040100db 	streq	r0, [r1], #-219	; 0xffffff25
     2c4:	060d0501 	streq	r0, [sp], -r1, lsl #10
     2c8:	017fa503 	cmneq	pc, r3, lsl #10
     2cc:	4b060505 	blmi	1816e8 <__bss_end__+0x177610>
     2d0:	01062705 	tsteq	r6, r5, lsl #14
     2d4:	052e2205 	streq	r2, [lr, #-517]!	; 0xfffffdfb
     2d8:	042e2e3f 	strteq	r2, [lr], #-3647	; 0xfffff1c1
     2dc:	06180502 	ldreq	r0, [r8], -r2, lsl #10
     2e0:	2e00d003 	cdpcs	0, 0, cr13, cr0, cr3, {0}
     2e4:	05130505 	ldreq	r0, [r3, #-1285]	; 0xfffffafb
     2e8:	2e010619 	mcrcs	6, 0, r0, cr1, cr9, {0}
     2ec:	052e2705 	streq	r2, [lr, #-1797]!	; 0xfffff8fb
     2f0:	052f0605 	streq	r0, [pc, #-1541]!	; fffffcf3 <__bss_end__+0xffff5c1b>
     2f4:	05010622 	streq	r0, [r1, #-1570]	; 0xfffff9de
     2f8:	042e2e17 	strteq	r2, [lr], #-3607	; 0xfffff1e9
     2fc:	030f0501 	movweq	r0, #62721	; 0xf501
     300:	05017fae 	streq	r7, [r1, #-4014]	; 0xfffff052
     304:	05300605 	ldreq	r0, [r0, #-1541]!	; 0xfffff9fb
     308:	4a130601 	bmi	4c1b14 <__bss_end__+0x4b7a3c>
     30c:	00062605 	andeq	r2, r6, r5, lsl #12
     310:	82100205 	andshi	r0, r0, #1342177280	; 0x50000000
     314:	06140000 	ldreq	r0, [r4], -r0
     318:	06050501 	streq	r0, [r5], -r1, lsl #10
     31c:	0616059f 			; <UNDEFINED> instruction: 0x0616059f
     320:	05052e01 	streq	r2, [r5, #-3585]	; 0xfffff1ff
     324:	00012f06 	andeq	r2, r1, r6, lsl #30
     328:	4a020402 	bmi	81338 <__bss_end__+0x77260>
     32c:	02040200 	andeq	r0, r4, #0, 4
     330:	04020001 	streq	r0, [r2], #-1
     334:	02001402 	andeq	r1, r0, #33554432	; 0x2000000
     338:	00130204 	andseq	r0, r3, r4, lsl #4
     33c:	4b020402 	blmi	8134c <__bss_end__+0x77274>
     340:	02040200 	andeq	r0, r4, #0, 4
     344:	04020014 	streq	r0, [r2], #-20	; 0xffffffec
     348:	0a051302 	beq	144f58 <__bss_end__+0x13ae80>
     34c:	02040200 	andeq	r0, r4, #0, 4
     350:	000e0501 	andeq	r0, lr, r1, lsl #10
     354:	06020402 	streq	r0, [r2], -r2, lsl #8
     358:	00150501 	andseq	r0, r5, r1, lsl #10
     35c:	06010402 	streq	r0, [r1], -r2, lsl #8
     360:	0005052e 	andeq	r0, r5, lr, lsr #10
     364:	06010402 	streq	r0, [r1], -r2, lsl #8
     368:	06090501 	streq	r0, [r9], -r1, lsl #10
     36c:	0617054b 	ldreq	r0, [r7], -fp, asr #10
     370:	82150501 	andshi	r0, r5, #4194304	; 0x400000
     374:	65061c05 	strvs	r1, [r6, #-3077]	; 0xfffff3fb
     378:	01061d05 	tsteq	r6, r5, lsl #26
     37c:	05052e2e 	streq	r2, [r5, #-3630]	; 0xfffff1d2
     380:	01040200 	mrseq	r0, R12_usr
     384:	01790306 	cmneq	r9, r6, lsl #6
     388:	01040200 	mrseq	r0, R12_usr
     38c:	04020001 	streq	r0, [r2], #-1
     390:	00ba0601 	adcseq	r0, sl, r1, lsl #12
     394:	06010402 	streq	r0, [r1], -r2, lsl #8
     398:	060e052e 	streq	r0, [lr], -lr, lsr #10
     39c:	2e2e0b03 	vmulcs.f64	d0, d14, d3
     3a0:	05017903 	streq	r7, [r1, #-2307]	; 0xfffff6fd
     3a4:	0903060d 	stmdbeq	r3, {r0, r2, r3, r9, sl}
     3a8:	0502044a 	streq	r0, [r2, #-1098]	; 0xfffffbb6
     3ac:	012d0318 			; <UNDEFINED> instruction: 0x012d0318
     3b0:	05130505 	ldreq	r0, [r3, #-1285]	; 0xfffffafb
     3b4:	4a010633 	bmi	41c88 <__bss_end__+0x37bb0>
     3b8:	19050104 	stmdbne	r5, {r2, r8}
     3bc:	05015203 	streq	r5, [r1, #-515]	; 0xfffffdfd
     3c0:	052f060d 	streq	r0, [pc, #-1549]!	; fffffdbb <__bss_end__+0xffff5ce3>
     3c4:	05010611 	streq	r0, [r1, #-1553]	; 0xfffff9ef
     3c8:	2a052e34 	bcs	14bca0 <__bss_end__+0x141bc8>
     3cc:	2d150566 	cfldr32cs	mvfx0, [r5, #-408]	; 0xfffffe68
     3d0:	02001c05 	andeq	r1, r0, #1280	; 0x500
     3d4:	2c060204 	sfmcs	f0, 4, [r6], {4}
     3d8:	02001d05 	andeq	r1, r0, #320	; 0x140
     3dc:	01060204 	tsteq	r6, r4, lsl #4
     3e0:	02001505 	andeq	r1, r0, #20971520	; 0x1400000
     3e4:	2e060104 	adfcss	f0, f6, f4
     3e8:	02000505 	andeq	r0, r0, #20971520	; 0x1400000
     3ec:	01060104 	tsteq	r6, r4, lsl #2
     3f0:	4b060905 	blmi	18280c <__bss_end__+0x178734>
     3f4:	01060c05 	tsteq	r6, r5, lsl #24
     3f8:	4e060d05 	cdpmi	13, 0, cr0, cr6, cr5, {0}
     3fc:	01062405 	tsteq	r6, r5, lsl #8
     400:	052e1105 	streq	r1, [lr, #-261]!	; 0xfffffefb
     404:	052f060d 	streq	r0, [pc, #-1549]!	; fffffdff <__bss_end__+0xffff5d27>
     408:	2e010615 	mcrcs	6, 0, r0, cr1, cr5, {0}
     40c:	05050204 	streq	r0, [r5, #-516]	; 0xfffffdfc
     410:	012a0306 			; <UNDEFINED> instruction: 0x012a0306
     414:	19050104 	stmdbne	r5, {r2, r8}
     418:	01560306 	cmpeq	r6, r6, lsl #6
     41c:	4b060d05 	blmi	183838 <__bss_end__+0x179760>
     420:	01061105 	tsteq	r6, r5, lsl #2
     424:	4a2e3405 	bmi	b8d440 <__bss_end__+0xb83368>
     428:	052e2a05 	streq	r2, [lr, #-2565]!	; 0xfffff5fb
     42c:	062f060d 	strteq	r0, [pc], -sp, lsl #12
     430:	05020401 	streq	r0, [r2, #-1025]	; 0xfffffbff
     434:	3c030605 	stccc	6, cr0, [r3], {5}
     438:	05010401 	streq	r0, [r1, #-1025]	; 0xfffffbff
     43c:	44030619 	strmi	r0, [r3], #-1561	; 0xfffff9e7
     440:	052e6601 	streq	r6, [lr, #-1537]!	; 0xfffff9ff
     444:	05160605 	ldreq	r0, [r6, #-1541]	; 0xfffff9fb
     448:	04010622 	streq	r0, [r1], #-1570	; 0xfffff9de
     44c:	06180502 	ldreq	r0, [r8], -r2, lsl #10
     450:	052e3203 	streq	r3, [lr, #-515]!	; 0xfffffdfd
     454:	19051305 	stmdbne	r5, {r0, r2, r8, r9, ip}
     458:	052e0106 	streq	r0, [lr, #-262]!	; 0xfffffefa
     45c:	05052e27 	streq	r2, [r5, #-3623]	; 0xfffff1d9
     460:	22052f06 	andcs	r2, r5, #6, 30
     464:	17050106 	strne	r0, [r5, -r6, lsl #2]
     468:	01042e2e 	tsteq	r4, lr, lsr #28
     46c:	4c030f05 	stcmi	15, cr0, [r3], {5}
     470:	06050501 	streq	r0, [r5], -r1, lsl #10
     474:	0601052f 	streq	r0, [r1], -pc, lsr #10
     478:	21054a13 	tstcs	r5, r3, lsl sl
     47c:	05230806 	streq	r0, [r3, #-2054]!	; 0xfffff7fa
     480:	2f2f2f05 	svccs	0x002f2f05
     484:	2f2f2f2f 	svccs	0x002f2f2f
     488:	0601052f 	streq	r0, [r1], -pc, lsr #10
     48c:	0614052f 	ldreq	r0, [r4], -pc, lsr #10
     490:	4b050530 	blmi	141958 <__bss_end__+0x137880>
     494:	01060c05 	tsteq	r6, r5, lsl #24
     498:	03060505 	movweq	r0, #25861	; 0x6505
     49c:	0101ba0b 	tsteq	r1, fp, lsl #20
     4a0:	3018144a 	andscc	r1, r8, sl, asr #8
     4a4:	01060905 	tsteq	r6, r5, lsl #18
     4a8:	67060505 	strvs	r0, [r6, -r5, lsl #10]
     4ac:	01010101 	tsteq	r1, r1, lsl #2
     4b0:	0601062e 	streq	r0, [r1], -lr, lsr #12
     4b4:	66666601 	strbtvs	r6, [r6], -r1, lsl #12
     4b8:	66666666 	strbtvs	r6, [r6], -r6, ror #12
     4bc:	01666666 	cmneq	r6, r6, ror #12
     4c0:	01062e01 	tsteq	r6, r1, lsl #28
     4c4:	01060106 	tsteq	r6, r6, lsl #2
     4c8:	4a060106 	bmi	1808e8 <__bss_end__+0x176810>
     4cc:	13010666 	movwne	r0, #5734	; 0x1666
     4d0:	04020001 	streq	r0, [r2], #-1
     4d4:	02006601 	andeq	r6, r0, #1048576	; 0x100000
     4d8:	002e0104 	eoreq	r0, lr, r4, lsl #2
     4dc:	08010402 	stmdaeq	r1, {r1, sl}
     4e0:	04020058 	streq	r0, [r2], #-88	; 0xffffffa8
     4e4:	02002e02 	andeq	r2, r0, #2, 28
     4e8:	13030204 	movwne	r0, #12804	; 0x3204
     4ec:	00090501 	andeq	r0, r9, r1, lsl #10
     4f0:	06020402 	streq	r0, [r2], -r2, lsl #8
     4f4:	00050501 	andeq	r0, r5, r1, lsl #10
     4f8:	06020402 	streq	r0, [r2], -r2, lsl #8
     4fc:	04020067 	streq	r0, [r2], #-103	; 0xffffff99
     500:	02000102 	andeq	r0, r0, #-2147483648	; 0x80000000
     504:	00010204 	andeq	r0, r1, r4, lsl #4
     508:	01020402 	tsteq	r2, r2, lsl #8
     50c:	02040200 	andeq	r0, r4, #0, 4
     510:	04020001 	streq	r0, [r2], #-1
     514:	02002e02 	andeq	r2, r0, #2, 28
     518:	01060204 	tsteq	r6, r4, lsl #4
     51c:	02040200 	andeq	r0, r4, #0, 4
     520:	02000106 	andeq	r0, r0, #-2147483647	; 0x80000001
     524:	002e0204 	eoreq	r0, lr, r4, lsl #4
     528:	2e020402 	cdpcs	4, 0, cr0, cr2, cr2, {0}
     52c:	02040200 	andeq	r0, r4, #0, 4
     530:	0402002e 	streq	r0, [r2], #-46	; 0xffffffd2
     534:	02002e02 	andeq	r2, r0, #2, 28
     538:	002e0204 	eoreq	r0, lr, r4, lsl #4
     53c:	2e020402 	cdpcs	4, 0, cr0, cr2, cr2, {0}
     540:	02040200 	andeq	r0, r4, #0, 4
     544:	0402002e 	streq	r0, [r2], #-46	; 0xffffffd2
     548:	02002e02 	andeq	r2, r0, #2, 28
     54c:	002e0204 	eoreq	r0, lr, r4, lsl #4
     550:	2e020402 	cdpcs	4, 0, cr0, cr2, cr2, {0}
     554:	02040200 	andeq	r0, r4, #0, 4
     558:	04020001 	streq	r0, [r2], #-1
     55c:	02000102 	andeq	r0, r0, #-2147483648	; 0x80000000
     560:	002e0204 	eoreq	r0, lr, r4, lsl #4
     564:	06020402 	streq	r0, [r2], -r2, lsl #8
     568:	04020001 	streq	r0, [r2], #-1
     56c:	00010602 	andeq	r0, r1, r2, lsl #12
     570:	06020402 	streq	r0, [r2], -r2, lsl #8
     574:	04020001 	streq	r0, [r2], #-1
     578:	00010602 	andeq	r0, r1, r2, lsl #12
     57c:	06020402 	streq	r0, [r2], -r2, lsl #8
     580:	0402004a 	streq	r0, [r2], #-74	; 0xffffffb6
     584:	02006602 	andeq	r6, r0, #2097152	; 0x200000
     588:	01060204 	tsteq	r6, r4, lsl #4
     58c:	02040200 	andeq	r0, r4, #0, 4
     590:	04020013 	streq	r0, [r2], #-19	; 0xffffffed
     594:	02000102 	andeq	r0, r0, #-2147483648	; 0x80000000
     598:	00660104 	rsbeq	r0, r6, r4, lsl #2
     59c:	2e010402 	cdpcs	4, 0, cr0, cr1, cr2, {0}
     5a0:	01040200 	mrseq	r0, R12_usr
     5a4:	02005808 	andeq	r5, r0, #8, 16	; 0x80000
     5a8:	002e0204 	eoreq	r0, lr, r4, lsl #4
     5ac:	14020402 	strne	r0, [r2], #-1026	; 0xfffffbfe
     5b0:	02000905 	andeq	r0, r0, #81920	; 0x14000
     5b4:	01060204 	tsteq	r6, r4, lsl #4
     5b8:	02040200 	andeq	r0, r4, #0, 4
     5bc:	0005052e 	andeq	r0, r5, lr, lsr #10
     5c0:	06020402 	streq	r0, [r2], -r2, lsl #8
     5c4:	0012054b 	andseq	r0, r2, fp, asr #10
     5c8:	06020402 	streq	r0, [r2], -r2, lsl #8
     5cc:	00050501 	andeq	r0, r5, r1, lsl #10
     5d0:	06020402 	streq	r0, [r2], -r2, lsl #8
     5d4:	04020083 	streq	r0, [r2], #-131	; 0xffffff7d
     5d8:	02001402 	andeq	r1, r0, #33554432	; 0x2000000
     5dc:	00010204 	andeq	r0, r1, r4, lsl #4
     5e0:	01020402 	tsteq	r2, r2, lsl #8
     5e4:	02040200 	andeq	r0, r4, #0, 4
     5e8:	04020001 	streq	r0, [r2], #-1
     5ec:	02000102 	andeq	r0, r0, #-2147483648	; 0x80000000
     5f0:	002e0204 	eoreq	r0, lr, r4, lsl #4
     5f4:	06020402 	streq	r0, [r2], -r2, lsl #8
     5f8:	04020001 	streq	r0, [r2], #-1
     5fc:	00010602 	andeq	r0, r1, r2, lsl #12
     600:	2e020402 	cdpcs	4, 0, cr0, cr2, cr2, {0}
     604:	02040200 	andeq	r0, r4, #0, 4
     608:	0402002e 	streq	r0, [r2], #-46	; 0xffffffd2
     60c:	02002e02 	andeq	r2, r0, #2, 28
     610:	002e0204 	eoreq	r0, lr, r4, lsl #4
     614:	2e020402 	cdpcs	4, 0, cr0, cr2, cr2, {0}
     618:	02040200 	andeq	r0, r4, #0, 4
     61c:	0402002e 	streq	r0, [r2], #-46	; 0xffffffd2
     620:	02002e02 	andeq	r2, r0, #2, 28
     624:	002e0204 	eoreq	r0, lr, r4, lsl #4
     628:	2e020402 	cdpcs	4, 0, cr0, cr2, cr2, {0}
     62c:	02040200 	andeq	r0, r4, #0, 4
     630:	0402002e 	streq	r0, [r2], #-46	; 0xffffffd2
     634:	02000102 	andeq	r0, r0, #-2147483648	; 0x80000000
     638:	00010204 	andeq	r0, r1, r4, lsl #4
     63c:	2e020402 	cdpcs	4, 0, cr0, cr2, cr2, {0}
     640:	02040200 	andeq	r0, r4, #0, 4
     644:	02000106 	andeq	r0, r0, #-2147483647	; 0x80000001
     648:	01060204 	tsteq	r6, r4, lsl #4
     64c:	02040200 	andeq	r0, r4, #0, 4
     650:	02000106 	andeq	r0, r0, #-2147483647	; 0x80000001
     654:	01060204 	tsteq	r6, r4, lsl #4
     658:	02040200 	andeq	r0, r4, #0, 4
     65c:	02004a06 	andeq	r4, r0, #24576	; 0x6000
     660:	00660204 	rsbeq	r0, r6, r4, lsl #4
     664:	06020402 	streq	r0, [r2], -r2, lsl #8
     668:	04020001 	streq	r0, [r2], #-1
     66c:	02001302 	andeq	r1, r0, #134217728	; 0x8000000
     670:	00010204 	andeq	r0, r1, r4, lsl #4
     674:	66010402 	strvs	r0, [r1], -r2, lsl #8
     678:	01040200 	mrseq	r0, R12_usr
     67c:	0402002e 	streq	r0, [r2], #-46	; 0xffffffd2
     680:	00580801 	subseq	r0, r8, r1, lsl #16
     684:	2e020402 	cdpcs	4, 0, cr0, cr2, cr2, {0}
     688:	02040200 	andeq	r0, r4, #0, 4
     68c:	00160514 	andseq	r0, r6, r4, lsl r5
     690:	06020402 	streq	r0, [r2], -r2, lsl #8
     694:	04020001 	streq	r0, [r2], #-1
     698:	05052e02 	streq	r2, [r5, #-3586]	; 0xfffff1fe
     69c:	02040200 	andeq	r0, r4, #0, 4
     6a0:	0200bb06 	andeq	fp, r0, #6144	; 0x1800
     6a4:	05300204 	ldreq	r0, [r0, #-516]!	; 0xfffffdfc
     6a8:	04020013 	streq	r0, [r2], #-19	; 0xffffffed
     6ac:	05010602 	streq	r0, [r1, #-1538]	; 0xfffff9fe
     6b0:	04020005 	streq	r0, [r2], #-5
     6b4:	ad080602 	stcge	6, cr0, [r8, #-8]
     6b8:	02040200 	andeq	r0, r4, #0, 4
     6bc:	04020030 	streq	r0, [r2], #-48	; 0xffffffd0
     6c0:	24024c02 	strcs	r4, [r2], #-3074	; 0xfffff3fe
     6c4:	10010100 	andne	r0, r1, r0, lsl #2
     6c8:	03000001 	movweq	r0, #1
     6cc:	0000de00 	andeq	sp, r0, r0, lsl #28
     6d0:	fb010200 	blx	40eda <__bss_end__+0x36e02>
     6d4:	01000d0e 	tsteq	r0, lr, lsl #26
     6d8:	00010101 	andeq	r0, r1, r1, lsl #2
     6dc:	00010000 	andeq	r0, r1, r0
     6e0:	2f2e0100 	svccs	0x002e0100
     6e4:	6362696c 	cmnvs	r2, #108, 18	; 0x1b0000
     6e8:	706f2f00 	rsbvc	r2, pc, r0, lsl #30
     6ec:	6f682f74 	svcvs	0x00682f74
     6f0:	7262656d 	rsbvc	r6, r2, #457179136	; 0x1b400000
     6f4:	432f7765 			; <UNDEFINED> instruction: 0x432f7765
     6f8:	616c6c65 	cmnvs	ip, r5, ror #24
     6fc:	72612f72 	rsbvc	r2, r1, #456	; 0x1c8
     700:	6f6e2d6d 	svcvs	0x006e2d6d
     704:	652d656e 	strvs	r6, [sp, #-1390]!	; 0xfffffa92
     708:	2d696261 	sfmcs	f6, 2, [r9, #-388]!	; 0xfffffe7c
     70c:	74736574 	ldrbtvc	r6, [r3], #-1396	; 0xfffffa8c
     710:	322d392f 	eorcc	r3, sp, #770048	; 0xbc000
     714:	71393130 	teqvc	r9, r0, lsr r1
     718:	73632d34 	cmnvc	r3, #52, 26	; 0xd00
     71c:	65373031 	ldrvs	r3, [r7, #-49]!	; 0xffffffcf
     720:	62696c2f 	rsbvs	r6, r9, #12032	; 0x2f00
     724:	6363672f 	cmnvs	r3, #12320768	; 0xbc0000
     728:	6d72612f 	ldfvse	f6, [r2, #-188]!	; 0xffffff44
     72c:	6e6f6e2d 	cdpvs	14, 6, cr6, cr15, cr13, {1}
     730:	61652d65 	cmnvs	r5, r5, ror #26
     734:	392f6962 	stmdbcc	pc!, {r1, r5, r6, r8, fp, sp, lr}	; <UNPREDICTABLE>
     738:	312e322e 			; <UNDEFINED> instruction: 0x312e322e
     73c:	636e692f 	cmnvs	lr, #770048	; 0xbc000
     740:	6564756c 	strbvs	r7, [r4, #-1388]!	; 0xfffffa94
     744:	73552f00 	cmpvc	r5, #0, 30
     748:	2f737265 	svccs	0x00737265
     74c:	656c696d 	strbvs	r6, [ip, #-2413]!	; 0xfffff693
     750:	6f532f73 	svcvs	0x00532f73
     754:	65637275 	strbvs	r7, [r3, #-629]!	; 0xfffffd8b
     758:	3273632f 	rsbscc	r6, r3, #-1140850688	; 0xbc000000
     75c:	786c3034 	stmdavc	ip!, {r2, r4, r5, ip, sp}^
     760:	62696c2f 	rsbvs	r6, r9, #12032	; 0x2f00
     764:	692f6970 	stmdbvs	pc!, {r4, r5, r6, r8, fp, sp, lr}	; <UNPREDICTABLE>
     768:	756c636e 	strbvc	r6, [ip, #-878]!	; 0xfffffc92
     76c:	00006564 	andeq	r6, r0, r4, ror #10
     770:	6e697270 	mcrvs	2, 3, r7, cr9, cr0, {3}
     774:	632e6b74 			; <UNDEFINED> instruction: 0x632e6b74
     778:	00000100 	andeq	r0, r0, r0, lsl #2
     77c:	61647473 	smcvs	18243	; 0x4743
     780:	682e6772 	stmdavs	lr!, {r1, r4, r5, r6, r8, r9, sl, sp, lr}
     784:	00000200 	andeq	r0, r0, r0, lsl #4
     788:	2e697072 	mcrcs	0, 3, r7, cr9, cr2, {3}
     78c:	00030068 	andeq	r0, r3, r8, rrx
     790:	75623c00 	strbvc	r3, [r2, #-3072]!	; 0xfffff400
     794:	2d746c69 	ldclcs	12, cr6, [r4, #-420]!	; 0xfffffe5c
     798:	003e6e69 	eorseq	r6, lr, r9, ror #28
     79c:	76000000 	strvc	r0, [r0], -r0
     7a0:	72702d61 	rsbsvc	r2, r0, #6208	; 0x1840
     7a4:	6b746e69 	blvs	1d1c150 <__bss_end__+0x1d12078>
     7a8:	0100682e 	tsteq	r0, lr, lsr #16
     7ac:	05000000 	streq	r0, [r0, #-0]
     7b0:	02050022 	andeq	r0, r5, #34, 0	; 0x22
     7b4:	00008660 	andeq	r8, r0, r0, ror #12
     7b8:	05010617 	streq	r0, [r1, #-1559]	; 0xfffff9e9
     7bc:	13680605 	cmnne	r8, #5242880	; 0x500000
     7c0:	4b090514 	blmi	241c18 <__bss_end__+0x237b40>
     7c4:	01061205 	tsteq	r6, r5, lsl #4
     7c8:	bb060505 	bllt	181be4 <__bss_end__+0x177b0c>
     7cc:	06660616 			; <UNDEFINED> instruction: 0x06660616
     7d0:	06010534 			; <UNDEFINED> instruction: 0x06010534
     7d4:	08026613 	stmdaeq	r2, {r0, r1, r4, r9, sl, sp, lr}
     7d8:	98010100 	stmdals	r1, {r8}
     7dc:	03000000 	movweq	r0, #0
     7e0:	00005a00 	andeq	r5, r0, r0, lsl #20
     7e4:	fb010200 	blx	40fee <__bss_end__+0x36f16>
     7e8:	01000d0e 	tsteq	r0, lr, lsl #26
     7ec:	00010101 	andeq	r0, r1, r1, lsl #2
     7f0:	00010000 	andeq	r0, r1, r0
     7f4:	2f2e0100 	svccs	0x002e0100
     7f8:	6362696c 	cmnvs	r2, #108, 18	; 0x1b0000
     7fc:	73552f00 	cmpvc	r5, #0, 30
     800:	2f737265 	svccs	0x00737265
     804:	656c696d 	strbvs	r6, [ip, #-2413]!	; 0xfffff693
     808:	6f532f73 	svcvs	0x00532f73
     80c:	65637275 	strbvs	r7, [r3, #-629]!	; 0xfffffd8b
     810:	3273632f 	rsbscc	r6, r3, #-1140850688	; 0xbc000000
     814:	786c3034 	stmdavc	ip!, {r2, r4, r5, ip, sp}^
     818:	62696c2f 	rsbvs	r6, r9, #12032	; 0x2f00
     81c:	692f6970 	stmdbvs	pc!, {r4, r5, r6, r8, fp, sp, lr}	; <UNPREDICTABLE>
     820:	756c636e 	strbvc	r6, [ip, #-878]!	; 0xfffffc92
     824:	00006564 	andeq	r6, r0, r4, ror #10
     828:	63747570 	cmnvs	r4, #112, 10	; 0x1c000000
     82c:	2e726168 	rpwcssz	f6, f2, #0.0
     830:	00010063 	andeq	r0, r1, r3, rrx
     834:	69707200 	ldmdbvs	r0!, {r9, ip, sp, lr}^
     838:	0200682e 	andeq	r6, r0, #3014656	; 0x2e0000
     83c:	05000000 	streq	r0, [r0, #-0]
     840:	02050024 	andeq	r0, r5, #36, 0	; 0x24
     844:	000086b8 			; <UNDEFINED> instruction: 0x000086b8
     848:	05010614 	streq	r0, [r1, #-1556]	; 0xfffff9ec
     84c:	054a0626 	strbeq	r0, [sl, #-1574]	; 0xfffff9da
     850:	01052e34 	tsteq	r5, r4, lsr lr
     854:	1b050106 	blne	140c74 <__bss_end__+0x136b9c>
     858:	05054f06 	streq	r4, [r5, #-3846]	; 0xfffff0fa
     85c:	06110513 			; <UNDEFINED> instruction: 0x06110513
     860:	67010501 	strvs	r0, [r1, -r1, lsl #10]
     864:	67062305 	strvs	r2, [r6, -r5, lsl #6]
     868:	05130505 	ldreq	r0, [r3, #-1285]	; 0xfffffafb
     86c:	05010611 	streq	r0, [r1, #-1553]	; 0xfffff9ef
     870:	04024b01 	streq	r4, [r2], #-2817	; 0xfffff4ff
     874:	a5010100 	strge	r0, [r1, #-256]	; 0xffffff00
     878:	03000000 	movweq	r0, #0
     87c:	00005700 	andeq	r5, r0, r0, lsl #14
     880:	fb010200 	blx	4108a <__bss_end__+0x36fb2>
     884:	01000d0e 	tsteq	r0, lr, lsl #26
     888:	00010101 	andeq	r0, r1, r1, lsl #2
     88c:	00010000 	andeq	r0, r1, r0
     890:	2f2e0100 	svccs	0x002e0100
     894:	6362696c 	cmnvs	r2, #108, 18	; 0x1b0000
     898:	73552f00 	cmpvc	r5, #0, 30
     89c:	2f737265 	svccs	0x00737265
     8a0:	656c696d 	strbvs	r6, [ip, #-2413]!	; 0xfffff693
     8a4:	6f532f73 	svcvs	0x00532f73
     8a8:	65637275 	strbvs	r7, [r3, #-629]!	; 0xfffffd8b
     8ac:	3273632f 	rsbscc	r6, r3, #-1140850688	; 0xbc000000
     8b0:	786c3034 	stmdavc	ip!, {r2, r4, r5, ip, sp}^
     8b4:	62696c2f 	rsbvs	r6, r9, #12032	; 0x2f00
     8b8:	692f6970 	stmdbvs	pc!, {r4, r5, r6, r8, fp, sp, lr}	; <UNPREDICTABLE>
     8bc:	756c636e 	strbvc	r6, [ip, #-878]!	; 0xfffffc92
     8c0:	00006564 	andeq	r6, r0, r4, ror #10
     8c4:	6b747570 	blvs	1d1de8c <__bss_end__+0x1d13db4>
     8c8:	0100632e 	tsteq	r0, lr, lsr #6
     8cc:	70720000 	rsbsvc	r0, r2, r0
     8d0:	00682e69 	rsbeq	r2, r8, r9, ror #28
     8d4:	00000002 	andeq	r0, r0, r2
     8d8:	05002205 	streq	r2, [r0, #-517]	; 0xfffffdfb
     8dc:	0086f402 	addeq	pc, r6, r2, lsl #8
     8e0:	01061500 	tsteq	r6, r0, lsl #10
     8e4:	4b060505 	blmi	181d00 <__bss_end__+0x177c28>
     8e8:	02000b05 	andeq	r0, r0, #5120	; 0x1400
     8ec:	05010104 	streq	r0, [r1, #-260]	; 0xfffffefc
     8f0:	04020005 	streq	r0, [r2], #-5
     8f4:	052e0601 	streq	r0, [lr, #-1537]!	; 0xfffff9ff
     8f8:	04020009 	streq	r0, [r2], #-9
     8fc:	054b0602 	strbeq	r0, [fp, #-1538]	; 0xfffff9fe
     900:	0402000f 	streq	r0, [r2], #-15
     904:	10056502 	andne	r6, r5, r2, lsl #10
     908:	02040200 	andeq	r0, r4, #0, 4
     90c:	02000106 	andeq	r0, r0, #-2147483647	; 0x80000001
     910:	052e0204 	streq	r0, [lr, #-516]!	; 0xfffffdfc
     914:	05320605 	ldreq	r0, [r2, #-1541]!	; 0xfffff9fb
     918:	02130601 	andseq	r0, r3, #1048576	; 0x100000
     91c:	01010006 	tsteq	r1, r6
     920:	000005fa 	strdeq	r0, [r0], -sl
     924:	00f40003 	rscseq	r0, r4, r3
     928:	01020000 	mrseq	r0, (UNDEF: 2)
     92c:	000d0efb 	strdeq	r0, [sp], -fp
     930:	01010101 	tsteq	r1, r1, lsl #2
     934:	01000000 	mrseq	r0, (UNDEF: 0)
     938:	2e010000 	cdpcs	0, 0, cr0, cr1, cr0, {0}
     93c:	62696c2f 	rsbvs	r6, r9, #12032	; 0x2f00
     940:	6f2f0063 	svcvs	0x002f0063
     944:	682f7470 	stmdavs	pc!, {r4, r5, r6, sl, ip, sp, lr}	; <UNPREDICTABLE>
     948:	62656d6f 	rsbvs	r6, r5, #7104	; 0x1bc0
     94c:	2f776572 	svccs	0x00776572
     950:	6c6c6543 	cfstr64vs	mvdx6, [ip], #-268	; 0xfffffef4
     954:	612f7261 			; <UNDEFINED> instruction: 0x612f7261
     958:	6e2d6d72 	mcrvs	13, 1, r6, cr13, cr2, {3}
     95c:	2d656e6f 	stclcs	14, cr6, [r5, #-444]!	; 0xfffffe44
     960:	69626165 	stmdbvs	r2!, {r0, r2, r5, r6, r8, sp, lr}^
     964:	7365742d 	cmnvc	r5, #754974720	; 0x2d000000
     968:	2d392f74 	ldccs	15, cr2, [r9, #-464]!	; 0xfffffe30
     96c:	39313032 	ldmdbcc	r1!, {r1, r4, r5, ip, sp}
     970:	632d3471 			; <UNDEFINED> instruction: 0x632d3471
     974:	37303173 			; <UNDEFINED> instruction: 0x37303173
     978:	696c2f65 	stmdbvs	ip!, {r0, r2, r5, r6, r8, r9, sl, fp, sp}^
     97c:	63672f62 	cmnvs	r7, #392	; 0x188
     980:	72612f63 	rsbvc	r2, r1, #396	; 0x18c
     984:	6f6e2d6d 	svcvs	0x006e2d6d
     988:	652d656e 	strvs	r6, [sp, #-1390]!	; 0xfffffa92
     98c:	2f696261 	svccs	0x00696261
     990:	2e322e39 	mrccs	14, 1, r2, cr2, cr9, {1}
     994:	6e692f31 	mcrvs	15, 3, r2, cr9, cr1, {1}
     998:	64756c63 	ldrbtvs	r6, [r5], #-3171	; 0xfffff39d
     99c:	552f0065 	strpl	r0, [pc, #-101]!	; 93f <__code_start__-0x76c1>
     9a0:	73726573 	cmnvc	r2, #482344960	; 0x1cc00000
     9a4:	6c696d2f 	stclvs	13, cr6, [r9], #-188	; 0xffffff44
     9a8:	532f7365 			; <UNDEFINED> instruction: 0x532f7365
     9ac:	6372756f 	cmnvs	r2, #465567744	; 0x1bc00000
     9b0:	73632f65 	cmnvc	r3, #404	; 0x194
     9b4:	6c303432 	cfldrsvs	mvf3, [r0], #-200	; 0xffffff38
     9b8:	696c2f78 	stmdbvs	ip!, {r3, r4, r5, r6, r8, r9, sl, fp, sp}^
     9bc:	2f697062 	svccs	0x00697062
     9c0:	6c636e69 	stclvs	14, cr6, [r3], #-420	; 0xfffffe5c
     9c4:	00656475 	rsbeq	r6, r5, r5, ror r4
     9c8:	2d617600 	stclcs	6, cr7, [r1, #-0]
     9cc:	6e697270 	mcrvs	2, 3, r7, cr9, cr0, {3}
     9d0:	632e6b74 			; <UNDEFINED> instruction: 0x632e6b74
     9d4:	00000100 	andeq	r0, r0, r0, lsl #2
     9d8:	69647473 	stmdbvs	r4!, {r0, r1, r4, r5, r6, sl, ip, sp, lr}^
     9dc:	672d746e 	strvs	r7, [sp, -lr, ror #8]!
     9e0:	682e6363 	stmdavs	lr!, {r0, r1, r5, r6, r8, r9, sp, lr}
     9e4:	00000200 	andeq	r0, r0, r0, lsl #4
     9e8:	2e697072 	mcrcs	0, 3, r7, cr9, cr2, {3}
     9ec:	00030068 	andeq	r0, r3, r8, rrx
     9f0:	69707200 	ldmdbvs	r0!, {r9, ip, sp, lr}^
     9f4:	746e692d 	strbtvc	r6, [lr], #-2349	; 0xfffff6d3
     9f8:	616e7265 	cmnvs	lr, r5, ror #4
     9fc:	00682e6c 	rsbeq	r2, r8, ip, ror #28
     a00:	73000003 	movwvc	r0, #3
     a04:	72616474 	rsbvc	r6, r1, #116, 8	; 0x74000000
     a08:	00682e67 	rsbeq	r2, r8, r7, ror #28
     a0c:	3c000002 	stccc	0, cr0, [r0], {2}
     a10:	6c697562 	cfstr64vs	mvdx7, [r9], #-392	; 0xfffffe78
     a14:	6e692d74 	mcrvs	13, 3, r2, cr9, cr4, {3}
     a18:	0000003e 	andeq	r0, r0, lr, lsr r0
     a1c:	1b050000 	blne	140a24 <__bss_end__+0x13694c>
     a20:	28020500 	stmdacs	r2, {r8, sl}
     a24:	03000087 	movweq	r0, #135	; 0x87
     a28:	1d050126 	stfnes	f0, [r5, #-152]	; 0xffffff68
     a2c:	062d0501 	strteq	r0, [sp], -r1, lsl #10
     a30:	2e010501 	cfsh32cs	mvfx0, mvfx1, #1
     a34:	0633054a 	ldrteq	r0, [r3], -sl, asr #10
     a38:	13020551 	movwne	r0, #9553	; 0x2551
     a3c:	01060605 	tsteq	r6, r5, lsl #12
     a40:	30060205 	andcc	r0, r6, r5, lsl #4
     a44:	02000805 	andeq	r0, r0, #327680	; 0x50000
     a48:	05010104 	streq	r0, [r1, #-260]	; 0xfffffefc
     a4c:	04020002 	streq	r0, [r2], #-2
     a50:	05010601 	streq	r0, [r1, #-1537]	; 0xfffff9ff
     a54:	04020003 	streq	r0, [r2], #-3
     a58:	052f0602 	streq	r0, [pc, #-1538]!	; 45e <__code_start__-0x7ba2>
     a5c:	04020008 	streq	r0, [r2], #-8
     a60:	05010602 	streq	r0, [r1, #-1538]	; 0xfffff9fe
     a64:	04020015 	streq	r0, [r2], #-21	; 0xffffffeb
     a68:	05490602 	strbeq	r0, [r9, #-1538]	; 0xfffff9fe
     a6c:	04020018 	streq	r0, [r2], #-24	; 0xffffffe8
     a70:	00010602 	andeq	r0, r1, r2, lsl #12
     a74:	2e020402 	cdpcs	4, 0, cr0, cr2, cr2, {0}
     a78:	30060205 	andcc	r0, r6, r5, lsl #4
     a7c:	01060505 	tsteq	r6, r5, lsl #10
     a80:	4b060205 	blmi	18129c <__bss_end__+0x1771c4>
     a84:	13060105 	movwne	r0, #24837	; 0x6105
     a88:	31063e05 	tstcc	r6, r5, lsl #28
     a8c:	05140205 	ldreq	r0, [r4, #-517]	; 0xfffffdfb
     a90:	0501060e 	streq	r0, [r1, #-1550]	; 0xfffff9f2
     a94:	02052e06 	andeq	r2, r5, #96	; 0x60
     a98:	04052f06 	streq	r2, [r5], #-3846	; 0xfffff0fa
     a9c:	03050106 	movweq	r0, #20742	; 0x5106
     aa0:	11052f06 	tstne	r5, r6, lsl #30
     aa4:	09050106 	stmdbeq	r5, {r1, r2, r8}
     aa8:	0602052e 	streq	r0, [r2], -lr, lsr #10
     aac:	07051530 	smladxeq	r5, r0, r5, r1
     ab0:	02050106 	andeq	r0, r5, #-2147483647	; 0x80000001
     ab4:	000b052e 	andeq	r0, fp, lr, lsr #10
     ab8:	06010402 	streq	r0, [r1], -r2, lsl #8
     abc:	0002052e 	andeq	r0, r2, lr, lsr #10
     ac0:	06010402 	streq	r0, [r1], -r2, lsl #8
     ac4:	00030501 	andeq	r0, r3, r1, lsl #10
     ac8:	06030402 	streq	r0, [r3], -r2, lsl #8
     acc:	000c052f 	andeq	r0, ip, pc, lsr #10
     ad0:	06030402 	streq	r0, [r3], -r2, lsl #8
     ad4:	000a0501 	andeq	r0, sl, r1, lsl #10
     ad8:	2e030402 	cdpcs	4, 0, cr0, cr3, cr2, {0}
     adc:	02001705 	andeq	r1, r0, #1310720	; 0x140000
     ae0:	2d060304 	stccs	3, cr0, [r6, #-16]
     ae4:	03040200 	movweq	r0, #16896	; 0x4200
     ae8:	02050106 	andeq	r0, r5, #-2147483647	; 0x80000001
     aec:	09053006 	stmdbeq	r5, {r1, r2, ip, sp}
     af0:	052e0106 	streq	r0, [lr, #-262]!	; 0xfffffefa
     af4:	05300602 	ldreq	r0, [r0, #-1538]!	; 0xfffff9fe
     af8:	05130601 	ldreq	r0, [r3, #-1537]	; 0xfffff9ff
     afc:	06310649 	ldrteq	r0, [r1], -r9, asr #12
     b00:	06020501 	streq	r0, [r2], -r1, lsl #10
     b04:	060405a0 	streq	r0, [r4], -r0, lsr #11
     b08:	06030501 	streq	r0, [r3], -r1, lsl #10
     b0c:	0609052f 	streq	r0, [r9], -pc, lsr #10
     b10:	06020501 	streq	r0, [r2], -r1, lsl #10
     b14:	0b051330 	bleq	1457dc <__bss_end__+0x13b704>
     b18:	02050106 	andeq	r0, r5, #-2147483647	; 0x80000001
     b1c:	2e063006 	cdpcs	0, 0, cr3, cr6, cr6, {0}
     b20:	02060405 	andeq	r0, r6, #83886080	; 0x5000000
     b24:	05131524 	ldreq	r1, [r3, #-1316]	; 0xfffffadc
     b28:	2e01060f 	cfmadd32cs	mvax0, mvfx0, mvfx1, mvfx15
     b2c:	054a0605 	strbeq	r0, [sl, #-1541]	; 0xfffff9fb
     b30:	134b0605 	movtne	r0, #46597	; 0xb605
     b34:	01060905 	tsteq	r6, r5, lsl #18
     b38:	2f060505 	svccs	0x00060505
     b3c:	10060b05 	andne	r0, r6, r5, lsl #22
     b40:	02000d05 	andeq	r0, r0, #320	; 0x140
     b44:	052c0104 	streq	r0, [ip, #-260]!	; 0xfffffefc
     b48:	04020004 	streq	r0, [r2], #-4
     b4c:	05340601 	ldreq	r0, [r4, #-1537]!	; 0xfffff9ff
     b50:	04020005 	streq	r0, [r2], #-5
     b54:	1b051301 	blne	145760 <__bss_end__+0x13b688>
     b58:	01040200 	mrseq	r0, R12_usr
     b5c:	07050106 	streq	r0, [r5, -r6, lsl #2]
     b60:	01040200 	mrseq	r0, R12_usr
     b64:	001805d6 			; <UNDEFINED> instruction: 0x001805d6
     b68:	2e010402 	cdpcs	4, 0, cr0, cr1, cr2, {0}
     b6c:	02000a05 	andeq	r0, r0, #20480	; 0x5000
     b70:	054a0104 	strbeq	r0, [sl, #-260]	; 0xfffffefc
     b74:	0402000b 	streq	r0, [r2], #-11
     b78:	052f0601 	streq	r0, [pc, #-1537]!	; 57f <__code_start__-0x7a81>
     b7c:	0402000e 	streq	r0, [r2], #-14
     b80:	052e0601 	streq	r0, [lr, #-1537]!	; 0xfffff9ff
     b84:	04020004 	streq	r0, [r2], #-4
     b88:	4b062e01 	blmi	18c394 <__bss_end__+0x1822bc>
     b8c:	01060605 	tsteq	r6, r5, lsl #12
     b90:	2f060505 	svccs	0x00060505
     b94:	01060a05 	tsteq	r6, r5, lsl #20
     b98:	2e4a0705 	cdpcs	7, 4, cr0, cr10, cr5, {0}
     b9c:	76030d05 	strvc	r0, [r3], -r5, lsl #26
     ba0:	0b054a2e 	bleq	153460 <__bss_end__+0x149388>
     ba4:	000d050d 	andeq	r0, sp, sp, lsl #10
     ba8:	06010402 	streq	r0, [r1], -r2, lsl #8
     bac:	052e1403 	streq	r1, [lr, #-1027]!	; 0xfffffbfd
     bb0:	04020011 	streq	r0, [r2], #-17	; 0xffffffef
     bb4:	2d051301 	stccs	3, cr1, [r5, #-4]
     bb8:	01040200 	mrseq	r0, R12_usr
     bbc:	2a050106 	bcs	140fdc <__bss_end__+0x136f04>
     bc0:	01040200 	mrseq	r0, R12_usr
     bc4:	0016052e 	andseq	r0, r6, lr, lsr #10
     bc8:	4a010402 	bmi	41bd8 <__bss_end__+0x37b00>
     bcc:	02001405 	andeq	r1, r0, #83886080	; 0x5000000
     bd0:	4b060104 	blmi	180fe8 <__bss_end__+0x176f10>
     bd4:	02000d05 	andeq	r0, r0, #320	; 0x140
     bd8:	01060104 	tsteq	r6, r4, lsl #2
     bdc:	01040200 	mrseq	r0, R12_usr
     be0:	052f064a 	streq	r0, [pc, #-1610]!	; 59e <__code_start__-0x7a62>
     be4:	4a010612 	bmi	42434 <__bss_end__+0x3835c>
     be8:	2f060d05 	svccs	0x00060d05
     bec:	01061205 	tsteq	r6, r5, lsl #4
     bf0:	4b061905 	blmi	18700c <__bss_end__+0x17cf34>
     bf4:	02000405 	andeq	r0, r0, #83886080	; 0x5000000
     bf8:	11030204 	tstne	r3, r4, lsl #4
     bfc:	04020001 	streq	r0, [r2], #-1
     c00:	02050102 	andeq	r0, r5, #-2147483648	; 0x80000000
     c04:	02040200 	andeq	r0, r4, #0, 4
     c08:	00090515 	andeq	r0, r9, r5, lsl r5
     c0c:	06020402 	streq	r0, [r2], -r2, lsl #8
     c10:	04020001 	streq	r0, [r2], #-1
     c14:	01054a02 	tsteq	r5, r2, lsl #20
     c18:	02040200 	andeq	r0, r4, #0, 4
     c1c:	0604059f 			; <UNDEFINED> instruction: 0x0604059f
     c20:	054a6e03 	strbeq	r6, [sl, #-3587]	; 0xfffff1fd
     c24:	05010609 	streq	r0, [r1, #-1545]	; 0xfffff9f7
     c28:	052f0604 	streq	r0, [pc, #-1540]!	; 62c <__code_start__-0x79d4>
     c2c:	05110606 	ldreq	r0, [r1, #-1542]	; 0xfffff9fa
     c30:	0b052f04 	bleq	14c848 <__bss_end__+0x142770>
     c34:	052e6303 	streq	r6, [lr, #-771]!	; 0xfffffcfd
     c38:	04020019 	streq	r0, [r2], #-25	; 0xffffffe7
     c3c:	24030601 	strcs	r0, [r3], #-1537	; 0xfffff9ff
     c40:	001a052e 	andseq	r0, sl, lr, lsr #10
     c44:	13010402 	movwne	r0, #5122	; 0x1402
     c48:	02002805 	andeq	r2, r0, #327680	; 0x50000
     c4c:	01060104 	tsteq	r6, r4, lsl #2
     c50:	02002505 	andeq	r2, r0, #20971520	; 0x1400000
     c54:	052e0104 	streq	r0, [lr, #-260]!	; 0xfffffefc
     c58:	0402001f 	streq	r0, [r2], #-31	; 0xffffffe1
     c5c:	0b054a01 	bleq	153468 <__bss_end__+0x149390>
     c60:	01040200 	mrseq	r0, R12_usr
     c64:	04054b06 	streq	r4, [r5], #-2822	; 0xfffff4fa
     c68:	01040200 	mrseq	r0, R12_usr
     c6c:	02000106 	andeq	r0, r0, #-2147483647	; 0x80000001
     c70:	004a0104 	subeq	r0, sl, r4, lsl #2
     c74:	06010402 	streq	r0, [r1], -r2, lsl #8
     c78:	0402004e 	streq	r0, [r2], #-78	; 0xffffffb2
     c7c:	02000101 	andeq	r0, r0, #1073741824	; 0x40000000
     c80:	00010104 	andeq	r0, r1, r4, lsl #2
     c84:	01010402 	tsteq	r1, r2, lsl #8
     c88:	01040200 	mrseq	r0, R12_usr
     c8c:	02002e06 	andeq	r2, r0, #96	; 0x60
     c90:	00660104 	rsbeq	r0, r6, r4, lsl #2
     c94:	2e010402 	cdpcs	4, 0, cr0, cr1, cr2, {0}
     c98:	01040200 	mrseq	r0, R12_usr
     c9c:	48054a06 	stmdami	r5, {r1, r2, r9, fp, lr}
     ca0:	087fa603 	ldmdaeq	pc!, {r0, r1, r9, sl, sp, pc}^	; <UNPREDICTABLE>
     ca4:	13050520 	movwne	r0, #21792	; 0x5520
     ca8:	002e0601 	eoreq	r0, lr, r1, lsl #12
     cac:	06020402 	streq	r0, [r2], -r2, lsl #8
     cb0:	0402002e 	streq	r0, [r2], #-46	; 0xffffffd2
     cb4:	02000102 	andeq	r0, r0, #-2147483648	; 0x80000000
     cb8:	05130204 	ldreq	r0, [r3, #-516]	; 0xfffffdfc
     cbc:	04020011 	streq	r0, [r2], #-17	; 0xffffffef
     cc0:	05010602 	streq	r0, [r1, #-1538]	; 0xfffff9fe
     cc4:	04020005 	streq	r0, [r2], #-5
     cc8:	054b0602 	strbeq	r0, [fp, #-1538]	; 0xfffff9fe
     ccc:	04020007 	streq	r0, [r2], #-7
     cd0:	05010602 	streq	r0, [r1, #-1538]	; 0xfffff9fe
     cd4:	054b0609 	strbeq	r0, [fp, #-1545]	; 0xfffff9f7
     cd8:	0501060e 	streq	r0, [r1, #-1550]	; 0xfffff9f2
     cdc:	04020048 	streq	r0, [r2], #-72	; 0xffffffb8
     ce0:	05056201 	streq	r6, [r5, #-513]	; 0xfffffdff
     ce4:	01040200 	mrseq	r0, R12_usr
     ce8:	02004b06 	andeq	r4, r0, #6144	; 0x1800
     cec:	00010104 	andeq	r0, r1, r4, lsl #2
     cf0:	06010402 	streq	r0, [r1], -r2, lsl #8
     cf4:	0402009e 	streq	r0, [r2], #-158	; 0xffffff62
     cf8:	02002e01 	andeq	r2, r0, #1, 28
     cfc:	2e060104 	adfcss	f0, f6, f4
     d00:	e1034005 	tst	r3, r5
     d04:	0106d600 	tsteq	r6, r0, lsl #12
     d08:	9f060205 	svcls	0x00060205
     d0c:	01061e05 	tsteq	r6, r5, lsl #28
     d10:	052e1205 	streq	r1, [lr, #-517]!	; 0xfffffdfb
     d14:	052f0605 	streq	r0, [pc, #-1541]!	; 717 <__code_start__-0x78e9>
     d18:	09051402 	stmdbeq	r5, {r1, sl, ip}
     d1c:	05050106 	streq	r0, [r5, #-262]	; 0xfffffefa
     d20:	02054b06 	andeq	r4, r5, #6144	; 0x1800
     d24:	06080513 			; <UNDEFINED> instruction: 0x06080513
     d28:	3302050d 	movwcc	r0, #9485	; 0x250d
     d2c:	4c060405 	cfstrsmi	mvf0, [r6], {5}
     d30:	01060f05 	tsteq	r6, r5, lsl #30
     d34:	052e0905 	streq	r0, [lr, #-2309]!	; 0xfffff6fb
     d38:	052c0608 	streq	r0, [ip, #-1544]!	; 0xfffff9f8
     d3c:	052e0602 	streq	r0, [lr, #-1538]!	; 0xfffff9fe
     d40:	0402000d 	streq	r0, [r2], #-13
     d44:	03054a01 	movweq	r4, #23041	; 0x5a01
     d48:	05054b06 	streq	r4, [r5, #-2822]	; 0xfffff4fa
     d4c:	08050106 	stmdaeq	r5, {r1, r2, r8}
     d50:	0e054d06 	cdpeq	13, 0, cr4, cr5, cr6, {0}
     d54:	0a050106 	beq	141174 <__bss_end__+0x13709c>
     d58:	0604052e 	streq	r0, [r4], -lr, lsr #10
     d5c:	0609052f 	streq	r0, [r9], -pc, lsr #10
     d60:	06040501 	streq	r0, [r4], -r1, lsl #10
     d64:	0607052f 	streq	r0, [r7], -pc, lsr #10
     d68:	04052e01 	streq	r2, [r5], #-3585	; 0xfffff1ff
     d6c:	07053006 	streq	r3, [r5, -r6]
     d70:	04050106 	streq	r0, [r5], #-262	; 0xfffffefa
     d74:	14133006 	ldrne	r3, [r3], #-6
     d78:	10060d05 	andne	r0, r6, r5, lsl #26
     d7c:	30060905 	andcc	r0, r6, r5, lsl #18
     d80:	01061205 	tsteq	r6, r5, lsl #4
     d84:	052e0a05 	streq	r0, [lr, #-2565]!	; 0xfffff5fb
     d88:	05056609 	streq	r6, [r5, #-1545]	; 0xfffff9f7
     d8c:	12054b06 	andne	r4, r5, #6144	; 0x1800
     d90:	16050106 	strne	r0, [r5], -r6, lsl #2
     d94:	2e0b052e 	cfsh32cs	mvfx0, mvfx11, #30
     d98:	2f060505 	svccs	0x00060505
     d9c:	01060805 	tsteq	r6, r5, lsl #16
     da0:	0604052e 	streq	r0, [r4], -lr, lsr #10
     da4:	014a0130 	cmpeq	sl, r0, lsr r1
     da8:	04020015 	streq	r0, [r2], #-21	; 0xffffffeb
     dac:	0f360201 	svceq	0x00360201
     db0:	01040200 	mrseq	r0, R12_usr
     db4:	04020001 	streq	r0, [r2], #-1
     db8:	1105d601 	tstne	r5, r1, lsl #12
     dbc:	00011334 	andeq	r1, r1, r4, lsr r3
     dc0:	06020402 	streq	r0, [r2], -r2, lsl #8
     dc4:	040200ba 	streq	r0, [r2], #-186	; 0xffffff46
     dc8:	00ba0603 	adcseq	r0, sl, r3, lsl #12
     dcc:	01030402 	tsteq	r3, r2, lsl #8
     dd0:	03040200 	movweq	r0, #16896	; 0x4200
     dd4:	00150514 	andseq	r0, r5, r4, lsl r5
     dd8:	06030402 	streq	r0, [r3], -r2, lsl #8
     ddc:	00110501 	andseq	r0, r1, r1, lsl #10
     de0:	06030402 	streq	r0, [r3], -r2, lsl #8
     de4:	001a052f 	andseq	r0, sl, pc, lsr #10
     de8:	06030402 	streq	r0, [r3], -r2, lsl #8
     dec:	00110501 	andseq	r0, r1, r1, lsl #10
     df0:	06030402 	streq	r0, [r3], -r2, lsl #8
     df4:	040200d7 	streq	r0, [r2], #-215	; 0xffffff29
     df8:	02001303 	andeq	r1, r0, #201326592	; 0xc000000
     dfc:	00140304 	andseq	r0, r4, r4, lsl #6
     e00:	67030402 	strvs	r0, [r3, -r2, lsl #8]
     e04:	03040200 	movweq	r0, #16896	; 0x4200
     e08:	00140568 	andseq	r0, r4, r8, ror #10
     e0c:	06030402 	streq	r0, [r3], -r2, lsl #8
     e10:	00130501 	andseq	r0, r3, r1, lsl #10
     e14:	82030402 	andhi	r0, r3, #33554432	; 0x2000000
     e18:	4e061805 	cdpmi	8, 0, cr1, cr6, cr5, {0}
     e1c:	01061b05 	tsteq	r6, r5, lsl #22
     e20:	05821a05 	streq	r1, [r2, #2565]	; 0xa05
     e24:	054b0609 	strbeq	r0, [fp, #-1545]	; 0xfffff9f7
     e28:	2e01060d 	cfmadd32cs	mvax0, mvfx0, mvfx1, mvfx13
     e2c:	f3060905 	vmls.i8	d0, d6, d5
     e30:	1505ba06 	strne	fp, [r5, #-2566]	; 0xfffff5fa
     e34:	18053006 	stmdane	r5, {r1, r2, ip, sp}
     e38:	17050106 	strne	r0, [r5, -r6, lsl #2]
     e3c:	06190566 	ldreq	r0, [r9], -r6, ror #10
     e40:	0615054b 	ldreq	r0, [r5], -fp, asr #10
     e44:	05666f03 	strbeq	r6, [r6, #-3843]!	; 0xfffff0fd
     e48:	01480611 	cmpeq	r8, r1, lsl r6
     e4c:	030905d6 	movweq	r0, #38358	; 0x95d6
     e50:	0d052e0b 	stceq	14, cr2, [r5, #-44]	; 0xffffffd4
     e54:	052e0106 	streq	r0, [lr, #-262]!	; 0xfffffefa
     e58:	06f30609 	ldrbteq	r0, [r3], r9, lsl #12
     e5c:	061505ba 			; <UNDEFINED> instruction: 0x061505ba
     e60:	7503062f 	strvc	r0, [r3, #-1583]	; 0xfffff9d1
     e64:	06190566 	ldreq	r0, [r9], -r6, ror #10
     e68:	054a1303 	strbeq	r1, [sl, #-771]	; 0xfffffcfd
     e6c:	6d030615 	stcvs	6, cr0, [r3, #-84]	; 0xffffffac
     e70:	15030666 	strne	r0, [r3, #-1638]	; 0xfffff99a
     e74:	06ba014a 	ldrteq	r0, [sl], sl, asr #2
     e78:	0605052e 	streq	r0, [r5], -lr, lsr #10
     e7c:	2e9e011a 	mrccs	1, 4, r0, cr14, cr10, {0}
     e80:	05010e03 	streq	r0, [r1, #-3587]	; 0xfffff1fd
     e84:	05010609 	streq	r0, [r1, #-1545]	; 0xfffff9f7
     e88:	75080605 	strvc	r0, [r8, #-1541]	; 0xfffff9fb
     e8c:	18030405 	stmdane	r3, {r0, r2, sl}
     e90:	06070501 	streq	r0, [r7], -r1, lsl #10
     e94:	06040501 	streq	r0, [r4], -r1, lsl #10
     e98:	03050531 	movweq	r0, #21809	; 0x5531
     e9c:	1c052e67 	stcne	14, cr2, [r5], {103}	; 0x67
     ea0:	09050106 	stmdbeq	r5, {r1, r2, r8}
     ea4:	06050582 	streq	r0, [r5], -r2, lsl #11
     ea8:	1c0531f3 	stfnes	f3, [r5], {243}	; 0xf3
     eac:	09050106 	stmdbeq	r5, {r1, r2, r8}
     eb0:	06050582 	streq	r0, [r5], -r2, lsl #11
     eb4:	1b0530f3 	blne	14d288 <__bss_end__+0x1431b0>
     eb8:	09050106 	stmdbeq	r5, {r1, r2, r8}
     ebc:	06050582 	streq	r0, [r5], -r2, lsl #11
     ec0:	070530f3 			; <UNDEFINED> instruction: 0x070530f3
     ec4:	05050106 	streq	r0, [r5, #-262]	; 0xfffffefa
     ec8:	05308306 	ldreq	r8, [r0, #-774]!	; 0xfffffcfa
     ecc:	05010609 	streq	r0, [r1, #-1545]	; 0xfffff9f7
     ed0:	75080605 	strvc	r0, [r8, #-1541]	; 0xfffff9fb
     ed4:	05301105 	ldreq	r1, [r0, #-261]!	; 0xfffffefb
     ed8:	05010622 	streq	r0, [r1, #-1570]	; 0xfffff9de
     edc:	054b0605 	strbeq	r0, [fp, #-1541]	; 0xfffff9fb
     ee0:	05058311 	streq	r8, [r5, #-785]	; 0xfffffcef
     ee4:	359e0183 	ldrcc	r0, [lr, #387]	; 0x183
     ee8:	01060e05 	tsteq	r6, r5, lsl #28
     eec:	062e0a05 	strteq	r0, [lr], -r5, lsl #20
     ef0:	0604052d 	streq	r0, [r4], -sp, lsr #10
     ef4:	00130501 	andseq	r0, r3, r1, lsl #10
     ef8:	4a010402 	bmi	41f08 <__bss_end__+0x37e30>
     efc:	02001005 	andeq	r1, r0, #5, 0
     f00:	002e0104 	eoreq	r0, lr, r4, lsl #2
     f04:	66010402 	strvs	r0, [r1], -r2, lsl #8
     f08:	16060205 	strne	r0, [r6], -r5, lsl #4
     f0c:	01060705 	tsteq	r6, r5, lsl #14
     f10:	4b060205 	blmi	18172c <__bss_end__+0x177654>
     f14:	13060105 	movwne	r0, #24837	; 0x6105
     f18:	001e0266 	andseq	r0, lr, r6, ror #4
     f1c:	009e0101 	addseq	r0, lr, r1, lsl #2
     f20:	00030000 	andeq	r0, r3, r0
     f24:	0000005d 	andeq	r0, r0, sp, asr r0
     f28:	0efb0102 	cdpeq	1, 15, cr0, cr11, cr2, {0}
     f2c:	0101000d 	tsteq	r1, sp
     f30:	00000101 	andeq	r0, r0, r1, lsl #2
     f34:	00000100 	andeq	r0, r0, r0, lsl #2
     f38:	732f2e01 			; <UNDEFINED> instruction: 0x732f2e01
     f3c:	66666174 			; <UNDEFINED> instruction: 0x66666174
     f40:	6372732d 	cmnvs	r2, #-1275068416	; 0xb4000000
     f44:	73552f00 	cmpvc	r5, #0, 30
     f48:	2f737265 	svccs	0x00737265
     f4c:	656c696d 	strbvs	r6, [ip, #-2413]!	; 0xfffff693
     f50:	6f532f73 	svcvs	0x00532f73
     f54:	65637275 	strbvs	r7, [r3, #-629]!	; 0xfffffd8b
     f58:	3273632f 	rsbscc	r6, r3, #-1140850688	; 0xbc000000
     f5c:	786c3034 	stmdavc	ip!, {r2, r4, r5, ip, sp}^
     f60:	62696c2f 	rsbvs	r6, r9, #12032	; 0x2f00
     f64:	692f6970 	stmdbvs	pc!, {r4, r5, r6, r8, fp, sp, lr}	; <UNPREDICTABLE>
     f68:	756c636e 	strbvc	r6, [ip, #-878]!	; 0xfffffc92
     f6c:	00006564 	andeq	r6, r0, r4, ror #10
     f70:	68636163 	stmdavs	r3!, {r0, r1, r5, r6, r8, sp, lr}^
     f74:	00632e65 	rsbeq	r2, r3, r5, ror #28
     f78:	72000001 	andvc	r0, r0, #1, 0
     f7c:	682e6970 	stmdavs	lr!, {r4, r5, r6, r8, fp, sp, lr}
     f80:	00000200 	andeq	r0, r0, r0, lsl #4
     f84:	00190500 	andseq	r0, r9, r0, lsl #10
     f88:	8e680205 	cdphi	2, 6, cr0, cr8, cr5, {0}
     f8c:	05140000 	ldreq	r0, [r4, #-0]
     f90:	05131305 	ldreq	r1, [r3, #-773]	; 0xfffffcfb
     f94:	05132f02 	ldreq	r2, [r3, #-3842]	; 0xfffff0fe
     f98:	05010604 	streq	r0, [r1, #-1540]	; 0xfffff9fc
     f9c:	052f0605 	streq	r0, [pc, #-1541]!	; 99f <__code_start__-0x7661>
     fa0:	052f0601 	streq	r0, [pc, #-1537]!	; 9a7 <__code_start__-0x7659>
     fa4:	0531061a 	ldreq	r0, [r1, #-1562]!	; 0xfffff9e6
     fa8:	05131305 	ldreq	r1, [r3, #-773]	; 0xfffffcfb
     fac:	05133002 	ldreq	r3, [r3, #-2]
     fb0:	05010604 	streq	r0, [r1, #-1540]	; 0xfffff9fc
     fb4:	052f0605 	streq	r0, [pc, #-1541]!	; 9b7 <__code_start__-0x7649>
     fb8:	022f0601 	eoreq	r0, pc, #1048576	; 0x100000
     fbc:	01010002 	tsteq	r1, r2
     fc0:	0000007f 	andeq	r0, r0, pc, ror r0
     fc4:	00640003 	rsbeq	r0, r4, r3
     fc8:	01020000 	mrseq	r0, (UNDEF: 2)
     fcc:	000d0efb 	strdeq	r0, [sp], -fp
     fd0:	01010101 	tsteq	r1, r1, lsl #2
     fd4:	01000000 	mrseq	r0, (UNDEF: 0)
     fd8:	2e010000 	cdpcs	0, 0, cr0, cr1, cr0, {0}
     fdc:	6174732f 	cmnvs	r4, pc, lsr #6
     fe0:	732d6666 			; <UNDEFINED> instruction: 0x732d6666
     fe4:	2f006372 	svccs	0x00006372
     fe8:	72657355 	rsbvc	r7, r5, #1409286145	; 0x54000001
     fec:	696d2f73 	stmdbvs	sp!, {r0, r1, r4, r5, r6, r8, r9, sl, fp, sp}^
     ff0:	2f73656c 	svccs	0x0073656c
     ff4:	72756f53 	rsbsvc	r6, r5, #332	; 0x14c
     ff8:	632f6563 			; <UNDEFINED> instruction: 0x632f6563
     ffc:	30343273 	eorscc	r3, r4, r3, ror r2
    1000:	6c2f786c 	stcvs	8, cr7, [pc], #-432	; e58 <__code_start__-0x71a8>
    1004:	69706269 	ldmdbvs	r0!, {r0, r3, r5, r6, r9, sp, lr}^
    1008:	636e692f 	cmnvs	lr, #770048	; 0xbc000
    100c:	6564756c 	strbvs	r7, [r4, #-1388]!	; 0xfffffa94
    1010:	6c630000 	stclvs	0, cr0, [r3], #-0
    1014:	2d6e6165 	stfcse	f6, [lr, #-404]!	; 0xfffffe6c
    1018:	6f626572 	svcvs	0x00626572
    101c:	632e746f 			; <UNDEFINED> instruction: 0x632e746f
    1020:	00000100 	andeq	r0, r0, r0, lsl #2
    1024:	2e697072 	mcrcs	0, 3, r7, cr9, cr2, {3}
    1028:	00020068 	andeq	r0, r2, r8, rrx
    102c:	19050000 	stmdbne	r5, {}	; <UNPREDICTABLE>
    1030:	88020500 	stmdahi	r2, {r8, sl}
    1034:	1500008e 	strne	r0, [r0, #-142]	; 0xffffff72
    1038:	832f0505 			; <UNDEFINED> instruction: 0x832f0505
    103c:	06024b2f 	streq	r4, [r2], -pc, lsr #22
    1040:	99010100 	stmdbls	r1, {r8}
    1044:	03000000 	movweq	r0, #0
    1048:	00005e00 	andeq	r5, r0, r0, lsl #28
    104c:	fb010200 	blx	41856 <__bss_end__+0x3777e>
    1050:	01000d0e 	tsteq	r0, lr, lsl #26
    1054:	00010101 	andeq	r0, r1, r1, lsl #2
    1058:	00010000 	andeq	r0, r1, r0
    105c:	2f2e0100 	svccs	0x002e0100
    1060:	66617473 			; <UNDEFINED> instruction: 0x66617473
    1064:	72732d66 	rsbsvc	r2, r3, #6528	; 0x1980
    1068:	552f0063 	strpl	r0, [pc, #-99]!	; 100d <__code_start__-0x6ff3>
    106c:	73726573 	cmnvc	r2, #482344960	; 0x1cc00000
    1070:	6c696d2f 	stclvs	13, cr6, [r9], #-188	; 0xffffff44
    1074:	532f7365 			; <UNDEFINED> instruction: 0x532f7365
    1078:	6372756f 	cmnvs	r2, #465567744	; 0x1bc00000
    107c:	73632f65 	cmnvc	r3, #404	; 0x194
    1080:	6c303432 	cfldrsvs	mvf3, [r0], #-200	; 0xffffff38
    1084:	696c2f78 	stmdbvs	ip!, {r3, r4, r5, r6, r8, r9, sl, fp, sp}^
    1088:	2f697062 	svccs	0x00697062
    108c:	6c636e69 	stclvs	14, cr6, [r3], #-420	; 0xfffffe5c
    1090:	00656475 	rsbeq	r6, r5, r5, ror r4
    1094:	74736300 	ldrbtvc	r6, [r3], #-768	; 0xfffffd00
    1098:	2e747261 	cdpcs	2, 7, cr7, cr4, cr1, {3}
    109c:	00010063 	andeq	r0, r1, r3, rrx
    10a0:	69707200 	ldmdbvs	r0!, {r9, ip, sp, lr}^
    10a4:	0200682e 	andeq	r6, r0, #3014656	; 0x2e0000
    10a8:	05000000 	streq	r0, [r0, #-0]
    10ac:	02050010 	andeq	r0, r5, #16, 0
    10b0:	00008eb4 			; <UNDEFINED> instruction: 0x00008eb4
    10b4:	2f050515 	svccs	0x00050515
    10b8:	05130205 	ldreq	r0, [r3, #-517]	; 0xfffffdfb
    10bc:	13301405 	teqne	r0, #83886080	; 0x5000000
    10c0:	060a0514 			; <UNDEFINED> instruction: 0x060a0514
    10c4:	0531060f 	ldreq	r0, [r1, #-1551]!	; 0xfffff9f1
    10c8:	10054b09 	andne	r4, r5, r9, lsl #22
    10cc:	054a0106 	strbeq	r0, [sl, #-262]	; 0xfffffefa
    10d0:	32300605 	eorscc	r0, r0, #5242880	; 0x500000
    10d4:	144a0101 	strbne	r0, [sl], #-257	; 0xfffffeff
    10d8:	022f0205 	eoreq	r0, pc, #1342177280	; 0x50000000
    10dc:	01010006 	tsteq	r1, r6
    10e0:	0000007d 	andeq	r0, r0, sp, ror r0
    10e4:	00650003 	rsbeq	r0, r5, r3
    10e8:	01020000 	mrseq	r0, (UNDEF: 2)
    10ec:	000d0efb 	strdeq	r0, [sp], -fp
    10f0:	01010101 	tsteq	r1, r1, lsl #2
    10f4:	01000000 	mrseq	r0, (UNDEF: 0)
    10f8:	2e010000 	cdpcs	0, 0, cr0, cr1, cr0, {0}
    10fc:	6174732f 	cmnvs	r4, pc, lsr #6
    1100:	732d6666 			; <UNDEFINED> instruction: 0x732d6666
    1104:	2f006372 	svccs	0x00006372
    1108:	72657355 	rsbvc	r7, r5, #1409286145	; 0x54000001
    110c:	696d2f73 	stmdbvs	sp!, {r0, r1, r4, r5, r6, r8, r9, sl, fp, sp}^
    1110:	2f73656c 	svccs	0x0073656c
    1114:	72756f53 	rsbsvc	r6, r5, #332	; 0x14c
    1118:	632f6563 			; <UNDEFINED> instruction: 0x632f6563
    111c:	30343273 	eorscc	r3, r4, r3, ror r2
    1120:	6c2f786c 	stcvs	8, cr7, [pc], #-432	; f78 <__code_start__-0x7088>
    1124:	69706269 	ldmdbvs	r0!, {r0, r3, r5, r6, r9, sp, lr}^
    1128:	636e692f 	cmnvs	lr, #770048	; 0xbc000
    112c:	6564756c 	strbvs	r7, [r4, #-1388]!	; 0xfffffa94
    1130:	75630000 	strbvc	r0, [r3, #-0]!
    1134:	6d6f7473 	cfstrdvs	mvd7, [pc, #-460]!	; f70 <__code_start__-0x7090>
    1138:	616f6c2d 	cmnvs	pc, sp, lsr #24
    113c:	2e726564 	cdpcs	5, 7, cr6, cr2, cr4, {3}
    1140:	00010063 	andeq	r0, r1, r3, rrx
    1144:	69707200 	ldmdbvs	r0!, {r9, ip, sp, lr}^
    1148:	0200682e 	andeq	r6, r0, #3014656	; 0x2e0000
    114c:	05000000 	streq	r0, [r0, #-0]
    1150:	0205001a 	andeq	r0, r5, #26, 0
    1154:	00008ef0 	strdeq	r8, [r0], -r0
    1158:	14010515 	strne	r0, [r1], #-1301	; 0xfffffaeb
    115c:	01000202 	tsteq	r0, r2, lsl #4
    1160:	0000cd01 	andeq	ip, r0, r1, lsl #26
    1164:	5e000300 	cdppl	3, 0, cr0, cr0, cr0, {0}
    1168:	02000000 	andeq	r0, r0, #0, 0
    116c:	0d0efb01 	vstreq	d15, [lr, #-4]
    1170:	01010100 	mrseq	r0, (UNDEF: 17)
    1174:	00000001 	andeq	r0, r0, r1
    1178:	01000001 	tsteq	r0, r1
    117c:	74732f2e 	ldrbtvc	r2, [r3], #-3886	; 0xfffff0d2
    1180:	2d666661 	stclcs	6, cr6, [r6, #-388]!	; 0xfffffe7c
    1184:	00637273 	rsbeq	r7, r3, r3, ror r2
    1188:	6573552f 	ldrbvs	r5, [r3, #-1327]!	; 0xfffffad1
    118c:	6d2f7372 	stcvs	3, cr7, [pc, #-456]!	; fcc <__code_start__-0x7034>
    1190:	73656c69 	cmnvc	r5, #26880	; 0x6900
    1194:	756f532f 	strbvc	r5, [pc, #-815]!	; e6d <__code_start__-0x7193>
    1198:	2f656372 	svccs	0x00656372
    119c:	34327363 	ldrtcc	r7, [r2], #-867	; 0xfffffc9d
    11a0:	2f786c30 	svccs	0x00786c30
    11a4:	7062696c 	rsbvc	r6, r2, ip, ror #18
    11a8:	6e692f69 	cdpvs	15, 6, cr2, cr9, cr9, {3}
    11ac:	64756c63 	ldrbtvs	r6, [r5], #-3171	; 0xfffff39d
    11b0:	72000065 	andvc	r0, r0, #101, 0	; 0x65
    11b4:	6f6f6265 	svcvs	0x006f6265
    11b8:	00632e74 	rsbeq	r2, r3, r4, ror lr
    11bc:	72000001 	andvc	r0, r0, #1, 0
    11c0:	682e6970 	stmdavs	lr!, {r4, r5, r6, r8, fp, sp, lr}
    11c4:	00000200 	andeq	r0, r0, r0, lsl #4
    11c8:	00190500 	andseq	r0, r9, r0, lsl #10
    11cc:	8ef40205 	cdphi	2, 15, cr0, cr4, cr5, {0}
    11d0:	0d030000 	stceq	0, cr0, [r3, #-0]
    11d4:	13050501 	movwne	r0, #21761	; 0x5501
    11d8:	13053113 	movwne	r3, #20755	; 0x5113
    11dc:	01050106 	tsteq	r5, r6, lsl #2
    11e0:	061b052f 	ldreq	r0, [fp], -pc, lsr #10
    11e4:	13050585 	movwne	r0, #21893	; 0x5585
    11e8:	2f090514 	svccs	0x00090514
    11ec:	01061605 	tsteq	r6, r5, lsl #12
    11f0:	052e0e05 	streq	r0, [lr, #-3589]!	; 0xfffff1fb
    11f4:	052f0605 	streq	r0, [pc, #-1541]!	; bf7 <__code_start__-0x7409>
    11f8:	052f0601 	streq	r0, [pc, #-1537]!	; bff <__code_start__-0x7401>
    11fc:	05300617 	ldreq	r0, [r0, #-1559]!	; 0xfffff9e9
    1200:	08052f05 	stmdaeq	r5, {r0, r2, r8, r9, sl, fp, sp}
    1204:	07050106 	streq	r0, [r5, -r6, lsl #2]
    1208:	0605052e 	streq	r0, [r5], -lr, lsr #10
    120c:	4d2f3050 	stcmi	0, cr3, [pc, #-320]!	; 10d4 <__code_start__-0x6f2c>
    1210:	15131313 	ldrne	r1, [r3, #-787]	; 0xfffffced
    1214:	04020067 	streq	r0, [r2], #-103	; 0xffffff99
    1218:	0d056701 	stceq	7, cr6, [r5, #-4]
    121c:	01040200 	mrseq	r0, R12_usr
    1220:	000a0501 	andeq	r0, sl, r1, lsl #10
    1224:	01010402 	tsteq	r1, r2, lsl #8
    1228:	6d030905 	vstrvs.16	s0, [r3, #-10]	; <UNPREDICTABLE>
    122c:	000c022e 	andeq	r0, ip, lr, lsr #4
    1230:	00d40101 	sbcseq	r0, r4, r1, lsl #2
    1234:	00030000 	andeq	r0, r3, r0
    1238:	0000005d 	andeq	r0, r0, sp, asr r0
    123c:	0efb0102 	cdpeq	1, 15, cr0, cr11, cr2, {0}
    1240:	0101000d 	tsteq	r1, sp
    1244:	00000101 	andeq	r0, r0, r1, lsl #2
    1248:	00000100 	andeq	r0, r0, r0, lsl #2
    124c:	732f2e01 			; <UNDEFINED> instruction: 0x732f2e01
    1250:	66666174 			; <UNDEFINED> instruction: 0x66666174
    1254:	6372732d 	cmnvs	r2, #-1275068416	; 0xb4000000
    1258:	73552f00 	cmpvc	r5, #0, 30
    125c:	2f737265 	svccs	0x00737265
    1260:	656c696d 	strbvs	r6, [ip, #-2413]!	; 0xfffff693
    1264:	6f532f73 	svcvs	0x00532f73
    1268:	65637275 	strbvs	r7, [r3, #-629]!	; 0xfffffd8b
    126c:	3273632f 	rsbscc	r6, r3, #-1140850688	; 0xbc000000
    1270:	786c3034 	stmdavc	ip!, {r2, r4, r5, ip, sp}^
    1274:	62696c2f 	rsbvs	r6, r9, #12032	; 0x2f00
    1278:	692f6970 	stmdbvs	pc!, {r4, r5, r6, r8, fp, sp, lr}	; <UNPREDICTABLE>
    127c:	756c636e 	strbvc	r6, [ip, #-878]!	; 0xfffffc92
    1280:	00006564 	andeq	r6, r0, r4, ror #10
    1284:	656d6974 	strbvs	r6, [sp, #-2420]!	; 0xfffff68c
    1288:	00632e72 	rsbeq	r2, r3, r2, ror lr
    128c:	72000001 	andvc	r0, r0, #1, 0
    1290:	682e6970 	stmdavs	lr!, {r4, r5, r6, r8, fp, sp, lr}
    1294:	00000200 	andeq	r0, r0, r0, lsl #4
    1298:	00230500 	eoreq	r0, r3, r0, lsl #10
    129c:	8f740205 	svchi	0x00740205
    12a0:	05150000 	ldreq	r0, [r5, #-0]
    12a4:	0c052f05 	stceq	15, cr2, [r5], {5}
    12a8:	01050106 	tsteq	r5, r6, lsl #2
    12ac:	061f054b 	ldreq	r0, [pc], -fp, asr #10
    12b0:	3105054d 	tstcc	r5, sp, asr #10
    12b4:	0612052f 	ldreq	r0, [r2], -pc, lsr #10
    12b8:	06050501 	streq	r0, [r5], -r1, lsl #10
    12bc:	01052f4b 	tsteq	r5, fp, asr #30
    12c0:	1c051306 	stcne	3, cr1, [r5], {6}
    12c4:	01064c06 	tsteq	r6, r6, lsl #24
    12c8:	4b060505 	blmi	1826e4 <__bss_end__+0x17860c>
    12cc:	01061305 	tsteq	r6, r5, lsl #6
    12d0:	0605052e 	streq	r0, [r5], -lr, lsr #10
    12d4:	1309052f 	movwne	r0, #38191	; 0x952f
    12d8:	01061705 	tsteq	r6, r5, lsl #14
    12dc:	2f060905 	svccs	0x00060905
    12e0:	01061105 	tsteq	r6, r5, lsl #2
    12e4:	052e0c05 	streq	r0, [lr, #-3077]!	; 0xfffff3fb
    12e8:	066b061c 			; <UNDEFINED> instruction: 0x066b061c
    12ec:	06050501 	streq	r0, [r5], -r1, lsl #10
    12f0:	054a062f 	strbeq	r0, [sl, #-1583]	; 0xfffff9d1
    12f4:	1e054b01 	vmlane.f64	d4, d5, d1
    12f8:	01062f06 	tsteq	r6, r6, lsl #30
    12fc:	2f060505 	svccs	0x00060505
    1300:	01054a06 	tsteq	r5, r6, lsl #20
    1304:	0002024b 	andeq	r0, r2, fp, asr #4
    1308:	02040101 	andeq	r0, r4, #1073741824	; 0x40000000
    130c:	00030000 	andeq	r0, r3, r0
    1310:	000000c8 	andeq	r0, r0, r8, asr #1
    1314:	0efb0102 	cdpeq	1, 15, cr0, cr11, cr2, {0}
    1318:	0101000d 	tsteq	r1, sp
    131c:	00000101 	andeq	r0, r0, r1, lsl #2
    1320:	00000100 	andeq	r0, r0, r0, lsl #2
    1324:	6f682f01 	svcvs	0x00682f01
    1328:	652f656d 	strvs	r6, [pc, #-1389]!	; dc3 <__code_start__-0x723d>
    132c:	656c676e 	strbvs	r6, [ip, #-1902]!	; 0xfffff892
    1330:	6c632f72 	stclvs	15, cr2, [r3], #-456	; 0xfffffe38
    1334:	2f737361 	svccs	0x00737361
    1338:	34317363 	ldrtcc	r7, [r1], #-867	; 0xfffffc9d
    133c:	322d6530 	eorcc	r6, sp, #48, 10	; 0xc000000
    1340:	6e697732 	mcrvs	7, 3, r7, cr9, cr2, {1}
    1344:	696c2f2f 	stmdbvs	ip!, {r0, r1, r2, r3, r5, r8, r9, sl, fp, sp}^
    1348:	2f697062 	svccs	0x00697062
    134c:	6c636e69 	stclvs	14, cr6, [r3], #-420	; 0xfffffe5c
    1350:	00656475 	rsbeq	r6, r5, r5, ror r4
    1354:	7273752f 	rsbsvc	r7, r3, #197132288	; 0xbc00000
    1358:	6168732f 	cmnvs	r8, pc, lsr #6
    135c:	672f6572 			; <UNDEFINED> instruction: 0x672f6572
    1360:	612d6363 			; <UNDEFINED> instruction: 0x612d6363
    1364:	6e2d6d72 	mcrvs	13, 1, r6, cr13, cr2, {3}
    1368:	2d656e6f 	stclcs	14, cr6, [r5, #-444]!	; 0xfffffe44
    136c:	69626165 	stmdbvs	r2!, {r0, r2, r5, r6, r8, sp, lr}^
    1370:	2e30312d 	rsfcssp	f3, f0, #5.0
    1374:	30322d33 	eorscc	r2, r2, r3, lsr sp
    1378:	312e3132 			; <UNDEFINED> instruction: 0x312e3132
    137c:	696c2f30 	stmdbvs	ip!, {r4, r5, r8, r9, sl, fp, sp}^
    1380:	63672f62 	cmnvs	r7, #392	; 0x188
    1384:	72612f63 	rsbvc	r2, r1, #396	; 0x18c
    1388:	6f6e2d6d 	svcvs	0x006e2d6d
    138c:	652d656e 	strvs	r6, [sp, #-1390]!	; 0xfffffa92
    1390:	2f696261 	svccs	0x00696261
    1394:	332e3031 			; <UNDEFINED> instruction: 0x332e3031
    1398:	692f312e 	stmdbvs	pc!, {r1, r2, r3, r5, r8, ip, sp}	; <UNPREDICTABLE>
    139c:	756c636e 	strbvc	r6, [ip, #-878]!	; 0xfffffc92
    13a0:	00006564 	andeq	r6, r0, r4, ror #10
    13a4:	74726175 	ldrbtvc	r6, [r2], #-373	; 0xfffffe8b
    13a8:	0000632e 	andeq	r6, r0, lr, lsr #6
    13ac:	61750000 	cmnvs	r5, r0
    13b0:	682e7472 	stmdavs	lr!, {r1, r4, r5, r6, sl, ip, sp, lr}
    13b4:	00000100 	andeq	r0, r0, r0, lsl #2
    13b8:	2e697072 	mcrcs	0, 3, r7, cr9, cr2, {3}
    13bc:	00010068 	andeq	r0, r1, r8, rrx
    13c0:	69706700 	ldmdbvs	r0!, {r8, r9, sl, sp, lr}^
    13c4:	00682e6f 	rsbeq	r2, r8, pc, ror #28
    13c8:	73000001 	movwvc	r0, #1
    13cc:	6e696474 	mcrvs	4, 3, r6, cr9, cr4, {3}
    13d0:	63672d74 	cmnvs	r7, #116, 26	; 0x1d00
    13d4:	00682e63 	rsbeq	r2, r8, r3, ror #28
    13d8:	00000002 	andeq	r0, r0, r2
    13dc:	05003905 	streq	r3, [r0, #-2309]	; 0xfffff6fb
    13e0:	008ff802 	addeq	pc, pc, r2, lsl #16
    13e4:	01300300 	teqeq	r0, r0, lsl #6
    13e8:	05050106 	streq	r0, [r5, #-262]	; 0xfffffefa
    13ec:	11056706 	tstne	r5, r6, lsl #14
    13f0:	05050106 	streq	r0, [r5, #-262]	; 0xfffffefa
    13f4:	6701052e 	strvs	r0, [r1, -lr, lsr #10]
    13f8:	29063805 	stmdbcs	r6, {r0, r2, fp, ip, sp}
    13fc:	05050106 	streq	r0, [r5, #-262]	; 0xfffffefa
    1400:	11056706 	tstne	r5, r6, lsl #14
    1404:	05050106 	streq	r0, [r5, #-262]	; 0xfffffefa
    1408:	6701052e 	strvs	r0, [r1, -lr, lsr #10]
    140c:	03061605 	movweq	r1, #26117	; 0x6605
    1410:	05052e15 	streq	r2, [r5, #-3605]	; 0xfffff1eb
    1414:	35686735 	strbcc	r6, [r8, #-1845]!	; 0xfffff8cb
    1418:	2e0c0368 	cdpcs	3, 0, cr0, cr12, cr8, {3}
    141c:	69696b85 	stmdbvs	r9!, {r0, r2, r7, r8, r9, fp, sp, lr}^
    1420:	13660c03 	cmnne	r6, #768	; 0x300
    1424:	0105676b 	tsteq	r5, fp, ror #14
    1428:	19052f06 	stmdbne	r5, {r1, r2, r8, r9, sl, fp, sp}
    142c:	05250806 	streq	r0, [r5, #-2054]!	; 0xfffff7fa
    1430:	0d053405 	cfstrseq	mvf3, [r5, #-20]	; 0xffffffec
    1434:	01050106 	tsteq	r5, r6, lsl #2
    1438:	0619054c 	ldreq	r0, [r9], -ip, asr #10
    143c:	36050567 	strcc	r0, [r5], -r7, ror #10
    1440:	01060d05 	tsteq	r6, r5, lsl #26
    1444:	054a2805 	strbeq	r2, [sl, #-2053]	; 0xfffff7fb
    1448:	15053001 	strne	r3, [r5, #-1]
    144c:	05058706 	streq	r8, [r5, #-1798]	; 0xfffff8fa
    1450:	09052f2f 	stmdbeq	r5, {r0, r1, r2, r3, r5, r8, r9, sl, fp, sp}
    1454:	01040200 	mrseq	r0, R12_usr
    1458:	000a0513 	andeq	r0, sl, r3, lsl r5
    145c:	11010402 	tstne	r1, r2, lsl #8
    1460:	02000c05 	andeq	r0, r0, #1280	; 0x500
    1464:	01060104 	tsteq	r6, r4, lsl #2
    1468:	02000a05 	andeq	r0, r0, #20480	; 0x5000
    146c:	052e0104 	streq	r0, [lr, #-260]!	; 0xfffffefc
    1470:	054c0605 	strbeq	r0, [ip, #-1541]	; 0xfffff9fb
    1474:	0501060e 	streq	r0, [r1, #-1550]	; 0xfffff9f2
    1478:	05054a09 	streq	r4, [r5, #-2569]	; 0xfffff5f7
    147c:	052f2f06 	streq	r2, [pc, #-3846]!	; 57e <__code_start__-0x7a82>
    1480:	05130601 	ldreq	r0, [r3, #-1537]	; 0xfffff9ff
    1484:	0667061c 			; <UNDEFINED> instruction: 0x0667061c
    1488:	06050501 	streq	r0, [r5], -r1, lsl #10
    148c:	09052f4b 	stmdbeq	r5, {r0, r1, r3, r6, r8, r9, sl, fp, sp}
    1490:	01040200 	mrseq	r0, R12_usr
    1494:	000a0513 	andeq	r0, sl, r3, lsl r5
    1498:	11010402 	tstne	r1, r2, lsl #8
    149c:	02000c05 	andeq	r0, r0, #1280	; 0x500
    14a0:	01060104 	tsteq	r6, r4, lsl #2
    14a4:	02000a05 	andeq	r0, r0, #20480	; 0x5000
    14a8:	052e0104 	streq	r0, [lr, #-260]!	; 0xfffffefc
    14ac:	674c0605 	strbvs	r0, [ip, -r5, lsl #12]
    14b0:	2f060105 	svccs	0x00060105
    14b4:	4c061905 			; <UNDEFINED> instruction: 0x4c061905
    14b8:	052e1b05 	streq	r1, [lr, #-2821]!	; 0xfffff4fb
    14bc:	31052e2a 	tstcc	r5, sl, lsr #28
    14c0:	42050106 	andmi	r0, r5, #-2147483647	; 0x80000001
    14c4:	061c052e 	ldreq	r0, [ip], -lr, lsr #10
    14c8:	2f050531 	svccs	0x00050531
    14cc:	052e0903 	streq	r0, [lr, #-2307]!	; 0xfffff6fd
    14d0:	0501060e 	streq	r0, [r1, #-1550]	; 0xfffff9f2
    14d4:	01054a21 	tsteq	r5, r1, lsr #20
    14d8:	052e0a03 	streq	r0, [lr, #-2563]!	; 0xfffff5fd
    14dc:	0568061a 	strbeq	r0, [r8, #-1562]!	; 0xfffff9e6
    14e0:	04020009 	streq	r0, [r2], #-9
    14e4:	0a053001 	beq	14d4f0 <__bss_end__+0x143418>
    14e8:	01040200 	mrseq	r0, R12_usr
    14ec:	000c0511 	andeq	r0, ip, r1, lsl r5
    14f0:	06010402 	streq	r0, [r1], -r2, lsl #8
    14f4:	000a0501 	andeq	r0, sl, r1, lsl #10
    14f8:	2e010402 	cdpcs	4, 0, cr0, cr1, cr2, {0}
    14fc:	03061905 	movweq	r1, #26885	; 0x6905
    1500:	05667ee8 	strbeq	r7, [r6, #-3816]!	; 0xfffff118
    1504:	2f2f2f05 	svccs	0x002f2f05
    1508:	06010567 	streq	r0, [r1], -r7, ror #10
    150c:	0004022f 	andeq	r0, r4, pc, lsr #4
    1510:	03920101 	orrseq	r0, r2, #1073741824	; 0x40000000
    1514:	00030000 	andeq	r0, r3, r0
    1518:	000000b7 	strheq	r0, [r0], -r7
    151c:	0efb0102 	cdpeq	1, 15, cr0, cr11, cr2, {0}
    1520:	0101000d 	tsteq	r1, sp
    1524:	00000101 	andeq	r0, r0, r1, lsl #2
    1528:	00000100 	andeq	r0, r0, r0, lsl #2
    152c:	6f682f01 	svcvs	0x00682f01
    1530:	652f656d 	strvs	r6, [pc, #-1389]!	; fcb <__code_start__-0x7035>
    1534:	656c676e 	strbvs	r6, [ip, #-1902]!	; 0xfffff892
    1538:	6c632f72 	stclvs	15, cr2, [r3], #-456	; 0xfffffe38
    153c:	2f737361 	svccs	0x00737361
    1540:	34317363 	ldrtcc	r7, [r1], #-867	; 0xfffffc9d
    1544:	322d6530 	eorcc	r6, sp, #48, 10	; 0xc000000
    1548:	6e697732 	mcrvs	7, 3, r7, cr9, cr2, {1}
    154c:	696c2f2f 	stmdbvs	ip!, {r0, r1, r2, r3, r5, r8, r9, sl, fp, sp}^
    1550:	2f697062 	svccs	0x00697062
    1554:	6c636e69 	stclvs	14, cr6, [r3], #-420	; 0xfffffe5c
    1558:	00656475 	rsbeq	r6, r5, r5, ror r4
    155c:	7273752f 	rsbsvc	r7, r3, #197132288	; 0xbc00000
    1560:	6168732f 	cmnvs	r8, pc, lsr #6
    1564:	672f6572 			; <UNDEFINED> instruction: 0x672f6572
    1568:	612d6363 			; <UNDEFINED> instruction: 0x612d6363
    156c:	6e2d6d72 	mcrvs	13, 1, r6, cr13, cr2, {3}
    1570:	2d656e6f 	stclcs	14, cr6, [r5, #-444]!	; 0xfffffe44
    1574:	69626165 	stmdbvs	r2!, {r0, r2, r5, r6, r8, sp, lr}^
    1578:	2e30312d 	rsfcssp	f3, f0, #5.0
    157c:	30322d33 	eorscc	r2, r2, r3, lsr sp
    1580:	312e3132 			; <UNDEFINED> instruction: 0x312e3132
    1584:	696c2f30 	stmdbvs	ip!, {r4, r5, r8, r9, sl, fp, sp}^
    1588:	63672f62 	cmnvs	r7, #392	; 0x188
    158c:	72612f63 	rsbvc	r2, r1, #396	; 0x18c
    1590:	6f6e2d6d 	svcvs	0x006e2d6d
    1594:	652d656e 	strvs	r6, [sp, #-1390]!	; 0xfffffa92
    1598:	2f696261 	svccs	0x00696261
    159c:	332e3031 			; <UNDEFINED> instruction: 0x332e3031
    15a0:	692f312e 	stmdbvs	pc!, {r1, r2, r3, r5, r8, ip, sp}	; <UNPREDICTABLE>
    15a4:	756c636e 	strbvc	r6, [ip, #-878]!	; 0xfffffc92
    15a8:	00006564 	andeq	r6, r0, r4, ror #10
    15ac:	6c616d6b 	stclvs	13, cr6, [r1], #-428	; 0xfffffe54
    15b0:	2e636f6c 	cdpcs	15, 6, cr6, cr3, cr12, {3}
    15b4:	00000063 	andeq	r0, r0, r3, rrx
    15b8:	69707200 	ldmdbvs	r0!, {r9, ip, sp, lr}^
    15bc:	0100682e 	tsteq	r0, lr, lsr #16
    15c0:	74730000 	ldrbtvc	r0, [r3], #-0
    15c4:	746e6964 	strbtvc	r6, [lr], #-2404	; 0xfffff69c
    15c8:	6363672d 	cmnvs	r3, #11796480	; 0xb40000
    15cc:	0200682e 	andeq	r6, r0, #3014656	; 0x2e0000
    15d0:	05000000 	streq	r0, [r0, #-0]
    15d4:	0205001e 	andeq	r0, r5, #30, 0
    15d8:	000091e8 	andeq	r9, r0, r8, ror #3
    15dc:	05012703 	streq	r2, [r1, #-1795]	; 0xfffff8fd
    15e0:	2d050120 	stfcss	f0, [r5, #-128]	; 0xffffff80
    15e4:	20050106 	andcs	r0, r5, r6, lsl #2
    15e8:	22058306 	andcs	r8, r5, #402653184	; 0x18000000
    15ec:	06350501 	ldrteq	r0, [r5], -r1, lsl #10
    15f0:	061e0501 	ldreq	r0, [lr], -r1, lsl #10
    15f4:	01200583 	smlawbeq	r0, r3, r5, r0
    15f8:	01062d05 	tsteq	r6, r5, lsl #26
    15fc:	85064205 	strhi	r4, [r6, #-517]	; 0xfffffdfb
    1600:	05050106 	streq	r0, [r5, #-262]	; 0xfffffefa
    1604:	01144b06 	tsteq	r4, r6, lsl #22
    1608:	02002e06 	andeq	r2, r0, #96	; 0x60
    160c:	2e060204 	cdpcs	2, 0, cr0, cr6, cr4, {0}
    1610:	02040200 	andeq	r0, r4, #0, 4
    1614:	04020001 	streq	r0, [r2], #-1
    1618:	0d051502 	cfstr32eq	mvfx1, [r5, #-8]
    161c:	02040200 	andeq	r0, r4, #0, 4
    1620:	07050106 	streq	r0, [r5, -r6, lsl #2]
    1624:	02040200 	andeq	r0, r4, #0, 4
    1628:	0609054a 	streq	r0, [r9], -sl, asr #10
    162c:	1505054b 	strne	r0, [r5, #-1355]	; 0xfffffab5
    1630:	01061705 	tsteq	r6, r5, lsl #14
    1634:	054a1005 	strbeq	r1, [sl, #-5]
    1638:	052f0605 	streq	r0, [pc, #-1541]!	; 103b <__code_start__-0x6fc5>
    163c:	0501061b 	streq	r0, [r1, #-1563]	; 0xfffff9e5
    1640:	01052e0e 	tsteq	r5, lr, lsl #28
    1644:	0005052f 	andeq	r0, r5, pc, lsr #10
    1648:	06010402 	streq	r0, [r1], -r2, lsl #8
    164c:	004a7703 	subeq	r7, sl, r3, lsl #14
    1650:	01010402 	tsteq	r1, r2, lsl #8
    1654:	01040200 	mrseq	r0, R12_usr
    1658:	02009e06 	andeq	r9, r0, #96	; 0x60
    165c:	002e0104 	eoreq	r0, lr, r4, lsl #2
    1660:	06010402 	streq	r0, [r1], -r2, lsl #8
    1664:	3209052e 	andcc	r0, r9, #192937984	; 0xb800000
    1668:	2ed60601 	cdpcs	6, 13, cr0, cr6, cr1, {0}
    166c:	19052e06 	stmdbne	r5, {r1, r2, r9, sl, fp, sp}
    1670:	2f0505de 	svccs	0x000505de
    1674:	06080514 			; <UNDEFINED> instruction: 0x06080514
    1678:	4a070501 	bmi	1c2a84 <__bss_end__+0x1b89ac>
    167c:	4b060905 	blmi	183a98 <__bss_end__+0x1799c0>
    1680:	05130505 	ldreq	r0, [r3, #-1285]	; 0xfffffafb
    1684:	0501060c 	streq	r0, [r1, #-1548]	; 0xfffff9f4
    1688:	13670605 	cmnne	r7, #5242880	; 0x500000
    168c:	67060105 	strvs	r0, [r6, -r5, lsl #2]
    1690:	2a060905 	bcs	183aac <__bss_end__+0x1799d4>
    1694:	28059e01 	stmdacs	r5, {r0, r9, sl, fp, ip, pc}
    1698:	050106a5 	streq	r0, [r1, #-1701]	; 0xfffff95b
    169c:	014b0605 	cmpeq	fp, r5, lsl #12
    16a0:	2e062e06 	cdpcs	14, 0, cr2, cr6, cr6, {0}
    16a4:	18051301 	stmdane	r5, {r0, r8, r9, ip}
    16a8:	05014703 	streq	r4, [r1, #-1795]	; 0xfffff8fd
    16ac:	06011305 	streq	r1, [r1], -r5, lsl #6
    16b0:	150f0601 	strne	r0, [pc, #-1537]	; 10b7 <__code_start__-0x6f49>
    16b4:	0e051301 	cdpeq	3, 0, cr1, cr5, cr1, {0}
    16b8:	16050106 	strne	r0, [r5], -r6, lsl #2
    16bc:	05052e2e 	streq	r2, [r5, #-3630]	; 0xfffff1d2
    16c0:	01390306 	teqeq	r9, r6, lsl #6
    16c4:	01060b05 	tsteq	r6, r5, lsl #22
    16c8:	4b060505 	blmi	182ae4 <__bss_end__+0x178a0c>
    16cc:	01060a05 	tsteq	r6, r5, lsl #20
    16d0:	4b060505 	blmi	182aec <__bss_end__+0x178a14>
    16d4:	01060d05 	tsteq	r6, r5, lsl #26
    16d8:	052e0705 	streq	r0, [lr, #-1797]!	; 0xfffff8fb
    16dc:	05054d01 	streq	r4, [r5, #-3329]	; 0xfffff2ff
    16e0:	01040200 	mrseq	r0, R12_usr
    16e4:	4a780306 	bmi	1e02304 <__bss_end__+0x1df822c>
    16e8:	01040200 	mrseq	r0, R12_usr
    16ec:	04020001 	streq	r0, [r2], #-1
    16f0:	00ba0601 	adcseq	r0, sl, r1, lsl #12
    16f4:	06010402 	streq	r0, [r1], -r2, lsl #8
    16f8:	3409052e 	strcc	r0, [r9], #-1326	; 0xfffffad2
    16fc:	66820601 	strvs	r0, [r2], r1, lsl #12
    1700:	20052e06 	andcs	r2, r5, r6, lsl #28
    1704:	050106db 	streq	r0, [r1, #-1755]	; 0xfffff925
    1708:	014b0605 	cmpeq	fp, r5, lsl #12
    170c:	02040200 	andeq	r0, r4, #0, 4
    1710:	0402004a 	streq	r0, [r2], #-74	; 0xffffffb6
    1714:	02000102 	andeq	r0, r0, #-2147483648	; 0x80000000
    1718:	05130204 	ldreq	r0, [r3, #-516]	; 0xfffffdfc
    171c:	04020012 	streq	r0, [r2], #-18	; 0xffffffee
    1720:	00010602 	andeq	r0, r1, r2, lsl #12
    1724:	2e020402 	cdpcs	4, 0, cr0, cr2, cr2, {0}
    1728:	02040200 	andeq	r0, r4, #0, 4
    172c:	0005052e 	andeq	r0, r5, lr, lsr #10
    1730:	06020402 	streq	r0, [r2], -r2, lsl #8
    1734:	0402002f 	streq	r0, [r2], #-47	; 0xffffffd1
    1738:	01056702 	tsteq	r5, r2, lsl #14
    173c:	02040200 	andeq	r0, r4, #0, 4
    1740:	05051306 	streq	r1, [r5, #-774]	; 0xfffffcfa
    1744:	01040200 	mrseq	r0, R12_usr
    1748:	02006206 	andeq	r6, r0, #1610612736	; 0x60000000
    174c:	00010104 	andeq	r0, r1, r4, lsl #2
    1750:	06010402 	streq	r0, [r1], -r2, lsl #8
    1754:	040200ba 	streq	r0, [r2], #-186	; 0xffffff46
    1758:	052e0601 	streq	r0, [lr, #-1537]!	; 0xfffff9ff
    175c:	9e0a033c 	mcrls	3, 0, r0, cr10, cr12, {1}
    1760:	05050106 	streq	r0, [r5, #-262]	; 0xfffffefa
    1764:	06014b06 	streq	r4, [r1], -r6, lsl #22
    1768:	012e062e 			; <UNDEFINED> instruction: 0x012e062e
    176c:	18050113 	stmdane	r5, {r0, r1, r4, r8}
    1770:	017fad03 	cmneq	pc, r3, lsl #26
    1774:	05130505 	ldreq	r0, [r3, #-1285]	; 0xfffffafb
    1778:	2e010611 	mcrcs	6, 0, r0, cr1, cr1, {0}
    177c:	d2030505 	andle	r0, r3, #20971520	; 0x1400000
    1780:	4a060100 	bmi	181b88 <__bss_end__+0x177ab0>
    1784:	03180513 	tsteq	r8, #79691776	; 0x4c00000
    1788:	05017fa3 	streq	r7, [r1, #-4003]	; 0xfffff05d
    178c:	16051305 	strne	r1, [r5], -r5, lsl #6
    1790:	054a0106 	strbeq	r0, [sl, #-262]	; 0xfffffefa
    1794:	e1030605 	tst	r3, r5, lsl #12
    1798:	12050100 	andne	r0, r5, #0
    179c:	05050106 	streq	r0, [r5, #-262]	; 0xfffffefa
    17a0:	18054b06 	stmdane	r5, {r1, r2, r8, r9, fp, lr}
    17a4:	017fa903 	cmneq	pc, r3, lsl #18
    17a8:	01130505 	tsteq	r3, r5, lsl #10
    17ac:	050e1805 	streq	r1, [lr, #-2053]	; 0xfffff7fb
    17b0:	11051305 	tstne	r5, r5, lsl #6
    17b4:	052e0106 	streq	r0, [lr, #-262]!	; 0xfffffefa
    17b8:	4a061505 	bmi	186bd4 <__bss_end__+0x17cafc>
    17bc:	0e051301 	cdpeq	3, 0, cr1, cr5, cr1, {0}
    17c0:	052e0106 	streq	r0, [lr, #-262]!	; 0xfffffefa
    17c4:	052e2e16 	streq	r2, [lr, #-3606]!	; 0xfffff1ea
    17c8:	d6030605 	strle	r0, [r3], -r5, lsl #12
    17cc:	05010100 	streq	r0, [r1, #-256]	; 0xffffff00
    17d0:	7f9f0318 	svcvc	0x009f0318
    17d4:	13050501 	movwne	r0, #21761	; 0x5501
    17d8:	01061905 	tsteq	r6, r5, lsl #18
    17dc:	0305052e 	movweq	r0, #21806	; 0x552e
    17e0:	000100e0 	andeq	r0, r1, r0, ror #1
    17e4:	06020402 	streq	r0, [r2], -r2, lsl #8
    17e8:	0402004a 	streq	r0, [r2], #-74	; 0xffffffb6
    17ec:	0a051402 	beq	1467fc <__bss_end__+0x13c724>
    17f0:	02040200 	andeq	r0, r4, #0, 4
    17f4:	05050106 	streq	r0, [r5, #-262]	; 0xfffffefa
    17f8:	02040200 	andeq	r0, r4, #0, 4
    17fc:	0c054b06 			; <UNDEFINED> instruction: 0x0c054b06
    1800:	02040200 	andeq	r0, r4, #0, 4
    1804:	01050106 	tsteq	r5, r6, lsl #2
    1808:	02040200 	andeq	r0, r4, #0, 4
    180c:	0005052f 	andeq	r0, r5, pc, lsr #10
    1810:	06010402 	streq	r0, [r1], -r2, lsl #8
    1814:	004a7303 	subeq	r7, sl, r3, lsl #6
    1818:	01010402 	tsteq	r1, r2, lsl #8
    181c:	01040200 	mrseq	r0, R12_usr
    1820:	02009e06 	andeq	r9, r0, #96	; 0x60
    1824:	002e0104 	eoreq	r0, lr, r4, lsl #2
    1828:	06010402 	streq	r0, [r1], -r2, lsl #8
    182c:	0402002e 	streq	r0, [r2], #-46	; 0xffffffd2
    1830:	02002f01 	andeq	r2, r0, #1, 30
    1834:	002e0104 	eoreq	r0, lr, r4, lsl #2
    1838:	d6010402 	strle	r0, [r1], -r2, lsl #8
    183c:	2e7fb103 	expcse	f3, f3
    1840:	2e820601 	cdpcs	6, 8, cr0, cr2, cr1, {0}
    1844:	062e062e 	strteq	r0, [lr], -lr, lsr #12
    1848:	0402002e 	streq	r0, [r2], #-46	; 0xffffffd2
    184c:	d7030601 	strle	r0, [r3, -r1, lsl #12]
    1850:	02000100 	andeq	r0, r0, #0
    1854:	002e0104 	eoreq	r0, lr, r4, lsl #2
    1858:	d6010402 	strle	r0, [r1], -r2, lsl #8
    185c:	7b081505 	blvc	206c78 <__bss_end__+0x1fcba0>
    1860:	05011705 	streq	r1, [r1, #-1797]	; 0xfffff8fb
    1864:	18053116 	stmdane	r5, {r1, r2, r4, r8, ip, sp}
    1868:	061d0501 	ldreq	r0, [sp], -r1, lsl #10
    186c:	662b0501 	strtvs	r0, [fp], -r1, lsl #10
    1870:	4d061905 	vstrmi.16	s2, [r6, #-10]	; <UNPREDICTABLE>
    1874:	05130505 	ldreq	r0, [r3, #-1285]	; 0xfffffafb
    1878:	0501060c 	streq	r0, [r1, #-1548]	; 0xfffff9f4
    187c:	25054a07 	strcs	r4, [r5, #-2567]	; 0xfffff5f9
    1880:	01040200 	mrseq	r0, R12_usr
    1884:	001e054a 	andseq	r0, lr, sl, asr #10
    1888:	4a010402 	bmi	42898 <__bss_end__+0x387c0>
    188c:	4b060905 	blmi	183ca8 <__bss_end__+0x179bd0>
    1890:	05130505 	ldreq	r0, [r3, #-1285]	; 0xfffffafb
    1894:	0501060a 	streq	r0, [r1, #-1546]	; 0xfffff9f6
    1898:	09056319 	stmdbeq	r5, {r0, r3, r4, r8, r9, sp, lr}
    189c:	06014c06 	streq	r4, [r1], -r6, lsl #24
    18a0:	022e069e 	eoreq	r0, lr, #165675008	; 0x9e00000
    18a4:	0101000a 	tsteq	r1, sl
    18a8:	000000f1 	strdeq	r0, [r0], -r1
    18ac:	00c10003 	sbceq	r0, r1, r3
    18b0:	01020000 	mrseq	r0, (UNDEF: 2)
    18b4:	000d0efb 	strdeq	r0, [sp], -fp
    18b8:	01010101 	tsteq	r1, r1, lsl #2
    18bc:	01000000 	mrseq	r0, (UNDEF: 0)
    18c0:	2e010000 	cdpcs	0, 0, cr0, cr1, cr0, {0}
    18c4:	62696c2f 	rsbvs	r6, r9, #12032	; 0x2f00
    18c8:	552f0063 	strpl	r0, [pc, #-99]!	; 186d <__code_start__-0x6793>
    18cc:	73726573 	cmnvc	r2, #482344960	; 0x1cc00000
    18d0:	6c696d2f 	stclvs	13, cr6, [r9], #-188	; 0xffffff44
    18d4:	532f7365 			; <UNDEFINED> instruction: 0x532f7365
    18d8:	6372756f 	cmnvs	r2, #465567744	; 0x1bc00000
    18dc:	73632f65 	cmnvc	r3, #404	; 0x194
    18e0:	6c303432 	cfldrsvs	mvf3, [r0], #-200	; 0xffffff38
    18e4:	696c2f78 	stmdbvs	ip!, {r3, r4, r5, r6, r8, r9, sl, fp, sp}^
    18e8:	2f697062 	svccs	0x00697062
    18ec:	6c636e69 	stclvs	14, cr6, [r3], #-420	; 0xfffffe5c
    18f0:	00656475 	rsbeq	r6, r5, r5, ror r4
    18f4:	74706f2f 	ldrbtvc	r6, [r0], #-3887	; 0xfffff0d1
    18f8:	6d6f682f 	stclvs	8, cr6, [pc, #-188]!	; 1844 <__code_start__-0x67bc>
    18fc:	65726265 	ldrbvs	r6, [r2, #-613]!	; 0xfffffd9b
    1900:	65432f77 	strbvs	r2, [r3, #-3959]	; 0xfffff089
    1904:	72616c6c 	rsbvc	r6, r1, #108, 24	; 0x6c00
    1908:	6d72612f 	ldfvse	f6, [r2, #-188]!	; 0xffffff44
    190c:	6e6f6e2d 	cdpvs	14, 6, cr6, cr15, cr13, {1}
    1910:	61652d65 	cmnvs	r5, r5, ror #26
    1914:	742d6962 	strtvc	r6, [sp], #-2402	; 0xfffff69e
    1918:	2f747365 	svccs	0x00747365
    191c:	30322d39 	eorscc	r2, r2, r9, lsr sp
    1920:	34713931 	ldrbtcc	r3, [r1], #-2353	; 0xfffff6cf
    1924:	3173632d 	cmncc	r3, sp, lsr #6
    1928:	2f653730 	svccs	0x00653730
    192c:	2f62696c 	svccs	0x0062696c
    1930:	2f636367 	svccs	0x00636367
    1934:	2d6d7261 	sfmcs	f7, 2, [sp, #-388]!	; 0xfffffe7c
    1938:	656e6f6e 	strbvs	r6, [lr, #-3950]!	; 0xfffff092
    193c:	6261652d 	rsbvs	r6, r1, #188743680	; 0xb400000
    1940:	2e392f69 	cdpcs	15, 3, cr2, cr9, cr9, {3}
    1944:	2f312e32 	svccs	0x00312e32
    1948:	6c636e69 	stclvs	14, cr6, [r3], #-420	; 0xfffffe5c
    194c:	00656475 	rsbeq	r6, r5, r5, ror r4
    1950:	6d656d00 	stclvs	13, cr6, [r5, #-0]
    1954:	2e746573 	mrccs	5, 3, r6, cr4, cr3, {3}
    1958:	00010063 	andeq	r0, r1, r3, rrx
    195c:	69707200 	ldmdbvs	r0!, {r9, ip, sp, lr}^
    1960:	0200682e 	andeq	r6, r0, #3014656	; 0x2e0000
    1964:	74730000 	ldrbtvc	r0, [r3], #-0
    1968:	66656464 	strbtvs	r6, [r5], -r4, ror #8
    196c:	0300682e 	movweq	r6, #2094	; 0x82e
    1970:	05000000 	streq	r0, [r0, #-0]
    1974:	02050029 	andeq	r0, r5, #41, 0	; 0x29
    1978:	00009598 	muleq	r0, r8, r5
    197c:	13050515 	movwne	r0, #21781	; 0x5515
    1980:	01061405 	tsteq	r6, r5, lsl #8
    1984:	30060505 	andcc	r0, r6, r5, lsl #10
    1988:	10060b05 	andne	r0, r6, r5, lsl #22
    198c:	30060a05 	andcc	r0, r6, r5, lsl #20
    1990:	054b0905 	strbeq	r0, [fp, #-2309]	; 0xfffff6fb
    1994:	2e01060e 	cfmadd32cs	mvax0, mvfx0, mvfx1, mvfx14
    1998:	01000202 	tsteq	r0, r2, lsl #4
    199c:	0000e401 	andeq	lr, r0, r1, lsl #8
    19a0:	59000300 	stmdbpl	r0, {r8, r9}
    19a4:	02000000 	andeq	r0, r0, #0, 0
    19a8:	0d0efb01 	vstreq	d15, [lr, #-4]
    19ac:	01010100 	mrseq	r0, (UNDEF: 17)
    19b0:	00000001 	andeq	r0, r0, r1
    19b4:	01000001 	tsteq	r0, r1
    19b8:	696c2f2e 	stmdbvs	ip!, {r1, r2, r3, r5, r8, r9, sl, fp, sp}^
    19bc:	2f006362 	svccs	0x00006362
    19c0:	72657355 	rsbvc	r7, r5, #1409286145	; 0x54000001
    19c4:	696d2f73 	stmdbvs	sp!, {r0, r1, r4, r5, r6, r8, r9, sl, fp, sp}^
    19c8:	2f73656c 	svccs	0x0073656c
    19cc:	72756f53 	rsbsvc	r6, r5, #332	; 0x14c
    19d0:	632f6563 			; <UNDEFINED> instruction: 0x632f6563
    19d4:	30343273 	eorscc	r3, r4, r3, ror r2
    19d8:	6c2f786c 	stcvs	8, cr7, [pc], #-432	; 1830 <__code_start__-0x67d0>
    19dc:	69706269 	ldmdbvs	r0!, {r0, r3, r5, r6, r9, sp, lr}^
    19e0:	636e692f 	cmnvs	lr, #770048	; 0xbc000
    19e4:	6564756c 	strbvs	r7, [r4, #-1388]!	; 0xfffffa94
    19e8:	74730000 	ldrbtvc	r0, [r3], #-0
    19ec:	74616372 	strbtvc	r6, [r1], #-882	; 0xfffffc8e
    19f0:	0100632e 	tsteq	r0, lr, lsr #6
    19f4:	70720000 	rsbsvc	r0, r2, r0
    19f8:	00682e69 	rsbeq	r2, r8, r9, ror #28
    19fc:	00000002 	andeq	r0, r0, r2
    1a00:	05002c05 	streq	r2, [r0, #-3077]	; 0xfffff3fb
    1a04:	0095b002 	addseq	fp, r5, r2
    1a08:	05051500 	streq	r1, [r5, #-1280]	; 0xfffffb00
    1a0c:	0b051313 	bleq	146660 <__bss_end__+0x13c588>
    1a10:	05051106 	streq	r1, [r5, #-262]	; 0xfffffefa
    1a14:	01040200 	mrseq	r0, R12_usr
    1a18:	02003006 	andeq	r3, r0, #6, 0
    1a1c:	05150104 	ldreq	r0, [r5, #-260]	; 0xfffffefc
    1a20:	04020009 	streq	r0, [r2], #-9
    1a24:	10051301 	andne	r1, r5, r1, lsl #6
    1a28:	01040200 	mrseq	r0, R12_usr
    1a2c:	0b052e06 	bleq	14d24c <__bss_end__+0x143174>
    1a30:	01040200 	mrseq	r0, R12_usr
    1a34:	0402002e 	streq	r0, [r2], #-46	; 0xffffffd2
    1a38:	052f0601 	streq	r0, [pc, #-1537]!	; 143f <__code_start__-0x6bc1>
    1a3c:	04020005 	streq	r0, [r2], #-5
    1a40:	06010601 	streq	r0, [r1], -r1, lsl #12
    1a44:	0608054e 	streq	r0, [r8], -lr, asr #10
    1a48:	00050501 	andeq	r0, r5, r1, lsl #10
    1a4c:	06010402 	streq	r0, [r1], -r2, lsl #8
    1a50:	0009052f 	andeq	r0, r9, pc, lsr #10
    1a54:	13010402 	movwne	r0, #5122	; 0x1402
    1a58:	02000b05 	andeq	r0, r0, #5120	; 0x1400
    1a5c:	01060104 	tsteq	r6, r4, lsl #2
    1a60:	02000905 	andeq	r0, r0, #81920	; 0x14000
    1a64:	4b060104 	blmi	181e7c <__bss_end__+0x177da4>
    1a68:	02000f05 	andeq	r0, r0, #5, 30
    1a6c:	01060104 	tsteq	r6, r4, lsl #2
    1a70:	02000d05 	andeq	r0, r0, #320	; 0x140
    1a74:	2f060104 	svccs	0x00060104
    1a78:	02000505 	andeq	r0, r0, #20971520	; 0x1400000
    1a7c:	01060104 	tsteq	r6, r4, lsl #2
    1a80:	01000602 	tsteq	r0, r2, lsl #12
    1a84:	00009d01 	andeq	r9, r0, r1, lsl #26
    1a88:	59000300 	stmdbpl	r0, {r8, r9}
    1a8c:	02000000 	andeq	r0, r0, #0, 0
    1a90:	0d0efb01 	vstreq	d15, [lr, #-4]
    1a94:	01010100 	mrseq	r0, (UNDEF: 17)
    1a98:	00000001 	andeq	r0, r0, r1
    1a9c:	01000001 	tsteq	r0, r1
    1aa0:	696c2f2e 	stmdbvs	ip!, {r1, r2, r3, r5, r8, r9, sl, fp, sp}^
    1aa4:	2f006362 	svccs	0x00006362
    1aa8:	72657355 	rsbvc	r7, r5, #1409286145	; 0x54000001
    1aac:	696d2f73 	stmdbvs	sp!, {r0, r1, r4, r5, r6, r8, r9, sl, fp, sp}^
    1ab0:	2f73656c 	svccs	0x0073656c
    1ab4:	72756f53 	rsbsvc	r6, r5, #332	; 0x14c
    1ab8:	632f6563 			; <UNDEFINED> instruction: 0x632f6563
    1abc:	30343273 	eorscc	r3, r4, r3, ror r2
    1ac0:	6c2f786c 	stcvs	8, cr7, [pc], #-432	; 1918 <__code_start__-0x66e8>
    1ac4:	69706269 	ldmdbvs	r0!, {r0, r3, r5, r6, r9, sp, lr}^
    1ac8:	636e692f 	cmnvs	lr, #770048	; 0xbc000
    1acc:	6564756c 	strbvs	r7, [r4, #-1388]!	; 0xfffffa94
    1ad0:	74730000 	ldrbtvc	r0, [r3], #-0
    1ad4:	706d6372 	rsbvc	r6, sp, r2, ror r3
    1ad8:	0100632e 	tsteq	r0, lr, lsr #6
    1adc:	70720000 	rsbsvc	r0, r2, r0
    1ae0:	00682e69 	rsbeq	r2, r8, r9, ror #28
    1ae4:	00000002 	andeq	r0, r0, r2
    1ae8:	05002a05 	streq	r2, [r0, #-2565]	; 0xfffff5fb
    1aec:	0095e402 	addseq	lr, r5, r2, lsl #8
    1af0:	09051400 	stmdbeq	r5, {sl, ip}
    1af4:	010f0513 	tsteq	pc, r3, lsl r5	; <UNPREDICTABLE>
    1af8:	01061005 	tsteq	r6, r5
    1afc:	052e0f05 	streq	r0, [lr, #-3845]!	; 0xfffff0fb
    1b00:	0402001c 	streq	r0, [r2], #-28	; 0xffffffe4
    1b04:	13054a01 	movwne	r4, #23041	; 0x5a01
    1b08:	01040200 	mrseq	r0, R12_usr
    1b0c:	0611052e 	ldreq	r0, [r1], -lr, lsr #10
    1b10:	0616052f 	ldreq	r0, [r6], -pc, lsr #10
    1b14:	09052e2e 	stmdbeq	r5, {r1, r2, r3, r5, r9, sl, fp, sp}
    1b18:	15052f06 	strne	r2, [r5, #-3846]	; 0xfffff0fa
    1b1c:	01050106 	tsteq	r5, r6, lsl #2
    1b20:	0004022f 	andeq	r0, r4, pc, lsr #4
    1b24:	009b0101 	addseq	r0, fp, r1, lsl #2
    1b28:	00030000 	andeq	r0, r3, r0
    1b2c:	00000059 	andeq	r0, r0, r9, asr r0
    1b30:	0efb0102 	cdpeq	1, 15, cr0, cr11, cr2, {0}
    1b34:	0101000d 	tsteq	r1, sp
    1b38:	00000101 	andeq	r0, r0, r1, lsl #2
    1b3c:	00000100 	andeq	r0, r0, r0, lsl #2
    1b40:	6c2f2e01 	stcvs	14, cr2, [pc], #-4	; 1b44 <__code_start__-0x64bc>
    1b44:	00636269 	rsbeq	r6, r3, r9, ror #4
    1b48:	6573552f 	ldrbvs	r5, [r3, #-1327]!	; 0xfffffad1
    1b4c:	6d2f7372 	stcvs	3, cr7, [pc, #-456]!	; 198c <__code_start__-0x6674>
    1b50:	73656c69 	cmnvc	r5, #26880	; 0x6900
    1b54:	756f532f 	strbvc	r5, [pc, #-815]!	; 182d <__code_start__-0x67d3>
    1b58:	2f656372 	svccs	0x00656372
    1b5c:	34327363 	ldrtcc	r7, [r2], #-867	; 0xfffffc9d
    1b60:	2f786c30 	svccs	0x00786c30
    1b64:	7062696c 	rsbvc	r6, r2, ip, ror #18
    1b68:	6e692f69 	cdpvs	15, 6, cr2, cr9, cr9, {3}
    1b6c:	64756c63 	ldrbtvs	r6, [r5], #-3171	; 0xfffff39d
    1b70:	73000065 	movwvc	r0, #101	; 0x65
    1b74:	70637274 	rsbvc	r7, r3, r4, ror r2
    1b78:	00632e79 	rsbeq	r2, r3, r9, ror lr
    1b7c:	72000001 	andvc	r0, r0, #1, 0
    1b80:	682e6970 	stmdavs	lr!, {r4, r5, r6, r8, fp, sp, lr}
    1b84:	00000200 	andeq	r0, r0, r0, lsl #4
    1b88:	002a0500 	eoreq	r0, sl, r0, lsl #10
    1b8c:	96100205 	ldrls	r0, [r0], -r5, lsl #4
    1b90:	05140000 	ldreq	r0, [r4, #-0]
    1b94:	05131305 	ldreq	r1, [r3, #-773]	; 0xfffffcfb
    1b98:	05110614 	ldreq	r0, [r1, #-1556]	; 0xfffff9ec
    1b9c:	04020022 	streq	r0, [r2], #-34	; 0xffffffde
    1ba0:	052f0601 	streq	r0, [pc, #-1537]!	; 15a7 <__code_start__-0x6a59>
    1ba4:	0402000b 	streq	r0, [r2], #-11
    1ba8:	15050101 	strne	r0, [r5, #-257]	; 0xfffffeff
    1bac:	01040200 	mrseq	r0, R12_usr
    1bb0:	13050106 	movwne	r0, #20742	; 0x5106
    1bb4:	01040200 	mrseq	r0, R12_usr
    1bb8:	000b054a 	andeq	r0, fp, sl, asr #10
    1bbc:	4a010402 	bmi	42bcc <__bss_end__+0x38af4>
    1bc0:	01000602 	tsteq	r0, r2, lsl #12
    1bc4:	0000fe01 	andeq	pc, r0, r1, lsl #28
    1bc8:	c2000300 	andgt	r0, r0, #0, 6
    1bcc:	02000000 	andeq	r0, r0, #0, 0
    1bd0:	0d0efb01 	vstreq	d15, [lr, #-4]
    1bd4:	01010100 	mrseq	r0, (UNDEF: 17)
    1bd8:	00000001 	andeq	r0, r0, r1
    1bdc:	01000001 	tsteq	r0, r1
    1be0:	696c2f2e 	stmdbvs	ip!, {r1, r2, r3, r5, r8, r9, sl, fp, sp}^
    1be4:	2f006362 	svccs	0x00006362
    1be8:	72657355 	rsbvc	r7, r5, #1409286145	; 0x54000001
    1bec:	696d2f73 	stmdbvs	sp!, {r0, r1, r4, r5, r6, r8, r9, sl, fp, sp}^
    1bf0:	2f73656c 	svccs	0x0073656c
    1bf4:	72756f53 	rsbsvc	r6, r5, #332	; 0x14c
    1bf8:	632f6563 			; <UNDEFINED> instruction: 0x632f6563
    1bfc:	30343273 	eorscc	r3, r4, r3, ror r2
    1c00:	6c2f786c 	stcvs	8, cr7, [pc], #-432	; 1a58 <__code_start__-0x65a8>
    1c04:	69706269 	ldmdbvs	r0!, {r0, r3, r5, r6, r9, sp, lr}^
    1c08:	636e692f 	cmnvs	lr, #770048	; 0xbc000
    1c0c:	6564756c 	strbvs	r7, [r4, #-1388]!	; 0xfffffa94
    1c10:	706f2f00 	rsbvc	r2, pc, r0, lsl #30
    1c14:	6f682f74 	svcvs	0x00682f74
    1c18:	7262656d 	rsbvc	r6, r2, #457179136	; 0x1b400000
    1c1c:	432f7765 			; <UNDEFINED> instruction: 0x432f7765
    1c20:	616c6c65 	cmnvs	ip, r5, ror #24
    1c24:	72612f72 	rsbvc	r2, r1, #456	; 0x1c8
    1c28:	6f6e2d6d 	svcvs	0x006e2d6d
    1c2c:	652d656e 	strvs	r6, [sp, #-1390]!	; 0xfffffa92
    1c30:	2d696261 	sfmcs	f6, 2, [r9, #-388]!	; 0xfffffe7c
    1c34:	74736574 	ldrbtvc	r6, [r3], #-1396	; 0xfffffa8c
    1c38:	322d392f 	eorcc	r3, sp, #770048	; 0xbc000
    1c3c:	71393130 	teqvc	r9, r0, lsr r1
    1c40:	73632d34 	cmnvc	r3, #52, 26	; 0xd00
    1c44:	65373031 	ldrvs	r3, [r7, #-49]!	; 0xffffffcf
    1c48:	62696c2f 	rsbvs	r6, r9, #12032	; 0x2f00
    1c4c:	6363672f 	cmnvs	r3, #12320768	; 0xbc0000
    1c50:	6d72612f 	ldfvse	f6, [r2, #-188]!	; 0xffffff44
    1c54:	6e6f6e2d 	cdpvs	14, 6, cr6, cr15, cr13, {1}
    1c58:	61652d65 	cmnvs	r5, r5, ror #26
    1c5c:	392f6962 	stmdbcc	pc!, {r1, r5, r6, r8, fp, sp, lr}	; <UNPREDICTABLE>
    1c60:	312e322e 			; <UNDEFINED> instruction: 0x312e322e
    1c64:	636e692f 	cmnvs	lr, #770048	; 0xbc000
    1c68:	6564756c 	strbvs	r7, [r4, #-1388]!	; 0xfffffa94
    1c6c:	74730000 	ldrbtvc	r0, [r3], #-0
    1c70:	6d636e72 	stclvs	14, cr6, [r3, #-456]!	; 0xfffffe38
    1c74:	00632e70 	rsbeq	r2, r3, r0, ror lr
    1c78:	72000001 	andvc	r0, r0, #1, 0
    1c7c:	682e6970 	stmdavs	lr!, {r4, r5, r6, r8, fp, sp, lr}
    1c80:	00000200 	andeq	r0, r0, r0, lsl #4
    1c84:	64647473 	strbtvs	r7, [r4], #-1139	; 0xfffffb8d
    1c88:	682e6665 	stmdavs	lr!, {r0, r2, r5, r6, r9, sl, sp, lr}
    1c8c:	00000300 	andeq	r0, r0, r0, lsl #6
    1c90:	00390500 	eorseq	r0, r9, r0, lsl #10
    1c94:	96300205 	ldrtls	r0, [r0], -r5, lsl #4
    1c98:	05150000 	ldreq	r0, [r5, #-0]
    1c9c:	05131305 	ldreq	r1, [r3, #-773]	; 0xfffffcfb
    1ca0:	0106010a 	tsteq	r6, sl, lsl #2
    1ca4:	0609054a 	streq	r0, [r9], -sl, asr #10
    1ca8:	060c052f 	streq	r0, [ip], -pc, lsr #10
    1cac:	2e130501 	cfmul32cs	mvfx0, mvfx3, mvfx1
    1cb0:	052e0b05 	streq	r0, [lr, #-2821]!	; 0xfffff4fb
    1cb4:	054b060d 	strbeq	r0, [fp, #-1549]	; 0xfffff9f3
    1cb8:	2e01061b 	mcrcs	6, 0, r0, cr1, cr11, {0}
    1cbc:	05300c05 	ldreq	r0, [r0, #-3077]!	; 0xfffff3fb
    1cc0:	02022f01 	andeq	r2, r2, #1, 30
    1cc4:	8a010100 	bhi	420cc <__bss_end__+0x37ff4>
    1cc8:	03000000 	movweq	r0, #0
    1ccc:	00006e00 	andeq	r6, r0, r0, lsl #28
    1cd0:	fb010200 	blx	424da <__bss_end__+0x38402>
    1cd4:	01000d0e 	tsteq	r0, lr, lsl #26
    1cd8:	00010101 	andeq	r0, r1, r1, lsl #2
    1cdc:	00010000 	andeq	r0, r1, r0
    1ce0:	2f2e0100 	svccs	0x002e0100
    1ce4:	66617473 			; <UNDEFINED> instruction: 0x66617473
    1ce8:	72732d66 	rsbsvc	r2, r3, #6528	; 0x1980
    1cec:	552f0063 	strpl	r0, [pc, #-99]!	; 1c91 <__code_start__-0x636f>
    1cf0:	73726573 	cmnvc	r2, #482344960	; 0x1cc00000
    1cf4:	6c696d2f 	stclvs	13, cr6, [r9], #-188	; 0xffffff44
    1cf8:	532f7365 			; <UNDEFINED> instruction: 0x532f7365
    1cfc:	6372756f 	cmnvs	r2, #465567744	; 0x1bc00000
    1d00:	73632f65 	cmnvc	r3, #404	; 0x194
    1d04:	6c303432 	cfldrsvs	mvf3, [r0], #-200	; 0xffffff38
    1d08:	696c2f78 	stmdbvs	ip!, {r3, r4, r5, r6, r8, r9, sl, fp, sp}^
    1d0c:	2f697062 	svccs	0x00697062
    1d10:	6c636e69 	stclvs	14, cr6, [r3], #-420	; 0xfffffe5c
    1d14:	00656475 	rsbeq	r6, r5, r5, ror r4
    1d18:	66656400 	strbtvs	r6, [r5], -r0, lsl #8
    1d1c:	746c7561 	strbtvc	r7, [ip], #-1377	; 0xfffffa9f
    1d20:	6265722d 	rsbvs	r7, r5, #-805306366	; 0xd0000002
    1d24:	2d746f6f 	ldclcs	15, cr6, [r4, #-444]!	; 0xfffffe44
    1d28:	6c6c6163 	stfvse	f6, [ip], #-396	; 0xfffffe74
    1d2c:	2e74756f 	cdpcs	5, 7, cr7, cr4, cr15, {3}
    1d30:	00010063 	andeq	r0, r1, r3, rrx
    1d34:	69707200 	ldmdbvs	r0!, {r9, ip, sp, lr}^
    1d38:	0200682e 	andeq	r6, r0, #3014656	; 0x2e0000
    1d3c:	05000000 	streq	r0, [r0, #-0]
    1d40:	0205001b 	andeq	r0, r5, #27, 0
    1d44:	0000965c 	andeq	r9, r0, ip, asr r6
    1d48:	011c0514 	tsteq	ip, r4, lsl r5
    1d4c:	01060105 	tsteq	r6, r5, lsl #2
    1d50:	01000202 	tsteq	r0, r2, lsl #4
    1d54:	0001ba01 	andeq	fp, r1, r1, lsl #20
    1d58:	be000300 	cdplt	3, 0, cr0, cr0, cr0, {0}
    1d5c:	02000000 	andeq	r0, r0, #0, 0
    1d60:	0d0efb01 	vstreq	d15, [lr, #-4]
    1d64:	01010100 	mrseq	r0, (UNDEF: 17)
    1d68:	00000001 	andeq	r0, r0, r1
    1d6c:	01000001 	tsteq	r0, r1
    1d70:	6d6f682f 	stclvs	8, cr6, [pc, #-188]!	; 1cbc <__code_start__-0x6344>
    1d74:	6e652f65 	cdpvs	15, 6, cr2, cr5, cr5, {3}
    1d78:	72656c67 	rsbvc	r6, r5, #26368	; 0x6700
    1d7c:	616c632f 	cmnvs	ip, pc, lsr #6
    1d80:	632f7373 			; <UNDEFINED> instruction: 0x632f7373
    1d84:	30343173 	eorscc	r3, r4, r3, ror r1
    1d88:	32322d65 	eorscc	r2, r2, #6464	; 0x1940
    1d8c:	2f6e6977 	svccs	0x006e6977
    1d90:	62696c2f 	rsbvs	r6, r9, #12032	; 0x2f00
    1d94:	692f6970 	stmdbvs	pc!, {r4, r5, r6, r8, fp, sp, lr}	; <UNPREDICTABLE>
    1d98:	756c636e 	strbvc	r6, [ip, #-878]!	; 0xfffffc92
    1d9c:	2f006564 	svccs	0x00006564
    1da0:	2f727375 	svccs	0x00727375
    1da4:	72616873 	rsbvc	r6, r1, #7536640	; 0x730000
    1da8:	63672f65 	cmnvs	r7, #404	; 0x194
    1dac:	72612d63 	rsbvc	r2, r1, #6336	; 0x18c0
    1db0:	6f6e2d6d 	svcvs	0x006e2d6d
    1db4:	652d656e 	strvs	r6, [sp, #-1390]!	; 0xfffffa92
    1db8:	2d696261 	sfmcs	f6, 2, [r9, #-388]!	; 0xfffffe7c
    1dbc:	332e3031 			; <UNDEFINED> instruction: 0x332e3031
    1dc0:	3230322d 	eorscc	r3, r0, #-805306366	; 0xd0000002
    1dc4:	30312e31 	eorscc	r2, r1, r1, lsr lr
    1dc8:	62696c2f 	rsbvs	r6, r9, #12032	; 0x2f00
    1dcc:	6363672f 	cmnvs	r3, #12320768	; 0xbc0000
    1dd0:	6d72612f 	ldfvse	f6, [r2, #-188]!	; 0xffffff44
    1dd4:	6e6f6e2d 	cdpvs	14, 6, cr6, cr15, cr13, {1}
    1dd8:	61652d65 	cmnvs	r5, r5, ror #26
    1ddc:	312f6962 			; <UNDEFINED> instruction: 0x312f6962
    1de0:	2e332e30 	mrccs	14, 1, r2, cr3, cr0, {1}
    1de4:	6e692f31 	mcrvs	15, 3, r2, cr9, cr1, {1}
    1de8:	64756c63 	ldrbtvs	r6, [r5], #-3171	; 0xfffff39d
    1dec:	67000065 	strvs	r0, [r0, -r5, rrx]
    1df0:	2e6f6970 			; <UNDEFINED> instruction: 0x2e6f6970
    1df4:	00000063 	andeq	r0, r0, r3, rrx
    1df8:	69707200 	ldmdbvs	r0!, {r9, ip, sp, lr}^
    1dfc:	0100682e 	tsteq	r0, lr, lsr #16
    1e00:	74730000 	ldrbtvc	r0, [r3], #-0
    1e04:	746e6964 	strbtvc	r6, [lr], #-2404	; 0xfffff69c
    1e08:	6363672d 	cmnvs	r3, #11796480	; 0xb40000
    1e0c:	0200682e 	andeq	r6, r0, #3014656	; 0x2e0000
    1e10:	70670000 	rsbvc	r0, r7, r0
    1e14:	682e6f69 	stmdavs	lr!, {r0, r3, r5, r6, r8, r9, sl, fp, sp, lr}
    1e18:	00000100 	andeq	r0, r0, r0, lsl #2
    1e1c:	00380500 	eorseq	r0, r8, r0, lsl #10
    1e20:	96780205 	ldrbtls	r0, [r8], -r5, lsl #4
    1e24:	27030000 	strcs	r0, [r3, -r0]
    1e28:	13050501 	movwne	r0, #21761	; 0x5501
    1e2c:	01060705 	tsteq	r6, r5, lsl #14
    1e30:	05493805 	strbeq	r3, [r9, #-2053]	; 0xfffff7fb
    1e34:	054d0605 	strbeq	r0, [sp, #-1541]	; 0xfffff9fb
    1e38:	05010607 	streq	r0, [r1, #-1543]	; 0xfffff9f9
    1e3c:	054c0605 	strbeq	r0, [ip, #-1541]	; 0xfffff9fb
    1e40:	05010618 	streq	r0, [r1, #-1560]	; 0xfffff9e8
    1e44:	0505ba0e 	streq	fp, [r5, #-2574]	; 0xfffff5f2
    1e48:	1c052f06 	stcne	15, cr2, [r5], {6}
    1e4c:	052e0106 	streq	r0, [lr, #-262]!	; 0xfffffefa
    1e50:	05052e0e 	streq	r2, [r5, #-3598]	; 0xfffff1f2
    1e54:	12053006 	andne	r3, r5, #6, 0
    1e58:	05050106 	streq	r0, [r5, #-262]	; 0xfffffefa
    1e5c:	07054b06 	streq	r4, [r5, -r6, lsl #22]
    1e60:	05050106 	streq	r0, [r5, #-262]	; 0xfffffefa
    1e64:	06134b06 	ldreq	r4, [r3], -r6, lsl #22
    1e68:	4b01052e 	blmi	43328 <__bss_end__+0x39250>
    1e6c:	4c062405 	cfstrsmi	mvf2, [r6], {5}
    1e70:	05050106 	streq	r0, [r5, #-262]	; 0xfffffefa
    1e74:	01052f06 	tsteq	r5, r6, lsl #30
    1e78:	20054b06 	andcs	r4, r5, r6, lsl #22
    1e7c:	05053106 	streq	r3, [r5, #-262]	; 0xfffffefa
    1e80:	06070513 			; <UNDEFINED> instruction: 0x06070513
    1e84:	49200501 	stmdbmi	r0!, {r0, r8, sl}
    1e88:	31060505 	tstcc	r6, r5, lsl #10
    1e8c:	01056606 	tsteq	r5, r6, lsl #12
    1e90:	0621052f 	strteq	r0, [r1], -pc, lsr #10
    1e94:	1305054d 	movwne	r0, #21837	; 0x554d
    1e98:	01060705 	tsteq	r6, r5, lsl #14
    1e9c:	05492105 	strbeq	r2, [r9, #-261]	; 0xfffffefb
    1ea0:	06310605 	ldrteq	r0, [r1], -r5, lsl #12
    1ea4:	2f010566 	svccs	0x00010566
    1ea8:	4d062305 	stcmi	3, cr2, [r6, #-20]	; 0xffffffec
    1eac:	05050106 	streq	r0, [r5, #-262]	; 0xfffffefa
    1eb0:	01052f06 	tsteq	r5, r6, lsl #30
    1eb4:	2b054b06 	blcs	154ad4 <__bss_end__+0x14a9fc>
    1eb8:	01063106 	tsteq	r6, r6, lsl #2
    1ebc:	2f060505 	svccs	0x00060505
    1ec0:	01060705 	tsteq	r6, r5, lsl #14
    1ec4:	4b060905 	blmi	1842e0 <__bss_end__+0x17a208>
    1ec8:	30062e06 	andcc	r2, r6, r6, lsl #28
    1ecc:	2f060105 	svccs	0x00060105
    1ed0:	30061d05 	andcc	r1, r6, r5, lsl #26
    1ed4:	05130505 	ldreq	r0, [r3, #-1285]	; 0xfffffafb
    1ed8:	05010607 	streq	r0, [r1, #-1543]	; 0xfffff9f9
    1edc:	0505491d 	streq	r4, [r5, #-2333]	; 0xfffff6e3
    1ee0:	05133106 	ldreq	r3, [r3, #-262]	; 0xfffffefa
    1ee4:	0501060e 	streq	r0, [r1, #-1550]	; 0xfffff9f2
    1ee8:	052f0605 	streq	r0, [pc, #-1541]!	; 18eb <__code_start__-0x6715>
    1eec:	4a010617 	bmi	43750 <__bss_end__+0x39678>
    1ef0:	042e2305 	strteq	r2, [lr], #-773	; 0xfffffcfb
    1ef4:	06300502 	ldrteq	r0, [r0], -r2, lsl #10
    1ef8:	2e00d703 	cdpcs	7, 0, cr13, cr0, cr3, {0}
    1efc:	0c050104 	stfeqs	f0, [r5], {4}
    1f00:	7fa90306 	svcvc	0x00a90306
    1f04:	2f010501 	svccs	0x00010501
    1f08:	052a1005 	streq	r1, [sl, #-5]!
    1f0c:	04023201 	streq	r3, [r2], #-513	; 0xfffffdff
    1f10:	Address 0x0000000000001f10 is out of bounds.


Disassembly of section .debug_str:

00000000 <.debug_str>:
   0:	5f6d7261 	svcpl	0x006d7261
   4:	5f6e766d 	svcpl	0x006e766d
   8:	6100706f 	tstvs	r0, pc, rrx
   c:	735f6d72 	cmpvc	pc, #7296	; 0x1c80
  10:	72610070 	rsbvc	r0, r1, #112, 0	; 0x70
  14:	43435f6d 	movtmi	r5, #16237	; 0x3f6d
  18:	6e656700 	cdpvs	7, 6, cr6, cr5, cr0, {0}
  1c:	63697265 	cmnvs	r9, #1342177286	; 0x50000006
  20:	6c61635f 	stclvs	3, cr6, [r1], #-380	; 0xfffffe84
  24:	6e695f6c 	cdpvs	15, 6, cr5, cr9, cr12, {3}
  28:	68730074 	ldmdavs	r3!, {r2, r4, r5, r6}^
  2c:	2074726f 	rsbscs	r7, r4, pc, ror #4
  30:	00746e69 	rsbseq	r6, r4, r9, ror #28
  34:	5f6d7261 	svcpl	0x006d7261
  38:	61004356 	tstvs	r0, r6, asr r3
  3c:	475f6d72 			; <UNDEFINED> instruction: 0x475f6d72
  40:	72610045 	rsbvc	r0, r1, #69, 0	; 0x45
  44:	62735f6d 	rsbsvs	r5, r3, #436	; 0x1b4
  48:	706f5f63 	rsbvc	r5, pc, r3, ror #30
  4c:	6d726100 	ldfvse	f6, [r2, #-0]
  50:	72726f5f 	rsbsvc	r6, r2, #380	; 0x17c
  54:	00706f5f 	rsbseq	r6, r0, pc, asr pc
  58:	74756f5f 	ldrbtvc	r6, [r5], #-3935	; 0xfffff0a1
  5c:	6d726100 	ldfvse	f6, [r2, #-0]
  60:	726f655f 	rsbvc	r6, pc, #398458880	; 0x17c00000
  64:	00706f5f 	rsbseq	r6, r0, pc, asr pc
  68:	5f697072 	svcpl	0x00697072
  6c:	63747570 	cmnvs	r4, #112, 10	; 0x1c000000
  70:	00726168 	rsbseq	r6, r2, r8, ror #2
  74:	5f6d7261 	svcpl	0x006d7261
  78:	68737570 	ldmdavs	r3!, {r4, r5, r6, r8, sl, ip, sp, lr}^
  7c:	746e6900 	strbtvc	r6, [lr], #-2304	; 0xfffff700
  80:	6d6f632d 	stclvs	3, cr6, [pc, #-180]!	; ffffffd4 <__bss_end__+0xffff5efc>
  84:	656c6970 	strbvs	r6, [ip, #-2416]!	; 0xfffff690
  88:	6100632e 	tstvs	r0, lr, lsr #6
  8c:	6c5f6d72 	mrrcvs	13, 7, r6, pc, cr2	; <UNPREDICTABLE>
  90:	72610072 	rsbvc	r0, r1, #114, 0	; 0x72
  94:	53565f6d 	cmppl	r6, #436	; 0x1b4
  98:	6d726100 	ldfvse	f6, [r2, #-0]
  9c:	0063705f 	rsbeq	r7, r3, pc, asr r0
  a0:	61656c63 	cmnvs	r5, r3, ror #24
  a4:	65725f6e 	ldrbvs	r5, [r2, #-3950]!	; 0xfffff092
  a8:	746f6f62 	strbtvc	r6, [pc], #-3938	; b0 <__code_start__-0x7f50>
  ac:	6d726100 	ldfvse	f6, [r2, #-0]
  b0:	6464615f 	strbtvs	r6, [r4], #-351	; 0xfffffea1
  b4:	00706f5f 	rsbseq	r6, r0, pc, asr pc
  b8:	5f746e69 	svcpl	0x00746e69
  bc:	72610036 	rsbvc	r0, r1, #54, 0	; 0x36
  c0:	65745f6d 	ldrbvs	r5, [r4, #-3949]!	; 0xfffff093
  c4:	706f5f71 	rsbvc	r5, pc, r1, ror pc	; <UNPREDICTABLE>
  c8:	6d726100 	ldfvse	f6, [r2, #-0]
  cc:	6275735f 	rsbsvs	r7, r5, #2080374785	; 0x7c000001
  d0:	00706f5f 	rsbseq	r6, r0, pc, asr pc
  d4:	5f6d7261 	svcpl	0x006d7261
  d8:	5f627372 	svcpl	0x00627372
  dc:	6c00706f 	stcvs	0, cr7, [r0], {111}	; 0x6f
  e0:	20676e6f 	rsbcs	r6, r7, pc, ror #28
  e4:	676e6f6c 	strbvs	r6, [lr, -ip, ror #30]!
  e8:	746e6920 	strbtvc	r6, [lr], #-2336	; 0xfffff6e0
  ec:	765f5f00 	ldrbvc	r5, [pc], -r0, lsl #30
  f0:	696c5f61 	stmdbvs	ip!, {r0, r5, r6, r8, r9, sl, fp, ip, lr}^
  f4:	69007473 	stmdbvs	r0, {r0, r1, r4, r5, r6, sl, ip, sp, lr}
  f8:	355f746e 	ldrbcc	r7, [pc, #-1134]	; fffffc92 <__bss_end__+0xffff5bba>
  fc:	6d726100 	ldfvse	f6, [r2, #-0]
 100:	72646c5f 	rsbvc	r6, r4, #24320	; 0x5f00
 104:	6d726100 	ldfvse	f6, [r2, #-0]
 108:	00454c5f 	subeq	r4, r5, pc, asr ip
 10c:	6d6f7266 	sfmvs	f7, 2, [pc, #-408]!	; ffffff7c <__bss_end__+0xffff5ea4>
 110:	6d726100 	ldfvse	f6, [r2, #-0]
 114:	0049485f 	subeq	r4, r9, pc, asr r8
 118:	55465f5f 	strbpl	r5, [r6, #-3935]	; 0xfffff0a1
 11c:	4954434e 	ldmdbmi	r4, {r1, r2, r3, r6, r8, r9, lr}^
 120:	5f5f4e4f 	svcpl	0x005f4e4f
 124:	6d726100 	ldfvse	f6, [r2, #-0]
 128:	646e615f 	strbtvs	r6, [lr], #-351	; 0xfffffea1
 12c:	00706f5f 	rsbseq	r6, r0, pc, asr pc
 130:	5f746e69 	svcpl	0x00746e69
 134:	61007066 	tstvs	r0, r6, rrx
 138:	00736772 	rsbseq	r6, r3, r2, ror r7
 13c:	62616e65 	rsbvs	r6, r1, #1616	; 0x650
 140:	635f656c 	cmpvs	pc, #108, 10	; 0x1b000000
 144:	65686361 	strbvs	r6, [r8, #-865]!	; 0xfffffc9f
 148:	6d726100 	ldfvse	f6, [r2, #-0]
 14c:	6e6d635f 	mcrvs	3, 3, r6, cr13, cr15, {2}
 150:	00706f5f 	rsbseq	r6, r0, pc, asr pc
 154:	6e756874 	mrcvs	8, 3, r6, cr5, cr4, {3}
 158:	7261006b 	rsbvc	r0, r1, #107, 0	; 0x6b
 15c:	54475f6d 	strbpl	r5, [r7], #-3949	; 0xfffff093
 160:	6d726100 	ldfvse	f6, [r2, #-0]
 164:	006c625f 	rsbeq	r6, ip, pc, asr r2
 168:	5f6d7261 	svcpl	0x006d7261
 16c:	61004c41 	tstvs	r0, r1, asr #24
 170:	4c5f6d72 	mrrcmi	13, 7, r6, pc, cr2	; <UNPREDICTABLE>
 174:	6e750054 	mrcvs	0, 3, r0, cr5, cr4, {2}
 178:	6e676973 			; <UNDEFINED> instruction: 0x6e676973
 17c:	63206465 			; <UNDEFINED> instruction: 0x63206465
 180:	00726168 	rsbseq	r6, r2, r8, ror #2
 184:	746c6564 	strbtvc	r6, [ip], #-1380	; 0xfffffa9c
 188:	72610061 	rsbvc	r0, r1, #97, 0	; 0x61
 18c:	534c5f6d 	movtpl	r5, #53101	; 0xcf6d
 190:	6d726100 	ldfvse	f6, [r2, #-0]
 194:	0030725f 	eorseq	r7, r0, pc, asr r2
 198:	5f6d7261 	svcpl	0x006d7261
 19c:	61003172 	tstvs	r0, r2, ror r1
 1a0:	725f6d72 	subsvc	r6, pc, #7296	; 0x1c80
 1a4:	72610032 	rsbvc	r0, r1, #50, 0	; 0x32
 1a8:	33725f6d 	cmncc	r2, #436	; 0x1b4
 1ac:	6d726100 	ldfvse	f6, [r2, #-0]
 1b0:	0034725f 	eorseq	r7, r4, pc, asr r2
 1b4:	5f6d7261 	svcpl	0x006d7261
 1b8:	6c003672 	stcvs	6, cr3, [r0], {114}	; 0x72
 1bc:	20676e6f 	rsbcs	r6, r7, pc, ror #28
 1c0:	676e6f6c 	strbvs	r6, [lr, -ip, ror #30]!
 1c4:	736e7520 	cmnvc	lr, #32, 10	; 0x8000000
 1c8:	656e6769 	strbvs	r6, [lr, #-1897]!	; 0xfffff897
 1cc:	6e692064 	cdpvs	0, 6, cr2, cr9, cr4, {3}
 1d0:	72610074 	rsbvc	r0, r1, #116, 0	; 0x74
 1d4:	38725f6d 	ldmdacc	r2!, {r0, r2, r3, r5, r6, r8, r9, sl, fp, ip, lr}^
 1d8:	6e697500 	cdpvs	5, 6, cr7, cr9, cr0, {0}
 1dc:	5f323374 	svcpl	0x00323374
 1e0:	72610074 	rsbvc	r0, r1, #116, 0	; 0x74
 1e4:	4c505f6d 	mrrcmi	15, 6, r5, r0, cr13
 1e8:	646f6300 	strbtvs	r6, [pc], #-768	; 1f0 <__code_start__-0x7e10>
 1ec:	72610065 	rsbvc	r0, r1, #101, 0	; 0x65
 1f0:	73725f6d 	cmnvc	r2, #436	; 0x1b4
 1f4:	706f5f63 	rsbvc	r5, pc, r3, ror #30
 1f8:	746e6900 	strbtvc	r6, [lr], #-2304	; 0xfffff700
 1fc:	6f670076 	svcvs	0x00670076
 200:	6e006f6f 	cdpvs	15, 0, cr6, cr0, cr15, {3}
 204:	616d746f 	cmnvs	sp, pc, ror #8
 208:	61006e69 	tstvs	r0, r9, ror #28
 20c:	765f6772 			; <UNDEFINED> instruction: 0x765f6772
 210:	00736c61 	rsbseq	r6, r3, r1, ror #24
 214:	726f6873 	rsbvc	r6, pc, #7536640	; 0x730000
 218:	6e752074 	mrcvs	0, 3, r2, cr5, cr4, {3}
 21c:	6e676973 			; <UNDEFINED> instruction: 0x6e676973
 220:	69206465 	stmdbvs	r0!, {r0, r2, r5, r6, sl, sp, lr}
 224:	6f00746e 	svcvs	0x0000746e
 228:	65736666 	ldrbvs	r6, [r3, #-1638]!	; 0xfffff99a
 22c:	72610074 	rsbvc	r0, r1, #116, 0	; 0x74
 230:	51455f6d 	cmppl	r5, sp, ror #30
 234:	6d726100 	ldfvse	f6, [r2, #-0]
 238:	766f6d5f 			; <UNDEFINED> instruction: 0x766f6d5f
 23c:	00706f5f 	rsbseq	r6, r0, pc, asr pc
 240:	70615f5f 	rsbvc	r5, r1, pc, asr pc
 244:	6d726100 	ldfvse	f6, [r2, #-0]
 248:	0039725f 	eorseq	r7, r9, pc, asr r2
 24c:	5f6d7261 	svcpl	0x006d7261
 250:	2f005343 	svccs	0x00005343
 254:	72657355 	rsbvc	r7, r5, #1409286145	; 0x54000001
 258:	696d2f73 	stmdbvs	sp!, {r0, r1, r4, r5, r6, r8, r9, sl, fp, sp}^
 25c:	2f73656c 	svccs	0x0073656c
 260:	72756f53 	rsbsvc	r6, r5, #332	; 0x14c
 264:	632f6563 			; <UNDEFINED> instruction: 0x632f6563
 268:	30343273 	eorscc	r3, r4, r3, ror r2
 26c:	6c2f786c 	stcvs	8, cr7, [pc], #-432	; c4 <__code_start__-0x7f3c>
 270:	2f736261 	svccs	0x00736261
 274:	79642d31 	stmdbvc	r4!, {r0, r4, r5, r8, sl, fp, sp}^
 278:	696d616e 	stmdbvs	sp!, {r1, r2, r3, r5, r6, r8, sp, lr}^
 27c:	6f632d63 	svcvs	0x00632d63
 280:	672d6564 	strvs	r6, [sp, -r4, ror #10]!
 284:	632f6e65 			; <UNDEFINED> instruction: 0x632f6e65
 288:	2f65646f 	svccs	0x0065646f
 28c:	6e692d32 	mcrvs	13, 3, r2, cr9, cr2, {1}
 290:	6f632d74 	svcvs	0x00632d74
 294:	6c69706d 	stclvs	0, cr7, [r9], #-436	; 0xfffffe4c
 298:	61007265 	tstvs	r0, r5, ror #4
 29c:	625f6d72 	subsvs	r6, pc, #7296	; 0x1c80
 2a0:	6f5f6369 	svcvs	0x005f6369
 2a4:	72610070 	rsbvc	r0, r1, #112, 0	; 0x70
 2a8:	35725f6d 	ldrbcc	r5, [r2, #-3949]!	; 0xfffff093
 2ac:	554e4700 	strbpl	r4, [lr, #-1792]	; 0xfffff900
 2b0:	39394320 	ldmdbcc	r9!, {r5, r8, r9, lr}
 2b4:	322e3920 	eorcc	r3, lr, #32, 18	; 0x80000
 2b8:	3220312e 	eorcc	r3, r0, #-2147483637	; 0x8000000b
 2bc:	31393130 	teqcc	r9, r0, lsr r1
 2c0:	20353230 	eorscs	r3, r5, r0, lsr r2
 2c4:	6c657228 	sfmvs	f7, 2, [r5], #-160	; 0xffffff60
 2c8:	65736165 	ldrbvs	r6, [r3, #-357]!	; 0xfffffe9b
 2cc:	415b2029 	cmpmi	fp, r9, lsr #32
 2d0:	612f4d52 			; <UNDEFINED> instruction: 0x612f4d52
 2d4:	392d6d72 	pushcc	{r1, r4, r5, r6, r8, sl, fp, sp, lr}
 2d8:	6172622d 	cmnvs	r2, sp, lsr #4
 2dc:	2068636e 	rsbcs	r6, r8, lr, ror #6
 2e0:	69766572 	ldmdbvs	r6!, {r1, r4, r5, r6, r8, sl, sp, lr}^
 2e4:	6e6f6973 			; <UNDEFINED> instruction: 0x6e6f6973
 2e8:	37373220 	ldrcc	r3, [r7, -r0, lsr #4]!
 2ec:	5d393935 			; <UNDEFINED> instruction: 0x5d393935
 2f0:	636d2d20 	cmnvs	sp, #32, 26	; 0x800
 2f4:	613d7570 	teqvs	sp, r0, ror r5
 2f8:	31316d72 	teqcc	r1, r2, ror sp
 2fc:	7a6a3637 	bvc	1a8dbe0 <__bss_end__+0x1a83b08>
 300:	20732d66 	rsbscs	r2, r3, r6, ror #26
 304:	75746d2d 	ldrbvc	r6, [r4, #-3373]!	; 0xfffff2d3
 308:	613d656e 	teqvs	sp, lr, ror #10
 30c:	31316d72 	teqcc	r1, r2, ror sp
 310:	7a6a3637 	bvc	1a8dbf4 <__bss_end__+0x1a83b1c>
 314:	20732d66 	rsbscs	r2, r3, r6, ror #26
 318:	6c666d2d 	stclvs	13, cr6, [r6], #-180	; 0xffffff4c
 31c:	2d74616f 	ldfcse	f6, [r4, #-444]!	; 0xfffffe44
 320:	3d696261 	sfmcc	f6, 2, [r9, #-388]!	; 0xfffffe7c
 324:	74666f73 	strbtvc	r6, [r6], #-3955	; 0xfffff08d
 328:	616d2d20 	cmnvs	sp, r0, lsr #26
 32c:	2d206d72 	stccs	13, cr6, [r0, #-456]!	; 0xfffffe38
 330:	6372616d 	cmnvs	r2, #1073741851	; 0x4000001b
 334:	72613d68 	rsbvc	r3, r1, #104, 26	; 0x1a00
 338:	6b36766d 	blvs	d9dcf4 <__bss_end__+0xd93c1c>
 33c:	672d207a 			; <UNDEFINED> instruction: 0x672d207a
 340:	20626467 	rsbcs	r6, r2, r7, ror #8
 344:	20674f2d 	rsbcs	r4, r7, sp, lsr #30
 348:	6474732d 	ldrbtvs	r7, [r4], #-813	; 0xfffffcd3
 34c:	756e673d 	strbvc	r6, [lr, #-1853]!	; 0xfffff8c3
 350:	2d203939 			; <UNDEFINED> instruction: 0x2d203939
 354:	65726666 	ldrbvs	r6, [r2, #-1638]!	; 0xfffff99a
 358:	61747365 	cmnvs	r4, r5, ror #6
 35c:	6e69646e 	cdpvs	4, 6, cr6, cr9, cr14, {3}
 360:	72610067 	rsbvc	r0, r1, #103, 0	; 0x67
 364:	37725f6d 	ldrbcc	r5, [r2, -sp, ror #30]!
 368:	6d726100 	ldfvse	f6, [r2, #-0]
 36c:	00494d5f 	subeq	r4, r9, pc, asr sp
 370:	5f6d7261 	svcpl	0x006d7261
 374:	68740062 	ldmdavs	r4!, {r1, r5, r6}^
 378:	656b6e75 	strbvs	r6, [fp, #-3701]!	; 0xfffff18b
 37c:	6e690064 	cdpvs	0, 6, cr0, cr9, cr4, {3}
 380:	6f635f74 	svcvs	0x00635f74
 384:	6c69706d 	stclvs	0, cr7, [r9], #-436	; 0xfffffe4c
 388:	72610065 	rsbvc	r0, r1, #101, 0	; 0x65
 38c:	31725f6d 	cmncc	r2, sp, ror #30
 390:	72610030 	rsbvc	r0, r1, #48, 0	; 0x30
 394:	31725f6d 	cmncc	r2, sp, ror #30
 398:	72610031 	rsbvc	r0, r1, #49, 0	; 0x31
 39c:	31725f6d 	cmncc	r2, sp, ror #30
 3a0:	72610032 	rsbvc	r0, r1, #50, 0	; 0x32
 3a4:	31725f6d 	cmncc	r2, sp, ror #30
 3a8:	72610033 	rsbvc	r0, r1, #51, 0	; 0x33
 3ac:	31725f6d 	cmncc	r2, sp, ror #30
 3b0:	72610034 	rsbvc	r0, r1, #52, 0	; 0x34
 3b4:	31725f6d 	cmncc	r2, sp, ror #30
 3b8:	72610035 	rsbvc	r0, r1, #53, 0	; 0x35
 3bc:	6f705f6d 	svcvs	0x00705f6d
 3c0:	75660070 	strbvc	r0, [r6, #-112]!	; 0xffffff90
 3c4:	6b00636e 	blvs	19184 <__bss_end__+0xf0ac>
 3c8:	6c6c616d 	stfvse	f6, [ip], #-436	; 0xfffffe4c
 3cc:	5f00636f 	svcpl	0x0000636f
 3d0:	756e675f 	strbvc	r6, [lr, #-1887]!	; 0xfffff8a1
 3d4:	61765f63 	cmnvs	r6, r3, ror #30
 3d8:	73696c5f 	cmnvc	r9, #24320	; 0x5f00
 3dc:	70730074 	rsbsvc	r0, r3, r4, ror r0
 3e0:	61696365 	cmnvs	r9, r5, ror #6
 3e4:	657a696c 	ldrbvs	r6, [sl, #-2412]!	; 0xfffff694
 3e8:	61635f64 	cmnvs	r3, r4, ror #30
 3ec:	695f6c6c 	ldmdbvs	pc, {r2, r3, r5, r6, sl, fp, sp, lr}^	; <UNPREDICTABLE>
 3f0:	7200746e 	andvc	r7, r0, #1845493760	; 0x6e000000
 3f4:	725f6970 	subsvc	r6, pc, #112, 18	; 0x1c0000
 3f8:	74657365 	strbtvc	r7, [r5], #-869	; 0xfffffc9b
 3fc:	7475705f 	ldrbtvc	r7, [r5], #-95	; 0xffffffa1
 400:	6e690063 	cdpvs	0, 6, cr0, cr9, cr3, {3}
 404:	00305f74 	eorseq	r5, r0, r4, ror pc
 408:	5f746e69 	svcpl	0x00746e69
 40c:	6e690031 	mcrvs	0, 3, r0, cr9, cr1, {1}
 410:	00325f74 	eorseq	r5, r2, r4, ror pc
 414:	5f746e69 	svcpl	0x00746e69
 418:	6e690033 	mcrvs	0, 3, r0, cr9, cr3, {1}
 41c:	00345f74 	eorseq	r5, r4, r4, ror pc
 420:	5f6d7261 	svcpl	0x006d7261
 424:	5f636461 	svcpl	0x00636461
 428:	6500706f 	strvs	r7, [r0, #-111]	; 0xffffff91
 42c:	63656666 	cmnvs	r5, #106954752	; 0x6600000
 430:	65766974 	ldrbvs	r6, [r6, #-2420]!	; 0xfffff68c
 434:	6772615f 			; <UNDEFINED> instruction: 0x6772615f
 438:	6d726100 	ldfvse	f6, [r2, #-0]
 43c:	706d635f 	rsbvc	r6, sp, pc, asr r3
 440:	00706f5f 	rsbseq	r6, r0, pc, asr pc
 444:	5f746e69 	svcpl	0x00746e69
 448:	72610037 	rsbvc	r0, r1, #55, 0	; 0x37
 44c:	73745f6d 	cmnvc	r4, #436	; 0x1b4
 450:	706f5f74 	rsbvc	r5, pc, r4, ror pc	; <UNPREDICTABLE>
 454:	6d726100 	ldfvse	f6, [r2, #-0]
 458:	00454e5f 	subeq	r4, r5, pc, asr lr
 45c:	5f796173 	svcpl	0x00796173
 460:	6c6c6568 	cfstr64vs	mvdx6, [ip], #-416	; 0xfffffe60
 464:	6176006f 	cmnvs	r6, pc, rrx
 468:	6972705f 	ldmdbvs	r2!, {r0, r1, r2, r3, r4, r6, ip, sp, lr}^
 46c:	006b746e 	rsbeq	r7, fp, lr, ror #8
 470:	696c2f2e 	stmdbvs	ip!, {r1, r2, r3, r5, r8, r9, sl, fp, sp}^
 474:	702f6362 	eorvc	r6, pc, r2, ror #6
 478:	746e6972 	strbtvc	r6, [lr], #-2418	; 0xfffff68e
 47c:	00632e6b 	rsbeq	r2, r3, fp, ror #28
 480:	6573552f 	ldrbvs	r5, [r3, #-1327]!	; 0xfffffad1
 484:	6d2f7372 	stcvs	3, cr7, [pc, #-456]!	; 2c4 <__code_start__-0x7d3c>
 488:	73656c69 	cmnvc	r5, #26880	; 0x6900
 48c:	756f532f 	strbvc	r5, [pc, #-815]!	; 165 <__code_start__-0x7e9b>
 490:	2f656372 	svccs	0x00656372
 494:	34327363 	ldrtcc	r7, [r2], #-867	; 0xfffffc9d
 498:	2f786c30 	svccs	0x00786c30
 49c:	7062696c 	rsbvc	r6, r2, ip, ror #18
 4a0:	6e690069 	cdpvs	0, 6, cr0, cr9, cr9, {3}
 4a4:	6e726574 	mrcvs	5, 3, r6, cr2, cr4, {3}
 4a8:	705f6c61 	subsvc	r6, pc, r1, ror #24
 4ac:	68637475 	stmdavs	r3!, {r0, r2, r4, r5, r6, sl, ip, sp, lr}^
 4b0:	72007261 	andvc	r7, r0, #268435462	; 0x10000006
 4b4:	735f6970 	cmpvc	pc, #112, 18	; 0x1c0000
 4b8:	705f7465 	subsvc	r7, pc, r5, ror #8
 4bc:	00637475 	rsbeq	r7, r3, r5, ror r4
 4c0:	696c2f2e 	stmdbvs	ip!, {r1, r2, r3, r5, r8, r9, sl, fp, sp}^
 4c4:	702f6362 	eorvc	r6, pc, r2, ror #6
 4c8:	68637475 	stmdavs	r3!, {r0, r2, r4, r5, r6, sl, ip, sp, lr}^
 4cc:	632e7261 			; <UNDEFINED> instruction: 0x632e7261
 4d0:	72617500 	rsbvc	r7, r1, #0, 10
 4d4:	75705f74 	ldrbvc	r5, [r0, #-3956]!	; 0xfffff08c
 4d8:	69006374 	stmdbvs	r0, {r2, r4, r5, r6, r8, r9, sp, lr}
 4dc:	7265746e 	rsbvc	r7, r5, #1845493760	; 0x6e000000
 4e0:	5f6c616e 	svcpl	0x006c616e
 4e4:	6b747570 	blvs	1d1daac <__bss_end__+0x1d139d4>
 4e8:	6c2f2e00 	stcvs	14, cr2, [pc], #-0	; 4f0 <__code_start__-0x7b10>
 4ec:	2f636269 	svccs	0x00636269
 4f0:	6b747570 	blvs	1d1dab8 <__bss_end__+0x1d139e0>
 4f4:	6900632e 	stmdbvs	r0, {r1, r2, r3, r5, r8, r9, sp, lr}
 4f8:	67696473 			; <UNDEFINED> instruction: 0x67696473
 4fc:	75007469 	strvc	r7, [r0, #-1129]	; 0xfffffb97
 500:	36746e69 	ldrbtcc	r6, [r4], -r9, ror #28
 504:	00745f34 	rsbseq	r5, r4, r4, lsr pc
 508:	696c2f2e 	stmdbvs	ip!, {r1, r2, r3, r5, r8, r9, sl, fp, sp}^
 50c:	762f6362 	strtvc	r6, [pc], -r2, ror #6
 510:	72702d61 	rsbsvc	r2, r0, #6208	; 0x1840
 514:	6b746e69 	blvs	1d1bec0 <__bss_end__+0x1d11de8>
 518:	5f00632e 	svcpl	0x0000632e
 51c:	646f635f 	strbtvs	r6, [pc], #-863	; 524 <__code_start__-0x7adc>
 520:	74735f65 	ldrbtvc	r5, [r3], #-3941	; 0xfffff09b
 524:	5f747261 	svcpl	0x00747261
 528:	5f5f005f 	svcpl	0x005f005f
 52c:	5f737362 	svcpl	0x00737362
 530:	72617473 	rsbvc	r7, r1, #1929379840	; 0x73000000
 534:	005f5f74 	subseq	r5, pc, r4, ror pc	; <UNPREDICTABLE>
 538:	74646977 	strbtvc	r6, [r4], #-2423	; 0xfffff689
 53c:	5f5f0068 	svcpl	0x005f0068
 540:	61746164 	cmnvs	r4, r4, ror #2
 544:	646e655f 	strbtvs	r6, [lr], #-1375	; 0xfffffaa1
 548:	70005f5f 	andvc	r5, r0, pc, asr pc
 54c:	5f637475 	svcpl	0x00637475
 550:	5f007066 	svcpl	0x00007066
 554:	7373625f 	cmnvc	r3, #-268435451	; 0xf0000005
 558:	646e655f 	strbtvs	r6, [lr], #-1375	; 0xfffffaa1
 55c:	5f005f5f 	svcpl	0x00005f5f
 560:	6165685f 	cmnvs	r5, pc, asr r8
 564:	74735f70 	ldrbtvc	r5, [r3], #-3952	; 0xfffff090
 568:	5f747261 	svcpl	0x00747261
 56c:	7072005f 	rsbsvc	r0, r2, pc, asr r0
 570:	65735f69 	ldrbvs	r5, [r3, #-3945]!	; 0xfffff097
 574:	756f5f74 	strbvc	r5, [pc, #-3956]!	; fffff608 <__bss_end__+0xffff5530>
 578:	74757074 	ldrbtvc	r7, [r5], #-116	; 0xffffff8c
 57c:	746d6600 	strbtvc	r6, [sp], #-1536	; 0xfffffa00
 580:	6174735f 	cmnvs	r4, pc, asr r3
 584:	73007472 	movwvc	r7, #1138	; 0x472
 588:	61637274 	smcvs	14116	; 0x3724
 58c:	74730074 	ldrbtvc	r0, [r3], #-116	; 0xffffff8c
 590:	79706372 	ldmdbvc	r0!, {r1, r4, r5, r6, r8, r9, sp, lr}^
 594:	67656e00 	strbvs	r6, [r5, -r0, lsl #28]!
 598:	5f00705f 	svcpl	0x0000705f
 59c:	646f635f 	strbtvs	r6, [pc], #-863	; 5a4 <__code_start__-0x7a5c>
 5a0:	6e655f65 	cdpvs	15, 6, cr5, cr5, cr5, {3}
 5a4:	005f5f64 	subseq	r5, pc, r4, ror #30
 5a8:	74696d65 	strbtvc	r6, [r9], #-3429	; 0xfffff29b
 5ac:	74757000 	ldrbtvc	r7, [r5], #-0
 5b0:	70665f73 	rsbvc	r5, r6, r3, ror pc
 5b4:	76657200 	strbtvc	r7, [r5], -r0, lsl #4
 5b8:	65737265 	ldrbvs	r7, [r3, #-613]!	; 0xfffffd9b
 5bc:	72747300 	rsbsvc	r7, r4, #0, 6
 5c0:	00706d63 	rsbseq	r6, r0, r3, ror #26
 5c4:	61645f5f 	cmnvs	r4, pc, asr pc
 5c8:	735f6174 	cmpvc	pc, #29
 5cc:	74726174 	ldrbtvc	r6, [r2], #-372	; 0xfffffe8c
 5d0:	5f005f5f 	svcpl	0x00005f5f
 5d4:	6f72705f 	svcvs	0x0072705f
 5d8:	6e655f67 	cdpvs	15, 6, cr5, cr5, cr7, {3}
 5dc:	005f5f64 	subseq	r5, pc, r4, ror #30
 5e0:	316d756e 	cmncc	sp, lr, ror #10
 5e4:	72747300 	rsbsvc	r7, r4, #0, 6
 5e8:	706d636e 	rsbvc	r6, sp, lr, ror #6
 5ec:	73616200 	cmnvc	r1, #0, 4
 5f0:	69730065 	ldmdbvs	r3!, {r0, r2, r5, r6}^
 5f4:	64656e67 	strbtvs	r6, [r5], #-3687	; 0xfffff199
 5f8:	6400705f 	strvs	r7, [r0], #-95	; 0xffffffa1
 5fc:	62617369 	rsbvs	r7, r1, #-1543503871	; 0xa4000001
 600:	635f656c 	cmpvs	pc, #108, 10	; 0x1b000000
 604:	65686361 	strbvs	r6, [r8, #-865]!	; 0xfffffc9f
 608:	732f2e00 			; <UNDEFINED> instruction: 0x732f2e00
 60c:	66666174 			; <UNDEFINED> instruction: 0x66666174
 610:	6372732d 	cmnvs	r2, #-1275068416	; 0xb4000000
 614:	6361632f 	cmnvs	r1, #-1140850688	; 0xbc000000
 618:	632e6568 			; <UNDEFINED> instruction: 0x632e6568
 61c:	69707200 	ldmdbvs	r0!, {r9, ip, sp, lr}^
 620:	6265725f 	rsbvs	r7, r5, #-268435451	; 0xf0000005
 624:	00746f6f 	rsbseq	r6, r4, pc, ror #30
 628:	616c6564 	cmnvs	ip, r4, ror #10
 62c:	736d5f79 	cmnvc	sp, #484	; 0x1e4
 630:	732f2e00 			; <UNDEFINED> instruction: 0x732f2e00
 634:	66666174 			; <UNDEFINED> instruction: 0x66666174
 638:	6372732d 	cmnvs	r2, #-1275068416	; 0xb4000000
 63c:	656c632f 	strbvs	r6, [ip, #-815]!	; 0xfffffcd1
 640:	722d6e61 	eorvc	r6, sp, #1552	; 0x610
 644:	6f6f6265 	svcvs	0x006f6265
 648:	00632e74 	rsbeq	r2, r3, r4, ror lr
 64c:	74726175 	ldrbtvc	r6, [r2], #-373	; 0xfffffe8b
 650:	756c665f 	strbvc	r6, [ip, #-1631]!	; 0xfffff9a1
 654:	745f6873 	ldrbvc	r6, [pc], #-2163	; 65c <__code_start__-0x79a4>
 658:	635f0078 	cmpvs	pc, #120, 0	; 0x78
 65c:	72617473 	rsbvc	r7, r1, #1929379840	; 0x73000000
 660:	73620074 	cmnvc	r2, #116, 0	; 0x74
 664:	6e655f73 	mcrvs	15, 3, r5, cr5, cr3, {3}
 668:	61750064 	cmnvs	r5, r4, rrx
 66c:	695f7472 	ldmdbvs	pc, {r1, r4, r5, r6, sl, ip, sp, lr}^	; <UNPREDICTABLE>
 670:	0074696e 	rsbseq	r6, r4, lr, ror #18
 674:	74737563 	ldrbtvc	r7, [r3], #-1379	; 0xfffffa9d
 678:	6c5f6d6f 	mrrcvs	13, 6, r6, pc, cr15	; <UNPREDICTABLE>
 67c:	6564616f 	strbvs	r6, [r4, #-367]!	; 0xfffffe91
 680:	2f2e0072 	svccs	0x002e0072
 684:	66617473 			; <UNDEFINED> instruction: 0x66617473
 688:	72732d66 	rsbsvc	r2, r3, #6528	; 0x1980
 68c:	73632f63 	cmnvc	r3, #396	; 0x18c
 690:	74726174 	ldrbtvc	r6, [r2], #-372	; 0xfffffe8c
 694:	2e00632e 	cdpcs	3, 0, cr6, cr0, cr14, {1}
 698:	6174732f 	cmnvs	r4, pc, lsr #6
 69c:	732d6666 			; <UNDEFINED> instruction: 0x732d6666
 6a0:	632f6372 			; <UNDEFINED> instruction: 0x632f6372
 6a4:	6f747375 	svcvs	0x00747375
 6a8:	6f6c2d6d 	svcvs	0x006c2d6d
 6ac:	72656461 	rsbvc	r6, r5, #1627389952	; 0x61000000
 6b0:	7200632e 	andvc	r6, r0, #-1207959552	; 0xb8000000
 6b4:	6f6f6265 	svcvs	0x006f6265
 6b8:	61635f74 	smcvs	13812	; 0x35f4
 6bc:	756f6c6c 	strbvc	r6, [pc, #-3180]!	; fffffa58 <__bss_end__+0xffff5980>
 6c0:	4d500074 	ldclmi	0, cr0, [r0, #-464]	; 0xfffffe30
 6c4:	4f44575f 	svcmi	0x0044575f
 6c8:	55500047 	ldrbpl	r0, [r0, #-71]	; 0xffffffb9
 6cc:	00323354 	eorseq	r3, r2, r4, asr r3
 6d0:	5f746573 	svcpl	0x00746573
 6d4:	72657375 	rsbvc	r7, r5, #-738197503	; 0xd4000001
 6d8:	76656c5f 			; <UNDEFINED> instruction: 0x76656c5f
 6dc:	2e006c65 	cdpcs	12, 0, cr6, cr0, cr5, {3}
 6e0:	6174732f 	cmnvs	r4, pc, lsr #6
 6e4:	732d6666 			; <UNDEFINED> instruction: 0x732d6666
 6e8:	722f6372 	eorvc	r6, pc, #-939524095	; 0xc8000001
 6ec:	6f6f6265 	svcvs	0x006f6265
 6f0:	00632e74 	rsbeq	r2, r3, r4, ror lr
 6f4:	505f4d50 	subspl	r4, pc, r0, asr sp	; <UNPREDICTABLE>
 6f8:	57535341 	ldrbpl	r5, [r3, -r1, asr #6]
 6fc:	0044524f 	subeq	r5, r4, pc, asr #4
 700:	755f7461 	ldrbvc	r7, [pc, #-1121]	; 2a7 <__code_start__-0x7d59>
 704:	5f726573 	svcpl	0x00726573
 708:	6576656c 	ldrbvs	r6, [r6, #-1388]!	; 0xfffffa94
 70c:	4d50006c 	ldclmi	0, cr0, [r0, #-432]	; 0xfffffe50
 710:	5453525f 	ldrbpl	r5, [r3], #-607	; 0xfffffda1
 714:	52575f43 	subspl	r5, r7, #268	; 0x10c
 718:	5f474643 	svcpl	0x00474643
 71c:	4c4c5546 	cfstr64mi	mvdx5, [ip], {70}	; 0x46
 720:	5345525f 	movtpl	r5, #21087	; 0x525f
 724:	50005445 	andpl	r5, r0, r5, asr #8
 728:	53525f4d 	cmppl	r2, #308	; 0x134
 72c:	63004354 	movwvs	r4, #852	; 0x354
 730:	00727370 	rsbseq	r7, r2, r0, ror r3
 734:	5f766564 	svcpl	0x00766564
 738:	72726162 	rsbsvc	r6, r2, #-2147483624	; 0x80000018
 73c:	00726569 	rsbseq	r6, r2, r9, ror #10
 740:	616c6564 	cmnvs	ip, r4, ror #10
 744:	65735f79 	ldrbvs	r5, [r3, #-3961]!	; 0xfffff087
 748:	2f2e0063 	svccs	0x002e0063
 74c:	66617473 			; <UNDEFINED> instruction: 0x66617473
 750:	72732d66 	rsbsvc	r2, r3, #6528	; 0x1980
 754:	69742f63 	ldmdbvs	r4!, {r0, r1, r5, r6, r8, r9, sl, fp, sp}^
 758:	2e72656d 	cdpcs	5, 7, cr6, cr2, cr13, {3}
 75c:	45470063 	strbmi	r0, [r7, #-99]	; 0xffffff9d
 760:	00323354 	eorseq	r3, r2, r4, asr r3
 764:	656d6974 	strbvs	r6, [sp, #-2420]!	; 0xfffff68c
 768:	65675f72 	strbvs	r5, [r7, #-3954]!	; 0xfffff08e
 76c:	73755f74 	cmnvc	r5, #116, 30	; 0x1d0
 770:	64006365 	strvs	r6, [r0], #-869	; 0xfffffc9b
 774:	79616c65 	stmdbvc	r1!, {r0, r2, r5, r6, sl, fp, sp, lr}^
 778:	0073755f 	rsbseq	r7, r3, pc, asr r5
 77c:	656d6974 	strbvs	r6, [sp, #-2420]!	; 0xfffff68c
 780:	65675f72 	strbvs	r5, [r7, #-3954]!	; 0xfffff08e
 784:	73755f74 	cmnvc	r5, #116, 30	; 0x1d0
 788:	725f6365 	subsvc	r6, pc, #-1811939327	; 0x94000001
 78c:	62007761 	andvs	r7, r0, #25427968	; 0x1840000
 790:	5f647561 	svcpl	0x00647561
 794:	006c6176 	rsbeq	r6, ip, r6, ror r1
 798:	74617473 	strbtvc	r7, [r1], #-1139	; 0xfffffb8d
 79c:	72617500 	rsbvc	r7, r1, #0, 10
 7a0:	61635f74 	smcvs	13812	; 0x35f4
 7a4:	65675f6e 	strbvs	r5, [r7, #-3950]!	; 0xfffff092
 7a8:	47006374 	smlsdxmi	r0, r4, r3, r6
 7ac:	5f4f4950 	svcpl	0x004f4950
 7b0:	434e5546 	movtmi	r5, #58694	; 0xe546
 7b4:	54554f5f 	ldrbpl	r4, [r5], #-3935	; 0xfffff0a1
 7b8:	00545550 	subseq	r5, r4, r0, asr r5
 7bc:	74726175 	ldrbtvc	r6, [r2], #-373	; 0xfffffe8b
 7c0:	7500632e 	strvc	r6, [r0, #-814]	; 0xfffffcd2
 7c4:	5f747261 	svcpl	0x00747261
 7c8:	5f6e6163 	svcpl	0x006e6163
 7cc:	63747570 	cmnvs	r4, #112, 10	; 0x1c000000
 7d0:	72617500 	rsbvc	r7, r1, #0, 10
 7d4:	61750074 	cmnvs	r5, r4, ror r0
 7d8:	745f7472 	ldrbvc	r7, [pc], #-1138	; 7e0 <__code_start__-0x7820>
 7dc:	73695f78 	cmnvc	r9, #120, 30	; 0x1e0
 7e0:	706d655f 	rsbvc	r6, sp, pc, asr r5
 7e4:	47007974 	smlsdxmi	r0, r4, r9, r7
 7e8:	5f4f4950 	svcpl	0x004f4950
 7ec:	434e5546 	movtmi	r5, #58694	; 0xe546
 7f0:	544c415f 	strbpl	r4, [ip], #-351	; 0xfffffea1
 7f4:	50470030 	subpl	r0, r7, r0, lsr r0
 7f8:	465f4f49 	ldrbmi	r4, [pc], -r9, asr #30
 7fc:	5f434e55 	svcpl	0x00434e55
 800:	31544c41 	cmpcc	r4, r1, asr #24
 804:	49504700 	ldmdbmi	r0, {r8, r9, sl, lr}^
 808:	55465f4f 	strbpl	r5, [r6, #-3919]	; 0xfffff0b1
 80c:	415f434e 	cmpmi	pc, lr, asr #6
 810:	0032544c 	eorseq	r5, r2, ip, asr #8
 814:	4f495047 	svcmi	0x00495047
 818:	4e55465f 	mrcmi	6, 2, r4, cr5, cr15, {2}
 81c:	4c415f43 	mcrrmi	15, 4, r5, r1, cr3
 820:	47003354 	smlsdmi	r0, r4, r3, r3
 824:	5f4f4950 	svcpl	0x004f4950
 828:	434e5546 	movtmi	r5, #58694	; 0xe546
 82c:	544c415f 	strbpl	r4, [ip], #-351	; 0xfffffea1
 830:	75700035 	ldrbvc	r0, [r0, #-53]!	; 0xffffffcb
 834:	00323374 	eorseq	r3, r2, r4, ror r3
 838:	64756162 	ldrbtvs	r6, [r5], #-354	; 0xfffffe9e
 83c:	78756100 	ldmdavc	r5!, {r8, sp, lr}^
 840:	616e655f 	cmnvs	lr, pc, asr r5
 844:	73656c62 	cmnvc	r5, #25088	; 0x6200
 848:	72617500 	rsbvc	r7, r1, #0, 10
 84c:	65675f74 	strbvs	r5, [r7, #-3956]!	; 0xfffff08c
 850:	47006374 	smlsdxmi	r0, r4, r3, r6
 854:	4320554e 			; <UNDEFINED> instruction: 0x4320554e
 858:	31203939 			; <UNDEFINED> instruction: 0x31203939
 85c:	2e332e30 	mrccs	14, 1, r2, cr3, cr0, {1}
 860:	30322031 	eorscc	r2, r2, r1, lsr r0
 864:	38303132 	ldmdacc	r0!, {r1, r4, r5, r8, ip, sp}
 868:	28203432 	stmdacs	r0!, {r1, r4, r5, sl, ip, sp}
 86c:	656c6572 	strbvs	r6, [ip, #-1394]!	; 0xfffffa8e
 870:	29657361 	stmdbcs	r5!, {r0, r5, r6, r8, r9, ip, sp, lr}^
 874:	636d2d20 	cmnvs	sp, #32, 26	; 0x800
 878:	613d7570 	teqvs	sp, r0, ror r5
 87c:	31316d72 	teqcc	r1, r2, ror sp
 880:	7a6a3637 	bvc	1a8e164 <__bss_end__+0x1a8408c>
 884:	20732d66 	rsbscs	r2, r3, r6, ror #26
 888:	75746d2d 	ldrbvc	r6, [r4, #-3373]!	; 0xfffff2d3
 88c:	613d656e 	teqvs	sp, lr, ror #10
 890:	31316d72 	teqcc	r1, r2, ror sp
 894:	7a6a3637 	bvc	1a8e178 <__bss_end__+0x1a840a0>
 898:	20732d66 	rsbscs	r2, r3, r6, ror #26
 89c:	6c666d2d 	stclvs	13, cr6, [r6], #-180	; 0xffffff4c
 8a0:	2d74616f 	ldfcse	f6, [r4, #-444]!	; 0xfffffe44
 8a4:	3d696261 	sfmcc	f6, 2, [r9, #-388]!	; 0xfffffe7c
 8a8:	74666f73 	strbtvc	r6, [r6], #-3955	; 0xfffff08d
 8ac:	616d2d20 	cmnvs	sp, r0, lsr #26
 8b0:	2d206d72 	stccs	13, cr6, [r0, #-456]!	; 0xfffffe38
 8b4:	6372616d 	cmnvs	r2, #1073741851	; 0x4000001b
 8b8:	72613d68 	rsbvc	r3, r1, #104, 26	; 0x1a00
 8bc:	6b36766d 	blvs	d9e278 <__bss_end__+0xd941a0>
 8c0:	672d207a 			; <UNDEFINED> instruction: 0x672d207a
 8c4:	20626467 	rsbcs	r6, r2, r7, ror #8
 8c8:	20674f2d 	rsbcs	r4, r7, sp, lsr #30
 8cc:	6474732d 	ldrbtvs	r7, [r4], #-813	; 0xfffffcd3
 8d0:	756e673d 	strbvc	r6, [lr, #-1853]!	; 0xfffff8c3
 8d4:	2d203939 			; <UNDEFINED> instruction: 0x2d203939
 8d8:	65726666 	ldrbvs	r6, [r2, #-1638]!	; 0xfffff99a
 8dc:	61747365 	cmnvs	r4, r5, ror #6
 8e0:	6e69646e 	cdpvs	4, 6, cr6, cr9, cr14, {3}
 8e4:	6e630067 	cdpvs	0, 6, cr0, cr3, cr7, {3}
 8e8:	75006c74 	strvc	r6, [r0, #-3188]	; 0xfffff38c
 8ec:	5f747261 	svcpl	0x00747261
 8f0:	61736964 	cmnvs	r3, r4, ror #18
 8f4:	00656c62 	rsbeq	r6, r5, r2, ror #24
 8f8:	74726175 	ldrbtvc	r6, [r2], #-373	; 0xfffffe8b
 8fc:	7361685f 	cmnvc	r1, #6225920	; 0x5f0000
 900:	7461645f 	strbtvc	r6, [r1], #-1119	; 0xfffffba1
 904:	50470061 	subpl	r0, r7, r1, rrx
 908:	465f4f49 	ldrbmi	r4, [pc], -r9, asr #30
 90c:	5f434e55 	svcpl	0x00434e55
 910:	34544c41 	ldrbcc	r4, [r4], #-3137	; 0xfffff3bf
 914:	5f726f00 	svcpl	0x00726f00
 918:	32336e69 	eorscc	r6, r3, #1680	; 0x690
 91c:	72637300 	rsbvc	r7, r3, #0, 6
 920:	68637461 	stmdavs	r3!, {r0, r5, r6, sl, ip, sp, lr}^
 924:	78756100 	ldmdavc	r5!, {r8, sp, lr}^
 928:	7265705f 	rsbvc	r7, r5, #95, 0	; 0x5f
 92c:	73687069 	cmnvc	r8, #105, 0	; 0x69
 930:	6f682f00 	svcvs	0x00682f00
 934:	652f656d 	strvs	r6, [pc, #-1389]!	; 3cf <__code_start__-0x7c31>
 938:	656c676e 	strbvs	r6, [ip, #-1902]!	; 0xfffff892
 93c:	6c632f72 	stclvs	15, cr2, [r3], #-456	; 0xfffffe38
 940:	2f737361 	svccs	0x00737361
 944:	34317363 	ldrtcc	r7, [r1], #-867	; 0xfffffc9d
 948:	322d6530 	eorcc	r6, sp, #48, 10	; 0xc000000
 94c:	6e697732 	mcrvs	7, 3, r7, cr9, cr2, {1}
 950:	62696c2f 	rsbvs	r6, r9, #12032	; 0x2f00
 954:	732f6970 			; <UNDEFINED> instruction: 0x732f6970
 958:	66666174 			; <UNDEFINED> instruction: 0x66666174
 95c:	6972702d 	ldmdbvs	r2!, {r0, r2, r3, r5, ip, sp, lr}^
 960:	65746176 	ldrbvs	r6, [r4, #-374]!	; 0xfffffe8a
 964:	646e6100 	strbtvs	r6, [lr], #-256	; 0xffffff00
 968:	336e695f 	cmncc	lr, #1556480	; 0x17c000
 96c:	50470032 	subpl	r0, r7, r2, lsr r0
 970:	465f4f49 	ldrbmi	r4, [pc], -r9, asr #30
 974:	5f434e55 	svcpl	0x00434e55
 978:	55504e49 	ldrbpl	r4, [r0, #-3657]	; 0xfffff1b7
 97c:	70670054 	rsbvc	r0, r7, r4, asr r0
 980:	735f6f69 	cmpvc	pc, #420	; 0x1a4
 984:	665f7465 	ldrbvs	r7, [pc], -r5, ror #8
 988:	74636e75 	strbtvc	r6, [r3], #-3701	; 0xfffff18b
 98c:	006e6f69 	rsbeq	r6, lr, r9, ror #30
 990:	33746567 	cmncc	r4, #432013312	; 0x19c00000
 994:	6d6b0032 	stclvs	0, cr0, [fp, #-200]!	; 0xffffff38
 998:	6f6c6c61 	svcvs	0x006c6c61
 99c:	65685f63 	strbvs	r5, [r8, #-3939]!	; 0xfffff09d
 9a0:	735f7061 	cmpvc	pc, #97, 0	; 0x61
 9a4:	74726174 	ldrbtvc	r6, [r2], #-372	; 0xfffffe8c
 9a8:	78616d00 	stmdavc	r1!, {r8, sl, fp, sp, lr}^
 9ac:	79626e5f 	stmdbvc	r2!, {r0, r1, r2, r3, r4, r6, r9, sl, fp, sp, lr}^
 9b0:	00736574 	rsbseq	r6, r3, r4, ror r5
 9b4:	6464615f 	strbtvs	r6, [r4], #-351	; 0xfffffea1
 9b8:	666b0072 			; <UNDEFINED> instruction: 0x666b0072
 9bc:	00656572 	rsbeq	r6, r5, r2, ror r5
 9c0:	70616568 	rsbvc	r6, r1, r8, ror #10
 9c4:	78616d5f 	stmdavc	r1!, {r0, r1, r2, r3, r4, r6, r8, sl, fp, sp, lr}^
 9c8:	72666b00 	rsbvc	r6, r6, #0, 22
 9cc:	615f6565 	cmpvs	pc, r5, ror #10
 9d0:	72006c6c 	andvc	r6, r0, #108, 24	; 0x6c00
 9d4:	646e756f 	strbtvs	r7, [lr], #-1391	; 0xfffffa91
 9d8:	6b007075 	blvs	1cbb4 <__bss_end__+0x12adc>
 9dc:	6c6c616d 	stfvse	f6, [ip], #-436	; 0xfffffe4c
 9e0:	685f636f 	ldmdavs	pc, {r0, r1, r2, r3, r5, r6, r8, r9, sp, lr}^	; <UNPREDICTABLE>
 9e4:	5f706165 	svcpl	0x00706165
 9e8:	00646e65 	rsbeq	r6, r4, r5, ror #28
 9ec:	70616568 	rsbvc	r6, r1, r8, ror #10
 9f0:	696e6900 	stmdbvs	lr!, {r8, fp, sp, lr}^
 9f4:	00705f74 	rsbseq	r5, r0, r4, ror pc
 9f8:	6572666b 	ldrbvs	r6, [r2, #-1643]!	; 0xfffff995
 9fc:	6f705f65 	svcvs	0x00705f65
 a00:	656d0070 	strbvs	r0, [sp, #-112]!	; 0xffffff90
 a04:	7465736d 	strbtvc	r7, [r5], #-877	; 0xfffffc93
 a08:	696c6100 	stmdbvs	ip!, {r8, sp, lr}^
 a0c:	656d6e67 	strbvs	r6, [sp, #-3687]!	; 0xfffff199
 a10:	6d00746e 	cfstrsvs	mvf7, [r0, #-440]	; 0xfffffe48
 a14:	755f7861 	ldrbvc	r7, [pc, #-2145]	; 1bb <__code_start__-0x7e45>
 a18:	4f003233 	svcmi	0x00003233
 a1c:	424d656e 	submi	r6, sp, #461373440	; 0x1b800000
 a20:	616d6b00 	cmnvs	sp, r0, lsl #22
 a24:	636f6c6c 	cmnvs	pc, #108, 24	; 0x6c00
 a28:	746f6e5f 	strbtvc	r6, [pc], #-3679	; a30 <__code_start__-0x75d0>
 a2c:	6f72657a 	svcvs	0x0072657a
 a30:	616d6b00 	cmnvs	sp, r0, lsl #22
 a34:	636f6c6c 	cmnvs	pc, #108, 24	; 0x6c00
 a38:	696c615f 	stmdbvs	ip!, {r0, r1, r2, r3, r4, r6, r8, sp, lr}^
 a3c:	64656e67 	strbtvs	r6, [r5], #-3687	; 0xfffff199
 a40:	5f736900 	svcpl	0x00736900
 a44:	32776f70 	rsbscc	r6, r7, #112, 30	; 0x1c0
 a48:	616d6b00 	cmnvs	sp, r0, lsl #22
 a4c:	636f6c6c 	cmnvs	pc, #108, 24	; 0x6c00
 a50:	6b00632e 	blvs	19710 <__bss_end__+0xf638>
 a54:	6c6c616d 	stfvse	f6, [ip], #-436	; 0xfffffe4c
 a58:	695f636f 	ldmdbvs	pc, {r0, r1, r2, r3, r5, r6, r8, r9, sp, lr}^	; <UNPREDICTABLE>
 a5c:	0074696e 	rsbseq	r6, r4, lr, ror #18
 a60:	615f7369 	cmpvs	pc, r9, ror #6
 a64:	6e67696c 	vnmulvs.f16	s13, s14, s25	; <UNPREDICTABLE>
 a68:	64006465 	strvs	r6, [r0], #-1125	; 0xfffffb9b
 a6c:	6c62756f 	cfstr64vs	mvdx7, [r2], #-444	; 0xfffffe44
 a70:	6d6b0065 	stclvs	0, cr0, [fp, #-404]!	; 0xfffffe6c
 a74:	6f6c6c61 	svcvs	0x006c6c61
 a78:	65685f63 	strbvs	r5, [r8, #-3939]!	; 0xfffff09d
 a7c:	705f7061 	subsvc	r7, pc, r1, rrx
 a80:	6b007274 	blvs	1d458 <__bss_end__+0x13380>
 a84:	6c6c616d 	stfvse	f6, [ip], #-436	; 0xfffffe4c
 a88:	695f636f 	ldmdbvs	pc, {r0, r1, r2, r3, r5, r6, r8, r9, sp, lr}^	; <UNPREDICTABLE>
 a8c:	5f74696e 	svcpl	0x0074696e
 a90:	5f746573 	svcpl	0x00746573
 a94:	72617473 	rsbvc	r7, r1, #1929379840	; 0x73000000
 a98:	69730074 	ldmdbvs	r3!, {r2, r4, r5, r6}^
 a9c:	745f657a 	ldrbvc	r6, [pc], #-1402	; aa4 <__code_start__-0x755c>
 aa0:	6c2f2e00 	stcvs	14, cr2, [pc], #-0	; aa8 <__code_start__-0x7558>
 aa4:	2f636269 	svccs	0x00636269
 aa8:	736d656d 	cmnvc	sp, #457179136	; 0x1b400000
 aac:	632e7465 			; <UNDEFINED> instruction: 0x632e7465
 ab0:	73656400 	cmnvc	r5, #0, 8
 ab4:	2f2e0074 	svccs	0x002e0074
 ab8:	6362696c 	cmnvs	r2, #108, 18	; 0x1b0000
 abc:	7274732f 	rsbsvc	r7, r4, #-1140850688	; 0xbc000000
 ac0:	2e746163 	rpwcssz	f6, f4, f3
 ac4:	2f2e0063 	svccs	0x002e0063
 ac8:	6362696c 	cmnvs	r2, #108, 18	; 0x1b0000
 acc:	7274732f 	rsbsvc	r7, r4, #-1140850688	; 0xbc000000
 ad0:	2e706d63 	cdpcs	13, 7, cr6, cr0, cr3, {3}
 ad4:	2f2e0063 	svccs	0x002e0063
 ad8:	6362696c 	cmnvs	r2, #108, 18	; 0x1b0000
 adc:	7274732f 	rsbsvc	r7, r4, #-1140850688	; 0xbc000000
 ae0:	2e797063 	cdpcs	0, 7, cr7, cr9, cr3, {3}
 ae4:	2f2e0063 	svccs	0x002e0063
 ae8:	6362696c 	cmnvs	r2, #108, 18	; 0x1b0000
 aec:	7274732f 	rsbsvc	r7, r4, #-1140850688	; 0xbc000000
 af0:	706d636e 	rsbvc	r6, sp, lr, ror #6
 af4:	2e00632e 	cdpcs	3, 0, cr6, cr0, cr14, {1}
 af8:	6174732f 	cmnvs	r4, pc, lsr #6
 afc:	732d6666 			; <UNDEFINED> instruction: 0x732d6666
 b00:	642f6372 	strtvs	r6, [pc], #-882	; b08 <__code_start__-0x74f8>
 b04:	75616665 	strbvc	r6, [r1, #-1637]!	; 0xfffff99b
 b08:	722d746c 	eorvc	r7, sp, #108, 8	; 0x6c000000
 b0c:	6f6f6265 	svcvs	0x006f6265
 b10:	61632d74 	smcvs	13012	; 0x32d4
 b14:	756f6c6c 	strbvc	r6, [pc, #-3180]!	; fffffeb0 <__bss_end__+0xffff5dd8>
 b18:	00632e74 	rsbeq	r2, r3, r4, ror lr
 b1c:	6f697067 	svcvs	0x00697067
 b20:	726c635f 	rsbvc	r6, ip, #2080374785	; 0x7c000001
 b24:	70670030 	rsbvc	r0, r7, r0, lsr r0
 b28:	735f6f69 	cmpvc	pc, #420	; 0x1a4
 b2c:	00307465 	eorseq	r7, r0, r5, ror #8
 b30:	6f697067 	svcvs	0x00697067
 b34:	6972775f 	ldmdbvs	r2!, {r0, r1, r2, r3, r4, r6, r8, r9, sl, ip, sp, lr}^
 b38:	44006574 	strmi	r6, [r0], #-1396	; 0xfffffa8c
 b3c:	565f5645 	ldrbpl	r5, [pc], -r5, asr #12
 b40:	32334c41 	eorscc	r4, r3, #16640	; 0x4100
 b44:	69706700 	ldmdbvs	r0!, {r8, r9, sl, sp, lr}^
 b48:	65725f6f 	ldrbvs	r5, [r2, #-3951]!	; 0xfffff091
 b4c:	67006461 	strvs	r6, [r0, -r1, ror #8]
 b50:	5f6f6970 	svcpl	0x006f6970
 b54:	5f746573 	svcpl	0x00746573
 b58:	75706e69 	ldrbvc	r6, [r0, #-3689]!	; 0xfffff197
 b5c:	70670074 	rsbvc	r0, r7, r4, ror r0
 b60:	735f6f69 	cmpvc	pc, #420	; 0x1a4
 b64:	6f5f7465 	svcvs	0x005f7465
 b68:	67006666 	strvs	r6, [r0, -r6, ror #12]
 b6c:	5f6f6970 	svcpl	0x006f6970
 b70:	5f746573 	svcpl	0x00746573
 b74:	7074756f 	rsbsvc	r7, r4, pc, ror #10
 b78:	67007475 	smlsdxvs	r0, r5, r4, r7
 b7c:	5f6f6970 	svcpl	0x006f6970
 b80:	636e7566 	cmnvs	lr, #427819008	; 0x19800000
 b84:	6700745f 	smlsdvs	r0, pc, r4, r7	; <UNPREDICTABLE>
 b88:	5f6f6970 	svcpl	0x006f6970
 b8c:	3076656c 	rsbscc	r6, r6, ip, ror #10
 b90:	6e616200 	cdpvs	2, 6, cr6, cr1, cr0, {0}
 b94:	7067006b 	rsbvc	r0, r7, fp, rrx
 b98:	632e6f69 			; <UNDEFINED> instruction: 0x632e6f69
 b9c:	69706700 	ldmdbvs	r0!, {r8, r9, sl, sp, lr}^
 ba0:	65735f6f 	ldrbvs	r5, [r3, #-3951]!	; 0xfffff091
 ba4:	6e6f5f74 	mcrvs	15, 3, r5, cr15, cr4, {3}
	...

Disassembly of section .debug_frame:

00000000 <.debug_frame>:
   0:	0000000c 	andeq	r0, r0, ip
   4:	ffffffff 			; <UNDEFINED> instruction: 0xffffffff
   8:	7c020001 	stcvc	0, cr0, [r2], {1}
   c:	000d0c0e 	andeq	r0, sp, lr, lsl #24
  10:	0000000c 	andeq	r0, r0, ip
  14:	00000000 	andeq	r0, r0, r0
  18:	00008038 	andeq	r8, r0, r8, lsr r0
  1c:	00000018 	andeq	r0, r0, r8, lsl r0
  20:	0000000c 	andeq	r0, r0, ip
  24:	00000000 	andeq	r0, r0, r0
  28:	00008050 	andeq	r8, r0, r0, asr r0
  2c:	00000018 	andeq	r0, r0, r8, lsl r0
  30:	0000000c 	andeq	r0, r0, ip
  34:	00000000 	andeq	r0, r0, r0
  38:	00008068 	andeq	r8, r0, r8, rrx
  3c:	00000018 	andeq	r0, r0, r8, lsl r0
  40:	0000000c 	andeq	r0, r0, ip
  44:	00000000 	andeq	r0, r0, r0
  48:	00008080 	andeq	r8, r0, r0, lsl #1
  4c:	00000018 	andeq	r0, r0, r8, lsl r0
  50:	0000000c 	andeq	r0, r0, ip
  54:	00000000 	andeq	r0, r0, r0
  58:	00008098 	muleq	r0, r8, r0
  5c:	00000018 	andeq	r0, r0, r8, lsl r0
  60:	0000000c 	andeq	r0, r0, ip
  64:	00000000 	andeq	r0, r0, r0
  68:	000080b0 	strheq	r8, [r0], -r0
  6c:	00000018 	andeq	r0, r0, r8, lsl r0
  70:	0000000c 	andeq	r0, r0, ip
  74:	00000000 	andeq	r0, r0, r0
  78:	000080c8 	andeq	r8, r0, r8, asr #1
  7c:	00000018 	andeq	r0, r0, r8, lsl r0
  80:	0000000c 	andeq	r0, r0, ip
  84:	00000000 	andeq	r0, r0, r0
  88:	000080e0 	andeq	r8, r0, r0, ror #1
  8c:	00000018 	andeq	r0, r0, r8, lsl r0
  90:	00000014 	andeq	r0, r0, r4, lsl r0
  94:	00000000 	andeq	r0, r0, r0
  98:	000080f8 	strdeq	r8, [r0], -r8	; <UNPREDICTABLE>
  9c:	00000020 	andeq	r0, r0, r0, lsr #32
  a0:	84080e42 	strhi	r0, [r8], #-3650	; 0xfffff1be
  a4:	00018e02 	andeq	r8, r1, r2, lsl #28
  a8:	00000018 	andeq	r0, r0, r8, lsl r0
  ac:	00000000 	andeq	r0, r0, r0
  b0:	00008118 	andeq	r8, r0, r8, lsl r1
  b4:	00000028 	andeq	r0, r0, r8, lsr #32
  b8:	84100e42 	ldrhi	r0, [r0], #-3650	; 0xfffff1be
  bc:	86038504 	strhi	r8, [r3], -r4, lsl #10
  c0:	00018e02 	andeq	r8, r1, r2, lsl #28
  c4:	0000001c 	andeq	r0, r0, ip, lsl r0
  c8:	00000000 	andeq	r0, r0, r0
  cc:	00008140 	andeq	r8, r0, r0, asr #2
  d0:	000000d0 	ldrdeq	r0, [r0], -r0	; <UNPREDICTABLE>
  d4:	840c0e42 	strhi	r0, [ip], #-3650	; 0xfffff1be
  d8:	8e028503 	cfsh32hi	mvfx8, mvfx2, #3
  dc:	180e4201 	stmdane	lr, {r0, r9, lr}
  e0:	0c0e5602 	stceq	6, cr5, [lr], {2}
  e4:	00000034 	andeq	r0, r0, r4, lsr r0
  e8:	00000000 	andeq	r0, r0, r0
  ec:	00008210 	andeq	r8, r0, r0, lsl r2
  f0:	00000140 	andeq	r0, r0, r0, asr #2
  f4:	810c0e42 	tsthi	ip, r2, asr #28
  f8:	83028203 	movwhi	r8, #8707	; 0x2203
  fc:	1c0e4201 	sfmne	f4, 4, [lr], {1}
 100:	06850784 	streq	r0, [r5], r4, lsl #15
 104:	048e0586 	streq	r0, [lr], #1414	; 0x586
 108:	02600e42 	rsbeq	r0, r0, #1056	; 0x420
 10c:	421c0e86 	andsmi	r0, ip, #2144	; 0x860
 110:	c4c5c6ce 	strbgt	ip, [r5], #1742	; 0x6ce
 114:	c3420c0e 	movtgt	r0, #11278	; 0x2c0e
 118:	000ec1c2 	andeq	ip, lr, r2, asr #3
 11c:	00000014 	andeq	r0, r0, r4, lsl r0
 120:	00000000 	andeq	r0, r0, r0
 124:	00008350 	andeq	r8, r0, r0, asr r3
 128:	00000028 	andeq	r0, r0, r8, lsr #32
 12c:	84080e42 	strhi	r0, [r8], #-3650	; 0xfffff1be
 130:	00018e02 	andeq	r8, r1, r2, lsl #28
 134:	0000001c 	andeq	r0, r0, ip, lsl r0
 138:	00000000 	andeq	r0, r0, r0
 13c:	00008378 	andeq	r8, r0, r8, ror r3
 140:	000002e8 	andeq	r0, r0, r8, ror #5
 144:	84100e42 	ldrhi	r0, [r0], #-3650	; 0xfffff1be
 148:	86038504 	strhi	r8, [r3], -r4, lsl #10
 14c:	42018e02 	andmi	r8, r1, #2, 28
 150:	0000480e 	andeq	r4, r0, lr, lsl #16
 154:	0000000c 	andeq	r0, r0, ip
 158:	ffffffff 			; <UNDEFINED> instruction: 0xffffffff
 15c:	7c020001 	stcvc	0, cr0, [r2], {1}
 160:	000d0c0e 	andeq	r0, sp, lr, lsl #24
 164:	00000034 	andeq	r0, r0, r4, lsr r0
 168:	00000154 	andeq	r0, r0, r4, asr r1
 16c:	00008660 	andeq	r8, r0, r0, ror #12
 170:	00000058 	andeq	r0, r0, r8, asr r0
 174:	80100e42 	andshi	r0, r0, r2, asr #28
 178:	82038104 	andhi	r8, r3, #1
 17c:	42018302 	andmi	r8, r1, #134217728	; 0x8000000
 180:	07841c0e 	streq	r1, [r4, lr, lsl #24]
 184:	058e0685 	streq	r0, [lr, #1669]	; 0x685
 188:	5c280e42 	stcpl	14, cr0, [r8], #-264	; 0xfffffef8
 18c:	ce421c0e 	cdpgt	12, 4, cr1, cr2, cr14, {0}
 190:	100ec4c5 	andne	ip, lr, r5, asr #9
 194:	c1c2c342 	bicgt	ip, r2, r2, asr #6
 198:	00000ec0 	andeq	r0, r0, r0, asr #29
 19c:	0000000c 	andeq	r0, r0, ip
 1a0:	ffffffff 			; <UNDEFINED> instruction: 0xffffffff
 1a4:	7c020001 	stcvc	0, cr0, [r2], {1}
 1a8:	000d0c0e 	andeq	r0, sp, lr, lsl #24
 1ac:	00000014 	andeq	r0, r0, r4, lsl r0
 1b0:	0000019c 	muleq	r0, ip, r1
 1b4:	000086b8 			; <UNDEFINED> instruction: 0x000086b8
 1b8:	00000014 	andeq	r0, r0, r4, lsl r0
 1bc:	84080e42 	strhi	r0, [r8], #-3650	; 0xfffff1be
 1c0:	00018e02 	andeq	r8, r1, r2, lsl #28
 1c4:	0000000c 	andeq	r0, r0, ip
 1c8:	0000019c 	muleq	r0, ip, r1
 1cc:	000086cc 	andeq	r8, r0, ip, asr #13
 1d0:	00000018 	andeq	r0, r0, r8, lsl r0
 1d4:	0000000c 	andeq	r0, r0, ip
 1d8:	0000019c 	muleq	r0, ip, r1
 1dc:	000086e4 	andeq	r8, r0, r4, ror #13
 1e0:	00000010 	andeq	r0, r0, r0, lsl r0
 1e4:	0000000c 	andeq	r0, r0, ip
 1e8:	ffffffff 			; <UNDEFINED> instruction: 0xffffffff
 1ec:	7c020001 	stcvc	0, cr0, [r2], {1}
 1f0:	000d0c0e 	andeq	r0, sp, lr, lsl #24
 1f4:	00000014 	andeq	r0, r0, r4, lsl r0
 1f8:	000001e4 	andeq	r0, r0, r4, ror #3
 1fc:	000086f4 	strdeq	r8, [r0], -r4
 200:	00000034 	andeq	r0, r0, r4, lsr r0
 204:	84080e42 	strhi	r0, [r8], #-3650	; 0xfffff1be
 208:	00018e02 	andeq	r8, r1, r2, lsl #28
 20c:	0000000c 	andeq	r0, r0, ip
 210:	ffffffff 			; <UNDEFINED> instruction: 0xffffffff
 214:	7c020001 	stcvc	0, cr0, [r2], {1}
 218:	000d0c0e 	andeq	r0, sp, lr, lsl #24
 21c:	0000000c 	andeq	r0, r0, ip
 220:	0000020c 	andeq	r0, r0, ip, lsl #4
 224:	00008728 	andeq	r8, r0, r8, lsr #14
 228:	00000014 	andeq	r0, r0, r4, lsl r0
 22c:	0000000c 	andeq	r0, r0, ip
 230:	0000020c 	andeq	r0, r0, ip, lsl #4
 234:	0000873c 	andeq	r8, r0, ip, lsr r7
 238:	00000024 	andeq	r0, r0, r4, lsr #32
 23c:	0000000c 	andeq	r0, r0, ip
 240:	0000020c 	andeq	r0, r0, ip, lsl #4
 244:	00008760 	andeq	r8, r0, r0, ror #14
 248:	00000038 	andeq	r0, r0, r8, lsr r0
 24c:	00000024 	andeq	r0, r0, r4, lsr #32
 250:	0000020c 	andeq	r0, r0, ip, lsl #4
 254:	00008798 	muleq	r0, r8, r7
 258:	000001b4 			; <UNDEFINED> instruction: 0x000001b4
 25c:	84140e42 	ldrhi	r0, [r4], #-3650	; 0xfffff1be
 260:	86048505 	strhi	r8, [r4], -r5, lsl #10
 264:	8e028703 	cdphi	7, 0, cr8, cr2, cr3, {0}
 268:	600e4201 	andvs	r4, lr, r1, lsl #4
 26c:	0e0a9a02 	vmlaeq.f32	s18, s20, s4
 270:	000b4214 	andeq	r4, fp, r4, lsl r2
 274:	00000014 	andeq	r0, r0, r4, lsl r0
 278:	0000020c 	andeq	r0, r0, ip, lsl #4
 27c:	0000894c 	andeq	r8, r0, ip, asr #18
 280:	00000064 	andeq	r0, r0, r4, rrx
 284:	8e040e54 	mcrhi	14, 0, r0, cr4, cr4, {2}
 288:	100e4201 	andne	r4, lr, r1, lsl #4
 28c:	0000002c 	andeq	r0, r0, ip, lsr #32
 290:	0000020c 	andeq	r0, r0, ip, lsl #4
 294:	000089b0 			; <UNDEFINED> instruction: 0x000089b0
 298:	000004b8 			; <UNDEFINED> instruction: 0x000004b8
 29c:	84240e42 	strthi	r0, [r4], #-3650	; 0xfffff1be
 2a0:	86088509 	strhi	r8, [r8], -r9, lsl #10
 2a4:	88068707 	stmdahi	r6, {r0, r1, r2, r8, r9, sl, pc}
 2a8:	8a048905 	bhi	1226c4 <__bss_end__+0x1185ec>
 2ac:	8e028b03 	vmlahi.f64	d8, d2, d3
 2b0:	b80e4201 	stmdalt	lr, {r0, r9, lr}
 2b4:	02380302 	eorseq	r0, r8, #134217728	; 0x8000000
 2b8:	0000240e 	andeq	r2, r0, lr, lsl #8
 2bc:	0000000c 	andeq	r0, r0, ip
 2c0:	ffffffff 			; <UNDEFINED> instruction: 0xffffffff
 2c4:	7c020001 	stcvc	0, cr0, [r2], {1}
 2c8:	000d0c0e 	andeq	r0, sp, lr, lsl #24
 2cc:	0000000c 	andeq	r0, r0, ip
 2d0:	000002bc 			; <UNDEFINED> instruction: 0x000002bc
 2d4:	00008e68 	andeq	r8, r0, r8, ror #28
 2d8:	00000010 	andeq	r0, r0, r0, lsl r0
 2dc:	0000000c 	andeq	r0, r0, ip
 2e0:	000002bc 			; <UNDEFINED> instruction: 0x000002bc
 2e4:	00008e78 	andeq	r8, r0, r8, ror lr
 2e8:	00000010 	andeq	r0, r0, r0, lsl r0
 2ec:	0000000c 	andeq	r0, r0, ip
 2f0:	ffffffff 			; <UNDEFINED> instruction: 0xffffffff
 2f4:	7c020001 	stcvc	0, cr0, [r2], {1}
 2f8:	000d0c0e 	andeq	r0, sp, lr, lsl #24
 2fc:	00000014 	andeq	r0, r0, r4, lsl r0
 300:	000002ec 	andeq	r0, r0, ip, ror #5
 304:	00008e88 	andeq	r8, r0, r8, lsl #29
 308:	0000002c 	andeq	r0, r0, ip, lsr #32
 30c:	84080e42 	strhi	r0, [r8], #-3650	; 0xfffff1be
 310:	00018e02 	andeq	r8, r1, r2, lsl #28
 314:	0000000c 	andeq	r0, r0, ip
 318:	ffffffff 			; <UNDEFINED> instruction: 0xffffffff
 31c:	7c020001 	stcvc	0, cr0, [r2], {1}
 320:	000d0c0e 	andeq	r0, sp, lr, lsl #24
 324:	00000014 	andeq	r0, r0, r4, lsl r0
 328:	00000314 	andeq	r0, r0, r4, lsl r3
 32c:	00008eb4 			; <UNDEFINED> instruction: 0x00008eb4
 330:	0000003c 	andeq	r0, r0, ip, lsr r0
 334:	84080e42 	strhi	r0, [r8], #-3650	; 0xfffff1be
 338:	00018e02 	andeq	r8, r1, r2, lsl #28
 33c:	0000000c 	andeq	r0, r0, ip
 340:	ffffffff 			; <UNDEFINED> instruction: 0xffffffff
 344:	7c020001 	stcvc	0, cr0, [r2], {1}
 348:	000d0c0e 	andeq	r0, sp, lr, lsl #24
 34c:	0000000c 	andeq	r0, r0, ip
 350:	0000033c 	andeq	r0, r0, ip, lsr r3
 354:	00008ef0 	strdeq	r8, [r0], -r0
 358:	00000004 	andeq	r0, r0, r4
 35c:	0000000c 	andeq	r0, r0, ip
 360:	ffffffff 			; <UNDEFINED> instruction: 0xffffffff
 364:	7c020001 	stcvc	0, cr0, [r2], {1}
 368:	000d0c0e 	andeq	r0, sp, lr, lsl #24
 36c:	0000000c 	andeq	r0, r0, ip
 370:	0000035c 	andeq	r0, r0, ip, asr r3
 374:	00008ef4 	strdeq	r8, [r0], -r4
 378:	00000018 	andeq	r0, r0, r8, lsl r0
 37c:	0000000c 	andeq	r0, r0, ip
 380:	0000035c 	andeq	r0, r0, ip, asr r3
 384:	00008f0c 	andeq	r8, r0, ip, lsl #30
 388:	00000014 	andeq	r0, r0, r4, lsl r0
 38c:	00000014 	andeq	r0, r0, r4, lsl r0
 390:	0000035c 	andeq	r0, r0, ip, asr r3
 394:	00008f20 	andeq	r8, r0, r0, lsr #30
 398:	00000054 	andeq	r0, r0, r4, asr r0
 39c:	84080e42 	strhi	r0, [r8], #-3650	; 0xfffff1be
 3a0:	00018e02 	andeq	r8, r1, r2, lsl #28
 3a4:	0000000c 	andeq	r0, r0, ip
 3a8:	ffffffff 			; <UNDEFINED> instruction: 0xffffffff
 3ac:	7c020001 	stcvc	0, cr0, [r2], {1}
 3b0:	000d0c0e 	andeq	r0, sp, lr, lsl #24
 3b4:	00000014 	andeq	r0, r0, r4, lsl r0
 3b8:	000003a4 	andeq	r0, r0, r4, lsr #7
 3bc:	00008f74 	andeq	r8, r0, r4, ror pc
 3c0:	00000014 	andeq	r0, r0, r4, lsl r0
 3c4:	84080e42 	strhi	r0, [r8], #-3650	; 0xfffff1be
 3c8:	00018e02 	andeq	r8, r1, r2, lsl #28
 3cc:	00000014 	andeq	r0, r0, r4, lsl r0
 3d0:	000003a4 	andeq	r0, r0, r4, lsr #7
 3d4:	00008f88 	andeq	r8, r0, r8, lsl #31
 3d8:	0000001c 	andeq	r0, r0, ip, lsl r0
 3dc:	84080e42 	strhi	r0, [r8], #-3650	; 0xfffff1be
 3e0:	00018e02 	andeq	r8, r1, r2, lsl #28
 3e4:	00000018 	andeq	r0, r0, r8, lsl r0
 3e8:	000003a4 	andeq	r0, r0, r4, lsr #7
 3ec:	00008fa4 	andeq	r8, r0, r4, lsr #31
 3f0:	00000024 	andeq	r0, r0, r4, lsr #32
 3f4:	84100e42 	ldrhi	r0, [r0], #-3650	; 0xfffff1be
 3f8:	86038504 	strhi	r8, [r3], -r4, lsl #10
 3fc:	00018e02 	andeq	r8, r1, r2, lsl #28
 400:	00000014 	andeq	r0, r0, r4, lsl r0
 404:	000003a4 	andeq	r0, r0, r4, lsr #7
 408:	00008fc8 	andeq	r8, r0, r8, asr #31
 40c:	00000018 	andeq	r0, r0, r8, lsl r0
 410:	84080e42 	strhi	r0, [r8], #-3650	; 0xfffff1be
 414:	00018e02 	andeq	r8, r1, r2, lsl #28
 418:	00000014 	andeq	r0, r0, r4, lsl r0
 41c:	000003a4 	andeq	r0, r0, r4, lsr #7
 420:	00008fe0 	andeq	r8, r0, r0, ror #31
 424:	00000018 	andeq	r0, r0, r8, lsl r0
 428:	84080e42 	strhi	r0, [r8], #-3650	; 0xfffff1be
 42c:	00018e02 	andeq	r8, r1, r2, lsl #28
 430:	0000000c 	andeq	r0, r0, ip
 434:	ffffffff 			; <UNDEFINED> instruction: 0xffffffff
 438:	7c020001 	stcvc	0, cr0, [r2], {1}
 43c:	000d0c0e 	andeq	r0, sp, lr, lsl #24
 440:	00000018 	andeq	r0, r0, r8, lsl r0
 444:	00000430 	andeq	r0, r0, r0, lsr r4
 448:	00008ff8 	strdeq	r8, [r0], -r8	; <UNPREDICTABLE>
 44c:	00000020 	andeq	r0, r0, r0, lsr #32
 450:	84100e42 	ldrhi	r0, [r0], #-3650	; 0xfffff1be
 454:	86038504 	strhi	r8, [r3], -r4, lsl #10
 458:	00018e02 	andeq	r8, r1, r2, lsl #28
 45c:	00000018 	andeq	r0, r0, r8, lsl r0
 460:	00000430 	andeq	r0, r0, r0, lsr r4
 464:	00009018 	andeq	r9, r0, r8, lsl r0
 468:	00000020 	andeq	r0, r0, r0, lsr #32
 46c:	84100e42 	ldrhi	r0, [r0], #-3650	; 0xfffff1be
 470:	86038504 	strhi	r8, [r3], -r4, lsl #10
 474:	00018e02 	andeq	r8, r1, r2, lsl #28
 478:	00000014 	andeq	r0, r0, r4, lsl r0
 47c:	00000430 	andeq	r0, r0, r0, lsr r4
 480:	00009038 	andeq	r9, r0, r8, lsr r0
 484:	000000b0 	strheq	r0, [r0], -r0	; <UNPREDICTABLE>
 488:	84080e42 	strhi	r0, [r8], #-3650	; 0xfffff1be
 48c:	00018e02 	andeq	r8, r1, r2, lsl #28
 490:	00000014 	andeq	r0, r0, r4, lsl r0
 494:	00000430 	andeq	r0, r0, r0, lsr r4
 498:	000090e8 	andeq	r9, r0, r8, ror #1
 49c:	00000018 	andeq	r0, r0, r8, lsl r0
 4a0:	84080e42 	strhi	r0, [r8], #-3650	; 0xfffff1be
 4a4:	00018e02 	andeq	r8, r1, r2, lsl #28
 4a8:	00000014 	andeq	r0, r0, r4, lsl r0
 4ac:	00000430 	andeq	r0, r0, r0, lsr r4
 4b0:	00009100 	andeq	r9, r0, r0, lsl #2
 4b4:	00000020 	andeq	r0, r0, r0, lsr #32
 4b8:	84080e42 	strhi	r0, [r8], #-3650	; 0xfffff1be
 4bc:	00018e02 	andeq	r8, r1, r2, lsl #28
 4c0:	00000014 	andeq	r0, r0, r4, lsl r0
 4c4:	00000430 	andeq	r0, r0, r0, lsr r4
 4c8:	00009120 	andeq	r9, r0, r0, lsr #2
 4cc:	00000030 	andeq	r0, r0, r0, lsr r0
 4d0:	84080e42 	strhi	r0, [r8], #-3650	; 0xfffff1be
 4d4:	00018e02 	andeq	r8, r1, r2, lsl #28
 4d8:	00000014 	andeq	r0, r0, r4, lsl r0
 4dc:	00000430 	andeq	r0, r0, r0, lsr r4
 4e0:	00009150 	andeq	r9, r0, r0, asr r1
 4e4:	00000030 	andeq	r0, r0, r0, lsr r0
 4e8:	84080e42 	strhi	r0, [r8], #-3650	; 0xfffff1be
 4ec:	00018e02 	andeq	r8, r1, r2, lsl #28
 4f0:	00000014 	andeq	r0, r0, r4, lsl r0
 4f4:	00000430 	andeq	r0, r0, r0, lsr r4
 4f8:	00009180 	andeq	r9, r0, r0, lsl #3
 4fc:	00000010 	andeq	r0, r0, r0, lsl r0
 500:	84080e42 	strhi	r0, [r8], #-3650	; 0xfffff1be
 504:	00018e02 	andeq	r8, r1, r2, lsl #28
 508:	00000014 	andeq	r0, r0, r4, lsl r0
 50c:	00000430 	andeq	r0, r0, r0, lsr r4
 510:	00009190 	muleq	r0, r0, r1
 514:	00000020 	andeq	r0, r0, r0, lsr #32
 518:	84080e42 	strhi	r0, [r8], #-3650	; 0xfffff1be
 51c:	00018e02 	andeq	r8, r1, r2, lsl #28
 520:	00000014 	andeq	r0, r0, r4, lsl r0
 524:	00000430 	andeq	r0, r0, r0, lsr r4
 528:	000091b0 			; <UNDEFINED> instruction: 0x000091b0
 52c:	00000014 	andeq	r0, r0, r4, lsl r0
 530:	84080e42 	strhi	r0, [r8], #-3650	; 0xfffff1be
 534:	00018e02 	andeq	r8, r1, r2, lsl #28
 538:	00000014 	andeq	r0, r0, r4, lsl r0
 53c:	00000430 	andeq	r0, r0, r0, lsr r4
 540:	000091c4 	andeq	r9, r0, r4, asr #3
 544:	00000024 	andeq	r0, r0, r4, lsr #32
 548:	84080e42 	strhi	r0, [r8], #-3650	; 0xfffff1be
 54c:	00018e02 	andeq	r8, r1, r2, lsl #28
 550:	0000000c 	andeq	r0, r0, ip
 554:	ffffffff 			; <UNDEFINED> instruction: 0xffffffff
 558:	7c020001 	stcvc	0, cr0, [r2], {1}
 55c:	000d0c0e 	andeq	r0, sp, lr, lsl #24
 560:	0000000c 	andeq	r0, r0, ip
 564:	00000550 	andeq	r0, r0, r0, asr r5
 568:	000091e8 	andeq	r9, r0, r8, ror #3
 56c:	00000010 	andeq	r0, r0, r0, lsl r0
 570:	0000000c 	andeq	r0, r0, ip
 574:	00000550 	andeq	r0, r0, r0, asr r5
 578:	000091f8 	strdeq	r9, [r0], -r8
 57c:	00000010 	andeq	r0, r0, r0, lsl r0
 580:	0000000c 	andeq	r0, r0, ip
 584:	00000550 	andeq	r0, r0, r0, asr r5
 588:	00009208 	andeq	r9, r0, r8, lsl #4
 58c:	00000010 	andeq	r0, r0, r0, lsl r0
 590:	0000001c 	andeq	r0, r0, ip, lsl r0
 594:	00000550 	andeq	r0, r0, r0, asr r5
 598:	00009218 	andeq	r9, r0, r8, lsl r2
 59c:	0000009c 	muleq	r0, ip, r0
 5a0:	8e040e42 	cdphi	14, 0, cr0, cr4, cr2, {2}
 5a4:	100e4201 	andne	r4, lr, r1, lsl #4
 5a8:	040e0a58 	streq	r0, [lr], #-2648	; 0xfffff5a8
 5ac:	00000b42 	andeq	r0, r0, r2, asr #22
 5b0:	00000014 	andeq	r0, r0, r4, lsl r0
 5b4:	00000550 	andeq	r0, r0, r0, asr r5
 5b8:	000092b4 			; <UNDEFINED> instruction: 0x000092b4
 5bc:	00000058 	andeq	r0, r0, r8, asr r0
 5c0:	84080e42 	strhi	r0, [r8], #-3650	; 0xfffff1be
 5c4:	00018e02 	andeq	r8, r1, r2, lsl #28
 5c8:	0000001c 	andeq	r0, r0, ip, lsl r0
 5cc:	00000550 	andeq	r0, r0, r0, asr r5
 5d0:	0000930c 	andeq	r9, r0, ip, lsl #6
 5d4:	00000098 	muleq	r0, r8, r0
 5d8:	8e040e42 	cdphi	14, 0, cr0, cr4, cr2, {2}
 5dc:	100e4201 	andne	r4, lr, r1, lsl #4
 5e0:	040e0a58 	streq	r0, [lr], #-2648	; 0xfffff5a8
 5e4:	00000b42 	andeq	r0, r0, r2, asr #22
 5e8:	00000020 	andeq	r0, r0, r0, lsr #32
 5ec:	00000550 	andeq	r0, r0, r0, asr r5
 5f0:	000093a4 	andeq	r9, r0, r4, lsr #7
 5f4:	00000064 	andeq	r0, r0, r4, rrx
 5f8:	840c0e42 	strhi	r0, [ip], #-3650	; 0xfffff1be
 5fc:	8e028503 	cfsh32hi	mvfx8, mvfx2, #3
 600:	180e4201 	stmdane	lr, {r0, r9, lr}
 604:	0c0e0a54 			; <UNDEFINED> instruction: 0x0c0e0a54
 608:	00000b42 	andeq	r0, r0, r2, asr #22
 60c:	0000001c 	andeq	r0, r0, ip, lsl r0
 610:	00000550 	andeq	r0, r0, r0, asr r5
 614:	00009408 	andeq	r9, r0, r8, lsl #8
 618:	00000118 	andeq	r0, r0, r8, lsl r1
 61c:	8e040e42 	cdphi	14, 0, cr0, cr4, cr2, {2}
 620:	100e4201 	andne	r4, lr, r1, lsl #4
 624:	040e0a6c 	streq	r0, [lr], #-2668	; 0xfffff594
 628:	00000b42 	andeq	r0, r0, r2, asr #22
 62c:	0000000c 	andeq	r0, r0, ip
 630:	00000550 	andeq	r0, r0, r0, asr r5
 634:	00009520 	andeq	r9, r0, r0, lsr #10
 638:	00000004 	andeq	r0, r0, r4
 63c:	0000000c 	andeq	r0, r0, ip
 640:	00000550 	andeq	r0, r0, r0, asr r5
 644:	00009524 	andeq	r9, r0, r4, lsr #10
 648:	00000014 	andeq	r0, r0, r4, lsl r0
 64c:	00000014 	andeq	r0, r0, r4, lsl r0
 650:	00000550 	andeq	r0, r0, r0, asr r5
 654:	00009538 	andeq	r9, r0, r8, lsr r5
 658:	00000060 	andeq	r0, r0, r0, rrx
 65c:	8e040e58 	mcrhi	14, 0, r0, cr4, cr8, {2}
 660:	100e4201 	andne	r4, lr, r1, lsl #4
 664:	0000000c 	andeq	r0, r0, ip
 668:	ffffffff 			; <UNDEFINED> instruction: 0xffffffff
 66c:	7c020001 	stcvc	0, cr0, [r2], {1}
 670:	000d0c0e 	andeq	r0, sp, lr, lsl #24
 674:	0000000c 	andeq	r0, r0, ip
 678:	00000664 	andeq	r0, r0, r4, ror #12
 67c:	00009598 	muleq	r0, r8, r5
 680:	00000018 	andeq	r0, r0, r8, lsl r0
 684:	0000000c 	andeq	r0, r0, ip
 688:	ffffffff 			; <UNDEFINED> instruction: 0xffffffff
 68c:	7c020001 	stcvc	0, cr0, [r2], {1}
 690:	000d0c0e 	andeq	r0, sp, lr, lsl #24
 694:	0000000c 	andeq	r0, r0, ip
 698:	00000684 	andeq	r0, r0, r4, lsl #13
 69c:	000095b0 			; <UNDEFINED> instruction: 0x000095b0
 6a0:	00000034 	andeq	r0, r0, r4, lsr r0
 6a4:	0000000c 	andeq	r0, r0, ip
 6a8:	ffffffff 			; <UNDEFINED> instruction: 0xffffffff
 6ac:	7c020001 	stcvc	0, cr0, [r2], {1}
 6b0:	000d0c0e 	andeq	r0, sp, lr, lsl #24
 6b4:	0000000c 	andeq	r0, r0, ip
 6b8:	000006a4 	andeq	r0, r0, r4, lsr #13
 6bc:	000095e4 	andeq	r9, r0, r4, ror #11
 6c0:	0000002c 	andeq	r0, r0, ip, lsr #32
 6c4:	0000000c 	andeq	r0, r0, ip
 6c8:	ffffffff 			; <UNDEFINED> instruction: 0xffffffff
 6cc:	7c020001 	stcvc	0, cr0, [r2], {1}
 6d0:	000d0c0e 	andeq	r0, sp, lr, lsl #24
 6d4:	0000000c 	andeq	r0, r0, ip
 6d8:	000006c4 	andeq	r0, r0, r4, asr #13
 6dc:	00009610 	andeq	r9, r0, r0, lsl r6
 6e0:	00000020 	andeq	r0, r0, r0, lsr #32
 6e4:	0000000c 	andeq	r0, r0, ip
 6e8:	ffffffff 			; <UNDEFINED> instruction: 0xffffffff
 6ec:	7c020001 	stcvc	0, cr0, [r2], {1}
 6f0:	000d0c0e 	andeq	r0, sp, lr, lsl #24
 6f4:	0000000c 	andeq	r0, r0, ip
 6f8:	000006e4 	andeq	r0, r0, r4, ror #13
 6fc:	00009630 	andeq	r9, r0, r0, lsr r6
 700:	0000002c 	andeq	r0, r0, ip, lsr #32
 704:	0000000c 	andeq	r0, r0, ip
 708:	ffffffff 			; <UNDEFINED> instruction: 0xffffffff
 70c:	7c020001 	stcvc	0, cr0, [r2], {1}
 710:	000d0c0e 	andeq	r0, sp, lr, lsl #24
 714:	0000000c 	andeq	r0, r0, ip
 718:	00000704 	andeq	r0, r0, r4, lsl #14
 71c:	0000965c 	andeq	r9, r0, ip, asr r6
 720:	00000004 	andeq	r0, r0, r4
 724:	0000000c 	andeq	r0, r0, ip
 728:	ffffffff 			; <UNDEFINED> instruction: 0xffffffff
 72c:	7c020001 	stcvc	0, cr0, [r2], {1}
 730:	000d0c0e 	andeq	r0, sp, lr, lsl #24
 734:	00000018 	andeq	r0, r0, r8, lsl r0
 738:	00000724 	andeq	r0, r0, r4, lsr #14
 73c:	00009678 	andeq	r9, r0, r8, ror r6
 740:	00000064 	andeq	r0, r0, r4, rrx
 744:	84100e46 	ldrhi	r0, [r0], #-3654	; 0xfffff1ba
 748:	86038504 	strhi	r8, [r3], -r4, lsl #10
 74c:	00018e02 	andeq	r8, r1, r2, lsl #28
 750:	00000014 	andeq	r0, r0, r4, lsl r0
 754:	00000724 	andeq	r0, r0, r4, lsr #14
 758:	000096dc 	ldrdeq	r9, [r0], -ip
 75c:	00000010 	andeq	r0, r0, r0, lsl r0
 760:	84080e42 	strhi	r0, [r8], #-3650	; 0xfffff1be
 764:	00018e02 	andeq	r8, r1, r2, lsl #28
 768:	00000014 	andeq	r0, r0, r4, lsl r0
 76c:	00000724 	andeq	r0, r0, r4, lsr #14
 770:	000096ec 	andeq	r9, r0, ip, ror #13
 774:	00000024 	andeq	r0, r0, r4, lsr #32
 778:	84080e46 	strhi	r0, [r8], #-3654	; 0xfffff1ba
 77c:	00018e02 	andeq	r8, r1, r2, lsl #28
 780:	00000014 	andeq	r0, r0, r4, lsl r0
 784:	00000724 	andeq	r0, r0, r4, lsr #14
 788:	00009710 	andeq	r9, r0, r0, lsl r7
 78c:	00000024 	andeq	r0, r0, r4, lsr #32
 790:	84080e46 	strhi	r0, [r8], #-3654	; 0xfffff1ba
 794:	00018e02 	andeq	r8, r1, r2, lsl #28
 798:	00000014 	andeq	r0, r0, r4, lsl r0
 79c:	00000724 	andeq	r0, r0, r4, lsr #14
 7a0:	00009734 	andeq	r9, r0, r4, lsr r7
 7a4:	00000010 	andeq	r0, r0, r0, lsl r0
 7a8:	84080e42 	strhi	r0, [r8], #-3650	; 0xfffff1be
 7ac:	00018e02 	andeq	r8, r1, r2, lsl #28
 7b0:	00000014 	andeq	r0, r0, r4, lsl r0
 7b4:	00000724 	andeq	r0, r0, r4, lsr #14
 7b8:	00009744 	andeq	r9, r0, r4, asr #14
 7bc:	0000001c 	andeq	r0, r0, ip, lsl r0
 7c0:	84080e42 	strhi	r0, [r8], #-3650	; 0xfffff1be
 7c4:	00018e02 	andeq	r8, r1, r2, lsl #28
 7c8:	00000018 	andeq	r0, r0, r8, lsl r0
 7cc:	00000724 	andeq	r0, r0, r4, lsr #14
 7d0:	00009760 	andeq	r9, r0, r0, ror #14
 7d4:	00000034 	andeq	r0, r0, r4, lsr r0
 7d8:	84080e46 	strhi	r0, [r8], #-3654	; 0xfffff1ba
 7dc:	4e018e02 	cdpmi	14, 0, cr8, cr1, cr2, {0}
 7e0:	cec4000e 	cdpgt	0, 12, cr0, cr4, cr14, {0}
