
int-compile.elf:     file format elf32-littlearm


Disassembly of section .text:

00008000 <__code_start__>:
    8000:	e3a00013 	mov	r0, #19, 0
    8004:	e3800080 	orr	r0, r0, #128, 0	; 0x80
    8008:	e129f000 	msr	CPSR_fc, r0
    800c:	e3a01000 	mov	r1, #0, 0
    8010:	ee071f95 	mcr	15, 0, r1, cr7, cr5, {4}
    8014:	e3a0d302 	mov	sp, #134217728	; 0x8000000
    8018:	e3a0b000 	mov	fp, #0, 0
    801c:	eb00037a 	bl	8e0c <_cstart>
    8020:	eb000394 	bl	8e78 <rpi_reboot>

00008024 <PUT32>:
    8024:	e5801000 	str	r1, [r0]
    8028:	e12fff1e 	bx	lr

0000802c <GET32>:
    802c:	e5900000 	ldr	r0, [r0]
    8030:	e12fff1e 	bx	lr

00008034 <BRANCHTO>:
    8034:	e12fff10 	bx	r0

00008038 <int_0>:
    8038:	e59f200c 	ldr	r2, [pc, #12]	; 804c <int_0+0x14>
    803c:	e5923000 	ldr	r3, [r2]
    8040:	e2833001 	add	r3, r3, #1, 0
    8044:	e5823000 	str	r3, [r2]
    8048:	e12fff1e 	bx	lr
    804c:	00009c14 	andeq	r9, r0, r4, lsl ip

00008050 <int_1>:
    8050:	e59f200c 	ldr	r2, [pc, #12]	; 8064 <int_1+0x14>
    8054:	e5923000 	ldr	r3, [r2]
    8058:	e2833001 	add	r3, r3, #1, 0
    805c:	e5823000 	str	r3, [r2]
    8060:	e12fff1e 	bx	lr
    8064:	00009c14 	andeq	r9, r0, r4, lsl ip

00008068 <int_2>:
    8068:	e59f200c 	ldr	r2, [pc, #12]	; 807c <int_2+0x14>
    806c:	e5923000 	ldr	r3, [r2]
    8070:	e2833001 	add	r3, r3, #1, 0
    8074:	e5823000 	str	r3, [r2]
    8078:	e12fff1e 	bx	lr
    807c:	00009c14 	andeq	r9, r0, r4, lsl ip

00008080 <int_3>:
    8080:	e59f200c 	ldr	r2, [pc, #12]	; 8094 <int_3+0x14>
    8084:	e5923000 	ldr	r3, [r2]
    8088:	e2833001 	add	r3, r3, #1, 0
    808c:	e5823000 	str	r3, [r2]
    8090:	e12fff1e 	bx	lr
    8094:	00009c14 	andeq	r9, r0, r4, lsl ip

00008098 <int_4>:
    8098:	e59f200c 	ldr	r2, [pc, #12]	; 80ac <int_4+0x14>
    809c:	e5923000 	ldr	r3, [r2]
    80a0:	e2833001 	add	r3, r3, #1, 0
    80a4:	e5823000 	str	r3, [r2]
    80a8:	e12fff1e 	bx	lr
    80ac:	00009c14 	andeq	r9, r0, r4, lsl ip

000080b0 <int_5>:
    80b0:	e59f200c 	ldr	r2, [pc, #12]	; 80c4 <int_5+0x14>
    80b4:	e5923000 	ldr	r3, [r2]
    80b8:	e2833001 	add	r3, r3, #1, 0
    80bc:	e5823000 	str	r3, [r2]
    80c0:	e12fff1e 	bx	lr
    80c4:	00009c14 	andeq	r9, r0, r4, lsl ip

000080c8 <int_6>:
    80c8:	e59f200c 	ldr	r2, [pc, #12]	; 80dc <int_6+0x14>
    80cc:	e5923000 	ldr	r3, [r2]
    80d0:	e2833001 	add	r3, r3, #1, 0
    80d4:	e5823000 	str	r3, [r2]
    80d8:	e12fff1e 	bx	lr
    80dc:	00009c14 	andeq	r9, r0, r4, lsl ip

000080e0 <int_7>:
    80e0:	e59f200c 	ldr	r2, [pc, #12]	; 80f4 <int_7+0x14>
    80e4:	e5923000 	ldr	r3, [r2]
    80e8:	e2833001 	add	r3, r3, #1, 0
    80ec:	e5823000 	str	r3, [r2]
    80f0:	e12fff1e 	bx	lr
    80f4:	00009c14 	andeq	r9, r0, r4, lsl ip

000080f8 <say_hello>:
    80f8:	e92d4010 	push	{r4, lr}
    80fc:	e1a03002 	mov	r3, r2
    8100:	e1a02001 	mov	r2, r1
    8104:	e1a01000 	mov	r1, r0
    8108:	e59f0004 	ldr	r0, [pc, #4]	; 8114 <say_hello+0x1c>
    810c:	eb000131 	bl	85d8 <printk>
    8110:	e8bd8010 	pop	{r4, pc}
    8114:	000096f0 	strdeq	r9, [r0], -r0

00008118 <generic_call_int>:
    8118:	e92d4070 	push	{r4, r5, r6, lr}
    811c:	e1a06000 	mov	r6, r0
    8120:	e1a05001 	mov	r5, r1
    8124:	e3a04000 	mov	r4, #0, 0
    8128:	e1540005 	cmp	r4, r5
    812c:	28bd8070 	popcs	{r4, r5, r6, pc}
    8130:	e7963104 	ldr	r3, [r6, r4, lsl #2]
    8134:	e12fff33 	blx	r3
    8138:	e2844001 	add	r4, r4, #1, 0
    813c:	eafffff9 	b	8128 <generic_call_int+0x10>

00008140 <int_compile>:
    8140:	e92d4030 	push	{r4, r5, lr}
    8144:	e24dd00c 	sub	sp, sp, #12, 0
    8148:	e1a05000 	mov	r5, r0
    814c:	e1a04001 	mov	r4, r1
    8150:	e3a00b01 	mov	r0, #1024	; 0x400
    8154:	eb000468 	bl	92fc <kmalloc>
    8158:	e35400f9 	cmp	r4, #249, 0	; 0xf9
    815c:	959f3094 	ldrls	r3, [pc, #148]	; 81f8 <int_compile+0xb8>
    8160:	95803000 	strls	r3, [r0]
    8164:	93a02000 	movls	r2, #0, 0
    8168:	9a000011 	bls	81b4 <int_compile+0x74>
    816c:	e59f3088 	ldr	r3, [pc, #136]	; 81fc <int_compile+0xbc>
    8170:	e58d3000 	str	r3, [sp]
    8174:	e3a03023 	mov	r3, #35, 0	; 0x23
    8178:	e59f2080 	ldr	r2, [pc, #128]	; 8200 <int_compile+0xc0>
    817c:	e59f1080 	ldr	r1, [pc, #128]	; 8204 <int_compile+0xc4>
    8180:	e59f0080 	ldr	r0, [pc, #128]	; 8208 <int_compile+0xc8>
    8184:	eb000113 	bl	85d8 <printk>
    8188:	eb000314 	bl	8de0 <clean_reboot>
    818c:	e2821001 	add	r1, r2, #1, 0
    8190:	e080c101 	add	ip, r0, r1, lsl #2
    8194:	e7953102 	ldr	r3, [r5, r2, lsl #2]
    8198:	e043300c 	sub	r3, r3, ip
    819c:	e2433008 	sub	r3, r3, #8, 0
    81a0:	e1a03123 	lsr	r3, r3, #2
    81a4:	e3c334ff 	bic	r3, r3, #-16777216	; 0xff000000
    81a8:	e38334eb 	orr	r3, r3, #-352321536	; 0xeb000000
    81ac:	e7803101 	str	r3, [r0, r1, lsl #2]
    81b0:	e1a02001 	mov	r2, r1
    81b4:	e2443001 	sub	r3, r4, #1, 0
    81b8:	e1530002 	cmp	r3, r2
    81bc:	8afffff2 	bhi	818c <int_compile+0x4c>
    81c0:	e59f3044 	ldr	r3, [pc, #68]	; 820c <int_compile+0xcc>
    81c4:	e7803104 	str	r3, [r0, r4, lsl #2]
    81c8:	e2842001 	add	r2, r4, #1, 0
    81cc:	e0801102 	add	r1, r0, r2, lsl #2
    81d0:	e2444107 	sub	r4, r4, #-1073741823	; 0xc0000001
    81d4:	e7953104 	ldr	r3, [r5, r4, lsl #2]
    81d8:	e0433001 	sub	r3, r3, r1
    81dc:	e2433008 	sub	r3, r3, #8, 0
    81e0:	e1a03123 	lsr	r3, r3, #2
    81e4:	e3c334ff 	bic	r3, r3, #-16777216	; 0xff000000
    81e8:	e38334ea 	orr	r3, r3, #-369098752	; 0xea000000
    81ec:	e7803102 	str	r3, [r0, r2, lsl #2]
    81f0:	e28dd00c 	add	sp, sp, #12, 0
    81f4:	e8bd8030 	pop	{r4, r5, pc}
    81f8:	e52de004 	push	{lr}		; (str lr, [sp, #-4]!)
    81fc:	0000972c 	andeq	r9, r0, ip, lsr #14
    8200:	00009854 	andeq	r9, r0, r4, asr r8
    8204:	00009708 	andeq	r9, r0, r8, lsl #14
    8208:	00009718 	andeq	r9, r0, r8, lsl r7
    820c:	e49de004 	pop	{lr}		; (ldr lr, [sp], #4)

00008210 <thunk>:
    8210:	e92d000e 	push	{r1, r2, r3}
    8214:	e92d41f0 	push	{r4, r5, r6, r7, r8, lr}
    8218:	e24dd014 	sub	sp, sp, #20, 0
    821c:	e1a07000 	mov	r7, r0
    8220:	e59d802c 	ldr	r8, [sp, #44]	; 0x2c
    8224:	e3a00c01 	mov	r0, #256	; 0x100
    8228:	eb000433 	bl	92fc <kmalloc>
    822c:	e3580005 	cmp	r8, #5, 0
    8230:	ca000014 	bgt	8288 <thunk+0x78>
    8234:	e1a05000 	mov	r5, r0
    8238:	e28d3030 	add	r3, sp, #48, 0	; 0x30
    823c:	e58d300c 	str	r3, [sp, #12]
    8240:	e3a04000 	mov	r4, #0, 0
    8244:	e1540008 	cmp	r4, r8
    8248:	aa000016 	bge	82a8 <thunk+0x98>
    824c:	e59d300c 	ldr	r3, [sp, #12]
    8250:	e2832004 	add	r2, r3, #4, 0
    8254:	e58d200c 	str	r2, [sp, #12]
    8258:	e5936000 	ldr	r6, [r3]
    825c:	e1a02006 	mov	r2, r6
    8260:	e1a01004 	mov	r1, r4
    8264:	e59f006c 	ldr	r0, [pc, #108]	; 82d8 <thunk+0xc8>
    8268:	eb0000da 	bl	85d8 <printk>
    826c:	e59f3068 	ldr	r3, [pc, #104]	; 82dc <thunk+0xcc>
    8270:	e1833604 	orr	r3, r3, r4, lsl #12
    8274:	e7853104 	str	r3, [r5, r4, lsl #2]
    8278:	e2843020 	add	r3, r4, #32, 0
    827c:	e7856103 	str	r6, [r5, r3, lsl #2]
    8280:	e2844001 	add	r4, r4, #1, 0
    8284:	eaffffee 	b	8244 <thunk+0x34>
    8288:	e59f3050 	ldr	r3, [pc, #80]	; 82e0 <thunk+0xd0>
    828c:	e58d3000 	str	r3, [sp]
    8290:	e3a03030 	mov	r3, #48, 0	; 0x30
    8294:	e59f2048 	ldr	r2, [pc, #72]	; 82e4 <thunk+0xd4>
    8298:	e59f1048 	ldr	r1, [pc, #72]	; 82e8 <thunk+0xd8>
    829c:	e59f0048 	ldr	r0, [pc, #72]	; 82ec <thunk+0xdc>
    82a0:	eb0000cc 	bl	85d8 <printk>
    82a4:	eb0002cd 	bl	8de0 <clean_reboot>
    82a8:	e0853108 	add	r3, r5, r8, lsl #2
    82ac:	e0473003 	sub	r3, r7, r3
    82b0:	e2433008 	sub	r3, r3, #8, 0
    82b4:	e1a03123 	lsr	r3, r3, #2
    82b8:	e3c334ff 	bic	r3, r3, #-16777216	; 0xff000000
    82bc:	e38334ea 	orr	r3, r3, #-369098752	; 0xea000000
    82c0:	e7853108 	str	r3, [r5, r8, lsl #2]
    82c4:	e1a00005 	mov	r0, r5
    82c8:	e28dd014 	add	sp, sp, #20, 0
    82cc:	e8bd41f0 	pop	{r4, r5, r6, r7, r8, lr}
    82d0:	e28dd00c 	add	sp, sp, #12, 0
    82d4:	e12fff1e 	bx	lr
    82d8:	0000973c 	andeq	r9, r0, ip, lsr r7
    82dc:	e59f0078 	ldr	r0, [pc, #120]	; 835c <notmain+0x44>
    82e0:	00009734 	andeq	r9, r0, r4, lsr r7
    82e4:	00009860 	andeq	r9, r0, r0, ror #16
    82e8:	00009708 	andeq	r9, r0, r8, lsl #14
    82ec:	00009718 	andeq	r9, r0, r8, lsl r7

000082f0 <specialized_call_int>:
    82f0:	e92d4010 	push	{r4, lr}
    82f4:	ebffff4f 	bl	8038 <int_0>
    82f8:	ebffff54 	bl	8050 <int_1>
    82fc:	ebffff59 	bl	8068 <int_2>
    8300:	ebffff5e 	bl	8080 <int_3>
    8304:	ebffff63 	bl	8098 <int_4>
    8308:	ebffff68 	bl	80b0 <int_5>
    830c:	ebffff6d 	bl	80c8 <int_6>
    8310:	ebffff72 	bl	80e0 <int_7>
    8314:	e8bd8010 	pop	{r4, pc}

00008318 <notmain>:
    8318:	e92d4070 	push	{r4, r5, r6, lr}
    831c:	e24dd030 	sub	sp, sp, #48, 0	; 0x30
    8320:	e28dc010 	add	ip, sp, #16, 0
    8324:	e59fe264 	ldr	lr, [pc, #612]	; 8590 <notmain+0x278>
    8328:	e8be000f 	ldm	lr!, {r0, r1, r2, r3}
    832c:	e8ac000f 	stmia	ip!, {r0, r1, r2, r3}
    8330:	e89e000f 	ldm	lr, {r0, r1, r2, r3}
    8334:	e88c000f 	stm	ip, {r0, r1, r2, r3}
    8338:	e3a03001 	mov	r3, #1, 0
    833c:	ee0f3f1c 	mcr	15, 0, r3, cr15, cr12, {0}
    8340:	e59f424c 	ldr	r4, [pc, #588]	; 8594 <notmain+0x27c>
    8344:	e3a03000 	mov	r3, #0, 0
    8348:	e5843000 	str	r3, [r4]
    834c:	ee1f5f3c 	mrc	15, 0, r5, cr15, cr12, {1}
    8350:	e3a01008 	mov	r1, #8, 0
    8354:	e28d0010 	add	r0, sp, #16, 0
    8358:	ebffff6e 	bl	8118 <generic_call_int>
    835c:	e3a01008 	mov	r1, #8, 0
    8360:	e28d0010 	add	r0, sp, #16, 0
    8364:	ebffff6b 	bl	8118 <generic_call_int>
    8368:	e3a01008 	mov	r1, #8, 0
    836c:	e28d0010 	add	r0, sp, #16, 0
    8370:	ebffff68 	bl	8118 <generic_call_int>
    8374:	e3a01008 	mov	r1, #8, 0
    8378:	e28d0010 	add	r0, sp, #16, 0
    837c:	ebffff65 	bl	8118 <generic_call_int>
    8380:	e3a01008 	mov	r1, #8, 0
    8384:	e28d0010 	add	r0, sp, #16, 0
    8388:	ebffff62 	bl	8118 <generic_call_int>
    838c:	e3a01008 	mov	r1, #8, 0
    8390:	e28d0010 	add	r0, sp, #16, 0
    8394:	ebffff5f 	bl	8118 <generic_call_int>
    8398:	e3a01008 	mov	r1, #8, 0
    839c:	e28d0010 	add	r0, sp, #16, 0
    83a0:	ebffff5c 	bl	8118 <generic_call_int>
    83a4:	e3a01008 	mov	r1, #8, 0
    83a8:	e28d0010 	add	r0, sp, #16, 0
    83ac:	ebffff59 	bl	8118 <generic_call_int>
    83b0:	e3a01008 	mov	r1, #8, 0
    83b4:	e28d0010 	add	r0, sp, #16, 0
    83b8:	ebffff56 	bl	8118 <generic_call_int>
    83bc:	e3a01008 	mov	r1, #8, 0
    83c0:	e28d0010 	add	r0, sp, #16, 0
    83c4:	ebffff53 	bl	8118 <generic_call_int>
    83c8:	ee1f2f3c 	mrc	15, 0, r2, cr15, cr12, {1}
    83cc:	e59f31c4 	ldr	r3, [pc, #452]	; 8598 <notmain+0x280>
    83d0:	e0422005 	sub	r2, r2, r5
    83d4:	e59f11c0 	ldr	r1, [pc, #448]	; 859c <notmain+0x284>
    83d8:	e59f01c0 	ldr	r0, [pc, #448]	; 85a0 <notmain+0x288>
    83dc:	eb00007d 	bl	85d8 <printk>
    83e0:	e5943000 	ldr	r3, [r4]
    83e4:	e3530050 	cmp	r3, #80, 0	; 0x50
    83e8:	0a00000c 	beq	8420 <notmain+0x108>
    83ec:	eb000094 	bl	8644 <rpi_reset_putc>
    83f0:	e5943000 	ldr	r3, [r4]
    83f4:	e3a02050 	mov	r2, #80, 0	; 0x50
    83f8:	e58d2008 	str	r2, [sp, #8]
    83fc:	e58d3004 	str	r3, [sp, #4]
    8400:	e59f319c 	ldr	r3, [pc, #412]	; 85a4 <notmain+0x28c>
    8404:	e58d3000 	str	r3, [sp]
    8408:	e3a03064 	mov	r3, #100, 0	; 0x64
    840c:	e59f2194 	ldr	r2, [pc, #404]	; 85a8 <notmain+0x290>
    8410:	e59f1194 	ldr	r1, [pc, #404]	; 85ac <notmain+0x294>
    8414:	e59f0194 	ldr	r0, [pc, #404]	; 85b0 <notmain+0x298>
    8418:	eb00006e 	bl	85d8 <printk>
    841c:	eb00026f 	bl	8de0 <clean_reboot>
    8420:	e59f416c 	ldr	r4, [pc, #364]	; 8594 <notmain+0x27c>
    8424:	e3a03000 	mov	r3, #0, 0
    8428:	e5843000 	str	r3, [r4]
    842c:	ee1f5f3c 	mrc	15, 0, r5, cr15, cr12, {1}
    8430:	ebffffae 	bl	82f0 <specialized_call_int>
    8434:	ebffffad 	bl	82f0 <specialized_call_int>
    8438:	ebffffac 	bl	82f0 <specialized_call_int>
    843c:	ebffffab 	bl	82f0 <specialized_call_int>
    8440:	ebffffaa 	bl	82f0 <specialized_call_int>
    8444:	ebffffa9 	bl	82f0 <specialized_call_int>
    8448:	ebffffa8 	bl	82f0 <specialized_call_int>
    844c:	ebffffa7 	bl	82f0 <specialized_call_int>
    8450:	ebffffa6 	bl	82f0 <specialized_call_int>
    8454:	ebffffa5 	bl	82f0 <specialized_call_int>
    8458:	ee1f2f3c 	mrc	15, 0, r2, cr15, cr12, {1}
    845c:	e59f3150 	ldr	r3, [pc, #336]	; 85b4 <notmain+0x29c>
    8460:	e0422005 	sub	r2, r2, r5
    8464:	e59f114c 	ldr	r1, [pc, #332]	; 85b8 <notmain+0x2a0>
    8468:	e59f0130 	ldr	r0, [pc, #304]	; 85a0 <notmain+0x288>
    846c:	eb000059 	bl	85d8 <printk>
    8470:	e5943000 	ldr	r3, [r4]
    8474:	e3530050 	cmp	r3, #80, 0	; 0x50
    8478:	0a00000c 	beq	84b0 <notmain+0x198>
    847c:	eb000070 	bl	8644 <rpi_reset_putc>
    8480:	e5943000 	ldr	r3, [r4]
    8484:	e3a02050 	mov	r2, #80, 0	; 0x50
    8488:	e58d2008 	str	r2, [sp, #8]
    848c:	e58d3004 	str	r3, [sp, #4]
    8490:	e59f310c 	ldr	r3, [pc, #268]	; 85a4 <notmain+0x28c>
    8494:	e58d3000 	str	r3, [sp]
    8498:	e3a03079 	mov	r3, #121, 0	; 0x79
    849c:	e59f2104 	ldr	r2, [pc, #260]	; 85a8 <notmain+0x290>
    84a0:	e59f1104 	ldr	r1, [pc, #260]	; 85ac <notmain+0x294>
    84a4:	e59f0104 	ldr	r0, [pc, #260]	; 85b0 <notmain+0x298>
    84a8:	eb00004a 	bl	85d8 <printk>
    84ac:	eb00024b 	bl	8de0 <clean_reboot>
    84b0:	e59f50dc 	ldr	r5, [pc, #220]	; 8594 <notmain+0x27c>
    84b4:	e3a03000 	mov	r3, #0, 0
    84b8:	e5853000 	str	r3, [r5]
    84bc:	e3a01008 	mov	r1, #8, 0
    84c0:	e28d0010 	add	r0, sp, #16, 0
    84c4:	ebffff1d 	bl	8140 <int_compile>
    84c8:	e1a04000 	mov	r4, r0
    84cc:	ee1f6f3c 	mrc	15, 0, r6, cr15, cr12, {1}
    84d0:	e12fff30 	blx	r0
    84d4:	e12fff34 	blx	r4
    84d8:	e12fff34 	blx	r4
    84dc:	e12fff34 	blx	r4
    84e0:	e12fff34 	blx	r4
    84e4:	e12fff34 	blx	r4
    84e8:	e12fff34 	blx	r4
    84ec:	e12fff34 	blx	r4
    84f0:	e12fff34 	blx	r4
    84f4:	e12fff34 	blx	r4
    84f8:	ee1f2f3c 	mrc	15, 0, r2, cr15, cr12, {1}
    84fc:	e59f30b8 	ldr	r3, [pc, #184]	; 85bc <notmain+0x2a4>
    8500:	e0422006 	sub	r2, r2, r6
    8504:	e59f10b4 	ldr	r1, [pc, #180]	; 85c0 <notmain+0x2a8>
    8508:	e59f0090 	ldr	r0, [pc, #144]	; 85a0 <notmain+0x288>
    850c:	eb000031 	bl	85d8 <printk>
    8510:	e5953000 	ldr	r3, [r5]
    8514:	e3530050 	cmp	r3, #80, 0	; 0x50
    8518:	0a00000c 	beq	8550 <notmain+0x238>
    851c:	eb000048 	bl	8644 <rpi_reset_putc>
    8520:	e5953000 	ldr	r3, [r5]
    8524:	e3a02050 	mov	r2, #80, 0	; 0x50
    8528:	e58d2008 	str	r2, [sp, #8]
    852c:	e58d3004 	str	r3, [sp, #4]
    8530:	e59f306c 	ldr	r3, [pc, #108]	; 85a4 <notmain+0x28c>
    8534:	e58d3000 	str	r3, [sp]
    8538:	e3a03080 	mov	r3, #128, 0	; 0x80
    853c:	e59f2064 	ldr	r2, [pc, #100]	; 85a8 <notmain+0x290>
    8540:	e59f1064 	ldr	r1, [pc, #100]	; 85ac <notmain+0x294>
    8544:	e59f0064 	ldr	r0, [pc, #100]	; 85b0 <notmain+0x298>
    8548:	eb000022 	bl	85d8 <printk>
    854c:	eb000223 	bl	8de0 <clean_reboot>
    8550:	e59f306c 	ldr	r3, [pc, #108]	; 85c4 <notmain+0x2ac>
    8554:	e58d3000 	str	r3, [sp]
    8558:	e3a03f7d 	mov	r3, #500	; 0x1f4
    855c:	e3a02005 	mov	r2, #5, 0
    8560:	e3a01003 	mov	r1, #3, 0
    8564:	e59f005c 	ldr	r0, [pc, #92]	; 85c8 <notmain+0x2b0>
    8568:	ebffff28 	bl	8210 <thunk>
    856c:	e12fff30 	blx	r0
    8570:	e59f2054 	ldr	r2, [pc, #84]	; 85cc <notmain+0x2b4>
    8574:	e3a01001 	mov	r1, #1, 0
    8578:	e59f0050 	ldr	r0, [pc, #80]	; 85d0 <notmain+0x2b8>
    857c:	ebffff23 	bl	8210 <thunk>
    8580:	e12fff30 	blx	r0
    8584:	e59f0048 	ldr	r0, [pc, #72]	; 85d4 <notmain+0x2bc>
    8588:	eb000012 	bl	85d8 <printk>
    858c:	eb000213 	bl	8de0 <clean_reboot>
    8590:	00009868 	andeq	r9, r0, r8, ror #16
    8594:	00009c14 	andeq	r9, r0, r4, lsl ip
    8598:	0000974c 	andeq	r9, r0, ip, asr #14
    859c:	00009768 	andeq	r9, r0, r8, ror #14
    85a0:	00009784 	andeq	r9, r0, r4, lsl #15
    85a4:	000097d8 	ldrdeq	r9, [r0], -r8
    85a8:	00009888 	andeq	r9, r0, r8, lsl #17
    85ac:	00009708 	andeq	r9, r0, r8, lsl #14
    85b0:	000097a0 	andeq	r9, r0, r0, lsr #15
    85b4:	000097e4 	andeq	r9, r0, r4, ror #15
    85b8:	000097fc 	strdeq	r9, [r0], -ip
    85bc:	0000981c 	andeq	r9, r0, ip, lsl r8
    85c0:	00009824 	andeq	r9, r0, r4, lsr #16
    85c4:	000f4eea 	andeq	r4, pc, sl, ror #29
    85c8:	000080f8 	strdeq	r8, [r0], -r8	; <UNPREDICTABLE>
    85cc:	00009840 	andeq	r9, r0, r0, asr #16
    85d0:	000085d8 	ldrdeq	r8, [r0], -r8	; <UNPREDICTABLE>
    85d4:	0000984c 	andeq	r9, r0, ip, asr #16

000085d8 <printk>:
    85d8:	e92d000f 	push	{r0, r1, r2, r3}
    85dc:	e92d4030 	push	{r4, r5, lr}
    85e0:	e24dd00c 	sub	sp, sp, #12, 0
    85e4:	e28d301c 	add	r3, sp, #28, 0
    85e8:	e58d3004 	str	r3, [sp, #4]
    85ec:	e59f5034 	ldr	r5, [pc, #52]	; 8628 <printk+0x50>
    85f0:	e59d2018 	ldr	r2, [sp, #24]
    85f4:	e3a01b01 	mov	r1, #1024	; 0x400
    85f8:	e1a00005 	mov	r0, r5
    85fc:	eb0000c9 	bl	8928 <va_printk>
    8600:	e1a04000 	mov	r4, r0
    8604:	e59f3020 	ldr	r3, [pc, #32]	; 862c <printk+0x54>
    8608:	e5933000 	ldr	r3, [r3]
    860c:	e1a00005 	mov	r0, r5
    8610:	e12fff33 	blx	r3
    8614:	e1a00004 	mov	r0, r4
    8618:	e28dd00c 	add	sp, sp, #12, 0
    861c:	e8bd4030 	pop	{r4, r5, lr}
    8620:	e28dd010 	add	sp, sp, #16, 0
    8624:	e12fff1e 	bx	lr
    8628:	00009c18 	andeq	r9, r0, r8, lsl ip
    862c:	00009c04 	andeq	r9, r0, r4, lsl #24

00008630 <internal_putchar>:
    8630:	e92d4010 	push	{r4, lr}
    8634:	e1a04000 	mov	r4, r0
    8638:	eb00029a 	bl	90a8 <uart_putc>
    863c:	e1a00004 	mov	r0, r4
    8640:	e8bd8010 	pop	{r4, pc}

00008644 <rpi_reset_putc>:
    8644:	e59f3008 	ldr	r3, [pc, #8]	; 8654 <rpi_reset_putc+0x10>
    8648:	e59f2008 	ldr	r2, [pc, #8]	; 8658 <rpi_reset_putc+0x14>
    864c:	e5832000 	str	r2, [r3]
    8650:	e12fff1e 	bx	lr
    8654:	00009c00 	andeq	r9, r0, r0, lsl #24
    8658:	00008630 	andeq	r8, r0, r0, lsr r6

0000865c <rpi_set_putc>:
    865c:	e59f3004 	ldr	r3, [pc, #4]	; 8668 <rpi_set_putc+0xc>
    8660:	e5830000 	str	r0, [r3]
    8664:	e12fff1e 	bx	lr
    8668:	00009c00 	andeq	r9, r0, r0, lsl #24

0000866c <internal_putk>:
    866c:	e92d4010 	push	{r4, lr}
    8670:	e1a04000 	mov	r4, r0
    8674:	e5d40000 	ldrb	r0, [r4]
    8678:	e3500000 	cmp	r0, #0, 0
    867c:	0a000004 	beq	8694 <internal_putk+0x28>
    8680:	e59f3014 	ldr	r3, [pc, #20]	; 869c <internal_putk+0x30>
    8684:	e5933000 	ldr	r3, [r3]
    8688:	e12fff33 	blx	r3
    868c:	e2844001 	add	r4, r4, #1, 0
    8690:	eafffff7 	b	8674 <internal_putk+0x8>
    8694:	e3a00001 	mov	r0, #1, 0
    8698:	e8bd8010 	pop	{r4, pc}
    869c:	00009c00 	andeq	r9, r0, r0, lsl #24

000086a0 <isdigit>:
    86a0:	e2400030 	sub	r0, r0, #48, 0	; 0x30
    86a4:	e3500009 	cmp	r0, #9, 0
    86a8:	83a00000 	movhi	r0, #0, 0
    86ac:	93a00001 	movls	r0, #1, 0
    86b0:	e12fff1e 	bx	lr

000086b4 <pad>:
    86b4:	e0401001 	sub	r1, r0, r1
    86b8:	e1510002 	cmp	r1, r2
    86bc:	b3a03020 	movlt	r3, #32, 0
    86c0:	b4c03001 	strblt	r3, [r0], #1
    86c4:	b2811001 	addlt	r1, r1, #1, 0
    86c8:	bafffffa 	blt	86b8 <pad+0x4>
    86cc:	e3a03000 	mov	r3, #0, 0
    86d0:	e5c03000 	strb	r3, [r0]
    86d4:	e12fff1e 	bx	lr

000086d8 <reverse>:
    86d8:	e042c003 	sub	ip, r2, r3
    86dc:	e28cc001 	add	ip, ip, #1, 0
    86e0:	e15c0001 	cmp	ip, r1
    86e4:	c04cc001 	subgt	ip, ip, r1
    86e8:	c083300c 	addgt	r3, r3, ip
    86ec:	e2421001 	sub	r1, r2, #1, 0
    86f0:	e1a02000 	mov	r2, r0
    86f4:	e1510003 	cmp	r1, r3
    86f8:	2451c001 	ldrbcs	ip, [r1], #-1
    86fc:	24c2c001 	strbcs	ip, [r2], #1
    8700:	2afffffb 	bcs	86f4 <reverse+0x1c>
    8704:	e3a03000 	mov	r3, #0, 0
    8708:	e5c23000 	strb	r3, [r2]
    870c:	e12fff1e 	bx	lr

00008710 <emit>:
    8710:	e92d40f0 	push	{r4, r5, r6, r7, lr}
    8714:	e24dd04c 	sub	sp, sp, #76, 0	; 0x4c
    8718:	e1a05001 	mov	r5, r1
    871c:	e1a04002 	mov	r4, r2
    8720:	e59d2060 	ldr	r2, [sp, #96]	; 0x60
    8724:	e1520004 	cmp	r2, r4
    8728:	c2442001 	subgt	r2, r4, #1, 0
    872c:	e1a0c003 	mov	ip, r3
    8730:	e2400002 	sub	r0, r0, #2, 0
    8734:	e350000e 	cmp	r0, #14, 0
    8738:	979ff100 	ldrls	pc, [pc, r0, lsl #2]
    873c:	ea000050 	b	8884 <emit+0x174>
    8740:	0000885c 	andeq	r8, r0, ip, asr r8
    8744:	00008884 	andeq	r8, r0, r4, lsl #17
    8748:	00008884 	andeq	r8, r0, r4, lsl #17
    874c:	00008884 	andeq	r8, r0, r4, lsl #17
    8750:	00008884 	andeq	r8, r0, r4, lsl #17
    8754:	00008884 	andeq	r8, r0, r4, lsl #17
    8758:	00008850 	andeq	r8, r0, r0, asr r8
    875c:	00008884 	andeq	r8, r0, r4, lsl #17
    8760:	0000877c 	andeq	r8, r0, ip, ror r7
    8764:	00008884 	andeq	r8, r0, r4, lsl #17
    8768:	00008884 	andeq	r8, r0, r4, lsl #17
    876c:	00008884 	andeq	r8, r0, r4, lsl #17
    8770:	00008884 	andeq	r8, r0, r4, lsl #17
    8774:	00008884 	andeq	r8, r0, r4, lsl #17
    8778:	000087f4 	strdeq	r8, [r0], -r4
    877c:	e59d1064 	ldr	r1, [sp, #100]	; 0x64
    8780:	e2511000 	subs	r1, r1, #0, 0
    8784:	13a01001 	movne	r1, #1, 0
    8788:	e0111fa3 	ands	r1, r1, r3, lsr #31
    878c:	0a000016 	beq	87ec <emit+0xdc>
    8790:	e263c000 	rsb	ip, r3, #0, 0
    8794:	e3a06001 	mov	r6, #1, 0
    8798:	e28d0008 	add	r0, sp, #8, 0
    879c:	e59f3100 	ldr	r3, [pc, #256]	; 88a4 <emit+0x194>
    87a0:	e0831c93 	umull	r1, r3, r3, ip
    87a4:	e1a031a3 	lsr	r3, r3, #3
    87a8:	e1a0e003 	mov	lr, r3
    87ac:	e0833103 	add	r3, r3, r3, lsl #2
    87b0:	e04c3083 	sub	r3, ip, r3, lsl #1
    87b4:	e1a01000 	mov	r1, r0
    87b8:	e2800001 	add	r0, r0, #1, 0
    87bc:	e59f70e4 	ldr	r7, [pc, #228]	; 88a8 <emit+0x198>
    87c0:	e7d73003 	ldrb	r3, [r7, r3]
    87c4:	e5c13000 	strb	r3, [r1]
    87c8:	e1a0300c 	mov	r3, ip
    87cc:	e1a0c00e 	mov	ip, lr
    87d0:	e3530009 	cmp	r3, #9, 0
    87d4:	8afffff0 	bhi	879c <emit+0x8c>
    87d8:	e3560000 	cmp	r6, #0, 0
    87dc:	13a0302d 	movne	r3, #45, 0	; 0x2d
    87e0:	15c03000 	strbne	r3, [r0]
    87e4:	12810002 	addne	r0, r1, #2, 0
    87e8:	ea00000f 	b	882c <emit+0x11c>
    87ec:	e3a06000 	mov	r6, #0, 0
    87f0:	eaffffe8 	b	8798 <emit+0x88>
    87f4:	e28d1008 	add	r1, sp, #8, 0
    87f8:	e20c000f 	and	r0, ip, #15, 0
    87fc:	e59fe0a8 	ldr	lr, [pc, #168]	; 88ac <emit+0x19c>
    8800:	e7de0000 	ldrb	r0, [lr, r0]
    8804:	e5c10000 	strb	r0, [r1]
    8808:	e2811001 	add	r1, r1, #1, 0
    880c:	e35c000f 	cmp	ip, #15, 0
    8810:	e1a0c22c 	lsr	ip, ip, #4
    8814:	8afffff7 	bhi	87f8 <emit+0xe8>
    8818:	e1a00001 	mov	r0, r1
    881c:	e3a03078 	mov	r3, #120, 0	; 0x78
    8820:	e4c03002 	strb	r3, [r0], #2
    8824:	e3a03030 	mov	r3, #48, 0	; 0x30
    8828:	e5c13001 	strb	r3, [r1, #1]
    882c:	e28d1008 	add	r1, sp, #8, 0
    8830:	ebffff9f 	bl	86b4 <pad>
    8834:	e1a02000 	mov	r2, r0
    8838:	e28d3008 	add	r3, sp, #8, 0
    883c:	e1a01004 	mov	r1, r4
    8840:	e1a00005 	mov	r0, r5
    8844:	ebffffa3 	bl	86d8 <reverse>
    8848:	e28dd04c 	add	sp, sp, #76, 0	; 0x4c
    884c:	e8bd80f0 	pop	{r4, r5, r6, r7, pc}
    8850:	e5cd3008 	strb	r3, [sp, #8]
    8854:	e28d0009 	add	r0, sp, #9, 0
    8858:	eafffff3 	b	882c <emit+0x11c>
    885c:	e28d0008 	add	r0, sp, #8, 0
    8860:	e20c1001 	and	r1, ip, #1, 0
    8864:	e59fe044 	ldr	lr, [pc, #68]	; 88b0 <emit+0x1a0>
    8868:	e7de1001 	ldrb	r1, [lr, r1]
    886c:	e5c01000 	strb	r1, [r0]
    8870:	e2800001 	add	r0, r0, #1, 0
    8874:	e35c0001 	cmp	ip, #1, 0
    8878:	e1a0c0ac 	lsr	ip, ip, #1
    887c:	8afffff7 	bhi	8860 <emit+0x150>
    8880:	eaffffe9 	b	882c <emit+0x11c>
    8884:	e59f3028 	ldr	r3, [pc, #40]	; 88b4 <emit+0x1a4>
    8888:	e58d3000 	str	r3, [sp]
    888c:	e3a03079 	mov	r3, #121, 0	; 0x79
    8890:	e59f2020 	ldr	r2, [pc, #32]	; 88b8 <emit+0x1a8>
    8894:	e59f1020 	ldr	r1, [pc, #32]	; 88bc <emit+0x1ac>
    8898:	e59f0020 	ldr	r0, [pc, #32]	; 88c0 <emit+0x1b0>
    889c:	ebffff4d 	bl	85d8 <printk>
    88a0:	eb00014e 	bl	8de0 <clean_reboot>
    88a4:	cccccccd 	stclgt	12, cr12, [ip], {205}	; 0xcd
    88a8:	000098a8 	andeq	r9, r0, r8, lsr #17
    88ac:	000098b4 			; <UNDEFINED> instruction: 0x000098b4
    88b0:	000098c8 	andeq	r9, r0, r8, asr #17
    88b4:	000098a4 	andeq	r9, r0, r4, lsr #17
    88b8:	000099d4 	ldrdeq	r9, [r0], -r4
    88bc:	00009890 	muleq	r0, r0, r8
    88c0:	00009718 	andeq	r9, r0, r8, lsl r7

000088c4 <rpi_set_output>:
    88c4:	e3500000 	cmp	r0, #0, 0
    88c8:	0a000006 	beq	88e8 <rpi_set_output+0x24>
    88cc:	e59f303c 	ldr	r3, [pc, #60]	; 8910 <rpi_set_output+0x4c>
    88d0:	e5830000 	str	r0, [r3]
    88d4:	e3510000 	cmp	r1, #0, 0
    88d8:	012fff1e 	bxeq	lr
    88dc:	e59f3030 	ldr	r3, [pc, #48]	; 8914 <rpi_set_output+0x50>
    88e0:	e5831000 	str	r1, [r3]
    88e4:	e12fff1e 	bx	lr
    88e8:	e52de004 	push	{lr}		; (str lr, [sp, #-4]!)
    88ec:	e24dd00c 	sub	sp, sp, #12, 0
    88f0:	e59f3020 	ldr	r3, [pc, #32]	; 8918 <rpi_set_output+0x54>
    88f4:	e58d3000 	str	r3, [sp]
    88f8:	e3a03020 	mov	r3, #32, 0
    88fc:	e59f2018 	ldr	r2, [pc, #24]	; 891c <rpi_set_output+0x58>
    8900:	e59f1018 	ldr	r1, [pc, #24]	; 8920 <rpi_set_output+0x5c>
    8904:	e59f0018 	ldr	r0, [pc, #24]	; 8924 <rpi_set_output+0x60>
    8908:	ebffff32 	bl	85d8 <printk>
    890c:	eb000133 	bl	8de0 <clean_reboot>
    8910:	00009c00 	andeq	r9, r0, r0, lsl #24
    8914:	00009c04 	andeq	r9, r0, r4, lsl #24
    8918:	000098cc 	andeq	r9, r0, ip, asr #17
    891c:	000099dc 	ldrdeq	r9, [r0], -ip
    8920:	00009890 	muleq	r0, r0, r8
    8924:	00009718 	andeq	r9, r0, r8, lsl r7

00008928 <va_printk>:
    8928:	e92d4ff0 	push	{r4, r5, r6, r7, r8, r9, sl, fp, lr}
    892c:	e24ddf45 	sub	sp, sp, #276	; 0x114
    8930:	e1a09000 	mov	r9, r0
    8934:	e58d2008 	str	r2, [sp, #8]
    8938:	e58d300c 	str	r3, [sp, #12]
    893c:	e2411001 	sub	r1, r1, #1, 0
    8940:	e0808001 	add	r8, r0, r1
    8944:	e3a03000 	mov	r3, #0, 0
    8948:	e5c03000 	strb	r3, [r0]
    894c:	e1a04000 	mov	r4, r0
    8950:	e1a06002 	mov	r6, r2
    8954:	ea000001 	b	8960 <va_printk+0x38>
    8958:	e2866001 	add	r6, r6, #1, 0
    895c:	e4c43001 	strb	r3, [r4], #1
    8960:	e5d63000 	ldrb	r3, [r6]
    8964:	e3530000 	cmp	r3, #0, 0
    8968:	0a000108 	beq	8d90 <va_printk+0x468>
    896c:	e1540008 	cmp	r4, r8
    8970:	2a000106 	bcs	8d90 <va_printk+0x468>
    8974:	e3530025 	cmp	r3, #37, 0	; 0x25
    8978:	1afffff6 	bne	8958 <va_printk+0x30>
    897c:	e5d62001 	ldrb	r2, [r6, #1]
    8980:	e3520025 	cmp	r2, #37, 0	; 0x25
    8984:	04c43001 	strbeq	r3, [r4], #1
    8988:	02866002 	addeq	r6, r6, #2, 0
    898c:	0afffff3 	beq	8960 <va_printk+0x38>
    8990:	e2866001 	add	r6, r6, #1, 0
    8994:	e3a05000 	mov	r5, #0, 0
    8998:	e5d67000 	ldrb	r7, [r6]
    899c:	e1a0a007 	mov	sl, r7
    89a0:	e1a00007 	mov	r0, r7
    89a4:	ebffff3d 	bl	86a0 <isdigit>
    89a8:	e3500000 	cmp	r0, #0, 0
    89ac:	0a000004 	beq	89c4 <va_printk+0x9c>
    89b0:	e0855105 	add	r5, r5, r5, lsl #2
    89b4:	e0875085 	add	r5, r7, r5, lsl #1
    89b8:	e2455030 	sub	r5, r5, #48, 0	; 0x30
    89bc:	e2866001 	add	r6, r6, #1, 0
    89c0:	eafffff4 	b	8998 <va_printk+0x70>
    89c4:	e355001f 	cmp	r5, #31, 0
    89c8:	8a00001a 	bhi	8a38 <va_printk+0x110>
    89cc:	e2477062 	sub	r7, r7, #98, 0	; 0x62
    89d0:	e3570016 	cmp	r7, #22, 0
    89d4:	979ff107 	ldrls	pc, [pc, r7, lsl #2]
    89d8:	ea0000d4 	b	8d30 <va_printk+0x408>
    89dc:	00008cb4 			; <UNDEFINED> instruction: 0x00008cb4
    89e0:	00008cfc 	strdeq	r8, [r0], -ip
    89e4:	00008c14 	andeq	r8, r0, r4, lsl ip
    89e8:	00008d30 	andeq	r8, r0, r0, lsr sp
    89ec:	00008bfc 	strdeq	r8, [r0], -ip
    89f0:	00008d30 	andeq	r8, r0, r0, lsr sp
    89f4:	00008d30 	andeq	r8, r0, r0, lsr sp
    89f8:	00008d30 	andeq	r8, r0, r0, lsr sp
    89fc:	00008d30 	andeq	r8, r0, r0, lsr sp
    8a00:	00008d30 	andeq	r8, r0, r0, lsr sp
    8a04:	00008a58 	andeq	r8, r0, r8, asr sl
    8a08:	00008d30 	andeq	r8, r0, r0, lsr sp
    8a0c:	00008d30 	andeq	r8, r0, r0, lsr sp
    8a10:	00008d30 	andeq	r8, r0, r0, lsr sp
    8a14:	00008c80 	andeq	r8, r0, r0, lsl #25
    8a18:	00008d30 	andeq	r8, r0, r0, lsr sp
    8a1c:	00008d30 	andeq	r8, r0, r0, lsr sp
    8a20:	00008ce8 	andeq	r8, r0, r8, ror #25
    8a24:	00008d30 	andeq	r8, r0, r0, lsr sp
    8a28:	00008c4c 	andeq	r8, r0, ip, asr #24
    8a2c:	00008d30 	andeq	r8, r0, r0, lsr sp
    8a30:	00008d30 	andeq	r8, r0, r0, lsr sp
    8a34:	00008c80 	andeq	r8, r0, r0, lsl #25
    8a38:	e59f3364 	ldr	r3, [pc, #868]	; 8da4 <va_printk+0x47c>
    8a3c:	e58d3000 	str	r3, [sp]
    8a40:	e3a03098 	mov	r3, #152, 0	; 0x98
    8a44:	e59f235c 	ldr	r2, [pc, #860]	; 8da8 <va_printk+0x480>
    8a48:	e59f135c 	ldr	r1, [pc, #860]	; 8dac <va_printk+0x484>
    8a4c:	e59f035c 	ldr	r0, [pc, #860]	; 8db0 <va_printk+0x488>
    8a50:	ebfffee0 	bl	85d8 <printk>
    8a54:	eb0000e1 	bl	8de0 <clean_reboot>
    8a58:	e3a02003 	mov	r2, #3, 0
    8a5c:	e59f1350 	ldr	r1, [pc, #848]	; 8db4 <va_printk+0x48c>
    8a60:	e1a00006 	mov	r0, r6
    8a64:	eb0002c7 	bl	9588 <strncmp>
    8a68:	e3500000 	cmp	r0, #0, 0
    8a6c:	0a000005 	beq	8a88 <va_printk+0x160>
    8a70:	e3a02003 	mov	r2, #3, 0
    8a74:	e59f133c 	ldr	r1, [pc, #828]	; 8db8 <va_printk+0x490>
    8a78:	e1a00006 	mov	r0, r6
    8a7c:	eb0002c1 	bl	9588 <strncmp>
    8a80:	e3500000 	cmp	r0, #0, 0
    8a84:	1a000033 	bne	8b58 <va_printk+0x230>
    8a88:	e286b002 	add	fp, r6, #2, 0
    8a8c:	e59d300c 	ldr	r3, [sp, #12]
    8a90:	e2833007 	add	r3, r3, #7, 0
    8a94:	e3c33007 	bic	r3, r3, #7, 0
    8a98:	e2832008 	add	r2, r3, #8, 0
    8a9c:	e58d200c 	str	r2, [sp, #12]
    8aa0:	e593a000 	ldr	sl, [r3]
    8aa4:	e5937004 	ldr	r7, [r3, #4]
    8aa8:	e1a01007 	mov	r1, r7
    8aac:	e59f0308 	ldr	r0, [pc, #776]	; 8dbc <va_printk+0x494>
    8ab0:	ebfffec8 	bl	85d8 <printk>
    8ab4:	e1a0100a 	mov	r1, sl
    8ab8:	e59f0300 	ldr	r0, [pc, #768]	; 8dc0 <va_printk+0x498>
    8abc:	ebfffec5 	bl	85d8 <printk>
    8ac0:	e3a02003 	mov	r2, #3, 0
    8ac4:	e59f12e8 	ldr	r1, [pc, #744]	; 8db4 <va_printk+0x48c>
    8ac8:	e1a00006 	mov	r0, r6
    8acc:	eb0002ad 	bl	9588 <strncmp>
    8ad0:	e3500000 	cmp	r0, #0, 0
    8ad4:	0a000027 	beq	8b78 <va_printk+0x250>
    8ad8:	e3a02003 	mov	r2, #3, 0
    8adc:	e59f12d4 	ldr	r1, [pc, #724]	; 8db8 <va_printk+0x490>
    8ae0:	e1a00006 	mov	r0, r6
    8ae4:	eb0002a7 	bl	9588 <strncmp>
    8ae8:	e3500000 	cmp	r0, #0, 0
    8aec:	1a00003b 	bne	8be0 <va_printk+0x2b8>
    8af0:	e3a06000 	mov	r6, #0, 0
    8af4:	e58d6004 	str	r6, [sp, #4]
    8af8:	e58d5000 	str	r5, [sp]
    8afc:	e1a03007 	mov	r3, r7
    8b00:	e3a02080 	mov	r2, #128, 0	; 0x80
    8b04:	e28d1010 	add	r1, sp, #16, 0
    8b08:	e3a0000a 	mov	r0, #10, 0
    8b0c:	ebfffeff 	bl	8710 <emit>
    8b10:	e1a07000 	mov	r7, r0
    8b14:	e58d6004 	str	r6, [sp, #4]
    8b18:	e58d5000 	str	r5, [sp]
    8b1c:	e1a0300a 	mov	r3, sl
    8b20:	e3a02080 	mov	r2, #128, 0	; 0x80
    8b24:	e28d1090 	add	r1, sp, #144, 0	; 0x90
    8b28:	e3a0000a 	mov	r0, #10, 0
    8b2c:	ebfffef7 	bl	8710 <emit>
    8b30:	e59f128c 	ldr	r1, [pc, #652]	; 8dc4 <va_printk+0x49c>
    8b34:	e28d0010 	add	r0, sp, #16, 0
    8b38:	eb00027f 	bl	953c <strcmp>
    8b3c:	e1500006 	cmp	r0, r6
    8b40:	1a000021 	bne	8bcc <va_printk+0x2a4>
    8b44:	e28d1090 	add	r1, sp, #144, 0	; 0x90
    8b48:	e28d0010 	add	r0, sp, #16, 0
    8b4c:	eb000285 	bl	9568 <strcpy>
    8b50:	e1a0600b 	mov	r6, fp
    8b54:	ea00003a 	b	8c44 <va_printk+0x31c>
    8b58:	e59f3268 	ldr	r3, [pc, #616]	; 8dc8 <va_printk+0x4a0>
    8b5c:	e58d3000 	str	r3, [sp]
    8b60:	e3a0309f 	mov	r3, #159, 0	; 0x9f
    8b64:	e59f223c 	ldr	r2, [pc, #572]	; 8da8 <va_printk+0x480>
    8b68:	e59f123c 	ldr	r1, [pc, #572]	; 8dac <va_printk+0x484>
    8b6c:	e59f023c 	ldr	r0, [pc, #572]	; 8db0 <va_printk+0x488>
    8b70:	ebfffe98 	bl	85d8 <printk>
    8b74:	eb000099 	bl	8de0 <clean_reboot>
    8b78:	e3a06000 	mov	r6, #0, 0
    8b7c:	e58d6004 	str	r6, [sp, #4]
    8b80:	e58d5000 	str	r5, [sp]
    8b84:	e1a03007 	mov	r3, r7
    8b88:	e3a02080 	mov	r2, #128, 0	; 0x80
    8b8c:	e28d1010 	add	r1, sp, #16, 0
    8b90:	e3a00010 	mov	r0, #16, 0
    8b94:	ebfffedd 	bl	8710 <emit>
    8b98:	e1a07000 	mov	r7, r0
    8b9c:	e58d6004 	str	r6, [sp, #4]
    8ba0:	e58d5000 	str	r5, [sp]
    8ba4:	e1a0300a 	mov	r3, sl
    8ba8:	e3a02080 	mov	r2, #128, 0	; 0x80
    8bac:	e28d1090 	add	r1, sp, #144, 0	; 0x90
    8bb0:	e3a00010 	mov	r0, #16, 0
    8bb4:	ebfffed5 	bl	8710 <emit>
    8bb8:	e28d1092 	add	r1, sp, #146, 0	; 0x92
    8bbc:	e28d0010 	add	r0, sp, #16, 0
    8bc0:	eb000250 	bl	9508 <strcat>
    8bc4:	e1a0600b 	mov	r6, fp
    8bc8:	ea00001d 	b	8c44 <va_printk+0x31c>
    8bcc:	e28d1090 	add	r1, sp, #144, 0	; 0x90
    8bd0:	e28d0010 	add	r0, sp, #16, 0
    8bd4:	eb00024b 	bl	9508 <strcat>
    8bd8:	e1a0600b 	mov	r6, fp
    8bdc:	ea000018 	b	8c44 <va_printk+0x31c>
    8be0:	e58d6000 	str	r6, [sp]
    8be4:	e3a030b6 	mov	r3, #182, 0	; 0xb6
    8be8:	e59f21b8 	ldr	r2, [pc, #440]	; 8da8 <va_printk+0x480>
    8bec:	e59f11b8 	ldr	r1, [pc, #440]	; 8dac <va_printk+0x484>
    8bf0:	e59f01d4 	ldr	r0, [pc, #468]	; 8dcc <va_printk+0x4a4>
    8bf4:	ebfffe77 	bl	85d8 <printk>
    8bf8:	eb000078 	bl	8de0 <clean_reboot>
    8bfc:	e3a030be 	mov	r3, #190, 0	; 0xbe
    8c00:	e59f21a0 	ldr	r2, [pc, #416]	; 8da8 <va_printk+0x480>
    8c04:	e59f11a0 	ldr	r1, [pc, #416]	; 8dac <va_printk+0x484>
    8c08:	e59f01c0 	ldr	r0, [pc, #448]	; 8dd0 <va_printk+0x4a8>
    8c0c:	ebfffe71 	bl	85d8 <printk>
    8c10:	eb000072 	bl	8de0 <clean_reboot>
    8c14:	e59d300c 	ldr	r3, [sp, #12]
    8c18:	e2832004 	add	r2, r3, #4, 0
    8c1c:	e58d200c 	str	r2, [sp, #12]
    8c20:	e5933000 	ldr	r3, [r3]
    8c24:	e3a02001 	mov	r2, #1, 0
    8c28:	e58d2004 	str	r2, [sp, #4]
    8c2c:	e58d5000 	str	r5, [sp]
    8c30:	e3a02080 	mov	r2, #128, 0	; 0x80
    8c34:	e28d1010 	add	r1, sp, #16, 0
    8c38:	e3a0000a 	mov	r0, #10, 0
    8c3c:	ebfffeb3 	bl	8710 <emit>
    8c40:	e1a07000 	mov	r7, r0
    8c44:	e2866001 	add	r6, r6, #1, 0
    8c48:	ea00004a 	b	8d78 <va_printk+0x450>
    8c4c:	e59d300c 	ldr	r3, [sp, #12]
    8c50:	e2832004 	add	r2, r3, #4, 0
    8c54:	e58d200c 	str	r2, [sp, #12]
    8c58:	e5933000 	ldr	r3, [r3]
    8c5c:	e3a02000 	mov	r2, #0, 0
    8c60:	e58d2004 	str	r2, [sp, #4]
    8c64:	e58d5000 	str	r5, [sp]
    8c68:	e3a02080 	mov	r2, #128, 0	; 0x80
    8c6c:	e28d1010 	add	r1, sp, #16, 0
    8c70:	e3a0000a 	mov	r0, #10, 0
    8c74:	ebfffea5 	bl	8710 <emit>
    8c78:	e1a07000 	mov	r7, r0
    8c7c:	eafffff0 	b	8c44 <va_printk+0x31c>
    8c80:	e59d300c 	ldr	r3, [sp, #12]
    8c84:	e2832004 	add	r2, r3, #4, 0
    8c88:	e58d200c 	str	r2, [sp, #12]
    8c8c:	e5933000 	ldr	r3, [r3]
    8c90:	e3a02000 	mov	r2, #0, 0
    8c94:	e58d2004 	str	r2, [sp, #4]
    8c98:	e58d5000 	str	r5, [sp]
    8c9c:	e3a02080 	mov	r2, #128, 0	; 0x80
    8ca0:	e28d1010 	add	r1, sp, #16, 0
    8ca4:	e3a00010 	mov	r0, #16, 0
    8ca8:	ebfffe98 	bl	8710 <emit>
    8cac:	e1a07000 	mov	r7, r0
    8cb0:	eaffffe3 	b	8c44 <va_printk+0x31c>
    8cb4:	e59d300c 	ldr	r3, [sp, #12]
    8cb8:	e2832004 	add	r2, r3, #4, 0
    8cbc:	e58d200c 	str	r2, [sp, #12]
    8cc0:	e5933000 	ldr	r3, [r3]
    8cc4:	e3a02000 	mov	r2, #0, 0
    8cc8:	e58d2004 	str	r2, [sp, #4]
    8ccc:	e58d5000 	str	r5, [sp]
    8cd0:	e3a02080 	mov	r2, #128, 0	; 0x80
    8cd4:	e28d1010 	add	r1, sp, #16, 0
    8cd8:	e3a00002 	mov	r0, #2, 0
    8cdc:	ebfffe8b 	bl	8710 <emit>
    8ce0:	e1a07000 	mov	r7, r0
    8ce4:	eaffffd6 	b	8c44 <va_printk+0x31c>
    8ce8:	e59d300c 	ldr	r3, [sp, #12]
    8cec:	e2832004 	add	r2, r3, #4, 0
    8cf0:	e58d200c 	str	r2, [sp, #12]
    8cf4:	e5937000 	ldr	r7, [r3]
    8cf8:	eaffffd1 	b	8c44 <va_printk+0x31c>
    8cfc:	e59d300c 	ldr	r3, [sp, #12]
    8d00:	e2832004 	add	r2, r3, #4, 0
    8d04:	e58d200c 	str	r2, [sp, #12]
    8d08:	e5933000 	ldr	r3, [r3]
    8d0c:	e3a02000 	mov	r2, #0, 0
    8d10:	e58d2004 	str	r2, [sp, #4]
    8d14:	e58d5000 	str	r5, [sp]
    8d18:	e3a02080 	mov	r2, #128, 0	; 0x80
    8d1c:	e28d1010 	add	r1, sp, #16, 0
    8d20:	e3a00008 	mov	r0, #8, 0
    8d24:	ebfffe79 	bl	8710 <emit>
    8d28:	e1a07000 	mov	r7, r0
    8d2c:	eaffffc4 	b	8c44 <va_printk+0x31c>
    8d30:	e3a03000 	mov	r3, #0, 0
    8d34:	e5c63001 	strb	r3, [r6, #1]
    8d38:	e1a0200a 	mov	r2, sl
    8d3c:	e1a0100a 	mov	r1, sl
    8d40:	e59f008c 	ldr	r0, [pc, #140]	; 8dd4 <va_printk+0x4ac>
    8d44:	ebfffe23 	bl	85d8 <printk>
    8d48:	e59f3088 	ldr	r3, [pc, #136]	; 8dd8 <va_printk+0x4b0>
    8d4c:	e5933000 	ldr	r3, [r3]
    8d50:	e59d0008 	ldr	r0, [sp, #8]
    8d54:	e12fff33 	blx	r3
    8d58:	e3a030e2 	mov	r3, #226, 0	; 0xe2
    8d5c:	e59f2044 	ldr	r2, [pc, #68]	; 8da8 <va_printk+0x480>
    8d60:	e59f1044 	ldr	r1, [pc, #68]	; 8dac <va_printk+0x484>
    8d64:	e59f0070 	ldr	r0, [pc, #112]	; 8ddc <va_printk+0x4b4>
    8d68:	ebfffe1a 	bl	85d8 <printk>
    8d6c:	eb00001b 	bl	8de0 <clean_reboot>
    8d70:	e2877001 	add	r7, r7, #1, 0
    8d74:	e4c43001 	strb	r3, [r4], #1
    8d78:	e1540008 	cmp	r4, r8
    8d7c:	2afffef7 	bcs	8960 <va_printk+0x38>
    8d80:	e5d73000 	ldrb	r3, [r7]
    8d84:	e3530000 	cmp	r3, #0, 0
    8d88:	1afffff8 	bne	8d70 <va_printk+0x448>
    8d8c:	eafffef3 	b	8960 <va_printk+0x38>
    8d90:	e3a03000 	mov	r3, #0, 0
    8d94:	e4c43001 	strb	r3, [r4], #1
    8d98:	e0440009 	sub	r0, r4, r9
    8d9c:	e28ddf45 	add	sp, sp, #276	; 0x114
    8da0:	e8bd8ff0 	pop	{r4, r5, r6, r7, r8, r9, sl, fp, pc}
    8da4:	000098d4 	ldrdeq	r9, [r0], -r4
    8da8:	000099ec 	andeq	r9, r0, ip, ror #19
    8dac:	00009890 	muleq	r0, r0, r8
    8db0:	00009718 	andeq	r9, r0, r8, lsl r7
    8db4:	000098e0 	andeq	r9, r0, r0, ror #17
    8db8:	000098e4 	andeq	r9, r0, r4, ror #17
    8dbc:	000098e8 	andeq	r9, r0, r8, ror #17
    8dc0:	000098f0 	strdeq	r9, [r0], -r0
    8dc4:	000098a4 	andeq	r9, r0, r4, lsr #17
    8dc8:	000098f8 	strdeq	r9, [r0], -r8
    8dcc:	00009934 	andeq	r9, r0, r4, lsr r9
    8dd0:	0000995c 	andeq	r9, r0, ip, asr r9
    8dd4:	00009984 	andeq	r9, r0, r4, lsl #19
    8dd8:	00009c04 	andeq	r9, r0, r4, lsl #24
    8ddc:	000099b4 			; <UNDEFINED> instruction: 0x000099b4

00008de0 <clean_reboot>:
    8de0:	e92d4010 	push	{r4, lr}
    8de4:	e59f3018 	ldr	r3, [pc, #24]	; 8e04 <clean_reboot+0x24>
    8de8:	e5933000 	ldr	r3, [r3]
    8dec:	e59f0014 	ldr	r0, [pc, #20]	; 8e08 <clean_reboot+0x28>
    8df0:	e12fff33 	blx	r3
    8df4:	eb0000c3 	bl	9108 <uart_flush_tx>
    8df8:	e3a0000a 	mov	r0, #10, 0
    8dfc:	eb000047 	bl	8f20 <delay_ms>
    8e00:	eb00001c 	bl	8e78 <rpi_reboot>
    8e04:	00009c04 	andeq	r9, r0, r4, lsl #24
    8e08:	000099f8 	strdeq	r9, [r0], -r8

00008e0c <_cstart>:
    8e0c:	e92d4010 	push	{r4, lr}
    8e10:	eb00000c 	bl	8e48 <custom_loader>
    8e14:	e59f3024 	ldr	r3, [pc, #36]	; 8e40 <_cstart+0x34>
    8e18:	e59f2024 	ldr	r2, [pc, #36]	; 8e44 <_cstart+0x38>
    8e1c:	e1530002 	cmp	r3, r2
    8e20:	33a02000 	movcc	r2, #0, 0
    8e24:	34832004 	strcc	r2, [r3], #4
    8e28:	3afffffa 	bcc	8e18 <_cstart+0xc>
    8e2c:	eb000057 	bl	8f90 <uart_init>
    8e30:	e3a03001 	mov	r3, #1, 0
    8e34:	ee0f3f1c 	mcr	15, 0, r3, cr15, cr12, {0}
    8e38:	ebfffd36 	bl	8318 <notmain>
    8e3c:	ebffffe7 	bl	8de0 <clean_reboot>
    8e40:	00009c14 	andeq	r9, r0, r4, lsl ip
    8e44:	0000a020 	andeq	sl, r0, r0, lsr #32

00008e48 <custom_loader>:
    8e48:	e12fff1e 	bx	lr

00008e4c <at_user_level>:
    8e4c:	e10f0000 	mrs	r0, CPSR
    8e50:	e200001f 	and	r0, r0, #31, 0
    8e54:	e3500010 	cmp	r0, #16, 0
    8e58:	13a00000 	movne	r0, #0, 0
    8e5c:	03a00001 	moveq	r0, #1, 0
    8e60:	e12fff1e 	bx	lr

00008e64 <set_user_level>:
    8e64:	e10f3000 	mrs	r3, CPSR
    8e68:	e3c3301f 	bic	r3, r3, #31, 0
    8e6c:	e3833010 	orr	r3, r3, #16, 0
    8e70:	e129f003 	msr	CPSR_fc, r3
    8e74:	e12fff1e 	bx	lr

00008e78 <rpi_reboot>:
    8e78:	e92d4010 	push	{r4, lr}
    8e7c:	ebfffff2 	bl	8e4c <at_user_level>
    8e80:	e3500000 	cmp	r0, #0, 0
    8e84:	1a00000a 	bne	8eb4 <rpi_reboot+0x3c>
    8e88:	eb0001c9 	bl	95b4 <reboot_callout>
    8e8c:	eb00009d 	bl	9108 <uart_flush_tx>
    8e90:	e3a0000a 	mov	r0, #10, 0
    8e94:	eb000021 	bl	8f20 <delay_ms>
    8e98:	e59f101c 	ldr	r1, [pc, #28]	; 8ebc <rpi_reboot+0x44>
    8e9c:	e59f001c 	ldr	r0, [pc, #28]	; 8ec0 <rpi_reboot+0x48>
    8ea0:	ebfffc5f 	bl	8024 <PUT32>
    8ea4:	e59f1018 	ldr	r1, [pc, #24]	; 8ec4 <rpi_reboot+0x4c>
    8ea8:	e59f0018 	ldr	r0, [pc, #24]	; 8ec8 <rpi_reboot+0x50>
    8eac:	ebfffc5c 	bl	8024 <PUT32>
    8eb0:	eafffffe 	b	8eb0 <rpi_reboot+0x38>
    8eb4:	ebffffea 	bl	8e64 <set_user_level>
    8eb8:	eafffff2 	b	8e88 <rpi_reboot+0x10>
    8ebc:	5a000001 	bpl	8ec8 <rpi_reboot+0x50>
    8ec0:	20100024 	andscs	r0, r0, r4, lsr #32
    8ec4:	5a000020 	bpl	8f4c <delay_sec+0x14>
    8ec8:	2010001c 	andscs	r0, r0, ip, lsl r0

00008ecc <timer_get_usec_raw>:
    8ecc:	e92d4010 	push	{r4, lr}
    8ed0:	e59f0004 	ldr	r0, [pc, #4]	; 8edc <timer_get_usec_raw+0x10>
    8ed4:	ebfffc54 	bl	802c <GET32>
    8ed8:	e8bd8010 	pop	{r4, pc}
    8edc:	20003004 	andcs	r3, r0, r4

00008ee0 <timer_get_usec>:
    8ee0:	e92d4010 	push	{r4, lr}
    8ee4:	eb0001b3 	bl	95b8 <dev_barrier>
    8ee8:	ebfffff7 	bl	8ecc <timer_get_usec_raw>
    8eec:	e1a04000 	mov	r4, r0
    8ef0:	eb0001b0 	bl	95b8 <dev_barrier>
    8ef4:	e1a00004 	mov	r0, r4
    8ef8:	e8bd8010 	pop	{r4, pc}

00008efc <delay_us>:
    8efc:	e92d4070 	push	{r4, r5, r6, lr}
    8f00:	e1a05000 	mov	r5, r0
    8f04:	ebfffff5 	bl	8ee0 <timer_get_usec>
    8f08:	e1a04000 	mov	r4, r0
    8f0c:	ebfffff3 	bl	8ee0 <timer_get_usec>
    8f10:	e0400004 	sub	r0, r0, r4
    8f14:	e1500005 	cmp	r0, r5
    8f18:	3afffffb 	bcc	8f0c <delay_us+0x10>
    8f1c:	e8bd8070 	pop	{r4, r5, r6, pc}

00008f20 <delay_ms>:
    8f20:	e92d4010 	push	{r4, lr}
    8f24:	e0603280 	rsb	r3, r0, r0, lsl #5
    8f28:	e0800103 	add	r0, r0, r3, lsl #2
    8f2c:	e1a00180 	lsl	r0, r0, #3
    8f30:	ebfffff1 	bl	8efc <delay_us>
    8f34:	e8bd8010 	pop	{r4, pc}

00008f38 <delay_sec>:
    8f38:	e92d4010 	push	{r4, lr}
    8f3c:	e0603280 	rsb	r3, r0, r0, lsl #5
    8f40:	e0800103 	add	r0, r0, r3, lsl #2
    8f44:	e1a00180 	lsl	r0, r0, #3
    8f48:	ebfffff4 	bl	8f20 <delay_ms>
    8f4c:	e8bd8010 	pop	{r4, pc}

00008f50 <and_in32>:
    8f50:	e92d4070 	push	{r4, r5, r6, lr}
    8f54:	e1a04000 	mov	r4, r0
    8f58:	e1a05001 	mov	r5, r1
    8f5c:	ebfffc32 	bl	802c <GET32>
    8f60:	e0001005 	and	r1, r0, r5
    8f64:	e1a00004 	mov	r0, r4
    8f68:	ebfffc2d 	bl	8024 <PUT32>
    8f6c:	e8bd8070 	pop	{r4, r5, r6, pc}

00008f70 <or_in32>:
    8f70:	e92d4070 	push	{r4, r5, r6, lr}
    8f74:	e1a04000 	mov	r4, r0
    8f78:	e1a05001 	mov	r5, r1
    8f7c:	ebfffc2a 	bl	802c <GET32>
    8f80:	e1801005 	orr	r1, r0, r5
    8f84:	e1a00004 	mov	r0, r4
    8f88:	ebfffc25 	bl	8024 <PUT32>
    8f8c:	e8bd8070 	pop	{r4, r5, r6, pc}

00008f90 <uart_init>:
    8f90:	e92d4010 	push	{r4, lr}
    8f94:	e3a01002 	mov	r1, #2, 0
    8f98:	e3a0000e 	mov	r0, #14, 0
    8f9c:	eb00018b 	bl	95d0 <gpio_set_function>
    8fa0:	e3a01002 	mov	r1, #2, 0
    8fa4:	e3a0000f 	mov	r0, #15, 0
    8fa8:	eb000188 	bl	95d0 <gpio_set_function>
    8fac:	eb000181 	bl	95b8 <dev_barrier>
    8fb0:	e3a01001 	mov	r1, #1, 0
    8fb4:	e59f0064 	ldr	r0, [pc, #100]	; 9020 <uart_init+0x90>
    8fb8:	ebffffec 	bl	8f70 <or_in32>
    8fbc:	eb00017d 	bl	95b8 <dev_barrier>
    8fc0:	e59f405c 	ldr	r4, [pc, #92]	; 9024 <uart_init+0x94>
    8fc4:	e3a01000 	mov	r1, #0, 0
    8fc8:	e1a00004 	mov	r0, r4
    8fcc:	ebfffc14 	bl	8024 <PUT32>
    8fd0:	e3a01000 	mov	r1, #0, 0
    8fd4:	e59f004c 	ldr	r0, [pc, #76]	; 9028 <uart_init+0x98>
    8fd8:	ebfffc11 	bl	8024 <PUT32>
    8fdc:	e3a01003 	mov	r1, #3, 0
    8fe0:	e59f0044 	ldr	r0, [pc, #68]	; 902c <uart_init+0x9c>
    8fe4:	ebfffc0e 	bl	8024 <PUT32>
    8fe8:	e3a01000 	mov	r1, #0, 0
    8fec:	e59f003c 	ldr	r0, [pc, #60]	; 9030 <uart_init+0xa0>
    8ff0:	ebfffc0b 	bl	8024 <PUT32>
    8ff4:	e3a010c7 	mov	r1, #199, 0	; 0xc7
    8ff8:	e59f0034 	ldr	r0, [pc, #52]	; 9034 <uart_init+0xa4>
    8ffc:	ebfffc08 	bl	8024 <PUT32>
    9000:	e59f1030 	ldr	r1, [pc, #48]	; 9038 <uart_init+0xa8>
    9004:	e59f0030 	ldr	r0, [pc, #48]	; 903c <uart_init+0xac>
    9008:	ebfffc05 	bl	8024 <PUT32>
    900c:	e3a01003 	mov	r1, #3, 0
    9010:	e1a00004 	mov	r0, r4
    9014:	ebfffc02 	bl	8024 <PUT32>
    9018:	eb000166 	bl	95b8 <dev_barrier>
    901c:	e8bd8010 	pop	{r4, pc}
    9020:	20215004 	eorcs	r5, r1, r4
    9024:	20215060 	eorcs	r5, r1, r0, rrx
    9028:	20215044 	eorcs	r5, r1, r4, asr #32
    902c:	2021504c 	eorcs	r5, r1, ip, asr #32
    9030:	20215050 	eorcs	r5, r1, r0, asr r0
    9034:	20215048 	eorcs	r5, r1, r8, asr #32
    9038:	0000010e 	andeq	r0, r0, lr, lsl #2
    903c:	20215068 	eorcs	r5, r1, r8, rrx

00009040 <uart_can_getc>:
    9040:	e92d4010 	push	{r4, lr}
    9044:	e59f0008 	ldr	r0, [pc, #8]	; 9054 <uart_can_getc+0x14>
    9048:	ebfffbf7 	bl	802c <GET32>
    904c:	e2000001 	and	r0, r0, #1, 0
    9050:	e8bd8010 	pop	{r4, pc}
    9054:	20215064 	eorcs	r5, r1, r4, rrx

00009058 <uart_can_putc>:
    9058:	e92d4010 	push	{r4, lr}
    905c:	e59f0010 	ldr	r0, [pc, #16]	; 9074 <uart_can_putc+0x1c>
    9060:	ebfffbf1 	bl	802c <GET32>
    9064:	e3100002 	tst	r0, #2, 0
    9068:	13a00001 	movne	r0, #1, 0
    906c:	03a00000 	moveq	r0, #0, 0
    9070:	e8bd8010 	pop	{r4, pc}
    9074:	20215064 	eorcs	r5, r1, r4, rrx

00009078 <uart_getc>:
    9078:	e92d4010 	push	{r4, lr}
    907c:	eb00014d 	bl	95b8 <dev_barrier>
    9080:	ebffffee 	bl	9040 <uart_can_getc>
    9084:	e3500000 	cmp	r0, #0, 0
    9088:	0afffffc 	beq	9080 <uart_getc+0x8>
    908c:	e59f0010 	ldr	r0, [pc, #16]	; 90a4 <uart_getc+0x2c>
    9090:	ebfffbe5 	bl	802c <GET32>
    9094:	e6ef4070 	uxtb	r4, r0
    9098:	eb000146 	bl	95b8 <dev_barrier>
    909c:	e1a00004 	mov	r0, r4
    90a0:	e8bd8010 	pop	{r4, pc}
    90a4:	20215040 	eorcs	r5, r1, r0, asr #32

000090a8 <uart_putc>:
    90a8:	e92d4010 	push	{r4, lr}
    90ac:	e1a04000 	mov	r4, r0
    90b0:	eb000140 	bl	95b8 <dev_barrier>
    90b4:	ebffffe7 	bl	9058 <uart_can_putc>
    90b8:	e3500000 	cmp	r0, #0, 0
    90bc:	0afffffc 	beq	90b4 <uart_putc+0xc>
    90c0:	e6ef1074 	uxtb	r1, r4
    90c4:	e59f0008 	ldr	r0, [pc, #8]	; 90d4 <uart_putc+0x2c>
    90c8:	ebfffbd5 	bl	8024 <PUT32>
    90cc:	eb000139 	bl	95b8 <dev_barrier>
    90d0:	e8bd8010 	pop	{r4, pc}
    90d4:	20215040 	eorcs	r5, r1, r0, asr #32

000090d8 <uart_has_data>:
    90d8:	e92d4010 	push	{r4, lr}
    90dc:	eb000135 	bl	95b8 <dev_barrier>
    90e0:	ebffffd6 	bl	9040 <uart_can_getc>
    90e4:	e8bd8010 	pop	{r4, pc}

000090e8 <uart_tx_is_empty>:
    90e8:	e92d4010 	push	{r4, lr}
    90ec:	eb000131 	bl	95b8 <dev_barrier>
    90f0:	e59f000c 	ldr	r0, [pc, #12]	; 9104 <uart_tx_is_empty+0x1c>
    90f4:	ebfffbcc 	bl	802c <GET32>
    90f8:	e1a004a0 	lsr	r0, r0, #9
    90fc:	e2000001 	and	r0, r0, #1, 0
    9100:	e8bd8010 	pop	{r4, pc}
    9104:	20215064 	eorcs	r5, r1, r4, rrx

00009108 <uart_flush_tx>:
    9108:	e92d4010 	push	{r4, lr}
    910c:	ebfffff5 	bl	90e8 <uart_tx_is_empty>
    9110:	e3500000 	cmp	r0, #0, 0
    9114:	0afffffc 	beq	910c <uart_flush_tx+0x4>
    9118:	e8bd8010 	pop	{r4, pc}

0000911c <uart_disable>:
    911c:	e92d4010 	push	{r4, lr}
    9120:	ebfffff8 	bl	9108 <uart_flush_tx>
    9124:	eb000123 	bl	95b8 <dev_barrier>
    9128:	e3e01001 	mvn	r1, #1, 0
    912c:	e59f0008 	ldr	r0, [pc, #8]	; 913c <uart_disable+0x20>
    9130:	ebffff86 	bl	8f50 <and_in32>
    9134:	eb00011f 	bl	95b8 <dev_barrier>
    9138:	e8bd8010 	pop	{r4, pc}
    913c:	20215004 	eorcs	r5, r1, r4

00009140 <kmalloc_heap_end>:
    9140:	e59f3004 	ldr	r3, [pc, #4]	; 914c <kmalloc_heap_end+0xc>
    9144:	e5930000 	ldr	r0, [r3]
    9148:	e12fff1e 	bx	lr
    914c:	00009c08 	andeq	r9, r0, r8, lsl #24

00009150 <kmalloc_heap_start>:
    9150:	e59f3004 	ldr	r3, [pc, #4]	; 915c <kmalloc_heap_start+0xc>
    9154:	e5930004 	ldr	r0, [r3, #4]
    9158:	e12fff1e 	bx	lr
    915c:	00009c08 	andeq	r9, r0, r8, lsl #24

00009160 <kmalloc_heap_ptr>:
    9160:	e59f3004 	ldr	r3, [pc, #4]	; 916c <kmalloc_heap_ptr+0xc>
    9164:	e5930000 	ldr	r0, [r3]
    9168:	e12fff1e 	bx	lr
    916c:	00009c08 	andeq	r9, r0, r8, lsl #24

00009170 <kmalloc_init_set_start>:
    9170:	e52de004 	push	{lr}		; (str lr, [sp, #-4]!)
    9174:	e24dd00c 	sub	sp, sp, #12, 0
    9178:	e3510000 	cmp	r1, #0, 0
    917c:	0a00000a 	beq	91ac <kmalloc_init_set_start+0x3c>
    9180:	e59f306c 	ldr	r3, [pc, #108]	; 91f4 <kmalloc_init_set_start+0x84>
    9184:	e5933000 	ldr	r3, [r3]
    9188:	e1530000 	cmp	r3, r0
    918c:	8a00000e 	bhi	91cc <kmalloc_init_set_start+0x5c>
    9190:	e59f305c 	ldr	r3, [pc, #92]	; 91f4 <kmalloc_init_set_start+0x84>
    9194:	e5830000 	str	r0, [r3]
    9198:	e5830004 	str	r0, [r3, #4]
    919c:	e0800001 	add	r0, r0, r1
    91a0:	e5830008 	str	r0, [r3, #8]
    91a4:	e28dd00c 	add	sp, sp, #12, 0
    91a8:	e49df004 	pop	{pc}		; (ldr pc, [sp], #4)
    91ac:	e59f3044 	ldr	r3, [pc, #68]	; 91f8 <kmalloc_init_set_start+0x88>
    91b0:	e58d3000 	str	r3, [sp]
    91b4:	e3a03030 	mov	r3, #48, 0	; 0x30
    91b8:	e59f203c 	ldr	r2, [pc, #60]	; 91fc <kmalloc_init_set_start+0x8c>
    91bc:	e59f103c 	ldr	r1, [pc, #60]	; 9200 <kmalloc_init_set_start+0x90>
    91c0:	e59f003c 	ldr	r0, [pc, #60]	; 9204 <kmalloc_init_set_start+0x94>
    91c4:	ebfffd03 	bl	85d8 <printk>
    91c8:	ebffff04 	bl	8de0 <clean_reboot>
    91cc:	e59f3020 	ldr	r3, [pc, #32]	; 91f4 <kmalloc_init_set_start+0x84>
    91d0:	e5933008 	ldr	r3, [r3, #8]
    91d4:	e58d3004 	str	r3, [sp, #4]
    91d8:	e58d0000 	str	r0, [sp]
    91dc:	e3a03034 	mov	r3, #52, 0	; 0x34
    91e0:	e59f2014 	ldr	r2, [pc, #20]	; 91fc <kmalloc_init_set_start+0x8c>
    91e4:	e59f1014 	ldr	r1, [pc, #20]	; 9200 <kmalloc_init_set_start+0x90>
    91e8:	e59f0018 	ldr	r0, [pc, #24]	; 9208 <kmalloc_init_set_start+0x98>
    91ec:	ebfffcf9 	bl	85d8 <printk>
    91f0:	ebfffefa 	bl	8de0 <clean_reboot>
    91f4:	00009c08 	andeq	r9, r0, r8, lsl #24
    91f8:	00009a10 	andeq	r9, r0, r0, lsl sl
    91fc:	00009b9c 	muleq	r0, ip, fp
    9200:	00009a04 	andeq	r9, r0, r4, lsl #20
    9204:	00009718 	andeq	r9, r0, r8, lsl r7
    9208:	00009a1c 	andeq	r9, r0, ip, lsl sl

0000920c <kmalloc_init>:
    920c:	e92d4010 	push	{r4, lr}
    9210:	e59f303c 	ldr	r3, [pc, #60]	; 9254 <kmalloc_init+0x48>
    9214:	e5933000 	ldr	r3, [r3]
    9218:	e3530000 	cmp	r3, #0, 0
    921c:	1a000006 	bne	923c <kmalloc_init+0x30>
    9220:	e59f302c 	ldr	r3, [pc, #44]	; 9254 <kmalloc_init+0x48>
    9224:	e3a02001 	mov	r2, #1, 0
    9228:	e5832000 	str	r2, [r3]
    922c:	e3a01201 	mov	r1, #268435456	; 0x10000000
    9230:	e3a00601 	mov	r0, #1048576	; 0x100000
    9234:	ebffffcd 	bl	9170 <kmalloc_init_set_start>
    9238:	e8bd8010 	pop	{r4, pc}
    923c:	e3a03040 	mov	r3, #64, 0	; 0x40
    9240:	e59f2010 	ldr	r2, [pc, #16]	; 9258 <kmalloc_init+0x4c>
    9244:	e59f1010 	ldr	r1, [pc, #16]	; 925c <kmalloc_init+0x50>
    9248:	e59f0010 	ldr	r0, [pc, #16]	; 9260 <kmalloc_init+0x54>
    924c:	ebfffce1 	bl	85d8 <printk>
    9250:	ebfffee2 	bl	8de0 <clean_reboot>
    9254:	0000a018 	andeq	sl, r0, r8, lsl r0
    9258:	00009bb4 			; <UNDEFINED> instruction: 0x00009bb4
    925c:	00009a04 	andeq	r9, r0, r4, lsl #20
    9260:	00009a60 	andeq	r9, r0, r0, ror #20

00009264 <kmalloc_notzero>:
    9264:	e52de004 	push	{lr}		; (str lr, [sp, #-4]!)
    9268:	e24dd00c 	sub	sp, sp, #12, 0
    926c:	e3500000 	cmp	r0, #0, 0
    9270:	0a00000a 	beq	92a0 <kmalloc_notzero+0x3c>
    9274:	e2800007 	add	r0, r0, #7, 0
    9278:	e3c03007 	bic	r3, r0, #7, 0
    927c:	e59f2060 	ldr	r2, [pc, #96]	; 92e4 <kmalloc_notzero+0x80>
    9280:	e5920000 	ldr	r0, [r2]
    9284:	e0801003 	add	r1, r0, r3
    9288:	e5821000 	str	r1, [r2]
    928c:	e5922008 	ldr	r2, [r2, #8]
    9290:	e1510002 	cmp	r1, r2
    9294:	8a000009 	bhi	92c0 <kmalloc_notzero+0x5c>
    9298:	e28dd00c 	add	sp, sp, #12, 0
    929c:	e49df004 	pop	{pc}		; (ldr pc, [sp], #4)
    92a0:	e59f3040 	ldr	r3, [pc, #64]	; 92e8 <kmalloc_notzero+0x84>
    92a4:	e58d3000 	str	r3, [sp]
    92a8:	e3a03048 	mov	r3, #72, 0	; 0x48
    92ac:	e59f2038 	ldr	r2, [pc, #56]	; 92ec <kmalloc_notzero+0x88>
    92b0:	e59f1038 	ldr	r1, [pc, #56]	; 92f0 <kmalloc_notzero+0x8c>
    92b4:	e59f0038 	ldr	r0, [pc, #56]	; 92f4 <kmalloc_notzero+0x90>
    92b8:	ebfffcc6 	bl	85d8 <printk>
    92bc:	ebfffec7 	bl	8de0 <clean_reboot>
    92c0:	e0422000 	sub	r2, r2, r0
    92c4:	e58d2004 	str	r2, [sp, #4]
    92c8:	e58d3000 	str	r3, [sp]
    92cc:	e3a0304e 	mov	r3, #78, 0	; 0x4e
    92d0:	e59f2014 	ldr	r2, [pc, #20]	; 92ec <kmalloc_notzero+0x88>
    92d4:	e59f1014 	ldr	r1, [pc, #20]	; 92f0 <kmalloc_notzero+0x8c>
    92d8:	e59f0018 	ldr	r0, [pc, #24]	; 92f8 <kmalloc_notzero+0x94>
    92dc:	ebfffcbd 	bl	85d8 <printk>
    92e0:	ebfffebe 	bl	8de0 <clean_reboot>
    92e4:	00009c08 	andeq	r9, r0, r8, lsl #24
    92e8:	00009a14 	andeq	r9, r0, r4, lsl sl
    92ec:	00009bc4 	andeq	r9, r0, r4, asr #23
    92f0:	00009a04 	andeq	r9, r0, r4, lsl #20
    92f4:	00009718 	andeq	r9, r0, r8, lsl r7
    92f8:	00009a90 	muleq	r0, r0, sl

000092fc <kmalloc>:
    92fc:	e92d4030 	push	{r4, r5, lr}
    9300:	e24dd00c 	sub	sp, sp, #12, 0
    9304:	e2504000 	subs	r4, r0, #0, 0
    9308:	0a000008 	beq	9330 <kmalloc+0x34>
    930c:	e1a00004 	mov	r0, r4
    9310:	ebffffd3 	bl	9264 <kmalloc_notzero>
    9314:	e1a05000 	mov	r5, r0
    9318:	e1a02004 	mov	r2, r4
    931c:	e3a01000 	mov	r1, #0, 0
    9320:	eb000072 	bl	94f0 <memset>
    9324:	e1a00005 	mov	r0, r5
    9328:	e28dd00c 	add	sp, sp, #12, 0
    932c:	e8bd8030 	pop	{r4, r5, pc}
    9330:	e59f3018 	ldr	r3, [pc, #24]	; 9350 <kmalloc+0x54>
    9334:	e58d3000 	str	r3, [sp]
    9338:	e3a03054 	mov	r3, #84, 0	; 0x54
    933c:	e59f2010 	ldr	r2, [pc, #16]	; 9354 <kmalloc+0x58>
    9340:	e59f1010 	ldr	r1, [pc, #16]	; 9358 <kmalloc+0x5c>
    9344:	e59f0010 	ldr	r0, [pc, #16]	; 935c <kmalloc+0x60>
    9348:	ebfffca2 	bl	85d8 <printk>
    934c:	ebfffea3 	bl	8de0 <clean_reboot>
    9350:	00009a14 	andeq	r9, r0, r4, lsl sl
    9354:	00009bd4 	ldrdeq	r9, [r0], -r4
    9358:	00009a04 	andeq	r9, r0, r4, lsl #20
    935c:	00009718 	andeq	r9, r0, r8, lsl r7

00009360 <kmalloc_aligned>:
    9360:	e52de004 	push	{lr}		; (str lr, [sp, #-4]!)
    9364:	e24dd00c 	sub	sp, sp, #12, 0
    9368:	e3500000 	cmp	r0, #0, 0
    936c:	0a000014 	beq	93c4 <kmalloc_aligned+0x64>
    9370:	e2613000 	rsb	r3, r1, #0, 0
    9374:	e1d13003 	bics	r3, r1, r3
    9378:	1a000019 	bne	93e4 <kmalloc_aligned+0x84>
    937c:	e3510008 	cmp	r1, #8, 0
    9380:	33a01008 	movcc	r1, #8, 0
    9384:	e59f30c0 	ldr	r3, [pc, #192]	; 944c <kmalloc_aligned+0xec>
    9388:	e5932000 	ldr	r2, [r3]
    938c:	e2613000 	rsb	r3, r1, #0, 0
    9390:	e1d1c003 	bics	ip, r1, r3
    9394:	1a00001b 	bne	9408 <kmalloc_aligned+0xa8>
    9398:	e0822001 	add	r2, r2, r1
    939c:	e2422001 	sub	r2, r2, #1, 0
    93a0:	e0033002 	and	r3, r3, r2
    93a4:	e2411001 	sub	r1, r1, #1, 0
    93a8:	e1110003 	tst	r1, r3
    93ac:	1a00001d 	bne	9428 <kmalloc_aligned+0xc8>
    93b0:	e59f2094 	ldr	r2, [pc, #148]	; 944c <kmalloc_aligned+0xec>
    93b4:	e5823000 	str	r3, [r2]
    93b8:	ebffffcf 	bl	92fc <kmalloc>
    93bc:	e28dd00c 	add	sp, sp, #12, 0
    93c0:	e49df004 	pop	{pc}		; (ldr pc, [sp], #4)
    93c4:	e59f3084 	ldr	r3, [pc, #132]	; 9450 <kmalloc_aligned+0xf0>
    93c8:	e58d3000 	str	r3, [sp]
    93cc:	e3a0305f 	mov	r3, #95, 0	; 0x5f
    93d0:	e59f207c 	ldr	r2, [pc, #124]	; 9454 <kmalloc_aligned+0xf4>
    93d4:	e59f107c 	ldr	r1, [pc, #124]	; 9458 <kmalloc_aligned+0xf8>
    93d8:	e59f007c 	ldr	r0, [pc, #124]	; 945c <kmalloc_aligned+0xfc>
    93dc:	ebfffc7d 	bl	85d8 <printk>
    93e0:	ebfffe7e 	bl	8de0 <clean_reboot>
    93e4:	ebfffc96 	bl	8644 <rpi_reset_putc>
    93e8:	e59f3070 	ldr	r3, [pc, #112]	; 9460 <kmalloc_aligned+0x100>
    93ec:	e58d3000 	str	r3, [sp]
    93f0:	e3a03060 	mov	r3, #96, 0	; 0x60
    93f4:	e59f2058 	ldr	r2, [pc, #88]	; 9454 <kmalloc_aligned+0xf4>
    93f8:	e59f1058 	ldr	r1, [pc, #88]	; 9458 <kmalloc_aligned+0xf8>
    93fc:	e59f0060 	ldr	r0, [pc, #96]	; 9464 <kmalloc_aligned+0x104>
    9400:	ebfffc74 	bl	85d8 <printk>
    9404:	ebfffe75 	bl	8de0 <clean_reboot>
    9408:	e59f3058 	ldr	r3, [pc, #88]	; 9468 <kmalloc_aligned+0x108>
    940c:	e58d3000 	str	r3, [sp]
    9410:	e3a03011 	mov	r3, #17, 0
    9414:	e59f2050 	ldr	r2, [pc, #80]	; 946c <kmalloc_aligned+0x10c>
    9418:	e59f1038 	ldr	r1, [pc, #56]	; 9458 <kmalloc_aligned+0xf8>
    941c:	e59f0038 	ldr	r0, [pc, #56]	; 945c <kmalloc_aligned+0xfc>
    9420:	ebfffc6c 	bl	85d8 <printk>
    9424:	ebfffe6d 	bl	8de0 <clean_reboot>
    9428:	ebfffc85 	bl	8644 <rpi_reset_putc>
    942c:	e59f303c 	ldr	r3, [pc, #60]	; 9470 <kmalloc_aligned+0x110>
    9430:	e58d3000 	str	r3, [sp]
    9434:	e3a03068 	mov	r3, #104, 0	; 0x68
    9438:	e59f2014 	ldr	r2, [pc, #20]	; 9454 <kmalloc_aligned+0xf4>
    943c:	e59f1014 	ldr	r1, [pc, #20]	; 9458 <kmalloc_aligned+0xf8>
    9440:	e59f002c 	ldr	r0, [pc, #44]	; 9474 <kmalloc_aligned+0x114>
    9444:	ebfffc63 	bl	85d8 <printk>
    9448:	ebfffe64 	bl	8de0 <clean_reboot>
    944c:	00009c08 	andeq	r9, r0, r8, lsl #24
    9450:	00009a14 	andeq	r9, r0, r4, lsl sl
    9454:	00009bdc 	ldrdeq	r9, [r0], -ip
    9458:	00009a04 	andeq	r9, r0, r4, lsl #20
    945c:	00009718 	andeq	r9, r0, r8, lsl r7
    9460:	00009b04 	andeq	r9, r0, r4, lsl #22
    9464:	00009ad0 	ldrdeq	r9, [r0], -r0
    9468:	00009b18 	andeq	r9, r0, r8, lsl fp
    946c:	00009bec 	andeq	r9, r0, ip, ror #23
    9470:	00009b50 	andeq	r9, r0, r0, asr fp
    9474:	00009b24 	andeq	r9, r0, r4, lsr #22

00009478 <kfree>:
    9478:	e12fff1e 	bx	lr

0000947c <kfree_all>:
    947c:	e59f3008 	ldr	r3, [pc, #8]	; 948c <kfree_all+0x10>
    9480:	e5932004 	ldr	r2, [r3, #4]
    9484:	e5832000 	str	r2, [r3]
    9488:	e12fff1e 	bx	lr
    948c:	00009c08 	andeq	r9, r0, r8, lsl #24

00009490 <kfree_pop>:
    9490:	e59f3048 	ldr	r3, [pc, #72]	; 94e0 <kfree_pop+0x50>
    9494:	e5933004 	ldr	r3, [r3, #4]
    9498:	e1530000 	cmp	r3, r0
    949c:	8a000006 	bhi	94bc <kfree_pop+0x2c>
    94a0:	e59f3038 	ldr	r3, [pc, #56]	; 94e0 <kfree_pop+0x50>
    94a4:	e5933008 	ldr	r3, [r3, #8]
    94a8:	e1530000 	cmp	r3, r0
    94ac:	3a000002 	bcc	94bc <kfree_pop+0x2c>
    94b0:	e59f3028 	ldr	r3, [pc, #40]	; 94e0 <kfree_pop+0x50>
    94b4:	e5830000 	str	r0, [r3]
    94b8:	e12fff1e 	bx	lr
    94bc:	e52de004 	push	{lr}		; (str lr, [sp, #-4]!)
    94c0:	e24dd00c 	sub	sp, sp, #12, 0
    94c4:	e58d0000 	str	r0, [sp]
    94c8:	e3a03077 	mov	r3, #119, 0	; 0x77
    94cc:	e59f2010 	ldr	r2, [pc, #16]	; 94e4 <kfree_pop+0x54>
    94d0:	e59f1010 	ldr	r1, [pc, #16]	; 94e8 <kfree_pop+0x58>
    94d4:	e59f0010 	ldr	r0, [pc, #16]	; 94ec <kfree_pop+0x5c>
    94d8:	ebfffc3e 	bl	85d8 <printk>
    94dc:	ebfffe3f 	bl	8de0 <clean_reboot>
    94e0:	00009c08 	andeq	r9, r0, r8, lsl #24
    94e4:	00009bf4 	strdeq	r9, [r0], -r4
    94e8:	00009a04 	andeq	r9, r0, r4, lsl #20
    94ec:	00009b6c 	andeq	r9, r0, ip, ror #22

000094f0 <memset>:
    94f0:	e0802002 	add	r2, r0, r2
    94f4:	e1a03000 	mov	r3, r0
    94f8:	e1530002 	cmp	r3, r2
    94fc:	212fff1e 	bxcs	lr
    9500:	e4c31001 	strb	r1, [r3], #1
    9504:	eafffffb 	b	94f8 <memset+0x8>

00009508 <strcat>:
    9508:	e1a02000 	mov	r2, r0
    950c:	e1a03002 	mov	r3, r2
    9510:	e2822001 	add	r2, r2, #1, 0
    9514:	e5d3c000 	ldrb	ip, [r3]
    9518:	e35c0000 	cmp	ip, #0, 0
    951c:	1afffffa 	bne	950c <strcat+0x4>
    9520:	e2433001 	sub	r3, r3, #1, 0
    9524:	e5d12000 	ldrb	r2, [r1]
    9528:	e2811001 	add	r1, r1, #1, 0
    952c:	e5e32001 	strb	r2, [r3, #1]!
    9530:	e3520000 	cmp	r2, #0, 0
    9534:	1afffffa 	bne	9524 <strcat+0x1c>
    9538:	e12fff1e 	bx	lr

0000953c <strcmp>:
    953c:	e5d03000 	ldrb	r3, [r0]
    9540:	e3530000 	cmp	r3, #0, 0
    9544:	0a000004 	beq	955c <strcmp+0x20>
    9548:	e5d12000 	ldrb	r2, [r1]
    954c:	e1530002 	cmp	r3, r2
    9550:	02800001 	addeq	r0, r0, #1, 0
    9554:	02811001 	addeq	r1, r1, #1, 0
    9558:	0afffff7 	beq	953c <strcmp>
    955c:	e5d10000 	ldrb	r0, [r1]
    9560:	e0430000 	sub	r0, r3, r0
    9564:	e12fff1e 	bx	lr

00009568 <strcpy>:
    9568:	e1a0c000 	mov	ip, r0
    956c:	e5d12000 	ldrb	r2, [r1]
    9570:	e2811001 	add	r1, r1, #1, 0
    9574:	e5cc2000 	strb	r2, [ip]
    9578:	e28cc001 	add	ip, ip, #1, 0
    957c:	e3520000 	cmp	r2, #0, 0
    9580:	1afffff9 	bne	956c <strcpy+0x4>
    9584:	e12fff1e 	bx	lr

00009588 <strncmp>:
    9588:	e3520000 	cmp	r2, #0, 0
    958c:	e2422001 	sub	r2, r2, #1, 0
    9590:	0a000005 	beq	95ac <strncmp+0x24>
    9594:	e4d03001 	ldrb	r3, [r0], #1
    9598:	e4d1c001 	ldrb	ip, [r1], #1
    959c:	e153000c 	cmp	r3, ip
    95a0:	0afffff8 	beq	9588 <strncmp>
    95a4:	e043000c 	sub	r0, r3, ip
    95a8:	e12fff1e 	bx	lr
    95ac:	e3a00000 	mov	r0, #0, 0
    95b0:	e12fff1e 	bx	lr

000095b4 <reboot_callout>:
    95b4:	e12fff1e 	bx	lr

000095b8 <dev_barrier>:
    95b8:	ea000002 	b	95c8 <dsb>

000095bc <dmb>:
    95bc:	e3a00000 	mov	r0, #0, 0
    95c0:	ee070fba 	mcr	15, 0, r0, cr7, cr10, {5}
    95c4:	e12fff1e 	bx	lr

000095c8 <dsb>:
    95c8:	ee070f9a 	mcr	15, 0, r0, cr7, cr10, {4}
    95cc:	e12fff1e 	bx	lr

000095d0 <gpio_set_function>:
    95d0:	e350001f 	cmp	r0, #31, 0
    95d4:	812fff1e 	bxhi	lr
    95d8:	e92d4070 	push	{r4, r5, r6, lr}
    95dc:	e1a05001 	mov	r5, r1
    95e0:	e3d13007 	bics	r3, r1, #7, 0
    95e4:	18bd8070 	popne	{r4, r5, r6, pc}
    95e8:	e59f3040 	ldr	r3, [pc, #64]	; 9630 <gpio_set_function+0x60>
    95ec:	e0832093 	umull	r2, r3, r3, r0
    95f0:	e1a031a3 	lsr	r3, r3, #3
    95f4:	e1a02003 	mov	r2, r3
    95f8:	e0833103 	add	r3, r3, r3, lsl #2
    95fc:	e0403083 	sub	r3, r0, r3, lsl #1
    9600:	e0834083 	add	r4, r3, r3, lsl #1
    9604:	e2820302 	add	r0, r2, #134217728	; 0x8000000
    9608:	e2800702 	add	r0, r0, #524288	; 0x80000
    960c:	e1a06100 	lsl	r6, r0, #2
    9610:	e1a00006 	mov	r0, r6
    9614:	ebfffa84 	bl	802c <GET32>
    9618:	e3a01007 	mov	r1, #7, 0
    961c:	e1c01411 	bic	r1, r0, r1, lsl r4
    9620:	e1811415 	orr	r1, r1, r5, lsl r4
    9624:	e1a00006 	mov	r0, r6
    9628:	ebfffa7d 	bl	8024 <PUT32>
    962c:	e8bd8070 	pop	{r4, r5, r6, pc}
    9630:	cccccccd 	stclgt	12, cr12, [ip], {205}	; 0xcd

00009634 <gpio_set_output>:
    9634:	e92d4010 	push	{r4, lr}
    9638:	e3a01001 	mov	r1, #1, 0
    963c:	ebffffe3 	bl	95d0 <gpio_set_function>
    9640:	e8bd8010 	pop	{r4, pc}

00009644 <gpio_set_on>:
    9644:	e350001f 	cmp	r0, #31, 0
    9648:	812fff1e 	bxhi	lr
    964c:	e92d4010 	push	{r4, lr}
    9650:	e3a01001 	mov	r1, #1, 0
    9654:	e1a01011 	lsl	r1, r1, r0
    9658:	e59f0004 	ldr	r0, [pc, #4]	; 9664 <gpio_set_on+0x20>
    965c:	ebfffa70 	bl	8024 <PUT32>
    9660:	e8bd8010 	pop	{r4, pc}
    9664:	2020001c 	eorcs	r0, r0, ip, lsl r0

00009668 <gpio_set_off>:
    9668:	e350001f 	cmp	r0, #31, 0
    966c:	812fff1e 	bxhi	lr
    9670:	e92d4010 	push	{r4, lr}
    9674:	e3a01001 	mov	r1, #1, 0
    9678:	e1a01011 	lsl	r1, r1, r0
    967c:	e59f0004 	ldr	r0, [pc, #4]	; 9688 <gpio_set_off+0x20>
    9680:	ebfffa67 	bl	8024 <PUT32>
    9684:	e8bd8010 	pop	{r4, pc}
    9688:	20200028 	eorcs	r0, r0, r8, lsr #32

0000968c <gpio_set_input>:
    968c:	e92d4010 	push	{r4, lr}
    9690:	e3a01000 	mov	r1, #0, 0
    9694:	ebffffcd 	bl	95d0 <gpio_set_function>
    9698:	e8bd8010 	pop	{r4, pc}

0000969c <gpio_write>:
    969c:	e92d4010 	push	{r4, lr}
    96a0:	e3510000 	cmp	r1, #0, 0
    96a4:	0a000001 	beq	96b0 <gpio_write+0x14>
    96a8:	ebffffe5 	bl	9644 <gpio_set_on>
    96ac:	e8bd8010 	pop	{r4, pc}
    96b0:	ebffffec 	bl	9668 <gpio_set_off>
    96b4:	e8bd8010 	pop	{r4, pc}

000096b8 <gpio_read>:
    96b8:	e350001f 	cmp	r0, #31, 0
    96bc:	8a000007 	bhi	96e0 <gpio_read+0x28>
    96c0:	e92d4010 	push	{r4, lr}
    96c4:	e200401f 	and	r4, r0, #31, 0
    96c8:	e59f3018 	ldr	r3, [pc, #24]	; 96e8 <gpio_read+0x30>
    96cc:	e08302a0 	add	r0, r3, r0, lsr #5
    96d0:	ebfffa55 	bl	802c <GET32>
    96d4:	e1a00430 	lsr	r0, r0, r4
    96d8:	e2000001 	and	r0, r0, #1, 0
    96dc:	e8bd8010 	pop	{r4, pc}
    96e0:	e3e00000 	mvn	r0, #0, 0
    96e4:	e12fff1e 	bx	lr
    96e8:	20200034 	eorcs	r0, r0, r4, lsr r0

000096ec <__code_end__>:
    96ec:	00000000 	andeq	r0, r0, r0

Disassembly of section .rodata:

000096f0 <__FUNCTION__.4109-0x164>:
    96f0:	203d2061 	eorscs	r2, sp, r1, rrx
    96f4:	202c6425 	eorcs	r6, ip, r5, lsr #8
    96f8:	203d2062 	eorscs	r2, sp, r2, rrx
    96fc:	202c6425 	eorcs	r6, ip, r5, lsr #8
    9700:	203d2063 	eorscs	r2, sp, r3, rrx
    9704:	000a6425 	andeq	r6, sl, r5, lsr #8
    9708:	2d746e69 	ldclcs	14, cr6, [r4, #-420]!	; 0xfffffe5c
    970c:	706d6f63 	rsbvc	r6, sp, r3, ror #30
    9710:	2e656c69 	cdpcs	12, 6, cr6, cr5, cr9, {3}
    9714:	00000063 	andeq	r0, r0, r3, rrx
    9718:	494e4150 	stmdbmi	lr, {r4, r6, r8, lr}^
    971c:	73253a43 			; <UNDEFINED> instruction: 0x73253a43
    9720:	3a73253a 	bcc	1cd2c10 <__bss_end__+0x1cc8bf0>
    9724:	253a6425 	ldrcs	r6, [sl, #-1061]!	; 0xfffffbdb
    9728:	00000a73 	andeq	r0, r0, r3, ror sl
    972c:	203c206e 	eorscs	r2, ip, lr, rrx
    9730:	00303532 	eorseq	r3, r0, r2, lsr r5
    9734:	203c206e 	eorscs	r2, ip, lr, rrx
    9738:	00000036 	andeq	r0, r0, r6, lsr r0
    973c:	20677261 	rsbcs	r7, r7, r1, ror #4
    9740:	3d206425 	cfstrscc	mvf6, [r0, #-148]!	; 0xffffff6c
    9744:	0a642520 	beq	1912bcc <__bss_end__+0x1908bac>
    9748:	00000000 	andeq	r0, r0, r0
    974c:	656e6567 	strbvs	r6, [lr, #-1383]!	; 0xfffffa99
    9750:	5f636972 	svcpl	0x00636972
    9754:	6c6c6163 	stfvse	f6, [ip], #-396	; 0xfffffe74
    9758:	746e695f 	strbtvc	r6, [lr], #-2399	; 0xfffff6a1
    975c:	746e6928 	strbtvc	r6, [lr], #-2344	; 0xfffff6d8
    9760:	296e2c76 	stmdbcs	lr!, {r1, r2, r4, r5, r6, sl, fp, sp}^
    9764:	00000000 	andeq	r0, r0, r0
    9768:	74736f63 	ldrbtvc	r6, [r3], #-3939	; 0xfffff09d
    976c:	20666f20 	rsbcs	r6, r6, r0, lsr #30
    9770:	656e6567 	strbvs	r6, [lr, #-1383]!	; 0xfffffa99
    9774:	2d636972 			; <UNDEFINED> instruction: 0x2d636972
    9778:	20746e69 	rsbscs	r6, r4, r9, ror #28
    977c:	6c6c6163 	stfvse	f6, [ip], #-396	; 0xfffffe74
    9780:	00676e69 	rsbeq	r6, r7, r9, ror #28
    9784:	203a7325 	eorscs	r7, sl, r5, lsr #6
    9788:	63206425 			; <UNDEFINED> instruction: 0x63206425
    978c:	656c6379 	strbvs	r6, [ip, #-889]!	; 0xfffffc87
    9790:	78282073 	stmdavc	r8!, {r0, r1, r4, r5, r6, sp}
    9794:	20293031 	eorcs	r3, r9, r1, lsr r0
    9798:	3e73253c 	mrccc	5, 3, r2, cr3, cr12, {1}
    979c:	0000000a 	andeq	r0, r0, sl
    97a0:	4f525245 	svcmi	0x00525245
    97a4:	73253a52 			; <UNDEFINED> instruction: 0x73253a52
    97a8:	3a73253a 	bcc	1cd2c98 <__bss_end__+0x1cc8c78>
    97ac:	203a6425 	eorscs	r6, sl, r5, lsr #8
    97b0:	534c4146 	movtpl	r4, #49478	; 0xc146
    97b4:	253c2845 	ldrcs	r2, [ip, #-2117]!	; 0xfffff7bb
    97b8:	3a293e73 	bcc	a5918c <__bss_end__+0xa4f16c>
    97bc:	6e632220 	cdpvs	2, 6, cr2, cr3, cr0, {1}
    97c0:	64253d74 	strtvs	r3, [r5], #-3444	; 0xfffff28c
    97c4:	7865202c 	stmdavc	r5!, {r2, r3, r5, sp}^
    97c8:	74636570 	strbtvc	r6, [r3], #-1392	; 0xfffffa90
    97cc:	253d6465 	ldrcs	r6, [sp, #-1125]!	; 0xfffffb9b
    97d0:	226e5c64 	rsbcs	r5, lr, #100, 24	; 0x6400
    97d4:	0000000a 	andeq	r0, r0, sl
    97d8:	20746e63 	rsbscs	r6, r4, r3, ror #28
    97dc:	6e203d3d 	mcrvs	13, 1, r3, cr0, cr13, {1}
    97e0:	0030312a 	eorseq	r3, r0, sl, lsr #2
    97e4:	63657073 	cmnvs	r5, #115, 0	; 0x73
    97e8:	696c6169 	stmdbvs	ip!, {r0, r3, r5, r6, r8, sp, lr}^
    97ec:	5f64657a 	svcpl	0x0064657a
    97f0:	6c6c6163 	stfvse	f6, [ip], #-396	; 0xfffffe74
    97f4:	746e695f 	strbtvc	r6, [lr], #-2399	; 0xfffff6a1
    97f8:	00002928 	andeq	r2, r0, r8, lsr #18
    97fc:	74736f63 	ldrbtvc	r6, [r3], #-3939	; 0xfffff09d
    9800:	20666f20 	rsbcs	r6, r6, r0, lsr #30
    9804:	63657073 	cmnvs	r5, #115, 0	; 0x73
    9808:	696c6169 	stmdbvs	ip!, {r0, r3, r5, r6, r8, sp, lr}^
    980c:	2064657a 	rsbcs	r6, r4, sl, ror r5
    9810:	20746e69 	rsbscs	r6, r4, r9, ror #28
    9814:	6c6c6163 	stfvse	f6, [ip], #-396	; 0xfffffe74
    9818:	00676e69 	rsbeq	r6, r7, r9, ror #28
    981c:	29287066 	stmdbcs	r8!, {r1, r2, r5, r6, ip, sp, lr}
    9820:	00000000 	andeq	r0, r0, r0
    9824:	74736f63 	ldrbtvc	r6, [r3], #-3939	; 0xfffff09d
    9828:	20666f20 	rsbcs	r6, r6, r0, lsr #30
    982c:	20746e69 	rsbscs	r6, r4, r9, ror #28
    9830:	706d6f63 	rsbvc	r6, sp, r3, ror #30
    9834:	20656c69 	rsbcs	r6, r5, r9, ror #24
    9838:	6c6c6163 	stfvse	f6, [ip], #-396	; 0xfffffe74
    983c:	00676e69 	rsbeq	r6, r7, r9, ror #28
    9840:	6f6f6f67 	svcvs	0x006f6f67
    9844:	6f6f6f6f 	svcvs	0x006f6f6f
    9848:	00000a21 	andeq	r0, r0, r1, lsr #20
    984c:	656e6f64 	strbvs	r6, [lr, #-3940]!	; 0xfffff09c
    9850:	00000a21 	andeq	r0, r0, r1, lsr #20

00009854 <__FUNCTION__.4109>:
    9854:	5f746e69 	svcpl	0x00746e69
    9858:	706d6f63 	rsbvc	r6, sp, r3, ror #30
    985c:	00656c69 	rsbeq	r6, r5, r9, ror #24

00009860 <__FUNCTION__.4119>:
    9860:	6e756874 	mrcvs	8, 3, r6, cr5, cr4, {3}
    9864:	0000006b 	andeq	r0, r0, fp, rrx
    9868:	00008038 	andeq	r8, r0, r8, lsr r0
    986c:	00008050 	andeq	r8, r0, r0, asr r0
    9870:	00008068 	andeq	r8, r0, r8, rrx
    9874:	00008080 	andeq	r8, r0, r0, lsl #1
    9878:	00008098 	muleq	r0, r8, r0
    987c:	000080b0 	strheq	r8, [r0], -r0
    9880:	000080c8 	andeq	r8, r0, r8, asr #1
    9884:	000080e0 	andeq	r8, r0, r0, ror #1

00009888 <__FUNCTION__.4143>:
    9888:	6d746f6e 	ldclvs	15, cr6, [r4, #-440]!	; 0xfffffe48
    988c:	006e6961 	rsbeq	r6, lr, r1, ror #18
    9890:	696c2f2e 	stmdbvs	ip!, {r1, r2, r3, r5, r8, r9, sl, fp, sp}^
    9894:	762f6362 	strtvc	r6, [pc], -r2, ror #6
    9898:	72702d61 	rsbsvc	r2, r0, #6208	; 0x1840
    989c:	6b746e69 	blvs	1d25248 <__bss_end__+0x1d1b228>
    98a0:	0000632e 	andeq	r6, r0, lr, lsr #6
    98a4:	00000030 	andeq	r0, r0, r0, lsr r0
    98a8:	33323130 	teqcc	r2, #12
    98ac:	37363534 			; <UNDEFINED> instruction: 0x37363534
    98b0:	00003938 	andeq	r3, r0, r8, lsr r9
    98b4:	33323130 	teqcc	r2, #12
    98b8:	37363534 			; <UNDEFINED> instruction: 0x37363534
    98bc:	62613938 	rsbvs	r3, r1, #56, 18	; 0xe0000
    98c0:	66656463 	strbtvs	r6, [r5], -r3, ror #8
    98c4:	00000000 	andeq	r0, r0, r0
    98c8:	00003130 	andeq	r3, r0, r0, lsr r1
    98cc:	63747570 	cmnvs	r4, #112, 10	; 0x1c000000
    98d0:	0070665f 	rsbseq	r6, r0, pc, asr r6
    98d4:	74646977 	strbtvc	r6, [r4], #-2423	; 0xfffff689
    98d8:	203c2068 	eorscs	r2, ip, r8, rrx
    98dc:	00003233 	andeq	r3, r0, r3, lsr r2
    98e0:	00786c6c 	rsbseq	r6, r8, ip, ror #24
    98e4:	00646c6c 	rsbeq	r6, r4, ip, ror #24
    98e8:	253d3078 	ldrcs	r3, [sp, #-120]!	; 0xffffff88
    98ec:	00000a78 	andeq	r0, r0, r8, ror sl
    98f0:	253d3178 	ldrcs	r3, [sp, #-376]!	; 0xfffffe88
    98f4:	00000a78 	andeq	r0, r0, r8, ror sl
    98f8:	6e727473 	mrcvs	4, 3, r7, cr2, cr3, {3}
    98fc:	28706d63 	ldmdacs	r0!, {r0, r1, r5, r6, r8, sl, fp, sp, lr}^
    9900:	202c7974 	eorcs	r7, ip, r4, ror r9
    9904:	786c6c22 	stmdavc	ip!, {r1, r5, sl, fp, sp, lr}^
    9908:	33202c22 			; <UNDEFINED> instruction: 0x33202c22
    990c:	3d3d2029 	ldccc	0, cr2, [sp, #-164]!	; 0xffffff5c
    9910:	7c203020 	stcvc	0, cr3, [r0], #-128	; 0xffffff80
    9914:	7473207c 	ldrbtvc	r2, [r3], #-124	; 0xffffff84
    9918:	6d636e72 	stclvs	14, cr6, [r3, #-456]!	; 0xfffffe38
    991c:	79742870 	ldmdbvc	r4!, {r4, r5, r6, fp, sp}^
    9920:	6c22202c 	stcvs	0, cr2, [r2], #-176	; 0xffffff50
    9924:	2c22646c 	cfstrscs	mvf6, [r2], #-432	; 0xfffffe50
    9928:	20293320 	eorcs	r3, r9, r0, lsr #6
    992c:	30203d3d 	eorcc	r3, r0, sp, lsr sp
    9930:	00000000 	andeq	r0, r0, r0
    9934:	494e4150 	stmdbmi	lr, {r4, r6, r8, lr}^
    9938:	73253a43 			; <UNDEFINED> instruction: 0x73253a43
    993c:	3a73253a 	bcc	1cd2e2c <__bss_end__+0x1cc8e0c>
    9940:	693a6425 	ldmdbvs	sl!, {r0, r2, r5, sl, sp, lr}
    9944:	736f706d 	cmnvc	pc, #109, 0	; 0x6d
    9948:	6c626973 			; <UNDEFINED> instruction: 0x6c626973
    994c:	66203a65 	strtvs	r3, [r0], -r5, ror #20
    9950:	3c3d746d 	cfldrscc	mvf7, [sp], #-436	; 0xfffffe4c
    9954:	0a3e7325 	beq	fa65f0 <__bss_end__+0xf9c5d0>
    9958:	0000000a 	andeq	r0, r0, sl
    995c:	494e4150 	stmdbmi	lr, {r4, r6, r8, lr}^
    9960:	73253a43 			; <UNDEFINED> instruction: 0x73253a43
    9964:	3a73253a 	bcc	1cd2e54 <__bss_end__+0x1cc8e34>
    9968:	663a6425 	ldrtvs	r6, [sl], -r5, lsr #8
    996c:	74616f6c 	strbtvc	r6, [r1], #-3948	; 0xfffff094
    9970:	746f6e20 	strbtvc	r6, [pc], #-3616	; 9978 <__FUNCTION__.4143+0xf0>
    9974:	616e6520 	cmnvs	lr, r0, lsr #10
    9978:	64656c62 	strbtvs	r6, [r5], #-3170	; 0xfffff39e
    997c:	0a212121 	beq	851e08 <__bss_end__+0x847de8>
    9980:	00000000 	andeq	r0, r0, r0
    9984:	6e697270 	mcrvs	2, 3, r7, cr9, cr0, {3}
    9988:	203a6b74 	eorscs	r6, sl, r4, ror fp
    998c:	20746f6e 	rsbscs	r6, r4, lr, ror #30
    9990:	646e6168 	strbtvs	r6, [lr], #-360	; 0xfffffe98
    9994:	676e696c 	strbvs	r6, [lr, -ip, ror #18]!
    9998:	65707320 	ldrbvs	r7, [r0, #-800]!	; 0xfffffce0
    999c:	69666963 	stmdbvs	r6!, {r0, r1, r5, r6, r8, fp, sp, lr}^
    99a0:	27207265 	strcs	r7, [r0, -r5, ror #4]!
    99a4:	20276325 	eorcs	r6, r7, r5, lsr #6
    99a8:	63736128 	cmnvs	r3, #10
    99ac:	253d6969 	ldrcs	r6, [sp, #-2409]!	; 0xfffff697
    99b0:	000a2964 	andeq	r2, sl, r4, ror #18
    99b4:	494e4150 	stmdbmi	lr, {r4, r6, r8, lr}^
    99b8:	73253a43 			; <UNDEFINED> instruction: 0x73253a43
    99bc:	3a73253a 	bcc	1cd2eac <__bss_end__+0x1cc8e8c>
    99c0:	703a6425 	eorsvc	r6, sl, r5, lsr #8
    99c4:	746e6972 	strbtvc	r6, [lr], #-2418	; 0xfffff68e
    99c8:	7265206b 	rsbvc	r2, r5, #107, 0	; 0x6b
    99cc:	0a726f72 	beq	1ca579c <__bss_end__+0x1c9b77c>
    99d0:	0000000a 	andeq	r0, r0, sl

000099d4 <__FUNCTION__.4000>:
    99d4:	74696d65 	strbtvc	r6, [r9], #-3429	; 0xfffff29b
    99d8:	00000000 	andeq	r0, r0, r0

000099dc <__FUNCTION__.3948>:
    99dc:	5f697072 	svcpl	0x00697072
    99e0:	5f746573 	svcpl	0x00746573
    99e4:	7074756f 	rsbsvc	r7, r4, pc, ror #10
    99e8:	00007475 	andeq	r7, r0, r5, ror r4

000099ec <__FUNCTION__.4026>:
    99ec:	705f6176 	subsvc	r6, pc, r6, ror r1	; <UNPREDICTABLE>
    99f0:	746e6972 	strbtvc	r6, [lr], #-2418	; 0xfffff68e
    99f4:	0000006b 	andeq	r0, r0, fp, rrx
    99f8:	454e4f44 	strbmi	r4, [lr, #-3908]	; 0xfffff0bc
    99fc:	0a212121 	beq	851e88 <__bss_end__+0x847e68>
    9a00:	00000000 	andeq	r0, r0, r0
    9a04:	6c616d6b 	stclvs	13, cr6, [r1], #-428	; 0xfffffe54
    9a08:	2e636f6c 	cdpcs	15, 6, cr6, cr3, cr12, {3}
    9a0c:	00000063 	andeq	r0, r0, r3, rrx
    9a10:	5f78616d 	svcpl	0x0078616d
    9a14:	7479626e 	ldrbtvc	r6, [r9], #-622	; 0xfffffd92
    9a18:	00007365 	andeq	r7, r0, r5, ror #6
    9a1c:	494e4150 	stmdbmi	lr, {r4, r6, r8, lr}^
    9a20:	73253a43 			; <UNDEFINED> instruction: 0x73253a43
    9a24:	3a73253a 	bcc	1cd2f14 <__bss_end__+0x1cc8ef4>
    9a28:	733a6425 	teqvc	sl, #620756992	; 0x25000000
    9a2c:	69747465 	ldmdbvs	r4!, {r0, r2, r5, r6, sl, ip, sp, lr}^
    9a30:	6820676e 	stmdavs	r0!, {r1, r2, r3, r5, r6, r8, r9, sl, sp, lr}
    9a34:	20706165 	rsbscs	r6, r0, r5, ror #2
    9a38:	25206f74 	strcs	r6, [r0, #-3956]!	; 0xfffff08c
    9a3c:	77203a70 			; <UNDEFINED> instruction: 0x77203a70
    9a40:	206c6c69 	rsbcs	r6, ip, r9, ror #24
    9a44:	20746968 	rsbscs	r6, r4, r8, ror #18
    9a48:	20656874 	rsbcs	r6, r5, r4, ror r8
    9a4c:	20646c6f 	rsbcs	r6, r4, pc, ror #24
    9a50:	70616568 	rsbvc	r6, r1, r8, ror #10
    9a54:	20746120 	rsbscs	r6, r4, r0, lsr #2
    9a58:	0a0a7025 	beq	2a5af4 <__bss_end__+0x29bad4>
    9a5c:	00000000 	andeq	r0, r0, r0
    9a60:	494e4150 	stmdbmi	lr, {r4, r6, r8, lr}^
    9a64:	73253a43 			; <UNDEFINED> instruction: 0x73253a43
    9a68:	3a73253a 	bcc	1cd2f58 <__bss_end__+0x1cc8f38>
    9a6c:	613a6425 	teqvs	sl, r5, lsr #8
    9a70:	6165726c 	cmnvs	r5, ip, ror #4
    9a74:	63207964 			; <UNDEFINED> instruction: 0x63207964
    9a78:	656c6c61 	strbvs	r6, [ip, #-3169]!	; 0xfffff39f
    9a7c:	6d6b2064 	stclvs	0, cr2, [fp, #-400]!	; 0xfffffe70
    9a80:	6f6c6c61 	svcvs	0x006c6c61
    9a84:	6e695f63 	cdpvs	15, 6, cr5, cr9, cr3, {3}
    9a88:	0a0a7469 	beq	2a6c34 <__bss_end__+0x29cc14>
    9a8c:	00000000 	andeq	r0, r0, r0
    9a90:	494e4150 	stmdbmi	lr, {r4, r6, r8, lr}^
    9a94:	73253a43 			; <UNDEFINED> instruction: 0x73253a43
    9a98:	3a73253a 	bcc	1cd2f88 <__bss_end__+0x1cc8f68>
    9a9c:	253a6425 	ldrcs	r6, [sl, #-1061]!	; 0xfffffbdb
    9aa0:	626e2064 	rsbvs	r2, lr, #100, 0	; 0x64
    9aa4:	73657479 	cmnvc	r5, #2030043136	; 0x79000000
    9aa8:	63786520 	cmnvs	r8, #32, 10	; 0x8000000
    9aac:	65646565 	strbvs	r6, [r4, #-1381]!	; 0xfffffa9b
    9ab0:	69732064 	ldmdbvs	r3!, {r2, r5, r6, sp}^
    9ab4:	6f20657a 	svcvs	0x0020657a
    9ab8:	65682066 	strbvs	r2, [r8, #-102]!	; 0xffffff9a
    9abc:	62207061 	eorvs	r7, r0, #97, 0	; 0x61
    9ac0:	75252079 	strvc	r2, [r5, #-121]!	; 0xffffff87
    9ac4:	79626e20 	stmdbvc	r2!, {r5, r9, sl, fp, sp, lr}^
    9ac8:	0a736574 	beq	1ce30a0 <__bss_end__+0x1cd9080>
    9acc:	0000000a 	andeq	r0, r0, sl
    9ad0:	4f525245 	svcmi	0x00525245
    9ad4:	73253a52 			; <UNDEFINED> instruction: 0x73253a52
    9ad8:	3a73253a 	bcc	1cd2fc8 <__bss_end__+0x1cc8fa8>
    9adc:	203a6425 	eorscs	r6, sl, r5, lsr #8
    9ae0:	534c4146 	movtpl	r4, #49478	; 0xc146
    9ae4:	253c2845 	ldrcs	r2, [ip, #-2117]!	; 0xfffff7bb
    9ae8:	3a293e73 	bcc	a594bc <__bss_end__+0xa4f49c>
    9aec:	73736120 	cmnvc	r3, #8
    9af0:	6e696d75 	mcrvs	13, 3, r6, cr9, cr5, {3}
    9af4:	6f702067 	svcvs	0x00702067
    9af8:	20726577 	rsbscs	r6, r2, r7, ror r5
    9afc:	7420666f 	strtvc	r6, [r0], #-1647	; 0xfffff991
    9b00:	000a6f77 	andeq	r6, sl, r7, ror pc
    9b04:	705f7369 	subsvc	r7, pc, r9, ror #6
    9b08:	2832776f 	ldmdacs	r2!, {r0, r1, r2, r3, r5, r6, r8, r9, sl, ip, sp, lr}
    9b0c:	67696c61 	strbvs	r6, [r9, -r1, ror #24]!
    9b10:	6e656d6e 	cdpvs	13, 6, cr6, cr5, cr14, {3}
    9b14:	00002974 	andeq	r2, r0, r4, ror r9
    9b18:	705f7369 	subsvc	r7, pc, r9, ror #6
    9b1c:	2832776f 	ldmdacs	r2!, {r0, r1, r2, r3, r5, r6, r8, r9, sl, ip, sp, lr}
    9b20:	0000296e 	andeq	r2, r0, lr, ror #18
    9b24:	4f525245 	svcmi	0x00525245
    9b28:	73253a52 			; <UNDEFINED> instruction: 0x73253a52
    9b2c:	3a73253a 	bcc	1cd301c <__bss_end__+0x1cc8ffc>
    9b30:	203a6425 	eorscs	r6, sl, r5, lsr #8
    9b34:	534c4146 	movtpl	r4, #49478	; 0xc146
    9b38:	253c2845 	ldrcs	r2, [ip, #-2117]!	; 0xfffff7bb
    9b3c:	3a293e73 	bcc	a59510 <__bss_end__+0xa4f4f0>
    9b40:	706d6920 	rsbvc	r6, sp, r0, lsr #18
    9b44:	6973736f 	ldmdbvs	r3!, {r0, r1, r2, r3, r5, r6, r8, r9, ip, sp, lr}^
    9b48:	0a656c62 	beq	1964cd8 <__bss_end__+0x195acb8>
    9b4c:	00000000 	andeq	r0, r0, r0
    9b50:	615f7369 	cmpvs	pc, r9, ror #6
    9b54:	6e67696c 	vnmulvs.f16	s13, s14, s25	; <UNPREDICTABLE>
    9b58:	68286465 	stmdavs	r8!, {r0, r2, r5, r6, sl, sp, lr}
    9b5c:	6c61202c 	stclvs	0, cr2, [r1], #-176	; 0xffffff50
    9b60:	6d6e6769 	stclvs	7, cr6, [lr, #-420]!	; 0xfffffe5c
    9b64:	29746e65 	ldmdbcs	r4!, {r0, r2, r5, r6, r9, sl, fp, sp, lr}^
    9b68:	00000000 	andeq	r0, r0, r0
    9b6c:	494e4150 	stmdbmi	lr, {r4, r6, r8, lr}^
    9b70:	73253a43 			; <UNDEFINED> instruction: 0x73253a43
    9b74:	3a73253a 	bcc	1cd3064 <__bss_end__+0x1cc9044>
    9b78:	703a6425 	eorsvc	r6, sl, r5, lsr #8
    9b7c:	746e696f 	strbtvc	r6, [lr], #-2415	; 0xfffff691
    9b80:	25207265 	strcs	r7, [r0, #-613]!	; 0xfffffd9b
    9b84:	61772070 	cmnvs	r7, r0, ror r0
    9b88:	656e2073 	strbvs	r2, [lr, #-115]!	; 0xffffff8d
    9b8c:	20726576 	rsbscs	r6, r2, r6, ror r5
    9b90:	6f6c6c61 	svcvs	0x006c6c61
    9b94:	65746163 	ldrbvs	r6, [r4, #-355]!	; 0xfffffe9d
    9b98:	000a0a64 	andeq	r0, sl, r4, ror #20

00009b9c <__FUNCTION__.7>:
    9b9c:	6c616d6b 	stclvs	13, cr6, [r1], #-428	; 0xfffffe54
    9ba0:	5f636f6c 	svcpl	0x00636f6c
    9ba4:	74696e69 	strbtvc	r6, [r9], #-3689	; 0xfffff197
    9ba8:	7465735f 	strbtvc	r7, [r5], #-863	; 0xfffffca1
    9bac:	6174735f 	cmnvs	r4, pc, asr r3
    9bb0:	00007472 	andeq	r7, r0, r2, ror r4

00009bb4 <__FUNCTION__.5>:
    9bb4:	6c616d6b 	stclvs	13, cr6, [r1], #-428	; 0xfffffe54
    9bb8:	5f636f6c 	svcpl	0x00636f6c
    9bbc:	74696e69 	strbtvc	r6, [r9], #-3689	; 0xfffff197
    9bc0:	00000000 	andeq	r0, r0, r0

00009bc4 <__FUNCTION__.4>:
    9bc4:	6c616d6b 	stclvs	13, cr6, [r1], #-428	; 0xfffffe54
    9bc8:	5f636f6c 	svcpl	0x00636f6c
    9bcc:	7a746f6e 	bvc	1d2598c <__bss_end__+0x1d1b96c>
    9bd0:	006f7265 	rsbeq	r7, pc, r5, ror #4

00009bd4 <__FUNCTION__.2>:
    9bd4:	6c616d6b 	stclvs	13, cr6, [r1], #-428	; 0xfffffe54
    9bd8:	00636f6c 	rsbeq	r6, r3, ip, ror #30

00009bdc <__FUNCTION__.1>:
    9bdc:	6c616d6b 	stclvs	13, cr6, [r1], #-428	; 0xfffffe54
    9be0:	5f636f6c 	svcpl	0x00636f6c
    9be4:	67696c61 	strbvs	r6, [r9, -r1, ror #24]!
    9be8:	0064656e 	rsbeq	r6, r4, lr, ror #10

00009bec <__FUNCTION__.3>:
    9bec:	6e756f72 	mrcvs	15, 3, r6, cr5, cr2, {3}
    9bf0:	00707564 	rsbseq	r7, r0, r4, ror #10

00009bf4 <__FUNCTION__.0>:
    9bf4:	6572666b 	ldrbvs	r6, [r2, #-1643]!	; 0xfffff995
    9bf8:	6f705f65 	svcvs	0x00705f65
    9bfc:	Address 0x0000000000009bfc is out of bounds.


Disassembly of section .data:

00009c00 <rpi_putchar>:
    9c00:	00008630 	andeq	r8, r0, r0, lsr r6

00009c04 <putk>:
    9c04:	0000866c 	andeq	r8, r0, ip, ror #12

00009c08 <heap>:
    9c08:	0000a020 	andeq	sl, r0, r0, lsr #32

00009c0c <heap_start>:
    9c0c:	0000a020 	andeq	sl, r0, r0, lsr #32

00009c10 <heap_end>:
    9c10:	0020a020 	eoreq	sl, r0, r0, lsr #32

Disassembly of section .bss:

00009c14 <__bss_start__>:
    9c14:	00000000 	andeq	r0, r0, r0

00009c18 <buf.3940>:
	...

0000a018 <init_p.6>:
	...

Disassembly of section .ARM.attributes:

00000000 <.ARM.attributes>:
   0:	00002a41 	andeq	r2, r0, r1, asr #20
   4:	61656100 	cmnvs	r5, r0, lsl #2
   8:	01006962 	tsteq	r0, r2, ror #18
   c:	00000020 	andeq	r0, r0, r0, lsr #32
  10:	4b5a3605 	blmi	168d82c <__bss_end__+0x168380c>
  14:	08070600 	stmdaeq	r7, {r9, sl}
  18:	12010901 	andne	r0, r1, #16384	; 0x4000
  1c:	15011404 	strne	r1, [r1, #-1028]	; 0xfffffbfc
  20:	18031701 	stmdane	r3, {r0, r8, r9, sl, ip}
  24:	22011a01 	andcs	r1, r1, #4096	; 0x1000
  28:	Address 0x0000000000000028 is out of bounds.


Disassembly of section .comment:

00000000 <.comment>:
   0:	3a434347 	bcc	10d0d24 <__bss_end__+0x10c6d04>
   4:	4e472820 	cdpmi	8, 4, cr2, cr7, cr0, {1}
   8:	6f542055 	svcvs	0x00542055
   c:	20736c6f 	rsbscs	r6, r3, pc, ror #24
  10:	20726f66 	rsbscs	r6, r2, r6, ror #30
  14:	206d7241 	rsbcs	r7, sp, r1, asr #4
  18:	65626d45 	strbvs	r6, [r2, #-3397]!	; 0xfffff2bb
  1c:	64656464 	strbtvs	r6, [r5], #-1124	; 0xfffffb9c
  20:	6f725020 	svcvs	0x00725020
  24:	73736563 	cmnvc	r3, #415236096	; 0x18c00000
  28:	2073726f 	rsbscs	r7, r3, pc, ror #4
  2c:	30322d39 	eorscc	r2, r2, r9, lsr sp
  30:	712d3931 			; <UNDEFINED> instruction: 0x712d3931
  34:	616d2d34 	cmnvs	sp, r4, lsr sp
  38:	29726f6a 	ldmdbcs	r2!, {r1, r3, r5, r6, r8, r9, sl, fp, sp, lr}^
  3c:	322e3920 	eorcc	r3, lr, #32, 18	; 0x80000
  40:	3220312e 	eorcc	r3, r0, #-2147483637	; 0x8000000b
  44:	31393130 	teqcc	r9, r0, lsr r1
  48:	20353230 	eorscs	r3, r5, r0, lsr r2
  4c:	6c657228 	sfmvs	f7, 2, [r5], #-160	; 0xffffff60
  50:	65736165 	ldrbvs	r6, [r3, #-357]!	; 0xfffffe9b
  54:	415b2029 	cmpmi	fp, r9, lsr #32
  58:	612f4d52 			; <UNDEFINED> instruction: 0x612f4d52
  5c:	392d6d72 	pushcc	{r1, r4, r5, r6, r8, sl, fp, sp, lr}
  60:	6172622d 	cmnvs	r2, sp, lsr #4
  64:	2068636e 	rsbcs	r6, r8, lr, ror #6
  68:	69766572 	ldmdbvs	r6!, {r1, r4, r5, r6, r8, sl, sp, lr}^
  6c:	6e6f6973 			; <UNDEFINED> instruction: 0x6e6f6973
  70:	37373220 	ldrcc	r3, [r7, -r0, lsr #4]!
  74:	5d393935 			; <UNDEFINED> instruction: 0x5d393935
  78:	43434700 	movtmi	r4, #14080	; 0x3700
  7c:	4728203a 			; <UNDEFINED> instruction: 0x4728203a
  80:	4120554e 			; <UNDEFINED> instruction: 0x4120554e
  84:	45206d72 	strmi	r6, [r0, #-3442]!	; 0xfffff28e
  88:	6465626d 	strbtvs	r6, [r5], #-621	; 0xfffffd93
  8c:	20646564 	rsbcs	r6, r4, r4, ror #10
  90:	6c6f6f54 	stclvs	15, cr6, [pc], #-336	; ffffff48 <__bss_end__+0xffff5f28>
  94:	69616863 	stmdbvs	r1!, {r0, r1, r5, r6, fp, sp, lr}^
  98:	3031206e 	eorscc	r2, r1, lr, rrx
  9c:	322d332e 	eorcc	r3, sp, #-1207959552	; 0xb8000000
  a0:	2e313230 	mrccs	2, 1, r3, cr1, cr0, {1}
  a4:	20293031 	eorcs	r3, r9, r1, lsr r0
  a8:	332e3031 			; <UNDEFINED> instruction: 0x332e3031
  ac:	3220312e 	eorcc	r3, r0, #-2147483637	; 0x8000000b
  b0:	30313230 	eorscc	r3, r1, r0, lsr r2
  b4:	20343238 	eorscs	r3, r4, r8, lsr r2
  b8:	6c657228 	sfmvs	f7, 2, [r5], #-160	; 0xffffff60
  bc:	65736165 	ldrbvs	r6, [r3, #-357]!	; 0xfffffe9b
  c0:	Address 0x00000000000000c0 is out of bounds.


Disassembly of section .debug_info:

00000000 <.debug_info>:
       0:	00000ea6 	andeq	r0, r0, r6, lsr #29
       4:	00000004 	andeq	r0, r0, r4
       8:	01040000 	mrseq	r0, (UNDEF: 4)
       c:	00000291 	muleq	r0, r1, r2
      10:	00007d0c 	andeq	r7, r0, ip, lsl #26
      14:	00023700 	andeq	r3, r2, r0, lsl #14
      18:	00803800 	addeq	r3, r0, r0, lsl #16
      1c:	0005a000 	andeq	sl, r5, r0
      20:	00000000 	andeq	r0, r0, r0
      24:	05040200 	streq	r0, [r4, #-512]	; 0xfffffe00
      28:	00746e69 	rsbseq	r6, r4, r9, ror #28
      2c:	b2070403 	andlt	r0, r7, #50331648	; 0x3000000
      30:	04000001 	streq	r0, [r0], #-1
      34:	0000002c 	andeq	r0, r0, ip, lsr #32
      38:	65060103 	strvs	r0, [r6, #-259]	; 0xfffffefd
      3c:	03000001 	movweq	r0, #1
      40:	002a0502 	eoreq	r0, sl, r2, lsl #10
      44:	c7050000 	strgt	r0, [r5, -r0]
      48:	03000001 	movweq	r0, #1
      4c:	00521828 	subseq	r1, r2, r8, lsr #16
      50:	04030000 	streq	r0, [r3], #-0
      54:	0000e405 	andeq	lr, r0, r5, lsl #8
      58:	05080300 	streq	r0, [r8, #-768]	; 0xfffffd00
      5c:	000000df 	ldrdeq	r0, [r0], -pc	; <UNPREDICTABLE>
      60:	63080103 	movwvs	r0, #33027	; 0x8103
      64:	03000001 	movweq	r0, #1
      68:	01f80702 	mvnseq	r0, r2, lsl #14
      6c:	c6050000 	strgt	r0, [r5], -r0
      70:	03000001 	movweq	r0, #1
      74:	007a1934 	rsbseq	r1, sl, r4, lsr r9
      78:	04030000 	streq	r0, [r3], #-0
      7c:	0001ad07 	andeq	sl, r1, r7, lsl #26
      80:	07080300 	streq	r0, [r8, -r0, lsl #6]
      84:	000001a8 	andeq	r0, r0, r8, lsr #3
      88:	00002506 	andeq	r2, r0, r6, lsl #10
      8c:	00009700 	andeq	r9, r0, r0, lsl #14
      90:	00250700 	eoreq	r0, r5, r0, lsl #14
      94:	08000000 	stmdaeq	r0, {}	; <UNPREDICTABLE>
      98:	00000068 	andeq	r0, r0, r8, rrx
      9c:	a30e1c04 	movwge	r1, #60420	; 0xec04
      a0:	09000000 	stmdbeq	r0, {}	; <UNPREDICTABLE>
      a4:	00008804 	andeq	r8, r0, r4, lsl #16
      a8:	00250600 	eoreq	r0, r5, r0, lsl #12
      ac:	00b80000 	adcseq	r0, r8, r0
      b0:	b8070000 	stmdalt	r7, {}	; <UNPREDICTABLE>
      b4:	00000000 	andeq	r0, r0, r0
      b8:	00c50409 	sbceq	r0, r5, r9, lsl #8
      bc:	01030000 	mrseq	r0, (UNDEF: 3)
      c0:	00016c08 	andeq	r6, r1, r8, lsl #24
      c4:	00be0a00 	adcseq	r0, lr, r0, lsl #20
      c8:	c0080000 	andgt	r0, r8, r0
      cc:	04000004 	streq	r0, [r0], #-4
      d0:	00d60e21 	sbcseq	r0, r6, r1, lsr #28
      d4:	04090000 	streq	r0, [r9], #-0
      d8:	000000a9 	andeq	r0, r0, r9, lsr #1
      dc:	0003b305 	andeq	fp, r3, r5, lsl #6
      e0:	1b280500 	blne	a014e8 <__bss_end__+0x9f74c8>
      e4:	000000e8 	andeq	r0, r0, r8, ror #1
      e8:	0000ed0b 	andeq	lr, r0, fp, lsl #26
      ec:	00060400 	andeq	r0, r6, r0, lsl #8
      f0:	000000ff 	strdeq	r0, [r0], -pc	; <UNPREDICTABLE>
      f4:	0002240c 	andeq	r2, r2, ip, lsl #8
      f8:	0000ff00 	andeq	pc, r0, r0, lsl #30
      fc:	0d000000 	stceq	0, cr0, [r0, #-0]
     100:	00ef0504 	rsceq	r0, pc, r4, lsl #10
     104:	63050000 	movwvs	r0, #20480	; 0x5000
     108:	0000dc18 	andeq	sp, r0, r8, lsl ip
     10c:	01070e00 	tsteq	r7, r0, lsl #28
     110:	00000060 	andeq	r0, r0, r0, rrx
     114:	8e060702 	cdphi	7, 0, cr0, cr6, cr2, {0}
     118:	0f000001 	svceq	0x00000001
     11c:	0000017e 	andeq	r0, r0, lr, ror r1
     120:	01850f00 	orreq	r0, r5, r0, lsl #30
     124:	0f010000 	svceq	0x00010000
     128:	0000018c 	andeq	r0, r0, ip, lsl #3
     12c:	01930f02 	orrseq	r0, r3, r2, lsl #30
     130:	0f030000 	svceq	0x00030000
     134:	0000019a 	muleq	r0, sl, r1
     138:	028a0f04 	addeq	r0, sl, #4, 30
     13c:	0f050000 	svceq	0x00050000
     140:	000001a1 	andeq	r0, r0, r1, lsr #3
     144:	03460f06 	movteq	r0, #28422	; 0x6f06
     148:	0f070000 	svceq	0x00070000
     14c:	000001bf 			; <UNDEFINED> instruction: 0x000001bf
     150:	02290f08 	eoreq	r0, r9, #8, 30
     154:	0f090000 	svceq	0x00090000
     158:	0000036e 	andeq	r0, r0, lr, ror #6
     15c:	03760f0a 	cmneq	r6, #10, 30	; 0x28
     160:	0f0b0000 	svceq	0x000b0000
     164:	0000037e 	andeq	r0, r0, lr, ror r3
     168:	03860f0c 	orreq	r0, r6, #12, 30	; 0x30
     16c:	0f0d0000 	svceq	0x000d0000
     170:	0000038e 	andeq	r0, r0, lr, lsl #7
     174:	03960f0e 	orrseq	r0, r6, #14, 30	; 0x38
     178:	0f0f0000 	svceq	0x000f0000
     17c:	0000000b 	andeq	r0, r0, fp
     180:	008b0f0d 	addeq	r0, fp, sp, lsl #30
     184:	0f0e0000 	svceq	0x000e0000
     188:	00000099 	muleq	r0, r9, r0
     18c:	070e000f 	streq	r0, [lr, -pc]
     190:	00006001 	andeq	r6, r0, r1
     194:	06200200 	strteq	r0, [r0], -r0, lsl #4
     198:	000001f7 	strdeq	r0, [r0], -r7
     19c:	0002120f 	andeq	r1, r2, pc, lsl #4
     1a0:	310f0000 	mrscc	r0, CPSR
     1a4:	01000004 	tsteq	r0, r4
     1a8:	0002300f 	andeq	r3, r2, pc
     1ac:	120f0200 	andne	r0, pc, #0, 4
     1b0:	03000000 	movweq	r0, #0
     1b4:	00034d0f 	andeq	r4, r3, pc, lsl #26
     1b8:	cf0f0400 	svcgt	0x000f0400
     1bc:	05000001 	streq	r0, [r0, #-1]
     1c0:	0000920f 	andeq	r9, r0, pc, lsl #4
     1c4:	340f0600 	strcc	r0, [pc], #-1536	; 1cc <__code_start__-0x7e34>
     1c8:	07000000 	streq	r0, [r0, -r0]
     1cc:	00010b0f 	andeq	r0, r1, pc, lsl #22
     1d0:	770f0800 	strvc	r0, [pc, -r0, lsl #16]
     1d4:	09000001 	stmdbeq	r0, {r0}
     1d8:	00003b0f 	andeq	r3, r0, pc, lsl #22
     1dc:	5c0f0a00 			; <UNDEFINED> instruction: 0x5c0f0a00
     1e0:	0b000001 	bleq	1ec <__code_start__-0x7e14>
     1e4:	0001470f 	andeq	r4, r1, pc, lsl #14
     1e8:	ff0f0c00 			; <UNDEFINED> instruction: 0xff0f0c00
     1ec:	0d000000 	stceq	0, cr0, [r0, #-0]
     1f0:	0001550f 	andeq	r5, r1, pc, lsl #10
     1f4:	0e000e00 	cdpeq	14, 0, cr0, cr0, cr0, {0}
     1f8:	00600107 	rsbeq	r0, r0, r7, lsl #2
     1fc:	34020000 	strcc	r0, [r2], #-0
     200:	00026606 	andeq	r6, r2, r6, lsl #12
     204:	011f0f00 	tsteq	pc, r0, lsl #30
     208:	0f000000 	svceq	0x00000000
     20c:	0000005d 	andeq	r0, r0, sp, asr r0
     210:	00c90f01 	sbceq	r0, r9, r1, lsl #30
     214:	0f020000 	svceq	0x00020000
     218:	000000d4 	ldrdeq	r0, [r0], -r4
     21c:	00ad0f03 	adceq	r0, sp, r3, lsl #30
     220:	0f040000 	svceq	0x00040000
     224:	00000404 	andeq	r0, r0, r4, lsl #8
     228:	00420f05 	subeq	r0, r2, r5, lsl #30
     22c:	0f060000 	svceq	0x00060000
     230:	000001db 	ldrdeq	r0, [r0], -fp
     234:	04260f07 	strteq	r0, [r6], #-3847	; 0xfffff0f9
     238:	0f080000 	svceq	0x00080000
     23c:	000000be 	strheq	r0, [r0], -lr
     240:	04150f09 	ldreq	r0, [r5], #-3849	; 0xfffff0f7
     244:	0f0a0000 	svceq	0x000a0000
     248:	00000136 	andeq	r0, r0, r6, lsr r1
     24c:	004d0f0b 	subeq	r0, sp, fp, lsl #30
     250:	0f0c0000 	svceq	0x000c0000
     254:	00000219 	andeq	r0, r0, r9, lsl r2
     258:	027f0f0d 	rsbseq	r0, pc, #13, 30	; 0x34
     25c:	0f0e0000 	svceq	0x000e0000
     260:	00000000 	andeq	r0, r0, r0
     264:	2a05000f 	bcs	1402a8 <__bss_end__+0x136288>
     268:	01000001 	tsteq	r0, r1
     26c:	02721008 	rsbseq	r1, r2, #8, 0
     270:	04090000 	streq	r0, [r9], #-0
     274:	00000278 	andeq	r0, r0, r8, ror r2
     278:	6e631110 	mcrvs	1, 3, r1, cr3, cr0, {0}
     27c:	0b010074 	bleq	40454 <__bss_end__+0x36434>
     280:	0000331a 	andeq	r3, r0, sl, lsl r3
     284:	14030500 	strne	r0, [r3], #-1280	; 0xfffffb00
     288:	1200009c 	andne	r0, r0, #156, 0	; 0x9c
     28c:	000001f0 	strdeq	r0, [r0], -r0	; <UNPREDICTABLE>
     290:	18064c01 	stmdane	r6, {r0, sl, fp, lr}
     294:	c0000083 	andgt	r0, r0, r3, lsl #1
     298:	01000002 	tsteq	r0, r2
     29c:	00088b9c 	muleq	r8, ip, fp
     2a0:	01e61300 	mvneq	r1, r0, lsl #6
     2a4:	4d010000 	stcmi	0, cr0, [r1, #-0]
     2a8:	00088b0c 	andeq	r8, r8, ip, lsl #22
     2ac:	50910200 	addspl	r0, r1, r0, lsl #4
     2b0:	01006e14 	tsteq	r0, r4, lsl lr
     2b4:	002c0e5a 	eoreq	r0, ip, sl, asr lr
     2b8:	15080000 	strne	r0, [r8, #-0]
     2bc:	00000112 	andeq	r0, r0, r2, lsl r1
     2c0:	000008ab 	andeq	r0, r0, fp, lsr #17
     2c4:	98880305 	stmls	r8, {r0, r2, r8, r9}
     2c8:	d6160000 	ldrle	r0, [r6], -r0
     2cc:	01000001 	tsteq	r0, r1
     2d0:	00ff0b7c 	rscseq	r0, pc, ip, ror fp	; <UNPREDICTABLE>
     2d4:	00040000 	andeq	r0, r4, r0
     2d8:	00000000 	andeq	r0, r0, r0
     2dc:	66170000 	ldrvs	r0, [r7], -r0
     2e0:	7d010070 	stcvc	0, cr0, [r1, #-448]	; 0xfffffe40
     2e4:	0002720c 	andeq	r7, r2, ip, lsl #4
     2e8:	00002600 	andeq	r2, r0, r0, lsl #12
     2ec:	00002200 	andeq	r2, r0, r0, lsl #4
     2f0:	035a1600 	cmpeq	sl, #0, 12
     2f4:	82010000 	andhi	r0, r1, #0, 0
     2f8:	0002660c 	andeq	r6, r2, ip, lsl #12
     2fc:	00004600 	andeq	r4, r0, r0, lsl #12
     300:	00004400 	andeq	r4, r0, r0, lsl #8
     304:	01eb1600 	mvneq	r1, r0, lsl #12
     308:	85010000 	strhi	r0, [r1, #-0]
     30c:	0002660c 	andeq	r6, r2, ip, lsl #12
     310:	00005b00 	andeq	r5, r0, r0, lsl #22
     314:	00005900 	andeq	r5, r0, r0, lsl #18
     318:	83381800 	teqhi	r8, #0, 16
     31c:	00080000 	andeq	r0, r8, r0
     320:	03330000 	teqeq	r3, #0, 0
     324:	69140000 	ldmdbvs	r4, {}	; <UNPREDICTABLE>
     328:	5801006e 	stmdapl	r1, {r1, r2, r3, r5, r6}
     32c:	00002c05 	andeq	r2, r0, r5, lsl #24
     330:	18000100 	stmdane	r0, {r8}
     334:	0000834c 	andeq	r8, r0, ip, asr #6
     338:	00000094 	muleq	r0, r4, r0
     33c:	000004e7 	andeq	r0, r0, r7, ror #9
     340:	00745f17 	rsbseq	r5, r4, r7, lsl pc
     344:	2c056301 	stccs	3, cr6, [r5], {1}
     348:	72000000 	andvc	r0, r0, #0, 0
     34c:	6e000000 	cdpvs	0, 0, cr0, cr0, cr0, {0}
     350:	18000000 	stmdane	r0, {}	; <UNPREDICTABLE>
     354:	0000834c 	andeq	r8, r0, ip, asr #6
     358:	00000080 	andeq	r0, r0, r0, lsl #1
     35c:	000004c1 	andeq	r0, r0, r1, asr #9
     360:	00735f17 	rsbseq	r5, r3, r7, lsl pc
     364:	2c056301 	stccs	3, cr6, [r5], {1}
     368:	97000000 	strls	r0, [r0, -r0]
     36c:	95000000 	strls	r0, [r0, #-0]
     370:	17000000 	strne	r0, [r0, -r0]
     374:	0100655f 	tsteq	r0, pc, asr r5
     378:	002c0563 	eoreq	r0, ip, r3, ror #10
     37c:	00ac0000 	adceq	r0, ip, r0
     380:	00aa0000 	adceq	r0, sl, r0
     384:	4c180000 	ldcmi	0, cr0, [r8], {-0}
     388:	04000083 	streq	r0, [r0], #-131	; 0xffffff7d
     38c:	a8000000 	stmdage	r0, {}	; <UNPREDICTABLE>
     390:	16000003 	strne	r0, [r0], -r3
     394:	00000058 	andeq	r0, r0, r8, asr r0
     398:	2c056301 	stccs	3, cr6, [r5], {1}
     39c:	c1000000 	mrsgt	r0, (UNDEF: 0)
     3a0:	bf000000 	svclt	0x00000000
     3a4:	00000000 	andeq	r0, r0, r0
     3a8:	0083c818 	addeq	ip, r3, r8, lsl r8
     3ac:	00000400 	andeq	r0, r0, r0, lsl #8
     3b0:	0003ca00 	andeq	ip, r3, r0, lsl #20
     3b4:	00581600 	subseq	r1, r8, r0, lsl #12
     3b8:	63010000 	movwvs	r0, #4096	; 0x1000
     3bc:	00002c05 	andeq	r2, r0, r5, lsl #24
     3c0:	0000d600 	andeq	sp, r0, r0, lsl #12
     3c4:	0000d400 	andeq	sp, r0, r0, lsl #8
     3c8:	5c190000 	ldcpl	0, cr0, [r9], {-0}
     3cc:	3f000083 	svccc	0x00000083
     3d0:	e300000c 	movw	r0, #12
     3d4:	1a000003 	bne	3e8 <__code_start__-0x7c18>
     3d8:	91025001 	tstls	r2, r1
     3dc:	51011a48 	tstpl	r1, r8, asr #20
     3e0:	19003801 	stmdbne	r0, {r0, fp, ip, sp}
     3e4:	00008368 	andeq	r8, r0, r8, ror #6
     3e8:	00000c3f 	andeq	r0, r0, pc, lsr ip
     3ec:	000003fc 	strdeq	r0, [r0], -ip
     3f0:	0250011a 	subseq	r0, r0, #-2147483642	; 0x80000006
     3f4:	011a4891 			; <UNDEFINED> instruction: 0x011a4891
     3f8:	00380151 	eorseq	r0, r8, r1, asr r1
     3fc:	00837419 	addeq	r7, r3, r9, lsl r4
     400:	000c3f00 	andeq	r3, ip, r0, lsl #30
     404:	00041500 	andeq	r1, r4, r0, lsl #10
     408:	50011a00 	andpl	r1, r1, r0, lsl #20
     40c:	1a489102 	bne	122481c <__bss_end__+0x121a7fc>
     410:	38015101 	stmdacc	r1, {r0, r8, ip, lr}
     414:	83801900 	orrhi	r1, r0, #0, 18
     418:	0c3f0000 	ldceq	0, cr0, [pc], #-0	; 420 <__code_start__-0x7be0>
     41c:	042e0000 	strteq	r0, [lr], #-0
     420:	011a0000 	tsteq	sl, r0
     424:	48910250 	ldmmi	r1, {r4, r6, r9}
     428:	0151011a 	cmpeq	r1, sl, lsl r1
     42c:	8c190038 	ldchi	0, cr0, [r9], {56}	; 0x38
     430:	3f000083 	svccc	0x00000083
     434:	4700000c 	strmi	r0, [r0, -ip]
     438:	1a000004 	bne	450 <__code_start__-0x7bb0>
     43c:	91025001 	tstls	r2, r1
     440:	51011a48 	tstpl	r1, r8, asr #20
     444:	19003801 	stmdbne	r0, {r0, fp, ip, sp}
     448:	00008398 	muleq	r0, r8, r3
     44c:	00000c3f 	andeq	r0, r0, pc, lsr ip
     450:	00000460 	andeq	r0, r0, r0, ror #8
     454:	0250011a 	subseq	r0, r0, #-2147483642	; 0x80000006
     458:	011a4891 			; <UNDEFINED> instruction: 0x011a4891
     45c:	00380151 	eorseq	r0, r8, r1, asr r1
     460:	0083a419 	addeq	sl, r3, r9, lsl r4
     464:	000c3f00 	andeq	r3, ip, r0, lsl #30
     468:	00047900 	andeq	r7, r4, r0, lsl #18
     46c:	50011a00 	andpl	r1, r1, r0, lsl #20
     470:	1a489102 	bne	1224880 <__bss_end__+0x121a860>
     474:	38015101 	stmdacc	r1, {r0, r8, ip, lr}
     478:	83b01900 	movshi	r1, #0, 18
     47c:	0c3f0000 	ldceq	0, cr0, [pc], #-0	; 484 <__code_start__-0x7b7c>
     480:	04920000 	ldreq	r0, [r2], #0
     484:	011a0000 	tsteq	sl, r0
     488:	48910250 	ldmmi	r1, {r4, r6, r9}
     48c:	0151011a 	cmpeq	r1, sl, lsl r1
     490:	bc190038 	ldclt	0, cr0, [r9], {56}	; 0x38
     494:	3f000083 	svccc	0x00000083
     498:	ab00000c 	blge	4d0 <__code_start__-0x7b30>
     49c:	1a000004 	bne	4b4 <__code_start__-0x7b4c>
     4a0:	91025001 	tstls	r2, r1
     4a4:	51011a48 	tstpl	r1, r8, asr #20
     4a8:	1b003801 	blne	e4b4 <__bss_end__+0x4494>
     4ac:	000083c8 	andeq	r8, r0, r8, asr #7
     4b0:	00000c3f 	andeq	r0, r0, pc, lsr ip
     4b4:	0250011a 	subseq	r0, r0, #-2147483642	; 0x80000006
     4b8:	011a4891 			; <UNDEFINED> instruction: 0x011a4891
     4bc:	00380151 	eorseq	r0, r8, r1, asr r1
     4c0:	83e01b00 	mvnhi	r1, #0, 22
     4c4:	0e790000 	cdpeq	0, 7, cr0, cr9, cr0, {0}
     4c8:	011a0000 	tsteq	sl, r0
     4cc:	84030550 	strhi	r0, [r3], #-1360	; 0xfffffab0
     4d0:	1a000097 	bne	734 <__code_start__-0x78cc>
     4d4:	03055101 	movweq	r5, #20737	; 0x5101
     4d8:	00009768 	andeq	r9, r0, r8, ror #14
     4dc:	0553011a 	ldrbeq	r0, [r3, #-282]	; 0xfffffee6
     4e0:	00974c03 	addseq	r4, r7, r3, lsl #24
     4e4:	18000000 	stmdane	r0, {}	; <UNPREDICTABLE>
     4e8:	0000842c 	andeq	r8, r0, ip, lsr #8
     4ec:	00000044 	andeq	r0, r0, r4, asr #32
     4f0:	000005ff 	strdeq	r0, [r0], -pc	; <UNPREDICTABLE>
     4f4:	00745f17 	rsbseq	r5, r4, r7, lsl pc
     4f8:	2c057801 	stccs	8, cr7, [r5], {1}
     4fc:	ed000000 	stc	0, cr0, [r0, #-0]
     500:	e9000000 	stmdb	r0, {}	; <UNPREDICTABLE>
     504:	18000000 	stmdane	r0, {}	; <UNPREDICTABLE>
     508:	0000842c 	andeq	r8, r0, ip, lsr #8
     50c:	00000030 	andeq	r0, r0, r0, lsr r0
     510:	000005d9 	ldrdeq	r0, [r0], -r9
     514:	00735f17 	rsbseq	r5, r3, r7, lsl pc
     518:	2c057801 	stccs	8, cr7, [r5], {1}
     51c:	12000000 	andne	r0, r0, #0, 0
     520:	10000001 	andne	r0, r0, r1
     524:	17000001 	strne	r0, [r0, -r1]
     528:	0100655f 	tsteq	r0, pc, asr r5
     52c:	002c0578 	eoreq	r0, ip, r8, ror r5
     530:	01270000 			; <UNDEFINED> instruction: 0x01270000
     534:	01250000 			; <UNDEFINED> instruction: 0x01250000
     538:	2c180000 	ldccs	0, cr0, [r8], {-0}
     53c:	04000084 	streq	r0, [r0], #-132	; 0xffffff7c
     540:	5c000000 	stcpl	0, cr0, [r0], {-0}
     544:	16000005 	strne	r0, [r0], -r5
     548:	00000058 	andeq	r0, r0, r8, asr r0
     54c:	2c057801 	stccs	8, cr7, [r5], {1}
     550:	3c000000 	stccc	0, cr0, [r0], {-0}
     554:	3a000001 	bcc	560 <__code_start__-0x7aa0>
     558:	00000001 	andeq	r0, r0, r1
     55c:	00845818 	addeq	r5, r4, r8, lsl r8
     560:	00000400 	andeq	r0, r0, r0, lsl #8
     564:	00057e00 	andeq	r7, r5, r0, lsl #28
     568:	00581600 	subseq	r1, r8, r0, lsl #12
     56c:	78010000 	stmdavc	r1, {}	; <UNPREDICTABLE>
     570:	00002c05 	andeq	r2, r0, r5, lsl #24
     574:	00015100 	andeq	r5, r1, r0, lsl #2
     578:	00014f00 	andeq	r4, r1, r0, lsl #30
     57c:	341c0000 	ldrcc	r0, [ip], #-0
     580:	b0000084 	andlt	r0, r0, r4, lsl #1
     584:	1c000008 	stcne	0, cr0, [r0], {8}
     588:	00008438 	andeq	r8, r0, r8, lsr r4
     58c:	000008b0 			; <UNDEFINED> instruction: 0x000008b0
     590:	00843c1c 	addeq	r3, r4, ip, lsl ip
     594:	0008b000 	andeq	fp, r8, r0
     598:	84401c00 	strbhi	r1, [r0], #-3072	; 0xfffff400
     59c:	08b00000 	ldmeq	r0!, {}	; <UNPREDICTABLE>
     5a0:	441c0000 	ldrmi	r0, [ip], #-0
     5a4:	b0000084 	andlt	r0, r0, r4, lsl #1
     5a8:	1c000008 	stcne	0, cr0, [r0], {8}
     5ac:	00008448 	andeq	r8, r0, r8, asr #8
     5b0:	000008b0 			; <UNDEFINED> instruction: 0x000008b0
     5b4:	00844c1c 	addeq	r4, r4, ip, lsl ip
     5b8:	0008b000 	andeq	fp, r8, r0
     5bc:	84501c00 	ldrbhi	r1, [r0], #-3072	; 0xfffff400
     5c0:	08b00000 	ldmeq	r0!, {}	; <UNPREDICTABLE>
     5c4:	541c0000 	ldrpl	r0, [ip], #-0
     5c8:	b0000084 	andlt	r0, r0, r4, lsl #1
     5cc:	1c000008 	stcne	0, cr0, [r0], {8}
     5d0:	00008458 	andeq	r8, r0, r8, asr r4
     5d4:	000008b0 			; <UNDEFINED> instruction: 0x000008b0
     5d8:	84701b00 	ldrbthi	r1, [r0], #-2816	; 0xfffff500
     5dc:	0e790000 	cdpeq	0, 7, cr0, cr9, cr0, {0}
     5e0:	011a0000 	tsteq	sl, r0
     5e4:	84030550 	strhi	r0, [r3], #-1360	; 0xfffffab0
     5e8:	1a000097 	bne	84c <__code_start__-0x77b4>
     5ec:	03055101 	movweq	r5, #20737	; 0x5101
     5f0:	000097fc 	strdeq	r9, [r0], -ip
     5f4:	0553011a 	ldrbeq	r0, [r3, #-282]	; 0xfffffee6
     5f8:	0097e403 	addseq	lr, r7, r3, lsl #8
     5fc:	18000000 	stmdane	r0, {}	; <UNPREDICTABLE>
     600:	000084cc 	andeq	r8, r0, ip, asr #9
     604:	00000044 	andeq	r0, r0, r4, asr #32
     608:	0000070d 	andeq	r0, r0, sp, lsl #14
     60c:	00745f17 	rsbseq	r5, r4, r7, lsl pc
     610:	2c057f01 	stccs	15, cr7, [r5], {1}
     614:	68000000 	stmdavs	r0, {}	; <UNPREDICTABLE>
     618:	64000001 	strvs	r0, [r0], #-1
     61c:	18000001 	stmdane	r0, {r0}
     620:	000084cc 	andeq	r8, r0, ip, asr #9
     624:	00000030 	andeq	r0, r0, r0, lsr r0
     628:	000006e7 	andeq	r0, r0, r7, ror #13
     62c:	00735f17 	rsbseq	r5, r3, r7, lsl pc
     630:	2c057f01 	stccs	15, cr7, [r5], {1}
     634:	8d000000 	stchi	0, cr0, [r0, #-0]
     638:	8b000001 	blhi	644 <__code_start__-0x79bc>
     63c:	17000001 	strne	r0, [r0, -r1]
     640:	0100655f 	tsteq	r0, pc, asr r5
     644:	002c057f 	eoreq	r0, ip, pc, ror r5
     648:	01a20000 			; <UNDEFINED> instruction: 0x01a20000
     64c:	01a00000 	moveq	r0, r0
     650:	cc180000 	ldcgt	0, cr0, [r8], {-0}
     654:	04000084 	streq	r0, [r0], #-132	; 0xffffff7c
     658:	74000000 	strvc	r0, [r0], #-0
     65c:	16000006 	strne	r0, [r0], -r6
     660:	00000058 	andeq	r0, r0, r8, asr r0
     664:	2c057f01 	stccs	15, cr7, [r5], {1}
     668:	b7000000 	strlt	r0, [r0, -r0]
     66c:	b5000001 	strlt	r0, [r0, #-1]
     670:	00000001 	andeq	r0, r0, r1
     674:	0084f818 	addeq	pc, r4, r8, lsl r8	; <UNPREDICTABLE>
     678:	00000400 	andeq	r0, r0, r0, lsl #8
     67c:	00069600 	andeq	r9, r6, r0, lsl #12
     680:	00581600 	subseq	r1, r8, r0, lsl #12
     684:	7f010000 	svcvc	0x00010000
     688:	00002c05 	andeq	r2, r0, r5, lsl #24
     68c:	0001cc00 	andeq	ip, r1, r0, lsl #24
     690:	0001ca00 	andeq	ip, r1, r0, lsl #20
     694:	d41d0000 	ldrle	r0, [sp], #-0
     698:	02000084 	andeq	r0, r0, #132, 0	; 0x84
     69c:	d81d0074 	ldmdale	sp, {r2, r4, r5, r6}
     6a0:	02000084 	andeq	r0, r0, #132, 0	; 0x84
     6a4:	dc1d0074 	ldcle	0, cr0, [sp], {116}	; 0x74
     6a8:	02000084 	andeq	r0, r0, #132, 0	; 0x84
     6ac:	e01d0074 	ands	r0, sp, r4, ror r0
     6b0:	02000084 	andeq	r0, r0, #132, 0	; 0x84
     6b4:	e41d0074 	ldr	r0, [sp], #-116	; 0xffffff8c
     6b8:	02000084 	andeq	r0, r0, #132, 0	; 0x84
     6bc:	e81d0074 	ldmda	sp, {r2, r4, r5, r6}
     6c0:	02000084 	andeq	r0, r0, #132, 0	; 0x84
     6c4:	ec1d0074 	ldc	0, cr0, [sp], {116}	; 0x74
     6c8:	02000084 	andeq	r0, r0, #132, 0	; 0x84
     6cc:	f01d0074 			; <UNDEFINED> instruction: 0xf01d0074
     6d0:	02000084 	andeq	r0, r0, #132, 0	; 0x84
     6d4:	f41d0074 			; <UNDEFINED> instruction: 0xf41d0074
     6d8:	02000084 	andeq	r0, r0, #132, 0	; 0x84
     6dc:	f81d0074 			; <UNDEFINED> instruction: 0xf81d0074
     6e0:	02000084 	andeq	r0, r0, #132, 0	; 0x84
     6e4:	1b000074 	blne	8bc <__code_start__-0x7744>
     6e8:	00008510 	andeq	r8, r0, r0, lsl r5
     6ec:	00000e79 	andeq	r0, r0, r9, ror lr
     6f0:	0550011a 	ldrbeq	r0, [r0, #-282]	; 0xfffffee6
     6f4:	00978403 	addseq	r8, r7, r3, lsl #8
     6f8:	51011a00 	tstpl	r1, r0, lsl #20
     6fc:	98240305 	stmdals	r4!, {r0, r2, r8, r9}
     700:	011a0000 	tsteq	sl, r0
     704:	1c030553 	cfstr32ne	mvfx0, [r3], {83}	; 0x53
     708:	00000098 	muleq	r0, r8, r0
     70c:	83f01c00 	mvnshi	r1, #0, 24
     710:	0e850000 	cdpeq	0, 8, cr0, cr5, cr0, {0}
     714:	1c190000 	ldcne	0, cr0, [r9], {-0}
     718:	79000084 	stmdbvc	r0, {r2, r7}
     71c:	5600000e 	strpl	r0, [r0], -lr
     720:	1a000007 	bne	744 <__code_start__-0x78bc>
     724:	03055001 	movweq	r5, #20481	; 0x5001
     728:	000097a0 	andeq	r9, r0, r0, lsr #15
     72c:	0551011a 	ldrbeq	r0, [r1, #-282]	; 0xfffffee6
     730:	00970803 	addseq	r0, r7, r3, lsl #16
     734:	52011a00 	andpl	r1, r1, #0, 20
     738:	98880305 	stmls	r8, {r0, r2, r8, r9}
     73c:	011a0000 	tsteq	sl, r0
     740:	64080253 	strvs	r0, [r8], #-595	; 0xfffffdad
     744:	007d021a 	rsbseq	r0, sp, sl, lsl r2
     748:	97d80305 	ldrbls	r0, [r8, r5, lsl #6]
     74c:	021a0000 	andseq	r0, sl, #0, 0
     750:	0802087d 	stmdaeq	r2, {r0, r2, r3, r4, r5, r6, fp}
     754:	201c0050 	andscs	r0, ip, r0, asr r0
     758:	91000084 	smlabbls	r0, r4, r0, r0
     75c:	1c00000e 	stcne	0, cr0, [r0], {14}
     760:	00008480 	andeq	r8, r0, r0, lsl #9
     764:	00000e85 	andeq	r0, r0, r5, lsl #29
     768:	0084ac19 	addeq	sl, r4, r9, lsl ip
     76c:	000e7900 	andeq	r7, lr, r0, lsl #18
     770:	0007a800 	andeq	sl, r7, r0, lsl #16
     774:	50011a00 	andpl	r1, r1, r0, lsl #20
     778:	97a00305 	strls	r0, [r0, r5, lsl #6]!
     77c:	011a0000 	tsteq	sl, r0
     780:	08030551 	stmdaeq	r3, {r0, r4, r6, r8, sl}
     784:	1a000097 	bne	9e8 <__code_start__-0x7618>
     788:	03055201 	movweq	r5, #20993	; 0x5201
     78c:	00009888 	andeq	r9, r0, r8, lsl #17
     790:	0253011a 	subseq	r0, r3, #-2147483642	; 0x80000006
     794:	021a7908 	andseq	r7, sl, #8, 18	; 0x20000
     798:	0305007d 	movweq	r0, #20605	; 0x507d
     79c:	000097d8 	ldrdeq	r9, [r0], -r8
     7a0:	087d021a 	ldmdaeq	sp!, {r1, r3, r4, r9}^
     7a4:	00500802 	subseq	r0, r0, r2, lsl #16
     7a8:	0084b01c 	addeq	fp, r4, ip, lsl r0
     7ac:	000e9100 	andeq	r9, lr, r0, lsl #2
     7b0:	84c81900 	strbhi	r1, [r8], #2304	; 0x900
     7b4:	0ac90000 	beq	ff2407bc <__bss_end__+0xff23679c>
     7b8:	07ca0000 	strbeq	r0, [sl, r0]
     7bc:	011a0000 	tsteq	sl, r0
     7c0:	48910250 	ldmmi	r1, {r4, r6, r9}
     7c4:	0151011a 	cmpeq	r1, sl, lsl r1
     7c8:	201c0038 	andscs	r0, ip, r8, lsr r0
     7cc:	85000085 	strhi	r0, [r0, #-133]	; 0xffffff7b
     7d0:	1900000e 	stmdbne	r0, {r1, r2, r3}
     7d4:	0000854c 	andeq	r8, r0, ip, asr #10
     7d8:	00000e79 	andeq	r0, r0, r9, ror lr
     7dc:	00000813 	andeq	r0, r0, r3, lsl r8
     7e0:	0550011a 	ldrbeq	r0, [r0, #-282]	; 0xfffffee6
     7e4:	0097a003 	addseq	sl, r7, r3
     7e8:	51011a00 	tstpl	r1, r0, lsl #20
     7ec:	97080305 	strls	r0, [r8, -r5, lsl #6]
     7f0:	011a0000 	tsteq	sl, r0
     7f4:	88030552 	stmdahi	r3, {r1, r4, r6, r8, sl}
     7f8:	1a000098 	bne	a60 <__code_start__-0x75a0>
     7fc:	08025301 	stmdaeq	r2, {r0, r8, r9, ip, lr}
     800:	7d021a80 	vstrvc	s2, [r2, #-512]	; 0xfffffe00
     804:	d8030500 	stmdale	r3, {r8, sl}
     808:	1a000097 	bne	a6c <__code_start__-0x7594>
     80c:	02087d02 	andeq	r7, r8, #128	; 0x80
     810:	1c005008 	stcne	0, cr5, [r0], {8}
     814:	00008550 	andeq	r8, r0, r0, asr r5
     818:	00000e91 	muleq	r0, r1, lr
     81c:	00856c19 	addeq	r6, r5, r9, lsl ip
     820:	00090f00 	andeq	r0, r9, r0, lsl #30
     824:	00084e00 	andeq	r4, r8, r0, lsl #28
     828:	50011a00 	andpl	r1, r1, r0, lsl #20
     82c:	80f80305 	rscshi	r0, r8, r5, lsl #6
     830:	011a0000 	tsteq	sl, r0
     834:	1a330151 	bne	cc0d80 <__bss_end__+0xcb6d60>
     838:	35015201 	strcc	r5, [r1, #-513]	; 0xfffffdff
     83c:	0353011a 	cmpeq	r3, #-2147483642	; 0x80000006
     840:	1a01f40a 	bne	7d870 <__bss_end__+0x73850>
     844:	05007d02 	streq	r7, [r0, #-3330]	; 0xfffff2fe
     848:	0f4eea0c 	svceq	0x004eea0c
     84c:	80190000 	andshi	r0, r9, r0
     850:	0f000085 	svceq	0x00000085
     854:	6a000009 	bvs	880 <__code_start__-0x7780>
     858:	1a000008 	bne	880 <__code_start__-0x7780>
     85c:	31015101 	tstcc	r1, r1, lsl #2
     860:	0552011a 	ldrbeq	r0, [r2, #-282]	; 0xfffffee6
     864:	00984003 	addseq	r4, r8, r3
     868:	8c190000 	ldchi	0, cr0, [r9], {-0}
     86c:	79000085 	stmdbvc	r0, {r0, r2, r7}
     870:	8100000e 	tsthi	r0, lr
     874:	1a000008 	bne	89c <__code_start__-0x7764>
     878:	03055001 	movweq	r5, #20481	; 0x5001
     87c:	0000984c 	andeq	r9, r0, ip, asr #16
     880:	85901c00 	ldrhi	r1, [r0, #3072]	; 0xc00
     884:	0e910000 	cdpeq	0, 9, cr0, cr1, cr0, {0}
     888:	1e000000 	cdpne	0, 0, cr0, cr0, cr0, {0}
     88c:	00000266 	andeq	r0, r0, r6, ror #4
     890:	0000089b 	muleq	r0, fp, r8
     894:	00002c1f 	andeq	r2, r0, pc, lsl ip
     898:	1e000700 	cdpne	7, 0, cr0, cr0, cr0, {0}
     89c:	000000c5 	andeq	r0, r0, r5, asr #1
     8a0:	000008ab 	andeq	r0, r0, fp, lsr #17
     8a4:	00002c1f 	andeq	r2, r0, pc, lsl ip
     8a8:	0a000700 	beq	24b0 <__code_start__-0x5b50>
     8ac:	0000089b 	muleq	r0, fp, r8
     8b0:	0003c220 	andeq	ip, r3, r0, lsr #4
     8b4:	06410100 	strbeq	r0, [r1], -r0, lsl #2
     8b8:	000082f0 	strdeq	r8, [r0], -r0
     8bc:	00000028 	andeq	r0, r0, r8, lsr #32
     8c0:	090f9c01 	stmdbeq	pc, {r0, sl, fp, ip, pc}	; <UNPREDICTABLE>
     8c4:	f81c0000 			; <UNDEFINED> instruction: 0xf81c0000
     8c8:	8b000082 	blhi	ad8 <__code_start__-0x7528>
     8cc:	1c00000d 	stcne	0, cr0, [r0], {13}
     8d0:	000082fc 	strdeq	r8, [r0], -ip
     8d4:	00000d79 	andeq	r0, r0, r9, ror sp
     8d8:	0083001c 	addeq	r0, r3, ip, lsl r0
     8dc:	000d6700 	andeq	r6, sp, r0, lsl #14
     8e0:	83041c00 	movwhi	r1, #19456	; 0x4c00
     8e4:	0d550000 	ldcleq	0, cr0, [r5, #-0]
     8e8:	081c0000 	ldmdaeq	ip, {}	; <UNPREDICTABLE>
     8ec:	43000083 	movwmi	r0, #131	; 0x83
     8f0:	1c00000d 	stcne	0, cr0, [r0], {13}
     8f4:	0000830c 	andeq	r8, r0, ip, lsl #6
     8f8:	00000d31 	andeq	r0, r0, r1, lsr sp
     8fc:	0083101c 	addeq	r1, r3, ip, lsl r0
     900:	000d1f00 	andeq	r1, sp, r0, lsl #30
     904:	83141c00 	tsthi	r4, #0, 24
     908:	0d0d0000 	stceq	0, cr0, [sp, #-0]
     90c:	21000000 	mrscs	r0, (UNDEF: 0)
     910:	00000141 	andeq	r0, r0, r1, asr #2
     914:	66082e01 	strvs	r2, [r8], -r1, lsl #28
     918:	10000002 	andne	r0, r0, r2
     91c:	e0000082 	and	r0, r0, r2, lsl #1
     920:	01000000 	mrseq	r0, (UNDEF: 0)
     924:	000aae9c 	muleq	sl, ip, lr
     928:	03a62200 			; <UNDEFINED> instruction: 0x03a62200
     92c:	2e010000 	cdpcs	0, 0, cr0, cr1, cr0, {0}
     930:	0000ff14 	andeq	pc, r0, r4, lsl pc	; <UNPREDICTABLE>
     934:	0001e500 	andeq	lr, r1, r0, lsl #10
     938:	0001df00 	andeq	sp, r1, r0, lsl #30
     93c:	006e2300 	rsbeq	r2, lr, r0, lsl #6
     940:	251e2e01 	ldrcs	r2, [lr, #-3585]	; 0xfffff1ff
     944:	02000000 	andeq	r0, r0, #0, 0
     948:	16247491 			; <UNDEFINED> instruction: 0x16247491
     94c:	000001d6 	ldrdeq	r0, [r0], -r6
     950:	ae0f2f01 	cdpge	15, 0, cr2, cr15, cr1, {0}
     954:	1b00000a 	blne	984 <__code_start__-0x767c>
     958:	11000002 	tstne	r0, r2
     95c:	15000002 	strne	r0, [r0, #-2]
     960:	00000112 	andeq	r0, r0, r2, lsl r1
     964:	00000ac4 	andeq	r0, r0, r4, asr #21
     968:	98600305 	stmdals	r0!, {r0, r2, r8, r9}^
     96c:	31130000 	tstcc	r3, r0
     970:	01000001 	tsteq	r0, r1
     974:	01010d32 	tsteq	r1, r2, lsr sp
     978:	91020000 	mrsls	r0, (UNDEF: 2)
     97c:	82401854 	subhi	r1, r0, #84, 16	; 0x540000
     980:	00480000 	subeq	r0, r8, r0
     984:	0a150000 	beq	54098c <__bss_end__+0x53696c>
     988:	69170000 	ldmdbvs	r7, {}	; <UNPREDICTABLE>
     98c:	0e340100 	rsfeqs	f0, f4, f0
     990:	00000025 	andeq	r0, r0, r5, lsr #32
     994:	00000260 	andeq	r0, r0, r0, ror #4
     998:	0000025a 	andeq	r0, r0, sl, asr r2
     99c:	00824c25 	addeq	r4, r2, r5, lsr #24
     9a0:	00003400 	andeq	r3, r0, r0, lsl #8
     9a4:	72611100 	rsbvc	r1, r1, #0
     9a8:	35010067 	strcc	r0, [r1, #-103]	; 0xffffff99
     9ac:	00006e12 	andeq	r6, r0, r2, lsl lr
     9b0:	26560100 	ldrbcs	r0, [r6], -r0, lsl #2
     9b4:	00000e43 	andeq	r0, r0, r3, asr #28
     9b8:	0000826c 	andeq	r8, r0, ip, ror #4
     9bc:	00826c01 	addeq	r6, r2, r1, lsl #24
     9c0:	00000800 	andeq	r0, r0, r0, lsl #16
     9c4:	13370100 	teqne	r7, #0
     9c8:	000009f4 	strdeq	r0, [r0], -r4
     9cc:	000e6c27 	andeq	r6, lr, r7, lsr #24
     9d0:	00028c00 	andeq	r8, r2, r0, lsl #24
     9d4:	00028a00 	andeq	r8, r2, r0, lsl #20
     9d8:	0e602700 	cdpeq	7, 6, cr2, cr0, cr0, {0}
     9dc:	02a30000 	adceq	r0, r3, #0, 0
     9e0:	02a10000 	adceq	r0, r1, #0, 0
     9e4:	54270000 	strtpl	r0, [r7], #-0
     9e8:	b900000e 	stmdblt	r0, {r1, r2, r3}
     9ec:	b7000002 	strlt	r0, [r0, -r2]
     9f0:	00000002 	andeq	r0, r0, r2
     9f4:	00826c1b 	addeq	r6, r2, fp, lsl ip
     9f8:	000e7900 	andeq	r7, lr, r0, lsl #18
     9fc:	50011a00 	andpl	r1, r1, r0, lsl #20
     a00:	973c0305 	ldrls	r0, [ip, -r5, lsl #6]!
     a04:	011a0000 	tsteq	sl, r0
     a08:	00740251 	rsbseq	r0, r4, r1, asr r2
     a0c:	0252011a 	subseq	r0, r2, #-2147483642	; 0x80000006
     a10:	00000076 	andeq	r0, r0, r6, ror r0
     a14:	0dd92600 	ldcleq	6, cr2, [r9]
     a18:	82ac0000 	adchi	r0, ip, #0, 0
     a1c:	ac000000 	stcge	0, cr0, [r0], {-0}
     a20:	14000082 	strne	r0, [r0], #-130	; 0xffffff7e
     a24:	01000000 	mrseq	r0, (UNDEF: 0)
     a28:	0a560f3b 	beq	158471c <__bss_end__+0x157a6fc>
     a2c:	f6270000 			; <UNDEFINED> instruction: 0xf6270000
     a30:	ce00000d 	cdpgt	0, 0, cr0, cr0, cr13, {0}
     a34:	cc000002 	stcgt	0, cr0, [r0], {2}
     a38:	27000002 	strcs	r0, [r0, -r2]
     a3c:	00000dea 	andeq	r0, r0, sl, ror #27
     a40:	000002e5 	andeq	r0, r0, r5, ror #5
     a44:	000002e1 	andeq	r0, r0, r1, ror #5
     a48:	000e0128 	andeq	r0, lr, r8, lsr #2
     a4c:	00031200 	andeq	r1, r3, r0, lsl #4
     a50:	00030a00 	andeq	r0, r3, r0, lsl #20
     a54:	2c190000 	ldccs	0, cr0, [r9], {-0}
     a58:	9d000082 	stcls	0, cr0, [r0, #-520]	; 0xfffffdf8
     a5c:	6b00000e 	blvs	a9c <__code_start__-0x7564>
     a60:	1a00000a 	bne	a90 <__code_start__-0x7570>
     a64:	0a035001 	beq	d4a70 <__bss_end__+0xcaa50>
     a68:	19000100 	stmdbne	r0, {r8}
     a6c:	000082a4 	andeq	r8, r0, r4, lsr #5
     a70:	00000e79 	andeq	r0, r0, r9, ror lr
     a74:	00000aa4 	andeq	r0, r0, r4, lsr #21
     a78:	0550011a 	ldrbeq	r0, [r0, #-282]	; 0xfffffee6
     a7c:	00971803 	addseq	r1, r7, r3, lsl #16
     a80:	51011a00 	tstpl	r1, r0, lsl #20
     a84:	97080305 	strls	r0, [r8, -r5, lsl #6]
     a88:	011a0000 	tsteq	sl, r0
     a8c:	60030552 	andvs	r0, r3, r2, asr r5
     a90:	1a000098 	bne	cf8 <__code_start__-0x7308>
     a94:	08025301 	stmdaeq	r2, {r0, r8, r9, ip, lr}
     a98:	7d021a30 	vstrvc	s2, [r2, #-192]	; 0xffffff40
     a9c:	34030500 	strcc	r0, [r3], #-1280	; 0xfffffb00
     aa0:	00000097 	muleq	r0, r7, r0
     aa4:	0082a81c 	addeq	sl, r2, ip, lsl r8
     aa8:	000e9100 	andeq	r9, lr, r0, lsl #2
     aac:	04090000 	streq	r0, [r9], #-0
     ab0:	0000002c 	andeq	r0, r0, ip, lsr #32
     ab4:	0000c51e 	andeq	ip, r0, lr, lsl r5
     ab8:	000ac400 	andeq	ip, sl, r0, lsl #8
     abc:	002c1f00 	eoreq	r1, ip, r0, lsl #30
     ac0:	00050000 	andeq	r0, r5, r0
     ac4:	000ab40a 	andeq	fp, sl, sl, lsl #8
     ac8:	03622100 	cmneq	r2, #0
     acc:	20010000 	andcs	r0, r1, r0
     ad0:	0000ff07 	andeq	pc, r0, r7, lsl #30
     ad4:	00814000 	addeq	r4, r1, r0
     ad8:	0000d000 	andeq	sp, r0, r0
     adc:	1e9c0100 	fmlnee	f0, f4, f0
     ae0:	2200000c 	andcs	r0, r0, #12, 0
     ae4:	000001e6 	andeq	r0, r0, r6, ror #3
     ae8:	1e1b2001 	cdpne	0, 1, cr2, cr11, cr1, {0}
     aec:	7a00000c 	bvc	b24 <__code_start__-0x74dc>
     af0:	74000003 	strvc	r0, [r0], #-3
     af4:	29000003 	stmdbcs	r0, {r0, r1}
     af8:	2001006e 	andcs	r0, r1, lr, rrx
     afc:	00002c2a 	andeq	r2, r0, sl, lsr #24
     b00:	0003ae00 	andeq	sl, r3, r0, lsl #28
     b04:	0003a600 	andeq	sl, r3, r0, lsl #12
     b08:	01d61600 	bicseq	r1, r6, r0, lsl #12
     b0c:	21010000 	mrscs	r0, (UNDEF: 1)
     b10:	000c240f 	andeq	r2, ip, pc, lsl #8
     b14:	0003ee00 	andeq	lr, r3, r0, lsl #28
     b18:	0003ea00 	andeq	lr, r3, r0, lsl #20
     b1c:	01121500 	tsteq	r2, r0, lsl #10
     b20:	0c3a0000 	ldceq	0, cr0, [sl], #-0
     b24:	03050000 	movweq	r0, #20480	; 0x5000
     b28:	00009854 	andeq	r9, r0, r4, asr r8
     b2c:	0000002a 	andeq	r0, r0, sl, lsr #32
     b30:	000b8500 	andeq	r8, fp, r0, lsl #10
     b34:	00691700 	rsbeq	r1, r9, r0, lsl #14
     b38:	250d2501 	strcs	r2, [sp, #-1281]	; 0xfffffaff
     b3c:	10000000 	andne	r0, r0, r0
     b40:	0c000004 	stceq	0, cr0, [r0], {4}
     b44:	2b000004 	blcs	b5c <__code_start__-0x74a4>
     b48:	00000e0e 	andeq	r0, r0, lr, lsl #28
     b4c:	00008198 	muleq	r0, r8, r1
     b50:	00819800 	addeq	r9, r1, r0, lsl #16
     b54:	00001400 	andeq	r1, r0, r0, lsl #8
     b58:	15260100 	strne	r0, [r6, #-256]!	; 0xffffff00
     b5c:	000e2b27 	andeq	r2, lr, r7, lsr #22
     b60:	00043300 	andeq	r3, r4, r0, lsl #6
     b64:	00042f00 	andeq	r2, r4, r0, lsl #30
     b68:	0e1f2700 	cdpeq	7, 1, cr2, cr15, cr0, {0}
     b6c:	04590000 	ldrbeq	r0, [r9], #-0
     b70:	04570000 	ldrbeq	r0, [r7], #-0
     b74:	36280000 	strtcc	r0, [r8], -r0
     b78:	7000000e 	andvc	r0, r0, lr
     b7c:	6c000004 	stcvs	0, cr0, [r0], {4}
     b80:	00000004 	andeq	r0, r0, r4
     b84:	0dd92600 	ldcleq	6, cr2, [r9]
     b88:	81d80000 	bicshi	r0, r8, r0
     b8c:	d8000000 	stmdale	r0, {}	; <UNPREDICTABLE>
     b90:	14000081 	strne	r0, [r0], #-129	; 0xffffff7f
     b94:	01000000 	mrseq	r0, (UNDEF: 0)
     b98:	0bc61129 	bleq	ff185044 <__bss_end__+0xff17b024>
     b9c:	f6270000 			; <UNDEFINED> instruction: 0xf6270000
     ba0:	a100000d 	tstge	r0, sp
     ba4:	9d000004 	stcls	0, cr0, [r0, #-16]
     ba8:	27000004 	strcs	r0, [r0, -r4]
     bac:	00000dea 	andeq	r0, r0, sl, ror #27
     bb0:	000004c7 	andeq	r0, r0, r7, asr #9
     bb4:	000004c5 	andeq	r0, r0, r5, asr #9
     bb8:	000e0128 	andeq	r0, lr, r8, lsr #2
     bbc:	0004de00 	andeq	sp, r4, r0, lsl #28
     bc0:	0004da00 	andeq	sp, r4, r0, lsl #20
     bc4:	58190000 	ldmdapl	r9, {}	; <UNPREDICTABLE>
     bc8:	9d000081 	stcls	0, cr0, [r0, #-516]	; 0xfffffdfc
     bcc:	db00000e 	blle	c0c <__code_start__-0x73f4>
     bd0:	1a00000b 	bne	c04 <__code_start__-0x73fc>
     bd4:	0a035001 	beq	d4be0 <__bss_end__+0xcabc0>
     bd8:	19000400 	stmdbne	r0, {sl}
     bdc:	00008188 	andeq	r8, r0, r8, lsl #3
     be0:	00000e79 	andeq	r0, r0, r9, ror lr
     be4:	00000c14 	andeq	r0, r0, r4, lsl ip
     be8:	0550011a 	ldrbeq	r0, [r0, #-282]	; 0xfffffee6
     bec:	00971803 	addseq	r1, r7, r3, lsl #16
     bf0:	51011a00 	tstpl	r1, r0, lsl #20
     bf4:	97080305 	strls	r0, [r8, -r5, lsl #6]
     bf8:	011a0000 	tsteq	sl, r0
     bfc:	54030552 	strpl	r0, [r3], #-1362	; 0xfffffaae
     c00:	1a000098 	bne	e68 <__code_start__-0x7198>
     c04:	08025301 	stmdaeq	r2, {r0, r8, r9, ip, lr}
     c08:	7d021a23 	vstrvc	s2, [r2, #-140]	; 0xffffff74
     c0c:	2c030500 	cfstr32cs	mvfx0, [r3], {-0}
     c10:	00000097 	muleq	r0, r7, r0
     c14:	00818c1c 	addeq	r8, r1, ip, lsl ip
     c18:	000e9100 	andeq	r9, lr, r0, lsl #2
     c1c:	04090000 	streq	r0, [r9], #-0
     c20:	00000266 	andeq	r0, r0, r6, ror #4
     c24:	006e0409 	rsbeq	r0, lr, r9, lsl #8
     c28:	c51e0000 	ldrgt	r0, [lr, #-0]
     c2c:	3a000000 	bcc	c34 <__code_start__-0x73cc>
     c30:	1f00000c 	svcne	0x0000000c
     c34:	0000002c 	andeq	r0, r0, ip, lsr #32
     c38:	2a0a000b 	bcs	280c6c <__bss_end__+0x276c4c>
     c3c:	1200000c 	andne	r0, r0, #12, 0
     c40:	00000019 	andeq	r0, r0, r9, lsl r0
     c44:	18061b01 	stmdane	r6, {r0, r8, r9, fp, ip}
     c48:	28000081 	stmdacs	r0, {r0, r7}
     c4c:	01000000 	mrseq	r0, (UNDEF: 0)
     c50:	000c989c 	muleq	ip, ip, r8
     c54:	01e62200 	mvneq	r2, r0, lsl #4
     c58:	1b010000 	blne	40c60 <__bss_end__+0x36c40>
     c5c:	000c1e1f 	andeq	r1, ip, pc, lsl lr
     c60:	00050f00 	andeq	r0, r5, r0, lsl #30
     c64:	00050b00 	andeq	r0, r5, r0, lsl #22
     c68:	006e2900 	rsbeq	r2, lr, r0, lsl #18
     c6c:	2c2e1b01 			; <UNDEFINED> instruction: 0x2c2e1b01
     c70:	31000000 	mrscc	r0, (UNDEF: 0)
     c74:	2d000005 	stccs	0, cr0, [r0, #-20]	; 0xffffffec
     c78:	25000005 	strcs	r0, [r0, #-5]
     c7c:	00008124 	andeq	r8, r0, r4, lsr #2
     c80:	0000001c 	andeq	r0, r0, ip, lsl r0
     c84:	01006917 	tsteq	r0, r7, lsl r9
     c88:	002c121c 	eoreq	r1, ip, ip, lsl r2
     c8c:	05530000 	ldrbeq	r0, [r3, #-0]
     c90:	054f0000 	strbeq	r0, [pc, #-0]	; c98 <__code_start__-0x7368>
     c94:	00000000 	andeq	r0, r0, r0
     c98:	00043820 	andeq	r3, r4, r0, lsr #16
     c9c:	06170100 	ldreq	r0, [r7], -r0, lsl #2
     ca0:	000080f8 	strdeq	r8, [r0], -r8	; <UNPREDICTABLE>
     ca4:	00000020 	andeq	r0, r0, r0, lsr #32
     ca8:	0d0d9c01 	stceq	12, cr9, [sp, #-4]
     cac:	61290000 			; <UNDEFINED> instruction: 0x61290000
     cb0:	19170100 	ldmdbne	r7, {r8}
     cb4:	0000002c 	andeq	r0, r0, ip, lsr #32
     cb8:	00000578 	andeq	r0, r0, r8, ror r5
     cbc:	00000572 	andeq	r0, r0, r2, ror r5
     cc0:	01006229 	tsteq	r0, r9, lsr #4
     cc4:	002c2517 	eoreq	r2, ip, r7, lsl r5
     cc8:	05aa0000 	streq	r0, [sl, #0]!
     ccc:	05a40000 	streq	r0, [r4, #0]!
     cd0:	63290000 			; <UNDEFINED> instruction: 0x63290000
     cd4:	31170100 	tstcc	r7, r0, lsl #2
     cd8:	0000002c 	andeq	r0, r0, ip, lsr #32
     cdc:	000005dc 	ldrdeq	r0, [r0], -ip
     ce0:	000005d6 	ldrdeq	r0, [r0], -r6
     ce4:	0081101b 	addeq	r1, r1, fp, lsl r0
     ce8:	000e7900 	andeq	r7, lr, r0, lsl #18
     cec:	50011a00 	andpl	r1, r1, r0, lsl #20
     cf0:	96f00305 	ldrbtls	r0, [r0], r5, lsl #6
     cf4:	011a0000 	tsteq	sl, r0
     cf8:	01f30351 	mvnseq	r0, r1, asr r3
     cfc:	52011a50 	andpl	r1, r1, #80, 20	; 0x50000
     d00:	5101f303 	tstpl	r1, r3, lsl #6	; <UNPREDICTABLE>
     d04:	0353011a 	cmpeq	r3, #-2147483642	; 0x80000006
     d08:	005201f3 	ldrsheq	r0, [r2], #-19	; 0xffffffed
     d0c:	04202c00 	strteq	r2, [r0], #-3072	; 0xfffff400
     d10:	15010000 	strne	r0, [r1, #-0]
     d14:	0080e006 	addeq	lr, r0, r6
     d18:	00001800 	andeq	r1, r0, r0, lsl #16
     d1c:	2c9c0100 	ldfcss	f0, [ip], {0}
     d20:	000000b8 	strheq	r0, [r0], -r8
     d24:	c8061401 	stmdagt	r6, {r0, sl, ip}
     d28:	18000080 	stmdane	r0, {r7}
     d2c:	01000000 	mrseq	r0, (UNDEF: 0)
     d30:	040f2c9c 	streq	r2, [pc], #-3228	; d38 <__code_start__-0x72c8>
     d34:	13010000 	movwne	r0, #4096	; 0x1000
     d38:	0080b006 	addeq	fp, r0, r6
     d3c:	00001800 	andeq	r1, r0, r0, lsl #16
     d40:	2c9c0100 	ldfcss	f0, [ip], {0}
     d44:	000003fe 	strdeq	r0, [r0], -lr
     d48:	98061201 	stmdals	r6, {r0, r9, ip}
     d4c:	18000080 	stmdane	r0, {r7}
     d50:	01000000 	mrseq	r0, (UNDEF: 0)
     d54:	03f82c9c 	mvnseq	r2, #156, 24	; 0x9c00
     d58:	11010000 	mrsne	r0, (UNDEF: 1)
     d5c:	00808006 	addeq	r8, r0, r6
     d60:	00001800 	andeq	r1, r0, r0, lsl #16
     d64:	2c9c0100 	ldfcss	f0, [ip], {0}
     d68:	000003f2 	strdeq	r0, [r0], -r2
     d6c:	68061001 	stmdavs	r6, {r0, ip}
     d70:	18000080 	stmdane	r0, {r7}
     d74:	01000000 	mrseq	r0, (UNDEF: 0)
     d78:	03ec2c9c 	mvneq	r2, #156, 24	; 0x9c00
     d7c:	0f010000 	svceq	0x00010000
     d80:	00805006 	addeq	r5, r0, r6
     d84:	00001800 	andeq	r1, r0, r0, lsl #16
     d88:	2c9c0100 	ldfcss	f0, [ip], {0}
     d8c:	000003e6 	andeq	r0, r0, r6, ror #7
     d90:	38060e01 	stmdacc	r6, {r0, r9, sl, fp}
     d94:	18000080 	stmdane	r0, {r7}
     d98:	01000000 	mrseq	r0, (UNDEF: 0)
     d9c:	039e2d9c 	orrseq	r2, lr, #156, 26	; 0x2700
     da0:	82020000 	andhi	r0, r2, #0, 0
     da4:	00006e18 	andeq	r6, r0, r8, lsl lr
     da8:	0dbb0300 	ldceq	3, cr0, [fp]
     dac:	722e0000 	eorvc	r0, lr, #0, 0
     db0:	02006765 	andeq	r6, r0, #26476544	; 0x1940000
     db4:	006e2982 	rsbeq	r2, lr, r2, lsl #19
     db8:	2d000000 	stccs	0, cr0, [r0, #-0]
     dbc:	00000074 	andeq	r0, r0, r4, ror r0
     dc0:	6e187e02 	cdpvs	14, 1, cr7, cr8, cr2, {0}
     dc4:	03000000 	movweq	r0, #0
     dc8:	00000dd9 	ldrdeq	r0, [r0], -r9
     dcc:	6765722e 	strbvs	r7, [r5, -lr, lsr #4]!
     dd0:	2a7e0200 	bcs	1f815d8 <__bss_end__+0x1f775b8>
     dd4:	0000006e 	andeq	r0, r0, lr, rrx
     dd8:	03542d00 	cmpeq	r4, #0, 26
     ddc:	79020000 	stmdbvc	r2, {}	; <UNPREDICTABLE>
     de0:	00006e18 	andeq	r6, r0, r8, lsl lr
     de4:	0e0e0300 	cdpeq	3, 0, cr0, cr14, cr0, {0}
     de8:	062f0000 	strteq	r0, [pc], -r0
     dec:	02000001 	andeq	r0, r0, #1, 0
     df0:	006e2779 	rsbeq	r2, lr, r9, ror r7
     df4:	742e0000 	strtvc	r0, [lr], #-0
     df8:	7902006f 	stmdbvc	r2, {r0, r1, r2, r3, r5, r6}
     dfc:	00006e36 	andeq	r6, r0, r6, lsr lr
     e00:	01713000 	cmneq	r1, r0
     e04:	7a020000 	bvc	80e0c <__bss_end__+0x76dec>
     e08:	0000460d 	andeq	r4, r0, sp, lsl #12
     e0c:	4e2d0000 	cdpmi	0, 2, cr0, cr13, cr0, {0}
     e10:	02000001 	andeq	r0, r0, #1, 0
     e14:	006e1874 	rsbeq	r1, lr, r4, ror r8
     e18:	43030000 	movwmi	r0, #12288	; 0x3000
     e1c:	2f00000e 	svccs	0x0000000e
     e20:	00000106 	andeq	r0, r0, r6, lsl #2
     e24:	6e287402 	cdpvs	4, 2, cr7, cr8, cr2, {0}
     e28:	2e000000 	cdpcs	0, 0, cr0, cr0, cr0, {0}
     e2c:	02006f74 	andeq	r6, r0, #116, 30	; 0x1d0
     e30:	006e3774 	rsbeq	r3, lr, r4, ror r7
     e34:	71300000 	teqvc	r0, r0
     e38:	02000001 	andeq	r0, r0, #1, 0
     e3c:	00460d75 	subeq	r0, r6, r5, ror sp
     e40:	2d000000 	stccs	0, cr0, [r0, #-0]
     e44:	000000f7 	strdeq	r0, [r0], -r7
     e48:	6e186a02 	vnmlsvs.f32	s12, s16, s4
     e4c:	03000000 	movweq	r0, #0
     e50:	00000e79 	andeq	r0, r0, r9, ror lr
     e54:	7473642e 	ldrbtvc	r6, [r3], #-1070	; 0xfffffbd2
     e58:	296a0200 	stmdbcs	sl!, {r9}^
     e5c:	0000006e 	andeq	r0, r0, lr, rrx
     e60:	636f6c2e 	cmnvs	pc, #11776	; 0x2e00
     e64:	376a0200 	strbcc	r0, [sl, -r0, lsl #4]!
     e68:	0000006e 	andeq	r0, r0, lr, rrx
     e6c:	00020b2f 	andeq	r0, r2, pc, lsr #22
     e70:	456a0200 	strbmi	r0, [sl, #-512]!	; 0xfffffe00
     e74:	0000006e 	andeq	r0, r0, lr, rrx
     e78:	04453100 	strbeq	r3, [r5], #-256	; 0xffffff00
     e7c:	04450000 	strbeq	r0, [r5], #-0
     e80:	28040000 	stmdacs	r4, {}	; <UNPREDICTABLE>
     e84:	03d73106 	bicseq	r3, r7, #-2147483647	; 0x80000001
     e88:	03d70000 	bicseq	r0, r7, #0, 0
     e8c:	1d040000 	stcne	0, cr0, [r4, #-0]
     e90:	00a03106 	adceq	r3, r0, r6, lsl #2
     e94:	00a00000 	adceq	r0, r0, r0
     e98:	6e040000 	cdpvs	0, 0, cr0, cr4, cr0, {0}
     e9c:	03ab3106 			; <UNDEFINED> instruction: 0x03ab3106
     ea0:	03ab0000 			; <UNDEFINED> instruction: 0x03ab0000
     ea4:	7b040000 	blvc	100eac <__bss_end__+0xf6e8c>
     ea8:	019d0007 	orrseq	r0, sp, r7
     eac:	00040000 	andeq	r0, r4, r0
     eb0:	000002d4 	ldrdeq	r0, [r0], -r4
     eb4:	02910104 	addseq	r0, r1, #1
     eb8:	4c0c0000 	stcmi	0, cr0, [ip], {-0}
     ebc:	5c000004 	stcpl	0, cr0, [r0], {4}
     ec0:	d8000004 	stmdale	r0, {r2}
     ec4:	58000085 	stmdapl	r0, {r0, r2, r7}
     ec8:	2c000000 	stccs	0, cr0, [r0], {-0}
     ecc:	02000006 	andeq	r0, r0, #6, 0
     ed0:	000003b3 			; <UNDEFINED> instruction: 0x000003b3
     ed4:	311b2802 	tstcc	fp, r2, lsl #16
     ed8:	03000000 	movweq	r0, #0
     edc:	000000ed 	andeq	r0, r0, sp, ror #1
     ee0:	48000404 	stmdami	r0, {r2, sl}
     ee4:	04000000 	streq	r0, [r0], #-0
     ee8:	00000224 	andeq	r0, r0, r4, lsr #4
     eec:	00000048 	andeq	r0, r0, r8, asr #32
     ef0:	04050000 	streq	r0, [r5], #-0
     ef4:	0000ef02 	andeq	lr, r0, r2, lsl #30
     ef8:	18630200 	stmdane	r3!, {r9}^
     efc:	00000025 	andeq	r0, r0, r5, lsr #32
     f00:	69050406 	stmdbvs	r5, {r1, r2, sl}
     f04:	0700746e 	streq	r7, [r0, -lr, ror #8]
     f08:	01b20704 			; <UNDEFINED> instruction: 0x01b20704
     f0c:	01070000 	mrseq	r0, (UNDEF: 7)
     f10:	00016506 	andeq	r6, r1, r6, lsl #10
     f14:	05020700 	streq	r0, [r2, #-1792]	; 0xfffff900
     f18:	0000002a 	andeq	r0, r0, sl, lsr #32
     f1c:	e4050407 	str	r0, [r5], #-1031	; 0xfffffbf9
     f20:	07000000 	streq	r0, [r0, -r0]
     f24:	00df0508 	sbcseq	r0, pc, r8, lsl #10
     f28:	01070000 	mrseq	r0, (UNDEF: 7)
     f2c:	00016308 	andeq	r6, r1, r8, lsl #6
     f30:	07020700 	streq	r0, [r2, -r0, lsl #14]
     f34:	000001f8 	strdeq	r0, [r0], -r8
     f38:	ad070407 	cfstrsge	mvf0, [r7, #-28]	; 0xffffffe4
     f3c:	07000001 	streq	r0, [r0, -r1]
     f40:	01a80708 			; <UNDEFINED> instruction: 0x01a80708
     f44:	56080000 	strpl	r0, [r8], -r0
     f48:	ab000000 	blge	f50 <__code_start__-0x70b0>
     f4c:	09000000 	stmdbeq	r0, {}	; <UNPREDICTABLE>
     f50:	00000056 	andeq	r0, r0, r6, asr r0
     f54:	00680a00 	rsbeq	r0, r8, r0, lsl #20
     f58:	1c030000 	stcne	0, cr0, [r3], {-0}
     f5c:	0000b70e 	andeq	fp, r0, lr, lsl #14
     f60:	9c040b00 			; <UNDEFINED> instruction: 0x9c040b00
     f64:	08000000 	stmdaeq	r0, {}	; <UNPREDICTABLE>
     f68:	00000056 	andeq	r0, r0, r6, asr r0
     f6c:	000000cc 	andeq	r0, r0, ip, asr #1
     f70:	0000cc09 	andeq	ip, r0, r9, lsl #24
     f74:	040b0000 	streq	r0, [fp], #-0
     f78:	000000d9 	ldrdeq	r0, [r0], -r9
     f7c:	6c080107 	stfvss	f0, [r8], {7}
     f80:	0c000001 	stceq	0, cr0, [r0], {1}
     f84:	000000d2 	ldrdeq	r0, [r0], -r2
     f88:	0004c00a 	andeq	ip, r4, sl
     f8c:	0e210300 	cdpeq	3, 2, cr0, cr1, cr0, {0}
     f90:	000000ea 	andeq	r0, r0, sl, ror #1
     f94:	00bd040b 	adcseq	r0, sp, fp, lsl #8
     f98:	450d0000 	strmi	r0, [sp, #-0]
     f9c:	01000004 	tsteq	r0, r4
     fa0:	00560506 	subseq	r0, r6, r6, lsl #10
     fa4:	85d80000 	ldrbhi	r0, [r8]
     fa8:	00580000 	subseq	r0, r8, r0
     fac:	9c010000 	stcls	0, cr0, [r1], {-0}
     fb0:	00000183 	andeq	r0, r0, r3, lsl #3
     fb4:	746d660e 	strbtvc	r6, [sp], #-1550	; 0xfffff9f2
     fb8:	18060100 	stmdane	r6, {r8}
     fbc:	000000cc 	andeq	r0, r0, ip, asr #1
     fc0:	0f709102 	svceq	0x00709102
     fc4:	66756210 			; <UNDEFINED> instruction: 0x66756210
     fc8:	11080100 	mrsne	r0, (UNDEF: 24)
     fcc:	00000183 	andeq	r0, r0, r3, lsl #3
     fd0:	9c180305 	ldcls	3, cr0, [r8], {5}
     fd4:	31110000 	tstcc	r1, r0
     fd8:	01000001 	tsteq	r0, r1
     fdc:	004a0d09 	subeq	r0, sl, r9, lsl #26
     fe0:	91020000 	mrsls	r0, (UNDEF: 2)
     fe4:	7a73125c 	bvc	1cc595c <__bss_end__+0x1cbb93c>
     fe8:	0d0c0100 	stfeqs	f0, [ip, #-0]
     fec:	00000056 	andeq	r0, r0, r6, asr r0
     ff0:	0000060e 	andeq	r0, r0, lr, lsl #12
     ff4:	00000608 	andeq	r0, r0, r8, lsl #12
     ff8:	00860013 	addeq	r0, r6, r3, lsl r0
     ffc:	00019400 	andeq	r9, r1, r0, lsl #8
    1000:	00017600 	andeq	r7, r1, r0, lsl #12
    1004:	50011400 	andpl	r1, r1, r0, lsl #8
    1008:	14007502 	strne	r7, [r0], #-1282	; 0xfffffafe
    100c:	0a035101 	beq	d5418 <__bss_end__+0xcb3f8>
    1010:	01140400 	tsteq	r4, r0, lsl #8
    1014:	48910352 	ldmmi	r1, {r1, r4, r6, r8, r9}
    1018:	53011406 	movwpl	r1, #5126	; 0x1406
    101c:	004c9102 	subeq	r9, ip, r2, lsl #2
    1020:	00861415 	addeq	r1, r6, r5, lsl r4
    1024:	50011400 	andpl	r1, r1, r0, lsl #8
    1028:	00007502 	andeq	r7, r0, r2, lsl #10
    102c:	00d21600 	sbcseq	r1, r2, r0, lsl #12
    1030:	01940000 	orrseq	r0, r4, r0
    1034:	5d170000 	ldcpl	0, cr0, [r7, #-0]
    1038:	ff000000 			; <UNDEFINED> instruction: 0xff000000
    103c:	42180003 	andsmi	r0, r8, #3, 0
    1040:	42000004 	andmi	r0, r0, #4, 0
    1044:	05000004 	streq	r0, [r0, #-4]
    1048:	49000502 	stmdbmi	r0, {r1, r8, sl}
    104c:	04000001 	streq	r0, [r0], #-1
    1050:	00041600 	andeq	r1, r4, r0, lsl #12
    1054:	91010400 	tstls	r1, r0, lsl #8
    1058:	0c000002 	stceq	0, cr0, [r0], {2}
    105c:	0000049c 	muleq	r0, ip, r4
    1060:	0000045c 	andeq	r0, r0, ip, asr r4
    1064:	00008630 	andeq	r8, r0, r0, lsr r6
    1068:	0000003c 	andeq	r0, r0, ip, lsr r0
    106c:	00000740 	andeq	r0, r0, r0, asr #14
    1070:	69050402 	stmdbvs	r5, {r1, sl}
    1074:	0300746e 	movweq	r7, #1134	; 0x46e
    1078:	01b20704 			; <UNDEFINED> instruction: 0x01b20704
    107c:	01030000 	mrseq	r0, (UNDEF: 3)
    1080:	00016506 	andeq	r6, r1, r6, lsl #10
    1084:	05020300 	streq	r0, [r2, #-768]	; 0xfffffd00
    1088:	0000002a 	andeq	r0, r0, sl, lsr #32
    108c:	e4050403 	str	r0, [r5], #-1027	; 0xfffffbfd
    1090:	03000000 	movweq	r0, #0
    1094:	00df0508 	sbcseq	r0, pc, r8, lsl #10
    1098:	01030000 	mrseq	r0, (UNDEF: 3)
    109c:	00016308 	andeq	r6, r1, r8, lsl #6
    10a0:	07020300 	streq	r0, [r2, -r0, lsl #6]
    10a4:	000001f8 	strdeq	r0, [r0], -r8
    10a8:	ad070403 	cfstrsge	mvf0, [r7, #-12]
    10ac:	03000001 	movweq	r0, #1
    10b0:	01a80708 			; <UNDEFINED> instruction: 0x01a80708
    10b4:	25040000 	strcs	r0, [r4, #-0]
    10b8:	7a000000 	bvc	10c0 <__code_start__-0x6f40>
    10bc:	05000000 	streq	r0, [r0, #-0]
    10c0:	00000025 	andeq	r0, r0, r5, lsr #32
    10c4:	00680600 	rsbeq	r0, r8, r0, lsl #12
    10c8:	1c020000 	stcne	0, cr0, [r2], {-0}
    10cc:	0000860e 	andeq	r8, r0, lr, lsl #12
    10d0:	6b040700 	blvs	102cd8 <__bss_end__+0xf8cb8>
    10d4:	04000000 	streq	r0, [r0], #-0
    10d8:	00000025 	andeq	r0, r0, r5, lsr #32
    10dc:	0000009b 	muleq	r0, fp, r0
    10e0:	00009b05 	andeq	r9, r0, r5, lsl #22
    10e4:	04070000 	streq	r0, [r7], #-0
    10e8:	000000a8 	andeq	r0, r0, r8, lsr #1
    10ec:	6c080103 	stfvss	f0, [r8], {3}
    10f0:	08000001 	stmdaeq	r0, {r0}
    10f4:	000000a1 	andeq	r0, r0, r1, lsr #1
    10f8:	0004c006 	andeq	ip, r4, r6
    10fc:	0e210200 	cdpeq	2, 2, cr0, cr1, cr0, {0}
    1100:	000000b9 	strheq	r0, [r0], -r9
    1104:	008c0407 	addeq	r0, ip, r7, lsl #8
    1108:	7a090000 	bvc	241110 <__bss_end__+0x2370f0>
    110c:	01000000 	mrseq	r0, (UNDEF: 0)
    1110:	03050706 	movweq	r0, #22278	; 0x5706
    1114:	00009c00 	andeq	r9, r0, r0, lsl #24
    1118:	00048f0a 	andeq	r8, r4, sl, lsl #30
    111c:	060b0100 	streq	r0, [fp], -r0, lsl #2
    1120:	0000865c 	andeq	r8, r0, ip, asr r6
    1124:	00000010 	andeq	r0, r0, r0, lsl r0
    1128:	00f19c01 	rscseq	r9, r1, r1, lsl #24
    112c:	660b0000 	strvs	r0, [fp], -r0
    1130:	0b010070 	bleq	412f8 <__bss_end__+0x372d8>
    1134:	00008619 	andeq	r8, r0, r9, lsl r6
    1138:	00500100 	subseq	r0, r0, r0, lsl #2
    113c:	0003d70c 	andeq	sp, r3, ip, lsl #14
    1140:	06080100 	streq	r0, [r8], -r0, lsl #2
    1144:	00008644 	andeq	r8, r0, r4, asr #12
    1148:	00000018 	andeq	r0, r0, r8, lsl r0
    114c:	7e0d9c01 	cdpvc	12, 0, cr9, cr13, cr1, {0}
    1150:	01000004 	tsteq	r0, r4
    1154:	00250c03 	eoreq	r0, r5, r3, lsl #24
    1158:	86300000 	ldrthi	r0, [r0], -r0
    115c:	00140000 	andseq	r0, r4, r0
    1160:	9c010000 	stcls	0, cr0, [r1], {-0}
    1164:	00000140 	andeq	r0, r0, r0, asr #2
    1168:	0100630e 	tsteq	r0, lr, lsl #6
    116c:	00252103 	eoreq	r2, r5, r3, lsl #2
    1170:	063b0000 	ldrteq	r0, [fp], -r0
    1174:	06370000 	ldrteq	r0, [r7], -r0
    1178:	3c0f0000 	stccc	0, cr0, [pc], {-0}
    117c:	40000086 	andmi	r0, r0, r6, lsl #1
    1180:	10000001 	andne	r0, r0, r1
    1184:	74025001 	strvc	r5, [r2], #-1
    1188:	11000000 	mrsne	r0, (UNDEF: 0)
    118c:	000004ad 	andeq	r0, r0, sp, lsr #9
    1190:	000004ad 	andeq	r0, r0, sp, lsr #9
    1194:	00064202 	andeq	r4, r6, r2, lsl #4
    1198:	000000f3 	strdeq	r0, [r0], -r3
    119c:	05250004 	streq	r0, [r5, #-4]!
    11a0:	01040000 	mrseq	r0, (UNDEF: 4)
    11a4:	00000291 	muleq	r0, r1, r2
    11a8:	0004c50c 	andeq	ip, r4, ip, lsl #10
    11ac:	00045c00 	andeq	r5, r4, r0, lsl #24
    11b0:	00866c00 	addeq	r6, r6, r0, lsl #24
    11b4:	00003400 	andeq	r3, r0, r0, lsl #8
    11b8:	0007dc00 	andeq	sp, r7, r0, lsl #24
    11bc:	05040200 	streq	r0, [r4, #-512]	; 0xfffffe00
    11c0:	00746e69 	rsbseq	r6, r4, r9, ror #28
    11c4:	b2070403 	andlt	r0, r7, #50331648	; 0x3000000
    11c8:	03000001 	movweq	r0, #1
    11cc:	01650601 	cmneq	r5, r1, lsl #12
    11d0:	02030000 	andeq	r0, r3, #0, 0
    11d4:	00002a05 	andeq	r2, r0, r5, lsl #20
    11d8:	05040300 	streq	r0, [r4, #-768]	; 0xfffffd00
    11dc:	000000e4 	andeq	r0, r0, r4, ror #1
    11e0:	df050803 	svcle	0x00050803
    11e4:	03000000 	movweq	r0, #0
    11e8:	01630801 	cmneq	r3, r1, lsl #16
    11ec:	02030000 	andeq	r0, r3, #0, 0
    11f0:	0001f807 	andeq	pc, r1, r7, lsl #16
    11f4:	07040300 	streq	r0, [r4, -r0, lsl #6]
    11f8:	000001ad 	andeq	r0, r0, sp, lsr #3
    11fc:	a8070803 	stmdage	r7, {r0, r1, fp}
    1200:	04000001 	streq	r0, [r0], #-1
    1204:	00000025 	andeq	r0, r0, r5, lsr #32
    1208:	0000007a 	andeq	r0, r0, sl, ror r0
    120c:	00002505 	andeq	r2, r0, r5, lsl #10
    1210:	68060000 	stmdavs	r6, {}	; <UNPREDICTABLE>
    1214:	02000000 	andeq	r0, r0, #0, 0
    1218:	00860e1c 	addeq	r0, r6, ip, lsl lr
    121c:	04070000 	streq	r0, [r7], #-0
    1220:	0000006b 	andeq	r0, r0, fp, rrx
    1224:	00002504 	andeq	r2, r0, r4, lsl #10
    1228:	00009b00 	andeq	r9, r0, r0, lsl #22
    122c:	009b0500 	addseq	r0, fp, r0, lsl #10
    1230:	07000000 	streq	r0, [r0, -r0]
    1234:	0000a804 	andeq	sl, r0, r4, lsl #16
    1238:	08010300 	stmdaeq	r1, {r8, r9}
    123c:	0000016c 	andeq	r0, r0, ip, ror #2
    1240:	0000a108 	andeq	sl, r0, r8, lsl #2
    1244:	04c00600 	strbeq	r0, [r0], #1536	; 0x600
    1248:	21020000 	mrscs	r0, (UNDEF: 2)
    124c:	0000b90e 	andeq	fp, r0, lr, lsl #18
    1250:	8c040700 	stchi	7, cr0, [r4], {-0}
    1254:	09000000 	stmdbeq	r0, {}	; <UNPREDICTABLE>
    1258:	000000ad 	andeq	r0, r0, sp, lsr #1
    125c:	05070c01 	streq	r0, [r7, #-3073]	; 0xfffff3ff
    1260:	009c0403 	addseq	r0, ip, r3, lsl #8
    1264:	04b70a00 	ldrteq	r0, [r7], #2560	; 0xa00
    1268:	04010000 	streq	r0, [r1], #-0
    126c:	00002505 	andeq	r2, r0, r5, lsl #10
    1270:	00866c00 	addeq	r6, r6, r0, lsl #24
    1274:	00003400 	andeq	r3, r0, r0, lsl #8
    1278:	0b9c0100 	bleq	fe701680 <__bss_end__+0xfe6f7660>
    127c:	04010070 	streq	r0, [r1], #-112	; 0xffffff90
    1280:	00009b1f 	andeq	r9, r0, pc, lsl fp
    1284:	00065d00 	andeq	r5, r6, r0, lsl #26
    1288:	00065900 	andeq	r5, r6, r0, lsl #18
    128c:	d7000000 	strle	r0, [r0, -r0]
    1290:	0400000a 	streq	r0, [r0], #-10
    1294:	0005c300 	andeq	ip, r5, r0, lsl #6
    1298:	91010400 	tstls	r1, r0, lsl #8
    129c:	0c000002 	stceq	0, cr0, [r0], {2}
    12a0:	000004e4 	andeq	r0, r0, r4, ror #9
    12a4:	0000045c 	andeq	r0, r0, ip, asr r4
    12a8:	000086a0 	andeq	r8, r0, r0, lsr #13
    12ac:	00000740 	andeq	r0, r0, r0, asr #14
    12b0:	00000885 	andeq	r0, r0, r5, lsl #17
    12b4:	69050402 	stmdbvs	r5, {r1, sl}
    12b8:	0300746e 	movweq	r7, #1134	; 0x46e
    12bc:	01b20704 			; <UNDEFINED> instruction: 0x01b20704
    12c0:	01030000 	mrseq	r0, (UNDEF: 3)
    12c4:	00016506 	andeq	r6, r1, r6, lsl #10
    12c8:	05020300 	streq	r0, [r2, #-768]	; 0xfffffd00
    12cc:	0000002a 	andeq	r0, r0, sl, lsr #32
    12d0:	e4050403 	str	r0, [r5], #-1027	; 0xfffffbfd
    12d4:	03000000 	movweq	r0, #0
    12d8:	00df0508 	sbcseq	r0, pc, r8, lsl #10
    12dc:	01030000 	mrseq	r0, (UNDEF: 3)
    12e0:	00016308 	andeq	r6, r1, r8, lsl #6
    12e4:	07020300 	streq	r0, [r2, -r0, lsl #6]
    12e8:	000001f8 	strdeq	r0, [r0], -r8
    12ec:	0001c604 	andeq	ip, r1, r4, lsl #12
    12f0:	19340200 	ldmdbne	r4!, {r9}
    12f4:	00000069 	andeq	r0, r0, r9, rrx
    12f8:	ad070403 	cfstrsge	mvf0, [r7, #-12]
    12fc:	04000001 	streq	r0, [r0], #-1
    1300:	000004db 	ldrdeq	r0, [r0], -fp
    1304:	7c193702 	ldcvc	7, cr3, [r9], {2}
    1308:	03000000 	movweq	r0, #0
    130c:	01a80708 			; <UNDEFINED> instruction: 0x01a80708
    1310:	25050000 	strcs	r0, [r5, #-0]
    1314:	92000000 	andls	r0, r0, #0, 0
    1318:	06000000 	streq	r0, [r0], -r0
    131c:	00000025 	andeq	r0, r0, r5, lsr #32
    1320:	00680700 	rsbeq	r0, r8, r0, lsl #14
    1324:	1c030000 	stcne	0, cr0, [r3], {-0}
    1328:	00009e0e 	andeq	r9, r0, lr, lsl #28
    132c:	83040800 	movwhi	r0, #18432	; 0x4800
    1330:	05000000 	streq	r0, [r0, #-0]
    1334:	00000025 	andeq	r0, r0, r5, lsr #32
    1338:	000000b3 	strheq	r0, [r0], -r3
    133c:	0000b306 	andeq	fp, r0, r6, lsl #6
    1340:	04080000 	streq	r0, [r8], #-0
    1344:	000000c0 	andeq	r0, r0, r0, asr #1
    1348:	6c080103 	stfvss	f0, [r8], {3}
    134c:	09000001 	stmdbeq	r0, {r0}
    1350:	000000b9 	strheq	r0, [r0], -r9
    1354:	0004c007 	andeq	ip, r4, r7
    1358:	0e210300 	cdpeq	3, 2, cr0, cr1, cr0, {0}
    135c:	000000d1 	ldrdeq	r0, [r0], -r1
    1360:	00a40408 	adceq	r0, r4, r8, lsl #8
    1364:	f7070000 			; <UNDEFINED> instruction: 0xf7070000
    1368:	04000004 	streq	r0, [r0], #-4
    136c:	00b90d0b 	adcseq	r0, r9, fp, lsl #26
    1370:	77070000 	strvc	r0, [r7, -r0]
    1374:	04000005 	streq	r0, [r0], #-5
    1378:	00b90d0c 	adcseq	r0, r9, ip, lsl #26
    137c:	06070000 	streq	r0, [r7], -r0
    1380:	04000005 	streq	r0, [r0], #-5
    1384:	00b90d0d 	adcseq	r0, r9, sp, lsl #26
    1388:	2f070000 	svccs	0x00070000
    138c:	04000005 	streq	r0, [r0], #-5
    1390:	00b90d0e 	adcseq	r0, r9, lr, lsl #26
    1394:	a0070000 	andge	r0, r7, r0
    1398:	04000005 	streq	r0, [r0], #-5
    139c:	00b90d0f 	adcseq	r0, r9, pc, lsl #26
    13a0:	1a070000 	bne	1c13a8 <__bss_end__+0x1b7388>
    13a4:	04000005 	streq	r0, [r0], #-5
    13a8:	00b90d10 	adcseq	r0, r9, r0, lsl sp
    13ac:	af070000 	svcge	0x00070000
    13b0:	04000005 	streq	r0, [r0], #-5
    13b4:	00b90d11 	adcseq	r0, r9, r1, lsl sp
    13b8:	3b070000 	blcc	1c13c0 <__bss_end__+0x1b73a0>
    13bc:	04000005 	streq	r0, [r0], #-5
    13c0:	00b90d12 	adcseq	r0, r9, r2, lsl sp
    13c4:	b3040000 	movwlt	r0, #16384	; 0x4000
    13c8:	05000003 	streq	r0, [r0, #-3]
    13cc:	01431b28 	cmpeq	r3, r8, lsr #22
    13d0:	ed0a0000 	stc	0, cr0, [sl, #-0]
    13d4:	04000000 	streq	r0, [r0], #-0
    13d8:	015a0006 	cmpeq	sl, r6
    13dc:	240b0000 	strcs	r0, [fp], #-0
    13e0:	5a000002 	bpl	13f0 <__code_start__-0x6c10>
    13e4:	00000001 	andeq	r0, r0, r1
    13e8:	04040c00 	streq	r0, [r4], #-3072	; 0xfffff400
    13ec:	000000ef 	andeq	r0, r0, pc, ror #1
    13f0:	37186305 	ldrcc	r6, [r8, -r5, lsl #6]
    13f4:	0d000001 	stceq	0, cr0, [r0, #-4]
    13f8:	00000442 	andeq	r0, r0, r2, asr #8
    13fc:	25058101 	strcs	r8, [r5, #-257]	; 0xfffffeff
    1400:	28000000 	stmdacs	r0, {}	; <UNPREDICTABLE>
    1404:	b8000089 	stmdalt	r0, {r0, r3, r7}
    1408:	01000004 	tsteq	r0, r4
    140c:	0007179c 	muleq	r7, ip, r7
    1410:	75620e00 	strbvc	r0, [r2, #-3584]!	; 0xfffff200
    1414:	81010066 	tsthi	r1, r6, rrx
    1418:	00071715 	andeq	r1, r7, r5, lsl r7
    141c:	00068100 	andeq	r8, r6, r0, lsl #2
    1420:	00067b00 	andeq	r7, r6, r0, lsl #22
    1424:	006e0e00 	rsbeq	r0, lr, r0, lsl #28
    1428:	251e8101 	ldrcs	r8, [lr, #-257]	; 0xfffffeff
    142c:	b3000000 	movwlt	r0, #0
    1430:	ad000006 	stcge	0, cr0, [r0, #-24]	; 0xffffffe8
    1434:	0e000006 	cdpeq	0, 0, cr0, cr0, cr6, {0}
    1438:	00746d66 	rsbseq	r6, r4, r6, ror #26
    143c:	b32d8101 			; <UNDEFINED> instruction: 0xb32d8101
    1440:	ed000000 	stc	0, cr0, [r0, #-0]
    1444:	e1000006 	tst	r0, r6
    1448:	0f000006 	svceq	0x00000006
    144c:	00000131 	andeq	r0, r0, r1, lsr r1
    1450:	5c3a8101 	ldfpld	f0, [sl], #-4
    1454:	03000001 	movweq	r0, #1
    1458:	107dd491 			; <UNDEFINED> instruction: 0x107dd491
    145c:	82010070 	andhi	r0, r1, #112, 0	; 0x70
    1460:	00071708 	andeq	r1, r7, r8, lsl #14
    1464:	00074b00 	andeq	r4, r7, r0, lsl #22
    1468:	00073700 	andeq	r3, r7, r0, lsl #14
    146c:	00651000 	rsbeq	r1, r5, r0
    1470:	17128201 	ldrne	r8, [r2, -r1, lsl #4]
    1474:	cd000007 	stcgt	0, cr0, [r0, #-28]	; 0xffffffe4
    1478:	c9000007 	stmdbgt	r0, {r0, r1, r2}
    147c:	10000007 	andne	r0, r0, r7
    1480:	01003078 	tsteq	r0, r8, ror r0
    1484:	005d0e83 	subseq	r0, sp, r3, lsl #29
    1488:	07fa0000 	ldrbeq	r0, [sl, r0]!
    148c:	07f40000 	ldrbeq	r0, [r4, r0]!
    1490:	78100000 	ldmdavc	r0, {}	; <UNPREDICTABLE>
    1494:	83010031 	movwhi	r0, #4145	; 0x1031
    1498:	00005d11 	andeq	r5, r0, r1, lsl sp
    149c:	00082700 	andeq	r2, r8, r0, lsl #14
    14a0:	00082300 	andeq	r2, r8, r0, lsl #6
    14a4:	05591100 	ldrbeq	r1, [r9, #-256]	; 0xffffff00
    14a8:	86010000 	strhi	r0, [r1], -r0
    14ac:	0000b311 	andeq	fp, r0, r1, lsl r3
    14b0:	00084900 	andeq	r4, r8, r0, lsl #18
    14b4:	00084500 	andeq	r4, r8, r0, lsl #10
    14b8:	01121200 	tsteq	r2, r0, lsl #4
    14bc:	072d0000 	streq	r0, [sp, -r0]!
    14c0:	03050000 	movweq	r0, #20480	; 0x5000
    14c4:	000099ec 	andeq	r9, r0, ip, ror #19
    14c8:	00899013 	addeq	r9, r9, r3, lsl r0
    14cc:	00040000 	andeq	r0, r4, r0
    14d0:	00731000 	rsbseq	r1, r3, r0
    14d4:	170a9101 	strne	r9, [sl, -r1, lsl #2]
    14d8:	7f000007 	svcvc	0x00000007
    14dc:	69000008 	stmdbvs	r0, {r3}
    14e0:	14000008 	strne	r0, [r0], #-8
    14e4:	006d756e 	rsbeq	r7, sp, lr, ror #10
    14e8:	320d9101 	andcc	r9, sp, #1073741824	; 0x40000000
    14ec:	03000007 	movweq	r0, #7
    14f0:	157dd891 	ldrbne	sp, [sp, #-2193]!	; 0xfffff76f
    14f4:	000005bc 			; <UNDEFINED> instruction: 0x000005bc
    14f8:	32179101 	andscc	r9, r7, #1073741824	; 0x40000000
    14fc:	03000007 	movweq	r0, #7
    1500:	117ed891 			; <UNDEFINED> instruction: 0x117ed891
    1504:	00000514 	andeq	r0, r0, r4, lsl r5
    1508:	2c0d9201 	sfmcs	f1, 1, [sp], {1}
    150c:	06000000 	streq	r0, [r0], -r0
    1510:	00000009 	andeq	r0, r0, r9
    1514:	16000009 	strne	r0, [r0], -r9
    1518:	00008a58 	andeq	r8, r0, r8, asr sl
    151c:	000001a4 	andeq	r0, r0, r4, lsr #3
    1520:	00000539 	andeq	r0, r0, r9, lsr r5
    1524:	00797410 	rsbseq	r7, r9, r0, lsl r4
    1528:	b31d9e01 	tstlt	sp, #1, 28
    152c:	3a000000 	bcc	1534 <__code_start__-0x6acc>
    1530:	30000009 	andcc	r0, r0, r9
    1534:	17000009 	strne	r0, [r0, -r9]
    1538:	01007878 	tsteq	r0, r8, ror r8
    153c:	00701aa2 	rsbseq	r1, r0, r2, lsr #21
    1540:	68180000 	ldmdavs	r8, {}	; <UNPREDICTABLE>
    1544:	9200008a 	andls	r0, r0, #138, 0	; 0x8a
    1548:	d500000a 	strle	r0, [r0, #-10]
    154c:	19000002 	stmdbne	r0, {r1}
    1550:	76025001 	strvc	r5, [r2], -r1
    1554:	51011900 	tstpl	r1, r0, lsl #18
    1558:	98e00305 	stmials	r0!, {r0, r2, r8, r9}^
    155c:	01190000 	tsteq	r9, r0
    1560:	00330152 	eorseq	r0, r3, r2, asr r1
    1564:	008a8018 	addeq	r8, sl, r8, lsl r0
    1568:	000a9200 	andeq	r9, sl, r0, lsl #4
    156c:	0002f700 	andeq	pc, r2, r0, lsl #14
    1570:	50011900 	andpl	r1, r1, r0, lsl #18
    1574:	19007602 	stmdbne	r0, {r1, r9, sl, ip, sp, lr}
    1578:	03055101 	movweq	r5, #20737	; 0x5101
    157c:	000098e4 	andeq	r9, r0, r4, ror #17
    1580:	01520119 	cmpeq	r2, r9, lsl r1
    1584:	b4180033 	ldrlt	r0, [r8], #-51	; 0xffffffcd
    1588:	9e00008a 	cdpls	0, 0, cr0, cr0, cr10, {4}
    158c:	1400000a 	strne	r0, [r0], #-10
    1590:	19000003 	stmdbne	r0, {r0, r1}
    1594:	03055001 	movweq	r5, #20481	; 0x5001
    1598:	000098e8 	andeq	r9, r0, r8, ror #17
    159c:	02510119 	subseq	r0, r1, #1073741830	; 0x40000006
    15a0:	18000077 	stmdane	r0, {r0, r1, r2, r4, r5, r6}
    15a4:	00008ac0 	andeq	r8, r0, r0, asr #21
    15a8:	00000a9e 	muleq	r0, lr, sl
    15ac:	00000331 	andeq	r0, r0, r1, lsr r3
    15b0:	05500119 	ldrbeq	r0, [r0, #-281]	; 0xfffffee7
    15b4:	0098f003 	addseq	pc, r8, r3
    15b8:	51011900 	tstpl	r1, r0, lsl #18
    15bc:	00007a02 	andeq	r7, r0, r2, lsl #20
    15c0:	008ad018 	addeq	sp, sl, r8, lsl r0
    15c4:	000a9200 	andeq	r9, sl, r0, lsl #4
    15c8:	00035300 	andeq	r5, r3, r0, lsl #6
    15cc:	50011900 	andpl	r1, r1, r0, lsl #18
    15d0:	19007602 	stmdbne	r0, {r1, r9, sl, ip, sp, lr}
    15d4:	03055101 	movweq	r5, #20737	; 0x5101
    15d8:	000098e0 	andeq	r9, r0, r0, ror #17
    15dc:	01520119 	cmpeq	r2, r9, lsl r1
    15e0:	e8180033 	ldmda	r8, {r0, r1, r4, r5}
    15e4:	9200008a 	andls	r0, r0, #138, 0	; 0x8a
    15e8:	7500000a 	strvc	r0, [r0, #-10]
    15ec:	19000003 	stmdbne	r0, {r0, r1}
    15f0:	76025001 	strvc	r5, [r2], -r1
    15f4:	51011900 	tstpl	r1, r0, lsl #18
    15f8:	98e40305 	stmials	r4!, {r0, r2, r8, r9}^
    15fc:	01190000 	tsteq	r9, r0
    1600:	00330152 	eorseq	r0, r3, r2, asr r1
    1604:	008b1018 	addeq	r1, fp, r8, lsl r0
    1608:	00074200 	andeq	r4, r7, r0, lsl #4
    160c:	0003a900 	andeq	sl, r3, r0, lsl #18
    1610:	50011900 	andpl	r1, r1, r0, lsl #18
    1614:	01193a01 	tsteq	r9, r1, lsl #20
    1618:	d0910351 	addsle	r0, r1, r1, asr r3
    161c:	5201197d 	andpl	r1, r1, #2048000	; 0x1f4000
    1620:	19800802 	stmibne	r0, {r1, fp}
    1624:	77025301 	strvc	r5, [r2, -r1, lsl #6]
    1628:	7d021900 	vstrvc.16	s2, [r2, #-0]	; <UNPREDICTABLE>
    162c:	00750200 	rsbseq	r0, r5, r0, lsl #4
    1630:	047d0219 	ldrbteq	r0, [sp], #-537	; 0xfffffde7
    1634:	00007602 	andeq	r7, r0, r2, lsl #12
    1638:	008b3018 	addeq	r3, fp, r8, lsl r0
    163c:	00074200 	andeq	r4, r7, r0, lsl #4
    1640:	0003dd00 	andeq	sp, r3, r0, lsl #26
    1644:	50011900 	andpl	r1, r1, r0, lsl #18
    1648:	01193a01 	tsteq	r9, r1, lsl #20
    164c:	d0910351 	addsle	r0, r1, r1, asr r3
    1650:	5201197e 	andpl	r1, r1, #2064384	; 0x1f8000
    1654:	19800802 	stmibne	r0, {r1, fp}
    1658:	7a025301 	bvc	96264 <__bss_end__+0x8c244>
    165c:	7d021900 	vstrvc.16	s2, [r2, #-0]	; <UNPREDICTABLE>
    1660:	00750200 	rsbseq	r0, r5, r0, lsl #4
    1664:	047d0219 	ldrbteq	r0, [sp], #-537	; 0xfffffde7
    1668:	00007602 	andeq	r7, r0, r2, lsl #12
    166c:	008b3c18 	addeq	r3, fp, r8, lsl ip
    1670:	000aaa00 	andeq	sl, sl, r0, lsl #20
    1674:	0003fb00 	andeq	pc, r3, r0, lsl #22
    1678:	50011900 	andpl	r1, r1, r0, lsl #18
    167c:	7dd09103 	ldfvcp	f1, [r0, #12]
    1680:	05510119 	ldrbeq	r0, [r1, #-281]	; 0xfffffee7
    1684:	0098a403 	addseq	sl, r8, r3, lsl #8
    1688:	50180000 	andspl	r0, r8, r0
    168c:	b600008b 	strlt	r0, [r0], -fp, lsl #1
    1690:	1700000a 	strne	r0, [r0, -sl]
    1694:	19000004 	stmdbne	r0, {r2}
    1698:	91035001 	tstls	r3, r1
    169c:	01197dd0 			; <UNDEFINED> instruction: 0x01197dd0
    16a0:	d0910351 	addsle	r0, r1, r1, asr r3
    16a4:	7418007e 	ldrvc	r0, [r8], #-126	; 0xffffff82
    16a8:	9e00008b 	cdpls	0, 0, cr0, cr0, cr11, {4}
    16ac:	5000000a 	andpl	r0, r0, sl
    16b0:	19000004 	stmdbne	r0, {r2}
    16b4:	03055001 	movweq	r5, #20481	; 0x5001
    16b8:	00009718 	andeq	r9, r0, r8, lsl r7
    16bc:	05510119 	ldrbeq	r0, [r1, #-281]	; 0xfffffee7
    16c0:	00989003 	addseq	r9, r8, r3
    16c4:	52011900 	andpl	r1, r1, #0, 18
    16c8:	99ec0305 	stmibls	ip!, {r0, r2, r8, r9}^
    16cc:	01190000 	tsteq	r9, r0
    16d0:	9f080253 	svcls	0x00080253
    16d4:	007d0219 	rsbseq	r0, sp, r9, lsl r2
    16d8:	98f80305 	ldmls	r8!, {r0, r2, r8, r9}^
    16dc:	1a000000 	bne	16e4 <__code_start__-0x691c>
    16e0:	00008b78 	andeq	r8, r0, r8, ror fp
    16e4:	00000ac2 	andeq	r0, r0, r2, asr #21
    16e8:	008b9818 	addeq	r9, fp, r8, lsl r8
    16ec:	00074200 	andeq	r4, r7, r0, lsl #4
    16f0:	00048d00 	andeq	r8, r4, r0, lsl #26
    16f4:	50011900 	andpl	r1, r1, r0, lsl #18
    16f8:	01194001 	tsteq	r9, r1
    16fc:	d0910351 	addsle	r0, r1, r1, asr r3
    1700:	5201197d 	andpl	r1, r1, #2048000	; 0x1f4000
    1704:	19800802 	stmibne	r0, {r1, fp}
    1708:	77025301 	strvc	r5, [r2, -r1, lsl #6]
    170c:	7d021900 	vstrvc.16	s2, [r2, #-0]	; <UNPREDICTABLE>
    1710:	00750200 	rsbseq	r0, r5, r0, lsl #4
    1714:	047d0219 	ldrbteq	r0, [sp], #-537	; 0xfffffde7
    1718:	00007602 	andeq	r7, r0, r2, lsl #12
    171c:	008bb818 	addeq	fp, fp, r8, lsl r8
    1720:	00074200 	andeq	r4, r7, r0, lsl #4
    1724:	0004c100 	andeq	ip, r4, r0, lsl #2
    1728:	50011900 	andpl	r1, r1, r0, lsl #18
    172c:	01194001 	tsteq	r9, r1
    1730:	d0910351 	addsle	r0, r1, r1, asr r3
    1734:	5201197e 	andpl	r1, r1, #2064384	; 0x1f8000
    1738:	19800802 	stmibne	r0, {r1, fp}
    173c:	7a025301 	bvc	96348 <__bss_end__+0x8c328>
    1740:	7d021900 	vstrvc.16	s2, [r2, #-0]	; <UNPREDICTABLE>
    1744:	00750200 	rsbseq	r0, r5, r0, lsl #4
    1748:	047d0219 	ldrbteq	r0, [sp], #-537	; 0xfffffde7
    174c:	00007602 	andeq	r7, r0, r2, lsl #12
    1750:	008bc418 	addeq	ip, fp, r8, lsl r4
    1754:	000ace00 	andeq	ip, sl, r0, lsl #28
    1758:	0004dd00 	andeq	sp, r4, r0, lsl #26
    175c:	50011900 	andpl	r1, r1, r0, lsl #18
    1760:	7dd09103 	ldfvcp	f1, [r0, #12]
    1764:	03510119 	cmpeq	r1, #1073741830	; 0x40000006
    1768:	007ed291 			; <UNDEFINED> instruction: 0x007ed291
    176c:	008bd818 	addeq	sp, fp, r8, lsl r8
    1770:	000ace00 	andeq	ip, sl, r0, lsl #28
    1774:	0004f900 	andeq	pc, r4, r0, lsl #18
    1778:	50011900 	andpl	r1, r1, r0, lsl #18
    177c:	7dd09103 	ldfvcp	f1, [r0, #12]
    1780:	03510119 	cmpeq	r1, #1073741830	; 0x40000006
    1784:	007ed091 			; <UNDEFINED> instruction: 0x007ed091
    1788:	008bf818 	addeq	pc, fp, r8, lsl r8	; <UNPREDICTABLE>
    178c:	000a9e00 	andeq	r9, sl, r0, lsl #28
    1790:	00052f00 	andeq	r2, r5, r0, lsl #30
    1794:	50011900 	andpl	r1, r1, r0, lsl #18
    1798:	99340305 	ldmdbls	r4!, {r0, r2, r8, r9}
    179c:	01190000 	tsteq	r9, r0
    17a0:	90030551 	andls	r0, r3, r1, asr r5
    17a4:	19000098 	stmdbne	r0, {r3, r4, r7}
    17a8:	03055201 	movweq	r5, #20993	; 0x5201
    17ac:	000099ec 	andeq	r9, r0, ip, ror #19
    17b0:	02530119 	subseq	r0, r3, #1073741830	; 0x40000006
    17b4:	0219b608 	andseq	fp, r9, #8, 12	; 0x800000
    17b8:	7602007d 			; <UNDEFINED> instruction: 0x7602007d
    17bc:	fc1a0000 	ldc2	0, cr0, [sl], {-0}
    17c0:	c200008b 	andgt	r0, r0, #139, 0	; 0x8b
    17c4:	0000000a 	andeq	r0, r0, sl
    17c8:	0089a818 	addeq	sl, r9, r8, lsl r8
    17cc:	0009c000 	andeq	ip, r9, r0
    17d0:	00054d00 	andeq	r4, r5, r0, lsl #26
    17d4:	50011900 	andpl	r1, r1, r0, lsl #18
    17d8:	00007702 	andeq	r7, r0, r2, lsl #14
    17dc:	008a5418 	addeq	r5, sl, r8, lsl r4
    17e0:	000a9e00 	andeq	r9, sl, r0, lsl #28
    17e4:	00058600 	andeq	r8, r5, r0, lsl #12
    17e8:	50011900 	andpl	r1, r1, r0, lsl #18
    17ec:	97180305 	ldrls	r0, [r8, -r5, lsl #6]
    17f0:	01190000 	tsteq	r9, r0
    17f4:	90030551 	andls	r0, r3, r1, asr r5
    17f8:	19000098 	stmdbne	r0, {r3, r4, r7}
    17fc:	03055201 	movweq	r5, #20993	; 0x5201
    1800:	000099ec 	andeq	r9, r0, ip, ror #19
    1804:	02530119 	subseq	r0, r3, #1073741830	; 0x40000006
    1808:	02199808 	andseq	r9, r9, #8, 16	; 0x80000
    180c:	0305007d 	movweq	r0, #20605	; 0x507d
    1810:	000098d4 	ldrdeq	r9, [r0], -r4
    1814:	8a581a00 	bhi	160801c <__bss_end__+0x15fdffc>
    1818:	0ac20000 	beq	ff081820 <__bss_end__+0xff077800>
    181c:	10180000 	andsne	r0, r8, r0
    1820:	9e00008c 	cdpls	0, 0, cr0, cr0, cr12, {4}
    1824:	be00000a 	cdplt	0, 0, cr0, cr0, cr10, {0}
    1828:	19000005 	stmdbne	r0, {r0, r2}
    182c:	03055001 	movweq	r5, #20481	; 0x5001
    1830:	0000995c 	andeq	r9, r0, ip, asr r9
    1834:	05510119 	ldrbeq	r0, [r1, #-281]	; 0xfffffee7
    1838:	00989003 	addseq	r9, r8, r3
    183c:	52011900 	andpl	r1, r1, #0, 18
    1840:	99ec0305 	stmibls	ip!, {r0, r2, r8, r9}^
    1844:	01190000 	tsteq	r9, r0
    1848:	be080253 	mcrlt	2, 0, r0, cr8, cr3, {2}
    184c:	8c141a00 			; <UNDEFINED> instruction: 0x8c141a00
    1850:	0ac20000 	beq	ff081858 <__bss_end__+0xff077838>
    1854:	40180000 	andsmi	r0, r8, r0
    1858:	4200008c 	andmi	r0, r0, #140, 0	; 0x8c
    185c:	f4000007 	vst4.8	{d0-d3}, [r0], r7
    1860:	19000005 	stmdbne	r0, {r0, r2}
    1864:	3a015001 	bcc	55870 <__bss_end__+0x4b850>
    1868:	03510119 	cmpeq	r1, #1073741830	; 0x40000006
    186c:	197dd091 	ldmdbne	sp!, {r0, r4, r7, ip, lr, pc}^
    1870:	08025201 	stmdaeq	r2, {r0, r9, ip, lr}
    1874:	7d021980 	vstrvc.16	s2, [r2, #-256]	; 0xffffff00	; <UNPREDICTABLE>
    1878:	00750200 	rsbseq	r0, r5, r0, lsl #4
    187c:	047d0219 	ldrbteq	r0, [sp], #-537	; 0xfffffde7
    1880:	18003101 	stmdane	r0, {r0, r8, ip, sp}
    1884:	00008c78 	andeq	r8, r0, r8, ror ip
    1888:	00000742 	andeq	r0, r0, r2, asr #14
    188c:	00000621 	andeq	r0, r0, r1, lsr #12
    1890:	01500119 	cmpeq	r0, r9, lsl r1
    1894:	5101193a 	tstpl	r1, sl, lsr r9
    1898:	7dd09103 	ldfvcp	f1, [r0, #12]
    189c:	02520119 	subseq	r0, r2, #1073741830	; 0x40000006
    18a0:	02198008 	andseq	r8, r9, #8, 0
    18a4:	7502007d 	strvc	r0, [r2, #-125]	; 0xffffff83
    18a8:	7d021900 	vstrvc.16	s2, [r2, #-0]	; <UNPREDICTABLE>
    18ac:	00300104 	eorseq	r0, r0, r4, lsl #2
    18b0:	008cac18 	addeq	sl, ip, r8, lsl ip
    18b4:	00074200 	andeq	r4, r7, r0, lsl #4
    18b8:	00064e00 	andeq	r4, r6, r0, lsl #28
    18bc:	50011900 	andpl	r1, r1, r0, lsl #18
    18c0:	01194001 	tsteq	r9, r1
    18c4:	d0910351 	addsle	r0, r1, r1, asr r3
    18c8:	5201197d 	andpl	r1, r1, #2048000	; 0x1f4000
    18cc:	19800802 	stmibne	r0, {r1, fp}
    18d0:	02007d02 	andeq	r7, r0, #128	; 0x80
    18d4:	02190075 	andseq	r0, r9, #117, 0	; 0x75
    18d8:	3001047d 	andcc	r0, r1, sp, ror r4
    18dc:	8ce01800 	stclhi	8, cr1, [r0]
    18e0:	07420000 	strbeq	r0, [r2, -r0]
    18e4:	067b0000 	ldrbteq	r0, [fp], -r0
    18e8:	01190000 	tsteq	r9, r0
    18ec:	19320150 	ldmdbne	r2!, {r4, r6, r8}
    18f0:	91035101 	tstls	r3, r1, lsl #2
    18f4:	01197dd0 			; <UNDEFINED> instruction: 0x01197dd0
    18f8:	80080252 	andhi	r0, r8, r2, asr r2
    18fc:	007d0219 	rsbseq	r0, sp, r9, lsl r2
    1900:	19007502 	stmdbne	r0, {r1, r8, sl, ip, sp, lr}
    1904:	01047d02 	tsteq	r4, r2, lsl #26
    1908:	28180030 	ldmdacs	r8, {r4, r5}
    190c:	4200008d 	andmi	r0, r0, #141, 0	; 0x8d
    1910:	a8000007 	stmdage	r0, {r0, r1, r2}
    1914:	19000006 	stmdbne	r0, {r1, r2}
    1918:	38015001 	stmdacc	r1, {r0, ip, lr}
    191c:	03510119 	cmpeq	r1, #1073741830	; 0x40000006
    1920:	197dd091 	ldmdbne	sp!, {r0, r4, r7, ip, lr, pc}^
    1924:	08025201 	stmdaeq	r2, {r0, r9, ip, lr}
    1928:	7d021980 	vstrvc.16	s2, [r2, #-256]	; 0xffffff00	; <UNPREDICTABLE>
    192c:	00750200 	rsbseq	r0, r5, r0, lsl #4
    1930:	047d0219 	ldrbteq	r0, [sp], #-537	; 0xfffffde7
    1934:	18003001 	stmdane	r0, {r0, ip, sp}
    1938:	00008d48 	andeq	r8, r0, r8, asr #26
    193c:	00000a9e 	muleq	r0, lr, sl
    1940:	000006cb 	andeq	r0, r0, fp, asr #13
    1944:	05500119 	ldrbeq	r0, [r0, #-281]	; 0xfffffee7
    1948:	00998403 	addseq	r8, r9, r3, lsl #8
    194c:	51011900 	tstpl	r1, r0, lsl #18
    1950:	19007a02 	stmdbne	r0, {r1, r9, fp, ip, sp, lr}
    1954:	7a025201 	bvc	96160 <__bss_end__+0x8c140>
    1958:	581b0000 	ldmdapl	fp, {}	; <UNPREDICTABLE>
    195c:	dd00008d 	stcle	0, cr0, [r0, #-564]	; 0xfffffdcc
    1960:	19000006 	stmdbne	r0, {r1, r2}
    1964:	91045001 	tstls	r4, r1
    1968:	00067dc8 	andeq	r7, r6, r8, asr #27
    196c:	008d6c18 	addeq	r6, sp, r8, lsl ip
    1970:	000a9e00 	andeq	r9, sl, r0, lsl #28
    1974:	00070c00 	andeq	r0, r7, r0, lsl #24
    1978:	50011900 	andpl	r1, r1, r0, lsl #18
    197c:	99b40305 	ldmibls	r4!, {r0, r2, r8, r9}
    1980:	01190000 	tsteq	r9, r0
    1984:	90030551 	andls	r0, r3, r1, asr r5
    1988:	19000098 	stmdbne	r0, {r3, r4, r7}
    198c:	03055201 	movweq	r5, #20993	; 0x5201
    1990:	000099ec 	andeq	r9, r0, ip, ror #19
    1994:	02530119 	subseq	r0, r3, #1073741830	; 0x40000006
    1998:	1a00e208 	bne	3a1c0 <__bss_end__+0x301a0>
    199c:	00008d70 	andeq	r8, r0, r0, ror sp
    19a0:	00000ac2 	andeq	r0, r0, r2, asr #21
    19a4:	04080000 	streq	r0, [r8], #-0
    19a8:	000000b9 	strheq	r0, [r0], -r9
    19ac:	0000c01c 	andeq	ip, r0, ip, lsl r0
    19b0:	00072d00 	andeq	r2, r7, r0, lsl #26
    19b4:	002c1d00 	eoreq	r1, ip, r0, lsl #26
    19b8:	00090000 	andeq	r0, r9, r0
    19bc:	00071d09 	andeq	r1, r7, r9, lsl #26
    19c0:	00b91c00 	adcseq	r1, r9, r0, lsl #24
    19c4:	07420000 	strbeq	r0, [r2, -r0]
    19c8:	2c1d0000 	ldccs	0, cr0, [sp], {-0}
    19cc:	7f000000 	svcvc	0x00000000
    19d0:	05841e00 	streq	r1, [r4, #3584]	; 0xe00
    19d4:	49010000 	stmdbmi	r1, {}	; <UNPREDICTABLE>
    19d8:	00071701 	andeq	r1, r7, r1, lsl #14
    19dc:	00871000 	addeq	r1, r7, r0
    19e0:	0001b400 	andeq	fp, r1, r0, lsl #8
    19e4:	ab9c0100 	blge	fe701dec <__bss_end__+0xfe6f7dcc>
    19e8:	1f000008 	svcne	0x00000008
    19ec:	000005c9 	andeq	r0, r0, r9, asr #11
    19f0:	2c0f4901 			; <UNDEFINED> instruction: 0x2c0f4901
    19f4:	83000000 	movwhi	r0, #0
    19f8:	7d000009 	stcvc	0, cr0, [r0, #-36]	; 0xffffffdc
    19fc:	0e000009 	cdpeq	0, 0, cr0, cr0, cr9, {0}
    1a00:	00747364 	rsbseq	r7, r4, r4, ror #6
    1a04:	171b4901 	ldrne	r4, [fp, -r1, lsl #18]
    1a08:	c1000007 	tstgt	r0, r7
    1a0c:	b1000009 	tstlt	r0, r9
    1a10:	0e000009 	cdpeq	0, 0, cr0, cr0, cr9, {0}
    1a14:	4901006e 	stmdbmi	r1, {r1, r2, r3, r5, r6}
    1a18:	00002524 	andeq	r2, r0, r4, lsr #10
    1a1c:	000a2500 	andeq	r2, sl, r0, lsl #10
    1a20:	000a2100 	andeq	r2, sl, r0, lsl #2
    1a24:	61760e00 	cmnvs	r6, r0, lsl #28
    1a28:	4901006c 	stmdbmi	r1, {r2, r3, r5, r6}
    1a2c:	0000252b 	andeq	r2, r0, fp, lsr #10
    1a30:	000a4f00 	andeq	r4, sl, r0, lsl #30
    1a34:	000a4300 	andeq	r4, sl, r0, lsl #6
    1a38:	05141f00 	ldreq	r1, [r4, #-3840]	; 0xfffff100
    1a3c:	49010000 	stmdbmi	r1, {}	; <UNPREDICTABLE>
    1a40:	00002534 	andeq	r2, r0, r4, lsr r5
    1a44:	000aa500 	andeq	sl, sl, r0, lsl #10
    1a48:	000a9f00 	andeq	r9, sl, r0, lsl #30
    1a4c:	05ce0f00 	strbeq	r0, [lr, #3840]	; 0xf00
    1a50:	49010000 	stmdbmi	r1, {}	; <UNPREDICTABLE>
    1a54:	0000253f 	andeq	r2, r0, pc, lsr r5
    1a58:	04910200 	ldreq	r0, [r1], #512	; 0x200
    1a5c:	66756214 			; <UNDEFINED> instruction: 0x66756214
    1a60:	074e0100 	strbeq	r0, [lr, -r0, lsl #2]
    1a64:	000008ab 	andeq	r0, r0, fp, lsr #17
    1a68:	7fa89103 	svcvc	0x00a89103
    1a6c:	01007010 	tsteq	r0, r0, lsl r0
    1a70:	0717114e 	ldreq	r1, [r7, -lr, asr #2]
    1a74:	0aef0000 	beq	ffbc1a7c <__bss_end__+0xffbb7a5c>
    1a78:	0acf0000 	beq	ff3c1a80 <__bss_end__+0xff3b7a60>
    1a7c:	75100000 	ldrvc	r0, [r0, #-0]
    1a80:	0b4f0100 	bleq	13c1e88 <__bss_end__+0x13b7e68>
    1a84:	0000002c 	andeq	r0, r0, ip, lsr #32
    1a88:	00000bd5 	ldrdeq	r0, [r0], -r5
    1a8c:	00000bc1 	andeq	r0, r0, r1, asr #23
    1a90:	00011212 	andeq	r1, r1, r2, lsl r2
    1a94:	0008cb00 	andeq	ip, r8, r0, lsl #22
    1a98:	d4030500 	strle	r0, [r3], #-1280	; 0xfffffb00
    1a9c:	16000099 			; <UNDEFINED> instruction: 0x16000099
    1aa0:	0000877c 	andeq	r8, r0, ip, ror r7
    1aa4:	00000078 	andeq	r0, r0, r8, ror r0
    1aa8:	00000832 	andeq	r0, r0, r2, lsr r8
    1aac:	00057111 	andeq	r7, r5, r1, lsl r1
    1ab0:	0d540100 	ldfeqe	f0, [r4, #-0]
    1ab4:	0000002c 	andeq	r0, r0, ip, lsr #32
    1ab8:	00000c56 	andeq	r0, r0, r6, asr ip
    1abc:	00000c4e 	andeq	r0, r0, lr, asr #24
    1ac0:	88341800 	ldmdahi	r4!, {fp, ip}
    1ac4:	095d0000 	ldmdbeq	sp, {}^	; <UNPREDICTABLE>
    1ac8:	08470000 	stmdaeq	r7, {}^	; <UNPREDICTABLE>
    1acc:	01190000 	tsteq	r9, r0
    1ad0:	a0910351 	addsge	r0, r1, r1, asr r3
    1ad4:	4818007f 	ldmdami	r8, {r0, r1, r2, r3, r4, r5, r6}
    1ad8:	d0000088 	andle	r0, r0, r8, lsl #1
    1adc:	68000008 	stmdavs	r0, {r3}
    1ae0:	19000008 	stmdbne	r0, {r3}
    1ae4:	75025001 	strvc	r5, [r2, #-1]
    1ae8:	51011900 	tstpl	r1, r0, lsl #18
    1aec:	19007402 	stmdbne	r0, {r1, sl, ip, sp, lr}
    1af0:	91035301 	tstls	r3, r1, lsl #6
    1af4:	18007fa0 	stmdane	r0, {r5, r7, r8, r9, sl, fp, ip, sp, lr}
    1af8:	000088a0 	andeq	r8, r0, r0, lsr #17
    1afc:	00000a9e 	muleq	r0, lr, sl
    1b00:	000008a1 	andeq	r0, r0, r1, lsr #17
    1b04:	05500119 	ldrbeq	r0, [r0, #-281]	; 0xfffffee7
    1b08:	00971803 	addseq	r1, r7, r3, lsl #16
    1b0c:	51011900 	tstpl	r1, r0, lsl #18
    1b10:	98900305 	ldmls	r0, {r0, r2, r8, r9}
    1b14:	01190000 	tsteq	r9, r0
    1b18:	d4030552 	strle	r0, [r3], #-1362	; 0xfffffaae
    1b1c:	19000099 	stmdbne	r0, {r0, r3, r4, r7}
    1b20:	08025301 	stmdaeq	r2, {r0, r8, r9, ip, lr}
    1b24:	7d021979 	vstrvc.16	s2, [r2, #-242]	; 0xffffff0e	; <UNPREDICTABLE>
    1b28:	a4030500 	strge	r0, [r3], #-1280	; 0xfffffb00
    1b2c:	00000098 	muleq	r0, r8, r0
    1b30:	0088a41a 	addeq	sl, r8, sl, lsl r4
    1b34:	000ac200 	andeq	ip, sl, r0, lsl #4
    1b38:	b91c0000 	ldmdblt	ip, {}	; <UNPREDICTABLE>
    1b3c:	bb000000 	bllt	1b44 <__code_start__-0x64bc>
    1b40:	1d000008 	stcne	0, cr0, [r0, #-32]	; 0xffffffe0
    1b44:	0000002c 	andeq	r0, r0, ip, lsr #32
    1b48:	c01c003f 	andsgt	r0, ip, pc, lsr r0
    1b4c:	cb000000 	blgt	1b54 <__code_start__-0x64ac>
    1b50:	1d000008 	stcne	0, cr0, [r0, #-32]	; 0xffffffe0
    1b54:	0000002c 	andeq	r0, r0, ip, lsr #32
    1b58:	bb090004 	bllt	241b70 <__bss_end__+0x237b50>
    1b5c:	1e000008 	cdpne	0, 0, cr0, cr0, cr8, {0}
    1b60:	00000591 	muleq	r0, r1, r5
    1b64:	170e3801 	strne	r3, [lr, -r1, lsl #16]
    1b68:	d8000007 	stmdale	r0, {r0, r1, r2}
    1b6c:	38000086 	stmdacc	r0, {r1, r2, r7}
    1b70:	01000000 	mrseq	r0, (UNDEF: 0)
    1b74:	00095d9c 	muleq	r9, ip, sp
    1b78:	73640e00 	cmnvc	r4, #0, 28
    1b7c:	38010074 	stmdacc	r1, {r2, r4, r5, r6}
    1b80:	0007171c 	andeq	r1, r7, ip, lsl r7
    1b84:	000c9700 	andeq	r9, ip, r0, lsl #14
    1b88:	000c8d00 	andeq	r8, ip, r0, lsl #26
    1b8c:	006e0e00 	rsbeq	r0, lr, r0, lsl #28
    1b90:	25253801 	strcs	r3, [r5, #-2049]!	; 0xfffff7ff
    1b94:	de000000 	cdple	0, 0, cr0, cr0, cr0, {0}
    1b98:	da00000c 	ble	1bd0 <__code_start__-0x6430>
    1b9c:	0e00000c 	cdpeq	0, 0, cr0, cr0, cr12, {0}
    1ba0:	38010070 	stmdacc	r1, {r4, r5, r6}
    1ba4:	0007172e 	andeq	r1, r7, lr, lsr #14
    1ba8:	000d0700 	andeq	r0, sp, r0, lsl #14
    1bac:	000cff00 	andeq	pc, ip, r0, lsl #30
    1bb0:	095d1f00 	ldmdbeq	sp, {r8, r9, sl, fp, ip}^
    1bb4:	38010000 	stmdacc	r1, {}	; <UNPREDICTABLE>
    1bb8:	00071737 	andeq	r1, r7, r7, lsr r7
    1bbc:	000d4100 	andeq	r4, sp, r0, lsl #2
    1bc0:	000d3d00 	andeq	r3, sp, r0, lsl #26
    1bc4:	656c1000 	strbvs	r1, [ip, #-0]!
    1bc8:	3a01006e 	bcc	41d88 <__bss_end__+0x37d68>
    1bcc:	00002506 	andeq	r2, r0, r6, lsl #10
    1bd0:	000d6700 	andeq	r6, sp, r0, lsl #14
    1bd4:	000d5f00 	andeq	r5, sp, r0, lsl #30
    1bd8:	00731000 	rsbseq	r1, r3, r0
    1bdc:	17083e01 	strne	r3, [r8, -r1, lsl #28]
    1be0:	b5000007 	strlt	r0, [r0, #-7]
    1be4:	b300000d 	movwlt	r0, #13
    1be8:	0000000d 	andeq	r0, r0, sp
    1bec:	64617020 	strbtvs	r7, [r1], #-32	; 0xffffffe0
    1bf0:	0e2e0100 	sufeqe	f0, f6, f0
    1bf4:	00000717 	andeq	r0, r0, r7, lsl r7
    1bf8:	000086b4 			; <UNDEFINED> instruction: 0x000086b4
    1bfc:	00000024 	andeq	r0, r0, r4, lsr #32
    1c00:	09c09c01 	stmibeq	r0, {r0, sl, fp, ip, pc}^
    1c04:	700e0000 	andvc	r0, lr, r0
    1c08:	182e0100 	stmdane	lr!, {r8}
    1c0c:	00000717 	andeq	r0, r0, r7, lsl r7
    1c10:	00000dce 	andeq	r0, r0, lr, asr #27
    1c14:	00000dc8 	andeq	r0, r0, r8, asr #27
    1c18:	0005c91f 	andeq	ip, r5, pc, lsl r9
    1c1c:	222e0100 	eorcs	r0, lr, #0
    1c20:	00000717 	andeq	r0, r0, r7, lsl r7
    1c24:	00000dfd 	strdeq	r0, [r0], -sp
    1c28:	00000df9 	strdeq	r0, [r0], -r9
    1c2c:	0005140f 	andeq	r1, r5, pc, lsl #8
    1c30:	2c2e0100 	stfcss	f0, [lr], #-0
    1c34:	00000025 	andeq	r0, r0, r5, lsr #32
    1c38:	6c105201 	lfmvs	f5, 4, [r0], {1}
    1c3c:	01006e65 	tsteq	r0, r5, ror #28
    1c40:	0025062f 	eoreq	r0, r5, pc, lsr #12
    1c44:	0e200000 	cdpeq	0, 2, cr0, cr0, cr0, {0}
    1c48:	0e1e0000 	cdpeq	0, 1, cr0, cr14, cr0, {0}
    1c4c:	1e000000 	cdpne	0, 0, cr0, cr0, cr0, {0}
    1c50:	000004d3 	ldrdeq	r0, [r0], -r3
    1c54:	250c2701 	strcs	r2, [ip, #-1793]	; 0xfffff8ff
    1c58:	a0000000 	andge	r0, r0, r0
    1c5c:	14000086 	strne	r0, [r0], #-134	; 0xffffff7a
    1c60:	01000000 	mrseq	r0, (UNDEF: 0)
    1c64:	0009ed9c 	muleq	r9, ip, sp
    1c68:	00630e00 	rsbeq	r0, r3, r0, lsl #28
    1c6c:	25182701 	ldrcs	r2, [r8, #-1793]	; 0xfffff8ff
    1c70:	39000000 	stmdbcc	r0, {}	; <UNPREDICTABLE>
    1c74:	3300000e 	movwcc	r0, #14
    1c78:	0000000e 	andeq	r0, r0, lr
    1c7c:	00054a21 	andeq	r4, r5, r1, lsr #20
    1c80:	061f0100 	ldreq	r0, [pc], -r0, lsl #2
    1c84:	000088c4 	andeq	r8, r0, r4, asr #17
    1c88:	00000064 	andeq	r0, r0, r4, rrx
    1c8c:	0a7d9c01 	beq	1f68c98 <__bss_end__+0x1f5ec78>
    1c90:	271f0000 	ldrcs	r0, [pc, -r0]
    1c94:	01000005 	tsteq	r0, r5
    1c98:	009e1b1f 	addseq	r1, lr, pc, lsl fp
    1c9c:	0e6b0000 	cdpeq	0, 6, cr0, cr11, cr0, {0}
    1ca0:	0e670000 	cdpeq	0, 6, cr0, cr7, cr0, {0}
    1ca4:	891f0000 	ldmdbhi	pc, {}	; <UNPREDICTABLE>
    1ca8:	01000005 	tsteq	r0, r5
    1cac:	00d1301f 	sbcseq	r3, r1, pc, lsl r0
    1cb0:	0e900000 	cdpeq	0, 9, cr0, cr0, cr0, {0}
    1cb4:	0e8c0000 	cdpeq	0, 8, cr0, cr12, cr0, {0}
    1cb8:	12120000 	andsne	r0, r2, #0, 0
    1cbc:	8d000001 	stchi	0, cr0, [r0, #-4]
    1cc0:	0500000a 	streq	r0, [r0, #-10]
    1cc4:	0099dc03 	addseq	sp, r9, r3, lsl #24
    1cc8:	890c1800 	stmdbhi	ip, {fp, ip}
    1ccc:	0a9e0000 	beq	fe781cd4 <__bss_end__+0xfe777cb4>
    1cd0:	0a730000 	beq	1cc1cd8 <__bss_end__+0x1cb7cb8>
    1cd4:	01190000 	tsteq	r9, r0
    1cd8:	18030550 	stmdane	r3, {r4, r6, r8, sl}
    1cdc:	19000097 	stmdbne	r0, {r0, r1, r2, r4, r7}
    1ce0:	03055101 	movweq	r5, #20737	; 0x5101
    1ce4:	00009890 	muleq	r0, r0, r8
    1ce8:	05520119 	ldrbeq	r0, [r2, #-281]	; 0xfffffee7
    1cec:	0099dc03 	addseq	sp, r9, r3, lsl #24
    1cf0:	53011900 	movwpl	r1, #6400	; 0x1900
    1cf4:	19200802 	stmdbne	r0!, {r1, fp}
    1cf8:	05007d02 	streq	r7, [r0, #-3330]	; 0xfffff2fe
    1cfc:	0098cc03 	addseq	ip, r8, r3, lsl #24
    1d00:	101a0000 	andsne	r0, sl, r0
    1d04:	c2000089 	andgt	r0, r0, #137, 0	; 0x89
    1d08:	0000000a 	andeq	r0, r0, sl
    1d0c:	0000c01c 	andeq	ip, r0, ip, lsl r0
    1d10:	000a8d00 	andeq	r8, sl, r0, lsl #26
    1d14:	002c1d00 	eoreq	r1, ip, r0, lsl #26
    1d18:	000e0000 	andeq	r0, lr, r0
    1d1c:	000a7d09 	andeq	r7, sl, r9, lsl #26
    1d20:	05c12200 	strbeq	r2, [r1, #512]	; 0x200
    1d24:	05c10000 	strbeq	r0, [r1]
    1d28:	eb030000 	bl	c1d30 <__bss_end__+0xb7d10>
    1d2c:	04452205 	strbeq	r2, [r5], #-517	; 0xfffffdfb
    1d30:	04450000 	strbeq	r0, [r5], #-0
    1d34:	28030000 	stmdacs	r3, {}	; <UNPREDICTABLE>
    1d38:	05992206 	ldreq	r2, [r9, #518]	; 0x206
    1d3c:	05990000 	ldreq	r0, [r9]
    1d40:	ea030000 	b	c1d48 <__bss_end__+0xb7d28>
    1d44:	056a2205 	strbeq	r2, [sl, #-517]!	; 0xfffffdfb
    1d48:	056a0000 	strbeq	r0, [sl, #-0]!
    1d4c:	ed030000 	stc	0, cr0, [r3, #-0]
    1d50:	00a02207 	adceq	r2, r0, r7, lsl #4
    1d54:	00a00000 	adceq	r0, r0, r0
    1d58:	6e030000 	cdpvs	0, 0, cr0, cr3, cr0, {0}
    1d5c:	05632206 	strbeq	r2, [r3, #-518]!	; 0xfffffdfa
    1d60:	05630000 	strbeq	r0, [r3, #-0]!
    1d64:	ee030000 	cdp	0, 0, cr0, cr3, cr0, {0}
    1d68:	012f0007 			; <UNDEFINED> instruction: 0x012f0007
    1d6c:	00040000 	andeq	r0, r4, r0
    1d70:	000007cd 	andeq	r0, r0, sp, asr #15
    1d74:	02910104 	addseq	r0, r1, #1
    1d78:	eb0c0000 	bl	301d80 <__bss_end__+0x2f7d60>
    1d7c:	5c000005 	stcpl	0, cr0, [r0], {5}
    1d80:	e0000004 	and	r0, r0, r4
    1d84:	2c00008d 	stccs	0, cr0, [r0], {141}	; 0x8d
    1d88:	83000000 	movwhi	r0, #0
    1d8c:	0200000e 	andeq	r0, r0, #14, 0
    1d90:	6e690504 	cdpvs	5, 6, cr0, cr9, cr4, {0}
    1d94:	04030074 	streq	r0, [r3], #-116	; 0xffffff8c
    1d98:	0001b207 	andeq	fp, r1, r7, lsl #4
    1d9c:	06010300 	streq	r0, [r1], -r0, lsl #6
    1da0:	00000165 	andeq	r0, r0, r5, ror #2
    1da4:	2a050203 	bcs	1425b8 <__bss_end__+0x138598>
    1da8:	03000000 	movweq	r0, #0
    1dac:	00e40504 	rsceq	r0, r4, r4, lsl #10
    1db0:	08030000 	stmdaeq	r3, {}	; <UNPREDICTABLE>
    1db4:	0000df05 	andeq	sp, r0, r5, lsl #30
    1db8:	08010300 	stmdaeq	r1, {r8, r9}
    1dbc:	00000163 	andeq	r0, r0, r3, ror #2
    1dc0:	f8070203 			; <UNDEFINED> instruction: 0xf8070203
    1dc4:	03000001 	movweq	r0, #1
    1dc8:	01ad0704 			; <UNDEFINED> instruction: 0x01ad0704
    1dcc:	08030000 	stmdaeq	r3, {}	; <UNPREDICTABLE>
    1dd0:	0001a807 	andeq	sl, r1, r7, lsl #16
    1dd4:	00250400 	eoreq	r0, r5, r0, lsl #8
    1dd8:	007a0000 	rsbseq	r0, sl, r0
    1ddc:	25050000 	strcs	r0, [r5, #-0]
    1de0:	00000000 	andeq	r0, r0, r0
    1de4:	00006806 	andeq	r6, r0, r6, lsl #16
    1de8:	0e1c0200 	cdpeq	2, 1, cr0, cr12, cr0, {0}
    1dec:	00000086 	andeq	r0, r0, r6, lsl #1
    1df0:	006b0407 	rsbeq	r0, fp, r7, lsl #8
    1df4:	25040000 	strcs	r0, [r4, #-0]
    1df8:	9b000000 	blls	1e00 <__code_start__-0x6200>
    1dfc:	05000000 	streq	r0, [r0, #-0]
    1e00:	0000009b 	muleq	r0, fp, r0
    1e04:	a8040700 	stmdage	r4, {r8, r9, sl}
    1e08:	03000000 	movweq	r0, #0
    1e0c:	016c0801 	cmneq	ip, r1, lsl #16
    1e10:	a1080000 	mrsge	r0, (UNDEF: 8)
    1e14:	06000000 	streq	r0, [r0], -r0
    1e18:	000004c0 	andeq	r0, r0, r0, asr #9
    1e1c:	b90e2102 	stmdblt	lr, {r1, r8, sp}
    1e20:	07000000 	streq	r0, [r0, -r0]
    1e24:	00008c04 	andeq	r8, r0, r4, lsl #24
    1e28:	00a00900 	adceq	r0, r0, r0, lsl #18
    1e2c:	04010000 	streq	r0, [r1], #-0
    1e30:	008de006 	addeq	lr, sp, r6
    1e34:	00002c00 	andeq	r2, r0, r0, lsl #24
    1e38:	0e9c0100 	fmleqe	f0, f4, f0
    1e3c:	0a000001 	beq	1e48 <__code_start__-0x61b8>
    1e40:	00008df4 	strdeq	r8, [r0], -r4
    1e44:	000000e8 	andeq	r0, r0, r8, ror #1
    1e48:	0550010b 	ldrbeq	r0, [r0, #-267]	; 0xfffffef5
    1e4c:	0099f803 	addseq	pc, r9, r3, lsl #16
    1e50:	f80c0000 			; <UNDEFINED> instruction: 0xf80c0000
    1e54:	0e00008d 	cdpeq	0, 0, cr0, cr0, cr13, {4}
    1e58:	0d000001 	stceq	0, cr0, [r0, #-4]
    1e5c:	00008e00 	andeq	r8, r0, r0, lsl #28
    1e60:	0000011a 	andeq	r0, r0, sl, lsl r1
    1e64:	00000104 	andeq	r0, r0, r4, lsl #2
    1e68:	0150010b 	cmpeq	r0, fp, lsl #2
    1e6c:	040c003a 	streq	r0, [ip], #-58	; 0xffffffc6
    1e70:	2600008e 	strcs	r0, [r0], -lr, lsl #1
    1e74:	00000001 	andeq	r0, r0, r1
    1e78:	0006060e 	andeq	r0, r6, lr, lsl #12
    1e7c:	00060600 	andeq	r0, r6, r0, lsl #12
    1e80:	064d0200 	strbeq	r0, [sp], -r0, lsl #4
    1e84:	0005e20e 	andeq	lr, r5, lr, lsl #4
    1e88:	0005e200 	andeq	lr, r5, r0, lsl #4
    1e8c:	06580200 	ldrbeq	r0, [r8], -r0, lsl #4
    1e90:	0005d70e 	andeq	sp, r5, lr, lsl #14
    1e94:	0005d700 	andeq	sp, r5, r0, lsl #14
    1e98:	066b0200 	strbteq	r0, [fp], -r0, lsl #4
    1e9c:	00018900 	andeq	r8, r1, r0, lsl #18
    1ea0:	8d000400 	cfstrshi	mvf0, [r0, #-0]
    1ea4:	04000008 	streq	r0, [r0], #-8
    1ea8:	00029101 	andeq	r9, r2, r1, lsl #2
    1eac:	063c0c00 	ldrteq	r0, [ip], -r0, lsl #24
    1eb0:	045c0000 	ldrbeq	r0, [ip], #-0
    1eb4:	8e0c0000 	cdphi	0, 0, cr0, cr12, cr0, {0}
    1eb8:	003c0000 	eorseq	r0, ip, r0
    1ebc:	0f060000 	svceq	0x00060000
    1ec0:	04020000 	streq	r0, [r2], #-0
    1ec4:	746e6905 	strbtvc	r6, [lr], #-2309	; 0xfffff6fb
    1ec8:	07040300 	streq	r0, [r4, -r0, lsl #6]
    1ecc:	000001b2 			; <UNDEFINED> instruction: 0x000001b2
    1ed0:	65060103 	strvs	r0, [r6, #-259]	; 0xfffffefd
    1ed4:	03000001 	movweq	r0, #1
    1ed8:	002a0502 	eoreq	r0, sl, r2, lsl #10
    1edc:	04030000 	streq	r0, [r3], #-0
    1ee0:	0000e405 	andeq	lr, r0, r5, lsl #8
    1ee4:	05080300 	streq	r0, [r8, #-768]	; 0xfffffd00
    1ee8:	000000df 	ldrdeq	r0, [r0], -pc	; <UNPREDICTABLE>
    1eec:	63080103 	movwvs	r0, #33027	; 0x8103
    1ef0:	03000001 	movweq	r0, #1
    1ef4:	01f80702 	mvnseq	r0, r2, lsl #14
    1ef8:	04030000 	streq	r0, [r3], #-0
    1efc:	0001ad07 	andeq	sl, r1, r7, lsl #26
    1f00:	07080300 	streq	r0, [r8, -r0, lsl #6]
    1f04:	000001a8 	andeq	r0, r0, r8, lsr #3
    1f08:	00002504 	andeq	r2, r0, r4, lsl #10
    1f0c:	00007a00 	andeq	r7, r0, r0, lsl #20
    1f10:	00250500 	eoreq	r0, r5, r0, lsl #10
    1f14:	06000000 	streq	r0, [r0], -r0
    1f18:	00000068 	andeq	r0, r0, r8, rrx
    1f1c:	860e1c02 	strhi	r1, [lr], -r2, lsl #24
    1f20:	07000000 	streq	r0, [r0, -r0]
    1f24:	00006b04 	andeq	r6, r0, r4, lsl #22
    1f28:	00250400 	eoreq	r0, r5, r0, lsl #8
    1f2c:	009b0000 	addseq	r0, fp, r0
    1f30:	9b050000 	blls	141f38 <__bss_end__+0x137f18>
    1f34:	00000000 	andeq	r0, r0, r0
    1f38:	00a80407 	adceq	r0, r8, r7, lsl #8
    1f3c:	01030000 	mrseq	r0, (UNDEF: 3)
    1f40:	00016c08 	andeq	r6, r1, r8, lsl #24
    1f44:	00a10800 	adceq	r0, r1, r0, lsl #16
    1f48:	c0060000 	andgt	r0, r6, r0
    1f4c:	02000004 	andeq	r0, r0, #4, 0
    1f50:	00b90e21 	adcseq	r0, r9, r1, lsr #28
    1f54:	04070000 	streq	r0, [r7], #-0
    1f58:	0000008c 	andeq	r0, r0, ip, lsl #1
    1f5c:	00061409 	andeq	r1, r6, r9, lsl #8
    1f60:	06040100 	streq	r0, [r4], -r0, lsl #2
    1f64:	00008e0c 	andeq	r8, r0, ip, lsl #28
    1f68:	0000003c 	andeq	r0, r0, ip, lsr r0
    1f6c:	01549c01 	cmpeq	r4, r1, lsl #24
    1f70:	06060000 	streq	r0, [r6], -r0
    1f74:	01000005 	tsteq	r0, r5
    1f78:	00251005 	eoreq	r1, r5, r5
    1f7c:	2f060000 	svccs	0x00060000
    1f80:	01000005 	tsteq	r0, r5
    1f84:	00251f05 	eoreq	r1, r5, r5, lsl #30
    1f88:	f00a0000 			; <UNDEFINED> instruction: 0xf00a0000
    1f8c:	01000001 	tsteq	r0, r1
    1f90:	620b0706 	andvs	r0, fp, #1572864	; 0x180000
    1f94:	01007373 	tsteq	r0, r3, ror r3
    1f98:	01540a0a 	cmpeq	r4, sl, lsl #20
    1f9c:	0eb70000 	cdpeq	0, 11, cr0, cr7, cr0, {0}
    1fa0:	0eb10000 	cdpeq	0, 11, cr0, cr1, cr0, {0}
    1fa4:	1c0c0000 	stcne	0, cr0, [ip], {-0}
    1fa8:	01000006 	tsteq	r0, r6
    1fac:	01540a0b 	cmpeq	r4, fp, lsl #20
    1fb0:	300d0000 	andcc	r0, sp, r0
    1fb4:	0800008e 	stmdaeq	r0, {r1, r2, r3, r7}
    1fb8:	2f000000 	svccs	0x00000000
    1fbc:	0e000001 	cdpeq	0, 0, cr0, cr0, cr1, {0}
    1fc0:	01006e69 	tsteq	r0, r9, ror #28
    1fc4:	002c0514 	eoreq	r0, ip, r4, lsl r5
    1fc8:	00010000 	andeq	r0, r1, r0
    1fcc:	008e140f 	addeq	r1, lr, pc, lsl #8
    1fd0:	00015a00 	andeq	r5, r1, r0, lsl #20
    1fd4:	8e300f00 	cdphi	15, 3, cr0, cr0, cr0, {0}
    1fd8:	01670000 	cmneq	r7, r0
    1fdc:	3c0f0000 	stccc	0, cr0, [pc], {-0}
    1fe0:	7300008e 	movwvc	r0, #142	; 0x8e
    1fe4:	0f000001 	svceq	0x00000001
    1fe8:	00008e40 	andeq	r8, r0, r0, asr #28
    1fec:	00000180 	andeq	r0, r0, r0, lsl #3
    1ff0:	25040700 	strcs	r0, [r4, #-1792]	; 0xfffff900
    1ff4:	10000000 	andne	r0, r0, r0
    1ff8:	0000062e 	andeq	r0, r0, lr, lsr #12
    1ffc:	0000062e 	andeq	r0, r0, lr, lsr #12
    2000:	06013102 	streq	r3, [r1], -r2, lsl #2
    2004:	00062411 	andeq	r2, r6, r1, lsl r4
    2008:	00062400 	andeq	r2, r6, r0, lsl #8
    200c:	063b0200 	ldrteq	r0, [fp], -r0, lsl #4
    2010:	0001f010 	andeq	pc, r1, r0, lsl r0	; <UNPREDICTABLE>
    2014:	0001f000 	andeq	pc, r1, r0
    2018:	01050200 	mrseq	r0, SP_usr
    201c:	00a01106 	adceq	r1, r0, r6, lsl #2
    2020:	00a00000 	adceq	r0, r0, r0
    2024:	6e020000 	cdpvs	0, 0, cr0, cr2, cr0, {0}
    2028:	00ce0006 	sbceq	r0, lr, r6
    202c:	00040000 	andeq	r0, r4, r0
    2030:	00000989 	andeq	r0, r0, r9, lsl #19
    2034:	02910104 	addseq	r0, r1, #1
    2038:	510c0000 	mrspl	r0, (UNDEF: 12)
    203c:	5c000006 	stcpl	0, cr0, [r0], {6}
    2040:	48000004 	stmdami	r0, {r2}
    2044:	0400008e 	streq	r0, [r0], #-142	; 0xffffff72
    2048:	a3000000 	movwge	r0, #0
    204c:	0200000f 	andeq	r0, r0, #15, 0
    2050:	6e690504 	cdpvs	5, 6, cr0, cr9, cr4, {0}
    2054:	04030074 	streq	r0, [r3], #-116	; 0xffffff8c
    2058:	0001b207 	andeq	fp, r1, r7, lsl #4
    205c:	06010300 	streq	r0, [r1], -r0, lsl #6
    2060:	00000165 	andeq	r0, r0, r5, ror #2
    2064:	2a050203 	bcs	142878 <__bss_end__+0x138858>
    2068:	03000000 	movweq	r0, #0
    206c:	00e40504 	rsceq	r0, r4, r4, lsl #10
    2070:	08030000 	stmdaeq	r3, {}	; <UNPREDICTABLE>
    2074:	0000df05 	andeq	sp, r0, r5, lsl #30
    2078:	08010300 	stmdaeq	r1, {r8, r9}
    207c:	00000163 	andeq	r0, r0, r3, ror #2
    2080:	f8070203 			; <UNDEFINED> instruction: 0xf8070203
    2084:	03000001 	movweq	r0, #1
    2088:	01ad0704 			; <UNDEFINED> instruction: 0x01ad0704
    208c:	08030000 	stmdaeq	r3, {}	; <UNPREDICTABLE>
    2090:	0001a807 	andeq	sl, r1, r7, lsl #16
    2094:	00250400 	eoreq	r0, r5, r0, lsl #8
    2098:	007a0000 	rsbseq	r0, sl, r0
    209c:	25050000 	strcs	r0, [r5, #-0]
    20a0:	00000000 	andeq	r0, r0, r0
    20a4:	00006806 	andeq	r6, r0, r6, lsl #16
    20a8:	0e1c0200 	cdpeq	2, 1, cr0, cr12, cr0, {0}
    20ac:	00000086 	andeq	r0, r0, r6, lsl #1
    20b0:	006b0407 	rsbeq	r0, fp, r7, lsl #8
    20b4:	25040000 	strcs	r0, [r4, #-0]
    20b8:	9b000000 	blls	20c0 <__code_start__-0x5f40>
    20bc:	05000000 	streq	r0, [r0, #-0]
    20c0:	0000009b 	muleq	r0, fp, r0
    20c4:	a8040700 	stmdage	r4, {r8, r9, sl}
    20c8:	03000000 	movweq	r0, #0
    20cc:	016c0801 	cmneq	ip, r1, lsl #16
    20d0:	a1080000 	mrsge	r0, (UNDEF: 8)
    20d4:	06000000 	streq	r0, [r0], -r0
    20d8:	000004c0 	andeq	r0, r0, r0, asr #9
    20dc:	b90e2102 	stmdblt	lr, {r1, r8, sp}
    20e0:	07000000 	streq	r0, [r0, -r0]
    20e4:	00008c04 	andeq	r8, r0, r4, lsl #24
    20e8:	062e0900 	strteq	r0, [lr], -r0, lsl #18
    20ec:	04010000 	streq	r0, [r1], #-0
    20f0:	008e4806 	addeq	r4, lr, r6, lsl #16
    20f4:	00000400 	andeq	r0, r0, r0, lsl #8
    20f8:	009c0100 	addseq	r0, ip, r0, lsl #2
    20fc:	00000236 	andeq	r0, r0, r6, lsr r2
    2100:	0a020004 	beq	82118 <__bss_end__+0x780f8>
    2104:	01040000 	mrseq	r0, (UNDEF: 4)
    2108:	00000291 	muleq	r0, r1, r2
    210c:	0006990c 	andeq	r9, r6, ip, lsl #18
    2110:	00045c00 	andeq	r5, r4, r0, lsl #24
    2114:	00001800 	andeq	r1, r0, r0, lsl #16
    2118:	00000000 	andeq	r0, r0, r0
    211c:	00102400 	andseq	r2, r0, r0, lsl #8
    2120:	05040200 	streq	r0, [r4, #-512]	; 0xfffffe00
    2124:	00746e69 	rsbseq	r6, r4, r9, ror #28
    2128:	00002503 	andeq	r2, r0, r3, lsl #10
    212c:	07040400 	streq	r0, [r4, -r0, lsl #8]
    2130:	000001b2 			; <UNDEFINED> instruction: 0x000001b2
    2134:	65060104 	strvs	r0, [r6, #-260]	; 0xfffffefc
    2138:	04000001 	streq	r0, [r0], #-1
    213c:	002a0502 	eoreq	r0, sl, r2, lsl #10
    2140:	04040000 	streq	r0, [r4], #-0
    2144:	0000e405 	andeq	lr, r0, r5, lsl #8
    2148:	05080400 	streq	r0, [r8, #-1024]	; 0xfffffc00
    214c:	000000df 	ldrdeq	r0, [r0], -pc	; <UNPREDICTABLE>
    2150:	63080104 	movwvs	r0, #33028	; 0x8104
    2154:	04000001 	streq	r0, [r0], #-1
    2158:	01f80702 	mvnseq	r0, r2, lsl #14
    215c:	04040000 	streq	r0, [r4], #-0
    2160:	0001ad07 	andeq	sl, r1, r7, lsl #26
    2164:	07080400 	streq	r0, [r8, -r0, lsl #8]
    2168:	000001a8 	andeq	r0, r0, r8, lsr #3
    216c:	00002505 	andeq	r2, r0, r5, lsl #10
    2170:	00007f00 	andeq	r7, r0, r0, lsl #30
    2174:	00250600 	eoreq	r0, r5, r0, lsl #12
    2178:	07000000 	streq	r0, [r0, -r0]
    217c:	00000068 	andeq	r0, r0, r8, rrx
    2180:	8b0e1c02 	blhi	389190 <__bss_end__+0x37f170>
    2184:	08000000 	stmdaeq	r0, {}	; <UNPREDICTABLE>
    2188:	00007004 	andeq	r7, r0, r4
    218c:	00250500 	eoreq	r0, r5, r0, lsl #10
    2190:	00a00000 	adceq	r0, r0, r0
    2194:	a0060000 	andge	r0, r6, r0
    2198:	00000000 	andeq	r0, r0, r0
    219c:	00ad0408 	adceq	r0, sp, r8, lsl #8
    21a0:	01040000 	mrseq	r0, (UNDEF: 4)
    21a4:	00016c08 	andeq	r6, r1, r8, lsl #24
    21a8:	00a60300 	adceq	r0, r6, r0, lsl #6
    21ac:	c0070000 	andgt	r0, r7, r0
    21b0:	02000004 	andeq	r0, r0, #4, 0
    21b4:	00be0e21 	adcseq	r0, lr, r1, lsr #28
    21b8:	04080000 	streq	r0, [r8], #-0
    21bc:	00000091 	muleq	r0, r1, r0
    21c0:	0006bd09 	andeq	fp, r6, r9, lsl #26
    21c4:	110d0100 	mrsne	r0, (UNDEF: 29)
    21c8:	00000031 	andeq	r0, r0, r1, lsr r0
    21cc:	0005d70a 	andeq	sp, r5, sl, lsl #14
    21d0:	061f0100 	ldreq	r0, [pc], -r0, lsl #2
    21d4:	00008e78 	andeq	r8, r0, r8, ror lr
    21d8:	00000054 	andeq	r0, r0, r4, asr r0
    21dc:	01ae9c01 			; <UNDEFINED> instruction: 0x01ae9c01
    21e0:	e10b0000 	mrs	r0, (UNDEF: 11)
    21e4:	01000006 	tsteq	r0, r6
    21e8:	002c0f2c 	eoreq	r0, ip, ip, lsr #30
    21ec:	0ee40000 	cdpeq	0, 14, cr0, cr4, cr0, {0}
    21f0:	0ee20000 	cdpeq	0, 14, cr0, cr2, cr0, {0}
    21f4:	7c0b0000 	stcvc	0, cr0, [fp], {-0}
    21f8:	01000006 	tsteq	r0, r6
    21fc:	002c0f2d 	eoreq	r0, ip, sp, lsr #30
    2200:	0efe0000 	cdpeq	0, 15, cr0, cr14, cr0, {0}
    2204:	0efc0000 	cdpeq	0, 15, cr0, cr12, cr0, {0}
    2208:	ae0b0000 	cdpge	0, 0, cr0, cr11, cr0, {0}
    220c:	01000006 	tsteq	r0, r6
    2210:	002c0f2e 	eoreq	r0, ip, lr, lsr #30
    2214:	0f180000 	svceq	0x00180000
    2218:	0f160000 	svceq	0x00160000
    221c:	c80b0000 	stmdagt	fp, {}	; <UNPREDICTABLE>
    2220:	01000006 	tsteq	r0, r6
    2224:	002c0f2f 	eoreq	r0, ip, pc, lsr #30
    2228:	0f310000 	svceq	0x00310000
    222c:	0f2f0000 	svceq	0x002f0000
    2230:	800c0000 	andhi	r0, ip, r0
    2234:	d900008e 	stmdble	r0, {r1, r2, r3, r7}
    2238:	0c000001 	stceq	0, cr0, [r0], {1}
    223c:	00008e8c 	andeq	r8, r0, ip, lsl #29
    2240:	00000208 	andeq	r0, r0, r8, lsl #4
    2244:	008e900c 	addeq	r9, lr, ip
    2248:	00021500 	andeq	r1, r2, r0, lsl #10
    224c:	8e980d00 	cdphi	13, 9, cr0, cr8, cr0, {0}
    2250:	02210000 	eoreq	r0, r1, #0, 0
    2254:	01640000 	cmneq	r4, r0
    2258:	010e0000 	mrseq	r0, (UNDEF: 14)
    225c:	003a0150 	eorseq	r0, sl, r0, asr r1
    2260:	008ea40d 	addeq	sl, lr, sp, lsl #8
    2264:	00022d00 	andeq	r2, r2, r0, lsl #26
    2268:	00018400 	andeq	r8, r1, r0, lsl #8
    226c:	50010e00 	andpl	r0, r1, r0, lsl #28
    2270:	00240c05 	eoreq	r0, r4, r5, lsl #24
    2274:	010e2010 	tsteq	lr, r0, lsl r0
    2278:	010c0551 	tsteq	ip, r1, asr r5
    227c:	005a0000 	subseq	r0, sl, r0
    2280:	008eb00d 	addeq	fp, lr, sp
    2284:	00022d00 	andeq	r2, r2, r0, lsl #26
    2288:	0001a400 	andeq	sl, r1, r0, lsl #8
    228c:	50010e00 	andpl	r0, r1, r0, lsl #28
    2290:	001c0c05 	andseq	r0, ip, r5, lsl #24
    2294:	010e2010 	tsteq	lr, r0, lsl r0
    2298:	200c0551 	andcs	r0, ip, r1, asr r5
    229c:	005a0000 	subseq	r0, sl, r0
    22a0:	008eb80c 	addeq	fp, lr, ip, lsl #16
    22a4:	0001ae00 	andeq	sl, r1, r0, lsl #28
    22a8:	8a0f0000 	bhi	3c22b0 <__bss_end__+0x3b8290>
    22ac:	01000006 	tsteq	r0, r6
    22b0:	8e640617 	mcrhi	6, 3, r0, cr4, cr7, {0}
    22b4:	00140000 	andseq	r0, r4, r0
    22b8:	9c010000 	stcls	0, cr0, [r1], {-0}
    22bc:	000001d9 	ldrdeq	r0, [r0], -r9
    22c0:	0006e90b 	andeq	lr, r6, fp, lsl #18
    22c4:	0e180100 	mufeqe	f0, f0, f0
    22c8:	00000031 	andeq	r0, r0, r1, lsr r0
    22cc:	00000f4c 	andeq	r0, r0, ip, asr #30
    22d0:	00000f46 	andeq	r0, r0, r6, asr #30
    22d4:	06ba1000 	ldrteq	r1, [sl], r0
    22d8:	0e010000 	cdpeq	0, 0, cr0, cr1, cr0, {0}
    22dc:	00002505 	andeq	r2, r0, r5, lsl #10
    22e0:	008e4c00 	addeq	r4, lr, r0, lsl #24
    22e4:	00001800 	andeq	r1, r0, r0, lsl #16
    22e8:	089c0100 	ldmeq	ip, {r8}
    22ec:	0b000002 	bleq	22fc <__code_start__-0x5d04>
    22f0:	000006e9 	andeq	r0, r0, r9, ror #13
    22f4:	310e0f01 	tstcc	lr, r1, lsl #30
    22f8:	7a000000 	bvc	2300 <__code_start__-0x5d00>
    22fc:	7600000f 	strvc	r0, [r0], -pc
    2300:	0000000f 	andeq	r0, r0, pc
    2304:	00066d11 	andeq	r6, r6, r1, lsl sp
    2308:	00066d00 	andeq	r6, r6, r0, lsl #26
    230c:	01360200 	teqeq	r6, r0, lsl #4
    2310:	06061206 	streq	r1, [r6], -r6, lsl #4
    2314:	06060000 	streq	r0, [r6], -r0
    2318:	4d020000 	stcmi	0, cr0, [r2, #-0]
    231c:	05e21206 	strbeq	r1, [r2, #518]!	; 0x206
    2320:	05e20000 	strbeq	r0, [r2, #0]!
    2324:	58020000 	stmdapl	r2, {}	; <UNPREDICTABLE>
    2328:	06841206 	streq	r1, [r4], r6, lsl #4
    232c:	06840000 	streq	r0, [r4], r0
    2330:	ad020000 	stcge	0, cr0, [r2, #-0]
    2334:	024d0006 	subeq	r0, sp, #6, 0
    2338:	00040000 	andeq	r0, r4, r0
    233c:	00000b27 	andeq	r0, r0, r7, lsr #22
    2340:	02910104 	addseq	r0, r1, #1
    2344:	040c0000 	streq	r0, [ip], #-0
    2348:	5c000007 	stcpl	0, cr0, [r0], {7}
    234c:	cc000004 	stcgt	0, cr0, [r0], {4}
    2350:	8400008e 	strhi	r0, [r0], #-142	; 0xffffff72
    2354:	f5000000 			; <UNDEFINED> instruction: 0xf5000000
    2358:	02000010 	andeq	r0, r0, #16, 0
    235c:	6e690504 	cdpvs	5, 6, cr0, cr9, cr4, {0}
    2360:	04030074 	streq	r0, [r3], #-116	; 0xffffff8c
    2364:	0001b207 	andeq	fp, r1, r7, lsl #4
    2368:	06010300 	streq	r0, [r1], -r0, lsl #6
    236c:	00000165 	andeq	r0, r0, r5, ror #2
    2370:	2a050203 	bcs	142b84 <__bss_end__+0x138b64>
    2374:	03000000 	movweq	r0, #0
    2378:	00e40504 	rsceq	r0, r4, r4, lsl #10
    237c:	08030000 	stmdaeq	r3, {}	; <UNPREDICTABLE>
    2380:	0000df05 	andeq	sp, r0, r5, lsl #30
    2384:	08010300 	stmdaeq	r1, {r8, r9}
    2388:	00000163 	andeq	r0, r0, r3, ror #2
    238c:	f8070203 			; <UNDEFINED> instruction: 0xf8070203
    2390:	03000001 	movweq	r0, #1
    2394:	01ad0704 			; <UNDEFINED> instruction: 0x01ad0704
    2398:	08030000 	stmdaeq	r3, {}	; <UNPREDICTABLE>
    239c:	0001a807 	andeq	sl, r1, r7, lsl #16
    23a0:	00250400 	eoreq	r0, r5, r0, lsl #8
    23a4:	007a0000 	rsbseq	r0, sl, r0
    23a8:	25050000 	strcs	r0, [r5, #-0]
    23ac:	00000000 	andeq	r0, r0, r0
    23b0:	00006806 	andeq	r6, r0, r6, lsl #16
    23b4:	0e1c0200 	cdpeq	2, 1, cr0, cr12, cr0, {0}
    23b8:	00000086 	andeq	r0, r0, r6, lsl #1
    23bc:	006b0407 	rsbeq	r0, fp, r7, lsl #8
    23c0:	25040000 	strcs	r0, [r4, #-0]
    23c4:	9b000000 	blls	23cc <__code_start__-0x5c34>
    23c8:	05000000 	streq	r0, [r0, #-0]
    23cc:	0000009b 	muleq	r0, fp, r0
    23d0:	a8040700 	stmdage	r4, {r8, r9, sl}
    23d4:	03000000 	movweq	r0, #0
    23d8:	016c0801 	cmneq	ip, r1, lsl #16
    23dc:	a1080000 	mrsge	r0, (UNDEF: 8)
    23e0:	06000000 	streq	r0, [r0], -r0
    23e4:	000004c0 	andeq	r0, r0, r0, asr #9
    23e8:	b90e2102 	stmdblt	lr, {r1, r8, sp}
    23ec:	07000000 	streq	r0, [r0, -r0]
    23f0:	00008c04 	andeq	r8, r0, r4, lsl #24
    23f4:	06fa0900 	ldrbteq	r0, [sl], r0, lsl #18
    23f8:	1e010000 	cdpne	0, 0, cr0, cr1, cr0, {0}
    23fc:	008f3806 	addeq	r3, pc, r6, lsl #16
    2400:	00001800 	andeq	r1, r0, r0, lsl #16
    2404:	099c0100 	ldmibeq	ip, {r8}
    2408:	0a000001 	beq	2414 <__code_start__-0x5bec>
    240c:	00636573 	rsbeq	r6, r3, r3, ror r5
    2410:	2c191e01 	ldccs	14, cr1, [r9], {1}
    2414:	9d000000 	stcls	0, cr0, [r0, #-0]
    2418:	9900000f 	stmdbls	r0, {r0, r1, r2, r3}
    241c:	0b00000f 	bleq	2460 <__code_start__-0x5ba0>
    2420:	00008f4c 	andeq	r8, r0, ip, asr #30
    2424:	00000109 	andeq	r0, r0, r9, lsl #2
    2428:	1150010c 	cmpne	r0, ip, lsl #2
    242c:	355001f3 	ldrbcc	r0, [r0, #-499]	; 0xfffffe0d
    2430:	5001f324 	andpl	pc, r1, r4, lsr #6
    2434:	f324321c 	vqsub.u32	d3, d4, d12
    2438:	33225001 			; <UNDEFINED> instruction: 0x33225001
    243c:	09000024 	stmdbeq	r0, {r2, r5}
    2440:	000005e2 	andeq	r0, r0, r2, ror #11
    2444:	20061b01 	andcs	r1, r6, r1, lsl #22
    2448:	1800008f 	stmdane	r0, {r0, r1, r2, r3, r7}
    244c:	01000000 	mrseq	r0, (UNDEF: 0)
    2450:	0001529c 	muleq	r1, ip, r2
    2454:	736d0a00 	cmnvc	sp, #0, 20
    2458:	181b0100 	ldmdane	fp, {r8}
    245c:	0000002c 	andeq	r0, r0, ip, lsr #32
    2460:	00000fc2 	andeq	r0, r0, r2, asr #31
    2464:	00000fbe 			; <UNDEFINED> instruction: 0x00000fbe
    2468:	008f340b 	addeq	r3, pc, fp, lsl #8
    246c:	00015200 	andeq	r5, r1, r0, lsl #4
    2470:	50010c00 	andpl	r0, r1, r0, lsl #24
    2474:	5001f311 	andpl	pc, r1, r1, lsl r3	; <UNPREDICTABLE>
    2478:	01f32435 	mvnseq	r2, r5, lsr r4
    247c:	24321c50 	ldrtcs	r1, [r2], #-3152	; 0xfffff3b0
    2480:	225001f3 	subscs	r0, r0, #-1073741764	; 0xc000003c
    2484:	00002433 	andeq	r2, r0, r3, lsr r4
    2488:	00072d09 	andeq	r2, r7, r9, lsl #26
    248c:	06120100 	ldreq	r0, [r2], -r0, lsl #2
    2490:	00008efc 	strdeq	r8, [r0], -ip
    2494:	00000024 	andeq	r0, r0, r4, lsr #32
    2498:	01c29c01 	biceq	r9, r2, r1, lsl #24
    249c:	750a0000 	strvc	r0, [sl, #-0]
    24a0:	12010073 	andne	r0, r1, #115, 0	; 0x73
    24a4:	00002c18 	andeq	r2, r0, r8, lsl ip
    24a8:	000fe700 	andeq	lr, pc, r0, lsl #14
    24ac:	000fe300 	andeq	lr, pc, r0, lsl #6
    24b0:	62720d00 	rsbsvs	r0, r2, #0, 26
    24b4:	0e130100 	mufeqs	f0, f3, f0
    24b8:	0000002c 	andeq	r0, r0, ip, lsr #32
    24bc:	00001007 	andeq	r1, r0, r7
    24c0:	00001005 	andeq	r1, r0, r5
    24c4:	008f0c0e 	addeq	r0, pc, lr, lsl #24
    24c8:	00001400 	andeq	r1, r0, r0, lsl #8
    24cc:	0001b800 	andeq	fp, r1, r0, lsl #16
    24d0:	61720d00 	cmnvs	r2, r0, lsl #26
    24d4:	12150100 	andsne	r0, r5, #0
    24d8:	0000002c 	andeq	r0, r0, ip, lsr #32
    24dc:	0000101c 	andeq	r1, r0, ip, lsl r0
    24e0:	0000101a 	andeq	r1, r0, sl, lsl r0
    24e4:	008f100f 	addeq	r1, pc, pc
    24e8:	0001c200 	andeq	ip, r1, r0, lsl #4
    24ec:	080f0000 	stmdaeq	pc, {}	; <UNPREDICTABLE>
    24f0:	c200008f 	andgt	r0, r0, #143, 0	; 0x8f
    24f4:	00000001 	andeq	r0, r0, r1
    24f8:	00071e10 	andeq	r1, r7, r0, lsl lr
    24fc:	0a090100 	beq	242904 <__bss_end__+0x2388e4>
    2500:	0000002c 	andeq	r0, r0, ip, lsr #32
    2504:	00008ee0 	andeq	r8, r0, r0, ror #29
    2508:	0000001c 	andeq	r0, r0, ip, lsl r0
    250c:	020a9c01 	andeq	r9, sl, #256	; 0x100
    2510:	750d0000 	strvc	r0, [sp, #-0]
    2514:	0e0d0100 	adfeqe	f0, f5, f0
    2518:	0000002c 	andeq	r0, r0, ip, lsr #32
    251c:	00001033 	andeq	r1, r0, r3, lsr r0
    2520:	0000102f 	andeq	r1, r0, pc, lsr #32
    2524:	008ee80f 	addeq	lr, lr, pc, lsl #16
    2528:	00023800 	andeq	r3, r2, r0, lsl #16
    252c:	8eec0f00 	cdphi	15, 14, cr0, cr12, cr0, {0}
    2530:	020a0000 	andeq	r0, sl, #0, 0
    2534:	f40f0000 	vst4.8	{d0-d3}, [pc], r0
    2538:	3800008e 	stmdacc	r0, {r1, r2, r3, r7}
    253c:	00000002 	andeq	r0, r0, r2
    2540:	00073610 	andeq	r3, r7, r0, lsl r6
    2544:	0a040100 	beq	10294c <__bss_end__+0xf892c>
    2548:	0000002c 	andeq	r0, r0, ip, lsr #32
    254c:	00008ecc 	andeq	r8, r0, ip, asr #29
    2550:	00000014 	andeq	r0, r0, r4, lsl r0
    2554:	02389c01 	eorseq	r9, r8, #256	; 0x100
    2558:	d80b0000 	stmdale	fp, {}	; <UNPREDICTABLE>
    255c:	4400008e 	strmi	r0, [r0], #-142	; 0xffffff72
    2560:	0c000002 	stceq	0, cr0, [r0], {2}
    2564:	0c055001 	stceq	0, cr5, [r5], {1}
    2568:	20003004 	andcs	r3, r0, r4
    256c:	ee110000 	cdp	0, 1, cr0, cr1, cr0, {0}
    2570:	ee000006 	cdp	0, 0, cr0, cr0, cr6, {0}
    2574:	02000006 	andeq	r0, r0, #6, 0
    2578:	1811069c 	ldmdane	r1, {r2, r3, r4, r7, r9, sl}
    257c:	18000007 	stmdane	r0, {r0, r1, r2}
    2580:	02000007 	andeq	r0, r0, #7, 0
    2584:	cd000ac2 	vstrgt	s0, [r0, #-776]	; 0xfffffcf8
    2588:	04000005 	streq	r0, [r0], #-5
    258c:	000c2800 	andeq	r2, ip, r0, lsl #16
    2590:	0d010400 	cfstrseq	mvf0, [r1, #-0]
    2594:	0c000008 	stceq	0, cr0, [r0], {8}
    2598:	00000776 	andeq	r0, r0, r6, ror r7
    259c:	000008eb 	andeq	r0, r0, fp, ror #17
    25a0:	00008f50 	andeq	r8, r0, r0, asr pc
    25a4:	000001f0 	strdeq	r0, [r0], -r0	; <UNPREDICTABLE>
    25a8:	000011cd 	andeq	r1, r0, sp, asr #3
    25ac:	69050402 	stmdbvs	r5, {r1, sl}
    25b0:	0300746e 	movweq	r7, #1134	; 0x46e
    25b4:	01b20704 			; <UNDEFINED> instruction: 0x01b20704
    25b8:	2c040000 	stccs	0, cr0, [r4], {-0}
    25bc:	03000000 	movweq	r0, #0
    25c0:	01650601 	cmneq	r5, r1, lsl #12
    25c4:	02030000 	andeq	r0, r3, #0, 0
    25c8:	00002a05 	andeq	r2, r0, r5, lsl #20
    25cc:	05040300 	streq	r0, [r4, #-768]	; 0xfffffd00
    25d0:	000000e4 	andeq	r0, r0, r4, ror #1
    25d4:	df050803 	svcle	0x00050803
    25d8:	03000000 	movweq	r0, #0
    25dc:	01630801 	cmneq	r3, r1, lsl #16
    25e0:	02030000 	andeq	r0, r3, #0, 0
    25e4:	0001f807 	andeq	pc, r1, r7, lsl #16
    25e8:	01c60500 	biceq	r0, r6, r0, lsl #10
    25ec:	34050000 	strcc	r0, [r5], #-0
    25f0:	00006e19 	andeq	r6, r0, r9, lsl lr
    25f4:	07040300 	streq	r0, [r4, -r0, lsl #6]
    25f8:	000001ad 	andeq	r0, r0, sp, lsr #3
    25fc:	a8070803 	stmdage	r7, {r0, r1, fp}
    2600:	03000001 	movweq	r0, #1
    2604:	016c0801 	cmneq	ip, r1, lsl #16
    2608:	07060000 	streq	r0, [r6, -r0]
    260c:	00005401 	andeq	r5, r0, r1, lsl #8
    2610:	0e0c0400 	cfcpyseq	mvf0, mvf12
    2614:	000000c2 	andeq	r0, r0, r2, asr #1
    2618:	00092807 	andeq	r2, r9, r7, lsl #16
    261c:	65070000 	strvs	r0, [r7, #-0]
    2620:	01000007 	tsteq	r0, r7
    2624:	0007a107 	andeq	sl, r7, r7, lsl #2
    2628:	b0070400 	andlt	r0, r7, r0, lsl #8
    262c:	05000007 	streq	r0, [r0, #-7]
    2630:	0007bf07 	andeq	fp, r7, r7, lsl #30
    2634:	ce070600 	cfmadd32gt	mvax0, mvfx0, mvfx7, mvfx0
    2638:	07000007 	streq	r0, [r0, -r7]
    263c:	0008c007 	andeq	ip, r8, r7
    2640:	dd070300 	stcle	3, cr0, [r7, #-0]
    2644:	02000007 	andeq	r0, r0, #7, 0
    2648:	08df0800 	ldmeq	pc, {fp}^	; <UNPREDICTABLE>
    264c:	022c0000 	eoreq	r0, ip, #0, 0
    2650:	015e0806 	cmpeq	lr, r6, lsl #16
    2654:	69090000 	stmdbvs	r9, {}	; <UNPREDICTABLE>
    2658:	0902006f 	stmdbeq	r2, {r0, r1, r2, r3, r5, r6}
    265c:	00003309 	andeq	r3, r0, r9, lsl #6
    2660:	69090000 	stmdbvs	r9, {}	; <UNPREDICTABLE>
    2664:	02007265 	andeq	r7, r0, #1342177286	; 0x50000006
    2668:	0033090a 	eorseq	r0, r3, sl, lsl #18
    266c:	09040000 	stmdbeq	r4, {}	; <UNPREDICTABLE>
    2670:	00726969 	rsbseq	r6, r2, r9, ror #18
    2674:	33091102 	movwcc	r1, #37122	; 0x9102
    2678:	08000000 	stmdaeq	r0, {}	; <UNPREDICTABLE>
    267c:	72636c09 	rsbvc	r6, r3, #2304	; 0x900
    2680:	09130200 	ldmdbeq	r3, {r9}
    2684:	00000033 	andeq	r0, r0, r3, lsr r0
    2688:	636d090c 	cmnvs	sp, #12, 18	; 0x30000
    268c:	14020072 	strne	r0, [r2], #-114	; 0xffffff8e
    2690:	00003309 	andeq	r3, r0, r9, lsl #6
    2694:	6c091000 	stcvs	0, cr1, [r9], {-0}
    2698:	02007273 	andeq	r7, r0, #805306375	; 0x30000007
    269c:	00330915 	eorseq	r0, r3, r5, lsl r9
    26a0:	09140000 	ldmdbeq	r4, {}	; <UNPREDICTABLE>
    26a4:	0072736d 	rsbseq	r7, r2, sp, ror #6
    26a8:	33091602 	movwcc	r1, #38402	; 0x9602
    26ac:	18000000 	stmdane	r0, {}	; <UNPREDICTABLE>
    26b0:	0008d70a 	andeq	sp, r8, sl, lsl #14
    26b4:	09170200 	ldmdbeq	r7, {r9}
    26b8:	00000033 	andeq	r0, r0, r3, lsr r0
    26bc:	08a00a1c 	stmiaeq	r0!, {r2, r3, r4, r9, fp}
    26c0:	1b020000 	blne	826c8 <__bss_end__+0x786a8>
    26c4:	00003309 	andeq	r3, r0, r9, lsl #6
    26c8:	520a2000 	andpl	r2, sl, #0, 0
    26cc:	02000007 	andeq	r0, r0, #7, 0
    26d0:	0033091d 	eorseq	r0, r3, sp, lsl r9
    26d4:	0a240000 	beq	9026dc <__bss_end__+0x8f86bc>
    26d8:	000007f2 	strdeq	r0, [r0], -r2
    26dc:	33091e02 	movwcc	r1, #40450	; 0x9e02
    26e0:	28000000 	stmdacs	r0, {}	; <UNPREDICTABLE>
    26e4:	07f70b00 	ldrbeq	r0, [r7, r0, lsl #22]!
    26e8:	08010000 	stmdaeq	r1, {}	; <UNPREDICTABLE>
    26ec:	00017409 	andeq	r7, r1, r9, lsl #8
    26f0:	21500400 	cmpcs	r0, r0, lsl #8
    26f4:	33040c20 	movwcc	r0, #19488	; 0x4c20
    26f8:	0d000000 	stceq	0, cr0, [r0, #-0]
    26fc:	0000016e 	andeq	r0, r0, lr, ror #2
    2700:	00078b0b 	andeq	r8, r7, fp, lsl #22
    2704:	23290100 			; <UNDEFINED> instruction: 0x23290100
    2708:	0000018f 	andeq	r0, r0, pc, lsl #3
    270c:	20215040 	eorcs	r5, r1, r0, asr #32
    2710:	00c2040c 	sbceq	r0, r2, ip, lsl #8
    2714:	890d0000 	stmdbhi	sp, {}	; <UNPREDICTABLE>
    2718:	0e000001 	cdpeq	0, 0, cr0, cr0, cr1, {0}
    271c:	00000606 	andeq	r0, r0, r6, lsl #12
    2720:	0806cc01 	stmdaeq	r6, {r0, sl, fp, lr, pc}
    2724:	14000091 	strne	r0, [r0], #-145	; 0xffffff6f
    2728:	01000000 	mrseq	r0, (UNDEF: 0)
    272c:	0001b49c 	muleq	r1, ip, r4
    2730:	91100f00 	tstls	r0, r0, lsl #30
    2734:	01b40000 			; <UNDEFINED> instruction: 0x01b40000
    2738:	10000000 	andne	r0, r0, r0
    273c:	00000790 	muleq	r0, r0, r7
    2740:	2505b601 	strcs	fp, [r5, #-1537]	; 0xfffff9ff
    2744:	e8000000 	stmda	r0, {}	; <UNPREDICTABLE>
    2748:	20000090 	mulcs	r0, r0, r0
    274c:	01000000 	mrseq	r0, (UNDEF: 0)
    2750:	0001eb9c 	muleq	r1, ip, fp
    2754:	90f00f00 	rscsls	r0, r0, r0, lsl #30
    2758:	05a00000 	streq	r0, [r0, #0]!
    275c:	f8110000 			; <UNDEFINED> instruction: 0xf8110000
    2760:	ac000090 	stcge	0, cr0, [r0], {144}	; 0x90
    2764:	12000005 	andne	r0, r0, #5, 0
    2768:	0c055001 	stceq	0, cr5, [r5], {1}
    276c:	20215064 	eorcs	r5, r1, r4, rrx
    2770:	b2100000 	andslt	r0, r0, #0, 0
    2774:	01000008 	tsteq	r0, r8
    2778:	002505b3 	strhteq	r0, [r5], -r3
    277c:	90d80000 	sbcsls	r0, r8, r0
    2780:	00100000 	andseq	r0, r0, r0
    2784:	9c010000 	stcls	0, cr0, [r1], {-0}
    2788:	00000218 	andeq	r0, r0, r8, lsl r2
    278c:	0090e00f 	addseq	lr, r0, pc
    2790:	0005a000 	andeq	sl, r5, r0
    2794:	90e40f00 	rscls	r0, r4, r0, lsl #30
    2798:	03090000 	movweq	r0, #36864	; 0x9000
    279c:	0e000000 	cdpeq	0, 0, cr0, cr0, cr0, {0}
    27a0:	000004ad 	andeq	r0, r0, sp, lsr #9
    27a4:	a806ab01 	stmdage	r6, {r0, r8, r9, fp, sp, pc}
    27a8:	30000090 	mulcc	r0, r0, r0
    27ac:	01000000 	mrseq	r0, (UNDEF: 0)
    27b0:	00027c9c 	muleq	r2, ip, ip
    27b4:	00631300 	rsbeq	r1, r3, r0, lsl #6
    27b8:	2c19ab01 			; <UNDEFINED> instruction: 0x2c19ab01
    27bc:	55000000 	strpl	r0, [r0, #-0]
    27c0:	51000010 	tstpl	r0, r0, lsl r0
    27c4:	0f000010 	svceq	0x00000010
    27c8:	000090b4 	strheq	r9, [r0], -r4
    27cc:	000005a0 	andeq	r0, r0, r0, lsr #11
    27d0:	0090b80f 	addseq	fp, r0, pc, lsl #16
    27d4:	0002db00 	andeq	sp, r2, r0, lsl #22
    27d8:	90cc1400 	sbcls	r1, ip, r0, lsl #8
    27dc:	05b80000 	ldreq	r0, [r8, #0]!
    27e0:	02720000 	rsbseq	r0, r2, #0, 0
    27e4:	01120000 	tsteq	r2, r0
    27e8:	400c0550 	andmi	r0, ip, r0, asr r5
    27ec:	12202150 	eorne	r2, r0, #20
    27f0:	74055101 	strvc	r5, [r5], #-257	; 0xfffffeff
    27f4:	1aff0800 	bne	fffc47fc <__bss_end__+0xfffba7dc>
    27f8:	90d00f00 	sbcsls	r0, r0, r0, lsl #30
    27fc:	05a00000 	streq	r0, [r0, #0]!
    2800:	10000000 	andne	r0, r0, r0
    2804:	00000803 	andeq	r0, r0, r3, lsl #16
    2808:	2505a301 	strcs	sl, [r5, #-769]	; 0xfffffcff
    280c:	78000000 	stmdavc	r0, {}	; <UNPREDICTABLE>
    2810:	30000090 	mulcc	r0, r0, r0
    2814:	01000000 	mrseq	r0, (UNDEF: 0)
    2818:	0002db9c 	muleq	r2, ip, fp
    281c:	00631500 	rsbeq	r1, r3, r0, lsl #10
    2820:	2509a701 	strcs	sl, [r9, #-1793]	; 0xfffff8ff
    2824:	75000000 	strvc	r0, [r0, #-0]
    2828:	73000010 	movwvc	r0, #16
    282c:	0f000010 	svceq	0x00000010
    2830:	00009080 	andeq	r9, r0, r0, lsl #1
    2834:	000005a0 	andeq	r0, r0, r0, lsr #11
    2838:	0090840f 	addseq	r8, r0, pc, lsl #8
    283c:	00030900 	andeq	r0, r3, r0, lsl #18
    2840:	90941400 	addsls	r1, r4, r0, lsl #8
    2844:	05ac0000 	streq	r0, [ip, #0]!
    2848:	02d10000 	sbcseq	r0, r1, #0, 0
    284c:	01120000 	tsteq	r2, r0
    2850:	400c0550 	andmi	r0, ip, r0, asr r5
    2854:	00202150 	eoreq	r2, r0, r0, asr r1
    2858:	00909c0f 	addseq	r9, r0, pc, lsl #24
    285c:	0005a000 	andeq	sl, r5, r0
    2860:	7d100000 	ldcvc	0, cr0, [r0, #-0]
    2864:	01000007 	tsteq	r0, r7
    2868:	00250594 	mlaeq	r5, r4, r5, r0
    286c:	90580000 	subsls	r0, r8, r0
    2870:	00200000 	eoreq	r0, r0, r0
    2874:	9c010000 	stcls	0, cr0, [r1], {-0}
    2878:	00000309 	andeq	r0, r0, r9, lsl #6
    287c:	00906411 	addseq	r6, r0, r1, lsl r4
    2880:	0005ac00 	andeq	sl, r5, r0, lsl #24
    2884:	50011200 	andpl	r1, r1, r0, lsl #4
    2888:	50640c05 	rsbpl	r0, r4, r5, lsl #24
    288c:	00002021 	andeq	r2, r0, r1, lsr #32
    2890:	00075710 	andeq	r5, r7, r0, lsl r7
    2894:	058b0100 	streq	r0, [fp, #256]	; 0x100
    2898:	00000025 	andeq	r0, r0, r5, lsr #32
    289c:	00009040 	andeq	r9, r0, r0, asr #32
    28a0:	00000018 	andeq	r0, r0, r8, lsl r0
    28a4:	03379c01 	teqeq	r7, #256	; 0x100
    28a8:	4c110000 	ldcmi	0, cr0, [r1], {-0}
    28ac:	ac000090 	stcge	0, cr0, [r0], {144}	; 0x90
    28b0:	12000005 	andne	r0, r0, #5, 0
    28b4:	0c055001 	stceq	0, cr5, [r5], {1}
    28b8:	20215064 	eorcs	r5, r1, r4, rrx
    28bc:	240e0000 	strcs	r0, [lr], #-0
    28c0:	01000006 	tsteq	r0, r6
    28c4:	8f900645 	svchi	0x00900645
    28c8:	00b00000 	adcseq	r0, r0, r0
    28cc:	9c010000 	stcls	0, cr0, [r1], {-0}
    28d0:	00000484 	andeq	r0, r0, r4, lsl #9
    28d4:	00074916 	andeq	r4, r7, r6, lsl r9
    28d8:	0e7e0100 	rpweqe	f0, f6, f0
    28dc:	00000062 	andeq	r0, r0, r2, rrx
    28e0:	a014010e 	andsge	r0, r4, lr, lsl #2
    28e4:	c400008f 	strgt	r0, [r0], #-143	; 0xffffff71
    28e8:	73000005 	movwvc	r0, #5
    28ec:	12000003 	andne	r0, r0, #3, 0
    28f0:	3e015001 	cdpcc	0, 0, cr5, cr1, cr1, {0}
    28f4:	01510112 	cmpeq	r1, r2, lsl r1
    28f8:	ac140032 	ldcge	0, cr0, [r4], {50}	; 0x32
    28fc:	c400008f 	strgt	r0, [r0], #-143	; 0xffffff71
    2900:	8b000005 	blhi	291c <__code_start__-0x56e4>
    2904:	12000003 	andne	r0, r0, #3, 0
    2908:	3f015001 	svccc	0x00015001
    290c:	01510112 	cmpeq	r1, r2, lsl r1
    2910:	b00f0032 	andlt	r0, pc, r2, lsr r0	; <UNPREDICTABLE>
    2914:	a000008f 	andge	r0, r0, pc, lsl #1
    2918:	14000005 	strne	r0, [r0], #-5
    291c:	00008fbc 			; <UNDEFINED> instruction: 0x00008fbc
    2920:	0000053d 	andeq	r0, r0, sp, lsr r5
    2924:	000003b0 			; <UNDEFINED> instruction: 0x000003b0
    2928:	05500112 	ldrbeq	r0, [r0, #-274]	; 0xfffffeee
    292c:	2150040c 	cmpcs	r0, ip, lsl #8
    2930:	51011220 	tstpl	r1, r0, lsr #4
    2934:	0f003101 	svceq	0x00003101
    2938:	00008fc0 	andeq	r8, r0, r0, asr #31
    293c:	000005a0 	andeq	r0, r0, r0, lsr #11
    2940:	008fd014 	addeq	sp, pc, r4, lsl r0	; <UNPREDICTABLE>
    2944:	0005b800 	andeq	fp, r5, r0, lsl #16
    2948:	0003d200 	andeq	sp, r3, r0, lsl #4
    294c:	50011200 	andpl	r1, r1, r0, lsl #4
    2950:	12007402 	andne	r7, r0, #33554432	; 0x2000000
    2954:	30015101 	andcc	r5, r1, r1, lsl #2
    2958:	8fdc1400 	svchi	0x00dc1400
    295c:	05b80000 	ldreq	r0, [r8, #0]!
    2960:	03ee0000 	mvneq	r0, #0, 0
    2964:	01120000 	tsteq	r2, r0
    2968:	440c0550 	strmi	r0, [ip], #-1360	; 0xfffffab0
    296c:	12202150 	eorne	r2, r0, #20
    2970:	30015101 	andcc	r5, r1, r1, lsl #2
    2974:	8fe81400 	svchi	0x00e81400
    2978:	05b80000 	ldreq	r0, [r8, #0]!
    297c:	040a0000 	streq	r0, [sl], #-0
    2980:	01120000 	tsteq	r2, r0
    2984:	4c0c0550 	cfstr32mi	mvfx0, [ip], {80}	; 0x50
    2988:	12202150 	eorne	r2, r0, #20
    298c:	33015101 	movwcc	r5, #4353	; 0x1101
    2990:	8ff41400 	svchi	0x00f41400
    2994:	05b80000 	ldreq	r0, [r8, #0]!
    2998:	04260000 	strteq	r0, [r6], #-0
    299c:	01120000 	tsteq	r2, r0
    29a0:	500c0550 	andpl	r0, ip, r0, asr r5
    29a4:	12202150 	eorne	r2, r0, #20
    29a8:	30015101 	andcc	r5, r1, r1, lsl #2
    29ac:	90001400 	andls	r1, r0, r0, lsl #8
    29b0:	05b80000 	ldreq	r0, [r8, #0]!
    29b4:	04430000 	strbeq	r0, [r3], #-0
    29b8:	01120000 	tsteq	r2, r0
    29bc:	480c0550 	stmdami	ip, {r4, r6, r8, sl}
    29c0:	12202150 	eorne	r2, r0, #20
    29c4:	08025101 	stmdaeq	r2, {r0, r8, ip, lr}
    29c8:	0c1400c7 	ldceq	0, cr0, [r4], {199}	; 0xc7
    29cc:	b8000090 	stmdalt	r0, {r4, r7}
    29d0:	61000005 	tstvs	r0, r5
    29d4:	12000004 	andne	r0, r0, #4, 0
    29d8:	0c055001 	stceq	0, cr5, [r5], {1}
    29dc:	20215068 	eorcs	r5, r1, r8, rrx
    29e0:	03510112 	cmpeq	r1, #-2147483644	; 0x80000004
    29e4:	00010e0a 	andeq	r0, r1, sl, lsl #28
    29e8:	00901814 	addseq	r1, r0, r4, lsl r8
    29ec:	0005b800 	andeq	fp, r5, r0, lsl #16
    29f0:	00047a00 	andeq	r7, r4, r0, lsl #20
    29f4:	50011200 	andpl	r1, r1, r0, lsl #4
    29f8:	12007402 	andne	r7, r0, #33554432	; 0x2000000
    29fc:	33015101 	movwcc	r5, #4353	; 0x1101
    2a00:	901c0f00 	andsls	r0, ip, r0, lsl #30
    2a04:	05a00000 	streq	r0, [r0, #0]!
    2a08:	0e000000 	cdpeq	0, 0, cr0, cr0, cr0, {0}
    2a0c:	000008a5 	andeq	r0, r0, r5, lsr #17
    2a10:	1c063501 	cfstr32ne	mvfx3, [r6], {1}
    2a14:	24000091 	strcs	r0, [r0], #-145	; 0xffffff6f
    2a18:	01000000 	mrseq	r0, (UNDEF: 0)
    2a1c:	0004d39c 	muleq	r4, ip, r3
    2a20:	91240f00 			; <UNDEFINED> instruction: 0x91240f00
    2a24:	01940000 	orrseq	r0, r4, r0
    2a28:	280f0000 	stmdacs	pc, {}	; <UNPREDICTABLE>
    2a2c:	a0000091 	mulge	r0, r1, r0
    2a30:	14000005 	strne	r0, [r0], #-5
    2a34:	00009134 	andeq	r9, r0, r4, lsr r1
    2a38:	000004d3 	ldrdeq	r0, [r0], -r3
    2a3c:	000004c9 	andeq	r0, r0, r9, asr #9
    2a40:	05500112 	ldrbeq	r0, [r0, #-274]	; 0xfffffeee
    2a44:	2150040c 	cmpcs	r0, ip, lsl #8
    2a48:	51011220 	tstpl	r1, r0, lsr #4
    2a4c:	00fe0902 	rscseq	r0, lr, r2, lsl #18
    2a50:	0091380f 	addseq	r3, r1, pc, lsl #16
    2a54:	0005a000 	andeq	sl, r5, r0
    2a58:	1f170000 	svcne	0x00170000
    2a5c:	01000009 	tsteq	r0, r9
    2a60:	8f500d31 	svchi	0x00500d31
    2a64:	00200000 	eoreq	r0, r0, r0
    2a68:	9c010000 	stcls	0, cr0, [r1], {-0}
    2a6c:	00000536 	andeq	r0, r0, r6, lsr r5
    2a70:	00096f18 	andeq	r6, r9, r8, lsl pc
    2a74:	25310100 	ldrcs	r0, [r1, #-256]!	; 0xffffff00
    2a78:	00000536 	andeq	r0, r0, r6, lsr r5
    2a7c:	0000108c 	andeq	r1, r0, ip, lsl #1
    2a80:	00001088 	andeq	r1, r0, r8, lsl #1
    2a84:	6c617613 	stclvs	6, cr7, [r1], #-76	; 0xffffffb4
    2a88:	34310100 	ldrtcc	r0, [r1], #-256	; 0xffffff00
    2a8c:	0000002c 	andeq	r0, r0, ip, lsr #32
    2a90:	000010ae 	andeq	r1, r0, lr, lsr #1
    2a94:	000010aa 	andeq	r1, r0, sl, lsr #1
    2a98:	008f6014 	addeq	r6, pc, r4, lsl r0	; <UNPREDICTABLE>
    2a9c:	0005ac00 	andeq	sl, r5, r0, lsl #24
    2aa0:	00052500 	andeq	r2, r5, r0, lsl #10
    2aa4:	50011200 	andpl	r1, r1, r0, lsl #4
    2aa8:	00007402 	andeq	r7, r0, r2, lsl #8
    2aac:	008f6c11 	addeq	r6, pc, r1, lsl ip	; <UNPREDICTABLE>
    2ab0:	0005b800 	andeq	fp, r5, r0, lsl #16
    2ab4:	50011200 	andpl	r1, r1, r0, lsl #4
    2ab8:	00007402 	andeq	r7, r0, r2, lsl #8
    2abc:	3c040c00 	stccc	12, cr0, [r4], {-0}
    2ac0:	19000005 	stmdbne	r0, {r0, r2}
    2ac4:	0008cf17 	andeq	ip, r8, r7, lsl pc
    2ac8:	0d2e0100 	stfeqs	f0, [lr, #-0]
    2acc:	00008f70 	andeq	r8, r0, r0, ror pc
    2ad0:	00000020 	andeq	r0, r0, r0, lsr #32
    2ad4:	05a09c01 	streq	r9, [r0, #3073]!	; 0xc01
    2ad8:	6f180000 	svcvs	0x00180000
    2adc:	01000009 	tsteq	r0, r9
    2ae0:	0536242e 	ldreq	r2, [r6, #-1070]!	; 0xfffffbd2
    2ae4:	10d00000 	sbcsne	r0, r0, r0
    2ae8:	10cc0000 	sbcne	r0, ip, r0
    2aec:	76130000 	ldrvc	r0, [r3], -r0
    2af0:	01006c61 	tsteq	r0, r1, ror #24
    2af4:	002c332e 	eoreq	r3, ip, lr, lsr #6
    2af8:	10f20000 	rscsne	r0, r2, r0
    2afc:	10ee0000 	rscne	r0, lr, r0
    2b00:	80140000 	andshi	r0, r4, r0
    2b04:	ac00008f 	stcge	0, cr0, [r0], {143}	; 0x8f
    2b08:	8f000005 	svchi	0x00000005
    2b0c:	12000005 	andne	r0, r0, #5, 0
    2b10:	74025001 	strvc	r5, [r2], #-1
    2b14:	8c110000 	ldchi	0, cr0, [r1], {-0}
    2b18:	b800008f 	stmdalt	r0, {r0, r1, r2, r3, r7}
    2b1c:	12000005 	andne	r0, r0, #5, 0
    2b20:	74025001 	strvc	r5, [r2], #-1
    2b24:	1a000000 	bne	2b2c <__code_start__-0x54d4>
    2b28:	000006ee 	andeq	r0, r0, lr, ror #13
    2b2c:	000006ee 	andeq	r0, r0, lr, ror #13
    2b30:	1a069c03 	bne	1a9b44 <__bss_end__+0x19fb24>
    2b34:	0000094a 	andeq	r0, r0, sl, asr #18
    2b38:	0000094a 	andeq	r0, r0, sl, asr #18
    2b3c:	1a0bc303 	bne	2f3750 <__bss_end__+0x2e9730>
    2b40:	000007ec 	andeq	r0, r0, ip, ror #15
    2b44:	000007ec 	andeq	r0, r0, ip, ror #15
    2b48:	1a06ae03 	bne	1ae35c <__bss_end__+0x1a433c>
    2b4c:	00000938 	andeq	r0, r0, r8, lsr r9
    2b50:	00000938 	andeq	r0, r0, r8, lsr r9
    2b54:	00061904 	andeq	r1, r6, r4, lsl #18
    2b58:	000008e9 	andeq	r0, r0, r9, ror #17
    2b5c:	0dc00004 	stcleq	0, cr0, [r0, #16]
    2b60:	01040000 	mrseq	r0, (UNDEF: 4)
    2b64:	0000080d 	andeq	r0, r0, sp, lsl #16
    2b68:	000a030c 	andeq	r0, sl, ip, lsl #6
    2b6c:	0008eb00 	andeq	lr, r8, r0, lsl #22
    2b70:	00914000 	addseq	r4, r1, r0
    2b74:	0003b000 	andeq	fp, r3, r0
    2b78:	0013d500 	andseq	sp, r3, r0, lsl #10
    2b7c:	05040200 	streq	r0, [r4, #-512]	; 0xfffffe00
    2b80:	00746e69 	rsbseq	r6, r4, r9, ror #28
    2b84:	b2070403 	andlt	r0, r7, #50331648	; 0x3000000
    2b88:	03000001 	movweq	r0, #1
    2b8c:	01650601 	cmneq	r5, r1, lsl #12
    2b90:	02030000 	andeq	r0, r3, #0, 0
    2b94:	00002a05 	andeq	r2, r0, r5, lsl #20
    2b98:	05040300 	streq	r0, [r4, #-768]	; 0xfffffd00
    2b9c:	000000e4 	andeq	r0, r0, r4, ror #1
    2ba0:	df050803 	svcle	0x00050803
    2ba4:	03000000 	movweq	r0, #0
    2ba8:	01630801 	cmneq	r3, r1, lsl #16
    2bac:	02030000 	andeq	r0, r3, #0, 0
    2bb0:	0001f807 	andeq	pc, r1, r7, lsl #16
    2bb4:	01c60400 	biceq	r0, r6, r0, lsl #8
    2bb8:	34030000 	strcc	r0, [r3], #-0
    2bbc:	00006919 	andeq	r6, r0, r9, lsl r9
    2bc0:	07040300 	streq	r0, [r4, -r0, lsl #6]
    2bc4:	000001ad 	andeq	r0, r0, sp, lsr #3
    2bc8:	a8070803 	stmdage	r7, {r0, r1, fp}
    2bcc:	03000001 	movweq	r0, #1
    2bd0:	016c0801 	cmneq	ip, r1, lsl #16
    2bd4:	77050000 	strvc	r0, [r5, -r0]
    2bd8:	03000000 	movweq	r0, #0
    2bdc:	0a250408 	beq	943c04 <__bss_end__+0x939be4>
    2be0:	04060000 	streq	r0, [r6], #-0
    2be4:	2c040707 	stccs	7, cr0, [r4], {7}
    2be8:	01000000 	mrseq	r0, (UNDEF: 0)
    2bec:	00a4061f 	adceq	r0, r4, pc, lsl r6
    2bf0:	7a080000 	bvc	202bf8 <__bss_end__+0x1f8bd8>
    2bf4:	00000009 	andeq	r0, r0, r9
    2bf8:	00002000 	andeq	r2, r0, r0
    2bfc:	00053b09 	andeq	r3, r5, r9, lsl #22
    2c00:	0d220100 	stfeqs	f0, [r2, #-0]
    2c04:	00000077 	andeq	r0, r0, r7, ror r0
    2c08:	0009a60a 	andeq	sl, r9, sl, lsl #12
    2c0c:	0e230100 	sufeqs	f0, f3, f0
    2c10:	000000c2 	andeq	r0, r0, r2, asr #1
    2c14:	9c080305 	stcls	3, cr0, [r8], {5}
    2c18:	040b0000 	streq	r0, [fp], #-0
    2c1c:	00000077 	andeq	r0, r0, r7, ror r0
    2c20:	0009580a 	andeq	r5, r9, sl, lsl #16
    2c24:	0e240100 	sufeqs	f0, f4, f0
    2c28:	000000c2 	andeq	r0, r0, r2, asr #1
    2c2c:	9c0c0305 	stcls	3, cr0, [ip], {5}
    2c30:	9d0a0000 	stcls	0, cr0, [sl, #-0]
    2c34:	01000009 	tsteq	r0, r9
    2c38:	00c20e25 	sbceq	r0, r2, r5, lsr #28
    2c3c:	03050000 	movweq	r0, #20480	; 0x5000
    2c40:	00009c10 	andeq	r9, r0, r0, lsl ip
    2c44:	0009b20c 	andeq	fp, r9, ip, lsl #4
    2c48:	06750100 	ldrbteq	r0, [r5], -r0, lsl #2
    2c4c:	00009490 	muleq	r0, r0, r4
    2c50:	00000060 	andeq	r0, r0, r0, rrx
    2c54:	01649c01 	cmneq	r4, r1, lsl #24
    2c58:	700d0000 	andvc	r0, sp, r0
    2c5c:	16750100 	ldrbtne	r0, [r5], -r0, lsl #2
    2c60:	0000008a 	andeq	r0, r0, sl, lsl #1
    2c64:	00001116 	andeq	r1, r0, r6, lsl r1
    2c68:	00001110 	andeq	r1, r0, r0, lsl r1
    2c6c:	0001120e 	andeq	r1, r1, lr, lsl #4
    2c70:	00017400 	andeq	r7, r1, r0, lsl #8
    2c74:	f4030500 	vst3.8	{d0,d2,d4}, [r3], r0
    2c78:	0f00009b 	svceq	0x0000009b
    2c7c:	000094dc 	ldrdeq	r9, [r0], -ip
    2c80:	000008bc 			; <UNDEFINED> instruction: 0x000008bc
    2c84:	0000015a 	andeq	r0, r0, sl, asr r1
    2c88:	05500110 	ldrbeq	r0, [r0, #-272]	; 0xfffffef0
    2c8c:	009b6c03 	addseq	r6, fp, r3, lsl #24
    2c90:	51011000 	mrspl	r1, (UNDEF: 1)
    2c94:	9a040305 	bls	1038b0 <__bss_end__+0xf9890>
    2c98:	01100000 	tsteq	r0, r0
    2c9c:	f4030552 	vst3.16	{d0,d2,d4}, [r3 :64], r2
    2ca0:	1000009b 	mulne	r0, fp, r0
    2ca4:	08025301 	stmdaeq	r2, {r0, r8, r9, ip, lr}
    2ca8:	7d021077 	stcvc	0, cr1, [r2, #-476]	; 0xfffffe24
    2cac:	01f30300 	mvnseq	r0, r0, lsl #6
    2cb0:	e0110050 	ands	r0, r1, r0, asr r0
    2cb4:	c8000094 	stmdagt	r0, {r2, r4, r7}
    2cb8:	00000008 	andeq	r0, r0, r8
    2cbc:	00007e12 	andeq	r7, r0, r2, lsl lr
    2cc0:	00017400 	andeq	r7, r1, r0, lsl #8
    2cc4:	002c1300 	eoreq	r1, ip, r0, lsl #6
    2cc8:	00090000 	andeq	r0, r9, r0
    2ccc:	00016405 	andeq	r6, r1, r5, lsl #8
    2cd0:	09831400 	stmibeq	r3, {sl, ip}
    2cd4:	72010000 	andvc	r0, r1, #0, 0
    2cd8:	00947c06 	addseq	r7, r4, r6, lsl #24
    2cdc:	00001400 	andeq	r1, r0, r0, lsl #8
    2ce0:	0c9c0100 	ldfeqs	f0, [ip], {0}
    2ce4:	00000974 	andeq	r0, r0, r4, ror r9
    2ce8:	78066f01 	stmdavc	r6, {r0, r8, r9, sl, fp, sp, lr}
    2cec:	04000094 	streq	r0, [r0], #-148	; 0xffffff6c
    2cf0:	01000000 	mrseq	r0, (UNDEF: 0)
    2cf4:	0001ae9c 	muleq	r1, ip, lr
    2cf8:	00701500 	rsbseq	r1, r0, r0, lsl #10
    2cfc:	8a126f01 	bhi	49e908 <__bss_end__+0x4948e8>
    2d00:	01000000 	mrseq	r0, (UNDEF: 0)
    2d04:	eb160050 	bl	582e4c <__bss_end__+0x578e2c>
    2d08:	01000009 	tsteq	r0, r9
    2d0c:	008a075e 	addeq	r0, sl, lr, asr r7
    2d10:	93600000 	cmnls	r0, #0, 0
    2d14:	01180000 	tsteq	r8, r0
    2d18:	9c010000 	stcls	0, cr0, [r1], {-0}
    2d1c:	0000042c 	andeq	r0, r0, ip, lsr #8
    2d20:	00096717 	andeq	r6, r9, r7, lsl r7
    2d24:	205e0100 	subscs	r0, lr, r0, lsl #2
    2d28:	0000002c 	andeq	r0, r0, ip, lsr #32
    2d2c:	00001157 	andeq	r1, r0, r7, asr r1
    2d30:	00001143 	andeq	r1, r0, r3, asr #2
    2d34:	0009c317 	andeq	ip, r9, r7, lsl r3
    2d38:	315e0100 	cmpcc	lr, r0, lsl #2
    2d3c:	0000002c 	andeq	r0, r0, ip, lsr #32
    2d40:	000011f0 	strdeq	r1, [r0], -r0
    2d44:	000011dc 	ldrdeq	r1, [r0], -ip
    2d48:	0001120e 	andeq	r1, r1, lr, lsl #4
    2d4c:	00043c00 	andeq	r3, r4, r0, lsl #24
    2d50:	dc030500 	cfstr32le	mvfx0, [r3], {-0}
    2d54:	1800009b 	stmdane	r0, {r0, r1, r3, r4, r7}
    2d58:	66010068 	strvs	r0, [r1], -r8, rrx
    2d5c:	00002c0e 	andeq	r2, r0, lr, lsl #24
    2d60:	0012a600 	andseq	sl, r2, r0, lsl #12
    2d64:	00129a00 	andseq	r9, r2, r0, lsl #20
    2d68:	08541900 	ldmdaeq	r4, {r8, fp, ip}^
    2d6c:	93700000 	cmnls	r0, #0, 0
    2d70:	70040000 	andvc	r0, r4, r0
    2d74:	04000093 	streq	r0, [r0], #-147	; 0xffffff6d
    2d78:	01000000 	mrseq	r0, (UNDEF: 0)
    2d7c:	02380560 	eorseq	r0, r8, #96, 10	; 0x18000000
    2d80:	651a0000 	ldrvs	r0, [sl, #-0]
    2d84:	fa000008 	blx	2dac <__code_start__-0x5254>
    2d88:	f8000012 			; <UNDEFINED> instruction: 0xf8000012
    2d8c:	00000012 	andeq	r0, r0, r2, lsl r0
    2d90:	00089619 	andeq	r9, r8, r9, lsl r6
    2d94:	00937c00 	addseq	r7, r3, r0, lsl #24
    2d98:	937c0200 	cmnls	ip, #0, 4
    2d9c:	00080000 	andeq	r0, r8, r0
    2da0:	61010000 	mrsvs	r0, (UNDEF: 1)
    2da4:	00026c11 	andeq	r6, r2, r1, lsl ip
    2da8:	08b11a00 	ldmeq	r1!, {r9, fp, ip}
    2dac:	130f0000 	movwne	r0, #61440	; 0xf000
    2db0:	130d0000 	movwne	r0, #53248	; 0xd000
    2db4:	a71a0000 	ldrge	r0, [sl, -r0]
    2db8:	25000008 	strcs	r0, [r0, #-8]
    2dbc:	23000013 	movwcs	r0, #19
    2dc0:	00000013 	andeq	r0, r0, r3, lsl r0
    2dc4:	00081f1b 	andeq	r1, r8, fp, lsl pc
    2dc8:	00938c00 	addseq	r8, r3, r0, lsl #24
    2dcc:	00400100 	subeq	r0, r0, r0, lsl #2
    2dd0:	67010000 	strvs	r0, [r1, -r0]
    2dd4:	00030a09 	andeq	r0, r3, r9, lsl #20
    2dd8:	083a1a00 	ldmdaeq	sl!, {r9, fp, ip}
    2ddc:	133e0000 	teqne	lr, #0, 0
    2de0:	13380000 	teqne	r8, #0, 0
    2de4:	301a0000 	andscc	r0, sl, r0
    2de8:	85000008 	strhi	r0, [r0, #-8]
    2dec:	7d000013 	stcvc	0, cr0, [r0, #-76]	; 0xffffffb4
    2df0:	1c000013 	stcne	0, cr0, [r0], {19}
    2df4:	00000040 	andeq	r0, r0, r0, asr #32
    2df8:	00085419 	andeq	r5, r8, r9, lsl r4
    2dfc:	00938c00 	addseq	r8, r3, r0, lsl #24
    2e00:	938c0400 	orrls	r0, ip, #0, 8
    2e04:	00040000 	andeq	r0, r4, r0
    2e08:	11010000 	mrsne	r0, (UNDEF: 1)
    2e0c:	0002c705 	andeq	ip, r2, r5, lsl #14
    2e10:	08651a00 	stmdaeq	r5!, {r9, fp, ip}^
    2e14:	13c30000 	bicne	r0, r3, #0, 0
    2e18:	13c10000 	bicne	r0, r1, #0, 0
    2e1c:	0f000000 	svceq	0x00000000
    2e20:	00009424 	andeq	r9, r0, r4, lsr #8
    2e24:	000008bc 			; <UNDEFINED> instruction: 0x000008bc
    2e28:	000002ff 	strdeq	r0, [r0], -pc	; <UNPREDICTABLE>
    2e2c:	05500110 	ldrbeq	r0, [r0, #-272]	; 0xfffffef0
    2e30:	00971803 	addseq	r1, r7, r3, lsl #16
    2e34:	51011000 	mrspl	r1, (UNDEF: 1)
    2e38:	9a040305 	bls	103a54 <__bss_end__+0xf9a34>
    2e3c:	01100000 	tsteq	r0, r0
    2e40:	ec030552 	cfstr32	mvfx0, [r3], {82}	; 0x52
    2e44:	1000009b 	mulne	r0, fp, r0
    2e48:	41015301 	tstmi	r1, r1, lsl #6
    2e4c:	007d0210 	rsbseq	r0, sp, r0, lsl r2
    2e50:	9b180305 	blls	603a6c <__bss_end__+0x5f9a4c>
    2e54:	11000000 	mrsne	r0, (UNDEF: 0)
    2e58:	00009428 	andeq	r9, r0, r8, lsr #8
    2e5c:	000008c8 	andeq	r0, r0, r8, asr #17
    2e60:	70190000 	andsvc	r0, r9, r0
    2e64:	a4000008 	strge	r0, [r0], #-8
    2e68:	03000093 	movweq	r0, #147	; 0x93
    2e6c:	000093a4 	andeq	r9, r0, r4, lsr #7
    2e70:	00000004 	andeq	r0, r0, r4
    2e74:	3e056801 	cdpcc	8, 0, cr6, cr5, cr1, {0}
    2e78:	1a000003 	bne	2e8c <__code_start__-0x5174>
    2e7c:	0000088b 	andeq	r0, r0, fp, lsl #17
    2e80:	000013d8 	ldrdeq	r1, [r0], -r8
    2e84:	000013d6 	ldrdeq	r1, [r0], -r6
    2e88:	0008811a 	andeq	r8, r8, sl, lsl r1
    2e8c:	0013ed00 	andseq	lr, r3, r0, lsl #26
    2e90:	0013eb00 	andseq	lr, r3, r0, lsl #22
    2e94:	bc0f0000 	stclt	0, cr0, [pc], {-0}
    2e98:	41000093 	swpmi	r0, r3, [r0]	; <UNPREDICTABLE>
    2e9c:	53000004 	movwpl	r0, #4
    2ea0:	10000003 	andne	r0, r0, r3
    2ea4:	f3035001 	vhadd.u8	d5, d3, d1
    2ea8:	0f005001 	svceq	0x00005001
    2eac:	000093e0 	andeq	r9, r0, r0, ror #7
    2eb0:	000008bc 			; <UNDEFINED> instruction: 0x000008bc
    2eb4:	0000038c 	andeq	r0, r0, ip, lsl #7
    2eb8:	05500110 	ldrbeq	r0, [r0, #-272]	; 0xfffffef0
    2ebc:	00971803 	addseq	r1, r7, r3, lsl #16
    2ec0:	51011000 	mrspl	r1, (UNDEF: 1)
    2ec4:	9a040305 	bls	103ae0 <__bss_end__+0xf9ac0>
    2ec8:	01100000 	tsteq	r0, r0
    2ecc:	dc030552 	cfstr32le	mvfx0, [r3], {82}	; 0x52
    2ed0:	1000009b 	mulne	r0, fp, r0
    2ed4:	08025301 	stmdaeq	r2, {r0, r8, r9, ip, lr}
    2ed8:	7d02105f 	stcvc	0, cr1, [r2, #-380]	; 0xfffffe84
    2edc:	14030500 	strne	r0, [r3], #-1280	; 0xfffffb00
    2ee0:	0000009a 	muleq	r0, sl, r0
    2ee4:	0093e411 	addseq	lr, r3, r1, lsl r4
    2ee8:	0008c800 	andeq	ip, r8, r0, lsl #16
    2eec:	93e81100 	mvnls	r1, #0
    2ef0:	08d40000 	ldmeq	r4, {}^	; <UNPREDICTABLE>
    2ef4:	040f0000 	streq	r0, [pc], #-0	; 2efc <__code_start__-0x5104>
    2ef8:	bc000094 	stclt	0, cr0, [r0], {148}	; 0x94
    2efc:	d7000008 	strle	r0, [r0, -r8]
    2f00:	10000003 	andne	r0, r0, r3
    2f04:	03055001 	movweq	r5, #20481	; 0x5001
    2f08:	00009ad0 	ldrdeq	r9, [r0], -r0
    2f0c:	05510110 	ldrbeq	r0, [r1, #-272]	; 0xfffffef0
    2f10:	009a0403 	addseq	r0, sl, r3, lsl #8
    2f14:	52011000 	andpl	r1, r1, #0, 0
    2f18:	9bdc0305 	blls	ff703b34 <__bss_end__+0xff6f9b14>
    2f1c:	01100000 	tsteq	r0, r0
    2f20:	60080253 	andvs	r0, r8, r3, asr r2
    2f24:	007d0210 	rsbseq	r0, sp, r0, lsl r2
    2f28:	9b040305 	blls	103b44 <__bss_end__+0xf9b24>
    2f2c:	11000000 	mrsne	r0, (UNDEF: 0)
    2f30:	00009408 	andeq	r9, r0, r8, lsl #8
    2f34:	000008c8 	andeq	r0, r0, r8, asr #17
    2f38:	00942c11 	addseq	r2, r4, r1, lsl ip
    2f3c:	0008d400 	andeq	sp, r8, r0, lsl #8
    2f40:	94480f00 	strbls	r0, [r8], #-3840	; 0xfffff100
    2f44:	08bc0000 	ldmeq	ip!, {}	; <UNPREDICTABLE>
    2f48:	04220000 	strteq	r0, [r2], #-0
    2f4c:	01100000 	tsteq	r0, r0
    2f50:	24030550 	strcs	r0, [r3], #-1360	; 0xfffffab0
    2f54:	1000009b 	mulne	r0, fp, r0
    2f58:	03055101 	movweq	r5, #20737	; 0x5101
    2f5c:	00009a04 	andeq	r9, r0, r4, lsl #20
    2f60:	05520110 	ldrbeq	r0, [r2, #-272]	; 0xfffffef0
    2f64:	009bdc03 	addseq	sp, fp, r3, lsl #24
    2f68:	53011000 	movwpl	r1, #4096	; 0x1000
    2f6c:	10680802 	rsbne	r0, r8, r2, lsl #16
    2f70:	05007d02 	streq	r7, [r0, #-3330]	; 0xfffff2fe
    2f74:	009b5003 	addseq	r5, fp, r3
    2f78:	4c110000 	ldcmi	0, cr0, [r1], {-0}
    2f7c:	c8000094 	stmdagt	r0, {r2, r4, r7}
    2f80:	00000008 	andeq	r0, r0, r8
    2f84:	00007e12 	andeq	r7, r0, r2, lsl lr
    2f88:	00043c00 	andeq	r3, r4, r0, lsl #24
    2f8c:	002c1300 	eoreq	r1, ip, r0, lsl #6
    2f90:	000f0000 	andeq	r0, pc, r0
    2f94:	00042c05 	andeq	r2, r4, r5, lsl #24
    2f98:	03ab1600 			; <UNDEFINED> instruction: 0x03ab1600
    2f9c:	53010000 	movwpl	r0, #4096	; 0x1000
    2fa0:	00008a07 	andeq	r8, r0, r7, lsl #20
    2fa4:	0092fc00 	addseq	pc, r2, r0, lsl #24
    2fa8:	00006400 	andeq	r6, r0, r0, lsl #8
    2fac:	089c0100 	ldmeq	ip, {r8}
    2fb0:	17000005 	strne	r0, [r0, -r5]
    2fb4:	00000967 	andeq	r0, r0, r7, ror #18
    2fb8:	2c185301 	ldccs	3, cr5, [r8], {1}
    2fbc:	08000000 	stmdaeq	r0, {}	; <UNPREDICTABLE>
    2fc0:	00000014 	andeq	r0, r0, r4, lsl r0
    2fc4:	0e000014 	mcreq	0, 0, r0, cr0, cr4, {0}
    2fc8:	00000112 	andeq	r0, r0, r2, lsl r1
    2fcc:	00000518 	andeq	r0, r0, r8, lsl r5
    2fd0:	9bd40305 	blls	ff503bec <__bss_end__+0xff4f9bcc>
    2fd4:	6f1d0000 	svcvs	0x001d0000
    2fd8:	01000009 	tsteq	r0, r9
    2fdc:	008a0b55 	addeq	r0, sl, r5, asr fp
    2fe0:	14400000 	strbne	r0, [r0], #-0
    2fe4:	143c0000 	ldrtne	r0, [ip], #-0
    2fe8:	140f0000 	strne	r0, [pc], #-0	; 2ff0 <__code_start__-0x5010>
    2fec:	1d000093 	stcne	0, cr0, [r0, #-588]	; 0xfffffdb4
    2ff0:	a6000005 	strge	r0, [r0], -r5
    2ff4:	10000004 	andne	r0, r0, r4
    2ff8:	74025001 	strvc	r5, [r2], #-1
    2ffc:	240f0000 	strcs	r0, [pc], #-0	; 3004 <__code_start__-0x4ffc>
    3000:	e0000093 	mul	r0, r3, r0
    3004:	c5000008 	strgt	r0, [r0, #-8]
    3008:	10000004 	andne	r0, r0, r4
    300c:	75025001 	strvc	r5, [r2, #-1]
    3010:	51011000 	mrspl	r1, (UNDEF: 1)
    3014:	01103001 	tsteq	r0, r1
    3018:	00740252 	rsbseq	r0, r4, r2, asr r2
    301c:	934c0f00 	movtls	r0, #52992	; 0xcf00
    3020:	08bc0000 	ldmeq	ip!, {}	; <UNPREDICTABLE>
    3024:	04fe0000 	ldrbteq	r0, [lr], #0
    3028:	01100000 	tsteq	r0, r0
    302c:	18030550 	stmdane	r3, {r4, r6, r8, sl}
    3030:	10000097 	mulne	r0, r7, r0
    3034:	03055101 	movweq	r5, #20737	; 0x5101
    3038:	00009a04 	andeq	r9, r0, r4, lsl #20
    303c:	05520110 	ldrbeq	r0, [r2, #-272]	; 0xfffffef0
    3040:	009bd403 	addseq	sp, fp, r3, lsl #8
    3044:	53011000 	movwpl	r1, #4096	; 0x1000
    3048:	10540802 	subsne	r0, r4, r2, lsl #16
    304c:	05007d02 	streq	r7, [r0, #-3330]	; 0xfffff2fe
    3050:	009a1403 	addseq	r1, sl, r3, lsl #8
    3054:	50110000 	andspl	r0, r1, r0
    3058:	c8000093 	stmdagt	r0, {r0, r1, r4, r7}
    305c:	00000008 	andeq	r0, r0, r8
    3060:	00007e12 	andeq	r7, r0, r2, lsl lr
    3064:	00051800 	andeq	r1, r5, r0, lsl #16
    3068:	002c1300 	eoreq	r1, ip, r0, lsl #6
    306c:	00070000 	andeq	r0, r7, r0
    3070:	00050805 	andeq	r0, r5, r5, lsl #16
    3074:	09db1600 	ldmibeq	fp, {r9, sl, ip}^
    3078:	47010000 	strmi	r0, [r1, -r0]
    307c:	00008a07 	andeq	r8, r0, r7, lsl #20
    3080:	00926400 	addseq	r6, r2, r0, lsl #8
    3084:	00009800 	andeq	r9, r0, r0, lsl #16
    3088:	2b9c0100 	blcs	fe703490 <__bss_end__+0xfe6f9470>
    308c:	17000006 	strne	r0, [r0, -r6]
    3090:	00000967 	andeq	r0, r0, r7, ror #18
    3094:	2c204701 	stccs	7, cr4, [r0], #-4
    3098:	6e000000 	cdpvs	0, 0, cr0, cr0, cr0, {0}
    309c:	5e000014 	mcrpl	0, 0, r0, cr0, cr4, {0}
    30a0:	0e000014 	mcreq	0, 0, r0, cr0, cr4, {0}
    30a4:	00000112 	andeq	r0, r0, r2, lsl r1
    30a8:	0000043c 	andeq	r0, r0, ip, lsr r4
    30ac:	9bc40305 	blls	ff103cc8 <__bss_end__+0xff0f9ca8>
    30b0:	6f1d0000 	svcvs	0x001d0000
    30b4:	01000009 	tsteq	r0, r9
    30b8:	008a0b4b 	addeq	r0, sl, fp, asr #22
    30bc:	14e00000 	strbtne	r0, [r0], #0
    30c0:	14dc0000 	ldrbne	r0, [ip], #0
    30c4:	1f1b0000 	svcne	0x001b0000
    30c8:	74000008 	strvc	r0, [r0], #-8
    30cc:	03000092 	movweq	r0, #146	; 0x92
    30d0:	00000028 	andeq	r0, r0, r8, lsr #32
    30d4:	a30e4901 	movwge	r4, #59649	; 0xe901
    30d8:	1a000005 	bne	30f4 <__code_start__-0x4f0c>
    30dc:	0000083a 	andeq	r0, r0, sl, lsr r8
    30e0:	00001500 	andeq	r1, r0, r0, lsl #10
    30e4:	000014fe 	strdeq	r1, [r0], -lr
    30e8:	0008301a 	andeq	r3, r8, sl, lsl r0
    30ec:	00151800 	andseq	r1, r5, r0, lsl #16
    30f0:	00151400 	andseq	r1, r5, r0, lsl #8
    30f4:	00281e00 	eoreq	r1, r8, r0, lsl #28
    30f8:	0f000000 	svceq	0x00000000
    30fc:	000092bc 			; <UNDEFINED> instruction: 0x000092bc
    3100:	000008bc 			; <UNDEFINED> instruction: 0x000008bc
    3104:	000005dc 	ldrdeq	r0, [r0], -ip
    3108:	05500110 	ldrbeq	r0, [r0, #-272]	; 0xfffffef0
    310c:	00971803 	addseq	r1, r7, r3, lsl #16
    3110:	51011000 	mrspl	r1, (UNDEF: 1)
    3114:	9a040305 	bls	103d30 <__bss_end__+0xf9d10>
    3118:	01100000 	tsteq	r0, r0
    311c:	c4030552 	strgt	r0, [r3], #-1362	; 0xfffffaae
    3120:	1000009b 	mulne	r0, fp, r0
    3124:	08025301 	stmdaeq	r2, {r0, r8, r9, ip, lr}
    3128:	7d021048 	stcvc	0, cr1, [r2, #-288]	; 0xfffffee0
    312c:	14030500 	strne	r0, [r3], #-1280	; 0xfffffb00
    3130:	0000009a 	muleq	r0, sl, r0
    3134:	0092c011 	addseq	ip, r2, r1, lsl r0
    3138:	0008c800 	andeq	ip, r8, r0, lsl #16
    313c:	92e00f00 	rscls	r0, r0, #0, 30
    3140:	08bc0000 	ldmeq	ip!, {}	; <UNPREDICTABLE>
    3144:	06210000 	strteq	r0, [r1], -r0
    3148:	01100000 	tsteq	r0, r0
    314c:	90030550 	andls	r0, r3, r0, asr r5
    3150:	1000009a 	mulne	r0, sl, r0
    3154:	03055101 	movweq	r5, #20737	; 0x5101
    3158:	00009a04 	andeq	r9, r0, r4, lsl #20
    315c:	05520110 	ldrbeq	r0, [r2, #-272]	; 0xfffffef0
    3160:	009bc403 	addseq	ip, fp, r3, lsl #8
    3164:	53011000 	movwpl	r1, #4096	; 0x1000
    3168:	104e0802 	subne	r0, lr, r2, lsl #16
    316c:	08007d02 	stmdaeq	r0, {r1, r8, sl, fp, ip, sp, lr}
    3170:	235001f3 	cmpcs	r0, #-1073741764	; 0xc000003c
    3174:	1af80907 	bne	ffe05598 <__bss_end__+0xffdfb578>
    3178:	92e41100 	rscls	r1, r4, #0
    317c:	08c80000 	stmiaeq	r8, {}^	; <UNPREDICTABLE>
    3180:	0c000000 	stceq	0, cr0, [r0], {-0}
    3184:	00000a0d 	andeq	r0, r0, sp, lsl #20
    3188:	0c063c01 	stceq	12, cr3, [r6], {1}
    318c:	58000092 	stmdapl	r0, {r1, r4, r7}
    3190:	01000000 	mrseq	r0, (UNDEF: 0)
    3194:	0006cf9c 	muleq	r6, ip, pc	; <UNPREDICTABLE>
    3198:	09ab0a00 	stmibeq	fp!, {r9, fp}
    319c:	3d010000 	stccc	0, cr0, [r1, #-0]
    31a0:	00002510 	andeq	r2, r0, r0, lsl r5
    31a4:	18030500 	stmdane	r3, {r8, sl}
    31a8:	0e0000a0 	cdpeq	0, 0, cr0, cr0, cr0, {5}
    31ac:	00000112 	andeq	r0, r0, r2, lsl r1
    31b0:	000006df 	ldrdeq	r0, [r0], -pc	; <UNPREDICTABLE>
    31b4:	9bb40305 	blls	fed03dd0 <__bss_end__+0xfecf9db0>
    31b8:	07070000 	streq	r0, [r7, -r0]
    31bc:	00002c04 	andeq	r2, r0, r4, lsl #24
    31c0:	0a420100 	beq	10835c8 <__bss_end__+0x10795a8>
    31c4:	0000067a 	andeq	r0, r0, sl, ror r6
    31c8:	0009d508 	andeq	sp, r9, r8, lsl #10
    31cc:	10000000 	andne	r0, r0, r0
    31d0:	380f0000 	stmdacc	pc, {}	; <UNPREDICTABLE>
    31d4:	e4000092 	str	r0, [r0], #-146	; 0xffffff6e
    31d8:	96000006 	strls	r0, [r0], -r6
    31dc:	10000006 	andne	r0, r0, r6
    31e0:	40035001 	andmi	r5, r3, r1
    31e4:	01102440 	tsteq	r0, r0, asr #8
    31e8:	48400351 	stmdami	r0, {r0, r4, r6, r8, r9}^
    31ec:	500f0024 	andpl	r0, pc, r4, lsr #32
    31f0:	bc000092 	stclt	0, cr0, [r0], {146}	; 0x92
    31f4:	c5000008 	strgt	r0, [r0, #-8]
    31f8:	10000006 	andne	r0, r0, r6
    31fc:	03055001 	movweq	r5, #20481	; 0x5001
    3200:	00009a60 	andeq	r9, r0, r0, ror #20
    3204:	05510110 	ldrbeq	r0, [r1, #-272]	; 0xfffffef0
    3208:	009a0403 	addseq	r0, sl, r3, lsl #8
    320c:	52011000 	andpl	r1, r1, #0, 0
    3210:	9bb40305 	blls	fed03e2c <__bss_end__+0xfecf9e0c>
    3214:	01100000 	tsteq	r0, r0
    3218:	40080253 	andmi	r0, r8, r3, asr r2
    321c:	92541100 	subsls	r1, r4, #0
    3220:	08c80000 	stmiaeq	r8, {}^	; <UNPREDICTABLE>
    3224:	12000000 	andne	r0, r0, #0, 0
    3228:	0000007e 	andeq	r0, r0, lr, ror r0
    322c:	000006df 	ldrdeq	r0, [r0], -pc	; <UNPREDICTABLE>
    3230:	00002c13 	andeq	r2, r0, r3, lsl ip
    3234:	05000c00 	streq	r0, [r0, #-3072]	; 0xfffff400
    3238:	000006cf 	andeq	r0, r0, pc, asr #13
    323c:	000a3d0c 	andeq	r3, sl, ip, lsl #26
    3240:	062d0100 	strteq	r0, [sp], -r0, lsl #2
    3244:	00009170 	andeq	r9, r0, r0, ror r1
    3248:	0000009c 	muleq	r0, ip, r0
    324c:	07c89c01 	strbeq	r9, [r8, r1, lsl #24]
    3250:	6e170000 	cdpvs	0, 1, cr0, cr7, cr0, {0}
    3254:	01000009 	tsteq	r0, r9
    3258:	002c262d 	eoreq	r2, ip, sp, lsr #12
    325c:	15460000 	strbne	r0, [r6, #-0]
    3260:	15380000 	ldrne	r0, [r8, #-0]!
    3264:	63170000 	tstvs	r7, #0, 0
    3268:	01000009 	tsteq	r0, r9
    326c:	002c362d 	eoreq	r3, ip, sp, lsr #12
    3270:	15ae0000 	strne	r0, [lr, #0]!
    3274:	15a60000 	strne	r0, [r6, #0]!
    3278:	6f1d0000 	svcvs	0x001d0000
    327c:	01000009 	tsteq	r0, r9
    3280:	00c20b2e 	sbceq	r0, r2, lr, lsr #22
    3284:	15f60000 	ldrbne	r0, [r6, #0]!
    3288:	15e80000 	strbne	r0, [r8, #0]!
    328c:	120e0000 	andne	r0, lr, #0, 0
    3290:	d8000001 	stmdale	r0, {r0}
    3294:	05000007 	streq	r0, [r0, #-7]
    3298:	009b9c03 	addseq	r9, fp, r3, lsl #24
    329c:	91c80f00 	bicls	r0, r8, r0, lsl #30
    32a0:	08bc0000 	ldmeq	ip!, {}	; <UNPREDICTABLE>
    32a4:	077e0000 	ldrbeq	r0, [lr, -r0]!
    32a8:	01100000 	tsteq	r0, r0
    32ac:	18030550 	stmdane	r3, {r4, r6, r8, sl}
    32b0:	10000097 	mulne	r0, r7, r0
    32b4:	03055101 	movweq	r5, #20737	; 0x5101
    32b8:	00009a04 	andeq	r9, r0, r4, lsl #20
    32bc:	05520110 	ldrbeq	r0, [r2, #-272]	; 0xfffffef0
    32c0:	009b9c03 	addseq	r9, fp, r3, lsl #24
    32c4:	53011000 	movwpl	r1, #4096	; 0x1000
    32c8:	10300802 	eorsne	r0, r0, r2, lsl #16
    32cc:	05007d02 	streq	r7, [r0, #-3330]	; 0xfffff2fe
    32d0:	009a1003 	addseq	r1, sl, r3
    32d4:	cc110000 	ldcgt	0, cr0, [r1], {-0}
    32d8:	c8000091 	stmdagt	r0, {r0, r4, r7}
    32dc:	0f000008 	svceq	0x00000008
    32e0:	000091f0 	strdeq	r9, [r0], -r0
    32e4:	000008bc 			; <UNDEFINED> instruction: 0x000008bc
    32e8:	000007be 			; <UNDEFINED> instruction: 0x000007be
    32ec:	05500110 	ldrbeq	r0, [r0, #-272]	; 0xfffffef0
    32f0:	009a1c03 	addseq	r1, sl, r3, lsl #24
    32f4:	51011000 	mrspl	r1, (UNDEF: 1)
    32f8:	9a040305 	bls	103f14 <__bss_end__+0xf9ef4>
    32fc:	01100000 	tsteq	r0, r0
    3300:	9c030552 	cfstr32ls	mvfx0, [r3], {82}	; 0x52
    3304:	1000009b 	mulne	r0, fp, r0
    3308:	08025301 	stmdaeq	r2, {r0, r8, r9, ip, lr}
    330c:	7d021034 	stcvc	0, cr1, [r2, #-208]	; 0xffffff30
    3310:	01f30300 	mvnseq	r0, r0, lsl #6
    3314:	f4110050 			; <UNDEFINED> instruction: 0xf4110050
    3318:	c8000091 	stmdagt	r0, {r0, r4, r7}
    331c:	00000008 	andeq	r0, r0, r8
    3320:	00007e12 	andeq	r7, r0, r2, lsl lr
    3324:	0007d800 	andeq	sp, r7, r0, lsl #16
    3328:	002c1300 	eoreq	r1, ip, r0, lsl #6
    332c:	00160000 	andseq	r0, r6, r0
    3330:	0007c805 	andeq	ip, r7, r5, lsl #16
    3334:	0a2c1f00 	beq	b0af3c <__bss_end__+0xb00f1c>
    3338:	2a010000 	bcs	43340 <__bss_end__+0x39320>
    333c:	00008a07 	andeq	r8, r0, r7, lsl #20
    3340:	00916000 	addseq	r6, r1, r0
    3344:	00001000 	andeq	r1, r0, r0
    3348:	1f9c0100 	svcne	0x009c0100
    334c:	00000950 	andeq	r0, r0, r0, asr r9
    3350:	8a072901 	bhi	1cd75c <__bss_end__+0x1c373c>
    3354:	50000000 	andpl	r0, r0, r0
    3358:	10000091 	mulne	r0, r1, r0
    335c:	01000000 	mrseq	r0, (UNDEF: 0)
    3360:	09951f9c 	ldmibeq	r5, {r2, r3, r4, r7, r8, r9, sl, fp, ip}
    3364:	28010000 	stmdacs	r1, {}	; <UNPREDICTABLE>
    3368:	00008a07 	andeq	r8, r0, r7, lsl #20
    336c:	00914000 	addseq	r4, r1, r0
    3370:	00001000 	andeq	r1, r0, r0
    3374:	209c0100 	addscs	r0, ip, r0, lsl #2
    3378:	0000098d 	andeq	r0, r0, sp, lsl #19
    337c:	2c181001 	ldccs	0, cr1, [r8], {1}
    3380:	03000000 	movweq	r0, #0
    3384:	00000854 	andeq	r0, r0, r4, asr r8
    3388:	01007821 	tsteq	r0, r1, lsr #16
    338c:	002c2910 	eoreq	r2, ip, r0, lsl r9
    3390:	6e210000 	cdpvs	0, 2, cr0, cr1, cr0, {0}
    3394:	35100100 	ldrcc	r0, [r0, #-256]	; 0xffffff00
    3398:	0000002c 	andeq	r0, r0, ip, lsr #32
    339c:	0001120e 	andeq	r1, r1, lr, lsl #4
    33a0:	00051800 	andeq	r1, r5, r0, lsl #16
    33a4:	ec030500 	cfstr32	mvfx0, [r3], {-0}
    33a8:	0000009b 	muleq	r0, fp, r0
    33ac:	0009fb20 	andeq	pc, r9, r0, lsr #22
    33b0:	180d0100 	stmdane	sp, {r8}
    33b4:	0000002c 	andeq	r0, r0, ip, lsr #32
    33b8:	00087003 	andeq	r7, r8, r3
    33bc:	00782100 	rsbseq	r2, r8, r0, lsl #2
    33c0:	2c290d01 	stccs	13, cr0, [r9], #-4
    33c4:	00000000 	andeq	r0, r0, r0
    33c8:	000a1a20 	andeq	r1, sl, r0, lsr #20
    33cc:	18070100 	stmdane	r7, {r8}
    33d0:	0000002c 	andeq	r0, r0, ip, lsr #32
    33d4:	00089603 	andeq	r9, r8, r3, lsl #12
    33d8:	00782100 	rsbseq	r2, r8, r0, lsl #2
    33dc:	2c2c0701 	stccs	7, cr0, [ip], #-4
    33e0:	21000000 	mrscs	r0, (UNDEF: 0)
    33e4:	0701006e 	streq	r0, [r1, -lr, rrx]
    33e8:	00002c38 	andeq	r2, r0, r8, lsr ip
    33ec:	cd200000 	stcgt	0, cr0, [r0, #-0]
    33f0:	01000009 	tsteq	r0, r9
    33f4:	005d1804 	subseq	r1, sp, r4, lsl #16
    33f8:	bc030000 	stclt	0, cr0, [r3], {-0}
    33fc:	21000008 	tstcs	r0, r8
    3400:	04010078 	streq	r0, [r1], #-120	; 0xffffff88
    3404:	00005d29 	andeq	r5, r0, r9, lsr #26
    3408:	00792100 	rsbseq	r2, r9, r0, lsl #2
    340c:	5d350401 	cfldrspl	mvf0, [r5, #-4]!
    3410:	00000000 	andeq	r0, r0, r0
    3414:	00044522 	andeq	r4, r4, r2, lsr #10
    3418:	00044500 	andeq	r4, r4, r0, lsl #10
    341c:	06280200 	strteq	r0, [r8], -r0, lsl #4
    3420:	0000a022 	andeq	sl, r0, r2, lsr #32
    3424:	0000a000 	andeq	sl, r0, r0
    3428:	066e0200 	strbteq	r0, [lr], -r0, lsl #4
    342c:	0003d722 	andeq	sp, r3, r2, lsr #14
    3430:	0003d700 	andeq	sp, r3, r0, lsl #14
    3434:	061d0200 	ldreq	r0, [sp], -r0, lsl #4
    3438:	0009bc22 	andeq	fp, r9, r2, lsr #24
    343c:	0009bc00 	andeq	fp, r9, r0, lsl #24
    3440:	07f20200 	ldrbeq	r0, [r2, r0, lsl #4]!
    3444:	00013a00 	andeq	r3, r1, r0, lsl #20
    3448:	e3000400 	movw	r0, #1024	; 0x400
    344c:	0400000f 	streq	r0, [r0], #-15
    3450:	00029101 	andeq	r9, r2, r1, lsl #2
    3454:	0a5b0c00 	beq	16c645c <__bss_end__+0x16bc43c>
    3458:	045c0000 	ldrbeq	r0, [ip], #-0
    345c:	94f00000 	ldrbtls	r0, [r0], #0
    3460:	00180000 	andseq	r0, r8, r0
    3464:	176b0000 	strbne	r0, [fp, -r0]!
    3468:	04020000 	streq	r0, [r2], #-0
    346c:	746e6905 	strbtvc	r6, [lr], #-2309	; 0xfffff6fb
    3470:	0a540300 	beq	1504078 <__bss_end__+0x14fa058>
    3474:	d1030000 	mrsle	r0, (UNDEF: 3)
    3478:	00003817 	andeq	r3, r0, r7, lsl r8
    347c:	07040400 	streq	r0, [r4, -r0, lsl #8]
    3480:	000001b2 			; <UNDEFINED> instruction: 0x000001b2
    3484:	65060104 	strvs	r0, [r6, #-260]	; 0xfffffefc
    3488:	04000001 	streq	r0, [r0], #-1
    348c:	002a0502 	eoreq	r0, sl, r2, lsl #10
    3490:	04040000 	streq	r0, [r4], #-0
    3494:	0000e405 	andeq	lr, r0, r5, lsl #8
    3498:	05080400 	streq	r0, [r8, #-1024]	; 0xfffffc00
    349c:	000000df 	ldrdeq	r0, [r0], -pc	; <UNPREDICTABLE>
    34a0:	63080104 	movwvs	r0, #33028	; 0x8104
    34a4:	04000001 	streq	r0, [r0], #-1
    34a8:	01f80702 	mvnseq	r0, r2, lsl #14
    34ac:	04040000 	streq	r0, [r4], #-0
    34b0:	0001ad07 	andeq	sl, r1, r7, lsl #26
    34b4:	07080400 	streq	r0, [r8, -r0, lsl #8]
    34b8:	000001a8 	andeq	r0, r0, r8, lsr #3
    34bc:	00002505 	andeq	r2, r0, r5, lsl #10
    34c0:	00008600 	andeq	r8, r0, r0, lsl #12
    34c4:	00250600 	eoreq	r0, r5, r0, lsl #12
    34c8:	07000000 	streq	r0, [r0, -r0]
    34cc:	00000068 	andeq	r0, r0, r8, rrx
    34d0:	920e1c02 	andls	r1, lr, #512	; 0x200
    34d4:	08000000 	stmdaeq	r0, {}	; <UNPREDICTABLE>
    34d8:	00007704 	andeq	r7, r0, r4, lsl #14
    34dc:	00250500 	eoreq	r0, r5, r0, lsl #10
    34e0:	00a70000 	adceq	r0, r7, r0
    34e4:	a7060000 	strge	r0, [r6, -r0]
    34e8:	00000000 	andeq	r0, r0, r0
    34ec:	00b40408 	adcseq	r0, r4, r8, lsl #8
    34f0:	01040000 	mrseq	r0, (UNDEF: 4)
    34f4:	00016c08 	andeq	r6, r1, r8, lsl #24
    34f8:	00ad0900 	adceq	r0, sp, r0, lsl #18
    34fc:	c0070000 	andgt	r0, r7, r0
    3500:	02000004 	andeq	r0, r0, #4, 0
    3504:	00c50e21 	sbceq	r0, r5, r1, lsr #28
    3508:	04080000 	streq	r0, [r8], #-0
    350c:	00000098 	muleq	r0, r8, r0
    3510:	0009bc0a 	andeq	fp, r9, sl, lsl #24
    3514:	07040100 	streq	r0, [r4, -r0, lsl #2]
    3518:	00000135 	andeq	r0, r0, r5, lsr r1
    351c:	000094f0 	strdeq	r9, [r0], -r0
    3520:	00000018 	andeq	r0, r0, r8, lsl r0
    3524:	01359c01 	teqeq	r5, r1, lsl #24
    3528:	5f0b0000 	svcpl	0x000b0000
    352c:	04010070 	streq	r0, [r1], #-112	; 0xffffff90
    3530:	00013514 	andeq	r3, r1, r4, lsl r5
    3534:	0b500100 	bleq	140393c <__bss_end__+0x13f991c>
    3538:	04010063 	streq	r0, [r1], #-99	; 0xffffff9d
    353c:	0000251c 	andeq	r2, r0, ip, lsl r5
    3540:	0c510100 	ldfeqe	f0, [r1], {-0}
    3544:	0401006e 	streq	r0, [r1], #-110	; 0xffffff92
    3548:	00002c26 	andeq	r2, r0, r6, lsr #24
    354c:	00165a00 	andseq	r5, r6, r0, lsl #20
    3550:	00165600 	andseq	r5, r6, r0, lsl #12
    3554:	00700d00 	rsbseq	r0, r0, r0, lsl #26
    3558:	370b0501 	strcc	r0, [fp, -r1, lsl #10]
    355c:	83000001 	movwhi	r0, #1
    3560:	7b000016 	blvc	35c0 <__code_start__-0x4a40>
    3564:	0d000016 	stceq	0, cr0, [r0, #-88]	; 0xffffffa8
    3568:	05010065 	streq	r0, [r1, #-101]	; 0xffffff9b
    356c:	00013714 	andeq	r3, r1, r4, lsl r7
    3570:	0016bb00 	andseq	fp, r6, r0, lsl #22
    3574:	0016b900 	andseq	fp, r6, r0, lsl #18
    3578:	040e0000 	streq	r0, [lr], #-0
    357c:	00ad0408 	adceq	r0, sp, r8, lsl #8
    3580:	37000000 	strcc	r0, [r0, -r0]
    3584:	04000001 	streq	r0, [r0], #-1
    3588:	0010af00 	andseq	sl, r0, r0, lsl #30
    358c:	91010400 	tstls	r1, r0, lsl #8
    3590:	0c000002 	stceq	0, cr0, [r0], {2}
    3594:	00000a70 	andeq	r0, r0, r0, ror sl
    3598:	0000045c 	andeq	r0, r0, ip, asr r4
    359c:	00009508 	andeq	r9, r0, r8, lsl #10
    35a0:	00000034 	andeq	r0, r0, r4, lsr r0
    35a4:	00001860 	andeq	r1, r0, r0, ror #16
    35a8:	69050402 	stmdbvs	r5, {r1, sl}
    35ac:	0300746e 	movweq	r7, #1134	; 0x46e
    35b0:	01b20704 			; <UNDEFINED> instruction: 0x01b20704
    35b4:	01030000 	mrseq	r0, (UNDEF: 3)
    35b8:	00016506 	andeq	r6, r1, r6, lsl #10
    35bc:	05020300 	streq	r0, [r2, #-768]	; 0xfffffd00
    35c0:	0000002a 	andeq	r0, r0, sl, lsr #32
    35c4:	e4050403 	str	r0, [r5], #-1027	; 0xfffffbfd
    35c8:	03000000 	movweq	r0, #0
    35cc:	00df0508 	sbcseq	r0, pc, r8, lsl #10
    35d0:	01030000 	mrseq	r0, (UNDEF: 3)
    35d4:	00016308 	andeq	r6, r1, r8, lsl #6
    35d8:	07020300 	streq	r0, [r2, -r0, lsl #6]
    35dc:	000001f8 	strdeq	r0, [r0], -r8
    35e0:	ad070403 	cfstrsge	mvf0, [r7, #-12]
    35e4:	03000001 	movweq	r0, #1
    35e8:	01a80708 			; <UNDEFINED> instruction: 0x01a80708
    35ec:	25040000 	strcs	r0, [r4, #-0]
    35f0:	7a000000 	bvc	35f8 <__code_start__-0x4a08>
    35f4:	05000000 	streq	r0, [r0, #-0]
    35f8:	00000025 	andeq	r0, r0, r5, lsr #32
    35fc:	00680600 	rsbeq	r0, r8, r0, lsl #12
    3600:	1c020000 	stcne	0, cr0, [r2], {-0}
    3604:	0000860e 	andeq	r8, r0, lr, lsl #12
    3608:	6b040700 	blvs	105210 <__bss_end__+0xfb1f0>
    360c:	04000000 	streq	r0, [r0], #-0
    3610:	00000025 	andeq	r0, r0, r5, lsr #32
    3614:	0000009b 	muleq	r0, fp, r0
    3618:	00009b05 	andeq	r9, r0, r5, lsl #22
    361c:	04070000 	streq	r0, [r7], #-0
    3620:	000000a8 	andeq	r0, r0, r8, lsr #1
    3624:	6c080103 	stfvss	f0, [r8], {3}
    3628:	08000001 	stmdaeq	r0, {r0}
    362c:	000000a1 	andeq	r0, r0, r1, lsr #1
    3630:	0004c006 	andeq	ip, r4, r6
    3634:	0e210200 	cdpeq	2, 2, cr0, cr1, cr0, {0}
    3638:	000000b9 	strheq	r0, [r0], -r9
    363c:	008c0407 	addeq	r0, ip, r7, lsl #8
    3640:	63090000 	movwvs	r0, #36864	; 0x9000
    3644:	01000005 	tsteq	r0, r5
    3648:	01340704 	teqeq	r4, r4, lsl #14
    364c:	95080000 	strls	r0, [r8, #-0]
    3650:	00340000 	eorseq	r0, r4, r0
    3654:	9c010000 	stcls	0, cr0, [r1], {-0}
    3658:	00000134 	andeq	r0, r0, r4, lsr r1
    365c:	000a6b0a 	andeq	r6, sl, sl, lsl #22
    3660:	15040100 	strne	r0, [r4, #-256]	; 0xffffff00
    3664:	00000134 	andeq	r0, r0, r4, lsr r1
    3668:	730b5001 	movwvc	r5, #45057	; 0xb001
    366c:	01006372 	tsteq	r0, r2, ror r3
    3670:	009b2704 	addseq	r2, fp, r4, lsl #14
    3674:	16d20000 	ldrbne	r0, [r2], r0
    3678:	16ce0000 	strbne	r0, [lr], r0
    367c:	730c0000 	movwvc	r0, #49152	; 0xc000
    3680:	05010031 	streq	r0, [r1, #-49]	; 0xffffffcf
    3684:	0001340b 	andeq	r3, r1, fp, lsl #8
    3688:	0016fd00 	andseq	pc, r6, r0, lsl #26
    368c:	0016f300 	andseq	pc, r6, r0, lsl #6
    3690:	32730c00 	rsbscc	r0, r3, #0, 24
    3694:	11060100 	mrsne	r0, (UNDEF: 22)
    3698:	0000009b 	muleq	r0, fp, r0
    369c:	00001742 	andeq	r1, r0, r2, asr #14
    36a0:	0000173e 	andeq	r1, r0, lr, lsr r7
    36a4:	0100630c 	tsteq	r0, ip, lsl #6
    36a8:	00a10a07 	adceq	r0, r1, r7, lsl #20
    36ac:	17660000 	strbne	r0, [r6, -r0]!
    36b0:	17620000 	strbne	r0, [r2, -r0]!
    36b4:	07000000 	streq	r0, [r0, -r0]
    36b8:	0000a104 	andeq	sl, r0, r4, lsl #2
    36bc:	00f70000 	rscseq	r0, r7, r0
    36c0:	00040000 	andeq	r0, r4, r0
    36c4:	00001165 	andeq	r1, r0, r5, ror #2
    36c8:	02910104 	addseq	r0, r1, #1
    36cc:	800c0000 	andhi	r0, ip, r0
    36d0:	5c00000a 	stcpl	0, cr0, [r0], {10}
    36d4:	3c000004 	stccc	0, cr0, [r0], {4}
    36d8:	2c000095 	stccs	0, cr0, [r0], {149}	; 0x95
    36dc:	48000000 	stmdami	r0, {}	; <UNPREDICTABLE>
    36e0:	02000019 	andeq	r0, r0, #25, 0
    36e4:	6e690504 	cdpvs	5, 6, cr0, cr9, cr4, {0}
    36e8:	04030074 	streq	r0, [r3], #-116	; 0xffffff8c
    36ec:	0001b207 	andeq	fp, r1, r7, lsl #4
    36f0:	06010300 	streq	r0, [r1], -r0, lsl #6
    36f4:	00000165 	andeq	r0, r0, r5, ror #2
    36f8:	2a050203 	bcs	143f0c <__bss_end__+0x139eec>
    36fc:	03000000 	movweq	r0, #0
    3700:	00e40504 	rsceq	r0, r4, r4, lsl #10
    3704:	08030000 	stmdaeq	r3, {}	; <UNPREDICTABLE>
    3708:	0000df05 	andeq	sp, r0, r5, lsl #30
    370c:	08010300 	stmdaeq	r1, {r8, r9}
    3710:	00000163 	andeq	r0, r0, r3, ror #2
    3714:	f8070203 			; <UNDEFINED> instruction: 0xf8070203
    3718:	03000001 	movweq	r0, #1
    371c:	01ad0704 			; <UNDEFINED> instruction: 0x01ad0704
    3720:	08030000 	stmdaeq	r3, {}	; <UNPREDICTABLE>
    3724:	0001a807 	andeq	sl, r1, r7, lsl #16
    3728:	00250400 	eoreq	r0, r5, r0, lsl #8
    372c:	007a0000 	rsbseq	r0, sl, r0
    3730:	25050000 	strcs	r0, [r5, #-0]
    3734:	00000000 	andeq	r0, r0, r0
    3738:	00006806 	andeq	r6, r0, r6, lsl #16
    373c:	0e1c0200 	cdpeq	2, 1, cr0, cr12, cr0, {0}
    3740:	00000086 	andeq	r0, r0, r6, lsl #1
    3744:	006b0407 	rsbeq	r0, fp, r7, lsl #8
    3748:	25040000 	strcs	r0, [r4, #-0]
    374c:	9b000000 	blls	3754 <__code_start__-0x48ac>
    3750:	05000000 	streq	r0, [r0, #-0]
    3754:	0000009b 	muleq	r0, fp, r0
    3758:	a8040700 	stmdage	r4, {r8, r9, sl}
    375c:	03000000 	movweq	r0, #0
    3760:	016c0801 	cmneq	ip, r1, lsl #16
    3764:	a1080000 	mrsge	r0, (UNDEF: 8)
    3768:	06000000 	streq	r0, [r0], -r0
    376c:	000004c0 	andeq	r0, r0, r0, asr #9
    3770:	b90e2102 	stmdblt	lr, {r1, r8, sp}
    3774:	07000000 	streq	r0, [r0, -r0]
    3778:	00008c04 	andeq	r8, r0, r4, lsl #24
    377c:	05990900 	ldreq	r0, [r9, #2304]	; 0x900
    3780:	03010000 	movweq	r0, #4096	; 0x1000
    3784:	00002505 	andeq	r2, r0, r5, lsl #10
    3788:	00953c00 	addseq	r3, r5, r0, lsl #24
    378c:	00002c00 	andeq	r2, r0, r0, lsl #24
    3790:	0a9c0100 	beq	fe703b98 <__bss_end__+0xfe6f9b78>
    3794:	03010061 	movweq	r0, #4193	; 0x1061
    3798:	00009b18 	andeq	r9, r0, r8, lsl fp
    379c:	00178800 	andseq	r8, r7, r0, lsl #16
    37a0:	00178400 	andseq	r8, r7, r0, lsl #8
    37a4:	00620a00 	rsbeq	r0, r2, r0, lsl #20
    37a8:	9b270301 	blls	9c43b4 <__bss_end__+0x9ba394>
    37ac:	aa000000 	bge	37b4 <__code_start__-0x484c>
    37b0:	a6000017 			; <UNDEFINED> instruction: 0xa6000017
    37b4:	00000017 	andeq	r0, r0, r7, lsl r0
    37b8:	00010f00 	andeq	r0, r1, r0, lsl #30
    37bc:	f4000400 	vst3.8	{d0-d2}, [r0], r0
    37c0:	04000011 	streq	r0, [r0], #-17	; 0xffffffef
    37c4:	00029101 	andeq	r9, r2, r1, lsl #2
    37c8:	0a900c00 	beq	fe4067d0 <__bss_end__+0xfe3fc7b0>
    37cc:	045c0000 	ldrbeq	r0, [ip], #-0
    37d0:	95680000 	strbls	r0, [r8, #-0]!
    37d4:	00200000 	eoreq	r0, r0, r0
    37d8:	19e90000 	stmibne	r9!, {}^	; <UNPREDICTABLE>
    37dc:	04020000 	streq	r0, [r2], #-0
    37e0:	746e6905 	strbtvc	r6, [lr], #-2309	; 0xfffff6fb
    37e4:	07040300 	streq	r0, [r4, -r0, lsl #6]
    37e8:	000001b2 			; <UNDEFINED> instruction: 0x000001b2
    37ec:	65060103 	strvs	r0, [r6, #-259]	; 0xfffffefd
    37f0:	03000001 	movweq	r0, #1
    37f4:	002a0502 	eoreq	r0, sl, r2, lsl #10
    37f8:	04030000 	streq	r0, [r3], #-0
    37fc:	0000e405 	andeq	lr, r0, r5, lsl #8
    3800:	05080300 	streq	r0, [r8, #-768]	; 0xfffffd00
    3804:	000000df 	ldrdeq	r0, [r0], -pc	; <UNPREDICTABLE>
    3808:	63080103 	movwvs	r0, #33027	; 0x8103
    380c:	03000001 	movweq	r0, #1
    3810:	01f80702 	mvnseq	r0, r2, lsl #14
    3814:	04030000 	streq	r0, [r3], #-0
    3818:	0001ad07 	andeq	sl, r1, r7, lsl #26
    381c:	07080300 	streq	r0, [r8, -r0, lsl #6]
    3820:	000001a8 	andeq	r0, r0, r8, lsr #3
    3824:	00002504 	andeq	r2, r0, r4, lsl #10
    3828:	00007a00 	andeq	r7, r0, r0, lsl #20
    382c:	00250500 	eoreq	r0, r5, r0, lsl #10
    3830:	06000000 	streq	r0, [r0], -r0
    3834:	00000068 	andeq	r0, r0, r8, rrx
    3838:	860e1c02 	strhi	r1, [lr], -r2, lsl #24
    383c:	07000000 	streq	r0, [r0, -r0]
    3840:	00006b04 	andeq	r6, r0, r4, lsl #22
    3844:	00250400 	eoreq	r0, r5, r0, lsl #8
    3848:	009b0000 	addseq	r0, fp, r0
    384c:	9b050000 	blls	143854 <__bss_end__+0x139834>
    3850:	00000000 	andeq	r0, r0, r0
    3854:	00a80407 	adceq	r0, r8, r7, lsl #8
    3858:	01030000 	mrseq	r0, (UNDEF: 3)
    385c:	00016c08 	andeq	r6, r1, r8, lsl #24
    3860:	00a10800 	adceq	r0, r1, r0, lsl #16
    3864:	c0060000 	andgt	r0, r6, r0
    3868:	02000004 	andeq	r0, r0, #4, 0
    386c:	00b90e21 	adcseq	r0, r9, r1, lsr #28
    3870:	04070000 	streq	r0, [r7], #-0
    3874:	0000008c 	andeq	r0, r0, ip, lsl #1
    3878:	00056a09 	andeq	r6, r5, r9, lsl #20
    387c:	07030100 	streq	r0, [r3, -r0, lsl #2]
    3880:	0000010c 	andeq	r0, r0, ip, lsl #2
    3884:	00009568 	andeq	r9, r0, r8, ror #10
    3888:	00000020 	andeq	r0, r0, r0, lsr #32
    388c:	010c9c01 	tsteq	ip, r1, lsl #24
    3890:	730a0000 	movwvc	r0, #40960	; 0xa000
    3894:	03010031 	movweq	r0, #4145	; 0x1031
    3898:	00010c15 	andeq	r0, r1, r5, lsl ip
    389c:	0b500100 	bleq	1403ca4 <__bss_end__+0x13f9c84>
    38a0:	01003273 	tsteq	r0, r3, ror r2
    38a4:	009b2603 	addseq	r2, fp, r3, lsl #12
    38a8:	17ce0000 	strbne	r0, [lr, r0]
    38ac:	17c80000 	strbne	r0, [r8, r0]
    38b0:	730c0000 	movwvc	r0, #49152	; 0xc000
    38b4:	14040100 	strne	r0, [r4], #-256	; 0xffffff00
    38b8:	0000010c 	andeq	r0, r0, ip, lsl #2
    38bc:	000017ff 	strdeq	r1, [r0], -pc	; <UNPREDICTABLE>
    38c0:	000017f9 	strdeq	r1, [r0], -r9
    38c4:	a1040700 	tstge	r4, r0, lsl #14
    38c8:	00000000 	andeq	r0, r0, r0
    38cc:	0000014e 	andeq	r0, r0, lr, asr #2
    38d0:	12aa0004 	adcne	r0, sl, #4, 0
    38d4:	01040000 	mrseq	r0, (UNDEF: 4)
    38d8:	00000291 	muleq	r0, r1, r2
    38dc:	000aa00c 	andeq	sl, sl, ip
    38e0:	00045c00 	andeq	r5, r4, r0, lsl #24
    38e4:	00005800 	andeq	r5, r0, r0, lsl #16
    38e8:	00000000 	andeq	r0, r0, r0
    38ec:	001a8800 	andseq	r8, sl, r0, lsl #16
    38f0:	05040200 	streq	r0, [r4, #-512]	; 0xfffffe00
    38f4:	00746e69 	rsbseq	r6, r4, r9, ror #28
    38f8:	000a5403 	andeq	r5, sl, r3, lsl #8
    38fc:	17d10300 	ldrbne	r0, [r1, r0, lsl #6]
    3900:	00000038 	andeq	r0, r0, r8, lsr r0
    3904:	b2070404 	andlt	r0, r7, #4, 8	; 0x4000000
    3908:	04000001 	streq	r0, [r0], #-1
    390c:	01650601 	cmneq	r5, r1, lsl #12
    3910:	02040000 	andeq	r0, r4, #0, 0
    3914:	00002a05 	andeq	r2, r0, r5, lsl #20
    3918:	05040400 	streq	r0, [r4, #-1024]	; 0xfffffc00
    391c:	000000e4 	andeq	r0, r0, r4, ror #1
    3920:	df050804 	svcle	0x00050804
    3924:	04000000 	streq	r0, [r0], #-0
    3928:	01630801 	cmneq	r3, r1, lsl #16
    392c:	5b050000 	blpl	143934 <__bss_end__+0x139914>
    3930:	04000000 	streq	r0, [r0], #-0
    3934:	01f80702 	mvnseq	r0, r2, lsl #14
    3938:	04040000 	streq	r0, [r4], #-0
    393c:	0001ad07 	andeq	sl, r1, r7, lsl #26
    3940:	07080400 	streq	r0, [r8, -r0, lsl #8]
    3944:	000001a8 	andeq	r0, r0, r8, lsr #3
    3948:	00002506 	andeq	r2, r0, r6, lsl #10
    394c:	00008b00 	andeq	r8, r0, r0, lsl #22
    3950:	00250700 	eoreq	r0, r5, r0, lsl #14
    3954:	08000000 	stmdaeq	r0, {}	; <UNPREDICTABLE>
    3958:	00000068 	andeq	r0, r0, r8, rrx
    395c:	970e1c02 	strls	r1, [lr, -r2, lsl #24]
    3960:	09000000 	stmdbeq	r0, {}	; <UNPREDICTABLE>
    3964:	00007c04 	andeq	r7, r0, r4, lsl #24
    3968:	00250600 	eoreq	r0, r5, r0, lsl #12
    396c:	00ac0000 	adceq	r0, ip, r0
    3970:	ac070000 	stcge	0, cr0, [r7], {-0}
    3974:	00000000 	andeq	r0, r0, r0
    3978:	00b90409 	adcseq	r0, r9, r9, lsl #8
    397c:	01040000 	mrseq	r0, (UNDEF: 4)
    3980:	00016c08 	andeq	r6, r1, r8, lsl #24
    3984:	00b20500 	adcseq	r0, r2, r0, lsl #10
    3988:	c0080000 	andgt	r0, r8, r0
    398c:	02000004 	andeq	r0, r0, #4, 0
    3990:	00ca0e21 	sbceq	r0, sl, r1, lsr #28
    3994:	04090000 	streq	r0, [r9], #-0
    3998:	0000009d 	muleq	r0, sp, r0
    399c:	0005c10a 	andeq	ip, r5, sl, lsl #2
    39a0:	05040100 	streq	r0, [r4, #-256]	; 0xffffff00
    39a4:	00000025 	andeq	r0, r0, r5, lsr #32
    39a8:	00009588 	andeq	r9, r0, r8, lsl #11
    39ac:	0000002c 	andeq	r0, r0, ip, lsr #32
    39b0:	014b9c01 	cmpeq	fp, r1, lsl #24
    39b4:	5f0b0000 	svcpl	0x000b0000
    39b8:	01003173 	tsteq	r0, r3, ror r1
    39bc:	00ac1904 	adceq	r1, ip, r4, lsl #18
    39c0:	182e0000 	stmdane	lr!, {}	; <UNPREDICTABLE>
    39c4:	182a0000 	stmdane	sl!, {}	; <UNPREDICTABLE>
    39c8:	5f0b0000 	svcpl	0x000b0000
    39cc:	01003273 	tsteq	r0, r3, ror r2
    39d0:	00ac2a04 	adceq	r2, ip, r4, lsl #20
    39d4:	18530000 	ldmdane	r3, {}^	; <UNPREDICTABLE>
    39d8:	184f0000 	stmdane	pc, {}^	; <UNPREDICTABLE>
    39dc:	6e0b0000 	cdpvs	0, 0, cr0, cr11, cr0, {0}
    39e0:	36040100 	strcc	r0, [r4], -r0, lsl #2
    39e4:	0000002c 	andeq	r0, r0, ip, lsr #32
    39e8:	0000187a 	andeq	r1, r0, sl, ror r8
    39ec:	00001874 	andeq	r1, r0, r4, ror r8
    39f0:	0031730c 	eorseq	r7, r1, ip, lsl #6
    39f4:	4b1a0501 	blmi	684e00 <__bss_end__+0x67ade0>
    39f8:	ad000001 	stcge	0, cr0, [r0, #-4]
    39fc:	a5000018 	strge	r0, [r0, #-24]	; 0xffffffe8
    3a00:	0c000018 	stceq	0, cr0, [r0], {24}
    3a04:	01003273 	tsteq	r0, r3, ror r2
    3a08:	014b2c05 	cmpeq	fp, r5, lsl #24
    3a0c:	18e90000 	stmiane	r9!, {}^	; <UNPREDICTABLE>
    3a10:	18e30000 	stmiane	r3!, {}^	; <UNPREDICTABLE>
    3a14:	09000000 	stmdbeq	r0, {}	; <UNPREDICTABLE>
    3a18:	00006204 	andeq	r6, r0, r4, lsl #4
    3a1c:	00ce0000 	sbceq	r0, lr, r0
    3a20:	00040000 	andeq	r0, r4, r0
    3a24:	0000135e 	andeq	r1, r0, lr, asr r3
    3a28:	02910104 	addseq	r0, r1, #1
    3a2c:	b10c0000 	mrslt	r0, (UNDEF: 12)
    3a30:	5c00000a 	stcpl	0, cr0, [r0], {10}
    3a34:	b4000004 	strlt	r0, [r0], #-4
    3a38:	04000095 	streq	r0, [r0], #-149	; 0xffffff6b
    3a3c:	8a000000 	bhi	3a44 <__code_start__-0x45bc>
    3a40:	0200001b 	andeq	r0, r0, #27, 0
    3a44:	6e690504 	cdpvs	5, 6, cr0, cr9, cr4, {0}
    3a48:	04030074 	streq	r0, [r3], #-116	; 0xffffff8c
    3a4c:	0001b207 	andeq	fp, r1, r7, lsl #4
    3a50:	06010300 	streq	r0, [r1], -r0, lsl #6
    3a54:	00000165 	andeq	r0, r0, r5, ror #2
    3a58:	2a050203 	bcs	14426c <__bss_end__+0x13a24c>
    3a5c:	03000000 	movweq	r0, #0
    3a60:	00e40504 	rsceq	r0, r4, r4, lsl #10
    3a64:	08030000 	stmdaeq	r3, {}	; <UNPREDICTABLE>
    3a68:	0000df05 	andeq	sp, r0, r5, lsl #30
    3a6c:	08010300 	stmdaeq	r1, {r8, r9}
    3a70:	00000163 	andeq	r0, r0, r3, ror #2
    3a74:	f8070203 			; <UNDEFINED> instruction: 0xf8070203
    3a78:	03000001 	movweq	r0, #1
    3a7c:	01ad0704 			; <UNDEFINED> instruction: 0x01ad0704
    3a80:	08030000 	stmdaeq	r3, {}	; <UNPREDICTABLE>
    3a84:	0001a807 	andeq	sl, r1, r7, lsl #16
    3a88:	00250400 	eoreq	r0, r5, r0, lsl #8
    3a8c:	007a0000 	rsbseq	r0, sl, r0
    3a90:	25050000 	strcs	r0, [r5, #-0]
    3a94:	00000000 	andeq	r0, r0, r0
    3a98:	00006806 	andeq	r6, r0, r6, lsl #16
    3a9c:	0e1c0200 	cdpeq	2, 1, cr0, cr12, cr0, {0}
    3aa0:	00000086 	andeq	r0, r0, r6, lsl #1
    3aa4:	006b0407 	rsbeq	r0, fp, r7, lsl #8
    3aa8:	25040000 	strcs	r0, [r4, #-0]
    3aac:	9b000000 	blls	3ab4 <__code_start__-0x454c>
    3ab0:	05000000 	streq	r0, [r0, #-0]
    3ab4:	0000009b 	muleq	r0, fp, r0
    3ab8:	a8040700 	stmdage	r4, {r8, r9, sl}
    3abc:	03000000 	movweq	r0, #0
    3ac0:	016c0801 	cmneq	ip, r1, lsl #16
    3ac4:	a1080000 	mrsge	r0, (UNDEF: 8)
    3ac8:	06000000 	streq	r0, [r0], -r0
    3acc:	000004c0 	andeq	r0, r0, r0, asr #9
    3ad0:	b90e2102 	stmdblt	lr, {r1, r8, sp}
    3ad4:	07000000 	streq	r0, [r0, -r0]
    3ad8:	00008c04 	andeq	r8, r0, r4, lsl #24
    3adc:	066d0900 	strbteq	r0, [sp], -r0, lsl #18
    3ae0:	03010000 	movweq	r0, #4096	; 0x1000
    3ae4:	0095b406 	addseq	fp, r5, r6, lsl #8
    3ae8:	00000400 	andeq	r0, r0, r0, lsl #8
    3aec:	009c0100 	addseq	r0, ip, r0, lsl #2
    3af0:	000003a5 	andeq	r0, r0, r5, lsr #7
    3af4:	13d70004 	bicsne	r0, r7, #4, 0
    3af8:	01040000 	mrseq	r0, (UNDEF: 4)
    3afc:	0000080d 	andeq	r0, r0, sp, lsl #16
    3b00:	000b500c 	andeq	r5, fp, ip
    3b04:	0008eb00 	andeq	lr, r8, r0, lsl #22
    3b08:	0095d000 	addseq	sp, r5, r0
    3b0c:	00011c00 	andeq	r1, r1, r0, lsl #24
    3b10:	001c1800 	andseq	r1, ip, r0, lsl #16
    3b14:	05040200 	streq	r0, [r4, #-512]	; 0xfffffe00
    3b18:	00746e69 	rsbseq	r6, r4, r9, ror #28
    3b1c:	b2070403 	andlt	r0, r7, #50331648	; 0x3000000
    3b20:	04000001 	streq	r0, [r0], #-1
    3b24:	0000002c 	andeq	r0, r0, ip, lsr #32
    3b28:	65060103 	strvs	r0, [r6, #-259]	; 0xfffffefd
    3b2c:	03000001 	movweq	r0, #1
    3b30:	002a0502 	eoreq	r0, sl, r2, lsl #10
    3b34:	04030000 	streq	r0, [r3], #-0
    3b38:	0000e405 	andeq	lr, r0, r5, lsl #8
    3b3c:	05080300 	streq	r0, [r8, #-768]	; 0xfffffd00
    3b40:	000000df 	ldrdeq	r0, [r0], -pc	; <UNPREDICTABLE>
    3b44:	63080103 	movwvs	r0, #33027	; 0x8103
    3b48:	03000001 	movweq	r0, #1
    3b4c:	01f80702 	mvnseq	r0, r2, lsl #14
    3b50:	c6050000 	strgt	r0, [r5], -r0
    3b54:	03000001 	movweq	r0, #1
    3b58:	006e1934 	rsbeq	r1, lr, r4, lsr r9
    3b5c:	04030000 	streq	r0, [r3], #-0
    3b60:	0001ad07 	andeq	sl, r1, r7, lsl #26
    3b64:	07080300 	streq	r0, [r8, -r0, lsl #6]
    3b68:	000001a8 	andeq	r0, r0, r8, lsr #3
    3b6c:	6c080103 	stfvss	f0, [r8], {3}
    3b70:	06000001 	streq	r0, [r0], -r1
    3b74:	00540107 	subseq	r0, r4, r7, lsl #2
    3b78:	0c040000 	stceq	0, cr0, [r4], {-0}
    3b7c:	0000c20e 	andeq	ip, r0, lr, lsl #4
    3b80:	09280700 	stmdbeq	r8!, {r8, r9, sl}
    3b84:	07000000 	streq	r0, [r0, -r0]
    3b88:	00000765 	andeq	r0, r0, r5, ror #14
    3b8c:	07a10701 	streq	r0, [r1, r1, lsl #14]!
    3b90:	07040000 	streq	r0, [r4, -r0]
    3b94:	000007b0 			; <UNDEFINED> instruction: 0x000007b0
    3b98:	07bf0705 	ldreq	r0, [pc, r5, lsl #14]!
    3b9c:	07060000 	streq	r0, [r6, -r0]
    3ba0:	000007ce 	andeq	r0, r0, lr, asr #15
    3ba4:	08c00707 	stmiaeq	r0, {r0, r1, r2, r8, r9, sl}^
    3ba8:	07030000 	streq	r0, [r3, -r0]
    3bac:	000007dd 	ldrdeq	r0, [r0], -sp
    3bb0:	35050002 	strcc	r0, [r5, #-2]
    3bb4:	0400000b 	streq	r0, [r0], #-11
    3bb8:	00830315 	addeq	r0, r3, r5, lsl r3
    3bbc:	e0080000 	and	r0, r8, r0
    3bc0:	0100000a 	tsteq	r0, sl
    3bc4:	0033171d 	eorseq	r1, r3, sp, lsl r7
    3bc8:	001c0000 	andseq	r0, ip, r0
    3bcc:	d6082020 	strle	r2, [r8], -r0, lsr #32
    3bd0:	0100000a 	tsteq	r0, sl
    3bd4:	0033171e 	eorseq	r1, r3, lr, lsl r7
    3bd8:	00280000 	eoreq	r0, r8, r0
    3bdc:	41082020 	tstmi	r8, r0, lsr #32
    3be0:	0100000b 	tsteq	r0, fp
    3be4:	0033171f 	eorseq	r1, r3, pc, lsl r7
    3be8:	00340000 	eorseq	r0, r4, r0
    3bec:	ff092020 			; <UNDEFINED> instruction: 0xff092020
    3bf0:	0100000a 	tsteq	r0, sl
    3bf4:	00250555 	eoreq	r0, r5, r5, asr r5
    3bf8:	96b80000 	ldrtls	r0, [r8], r0
    3bfc:	00340000 	eorseq	r0, r4, r0
    3c00:	9c010000 	stcls	0, cr0, [r1], {-0}
    3c04:	0000016e 	andeq	r0, r0, lr, ror #2
    3c08:	6e69700a 	cdpvs	0, 6, cr7, cr9, cr10, {0}
    3c0c:	18550100 	ldmdane	r5, {r8}^
    3c10:	0000002c 	andeq	r0, r0, ip, lsr #32
    3c14:	0000191c 	andeq	r1, r0, ip, lsl r9
    3c18:	00001914 	andeq	r1, r0, r4, lsl r9
    3c1c:	000b4b0b 	andeq	r4, fp, fp, lsl #22
    3c20:	0e580100 	rdfeqe	f0, f0, f0
    3c24:	0000002c 	andeq	r0, r0, ip, lsr #32
    3c28:	0000195c 	andeq	r1, r0, ip, asr r9
    3c2c:	00001956 	andeq	r1, r0, r6, asr r9
    3c30:	66666f0c 	strbtvs	r6, [r6], -ip, lsl #30
    3c34:	0e590100 	rdfeqe	f0, f1, f0
    3c38:	0000002c 	andeq	r0, r0, ip, lsr #32
    3c3c:	0000199c 	muleq	r0, ip, r9
    3c40:	0000199a 	muleq	r0, sl, r9
    3c44:	0096d40d 	addseq	sp, r6, sp, lsl #8
    3c48:	00039000 	andeq	r9, r3, r0
    3c4c:	50010e00 	andpl	r0, r1, r0, lsl #28
    3c50:	5001f30b 	andpl	pc, r1, fp, lsl #6
    3c54:	b4232535 	strtlt	r2, [r3], #-1333	; 0xfffffacb
    3c58:	02818080 	addeq	r8, r1, #128, 0	; 0x80
    3c5c:	ea0f0000 	b	3c3c64 <__bss_end__+0x3b9c44>
    3c60:	0100000a 	tsteq	r0, sl
    3c64:	969c064e 	ldrls	r0, [ip], lr, asr #12
    3c68:	001c0000 	andseq	r0, ip, r0
    3c6c:	9c010000 	stcls	0, cr0, [r1], {-0}
    3c70:	000001c9 	andeq	r0, r0, r9, asr #3
    3c74:	6e69700a 	cdpvs	0, 6, cr7, cr9, cr10, {0}
    3c78:	1a4e0100 	bne	1384080 <__bss_end__+0x137a060>
    3c7c:	0000002c 	andeq	r0, r0, ip, lsr #32
    3c80:	000019b7 			; <UNDEFINED> instruction: 0x000019b7
    3c84:	000019af 	andeq	r1, r0, pc, lsr #19
    3c88:	0100760a 	tsteq	r0, sl, lsl #12
    3c8c:	002c284e 	eoreq	r2, ip, lr, asr #16
    3c90:	19f90000 	ldmibne	r9!, {}^	; <UNPREDICTABLE>
    3c94:	19f10000 	ldmibne	r1!, {}^	; <UNPREDICTABLE>
    3c98:	ac100000 	ldcge	0, cr0, [r0], {-0}
    3c9c:	51000096 	swppl	r0, r6, [r0]	; <UNPREDICTABLE>
    3ca0:	bf000002 	svclt	0x00000002
    3ca4:	0e000001 	cdpeq	0, 0, cr0, cr0, cr1, {0}
    3ca8:	f3035001 	vhadd.u8	d5, d3, d1
    3cac:	11005001 	tstne	r0, r1
    3cb0:	000096b4 			; <UNDEFINED> instruction: 0x000096b4
    3cb4:	0000020a 	andeq	r0, r0, sl, lsl #4
    3cb8:	0b090f00 	bleq	2478c0 <__bss_end__+0x23d8a0>
    3cbc:	49010000 	stmdbmi	r1, {}	; <UNPREDICTABLE>
    3cc0:	00968c06 	addseq	r8, r6, r6, lsl #24
    3cc4:	00001000 	andeq	r1, r0, r0
    3cc8:	0a9c0100 	beq	fe7040d0 <__bss_end__+0xfe6fa0b0>
    3ccc:	0a000002 	beq	3cdc <__code_start__-0x4324>
    3cd0:	006e6970 	rsbeq	r6, lr, r0, ror r9
    3cd4:	2c1e4901 			; <UNDEFINED> instruction: 0x2c1e4901
    3cd8:	37000000 	strcc	r0, [r0, -r0]
    3cdc:	3300001a 	movwcc	r0, #26
    3ce0:	0d00001a 	stceq	0, cr0, [r0, #-104]	; 0xffffff98
    3ce4:	00009698 	muleq	r0, r8, r6
    3ce8:	000002d9 	ldrdeq	r0, [r0], -r9
    3cec:	0350010e 	cmpeq	r0, #-2147483645	; 0x80000003
    3cf0:	0e5001f3 	mrceq	1, 2, r0, cr0, cr3, {7}
    3cf4:	30015101 	andcc	r5, r1, r1, lsl #2
    3cf8:	180f0000 	stmdane	pc, {}	; <UNPREDICTABLE>
    3cfc:	0100000b 	tsteq	r0, fp
    3d00:	96680642 	strbtls	r0, [r8], -r2, asr #12
    3d04:	00240000 	eoreq	r0, r4, r0
    3d08:	9c010000 	stcls	0, cr0, [r1], {-0}
    3d0c:	00000251 	andeq	r0, r0, r1, asr r2
    3d10:	6e69700a 	cdpvs	0, 6, cr7, cr9, cr10, {0}
    3d14:	1c420100 	stfnee	f0, [r2], {-0}
    3d18:	0000002c 	andeq	r0, r0, ip, lsr #32
    3d1c:	00001a5c 	andeq	r1, r0, ip, asr sl
    3d20:	00001a58 	andeq	r1, r0, r8, asr sl
    3d24:	0096840d 	addseq	r8, r6, sp, lsl #8
    3d28:	00039c00 	andeq	r9, r3, r0, lsl #24
    3d2c:	50010e00 	andpl	r0, r1, r0, lsl #28
    3d30:	00280c05 	eoreq	r0, r8, r5, lsl #24
    3d34:	010e2020 	tsteq	lr, r0, lsr #32
    3d38:	f3310551 	vqrshl.u64	q0, <illegal reg q0.5>, <illegal reg q0.5>
    3d3c:	00245001 	eoreq	r5, r4, r1
    3d40:	0b570f00 	bleq	15c7948 <__bss_end__+0x15bd928>
    3d44:	3b010000 	blcc	43d4c <__bss_end__+0x39d2c>
    3d48:	00964406 	addseq	r4, r6, r6, lsl #8
    3d4c:	00002400 	andeq	r2, r0, r0, lsl #8
    3d50:	989c0100 	ldmls	ip, {r8}
    3d54:	0a000002 	beq	3d64 <__code_start__-0x429c>
    3d58:	006e6970 	rsbeq	r6, lr, r0, ror r9
    3d5c:	2c1b3b01 			; <UNDEFINED> instruction: 0x2c1b3b01
    3d60:	81000000 	mrshi	r0, (UNDEF: 0)
    3d64:	7d00001a 	stcvc	0, cr0, [r0, #-104]	; 0xffffff98
    3d68:	0d00001a 	stceq	0, cr0, [r0, #-104]	; 0xffffff98
    3d6c:	00009660 	andeq	r9, r0, r0, ror #12
    3d70:	0000039c 	muleq	r0, ip, r3
    3d74:	0550010e 	ldrbeq	r0, [r0, #-270]	; 0xfffffef2
    3d78:	20001c0c 	andcs	r1, r0, ip, lsl #24
    3d7c:	51010e20 	tstpl	r1, r0, lsr #28
    3d80:	01f33105 	mvnseq	r3, r5, lsl #2
    3d84:	00002450 	andeq	r2, r0, r0, asr r4
    3d88:	000b250f 	andeq	r2, fp, pc, lsl #10
    3d8c:	06360100 	ldrteq	r0, [r6], -r0, lsl #2
    3d90:	00009634 	andeq	r9, r0, r4, lsr r6
    3d94:	00000010 	andeq	r0, r0, r0, lsl r0
    3d98:	02d99c01 	sbcseq	r9, r9, #256	; 0x100
    3d9c:	700a0000 	andvc	r0, sl, r0
    3da0:	01006e69 	tsteq	r0, r9, ror #28
    3da4:	002c1f36 	eoreq	r1, ip, r6, lsr pc
    3da8:	1aa60000 	bne	fe983db0 <__bss_end__+0xfe979d90>
    3dac:	1aa20000 	bne	fe883db4 <__bss_end__+0xfe879d94>
    3db0:	400d0000 	andmi	r0, sp, r0
    3db4:	d9000096 	stmdble	r0, {r1, r2, r4, r7}
    3db8:	0e000002 	cdpeq	0, 0, cr0, cr0, cr2, {0}
    3dbc:	f3035001 	vhadd.u8	d5, d3, d1
    3dc0:	010e5001 	tsteq	lr, r1
    3dc4:	00310151 	eorseq	r0, r1, r1, asr r1
    3dc8:	09380f00 	ldmdbeq	r8!, {r8, r9, sl, fp}
    3dcc:	28010000 	stmdacs	r1, {}	; <UNPREDICTABLE>
    3dd0:	0095d006 	addseq	sp, r5, r6
    3dd4:	00006400 	andeq	r6, r0, r0, lsl #8
    3dd8:	749c0100 	ldrvc	r0, [ip], #256	; 0x100
    3ddc:	0a000003 	beq	3df0 <__code_start__-0x4210>
    3de0:	006e6970 	rsbeq	r6, lr, r0, ror r9
    3de4:	2c212801 	stccs	8, cr2, [r1], #-4
    3de8:	cb000000 	blgt	3df0 <__code_start__-0x4210>
    3dec:	c700001a 	smladgt	r0, sl, r0, r0
    3df0:	1200001a 	andne	r0, r0, #26, 0
    3df4:	000003a6 	andeq	r0, r0, r6, lsr #7
    3df8:	c2322801 	eorsgt	r2, r2, #65536	; 0x10000
    3dfc:	f0000000 			; <UNDEFINED> instruction: 0xf0000000
    3e00:	ec00001a 	stc	0, cr0, [r0], {26}
    3e04:	0c00001a 	stceq	0, cr0, [r0], {26}
    3e08:	0066666f 	rsbeq	r6, r6, pc, ror #12
    3e0c:	2c0e2d01 	stccs	13, cr2, [lr], {1}
    3e10:	13000000 	movwne	r0, #0
    3e14:	1100001b 	tstne	r0, fp, lsl r0
    3e18:	0c00001b 	stceq	0, cr0, [r0], {27}
    3e1c:	2e010067 	cdpcs	0, 0, cr0, cr1, cr7, {3}
    3e20:	00002c0e 	andeq	r2, r0, lr, lsl #24
    3e24:	001b2800 	andseq	r2, fp, r0, lsl #16
    3e28:	001b2600 	andseq	r2, fp, r0, lsl #12
    3e2c:	00760c00 	rsbseq	r0, r6, r0, lsl #24
    3e30:	2c0e3001 	stccs	0, cr3, [lr], {1}
    3e34:	43000000 	movwmi	r0, #0
    3e38:	3b00001b 	blcc	3eac <__code_start__-0x4154>
    3e3c:	1000001b 	andne	r0, r0, fp, lsl r0
    3e40:	00009618 	andeq	r9, r0, r8, lsl r6
    3e44:	00000390 	muleq	r0, r0, r3
    3e48:	00000363 	andeq	r0, r0, r3, ror #6
    3e4c:	0250010e 	subseq	r0, r0, #-2147483645	; 0x80000003
    3e50:	0d000076 	stceq	0, cr0, [r0, #-472]	; 0xfffffe28
    3e54:	0000962c 	andeq	r9, r0, ip, lsr #12
    3e58:	0000039c 	muleq	r0, ip, r3
    3e5c:	0250010e 	subseq	r0, r0, #-2147483645	; 0x80000003
    3e60:	00000076 	andeq	r0, r0, r6, ror r0
    3e64:	000af513 	andeq	pc, sl, r3, lsl r5	; <UNPREDICTABLE>
    3e68:	18b10200 	ldmne	r1!, {r9}
    3e6c:	00000062 	andeq	r0, r0, r2, rrx
    3e70:	00039003 	andeq	r9, r3, r3
    3e74:	00781400 	rsbseq	r1, r8, r0, lsl #8
    3e78:	622bb102 	eorvs	fp, fp, #-2147483648	; 0x80000000
    3e7c:	00000000 	andeq	r0, r0, r0
    3e80:	00071815 	andeq	r1, r7, r5, lsl r8
    3e84:	00071800 	andeq	r1, r7, r0, lsl #16
    3e88:	0ac20200 	beq	ff084690 <__bss_end__+0xff07a670>
    3e8c:	00068415 	andeq	r8, r6, r5, lsl r4
    3e90:	00068400 	andeq	r8, r6, r0, lsl #8
    3e94:	06ad0200 	strteq	r0, [sp], r0, lsl #4
	...

Disassembly of section .debug_abbrev:

00000000 <.debug_abbrev>:
       0:	25011101 	strcs	r1, [r1, #-257]	; 0xfffffeff
       4:	030b130e 	movweq	r1, #45838	; 0xb30e
       8:	110e1b0e 	tstne	lr, lr, lsl #22
       c:	10061201 	andne	r1, r6, r1, lsl #4
      10:	02000017 	andeq	r0, r0, #23, 0
      14:	0b0b0024 	bleq	2c00ac <__bss_end__+0x2b608c>
      18:	08030b3e 	stmdaeq	r3, {r1, r2, r3, r4, r5, r8, r9, fp}
      1c:	24030000 	strcs	r0, [r3], #-0
      20:	3e0b0b00 	vmlacc.f64	d0, d11, d0
      24:	000e030b 	andeq	r0, lr, fp, lsl #6
      28:	00350400 	eorseq	r0, r5, r0, lsl #8
      2c:	00001349 	andeq	r1, r0, r9, asr #6
      30:	03001605 	movweq	r1, #1541	; 0x605
      34:	3b0b3a0e 	blcc	2ce874 <__bss_end__+0x2c4854>
      38:	490b390b 	stmdbmi	fp, {r0, r1, r3, r8, fp, ip, sp}
      3c:	06000013 			; <UNDEFINED> instruction: 0x06000013
      40:	19270115 	stmdbne	r7!, {r0, r2, r4, r8}
      44:	13011349 	movwne	r1, #4937	; 0x1349
      48:	05070000 	streq	r0, [r7, #-0]
      4c:	00134900 	andseq	r4, r3, r0, lsl #18
      50:	00340800 	eorseq	r0, r4, r0, lsl #16
      54:	0b3a0e03 	bleq	e83868 <__bss_end__+0xe79848>
      58:	0b390b3b 	bleq	e42d4c <__bss_end__+0xe38d2c>
      5c:	193f1349 	ldmdbne	pc!, {r0, r3, r6, r8, r9, ip}	; <UNPREDICTABLE>
      60:	0000193c 	andeq	r1, r0, ip, lsr r9
      64:	0b000f09 	bleq	3c90 <__code_start__-0x4370>
      68:	0013490b 	andseq	r4, r3, fp, lsl #18
      6c:	00260a00 	eoreq	r0, r6, r0, lsl #20
      70:	00001349 	andeq	r1, r0, r9, asr #6
      74:	0301130b 	movweq	r1, #4875	; 0x130b
      78:	3a0b0b0e 	bcc	2c2cb8 <__bss_end__+0x2b8c98>
      7c:	010b3b0b 	tsteq	fp, fp, lsl #22
      80:	0c000013 	stceq	0, cr0, [r0], {19}
      84:	0e03000d 	cdpeq	0, 0, cr0, cr3, cr13, {0}
      88:	0b381349 	bleq	e04db4 <__bss_end__+0xdfad94>
      8c:	00001934 	andeq	r1, r0, r4, lsr r9
      90:	0b000f0d 	bleq	3ccc <__code_start__-0x4334>
      94:	0e00000b 	cdpeq	0, 0, cr0, cr0, cr11, {0}
      98:	0b3e0104 	bleq	f804b0 <__bss_end__+0xf76490>
      9c:	13490b0b 	movtne	r0, #39691	; 0x9b0b
      a0:	0b3b0b3a 	bleq	ec2d90 <__bss_end__+0xeb8d70>
      a4:	13010b39 	movwne	r0, #6969	; 0x1b39
      a8:	280f0000 	stmdacs	pc, {}	; <UNPREDICTABLE>
      ac:	1c0e0300 	stcne	3, cr0, [lr], {-0}
      b0:	1000000b 	andne	r0, r0, fp
      b4:	19270015 	stmdbne	r7!, {r0, r2, r4}
      b8:	34110000 	ldrcc	r0, [r1], #-0
      bc:	3a080300 	bcc	200cc4 <__bss_end__+0x1f6ca4>
      c0:	390b3b0b 	stmdbcc	fp, {r0, r1, r3, r8, r9, fp, ip, sp}
      c4:	0213490b 	andseq	r4, r3, #180224	; 0x2c000
      c8:	12000018 	andne	r0, r0, #24, 0
      cc:	193f012e 	ldmdbne	pc!, {r1, r2, r3, r5, r8}	; <UNPREDICTABLE>
      d0:	0b3a0e03 	bleq	e838e4 <__bss_end__+0xe798c4>
      d4:	0b390b3b 	bleq	e42dc8 <__bss_end__+0xe38da8>
      d8:	01111927 	tsteq	r1, r7, lsr #18
      dc:	18400612 	stmdane	r0, {r1, r4, r9, sl}^
      e0:	01194296 			; <UNDEFINED> instruction: 0x01194296
      e4:	13000013 	movwne	r0, #19
      e8:	0e030034 	mcreq	0, 0, r0, cr3, cr4, {1}
      ec:	0b3b0b3a 	bleq	ec2ddc <__bss_end__+0xeb8dbc>
      f0:	13490b39 	movtne	r0, #39737	; 0x9b39
      f4:	00001802 	andeq	r1, r0, r2, lsl #16
      f8:	03003414 	movweq	r3, #1044	; 0x414
      fc:	3b0b3a08 	blcc	2ce924 <__bss_end__+0x2c4904>
     100:	490b390b 	stmdbmi	fp, {r0, r1, r3, r8, fp, ip, sp}
     104:	000b1c13 	andeq	r1, fp, r3, lsl ip
     108:	00341500 	eorseq	r1, r4, r0, lsl #10
     10c:	13490e03 	movtne	r0, #40451	; 0x9e03
     110:	18021934 	stmdane	r2, {r2, r4, r5, r8, fp, ip}
     114:	34160000 	ldrcc	r0, [r6], #-0
     118:	3a0e0300 	bcc	380d20 <__bss_end__+0x376d00>
     11c:	390b3b0b 	stmdbcc	fp, {r0, r1, r3, r8, r9, fp, ip, sp}
     120:	0213490b 	andseq	r4, r3, #180224	; 0x2c000
     124:	1742b717 	smlaldne	fp, r2, r7, r7
     128:	34170000 	ldrcc	r0, [r7], #-0
     12c:	3a080300 	bcc	200d34 <__bss_end__+0x1f6d14>
     130:	390b3b0b 	stmdbcc	fp, {r0, r1, r3, r8, r9, fp, ip, sp}
     134:	0213490b 	andseq	r4, r3, #180224	; 0x2c000
     138:	1742b717 	smlaldne	fp, r2, r7, r7
     13c:	0b180000 	bleq	600144 <__bss_end__+0x5f6124>
     140:	12011101 	andne	r1, r1, #1073741824	; 0x40000000
     144:	00130106 	andseq	r0, r3, r6, lsl #2
     148:	82891900 	addhi	r1, r9, #0, 18
     14c:	01110101 	tsteq	r1, r1, lsl #2
     150:	13011331 	movwne	r1, #4913	; 0x1331
     154:	8a1a0000 	bhi	68015c <__bss_end__+0x67613c>
     158:	02000182 	andeq	r0, r0, #-2147483616	; 0x80000020
     15c:	18429118 	stmdane	r2, {r3, r4, r8, ip, pc}^
     160:	891b0000 	ldmdbhi	fp, {}	; <UNPREDICTABLE>
     164:	11010182 	smlabbne	r1, r2, r1, r0
     168:	00133101 	andseq	r3, r3, r1, lsl #2
     16c:	82891c00 	addhi	r1, r9, #0, 24
     170:	01110001 	tsteq	r1, r1
     174:	00001331 	andeq	r1, r0, r1, lsr r3
     178:	0182891d 	orreq	r8, r2, sp, lsl r9
     17c:	93011100 	movwls	r1, #4352	; 0x1100
     180:	00001842 	andeq	r1, r0, r2, asr #16
     184:	4901011e 	stmdbmi	r1, {r1, r2, r3, r4, r8}
     188:	00130113 	andseq	r0, r3, r3, lsl r1
     18c:	00211f00 	eoreq	r1, r1, r0, lsl #30
     190:	0b2f1349 	bleq	bc4ebc <__bss_end__+0xbbae9c>
     194:	2e200000 	cdpcs	0, 2, cr0, cr0, cr0, {0}
     198:	03193f01 	tsteq	r9, #1, 30
     19c:	3b0b3a0e 	blcc	2ce9dc <__bss_end__+0x2c49bc>
     1a0:	270b390b 	strcs	r3, [fp, -fp, lsl #18]
     1a4:	12011119 	andne	r1, r1, #1073741830	; 0x40000006
     1a8:	97184006 	ldrls	r4, [r8, -r6]
     1ac:	13011942 	movwne	r1, #6466	; 0x1942
     1b0:	2e210000 	cdpcs	0, 2, cr0, cr1, cr0, {0}
     1b4:	03193f01 	tsteq	r9, #1, 30
     1b8:	3b0b3a0e 	blcc	2ce9f8 <__bss_end__+0x2c49d8>
     1bc:	270b390b 	strcs	r3, [fp, -fp, lsl #18]
     1c0:	11134919 	tstne	r3, r9, lsl r9
     1c4:	40061201 	andmi	r1, r6, r1, lsl #4
     1c8:	19429718 	stmdbne	r2, {r3, r4, r8, r9, sl, ip, pc}^
     1cc:	00001301 	andeq	r1, r0, r1, lsl #6
     1d0:	03000522 	movweq	r0, #1314	; 0x522
     1d4:	3b0b3a0e 	blcc	2cea14 <__bss_end__+0x2c49f4>
     1d8:	490b390b 	stmdbmi	fp, {r0, r1, r3, r8, fp, ip, sp}
     1dc:	b7170213 			; <UNDEFINED> instruction: 0xb7170213
     1e0:	00001742 	andeq	r1, r0, r2, asr #14
     1e4:	03000523 	movweq	r0, #1315	; 0x523
     1e8:	3b0b3a08 	blcc	2cea10 <__bss_end__+0x2c49f0>
     1ec:	490b390b 	stmdbmi	fp, {r0, r1, r3, r8, fp, ip, sp}
     1f0:	00180213 	andseq	r0, r8, r3, lsl r2
     1f4:	00182400 	andseq	r2, r8, r0, lsl #8
     1f8:	0b250000 	bleq	940200 <__bss_end__+0x9361e0>
     1fc:	12011101 	andne	r1, r1, #1073741824	; 0x40000000
     200:	26000006 	strcs	r0, [r0], -r6
     204:	1331011d 	teqne	r1, #1073741831	; 0x40000007
     208:	42b80152 	adcsmi	r0, r8, #-2147483628	; 0x80000014
     20c:	1201110b 	andne	r1, r1, #-1073741822	; 0xc0000002
     210:	590b5806 	stmdbpl	fp, {r1, r2, fp, ip, lr}
     214:	010b570b 	tsteq	fp, fp, lsl #14
     218:	27000013 	smladcs	r0, r3, r0, r0
     21c:	13310005 	teqne	r1, #5, 0
     220:	42b71702 	adcsmi	r1, r7, #524288	; 0x80000
     224:	28000017 	stmdacs	r0, {r0, r1, r2, r4}
     228:	13310034 	teqne	r1, #52, 0	; 0x34
     22c:	42b71702 	adcsmi	r1, r7, #524288	; 0x80000
     230:	29000017 	stmdbcs	r0, {r0, r1, r2, r4}
     234:	08030005 	stmdaeq	r3, {r0, r2}
     238:	0b3b0b3a 	bleq	ec2f28 <__bss_end__+0xeb8f08>
     23c:	13490b39 	movtne	r0, #39737	; 0x9b39
     240:	42b71702 	adcsmi	r1, r7, #524288	; 0x80000
     244:	2a000017 	bcs	2a8 <__code_start__-0x7d58>
     248:	1755010b 	ldrbne	r0, [r5, -fp, lsl #2]
     24c:	00001301 	andeq	r1, r0, r1, lsl #6
     250:	31011d2b 	tstcc	r1, fp, lsr #26
     254:	b8015213 	stmdalt	r1, {r0, r1, r4, r9, ip, lr}
     258:	01110b42 	tsteq	r1, r2, asr #22
     25c:	0b580612 	bleq	1601aac <__bss_end__+0x15f7a8c>
     260:	0b570b59 	bleq	15c2fcc <__bss_end__+0x15b8fac>
     264:	2e2c0000 	cdpcs	0, 2, cr0, cr12, cr0, {0}
     268:	03193f00 	tsteq	r9, #0, 30
     26c:	3b0b3a0e 	blcc	2ceaac <__bss_end__+0x2c4a8c>
     270:	110b390b 	tstne	fp, fp, lsl #18
     274:	40061201 	andmi	r1, r6, r1, lsl #4
     278:	19429718 	stmdbne	r2, {r3, r4, r8, r9, sl, ip, pc}^
     27c:	2e2d0000 	cdpcs	0, 2, cr0, cr13, cr0, {0}
     280:	3a0e0301 	bcc	380e8c <__bss_end__+0x376e6c>
     284:	390b3b0b 	stmdbcc	fp, {r0, r1, r3, r8, r9, fp, ip, sp}
     288:	4919270b 	ldmdbmi	r9, {r0, r1, r3, r8, r9, sl, sp}
     28c:	010b2013 	tsteq	fp, r3, lsl r0
     290:	2e000013 	mcrcs	0, 0, r0, cr0, cr3, {0}
     294:	08030005 	stmdaeq	r3, {r0, r2}
     298:	0b3b0b3a 	bleq	ec2f88 <__bss_end__+0xeb8f68>
     29c:	13490b39 	movtne	r0, #39737	; 0x9b39
     2a0:	052f0000 	streq	r0, [pc, #-0]!	; 2a8 <__code_start__-0x7d58>
     2a4:	3a0e0300 	bcc	380eac <__bss_end__+0x376e8c>
     2a8:	390b3b0b 	stmdbcc	fp, {r0, r1, r3, r8, r9, fp, ip, sp}
     2ac:	0013490b 	andseq	r4, r3, fp, lsl #18
     2b0:	00343000 	eorseq	r3, r4, r0
     2b4:	0b3a0e03 	bleq	e83ac8 <__bss_end__+0xe79aa8>
     2b8:	0b390b3b 	bleq	e42fac <__bss_end__+0xe38f8c>
     2bc:	00001349 	andeq	r1, r0, r9, asr #6
     2c0:	3f002e31 	svccc	0x00002e31
     2c4:	6e193c19 	mrcvs	12, 0, r3, cr9, cr9, {0}
     2c8:	3a0e030e 	bcc	380f08 <__bss_end__+0x376ee8>
     2cc:	390b3b0b 	stmdbcc	fp, {r0, r1, r3, r8, r9, fp, ip, sp}
     2d0:	0000000b 	andeq	r0, r0, fp
     2d4:	25011101 	strcs	r1, [r1, #-257]	; 0xfffffeff
     2d8:	030b130e 	movweq	r1, #45838	; 0xb30e
     2dc:	110e1b0e 	tstne	lr, lr, lsl #22
     2e0:	10061201 	andne	r1, r6, r1, lsl #4
     2e4:	02000017 	andeq	r0, r0, #23, 0
     2e8:	0e030016 	mcreq	0, 0, r0, cr3, cr6, {0}
     2ec:	0b3b0b3a 	bleq	ec2fdc <__bss_end__+0xeb8fbc>
     2f0:	13490b39 	movtne	r0, #39737	; 0x9b39
     2f4:	13030000 	movwne	r0, #12288	; 0x3000
     2f8:	0b0e0301 	bleq	380f04 <__bss_end__+0x376ee4>
     2fc:	3b0b3a0b 	blcc	2ceb30 <__bss_end__+0x2c4b10>
     300:	0013010b 	andseq	r0, r3, fp, lsl #2
     304:	000d0400 	andeq	r0, sp, r0, lsl #8
     308:	13490e03 	movtne	r0, #40451	; 0x9e03
     30c:	19340b38 	ldmdbne	r4!, {r3, r4, r5, r8, r9, fp}
     310:	0f050000 	svceq	0x00050000
     314:	000b0b00 	andeq	r0, fp, r0, lsl #22
     318:	00240600 	eoreq	r0, r4, r0, lsl #12
     31c:	0b3e0b0b 	bleq	f82f50 <__bss_end__+0xf78f30>
     320:	00000803 	andeq	r0, r0, r3, lsl #16
     324:	0b002407 	bleq	9348 <kmalloc+0x4c>
     328:	030b3e0b 	movweq	r3, #48651	; 0xbe0b
     32c:	0800000e 	stmdaeq	r0, {r1, r2, r3}
     330:	19270115 	stmdbne	r7!, {r0, r2, r4, r8}
     334:	13011349 	movwne	r1, #4937	; 0x1349
     338:	05090000 	streq	r0, [r9, #-0]
     33c:	00134900 	andseq	r4, r3, r0, lsl #18
     340:	00340a00 	eorseq	r0, r4, r0, lsl #20
     344:	0b3a0e03 	bleq	e83b58 <__bss_end__+0xe79b38>
     348:	0b390b3b 	bleq	e4303c <__bss_end__+0xe3901c>
     34c:	193f1349 	ldmdbne	pc!, {r0, r3, r6, r8, r9, ip}	; <UNPREDICTABLE>
     350:	0000193c 	andeq	r1, r0, ip, lsr r9
     354:	0b000f0b 	bleq	3f88 <__code_start__-0x4078>
     358:	0013490b 	andseq	r4, r3, fp, lsl #18
     35c:	00260c00 	eoreq	r0, r6, r0, lsl #24
     360:	00001349 	andeq	r1, r0, r9, asr #6
     364:	3f012e0d 	svccc	0x00012e0d
     368:	3a0e0319 	bcc	380fd4 <__bss_end__+0x376fb4>
     36c:	390b3b0b 	stmdbcc	fp, {r0, r1, r3, r8, r9, fp, ip, sp}
     370:	4919270b 	ldmdbmi	r9, {r0, r1, r3, r8, r9, sl, sp}
     374:	12011113 	andne	r1, r1, #-1073741820	; 0xc0000004
     378:	97184006 	ldrls	r4, [r8, -r6]
     37c:	13011942 	movwne	r1, #6466	; 0x1942
     380:	050e0000 	streq	r0, [lr, #-0]
     384:	3a080300 	bcc	200f8c <__bss_end__+0x1f6f6c>
     388:	390b3b0b 	stmdbcc	fp, {r0, r1, r3, r8, r9, fp, ip, sp}
     38c:	0213490b 	andseq	r4, r3, #180224	; 0x2c000
     390:	0f000018 	svceq	0x00000018
     394:	00000018 	andeq	r0, r0, r8, lsl r0
     398:	03003410 	movweq	r3, #1040	; 0x410
     39c:	3b0b3a08 	blcc	2cebc4 <__bss_end__+0x2c4ba4>
     3a0:	490b390b 	stmdbmi	fp, {r0, r1, r3, r8, fp, ip, sp}
     3a4:	00180213 	andseq	r0, r8, r3, lsl r2
     3a8:	00341100 	eorseq	r1, r4, r0, lsl #2
     3ac:	0b3a0e03 	bleq	e83bc0 <__bss_end__+0xe79ba0>
     3b0:	0b390b3b 	bleq	e430a4 <__bss_end__+0xe39084>
     3b4:	18021349 	stmdane	r2, {r0, r3, r6, r8, r9, ip}
     3b8:	34120000 	ldrcc	r0, [r2], #-0
     3bc:	3a080300 	bcc	200fc4 <__bss_end__+0x1f6fa4>
     3c0:	390b3b0b 	stmdbcc	fp, {r0, r1, r3, r8, r9, fp, ip, sp}
     3c4:	0213490b 	andseq	r4, r3, #180224	; 0x2c000
     3c8:	1742b717 	smlaldne	fp, r2, r7, r7
     3cc:	89130000 	ldmdbhi	r3, {}	; <UNPREDICTABLE>
     3d0:	11010182 	smlabbne	r1, r2, r1, r0
     3d4:	01133101 	tsteq	r3, r1, lsl #2
     3d8:	14000013 	strne	r0, [r0], #-19	; 0xffffffed
     3dc:	0001828a 	andeq	r8, r1, sl, lsl #5
     3e0:	42911802 	addsmi	r1, r1, #131072	; 0x20000
     3e4:	15000018 	strne	r0, [r0, #-24]	; 0xffffffe8
     3e8:	01018289 	smlabbeq	r1, r9, r2, r8
     3ec:	00000111 	andeq	r0, r0, r1, lsl r1
     3f0:	49010116 	stmdbmi	r1, {r1, r2, r4, r8}
     3f4:	00130113 	andseq	r0, r3, r3, lsl r1
     3f8:	00211700 	eoreq	r1, r1, r0, lsl #14
     3fc:	052f1349 	streq	r1, [pc, #-841]!	; bb <__code_start__-0x7f45>
     400:	2e180000 	cdpcs	0, 1, cr0, cr8, cr0, {0}
     404:	3c193f00 	ldccc	15, cr3, [r9], {-0}
     408:	030e6e19 	movweq	r6, #60953	; 0xee19
     40c:	3b0b3a0e 	blcc	2cec4c <__bss_end__+0x2c4c2c>
     410:	000b390b 	andeq	r3, fp, fp, lsl #18
     414:	11010000 	mrsne	r0, (UNDEF: 1)
     418:	130e2501 	movwne	r2, #58625	; 0xe501
     41c:	1b0e030b 	blne	381050 <__bss_end__+0x377030>
     420:	1201110e 	andne	r1, r1, #-2147483645	; 0x80000003
     424:	00171006 	andseq	r1, r7, r6
     428:	00240200 	eoreq	r0, r4, r0, lsl #4
     42c:	0b3e0b0b 	bleq	f83060 <__bss_end__+0xf79040>
     430:	00000803 	andeq	r0, r0, r3, lsl #16
     434:	0b002403 	bleq	9448 <kmalloc_aligned+0xe8>
     438:	030b3e0b 	movweq	r3, #48651	; 0xbe0b
     43c:	0400000e 	streq	r0, [r0], #-14
     440:	19270115 	stmdbne	r7!, {r0, r2, r4, r8}
     444:	13011349 	movwne	r1, #4937	; 0x1349
     448:	05050000 	streq	r0, [r5, #-0]
     44c:	00134900 	andseq	r4, r3, r0, lsl #18
     450:	00340600 	eorseq	r0, r4, r0, lsl #12
     454:	0b3a0e03 	bleq	e83c68 <__bss_end__+0xe79c48>
     458:	0b390b3b 	bleq	e4314c <__bss_end__+0xe3912c>
     45c:	193f1349 	ldmdbne	pc!, {r0, r3, r6, r8, r9, ip}	; <UNPREDICTABLE>
     460:	0000193c 	andeq	r1, r0, ip, lsr r9
     464:	0b000f07 	bleq	4088 <__code_start__-0x3f78>
     468:	0013490b 	andseq	r4, r3, fp, lsl #18
     46c:	00260800 	eoreq	r0, r6, r0, lsl #16
     470:	00001349 	andeq	r1, r0, r9, asr #6
     474:	47003409 	strmi	r3, [r0, -r9, lsl #8]
     478:	3b0b3a13 	blcc	2ceccc <__bss_end__+0x2c4cac>
     47c:	020b390b 	andeq	r3, fp, #180224	; 0x2c000
     480:	0a000018 	beq	4e8 <__code_start__-0x7b18>
     484:	193f012e 	ldmdbne	pc!, {r1, r2, r3, r5, r8}	; <UNPREDICTABLE>
     488:	0b3a0e03 	bleq	e83c9c <__bss_end__+0xe79c7c>
     48c:	0b390b3b 	bleq	e43180 <__bss_end__+0xe39160>
     490:	01111927 	tsteq	r1, r7, lsr #18
     494:	18400612 	stmdane	r0, {r1, r4, r9, sl}^
     498:	01194297 			; <UNDEFINED> instruction: 0x01194297
     49c:	0b000013 	bleq	4f0 <__code_start__-0x7b10>
     4a0:	08030005 	stmdaeq	r3, {r0, r2}
     4a4:	0b3b0b3a 	bleq	ec3194 <__bss_end__+0xeb9174>
     4a8:	13490b39 	movtne	r0, #39737	; 0x9b39
     4ac:	00001802 	andeq	r1, r0, r2, lsl #16
     4b0:	3f002e0c 	svccc	0x00002e0c
     4b4:	3a0e0319 	bcc	381120 <__bss_end__+0x377100>
     4b8:	390b3b0b 	stmdbcc	fp, {r0, r1, r3, r8, r9, fp, ip, sp}
     4bc:	1119270b 	tstne	r9, fp, lsl #14
     4c0:	40061201 	andmi	r1, r6, r1, lsl #4
     4c4:	19429718 	stmdbne	r2, {r3, r4, r8, r9, sl, ip, pc}^
     4c8:	2e0d0000 	cdpcs	0, 0, cr0, cr13, cr0, {0}
     4cc:	3a0e0301 	bcc	3810d8 <__bss_end__+0x3770b8>
     4d0:	390b3b0b 	stmdbcc	fp, {r0, r1, r3, r8, r9, fp, ip, sp}
     4d4:	4919270b 	ldmdbmi	r9, {r0, r1, r3, r8, r9, sl, sp}
     4d8:	12011113 	andne	r1, r1, #-1073741820	; 0xc0000004
     4dc:	97184006 	ldrls	r4, [r8, -r6]
     4e0:	13011942 	movwne	r1, #6466	; 0x1942
     4e4:	050e0000 	streq	r0, [lr, #-0]
     4e8:	3a080300 	bcc	2010f0 <__bss_end__+0x1f70d0>
     4ec:	390b3b0b 	stmdbcc	fp, {r0, r1, r3, r8, r9, fp, ip, sp}
     4f0:	0213490b 	andseq	r4, r3, #180224	; 0x2c000
     4f4:	1742b717 	smlaldne	fp, r2, r7, r7
     4f8:	890f0000 	stmdbhi	pc, {}	; <UNPREDICTABLE>
     4fc:	11010182 	smlabbne	r1, r2, r1, r0
     500:	00133101 	andseq	r3, r3, r1, lsl #2
     504:	828a1000 	addhi	r1, sl, #0, 0
     508:	18020001 	stmdane	r2, {r0}
     50c:	00184291 	mulseq	r8, r1, r2
     510:	002e1100 	eoreq	r1, lr, r0, lsl #2
     514:	193c193f 	ldmdbne	ip!, {r0, r1, r2, r3, r4, r5, r8, fp, ip}
     518:	0e030e6e 	cdpeq	14, 0, cr0, cr3, cr14, {3}
     51c:	0b3b0b3a 	bleq	ec320c <__bss_end__+0xeb91ec>
     520:	00000b39 	andeq	r0, r0, r9, lsr fp
     524:	01110100 	tsteq	r1, r0, lsl #2
     528:	0b130e25 	bleq	4c3dc4 <__bss_end__+0x4b9da4>
     52c:	0e1b0e03 	cdpeq	14, 1, cr0, cr11, cr3, {0}
     530:	06120111 			; <UNDEFINED> instruction: 0x06120111
     534:	00001710 	andeq	r1, r0, r0, lsl r7
     538:	0b002402 	bleq	9548 <strcmp+0xc>
     53c:	030b3e0b 	movweq	r3, #48651	; 0xbe0b
     540:	03000008 	movweq	r0, #8
     544:	0b0b0024 	bleq	2c05dc <__bss_end__+0x2b65bc>
     548:	0e030b3e 	vmoveq.16	d3[0], r0
     54c:	15040000 	strne	r0, [r4, #-0]
     550:	49192701 	ldmdbmi	r9, {r0, r8, r9, sl, sp}
     554:	00130113 	andseq	r0, r3, r3, lsl r1
     558:	00050500 	andeq	r0, r5, r0, lsl #10
     55c:	00001349 	andeq	r1, r0, r9, asr #6
     560:	03003406 	movweq	r3, #1030	; 0x406
     564:	3b0b3a0e 	blcc	2ceda4 <__bss_end__+0x2c4d84>
     568:	490b390b 	stmdbmi	fp, {r0, r1, r3, r8, fp, ip, sp}
     56c:	3c193f13 	ldccc	15, cr3, [r9], {19}
     570:	07000019 	smladeq	r0, r9, r0, r0
     574:	0b0b000f 	bleq	2c05b8 <__bss_end__+0x2b6598>
     578:	00001349 	andeq	r1, r0, r9, asr #6
     57c:	49002608 	stmdbmi	r0, {r3, r9, sl, sp}
     580:	09000013 	stmdbeq	r0, {r0, r1, r4}
     584:	13470034 	movtne	r0, #28724	; 0x7034
     588:	0b3b0b3a 	bleq	ec3278 <__bss_end__+0xeb9258>
     58c:	18020b39 	stmdane	r2, {r0, r3, r4, r5, r8, r9, fp}
     590:	2e0a0000 	cdpcs	0, 0, cr0, cr10, cr0, {0}
     594:	03193f01 	tsteq	r9, #1, 30
     598:	3b0b3a0e 	blcc	2cedd8 <__bss_end__+0x2c4db8>
     59c:	270b390b 	strcs	r3, [fp, -fp, lsl #18]
     5a0:	11134919 	tstne	r3, r9, lsl r9
     5a4:	40061201 	andmi	r1, r6, r1, lsl #4
     5a8:	19429618 	stmdbne	r2, {r3, r4, r9, sl, ip, pc}^
     5ac:	050b0000 	streq	r0, [fp, #-0]
     5b0:	3a080300 	bcc	2011b8 <__bss_end__+0x1f7198>
     5b4:	390b3b0b 	stmdbcc	fp, {r0, r1, r3, r8, r9, fp, ip, sp}
     5b8:	0213490b 	andseq	r4, r3, #180224	; 0x2c000
     5bc:	1742b717 	smlaldne	fp, r2, r7, r7
     5c0:	01000000 	mrseq	r0, (UNDEF: 0)
     5c4:	0e250111 	mcreq	1, 1, r0, cr5, cr1, {0}
     5c8:	0e030b13 	vmoveq.32	d3[0], r0
     5cc:	01110e1b 	tsteq	r1, fp, lsl lr
     5d0:	17100612 			; <UNDEFINED> instruction: 0x17100612
     5d4:	24020000 	strcs	r0, [r2], #-0
     5d8:	3e0b0b00 	vmlacc.f64	d0, d11, d0
     5dc:	0008030b 	andeq	r0, r8, fp, lsl #6
     5e0:	00240300 	eoreq	r0, r4, r0, lsl #6
     5e4:	0b3e0b0b 	bleq	f83218 <__bss_end__+0xf791f8>
     5e8:	00000e03 	andeq	r0, r0, r3, lsl #28
     5ec:	03001604 	movweq	r1, #1540	; 0x604
     5f0:	3b0b3a0e 	blcc	2cee30 <__bss_end__+0x2c4e10>
     5f4:	490b390b 	stmdbmi	fp, {r0, r1, r3, r8, fp, ip, sp}
     5f8:	05000013 	streq	r0, [r0, #-19]	; 0xffffffed
     5fc:	19270115 	stmdbne	r7!, {r0, r2, r4, r8}
     600:	13011349 	movwne	r1, #4937	; 0x1349
     604:	05060000 	streq	r0, [r6, #-0]
     608:	00134900 	andseq	r4, r3, r0, lsl #18
     60c:	00340700 	eorseq	r0, r4, r0, lsl #14
     610:	0b3a0e03 	bleq	e83e24 <__bss_end__+0xe79e04>
     614:	0b390b3b 	bleq	e43308 <__bss_end__+0xe392e8>
     618:	193f1349 	ldmdbne	pc!, {r0, r3, r6, r8, r9, ip}	; <UNPREDICTABLE>
     61c:	0000193c 	andeq	r1, r0, ip, lsr r9
     620:	0b000f08 	bleq	4248 <__code_start__-0x3db8>
     624:	0013490b 	andseq	r4, r3, fp, lsl #18
     628:	00260900 	eoreq	r0, r6, r0, lsl #18
     62c:	00001349 	andeq	r1, r0, r9, asr #6
     630:	0301130a 	movweq	r1, #4874	; 0x130a
     634:	3a0b0b0e 	bcc	2c3274 <__bss_end__+0x2b9254>
     638:	010b3b0b 	tsteq	fp, fp, lsl #22
     63c:	0b000013 	bleq	690 <__code_start__-0x7970>
     640:	0e03000d 	cdpeq	0, 0, cr0, cr3, cr13, {0}
     644:	0b381349 	bleq	e05370 <__bss_end__+0xdfb350>
     648:	00001934 	andeq	r1, r0, r4, lsr r9
     64c:	0b000f0c 	bleq	4284 <__code_start__-0x3d7c>
     650:	0d00000b 	stceq	0, cr0, [r0, #-44]	; 0xffffffd4
     654:	193f012e 	ldmdbne	pc!, {r1, r2, r3, r5, r8}	; <UNPREDICTABLE>
     658:	0b3a0e03 	bleq	e83e6c <__bss_end__+0xe79e4c>
     65c:	0b390b3b 	bleq	e43350 <__bss_end__+0xe39330>
     660:	13491927 	movtne	r1, #39207	; 0x9927
     664:	06120111 			; <UNDEFINED> instruction: 0x06120111
     668:	42971840 	addsmi	r1, r7, #64, 16	; 0x400000
     66c:	00130119 	andseq	r0, r3, r9, lsl r1
     670:	00050e00 	andeq	r0, r5, r0, lsl #28
     674:	0b3a0803 	bleq	e82688 <__bss_end__+0xe78668>
     678:	0b390b3b 	bleq	e4336c <__bss_end__+0xe3934c>
     67c:	17021349 	strne	r1, [r2, -r9, asr #6]
     680:	001742b7 			; <UNDEFINED> instruction: 0x001742b7
     684:	00050f00 	andeq	r0, r5, r0, lsl #30
     688:	0b3a0e03 	bleq	e83e9c <__bss_end__+0xe79e7c>
     68c:	0b390b3b 	bleq	e43380 <__bss_end__+0xe39360>
     690:	18021349 	stmdane	r2, {r0, r3, r6, r8, r9, ip}
     694:	34100000 	ldrcc	r0, [r0], #-0
     698:	3a080300 	bcc	2012a0 <__bss_end__+0x1f7280>
     69c:	390b3b0b 	stmdbcc	fp, {r0, r1, r3, r8, r9, fp, ip, sp}
     6a0:	0213490b 	andseq	r4, r3, #180224	; 0x2c000
     6a4:	1742b717 	smlaldne	fp, r2, r7, r7
     6a8:	34110000 	ldrcc	r0, [r1], #-0
     6ac:	3a0e0300 	bcc	3812b4 <__bss_end__+0x377294>
     6b0:	390b3b0b 	stmdbcc	fp, {r0, r1, r3, r8, r9, fp, ip, sp}
     6b4:	0213490b 	andseq	r4, r3, #180224	; 0x2c000
     6b8:	1742b717 	smlaldne	fp, r2, r7, r7
     6bc:	34120000 	ldrcc	r0, [r2], #-0
     6c0:	490e0300 	stmdbmi	lr, {r8, r9}
     6c4:	02193413 	andseq	r3, r9, #318767104	; 0x13000000
     6c8:	13000018 	movwne	r0, #24
     6cc:	0111010b 	tsteq	r1, fp, lsl #2
     6d0:	00000612 	andeq	r0, r0, r2, lsl r6
     6d4:	03003414 	movweq	r3, #1044	; 0x414
     6d8:	3b0b3a08 	blcc	2cef00 <__bss_end__+0x2c4ee0>
     6dc:	490b390b 	stmdbmi	fp, {r0, r1, r3, r8, fp, ip, sp}
     6e0:	00180213 	andseq	r0, r8, r3, lsl r2
     6e4:	00341500 	eorseq	r1, r4, r0, lsl #10
     6e8:	0b3a0e03 	bleq	e83efc <__bss_end__+0xe79edc>
     6ec:	0b390b3b 	bleq	e433e0 <__bss_end__+0xe393c0>
     6f0:	18021349 	stmdane	r2, {r0, r3, r6, r8, r9, ip}
     6f4:	0b160000 	bleq	5806fc <__bss_end__+0x5766dc>
     6f8:	12011101 	andne	r1, r1, #1073741824	; 0x40000000
     6fc:	00130106 	andseq	r0, r3, r6, lsl #2
     700:	00341700 	eorseq	r1, r4, r0, lsl #14
     704:	0b3a0803 	bleq	e82718 <__bss_end__+0xe786f8>
     708:	0b390b3b 	bleq	e433fc <__bss_end__+0xe393dc>
     70c:	00001349 	andeq	r1, r0, r9, asr #6
     710:	01828918 	orreq	r8, r2, r8, lsl r9
     714:	31011101 	tstcc	r1, r1, lsl #2
     718:	00130113 	andseq	r0, r3, r3, lsl r1
     71c:	828a1900 	addhi	r1, sl, #0, 18
     720:	18020001 	stmdane	r2, {r0}
     724:	00184291 	mulseq	r8, r1, r2
     728:	82891a00 	addhi	r1, r9, #0, 20
     72c:	01110001 	tsteq	r1, r1
     730:	00001331 	andeq	r1, r0, r1, lsr r3
     734:	0182891b 	orreq	r8, r2, fp, lsl r9
     738:	01011101 	tsteq	r1, r1, lsl #2
     73c:	1c000013 	stcne	0, cr0, [r0], {19}
     740:	13490101 	movtne	r0, #37121	; 0x9101
     744:	00001301 	andeq	r1, r0, r1, lsl #6
     748:	4900211d 	stmdbmi	r0, {r0, r2, r3, r4, r8, sp}
     74c:	000b2f13 	andeq	r2, fp, r3, lsl pc
     750:	012e1e00 			; <UNDEFINED> instruction: 0x012e1e00
     754:	0b3a0e03 	bleq	e83f68 <__bss_end__+0xe79f48>
     758:	0b390b3b 	bleq	e4344c <__bss_end__+0xe3942c>
     75c:	13491927 	movtne	r1, #39207	; 0x9927
     760:	06120111 			; <UNDEFINED> instruction: 0x06120111
     764:	42971840 	addsmi	r1, r7, #64, 16	; 0x400000
     768:	00130119 	andseq	r0, r3, r9, lsl r1
     76c:	00051f00 	andeq	r1, r5, r0, lsl #30
     770:	0b3a0e03 	bleq	e83f84 <__bss_end__+0xe79f64>
     774:	0b390b3b 	bleq	e43468 <__bss_end__+0xe39448>
     778:	17021349 	strne	r1, [r2, -r9, asr #6]
     77c:	001742b7 			; <UNDEFINED> instruction: 0x001742b7
     780:	012e2000 			; <UNDEFINED> instruction: 0x012e2000
     784:	0b3a0803 	bleq	e82798 <__bss_end__+0xe78778>
     788:	0b390b3b 	bleq	e4347c <__bss_end__+0xe3945c>
     78c:	13491927 	movtne	r1, #39207	; 0x9927
     790:	06120111 			; <UNDEFINED> instruction: 0x06120111
     794:	42971840 	addsmi	r1, r7, #64, 16	; 0x400000
     798:	00130119 	andseq	r0, r3, r9, lsl r1
     79c:	012e2100 			; <UNDEFINED> instruction: 0x012e2100
     7a0:	0e03193f 			; <UNDEFINED> instruction: 0x0e03193f
     7a4:	0b3b0b3a 	bleq	ec3494 <__bss_end__+0xeb9474>
     7a8:	19270b39 	stmdbne	r7!, {r0, r3, r4, r5, r8, r9, fp}
     7ac:	06120111 			; <UNDEFINED> instruction: 0x06120111
     7b0:	42971840 	addsmi	r1, r7, #64, 16	; 0x400000
     7b4:	00130119 	andseq	r0, r3, r9, lsl r1
     7b8:	002e2200 	eoreq	r2, lr, r0, lsl #4
     7bc:	193c193f 	ldmdbne	ip!, {r0, r1, r2, r3, r4, r5, r8, fp, ip}
     7c0:	0e030e6e 	cdpeq	14, 0, cr0, cr3, cr14, {3}
     7c4:	0b3b0b3a 	bleq	ec34b4 <__bss_end__+0xeb9494>
     7c8:	00000b39 	andeq	r0, r0, r9, lsr fp
     7cc:	01110100 	tsteq	r1, r0, lsl #2
     7d0:	0b130e25 	bleq	4c406c <__bss_end__+0x4ba04c>
     7d4:	0e1b0e03 	cdpeq	14, 1, cr0, cr11, cr3, {0}
     7d8:	06120111 			; <UNDEFINED> instruction: 0x06120111
     7dc:	00001710 	andeq	r1, r0, r0, lsl r7
     7e0:	0b002402 	bleq	97f0 <__code_end__+0x104>
     7e4:	030b3e0b 	movweq	r3, #48651	; 0xbe0b
     7e8:	03000008 	movweq	r0, #8
     7ec:	0b0b0024 	bleq	2c0884 <__bss_end__+0x2b6864>
     7f0:	0e030b3e 	vmoveq.16	d3[0], r0
     7f4:	15040000 	strne	r0, [r4, #-0]
     7f8:	49192701 	ldmdbmi	r9, {r0, r8, r9, sl, sp}
     7fc:	00130113 	andseq	r0, r3, r3, lsl r1
     800:	00050500 	andeq	r0, r5, r0, lsl #10
     804:	00001349 	andeq	r1, r0, r9, asr #6
     808:	03003406 	movweq	r3, #1030	; 0x406
     80c:	3b0b3a0e 	blcc	2cf04c <__bss_end__+0x2c502c>
     810:	490b390b 	stmdbmi	fp, {r0, r1, r3, r8, fp, ip, sp}
     814:	3c193f13 	ldccc	15, cr3, [r9], {19}
     818:	07000019 	smladeq	r0, r9, r0, r0
     81c:	0b0b000f 	bleq	2c0860 <__bss_end__+0x2b6840>
     820:	00001349 	andeq	r1, r0, r9, asr #6
     824:	49002608 	stmdbmi	r0, {r3, r9, sl, sp}
     828:	09000013 	stmdbeq	r0, {r0, r1, r4}
     82c:	193f012e 	ldmdbne	pc!, {r1, r2, r3, r5, r8}	; <UNPREDICTABLE>
     830:	0b3a0e03 	bleq	e84044 <__bss_end__+0xe7a024>
     834:	0b390b3b 	bleq	e43528 <__bss_end__+0xe39508>
     838:	01871927 	orreq	r1, r7, r7, lsr #18
     83c:	12011119 	andne	r1, r1, #1073741830	; 0x40000006
     840:	97184006 	ldrls	r4, [r8, -r6]
     844:	13011942 	movwne	r1, #6466	; 0x1942
     848:	890a0000 	stmdbhi	sl, {}	; <UNPREDICTABLE>
     84c:	11010182 	smlabbne	r1, r2, r1, r0
     850:	00130101 	andseq	r0, r3, r1, lsl #2
     854:	828a0b00 	addhi	r0, sl, #0, 22
     858:	18020001 	stmdane	r2, {r0}
     85c:	00184291 	mulseq	r8, r1, r2
     860:	82890c00 	addhi	r0, r9, #0, 24
     864:	01110001 	tsteq	r1, r1
     868:	00001331 	andeq	r1, r0, r1, lsr r3
     86c:	0182890d 	orreq	r8, r2, sp, lsl #18
     870:	31011101 	tstcc	r1, r1, lsl #2
     874:	00130113 	andseq	r0, r3, r3, lsl r1
     878:	002e0e00 	eoreq	r0, lr, r0, lsl #28
     87c:	193c193f 	ldmdbne	ip!, {r0, r1, r2, r3, r4, r5, r8, fp, ip}
     880:	0e030e6e 	cdpeq	14, 0, cr0, cr3, cr14, {3}
     884:	0b3b0b3a 	bleq	ec3574 <__bss_end__+0xeb9554>
     888:	00000b39 	andeq	r0, r0, r9, lsr fp
     88c:	01110100 	tsteq	r1, r0, lsl #2
     890:	0b130e25 	bleq	4c412c <__bss_end__+0x4ba10c>
     894:	0e1b0e03 	cdpeq	14, 1, cr0, cr11, cr3, {0}
     898:	06120111 			; <UNDEFINED> instruction: 0x06120111
     89c:	00001710 	andeq	r1, r0, r0, lsl r7
     8a0:	0b002402 	bleq	98b0 <__FUNCTION__.4143+0x28>
     8a4:	030b3e0b 	movweq	r3, #48651	; 0xbe0b
     8a8:	03000008 	movweq	r0, #8
     8ac:	0b0b0024 	bleq	2c0944 <__bss_end__+0x2b6924>
     8b0:	0e030b3e 	vmoveq.16	d3[0], r0
     8b4:	15040000 	strne	r0, [r4, #-0]
     8b8:	49192701 	ldmdbmi	r9, {r0, r8, r9, sl, sp}
     8bc:	00130113 	andseq	r0, r3, r3, lsl r1
     8c0:	00050500 	andeq	r0, r5, r0, lsl #10
     8c4:	00001349 	andeq	r1, r0, r9, asr #6
     8c8:	03003406 	movweq	r3, #1030	; 0x406
     8cc:	3b0b3a0e 	blcc	2cf10c <__bss_end__+0x2c50ec>
     8d0:	490b390b 	stmdbmi	fp, {r0, r1, r3, r8, fp, ip, sp}
     8d4:	3c193f13 	ldccc	15, cr3, [r9], {19}
     8d8:	07000019 	smladeq	r0, r9, r0, r0
     8dc:	0b0b000f 	bleq	2c0920 <__bss_end__+0x2b6900>
     8e0:	00001349 	andeq	r1, r0, r9, asr #6
     8e4:	49002608 	stmdbmi	r0, {r3, r9, sl, sp}
     8e8:	09000013 	stmdbeq	r0, {r0, r1, r4}
     8ec:	193f012e 	ldmdbne	pc!, {r1, r2, r3, r5, r8}	; <UNPREDICTABLE>
     8f0:	0b3a0e03 	bleq	e84104 <__bss_end__+0xe7a0e4>
     8f4:	0b390b3b 	bleq	e435e8 <__bss_end__+0xe395c8>
     8f8:	06120111 			; <UNDEFINED> instruction: 0x06120111
     8fc:	42971840 	addsmi	r1, r7, #64, 16	; 0x400000
     900:	00130119 	andseq	r0, r3, r9, lsl r1
     904:	002e0a00 	eoreq	r0, lr, r0, lsl #20
     908:	0e03193f 			; <UNDEFINED> instruction: 0x0e03193f
     90c:	0b3b0b3a 	bleq	ec35fc <__bss_end__+0xeb95dc>
     910:	19270b39 	stmdbne	r7!, {r0, r3, r4, r5, r8, r9, fp}
     914:	0000193c 	andeq	r1, r0, ip, lsr r9
     918:	0300340b 	movweq	r3, #1035	; 0x40b
     91c:	3b0b3a08 	blcc	2cf144 <__bss_end__+0x2c5124>
     920:	490b390b 	stmdbmi	fp, {r0, r1, r3, r8, fp, ip, sp}
     924:	b7170213 			; <UNDEFINED> instruction: 0xb7170213
     928:	00001742 	andeq	r1, r0, r2, asr #14
     92c:	0300340c 	movweq	r3, #1036	; 0x40c
     930:	3b0b3a0e 	blcc	2cf170 <__bss_end__+0x2c5150>
     934:	490b390b 	stmdbmi	fp, {r0, r1, r3, r8, fp, ip, sp}
     938:	0d000013 	stceq	0, cr0, [r0, #-76]	; 0xffffffb4
     93c:	0111010b 	tsteq	r1, fp, lsl #2
     940:	13010612 	movwne	r0, #5650	; 0x1612
     944:	340e0000 	strcc	r0, [lr], #-0
     948:	3a080300 	bcc	201550 <__bss_end__+0x1f7530>
     94c:	390b3b0b 	stmdbcc	fp, {r0, r1, r3, r8, r9, fp, ip, sp}
     950:	1c13490b 			; <UNDEFINED> instruction: 0x1c13490b
     954:	0f00000b 	svceq	0x0000000b
     958:	00018289 	andeq	r8, r1, r9, lsl #5
     95c:	13310111 	teqne	r1, #1073741828	; 0x40000004
     960:	2e100000 	cdpcs	0, 1, cr0, cr0, cr0, {0}
     964:	3c193f00 	ldccc	15, cr3, [r9], {-0}
     968:	030e6e19 	movweq	r6, #60953	; 0xee19
     96c:	3b0b3a0e 	blcc	2cf1ac <__bss_end__+0x2c518c>
     970:	000b3905 	andeq	r3, fp, r5, lsl #18
     974:	002e1100 	eoreq	r1, lr, r0, lsl #2
     978:	193c193f 	ldmdbne	ip!, {r0, r1, r2, r3, r4, r5, r8, fp, ip}
     97c:	0e030e6e 	cdpeq	14, 0, cr0, cr3, cr14, {3}
     980:	0b3b0b3a 	bleq	ec3670 <__bss_end__+0xeb9650>
     984:	00000b39 	andeq	r0, r0, r9, lsr fp
     988:	01110100 	tsteq	r1, r0, lsl #2
     98c:	0b130e25 	bleq	4c4228 <__bss_end__+0x4ba208>
     990:	0e1b0e03 	cdpeq	14, 1, cr0, cr11, cr3, {0}
     994:	06120111 			; <UNDEFINED> instruction: 0x06120111
     998:	00001710 	andeq	r1, r0, r0, lsl r7
     99c:	0b002402 	bleq	99ac <__FUNCTION__.4143+0x124>
     9a0:	030b3e0b 	movweq	r3, #48651	; 0xbe0b
     9a4:	03000008 	movweq	r0, #8
     9a8:	0b0b0024 	bleq	2c0a40 <__bss_end__+0x2b6a20>
     9ac:	0e030b3e 	vmoveq.16	d3[0], r0
     9b0:	15040000 	strne	r0, [r4, #-0]
     9b4:	49192701 	ldmdbmi	r9, {r0, r8, r9, sl, sp}
     9b8:	00130113 	andseq	r0, r3, r3, lsl r1
     9bc:	00050500 	andeq	r0, r5, r0, lsl #10
     9c0:	00001349 	andeq	r1, r0, r9, asr #6
     9c4:	03003406 	movweq	r3, #1030	; 0x406
     9c8:	3b0b3a0e 	blcc	2cf208 <__bss_end__+0x2c51e8>
     9cc:	490b390b 	stmdbmi	fp, {r0, r1, r3, r8, fp, ip, sp}
     9d0:	3c193f13 	ldccc	15, cr3, [r9], {19}
     9d4:	07000019 	smladeq	r0, r9, r0, r0
     9d8:	0b0b000f 	bleq	2c0a1c <__bss_end__+0x2b69fc>
     9dc:	00001349 	andeq	r1, r0, r9, asr #6
     9e0:	49002608 	stmdbmi	r0, {r3, r9, sl, sp}
     9e4:	09000013 	stmdbeq	r0, {r0, r1, r4}
     9e8:	193f002e 	ldmdbne	pc!, {r1, r2, r3, r5}	; <UNPREDICTABLE>
     9ec:	0b3a0e03 	bleq	e84200 <__bss_end__+0xe7a1e0>
     9f0:	0b390b3b 	bleq	e436e4 <__bss_end__+0xe396c4>
     9f4:	01111927 	tsteq	r1, r7, lsr #18
     9f8:	18400612 	stmdane	r0, {r1, r4, r9, sl}^
     9fc:	00194297 	mulseq	r9, r7, r2
     a00:	11010000 	mrsne	r0, (UNDEF: 1)
     a04:	130e2501 	movwne	r2, #58625	; 0xe501
     a08:	1b0e030b 	blne	38163c <__bss_end__+0x37761c>
     a0c:	1117550e 	tstne	r7, lr, lsl #10
     a10:	00171001 	andseq	r1, r7, r1
     a14:	00240200 	eoreq	r0, r4, r0, lsl #4
     a18:	0b3e0b0b 	bleq	f8364c <__bss_end__+0xf7962c>
     a1c:	00000803 	andeq	r0, r0, r3, lsl #16
     a20:	49002603 	stmdbmi	r0, {r0, r1, r9, sl, sp}
     a24:	04000013 	streq	r0, [r0], #-19	; 0xffffffed
     a28:	0b0b0024 	bleq	2c0ac0 <__bss_end__+0x2b6aa0>
     a2c:	0e030b3e 	vmoveq.16	d3[0], r0
     a30:	15050000 	strne	r0, [r5, #-0]
     a34:	49192701 	ldmdbmi	r9, {r0, r8, r9, sl, sp}
     a38:	00130113 	andseq	r0, r3, r3, lsl r1
     a3c:	00050600 	andeq	r0, r5, r0, lsl #12
     a40:	00001349 	andeq	r1, r0, r9, asr #6
     a44:	03003407 	movweq	r3, #1031	; 0x407
     a48:	3b0b3a0e 	blcc	2cf288 <__bss_end__+0x2c5268>
     a4c:	490b390b 	stmdbmi	fp, {r0, r1, r3, r8, fp, ip, sp}
     a50:	3c193f13 	ldccc	15, cr3, [r9], {19}
     a54:	08000019 	stmdaeq	r0, {r0, r3, r4}
     a58:	0b0b000f 	bleq	2c0a9c <__bss_end__+0x2b6a7c>
     a5c:	00001349 	andeq	r1, r0, r9, asr #6
     a60:	03003409 	movweq	r3, #1033	; 0x409
     a64:	3b0b3a0e 	blcc	2cf2a4 <__bss_end__+0x2c5284>
     a68:	490b390b 	stmdbmi	fp, {r0, r1, r3, r8, fp, ip, sp}
     a6c:	0a000013 	beq	ac0 <__code_start__-0x7540>
     a70:	193f012e 	ldmdbne	pc!, {r1, r2, r3, r5, r8}	; <UNPREDICTABLE>
     a74:	0b3a0e03 	bleq	e84288 <__bss_end__+0xe7a268>
     a78:	0b390b3b 	bleq	e4376c <__bss_end__+0xe3974c>
     a7c:	01871927 	orreq	r1, r7, r7, lsr #18
     a80:	12011119 	andne	r1, r1, #1073741830	; 0x40000006
     a84:	97184006 	ldrls	r4, [r8, -r6]
     a88:	13011942 	movwne	r1, #6466	; 0x1942
     a8c:	340b0000 	strcc	r0, [fp], #-0
     a90:	3a0e0300 	bcc	381698 <__bss_end__+0x377678>
     a94:	390b3b0b 	stmdbcc	fp, {r0, r1, r3, r8, r9, fp, ip, sp}
     a98:	0213490b 	andseq	r4, r3, #180224	; 0x2c000
     a9c:	1742b717 	smlaldne	fp, r2, r7, r7
     aa0:	890c0000 	stmdbhi	ip, {}	; <UNPREDICTABLE>
     aa4:	11000182 	smlabbne	r0, r2, r1, r0
     aa8:	00133101 	andseq	r3, r3, r1, lsl #2
     aac:	82890d00 	addhi	r0, r9, #0, 26
     ab0:	01110101 	tsteq	r1, r1, lsl #2
     ab4:	13011331 	movwne	r1, #4913	; 0x1331
     ab8:	8a0e0000 	bhi	380ac0 <__bss_end__+0x376aa0>
     abc:	02000182 	andeq	r0, r0, #-2147483616	; 0x80000020
     ac0:	18429118 	stmdane	r2, {r3, r4, r8, ip, pc}^
     ac4:	2e0f0000 	cdpcs	0, 0, cr0, cr15, cr0, {0}
     ac8:	03193f01 	tsteq	r9, #1, 30
     acc:	3b0b3a0e 	blcc	2cf30c <__bss_end__+0x2c52ec>
     ad0:	270b390b 	strcs	r3, [fp, -fp, lsl #18]
     ad4:	12011119 	andne	r1, r1, #1073741830	; 0x40000006
     ad8:	97184006 	ldrls	r4, [r8, -r6]
     adc:	13011942 	movwne	r1, #6466	; 0x1942
     ae0:	2e100000 	cdpcs	0, 1, cr0, cr0, cr0, {0}
     ae4:	03193f01 	tsteq	r9, #1, 30
     ae8:	3b0b3a0e 	blcc	2cf328 <__bss_end__+0x2c5308>
     aec:	270b390b 	strcs	r3, [fp, -fp, lsl #18]
     af0:	11134919 	tstne	r3, r9, lsl r9
     af4:	40061201 	andmi	r1, r6, r1, lsl #4
     af8:	19429718 	stmdbne	r2, {r3, r4, r8, r9, sl, ip, pc}^
     afc:	00001301 	andeq	r1, r0, r1, lsl #6
     b00:	3f002e11 	svccc	0x00002e11
     b04:	6e193c19 	mrcvs	12, 0, r3, cr9, cr9, {0}
     b08:	3a0e030e 	bcc	381748 <__bss_end__+0x377728>
     b0c:	39053b0b 	stmdbcc	r5, {r0, r1, r3, r8, r9, fp, ip, sp}
     b10:	1200000b 	andne	r0, r0, #11, 0
     b14:	193f002e 	ldmdbne	pc!, {r1, r2, r3, r5}	; <UNPREDICTABLE>
     b18:	0e6e193c 			; <UNDEFINED> instruction: 0x0e6e193c
     b1c:	0b3a0e03 	bleq	e84330 <__bss_end__+0xe7a310>
     b20:	0b390b3b 	bleq	e43814 <__bss_end__+0xe397f4>
     b24:	01000000 	mrseq	r0, (UNDEF: 0)
     b28:	0e250111 	mcreq	1, 1, r0, cr5, cr1, {0}
     b2c:	0e030b13 	vmoveq.32	d3[0], r0
     b30:	01110e1b 	tsteq	r1, fp, lsl lr
     b34:	17100612 			; <UNDEFINED> instruction: 0x17100612
     b38:	24020000 	strcs	r0, [r2], #-0
     b3c:	3e0b0b00 	vmlacc.f64	d0, d11, d0
     b40:	0008030b 	andeq	r0, r8, fp, lsl #6
     b44:	00240300 	eoreq	r0, r4, r0, lsl #6
     b48:	0b3e0b0b 	bleq	f8377c <__bss_end__+0xf7975c>
     b4c:	00000e03 	andeq	r0, r0, r3, lsl #28
     b50:	27011504 	strcs	r1, [r1, -r4, lsl #10]
     b54:	01134919 	tsteq	r3, r9, lsl r9
     b58:	05000013 	streq	r0, [r0, #-19]	; 0xffffffed
     b5c:	13490005 	movtne	r0, #36869	; 0x9005
     b60:	34060000 	strcc	r0, [r6], #-0
     b64:	3a0e0300 	bcc	38176c <__bss_end__+0x37774c>
     b68:	390b3b0b 	stmdbcc	fp, {r0, r1, r3, r8, r9, fp, ip, sp}
     b6c:	3f13490b 	svccc	0x0013490b
     b70:	00193c19 	andseq	r3, r9, r9, lsl ip
     b74:	000f0700 	andeq	r0, pc, r0, lsl #14
     b78:	13490b0b 	movtne	r0, #39691	; 0x9b0b
     b7c:	26080000 	strcs	r0, [r8], -r0
     b80:	00134900 	andseq	r4, r3, r0, lsl #18
     b84:	012e0900 			; <UNDEFINED> instruction: 0x012e0900
     b88:	0e03193f 			; <UNDEFINED> instruction: 0x0e03193f
     b8c:	0b3b0b3a 	bleq	ec387c <__bss_end__+0xeb985c>
     b90:	19270b39 	stmdbne	r7!, {r0, r3, r4, r5, r8, r9, fp}
     b94:	06120111 			; <UNDEFINED> instruction: 0x06120111
     b98:	42971840 	addsmi	r1, r7, #64, 16	; 0x400000
     b9c:	00130119 	andseq	r0, r3, r9, lsl r1
     ba0:	00050a00 	andeq	r0, r5, r0, lsl #20
     ba4:	0b3a0803 	bleq	e82bb8 <__bss_end__+0xe78b98>
     ba8:	0b390b3b 	bleq	e4389c <__bss_end__+0xe3987c>
     bac:	17021349 	strne	r1, [r2, -r9, asr #6]
     bb0:	001742b7 			; <UNDEFINED> instruction: 0x001742b7
     bb4:	82890b00 	addhi	r0, r9, #0, 22
     bb8:	01110101 	tsteq	r1, r1, lsl #2
     bbc:	00001331 	andeq	r1, r0, r1, lsr r3
     bc0:	01828a0c 	orreq	r8, r2, ip, lsl #20
     bc4:	91180200 	tstls	r8, r0, lsl #4
     bc8:	00001842 	andeq	r1, r0, r2, asr #16
     bcc:	0300340d 	movweq	r3, #1037	; 0x40d
     bd0:	3b0b3a08 	blcc	2cf3f8 <__bss_end__+0x2c53d8>
     bd4:	490b390b 	stmdbmi	fp, {r0, r1, r3, r8, fp, ip, sp}
     bd8:	b7170213 			; <UNDEFINED> instruction: 0xb7170213
     bdc:	00001742 	andeq	r1, r0, r2, asr #14
     be0:	11010b0e 	tstne	r1, lr, lsl #22
     be4:	01061201 	tsteq	r6, r1, lsl #4
     be8:	0f000013 	svceq	0x00000013
     bec:	00018289 	andeq	r8, r1, r9, lsl #5
     bf0:	13310111 	teqne	r1, #1073741828	; 0x40000004
     bf4:	2e100000 	cdpcs	0, 1, cr0, cr0, cr0, {0}
     bf8:	03193f01 	tsteq	r9, #1, 30
     bfc:	3b0b3a0e 	blcc	2cf43c <__bss_end__+0x2c541c>
     c00:	270b390b 	strcs	r3, [fp, -fp, lsl #18]
     c04:	11134919 	tstne	r3, r9, lsl r9
     c08:	40061201 	andmi	r1, r6, r1, lsl #4
     c0c:	19429718 	stmdbne	r2, {r3, r4, r8, r9, sl, ip, pc}^
     c10:	00001301 	andeq	r1, r0, r1, lsl #6
     c14:	3f002e11 	svccc	0x00002e11
     c18:	6e193c19 	mrcvs	12, 0, r3, cr9, cr9, {0}
     c1c:	3a0e030e 	bcc	38185c <__bss_end__+0x37783c>
     c20:	390b3b0b 	stmdbcc	fp, {r0, r1, r3, r8, r9, fp, ip, sp}
     c24:	0000000b 	andeq	r0, r0, fp
     c28:	25011101 	strcs	r1, [r1, #-257]	; 0xfffffeff
     c2c:	030b130e 	movweq	r1, #45838	; 0xb30e
     c30:	110e1b0e 	tstne	lr, lr, lsl #22
     c34:	10061201 	andne	r1, r6, r1, lsl #4
     c38:	02000017 	andeq	r0, r0, #23, 0
     c3c:	0b0b0024 	bleq	2c0cd4 <__bss_end__+0x2b6cb4>
     c40:	08030b3e 	stmdaeq	r3, {r1, r2, r3, r4, r5, r8, r9, fp}
     c44:	24030000 	strcs	r0, [r3], #-0
     c48:	3e0b0b00 	vmlacc.f64	d0, d11, d0
     c4c:	000e030b 	andeq	r0, lr, fp, lsl #6
     c50:	00350400 	eorseq	r0, r5, r0, lsl #8
     c54:	00001349 	andeq	r1, r0, r9, asr #6
     c58:	03001605 	movweq	r1, #1541	; 0x605
     c5c:	3b0b3a0e 	blcc	2cf49c <__bss_end__+0x2c547c>
     c60:	490b390b 	stmdbmi	fp, {r0, r1, r3, r8, fp, ip, sp}
     c64:	06000013 			; <UNDEFINED> instruction: 0x06000013
     c68:	0b3e0104 	bleq	f81080 <__bss_end__+0xf77060>
     c6c:	13490b0b 	movtne	r0, #39691	; 0x9b0b
     c70:	0b3b0b3a 	bleq	ec3960 <__bss_end__+0xeb9940>
     c74:	13010b39 	movwne	r0, #6969	; 0x1b39
     c78:	28070000 	stmdacs	r7, {}	; <UNPREDICTABLE>
     c7c:	1c0e0300 	stcne	3, cr0, [lr], {-0}
     c80:	0800000b 	stmdaeq	r0, {r0, r1, r3}
     c84:	0e030113 	mcreq	1, 0, r0, cr3, cr3, {0}
     c88:	0b3a0b0b 	bleq	e838bc <__bss_end__+0xe7989c>
     c8c:	0b390b3b 	bleq	e43980 <__bss_end__+0xe39960>
     c90:	00001301 	andeq	r1, r0, r1, lsl #6
     c94:	03000d09 	movweq	r0, #3337	; 0xd09
     c98:	3b0b3a08 	blcc	2cf4c0 <__bss_end__+0x2c54a0>
     c9c:	490b390b 	stmdbmi	fp, {r0, r1, r3, r8, fp, ip, sp}
     ca0:	000b3813 	andeq	r3, fp, r3, lsl r8
     ca4:	000d0a00 	andeq	r0, sp, r0, lsl #20
     ca8:	0b3a0e03 	bleq	e844bc <__bss_end__+0xe7a49c>
     cac:	0b390b3b 	bleq	e439a0 <__bss_end__+0xe39980>
     cb0:	0b381349 	bleq	e059dc <__bss_end__+0xdfb9bc>
     cb4:	340b0000 	strcc	r0, [fp], #-0
     cb8:	3a0e0300 	bcc	3818c0 <__bss_end__+0x3778a0>
     cbc:	390b3b0b 	stmdbcc	fp, {r0, r1, r3, r8, r9, fp, ip, sp}
     cc0:	1c13490b 			; <UNDEFINED> instruction: 0x1c13490b
     cc4:	0c000006 	stceq	0, cr0, [r0], {6}
     cc8:	0b0b000f 	bleq	2c0d0c <__bss_end__+0x2b6cec>
     ccc:	00001349 	andeq	r1, r0, r9, asr #6
     cd0:	4900260d 	stmdbmi	r0, {r0, r2, r3, r9, sl, sp}
     cd4:	0e000013 	mcreq	0, 0, r0, cr0, cr3, {0}
     cd8:	193f012e 	ldmdbne	pc!, {r1, r2, r3, r5, r8}	; <UNPREDICTABLE>
     cdc:	0b3a0e03 	bleq	e844f0 <__bss_end__+0xe7a4d0>
     ce0:	0b390b3b 	bleq	e439d4 <__bss_end__+0xe399b4>
     ce4:	01111927 	tsteq	r1, r7, lsr #18
     ce8:	18400612 	stmdane	r0, {r1, r4, r9, sl}^
     cec:	01194297 			; <UNDEFINED> instruction: 0x01194297
     cf0:	0f000013 	svceq	0x00000013
     cf4:	00018289 	andeq	r8, r1, r9, lsl #5
     cf8:	13310111 	teqne	r1, #1073741828	; 0x40000004
     cfc:	2e100000 	cdpcs	0, 1, cr0, cr0, cr0, {0}
     d00:	03193f01 	tsteq	r9, #1, 30
     d04:	3b0b3a0e 	blcc	2cf544 <__bss_end__+0x2c5524>
     d08:	270b390b 	strcs	r3, [fp, -fp, lsl #18]
     d0c:	11134919 	tstne	r3, r9, lsl r9
     d10:	40061201 	andmi	r1, r6, r1, lsl #4
     d14:	19429718 	stmdbne	r2, {r3, r4, r8, r9, sl, ip, pc}^
     d18:	00001301 	andeq	r1, r0, r1, lsl #6
     d1c:	01828911 	orreq	r8, r2, r1, lsl r9
     d20:	31011101 	tstcc	r1, r1, lsl #2
     d24:	12000013 	andne	r0, r0, #19, 0
     d28:	0001828a 	andeq	r8, r1, sl, lsl #5
     d2c:	42911802 	addsmi	r1, r1, #131072	; 0x20000
     d30:	13000018 	movwne	r0, #24
     d34:	08030005 	stmdaeq	r3, {r0, r2}
     d38:	0b3b0b3a 	bleq	ec3a28 <__bss_end__+0xeb9a08>
     d3c:	13490b39 	movtne	r0, #39737	; 0x9b39
     d40:	42b71702 	adcsmi	r1, r7, #524288	; 0x80000
     d44:	14000017 	strne	r0, [r0], #-23	; 0xffffffe9
     d48:	01018289 	smlabbeq	r1, r9, r2, r8
     d4c:	13310111 	teqne	r1, #1073741828	; 0x40000004
     d50:	00001301 	andeq	r1, r0, r1, lsl #6
     d54:	03003415 	movweq	r3, #1045	; 0x415
     d58:	3b0b3a08 	blcc	2cf580 <__bss_end__+0x2c5560>
     d5c:	490b390b 	stmdbmi	fp, {r0, r1, r3, r8, fp, ip, sp}
     d60:	b7170213 			; <UNDEFINED> instruction: 0xb7170213
     d64:	00001742 	andeq	r1, r0, r2, asr #14
     d68:	03003416 	movweq	r3, #1046	; 0x416
     d6c:	3b0b3a0e 	blcc	2cf5ac <__bss_end__+0x2c558c>
     d70:	490b390b 	stmdbmi	fp, {r0, r1, r3, r8, fp, ip, sp}
     d74:	00051c13 	andeq	r1, r5, r3, lsl ip
     d78:	012e1700 			; <UNDEFINED> instruction: 0x012e1700
     d7c:	0b3a0e03 	bleq	e84590 <__bss_end__+0xe7a570>
     d80:	0b390b3b 	bleq	e43a74 <__bss_end__+0xe39a54>
     d84:	01111927 	tsteq	r1, r7, lsr #18
     d88:	18400612 	stmdane	r0, {r1, r4, r9, sl}^
     d8c:	01194297 			; <UNDEFINED> instruction: 0x01194297
     d90:	18000013 	stmdane	r0, {r0, r1, r4}
     d94:	0e030005 	cdpeq	0, 0, cr0, cr3, cr5, {0}
     d98:	0b3b0b3a 	bleq	ec3a88 <__bss_end__+0xeb9a68>
     d9c:	13490b39 	movtne	r0, #39737	; 0x9b39
     da0:	42b71702 	adcsmi	r1, r7, #524288	; 0x80000
     da4:	19000017 	stmdbne	r0, {r0, r1, r2, r4}
     da8:	00000035 	andeq	r0, r0, r5, lsr r0
     dac:	3f002e1a 	svccc	0x00002e1a
     db0:	6e193c19 	mrcvs	12, 0, r3, cr9, cr9, {0}
     db4:	3a0e030e 	bcc	3819f4 <__bss_end__+0x3779d4>
     db8:	390b3b0b 	stmdbcc	fp, {r0, r1, r3, r8, r9, fp, ip, sp}
     dbc:	0000000b 	andeq	r0, r0, fp
     dc0:	25011101 	strcs	r1, [r1, #-257]	; 0xfffffeff
     dc4:	030b130e 	movweq	r1, #45838	; 0xb30e
     dc8:	110e1b0e 	tstne	lr, lr, lsl #22
     dcc:	10061201 	andne	r1, r6, r1, lsl #4
     dd0:	02000017 	andeq	r0, r0, #23, 0
     dd4:	0b0b0024 	bleq	2c0e6c <__bss_end__+0x2b6e4c>
     dd8:	08030b3e 	stmdaeq	r3, {r1, r2, r3, r4, r5, r8, r9, fp}
     ddc:	24030000 	strcs	r0, [r3], #-0
     de0:	3e0b0b00 	vmlacc.f64	d0, d11, d0
     de4:	000e030b 	andeq	r0, lr, fp, lsl #6
     de8:	00160400 	andseq	r0, r6, r0, lsl #8
     dec:	0b3a0e03 	bleq	e84600 <__bss_end__+0xe7a5e0>
     df0:	0b390b3b 	bleq	e43ae4 <__bss_end__+0xe39ac4>
     df4:	00001349 	andeq	r1, r0, r9, asr #6
     df8:	49002605 	stmdbmi	r0, {r0, r2, r9, sl, sp}
     dfc:	06000013 			; <UNDEFINED> instruction: 0x06000013
     e00:	0b0b000f 	bleq	2c0e44 <__bss_end__+0x2b6e24>
     e04:	04070000 	streq	r0, [r7], #-0
     e08:	0b0b3e01 	bleq	2d0614 <__bss_end__+0x2c65f4>
     e0c:	3a13490b 	bcc	4d3240 <__bss_end__+0x4c9220>
     e10:	390b3b0b 	stmdbcc	fp, {r0, r1, r3, r8, r9, fp, ip, sp}
     e14:	0013010b 	andseq	r0, r3, fp, lsl #2
     e18:	00280800 	eoreq	r0, r8, r0, lsl #16
     e1c:	061c0e03 	ldreq	r0, [ip], -r3, lsl #28
     e20:	34090000 	strcc	r0, [r9], #-0
     e24:	3a0e0300 	bcc	381a2c <__bss_end__+0x377a0c>
     e28:	390b3b0b 	stmdbcc	fp, {r0, r1, r3, r8, r9, fp, ip, sp}
     e2c:	3f13490b 	svccc	0x0013490b
     e30:	00193c19 	andseq	r3, r9, r9, lsl ip
     e34:	00340a00 	eorseq	r0, r4, r0, lsl #20
     e38:	0b3a0e03 	bleq	e8464c <__bss_end__+0xe7a62c>
     e3c:	0b390b3b 	bleq	e43b30 <__bss_end__+0xe39b10>
     e40:	18021349 	stmdane	r2, {r0, r3, r6, r8, r9, ip}
     e44:	0f0b0000 	svceq	0x000b0000
     e48:	490b0b00 	stmdbmi	fp, {r8, r9, fp}
     e4c:	0c000013 	stceq	0, cr0, [r0], {19}
     e50:	193f012e 	ldmdbne	pc!, {r1, r2, r3, r5, r8}	; <UNPREDICTABLE>
     e54:	0b3a0e03 	bleq	e84668 <__bss_end__+0xe7a648>
     e58:	0b390b3b 	bleq	e43b4c <__bss_end__+0xe39b2c>
     e5c:	01111927 	tsteq	r1, r7, lsr #18
     e60:	18400612 	stmdane	r0, {r1, r4, r9, sl}^
     e64:	01194297 			; <UNDEFINED> instruction: 0x01194297
     e68:	0d000013 	stceq	0, cr0, [r0, #-76]	; 0xffffffb4
     e6c:	08030005 	stmdaeq	r3, {r0, r2}
     e70:	0b3b0b3a 	bleq	ec3b60 <__bss_end__+0xeb9b40>
     e74:	13490b39 	movtne	r0, #39737	; 0x9b39
     e78:	42b71702 	adcsmi	r1, r7, #524288	; 0x80000
     e7c:	0e000017 	mcreq	0, 0, r0, cr0, cr7, {0}
     e80:	0e030034 	mcreq	0, 0, r0, cr3, cr4, {1}
     e84:	19341349 	ldmdbne	r4!, {r0, r3, r6, r8, r9, ip}
     e88:	00001802 	andeq	r1, r0, r2, lsl #16
     e8c:	0182890f 	orreq	r8, r2, pc, lsl #18
     e90:	31011101 	tstcc	r1, r1, lsl #2
     e94:	00130113 	andseq	r0, r3, r3, lsl r1
     e98:	828a1000 	addhi	r1, sl, #0, 0
     e9c:	18020001 	stmdane	r2, {r0}
     ea0:	00184291 	mulseq	r8, r1, r2
     ea4:	82891100 	addhi	r1, r9, #0
     ea8:	01110001 	tsteq	r1, r1
     eac:	00001331 	andeq	r1, r0, r1, lsr r3
     eb0:	49010112 	stmdbmi	r1, {r1, r4, r8}
     eb4:	00130113 	andseq	r0, r3, r3, lsl r1
     eb8:	00211300 	eoreq	r1, r1, r0, lsl #6
     ebc:	0b2f1349 	bleq	bc5be8 <__bss_end__+0xbbbbc8>
     ec0:	2e140000 	cdpcs	0, 1, cr0, cr4, cr0, {0}
     ec4:	03193f00 	tsteq	r9, #0, 30
     ec8:	3b0b3a0e 	blcc	2cf708 <__bss_end__+0x2c56e8>
     ecc:	270b390b 	strcs	r3, [fp, -fp, lsl #18]
     ed0:	12011119 	andne	r1, r1, #1073741830	; 0x40000006
     ed4:	97184006 	ldrls	r4, [r8, -r6]
     ed8:	00001942 	andeq	r1, r0, r2, asr #18
     edc:	03000515 	movweq	r0, #1301	; 0x515
     ee0:	3b0b3a08 	blcc	2cf708 <__bss_end__+0x2c56e8>
     ee4:	490b390b 	stmdbmi	fp, {r0, r1, r3, r8, fp, ip, sp}
     ee8:	00180213 	andseq	r0, r8, r3, lsl r2
     eec:	012e1600 			; <UNDEFINED> instruction: 0x012e1600
     ef0:	0e03193f 			; <UNDEFINED> instruction: 0x0e03193f
     ef4:	0b3b0b3a 	bleq	ec3be4 <__bss_end__+0xeb9bc4>
     ef8:	19270b39 	stmdbne	r7!, {r0, r3, r4, r5, r8, r9, fp}
     efc:	01111349 	tsteq	r1, r9, asr #6
     f00:	18400612 	stmdane	r0, {r1, r4, r9, sl}^
     f04:	01194297 			; <UNDEFINED> instruction: 0x01194297
     f08:	17000013 	smladne	r0, r3, r0, r0
     f0c:	0e030005 	cdpeq	0, 0, cr0, cr3, cr5, {0}
     f10:	0b3b0b3a 	bleq	ec3c00 <__bss_end__+0xeb9be0>
     f14:	13490b39 	movtne	r0, #39737	; 0x9b39
     f18:	42b71702 	adcsmi	r1, r7, #524288	; 0x80000
     f1c:	18000017 	stmdane	r0, {r0, r1, r2, r4}
     f20:	08030034 	stmdaeq	r3, {r2, r4, r5}
     f24:	0b3b0b3a 	bleq	ec3c14 <__bss_end__+0xeb9bf4>
     f28:	13490b39 	movtne	r0, #39737	; 0x9b39
     f2c:	42b71702 	adcsmi	r1, r7, #524288	; 0x80000
     f30:	19000017 	stmdbne	r0, {r0, r1, r2, r4}
     f34:	1331011d 	teqne	r1, #1073741831	; 0x40000007
     f38:	42b80152 	adcsmi	r0, r8, #-2147483628	; 0x80000014
     f3c:	1201110b 	andne	r1, r1, #-1073741822	; 0xc0000002
     f40:	590b5806 	stmdbpl	fp, {r1, r2, fp, ip, lr}
     f44:	010b570b 	tsteq	fp, fp, lsl #14
     f48:	1a000013 	bne	f9c <__code_start__-0x7064>
     f4c:	13310005 	teqne	r1, #5, 0
     f50:	42b71702 	adcsmi	r1, r7, #524288	; 0x80000
     f54:	1b000017 	blne	fb8 <__code_start__-0x7048>
     f58:	1331011d 	teqne	r1, #1073741831	; 0x40000007
     f5c:	42b80152 	adcsmi	r0, r8, #-2147483628	; 0x80000014
     f60:	5817550b 	ldmdapl	r7, {r0, r1, r3, r8, sl, ip, lr}
     f64:	570b590b 	strpl	r5, [fp, -fp, lsl #18]
     f68:	0013010b 	andseq	r0, r3, fp, lsl #2
     f6c:	010b1c00 	tsteq	fp, r0, lsl #24
     f70:	00001755 	andeq	r1, r0, r5, asr r7
     f74:	0300341d 	movweq	r3, #1053	; 0x41d
     f78:	3b0b3a0e 	blcc	2cf7b8 <__bss_end__+0x2c5798>
     f7c:	490b390b 	stmdbmi	fp, {r0, r1, r3, r8, fp, ip, sp}
     f80:	b7170213 			; <UNDEFINED> instruction: 0xb7170213
     f84:	00001742 	andeq	r1, r0, r2, asr #14
     f88:	55000b1e 	strpl	r0, [r0, #-2846]	; 0xfffff4e2
     f8c:	1f000017 	svcne	0x00000017
     f90:	193f002e 	ldmdbne	pc!, {r1, r2, r3, r5}	; <UNPREDICTABLE>
     f94:	0b3a0e03 	bleq	e847a8 <__bss_end__+0xe7a788>
     f98:	0b390b3b 	bleq	e43c8c <__bss_end__+0xe39c6c>
     f9c:	13491927 	movtne	r1, #39207	; 0x9927
     fa0:	06120111 			; <UNDEFINED> instruction: 0x06120111
     fa4:	42971840 	addsmi	r1, r7, #64, 16	; 0x400000
     fa8:	20000019 	andcs	r0, r0, r9, lsl r0
     fac:	0e03012e 	adfeqsp	f0, f3, #0.5
     fb0:	0b3b0b3a 	bleq	ec3ca0 <__bss_end__+0xeb9c80>
     fb4:	19270b39 	stmdbne	r7!, {r0, r3, r4, r5, r8, r9, fp}
     fb8:	0b201349 	bleq	805ce4 <__bss_end__+0x7fbcc4>
     fbc:	00001301 	andeq	r1, r0, r1, lsl #6
     fc0:	03000521 	movweq	r0, #1313	; 0x521
     fc4:	3b0b3a08 	blcc	2cf7ec <__bss_end__+0x2c57cc>
     fc8:	490b390b 	stmdbmi	fp, {r0, r1, r3, r8, fp, ip, sp}
     fcc:	22000013 	andcs	r0, r0, #19, 0
     fd0:	193f002e 	ldmdbne	pc!, {r1, r2, r3, r5}	; <UNPREDICTABLE>
     fd4:	0e6e193c 			; <UNDEFINED> instruction: 0x0e6e193c
     fd8:	0b3a0e03 	bleq	e847ec <__bss_end__+0xe7a7cc>
     fdc:	0b390b3b 	bleq	e43cd0 <__bss_end__+0xe39cb0>
     fe0:	01000000 	mrseq	r0, (UNDEF: 0)
     fe4:	0e250111 	mcreq	1, 1, r0, cr5, cr1, {0}
     fe8:	0e030b13 	vmoveq.32	d3[0], r0
     fec:	01110e1b 	tsteq	r1, fp, lsl lr
     ff0:	17100612 			; <UNDEFINED> instruction: 0x17100612
     ff4:	24020000 	strcs	r0, [r2], #-0
     ff8:	3e0b0b00 	vmlacc.f64	d0, d11, d0
     ffc:	0008030b 	andeq	r0, r8, fp, lsl #6
    1000:	00160300 	andseq	r0, r6, r0, lsl #6
    1004:	0b3a0e03 	bleq	e84818 <__bss_end__+0xe7a7f8>
    1008:	0b390b3b 	bleq	e43cfc <__bss_end__+0xe39cdc>
    100c:	00001349 	andeq	r1, r0, r9, asr #6
    1010:	0b002404 	bleq	a028 <__bss_end__+0x8>
    1014:	030b3e0b 	movweq	r3, #48651	; 0xbe0b
    1018:	0500000e 	streq	r0, [r0, #-14]
    101c:	19270115 	stmdbne	r7!, {r0, r2, r4, r8}
    1020:	13011349 	movwne	r1, #4937	; 0x1349
    1024:	05060000 	streq	r0, [r6, #-0]
    1028:	00134900 	andseq	r4, r3, r0, lsl #18
    102c:	00340700 	eorseq	r0, r4, r0, lsl #14
    1030:	0b3a0e03 	bleq	e84844 <__bss_end__+0xe7a824>
    1034:	0b390b3b 	bleq	e43d28 <__bss_end__+0xe39d08>
    1038:	193f1349 	ldmdbne	pc!, {r0, r3, r6, r8, r9, ip}	; <UNPREDICTABLE>
    103c:	0000193c 	andeq	r1, r0, ip, lsr r9
    1040:	0b000f08 	bleq	4c68 <__code_start__-0x3398>
    1044:	0013490b 	andseq	r4, r3, fp, lsl #18
    1048:	00260900 	eoreq	r0, r6, r0, lsl #18
    104c:	00001349 	andeq	r1, r0, r9, asr #6
    1050:	3f012e0a 	svccc	0x00012e0a
    1054:	3a0e0319 	bcc	381cc0 <__bss_end__+0x377ca0>
    1058:	390b3b0b 	stmdbcc	fp, {r0, r1, r3, r8, r9, fp, ip, sp}
    105c:	4919270b 	ldmdbmi	r9, {r0, r1, r3, r8, r9, sl, sp}
    1060:	12011113 	andne	r1, r1, #-1073741820	; 0xc0000004
    1064:	97184006 	ldrls	r4, [r8, -r6]
    1068:	13011942 	movwne	r1, #6466	; 0x1942
    106c:	050b0000 	streq	r0, [fp, #-0]
    1070:	3a080300 	bcc	201c78 <__bss_end__+0x1f7c58>
    1074:	390b3b0b 	stmdbcc	fp, {r0, r1, r3, r8, r9, fp, ip, sp}
    1078:	0213490b 	andseq	r4, r3, #180224	; 0x2c000
    107c:	0c000018 	stceq	0, cr0, [r0], {24}
    1080:	08030005 	stmdaeq	r3, {r0, r2}
    1084:	0b3b0b3a 	bleq	ec3d74 <__bss_end__+0xeb9d54>
    1088:	13490b39 	movtne	r0, #39737	; 0x9b39
    108c:	42b71702 	adcsmi	r1, r7, #524288	; 0x80000
    1090:	0d000017 	stceq	0, cr0, [r0, #-92]	; 0xffffffa4
    1094:	08030034 	stmdaeq	r3, {r2, r4, r5}
    1098:	0b3b0b3a 	bleq	ec3d88 <__bss_end__+0xeb9d68>
    109c:	13490b39 	movtne	r0, #39737	; 0x9b39
    10a0:	42b71702 	adcsmi	r1, r7, #524288	; 0x80000
    10a4:	0e000017 	mcreq	0, 0, r0, cr0, cr7, {0}
    10a8:	0b0b000f 	bleq	2c10ec <__bss_end__+0x2b70cc>
    10ac:	01000000 	mrseq	r0, (UNDEF: 0)
    10b0:	0e250111 	mcreq	1, 1, r0, cr5, cr1, {0}
    10b4:	0e030b13 	vmoveq.32	d3[0], r0
    10b8:	01110e1b 	tsteq	r1, fp, lsl lr
    10bc:	17100612 			; <UNDEFINED> instruction: 0x17100612
    10c0:	24020000 	strcs	r0, [r2], #-0
    10c4:	3e0b0b00 	vmlacc.f64	d0, d11, d0
    10c8:	0008030b 	andeq	r0, r8, fp, lsl #6
    10cc:	00240300 	eoreq	r0, r4, r0, lsl #6
    10d0:	0b3e0b0b 	bleq	f83d04 <__bss_end__+0xf79ce4>
    10d4:	00000e03 	andeq	r0, r0, r3, lsl #28
    10d8:	27011504 	strcs	r1, [r1, -r4, lsl #10]
    10dc:	01134919 	tsteq	r3, r9, lsl r9
    10e0:	05000013 	streq	r0, [r0, #-19]	; 0xffffffed
    10e4:	13490005 	movtne	r0, #36869	; 0x9005
    10e8:	34060000 	strcc	r0, [r6], #-0
    10ec:	3a0e0300 	bcc	381cf4 <__bss_end__+0x377cd4>
    10f0:	390b3b0b 	stmdbcc	fp, {r0, r1, r3, r8, r9, fp, ip, sp}
    10f4:	3f13490b 	svccc	0x0013490b
    10f8:	00193c19 	andseq	r3, r9, r9, lsl ip
    10fc:	000f0700 	andeq	r0, pc, r0, lsl #14
    1100:	13490b0b 	movtne	r0, #39691	; 0x9b0b
    1104:	26080000 	strcs	r0, [r8], -r0
    1108:	00134900 	andseq	r4, r3, r0, lsl #18
    110c:	012e0900 			; <UNDEFINED> instruction: 0x012e0900
    1110:	0e03193f 			; <UNDEFINED> instruction: 0x0e03193f
    1114:	0b3b0b3a 	bleq	ec3e04 <__bss_end__+0xeb9de4>
    1118:	19270b39 	stmdbne	r7!, {r0, r3, r4, r5, r8, r9, fp}
    111c:	01111349 	tsteq	r1, r9, asr #6
    1120:	18400612 	stmdane	r0, {r1, r4, r9, sl}^
    1124:	01194297 			; <UNDEFINED> instruction: 0x01194297
    1128:	0a000013 	beq	117c <__code_start__-0x6e84>
    112c:	0e030005 	cdpeq	0, 0, cr0, cr3, cr5, {0}
    1130:	0b3b0b3a 	bleq	ec3e20 <__bss_end__+0xeb9e00>
    1134:	13490b39 	movtne	r0, #39737	; 0x9b39
    1138:	00001802 	andeq	r1, r0, r2, lsl #16
    113c:	0300050b 	movweq	r0, #1291	; 0x50b
    1140:	3b0b3a08 	blcc	2cf968 <__bss_end__+0x2c5948>
    1144:	490b390b 	stmdbmi	fp, {r0, r1, r3, r8, fp, ip, sp}
    1148:	b7170213 			; <UNDEFINED> instruction: 0xb7170213
    114c:	00001742 	andeq	r1, r0, r2, asr #14
    1150:	0300340c 	movweq	r3, #1036	; 0x40c
    1154:	3b0b3a08 	blcc	2cf97c <__bss_end__+0x2c595c>
    1158:	490b390b 	stmdbmi	fp, {r0, r1, r3, r8, fp, ip, sp}
    115c:	b7170213 			; <UNDEFINED> instruction: 0xb7170213
    1160:	00001742 	andeq	r1, r0, r2, asr #14
    1164:	01110100 	tsteq	r1, r0, lsl #2
    1168:	0b130e25 	bleq	4c4a04 <__bss_end__+0x4ba9e4>
    116c:	0e1b0e03 	cdpeq	14, 1, cr0, cr11, cr3, {0}
    1170:	06120111 			; <UNDEFINED> instruction: 0x06120111
    1174:	00001710 	andeq	r1, r0, r0, lsl r7
    1178:	0b002402 	bleq	a188 <__bss_end__+0x168>
    117c:	030b3e0b 	movweq	r3, #48651	; 0xbe0b
    1180:	03000008 	movweq	r0, #8
    1184:	0b0b0024 	bleq	2c121c <__bss_end__+0x2b71fc>
    1188:	0e030b3e 	vmoveq.16	d3[0], r0
    118c:	15040000 	strne	r0, [r4, #-0]
    1190:	49192701 	ldmdbmi	r9, {r0, r8, r9, sl, sp}
    1194:	00130113 	andseq	r0, r3, r3, lsl r1
    1198:	00050500 	andeq	r0, r5, r0, lsl #10
    119c:	00001349 	andeq	r1, r0, r9, asr #6
    11a0:	03003406 	movweq	r3, #1030	; 0x406
    11a4:	3b0b3a0e 	blcc	2cf9e4 <__bss_end__+0x2c59c4>
    11a8:	490b390b 	stmdbmi	fp, {r0, r1, r3, r8, fp, ip, sp}
    11ac:	3c193f13 	ldccc	15, cr3, [r9], {19}
    11b0:	07000019 	smladeq	r0, r9, r0, r0
    11b4:	0b0b000f 	bleq	2c11f8 <__bss_end__+0x2b71d8>
    11b8:	00001349 	andeq	r1, r0, r9, asr #6
    11bc:	49002608 	stmdbmi	r0, {r3, r9, sl, sp}
    11c0:	09000013 	stmdbeq	r0, {r0, r1, r4}
    11c4:	193f012e 	ldmdbne	pc!, {r1, r2, r3, r5, r8}	; <UNPREDICTABLE>
    11c8:	0b3a0e03 	bleq	e849dc <__bss_end__+0xe7a9bc>
    11cc:	0b390b3b 	bleq	e43ec0 <__bss_end__+0xe39ea0>
    11d0:	13491927 	movtne	r1, #39207	; 0x9927
    11d4:	06120111 			; <UNDEFINED> instruction: 0x06120111
    11d8:	42971840 	addsmi	r1, r7, #64, 16	; 0x400000
    11dc:	0a000019 	beq	1248 <__code_start__-0x6db8>
    11e0:	08030005 	stmdaeq	r3, {r0, r2}
    11e4:	0b3b0b3a 	bleq	ec3ed4 <__bss_end__+0xeb9eb4>
    11e8:	13490b39 	movtne	r0, #39737	; 0x9b39
    11ec:	42b71702 	adcsmi	r1, r7, #524288	; 0x80000
    11f0:	00000017 	andeq	r0, r0, r7, lsl r0
    11f4:	25011101 	strcs	r1, [r1, #-257]	; 0xfffffeff
    11f8:	030b130e 	movweq	r1, #45838	; 0xb30e
    11fc:	110e1b0e 	tstne	lr, lr, lsl #22
    1200:	10061201 	andne	r1, r6, r1, lsl #4
    1204:	02000017 	andeq	r0, r0, #23, 0
    1208:	0b0b0024 	bleq	2c12a0 <__bss_end__+0x2b7280>
    120c:	08030b3e 	stmdaeq	r3, {r1, r2, r3, r4, r5, r8, r9, fp}
    1210:	24030000 	strcs	r0, [r3], #-0
    1214:	3e0b0b00 	vmlacc.f64	d0, d11, d0
    1218:	000e030b 	andeq	r0, lr, fp, lsl #6
    121c:	01150400 	tsteq	r5, r0, lsl #8
    1220:	13491927 	movtne	r1, #39207	; 0x9927
    1224:	00001301 	andeq	r1, r0, r1, lsl #6
    1228:	49000505 	stmdbmi	r0, {r0, r2, r8, sl}
    122c:	06000013 			; <UNDEFINED> instruction: 0x06000013
    1230:	0e030034 	mcreq	0, 0, r0, cr3, cr4, {1}
    1234:	0b3b0b3a 	bleq	ec3f24 <__bss_end__+0xeb9f04>
    1238:	13490b39 	movtne	r0, #39737	; 0x9b39
    123c:	193c193f 	ldmdbne	ip!, {r0, r1, r2, r3, r4, r5, r8, fp, ip}
    1240:	0f070000 	svceq	0x00070000
    1244:	490b0b00 	stmdbmi	fp, {r8, r9, fp}
    1248:	08000013 	stmdaeq	r0, {r0, r1, r4}
    124c:	13490026 	movtne	r0, #36902	; 0x9026
    1250:	2e090000 	cdpcs	0, 0, cr0, cr9, cr0, {0}
    1254:	03193f01 	tsteq	r9, #1, 30
    1258:	3b0b3a0e 	blcc	2cfa98 <__bss_end__+0x2c5a78>
    125c:	270b390b 	strcs	r3, [fp, -fp, lsl #18]
    1260:	11134919 	tstne	r3, r9, lsl r9
    1264:	40061201 	andmi	r1, r6, r1, lsl #4
    1268:	19429718 	stmdbne	r2, {r3, r4, r8, r9, sl, ip, pc}^
    126c:	00001301 	andeq	r1, r0, r1, lsl #6
    1270:	0300050a 	movweq	r0, #1290	; 0x50a
    1274:	3b0b3a08 	blcc	2cfa9c <__bss_end__+0x2c5a7c>
    1278:	490b390b 	stmdbmi	fp, {r0, r1, r3, r8, fp, ip, sp}
    127c:	00180213 	andseq	r0, r8, r3, lsl r2
    1280:	00050b00 	andeq	r0, r5, r0, lsl #22
    1284:	0b3a0803 	bleq	e83298 <__bss_end__+0xe79278>
    1288:	0b390b3b 	bleq	e43f7c <__bss_end__+0xe39f5c>
    128c:	17021349 	strne	r1, [r2, -r9, asr #6]
    1290:	001742b7 			; <UNDEFINED> instruction: 0x001742b7
    1294:	00340c00 	eorseq	r0, r4, r0, lsl #24
    1298:	0b3a0803 	bleq	e832ac <__bss_end__+0xe7928c>
    129c:	0b390b3b 	bleq	e43f90 <__bss_end__+0xe39f70>
    12a0:	17021349 	strne	r1, [r2, -r9, asr #6]
    12a4:	001742b7 			; <UNDEFINED> instruction: 0x001742b7
    12a8:	11010000 	mrsne	r0, (UNDEF: 1)
    12ac:	130e2501 	movwne	r2, #58625	; 0xe501
    12b0:	1b0e030b 	blne	381ee4 <__bss_end__+0x377ec4>
    12b4:	1117550e 	tstne	r7, lr, lsl #10
    12b8:	00171001 	andseq	r1, r7, r1
    12bc:	00240200 	eoreq	r0, r4, r0, lsl #4
    12c0:	0b3e0b0b 	bleq	f83ef4 <__bss_end__+0xf79ed4>
    12c4:	00000803 	andeq	r0, r0, r3, lsl #16
    12c8:	03001603 	movweq	r1, #1539	; 0x603
    12cc:	3b0b3a0e 	blcc	2cfb0c <__bss_end__+0x2c5aec>
    12d0:	490b390b 	stmdbmi	fp, {r0, r1, r3, r8, fp, ip, sp}
    12d4:	04000013 	streq	r0, [r0], #-19	; 0xffffffed
    12d8:	0b0b0024 	bleq	2c1370 <__bss_end__+0x2b7350>
    12dc:	0e030b3e 	vmoveq.16	d3[0], r0
    12e0:	26050000 	strcs	r0, [r5], -r0
    12e4:	00134900 	andseq	r4, r3, r0, lsl #18
    12e8:	01150600 	tsteq	r5, r0, lsl #12
    12ec:	13491927 	movtne	r1, #39207	; 0x9927
    12f0:	00001301 	andeq	r1, r0, r1, lsl #6
    12f4:	49000507 	stmdbmi	r0, {r0, r1, r2, r8, sl}
    12f8:	08000013 	stmdaeq	r0, {r0, r1, r4}
    12fc:	0e030034 	mcreq	0, 0, r0, cr3, cr4, {1}
    1300:	0b3b0b3a 	bleq	ec3ff0 <__bss_end__+0xeb9fd0>
    1304:	13490b39 	movtne	r0, #39737	; 0x9b39
    1308:	193c193f 	ldmdbne	ip!, {r0, r1, r2, r3, r4, r5, r8, fp, ip}
    130c:	0f090000 	svceq	0x00090000
    1310:	490b0b00 	stmdbmi	fp, {r8, r9, fp}
    1314:	0a000013 	beq	1368 <__code_start__-0x6c98>
    1318:	193f012e 	ldmdbne	pc!, {r1, r2, r3, r5, r8}	; <UNPREDICTABLE>
    131c:	0b3a0e03 	bleq	e84b30 <__bss_end__+0xe7ab10>
    1320:	0b390b3b 	bleq	e44014 <__bss_end__+0xe39ff4>
    1324:	13491927 	movtne	r1, #39207	; 0x9927
    1328:	06120111 			; <UNDEFINED> instruction: 0x06120111
    132c:	42971840 	addsmi	r1, r7, #64, 16	; 0x400000
    1330:	00130119 	andseq	r0, r3, r9, lsl r1
    1334:	00050b00 	andeq	r0, r5, r0, lsl #22
    1338:	0b3a0803 	bleq	e8334c <__bss_end__+0xe7932c>
    133c:	0b390b3b 	bleq	e44030 <__bss_end__+0xe3a010>
    1340:	17021349 	strne	r1, [r2, -r9, asr #6]
    1344:	001742b7 			; <UNDEFINED> instruction: 0x001742b7
    1348:	00340c00 	eorseq	r0, r4, r0, lsl #24
    134c:	0b3a0803 	bleq	e83360 <__bss_end__+0xe79340>
    1350:	0b390b3b 	bleq	e44044 <__bss_end__+0xe3a024>
    1354:	17021349 	strne	r1, [r2, -r9, asr #6]
    1358:	001742b7 			; <UNDEFINED> instruction: 0x001742b7
    135c:	11010000 	mrsne	r0, (UNDEF: 1)
    1360:	130e2501 	movwne	r2, #58625	; 0xe501
    1364:	1b0e030b 	blne	381f98 <__bss_end__+0x377f78>
    1368:	1201110e 	andne	r1, r1, #-2147483645	; 0x80000003
    136c:	00171006 	andseq	r1, r7, r6
    1370:	00240200 	eoreq	r0, r4, r0, lsl #4
    1374:	0b3e0b0b 	bleq	f83fa8 <__bss_end__+0xf79f88>
    1378:	00000803 	andeq	r0, r0, r3, lsl #16
    137c:	0b002403 	bleq	a390 <__bss_end__+0x370>
    1380:	030b3e0b 	movweq	r3, #48651	; 0xbe0b
    1384:	0400000e 	streq	r0, [r0], #-14
    1388:	19270115 	stmdbne	r7!, {r0, r2, r4, r8}
    138c:	13011349 	movwne	r1, #4937	; 0x1349
    1390:	05050000 	streq	r0, [r5, #-0]
    1394:	00134900 	andseq	r4, r3, r0, lsl #18
    1398:	00340600 	eorseq	r0, r4, r0, lsl #12
    139c:	0b3a0e03 	bleq	e84bb0 <__bss_end__+0xe7ab90>
    13a0:	0b390b3b 	bleq	e44094 <__bss_end__+0xe3a074>
    13a4:	193f1349 	ldmdbne	pc!, {r0, r3, r6, r8, r9, ip}	; <UNPREDICTABLE>
    13a8:	0000193c 	andeq	r1, r0, ip, lsr r9
    13ac:	0b000f07 	bleq	4fd0 <__code_start__-0x3030>
    13b0:	0013490b 	andseq	r4, r3, fp, lsl #18
    13b4:	00260800 	eoreq	r0, r6, r0, lsl #16
    13b8:	00001349 	andeq	r1, r0, r9, asr #6
    13bc:	3f002e09 	svccc	0x00002e09
    13c0:	3a0e0319 	bcc	38202c <__bss_end__+0x37800c>
    13c4:	390b3b0b 	stmdbcc	fp, {r0, r1, r3, r8, r9, fp, ip, sp}
    13c8:	1119270b 	tstne	r9, fp, lsl #14
    13cc:	40061201 	andmi	r1, r6, r1, lsl #4
    13d0:	19429718 	stmdbne	r2, {r3, r4, r8, r9, sl, ip, pc}^
    13d4:	01000000 	mrseq	r0, (UNDEF: 0)
    13d8:	0e250111 	mcreq	1, 1, r0, cr5, cr1, {0}
    13dc:	0e030b13 	vmoveq.32	d3[0], r0
    13e0:	01110e1b 	tsteq	r1, fp, lsl lr
    13e4:	17100612 			; <UNDEFINED> instruction: 0x17100612
    13e8:	24020000 	strcs	r0, [r2], #-0
    13ec:	3e0b0b00 	vmlacc.f64	d0, d11, d0
    13f0:	0008030b 	andeq	r0, r8, fp, lsl #6
    13f4:	00240300 	eoreq	r0, r4, r0, lsl #6
    13f8:	0b3e0b0b 	bleq	f8402c <__bss_end__+0xf7a00c>
    13fc:	00000e03 	andeq	r0, r0, r3, lsl #28
    1400:	49002604 	stmdbmi	r0, {r2, r9, sl, sp}
    1404:	05000013 	streq	r0, [r0, #-19]	; 0xffffffed
    1408:	0e030016 	mcreq	0, 0, r0, cr3, cr6, {0}
    140c:	0b3b0b3a 	bleq	ec40fc <__bss_end__+0xeba0dc>
    1410:	13490b39 	movtne	r0, #39737	; 0x9b39
    1414:	04060000 	streq	r0, [r6], #-0
    1418:	0b0b3e01 	bleq	2d0c24 <__bss_end__+0x2c6c04>
    141c:	3a13490b 	bcc	4d3850 <__bss_end__+0x4c9830>
    1420:	390b3b0b 	stmdbcc	fp, {r0, r1, r3, r8, r9, fp, ip, sp}
    1424:	0013010b 	andseq	r0, r3, fp, lsl #2
    1428:	00280700 	eoreq	r0, r8, r0, lsl #14
    142c:	0b1c0e03 	bleq	704c40 <__bss_end__+0x6fac20>
    1430:	34080000 	strcc	r0, [r8], #-0
    1434:	3a0e0300 	bcc	38203c <__bss_end__+0x37801c>
    1438:	390b3b0b 	stmdbcc	fp, {r0, r1, r3, r8, r9, fp, ip, sp}
    143c:	1c13490b 			; <UNDEFINED> instruction: 0x1c13490b
    1440:	09000006 	stmdbeq	r0, {r1, r2}
    1444:	193f012e 	ldmdbne	pc!, {r1, r2, r3, r5, r8}	; <UNPREDICTABLE>
    1448:	0b3a0e03 	bleq	e84c5c <__bss_end__+0xe7ac3c>
    144c:	0b390b3b 	bleq	e44140 <__bss_end__+0xe3a120>
    1450:	13491927 	movtne	r1, #39207	; 0x9927
    1454:	06120111 			; <UNDEFINED> instruction: 0x06120111
    1458:	42971840 	addsmi	r1, r7, #64, 16	; 0x400000
    145c:	00130119 	andseq	r0, r3, r9, lsl r1
    1460:	00050a00 	andeq	r0, r5, r0, lsl #20
    1464:	0b3a0803 	bleq	e83478 <__bss_end__+0xe79458>
    1468:	0b390b3b 	bleq	e4415c <__bss_end__+0xe3a13c>
    146c:	17021349 	strne	r1, [r2, -r9, asr #6]
    1470:	001742b7 			; <UNDEFINED> instruction: 0x001742b7
    1474:	00340b00 	eorseq	r0, r4, r0, lsl #22
    1478:	0b3a0e03 	bleq	e84c8c <__bss_end__+0xe7ac6c>
    147c:	0b390b3b 	bleq	e44170 <__bss_end__+0xe3a150>
    1480:	17021349 	strne	r1, [r2, -r9, asr #6]
    1484:	001742b7 			; <UNDEFINED> instruction: 0x001742b7
    1488:	00340c00 	eorseq	r0, r4, r0, lsl #24
    148c:	0b3a0803 	bleq	e834a0 <__bss_end__+0xe79480>
    1490:	0b390b3b 	bleq	e44184 <__bss_end__+0xe3a164>
    1494:	17021349 	strne	r1, [r2, -r9, asr #6]
    1498:	001742b7 			; <UNDEFINED> instruction: 0x001742b7
    149c:	82890d00 	addhi	r0, r9, #0, 26
    14a0:	01110101 	tsteq	r1, r1, lsl #2
    14a4:	00001331 	andeq	r1, r0, r1, lsr r3
    14a8:	01828a0e 	orreq	r8, r2, lr, lsl #20
    14ac:	91180200 	tstls	r8, r0, lsl #4
    14b0:	00001842 	andeq	r1, r0, r2, asr #16
    14b4:	3f012e0f 	svccc	0x00012e0f
    14b8:	3a0e0319 	bcc	382124 <__bss_end__+0x378104>
    14bc:	390b3b0b 	stmdbcc	fp, {r0, r1, r3, r8, r9, fp, ip, sp}
    14c0:	1119270b 	tstne	r9, fp, lsl #14
    14c4:	40061201 	andmi	r1, r6, r1, lsl #4
    14c8:	19429718 	stmdbne	r2, {r3, r4, r8, r9, sl, ip, pc}^
    14cc:	00001301 	andeq	r1, r0, r1, lsl #6
    14d0:	01828910 	orreq	r8, r2, r0, lsl r9
    14d4:	31011101 	tstcc	r1, r1, lsl #2
    14d8:	00130113 	andseq	r0, r3, r3, lsl r1
    14dc:	82891100 	addhi	r1, r9, #0
    14e0:	01110001 	tsteq	r1, r1
    14e4:	00001331 	andeq	r1, r0, r1, lsr r3
    14e8:	03000512 	movweq	r0, #1298	; 0x512
    14ec:	3b0b3a0e 	blcc	2cfd2c <__bss_end__+0x2c5d0c>
    14f0:	490b390b 	stmdbmi	fp, {r0, r1, r3, r8, fp, ip, sp}
    14f4:	b7170213 			; <UNDEFINED> instruction: 0xb7170213
    14f8:	00001742 	andeq	r1, r0, r2, asr #14
    14fc:	03012e13 	movweq	r2, #7699	; 0x1e13
    1500:	3b0b3a0e 	blcc	2cfd40 <__bss_end__+0x2c5d20>
    1504:	270b390b 	strcs	r3, [fp, -fp, lsl #18]
    1508:	20134919 	andscs	r4, r3, r9, lsl r9
    150c:	0013010b 	andseq	r0, r3, fp, lsl #2
    1510:	00051400 	andeq	r1, r5, r0, lsl #8
    1514:	0b3a0803 	bleq	e83528 <__bss_end__+0xe79508>
    1518:	0b390b3b 	bleq	e4420c <__bss_end__+0xe3a1ec>
    151c:	00001349 	andeq	r1, r0, r9, asr #6
    1520:	3f002e15 	svccc	0x00002e15
    1524:	6e193c19 	mrcvs	12, 0, r3, cr9, cr9, {0}
    1528:	3a0e030e 	bcc	382168 <__bss_end__+0x378148>
    152c:	390b3b0b 	stmdbcc	fp, {r0, r1, r3, r8, r9, fp, ip, sp}
    1530:	0000000b 	andeq	r0, r0, fp

Disassembly of section .debug_loc:

00000000 <.debug_loc>:
       0:	00000000 	andeq	r0, r0, r0
       4:	00000494 	muleq	r0, r4, r4
       8:	0000049b 	muleq	r0, fp, r4
       c:	9b500001 	blls	1400018 <__bss_end__+0x13f5ff8>
      10:	a0000004 	andge	r0, r0, r4
      14:	01000005 	tsteq	r0, r5
      18:	00005400 	andeq	r5, r0, r0, lsl #8
      1c:	00000000 	andeq	r0, r0, r0
      20:	00010000 	andeq	r0, r1, r0
      24:	04940000 	ldreq	r0, [r4], #0
      28:	049b0000 	ldreq	r0, [fp], #0
      2c:	00010000 	andeq	r0, r1, r0
      30:	00049b50 	andeq	r9, r4, r0, asr fp
      34:	0005a000 	andeq	sl, r5, r0
      38:	54000100 	strpl	r0, [r0], #-256	; 0xffffff00
	...
      44:	05340000 	ldreq	r0, [r4, #-0]!
      48:	05370000 	ldreq	r0, [r7, #-0]!
      4c:	00010000 	andeq	r0, r1, r0
      50:	00000050 	andeq	r0, r0, r0, asr r0
      54:	00000000 	andeq	r0, r0, r0
      58:	48000000 	stmdami	r0, {}	; <UNPREDICTABLE>
      5c:	4b000005 	blmi	78 <__code_start__-0x7f88>
      60:	01000005 	tsteq	r0, r5
      64:	00005000 	andeq	r5, r0, r0
      68:	00000000 	andeq	r0, r0, r0
      6c:	00030000 	andeq	r0, r3, r0
      70:	03940000 	orrseq	r0, r4, #0, 0
      74:	039c0000 	orrseq	r0, ip, #0, 0
      78:	00060000 	andeq	r0, r6, r0
      7c:	00750072 	rsbseq	r0, r5, r2, ror r0
      80:	039c9f1c 	orrseq	r9, ip, #28, 30	; 0x70
      84:	03a70000 			; <UNDEFINED> instruction: 0x03a70000
      88:	00010000 	andeq	r0, r1, r0
      8c:	00000052 	andeq	r0, r0, r2, asr r0
      90:	00000000 	andeq	r0, r0, r0
      94:	18000100 	stmdane	r0, {r8}
      98:	f8000003 			; <UNDEFINED> instruction: 0xf8000003
      9c:	01000003 	tsteq	r0, r3
      a0:	00005500 	andeq	r5, r0, r0, lsl #10
      a4:	00000000 	andeq	r0, r0, r0
      a8:	00010000 	andeq	r0, r1, r0
      ac:	00000394 	muleq	r0, r4, r3
      b0:	0000039c 	muleq	r0, ip, r3
      b4:	00520001 	subseq	r0, r2, r1
	...
      c0:	00031800 	andeq	r1, r3, r0, lsl #16
      c4:	0003f800 	andeq	pc, r3, r0, lsl #16
      c8:	55000100 	strpl	r0, [r0, #-256]	; 0xffffff00
	...
      d4:	03940000 	orrseq	r0, r4, #0, 0
      d8:	039c0000 	orrseq	r0, ip, #0, 0
      dc:	00010000 	andeq	r0, r1, r0
      e0:	00000052 	andeq	r0, r0, r2, asr r0
      e4:	00000000 	andeq	r0, r0, r0
      e8:	00000300 	andeq	r0, r0, r0, lsl #6
      ec:	00042400 	andeq	r2, r4, r0, lsl #8
      f0:	00042c00 	andeq	r2, r4, r0, lsl #24
      f4:	72000600 	andvc	r0, r0, #0, 12
      f8:	1c007500 	cfstr32ne	mvfx7, [r0], {-0}
      fc:	00042c9f 	muleq	r4, pc, ip	; <UNPREDICTABLE>
     100:	00043700 	andeq	r3, r4, r0, lsl #14
     104:	52000100 	andpl	r0, r0, #0
	...
     110:	03f80001 	mvnseq	r0, #1, 0
     114:	047c0000 	ldrbteq	r0, [ip], #-0
     118:	00010000 	andeq	r0, r1, r0
     11c:	00000055 	andeq	r0, r0, r5, asr r0
     120:	00000000 	andeq	r0, r0, r0
     124:	24000100 	strcs	r0, [r0], #-256	; 0xffffff00
     128:	2c000004 	stccs	0, cr0, [r0], {4}
     12c:	01000004 	tsteq	r0, r4
     130:	00005200 	andeq	r5, r0, r0, lsl #4
	...
     13c:	000003f8 	strdeq	r0, [r0], -r8
     140:	0000047c 	andeq	r0, r0, ip, ror r4
     144:	00550001 	subseq	r0, r5, r1
	...
     150:	00042400 	andeq	r2, r4, r0, lsl #8
     154:	00042c00 	andeq	r2, r4, r0, lsl #24
     158:	52000100 	andpl	r0, r0, #0
	...
     164:	00000003 	andeq	r0, r0, r3
     168:	000004c4 	andeq	r0, r0, r4, asr #9
     16c:	000004cc 	andeq	r0, r0, ip, asr #9
     170:	00720006 	rsbseq	r0, r2, r6
     174:	9f1c0076 	svcls	0x001c0076
     178:	000004cc 	andeq	r0, r0, ip, asr #9
     17c:	000004d7 	ldrdeq	r0, [r0], -r7
     180:	00520001 	subseq	r0, r2, r1
     184:	00000000 	andeq	r0, r0, r0
     188:	01000000 	mrseq	r0, (UNDEF: 0)
     18c:	00049800 	andeq	r9, r4, r0, lsl #16
     190:	0005a000 	andeq	sl, r5, r0
     194:	56000100 	strpl	r0, [r0], -r0, lsl #2
	...
     1a0:	04c40001 	strbeq	r0, [r4], #1
     1a4:	04cc0000 	strbeq	r0, [ip], #0
     1a8:	00010000 	andeq	r0, r1, r0
     1ac:	00000052 	andeq	r0, r0, r2, asr r0
     1b0:	00000000 	andeq	r0, r0, r0
     1b4:	98000000 	stmdals	r0, {}	; <UNPREDICTABLE>
     1b8:	a0000004 	andge	r0, r0, r4
     1bc:	01000005 	tsteq	r0, r5
     1c0:	00005600 	andeq	r5, r0, r0, lsl #12
	...
     1cc:	000004c4 	andeq	r0, r0, r4, asr #9
     1d0:	000004cc 	andeq	r0, r0, ip, asr #9
     1d4:	00520001 	subseq	r0, r2, r1
	...
     1e4:	0001d800 	andeq	sp, r1, r0, lsl #16
     1e8:	0001f000 	andeq	pc, r1, r0
     1ec:	50000100 	andpl	r0, r0, r0, lsl #2
     1f0:	000001f0 	strdeq	r0, [r0], -r0	; <UNPREDICTABLE>
     1f4:	00000298 	muleq	r0, r8, r2
     1f8:	98570001 	ldmdals	r7, {r0}^
     1fc:	b8000002 	stmdalt	r0, {r1}
     200:	04000002 	streq	r0, [r0], #-2
     204:	5001f300 	andpl	pc, r1, r0, lsl #6
     208:	0000009f 	muleq	r0, pc, r0	; <UNPREDICTABLE>
	...
     218:	f4000000 	vst4.8	{d0-d3}, [r0], r0
     21c:	0c000001 	stceq	0, cr0, [r0], {1}
     220:	01000002 	tsteq	r0, r2
     224:	020c5000 	andeq	r5, ip, #0, 0
     228:	02500000 	subseq	r0, r0, #0, 0
     22c:	00010000 	andeq	r0, r1, r0
     230:	00025055 	andeq	r5, r2, r5, asr r0
     234:	00026800 	andeq	r6, r2, r0, lsl #16
     238:	50000100 	andpl	r0, r0, r0, lsl #2
     23c:	00000270 	andeq	r0, r0, r0, ror r2
     240:	00000298 	muleq	r0, r8, r2
     244:	98550001 	ldmdals	r5, {r0}^
     248:	b8000002 	stmdalt	r0, {r1}
     24c:	01000002 	tsteq	r0, r2
     250:	00005000 	andeq	r5, r0, r0
     254:	00000000 	andeq	r0, r0, r0
     258:	00020000 	andeq	r0, r2, r0
     25c:	00000000 	andeq	r0, r0, r0
     260:	00000208 	andeq	r0, r0, r8, lsl #4
     264:	0000020c 	andeq	r0, r0, ip, lsl #4
     268:	9f300002 	svcls	0x00300002
     26c:	0000020c 	andeq	r0, r0, ip, lsl #4
     270:	00000250 	andeq	r0, r0, r0, asr r2
     274:	70540001 	subsvc	r0, r4, r1
     278:	98000002 	stmdals	r0, {r1}
     27c:	01000002 	tsteq	r0, r2
     280:	00005400 	andeq	r5, r0, r0, lsl #8
     284:	00000000 	andeq	r0, r0, r0
     288:	00010000 	andeq	r0, r1, r0
     28c:	00000234 	andeq	r0, r0, r4, lsr r2
     290:	0000023c 	andeq	r0, r0, ip, lsr r2
     294:	78080003 	stmdavc	r8, {r0, r1}
     298:	0000009f 	muleq	r0, pc, r0	; <UNPREDICTABLE>
     29c:	00000000 	andeq	r0, r0, r0
     2a0:	34000100 	strcc	r0, [r0], #-256	; 0xffffff00
     2a4:	3c000002 	stccc	0, cr0, [r0], {2}
     2a8:	02000002 	andeq	r0, r0, #2, 0
     2ac:	009f3f00 	addseq	r3, pc, r0, lsl #30
     2b0:	00000000 	andeq	r0, r0, r0
     2b4:	01000000 	mrseq	r0, (UNDEF: 0)
     2b8:	00023400 	andeq	r3, r2, r0, lsl #8
     2bc:	00023c00 	andeq	r3, r2, r0, lsl #24
     2c0:	54000100 	strpl	r0, [r0], #-256	; 0xffffff00
	...
     2cc:	02740000 	rsbseq	r0, r4, #0, 0
     2d0:	02880000 	addeq	r0, r8, #0, 0
     2d4:	00010000 	andeq	r0, r1, r0
     2d8:	00000057 	andeq	r0, r0, r7, asr r0
	...
     2e4:	00027400 	andeq	r7, r2, r0, lsl #8
     2e8:	00027800 	andeq	r7, r2, r0, lsl #16
     2ec:	53000100 	movwpl	r0, #256	; 0x100
     2f0:	00000278 	andeq	r0, r0, r8, ror r2
     2f4:	00000288 	andeq	r0, r0, r8, lsl #5
     2f8:	00780008 	rsbseq	r0, r8, r8
     2fc:	00752432 	rsbseq	r2, r5, r2, lsr r4
     300:	00009f22 	andeq	r9, r0, r2, lsr #30
	...
     310:	02800000 	addeq	r0, r0, #0, 0
     314:	02840000 	addeq	r0, r4, #0, 0
     318:	00010000 	andeq	r0, r1, r0
     31c:	00028453 	andeq	r8, r2, r3, asr r4
     320:	00029800 	andeq	r9, r2, r0, lsl #16
     324:	77000f00 	strvc	r0, [r0, -r0, lsl #30]
     328:	1c007500 	cfstr32ne	mvfx7, [r0], {-0}
     32c:	24320078 	ldrtcs	r0, [r2], #-120	; 0xffffff88
     330:	321c381c 	andscc	r3, ip, #28, 16	; 0x1c0000
     334:	02989f25 	addseq	r9, r8, #148	; 0x94
     338:	029c0000 	addseq	r0, ip, #0, 0
     33c:	00110000 	andseq	r0, r1, r0
     340:	7d5001f3 	ldfvce	f0, [r0, #-972]	; 0xfffffc34
     344:	24320600 	ldrtcs	r0, [r2], #-1536	; 0xfffffa00
     348:	1c00701c 	stcne	0, cr7, [r0], {28}
     34c:	25321c38 	ldrcs	r1, [r2, #-3128]!	; 0xfffff3c8
     350:	00029c9f 	muleq	r2, pc, ip	; <UNPREDICTABLE>
     354:	0002b800 	andeq	fp, r2, r0, lsl #16
     358:	f3001100 	vrhadd.u8	d1, d0, d0
     35c:	54915001 	ldrpl	r5, [r1], #1
     360:	1c243206 	sfmne	f3, 4, [r4], #-24	; 0xffffffe8
     364:	381c0070 	ldmdacc	ip, {r4, r5, r6}
     368:	9f25321c 	svcls	0x0025321c
	...
     378:	01080000 	mrseq	r0, (UNDEF: 8)
     37c:	011c0000 	tsteq	ip, r0
     380:	00010000 	andeq	r0, r1, r0
     384:	00011c50 	andeq	r1, r1, r0, asr ip
     388:	0001c000 	andeq	ip, r1, r0
     38c:	55000100 	strpl	r0, [r0, #-256]	; 0xffffff00
     390:	000001c0 	andeq	r0, r0, r0, asr #3
     394:	000001d8 	ldrdeq	r0, [r0], -r8
     398:	01f30004 	mvnseq	r0, r4
     39c:	00009f50 	andeq	r9, r0, r0, asr pc
	...
     3ac:	01080000 	mrseq	r0, (UNDEF: 8)
     3b0:	011f0000 	tsteq	pc, r0
     3b4:	00010000 	andeq	r0, r1, r0
     3b8:	00011f51 	andeq	r1, r1, r1, asr pc
     3bc:	00019c00 	andeq	r9, r1, r0, lsl #24
     3c0:	54000100 	strpl	r0, [r0], #-256	; 0xffffff00
     3c4:	0000019c 	muleq	r0, ip, r1
     3c8:	000001c0 	andeq	r0, r0, r0, asr #3
     3cc:	81740007 	cmnhi	r4, r7
     3d0:	7c808080 	stcvc	0, cr8, [r0], {128}	; 0x80
     3d4:	0001c09f 	muleq	r1, pc, r0	; <UNPREDICTABLE>
     3d8:	0001d800 	andeq	sp, r1, r0, lsl #16
     3dc:	72000300 	andvc	r0, r0, #0, 6
     3e0:	00009f7f 	andeq	r9, r0, pc, ror pc
	...
     3ec:	01200000 			; <UNDEFINED> instruction: 0x01200000
     3f0:	014c0000 	mrseq	r0, (UNDEF: 76)
     3f4:	00010000 	andeq	r0, r1, r0
     3f8:	00015450 	andeq	r5, r1, r0, asr r4
     3fc:	0001d800 	andeq	sp, r1, r0, lsl #16
     400:	50000100 	andpl	r0, r0, r0, lsl #2
	...
     40c:	00000002 	andeq	r0, r0, r2
     410:	0000012c 	andeq	r0, r0, ip, lsr #2
     414:	00000134 	andeq	r0, r0, r4, lsr r1
     418:	9f300002 	svcls	0x00300002
     41c:	00000154 	andeq	r0, r0, r4, asr r1
     420:	00000194 	muleq	r0, r4, r1
     424:	00520001 	subseq	r0, r2, r1
	...
     430:	60000000 	andvs	r0, r0, r0
     434:	64000001 	strvs	r0, [r0], #-1
     438:	01000001 	tsteq	r0, r1
     43c:	01645300 	cmneq	r4, r0, lsl #6
     440:	01740000 	cmneq	r4, r0
     444:	00070000 	andeq	r0, r7, r0
     448:	24320072 	ldrtcs	r0, [r2], #-114	; 0xffffff8e
     44c:	00220075 	eoreq	r0, r2, r5, ror r0
	...
     458:	00016000 	andeq	r6, r1, r0
     45c:	00017400 	andeq	r7, r1, r0, lsl #8
     460:	5c000100 	stfpls	f0, [r0], {-0}
	...
     470:	0000016c 	andeq	r0, r0, ip, ror #2
     474:	00000170 	andeq	r0, r0, r0, ror r1
     478:	70530001 	subsvc	r0, r3, r1
     47c:	78000001 	stmdavc	r0, {r0}
     480:	10000001 	andne	r0, r0, r1
     484:	32007200 	andcc	r7, r0, #0, 4
     488:	22007524 	andcs	r7, r0, #36, 10	; 0x9000000
     48c:	1c007c06 	stcne	12, cr7, [r0], {6}
     490:	25321c38 	ldrcs	r1, [r2, #-3128]!	; 0xfffff3c8
     494:	0000009f 	muleq	r0, pc, r0	; <UNPREDICTABLE>
	...
     4a0:	0001a000 	andeq	sl, r1, r0
     4a4:	0001a400 	andeq	sl, r1, r0, lsl #8
     4a8:	53000100 	movwpl	r0, #256	; 0x100
     4ac:	000001a4 	andeq	r0, r0, r4, lsr #3
     4b0:	000001b4 			; <UNDEFINED> instruction: 0x000001b4
     4b4:	00740007 	rsbseq	r0, r4, r7
     4b8:	00752432 	rsbseq	r2, r5, r2, lsr r4
     4bc:	00000022 	andeq	r0, r0, r2, lsr #32
     4c0:	00000000 	andeq	r0, r0, r0
     4c4:	a0000000 	andge	r0, r0, r0
     4c8:	b4000001 	strlt	r0, [r0], #-1
     4cc:	01000001 	tsteq	r0, r1
     4d0:	00005100 	andeq	r5, r0, r0, lsl #2
	...
     4dc:	01ac0000 			; <UNDEFINED> instruction: 0x01ac0000
     4e0:	01b00000 	movseq	r0, r0
     4e4:	00010000 	andeq	r0, r1, r0
     4e8:	0001b053 	andeq	fp, r1, r3, asr r0
     4ec:	0001b800 	andeq	fp, r1, r0, lsl #16
     4f0:	74001000 	strvc	r1, [r0], #-0
     4f4:	75243200 	strvc	r3, [r4, #-512]!	; 0xfffffe00
     4f8:	71062200 	mrsvc	r2, LR_usr
     4fc:	1c381c00 	ldcne	12, cr1, [r8], #-0
     500:	009f2532 	addseq	r2, pc, r2, lsr r5	; <UNPREDICTABLE>
	...
     50c:	e0000000 	and	r0, r0, r0
     510:	f0000000 			; <UNDEFINED> instruction: 0xf0000000
     514:	01000000 	mrseq	r0, (UNDEF: 0)
     518:	00f05000 	rscseq	r5, r0, r0
     51c:	01080000 	mrseq	r0, (UNDEF: 8)
     520:	00010000 	andeq	r0, r1, r0
     524:	00000056 	andeq	r0, r0, r6, asr r0
	...
     530:	0000e000 	andeq	lr, r0, r0
     534:	0000f000 	andeq	pc, r0, r0
     538:	51000100 	mrspl	r0, (UNDEF: 16)
     53c:	000000f0 	strdeq	r0, [r0], -r0	; <UNPREDICTABLE>
     540:	00000108 	andeq	r0, r0, r8, lsl #2
     544:	00550001 	subseq	r0, r5, r1
     548:	00000000 	andeq	r0, r0, r0
     54c:	02000000 	andeq	r0, r0, #0, 0
     550:	ec000000 	stc	0, cr0, [r0], {-0}
     554:	f0000000 			; <UNDEFINED> instruction: 0xf0000000
     558:	02000000 	andeq	r0, r0, #0, 0
     55c:	f09f3000 			; <UNDEFINED> instruction: 0xf09f3000
     560:	08000000 	stmdaeq	r0, {}	; <UNPREDICTABLE>
     564:	01000001 	tsteq	r0, r1
     568:	00005400 	andeq	r5, r0, r0, lsl #8
	...
     578:	000000c0 	andeq	r0, r0, r0, asr #1
     57c:	000000d4 	ldrdeq	r0, [r0], -r4
     580:	d4500001 	ldrble	r0, [r0], #-1
     584:	d7000000 	strle	r0, [r0, -r0]
     588:	01000000 	mrseq	r0, (UNDEF: 0)
     58c:	00d75100 	sbcseq	r5, r7, r0, lsl #2
     590:	00e00000 	rsceq	r0, r0, r0
     594:	00040000 	andeq	r0, r4, r0
     598:	9f5001f3 	svcls	0x005001f3
	...
     5a8:	00c00000 	sbceq	r0, r0, r0
     5ac:	00d00000 	sbcseq	r0, r0, r0
     5b0:	00010000 	andeq	r0, r1, r0
     5b4:	0000d051 	andeq	sp, r0, r1, asr r0
     5b8:	0000d700 	andeq	sp, r0, r0, lsl #14
     5bc:	52000100 	andpl	r0, r0, #0
     5c0:	000000d7 	ldrdeq	r0, [r0], -r7
     5c4:	000000e0 	andeq	r0, r0, r0, ror #1
     5c8:	01f30004 	mvnseq	r0, r4
     5cc:	00009f51 	andeq	r9, r0, r1, asr pc
	...
     5dc:	000000c0 	andeq	r0, r0, r0, asr #1
     5e0:	000000cc 	andeq	r0, r0, ip, asr #1
     5e4:	cc520001 	mrrcgt	0, 0, r0, r2, cr1
     5e8:	d7000000 	strle	r0, [r0, -r0]
     5ec:	01000000 	mrseq	r0, (UNDEF: 0)
     5f0:	00d75300 	sbcseq	r5, r7, r0, lsl #6
     5f4:	00e00000 	rsceq	r0, r0, r0
     5f8:	00040000 	andeq	r0, r4, r0
     5fc:	9f5201f3 	svcls	0x005201f3
	...
     60c:	002c0000 	eoreq	r0, ip, r0
     610:	00380000 	eorseq	r0, r8, r0
     614:	00010000 	andeq	r0, r1, r0
     618:	00003850 	andeq	r3, r0, r0, asr r8
     61c:	00004800 	andeq	r4, r0, r0, lsl #16
     620:	54000100 	strpl	r0, [r0], #-256	; 0xffffff00
     624:	00000048 	andeq	r0, r0, r8, asr #32
     628:	00000058 	andeq	r0, r0, r8, asr r0
     62c:	00500001 	subseq	r0, r0, r1
	...
     63c:	0b000000 	bleq	644 <__code_start__-0x79bc>
     640:	01000000 	mrseq	r0, (UNDEF: 0)
     644:	000b5000 	andeq	r5, fp, r0
     648:	00140000 	andseq	r0, r4, r0
     64c:	00010000 	andeq	r0, r1, r0
     650:	00000054 	andeq	r0, r0, r4, asr r0
     654:	00000000 	andeq	r0, r0, r0
     658:	01010000 	mrseq	r0, (UNDEF: 1)
     65c:	00000000 	andeq	r0, r0, r0
     660:	00000800 	andeq	r0, r0, r0, lsl #16
     664:	50000100 	andpl	r0, r0, r0, lsl #2
     668:	00000008 	andeq	r0, r0, r8
     66c:	00000034 	andeq	r0, r0, r4, lsr r0
     670:	00540001 	subseq	r0, r4, r1
	...
     680:	00028800 	andeq	r8, r2, r0, lsl #16
     684:	0002b800 	andeq	fp, r2, r0, lsl #16
     688:	50000100 	andpl	r0, r0, r0, lsl #2
     68c:	000002b8 			; <UNDEFINED> instruction: 0x000002b8
     690:	00000704 	andeq	r0, r0, r4, lsl #14
     694:	04590001 	ldrbeq	r0, [r9], #-1
     698:	40000007 	andmi	r0, r0, r7
     69c:	04000007 	streq	r0, [r0], #-7
     6a0:	5001f300 	andpl	pc, r1, r0, lsl #6
     6a4:	0000009f 	muleq	r0, pc, r0	; <UNPREDICTABLE>
	...
     6b0:	88000000 	stmdahi	r0, {}	; <UNPREDICTABLE>
     6b4:	a0000002 	andge	r0, r0, r2
     6b8:	01000002 	tsteq	r0, r2
     6bc:	02a05100 	adceq	r5, r0, #0
     6c0:	02b80000 	adcseq	r0, r8, #0, 0
     6c4:	00030000 	andeq	r0, r3, r0
     6c8:	b89f0171 	ldmlt	pc, {r0, r4, r5, r6, r8}	; <UNPREDICTABLE>
     6cc:	40000002 	andmi	r0, r0, r2
     6d0:	04000007 	streq	r0, [r0], #-7
     6d4:	5101f300 	mrspl	pc, SP_irq	; <UNPREDICTABLE>
     6d8:	0000009f 	muleq	r0, pc, r0	; <UNPREDICTABLE>
	...
     6ec:	00028800 	andeq	r8, r2, r0, lsl #16
     6f0:	0002b800 	andeq	fp, r2, r0, lsl #16
     6f4:	52000100 	andpl	r0, r0, #0
     6f8:	000002b8 			; <UNDEFINED> instruction: 0x000002b8
     6fc:	000003ec 	andeq	r0, r0, ip, ror #7
     700:	ec560001 	mrrc	0, 0, r0, r6, cr1
     704:	b8000003 	stmdalt	r0, {r0, r1}
     708:	01000004 	tsteq	r0, r4
     70c:	04b85b00 	ldrteq	r5, [r8], #2816	; 0xb00
     710:	04d80000 	ldrbeq	r0, [r8], #0
     714:	00010000 	andeq	r0, r1, r0
     718:	0004d856 	andeq	sp, r4, r6, asr r8
     71c:	00055c00 	andeq	r5, r5, r0, lsl #24
     720:	5b000100 	blpl	b28 <__code_start__-0x74d8>
     724:	0000055c 	andeq	r0, r0, ip, asr r5
     728:	00000704 	andeq	r0, r0, r4, lsl #14
     72c:	00560001 	subseq	r0, r6, r1
     730:	00000000 	andeq	r0, r0, r0
     734:	01000000 	mrseq	r0, (UNDEF: 0)
     738:	00000000 	andeq	r0, r0, r0
     73c:	01010000 	mrseq	r0, (UNDEF: 1)
     740:	00000000 	andeq	r0, r0, r0
     744:	02020000 	andeq	r0, r2, #0, 0
     748:	9c000000 	stcls	0, cr0, [r0], {-0}
     74c:	b8000002 	stmdalt	r0, {r1}
     750:	01000002 	tsteq	r0, r2
     754:	02b85000 	adcseq	r5, r8, #0, 0
     758:	02bc0000 	adcseq	r0, ip, #0, 0
     75c:	00010000 	andeq	r0, r1, r0
     760:	0002bc54 	andeq	fp, r2, r4, asr ip
     764:	0002c000 	andeq	ip, r2, r0
     768:	74000300 	strvc	r0, [r0], #-768	; 0xfffffd00
     76c:	02c09f01 	sbceq	r9, r0, #1, 30
     770:	02e40000 	rsceq	r0, r4, #0, 0
     774:	00010000 	andeq	r0, r1, r0
     778:	0002e454 	andeq	lr, r2, r4, asr r4
     77c:	0002e800 	andeq	lr, r2, r0, lsl #16
     780:	74000300 	strvc	r0, [r0], #-768	; 0xfffffd00
     784:	02e89f01 	rsceq	r9, r8, #1, 30
     788:	06d40000 	ldrbeq	r0, [r4], r0
     78c:	00010000 	andeq	r0, r1, r0
     790:	0006d454 	andeq	sp, r6, r4, asr r4
     794:	0006d800 	andeq	sp, r6, r0, lsl #16
     798:	74000300 	strvc	r0, [r0], #-768	; 0xfffffd00
     79c:	06d89f01 	ldrbeq	r9, [r8], r1, lsl #30
     7a0:	06f00000 	ldrbteq	r0, [r0], r0
     7a4:	00010000 	andeq	r0, r1, r0
     7a8:	0006f054 	andeq	pc, r6, r4, asr r0	; <UNPREDICTABLE>
     7ac:	0006f800 	andeq	pc, r6, r0, lsl #16
     7b0:	74000300 	strvc	r0, [r0], #-768	; 0xfffffd00
     7b4:	06f89f01 	ldrbteq	r9, [r8], r1, lsl #30
     7b8:	07040000 	streq	r0, [r4, -r0]
     7bc:	00010000 	andeq	r0, r1, r0
     7c0:	00000054 	andeq	r0, r0, r4, asr r0
	...
     7cc:	0002a400 	andeq	sl, r2, r0, lsl #8
     7d0:	00070400 	andeq	r0, r7, r0, lsl #8
     7d4:	58000100 	stmdapl	r0, {r8}
     7d8:	00000704 	andeq	r0, r0, r4, lsl #14
     7dc:	00000740 	andeq	r0, r0, r0, asr #14
     7e0:	01f3000a 	mvnseq	r0, sl
     7e4:	5001f351 	andpl	pc, r1, r1, asr r3	; <UNPREDICTABLE>
     7e8:	9f1c3122 	svcls	0x001c3122
	...
     7f4:	00000001 	andeq	r0, r0, r1
     7f8:	04080000 	streq	r0, [r8], #-0
     7fc:	04740000 	ldrbteq	r0, [r4], #-0
     800:	00010000 	andeq	r0, r1, r0
     804:	0004d857 	andeq	sp, r4, r7, asr r8
     808:	0004fc00 	andeq	pc, r4, r0, lsl #24
     80c:	57000100 	strpl	r0, [r0, -r0, lsl #2]
     810:	00000540 	andeq	r0, r0, r0, asr #10
     814:	0000055c 	andeq	r0, r0, ip, asr r5
     818:	00570001 	subseq	r0, r7, r1
     81c:	00000000 	andeq	r0, r0, r0
     820:	02000000 	andeq	r0, r0, #0, 0
     824:	08000000 	stmdaeq	r0, {}	; <UNPREDICTABLE>
     828:	b8000004 	stmdalt	r0, {r2}
     82c:	01000004 	tsteq	r0, r4
     830:	04d85a00 	ldrbeq	r5, [r8], #2560	; 0xa00
     834:	055c0000 	ldrbeq	r0, [ip, #-0]
     838:	00010000 	andeq	r0, r1, r0
     83c:	0000005a 	andeq	r0, r0, sl, asr r0
     840:	00000000 	andeq	r0, r0, r0
     844:	00000100 	andeq	r0, r0, r0, lsl #2
     848:	0002ac00 	andeq	sl, r2, r0, lsl #24
     84c:	0002b800 	andeq	fp, r2, r0, lsl #16
     850:	52000100 	andpl	r0, r0, #0
     854:	000002b8 			; <UNDEFINED> instruction: 0x000002b8
     858:	00000740 	andeq	r0, r0, r0, asr #14
     85c:	c8910003 	ldmgt	r1, {r0, r1}
     860:	0000007d 	andeq	r0, r0, sp, ror r0
	...
     870:	01010000 	mrseq	r0, (UNDEF: 1)
	...
     87c:	74000000 	strvc	r0, [r0], #-0
     880:	8c000004 	stchi	0, cr0, [r0], {4}
     884:	01000004 	tsteq	r0, r4
     888:	048c5000 	streq	r5, [ip], #0
     88c:	04b80000 	ldrteq	r0, [r8], #0
     890:	00010000 	andeq	r0, r1, r0
     894:	0004fc57 	andeq	pc, r4, r7, asr ip	; <UNPREDICTABLE>
     898:	00051400 	andeq	r1, r5, r0, lsl #8
     89c:	50000100 	andpl	r0, r0, r0, lsl #2
     8a0:	00000514 	andeq	r0, r0, r4, lsl r5
     8a4:	00000540 	andeq	r0, r0, r0, asr #10
     8a8:	a4570001 	ldrbge	r0, [r7], #-1
     8ac:	a4000005 	strge	r0, [r0], #-5
     8b0:	01000005 	tsteq	r0, r5
     8b4:	05a45000 	streq	r5, [r4, #0]!
     8b8:	05ac0000 	streq	r0, [ip, #0]!
     8bc:	00010000 	andeq	r0, r1, r0
     8c0:	0005dc57 	andeq	sp, r5, r7, asr ip
     8c4:	0005e000 	andeq	lr, r5, r0
     8c8:	50000100 	andpl	r0, r0, r0, lsl #2
     8cc:	00000610 	andeq	r0, r0, r0, lsl r6
     8d0:	00000614 	andeq	r0, r0, r4, lsl r6
     8d4:	44500001 	ldrbmi	r0, [r0], #-1
     8d8:	48000006 	stmdami	r0, {r1, r2}
     8dc:	01000006 	tsteq	r0, r6
     8e0:	068c5000 	streq	r5, [ip], r0
     8e4:	06900000 	ldreq	r0, [r0], r0
     8e8:	00010000 	andeq	r0, r1, r0
     8ec:	0006d050 	andeq	sp, r6, r0, asr r0
     8f0:	0006f000 	andeq	pc, r6, r0
     8f4:	57000100 	strpl	r0, [r0, -r0, lsl #2]
	...
     900:	00000002 	andeq	r0, r0, r2
     904:	02f40000 	rscseq	r0, r4, #0, 0
     908:	02f80000 	rscseq	r0, r8, #0, 0
     90c:	00020000 	andeq	r0, r2, r0
     910:	02f89f30 	rscseq	r9, r8, #48, 30	; 0xc0
     914:	03140000 	tsteq	r4, #0, 0
     918:	00010000 	andeq	r0, r1, r0
     91c:	00031c55 	andeq	r1, r3, r5, asr ip
     920:	0006f000 	andeq	pc, r6, r0
     924:	55000100 	strpl	r0, [r0, #-256]	; 0xffffff00
	...
     930:	00000001 	andeq	r0, r0, r1
     934:	00000000 	andeq	r0, r0, r0
     938:	03b80000 			; <UNDEFINED> instruction: 0x03b80000
     93c:	04540000 	ldrbeq	r0, [r4], #-0
     940:	00010000 	andeq	r0, r1, r0
     944:	00045456 	andeq	r5, r4, r6, asr r4
     948:	0004b800 	andeq	fp, r4, r0, lsl #16
     94c:	7b000300 	blvc	1554 <__code_start__-0x6aac>
     950:	04b89f7e 	ldrteq	r9, [r8], #3966	; 0xf7e
     954:	04dc0000 	ldrbeq	r0, [ip], #0
     958:	00010000 	andeq	r0, r1, r0
     95c:	0004dc56 	andeq	sp, r4, r6, asr ip
     960:	00054000 	andeq	r4, r5, r0
     964:	7b000300 	blvc	156c <__code_start__-0x6a94>
     968:	05409f7e 	strbeq	r9, [r0, #-3966]	; 0xfffff082
     96c:	055c0000 	ldrbeq	r0, [ip, #-0]
     970:	00010000 	andeq	r0, r1, r0
     974:	00000056 	andeq	r0, r0, r6, asr r0
	...
     980:	70000000 	andvc	r0, r0, r0
     984:	94000000 	strls	r0, [r0], #-0
     988:	01000000 	mrseq	r0, (UNDEF: 0)
     98c:	00945000 	addseq	r5, r4, r0
     990:	00fc0000 	rscseq	r0, ip, r0
     994:	00030000 	andeq	r0, r3, r0
     998:	fc9f0270 	ldc2	2, cr0, [pc], {112}	; 0x70
     99c:	24000000 	strcs	r0, [r0], #-0
     9a0:	04000002 	streq	r0, [r0], #-2
     9a4:	5001f300 	andpl	pc, r1, r0, lsl #6
     9a8:	0000009f 	muleq	r0, pc, r0	; <UNPREDICTABLE>
	...
     9c0:	00007000 	andeq	r7, r0, r0
     9c4:	0000e000 	andeq	lr, r0, r0
     9c8:	51000100 	mrspl	r0, (UNDEF: 16)
     9cc:	000000e0 	andeq	r0, r0, r0, ror #1
     9d0:	00000154 	andeq	r0, r0, r4, asr r1
     9d4:	54550001 	ldrbpl	r0, [r5], #-1
     9d8:	58000001 	stmdapl	r0, {r0}
     9dc:	01000001 	tsteq	r0, r1
     9e0:	01585100 	cmpeq	r8, r0, lsl #2
     9e4:	01b00000 	movseq	r0, r0
     9e8:	00010000 	andeq	r0, r1, r0
     9ec:	0001b055 	andeq	fp, r1, r5, asr r0
     9f0:	0001c000 	andeq	ip, r1, r0
     9f4:	51000100 	mrspl	r0, (UNDEF: 16)
     9f8:	000001c0 	andeq	r0, r0, r0, asr #3
     9fc:	000001e4 	andeq	r0, r0, r4, ror #3
     a00:	e4550001 	ldrb	r0, [r5], #-1
     a04:	f8000001 			; <UNDEFINED> instruction: 0xf8000001
     a08:	01000001 	tsteq	r0, r1
     a0c:	01f85100 	mvnseq	r5, r0, lsl #2
     a10:	02240000 	eoreq	r0, r4, #0, 0
     a14:	00010000 	andeq	r0, r1, r0
     a18:	00000055 	andeq	r0, r0, r5, asr r0
	...
     a24:	00007000 	andeq	r7, r0, r0
     a28:	00008400 	andeq	r8, r0, r0, lsl #8
     a2c:	52000100 	andpl	r0, r0, #0
     a30:	00000084 	andeq	r0, r0, r4, lsl #1
     a34:	00000224 	andeq	r0, r0, r4, lsr #4
     a38:	00540001 	subseq	r0, r4, r1
	...
     a48:	00000001 	andeq	r0, r0, r1
     a4c:	70000000 	andvc	r0, r0, r0
     a50:	f4000000 	vst4.8	{d0-d3}, [r0], r0
     a54:	01000000 	mrseq	r0, (UNDEF: 0)
     a58:	014c5300 	mrseq	r5, SPSR_mon
     a5c:	01800000 	orreq	r0, r0, r0
     a60:	00010000 	andeq	r0, r1, r0
     a64:	00018053 	andeq	r8, r1, r3, asr r0
     a68:	00018c00 	andeq	r8, r1, r0, lsl #24
     a6c:	f3000400 	vshl.u8	d0, d0, d0
     a70:	b09f5301 	addslt	r5, pc, r1, lsl #6
     a74:	e8000001 	stmda	r0, {r0}
     a78:	01000001 	tsteq	r0, r1
     a7c:	01e85300 	mvneq	r5, r0, lsl #6
     a80:	01ff0000 	mvnseq	r0, r0
     a84:	00010000 	andeq	r0, r1, r0
     a88:	0001ff5c 	andeq	pc, r1, ip, asr pc	; <UNPREDICTABLE>
     a8c:	00022400 	andeq	r2, r2, r0, lsl #8
     a90:	f3000400 	vshl.u8	d0, d0, d0
     a94:	009f5301 	addseq	r5, pc, r1, lsl #6
	...
     aa4:	00007000 	andeq	r7, r0, r0
     aa8:	00008c00 	andeq	r8, r0, r0, lsl #24
     aac:	91000200 	mrsls	r0, R8_usr
     ab0:	00008c00 	andeq	r8, r0, r0, lsl #24
     ab4:	00019300 	andeq	r9, r1, r0, lsl #6
     ab8:	52000100 	andpl	r0, r0, #0
     abc:	000001b0 			; <UNDEFINED> instruction: 0x000001b0
     ac0:	000001f4 	strdeq	r0, [r0], -r4
     ac4:	00520001 	subseq	r0, r2, r1
     ac8:	00000000 	andeq	r0, r0, r0
     acc:	01000000 	mrseq	r0, (UNDEF: 0)
     ad0:	01010000 	mrseq	r0, (UNDEF: 1)
	...
     adc:	01010101 	tsteq	r1, r1, lsl #2
     ae0:	01010000 	mrseq	r0, (UNDEF: 1)
	...
     aec:	8c000000 	stchi	0, cr0, [r0], {-0}
     af0:	fc000000 	stc2	0, cr0, [r0], {-0}
     af4:	04000000 	streq	r0, [r0], #-0
     af8:	7fa09100 	svcvc	0x00a09100
     afc:	0000fc9f 	muleq	r0, pc, ip	; <UNPREDICTABLE>
     b00:	00013c00 	andeq	r3, r1, r0, lsl #24
     b04:	50000100 	andpl	r0, r0, r0, lsl #2
     b08:	0000013c 	andeq	r0, r0, ip, lsr r1
     b0c:	00000148 	andeq	r0, r0, r8, asr #2
     b10:	02710003 	rsbseq	r0, r1, #3, 0
     b14:	0001489f 	muleq	r1, pc, r8	; <UNPREDICTABLE>
     b18:	00014c00 	andeq	r4, r1, r0, lsl #24
     b1c:	50000100 	andpl	r0, r0, r0, lsl #2
     b20:	0000014c 	andeq	r0, r0, ip, asr #2
     b24:	00000158 	andeq	r0, r0, r8, asr r1
     b28:	a0910004 	addsge	r0, r1, r4
     b2c:	01589f7f 	cmpeq	r8, pc, ror pc
     b30:	016c0000 	cmneq	ip, r0
     b34:	00010000 	andeq	r0, r1, r0
     b38:	00016c51 	andeq	r6, r1, r1, asr ip
     b3c:	00017800 	andeq	r7, r1, r0, lsl #16
     b40:	71000300 	mrsvc	r0, LR_irq
     b44:	01789f7f 	cmneq	r8, pc, ror pc
     b48:	01840000 	orreq	r0, r4, r0
     b4c:	00030000 	andeq	r0, r3, r0
     b50:	849f0171 	ldrhi	r0, [pc], #369	; b58 <__code_start__-0x74a8>
     b54:	93000001 	movwls	r0, #1
     b58:	01000001 	tsteq	r0, r1
     b5c:	01b05000 	movseq	r5, r0
     b60:	01b00000 	movseq	r0, r0
     b64:	00040000 	andeq	r0, r4, r0
     b68:	9f7fa091 	svcls	0x007fa091
     b6c:	000001b0 			; <UNDEFINED> instruction: 0x000001b0
     b70:	000001b8 			; <UNDEFINED> instruction: 0x000001b8
     b74:	a1910004 	orrsge	r0, r1, r4
     b78:	01b89f7f 			; <UNDEFINED> instruction: 0x01b89f7f
     b7c:	01bc0000 			; <UNDEFINED> instruction: 0x01bc0000
     b80:	00010000 	andeq	r0, r1, r0
     b84:	0001bc50 	andeq	fp, r1, r0, asr ip
     b88:	0001c000 	andeq	ip, r1, r0
     b8c:	91000400 	tstls	r0, r0, lsl #8
     b90:	c09f7fa0 	addsgt	r7, pc, r0, lsr #31
     b94:	d4000001 	strle	r0, [r0], #-1
     b98:	01000001 	tsteq	r0, r1
     b9c:	01d45000 	bicseq	r5, r4, r0
     ba0:	01e40000 	mvneq	r0, r0
     ba4:	00030000 	andeq	r0, r3, r0
     ba8:	e49f7f70 	ldr	r7, [pc], #3952	; bb0 <__code_start__-0x7450>
     bac:	24000001 	strcs	r0, [r0], #-1
     bb0:	04000002 	streq	r0, [r0], #-2
     bb4:	7fa09100 	svcvc	0x00a09100
     bb8:	0000009f 	muleq	r0, pc, r0	; <UNPREDICTABLE>
	...
     bc4:	00000101 	andeq	r0, r0, r1, lsl #2
	...
     bd4:	00009000 	andeq	r9, r0, r0
     bd8:	0000dc00 	andeq	sp, r0, r0, lsl #24
     bdc:	5c000100 	stfpls	f0, [r0], {-0}
     be0:	000000dc 	ldrdeq	r0, [r0], -ip
     be4:	000000f4 	strdeq	r0, [r0], -r4
     be8:	f4530001 			; <UNDEFINED> instruction: 0xf4530001
     bec:	4c000000 	stcmi	0, cr0, [r0], {-0}
     bf0:	01000001 	tsteq	r0, r1
     bf4:	014c5c00 	cmpeq	ip, r0, lsl #24
     bf8:	01580000 	cmpeq	r8, r0
     bfc:	00010000 	andeq	r0, r1, r0
     c00:	00015853 	andeq	r5, r1, r3, asr r8
     c04:	00017400 	andeq	r7, r1, r0, lsl #8
     c08:	5c000100 	stfpls	f0, [r0], {-0}
     c0c:	000001b0 			; <UNDEFINED> instruction: 0x000001b0
     c10:	000001c0 	andeq	r0, r0, r0, asr #3
     c14:	c0530001 	subsgt	r0, r3, r1
     c18:	dc000001 	stcle	0, cr0, [r0], {1}
     c1c:	01000001 	tsteq	r0, r1
     c20:	01e45c00 	mvneq	r5, r0, lsl #24
     c24:	01e80000 	mvneq	r0, r0
     c28:	00010000 	andeq	r0, r1, r0
     c2c:	0001e853 	andeq	lr, r1, r3, asr r8
     c30:	0001ff00 	andeq	pc, r1, r0, lsl #30
     c34:	5c000100 	stfpls	f0, [r0], {-0}
     c38:	000001ff 	strdeq	r0, [r0], -pc	; <UNPREDICTABLE>
     c3c:	00000224 	andeq	r0, r0, r4, lsr #4
     c40:	01f30004 	mvnseq	r0, r4
     c44:	00009f53 	andeq	r9, r0, r3, asr pc
     c48:	00000000 	andeq	r0, r0, r0
     c4c:	01010000 	mrseq	r0, (UNDEF: 1)
     c50:	00000001 	andeq	r0, r0, r1
     c54:	00dc0000 	sbcseq	r0, ip, r0
     c58:	00f00000 	rscseq	r0, r0, r0
     c5c:	00020000 	andeq	r0, r2, r0
     c60:	00f09f30 	rscseq	r9, r0, r0, lsr pc
     c64:	00f80000 	rscseq	r0, r8, r0
     c68:	00020000 	andeq	r0, r2, r0
     c6c:	00fc9f31 	rscseq	r9, ip, r1, lsr pc
     c70:	014c0000 	mrseq	r0, (UNDEF: 76)
     c74:	00010000 	andeq	r0, r1, r0
     c78:	00014c56 	andeq	r4, r1, r6, asr ip
     c7c:	00015400 	andeq	r5, r1, r0, lsl #8
     c80:	30000200 	andcc	r0, r0, r0, lsl #4
     c84:	0000009f 	muleq	r0, pc, r0	; <UNPREDICTABLE>
	...
     c90:	00000101 	andeq	r0, r0, r1, lsl #2
     c94:	38000101 	stmdacc	r0, {r0, r8}
     c98:	54000000 	strpl	r0, [r0], #-0
     c9c:	01000000 	mrseq	r0, (UNDEF: 0)
     ca0:	00545000 	subseq	r5, r4, r0
     ca4:	00580000 	subseq	r0, r8, r0
     ca8:	00010000 	andeq	r0, r1, r0
     cac:	00005852 	andeq	r5, r0, r2, asr r8
     cb0:	00006000 	andeq	r6, r0, r0
     cb4:	72000300 	andvc	r0, r0, #0, 6
     cb8:	00609f01 	rsbeq	r9, r0, r1, lsl #30
     cbc:	00640000 	rsbeq	r0, r4, r0
     cc0:	00010000 	andeq	r0, r1, r0
     cc4:	00006452 	andeq	r6, r0, r2, asr r4
     cc8:	00007000 	andeq	r7, r0, r0
     ccc:	72000300 	andvc	r0, r0, #0, 6
     cd0:	00009f01 	andeq	r9, r0, r1, lsl #30
	...
     cdc:	00380000 	eorseq	r0, r8, r0
     ce0:	00500000 	subseq	r0, r0, r0
     ce4:	00010000 	andeq	r0, r1, r0
     ce8:	00005051 	andeq	r5, r0, r1, asr r0
     cec:	00007000 	andeq	r7, r0, r0
     cf0:	f3000400 	vshl.u8	d0, d0, d0
     cf4:	009f5101 	addseq	r5, pc, r1, lsl #2
	...
     d04:	38000101 	stmdacc	r0, {r0, r8}
     d08:	50000000 	andpl	r0, r0, r0
     d0c:	01000000 	mrseq	r0, (UNDEF: 0)
     d10:	00505200 	subseq	r5, r0, r0, lsl #4
     d14:	005c0000 	subseq	r0, ip, r0
     d18:	00010000 	andeq	r0, r1, r0
     d1c:	00005c51 	andeq	r5, r0, r1, asr ip
     d20:	00006000 	andeq	r6, r0, r0
     d24:	71000300 	mrsvc	r0, LR_irq
     d28:	00609f01 	rsbeq	r9, r0, r1, lsl #30
     d2c:	00700000 	rsbseq	r0, r0, r0
     d30:	00010000 	andeq	r0, r1, r0
     d34:	00000051 	andeq	r0, r0, r1, asr r0
	...
     d40:	00003800 	andeq	r3, r0, r0, lsl #16
     d44:	00004c00 	andeq	r4, r0, r0, lsl #24
     d48:	53000100 	movwpl	r0, #256	; 0x100
     d4c:	0000004c 	andeq	r0, r0, ip, asr #32
     d50:	00000068 	andeq	r0, r0, r8, rrx
     d54:	00530001 	subseq	r0, r3, r1
	...
     d64:	40000000 	andmi	r0, r0, r0
     d68:	48000000 	stmdami	r0, {}	; <UNPREDICTABLE>
     d6c:	01000000 	mrseq	r0, (UNDEF: 0)
     d70:	00485c00 	subeq	r5, r8, r0, lsl #24
     d74:	004c0000 	subeq	r0, ip, r0
     d78:	00080000 	andeq	r0, r8, r0
     d7c:	00730072 	rsbseq	r0, r3, r2, ror r0
     d80:	9f01231c 	svcls	0x0001231c
     d84:	0000004c 	andeq	r0, r0, ip, asr #32
     d88:	00000054 	andeq	r0, r0, r4, asr r0
     d8c:	00720009 	rsbseq	r0, r2, r9
     d90:	1c5301f3 	ldfnee	f0, [r3], {243}	; 0xf3
     d94:	549f0123 	ldrpl	r0, [pc], #291	; d9c <__code_start__-0x7264>
     d98:	70000000 	andvc	r0, r0, r0
     d9c:	0a000000 	beq	da4 <__code_start__-0x725c>
     da0:	5201f300 	andpl	pc, r1, #0, 6
     da4:	1c5301f3 	ldfnee	f0, [r3], {243}	; 0xf3
     da8:	009f0123 	addseq	r0, pc, r3, lsr #2
     dac:	00000000 	andeq	r0, r0, r0
     db0:	01000000 	mrseq	r0, (UNDEF: 0)
     db4:	00004c00 	andeq	r4, r0, r0, lsl #24
     db8:	00007000 	andeq	r7, r0, r0
     dbc:	50000100 	andpl	r0, r0, r0, lsl #2
	...
     dc8:	00010100 	andeq	r0, r1, r0, lsl #2
     dcc:	00140000 	andseq	r0, r4, r0
     dd0:	001c0000 	andseq	r0, ip, r0
     dd4:	00010000 	andeq	r0, r1, r0
     dd8:	00001c50 	andeq	r1, r0, r0, asr ip
     ddc:	00002400 	andeq	r2, r0, r0, lsl #8
     de0:	70000300 	andvc	r0, r0, r0, lsl #6
     de4:	00249f01 	eoreq	r9, r4, r1, lsl #30
     de8:	00380000 	eorseq	r0, r8, r0
     dec:	00010000 	andeq	r0, r1, r0
     df0:	00000050 	andeq	r0, r0, r0, asr r0
	...
     dfc:	00001400 	andeq	r1, r0, r0, lsl #8
     e00:	00001800 	andeq	r1, r0, r0, lsl #16
     e04:	51000100 	mrspl	r0, (UNDEF: 16)
     e08:	00000018 	andeq	r0, r0, r8, lsl r0
     e0c:	00000038 	andeq	r0, r0, r8, lsr r0
     e10:	01f30004 	mvnseq	r0, r4
     e14:	00009f51 	andeq	r9, r0, r1, asr pc
	...
     e20:	00000018 	andeq	r0, r0, r8, lsl r0
     e24:	00000038 	andeq	r0, r0, r8, lsr r0
     e28:	00510001 	subseq	r0, r1, r1
	...
     e3c:	00000400 	andeq	r0, r0, r0, lsl #8
     e40:	50000100 	andpl	r0, r0, r0, lsl #2
     e44:	00000004 	andeq	r0, r0, r4
     e48:	0000000c 	andeq	r0, r0, ip
     e4c:	30700003 	rsbscc	r0, r0, r3
     e50:	00000c9f 	muleq	r0, pc, ip	; <UNPREDICTABLE>
     e54:	00001400 	andeq	r1, r0, r0, lsl #8
     e58:	f3000400 	vshl.u8	d0, d0, d0
     e5c:	009f5001 	addseq	r5, pc, r1
	...
     e68:	24000000 	strcs	r0, [r0], #-0
     e6c:	68000002 	stmdavs	r0, {r1}
     e70:	01000002 	tsteq	r0, r2
     e74:	02685000 	rsbeq	r5, r8, #0, 0
     e78:	02880000 	addeq	r0, r8, #0, 0
     e7c:	00040000 	andeq	r0, r4, r0
     e80:	9f5001f3 	svcls	0x005001f3
	...
     e90:	00000224 	andeq	r0, r0, r4, lsr #4
     e94:	00000264 	andeq	r0, r0, r4, ror #4
     e98:	64510001 	ldrbvs	r0, [r1], #-1
     e9c:	88000002 	stmdahi	r0, {r1}
     ea0:	04000002 	streq	r0, [r0], #-2
     ea4:	5101f300 	mrspl	pc, SP_irq	; <UNPREDICTABLE>
     ea8:	0000009f 	muleq	r0, pc, r0	; <UNPREDICTABLE>
     eac:	00000000 	andeq	r0, r0, r0
     eb0:	01010000 	mrseq	r0, (UNDEF: 1)
     eb4:	0c000000 	stceq	0, cr0, [r0], {-0}
     eb8:	14000000 	strne	r0, [r0], #-0
     ebc:	01000000 	mrseq	r0, (UNDEF: 0)
     ec0:	00145300 	andseq	r5, r4, r0, lsl #6
     ec4:	001c0000 	andseq	r0, ip, r0
     ec8:	00030000 	andeq	r0, r3, r0
     ecc:	1c9f0473 	cfldrsne	mvf0, [pc], {115}	; 0x73
     ed0:	23000000 	movwcs	r0, #0
     ed4:	01000000 	mrseq	r0, (UNDEF: 0)
     ed8:	00005300 	andeq	r5, r0, r0, lsl #6
     edc:	00000000 	andeq	r0, r0, r0
     ee0:	00010000 	andeq	r0, r1, r0
     ee4:	00008e98 	muleq	r0, r8, lr
     ee8:	00008eb4 			; <UNDEFINED> instruction: 0x00008eb4
     eec:	1c0c0006 	stcne	0, cr0, [ip], {6}
     ef0:	9f201000 	svcls	0x00201000
	...
     efc:	8e980002 	cdphi	0, 9, cr0, cr8, cr2, {0}
     f00:	8eb40000 	cdphi	0, 11, cr0, cr4, cr0, {0}
     f04:	00060000 	andeq	r0, r6, r0
     f08:	1000240c 	andne	r2, r0, ip, lsl #8
     f0c:	00009f20 	andeq	r9, r0, r0, lsr #30
     f10:	00000000 	andeq	r0, r0, r0
     f14:	00030000 	andeq	r0, r3, r0
     f18:	00008e98 	muleq	r0, r8, lr
     f1c:	00008eb4 			; <UNDEFINED> instruction: 0x00008eb4
     f20:	b4080005 	strlt	r0, [r8], #-5
     f24:	009f2447 	addseq	r2, pc, r7, asr #8
     f28:	00000000 	andeq	r0, r0, r0
     f2c:	04000000 	streq	r0, [r0], #-0
     f30:	008e9800 	addeq	r9, lr, r0, lsl #16
     f34:	008eb400 	addeq	fp, lr, r0, lsl #8
     f38:	08000300 	stmdaeq	r0, {r8, r9}
     f3c:	00009f20 	andeq	r9, r0, r0, lsr #30
     f40:	00000000 	andeq	r0, r0, r0
     f44:	00020000 	andeq	r0, r2, r0
     f48:	00000000 	andeq	r0, r0, r0
     f4c:	00008e64 	andeq	r8, r0, r4, ror #28
     f50:	00008e68 	andeq	r8, r0, r8, ror #28
     f54:	9f300002 	svcls	0x00300002
     f58:	00008e68 	andeq	r8, r0, r8, ror #28
     f5c:	00008e6c 	andeq	r8, r0, ip, ror #28
     f60:	70530001 	subsvc	r0, r3, r1
     f64:	7800008e 	stmdavc	r0, {r1, r2, r3, r7}
     f68:	0100008e 	smlabbeq	r0, lr, r0, r0
     f6c:	00005300 	andeq	r5, r0, r0, lsl #6
     f70:	00000000 	andeq	r0, r0, r0
     f74:	00020000 	andeq	r0, r2, r0
     f78:	8e4c0000 	cdphi	0, 4, cr0, cr12, cr0, {0}
     f7c:	8e500000 	cdphi	0, 5, cr0, cr0, cr0, {0}
     f80:	00020000 	andeq	r0, r2, r0
     f84:	8e509f30 	mrchi	15, 2, r9, cr0, cr0, {1}
     f88:	8e540000 	cdphi	0, 5, cr0, cr4, cr0, {0}
     f8c:	00010000 	andeq	r0, r1, r0
     f90:	00000050 	andeq	r0, r0, r0, asr r0
	...
     f9c:	00006c00 	andeq	r6, r0, r0, lsl #24
     fa0:	00007800 	andeq	r7, r0, r0, lsl #16
     fa4:	50000100 	andpl	r0, r0, r0, lsl #2
     fa8:	00000078 	andeq	r0, r0, r8, ror r0
     fac:	00000084 	andeq	r0, r0, r4, lsl #1
     fb0:	01f30004 	mvnseq	r0, r4
     fb4:	00009f50 	andeq	r9, r0, r0, asr pc
	...
     fc0:	00540000 	subseq	r0, r4, r0
     fc4:	00600000 	rsbeq	r0, r0, r0
     fc8:	00010000 	andeq	r0, r1, r0
     fcc:	00006050 	andeq	r6, r0, r0, asr r0
     fd0:	00006c00 	andeq	r6, r0, r0, lsl #24
     fd4:	f3000400 	vshl.u8	d0, d0, d0
     fd8:	009f5001 	addseq	r5, pc, r1
	...
     fe4:	30000000 	andcc	r0, r0, r0
     fe8:	3b000000 	blcc	ff0 <__code_start__-0x7010>
     fec:	01000000 	mrseq	r0, (UNDEF: 0)
     ff0:	003b5000 	eorseq	r5, fp, r0
     ff4:	00540000 	subseq	r0, r4, r0
     ff8:	00010000 	andeq	r0, r1, r0
     ffc:	00000055 	andeq	r0, r0, r5, asr r0
    1000:	00000000 	andeq	r0, r0, r0
    1004:	40000000 	andmi	r0, r0, r0
    1008:	54000000 	strpl	r0, [r0], #-0
    100c:	01000000 	mrseq	r0, (UNDEF: 0)
    1010:	00005400 	andeq	r5, r0, r0, lsl #8
	...
    101c:	00000044 	andeq	r0, r0, r4, asr #32
    1020:	00000048 	andeq	r0, r0, r8, asr #32
    1024:	00500001 	subseq	r0, r0, r1
	...
    1030:	24000000 	strcs	r0, [r0], #-0
    1034:	27000000 	strcs	r0, [r0, -r0]
    1038:	01000000 	mrseq	r0, (UNDEF: 0)
    103c:	00275000 	eoreq	r5, r7, r0
    1040:	00300000 	eorseq	r0, r0, r0
    1044:	00010000 	andeq	r0, r1, r0
    1048:	00000054 	andeq	r0, r0, r4, asr r0
	...
    1054:	00015800 	andeq	r5, r1, r0, lsl #16
    1058:	00016300 	andeq	r6, r1, r0, lsl #6
    105c:	50000100 	andpl	r0, r0, r0, lsl #2
    1060:	00000163 	andeq	r0, r0, r3, ror #2
    1064:	00000188 	andeq	r0, r0, r8, lsl #3
    1068:	00540001 	subseq	r0, r4, r1
	...
    1074:	00014800 	andeq	r4, r1, r0, lsl #16
    1078:	00015800 	andeq	r5, r1, r0, lsl #16
    107c:	54000100 	strpl	r0, [r0], #-256	; 0xffffff00
	...
    1090:	0000000f 	andeq	r0, r0, pc
    1094:	0f500001 	svceq	0x00500001
    1098:	20000000 	andcs	r0, r0, r0
    109c:	01000000 	mrseq	r0, (UNDEF: 0)
    10a0:	00005400 	andeq	r5, r0, r0, lsl #8
	...
    10b0:	000f0000 	andeq	r0, pc, r0
    10b4:	00010000 	andeq	r0, r1, r0
    10b8:	00000f51 	andeq	r0, r0, r1, asr pc
    10bc:	00002000 	andeq	r2, r0, r0
    10c0:	55000100 	strpl	r0, [r0, #-256]	; 0xffffff00
	...
    10d0:	00000020 	andeq	r0, r0, r0, lsr #32
    10d4:	0000002f 	andeq	r0, r0, pc, lsr #32
    10d8:	2f500001 	svccs	0x00500001
    10dc:	40000000 	andmi	r0, r0, r0
    10e0:	01000000 	mrseq	r0, (UNDEF: 0)
    10e4:	00005400 	andeq	r5, r0, r0, lsl #8
	...
    10f0:	00200000 	eoreq	r0, r0, r0
    10f4:	002f0000 	eoreq	r0, pc, r0
    10f8:	00010000 	andeq	r0, r1, r0
    10fc:	00002f51 	andeq	r2, r0, r1, asr pc
    1100:	00004000 	andeq	r4, r0, r0
    1104:	55000100 	strpl	r0, [r0, #-256]	; 0xffffff00
	...
    1114:	03500000 	cmpeq	r0, #0, 0
    1118:	03980000 	orrseq	r0, r8, #0, 0
    111c:	00010000 	andeq	r0, r1, r0
    1120:	00039850 	andeq	r9, r3, r0, asr r8
    1124:	00039b00 	andeq	r9, r3, r0, lsl #22
    1128:	91000200 	mrsls	r0, R8_usr
    112c:	00039b68 	andeq	r9, r3, r8, ror #22
    1130:	0003b000 	andeq	fp, r3, r0
    1134:	f3000400 	vshl.u8	d0, d0, d0
    1138:	009f5001 	addseq	r5, pc, r1
	...
    1154:	20000000 	andcs	r0, r0, r0
    1158:	7b000002 	blvc	1168 <__code_start__-0x6e98>
    115c:	01000002 	tsteq	r0, r2
    1160:	027b5000 	rsbseq	r5, fp, #0, 0
    1164:	02840000 	addeq	r0, r4, #0, 0
    1168:	00040000 	andeq	r0, r4, r0
    116c:	9f5001f3 	svcls	0x005001f3
    1170:	00000284 	andeq	r0, r0, r4, lsl #5
    1174:	0000029c 	muleq	r0, ip, r2
    1178:	9c500001 	mrrcls	0, 0, r0, r0, cr1	; <UNPREDICTABLE>
    117c:	a4000002 	strge	r0, [r0], #-2
    1180:	04000002 	streq	r0, [r0], #-2
    1184:	5001f300 	andpl	pc, r1, r0, lsl #6
    1188:	0002a49f 	muleq	r2, pc, r4	; <UNPREDICTABLE>
    118c:	0002a700 	andeq	sl, r2, r0, lsl #14
    1190:	50000100 	andpl	r0, r0, r0, lsl #2
    1194:	000002a7 	andeq	r0, r0, r7, lsr #5
    1198:	000002c8 	andeq	r0, r0, r8, asr #5
    119c:	01f30004 	mvnseq	r0, r4
    11a0:	02c89f50 	sbceq	r9, r8, #80, 30	; 0x140
    11a4:	02e00000 	rsceq	r0, r0, #0, 0
    11a8:	00010000 	andeq	r0, r1, r0
    11ac:	0002e050 	andeq	lr, r2, r0, asr r0
    11b0:	0002e800 	andeq	lr, r2, r0, lsl #16
    11b4:	f3000400 	vshl.u8	d0, d0, d0
    11b8:	e89f5001 	ldm	pc, {r0, ip, lr}	; <UNPREDICTABLE>
    11bc:	eb000002 	bl	11cc <__code_start__-0x6e34>
    11c0:	01000002 	tsteq	r0, r2
    11c4:	02eb5000 	rsceq	r5, fp, #0, 0
    11c8:	03380000 	teqeq	r8, #0, 0
    11cc:	00040000 	andeq	r0, r4, r0
    11d0:	9f5001f3 	svcls	0x005001f3
	...
    11f0:	00000220 	andeq	r0, r0, r0, lsr #4
    11f4:	00000244 	andeq	r0, r0, r4, asr #4
    11f8:	44510001 	ldrbmi	r0, [r1], #-1
    11fc:	68000002 	stmdavs	r0, {r1}
    1200:	01000002 	tsteq	r0, r2
    1204:	02685100 	rsbeq	r5, r8, #0
    1208:	027b0000 	rsbseq	r0, fp, #0, 0
    120c:	00030000 	andeq	r0, r3, r0
    1210:	7b9f0171 	blvc	fe7c17dc <__bss_end__+0xfe7b77bc>
    1214:	84000002 	strhi	r0, [r0], #-2
    1218:	17000002 	strne	r0, [r0, -r2]
    121c:	01f33800 	mvnseq	r3, r0, lsl #16
    1220:	5101f351 	tstpl	r1, r1, asr r3	; <UNPREDICTABLE>
    1224:	22244b40 	eorcs	r4, r4, #64, 22	; 0x10000
    1228:	0000080c 	andeq	r0, r0, ip, lsl #16
    122c:	01282d80 	smlawbeq	r8, r0, sp, r2
    1230:	9f131600 	svcls	0x00131600
    1234:	00000284 	andeq	r0, r0, r4, lsl #5
    1238:	00000298 	muleq	r0, r8, r2
    123c:	98510001 	ldmdals	r1, {r0}^
    1240:	a4000002 	strge	r0, [r0], #-2
    1244:	04000002 	streq	r0, [r0], #-2
    1248:	5101f300 	mrspl	pc, SP_irq	; <UNPREDICTABLE>
    124c:	0002a49f 	muleq	r2, pc, r4	; <UNPREDICTABLE>
    1250:	0002a700 	andeq	sl, r2, r0, lsl #14
    1254:	51000100 	mrspl	r0, (UNDEF: 16)
    1258:	000002a7 	andeq	r0, r0, r7, lsr #5
    125c:	000002c8 	andeq	r0, r0, r8, asr #5
    1260:	01f30004 	mvnseq	r0, r4
    1264:	02c89f51 	sbceq	r9, r8, #324	; 0x144
    1268:	02dc0000 	sbcseq	r0, ip, #0, 0
    126c:	00010000 	andeq	r0, r1, r0
    1270:	0002dc51 	andeq	sp, r2, r1, asr ip
    1274:	00033800 	andeq	r3, r3, r0, lsl #16
    1278:	38001700 	stmdacc	r0, {r8, r9, sl, ip}
    127c:	f35101f3 	vbsl	q8, <illegal reg q8.5>, <illegal reg q9.5>
    1280:	4b405101 	blmi	101568c <__bss_end__+0x100b66c>
    1284:	080c2224 	stmdaeq	ip, {r2, r5, r9, sp}
    1288:	2d800000 	stccs	0, cr0, [r0]
    128c:	16000128 	strne	r0, [r0], -r8, lsr #2
    1290:	00009f13 	andeq	r9, r0, r3, lsl pc
	...
    12a4:	024c0000 	subeq	r0, ip, #0, 0
    12a8:	025c0000 	subseq	r0, ip, #0, 0
    12ac:	00010000 	andeq	r0, r1, r0
    12b0:	00025c52 	andeq	r5, r2, r2, asr ip
    12b4:	00026400 	andeq	r6, r2, r0, lsl #8
    12b8:	03000500 	movweq	r0, #1280	; 0x500
    12bc:	00009c08 	andeq	r9, r0, r8, lsl #24
    12c0:	00000264 	andeq	r0, r0, r4, ror #4
    12c4:	0000027b 	andeq	r0, r0, fp, ror r2
    12c8:	c8530001 	ldmdagt	r3, {r0}^
    12cc:	d8000002 	stmdale	r0, {r1}
    12d0:	01000002 	tsteq	r0, r2
    12d4:	02d85200 	sbcseq	r5, r8, #0, 4
    12d8:	02e30000 	rsceq	r0, r3, #0, 0
    12dc:	00050000 	andeq	r0, r5, r0
    12e0:	009c0803 	addseq	r0, ip, r3, lsl #16
    12e4:	0002e800 	andeq	lr, r2, r0, lsl #16
    12e8:	0002eb00 	andeq	lr, r2, r0, lsl #22
    12ec:	53000100 	movwpl	r0, #256	; 0x100
	...
    12f8:	02300004 	eorseq	r0, r0, #4, 0
    12fc:	02340000 	eorseq	r0, r4, #0, 0
    1300:	00010000 	andeq	r0, r1, r0
    1304:	00000051 	andeq	r0, r0, r1, asr r0
    1308:	00000000 	andeq	r0, r0, r0
    130c:	3c000200 	sfmcc	f0, 4, [r0], {-0}
    1310:	44000002 	strmi	r0, [r0], #-2
    1314:	02000002 	andeq	r0, r0, #2, 0
    1318:	009f3800 	addseq	r3, pc, r0, lsl #16
    131c:	00000000 	andeq	r0, r0, r0
    1320:	02000000 	andeq	r0, r0, #0, 0
    1324:	00023c00 	andeq	r3, r2, r0, lsl #24
    1328:	00024400 	andeq	r4, r2, r0, lsl #8
    132c:	51000100 	mrspl	r0, (UNDEF: 16)
	...
    1338:	00000001 	andeq	r0, r0, r1
    133c:	024c0000 	subeq	r0, ip, #0, 0
    1340:	02640000 	rsbeq	r0, r4, #0, 0
    1344:	00010000 	andeq	r0, r1, r0
    1348:	0002c851 	andeq	ip, r2, r1, asr r8
    134c:	0002dc00 	andeq	sp, r2, r0, lsl #24
    1350:	51000100 	mrspl	r0, (UNDEF: 16)
    1354:	000002dc 	ldrdeq	r0, [r0], -ip
    1358:	000002e8 	andeq	r0, r0, r8, ror #5
    135c:	f3380017 	vqadd.u64	d0, d8, d7
    1360:	01f35101 	mvnseq	r5, r1, lsl #2
    1364:	244b4051 	strbcs	r4, [fp], #-81	; 0xffffffaf
    1368:	00080c22 	andeq	r0, r8, r2, lsr #24
    136c:	282d8000 	stmdacs	sp!, {pc}
    1370:	13160001 	tstne	r6, #1, 0
    1374:	0000009f 	muleq	r0, pc, r0	; <UNPREDICTABLE>
    1378:	00000000 	andeq	r0, r0, r0
    137c:	00000100 	andeq	r0, r0, r0, lsl #2
    1380:	00000000 	andeq	r0, r0, r0
    1384:	00024c00 	andeq	r4, r2, r0, lsl #24
    1388:	00025c00 	andeq	r5, r2, r0, lsl #24
    138c:	52000100 	andpl	r0, r0, #0
    1390:	0000025c 	andeq	r0, r0, ip, asr r2
    1394:	00000264 	andeq	r0, r0, r4, ror #4
    1398:	08030005 	stmdaeq	r3, {r0, r2}
    139c:	c800009c 	stmdagt	r0, {r2, r3, r4, r7}
    13a0:	d8000002 	stmdale	r0, {r1}
    13a4:	01000002 	tsteq	r0, r2
    13a8:	02d85200 	sbcseq	r5, r8, #0, 4
    13ac:	02e30000 	rsceq	r0, r3, #0, 0
    13b0:	00050000 	andeq	r0, r5, r0
    13b4:	009c0803 	addseq	r0, ip, r3, lsl #16
	...
    13c0:	4c000400 	cfstrsmi	mvf0, [r0], {-0}
    13c4:	50000002 	andpl	r0, r0, r2
    13c8:	01000002 	tsteq	r0, r2
    13cc:	00005100 	andeq	r5, r0, r0, lsl #2
    13d0:	00000000 	andeq	r0, r0, r0
    13d4:	00030000 	andeq	r0, r3, r0
    13d8:	00000264 	andeq	r0, r0, r4, ror #4
    13dc:	00000268 	andeq	r0, r0, r8, ror #4
    13e0:	00510001 	subseq	r0, r1, r1
    13e4:	00000000 	andeq	r0, r0, r0
    13e8:	03000000 	movweq	r0, #0
    13ec:	00026400 	andeq	r6, r2, r0, lsl #8
    13f0:	00026800 	andeq	r6, r2, r0, lsl #16
    13f4:	53000100 	movwpl	r0, #256	; 0x100
	...
    1408:	000001bc 			; <UNDEFINED> instruction: 0x000001bc
    140c:	000001d3 	ldrdeq	r0, [r0], -r3
    1410:	d3500001 	cmple	r0, #1, 0
    1414:	f0000001 			; <UNDEFINED> instruction: 0xf0000001
    1418:	01000001 	tsteq	r0, r1
    141c:	01f05400 	mvnseq	r5, r0, lsl #8
    1420:	02080000 	andeq	r0, r8, #0, 0
    1424:	00010000 	andeq	r0, r1, r0
    1428:	00020850 	andeq	r0, r2, r0, asr r8
    142c:	00022000 	andeq	r2, r2, r0
    1430:	54000100 	strpl	r0, [r0], #-256	; 0xffffff00
	...
    1440:	000001d8 	ldrdeq	r0, [r0], -r8
    1444:	000001e3 	andeq	r0, r0, r3, ror #3
    1448:	e3500001 	cmp	r0, #1, 0
    144c:	f0000001 			; <UNDEFINED> instruction: 0xf0000001
    1450:	01000001 	tsteq	r0, r1
    1454:	00005500 	andeq	r5, r0, r0, lsl #10
	...
    146c:	01240000 			; <UNDEFINED> instruction: 0x01240000
    1470:	01380000 	teqeq	r8, r0
    1474:	00010000 	andeq	r0, r1, r0
    1478:	00013850 	andeq	r3, r1, r0, asr r8
    147c:	00013c00 	andeq	r3, r1, r0, lsl #24
    1480:	70000300 	andvc	r0, r0, r0, lsl #6
    1484:	013c9f79 	teqeq	ip, r9, ror pc
    1488:	01600000 	cmneq	r0, r0
    148c:	00010000 	andeq	r0, r1, r0
    1490:	00016053 	andeq	r6, r1, r3, asr r0
    1494:	00017800 	andeq	r7, r1, r0, lsl #16
    1498:	50000100 	andpl	r0, r0, r0, lsl #2
    149c:	00000178 	andeq	r0, r0, r8, ror r1
    14a0:	00000180 	andeq	r0, r0, r0, lsl #3
    14a4:	01f30004 	mvnseq	r0, r4
    14a8:	01809f50 	orreq	r9, r0, r0, asr pc
    14ac:	01900000 	orrseq	r0, r0, r0
    14b0:	00010000 	andeq	r0, r1, r0
    14b4:	00019053 	andeq	r9, r1, r3, asr r0
    14b8:	00019f00 	andeq	r9, r1, r0, lsl #30
    14bc:	91000200 	mrsls	r0, R8_usr
    14c0:	00019f68 	andeq	r9, r1, r8, ror #30
    14c4:	0001bc00 	andeq	fp, r1, r0, lsl #24
    14c8:	f3000900 	vmls.i8	d0, d0, d0
    14cc:	07235001 	streq	r5, [r3, -r1]!
    14d0:	9f1af809 	svcls	0x001af809
	...
    14e0:	00000144 	andeq	r0, r0, r4, asr #2
    14e4:	00000160 	andeq	r0, r0, r0, ror #2
    14e8:	80500001 	subshi	r0, r0, r1
    14ec:	9c000001 	stcls	0, cr0, [r0], {1}
    14f0:	01000001 	tsteq	r0, r1
    14f4:	00005000 	andeq	r5, r0, r0
    14f8:	00000000 	andeq	r0, r0, r0
    14fc:	00030000 	andeq	r0, r3, r0
    1500:	00000134 	andeq	r0, r0, r4, lsr r1
    1504:	0000013c 	andeq	r0, r0, ip, lsr r1
    1508:	9f380002 	svcls	0x00380002
	...
    1514:	00000003 	andeq	r0, r0, r3
    1518:	00000134 	andeq	r0, r0, r4, lsr r1
    151c:	00000138 	andeq	r0, r0, r8, lsr r1
    1520:	38500001 	ldmdacc	r0, {r0}^
    1524:	3c000001 	stccc	0, cr0, [r0], {1}
    1528:	03000001 	movweq	r0, #1
    152c:	9f797000 	svcls	0x00797000
	...
    1544:	00300000 	eorseq	r0, r0, r0
    1548:	00600000 	rsbeq	r0, r0, r0
    154c:	00010000 	andeq	r0, r1, r0
    1550:	00006050 	andeq	r6, r0, r0, asr r0
    1554:	00006c00 	andeq	r6, r0, r0, lsl #24
    1558:	03000500 	movweq	r0, #1280	; 0x500
    155c:	00009c08 	andeq	r9, r0, r8, lsl #24
    1560:	0000006c 	andeq	r0, r0, ip, rrx
    1564:	00000084 	andeq	r0, r0, r4, lsl #1
    1568:	84500001 	ldrbhi	r0, [r0], #-1
    156c:	8c000000 	stchi	0, cr0, [r0], {-0}
    1570:	04000000 	streq	r0, [r0], #-0
    1574:	5001f300 	andpl	pc, r1, r0, lsl #6
    1578:	00008c9f 	muleq	r0, pc, ip	; <UNPREDICTABLE>
    157c:	0000ac00 	andeq	sl, r0, r0, lsl #24
    1580:	50000100 	andpl	r0, r0, r0, lsl #2
    1584:	000000ac 	andeq	r0, r0, ip, lsr #1
    1588:	000000af 	andeq	r0, r0, pc, lsr #1
    158c:	68910002 	ldmvs	r1, {r1}
    1590:	000000af 	andeq	r0, r0, pc, lsr #1
    1594:	000000cc 	andeq	r0, r0, ip, asr #1
    1598:	01f30004 	mvnseq	r0, r4
    159c:	00009f50 	andeq	r9, r0, r0, asr pc
	...
    15ac:	00300000 	eorseq	r0, r0, r0
    15b0:	00800000 	addeq	r0, r0, r0
    15b4:	00010000 	andeq	r0, r1, r0
    15b8:	00008051 	andeq	r8, r0, r1, asr r0
    15bc:	00008c00 	andeq	r8, r0, r0, lsl #24
    15c0:	f3000400 	vshl.u8	d0, d0, d0
    15c4:	8c9f5101 	ldfhis	f5, [pc], {1}
    15c8:	a8000000 	stmdage	r0, {}	; <UNPREDICTABLE>
    15cc:	01000000 	mrseq	r0, (UNDEF: 0)
    15d0:	00a85100 	adceq	r5, r8, r0, lsl #2
    15d4:	00cc0000 	sbceq	r0, ip, r0
    15d8:	00040000 	andeq	r0, r4, r0
    15dc:	9f5101f3 	svcls	0x005101f3
	...
    15e8:	00000001 	andeq	r0, r0, r1
	...
    15f4:	00380000 	eorseq	r0, r8, r0
    15f8:	00600000 	rsbeq	r0, r0, r0
    15fc:	00010000 	andeq	r0, r1, r0
    1600:	00006050 	andeq	r6, r0, r0, asr r0
    1604:	00006c00 	andeq	r6, r0, r0, lsl #24
    1608:	03000500 	movweq	r0, #1280	; 0x500
    160c:	00009c08 	andeq	r9, r0, r8, lsl #24
    1610:	0000006c 	andeq	r0, r0, ip, rrx
    1614:	00000084 	andeq	r0, r0, r4, lsl #1
    1618:	84500001 	ldrbhi	r0, [r0], #-1
    161c:	8c000000 	stchi	0, cr0, [r0], {-0}
    1620:	04000000 	streq	r0, [r0], #-0
    1624:	5001f300 	andpl	pc, r1, r0, lsl #6
    1628:	00008c9f 	muleq	r0, pc, ip	; <UNPREDICTABLE>
    162c:	0000ac00 	andeq	sl, r0, r0, lsl #24
    1630:	50000100 	andpl	r0, r0, r0, lsl #2
    1634:	000000ac 	andeq	r0, r0, ip, lsr #1
    1638:	000000af 	andeq	r0, r0, pc, lsr #1
    163c:	68910002 	ldmvs	r1, {r1}
    1640:	000000af 	andeq	r0, r0, pc, lsr #1
    1644:	000000cc 	andeq	r0, r0, ip, asr #1
    1648:	01f30004 	mvnseq	r0, r4
    164c:	00009f50 	andeq	r9, r0, r0, asr pc
	...
    165c:	00040000 	andeq	r0, r4, r0
    1660:	00010000 	andeq	r0, r1, r0
    1664:	00000452 	andeq	r0, r0, r2, asr r4
    1668:	00001800 	andeq	r1, r0, r0, lsl #16
    166c:	f3000400 	vshl.u8	d0, d0, d0
    1670:	009f5201 	addseq	r5, pc, r1, lsl #4
    1674:	00000000 	andeq	r0, r0, r0
    1678:	02000000 	andeq	r0, r0, #0, 0
    167c:	01010000 	mrseq	r0, (UNDEF: 1)
    1680:	00000000 	andeq	r0, r0, r0
    1684:	08000000 	stmdaeq	r0, {}	; <UNPREDICTABLE>
    1688:	01000000 	mrseq	r0, (UNDEF: 0)
    168c:	00085000 	andeq	r5, r8, r0
    1690:	00100000 	andseq	r0, r0, r0
    1694:	00010000 	andeq	r0, r1, r0
    1698:	00001053 	andeq	r1, r0, r3, asr r0
    169c:	00001400 	andeq	r1, r0, r0, lsl #8
    16a0:	73000300 	movwvc	r0, #768	; 0x300
    16a4:	00149f01 	andseq	r9, r4, r1, lsl #30
    16a8:	00180000 	andseq	r0, r8, r0
    16ac:	00010000 	andeq	r0, r1, r0
    16b0:	00000053 	andeq	r0, r0, r3, asr r0
    16b4:	00000000 	andeq	r0, r0, r0
    16b8:	04000000 	streq	r0, [r0], #-0
    16bc:	18000000 	stmdane	r0, {}	; <UNPREDICTABLE>
    16c0:	01000000 	mrseq	r0, (UNDEF: 0)
    16c4:	00005200 	andeq	r5, r0, r0, lsl #4
	...
    16d4:	001c0000 	andseq	r0, ip, r0
    16d8:	00010000 	andeq	r0, r1, r0
    16dc:	00001c51 	andeq	r1, r0, r1, asr ip
    16e0:	00003400 	andeq	r3, r0, r0, lsl #8
    16e4:	f3000400 	vshl.u8	d0, d0, d0
    16e8:	009f5101 	addseq	r5, pc, r1, lsl #2
    16ec:	00000000 	andeq	r0, r0, r0
    16f0:	02000000 	andeq	r0, r0, #0, 0
    16f4:	00000000 	andeq	r0, r0, r0
    16f8:	00000101 	andeq	r0, r0, r1, lsl #2
    16fc:	00000000 	andeq	r0, r0, r0
    1700:	00000400 	andeq	r0, r0, r0, lsl #8
    1704:	50000100 	andpl	r0, r0, r0, lsl #2
    1708:	00000004 	andeq	r0, r0, r4
    170c:	0000001c 	andeq	r0, r0, ip, lsl r0
    1710:	1c520001 	mrrcne	0, 0, r0, r2, cr1
    1714:	24000000 	strcs	r0, [r0], #-0
    1718:	01000000 	mrseq	r0, (UNDEF: 0)
    171c:	00245300 	eoreq	r5, r4, r0, lsl #6
    1720:	00280000 	eoreq	r0, r8, r0
    1724:	00030000 	andeq	r0, r3, r0
    1728:	289f0173 	ldmcs	pc, {r0, r1, r4, r5, r6, r8}	; <UNPREDICTABLE>
    172c:	34000000 	strcc	r0, [r0], #-0
    1730:	01000000 	mrseq	r0, (UNDEF: 0)
    1734:	00005300 	andeq	r5, r0, r0, lsl #6
    1738:	00000000 	andeq	r0, r0, r0
    173c:	00030000 	andeq	r0, r3, r0
    1740:	00000000 	andeq	r0, r0, r0
    1744:	00240000 	eoreq	r0, r4, r0
    1748:	00010000 	andeq	r0, r1, r0
    174c:	00002451 	andeq	r2, r0, r1, asr r4
    1750:	00003400 	andeq	r3, r0, r0, lsl #8
    1754:	71000300 	mrsvc	r0, LR_irq
    1758:	00009f7f 	andeq	r9, r0, pc, ror pc
	...
    1764:	00100000 	andseq	r0, r0, r0
    1768:	001c0000 	andseq	r0, ip, r0
    176c:	00010000 	andeq	r0, r1, r0
    1770:	0000245c 	andeq	r2, r0, ip, asr r4
    1774:	00003400 	andeq	r3, r0, r0, lsl #8
    1778:	52000100 	andpl	r0, r0, #0
	...
    178c:	00000018 	andeq	r0, r0, r8, lsl r0
    1790:	18500001 	ldmdane	r0, {r0}^
    1794:	24000000 	strcs	r0, [r0], #-0
    1798:	01000000 	mrseq	r0, (UNDEF: 0)
    179c:	00005000 	andeq	r5, r0, r0
	...
    17ac:	001c0000 	andseq	r0, ip, r0
    17b0:	00010000 	andeq	r0, r1, r0
    17b4:	00001c51 	andeq	r1, r0, r1, asr ip
    17b8:	00002c00 	andeq	r2, r0, r0, lsl #24
    17bc:	51000100 	mrspl	r0, (UNDEF: 16)
	...
    17d0:	00040000 	andeq	r0, r4, r0
    17d4:	00010000 	andeq	r0, r1, r0
    17d8:	00000451 	andeq	r0, r0, r1, asr r4
    17dc:	00000c00 	andeq	r0, r0, r0, lsl #24
    17e0:	51000100 	mrspl	r0, (UNDEF: 16)
    17e4:	0000000c 	andeq	r0, r0, ip
    17e8:	00000020 	andeq	r0, r0, r0, lsr #32
    17ec:	7f710003 	svcvc	0x00710003
    17f0:	0000009f 	muleq	r0, pc, r0	; <UNPREDICTABLE>
    17f4:	00000000 	andeq	r0, r0, r0
    17f8:	00000200 	andeq	r0, r0, r0, lsl #4
    17fc:	00000000 	andeq	r0, r0, r0
    1800:	04000000 	streq	r0, [r0], #-0
    1804:	01000000 	mrseq	r0, (UNDEF: 0)
    1808:	00045000 	andeq	r5, r4, r0
    180c:	00140000 	andseq	r0, r4, r0
    1810:	00010000 	andeq	r0, r1, r0
    1814:	0000145c 	andeq	r1, r0, ip, asr r4
    1818:	00002000 	andeq	r2, r0, r0
    181c:	7c000300 	stcvc	3, cr0, [r0], {-0}
    1820:	00009f7f 	andeq	r9, r0, pc, ror pc
    1824:	00000000 	andeq	r0, r0, r0
    1828:	03000000 	movweq	r0, #0
    182c:	95880003 	strls	r0, [r8, #3]
    1830:	95880000 	strls	r0, [r8]
    1834:	00010000 	andeq	r0, r1, r0
    1838:	00958850 	addseq	r8, r5, r0, asr r8
    183c:	0095b400 	addseq	fp, r5, r0, lsl #8
    1840:	f3000400 	vshl.u8	d0, d0, d0
    1844:	009f5001 	addseq	r5, pc, r1
	...
    1850:	88000303 	stmdahi	r0, {r0, r1, r8, r9}
    1854:	88000095 	stmdahi	r0, {r0, r2, r4, r7}
    1858:	01000095 	swpeq	r0, r5, [r0]	; <UNPREDICTABLE>
    185c:	95885100 	strls	r5, [r8, #256]	; 0x100
    1860:	95b40000 	ldrls	r0, [r4, #0]!
    1864:	00040000 	andeq	r0, r4, r0
    1868:	9f5101f3 	svcls	0x005101f3
	...
    1874:	00030300 	andeq	r0, r3, r0, lsl #6
    1878:	95880000 	strls	r0, [r8]
    187c:	95880000 	strls	r0, [r8]
    1880:	00010000 	andeq	r0, r1, r0
    1884:	00958852 	addseq	r8, r5, r2, asr r8
    1888:	00959000 	addseq	r9, r5, r0
    188c:	52000100 	andpl	r0, r0, #0
    1890:	00009590 	muleq	r0, r0, r5
    1894:	000095b4 			; <UNDEFINED> instruction: 0x000095b4
    1898:	01720003 	cmneq	r2, r3
    189c:	0000009f 	muleq	r0, pc, r0	; <UNPREDICTABLE>
    18a0:	00000000 	andeq	r0, r0, r0
    18a4:	01010200 	mrseq	r0, R9_usr
    18a8:	00000000 	andeq	r0, r0, r0
    18ac:	00958800 	addseq	r8, r5, r0, lsl #16
    18b0:	00959400 	addseq	r9, r5, r0, lsl #8
    18b4:	50000100 	andpl	r0, r0, r0, lsl #2
    18b8:	00009594 	muleq	r0, r4, r5
    18bc:	00009598 	muleq	r0, r8, r5
    18c0:	01700003 	cmneq	r0, r3
    18c4:	0095989f 	umullseq	r9, r5, pc, r8	; <UNPREDICTABLE>
    18c8:	0095a800 	addseq	sl, r5, r0, lsl #16
    18cc:	50000100 	andpl	r0, r0, r0, lsl #2
    18d0:	000095ac 	andeq	r9, r0, ip, lsr #11
    18d4:	000095b0 			; <UNDEFINED> instruction: 0x000095b0
    18d8:	00500001 	subseq	r0, r0, r1
    18dc:	00000000 	andeq	r0, r0, r0
    18e0:	02000000 	andeq	r0, r0, #0, 0
    18e4:	00000000 	andeq	r0, r0, r0
    18e8:	00958800 	addseq	r8, r5, r0, lsl #16
    18ec:	00959800 	addseq	r9, r5, r0, lsl #16
    18f0:	51000100 	mrspl	r0, (UNDEF: 16)
    18f4:	00009598 	muleq	r0, r8, r5
    18f8:	0000959c 	muleq	r0, ip, r5
    18fc:	01710003 	cmneq	r1, r3
    1900:	00959c9f 	umullseq	r9, r5, pc, ip	; <UNPREDICTABLE>
    1904:	0095b400 	addseq	fp, r5, r0, lsl #8
    1908:	51000100 	mrspl	r0, (UNDEF: 16)
	...
    191c:	000000e8 	andeq	r0, r0, r8, ror #1
    1920:	00000100 	andeq	r0, r0, r0, lsl #2
    1924:	00500001 	subseq	r0, r0, r1
    1928:	10000001 	andne	r0, r0, r1
    192c:	04000001 	streq	r0, [r0], #-1
    1930:	5001f300 	andpl	pc, r1, r0, lsl #6
    1934:	0001109f 	muleq	r1, pc, r0	; <UNPREDICTABLE>
    1938:	00011400 	andeq	r1, r1, r0, lsl #8
    193c:	50000100 	andpl	r0, r0, r0, lsl #2
    1940:	00000114 	andeq	r0, r0, r4, lsl r1
    1944:	0000011c 	andeq	r0, r0, ip, lsl r1
    1948:	01f30004 	mvnseq	r0, r4
    194c:	00009f50 	andeq	r9, r0, r0, asr pc
    1950:	00000000 	andeq	r0, r0, r0
    1954:	00010000 	andeq	r0, r1, r0
    1958:	00000000 	andeq	r0, r0, r0
    195c:	000000f4 	strdeq	r0, [r0], -r4
    1960:	00000100 	andeq	r0, r0, r0, lsl #2
    1964:	0070000b 	rsbseq	r0, r0, fp
    1968:	b4232535 	strtlt	r2, [r3], #-1333	; 0xfffffacb
    196c:	02818080 	addeq	r8, r1, #128, 0	; 0x80
    1970:	0001009f 	muleq	r1, pc, r0	; <UNPREDICTABLE>
    1974:	00010300 	andeq	r0, r1, r0, lsl #6
    1978:	50000100 	andpl	r0, r0, r0, lsl #2
    197c:	00000103 	andeq	r0, r0, r3, lsl #2
    1980:	00000110 	andeq	r0, r0, r0, lsl r1
    1984:	01f3000c 	mvnseq	r0, ip
    1988:	23253550 			; <UNDEFINED> instruction: 0x23253550
    198c:	818080b4 	strhhi	r8, [r0, r4]
    1990:	00009f02 	andeq	r9, r0, r2, lsl #30
	...
    199c:	000000f8 	strdeq	r0, [r0], -r8
    19a0:	00000110 	andeq	r0, r0, r0, lsl r1
    19a4:	00540001 	subseq	r0, r4, r1
	...
    19b4:	cc000000 	stcgt	0, cr0, [r0], {-0}
    19b8:	db000000 	blle	19c0 <__code_start__-0x6640>
    19bc:	01000000 	mrseq	r0, (UNDEF: 0)
    19c0:	00db5000 	sbcseq	r5, fp, r0
    19c4:	00e00000 	rsceq	r0, r0, r0
    19c8:	00040000 	andeq	r0, r4, r0
    19cc:	9f5001f3 	svcls	0x005001f3
    19d0:	000000e0 	andeq	r0, r0, r0, ror #1
    19d4:	000000e3 	andeq	r0, r0, r3, ror #1
    19d8:	e3500001 	cmp	r0, #1, 0
    19dc:	e8000000 	stmda	r0, {}	; <UNPREDICTABLE>
    19e0:	04000000 	streq	r0, [r0], #-0
    19e4:	5001f300 	andpl	pc, r1, r0, lsl #6
    19e8:	0000009f 	muleq	r0, pc, r0	; <UNPREDICTABLE>
	...
    19f8:	0000cc00 	andeq	ip, r0, r0, lsl #24
    19fc:	0000db00 	andeq	sp, r0, r0, lsl #22
    1a00:	51000100 	mrspl	r0, (UNDEF: 16)
    1a04:	000000db 	ldrdeq	r0, [r0], -fp
    1a08:	000000e0 	andeq	r0, r0, r0, ror #1
    1a0c:	01f30004 	mvnseq	r0, r4
    1a10:	00e09f51 	rsceq	r9, r0, r1, asr pc
    1a14:	00e30000 	rsceq	r0, r3, r0
    1a18:	00010000 	andeq	r0, r1, r0
    1a1c:	0000e351 	andeq	lr, r0, r1, asr r3
    1a20:	0000e800 	andeq	lr, r0, r0, lsl #16
    1a24:	f3000400 	vshl.u8	d0, d0, d0
    1a28:	009f5101 	addseq	r5, pc, r1, lsl #2
	...
    1a34:	bc000000 	stclt	0, cr0, [r0], {-0}
    1a38:	c7000000 	strgt	r0, [r0, -r0]
    1a3c:	01000000 	mrseq	r0, (UNDEF: 0)
    1a40:	00c75000 	sbceq	r5, r7, r0
    1a44:	00cc0000 	sbceq	r0, ip, r0
    1a48:	00040000 	andeq	r0, r4, r0
    1a4c:	9f5001f3 	svcls	0x005001f3
	...
    1a5c:	00000098 	muleq	r0, r8, r0
    1a60:	000000b0 	strheq	r0, [r0], -r0	; <UNPREDICTABLE>
    1a64:	b0500001 	subslt	r0, r0, r1
    1a68:	bc000000 	stclt	0, cr0, [r0], {-0}
    1a6c:	04000000 	streq	r0, [r0], #-0
    1a70:	5001f300 	andpl	pc, r1, r0, lsl #6
    1a74:	0000009f 	muleq	r0, pc, r0	; <UNPREDICTABLE>
	...
    1a80:	00007400 	andeq	r7, r0, r0, lsl #8
    1a84:	00008c00 	andeq	r8, r0, r0, lsl #24
    1a88:	50000100 	andpl	r0, r0, r0, lsl #2
    1a8c:	0000008c 	andeq	r0, r0, ip, lsl #1
    1a90:	00000098 	muleq	r0, r8, r0
    1a94:	01f30004 	mvnseq	r0, r4
    1a98:	00009f50 	andeq	r9, r0, r0, asr pc
	...
    1aa4:	00640000 	rsbeq	r0, r4, r0
    1aa8:	006f0000 	rsbeq	r0, pc, r0
    1aac:	00010000 	andeq	r0, r1, r0
    1ab0:	00006f50 	andeq	r6, r0, r0, asr pc
    1ab4:	00007400 	andeq	r7, r0, r0, lsl #8
    1ab8:	f3000400 	vshl.u8	d0, d0, d0
    1abc:	009f5001 	addseq	r5, pc, r1
	...
    1acc:	38000000 	stmdacc	r0, {}	; <UNPREDICTABLE>
    1ad0:	01000000 	mrseq	r0, (UNDEF: 0)
    1ad4:	00385000 	eorseq	r5, r8, r0
    1ad8:	00640000 	rsbeq	r0, r4, r0
    1adc:	00040000 	andeq	r0, r4, r0
    1ae0:	9f5001f3 	svcls	0x005001f3
	...
    1af4:	00000047 	andeq	r0, r0, r7, asr #32
    1af8:	47510001 	ldrbmi	r0, [r1, -r1]
    1afc:	64000000 	strvs	r0, [r0], #-0
    1b00:	04000000 	streq	r0, [r0], #-0
    1b04:	5101f300 	mrspl	pc, SP_irq	; <UNPREDICTABLE>
    1b08:	0000009f 	muleq	r0, pc, r0	; <UNPREDICTABLE>
    1b0c:	00000000 	andeq	r0, r0, r0
    1b10:	34000000 	strcc	r0, [r0], #-0
    1b14:	64000000 	strvs	r0, [r0], #-0
    1b18:	01000000 	mrseq	r0, (UNDEF: 0)
    1b1c:	00005400 	andeq	r5, r0, r0, lsl #8
	...
    1b28:	00000040 	andeq	r0, r0, r0, asr #32
    1b2c:	00000064 	andeq	r0, r0, r4, rrx
    1b30:	00560001 	subseq	r0, r6, r1
	...
    1b3c:	01010000 	mrseq	r0, (UNDEF: 1)
    1b40:	48000000 	stmdami	r0, {}	; <UNPREDICTABLE>
    1b44:	50000000 	andpl	r0, r0, r0
    1b48:	01000000 	mrseq	r0, (UNDEF: 0)
    1b4c:	00505000 	subseq	r5, r0, r0
    1b50:	00500000 	subseq	r0, r0, r0
    1b54:	00010000 	andeq	r0, r1, r0
    1b58:	00005051 	andeq	r5, r0, r1, asr r0
    1b5c:	00005400 	andeq	r5, r0, r0, lsl #8
    1b60:	75000900 	strvc	r0, [r0, #-2304]	; 0xfffff700
    1b64:	24007400 	strcs	r7, [r0], #-1024	; 0xfffffc00
    1b68:	9f210071 	svcls	0x00210071
    1b6c:	00000054 	andeq	r0, r0, r4, asr r0
    1b70:	0000005b 	andeq	r0, r0, fp, asr r0
    1b74:	00510001 	subseq	r0, r1, r1
    1b78:	00000000 	andeq	r0, r0, r0
    1b7c:	Address 0x0000000000001b7c is out of bounds.


Disassembly of section .debug_aranges:

00000000 <.debug_aranges>:
   0:	0000001c 	andeq	r0, r0, ip, lsl r0
   4:	00000002 	andeq	r0, r0, r2
   8:	00040000 	andeq	r0, r4, r0
   c:	00000000 	andeq	r0, r0, r0
  10:	00008038 	andeq	r8, r0, r8, lsr r0
  14:	000005a0 	andeq	r0, r0, r0, lsr #11
	...
  20:	0000001c 	andeq	r0, r0, ip, lsl r0
  24:	0eaa0002 	cdpeq	0, 10, cr0, cr10, cr2, {0}
  28:	00040000 	andeq	r0, r4, r0
  2c:	00000000 	andeq	r0, r0, r0
  30:	000085d8 	ldrdeq	r8, [r0], -r8	; <UNPREDICTABLE>
  34:	00000058 	andeq	r0, r0, r8, asr r0
	...
  40:	0000001c 	andeq	r0, r0, ip, lsl r0
  44:	104b0002 	subne	r0, fp, r2
  48:	00040000 	andeq	r0, r4, r0
  4c:	00000000 	andeq	r0, r0, r0
  50:	00008630 	andeq	r8, r0, r0, lsr r6
  54:	0000003c 	andeq	r0, r0, ip, lsr r0
	...
  60:	0000001c 	andeq	r0, r0, ip, lsl r0
  64:	11980002 	orrsne	r0, r8, r2
  68:	00040000 	andeq	r0, r4, r0
  6c:	00000000 	andeq	r0, r0, r0
  70:	0000866c 	andeq	r8, r0, ip, ror #12
  74:	00000034 	andeq	r0, r0, r4, lsr r0
	...
  80:	0000001c 	andeq	r0, r0, ip, lsl r0
  84:	128f0002 	addne	r0, pc, #2, 0
  88:	00040000 	andeq	r0, r4, r0
  8c:	00000000 	andeq	r0, r0, r0
  90:	000086a0 	andeq	r8, r0, r0, lsr #13
  94:	00000740 	andeq	r0, r0, r0, asr #14
	...
  a0:	0000001c 	andeq	r0, r0, ip, lsl r0
  a4:	1d6a0002 	stclne	0, cr0, [sl, #-8]!
  a8:	00040000 	andeq	r0, r4, r0
  ac:	00000000 	andeq	r0, r0, r0
  b0:	00008de0 	andeq	r8, r0, r0, ror #27
  b4:	0000002c 	andeq	r0, r0, ip, lsr #32
	...
  c0:	0000001c 	andeq	r0, r0, ip, lsl r0
  c4:	1e9d0002 	cdpne	0, 9, cr0, cr13, cr2, {0}
  c8:	00040000 	andeq	r0, r4, r0
  cc:	00000000 	andeq	r0, r0, r0
  d0:	00008e0c 	andeq	r8, r0, ip, lsl #28
  d4:	0000003c 	andeq	r0, r0, ip, lsr r0
	...
  e0:	0000001c 	andeq	r0, r0, ip, lsl r0
  e4:	202a0002 	eorcs	r0, sl, r2
  e8:	00040000 	andeq	r0, r4, r0
  ec:	00000000 	andeq	r0, r0, r0
  f0:	00008e48 	andeq	r8, r0, r8, asr #28
  f4:	00000004 	andeq	r0, r0, r4
	...
 100:	0000001c 	andeq	r0, r0, ip, lsl r0
 104:	20fc0002 	rscscs	r0, ip, r2
 108:	00040000 	andeq	r0, r4, r0
 10c:	00000000 	andeq	r0, r0, r0
 110:	00008e4c 	andeq	r8, r0, ip, asr #28
 114:	00000080 	andeq	r0, r0, r0, lsl #1
	...
 120:	0000001c 	andeq	r0, r0, ip, lsl r0
 124:	23360002 	teqcs	r6, #2, 0
 128:	00040000 	andeq	r0, r4, r0
 12c:	00000000 	andeq	r0, r0, r0
 130:	00008ecc 	andeq	r8, r0, ip, asr #29
 134:	00000084 	andeq	r0, r0, r4, lsl #1
	...
 140:	0000001c 	andeq	r0, r0, ip, lsl r0
 144:	25870002 	strcs	r0, [r7, #2]
 148:	00040000 	andeq	r0, r4, r0
 14c:	00000000 	andeq	r0, r0, r0
 150:	00008f50 	andeq	r8, r0, r0, asr pc
 154:	000001f0 	strdeq	r0, [r0], -r0	; <UNPREDICTABLE>
	...
 160:	0000001c 	andeq	r0, r0, ip, lsl r0
 164:	2b580002 	blcs	1600174 <__bss_end__+0x15f6154>
 168:	00040000 	andeq	r0, r4, r0
 16c:	00000000 	andeq	r0, r0, r0
 170:	00009140 	andeq	r9, r0, r0, asr #2
 174:	000003b0 			; <UNDEFINED> instruction: 0x000003b0
	...
 180:	0000001c 	andeq	r0, r0, ip, lsl r0
 184:	34450002 	strbcc	r0, [r5], #-2
 188:	00040000 	andeq	r0, r4, r0
 18c:	00000000 	andeq	r0, r0, r0
 190:	000094f0 	strdeq	r9, [r0], -r0
 194:	00000018 	andeq	r0, r0, r8, lsl r0
	...
 1a0:	0000001c 	andeq	r0, r0, ip, lsl r0
 1a4:	35830002 	strcc	r0, [r3, #2]
 1a8:	00040000 	andeq	r0, r4, r0
 1ac:	00000000 	andeq	r0, r0, r0
 1b0:	00009508 	andeq	r9, r0, r8, lsl #10
 1b4:	00000034 	andeq	r0, r0, r4, lsr r0
	...
 1c0:	0000001c 	andeq	r0, r0, ip, lsl r0
 1c4:	36be0002 	ldrtcc	r0, [lr], r2
 1c8:	00040000 	andeq	r0, r4, r0
 1cc:	00000000 	andeq	r0, r0, r0
 1d0:	0000953c 	andeq	r9, r0, ip, lsr r5
 1d4:	0000002c 	andeq	r0, r0, ip, lsr #32
	...
 1e0:	0000001c 	andeq	r0, r0, ip, lsl r0
 1e4:	37b90002 	ldrcc	r0, [r9, r2]!
 1e8:	00040000 	andeq	r0, r4, r0
 1ec:	00000000 	andeq	r0, r0, r0
 1f0:	00009568 	andeq	r9, r0, r8, ror #10
 1f4:	00000020 	andeq	r0, r0, r0, lsr #32
	...
 200:	0000001c 	andeq	r0, r0, ip, lsl r0
 204:	38cc0002 	stmiacc	ip, {r1}^
 208:	00040000 	andeq	r0, r4, r0
 20c:	00000000 	andeq	r0, r0, r0
 210:	00009588 	andeq	r9, r0, r8, lsl #11
 214:	0000002c 	andeq	r0, r0, ip, lsr #32
	...
 220:	0000001c 	andeq	r0, r0, ip, lsl r0
 224:	3a1e0002 	bcc	780234 <__bss_end__+0x776214>
 228:	00040000 	andeq	r0, r4, r0
 22c:	00000000 	andeq	r0, r0, r0
 230:	000095b4 			; <UNDEFINED> instruction: 0x000095b4
 234:	00000004 	andeq	r0, r0, r4
	...
 240:	0000001c 	andeq	r0, r0, ip, lsl r0
 244:	3af00002 	bcc	ffc00254 <__bss_end__+0xffbf6234>
 248:	00040000 	andeq	r0, r4, r0
 24c:	00000000 	andeq	r0, r0, r0
 250:	000095d0 	ldrdeq	r9, [r0], -r0
 254:	0000011c 	andeq	r0, r0, ip, lsl r1
	...

Disassembly of section .debug_ranges:

00000000 <.debug_ranges>:
   0:	0000012c 	andeq	r0, r0, ip, lsr #2
   4:	00000134 	andeq	r0, r0, r4, lsr r1
   8:	00000154 	andeq	r0, r0, r4, asr r1
   c:	00000188 	andeq	r0, r0, r8, lsl #3
	...
  18:	00008e4c 	andeq	r8, r0, ip, asr #28
  1c:	00008ecc 	andeq	r8, r0, ip, asr #29
	...
  28:	00000134 	andeq	r0, r0, r4, lsr r1
  2c:	00000134 	andeq	r0, r0, r4, lsr r1
  30:	00000134 	andeq	r0, r0, r4, lsr r1
  34:	0000013c 	andeq	r0, r0, ip, lsr r1
	...
  40:	0000024c 	andeq	r0, r0, ip, asr #4
  44:	00000264 	andeq	r0, r0, r4, ror #4
  48:	000002c8 	andeq	r0, r0, r8, asr #5
  4c:	000002e8 	andeq	r0, r0, r8, ror #5
	...
  58:	00009588 	andeq	r9, r0, r8, lsl #11
  5c:	000095b4 			; <UNDEFINED> instruction: 0x000095b4
	...

Disassembly of section .debug_line:

00000000 <.debug_line>:
       0:	00000628 	andeq	r0, r0, r8, lsr #12
       4:	00fb0003 	rscseq	r0, fp, r3
       8:	01020000 	mrseq	r0, (UNDEF: 2)
       c:	000d0efb 	strdeq	r0, [sp], -fp
      10:	01010101 	tsteq	r1, r1, lsl #2
      14:	01000000 	mrseq	r0, (UNDEF: 0)
      18:	2e010000 	cdpcs	0, 0, cr0, cr1, cr0, {0}
      1c:	6e752f2e 	cdpvs	15, 7, cr2, cr5, cr14, {1}
      20:	732d7869 			; <UNDEFINED> instruction: 0x732d7869
      24:	00656469 	rsbeq	r6, r5, r9, ror #8
      28:	74706f2f 	ldrbtvc	r6, [r0], #-3887	; 0xfffff0d1
      2c:	6d6f682f 	stclvs	8, cr6, [pc, #-188]!	; ffffff78 <__bss_end__+0xffff5f58>
      30:	65726265 	ldrbvs	r6, [r2, #-613]!	; 0xfffffd9b
      34:	65432f77 	strbvs	r2, [r3, #-3959]	; 0xfffff089
      38:	72616c6c 	rsbvc	r6, r1, #108, 24	; 0x6c00
      3c:	6d72612f 	ldfvse	f6, [r2, #-188]!	; 0xffffff44
      40:	6e6f6e2d 	cdpvs	14, 6, cr6, cr15, cr13, {1}
      44:	61652d65 	cmnvs	r5, r5, ror #26
      48:	742d6962 	strtvc	r6, [sp], #-2402	; 0xfffff69e
      4c:	2f747365 	svccs	0x00747365
      50:	30322d39 	eorscc	r2, r2, r9, lsr sp
      54:	34713931 	ldrbtcc	r3, [r1], #-2353	; 0xfffff6cf
      58:	3173632d 	cmncc	r3, sp, lsr #6
      5c:	2f653730 	svccs	0x00653730
      60:	2f62696c 	svccs	0x0062696c
      64:	2f636367 	svccs	0x00636367
      68:	2d6d7261 	sfmcs	f7, 2, [sp, #-388]!	; 0xfffffe7c
      6c:	656e6f6e 	strbvs	r6, [lr, #-3950]!	; 0xfffff092
      70:	6261652d 	rsbvs	r6, r1, #188743680	; 0xb400000
      74:	2e392f69 	cdpcs	15, 3, cr2, cr9, cr9, {3}
      78:	2f312e32 	svccs	0x00312e32
      7c:	6c636e69 	stclvs	14, cr6, [r3], #-420	; 0xfffffe5c
      80:	00656475 	rsbeq	r6, r5, r5, ror r4
      84:	6573552f 	ldrbvs	r5, [r3, #-1327]!	; 0xfffffad1
      88:	6d2f7372 	stcvs	3, cr7, [pc, #-456]!	; fffffec8 <__bss_end__+0xffff5ea8>
      8c:	73656c69 	cmnvc	r5, #26880	; 0x6900
      90:	756f532f 	strbvc	r5, [pc, #-815]!	; fffffd69 <__bss_end__+0xffff5d49>
      94:	2f656372 	svccs	0x00656372
      98:	34327363 	ldrtcc	r7, [r2], #-867	; 0xfffffc9d
      9c:	2f786c30 	svccs	0x00786c30
      a0:	7062696c 	rsbvc	r6, r2, ip, ror #18
      a4:	6e692f69 	cdpvs	15, 6, cr2, cr9, cr9, {3}
      a8:	64756c63 	ldrbtvs	r6, [r5], #-3171	; 0xfffff39d
      ac:	69000065 	stmdbvs	r0, {r0, r2, r5, r6}
      b0:	632d746e 			; <UNDEFINED> instruction: 0x632d746e
      b4:	69706d6f 	ldmdbvs	r0!, {r0, r1, r2, r3, r5, r6, r8, sl, fp, sp, lr}^
      b8:	632e656c 			; <UNDEFINED> instruction: 0x632e656c
      bc:	00000000 	andeq	r0, r0, r0
      c0:	766d7261 	strbtvc	r7, [sp], -r1, ror #4
      c4:	6e692d36 	mcrvs	13, 3, r2, cr9, cr6, {1}
      c8:	2e737473 	mrccs	4, 3, r7, cr3, cr3, {3}
      cc:	00010068 	andeq	r0, r1, r8, rrx
      d0:	64747300 	ldrbtvs	r7, [r4], #-768	; 0xfffffd00
      d4:	2d746e69 	ldclcs	14, cr6, [r4, #-420]!	; 0xfffffe5c
      d8:	2e636367 	cdpcs	3, 6, cr6, cr3, cr7, {3}
      dc:	00020068 	andeq	r0, r2, r8, rrx
      e0:	69707200 	ldmdbvs	r0!, {r9, ip, sp, lr}^
      e4:	0300682e 	movweq	r6, #2094	; 0x82e
      e8:	74730000 	ldrbtvc	r0, [r3], #-0
      ec:	67726164 	ldrbvs	r6, [r2, -r4, ror #2]!
      f0:	0200682e 	andeq	r6, r0, #3014656	; 0x2e0000
      f4:	623c0000 	eorsvs	r0, ip, #0, 0
      f8:	746c6975 	strbtvc	r6, [ip], #-2421	; 0xfffff68b
      fc:	3e6e692d 	vmulcc.f16	s13, s28, s27	; <UNPREDICTABLE>
     100:	00000000 	andeq	r0, r0, r0
     104:	000e0500 	andeq	r0, lr, r0, lsl #10
     108:	80380205 	eorshi	r0, r8, r5, lsl #4
     10c:	0d030000 	stceq	0, cr0, [r3, #-0]
     110:	01100501 	tsteq	r0, r1, lsl #10
     114:	01061305 	tsteq	r6, r5, lsl #6
     118:	05820105 	streq	r0, [r2, #261]	; 0x105
     11c:	054b060e 	strbeq	r0, [fp, #-1550]	; 0xfffff9f2
     120:	13050110 	movwne	r0, #20752	; 0x5110
     124:	01050106 	tsteq	r5, r6, lsl #2
     128:	060e0582 	streq	r0, [lr], -r2, lsl #11
     12c:	0110054b 	tsteq	r0, fp, asr #10
     130:	01061305 	tsteq	r6, r5, lsl #6
     134:	05820105 	streq	r0, [r2, #261]	; 0x105
     138:	054b060e 	strbeq	r0, [fp, #-1550]	; 0xfffff9f2
     13c:	13050110 	movwne	r0, #20752	; 0x5110
     140:	01050106 	tsteq	r5, r6, lsl #2
     144:	060e0582 	streq	r0, [lr], -r2, lsl #11
     148:	0110054b 	tsteq	r0, fp, asr #10
     14c:	01061305 	tsteq	r6, r5, lsl #6
     150:	05820105 	streq	r0, [r2, #261]	; 0x105
     154:	054b060e 	strbeq	r0, [fp, #-1550]	; 0xfffff9f2
     158:	13050110 	movwne	r0, #20752	; 0x5110
     15c:	01050106 	tsteq	r5, r6, lsl #2
     160:	060e0582 	streq	r0, [lr], -r2, lsl #11
     164:	0110054b 	tsteq	r0, fp, asr #10
     168:	01061305 	tsteq	r6, r5, lsl #6
     16c:	05820105 	streq	r0, [r2, #261]	; 0x105
     170:	054b060e 	strbeq	r0, [fp, #-1550]	; 0xfffff9f2
     174:	13050110 	movwne	r0, #20752	; 0x5110
     178:	01050106 	tsteq	r5, r6, lsl #2
     17c:	06340582 	ldrteq	r0, [r4], -r2, lsl #11
     180:	0501064c 	streq	r0, [r1, #-1612]	; 0xfffff9b4
     184:	064b0605 	strbeq	r0, [fp], -r5, lsl #12
     188:	052e2e2e 	streq	r2, [lr, #-3630]!	; 0xfffff1d2
     18c:	31052f01 	tstcc	r5, r1, lsl #30
     190:	01064c06 	tsteq	r6, r6, lsl #24
     194:	67060505 	strvs	r0, [r6, -r5, lsl #10]
     198:	05010905 	streq	r0, [r1, #-2309]	; 0xfffff6fb
     19c:	05010612 	streq	r0, [r1, #-1554]	; 0xfffff9ee
     1a0:	04020019 	streq	r0, [r2], #-25	; 0xffffffe7
     1a4:	052e0601 	streq	r0, [lr, #-1537]!	; 0xfffff9ff
     1a8:	04020005 	streq	r0, [r2], #-5
     1ac:	05010601 	streq	r0, [r1, #-1537]	; 0xfffff9ff
     1b0:	04020009 	streq	r0, [r2], #-9
     1b4:	054b0603 	strbeq	r0, [fp, #-1539]	; 0xfffff9fd
     1b8:	0402000d 	streq	r0, [r2], #-13
     1bc:	05010603 	streq	r0, [r1, #-1539]	; 0xfffff9fd
     1c0:	04020009 	streq	r0, [r2], #-9
     1c4:	20052e03 	andcs	r2, r5, r3, lsl #28
     1c8:	03040200 	movweq	r0, #16896	; 0x4200
     1cc:	21052d06 	tstcs	r5, r6, lsl #26
     1d0:	03040200 	movweq	r0, #16896	; 0x4200
     1d4:	02000106 	andeq	r0, r0, #-2147483647	; 0x80000001
     1d8:	052e0304 	streq	r0, [lr, #-772]!	; 0xfffffcfc
     1dc:	0632062d 	ldrteq	r0, [r2], -sp, lsr #12
     1e0:	06050501 	streq	r0, [r5], -r1, lsl #10
     1e4:	06160583 	ldreq	r0, [r6], -r3, lsl #11
     1e8:	05052e01 	streq	r2, [r5, #-3585]	; 0xfffff1ff
     1ec:	2e013006 	cdpcs	0, 0, cr3, cr1, cr6, {0}
     1f0:	02041301 	andeq	r1, r4, #67108864	; 0x4000000
     1f4:	0100db03 	tsteq	r0, r3, lsl #22
     1f8:	0d050104 	stfeqs	f0, [r5, #-16]
     1fc:	7fa50306 	svcvc	0x00a50306
     200:	06050501 	streq	r0, [r5], -r1, lsl #10
     204:	0109054b 	tsteq	r9, fp, asr #10
     208:	01060d05 	tsteq	r6, r5, lsl #26
     20c:	2e2e0505 	cfsh64cs	mvdx0, mvdx14, #5
     210:	01040200 	mrseq	r0, R12_usr
     214:	02001006 	andeq	r1, r0, #6, 0
     218:	00010104 	andeq	r0, r1, r4, lsl #2
     21c:	06010402 	streq	r0, [r1], -r2, lsl #8
     220:	040200ba 	streq	r0, [r2], #-186	; 0xffffff46
     224:	052e0601 	streq	r0, [lr, #-1537]!	; 0xfffff9ff
     228:	04020009 	streq	r0, [r2], #-9
     22c:	2c053103 	stfcss	f3, [r5], {3}
     230:	03040200 	movweq	r0, #16896	; 0x4200
     234:	27050106 	strcs	r0, [r5, -r6, lsl #2]
     238:	03040200 	movweq	r0, #16896	; 0x4200
     23c:	0042052e 	subeq	r0, r2, lr, lsr #10
     240:	2e030402 	cdpcs	4, 0, cr0, cr3, cr2, {0}
     244:	18050204 	stmdane	r5, {r2, r9}
     248:	03040200 	movweq	r0, #16896	; 0x4200
     24c:	00ce0306 	sbceq	r0, lr, r6, lsl #6
     250:	0005052e 	andeq	r0, r5, lr, lsr #10
     254:	13030402 	movwne	r0, #13314	; 0x3402
     258:	02001905 	andeq	r1, r0, #81920	; 0x14000
     25c:	01060304 	tsteq	r6, r4, lsl #6
     260:	03040200 	movweq	r0, #16896	; 0x4200
     264:	0027052e 	eoreq	r0, r7, lr, lsr #10
     268:	2e030402 	cdpcs	4, 0, cr0, cr3, cr2, {0}
     26c:	02000505 	andeq	r0, r0, #20971520	; 0x1400000
     270:	2f060304 	svccs	0x00060304
     274:	02002205 	andeq	r2, r0, #1342177280	; 0x50000000
     278:	01060304 	tsteq	r6, r4, lsl #6
     27c:	02001705 	andeq	r1, r0, #1310720	; 0x140000
     280:	002e0304 	eoreq	r0, lr, r4, lsl #6
     284:	2e030402 	cdpcs	4, 0, cr0, cr3, cr2, {0}
     288:	13050104 	movwne	r0, #20740	; 0x5104
     28c:	03040200 	movweq	r0, #16896	; 0x4200
     290:	017fb003 	cmneq	pc, r3
     294:	02001f05 	andeq	r1, r0, #5, 30
     298:	2d060304 	stccs	3, cr0, [r6, #-16]
     29c:	02002005 	andeq	r2, r0, #5, 0
     2a0:	01060304 	tsteq	r6, r4, lsl #6
     2a4:	02001405 	andeq	r1, r0, #83886080	; 0x5000000
     2a8:	2e060104 	adfcss	f0, f6, f4
     2ac:	02001a05 	andeq	r1, r0, #20480	; 0x5000
     2b0:	01060104 	tsteq	r6, r4, lsl #2
     2b4:	02000505 	andeq	r0, r0, #20971520	; 0x1400000
     2b8:	062e0104 	strteq	r0, [lr], -r4, lsl #2
     2bc:	0302044d 	movweq	r0, #9293	; 0x244d
     2c0:	040100db 	streq	r0, [r1], #-219	; 0xffffff25
     2c4:	060d0501 	streq	r0, [sp], -r1, lsl #10
     2c8:	017fa503 	cmneq	pc, r3, lsl #10
     2cc:	4b060505 	blmi	1816e8 <__bss_end__+0x1776c8>
     2d0:	01062705 	tsteq	r6, r5, lsl #14
     2d4:	052e2205 	streq	r2, [lr, #-517]!	; 0xfffffdfb
     2d8:	042e2e3f 	strteq	r2, [lr], #-3647	; 0xfffff1c1
     2dc:	06180502 	ldreq	r0, [r8], -r2, lsl #10
     2e0:	2e00d003 	cdpcs	0, 0, cr13, cr0, cr3, {0}
     2e4:	05130505 	ldreq	r0, [r3, #-1285]	; 0xfffffafb
     2e8:	2e010619 	mcrcs	6, 0, r0, cr1, cr9, {0}
     2ec:	052e2705 	streq	r2, [lr, #-1797]!	; 0xfffff8fb
     2f0:	052f0605 	streq	r0, [pc, #-1541]!	; fffffcf3 <__bss_end__+0xffff5cd3>
     2f4:	05010622 	streq	r0, [r1, #-1570]	; 0xfffff9de
     2f8:	042e2e17 	strteq	r2, [lr], #-3607	; 0xfffff1e9
     2fc:	030f0501 	movweq	r0, #62721	; 0xf501
     300:	05017fae 	streq	r7, [r1, #-4014]	; 0xfffff052
     304:	05300605 	ldreq	r0, [r0, #-1541]!	; 0xfffff9fb
     308:	4a130601 	bmi	4c1b14 <__bss_end__+0x4b7af4>
     30c:	00062605 	andeq	r2, r6, r5, lsl #12
     310:	82100205 	andshi	r0, r0, #1342177280	; 0x50000000
     314:	06140000 	ldreq	r0, [r4], -r0
     318:	06050501 	streq	r0, [r5], -r1, lsl #10
     31c:	0616059f 			; <UNDEFINED> instruction: 0x0616059f
     320:	05052e01 	streq	r2, [r5, #-3585]	; 0xfffff1ff
     324:	00012f06 	andeq	r2, r1, r6, lsl #30
     328:	66020402 	strvs	r0, [r2], -r2, lsl #8
     32c:	02040200 	andeq	r0, r4, #0, 4
     330:	04020001 	streq	r0, [r2], #-1
     334:	02001402 	andeq	r1, r0, #33554432	; 0x2000000
     338:	00130204 	andseq	r0, r3, r4, lsl #4
     33c:	4b020402 	blmi	8134c <__bss_end__+0x7732c>
     340:	02000a05 	andeq	r0, r0, #20480	; 0x5000
     344:	05010204 	streq	r0, [r1, #-516]	; 0xfffffdfc
     348:	0402000e 	streq	r0, [r2], #-14
     34c:	05010602 	streq	r0, [r1, #-1538]	; 0xfffff9fe
     350:	04020015 	streq	r0, [r2], #-21	; 0xffffffeb
     354:	052e0601 	streq	r0, [lr, #-1537]!	; 0xfffff9ff
     358:	04020005 	streq	r0, [r2], #-5
     35c:	05010601 	streq	r0, [r1, #-1537]	; 0xfffff9ff
     360:	054b0609 	strbeq	r0, [fp, #-1545]	; 0xfffff9f7
     364:	05010612 	streq	r0, [r1, #-1554]	; 0xfffff9ee
     368:	83830609 	orrhi	r0, r3, #9437184	; 0x900000
     36c:	18050204 	stmdane	r5, {r2, r9}
     370:	05013303 	streq	r3, [r1, #-771]	; 0xfffffcfd
     374:	33051305 	movwcc	r1, #21253	; 0x5305
     378:	044a0106 	strbeq	r0, [sl], #-262	; 0xfffffefa
     37c:	03110501 	tsteq	r1, #4194304	; 0x400000
     380:	0905014c 	stmdbeq	r5, {r2, r3, r6, r8}
     384:	0d052f06 	stceq	15, cr2, [r5, #-24]	; 0xffffffe8
     388:	20050106 	andcs	r0, r5, r6, lsl #2
     38c:	061c052e 	ldreq	r0, [ip], -lr, lsr #10
     390:	061d052a 	ldreq	r0, [sp], -sl, lsr #10
     394:	052e2e01 	streq	r2, [lr, #-3585]!	; 0xfffff1ff
     398:	04020005 	streq	r0, [r2], #-5
     39c:	000e0601 	andeq	r0, lr, r1, lsl #12
     3a0:	01010402 	tsteq	r1, r2, lsl #8
     3a4:	01040200 	mrseq	r0, R12_usr
     3a8:	0200ba06 	andeq	fp, r0, #24576	; 0x6000
     3ac:	2e060104 	adfcss	f0, f6, f4
     3b0:	052e0b03 	streq	r0, [lr, #-2819]!	; 0xfffff4fd
     3b4:	04010620 	streq	r0, [r1], #-1568	; 0xfffff9e0
     3b8:	06180502 	ldreq	r0, [r8], -r2, lsl #10
     3bc:	052e3e03 	streq	r3, [lr, #-3587]!	; 0xfffff1fd
     3c0:	19051305 	stmdbne	r5, {r0, r2, r8, r9, ip}
     3c4:	052e0106 	streq	r0, [lr, #-262]!	; 0xfffffefa
     3c8:	05052e27 	streq	r2, [r5, #-3623]	; 0xfffff1d9
     3cc:	22052f06 	andcs	r2, r5, #6, 30
     3d0:	17050106 	strne	r0, [r5, -r6, lsl #2]
     3d4:	01042e2e 	tsteq	r4, lr, lsr #28
     3d8:	40030d05 	andmi	r0, r3, r5, lsl #26
     3dc:	06050501 	streq	r0, [r5], -r1, lsl #10
     3e0:	06010530 			; <UNDEFINED> instruction: 0x06010530
     3e4:	052e6613 	streq	r6, [lr, #-1555]!	; 0xfffff9ed
     3e8:	05d90621 	ldrbeq	r0, [r9, #1569]	; 0x621
     3ec:	2f2f2f05 	svccs	0x002f2f05
     3f0:	2f2f2f2f 	svccs	0x002f2f2f
     3f4:	0601052f 	streq	r0, [r1], -pc, lsr #10
     3f8:	0614052f 	ldreq	r0, [r4], -pc, lsr #10
     3fc:	4b050530 	blmi	1418c4 <__bss_end__+0x1378a4>
     400:	01060c05 	tsteq	r6, r5, lsl #24
     404:	03060505 	movweq	r0, #25861	; 0x6505
     408:	0101ba0b 	tsteq	r1, fp, lsl #20
     40c:	051a144a 	ldreq	r1, [sl, #-1098]	; 0xfffffbb6
     410:	05010609 	streq	r0, [r1, #-1545]	; 0xfffff9f7
     414:	01670605 	cmneq	r7, r5, lsl #12
     418:	2e010101 	adfcss	f0, f1, f1
     41c:	01060106 	tsteq	r6, r6, lsl #2
     420:	66666666 	strbtvs	r6, [r6], -r6, ror #12
     424:	66666666 	strbtvs	r6, [r6], -r6, ror #12
     428:	01016666 	tsteq	r1, r6, ror #12
     42c:	0601062e 	streq	r0, [r1], -lr, lsr #12
     430:	06010601 	streq	r0, [r1], -r1, lsl #12
     434:	664a0601 	strbvs	r0, [sl], -r1, lsl #12
     438:	01130106 	tsteq	r3, r6, lsl #2
     43c:	01040200 	mrseq	r0, R12_usr
     440:	04020066 	streq	r0, [r2], #-102	; 0xffffff9a
     444:	02002e01 	andeq	r2, r0, #1, 28
     448:	58080104 	stmdapl	r8, {r2, r8}
     44c:	02040200 	andeq	r0, r4, #0, 4
     450:	0402002e 	streq	r0, [r2], #-46	; 0xffffffd2
     454:	01130302 	tsteq	r3, r2, lsl #6
     458:	02000905 	andeq	r0, r0, #81920	; 0x14000
     45c:	01060204 	tsteq	r6, r4, lsl #4
     460:	02000505 	andeq	r0, r0, #20971520	; 0x1400000
     464:	67060204 	strvs	r0, [r6, -r4, lsl #4]
     468:	02040200 	andeq	r0, r4, #0, 4
     46c:	04020001 	streq	r0, [r2], #-1
     470:	02000102 	andeq	r0, r0, #-2147483648	; 0x80000000
     474:	00010204 	andeq	r0, r1, r4, lsl #4
     478:	01020402 	tsteq	r2, r2, lsl #8
     47c:	02040200 	andeq	r0, r4, #0, 4
     480:	0402002e 	streq	r0, [r2], #-46	; 0xffffffd2
     484:	00010602 	andeq	r0, r1, r2, lsl #12
     488:	06020402 	streq	r0, [r2], -r2, lsl #8
     48c:	04020001 	streq	r0, [r2], #-1
     490:	02002e02 	andeq	r2, r0, #2, 28
     494:	002e0204 	eoreq	r0, lr, r4, lsl #4
     498:	2e020402 	cdpcs	4, 0, cr0, cr2, cr2, {0}
     49c:	02040200 	andeq	r0, r4, #0, 4
     4a0:	0402002e 	streq	r0, [r2], #-46	; 0xffffffd2
     4a4:	02002e02 	andeq	r2, r0, #2, 28
     4a8:	002e0204 	eoreq	r0, lr, r4, lsl #4
     4ac:	2e020402 	cdpcs	4, 0, cr0, cr2, cr2, {0}
     4b0:	02040200 	andeq	r0, r4, #0, 4
     4b4:	0402002e 	streq	r0, [r2], #-46	; 0xffffffd2
     4b8:	02002e02 	andeq	r2, r0, #2, 28
     4bc:	002e0204 	eoreq	r0, lr, r4, lsl #4
     4c0:	01020402 	tsteq	r2, r2, lsl #8
     4c4:	02040200 	andeq	r0, r4, #0, 4
     4c8:	04020001 	streq	r0, [r2], #-1
     4cc:	02002e02 	andeq	r2, r0, #2, 28
     4d0:	01060204 	tsteq	r6, r4, lsl #4
     4d4:	02040200 	andeq	r0, r4, #0, 4
     4d8:	02000106 	andeq	r0, r0, #-2147483647	; 0x80000001
     4dc:	01060204 	tsteq	r6, r4, lsl #4
     4e0:	02040200 	andeq	r0, r4, #0, 4
     4e4:	02000106 	andeq	r0, r0, #-2147483647	; 0x80000001
     4e8:	4a060204 	bmi	180d00 <__bss_end__+0x176ce0>
     4ec:	02040200 	andeq	r0, r4, #0, 4
     4f0:	04020066 	streq	r0, [r2], #-102	; 0xffffff9a
     4f4:	00010602 	andeq	r0, r1, r2, lsl #12
     4f8:	13020402 	movwne	r0, #9218	; 0x2402
     4fc:	02040200 	andeq	r0, r4, #0, 4
     500:	04020001 	streq	r0, [r2], #-1
     504:	02006601 	andeq	r6, r0, #1048576	; 0x100000
     508:	002e0104 	eoreq	r0, lr, r4, lsl #2
     50c:	08010402 	stmdaeq	r1, {r1, sl}
     510:	04020058 	streq	r0, [r2], #-88	; 0xffffffa8
     514:	02002e02 	andeq	r2, r0, #2, 28
     518:	05140204 	ldreq	r0, [r4, #-516]	; 0xfffffdfc
     51c:	04020009 	streq	r0, [r2], #-9
     520:	00010602 	andeq	r0, r1, r2, lsl #12
     524:	2e020402 	cdpcs	4, 0, cr0, cr2, cr2, {0}
     528:	02000505 	andeq	r0, r0, #20971520	; 0x1400000
     52c:	4b060204 	blmi	180d44 <__bss_end__+0x176d24>
     530:	02001205 	andeq	r1, r0, #1342177280	; 0x50000000
     534:	01060204 	tsteq	r6, r4, lsl #4
     538:	02000505 	andeq	r0, r0, #20971520	; 0x1400000
     53c:	83060204 	movwhi	r0, #25092	; 0x6204
     540:	02040200 	andeq	r0, r4, #0, 4
     544:	04020014 	streq	r0, [r2], #-20	; 0xffffffec
     548:	02000102 	andeq	r0, r0, #-2147483648	; 0x80000000
     54c:	00010204 	andeq	r0, r1, r4, lsl #4
     550:	01020402 	tsteq	r2, r2, lsl #8
     554:	02040200 	andeq	r0, r4, #0, 4
     558:	04020001 	streq	r0, [r2], #-1
     55c:	02002e02 	andeq	r2, r0, #2, 28
     560:	01060204 	tsteq	r6, r4, lsl #4
     564:	02040200 	andeq	r0, r4, #0, 4
     568:	02000106 	andeq	r0, r0, #-2147483647	; 0x80000001
     56c:	002e0204 	eoreq	r0, lr, r4, lsl #4
     570:	2e020402 	cdpcs	4, 0, cr0, cr2, cr2, {0}
     574:	02040200 	andeq	r0, r4, #0, 4
     578:	0402002e 	streq	r0, [r2], #-46	; 0xffffffd2
     57c:	02002e02 	andeq	r2, r0, #2, 28
     580:	002e0204 	eoreq	r0, lr, r4, lsl #4
     584:	2e020402 	cdpcs	4, 0, cr0, cr2, cr2, {0}
     588:	02040200 	andeq	r0, r4, #0, 4
     58c:	0402002e 	streq	r0, [r2], #-46	; 0xffffffd2
     590:	02002e02 	andeq	r2, r0, #2, 28
     594:	002e0204 	eoreq	r0, lr, r4, lsl #4
     598:	2e020402 	cdpcs	4, 0, cr0, cr2, cr2, {0}
     59c:	02040200 	andeq	r0, r4, #0, 4
     5a0:	04020001 	streq	r0, [r2], #-1
     5a4:	02000102 	andeq	r0, r0, #-2147483648	; 0x80000000
     5a8:	002e0204 	eoreq	r0, lr, r4, lsl #4
     5ac:	06020402 	streq	r0, [r2], -r2, lsl #8
     5b0:	04020001 	streq	r0, [r2], #-1
     5b4:	00010602 	andeq	r0, r1, r2, lsl #12
     5b8:	06020402 	streq	r0, [r2], -r2, lsl #8
     5bc:	04020001 	streq	r0, [r2], #-1
     5c0:	00010602 	andeq	r0, r1, r2, lsl #12
     5c4:	06020402 	streq	r0, [r2], -r2, lsl #8
     5c8:	0402004a 	streq	r0, [r2], #-74	; 0xffffffb6
     5cc:	02006602 	andeq	r6, r0, #2097152	; 0x200000
     5d0:	01060204 	tsteq	r6, r4, lsl #4
     5d4:	02040200 	andeq	r0, r4, #0, 4
     5d8:	04020013 	streq	r0, [r2], #-19	; 0xffffffed
     5dc:	02000102 	andeq	r0, r0, #-2147483648	; 0x80000000
     5e0:	00660104 	rsbeq	r0, r6, r4, lsl #2
     5e4:	2e010402 	cdpcs	4, 0, cr0, cr1, cr2, {0}
     5e8:	01040200 	mrseq	r0, R12_usr
     5ec:	02005808 	andeq	r5, r0, #8, 16	; 0x80000
     5f0:	002e0204 	eoreq	r0, lr, r4, lsl #4
     5f4:	14020402 	strne	r0, [r2], #-1026	; 0xfffffbfe
     5f8:	02001605 	andeq	r1, r0, #5242880	; 0x500000
     5fc:	01060204 	tsteq	r6, r4, lsl #4
     600:	02000505 	andeq	r0, r0, #20971520	; 0x1400000
     604:	d7060204 	strle	r0, [r6, -r4, lsl #4]
     608:	02040200 	andeq	r0, r4, #0, 4
     60c:	00130530 	andseq	r0, r3, r0, lsr r5
     610:	06020402 	streq	r0, [r2], -r2, lsl #8
     614:	00050501 	andeq	r0, r5, r1, lsl #10
     618:	06020402 	streq	r0, [r2], -r2, lsl #8
     61c:	04020083 	streq	r0, [r2], #-131	; 0xffffff7d
     620:	02003002 	andeq	r3, r0, #2, 0
     624:	024c0204 	subeq	r0, ip, #4, 4	; 0x40000000
     628:	01010026 	tsteq	r1, r6, lsr #32
     62c:	00000110 	andeq	r0, r0, r0, lsl r1
     630:	00de0003 	sbcseq	r0, lr, r3
     634:	01020000 	mrseq	r0, (UNDEF: 2)
     638:	000d0efb 	strdeq	r0, [sp], -fp
     63c:	01010101 	tsteq	r1, r1, lsl #2
     640:	01000000 	mrseq	r0, (UNDEF: 0)
     644:	2e010000 	cdpcs	0, 0, cr0, cr1, cr0, {0}
     648:	62696c2f 	rsbvs	r6, r9, #12032	; 0x2f00
     64c:	6f2f0063 	svcvs	0x002f0063
     650:	682f7470 	stmdavs	pc!, {r4, r5, r6, sl, ip, sp, lr}	; <UNPREDICTABLE>
     654:	62656d6f 	rsbvs	r6, r5, #7104	; 0x1bc0
     658:	2f776572 	svccs	0x00776572
     65c:	6c6c6543 	cfstr64vs	mvdx6, [ip], #-268	; 0xfffffef4
     660:	612f7261 			; <UNDEFINED> instruction: 0x612f7261
     664:	6e2d6d72 	mcrvs	13, 1, r6, cr13, cr2, {3}
     668:	2d656e6f 	stclcs	14, cr6, [r5, #-444]!	; 0xfffffe44
     66c:	69626165 	stmdbvs	r2!, {r0, r2, r5, r6, r8, sp, lr}^
     670:	7365742d 	cmnvc	r5, #754974720	; 0x2d000000
     674:	2d392f74 	ldccs	15, cr2, [r9, #-464]!	; 0xfffffe30
     678:	39313032 	ldmdbcc	r1!, {r1, r4, r5, ip, sp}
     67c:	632d3471 			; <UNDEFINED> instruction: 0x632d3471
     680:	37303173 			; <UNDEFINED> instruction: 0x37303173
     684:	696c2f65 	stmdbvs	ip!, {r0, r2, r5, r6, r8, r9, sl, fp, sp}^
     688:	63672f62 	cmnvs	r7, #392	; 0x188
     68c:	72612f63 	rsbvc	r2, r1, #396	; 0x18c
     690:	6f6e2d6d 	svcvs	0x006e2d6d
     694:	652d656e 	strvs	r6, [sp, #-1390]!	; 0xfffffa92
     698:	2f696261 	svccs	0x00696261
     69c:	2e322e39 	mrccs	14, 1, r2, cr2, cr9, {1}
     6a0:	6e692f31 	mcrvs	15, 3, r2, cr9, cr1, {1}
     6a4:	64756c63 	ldrbtvs	r6, [r5], #-3171	; 0xfffff39d
     6a8:	552f0065 	strpl	r0, [pc, #-101]!	; 64b <__code_start__-0x79b5>
     6ac:	73726573 	cmnvc	r2, #482344960	; 0x1cc00000
     6b0:	6c696d2f 	stclvs	13, cr6, [r9], #-188	; 0xffffff44
     6b4:	532f7365 			; <UNDEFINED> instruction: 0x532f7365
     6b8:	6372756f 	cmnvs	r2, #465567744	; 0x1bc00000
     6bc:	73632f65 	cmnvc	r3, #404	; 0x194
     6c0:	6c303432 	cfldrsvs	mvf3, [r0], #-200	; 0xffffff38
     6c4:	696c2f78 	stmdbvs	ip!, {r3, r4, r5, r6, r8, r9, sl, fp, sp}^
     6c8:	2f697062 	svccs	0x00697062
     6cc:	6c636e69 	stclvs	14, cr6, [r3], #-420	; 0xfffffe5c
     6d0:	00656475 	rsbeq	r6, r5, r5, ror r4
     6d4:	69727000 	ldmdbvs	r2!, {ip, sp, lr}^
     6d8:	2e6b746e 	cdpcs	4, 6, cr7, cr11, cr14, {3}
     6dc:	00010063 	andeq	r0, r1, r3, rrx
     6e0:	64747300 	ldrbtvs	r7, [r4], #-768	; 0xfffffd00
     6e4:	2e677261 	cdpcs	2, 6, cr7, cr7, cr1, {3}
     6e8:	00020068 	andeq	r0, r2, r8, rrx
     6ec:	69707200 	ldmdbvs	r0!, {r9, ip, sp, lr}^
     6f0:	0300682e 	movweq	r6, #2094	; 0x82e
     6f4:	623c0000 	eorsvs	r0, ip, #0, 0
     6f8:	746c6975 	strbtvc	r6, [ip], #-2421	; 0xfffff68b
     6fc:	3e6e692d 	vmulcc.f16	s13, s28, s27	; <UNPREDICTABLE>
     700:	00000000 	andeq	r0, r0, r0
     704:	702d6176 	eorvc	r6, sp, r6, ror r1
     708:	746e6972 	strbtvc	r6, [lr], #-2418	; 0xfffff68e
     70c:	00682e6b 	rsbeq	r2, r8, fp, ror #28
     710:	00000001 	andeq	r0, r0, r1
     714:	05002205 	streq	r2, [r0, #-517]	; 0xfffffdfb
     718:	0085d802 	addeq	sp, r5, r2, lsl #16
     71c:	01061700 	tsteq	r6, r0, lsl #14
     720:	68060505 	stmdavs	r6, {r0, r2, r8, sl}
     724:	09051413 	stmdbeq	r5, {r0, r1, r4, sl, ip}
     728:	0612054b 	ldreq	r0, [r2], -fp, asr #10
     72c:	06050501 	streq	r0, [r5], -r1, lsl #10
     730:	660616bb 			; <UNDEFINED> instruction: 0x660616bb
     734:	01053406 	tsteq	r5, r6, lsl #8
     738:	02661306 	rsbeq	r1, r6, #402653184	; 0x18000000
     73c:	01010008 	tsteq	r1, r8
     740:	00000098 	muleq	r0, r8, r0
     744:	005a0003 	subseq	r0, sl, r3
     748:	01020000 	mrseq	r0, (UNDEF: 2)
     74c:	000d0efb 	strdeq	r0, [sp], -fp
     750:	01010101 	tsteq	r1, r1, lsl #2
     754:	01000000 	mrseq	r0, (UNDEF: 0)
     758:	2e010000 	cdpcs	0, 0, cr0, cr1, cr0, {0}
     75c:	62696c2f 	rsbvs	r6, r9, #12032	; 0x2f00
     760:	552f0063 	strpl	r0, [pc, #-99]!	; 705 <__code_start__-0x78fb>
     764:	73726573 	cmnvc	r2, #482344960	; 0x1cc00000
     768:	6c696d2f 	stclvs	13, cr6, [r9], #-188	; 0xffffff44
     76c:	532f7365 			; <UNDEFINED> instruction: 0x532f7365
     770:	6372756f 	cmnvs	r2, #465567744	; 0x1bc00000
     774:	73632f65 	cmnvc	r3, #404	; 0x194
     778:	6c303432 	cfldrsvs	mvf3, [r0], #-200	; 0xffffff38
     77c:	696c2f78 	stmdbvs	ip!, {r3, r4, r5, r6, r8, r9, sl, fp, sp}^
     780:	2f697062 	svccs	0x00697062
     784:	6c636e69 	stclvs	14, cr6, [r3], #-420	; 0xfffffe5c
     788:	00656475 	rsbeq	r6, r5, r5, ror r4
     78c:	74757000 	ldrbtvc	r7, [r5], #-0
     790:	72616863 	rsbvc	r6, r1, #6488064	; 0x630000
     794:	0100632e 	tsteq	r0, lr, lsr #6
     798:	70720000 	rsbsvc	r0, r2, r0
     79c:	00682e69 	rsbeq	r2, r8, r9, ror #28
     7a0:	00000002 	andeq	r0, r0, r2
     7a4:	05002405 	streq	r2, [r0, #-1029]	; 0xfffffbfb
     7a8:	00863002 	addeq	r3, r6, r2
     7ac:	01061400 	tsteq	r6, r0, lsl #8
     7b0:	4a062605 	bmi	189fcc <__bss_end__+0x17ffac>
     7b4:	052e3405 	streq	r3, [lr, #-1029]!	; 0xfffffbfb
     7b8:	05010601 	streq	r0, [r1, #-1537]	; 0xfffff9ff
     7bc:	054f061b 	strbeq	r0, [pc, #-1563]	; 1a9 <__code_start__-0x7e57>
     7c0:	11051305 	tstne	r5, r5, lsl #6
     7c4:	01050106 	tsteq	r5, r6, lsl #2
     7c8:	06230567 	strteq	r0, [r3], -r7, ror #10
     7cc:	13050567 	movwne	r0, #21863	; 0x5567
     7d0:	01061105 	tsteq	r6, r5, lsl #2
     7d4:	024b0105 	subeq	r0, fp, #1073741825	; 0x40000001
     7d8:	01010004 	tsteq	r1, r4
     7dc:	000000a5 	andeq	r0, r0, r5, lsr #1
     7e0:	00570003 	subseq	r0, r7, r3
     7e4:	01020000 	mrseq	r0, (UNDEF: 2)
     7e8:	000d0efb 	strdeq	r0, [sp], -fp
     7ec:	01010101 	tsteq	r1, r1, lsl #2
     7f0:	01000000 	mrseq	r0, (UNDEF: 0)
     7f4:	2e010000 	cdpcs	0, 0, cr0, cr1, cr0, {0}
     7f8:	62696c2f 	rsbvs	r6, r9, #12032	; 0x2f00
     7fc:	552f0063 	strpl	r0, [pc, #-99]!	; 7a1 <__code_start__-0x785f>
     800:	73726573 	cmnvc	r2, #482344960	; 0x1cc00000
     804:	6c696d2f 	stclvs	13, cr6, [r9], #-188	; 0xffffff44
     808:	532f7365 			; <UNDEFINED> instruction: 0x532f7365
     80c:	6372756f 	cmnvs	r2, #465567744	; 0x1bc00000
     810:	73632f65 	cmnvc	r3, #404	; 0x194
     814:	6c303432 	cfldrsvs	mvf3, [r0], #-200	; 0xffffff38
     818:	696c2f78 	stmdbvs	ip!, {r3, r4, r5, r6, r8, r9, sl, fp, sp}^
     81c:	2f697062 	svccs	0x00697062
     820:	6c636e69 	stclvs	14, cr6, [r3], #-420	; 0xfffffe5c
     824:	00656475 	rsbeq	r6, r5, r5, ror r4
     828:	74757000 	ldrbtvc	r7, [r5], #-0
     82c:	00632e6b 	rsbeq	r2, r3, fp, ror #28
     830:	72000001 	andvc	r0, r0, #1, 0
     834:	682e6970 	stmdavs	lr!, {r4, r5, r6, r8, fp, sp, lr}
     838:	00000200 	andeq	r0, r0, r0, lsl #4
     83c:	00220500 	eoreq	r0, r2, r0, lsl #10
     840:	866c0205 	strbthi	r0, [ip], -r5, lsl #4
     844:	06150000 	ldreq	r0, [r5], -r0
     848:	06050501 	streq	r0, [r5], -r1, lsl #10
     84c:	000b054b 	andeq	r0, fp, fp, asr #10
     850:	01010402 	tsteq	r1, r2, lsl #8
     854:	02000505 	andeq	r0, r0, #20971520	; 0x1400000
     858:	2e060104 	adfcss	f0, f6, f4
     85c:	02000905 	andeq	r0, r0, #81920	; 0x14000
     860:	4b060204 	blmi	181078 <__bss_end__+0x177058>
     864:	02000f05 	andeq	r0, r0, #5, 30
     868:	05650204 	strbeq	r0, [r5, #-516]!	; 0xfffffdfc
     86c:	04020010 	streq	r0, [r2], #-16
     870:	00010602 	andeq	r0, r1, r2, lsl #12
     874:	2e020402 	cdpcs	4, 0, cr0, cr2, cr2, {0}
     878:	32060505 	andcc	r0, r6, #20971520	; 0x1400000
     87c:	13060105 	movwne	r0, #24837	; 0x6105
     880:	01000602 	tsteq	r0, r2, lsl #12
     884:	0005fa01 	andeq	pc, r5, r1, lsl #20
     888:	f4000300 	vst2.8	{d0-d3}, [r0], r0
     88c:	02000000 	andeq	r0, r0, #0, 0
     890:	0d0efb01 	vstreq	d15, [lr, #-4]
     894:	01010100 	mrseq	r0, (UNDEF: 17)
     898:	00000001 	andeq	r0, r0, r1
     89c:	01000001 	tsteq	r0, r1
     8a0:	696c2f2e 	stmdbvs	ip!, {r1, r2, r3, r5, r8, r9, sl, fp, sp}^
     8a4:	2f006362 	svccs	0x00006362
     8a8:	2f74706f 	svccs	0x0074706f
     8ac:	656d6f68 	strbvs	r6, [sp, #-3944]!	; 0xfffff098
     8b0:	77657262 	strbvc	r7, [r5, -r2, ror #4]!
     8b4:	6c65432f 	stclvs	3, cr4, [r5], #-188	; 0xffffff44
     8b8:	2f72616c 	svccs	0x0072616c
     8bc:	2d6d7261 	sfmcs	f7, 2, [sp, #-388]!	; 0xfffffe7c
     8c0:	656e6f6e 	strbvs	r6, [lr, #-3950]!	; 0xfffff092
     8c4:	6261652d 	rsbvs	r6, r1, #188743680	; 0xb400000
     8c8:	65742d69 	ldrbvs	r2, [r4, #-3433]!	; 0xfffff297
     8cc:	392f7473 	stmdbcc	pc!, {r0, r1, r4, r5, r6, sl, ip, sp, lr}	; <UNPREDICTABLE>
     8d0:	3130322d 	teqcc	r0, sp, lsr #4
     8d4:	2d347139 	ldfcss	f7, [r4, #-228]!	; 0xffffff1c
     8d8:	30317363 	eorscc	r7, r1, r3, ror #6
     8dc:	6c2f6537 	cfstr32vs	mvfx6, [pc], #-220	; 808 <__code_start__-0x77f8>
     8e0:	672f6269 	strvs	r6, [pc, -r9, ror #4]!
     8e4:	612f6363 			; <UNDEFINED> instruction: 0x612f6363
     8e8:	6e2d6d72 	mcrvs	13, 1, r6, cr13, cr2, {3}
     8ec:	2d656e6f 	stclcs	14, cr6, [r5, #-444]!	; 0xfffffe44
     8f0:	69626165 	stmdbvs	r2!, {r0, r2, r5, r6, r8, sp, lr}^
     8f4:	322e392f 	eorcc	r3, lr, #770048	; 0xbc000
     8f8:	692f312e 	stmdbvs	pc!, {r1, r2, r3, r5, r8, ip, sp}	; <UNPREDICTABLE>
     8fc:	756c636e 	strbvc	r6, [ip, #-878]!	; 0xfffffc92
     900:	2f006564 	svccs	0x00006564
     904:	72657355 	rsbvc	r7, r5, #1409286145	; 0x54000001
     908:	696d2f73 	stmdbvs	sp!, {r0, r1, r4, r5, r6, r8, r9, sl, fp, sp}^
     90c:	2f73656c 	svccs	0x0073656c
     910:	72756f53 	rsbsvc	r6, r5, #332	; 0x14c
     914:	632f6563 			; <UNDEFINED> instruction: 0x632f6563
     918:	30343273 	eorscc	r3, r4, r3, ror r2
     91c:	6c2f786c 	stcvs	8, cr7, [pc], #-432	; 774 <__code_start__-0x788c>
     920:	69706269 	ldmdbvs	r0!, {r0, r3, r5, r6, r9, sp, lr}^
     924:	636e692f 	cmnvs	lr, #770048	; 0xbc000
     928:	6564756c 	strbvs	r7, [r4, #-1388]!	; 0xfffffa94
     92c:	61760000 	cmnvs	r6, r0
     930:	6972702d 	ldmdbvs	r2!, {r0, r2, r3, r5, ip, sp, lr}^
     934:	2e6b746e 	cdpcs	4, 6, cr7, cr11, cr14, {3}
     938:	00010063 	andeq	r0, r1, r3, rrx
     93c:	64747300 	ldrbtvs	r7, [r4], #-768	; 0xfffffd00
     940:	2d746e69 	ldclcs	14, cr6, [r4, #-420]!	; 0xfffffe5c
     944:	2e636367 	cdpcs	3, 6, cr6, cr3, cr7, {3}
     948:	00020068 	andeq	r0, r2, r8, rrx
     94c:	69707200 	ldmdbvs	r0!, {r9, ip, sp, lr}^
     950:	0300682e 	movweq	r6, #2094	; 0x82e
     954:	70720000 	rsbsvc	r0, r2, r0
     958:	6e692d69 	cdpvs	13, 6, cr2, cr9, cr9, {3}
     95c:	6e726574 	mrcvs	5, 3, r6, cr2, cr4, {3}
     960:	682e6c61 	stmdavs	lr!, {r0, r5, r6, sl, fp, sp, lr}
     964:	00000300 	andeq	r0, r0, r0, lsl #6
     968:	61647473 	smcvs	18243	; 0x4743
     96c:	682e6772 	stmdavs	lr!, {r1, r4, r5, r6, r8, r9, sl, sp, lr}
     970:	00000200 	andeq	r0, r0, r0, lsl #4
     974:	6975623c 	ldmdbvs	r5!, {r2, r3, r4, r5, r9, sp, lr}^
     978:	692d746c 	pushvs	{r2, r3, r5, r6, sl, ip, sp, lr}
     97c:	00003e6e 	andeq	r3, r0, lr, ror #28
     980:	05000000 	streq	r0, [r0, #-0]
     984:	0205001b 	andeq	r0, r5, #27, 0
     988:	000086a0 	andeq	r8, r0, r0, lsr #13
     98c:	05012603 	streq	r2, [r1, #-1539]	; 0xfffff9fd
     990:	2d05011d 	stfcss	f0, [r5, #-116]	; 0xffffff8c
     994:	01050106 	tsteq	r5, r6, lsl #2
     998:	33054a2e 	movwcc	r4, #23086	; 0x5a2e
     99c:	02055106 	andeq	r5, r5, #-2147483647	; 0x80000001
     9a0:	06060513 			; <UNDEFINED> instruction: 0x06060513
     9a4:	06020501 	streq	r0, [r2], -r1, lsl #10
     9a8:	00080530 	andeq	r0, r8, r0, lsr r5
     9ac:	01010402 	tsteq	r1, r2, lsl #8
     9b0:	02000205 	andeq	r0, r0, #1342177280	; 0x50000000
     9b4:	01060104 	tsteq	r6, r4, lsl #2
     9b8:	02000305 	andeq	r0, r0, #335544320	; 0x14000000
     9bc:	2f060204 	svccs	0x00060204
     9c0:	02000805 	andeq	r0, r0, #327680	; 0x50000
     9c4:	01060204 	tsteq	r6, r4, lsl #4
     9c8:	02001505 	andeq	r1, r0, #20971520	; 0x1400000
     9cc:	49060204 	stmdbmi	r6, {r2, r9}
     9d0:	02001805 	andeq	r1, r0, #327680	; 0x50000
     9d4:	01060204 	tsteq	r6, r4, lsl #4
     9d8:	02040200 	andeq	r0, r4, #0, 4
     9dc:	0602052e 	streq	r0, [r2], -lr, lsr #10
     9e0:	06050530 			; <UNDEFINED> instruction: 0x06050530
     9e4:	06020501 	streq	r0, [r2], -r1, lsl #10
     9e8:	0601054b 	streq	r0, [r1], -fp, asr #10
     9ec:	063e0513 			; <UNDEFINED> instruction: 0x063e0513
     9f0:	14020531 	strne	r0, [r2], #-1329	; 0xfffffacf
     9f4:	01060e05 	tsteq	r6, r5, lsl #28
     9f8:	052e0605 	streq	r0, [lr, #-1541]!	; 0xfffff9fb
     9fc:	052f0602 	streq	r0, [pc, #-1538]!	; 402 <__code_start__-0x7bfe>
     a00:	05010604 	streq	r0, [r1, #-1540]	; 0xfffff9fc
     a04:	052f0603 	streq	r0, [pc, #-1539]!	; 409 <__code_start__-0x7bf7>
     a08:	05010611 	streq	r0, [r1, #-1553]	; 0xfffff9ef
     a0c:	02052e09 	andeq	r2, r5, #144	; 0x90
     a10:	05153006 	ldreq	r3, [r5, #-6]
     a14:	05010607 	streq	r0, [r1, #-1543]	; 0xfffff9f9
     a18:	0b052e02 	bleq	14c228 <__bss_end__+0x142208>
     a1c:	01040200 	mrseq	r0, R12_usr
     a20:	02052e06 	andeq	r2, r5, #96	; 0x60
     a24:	01040200 	mrseq	r0, R12_usr
     a28:	03050106 	movweq	r0, #20742	; 0x5106
     a2c:	03040200 	movweq	r0, #16896	; 0x4200
     a30:	0c052f06 	stceq	15, cr2, [r5], {6}
     a34:	03040200 	movweq	r0, #16896	; 0x4200
     a38:	0a050106 	beq	140e58 <__bss_end__+0x136e38>
     a3c:	03040200 	movweq	r0, #16896	; 0x4200
     a40:	0017052e 	andseq	r0, r7, lr, lsr #10
     a44:	06030402 	streq	r0, [r3], -r2, lsl #8
     a48:	0402002d 	streq	r0, [r2], #-45	; 0xffffffd3
     a4c:	05010603 	streq	r0, [r1, #-1539]	; 0xfffff9fd
     a50:	05300602 	ldreq	r0, [r0, #-1538]!	; 0xfffff9fe
     a54:	2e010609 	cfmadd32cs	mvax0, mvfx0, mvfx1, mvfx9
     a58:	30060205 	andcc	r0, r6, r5, lsl #4
     a5c:	13060105 	movwne	r0, #24837	; 0x6105
     a60:	31064905 	tstcc	r6, r5, lsl #18
     a64:	02050106 	andeq	r0, r5, #-2147483647	; 0x80000001
     a68:	0405a006 	streq	sl, [r5], #-6
     a6c:	03050106 	movweq	r0, #20742	; 0x5106
     a70:	09052f06 	stmdbeq	r5, {r1, r2, r8, r9, sl, fp, sp}
     a74:	02050106 	andeq	r0, r5, #-2147483647	; 0x80000001
     a78:	05133006 	ldreq	r3, [r3, #-6]
     a7c:	0501060b 	streq	r0, [r1, #-1547]	; 0xfffff9f5
     a80:	06300602 	ldrteq	r0, [r0], -r2, lsl #12
     a84:	0604052e 	streq	r0, [r4], -lr, lsr #10
     a88:	13152402 	tstne	r5, #33554432	; 0x2000000
     a8c:	01060f05 	tsteq	r6, r5, lsl #30
     a90:	4a06052e 	bmi	181f50 <__bss_end__+0x177f30>
     a94:	4b060505 	blmi	181eb0 <__bss_end__+0x177e90>
     a98:	06090513 			; <UNDEFINED> instruction: 0x06090513
     a9c:	06050501 	streq	r0, [r5], -r1, lsl #10
     aa0:	060b052f 	streq	r0, [fp], -pc, lsr #10
     aa4:	000d0510 	andeq	r0, sp, r0, lsl r5
     aa8:	2c010402 	cfstrscs	mvf0, [r1], {2}
     aac:	02000405 	andeq	r0, r0, #83886080	; 0x5000000
     ab0:	34060104 	strcc	r0, [r6], #-260	; 0xfffffefc
     ab4:	02000505 	andeq	r0, r0, #20971520	; 0x1400000
     ab8:	05130104 	ldreq	r0, [r3, #-260]	; 0xfffffefc
     abc:	0402001b 	streq	r0, [r2], #-27	; 0xffffffe5
     ac0:	05010601 	streq	r0, [r1, #-1537]	; 0xfffff9ff
     ac4:	04020007 	streq	r0, [r2], #-7
     ac8:	1805d601 	stmdane	r5, {r0, r9, sl, ip, lr, pc}
     acc:	01040200 	mrseq	r0, R12_usr
     ad0:	000a052e 	andeq	r0, sl, lr, lsr #10
     ad4:	4a010402 	bmi	41ae4 <__bss_end__+0x37ac4>
     ad8:	02000b05 	andeq	r0, r0, #5120	; 0x1400
     adc:	2f060104 	svccs	0x00060104
     ae0:	02000e05 	andeq	r0, r0, #80	; 0x50
     ae4:	2e060104 	adfcss	f0, f6, f4
     ae8:	02000405 	andeq	r0, r0, #83886080	; 0x5000000
     aec:	062e0104 	strteq	r0, [lr], -r4, lsl #2
     af0:	0606054b 	streq	r0, [r6], -fp, asr #10
     af4:	06050501 	streq	r0, [r5], -r1, lsl #10
     af8:	060a052f 	streq	r0, [sl], -pc, lsr #10
     afc:	4a070501 	bmi	1c1f08 <__bss_end__+0x1b7ee8>
     b00:	030d052e 	movweq	r0, #54574	; 0xd52e
     b04:	054a2e76 	strbeq	r2, [sl, #-3702]	; 0xfffff18a
     b08:	0d050d0b 	stceq	13, cr0, [r5, #-44]	; 0xffffffd4
     b0c:	01040200 	mrseq	r0, R12_usr
     b10:	2e140306 	cdpcs	3, 1, cr0, cr4, cr6, {0}
     b14:	02001105 	andeq	r1, r0, #1073741825	; 0x40000001
     b18:	05130104 	ldreq	r0, [r3, #-260]	; 0xfffffefc
     b1c:	0402002d 	streq	r0, [r2], #-45	; 0xffffffd3
     b20:	05010601 	streq	r0, [r1, #-1537]	; 0xfffff9ff
     b24:	0402002a 	streq	r0, [r2], #-42	; 0xffffffd6
     b28:	16052e01 	strne	r2, [r5], -r1, lsl #28
     b2c:	01040200 	mrseq	r0, R12_usr
     b30:	0014054a 	andseq	r0, r4, sl, asr #10
     b34:	06010402 	streq	r0, [r1], -r2, lsl #8
     b38:	000d054b 	andeq	r0, sp, fp, asr #10
     b3c:	06010402 	streq	r0, [r1], -r2, lsl #8
     b40:	04020001 	streq	r0, [r2], #-1
     b44:	2f064a01 	svccs	0x00064a01
     b48:	01061205 	tsteq	r6, r5, lsl #4
     b4c:	060d054a 	streq	r0, [sp], -sl, asr #10
     b50:	0612052f 	ldreq	r0, [r2], -pc, lsr #10
     b54:	06190501 	ldreq	r0, [r9], -r1, lsl #10
     b58:	0004054b 	andeq	r0, r4, fp, asr #10
     b5c:	03020402 	movweq	r0, #9218	; 0x2402
     b60:	02000111 	andeq	r0, r0, #1073741828	; 0x40000004
     b64:	05010204 	streq	r0, [r1, #-516]	; 0xfffffdfc
     b68:	04020002 	streq	r0, [r2], #-2
     b6c:	09051502 	stmdbeq	r5, {r1, r8, sl, ip}
     b70:	02040200 	andeq	r0, r4, #0, 4
     b74:	02000106 	andeq	r0, r0, #-2147483647	; 0x80000001
     b78:	054a0204 	strbeq	r0, [sl, #-516]	; 0xfffffdfc
     b7c:	04020001 	streq	r0, [r2], #-1
     b80:	04059f02 	streq	r9, [r5], #-3842	; 0xfffff0fe
     b84:	4a6e0306 	bmi	1b817a4 <__bss_end__+0x1b77784>
     b88:	01060905 	tsteq	r6, r5, lsl #18
     b8c:	2f060405 	svccs	0x00060405
     b90:	11060605 	tstne	r6, r5, lsl #12
     b94:	052f0405 	streq	r0, [pc, #-1029]!	; 797 <__code_start__-0x7869>
     b98:	2e63030b 	cdpcs	3, 6, cr0, cr3, cr11, {0}
     b9c:	02001905 	andeq	r1, r0, #81920	; 0x14000
     ba0:	03060104 	movweq	r0, #24836	; 0x6104
     ba4:	1a052e24 	bne	14c43c <__bss_end__+0x14241c>
     ba8:	01040200 	mrseq	r0, R12_usr
     bac:	00280513 	eoreq	r0, r8, r3, lsl r5
     bb0:	06010402 	streq	r0, [r1], -r2, lsl #8
     bb4:	00250501 	eoreq	r0, r5, r1, lsl #10
     bb8:	2e010402 	cdpcs	4, 0, cr0, cr1, cr2, {0}
     bbc:	02001f05 	andeq	r1, r0, #5, 30
     bc0:	054a0104 	strbeq	r0, [sl, #-260]	; 0xfffffefc
     bc4:	0402000b 	streq	r0, [r2], #-11
     bc8:	054b0601 	strbeq	r0, [fp, #-1537]	; 0xfffff9ff
     bcc:	04020004 	streq	r0, [r2], #-4
     bd0:	00010601 	andeq	r0, r1, r1, lsl #12
     bd4:	4a010402 	bmi	41be4 <__bss_end__+0x37bc4>
     bd8:	01040200 	mrseq	r0, R12_usr
     bdc:	02004e06 	andeq	r4, r0, #96	; 0x60
     be0:	00010104 	andeq	r0, r1, r4, lsl #2
     be4:	01010402 	tsteq	r1, r2, lsl #8
     be8:	01040200 	mrseq	r0, R12_usr
     bec:	04020001 	streq	r0, [r2], #-1
     bf0:	002e0601 	eoreq	r0, lr, r1, lsl #12
     bf4:	66010402 	strvs	r0, [r1], -r2, lsl #8
     bf8:	01040200 	mrseq	r0, R12_usr
     bfc:	0402002e 	streq	r0, [r2], #-46	; 0xffffffd2
     c00:	054a0601 	strbeq	r0, [sl, #-1537]	; 0xfffff9ff
     c04:	7fa60348 	svcvc	0x00a60348
     c08:	05052008 	streq	r2, [r5, #-8]
     c0c:	2e060113 	mcrcs	1, 0, r0, cr6, cr3, {0}
     c10:	02040200 	andeq	r0, r4, #0, 4
     c14:	02002e06 	andeq	r2, r0, #96	; 0x60
     c18:	00010204 	andeq	r0, r1, r4, lsl #4
     c1c:	13020402 	movwne	r0, #9218	; 0x2402
     c20:	02001105 	andeq	r1, r0, #1073741825	; 0x40000001
     c24:	01060204 	tsteq	r6, r4, lsl #4
     c28:	02000505 	andeq	r0, r0, #20971520	; 0x1400000
     c2c:	4b060204 	blmi	181444 <__bss_end__+0x177424>
     c30:	02000705 	andeq	r0, r0, #1310720	; 0x140000
     c34:	01060204 	tsteq	r6, r4, lsl #4
     c38:	4b060905 	blmi	183054 <__bss_end__+0x179034>
     c3c:	01060e05 	tsteq	r6, r5, lsl #28
     c40:	02004805 	andeq	r4, r0, #327680	; 0x50000
     c44:	05620104 	strbeq	r0, [r2, #-260]!	; 0xfffffefc
     c48:	04020005 	streq	r0, [r2], #-5
     c4c:	004b0601 	subeq	r0, fp, r1, lsl #12
     c50:	01010402 	tsteq	r1, r2, lsl #8
     c54:	01040200 	mrseq	r0, R12_usr
     c58:	02009e06 	andeq	r9, r0, #96	; 0x60
     c5c:	002e0104 	eoreq	r0, lr, r4, lsl #2
     c60:	06010402 	streq	r0, [r1], -r2, lsl #8
     c64:	0340052e 	movteq	r0, #1326	; 0x52e
     c68:	06d600e1 	ldrbeq	r0, [r6], r1, ror #1
     c6c:	06020501 	streq	r0, [r2], -r1, lsl #10
     c70:	061e059f 			; <UNDEFINED> instruction: 0x061e059f
     c74:	2e120501 	cfmul32cs	mvfx0, mvfx2, mvfx1
     c78:	2f060505 	svccs	0x00060505
     c7c:	05140205 	ldreq	r0, [r4, #-517]	; 0xfffffdfb
     c80:	05010609 	streq	r0, [r1, #-1545]	; 0xfffff9f7
     c84:	054b0605 	strbeq	r0, [fp, #-1541]	; 0xfffff9fb
     c88:	08051302 	stmdaeq	r5, {r1, r8, r9, ip}
     c8c:	02050d06 	andeq	r0, r5, #384	; 0x180
     c90:	06040533 			; <UNDEFINED> instruction: 0x06040533
     c94:	060f054c 	streq	r0, [pc], -ip, asr #10
     c98:	2e090501 	cfsh32cs	mvfx0, mvfx9, #1
     c9c:	2c060805 	stccs	8, cr0, [r6], {5}
     ca0:	2e060205 	cdpcs	2, 0, cr0, cr6, cr5, {0}
     ca4:	02000d05 	andeq	r0, r0, #320	; 0x140
     ca8:	054a0104 	strbeq	r0, [sl, #-260]	; 0xfffffefc
     cac:	054b0603 	strbeq	r0, [fp, #-1539]	; 0xfffff9fd
     cb0:	05010605 	streq	r0, [r1, #-1541]	; 0xfffff9fb
     cb4:	054d0608 	strbeq	r0, [sp, #-1544]	; 0xfffff9f8
     cb8:	0501060e 	streq	r0, [r1, #-1550]	; 0xfffff9f2
     cbc:	04052e0a 	streq	r2, [r5], #-3594	; 0xfffff1f6
     cc0:	09052f06 	stmdbeq	r5, {r1, r2, r8, r9, sl, fp, sp}
     cc4:	04050106 	streq	r0, [r5], #-262	; 0xfffffefa
     cc8:	07052f06 	streq	r2, [r5, -r6, lsl #30]
     ccc:	052e0106 	streq	r0, [lr, #-262]!	; 0xfffffefa
     cd0:	05300604 	ldreq	r0, [r0, #-1540]!	; 0xfffff9fc
     cd4:	05010607 	streq	r0, [r1, #-1543]	; 0xfffff9f9
     cd8:	13300604 	teqne	r0, #4, 12	; 0x400000
     cdc:	060d0514 			; <UNDEFINED> instruction: 0x060d0514
     ce0:	06090510 			; <UNDEFINED> instruction: 0x06090510
     ce4:	06120530 			; <UNDEFINED> instruction: 0x06120530
     ce8:	2e0a0501 	cfsh32cs	mvfx0, mvfx10, #1
     cec:	05660905 	strbeq	r0, [r6, #-2309]!	; 0xfffff6fb
     cf0:	054b0605 	strbeq	r0, [fp, #-1541]	; 0xfffff9fb
     cf4:	05010612 	streq	r0, [r1, #-1554]	; 0xfffff9ee
     cf8:	0b052e16 	bleq	14c558 <__bss_end__+0x142538>
     cfc:	0605052e 	streq	r0, [r5], -lr, lsr #10
     d00:	0608052f 	streq	r0, [r8], -pc, lsr #10
     d04:	04052e01 	streq	r2, [r5], #-3585	; 0xfffff1ff
     d08:	4a013006 	bmi	4cd28 <__bss_end__+0x42d08>
     d0c:	02001501 	andeq	r1, r0, #4194304	; 0x400000
     d10:	36020104 	strcc	r0, [r2], -r4, lsl #2
     d14:	0402000f 	streq	r0, [r2], #-15
     d18:	02000101 	andeq	r0, r0, #1073741824	; 0x40000000
     d1c:	05d60104 	ldrbeq	r0, [r6, #260]	; 0x104
     d20:	01133411 	tsteq	r3, r1, lsl r4
     d24:	02040200 	andeq	r0, r4, #0, 4
     d28:	0200ba06 	andeq	fp, r0, #24576	; 0x6000
     d2c:	ba060304 	blt	181944 <__bss_end__+0x177924>
     d30:	03040200 	movweq	r0, #16896	; 0x4200
     d34:	04020001 	streq	r0, [r2], #-1
     d38:	15051403 	strne	r1, [r5, #-1027]	; 0xfffffbfd
     d3c:	03040200 	movweq	r0, #16896	; 0x4200
     d40:	11050106 	tstne	r5, r6, lsl #2
     d44:	03040200 	movweq	r0, #16896	; 0x4200
     d48:	1a052f06 	bne	14c968 <__bss_end__+0x142948>
     d4c:	03040200 	movweq	r0, #16896	; 0x4200
     d50:	11050106 	tstne	r5, r6, lsl #2
     d54:	03040200 	movweq	r0, #16896	; 0x4200
     d58:	0200d706 	andeq	sp, r0, #1572864	; 0x180000
     d5c:	00130304 	andseq	r0, r3, r4, lsl #6
     d60:	14030402 	strne	r0, [r3], #-1026	; 0xfffffbfe
     d64:	03040200 	movweq	r0, #16896	; 0x4200
     d68:	04020067 	streq	r0, [r2], #-103	; 0xffffff99
     d6c:	14056803 	strne	r6, [r5], #-2051	; 0xfffff7fd
     d70:	03040200 	movweq	r0, #16896	; 0x4200
     d74:	13050106 	movwne	r0, #20742	; 0x5106
     d78:	03040200 	movweq	r0, #16896	; 0x4200
     d7c:	06180582 	ldreq	r0, [r8], -r2, lsl #11
     d80:	061b054e 	ldreq	r0, [fp], -lr, asr #10
     d84:	821a0501 	andshi	r0, sl, #4194304	; 0x400000
     d88:	4b060905 	blmi	1831a4 <__bss_end__+0x179184>
     d8c:	01060d05 	tsteq	r6, r5, lsl #26
     d90:	0609052e 	streq	r0, [r9], -lr, lsr #10
     d94:	05ba06f3 	ldreq	r0, [sl, #1779]!	; 0x6f3
     d98:	05300615 	ldreq	r0, [r0, #-1557]!	; 0xfffff9eb
     d9c:	05010618 	streq	r0, [r1, #-1560]	; 0xfffff9e8
     da0:	19056617 	stmdbne	r5, {r0, r1, r2, r4, r9, sl, sp, lr}
     da4:	15054b06 	strne	r4, [r5, #-2822]	; 0xfffff4fa
     da8:	666f0306 	strbtvs	r0, [pc], -r6, lsl #6
     dac:	48061105 	stmdami	r6, {r0, r2, r8, ip}
     db0:	0905d601 	stmdbeq	r5, {r0, r9, sl, ip, lr, pc}
     db4:	052e0b03 	streq	r0, [lr, #-2819]!	; 0xfffff4fd
     db8:	2e01060d 	cfmadd32cs	mvax0, mvfx0, mvfx1, mvfx13
     dbc:	f3060905 	vmls.i8	d0, d6, d5
     dc0:	1505ba06 	strne	fp, [r5, #-2566]	; 0xfffff5fa
     dc4:	03062f06 	movweq	r2, #28422	; 0x6f06
     dc8:	19056675 	stmdbne	r5, {r0, r2, r4, r5, r6, r9, sl, sp, lr}
     dcc:	4a130306 	bmi	4c19ec <__bss_end__+0x4b79cc>
     dd0:	03061505 	movweq	r1, #25861	; 0x6505
     dd4:	0306666d 	movweq	r6, #26221	; 0x666d
     dd8:	ba014a15 	blt	53634 <__bss_end__+0x49614>
     ddc:	05052e06 	streq	r2, [r5, #-3590]	; 0xfffff1fa
     de0:	9e011a06 	vmlals.f32	s2, s2, s12
     de4:	010e032e 	tsteq	lr, lr, lsr #6
     de8:	01060905 	tsteq	r6, r5, lsl #18
     dec:	08060505 	stmdaeq	r6, {r0, r2, r8, sl}
     df0:	03040575 	movweq	r0, #17781	; 0x4575
     df4:	07050118 	smladeq	r5, r8, r1, r0
     df8:	04050106 	streq	r0, [r5], #-262	; 0xfffffefa
     dfc:	05053106 	streq	r3, [r5, #-262]	; 0xfffffefa
     e00:	052e6703 	streq	r6, [lr, #-1795]!	; 0xfffff8fd
     e04:	0501061c 	streq	r0, [r1, #-1564]	; 0xfffff9e4
     e08:	05058209 	streq	r8, [r5, #-521]	; 0xfffffdf7
     e0c:	0531f306 	ldreq	pc, [r1, #-774]!	; 0xfffffcfa
     e10:	0501061c 	streq	r0, [r1, #-1564]	; 0xfffff9e4
     e14:	05058209 	streq	r8, [r5, #-521]	; 0xfffffdf7
     e18:	0530f306 	ldreq	pc, [r0, #-774]!	; 0xfffffcfa
     e1c:	0501061b 	streq	r0, [r1, #-1563]	; 0xfffff9e5
     e20:	05058209 	streq	r8, [r5, #-521]	; 0xfffffdf7
     e24:	0530f306 	ldreq	pc, [r0, #-774]!	; 0xfffffcfa
     e28:	05010607 	streq	r0, [r1, #-1543]	; 0xfffff9f9
     e2c:	30830605 	addcc	r0, r3, r5, lsl #12
     e30:	01060905 	tsteq	r6, r5, lsl #18
     e34:	08060505 	stmdaeq	r6, {r0, r2, r8, sl}
     e38:	30110575 	andscc	r0, r1, r5, ror r5
     e3c:	01062205 	tsteq	r6, r5, lsl #4
     e40:	4b060505 	blmi	18225c <__bss_end__+0x17823c>
     e44:	05831105 	streq	r1, [r3, #261]	; 0x105
     e48:	9e018305 	cdpls	3, 0, cr8, cr1, cr5, {0}
     e4c:	060e0535 			; <UNDEFINED> instruction: 0x060e0535
     e50:	2e0a0501 	cfsh32cs	mvfx0, mvfx10, #1
     e54:	04052d06 	streq	r2, [r5], #-3334	; 0xfffff2fa
     e58:	13050106 	movwne	r0, #20742	; 0x5106
     e5c:	01040200 	mrseq	r0, R12_usr
     e60:	0010054a 	andseq	r0, r0, sl, asr #10
     e64:	2e010402 	cdpcs	4, 0, cr0, cr1, cr2, {0}
     e68:	01040200 	mrseq	r0, R12_usr
     e6c:	06020566 	streq	r0, [r2], -r6, ror #10
     e70:	06070516 			; <UNDEFINED> instruction: 0x06070516
     e74:	06020501 	streq	r0, [r2], -r1, lsl #10
     e78:	0601054b 	streq	r0, [r1], -fp, asr #10
     e7c:	1e026613 	mcrne	6, 0, r6, cr2, cr3, {0}
     e80:	7f010100 	svcvc	0x00010100
     e84:	03000000 	movweq	r0, #0
     e88:	00006400 	andeq	r6, r0, r0, lsl #8
     e8c:	fb010200 	blx	41696 <__bss_end__+0x37676>
     e90:	01000d0e 	tsteq	r0, lr, lsl #26
     e94:	00010101 	andeq	r0, r1, r1, lsl #2
     e98:	00010000 	andeq	r0, r1, r0
     e9c:	2f2e0100 	svccs	0x002e0100
     ea0:	66617473 			; <UNDEFINED> instruction: 0x66617473
     ea4:	72732d66 	rsbsvc	r2, r3, #6528	; 0x1980
     ea8:	552f0063 	strpl	r0, [pc, #-99]!	; e4d <__code_start__-0x71b3>
     eac:	73726573 	cmnvc	r2, #482344960	; 0x1cc00000
     eb0:	6c696d2f 	stclvs	13, cr6, [r9], #-188	; 0xffffff44
     eb4:	532f7365 			; <UNDEFINED> instruction: 0x532f7365
     eb8:	6372756f 	cmnvs	r2, #465567744	; 0x1bc00000
     ebc:	73632f65 	cmnvc	r3, #404	; 0x194
     ec0:	6c303432 	cfldrsvs	mvf3, [r0], #-200	; 0xffffff38
     ec4:	696c2f78 	stmdbvs	ip!, {r3, r4, r5, r6, r8, r9, sl, fp, sp}^
     ec8:	2f697062 	svccs	0x00697062
     ecc:	6c636e69 	stclvs	14, cr6, [r3], #-420	; 0xfffffe5c
     ed0:	00656475 	rsbeq	r6, r5, r5, ror r4
     ed4:	656c6300 	strbvs	r6, [ip, #-768]!	; 0xfffffd00
     ed8:	722d6e61 	eorvc	r6, sp, #1552	; 0x610
     edc:	6f6f6265 	svcvs	0x006f6265
     ee0:	00632e74 	rsbeq	r2, r3, r4, ror lr
     ee4:	72000001 	andvc	r0, r0, #1, 0
     ee8:	682e6970 	stmdavs	lr!, {r4, r5, r6, r8, fp, sp, lr}
     eec:	00000200 	andeq	r0, r0, r0, lsl #4
     ef0:	00190500 	andseq	r0, r9, r0, lsl #10
     ef4:	8de00205 	sfmhi	f0, 2, [r0, #20]!
     ef8:	05150000 	ldreq	r0, [r5, #-0]
     efc:	2f832f05 	svccs	0x00832f05
     f00:	0006024b 	andeq	r0, r6, fp, asr #4
     f04:	00990101 	addseq	r0, r9, r1, lsl #2
     f08:	00030000 	andeq	r0, r3, r0
     f0c:	0000005e 	andeq	r0, r0, lr, asr r0
     f10:	0efb0102 	cdpeq	1, 15, cr0, cr11, cr2, {0}
     f14:	0101000d 	tsteq	r1, sp
     f18:	00000101 	andeq	r0, r0, r1, lsl #2
     f1c:	00000100 	andeq	r0, r0, r0, lsl #2
     f20:	732f2e01 			; <UNDEFINED> instruction: 0x732f2e01
     f24:	66666174 			; <UNDEFINED> instruction: 0x66666174
     f28:	6372732d 	cmnvs	r2, #-1275068416	; 0xb4000000
     f2c:	73552f00 	cmpvc	r5, #0, 30
     f30:	2f737265 	svccs	0x00737265
     f34:	656c696d 	strbvs	r6, [ip, #-2413]!	; 0xfffff693
     f38:	6f532f73 	svcvs	0x00532f73
     f3c:	65637275 	strbvs	r7, [r3, #-629]!	; 0xfffffd8b
     f40:	3273632f 	rsbscc	r6, r3, #-1140850688	; 0xbc000000
     f44:	786c3034 	stmdavc	ip!, {r2, r4, r5, ip, sp}^
     f48:	62696c2f 	rsbvs	r6, r9, #12032	; 0x2f00
     f4c:	692f6970 	stmdbvs	pc!, {r4, r5, r6, r8, fp, sp, lr}	; <UNPREDICTABLE>
     f50:	756c636e 	strbvc	r6, [ip, #-878]!	; 0xfffffc92
     f54:	00006564 	andeq	r6, r0, r4, ror #10
     f58:	61747363 	cmnvs	r4, r3, ror #6
     f5c:	632e7472 			; <UNDEFINED> instruction: 0x632e7472
     f60:	00000100 	andeq	r0, r0, r0, lsl #2
     f64:	2e697072 	mcrcs	0, 3, r7, cr9, cr2, {3}
     f68:	00020068 	andeq	r0, r2, r8, rrx
     f6c:	10050000 	andne	r0, r5, r0
     f70:	0c020500 	cfstr32eq	mvfx0, [r2], {-0}
     f74:	1500008e 	strne	r0, [r0, #-142]	; 0xffffff72
     f78:	052f0505 	streq	r0, [pc, #-1285]!	; a7b <__code_start__-0x7585>
     f7c:	05051302 	streq	r1, [r5, #-770]	; 0xfffffcfe
     f80:	14133014 	ldrne	r3, [r3], #-20	; 0xffffffec
     f84:	0f060a05 	svceq	0x00060a05
     f88:	09053106 	stmdbeq	r5, {r1, r2, r8, ip, sp}
     f8c:	0610054b 	ldreq	r0, [r0], -fp, asr #10
     f90:	05054a01 	streq	r4, [r5, #-2561]	; 0xfffff5ff
     f94:	01323006 	teqeq	r2, r6
     f98:	05144a01 	ldreq	r4, [r4, #-2561]	; 0xfffff5ff
     f9c:	06022f02 	streq	r2, [r2], -r2, lsl #30
     fa0:	7d010100 	stfvcs	f0, [r1, #-0]
     fa4:	03000000 	movweq	r0, #0
     fa8:	00006500 	andeq	r6, r0, r0, lsl #10
     fac:	fb010200 	blx	417b6 <__bss_end__+0x37796>
     fb0:	01000d0e 	tsteq	r0, lr, lsl #26
     fb4:	00010101 	andeq	r0, r1, r1, lsl #2
     fb8:	00010000 	andeq	r0, r1, r0
     fbc:	2f2e0100 	svccs	0x002e0100
     fc0:	66617473 			; <UNDEFINED> instruction: 0x66617473
     fc4:	72732d66 	rsbsvc	r2, r3, #6528	; 0x1980
     fc8:	552f0063 	strpl	r0, [pc, #-99]!	; f6d <__code_start__-0x7093>
     fcc:	73726573 	cmnvc	r2, #482344960	; 0x1cc00000
     fd0:	6c696d2f 	stclvs	13, cr6, [r9], #-188	; 0xffffff44
     fd4:	532f7365 			; <UNDEFINED> instruction: 0x532f7365
     fd8:	6372756f 	cmnvs	r2, #465567744	; 0x1bc00000
     fdc:	73632f65 	cmnvc	r3, #404	; 0x194
     fe0:	6c303432 	cfldrsvs	mvf3, [r0], #-200	; 0xffffff38
     fe4:	696c2f78 	stmdbvs	ip!, {r3, r4, r5, r6, r8, r9, sl, fp, sp}^
     fe8:	2f697062 	svccs	0x00697062
     fec:	6c636e69 	stclvs	14, cr6, [r3], #-420	; 0xfffffe5c
     ff0:	00656475 	rsbeq	r6, r5, r5, ror r4
     ff4:	73756300 	cmnvc	r5, #0, 6
     ff8:	2d6d6f74 	stclcs	15, cr6, [sp, #-464]!	; 0xfffffe30
     ffc:	64616f6c 	strbtvs	r6, [r1], #-3948	; 0xfffff094
    1000:	632e7265 			; <UNDEFINED> instruction: 0x632e7265
    1004:	00000100 	andeq	r0, r0, r0, lsl #2
    1008:	2e697072 	mcrcs	0, 3, r7, cr9, cr2, {3}
    100c:	00020068 	andeq	r0, r2, r8, rrx
    1010:	1a050000 	bne	141018 <__bss_end__+0x136ff8>
    1014:	48020500 	stmdami	r2, {r8, sl}
    1018:	1500008e 	strne	r0, [r0, #-142]	; 0xffffff72
    101c:	02140105 	andseq	r0, r4, #1073741825	; 0x40000001
    1020:	01010002 	tsteq	r1, r2
    1024:	000000cd 	andeq	r0, r0, sp, asr #1
    1028:	005e0003 	subseq	r0, lr, r3
    102c:	01020000 	mrseq	r0, (UNDEF: 2)
    1030:	000d0efb 	strdeq	r0, [sp], -fp
    1034:	01010101 	tsteq	r1, r1, lsl #2
    1038:	01000000 	mrseq	r0, (UNDEF: 0)
    103c:	2e010000 	cdpcs	0, 0, cr0, cr1, cr0, {0}
    1040:	6174732f 	cmnvs	r4, pc, lsr #6
    1044:	732d6666 			; <UNDEFINED> instruction: 0x732d6666
    1048:	2f006372 	svccs	0x00006372
    104c:	72657355 	rsbvc	r7, r5, #1409286145	; 0x54000001
    1050:	696d2f73 	stmdbvs	sp!, {r0, r1, r4, r5, r6, r8, r9, sl, fp, sp}^
    1054:	2f73656c 	svccs	0x0073656c
    1058:	72756f53 	rsbsvc	r6, r5, #332	; 0x14c
    105c:	632f6563 			; <UNDEFINED> instruction: 0x632f6563
    1060:	30343273 	eorscc	r3, r4, r3, ror r2
    1064:	6c2f786c 	stcvs	8, cr7, [pc], #-432	; ebc <__code_start__-0x7144>
    1068:	69706269 	ldmdbvs	r0!, {r0, r3, r5, r6, r9, sp, lr}^
    106c:	636e692f 	cmnvs	lr, #770048	; 0xbc000
    1070:	6564756c 	strbvs	r7, [r4, #-1388]!	; 0xfffffa94
    1074:	65720000 	ldrbvs	r0, [r2, #-0]!
    1078:	746f6f62 	strbtvc	r6, [pc], #-3938	; 1080 <__code_start__-0x6f80>
    107c:	0100632e 	tsteq	r0, lr, lsr #6
    1080:	70720000 	rsbsvc	r0, r2, r0
    1084:	00682e69 	rsbeq	r2, r8, r9, ror #28
    1088:	00000002 	andeq	r0, r0, r2
    108c:	05001905 	streq	r1, [r0, #-2309]	; 0xfffff6fb
    1090:	008e4c02 	addeq	r4, lr, r2, lsl #24
    1094:	010d0300 	mrseq	r0, SP_mon
    1098:	13130505 	tstne	r3, #20971520	; 0x1400000
    109c:	06130531 			; <UNDEFINED> instruction: 0x06130531
    10a0:	2f010501 	svccs	0x00010501
    10a4:	85061b05 	strhi	r1, [r6, #-2821]	; 0xfffff4fb
    10a8:	14130505 	ldrne	r0, [r3], #-1285	; 0xfffffafb
    10ac:	052f0905 	streq	r0, [pc, #-2309]!	; 7af <__code_start__-0x7851>
    10b0:	05010616 	streq	r0, [r1, #-1558]	; 0xfffff9ea
    10b4:	05052e0e 	streq	r2, [r5, #-3598]	; 0xfffff1f2
    10b8:	01052f06 	tsteq	r5, r6, lsl #30
    10bc:	17052f06 	strne	r2, [r5, -r6, lsl #30]
    10c0:	05053006 	streq	r3, [r5, #-6]
    10c4:	0608052f 	streq	r0, [r8], -pc, lsr #10
    10c8:	2e070501 	cfsh32cs	mvfx0, mvfx7, #1
    10cc:	50060505 	andpl	r0, r6, r5, lsl #10
    10d0:	134d2f30 	movtne	r2, #57136	; 0xdf30
    10d4:	67151313 			; <UNDEFINED> instruction: 0x67151313
    10d8:	01040200 	mrseq	r0, R12_usr
    10dc:	000d0567 	andeq	r0, sp, r7, ror #10
    10e0:	01010402 	tsteq	r1, r2, lsl #8
    10e4:	02000a05 	andeq	r0, r0, #20480	; 0x5000
    10e8:	05010104 	streq	r0, [r1, #-260]	; 0xfffffefc
    10ec:	2e6d0309 	cdpcs	3, 6, cr0, cr13, cr9, {0}
    10f0:	01000c02 	tsteq	r0, r2, lsl #24
    10f4:	0000d401 	andeq	sp, r0, r1, lsl #8
    10f8:	5d000300 	stcpl	3, cr0, [r0, #-0]
    10fc:	02000000 	andeq	r0, r0, #0, 0
    1100:	0d0efb01 	vstreq	d15, [lr, #-4]
    1104:	01010100 	mrseq	r0, (UNDEF: 17)
    1108:	00000001 	andeq	r0, r0, r1
    110c:	01000001 	tsteq	r0, r1
    1110:	74732f2e 	ldrbtvc	r2, [r3], #-3886	; 0xfffff0d2
    1114:	2d666661 	stclcs	6, cr6, [r6, #-388]!	; 0xfffffe7c
    1118:	00637273 	rsbeq	r7, r3, r3, ror r2
    111c:	6573552f 	ldrbvs	r5, [r3, #-1327]!	; 0xfffffad1
    1120:	6d2f7372 	stcvs	3, cr7, [pc, #-456]!	; f60 <__code_start__-0x70a0>
    1124:	73656c69 	cmnvc	r5, #26880	; 0x6900
    1128:	756f532f 	strbvc	r5, [pc, #-815]!	; e01 <__code_start__-0x71ff>
    112c:	2f656372 	svccs	0x00656372
    1130:	34327363 	ldrtcc	r7, [r2], #-867	; 0xfffffc9d
    1134:	2f786c30 	svccs	0x00786c30
    1138:	7062696c 	rsbvc	r6, r2, ip, ror #18
    113c:	6e692f69 	cdpvs	15, 6, cr2, cr9, cr9, {3}
    1140:	64756c63 	ldrbtvs	r6, [r5], #-3171	; 0xfffff39d
    1144:	74000065 	strvc	r0, [r0], #-101	; 0xffffff9b
    1148:	72656d69 	rsbvc	r6, r5, #6720	; 0x1a40
    114c:	0100632e 	tsteq	r0, lr, lsr #6
    1150:	70720000 	rsbsvc	r0, r2, r0
    1154:	00682e69 	rsbeq	r2, r8, r9, ror #28
    1158:	00000002 	andeq	r0, r0, r2
    115c:	05002305 	streq	r2, [r0, #-773]	; 0xfffffcfb
    1160:	008ecc02 	addeq	ip, lr, r2, lsl #24
    1164:	05051500 	streq	r1, [r5, #-1280]	; 0xfffffb00
    1168:	060c052f 	streq	r0, [ip], -pc, lsr #10
    116c:	4b010501 	blmi	42578 <__bss_end__+0x38558>
    1170:	4d061f05 	stcmi	15, cr1, [r6, #-20]	; 0xffffffec
    1174:	2f310505 	svccs	0x00310505
    1178:	01061205 	tsteq	r6, r5, lsl #4
    117c:	4b060505 	blmi	182598 <__bss_end__+0x178578>
    1180:	0601052f 	streq	r0, [r1], -pc, lsr #10
    1184:	061c0513 			; <UNDEFINED> instruction: 0x061c0513
    1188:	0501064c 	streq	r0, [r1, #-1612]	; 0xfffff9b4
    118c:	054b0605 	strbeq	r0, [fp, #-1541]	; 0xfffff9fb
    1190:	2e010613 	mcrcs	6, 0, r0, cr1, cr3, {0}
    1194:	2f060505 	svccs	0x00060505
    1198:	05130905 	ldreq	r0, [r3, #-2309]	; 0xfffff6fb
    119c:	05010617 	streq	r0, [r1, #-1559]	; 0xfffff9e9
    11a0:	052f0609 	streq	r0, [pc, #-1545]!	; b9f <__code_start__-0x7461>
    11a4:	05010611 	streq	r0, [r1, #-1553]	; 0xfffff9ef
    11a8:	1c052e0c 	stcne	14, cr2, [r5], {12}
    11ac:	01066b06 	tsteq	r6, r6, lsl #22
    11b0:	2f060505 	svccs	0x00060505
    11b4:	01054a06 	tsteq	r5, r6, lsl #20
    11b8:	061e054b 	ldreq	r0, [lr], -fp, asr #10
    11bc:	0501062f 	streq	r0, [r1, #-1583]	; 0xfffff9d1
    11c0:	062f0605 	strteq	r0, [pc], -r5, lsl #12
    11c4:	4b01054a 	blmi	426f4 <__bss_end__+0x386d4>
    11c8:	01000202 	tsteq	r0, r2, lsl #4
    11cc:	00020401 	andeq	r0, r2, r1, lsl #8
    11d0:	c8000300 	stmdagt	r0, {r8, r9}
    11d4:	02000000 	andeq	r0, r0, #0, 0
    11d8:	0d0efb01 	vstreq	d15, [lr, #-4]
    11dc:	01010100 	mrseq	r0, (UNDEF: 17)
    11e0:	00000001 	andeq	r0, r0, r1
    11e4:	01000001 	tsteq	r0, r1
    11e8:	6d6f682f 	stclvs	8, cr6, [pc, #-188]!	; 1134 <__code_start__-0x6ecc>
    11ec:	6e652f65 	cdpvs	15, 6, cr2, cr5, cr5, {3}
    11f0:	72656c67 	rsbvc	r6, r5, #26368	; 0x6700
    11f4:	616c632f 	cmnvs	ip, pc, lsr #6
    11f8:	632f7373 			; <UNDEFINED> instruction: 0x632f7373
    11fc:	30343173 	eorscc	r3, r4, r3, ror r1
    1200:	32322d65 	eorscc	r2, r2, #6464	; 0x1940
    1204:	2f6e6977 	svccs	0x006e6977
    1208:	62696c2f 	rsbvs	r6, r9, #12032	; 0x2f00
    120c:	692f6970 	stmdbvs	pc!, {r4, r5, r6, r8, fp, sp, lr}	; <UNPREDICTABLE>
    1210:	756c636e 	strbvc	r6, [ip, #-878]!	; 0xfffffc92
    1214:	2f006564 	svccs	0x00006564
    1218:	2f727375 	svccs	0x00727375
    121c:	72616873 	rsbvc	r6, r1, #7536640	; 0x730000
    1220:	63672f65 	cmnvs	r7, #404	; 0x194
    1224:	72612d63 	rsbvc	r2, r1, #6336	; 0x18c0
    1228:	6f6e2d6d 	svcvs	0x006e2d6d
    122c:	652d656e 	strvs	r6, [sp, #-1390]!	; 0xfffffa92
    1230:	2d696261 	sfmcs	f6, 2, [r9, #-388]!	; 0xfffffe7c
    1234:	332e3031 			; <UNDEFINED> instruction: 0x332e3031
    1238:	3230322d 	eorscc	r3, r0, #-805306366	; 0xd0000002
    123c:	30312e31 	eorscc	r2, r1, r1, lsr lr
    1240:	62696c2f 	rsbvs	r6, r9, #12032	; 0x2f00
    1244:	6363672f 	cmnvs	r3, #12320768	; 0xbc0000
    1248:	6d72612f 	ldfvse	f6, [r2, #-188]!	; 0xffffff44
    124c:	6e6f6e2d 	cdpvs	14, 6, cr6, cr15, cr13, {1}
    1250:	61652d65 	cmnvs	r5, r5, ror #26
    1254:	312f6962 			; <UNDEFINED> instruction: 0x312f6962
    1258:	2e332e30 	mrccs	14, 1, r2, cr3, cr0, {1}
    125c:	6e692f31 	mcrvs	15, 3, r2, cr9, cr1, {1}
    1260:	64756c63 	ldrbtvs	r6, [r5], #-3171	; 0xfffff39d
    1264:	75000065 	strvc	r0, [r0, #-101]	; 0xffffff9b
    1268:	2e747261 	cdpcs	2, 7, cr7, cr4, cr1, {3}
    126c:	00000063 	andeq	r0, r0, r3, rrx
    1270:	72617500 	rsbvc	r7, r1, #0, 10
    1274:	00682e74 	rsbeq	r2, r8, r4, ror lr
    1278:	72000001 	andvc	r0, r0, #1, 0
    127c:	682e6970 	stmdavs	lr!, {r4, r5, r6, r8, fp, sp, lr}
    1280:	00000100 	andeq	r0, r0, r0, lsl #2
    1284:	6f697067 	svcvs	0x00697067
    1288:	0100682e 	tsteq	r0, lr, lsr #16
    128c:	74730000 	ldrbtvc	r0, [r3], #-0
    1290:	746e6964 	strbtvc	r6, [lr], #-2404	; 0xfffff69c
    1294:	6363672d 	cmnvs	r3, #11796480	; 0xb40000
    1298:	0200682e 	andeq	r6, r0, #3014656	; 0x2e0000
    129c:	05000000 	streq	r0, [r0, #-0]
    12a0:	02050039 	andeq	r0, r5, #57, 0	; 0x39
    12a4:	00008f50 	andeq	r8, r0, r0, asr pc
    12a8:	06013003 	streq	r3, [r1], -r3
    12ac:	06050501 	streq	r0, [r5], -r1, lsl #10
    12b0:	06110567 	ldreq	r0, [r1], -r7, ror #10
    12b4:	2e050501 	cfsh32cs	mvfx0, mvfx5, #1
    12b8:	05670105 	strbeq	r0, [r7, #-261]!	; 0xfffffefb
    12bc:	06290638 			; <UNDEFINED> instruction: 0x06290638
    12c0:	06050501 	streq	r0, [r5], -r1, lsl #10
    12c4:	06110567 	ldreq	r0, [r1], -r7, ror #10
    12c8:	2e050501 	cfsh32cs	mvfx0, mvfx5, #1
    12cc:	05670105 	strbeq	r0, [r7, #-261]!	; 0xfffffefb
    12d0:	15030616 	strne	r0, [r3, #-1558]	; 0xfffff9ea
    12d4:	3505052e 	strcc	r0, [r5, #-1326]	; 0xfffffad2
    12d8:	68356867 	ldmdavs	r5!, {r0, r1, r2, r5, r6, fp, sp, lr}
    12dc:	852e0c03 	strhi	r0, [lr, #-3075]!	; 0xfffff3fd
    12e0:	0369696b 	cmneq	r9, #1753088	; 0x1ac000
    12e4:	6b13660c 	blvs	4dab1c <__bss_end__+0x4d0afc>
    12e8:	06010567 	streq	r0, [r1], -r7, ror #10
    12ec:	0619052f 	ldreq	r0, [r9], -pc, lsr #10
    12f0:	05052508 	streq	r2, [r5, #-1288]	; 0xfffffaf8
    12f4:	060d0534 			; <UNDEFINED> instruction: 0x060d0534
    12f8:	4c010501 	cfstr32mi	mvfx0, [r1], {1}
    12fc:	67061905 	strvs	r1, [r6, -r5, lsl #18]
    1300:	05360505 	ldreq	r0, [r6, #-1285]!	; 0xfffffafb
    1304:	0501060d 	streq	r0, [r1, #-1549]	; 0xfffff9f3
    1308:	01054a28 	tsteq	r5, r8, lsr #20
    130c:	06150530 			; <UNDEFINED> instruction: 0x06150530
    1310:	2f050587 	svccs	0x00050587
    1314:	0009052f 	andeq	r0, r9, pc, lsr #10
    1318:	13010402 	movwne	r0, #5122	; 0x1402
    131c:	02000a05 	andeq	r0, r0, #20480	; 0x5000
    1320:	05110104 	ldreq	r0, [r1, #-260]	; 0xfffffefc
    1324:	0402000c 	streq	r0, [r2], #-12
    1328:	05010601 	streq	r0, [r1, #-1537]	; 0xfffff9ff
    132c:	0402000a 	streq	r0, [r2], #-10
    1330:	05052e01 	streq	r2, [r5, #-3585]	; 0xfffff1ff
    1334:	0e054c06 	cdpeq	12, 0, cr4, cr5, cr6, {0}
    1338:	09050106 	stmdbeq	r5, {r1, r2, r8}
    133c:	0605054a 	streq	r0, [r5], -sl, asr #10
    1340:	01052f2f 	tsteq	r5, pc, lsr #30
    1344:	1c051306 	stcne	3, cr1, [r5], {6}
    1348:	01066706 	tsteq	r6, r6, lsl #14
    134c:	4b060505 	blmi	182768 <__bss_end__+0x178748>
    1350:	0009052f 	andeq	r0, r9, pc, lsr #10
    1354:	13010402 	movwne	r0, #5122	; 0x1402
    1358:	02000a05 	andeq	r0, r0, #20480	; 0x5000
    135c:	05110104 	ldreq	r0, [r1, #-260]	; 0xfffffefc
    1360:	0402000c 	streq	r0, [r2], #-12
    1364:	05010601 	streq	r0, [r1, #-1537]	; 0xfffff9ff
    1368:	0402000a 	streq	r0, [r2], #-10
    136c:	05052e01 	streq	r2, [r5, #-3585]	; 0xfffff1ff
    1370:	05674c06 	strbeq	r4, [r7, #-3078]!	; 0xfffff3fa
    1374:	052f0601 	streq	r0, [pc, #-1537]!	; d7b <__code_start__-0x7285>
    1378:	054c0619 	strbeq	r0, [ip, #-1561]	; 0xfffff9e7
    137c:	2a052e1b 	bcs	14cbf0 <__bss_end__+0x142bd0>
    1380:	0631052e 	ldrteq	r0, [r1], -lr, lsr #10
    1384:	2e420501 	cdpcs	5, 4, cr0, cr2, cr1, {0}
    1388:	31061c05 	tstcc	r6, r5, lsl #24
    138c:	032f0505 			; <UNDEFINED> instruction: 0x032f0505
    1390:	0e052e09 	cdpeq	14, 0, cr2, cr5, cr9, {0}
    1394:	21050106 	tstcs	r5, r6, lsl #2
    1398:	0301054a 	movweq	r0, #5450	; 0x154a
    139c:	1a052e0a 	bne	14cbcc <__bss_end__+0x142bac>
    13a0:	09056806 	stmdbeq	r5, {r1, r2, fp, sp, lr}
    13a4:	01040200 	mrseq	r0, R12_usr
    13a8:	000a0530 	andeq	r0, sl, r0, lsr r5
    13ac:	11010402 	tstne	r1, r2, lsl #8
    13b0:	02000c05 	andeq	r0, r0, #1280	; 0x500
    13b4:	01060104 	tsteq	r6, r4, lsl #2
    13b8:	02000a05 	andeq	r0, r0, #20480	; 0x5000
    13bc:	052e0104 	streq	r0, [lr, #-260]!	; 0xfffffefc
    13c0:	e8030619 	stmda	r3, {r0, r3, r4, r9, sl}
    13c4:	0505667e 	streq	r6, [r5, #-1662]	; 0xfffff982
    13c8:	672f2f2f 	strvs	r2, [pc, -pc, lsr #30]!
    13cc:	2f060105 	svccs	0x00060105
    13d0:	01000402 	tsteq	r0, r2, lsl #8
    13d4:	00039201 	andeq	r9, r3, r1, lsl #4
    13d8:	b7000300 	strlt	r0, [r0, -r0, lsl #6]
    13dc:	02000000 	andeq	r0, r0, #0, 0
    13e0:	0d0efb01 	vstreq	d15, [lr, #-4]
    13e4:	01010100 	mrseq	r0, (UNDEF: 17)
    13e8:	00000001 	andeq	r0, r0, r1
    13ec:	01000001 	tsteq	r0, r1
    13f0:	6d6f682f 	stclvs	8, cr6, [pc, #-188]!	; 133c <__code_start__-0x6cc4>
    13f4:	6e652f65 	cdpvs	15, 6, cr2, cr5, cr5, {3}
    13f8:	72656c67 	rsbvc	r6, r5, #26368	; 0x6700
    13fc:	616c632f 	cmnvs	ip, pc, lsr #6
    1400:	632f7373 			; <UNDEFINED> instruction: 0x632f7373
    1404:	30343173 	eorscc	r3, r4, r3, ror r1
    1408:	32322d65 	eorscc	r2, r2, #6464	; 0x1940
    140c:	2f6e6977 	svccs	0x006e6977
    1410:	62696c2f 	rsbvs	r6, r9, #12032	; 0x2f00
    1414:	692f6970 	stmdbvs	pc!, {r4, r5, r6, r8, fp, sp, lr}	; <UNPREDICTABLE>
    1418:	756c636e 	strbvc	r6, [ip, #-878]!	; 0xfffffc92
    141c:	2f006564 	svccs	0x00006564
    1420:	2f727375 	svccs	0x00727375
    1424:	72616873 	rsbvc	r6, r1, #7536640	; 0x730000
    1428:	63672f65 	cmnvs	r7, #404	; 0x194
    142c:	72612d63 	rsbvc	r2, r1, #6336	; 0x18c0
    1430:	6f6e2d6d 	svcvs	0x006e2d6d
    1434:	652d656e 	strvs	r6, [sp, #-1390]!	; 0xfffffa92
    1438:	2d696261 	sfmcs	f6, 2, [r9, #-388]!	; 0xfffffe7c
    143c:	332e3031 			; <UNDEFINED> instruction: 0x332e3031
    1440:	3230322d 	eorscc	r3, r0, #-805306366	; 0xd0000002
    1444:	30312e31 	eorscc	r2, r1, r1, lsr lr
    1448:	62696c2f 	rsbvs	r6, r9, #12032	; 0x2f00
    144c:	6363672f 	cmnvs	r3, #12320768	; 0xbc0000
    1450:	6d72612f 	ldfvse	f6, [r2, #-188]!	; 0xffffff44
    1454:	6e6f6e2d 	cdpvs	14, 6, cr6, cr15, cr13, {1}
    1458:	61652d65 	cmnvs	r5, r5, ror #26
    145c:	312f6962 			; <UNDEFINED> instruction: 0x312f6962
    1460:	2e332e30 	mrccs	14, 1, r2, cr3, cr0, {1}
    1464:	6e692f31 	mcrvs	15, 3, r2, cr9, cr1, {1}
    1468:	64756c63 	ldrbtvs	r6, [r5], #-3171	; 0xfffff39d
    146c:	6b000065 	blvs	1608 <__code_start__-0x69f8>
    1470:	6c6c616d 	stfvse	f6, [ip], #-436	; 0xfffffe4c
    1474:	632e636f 			; <UNDEFINED> instruction: 0x632e636f
    1478:	00000000 	andeq	r0, r0, r0
    147c:	2e697072 	mcrcs	0, 3, r7, cr9, cr2, {3}
    1480:	00010068 	andeq	r0, r1, r8, rrx
    1484:	64747300 	ldrbtvs	r7, [r4], #-768	; 0xfffffd00
    1488:	2d746e69 	ldclcs	14, cr6, [r4, #-420]!	; 0xfffffe5c
    148c:	2e636367 	cdpcs	3, 6, cr6, cr3, cr7, {3}
    1490:	00020068 	andeq	r0, r2, r8, rrx
    1494:	1e050000 	cdpne	0, 0, cr0, cr5, cr0, {0}
    1498:	40020500 	andmi	r0, r2, r0, lsl #10
    149c:	03000091 	movweq	r0, #145	; 0x91
    14a0:	20050127 	andcs	r0, r5, r7, lsr #2
    14a4:	062d0501 	strteq	r0, [sp], -r1, lsl #10
    14a8:	06200501 	strteq	r0, [r0], -r1, lsl #10
    14ac:	01220583 	smlawbeq	r2, r3, r5, r0
    14b0:	01063505 	tsteq	r6, r5, lsl #10
    14b4:	83061e05 	movwhi	r1, #28165	; 0x6e05
    14b8:	05012005 	streq	r2, [r1, #-5]
    14bc:	0501062d 	streq	r0, [r1, #-1581]	; 0xfffff9d3
    14c0:	06850642 	streq	r0, [r5], r2, asr #12
    14c4:	06050501 	streq	r0, [r5], -r1, lsl #10
    14c8:	0601144b 	streq	r1, [r1], -fp, asr #8
    14cc:	0402002e 	streq	r0, [r2], #-46	; 0xffffffd2
    14d0:	002e0602 	eoreq	r0, lr, r2, lsl #12
    14d4:	01020402 	tsteq	r2, r2, lsl #8
    14d8:	02040200 	andeq	r0, r4, #0, 4
    14dc:	000d0515 	andeq	r0, sp, r5, lsl r5
    14e0:	06020402 	streq	r0, [r2], -r2, lsl #8
    14e4:	00070501 	andeq	r0, r7, r1, lsl #10
    14e8:	4a020402 	bmi	824f8 <__bss_end__+0x784d8>
    14ec:	4b060905 	blmi	183908 <__bss_end__+0x1798e8>
    14f0:	05150505 	ldreq	r0, [r5, #-1285]	; 0xfffffafb
    14f4:	05010617 	streq	r0, [r1, #-1559]	; 0xfffff9e9
    14f8:	05054a10 	streq	r4, [r5, #-2576]	; 0xfffff5f0
    14fc:	1b052f06 	blne	14d11c <__bss_end__+0x1430fc>
    1500:	0e050106 	adfeqs	f0, f5, f6
    1504:	2f01052e 	svccs	0x0001052e
    1508:	02000505 	andeq	r0, r0, #20971520	; 0x1400000
    150c:	03060104 	movweq	r0, #24836	; 0x6104
    1510:	02004a77 	andeq	r4, r0, #487424	; 0x77000
    1514:	00010104 	andeq	r0, r1, r4, lsl #2
    1518:	06010402 	streq	r0, [r1], -r2, lsl #8
    151c:	0402009e 	streq	r0, [r2], #-158	; 0xffffff62
    1520:	02002e01 	andeq	r2, r0, #1, 28
    1524:	2e060104 	adfcss	f0, f6, f4
    1528:	01320905 	teqeq	r2, r5, lsl #18
    152c:	062ed606 	strteq	sp, [lr], -r6, lsl #12
    1530:	de19052e 	cfmul64le	mvdx0, mvdx9, mvdx14
    1534:	142f0505 	strtne	r0, [pc], #-1285	; 153c <__code_start__-0x6ac4>
    1538:	01060805 	tsteq	r6, r5, lsl #16
    153c:	054a0705 	strbeq	r0, [sl, #-1797]	; 0xfffff8fb
    1540:	054b0609 	strbeq	r0, [fp, #-1545]	; 0xfffff9f7
    1544:	0c051305 	stceq	3, cr1, [r5], {5}
    1548:	05050106 	streq	r0, [r5, #-262]	; 0xfffffefa
    154c:	05136706 	ldreq	r6, [r3, #-1798]	; 0xfffff8fa
    1550:	05670601 	strbeq	r0, [r7, #-1537]!	; 0xfffff9ff
    1554:	012a0609 			; <UNDEFINED> instruction: 0x012a0609
    1558:	a528059e 	strge	r0, [r8, #-1438]!	; 0xfffffa62
    155c:	05050106 	streq	r0, [r5, #-262]	; 0xfffffefa
    1560:	06014b06 	streq	r4, [r1], -r6, lsl #22
    1564:	012e062e 			; <UNDEFINED> instruction: 0x012e062e
    1568:	03180513 	tsteq	r8, #79691776	; 0x4c00000
    156c:	05050147 	streq	r0, [r5, #-327]	; 0xfffffeb9
    1570:	01060113 	tsteq	r6, r3, lsl r1
    1574:	01150f06 	tsteq	r5, r6, lsl #30
    1578:	060e0513 			; <UNDEFINED> instruction: 0x060e0513
    157c:	2e160501 	cfmul32cs	mvfx0, mvfx6, mvfx1
    1580:	0605052e 	streq	r0, [r5], -lr, lsr #10
    1584:	05013903 	streq	r3, [r1, #-2307]	; 0xfffff6fd
    1588:	0501060b 	streq	r0, [r1, #-1547]	; 0xfffff9f5
    158c:	054b0605 	strbeq	r0, [fp, #-1541]	; 0xfffff9fb
    1590:	0501060a 	streq	r0, [r1, #-1546]	; 0xfffff9f6
    1594:	054b0605 	strbeq	r0, [fp, #-1541]	; 0xfffff9fb
    1598:	0501060d 	streq	r0, [r1, #-1549]	; 0xfffff9f3
    159c:	01052e07 	tsteq	r5, r7, lsl #28
    15a0:	0005054d 	andeq	r0, r5, sp, asr #10
    15a4:	06010402 	streq	r0, [r1], -r2, lsl #8
    15a8:	004a7803 	subeq	r7, sl, r3, lsl #16
    15ac:	01010402 	tsteq	r1, r2, lsl #8
    15b0:	01040200 	mrseq	r0, R12_usr
    15b4:	0200ba06 	andeq	fp, r0, #24576	; 0x6000
    15b8:	2e060104 	adfcss	f0, f6, f4
    15bc:	01340905 	teqeq	r4, r5, lsl #18
    15c0:	06668206 	strbteq	r8, [r6], -r6, lsl #4
    15c4:	db20052e 	blle	802a84 <__bss_end__+0x7f8a64>
    15c8:	05050106 	streq	r0, [r5, #-262]	; 0xfffffefa
    15cc:	00014b06 	andeq	r4, r1, r6, lsl #22
    15d0:	4a020402 	bmi	825e0 <__bss_end__+0x785c0>
    15d4:	02040200 	andeq	r0, r4, #0, 4
    15d8:	04020001 	streq	r0, [r2], #-1
    15dc:	12051302 	andne	r1, r5, #134217728	; 0x8000000
    15e0:	02040200 	andeq	r0, r4, #0, 4
    15e4:	02000106 	andeq	r0, r0, #-2147483647	; 0x80000001
    15e8:	002e0204 	eoreq	r0, lr, r4, lsl #4
    15ec:	2e020402 	cdpcs	4, 0, cr0, cr2, cr2, {0}
    15f0:	02000505 	andeq	r0, r0, #20971520	; 0x1400000
    15f4:	2f060204 	svccs	0x00060204
    15f8:	02040200 	andeq	r0, r4, #0, 4
    15fc:	00010567 	andeq	r0, r1, r7, ror #10
    1600:	06020402 	streq	r0, [r2], -r2, lsl #8
    1604:	00050513 	andeq	r0, r5, r3, lsl r5
    1608:	06010402 	streq	r0, [r1], -r2, lsl #8
    160c:	04020062 	streq	r0, [r2], #-98	; 0xffffff9e
    1610:	02000101 	andeq	r0, r0, #1073741824	; 0x40000000
    1614:	ba060104 	blt	181a2c <__bss_end__+0x177a0c>
    1618:	01040200 	mrseq	r0, R12_usr
    161c:	3c052e06 	stccc	14, cr2, [r5], {6}
    1620:	069e0a03 	ldreq	r0, [lr], r3, lsl #20
    1624:	06050501 	streq	r0, [r5], -r1, lsl #10
    1628:	2e06014b 	adfcssm	f0, f6, #3.0
    162c:	13012e06 	movwne	r2, #7686	; 0x1e06
    1630:	03180501 	tsteq	r8, #4194304	; 0x400000
    1634:	05017fad 	streq	r7, [r1, #-4013]	; 0xfffff053
    1638:	11051305 	tstne	r5, r5, lsl #6
    163c:	052e0106 	streq	r0, [lr, #-262]!	; 0xfffffefa
    1640:	00d20305 	sbcseq	r0, r2, r5, lsl #6
    1644:	134a0601 	movtne	r0, #42497	; 0xa601
    1648:	a3031805 	movwge	r1, #14341	; 0x3805
    164c:	0505017f 	streq	r0, [r5, #-383]	; 0xfffffe81
    1650:	06160513 			; <UNDEFINED> instruction: 0x06160513
    1654:	05054a01 	streq	r4, [r5, #-2561]	; 0xfffff5ff
    1658:	00e10306 	rsceq	r0, r1, r6, lsl #6
    165c:	06120501 	ldreq	r0, [r2], -r1, lsl #10
    1660:	06050501 	streq	r0, [r5], -r1, lsl #10
    1664:	0318054b 	tsteq	r8, #314572800	; 0x12c00000
    1668:	05017fa9 	streq	r7, [r1, #-4009]	; 0xfffff057
    166c:	05011305 	streq	r1, [r1, #-773]	; 0xfffffcfb
    1670:	05050e18 	streq	r0, [r5, #-3608]	; 0xfffff1e8
    1674:	06110513 			; <UNDEFINED> instruction: 0x06110513
    1678:	05052e01 	streq	r2, [r5, #-3585]	; 0xfffff1ff
    167c:	014a0615 	cmpeq	sl, r5, lsl r6
    1680:	060e0513 			; <UNDEFINED> instruction: 0x060e0513
    1684:	16052e01 	strne	r2, [r5], -r1, lsl #28
    1688:	05052e2e 	streq	r2, [r5, #-3630]	; 0xfffff1d2
    168c:	00d60306 	sbcseq	r0, r6, r6, lsl #6
    1690:	18050101 	stmdane	r5, {r0, r8}
    1694:	017f9f03 	cmneq	pc, r3, lsl #30
    1698:	05130505 	ldreq	r0, [r3, #-1285]	; 0xfffffafb
    169c:	2e010619 	mcrcs	6, 0, r0, cr1, cr9, {0}
    16a0:	e0030505 	and	r0, r3, r5, lsl #10
    16a4:	02000100 	andeq	r0, r0, #0
    16a8:	4a060204 	bmi	181ec0 <__bss_end__+0x177ea0>
    16ac:	02040200 	andeq	r0, r4, #0, 4
    16b0:	000a0514 	andeq	r0, sl, r4, lsl r5
    16b4:	06020402 	streq	r0, [r2], -r2, lsl #8
    16b8:	00050501 	andeq	r0, r5, r1, lsl #10
    16bc:	06020402 	streq	r0, [r2], -r2, lsl #8
    16c0:	000c054b 	andeq	r0, ip, fp, asr #10
    16c4:	06020402 	streq	r0, [r2], -r2, lsl #8
    16c8:	00010501 	andeq	r0, r1, r1, lsl #10
    16cc:	2f020402 	svccs	0x00020402
    16d0:	02000505 	andeq	r0, r0, #20971520	; 0x1400000
    16d4:	03060104 	movweq	r0, #24836	; 0x6104
    16d8:	02004a73 	andeq	r4, r0, #471040	; 0x73000
    16dc:	00010104 	andeq	r0, r1, r4, lsl #2
    16e0:	06010402 	streq	r0, [r1], -r2, lsl #8
    16e4:	0402009e 	streq	r0, [r2], #-158	; 0xffffff62
    16e8:	02002e01 	andeq	r2, r0, #1, 28
    16ec:	2e060104 	adfcss	f0, f6, f4
    16f0:	01040200 	mrseq	r0, R12_usr
    16f4:	0402002f 	streq	r0, [r2], #-47	; 0xffffffd1
    16f8:	02002e01 	andeq	r2, r0, #1, 28
    16fc:	03d60104 	bicseq	r0, r6, #1
    1700:	012e7fb1 			; <UNDEFINED> instruction: 0x012e7fb1
    1704:	2e2e8206 	cdpcs	2, 2, cr8, cr14, cr6, {0}
    1708:	2e062e06 	cdpcs	14, 0, cr2, cr6, cr6, {0}
    170c:	01040200 	mrseq	r0, R12_usr
    1710:	00d70306 	sbcseq	r0, r7, r6, lsl #6
    1714:	04020001 	streq	r0, [r2], #-1
    1718:	02002e01 	andeq	r2, r0, #1, 28
    171c:	05d60104 	ldrbeq	r0, [r6, #260]	; 0x104
    1720:	057b0815 	ldrbeq	r0, [fp, #-2069]!	; 0xfffff7eb
    1724:	16050117 			; <UNDEFINED> instruction: 0x16050117
    1728:	01180531 	tsteq	r8, r1, lsr r5
    172c:	01061d05 	tsteq	r6, r5, lsl #26
    1730:	05662b05 	strbeq	r2, [r6, #-2821]!	; 0xfffff4fb
    1734:	054d0619 	strbeq	r0, [sp, #-1561]	; 0xfffff9e7
    1738:	0c051305 	stceq	3, cr1, [r5], {5}
    173c:	07050106 	streq	r0, [r5, -r6, lsl #2]
    1740:	0025054a 	eoreq	r0, r5, sl, asr #10
    1744:	4a010402 	bmi	42754 <__bss_end__+0x38734>
    1748:	02001e05 	andeq	r1, r0, #80	; 0x50
    174c:	054a0104 	strbeq	r0, [sl, #-260]	; 0xfffffefc
    1750:	054b0609 	strbeq	r0, [fp, #-1545]	; 0xfffff9f7
    1754:	0a051305 	beq	146370 <__bss_end__+0x13c350>
    1758:	19050106 	stmdbne	r5, {r1, r2, r8}
    175c:	06090563 	streq	r0, [r9], -r3, ror #10
    1760:	9e06014c 	adflssm	f0, f6, #4.0
    1764:	0a022e06 	beq	8cf84 <__bss_end__+0x82f64>
    1768:	f1010100 	setend	le
    176c:	03000000 	movweq	r0, #0
    1770:	0000c100 	andeq	ip, r0, r0, lsl #2
    1774:	fb010200 	blx	41f7e <__bss_end__+0x37f5e>
    1778:	01000d0e 	tsteq	r0, lr, lsl #26
    177c:	00010101 	andeq	r0, r1, r1, lsl #2
    1780:	00010000 	andeq	r0, r1, r0
    1784:	2f2e0100 	svccs	0x002e0100
    1788:	6362696c 	cmnvs	r2, #108, 18	; 0x1b0000
    178c:	73552f00 	cmpvc	r5, #0, 30
    1790:	2f737265 	svccs	0x00737265
    1794:	656c696d 	strbvs	r6, [ip, #-2413]!	; 0xfffff693
    1798:	6f532f73 	svcvs	0x00532f73
    179c:	65637275 	strbvs	r7, [r3, #-629]!	; 0xfffffd8b
    17a0:	3273632f 	rsbscc	r6, r3, #-1140850688	; 0xbc000000
    17a4:	786c3034 	stmdavc	ip!, {r2, r4, r5, ip, sp}^
    17a8:	62696c2f 	rsbvs	r6, r9, #12032	; 0x2f00
    17ac:	692f6970 	stmdbvs	pc!, {r4, r5, r6, r8, fp, sp, lr}	; <UNPREDICTABLE>
    17b0:	756c636e 	strbvc	r6, [ip, #-878]!	; 0xfffffc92
    17b4:	2f006564 	svccs	0x00006564
    17b8:	2f74706f 	svccs	0x0074706f
    17bc:	656d6f68 	strbvs	r6, [sp, #-3944]!	; 0xfffff098
    17c0:	77657262 	strbvc	r7, [r5, -r2, ror #4]!
    17c4:	6c65432f 	stclvs	3, cr4, [r5], #-188	; 0xffffff44
    17c8:	2f72616c 	svccs	0x0072616c
    17cc:	2d6d7261 	sfmcs	f7, 2, [sp, #-388]!	; 0xfffffe7c
    17d0:	656e6f6e 	strbvs	r6, [lr, #-3950]!	; 0xfffff092
    17d4:	6261652d 	rsbvs	r6, r1, #188743680	; 0xb400000
    17d8:	65742d69 	ldrbvs	r2, [r4, #-3433]!	; 0xfffff297
    17dc:	392f7473 	stmdbcc	pc!, {r0, r1, r4, r5, r6, sl, ip, sp, lr}	; <UNPREDICTABLE>
    17e0:	3130322d 	teqcc	r0, sp, lsr #4
    17e4:	2d347139 	ldfcss	f7, [r4, #-228]!	; 0xffffff1c
    17e8:	30317363 	eorscc	r7, r1, r3, ror #6
    17ec:	6c2f6537 	cfstr32vs	mvfx6, [pc], #-220	; 1718 <__code_start__-0x68e8>
    17f0:	672f6269 	strvs	r6, [pc, -r9, ror #4]!
    17f4:	612f6363 			; <UNDEFINED> instruction: 0x612f6363
    17f8:	6e2d6d72 	mcrvs	13, 1, r6, cr13, cr2, {3}
    17fc:	2d656e6f 	stclcs	14, cr6, [r5, #-444]!	; 0xfffffe44
    1800:	69626165 	stmdbvs	r2!, {r0, r2, r5, r6, r8, sp, lr}^
    1804:	322e392f 	eorcc	r3, lr, #770048	; 0xbc000
    1808:	692f312e 	stmdbvs	pc!, {r1, r2, r3, r5, r8, ip, sp}	; <UNPREDICTABLE>
    180c:	756c636e 	strbvc	r6, [ip, #-878]!	; 0xfffffc92
    1810:	00006564 	andeq	r6, r0, r4, ror #10
    1814:	736d656d 	cmnvc	sp, #457179136	; 0x1b400000
    1818:	632e7465 			; <UNDEFINED> instruction: 0x632e7465
    181c:	00000100 	andeq	r0, r0, r0, lsl #2
    1820:	2e697072 	mcrcs	0, 3, r7, cr9, cr2, {3}
    1824:	00020068 	andeq	r0, r2, r8, rrx
    1828:	64747300 	ldrbtvs	r7, [r4], #-768	; 0xfffffd00
    182c:	2e666564 	cdpcs	5, 6, cr6, cr6, cr4, {3}
    1830:	00030068 	andeq	r0, r3, r8, rrx
    1834:	29050000 	stmdbcs	r5, {}	; <UNPREDICTABLE>
    1838:	f0020500 			; <UNDEFINED> instruction: 0xf0020500
    183c:	15000094 	strne	r0, [r0, #-148]	; 0xffffff6c
    1840:	05130505 	ldreq	r0, [r3, #-1285]	; 0xfffffafb
    1844:	05010614 	streq	r0, [r1, #-1556]	; 0xfffff9ec
    1848:	05300605 	ldreq	r0, [r0, #-1541]!	; 0xfffff9fb
    184c:	0510060b 	ldreq	r0, [r0, #-1547]	; 0xfffff9f5
    1850:	0530060a 	ldreq	r0, [r0, #-1546]!	; 0xfffff9f6
    1854:	0e054b09 	vmlaeq.f64	d4, d5, d9
    1858:	022e0106 	eoreq	r0, lr, #-2147483647	; 0x80000001
    185c:	01010002 	tsteq	r1, r2
    1860:	000000e4 	andeq	r0, r0, r4, ror #1
    1864:	00590003 	subseq	r0, r9, r3
    1868:	01020000 	mrseq	r0, (UNDEF: 2)
    186c:	000d0efb 	strdeq	r0, [sp], -fp
    1870:	01010101 	tsteq	r1, r1, lsl #2
    1874:	01000000 	mrseq	r0, (UNDEF: 0)
    1878:	2e010000 	cdpcs	0, 0, cr0, cr1, cr0, {0}
    187c:	62696c2f 	rsbvs	r6, r9, #12032	; 0x2f00
    1880:	552f0063 	strpl	r0, [pc, #-99]!	; 1825 <__code_start__-0x67db>
    1884:	73726573 	cmnvc	r2, #482344960	; 0x1cc00000
    1888:	6c696d2f 	stclvs	13, cr6, [r9], #-188	; 0xffffff44
    188c:	532f7365 			; <UNDEFINED> instruction: 0x532f7365
    1890:	6372756f 	cmnvs	r2, #465567744	; 0x1bc00000
    1894:	73632f65 	cmnvc	r3, #404	; 0x194
    1898:	6c303432 	cfldrsvs	mvf3, [r0], #-200	; 0xffffff38
    189c:	696c2f78 	stmdbvs	ip!, {r3, r4, r5, r6, r8, r9, sl, fp, sp}^
    18a0:	2f697062 	svccs	0x00697062
    18a4:	6c636e69 	stclvs	14, cr6, [r3], #-420	; 0xfffffe5c
    18a8:	00656475 	rsbeq	r6, r5, r5, ror r4
    18ac:	72747300 	rsbsvc	r7, r4, #0, 6
    18b0:	2e746163 	rpwcssz	f6, f4, f3
    18b4:	00010063 	andeq	r0, r1, r3, rrx
    18b8:	69707200 	ldmdbvs	r0!, {r9, ip, sp, lr}^
    18bc:	0200682e 	andeq	r6, r0, #3014656	; 0x2e0000
    18c0:	05000000 	streq	r0, [r0, #-0]
    18c4:	0205002c 	andeq	r0, r5, #44, 0	; 0x2c
    18c8:	00009508 	andeq	r9, r0, r8, lsl #10
    18cc:	13050515 	movwne	r0, #21781	; 0x5515
    18d0:	060b0513 			; <UNDEFINED> instruction: 0x060b0513
    18d4:	00050511 	andeq	r0, r5, r1, lsl r5
    18d8:	06010402 	streq	r0, [r1], -r2, lsl #8
    18dc:	04020030 	streq	r0, [r2], #-48	; 0xffffffd0
    18e0:	09051501 	stmdbeq	r5, {r0, r8, sl, ip}
    18e4:	01040200 	mrseq	r0, R12_usr
    18e8:	00100513 	andseq	r0, r0, r3, lsl r5
    18ec:	06010402 	streq	r0, [r1], -r2, lsl #8
    18f0:	000b052e 	andeq	r0, fp, lr, lsr #10
    18f4:	2e010402 	cdpcs	4, 0, cr0, cr1, cr2, {0}
    18f8:	01040200 	mrseq	r0, R12_usr
    18fc:	05052f06 	streq	r2, [r5, #-3846]	; 0xfffff0fa
    1900:	01040200 	mrseq	r0, R12_usr
    1904:	4e060106 	adfmis	f0, f6, f6
    1908:	01060805 	tsteq	r6, r5, lsl #16
    190c:	02000505 	andeq	r0, r0, #20971520	; 0x1400000
    1910:	2f060104 	svccs	0x00060104
    1914:	02000905 	andeq	r0, r0, #81920	; 0x14000
    1918:	05130104 	ldreq	r0, [r3, #-260]	; 0xfffffefc
    191c:	0402000b 	streq	r0, [r2], #-11
    1920:	05010601 	streq	r0, [r1, #-1537]	; 0xfffff9ff
    1924:	04020009 	streq	r0, [r2], #-9
    1928:	054b0601 	strbeq	r0, [fp, #-1537]	; 0xfffff9ff
    192c:	0402000f 	streq	r0, [r2], #-15
    1930:	05010601 	streq	r0, [r1, #-1537]	; 0xfffff9ff
    1934:	0402000d 	streq	r0, [r2], #-13
    1938:	052f0601 	streq	r0, [pc, #-1537]!	; 133f <__code_start__-0x6cc1>
    193c:	04020005 	streq	r0, [r2], #-5
    1940:	02010601 	andeq	r0, r1, #1048576	; 0x100000
    1944:	01010006 	tsteq	r1, r6
    1948:	0000009d 	muleq	r0, sp, r0
    194c:	00590003 	subseq	r0, r9, r3
    1950:	01020000 	mrseq	r0, (UNDEF: 2)
    1954:	000d0efb 	strdeq	r0, [sp], -fp
    1958:	01010101 	tsteq	r1, r1, lsl #2
    195c:	01000000 	mrseq	r0, (UNDEF: 0)
    1960:	2e010000 	cdpcs	0, 0, cr0, cr1, cr0, {0}
    1964:	62696c2f 	rsbvs	r6, r9, #12032	; 0x2f00
    1968:	552f0063 	strpl	r0, [pc, #-99]!	; 190d <__code_start__-0x66f3>
    196c:	73726573 	cmnvc	r2, #482344960	; 0x1cc00000
    1970:	6c696d2f 	stclvs	13, cr6, [r9], #-188	; 0xffffff44
    1974:	532f7365 			; <UNDEFINED> instruction: 0x532f7365
    1978:	6372756f 	cmnvs	r2, #465567744	; 0x1bc00000
    197c:	73632f65 	cmnvc	r3, #404	; 0x194
    1980:	6c303432 	cfldrsvs	mvf3, [r0], #-200	; 0xffffff38
    1984:	696c2f78 	stmdbvs	ip!, {r3, r4, r5, r6, r8, r9, sl, fp, sp}^
    1988:	2f697062 	svccs	0x00697062
    198c:	6c636e69 	stclvs	14, cr6, [r3], #-420	; 0xfffffe5c
    1990:	00656475 	rsbeq	r6, r5, r5, ror r4
    1994:	72747300 	rsbsvc	r7, r4, #0, 6
    1998:	2e706d63 	cdpcs	13, 7, cr6, cr0, cr3, {3}
    199c:	00010063 	andeq	r0, r1, r3, rrx
    19a0:	69707200 	ldmdbvs	r0!, {r9, ip, sp, lr}^
    19a4:	0200682e 	andeq	r6, r0, #3014656	; 0x2e0000
    19a8:	05000000 	streq	r0, [r0, #-0]
    19ac:	0205002a 	andeq	r0, r5, #42, 0	; 0x2a
    19b0:	0000953c 	andeq	r9, r0, ip, lsr r5
    19b4:	13090514 	movwne	r0, #38164	; 0x9514
    19b8:	05010f05 	streq	r0, [r1, #-3845]	; 0xfffff0fb
    19bc:	05010610 	streq	r0, [r1, #-1552]	; 0xfffff9f0
    19c0:	1c052e0f 	stcne	14, cr2, [r5], {15}
    19c4:	01040200 	mrseq	r0, R12_usr
    19c8:	0013054a 	andseq	r0, r3, sl, asr #10
    19cc:	2e010402 	cdpcs	4, 0, cr0, cr1, cr2, {0}
    19d0:	2f061105 	svccs	0x00061105
    19d4:	2e061605 	cfmadd32cs	mvax0, mvfx1, mvfx6, mvfx5
    19d8:	0609052e 	streq	r0, [r9], -lr, lsr #10
    19dc:	0615052f 	ldreq	r0, [r5], -pc, lsr #10
    19e0:	2f010501 	svccs	0x00010501
    19e4:	01000402 	tsteq	r0, r2, lsl #8
    19e8:	00009b01 	andeq	r9, r0, r1, lsl #22
    19ec:	59000300 	stmdbpl	r0, {r8, r9}
    19f0:	02000000 	andeq	r0, r0, #0, 0
    19f4:	0d0efb01 	vstreq	d15, [lr, #-4]
    19f8:	01010100 	mrseq	r0, (UNDEF: 17)
    19fc:	00000001 	andeq	r0, r0, r1
    1a00:	01000001 	tsteq	r0, r1
    1a04:	696c2f2e 	stmdbvs	ip!, {r1, r2, r3, r5, r8, r9, sl, fp, sp}^
    1a08:	2f006362 	svccs	0x00006362
    1a0c:	72657355 	rsbvc	r7, r5, #1409286145	; 0x54000001
    1a10:	696d2f73 	stmdbvs	sp!, {r0, r1, r4, r5, r6, r8, r9, sl, fp, sp}^
    1a14:	2f73656c 	svccs	0x0073656c
    1a18:	72756f53 	rsbsvc	r6, r5, #332	; 0x14c
    1a1c:	632f6563 			; <UNDEFINED> instruction: 0x632f6563
    1a20:	30343273 	eorscc	r3, r4, r3, ror r2
    1a24:	6c2f786c 	stcvs	8, cr7, [pc], #-432	; 187c <__code_start__-0x6784>
    1a28:	69706269 	ldmdbvs	r0!, {r0, r3, r5, r6, r9, sp, lr}^
    1a2c:	636e692f 	cmnvs	lr, #770048	; 0xbc000
    1a30:	6564756c 	strbvs	r7, [r4, #-1388]!	; 0xfffffa94
    1a34:	74730000 	ldrbtvc	r0, [r3], #-0
    1a38:	79706372 	ldmdbvc	r0!, {r1, r4, r5, r6, r8, r9, sp, lr}^
    1a3c:	0100632e 	tsteq	r0, lr, lsr #6
    1a40:	70720000 	rsbsvc	r0, r2, r0
    1a44:	00682e69 	rsbeq	r2, r8, r9, ror #28
    1a48:	00000002 	andeq	r0, r0, r2
    1a4c:	05002a05 	streq	r2, [r0, #-2565]	; 0xfffff5fb
    1a50:	00956802 	addseq	r6, r5, r2, lsl #16
    1a54:	05051400 	streq	r1, [r5, #-1024]	; 0xfffffc00
    1a58:	14051313 	strne	r1, [r5], #-787	; 0xfffffced
    1a5c:	22051106 	andcs	r1, r5, #-2147483647	; 0x80000001
    1a60:	01040200 	mrseq	r0, R12_usr
    1a64:	0b052f06 	bleq	14d684 <__bss_end__+0x143664>
    1a68:	01040200 	mrseq	r0, R12_usr
    1a6c:	00150501 	andseq	r0, r5, r1, lsl #10
    1a70:	06010402 	streq	r0, [r1], -r2, lsl #8
    1a74:	00130501 	andseq	r0, r3, r1, lsl #10
    1a78:	4a010402 	bmi	42a88 <__bss_end__+0x38a68>
    1a7c:	02000b05 	andeq	r0, r0, #5120	; 0x1400
    1a80:	024a0104 	subeq	r0, sl, #1
    1a84:	01010006 	tsteq	r1, r6
    1a88:	000000fe 	strdeq	r0, [r0], -lr
    1a8c:	00c20003 	sbceq	r0, r2, r3
    1a90:	01020000 	mrseq	r0, (UNDEF: 2)
    1a94:	000d0efb 	strdeq	r0, [sp], -fp
    1a98:	01010101 	tsteq	r1, r1, lsl #2
    1a9c:	01000000 	mrseq	r0, (UNDEF: 0)
    1aa0:	2e010000 	cdpcs	0, 0, cr0, cr1, cr0, {0}
    1aa4:	62696c2f 	rsbvs	r6, r9, #12032	; 0x2f00
    1aa8:	552f0063 	strpl	r0, [pc, #-99]!	; 1a4d <__code_start__-0x65b3>
    1aac:	73726573 	cmnvc	r2, #482344960	; 0x1cc00000
    1ab0:	6c696d2f 	stclvs	13, cr6, [r9], #-188	; 0xffffff44
    1ab4:	532f7365 			; <UNDEFINED> instruction: 0x532f7365
    1ab8:	6372756f 	cmnvs	r2, #465567744	; 0x1bc00000
    1abc:	73632f65 	cmnvc	r3, #404	; 0x194
    1ac0:	6c303432 	cfldrsvs	mvf3, [r0], #-200	; 0xffffff38
    1ac4:	696c2f78 	stmdbvs	ip!, {r3, r4, r5, r6, r8, r9, sl, fp, sp}^
    1ac8:	2f697062 	svccs	0x00697062
    1acc:	6c636e69 	stclvs	14, cr6, [r3], #-420	; 0xfffffe5c
    1ad0:	00656475 	rsbeq	r6, r5, r5, ror r4
    1ad4:	74706f2f 	ldrbtvc	r6, [r0], #-3887	; 0xfffff0d1
    1ad8:	6d6f682f 	stclvs	8, cr6, [pc, #-188]!	; 1a24 <__code_start__-0x65dc>
    1adc:	65726265 	ldrbvs	r6, [r2, #-613]!	; 0xfffffd9b
    1ae0:	65432f77 	strbvs	r2, [r3, #-3959]	; 0xfffff089
    1ae4:	72616c6c 	rsbvc	r6, r1, #108, 24	; 0x6c00
    1ae8:	6d72612f 	ldfvse	f6, [r2, #-188]!	; 0xffffff44
    1aec:	6e6f6e2d 	cdpvs	14, 6, cr6, cr15, cr13, {1}
    1af0:	61652d65 	cmnvs	r5, r5, ror #26
    1af4:	742d6962 	strtvc	r6, [sp], #-2402	; 0xfffff69e
    1af8:	2f747365 	svccs	0x00747365
    1afc:	30322d39 	eorscc	r2, r2, r9, lsr sp
    1b00:	34713931 	ldrbtcc	r3, [r1], #-2353	; 0xfffff6cf
    1b04:	3173632d 	cmncc	r3, sp, lsr #6
    1b08:	2f653730 	svccs	0x00653730
    1b0c:	2f62696c 	svccs	0x0062696c
    1b10:	2f636367 	svccs	0x00636367
    1b14:	2d6d7261 	sfmcs	f7, 2, [sp, #-388]!	; 0xfffffe7c
    1b18:	656e6f6e 	strbvs	r6, [lr, #-3950]!	; 0xfffff092
    1b1c:	6261652d 	rsbvs	r6, r1, #188743680	; 0xb400000
    1b20:	2e392f69 	cdpcs	15, 3, cr2, cr9, cr9, {3}
    1b24:	2f312e32 	svccs	0x00312e32
    1b28:	6c636e69 	stclvs	14, cr6, [r3], #-420	; 0xfffffe5c
    1b2c:	00656475 	rsbeq	r6, r5, r5, ror r4
    1b30:	72747300 	rsbsvc	r7, r4, #0, 6
    1b34:	706d636e 	rsbvc	r6, sp, lr, ror #6
    1b38:	0100632e 	tsteq	r0, lr, lsr #6
    1b3c:	70720000 	rsbsvc	r0, r2, r0
    1b40:	00682e69 	rsbeq	r2, r8, r9, ror #28
    1b44:	73000002 	movwvc	r0, #2
    1b48:	65646474 	strbvs	r6, [r4, #-1140]!	; 0xfffffb8c
    1b4c:	00682e66 	rsbeq	r2, r8, r6, ror #28
    1b50:	00000003 	andeq	r0, r0, r3
    1b54:	05003905 	streq	r3, [r0, #-2309]	; 0xfffff6fb
    1b58:	00958802 	addseq	r8, r5, r2, lsl #16
    1b5c:	05051500 	streq	r1, [r5, #-1280]	; 0xfffffb00
    1b60:	0a051313 	beq	1467b4 <__bss_end__+0x13c794>
    1b64:	4a010601 	bmi	43370 <__bss_end__+0x39350>
    1b68:	2f060905 	svccs	0x00060905
    1b6c:	01060c05 	tsteq	r6, r5, lsl #24
    1b70:	052e1305 	streq	r1, [lr, #-773]!	; 0xfffffcfb
    1b74:	0d052e0b 	stceq	14, cr2, [r5, #-44]	; 0xffffffd4
    1b78:	1b054b06 	blne	154798 <__bss_end__+0x14a778>
    1b7c:	052e0106 	streq	r0, [lr, #-262]!	; 0xfffffefa
    1b80:	0105300c 	tsteq	r5, ip
    1b84:	0002022f 	andeq	r0, r2, pc, lsr #4
    1b88:	008a0101 	addeq	r0, sl, r1, lsl #2
    1b8c:	00030000 	andeq	r0, r3, r0
    1b90:	0000006e 	andeq	r0, r0, lr, rrx
    1b94:	0efb0102 	cdpeq	1, 15, cr0, cr11, cr2, {0}
    1b98:	0101000d 	tsteq	r1, sp
    1b9c:	00000101 	andeq	r0, r0, r1, lsl #2
    1ba0:	00000100 	andeq	r0, r0, r0, lsl #2
    1ba4:	732f2e01 			; <UNDEFINED> instruction: 0x732f2e01
    1ba8:	66666174 			; <UNDEFINED> instruction: 0x66666174
    1bac:	6372732d 	cmnvs	r2, #-1275068416	; 0xb4000000
    1bb0:	73552f00 	cmpvc	r5, #0, 30
    1bb4:	2f737265 	svccs	0x00737265
    1bb8:	656c696d 	strbvs	r6, [ip, #-2413]!	; 0xfffff693
    1bbc:	6f532f73 	svcvs	0x00532f73
    1bc0:	65637275 	strbvs	r7, [r3, #-629]!	; 0xfffffd8b
    1bc4:	3273632f 	rsbscc	r6, r3, #-1140850688	; 0xbc000000
    1bc8:	786c3034 	stmdavc	ip!, {r2, r4, r5, ip, sp}^
    1bcc:	62696c2f 	rsbvs	r6, r9, #12032	; 0x2f00
    1bd0:	692f6970 	stmdbvs	pc!, {r4, r5, r6, r8, fp, sp, lr}	; <UNPREDICTABLE>
    1bd4:	756c636e 	strbvc	r6, [ip, #-878]!	; 0xfffffc92
    1bd8:	00006564 	andeq	r6, r0, r4, ror #10
    1bdc:	61666564 	cmnvs	r6, r4, ror #10
    1be0:	2d746c75 	ldclcs	12, cr6, [r4, #-468]!	; 0xfffffe2c
    1be4:	6f626572 	svcvs	0x00626572
    1be8:	632d746f 			; <UNDEFINED> instruction: 0x632d746f
    1bec:	6f6c6c61 	svcvs	0x006c6c61
    1bf0:	632e7475 			; <UNDEFINED> instruction: 0x632e7475
    1bf4:	00000100 	andeq	r0, r0, r0, lsl #2
    1bf8:	2e697072 	mcrcs	0, 3, r7, cr9, cr2, {3}
    1bfc:	00020068 	andeq	r0, r2, r8, rrx
    1c00:	1b050000 	blne	141c08 <__bss_end__+0x137be8>
    1c04:	b4020500 	strlt	r0, [r2], #-1280	; 0xfffffb00
    1c08:	14000095 	strne	r0, [r0], #-149	; 0xffffff6b
    1c0c:	05011c05 	streq	r1, [r1, #-3077]	; 0xfffff3fb
    1c10:	02010601 	andeq	r0, r1, #1048576	; 0x100000
    1c14:	01010002 	tsteq	r1, r2
    1c18:	000001ba 			; <UNDEFINED> instruction: 0x000001ba
    1c1c:	00be0003 	adcseq	r0, lr, r3
    1c20:	01020000 	mrseq	r0, (UNDEF: 2)
    1c24:	000d0efb 	strdeq	r0, [sp], -fp
    1c28:	01010101 	tsteq	r1, r1, lsl #2
    1c2c:	01000000 	mrseq	r0, (UNDEF: 0)
    1c30:	2f010000 	svccs	0x00010000
    1c34:	656d6f68 	strbvs	r6, [sp, #-3944]!	; 0xfffff098
    1c38:	676e652f 	strbvs	r6, [lr, -pc, lsr #10]!
    1c3c:	2f72656c 	svccs	0x0072656c
    1c40:	73616c63 	cmnvc	r1, #25344	; 0x6300
    1c44:	73632f73 	cmnvc	r3, #460	; 0x1cc
    1c48:	65303431 	ldrvs	r3, [r0, #-1073]!	; 0xfffffbcf
    1c4c:	7732322d 	ldrvc	r3, [r2, -sp, lsr #4]!
    1c50:	2f2f6e69 	svccs	0x002f6e69
    1c54:	7062696c 	rsbvc	r6, r2, ip, ror #18
    1c58:	6e692f69 	cdpvs	15, 6, cr2, cr9, cr9, {3}
    1c5c:	64756c63 	ldrbtvs	r6, [r5], #-3171	; 0xfffff39d
    1c60:	752f0065 	strvc	r0, [pc, #-101]!	; 1c03 <__code_start__-0x63fd>
    1c64:	732f7273 			; <UNDEFINED> instruction: 0x732f7273
    1c68:	65726168 	ldrbvs	r6, [r2, #-360]!	; 0xfffffe98
    1c6c:	6363672f 	cmnvs	r3, #12320768	; 0xbc0000
    1c70:	6d72612d 	ldfvse	f6, [r2, #-180]!	; 0xffffff4c
    1c74:	6e6f6e2d 	cdpvs	14, 6, cr6, cr15, cr13, {1}
    1c78:	61652d65 	cmnvs	r5, r5, ror #26
    1c7c:	312d6962 			; <UNDEFINED> instruction: 0x312d6962
    1c80:	2d332e30 	ldccs	14, cr2, [r3, #-192]!	; 0xffffff40
    1c84:	31323032 	teqcc	r2, r2, lsr r0
    1c88:	2f30312e 	svccs	0x0030312e
    1c8c:	2f62696c 	svccs	0x0062696c
    1c90:	2f636367 	svccs	0x00636367
    1c94:	2d6d7261 	sfmcs	f7, 2, [sp, #-388]!	; 0xfffffe7c
    1c98:	656e6f6e 	strbvs	r6, [lr, #-3950]!	; 0xfffff092
    1c9c:	6261652d 	rsbvs	r6, r1, #188743680	; 0xb400000
    1ca0:	30312f69 	eorscc	r2, r1, r9, ror #30
    1ca4:	312e332e 			; <UNDEFINED> instruction: 0x312e332e
    1ca8:	636e692f 	cmnvs	lr, #770048	; 0xbc000
    1cac:	6564756c 	strbvs	r7, [r4, #-1388]!	; 0xfffffa94
    1cb0:	70670000 	rsbvc	r0, r7, r0
    1cb4:	632e6f69 			; <UNDEFINED> instruction: 0x632e6f69
    1cb8:	00000000 	andeq	r0, r0, r0
    1cbc:	2e697072 	mcrcs	0, 3, r7, cr9, cr2, {3}
    1cc0:	00010068 	andeq	r0, r1, r8, rrx
    1cc4:	64747300 	ldrbtvs	r7, [r4], #-768	; 0xfffffd00
    1cc8:	2d746e69 	ldclcs	14, cr6, [r4, #-420]!	; 0xfffffe5c
    1ccc:	2e636367 	cdpcs	3, 6, cr6, cr3, cr7, {3}
    1cd0:	00020068 	andeq	r0, r2, r8, rrx
    1cd4:	69706700 	ldmdbvs	r0!, {r8, r9, sl, sp, lr}^
    1cd8:	00682e6f 	rsbeq	r2, r8, pc, ror #28
    1cdc:	00000001 	andeq	r0, r0, r1
    1ce0:	05003805 	streq	r3, [r0, #-2053]	; 0xfffff7fb
    1ce4:	0095d002 	addseq	sp, r5, r2
    1ce8:	01270300 			; <UNDEFINED> instruction: 0x01270300
    1cec:	05130505 	ldreq	r0, [r3, #-1285]	; 0xfffffafb
    1cf0:	05010607 	streq	r0, [r1, #-1543]	; 0xfffff9f9
    1cf4:	05054938 	streq	r4, [r5, #-2360]	; 0xfffff6c8
    1cf8:	07054d06 	streq	r4, [r5, -r6, lsl #26]
    1cfc:	05050106 	streq	r0, [r5, #-262]	; 0xfffffefa
    1d00:	18054c06 	stmdane	r5, {r1, r2, sl, fp, lr}
    1d04:	0e050106 	adfeqs	f0, f5, f6
    1d08:	060505ba 			; <UNDEFINED> instruction: 0x060505ba
    1d0c:	061c052f 	ldreq	r0, [ip], -pc, lsr #10
    1d10:	0e052e01 	cdpeq	14, 0, cr2, cr5, cr1, {0}
    1d14:	0605052e 	streq	r0, [r5], -lr, lsr #10
    1d18:	06120530 			; <UNDEFINED> instruction: 0x06120530
    1d1c:	06050501 	streq	r0, [r5], -r1, lsl #10
    1d20:	0607054b 	streq	r0, [r7], -fp, asr #10
    1d24:	06050501 	streq	r0, [r5], -r1, lsl #10
    1d28:	2e06134b 	cdpcs	3, 0, cr1, cr6, cr11, {2}
    1d2c:	054b0105 	strbeq	r0, [fp, #-261]	; 0xfffffefb
    1d30:	064c0624 	strbeq	r0, [ip], -r4, lsr #12
    1d34:	06050501 	streq	r0, [r5], -r1, lsl #10
    1d38:	0601052f 	streq	r0, [r1], -pc, lsr #10
    1d3c:	0620054b 	strteq	r0, [r0], -fp, asr #10
    1d40:	13050531 	movwne	r0, #21809	; 0x5531
    1d44:	01060705 	tsteq	r6, r5, lsl #14
    1d48:	05492005 	strbeq	r2, [r9, #-5]
    1d4c:	06310605 	ldrteq	r0, [r1], -r5, lsl #12
    1d50:	2f010566 	svccs	0x00010566
    1d54:	4d062105 	stfmis	f2, [r6, #-20]	; 0xffffffec
    1d58:	05130505 	ldreq	r0, [r3, #-1285]	; 0xfffffafb
    1d5c:	05010607 	streq	r0, [r1, #-1543]	; 0xfffff9f9
    1d60:	05054921 	streq	r4, [r5, #-2337]	; 0xfffff6df
    1d64:	66063106 	strvs	r3, [r6], -r6, lsl #2
    1d68:	052f0105 	streq	r0, [pc, #-261]!	; 1c6b <__code_start__-0x6395>
    1d6c:	064d0623 	strbeq	r0, [sp], -r3, lsr #12
    1d70:	06050501 	streq	r0, [r5], -r1, lsl #10
    1d74:	0601052f 	streq	r0, [r1], -pc, lsr #10
    1d78:	062b054b 	strteq	r0, [fp], -fp, asr #10
    1d7c:	05010631 	streq	r0, [r1, #-1585]	; 0xfffff9cf
    1d80:	052f0605 	streq	r0, [pc, #-1541]!	; 1783 <__code_start__-0x687d>
    1d84:	05010607 	streq	r0, [r1, #-1543]	; 0xfffff9f9
    1d88:	064b0609 	strbeq	r0, [fp], -r9, lsl #12
    1d8c:	0530062e 	ldreq	r0, [r0, #-1582]!	; 0xfffff9d2
    1d90:	052f0601 	streq	r0, [pc, #-1537]!	; 1797 <__code_start__-0x6869>
    1d94:	0530061d 	ldreq	r0, [r0, #-1565]!	; 0xfffff9e3
    1d98:	07051305 	streq	r1, [r5, -r5, lsl #6]
    1d9c:	1d050106 	stfnes	f0, [r5, #-24]	; 0xffffffe8
    1da0:	06050549 	streq	r0, [r5], -r9, asr #10
    1da4:	0e051331 	mcreq	3, 0, r1, cr5, cr1, {1}
    1da8:	05050106 	streq	r0, [r5, #-262]	; 0xfffffefa
    1dac:	17052f06 	strne	r2, [r5, -r6, lsl #30]
    1db0:	054a0106 	strbeq	r0, [sl, #-262]	; 0xfffffefa
    1db4:	02042e23 	andeq	r2, r4, #560	; 0x230
    1db8:	03063005 	movweq	r3, #24581	; 0x6005
    1dbc:	042e00d7 	strteq	r0, [lr], #-215	; 0xffffff29
    1dc0:	060c0501 	streq	r0, [ip], -r1, lsl #10
    1dc4:	017fa903 	cmneq	pc, r3, lsl #18
    1dc8:	052f0105 	streq	r0, [pc, #-261]!	; 1ccb <__code_start__-0x6335>
    1dcc:	01052a10 	tsteq	r5, r0, lsl sl
    1dd0:	00040232 	andeq	r0, r4, r2, lsr r2
    1dd4:	Address 0x0000000000001dd4 is out of bounds.


Disassembly of section .debug_str:

00000000 <.debug_str>:
   0:	5f6d7261 	svcpl	0x006d7261
   4:	5f6e766d 	svcpl	0x006e766d
   8:	6100706f 	tstvs	r0, pc, rrx
   c:	735f6d72 	cmpvc	pc, #7296	; 0x1c80
  10:	72610070 	rsbvc	r0, r1, #112, 0	; 0x70
  14:	43435f6d 	movtmi	r5, #16237	; 0x3f6d
  18:	6e656700 	cdpvs	7, 6, cr6, cr5, cr0, {0}
  1c:	63697265 	cmnvs	r9, #1342177286	; 0x50000006
  20:	6c61635f 	stclvs	3, cr6, [r1], #-380	; 0xfffffe84
  24:	6e695f6c 	cdpvs	15, 6, cr5, cr9, cr12, {3}
  28:	68730074 	ldmdavs	r3!, {r2, r4, r5, r6}^
  2c:	2074726f 	rsbscs	r7, r4, pc, ror #4
  30:	00746e69 	rsbseq	r6, r4, r9, ror #28
  34:	5f6d7261 	svcpl	0x006d7261
  38:	61004356 	tstvs	r0, r6, asr r3
  3c:	475f6d72 			; <UNDEFINED> instruction: 0x475f6d72
  40:	72610045 	rsbvc	r0, r1, #69, 0	; 0x45
  44:	62735f6d 	rsbsvs	r5, r3, #436	; 0x1b4
  48:	706f5f63 	rsbvc	r5, pc, r3, ror #30
  4c:	6d726100 	ldfvse	f6, [r2, #-0]
  50:	72726f5f 	rsbsvc	r6, r2, #380	; 0x17c
  54:	00706f5f 	rsbseq	r6, r0, pc, asr pc
  58:	74756f5f 	ldrbtvc	r6, [r5], #-3935	; 0xfffff0a1
  5c:	6d726100 	ldfvse	f6, [r2, #-0]
  60:	726f655f 	rsbvc	r6, pc, #398458880	; 0x17c00000
  64:	00706f5f 	rsbseq	r6, r0, pc, asr pc
  68:	5f697072 	svcpl	0x00697072
  6c:	63747570 	cmnvs	r4, #112, 10	; 0x1c000000
  70:	00726168 	rsbseq	r6, r2, r8, ror #2
  74:	5f6d7261 	svcpl	0x006d7261
  78:	68737570 	ldmdavs	r3!, {r4, r5, r6, r8, sl, ip, sp, lr}^
  7c:	746e6900 	strbtvc	r6, [lr], #-2304	; 0xfffff700
  80:	6d6f632d 	stclvs	3, cr6, [pc, #-180]!	; ffffffd4 <__bss_end__+0xffff5fb4>
  84:	656c6970 	strbvs	r6, [ip, #-2416]!	; 0xfffff690
  88:	6100632e 	tstvs	r0, lr, lsr #6
  8c:	6c5f6d72 	mrrcvs	13, 7, r6, pc, cr2	; <UNPREDICTABLE>
  90:	72610072 	rsbvc	r0, r1, #114, 0	; 0x72
  94:	53565f6d 	cmppl	r6, #436	; 0x1b4
  98:	6d726100 	ldfvse	f6, [r2, #-0]
  9c:	0063705f 	rsbeq	r7, r3, pc, asr r0
  a0:	61656c63 	cmnvs	r5, r3, ror #24
  a4:	65725f6e 	ldrbvs	r5, [r2, #-3950]!	; 0xfffff092
  a8:	746f6f62 	strbtvc	r6, [pc], #-3938	; b0 <__code_start__-0x7f50>
  ac:	6d726100 	ldfvse	f6, [r2, #-0]
  b0:	6464615f 	strbtvs	r6, [r4], #-351	; 0xfffffea1
  b4:	00706f5f 	rsbseq	r6, r0, pc, asr pc
  b8:	5f746e69 	svcpl	0x00746e69
  bc:	72610036 	rsbvc	r0, r1, #54, 0	; 0x36
  c0:	65745f6d 	ldrbvs	r5, [r4, #-3949]!	; 0xfffff093
  c4:	706f5f71 	rsbvc	r5, pc, r1, ror pc	; <UNPREDICTABLE>
  c8:	6d726100 	ldfvse	f6, [r2, #-0]
  cc:	6275735f 	rsbsvs	r7, r5, #2080374785	; 0x7c000001
  d0:	00706f5f 	rsbseq	r6, r0, pc, asr pc
  d4:	5f6d7261 	svcpl	0x006d7261
  d8:	5f627372 	svcpl	0x00627372
  dc:	6c00706f 	stcvs	0, cr7, [r0], {111}	; 0x6f
  e0:	20676e6f 	rsbcs	r6, r7, pc, ror #28
  e4:	676e6f6c 	strbvs	r6, [lr, -ip, ror #30]!
  e8:	746e6920 	strbtvc	r6, [lr], #-2336	; 0xfffff6e0
  ec:	765f5f00 	ldrbvc	r5, [pc], -r0, lsl #30
  f0:	696c5f61 	stmdbvs	ip!, {r0, r5, r6, r8, r9, sl, fp, ip, lr}^
  f4:	61007473 	tstvs	r0, r3, ror r4
  f8:	6c5f6d72 	mrrcvs	13, 7, r6, pc, cr2	; <UNPREDICTABLE>
  fc:	61007264 	tstvs	r0, r4, ror #4
 100:	4c5f6d72 	mrrcmi	13, 7, r6, pc, cr2	; <UNPREDICTABLE>
 104:	72660045 	rsbvc	r0, r6, #69, 0	; 0x45
 108:	61006d6f 	tstvs	r0, pc, ror #26
 10c:	485f6d72 	ldmdami	pc, {r1, r4, r5, r6, r8, sl, fp, sp, lr}^	; <UNPREDICTABLE>
 110:	5f5f0049 	svcpl	0x005f0049
 114:	434e5546 	movtmi	r5, #58694	; 0xe546
 118:	4e4f4954 			; <UNDEFINED> instruction: 0x4e4f4954
 11c:	61005f5f 	tstvs	r0, pc, asr pc
 120:	615f6d72 	cmpvs	pc, r2, ror sp	; <UNPREDICTABLE>
 124:	6f5f646e 	svcvs	0x005f646e
 128:	6e690070 	mcrvs	0, 3, r0, cr9, cr0, {3}
 12c:	70665f74 	rsbvc	r5, r6, r4, ror pc
 130:	67726100 	ldrbvs	r6, [r2, -r0, lsl #2]!
 134:	72610073 	rsbvc	r0, r1, #115, 0	; 0x73
 138:	6d635f6d 	stclvs	15, cr5, [r3, #-436]!	; 0xfffffe4c
 13c:	706f5f6e 	rsbvc	r5, pc, lr, ror #30
 140:	75687400 	strbvc	r7, [r8, #-1024]!	; 0xfffffc00
 144:	61006b6e 	tstvs	r0, lr, ror #22
 148:	475f6d72 			; <UNDEFINED> instruction: 0x475f6d72
 14c:	72610054 	rsbvc	r0, r1, #84, 0	; 0x54
 150:	6c625f6d 	stclvs	15, cr5, [r2], #-436	; 0xfffffe4c
 154:	6d726100 	ldfvse	f6, [r2, #-0]
 158:	004c415f 	subeq	r4, ip, pc, asr r1
 15c:	5f6d7261 	svcpl	0x006d7261
 160:	7500544c 	strvc	r5, [r0, #-1100]	; 0xfffffbb4
 164:	6769736e 	strbvs	r7, [r9, -lr, ror #6]!
 168:	2064656e 	rsbcs	r6, r4, lr, ror #10
 16c:	72616863 	rsbvc	r6, r1, #6488064	; 0x630000
 170:	6c656400 	cfstrdvs	mvd6, [r5], #-0
 174:	61006174 	tstvs	r0, r4, ror r1
 178:	4c5f6d72 	mrrcmi	13, 7, r6, pc, cr2	; <UNPREDICTABLE>
 17c:	72610053 	rsbvc	r0, r1, #83, 0	; 0x53
 180:	30725f6d 	rsbscc	r5, r2, sp, ror #30
 184:	6d726100 	ldfvse	f6, [r2, #-0]
 188:	0031725f 	eorseq	r7, r1, pc, asr r2
 18c:	5f6d7261 	svcpl	0x006d7261
 190:	61003272 	tstvs	r0, r2, ror r2
 194:	725f6d72 	subsvc	r6, pc, #7296	; 0x1c80
 198:	72610033 	rsbvc	r0, r1, #51, 0	; 0x33
 19c:	34725f6d 	ldrbtcc	r5, [r2], #-3949	; 0xfffff093
 1a0:	6d726100 	ldfvse	f6, [r2, #-0]
 1a4:	0036725f 	eorseq	r7, r6, pc, asr r2
 1a8:	676e6f6c 	strbvs	r6, [lr, -ip, ror #30]!
 1ac:	6e6f6c20 	cdpvs	12, 6, cr6, cr15, cr0, {1}
 1b0:	6e752067 	cdpvs	0, 7, cr2, cr5, cr7, {3}
 1b4:	6e676973 			; <UNDEFINED> instruction: 0x6e676973
 1b8:	69206465 	stmdbvs	r0!, {r0, r2, r5, r6, sl, sp, lr}
 1bc:	6100746e 	tstvs	r0, lr, ror #8
 1c0:	725f6d72 	subsvc	r6, pc, #7296	; 0x1c80
 1c4:	69750038 	ldmdbvs	r5!, {r3, r4, r5}^
 1c8:	3233746e 	eorscc	r7, r3, #1845493760	; 0x6e000000
 1cc:	6100745f 	tstvs	r0, pc, asr r4
 1d0:	505f6d72 	subspl	r6, pc, r2, ror sp	; <UNPREDICTABLE>
 1d4:	6f63004c 	svcvs	0x0063004c
 1d8:	61006564 	tstvs	r0, r4, ror #10
 1dc:	725f6d72 	subsvc	r6, pc, #7296	; 0x1c80
 1e0:	6f5f6373 	svcvs	0x005f6373
 1e4:	6e690070 	mcrvs	0, 3, r0, cr9, cr0, {3}
 1e8:	67007674 	smlsdxvs	r0, r4, r6, r7
 1ec:	006f6f6f 	rsbeq	r6, pc, pc, ror #30
 1f0:	6d746f6e 	ldclvs	15, cr6, [r4, #-440]!	; 0xfffffe48
 1f4:	006e6961 	rsbeq	r6, lr, r1, ror #18
 1f8:	726f6873 	rsbvc	r6, pc, #7536640	; 0x730000
 1fc:	6e752074 	mrcvs	0, 3, r2, cr5, cr4, {3}
 200:	6e676973 			; <UNDEFINED> instruction: 0x6e676973
 204:	69206465 	stmdbvs	r0!, {r0, r2, r5, r6, sl, sp, lr}
 208:	6f00746e 	svcvs	0x0000746e
 20c:	65736666 	ldrbvs	r6, [r3, #-1638]!	; 0xfffff99a
 210:	72610074 	rsbvc	r0, r1, #116, 0	; 0x74
 214:	51455f6d 	cmppl	r5, sp, ror #30
 218:	6d726100 	ldfvse	f6, [r2, #-0]
 21c:	766f6d5f 			; <UNDEFINED> instruction: 0x766f6d5f
 220:	00706f5f 	rsbseq	r6, r0, pc, asr pc
 224:	70615f5f 	rsbvc	r5, r1, pc, asr pc
 228:	6d726100 	ldfvse	f6, [r2, #-0]
 22c:	0039725f 	eorseq	r7, r9, pc, asr r2
 230:	5f6d7261 	svcpl	0x006d7261
 234:	2f005343 	svccs	0x00005343
 238:	72657355 	rsbvc	r7, r5, #1409286145	; 0x54000001
 23c:	696d2f73 	stmdbvs	sp!, {r0, r1, r4, r5, r6, r8, r9, sl, fp, sp}^
 240:	2f73656c 	svccs	0x0073656c
 244:	72756f53 	rsbsvc	r6, r5, #332	; 0x14c
 248:	632f6563 			; <UNDEFINED> instruction: 0x632f6563
 24c:	30343273 	eorscc	r3, r4, r3, ror r2
 250:	6c2f786c 	stcvs	8, cr7, [pc], #-432	; a8 <__code_start__-0x7f58>
 254:	2f736261 	svccs	0x00736261
 258:	79642d31 	stmdbvc	r4!, {r0, r4, r5, r8, sl, fp, sp}^
 25c:	696d616e 	stmdbvs	sp!, {r1, r2, r3, r5, r6, r8, sp, lr}^
 260:	6f632d63 	svcvs	0x00632d63
 264:	672d6564 	strvs	r6, [sp, -r4, ror #10]!
 268:	632f6e65 			; <UNDEFINED> instruction: 0x632f6e65
 26c:	2f65646f 	svccs	0x0065646f
 270:	6e692d32 	mcrvs	13, 3, r2, cr9, cr2, {1}
 274:	6f632d74 	svcvs	0x00632d74
 278:	6c69706d 	stclvs	0, cr7, [r9], #-436	; 0xfffffe4c
 27c:	61007265 	tstvs	r0, r5, ror #4
 280:	625f6d72 	subsvs	r6, pc, #7296	; 0x1c80
 284:	6f5f6369 	svcvs	0x005f6369
 288:	72610070 	rsbvc	r0, r1, #112, 0	; 0x70
 28c:	35725f6d 	ldrbcc	r5, [r2, #-3949]!	; 0xfffff093
 290:	554e4700 	strbpl	r4, [lr, #-1792]	; 0xfffff900
 294:	39394320 	ldmdbcc	r9!, {r5, r8, r9, lr}
 298:	322e3920 	eorcc	r3, lr, #32, 18	; 0x80000
 29c:	3220312e 	eorcc	r3, r0, #-2147483637	; 0x8000000b
 2a0:	31393130 	teqcc	r9, r0, lsr r1
 2a4:	20353230 	eorscs	r3, r5, r0, lsr r2
 2a8:	6c657228 	sfmvs	f7, 2, [r5], #-160	; 0xffffff60
 2ac:	65736165 	ldrbvs	r6, [r3, #-357]!	; 0xfffffe9b
 2b0:	415b2029 	cmpmi	fp, r9, lsr #32
 2b4:	612f4d52 			; <UNDEFINED> instruction: 0x612f4d52
 2b8:	392d6d72 	pushcc	{r1, r4, r5, r6, r8, sl, fp, sp, lr}
 2bc:	6172622d 	cmnvs	r2, sp, lsr #4
 2c0:	2068636e 	rsbcs	r6, r8, lr, ror #6
 2c4:	69766572 	ldmdbvs	r6!, {r1, r4, r5, r6, r8, sl, sp, lr}^
 2c8:	6e6f6973 			; <UNDEFINED> instruction: 0x6e6f6973
 2cc:	37373220 	ldrcc	r3, [r7, -r0, lsr #4]!
 2d0:	5d393935 			; <UNDEFINED> instruction: 0x5d393935
 2d4:	636d2d20 	cmnvs	sp, #32, 26	; 0x800
 2d8:	613d7570 	teqvs	sp, r0, ror r5
 2dc:	31316d72 	teqcc	r1, r2, ror sp
 2e0:	7a6a3637 	bvc	1a8dbc4 <__bss_end__+0x1a83ba4>
 2e4:	20732d66 	rsbscs	r2, r3, r6, ror #26
 2e8:	75746d2d 	ldrbvc	r6, [r4, #-3373]!	; 0xfffff2d3
 2ec:	613d656e 	teqvs	sp, lr, ror #10
 2f0:	31316d72 	teqcc	r1, r2, ror sp
 2f4:	7a6a3637 	bvc	1a8dbd8 <__bss_end__+0x1a83bb8>
 2f8:	20732d66 	rsbscs	r2, r3, r6, ror #26
 2fc:	6c666d2d 	stclvs	13, cr6, [r6], #-180	; 0xffffff4c
 300:	2d74616f 	ldfcse	f6, [r4, #-444]!	; 0xfffffe44
 304:	3d696261 	sfmcc	f6, 2, [r9, #-388]!	; 0xfffffe7c
 308:	74666f73 	strbtvc	r6, [r6], #-3955	; 0xfffff08d
 30c:	616d2d20 	cmnvs	sp, r0, lsr #26
 310:	2d206d72 	stccs	13, cr6, [r0, #-456]!	; 0xfffffe38
 314:	6372616d 	cmnvs	r2, #1073741851	; 0x4000001b
 318:	72613d68 	rsbvc	r3, r1, #104, 26	; 0x1a00
 31c:	6b36766d 	blvs	d9dcd8 <__bss_end__+0xd93cb8>
 320:	672d207a 			; <UNDEFINED> instruction: 0x672d207a
 324:	20626467 	rsbcs	r6, r2, r7, ror #8
 328:	20674f2d 	rsbcs	r4, r7, sp, lsr #30
 32c:	6474732d 	ldrbtvs	r7, [r4], #-813	; 0xfffffcd3
 330:	756e673d 	strbvc	r6, [lr, #-1853]!	; 0xfffff8c3
 334:	2d203939 			; <UNDEFINED> instruction: 0x2d203939
 338:	65726666 	ldrbvs	r6, [r2, #-1638]!	; 0xfffff99a
 33c:	61747365 	cmnvs	r4, r5, ror #6
 340:	6e69646e 	cdpvs	4, 6, cr6, cr9, cr14, {3}
 344:	72610067 	rsbvc	r0, r1, #103, 0	; 0x67
 348:	37725f6d 	ldrbcc	r5, [r2, -sp, ror #30]!
 34c:	6d726100 	ldfvse	f6, [r2, #-0]
 350:	00494d5f 	subeq	r4, r9, pc, asr sp
 354:	5f6d7261 	svcpl	0x006d7261
 358:	68740062 	ldmdavs	r4!, {r1, r5, r6}^
 35c:	656b6e75 	strbvs	r6, [fp, #-3701]!	; 0xfffff18b
 360:	6e690064 	cdpvs	0, 6, cr0, cr9, cr4, {3}
 364:	6f635f74 	svcvs	0x00635f74
 368:	6c69706d 	stclvs	0, cr7, [r9], #-436	; 0xfffffe4c
 36c:	72610065 	rsbvc	r0, r1, #101, 0	; 0x65
 370:	31725f6d 	cmncc	r2, sp, ror #30
 374:	72610030 	rsbvc	r0, r1, #48, 0	; 0x30
 378:	31725f6d 	cmncc	r2, sp, ror #30
 37c:	72610031 	rsbvc	r0, r1, #49, 0	; 0x31
 380:	31725f6d 	cmncc	r2, sp, ror #30
 384:	72610032 	rsbvc	r0, r1, #50, 0	; 0x32
 388:	31725f6d 	cmncc	r2, sp, ror #30
 38c:	72610033 	rsbvc	r0, r1, #51, 0	; 0x33
 390:	31725f6d 	cmncc	r2, sp, ror #30
 394:	72610034 	rsbvc	r0, r1, #52, 0	; 0x34
 398:	31725f6d 	cmncc	r2, sp, ror #30
 39c:	72610035 	rsbvc	r0, r1, #53, 0	; 0x35
 3a0:	6f705f6d 	svcvs	0x00705f6d
 3a4:	75660070 	strbvc	r0, [r6, #-112]!	; 0xffffff90
 3a8:	6b00636e 	blvs	19168 <__bss_end__+0xf148>
 3ac:	6c6c616d 	stfvse	f6, [ip], #-436	; 0xfffffe4c
 3b0:	5f00636f 	svcpl	0x0000636f
 3b4:	756e675f 	strbvc	r6, [lr, #-1887]!	; 0xfffff8a1
 3b8:	61765f63 	cmnvs	r6, r3, ror #30
 3bc:	73696c5f 	cmnvc	r9, #24320	; 0x5f00
 3c0:	70730074 	rsbsvc	r0, r3, r4, ror r0
 3c4:	61696365 	cmnvs	r9, r5, ror #6
 3c8:	657a696c 	ldrbvs	r6, [sl, #-2412]!	; 0xfffff694
 3cc:	61635f64 	cmnvs	r3, r4, ror #30
 3d0:	695f6c6c 	ldmdbvs	pc, {r2, r3, r5, r6, sl, fp, sp, lr}^	; <UNPREDICTABLE>
 3d4:	7200746e 	andvc	r7, r0, #1845493760	; 0x6e000000
 3d8:	725f6970 	subsvc	r6, pc, #112, 18	; 0x1c0000
 3dc:	74657365 	strbtvc	r7, [r5], #-869	; 0xfffffc9b
 3e0:	7475705f 	ldrbtvc	r7, [r5], #-95	; 0xffffffa1
 3e4:	6e690063 	cdpvs	0, 6, cr0, cr9, cr3, {3}
 3e8:	00305f74 	eorseq	r5, r0, r4, ror pc
 3ec:	5f746e69 	svcpl	0x00746e69
 3f0:	6e690031 	mcrvs	0, 3, r0, cr9, cr1, {1}
 3f4:	00325f74 	eorseq	r5, r2, r4, ror pc
 3f8:	5f746e69 	svcpl	0x00746e69
 3fc:	6e690033 	mcrvs	0, 3, r0, cr9, cr3, {1}
 400:	00345f74 	eorseq	r5, r4, r4, ror pc
 404:	5f6d7261 	svcpl	0x006d7261
 408:	5f636461 	svcpl	0x00636461
 40c:	6900706f 	stmdbvs	r0, {r0, r1, r2, r3, r5, r6, ip, sp, lr}
 410:	355f746e 	ldrbcc	r7, [pc, #-1134]	; ffffffaa <__bss_end__+0xffff5f8a>
 414:	6d726100 	ldfvse	f6, [r2, #-0]
 418:	706d635f 	rsbvc	r6, sp, pc, asr r3
 41c:	00706f5f 	rsbseq	r6, r0, pc, asr pc
 420:	5f746e69 	svcpl	0x00746e69
 424:	72610037 	rsbvc	r0, r1, #55, 0	; 0x37
 428:	73745f6d 	cmnvc	r4, #436	; 0x1b4
 42c:	706f5f74 	rsbvc	r5, pc, r4, ror pc	; <UNPREDICTABLE>
 430:	6d726100 	ldfvse	f6, [r2, #-0]
 434:	00454e5f 	subeq	r4, r5, pc, asr lr
 438:	5f796173 	svcpl	0x00796173
 43c:	6c6c6568 	cfstr64vs	mvdx6, [ip], #-416	; 0xfffffe60
 440:	6176006f 	cmnvs	r6, pc, rrx
 444:	6972705f 	ldmdbvs	r2!, {r0, r1, r2, r3, r4, r6, ip, sp, lr}^
 448:	006b746e 	rsbeq	r7, fp, lr, ror #8
 44c:	696c2f2e 	stmdbvs	ip!, {r1, r2, r3, r5, r8, r9, sl, fp, sp}^
 450:	702f6362 	eorvc	r6, pc, r2, ror #6
 454:	746e6972 	strbtvc	r6, [lr], #-2418	; 0xfffff68e
 458:	00632e6b 	rsbeq	r2, r3, fp, ror #28
 45c:	6573552f 	ldrbvs	r5, [r3, #-1327]!	; 0xfffffad1
 460:	6d2f7372 	stcvs	3, cr7, [pc, #-456]!	; 2a0 <__code_start__-0x7d60>
 464:	73656c69 	cmnvc	r5, #26880	; 0x6900
 468:	756f532f 	strbvc	r5, [pc, #-815]!	; 141 <__code_start__-0x7ebf>
 46c:	2f656372 	svccs	0x00656372
 470:	34327363 	ldrtcc	r7, [r2], #-867	; 0xfffffc9d
 474:	2f786c30 	svccs	0x00786c30
 478:	7062696c 	rsbvc	r6, r2, ip, ror #18
 47c:	6e690069 	cdpvs	0, 6, cr0, cr9, cr9, {3}
 480:	6e726574 	mrcvs	5, 3, r6, cr2, cr4, {3}
 484:	705f6c61 	subsvc	r6, pc, r1, ror #24
 488:	68637475 	stmdavs	r3!, {r0, r2, r4, r5, r6, sl, ip, sp, lr}^
 48c:	72007261 	andvc	r7, r0, #268435462	; 0x10000006
 490:	735f6970 	cmpvc	pc, #112, 18	; 0x1c0000
 494:	705f7465 	subsvc	r7, pc, r5, ror #8
 498:	00637475 	rsbeq	r7, r3, r5, ror r4
 49c:	696c2f2e 	stmdbvs	ip!, {r1, r2, r3, r5, r8, r9, sl, fp, sp}^
 4a0:	702f6362 	eorvc	r6, pc, r2, ror #6
 4a4:	68637475 	stmdavs	r3!, {r0, r2, r4, r5, r6, sl, ip, sp, lr}^
 4a8:	632e7261 			; <UNDEFINED> instruction: 0x632e7261
 4ac:	72617500 	rsbvc	r7, r1, #0, 10
 4b0:	75705f74 	ldrbvc	r5, [r0, #-3956]!	; 0xfffff08c
 4b4:	69006374 	stmdbvs	r0, {r2, r4, r5, r6, r8, r9, sp, lr}
 4b8:	7265746e 	rsbvc	r7, r5, #1845493760	; 0x6e000000
 4bc:	5f6c616e 	svcpl	0x006c616e
 4c0:	6b747570 	blvs	1d1da88 <__bss_end__+0x1d13a68>
 4c4:	6c2f2e00 	stcvs	14, cr2, [pc], #-0	; 4cc <__code_start__-0x7b34>
 4c8:	2f636269 	svccs	0x00636269
 4cc:	6b747570 	blvs	1d1da94 <__bss_end__+0x1d13a74>
 4d0:	6900632e 	stmdbvs	r0, {r1, r2, r3, r5, r8, r9, sp, lr}
 4d4:	67696473 			; <UNDEFINED> instruction: 0x67696473
 4d8:	75007469 	strvc	r7, [r0, #-1129]	; 0xfffffb97
 4dc:	36746e69 	ldrbtcc	r6, [r4], -r9, ror #28
 4e0:	00745f34 	rsbseq	r5, r4, r4, lsr pc
 4e4:	696c2f2e 	stmdbvs	ip!, {r1, r2, r3, r5, r8, r9, sl, fp, sp}^
 4e8:	762f6362 	strtvc	r6, [pc], -r2, ror #6
 4ec:	72702d61 	rsbsvc	r2, r0, #6208	; 0x1840
 4f0:	6b746e69 	blvs	1d1be9c <__bss_end__+0x1d11e7c>
 4f4:	5f00632e 	svcpl	0x0000632e
 4f8:	646f635f 	strbtvs	r6, [pc], #-863	; 500 <__code_start__-0x7b00>
 4fc:	74735f65 	ldrbtvc	r5, [r3], #-3941	; 0xfffff09b
 500:	5f747261 	svcpl	0x00747261
 504:	5f5f005f 	svcpl	0x005f005f
 508:	5f737362 	svcpl	0x00737362
 50c:	72617473 	rsbvc	r7, r1, #1929379840	; 0x73000000
 510:	005f5f74 	subseq	r5, pc, r4, ror pc	; <UNPREDICTABLE>
 514:	74646977 	strbtvc	r6, [r4], #-2423	; 0xfffff689
 518:	5f5f0068 	svcpl	0x005f0068
 51c:	61746164 	cmnvs	r4, r4, ror #2
 520:	646e655f 	strbtvs	r6, [lr], #-1375	; 0xfffffaa1
 524:	70005f5f 	andvc	r5, r0, pc, asr pc
 528:	5f637475 	svcpl	0x00637475
 52c:	5f007066 	svcpl	0x00007066
 530:	7373625f 	cmnvc	r3, #-268435451	; 0xf0000005
 534:	646e655f 	strbtvs	r6, [lr], #-1375	; 0xfffffaa1
 538:	5f005f5f 	svcpl	0x00005f5f
 53c:	6165685f 	cmnvs	r5, pc, asr r8
 540:	74735f70 	ldrbtvc	r5, [r3], #-3952	; 0xfffff090
 544:	5f747261 	svcpl	0x00747261
 548:	7072005f 	rsbsvc	r0, r2, pc, asr r0
 54c:	65735f69 	ldrbvs	r5, [r3, #-3945]!	; 0xfffff097
 550:	756f5f74 	strbvc	r5, [pc, #-3956]!	; fffff5e4 <__bss_end__+0xffff55c4>
 554:	74757074 	ldrbtvc	r7, [r5], #-116	; 0xffffff8c
 558:	746d6600 	strbtvc	r6, [sp], #-1536	; 0xfffffa00
 55c:	6174735f 	cmnvs	r4, pc, asr r3
 560:	73007472 	movwvc	r7, #1138	; 0x472
 564:	61637274 	smcvs	14116	; 0x3724
 568:	74730074 	ldrbtvc	r0, [r3], #-116	; 0xffffff8c
 56c:	79706372 	ldmdbvc	r0!, {r1, r4, r5, r6, r8, r9, sp, lr}^
 570:	67656e00 	strbvs	r6, [r5, -r0, lsl #28]!
 574:	5f00705f 	svcpl	0x0000705f
 578:	646f635f 	strbtvs	r6, [pc], #-863	; 580 <__code_start__-0x7a80>
 57c:	6e655f65 	cdpvs	15, 6, cr5, cr5, cr5, {3}
 580:	005f5f64 	subseq	r5, pc, r4, ror #30
 584:	74696d65 	strbtvc	r6, [r9], #-3429	; 0xfffff29b
 588:	74757000 	ldrbtvc	r7, [r5], #-0
 58c:	70665f73 	rsbvc	r5, r6, r3, ror pc
 590:	76657200 	strbtvc	r7, [r5], -r0, lsl #4
 594:	65737265 	ldrbvs	r7, [r3, #-613]!	; 0xfffffd9b
 598:	72747300 	rsbsvc	r7, r4, #0, 6
 59c:	00706d63 	rsbseq	r6, r0, r3, ror #26
 5a0:	61645f5f 	cmnvs	r4, pc, asr pc
 5a4:	735f6174 	cmpvc	pc, #29
 5a8:	74726174 	ldrbtvc	r6, [r2], #-372	; 0xfffffe8c
 5ac:	5f005f5f 	svcpl	0x00005f5f
 5b0:	6f72705f 	svcvs	0x0072705f
 5b4:	6e655f67 	cdpvs	15, 6, cr5, cr5, cr7, {3}
 5b8:	005f5f64 	subseq	r5, pc, r4, ror #30
 5bc:	316d756e 	cmncc	sp, lr, ror #10
 5c0:	72747300 	rsbsvc	r7, r4, #0, 6
 5c4:	706d636e 	rsbvc	r6, sp, lr, ror #6
 5c8:	73616200 	cmnvc	r1, #0, 4
 5cc:	69730065 	ldmdbvs	r3!, {r0, r2, r5, r6}^
 5d0:	64656e67 	strbtvs	r6, [r5], #-3687	; 0xfffff199
 5d4:	7200705f 	andvc	r7, r0, #95, 0	; 0x5f
 5d8:	725f6970 	subsvc	r6, pc, #112, 18	; 0x1c0000
 5dc:	6f6f6265 	svcvs	0x006f6265
 5e0:	65640074 	strbvs	r0, [r4, #-116]!	; 0xffffff8c
 5e4:	5f79616c 	svcpl	0x0079616c
 5e8:	2e00736d 	cdpcs	3, 0, cr7, cr0, cr13, {3}
 5ec:	6174732f 	cmnvs	r4, pc, lsr #6
 5f0:	732d6666 			; <UNDEFINED> instruction: 0x732d6666
 5f4:	632f6372 			; <UNDEFINED> instruction: 0x632f6372
 5f8:	6e61656c 	cdpvs	5, 6, cr6, cr1, cr12, {3}
 5fc:	6265722d 	rsbvs	r7, r5, #-805306366	; 0xd0000002
 600:	2e746f6f 	cdpcs	15, 7, cr6, cr4, cr15, {3}
 604:	61750063 	cmnvs	r5, r3, rrx
 608:	665f7472 			; <UNDEFINED> instruction: 0x665f7472
 60c:	6873756c 	ldmdavs	r3!, {r2, r3, r5, r6, r8, sl, ip, sp, lr}^
 610:	0078745f 	rsbseq	r7, r8, pc, asr r4
 614:	7473635f 	ldrbtvc	r6, [r3], #-863	; 0xfffffca1
 618:	00747261 	rsbseq	r7, r4, r1, ror #4
 61c:	5f737362 	svcpl	0x00737362
 620:	00646e65 	rsbeq	r6, r4, r5, ror #28
 624:	74726175 	ldrbtvc	r6, [r2], #-373	; 0xfffffe8b
 628:	696e695f 	stmdbvs	lr!, {r0, r1, r2, r3, r4, r6, r8, fp, sp, lr}^
 62c:	75630074 	strbvc	r0, [r3, #-116]!	; 0xffffff8c
 630:	6d6f7473 	cfstrdvs	mvd7, [pc, #-460]!	; 46c <__code_start__-0x7b94>
 634:	616f6c5f 	cmnvs	pc, pc, asr ip	; <UNPREDICTABLE>
 638:	00726564 	rsbseq	r6, r2, r4, ror #10
 63c:	74732f2e 	ldrbtvc	r2, [r3], #-3886	; 0xfffff0d2
 640:	2d666661 	stclcs	6, cr6, [r6, #-388]!	; 0xfffffe7c
 644:	2f637273 	svccs	0x00637273
 648:	61747363 	cmnvs	r4, r3, ror #6
 64c:	632e7472 			; <UNDEFINED> instruction: 0x632e7472
 650:	732f2e00 			; <UNDEFINED> instruction: 0x732f2e00
 654:	66666174 			; <UNDEFINED> instruction: 0x66666174
 658:	6372732d 	cmnvs	r2, #-1275068416	; 0xb4000000
 65c:	7375632f 	cmnvc	r5, #-1140850688	; 0xbc000000
 660:	2d6d6f74 	stclcs	15, cr6, [sp, #-464]!	; 0xfffffe30
 664:	64616f6c 	strbtvs	r6, [r1], #-3948	; 0xfffff094
 668:	632e7265 			; <UNDEFINED> instruction: 0x632e7265
 66c:	62657200 	rsbvs	r7, r5, #0, 4
 670:	5f746f6f 	svcpl	0x00746f6f
 674:	6c6c6163 	stfvse	f6, [ip], #-396	; 0xfffffe74
 678:	0074756f 	rsbseq	r7, r4, pc, ror #10
 67c:	575f4d50 			; <UNDEFINED> instruction: 0x575f4d50
 680:	00474f44 	subeq	r4, r7, r4, asr #30
 684:	33545550 	cmpcc	r4, #80, 10	; 0x14000000
 688:	65730032 	ldrbvs	r0, [r3, #-50]!	; 0xffffffce
 68c:	73755f74 	cmnvc	r5, #116, 30	; 0x1d0
 690:	6c5f7265 	lfmvs	f7, 2, [pc], {101}	; 0x65
 694:	6c657665 	stclvs	6, cr7, [r5], #-404	; 0xfffffe6c
 698:	732f2e00 			; <UNDEFINED> instruction: 0x732f2e00
 69c:	66666174 			; <UNDEFINED> instruction: 0x66666174
 6a0:	6372732d 	cmnvs	r2, #-1275068416	; 0xb4000000
 6a4:	6265722f 	rsbvs	r7, r5, #-268435454	; 0xf0000002
 6a8:	2e746f6f 	cdpcs	15, 7, cr6, cr4, cr15, {3}
 6ac:	4d500063 	ldclmi	0, cr0, [r0, #-396]	; 0xfffffe74
 6b0:	5341505f 	movtpl	r5, #4191	; 0x105f
 6b4:	524f5753 	subpl	r5, pc, #21757952	; 0x14c0000
 6b8:	74610044 	strbtvc	r0, [r1], #-68	; 0xffffffbc
 6bc:	6573755f 	ldrbvs	r7, [r3, #-1375]!	; 0xfffffaa1
 6c0:	656c5f72 	strbvs	r5, [ip, #-3954]!	; 0xfffff08e
 6c4:	006c6576 	rsbeq	r6, ip, r6, ror r5
 6c8:	525f4d50 	subspl	r4, pc, #80, 26	; 0x1400
 6cc:	5f435453 	svcpl	0x00435453
 6d0:	46435257 			; <UNDEFINED> instruction: 0x46435257
 6d4:	55465f47 	strbpl	r5, [r6, #-3911]	; 0xfffff0b9
 6d8:	525f4c4c 	subspl	r4, pc, #76, 24	; 0x4c00
 6dc:	54455345 	strbpl	r5, [r5], #-837	; 0xfffffcbb
 6e0:	5f4d5000 	svcpl	0x004d5000
 6e4:	43545352 	cmpmi	r4, #1207959553	; 0x48000001
 6e8:	73706300 	cmnvc	r0, #0, 6
 6ec:	65640072 	strbvs	r0, [r4, #-114]!	; 0xffffff8e
 6f0:	61625f76 	smcvs	9718	; 0x25f6
 6f4:	65697272 	strbvs	r7, [r9, #-626]!	; 0xfffffd8e
 6f8:	65640072 	strbvs	r0, [r4, #-114]!	; 0xffffff8e
 6fc:	5f79616c 	svcpl	0x0079616c
 700:	00636573 	rsbeq	r6, r3, r3, ror r5
 704:	74732f2e 	ldrbtvc	r2, [r3], #-3886	; 0xfffff0d2
 708:	2d666661 	stclcs	6, cr6, [r6, #-388]!	; 0xfffffe7c
 70c:	2f637273 	svccs	0x00637273
 710:	656d6974 	strbvs	r6, [sp, #-2420]!	; 0xfffff68c
 714:	00632e72 	rsbeq	r2, r3, r2, ror lr
 718:	33544547 	cmpcc	r4, #297795584	; 0x11c00000
 71c:	69740032 	ldmdbvs	r4!, {r1, r4, r5}^
 720:	5f72656d 	svcpl	0x0072656d
 724:	5f746567 	svcpl	0x00746567
 728:	63657375 	cmnvs	r5, #-738197503	; 0xd4000001
 72c:	6c656400 	cfstrdvs	mvd6, [r5], #-0
 730:	755f7961 	ldrbvc	r7, [pc, #-2401]	; fffffdd7 <__bss_end__+0xffff5db7>
 734:	69740073 	ldmdbvs	r4!, {r0, r1, r4, r5, r6}^
 738:	5f72656d 	svcpl	0x0072656d
 73c:	5f746567 	svcpl	0x00746567
 740:	63657375 	cmnvs	r5, #-738197503	; 0xd4000001
 744:	7761725f 			; <UNDEFINED> instruction: 0x7761725f
 748:	75616200 	strbvc	r6, [r1, #-512]!	; 0xfffffe00
 74c:	61765f64 	cmnvs	r6, r4, ror #30
 750:	7473006c 	ldrbtvc	r0, [r3], #-108	; 0xffffff94
 754:	75007461 	strvc	r7, [r0, #-1121]	; 0xfffffb9f
 758:	5f747261 	svcpl	0x00747261
 75c:	5f6e6163 	svcpl	0x006e6163
 760:	63746567 	cmnvs	r4, #432013312	; 0x19c00000
 764:	49504700 	ldmdbmi	r0, {r8, r9, sl, lr}^
 768:	55465f4f 	strbpl	r5, [r6, #-3919]	; 0xfffff0b1
 76c:	4f5f434e 	svcmi	0x005f434e
 770:	55505455 	ldrbpl	r5, [r0, #-1109]	; 0xfffffbab
 774:	61750054 	cmnvs	r5, r4, asr r0
 778:	632e7472 			; <UNDEFINED> instruction: 0x632e7472
 77c:	72617500 	rsbvc	r7, r1, #0, 10
 780:	61635f74 	smcvs	13812	; 0x35f4
 784:	75705f6e 	ldrbvc	r5, [r0, #-3950]!	; 0xfffff092
 788:	75006374 	strvc	r6, [r0, #-884]	; 0xfffffc8c
 78c:	00747261 	rsbseq	r7, r4, r1, ror #4
 790:	74726175 	ldrbtvc	r6, [r2], #-373	; 0xfffffe8b
 794:	5f78745f 	svcpl	0x0078745f
 798:	655f7369 	ldrbvs	r7, [pc, #-873]	; 437 <__code_start__-0x7bc9>
 79c:	7974706d 	ldmdbvc	r4!, {r0, r2, r3, r5, r6, ip, sp, lr}^
 7a0:	49504700 	ldmdbmi	r0, {r8, r9, sl, lr}^
 7a4:	55465f4f 	strbpl	r5, [r6, #-3919]	; 0xfffff0b1
 7a8:	415f434e 	cmpmi	pc, lr, asr #6
 7ac:	0030544c 	eorseq	r5, r0, ip, asr #8
 7b0:	4f495047 	svcmi	0x00495047
 7b4:	4e55465f 	mrcmi	6, 2, r4, cr5, cr15, {2}
 7b8:	4c415f43 	mcrrmi	15, 4, r5, r1, cr3
 7bc:	47003154 	smlsdmi	r0, r4, r1, r3
 7c0:	5f4f4950 	svcpl	0x004f4950
 7c4:	434e5546 	movtmi	r5, #58694	; 0xe546
 7c8:	544c415f 	strbpl	r4, [ip], #-351	; 0xfffffea1
 7cc:	50470032 	subpl	r0, r7, r2, lsr r0
 7d0:	465f4f49 	ldrbmi	r4, [pc], -r9, asr #30
 7d4:	5f434e55 	svcpl	0x00434e55
 7d8:	33544c41 	cmpcc	r4, #16640	; 0x4100
 7dc:	49504700 	ldmdbmi	r0, {r8, r9, sl, lr}^
 7e0:	55465f4f 	strbpl	r5, [r6, #-3919]	; 0xfffff0b1
 7e4:	415f434e 	cmpmi	pc, lr, asr #6
 7e8:	0035544c 	eorseq	r5, r5, ip, asr #8
 7ec:	33747570 	cmncc	r4, #112, 10	; 0x1c000000
 7f0:	61620032 	cmnvs	r2, r2, lsr r0
 7f4:	61006475 	tstvs	r0, r5, ror r4
 7f8:	655f7875 	ldrbvs	r7, [pc, #-2165]	; ffffff8b <__bss_end__+0xffff5f6b>
 7fc:	6c62616e 	stfvse	f6, [r2], #-440	; 0xfffffe48
 800:	75007365 	strvc	r7, [r0, #-869]	; 0xfffffc9b
 804:	5f747261 	svcpl	0x00747261
 808:	63746567 	cmnvs	r4, #432013312	; 0x19c00000
 80c:	554e4700 	strbpl	r4, [lr, #-1792]	; 0xfffff900
 810:	39394320 	ldmdbcc	r9!, {r5, r8, r9, lr}
 814:	2e303120 	rsfcssp	f3, f0, f0
 818:	20312e33 	eorscs	r2, r1, r3, lsr lr
 81c:	31323032 	teqcc	r2, r2, lsr r0
 820:	34323830 	ldrtcc	r3, [r2], #-2096	; 0xfffff7d0
 824:	65722820 	ldrbvs	r2, [r2, #-2080]!	; 0xfffff7e0
 828:	7361656c 	cmnvc	r1, #108, 10	; 0x1b000000
 82c:	2d202965 			; <UNDEFINED> instruction: 0x2d202965
 830:	7570636d 	ldrbvc	r6, [r0, #-877]!	; 0xfffffc93
 834:	6d72613d 	ldfvse	f6, [r2, #-244]!	; 0xffffff0c
 838:	36373131 			; <UNDEFINED> instruction: 0x36373131
 83c:	2d667a6a 	vstmdbcs	r6!, {s15-s120}
 840:	6d2d2073 	stcvs	0, cr2, [sp, #-460]!	; 0xfffffe34
 844:	656e7574 	strbvs	r7, [lr, #-1396]!	; 0xfffffa8c
 848:	6d72613d 	ldfvse	f6, [r2, #-244]!	; 0xffffff0c
 84c:	36373131 			; <UNDEFINED> instruction: 0x36373131
 850:	2d667a6a 	vstmdbcs	r6!, {s15-s120}
 854:	6d2d2073 	stcvs	0, cr2, [sp, #-460]!	; 0xfffffe34
 858:	616f6c66 	cmnvs	pc, r6, ror #24
 85c:	62612d74 	rsbvs	r2, r1, #116, 26	; 0x1d00
 860:	6f733d69 	svcvs	0x00733d69
 864:	2d207466 	cfstrscs	mvf7, [r0, #-408]!	; 0xfffffe68
 868:	6d72616d 	ldfvse	f6, [r2, #-436]!	; 0xfffffe4c
 86c:	616d2d20 	cmnvs	sp, r0, lsr #26
 870:	3d686372 	stclcc	3, cr6, [r8, #-456]!	; 0xfffffe38
 874:	766d7261 	strbtvc	r7, [sp], -r1, ror #4
 878:	207a6b36 	rsbscs	r6, sl, r6, lsr fp
 87c:	6467672d 	strbtvs	r6, [r7], #-1837	; 0xfffff8d3
 880:	4f2d2062 	svcmi	0x002d2062
 884:	732d2067 			; <UNDEFINED> instruction: 0x732d2067
 888:	673d6474 			; <UNDEFINED> instruction: 0x673d6474
 88c:	3939756e 	ldmdbcc	r9!, {r1, r2, r3, r5, r6, r8, sl, ip, sp, lr}
 890:	66662d20 	strbtvs	r2, [r6], -r0, lsr #26
 894:	73656572 	cmnvc	r5, #478150656	; 0x1c800000
 898:	646e6174 	strbtvs	r6, [lr], #-372	; 0xfffffe8c
 89c:	00676e69 	rsbeq	r6, r7, r9, ror #28
 8a0:	6c746e63 	ldclvs	14, cr6, [r4], #-396	; 0xfffffe74
 8a4:	72617500 	rsbvc	r7, r1, #0, 10
 8a8:	69645f74 	stmdbvs	r4!, {r2, r4, r5, r6, r8, r9, sl, fp, ip, lr}^
 8ac:	6c626173 	stfvse	f6, [r2], #-460	; 0xfffffe34
 8b0:	61750065 	cmnvs	r5, r5, rrx
 8b4:	685f7472 	ldmdavs	pc, {r1, r4, r5, r6, sl, ip, sp, lr}^	; <UNPREDICTABLE>
 8b8:	645f7361 	ldrbvs	r7, [pc], #-865	; 8c0 <__code_start__-0x7740>
 8bc:	00617461 	rsbeq	r7, r1, r1, ror #8
 8c0:	4f495047 	svcmi	0x00495047
 8c4:	4e55465f 	mrcmi	6, 2, r4, cr5, cr15, {2}
 8c8:	4c415f43 	mcrrmi	15, 4, r5, r1, cr3
 8cc:	6f003454 	svcvs	0x00003454
 8d0:	6e695f72 	mcrvs	15, 3, r5, cr9, cr2, {3}
 8d4:	73003233 	movwvc	r3, #563	; 0x233
 8d8:	74617263 	strbtvc	r7, [r1], #-611	; 0xfffffd9d
 8dc:	61006863 	tstvs	r0, r3, ror #16
 8e0:	705f7875 	subsvc	r7, pc, r5, ror r8	; <UNPREDICTABLE>
 8e4:	70697265 	rsbvc	r7, r9, r5, ror #4
 8e8:	2f007368 	svccs	0x00007368
 8ec:	656d6f68 	strbvs	r6, [sp, #-3944]!	; 0xfffff098
 8f0:	676e652f 	strbvs	r6, [lr, -pc, lsr #10]!
 8f4:	2f72656c 	svccs	0x0072656c
 8f8:	73616c63 	cmnvc	r1, #25344	; 0x6300
 8fc:	73632f73 	cmnvc	r3, #460	; 0x1cc
 900:	65303431 	ldrvs	r3, [r0, #-1073]!	; 0xfffffbcf
 904:	7732322d 	ldrvc	r3, [r2, -sp, lsr #4]!
 908:	6c2f6e69 	stcvs	14, cr6, [pc], #-420	; 76c <__code_start__-0x7894>
 90c:	69706269 	ldmdbvs	r0!, {r0, r3, r5, r6, r9, sp, lr}^
 910:	6174732f 	cmnvs	r4, pc, lsr #6
 914:	702d6666 	eorvc	r6, sp, r6, ror #12
 918:	61766972 	cmnvs	r6, r2, ror r9
 91c:	61006574 	tstvs	r0, r4, ror r5
 920:	695f646e 	ldmdbvs	pc, {r1, r2, r3, r5, r6, sl, sp, lr}^	; <UNPREDICTABLE>
 924:	0032336e 	eorseq	r3, r2, lr, ror #6
 928:	4f495047 	svcmi	0x00495047
 92c:	4e55465f 	mrcmi	6, 2, r4, cr5, cr15, {2}
 930:	4e495f43 	cdpmi	15, 4, cr5, cr9, cr3, {2}
 934:	00545550 	subseq	r5, r4, r0, asr r5
 938:	6f697067 	svcvs	0x00697067
 93c:	7465735f 	strbtvc	r7, [r5], #-863	; 0xfffffca1
 940:	6e75665f 	mrcvs	6, 3, r6, cr5, cr15, {2}
 944:	6f697463 	svcvs	0x00697463
 948:	6567006e 	strbvs	r0, [r7, #-110]!	; 0xffffff92
 94c:	00323374 	eorseq	r3, r2, r4, ror r3
 950:	6c616d6b 	stclvs	13, cr6, [r1], #-428	; 0xfffffe54
 954:	5f636f6c 	svcpl	0x00636f6c
 958:	70616568 	rsbvc	r6, r1, r8, ror #10
 95c:	6174735f 	cmnvs	r4, pc, asr r3
 960:	6d007472 	cfstrsvs	mvf7, [r0, #-456]	; 0xfffffe38
 964:	6e5f7861 	cdpvs	8, 5, cr7, cr15, cr1, {3}
 968:	65747962 	ldrbvs	r7, [r4, #-2402]!	; 0xfffff69e
 96c:	615f0073 	cmpvs	pc, r3, ror r0	; <UNPREDICTABLE>
 970:	00726464 	rsbseq	r6, r2, r4, ror #8
 974:	6572666b 	ldrbvs	r6, [r2, #-1643]!	; 0xfffff995
 978:	65680065 	strbvs	r0, [r8, #-101]!	; 0xffffff9b
 97c:	6d5f7061 	ldclvs	0, cr7, [pc, #-388]	; 800 <__code_start__-0x7800>
 980:	6b007861 	blvs	1eb0c <__bss_end__+0x14aec>
 984:	65657266 	strbvs	r7, [r5, #-614]!	; 0xfffffd9a
 988:	6c6c615f 	stfvse	f6, [ip], #-380	; 0xfffffe84
 98c:	756f7200 	strbvc	r7, [pc, #-512]!	; 794 <__code_start__-0x786c>
 990:	7075646e 	rsbsvc	r6, r5, lr, ror #8
 994:	616d6b00 	cmnvs	sp, r0, lsl #22
 998:	636f6c6c 	cmnvs	pc, #108, 24	; 0x6c00
 99c:	6165685f 	cmnvs	r5, pc, asr r8
 9a0:	6e655f70 	mcrvs	15, 3, r5, cr5, cr0, {3}
 9a4:	65680064 	strbvs	r0, [r8, #-100]!	; 0xffffff9c
 9a8:	69007061 	stmdbvs	r0, {r0, r5, r6, ip, sp, lr}
 9ac:	5f74696e 	svcpl	0x0074696e
 9b0:	666b0070 			; <UNDEFINED> instruction: 0x666b0070
 9b4:	5f656572 	svcpl	0x00656572
 9b8:	00706f70 	rsbseq	r6, r0, r0, ror pc
 9bc:	736d656d 	cmnvc	sp, #457179136	; 0x1b400000
 9c0:	61007465 	tstvs	r0, r5, ror #8
 9c4:	6e67696c 	vnmulvs.f16	s13, s14, s25	; <UNPREDICTABLE>
 9c8:	746e656d 	strbtvc	r6, [lr], #-1389	; 0xfffffa93
 9cc:	78616d00 	stmdavc	r1!, {r8, sl, fp, sp, lr}^
 9d0:	3233755f 	eorscc	r7, r3, #398458880	; 0x17c00000
 9d4:	656e4f00 	strbvs	r4, [lr, #-3840]!	; 0xfffff100
 9d8:	6b00424d 	blvs	11314 <__bss_end__+0x72f4>
 9dc:	6c6c616d 	stfvse	f6, [ip], #-436	; 0xfffffe4c
 9e0:	6e5f636f 	cdpvs	3, 5, cr6, cr15, cr15, {3}
 9e4:	657a746f 	ldrbvs	r7, [sl, #-1135]!	; 0xfffffb91
 9e8:	6b006f72 	blvs	1c7b8 <__bss_end__+0x12798>
 9ec:	6c6c616d 	stfvse	f6, [ip], #-436	; 0xfffffe4c
 9f0:	615f636f 	cmpvs	pc, pc, ror #6
 9f4:	6e67696c 	vnmulvs.f16	s13, s14, s25	; <UNPREDICTABLE>
 9f8:	69006465 	stmdbvs	r0, {r0, r2, r5, r6, sl, sp, lr}
 9fc:	6f705f73 	svcvs	0x00705f73
 a00:	6b003277 	blvs	d3e4 <__bss_end__+0x33c4>
 a04:	6c6c616d 	stfvse	f6, [ip], #-436	; 0xfffffe4c
 a08:	632e636f 			; <UNDEFINED> instruction: 0x632e636f
 a0c:	616d6b00 	cmnvs	sp, r0, lsl #22
 a10:	636f6c6c 	cmnvs	pc, #108, 24	; 0x6c00
 a14:	696e695f 	stmdbvs	lr!, {r0, r1, r2, r3, r4, r6, r8, fp, sp, lr}^
 a18:	73690074 	cmnvc	r9, #116, 0	; 0x74
 a1c:	696c615f 	stmdbvs	ip!, {r0, r1, r2, r3, r4, r6, r8, sp, lr}^
 a20:	64656e67 	strbtvs	r6, [r5], #-3687	; 0xfffff199
 a24:	756f6400 	strbvc	r6, [pc, #-1024]!	; 62c <__code_start__-0x79d4>
 a28:	00656c62 	rsbeq	r6, r5, r2, ror #24
 a2c:	6c616d6b 	stclvs	13, cr6, [r1], #-428	; 0xfffffe54
 a30:	5f636f6c 	svcpl	0x00636f6c
 a34:	70616568 	rsbvc	r6, r1, r8, ror #10
 a38:	7274705f 	rsbsvc	r7, r4, #95, 0	; 0x5f
 a3c:	616d6b00 	cmnvs	sp, r0, lsl #22
 a40:	636f6c6c 	cmnvs	pc, #108, 24	; 0x6c00
 a44:	696e695f 	stmdbvs	lr!, {r0, r1, r2, r3, r4, r6, r8, fp, sp, lr}^
 a48:	65735f74 	ldrbvs	r5, [r3, #-3956]!	; 0xfffff08c
 a4c:	74735f74 	ldrbtvc	r5, [r3], #-3956	; 0xfffff08c
 a50:	00747261 	rsbseq	r7, r4, r1, ror #4
 a54:	657a6973 	ldrbvs	r6, [sl, #-2419]!	; 0xfffff68d
 a58:	2e00745f 	cfmvsrcs	mvf0, r7
 a5c:	62696c2f 	rsbvs	r6, r9, #12032	; 0x2f00
 a60:	656d2f63 	strbvs	r2, [sp, #-3939]!	; 0xfffff09d
 a64:	7465736d 	strbtvc	r7, [r5], #-877	; 0xfffffc93
 a68:	6400632e 	strvs	r6, [r0], #-814	; 0xfffffcd2
 a6c:	00747365 	rsbseq	r7, r4, r5, ror #6
 a70:	696c2f2e 	stmdbvs	ip!, {r1, r2, r3, r5, r8, r9, sl, fp, sp}^
 a74:	732f6362 			; <UNDEFINED> instruction: 0x732f6362
 a78:	61637274 	smcvs	14116	; 0x3724
 a7c:	00632e74 	rsbeq	r2, r3, r4, ror lr
 a80:	696c2f2e 	stmdbvs	ip!, {r1, r2, r3, r5, r8, r9, sl, fp, sp}^
 a84:	732f6362 			; <UNDEFINED> instruction: 0x732f6362
 a88:	6d637274 	sfmvs	f7, 2, [r3, #-464]!	; 0xfffffe30
 a8c:	00632e70 	rsbeq	r2, r3, r0, ror lr
 a90:	696c2f2e 	stmdbvs	ip!, {r1, r2, r3, r5, r8, r9, sl, fp, sp}^
 a94:	732f6362 			; <UNDEFINED> instruction: 0x732f6362
 a98:	70637274 	rsbvc	r7, r3, r4, ror r2
 a9c:	00632e79 	rsbeq	r2, r3, r9, ror lr
 aa0:	696c2f2e 	stmdbvs	ip!, {r1, r2, r3, r5, r8, r9, sl, fp, sp}^
 aa4:	732f6362 			; <UNDEFINED> instruction: 0x732f6362
 aa8:	636e7274 	cmnvs	lr, #116, 4	; 0x40000007
 aac:	632e706d 			; <UNDEFINED> instruction: 0x632e706d
 ab0:	732f2e00 			; <UNDEFINED> instruction: 0x732f2e00
 ab4:	66666174 			; <UNDEFINED> instruction: 0x66666174
 ab8:	6372732d 	cmnvs	r2, #-1275068416	; 0xb4000000
 abc:	6665642f 	strbtvs	r6, [r5], -pc, lsr #8
 ac0:	746c7561 	strbtvc	r7, [ip], #-1377	; 0xfffffa9f
 ac4:	6265722d 	rsbvs	r7, r5, #-805306366	; 0xd0000002
 ac8:	2d746f6f 	ldclcs	15, cr6, [r4, #-444]!	; 0xfffffe44
 acc:	6c6c6163 	stfvse	f6, [ip], #-396	; 0xfffffe74
 ad0:	2e74756f 	cdpcs	5, 7, cr7, cr4, cr15, {3}
 ad4:	70670063 	rsbvc	r0, r7, r3, rrx
 ad8:	635f6f69 	cmpvs	pc, #420	; 0x1a4
 adc:	0030726c 	eorseq	r7, r0, ip, ror #4
 ae0:	6f697067 	svcvs	0x00697067
 ae4:	7465735f 	strbtvc	r7, [r5], #-863	; 0xfffffca1
 ae8:	70670030 	rsbvc	r0, r7, r0, lsr r0
 aec:	775f6f69 	ldrbvc	r6, [pc, -r9, ror #30]
 af0:	65746972 	ldrbvs	r6, [r4, #-2418]!	; 0xfffff68e
 af4:	56454400 	strbpl	r4, [r5], -r0, lsl #8
 af8:	4c41565f 	mcrrmi	6, 5, r5, r1, cr15
 afc:	67003233 	smladxvs	r0, r3, r2, r3
 b00:	5f6f6970 	svcpl	0x006f6970
 b04:	64616572 	strbtvs	r6, [r1], #-1394	; 0xfffffa8e
 b08:	69706700 	ldmdbvs	r0!, {r8, r9, sl, sp, lr}^
 b0c:	65735f6f 	ldrbvs	r5, [r3, #-3951]!	; 0xfffff091
 b10:	6e695f74 	mcrvs	15, 3, r5, cr9, cr4, {3}
 b14:	00747570 	rsbseq	r7, r4, r0, ror r5
 b18:	6f697067 	svcvs	0x00697067
 b1c:	7465735f 	strbtvc	r7, [r5], #-863	; 0xfffffca1
 b20:	66666f5f 	uqsaxvs	r6, r6, pc	; <UNPREDICTABLE>
 b24:	69706700 	ldmdbvs	r0!, {r8, r9, sl, sp, lr}^
 b28:	65735f6f 	ldrbvs	r5, [r3, #-3951]!	; 0xfffff091
 b2c:	756f5f74 	strbvc	r5, [pc, #-3956]!	; fffffbc0 <__bss_end__+0xffff5ba0>
 b30:	74757074 	ldrbtvc	r7, [r5], #-116	; 0xffffff8c
 b34:	69706700 	ldmdbvs	r0!, {r8, r9, sl, sp, lr}^
 b38:	75665f6f 	strbvc	r5, [r6, #-3951]!	; 0xfffff091
 b3c:	745f636e 	ldrbvc	r6, [pc], #-878	; b44 <__code_start__-0x74bc>
 b40:	69706700 	ldmdbvs	r0!, {r8, r9, sl, sp, lr}^
 b44:	656c5f6f 	strbvs	r5, [ip, #-3951]!	; 0xfffff091
 b48:	62003076 	andvs	r3, r0, #118, 0	; 0x76
 b4c:	006b6e61 	rsbeq	r6, fp, r1, ror #28
 b50:	6f697067 	svcvs	0x00697067
 b54:	6700632e 	strvs	r6, [r0, -lr, lsr #6]
 b58:	5f6f6970 	svcpl	0x006f6970
 b5c:	5f746573 	svcpl	0x00746573
 b60:	Address 0x0000000000000b60 is out of bounds.


Disassembly of section .debug_frame:

00000000 <.debug_frame>:
   0:	0000000c 	andeq	r0, r0, ip
   4:	ffffffff 			; <UNDEFINED> instruction: 0xffffffff
   8:	7c020001 	stcvc	0, cr0, [r2], {1}
   c:	000d0c0e 	andeq	r0, sp, lr, lsl #24
  10:	0000000c 	andeq	r0, r0, ip
  14:	00000000 	andeq	r0, r0, r0
  18:	00008038 	andeq	r8, r0, r8, lsr r0
  1c:	00000018 	andeq	r0, r0, r8, lsl r0
  20:	0000000c 	andeq	r0, r0, ip
  24:	00000000 	andeq	r0, r0, r0
  28:	00008050 	andeq	r8, r0, r0, asr r0
  2c:	00000018 	andeq	r0, r0, r8, lsl r0
  30:	0000000c 	andeq	r0, r0, ip
  34:	00000000 	andeq	r0, r0, r0
  38:	00008068 	andeq	r8, r0, r8, rrx
  3c:	00000018 	andeq	r0, r0, r8, lsl r0
  40:	0000000c 	andeq	r0, r0, ip
  44:	00000000 	andeq	r0, r0, r0
  48:	00008080 	andeq	r8, r0, r0, lsl #1
  4c:	00000018 	andeq	r0, r0, r8, lsl r0
  50:	0000000c 	andeq	r0, r0, ip
  54:	00000000 	andeq	r0, r0, r0
  58:	00008098 	muleq	r0, r8, r0
  5c:	00000018 	andeq	r0, r0, r8, lsl r0
  60:	0000000c 	andeq	r0, r0, ip
  64:	00000000 	andeq	r0, r0, r0
  68:	000080b0 	strheq	r8, [r0], -r0
  6c:	00000018 	andeq	r0, r0, r8, lsl r0
  70:	0000000c 	andeq	r0, r0, ip
  74:	00000000 	andeq	r0, r0, r0
  78:	000080c8 	andeq	r8, r0, r8, asr #1
  7c:	00000018 	andeq	r0, r0, r8, lsl r0
  80:	0000000c 	andeq	r0, r0, ip
  84:	00000000 	andeq	r0, r0, r0
  88:	000080e0 	andeq	r8, r0, r0, ror #1
  8c:	00000018 	andeq	r0, r0, r8, lsl r0
  90:	00000014 	andeq	r0, r0, r4, lsl r0
  94:	00000000 	andeq	r0, r0, r0
  98:	000080f8 	strdeq	r8, [r0], -r8	; <UNPREDICTABLE>
  9c:	00000020 	andeq	r0, r0, r0, lsr #32
  a0:	84080e42 	strhi	r0, [r8], #-3650	; 0xfffff1be
  a4:	00018e02 	andeq	r8, r1, r2, lsl #28
  a8:	00000018 	andeq	r0, r0, r8, lsl r0
  ac:	00000000 	andeq	r0, r0, r0
  b0:	00008118 	andeq	r8, r0, r8, lsl r1
  b4:	00000028 	andeq	r0, r0, r8, lsr #32
  b8:	84100e42 	ldrhi	r0, [r0], #-3650	; 0xfffff1be
  bc:	86038504 	strhi	r8, [r3], -r4, lsl #10
  c0:	00018e02 	andeq	r8, r1, r2, lsl #28
  c4:	0000001c 	andeq	r0, r0, ip, lsl r0
  c8:	00000000 	andeq	r0, r0, r0
  cc:	00008140 	andeq	r8, r0, r0, asr #2
  d0:	000000d0 	ldrdeq	r0, [r0], -r0	; <UNPREDICTABLE>
  d4:	840c0e42 	strhi	r0, [ip], #-3650	; 0xfffff1be
  d8:	8e028503 	cfsh32hi	mvfx8, mvfx2, #3
  dc:	180e4201 	stmdane	lr, {r0, r9, lr}
  e0:	0c0e5602 	stceq	6, cr5, [lr], {2}
  e4:	0000003c 	andeq	r0, r0, ip, lsr r0
  e8:	00000000 	andeq	r0, r0, r0
  ec:	00008210 	andeq	r8, r0, r0, lsl r2
  f0:	000000e0 	andeq	r0, r0, r0, ror #1
  f4:	810c0e42 	tsthi	ip, r2, asr #28
  f8:	83028203 	movwhi	r8, #8707	; 0x2203
  fc:	240e4201 	strcs	r4, [lr], #-513	; 0xfffffdff
 100:	08850984 	stmeq	r5, {r2, r7, r8, fp}
 104:	06870786 	streq	r0, [r7], r6, lsl #15
 108:	048e0588 	streq	r0, [lr], #1416	; 0x588
 10c:	02380e42 	eorseq	r0, r8, #1056	; 0x420
 110:	42240e58 	eormi	r0, r4, #88, 28	; 0x580
 114:	c6c7c8ce 	strbgt	ip, [r7], lr, asr #17
 118:	0c0ec4c5 	cfstrseq	mvf12, [lr], {197}	; 0xc5
 11c:	c1c2c342 	bicgt	ip, r2, r2, asr #6
 120:	0000000e 	andeq	r0, r0, lr
 124:	00000014 	andeq	r0, r0, r4, lsl r0
 128:	00000000 	andeq	r0, r0, r0
 12c:	000082f0 	strdeq	r8, [r0], -r0
 130:	00000028 	andeq	r0, r0, r8, lsr #32
 134:	84080e42 	strhi	r0, [r8], #-3650	; 0xfffff1be
 138:	00018e02 	andeq	r8, r1, r2, lsl #28
 13c:	0000001c 	andeq	r0, r0, ip, lsl r0
 140:	00000000 	andeq	r0, r0, r0
 144:	00008318 	andeq	r8, r0, r8, lsl r3
 148:	000002c0 	andeq	r0, r0, r0, asr #5
 14c:	84100e42 	ldrhi	r0, [r0], #-3650	; 0xfffff1be
 150:	86038504 	strhi	r8, [r3], -r4, lsl #10
 154:	42018e02 	andmi	r8, r1, #2, 28
 158:	0000400e 	andeq	r4, r0, lr
 15c:	0000000c 	andeq	r0, r0, ip
 160:	ffffffff 			; <UNDEFINED> instruction: 0xffffffff
 164:	7c020001 	stcvc	0, cr0, [r2], {1}
 168:	000d0c0e 	andeq	r0, sp, lr, lsl #24
 16c:	00000034 	andeq	r0, r0, r4, lsr r0
 170:	0000015c 	andeq	r0, r0, ip, asr r1
 174:	000085d8 	ldrdeq	r8, [r0], -r8	; <UNPREDICTABLE>
 178:	00000058 	andeq	r0, r0, r8, asr r0
 17c:	80100e42 	andshi	r0, r0, r2, asr #28
 180:	82038104 	andhi	r8, r3, #1
 184:	42018302 	andmi	r8, r1, #134217728	; 0x8000000
 188:	07841c0e 	streq	r1, [r4, lr, lsl #24]
 18c:	058e0685 	streq	r0, [lr, #1669]	; 0x685
 190:	5c280e42 	stcpl	14, cr0, [r8], #-264	; 0xfffffef8
 194:	ce421c0e 	cdpgt	12, 4, cr1, cr2, cr14, {0}
 198:	100ec4c5 	andne	ip, lr, r5, asr #9
 19c:	c1c2c342 	bicgt	ip, r2, r2, asr #6
 1a0:	00000ec0 	andeq	r0, r0, r0, asr #29
 1a4:	0000000c 	andeq	r0, r0, ip
 1a8:	ffffffff 			; <UNDEFINED> instruction: 0xffffffff
 1ac:	7c020001 	stcvc	0, cr0, [r2], {1}
 1b0:	000d0c0e 	andeq	r0, sp, lr, lsl #24
 1b4:	00000014 	andeq	r0, r0, r4, lsl r0
 1b8:	000001a4 	andeq	r0, r0, r4, lsr #3
 1bc:	00008630 	andeq	r8, r0, r0, lsr r6
 1c0:	00000014 	andeq	r0, r0, r4, lsl r0
 1c4:	84080e42 	strhi	r0, [r8], #-3650	; 0xfffff1be
 1c8:	00018e02 	andeq	r8, r1, r2, lsl #28
 1cc:	0000000c 	andeq	r0, r0, ip
 1d0:	000001a4 	andeq	r0, r0, r4, lsr #3
 1d4:	00008644 	andeq	r8, r0, r4, asr #12
 1d8:	00000018 	andeq	r0, r0, r8, lsl r0
 1dc:	0000000c 	andeq	r0, r0, ip
 1e0:	000001a4 	andeq	r0, r0, r4, lsr #3
 1e4:	0000865c 	andeq	r8, r0, ip, asr r6
 1e8:	00000010 	andeq	r0, r0, r0, lsl r0
 1ec:	0000000c 	andeq	r0, r0, ip
 1f0:	ffffffff 			; <UNDEFINED> instruction: 0xffffffff
 1f4:	7c020001 	stcvc	0, cr0, [r2], {1}
 1f8:	000d0c0e 	andeq	r0, sp, lr, lsl #24
 1fc:	00000014 	andeq	r0, r0, r4, lsl r0
 200:	000001ec 	andeq	r0, r0, ip, ror #3
 204:	0000866c 	andeq	r8, r0, ip, ror #12
 208:	00000034 	andeq	r0, r0, r4, lsr r0
 20c:	84080e42 	strhi	r0, [r8], #-3650	; 0xfffff1be
 210:	00018e02 	andeq	r8, r1, r2, lsl #28
 214:	0000000c 	andeq	r0, r0, ip
 218:	ffffffff 			; <UNDEFINED> instruction: 0xffffffff
 21c:	7c020001 	stcvc	0, cr0, [r2], {1}
 220:	000d0c0e 	andeq	r0, sp, lr, lsl #24
 224:	0000000c 	andeq	r0, r0, ip
 228:	00000214 	andeq	r0, r0, r4, lsl r2
 22c:	000086a0 	andeq	r8, r0, r0, lsr #13
 230:	00000014 	andeq	r0, r0, r4, lsl r0
 234:	0000000c 	andeq	r0, r0, ip
 238:	00000214 	andeq	r0, r0, r4, lsl r2
 23c:	000086b4 			; <UNDEFINED> instruction: 0x000086b4
 240:	00000024 	andeq	r0, r0, r4, lsr #32
 244:	0000000c 	andeq	r0, r0, ip
 248:	00000214 	andeq	r0, r0, r4, lsl r2
 24c:	000086d8 	ldrdeq	r8, [r0], -r8	; <UNPREDICTABLE>
 250:	00000038 	andeq	r0, r0, r8, lsr r0
 254:	00000024 	andeq	r0, r0, r4, lsr #32
 258:	00000214 	andeq	r0, r0, r4, lsl r2
 25c:	00008710 	andeq	r8, r0, r0, lsl r7
 260:	000001b4 			; <UNDEFINED> instruction: 0x000001b4
 264:	84140e42 	ldrhi	r0, [r4], #-3650	; 0xfffff1be
 268:	86048505 	strhi	r8, [r4], -r5, lsl #10
 26c:	8e028703 	cdphi	7, 0, cr8, cr2, cr3, {0}
 270:	600e4201 	andvs	r4, lr, r1, lsl #4
 274:	0e0a9a02 	vmlaeq.f32	s18, s20, s4
 278:	000b4214 	andeq	r4, fp, r4, lsl r2
 27c:	00000014 	andeq	r0, r0, r4, lsl r0
 280:	00000214 	andeq	r0, r0, r4, lsl r2
 284:	000088c4 	andeq	r8, r0, r4, asr #17
 288:	00000064 	andeq	r0, r0, r4, rrx
 28c:	8e040e54 	mcrhi	14, 0, r0, cr4, cr4, {2}
 290:	100e4201 	andne	r4, lr, r1, lsl #4
 294:	0000002c 	andeq	r0, r0, ip, lsr #32
 298:	00000214 	andeq	r0, r0, r4, lsl r2
 29c:	00008928 	andeq	r8, r0, r8, lsr #18
 2a0:	000004b8 			; <UNDEFINED> instruction: 0x000004b8
 2a4:	84240e42 	strthi	r0, [r4], #-3650	; 0xfffff1be
 2a8:	86088509 	strhi	r8, [r8], -r9, lsl #10
 2ac:	88068707 	stmdahi	r6, {r0, r1, r2, r8, r9, sl, pc}
 2b0:	8a048905 	bhi	1226cc <__bss_end__+0x1186ac>
 2b4:	8e028b03 	vmlahi.f64	d8, d2, d3
 2b8:	b80e4201 	stmdalt	lr, {r0, r9, lr}
 2bc:	02380302 	eorseq	r0, r8, #134217728	; 0x8000000
 2c0:	0000240e 	andeq	r2, r0, lr, lsl #8
 2c4:	0000000c 	andeq	r0, r0, ip
 2c8:	ffffffff 			; <UNDEFINED> instruction: 0xffffffff
 2cc:	7c020001 	stcvc	0, cr0, [r2], {1}
 2d0:	000d0c0e 	andeq	r0, sp, lr, lsl #24
 2d4:	00000014 	andeq	r0, r0, r4, lsl r0
 2d8:	000002c4 	andeq	r0, r0, r4, asr #5
 2dc:	00008de0 	andeq	r8, r0, r0, ror #27
 2e0:	0000002c 	andeq	r0, r0, ip, lsr #32
 2e4:	84080e42 	strhi	r0, [r8], #-3650	; 0xfffff1be
 2e8:	00018e02 	andeq	r8, r1, r2, lsl #28
 2ec:	0000000c 	andeq	r0, r0, ip
 2f0:	ffffffff 			; <UNDEFINED> instruction: 0xffffffff
 2f4:	7c020001 	stcvc	0, cr0, [r2], {1}
 2f8:	000d0c0e 	andeq	r0, sp, lr, lsl #24
 2fc:	00000014 	andeq	r0, r0, r4, lsl r0
 300:	000002ec 	andeq	r0, r0, ip, ror #5
 304:	00008e0c 	andeq	r8, r0, ip, lsl #28
 308:	0000003c 	andeq	r0, r0, ip, lsr r0
 30c:	84080e42 	strhi	r0, [r8], #-3650	; 0xfffff1be
 310:	00018e02 	andeq	r8, r1, r2, lsl #28
 314:	0000000c 	andeq	r0, r0, ip
 318:	ffffffff 			; <UNDEFINED> instruction: 0xffffffff
 31c:	7c020001 	stcvc	0, cr0, [r2], {1}
 320:	000d0c0e 	andeq	r0, sp, lr, lsl #24
 324:	0000000c 	andeq	r0, r0, ip
 328:	00000314 	andeq	r0, r0, r4, lsl r3
 32c:	00008e48 	andeq	r8, r0, r8, asr #28
 330:	00000004 	andeq	r0, r0, r4
 334:	0000000c 	andeq	r0, r0, ip
 338:	ffffffff 			; <UNDEFINED> instruction: 0xffffffff
 33c:	7c020001 	stcvc	0, cr0, [r2], {1}
 340:	000d0c0e 	andeq	r0, sp, lr, lsl #24
 344:	0000000c 	andeq	r0, r0, ip
 348:	00000334 	andeq	r0, r0, r4, lsr r3
 34c:	00008e4c 	andeq	r8, r0, ip, asr #28
 350:	00000018 	andeq	r0, r0, r8, lsl r0
 354:	0000000c 	andeq	r0, r0, ip
 358:	00000334 	andeq	r0, r0, r4, lsr r3
 35c:	00008e64 	andeq	r8, r0, r4, ror #28
 360:	00000014 	andeq	r0, r0, r4, lsl r0
 364:	00000014 	andeq	r0, r0, r4, lsl r0
 368:	00000334 	andeq	r0, r0, r4, lsr r3
 36c:	00008e78 	andeq	r8, r0, r8, ror lr
 370:	00000054 	andeq	r0, r0, r4, asr r0
 374:	84080e42 	strhi	r0, [r8], #-3650	; 0xfffff1be
 378:	00018e02 	andeq	r8, r1, r2, lsl #28
 37c:	0000000c 	andeq	r0, r0, ip
 380:	ffffffff 			; <UNDEFINED> instruction: 0xffffffff
 384:	7c020001 	stcvc	0, cr0, [r2], {1}
 388:	000d0c0e 	andeq	r0, sp, lr, lsl #24
 38c:	00000014 	andeq	r0, r0, r4, lsl r0
 390:	0000037c 	andeq	r0, r0, ip, ror r3
 394:	00008ecc 	andeq	r8, r0, ip, asr #29
 398:	00000014 	andeq	r0, r0, r4, lsl r0
 39c:	84080e42 	strhi	r0, [r8], #-3650	; 0xfffff1be
 3a0:	00018e02 	andeq	r8, r1, r2, lsl #28
 3a4:	00000014 	andeq	r0, r0, r4, lsl r0
 3a8:	0000037c 	andeq	r0, r0, ip, ror r3
 3ac:	00008ee0 	andeq	r8, r0, r0, ror #29
 3b0:	0000001c 	andeq	r0, r0, ip, lsl r0
 3b4:	84080e42 	strhi	r0, [r8], #-3650	; 0xfffff1be
 3b8:	00018e02 	andeq	r8, r1, r2, lsl #28
 3bc:	00000018 	andeq	r0, r0, r8, lsl r0
 3c0:	0000037c 	andeq	r0, r0, ip, ror r3
 3c4:	00008efc 	strdeq	r8, [r0], -ip
 3c8:	00000024 	andeq	r0, r0, r4, lsr #32
 3cc:	84100e42 	ldrhi	r0, [r0], #-3650	; 0xfffff1be
 3d0:	86038504 	strhi	r8, [r3], -r4, lsl #10
 3d4:	00018e02 	andeq	r8, r1, r2, lsl #28
 3d8:	00000014 	andeq	r0, r0, r4, lsl r0
 3dc:	0000037c 	andeq	r0, r0, ip, ror r3
 3e0:	00008f20 	andeq	r8, r0, r0, lsr #30
 3e4:	00000018 	andeq	r0, r0, r8, lsl r0
 3e8:	84080e42 	strhi	r0, [r8], #-3650	; 0xfffff1be
 3ec:	00018e02 	andeq	r8, r1, r2, lsl #28
 3f0:	00000014 	andeq	r0, r0, r4, lsl r0
 3f4:	0000037c 	andeq	r0, r0, ip, ror r3
 3f8:	00008f38 	andeq	r8, r0, r8, lsr pc
 3fc:	00000018 	andeq	r0, r0, r8, lsl r0
 400:	84080e42 	strhi	r0, [r8], #-3650	; 0xfffff1be
 404:	00018e02 	andeq	r8, r1, r2, lsl #28
 408:	0000000c 	andeq	r0, r0, ip
 40c:	ffffffff 			; <UNDEFINED> instruction: 0xffffffff
 410:	7c020001 	stcvc	0, cr0, [r2], {1}
 414:	000d0c0e 	andeq	r0, sp, lr, lsl #24
 418:	00000018 	andeq	r0, r0, r8, lsl r0
 41c:	00000408 	andeq	r0, r0, r8, lsl #8
 420:	00008f50 	andeq	r8, r0, r0, asr pc
 424:	00000020 	andeq	r0, r0, r0, lsr #32
 428:	84100e42 	ldrhi	r0, [r0], #-3650	; 0xfffff1be
 42c:	86038504 	strhi	r8, [r3], -r4, lsl #10
 430:	00018e02 	andeq	r8, r1, r2, lsl #28
 434:	00000018 	andeq	r0, r0, r8, lsl r0
 438:	00000408 	andeq	r0, r0, r8, lsl #8
 43c:	00008f70 	andeq	r8, r0, r0, ror pc
 440:	00000020 	andeq	r0, r0, r0, lsr #32
 444:	84100e42 	ldrhi	r0, [r0], #-3650	; 0xfffff1be
 448:	86038504 	strhi	r8, [r3], -r4, lsl #10
 44c:	00018e02 	andeq	r8, r1, r2, lsl #28
 450:	00000014 	andeq	r0, r0, r4, lsl r0
 454:	00000408 	andeq	r0, r0, r8, lsl #8
 458:	00008f90 	muleq	r0, r0, pc	; <UNPREDICTABLE>
 45c:	000000b0 	strheq	r0, [r0], -r0	; <UNPREDICTABLE>
 460:	84080e42 	strhi	r0, [r8], #-3650	; 0xfffff1be
 464:	00018e02 	andeq	r8, r1, r2, lsl #28
 468:	00000014 	andeq	r0, r0, r4, lsl r0
 46c:	00000408 	andeq	r0, r0, r8, lsl #8
 470:	00009040 	andeq	r9, r0, r0, asr #32
 474:	00000018 	andeq	r0, r0, r8, lsl r0
 478:	84080e42 	strhi	r0, [r8], #-3650	; 0xfffff1be
 47c:	00018e02 	andeq	r8, r1, r2, lsl #28
 480:	00000014 	andeq	r0, r0, r4, lsl r0
 484:	00000408 	andeq	r0, r0, r8, lsl #8
 488:	00009058 	andeq	r9, r0, r8, asr r0
 48c:	00000020 	andeq	r0, r0, r0, lsr #32
 490:	84080e42 	strhi	r0, [r8], #-3650	; 0xfffff1be
 494:	00018e02 	andeq	r8, r1, r2, lsl #28
 498:	00000014 	andeq	r0, r0, r4, lsl r0
 49c:	00000408 	andeq	r0, r0, r8, lsl #8
 4a0:	00009078 	andeq	r9, r0, r8, ror r0
 4a4:	00000030 	andeq	r0, r0, r0, lsr r0
 4a8:	84080e42 	strhi	r0, [r8], #-3650	; 0xfffff1be
 4ac:	00018e02 	andeq	r8, r1, r2, lsl #28
 4b0:	00000014 	andeq	r0, r0, r4, lsl r0
 4b4:	00000408 	andeq	r0, r0, r8, lsl #8
 4b8:	000090a8 	andeq	r9, r0, r8, lsr #1
 4bc:	00000030 	andeq	r0, r0, r0, lsr r0
 4c0:	84080e42 	strhi	r0, [r8], #-3650	; 0xfffff1be
 4c4:	00018e02 	andeq	r8, r1, r2, lsl #28
 4c8:	00000014 	andeq	r0, r0, r4, lsl r0
 4cc:	00000408 	andeq	r0, r0, r8, lsl #8
 4d0:	000090d8 	ldrdeq	r9, [r0], -r8
 4d4:	00000010 	andeq	r0, r0, r0, lsl r0
 4d8:	84080e42 	strhi	r0, [r8], #-3650	; 0xfffff1be
 4dc:	00018e02 	andeq	r8, r1, r2, lsl #28
 4e0:	00000014 	andeq	r0, r0, r4, lsl r0
 4e4:	00000408 	andeq	r0, r0, r8, lsl #8
 4e8:	000090e8 	andeq	r9, r0, r8, ror #1
 4ec:	00000020 	andeq	r0, r0, r0, lsr #32
 4f0:	84080e42 	strhi	r0, [r8], #-3650	; 0xfffff1be
 4f4:	00018e02 	andeq	r8, r1, r2, lsl #28
 4f8:	00000014 	andeq	r0, r0, r4, lsl r0
 4fc:	00000408 	andeq	r0, r0, r8, lsl #8
 500:	00009108 	andeq	r9, r0, r8, lsl #2
 504:	00000014 	andeq	r0, r0, r4, lsl r0
 508:	84080e42 	strhi	r0, [r8], #-3650	; 0xfffff1be
 50c:	00018e02 	andeq	r8, r1, r2, lsl #28
 510:	00000014 	andeq	r0, r0, r4, lsl r0
 514:	00000408 	andeq	r0, r0, r8, lsl #8
 518:	0000911c 	andeq	r9, r0, ip, lsl r1
 51c:	00000024 	andeq	r0, r0, r4, lsr #32
 520:	84080e42 	strhi	r0, [r8], #-3650	; 0xfffff1be
 524:	00018e02 	andeq	r8, r1, r2, lsl #28
 528:	0000000c 	andeq	r0, r0, ip
 52c:	ffffffff 			; <UNDEFINED> instruction: 0xffffffff
 530:	7c020001 	stcvc	0, cr0, [r2], {1}
 534:	000d0c0e 	andeq	r0, sp, lr, lsl #24
 538:	0000000c 	andeq	r0, r0, ip
 53c:	00000528 	andeq	r0, r0, r8, lsr #10
 540:	00009140 	andeq	r9, r0, r0, asr #2
 544:	00000010 	andeq	r0, r0, r0, lsl r0
 548:	0000000c 	andeq	r0, r0, ip
 54c:	00000528 	andeq	r0, r0, r8, lsr #10
 550:	00009150 	andeq	r9, r0, r0, asr r1
 554:	00000010 	andeq	r0, r0, r0, lsl r0
 558:	0000000c 	andeq	r0, r0, ip
 55c:	00000528 	andeq	r0, r0, r8, lsr #10
 560:	00009160 	andeq	r9, r0, r0, ror #2
 564:	00000010 	andeq	r0, r0, r0, lsl r0
 568:	0000001c 	andeq	r0, r0, ip, lsl r0
 56c:	00000528 	andeq	r0, r0, r8, lsr #10
 570:	00009170 	andeq	r9, r0, r0, ror r1
 574:	0000009c 	muleq	r0, ip, r0
 578:	8e040e42 	cdphi	14, 0, cr0, cr4, cr2, {2}
 57c:	100e4201 	andne	r4, lr, r1, lsl #4
 580:	040e0a58 	streq	r0, [lr], #-2648	; 0xfffff5a8
 584:	00000b42 	andeq	r0, r0, r2, asr #22
 588:	00000014 	andeq	r0, r0, r4, lsl r0
 58c:	00000528 	andeq	r0, r0, r8, lsr #10
 590:	0000920c 	andeq	r9, r0, ip, lsl #4
 594:	00000058 	andeq	r0, r0, r8, asr r0
 598:	84080e42 	strhi	r0, [r8], #-3650	; 0xfffff1be
 59c:	00018e02 	andeq	r8, r1, r2, lsl #28
 5a0:	0000001c 	andeq	r0, r0, ip, lsl r0
 5a4:	00000528 	andeq	r0, r0, r8, lsr #10
 5a8:	00009264 	andeq	r9, r0, r4, ror #4
 5ac:	00000098 	muleq	r0, r8, r0
 5b0:	8e040e42 	cdphi	14, 0, cr0, cr4, cr2, {2}
 5b4:	100e4201 	andne	r4, lr, r1, lsl #4
 5b8:	040e0a58 	streq	r0, [lr], #-2648	; 0xfffff5a8
 5bc:	00000b42 	andeq	r0, r0, r2, asr #22
 5c0:	00000020 	andeq	r0, r0, r0, lsr #32
 5c4:	00000528 	andeq	r0, r0, r8, lsr #10
 5c8:	000092fc 	strdeq	r9, [r0], -ip
 5cc:	00000064 	andeq	r0, r0, r4, rrx
 5d0:	840c0e42 	strhi	r0, [ip], #-3650	; 0xfffff1be
 5d4:	8e028503 	cfsh32hi	mvfx8, mvfx2, #3
 5d8:	180e4201 	stmdane	lr, {r0, r9, lr}
 5dc:	0c0e0a54 			; <UNDEFINED> instruction: 0x0c0e0a54
 5e0:	00000b42 	andeq	r0, r0, r2, asr #22
 5e4:	0000001c 	andeq	r0, r0, ip, lsl r0
 5e8:	00000528 	andeq	r0, r0, r8, lsr #10
 5ec:	00009360 	andeq	r9, r0, r0, ror #6
 5f0:	00000118 	andeq	r0, r0, r8, lsl r1
 5f4:	8e040e42 	cdphi	14, 0, cr0, cr4, cr2, {2}
 5f8:	100e4201 	andne	r4, lr, r1, lsl #4
 5fc:	040e0a6c 	streq	r0, [lr], #-2668	; 0xfffff594
 600:	00000b42 	andeq	r0, r0, r2, asr #22
 604:	0000000c 	andeq	r0, r0, ip
 608:	00000528 	andeq	r0, r0, r8, lsr #10
 60c:	00009478 	andeq	r9, r0, r8, ror r4
 610:	00000004 	andeq	r0, r0, r4
 614:	0000000c 	andeq	r0, r0, ip
 618:	00000528 	andeq	r0, r0, r8, lsr #10
 61c:	0000947c 	andeq	r9, r0, ip, ror r4
 620:	00000014 	andeq	r0, r0, r4, lsl r0
 624:	00000014 	andeq	r0, r0, r4, lsl r0
 628:	00000528 	andeq	r0, r0, r8, lsr #10
 62c:	00009490 	muleq	r0, r0, r4
 630:	00000060 	andeq	r0, r0, r0, rrx
 634:	8e040e58 	mcrhi	14, 0, r0, cr4, cr8, {2}
 638:	100e4201 	andne	r4, lr, r1, lsl #4
 63c:	0000000c 	andeq	r0, r0, ip
 640:	ffffffff 			; <UNDEFINED> instruction: 0xffffffff
 644:	7c020001 	stcvc	0, cr0, [r2], {1}
 648:	000d0c0e 	andeq	r0, sp, lr, lsl #24
 64c:	0000000c 	andeq	r0, r0, ip
 650:	0000063c 	andeq	r0, r0, ip, lsr r6
 654:	000094f0 	strdeq	r9, [r0], -r0
 658:	00000018 	andeq	r0, r0, r8, lsl r0
 65c:	0000000c 	andeq	r0, r0, ip
 660:	ffffffff 			; <UNDEFINED> instruction: 0xffffffff
 664:	7c020001 	stcvc	0, cr0, [r2], {1}
 668:	000d0c0e 	andeq	r0, sp, lr, lsl #24
 66c:	0000000c 	andeq	r0, r0, ip
 670:	0000065c 	andeq	r0, r0, ip, asr r6
 674:	00009508 	andeq	r9, r0, r8, lsl #10
 678:	00000034 	andeq	r0, r0, r4, lsr r0
 67c:	0000000c 	andeq	r0, r0, ip
 680:	ffffffff 			; <UNDEFINED> instruction: 0xffffffff
 684:	7c020001 	stcvc	0, cr0, [r2], {1}
 688:	000d0c0e 	andeq	r0, sp, lr, lsl #24
 68c:	0000000c 	andeq	r0, r0, ip
 690:	0000067c 	andeq	r0, r0, ip, ror r6
 694:	0000953c 	andeq	r9, r0, ip, lsr r5
 698:	0000002c 	andeq	r0, r0, ip, lsr #32
 69c:	0000000c 	andeq	r0, r0, ip
 6a0:	ffffffff 			; <UNDEFINED> instruction: 0xffffffff
 6a4:	7c020001 	stcvc	0, cr0, [r2], {1}
 6a8:	000d0c0e 	andeq	r0, sp, lr, lsl #24
 6ac:	0000000c 	andeq	r0, r0, ip
 6b0:	0000069c 	muleq	r0, ip, r6
 6b4:	00009568 	andeq	r9, r0, r8, ror #10
 6b8:	00000020 	andeq	r0, r0, r0, lsr #32
 6bc:	0000000c 	andeq	r0, r0, ip
 6c0:	ffffffff 			; <UNDEFINED> instruction: 0xffffffff
 6c4:	7c020001 	stcvc	0, cr0, [r2], {1}
 6c8:	000d0c0e 	andeq	r0, sp, lr, lsl #24
 6cc:	0000000c 	andeq	r0, r0, ip
 6d0:	000006bc 			; <UNDEFINED> instruction: 0x000006bc
 6d4:	00009588 	andeq	r9, r0, r8, lsl #11
 6d8:	0000002c 	andeq	r0, r0, ip, lsr #32
 6dc:	0000000c 	andeq	r0, r0, ip
 6e0:	ffffffff 			; <UNDEFINED> instruction: 0xffffffff
 6e4:	7c020001 	stcvc	0, cr0, [r2], {1}
 6e8:	000d0c0e 	andeq	r0, sp, lr, lsl #24
 6ec:	0000000c 	andeq	r0, r0, ip
 6f0:	000006dc 	ldrdeq	r0, [r0], -ip
 6f4:	000095b4 			; <UNDEFINED> instruction: 0x000095b4
 6f8:	00000004 	andeq	r0, r0, r4
 6fc:	0000000c 	andeq	r0, r0, ip
 700:	ffffffff 			; <UNDEFINED> instruction: 0xffffffff
 704:	7c020001 	stcvc	0, cr0, [r2], {1}
 708:	000d0c0e 	andeq	r0, sp, lr, lsl #24
 70c:	00000018 	andeq	r0, r0, r8, lsl r0
 710:	000006fc 	strdeq	r0, [r0], -ip
 714:	000095d0 	ldrdeq	r9, [r0], -r0
 718:	00000064 	andeq	r0, r0, r4, rrx
 71c:	84100e46 	ldrhi	r0, [r0], #-3654	; 0xfffff1ba
 720:	86038504 	strhi	r8, [r3], -r4, lsl #10
 724:	00018e02 	andeq	r8, r1, r2, lsl #28
 728:	00000014 	andeq	r0, r0, r4, lsl r0
 72c:	000006fc 	strdeq	r0, [r0], -ip
 730:	00009634 	andeq	r9, r0, r4, lsr r6
 734:	00000010 	andeq	r0, r0, r0, lsl r0
 738:	84080e42 	strhi	r0, [r8], #-3650	; 0xfffff1be
 73c:	00018e02 	andeq	r8, r1, r2, lsl #28
 740:	00000014 	andeq	r0, r0, r4, lsl r0
 744:	000006fc 	strdeq	r0, [r0], -ip
 748:	00009644 	andeq	r9, r0, r4, asr #12
 74c:	00000024 	andeq	r0, r0, r4, lsr #32
 750:	84080e46 	strhi	r0, [r8], #-3654	; 0xfffff1ba
 754:	00018e02 	andeq	r8, r1, r2, lsl #28
 758:	00000014 	andeq	r0, r0, r4, lsl r0
 75c:	000006fc 	strdeq	r0, [r0], -ip
 760:	00009668 	andeq	r9, r0, r8, ror #12
 764:	00000024 	andeq	r0, r0, r4, lsr #32
 768:	84080e46 	strhi	r0, [r8], #-3654	; 0xfffff1ba
 76c:	00018e02 	andeq	r8, r1, r2, lsl #28
 770:	00000014 	andeq	r0, r0, r4, lsl r0
 774:	000006fc 	strdeq	r0, [r0], -ip
 778:	0000968c 	andeq	r9, r0, ip, lsl #13
 77c:	00000010 	andeq	r0, r0, r0, lsl r0
 780:	84080e42 	strhi	r0, [r8], #-3650	; 0xfffff1be
 784:	00018e02 	andeq	r8, r1, r2, lsl #28
 788:	00000014 	andeq	r0, r0, r4, lsl r0
 78c:	000006fc 	strdeq	r0, [r0], -ip
 790:	0000969c 	muleq	r0, ip, r6
 794:	0000001c 	andeq	r0, r0, ip, lsl r0
 798:	84080e42 	strhi	r0, [r8], #-3650	; 0xfffff1be
 79c:	00018e02 	andeq	r8, r1, r2, lsl #28
 7a0:	00000018 	andeq	r0, r0, r8, lsl r0
 7a4:	000006fc 	strdeq	r0, [r0], -ip
 7a8:	000096b8 			; <UNDEFINED> instruction: 0x000096b8
 7ac:	00000034 	andeq	r0, r0, r4, lsr r0
 7b0:	84080e46 	strhi	r0, [r8], #-3654	; 0xfffff1ba
 7b4:	4e018e02 	cdpmi	14, 0, cr8, cr1, cr2, {0}
 7b8:	cec4000e 	cdpgt	0, 12, cr0, cr4, cr14, {0}
