
tsop.elf:     file format elf32-littlearm


Disassembly of section .text:

00008000 <__code_start__>:
    8000:	e3a00013 	mov	r0, #19, 0
    8004:	e3800080 	orr	r0, r0, #128, 0	; 0x80
    8008:	e129f000 	msr	CPSR_fc, r0
    800c:	e3a01000 	mov	r1, #0, 0
    8010:	ee071f95 	mcr	15, 0, r1, cr7, cr5, {4}
    8014:	e3a0d302 	mov	sp, #134217728	; 0x8000000
    8018:	e3a0b000 	mov	fp, #0, 0
    801c:	eb000517 	bl	9480 <_cstart>
    8020:	eb00059c 	bl	9698 <rpi_reboot>

00008024 <PUT32>:
    8024:	e5801000 	str	r1, [r0]
    8028:	e12fff1e 	bx	lr

0000802c <GET32>:
    802c:	e5900000 	ldr	r0, [r0]
    8030:	e12fff1e 	bx	lr

00008034 <BRANCHTO>:
    8034:	e12fff10 	bx	r0

00008038 <abs>:
    8038:	e3500000 	cmp	r0, #0, 0
    803c:	b2600000 	rsblt	r0, r0, #0, 0
    8040:	e12fff1e 	bx	lr

00008044 <is_skip>:
    8044:	e92d4010 	push	{r4, lr}
    8048:	e1a04000 	mov	r4, r0
    804c:	e5900000 	ldr	r0, [r0]
    8050:	e2400f96 	sub	r0, r0, #600	; 0x258
    8054:	ebfffff7 	bl	8038 <abs>
    8058:	e35000c7 	cmp	r0, #199, 0	; 0xc7
    805c:	ca000004 	bgt	8074 <is_skip+0x30>
    8060:	e5943004 	ldr	r3, [r4, #4]
    8064:	e3530000 	cmp	r3, #0, 0
    8068:	0a000003 	beq	807c <is_skip+0x38>
    806c:	e3a00000 	mov	r0, #0, 0
    8070:	e8bd8010 	pop	{r4, pc}
    8074:	e3a00000 	mov	r0, #0, 0
    8078:	e8bd8010 	pop	{r4, pc}
    807c:	e3a00001 	mov	r0, #1, 0
    8080:	e8bd8010 	pop	{r4, pc}

00008084 <pick>:
    8084:	e92d4070 	push	{r4, r5, r6, lr}
    8088:	e24dd008 	sub	sp, sp, #8, 0
    808c:	e5903004 	ldr	r3, [r0, #4]
    8090:	e3530000 	cmp	r3, #0, 0
    8094:	0a00000b 	beq	80c8 <pick+0x44>
    8098:	e1a04002 	mov	r4, r2
    809c:	e5906000 	ldr	r6, [r0]
    80a0:	e0410006 	sub	r0, r1, r6
    80a4:	ebffffe3 	bl	8038 <abs>
    80a8:	e1a05000 	mov	r5, r0
    80ac:	e0440006 	sub	r0, r4, r6
    80b0:	ebffffe0 	bl	8038 <abs>
    80b4:	e1550000 	cmp	r5, r0
    80b8:	83a00000 	movhi	r0, #0, 0
    80bc:	93a00001 	movls	r0, #1, 0
    80c0:	e28dd008 	add	sp, sp, #8, 0
    80c4:	e8bd8070 	pop	{r4, r5, r6, pc}
    80c8:	e59f3018 	ldr	r3, [pc, #24]	; 80e8 <pick+0x64>
    80cc:	e58d3000 	str	r3, [sp]
    80d0:	e3a03059 	mov	r3, #89, 0	; 0x59
    80d4:	e59f2010 	ldr	r2, [pc, #16]	; 80ec <pick+0x68>
    80d8:	e59f1010 	ldr	r1, [pc, #16]	; 80f0 <pick+0x6c>
    80dc:	e59f0010 	ldr	r0, [pc, #16]	; 80f4 <pick+0x70>
    80e0:	eb0002e8 	bl	8c88 <printk>
    80e4:	eb0004da 	bl	9454 <clean_reboot>
    80e8:	00009bb4 			; <UNDEFINED> instruction: 0x00009bb4
    80ec:	00009d54 	andeq	r9, r0, r4, asr sp
    80f0:	00009b98 	muleq	r0, r8, fp
    80f4:	00009ba0 	andeq	r9, r0, r0, lsr #23

000080f8 <read_while_eq>:
    80f8:	e92d41f0 	push	{r4, r5, r6, r7, r8, lr}
    80fc:	e1a07001 	mov	r7, r1
    8100:	e1a06002 	mov	r6, r2
    8104:	eb00057d 	bl	9700 <timer_get_usec>
    8108:	e1a05000 	mov	r5, r0
    810c:	eb00057b 	bl	9700 <timer_get_usec>
    8110:	e0404005 	sub	r4, r0, r5
    8114:	e1540006 	cmp	r4, r6
    8118:	2a000005 	bcs	8134 <read_while_eq+0x3c>
    811c:	e3a00015 	mov	r0, #21, 0
    8120:	eb000283 	bl	8b34 <gpio_read>
    8124:	e1500007 	cmp	r0, r7
    8128:	0afffff7 	beq	810c <read_while_eq+0x14>
    812c:	e1a00004 	mov	r0, r4
    8130:	e8bd81f0 	pop	{r4, r5, r6, r7, r8, pc}
    8134:	e3a00000 	mov	r0, #0, 0
    8138:	e8bd81f0 	pop	{r4, r5, r6, r7, r8, pc}

0000813c <get_readings>:
    813c:	e92d47f0 	push	{r4, r5, r6, r7, r8, r9, sl, lr}
    8140:	e1a07000 	mov	r7, r0
    8144:	e1a08001 	mov	r8, r1
    8148:	e1a09002 	mov	r9, r2
    814c:	e3a05000 	mov	r5, #0, 0
    8150:	e1a06005 	mov	r6, r5
    8154:	e1550009 	cmp	r5, r9
    8158:	2a00000d 	bcs	8194 <get_readings+0x58>
    815c:	e1a00007 	mov	r0, r7
    8160:	eb000273 	bl	8b34 <gpio_read>
    8164:	e1a04000 	mov	r4, r0
    8168:	e59f202c 	ldr	r2, [pc, #44]	; 819c <get_readings+0x60>
    816c:	e1a01000 	mov	r1, r0
    8170:	e1a00007 	mov	r0, r7
    8174:	ebffffdf 	bl	80f8 <read_while_eq>
    8178:	e3500000 	cmp	r0, #0, 0
    817c:	0a000004 	beq	8194 <get_readings+0x58>
    8180:	e0883186 	add	r3, r8, r6, lsl #3
    8184:	e7880186 	str	r0, [r8, r6, lsl #3]
    8188:	e5834004 	str	r4, [r3, #4]
    818c:	e2855001 	add	r5, r5, #1, 0
    8190:	eaffffee 	b	8150 <get_readings+0x14>
    8194:	e1a00005 	mov	r0, r5
    8198:	e8bd87f0 	pop	{r4, r5, r6, r7, r8, r9, sl, pc}
    819c:	000186a0 	andeq	r8, r1, r0, lsr #13

000081a0 <transmit_for>:
    81a0:	e92d4070 	push	{r4, r5, r6, lr}
    81a4:	e1a04000 	mov	r4, r0
    81a8:	e1a06001 	mov	r6, r1
    81ac:	eb000553 	bl	9700 <timer_get_usec>
    81b0:	e1a05000 	mov	r5, r0
    81b4:	e1a00004 	mov	r0, r4
    81b8:	eb000240 	bl	8ac0 <gpio_set_on>
    81bc:	e3a0000d 	mov	r0, #13, 0
    81c0:	eb000555 	bl	971c <delay_us>
    81c4:	e1a00004 	mov	r0, r4
    81c8:	eb000245 	bl	8ae4 <gpio_set_off>
    81cc:	e3a0000d 	mov	r0, #13, 0
    81d0:	eb000551 	bl	971c <delay_us>
    81d4:	eb000549 	bl	9700 <timer_get_usec>
    81d8:	e0400005 	sub	r0, r0, r5
    81dc:	e1500006 	cmp	r0, r6
    81e0:	3afffff3 	bcc	81b4 <transmit_for+0x14>
    81e4:	e8bd8070 	pop	{r4, r5, r6, pc}

000081e8 <transmit_value>:
    81e8:	e92d4070 	push	{r4, r5, r6, lr}
    81ec:	e1a06000 	mov	r6, r0
    81f0:	e1a05001 	mov	r5, r1
    81f4:	e59f4050 	ldr	r4, [pc, #80]	; 824c <transmit_value+0x64>
    81f8:	e1a01004 	mov	r1, r4
    81fc:	ebffffe7 	bl	81a0 <transmit_for>
    8200:	e1a00004 	mov	r0, r4
    8204:	eb000544 	bl	971c <delay_us>
    8208:	e3a0401f 	mov	r4, #31, 0
    820c:	ea000005 	b	8228 <transmit_value+0x40>
    8210:	e3a01f96 	mov	r1, #600	; 0x258
    8214:	e1a00006 	mov	r0, r6
    8218:	ebffffe0 	bl	81a0 <transmit_for>
    821c:	e3a00f96 	mov	r0, #600	; 0x258
    8220:	eb00053d 	bl	971c <delay_us>
    8224:	e2444001 	sub	r4, r4, #1, 0
    8228:	e3540000 	cmp	r4, #0, 0
    822c:	b8bd8070 	poplt	{r4, r5, r6, pc}
    8230:	e1a03435 	lsr	r3, r5, r4
    8234:	e3130001 	tst	r3, #1, 0
    8238:	0afffff4 	beq	8210 <transmit_value+0x28>
    823c:	e3a01d19 	mov	r1, #1600	; 0x640
    8240:	e1a00006 	mov	r0, r6
    8244:	ebffffd5 	bl	81a0 <transmit_for>
    8248:	eafffff3 	b	821c <transmit_value+0x34>
    824c:	00001194 	muleq	r0, r4, r1

00008250 <key_to_str>:
    8250:	e59f30e4 	ldr	r3, [pc, #228]	; 833c <key_to_str+0xec>
    8254:	e1500003 	cmp	r0, r3
    8258:	0a000025 	beq	82f4 <key_to_str+0xa4>
    825c:	9a000008 	bls	8284 <key_to_str+0x34>
    8260:	e59f30d8 	ldr	r3, [pc, #216]	; 8340 <key_to_str+0xf0>
    8264:	e1500003 	cmp	r0, r3
    8268:	0a00002b 	beq	831c <key_to_str+0xcc>
    826c:	9a000017 	bls	82d0 <key_to_str+0x80>
    8270:	e59f30cc 	ldr	r3, [pc, #204]	; 8344 <key_to_str+0xf4>
    8274:	e1500003 	cmp	r0, r3
    8278:	1a00002d 	bne	8334 <key_to_str+0xe4>
    827c:	e59f00c4 	ldr	r0, [pc, #196]	; 8348 <key_to_str+0xf8>
    8280:	e12fff1e 	bx	lr
    8284:	e2433dff 	sub	r3, r3, #16320	; 0x3fc0
    8288:	e1500003 	cmp	r0, r3
    828c:	0a00001a 	beq	82fc <key_to_str+0xac>
    8290:	9a000004 	bls	82a8 <key_to_str+0x58>
    8294:	e59f30b0 	ldr	r3, [pc, #176]	; 834c <key_to_str+0xfc>
    8298:	e1500003 	cmp	r0, r3
    829c:	1a00001c 	bne	8314 <key_to_str+0xc4>
    82a0:	e59f00a8 	ldr	r0, [pc, #168]	; 8350 <key_to_str+0x100>
    82a4:	e12fff1e 	bx	lr
    82a8:	e2433c7f 	sub	r3, r3, #32512	; 0x7f00
    82ac:	e2433080 	sub	r3, r3, #128, 0	; 0x80
    82b0:	e1500003 	cmp	r0, r3
    82b4:	0a000012 	beq	8304 <key_to_str+0xb4>
    82b8:	e2833de7 	add	r3, r3, #14784	; 0x39c0
    82bc:	e2833006 	add	r3, r3, #6, 0
    82c0:	e1500003 	cmp	r0, r3
    82c4:	1a000010 	bne	830c <key_to_str+0xbc>
    82c8:	e59f0084 	ldr	r0, [pc, #132]	; 8354 <key_to_str+0x104>
    82cc:	e12fff1e 	bx	lr
    82d0:	e2433c65 	sub	r3, r3, #25856	; 0x6500
    82d4:	e243309a 	sub	r3, r3, #154, 0	; 0x9a
    82d8:	e1500003 	cmp	r0, r3
    82dc:	0a000010 	beq	8324 <key_to_str+0xd4>
    82e0:	e2833dff 	add	r3, r3, #16320	; 0x3fc0
    82e4:	e1500003 	cmp	r0, r3
    82e8:	1a00000f 	bne	832c <key_to_str+0xdc>
    82ec:	e59f0064 	ldr	r0, [pc, #100]	; 8358 <key_to_str+0x108>
    82f0:	e12fff1e 	bx	lr
    82f4:	e59f0060 	ldr	r0, [pc, #96]	; 835c <key_to_str+0x10c>
    82f8:	e12fff1e 	bx	lr
    82fc:	e59f005c 	ldr	r0, [pc, #92]	; 8360 <key_to_str+0x110>
    8300:	e12fff1e 	bx	lr
    8304:	e59f0058 	ldr	r0, [pc, #88]	; 8364 <key_to_str+0x114>
    8308:	e12fff1e 	bx	lr
    830c:	e3a00000 	mov	r0, #0, 0
    8310:	e12fff1e 	bx	lr
    8314:	e3a00000 	mov	r0, #0, 0
    8318:	e12fff1e 	bx	lr
    831c:	e59f0044 	ldr	r0, [pc, #68]	; 8368 <key_to_str+0x118>
    8320:	e12fff1e 	bx	lr
    8324:	e59f0040 	ldr	r0, [pc, #64]	; 836c <key_to_str+0x11c>
    8328:	e12fff1e 	bx	lr
    832c:	e3a00000 	mov	r0, #0, 0
    8330:	e12fff1e 	bx	lr
    8334:	e3a00000 	mov	r0, #0, 0
    8338:	e12fff1e 	bx	lr
    833c:	c3dee31c 	bicsgt	lr, lr, #28, 6	; 0x70000000
    8340:	c3dfc23c 	bicsgt	ip, pc, #60, 4	; 0xc0000003
    8344:	c3dfe21c 	bicsgt	lr, pc, #28, 4	; 0xc0000001
    8348:	00009c00 	andeq	r9, r0, r0, lsl #24
    834c:	c3dedd22 	bicsgt	sp, lr, #2176	; 0x880
    8350:	00009bc4 	andeq	r9, r0, r4, asr #23
    8354:	00009be8 	andeq	r9, r0, r8, ror #23
    8358:	00009bf8 	strdeq	r9, [r0], -r8
    835c:	00009bf0 	strdeq	r9, [r0], -r0
    8360:	00009bbc 			; <UNDEFINED> instruction: 0x00009bbc
    8364:	00009bcc 	andeq	r9, r0, ip, asr #23
    8368:	00009bd4 	ldrdeq	r9, [r0], -r4
    836c:	00009bdc 	ldrdeq	r9, [r0], -ip

00008370 <is_header>:
    8370:	e080c181 	add	ip, r0, r1, lsl #3
    8374:	e7902181 	ldr	r2, [r0, r1, lsl #3]
    8378:	e59f305c 	ldr	r3, [pc, #92]	; 83dc <is_header+0x6c>
    837c:	e1520003 	cmp	r2, r3
    8380:	9a00000d 	bls	83bc <is_header+0x4c>
    8384:	e59c3004 	ldr	r3, [ip, #4]
    8388:	e3530000 	cmp	r3, #0, 0
    838c:	1a00000c 	bne	83c4 <is_header+0x54>
    8390:	e2811001 	add	r1, r1, #1, 0
    8394:	e080c181 	add	ip, r0, r1, lsl #3
    8398:	e7902181 	ldr	r2, [r0, r1, lsl #3]
    839c:	e59f3038 	ldr	r3, [pc, #56]	; 83dc <is_header+0x6c>
    83a0:	e1520003 	cmp	r2, r3
    83a4:	9a000008 	bls	83cc <is_header+0x5c>
    83a8:	e59c3004 	ldr	r3, [ip, #4]
    83ac:	e3530001 	cmp	r3, #1, 0
    83b0:	0a000007 	beq	83d4 <is_header+0x64>
    83b4:	e3a00000 	mov	r0, #0, 0
    83b8:	e12fff1e 	bx	lr
    83bc:	e3a00000 	mov	r0, #0, 0
    83c0:	e12fff1e 	bx	lr
    83c4:	e3a00000 	mov	r0, #0, 0
    83c8:	e12fff1e 	bx	lr
    83cc:	e3a00000 	mov	r0, #0, 0
    83d0:	e12fff1e 	bx	lr
    83d4:	e3a00001 	mov	r0, #1, 0
    83d8:	e12fff1e 	bx	lr
    83dc:	00000ea6 	andeq	r0, r0, r6, lsr #29

000083e0 <print_readings>:
    83e0:	e92d4070 	push	{r4, r5, r6, lr}
    83e4:	e24dd008 	sub	sp, sp, #8, 0
    83e8:	e2516000 	subs	r6, r1, #0, 0
    83ec:	0a000004 	beq	8404 <print_readings+0x24>
    83f0:	e1a05000 	mov	r5, r0
    83f4:	e59f009c 	ldr	r0, [pc, #156]	; 8498 <print_readings+0xb8>
    83f8:	eb000222 	bl	8c88 <printk>
    83fc:	e3a04000 	mov	r4, #0, 0
    8400:	ea00000e 	b	8440 <print_readings+0x60>
    8404:	e59f3090 	ldr	r3, [pc, #144]	; 849c <print_readings+0xbc>
    8408:	e58d3000 	str	r3, [sp]
    840c:	e3a03078 	mov	r3, #120, 0	; 0x78
    8410:	e59f2088 	ldr	r2, [pc, #136]	; 84a0 <print_readings+0xc0>
    8414:	e59f1088 	ldr	r1, [pc, #136]	; 84a4 <print_readings+0xc4>
    8418:	e59f0088 	ldr	r0, [pc, #136]	; 84a8 <print_readings+0xc8>
    841c:	eb000219 	bl	8c88 <printk>
    8420:	eb00040b 	bl	9454 <clean_reboot>
    8424:	e0852184 	add	r2, r5, r4, lsl #3
    8428:	e7953184 	ldr	r3, [r5, r4, lsl #3]
    842c:	e5922004 	ldr	r2, [r2, #4]
    8430:	e1a01004 	mov	r1, r4
    8434:	e59f0070 	ldr	r0, [pc, #112]	; 84ac <print_readings+0xcc>
    8438:	eb000212 	bl	8c88 <printk>
    843c:	e2844001 	add	r4, r4, #1, 0
    8440:	e1540006 	cmp	r4, r6
    8444:	aa00000e 	bge	8484 <print_readings+0xa4>
    8448:	e3540000 	cmp	r4, #0, 0
    844c:	0afffff4 	beq	8424 <print_readings+0x44>
    8450:	e0461004 	sub	r1, r6, r4
    8454:	e0850184 	add	r0, r5, r4, lsl #3
    8458:	ebffffc4 	bl	8370 <is_header>
    845c:	e3500000 	cmp	r0, #0, 0
    8460:	0affffef 	beq	8424 <print_readings+0x44>
    8464:	e59f3044 	ldr	r3, [pc, #68]	; 84b0 <print_readings+0xd0>
    8468:	e58d3000 	str	r3, [sp]
    846c:	e3a0307c 	mov	r3, #124, 0	; 0x7c
    8470:	e59f2028 	ldr	r2, [pc, #40]	; 84a0 <print_readings+0xc0>
    8474:	e59f1028 	ldr	r1, [pc, #40]	; 84a4 <print_readings+0xc4>
    8478:	e59f0028 	ldr	r0, [pc, #40]	; 84a8 <print_readings+0xc8>
    847c:	eb000201 	bl	8c88 <printk>
    8480:	eb0003f3 	bl	9454 <clean_reboot>
    8484:	e1a01006 	mov	r1, r6
    8488:	e59f0024 	ldr	r0, [pc, #36]	; 84b4 <print_readings+0xd4>
    848c:	eb0001fd 	bl	8c88 <printk>
    8490:	e28dd008 	add	sp, sp, #8, 0
    8494:	e8bd8070 	pop	{r4, r5, r6, pc}
    8498:	00009c0c 	andeq	r9, r0, ip, lsl #24
    849c:	00009c08 	andeq	r9, r0, r8, lsl #24
    84a0:	00009d5c 	andeq	r9, r0, ip, asr sp
    84a4:	00009b98 	muleq	r0, r8, fp
    84a8:	00009ba0 	andeq	r9, r0, r0, lsr #23
    84ac:	00009c5c 	andeq	r9, r0, ip, asr ip
    84b0:	00009c48 	andeq	r9, r0, r8, asr #24
    84b4:	00009c70 	andeq	r9, r0, r0, ror ip

000084b8 <find_header>:
    84b8:	e92d41f0 	push	{r4, r5, r6, r7, r8, lr}
    84bc:	e3510003 	cmp	r1, #3, 0
    84c0:	9a00000e 	bls	8500 <find_header+0x48>
    84c4:	e1a06000 	mov	r6, r0
    84c8:	e1a05001 	mov	r5, r1
    84cc:	e3a04000 	mov	r4, #0, 0
    84d0:	e1a07004 	mov	r7, r4
    84d4:	ea000000 	b	84dc <find_header+0x24>
    84d8:	e2844001 	add	r4, r4, #1, 0
    84dc:	e2453001 	sub	r3, r5, #1, 0
    84e0:	e1530004 	cmp	r3, r4
    84e4:	9a000006 	bls	8504 <find_header+0x4c>
    84e8:	e1a01004 	mov	r1, r4
    84ec:	e1a00006 	mov	r0, r6
    84f0:	ebffff9e 	bl	8370 <is_header>
    84f4:	e3500000 	cmp	r0, #0, 0
    84f8:	12847003 	addne	r7, r4, #3, 0
    84fc:	eafffff5 	b	84d8 <find_header+0x20>
    8500:	e3a07000 	mov	r7, #0, 0
    8504:	e1a00007 	mov	r0, r7
    8508:	e8bd81f0 	pop	{r4, r5, r6, r7, r8, pc}

0000850c <convert>:
    850c:	e92d43f0 	push	{r4, r5, r6, r7, r8, r9, lr}
    8510:	e24dd00c 	sub	sp, sp, #12, 0
    8514:	e1a06000 	mov	r6, r0
    8518:	e1a07001 	mov	r7, r1
    851c:	e59f00f4 	ldr	r0, [pc, #244]	; 8618 <convert+0x10c>
    8520:	eb0001d8 	bl	8c88 <printk>
    8524:	e1a01007 	mov	r1, r7
    8528:	e1a00006 	mov	r0, r6
    852c:	ebffffe1 	bl	84b8 <find_header>
    8530:	e2504000 	subs	r4, r0, #0, 0
    8534:	da000007 	ble	8558 <convert+0x4c>
    8538:	e1a01007 	mov	r1, r7
    853c:	e1a00006 	mov	r0, r6
    8540:	ebffffa6 	bl	83e0 <print_readings>
    8544:	e0471004 	sub	r1, r7, r4
    8548:	e59f00cc 	ldr	r0, [pc, #204]	; 861c <convert+0x110>
    854c:	eb0001cd 	bl	8c88 <printk>
    8550:	e3a08000 	mov	r8, #0, 0
    8554:	ea000008 	b	857c <convert+0x70>
    8558:	e59f30c0 	ldr	r3, [pc, #192]	; 8620 <convert+0x114>
    855c:	e58d3000 	str	r3, [sp]
    8560:	e3a0308d 	mov	r3, #141, 0	; 0x8d
    8564:	e59f20b8 	ldr	r2, [pc, #184]	; 8624 <convert+0x118>
    8568:	e59f10b8 	ldr	r1, [pc, #184]	; 8628 <convert+0x11c>
    856c:	e59f00b8 	ldr	r0, [pc, #184]	; 862c <convert+0x120>
    8570:	eb0001c4 	bl	8c88 <printk>
    8574:	eb0003b6 	bl	9454 <clean_reboot>
    8578:	e2844002 	add	r4, r4, #2, 0
    857c:	e1a05004 	mov	r5, r4
    8580:	e1540007 	cmp	r4, r7
    8584:	2a000020 	bcs	860c <convert+0x100>
    8588:	e1a01004 	mov	r1, r4
    858c:	e1a00006 	mov	r0, r6
    8590:	ebffff76 	bl	8370 <is_header>
    8594:	e3500000 	cmp	r0, #0, 0
    8598:	1a00001b 	bne	860c <convert+0x100>
    859c:	e3a02d19 	mov	r2, #1600	; 0x640
    85a0:	e3a01f96 	mov	r1, #600	; 0x258
    85a4:	e0860185 	add	r0, r6, r5, lsl #3
    85a8:	ebfffeb5 	bl	8084 <pick>
    85ac:	e1800008 	orr	r0, r0, r8
    85b0:	e1a08080 	lsl	r8, r0, #1
    85b4:	e2473001 	sub	r3, r7, #1, 0
    85b8:	e1530005 	cmp	r3, r5
    85bc:	9affffed 	bls	8578 <convert+0x6c>
    85c0:	e2855001 	add	r5, r5, #1, 0
    85c4:	e0869185 	add	r9, r6, r5, lsl #3
    85c8:	e7963185 	ldr	r3, [r6, r5, lsl #3]
    85cc:	e5992004 	ldr	r2, [r9, #4]
    85d0:	e2841001 	add	r1, r4, #1, 0
    85d4:	e59f0054 	ldr	r0, [pc, #84]	; 8630 <convert+0x124>
    85d8:	eb0001aa 	bl	8c88 <printk>
    85dc:	e1a00009 	mov	r0, r9
    85e0:	ebfffe97 	bl	8044 <is_skip>
    85e4:	e3500000 	cmp	r0, #0, 0
    85e8:	1affffe2 	bne	8578 <convert+0x6c>
    85ec:	e59f3040 	ldr	r3, [pc, #64]	; 8634 <convert+0x128>
    85f0:	e58d3000 	str	r3, [sp]
    85f4:	e3a0309e 	mov	r3, #158, 0	; 0x9e
    85f8:	e59f2024 	ldr	r2, [pc, #36]	; 8624 <convert+0x118>
    85fc:	e59f1024 	ldr	r1, [pc, #36]	; 8628 <convert+0x11c>
    8600:	e59f0024 	ldr	r0, [pc, #36]	; 862c <convert+0x120>
    8604:	eb00019f 	bl	8c88 <printk>
    8608:	eb000391 	bl	9454 <clean_reboot>
    860c:	e1a00008 	mov	r0, r8
    8610:	e28dd00c 	add	sp, sp, #12, 0
    8614:	e8bd83f0 	pop	{r4, r5, r6, r7, r8, r9, pc}
    8618:	00009c80 	andeq	r9, r0, r0, lsl #25
    861c:	00009ca8 	andeq	r9, r0, r8, lsr #25
    8620:	00009c9c 	muleq	r0, ip, ip
    8624:	00009d6c 	andeq	r9, r0, ip, ror #26
    8628:	00009b98 	muleq	r0, r8, fp
    862c:	00009ba0 	andeq	r9, r0, r0, lsr #23
    8630:	00009cbc 			; <UNDEFINED> instruction: 0x00009cbc
    8634:	00009cd0 	ldrdeq	r9, [r0], -r0

00008638 <tsop_init>:
    8638:	e92d4010 	push	{r4, lr}
    863c:	e3a00015 	mov	r0, #21, 0
    8640:	eb000130 	bl	8b08 <gpio_set_input>
    8644:	e3a00015 	mov	r0, #21, 0
    8648:	eb000504 	bl	9a60 <gpio_set_pullup>
    864c:	e3a00001 	mov	r0, #1, 0
    8650:	e8bd8010 	pop	{r4, pc}

00008654 <interrupt_vector>:
    8654:	e92d4070 	push	{r4, r5, r6, lr}
    8658:	eb000428 	bl	9700 <timer_get_usec>
    865c:	e1a05000 	mov	r5, r0
    8660:	e3a00015 	mov	r0, #21, 0
    8664:	eb000132 	bl	8b34 <gpio_read>
    8668:	e1a04000 	mov	r4, r0
    866c:	e3a00015 	mov	r0, #21, 0
    8670:	eb0000e5 	bl	8a0c <gpio_event_clear>
    8674:	e59f3058 	ldr	r3, [pc, #88]	; 86d4 <interrupt_vector+0x80>
    8678:	e5932000 	ldr	r2, [r3]
    867c:	e3520000 	cmp	r2, #0, 0
    8680:	0a000010 	beq	86c8 <interrupt_vector+0x74>
    8684:	e59f3048 	ldr	r3, [pc, #72]	; 86d4 <interrupt_vector+0x80>
    8688:	e5933004 	ldr	r3, [r3, #4]
    868c:	e1530004 	cmp	r3, r4
    8690:	08bd8070 	popeq	{r4, r5, r6, pc}
    8694:	e0452002 	sub	r2, r5, r2
    8698:	e59f1034 	ldr	r1, [pc, #52]	; 86d4 <interrupt_vector+0x80>
    869c:	e5910008 	ldr	r0, [r1, #8]
    86a0:	e081c180 	add	ip, r1, r0, lsl #3
    86a4:	e58c200c 	str	r2, [ip, #12]
    86a8:	e16f3f13 	clz	r3, r3
    86ac:	e1a032a3 	lsr	r3, r3, #5
    86b0:	e58c3010 	str	r3, [ip, #16]
    86b4:	e2800001 	add	r0, r0, #1, 0
    86b8:	e5810008 	str	r0, [r1, #8]
    86bc:	e5815000 	str	r5, [r1]
    86c0:	e5814004 	str	r4, [r1, #4]
    86c4:	e8bd8070 	pop	{r4, r5, r6, pc}
    86c8:	e5835000 	str	r5, [r3]
    86cc:	e5834004 	str	r4, [r3, #4]
    86d0:	e8bd8070 	pop	{r4, r5, r6, pc}
    86d4:	0000a17c 	andeq	sl, r0, ip, ror r1

000086d8 <sync_read>:
    86d8:	e92d4070 	push	{r4, r5, r6, lr}
    86dc:	e3a00015 	mov	r0, #21, 0
    86e0:	ebffffd4 	bl	8638 <tsop_init>
    86e4:	e59f0068 	ldr	r0, [pc, #104]	; 8754 <sync_read+0x7c>
    86e8:	eb000166 	bl	8c88 <printk>
    86ec:	e3a00015 	mov	r0, #21, 0
    86f0:	eb00010f 	bl	8b34 <gpio_read>
    86f4:	e3500000 	cmp	r0, #0, 0
    86f8:	1afffffb 	bne	86ec <sync_read+0x14>
    86fc:	e59f5054 	ldr	r5, [pc, #84]	; 8758 <sync_read+0x80>
    8700:	e3a02c01 	mov	r2, #256	; 0x100
    8704:	e1a01005 	mov	r1, r5
    8708:	e3a00015 	mov	r0, #21, 0
    870c:	ebfffe8a 	bl	813c <get_readings>
    8710:	e1a04000 	mov	r4, r0
    8714:	e59f0040 	ldr	r0, [pc, #64]	; 875c <sync_read+0x84>
    8718:	eb00015a 	bl	8c88 <printk>
    871c:	e1a01004 	mov	r1, r4
    8720:	e1a00005 	mov	r0, r5
    8724:	ebffff78 	bl	850c <convert>
    8728:	e1a04000 	mov	r4, r0
    872c:	e1a01000 	mov	r1, r0
    8730:	e59f0028 	ldr	r0, [pc, #40]	; 8760 <sync_read+0x88>
    8734:	eb000153 	bl	8c88 <printk>
    8738:	e1a00004 	mov	r0, r4
    873c:	ebfffec3 	bl	8250 <key_to_str>
    8740:	e2501000 	subs	r1, r0, #0, 0
    8744:	0affffe8 	beq	86ec <sync_read+0x14>
    8748:	e59f0014 	ldr	r0, [pc, #20]	; 8764 <sync_read+0x8c>
    874c:	eb00014d 	bl	8c88 <printk>
    8750:	eaffffe5 	b	86ec <sync_read+0x14>
    8754:	00009ce4 	andeq	r9, r0, r4, ror #25
    8758:	0000a988 	andeq	sl, r0, r8, lsl #19
    875c:	00009cfc 	strdeq	r9, [r0], -ip
    8760:	00009d14 	andeq	r9, r0, r4, lsl sp
    8764:	00009d28 	andeq	r9, r0, r8, lsr #26

00008768 <interrupt_read>:
    8768:	e92d4010 	push	{r4, lr}
    876c:	e3a00015 	mov	r0, #21, 0
    8770:	ebffffb0 	bl	8638 <tsop_init>
    8774:	eb00039c 	bl	95ec <int_init>
    8778:	e3a00015 	mov	r0, #21, 0
    877c:	eb000067 	bl	8920 <gpio_int_rising_edge>
    8780:	e3a00015 	mov	r0, #21, 0
    8784:	eb000079 	bl	8970 <gpio_int_falling_edge>
    8788:	eb0000fc 	bl	8b80 <system_enable_interrupts>
    878c:	e3a00005 	mov	r0, #5, 0
    8790:	eb0000c6 	bl	8ab0 <gpio_set_output>
    8794:	e59f0084 	ldr	r0, [pc, #132]	; 8820 <interrupt_read+0xb8>
    8798:	eb00013a 	bl	8c88 <printk>
    879c:	ea00000f 	b	87e0 <interrupt_read+0x78>
    87a0:	e59f007c 	ldr	r0, [pc, #124]	; 8824 <interrupt_read+0xbc>
    87a4:	eb000137 	bl	8c88 <printk>
    87a8:	e59f0078 	ldr	r0, [pc, #120]	; 8828 <interrupt_read+0xc0>
    87ac:	e5901008 	ldr	r1, [r0, #8]
    87b0:	e280000c 	add	r0, r0, #12, 0
    87b4:	ebffff54 	bl	850c <convert>
    87b8:	e1e040a0 	mvn	r4, r0, lsr #1
    87bc:	e1a01004 	mov	r1, r4
    87c0:	e59f0064 	ldr	r0, [pc, #100]	; 882c <interrupt_read+0xc4>
    87c4:	eb00012f 	bl	8c88 <printk>
    87c8:	e1a00004 	mov	r0, r4
    87cc:	ebfffe9f 	bl	8250 <key_to_str>
    87d0:	e2501000 	subs	r1, r0, #0, 0
    87d4:	0a000001 	beq	87e0 <interrupt_read+0x78>
    87d8:	e59f0050 	ldr	r0, [pc, #80]	; 8830 <interrupt_read+0xc8>
    87dc:	eb000129 	bl	8c88 <printk>
    87e0:	e59f4040 	ldr	r4, [pc, #64]	; 8828 <interrupt_read+0xc0>
    87e4:	e3a03000 	mov	r3, #0, 0
    87e8:	e5843008 	str	r3, [r4, #8]
    87ec:	e3a00ffa 	mov	r0, #1000	; 0x3e8
    87f0:	eb0003d2 	bl	9740 <delay_ms>
    87f4:	e59f1038 	ldr	r1, [pc, #56]	; 8834 <interrupt_read+0xcc>
    87f8:	e3a00005 	mov	r0, #5, 0
    87fc:	ebfffe79 	bl	81e8 <transmit_value>
    8800:	e5941008 	ldr	r1, [r4, #8]
    8804:	e284000c 	add	r0, r4, #12, 0
    8808:	ebffff2a 	bl	84b8 <find_header>
    880c:	e3500000 	cmp	r0, #0, 0
    8810:	1affffe2 	bne	87a0 <interrupt_read+0x38>
    8814:	e59f001c 	ldr	r0, [pc, #28]	; 8838 <interrupt_read+0xd0>
    8818:	eb00011a 	bl	8c88 <printk>
    881c:	eaffffef 	b	87e0 <interrupt_read+0x78>
    8820:	00009ce4 	andeq	r9, r0, r4, ror #25
    8824:	00009d30 	andeq	r9, r0, r0, lsr sp
    8828:	0000a17c 	andeq	sl, r0, ip, ror r1
    882c:	00009d14 	andeq	r9, r0, r4, lsl sp
    8830:	00009d28 	andeq	r9, r0, r8, lsr #26
    8834:	deadbeef 	cdple	14, 10, cr11, cr13, cr15, {7}
    8838:	00009d2c 	andeq	r9, r0, ip, lsr #26

0000883c <sync_write>:
    883c:	e92d4010 	push	{r4, lr}
    8840:	e3a00005 	mov	r0, #5, 0
    8844:	eb000099 	bl	8ab0 <gpio_set_output>
    8848:	e3a04000 	mov	r4, #0, 0
    884c:	e3540c19 	cmp	r4, #6400	; 0x1900
    8850:	a8bd8010 	popge	{r4, pc}
    8854:	e0841304 	add	r1, r4, r4, lsl #6
    8858:	e0841081 	add	r1, r4, r1, lsl #1
    885c:	e0641181 	rsb	r1, r4, r1, lsl #3
    8860:	e59f001c 	ldr	r0, [pc, #28]	; 8884 <sync_write+0x48>
    8864:	eb000107 	bl	8c88 <printk>
    8868:	e1a01004 	mov	r1, r4
    886c:	e3a00005 	mov	r0, #5, 0
    8870:	ebfffe5c 	bl	81e8 <transmit_value>
    8874:	e3a000c8 	mov	r0, #200, 0	; 0xc8
    8878:	eb0003b0 	bl	9740 <delay_ms>
    887c:	e2844001 	add	r4, r4, #1, 0
    8880:	eafffff1 	b	884c <sync_write+0x10>
    8884:	00009d40 	andeq	r9, r0, r0, asr #26

00008888 <notmain>:
    8888:	e92d4010 	push	{r4, lr}
    888c:	ebffffb5 	bl	8768 <interrupt_read>

00008890 <enable_gpio_interrupts>:
    8890:	e92d4010 	push	{r4, lr}
    8894:	eb00036e 	bl	9654 <dev_barrier>
    8898:	e3a01802 	mov	r1, #131072	; 0x20000
    889c:	e59f0004 	ldr	r0, [pc, #4]	; 88a8 <enable_gpio_interrupts+0x18>
    88a0:	ebfffddf 	bl	8024 <PUT32>
    88a4:	e8bd8010 	pop	{r4, pc}
    88a8:	2000b214 	andcs	fp, r0, r4, lsl r2

000088ac <is_gpio_int>:
    88ac:	e92d4010 	push	{r4, lr}
    88b0:	e24dd008 	sub	sp, sp, #8, 0
    88b4:	e1a04000 	mov	r4, r0
    88b8:	eb000365 	bl	9654 <dev_barrier>
    88bc:	e2443031 	sub	r3, r4, #49, 0	; 0x31
    88c0:	e3530003 	cmp	r3, #3, 0
    88c4:	8a000008 	bhi	88ec <is_gpio_int+0x40>
    88c8:	e59f003c 	ldr	r0, [pc, #60]	; 890c <is_gpio_int+0x60>
    88cc:	ebfffdd6 	bl	802c <GET32>
    88d0:	e204401f 	and	r4, r4, #31, 0
    88d4:	e3a03001 	mov	r3, #1, 0
    88d8:	e0103413 	ands	r3, r0, r3, lsl r4
    88dc:	13a00001 	movne	r0, #1, 0
    88e0:	03a00000 	moveq	r0, #0, 0
    88e4:	e28dd008 	add	sp, sp, #8, 0
    88e8:	e8bd8010 	pop	{r4, pc}
    88ec:	e59f301c 	ldr	r3, [pc, #28]	; 8910 <is_gpio_int+0x64>
    88f0:	e58d3000 	str	r3, [sp]
    88f4:	e3a0301c 	mov	r3, #28, 0
    88f8:	e59f2014 	ldr	r2, [pc, #20]	; 8914 <is_gpio_int+0x68>
    88fc:	e59f1014 	ldr	r1, [pc, #20]	; 8918 <is_gpio_int+0x6c>
    8900:	e59f0014 	ldr	r0, [pc, #20]	; 891c <is_gpio_int+0x70>
    8904:	eb0000df 	bl	8c88 <printk>
    8908:	eb0002d1 	bl	9454 <clean_reboot>
    890c:	2000b208 	andcs	fp, r0, r8, lsl #4
    8910:	00009d88 	andeq	r9, r0, r8, lsl #27
    8914:	00009db8 			; <UNDEFINED> instruction: 0x00009db8
    8918:	00009d74 	andeq	r9, r0, r4, ror sp
    891c:	00009ba0 	andeq	r9, r0, r0, lsr #23

00008920 <gpio_int_rising_edge>:
    8920:	e92d4070 	push	{r4, r5, r6, lr}
    8924:	e1a04000 	mov	r4, r0
    8928:	eb000349 	bl	9654 <dev_barrier>
    892c:	e354001f 	cmp	r4, #31, 0
    8930:	8a00000a 	bhi	8960 <gpio_int_rising_edge+0x40>
    8934:	e59f502c 	ldr	r5, [pc, #44]	; 8968 <gpio_int_rising_edge+0x48>
    8938:	e1a00005 	mov	r0, r5
    893c:	ebfffdba 	bl	802c <GET32>
    8940:	e204401f 	and	r4, r4, #31, 0
    8944:	e3a01001 	mov	r1, #1, 0
    8948:	e1801411 	orr	r1, r0, r1, lsl r4
    894c:	e1a00005 	mov	r0, r5
    8950:	ebfffdb3 	bl	8024 <PUT32>
    8954:	ebffffcd 	bl	8890 <enable_gpio_interrupts>
    8958:	eb00033d 	bl	9654 <dev_barrier>
    895c:	e8bd8070 	pop	{r4, r5, r6, pc}
    8960:	e59f5004 	ldr	r5, [pc, #4]	; 896c <gpio_int_rising_edge+0x4c>
    8964:	eafffff3 	b	8938 <gpio_int_rising_edge+0x18>
    8968:	2020004c 	eorcs	r0, r0, ip, asr #32
    896c:	20200050 	eorcs	r0, r0, r0, asr r0

00008970 <gpio_int_falling_edge>:
    8970:	e92d4070 	push	{r4, r5, r6, lr}
    8974:	e1a04000 	mov	r4, r0
    8978:	eb000335 	bl	9654 <dev_barrier>
    897c:	e354001f 	cmp	r4, #31, 0
    8980:	8a00000a 	bhi	89b0 <gpio_int_falling_edge+0x40>
    8984:	e59f502c 	ldr	r5, [pc, #44]	; 89b8 <gpio_int_falling_edge+0x48>
    8988:	e1a00005 	mov	r0, r5
    898c:	ebfffda6 	bl	802c <GET32>
    8990:	e204401f 	and	r4, r4, #31, 0
    8994:	e3a01001 	mov	r1, #1, 0
    8998:	e1801411 	orr	r1, r0, r1, lsl r4
    899c:	e1a00005 	mov	r0, r5
    89a0:	ebfffd9f 	bl	8024 <PUT32>
    89a4:	ebffffb9 	bl	8890 <enable_gpio_interrupts>
    89a8:	eb000329 	bl	9654 <dev_barrier>
    89ac:	e8bd8070 	pop	{r4, r5, r6, pc}
    89b0:	e59f5004 	ldr	r5, [pc, #4]	; 89bc <gpio_int_falling_edge+0x4c>
    89b4:	eafffff3 	b	8988 <gpio_int_falling_edge+0x18>
    89b8:	20200058 	eorcs	r0, r0, r8, asr r0
    89bc:	2020005c 	eorcs	r0, r0, ip, asr r0

000089c0 <gpio_event_detected>:
    89c0:	e92d4010 	push	{r4, lr}
    89c4:	e1a04000 	mov	r4, r0
    89c8:	eb000321 	bl	9654 <dev_barrier>
    89cc:	e354001f 	cmp	r4, #31, 0
    89d0:	8a000009 	bhi	89fc <gpio_event_detected+0x3c>
    89d4:	e59f0028 	ldr	r0, [pc, #40]	; 8a04 <gpio_event_detected+0x44>
    89d8:	ebfffd93 	bl	802c <GET32>
    89dc:	e204401f 	and	r4, r4, #31, 0
    89e0:	e3a03001 	mov	r3, #1, 0
    89e4:	e0103413 	ands	r3, r0, r3, lsl r4
    89e8:	13a04001 	movne	r4, #1, 0
    89ec:	03a04000 	moveq	r4, #0, 0
    89f0:	eb000317 	bl	9654 <dev_barrier>
    89f4:	e1a00004 	mov	r0, r4
    89f8:	e8bd8010 	pop	{r4, pc}
    89fc:	e59f0004 	ldr	r0, [pc, #4]	; 8a08 <gpio_event_detected+0x48>
    8a00:	eafffff4 	b	89d8 <gpio_event_detected+0x18>
    8a04:	20200040 	eorcs	r0, r0, r0, asr #32
    8a08:	20200044 	eorcs	r0, r0, r4, asr #32

00008a0c <gpio_event_clear>:
    8a0c:	e92d4010 	push	{r4, lr}
    8a10:	e1a04000 	mov	r4, r0
    8a14:	eb00030e 	bl	9654 <dev_barrier>
    8a18:	e354001f 	cmp	r4, #31, 0
    8a1c:	8a000006 	bhi	8a3c <gpio_event_clear+0x30>
    8a20:	e59f001c 	ldr	r0, [pc, #28]	; 8a44 <gpio_event_clear+0x38>
    8a24:	e204401f 	and	r4, r4, #31, 0
    8a28:	e3a01001 	mov	r1, #1, 0
    8a2c:	e1a01411 	lsl	r1, r1, r4
    8a30:	ebfffd7b 	bl	8024 <PUT32>
    8a34:	eb000306 	bl	9654 <dev_barrier>
    8a38:	e8bd8010 	pop	{r4, pc}
    8a3c:	e59f0004 	ldr	r0, [pc, #4]	; 8a48 <gpio_event_clear+0x3c>
    8a40:	eafffff7 	b	8a24 <gpio_event_clear+0x18>
    8a44:	20200040 	eorcs	r0, r0, r0, asr #32
    8a48:	20200044 	eorcs	r0, r0, r4, asr #32

00008a4c <gpio_set_function>:
    8a4c:	e350001f 	cmp	r0, #31, 0
    8a50:	812fff1e 	bxhi	lr
    8a54:	e92d4070 	push	{r4, r5, r6, lr}
    8a58:	e1a05001 	mov	r5, r1
    8a5c:	e3d13007 	bics	r3, r1, #7, 0
    8a60:	18bd8070 	popne	{r4, r5, r6, pc}
    8a64:	e59f3040 	ldr	r3, [pc, #64]	; 8aac <gpio_set_function+0x60>
    8a68:	e0832093 	umull	r2, r3, r3, r0
    8a6c:	e1a031a3 	lsr	r3, r3, #3
    8a70:	e1a02003 	mov	r2, r3
    8a74:	e0833103 	add	r3, r3, r3, lsl #2
    8a78:	e0403083 	sub	r3, r0, r3, lsl #1
    8a7c:	e0834083 	add	r4, r3, r3, lsl #1
    8a80:	e2820302 	add	r0, r2, #134217728	; 0x8000000
    8a84:	e2800702 	add	r0, r0, #524288	; 0x80000
    8a88:	e1a06100 	lsl	r6, r0, #2
    8a8c:	e1a00006 	mov	r0, r6
    8a90:	ebfffd65 	bl	802c <GET32>
    8a94:	e3a01007 	mov	r1, #7, 0
    8a98:	e1c01411 	bic	r1, r0, r1, lsl r4
    8a9c:	e1811415 	orr	r1, r1, r5, lsl r4
    8aa0:	e1a00006 	mov	r0, r6
    8aa4:	ebfffd5e 	bl	8024 <PUT32>
    8aa8:	e8bd8070 	pop	{r4, r5, r6, pc}
    8aac:	cccccccd 	stclgt	12, cr12, [ip], {205}	; 0xcd

00008ab0 <gpio_set_output>:
    8ab0:	e92d4010 	push	{r4, lr}
    8ab4:	e3a01001 	mov	r1, #1, 0
    8ab8:	ebffffe3 	bl	8a4c <gpio_set_function>
    8abc:	e8bd8010 	pop	{r4, pc}

00008ac0 <gpio_set_on>:
    8ac0:	e350001f 	cmp	r0, #31, 0
    8ac4:	812fff1e 	bxhi	lr
    8ac8:	e92d4010 	push	{r4, lr}
    8acc:	e3a01001 	mov	r1, #1, 0
    8ad0:	e1a01011 	lsl	r1, r1, r0
    8ad4:	e59f0004 	ldr	r0, [pc, #4]	; 8ae0 <gpio_set_on+0x20>
    8ad8:	ebfffd51 	bl	8024 <PUT32>
    8adc:	e8bd8010 	pop	{r4, pc}
    8ae0:	2020001c 	eorcs	r0, r0, ip, lsl r0

00008ae4 <gpio_set_off>:
    8ae4:	e350001f 	cmp	r0, #31, 0
    8ae8:	812fff1e 	bxhi	lr
    8aec:	e92d4010 	push	{r4, lr}
    8af0:	e3a01001 	mov	r1, #1, 0
    8af4:	e1a01011 	lsl	r1, r1, r0
    8af8:	e59f0004 	ldr	r0, [pc, #4]	; 8b04 <gpio_set_off+0x20>
    8afc:	ebfffd48 	bl	8024 <PUT32>
    8b00:	e8bd8010 	pop	{r4, pc}
    8b04:	20200028 	eorcs	r0, r0, r8, lsr #32

00008b08 <gpio_set_input>:
    8b08:	e92d4010 	push	{r4, lr}
    8b0c:	e3a01000 	mov	r1, #0, 0
    8b10:	ebffffcd 	bl	8a4c <gpio_set_function>
    8b14:	e8bd8010 	pop	{r4, pc}

00008b18 <gpio_write>:
    8b18:	e92d4010 	push	{r4, lr}
    8b1c:	e3510000 	cmp	r1, #0, 0
    8b20:	0a000001 	beq	8b2c <gpio_write+0x14>
    8b24:	ebffffe5 	bl	8ac0 <gpio_set_on>
    8b28:	e8bd8010 	pop	{r4, pc}
    8b2c:	ebffffec 	bl	8ae4 <gpio_set_off>
    8b30:	e8bd8010 	pop	{r4, pc}

00008b34 <gpio_read>:
    8b34:	e350001f 	cmp	r0, #31, 0
    8b38:	8a000007 	bhi	8b5c <gpio_read+0x28>
    8b3c:	e92d4010 	push	{r4, lr}
    8b40:	e200401f 	and	r4, r0, #31, 0
    8b44:	e59f3018 	ldr	r3, [pc, #24]	; 8b64 <gpio_read+0x30>
    8b48:	e08302a0 	add	r0, r3, r0, lsr #5
    8b4c:	ebfffd36 	bl	802c <GET32>
    8b50:	e1a00430 	lsr	r0, r0, r4
    8b54:	e2000001 	and	r0, r0, #1, 0
    8b58:	e8bd8010 	pop	{r4, pc}
    8b5c:	e3e00000 	mvn	r0, #0, 0
    8b60:	e12fff1e 	bx	lr
    8b64:	20200034 	eorcs	r0, r0, r4, lsr r0
	...

00008b80 <system_enable_interrupts>:
    8b80:	e10f0000 	mrs	r0, CPSR
    8b84:	e3c00080 	bic	r0, r0, #128, 0	; 0x80
    8b88:	e121f000 	msr	CPSR_c, r0
    8b8c:	e12fff1e 	bx	lr

00008b90 <system_disable_interrupts>:
    8b90:	e10f0000 	mrs	r0, CPSR
    8b94:	e3800080 	orr	r0, r0, #128, 0	; 0x80
    8b98:	e121f000 	msr	CPSR_c, r0
    8b9c:	e12fff1e 	bx	lr

00008ba0 <_interrupt_table>:
    8ba0:	e59ff030 	ldr	pc, [pc, #48]	; 8bd8 <_reset_asm>
    8ba4:	e59ff030 	ldr	pc, [pc, #48]	; 8bdc <_undefined_instruction_asm>
    8ba8:	e59ff030 	ldr	pc, [pc, #48]	; 8be0 <_software_interrupt_asm>
    8bac:	e59ff030 	ldr	pc, [pc, #48]	; 8be4 <_prefetch_abort_asm>
    8bb0:	e59ff030 	ldr	pc, [pc, #48]	; 8be8 <_data_abort_asm>
    8bb4:	e59ff01c 	ldr	pc, [pc, #28]	; 8bd8 <_reset_asm>
    8bb8:	e59ff02c 	ldr	pc, [pc, #44]	; 8bec <_interrupt_asm>

00008bbc <fast_interrupt_asm>:
    8bbc:	e24ee004 	sub	lr, lr, #4, 0
    8bc0:	e52de004 	push	{lr}		; (str lr, [sp, #-4]!)
    8bc4:	e92d1fff 	push	{r0, r1, r2, r3, r4, r5, r6, r7, r8, r9, sl, fp, ip}
    8bc8:	e1a0000e 	mov	r0, lr
    8bcc:	eb00024a 	bl	94fc <fast_interrupt_vector>
    8bd0:	e8bd1fff 	pop	{r0, r1, r2, r3, r4, r5, r6, r7, r8, r9, sl, fp, ip}
    8bd4:	e8fd8000 	ldm	sp!, {pc}^

00008bd8 <_reset_asm>:
    8bd8:	00008c24 	andeq	r8, r0, r4, lsr #24

00008bdc <_undefined_instruction_asm>:
    8bdc:	00008c2c 	andeq	r8, r0, ip, lsr #24

00008be0 <_software_interrupt_asm>:
    8be0:	00008c0c 	andeq	r8, r0, ip, lsl #24

00008be4 <_prefetch_abort_asm>:
    8be4:	00008c34 	andeq	r8, r0, r4, lsr ip

00008be8 <_data_abort_asm>:
    8be8:	00008c50 	andeq	r8, r0, r0, asr ip

00008bec <_interrupt_asm>:
    8bec:	00008bf0 	strdeq	r8, [r0], -r0

00008bf0 <_interrupt_table_end>:
    8bf0:	e3a0d409 	mov	sp, #150994944	; 0x9000000
    8bf4:	e24ee004 	sub	lr, lr, #4, 0
    8bf8:	e92d5fff 	push	{r0, r1, r2, r3, r4, r5, r6, r7, r8, r9, sl, fp, ip, lr}
    8bfc:	e1a0000e 	mov	r0, lr
    8c00:	ebfffe93 	bl	8654 <interrupt_vector>
    8c04:	e8bd5fff 	pop	{r0, r1, r2, r3, r4, r5, r6, r7, r8, r9, sl, fp, ip, lr}
    8c08:	e1b0f00e 	movs	pc, lr

00008c0c <software_interrupt_asm>:
    8c0c:	e3a0d409 	mov	sp, #150994944	; 0x9000000
    8c10:	e3a0d605 	mov	sp, #5242880	; 0x500000
    8c14:	e3a01501 	mov	r1, #4194304	; 0x400000
    8c18:	e8912000 	ldm	r1, {sp}
    8c1c:	e8bd5fff 	pop	{r0, r1, r2, r3, r4, r5, r6, r7, r8, r9, sl, fp, ip, lr}
    8c20:	e12fff1e 	bx	lr

00008c24 <reset_asm>:
    8c24:	e24ee004 	sub	lr, lr, #4, 0
    8c28:	eb000251 	bl	9574 <reset_vector>

00008c2c <undefined_instruction_asm>:
    8c2c:	e24ee004 	sub	lr, lr, #4, 0
    8c30:	eb00025e 	bl	95b0 <undefined_instruction_vector>

00008c34 <prefetch_abort_asm>:
    8c34:	e3a0d409 	mov	sp, #150994944	; 0x9000000
    8c38:	e24ee004 	sub	lr, lr, #4, 0
    8c3c:	e92d5fff 	push	{r0, r1, r2, r3, r4, r5, r6, r7, r8, r9, sl, fp, ip, lr}
    8c40:	e1a0000e 	mov	r0, lr
    8c44:	eb00023b 	bl	9538 <prefetch_abort_vector>
    8c48:	e8bd5fff 	pop	{r0, r1, r2, r3, r4, r5, r6, r7, r8, r9, sl, fp, ip, lr}
    8c4c:	e1b0f00e 	movs	pc, lr

00008c50 <data_abort_asm>:
    8c50:	e3a0d409 	mov	sp, #150994944	; 0x9000000
    8c54:	e24ee008 	sub	lr, lr, #8, 0
    8c58:	e92d5fff 	push	{r0, r1, r2, r3, r4, r5, r6, r7, r8, r9, sl, fp, ip, lr}
    8c5c:	e1a0000e 	mov	r0, lr
    8c60:	eb000216 	bl	94c0 <data_abort_vector>
    8c64:	e8bd5fff 	pop	{r0, r1, r2, r3, r4, r5, r6, r7, r8, r9, sl, fp, ip, lr}
    8c68:	e1b0f00e 	movs	pc, lr

00008c6c <start_function>:
    8c6c:	e92d5fff 	push	{r0, r1, r2, r3, r4, r5, r6, r7, r8, r9, sl, fp, ip, lr}
    8c70:	e3a01501 	mov	r1, #4194304	; 0x400000
    8c74:	e581d000 	str	sp, [r1]
    8c78:	e321f010 	msr	CPSR_c, #16, 0
    8c7c:	e3a0d207 	mov	sp, #1879048192	; 0x70000000
    8c80:	e12fff30 	blx	r0
    8c84:	ef000000 	svc	0x00000000

00008c88 <printk>:
    8c88:	e92d000f 	push	{r0, r1, r2, r3}
    8c8c:	e92d4030 	push	{r4, r5, lr}
    8c90:	e24dd00c 	sub	sp, sp, #12, 0
    8c94:	e28d301c 	add	r3, sp, #28, 0
    8c98:	e58d3004 	str	r3, [sp, #4]
    8c9c:	e59f5034 	ldr	r5, [pc, #52]	; 8cd8 <printk+0x50>
    8ca0:	e59d2018 	ldr	r2, [sp, #24]
    8ca4:	e3a01b01 	mov	r1, #1024	; 0x400
    8ca8:	e1a00005 	mov	r0, r5
    8cac:	eb0000ba 	bl	8f9c <va_printk>
    8cb0:	e1a04000 	mov	r4, r0
    8cb4:	e59f3020 	ldr	r3, [pc, #32]	; 8cdc <printk+0x54>
    8cb8:	e5933000 	ldr	r3, [r3]
    8cbc:	e1a00005 	mov	r0, r5
    8cc0:	e12fff33 	blx	r3
    8cc4:	e1a00004 	mov	r0, r4
    8cc8:	e28dd00c 	add	sp, sp, #12, 0
    8ccc:	e8bd4030 	pop	{r4, r5, lr}
    8cd0:	e28dd010 	add	sp, sp, #16, 0
    8cd4:	e12fff1e 	bx	lr
    8cd8:	0000b188 	andeq	fp, r0, r8, lsl #3
    8cdc:	0000a174 	andeq	sl, r0, r4, ror r1

00008ce0 <internal_putk>:
    8ce0:	e92d4010 	push	{r4, lr}
    8ce4:	e1a04000 	mov	r4, r0
    8ce8:	e5d40000 	ldrb	r0, [r4]
    8cec:	e3500000 	cmp	r0, #0, 0
    8cf0:	0a000004 	beq	8d08 <internal_putk+0x28>
    8cf4:	e59f3014 	ldr	r3, [pc, #20]	; 8d10 <internal_putk+0x30>
    8cf8:	e5933000 	ldr	r3, [r3]
    8cfc:	e12fff33 	blx	r3
    8d00:	e2844001 	add	r4, r4, #1, 0
    8d04:	eafffff7 	b	8ce8 <internal_putk+0x8>
    8d08:	e3a00001 	mov	r0, #1, 0
    8d0c:	e8bd8010 	pop	{r4, pc}
    8d10:	0000a178 	andeq	sl, r0, r8, ror r1

00008d14 <isdigit>:
    8d14:	e2400030 	sub	r0, r0, #48, 0	; 0x30
    8d18:	e3500009 	cmp	r0, #9, 0
    8d1c:	83a00000 	movhi	r0, #0, 0
    8d20:	93a00001 	movls	r0, #1, 0
    8d24:	e12fff1e 	bx	lr

00008d28 <pad>:
    8d28:	e0401001 	sub	r1, r0, r1
    8d2c:	e1510002 	cmp	r1, r2
    8d30:	b3a03020 	movlt	r3, #32, 0
    8d34:	b4c03001 	strblt	r3, [r0], #1
    8d38:	b2811001 	addlt	r1, r1, #1, 0
    8d3c:	bafffffa 	blt	8d2c <pad+0x4>
    8d40:	e3a03000 	mov	r3, #0, 0
    8d44:	e5c03000 	strb	r3, [r0]
    8d48:	e12fff1e 	bx	lr

00008d4c <reverse>:
    8d4c:	e042c003 	sub	ip, r2, r3
    8d50:	e28cc001 	add	ip, ip, #1, 0
    8d54:	e15c0001 	cmp	ip, r1
    8d58:	c04cc001 	subgt	ip, ip, r1
    8d5c:	c083300c 	addgt	r3, r3, ip
    8d60:	e2421001 	sub	r1, r2, #1, 0
    8d64:	e1a02000 	mov	r2, r0
    8d68:	e1510003 	cmp	r1, r3
    8d6c:	2451c001 	ldrbcs	ip, [r1], #-1
    8d70:	24c2c001 	strbcs	ip, [r2], #1
    8d74:	2afffffb 	bcs	8d68 <reverse+0x1c>
    8d78:	e3a03000 	mov	r3, #0, 0
    8d7c:	e5c23000 	strb	r3, [r2]
    8d80:	e12fff1e 	bx	lr

00008d84 <emit>:
    8d84:	e92d40f0 	push	{r4, r5, r6, r7, lr}
    8d88:	e24dd04c 	sub	sp, sp, #76, 0	; 0x4c
    8d8c:	e1a05001 	mov	r5, r1
    8d90:	e1a04002 	mov	r4, r2
    8d94:	e59d2060 	ldr	r2, [sp, #96]	; 0x60
    8d98:	e1520004 	cmp	r2, r4
    8d9c:	c2442001 	subgt	r2, r4, #1, 0
    8da0:	e1a0c003 	mov	ip, r3
    8da4:	e2400002 	sub	r0, r0, #2, 0
    8da8:	e350000e 	cmp	r0, #14, 0
    8dac:	979ff100 	ldrls	pc, [pc, r0, lsl #2]
    8db0:	ea000050 	b	8ef8 <emit+0x174>
    8db4:	00008ed0 	ldrdeq	r8, [r0], -r0
    8db8:	00008ef8 	strdeq	r8, [r0], -r8	; <UNPREDICTABLE>
    8dbc:	00008ef8 	strdeq	r8, [r0], -r8	; <UNPREDICTABLE>
    8dc0:	00008ef8 	strdeq	r8, [r0], -r8	; <UNPREDICTABLE>
    8dc4:	00008ef8 	strdeq	r8, [r0], -r8	; <UNPREDICTABLE>
    8dc8:	00008ef8 	strdeq	r8, [r0], -r8	; <UNPREDICTABLE>
    8dcc:	00008ec4 	andeq	r8, r0, r4, asr #29
    8dd0:	00008ef8 	strdeq	r8, [r0], -r8	; <UNPREDICTABLE>
    8dd4:	00008df0 	strdeq	r8, [r0], -r0
    8dd8:	00008ef8 	strdeq	r8, [r0], -r8	; <UNPREDICTABLE>
    8ddc:	00008ef8 	strdeq	r8, [r0], -r8	; <UNPREDICTABLE>
    8de0:	00008ef8 	strdeq	r8, [r0], -r8	; <UNPREDICTABLE>
    8de4:	00008ef8 	strdeq	r8, [r0], -r8	; <UNPREDICTABLE>
    8de8:	00008ef8 	strdeq	r8, [r0], -r8	; <UNPREDICTABLE>
    8dec:	00008e68 	andeq	r8, r0, r8, ror #28
    8df0:	e59d1064 	ldr	r1, [sp, #100]	; 0x64
    8df4:	e2511000 	subs	r1, r1, #0, 0
    8df8:	13a01001 	movne	r1, #1, 0
    8dfc:	e0111fa3 	ands	r1, r1, r3, lsr #31
    8e00:	0a000016 	beq	8e60 <emit+0xdc>
    8e04:	e263c000 	rsb	ip, r3, #0, 0
    8e08:	e3a06001 	mov	r6, #1, 0
    8e0c:	e28d0008 	add	r0, sp, #8, 0
    8e10:	e59f3100 	ldr	r3, [pc, #256]	; 8f18 <emit+0x194>
    8e14:	e0831c93 	umull	r1, r3, r3, ip
    8e18:	e1a031a3 	lsr	r3, r3, #3
    8e1c:	e1a0e003 	mov	lr, r3
    8e20:	e0833103 	add	r3, r3, r3, lsl #2
    8e24:	e04c3083 	sub	r3, ip, r3, lsl #1
    8e28:	e1a01000 	mov	r1, r0
    8e2c:	e2800001 	add	r0, r0, #1, 0
    8e30:	e59f70e4 	ldr	r7, [pc, #228]	; 8f1c <emit+0x198>
    8e34:	e7d73003 	ldrb	r3, [r7, r3]
    8e38:	e5c13000 	strb	r3, [r1]
    8e3c:	e1a0300c 	mov	r3, ip
    8e40:	e1a0c00e 	mov	ip, lr
    8e44:	e3530009 	cmp	r3, #9, 0
    8e48:	8afffff0 	bhi	8e10 <emit+0x8c>
    8e4c:	e3560000 	cmp	r6, #0, 0
    8e50:	13a0302d 	movne	r3, #45, 0	; 0x2d
    8e54:	15c03000 	strbne	r3, [r0]
    8e58:	12810002 	addne	r0, r1, #2, 0
    8e5c:	ea00000f 	b	8ea0 <emit+0x11c>
    8e60:	e3a06000 	mov	r6, #0, 0
    8e64:	eaffffe8 	b	8e0c <emit+0x88>
    8e68:	e28d1008 	add	r1, sp, #8, 0
    8e6c:	e20c000f 	and	r0, ip, #15, 0
    8e70:	e59fe0a8 	ldr	lr, [pc, #168]	; 8f20 <emit+0x19c>
    8e74:	e7de0000 	ldrb	r0, [lr, r0]
    8e78:	e5c10000 	strb	r0, [r1]
    8e7c:	e2811001 	add	r1, r1, #1, 0
    8e80:	e35c000f 	cmp	ip, #15, 0
    8e84:	e1a0c22c 	lsr	ip, ip, #4
    8e88:	8afffff7 	bhi	8e6c <emit+0xe8>
    8e8c:	e1a00001 	mov	r0, r1
    8e90:	e3a03078 	mov	r3, #120, 0	; 0x78
    8e94:	e4c03002 	strb	r3, [r0], #2
    8e98:	e3a03030 	mov	r3, #48, 0	; 0x30
    8e9c:	e5c13001 	strb	r3, [r1, #1]
    8ea0:	e28d1008 	add	r1, sp, #8, 0
    8ea4:	ebffff9f 	bl	8d28 <pad>
    8ea8:	e1a02000 	mov	r2, r0
    8eac:	e28d3008 	add	r3, sp, #8, 0
    8eb0:	e1a01004 	mov	r1, r4
    8eb4:	e1a00005 	mov	r0, r5
    8eb8:	ebffffa3 	bl	8d4c <reverse>
    8ebc:	e28dd04c 	add	sp, sp, #76, 0	; 0x4c
    8ec0:	e8bd80f0 	pop	{r4, r5, r6, r7, pc}
    8ec4:	e5cd3008 	strb	r3, [sp, #8]
    8ec8:	e28d0009 	add	r0, sp, #9, 0
    8ecc:	eafffff3 	b	8ea0 <emit+0x11c>
    8ed0:	e28d0008 	add	r0, sp, #8, 0
    8ed4:	e20c1001 	and	r1, ip, #1, 0
    8ed8:	e59fe044 	ldr	lr, [pc, #68]	; 8f24 <emit+0x1a0>
    8edc:	e7de1001 	ldrb	r1, [lr, r1]
    8ee0:	e5c01000 	strb	r1, [r0]
    8ee4:	e2800001 	add	r0, r0, #1, 0
    8ee8:	e35c0001 	cmp	ip, #1, 0
    8eec:	e1a0c0ac 	lsr	ip, ip, #1
    8ef0:	8afffff7 	bhi	8ed4 <emit+0x150>
    8ef4:	eaffffe9 	b	8ea0 <emit+0x11c>
    8ef8:	e59f3028 	ldr	r3, [pc, #40]	; 8f28 <emit+0x1a4>
    8efc:	e58d3000 	str	r3, [sp]
    8f00:	e3a03079 	mov	r3, #121, 0	; 0x79
    8f04:	e59f2020 	ldr	r2, [pc, #32]	; 8f2c <emit+0x1a8>
    8f08:	e59f1020 	ldr	r1, [pc, #32]	; 8f30 <emit+0x1ac>
    8f0c:	e59f0020 	ldr	r0, [pc, #32]	; 8f34 <emit+0x1b0>
    8f10:	ebffff5c 	bl	8c88 <printk>
    8f14:	eb00014e 	bl	9454 <clean_reboot>
    8f18:	cccccccd 	stclgt	12, cr12, [ip], {205}	; 0xcd
    8f1c:	00009dd8 	ldrdeq	r9, [r0], -r8
    8f20:	00009de4 	andeq	r9, r0, r4, ror #27
    8f24:	00009df8 	strdeq	r9, [r0], -r8
    8f28:	00009ca4 	andeq	r9, r0, r4, lsr #25
    8f2c:	00009f04 	andeq	r9, r0, r4, lsl #30
    8f30:	00009dc4 	andeq	r9, r0, r4, asr #27
    8f34:	00009ba0 	andeq	r9, r0, r0, lsr #23

00008f38 <rpi_set_output>:
    8f38:	e3500000 	cmp	r0, #0, 0
    8f3c:	0a000006 	beq	8f5c <rpi_set_output+0x24>
    8f40:	e59f303c 	ldr	r3, [pc, #60]	; 8f84 <rpi_set_output+0x4c>
    8f44:	e5830000 	str	r0, [r3]
    8f48:	e3510000 	cmp	r1, #0, 0
    8f4c:	012fff1e 	bxeq	lr
    8f50:	e59f3030 	ldr	r3, [pc, #48]	; 8f88 <rpi_set_output+0x50>
    8f54:	e5831000 	str	r1, [r3]
    8f58:	e12fff1e 	bx	lr
    8f5c:	e52de004 	push	{lr}		; (str lr, [sp, #-4]!)
    8f60:	e24dd00c 	sub	sp, sp, #12, 0
    8f64:	e59f3020 	ldr	r3, [pc, #32]	; 8f8c <rpi_set_output+0x54>
    8f68:	e58d3000 	str	r3, [sp]
    8f6c:	e3a03020 	mov	r3, #32, 0
    8f70:	e59f2018 	ldr	r2, [pc, #24]	; 8f90 <rpi_set_output+0x58>
    8f74:	e59f1018 	ldr	r1, [pc, #24]	; 8f94 <rpi_set_output+0x5c>
    8f78:	e59f0018 	ldr	r0, [pc, #24]	; 8f98 <rpi_set_output+0x60>
    8f7c:	ebffff41 	bl	8c88 <printk>
    8f80:	eb000133 	bl	9454 <clean_reboot>
    8f84:	0000a178 	andeq	sl, r0, r8, ror r1
    8f88:	0000a174 	andeq	sl, r0, r4, ror r1
    8f8c:	00009dfc 	strdeq	r9, [r0], -ip
    8f90:	00009f0c 	andeq	r9, r0, ip, lsl #30
    8f94:	00009dc4 	andeq	r9, r0, r4, asr #27
    8f98:	00009ba0 	andeq	r9, r0, r0, lsr #23

00008f9c <va_printk>:
    8f9c:	e92d4ff0 	push	{r4, r5, r6, r7, r8, r9, sl, fp, lr}
    8fa0:	e24ddf45 	sub	sp, sp, #276	; 0x114
    8fa4:	e1a09000 	mov	r9, r0
    8fa8:	e58d2008 	str	r2, [sp, #8]
    8fac:	e58d300c 	str	r3, [sp, #12]
    8fb0:	e2411001 	sub	r1, r1, #1, 0
    8fb4:	e0808001 	add	r8, r0, r1
    8fb8:	e3a03000 	mov	r3, #0, 0
    8fbc:	e5c03000 	strb	r3, [r0]
    8fc0:	e1a04000 	mov	r4, r0
    8fc4:	e1a06002 	mov	r6, r2
    8fc8:	ea000001 	b	8fd4 <va_printk+0x38>
    8fcc:	e2866001 	add	r6, r6, #1, 0
    8fd0:	e4c43001 	strb	r3, [r4], #1
    8fd4:	e5d63000 	ldrb	r3, [r6]
    8fd8:	e3530000 	cmp	r3, #0, 0
    8fdc:	0a000108 	beq	9404 <va_printk+0x468>
    8fe0:	e1540008 	cmp	r4, r8
    8fe4:	2a000106 	bcs	9404 <va_printk+0x468>
    8fe8:	e3530025 	cmp	r3, #37, 0	; 0x25
    8fec:	1afffff6 	bne	8fcc <va_printk+0x30>
    8ff0:	e5d62001 	ldrb	r2, [r6, #1]
    8ff4:	e3520025 	cmp	r2, #37, 0	; 0x25
    8ff8:	04c43001 	strbeq	r3, [r4], #1
    8ffc:	02866002 	addeq	r6, r6, #2, 0
    9000:	0afffff3 	beq	8fd4 <va_printk+0x38>
    9004:	e2866001 	add	r6, r6, #1, 0
    9008:	e3a05000 	mov	r5, #0, 0
    900c:	e5d67000 	ldrb	r7, [r6]
    9010:	e1a0a007 	mov	sl, r7
    9014:	e1a00007 	mov	r0, r7
    9018:	ebffff3d 	bl	8d14 <isdigit>
    901c:	e3500000 	cmp	r0, #0, 0
    9020:	0a000004 	beq	9038 <va_printk+0x9c>
    9024:	e0855105 	add	r5, r5, r5, lsl #2
    9028:	e0875085 	add	r5, r7, r5, lsl #1
    902c:	e2455030 	sub	r5, r5, #48, 0	; 0x30
    9030:	e2866001 	add	r6, r6, #1, 0
    9034:	eafffff4 	b	900c <va_printk+0x70>
    9038:	e355001f 	cmp	r5, #31, 0
    903c:	8a00001a 	bhi	90ac <va_printk+0x110>
    9040:	e2477062 	sub	r7, r7, #98, 0	; 0x62
    9044:	e3570016 	cmp	r7, #22, 0
    9048:	979ff107 	ldrls	pc, [pc, r7, lsl #2]
    904c:	ea0000d4 	b	93a4 <va_printk+0x408>
    9050:	00009328 	andeq	r9, r0, r8, lsr #6
    9054:	00009370 	andeq	r9, r0, r0, ror r3
    9058:	00009288 	andeq	r9, r0, r8, lsl #5
    905c:	000093a4 	andeq	r9, r0, r4, lsr #7
    9060:	00009270 	andeq	r9, r0, r0, ror r2
    9064:	000093a4 	andeq	r9, r0, r4, lsr #7
    9068:	000093a4 	andeq	r9, r0, r4, lsr #7
    906c:	000093a4 	andeq	r9, r0, r4, lsr #7
    9070:	000093a4 	andeq	r9, r0, r4, lsr #7
    9074:	000093a4 	andeq	r9, r0, r4, lsr #7
    9078:	000090cc 	andeq	r9, r0, ip, asr #1
    907c:	000093a4 	andeq	r9, r0, r4, lsr #7
    9080:	000093a4 	andeq	r9, r0, r4, lsr #7
    9084:	000093a4 	andeq	r9, r0, r4, lsr #7
    9088:	000092f4 	strdeq	r9, [r0], -r4
    908c:	000093a4 	andeq	r9, r0, r4, lsr #7
    9090:	000093a4 	andeq	r9, r0, r4, lsr #7
    9094:	0000935c 	andeq	r9, r0, ip, asr r3
    9098:	000093a4 	andeq	r9, r0, r4, lsr #7
    909c:	000092c0 	andeq	r9, r0, r0, asr #5
    90a0:	000093a4 	andeq	r9, r0, r4, lsr #7
    90a4:	000093a4 	andeq	r9, r0, r4, lsr #7
    90a8:	000092f4 	strdeq	r9, [r0], -r4
    90ac:	e59f3364 	ldr	r3, [pc, #868]	; 9418 <va_printk+0x47c>
    90b0:	e58d3000 	str	r3, [sp]
    90b4:	e3a03098 	mov	r3, #152, 0	; 0x98
    90b8:	e59f235c 	ldr	r2, [pc, #860]	; 941c <va_printk+0x480>
    90bc:	e59f135c 	ldr	r1, [pc, #860]	; 9420 <va_printk+0x484>
    90c0:	e59f035c 	ldr	r0, [pc, #860]	; 9424 <va_printk+0x488>
    90c4:	ebfffeef 	bl	8c88 <printk>
    90c8:	eb0000e1 	bl	9454 <clean_reboot>
    90cc:	e3a02003 	mov	r2, #3, 0
    90d0:	e59f1350 	ldr	r1, [pc, #848]	; 9428 <va_printk+0x48c>
    90d4:	e1a00006 	mov	r0, r6
    90d8:	eb0002a1 	bl	9b64 <strncmp>
    90dc:	e3500000 	cmp	r0, #0, 0
    90e0:	0a000005 	beq	90fc <va_printk+0x160>
    90e4:	e3a02003 	mov	r2, #3, 0
    90e8:	e59f133c 	ldr	r1, [pc, #828]	; 942c <va_printk+0x490>
    90ec:	e1a00006 	mov	r0, r6
    90f0:	eb00029b 	bl	9b64 <strncmp>
    90f4:	e3500000 	cmp	r0, #0, 0
    90f8:	1a000033 	bne	91cc <va_printk+0x230>
    90fc:	e286b002 	add	fp, r6, #2, 0
    9100:	e59d300c 	ldr	r3, [sp, #12]
    9104:	e2833007 	add	r3, r3, #7, 0
    9108:	e3c33007 	bic	r3, r3, #7, 0
    910c:	e2832008 	add	r2, r3, #8, 0
    9110:	e58d200c 	str	r2, [sp, #12]
    9114:	e593a000 	ldr	sl, [r3]
    9118:	e5937004 	ldr	r7, [r3, #4]
    911c:	e1a01007 	mov	r1, r7
    9120:	e59f0308 	ldr	r0, [pc, #776]	; 9430 <va_printk+0x494>
    9124:	ebfffed7 	bl	8c88 <printk>
    9128:	e1a0100a 	mov	r1, sl
    912c:	e59f0300 	ldr	r0, [pc, #768]	; 9434 <va_printk+0x498>
    9130:	ebfffed4 	bl	8c88 <printk>
    9134:	e3a02003 	mov	r2, #3, 0
    9138:	e59f12e8 	ldr	r1, [pc, #744]	; 9428 <va_printk+0x48c>
    913c:	e1a00006 	mov	r0, r6
    9140:	eb000287 	bl	9b64 <strncmp>
    9144:	e3500000 	cmp	r0, #0, 0
    9148:	0a000027 	beq	91ec <va_printk+0x250>
    914c:	e3a02003 	mov	r2, #3, 0
    9150:	e59f12d4 	ldr	r1, [pc, #724]	; 942c <va_printk+0x490>
    9154:	e1a00006 	mov	r0, r6
    9158:	eb000281 	bl	9b64 <strncmp>
    915c:	e3500000 	cmp	r0, #0, 0
    9160:	1a00003b 	bne	9254 <va_printk+0x2b8>
    9164:	e3a06000 	mov	r6, #0, 0
    9168:	e58d6004 	str	r6, [sp, #4]
    916c:	e58d5000 	str	r5, [sp]
    9170:	e1a03007 	mov	r3, r7
    9174:	e3a02080 	mov	r2, #128, 0	; 0x80
    9178:	e28d1010 	add	r1, sp, #16, 0
    917c:	e3a0000a 	mov	r0, #10, 0
    9180:	ebfffeff 	bl	8d84 <emit>
    9184:	e1a07000 	mov	r7, r0
    9188:	e58d6004 	str	r6, [sp, #4]
    918c:	e58d5000 	str	r5, [sp]
    9190:	e1a0300a 	mov	r3, sl
    9194:	e3a02080 	mov	r2, #128, 0	; 0x80
    9198:	e28d1090 	add	r1, sp, #144, 0	; 0x90
    919c:	e3a0000a 	mov	r0, #10, 0
    91a0:	ebfffef7 	bl	8d84 <emit>
    91a4:	e59f128c 	ldr	r1, [pc, #652]	; 9438 <va_printk+0x49c>
    91a8:	e28d0010 	add	r0, sp, #16, 0
    91ac:	eb000259 	bl	9b18 <strcmp>
    91b0:	e1500006 	cmp	r0, r6
    91b4:	1a000021 	bne	9240 <va_printk+0x2a4>
    91b8:	e28d1090 	add	r1, sp, #144, 0	; 0x90
    91bc:	e28d0010 	add	r0, sp, #16, 0
    91c0:	eb00025f 	bl	9b44 <strcpy>
    91c4:	e1a0600b 	mov	r6, fp
    91c8:	ea00003a 	b	92b8 <va_printk+0x31c>
    91cc:	e59f3268 	ldr	r3, [pc, #616]	; 943c <va_printk+0x4a0>
    91d0:	e58d3000 	str	r3, [sp]
    91d4:	e3a0309f 	mov	r3, #159, 0	; 0x9f
    91d8:	e59f223c 	ldr	r2, [pc, #572]	; 941c <va_printk+0x480>
    91dc:	e59f123c 	ldr	r1, [pc, #572]	; 9420 <va_printk+0x484>
    91e0:	e59f023c 	ldr	r0, [pc, #572]	; 9424 <va_printk+0x488>
    91e4:	ebfffea7 	bl	8c88 <printk>
    91e8:	eb000099 	bl	9454 <clean_reboot>
    91ec:	e3a06000 	mov	r6, #0, 0
    91f0:	e58d6004 	str	r6, [sp, #4]
    91f4:	e58d5000 	str	r5, [sp]
    91f8:	e1a03007 	mov	r3, r7
    91fc:	e3a02080 	mov	r2, #128, 0	; 0x80
    9200:	e28d1010 	add	r1, sp, #16, 0
    9204:	e3a00010 	mov	r0, #16, 0
    9208:	ebfffedd 	bl	8d84 <emit>
    920c:	e1a07000 	mov	r7, r0
    9210:	e58d6004 	str	r6, [sp, #4]
    9214:	e58d5000 	str	r5, [sp]
    9218:	e1a0300a 	mov	r3, sl
    921c:	e3a02080 	mov	r2, #128, 0	; 0x80
    9220:	e28d1090 	add	r1, sp, #144, 0	; 0x90
    9224:	e3a00010 	mov	r0, #16, 0
    9228:	ebfffed5 	bl	8d84 <emit>
    922c:	e28d1092 	add	r1, sp, #146, 0	; 0x92
    9230:	e28d0010 	add	r0, sp, #16, 0
    9234:	eb00022a 	bl	9ae4 <strcat>
    9238:	e1a0600b 	mov	r6, fp
    923c:	ea00001d 	b	92b8 <va_printk+0x31c>
    9240:	e28d1090 	add	r1, sp, #144, 0	; 0x90
    9244:	e28d0010 	add	r0, sp, #16, 0
    9248:	eb000225 	bl	9ae4 <strcat>
    924c:	e1a0600b 	mov	r6, fp
    9250:	ea000018 	b	92b8 <va_printk+0x31c>
    9254:	e58d6000 	str	r6, [sp]
    9258:	e3a030b6 	mov	r3, #182, 0	; 0xb6
    925c:	e59f21b8 	ldr	r2, [pc, #440]	; 941c <va_printk+0x480>
    9260:	e59f11b8 	ldr	r1, [pc, #440]	; 9420 <va_printk+0x484>
    9264:	e59f01d4 	ldr	r0, [pc, #468]	; 9440 <va_printk+0x4a4>
    9268:	ebfffe86 	bl	8c88 <printk>
    926c:	eb000078 	bl	9454 <clean_reboot>
    9270:	e3a030be 	mov	r3, #190, 0	; 0xbe
    9274:	e59f21a0 	ldr	r2, [pc, #416]	; 941c <va_printk+0x480>
    9278:	e59f11a0 	ldr	r1, [pc, #416]	; 9420 <va_printk+0x484>
    927c:	e59f01c0 	ldr	r0, [pc, #448]	; 9444 <va_printk+0x4a8>
    9280:	ebfffe80 	bl	8c88 <printk>
    9284:	eb000072 	bl	9454 <clean_reboot>
    9288:	e59d300c 	ldr	r3, [sp, #12]
    928c:	e2832004 	add	r2, r3, #4, 0
    9290:	e58d200c 	str	r2, [sp, #12]
    9294:	e5933000 	ldr	r3, [r3]
    9298:	e3a02001 	mov	r2, #1, 0
    929c:	e58d2004 	str	r2, [sp, #4]
    92a0:	e58d5000 	str	r5, [sp]
    92a4:	e3a02080 	mov	r2, #128, 0	; 0x80
    92a8:	e28d1010 	add	r1, sp, #16, 0
    92ac:	e3a0000a 	mov	r0, #10, 0
    92b0:	ebfffeb3 	bl	8d84 <emit>
    92b4:	e1a07000 	mov	r7, r0
    92b8:	e2866001 	add	r6, r6, #1, 0
    92bc:	ea00004a 	b	93ec <va_printk+0x450>
    92c0:	e59d300c 	ldr	r3, [sp, #12]
    92c4:	e2832004 	add	r2, r3, #4, 0
    92c8:	e58d200c 	str	r2, [sp, #12]
    92cc:	e5933000 	ldr	r3, [r3]
    92d0:	e3a02000 	mov	r2, #0, 0
    92d4:	e58d2004 	str	r2, [sp, #4]
    92d8:	e58d5000 	str	r5, [sp]
    92dc:	e3a02080 	mov	r2, #128, 0	; 0x80
    92e0:	e28d1010 	add	r1, sp, #16, 0
    92e4:	e3a0000a 	mov	r0, #10, 0
    92e8:	ebfffea5 	bl	8d84 <emit>
    92ec:	e1a07000 	mov	r7, r0
    92f0:	eafffff0 	b	92b8 <va_printk+0x31c>
    92f4:	e59d300c 	ldr	r3, [sp, #12]
    92f8:	e2832004 	add	r2, r3, #4, 0
    92fc:	e58d200c 	str	r2, [sp, #12]
    9300:	e5933000 	ldr	r3, [r3]
    9304:	e3a02000 	mov	r2, #0, 0
    9308:	e58d2004 	str	r2, [sp, #4]
    930c:	e58d5000 	str	r5, [sp]
    9310:	e3a02080 	mov	r2, #128, 0	; 0x80
    9314:	e28d1010 	add	r1, sp, #16, 0
    9318:	e3a00010 	mov	r0, #16, 0
    931c:	ebfffe98 	bl	8d84 <emit>
    9320:	e1a07000 	mov	r7, r0
    9324:	eaffffe3 	b	92b8 <va_printk+0x31c>
    9328:	e59d300c 	ldr	r3, [sp, #12]
    932c:	e2832004 	add	r2, r3, #4, 0
    9330:	e58d200c 	str	r2, [sp, #12]
    9334:	e5933000 	ldr	r3, [r3]
    9338:	e3a02000 	mov	r2, #0, 0
    933c:	e58d2004 	str	r2, [sp, #4]
    9340:	e58d5000 	str	r5, [sp]
    9344:	e3a02080 	mov	r2, #128, 0	; 0x80
    9348:	e28d1010 	add	r1, sp, #16, 0
    934c:	e3a00002 	mov	r0, #2, 0
    9350:	ebfffe8b 	bl	8d84 <emit>
    9354:	e1a07000 	mov	r7, r0
    9358:	eaffffd6 	b	92b8 <va_printk+0x31c>
    935c:	e59d300c 	ldr	r3, [sp, #12]
    9360:	e2832004 	add	r2, r3, #4, 0
    9364:	e58d200c 	str	r2, [sp, #12]
    9368:	e5937000 	ldr	r7, [r3]
    936c:	eaffffd1 	b	92b8 <va_printk+0x31c>
    9370:	e59d300c 	ldr	r3, [sp, #12]
    9374:	e2832004 	add	r2, r3, #4, 0
    9378:	e58d200c 	str	r2, [sp, #12]
    937c:	e5933000 	ldr	r3, [r3]
    9380:	e3a02000 	mov	r2, #0, 0
    9384:	e58d2004 	str	r2, [sp, #4]
    9388:	e58d5000 	str	r5, [sp]
    938c:	e3a02080 	mov	r2, #128, 0	; 0x80
    9390:	e28d1010 	add	r1, sp, #16, 0
    9394:	e3a00008 	mov	r0, #8, 0
    9398:	ebfffe79 	bl	8d84 <emit>
    939c:	e1a07000 	mov	r7, r0
    93a0:	eaffffc4 	b	92b8 <va_printk+0x31c>
    93a4:	e3a03000 	mov	r3, #0, 0
    93a8:	e5c63001 	strb	r3, [r6, #1]
    93ac:	e1a0200a 	mov	r2, sl
    93b0:	e1a0100a 	mov	r1, sl
    93b4:	e59f008c 	ldr	r0, [pc, #140]	; 9448 <va_printk+0x4ac>
    93b8:	ebfffe32 	bl	8c88 <printk>
    93bc:	e59f3088 	ldr	r3, [pc, #136]	; 944c <va_printk+0x4b0>
    93c0:	e5933000 	ldr	r3, [r3]
    93c4:	e59d0008 	ldr	r0, [sp, #8]
    93c8:	e12fff33 	blx	r3
    93cc:	e3a030e2 	mov	r3, #226, 0	; 0xe2
    93d0:	e59f2044 	ldr	r2, [pc, #68]	; 941c <va_printk+0x480>
    93d4:	e59f1044 	ldr	r1, [pc, #68]	; 9420 <va_printk+0x484>
    93d8:	e59f0070 	ldr	r0, [pc, #112]	; 9450 <va_printk+0x4b4>
    93dc:	ebfffe29 	bl	8c88 <printk>
    93e0:	eb00001b 	bl	9454 <clean_reboot>
    93e4:	e2877001 	add	r7, r7, #1, 0
    93e8:	e4c43001 	strb	r3, [r4], #1
    93ec:	e1540008 	cmp	r4, r8
    93f0:	2afffef7 	bcs	8fd4 <va_printk+0x38>
    93f4:	e5d73000 	ldrb	r3, [r7]
    93f8:	e3530000 	cmp	r3, #0, 0
    93fc:	1afffff8 	bne	93e4 <va_printk+0x448>
    9400:	eafffef3 	b	8fd4 <va_printk+0x38>
    9404:	e3a03000 	mov	r3, #0, 0
    9408:	e4c43001 	strb	r3, [r4], #1
    940c:	e0440009 	sub	r0, r4, r9
    9410:	e28ddf45 	add	sp, sp, #276	; 0x114
    9414:	e8bd8ff0 	pop	{r4, r5, r6, r7, r8, r9, sl, fp, pc}
    9418:	00009e04 	andeq	r9, r0, r4, lsl #28
    941c:	00009f1c 	andeq	r9, r0, ip, lsl pc
    9420:	00009dc4 	andeq	r9, r0, r4, asr #27
    9424:	00009ba0 	andeq	r9, r0, r0, lsr #23
    9428:	00009e10 	andeq	r9, r0, r0, lsl lr
    942c:	00009e14 	andeq	r9, r0, r4, lsl lr
    9430:	00009e18 	andeq	r9, r0, r8, lsl lr
    9434:	00009e20 	andeq	r9, r0, r0, lsr #28
    9438:	00009ca4 	andeq	r9, r0, r4, lsr #25
    943c:	00009e28 	andeq	r9, r0, r8, lsr #28
    9440:	00009e64 	andeq	r9, r0, r4, ror #28
    9444:	00009e8c 	andeq	r9, r0, ip, lsl #29
    9448:	00009eb4 			; <UNDEFINED> instruction: 0x00009eb4
    944c:	0000a174 	andeq	sl, r0, r4, ror r1
    9450:	00009ee4 	andeq	r9, r0, r4, ror #29

00009454 <clean_reboot>:
    9454:	e92d4010 	push	{r4, lr}
    9458:	e59f3018 	ldr	r3, [pc, #24]	; 9478 <clean_reboot+0x24>
    945c:	e5933000 	ldr	r3, [r3]
    9460:	e59f0014 	ldr	r0, [pc, #20]	; 947c <clean_reboot+0x28>
    9464:	e12fff33 	blx	r3
    9468:	eb00012e 	bl	9928 <uart_flush_tx>
    946c:	e3a0000a 	mov	r0, #10, 0
    9470:	eb0000b2 	bl	9740 <delay_ms>
    9474:	eb000087 	bl	9698 <rpi_reboot>
    9478:	0000a174 	andeq	sl, r0, r4, ror r1
    947c:	00009f28 	andeq	r9, r0, r8, lsr #30

00009480 <_cstart>:
    9480:	e92d4010 	push	{r4, lr}
    9484:	eb00000c 	bl	94bc <custom_loader>
    9488:	e59f3024 	ldr	r3, [pc, #36]	; 94b4 <_cstart+0x34>
    948c:	e59f2024 	ldr	r2, [pc, #36]	; 94b8 <_cstart+0x38>
    9490:	e1530002 	cmp	r3, r2
    9494:	33a02000 	movcc	r2, #0, 0
    9498:	34832004 	strcc	r2, [r3], #4
    949c:	3afffffa 	bcc	948c <_cstart+0xc>
    94a0:	eb0000c2 	bl	97b0 <uart_init>
    94a4:	e3a03001 	mov	r3, #1, 0
    94a8:	ee0f3f1c 	mcr	15, 0, r3, cr15, cr12, {0}
    94ac:	ebfffcf5 	bl	8888 <notmain>
    94b0:	ebffffe7 	bl	9454 <clean_reboot>
    94b4:	0000a17c 	andeq	sl, r0, ip, ror r1
    94b8:	0000b588 	andeq	fp, r0, r8, lsl #11

000094bc <custom_loader>:
    94bc:	e12fff1e 	bx	lr

000094c0 <data_abort_vector>:
    94c0:	e52de004 	push	{lr}		; (str lr, [sp, #-4]!)
    94c4:	e24dd00c 	sub	sp, sp, #12, 0
    94c8:	e58d0004 	str	r0, [sp, #4]
    94cc:	e59f3018 	ldr	r3, [pc, #24]	; 94ec <data_abort_vector+0x2c>
    94d0:	e58d3000 	str	r3, [sp]
    94d4:	e3a03002 	mov	r3, #2, 0
    94d8:	e59f2010 	ldr	r2, [pc, #16]	; 94f0 <data_abort_vector+0x30>
    94dc:	e59f1010 	ldr	r1, [pc, #16]	; 94f4 <data_abort_vector+0x34>
    94e0:	e59f0010 	ldr	r0, [pc, #16]	; 94f8 <data_abort_vector+0x38>
    94e4:	ebfffde7 	bl	8c88 <printk>
    94e8:	ebffffd9 	bl	9454 <clean_reboot>
    94ec:	00009f9c 	muleq	r0, ip, pc	; <UNPREDICTABLE>
    94f0:	00009fa8 	andeq	r9, r0, r8, lsr #31
    94f4:	00009f34 	andeq	r9, r0, r4, lsr pc
    94f8:	00009f60 	andeq	r9, r0, r0, ror #30

000094fc <fast_interrupt_vector>:
    94fc:	e52de004 	push	{lr}		; (str lr, [sp, #-4]!)
    9500:	e24dd00c 	sub	sp, sp, #12, 0
    9504:	e58d0004 	str	r0, [sp, #4]
    9508:	e59f3018 	ldr	r3, [pc, #24]	; 9528 <fast_interrupt_vector+0x2c>
    950c:	e58d3000 	str	r3, [sp]
    9510:	e3a03002 	mov	r3, #2, 0
    9514:	e59f2010 	ldr	r2, [pc, #16]	; 952c <fast_interrupt_vector+0x30>
    9518:	e59f1010 	ldr	r1, [pc, #16]	; 9530 <fast_interrupt_vector+0x34>
    951c:	e59f0010 	ldr	r0, [pc, #16]	; 9534 <fast_interrupt_vector+0x38>
    9520:	ebfffdd8 	bl	8c88 <printk>
    9524:	ebffffca 	bl	9454 <clean_reboot>
    9528:	00009fe0 	andeq	r9, r0, r0, ror #31
    952c:	00009fe8 	andeq	r9, r0, r8, ror #31
    9530:	00009fbc 			; <UNDEFINED> instruction: 0x00009fbc
    9534:	00009f60 	andeq	r9, r0, r0, ror #30

00009538 <prefetch_abort_vector>:
    9538:	e52de004 	push	{lr}		; (str lr, [sp, #-4]!)
    953c:	e24dd00c 	sub	sp, sp, #12, 0
    9540:	e58d0004 	str	r0, [sp, #4]
    9544:	e59f3018 	ldr	r3, [pc, #24]	; 9564 <prefetch_abort_vector+0x2c>
    9548:	e58d3000 	str	r3, [sp]
    954c:	e3a03002 	mov	r3, #2, 0
    9550:	e59f2010 	ldr	r2, [pc, #16]	; 9568 <prefetch_abort_vector+0x30>
    9554:	e59f1010 	ldr	r1, [pc, #16]	; 956c <prefetch_abort_vector+0x34>
    9558:	e59f0010 	ldr	r0, [pc, #16]	; 9570 <prefetch_abort_vector+0x38>
    955c:	ebfffdc9 	bl	8c88 <printk>
    9560:	ebffffbb 	bl	9454 <clean_reboot>
    9564:	0000a028 	andeq	sl, r0, r8, lsr #32
    9568:	0000a038 	andeq	sl, r0, r8, lsr r0
    956c:	0000a000 	andeq	sl, r0, r0
    9570:	00009f60 	andeq	r9, r0, r0, ror #30

00009574 <reset_vector>:
    9574:	e52de004 	push	{lr}		; (str lr, [sp, #-4]!)
    9578:	e24dd00c 	sub	sp, sp, #12, 0
    957c:	e58d0004 	str	r0, [sp, #4]
    9580:	e59f3018 	ldr	r3, [pc, #24]	; 95a0 <reset_vector+0x2c>
    9584:	e58d3000 	str	r3, [sp]
    9588:	e3a03002 	mov	r3, #2, 0
    958c:	e59f2010 	ldr	r2, [pc, #16]	; 95a4 <reset_vector+0x30>
    9590:	e59f1010 	ldr	r1, [pc, #16]	; 95a8 <reset_vector+0x34>
    9594:	e59f0010 	ldr	r0, [pc, #16]	; 95ac <reset_vector+0x38>
    9598:	ebfffdba 	bl	8c88 <printk>
    959c:	ebffffac 	bl	9454 <clean_reboot>
    95a0:	0000a074 	andeq	sl, r0, r4, ror r0
    95a4:	0000a07c 	andeq	sl, r0, ip, ror r0
    95a8:	0000a050 	andeq	sl, r0, r0, asr r0
    95ac:	00009f60 	andeq	r9, r0, r0, ror #30

000095b0 <undefined_instruction_vector>:
    95b0:	e52de004 	push	{lr}		; (str lr, [sp, #-4]!)
    95b4:	e24dd00c 	sub	sp, sp, #12, 0
    95b8:	e58d0004 	str	r0, [sp, #4]
    95bc:	e59f3018 	ldr	r3, [pc, #24]	; 95dc <undefined_instruction_vector+0x2c>
    95c0:	e58d3000 	str	r3, [sp]
    95c4:	e3a03002 	mov	r3, #2, 0
    95c8:	e59f2010 	ldr	r2, [pc, #16]	; 95e0 <undefined_instruction_vector+0x30>
    95cc:	e59f1010 	ldr	r1, [pc, #16]	; 95e4 <undefined_instruction_vector+0x34>
    95d0:	e59f0010 	ldr	r0, [pc, #16]	; 95e8 <undefined_instruction_vector+0x38>
    95d4:	ebfffdab 	bl	8c88 <printk>
    95d8:	ebffff9d 	bl	9454 <clean_reboot>
    95dc:	0000a0bc 	strheq	sl, [r0], -ip
    95e0:	0000a0cc 	andeq	sl, r0, ip, asr #1
    95e4:	0000a08c 	andeq	sl, r0, ip, lsl #1
    95e8:	00009f60 	andeq	r9, r0, r0, ror #30

000095ec <int_init>:
    95ec:	e92d4010 	push	{r4, lr}
    95f0:	eb000017 	bl	9654 <dev_barrier>
    95f4:	e3e01000 	mvn	r1, #0, 0
    95f8:	e59f0044 	ldr	r0, [pc, #68]	; 9644 <int_init+0x58>
    95fc:	ebfffa88 	bl	8024 <PUT32>
    9600:	e3e01000 	mvn	r1, #0, 0
    9604:	e59f003c 	ldr	r0, [pc, #60]	; 9648 <int_init+0x5c>
    9608:	ebfffa85 	bl	8024 <PUT32>
    960c:	eb000010 	bl	9654 <dev_barrier>
    9610:	e59f0034 	ldr	r0, [pc, #52]	; 964c <int_init+0x60>
    9614:	e59f3034 	ldr	r3, [pc, #52]	; 9650 <int_init+0x64>
    9618:	e0400003 	sub	r0, r0, r3
    961c:	e1a00140 	asr	r0, r0, #2
    9620:	e3a03000 	mov	r3, #0, 0
    9624:	e1530000 	cmp	r3, r0
    9628:	28bd8010 	popcs	{r4, pc}
    962c:	e1a02103 	lsl	r2, r3, #2
    9630:	e59f1018 	ldr	r1, [pc, #24]	; 9650 <int_init+0x64>
    9634:	e7911103 	ldr	r1, [r1, r3, lsl #2]
    9638:	e5821000 	str	r1, [r2]
    963c:	e2833001 	add	r3, r3, #1, 0
    9640:	eafffff7 	b	9624 <int_init+0x38>
    9644:	2000b21c 	andcs	fp, r0, ip, lsl r2
    9648:	2000b220 	andcs	fp, r0, r0, lsr #4
    964c:	00008bf0 	strdeq	r8, [r0], -r0
    9650:	00008ba0 	andeq	r8, r0, r0, lsr #23

00009654 <dev_barrier>:
    9654:	ea000002 	b	9664 <dsb>

00009658 <dmb>:
    9658:	e3a00000 	mov	r0, #0, 0
    965c:	ee070fba 	mcr	15, 0, r0, cr7, cr10, {5}
    9660:	e12fff1e 	bx	lr

00009664 <dsb>:
    9664:	ee070f9a 	mcr	15, 0, r0, cr7, cr10, {4}
    9668:	e12fff1e 	bx	lr

0000966c <at_user_level>:
    966c:	e10f0000 	mrs	r0, CPSR
    9670:	e200001f 	and	r0, r0, #31, 0
    9674:	e3500010 	cmp	r0, #16, 0
    9678:	13a00000 	movne	r0, #0, 0
    967c:	03a00001 	moveq	r0, #1, 0
    9680:	e12fff1e 	bx	lr

00009684 <set_user_level>:
    9684:	e10f3000 	mrs	r3, CPSR
    9688:	e3c3301f 	bic	r3, r3, #31, 0
    968c:	e3833010 	orr	r3, r3, #16, 0
    9690:	e129f003 	msr	CPSR_fc, r3
    9694:	e12fff1e 	bx	lr

00009698 <rpi_reboot>:
    9698:	e92d4010 	push	{r4, lr}
    969c:	ebfffff2 	bl	966c <at_user_level>
    96a0:	e3500000 	cmp	r0, #0, 0
    96a4:	1a00000a 	bne	96d4 <rpi_reboot+0x3c>
    96a8:	eb000138 	bl	9b90 <reboot_callout>
    96ac:	eb00009d 	bl	9928 <uart_flush_tx>
    96b0:	e3a0000a 	mov	r0, #10, 0
    96b4:	eb000021 	bl	9740 <delay_ms>
    96b8:	e59f101c 	ldr	r1, [pc, #28]	; 96dc <rpi_reboot+0x44>
    96bc:	e59f001c 	ldr	r0, [pc, #28]	; 96e0 <rpi_reboot+0x48>
    96c0:	ebfffa57 	bl	8024 <PUT32>
    96c4:	e59f1018 	ldr	r1, [pc, #24]	; 96e4 <rpi_reboot+0x4c>
    96c8:	e59f0018 	ldr	r0, [pc, #24]	; 96e8 <rpi_reboot+0x50>
    96cc:	ebfffa54 	bl	8024 <PUT32>
    96d0:	eafffffe 	b	96d0 <rpi_reboot+0x38>
    96d4:	ebffffea 	bl	9684 <set_user_level>
    96d8:	eafffff2 	b	96a8 <rpi_reboot+0x10>
    96dc:	5a000001 	bpl	96e8 <rpi_reboot+0x50>
    96e0:	20100024 	andscs	r0, r0, r4, lsr #32
    96e4:	5a000020 	bpl	976c <delay_sec+0x14>
    96e8:	2010001c 	andscs	r0, r0, ip, lsl r0

000096ec <timer_get_usec_raw>:
    96ec:	e92d4010 	push	{r4, lr}
    96f0:	e59f0004 	ldr	r0, [pc, #4]	; 96fc <timer_get_usec_raw+0x10>
    96f4:	ebfffa4c 	bl	802c <GET32>
    96f8:	e8bd8010 	pop	{r4, pc}
    96fc:	20003004 	andcs	r3, r0, r4

00009700 <timer_get_usec>:
    9700:	e92d4010 	push	{r4, lr}
    9704:	ebffffd2 	bl	9654 <dev_barrier>
    9708:	ebfffff7 	bl	96ec <timer_get_usec_raw>
    970c:	e1a04000 	mov	r4, r0
    9710:	ebffffcf 	bl	9654 <dev_barrier>
    9714:	e1a00004 	mov	r0, r4
    9718:	e8bd8010 	pop	{r4, pc}

0000971c <delay_us>:
    971c:	e92d4070 	push	{r4, r5, r6, lr}
    9720:	e1a05000 	mov	r5, r0
    9724:	ebfffff5 	bl	9700 <timer_get_usec>
    9728:	e1a04000 	mov	r4, r0
    972c:	ebfffff3 	bl	9700 <timer_get_usec>
    9730:	e0400004 	sub	r0, r0, r4
    9734:	e1500005 	cmp	r0, r5
    9738:	3afffffb 	bcc	972c <delay_us+0x10>
    973c:	e8bd8070 	pop	{r4, r5, r6, pc}

00009740 <delay_ms>:
    9740:	e92d4010 	push	{r4, lr}
    9744:	e0603280 	rsb	r3, r0, r0, lsl #5
    9748:	e0800103 	add	r0, r0, r3, lsl #2
    974c:	e1a00180 	lsl	r0, r0, #3
    9750:	ebfffff1 	bl	971c <delay_us>
    9754:	e8bd8010 	pop	{r4, pc}

00009758 <delay_sec>:
    9758:	e92d4010 	push	{r4, lr}
    975c:	e0603280 	rsb	r3, r0, r0, lsl #5
    9760:	e0800103 	add	r0, r0, r3, lsl #2
    9764:	e1a00180 	lsl	r0, r0, #3
    9768:	ebfffff4 	bl	9740 <delay_ms>
    976c:	e8bd8010 	pop	{r4, pc}

00009770 <and_in32>:
    9770:	e92d4070 	push	{r4, r5, r6, lr}
    9774:	e1a04000 	mov	r4, r0
    9778:	e1a05001 	mov	r5, r1
    977c:	ebfffa2a 	bl	802c <GET32>
    9780:	e0001005 	and	r1, r0, r5
    9784:	e1a00004 	mov	r0, r4
    9788:	ebfffa25 	bl	8024 <PUT32>
    978c:	e8bd8070 	pop	{r4, r5, r6, pc}

00009790 <or_in32>:
    9790:	e92d4070 	push	{r4, r5, r6, lr}
    9794:	e1a04000 	mov	r4, r0
    9798:	e1a05001 	mov	r5, r1
    979c:	ebfffa22 	bl	802c <GET32>
    97a0:	e1801005 	orr	r1, r0, r5
    97a4:	e1a00004 	mov	r0, r4
    97a8:	ebfffa1d 	bl	8024 <PUT32>
    97ac:	e8bd8070 	pop	{r4, r5, r6, pc}

000097b0 <uart_init>:
    97b0:	e92d4010 	push	{r4, lr}
    97b4:	e3a01002 	mov	r1, #2, 0
    97b8:	e3a0000e 	mov	r0, #14, 0
    97bc:	ebfffca2 	bl	8a4c <gpio_set_function>
    97c0:	e3a01002 	mov	r1, #2, 0
    97c4:	e3a0000f 	mov	r0, #15, 0
    97c8:	ebfffc9f 	bl	8a4c <gpio_set_function>
    97cc:	ebffffa0 	bl	9654 <dev_barrier>
    97d0:	e3a01001 	mov	r1, #1, 0
    97d4:	e59f0064 	ldr	r0, [pc, #100]	; 9840 <uart_init+0x90>
    97d8:	ebffffec 	bl	9790 <or_in32>
    97dc:	ebffff9c 	bl	9654 <dev_barrier>
    97e0:	e59f405c 	ldr	r4, [pc, #92]	; 9844 <uart_init+0x94>
    97e4:	e3a01000 	mov	r1, #0, 0
    97e8:	e1a00004 	mov	r0, r4
    97ec:	ebfffa0c 	bl	8024 <PUT32>
    97f0:	e3a01000 	mov	r1, #0, 0
    97f4:	e59f004c 	ldr	r0, [pc, #76]	; 9848 <uart_init+0x98>
    97f8:	ebfffa09 	bl	8024 <PUT32>
    97fc:	e3a01003 	mov	r1, #3, 0
    9800:	e59f0044 	ldr	r0, [pc, #68]	; 984c <uart_init+0x9c>
    9804:	ebfffa06 	bl	8024 <PUT32>
    9808:	e3a01000 	mov	r1, #0, 0
    980c:	e59f003c 	ldr	r0, [pc, #60]	; 9850 <uart_init+0xa0>
    9810:	ebfffa03 	bl	8024 <PUT32>
    9814:	e3a010c7 	mov	r1, #199, 0	; 0xc7
    9818:	e59f0034 	ldr	r0, [pc, #52]	; 9854 <uart_init+0xa4>
    981c:	ebfffa00 	bl	8024 <PUT32>
    9820:	e59f1030 	ldr	r1, [pc, #48]	; 9858 <uart_init+0xa8>
    9824:	e59f0030 	ldr	r0, [pc, #48]	; 985c <uart_init+0xac>
    9828:	ebfff9fd 	bl	8024 <PUT32>
    982c:	e3a01003 	mov	r1, #3, 0
    9830:	e1a00004 	mov	r0, r4
    9834:	ebfff9fa 	bl	8024 <PUT32>
    9838:	ebffff85 	bl	9654 <dev_barrier>
    983c:	e8bd8010 	pop	{r4, pc}
    9840:	20215004 	eorcs	r5, r1, r4
    9844:	20215060 	eorcs	r5, r1, r0, rrx
    9848:	20215044 	eorcs	r5, r1, r4, asr #32
    984c:	2021504c 	eorcs	r5, r1, ip, asr #32
    9850:	20215050 	eorcs	r5, r1, r0, asr r0
    9854:	20215048 	eorcs	r5, r1, r8, asr #32
    9858:	0000010e 	andeq	r0, r0, lr, lsl #2
    985c:	20215068 	eorcs	r5, r1, r8, rrx

00009860 <uart_can_getc>:
    9860:	e92d4010 	push	{r4, lr}
    9864:	e59f0008 	ldr	r0, [pc, #8]	; 9874 <uart_can_getc+0x14>
    9868:	ebfff9ef 	bl	802c <GET32>
    986c:	e2000001 	and	r0, r0, #1, 0
    9870:	e8bd8010 	pop	{r4, pc}
    9874:	20215064 	eorcs	r5, r1, r4, rrx

00009878 <uart_can_putc>:
    9878:	e92d4010 	push	{r4, lr}
    987c:	e59f0010 	ldr	r0, [pc, #16]	; 9894 <uart_can_putc+0x1c>
    9880:	ebfff9e9 	bl	802c <GET32>
    9884:	e3100002 	tst	r0, #2, 0
    9888:	13a00001 	movne	r0, #1, 0
    988c:	03a00000 	moveq	r0, #0, 0
    9890:	e8bd8010 	pop	{r4, pc}
    9894:	20215064 	eorcs	r5, r1, r4, rrx

00009898 <uart_getc>:
    9898:	e92d4010 	push	{r4, lr}
    989c:	ebffff6c 	bl	9654 <dev_barrier>
    98a0:	ebffffee 	bl	9860 <uart_can_getc>
    98a4:	e3500000 	cmp	r0, #0, 0
    98a8:	0afffffc 	beq	98a0 <uart_getc+0x8>
    98ac:	e59f0010 	ldr	r0, [pc, #16]	; 98c4 <uart_getc+0x2c>
    98b0:	ebfff9dd 	bl	802c <GET32>
    98b4:	e6ef4070 	uxtb	r4, r0
    98b8:	ebffff65 	bl	9654 <dev_barrier>
    98bc:	e1a00004 	mov	r0, r4
    98c0:	e8bd8010 	pop	{r4, pc}
    98c4:	20215040 	eorcs	r5, r1, r0, asr #32

000098c8 <uart_putc>:
    98c8:	e92d4010 	push	{r4, lr}
    98cc:	e1a04000 	mov	r4, r0
    98d0:	ebffff5f 	bl	9654 <dev_barrier>
    98d4:	ebffffe7 	bl	9878 <uart_can_putc>
    98d8:	e3500000 	cmp	r0, #0, 0
    98dc:	0afffffc 	beq	98d4 <uart_putc+0xc>
    98e0:	e6ef1074 	uxtb	r1, r4
    98e4:	e59f0008 	ldr	r0, [pc, #8]	; 98f4 <uart_putc+0x2c>
    98e8:	ebfff9cd 	bl	8024 <PUT32>
    98ec:	ebffff58 	bl	9654 <dev_barrier>
    98f0:	e8bd8010 	pop	{r4, pc}
    98f4:	20215040 	eorcs	r5, r1, r0, asr #32

000098f8 <uart_has_data>:
    98f8:	e92d4010 	push	{r4, lr}
    98fc:	ebffff54 	bl	9654 <dev_barrier>
    9900:	ebffffd6 	bl	9860 <uart_can_getc>
    9904:	e8bd8010 	pop	{r4, pc}

00009908 <uart_tx_is_empty>:
    9908:	e92d4010 	push	{r4, lr}
    990c:	ebffff50 	bl	9654 <dev_barrier>
    9910:	e59f000c 	ldr	r0, [pc, #12]	; 9924 <uart_tx_is_empty+0x1c>
    9914:	ebfff9c4 	bl	802c <GET32>
    9918:	e1a004a0 	lsr	r0, r0, #9
    991c:	e2000001 	and	r0, r0, #1, 0
    9920:	e8bd8010 	pop	{r4, pc}
    9924:	20215064 	eorcs	r5, r1, r4, rrx

00009928 <uart_flush_tx>:
    9928:	e92d4010 	push	{r4, lr}
    992c:	ebfffff5 	bl	9908 <uart_tx_is_empty>
    9930:	e3500000 	cmp	r0, #0, 0
    9934:	0afffffc 	beq	992c <uart_flush_tx+0x4>
    9938:	e8bd8010 	pop	{r4, pc}

0000993c <uart_disable>:
    993c:	e92d4010 	push	{r4, lr}
    9940:	ebfffff8 	bl	9928 <uart_flush_tx>
    9944:	ebffff42 	bl	9654 <dev_barrier>
    9948:	e3e01001 	mvn	r1, #1, 0
    994c:	e59f0008 	ldr	r0, [pc, #8]	; 995c <uart_disable+0x20>
    9950:	ebffff86 	bl	9770 <and_in32>
    9954:	ebffff3e 	bl	9654 <dev_barrier>
    9958:	e8bd8010 	pop	{r4, pc}
    995c:	20215004 	eorcs	r5, r1, r4

00009960 <gpio_set_pud>:
    9960:	e92d4070 	push	{r4, r5, r6, lr}
    9964:	e24dd008 	sub	sp, sp, #8, 0
    9968:	e350001f 	cmp	r0, #31, 0
    996c:	8a000007 	bhi	9990 <gpio_set_pud+0x30>
    9970:	e1a05000 	mov	r5, r0
    9974:	e1a04001 	mov	r4, r1
    9978:	e3510003 	cmp	r1, #3, 0
    997c:	8a00000c 	bhi	99b4 <gpio_set_pud+0x54>
    9980:	e3510002 	cmp	r1, #2, 0
    9984:	9a000013 	bls	99d8 <gpio_set_pud+0x78>
    9988:	e28dd008 	add	sp, sp, #8, 0
    998c:	e8bd8070 	pop	{r4, r5, r6, pc}
    9990:	eb000049 	bl	9abc <rpi_reset_putc>
    9994:	e59f30a4 	ldr	r3, [pc, #164]	; 9a40 <gpio_set_pud+0xe0>
    9998:	e58d3000 	str	r3, [sp]
    999c:	e3a03012 	mov	r3, #18, 0
    99a0:	e59f209c 	ldr	r2, [pc, #156]	; 9a44 <gpio_set_pud+0xe4>
    99a4:	e59f109c 	ldr	r1, [pc, #156]	; 9a48 <gpio_set_pud+0xe8>
    99a8:	e59f009c 	ldr	r0, [pc, #156]	; 9a4c <gpio_set_pud+0xec>
    99ac:	ebfffcb5 	bl	8c88 <printk>
    99b0:	ebfffea7 	bl	9454 <clean_reboot>
    99b4:	eb000040 	bl	9abc <rpi_reset_putc>
    99b8:	e59f3090 	ldr	r3, [pc, #144]	; 9a50 <gpio_set_pud+0xf0>
    99bc:	e58d3000 	str	r3, [sp]
    99c0:	e3a03013 	mov	r3, #19, 0
    99c4:	e59f2078 	ldr	r2, [pc, #120]	; 9a44 <gpio_set_pud+0xe4>
    99c8:	e59f1078 	ldr	r1, [pc, #120]	; 9a48 <gpio_set_pud+0xe8>
    99cc:	e59f0080 	ldr	r0, [pc, #128]	; 9a54 <gpio_set_pud+0xf4>
    99d0:	ebfffcac 	bl	8c88 <printk>
    99d4:	ebfffe9e 	bl	9454 <clean_reboot>
    99d8:	ebffff1d 	bl	9654 <dev_barrier>
    99dc:	e59f6074 	ldr	r6, [pc, #116]	; 9a58 <gpio_set_pud+0xf8>
    99e0:	e1a01004 	mov	r1, r4
    99e4:	e1a00006 	mov	r0, r6
    99e8:	ebfff98d 	bl	8024 <PUT32>
    99ec:	e3a00096 	mov	r0, #150, 0	; 0x96
    99f0:	ebffff49 	bl	971c <delay_us>
    99f4:	e59f4060 	ldr	r4, [pc, #96]	; 9a5c <gpio_set_pud+0xfc>
    99f8:	e3a01001 	mov	r1, #1, 0
    99fc:	e1a01511 	lsl	r1, r1, r5
    9a00:	e1a00004 	mov	r0, r4
    9a04:	ebfff986 	bl	8024 <PUT32>
    9a08:	e3a00096 	mov	r0, #150, 0	; 0x96
    9a0c:	ebffff42 	bl	971c <delay_us>
    9a10:	e3a01000 	mov	r1, #0, 0
    9a14:	e1a00006 	mov	r0, r6
    9a18:	ebfff981 	bl	8024 <PUT32>
    9a1c:	e3a00096 	mov	r0, #150, 0	; 0x96
    9a20:	ebffff3d 	bl	971c <delay_us>
    9a24:	e3a01000 	mov	r1, #0, 0
    9a28:	e1a00004 	mov	r0, r4
    9a2c:	ebfff97c 	bl	8024 <PUT32>
    9a30:	e3a00096 	mov	r0, #150, 0	; 0x96
    9a34:	ebffff38 	bl	971c <delay_us>
    9a38:	ebffff05 	bl	9654 <dev_barrier>
    9a3c:	eaffffd1 	b	9988 <gpio_set_pud+0x28>
    9a40:	0000a124 	andeq	sl, r0, r4, lsr #2
    9a44:	0000a164 	andeq	sl, r0, r4, ror #2
    9a48:	0000a0ec 	andeq	sl, r0, ip, ror #1
    9a4c:	0000a0f8 	strdeq	sl, [r0], -r8
    9a50:	0000a15c 	andeq	sl, r0, ip, asr r1
    9a54:	0000a130 	andeq	sl, r0, r0, lsr r1
    9a58:	20200094 	mlacs	r0, r4, r0, r0
    9a5c:	20200098 	mlacs	r0, r8, r0, r0

00009a60 <gpio_set_pullup>:
    9a60:	e92d4010 	push	{r4, lr}
    9a64:	e3a01002 	mov	r1, #2, 0
    9a68:	ebffffbc 	bl	9960 <gpio_set_pud>
    9a6c:	e8bd8010 	pop	{r4, pc}

00009a70 <gpio_set_pulldown>:
    9a70:	e92d4010 	push	{r4, lr}
    9a74:	e3a01001 	mov	r1, #1, 0
    9a78:	ebffffb8 	bl	9960 <gpio_set_pud>
    9a7c:	e8bd8010 	pop	{r4, pc}

00009a80 <gpio_pud_off>:
    9a80:	e92d4010 	push	{r4, lr}
    9a84:	e3a01000 	mov	r1, #0, 0
    9a88:	ebffffb4 	bl	9960 <gpio_set_pud>
    9a8c:	e8bd8010 	pop	{r4, pc}

00009a90 <gpio_get_pud>:
    9a90:	e92d4010 	push	{r4, lr}
    9a94:	e59f0008 	ldr	r0, [pc, #8]	; 9aa4 <gpio_get_pud+0x14>
    9a98:	ebfff963 	bl	802c <GET32>
    9a9c:	e2000003 	and	r0, r0, #3, 0
    9aa0:	e8bd8010 	pop	{r4, pc}
    9aa4:	20200094 	mlacs	r0, r4, r0, r0

00009aa8 <internal_putchar>:
    9aa8:	e92d4010 	push	{r4, lr}
    9aac:	e1a04000 	mov	r4, r0
    9ab0:	ebffff84 	bl	98c8 <uart_putc>
    9ab4:	e1a00004 	mov	r0, r4
    9ab8:	e8bd8010 	pop	{r4, pc}

00009abc <rpi_reset_putc>:
    9abc:	e59f3008 	ldr	r3, [pc, #8]	; 9acc <rpi_reset_putc+0x10>
    9ac0:	e59f2008 	ldr	r2, [pc, #8]	; 9ad0 <rpi_reset_putc+0x14>
    9ac4:	e5832000 	str	r2, [r3]
    9ac8:	e12fff1e 	bx	lr
    9acc:	0000a178 	andeq	sl, r0, r8, ror r1
    9ad0:	00009aa8 	andeq	r9, r0, r8, lsr #21

00009ad4 <rpi_set_putc>:
    9ad4:	e59f3004 	ldr	r3, [pc, #4]	; 9ae0 <rpi_set_putc+0xc>
    9ad8:	e5830000 	str	r0, [r3]
    9adc:	e12fff1e 	bx	lr
    9ae0:	0000a178 	andeq	sl, r0, r8, ror r1

00009ae4 <strcat>:
    9ae4:	e1a02000 	mov	r2, r0
    9ae8:	e1a03002 	mov	r3, r2
    9aec:	e2822001 	add	r2, r2, #1, 0
    9af0:	e5d3c000 	ldrb	ip, [r3]
    9af4:	e35c0000 	cmp	ip, #0, 0
    9af8:	1afffffa 	bne	9ae8 <strcat+0x4>
    9afc:	e2433001 	sub	r3, r3, #1, 0
    9b00:	e5d12000 	ldrb	r2, [r1]
    9b04:	e2811001 	add	r1, r1, #1, 0
    9b08:	e5e32001 	strb	r2, [r3, #1]!
    9b0c:	e3520000 	cmp	r2, #0, 0
    9b10:	1afffffa 	bne	9b00 <strcat+0x1c>
    9b14:	e12fff1e 	bx	lr

00009b18 <strcmp>:
    9b18:	e5d03000 	ldrb	r3, [r0]
    9b1c:	e3530000 	cmp	r3, #0, 0
    9b20:	0a000004 	beq	9b38 <strcmp+0x20>
    9b24:	e5d12000 	ldrb	r2, [r1]
    9b28:	e1530002 	cmp	r3, r2
    9b2c:	02800001 	addeq	r0, r0, #1, 0
    9b30:	02811001 	addeq	r1, r1, #1, 0
    9b34:	0afffff7 	beq	9b18 <strcmp>
    9b38:	e5d10000 	ldrb	r0, [r1]
    9b3c:	e0430000 	sub	r0, r3, r0
    9b40:	e12fff1e 	bx	lr

00009b44 <strcpy>:
    9b44:	e1a0c000 	mov	ip, r0
    9b48:	e5d12000 	ldrb	r2, [r1]
    9b4c:	e2811001 	add	r1, r1, #1, 0
    9b50:	e5cc2000 	strb	r2, [ip]
    9b54:	e28cc001 	add	ip, ip, #1, 0
    9b58:	e3520000 	cmp	r2, #0, 0
    9b5c:	1afffff9 	bne	9b48 <strcpy+0x4>
    9b60:	e12fff1e 	bx	lr

00009b64 <strncmp>:
    9b64:	e3520000 	cmp	r2, #0, 0
    9b68:	e2422001 	sub	r2, r2, #1, 0
    9b6c:	0a000005 	beq	9b88 <strncmp+0x24>
    9b70:	e4d03001 	ldrb	r3, [r0], #1
    9b74:	e4d1c001 	ldrb	ip, [r1], #1
    9b78:	e153000c 	cmp	r3, ip
    9b7c:	0afffff8 	beq	9b64 <strncmp>
    9b80:	e043000c 	sub	r0, r3, ip
    9b84:	e12fff1e 	bx	lr
    9b88:	e3a00000 	mov	r0, #0, 0
    9b8c:	e12fff1e 	bx	lr

00009b90 <reboot_callout>:
    9b90:	e12fff1e 	bx	lr

00009b94 <__code_end__>:
    9b94:	00000000 	andeq	r0, r0, r0

Disassembly of section .rodata:

00009b98 <__FUNCTION__.4030-0x1bc>:
    9b98:	706f7374 	rsbvc	r7, pc, r4, ror r3	; <UNPREDICTABLE>
    9b9c:	0000632e 	andeq	r6, r0, lr, lsr #6
    9ba0:	494e4150 	stmdbmi	lr, {r4, r6, r8, lr}^
    9ba4:	73253a43 			; <UNDEFINED> instruction: 0x73253a43
    9ba8:	3a73253a 	bcc	1cd3098 <__bss_end__+0x1cc7b10>
    9bac:	253a6425 	ldrcs	r6, [sl, #-1061]!	; 0xfffffbdb
    9bb0:	00000a73 	andeq	r0, r0, r3, ror sl
    9bb4:	763e2d65 	ldrtvc	r2, [lr], -r5, ror #26
    9bb8:	00000000 	andeq	r0, r0, r0
    9bbc:	52554f53 	subspl	r4, r5, #332	; 0x14c
    9bc0:	00004543 	andeq	r4, r0, r3, asr #10
    9bc4:	45504552 	ldrbmi	r4, [r0, #-1362]	; 0xfffffaae
    9bc8:	00005441 	andeq	r5, r0, r1, asr #8
    9bcc:	53554c50 	cmppl	r5, #80, 24	; 0x5000
    9bd0:	00000000 	andeq	r0, r0, r0
    9bd4:	554e494d 	strbpl	r4, [lr, #-2381]	; 0xfffff6b3
    9bd8:	00000053 	andeq	r0, r0, r3, asr r0
    9bdc:	59414c50 	stmdbpl	r1, {r4, r6, sl, fp, lr}^
    9be0:	5541502f 	strbpl	r5, [r1, #-47]	; 0xffffffd1
    9be4:	00004553 	andeq	r4, r0, r3, asr r5
    9be8:	49574552 	ldmdbmi	r7, {r1, r4, r6, r8, sl, lr}^
    9bec:	0000444e 	andeq	r4, r0, lr, asr #8
    9bf0:	4554554d 	ldrbmi	r5, [r4, #-1357]	; 0xfffffab3
    9bf4:	00000000 	andeq	r0, r0, r0
    9bf8:	57524f46 	ldrbpl	r4, [r2, -r6, asr #30]
    9bfc:	00445241 	subeq	r5, r4, r1, asr #4
    9c00:	45574f50 	ldrbmi	r4, [r7, #-3920]	; 0xfffff0b0
    9c04:	00000052 	andeq	r0, r0, r2, asr r0
    9c08:	0000006e 	andeq	r0, r0, lr, rrx
    9c0c:	2d2d2d2d 	stccs	13, cr2, [sp, #-180]!	; 0xffffff4c
    9c10:	2d2d2d2d 	stccs	13, cr2, [sp, #-180]!	; 0xffffff4c
    9c14:	2d2d2d2d 	stccs	13, cr2, [sp, #-180]!	; 0xffffff4c
    9c18:	2d2d2d2d 	stccs	13, cr2, [sp, #-180]!	; 0xffffff4c
    9c1c:	2d2d2d2d 	stccs	13, cr2, [sp, #-180]!	; 0xffffff4c
    9c20:	2d2d2d2d 	stccs	13, cr2, [sp, #-180]!	; 0xffffff4c
    9c24:	2d2d2d2d 	stccs	13, cr2, [sp, #-180]!	; 0xffffff4c
    9c28:	2d2d2d2d 	stccs	13, cr2, [sp, #-180]!	; 0xffffff4c
    9c2c:	2d2d2d2d 	stccs	13, cr2, [sp, #-180]!	; 0xffffff4c
    9c30:	2d2d2d2d 	stccs	13, cr2, [sp, #-180]!	; 0xffffff4c
    9c34:	2d2d2d2d 	stccs	13, cr2, [sp, #-180]!	; 0xffffff4c
    9c38:	2d2d2d2d 	stccs	13, cr2, [sp, #-180]!	; 0xffffff4c
    9c3c:	2d2d2d2d 	stccs	13, cr2, [sp, #-180]!	; 0xffffff4c
    9c40:	0a2d2d2d 	beq	b550fc <__bss_end__+0xb49b74>
    9c44:	00000000 	andeq	r0, r0, r0
    9c48:	5f736921 	svcpl	0x00736921
    9c4c:	64616568 	strbtvs	r6, [r1], #-1384	; 0xfffffa98
    9c50:	72287265 	eorvc	r7, r8, #1342177286	; 0x50000006
    9c54:	6e2c692b 	vmulvs.f16	s12, s24, s23	; <UNPREDICTABLE>
    9c58:	0029692d 	eoreq	r6, r9, sp, lsr #18
    9c5c:	3a642509 	bcc	1913088 <__bss_end__+0x1907b00>
    9c60:	20642520 	rsbcs	r2, r4, r0, lsr #10
    9c64:	6425203d 	strtvs	r2, [r5], #-61	; 0xffffffc3
    9c68:	65737520 	ldrbvs	r7, [r3, #-1312]!	; 0xfffffae0
    9c6c:	00000a63 	andeq	r0, r0, r3, ror #20
    9c70:	64616572 	strbtvs	r6, [r1], #-1394	; 0xfffffa8e
    9c74:	73676e69 	cmnvc	r7, #1680	; 0x690
    9c78:	0a64253d 	beq	1913174 <__bss_end__+0x1907bec>
    9c7c:	00000000 	andeq	r0, r0, r0
    9c80:	766e6f63 	strbtvc	r6, [lr], -r3, ror #30
    9c84:	69747265 	ldmdbvs	r4!, {r0, r2, r5, r6, r9, ip, sp, lr}^
    9c88:	2520676e 	strcs	r6, [r0, #-1902]!	; 0xfffff892
    9c8c:	65722064 	ldrbvs	r2, [r2, #-100]!	; 0xffffff9c
    9c90:	6e696461 	cdpvs	4, 6, cr6, cr9, cr1, {3}
    9c94:	2e2e7367 	cdpcs	3, 2, cr7, cr14, cr7, {3}
    9c98:	00000a2e 	andeq	r0, r0, lr, lsr #20
    9c9c:	72617473 	rsbvc	r7, r1, #1929379840	; 0x73000000
    9ca0:	203e2074 	eorscs	r2, lr, r4, ror r0
    9ca4:	00000030 	andeq	r0, r0, r0, lsr r0
    9ca8:	766e6f63 	strbtvc	r6, [lr], -r3, ror #30
    9cac:	69747265 	ldmdbvs	r4!, {r0, r2, r5, r6, r9, ip, sp, lr}^
    9cb0:	6e20676e 	cdpvs	7, 2, cr6, cr0, cr14, {3}
    9cb4:	25203d20 	strcs	r3, [r0, #-3360]!	; 0xfffff2e0
    9cb8:	00000a64 	andeq	r0, r0, r4, ror #20
    9cbc:	3d206425 	cfstrscc	mvf6, [r0, #-148]!	; 0xffffff6c
    9cc0:	6425203e 	strtvs	r2, [r5], #-62	; 0xffffffc2
    9cc4:	726f6620 	rsbvc	r6, pc, #32, 12	; 0x2000000
    9cc8:	0a642520 	beq	1913150 <__bss_end__+0x1907bc8>
    9ccc:	00000000 	andeq	r0, r0, r0
    9cd0:	735f7369 	cmpvc	pc, #-1543503871	; 0xa4000001
    9cd4:	2870696b 	ldmdacs	r0!, {r0, r1, r3, r5, r6, r8, fp, sp, lr}^
    9cd8:	695b7226 	ldmdbvs	fp, {r1, r2, r5, r9, ip, sp, lr}^
    9cdc:	31202b20 			; <UNDEFINED> instruction: 0x31202b20
    9ce0:	0000295d 	andeq	r2, r0, sp, asr r9
    9ce4:	756f6261 	strbvc	r6, [pc, #-609]!	; 9a8b <gpio_pud_off+0xb>
    9ce8:	6f742074 	svcvs	0x00742074
    9cec:	61747320 	cmnvs	r4, r0, lsr #6
    9cf0:	72207472 	eorvc	r7, r0, #1912602624	; 0x72000000
    9cf4:	69646165 	stmdbvs	r4!, {r0, r2, r5, r6, r8, sp, lr}^
    9cf8:	000a676e 	andeq	r6, sl, lr, ror #14
    9cfc:	656e6f64 	strbvs	r6, [lr, #-3940]!	; 0xfffff09c
    9d00:	74656720 	strbtvc	r6, [r5], #-1824	; 0xfffff8e0
    9d04:	676e6974 			; <UNDEFINED> instruction: 0x676e6974
    9d08:	61657220 	cmnvs	r5, r0, lsr #4
    9d0c:	676e6964 	strbvs	r6, [lr, -r4, ror #18]!
    9d10:	00000a73 	andeq	r0, r0, r3, ror sl
    9d14:	766e6f63 	strbtvc	r6, [lr], -r3, ror #30
    9d18:	65747265 	ldrbvs	r7, [r4, #-613]!	; 0xfffffd9b
    9d1c:	6f742064 	svcvs	0x00742064
    9d20:	0a782520 	beq	1e131a8 <__bss_end__+0x1e07c20>
    9d24:	00000000 	andeq	r0, r0, r0
    9d28:	000a7325 	andeq	r7, sl, r5, lsr #6
    9d2c:	0000002e 	andeq	r0, r0, lr, lsr #32
    9d30:	756f6620 	strbvc	r6, [pc, #-1568]!	; 9718 <timer_get_usec+0x18>
    9d34:	6820646e 	stmdavs	r0!, {r1, r2, r3, r5, r6, sl, sp, lr}
    9d38:	65646165 	strbvs	r6, [r4, #-357]!	; 0xfffffe9b
    9d3c:	000a2172 	andeq	r2, sl, r2, ror r1
    9d40:	6e617254 	mcrvs	2, 3, r7, cr1, cr4, {2}
    9d44:	74696d73 	strbtvc	r6, [r9], #-3443	; 0xfffff28d
    9d48:	676e6974 			; <UNDEFINED> instruction: 0x676e6974
    9d4c:	2e782520 	cdpcs	5, 7, cr2, cr8, cr0, {1}
    9d50:	000a2e2e 	andeq	r2, sl, lr, lsr #28

00009d54 <__FUNCTION__.4030>:
    9d54:	6b636970 	blvs	18e431c <__bss_end__+0x18d8d94>
    9d58:	00000000 	andeq	r0, r0, r0

00009d5c <__FUNCTION__.4054>:
    9d5c:	6e697270 	mcrvs	2, 3, r7, cr9, cr0, {3}
    9d60:	65725f74 	ldrbvs	r5, [r2, #-3956]!	; 0xfffff08c
    9d64:	6e696461 	cdpvs	4, 6, cr6, cr9, cr1, {3}
    9d68:	00007367 	andeq	r7, r0, r7, ror #6

00009d6c <__FUNCTION__.4064>:
    9d6c:	766e6f63 	strbtvc	r6, [lr], -r3, ror #30
    9d70:	00747265 	rsbseq	r7, r4, r5, ror #4
    9d74:	72732f2e 	rsbsvc	r2, r3, #184	; 0xb8
    9d78:	70672f63 	rsbvc	r2, r7, r3, ror #30
    9d7c:	692d6f69 	pushvs	{r0, r3, r5, r6, r8, r9, sl, fp, sp, lr}
    9d80:	632e746e 			; <UNDEFINED> instruction: 0x632e746e
    9d84:	00000000 	andeq	r0, r0, r0
    9d88:	6f697067 	svcvs	0x00697067
    9d8c:	746e695f 	strbtvc	r6, [lr], #-2399	; 0xfffff6a1
    9d90:	203d3e20 	eorscs	r3, sp, r0, lsr #28
    9d94:	4f495047 	svcmi	0x00495047
    9d98:	544e495f 	strbpl	r4, [lr], #-2399	; 0xfffff6a1
    9d9c:	26262030 			; <UNDEFINED> instruction: 0x26262030
    9da0:	69706720 	ldmdbvs	r0!, {r5, r8, r9, sl, sp, lr}^
    9da4:	6e695f6f 	cdpvs	15, 6, cr5, cr9, cr15, {3}
    9da8:	3d3c2074 	ldccc	0, cr2, [ip, #-464]!	; 0xfffffe30
    9dac:	49504720 	ldmdbmi	r0, {r5, r8, r9, sl, lr}^
    9db0:	4e495f4f 	cdpmi	15, 4, cr5, cr9, cr15, {2}
    9db4:	00003354 	andeq	r3, r0, r4, asr r3

00009db8 <__FUNCTION__.3947>:
    9db8:	675f7369 	ldrbvs	r7, [pc, -r9, ror #6]
    9dbc:	5f6f6970 	svcpl	0x006f6970
    9dc0:	00746e69 	rsbseq	r6, r4, r9, ror #28
    9dc4:	696c2f2e 	stmdbvs	ip!, {r1, r2, r3, r5, r8, r9, sl, fp, sp}^
    9dc8:	762f6362 	strtvc	r6, [pc], -r2, ror #6
    9dcc:	72702d61 	rsbsvc	r2, r0, #6208	; 0x1840
    9dd0:	6b746e69 	blvs	1d2577c <__bss_end__+0x1d1a1f4>
    9dd4:	0000632e 	andeq	r6, r0, lr, lsr #6
    9dd8:	33323130 	teqcc	r2, #12
    9ddc:	37363534 			; <UNDEFINED> instruction: 0x37363534
    9de0:	00003938 	andeq	r3, r0, r8, lsr r9
    9de4:	33323130 	teqcc	r2, #12
    9de8:	37363534 			; <UNDEFINED> instruction: 0x37363534
    9dec:	62613938 	rsbvs	r3, r1, #56, 18	; 0xe0000
    9df0:	66656463 	strbtvs	r6, [r5], -r3, ror #8
    9df4:	00000000 	andeq	r0, r0, r0
    9df8:	00003130 	andeq	r3, r0, r0, lsr r1
    9dfc:	63747570 	cmnvs	r4, #112, 10	; 0x1c000000
    9e00:	0070665f 	rsbseq	r6, r0, pc, asr r6
    9e04:	74646977 	strbtvc	r6, [r4], #-2423	; 0xfffff689
    9e08:	203c2068 	eorscs	r2, ip, r8, rrx
    9e0c:	00003233 	andeq	r3, r0, r3, lsr r2
    9e10:	00786c6c 	rsbseq	r6, r8, ip, ror #24
    9e14:	00646c6c 	rsbeq	r6, r4, ip, ror #24
    9e18:	253d3078 	ldrcs	r3, [sp, #-120]!	; 0xffffff88
    9e1c:	00000a78 	andeq	r0, r0, r8, ror sl
    9e20:	253d3178 	ldrcs	r3, [sp, #-376]!	; 0xfffffe88
    9e24:	00000a78 	andeq	r0, r0, r8, ror sl
    9e28:	6e727473 	mrcvs	4, 3, r7, cr2, cr3, {3}
    9e2c:	28706d63 	ldmdacs	r0!, {r0, r1, r5, r6, r8, sl, fp, sp, lr}^
    9e30:	202c7974 	eorcs	r7, ip, r4, ror r9
    9e34:	786c6c22 	stmdavc	ip!, {r1, r5, sl, fp, sp, lr}^
    9e38:	33202c22 			; <UNDEFINED> instruction: 0x33202c22
    9e3c:	3d3d2029 	ldccc	0, cr2, [sp, #-164]!	; 0xffffff5c
    9e40:	7c203020 	stcvc	0, cr3, [r0], #-128	; 0xffffff80
    9e44:	7473207c 	ldrbtvc	r2, [r3], #-124	; 0xffffff84
    9e48:	6d636e72 	stclvs	14, cr6, [r3, #-456]!	; 0xfffffe38
    9e4c:	79742870 	ldmdbvc	r4!, {r4, r5, r6, fp, sp}^
    9e50:	6c22202c 	stcvs	0, cr2, [r2], #-176	; 0xffffff50
    9e54:	2c22646c 	cfstrscs	mvf6, [r2], #-432	; 0xfffffe50
    9e58:	20293320 	eorcs	r3, r9, r0, lsr #6
    9e5c:	30203d3d 	eorcc	r3, r0, sp, lsr sp
    9e60:	00000000 	andeq	r0, r0, r0
    9e64:	494e4150 	stmdbmi	lr, {r4, r6, r8, lr}^
    9e68:	73253a43 			; <UNDEFINED> instruction: 0x73253a43
    9e6c:	3a73253a 	bcc	1cd335c <__bss_end__+0x1cc7dd4>
    9e70:	693a6425 	ldmdbvs	sl!, {r0, r2, r5, sl, sp, lr}
    9e74:	736f706d 	cmnvc	pc, #109, 0	; 0x6d
    9e78:	6c626973 			; <UNDEFINED> instruction: 0x6c626973
    9e7c:	66203a65 	strtvs	r3, [r0], -r5, ror #20
    9e80:	3c3d746d 	cfldrscc	mvf7, [sp], #-436	; 0xfffffe4c
    9e84:	0a3e7325 	beq	fa6b20 <__bss_end__+0xf9b598>
    9e88:	0000000a 	andeq	r0, r0, sl
    9e8c:	494e4150 	stmdbmi	lr, {r4, r6, r8, lr}^
    9e90:	73253a43 			; <UNDEFINED> instruction: 0x73253a43
    9e94:	3a73253a 	bcc	1cd3384 <__bss_end__+0x1cc7dfc>
    9e98:	663a6425 	ldrtvs	r6, [sl], -r5, lsr #8
    9e9c:	74616f6c 	strbtvc	r6, [r1], #-3948	; 0xfffff094
    9ea0:	746f6e20 	strbtvc	r6, [pc], #-3616	; 9ea8 <__FUNCTION__.3947+0xf0>
    9ea4:	616e6520 	cmnvs	lr, r0, lsr #10
    9ea8:	64656c62 	strbtvs	r6, [r5], #-3170	; 0xfffff39e
    9eac:	0a212121 	beq	852338 <__bss_end__+0x846db0>
    9eb0:	00000000 	andeq	r0, r0, r0
    9eb4:	6e697270 	mcrvs	2, 3, r7, cr9, cr0, {3}
    9eb8:	203a6b74 	eorscs	r6, sl, r4, ror fp
    9ebc:	20746f6e 	rsbscs	r6, r4, lr, ror #30
    9ec0:	646e6168 	strbtvs	r6, [lr], #-360	; 0xfffffe98
    9ec4:	676e696c 	strbvs	r6, [lr, -ip, ror #18]!
    9ec8:	65707320 	ldrbvs	r7, [r0, #-800]!	; 0xfffffce0
    9ecc:	69666963 	stmdbvs	r6!, {r0, r1, r5, r6, r8, fp, sp, lr}^
    9ed0:	27207265 	strcs	r7, [r0, -r5, ror #4]!
    9ed4:	20276325 	eorcs	r6, r7, r5, lsr #6
    9ed8:	63736128 	cmnvs	r3, #10
    9edc:	253d6969 	ldrcs	r6, [sp, #-2409]!	; 0xfffff697
    9ee0:	000a2964 	andeq	r2, sl, r4, ror #18
    9ee4:	494e4150 	stmdbmi	lr, {r4, r6, r8, lr}^
    9ee8:	73253a43 			; <UNDEFINED> instruction: 0x73253a43
    9eec:	3a73253a 	bcc	1cd33dc <__bss_end__+0x1cc7e54>
    9ef0:	703a6425 	eorsvc	r6, sl, r5, lsr #8
    9ef4:	746e6972 	strbtvc	r6, [lr], #-2418	; 0xfffff68e
    9ef8:	7265206b 	rsbvc	r2, r5, #107, 0	; 0x6b
    9efc:	0a726f72 	beq	1ca5ccc <__bss_end__+0x1c9a744>
    9f00:	0000000a 	andeq	r0, r0, sl

00009f04 <__FUNCTION__.4000>:
    9f04:	74696d65 	strbtvc	r6, [r9], #-3429	; 0xfffff29b
    9f08:	00000000 	andeq	r0, r0, r0

00009f0c <__FUNCTION__.3948>:
    9f0c:	5f697072 	svcpl	0x00697072
    9f10:	5f746573 	svcpl	0x00746573
    9f14:	7074756f 	rsbsvc	r7, r4, pc, ror #10
    9f18:	00007475 	andeq	r7, r0, r5, ror r4

00009f1c <__FUNCTION__.4026>:
    9f1c:	705f6176 	subsvc	r6, pc, r6, ror r1	; <UNPREDICTABLE>
    9f20:	746e6972 	strbtvc	r6, [lr], #-2418	; 0xfffff68e
    9f24:	0000006b 	andeq	r0, r0, fp, rrx
    9f28:	454e4f44 	strbmi	r4, [lr, #-3908]	; 0xfffff0bc
    9f2c:	0a212121 	beq	8523b8 <__bss_end__+0x846e30>
    9f30:	00000000 	andeq	r0, r0, r0
    9f34:	74732f2e 	ldrbtvc	r2, [r3], #-3886	; 0xfffff0d2
    9f38:	2d666661 	stclcs	6, cr6, [r6, #-388]!	; 0xfffffe7c
    9f3c:	2f637273 	svccs	0x00637273
    9f40:	61666564 	cmnvs	r6, r4, ror #10
    9f44:	2d746c75 	ldclcs	12, cr6, [r4, #-468]!	; 0xfffffe2c
    9f48:	646e6168 	strbtvs	r6, [lr], #-360	; 0xfffffe98
    9f4c:	2d72656c 	cfldr64cs	mvdx6, [r2, #-432]!	; 0xfffffe50
    9f50:	61746164 	cmnvs	r4, r4, ror #2
    9f54:	6f62612d 	svcvs	0x0062612d
    9f58:	632e7472 			; <UNDEFINED> instruction: 0x632e7472
    9f5c:	00000000 	andeq	r0, r0, r0
    9f60:	494e4150 	stmdbmi	lr, {r4, r6, r8, lr}^
    9f64:	73253a43 			; <UNDEFINED> instruction: 0x73253a43
    9f68:	3a73253a 	bcc	1cd3458 <__bss_end__+0x1cc7ed0>
    9f6c:	453a6425 	ldrmi	r6, [sl, #-1061]!	; 0xfffffbdb
    9f70:	524f5252 	subpl	r5, pc, #536870917	; 0x20000005
    9f74:	6e75203a 	mrcvs	0, 3, r2, cr5, cr10, {1}
    9f78:	646e6168 	strbtvs	r6, [lr], #-360	; 0xfffffe98
    9f7c:	2064656c 	rsbcs	r6, r4, ip, ror #10
    9f80:	65637865 	strbvs	r7, [r3, #-2149]!	; 0xfffff79b
    9f84:	6f697470 	svcvs	0x00697470
    9f88:	253c206e 	ldrcs	r2, [ip, #-110]!	; 0xffffff92
    9f8c:	61203e73 			; <UNDEFINED> instruction: 0x61203e73
    9f90:	43502074 	cmpmi	r0, #116, 0	; 0x74
    9f94:	0a78253d 	beq	1e13490 <__bss_end__+0x1e07f08>
    9f98:	0000000a 	andeq	r0, r0, sl
    9f9c:	61746164 	cmnvs	r4, r4, ror #2
    9fa0:	6f626120 	svcvs	0x00626120
    9fa4:	00007472 	andeq	r7, r0, r2, ror r4

00009fa8 <__FUNCTION__.3979>:
    9fa8:	61746164 	cmnvs	r4, r4, ror #2
    9fac:	6f62615f 	svcvs	0x0062615f
    9fb0:	765f7472 			; <UNDEFINED> instruction: 0x765f7472
    9fb4:	6f746365 	svcvs	0x00746365
    9fb8:	00000072 	andeq	r0, r0, r2, ror r0
    9fbc:	74732f2e 	ldrbtvc	r2, [r3], #-3886	; 0xfffff0d2
    9fc0:	2d666661 	stclcs	6, cr6, [r6, #-388]!	; 0xfffffe7c
    9fc4:	2f637273 	svccs	0x00637273
    9fc8:	61666564 	cmnvs	r6, r4, ror #10
    9fcc:	2d746c75 	ldclcs	12, cr6, [r4, #-468]!	; 0xfffffe2c
    9fd0:	646e6168 	strbtvs	r6, [lr], #-360	; 0xfffffe98
    9fd4:	2d72656c 	cfldr64cs	mvdx6, [r2, #-432]!	; 0xfffffe50
    9fd8:	74736166 	ldrbtvc	r6, [r3], #-358	; 0xfffffe9a
    9fdc:	0000632e 	andeq	r6, r0, lr, lsr #6
    9fe0:	74736166 	ldrbtvc	r6, [r3], #-358	; 0xfffffe9a
    9fe4:	00000000 	andeq	r0, r0, r0

00009fe8 <__FUNCTION__.3979>:
    9fe8:	74736166 	ldrbtvc	r6, [r3], #-358	; 0xfffffe9a
    9fec:	746e695f 	strbtvc	r6, [lr], #-2399	; 0xfffff6a1
    9ff0:	75727265 	ldrbvc	r7, [r2, #-613]!	; 0xfffffd9b
    9ff4:	765f7470 			; <UNDEFINED> instruction: 0x765f7470
    9ff8:	6f746365 	svcvs	0x00746365
    9ffc:	00000072 	andeq	r0, r0, r2, ror r0
    a000:	74732f2e 	ldrbtvc	r2, [r3], #-3886	; 0xfffff0d2
    a004:	2d666661 	stclcs	6, cr6, [r6, #-388]!	; 0xfffffe7c
    a008:	2f637273 	svccs	0x00637273
    a00c:	61666564 	cmnvs	r6, r4, ror #10
    a010:	2d746c75 	ldclcs	12, cr6, [r4, #-468]!	; 0xfffffe2c
    a014:	646e6168 	strbtvs	r6, [lr], #-360	; 0xfffffe98
    a018:	2d72656c 	cfldr64cs	mvdx6, [r2, #-432]!	; 0xfffffe50
    a01c:	66657270 			; <UNDEFINED> instruction: 0x66657270
    a020:	68637465 	stmdavs	r3!, {r0, r2, r5, r6, sl, ip, sp, lr}^
    a024:	0000632e 	andeq	r6, r0, lr, lsr #6
    a028:	66657270 			; <UNDEFINED> instruction: 0x66657270
    a02c:	68637465 	stmdavs	r3!, {r0, r2, r5, r6, sl, ip, sp, lr}^
    a030:	6f626120 	svcvs	0x00626120
    a034:	00007472 	andeq	r7, r0, r2, ror r4

0000a038 <__FUNCTION__.3979>:
    a038:	66657270 			; <UNDEFINED> instruction: 0x66657270
    a03c:	68637465 	stmdavs	r3!, {r0, r2, r5, r6, sl, ip, sp, lr}^
    a040:	6f62615f 	svcvs	0x0062615f
    a044:	765f7472 			; <UNDEFINED> instruction: 0x765f7472
    a048:	6f746365 	svcvs	0x00746365
    a04c:	00000072 	andeq	r0, r0, r2, ror r0
    a050:	74732f2e 	ldrbtvc	r2, [r3], #-3886	; 0xfffff0d2
    a054:	2d666661 	stclcs	6, cr6, [r6, #-388]!	; 0xfffffe7c
    a058:	2f637273 	svccs	0x00637273
    a05c:	61666564 	cmnvs	r6, r4, ror #10
    a060:	2d746c75 	ldclcs	12, cr6, [r4, #-468]!	; 0xfffffe2c
    a064:	646e6168 	strbtvs	r6, [lr], #-360	; 0xfffffe98
    a068:	2d72656c 	cfldr64cs	mvdx6, [r2, #-432]!	; 0xfffffe50
    a06c:	65736572 	ldrbvs	r6, [r3, #-1394]!	; 0xfffffa8e
    a070:	00632e74 	rsbeq	r2, r3, r4, ror lr
    a074:	65736572 	ldrbvs	r6, [r3, #-1394]!	; 0xfffffa8e
    a078:	00000074 	andeq	r0, r0, r4, ror r0

0000a07c <__FUNCTION__.3979>:
    a07c:	65736572 	ldrbvs	r6, [r3, #-1394]!	; 0xfffffa8e
    a080:	65765f74 	ldrbvs	r5, [r6, #-3956]!	; 0xfffff08c
    a084:	726f7463 	rsbvc	r7, pc, #1660944384	; 0x63000000
    a088:	00000000 	andeq	r0, r0, r0
    a08c:	74732f2e 	ldrbtvc	r2, [r3], #-3886	; 0xfffff0d2
    a090:	2d666661 	stclcs	6, cr6, [r6, #-388]!	; 0xfffffe7c
    a094:	2f637273 	svccs	0x00637273
    a098:	61666564 	cmnvs	r6, r4, ror #10
    a09c:	2d746c75 	ldclcs	12, cr6, [r4, #-468]!	; 0xfffffe2c
    a0a0:	646e6168 	strbtvs	r6, [lr], #-360	; 0xfffffe98
    a0a4:	2d72656c 	cfldr64cs	mvdx6, [r2, #-432]!	; 0xfffffe50
    a0a8:	65646e75 	strbvs	r6, [r4, #-3701]!	; 0xfffff18b
    a0ac:	656e6966 	strbvs	r6, [lr, #-2406]!	; 0xfffff69a
    a0b0:	6e692d64 	cdpvs	13, 6, cr2, cr9, cr4, {3}
    a0b4:	632e7473 			; <UNDEFINED> instruction: 0x632e7473
    a0b8:	00000000 	andeq	r0, r0, r0
    a0bc:	65646e75 	strbvs	r6, [r4, #-3701]!	; 0xfffff18b
    a0c0:	656e6966 	strbvs	r6, [lr, #-2406]!	; 0xfffff69a
    a0c4:	6e692064 	cdpvs	0, 6, cr2, cr9, cr4, {3}
    a0c8:	00007473 	andeq	r7, r0, r3, ror r4

0000a0cc <__FUNCTION__.3979>:
    a0cc:	65646e75 	strbvs	r6, [r4, #-3701]!	; 0xfffff18b
    a0d0:	656e6966 	strbvs	r6, [lr, #-2406]!	; 0xfffff69a
    a0d4:	6e695f64 	cdpvs	15, 6, cr5, cr9, cr4, {3}
    a0d8:	75727473 	ldrbvc	r7, [r2, #-1139]!	; 0xfffffb8d
    a0dc:	6f697463 	svcvs	0x00697463
    a0e0:	65765f6e 	ldrbvs	r5, [r6, #-3950]!	; 0xfffff092
    a0e4:	726f7463 	rsbvc	r7, pc, #1660944384	; 0x63000000
    a0e8:	00000000 	andeq	r0, r0, r0
    a0ec:	6f697067 	svcvs	0x00697067
    a0f0:	6475702d 	ldrbtvs	r7, [r5], #-45	; 0xffffffd3
    a0f4:	0000632e 	andeq	r6, r0, lr, lsr #6
    a0f8:	4f525245 	svcmi	0x00525245
    a0fc:	73253a52 			; <UNDEFINED> instruction: 0x73253a52
    a100:	3a73253a 	bcc	1cd35f0 <__bss_end__+0x1cc8068>
    a104:	203a6425 	eorscs	r6, sl, r5, lsr #8
    a108:	534c4146 	movtpl	r4, #49478	; 0xc146
    a10c:	253c2845 	ldrcs	r2, [ip, #-2117]!	; 0xfffff7bb
    a110:	3a293e73 	bcc	a59ae4 <__bss_end__+0xa4e55c>
    a114:	6e697020 	cdpvs	0, 6, cr7, cr9, cr0, {1}
    a118:	6f6f7420 	svcvs	0x006f7420
    a11c:	72616c20 	rsbvc	r6, r1, #32, 24	; 0x2000
    a120:	000a6567 	andeq	r6, sl, r7, ror #10
    a124:	206e6970 	rsbcs	r6, lr, r0, ror r9
    a128:	3233203c 	eorscc	r2, r3, #60, 0	; 0x3c
    a12c:	00000000 	andeq	r0, r0, r0
    a130:	4f525245 	svcmi	0x00525245
    a134:	73253a52 			; <UNDEFINED> instruction: 0x73253a52
    a138:	3a73253a 	bcc	1cd3628 <__bss_end__+0x1cc80a0>
    a13c:	203a6425 	eorscs	r6, sl, r5, lsr #8
    a140:	534c4146 	movtpl	r4, #49478	; 0xc146
    a144:	253c2845 	ldrcs	r2, [ip, #-2117]!	; 0xfffff7bb
    a148:	3a293e73 	bcc	a59b1c <__bss_end__+0xa4e594>
    a14c:	64757020 	ldrbtvs	r7, [r5], #-32	; 0xffffffe0
    a150:	6f6f7420 	svcvs	0x006f7420
    a154:	72616c20 	rsbvc	r6, r1, #32, 24	; 0x2000
    a158:	000a6567 	andeq	r6, sl, r7, ror #10
    a15c:	20647570 	rsbcs	r7, r4, r0, ror r5
    a160:	0034203c 	eorseq	r2, r4, ip, lsr r0

0000a164 <__FUNCTION__.0>:
    a164:	6f697067 	svcvs	0x00697067
    a168:	7465735f 	strbtvc	r7, [r5], #-863	; 0xfffffca1
    a16c:	6475705f 	ldrbtvs	r7, [r5], #-95	; 0xffffffa1
	...

Disassembly of section .data:

0000a174 <putk>:
    a174:	00008ce0 	andeq	r8, r0, r0, ror #25

0000a178 <rpi_putchar>:
    a178:	00009aa8 	andeq	r9, r0, r8, lsr #21

Disassembly of section .bss:

0000a17c <__bss_start__>:
    a17c:	00000000 	andeq	r0, r0, r0

0000a180 <last_val.4090>:
    a180:	00000000 	andeq	r0, r0, r0

0000a184 <int_readings_n>:
    a184:	00000000 	andeq	r0, r0, r0

0000a188 <int_readings>:
	...

0000a988 <r.4101>:
	...

0000b188 <buf.3940>:
	...

Disassembly of section .ARM.attributes:

00000000 <.ARM.attributes>:
   0:	00002a41 	andeq	r2, r0, r1, asr #20
   4:	61656100 	cmnvs	r5, r0, lsl #2
   8:	01006962 	tsteq	r0, r2, ror #18
   c:	00000020 	andeq	r0, r0, r0, lsr #32
  10:	4b5a3605 	blmi	168d82c <__bss_end__+0x16822a4>
  14:	08070600 	stmdaeq	r7, {r9, sl}
  18:	12010901 	andne	r0, r1, #16384	; 0x4000
  1c:	15011404 	strne	r1, [r1, #-1028]	; 0xfffffbfc
  20:	18031701 	stmdane	r3, {r0, r8, r9, sl, ip}
  24:	22011a01 	andcs	r1, r1, #4096	; 0x1000
  28:	Address 0x0000000000000028 is out of bounds.


Disassembly of section .comment:

00000000 <.comment>:
   0:	3a434347 	bcc	10d0d24 <__bss_end__+0x10c579c>
   4:	4e472820 	cdpmi	8, 4, cr2, cr7, cr0, {1}
   8:	6f542055 	svcvs	0x00542055
   c:	20736c6f 	rsbscs	r6, r3, pc, ror #24
  10:	20726f66 	rsbscs	r6, r2, r6, ror #30
  14:	206d7241 	rsbcs	r7, sp, r1, asr #4
  18:	65626d45 	strbvs	r6, [r2, #-3397]!	; 0xfffff2bb
  1c:	64656464 	strbtvs	r6, [r5], #-1124	; 0xfffffb9c
  20:	6f725020 	svcvs	0x00725020
  24:	73736563 	cmnvc	r3, #415236096	; 0x18c00000
  28:	2073726f 	rsbscs	r7, r3, pc, ror #4
  2c:	30322d39 	eorscc	r2, r2, r9, lsr sp
  30:	712d3931 			; <UNDEFINED> instruction: 0x712d3931
  34:	616d2d34 	cmnvs	sp, r4, lsr sp
  38:	29726f6a 	ldmdbcs	r2!, {r1, r3, r5, r6, r8, r9, sl, fp, sp, lr}^
  3c:	322e3920 	eorcc	r3, lr, #32, 18	; 0x80000
  40:	3220312e 	eorcc	r3, r0, #-2147483637	; 0x8000000b
  44:	31393130 	teqcc	r9, r0, lsr r1
  48:	20353230 	eorscs	r3, r5, r0, lsr r2
  4c:	6c657228 	sfmvs	f7, 2, [r5], #-160	; 0xffffff60
  50:	65736165 	ldrbvs	r6, [r3, #-357]!	; 0xfffffe9b
  54:	415b2029 	cmpmi	fp, r9, lsr #32
  58:	612f4d52 			; <UNDEFINED> instruction: 0x612f4d52
  5c:	392d6d72 	pushcc	{r1, r4, r5, r6, r8, sl, fp, sp, lr}
  60:	6172622d 	cmnvs	r2, sp, lsr #4
  64:	2068636e 	rsbcs	r6, r8, lr, ror #6
  68:	69766572 	ldmdbvs	r6!, {r1, r4, r5, r6, r8, sl, sp, lr}^
  6c:	6e6f6973 			; <UNDEFINED> instruction: 0x6e6f6973
  70:	37373220 	ldrcc	r3, [r7, -r0, lsr #4]!
  74:	5d393935 			; <UNDEFINED> instruction: 0x5d393935
  78:	43434700 	movtmi	r4, #14080	; 0x3700
  7c:	4728203a 			; <UNDEFINED> instruction: 0x4728203a
  80:	4120554e 			; <UNDEFINED> instruction: 0x4120554e
  84:	45206d72 	strmi	r6, [r0, #-3442]!	; 0xfffff28e
  88:	6465626d 	strbtvs	r6, [r5], #-621	; 0xfffffd93
  8c:	20646564 	rsbcs	r6, r4, r4, ror #10
  90:	6c6f6f54 	stclvs	15, cr6, [pc], #-336	; ffffff48 <__bss_end__+0xffff49c0>
  94:	69616863 	stmdbvs	r1!, {r0, r1, r5, r6, fp, sp, lr}^
  98:	3031206e 	eorscc	r2, r1, lr, rrx
  9c:	322d332e 	eorcc	r3, sp, #-1207959552	; 0xb8000000
  a0:	2e313230 	mrccs	2, 1, r3, cr1, cr0, {1}
  a4:	20293031 	eorcs	r3, r9, r1, lsr r0
  a8:	332e3031 			; <UNDEFINED> instruction: 0x332e3031
  ac:	3220312e 	eorcc	r3, r0, #-2147483637	; 0x8000000b
  b0:	30313230 	eorscc	r3, r1, r0, lsr r2
  b4:	20343238 	eorscs	r3, r4, r8, lsr r2
  b8:	6c657228 	sfmvs	f7, 2, [r5], #-160	; 0xffffff60
  bc:	65736165 	ldrbvs	r6, [r3, #-357]!	; 0xfffffe9b
  c0:	Address 0x00000000000000c0 is out of bounds.


Disassembly of section .debug_info:

00000000 <.debug_info>:
       0:	00000fe8 	andeq	r0, r0, r8, ror #31
       4:	00000004 	andeq	r0, r0, r4
       8:	01040000 	mrseq	r0, (UNDEF: 4)
       c:	000001bb 			; <UNDEFINED> instruction: 0x000001bb
      10:	0002bd0c 	andeq	fp, r2, ip, lsl #26
      14:	00000000 	andeq	r0, r0, r0
      18:	00803800 	addeq	r3, r0, r0, lsl #16
      1c:	00085800 	andeq	r5, r8, r0, lsl #16
      20:	00000000 	andeq	r0, r0, r0
      24:	05040200 	streq	r0, [r4, #-512]	; 0xfffffe00
      28:	00746e69 	rsbseq	r6, r4, r9, ror #28
      2c:	66070403 	strvs	r0, [r7], -r3, lsl #8
      30:	03000001 	movweq	r0, #1
      34:	01170601 	tsteq	r7, r1, lsl #12
      38:	02030000 	andeq	r0, r3, #0, 0
      3c:	00004305 	andeq	r4, r0, r5, lsl #6
      40:	05040300 	streq	r0, [r4, #-768]	; 0xfffffd00
      44:	000000cc 	andeq	r0, r0, ip, asr #1
      48:	c7050803 	strgt	r0, [r5, -r3, lsl #16]
      4c:	03000000 	movweq	r0, #0
      50:	01150801 	tsteq	r5, r1, lsl #16
      54:	02030000 	andeq	r0, r3, #0, 0
      58:	00018407 	andeq	r8, r1, r7, lsl #8
      5c:	01730400 	cmneq	r3, r0, lsl #8
      60:	34030000 	strcc	r0, [r3], #-0
      64:	00006919 	andeq	r6, r0, r9, lsl r9
      68:	07040300 	streq	r0, [r4, -r0, lsl #6]
      6c:	00000161 	andeq	r0, r0, r1, ror #2
      70:	5c070803 	stcpl	8, cr0, [r7], {3}
      74:	05000001 	streq	r0, [r0, #-1]
      78:	00000025 	andeq	r0, r0, r5, lsr #32
      7c:	00000086 	andeq	r0, r0, r6, lsl #1
      80:	00002506 	andeq	r2, r0, r6, lsl #10
      84:	5e070000 	cdppl	0, 0, cr0, cr7, cr0, {0}
      88:	02000000 	andeq	r0, r0, #0, 0
      8c:	00920e1c 	addseq	r0, r2, ip, lsl lr
      90:	04080000 	streq	r0, [r8], #-0
      94:	00000077 	andeq	r0, r0, r7, ror r0
      98:	00002505 	andeq	r2, r0, r5, lsl #10
      9c:	0000a700 	andeq	sl, r0, r0, lsl #14
      a0:	00a70600 	adceq	r0, r7, r0, lsl #12
      a4:	08000000 	stmdaeq	r0, {}	; <UNPREDICTABLE>
      a8:	0000b404 	andeq	fp, r0, r4, lsl #8
      ac:	08010300 	stmdaeq	r1, {r8, r9}
      b0:	0000011e 	andeq	r0, r0, lr, lsl r1
      b4:	0000ad09 	andeq	sl, r0, r9, lsl #26
      b8:	05680700 	strbeq	r0, [r8, #-1792]!	; 0xfffff900
      bc:	21020000 	mrscs	r0, (UNDEF: 2)
      c0:	0000c50e 	andeq	ip, r0, lr, lsl #10
      c4:	98040800 	stmdals	r4, {fp}
      c8:	0a000000 	beq	d0 <__code_start__-0x7f30>
      cc:	000000d9 	ldrdeq	r0, [r0], -r9
      d0:	10120108 	andsne	r0, r2, r8, lsl #2
      d4:	000000f1 	strdeq	r0, [r0], -r1
      d8:	0001b60b 	andeq	fp, r1, fp, lsl #12
      dc:	24120100 	ldrcs	r0, [r2], #-256	; 0xffffff00
      e0:	0000002c 	andeq	r0, r0, ip, lsr #32
      e4:	00760c00 	rsbseq	r0, r6, r0, lsl #24
      e8:	2c2a1201 	sfmcs	f1, 4, [sl], #-4
      ec:	04000000 	streq	r0, [r0], #-0
      f0:	02700400 	rsbseq	r0, r0, #0, 8
      f4:	12010000 	andne	r0, r1, #0, 0
      f8:	0000cb2f 	andeq	ip, r0, pc, lsr #22
      fc:	00910d00 	addseq	r0, r1, r0, lsl #26
     100:	bd010000 	stclt	0, cr0, [r1, #-0]
     104:	00002c11 	andeq	r2, r0, r1, lsl ip
     108:	84030500 	strhi	r0, [r3], #-1280	; 0xfffffb00
     10c:	0e0000a1 	cdpeq	0, 0, cr0, cr0, cr1, {5}
     110:	000000f1 	strdeq	r0, [r0], -r1
     114:	0000011f 	andeq	r0, r0, pc, lsl r1
     118:	00002c0f 	andeq	r2, r0, pc, lsl #24
     11c:	0d00ff00 	stceq	15, cr15, [r0, #-0]
     120:	0000032a 	andeq	r0, r0, sl, lsr #6
     124:	0f10be01 	svceq	0x0010be01
     128:	05000001 	streq	r0, [r0, #-1]
     12c:	00a18803 	adceq	r8, r1, r3, lsl #16
     130:	017c1000 	cmneq	ip, r0
     134:	29010000 	stmdbcs	r1, {}	; <UNPREDICTABLE>
     138:	88880601 	stmhi	r8, {r0, r9, sl}
     13c:	00080000 	andeq	r0, r8, r0
     140:	9c010000 	stcls	0, cr0, [r1], {-0}
     144:	00000152 	andeq	r0, r0, r2, asr r1
     148:	00889011 	addeq	r9, r8, r1, lsl r0
     14c:	00020e00 	andeq	r0, r2, r0, lsl #28
     150:	97120000 	ldrls	r0, [r2, -r0]
     154:	01000001 	tsteq	r0, r1
     158:	3c06011e 	stfccs	f0, [r6], {30}
     15c:	4c000088 	stcmi	0, cr0, [r0], {136}	; 0x88
     160:	01000000 	mrseq	r0, (UNDEF: 0)
     164:	00020e9c 	muleq	r2, ip, lr
     168:	88481300 	stmdahi	r8, {r8, r9, ip}^
     16c:	00400000 	subeq	r0, r0, r0
     170:	01fe0000 	mvnseq	r0, r0
     174:	69140000 	ldmdbvs	r4, {}	; <UNPREDICTABLE>
     178:	01210100 			; <UNDEFINED> instruction: 0x01210100
     17c:	0000250d 	andeq	r2, r0, sp, lsl #10
     180:	00000400 	andeq	r0, r0, r0, lsl #8
     184:	00000000 	andeq	r0, r0, r0
     188:	88541500 	ldmdahi	r4, {r8, sl, ip}^
     18c:	00280000 	eoreq	r0, r8, r0
     190:	8d160000 	ldchi	0, cr0, [r6, #-0]
     194:	01000002 	tsteq	r0, r2
     198:	2c120122 	ldfcss	f0, [r2], {34}	; 0x22
     19c:	2b000000 	blcs	1a4 <__code_start__-0x7e5c>
     1a0:	23000000 	movwcs	r0, #0
     1a4:	17000000 	strne	r0, [r0, -r0]
     1a8:	00008868 	andeq	r8, r0, r8, ror #16
     1ac:	00000f2b 	andeq	r0, r0, fp, lsr #30
     1b0:	000001d3 	ldrdeq	r0, [r0], -r3
     1b4:	05500118 	ldrbeq	r0, [r0, #-280]	; 0xfffffee8
     1b8:	009d4003 	addseq	r4, sp, r3
     1bc:	51011800 	tstpl	r1, r0, lsl #16
     1c0:	36007411 			; <UNDEFINED> instruction: 0x36007411
     1c4:	22007424 	andcs	r7, r0, #36, 8	; 0x24000000
     1c8:	00742431 	rsbseq	r2, r4, r1, lsr r4
     1cc:	74243322 	strtvc	r3, [r4], #-802	; 0xfffffcde
     1d0:	17001c00 	strne	r1, [r0, -r0, lsl #24]
     1d4:	00008874 	andeq	r8, r0, r4, ror r8
     1d8:	00000d41 	andeq	r0, r0, r1, asr #26
     1dc:	000001ec 	andeq	r0, r0, ip, ror #3
     1e0:	01500118 	cmpeq	r0, r8, lsl r1
     1e4:	51011835 	tstpl	r1, r5, lsr r8
     1e8:	00007402 	andeq	r7, r0, r2, lsl #8
     1ec:	00887c19 	addeq	r7, r8, r9, lsl ip
     1f0:	000f3700 	andeq	r3, pc, r0, lsl #14
     1f4:	50011800 	andpl	r1, r1, r0, lsl #16
     1f8:	00c80802 	sbceq	r0, r8, r2, lsl #16
     1fc:	48190000 	ldmdami	r9, {}	; <UNPREDICTABLE>
     200:	43000088 	movwmi	r0, #136	; 0x88
     204:	1800000f 	stmdane	r0, {r0, r1, r2, r3}
     208:	35015001 	strcc	r5, [r1, #-1]
     20c:	dc1a0000 	ldcle	0, cr0, [sl], {-0}
     210:	01000002 	tsteq	r0, r2
     214:	876806f7 			; <UNDEFINED> instruction: 0x876806f7
     218:	00d40000 	sbcseq	r0, r4, r0
     21c:	9c010000 	stcls	0, cr0, [r1], {-0}
     220:	000003a0 	andeq	r0, r0, r0, lsr #7
     224:	006e691b 	rsbeq	r6, lr, fp, lsl r9
     228:	2509f801 	strcs	pc, [r9, #-2049]	; 0xfffff7ff
     22c:	15000000 	strne	r0, [r0, #-0]
     230:	0000681c 	andeq	r6, r0, ip, lsl r8
     234:	00032e00 	andeq	r2, r3, r0, lsl #28
     238:	00781400 	rsbseq	r1, r8, r0, lsl #8
     23c:	12011101 	andne	r1, r1, #1073741824	; 0x40000000
     240:	0000002c 	andeq	r0, r0, ip, lsr #32
     244:	0000008e 	andeq	r0, r0, lr, lsl #1
     248:	0000008c 	andeq	r0, r0, ip, lsl #1
     24c:	79656b14 	stmdbvc	r5!, {r2, r4, r8, r9, fp, sp, lr}^
     250:	01130100 	tsteq	r3, r0, lsl #2
     254:	0000a715 	andeq	sl, r0, r5, lsl r7
     258:	0000a500 	andeq	sl, r0, r0, lsl #10
     25c:	0000a100 	andeq	sl, r0, r0, lsl #2
     260:	87a81700 	strhi	r1, [r8, r0, lsl #14]!
     264:	0f2b0000 	svceq	0x002b0000
     268:	02780000 	rsbseq	r0, r8, #0, 0
     26c:	01180000 	tsteq	r8, r0
     270:	30030550 	andcc	r0, r3, r0, asr r5
     274:	0000009d 	muleq	r0, sp, r0
     278:	0087b817 	addeq	fp, r7, r7, lsl r8
     27c:	0006da00 	andeq	sp, r6, r0, lsl #20
     280:	00028c00 	andeq	r8, r2, r0, lsl #24
     284:	50011800 	andpl	r1, r1, r0, lsl #16
     288:	000c7402 	andeq	r7, ip, r2, lsl #8
     28c:	0087c817 	addeq	ip, r7, r7, lsl r8
     290:	000f2b00 	andeq	r2, pc, r0, lsl #22
     294:	0002a900 	andeq	sl, r2, r0, lsl #18
     298:	50011800 	andpl	r1, r1, r0, lsl #16
     29c:	9d140305 	ldcls	3, cr0, [r4, #-20]	; 0xffffffec
     2a0:	01180000 	tsteq	r8, r0
     2a4:	00740251 	rsbseq	r0, r4, r1, asr r2
     2a8:	87d01700 	ldrbhi	r1, [r0, r0, lsl #14]
     2ac:	0efe0000 	cdpeq	0, 15, cr0, cr14, cr0, {0}
     2b0:	02bd0000 	adcseq	r0, sp, #0, 0
     2b4:	01180000 	tsteq	r8, r0
     2b8:	00740250 	rsbseq	r0, r4, r0, asr r2
     2bc:	87e01700 	strbhi	r1, [r0, r0, lsl #14]!
     2c0:	0f2b0000 	svceq	0x002b0000
     2c4:	02d40000 	sbcseq	r0, r4, #0, 0
     2c8:	01180000 	tsteq	r8, r0
     2cc:	28030550 	stmdacs	r3, {r4, r6, r8, sl}
     2d0:	0000009d 	muleq	r0, sp, r0
     2d4:	0087f417 	addeq	pc, r7, r7, lsl r4	; <UNPREDICTABLE>
     2d8:	000f3700 	andeq	r3, pc, r0, lsl #14
     2dc:	0002e900 	andeq	lr, r2, r0, lsl #18
     2e0:	50011800 	andpl	r1, r1, r0, lsl #16
     2e4:	03e80a03 	mvneq	r0, #12288	; 0x3000
     2e8:	88001700 	stmdahi	r0, {r8, r9, sl, ip}
     2ec:	0d410000 	stcleq	0, cr0, [r1, #-0]
     2f0:	03060000 	movweq	r0, #24576	; 0x6000
     2f4:	01180000 	tsteq	r8, r0
     2f8:	18350150 	ldmdane	r5!, {r4, r6, r8}
     2fc:	11065101 	tstne	r6, r1, lsl #2
     300:	f5b6fdef 			; <UNDEFINED> instruction: 0xf5b6fdef
     304:	0c17007d 	ldceq	0, cr0, [r7], {125}	; 0x7d
     308:	50000088 	andpl	r0, r0, r8, lsl #1
     30c:	1a00000a 	bne	33c <__code_start__-0x7cc4>
     310:	18000003 	stmdane	r0, {r0, r1}
     314:	74025001 	strvc	r5, [r2], #-1
     318:	1c19000c 	ldcne	0, cr0, [r9], {12}
     31c:	2b000088 	blcs	544 <__code_start__-0x7abc>
     320:	1800000f 	stmdane	r0, {r0, r1, r2, r3}
     324:	03055001 	movweq	r5, #20481	; 0x5001
     328:	00009d2c 	andeq	r9, r0, ip, lsr #26
     32c:	74170000 	ldrvc	r0, [r7], #-0
     330:	ba000087 	blt	554 <__code_start__-0x7aac>
     334:	41000005 	tstmi	r0, r5
     338:	18000003 	stmdane	r0, {r0, r1}
     33c:	45015001 	strmi	r5, [r1, #-1]
     340:	87781100 	ldrbhi	r1, [r8, -r0, lsl #2]!
     344:	0f4f0000 	svceq	0x004f0000
     348:	80170000 	andshi	r0, r7, r0
     34c:	5b000087 	blpl	570 <__code_start__-0x7a90>
     350:	5d00000f 	stcpl	0, cr0, [r0, #-60]	; 0xffffffc4
     354:	18000003 	stmdane	r0, {r0, r1}
     358:	45015001 	strmi	r5, [r1, #-1]
     35c:	87881700 	strhi	r1, [r8, r0, lsl #14]
     360:	0f670000 	svceq	0x00670000
     364:	03700000 	cmneq	r0, #0, 0
     368:	01180000 	tsteq	r8, r0
     36c:	00450150 	subeq	r0, r5, r0, asr r1
     370:	00878c11 	addeq	r8, r7, r1, lsl ip
     374:	000f7300 	andeq	r7, pc, r0, lsl #6
     378:	87941700 	ldrhi	r1, [r4, r0, lsl #14]
     37c:	0f430000 	svceq	0x00430000
     380:	038c0000 	orreq	r0, ip, #0, 0
     384:	01180000 	tsteq	r8, r0
     388:	00350150 	eorseq	r0, r5, r0, asr r1
     38c:	00879c19 	addeq	r9, r7, r9, lsl ip
     390:	000f2b00 	andeq	r2, pc, r0, lsl #22
     394:	50011800 	andpl	r1, r1, r0, lsl #16
     398:	9ce40305 	stclls	3, cr0, [r4], #20
     39c:	00000000 	andeq	r0, r0, r0
     3a0:	0000b51d 	andeq	fp, r0, sp, lsl r5
     3a4:	06da0100 	ldrbeq	r0, [sl], r0, lsl #2
     3a8:	000086d8 	ldrdeq	r8, [r0], -r8	; <UNPREDICTABLE>
     3ac:	00000090 	muleq	r0, r0, r0
     3b0:	04e79c01 	strbteq	r9, [r7], #3073	; 0xc01
     3b4:	691b0000 	ldmdbvs	fp, {}	; <UNPREDICTABLE>
     3b8:	db01006e 	blle	40578 <__bss_end__+0x34ff0>
     3bc:	00002509 	andeq	r2, r0, r9, lsl #10
     3c0:	ec131500 	cfldr32	mvfx1, [r3], {-0}
     3c4:	7c000086 	stcvc	0, cr0, [r0], {134}	; 0x86
     3c8:	c0000000 	andgt	r0, r0, r0
     3cc:	1e000004 	cdpne	0, 0, cr0, cr0, cr4, {0}
     3d0:	e5010072 	str	r0, [r1, #-114]	; 0xffffff8e
     3d4:	0004e720 	andeq	lr, r4, r0, lsr #14
     3d8:	88030500 	stmdahi	r3, {r8, sl}
     3dc:	1f0000a9 	svcne	0x000000a9
     3e0:	e601006e 	str	r0, [r1], -lr, rrx
     3e4:	0000250d 	andeq	r2, r0, sp, lsl #10
     3e8:	0000c700 	andeq	ip, r0, r0, lsl #14
     3ec:	0000c300 	andeq	ip, r0, r0, lsl #6
     3f0:	00781f00 	rsbseq	r1, r8, r0, lsl #30
     3f4:	2c12ea01 			; <UNDEFINED> instruction: 0x2c12ea01
     3f8:	eb000000 	bl	400 <__code_start__-0x7c00>
     3fc:	e5000000 	str	r0, [r0, #-0]
     400:	1f000000 	svcne	0x00000000
     404:	0079656b 	rsbseq	r6, r9, fp, ror #10
     408:	a715ec01 	ldrge	lr, [r5, -r1, lsl #24]
     40c:	18000000 	stmdane	r0, {}	; <UNPREDICTABLE>
     410:	14000001 	strne	r0, [r0], #-1
     414:	17000001 	strne	r0, [r0, -r1]
     418:	000086f4 	strdeq	r8, [r0], -r4
     41c:	00000f7f 	andeq	r0, r0, pc, ror pc
     420:	0000042a 	andeq	r0, r0, sl, lsr #8
     424:	01500118 	cmpeq	r0, r8, lsl r1
     428:	10170045 	andsne	r0, r7, r5, asr #32
     42c:	0b000087 	bleq	650 <__code_start__-0x79b0>
     430:	4a000006 	bmi	450 <__code_start__-0x7bb0>
     434:	18000004 	stmdane	r0, {r2}
     438:	45015001 	strmi	r5, [r1, #-1]
     43c:	02510118 	subseq	r0, r1, #6
     440:	01180075 	tsteq	r8, r5, ror r0
     444:	000a0352 	andeq	r0, sl, r2, asr r3
     448:	1c170001 	ldcne	0, cr0, [r7], {1}
     44c:	2b000087 	blcs	670 <__code_start__-0x7990>
     450:	6100000f 	tstvs	r0, pc
     454:	18000004 	stmdane	r0, {r2}
     458:	03055001 	movweq	r5, #20481	; 0x5001
     45c:	00009cfc 	strdeq	r9, [r0], -ip
     460:	87281700 	strhi	r1, [r8, -r0, lsl #14]!
     464:	06da0000 	ldrbeq	r0, [sl], r0
     468:	047b0000 	ldrbteq	r0, [fp], #-0
     46c:	01180000 	tsteq	r8, r0
     470:	00750250 	rsbseq	r0, r5, r0, asr r2
     474:	02510118 	subseq	r0, r1, #6
     478:	17000074 	smlsdxne	r0, r4, r0, r0
     47c:	00008738 	andeq	r8, r0, r8, lsr r7
     480:	00000f2b 	andeq	r0, r0, fp, lsr #30
     484:	00000498 	muleq	r0, r8, r4
     488:	05500118 	ldrbeq	r0, [r0, #-280]	; 0xfffffee8
     48c:	009d1403 	addseq	r1, sp, r3, lsl #8
     490:	51011800 	tstpl	r1, r0, lsl #16
     494:	00007402 	andeq	r7, r0, r2, lsl #8
     498:	00874017 	addeq	r4, r7, r7, lsl r0
     49c:	000efe00 	andeq	pc, lr, r0, lsl #28
     4a0:	0004ac00 	andeq	sl, r4, r0, lsl #24
     4a4:	50011800 	andpl	r1, r1, r0, lsl #16
     4a8:	00007402 	andeq	r7, r0, r2, lsl #8
     4ac:	00875019 	addeq	r5, r7, r9, lsl r0
     4b0:	000f2b00 	andeq	r2, pc, r0, lsl #22
     4b4:	50011800 	andpl	r1, r1, r0, lsl #16
     4b8:	9d280305 	stcls	3, cr0, [r8, #-20]!	; 0xffffffec
     4bc:	00000000 	andeq	r0, r0, r0
     4c0:	0086e417 	addeq	lr, r6, r7, lsl r4
     4c4:	0005ba00 	andeq	fp, r5, r0, lsl #20
     4c8:	0004d300 	andeq	sp, r4, r0, lsl #6
     4cc:	50011800 	andpl	r1, r1, r0, lsl #16
     4d0:	19004501 	stmdbne	r0, {r0, r8, sl, lr}
     4d4:	000086ec 	andeq	r8, r0, ip, ror #13
     4d8:	00000f2b 	andeq	r0, r0, fp, lsr #30
     4dc:	05500118 	ldrbeq	r0, [r0, #-280]	; 0xfffffee8
     4e0:	009ce403 	addseq	lr, ip, r3, lsl #8
     4e4:	0e000000 	cdpeq	0, 0, cr0, cr0, cr0, {0}
     4e8:	000000cb 	andeq	r0, r0, fp, asr #1
     4ec:	000004f7 	strdeq	r0, [r0], -r7
     4f0:	00002c0f 	andeq	r2, r0, pc, lsl #24
     4f4:	1d00ff00 	stcne	15, cr15, [r0, #-0]
     4f8:	0000076f 	andeq	r0, r0, pc, ror #14
     4fc:	5406c001 	strpl	ip, [r6], #-1
     500:	84000086 	strhi	r0, [r0], #-134	; 0xffffff7a
     504:	01000000 	mrseq	r0, (UNDEF: 0)
     508:	0005ba9c 	muleq	r5, ip, sl
     50c:	63702000 	cmnvs	r0, #0, 0
     510:	20c00100 	sbccs	r0, r0, r0, lsl #2
     514:	0000002c 	andeq	r0, r0, ip, lsr #32
     518:	0000013a 	andeq	r0, r0, sl, lsr r1
     51c:	00000136 	andeq	r0, r0, r6, lsr r1
     520:	0001a20d 	andeq	sl, r1, sp, lsl #4
     524:	15c10100 	strbne	r0, [r1, #256]	; 0x100
     528:	0000002c 	andeq	r0, r0, ip, lsr #32
     52c:	a17c0305 	cmnge	ip, r5, lsl #6
     530:	d30d0000 	movwle	r0, #53248	; 0xd000
     534:	01000002 	tsteq	r0, r2
     538:	002c15c2 	eoreq	r1, ip, r2, asr #11
     53c:	03050000 	movweq	r0, #20480	; 0x5000
     540:	0000a180 	andeq	sl, r0, r0, lsl #3
     544:	776f6e1f 			; <UNDEFINED> instruction: 0x776f6e1f
     548:	0ec40100 	poleqs	f0, f4, f0
     54c:	0000002c 	andeq	r0, r0, ip, lsr #32
     550:	0000015f 	andeq	r0, r0, pc, asr r1
     554:	0000015b 	andeq	r0, r0, fp, asr r1
     558:	6c61761f 	stclvs	6, cr7, [r1], #-124	; 0xffffff84
     55c:	0ec50100 	poleqs	f0, f5, f0
     560:	0000002c 	andeq	r0, r0, ip, lsr #32
     564:	00000181 	andeq	r0, r0, r1, lsl #3
     568:	0000017d 	andeq	r0, r0, sp, ror r1
     56c:	00869413 	addeq	r9, r6, r3, lsl r4
     570:	00003000 	andeq	r3, r0, r0
     574:	00058e00 	andeq	r8, r5, r0, lsl #28
     578:	01522100 	cmpeq	r2, r0, lsl #2
     57c:	d0010000 	andle	r0, r1, r0
     580:	00002c12 	andeq	r2, r0, r2, lsl ip
     584:	0001a100 	andeq	sl, r1, r0, lsl #2
     588:	00019f00 	andeq	r9, r1, r0, lsl #30
     58c:	5c110000 	ldcpl	0, cr0, [r1], {-0}
     590:	8b000086 	blhi	7b0 <__code_start__-0x7850>
     594:	1700000f 	strne	r0, [r0, -pc]
     598:	00008668 	andeq	r8, r0, r8, ror #12
     59c:	00000f7f 	andeq	r0, r0, pc, ror pc
     5a0:	000005aa 	andeq	r0, r0, sl, lsr #11
     5a4:	01500118 	cmpeq	r0, r8, lsl r1
     5a8:	74190045 	ldrvc	r0, [r9], #-69	; 0xffffffbb
     5ac:	97000086 	strls	r0, [r0, -r6, lsl #1]
     5b0:	1800000f 	stmdane	r0, {r0, r1, r2, r3}
     5b4:	45015001 	strmi	r5, [r1, #-1]
     5b8:	7a220000 	bvc	8805c0 <__bss_end__+0x875038>
     5bc:	01000000 	mrseq	r0, (UNDEF: 0)
     5c0:	002505b6 	strhteq	r0, [r5], -r6
     5c4:	86380000 	ldrthi	r0, [r8], -r0
     5c8:	001c0000 	andseq	r0, ip, r0
     5cc:	9c010000 	stcls	0, cr0, [r1], {-0}
     5d0:	0000060b 	andeq	r0, r0, fp, lsl #12
     5d4:	0002cd23 	andeq	ip, r2, r3, lsr #26
     5d8:	13b60100 			; <UNDEFINED> instruction: 0x13b60100
     5dc:	00000025 	andeq	r0, r0, r5, lsr #32
     5e0:	000001b8 			; <UNDEFINED> instruction: 0x000001b8
     5e4:	000001b4 			; <UNDEFINED> instruction: 0x000001b4
     5e8:	00864417 	addeq	r4, r6, r7, lsl r4
     5ec:	000fa300 	andeq	sl, pc, r0, lsl #6
     5f0:	0005fb00 	andeq	pc, r5, r0, lsl #22
     5f4:	50011800 	andpl	r1, r1, r0, lsl #16
     5f8:	19004501 	stmdbne	r0, {r0, r8, sl, lr}
     5fc:	0000864c 	andeq	r8, r0, ip, asr #12
     600:	00000faf 	andeq	r0, r0, pc, lsr #31
     604:	01500118 	cmpeq	r0, r8, lsl r1
     608:	24000045 	strcs	r0, [r0], #-69	; 0xffffffbb
     60c:	000000d5 	ldrdeq	r0, [r0], -r5
     610:	250ca501 	strcs	sl, [ip, #-1281]	; 0xfffffaff
     614:	3c000000 	stccc	0, cr0, [r0], {-0}
     618:	64000081 	strvs	r0, [r0], #-129	; 0xffffff7f
     61c:	01000000 	mrseq	r0, (UNDEF: 0)
     620:	0006d49c 	muleq	r6, ip, r4
     624:	6e692000 	cdpvs	0, 6, cr2, cr9, cr0, {0}
     628:	1da50100 	stfnes	f0, [r5]
     62c:	00000025 	andeq	r0, r0, r5, lsr #32
     630:	000001dd 	ldrdeq	r0, [r0], -sp
     634:	000001d9 	ldrdeq	r0, [r0], -r9
     638:	01007220 	tsteq	r0, r0, lsr #4
     63c:	06d432a5 	ldrbeq	r3, [r4], r5, lsr #5
     640:	01ff0000 	mvnseq	r0, r0
     644:	01fb0000 	mvnseq	r0, r0
     648:	4e200000 	cdpmi	0, 2, cr0, cr0, cr0, {0}
     64c:	3ea50100 	fdvccs	f0, f5, f0
     650:	0000002c 	andeq	r0, r0, ip, lsr #32
     654:	00000221 	andeq	r0, r0, r1, lsr #4
     658:	0000021d 	andeq	r0, r0, sp, lsl r2
     65c:	01006e1f 	tsteq	r0, pc, lsl lr
     660:	002509a6 	eoreq	r0, r5, r6, lsr #19
     664:	02430000 	subeq	r0, r3, #0, 0
     668:	023f0000 	eorseq	r0, pc, #0, 0
     66c:	5c150000 	ldcpl	0, cr0, [r5], {-0}
     670:	38000081 	stmdacc	r0, {r0, r7}
     674:	1f000000 	svcne	0x00000000
     678:	006c6176 	rsbeq	r6, ip, r6, ror r1
     67c:	250da801 	strcs	sl, [sp, #-2049]	; 0xfffff7ff
     680:	68000000 	stmdavs	r0, {}	; <UNPREDICTABLE>
     684:	62000002 	andvs	r0, r0, #2, 0
     688:	1f000002 	svcne	0x00000002
     68c:	00727564 	rsbseq	r7, r2, r4, ror #10
     690:	250da901 	strcs	sl, [sp, #-2305]	; 0xfffff6ff
     694:	93000000 	movwls	r0, #0
     698:	91000002 	tstls	r0, r2
     69c:	17000002 	strne	r0, [r0, -r2]
     6a0:	00008164 	andeq	r8, r0, r4, ror #2
     6a4:	00000f7f 	andeq	r0, r0, pc, ror pc
     6a8:	000006b3 			; <UNDEFINED> instruction: 0x000006b3
     6ac:	02500118 	subseq	r0, r0, #6
     6b0:	19000077 	stmdbne	r0, {r0, r1, r2, r4, r5, r6}
     6b4:	00008178 	andeq	r8, r0, r8, ror r1
     6b8:	00000c97 	muleq	r0, r7, ip
     6bc:	02500118 	subseq	r0, r0, #6
     6c0:	01180077 	tsteq	r8, r7, ror r0
     6c4:	00740251 	rsbseq	r0, r4, r1, asr r2
     6c8:	05520118 	ldrbeq	r0, [r2, #-280]	; 0xfffffee8
     6cc:	0186a00c 	orreq	sl, r6, ip
     6d0:	00000000 	andeq	r0, r0, r0
     6d4:	00cb0408 	sbceq	r0, fp, r8, lsl #8
     6d8:	bf220000 	svclt	0x00220000
     6dc:	01000000 	mrseq	r0, (UNDEF: 0)
     6e0:	002c0a8a 	eoreq	r0, ip, sl, lsl #21
     6e4:	850c0000 	strhi	r0, [ip, #-0]
     6e8:	012c0000 			; <UNDEFINED> instruction: 0x012c0000
     6ec:	9c010000 	stcls	0, cr0, [r1], {-0}
     6f0:	000008cd 	andeq	r0, r0, sp, asr #17
     6f4:	01007220 	tsteq	r0, r0, lsr #4
     6f8:	06d4238a 	ldrbeq	r2, [r4], sl, lsl #7
     6fc:	02ac0000 	adceq	r0, ip, #0, 0
     700:	02a60000 	adceq	r0, r6, #0, 0
     704:	6e200000 	cdpvs	0, 2, cr0, cr0, cr0, {0}
     708:	2f8a0100 	svccs	0x008a0100
     70c:	0000002c 	andeq	r0, r0, ip, lsr #32
     710:	000002de 	ldrdeq	r0, [r0], -lr
     714:	000002d8 	ldrdeq	r0, [r0], -r8
     718:	00060521 	andeq	r0, r6, r1, lsr #10
     71c:	098c0100 	stmibeq	ip, {r8}
     720:	00000025 	andeq	r0, r0, r5, lsr #32
     724:	00000312 	andeq	r0, r0, r2, lsl r3
     728:	0000030a 	andeq	r0, r0, sl, lsl #6
     72c:	00031225 	andeq	r1, r3, r5, lsr #4
     730:	0008dd00 	andeq	sp, r8, r0, lsl #26
     734:	6c030500 	cfstr32vs	mvfx0, [r3], {-0}
     738:	1f00009d 	svcne	0x0000009d
     73c:	006c6176 	rsbeq	r6, ip, r6, ror r1
     740:	5d0e9201 	sfmpl	f1, 1, [lr, #-4]
     744:	50000000 	andpl	r0, r0, r0
     748:	46000003 	strmi	r0, [r0], -r3
     74c:	1c000003 	stcne	0, cr0, [r0], {3}
     750:	00000048 	andeq	r0, r0, r8, asr #32
     754:	0000081f 	andeq	r0, r0, pc, lsl r8
     758:	0100691f 	tsteq	r0, pc, lsl r9
     75c:	00250d93 	mlaeq	r5, r3, sp, r0
     760:	03940000 	orrseq	r0, r4, #0, 0
     764:	03900000 	orrseq	r0, r0, #0, 0
     768:	94170000 	ldrls	r0, [r7], #-0
     76c:	d1000085 	smlabble	r0, r5, r0, r0
     770:	8400000a 	strhi	r0, [r0], #-10
     774:	18000007 	stmdane	r0, {r0, r1, r2}
     778:	76025001 	strvc	r5, [r2], -r1
     77c:	51011800 	tstpl	r1, r0, lsl #16
     780:	00007402 	andeq	r7, r0, r2, lsl #8
     784:	0085ac17 	addeq	sl, r5, r7, lsl ip
     788:	000b4600 	andeq	r4, fp, r0, lsl #12
     78c:	0007ab00 	andeq	sl, r7, r0, lsl #22
     790:	50011800 	andpl	r1, r1, r0, lsl #16
     794:	33007407 	movwcc	r7, #1031	; 0x407
     798:	22007624 	andcs	r7, r0, #36, 12	; 0x2400000
     79c:	03510118 	cmpeq	r1, #6
     7a0:	1802580a 	stmdane	r2, {r1, r3, fp, ip, lr}
     7a4:	0a035201 	beq	d4fb0 <__bss_end__+0xc9a28>
     7a8:	17000640 	strne	r0, [r0, -r0, asr #12]
     7ac:	000085dc 	ldrdeq	r8, [r0], -ip
     7b0:	00000f2b 	andeq	r0, r0, fp, lsr #30
     7b4:	000007c8 	andeq	r0, r0, r8, asr #15
     7b8:	05500118 	ldrbeq	r0, [r0, #-280]	; 0xfffffee8
     7bc:	009cbc03 	addseq	fp, ip, r3, lsl #24
     7c0:	51011800 	tstpl	r1, r0, lsl #16
     7c4:	00007502 	andeq	r7, r0, r2, lsl #10
     7c8:	0085e417 	addeq	lr, r5, r7, lsl r4
     7cc:	000b1000 	andeq	r1, fp, r0
     7d0:	0007dc00 	andeq	sp, r7, r0, lsl #24
     7d4:	50011800 	andpl	r1, r1, r0, lsl #16
     7d8:	00007902 	andeq	r7, r0, r2, lsl #18
     7dc:	00860817 	addeq	r0, r6, r7, lsl r8
     7e0:	000f2b00 	andeq	r2, pc, r0, lsl #22
     7e4:	00081500 	andeq	r1, r8, r0, lsl #10
     7e8:	50011800 	andpl	r1, r1, r0, lsl #16
     7ec:	9ba00305 	blls	fe801408 <__bss_end__+0xfe7f5e80>
     7f0:	01180000 	tsteq	r8, r0
     7f4:	98030551 	stmdals	r3, {r0, r4, r6, r8, sl}
     7f8:	1800009b 	stmdane	r0, {r0, r1, r3, r4, r7}
     7fc:	03055201 	movweq	r5, #20993	; 0x5201
     800:	00009d6c 	andeq	r9, r0, ip, ror #26
     804:	02530118 	subseq	r0, r3, #6
     808:	02189e08 	andseq	r9, r8, #8, 28	; 0x80
     80c:	0305007d 	movweq	r0, #20605	; 0x507d
     810:	00009cd0 	ldrdeq	r9, [r0], -r0
     814:	860c1100 	strhi	r1, [ip], -r0, lsl #2
     818:	0fbb0000 	svceq	0x00bb0000
     81c:	17000000 	strne	r0, [r0, -r0]
     820:	00008524 	andeq	r8, r0, r4, lsr #10
     824:	00000f2b 	andeq	r0, r0, fp, lsr #30
     828:	00000836 	andeq	r0, r0, r6, lsr r8
     82c:	05500118 	ldrbeq	r0, [r0, #-280]	; 0xfffffee8
     830:	009c8003 	addseq	r8, ip, r3
     834:	30170000 	andscc	r0, r7, r0
     838:	50000085 	andpl	r0, r0, r5, lsl #1
     83c:	5000000a 	andpl	r0, r0, sl
     840:	18000008 	stmdane	r0, {r3}
     844:	76025001 	strvc	r5, [r2], -r1
     848:	51011800 	tstpl	r1, r0, lsl #16
     84c:	00007702 	andeq	r7, r0, r2, lsl #14
     850:	00854417 	addeq	r4, r5, r7, lsl r4
     854:	0008e200 	andeq	lr, r8, r0, lsl #4
     858:	00086a00 	andeq	r6, r8, r0, lsl #20
     85c:	50011800 	andpl	r1, r1, r0, lsl #16
     860:	18007602 	stmdane	r0, {r1, r9, sl, ip, sp, lr}
     864:	77025101 	strvc	r5, [r2, -r1, lsl #2]
     868:	50170000 	andspl	r0, r7, r0
     86c:	2b000085 	blcs	a88 <__code_start__-0x7578>
     870:	8a00000f 	bhi	8b4 <__code_start__-0x774c>
     874:	18000008 	stmdane	r0, {r3}
     878:	03055001 	movweq	r5, #20481	; 0x5001
     87c:	00009ca8 	andeq	r9, r0, r8, lsr #25
     880:	05510118 	ldrbeq	r0, [r1, #-280]	; 0xfffffee8
     884:	00740077 	rsbseq	r0, r4, r7, ror r0
     888:	7417001c 	ldrvc	r0, [r7], #-28	; 0xffffffe4
     88c:	2b000085 	blcs	aa8 <__code_start__-0x7558>
     890:	c300000f 	movwgt	r0, #15
     894:	18000008 	stmdane	r0, {r3}
     898:	03055001 	movweq	r5, #20481	; 0x5001
     89c:	00009ba0 	andeq	r9, r0, r0, lsr #23
     8a0:	05510118 	ldrbeq	r0, [r1, #-280]	; 0xfffffee8
     8a4:	009b9803 	addseq	r9, fp, r3, lsl #16
     8a8:	52011800 	andpl	r1, r1, #0, 16
     8ac:	9d6c0305 	stclls	3, cr0, [ip, #-20]!	; 0xffffffec
     8b0:	01180000 	tsteq	r8, r0
     8b4:	8d080253 	sfmhi	f0, 4, [r8, #-332]	; 0xfffffeb4
     8b8:	007d0218 	rsbseq	r0, sp, r8, lsl r2
     8bc:	9c9c0305 	ldcls	3, cr0, [ip], {5}
     8c0:	11000000 	mrsne	r0, (UNDEF: 0)
     8c4:	00008578 	andeq	r8, r0, r8, ror r5
     8c8:	00000fbb 			; <UNDEFINED> instruction: 0x00000fbb
     8cc:	00b40e00 	adcseq	r0, r4, r0, lsl #28
     8d0:	08dd0000 	ldmeq	sp, {}^	; <UNPREDICTABLE>
     8d4:	2c0f0000 	stccs	0, cr0, [pc], {-0}
     8d8:	07000000 	streq	r0, [r0, -r0]
     8dc:	08cd0900 	stmiaeq	sp, {r8, fp}^
     8e0:	28260000 	stmdacs	r6!, {}	; <UNPREDICTABLE>
     8e4:	01000003 	tsteq	r0, r3
     8e8:	83e00d77 	mvnhi	r0, #7616	; 0x1dc0
     8ec:	00d80000 	sbcseq	r0, r8, r0
     8f0:	9c010000 	stcls	0, cr0, [r1], {-0}
     8f4:	00000a3b 	andeq	r0, r0, fp, lsr sl
     8f8:	01007220 	tsteq	r0, r0, lsr #4
     8fc:	06d42d77 			; <UNDEFINED> instruction: 0x06d42d77
     900:	03be0000 			; <UNDEFINED> instruction: 0x03be0000
     904:	03b20000 			; <UNDEFINED> instruction: 0x03b20000
     908:	6e200000 	cdpvs	0, 2, cr0, cr0, cr0, {0}
     90c:	34770100 	ldrbtcc	r0, [r7], #-256	; 0xffffff00
     910:	00000025 	andeq	r0, r0, r5, lsr #32
     914:	00000418 	andeq	r0, r0, r8, lsl r4
     918:	0000040e 	andeq	r0, r0, lr, lsl #8
     91c:	00031225 	andeq	r1, r3, r5, lsr #4
     920:	000a4b00 	andeq	r4, sl, r0, lsl #22
     924:	5c030500 	cfstr32pl	mvfx0, [r3], {-0}
     928:	1c00009d 	stcne	0, cr0, [r0], {157}	; 0x9d
     92c:	00000018 	andeq	r0, r0, r8, lsl r0
     930:	000009c8 	andeq	r0, r0, r8, asr #19
     934:	0100691f 	tsteq	r0, pc, lsl r9
     938:	00250d7a 	eoreq	r0, r5, sl, ror sp
     93c:	045e0000 	ldrbeq	r0, [lr], #-0
     940:	045a0000 	ldrbeq	r0, [sl], #-0
     944:	3c170000 	ldccc	0, cr0, [r7], {-0}
     948:	2b000084 	blcs	b60 <__code_start__-0x74a0>
     94c:	6300000f 	movwvs	r0, #15
     950:	18000009 	stmdane	r0, {r0, r3}
     954:	03055001 	movweq	r5, #20481	; 0x5001
     958:	00009c5c 	andeq	r9, r0, ip, asr ip
     95c:	02510118 	subseq	r0, r1, #6
     960:	17000074 	smlsdxne	r0, r4, r0, r0
     964:	0000845c 	andeq	r8, r0, ip, asr r4
     968:	00000ad1 	ldrdeq	r0, [r0], -r1
     96c:	00000985 	andeq	r0, r0, r5, lsl #19
     970:	07500118 	smmlaeq	r0, r8, r1, r0
     974:	24330074 	ldrtcs	r0, [r3], #-116	; 0xffffff8c
     978:	18220075 	stmdane	r2!, {r0, r2, r4, r5, r6}
     97c:	76055101 	strvc	r5, [r5], -r1, lsl #2
     980:	1c007400 	cfstrsne	mvf7, [r0], {-0}
     984:	84801700 	strhi	r1, [r0], #1792	; 0x700
     988:	0f2b0000 	svceq	0x002b0000
     98c:	09be0000 	ldmibeq	lr!, {}	; <UNPREDICTABLE>
     990:	01180000 	tsteq	r8, r0
     994:	a0030550 	andge	r0, r3, r0, asr r5
     998:	1800009b 	stmdane	r0, {r0, r1, r3, r4, r7}
     99c:	03055101 	movweq	r5, #20737	; 0x5101
     9a0:	00009b98 	muleq	r0, r8, fp
     9a4:	05520118 	ldrbeq	r0, [r2, #-280]	; 0xfffffee8
     9a8:	009d5c03 	addseq	r5, sp, r3, lsl #24
     9ac:	53011800 	movwpl	r1, #6144	; 0x1800
     9b0:	187c0802 	ldmdane	ip!, {r1, fp}^
     9b4:	05007d02 	streq	r7, [r0, #-3330]	; 0xfffff2fe
     9b8:	009c4803 	addseq	r4, ip, r3, lsl #16
     9bc:	84110000 	ldrhi	r0, [r1], #-0
     9c0:	bb000084 	bllt	bd8 <__code_start__-0x7428>
     9c4:	0000000f 	andeq	r0, r0, pc
     9c8:	0083fc17 	addeq	pc, r3, r7, lsl ip	; <UNPREDICTABLE>
     9cc:	000f2b00 	andeq	r2, pc, r0, lsl #22
     9d0:	0009df00 	andeq	sp, r9, r0, lsl #30
     9d4:	50011800 	andpl	r1, r1, r0, lsl #16
     9d8:	9c0c0305 	stcls	3, cr0, [ip], {5}
     9dc:	17000000 	strne	r0, [r0, -r0]
     9e0:	00008420 	andeq	r8, r0, r0, lsr #8
     9e4:	00000f2b 	andeq	r0, r0, fp, lsr #30
     9e8:	00000a18 	andeq	r0, r0, r8, lsl sl
     9ec:	05500118 	ldrbeq	r0, [r0, #-280]	; 0xfffffee8
     9f0:	009ba003 	addseq	sl, fp, r3
     9f4:	51011800 	tstpl	r1, r0, lsl #16
     9f8:	9b980305 	blls	fe601614 <__bss_end__+0xfe5f608c>
     9fc:	01180000 	tsteq	r8, r0
     a00:	5c030552 	cfstr32pl	mvfx0, [r3], {82}	; 0x52
     a04:	1800009d 	stmdane	r0, {r0, r2, r3, r4, r7}
     a08:	08025301 	stmdaeq	r2, {r0, r8, r9, ip, lr}
     a0c:	7d021878 	stcvc	8, cr1, [r2, #-480]	; 0xfffffe20
     a10:	08030500 	stmdaeq	r3, {r8, sl}
     a14:	0000009c 	muleq	r0, ip, r0
     a18:	00842411 	addeq	r2, r4, r1, lsl r4
     a1c:	000fbb00 	andeq	fp, pc, r0, lsl #22
     a20:	84901900 	ldrhi	r1, [r0], #2304	; 0x900
     a24:	0f2b0000 	svceq	0x002b0000
     a28:	01180000 	tsteq	r8, r0
     a2c:	70030550 	andvc	r0, r3, r0, asr r5
     a30:	1800009c 	stmdane	r0, {r2, r3, r4, r7}
     a34:	76025101 	strvc	r5, [r2], -r1, lsl #2
     a38:	0e000000 	cdpeq	0, 0, cr0, cr0, cr0, {0}
     a3c:	000000b4 	strheq	r0, [r0], -r4
     a40:	00000a4b 	andeq	r0, r0, fp, asr #20
     a44:	00002c0f 	andeq	r2, r0, pc, lsl #24
     a48:	09000e00 	stmdbeq	r0, {r9, sl, fp}
     a4c:	00000a3b 	andeq	r0, r0, fp, lsr sl
     a50:	00014622 	andeq	r4, r1, r2, lsr #12
     a54:	056c0100 	strbeq	r0, [ip, #-256]!	; 0xffffff00
     a58:	00000025 	andeq	r0, r0, r5, lsr #32
     a5c:	000084b8 			; <UNDEFINED> instruction: 0x000084b8
     a60:	00000054 	andeq	r0, r0, r4, asr r0
     a64:	0ad19c01 	beq	ff467a70 <__bss_end__+0xff45c4e8>
     a68:	72200000 	eorvc	r0, r0, #0, 0
     a6c:	226c0100 	rsbcs	r0, ip, #0
     a70:	000006d4 	ldrdeq	r0, [r0], -r4
     a74:	00000485 	andeq	r0, r0, r5, lsl #9
     a78:	0000047d 	andeq	r0, r0, sp, ror r4
     a7c:	01006e20 	tsteq	r0, r0, lsr #28
     a80:	002c2e6c 	eoreq	r2, ip, ip, ror #28
     a84:	04c40000 	strbeq	r0, [r4], #0
     a88:	04bc0000 	ldrteq	r0, [ip], #0
     a8c:	05210000 	streq	r0, [r1, #-0]!
     a90:	01000006 	tsteq	r0, r6
     a94:	0025096e 	eoreq	r0, r5, lr, ror #18
     a98:	04fd0000 	ldrbteq	r0, [sp], #0
     a9c:	04fb0000 	ldrbteq	r0, [fp], #0
     aa0:	30270000 	eorcc	r0, r7, r0
     aa4:	1f000000 	svcne	0x00000000
     aa8:	6f010069 	svcvs	0x00010069
     aac:	0000250d 	andeq	r2, r0, sp, lsl #10
     ab0:	00051200 	andeq	r1, r5, r0, lsl #4
     ab4:	00051000 	andeq	r1, r5, r0
     ab8:	84f41900 	ldrbthi	r1, [r4], #2304	; 0x900
     abc:	0ad10000 	beq	ff440ac4 <__bss_end__+0xff43553c>
     ac0:	01180000 	tsteq	r8, r0
     ac4:	00760250 	rsbseq	r0, r6, r0, asr r2
     ac8:	02510118 	subseq	r0, r1, #6
     acc:	00000074 	andeq	r0, r0, r4, ror r0
     ad0:	00542200 	subseq	r2, r4, r0, lsl #4
     ad4:	68010000 	stmdavs	r1, {}	; <UNPREDICTABLE>
     ad8:	00002505 	andeq	r2, r0, r5, lsl #10
     adc:	00837000 	addeq	r7, r3, r0
     ae0:	00007000 	andeq	r7, r0, r0
     ae4:	109c0100 	addsne	r0, ip, r0, lsl #2
     ae8:	2000000b 	andcs	r0, r0, fp
     aec:	68010072 	stmdavs	r1, {r1, r4, r5, r6}
     af0:	0006d420 	andeq	sp, r6, r0, lsr #8
     af4:	00053900 	andeq	r3, r5, r0, lsl #18
     af8:	00052500 	andeq	r2, r5, r0, lsl #10
     afc:	006e2000 	rsbeq	r2, lr, r0
     b00:	2c2c6801 	stccs	8, cr6, [ip], #-4
     b04:	c6000000 	strgt	r0, [r0], -r0
     b08:	be000005 	cdplt	0, 0, cr0, cr0, cr5, {0}
     b0c:	00000005 	andeq	r0, r0, r5
     b10:	0000f724 	andeq	pc, r0, r4, lsr #14
     b14:	0c630100 	stfeqe	f0, [r3], #-0
     b18:	00000025 	andeq	r0, r0, r5, lsr #32
     b1c:	00008044 	andeq	r8, r0, r4, asr #32
     b20:	00000040 	andeq	r0, r0, r0, asr #32
     b24:	0b469c01 	bleq	11a7b30 <__bss_end__+0x119c5a8>
     b28:	65200000 	strvs	r0, [r0, #-0]!
     b2c:	25630100 	strbcs	r0, [r3, #-256]!	; 0xffffff00
     b30:	000006d4 	ldrdeq	r0, [r0], -r4
     b34:	00000602 	andeq	r0, r0, r2, lsl #12
     b38:	000005fe 	strdeq	r0, [r0], -lr
     b3c:	00805811 	addeq	r5, r0, r1, lsl r8
     b40:	000c6a00 	andeq	r6, ip, r0, lsl #20
     b44:	f2240000 	vhadd.s32	d0, d4, d0
     b48:	01000000 	mrseq	r0, (UNDEF: 0)
     b4c:	00250c58 	eoreq	r0, r5, r8, asr ip
     b50:	80840000 	addhi	r0, r4, r0
     b54:	00740000 	rsbseq	r0, r4, r0
     b58:	9c010000 	stcls	0, cr0, [r1], {-0}
     b5c:	00000c55 	andeq	r0, r0, r5, asr ip
     b60:	01006520 	tsteq	r0, r0, lsr #10
     b64:	06d42258 			; <UNDEFINED> instruction: 0x06d42258
     b68:	06280000 	strteq	r0, [r8], -r0
     b6c:	06200000 	strteq	r0, [r0], -r0
     b70:	6c200000 	stcvs	0, cr0, [r0], #-0
     b74:	58010062 	stmdapl	r1, {r1, r5, r6}
     b78:	00002c2e 	andeq	r2, r0, lr, lsr #24
     b7c:	00066a00 	andeq	r6, r6, r0, lsl #20
     b80:	00066200 	andeq	r6, r6, r0, lsl #4
     b84:	62752000 	rsbsvs	r2, r5, #0, 0
     b88:	3b580100 	blcc	1600f90 <__bss_end__+0x15f5a08>
     b8c:	0000002c 	andeq	r0, r0, ip, lsr #32
     b90:	000006ac 	andeq	r0, r0, ip, lsr #13
     b94:	000006a4 	andeq	r0, r0, r4, lsr #13
     b98:	00031225 	andeq	r1, r3, r5, lsr #4
     b9c:	000c6500 	andeq	r6, ip, r0, lsl #10
     ba0:	54030500 	strpl	r0, [r3], #-1280	; 0xfffffb00
     ba4:	1f00009d 	svcne	0x0000009d
     ba8:	006e656c 	rsbeq	r6, lr, ip, ror #10
     bac:	25095a01 	strcs	r5, [r9, #-2561]	; 0xfffff5ff
     bb0:	e5000000 	str	r0, [r0, #-0]
     bb4:	e3000006 	movw	r0, #6
     bb8:	21000006 	tstcs	r0, r6
     bbc:	0000004d 	andeq	r0, r0, sp, asr #32
     bc0:	2c0e5b01 			; <UNDEFINED> instruction: 0x2c0e5b01
     bc4:	fc000000 	stc2	0, cr0, [r0], {-0}
     bc8:	f8000006 			; <UNDEFINED> instruction: 0xf8000006
     bcc:	21000006 	tstcs	r0, r6
     bd0:	000002eb 	andeq	r0, r0, fp, ror #5
     bd4:	2c0e5c01 	stccs	12, cr5, [lr], {1}
     bd8:	1c000000 	stcne	0, cr0, [r0], {-0}
     bdc:	1a000007 	bne	c00 <__code_start__-0x7400>
     be0:	17000007 	strne	r0, [r0, -r7]
     be4:	000080a8 	andeq	r8, r0, r8, lsr #1
     be8:	00000c6a 	andeq	r0, r0, sl, ror #24
     bec:	00000bfb 	strdeq	r0, [r0], -fp
     bf0:	06500118 			; <UNDEFINED> instruction: 0x06500118
     bf4:	765101f3 			; <UNDEFINED> instruction: 0x765101f3
     bf8:	17001c00 	strne	r1, [r0, -r0, lsl #24]
     bfc:	000080b4 	strheq	r8, [r0], -r4
     c00:	00000c6a 	andeq	r0, r0, sl, ror #24
     c04:	00000c12 	andeq	r0, r0, r2, lsl ip
     c08:	05500118 	ldrbeq	r0, [r0, #-280]	; 0xfffffee8
     c0c:	00760074 	rsbseq	r0, r6, r4, ror r0
     c10:	e417001c 	ldr	r0, [r7], #-28	; 0xffffffe4
     c14:	2b000080 	blcs	e1c <__code_start__-0x71e4>
     c18:	4b00000f 	blmi	c5c <__code_start__-0x73a4>
     c1c:	1800000c 	stmdane	r0, {r2, r3}
     c20:	03055001 	movweq	r5, #20481	; 0x5001
     c24:	00009ba0 	andeq	r9, r0, r0, lsr #23
     c28:	05510118 	ldrbeq	r0, [r1, #-280]	; 0xfffffee8
     c2c:	009b9803 	addseq	r9, fp, r3, lsl #16
     c30:	52011800 	andpl	r1, r1, #0, 16
     c34:	9d540305 	ldclls	3, cr0, [r4, #-20]	; 0xffffffec
     c38:	01180000 	tsteq	r8, r0
     c3c:	59080253 	stmdbpl	r8, {r0, r1, r4, r6, r9}
     c40:	007d0218 	rsbseq	r0, sp, r8, lsl r2
     c44:	9bb40305 	blls	fed01860 <__bss_end__+0xfecf62d8>
     c48:	11000000 	mrsne	r0, (UNDEF: 0)
     c4c:	000080e8 	andeq	r8, r0, r8, ror #1
     c50:	00000fbb 			; <UNDEFINED> instruction: 0x00000fbb
     c54:	00b40e00 	adcseq	r0, r4, r0, lsl #28
     c58:	0c650000 	stcleq	0, cr0, [r5], #-0
     c5c:	2c0f0000 	stccs	0, cr0, [pc], {-0}
     c60:	04000000 	streq	r0, [r0], #-0
     c64:	0c550900 	mrrceq	9, 0, r0, r5, cr0	; <UNPREDICTABLE>
     c68:	61280000 			; <UNDEFINED> instruction: 0x61280000
     c6c:	01007362 	tsteq	r0, r2, ror #6
     c70:	00250c53 	eoreq	r0, r5, r3, asr ip
     c74:	80380000 	eorshi	r0, r8, r0
     c78:	000c0000 	andeq	r0, ip, r0
     c7c:	9c010000 	stcls	0, cr0, [r1], {-0}
     c80:	00000c97 	muleq	r0, r7, ip
     c84:	01007820 	tsteq	r0, r0, lsr #16
     c88:	00251453 	eoreq	r1, r5, r3, asr r4
     c8c:	07330000 	ldreq	r0, [r3, -r0]!
     c90:	072f0000 	streq	r0, [pc, -r0]!
     c94:	24000000 	strcs	r0, [r0], #-0
     c98:	000002af 	andeq	r0, r0, pc, lsr #5
     c9c:	250c4501 	strcs	r4, [ip, #-1281]	; 0xfffffaff
     ca0:	f8000000 			; <UNDEFINED> instruction: 0xf8000000
     ca4:	44000080 	strmi	r0, [r0], #-128	; 0xffffff80
     ca8:	01000000 	mrseq	r0, (UNDEF: 0)
     cac:	000d419c 	muleq	sp, ip, r1
     cb0:	69702000 	ldmdbvs	r0!, {sp}^
     cb4:	4501006e 	strmi	r0, [r1, #-110]	; 0xffffff92
     cb8:	0000251e 	andeq	r2, r0, lr, lsl r5
     cbc:	00075800 	andeq	r5, r7, r0, lsl #16
     cc0:	00075400 	andeq	r5, r7, r0, lsl #8
     cc4:	00762000 	rsbseq	r2, r6, r0
     cc8:	25274501 	strcs	r4, [r7, #-1281]!	; 0xfffffaff
     ccc:	7d000000 	stcvc	0, cr0, [r0, #-0]
     cd0:	79000007 	stmdbvc	r0, {r0, r1, r2}
     cd4:	23000007 	movwcs	r0, #7
     cd8:	00000337 	andeq	r0, r0, r7, lsr r3
     cdc:	2c334501 	cfldr32cs	mvfx4, [r3], #-4
     ce0:	9f000000 	svcls	0x00000000
     ce4:	9b000007 	blls	d08 <__code_start__-0x72f8>
     ce8:	1f000007 	svcne	0x00000007
     cec:	01006272 	tsteq	r0, r2, ror r2
     cf0:	002c0e46 	eoreq	r0, ip, r6, asr #28
     cf4:	07bf0000 	ldreq	r0, [pc, r0]!
     cf8:	07bd0000 	ldreq	r0, [sp, r0]!
     cfc:	0c130000 	ldceq	0, cr0, [r3], {-0}
     d00:	2c000081 	stccs	0, cr0, [r0], {129}	; 0x81
     d04:	37000000 	strcc	r0, [r0, -r0]
     d08:	1f00000d 	svcne	0x0000000d
     d0c:	01006172 	tsteq	r0, r2, ror r1
     d10:	002c1248 	eoreq	r1, ip, r8, asr #4
     d14:	07d60000 	ldrbeq	r0, [r6, r0]
     d18:	07d20000 	ldrbeq	r0, [r2, r0]
     d1c:	10110000 	andsne	r0, r1, r0
     d20:	8b000081 	blhi	f2c <__code_start__-0x70d4>
     d24:	1900000f 	stmdbne	r0, {r0, r1, r2, r3}
     d28:	00008124 	andeq	r8, r0, r4, lsr #2
     d2c:	00000f7f 	andeq	r0, r0, pc, ror pc
     d30:	01500118 	cmpeq	r0, r8, lsl r1
     d34:	11000045 	tstne	r0, r5, asr #32
     d38:	00008108 	andeq	r8, r0, r8, lsl #2
     d3c:	00000f8b 	andeq	r0, r0, fp, lsl #31
     d40:	03032600 	movweq	r2, #13824	; 0x3600
     d44:	32010000 	andcc	r0, r1, #0, 0
     d48:	0081e80d 	addeq	lr, r1, sp, lsl #16
     d4c:	00006800 	andeq	r6, r0, r0, lsl #16
     d50:	2b9c0100 	blcs	fe701158 <__bss_end__+0xfe6f5bd0>
     d54:	2000000e 	andcs	r0, r0, lr
     d58:	006e6970 	rsbeq	r6, lr, r0, ror r9
     d5c:	25203201 	strcs	r3, [r0, #-513]!	; 0xfffffdff
     d60:	f8000000 			; <UNDEFINED> instruction: 0xf8000000
     d64:	f4000007 	vst4.8	{d0-d3}, [r0], r7
     d68:	23000007 	movwcs	r0, #7
     d6c:	0000030c 	andeq	r0, r0, ip, lsl #6
     d70:	2c2e3201 	sfmcs	f3, 4, [lr], #-4
     d74:	1a000000 	bne	d7c <__code_start__-0x7284>
     d78:	16000008 	strne	r0, [r0], -r8
     d7c:	13000008 	movwne	r0, #8
     d80:	00008208 	andeq	r8, r0, r8, lsl #4
     d84:	00000048 	andeq	r0, r0, r8, asr #32
     d88:	00000e00 	andeq	r0, r0, r0, lsl #28
     d8c:	0100691f 	tsteq	r0, pc, lsl r9
     d90:	00250d38 	eoreq	r0, r5, r8, lsr sp
     d94:	083c0000 	ldmdaeq	ip!, {}	; <UNPREDICTABLE>
     d98:	08380000 	ldmdaeq	r8!, {}	; <UNPREDICTABLE>
     d9c:	00270000 	eoreq	r0, r7, r0
     da0:	1f000000 	svcne	0x00000000
     da4:	006c6176 	rsbeq	r6, ip, r6, ror r1
     da8:	250d3901 	strcs	r3, [sp, #-2305]	; 0xfffff6ff
     dac:	63000000 	movwvs	r0, #0
     db0:	5b000008 	blpl	dd8 <__code_start__-0x7228>
     db4:	17000008 	strne	r0, [r0, -r8]
     db8:	0000821c 	andeq	r8, r0, ip, lsl r2
     dbc:	00000e2b 	andeq	r0, r0, fp, lsr #28
     dc0:	00000dd2 	ldrdeq	r0, [r0], -r2
     dc4:	02500118 	subseq	r0, r0, #6
     dc8:	01180076 	tsteq	r8, r6, ror r0
     dcc:	580a0351 	stmdapl	sl, {r0, r4, r6, r8, r9}
     dd0:	24170002 	ldrcs	r0, [r7], #-2
     dd4:	c7000082 	strgt	r0, [r0, -r2, lsl #1]
     dd8:	e700000f 	str	r0, [r0, -pc]
     ddc:	1800000d 	stmdane	r0, {r0, r2, r3}
     de0:	0a035001 	beq	d4dec <__bss_end__+0xc9864>
     de4:	19000258 	stmdbne	r0, {r3, r4, r6, r9}
     de8:	00008248 	andeq	r8, r0, r8, asr #4
     dec:	00000e2b 	andeq	r0, r0, fp, lsr #28
     df0:	02500118 	subseq	r0, r0, #6
     df4:	01180076 	tsteq	r8, r6, ror r0
     df8:	400a0351 	andmi	r0, sl, r1, asr r3
     dfc:	00000006 	andeq	r0, r0, r6
     e00:	00820017 	addeq	r0, r2, r7, lsl r0
     e04:	000e2b00 	andeq	r2, lr, r0, lsl #22
     e08:	000e1a00 	andeq	r1, lr, r0, lsl #20
     e0c:	50011800 	andpl	r1, r1, r0, lsl #16
     e10:	18007602 	stmdane	r0, {r1, r9, sl, ip, sp, lr}
     e14:	74025101 	strvc	r5, [r2], #-257	; 0xfffffeff
     e18:	08190000 	ldmdaeq	r9, {}	; <UNPREDICTABLE>
     e1c:	c7000082 	strgt	r0, [r0, -r2, lsl #1]
     e20:	1800000f 	stmdane	r0, {r0, r1, r2, r3}
     e24:	74025001 	strvc	r5, [r2], #-1
     e28:	26000000 	strcs	r0, [r0], -r0
     e2c:	00000084 	andeq	r0, r0, r4, lsl #1
     e30:	a00d2301 	andge	r2, sp, r1, lsl #6
     e34:	48000081 	stmdami	r0, {r0, r7}
     e38:	01000000 	mrseq	r0, (UNDEF: 0)
     e3c:	000efe9c 	muleq	lr, ip, lr
     e40:	69702000 	ldmdbvs	r0!, {sp}^
     e44:	2301006e 	movwcs	r0, #4206	; 0x106e
     e48:	0000251e 	andeq	r2, r0, lr, lsl r5
     e4c:	0008b100 	andeq	fp, r8, r0, lsl #2
     e50:	0008ad00 	andeq	sl, r8, r0, lsl #26
     e54:	01a72300 			; <UNDEFINED> instruction: 0x01a72300
     e58:	23010000 	movwcs	r0, #4096	; 0x1000
     e5c:	00002c2c 	andeq	r2, r0, ip, lsr #24
     e60:	0008d300 	andeq	sp, r8, r0, lsl #6
     e64:	0008cf00 	andeq	ip, r8, r0, lsl #30
     e68:	62721f00 	rsbsvs	r1, r2, #0, 30
     e6c:	0e240100 	sufeqs	f0, f4, f0
     e70:	0000002c 	andeq	r0, r0, ip, lsr #32
     e74:	000008f3 	strdeq	r0, [r0], -r3
     e78:	000008f1 	strdeq	r0, [r0], -r1
     e7c:	0081b413 	addeq	fp, r1, r3, lsl r4
     e80:	00003400 	andeq	r3, r0, r0, lsl #8
     e84:	000ef400 	andeq	pc, lr, r0, lsl #8
     e88:	61721f00 	cmnvs	r2, r0, lsl #30
     e8c:	122b0100 	eorne	r0, fp, #0
     e90:	0000002c 	andeq	r0, r0, ip, lsr #32
     e94:	00000908 	andeq	r0, r0, r8, lsl #18
     e98:	00000906 	andeq	r0, r0, r6, lsl #18
     e9c:	0081bc17 	addeq	fp, r1, r7, lsl ip
     ea0:	000fd300 	andeq	sp, pc, r0, lsl #6
     ea4:	000eb000 	andeq	fp, lr, r0
     ea8:	50011800 	andpl	r1, r1, r0, lsl #16
     eac:	00007402 	andeq	r7, r0, r2, lsl #8
     eb0:	0081c417 	addeq	ip, r1, r7, lsl r4
     eb4:	000fc700 	andeq	ip, pc, r0, lsl #14
     eb8:	000ec300 	andeq	ip, lr, r0, lsl #6
     ebc:	50011800 	andpl	r1, r1, r0, lsl #16
     ec0:	17003d01 	strne	r3, [r0, -r1, lsl #26]
     ec4:	000081cc 	andeq	r8, r0, ip, asr #3
     ec8:	00000fdf 	ldrdeq	r0, [r0], -pc	; <UNPREDICTABLE>
     ecc:	00000ed7 	ldrdeq	r0, [r0], -r7
     ed0:	02500118 	subseq	r0, r0, #6
     ed4:	17000074 	smlsdxne	r0, r4, r0, r0
     ed8:	000081d4 	ldrdeq	r8, [r0], -r4
     edc:	00000fc7 	andeq	r0, r0, r7, asr #31
     ee0:	00000eea 	andeq	r0, r0, sl, ror #29
     ee4:	01500118 	cmpeq	r0, r8, lsl r1
     ee8:	d811003d 	ldmdale	r1, {r0, r2, r3, r4, r5}
     eec:	8b000081 	blhi	10f8 <__code_start__-0x6f08>
     ef0:	0000000f 	andeq	r0, r0, pc
     ef4:	0081b011 	addeq	fp, r1, r1, lsl r0
     ef8:	000f8b00 	andeq	r8, pc, r0, lsl #22
     efc:	38220000 	stmdacc	r2!, {}	; <UNPREDICTABLE>
     f00:	01000000 	mrseq	r0, (UNDEF: 0)
     f04:	00a70d14 	adceq	r0, r7, r4, lsl sp
     f08:	82500000 	subshi	r0, r0, #0, 0
     f0c:	01200000 			; <UNDEFINED> instruction: 0x01200000
     f10:	9c010000 	stcls	0, cr0, [r1], {-0}
     f14:	00000f2b 	andeq	r0, r0, fp, lsr #30
     f18:	01007820 	tsteq	r0, r0, lsr #16
     f1c:	002c2114 	eoreq	r2, ip, r4, lsl r1
     f20:	094f0000 	stmdbeq	pc, {}^	; <UNPREDICTABLE>
     f24:	091b0000 	ldmdbeq	fp, {}	; <UNPREDICTABLE>
     f28:	29000000 	stmdbcs	r0, {}	; <UNPREDICTABLE>
     f2c:	0000052a 	andeq	r0, r0, sl, lsr #10
     f30:	0000052a 	andeq	r0, r0, sl, lsr #10
     f34:	29062802 	stmdbcs	r6, {r1, fp, sp}
     f38:	000000ac 	andeq	r0, r0, ip, lsr #1
     f3c:	000000ac 	andeq	r0, r0, ip, lsr #1
     f40:	29065802 	stmdbcs	r6, {r1, fp, ip, lr}
     f44:	0000006a 	andeq	r0, r0, sl, rrx
     f48:	0000006a 	andeq	r0, r0, sl, rrx
     f4c:	29061d04 	stmdbcs	r6, {r2, r8, sl, fp, ip}
     f50:	0000010c 	andeq	r0, r0, ip, lsl #2
     f54:	0000010c 	andeq	r0, r0, ip, lsl #2
     f58:	29063b05 	stmdbcs	r6, {r0, r2, r8, r9, fp, ip, sp}
     f5c:	00000278 	andeq	r0, r0, r8, ror r2
     f60:	00000278 	andeq	r0, r0, r8, ror r2
     f64:	29065504 	stmdbcs	r6, {r2, r8, sl, ip, lr}
     f68:	00000299 	muleq	r0, r9, r2
     f6c:	00000299 	muleq	r0, r9, r2
     f70:	29065c04 	stmdbcs	r6, {r2, sl, fp, ip, lr}
     f74:	0000012d 	andeq	r0, r0, sp, lsr #2
     f78:	0000012d 	andeq	r0, r0, sp, lsr #2
     f7c:	29063905 	stmdbcs	r6, {r0, r2, r8, fp, ip, sp}
     f80:	00000123 	andeq	r0, r0, r3, lsr #2
     f84:	00000123 	andeq	r0, r0, r3, lsr #2
     f88:	29052404 	stmdbcs	r5, {r2, sl, sp}
     f8c:	000001ac 	andeq	r0, r0, ip, lsr #3
     f90:	000001ac 	andeq	r0, r0, ip, lsr #3
     f94:	290a5d02 	stmdbcs	sl, {r1, r8, sl, fp, ip, lr}
     f98:	000002f2 	strdeq	r0, [r0], -r2
     f9c:	000002f2 	strdeq	r0, [r0], -r2
     fa0:	29066d04 	stmdbcs	r6, {r2, r8, sl, fp, sp, lr}
     fa4:	000002c4 	andeq	r0, r0, r4, asr #5
     fa8:	000002c4 	andeq	r0, r0, r4, asr #5
     fac:	29061c04 	stmdbcs	r6, {r2, sl, fp, ip}
     fb0:	000000e2 	andeq	r0, r0, r2, ror #1
     fb4:	000000e2 	andeq	r0, r0, r2, ror #1
     fb8:	29063004 	stmdbcs	r6, {r2, ip, sp}
     fbc:	000000ff 	strdeq	r0, [r0], -pc	; <UNPREDICTABLE>
     fc0:	000000ff 	strdeq	r0, [r0], -pc	; <UNPREDICTABLE>
     fc4:	29066e02 	stmdbcs	r6, {r1, r9, sl, fp, sp, lr}
     fc8:	0000031f 	andeq	r0, r0, pc, lsl r3
     fcc:	0000031f 	andeq	r0, r0, pc, lsl r3
     fd0:	29065602 	stmdbcs	r6, {r1, r9, sl, ip, lr}
     fd4:	000000a0 	andeq	r0, r0, r0, lsr #1
     fd8:	000000a0 	andeq	r0, r0, r0, lsr #1
     fdc:	29062704 	stmdbcs	r6, {r2, r8, r9, sl, sp}
     fe0:	0000002b 	andeq	r0, r0, fp, lsr #32
     fe4:	0000002b 	andeq	r0, r0, fp, lsr #32
     fe8:	00062a04 	andeq	r2, r6, r4, lsl #20
     fec:	0000045c 	andeq	r0, r0, ip, asr r4
     ff0:	02ad0004 	adceq	r0, sp, #4, 0
     ff4:	01040000 	mrseq	r0, (UNDEF: 4)
     ff8:	000001bb 			; <UNDEFINED> instruction: 0x000001bb
     ffc:	0004030c 	andeq	r0, r4, ip, lsl #6
    1000:	0003d700 	andeq	sp, r3, r0, lsl #14
    1004:	00889000 	addeq	r9, r8, r0
    1008:	0001bc00 	andeq	fp, r1, r0, lsl #24
    100c:	00074d00 	andeq	r4, r7, r0, lsl #26
    1010:	05040200 	streq	r0, [r4, #-512]	; 0xfffffe00
    1014:	00746e69 	rsbseq	r6, r4, r9, ror #28
    1018:	66070403 	strvs	r0, [r7], -r3, lsl #8
    101c:	03000001 	movweq	r0, #1
    1020:	01170601 	tsteq	r7, r1, lsl #12
    1024:	02030000 	andeq	r0, r3, #0, 0
    1028:	00004305 	andeq	r4, r0, r5, lsl #6
    102c:	05040300 	streq	r0, [r4, #-768]	; 0xfffffd00
    1030:	000000cc 	andeq	r0, r0, ip, asr #1
    1034:	c7050803 	strgt	r0, [r5, -r3, lsl #16]
    1038:	03000000 	movweq	r0, #0
    103c:	01150801 	tsteq	r5, r1, lsl #16
    1040:	02030000 	andeq	r0, r3, #0, 0
    1044:	00018407 	andeq	r8, r1, r7, lsl #8
    1048:	07040300 	streq	r0, [r4, -r0, lsl #6]
    104c:	00000161 	andeq	r0, r0, r1, ror #2
    1050:	5c070803 	stcpl	8, cr0, [r7], {3}
    1054:	04000001 	streq	r0, [r0], #-1
    1058:	00000025 	andeq	r0, r0, r5, lsr #32
    105c:	0000007a 	andeq	r0, r0, sl, ror r0
    1060:	00002505 	andeq	r2, r0, r5, lsl #10
    1064:	5e060000 	cdppl	0, 0, cr0, cr6, cr0, {0}
    1068:	02000000 	andeq	r0, r0, #0, 0
    106c:	00860e1c 	addeq	r0, r6, ip, lsl lr
    1070:	04070000 	streq	r0, [r7], #-0
    1074:	0000006b 	andeq	r0, r0, fp, rrx
    1078:	00002504 	andeq	r2, r0, r4, lsl #10
    107c:	00009b00 	andeq	r9, r0, r0, lsl #22
    1080:	009b0500 	addseq	r0, fp, r0, lsl #10
    1084:	07000000 	streq	r0, [r0, -r0]
    1088:	0000a804 	andeq	sl, r0, r4, lsl #16
    108c:	08010300 	stmdaeq	r1, {r8, r9}
    1090:	0000011e 	andeq	r0, r0, lr, lsl r1
    1094:	0000a108 	andeq	sl, r0, r8, lsl #2
    1098:	05680600 	strbeq	r0, [r8, #-1536]!	; 0xfffffa00
    109c:	21020000 	mrscs	r0, (UNDEF: 2)
    10a0:	0000b90e 	andeq	fp, r0, lr, lsl #18
    10a4:	8c040700 	stchi	7, cr0, [r4], {-0}
    10a8:	09000000 	stmdbeq	r0, {}	; <UNPREDICTABLE>
    10ac:	004f0107 	subeq	r0, pc, r7, lsl #2
    10b0:	43030000 	movwmi	r0, #12288	; 0x3000
    10b4:	0000e606 	andeq	lr, r0, r6, lsl #12
    10b8:	03590a00 	cmpeq	r9, #0, 20
    10bc:	0a310000 	beq	c410c4 <__bss_end__+0xc35b3c>
    10c0:	00000363 	andeq	r0, r0, r3, ror #6
    10c4:	036d0a32 	cmneq	sp, #204800	; 0x32000
    10c8:	0a330000 	beq	cc10d0 <__bss_end__+0xcb5b48>
    10cc:	00000377 	andeq	r0, r0, r7, ror r3
    10d0:	07090034 	smladxeq	r9, r4, r0, r0
    10d4:	00002c04 	andeq	r2, r0, r4, lsl #24
    10d8:	06080100 	streq	r0, [r8], -r0, lsl #2
    10dc:	00000158 	andeq	r0, r0, r8, asr r1
    10e0:	00033f0b 	andeq	r3, r3, fp, lsl #30
    10e4:	20004c00 	andcs	r4, r0, r0, lsl #24
    10e8:	03460b20 	movteq	r0, #27424	; 0x6b20
    10ec:	00500000 	subseq	r0, r0, r0
    10f0:	bb0b2020 	bllt	2c9178 <__bss_end__+0x2bdbf0>
    10f4:	58000003 	stmdapl	r0, {r0, r1}
    10f8:	0b202000 	bleq	809100 <__bss_end__+0x7fdb78>
    10fc:	000003c2 	andeq	r0, r0, r2, asr #7
    1100:	2020005c 	eorcs	r0, r0, ip, asr r0
    1104:	00041a0b 	andeq	r1, r4, fp, lsl #20
    1108:	20006400 	andcs	r6, r0, r0, lsl #8
    110c:	04210b20 	strteq	r0, [r1], #-2848	; 0xfffff4e0
    1110:	00480000 	subeq	r0, r8, r0
    1114:	c90b2020 	stmdbgt	fp, {r5, sp}
    1118:	40000003 	andmi	r0, r0, r3
    111c:	0b202000 	bleq	809124 <__bss_end__+0x7fdb9c>
    1120:	000003d0 	ldrdeq	r0, [r0], -r0	; <UNPREDICTABLE>
    1124:	20200044 	eorcs	r0, r0, r4, asr #32
    1128:	0003a10b 	andeq	sl, r3, fp, lsl #2
    112c:	00b20400 	adcseq	r0, r2, r0, lsl #8
    1130:	03ab0b20 			; <UNDEFINED> instruction: 0x03ab0b20
    1134:	b2080000 	andlt	r0, r8, #0, 0
    1138:	f90b2000 			; <UNDEFINED> instruction: 0xf90b2000
    113c:	14000003 	strne	r0, [r0], #-3
    1140:	002000b2 	strhteq	r0, [r0], -r2
    1144:	0002f20c 	andeq	pc, r2, ip, lsl #4
    1148:	06480100 	strbeq	r0, [r8], -r0, lsl #2
    114c:	00008a0c 	andeq	r8, r0, ip, lsl #20
    1150:	00000040 	andeq	r0, r0, r0, asr #32
    1154:	01bf9c01 			; <UNDEFINED> instruction: 0x01bf9c01
    1158:	700d0000 	andvc	r0, sp, r0
    115c:	01006e69 	tsteq	r0, r9, ror #28
    1160:	002c2048 	eoreq	r2, ip, r8, asr #32
    1164:	0aa40000 	beq	fe90116c <__bss_end__+0xfe8f5be4>
    1168:	0a9c0000 	beq	fe701170 <__bss_end__+0xfe6f5be8>
    116c:	720e0000 	andvc	r0, lr, #0, 0
    1170:	01006765 	tsteq	r0, r5, ror #14
    1174:	002c0e4a 	eoreq	r0, ip, sl, asr #28
    1178:	0add0000 	beq	ff741180 <__bss_end__+0xff735bf8>
    117c:	0adb0000 	beq	ff6c1184 <__bss_end__+0xff6b5bfc>
    1180:	180f0000 	stmdane	pc, {}	; <UNPREDICTABLE>
    1184:	2300008a 	movwcs	r0, #138	; 0x8a
    1188:	10000004 	andne	r0, r0, r4
    118c:	00008a34 	andeq	r8, r0, r4, lsr sl
    1190:	0000042f 	andeq	r0, r0, pc, lsr #8
    1194:	000001b5 			; <UNDEFINED> instruction: 0x000001b5
    1198:	04510111 	ldrbeq	r0, [r1], #-273	; 0xfffffeef
    119c:	24007431 	strcs	r7, [r0], #-1073	; 0xfffffbcf
    11a0:	8a380f00 	bhi	e04da8 <__bss_end__+0xdf9820>
    11a4:	04230000 	strteq	r0, [r3], #-0
    11a8:	12000000 	andne	r0, r0, #0, 0
    11ac:	00000381 	andeq	r0, r0, r1, lsl #7
    11b0:	25053f01 	strcs	r3, [r5, #-3841]	; 0xfffff0ff
    11b4:	c0000000 	andgt	r0, r0, r0
    11b8:	4c000089 	stcmi	0, cr0, [r0], {137}	; 0x89
    11bc:	01000000 	mrseq	r0, (UNDEF: 0)
    11c0:	0002319c 	muleq	r2, ip, r1
    11c4:	69700d00 	ldmdbvs	r0!, {r8, sl, fp}^
    11c8:	3f01006e 	svccc	0x0001006e
    11cc:	00002c22 	andeq	r2, r0, r2, lsr #24
    11d0:	000af800 	andeq	pc, sl, r0, lsl #16
    11d4:	000af000 	andeq	pc, sl, r0
    11d8:	65720e00 	ldrbvs	r0, [r2, #-3584]!	; 0xfffff200
    11dc:	41010067 	tstmi	r1, r7, rrx
    11e0:	00002c0e 	andeq	r2, r0, lr, lsl #24
    11e4:	000b3100 	andeq	r3, fp, r0, lsl #2
    11e8:	000b2f00 	andeq	r2, fp, r0, lsl #30
    11ec:	65720e00 	ldrbvs	r0, [r2, #-3584]!	; 0xfffff200
    11f0:	42010074 	andmi	r0, r1, #116, 0	; 0x74
    11f4:	00002509 	andeq	r2, r0, r9, lsl #10
    11f8:	000b4600 	andeq	r4, fp, r0, lsl #12
    11fc:	000b4400 	andeq	r4, fp, r0, lsl #8
    1200:	89cc0f00 	stmibhi	ip, {r8, r9, sl, fp}^
    1204:	04230000 	strteq	r0, [r3], #-0
    1208:	dc0f0000 	stcle	0, cr0, [pc], {-0}
    120c:	3b000089 	blcc	1438 <__code_start__-0x6bc8>
    1210:	0f000004 	svceq	0x00000004
    1214:	000089f4 	strdeq	r8, [r0], -r4
    1218:	00000423 	andeq	r0, r0, r3, lsr #8
    121c:	02990c00 	addseq	r0, r9, #0, 24
    1220:	34010000 	strcc	r0, [r1], #-0
    1224:	00897006 	addeq	r7, r9, r6
    1228:	00005000 	andeq	r5, r0, r0
    122c:	b39c0100 	orrslt	r0, ip, #0
    1230:	0d000002 	stceq	0, cr0, [r0, #-8]
    1234:	006e6970 	rsbeq	r6, lr, r0, ror r9
    1238:	2c253401 	cfstrscs	mvf3, [r5], #-4
    123c:	61000000 	mrsvs	r0, (UNDEF: 0)
    1240:	5900000b 	stmdbpl	r0, {r0, r1, r3}
    1244:	0e00000b 	cdpeq	0, 0, cr0, cr0, cr11, {0}
    1248:	00676572 	rsbeq	r6, r7, r2, ror r5
    124c:	2c0e3601 	stccs	6, cr3, [lr], {1}
    1250:	9a000000 	bls	1258 <__code_start__-0x6da8>
    1254:	9800000b 	stmdals	r0, {r0, r1, r3}
    1258:	0f00000b 	svceq	0x0000000b
    125c:	0000897c 	andeq	r8, r0, ip, ror r9
    1260:	00000423 	andeq	r0, r0, r3, lsr #8
    1264:	00899010 	addeq	r9, r9, r0, lsl r0
    1268:	00043b00 	andeq	r3, r4, r0, lsl #22
    126c:	00028c00 	andeq	r8, r2, r0, lsl #24
    1270:	50011100 	andpl	r1, r1, r0, lsl #2
    1274:	00007502 	andeq	r7, r0, r2, lsl #10
    1278:	0089a410 	addeq	sl, r9, r0, lsl r4
    127c:	00042f00 	andeq	r2, r4, r0, lsl #30
    1280:	0002a000 	andeq	sl, r2, r0
    1284:	50011100 	andpl	r1, r1, r0, lsl #2
    1288:	00007502 	andeq	r7, r0, r2, lsl #10
    128c:	0089a80f 	addeq	sl, r9, pc, lsl #16
    1290:	0003e900 	andeq	lr, r3, r0, lsl #18
    1294:	89ac0f00 	stmibhi	ip!, {r8, r9, sl, fp}
    1298:	04230000 	strteq	r0, [r3], #-0
    129c:	0c000000 	stceq	0, cr0, [r0], {-0}
    12a0:	00000278 	andeq	r0, r0, r8, ror r2
    12a4:	20062701 	andcs	r2, r6, r1, lsl #14
    12a8:	50000089 	andpl	r0, r0, r9, lsl #1
    12ac:	01000000 	mrseq	r0, (UNDEF: 0)
    12b0:	0003359c 	muleq	r3, ip, r5
    12b4:	69700d00 	ldmdbvs	r0!, {r8, sl, fp}^
    12b8:	2701006e 	strcs	r0, [r1, -lr, rrx]
    12bc:	00002c24 	andeq	r2, r0, r4, lsr #24
    12c0:	000bb500 	andeq	fp, fp, r0, lsl #10
    12c4:	000bad00 	andeq	sl, fp, r0, lsl #26
    12c8:	65720e00 	ldrbvs	r0, [r2, #-3584]!	; 0xfffff200
    12cc:	29010067 	stmdbcs	r1, {r0, r1, r2, r5, r6}
    12d0:	00002c0e 	andeq	r2, r0, lr, lsl #24
    12d4:	000bee00 	andeq	lr, fp, r0, lsl #28
    12d8:	000bec00 	andeq	lr, fp, r0, lsl #24
    12dc:	892c0f00 	stmdbhi	ip!, {r8, r9, sl, fp}
    12e0:	04230000 	strteq	r0, [r3], #-0
    12e4:	40100000 	andsmi	r0, r0, r0
    12e8:	3b000089 	blcc	1514 <__code_start__-0x6aec>
    12ec:	0e000004 	cdpeq	0, 0, cr0, cr0, cr4, {0}
    12f0:	11000003 	tstne	r0, r3
    12f4:	75025001 	strvc	r5, [r2, #-1]
    12f8:	54100000 	ldrpl	r0, [r0], #-0
    12fc:	2f000089 	svccs	0x00000089
    1300:	22000004 	andcs	r0, r0, #4, 0
    1304:	11000003 	tstne	r0, r3
    1308:	75025001 	strvc	r5, [r2, #-1]
    130c:	580f0000 	stmdapl	pc, {}	; <UNPREDICTABLE>
    1310:	e9000089 	stmdb	r0, {r0, r3, r7}
    1314:	0f000003 	svceq	0x00000003
    1318:	0000895c 	andeq	r8, r0, ip, asr r9
    131c:	00000423 	andeq	r0, r0, r3, lsr #8
    1320:	03951200 	orrseq	r1, r5, #0, 4
    1324:	1a010000 	bne	4132c <__bss_end__+0x35da4>
    1328:	00002505 	andeq	r2, r0, r5, lsl #10
    132c:	0088ac00 	addeq	sl, r8, r0, lsl #24
    1330:	00007400 	andeq	r7, r0, r0, lsl #8
    1334:	d49c0100 	ldrle	r0, [ip], #256	; 0x100
    1338:	13000003 	movwne	r0, #3
    133c:	00000398 	muleq	r0, r8, r3
    1340:	2c1a1a01 			; <UNDEFINED> instruction: 0x2c1a1a01
    1344:	09000000 	stmdbeq	r0, {}	; <UNPREDICTABLE>
    1348:	0100000c 	tsteq	r0, ip
    134c:	1400000c 	strne	r0, [r0], #-12
    1350:	00000312 	andeq	r0, r0, r2, lsl r3
    1354:	000003e4 	andeq	r0, r0, r4, ror #7
    1358:	9db80305 	ldcls	3, cr0, [r8, #20]!
    135c:	bc0f0000 	stclt	0, cr0, [pc], {-0}
    1360:	23000088 	movwcs	r0, #136	; 0x88
    1364:	10000004 	andne	r0, r0, r4
    1368:	000088d0 	ldrdeq	r8, [r0], -r0
    136c:	0000043b 	andeq	r0, r0, fp, lsr r4
    1370:	00000392 	muleq	r0, r2, r3
    1374:	05500111 	ldrbeq	r0, [r0, #-273]	; 0xfffffeef
    1378:	00b2080c 	adcseq	r0, r2, ip, lsl #16
    137c:	08100020 	ldmdaeq	r0, {r5}
    1380:	47000089 	strmi	r0, [r0, -r9, lsl #1]
    1384:	ca000004 	bgt	139c <__code_start__-0x6c64>
    1388:	11000003 	tstne	r0, r3
    138c:	03055001 	movweq	r5, #20481	; 0x5001
    1390:	00009ba0 	andeq	r9, r0, r0, lsr #23
    1394:	05510111 	ldrbeq	r0, [r1, #-273]	; 0xfffffeef
    1398:	009d7403 	addseq	r7, sp, r3, lsl #8
    139c:	52011100 	andpl	r1, r1, #0
    13a0:	9db80305 	ldcls	3, cr0, [r8, #20]!
    13a4:	01110000 	tsteq	r1, r0
    13a8:	114c0153 	cmpne	ip, r3, asr r1
    13ac:	05007d02 	streq	r7, [r0, #-3330]	; 0xfffff2fe
    13b0:	009d8803 	addseq	r8, sp, r3, lsl #16
    13b4:	0c0f0000 	stceq	0, cr0, [pc], {-0}
    13b8:	53000089 	movwpl	r0, #137	; 0x89
    13bc:	00000004 	andeq	r0, r0, r4
    13c0:	0000a815 	andeq	sl, r0, r5, lsl r8
    13c4:	0003e400 	andeq	lr, r3, r0, lsl #8
    13c8:	002c1600 	eoreq	r1, ip, r0, lsl #12
    13cc:	000b0000 	andeq	r0, fp, r0
    13d0:	0003d408 	andeq	sp, r3, r8, lsl #8
    13d4:	04281700 	strteq	r1, [r8], #-1792	; 0xfffff900
    13d8:	14010000 	strne	r0, [r1], #-0
    13dc:	0088900d 	addeq	r9, r8, sp
    13e0:	00001c00 	andeq	r1, r0, r0, lsl #24
    13e4:	239c0100 	orrscs	r0, ip, #0
    13e8:	0f000004 	svceq	0x00000004
    13ec:	00008898 	muleq	r0, r8, r8
    13f0:	00000423 	andeq	r0, r0, r3, lsr #8
    13f4:	0088a418 	addeq	sl, r8, r8, lsl r4
    13f8:	00042f00 	andeq	r2, r4, r0, lsl #30
    13fc:	50011100 	andpl	r1, r1, r0, lsl #2
    1400:	b2140c05 	andslt	r0, r4, #1280	; 0x500
    1404:	01112000 	tsteq	r1, r0
    1408:	3d400351 	stclcc	3, cr0, [r0, #-324]	; 0xfffffebc
    140c:	19000024 	stmdbne	r0, {r2, r5}
    1410:	0000034d 	andeq	r0, r0, sp, asr #6
    1414:	0000034d 	andeq	r0, r0, sp, asr #6
    1418:	19069c02 	stmdbne	r6, {r1, sl, fp, ip, pc}
    141c:	00000414 	andeq	r0, r0, r4, lsl r4
    1420:	00000414 	andeq	r0, r0, r4, lsl r4
    1424:	1906ad02 	stmdbne	r6, {r1, r8, sl, fp, sp, pc}
    1428:	000003b5 			; <UNDEFINED> instruction: 0x000003b5
    142c:	000003b5 			; <UNDEFINED> instruction: 0x000003b5
    1430:	190ac202 	stmdbne	sl, {r1, r9, lr, pc}
    1434:	0000052a 	andeq	r0, r0, sl, lsr #10
    1438:	0000052a 	andeq	r0, r0, sl, lsr #10
    143c:	19062802 	stmdbne	r6, {r1, fp, sp}
    1440:	000000ff 	strdeq	r0, [r0], -pc	; <UNPREDICTABLE>
    1444:	000000ff 	strdeq	r0, [r0], -pc	; <UNPREDICTABLE>
    1448:	00066e02 	andeq	r6, r6, r2, lsl #28
    144c:	000003f2 	strdeq	r0, [r0], -r2
    1450:	04200004 	strteq	r0, [r0], #-4
    1454:	01040000 	mrseq	r0, (UNDEF: 4)
    1458:	000001bb 			; <UNDEFINED> instruction: 0x000001bb
    145c:	0004c40c 	andeq	ip, r4, ip, lsl #8
    1460:	0003d700 	andeq	sp, r3, r0, lsl #14
    1464:	008a4c00 	addeq	r4, sl, r0, lsl #24
    1468:	00011c00 	andeq	r1, r1, r0, lsl #24
    146c:	00092500 	andeq	r2, r9, r0, lsl #10
    1470:	05040200 	streq	r0, [r4, #-512]	; 0xfffffe00
    1474:	00746e69 	rsbseq	r6, r4, r9, ror #28
    1478:	66070403 	strvs	r0, [r7], -r3, lsl #8
    147c:	04000001 	streq	r0, [r0], #-1
    1480:	0000002c 	andeq	r0, r0, ip, lsr #32
    1484:	17060103 	strne	r0, [r6, -r3, lsl #2]
    1488:	03000001 	movweq	r0, #1
    148c:	00430502 	subeq	r0, r3, r2, lsl #10
    1490:	04030000 	streq	r0, [r3], #-0
    1494:	0000cc05 	andeq	ip, r0, r5, lsl #24
    1498:	05080300 	streq	r0, [r8, #-768]	; 0xfffffd00
    149c:	000000c7 	andeq	r0, r0, r7, asr #1
    14a0:	15080103 	strne	r0, [r8, #-259]	; 0xfffffefd
    14a4:	03000001 	movweq	r0, #1
    14a8:	01840702 	orreq	r0, r4, r2, lsl #14
    14ac:	73050000 	movwvc	r0, #20480	; 0x5000
    14b0:	03000001 	movweq	r0, #1
    14b4:	006e1934 	rsbeq	r1, lr, r4, lsr r9
    14b8:	04030000 	streq	r0, [r3], #-0
    14bc:	00016107 	andeq	r6, r1, r7, lsl #2
    14c0:	07080300 	streq	r0, [r8, -r0, lsl #6]
    14c4:	0000015c 	andeq	r0, r0, ip, asr r1
    14c8:	00002506 	andeq	r2, r0, r6, lsl #10
    14cc:	00008b00 	andeq	r8, r0, r0, lsl #22
    14d0:	00250700 	eoreq	r0, r5, r0, lsl #14
    14d4:	08000000 	stmdaeq	r0, {}	; <UNPREDICTABLE>
    14d8:	0000005e 	andeq	r0, r0, lr, asr r0
    14dc:	970e1c02 	strls	r1, [lr, -r2, lsl #24]
    14e0:	09000000 	stmdbeq	r0, {}	; <UNPREDICTABLE>
    14e4:	00007c04 	andeq	r7, r0, r4, lsl #24
    14e8:	00250600 	eoreq	r0, r5, r0, lsl #12
    14ec:	00ac0000 	adceq	r0, ip, r0
    14f0:	ac070000 	stcge	0, cr0, [r7], {-0}
    14f4:	00000000 	andeq	r0, r0, r0
    14f8:	00b90409 	adcseq	r0, r9, r9, lsl #8
    14fc:	01030000 	mrseq	r0, (UNDEF: 3)
    1500:	00011e08 	andeq	r1, r1, r8, lsl #28
    1504:	00b20400 	adcseq	r0, r2, r0, lsl #8
    1508:	68080000 	stmdavs	r8, {}	; <UNPREDICTABLE>
    150c:	02000005 	andeq	r0, r0, #5, 0
    1510:	00ca0e21 	sbceq	r0, sl, r1, lsr #28
    1514:	04090000 	streq	r0, [r9], #-0
    1518:	0000009d 	muleq	r0, sp, r0
    151c:	5401070a 	strpl	r0, [r1], #-1802	; 0xfffff8f6
    1520:	04000000 	streq	r0, [r0], #-0
    1524:	010f0e0c 	tsteq	pc, ip, lsl #28
    1528:	000b0000 	andeq	r0, fp, r0
    152c:	00000005 	andeq	r0, r0, r5
    1530:	00045e0b 	andeq	r5, r4, fp, lsl #28
    1534:	790b0100 	stmdbvc	fp, {r8}
    1538:	04000004 	streq	r0, [r0], #-4
    153c:	0004880b 	andeq	r8, r4, fp, lsl #16
    1540:	970b0500 	strls	r0, [fp, -r0, lsl #10]
    1544:	06000004 	streq	r0, [r0], -r4
    1548:	0004a60b 	andeq	sl, r4, fp, lsl #12
    154c:	ec0b0700 	stc	7, cr0, [fp], {-0}
    1550:	03000004 	movweq	r0, #4
    1554:	0004b50b 	andeq	fp, r4, fp, lsl #10
    1558:	05000200 	streq	r0, [r0, #-512]	; 0xfffffe00
    155c:	000004d6 	ldrdeq	r0, [r0], -r6
    1560:	d0031504 	andle	r1, r3, r4, lsl #10
    1564:	0c000000 	stceq	0, cr0, [r0], {-0}
    1568:	00000449 	andeq	r0, r0, r9, asr #8
    156c:	33171d01 	tstcc	r7, #64	; 0x40
    1570:	1c000000 	stcne	0, cr0, [r0], {-0}
    1574:	0c202000 	stceq	0, cr2, [r0], #-0
    1578:	0000043f 	andeq	r0, r0, pc, lsr r4
    157c:	33171e01 	tstcc	r7, #1, 28
    1580:	28000000 	stmdacs	r0, {}	; <UNPREDICTABLE>
    1584:	0c202000 	stceq	0, cr2, [r0], #-0
    1588:	000004e2 	andeq	r0, r0, r2, ror #9
    158c:	33171f01 	tstcc	r7, #1, 30
    1590:	34000000 	strcc	r0, [r0], #-0
    1594:	0d202000 	stceq	0, cr2, [r0, #-0]
    1598:	00000123 	andeq	r0, r0, r3, lsr #2
    159c:	25055501 	strcs	r5, [r5, #-1281]	; 0xfffffaff
    15a0:	34000000 	strcc	r0, [r0], #-0
    15a4:	3400008b 	strcc	r0, [r0], #-139	; 0xffffff75
    15a8:	01000000 	mrseq	r0, (UNDEF: 0)
    15ac:	0001bb9c 	muleq	r1, ip, fp
    15b0:	69700e00 	ldmdbvs	r0!, {r9, sl, fp}^
    15b4:	5501006e 	strpl	r0, [r1, #-110]	; 0xffffff92
    15b8:	00002c18 	andeq	r2, r0, r8, lsl ip
    15bc:	000c4800 	andeq	r4, ip, r0, lsl #16
    15c0:	000c4000 	andeq	r4, ip, r0
    15c4:	04fb0f00 	ldrbteq	r0, [fp], #3840	; 0xf00
    15c8:	58010000 	stmdapl	r1, {}	; <UNPREDICTABLE>
    15cc:	00002c0e 	andeq	r2, r0, lr, lsl #24
    15d0:	000c8800 	andeq	r8, ip, r0, lsl #16
    15d4:	000c8200 	andeq	r8, ip, r0, lsl #4
    15d8:	666f1000 	strbtvs	r1, [pc], -r0
    15dc:	59010066 	stmdbpl	r1, {r1, r2, r5, r6}
    15e0:	00002c0e 	andeq	r2, r0, lr, lsl #24
    15e4:	000cc800 	andeq	ip, ip, r0, lsl #16
    15e8:	000cc600 	andeq	ip, ip, r0, lsl #12
    15ec:	8b501100 	blhi	14059f4 <__bss_end__+0x13fa46c>
    15f0:	03dd0000 	bicseq	r0, sp, #0, 0
    15f4:	01120000 	tsteq	r2, r0
    15f8:	01f30b50 	mvnseq	r0, r0, asr fp
    15fc:	23253550 			; <UNDEFINED> instruction: 0x23253550
    1600:	818080b4 	strhhi	r8, [r0, r4]
    1604:	13000002 	movwne	r0, #2
    1608:	00000453 	andeq	r0, r0, r3, asr r4
    160c:	18064e01 	stmdane	r6, {r0, r9, sl, fp, lr}
    1610:	1c00008b 	stcne	0, cr0, [r0], {139}	; 0x8b
    1614:	01000000 	mrseq	r0, (UNDEF: 0)
    1618:	0002169c 	muleq	r2, ip, r6
    161c:	69700e00 	ldmdbvs	r0!, {r9, sl, fp}^
    1620:	4e01006e 	cdpmi	0, 0, cr0, cr1, cr14, {3}
    1624:	00002c1a 	andeq	r2, r0, sl, lsl ip
    1628:	000ce300 	andeq	lr, ip, r0, lsl #6
    162c:	000cdb00 	andeq	sp, ip, r0, lsl #22
    1630:	00760e00 	rsbseq	r0, r6, r0, lsl #28
    1634:	2c284e01 	stccs	14, cr4, [r8], #-4
    1638:	25000000 	strcs	r0, [r0, #-0]
    163c:	1d00000d 	stcne	0, cr0, [r0, #-52]	; 0xffffffcc
    1640:	1400000d 	strne	r0, [r0], #-13
    1644:	00008b28 	andeq	r8, r0, r8, lsr #22
    1648:	0000029e 	muleq	r0, lr, r2
    164c:	0000020c 	andeq	r0, r0, ip, lsl #4
    1650:	03500112 	cmpeq	r0, #-2147483644	; 0x80000004
    1654:	005001f3 	ldrsheq	r0, [r0], #-19	; 0xffffffed
    1658:	008b3015 	addeq	r3, fp, r5, lsl r0
    165c:	00025700 	andeq	r5, r2, r0, lsl #14
    1660:	c4130000 	ldrgt	r0, [r3], #-0
    1664:	01000002 	tsteq	r0, r2
    1668:	8b080649 	blhi	202f94 <__bss_end__+0x1f7a0c>
    166c:	00100000 	andseq	r0, r0, r0
    1670:	9c010000 	stcls	0, cr0, [r1], {-0}
    1674:	00000257 	andeq	r0, r0, r7, asr r2
    1678:	6e69700e 	cdpvs	0, 6, cr7, cr9, cr14, {0}
    167c:	1e490100 	dvfnee	f0, f1, f0
    1680:	0000002c 	andeq	r0, r0, ip, lsr #32
    1684:	00000d63 	andeq	r0, r0, r3, ror #26
    1688:	00000d5f 	andeq	r0, r0, pc, asr sp
    168c:	008b1411 	addeq	r1, fp, r1, lsl r4
    1690:	00032600 	andeq	r2, r3, r0, lsl #12
    1694:	50011200 	andpl	r1, r1, r0, lsl #4
    1698:	5001f303 	andpl	pc, r1, r3, lsl #6
    169c:	01510112 	cmpeq	r1, r2, lsl r1
    16a0:	13000030 	movwne	r0, #48	; 0x30
    16a4:	0000002b 	andeq	r0, r0, fp, lsr #32
    16a8:	e4064201 	str	r4, [r6], #-513	; 0xfffffdff
    16ac:	2400008a 	strcs	r0, [r0], #-138	; 0xffffff76
    16b0:	01000000 	mrseq	r0, (UNDEF: 0)
    16b4:	00029e9c 	muleq	r2, ip, lr
    16b8:	69700e00 	ldmdbvs	r0!, {r9, sl, fp}^
    16bc:	4201006e 	andmi	r0, r1, #110, 0	; 0x6e
    16c0:	00002c1c 	andeq	r2, r0, ip, lsl ip
    16c4:	000d8800 	andeq	r8, sp, r0, lsl #16
    16c8:	000d8400 	andeq	r8, sp, r0, lsl #8
    16cc:	8b001100 	blhi	5ad4 <__code_start__-0x252c>
    16d0:	03e90000 	mvneq	r0, #0, 0
    16d4:	01120000 	tsteq	r2, r0
    16d8:	280c0550 	stmdacs	ip, {r4, r6, r8, sl}
    16dc:	12202000 	eorne	r2, r0, #0, 0
    16e0:	31055101 	tstcc	r5, r1, lsl #2
    16e4:	245001f3 	ldrbcs	r0, [r0], #-499	; 0xfffffe0d
    16e8:	a0130000 	andsge	r0, r3, r0
    16ec:	01000000 	mrseq	r0, (UNDEF: 0)
    16f0:	8ac0063b 	bhi	ff002fe4 <__bss_end__+0xfeff7a5c>
    16f4:	00240000 	eoreq	r0, r4, r0
    16f8:	9c010000 	stcls	0, cr0, [r1], {-0}
    16fc:	000002e5 	andeq	r0, r0, r5, ror #5
    1700:	6e69700e 	cdpvs	0, 6, cr7, cr9, cr14, {0}
    1704:	1b3b0100 	blne	ec1b0c <__bss_end__+0xeb6584>
    1708:	0000002c 	andeq	r0, r0, ip, lsr #32
    170c:	00000dad 	andeq	r0, r0, sp, lsr #27
    1710:	00000da9 	andeq	r0, r0, r9, lsr #27
    1714:	008adc11 	addeq	sp, sl, r1, lsl ip
    1718:	0003e900 	andeq	lr, r3, r0, lsl #18
    171c:	50011200 	andpl	r1, r1, r0, lsl #4
    1720:	001c0c05 	andseq	r0, ip, r5, lsl #24
    1724:	01122020 	tsteq	r2, r0, lsr #32
    1728:	f3310551 	vqrshl.u64	q0, <illegal reg q0.5>, <illegal reg q0.5>
    172c:	00245001 	eoreq	r5, r4, r1
    1730:	006a1300 	rsbeq	r1, sl, r0, lsl #6
    1734:	36010000 	strcc	r0, [r1], -r0
    1738:	008ab006 	addeq	fp, sl, r6
    173c:	00001000 	andeq	r1, r0, r0
    1740:	269c0100 	ldrcs	r0, [ip], r0, lsl #2
    1744:	0e000003 	cdpeq	0, 0, cr0, cr0, cr3, {0}
    1748:	006e6970 	rsbeq	r6, lr, r0, ror r9
    174c:	2c1f3601 	ldccs	6, cr3, [pc], {1}
    1750:	d2000000 	andle	r0, r0, #0, 0
    1754:	ce00000d 	cdpgt	0, 0, cr0, cr0, cr13, {0}
    1758:	1100000d 	tstne	r0, sp
    175c:	00008abc 			; <UNDEFINED> instruction: 0x00008abc
    1760:	00000326 	andeq	r0, r0, r6, lsr #6
    1764:	03500112 	cmpeq	r0, #-2147483644	; 0x80000004
    1768:	125001f3 	subsne	r0, r0, #-1073741764	; 0xc000003c
    176c:	31015101 	tstcc	r1, r1, lsl #2
    1770:	10130000 	andsne	r0, r3, r0
    1774:	01000005 	tsteq	r0, r5
    1778:	8a4c0628 	bhi	1303020 <__bss_end__+0x12f7a98>
    177c:	00640000 	rsbeq	r0, r4, r0
    1780:	9c010000 	stcls	0, cr0, [r1], {-0}
    1784:	000003c1 	andeq	r0, r0, r1, asr #7
    1788:	6e69700e 	cdpvs	0, 6, cr7, cr9, cr14, {0}
    178c:	21280100 			; <UNDEFINED> instruction: 0x21280100
    1790:	0000002c 	andeq	r0, r0, ip, lsr #32
    1794:	00000df7 	strdeq	r0, [r0], -r7
    1798:	00000df3 	strdeq	r0, [r0], -r3
    179c:	0004d116 	andeq	sp, r4, r6, lsl r1
    17a0:	32280100 	eorcc	r0, r8, #0
    17a4:	0000010f 	andeq	r0, r0, pc, lsl #2
    17a8:	00000e1c 	andeq	r0, r0, ip, lsl lr
    17ac:	00000e18 	andeq	r0, r0, r8, lsl lr
    17b0:	66666f10 	uqadd16vs	r6, r6, r0
    17b4:	0e2d0100 	sufeqe	f0, f5, f0
    17b8:	0000002c 	andeq	r0, r0, ip, lsr #32
    17bc:	00000e3f 	andeq	r0, r0, pc, lsr lr
    17c0:	00000e3d 	andeq	r0, r0, sp, lsr lr
    17c4:	01006710 	tsteq	r0, r0, lsl r7
    17c8:	002c0e2e 	eoreq	r0, ip, lr, lsr #28
    17cc:	0e540000 	cdpeq	0, 5, cr0, cr4, cr0, {0}
    17d0:	0e520000 	cdpeq	0, 5, cr0, cr2, cr0, {0}
    17d4:	76100000 	ldrvc	r0, [r0], -r0
    17d8:	0e300100 	rsfeqs	f0, f0, f0
    17dc:	0000002c 	andeq	r0, r0, ip, lsr #32
    17e0:	00000e6f 	andeq	r0, r0, pc, ror #28
    17e4:	00000e67 	andeq	r0, r0, r7, ror #28
    17e8:	008a9414 	addeq	r9, sl, r4, lsl r4
    17ec:	0003dd00 	andeq	sp, r3, r0, lsl #26
    17f0:	0003b000 	andeq	fp, r3, r0
    17f4:	50011200 	andpl	r1, r1, r0, lsl #4
    17f8:	00007602 	andeq	r7, r0, r2, lsl #12
    17fc:	008aa811 	addeq	sl, sl, r1, lsl r8
    1800:	0003e900 	andeq	lr, r3, r0, lsl #18
    1804:	50011200 	andpl	r1, r1, r0, lsl #4
    1808:	00007602 	andeq	r7, r0, r2, lsl #12
    180c:	046f1700 	strbteq	r1, [pc], #-1792	; 1814 <__code_start__-0x67ec>
    1810:	b1020000 	mrslt	r0, (UNDEF: 2)
    1814:	00006218 	andeq	r6, r0, r8, lsl r2
    1818:	03dd0300 	bicseq	r0, sp, #0, 6
    181c:	78180000 	ldmdavc	r8, {}	; <UNPREDICTABLE>
    1820:	2bb10200 	blcs	fec42028 <__bss_end__+0xfec36aa0>
    1824:	00000062 	andeq	r0, r0, r2, rrx
    1828:	03b51900 			; <UNDEFINED> instruction: 0x03b51900
    182c:	03b50000 			; <UNDEFINED> instruction: 0x03b50000
    1830:	c2020000 	andgt	r0, r2, #0, 0
    1834:	0414190a 	ldreq	r1, [r4], #-2314	; 0xfffff6f6
    1838:	04140000 	ldreq	r0, [r4], #-0
    183c:	ad020000 	stcge	0, cr0, [r2, #-0]
    1840:	019d0006 	orrseq	r0, sp, r6
    1844:	00040000 	andeq	r0, r4, r0
    1848:	000005ab 	andeq	r0, r0, fp, lsr #11
    184c:	01bb0104 			; <UNDEFINED> instruction: 0x01bb0104
    1850:	450c0000 	strmi	r0, [ip, #-0]
    1854:	d7000005 	strle	r0, [r0, -r5]
    1858:	88000003 	stmdahi	r0, {r0, r1}
    185c:	5800008c 	stmdapl	r0, {r2, r3, r7}
    1860:	f1000000 	cps	#0
    1864:	0200000a 	andeq	r0, r0, #10, 0
    1868:	00000531 	andeq	r0, r0, r1, lsr r5
    186c:	311b2802 	tstcc	fp, r2, lsl #16
    1870:	03000000 	movweq	r0, #0
    1874:	00000555 	andeq	r0, r0, r5, asr r5
    1878:	48000404 	stmdami	r0, {r2, sl}
    187c:	04000000 	streq	r0, [r0], #-0
    1880:	00000540 	andeq	r0, r0, r0, asr #10
    1884:	00000048 	andeq	r0, r0, r8, asr #32
    1888:	04050000 	streq	r0, [r5], #-0
    188c:	00055702 	andeq	r5, r5, r2, lsl #14
    1890:	18630200 	stmdane	r3!, {r9}^
    1894:	00000025 	andeq	r0, r0, r5, lsr #32
    1898:	69050406 	stmdbvs	r5, {r1, r2, sl}
    189c:	0700746e 	streq	r7, [r0, -lr, ror #8]
    18a0:	01660704 	cmneq	r6, r4, lsl #14
    18a4:	01070000 	mrseq	r0, (UNDEF: 7)
    18a8:	00011706 	andeq	r1, r1, r6, lsl #14
    18ac:	05020700 	streq	r0, [r2, #-1792]	; 0xfffff900
    18b0:	00000043 	andeq	r0, r0, r3, asr #32
    18b4:	cc050407 	cfstrsgt	mvf0, [r5], {7}
    18b8:	07000000 	streq	r0, [r0, -r0]
    18bc:	00c70508 	sbceq	r0, r7, r8, lsl #10
    18c0:	01070000 	mrseq	r0, (UNDEF: 7)
    18c4:	00011508 	andeq	r1, r1, r8, lsl #10
    18c8:	07020700 	streq	r0, [r2, -r0, lsl #14]
    18cc:	00000184 	andeq	r0, r0, r4, lsl #3
    18d0:	61070407 	tstvs	r7, r7, lsl #8
    18d4:	07000001 	streq	r0, [r0, -r1]
    18d8:	015c0708 	cmpeq	ip, r8, lsl #14
    18dc:	56080000 	strpl	r0, [r8], -r0
    18e0:	ab000000 	blge	18e8 <__code_start__-0x6718>
    18e4:	09000000 	stmdbeq	r0, {}	; <UNPREDICTABLE>
    18e8:	00000056 	andeq	r0, r0, r6, asr r0
    18ec:	005e0a00 	subseq	r0, lr, r0, lsl #20
    18f0:	1c030000 	stcne	0, cr0, [r3], {-0}
    18f4:	0000b70e 	andeq	fp, r0, lr, lsl #14
    18f8:	9c040b00 			; <UNDEFINED> instruction: 0x9c040b00
    18fc:	08000000 	stmdaeq	r0, {}	; <UNPREDICTABLE>
    1900:	00000056 	andeq	r0, r0, r6, asr r0
    1904:	000000cc 	andeq	r0, r0, ip, asr #1
    1908:	0000cc09 	andeq	ip, r0, r9, lsl #24
    190c:	040b0000 	streq	r0, [fp], #-0
    1910:	000000d9 	ldrdeq	r0, [r0], -r9
    1914:	1e080107 	adfnee	f0, f0, f7
    1918:	0c000001 	stceq	0, cr0, [r0], {1}
    191c:	000000d2 	ldrdeq	r0, [r0], -r2
    1920:	0005680a 	andeq	r6, r5, sl, lsl #16
    1924:	0e210300 	cdpeq	3, 2, cr0, cr1, cr0, {0}
    1928:	000000ea 	andeq	r0, r0, sl, ror #1
    192c:	00bd040b 	adcseq	r0, sp, fp, lsl #8
    1930:	2a0d0000 	bcs	341938 <__bss_end__+0x3363b0>
    1934:	01000005 	tsteq	r0, r5
    1938:	00560506 	subseq	r0, r6, r6, lsl #10
    193c:	8c880000 	stchi	0, cr0, [r8], {0}
    1940:	00580000 	subseq	r0, r8, r0
    1944:	9c010000 	stcls	0, cr0, [r1], {-0}
    1948:	00000183 	andeq	r0, r0, r3, lsl #3
    194c:	746d660e 	strbtvc	r6, [sp], #-1550	; 0xfffff9f2
    1950:	18060100 	stmdane	r6, {r8}
    1954:	000000cc 	andeq	r0, r0, ip, asr #1
    1958:	0f709102 	svceq	0x00709102
    195c:	66756210 			; <UNDEFINED> instruction: 0x66756210
    1960:	11080100 	mrsne	r0, (UNDEF: 24)
    1964:	00000183 	andeq	r0, r0, r3, lsl #3
    1968:	b1880305 	orrlt	r0, r8, r5, lsl #6
    196c:	22110000 	andscs	r0, r1, #0, 0
    1970:	01000005 	tsteq	r0, r5
    1974:	004a0d09 	subeq	r0, sl, r9, lsl #26
    1978:	91020000 	mrsls	r0, (UNDEF: 2)
    197c:	7a73125c 	bvc	1cc62f4 <__bss_end__+0x1cbad6c>
    1980:	0d0c0100 	stfeqs	f0, [ip, #-0]
    1984:	00000056 	andeq	r0, r0, r6, asr r0
    1988:	00000eb1 			; <UNDEFINED> instruction: 0x00000eb1
    198c:	00000eab 	andeq	r0, r0, fp, lsr #29
    1990:	008cb013 	addeq	fp, ip, r3, lsl r0
    1994:	00019400 	andeq	r9, r1, r0, lsl #8
    1998:	00017600 	andeq	r7, r1, r0, lsl #12
    199c:	50011400 	andpl	r1, r1, r0, lsl #8
    19a0:	14007502 	strne	r7, [r0], #-1282	; 0xfffffafe
    19a4:	0a035101 	beq	d5db0 <__bss_end__+0xca828>
    19a8:	01140400 	tsteq	r4, r0, lsl #8
    19ac:	48910352 	ldmmi	r1, {r1, r4, r6, r8, r9}
    19b0:	53011406 	movwpl	r1, #5126	; 0x1406
    19b4:	004c9102 	subeq	r9, ip, r2, lsl #2
    19b8:	008cc415 	addeq	ip, ip, r5, lsl r4
    19bc:	50011400 	andpl	r1, r1, r0, lsl #8
    19c0:	00007502 	andeq	r7, r0, r2, lsl #10
    19c4:	00d21600 	sbcseq	r1, r2, r0, lsl #12
    19c8:	01940000 	orrseq	r0, r4, r0
    19cc:	5d170000 	ldcpl	0, cr0, [r7, #-0]
    19d0:	ff000000 			; <UNDEFINED> instruction: 0xff000000
    19d4:	27180003 	ldrcs	r0, [r8, -r3]
    19d8:	27000005 	strcs	r0, [r0, -r5]
    19dc:	05000005 	streq	r0, [r0, #-5]
    19e0:	f3000502 	vrshl.u8	d0, d2, d0
    19e4:	04000000 	streq	r0, [r0], #-0
    19e8:	0006ed00 	andeq	lr, r6, r0, lsl #26
    19ec:	bb010400 	bllt	429f4 <__bss_end__+0x3746c>
    19f0:	0c000001 	stceq	0, cr0, [r0], {1}
    19f4:	0000056d 	andeq	r0, r0, sp, ror #10
    19f8:	000003d7 	ldrdeq	r0, [r0], -r7
    19fc:	00008ce0 	andeq	r8, r0, r0, ror #25
    1a00:	00000034 	andeq	r0, r0, r4, lsr r0
    1a04:	00000c05 	andeq	r0, r0, r5, lsl #24
    1a08:	69050402 	stmdbvs	r5, {r1, sl}
    1a0c:	0300746e 	movweq	r7, #1134	; 0x46e
    1a10:	01660704 	cmneq	r6, r4, lsl #14
    1a14:	01030000 	mrseq	r0, (UNDEF: 3)
    1a18:	00011706 	andeq	r1, r1, r6, lsl #14
    1a1c:	05020300 	streq	r0, [r2, #-768]	; 0xfffffd00
    1a20:	00000043 	andeq	r0, r0, r3, asr #32
    1a24:	cc050403 	cfstrsgt	mvf0, [r5], {3}
    1a28:	03000000 	movweq	r0, #0
    1a2c:	00c70508 	sbceq	r0, r7, r8, lsl #10
    1a30:	01030000 	mrseq	r0, (UNDEF: 3)
    1a34:	00011508 	andeq	r1, r1, r8, lsl #10
    1a38:	07020300 	streq	r0, [r2, -r0, lsl #6]
    1a3c:	00000184 	andeq	r0, r0, r4, lsl #3
    1a40:	61070403 	tstvs	r7, r3, lsl #8
    1a44:	03000001 	movweq	r0, #1
    1a48:	015c0708 	cmpeq	ip, r8, lsl #14
    1a4c:	25040000 	strcs	r0, [r4, #-0]
    1a50:	7a000000 	bvc	1a58 <__code_start__-0x65a8>
    1a54:	05000000 	streq	r0, [r0, #-0]
    1a58:	00000025 	andeq	r0, r0, r5, lsr #32
    1a5c:	005e0600 	subseq	r0, lr, r0, lsl #12
    1a60:	1c020000 	stcne	0, cr0, [r2], {-0}
    1a64:	0000860e 	andeq	r8, r0, lr, lsl #12
    1a68:	6b040700 	blvs	103670 <__bss_end__+0xf80e8>
    1a6c:	04000000 	streq	r0, [r0], #-0
    1a70:	00000025 	andeq	r0, r0, r5, lsr #32
    1a74:	0000009b 	muleq	r0, fp, r0
    1a78:	00009b05 	andeq	r9, r0, r5, lsl #22
    1a7c:	04070000 	streq	r0, [r7], #-0
    1a80:	000000a8 	andeq	r0, r0, r8, lsr #1
    1a84:	1e080103 	adfnee	f0, f0, f3
    1a88:	08000001 	stmdaeq	r0, {r0}
    1a8c:	000000a1 	andeq	r0, r0, r1, lsr #1
    1a90:	00056806 	andeq	r6, r5, r6, lsl #16
    1a94:	0e210200 	cdpeq	2, 2, cr0, cr1, cr0, {0}
    1a98:	000000b9 	strheq	r0, [r0], -r9
    1a9c:	008c0407 	addeq	r0, ip, r7, lsl #8
    1aa0:	ad090000 	stcge	0, cr0, [r9, #-0]
    1aa4:	01000000 	mrseq	r0, (UNDEF: 0)
    1aa8:	0305070c 	movweq	r0, #22284	; 0x570c
    1aac:	0000a174 	andeq	sl, r0, r4, ror r1
    1ab0:	00055f0a 	andeq	r5, r5, sl, lsl #30
    1ab4:	05040100 	streq	r0, [r4, #-256]	; 0xffffff00
    1ab8:	00000025 	andeq	r0, r0, r5, lsr #32
    1abc:	00008ce0 	andeq	r8, r0, r0, ror #25
    1ac0:	00000034 	andeq	r0, r0, r4, lsr r0
    1ac4:	700b9c01 	andvc	r9, fp, r1, lsl #24
    1ac8:	1f040100 	svcne	0x00040100
    1acc:	0000009b 	muleq	r0, fp, r0
    1ad0:	00000ede 	ldrdeq	r0, [r0], -lr
    1ad4:	00000eda 	ldrdeq	r0, [r0], -sl
    1ad8:	0ad70000 	beq	ff5c1ae0 <__bss_end__+0xff5b6558>
    1adc:	00040000 	andeq	r0, r4, r0
    1ae0:	0000078b 	andeq	r0, r0, fp, lsl #15
    1ae4:	01bb0104 			; <UNDEFINED> instruction: 0x01bb0104
    1ae8:	8c0c0000 	stchi	0, cr0, [ip], {-0}
    1aec:	d7000005 	strle	r0, [r0, -r5]
    1af0:	14000003 	strne	r0, [r0], #-3
    1af4:	4000008d 	andmi	r0, r0, sp, lsl #1
    1af8:	ae000007 	cdpge	0, 0, cr0, cr0, cr7, {0}
    1afc:	0200000c 	andeq	r0, r0, #12, 0
    1b00:	6e690504 	cdpvs	5, 6, cr0, cr9, cr4, {0}
    1b04:	04030074 	streq	r0, [r3], #-116	; 0xffffff8c
    1b08:	00016607 	andeq	r6, r1, r7, lsl #12
    1b0c:	06010300 	streq	r0, [r1], -r0, lsl #6
    1b10:	00000117 	andeq	r0, r0, r7, lsl r1
    1b14:	43050203 	movwmi	r0, #20995	; 0x5203
    1b18:	03000000 	movweq	r0, #0
    1b1c:	00cc0504 	sbceq	r0, ip, r4, lsl #10
    1b20:	08030000 	stmdaeq	r3, {}	; <UNPREDICTABLE>
    1b24:	0000c705 	andeq	ip, r0, r5, lsl #14
    1b28:	08010300 	stmdaeq	r1, {r8, r9}
    1b2c:	00000115 	andeq	r0, r0, r5, lsl r1
    1b30:	84070203 	strhi	r0, [r7], #-515	; 0xfffffdfd
    1b34:	04000001 	streq	r0, [r0], #-1
    1b38:	00000173 	andeq	r0, r0, r3, ror r1
    1b3c:	69193402 	ldmdbvs	r9, {r1, sl, ip, sp}
    1b40:	03000000 	movweq	r0, #0
    1b44:	01610704 	cmneq	r1, r4, lsl #14
    1b48:	83040000 	movwhi	r0, #16384	; 0x4000
    1b4c:	02000005 	andeq	r0, r0, #5, 0
    1b50:	007c1937 	rsbseq	r1, ip, r7, lsr r9
    1b54:	08030000 	stmdaeq	r3, {}	; <UNPREDICTABLE>
    1b58:	00015c07 	andeq	r5, r1, r7, lsl #24
    1b5c:	00250500 	eoreq	r0, r5, r0, lsl #10
    1b60:	00920000 	addseq	r0, r2, r0
    1b64:	25060000 	strcs	r0, [r6, #-0]
    1b68:	00000000 	andeq	r0, r0, r0
    1b6c:	00005e07 	andeq	r5, r0, r7, lsl #28
    1b70:	0e1c0300 	cdpeq	3, 1, cr0, cr12, cr0, {0}
    1b74:	0000009e 	muleq	r0, lr, r0
    1b78:	00830408 	addeq	r0, r3, r8, lsl #8
    1b7c:	25050000 	strcs	r0, [r5, #-0]
    1b80:	b3000000 	movwlt	r0, #0
    1b84:	06000000 	streq	r0, [r0], -r0
    1b88:	000000b3 	strheq	r0, [r0], -r3
    1b8c:	c0040800 	andgt	r0, r4, r0, lsl #16
    1b90:	03000000 	movweq	r0, #0
    1b94:	011e0801 	tsteq	lr, r1, lsl #16
    1b98:	b9090000 	stmdblt	r9, {}	; <UNPREDICTABLE>
    1b9c:	07000000 	streq	r0, [r0, -r0]
    1ba0:	00000568 	andeq	r0, r0, r8, ror #10
    1ba4:	d10e2103 	tstle	lr, r3, lsl #2
    1ba8:	08000000 	stmdaeq	r0, {}	; <UNPREDICTABLE>
    1bac:	0000a404 	andeq	sl, r0, r4, lsl #8
    1bb0:	059f0700 	ldreq	r0, [pc, #1792]	; 22b8 <__code_start__-0x5d48>
    1bb4:	0b040000 	bleq	101bbc <__bss_end__+0xf6634>
    1bb8:	0000b90d 	andeq	fp, r0, sp, lsl #18
    1bbc:	061f0700 	ldreq	r0, [pc], -r0, lsl #14
    1bc0:	0c040000 	stceq	0, cr0, [r4], {-0}
    1bc4:	0000b90d 	andeq	fp, r0, sp, lsl #18
    1bc8:	05ae0700 	streq	r0, [lr, #1792]!	; 0x700
    1bcc:	0d040000 	stceq	0, cr0, [r4, #-0]
    1bd0:	0000b90d 	andeq	fp, r0, sp, lsl #18
    1bd4:	05d70700 	ldrbeq	r0, [r7, #1792]	; 0x700
    1bd8:	0e040000 	cdpeq	0, 0, cr0, cr4, cr0, {0}
    1bdc:	0000b90d 	andeq	fp, r0, sp, lsl #18
    1be0:	06480700 	strbeq	r0, [r8], -r0, lsl #14
    1be4:	0f040000 	svceq	0x00040000
    1be8:	0000b90d 	andeq	fp, r0, sp, lsl #18
    1bec:	05c20700 	strbeq	r0, [r2, #1792]	; 0x700
    1bf0:	10040000 	andne	r0, r4, r0
    1bf4:	0000b90d 	andeq	fp, r0, sp, lsl #18
    1bf8:	06570700 	ldrbeq	r0, [r7], -r0, lsl #14
    1bfc:	11040000 	mrsne	r0, (UNDEF: 4)
    1c00:	0000b90d 	andeq	fp, r0, sp, lsl #18
    1c04:	05e30700 	strbeq	r0, [r3, #1792]!	; 0x700
    1c08:	12040000 	andne	r0, r4, #0, 0
    1c0c:	0000b90d 	andeq	fp, r0, sp, lsl #18
    1c10:	05310400 	ldreq	r0, [r1, #-1024]!	; 0xfffffc00
    1c14:	28050000 	stmdacs	r5, {}	; <UNPREDICTABLE>
    1c18:	0001431b 	andeq	r4, r1, fp, lsl r3
    1c1c:	05550a00 	ldrbeq	r0, [r5, #-2560]	; 0xfffff600
    1c20:	06040000 	streq	r0, [r4], -r0
    1c24:	00015a00 	andeq	r5, r1, r0, lsl #20
    1c28:	05400b00 	strbeq	r0, [r0, #-2816]	; 0xfffff500
    1c2c:	015a0000 	cmpeq	sl, r0
    1c30:	00000000 	andeq	r0, r0, r0
    1c34:	5704040c 	strpl	r0, [r4, -ip, lsl #8]
    1c38:	05000005 	streq	r0, [r0, #-5]
    1c3c:	01371863 	teqeq	r7, r3, ror #16
    1c40:	270d0000 	strcs	r0, [sp, -r0]
    1c44:	01000005 	tsteq	r0, r5
    1c48:	00250581 	eoreq	r0, r5, r1, lsl #11
    1c4c:	8f9c0000 	svchi	0x009c0000
    1c50:	04b80000 	ldrteq	r0, [r8], #0
    1c54:	9c010000 	stcls	0, cr0, [r1], {-0}
    1c58:	00000717 	andeq	r0, r0, r7, lsl r7
    1c5c:	6675620e 	ldrbtvs	r6, [r5], -lr, lsl #4
    1c60:	15810100 	strne	r0, [r1, #256]	; 0x100
    1c64:	00000717 	andeq	r0, r0, r7, lsl r7
    1c68:	00000f02 	andeq	r0, r0, r2, lsl #30
    1c6c:	00000efc 	strdeq	r0, [r0], -ip
    1c70:	01006e0e 	tsteq	r0, lr, lsl #28
    1c74:	00251e81 	eoreq	r1, r5, r1, lsl #29
    1c78:	0f340000 	svceq	0x00340000
    1c7c:	0f2e0000 	svceq	0x002e0000
    1c80:	660e0000 	strvs	r0, [lr], -r0
    1c84:	0100746d 	tsteq	r0, sp, ror #8
    1c88:	00b32d81 	adcseq	r2, r3, r1, lsl #27
    1c8c:	0f6e0000 	svceq	0x006e0000
    1c90:	0f620000 	svceq	0x00620000
    1c94:	220f0000 	andcs	r0, pc, #0, 0
    1c98:	01000005 	tsteq	r0, r5
    1c9c:	015c3a81 	cmpeq	ip, r1, lsl #21
    1ca0:	91030000 	mrsls	r0, (UNDEF: 3)
    1ca4:	70107dd4 			; <UNDEFINED> instruction: 0x70107dd4
    1ca8:	08820100 	stmeq	r2, {r8}
    1cac:	00000717 	andeq	r0, r0, r7, lsl r7
    1cb0:	00000fcc 	andeq	r0, r0, ip, asr #31
    1cb4:	00000fb8 			; <UNDEFINED> instruction: 0x00000fb8
    1cb8:	01006510 	tsteq	r0, r0, lsl r5
    1cbc:	07171282 	ldreq	r1, [r7, -r2, lsl #5]
    1cc0:	104e0000 	subne	r0, lr, r0
    1cc4:	104a0000 	subne	r0, sl, r0
    1cc8:	78100000 	ldmdavc	r0, {}	; <UNPREDICTABLE>
    1ccc:	83010030 	movwhi	r0, #4144	; 0x1030
    1cd0:	00005d0e 	andeq	r5, r0, lr, lsl #26
    1cd4:	00107b00 	andseq	r7, r0, r0, lsl #22
    1cd8:	00107500 	andseq	r7, r0, r0, lsl #10
    1cdc:	31781000 	cmncc	r8, r0
    1ce0:	11830100 	orrne	r0, r3, r0, lsl #2
    1ce4:	0000005d 	andeq	r0, r0, sp, asr r0
    1ce8:	000010a8 	andeq	r1, r0, r8, lsr #1
    1cec:	000010a4 	andeq	r1, r0, r4, lsr #1
    1cf0:	00060111 	andeq	r0, r6, r1, lsl r1
    1cf4:	11860100 	orrne	r0, r6, r0, lsl #2
    1cf8:	000000b3 	strheq	r0, [r0], -r3
    1cfc:	000010ca 	andeq	r1, r0, sl, asr #1
    1d00:	000010c6 	andeq	r1, r0, r6, asr #1
    1d04:	00031212 	andeq	r1, r3, r2, lsl r2
    1d08:	00072d00 	andeq	r2, r7, r0, lsl #26
    1d0c:	1c030500 	cfstr32ne	mvfx0, [r3], {-0}
    1d10:	1300009f 	movwne	r0, #159	; 0x9f
    1d14:	00009004 	andeq	r9, r0, r4
    1d18:	00000400 	andeq	r0, r0, r0, lsl #8
    1d1c:	01007310 	tsteq	r0, r0, lsl r3
    1d20:	07170a91 			; <UNDEFINED> instruction: 0x07170a91
    1d24:	11000000 	mrsne	r0, (UNDEF: 0)
    1d28:	10ea0000 	rscne	r0, sl, r0
    1d2c:	6e140000 	cdpvs	0, 1, cr0, cr4, cr0, {0}
    1d30:	01006d75 	tsteq	r0, r5, ror sp
    1d34:	07320d91 			; <UNDEFINED> instruction: 0x07320d91
    1d38:	91030000 	mrsls	r0, (UNDEF: 3)
    1d3c:	64157dd8 	ldrvs	r7, [r5], #-3544	; 0xfffff228
    1d40:	01000006 	tsteq	r0, r6
    1d44:	07321791 			; <UNDEFINED> instruction: 0x07321791
    1d48:	91030000 	mrsls	r0, (UNDEF: 3)
    1d4c:	bc117ed8 	ldclt	14, cr7, [r1], {216}	; 0xd8
    1d50:	01000005 	tsteq	r0, r5
    1d54:	002c0d92 	mlaeq	ip, r2, sp, r0
    1d58:	11870000 	orrne	r0, r7, r0
    1d5c:	11810000 	orrne	r0, r1, r0
    1d60:	cc160000 	ldcgt	0, cr0, [r6], {-0}
    1d64:	a4000090 	strge	r0, [r0], #-144	; 0xffffff70
    1d68:	39000001 	stmdbcc	r0, {r0}
    1d6c:	10000005 	andne	r0, r0, r5
    1d70:	01007974 	tsteq	r0, r4, ror r9
    1d74:	00b31d9e 	umlalseq	r1, r3, lr, sp
    1d78:	11bb0000 			; <UNDEFINED> instruction: 0x11bb0000
    1d7c:	11b10000 			; <UNDEFINED> instruction: 0x11b10000
    1d80:	78170000 	ldmdavc	r7, {}	; <UNPREDICTABLE>
    1d84:	a2010078 	andge	r0, r1, #120, 0	; 0x78
    1d88:	0000701a 	andeq	r7, r0, sl, lsl r0
    1d8c:	90dc1800 	sbcsls	r1, ip, r0, lsl #16
    1d90:	0a920000 	beq	fe481d98 <__bss_end__+0xfe476810>
    1d94:	02d50000 	sbcseq	r0, r5, #0, 0
    1d98:	01190000 	tsteq	r9, r0
    1d9c:	00760250 	rsbseq	r0, r6, r0, asr r2
    1da0:	05510119 	ldrbeq	r0, [r1, #-281]	; 0xfffffee7
    1da4:	009e1003 	addseq	r1, lr, r3
    1da8:	52011900 	andpl	r1, r1, #0, 18
    1dac:	18003301 	stmdane	r0, {r0, r8, r9, ip, sp}
    1db0:	000090f4 	strdeq	r9, [r0], -r4
    1db4:	00000a92 	muleq	r0, r2, sl
    1db8:	000002f7 	strdeq	r0, [r0], -r7
    1dbc:	02500119 	subseq	r0, r0, #1073741830	; 0x40000006
    1dc0:	01190076 	tsteq	r9, r6, ror r0
    1dc4:	14030551 	strne	r0, [r3], #-1361	; 0xfffffaaf
    1dc8:	1900009e 	stmdbne	r0, {r1, r2, r3, r4, r7}
    1dcc:	33015201 	movwcc	r5, #4609	; 0x1201
    1dd0:	91281800 			; <UNDEFINED> instruction: 0x91281800
    1dd4:	0a9e0000 	beq	fe781ddc <__bss_end__+0xfe776854>
    1dd8:	03140000 	tsteq	r4, #0, 0
    1ddc:	01190000 	tsteq	r9, r0
    1de0:	18030550 	stmdane	r3, {r4, r6, r8, sl}
    1de4:	1900009e 	stmdbne	r0, {r1, r2, r3, r4, r7}
    1de8:	77025101 	strvc	r5, [r2, -r1, lsl #2]
    1dec:	34180000 	ldrcc	r0, [r8], #-0
    1df0:	9e000091 	mcrls	0, 0, r0, cr0, cr1, {4}
    1df4:	3100000a 	tstcc	r0, sl
    1df8:	19000003 	stmdbne	r0, {r0, r1}
    1dfc:	03055001 	movweq	r5, #20481	; 0x5001
    1e00:	00009e20 	andeq	r9, r0, r0, lsr #28
    1e04:	02510119 	subseq	r0, r1, #1073741830	; 0x40000006
    1e08:	1800007a 	stmdane	r0, {r1, r3, r4, r5, r6}
    1e0c:	00009144 	andeq	r9, r0, r4, asr #2
    1e10:	00000a92 	muleq	r0, r2, sl
    1e14:	00000353 	andeq	r0, r0, r3, asr r3
    1e18:	02500119 	subseq	r0, r0, #1073741830	; 0x40000006
    1e1c:	01190076 	tsteq	r9, r6, ror r0
    1e20:	10030551 	andne	r0, r3, r1, asr r5
    1e24:	1900009e 	stmdbne	r0, {r1, r2, r3, r4, r7}
    1e28:	33015201 	movwcc	r5, #4609	; 0x1201
    1e2c:	915c1800 	cmpls	ip, r0, lsl #16
    1e30:	0a920000 	beq	fe481e38 <__bss_end__+0xfe4768b0>
    1e34:	03750000 	cmneq	r5, #0, 0
    1e38:	01190000 	tsteq	r9, r0
    1e3c:	00760250 	rsbseq	r0, r6, r0, asr r2
    1e40:	05510119 	ldrbeq	r0, [r1, #-281]	; 0xfffffee7
    1e44:	009e1403 	addseq	r1, lr, r3, lsl #8
    1e48:	52011900 	andpl	r1, r1, #0, 18
    1e4c:	18003301 	stmdane	r0, {r0, r8, r9, ip, sp}
    1e50:	00009184 	andeq	r9, r0, r4, lsl #3
    1e54:	00000742 	andeq	r0, r0, r2, asr #14
    1e58:	000003a9 	andeq	r0, r0, r9, lsr #7
    1e5c:	01500119 	cmpeq	r0, r9, lsl r1
    1e60:	5101193a 	tstpl	r1, sl, lsr r9
    1e64:	7dd09103 	ldfvcp	f1, [r0, #12]
    1e68:	02520119 	subseq	r0, r2, #1073741830	; 0x40000006
    1e6c:	01198008 	tsteq	r9, r8
    1e70:	00770253 	rsbseq	r0, r7, r3, asr r2
    1e74:	007d0219 	rsbseq	r0, sp, r9, lsl r2
    1e78:	19007502 	stmdbne	r0, {r1, r8, sl, ip, sp, lr}
    1e7c:	02047d02 	andeq	r7, r4, #128	; 0x80
    1e80:	18000076 	stmdane	r0, {r1, r2, r4, r5, r6}
    1e84:	000091a4 	andeq	r9, r0, r4, lsr #3
    1e88:	00000742 	andeq	r0, r0, r2, asr #14
    1e8c:	000003dd 	ldrdeq	r0, [r0], -sp
    1e90:	01500119 	cmpeq	r0, r9, lsl r1
    1e94:	5101193a 	tstpl	r1, sl, lsr r9
    1e98:	7ed09103 	atnvcs	f1, f3
    1e9c:	02520119 	subseq	r0, r2, #1073741830	; 0x40000006
    1ea0:	01198008 	tsteq	r9, r8
    1ea4:	007a0253 	rsbseq	r0, sl, r3, asr r2
    1ea8:	007d0219 	rsbseq	r0, sp, r9, lsl r2
    1eac:	19007502 	stmdbne	r0, {r1, r8, sl, ip, sp, lr}
    1eb0:	02047d02 	andeq	r7, r4, #128	; 0x80
    1eb4:	18000076 	stmdane	r0, {r1, r2, r4, r5, r6}
    1eb8:	000091b0 			; <UNDEFINED> instruction: 0x000091b0
    1ebc:	00000aaa 	andeq	r0, r0, sl, lsr #21
    1ec0:	000003fb 	strdeq	r0, [r0], -fp
    1ec4:	03500119 	cmpeq	r0, #1073741830	; 0x40000006
    1ec8:	197dd091 	ldmdbne	sp!, {r0, r4, r7, ip, lr, pc}^
    1ecc:	03055101 	movweq	r5, #20737	; 0x5101
    1ed0:	00009ca4 	andeq	r9, r0, r4, lsr #25
    1ed4:	91c41800 	bicls	r1, r4, r0, lsl #16
    1ed8:	0ab60000 	beq	fed81ee0 <__bss_end__+0xfed76958>
    1edc:	04170000 	ldreq	r0, [r7], #-0
    1ee0:	01190000 	tsteq	r9, r0
    1ee4:	d0910350 	addsle	r0, r1, r0, asr r3
    1ee8:	5101197d 	tstpl	r1, sp, ror r9
    1eec:	7ed09103 	atnvcs	f1, f3
    1ef0:	91e81800 	mvnls	r1, r0, lsl #16
    1ef4:	0a9e0000 	beq	fe781efc <__bss_end__+0xfe776974>
    1ef8:	04500000 	ldrbeq	r0, [r0], #-0
    1efc:	01190000 	tsteq	r9, r0
    1f00:	a0030550 	andge	r0, r3, r0, asr r5
    1f04:	1900009b 	stmdbne	r0, {r0, r1, r3, r4, r7}
    1f08:	03055101 	movweq	r5, #20737	; 0x5101
    1f0c:	00009dc4 	andeq	r9, r0, r4, asr #27
    1f10:	05520119 	ldrbeq	r0, [r2, #-281]	; 0xfffffee7
    1f14:	009f1c03 	addseq	r1, pc, r3, lsl #24
    1f18:	53011900 	movwpl	r1, #6400	; 0x1900
    1f1c:	199f0802 	ldmibne	pc, {r1, fp}	; <UNPREDICTABLE>
    1f20:	05007d02 	streq	r7, [r0, #-3330]	; 0xfffff2fe
    1f24:	009e2803 	addseq	r2, lr, r3, lsl #16
    1f28:	ec1a0000 	ldc	0, cr0, [sl], {-0}
    1f2c:	c2000091 	andgt	r0, r0, #145, 0	; 0x91
    1f30:	1800000a 	stmdane	r0, {r1, r3}
    1f34:	0000920c 	andeq	r9, r0, ip, lsl #4
    1f38:	00000742 	andeq	r0, r0, r2, asr #14
    1f3c:	0000048d 	andeq	r0, r0, sp, lsl #9
    1f40:	01500119 	cmpeq	r0, r9, lsl r1
    1f44:	51011940 	tstpl	r1, r0, asr #18
    1f48:	7dd09103 	ldfvcp	f1, [r0, #12]
    1f4c:	02520119 	subseq	r0, r2, #1073741830	; 0x40000006
    1f50:	01198008 	tsteq	r9, r8
    1f54:	00770253 	rsbseq	r0, r7, r3, asr r2
    1f58:	007d0219 	rsbseq	r0, sp, r9, lsl r2
    1f5c:	19007502 	stmdbne	r0, {r1, r8, sl, ip, sp, lr}
    1f60:	02047d02 	andeq	r7, r4, #128	; 0x80
    1f64:	18000076 	stmdane	r0, {r1, r2, r4, r5, r6}
    1f68:	0000922c 	andeq	r9, r0, ip, lsr #4
    1f6c:	00000742 	andeq	r0, r0, r2, asr #14
    1f70:	000004c1 	andeq	r0, r0, r1, asr #9
    1f74:	01500119 	cmpeq	r0, r9, lsl r1
    1f78:	51011940 	tstpl	r1, r0, asr #18
    1f7c:	7ed09103 	atnvcs	f1, f3
    1f80:	02520119 	subseq	r0, r2, #1073741830	; 0x40000006
    1f84:	01198008 	tsteq	r9, r8
    1f88:	007a0253 	rsbseq	r0, sl, r3, asr r2
    1f8c:	007d0219 	rsbseq	r0, sp, r9, lsl r2
    1f90:	19007502 	stmdbne	r0, {r1, r8, sl, ip, sp, lr}
    1f94:	02047d02 	andeq	r7, r4, #128	; 0x80
    1f98:	18000076 	stmdane	r0, {r1, r2, r4, r5, r6}
    1f9c:	00009238 	andeq	r9, r0, r8, lsr r2
    1fa0:	00000ace 	andeq	r0, r0, lr, asr #21
    1fa4:	000004dd 	ldrdeq	r0, [r0], -sp
    1fa8:	03500119 	cmpeq	r0, #1073741830	; 0x40000006
    1fac:	197dd091 	ldmdbne	sp!, {r0, r4, r7, ip, lr, pc}^
    1fb0:	91035101 	tstls	r3, r1, lsl #2
    1fb4:	18007ed2 	stmdane	r0, {r1, r4, r6, r7, r9, sl, fp, ip, sp, lr}
    1fb8:	0000924c 	andeq	r9, r0, ip, asr #4
    1fbc:	00000ace 	andeq	r0, r0, lr, asr #21
    1fc0:	000004f9 	strdeq	r0, [r0], -r9
    1fc4:	03500119 	cmpeq	r0, #1073741830	; 0x40000006
    1fc8:	197dd091 	ldmdbne	sp!, {r0, r4, r7, ip, lr, pc}^
    1fcc:	91035101 	tstls	r3, r1, lsl #2
    1fd0:	18007ed0 	stmdane	r0, {r4, r6, r7, r9, sl, fp, ip, sp, lr}
    1fd4:	0000926c 	andeq	r9, r0, ip, ror #4
    1fd8:	00000a9e 	muleq	r0, lr, sl
    1fdc:	0000052f 	andeq	r0, r0, pc, lsr #10
    1fe0:	05500119 	ldrbeq	r0, [r0, #-281]	; 0xfffffee7
    1fe4:	009e6403 	addseq	r6, lr, r3, lsl #8
    1fe8:	51011900 	tstpl	r1, r0, lsl #18
    1fec:	9dc40305 	stclls	3, cr0, [r4, #20]
    1ff0:	01190000 	tsteq	r9, r0
    1ff4:	1c030552 	cfstr32ne	mvfx0, [r3], {82}	; 0x52
    1ff8:	1900009f 	stmdbne	r0, {r0, r1, r2, r3, r4, r7}
    1ffc:	08025301 	stmdaeq	r2, {r0, r8, r9, ip, lr}
    2000:	7d0219b6 	vstrvc.16	s2, [r2, #-364]	; 0xfffffe94	; <UNPREDICTABLE>
    2004:	00760200 	rsbseq	r0, r6, r0, lsl #4
    2008:	92701a00 	rsbsls	r1, r0, #0, 20
    200c:	0ac20000 	beq	ff082014 <__bss_end__+0xff076a8c>
    2010:	18000000 	stmdane	r0, {}	; <UNPREDICTABLE>
    2014:	0000901c 	andeq	r9, r0, ip, lsl r0
    2018:	000009c0 	andeq	r0, r0, r0, asr #19
    201c:	0000054d 	andeq	r0, r0, sp, asr #10
    2020:	02500119 	subseq	r0, r0, #1073741830	; 0x40000006
    2024:	18000077 	stmdane	r0, {r0, r1, r2, r4, r5, r6}
    2028:	000090c8 	andeq	r9, r0, r8, asr #1
    202c:	00000a9e 	muleq	r0, lr, sl
    2030:	00000586 	andeq	r0, r0, r6, lsl #11
    2034:	05500119 	ldrbeq	r0, [r0, #-281]	; 0xfffffee7
    2038:	009ba003 	addseq	sl, fp, r3
    203c:	51011900 	tstpl	r1, r0, lsl #18
    2040:	9dc40305 	stclls	3, cr0, [r4, #20]
    2044:	01190000 	tsteq	r9, r0
    2048:	1c030552 	cfstr32ne	mvfx0, [r3], {82}	; 0x52
    204c:	1900009f 	stmdbne	r0, {r0, r1, r2, r3, r4, r7}
    2050:	08025301 	stmdaeq	r2, {r0, r8, r9, ip, lr}
    2054:	7d021998 	vstrvc.16	s2, [r2, #-304]	; 0xfffffed0	; <UNPREDICTABLE>
    2058:	04030500 	streq	r0, [r3], #-1280	; 0xfffffb00
    205c:	0000009e 	muleq	r0, lr, r0
    2060:	0090cc1a 	addseq	ip, r0, sl, lsl ip
    2064:	000ac200 	andeq	ip, sl, r0, lsl #4
    2068:	92841800 	addls	r1, r4, #0, 16
    206c:	0a9e0000 	beq	fe782074 <__bss_end__+0xfe776aec>
    2070:	05be0000 	ldreq	r0, [lr, #0]!
    2074:	01190000 	tsteq	r9, r0
    2078:	8c030550 	cfstr32hi	mvfx0, [r3], {80}	; 0x50
    207c:	1900009e 	stmdbne	r0, {r1, r2, r3, r4, r7}
    2080:	03055101 	movweq	r5, #20737	; 0x5101
    2084:	00009dc4 	andeq	r9, r0, r4, asr #27
    2088:	05520119 	ldrbeq	r0, [r2, #-281]	; 0xfffffee7
    208c:	009f1c03 	addseq	r1, pc, r3, lsl #24
    2090:	53011900 	movwpl	r1, #6400	; 0x1900
    2094:	00be0802 	adcseq	r0, lr, r2, lsl #16
    2098:	0092881a 	addseq	r8, r2, sl, lsl r8
    209c:	000ac200 	andeq	ip, sl, r0, lsl #4
    20a0:	92b41800 	adcsls	r1, r4, #0, 16
    20a4:	07420000 	strbeq	r0, [r2, -r0]
    20a8:	05f40000 	ldrbeq	r0, [r4, #0]!
    20ac:	01190000 	tsteq	r9, r0
    20b0:	193a0150 	ldmdbne	sl!, {r4, r6, r8}
    20b4:	91035101 	tstls	r3, r1, lsl #2
    20b8:	01197dd0 			; <UNDEFINED> instruction: 0x01197dd0
    20bc:	80080252 	andhi	r0, r8, r2, asr r2
    20c0:	007d0219 	rsbseq	r0, sp, r9, lsl r2
    20c4:	19007502 	stmdbne	r0, {r1, r8, sl, ip, sp, lr}
    20c8:	01047d02 	tsteq	r4, r2, lsl #26
    20cc:	ec180031 	ldc	0, cr0, [r8], {49}	; 0x31
    20d0:	42000092 	andmi	r0, r0, #146, 0	; 0x92
    20d4:	21000007 	tstcs	r0, r7
    20d8:	19000006 	stmdbne	r0, {r1, r2}
    20dc:	3a015001 	bcc	560e8 <__bss_end__+0x4ab60>
    20e0:	03510119 	cmpeq	r1, #1073741830	; 0x40000006
    20e4:	197dd091 	ldmdbne	sp!, {r0, r4, r7, ip, lr, pc}^
    20e8:	08025201 	stmdaeq	r2, {r0, r9, ip, lr}
    20ec:	7d021980 	vstrvc.16	s2, [r2, #-256]	; 0xffffff00	; <UNPREDICTABLE>
    20f0:	00750200 	rsbseq	r0, r5, r0, lsl #4
    20f4:	047d0219 	ldrbteq	r0, [sp], #-537	; 0xfffffde7
    20f8:	18003001 	stmdane	r0, {r0, ip, sp}
    20fc:	00009320 	andeq	r9, r0, r0, lsr #6
    2100:	00000742 	andeq	r0, r0, r2, asr #14
    2104:	0000064e 	andeq	r0, r0, lr, asr #12
    2108:	01500119 	cmpeq	r0, r9, lsl r1
    210c:	51011940 	tstpl	r1, r0, asr #18
    2110:	7dd09103 	ldfvcp	f1, [r0, #12]
    2114:	02520119 	subseq	r0, r2, #1073741830	; 0x40000006
    2118:	02198008 	andseq	r8, r9, #8, 0
    211c:	7502007d 	strvc	r0, [r2, #-125]	; 0xffffff83
    2120:	7d021900 	vstrvc.16	s2, [r2, #-0]	; <UNPREDICTABLE>
    2124:	00300104 	eorseq	r0, r0, r4, lsl #2
    2128:	00935418 	addseq	r5, r3, r8, lsl r4
    212c:	00074200 	andeq	r4, r7, r0, lsl #4
    2130:	00067b00 	andeq	r7, r6, r0, lsl #22
    2134:	50011900 	andpl	r1, r1, r0, lsl #18
    2138:	01193201 	tsteq	r9, r1, lsl #4
    213c:	d0910351 	addsle	r0, r1, r1, asr r3
    2140:	5201197d 	andpl	r1, r1, #2048000	; 0x1f4000
    2144:	19800802 	stmibne	r0, {r1, fp}
    2148:	02007d02 	andeq	r7, r0, #128	; 0x80
    214c:	02190075 	andseq	r0, r9, #117, 0	; 0x75
    2150:	3001047d 	andcc	r0, r1, sp, ror r4
    2154:	939c1800 	orrsls	r1, ip, #0, 16
    2158:	07420000 	strbeq	r0, [r2, -r0]
    215c:	06a80000 	strteq	r0, [r8], r0
    2160:	01190000 	tsteq	r9, r0
    2164:	19380150 	ldmdbne	r8!, {r4, r6, r8}
    2168:	91035101 	tstls	r3, r1, lsl #2
    216c:	01197dd0 			; <UNDEFINED> instruction: 0x01197dd0
    2170:	80080252 	andhi	r0, r8, r2, asr r2
    2174:	007d0219 	rsbseq	r0, sp, r9, lsl r2
    2178:	19007502 	stmdbne	r0, {r1, r8, sl, ip, sp, lr}
    217c:	01047d02 	tsteq	r4, r2, lsl #26
    2180:	bc180030 	ldclt	0, cr0, [r8], {48}	; 0x30
    2184:	9e000093 	mcrls	0, 0, r0, cr0, cr3, {4}
    2188:	cb00000a 	blgt	21b8 <__code_start__-0x5e48>
    218c:	19000006 	stmdbne	r0, {r1, r2}
    2190:	03055001 	movweq	r5, #20481	; 0x5001
    2194:	00009eb4 			; <UNDEFINED> instruction: 0x00009eb4
    2198:	02510119 	subseq	r0, r1, #1073741830	; 0x40000006
    219c:	0119007a 	tsteq	r9, sl, ror r0
    21a0:	007a0252 	rsbseq	r0, sl, r2, asr r2
    21a4:	93cc1b00 	bicls	r1, ip, #0, 22
    21a8:	06dd0000 	ldrbeq	r0, [sp], r0
    21ac:	01190000 	tsteq	r9, r0
    21b0:	c8910450 	ldmgt	r1, {r4, r6, sl}
    21b4:	1800067d 	stmdane	r0, {r0, r2, r3, r4, r5, r6, r9, sl}
    21b8:	000093e0 	andeq	r9, r0, r0, ror #7
    21bc:	00000a9e 	muleq	r0, lr, sl
    21c0:	0000070c 	andeq	r0, r0, ip, lsl #14
    21c4:	05500119 	ldrbeq	r0, [r0, #-281]	; 0xfffffee7
    21c8:	009ee403 	addseq	lr, lr, r3, lsl #8
    21cc:	51011900 	tstpl	r1, r0, lsl #18
    21d0:	9dc40305 	stclls	3, cr0, [r4, #20]
    21d4:	01190000 	tsteq	r9, r0
    21d8:	1c030552 	cfstr32ne	mvfx0, [r3], {82}	; 0x52
    21dc:	1900009f 	stmdbne	r0, {r0, r1, r2, r3, r4, r7}
    21e0:	08025301 	stmdaeq	r2, {r0, r8, r9, ip, lr}
    21e4:	e41a00e2 	ldr	r0, [sl], #-226	; 0xffffff1e
    21e8:	c2000093 	andgt	r0, r0, #147, 0	; 0x93
    21ec:	0000000a 	andeq	r0, r0, sl
    21f0:	b9040800 	stmdblt	r4, {fp}
    21f4:	1c000000 	stcne	0, cr0, [r0], {-0}
    21f8:	000000c0 	andeq	r0, r0, r0, asr #1
    21fc:	0000072d 	andeq	r0, r0, sp, lsr #14
    2200:	00002c1d 	andeq	r2, r0, sp, lsl ip
    2204:	09000900 	stmdbeq	r0, {r8, fp}
    2208:	0000071d 	andeq	r0, r0, sp, lsl r7
    220c:	0000b91c 	andeq	fp, r0, ip, lsl r9
    2210:	00074200 	andeq	r4, r7, r0, lsl #4
    2214:	002c1d00 	eoreq	r1, ip, r0, lsl #26
    2218:	007f0000 	rsbseq	r0, pc, r0
    221c:	00062c1e 	andeq	r2, r6, lr, lsl ip
    2220:	01490100 	mrseq	r0, (UNDEF: 89)
    2224:	00000717 	andeq	r0, r0, r7, lsl r7
    2228:	00008d84 	andeq	r8, r0, r4, lsl #27
    222c:	000001b4 			; <UNDEFINED> instruction: 0x000001b4
    2230:	08ab9c01 	stmiaeq	fp!, {r0, sl, fp, ip, pc}
    2234:	711f0000 	tstvc	pc, r0
    2238:	01000006 	tsteq	r0, r6
    223c:	002c0f49 	eoreq	r0, ip, r9, asr #30
    2240:	12040000 	andne	r0, r4, #0, 0
    2244:	11fe0000 	mvnsne	r0, r0
    2248:	640e0000 	strvs	r0, [lr], #-0
    224c:	01007473 	tsteq	r0, r3, ror r4
    2250:	07171b49 	ldreq	r1, [r7, -r9, asr #22]
    2254:	12420000 	subne	r0, r2, #0, 0
    2258:	12320000 	eorsne	r0, r2, #0, 0
    225c:	6e0e0000 	cdpvs	0, 0, cr0, cr14, cr0, {0}
    2260:	24490100 	strbcs	r0, [r9], #-256	; 0xffffff00
    2264:	00000025 	andeq	r0, r0, r5, lsr #32
    2268:	000012a6 	andeq	r1, r0, r6, lsr #5
    226c:	000012a2 	andeq	r1, r0, r2, lsr #5
    2270:	6c61760e 	stclvs	6, cr7, [r1], #-56	; 0xffffffc8
    2274:	2b490100 	blcs	124267c <__bss_end__+0x12370f4>
    2278:	00000025 	andeq	r0, r0, r5, lsr #32
    227c:	000012d0 	ldrdeq	r1, [r0], -r0
    2280:	000012c4 	andeq	r1, r0, r4, asr #5
    2284:	0005bc1f 	andeq	fp, r5, pc, lsl ip
    2288:	34490100 	strbcc	r0, [r9], #-256	; 0xffffff00
    228c:	00000025 	andeq	r0, r0, r5, lsr #32
    2290:	00001326 	andeq	r1, r0, r6, lsr #6
    2294:	00001320 	andeq	r1, r0, r0, lsr #6
    2298:	0006760f 	andeq	r7, r6, pc, lsl #12
    229c:	3f490100 	svccc	0x00490100
    22a0:	00000025 	andeq	r0, r0, r5, lsr #32
    22a4:	14049102 	strne	r9, [r4], #-258	; 0xfffffefe
    22a8:	00667562 	rsbeq	r7, r6, r2, ror #10
    22ac:	ab074e01 	blge	1d5ab8 <__bss_end__+0x1ca530>
    22b0:	03000008 	movweq	r0, #8
    22b4:	107fa891 			; <UNDEFINED> instruction: 0x107fa891
    22b8:	4e010070 	mcrmi	0, 0, r0, cr1, cr0, {3}
    22bc:	00071711 	andeq	r1, r7, r1, lsl r7
    22c0:	00137000 	andseq	r7, r3, r0
    22c4:	00135000 	andseq	r5, r3, r0
    22c8:	00751000 	rsbseq	r1, r5, r0
    22cc:	2c0b4f01 	stccs	15, cr4, [fp], {1}
    22d0:	56000000 	strpl	r0, [r0], -r0
    22d4:	42000014 	andmi	r0, r0, #20, 0
    22d8:	12000014 	andne	r0, r0, #20, 0
    22dc:	00000312 	andeq	r0, r0, r2, lsl r3
    22e0:	000008cb 	andeq	r0, r0, fp, asr #17
    22e4:	9f040305 	svcls	0x00040305
    22e8:	f0160000 			; <UNDEFINED> instruction: 0xf0160000
    22ec:	7800008d 	stmdavc	r0, {r0, r2, r3, r7}
    22f0:	32000000 	andcc	r0, r0, #0, 0
    22f4:	11000008 	tstne	r0, r8
    22f8:	00000619 	andeq	r0, r0, r9, lsl r6
    22fc:	2c0d5401 	cfstrscs	mvf5, [sp], {1}
    2300:	d7000000 	strle	r0, [r0, -r0]
    2304:	cf000014 	svcgt	0x00000014
    2308:	00000014 	andeq	r0, r0, r4, lsl r0
    230c:	008ea818 	addeq	sl, lr, r8, lsl r8
    2310:	00095d00 	andeq	r5, r9, r0, lsl #26
    2314:	00084700 	andeq	r4, r8, r0, lsl #14
    2318:	51011900 	tstpl	r1, r0, lsl #18
    231c:	7fa09103 	svcvc	0x00a09103
    2320:	8ebc1800 	cdphi	8, 11, cr1, cr12, cr0, {0}
    2324:	08d00000 	ldmeq	r0, {}^	; <UNPREDICTABLE>
    2328:	08680000 	stmdaeq	r8!, {}^	; <UNPREDICTABLE>
    232c:	01190000 	tsteq	r9, r0
    2330:	00750250 	rsbseq	r0, r5, r0, asr r2
    2334:	02510119 	subseq	r0, r1, #1073741830	; 0x40000006
    2338:	01190074 	tsteq	r9, r4, ror r0
    233c:	a0910353 	addsge	r0, r1, r3, asr r3
    2340:	1418007f 	ldrne	r0, [r8], #-127	; 0xffffff81
    2344:	9e00008f 	cdpls	0, 0, cr0, cr0, cr15, {4}
    2348:	a100000a 	tstge	r0, sl
    234c:	19000008 	stmdbne	r0, {r3}
    2350:	03055001 	movweq	r5, #20481	; 0x5001
    2354:	00009ba0 	andeq	r9, r0, r0, lsr #23
    2358:	05510119 	ldrbeq	r0, [r1, #-281]	; 0xfffffee7
    235c:	009dc403 	addseq	ip, sp, r3, lsl #8
    2360:	52011900 	andpl	r1, r1, #0, 18
    2364:	9f040305 	svcls	0x00040305
    2368:	01190000 	tsteq	r9, r0
    236c:	79080253 	stmdbvc	r8, {r0, r1, r4, r6, r9}
    2370:	007d0219 	rsbseq	r0, sp, r9, lsl r2
    2374:	9ca40305 	stcls	3, cr0, [r4], #20
    2378:	1a000000 	bne	2380 <__code_start__-0x5c80>
    237c:	00008f18 	andeq	r8, r0, r8, lsl pc
    2380:	00000ac2 	andeq	r0, r0, r2, asr #21
    2384:	00b91c00 	adcseq	r1, r9, r0, lsl #24
    2388:	08bb0000 	ldmeq	fp!, {}	; <UNPREDICTABLE>
    238c:	2c1d0000 	ldccs	0, cr0, [sp], {-0}
    2390:	3f000000 	svccc	0x00000000
    2394:	00c01c00 	sbceq	r1, r0, r0, lsl #24
    2398:	08cb0000 	stmiaeq	fp, {}^	; <UNPREDICTABLE>
    239c:	2c1d0000 	ldccs	0, cr0, [sp], {-0}
    23a0:	04000000 	streq	r0, [r0], #-0
    23a4:	08bb0900 	ldmeq	fp!, {r8, fp}
    23a8:	391e0000 	ldmdbcc	lr, {}	; <UNPREDICTABLE>
    23ac:	01000006 	tsteq	r0, r6
    23b0:	07170e38 			; <UNDEFINED> instruction: 0x07170e38
    23b4:	8d4c0000 	stclhi	0, cr0, [ip, #-0]
    23b8:	00380000 	eorseq	r0, r8, r0
    23bc:	9c010000 	stcls	0, cr0, [r1], {-0}
    23c0:	0000095d 	andeq	r0, r0, sp, asr r9
    23c4:	7473640e 	ldrbtvc	r6, [r3], #-1038	; 0xfffffbf2
    23c8:	1c380100 	ldfnes	f0, [r8], #-0
    23cc:	00000717 	andeq	r0, r0, r7, lsl r7
    23d0:	00001518 	andeq	r1, r0, r8, lsl r5
    23d4:	0000150e 	andeq	r1, r0, lr, lsl #10
    23d8:	01006e0e 	tsteq	r0, lr, lsl #28
    23dc:	00252538 	eoreq	r2, r5, r8, lsr r5
    23e0:	155f0000 	ldrbne	r0, [pc, #-0]	; 23e8 <__code_start__-0x5c18>
    23e4:	155b0000 	ldrbne	r0, [fp, #-0]
    23e8:	700e0000 	andvc	r0, lr, r0
    23ec:	2e380100 	rsfcse	f0, f0, f0
    23f0:	00000717 	andeq	r0, r0, r7, lsl r7
    23f4:	00001588 	andeq	r1, r0, r8, lsl #11
    23f8:	00001580 	andeq	r1, r0, r0, lsl #11
    23fc:	0006051f 	andeq	r0, r6, pc, lsl r5
    2400:	37380100 	ldrcc	r0, [r8, -r0, lsl #2]!
    2404:	00000717 	andeq	r0, r0, r7, lsl r7
    2408:	000015c2 	andeq	r1, r0, r2, asr #11
    240c:	000015be 			; <UNDEFINED> instruction: 0x000015be
    2410:	6e656c10 	mcrvs	12, 3, r6, cr5, cr0, {0}
    2414:	063a0100 	ldrteq	r0, [sl], -r0, lsl #2
    2418:	00000025 	andeq	r0, r0, r5, lsr #32
    241c:	000015e8 	andeq	r1, r0, r8, ror #11
    2420:	000015e0 	andeq	r1, r0, r0, ror #11
    2424:	01007310 	tsteq	r0, r0, lsl r3
    2428:	0717083e 			; <UNDEFINED> instruction: 0x0717083e
    242c:	16360000 	ldrtne	r0, [r6], -r0
    2430:	16340000 	ldrtne	r0, [r4], -r0
    2434:	20000000 	andcs	r0, r0, r0
    2438:	00646170 	rsbeq	r6, r4, r0, ror r1
    243c:	170e2e01 	strne	r2, [lr, -r1, lsl #28]
    2440:	28000007 	stmdacs	r0, {r0, r1, r2}
    2444:	2400008d 	strcs	r0, [r0], #-141	; 0xffffff73
    2448:	01000000 	mrseq	r0, (UNDEF: 0)
    244c:	0009c09c 	muleq	r9, ip, r0
    2450:	00700e00 	rsbseq	r0, r0, r0, lsl #28
    2454:	17182e01 	ldrne	r2, [r8, -r1, lsl #28]
    2458:	4f000007 	svcmi	0x00000007
    245c:	49000016 	stmdbmi	r0, {r1, r2, r4}
    2460:	1f000016 	svcne	0x00000016
    2464:	00000671 	andeq	r0, r0, r1, ror r6
    2468:	17222e01 	strne	r2, [r2, -r1, lsl #28]!
    246c:	7e000007 	cdpvc	0, 0, cr0, cr0, cr7, {0}
    2470:	7a000016 	bvc	24d0 <__code_start__-0x5b30>
    2474:	0f000016 	svceq	0x00000016
    2478:	000005bc 			; <UNDEFINED> instruction: 0x000005bc
    247c:	252c2e01 	strcs	r2, [ip, #-3585]!	; 0xfffff1ff
    2480:	01000000 	mrseq	r0, (UNDEF: 0)
    2484:	656c1052 	strbvs	r1, [ip, #-82]!	; 0xffffffae
    2488:	2f01006e 	svccs	0x0001006e
    248c:	00002506 	andeq	r2, r0, r6, lsl #10
    2490:	0016a100 	andseq	sl, r6, r0, lsl #2
    2494:	00169f00 	andseq	r9, r6, r0, lsl #30
    2498:	7b1e0000 	blvc	7824a0 <__bss_end__+0x776f18>
    249c:	01000005 	tsteq	r0, r5
    24a0:	00250c27 	eoreq	r0, r5, r7, lsr #24
    24a4:	8d140000 	ldchi	0, cr0, [r4, #-0]
    24a8:	00140000 	andseq	r0, r4, r0
    24ac:	9c010000 	stcls	0, cr0, [r1], {-0}
    24b0:	000009ed 	andeq	r0, r0, sp, ror #19
    24b4:	0100630e 	tsteq	r0, lr, lsl #6
    24b8:	00251827 	eoreq	r1, r5, r7, lsr #16
    24bc:	16ba0000 	ldrtne	r0, [sl], r0
    24c0:	16b40000 	ldrtne	r0, [r4], r0
    24c4:	21000000 	mrscs	r0, (UNDEF: 0)
    24c8:	000005f2 	strdeq	r0, [r0], -r2
    24cc:	38061f01 	stmdacc	r6, {r0, r8, r9, sl, fp, ip}
    24d0:	6400008f 	strvs	r0, [r0], #-143	; 0xffffff71
    24d4:	01000000 	mrseq	r0, (UNDEF: 0)
    24d8:	000a7d9c 	muleq	sl, ip, sp
    24dc:	05cf1f00 	strbeq	r1, [pc, #3840]	; 33e4 <__code_start__-0x4c1c>
    24e0:	1f010000 	svcne	0x00010000
    24e4:	00009e1b 	andeq	r9, r0, fp, lsl lr
    24e8:	0016ec00 	andseq	lr, r6, r0, lsl #24
    24ec:	0016e800 	andseq	lr, r6, r0, lsl #16
    24f0:	06311f00 	ldrteq	r1, [r1], -r0, lsl #30
    24f4:	1f010000 	svcne	0x00010000
    24f8:	0000d130 	andeq	sp, r0, r0, lsr r1
    24fc:	00171100 	andseq	r1, r7, r0, lsl #2
    2500:	00170d00 	andseq	r0, r7, r0, lsl #26
    2504:	03121200 	tsteq	r2, #0, 4
    2508:	0a8d0000 	beq	fe342510 <__bss_end__+0xfe336f88>
    250c:	03050000 	movweq	r0, #20480	; 0x5000
    2510:	00009f0c 	andeq	r9, r0, ip, lsl #30
    2514:	008f8018 	addeq	r8, pc, r8, lsl r0	; <UNPREDICTABLE>
    2518:	000a9e00 	andeq	r9, sl, r0, lsl #28
    251c:	000a7300 	andeq	r7, sl, r0, lsl #6
    2520:	50011900 	andpl	r1, r1, r0, lsl #18
    2524:	9ba00305 	blls	fe803140 <__bss_end__+0xfe7f7bb8>
    2528:	01190000 	tsteq	r9, r0
    252c:	c4030551 	strgt	r0, [r3], #-1361	; 0xfffffaaf
    2530:	1900009d 	stmdbne	r0, {r0, r2, r3, r4, r7}
    2534:	03055201 	movweq	r5, #20993	; 0x5201
    2538:	00009f0c 	andeq	r9, r0, ip, lsl #30
    253c:	02530119 	subseq	r0, r3, #1073741830	; 0x40000006
    2540:	02192008 	andseq	r2, r9, #8, 0
    2544:	0305007d 	movweq	r0, #20605	; 0x507d
    2548:	00009dfc 	strdeq	r9, [r0], -ip
    254c:	8f841a00 	svchi	0x00841a00
    2550:	0ac20000 	beq	ff082558 <__bss_end__+0xff076fd0>
    2554:	1c000000 	stcne	0, cr0, [r0], {-0}
    2558:	000000c0 	andeq	r0, r0, r0, asr #1
    255c:	00000a8d 	andeq	r0, r0, sp, lsl #21
    2560:	00002c1d 	andeq	r2, r0, sp, lsl ip
    2564:	09000e00 	stmdbeq	r0, {r9, sl, fp}
    2568:	00000a7d 	andeq	r0, r0, sp, ror sl
    256c:	00066922 	andeq	r6, r6, r2, lsr #18
    2570:	00066900 	andeq	r6, r6, r0, lsl #18
    2574:	05eb0300 	strbeq	r0, [fp, #768]!	; 0x300
    2578:	00052a22 	andeq	r2, r5, r2, lsr #20
    257c:	00052a00 	andeq	r2, r5, r0, lsl #20
    2580:	06280300 	strteq	r0, [r8], -r0, lsl #6
    2584:	00064122 	andeq	r4, r6, r2, lsr #2
    2588:	00064100 	andeq	r4, r6, r0, lsl #2
    258c:	05ea0300 	strbeq	r0, [sl, #768]!	; 0x300
    2590:	00061222 	andeq	r1, r6, r2, lsr #4
    2594:	00061200 	andeq	r1, r6, r0, lsl #4
    2598:	07ed0300 	strbeq	r0, [sp, r0, lsl #6]!
    259c:	0000ff22 	andeq	pc, r0, r2, lsr #30
    25a0:	0000ff00 	andeq	pc, r0, r0, lsl #30
    25a4:	066e0300 	strbteq	r0, [lr], -r0, lsl #6
    25a8:	00060b22 	andeq	r0, r6, r2, lsr #22
    25ac:	00060b00 	andeq	r0, r6, r0, lsl #22
    25b0:	07ee0300 	strbeq	r0, [lr, r0, lsl #6]!
    25b4:	00012f00 	andeq	r2, r1, r0, lsl #30
    25b8:	95000400 	strls	r0, [r0, #-1024]	; 0xfffffc00
    25bc:	04000009 	streq	r0, [r0], #-9
    25c0:	0001bb01 	andeq	fp, r1, r1, lsl #22
    25c4:	068a0c00 	streq	r0, [sl], r0, lsl #24
    25c8:	03d70000 	bicseq	r0, r7, #0, 0
    25cc:	94540000 	ldrbls	r0, [r4], #-0
    25d0:	002c0000 	eoreq	r0, ip, r0
    25d4:	12ac0000 	adcne	r0, ip, #0, 0
    25d8:	04020000 	streq	r0, [r2], #-0
    25dc:	746e6905 	strbtvc	r6, [lr], #-2309	; 0xfffff6fb
    25e0:	07040300 	streq	r0, [r4, -r0, lsl #6]
    25e4:	00000166 	andeq	r0, r0, r6, ror #2
    25e8:	17060103 	strne	r0, [r6, -r3, lsl #2]
    25ec:	03000001 	movweq	r0, #1
    25f0:	00430502 	subeq	r0, r3, r2, lsl #10
    25f4:	04030000 	streq	r0, [r3], #-0
    25f8:	0000cc05 	andeq	ip, r0, r5, lsl #24
    25fc:	05080300 	streq	r0, [r8, #-768]	; 0xfffffd00
    2600:	000000c7 	andeq	r0, r0, r7, asr #1
    2604:	15080103 	strne	r0, [r8, #-259]	; 0xfffffefd
    2608:	03000001 	movweq	r0, #1
    260c:	01840702 	orreq	r0, r4, r2, lsl #14
    2610:	04030000 	streq	r0, [r3], #-0
    2614:	00016107 	andeq	r6, r1, r7, lsl #2
    2618:	07080300 	streq	r0, [r8, -r0, lsl #6]
    261c:	0000015c 	andeq	r0, r0, ip, asr r1
    2620:	00002504 	andeq	r2, r0, r4, lsl #10
    2624:	00007a00 	andeq	r7, r0, r0, lsl #20
    2628:	00250500 	eoreq	r0, r5, r0, lsl #10
    262c:	06000000 	streq	r0, [r0], -r0
    2630:	0000005e 	andeq	r0, r0, lr, asr r0
    2634:	860e1c02 	strhi	r1, [lr], -r2, lsl #24
    2638:	07000000 	streq	r0, [r0, -r0]
    263c:	00006b04 	andeq	r6, r0, r4, lsl #22
    2640:	00250400 	eoreq	r0, r5, r0, lsl #8
    2644:	009b0000 	addseq	r0, fp, r0
    2648:	9b050000 	blls	142650 <__bss_end__+0x1370c8>
    264c:	00000000 	andeq	r0, r0, r0
    2650:	00a80407 	adceq	r0, r8, r7, lsl #8
    2654:	01030000 	mrseq	r0, (UNDEF: 3)
    2658:	00011e08 	andeq	r1, r1, r8, lsl #28
    265c:	00a10800 	adceq	r0, r1, r0, lsl #16
    2660:	68060000 	stmdavs	r6, {}	; <UNPREDICTABLE>
    2664:	02000005 	andeq	r0, r0, #5, 0
    2668:	00b90e21 	adcseq	r0, r9, r1, lsr #28
    266c:	04070000 	streq	r0, [r7], #-0
    2670:	0000008c 	andeq	r0, r0, ip, lsl #1
    2674:	0000ff09 	andeq	pc, r0, r9, lsl #30
    2678:	06040100 	streq	r0, [r4], -r0, lsl #2
    267c:	00009454 	andeq	r9, r0, r4, asr r4
    2680:	0000002c 	andeq	r0, r0, ip, lsr #32
    2684:	010e9c01 	tsteq	lr, r1, lsl #24
    2688:	680a0000 	stmdavs	sl, {}	; <UNPREDICTABLE>
    268c:	e8000094 	stmda	r0, {r2, r4, r7}
    2690:	0b000000 	bleq	2698 <__code_start__-0x5968>
    2694:	03055001 	movweq	r5, #20481	; 0x5001
    2698:	00009f28 	andeq	r9, r0, r8, lsr #30
    269c:	946c0c00 	strbtls	r0, [ip], #-3072	; 0xfffff400
    26a0:	010e0000 	mrseq	r0, (UNDEF: 14)
    26a4:	740d0000 	strvc	r0, [sp], #-0
    26a8:	1a000094 	bne	2900 <__code_start__-0x5700>
    26ac:	04000001 	streq	r0, [r0], #-1
    26b0:	0b000001 	bleq	26bc <__code_start__-0x5944>
    26b4:	3a015001 	bcc	566c0 <__bss_end__+0x4b138>
    26b8:	94780c00 	ldrbtls	r0, [r8], #-3072	; 0xfffff400
    26bc:	01260000 			; <UNDEFINED> instruction: 0x01260000
    26c0:	0e000000 	cdpeq	0, 0, cr0, cr0, cr0, {0}
    26c4:	000006a5 	andeq	r0, r0, r5, lsr #13
    26c8:	000006a5 	andeq	r0, r0, r5, lsr #13
    26cc:	0e064d02 	cdpeq	13, 0, cr4, cr6, cr2, {0}
    26d0:	000000ac 	andeq	r0, r0, ip, lsr #1
    26d4:	000000ac 	andeq	r0, r0, ip, lsr #1
    26d8:	0e065802 	cdpeq	8, 0, cr5, cr6, cr2, {0}
    26dc:	0000067f 	andeq	r0, r0, pc, ror r6
    26e0:	0000067f 	andeq	r0, r0, pc, ror r6
    26e4:	00066b02 	andeq	r6, r6, r2, lsl #22
    26e8:	00000189 	andeq	r0, r0, r9, lsl #3
    26ec:	0a550004 	beq	1542704 <__bss_end__+0x153717c>
    26f0:	01040000 	mrseq	r0, (UNDEF: 4)
    26f4:	000001bb 			; <UNDEFINED> instruction: 0x000001bb
    26f8:	0006db0c 	andeq	sp, r6, ip, lsl #22
    26fc:	0003d700 	andeq	sp, r3, r0, lsl #14
    2700:	00948000 	addseq	r8, r4, r0
    2704:	00003c00 	andeq	r3, r0, r0, lsl #24
    2708:	00132f00 	andseq	r2, r3, r0, lsl #30
    270c:	05040200 	streq	r0, [r4, #-512]	; 0xfffffe00
    2710:	00746e69 	rsbseq	r6, r4, r9, ror #28
    2714:	66070403 	strvs	r0, [r7], -r3, lsl #8
    2718:	03000001 	movweq	r0, #1
    271c:	01170601 	tsteq	r7, r1, lsl #12
    2720:	02030000 	andeq	r0, r3, #0, 0
    2724:	00004305 	andeq	r4, r0, r5, lsl #6
    2728:	05040300 	streq	r0, [r4, #-768]	; 0xfffffd00
    272c:	000000cc 	andeq	r0, r0, ip, asr #1
    2730:	c7050803 	strgt	r0, [r5, -r3, lsl #16]
    2734:	03000000 	movweq	r0, #0
    2738:	01150801 	tsteq	r5, r1, lsl #16
    273c:	02030000 	andeq	r0, r3, #0, 0
    2740:	00018407 	andeq	r8, r1, r7, lsl #8
    2744:	07040300 	streq	r0, [r4, -r0, lsl #6]
    2748:	00000161 	andeq	r0, r0, r1, ror #2
    274c:	5c070803 	stcpl	8, cr0, [r7], {3}
    2750:	04000001 	streq	r0, [r0], #-1
    2754:	00000025 	andeq	r0, r0, r5, lsr #32
    2758:	0000007a 	andeq	r0, r0, sl, ror r0
    275c:	00002505 	andeq	r2, r0, r5, lsl #10
    2760:	5e060000 	cdppl	0, 0, cr0, cr6, cr0, {0}
    2764:	02000000 	andeq	r0, r0, #0, 0
    2768:	00860e1c 	addeq	r0, r6, ip, lsl lr
    276c:	04070000 	streq	r0, [r7], #-0
    2770:	0000006b 	andeq	r0, r0, fp, rrx
    2774:	00002504 	andeq	r2, r0, r4, lsl #10
    2778:	00009b00 	andeq	r9, r0, r0, lsl #22
    277c:	009b0500 	addseq	r0, fp, r0, lsl #10
    2780:	07000000 	streq	r0, [r0, -r0]
    2784:	0000a804 	andeq	sl, r0, r4, lsl #16
    2788:	08010300 	stmdaeq	r1, {r8, r9}
    278c:	0000011e 	andeq	r0, r0, lr, lsl r1
    2790:	0000a108 	andeq	sl, r0, r8, lsl #2
    2794:	05680600 	strbeq	r0, [r8, #-1536]!	; 0xfffffa00
    2798:	21020000 	mrscs	r0, (UNDEF: 2)
    279c:	0000b90e 	andeq	fp, r0, lr, lsl #18
    27a0:	8c040700 	stchi	7, cr0, [r4], {-0}
    27a4:	09000000 	stmdbeq	r0, {}	; <UNPREDICTABLE>
    27a8:	000006b3 			; <UNDEFINED> instruction: 0x000006b3
    27ac:	80060401 	andhi	r0, r6, r1, lsl #8
    27b0:	3c000094 	stccc	0, cr0, [r0], {148}	; 0x94
    27b4:	01000000 	mrseq	r0, (UNDEF: 0)
    27b8:	0001549c 	muleq	r1, ip, r4
    27bc:	05ae0600 	streq	r0, [lr, #1536]!	; 0x600
    27c0:	05010000 	streq	r0, [r1, #-0]
    27c4:	00002510 	andeq	r2, r0, r0, lsl r5
    27c8:	05d70600 	ldrbeq	r0, [r7, #1536]	; 0x600
    27cc:	05010000 	streq	r0, [r1, #-0]
    27d0:	0000251f 	andeq	r2, r0, pc, lsl r5
    27d4:	017c0a00 	cmneq	ip, r0, lsl #20
    27d8:	06010000 	streq	r0, [r1], -r0
    27dc:	73620b07 	cmnvc	r2, #7168	; 0x1c00
    27e0:	0a010073 	beq	429b4 <__bss_end__+0x3742c>
    27e4:	0001540a 	andeq	r5, r1, sl, lsl #8
    27e8:	00173800 	andseq	r3, r7, r0, lsl #16
    27ec:	00173200 	andseq	r3, r7, r0, lsl #4
    27f0:	06bb0c00 	ldrteq	r0, [fp], r0, lsl #24
    27f4:	0b010000 	bleq	427fc <__bss_end__+0x37274>
    27f8:	0001540a 	andeq	r5, r1, sl, lsl #8
    27fc:	94a40d00 	strtls	r0, [r4], #3328	; 0xd00
    2800:	00080000 	andeq	r0, r8, r0
    2804:	012f0000 			; <UNDEFINED> instruction: 0x012f0000
    2808:	690e0000 	stmdbvs	lr, {}	; <UNPREDICTABLE>
    280c:	1401006e 	strne	r0, [r1], #-110	; 0xffffff92
    2810:	00002c05 	andeq	r2, r0, r5, lsl #24
    2814:	0f000100 	svceq	0x00000100
    2818:	00009488 	andeq	r9, r0, r8, lsl #9
    281c:	0000015a 	andeq	r0, r0, sl, asr r1
    2820:	0094a40f 	addseq	sl, r4, pc, lsl #8
    2824:	00016700 	andeq	r6, r1, r0, lsl #14
    2828:	94b00f00 	ldrtls	r0, [r0], #3840	; 0xf00
    282c:	01730000 	cmneq	r3, r0
    2830:	b40f0000 	strlt	r0, [pc], #-0	; 2838 <__code_start__-0x57c8>
    2834:	80000094 	mulhi	r0, r4, r0
    2838:	00000001 	andeq	r0, r0, r1
    283c:	00250407 	eoreq	r0, r5, r7, lsl #8
    2840:	cd100000 	ldcgt	0, cr0, [r0, #-0]
    2844:	cd000006 	stcgt	0, cr0, [r0, #-24]	; 0xffffffe8
    2848:	02000006 	andeq	r0, r0, #6, 0
    284c:	11060131 	tstne	r6, r1, lsr r1
    2850:	000006c3 	andeq	r0, r0, r3, asr #13
    2854:	000006c3 	andeq	r0, r0, r3, asr #13
    2858:	10063b02 	andne	r3, r6, r2, lsl #22
    285c:	0000017c 	andeq	r0, r0, ip, ror r1
    2860:	0000017c 	andeq	r0, r0, ip, ror r1
    2864:	06010502 	streq	r0, [r1], -r2, lsl #10
    2868:	0000ff11 	andeq	pc, r0, r1, lsl pc	; <UNPREDICTABLE>
    286c:	0000ff00 	andeq	pc, r0, r0, lsl #30
    2870:	066e0200 	strbteq	r0, [lr], -r0, lsl #4
    2874:	0000ce00 	andeq	ip, r0, r0, lsl #28
    2878:	51000400 	tstpl	r0, r0, lsl #8
    287c:	0400000b 	streq	r0, [r0], #-11
    2880:	0001bb01 	andeq	fp, r1, r1, lsl #22
    2884:	06f00c00 	ldrbteq	r0, [r0], r0, lsl #24
    2888:	03d70000 	bicseq	r0, r7, #0, 0
    288c:	94bc0000 	ldrtls	r0, [ip], #0
    2890:	00040000 	andeq	r0, r4, r0
    2894:	13cc0000 	bicne	r0, ip, #0, 0
    2898:	04020000 	streq	r0, [r2], #-0
    289c:	746e6905 	strbtvc	r6, [lr], #-2309	; 0xfffff6fb
    28a0:	07040300 	streq	r0, [r4, -r0, lsl #6]
    28a4:	00000166 	andeq	r0, r0, r6, ror #2
    28a8:	17060103 	strne	r0, [r6, -r3, lsl #2]
    28ac:	03000001 	movweq	r0, #1
    28b0:	00430502 	subeq	r0, r3, r2, lsl #10
    28b4:	04030000 	streq	r0, [r3], #-0
    28b8:	0000cc05 	andeq	ip, r0, r5, lsl #24
    28bc:	05080300 	streq	r0, [r8, #-768]	; 0xfffffd00
    28c0:	000000c7 	andeq	r0, r0, r7, asr #1
    28c4:	15080103 	strne	r0, [r8, #-259]	; 0xfffffefd
    28c8:	03000001 	movweq	r0, #1
    28cc:	01840702 	orreq	r0, r4, r2, lsl #14
    28d0:	04030000 	streq	r0, [r3], #-0
    28d4:	00016107 	andeq	r6, r1, r7, lsl #2
    28d8:	07080300 	streq	r0, [r8, -r0, lsl #6]
    28dc:	0000015c 	andeq	r0, r0, ip, asr r1
    28e0:	00002504 	andeq	r2, r0, r4, lsl #10
    28e4:	00007a00 	andeq	r7, r0, r0, lsl #20
    28e8:	00250500 	eoreq	r0, r5, r0, lsl #10
    28ec:	06000000 	streq	r0, [r0], -r0
    28f0:	0000005e 	andeq	r0, r0, lr, asr r0
    28f4:	860e1c02 	strhi	r1, [lr], -r2, lsl #24
    28f8:	07000000 	streq	r0, [r0, -r0]
    28fc:	00006b04 	andeq	r6, r0, r4, lsl #22
    2900:	00250400 	eoreq	r0, r5, r0, lsl #8
    2904:	009b0000 	addseq	r0, fp, r0
    2908:	9b050000 	blls	142910 <__bss_end__+0x137388>
    290c:	00000000 	andeq	r0, r0, r0
    2910:	00a80407 	adceq	r0, r8, r7, lsl #8
    2914:	01030000 	mrseq	r0, (UNDEF: 3)
    2918:	00011e08 	andeq	r1, r1, r8, lsl #28
    291c:	00a10800 	adceq	r0, r1, r0, lsl #16
    2920:	68060000 	stmdavs	r6, {}	; <UNPREDICTABLE>
    2924:	02000005 	andeq	r0, r0, #5, 0
    2928:	00b90e21 	adcseq	r0, r9, r1, lsr #28
    292c:	04070000 	streq	r0, [r7], #-0
    2930:	0000008c 	andeq	r0, r0, ip, lsl #1
    2934:	0006cd09 	andeq	ip, r6, r9, lsl #26
    2938:	06040100 	streq	r0, [r4], -r0, lsl #2
    293c:	000094bc 			; <UNDEFINED> instruction: 0x000094bc
    2940:	00000004 	andeq	r0, r0, r4
    2944:	6b009c01 	blvs	29950 <__bss_end__+0x1e3c8>
    2948:	04000001 	streq	r0, [r0], #-1
    294c:	000bca00 	andeq	ip, fp, r0, lsl #20
    2950:	bb010400 	bllt	43958 <__bss_end__+0x383d0>
    2954:	0c000001 	stceq	0, cr0, [r0], {1}
    2958:	0000070c 	andeq	r0, r0, ip, lsl #14
    295c:	000003d7 	ldrdeq	r0, [r0], -r7
    2960:	000094c0 	andeq	r9, r0, r0, asr #9
    2964:	0000003c 	andeq	r0, r0, ip, lsr r0
    2968:	0000144d 	andeq	r1, r0, sp, asr #8
    296c:	69050402 	stmdbvs	r5, {r1, sl}
    2970:	0300746e 	movweq	r7, #1134	; 0x46e
    2974:	01660704 	cmneq	r6, r4, lsl #14
    2978:	01030000 	mrseq	r0, (UNDEF: 3)
    297c:	00011706 	andeq	r1, r1, r6, lsl #14
    2980:	05020300 	streq	r0, [r2, #-768]	; 0xfffffd00
    2984:	00000043 	andeq	r0, r0, r3, asr #32
    2988:	cc050403 	cfstrsgt	mvf0, [r5], {3}
    298c:	03000000 	movweq	r0, #0
    2990:	00c70508 	sbceq	r0, r7, r8, lsl #10
    2994:	01030000 	mrseq	r0, (UNDEF: 3)
    2998:	00011508 	andeq	r1, r1, r8, lsl #10
    299c:	07020300 	streq	r0, [r2, -r0, lsl #6]
    29a0:	00000184 	andeq	r0, r0, r4, lsl #3
    29a4:	61070403 	tstvs	r7, r3, lsl #8
    29a8:	03000001 	movweq	r0, #1
    29ac:	015c0708 	cmpeq	ip, r8, lsl #14
    29b0:	25040000 	strcs	r0, [r4, #-0]
    29b4:	7a000000 	bvc	29bc <__code_start__-0x5644>
    29b8:	05000000 	streq	r0, [r0, #-0]
    29bc:	00000025 	andeq	r0, r0, r5, lsr #32
    29c0:	005e0600 	subseq	r0, lr, r0, lsl #12
    29c4:	1c020000 	stcne	0, cr0, [r2], {-0}
    29c8:	0000860e 	andeq	r8, r0, lr, lsl #12
    29cc:	6b040700 	blvs	1045d4 <__bss_end__+0xf904c>
    29d0:	04000000 	streq	r0, [r0], #-0
    29d4:	00000025 	andeq	r0, r0, r5, lsr #32
    29d8:	0000009b 	muleq	r0, fp, r0
    29dc:	00009b05 	andeq	r9, r0, r5, lsl #22
    29e0:	04070000 	streq	r0, [r7], #-0
    29e4:	000000a8 	andeq	r0, r0, r8, lsr #1
    29e8:	1e080103 	adfnee	f0, f0, f3
    29ec:	08000001 	stmdaeq	r0, {r0}
    29f0:	000000a1 	andeq	r0, r0, r1, lsr #1
    29f4:	00056806 	andeq	r6, r5, r6, lsl #16
    29f8:	0e210200 	cdpeq	2, 2, cr0, cr1, cr0, {0}
    29fc:	000000b9 	strheq	r0, [r0], -r9
    2a00:	008c0407 	addeq	r0, ip, r7, lsl #8
    2a04:	35090000 	strcc	r0, [r9, #-0]
    2a08:	01000007 	tsteq	r0, r7
    2a0c:	94c00602 	strbls	r0, [r0], #1538	; 0x602
    2a10:	003c0000 	eorseq	r0, ip, r0
    2a14:	9c010000 	stcls	0, cr0, [r1], {-0}
    2a18:	00000141 	andeq	r0, r0, r1, asr #2
    2a1c:	0063700a 	rsbeq	r7, r3, sl
    2a20:	2c210201 	sfmcs	f0, 4, [r1], #-4
    2a24:	69000000 	stmdbvs	r0, {}	; <UNPREDICTABLE>
    2a28:	63000017 	movwvs	r0, #23
    2a2c:	0b000017 	bleq	2a90 <__code_start__-0x5570>
    2a30:	00000312 	andeq	r0, r0, r2, lsl r3
    2a34:	00000151 	andeq	r0, r0, r1, asr r1
    2a38:	9fa80305 	svcls	0x00a80305
    2a3c:	e80c0000 	stmda	ip, {}	; <UNPREDICTABLE>
    2a40:	56000094 			; <UNDEFINED> instruction: 0x56000094
    2a44:	37000001 	strcc	r0, [r0, -r1]
    2a48:	0d000001 	stceq	0, cr0, [r0, #-4]
    2a4c:	03055001 	movweq	r5, #20481	; 0x5001
    2a50:	00009f60 	andeq	r9, r0, r0, ror #30
    2a54:	0551010d 	ldrbeq	r0, [r1, #-269]	; 0xfffffef3
    2a58:	009f3403 	addseq	r3, pc, r3, lsl #8
    2a5c:	52010d00 	andpl	r0, r1, #0, 26
    2a60:	9fa80305 	svcls	0x00a80305
    2a64:	010d0000 	mrseq	r0, (UNDEF: 13)
    2a68:	0d320153 	ldfeqs	f0, [r2, #-332]!	; 0xfffffeb4
    2a6c:	05007d02 	streq	r7, [r0, #-3330]	; 0xfffff2fe
    2a70:	009f9c03 	addseq	r9, pc, r3, lsl #24
    2a74:	7d020d00 	stcvc	13, cr0, [r2, #-0]
    2a78:	01f30304 	mvnseq	r0, r4, lsl #6
    2a7c:	ec0e0050 	stc	0, cr0, [lr], {80}	; 0x50
    2a80:	62000094 	andvs	r0, r0, #148, 0	; 0x94
    2a84:	00000001 	andeq	r0, r0, r1
    2a88:	0000a80f 	andeq	sl, r0, pc, lsl #16
    2a8c:	00015100 	andeq	r5, r1, r0, lsl #2
    2a90:	002c1000 	eoreq	r1, ip, r0
    2a94:	00110000 	andseq	r0, r1, r0
    2a98:	00014108 	andeq	r4, r1, r8, lsl #2
    2a9c:	052a1100 	streq	r1, [sl, #-256]!	; 0xffffff00
    2aa0:	052a0000 	streq	r0, [sl, #-0]!
    2aa4:	28020000 	stmdacs	r2, {}	; <UNPREDICTABLE>
    2aa8:	00ff1106 	rscseq	r1, pc, r6, lsl #2
    2aac:	00ff0000 	rscseq	r0, pc, r0
    2ab0:	6e020000 	cdpvs	0, 0, cr0, cr2, cr0, {0}
    2ab4:	016b0006 	cmneq	fp, r6
    2ab8:	00040000 	andeq	r0, r4, r0
    2abc:	00000caf 	andeq	r0, r0, pc, lsr #25
    2ac0:	01bb0104 			; <UNDEFINED> instruction: 0x01bb0104
    2ac4:	470c0000 	strmi	r0, [ip, -r0]
    2ac8:	d7000007 	strle	r0, [r0, -r7]
    2acc:	fc000003 	stc2	0, cr0, [r0], {3}
    2ad0:	3c000094 	stccc	0, cr0, [r0], {148}	; 0x94
    2ad4:	e3000000 	movw	r0, #0
    2ad8:	02000014 	andeq	r0, r0, #20, 0
    2adc:	6e690504 	cdpvs	5, 6, cr0, cr9, cr4, {0}
    2ae0:	04030074 	streq	r0, [r3], #-116	; 0xffffff8c
    2ae4:	00016607 	andeq	r6, r1, r7, lsl #12
    2ae8:	06010300 	streq	r0, [r1], -r0, lsl #6
    2aec:	00000117 	andeq	r0, r0, r7, lsl r1
    2af0:	43050203 	movwmi	r0, #20995	; 0x5203
    2af4:	03000000 	movweq	r0, #0
    2af8:	00cc0504 	sbceq	r0, ip, r4, lsl #10
    2afc:	08030000 	stmdaeq	r3, {}	; <UNPREDICTABLE>
    2b00:	0000c705 	andeq	ip, r0, r5, lsl #14
    2b04:	08010300 	stmdaeq	r1, {r8, r9}
    2b08:	00000115 	andeq	r0, r0, r5, lsl r1
    2b0c:	84070203 	strhi	r0, [r7], #-515	; 0xfffffdfd
    2b10:	03000001 	movweq	r0, #1
    2b14:	01610704 	cmneq	r1, r4, lsl #14
    2b18:	08030000 	stmdaeq	r3, {}	; <UNPREDICTABLE>
    2b1c:	00015c07 	andeq	r5, r1, r7, lsl #24
    2b20:	00250400 	eoreq	r0, r5, r0, lsl #8
    2b24:	007a0000 	rsbseq	r0, sl, r0
    2b28:	25050000 	strcs	r0, [r5, #-0]
    2b2c:	00000000 	andeq	r0, r0, r0
    2b30:	00005e06 	andeq	r5, r0, r6, lsl #28
    2b34:	0e1c0200 	cdpeq	2, 1, cr0, cr12, cr0, {0}
    2b38:	00000086 	andeq	r0, r0, r6, lsl #1
    2b3c:	006b0407 	rsbeq	r0, fp, r7, lsl #8
    2b40:	25040000 	strcs	r0, [r4, #-0]
    2b44:	9b000000 	blls	2b4c <__code_start__-0x54b4>
    2b48:	05000000 	streq	r0, [r0, #-0]
    2b4c:	0000009b 	muleq	r0, fp, r0
    2b50:	a8040700 	stmdage	r4, {r8, r9, sl}
    2b54:	03000000 	movweq	r0, #0
    2b58:	011e0801 	tsteq	lr, r1, lsl #16
    2b5c:	a1080000 	mrsge	r0, (UNDEF: 8)
    2b60:	06000000 	streq	r0, [r0], -r0
    2b64:	00000568 	andeq	r0, r0, r8, ror #10
    2b68:	b90e2102 	stmdblt	lr, {r1, r8, sp}
    2b6c:	07000000 	streq	r0, [r0, -r0]
    2b70:	00008c04 	andeq	r8, r0, r4, lsl #24
    2b74:	076a0900 	strbeq	r0, [sl, -r0, lsl #18]!
    2b78:	02010000 	andeq	r0, r1, #0, 0
    2b7c:	0094fc06 	addseq	pc, r4, r6, lsl #24
    2b80:	00003c00 	andeq	r3, r0, r0, lsl #24
    2b84:	419c0100 	orrsmi	r0, ip, r0, lsl #2
    2b88:	0a000001 	beq	2b94 <__code_start__-0x546c>
    2b8c:	01006370 	tsteq	r0, r0, ror r3
    2b90:	002c2502 	eoreq	r2, ip, r2, lsl #10
    2b94:	179c0000 	ldrne	r0, [ip, r0]
    2b98:	17960000 	ldrne	r0, [r6, r0]
    2b9c:	120b0000 	andne	r0, fp, #0, 0
    2ba0:	51000003 	tstpl	r0, r3
    2ba4:	05000001 	streq	r0, [r0, #-1]
    2ba8:	009fe803 	addseq	lr, pc, r3, lsl #16
    2bac:	95240c00 	strls	r0, [r4, #-3072]!	; 0xfffff400
    2bb0:	01560000 	cmpeq	r6, r0
    2bb4:	01370000 	teqeq	r7, r0
    2bb8:	010d0000 	mrseq	r0, (UNDEF: 13)
    2bbc:	60030550 	andvs	r0, r3, r0, asr r5
    2bc0:	0d00009f 	stceq	0, cr0, [r0, #-636]	; 0xfffffd84
    2bc4:	03055101 	movweq	r5, #20737	; 0x5101
    2bc8:	00009fbc 			; <UNDEFINED> instruction: 0x00009fbc
    2bcc:	0552010d 	ldrbeq	r0, [r2, #-269]	; 0xfffffef3
    2bd0:	009fe803 	addseq	lr, pc, r3, lsl #16
    2bd4:	53010d00 	movwpl	r0, #7424	; 0x1d00
    2bd8:	020d3201 	andeq	r3, sp, #268435456	; 0x10000000
    2bdc:	0305007d 	movweq	r0, #20605	; 0x507d
    2be0:	00009fe0 	andeq	r9, r0, r0, ror #31
    2be4:	047d020d 	ldrbteq	r0, [sp], #-525	; 0xfffffdf3
    2be8:	5001f303 	andpl	pc, r1, r3, lsl #6
    2bec:	95280e00 	strls	r0, [r8, #-3584]!	; 0xfffff200
    2bf0:	01620000 	cmneq	r2, r0
    2bf4:	0f000000 	svceq	0x00000000
    2bf8:	000000a8 	andeq	r0, r0, r8, lsr #1
    2bfc:	00000151 	andeq	r0, r0, r1, asr r1
    2c00:	00002c10 	andeq	r2, r0, r0, lsl ip
    2c04:	08001500 	stmdaeq	r0, {r8, sl, ip}
    2c08:	00000141 	andeq	r0, r0, r1, asr #2
    2c0c:	00052a11 	andeq	r2, r5, r1, lsl sl
    2c10:	00052a00 	andeq	r2, r5, r0, lsl #20
    2c14:	06280200 	strteq	r0, [r8], -r0, lsl #4
    2c18:	0000ff11 	andeq	pc, r0, r1, lsl pc	; <UNPREDICTABLE>
    2c1c:	0000ff00 	andeq	pc, r0, r0, lsl #30
    2c20:	066e0200 	strbteq	r0, [lr], -r0, lsl #4
    2c24:	00016b00 	andeq	r6, r1, r0, lsl #22
    2c28:	94000400 	strls	r0, [r0], #-1024	; 0xfffffc00
    2c2c:	0400000d 	streq	r0, [r0], #-13
    2c30:	0001bb01 	andeq	fp, r1, r1, lsl #22
    2c34:	07960c00 	ldreq	r0, [r6, r0, lsl #24]
    2c38:	03d70000 	bicseq	r0, r7, #0, 0
    2c3c:	95380000 	ldrls	r0, [r8, #-0]!
    2c40:	003c0000 	eorseq	r0, ip, r0
    2c44:	15730000 	ldrbne	r0, [r3, #-0]!
    2c48:	04020000 	streq	r0, [r2], #-0
    2c4c:	746e6905 	strbtvc	r6, [lr], #-2309	; 0xfffff6fb
    2c50:	07040300 	streq	r0, [r4, -r0, lsl #6]
    2c54:	00000166 	andeq	r0, r0, r6, ror #2
    2c58:	17060103 	strne	r0, [r6, -r3, lsl #2]
    2c5c:	03000001 	movweq	r0, #1
    2c60:	00430502 	subeq	r0, r3, r2, lsl #10
    2c64:	04030000 	streq	r0, [r3], #-0
    2c68:	0000cc05 	andeq	ip, r0, r5, lsl #24
    2c6c:	05080300 	streq	r0, [r8, #-768]	; 0xfffffd00
    2c70:	000000c7 	andeq	r0, r0, r7, asr #1
    2c74:	15080103 	strne	r0, [r8, #-259]	; 0xfffffefd
    2c78:	03000001 	movweq	r0, #1
    2c7c:	01840702 	orreq	r0, r4, r2, lsl #14
    2c80:	04030000 	streq	r0, [r3], #-0
    2c84:	00016107 	andeq	r6, r1, r7, lsl #2
    2c88:	07080300 	streq	r0, [r8, -r0, lsl #6]
    2c8c:	0000015c 	andeq	r0, r0, ip, asr r1
    2c90:	00002504 	andeq	r2, r0, r4, lsl #10
    2c94:	00007a00 	andeq	r7, r0, r0, lsl #20
    2c98:	00250500 	eoreq	r0, r5, r0, lsl #10
    2c9c:	06000000 	streq	r0, [r0], -r0
    2ca0:	0000005e 	andeq	r0, r0, lr, asr r0
    2ca4:	860e1c02 	strhi	r1, [lr], -r2, lsl #24
    2ca8:	07000000 	streq	r0, [r0, -r0]
    2cac:	00006b04 	andeq	r6, r0, r4, lsl #22
    2cb0:	00250400 	eoreq	r0, r5, r0, lsl #8
    2cb4:	009b0000 	addseq	r0, fp, r0
    2cb8:	9b050000 	blls	142cc0 <__bss_end__+0x137738>
    2cbc:	00000000 	andeq	r0, r0, r0
    2cc0:	00a80407 	adceq	r0, r8, r7, lsl #8
    2cc4:	01030000 	mrseq	r0, (UNDEF: 3)
    2cc8:	00011e08 	andeq	r1, r1, r8, lsl #28
    2ccc:	00a10800 	adceq	r0, r1, r0, lsl #16
    2cd0:	68060000 	stmdavs	r6, {}	; <UNPREDICTABLE>
    2cd4:	02000005 	andeq	r0, r0, #5, 0
    2cd8:	00b90e21 	adcseq	r0, r9, r1, lsr #28
    2cdc:	04070000 	streq	r0, [r7], #-0
    2ce0:	0000008c 	andeq	r0, r0, ip, lsl #1
    2ce4:	00078009 	andeq	r8, r7, r9
    2ce8:	06020100 	streq	r0, [r2], -r0, lsl #2
    2cec:	00009538 	andeq	r9, r0, r8, lsr r5
    2cf0:	0000003c 	andeq	r0, r0, ip, lsr r0
    2cf4:	01419c01 	cmpeq	r1, r1, lsl #24
    2cf8:	700a0000 	andvc	r0, sl, r0
    2cfc:	02010063 	andeq	r0, r1, #99, 0	; 0x63
    2d00:	00002c25 	andeq	r2, r0, r5, lsr #24
    2d04:	0017cf00 	andseq	ip, r7, r0, lsl #30
    2d08:	0017c900 	andseq	ip, r7, r0, lsl #18
    2d0c:	03120b00 	tsteq	r2, #0, 22
    2d10:	01510000 	cmpeq	r1, r0
    2d14:	03050000 	movweq	r0, #20480	; 0x5000
    2d18:	0000a038 	andeq	sl, r0, r8, lsr r0
    2d1c:	0095600c 	addseq	r6, r5, ip
    2d20:	00015600 	andeq	r5, r1, r0, lsl #12
    2d24:	00013700 	andeq	r3, r1, r0, lsl #14
    2d28:	50010d00 	andpl	r0, r1, r0, lsl #26
    2d2c:	9f600305 	svcls	0x00600305
    2d30:	010d0000 	mrseq	r0, (UNDEF: 13)
    2d34:	00030551 	andeq	r0, r3, r1, asr r5
    2d38:	0d0000a0 	stceq	0, cr0, [r0, #-640]	; 0xfffffd80
    2d3c:	03055201 	movweq	r5, #20993	; 0x5201
    2d40:	0000a038 	andeq	sl, r0, r8, lsr r0
    2d44:	0153010d 	cmpeq	r3, sp, lsl #2
    2d48:	7d020d32 	stcvc	13, cr0, [r2, #-200]	; 0xffffff38
    2d4c:	28030500 	stmdacs	r3, {r8, sl}
    2d50:	0d0000a0 	stceq	0, cr0, [r0, #-640]	; 0xfffffd80
    2d54:	03047d02 	movweq	r7, #19714	; 0x4d02
    2d58:	005001f3 	ldrsheq	r0, [r0], #-19	; 0xffffffed
    2d5c:	0095640e 	addseq	r6, r5, lr, lsl #8
    2d60:	00016200 	andeq	r6, r1, r0, lsl #4
    2d64:	a80f0000 	stmdage	pc, {}	; <UNPREDICTABLE>
    2d68:	51000000 	mrspl	r0, (UNDEF: 0)
    2d6c:	10000001 	andne	r0, r0, r1
    2d70:	0000002c 	andeq	r0, r0, ip, lsr #32
    2d74:	41080015 	tstmi	r8, r5, lsl r0
    2d78:	11000001 	tstne	r0, r1
    2d7c:	0000052a 	andeq	r0, r0, sl, lsr #10
    2d80:	0000052a 	andeq	r0, r0, sl, lsr #10
    2d84:	11062802 	tstne	r6, r2, lsl #16
    2d88:	000000ff 	strdeq	r0, [r0], -pc	; <UNPREDICTABLE>
    2d8c:	000000ff 	strdeq	r0, [r0], -pc	; <UNPREDICTABLE>
    2d90:	00066e02 	andeq	r6, r6, r2, lsl #28
    2d94:	0000016b 	andeq	r0, r0, fp, ror #2
    2d98:	0e790004 	cdpeq	0, 7, cr0, cr9, cr4, {0}
    2d9c:	01040000 	mrseq	r0, (UNDEF: 4)
    2da0:	000001bb 			; <UNDEFINED> instruction: 0x000001bb
    2da4:	0007bd0c 	andeq	fp, r7, ip, lsl #26
    2da8:	0003d700 	andeq	sp, r3, r0, lsl #14
    2dac:	00957400 	addseq	r7, r5, r0, lsl #8
    2db0:	00003c00 	andeq	r3, r0, r0, lsl #24
    2db4:	00160700 	andseq	r0, r6, r0, lsl #14
    2db8:	05040200 	streq	r0, [r4, #-512]	; 0xfffffe00
    2dbc:	00746e69 	rsbseq	r6, r4, r9, ror #28
    2dc0:	66070403 	strvs	r0, [r7], -r3, lsl #8
    2dc4:	03000001 	movweq	r0, #1
    2dc8:	01170601 	tsteq	r7, r1, lsl #12
    2dcc:	02030000 	andeq	r0, r3, #0, 0
    2dd0:	00004305 	andeq	r4, r0, r5, lsl #6
    2dd4:	05040300 	streq	r0, [r4, #-768]	; 0xfffffd00
    2dd8:	000000cc 	andeq	r0, r0, ip, asr #1
    2ddc:	c7050803 	strgt	r0, [r5, -r3, lsl #16]
    2de0:	03000000 	movweq	r0, #0
    2de4:	01150801 	tsteq	r5, r1, lsl #16
    2de8:	02030000 	andeq	r0, r3, #0, 0
    2dec:	00018407 	andeq	r8, r1, r7, lsl #8
    2df0:	07040300 	streq	r0, [r4, -r0, lsl #6]
    2df4:	00000161 	andeq	r0, r0, r1, ror #2
    2df8:	5c070803 	stcpl	8, cr0, [r7], {3}
    2dfc:	04000001 	streq	r0, [r0], #-1
    2e00:	00000025 	andeq	r0, r0, r5, lsr #32
    2e04:	0000007a 	andeq	r0, r0, sl, ror r0
    2e08:	00002505 	andeq	r2, r0, r5, lsl #10
    2e0c:	5e060000 	cdppl	0, 0, cr0, cr6, cr0, {0}
    2e10:	02000000 	andeq	r0, r0, #0, 0
    2e14:	00860e1c 	addeq	r0, r6, ip, lsl lr
    2e18:	04070000 	streq	r0, [r7], #-0
    2e1c:	0000006b 	andeq	r0, r0, fp, rrx
    2e20:	00002504 	andeq	r2, r0, r4, lsl #10
    2e24:	00009b00 	andeq	r9, r0, r0, lsl #22
    2e28:	009b0500 	addseq	r0, fp, r0, lsl #10
    2e2c:	07000000 	streq	r0, [r0, -r0]
    2e30:	0000a804 	andeq	sl, r0, r4, lsl #16
    2e34:	08010300 	stmdaeq	r1, {r8, r9}
    2e38:	0000011e 	andeq	r0, r0, lr, lsl r1
    2e3c:	0000a108 	andeq	sl, r0, r8, lsl #2
    2e40:	05680600 	strbeq	r0, [r8, #-1536]!	; 0xfffffa00
    2e44:	21020000 	mrscs	r0, (UNDEF: 2)
    2e48:	0000b90e 	andeq	fp, r0, lr, lsl #18
    2e4c:	8c040700 	stchi	7, cr0, [r4], {-0}
    2e50:	09000000 	stmdbeq	r0, {}	; <UNPREDICTABLE>
    2e54:	000007e1 	andeq	r0, r0, r1, ror #15
    2e58:	74060201 	strvc	r0, [r6], #-513	; 0xfffffdff
    2e5c:	3c000095 	stccc	0, cr0, [r0], {149}	; 0x95
    2e60:	01000000 	mrseq	r0, (UNDEF: 0)
    2e64:	0001419c 	muleq	r1, ip, r1
    2e68:	63700a00 	cmnvs	r0, #0, 20
    2e6c:	1c020100 	stfnes	f0, [r2], {-0}
    2e70:	0000002c 	andeq	r0, r0, ip, lsr #32
    2e74:	00001802 	andeq	r1, r0, r2, lsl #16
    2e78:	000017fc 	strdeq	r1, [r0], -ip
    2e7c:	0003120b 	andeq	r1, r3, fp, lsl #4
    2e80:	00015100 	andeq	r5, r1, r0, lsl #2
    2e84:	7c030500 	cfstr32vc	mvfx0, [r3], {-0}
    2e88:	0c0000a0 	stceq	0, cr0, [r0], {160}	; 0xa0
    2e8c:	0000959c 	muleq	r0, ip, r5
    2e90:	00000156 	andeq	r0, r0, r6, asr r1
    2e94:	00000137 	andeq	r0, r0, r7, lsr r1
    2e98:	0550010d 	ldrbeq	r0, [r0, #-269]	; 0xfffffef3
    2e9c:	009f6003 	addseq	r6, pc, r3
    2ea0:	51010d00 	tstpl	r1, r0, lsl #26
    2ea4:	a0500305 	subsge	r0, r0, r5, lsl #6
    2ea8:	010d0000 	mrseq	r0, (UNDEF: 13)
    2eac:	7c030552 	cfstr32vc	mvfx0, [r3], {82}	; 0x52
    2eb0:	0d0000a0 	stceq	0, cr0, [r0, #-640]	; 0xfffffd80
    2eb4:	32015301 	andcc	r5, r1, #67108864	; 0x4000000
    2eb8:	007d020d 	rsbseq	r0, sp, sp, lsl #4
    2ebc:	a0740305 	rsbsge	r0, r4, r5, lsl #6
    2ec0:	020d0000 	andeq	r0, sp, #0, 0
    2ec4:	f303047d 	vqshl.u8	q0, <illegal reg q14.5>, <illegal reg q1.5>
    2ec8:	0e005001 	cdpeq	0, 0, cr5, cr0, cr1, {0}
    2ecc:	000095a0 	andeq	r9, r0, r0, lsr #11
    2ed0:	00000162 	andeq	r0, r0, r2, ror #2
    2ed4:	00a80f00 	adceq	r0, r8, r0, lsl #30
    2ed8:	01510000 	cmpeq	r1, r0
    2edc:	2c100000 	ldccs	0, cr0, [r0], {-0}
    2ee0:	0c000000 	stceq	0, cr0, [r0], {-0}
    2ee4:	01410800 	cmpeq	r1, r0, lsl #16
    2ee8:	2a110000 	bcs	442ef0 <__bss_end__+0x437968>
    2eec:	2a000005 	bcs	2f08 <__code_start__-0x50f8>
    2ef0:	02000005 	andeq	r0, r0, #5, 0
    2ef4:	ff110628 			; <UNDEFINED> instruction: 0xff110628
    2ef8:	ff000000 			; <UNDEFINED> instruction: 0xff000000
    2efc:	02000000 	andeq	r0, r0, #0, 0
    2f00:	6b00066e 	blvs	48c0 <__code_start__-0x3740>
    2f04:	04000001 	streq	r0, [r0], #-1
    2f08:	000f5e00 	andeq	r5, pc, r0, lsl #28
    2f0c:	bb010400 	bllt	43f14 <__bss_end__+0x3898c>
    2f10:	0c000001 	stceq	0, cr0, [r0], {1}
    2f14:	0000080b 	andeq	r0, r0, fp, lsl #16
    2f18:	000003d7 	ldrdeq	r0, [r0], -r7
    2f1c:	000095b0 			; <UNDEFINED> instruction: 0x000095b0
    2f20:	0000003c 	andeq	r0, r0, ip, lsr r0
    2f24:	00001698 	muleq	r0, r8, r6
    2f28:	69050402 	stmdbvs	r5, {r1, sl}
    2f2c:	0300746e 	movweq	r7, #1134	; 0x46e
    2f30:	01660704 	cmneq	r6, r4, lsl #14
    2f34:	01030000 	mrseq	r0, (UNDEF: 3)
    2f38:	00011706 	andeq	r1, r1, r6, lsl #14
    2f3c:	05020300 	streq	r0, [r2, #-768]	; 0xfffffd00
    2f40:	00000043 	andeq	r0, r0, r3, asr #32
    2f44:	cc050403 	cfstrsgt	mvf0, [r5], {3}
    2f48:	03000000 	movweq	r0, #0
    2f4c:	00c70508 	sbceq	r0, r7, r8, lsl #10
    2f50:	01030000 	mrseq	r0, (UNDEF: 3)
    2f54:	00011508 	andeq	r1, r1, r8, lsl #10
    2f58:	07020300 	streq	r0, [r2, -r0, lsl #6]
    2f5c:	00000184 	andeq	r0, r0, r4, lsl #3
    2f60:	61070403 	tstvs	r7, r3, lsl #8
    2f64:	03000001 	movweq	r0, #1
    2f68:	015c0708 	cmpeq	ip, r8, lsl #14
    2f6c:	25040000 	strcs	r0, [r4, #-0]
    2f70:	7a000000 	bvc	2f78 <__code_start__-0x5088>
    2f74:	05000000 	streq	r0, [r0, #-0]
    2f78:	00000025 	andeq	r0, r0, r5, lsr #32
    2f7c:	005e0600 	subseq	r0, lr, r0, lsl #12
    2f80:	1c020000 	stcne	0, cr0, [r2], {-0}
    2f84:	0000860e 	andeq	r8, r0, lr, lsl #12
    2f88:	6b040700 	blvs	104b90 <__bss_end__+0xf9608>
    2f8c:	04000000 	streq	r0, [r0], #-0
    2f90:	00000025 	andeq	r0, r0, r5, lsr #32
    2f94:	0000009b 	muleq	r0, fp, r0
    2f98:	00009b05 	andeq	r9, r0, r5, lsl #22
    2f9c:	04070000 	streq	r0, [r7], #-0
    2fa0:	000000a8 	andeq	r0, r0, r8, lsr #1
    2fa4:	1e080103 	adfnee	f0, f0, f3
    2fa8:	08000001 	stmdaeq	r0, {r0}
    2fac:	000000a1 	andeq	r0, r0, r1, lsr #1
    2fb0:	00056806 	andeq	r6, r5, r6, lsl #16
    2fb4:	0e210200 	cdpeq	2, 2, cr0, cr1, cr0, {0}
    2fb8:	000000b9 	strheq	r0, [r0], -r9
    2fbc:	008c0407 	addeq	r0, ip, r7, lsl #8
    2fc0:	ee090000 	cdp	0, 0, cr0, cr9, cr0, {0}
    2fc4:	01000007 	tsteq	r0, r7
    2fc8:	95b00602 	ldrls	r0, [r0, #1538]!	; 0x602
    2fcc:	003c0000 	eorseq	r0, ip, r0
    2fd0:	9c010000 	stcls	0, cr0, [r1], {-0}
    2fd4:	00000141 	andeq	r0, r0, r1, asr #2
    2fd8:	0063700a 	rsbeq	r7, r3, sl
    2fdc:	2c2c0201 	sfmcs	f0, 4, [ip], #-4
    2fe0:	35000000 	strcc	r0, [r0, #-0]
    2fe4:	2f000018 	svccs	0x00000018
    2fe8:	0b000018 	bleq	3050 <__code_start__-0x4fb0>
    2fec:	00000312 	andeq	r0, r0, r2, lsl r3
    2ff0:	00000151 	andeq	r0, r0, r1, asr r1
    2ff4:	a0cc0305 	sbcge	r0, ip, r5, lsl #6
    2ff8:	d80c0000 	stmdale	ip, {}	; <UNPREDICTABLE>
    2ffc:	56000095 			; <UNDEFINED> instruction: 0x56000095
    3000:	37000001 	strcc	r0, [r0, -r1]
    3004:	0d000001 	stceq	0, cr0, [r0, #-4]
    3008:	03055001 	movweq	r5, #20481	; 0x5001
    300c:	00009f60 	andeq	r9, r0, r0, ror #30
    3010:	0551010d 	ldrbeq	r0, [r1, #-269]	; 0xfffffef3
    3014:	00a08c03 	adceq	r8, r0, r3, lsl #24
    3018:	52010d00 	andpl	r0, r1, #0, 26
    301c:	a0cc0305 	sbcge	r0, ip, r5, lsl #6
    3020:	010d0000 	mrseq	r0, (UNDEF: 13)
    3024:	0d320153 	ldfeqs	f0, [r2, #-332]!	; 0xfffffeb4
    3028:	05007d02 	streq	r7, [r0, #-3330]	; 0xfffff2fe
    302c:	00a0bc03 	adceq	fp, r0, r3, lsl #24
    3030:	7d020d00 	stcvc	13, cr0, [r2, #-0]
    3034:	01f30304 	mvnseq	r0, r4, lsl #6
    3038:	dc0e0050 	stcle	0, cr0, [lr], {80}	; 0x50
    303c:	62000095 	andvs	r0, r0, #149, 0	; 0x95
    3040:	00000001 	andeq	r0, r0, r1
    3044:	0000a80f 	andeq	sl, r0, pc, lsl #16
    3048:	00015100 	andeq	r5, r1, r0, lsl #2
    304c:	002c1000 	eoreq	r1, ip, r0
    3050:	001c0000 	andseq	r0, ip, r0
    3054:	00014108 	andeq	r4, r1, r8, lsl #2
    3058:	052a1100 	streq	r1, [sl, #-256]!	; 0xffffff00
    305c:	052a0000 	streq	r0, [sl, #-0]!
    3060:	28020000 	stmdacs	r2, {}	; <UNPREDICTABLE>
    3064:	00ff1106 	rscseq	r1, pc, r6, lsl #2
    3068:	00ff0000 	rscseq	r0, pc, r0
    306c:	6e020000 	cdpvs	0, 0, cr0, cr2, cr0, {0}
    3070:	02120006 	andseq	r0, r2, #6, 0
    3074:	00040000 	andeq	r0, r4, r0
    3078:	00001043 	andeq	r1, r0, r3, asr #32
    307c:	01bb0104 			; <UNDEFINED> instruction: 0x01bb0104
    3080:	d90c0000 	stmdble	ip, {}	; <UNPREDICTABLE>
    3084:	d7000008 	strle	r0, [r0, -r8]
    3088:	ec000003 	stc	0, cr0, [r0], {3}
    308c:	68000095 	stmdavs	r0, {r0, r2, r4, r7}
    3090:	32000000 	andcc	r0, r0, #0, 0
    3094:	02000017 	andeq	r0, r0, #23, 0
    3098:	6e690504 	cdpvs	5, 6, cr0, cr9, cr4, {0}
    309c:	04030074 	streq	r0, [r3], #-116	; 0xffffff8c
    30a0:	00016607 	andeq	r6, r1, r7, lsl #12
    30a4:	06010300 	streq	r0, [r1], -r0, lsl #6
    30a8:	00000117 	andeq	r0, r0, r7, lsl r1
    30ac:	43050203 	movwmi	r0, #20995	; 0x5203
    30b0:	03000000 	movweq	r0, #0
    30b4:	00cc0504 	sbceq	r0, ip, r4, lsl #10
    30b8:	08030000 	stmdaeq	r3, {}	; <UNPREDICTABLE>
    30bc:	0000c705 	andeq	ip, r0, r5, lsl #14
    30c0:	08010300 	stmdaeq	r1, {r8, r9}
    30c4:	00000115 	andeq	r0, r0, r5, lsl r1
    30c8:	84070203 	strhi	r0, [r7], #-515	; 0xfffffdfd
    30cc:	03000001 	movweq	r0, #1
    30d0:	01610704 	cmneq	r1, r4, lsl #14
    30d4:	08030000 	stmdaeq	r3, {}	; <UNPREDICTABLE>
    30d8:	00015c07 	andeq	r5, r1, r7, lsl #24
    30dc:	00250400 	eoreq	r0, r5, r0, lsl #8
    30e0:	007a0000 	rsbseq	r0, sl, r0
    30e4:	25050000 	strcs	r0, [r5, #-0]
    30e8:	00000000 	andeq	r0, r0, r0
    30ec:	00005e06 	andeq	r5, r0, r6, lsl #28
    30f0:	0e1c0200 	cdpeq	2, 1, cr0, cr12, cr0, {0}
    30f4:	00000086 	andeq	r0, r0, r6, lsl #1
    30f8:	006b0407 	rsbeq	r0, fp, r7, lsl #8
    30fc:	25040000 	strcs	r0, [r4, #-0]
    3100:	9b000000 	blls	3108 <__code_start__-0x4ef8>
    3104:	05000000 	streq	r0, [r0, #-0]
    3108:	0000009b 	muleq	r0, fp, r0
    310c:	a8040700 	stmdage	r4, {r8, r9, sl}
    3110:	03000000 	movweq	r0, #0
    3114:	011e0801 	tsteq	lr, r1, lsl #16
    3118:	a1080000 	mrsge	r0, (UNDEF: 8)
    311c:	06000000 	streq	r0, [r0], -r0
    3120:	00000568 	andeq	r0, r0, r8, ror #10
    3124:	b90e2102 	stmdblt	lr, {r1, r8, sp}
    3128:	07000000 	streq	r0, [r0, -r0]
    312c:	00008c04 	andeq	r8, r0, r4, lsl #24
    3130:	04070900 	streq	r0, [r7], #-2304	; 0xfffff700
    3134:	0000002c 	andeq	r0, r0, ip, lsr #32
    3138:	31061403 	tstcc	r6, r3, lsl #8
    313c:	0a000001 	beq	3148 <__code_start__-0x4eb8>
    3140:	00000912 	andeq	r0, r0, r2, lsl r9
    3144:	2000b200 	andcs	fp, r0, r0, lsl #4
    3148:	0008380a 	andeq	r3, r8, sl, lsl #16
    314c:	00b20000 	adcseq	r0, r2, r0
    3150:	08a80a20 	stmiaeq	r8!, {r5, r9, fp}
    3154:	b2040000 	andlt	r0, r4, #0, 0
    3158:	cb0a2000 	blgt	28b160 <__bss_end__+0x27fbd8>
    315c:	08000008 	stmdaeq	r0, {r3}
    3160:	0a2000b2 	beq	803430 <__bss_end__+0x7f7ea8>
    3164:	0000085d 	andeq	r0, r0, sp, asr r8
    3168:	2000b20c 	andcs	fp, r0, ip, lsl #4
    316c:	00088c0a 	andeq	r8, r8, sl, lsl #24
    3170:	00b21000 	adcseq	r1, r2, r0
    3174:	089a0a20 	ldmeq	sl, {r5, r9, fp}
    3178:	b2140000 	andslt	r0, r4, #0, 0
    317c:	7a0a2000 	bvc	28b184 <__bss_end__+0x27fbfc>
    3180:	18000008 	stmdane	r0, {r3}
    3184:	0a2000b2 	beq	803454 <__bss_end__+0x7f7ecc>
    3188:	000008f4 	strdeq	r0, [r0], -r4
    318c:	2000b21c 	andcs	fp, r0, ip, lsl r2
    3190:	0009030a 	andeq	r0, r9, sl, lsl #6
    3194:	00b22000 	adcseq	r2, r2, r0
    3198:	084a0a20 	stmdaeq	sl, {r5, r9, fp}^
    319c:	b2240000 	eorlt	r0, r4, #0, 0
    31a0:	0b002000 	bleq	b1a8 <buf.3940+0x20>
    31a4:	0000010c 	andeq	r0, r0, ip, lsl #2
    31a8:	ec061b01 			; <UNDEFINED> instruction: 0xec061b01
    31ac:	68000095 	stmdavs	r0, {r0, r2, r4, r7}
    31b0:	01000000 	mrseq	r0, (UNDEF: 0)
    31b4:	0001f79c 	muleq	r1, ip, r7
    31b8:	08690600 	stmdaeq	r9!, {r9, sl}^
    31bc:	23010000 	movwcs	r0, #4096	; 0x1000
    31c0:	00002c15 	andeq	r2, r0, r5, lsl ip
    31c4:	08b60600 	ldmeq	r6!, {r9, sl}
    31c8:	24010000 	strcs	r0, [r1], #-0
    31cc:	00002c15 	andeq	r2, r0, r5, lsl ip
    31d0:	73640c00 	cmnvc	r4, #0, 24
    31d4:	27010074 	smlsdxcs	r1, r4, r0, r0
    31d8:	0001f70f 	andeq	pc, r1, pc, lsl #14
    31dc:	730d0000 	movwvc	r0, #53248	; 0xd000
    31e0:	01006372 	tsteq	r0, r2, ror r3
    31e4:	01f71328 	mvnseq	r1, r8, lsr #6
    31e8:	6e0e0000 	cdpvs	0, 0, cr0, cr14, cr0, {0}
    31ec:	12290100 	eorne	r0, r9, #0
    31f0:	0000002c 	andeq	r0, r0, ip, lsr #32
    31f4:	00001864 	andeq	r1, r0, r4, ror #16
    31f8:	00001862 	andeq	r1, r0, r2, ror #16
    31fc:	0096200f 	addseq	r2, r6, pc
    3200:	00003400 	andeq	r3, r0, r0, lsl #8
    3204:	0001aa00 	andeq	sl, r1, r0, lsl #20
    3208:	00690e00 	rsbeq	r0, r9, r0, lsl #28
    320c:	250d2a01 	strcs	r2, [sp, #-2561]	; 0xfffff5ff
    3210:	7b000000 	blvc	3218 <__code_start__-0x4de8>
    3214:	77000018 	smladvc	r0, r8, r0, r0
    3218:	00000018 	andeq	r0, r0, r8, lsl r0
    321c:	0095f410 	addseq	pc, r5, r0, lsl r4	; <UNPREDICTABLE>
    3220:	0001fd00 	andeq	pc, r1, r0, lsl #26
    3224:	96001100 	strls	r1, [r0], -r0, lsl #2
    3228:	02090000 	andeq	r0, r9, #0, 0
    322c:	01d00000 	bicseq	r0, r0, r0
    3230:	01120000 	tsteq	r2, r0
    3234:	1c0c0550 	cfstr32ne	mvfx0, [ip], {80}	; 0x50
    3238:	122000b2 	eorne	r0, r0, #178, 0	; 0xb2
    323c:	09025101 	stmdbeq	r2, {r0, r8, ip, lr}
    3240:	0c1100ff 	ldceq	0, cr0, [r1], {255}	; 0xff
    3244:	09000096 	stmdbeq	r0, {r1, r2, r4, r7}
    3248:	ed000002 	stc	0, cr0, [r0, #-8]
    324c:	12000001 	andne	r0, r0, #1, 0
    3250:	0c055001 	stceq	0, cr5, [r5], {1}
    3254:	2000b220 	andcs	fp, r0, r0, lsr #4
    3258:	02510112 	subseq	r0, r1, #-2147483644	; 0x80000004
    325c:	1000ff09 	andne	pc, r0, r9, lsl #30
    3260:	00009610 	andeq	r9, r0, r0, lsl r6
    3264:	000001fd 	strdeq	r0, [r0], -sp
    3268:	2c040700 	stccs	7, cr0, [r4], {-0}
    326c:	13000000 	movwne	r0, #0
    3270:	0000034d 	andeq	r0, r0, sp, asr #6
    3274:	0000034d 	andeq	r0, r0, sp, asr #6
    3278:	13069c02 	movwne	r9, #27650	; 0x6c02
    327c:	00000414 	andeq	r0, r0, r4, lsl r4
    3280:	00000414 	andeq	r0, r0, r4, lsl r4
    3284:	0006ad02 	andeq	sl, r6, r2, lsl #26
    3288:	00000236 	andeq	r0, r0, r6, lsr r2
    328c:	11500004 	cmpne	r0, r4
    3290:	01040000 	mrseq	r0, (UNDEF: 4)
    3294:	000001bb 			; <UNDEFINED> instruction: 0x000001bb
    3298:	0009410c 	andeq	r4, r9, ip, lsl #2
    329c:	0003d700 	andeq	sp, r3, r0, lsl #14
    32a0:	00008000 	andeq	r8, r0, r0
    32a4:	00000000 	andeq	r0, r0, r0
    32a8:	00181900 	andseq	r1, r8, r0, lsl #18
    32ac:	05040200 	streq	r0, [r4, #-512]	; 0xfffffe00
    32b0:	00746e69 	rsbseq	r6, r4, r9, ror #28
    32b4:	00002503 	andeq	r2, r0, r3, lsl #10
    32b8:	07040400 	streq	r0, [r4, -r0, lsl #8]
    32bc:	00000166 	andeq	r0, r0, r6, ror #2
    32c0:	17060104 	strne	r0, [r6, -r4, lsl #2]
    32c4:	04000001 	streq	r0, [r0], #-1
    32c8:	00430502 	subeq	r0, r3, r2, lsl #10
    32cc:	04040000 	streq	r0, [r4], #-0
    32d0:	0000cc05 	andeq	ip, r0, r5, lsl #24
    32d4:	05080400 	streq	r0, [r8, #-1024]	; 0xfffffc00
    32d8:	000000c7 	andeq	r0, r0, r7, asr #1
    32dc:	15080104 	strne	r0, [r8, #-260]	; 0xfffffefc
    32e0:	04000001 	streq	r0, [r0], #-1
    32e4:	01840702 	orreq	r0, r4, r2, lsl #14
    32e8:	04040000 	streq	r0, [r4], #-0
    32ec:	00016107 	andeq	r6, r1, r7, lsl #2
    32f0:	07080400 	streq	r0, [r8, -r0, lsl #8]
    32f4:	0000015c 	andeq	r0, r0, ip, asr r1
    32f8:	00002505 	andeq	r2, r0, r5, lsl #10
    32fc:	00007f00 	andeq	r7, r0, r0, lsl #30
    3300:	00250600 	eoreq	r0, r5, r0, lsl #12
    3304:	07000000 	streq	r0, [r0, -r0]
    3308:	0000005e 	andeq	r0, r0, lr, asr r0
    330c:	8b0e1c02 	blhi	38a31c <__bss_end__+0x37ed94>
    3310:	08000000 	stmdaeq	r0, {}	; <UNPREDICTABLE>
    3314:	00007004 	andeq	r7, r0, r4
    3318:	00250500 	eoreq	r0, r5, r0, lsl #10
    331c:	00a00000 	adceq	r0, r0, r0
    3320:	a0060000 	andge	r0, r6, r0
    3324:	00000000 	andeq	r0, r0, r0
    3328:	00ad0408 	adceq	r0, sp, r8, lsl #8
    332c:	01040000 	mrseq	r0, (UNDEF: 4)
    3330:	00011e08 	andeq	r1, r1, r8, lsl #28
    3334:	00a60300 	adceq	r0, r6, r0, lsl #6
    3338:	68070000 	stmdavs	r7, {}	; <UNPREDICTABLE>
    333c:	02000005 	andeq	r0, r0, #5, 0
    3340:	00be0e21 	adcseq	r0, lr, r1, lsr #28
    3344:	04080000 	streq	r0, [r8], #-0
    3348:	00000091 	muleq	r0, r1, r0
    334c:	00096509 	andeq	r6, r9, r9, lsl #10
    3350:	110d0100 	mrsne	r0, (UNDEF: 29)
    3354:	00000031 	andeq	r0, r0, r1, lsr r0
    3358:	00067f0a 	andeq	r7, r6, sl, lsl #30
    335c:	061f0100 	ldreq	r0, [pc], -r0, lsl #2
    3360:	00009698 	muleq	r0, r8, r6
    3364:	00000054 	andeq	r0, r0, r4, asr r0
    3368:	01ae9c01 			; <UNDEFINED> instruction: 0x01ae9c01
    336c:	890b0000 	stmdbhi	fp, {}	; <UNPREDICTABLE>
    3370:	01000009 	tsteq	r0, r9
    3374:	002c0f2c 	eoreq	r0, ip, ip, lsr #30
    3378:	189c0000 	ldmne	ip, {}	; <UNPREDICTABLE>
    337c:	189a0000 	ldmne	sl, {}	; <UNPREDICTABLE>
    3380:	2a0b0000 	bcs	2c3388 <__bss_end__+0x2b7e00>
    3384:	01000009 	tsteq	r0, r9
    3388:	002c0f2d 	eoreq	r0, ip, sp, lsr #30
    338c:	18b60000 	ldmne	r6!, {}	; <UNPREDICTABLE>
    3390:	18b40000 	ldmne	r4!, {}	; <UNPREDICTABLE>
    3394:	560b0000 	strpl	r0, [fp], -r0
    3398:	01000009 	tsteq	r0, r9
    339c:	002c0f2e 	eoreq	r0, ip, lr, lsr #30
    33a0:	18d00000 	ldmne	r0, {}^	; <UNPREDICTABLE>
    33a4:	18ce0000 	stmiane	lr, {}^	; <UNPREDICTABLE>
    33a8:	700b0000 	andvc	r0, fp, r0
    33ac:	01000009 	tsteq	r0, r9
    33b0:	002c0f2f 	eoreq	r0, ip, pc, lsr #30
    33b4:	18e90000 	stmiane	r9!, {}^	; <UNPREDICTABLE>
    33b8:	18e70000 	stmiane	r7!, {}^	; <UNPREDICTABLE>
    33bc:	a00c0000 	andge	r0, ip, r0
    33c0:	d9000096 	stmdble	r0, {r1, r2, r4, r7}
    33c4:	0c000001 	stceq	0, cr0, [r0], {1}
    33c8:	000096ac 	andeq	r9, r0, ip, lsr #13
    33cc:	00000208 	andeq	r0, r0, r8, lsl #4
    33d0:	0096b00c 	addseq	fp, r6, ip
    33d4:	00021500 	andeq	r1, r2, r0, lsl #10
    33d8:	96b80d00 	ldrtls	r0, [r8], r0, lsl #26
    33dc:	02210000 	eoreq	r0, r1, #0, 0
    33e0:	01640000 	cmneq	r4, r0
    33e4:	010e0000 	mrseq	r0, (UNDEF: 14)
    33e8:	003a0150 	eorseq	r0, sl, r0, asr r1
    33ec:	0096c40d 	addseq	ip, r6, sp, lsl #8
    33f0:	00022d00 	andeq	r2, r2, r0, lsl #26
    33f4:	00018400 	andeq	r8, r1, r0, lsl #8
    33f8:	50010e00 	andpl	r0, r1, r0, lsl #28
    33fc:	00240c05 	eoreq	r0, r4, r5, lsl #24
    3400:	010e2010 	tsteq	lr, r0, lsl r0
    3404:	010c0551 	tsteq	ip, r1, asr r5
    3408:	005a0000 	subseq	r0, sl, r0
    340c:	0096d00d 	addseq	sp, r6, sp
    3410:	00022d00 	andeq	r2, r2, r0, lsl #26
    3414:	0001a400 	andeq	sl, r1, r0, lsl #8
    3418:	50010e00 	andpl	r0, r1, r0, lsl #28
    341c:	001c0c05 	andseq	r0, ip, r5, lsl #24
    3420:	010e2010 	tsteq	lr, r0, lsl r0
    3424:	200c0551 	andcs	r0, ip, r1, asr r5
    3428:	005a0000 	subseq	r0, sl, r0
    342c:	0096d80c 	addseq	sp, r6, ip, lsl #16
    3430:	0001ae00 	andeq	sl, r1, r0, lsl #28
    3434:	320f0000 	andcc	r0, pc, #0, 0
    3438:	01000009 	tsteq	r0, r9
    343c:	96840617 	pkhbtls	r0, r4, r7, lsl #12
    3440:	00140000 	andseq	r0, r4, r0
    3444:	9c010000 	stcls	0, cr0, [r1], {-0}
    3448:	000001d9 	ldrdeq	r0, [r0], -r9
    344c:	0009910b 	andeq	r9, r9, fp, lsl #2
    3450:	0e180100 	mufeqe	f0, f0, f0
    3454:	00000031 	andeq	r0, r0, r1, lsr r0
    3458:	00001904 	andeq	r1, r0, r4, lsl #18
    345c:	000018fe 	strdeq	r1, [r0], -lr
    3460:	09621000 	stmdbeq	r2!, {ip}^
    3464:	0e010000 	cdpeq	0, 0, cr0, cr1, cr0, {0}
    3468:	00002505 	andeq	r2, r0, r5, lsl #10
    346c:	00966c00 	addseq	r6, r6, r0, lsl #24
    3470:	00001800 	andeq	r1, r0, r0, lsl #16
    3474:	089c0100 	ldmeq	ip, {r8}
    3478:	0b000002 	bleq	3488 <__code_start__-0x4b78>
    347c:	00000991 	muleq	r0, r1, r9
    3480:	310e0f01 	tstcc	lr, r1, lsl #30
    3484:	32000000 	andcc	r0, r0, #0, 0
    3488:	2e000019 	mcrcs	0, 0, r0, cr0, cr9, {0}
    348c:	00000019 	andeq	r0, r0, r9, lsl r0
    3490:	00091b11 	andeq	r1, r9, r1, lsl fp
    3494:	00091b00 	andeq	r1, r9, r0, lsl #22
    3498:	01360200 	teqeq	r6, r0, lsl #4
    349c:	06a51206 	strteq	r1, [r5], r6, lsl #4
    34a0:	06a50000 	strteq	r0, [r5], r0
    34a4:	4d020000 	stcmi	0, cr0, [r2, #-0]
    34a8:	00ac1206 	adceq	r1, ip, r6, lsl #4
    34ac:	00ac0000 	adceq	r0, ip, r0
    34b0:	58020000 	stmdapl	r2, {}	; <UNPREDICTABLE>
    34b4:	04141206 	ldreq	r1, [r4], #-518	; 0xfffffdfa
    34b8:	04140000 	ldreq	r0, [r4], #-0
    34bc:	ad020000 	stcge	0, cr0, [r2, #-0]
    34c0:	024d0006 	subeq	r0, sp, #6, 0
    34c4:	00040000 	andeq	r0, r4, r0
    34c8:	00001275 	andeq	r1, r0, r5, ror r2
    34cc:	01bb0104 			; <UNDEFINED> instruction: 0x01bb0104
    34d0:	a00c0000 	andge	r0, ip, r0
    34d4:	d7000009 	strle	r0, [r0, -r9]
    34d8:	ec000003 	stc	0, cr0, [r0], {3}
    34dc:	84000096 	strhi	r0, [r0], #-150	; 0xffffff6a
    34e0:	ea000000 	b	34e8 <__code_start__-0x4b18>
    34e4:	02000018 	andeq	r0, r0, #24, 0
    34e8:	6e690504 	cdpvs	5, 6, cr0, cr9, cr4, {0}
    34ec:	04030074 	streq	r0, [r3], #-116	; 0xffffff8c
    34f0:	00016607 	andeq	r6, r1, r7, lsl #12
    34f4:	06010300 	streq	r0, [r1], -r0, lsl #6
    34f8:	00000117 	andeq	r0, r0, r7, lsl r1
    34fc:	43050203 	movwmi	r0, #20995	; 0x5203
    3500:	03000000 	movweq	r0, #0
    3504:	00cc0504 	sbceq	r0, ip, r4, lsl #10
    3508:	08030000 	stmdaeq	r3, {}	; <UNPREDICTABLE>
    350c:	0000c705 	andeq	ip, r0, r5, lsl #14
    3510:	08010300 	stmdaeq	r1, {r8, r9}
    3514:	00000115 	andeq	r0, r0, r5, lsl r1
    3518:	84070203 	strhi	r0, [r7], #-515	; 0xfffffdfd
    351c:	03000001 	movweq	r0, #1
    3520:	01610704 	cmneq	r1, r4, lsl #14
    3524:	08030000 	stmdaeq	r3, {}	; <UNPREDICTABLE>
    3528:	00015c07 	andeq	r5, r1, r7, lsl #24
    352c:	00250400 	eoreq	r0, r5, r0, lsl #8
    3530:	007a0000 	rsbseq	r0, sl, r0
    3534:	25050000 	strcs	r0, [r5, #-0]
    3538:	00000000 	andeq	r0, r0, r0
    353c:	00005e06 	andeq	r5, r0, r6, lsl #28
    3540:	0e1c0200 	cdpeq	2, 1, cr0, cr12, cr0, {0}
    3544:	00000086 	andeq	r0, r0, r6, lsl #1
    3548:	006b0407 	rsbeq	r0, fp, r7, lsl #8
    354c:	25040000 	strcs	r0, [r4, #-0]
    3550:	9b000000 	blls	3558 <__code_start__-0x4aa8>
    3554:	05000000 	streq	r0, [r0, #-0]
    3558:	0000009b 	muleq	r0, fp, r0
    355c:	a8040700 	stmdage	r4, {r8, r9, sl}
    3560:	03000000 	movweq	r0, #0
    3564:	011e0801 	tsteq	lr, r1, lsl #16
    3568:	a1080000 	mrsge	r0, (UNDEF: 8)
    356c:	06000000 	streq	r0, [r0], -r0
    3570:	00000568 	andeq	r0, r0, r8, ror #10
    3574:	b90e2102 	stmdblt	lr, {r1, r8, sp}
    3578:	07000000 	streq	r0, [r0, -r0]
    357c:	00008c04 	andeq	r8, r0, r4, lsl #24
    3580:	09960900 	ldmibeq	r6, {r8, fp}
    3584:	1e010000 	cdpne	0, 0, cr0, cr1, cr0, {0}
    3588:	00975806 	addseq	r5, r7, r6, lsl #16
    358c:	00001800 	andeq	r1, r0, r0, lsl #16
    3590:	099c0100 	ldmibeq	ip, {r8}
    3594:	0a000001 	beq	35a0 <__code_start__-0x4a60>
    3598:	00636573 	rsbeq	r6, r3, r3, ror r5
    359c:	2c191e01 	ldccs	14, cr1, [r9], {1}
    35a0:	55000000 	strpl	r0, [r0, #-0]
    35a4:	51000019 	tstpl	r0, r9, lsl r0
    35a8:	0b000019 	bleq	3614 <__code_start__-0x49ec>
    35ac:	0000976c 	andeq	r9, r0, ip, ror #14
    35b0:	00000109 	andeq	r0, r0, r9, lsl #2
    35b4:	1150010c 	cmpne	r0, ip, lsl #2
    35b8:	355001f3 	ldrbcc	r0, [r0, #-499]	; 0xfffffe0d
    35bc:	5001f324 	andpl	pc, r1, r4, lsr #6
    35c0:	f324321c 	vqsub.u32	d3, d4, d12
    35c4:	33225001 			; <UNDEFINED> instruction: 0x33225001
    35c8:	09000024 	stmdbeq	r0, {r2, r5}
    35cc:	000000ac 	andeq	r0, r0, ip, lsr #1
    35d0:	40061b01 	andmi	r1, r6, r1, lsl #22
    35d4:	18000097 	stmdane	r0, {r0, r1, r2, r4, r7}
    35d8:	01000000 	mrseq	r0, (UNDEF: 0)
    35dc:	0001529c 	muleq	r1, ip, r2
    35e0:	736d0a00 	cmnvc	sp, #0, 20
    35e4:	181b0100 	ldmdane	fp, {r8}
    35e8:	0000002c 	andeq	r0, r0, ip, lsr #32
    35ec:	0000197a 	andeq	r1, r0, sl, ror r9
    35f0:	00001976 	andeq	r1, r0, r6, ror r9
    35f4:	0097540b 	addseq	r5, r7, fp, lsl #8
    35f8:	00015200 	andeq	r5, r1, r0, lsl #4
    35fc:	50010c00 	andpl	r0, r1, r0, lsl #24
    3600:	5001f311 	andpl	pc, r1, r1, lsl r3	; <UNPREDICTABLE>
    3604:	01f32435 	mvnseq	r2, r5, lsr r4
    3608:	24321c50 	ldrtcs	r1, [r2], #-3152	; 0xfffff3b0
    360c:	225001f3 	subscs	r0, r0, #-1073741764	; 0xc000003c
    3610:	00002433 	andeq	r2, r0, r3, lsr r4
    3614:	00031f09 	andeq	r1, r3, r9, lsl #30
    3618:	06120100 	ldreq	r0, [r2], -r0, lsl #2
    361c:	0000971c 	andeq	r9, r0, ip, lsl r7
    3620:	00000024 	andeq	r0, r0, r4, lsr #32
    3624:	01c29c01 	biceq	r9, r2, r1, lsl #24
    3628:	750a0000 	strvc	r0, [sl, #-0]
    362c:	12010073 	andne	r0, r1, #115, 0	; 0x73
    3630:	00002c18 	andeq	r2, r0, r8, lsl ip
    3634:	00199f00 	andseq	r9, r9, r0, lsl #30
    3638:	00199b00 	andseq	r9, r9, r0, lsl #22
    363c:	62720d00 	rsbsvs	r0, r2, #0, 26
    3640:	0e130100 	mufeqs	f0, f3, f0
    3644:	0000002c 	andeq	r0, r0, ip, lsr #32
    3648:	000019bf 			; <UNDEFINED> instruction: 0x000019bf
    364c:	000019bd 			; <UNDEFINED> instruction: 0x000019bd
    3650:	00972c0e 	addseq	r2, r7, lr, lsl #24
    3654:	00001400 	andeq	r1, r0, r0, lsl #8
    3658:	0001b800 	andeq	fp, r1, r0, lsl #16
    365c:	61720d00 	cmnvs	r2, r0, lsl #26
    3660:	12150100 	andsne	r0, r5, #0
    3664:	0000002c 	andeq	r0, r0, ip, lsr #32
    3668:	000019d4 	ldrdeq	r1, [r0], -r4
    366c:	000019d2 	ldrdeq	r1, [r0], -r2
    3670:	0097300f 	addseq	r3, r7, pc
    3674:	0001c200 	andeq	ip, r1, r0, lsl #4
    3678:	280f0000 	stmdacs	pc, {}	; <UNPREDICTABLE>
    367c:	c2000097 	andgt	r0, r0, #151, 0	; 0x97
    3680:	00000001 	andeq	r0, r0, r1
    3684:	0001ac10 	andeq	sl, r1, r0, lsl ip
    3688:	0a090100 	beq	243a90 <__bss_end__+0x238508>
    368c:	0000002c 	andeq	r0, r0, ip, lsr #32
    3690:	00009700 	andeq	r9, r0, r0, lsl #14
    3694:	0000001c 	andeq	r0, r0, ip, lsl r0
    3698:	020a9c01 	andeq	r9, sl, #256	; 0x100
    369c:	750d0000 	strvc	r0, [sp, #-0]
    36a0:	0e0d0100 	adfeqe	f0, f5, f0
    36a4:	0000002c 	andeq	r0, r0, ip, lsr #32
    36a8:	000019eb 	andeq	r1, r0, fp, ror #19
    36ac:	000019e7 	andeq	r1, r0, r7, ror #19
    36b0:	0097080f 	addseq	r0, r7, pc, lsl #16
    36b4:	00023800 	andeq	r3, r2, r0, lsl #16
    36b8:	970c0f00 	strls	r0, [ip, -r0, lsl #30]
    36bc:	020a0000 	andeq	r0, sl, #0, 0
    36c0:	140f0000 	strne	r0, [pc], #-0	; 36c8 <__code_start__-0x4938>
    36c4:	38000097 	stmdacc	r0, {r0, r1, r2, r4, r7}
    36c8:	00000002 	andeq	r0, r0, r2
    36cc:	0009b410 	andeq	fp, r9, r0, lsl r4
    36d0:	0a040100 	beq	103ad8 <__bss_end__+0xf8550>
    36d4:	0000002c 	andeq	r0, r0, ip, lsr #32
    36d8:	000096ec 	andeq	r9, r0, ip, ror #13
    36dc:	00000014 	andeq	r0, r0, r4, lsl r0
    36e0:	02389c01 	eorseq	r9, r8, #256	; 0x100
    36e4:	f80b0000 			; <UNDEFINED> instruction: 0xf80b0000
    36e8:	44000096 	strmi	r0, [r0], #-150	; 0xffffff6a
    36ec:	0c000002 	stceq	0, cr0, [r0], {2}
    36f0:	0c055001 	stceq	0, cr5, [r5], {1}
    36f4:	20003004 	andcs	r3, r0, r4
    36f8:	4d110000 	ldcmi	0, cr0, [r1, #-0]
    36fc:	4d000003 	stcmi	0, cr0, [r0, #-12]
    3700:	02000003 	andeq	r0, r0, #3, 0
    3704:	b511069c 	ldrlt	r0, [r1, #-1692]	; 0xfffff964
    3708:	b5000003 	strlt	r0, [r0, #-3]
    370c:	02000003 	andeq	r0, r0, #3, 0
    3710:	cd000ac2 	vstrgt	s0, [r0, #-776]	; 0xfffffcf8
    3714:	04000005 	streq	r0, [r0], #-5
    3718:	00137600 	andseq	r7, r3, r0, lsl #12
    371c:	34010400 	strcc	r0, [r1], #-1024	; 0xfffffc00
    3720:	0c00000a 	stceq	0, cr0, [r0], {10}
    3724:	000009e3 	andeq	r0, r0, r3, ror #19
    3728:	00000b03 	andeq	r0, r0, r3, lsl #22
    372c:	00009770 	andeq	r9, r0, r0, ror r7
    3730:	000001f0 	strdeq	r0, [r0], -r0	; <UNPREDICTABLE>
    3734:	000019c2 	andeq	r1, r0, r2, asr #19
    3738:	69050402 	stmdbvs	r5, {r1, sl}
    373c:	0300746e 	movweq	r7, #1134	; 0x46e
    3740:	01660704 	cmneq	r6, r4, lsl #14
    3744:	2c040000 	stccs	0, cr0, [r4], {-0}
    3748:	03000000 	movweq	r0, #0
    374c:	01170601 	tsteq	r7, r1, lsl #12
    3750:	02030000 	andeq	r0, r3, #0, 0
    3754:	00004305 	andeq	r4, r0, r5, lsl #6
    3758:	05040300 	streq	r0, [r4, #-768]	; 0xfffffd00
    375c:	000000cc 	andeq	r0, r0, ip, asr #1
    3760:	c7050803 	strgt	r0, [r5, -r3, lsl #16]
    3764:	03000000 	movweq	r0, #0
    3768:	01150801 	tsteq	r5, r1, lsl #16
    376c:	02030000 	andeq	r0, r3, #0, 0
    3770:	00018407 	andeq	r8, r1, r7, lsl #8
    3774:	01730500 	cmneq	r3, r0, lsl #10
    3778:	34050000 	strcc	r0, [r5], #-0
    377c:	00006e19 	andeq	r6, r0, r9, lsl lr
    3780:	07040300 	streq	r0, [r4, -r0, lsl #6]
    3784:	00000161 	andeq	r0, r0, r1, ror #2
    3788:	5c070803 	stcpl	8, cr0, [r7], {3}
    378c:	03000001 	movweq	r0, #1
    3790:	011e0801 	tsteq	lr, r1, lsl #16
    3794:	07060000 	streq	r0, [r6, -r0]
    3798:	00005401 	andeq	r5, r0, r1, lsl #8
    379c:	0e0c0400 	cfcpyseq	mvf0, mvf12
    37a0:	000000c2 	andeq	r0, r0, r2, asr #1
    37a4:	00050007 	andeq	r0, r5, r7
    37a8:	5e070000 	cdppl	0, 0, cr0, cr7, cr0, {0}
    37ac:	01000004 	tsteq	r0, r4
    37b0:	00047907 	andeq	r7, r4, r7, lsl #18
    37b4:	88070400 	stmdahi	r7, {sl}
    37b8:	05000004 	streq	r0, [r0, #-4]
    37bc:	00049707 	andeq	r9, r4, r7, lsl #14
    37c0:	a6070600 	strge	r0, [r7], -r0, lsl #12
    37c4:	07000004 	streq	r0, [r0, -r4]
    37c8:	0004ec07 	andeq	lr, r4, r7, lsl #24
    37cc:	b5070300 	strlt	r0, [r7, #-768]	; 0xfffffd00
    37d0:	02000004 	andeq	r0, r0, #4, 0
    37d4:	0af70800 	beq	ffdc57dc <__bss_end__+0xffdba254>
    37d8:	022c0000 	eoreq	r0, ip, #0, 0
    37dc:	015e0806 	cmpeq	lr, r6, lsl #16
    37e0:	69090000 	stmdbvs	r9, {}	; <UNPREDICTABLE>
    37e4:	0902006f 	stmdbeq	r2, {r0, r1, r2, r3, r5, r6}
    37e8:	00003309 	andeq	r3, r0, r9, lsl #6
    37ec:	69090000 	stmdbvs	r9, {}	; <UNPREDICTABLE>
    37f0:	02007265 	andeq	r7, r0, #1342177286	; 0x50000006
    37f4:	0033090a 	eorseq	r0, r3, sl, lsl #18
    37f8:	09040000 	stmdbeq	r4, {}	; <UNPREDICTABLE>
    37fc:	00726969 	rsbseq	r6, r2, r9, ror #18
    3800:	33091102 	movwcc	r1, #37122	; 0x9102
    3804:	08000000 	stmdaeq	r0, {}	; <UNPREDICTABLE>
    3808:	72636c09 	rsbvc	r6, r3, #2304	; 0x900
    380c:	09130200 	ldmdbeq	r3, {r9}
    3810:	00000033 	andeq	r0, r0, r3, lsr r0
    3814:	636d090c 	cmnvs	sp, #12, 18	; 0x30000
    3818:	14020072 	strne	r0, [r2], #-114	; 0xffffff8e
    381c:	00003309 	andeq	r3, r0, r9, lsl #6
    3820:	6c091000 	stcvs	0, cr1, [r9], {-0}
    3824:	02007273 	andeq	r7, r0, #805306375	; 0x30000007
    3828:	00330915 	eorseq	r0, r3, r5, lsl r9
    382c:	09140000 	ldmdbeq	r4, {}	; <UNPREDICTABLE>
    3830:	0072736d 	rsbseq	r7, r2, sp, ror #6
    3834:	33091602 	movwcc	r1, #38402	; 0x9602
    3838:	18000000 	stmdane	r0, {}	; <UNPREDICTABLE>
    383c:	000aef0a 	andeq	lr, sl, sl, lsl #30
    3840:	09170200 	ldmdbeq	r7, {r9}
    3844:	00000033 	andeq	r0, r0, r3, lsr r0
    3848:	0ac70a1c 	beq	ff1c60c0 <__bss_end__+0xff1bab38>
    384c:	1b020000 	blne	83854 <__bss_end__+0x782cc>
    3850:	00003309 	andeq	r3, r0, r9, lsl #6
    3854:	d00a2000 	andle	r2, sl, r0
    3858:	02000009 	andeq	r0, r0, #9, 0
    385c:	0033091d 	eorseq	r0, r3, sp, lsl r9
    3860:	0a240000 	beq	903868 <__bss_end__+0x8f82e0>
    3864:	00000a19 	andeq	r0, r0, r9, lsl sl
    3868:	33091e02 	movwcc	r1, #40450	; 0x9e02
    386c:	28000000 	stmdacs	r0, {}	; <UNPREDICTABLE>
    3870:	0a1e0b00 	beq	786478 <__bss_end__+0x77aef0>
    3874:	08010000 	stmdaeq	r1, {}	; <UNPREDICTABLE>
    3878:	00017409 	andeq	r7, r1, r9, lsl #8
    387c:	21500400 	cmpcs	r0, r0, lsl #8
    3880:	33040c20 	movwcc	r0, #19488	; 0x4c20
    3884:	0d000000 	stceq	0, cr0, [r0, #-0]
    3888:	0000016e 	andeq	r0, r0, lr, ror #2
    388c:	0009f80b 	andeq	pc, r9, fp, lsl #16
    3890:	23290100 			; <UNDEFINED> instruction: 0x23290100
    3894:	0000018f 	andeq	r0, r0, pc, lsl #3
    3898:	20215040 	eorcs	r5, r1, r0, asr #32
    389c:	00c2040c 	sbceq	r0, r2, ip, lsl #8
    38a0:	890d0000 	stmdbhi	sp, {}	; <UNPREDICTABLE>
    38a4:	0e000001 	cdpeq	0, 0, cr0, cr0, cr1, {0}
    38a8:	000006a5 	andeq	r0, r0, r5, lsr #13
    38ac:	2806cc01 	stmdacs	r6, {r0, sl, fp, lr, pc}
    38b0:	14000099 	strne	r0, [r0], #-153	; 0xffffff67
    38b4:	01000000 	mrseq	r0, (UNDEF: 0)
    38b8:	0001b49c 	muleq	r1, ip, r4
    38bc:	99300f00 	ldmdbls	r0!, {r8, r9, sl, fp}
    38c0:	01b40000 			; <UNDEFINED> instruction: 0x01b40000
    38c4:	10000000 	andne	r0, r0, r0
    38c8:	00000a02 	andeq	r0, r0, r2, lsl #20
    38cc:	2505b601 	strcs	fp, [r5, #-1537]	; 0xfffff9ff
    38d0:	08000000 	stmdaeq	r0, {}	; <UNPREDICTABLE>
    38d4:	20000099 	mulcs	r0, r9, r0
    38d8:	01000000 	mrseq	r0, (UNDEF: 0)
    38dc:	0001eb9c 	muleq	r1, ip, fp
    38e0:	99100f00 	ldmdbls	r0, {r8, r9, sl, fp}
    38e4:	05a00000 	streq	r0, [r0, #0]!
    38e8:	18110000 	ldmdane	r1, {}	; <UNPREDICTABLE>
    38ec:	ac000099 	stcge	0, cr0, [r0], {153}	; 0x99
    38f0:	12000005 	andne	r0, r0, #5, 0
    38f4:	0c055001 	stceq	0, cr5, [r5], {1}
    38f8:	20215064 	eorcs	r5, r1, r4, rrx
    38fc:	d9100000 	ldmdble	r0, {}	; <UNPREDICTABLE>
    3900:	0100000a 	tsteq	r0, sl
    3904:	002505b3 	strhteq	r0, [r5], -r3
    3908:	98f80000 	ldmls	r8!, {}^	; <UNPREDICTABLE>
    390c:	00100000 	andseq	r0, r0, r0
    3910:	9c010000 	stcls	0, cr0, [r1], {-0}
    3914:	00000218 	andeq	r0, r0, r8, lsl r2
    3918:	0099000f 	addseq	r0, r9, pc
    391c:	0005a000 	andeq	sl, r5, r0
    3920:	99040f00 	stmdbls	r4, {r8, r9, sl, fp}
    3924:	03090000 	movweq	r0, #36864	; 0x9000
    3928:	0e000000 	cdpeq	0, 0, cr0, cr0, cr0, {0}
    392c:	00000b40 	andeq	r0, r0, r0, asr #22
    3930:	c806ab01 	stmdagt	r6, {r0, r8, r9, fp, sp, pc}
    3934:	30000098 	mulcc	r0, r8, r0
    3938:	01000000 	mrseq	r0, (UNDEF: 0)
    393c:	00027c9c 	muleq	r2, ip, ip
    3940:	00631300 	rsbeq	r1, r3, r0, lsl #6
    3944:	2c19ab01 			; <UNDEFINED> instruction: 0x2c19ab01
    3948:	0d000000 	stceq	0, cr0, [r0, #-0]
    394c:	0900001a 	stmdbeq	r0, {r1, r3, r4}
    3950:	0f00001a 	svceq	0x0000001a
    3954:	000098d4 	ldrdeq	r9, [r0], -r4
    3958:	000005a0 	andeq	r0, r0, r0, lsr #11
    395c:	0098d80f 	addseq	sp, r8, pc, lsl #16
    3960:	0002db00 	andeq	sp, r2, r0, lsl #22
    3964:	98ec1400 	stmials	ip!, {sl, ip}^
    3968:	05b80000 	ldreq	r0, [r8, #0]!
    396c:	02720000 	rsbseq	r0, r2, #0, 0
    3970:	01120000 	tsteq	r2, r0
    3974:	400c0550 	andmi	r0, ip, r0, asr r5
    3978:	12202150 	eorne	r2, r0, #20
    397c:	74055101 	strvc	r5, [r5], #-257	; 0xfffffeff
    3980:	1aff0800 	bne	fffc5988 <__bss_end__+0xfffba400>
    3984:	98f00f00 	ldmls	r0!, {r8, r9, sl, fp}^
    3988:	05a00000 	streq	r0, [r0, #0]!
    398c:	10000000 	andne	r0, r0, r0
    3990:	00000a2a 	andeq	r0, r0, sl, lsr #20
    3994:	2505a301 	strcs	sl, [r5, #-769]	; 0xfffffcff
    3998:	98000000 	stmdals	r0, {}	; <UNPREDICTABLE>
    399c:	30000098 	mulcc	r0, r8, r0
    39a0:	01000000 	mrseq	r0, (UNDEF: 0)
    39a4:	0002db9c 	muleq	r2, ip, fp
    39a8:	00631500 	rsbeq	r1, r3, r0, lsl #10
    39ac:	2509a701 	strcs	sl, [r9, #-1793]	; 0xfffff8ff
    39b0:	2d000000 	stccs	0, cr0, [r0, #-0]
    39b4:	2b00001a 	blcs	3a24 <__code_start__-0x45dc>
    39b8:	0f00001a 	svceq	0x0000001a
    39bc:	000098a0 	andeq	r9, r0, r0, lsr #17
    39c0:	000005a0 	andeq	r0, r0, r0, lsr #11
    39c4:	0098a40f 	addseq	sl, r8, pc, lsl #8
    39c8:	00030900 	andeq	r0, r3, r0, lsl #18
    39cc:	98b41400 	ldmls	r4!, {sl, ip}
    39d0:	05ac0000 	streq	r0, [ip, #0]!
    39d4:	02d10000 	sbcseq	r0, r1, #0, 0
    39d8:	01120000 	tsteq	r2, r0
    39dc:	400c0550 	andmi	r0, ip, r0, asr r5
    39e0:	00202150 	eoreq	r2, r0, r0, asr r1
    39e4:	0098bc0f 	addseq	fp, r8, pc, lsl #24
    39e8:	0005a000 	andeq	sl, r5, r0
    39ec:	ea100000 	b	4039f4 <__bss_end__+0x3f846c>
    39f0:	01000009 	tsteq	r0, r9
    39f4:	00250594 	mlaeq	r5, r4, r5, r0
    39f8:	98780000 	ldmdals	r8!, {}^	; <UNPREDICTABLE>
    39fc:	00200000 	eoreq	r0, r0, r0
    3a00:	9c010000 	stcls	0, cr0, [r1], {-0}
    3a04:	00000309 	andeq	r0, r0, r9, lsl #6
    3a08:	00988411 	addseq	r8, r8, r1, lsl r4
    3a0c:	0005ac00 	andeq	sl, r5, r0, lsl #24
    3a10:	50011200 	andpl	r1, r1, r0, lsl #4
    3a14:	50640c05 	rsbpl	r0, r4, r5, lsl #24
    3a18:	00002021 	andeq	r2, r0, r1, lsr #32
    3a1c:	0009d510 	andeq	sp, r9, r0, lsl r5
    3a20:	058b0100 	streq	r0, [fp, #256]	; 0x100
    3a24:	00000025 	andeq	r0, r0, r5, lsr #32
    3a28:	00009860 	andeq	r9, r0, r0, ror #16
    3a2c:	00000018 	andeq	r0, r0, r8, lsl r0
    3a30:	03379c01 	teqeq	r7, #256	; 0x100
    3a34:	6c110000 	ldcvs	0, cr0, [r1], {-0}
    3a38:	ac000098 	stcge	0, cr0, [r0], {152}	; 0x98
    3a3c:	12000005 	andne	r0, r0, #5, 0
    3a40:	0c055001 	stceq	0, cr5, [r5], {1}
    3a44:	20215064 	eorcs	r5, r1, r4, rrx
    3a48:	c30e0000 	movwgt	r0, #57344	; 0xe000
    3a4c:	01000006 	tsteq	r0, r6
    3a50:	97b00645 	ldrls	r0, [r0, r5, asr #12]!
    3a54:	00b00000 	adcseq	r0, r0, r0
    3a58:	9c010000 	stcls	0, cr0, [r1], {-0}
    3a5c:	00000484 	andeq	r0, r0, r4, lsl #9
    3a60:	0009c716 	andeq	ip, r9, r6, lsl r7
    3a64:	0e7e0100 	rpweqe	f0, f6, f0
    3a68:	00000062 	andeq	r0, r0, r2, rrx
    3a6c:	c014010e 	andsgt	r0, r4, lr, lsl #2
    3a70:	c4000097 	strgt	r0, [r0], #-151	; 0xffffff69
    3a74:	73000005 	movwvc	r0, #5
    3a78:	12000003 	andne	r0, r0, #3, 0
    3a7c:	3e015001 	cdpcc	0, 0, cr5, cr1, cr1, {0}
    3a80:	01510112 	cmpeq	r1, r2, lsl r1
    3a84:	cc140032 	ldcgt	0, cr0, [r4], {50}	; 0x32
    3a88:	c4000097 	strgt	r0, [r0], #-151	; 0xffffff69
    3a8c:	8b000005 	blhi	3aa8 <__code_start__-0x4558>
    3a90:	12000003 	andne	r0, r0, #3, 0
    3a94:	3f015001 	svccc	0x00015001
    3a98:	01510112 	cmpeq	r1, r2, lsl r1
    3a9c:	d00f0032 	andle	r0, pc, r2, lsr r0	; <UNPREDICTABLE>
    3aa0:	a0000097 	mulge	r0, r7, r0
    3aa4:	14000005 	strne	r0, [r0], #-5
    3aa8:	000097dc 	ldrdeq	r9, [r0], -ip
    3aac:	0000053d 	andeq	r0, r0, sp, lsr r5
    3ab0:	000003b0 			; <UNDEFINED> instruction: 0x000003b0
    3ab4:	05500112 	ldrbeq	r0, [r0, #-274]	; 0xfffffeee
    3ab8:	2150040c 	cmpcs	r0, ip, lsl #8
    3abc:	51011220 	tstpl	r1, r0, lsr #4
    3ac0:	0f003101 	svceq	0x00003101
    3ac4:	000097e0 	andeq	r9, r0, r0, ror #15
    3ac8:	000005a0 	andeq	r0, r0, r0, lsr #11
    3acc:	0097f014 	addseq	pc, r7, r4, lsl r0	; <UNPREDICTABLE>
    3ad0:	0005b800 	andeq	fp, r5, r0, lsl #16
    3ad4:	0003d200 	andeq	sp, r3, r0, lsl #4
    3ad8:	50011200 	andpl	r1, r1, r0, lsl #4
    3adc:	12007402 	andne	r7, r0, #33554432	; 0x2000000
    3ae0:	30015101 	andcc	r5, r1, r1, lsl #2
    3ae4:	97fc1400 	ldrbls	r1, [ip, r0, lsl #8]!
    3ae8:	05b80000 	ldreq	r0, [r8, #0]!
    3aec:	03ee0000 	mvneq	r0, #0, 0
    3af0:	01120000 	tsteq	r2, r0
    3af4:	440c0550 	strmi	r0, [ip], #-1360	; 0xfffffab0
    3af8:	12202150 	eorne	r2, r0, #20
    3afc:	30015101 	andcc	r5, r1, r1, lsl #2
    3b00:	98081400 	stmdals	r8, {sl, ip}
    3b04:	05b80000 	ldreq	r0, [r8, #0]!
    3b08:	040a0000 	streq	r0, [sl], #-0
    3b0c:	01120000 	tsteq	r2, r0
    3b10:	4c0c0550 	cfstr32mi	mvfx0, [ip], {80}	; 0x50
    3b14:	12202150 	eorne	r2, r0, #20
    3b18:	33015101 	movwcc	r5, #4353	; 0x1101
    3b1c:	98141400 	ldmdals	r4, {sl, ip}
    3b20:	05b80000 	ldreq	r0, [r8, #0]!
    3b24:	04260000 	strteq	r0, [r6], #-0
    3b28:	01120000 	tsteq	r2, r0
    3b2c:	500c0550 	andpl	r0, ip, r0, asr r5
    3b30:	12202150 	eorne	r2, r0, #20
    3b34:	30015101 	andcc	r5, r1, r1, lsl #2
    3b38:	98201400 	stmdals	r0!, {sl, ip}
    3b3c:	05b80000 	ldreq	r0, [r8, #0]!
    3b40:	04430000 	strbeq	r0, [r3], #-0
    3b44:	01120000 	tsteq	r2, r0
    3b48:	480c0550 	stmdami	ip, {r4, r6, r8, sl}
    3b4c:	12202150 	eorne	r2, r0, #20
    3b50:	08025101 	stmdaeq	r2, {r0, r8, ip, lr}
    3b54:	2c1400c7 	ldccs	0, cr0, [r4], {199}	; 0xc7
    3b58:	b8000098 	stmdalt	r0, {r3, r4, r7}
    3b5c:	61000005 	tstvs	r0, r5
    3b60:	12000004 	andne	r0, r0, #4, 0
    3b64:	0c055001 	stceq	0, cr5, [r5], {1}
    3b68:	20215068 	eorcs	r5, r1, r8, rrx
    3b6c:	03510112 	cmpeq	r1, #-2147483644	; 0x80000004
    3b70:	00010e0a 	andeq	r0, r1, sl, lsl #28
    3b74:	00983814 	addseq	r3, r8, r4, lsl r8
    3b78:	0005b800 	andeq	fp, r5, r0, lsl #16
    3b7c:	00047a00 	andeq	r7, r4, r0, lsl #20
    3b80:	50011200 	andpl	r1, r1, r0, lsl #4
    3b84:	12007402 	andne	r7, r0, #33554432	; 0x2000000
    3b88:	33015101 	movwcc	r5, #4353	; 0x1101
    3b8c:	983c0f00 	ldmdals	ip!, {r8, r9, sl, fp}
    3b90:	05a00000 	streq	r0, [r0, #0]!
    3b94:	0e000000 	cdpeq	0, 0, cr0, cr0, cr0, {0}
    3b98:	00000acc 	andeq	r0, r0, ip, asr #21
    3b9c:	3c063501 	cfstr32cc	mvfx3, [r6], {1}
    3ba0:	24000099 	strcs	r0, [r0], #-153	; 0xffffff67
    3ba4:	01000000 	mrseq	r0, (UNDEF: 0)
    3ba8:	0004d39c 	muleq	r4, ip, r3
    3bac:	99440f00 	stmdbls	r4, {r8, r9, sl, fp}^
    3bb0:	01940000 	orrseq	r0, r4, r0
    3bb4:	480f0000 	stmdami	pc, {}	; <UNPREDICTABLE>
    3bb8:	a0000099 	mulge	r0, r9, r0
    3bbc:	14000005 	strne	r0, [r0], #-5
    3bc0:	00009954 	andeq	r9, r0, r4, asr r9
    3bc4:	000004d3 	ldrdeq	r0, [r0], -r3
    3bc8:	000004c9 	andeq	r0, r0, r9, asr #9
    3bcc:	05500112 	ldrbeq	r0, [r0, #-274]	; 0xfffffeee
    3bd0:	2150040c 	cmpcs	r0, ip, lsl #8
    3bd4:	51011220 	tstpl	r1, r0, lsr #4
    3bd8:	00fe0902 	rscseq	r0, lr, r2, lsl #18
    3bdc:	0099580f 	addseq	r5, r9, pc, lsl #16
    3be0:	0005a000 	andeq	sl, r5, r0
    3be4:	37170000 	ldrcc	r0, [r7, -r0]
    3be8:	0100000b 	tsteq	r0, fp
    3bec:	97700d31 			; <UNDEFINED> instruction: 0x97700d31
    3bf0:	00200000 	eoreq	r0, r0, r0
    3bf4:	9c010000 	stcls	0, cr0, [r1], {-0}
    3bf8:	00000536 	andeq	r0, r0, r6, lsr r5
    3bfc:	0009fd18 	andeq	pc, r9, r8, lsl sp	; <UNPREDICTABLE>
    3c00:	25310100 	ldrcs	r0, [r1, #-256]!	; 0xffffff00
    3c04:	00000536 	andeq	r0, r0, r6, lsr r5
    3c08:	00001a44 	andeq	r1, r0, r4, asr #20
    3c0c:	00001a40 	andeq	r1, r0, r0, asr #20
    3c10:	6c617613 	stclvs	6, cr7, [r1], #-76	; 0xffffffb4
    3c14:	34310100 	ldrtcc	r0, [r1], #-256	; 0xffffff00
    3c18:	0000002c 	andeq	r0, r0, ip, lsr #32
    3c1c:	00001a66 	andeq	r1, r0, r6, ror #20
    3c20:	00001a62 	andeq	r1, r0, r2, ror #20
    3c24:	00978014 	addseq	r8, r7, r4, lsl r0
    3c28:	0005ac00 	andeq	sl, r5, r0, lsl #24
    3c2c:	00052500 	andeq	r2, r5, r0, lsl #10
    3c30:	50011200 	andpl	r1, r1, r0, lsl #4
    3c34:	00007402 	andeq	r7, r0, r2, lsl #8
    3c38:	00978c11 	addseq	r8, r7, r1, lsl ip
    3c3c:	0005b800 	andeq	fp, r5, r0, lsl #16
    3c40:	50011200 	andpl	r1, r1, r0, lsl #4
    3c44:	00007402 	andeq	r7, r0, r2, lsl #8
    3c48:	3c040c00 	stccc	12, cr0, [r4], {-0}
    3c4c:	19000005 	stmdbne	r0, {r0, r2}
    3c50:	000ae717 	andeq	lr, sl, r7, lsl r7
    3c54:	0d2e0100 	stfeqs	f0, [lr, #-0]
    3c58:	00009790 	muleq	r0, r0, r7
    3c5c:	00000020 	andeq	r0, r0, r0, lsr #32
    3c60:	05a09c01 	streq	r9, [r0, #3073]!	; 0xc01
    3c64:	fd180000 	ldc2	0, cr0, [r8, #-0]
    3c68:	01000009 	tsteq	r0, r9
    3c6c:	0536242e 	ldreq	r2, [r6, #-1070]!	; 0xfffffbd2
    3c70:	1a880000 	bne	fe203c78 <__bss_end__+0xfe1f86f0>
    3c74:	1a840000 	bne	fe103c7c <__bss_end__+0xfe0f86f4>
    3c78:	76130000 	ldrvc	r0, [r3], -r0
    3c7c:	01006c61 	tsteq	r0, r1, ror #24
    3c80:	002c332e 	eoreq	r3, ip, lr, lsr #6
    3c84:	1aaa0000 	bne	fea83c8c <__bss_end__+0xfea78704>
    3c88:	1aa60000 	bne	fe983c90 <__bss_end__+0xfe978708>
    3c8c:	a0140000 	andsge	r0, r4, r0
    3c90:	ac000097 	stcge	0, cr0, [r0], {151}	; 0x97
    3c94:	8f000005 	svchi	0x00000005
    3c98:	12000005 	andne	r0, r0, #5, 0
    3c9c:	74025001 	strvc	r5, [r2], #-1
    3ca0:	ac110000 	ldcge	0, cr0, [r1], {-0}
    3ca4:	b8000097 	stmdalt	r0, {r0, r1, r2, r4, r7}
    3ca8:	12000005 	andne	r0, r0, #5, 0
    3cac:	74025001 	strvc	r5, [r2], #-1
    3cb0:	1a000000 	bne	3cb8 <__code_start__-0x4348>
    3cb4:	0000034d 	andeq	r0, r0, sp, asr #6
    3cb8:	0000034d 	andeq	r0, r0, sp, asr #6
    3cbc:	1a069c03 	bne	1aacd0 <__bss_end__+0x19f748>
    3cc0:	00000b4a 	andeq	r0, r0, sl, asr #22
    3cc4:	00000b4a 	andeq	r0, r0, sl, asr #22
    3cc8:	1a0bc303 	bne	2f48dc <__bss_end__+0x2e9354>
    3ccc:	00000a13 	andeq	r0, r0, r3, lsl sl
    3cd0:	00000a13 	andeq	r0, r0, r3, lsl sl
    3cd4:	1a06ae03 	bne	1af4e8 <__bss_end__+0x1a3f60>
    3cd8:	00000510 	andeq	r0, r0, r0, lsl r5
    3cdc:	00000510 	andeq	r0, r0, r0, lsl r5
    3ce0:	00061904 	andeq	r1, r6, r4, lsl #18
    3ce4:	000003a6 	andeq	r0, r0, r6, lsr #7
    3ce8:	150e0004 	strne	r0, [lr, #-4]
    3cec:	01040000 	mrseq	r0, (UNDEF: 4)
    3cf0:	00000a34 	andeq	r0, r0, r4, lsr sl
    3cf4:	000b790c 	andeq	r7, fp, ip, lsl #18
    3cf8:	000b0300 	andeq	r0, fp, r0, lsl #6
    3cfc:	00996000 	addseq	r6, r9, r0
    3d00:	00014800 	andeq	r4, r1, r0, lsl #16
    3d04:	001bca00 	andseq	ip, fp, r0, lsl #20
    3d08:	05040200 	streq	r0, [r4, #-512]	; 0xfffffe00
    3d0c:	00746e69 	rsbseq	r6, r4, r9, ror #28
    3d10:	66070403 	strvs	r0, [r7], -r3, lsl #8
    3d14:	03000001 	movweq	r0, #1
    3d18:	01170601 	tsteq	r7, r1, lsl #12
    3d1c:	02030000 	andeq	r0, r3, #0, 0
    3d20:	00004305 	andeq	r4, r0, r5, lsl #6
    3d24:	05040300 	streq	r0, [r4, #-768]	; 0xfffffd00
    3d28:	000000cc 	andeq	r0, r0, ip, asr #1
    3d2c:	c7050803 	strgt	r0, [r5, -r3, lsl #16]
    3d30:	03000000 	movweq	r0, #0
    3d34:	01150801 	tsteq	r5, r1, lsl #16
    3d38:	02030000 	andeq	r0, r3, #0, 0
    3d3c:	00018407 	andeq	r8, r1, r7, lsl #8
    3d40:	07040300 	streq	r0, [r4, -r0, lsl #6]
    3d44:	00000161 	andeq	r0, r0, r1, ror #2
    3d48:	5c070803 	stcpl	8, cr0, [r7], {3}
    3d4c:	03000001 	movweq	r0, #1
    3d50:	011e0801 	tsteq	lr, r1, lsl #16
    3d54:	6b040000 	blvs	103d5c <__bss_end__+0xf87d4>
    3d58:	05000000 	streq	r0, [r0, #-0]
    3d5c:	00000b9e 	muleq	r0, lr, fp
    3d60:	2c110501 	cfldr32cs	mvfx0, [r1], {1}
    3d64:	05000000 	streq	r0, [r0, #-0]
    3d68:	00000b5d 	andeq	r0, r0, sp, asr fp
    3d6c:	2c110601 	ldccs	6, cr0, [r1], {1}
    3d70:	06000000 	streq	r0, [r0], -r0
    3d74:	00000b84 	andeq	r0, r0, r4, lsl #23
    3d78:	25053801 	strcs	r3, [r5, #-2049]	; 0xfffff7ff
    3d7c:	90000000 	andls	r0, r0, r0
    3d80:	1800009a 	stmdane	r0, {r1, r3, r4, r7}
    3d84:	01000000 	mrseq	r0, (UNDEF: 0)
    3d88:	0000d19c 	muleq	r0, ip, r1
    3d8c:	69700700 	ldmdbvs	r0!, {r8, r9, sl}^
    3d90:	3801006e 	stmdacc	r1, {r1, r2, r3, r5, r6}
    3d94:	00002c1b 	andeq	r2, r0, fp, lsl ip
    3d98:	001acc00 	andseq	ip, sl, r0, lsl #24
    3d9c:	001ac800 	andseq	ip, sl, r0, lsl #16
    3da0:	9a9c0800 	bls	fe705da8 <__bss_end__+0xfe6fa820>
    3da4:	03550000 	cmpeq	r5, #0, 0
    3da8:	01090000 	mrseq	r0, (UNDEF: 9)
    3dac:	940c0550 	strls	r0, [ip], #-1360	; 0xfffffab0
    3db0:	00202000 	eoreq	r2, r0, r0
    3db4:	0b500a00 	bleq	14065bc <__bss_end__+0x13fb034>
    3db8:	36010000 	strcc	r0, [r1], -r0
    3dbc:	009a8006 	addseq	r8, sl, r6
    3dc0:	00001000 	andeq	r1, r0, r0
    3dc4:	129c0100 	addsne	r0, ip, #0
    3dc8:	07000001 	streq	r0, [r0, -r1]
    3dcc:	006e6970 	rsbeq	r6, lr, r0, ror r9
    3dd0:	2c1c3601 	ldccs	6, cr3, [ip], {1}
    3dd4:	f1000000 	cps	#0
    3dd8:	ed00001a 	stc	0, cr0, [r0, #-104]	; 0xffffff98
    3ddc:	0800001a 	stmdaeq	r0, {r1, r3, r4}
    3de0:	00009a8c 	andeq	r9, r0, ip, lsl #21
    3de4:	00000194 	muleq	r0, r4, r1
    3de8:	03500109 	cmpeq	r0, #1073741826	; 0x40000002
    3dec:	095001f3 	ldmdbeq	r0, {r0, r1, r4, r5, r6, r7, r8}^
    3df0:	30015101 	andcc	r5, r1, r1, lsl #2
    3df4:	670a0000 	strvs	r0, [sl, -r0]
    3df8:	0100000b 	tsteq	r0, fp
    3dfc:	9a700635 	bls	1c056d8 <__bss_end__+0x1bfa150>
    3e00:	00100000 	andseq	r0, r0, r0
    3e04:	9c010000 	stcls	0, cr0, [r1], {-0}
    3e08:	00000153 	andeq	r0, r0, r3, asr r1
    3e0c:	6e697007 	cdpvs	0, 6, cr7, cr9, cr7, {0}
    3e10:	21350100 	teqcs	r5, r0, lsl #2
    3e14:	0000002c 	andeq	r0, r0, ip, lsr #32
    3e18:	00001b16 	andeq	r1, r0, r6, lsl fp
    3e1c:	00001b12 	andeq	r1, r0, r2, lsl fp
    3e20:	009a7c08 	addseq	r7, sl, r8, lsl #24
    3e24:	00019400 	andeq	r9, r1, r0, lsl #8
    3e28:	50010900 	andpl	r0, r1, r0, lsl #18
    3e2c:	5001f303 	andpl	pc, r1, r3, lsl #6
    3e30:	01510109 	cmpeq	r1, r9, lsl #2
    3e34:	0a000031 	beq	3f00 <__code_start__-0x4100>
    3e38:	000000e2 	andeq	r0, r0, r2, ror #1
    3e3c:	60063401 	andvs	r3, r6, r1, lsl #8
    3e40:	1000009a 	mulne	r0, sl, r0
    3e44:	01000000 	mrseq	r0, (UNDEF: 0)
    3e48:	0001949c 	muleq	r1, ip, r4
    3e4c:	69700700 	ldmdbvs	r0!, {r8, r9, sl}^
    3e50:	3401006e 	strcc	r0, [r1], #-110	; 0xffffff92
    3e54:	00002c1f 	andeq	r2, r0, pc, lsl ip
    3e58:	001b3b00 	andseq	r3, fp, r0, lsl #22
    3e5c:	001b3700 	andseq	r3, fp, r0, lsl #14
    3e60:	9a6c0800 	bls	1b05e68 <__bss_end__+0x1afa8e0>
    3e64:	01940000 	orrseq	r0, r4, r0
    3e68:	01090000 	mrseq	r0, (UNDEF: 9)
    3e6c:	01f30350 	mvnseq	r0, r0, asr r3
    3e70:	51010950 	tstpl	r1, r0, asr r9
    3e74:	00003201 	andeq	r3, r0, r1, lsl #4
    3e78:	000b910a 	andeq	r9, fp, sl, lsl #2
    3e7c:	06110100 	ldreq	r0, [r1], -r0, lsl #2
    3e80:	00009960 	andeq	r9, r0, r0, ror #18
    3e84:	00000100 	andeq	r0, r0, r0, lsl #2
    3e88:	03409c01 	movteq	r9, #3073	; 0xc01
    3e8c:	70070000 	andvc	r0, r7, r0
    3e90:	01006e69 	tsteq	r0, r9, ror #28
    3e94:	002c1c11 	eoreq	r1, ip, r1, lsl ip
    3e98:	1b6c0000 	blne	1b03ea0 <__bss_end__+0x1af8918>
    3e9c:	1b5c0000 	blne	1703ea4 <__bss_end__+0x16f891c>
    3ea0:	70070000 	andvc	r0, r7, r0
    3ea4:	01006475 	tsteq	r0, r5, ror r4
    3ea8:	002c2a11 	eoreq	r2, ip, r1, lsl sl
    3eac:	1be10000 	blne	ff843eb4 <__bss_end__+0xff83892c>
    3eb0:	1bcf0000 	blne	ff3c3eb8 <__bss_end__+0xff3b8930>
    3eb4:	120b0000 	andne	r0, fp, #0, 0
    3eb8:	50000003 	andpl	r0, r0, r3
    3ebc:	05000003 	streq	r0, [r0, #-3]
    3ec0:	00a16403 	adceq	r6, r1, r3, lsl #8
    3ec4:	99940c00 	ldmibls	r4, {sl, fp}
    3ec8:	03610000 	cmneq	r1, #0, 0
    3ecc:	b00d0000 	andlt	r0, sp, r0
    3ed0:	6d000099 	stcvs	0, cr0, [r0, #-612]	; 0xfffffd9c
    3ed4:	22000003 	andcs	r0, r0, #3, 0
    3ed8:	09000002 	stmdbeq	r0, {r1}
    3edc:	03055001 	movweq	r5, #20481	; 0x5001
    3ee0:	0000a0f8 	strdeq	sl, [r0], -r8
    3ee4:	05510109 	ldrbeq	r0, [r1, #-265]	; 0xfffffef7
    3ee8:	00a0ec03 	adceq	lr, r0, r3, lsl #24
    3eec:	52010900 	andpl	r0, r1, #0, 18
    3ef0:	a1640305 	cmnge	r4, r5, lsl #6
    3ef4:	01090000 	mrseq	r0, (UNDEF: 9)
    3ef8:	09420153 	stmdbeq	r2, {r0, r1, r4, r6, r8}^
    3efc:	05007d02 	streq	r7, [r0, #-3330]	; 0xfffff2fe
    3f00:	00a12403 	adceq	r2, r1, r3, lsl #8
    3f04:	b40c0000 	strlt	r0, [ip], #-0
    3f08:	79000099 	stmdbvc	r0, {r0, r3, r4, r7}
    3f0c:	0c000003 	stceq	0, cr0, [r0], {3}
    3f10:	000099b8 			; <UNDEFINED> instruction: 0x000099b8
    3f14:	00000361 	andeq	r0, r0, r1, ror #6
    3f18:	0099d40d 	addseq	sp, r9, sp, lsl #8
    3f1c:	00036d00 	andeq	r6, r3, r0, lsl #26
    3f20:	00026c00 	andeq	r6, r2, r0, lsl #24
    3f24:	50010900 	andpl	r0, r1, r0, lsl #18
    3f28:	a1300305 	teqge	r0, r5, lsl #6
    3f2c:	01090000 	mrseq	r0, (UNDEF: 9)
    3f30:	ec030551 	cfstr32	mvfx0, [r3], {81}	; 0x51
    3f34:	090000a0 	stmdbeq	r0, {r5, r7}
    3f38:	03055201 	movweq	r5, #20993	; 0x5201
    3f3c:	0000a164 	andeq	sl, r0, r4, ror #2
    3f40:	01530109 	cmpeq	r3, r9, lsl #2
    3f44:	7d020943 	vstrvc.16	s0, [r2, #-134]	; 0xffffff7a	; <UNPREDICTABLE>
    3f48:	5c030500 	cfstr32pl	mvfx0, [r3], {-0}
    3f4c:	000000a1 	andeq	r0, r0, r1, lsr #1
    3f50:	0099d80c 	addseq	sp, r9, ip, lsl #16
    3f54:	00037900 	andeq	r7, r3, r0, lsl #18
    3f58:	99dc0c00 	ldmibls	ip, {sl, fp}^
    3f5c:	03850000 	orreq	r0, r5, #0, 0
    3f60:	ec0d0000 	stc	0, cr0, [sp], {-0}
    3f64:	91000099 	swpls	r0, r9, [r0]	; <UNPREDICTABLE>
    3f68:	98000003 	stmdals	r0, {r0, r1}
    3f6c:	09000002 	stmdbeq	r0, {r1}
    3f70:	76025001 	strvc	r5, [r2], -r1
    3f74:	51010900 	tstpl	r1, r0, lsl #18
    3f78:	00007402 	andeq	r7, r0, r2, lsl #8
    3f7c:	0099f40d 	addseq	pc, r9, sp, lsl #8
    3f80:	00039d00 	andeq	r9, r3, r0, lsl #26
    3f84:	0002ac00 	andeq	sl, r2, r0, lsl #24
    3f88:	50010900 	andpl	r0, r1, r0, lsl #18
    3f8c:	00960802 	addseq	r0, r6, r2, lsl #16
    3f90:	009a080d 	addseq	r0, sl, sp, lsl #16
    3f94:	00039100 	andeq	r9, r3, r0, lsl #2
    3f98:	0002c800 	andeq	ip, r2, r0, lsl #16
    3f9c:	50010900 	andpl	r0, r1, r0, lsl #18
    3fa0:	09007402 	stmdbeq	r0, {r1, sl, ip, sp, lr}
    3fa4:	31045101 	tstcc	r4, r1, lsl #2
    3fa8:	00240075 	eoreq	r0, r4, r5, ror r0
    3fac:	009a100d 	addseq	r1, sl, sp
    3fb0:	00039d00 	andeq	r9, r3, r0, lsl #26
    3fb4:	0002dc00 	andeq	sp, r2, r0, lsl #24
    3fb8:	50010900 	andpl	r0, r1, r0, lsl #18
    3fbc:	00960802 	addseq	r0, r6, r2, lsl #16
    3fc0:	009a1c0d 	addseq	r1, sl, sp, lsl #24
    3fc4:	00039100 	andeq	r9, r3, r0, lsl #2
    3fc8:	0002f500 	andeq	pc, r2, r0, lsl #10
    3fcc:	50010900 	andpl	r0, r1, r0, lsl #18
    3fd0:	09007602 	stmdbeq	r0, {r1, r9, sl, ip, sp, lr}
    3fd4:	30015101 	andcc	r5, r1, r1, lsl #2
    3fd8:	9a240d00 	bls	9073e0 <__bss_end__+0x8fbe58>
    3fdc:	039d0000 	orrseq	r0, sp, #0, 0
    3fe0:	03090000 	movweq	r0, #36864	; 0x9000
    3fe4:	01090000 	mrseq	r0, (UNDEF: 9)
    3fe8:	96080250 			; <UNDEFINED> instruction: 0x96080250
    3fec:	9a300d00 	bls	c073f4 <__bss_end__+0xbfbe6c>
    3ff0:	03910000 	orrseq	r0, r1, #0, 0
    3ff4:	03220000 			; <UNDEFINED> instruction: 0x03220000
    3ff8:	01090000 	mrseq	r0, (UNDEF: 9)
    3ffc:	00740250 	rsbseq	r0, r4, r0, asr r2
    4000:	01510109 	cmpeq	r1, r9, lsl #2
    4004:	380d0030 	stmdacc	sp, {r4, r5}
    4008:	9d00009a 	stcls	0, cr0, [r0, #-616]	; 0xfffffd98
    400c:	36000003 	strcc	r0, [r0], -r3
    4010:	09000003 	stmdbeq	r0, {r0, r1}
    4014:	08025001 	stmdaeq	r2, {r0, ip, lr}
    4018:	3c0c0096 	stccc	0, cr0, [ip], {150}	; 0x96
    401c:	8500009a 	strhi	r0, [r0, #-154]	; 0xffffff66
    4020:	00000003 	andeq	r0, r0, r3
    4024:	0000720e 	andeq	r7, r0, lr, lsl #4
    4028:	00035000 	andeq	r5, r3, r0
    402c:	002c0f00 	eoreq	r0, ip, r0, lsl #30
    4030:	000c0000 	andeq	r0, ip, r0
    4034:	00034004 	andeq	r4, r3, r4
    4038:	03b51000 			; <UNDEFINED> instruction: 0x03b51000
    403c:	03b50000 			; <UNDEFINED> instruction: 0x03b50000
    4040:	c2020000 	andgt	r0, r2, #0, 0
    4044:	0ba7100a 	bleq	fe9c8074 <__bss_end__+0xfe9bcaec>
    4048:	0ba70000 	bleq	fe9c4050 <__bss_end__+0xfe9b8ac8>
    404c:	1d020000 	stcne	0, cr0, [r2, #-0]
    4050:	052a1006 	streq	r1, [sl, #-6]!
    4054:	052a0000 	streq	r0, [sl, #-0]!
    4058:	28020000 	stmdacs	r2, {}	; <UNPREDICTABLE>
    405c:	00ff1006 	rscseq	r1, pc, r6
    4060:	00ff0000 	rscseq	r0, pc, r0
    4064:	6e020000 	cdpvs	0, 0, cr0, cr2, cr0, {0}
    4068:	034d1006 	movteq	r1, #53254	; 0xd006
    406c:	034d0000 	movteq	r0, #53248	; 0xd000
    4070:	9c020000 	stcls	0, cr0, [r2], {-0}
    4074:	04141006 	ldreq	r1, [r4], #-6
    4078:	04140000 	ldreq	r0, [r4], #-0
    407c:	ad020000 	stcge	0, cr0, [r2, #-0]
    4080:	031f1006 	tsteq	pc, #6, 0
    4084:	031f0000 	tsteq	pc, #0, 0
    4088:	56020000 	strpl	r0, [r2], -r0
    408c:	01490006 	cmpeq	r9, r6
    4090:	00040000 	andeq	r0, r4, r0
    4094:	000015fd 	strdeq	r1, [r0], -sp
    4098:	01bb0104 			; <UNDEFINED> instruction: 0x01bb0104
    409c:	d40c0000 	strle	r0, [ip], #-0
    40a0:	d700000b 	strle	r0, [r0, -fp]
    40a4:	a8000003 	stmdage	r0, {r0, r1}
    40a8:	3c00009a 	stccc	0, cr0, [r0], {154}	; 0x9a
    40ac:	cc000000 	stcgt	0, cr0, [r0], {-0}
    40b0:	0200001c 	andeq	r0, r0, #28, 0
    40b4:	6e690504 	cdpvs	5, 6, cr0, cr9, cr4, {0}
    40b8:	04030074 	streq	r0, [r3], #-116	; 0xffffff8c
    40bc:	00016607 	andeq	r6, r1, r7, lsl #12
    40c0:	06010300 	streq	r0, [r1], -r0, lsl #6
    40c4:	00000117 	andeq	r0, r0, r7, lsl r1
    40c8:	43050203 	movwmi	r0, #20995	; 0x5203
    40cc:	03000000 	movweq	r0, #0
    40d0:	00cc0504 	sbceq	r0, ip, r4, lsl #10
    40d4:	08030000 	stmdaeq	r3, {}	; <UNPREDICTABLE>
    40d8:	0000c705 	andeq	ip, r0, r5, lsl #14
    40dc:	08010300 	stmdaeq	r1, {r8, r9}
    40e0:	00000115 	andeq	r0, r0, r5, lsl r1
    40e4:	84070203 	strhi	r0, [r7], #-515	; 0xfffffdfd
    40e8:	03000001 	movweq	r0, #1
    40ec:	01610704 	cmneq	r1, r4, lsl #14
    40f0:	08030000 	stmdaeq	r3, {}	; <UNPREDICTABLE>
    40f4:	00015c07 	andeq	r5, r1, r7, lsl #24
    40f8:	00250400 	eoreq	r0, r5, r0, lsl #8
    40fc:	007a0000 	rsbseq	r0, sl, r0
    4100:	25050000 	strcs	r0, [r5, #-0]
    4104:	00000000 	andeq	r0, r0, r0
    4108:	00005e06 	andeq	r5, r0, r6, lsl #28
    410c:	0e1c0200 	cdpeq	2, 1, cr0, cr12, cr0, {0}
    4110:	00000086 	andeq	r0, r0, r6, lsl #1
    4114:	006b0407 	rsbeq	r0, fp, r7, lsl #8
    4118:	25040000 	strcs	r0, [r4, #-0]
    411c:	9b000000 	blls	4124 <__code_start__-0x3edc>
    4120:	05000000 	streq	r0, [r0, #-0]
    4124:	0000009b 	muleq	r0, fp, r0
    4128:	a8040700 	stmdage	r4, {r8, r9, sl}
    412c:	03000000 	movweq	r0, #0
    4130:	011e0801 	tsteq	lr, r1, lsl #16
    4134:	a1080000 	mrsge	r0, (UNDEF: 8)
    4138:	06000000 	streq	r0, [r0], -r0
    413c:	00000568 	andeq	r0, r0, r8, ror #10
    4140:	b90e2102 	stmdblt	lr, {r1, r8, sp}
    4144:	07000000 	streq	r0, [r0, -r0]
    4148:	00008c04 	andeq	r8, r0, r4, lsl #24
    414c:	007a0900 	rsbseq	r0, sl, r0, lsl #18
    4150:	06010000 	streq	r0, [r1], -r0
    4154:	78030507 	stmdavc	r3, {r0, r1, r2, r8, sl}
    4158:	0a0000a1 	beq	43e4 <__code_start__-0x3c1c>
    415c:	00000bc7 	andeq	r0, r0, r7, asr #23
    4160:	d4060b01 	strle	r0, [r6], #-2817	; 0xfffff4ff
    4164:	1000009a 	mulne	r0, sl, r0
    4168:	01000000 	mrseq	r0, (UNDEF: 0)
    416c:	0000f19c 	muleq	r0, ip, r1
    4170:	70660b00 	rsbvc	r0, r6, r0, lsl #22
    4174:	190b0100 	stmdbne	fp, {r8}
    4178:	00000086 	andeq	r0, r0, r6, lsl #1
    417c:	0c005001 	stceq	0, cr5, [r0], {1}
    4180:	00000ba7 	andeq	r0, r0, r7, lsr #23
    4184:	bc060801 	stclt	8, cr0, [r6], {1}
    4188:	1800009a 	stmdane	r0, {r1, r3, r4, r7}
    418c:	01000000 	mrseq	r0, (UNDEF: 0)
    4190:	0bb60d9c 	bleq	fed87808 <__bss_end__+0xfed7c280>
    4194:	03010000 	movweq	r0, #4096	; 0x1000
    4198:	0000250c 	andeq	r2, r0, ip, lsl #10
    419c:	009aa800 	addseq	sl, sl, r0, lsl #16
    41a0:	00001400 	andeq	r1, r0, r0, lsl #8
    41a4:	409c0100 	addsmi	r0, ip, r0, lsl #2
    41a8:	0e000001 	cdpeq	0, 0, cr0, cr0, cr1, {0}
    41ac:	03010063 	movweq	r0, #4195	; 0x1063
    41b0:	00002521 	andeq	r2, r0, r1, lsr #10
    41b4:	001c5900 	andseq	r5, ip, r0, lsl #18
    41b8:	001c5500 	andseq	r5, ip, r0, lsl #10
    41bc:	9ab40f00 	bls	fed07dc4 <__bss_end__+0xfecfc83c>
    41c0:	01400000 	mrseq	r0, (UNDEF: 64)
    41c4:	01100000 	tsteq	r0, r0
    41c8:	00740250 	rsbseq	r0, r4, r0, asr r2
    41cc:	40110000 	andsmi	r0, r1, r0
    41d0:	4000000b 	andmi	r0, r0, fp
    41d4:	0200000b 	andeq	r0, r0, #11, 0
    41d8:	37000642 	strcc	r0, [r0, -r2, asr #12]
    41dc:	04000001 	streq	r0, [r0], #-1
    41e0:	00170c00 	andseq	r0, r7, r0, lsl #24
    41e4:	bb010400 	bllt	451ec <__bss_end__+0x39c64>
    41e8:	0c000001 	stceq	0, cr0, [r0], {1}
    41ec:	00000bea 	andeq	r0, r0, sl, ror #23
    41f0:	000003d7 	ldrdeq	r0, [r0], -r7
    41f4:	00009ae4 	andeq	r9, r0, r4, ror #21
    41f8:	00000034 	andeq	r0, r0, r4, lsr r0
    41fc:	00001d68 	andeq	r1, r0, r8, ror #26
    4200:	69050402 	stmdbvs	r5, {r1, sl}
    4204:	0300746e 	movweq	r7, #1134	; 0x46e
    4208:	01660704 	cmneq	r6, r4, lsl #14
    420c:	01030000 	mrseq	r0, (UNDEF: 3)
    4210:	00011706 	andeq	r1, r1, r6, lsl #14
    4214:	05020300 	streq	r0, [r2, #-768]	; 0xfffffd00
    4218:	00000043 	andeq	r0, r0, r3, asr #32
    421c:	cc050403 	cfstrsgt	mvf0, [r5], {3}
    4220:	03000000 	movweq	r0, #0
    4224:	00c70508 	sbceq	r0, r7, r8, lsl #10
    4228:	01030000 	mrseq	r0, (UNDEF: 3)
    422c:	00011508 	andeq	r1, r1, r8, lsl #10
    4230:	07020300 	streq	r0, [r2, -r0, lsl #6]
    4234:	00000184 	andeq	r0, r0, r4, lsl #3
    4238:	61070403 	tstvs	r7, r3, lsl #8
    423c:	03000001 	movweq	r0, #1
    4240:	015c0708 	cmpeq	ip, r8, lsl #14
    4244:	25040000 	strcs	r0, [r4, #-0]
    4248:	7a000000 	bvc	4250 <__code_start__-0x3db0>
    424c:	05000000 	streq	r0, [r0, #-0]
    4250:	00000025 	andeq	r0, r0, r5, lsr #32
    4254:	005e0600 	subseq	r0, lr, r0, lsl #12
    4258:	1c020000 	stcne	0, cr0, [r2], {-0}
    425c:	0000860e 	andeq	r8, r0, lr, lsl #12
    4260:	6b040700 	blvs	105e68 <__bss_end__+0xfa8e0>
    4264:	04000000 	streq	r0, [r0], #-0
    4268:	00000025 	andeq	r0, r0, r5, lsr #32
    426c:	0000009b 	muleq	r0, fp, r0
    4270:	00009b05 	andeq	r9, r0, r5, lsl #22
    4274:	04070000 	streq	r0, [r7], #-0
    4278:	000000a8 	andeq	r0, r0, r8, lsr #1
    427c:	1e080103 	adfnee	f0, f0, f3
    4280:	08000001 	stmdaeq	r0, {r0}
    4284:	000000a1 	andeq	r0, r0, r1, lsr #1
    4288:	00056806 	andeq	r6, r5, r6, lsl #16
    428c:	0e210200 	cdpeq	2, 2, cr0, cr1, cr0, {0}
    4290:	000000b9 	strheq	r0, [r0], -r9
    4294:	008c0407 	addeq	r0, ip, r7, lsl #8
    4298:	0b090000 	bleq	2442a0 <__bss_end__+0x238d18>
    429c:	01000006 	tsteq	r0, r6
    42a0:	01340704 	teqeq	r4, r4, lsl #14
    42a4:	9ae40000 	bls	ff9042ac <__bss_end__+0xff8f8d24>
    42a8:	00340000 	eorseq	r0, r4, r0
    42ac:	9c010000 	stcls	0, cr0, [r1], {-0}
    42b0:	00000134 	andeq	r0, r0, r4, lsr r1
    42b4:	000be50a 	andeq	lr, fp, sl, lsl #10
    42b8:	15040100 	strne	r0, [r4, #-256]	; 0xffffff00
    42bc:	00000134 	andeq	r0, r0, r4, lsr r1
    42c0:	730b5001 	movwvc	r5, #45057	; 0xb001
    42c4:	01006372 	tsteq	r0, r2, ror r3
    42c8:	009b2704 	addseq	r2, fp, r4, lsl #14
    42cc:	1c7b0000 	ldclne	0, cr0, [fp], #-0
    42d0:	1c770000 	ldclne	0, cr0, [r7], #-0
    42d4:	730c0000 	movwvc	r0, #49152	; 0xc000
    42d8:	05010031 	streq	r0, [r1, #-49]	; 0xffffffcf
    42dc:	0001340b 	andeq	r3, r1, fp, lsl #8
    42e0:	001ca600 	andseq	sl, ip, r0, lsl #12
    42e4:	001c9c00 	andseq	r9, ip, r0, lsl #24
    42e8:	32730c00 	rsbscc	r0, r3, #0, 24
    42ec:	11060100 	mrsne	r0, (UNDEF: 22)
    42f0:	0000009b 	muleq	r0, fp, r0
    42f4:	00001ceb 	andeq	r1, r0, fp, ror #25
    42f8:	00001ce7 	andeq	r1, r0, r7, ror #25
    42fc:	0100630c 	tsteq	r0, ip, lsl #6
    4300:	00a10a07 	adceq	r0, r1, r7, lsl #20
    4304:	1d0f0000 	stcne	0, cr0, [pc, #-0]	; 430c <__code_start__-0x3cf4>
    4308:	1d0b0000 	stcne	0, cr0, [fp, #-0]
    430c:	07000000 	streq	r0, [r0, -r0]
    4310:	0000a104 	andeq	sl, r0, r4, lsl #2
    4314:	00f70000 	rscseq	r0, r7, r0
    4318:	00040000 	andeq	r0, r4, r0
    431c:	000017c2 	andeq	r1, r0, r2, asr #15
    4320:	01bb0104 			; <UNDEFINED> instruction: 0x01bb0104
    4324:	fa0c0000 	blx	30432c <__bss_end__+0x2f8da4>
    4328:	d700000b 	strle	r0, [r0, -fp]
    432c:	18000003 	stmdane	r0, {r0, r1}
    4330:	2c00009b 	stccs	0, cr0, [r0], {155}	; 0x9b
    4334:	50000000 	andpl	r0, r0, r0
    4338:	0200001e 	andeq	r0, r0, #30, 0
    433c:	6e690504 	cdpvs	5, 6, cr0, cr9, cr4, {0}
    4340:	04030074 	streq	r0, [r3], #-116	; 0xffffff8c
    4344:	00016607 	andeq	r6, r1, r7, lsl #12
    4348:	06010300 	streq	r0, [r1], -r0, lsl #6
    434c:	00000117 	andeq	r0, r0, r7, lsl r1
    4350:	43050203 	movwmi	r0, #20995	; 0x5203
    4354:	03000000 	movweq	r0, #0
    4358:	00cc0504 	sbceq	r0, ip, r4, lsl #10
    435c:	08030000 	stmdaeq	r3, {}	; <UNPREDICTABLE>
    4360:	0000c705 	andeq	ip, r0, r5, lsl #14
    4364:	08010300 	stmdaeq	r1, {r8, r9}
    4368:	00000115 	andeq	r0, r0, r5, lsl r1
    436c:	84070203 	strhi	r0, [r7], #-515	; 0xfffffdfd
    4370:	03000001 	movweq	r0, #1
    4374:	01610704 	cmneq	r1, r4, lsl #14
    4378:	08030000 	stmdaeq	r3, {}	; <UNPREDICTABLE>
    437c:	00015c07 	andeq	r5, r1, r7, lsl #24
    4380:	00250400 	eoreq	r0, r5, r0, lsl #8
    4384:	007a0000 	rsbseq	r0, sl, r0
    4388:	25050000 	strcs	r0, [r5, #-0]
    438c:	00000000 	andeq	r0, r0, r0
    4390:	00005e06 	andeq	r5, r0, r6, lsl #28
    4394:	0e1c0200 	cdpeq	2, 1, cr0, cr12, cr0, {0}
    4398:	00000086 	andeq	r0, r0, r6, lsl #1
    439c:	006b0407 	rsbeq	r0, fp, r7, lsl #8
    43a0:	25040000 	strcs	r0, [r4, #-0]
    43a4:	9b000000 	blls	43ac <__code_start__-0x3c54>
    43a8:	05000000 	streq	r0, [r0, #-0]
    43ac:	0000009b 	muleq	r0, fp, r0
    43b0:	a8040700 	stmdage	r4, {r8, r9, sl}
    43b4:	03000000 	movweq	r0, #0
    43b8:	011e0801 	tsteq	lr, r1, lsl #16
    43bc:	a1080000 	mrsge	r0, (UNDEF: 8)
    43c0:	06000000 	streq	r0, [r0], -r0
    43c4:	00000568 	andeq	r0, r0, r8, ror #10
    43c8:	b90e2102 	stmdblt	lr, {r1, r8, sp}
    43cc:	07000000 	streq	r0, [r0, -r0]
    43d0:	00008c04 	andeq	r8, r0, r4, lsl #24
    43d4:	06410900 	strbeq	r0, [r1], -r0, lsl #18
    43d8:	03010000 	movweq	r0, #4096	; 0x1000
    43dc:	00002505 	andeq	r2, r0, r5, lsl #10
    43e0:	009b1800 	addseq	r1, fp, r0, lsl #16
    43e4:	00002c00 	andeq	r2, r0, r0, lsl #24
    43e8:	0a9c0100 	beq	fe7047f0 <__bss_end__+0xfe6f9268>
    43ec:	03010061 	movweq	r0, #4193	; 0x1061
    43f0:	00009b18 	andeq	r9, r0, r8, lsl fp
    43f4:	001d3100 	andseq	r3, sp, r0, lsl #2
    43f8:	001d2d00 	andseq	r2, sp, r0, lsl #26
    43fc:	00620a00 	rsbeq	r0, r2, r0, lsl #20
    4400:	9b270301 	blls	9c500c <__bss_end__+0x9b9a84>
    4404:	53000000 	movwpl	r0, #0
    4408:	4f00001d 	svcmi	0x0000001d
    440c:	0000001d 	andeq	r0, r0, sp, lsl r0
    4410:	00010f00 	andeq	r0, r1, r0, lsl #30
    4414:	51000400 	tstpl	r0, r0, lsl #8
    4418:	04000018 	streq	r0, [r0], #-24	; 0xffffffe8
    441c:	0001bb01 	andeq	fp, r1, r1, lsl #22
    4420:	0c0a0c00 	stceq	12, cr0, [sl], {-0}
    4424:	03d70000 	bicseq	r0, r7, #0, 0
    4428:	9b440000 	blls	1104430 <__bss_end__+0x10f8ea8>
    442c:	00200000 	eoreq	r0, r0, r0
    4430:	1ef10000 	cdpne	0, 15, cr0, cr1, cr0, {0}
    4434:	04020000 	streq	r0, [r2], #-0
    4438:	746e6905 	strbtvc	r6, [lr], #-2309	; 0xfffff6fb
    443c:	07040300 	streq	r0, [r4, -r0, lsl #6]
    4440:	00000166 	andeq	r0, r0, r6, ror #2
    4444:	17060103 	strne	r0, [r6, -r3, lsl #2]
    4448:	03000001 	movweq	r0, #1
    444c:	00430502 	subeq	r0, r3, r2, lsl #10
    4450:	04030000 	streq	r0, [r3], #-0
    4454:	0000cc05 	andeq	ip, r0, r5, lsl #24
    4458:	05080300 	streq	r0, [r8, #-768]	; 0xfffffd00
    445c:	000000c7 	andeq	r0, r0, r7, asr #1
    4460:	15080103 	strne	r0, [r8, #-259]	; 0xfffffefd
    4464:	03000001 	movweq	r0, #1
    4468:	01840702 	orreq	r0, r4, r2, lsl #14
    446c:	04030000 	streq	r0, [r3], #-0
    4470:	00016107 	andeq	r6, r1, r7, lsl #2
    4474:	07080300 	streq	r0, [r8, -r0, lsl #6]
    4478:	0000015c 	andeq	r0, r0, ip, asr r1
    447c:	00002504 	andeq	r2, r0, r4, lsl #10
    4480:	00007a00 	andeq	r7, r0, r0, lsl #20
    4484:	00250500 	eoreq	r0, r5, r0, lsl #10
    4488:	06000000 	streq	r0, [r0], -r0
    448c:	0000005e 	andeq	r0, r0, lr, asr r0
    4490:	860e1c02 	strhi	r1, [lr], -r2, lsl #24
    4494:	07000000 	streq	r0, [r0, -r0]
    4498:	00006b04 	andeq	r6, r0, r4, lsl #22
    449c:	00250400 	eoreq	r0, r5, r0, lsl #8
    44a0:	009b0000 	addseq	r0, fp, r0
    44a4:	9b050000 	blls	1444ac <__bss_end__+0x138f24>
    44a8:	00000000 	andeq	r0, r0, r0
    44ac:	00a80407 	adceq	r0, r8, r7, lsl #8
    44b0:	01030000 	mrseq	r0, (UNDEF: 3)
    44b4:	00011e08 	andeq	r1, r1, r8, lsl #28
    44b8:	00a10800 	adceq	r0, r1, r0, lsl #16
    44bc:	68060000 	stmdavs	r6, {}	; <UNPREDICTABLE>
    44c0:	02000005 	andeq	r0, r0, #5, 0
    44c4:	00b90e21 	adcseq	r0, r9, r1, lsr #28
    44c8:	04070000 	streq	r0, [r7], #-0
    44cc:	0000008c 	andeq	r0, r0, ip, lsl #1
    44d0:	00061209 	andeq	r1, r6, r9, lsl #4
    44d4:	07030100 	streq	r0, [r3, -r0, lsl #2]
    44d8:	0000010c 	andeq	r0, r0, ip, lsl #2
    44dc:	00009b44 	andeq	r9, r0, r4, asr #22
    44e0:	00000020 	andeq	r0, r0, r0, lsr #32
    44e4:	010c9c01 	tsteq	ip, r1, lsl #24
    44e8:	730a0000 	movwvc	r0, #40960	; 0xa000
    44ec:	03010031 	movweq	r0, #4145	; 0x1031
    44f0:	00010c15 	andeq	r0, r1, r5, lsl ip
    44f4:	0b500100 	bleq	14048fc <__bss_end__+0x13f9374>
    44f8:	01003273 	tsteq	r0, r3, ror r2
    44fc:	009b2603 	addseq	r2, fp, r3, lsl #12
    4500:	1d770000 	ldclne	0, cr0, [r7, #-0]
    4504:	1d710000 	ldclne	0, cr0, [r1, #-0]
    4508:	730c0000 	movwvc	r0, #49152	; 0xc000
    450c:	14040100 	strne	r0, [r4], #-256	; 0xffffff00
    4510:	0000010c 	andeq	r0, r0, ip, lsl #2
    4514:	00001da8 	andeq	r1, r0, r8, lsr #27
    4518:	00001da2 	andeq	r1, r0, r2, lsr #27
    451c:	a1040700 	tstge	r4, r0, lsl #14
    4520:	00000000 	andeq	r0, r0, r0
    4524:	0000014e 	andeq	r0, r0, lr, asr #2
    4528:	19070004 	stmdbne	r7, {r2}
    452c:	01040000 	mrseq	r0, (UNDEF: 4)
    4530:	000001bb 			; <UNDEFINED> instruction: 0x000001bb
    4534:	000c210c 	andeq	r2, ip, ip, lsl #2
    4538:	0003d700 	andeq	sp, r3, r0, lsl #14
    453c:	00009000 	andeq	r9, r0, r0
    4540:	00000000 	andeq	r0, r0, r0
    4544:	001f9000 	andseq	r9, pc, r0
    4548:	05040200 	streq	r0, [r4, #-512]	; 0xfffffe00
    454c:	00746e69 	rsbseq	r6, r4, r9, ror #28
    4550:	000c1a03 	andeq	r1, ip, r3, lsl #20
    4554:	17d10300 	ldrbne	r0, [r1, r0, lsl #6]
    4558:	00000038 	andeq	r0, r0, r8, lsr r0
    455c:	66070404 	strvs	r0, [r7], -r4, lsl #8
    4560:	04000001 	streq	r0, [r0], #-1
    4564:	01170601 	tsteq	r7, r1, lsl #12
    4568:	02040000 	andeq	r0, r4, #0, 0
    456c:	00004305 	andeq	r4, r0, r5, lsl #6
    4570:	05040400 	streq	r0, [r4, #-1024]	; 0xfffffc00
    4574:	000000cc 	andeq	r0, r0, ip, asr #1
    4578:	c7050804 	strgt	r0, [r5, -r4, lsl #16]
    457c:	04000000 	streq	r0, [r0], #-0
    4580:	01150801 	tsteq	r5, r1, lsl #16
    4584:	5b050000 	blpl	14458c <__bss_end__+0x139004>
    4588:	04000000 	streq	r0, [r0], #-0
    458c:	01840702 	orreq	r0, r4, r2, lsl #14
    4590:	04040000 	streq	r0, [r4], #-0
    4594:	00016107 	andeq	r6, r1, r7, lsl #2
    4598:	07080400 	streq	r0, [r8, -r0, lsl #8]
    459c:	0000015c 	andeq	r0, r0, ip, asr r1
    45a0:	00002506 	andeq	r2, r0, r6, lsl #10
    45a4:	00008b00 	andeq	r8, r0, r0, lsl #22
    45a8:	00250700 	eoreq	r0, r5, r0, lsl #14
    45ac:	08000000 	stmdaeq	r0, {}	; <UNPREDICTABLE>
    45b0:	0000005e 	andeq	r0, r0, lr, asr r0
    45b4:	970e1c02 	strls	r1, [lr, -r2, lsl #24]
    45b8:	09000000 	stmdbeq	r0, {}	; <UNPREDICTABLE>
    45bc:	00007c04 	andeq	r7, r0, r4, lsl #24
    45c0:	00250600 	eoreq	r0, r5, r0, lsl #12
    45c4:	00ac0000 	adceq	r0, ip, r0
    45c8:	ac070000 	stcge	0, cr0, [r7], {-0}
    45cc:	00000000 	andeq	r0, r0, r0
    45d0:	00b90409 	adcseq	r0, r9, r9, lsl #8
    45d4:	01040000 	mrseq	r0, (UNDEF: 4)
    45d8:	00011e08 	andeq	r1, r1, r8, lsl #28
    45dc:	00b20500 	adcseq	r0, r2, r0, lsl #10
    45e0:	68080000 	stmdavs	r8, {}	; <UNPREDICTABLE>
    45e4:	02000005 	andeq	r0, r0, #5, 0
    45e8:	00ca0e21 	sbceq	r0, sl, r1, lsr #28
    45ec:	04090000 	streq	r0, [r9], #-0
    45f0:	0000009d 	muleq	r0, sp, r0
    45f4:	0006690a 	andeq	r6, r6, sl, lsl #18
    45f8:	05040100 	streq	r0, [r4, #-256]	; 0xffffff00
    45fc:	00000025 	andeq	r0, r0, r5, lsr #32
    4600:	00009b64 	andeq	r9, r0, r4, ror #22
    4604:	0000002c 	andeq	r0, r0, ip, lsr #32
    4608:	014b9c01 	cmpeq	fp, r1, lsl #24
    460c:	5f0b0000 	svcpl	0x000b0000
    4610:	01003173 	tsteq	r0, r3, ror r1
    4614:	00ac1904 	adceq	r1, ip, r4, lsl #18
    4618:	1dd70000 	ldclne	0, cr0, [r7]
    461c:	1dd30000 	ldclne	0, cr0, [r3]
    4620:	5f0b0000 	svcpl	0x000b0000
    4624:	01003273 	tsteq	r0, r3, ror r2
    4628:	00ac2a04 	adceq	r2, ip, r4, lsl #20
    462c:	1dfc0000 	ldclne	0, cr0, [ip]
    4630:	1df80000 	ldclne	0, cr0, [r8]
    4634:	6e0b0000 	cdpvs	0, 0, cr0, cr11, cr0, {0}
    4638:	36040100 	strcc	r0, [r4], -r0, lsl #2
    463c:	0000002c 	andeq	r0, r0, ip, lsr #32
    4640:	00001e23 	andeq	r1, r0, r3, lsr #28
    4644:	00001e1d 	andeq	r1, r0, sp, lsl lr
    4648:	0031730c 	eorseq	r7, r1, ip, lsl #6
    464c:	4b1a0501 	blmi	685a58 <__bss_end__+0x67a4d0>
    4650:	56000001 	strpl	r0, [r0], -r1
    4654:	4e00001e 	mcrmi	0, 0, r0, cr0, cr14, {0}
    4658:	0c00001e 	stceq	0, cr0, [r0], {30}
    465c:	01003273 	tsteq	r0, r3, ror r2
    4660:	014b2c05 	cmpeq	fp, r5, lsl #24
    4664:	1e920000 	cdpne	0, 9, cr0, cr2, cr0, {0}
    4668:	1e8c0000 	cdpne	0, 8, cr0, cr12, cr0, {0}
    466c:	09000000 	stmdbeq	r0, {}	; <UNPREDICTABLE>
    4670:	00006204 	andeq	r6, r0, r4, lsl #4
    4674:	00ce0000 	sbceq	r0, lr, r0
    4678:	00040000 	andeq	r0, r4, r0
    467c:	000019bb 			; <UNDEFINED> instruction: 0x000019bb
    4680:	01bb0104 			; <UNDEFINED> instruction: 0x01bb0104
    4684:	320c0000 	andcc	r0, ip, #0, 0
    4688:	d700000c 	strle	r0, [r0, -ip]
    468c:	90000003 	andls	r0, r0, r3
    4690:	0400009b 	streq	r0, [r0], #-155	; 0xffffff65
    4694:	92000000 	andls	r0, r0, #0, 0
    4698:	02000020 	andeq	r0, r0, #32, 0
    469c:	6e690504 	cdpvs	5, 6, cr0, cr9, cr4, {0}
    46a0:	04030074 	streq	r0, [r3], #-116	; 0xffffff8c
    46a4:	00016607 	andeq	r6, r1, r7, lsl #12
    46a8:	06010300 	streq	r0, [r1], -r0, lsl #6
    46ac:	00000117 	andeq	r0, r0, r7, lsl r1
    46b0:	43050203 	movwmi	r0, #20995	; 0x5203
    46b4:	03000000 	movweq	r0, #0
    46b8:	00cc0504 	sbceq	r0, ip, r4, lsl #10
    46bc:	08030000 	stmdaeq	r3, {}	; <UNPREDICTABLE>
    46c0:	0000c705 	andeq	ip, r0, r5, lsl #14
    46c4:	08010300 	stmdaeq	r1, {r8, r9}
    46c8:	00000115 	andeq	r0, r0, r5, lsl r1
    46cc:	84070203 	strhi	r0, [r7], #-515	; 0xfffffdfd
    46d0:	03000001 	movweq	r0, #1
    46d4:	01610704 	cmneq	r1, r4, lsl #14
    46d8:	08030000 	stmdaeq	r3, {}	; <UNPREDICTABLE>
    46dc:	00015c07 	andeq	r5, r1, r7, lsl #24
    46e0:	00250400 	eoreq	r0, r5, r0, lsl #8
    46e4:	007a0000 	rsbseq	r0, sl, r0
    46e8:	25050000 	strcs	r0, [r5, #-0]
    46ec:	00000000 	andeq	r0, r0, r0
    46f0:	00005e06 	andeq	r5, r0, r6, lsl #28
    46f4:	0e1c0200 	cdpeq	2, 1, cr0, cr12, cr0, {0}
    46f8:	00000086 	andeq	r0, r0, r6, lsl #1
    46fc:	006b0407 	rsbeq	r0, fp, r7, lsl #8
    4700:	25040000 	strcs	r0, [r4, #-0]
    4704:	9b000000 	blls	470c <__code_start__-0x38f4>
    4708:	05000000 	streq	r0, [r0, #-0]
    470c:	0000009b 	muleq	r0, fp, r0
    4710:	a8040700 	stmdage	r4, {r8, r9, sl}
    4714:	03000000 	movweq	r0, #0
    4718:	011e0801 	tsteq	lr, r1, lsl #16
    471c:	a1080000 	mrsge	r0, (UNDEF: 8)
    4720:	06000000 	streq	r0, [r0], -r0
    4724:	00000568 	andeq	r0, r0, r8, ror #10
    4728:	b90e2102 	stmdblt	lr, {r1, r8, sp}
    472c:	07000000 	streq	r0, [r0, -r0]
    4730:	00008c04 	andeq	r8, r0, r4, lsl #24
    4734:	091b0900 	ldmdbeq	fp, {r8, fp}
    4738:	03010000 	movweq	r0, #4096	; 0x1000
    473c:	009b9006 	addseq	r9, fp, r6
    4740:	00000400 	andeq	r0, r0, r0, lsl #8
    4744:	009c0100 	addseq	r0, ip, r0, lsl #2

Disassembly of section .debug_abbrev:

00000000 <.debug_abbrev>:
       0:	25011101 	strcs	r1, [r1, #-257]	; 0xfffffeff
       4:	030b130e 	movweq	r1, #45838	; 0xb30e
       8:	110e1b0e 	tstne	lr, lr, lsl #22
       c:	10061201 	andne	r1, r6, r1, lsl #4
      10:	02000017 	andeq	r0, r0, #23, 0
      14:	0b0b0024 	bleq	2c00ac <__bss_end__+0x2b4b24>
      18:	08030b3e 	stmdaeq	r3, {r1, r2, r3, r4, r5, r8, r9, fp}
      1c:	24030000 	strcs	r0, [r3], #-0
      20:	3e0b0b00 	vmlacc.f64	d0, d11, d0
      24:	000e030b 	andeq	r0, lr, fp, lsl #6
      28:	00160400 	andseq	r0, r6, r0, lsl #8
      2c:	0b3a0e03 	bleq	e83840 <__bss_end__+0xe782b8>
      30:	0b390b3b 	bleq	e42d24 <__bss_end__+0xe3779c>
      34:	00001349 	andeq	r1, r0, r9, asr #6
      38:	27011505 	strcs	r1, [r1, -r5, lsl #10]
      3c:	01134919 	tsteq	r3, r9, lsl r9
      40:	06000013 			; <UNDEFINED> instruction: 0x06000013
      44:	13490005 	movtne	r0, #36869	; 0x9005
      48:	34070000 	strcc	r0, [r7], #-0
      4c:	3a0e0300 	bcc	380c54 <__bss_end__+0x3756cc>
      50:	390b3b0b 	stmdbcc	fp, {r0, r1, r3, r8, r9, fp, ip, sp}
      54:	3f13490b 	svccc	0x0013490b
      58:	00193c19 	andseq	r3, r9, r9, lsl ip
      5c:	000f0800 	andeq	r0, pc, r0, lsl #16
      60:	13490b0b 	movtne	r0, #39691	; 0x9b0b
      64:	26090000 	strcs	r0, [r9], -r0
      68:	00134900 	andseq	r4, r3, r0, lsl #18
      6c:	01130a00 	tsteq	r3, r0, lsl #20
      70:	0b0b0e03 	bleq	2c3884 <__bss_end__+0x2b82fc>
      74:	0b3b0b3a 	bleq	ec2d64 <__bss_end__+0xeb77dc>
      78:	13010b39 	movwne	r0, #6969	; 0x1b39
      7c:	0d0b0000 	stceq	0, cr0, [fp, #-0]
      80:	3a0e0300 	bcc	380c88 <__bss_end__+0x375700>
      84:	390b3b0b 	stmdbcc	fp, {r0, r1, r3, r8, r9, fp, ip, sp}
      88:	3813490b 	ldmdacc	r3, {r0, r1, r3, r8, fp, lr}
      8c:	0c00000b 	stceq	0, cr0, [r0], {11}
      90:	0803000d 	stmdaeq	r3, {r0, r2, r3}
      94:	0b3b0b3a 	bleq	ec2d84 <__bss_end__+0xeb77fc>
      98:	13490b39 	movtne	r0, #39737	; 0x9b39
      9c:	00000b38 	andeq	r0, r0, r8, lsr fp
      a0:	0300340d 	movweq	r3, #1037	; 0x40d
      a4:	3b0b3a0e 	blcc	2ce8e4 <__bss_end__+0x2c335c>
      a8:	490b390b 	stmdbmi	fp, {r0, r1, r3, r8, fp, ip, sp}
      ac:	00180213 	andseq	r0, r8, r3, lsl r2
      b0:	01010e00 	tsteq	r1, r0, lsl #28
      b4:	13011349 	movwne	r1, #4937	; 0x1349
      b8:	210f0000 	mrscs	r0, CPSR
      bc:	2f134900 	svccs	0x00134900
      c0:	1000000b 	andne	r0, r0, fp
      c4:	193f012e 	ldmdbne	pc!, {r1, r2, r3, r5, r8}	; <UNPREDICTABLE>
      c8:	0b3a0e03 	bleq	e838dc <__bss_end__+0xe78354>
      cc:	0b39053b 	bleq	e415c0 <__bss_end__+0xe36038>
      d0:	01111927 	tsteq	r1, r7, lsr #18
      d4:	18400612 	stmdane	r0, {r1, r4, r9, sl}^
      d8:	01194297 			; <UNDEFINED> instruction: 0x01194297
      dc:	11000013 	tstne	r0, r3, lsl r0
      e0:	00018289 	andeq	r8, r1, r9, lsl #5
      e4:	13310111 	teqne	r1, #1073741828	; 0x40000004
      e8:	2e120000 	cdpcs	0, 1, cr0, cr2, cr0, {0}
      ec:	03193f01 	tsteq	r9, #1, 30
      f0:	3b0b3a0e 	blcc	2ce930 <__bss_end__+0x2c33a8>
      f4:	110b3905 	tstne	fp, r5, lsl #18
      f8:	40061201 	andmi	r1, r6, r1, lsl #4
      fc:	19429718 	stmdbne	r2, {r3, r4, r8, r9, sl, ip, pc}^
     100:	00001301 	andeq	r1, r0, r1, lsl #6
     104:	11010b13 	tstne	r1, r3, lsl fp
     108:	01061201 	tsteq	r6, r1, lsl #4
     10c:	14000013 	strne	r0, [r0], #-19	; 0xffffffed
     110:	08030034 	stmdaeq	r3, {r2, r4, r5}
     114:	053b0b3a 	ldreq	r0, [fp, #-2874]!	; 0xfffff4c6
     118:	13490b39 	movtne	r0, #39737	; 0x9b39
     11c:	42b71702 	adcsmi	r1, r7, #524288	; 0x80000
     120:	15000017 	strne	r0, [r0, #-23]	; 0xffffffe9
     124:	0111010b 	tsteq	r1, fp, lsl #2
     128:	00000612 	andeq	r0, r0, r2, lsl r6
     12c:	03003416 	movweq	r3, #1046	; 0x416
     130:	3b0b3a0e 	blcc	2ce970 <__bss_end__+0x2c33e8>
     134:	490b3905 	stmdbmi	fp, {r0, r2, r8, fp, ip, sp}
     138:	b7170213 			; <UNDEFINED> instruction: 0xb7170213
     13c:	00001742 	andeq	r1, r0, r2, asr #14
     140:	01828917 	orreq	r8, r2, r7, lsl r9
     144:	31011101 	tstcc	r1, r1, lsl #2
     148:	00130113 	andseq	r0, r3, r3, lsl r1
     14c:	828a1800 	addhi	r1, sl, #0, 16
     150:	18020001 	stmdane	r2, {r0}
     154:	00184291 	mulseq	r8, r1, r2
     158:	82891900 	addhi	r1, r9, #0, 18
     15c:	01110101 	tsteq	r1, r1, lsl #2
     160:	00001331 	andeq	r1, r0, r1, lsr r3
     164:	3f012e1a 	svccc	0x00012e1a
     168:	3a0e0319 	bcc	380dd4 <__bss_end__+0x37584c>
     16c:	390b3b0b 	stmdbcc	fp, {r0, r1, r3, r8, r9, fp, ip, sp}
     170:	1201110b 	andne	r1, r1, #-1073741822	; 0xc0000002
     174:	97184006 	ldrls	r4, [r8, -r6]
     178:	13011942 	movwne	r1, #6466	; 0x1942
     17c:	341b0000 	ldrcc	r0, [fp], #-0
     180:	3a080300 	bcc	200d88 <__bss_end__+0x1f5800>
     184:	390b3b0b 	stmdbcc	fp, {r0, r1, r3, r8, r9, fp, ip, sp}
     188:	1c13490b 			; <UNDEFINED> instruction: 0x1c13490b
     18c:	1c00000b 	stcne	0, cr0, [r0], {11}
     190:	1755010b 	ldrbne	r0, [r5, -fp, lsl #2]
     194:	00001301 	andeq	r1, r0, r1, lsl #6
     198:	3f012e1d 	svccc	0x00012e1d
     19c:	3a0e0319 	bcc	380e08 <__bss_end__+0x375880>
     1a0:	390b3b0b 	stmdbcc	fp, {r0, r1, r3, r8, r9, fp, ip, sp}
     1a4:	1119270b 	tstne	r9, fp, lsl #14
     1a8:	40061201 	andmi	r1, r6, r1, lsl #4
     1ac:	19429718 	stmdbne	r2, {r3, r4, r8, r9, sl, ip, pc}^
     1b0:	00001301 	andeq	r1, r0, r1, lsl #6
     1b4:	0300341e 	movweq	r3, #1054	; 0x41e
     1b8:	3b0b3a08 	blcc	2ce9e0 <__bss_end__+0x2c3458>
     1bc:	490b390b 	stmdbmi	fp, {r0, r1, r3, r8, fp, ip, sp}
     1c0:	00180213 	andseq	r0, r8, r3, lsl r2
     1c4:	00341f00 	eorseq	r1, r4, r0, lsl #30
     1c8:	0b3a0803 	bleq	e821dc <__bss_end__+0xe76c54>
     1cc:	0b390b3b 	bleq	e42ec0 <__bss_end__+0xe37938>
     1d0:	17021349 	strne	r1, [r2, -r9, asr #6]
     1d4:	001742b7 			; <UNDEFINED> instruction: 0x001742b7
     1d8:	00052000 	andeq	r2, r5, r0
     1dc:	0b3a0803 	bleq	e821f0 <__bss_end__+0xe76c68>
     1e0:	0b390b3b 	bleq	e42ed4 <__bss_end__+0xe3794c>
     1e4:	17021349 	strne	r1, [r2, -r9, asr #6]
     1e8:	001742b7 			; <UNDEFINED> instruction: 0x001742b7
     1ec:	00342100 	eorseq	r2, r4, r0, lsl #2
     1f0:	0b3a0e03 	bleq	e83a04 <__bss_end__+0xe7847c>
     1f4:	0b390b3b 	bleq	e42ee8 <__bss_end__+0xe37960>
     1f8:	17021349 	strne	r1, [r2, -r9, asr #6]
     1fc:	001742b7 			; <UNDEFINED> instruction: 0x001742b7
     200:	012e2200 			; <UNDEFINED> instruction: 0x012e2200
     204:	0e03193f 			; <UNDEFINED> instruction: 0x0e03193f
     208:	0b3b0b3a 	bleq	ec2ef8 <__bss_end__+0xeb7970>
     20c:	19270b39 	stmdbne	r7!, {r0, r3, r4, r5, r8, r9, fp}
     210:	01111349 	tsteq	r1, r9, asr #6
     214:	18400612 	stmdane	r0, {r1, r4, r9, sl}^
     218:	01194297 			; <UNDEFINED> instruction: 0x01194297
     21c:	23000013 	movwcs	r0, #19
     220:	0e030005 	cdpeq	0, 0, cr0, cr3, cr5, {0}
     224:	0b3b0b3a 	bleq	ec2f14 <__bss_end__+0xeb798c>
     228:	13490b39 	movtne	r0, #39737	; 0x9b39
     22c:	42b71702 	adcsmi	r1, r7, #524288	; 0x80000
     230:	24000017 	strcs	r0, [r0], #-23	; 0xffffffe9
     234:	0e03012e 	adfeqsp	f0, f3, #0.5
     238:	0b3b0b3a 	bleq	ec2f28 <__bss_end__+0xeb79a0>
     23c:	19270b39 	stmdbne	r7!, {r0, r3, r4, r5, r8, r9, fp}
     240:	01111349 	tsteq	r1, r9, asr #6
     244:	18400612 	stmdane	r0, {r1, r4, r9, sl}^
     248:	01194297 			; <UNDEFINED> instruction: 0x01194297
     24c:	25000013 	strcs	r0, [r0, #-19]	; 0xffffffed
     250:	0e030034 	mcreq	0, 0, r0, cr3, cr4, {1}
     254:	19341349 	ldmdbne	r4!, {r0, r3, r6, r8, r9, ip}
     258:	00001802 	andeq	r1, r0, r2, lsl #16
     25c:	03012e26 	movweq	r2, #7718	; 0x1e26
     260:	3b0b3a0e 	blcc	2ceaa0 <__bss_end__+0x2c3518>
     264:	270b390b 	strcs	r3, [fp, -fp, lsl #18]
     268:	12011119 	andne	r1, r1, #1073741830	; 0x40000006
     26c:	97184006 	ldrls	r4, [r8, -r6]
     270:	13011942 	movwne	r1, #6466	; 0x1942
     274:	0b270000 	bleq	9c027c <__bss_end__+0x9b4cf4>
     278:	00175501 	andseq	r5, r7, r1, lsl #10
     27c:	012e2800 			; <UNDEFINED> instruction: 0x012e2800
     280:	0b3a0803 	bleq	e82294 <__bss_end__+0xe76d0c>
     284:	0b390b3b 	bleq	e42f78 <__bss_end__+0xe379f0>
     288:	13491927 	movtne	r1, #39207	; 0x9927
     28c:	06120111 			; <UNDEFINED> instruction: 0x06120111
     290:	42971840 	addsmi	r1, r7, #64, 16	; 0x400000
     294:	00130119 	andseq	r0, r3, r9, lsl r1
     298:	002e2900 	eoreq	r2, lr, r0, lsl #18
     29c:	193c193f 	ldmdbne	ip!, {r0, r1, r2, r3, r4, r5, r8, fp, ip}
     2a0:	0e030e6e 	cdpeq	14, 0, cr0, cr3, cr14, {3}
     2a4:	0b3b0b3a 	bleq	ec2f94 <__bss_end__+0xeb7a0c>
     2a8:	00000b39 	andeq	r0, r0, r9, lsr fp
     2ac:	01110100 	tsteq	r1, r0, lsl #2
     2b0:	0b130e25 	bleq	4c3b4c <__bss_end__+0x4b85c4>
     2b4:	0e1b0e03 	cdpeq	14, 1, cr0, cr11, cr3, {0}
     2b8:	06120111 			; <UNDEFINED> instruction: 0x06120111
     2bc:	00001710 	andeq	r1, r0, r0, lsl r7
     2c0:	0b002402 	bleq	92d0 <va_printk+0x334>
     2c4:	030b3e0b 	movweq	r3, #48651	; 0xbe0b
     2c8:	03000008 	movweq	r0, #8
     2cc:	0b0b0024 	bleq	2c0364 <__bss_end__+0x2b4ddc>
     2d0:	0e030b3e 	vmoveq.16	d3[0], r0
     2d4:	15040000 	strne	r0, [r4, #-0]
     2d8:	49192701 	ldmdbmi	r9, {r0, r8, r9, sl, sp}
     2dc:	00130113 	andseq	r0, r3, r3, lsl r1
     2e0:	00050500 	andeq	r0, r5, r0, lsl #10
     2e4:	00001349 	andeq	r1, r0, r9, asr #6
     2e8:	03003406 	movweq	r3, #1030	; 0x406
     2ec:	3b0b3a0e 	blcc	2ceb2c <__bss_end__+0x2c35a4>
     2f0:	490b390b 	stmdbmi	fp, {r0, r1, r3, r8, fp, ip, sp}
     2f4:	3c193f13 	ldccc	15, cr3, [r9], {19}
     2f8:	07000019 	smladeq	r0, r9, r0, r0
     2fc:	0b0b000f 	bleq	2c0340 <__bss_end__+0x2b4db8>
     300:	00001349 	andeq	r1, r0, r9, asr #6
     304:	49002608 	stmdbmi	r0, {r3, r9, sl, sp}
     308:	09000013 	stmdbeq	r0, {r0, r1, r4}
     30c:	0b3e0104 	bleq	f80724 <__bss_end__+0xf7519c>
     310:	13490b0b 	movtne	r0, #39691	; 0x9b0b
     314:	0b3b0b3a 	bleq	ec3004 <__bss_end__+0xeb7a7c>
     318:	13010b39 	movwne	r0, #6969	; 0x1b39
     31c:	280a0000 	stmdacs	sl, {}	; <UNPREDICTABLE>
     320:	1c0e0300 	stcne	3, cr0, [lr], {-0}
     324:	0b00000b 	bleq	358 <__code_start__-0x7ca8>
     328:	0e030028 	cdpeq	0, 0, cr0, cr3, cr8, {1}
     32c:	0000061c 	andeq	r0, r0, ip, lsl r6
     330:	3f012e0c 	svccc	0x00012e0c
     334:	3a0e0319 	bcc	380fa0 <__bss_end__+0x375a18>
     338:	390b3b0b 	stmdbcc	fp, {r0, r1, r3, r8, r9, fp, ip, sp}
     33c:	1119270b 	tstne	r9, fp, lsl #14
     340:	40061201 	andmi	r1, r6, r1, lsl #4
     344:	19429718 	stmdbne	r2, {r3, r4, r8, r9, sl, ip, pc}^
     348:	00001301 	andeq	r1, r0, r1, lsl #6
     34c:	0300050d 	movweq	r0, #1293	; 0x50d
     350:	3b0b3a08 	blcc	2ceb78 <__bss_end__+0x2c35f0>
     354:	490b390b 	stmdbmi	fp, {r0, r1, r3, r8, fp, ip, sp}
     358:	b7170213 			; <UNDEFINED> instruction: 0xb7170213
     35c:	00001742 	andeq	r1, r0, r2, asr #14
     360:	0300340e 	movweq	r3, #1038	; 0x40e
     364:	3b0b3a08 	blcc	2ceb8c <__bss_end__+0x2c3604>
     368:	490b390b 	stmdbmi	fp, {r0, r1, r3, r8, fp, ip, sp}
     36c:	b7170213 			; <UNDEFINED> instruction: 0xb7170213
     370:	00001742 	andeq	r1, r0, r2, asr #14
     374:	0182890f 	orreq	r8, r2, pc, lsl #18
     378:	31011100 	mrscc	r1, (UNDEF: 17)
     37c:	10000013 	andne	r0, r0, r3, lsl r0
     380:	01018289 	smlabbeq	r1, r9, r2, r8
     384:	13310111 	teqne	r1, #1073741828	; 0x40000004
     388:	00001301 	andeq	r1, r0, r1, lsl #6
     38c:	01828a11 	orreq	r8, r2, r1, lsl sl
     390:	91180200 	tstls	r8, r0, lsl #4
     394:	00001842 	andeq	r1, r0, r2, asr #16
     398:	3f012e12 	svccc	0x00012e12
     39c:	3a0e0319 	bcc	381008 <__bss_end__+0x375a80>
     3a0:	390b3b0b 	stmdbcc	fp, {r0, r1, r3, r8, r9, fp, ip, sp}
     3a4:	4919270b 	ldmdbmi	r9, {r0, r1, r3, r8, r9, sl, sp}
     3a8:	12011113 	andne	r1, r1, #-1073741820	; 0xc0000004
     3ac:	97184006 	ldrls	r4, [r8, -r6]
     3b0:	13011942 	movwne	r1, #6466	; 0x1942
     3b4:	05130000 	ldreq	r0, [r3, #-0]
     3b8:	3a0e0300 	bcc	380fc0 <__bss_end__+0x375a38>
     3bc:	390b3b0b 	stmdbcc	fp, {r0, r1, r3, r8, r9, fp, ip, sp}
     3c0:	0213490b 	andseq	r4, r3, #180224	; 0x2c000
     3c4:	1742b717 	smlaldne	fp, r2, r7, r7
     3c8:	34140000 	ldrcc	r0, [r4], #-0
     3cc:	490e0300 	stmdbmi	lr, {r8, r9}
     3d0:	02193413 	andseq	r3, r9, #318767104	; 0x13000000
     3d4:	15000018 	strne	r0, [r0, #-24]	; 0xffffffe8
     3d8:	13490101 	movtne	r0, #37121	; 0x9101
     3dc:	00001301 	andeq	r1, r0, r1, lsl #6
     3e0:	49002116 	stmdbmi	r0, {r1, r2, r4, r8, sp}
     3e4:	000b2f13 	andeq	r2, fp, r3, lsl pc
     3e8:	012e1700 			; <UNDEFINED> instruction: 0x012e1700
     3ec:	0b3a0e03 	bleq	e83c00 <__bss_end__+0xe78678>
     3f0:	0b390b3b 	bleq	e430e4 <__bss_end__+0xe37b5c>
     3f4:	06120111 			; <UNDEFINED> instruction: 0x06120111
     3f8:	42971840 	addsmi	r1, r7, #64, 16	; 0x400000
     3fc:	00130119 	andseq	r0, r3, r9, lsl r1
     400:	82891800 	addhi	r1, r9, #0, 16
     404:	01110101 	tsteq	r1, r1, lsl #2
     408:	00001331 	andeq	r1, r0, r1, lsr r3
     40c:	3f002e19 	svccc	0x00002e19
     410:	6e193c19 	mrcvs	12, 0, r3, cr9, cr9, {0}
     414:	3a0e030e 	bcc	381054 <__bss_end__+0x375acc>
     418:	390b3b0b 	stmdbcc	fp, {r0, r1, r3, r8, r9, fp, ip, sp}
     41c:	0000000b 	andeq	r0, r0, fp
     420:	25011101 	strcs	r1, [r1, #-257]	; 0xfffffeff
     424:	030b130e 	movweq	r1, #45838	; 0xb30e
     428:	110e1b0e 	tstne	lr, lr, lsl #22
     42c:	10061201 	andne	r1, r6, r1, lsl #4
     430:	02000017 	andeq	r0, r0, #23, 0
     434:	0b0b0024 	bleq	2c04cc <__bss_end__+0x2b4f44>
     438:	08030b3e 	stmdaeq	r3, {r1, r2, r3, r4, r5, r8, r9, fp}
     43c:	24030000 	strcs	r0, [r3], #-0
     440:	3e0b0b00 	vmlacc.f64	d0, d11, d0
     444:	000e030b 	andeq	r0, lr, fp, lsl #6
     448:	00260400 	eoreq	r0, r6, r0, lsl #8
     44c:	00001349 	andeq	r1, r0, r9, asr #6
     450:	03001605 	movweq	r1, #1541	; 0x605
     454:	3b0b3a0e 	blcc	2cec94 <__bss_end__+0x2c370c>
     458:	490b390b 	stmdbmi	fp, {r0, r1, r3, r8, fp, ip, sp}
     45c:	06000013 			; <UNDEFINED> instruction: 0x06000013
     460:	19270115 	stmdbne	r7!, {r0, r2, r4, r8}
     464:	13011349 	movwne	r1, #4937	; 0x1349
     468:	05070000 	streq	r0, [r7, #-0]
     46c:	00134900 	andseq	r4, r3, r0, lsl #18
     470:	00340800 	eorseq	r0, r4, r0, lsl #16
     474:	0b3a0e03 	bleq	e83c88 <__bss_end__+0xe78700>
     478:	0b390b3b 	bleq	e4316c <__bss_end__+0xe37be4>
     47c:	193f1349 	ldmdbne	pc!, {r0, r3, r6, r8, r9, ip}	; <UNPREDICTABLE>
     480:	0000193c 	andeq	r1, r0, ip, lsr r9
     484:	0b000f09 	bleq	40b0 <__code_start__-0x3f50>
     488:	0013490b 	andseq	r4, r3, fp, lsl #18
     48c:	01040a00 	tsteq	r4, r0, lsl #20
     490:	0b0b0b3e 	bleq	2c3190 <__bss_end__+0x2b7c08>
     494:	0b3a1349 	bleq	e851c0 <__bss_end__+0xe79c38>
     498:	0b390b3b 	bleq	e4318c <__bss_end__+0xe37c04>
     49c:	00001301 	andeq	r1, r0, r1, lsl #6
     4a0:	0300280b 	movweq	r2, #2059	; 0x80b
     4a4:	000b1c0e 	andeq	r1, fp, lr, lsl #24
     4a8:	00340c00 	eorseq	r0, r4, r0, lsl #24
     4ac:	0b3a0e03 	bleq	e83cc0 <__bss_end__+0xe78738>
     4b0:	0b390b3b 	bleq	e431a4 <__bss_end__+0xe37c1c>
     4b4:	061c1349 	ldreq	r1, [ip], -r9, asr #6
     4b8:	2e0d0000 	cdpcs	0, 0, cr0, cr13, cr0, {0}
     4bc:	03193f01 	tsteq	r9, #1, 30
     4c0:	3b0b3a0e 	blcc	2ced00 <__bss_end__+0x2c3778>
     4c4:	270b390b 	strcs	r3, [fp, -fp, lsl #18]
     4c8:	11134919 	tstne	r3, r9, lsl r9
     4cc:	40061201 	andmi	r1, r6, r1, lsl #4
     4d0:	19429718 	stmdbne	r2, {r3, r4, r8, r9, sl, ip, pc}^
     4d4:	00001301 	andeq	r1, r0, r1, lsl #6
     4d8:	0300050e 	movweq	r0, #1294	; 0x50e
     4dc:	3b0b3a08 	blcc	2ced04 <__bss_end__+0x2c377c>
     4e0:	490b390b 	stmdbmi	fp, {r0, r1, r3, r8, fp, ip, sp}
     4e4:	b7170213 			; <UNDEFINED> instruction: 0xb7170213
     4e8:	00001742 	andeq	r1, r0, r2, asr #14
     4ec:	0300340f 	movweq	r3, #1039	; 0x40f
     4f0:	3b0b3a0e 	blcc	2ced30 <__bss_end__+0x2c37a8>
     4f4:	490b390b 	stmdbmi	fp, {r0, r1, r3, r8, fp, ip, sp}
     4f8:	b7170213 			; <UNDEFINED> instruction: 0xb7170213
     4fc:	00001742 	andeq	r1, r0, r2, asr #14
     500:	03003410 	movweq	r3, #1040	; 0x410
     504:	3b0b3a08 	blcc	2ced2c <__bss_end__+0x2c37a4>
     508:	490b390b 	stmdbmi	fp, {r0, r1, r3, r8, fp, ip, sp}
     50c:	b7170213 			; <UNDEFINED> instruction: 0xb7170213
     510:	00001742 	andeq	r1, r0, r2, asr #14
     514:	01828911 	orreq	r8, r2, r1, lsl r9
     518:	31011101 	tstcc	r1, r1, lsl #2
     51c:	12000013 	andne	r0, r0, #19, 0
     520:	0001828a 	andeq	r8, r1, sl, lsl #5
     524:	42911802 	addsmi	r1, r1, #131072	; 0x20000
     528:	13000018 	movwne	r0, #24
     52c:	193f012e 	ldmdbne	pc!, {r1, r2, r3, r5, r8}	; <UNPREDICTABLE>
     530:	0b3a0e03 	bleq	e83d44 <__bss_end__+0xe787bc>
     534:	0b390b3b 	bleq	e43228 <__bss_end__+0xe37ca0>
     538:	01111927 	tsteq	r1, r7, lsr #18
     53c:	18400612 	stmdane	r0, {r1, r4, r9, sl}^
     540:	01194297 			; <UNDEFINED> instruction: 0x01194297
     544:	14000013 	strne	r0, [r0], #-19	; 0xffffffed
     548:	01018289 	smlabbeq	r1, r9, r2, r8
     54c:	13310111 	teqne	r1, #1073741828	; 0x40000004
     550:	00001301 	andeq	r1, r0, r1, lsl #6
     554:	01828915 	orreq	r8, r2, r5, lsl r9
     558:	31011100 	mrscc	r1, (UNDEF: 17)
     55c:	16000013 			; <UNDEFINED> instruction: 0x16000013
     560:	0e030005 	cdpeq	0, 0, cr0, cr3, cr5, {0}
     564:	0b3b0b3a 	bleq	ec3254 <__bss_end__+0xeb7ccc>
     568:	13490b39 	movtne	r0, #39737	; 0x9b39
     56c:	42b71702 	adcsmi	r1, r7, #524288	; 0x80000
     570:	17000017 	smladne	r0, r7, r0, r0
     574:	0e03012e 	adfeqsp	f0, f3, #0.5
     578:	0b3b0b3a 	bleq	ec3268 <__bss_end__+0xeb7ce0>
     57c:	19270b39 	stmdbne	r7!, {r0, r3, r4, r5, r8, r9, fp}
     580:	0b201349 	bleq	8052ac <__bss_end__+0x7f9d24>
     584:	00001301 	andeq	r1, r0, r1, lsl #6
     588:	03000518 	movweq	r0, #1304	; 0x518
     58c:	3b0b3a08 	blcc	2cedb4 <__bss_end__+0x2c382c>
     590:	490b390b 	stmdbmi	fp, {r0, r1, r3, r8, fp, ip, sp}
     594:	19000013 	stmdbne	r0, {r0, r1, r4}
     598:	193f002e 	ldmdbne	pc!, {r1, r2, r3, r5}	; <UNPREDICTABLE>
     59c:	0e6e193c 			; <UNDEFINED> instruction: 0x0e6e193c
     5a0:	0b3a0e03 	bleq	e83db4 <__bss_end__+0xe7882c>
     5a4:	0b390b3b 	bleq	e43298 <__bss_end__+0xe37d10>
     5a8:	01000000 	mrseq	r0, (UNDEF: 0)
     5ac:	0e250111 	mcreq	1, 1, r0, cr5, cr1, {0}
     5b0:	0e030b13 	vmoveq.32	d3[0], r0
     5b4:	01110e1b 	tsteq	r1, fp, lsl lr
     5b8:	17100612 			; <UNDEFINED> instruction: 0x17100612
     5bc:	16020000 	strne	r0, [r2], -r0
     5c0:	3a0e0300 	bcc	3811c8 <__bss_end__+0x375c40>
     5c4:	390b3b0b 	stmdbcc	fp, {r0, r1, r3, r8, r9, fp, ip, sp}
     5c8:	0013490b 	andseq	r4, r3, fp, lsl #18
     5cc:	01130300 	tsteq	r3, r0, lsl #6
     5d0:	0b0b0e03 	bleq	2c3de4 <__bss_end__+0x2b885c>
     5d4:	0b3b0b3a 	bleq	ec32c4 <__bss_end__+0xeb7d3c>
     5d8:	00001301 	andeq	r1, r0, r1, lsl #6
     5dc:	03000d04 	movweq	r0, #3332	; 0xd04
     5e0:	3813490e 	ldmdacc	r3, {r1, r2, r3, r8, fp, lr}
     5e4:	0019340b 	andseq	r3, r9, fp, lsl #8
     5e8:	000f0500 	andeq	r0, pc, r0, lsl #10
     5ec:	00000b0b 	andeq	r0, r0, fp, lsl #22
     5f0:	0b002406 	bleq	9610 <int_init+0x24>
     5f4:	030b3e0b 	movweq	r3, #48651	; 0xbe0b
     5f8:	07000008 	streq	r0, [r0, -r8]
     5fc:	0b0b0024 	bleq	2c0694 <__bss_end__+0x2b510c>
     600:	0e030b3e 	vmoveq.16	d3[0], r0
     604:	15080000 	strne	r0, [r8, #-0]
     608:	49192701 	ldmdbmi	r9, {r0, r8, r9, sl, sp}
     60c:	00130113 	andseq	r0, r3, r3, lsl r1
     610:	00050900 	andeq	r0, r5, r0, lsl #18
     614:	00001349 	andeq	r1, r0, r9, asr #6
     618:	0300340a 	movweq	r3, #1034	; 0x40a
     61c:	3b0b3a0e 	blcc	2cee5c <__bss_end__+0x2c38d4>
     620:	490b390b 	stmdbmi	fp, {r0, r1, r3, r8, fp, ip, sp}
     624:	3c193f13 	ldccc	15, cr3, [r9], {19}
     628:	0b000019 	bleq	694 <__code_start__-0x796c>
     62c:	0b0b000f 	bleq	2c0670 <__bss_end__+0x2b50e8>
     630:	00001349 	andeq	r1, r0, r9, asr #6
     634:	4900260c 	stmdbmi	r0, {r2, r3, r9, sl, sp}
     638:	0d000013 	stceq	0, cr0, [r0, #-76]	; 0xffffffb4
     63c:	193f012e 	ldmdbne	pc!, {r1, r2, r3, r5, r8}	; <UNPREDICTABLE>
     640:	0b3a0e03 	bleq	e83e54 <__bss_end__+0xe788cc>
     644:	0b390b3b 	bleq	e43338 <__bss_end__+0xe37db0>
     648:	13491927 	movtne	r1, #39207	; 0x9927
     64c:	06120111 			; <UNDEFINED> instruction: 0x06120111
     650:	42971840 	addsmi	r1, r7, #64, 16	; 0x400000
     654:	00130119 	andseq	r0, r3, r9, lsl r1
     658:	00050e00 	andeq	r0, r5, r0, lsl #28
     65c:	0b3a0803 	bleq	e82670 <__bss_end__+0xe770e8>
     660:	0b390b3b 	bleq	e43354 <__bss_end__+0xe37dcc>
     664:	18021349 	stmdane	r2, {r0, r3, r6, r8, r9, ip}
     668:	180f0000 	stmdane	pc, {}	; <UNPREDICTABLE>
     66c:	10000000 	andne	r0, r0, r0
     670:	08030034 	stmdaeq	r3, {r2, r4, r5}
     674:	0b3b0b3a 	bleq	ec3364 <__bss_end__+0xeb7ddc>
     678:	13490b39 	movtne	r0, #39737	; 0x9b39
     67c:	00001802 	andeq	r1, r0, r2, lsl #16
     680:	03003411 	movweq	r3, #1041	; 0x411
     684:	3b0b3a0e 	blcc	2ceec4 <__bss_end__+0x2c393c>
     688:	490b390b 	stmdbmi	fp, {r0, r1, r3, r8, fp, ip, sp}
     68c:	00180213 	andseq	r0, r8, r3, lsl r2
     690:	00341200 	eorseq	r1, r4, r0, lsl #4
     694:	0b3a0803 	bleq	e826a8 <__bss_end__+0xe77120>
     698:	0b390b3b 	bleq	e4338c <__bss_end__+0xe37e04>
     69c:	17021349 	strne	r1, [r2, -r9, asr #6]
     6a0:	001742b7 			; <UNDEFINED> instruction: 0x001742b7
     6a4:	82891300 	addhi	r1, r9, #0, 6
     6a8:	01110101 	tsteq	r1, r1, lsl #2
     6ac:	13011331 	movwne	r1, #4913	; 0x1331
     6b0:	8a140000 	bhi	5006b8 <__bss_end__+0x4f5130>
     6b4:	02000182 	andeq	r0, r0, #-2147483616	; 0x80000020
     6b8:	18429118 	stmdane	r2, {r3, r4, r8, ip, pc}^
     6bc:	89150000 	ldmdbhi	r5, {}	; <UNPREDICTABLE>
     6c0:	11010182 	smlabbne	r1, r2, r1, r0
     6c4:	16000001 	strne	r0, [r0], -r1
     6c8:	13490101 	movtne	r0, #37121	; 0x9101
     6cc:	00001301 	andeq	r1, r0, r1, lsl #6
     6d0:	49002117 	stmdbmi	r0, {r0, r1, r2, r4, r8, sp}
     6d4:	00052f13 	andeq	r2, r5, r3, lsl pc
     6d8:	002e1800 	eoreq	r1, lr, r0, lsl #16
     6dc:	193c193f 	ldmdbne	ip!, {r0, r1, r2, r3, r4, r5, r8, fp, ip}
     6e0:	0e030e6e 	cdpeq	14, 0, cr0, cr3, cr14, {3}
     6e4:	0b3b0b3a 	bleq	ec33d4 <__bss_end__+0xeb7e4c>
     6e8:	00000b39 	andeq	r0, r0, r9, lsr fp
     6ec:	01110100 	tsteq	r1, r0, lsl #2
     6f0:	0b130e25 	bleq	4c3f8c <__bss_end__+0x4b8a04>
     6f4:	0e1b0e03 	cdpeq	14, 1, cr0, cr11, cr3, {0}
     6f8:	06120111 			; <UNDEFINED> instruction: 0x06120111
     6fc:	00001710 	andeq	r1, r0, r0, lsl r7
     700:	0b002402 	bleq	9710 <timer_get_usec+0x10>
     704:	030b3e0b 	movweq	r3, #48651	; 0xbe0b
     708:	03000008 	movweq	r0, #8
     70c:	0b0b0024 	bleq	2c07a4 <__bss_end__+0x2b521c>
     710:	0e030b3e 	vmoveq.16	d3[0], r0
     714:	15040000 	strne	r0, [r4, #-0]
     718:	49192701 	ldmdbmi	r9, {r0, r8, r9, sl, sp}
     71c:	00130113 	andseq	r0, r3, r3, lsl r1
     720:	00050500 	andeq	r0, r5, r0, lsl #10
     724:	00001349 	andeq	r1, r0, r9, asr #6
     728:	03003406 	movweq	r3, #1030	; 0x406
     72c:	3b0b3a0e 	blcc	2cef6c <__bss_end__+0x2c39e4>
     730:	490b390b 	stmdbmi	fp, {r0, r1, r3, r8, fp, ip, sp}
     734:	3c193f13 	ldccc	15, cr3, [r9], {19}
     738:	07000019 	smladeq	r0, r9, r0, r0
     73c:	0b0b000f 	bleq	2c0780 <__bss_end__+0x2b51f8>
     740:	00001349 	andeq	r1, r0, r9, asr #6
     744:	49002608 	stmdbmi	r0, {r3, r9, sl, sp}
     748:	09000013 	stmdbeq	r0, {r0, r1, r4}
     74c:	13470034 	movtne	r0, #28724	; 0x7034
     750:	0b3b0b3a 	bleq	ec3440 <__bss_end__+0xeb7eb8>
     754:	18020b39 	stmdane	r2, {r0, r3, r4, r5, r8, r9, fp}
     758:	2e0a0000 	cdpcs	0, 0, cr0, cr10, cr0, {0}
     75c:	03193f01 	tsteq	r9, #1, 30
     760:	3b0b3a0e 	blcc	2cefa0 <__bss_end__+0x2c3a18>
     764:	270b390b 	strcs	r3, [fp, -fp, lsl #18]
     768:	11134919 	tstne	r3, r9, lsl r9
     76c:	40061201 	andmi	r1, r6, r1, lsl #4
     770:	19429618 	stmdbne	r2, {r3, r4, r9, sl, ip, pc}^
     774:	050b0000 	streq	r0, [fp, #-0]
     778:	3a080300 	bcc	201380 <__bss_end__+0x1f5df8>
     77c:	390b3b0b 	stmdbcc	fp, {r0, r1, r3, r8, r9, fp, ip, sp}
     780:	0213490b 	andseq	r4, r3, #180224	; 0x2c000
     784:	1742b717 	smlaldne	fp, r2, r7, r7
     788:	01000000 	mrseq	r0, (UNDEF: 0)
     78c:	0e250111 	mcreq	1, 1, r0, cr5, cr1, {0}
     790:	0e030b13 	vmoveq.32	d3[0], r0
     794:	01110e1b 	tsteq	r1, fp, lsl lr
     798:	17100612 			; <UNDEFINED> instruction: 0x17100612
     79c:	24020000 	strcs	r0, [r2], #-0
     7a0:	3e0b0b00 	vmlacc.f64	d0, d11, d0
     7a4:	0008030b 	andeq	r0, r8, fp, lsl #6
     7a8:	00240300 	eoreq	r0, r4, r0, lsl #6
     7ac:	0b3e0b0b 	bleq	f833e0 <__bss_end__+0xf77e58>
     7b0:	00000e03 	andeq	r0, r0, r3, lsl #28
     7b4:	03001604 	movweq	r1, #1540	; 0x604
     7b8:	3b0b3a0e 	blcc	2ceff8 <__bss_end__+0x2c3a70>
     7bc:	490b390b 	stmdbmi	fp, {r0, r1, r3, r8, fp, ip, sp}
     7c0:	05000013 	streq	r0, [r0, #-19]	; 0xffffffed
     7c4:	19270115 	stmdbne	r7!, {r0, r2, r4, r8}
     7c8:	13011349 	movwne	r1, #4937	; 0x1349
     7cc:	05060000 	streq	r0, [r6, #-0]
     7d0:	00134900 	andseq	r4, r3, r0, lsl #18
     7d4:	00340700 	eorseq	r0, r4, r0, lsl #14
     7d8:	0b3a0e03 	bleq	e83fec <__bss_end__+0xe78a64>
     7dc:	0b390b3b 	bleq	e434d0 <__bss_end__+0xe37f48>
     7e0:	193f1349 	ldmdbne	pc!, {r0, r3, r6, r8, r9, ip}	; <UNPREDICTABLE>
     7e4:	0000193c 	andeq	r1, r0, ip, lsr r9
     7e8:	0b000f08 	bleq	4410 <__code_start__-0x3bf0>
     7ec:	0013490b 	andseq	r4, r3, fp, lsl #18
     7f0:	00260900 	eoreq	r0, r6, r0, lsl #18
     7f4:	00001349 	andeq	r1, r0, r9, asr #6
     7f8:	0301130a 	movweq	r1, #4874	; 0x130a
     7fc:	3a0b0b0e 	bcc	2c343c <__bss_end__+0x2b7eb4>
     800:	010b3b0b 	tsteq	fp, fp, lsl #22
     804:	0b000013 	bleq	858 <__code_start__-0x77a8>
     808:	0e03000d 	cdpeq	0, 0, cr0, cr3, cr13, {0}
     80c:	0b381349 	bleq	e05538 <__bss_end__+0xdf9fb0>
     810:	00001934 	andeq	r1, r0, r4, lsr r9
     814:	0b000f0c 	bleq	444c <__code_start__-0x3bb4>
     818:	0d00000b 	stceq	0, cr0, [r0, #-44]	; 0xffffffd4
     81c:	193f012e 	ldmdbne	pc!, {r1, r2, r3, r5, r8}	; <UNPREDICTABLE>
     820:	0b3a0e03 	bleq	e84034 <__bss_end__+0xe78aac>
     824:	0b390b3b 	bleq	e43518 <__bss_end__+0xe37f90>
     828:	13491927 	movtne	r1, #39207	; 0x9927
     82c:	06120111 			; <UNDEFINED> instruction: 0x06120111
     830:	42971840 	addsmi	r1, r7, #64, 16	; 0x400000
     834:	00130119 	andseq	r0, r3, r9, lsl r1
     838:	00050e00 	andeq	r0, r5, r0, lsl #28
     83c:	0b3a0803 	bleq	e82850 <__bss_end__+0xe772c8>
     840:	0b390b3b 	bleq	e43534 <__bss_end__+0xe37fac>
     844:	17021349 	strne	r1, [r2, -r9, asr #6]
     848:	001742b7 			; <UNDEFINED> instruction: 0x001742b7
     84c:	00050f00 	andeq	r0, r5, r0, lsl #30
     850:	0b3a0e03 	bleq	e84064 <__bss_end__+0xe78adc>
     854:	0b390b3b 	bleq	e43548 <__bss_end__+0xe37fc0>
     858:	18021349 	stmdane	r2, {r0, r3, r6, r8, r9, ip}
     85c:	34100000 	ldrcc	r0, [r0], #-0
     860:	3a080300 	bcc	201468 <__bss_end__+0x1f5ee0>
     864:	390b3b0b 	stmdbcc	fp, {r0, r1, r3, r8, r9, fp, ip, sp}
     868:	0213490b 	andseq	r4, r3, #180224	; 0x2c000
     86c:	1742b717 	smlaldne	fp, r2, r7, r7
     870:	34110000 	ldrcc	r0, [r1], #-0
     874:	3a0e0300 	bcc	38147c <__bss_end__+0x375ef4>
     878:	390b3b0b 	stmdbcc	fp, {r0, r1, r3, r8, r9, fp, ip, sp}
     87c:	0213490b 	andseq	r4, r3, #180224	; 0x2c000
     880:	1742b717 	smlaldne	fp, r2, r7, r7
     884:	34120000 	ldrcc	r0, [r2], #-0
     888:	490e0300 	stmdbmi	lr, {r8, r9}
     88c:	02193413 	andseq	r3, r9, #318767104	; 0x13000000
     890:	13000018 	movwne	r0, #24
     894:	0111010b 	tsteq	r1, fp, lsl #2
     898:	00000612 	andeq	r0, r0, r2, lsl r6
     89c:	03003414 	movweq	r3, #1044	; 0x414
     8a0:	3b0b3a08 	blcc	2cf0c8 <__bss_end__+0x2c3b40>
     8a4:	490b390b 	stmdbmi	fp, {r0, r1, r3, r8, fp, ip, sp}
     8a8:	00180213 	andseq	r0, r8, r3, lsl r2
     8ac:	00341500 	eorseq	r1, r4, r0, lsl #10
     8b0:	0b3a0e03 	bleq	e840c4 <__bss_end__+0xe78b3c>
     8b4:	0b390b3b 	bleq	e435a8 <__bss_end__+0xe38020>
     8b8:	18021349 	stmdane	r2, {r0, r3, r6, r8, r9, ip}
     8bc:	0b160000 	bleq	5808c4 <__bss_end__+0x57533c>
     8c0:	12011101 	andne	r1, r1, #1073741824	; 0x40000000
     8c4:	00130106 	andseq	r0, r3, r6, lsl #2
     8c8:	00341700 	eorseq	r1, r4, r0, lsl #14
     8cc:	0b3a0803 	bleq	e828e0 <__bss_end__+0xe77358>
     8d0:	0b390b3b 	bleq	e435c4 <__bss_end__+0xe3803c>
     8d4:	00001349 	andeq	r1, r0, r9, asr #6
     8d8:	01828918 	orreq	r8, r2, r8, lsl r9
     8dc:	31011101 	tstcc	r1, r1, lsl #2
     8e0:	00130113 	andseq	r0, r3, r3, lsl r1
     8e4:	828a1900 	addhi	r1, sl, #0, 18
     8e8:	18020001 	stmdane	r2, {r0}
     8ec:	00184291 	mulseq	r8, r1, r2
     8f0:	82891a00 	addhi	r1, r9, #0, 20
     8f4:	01110001 	tsteq	r1, r1
     8f8:	00001331 	andeq	r1, r0, r1, lsr r3
     8fc:	0182891b 	orreq	r8, r2, fp, lsl r9
     900:	01011101 	tsteq	r1, r1, lsl #2
     904:	1c000013 	stcne	0, cr0, [r0], {19}
     908:	13490101 	movtne	r0, #37121	; 0x9101
     90c:	00001301 	andeq	r1, r0, r1, lsl #6
     910:	4900211d 	stmdbmi	r0, {r0, r2, r3, r4, r8, sp}
     914:	000b2f13 	andeq	r2, fp, r3, lsl pc
     918:	012e1e00 			; <UNDEFINED> instruction: 0x012e1e00
     91c:	0b3a0e03 	bleq	e84130 <__bss_end__+0xe78ba8>
     920:	0b390b3b 	bleq	e43614 <__bss_end__+0xe3808c>
     924:	13491927 	movtne	r1, #39207	; 0x9927
     928:	06120111 			; <UNDEFINED> instruction: 0x06120111
     92c:	42971840 	addsmi	r1, r7, #64, 16	; 0x400000
     930:	00130119 	andseq	r0, r3, r9, lsl r1
     934:	00051f00 	andeq	r1, r5, r0, lsl #30
     938:	0b3a0e03 	bleq	e8414c <__bss_end__+0xe78bc4>
     93c:	0b390b3b 	bleq	e43630 <__bss_end__+0xe380a8>
     940:	17021349 	strne	r1, [r2, -r9, asr #6]
     944:	001742b7 			; <UNDEFINED> instruction: 0x001742b7
     948:	012e2000 			; <UNDEFINED> instruction: 0x012e2000
     94c:	0b3a0803 	bleq	e82960 <__bss_end__+0xe773d8>
     950:	0b390b3b 	bleq	e43644 <__bss_end__+0xe380bc>
     954:	13491927 	movtne	r1, #39207	; 0x9927
     958:	06120111 			; <UNDEFINED> instruction: 0x06120111
     95c:	42971840 	addsmi	r1, r7, #64, 16	; 0x400000
     960:	00130119 	andseq	r0, r3, r9, lsl r1
     964:	012e2100 			; <UNDEFINED> instruction: 0x012e2100
     968:	0e03193f 			; <UNDEFINED> instruction: 0x0e03193f
     96c:	0b3b0b3a 	bleq	ec365c <__bss_end__+0xeb80d4>
     970:	19270b39 	stmdbne	r7!, {r0, r3, r4, r5, r8, r9, fp}
     974:	06120111 			; <UNDEFINED> instruction: 0x06120111
     978:	42971840 	addsmi	r1, r7, #64, 16	; 0x400000
     97c:	00130119 	andseq	r0, r3, r9, lsl r1
     980:	002e2200 	eoreq	r2, lr, r0, lsl #4
     984:	193c193f 	ldmdbne	ip!, {r0, r1, r2, r3, r4, r5, r8, fp, ip}
     988:	0e030e6e 	cdpeq	14, 0, cr0, cr3, cr14, {3}
     98c:	0b3b0b3a 	bleq	ec367c <__bss_end__+0xeb80f4>
     990:	00000b39 	andeq	r0, r0, r9, lsr fp
     994:	01110100 	tsteq	r1, r0, lsl #2
     998:	0b130e25 	bleq	4c4234 <__bss_end__+0x4b8cac>
     99c:	0e1b0e03 	cdpeq	14, 1, cr0, cr11, cr3, {0}
     9a0:	06120111 			; <UNDEFINED> instruction: 0x06120111
     9a4:	00001710 	andeq	r1, r0, r0, lsl r7
     9a8:	0b002402 	bleq	99b8 <gpio_set_pud+0x58>
     9ac:	030b3e0b 	movweq	r3, #48651	; 0xbe0b
     9b0:	03000008 	movweq	r0, #8
     9b4:	0b0b0024 	bleq	2c0a4c <__bss_end__+0x2b54c4>
     9b8:	0e030b3e 	vmoveq.16	d3[0], r0
     9bc:	15040000 	strne	r0, [r4, #-0]
     9c0:	49192701 	ldmdbmi	r9, {r0, r8, r9, sl, sp}
     9c4:	00130113 	andseq	r0, r3, r3, lsl r1
     9c8:	00050500 	andeq	r0, r5, r0, lsl #10
     9cc:	00001349 	andeq	r1, r0, r9, asr #6
     9d0:	03003406 	movweq	r3, #1030	; 0x406
     9d4:	3b0b3a0e 	blcc	2cf214 <__bss_end__+0x2c3c8c>
     9d8:	490b390b 	stmdbmi	fp, {r0, r1, r3, r8, fp, ip, sp}
     9dc:	3c193f13 	ldccc	15, cr3, [r9], {19}
     9e0:	07000019 	smladeq	r0, r9, r0, r0
     9e4:	0b0b000f 	bleq	2c0a28 <__bss_end__+0x2b54a0>
     9e8:	00001349 	andeq	r1, r0, r9, asr #6
     9ec:	49002608 	stmdbmi	r0, {r3, r9, sl, sp}
     9f0:	09000013 	stmdbeq	r0, {r0, r1, r4}
     9f4:	193f012e 	ldmdbne	pc!, {r1, r2, r3, r5, r8}	; <UNPREDICTABLE>
     9f8:	0b3a0e03 	bleq	e8420c <__bss_end__+0xe78c84>
     9fc:	0b390b3b 	bleq	e436f0 <__bss_end__+0xe38168>
     a00:	01871927 	orreq	r1, r7, r7, lsr #18
     a04:	12011119 	andne	r1, r1, #1073741830	; 0x40000006
     a08:	97184006 	ldrls	r4, [r8, -r6]
     a0c:	13011942 	movwne	r1, #6466	; 0x1942
     a10:	890a0000 	stmdbhi	sl, {}	; <UNPREDICTABLE>
     a14:	11010182 	smlabbne	r1, r2, r1, r0
     a18:	00130101 	andseq	r0, r3, r1, lsl #2
     a1c:	828a0b00 	addhi	r0, sl, #0, 22
     a20:	18020001 	stmdane	r2, {r0}
     a24:	00184291 	mulseq	r8, r1, r2
     a28:	82890c00 	addhi	r0, r9, #0, 24
     a2c:	01110001 	tsteq	r1, r1
     a30:	00001331 	andeq	r1, r0, r1, lsr r3
     a34:	0182890d 	orreq	r8, r2, sp, lsl #18
     a38:	31011101 	tstcc	r1, r1, lsl #2
     a3c:	00130113 	andseq	r0, r3, r3, lsl r1
     a40:	002e0e00 	eoreq	r0, lr, r0, lsl #28
     a44:	193c193f 	ldmdbne	ip!, {r0, r1, r2, r3, r4, r5, r8, fp, ip}
     a48:	0e030e6e 	cdpeq	14, 0, cr0, cr3, cr14, {3}
     a4c:	0b3b0b3a 	bleq	ec373c <__bss_end__+0xeb81b4>
     a50:	00000b39 	andeq	r0, r0, r9, lsr fp
     a54:	01110100 	tsteq	r1, r0, lsl #2
     a58:	0b130e25 	bleq	4c42f4 <__bss_end__+0x4b8d6c>
     a5c:	0e1b0e03 	cdpeq	14, 1, cr0, cr11, cr3, {0}
     a60:	06120111 			; <UNDEFINED> instruction: 0x06120111
     a64:	00001710 	andeq	r1, r0, r0, lsl r7
     a68:	0b002402 	bleq	9a78 <gpio_set_pulldown+0x8>
     a6c:	030b3e0b 	movweq	r3, #48651	; 0xbe0b
     a70:	03000008 	movweq	r0, #8
     a74:	0b0b0024 	bleq	2c0b0c <__bss_end__+0x2b5584>
     a78:	0e030b3e 	vmoveq.16	d3[0], r0
     a7c:	15040000 	strne	r0, [r4, #-0]
     a80:	49192701 	ldmdbmi	r9, {r0, r8, r9, sl, sp}
     a84:	00130113 	andseq	r0, r3, r3, lsl r1
     a88:	00050500 	andeq	r0, r5, r0, lsl #10
     a8c:	00001349 	andeq	r1, r0, r9, asr #6
     a90:	03003406 	movweq	r3, #1030	; 0x406
     a94:	3b0b3a0e 	blcc	2cf2d4 <__bss_end__+0x2c3d4c>
     a98:	490b390b 	stmdbmi	fp, {r0, r1, r3, r8, fp, ip, sp}
     a9c:	3c193f13 	ldccc	15, cr3, [r9], {19}
     aa0:	07000019 	smladeq	r0, r9, r0, r0
     aa4:	0b0b000f 	bleq	2c0ae8 <__bss_end__+0x2b5560>
     aa8:	00001349 	andeq	r1, r0, r9, asr #6
     aac:	49002608 	stmdbmi	r0, {r3, r9, sl, sp}
     ab0:	09000013 	stmdbeq	r0, {r0, r1, r4}
     ab4:	193f012e 	ldmdbne	pc!, {r1, r2, r3, r5, r8}	; <UNPREDICTABLE>
     ab8:	0b3a0e03 	bleq	e842cc <__bss_end__+0xe78d44>
     abc:	0b390b3b 	bleq	e437b0 <__bss_end__+0xe38228>
     ac0:	06120111 			; <UNDEFINED> instruction: 0x06120111
     ac4:	42971840 	addsmi	r1, r7, #64, 16	; 0x400000
     ac8:	00130119 	andseq	r0, r3, r9, lsl r1
     acc:	002e0a00 	eoreq	r0, lr, r0, lsl #20
     ad0:	0e03193f 			; <UNDEFINED> instruction: 0x0e03193f
     ad4:	0b3b0b3a 	bleq	ec37c4 <__bss_end__+0xeb823c>
     ad8:	19270b39 	stmdbne	r7!, {r0, r3, r4, r5, r8, r9, fp}
     adc:	0000193c 	andeq	r1, r0, ip, lsr r9
     ae0:	0300340b 	movweq	r3, #1035	; 0x40b
     ae4:	3b0b3a08 	blcc	2cf30c <__bss_end__+0x2c3d84>
     ae8:	490b390b 	stmdbmi	fp, {r0, r1, r3, r8, fp, ip, sp}
     aec:	b7170213 			; <UNDEFINED> instruction: 0xb7170213
     af0:	00001742 	andeq	r1, r0, r2, asr #14
     af4:	0300340c 	movweq	r3, #1036	; 0x40c
     af8:	3b0b3a0e 	blcc	2cf338 <__bss_end__+0x2c3db0>
     afc:	490b390b 	stmdbmi	fp, {r0, r1, r3, r8, fp, ip, sp}
     b00:	0d000013 	stceq	0, cr0, [r0, #-76]	; 0xffffffb4
     b04:	0111010b 	tsteq	r1, fp, lsl #2
     b08:	13010612 	movwne	r0, #5650	; 0x1612
     b0c:	340e0000 	strcc	r0, [lr], #-0
     b10:	3a080300 	bcc	201718 <__bss_end__+0x1f6190>
     b14:	390b3b0b 	stmdbcc	fp, {r0, r1, r3, r8, r9, fp, ip, sp}
     b18:	1c13490b 			; <UNDEFINED> instruction: 0x1c13490b
     b1c:	0f00000b 	svceq	0x0000000b
     b20:	00018289 	andeq	r8, r1, r9, lsl #5
     b24:	13310111 	teqne	r1, #1073741828	; 0x40000004
     b28:	2e100000 	cdpcs	0, 1, cr0, cr0, cr0, {0}
     b2c:	3c193f00 	ldccc	15, cr3, [r9], {-0}
     b30:	030e6e19 	movweq	r6, #60953	; 0xee19
     b34:	3b0b3a0e 	blcc	2cf374 <__bss_end__+0x2c3dec>
     b38:	000b3905 	andeq	r3, fp, r5, lsl #18
     b3c:	002e1100 	eoreq	r1, lr, r0, lsl #2
     b40:	193c193f 	ldmdbne	ip!, {r0, r1, r2, r3, r4, r5, r8, fp, ip}
     b44:	0e030e6e 	cdpeq	14, 0, cr0, cr3, cr14, {3}
     b48:	0b3b0b3a 	bleq	ec3838 <__bss_end__+0xeb82b0>
     b4c:	00000b39 	andeq	r0, r0, r9, lsr fp
     b50:	01110100 	tsteq	r1, r0, lsl #2
     b54:	0b130e25 	bleq	4c43f0 <__bss_end__+0x4b8e68>
     b58:	0e1b0e03 	cdpeq	14, 1, cr0, cr11, cr3, {0}
     b5c:	06120111 			; <UNDEFINED> instruction: 0x06120111
     b60:	00001710 	andeq	r1, r0, r0, lsl r7
     b64:	0b002402 	bleq	9b74 <strncmp+0x10>
     b68:	030b3e0b 	movweq	r3, #48651	; 0xbe0b
     b6c:	03000008 	movweq	r0, #8
     b70:	0b0b0024 	bleq	2c0c08 <__bss_end__+0x2b5680>
     b74:	0e030b3e 	vmoveq.16	d3[0], r0
     b78:	15040000 	strne	r0, [r4, #-0]
     b7c:	49192701 	ldmdbmi	r9, {r0, r8, r9, sl, sp}
     b80:	00130113 	andseq	r0, r3, r3, lsl r1
     b84:	00050500 	andeq	r0, r5, r0, lsl #10
     b88:	00001349 	andeq	r1, r0, r9, asr #6
     b8c:	03003406 	movweq	r3, #1030	; 0x406
     b90:	3b0b3a0e 	blcc	2cf3d0 <__bss_end__+0x2c3e48>
     b94:	490b390b 	stmdbmi	fp, {r0, r1, r3, r8, fp, ip, sp}
     b98:	3c193f13 	ldccc	15, cr3, [r9], {19}
     b9c:	07000019 	smladeq	r0, r9, r0, r0
     ba0:	0b0b000f 	bleq	2c0be4 <__bss_end__+0x2b565c>
     ba4:	00001349 	andeq	r1, r0, r9, asr #6
     ba8:	49002608 	stmdbmi	r0, {r3, r9, sl, sp}
     bac:	09000013 	stmdbeq	r0, {r0, r1, r4}
     bb0:	193f002e 	ldmdbne	pc!, {r1, r2, r3, r5}	; <UNPREDICTABLE>
     bb4:	0b3a0e03 	bleq	e843c8 <__bss_end__+0xe78e40>
     bb8:	0b390b3b 	bleq	e438ac <__bss_end__+0xe38324>
     bbc:	01111927 	tsteq	r1, r7, lsr #18
     bc0:	18400612 	stmdane	r0, {r1, r4, r9, sl}^
     bc4:	00194297 	mulseq	r9, r7, r2
     bc8:	11010000 	mrsne	r0, (UNDEF: 1)
     bcc:	130e2501 	movwne	r2, #58625	; 0xe501
     bd0:	1b0e030b 	blne	381804 <__bss_end__+0x37627c>
     bd4:	1201110e 	andne	r1, r1, #-2147483645	; 0x80000003
     bd8:	00171006 	andseq	r1, r7, r6
     bdc:	00240200 	eoreq	r0, r4, r0, lsl #4
     be0:	0b3e0b0b 	bleq	f83814 <__bss_end__+0xf7828c>
     be4:	00000803 	andeq	r0, r0, r3, lsl #16
     be8:	0b002403 	bleq	9bfc <__code_end__+0x68>
     bec:	030b3e0b 	movweq	r3, #48651	; 0xbe0b
     bf0:	0400000e 	streq	r0, [r0], #-14
     bf4:	19270115 	stmdbne	r7!, {r0, r2, r4, r8}
     bf8:	13011349 	movwne	r1, #4937	; 0x1349
     bfc:	05050000 	streq	r0, [r5, #-0]
     c00:	00134900 	andseq	r4, r3, r0, lsl #18
     c04:	00340600 	eorseq	r0, r4, r0, lsl #12
     c08:	0b3a0e03 	bleq	e8441c <__bss_end__+0xe78e94>
     c0c:	0b390b3b 	bleq	e43900 <__bss_end__+0xe38378>
     c10:	193f1349 	ldmdbne	pc!, {r0, r3, r6, r8, r9, ip}	; <UNPREDICTABLE>
     c14:	0000193c 	andeq	r1, r0, ip, lsr r9
     c18:	0b000f07 	bleq	483c <__code_start__-0x37c4>
     c1c:	0013490b 	andseq	r4, r3, fp, lsl #18
     c20:	00260800 	eoreq	r0, r6, r0, lsl #16
     c24:	00001349 	andeq	r1, r0, r9, asr #6
     c28:	3f012e09 	svccc	0x00012e09
     c2c:	3a0e0319 	bcc	381898 <__bss_end__+0x376310>
     c30:	390b3b0b 	stmdbcc	fp, {r0, r1, r3, r8, r9, fp, ip, sp}
     c34:	1119270b 	tstne	r9, fp, lsl #14
     c38:	40061201 	andmi	r1, r6, r1, lsl #4
     c3c:	19429718 	stmdbne	r2, {r3, r4, r8, r9, sl, ip, pc}^
     c40:	00001301 	andeq	r1, r0, r1, lsl #6
     c44:	0300050a 	movweq	r0, #1290	; 0x50a
     c48:	3b0b3a08 	blcc	2cf470 <__bss_end__+0x2c3ee8>
     c4c:	490b390b 	stmdbmi	fp, {r0, r1, r3, r8, fp, ip, sp}
     c50:	b7170213 			; <UNDEFINED> instruction: 0xb7170213
     c54:	00001742 	andeq	r1, r0, r2, asr #14
     c58:	0300340b 	movweq	r3, #1035	; 0x40b
     c5c:	3413490e 	ldrcc	r4, [r3], #-2318	; 0xfffff6f2
     c60:	00180219 	andseq	r0, r8, r9, lsl r2
     c64:	82890c00 	addhi	r0, r9, #0, 24
     c68:	01110101 	tsteq	r1, r1, lsl #2
     c6c:	13011331 	movwne	r1, #4913	; 0x1331
     c70:	8a0d0000 	bhi	340c78 <__bss_end__+0x3356f0>
     c74:	02000182 	andeq	r0, r0, #-2147483616	; 0x80000020
     c78:	18429118 	stmdane	r2, {r3, r4, r8, ip, pc}^
     c7c:	890e0000 	stmdbhi	lr, {}	; <UNPREDICTABLE>
     c80:	11000182 	smlabbne	r0, r2, r1, r0
     c84:	00133101 	andseq	r3, r3, r1, lsl #2
     c88:	01010f00 	tsteq	r1, r0, lsl #30
     c8c:	13011349 	movwne	r1, #4937	; 0x1349
     c90:	21100000 	tstcs	r0, r0
     c94:	2f134900 	svccs	0x00134900
     c98:	1100000b 	tstne	r0, fp
     c9c:	193f002e 	ldmdbne	pc!, {r1, r2, r3, r5}	; <UNPREDICTABLE>
     ca0:	0e6e193c 			; <UNDEFINED> instruction: 0x0e6e193c
     ca4:	0b3a0e03 	bleq	e844b8 <__bss_end__+0xe78f30>
     ca8:	0b390b3b 	bleq	e4399c <__bss_end__+0xe38414>
     cac:	01000000 	mrseq	r0, (UNDEF: 0)
     cb0:	0e250111 	mcreq	1, 1, r0, cr5, cr1, {0}
     cb4:	0e030b13 	vmoveq.32	d3[0], r0
     cb8:	01110e1b 	tsteq	r1, fp, lsl lr
     cbc:	17100612 			; <UNDEFINED> instruction: 0x17100612
     cc0:	24020000 	strcs	r0, [r2], #-0
     cc4:	3e0b0b00 	vmlacc.f64	d0, d11, d0
     cc8:	0008030b 	andeq	r0, r8, fp, lsl #6
     ccc:	00240300 	eoreq	r0, r4, r0, lsl #6
     cd0:	0b3e0b0b 	bleq	f83904 <__bss_end__+0xf7837c>
     cd4:	00000e03 	andeq	r0, r0, r3, lsl #28
     cd8:	27011504 	strcs	r1, [r1, -r4, lsl #10]
     cdc:	01134919 	tsteq	r3, r9, lsl r9
     ce0:	05000013 	streq	r0, [r0, #-19]	; 0xffffffed
     ce4:	13490005 	movtne	r0, #36869	; 0x9005
     ce8:	34060000 	strcc	r0, [r6], #-0
     cec:	3a0e0300 	bcc	3818f4 <__bss_end__+0x37636c>
     cf0:	390b3b0b 	stmdbcc	fp, {r0, r1, r3, r8, r9, fp, ip, sp}
     cf4:	3f13490b 	svccc	0x0013490b
     cf8:	00193c19 	andseq	r3, r9, r9, lsl ip
     cfc:	000f0700 	andeq	r0, pc, r0, lsl #14
     d00:	13490b0b 	movtne	r0, #39691	; 0x9b0b
     d04:	26080000 	strcs	r0, [r8], -r0
     d08:	00134900 	andseq	r4, r3, r0, lsl #18
     d0c:	012e0900 			; <UNDEFINED> instruction: 0x012e0900
     d10:	0e03193f 			; <UNDEFINED> instruction: 0x0e03193f
     d14:	0b3b0b3a 	bleq	ec3a04 <__bss_end__+0xeb847c>
     d18:	19270b39 	stmdbne	r7!, {r0, r3, r4, r5, r8, r9, fp}
     d1c:	06120111 			; <UNDEFINED> instruction: 0x06120111
     d20:	42971840 	addsmi	r1, r7, #64, 16	; 0x400000
     d24:	00130119 	andseq	r0, r3, r9, lsl r1
     d28:	00050a00 	andeq	r0, r5, r0, lsl #20
     d2c:	0b3a0803 	bleq	e82d40 <__bss_end__+0xe777b8>
     d30:	0b390b3b 	bleq	e43a24 <__bss_end__+0xe3849c>
     d34:	17021349 	strne	r1, [r2, -r9, asr #6]
     d38:	001742b7 			; <UNDEFINED> instruction: 0x001742b7
     d3c:	00340b00 	eorseq	r0, r4, r0, lsl #22
     d40:	13490e03 	movtne	r0, #40451	; 0x9e03
     d44:	18021934 	stmdane	r2, {r2, r4, r5, r8, fp, ip}
     d48:	890c0000 	stmdbhi	ip, {}	; <UNPREDICTABLE>
     d4c:	11010182 	smlabbne	r1, r2, r1, r0
     d50:	01133101 	tsteq	r3, r1, lsl #2
     d54:	0d000013 	stceq	0, cr0, [r0, #-76]	; 0xffffffb4
     d58:	0001828a 	andeq	r8, r1, sl, lsl #5
     d5c:	42911802 	addsmi	r1, r1, #131072	; 0x20000
     d60:	0e000018 	mcreq	0, 0, r0, cr0, cr8, {0}
     d64:	00018289 	andeq	r8, r1, r9, lsl #5
     d68:	13310111 	teqne	r1, #1073741828	; 0x40000004
     d6c:	010f0000 	mrseq	r0, CPSR
     d70:	01134901 	tsteq	r3, r1, lsl #18
     d74:	10000013 	andne	r0, r0, r3, lsl r0
     d78:	13490021 	movtne	r0, #36897	; 0x9021
     d7c:	00000b2f 	andeq	r0, r0, pc, lsr #22
     d80:	3f002e11 	svccc	0x00002e11
     d84:	6e193c19 	mrcvs	12, 0, r3, cr9, cr9, {0}
     d88:	3a0e030e 	bcc	3819c8 <__bss_end__+0x376440>
     d8c:	390b3b0b 	stmdbcc	fp, {r0, r1, r3, r8, r9, fp, ip, sp}
     d90:	0000000b 	andeq	r0, r0, fp
     d94:	25011101 	strcs	r1, [r1, #-257]	; 0xfffffeff
     d98:	030b130e 	movweq	r1, #45838	; 0xb30e
     d9c:	110e1b0e 	tstne	lr, lr, lsl #22
     da0:	10061201 	andne	r1, r6, r1, lsl #4
     da4:	02000017 	andeq	r0, r0, #23, 0
     da8:	0b0b0024 	bleq	2c0e40 <__bss_end__+0x2b58b8>
     dac:	08030b3e 	stmdaeq	r3, {r1, r2, r3, r4, r5, r8, r9, fp}
     db0:	24030000 	strcs	r0, [r3], #-0
     db4:	3e0b0b00 	vmlacc.f64	d0, d11, d0
     db8:	000e030b 	andeq	r0, lr, fp, lsl #6
     dbc:	01150400 	tsteq	r5, r0, lsl #8
     dc0:	13491927 	movtne	r1, #39207	; 0x9927
     dc4:	00001301 	andeq	r1, r0, r1, lsl #6
     dc8:	49000505 	stmdbmi	r0, {r0, r2, r8, sl}
     dcc:	06000013 			; <UNDEFINED> instruction: 0x06000013
     dd0:	0e030034 	mcreq	0, 0, r0, cr3, cr4, {1}
     dd4:	0b3b0b3a 	bleq	ec3ac4 <__bss_end__+0xeb853c>
     dd8:	13490b39 	movtne	r0, #39737	; 0x9b39
     ddc:	193c193f 	ldmdbne	ip!, {r0, r1, r2, r3, r4, r5, r8, fp, ip}
     de0:	0f070000 	svceq	0x00070000
     de4:	490b0b00 	stmdbmi	fp, {r8, r9, fp}
     de8:	08000013 	stmdaeq	r0, {r0, r1, r4}
     dec:	13490026 	movtne	r0, #36902	; 0x9026
     df0:	2e090000 	cdpcs	0, 0, cr0, cr9, cr0, {0}
     df4:	03193f01 	tsteq	r9, #1, 30
     df8:	3b0b3a0e 	blcc	2cf638 <__bss_end__+0x2c40b0>
     dfc:	270b390b 	strcs	r3, [fp, -fp, lsl #18]
     e00:	12011119 	andne	r1, r1, #1073741830	; 0x40000006
     e04:	97184006 	ldrls	r4, [r8, -r6]
     e08:	13011942 	movwne	r1, #6466	; 0x1942
     e0c:	050a0000 	streq	r0, [sl, #-0]
     e10:	3a080300 	bcc	201a18 <__bss_end__+0x1f6490>
     e14:	390b3b0b 	stmdbcc	fp, {r0, r1, r3, r8, r9, fp, ip, sp}
     e18:	0213490b 	andseq	r4, r3, #180224	; 0x2c000
     e1c:	1742b717 	smlaldne	fp, r2, r7, r7
     e20:	340b0000 	strcc	r0, [fp], #-0
     e24:	490e0300 	stmdbmi	lr, {r8, r9}
     e28:	02193413 	andseq	r3, r9, #318767104	; 0x13000000
     e2c:	0c000018 	stceq	0, cr0, [r0], {24}
     e30:	01018289 	smlabbeq	r1, r9, r2, r8
     e34:	13310111 	teqne	r1, #1073741828	; 0x40000004
     e38:	00001301 	andeq	r1, r0, r1, lsl #6
     e3c:	01828a0d 	orreq	r8, r2, sp, lsl #20
     e40:	91180200 	tstls	r8, r0, lsl #4
     e44:	00001842 	andeq	r1, r0, r2, asr #16
     e48:	0182890e 	orreq	r8, r2, lr, lsl #18
     e4c:	31011100 	mrscc	r1, (UNDEF: 17)
     e50:	0f000013 	svceq	0x00000013
     e54:	13490101 	movtne	r0, #37121	; 0x9101
     e58:	00001301 	andeq	r1, r0, r1, lsl #6
     e5c:	49002110 	stmdbmi	r0, {r4, r8, sp}
     e60:	000b2f13 	andeq	r2, fp, r3, lsl pc
     e64:	002e1100 	eoreq	r1, lr, r0, lsl #2
     e68:	193c193f 	ldmdbne	ip!, {r0, r1, r2, r3, r4, r5, r8, fp, ip}
     e6c:	0e030e6e 	cdpeq	14, 0, cr0, cr3, cr14, {3}
     e70:	0b3b0b3a 	bleq	ec3b60 <__bss_end__+0xeb85d8>
     e74:	00000b39 	andeq	r0, r0, r9, lsr fp
     e78:	01110100 	tsteq	r1, r0, lsl #2
     e7c:	0b130e25 	bleq	4c4718 <__bss_end__+0x4b9190>
     e80:	0e1b0e03 	cdpeq	14, 1, cr0, cr11, cr3, {0}
     e84:	06120111 			; <UNDEFINED> instruction: 0x06120111
     e88:	00001710 	andeq	r1, r0, r0, lsl r7
     e8c:	0b002402 	bleq	9e9c <__FUNCTION__.3947+0xe4>
     e90:	030b3e0b 	movweq	r3, #48651	; 0xbe0b
     e94:	03000008 	movweq	r0, #8
     e98:	0b0b0024 	bleq	2c0f30 <__bss_end__+0x2b59a8>
     e9c:	0e030b3e 	vmoveq.16	d3[0], r0
     ea0:	15040000 	strne	r0, [r4, #-0]
     ea4:	49192701 	ldmdbmi	r9, {r0, r8, r9, sl, sp}
     ea8:	00130113 	andseq	r0, r3, r3, lsl r1
     eac:	00050500 	andeq	r0, r5, r0, lsl #10
     eb0:	00001349 	andeq	r1, r0, r9, asr #6
     eb4:	03003406 	movweq	r3, #1030	; 0x406
     eb8:	3b0b3a0e 	blcc	2cf6f8 <__bss_end__+0x2c4170>
     ebc:	490b390b 	stmdbmi	fp, {r0, r1, r3, r8, fp, ip, sp}
     ec0:	3c193f13 	ldccc	15, cr3, [r9], {19}
     ec4:	07000019 	smladeq	r0, r9, r0, r0
     ec8:	0b0b000f 	bleq	2c0f0c <__bss_end__+0x2b5984>
     ecc:	00001349 	andeq	r1, r0, r9, asr #6
     ed0:	49002608 	stmdbmi	r0, {r3, r9, sl, sp}
     ed4:	09000013 	stmdbeq	r0, {r0, r1, r4}
     ed8:	193f012e 	ldmdbne	pc!, {r1, r2, r3, r5, r8}	; <UNPREDICTABLE>
     edc:	0b3a0e03 	bleq	e846f0 <__bss_end__+0xe79168>
     ee0:	0b390b3b 	bleq	e43bd4 <__bss_end__+0xe3864c>
     ee4:	01111927 	tsteq	r1, r7, lsr #18
     ee8:	18400612 	stmdane	r0, {r1, r4, r9, sl}^
     eec:	01194297 			; <UNDEFINED> instruction: 0x01194297
     ef0:	0a000013 	beq	f44 <__code_start__-0x70bc>
     ef4:	08030005 	stmdaeq	r3, {r0, r2}
     ef8:	0b3b0b3a 	bleq	ec3be8 <__bss_end__+0xeb8660>
     efc:	13490b39 	movtne	r0, #39737	; 0x9b39
     f00:	42b71702 	adcsmi	r1, r7, #524288	; 0x80000
     f04:	0b000017 	bleq	f68 <__code_start__-0x7098>
     f08:	0e030034 	mcreq	0, 0, r0, cr3, cr4, {1}
     f0c:	19341349 	ldmdbne	r4!, {r0, r3, r6, r8, r9, ip}
     f10:	00001802 	andeq	r1, r0, r2, lsl #16
     f14:	0182890c 	orreq	r8, r2, ip, lsl #18
     f18:	31011101 	tstcc	r1, r1, lsl #2
     f1c:	00130113 	andseq	r0, r3, r3, lsl r1
     f20:	828a0d00 	addhi	r0, sl, #0, 26
     f24:	18020001 	stmdane	r2, {r0}
     f28:	00184291 	mulseq	r8, r1, r2
     f2c:	82890e00 	addhi	r0, r9, #0, 28
     f30:	01110001 	tsteq	r1, r1
     f34:	00001331 	andeq	r1, r0, r1, lsr r3
     f38:	4901010f 	stmdbmi	r1, {r0, r1, r2, r3, r8}
     f3c:	00130113 	andseq	r0, r3, r3, lsl r1
     f40:	00211000 	eoreq	r1, r1, r0
     f44:	0b2f1349 	bleq	bc5c70 <__bss_end__+0xbba6e8>
     f48:	2e110000 	cdpcs	0, 1, cr0, cr1, cr0, {0}
     f4c:	3c193f00 	ldccc	15, cr3, [r9], {-0}
     f50:	030e6e19 	movweq	r6, #60953	; 0xee19
     f54:	3b0b3a0e 	blcc	2cf794 <__bss_end__+0x2c420c>
     f58:	000b390b 	andeq	r3, fp, fp, lsl #18
     f5c:	11010000 	mrsne	r0, (UNDEF: 1)
     f60:	130e2501 	movwne	r2, #58625	; 0xe501
     f64:	1b0e030b 	blne	381b98 <__bss_end__+0x376610>
     f68:	1201110e 	andne	r1, r1, #-2147483645	; 0x80000003
     f6c:	00171006 	andseq	r1, r7, r6
     f70:	00240200 	eoreq	r0, r4, r0, lsl #4
     f74:	0b3e0b0b 	bleq	f83ba8 <__bss_end__+0xf78620>
     f78:	00000803 	andeq	r0, r0, r3, lsl #16
     f7c:	0b002403 	bleq	9f90 <__FUNCTION__.4026+0x74>
     f80:	030b3e0b 	movweq	r3, #48651	; 0xbe0b
     f84:	0400000e 	streq	r0, [r0], #-14
     f88:	19270115 	stmdbne	r7!, {r0, r2, r4, r8}
     f8c:	13011349 	movwne	r1, #4937	; 0x1349
     f90:	05050000 	streq	r0, [r5, #-0]
     f94:	00134900 	andseq	r4, r3, r0, lsl #18
     f98:	00340600 	eorseq	r0, r4, r0, lsl #12
     f9c:	0b3a0e03 	bleq	e847b0 <__bss_end__+0xe79228>
     fa0:	0b390b3b 	bleq	e43c94 <__bss_end__+0xe3870c>
     fa4:	193f1349 	ldmdbne	pc!, {r0, r3, r6, r8, r9, ip}	; <UNPREDICTABLE>
     fa8:	0000193c 	andeq	r1, r0, ip, lsr r9
     fac:	0b000f07 	bleq	4bd0 <__code_start__-0x3430>
     fb0:	0013490b 	andseq	r4, r3, fp, lsl #18
     fb4:	00260800 	eoreq	r0, r6, r0, lsl #16
     fb8:	00001349 	andeq	r1, r0, r9, asr #6
     fbc:	3f012e09 	svccc	0x00012e09
     fc0:	3a0e0319 	bcc	381c2c <__bss_end__+0x3766a4>
     fc4:	390b3b0b 	stmdbcc	fp, {r0, r1, r3, r8, r9, fp, ip, sp}
     fc8:	1119270b 	tstne	r9, fp, lsl #14
     fcc:	40061201 	andmi	r1, r6, r1, lsl #4
     fd0:	19429718 	stmdbne	r2, {r3, r4, r8, r9, sl, ip, pc}^
     fd4:	00001301 	andeq	r1, r0, r1, lsl #6
     fd8:	0300050a 	movweq	r0, #1290	; 0x50a
     fdc:	3b0b3a08 	blcc	2cf804 <__bss_end__+0x2c427c>
     fe0:	490b390b 	stmdbmi	fp, {r0, r1, r3, r8, fp, ip, sp}
     fe4:	b7170213 			; <UNDEFINED> instruction: 0xb7170213
     fe8:	00001742 	andeq	r1, r0, r2, asr #14
     fec:	0300340b 	movweq	r3, #1035	; 0x40b
     ff0:	3413490e 	ldrcc	r4, [r3], #-2318	; 0xfffff6f2
     ff4:	00180219 	andseq	r0, r8, r9, lsl r2
     ff8:	82890c00 	addhi	r0, r9, #0, 24
     ffc:	01110101 	tsteq	r1, r1, lsl #2
    1000:	13011331 	movwne	r1, #4913	; 0x1331
    1004:	8a0d0000 	bhi	34100c <__bss_end__+0x335a84>
    1008:	02000182 	andeq	r0, r0, #-2147483616	; 0x80000020
    100c:	18429118 	stmdane	r2, {r3, r4, r8, ip, pc}^
    1010:	890e0000 	stmdbhi	lr, {}	; <UNPREDICTABLE>
    1014:	11000182 	smlabbne	r0, r2, r1, r0
    1018:	00133101 	andseq	r3, r3, r1, lsl #2
    101c:	01010f00 	tsteq	r1, r0, lsl #30
    1020:	13011349 	movwne	r1, #4937	; 0x1349
    1024:	21100000 	tstcs	r0, r0
    1028:	2f134900 	svccs	0x00134900
    102c:	1100000b 	tstne	r0, fp
    1030:	193f002e 	ldmdbne	pc!, {r1, r2, r3, r5}	; <UNPREDICTABLE>
    1034:	0e6e193c 			; <UNDEFINED> instruction: 0x0e6e193c
    1038:	0b3a0e03 	bleq	e8484c <__bss_end__+0xe792c4>
    103c:	0b390b3b 	bleq	e43d30 <__bss_end__+0xe387a8>
    1040:	01000000 	mrseq	r0, (UNDEF: 0)
    1044:	0e250111 	mcreq	1, 1, r0, cr5, cr1, {0}
    1048:	0e030b13 	vmoveq.32	d3[0], r0
    104c:	01110e1b 	tsteq	r1, fp, lsl lr
    1050:	17100612 			; <UNDEFINED> instruction: 0x17100612
    1054:	24020000 	strcs	r0, [r2], #-0
    1058:	3e0b0b00 	vmlacc.f64	d0, d11, d0
    105c:	0008030b 	andeq	r0, r8, fp, lsl #6
    1060:	00240300 	eoreq	r0, r4, r0, lsl #6
    1064:	0b3e0b0b 	bleq	f83c98 <__bss_end__+0xf78710>
    1068:	00000e03 	andeq	r0, r0, r3, lsl #28
    106c:	27011504 	strcs	r1, [r1, -r4, lsl #10]
    1070:	01134919 	tsteq	r3, r9, lsl r9
    1074:	05000013 	streq	r0, [r0, #-19]	; 0xffffffed
    1078:	13490005 	movtne	r0, #36869	; 0x9005
    107c:	34060000 	strcc	r0, [r6], #-0
    1080:	3a0e0300 	bcc	381c88 <__bss_end__+0x376700>
    1084:	390b3b0b 	stmdbcc	fp, {r0, r1, r3, r8, r9, fp, ip, sp}
    1088:	3f13490b 	svccc	0x0013490b
    108c:	00193c19 	andseq	r3, r9, r9, lsl ip
    1090:	000f0700 	andeq	r0, pc, r0, lsl #14
    1094:	13490b0b 	movtne	r0, #39691	; 0x9b0b
    1098:	26080000 	strcs	r0, [r8], -r0
    109c:	00134900 	andseq	r4, r3, r0, lsl #18
    10a0:	01040900 	tsteq	r4, r0, lsl #18
    10a4:	0b0b0b3e 	bleq	2c3da4 <__bss_end__+0x2b881c>
    10a8:	0b3a1349 	bleq	e85dd4 <__bss_end__+0xe7a84c>
    10ac:	0b390b3b 	bleq	e43da0 <__bss_end__+0xe38818>
    10b0:	00001301 	andeq	r1, r0, r1, lsl #6
    10b4:	0300280a 	movweq	r2, #2058	; 0x80a
    10b8:	00061c0e 	andeq	r1, r6, lr, lsl #24
    10bc:	012e0b00 			; <UNDEFINED> instruction: 0x012e0b00
    10c0:	0e03193f 			; <UNDEFINED> instruction: 0x0e03193f
    10c4:	0b3b0b3a 	bleq	ec3db4 <__bss_end__+0xeb882c>
    10c8:	19270b39 	stmdbne	r7!, {r0, r3, r4, r5, r8, r9, fp}
    10cc:	06120111 			; <UNDEFINED> instruction: 0x06120111
    10d0:	42971840 	addsmi	r1, r7, #64, 16	; 0x400000
    10d4:	00130119 	andseq	r0, r3, r9, lsl r1
    10d8:	00340c00 	eorseq	r0, r4, r0, lsl #24
    10dc:	0b3a0803 	bleq	e830f0 <__bss_end__+0xe77b68>
    10e0:	0b390b3b 	bleq	e43dd4 <__bss_end__+0xe3884c>
    10e4:	0b1c1349 	bleq	705e10 <__bss_end__+0x6fa888>
    10e8:	340d0000 	strcc	r0, [sp], #-0
    10ec:	3a080300 	bcc	201cf4 <__bss_end__+0x1f676c>
    10f0:	390b3b0b 	stmdbcc	fp, {r0, r1, r3, r8, r9, fp, ip, sp}
    10f4:	0013490b 	andseq	r4, r3, fp, lsl #18
    10f8:	00340e00 	eorseq	r0, r4, r0, lsl #28
    10fc:	0b3a0803 	bleq	e83110 <__bss_end__+0xe77b88>
    1100:	0b390b3b 	bleq	e43df4 <__bss_end__+0xe3886c>
    1104:	17021349 	strne	r1, [r2, -r9, asr #6]
    1108:	001742b7 			; <UNDEFINED> instruction: 0x001742b7
    110c:	010b0f00 	tsteq	fp, r0, lsl #30
    1110:	06120111 			; <UNDEFINED> instruction: 0x06120111
    1114:	00001301 	andeq	r1, r0, r1, lsl #6
    1118:	01828910 	orreq	r8, r2, r0, lsl r9
    111c:	31011100 	mrscc	r1, (UNDEF: 17)
    1120:	11000013 	tstne	r0, r3, lsl r0
    1124:	01018289 	smlabbeq	r1, r9, r2, r8
    1128:	13310111 	teqne	r1, #1073741828	; 0x40000004
    112c:	00001301 	andeq	r1, r0, r1, lsl #6
    1130:	01828a12 	orreq	r8, r2, r2, lsl sl
    1134:	91180200 	tstls	r8, r0, lsl #4
    1138:	00001842 	andeq	r1, r0, r2, asr #16
    113c:	3f002e13 	svccc	0x00002e13
    1140:	6e193c19 	mrcvs	12, 0, r3, cr9, cr9, {0}
    1144:	3a0e030e 	bcc	381d84 <__bss_end__+0x3767fc>
    1148:	390b3b0b 	stmdbcc	fp, {r0, r1, r3, r8, r9, fp, ip, sp}
    114c:	0000000b 	andeq	r0, r0, fp
    1150:	25011101 	strcs	r1, [r1, #-257]	; 0xfffffeff
    1154:	030b130e 	movweq	r1, #45838	; 0xb30e
    1158:	550e1b0e 	strpl	r1, [lr, #-2830]	; 0xfffff4f2
    115c:	10011117 	andne	r1, r1, r7, lsl r1
    1160:	02000017 	andeq	r0, r0, #23, 0
    1164:	0b0b0024 	bleq	2c11fc <__bss_end__+0x2b5c74>
    1168:	08030b3e 	stmdaeq	r3, {r1, r2, r3, r4, r5, r8, r9, fp}
    116c:	26030000 	strcs	r0, [r3], -r0
    1170:	00134900 	andseq	r4, r3, r0, lsl #18
    1174:	00240400 	eoreq	r0, r4, r0, lsl #8
    1178:	0b3e0b0b 	bleq	f83dac <__bss_end__+0xf78824>
    117c:	00000e03 	andeq	r0, r0, r3, lsl #28
    1180:	27011505 	strcs	r1, [r1, -r5, lsl #10]
    1184:	01134919 	tsteq	r3, r9, lsl r9
    1188:	06000013 			; <UNDEFINED> instruction: 0x06000013
    118c:	13490005 	movtne	r0, #36869	; 0x9005
    1190:	34070000 	strcc	r0, [r7], #-0
    1194:	3a0e0300 	bcc	381d9c <__bss_end__+0x376814>
    1198:	390b3b0b 	stmdbcc	fp, {r0, r1, r3, r8, r9, fp, ip, sp}
    119c:	3f13490b 	svccc	0x0013490b
    11a0:	00193c19 	andseq	r3, r9, r9, lsl ip
    11a4:	000f0800 	andeq	r0, pc, r0, lsl #16
    11a8:	13490b0b 	movtne	r0, #39691	; 0x9b0b
    11ac:	34090000 	strcc	r0, [r9], #-0
    11b0:	3a0e0300 	bcc	381db8 <__bss_end__+0x376830>
    11b4:	390b3b0b 	stmdbcc	fp, {r0, r1, r3, r8, r9, fp, ip, sp}
    11b8:	0013490b 	andseq	r4, r3, fp, lsl #18
    11bc:	012e0a00 			; <UNDEFINED> instruction: 0x012e0a00
    11c0:	0e03193f 			; <UNDEFINED> instruction: 0x0e03193f
    11c4:	0b3b0b3a 	bleq	ec3eb4 <__bss_end__+0xeb892c>
    11c8:	19270b39 	stmdbne	r7!, {r0, r3, r4, r5, r8, r9, fp}
    11cc:	11190187 	tstne	r9, r7, lsl #3
    11d0:	40061201 	andmi	r1, r6, r1, lsl #4
    11d4:	19429718 	stmdbne	r2, {r3, r4, r8, r9, sl, ip, pc}^
    11d8:	00001301 	andeq	r1, r0, r1, lsl #6
    11dc:	0300340b 	movweq	r3, #1035	; 0x40b
    11e0:	3b0b3a0e 	blcc	2cfa20 <__bss_end__+0x2c4498>
    11e4:	490b390b 	stmdbmi	fp, {r0, r1, r3, r8, fp, ip, sp}
    11e8:	b7170213 			; <UNDEFINED> instruction: 0xb7170213
    11ec:	00001742 	andeq	r1, r0, r2, asr #14
    11f0:	0182890c 	orreq	r8, r2, ip, lsl #18
    11f4:	31011100 	mrscc	r1, (UNDEF: 17)
    11f8:	0d000013 	stceq	0, cr0, [r0, #-76]	; 0xffffffb4
    11fc:	01018289 	smlabbeq	r1, r9, r2, r8
    1200:	13310111 	teqne	r1, #1073741828	; 0x40000004
    1204:	00001301 	andeq	r1, r0, r1, lsl #6
    1208:	01828a0e 	orreq	r8, r2, lr, lsl #20
    120c:	91180200 	tstls	r8, r0, lsl #4
    1210:	00001842 	andeq	r1, r0, r2, asr #16
    1214:	3f012e0f 	svccc	0x00012e0f
    1218:	3a0e0319 	bcc	381e84 <__bss_end__+0x3768fc>
    121c:	390b3b0b 	stmdbcc	fp, {r0, r1, r3, r8, r9, fp, ip, sp}
    1220:	1119270b 	tstne	r9, fp, lsl #14
    1224:	40061201 	andmi	r1, r6, r1, lsl #4
    1228:	19429718 	stmdbne	r2, {r3, r4, r8, r9, sl, ip, pc}^
    122c:	00001301 	andeq	r1, r0, r1, lsl #6
    1230:	3f012e10 	svccc	0x00012e10
    1234:	3a0e0319 	bcc	381ea0 <__bss_end__+0x376918>
    1238:	390b3b0b 	stmdbcc	fp, {r0, r1, r3, r8, r9, fp, ip, sp}
    123c:	4919270b 	ldmdbmi	r9, {r0, r1, r3, r8, r9, sl, sp}
    1240:	12011113 	andne	r1, r1, #-1073741820	; 0xc0000004
    1244:	97184006 	ldrls	r4, [r8, -r6]
    1248:	13011942 	movwne	r1, #6466	; 0x1942
    124c:	2e110000 	cdpcs	0, 1, cr0, cr1, cr0, {0}
    1250:	3c193f00 	ldccc	15, cr3, [r9], {-0}
    1254:	030e6e19 	movweq	r6, #60953	; 0xee19
    1258:	3b0b3a0e 	blcc	2cfa98 <__bss_end__+0x2c4510>
    125c:	000b3905 	andeq	r3, fp, r5, lsl #18
    1260:	002e1200 	eoreq	r1, lr, r0, lsl #4
    1264:	193c193f 	ldmdbne	ip!, {r0, r1, r2, r3, r4, r5, r8, fp, ip}
    1268:	0e030e6e 	cdpeq	14, 0, cr0, cr3, cr14, {3}
    126c:	0b3b0b3a 	bleq	ec3f5c <__bss_end__+0xeb89d4>
    1270:	00000b39 	andeq	r0, r0, r9, lsr fp
    1274:	01110100 	tsteq	r1, r0, lsl #2
    1278:	0b130e25 	bleq	4c4b14 <__bss_end__+0x4b958c>
    127c:	0e1b0e03 	cdpeq	14, 1, cr0, cr11, cr3, {0}
    1280:	06120111 			; <UNDEFINED> instruction: 0x06120111
    1284:	00001710 	andeq	r1, r0, r0, lsl r7
    1288:	0b002402 	bleq	a298 <int_readings+0x110>
    128c:	030b3e0b 	movweq	r3, #48651	; 0xbe0b
    1290:	03000008 	movweq	r0, #8
    1294:	0b0b0024 	bleq	2c132c <__bss_end__+0x2b5da4>
    1298:	0e030b3e 	vmoveq.16	d3[0], r0
    129c:	15040000 	strne	r0, [r4, #-0]
    12a0:	49192701 	ldmdbmi	r9, {r0, r8, r9, sl, sp}
    12a4:	00130113 	andseq	r0, r3, r3, lsl r1
    12a8:	00050500 	andeq	r0, r5, r0, lsl #10
    12ac:	00001349 	andeq	r1, r0, r9, asr #6
    12b0:	03003406 	movweq	r3, #1030	; 0x406
    12b4:	3b0b3a0e 	blcc	2cfaf4 <__bss_end__+0x2c456c>
    12b8:	490b390b 	stmdbmi	fp, {r0, r1, r3, r8, fp, ip, sp}
    12bc:	3c193f13 	ldccc	15, cr3, [r9], {19}
    12c0:	07000019 	smladeq	r0, r9, r0, r0
    12c4:	0b0b000f 	bleq	2c1308 <__bss_end__+0x2b5d80>
    12c8:	00001349 	andeq	r1, r0, r9, asr #6
    12cc:	49002608 	stmdbmi	r0, {r3, r9, sl, sp}
    12d0:	09000013 	stmdbeq	r0, {r0, r1, r4}
    12d4:	193f012e 	ldmdbne	pc!, {r1, r2, r3, r5, r8}	; <UNPREDICTABLE>
    12d8:	0b3a0e03 	bleq	e84aec <__bss_end__+0xe79564>
    12dc:	0b390b3b 	bleq	e43fd0 <__bss_end__+0xe38a48>
    12e0:	01111927 	tsteq	r1, r7, lsr #18
    12e4:	18400612 	stmdane	r0, {r1, r4, r9, sl}^
    12e8:	01194297 			; <UNDEFINED> instruction: 0x01194297
    12ec:	0a000013 	beq	1340 <__code_start__-0x6cc0>
    12f0:	08030005 	stmdaeq	r3, {r0, r2}
    12f4:	0b3b0b3a 	bleq	ec3fe4 <__bss_end__+0xeb8a5c>
    12f8:	13490b39 	movtne	r0, #39737	; 0x9b39
    12fc:	42b71702 	adcsmi	r1, r7, #524288	; 0x80000
    1300:	0b000017 	bleq	1364 <__code_start__-0x6c9c>
    1304:	01018289 	smlabbeq	r1, r9, r2, r8
    1308:	13310111 	teqne	r1, #1073741828	; 0x40000004
    130c:	8a0c0000 	bhi	301314 <__bss_end__+0x2f5d8c>
    1310:	02000182 	andeq	r0, r0, #-2147483616	; 0x80000020
    1314:	18429118 	stmdane	r2, {r3, r4, r8, ip, pc}^
    1318:	340d0000 	strcc	r0, [sp], #-0
    131c:	3a080300 	bcc	201f24 <__bss_end__+0x1f699c>
    1320:	390b3b0b 	stmdbcc	fp, {r0, r1, r3, r8, r9, fp, ip, sp}
    1324:	0213490b 	andseq	r4, r3, #180224	; 0x2c000
    1328:	1742b717 	smlaldne	fp, r2, r7, r7
    132c:	0b0e0000 	bleq	381334 <__bss_end__+0x375dac>
    1330:	12011101 	andne	r1, r1, #1073741824	; 0x40000000
    1334:	00130106 	andseq	r0, r3, r6, lsl #2
    1338:	82890f00 	addhi	r0, r9, #0, 30
    133c:	01110001 	tsteq	r1, r1
    1340:	00001331 	andeq	r1, r0, r1, lsr r3
    1344:	3f012e10 	svccc	0x00012e10
    1348:	3a0e0319 	bcc	381fb4 <__bss_end__+0x376a2c>
    134c:	390b3b0b 	stmdbcc	fp, {r0, r1, r3, r8, r9, fp, ip, sp}
    1350:	4919270b 	ldmdbmi	r9, {r0, r1, r3, r8, r9, sl, sp}
    1354:	12011113 	andne	r1, r1, #-1073741820	; 0xc0000004
    1358:	97184006 	ldrls	r4, [r8, -r6]
    135c:	13011942 	movwne	r1, #6466	; 0x1942
    1360:	2e110000 	cdpcs	0, 1, cr0, cr1, cr0, {0}
    1364:	3c193f00 	ldccc	15, cr3, [r9], {-0}
    1368:	030e6e19 	movweq	r6, #60953	; 0xee19
    136c:	3b0b3a0e 	blcc	2cfbac <__bss_end__+0x2c4624>
    1370:	000b390b 	andeq	r3, fp, fp, lsl #18
    1374:	11010000 	mrsne	r0, (UNDEF: 1)
    1378:	130e2501 	movwne	r2, #58625	; 0xe501
    137c:	1b0e030b 	blne	381fb0 <__bss_end__+0x376a28>
    1380:	1201110e 	andne	r1, r1, #-2147483645	; 0x80000003
    1384:	00171006 	andseq	r1, r7, r6
    1388:	00240200 	eoreq	r0, r4, r0, lsl #4
    138c:	0b3e0b0b 	bleq	f83fc0 <__bss_end__+0xf78a38>
    1390:	00000803 	andeq	r0, r0, r3, lsl #16
    1394:	0b002403 	bleq	a3a8 <int_readings+0x220>
    1398:	030b3e0b 	movweq	r3, #48651	; 0xbe0b
    139c:	0400000e 	streq	r0, [r0], #-14
    13a0:	13490035 	movtne	r0, #36917	; 0x9035
    13a4:	16050000 	strne	r0, [r5], -r0
    13a8:	3a0e0300 	bcc	381fb0 <__bss_end__+0x376a28>
    13ac:	390b3b0b 	stmdbcc	fp, {r0, r1, r3, r8, r9, fp, ip, sp}
    13b0:	0013490b 	andseq	r4, r3, fp, lsl #18
    13b4:	01040600 	tsteq	r4, r0, lsl #12
    13b8:	0b0b0b3e 	bleq	2c40b8 <__bss_end__+0x2b8b30>
    13bc:	0b3a1349 	bleq	e860e8 <__bss_end__+0xe7ab60>
    13c0:	0b390b3b 	bleq	e440b4 <__bss_end__+0xe38b2c>
    13c4:	00001301 	andeq	r1, r0, r1, lsl #6
    13c8:	03002807 	movweq	r2, #2055	; 0x807
    13cc:	000b1c0e 	andeq	r1, fp, lr, lsl #24
    13d0:	01130800 	tsteq	r3, r0, lsl #16
    13d4:	0b0b0e03 	bleq	2c4be8 <__bss_end__+0x2b9660>
    13d8:	0b3b0b3a 	bleq	ec40c8 <__bss_end__+0xeb8b40>
    13dc:	13010b39 	movwne	r0, #6969	; 0x1b39
    13e0:	0d090000 	stceq	0, cr0, [r9, #-0]
    13e4:	3a080300 	bcc	201fec <__bss_end__+0x1f6a64>
    13e8:	390b3b0b 	stmdbcc	fp, {r0, r1, r3, r8, r9, fp, ip, sp}
    13ec:	3813490b 	ldmdacc	r3, {r0, r1, r3, r8, fp, lr}
    13f0:	0a00000b 	beq	1424 <__code_start__-0x6bdc>
    13f4:	0e03000d 	cdpeq	0, 0, cr0, cr3, cr13, {0}
    13f8:	0b3b0b3a 	bleq	ec40e8 <__bss_end__+0xeb8b60>
    13fc:	13490b39 	movtne	r0, #39737	; 0x9b39
    1400:	00000b38 	andeq	r0, r0, r8, lsr fp
    1404:	0300340b 	movweq	r3, #1035	; 0x40b
    1408:	3b0b3a0e 	blcc	2cfc48 <__bss_end__+0x2c46c0>
    140c:	490b390b 	stmdbmi	fp, {r0, r1, r3, r8, fp, ip, sp}
    1410:	00061c13 	andeq	r1, r6, r3, lsl ip
    1414:	000f0c00 	andeq	r0, pc, r0, lsl #24
    1418:	13490b0b 	movtne	r0, #39691	; 0x9b0b
    141c:	260d0000 	strcs	r0, [sp], -r0
    1420:	00134900 	andseq	r4, r3, r0, lsl #18
    1424:	012e0e00 			; <UNDEFINED> instruction: 0x012e0e00
    1428:	0e03193f 			; <UNDEFINED> instruction: 0x0e03193f
    142c:	0b3b0b3a 	bleq	ec411c <__bss_end__+0xeb8b94>
    1430:	19270b39 	stmdbne	r7!, {r0, r3, r4, r5, r8, r9, fp}
    1434:	06120111 			; <UNDEFINED> instruction: 0x06120111
    1438:	42971840 	addsmi	r1, r7, #64, 16	; 0x400000
    143c:	00130119 	andseq	r0, r3, r9, lsl r1
    1440:	82890f00 	addhi	r0, r9, #0, 30
    1444:	01110001 	tsteq	r1, r1
    1448:	00001331 	andeq	r1, r0, r1, lsr r3
    144c:	3f012e10 	svccc	0x00012e10
    1450:	3a0e0319 	bcc	3820bc <__bss_end__+0x376b34>
    1454:	390b3b0b 	stmdbcc	fp, {r0, r1, r3, r8, r9, fp, ip, sp}
    1458:	4919270b 	ldmdbmi	r9, {r0, r1, r3, r8, r9, sl, sp}
    145c:	12011113 	andne	r1, r1, #-1073741820	; 0xc0000004
    1460:	97184006 	ldrls	r4, [r8, -r6]
    1464:	13011942 	movwne	r1, #6466	; 0x1942
    1468:	89110000 	ldmdbhi	r1, {}	; <UNPREDICTABLE>
    146c:	11010182 	smlabbne	r1, r2, r1, r0
    1470:	00133101 	andseq	r3, r3, r1, lsl #2
    1474:	828a1200 	addhi	r1, sl, #0, 4
    1478:	18020001 	stmdane	r2, {r0}
    147c:	00184291 	mulseq	r8, r1, r2
    1480:	00051300 	andeq	r1, r5, r0, lsl #6
    1484:	0b3a0803 	bleq	e83498 <__bss_end__+0xe77f10>
    1488:	0b390b3b 	bleq	e4417c <__bss_end__+0xe38bf4>
    148c:	17021349 	strne	r1, [r2, -r9, asr #6]
    1490:	001742b7 			; <UNDEFINED> instruction: 0x001742b7
    1494:	82891400 	addhi	r1, r9, #0, 8
    1498:	01110101 	tsteq	r1, r1, lsl #2
    149c:	13011331 	movwne	r1, #4913	; 0x1331
    14a0:	34150000 	ldrcc	r0, [r5], #-0
    14a4:	3a080300 	bcc	2020ac <__bss_end__+0x1f6b24>
    14a8:	390b3b0b 	stmdbcc	fp, {r0, r1, r3, r8, r9, fp, ip, sp}
    14ac:	0213490b 	andseq	r4, r3, #180224	; 0x2c000
    14b0:	1742b717 	smlaldne	fp, r2, r7, r7
    14b4:	34160000 	ldrcc	r0, [r6], #-0
    14b8:	3a0e0300 	bcc	3820c0 <__bss_end__+0x376b38>
    14bc:	390b3b0b 	stmdbcc	fp, {r0, r1, r3, r8, r9, fp, ip, sp}
    14c0:	1c13490b 			; <UNDEFINED> instruction: 0x1c13490b
    14c4:	17000005 	strne	r0, [r0, -r5]
    14c8:	0e03012e 	adfeqsp	f0, f3, #0.5
    14cc:	0b3b0b3a 	bleq	ec41bc <__bss_end__+0xeb8c34>
    14d0:	19270b39 	stmdbne	r7!, {r0, r3, r4, r5, r8, r9, fp}
    14d4:	06120111 			; <UNDEFINED> instruction: 0x06120111
    14d8:	42971840 	addsmi	r1, r7, #64, 16	; 0x400000
    14dc:	00130119 	andseq	r0, r3, r9, lsl r1
    14e0:	00051800 	andeq	r1, r5, r0, lsl #16
    14e4:	0b3a0e03 	bleq	e84cf8 <__bss_end__+0xe79770>
    14e8:	0b390b3b 	bleq	e441dc <__bss_end__+0xe38c54>
    14ec:	17021349 	strne	r1, [r2, -r9, asr #6]
    14f0:	001742b7 			; <UNDEFINED> instruction: 0x001742b7
    14f4:	00351900 	eorseq	r1, r5, r0, lsl #18
    14f8:	2e1a0000 	cdpcs	0, 1, cr0, cr10, cr0, {0}
    14fc:	3c193f00 	ldccc	15, cr3, [r9], {-0}
    1500:	030e6e19 	movweq	r6, #60953	; 0xee19
    1504:	3b0b3a0e 	blcc	2cfd44 <__bss_end__+0x2c47bc>
    1508:	000b390b 	andeq	r3, fp, fp, lsl #18
    150c:	11010000 	mrsne	r0, (UNDEF: 1)
    1510:	130e2501 	movwne	r2, #58625	; 0xe501
    1514:	1b0e030b 	blne	382148 <__bss_end__+0x376bc0>
    1518:	1201110e 	andne	r1, r1, #-2147483645	; 0x80000003
    151c:	00171006 	andseq	r1, r7, r6
    1520:	00240200 	eoreq	r0, r4, r0, lsl #4
    1524:	0b3e0b0b 	bleq	f84158 <__bss_end__+0xf78bd0>
    1528:	00000803 	andeq	r0, r0, r3, lsl #16
    152c:	0b002403 	bleq	a540 <int_readings+0x3b8>
    1530:	030b3e0b 	movweq	r3, #48651	; 0xbe0b
    1534:	0400000e 	streq	r0, [r0], #-14
    1538:	13490026 	movtne	r0, #36902	; 0x9026
    153c:	34050000 	strcc	r0, [r5], #-0
    1540:	3a0e0300 	bcc	382148 <__bss_end__+0x376bc0>
    1544:	390b3b0b 	stmdbcc	fp, {r0, r1, r3, r8, r9, fp, ip, sp}
    1548:	0013490b 	andseq	r4, r3, fp, lsl #18
    154c:	012e0600 			; <UNDEFINED> instruction: 0x012e0600
    1550:	0e03193f 			; <UNDEFINED> instruction: 0x0e03193f
    1554:	0b3b0b3a 	bleq	ec4244 <__bss_end__+0xeb8cbc>
    1558:	19270b39 	stmdbne	r7!, {r0, r3, r4, r5, r8, r9, fp}
    155c:	01111349 	tsteq	r1, r9, asr #6
    1560:	18400612 	stmdane	r0, {r1, r4, r9, sl}^
    1564:	01194297 			; <UNDEFINED> instruction: 0x01194297
    1568:	07000013 	smladeq	r0, r3, r0, r0
    156c:	08030005 	stmdaeq	r3, {r0, r2}
    1570:	0b3b0b3a 	bleq	ec4260 <__bss_end__+0xeb8cd8>
    1574:	13490b39 	movtne	r0, #39737	; 0x9b39
    1578:	42b71702 	adcsmi	r1, r7, #524288	; 0x80000
    157c:	08000017 	stmdaeq	r0, {r0, r1, r2, r4}
    1580:	01018289 	smlabbeq	r1, r9, r2, r8
    1584:	13310111 	teqne	r1, #1073741828	; 0x40000004
    1588:	8a090000 	bhi	241590 <__bss_end__+0x236008>
    158c:	02000182 	andeq	r0, r0, #-2147483616	; 0x80000020
    1590:	18429118 	stmdane	r2, {r3, r4, r8, ip, pc}^
    1594:	2e0a0000 	cdpcs	0, 0, cr0, cr10, cr0, {0}
    1598:	03193f01 	tsteq	r9, #1, 30
    159c:	3b0b3a0e 	blcc	2cfddc <__bss_end__+0x2c4854>
    15a0:	270b390b 	strcs	r3, [fp, -fp, lsl #18]
    15a4:	12011119 	andne	r1, r1, #1073741830	; 0x40000006
    15a8:	97184006 	ldrls	r4, [r8, -r6]
    15ac:	13011942 	movwne	r1, #6466	; 0x1942
    15b0:	340b0000 	strcc	r0, [fp], #-0
    15b4:	490e0300 	stmdbmi	lr, {r8, r9}
    15b8:	02193413 	andseq	r3, r9, #318767104	; 0x13000000
    15bc:	0c000018 	stceq	0, cr0, [r0], {24}
    15c0:	00018289 	andeq	r8, r1, r9, lsl #5
    15c4:	13310111 	teqne	r1, #1073741828	; 0x40000004
    15c8:	890d0000 	stmdbhi	sp, {}	; <UNPREDICTABLE>
    15cc:	11010182 	smlabbne	r1, r2, r1, r0
    15d0:	01133101 	tsteq	r3, r1, lsl #2
    15d4:	0e000013 	mcreq	0, 0, r0, cr0, cr3, {0}
    15d8:	13490101 	movtne	r0, #37121	; 0x9101
    15dc:	00001301 	andeq	r1, r0, r1, lsl #6
    15e0:	4900210f 	stmdbmi	r0, {r0, r1, r2, r3, r8, sp}
    15e4:	000b2f13 	andeq	r2, fp, r3, lsl pc
    15e8:	002e1000 	eoreq	r1, lr, r0
    15ec:	193c193f 	ldmdbne	ip!, {r0, r1, r2, r3, r4, r5, r8, fp, ip}
    15f0:	0e030e6e 	cdpeq	14, 0, cr0, cr3, cr14, {3}
    15f4:	0b3b0b3a 	bleq	ec42e4 <__bss_end__+0xeb8d5c>
    15f8:	00000b39 	andeq	r0, r0, r9, lsr fp
    15fc:	01110100 	tsteq	r1, r0, lsl #2
    1600:	0b130e25 	bleq	4c4e9c <__bss_end__+0x4b9914>
    1604:	0e1b0e03 	cdpeq	14, 1, cr0, cr11, cr3, {0}
    1608:	06120111 			; <UNDEFINED> instruction: 0x06120111
    160c:	00001710 	andeq	r1, r0, r0, lsl r7
    1610:	0b002402 	bleq	a620 <int_readings+0x498>
    1614:	030b3e0b 	movweq	r3, #48651	; 0xbe0b
    1618:	03000008 	movweq	r0, #8
    161c:	0b0b0024 	bleq	2c16b4 <__bss_end__+0x2b612c>
    1620:	0e030b3e 	vmoveq.16	d3[0], r0
    1624:	15040000 	strne	r0, [r4, #-0]
    1628:	49192701 	ldmdbmi	r9, {r0, r8, r9, sl, sp}
    162c:	00130113 	andseq	r0, r3, r3, lsl r1
    1630:	00050500 	andeq	r0, r5, r0, lsl #10
    1634:	00001349 	andeq	r1, r0, r9, asr #6
    1638:	03003406 	movweq	r3, #1030	; 0x406
    163c:	3b0b3a0e 	blcc	2cfe7c <__bss_end__+0x2c48f4>
    1640:	490b390b 	stmdbmi	fp, {r0, r1, r3, r8, fp, ip, sp}
    1644:	3c193f13 	ldccc	15, cr3, [r9], {19}
    1648:	07000019 	smladeq	r0, r9, r0, r0
    164c:	0b0b000f 	bleq	2c1690 <__bss_end__+0x2b6108>
    1650:	00001349 	andeq	r1, r0, r9, asr #6
    1654:	49002608 	stmdbmi	r0, {r3, r9, sl, sp}
    1658:	09000013 	stmdbeq	r0, {r0, r1, r4}
    165c:	13470034 	movtne	r0, #28724	; 0x7034
    1660:	0b3b0b3a 	bleq	ec4350 <__bss_end__+0xeb8dc8>
    1664:	18020b39 	stmdane	r2, {r0, r3, r4, r5, r8, r9, fp}
    1668:	2e0a0000 	cdpcs	0, 0, cr0, cr10, cr0, {0}
    166c:	03193f01 	tsteq	r9, #1, 30
    1670:	3b0b3a0e 	blcc	2cfeb0 <__bss_end__+0x2c4928>
    1674:	270b390b 	strcs	r3, [fp, -fp, lsl #18]
    1678:	12011119 	andne	r1, r1, #1073741830	; 0x40000006
    167c:	97184006 	ldrls	r4, [r8, -r6]
    1680:	13011942 	movwne	r1, #6466	; 0x1942
    1684:	050b0000 	streq	r0, [fp, #-0]
    1688:	3a080300 	bcc	202290 <__bss_end__+0x1f6d08>
    168c:	390b3b0b 	stmdbcc	fp, {r0, r1, r3, r8, r9, fp, ip, sp}
    1690:	0213490b 	andseq	r4, r3, #180224	; 0x2c000
    1694:	0c000018 	stceq	0, cr0, [r0], {24}
    1698:	193f002e 	ldmdbne	pc!, {r1, r2, r3, r5}	; <UNPREDICTABLE>
    169c:	0b3a0e03 	bleq	e84eb0 <__bss_end__+0xe79928>
    16a0:	0b390b3b 	bleq	e44394 <__bss_end__+0xe38e0c>
    16a4:	01111927 	tsteq	r1, r7, lsr #18
    16a8:	18400612 	stmdane	r0, {r1, r4, r9, sl}^
    16ac:	00194297 	mulseq	r9, r7, r2
    16b0:	012e0d00 			; <UNDEFINED> instruction: 0x012e0d00
    16b4:	0b3a0e03 	bleq	e84ec8 <__bss_end__+0xe79940>
    16b8:	0b390b3b 	bleq	e443ac <__bss_end__+0xe38e24>
    16bc:	13491927 	movtne	r1, #39207	; 0x9927
    16c0:	06120111 			; <UNDEFINED> instruction: 0x06120111
    16c4:	42971840 	addsmi	r1, r7, #64, 16	; 0x400000
    16c8:	00130119 	andseq	r0, r3, r9, lsl r1
    16cc:	00050e00 	andeq	r0, r5, r0, lsl #28
    16d0:	0b3a0803 	bleq	e836e4 <__bss_end__+0xe7815c>
    16d4:	0b390b3b 	bleq	e443c8 <__bss_end__+0xe38e40>
    16d8:	17021349 	strne	r1, [r2, -r9, asr #6]
    16dc:	001742b7 			; <UNDEFINED> instruction: 0x001742b7
    16e0:	82890f00 	addhi	r0, r9, #0, 30
    16e4:	01110101 	tsteq	r1, r1, lsl #2
    16e8:	00001331 	andeq	r1, r0, r1, lsr r3
    16ec:	01828a10 	orreq	r8, r2, r0, lsl sl
    16f0:	91180200 	tstls	r8, r0, lsl #4
    16f4:	00001842 	andeq	r1, r0, r2, asr #16
    16f8:	3f002e11 	svccc	0x00002e11
    16fc:	6e193c19 	mrcvs	12, 0, r3, cr9, cr9, {0}
    1700:	3a0e030e 	bcc	382340 <__bss_end__+0x376db8>
    1704:	390b3b0b 	stmdbcc	fp, {r0, r1, r3, r8, r9, fp, ip, sp}
    1708:	0000000b 	andeq	r0, r0, fp
    170c:	25011101 	strcs	r1, [r1, #-257]	; 0xfffffeff
    1710:	030b130e 	movweq	r1, #45838	; 0xb30e
    1714:	110e1b0e 	tstne	lr, lr, lsl #22
    1718:	10061201 	andne	r1, r6, r1, lsl #4
    171c:	02000017 	andeq	r0, r0, #23, 0
    1720:	0b0b0024 	bleq	2c17b8 <__bss_end__+0x2b6230>
    1724:	08030b3e 	stmdaeq	r3, {r1, r2, r3, r4, r5, r8, r9, fp}
    1728:	24030000 	strcs	r0, [r3], #-0
    172c:	3e0b0b00 	vmlacc.f64	d0, d11, d0
    1730:	000e030b 	andeq	r0, lr, fp, lsl #6
    1734:	01150400 	tsteq	r5, r0, lsl #8
    1738:	13491927 	movtne	r1, #39207	; 0x9927
    173c:	00001301 	andeq	r1, r0, r1, lsl #6
    1740:	49000505 	stmdbmi	r0, {r0, r2, r8, sl}
    1744:	06000013 			; <UNDEFINED> instruction: 0x06000013
    1748:	0e030034 	mcreq	0, 0, r0, cr3, cr4, {1}
    174c:	0b3b0b3a 	bleq	ec443c <__bss_end__+0xeb8eb4>
    1750:	13490b39 	movtne	r0, #39737	; 0x9b39
    1754:	193c193f 	ldmdbne	ip!, {r0, r1, r2, r3, r4, r5, r8, fp, ip}
    1758:	0f070000 	svceq	0x00070000
    175c:	490b0b00 	stmdbmi	fp, {r8, r9, fp}
    1760:	08000013 	stmdaeq	r0, {r0, r1, r4}
    1764:	13490026 	movtne	r0, #36902	; 0x9026
    1768:	2e090000 	cdpcs	0, 0, cr0, cr9, cr0, {0}
    176c:	03193f01 	tsteq	r9, #1, 30
    1770:	3b0b3a0e 	blcc	2cffb0 <__bss_end__+0x2c4a28>
    1774:	270b390b 	strcs	r3, [fp, -fp, lsl #18]
    1778:	11134919 	tstne	r3, r9, lsl r9
    177c:	40061201 	andmi	r1, r6, r1, lsl #4
    1780:	19429718 	stmdbne	r2, {r3, r4, r8, r9, sl, ip, pc}^
    1784:	00001301 	andeq	r1, r0, r1, lsl #6
    1788:	0300050a 	movweq	r0, #1290	; 0x50a
    178c:	3b0b3a0e 	blcc	2cffcc <__bss_end__+0x2c4a44>
    1790:	490b390b 	stmdbmi	fp, {r0, r1, r3, r8, fp, ip, sp}
    1794:	00180213 	andseq	r0, r8, r3, lsl r2
    1798:	00050b00 	andeq	r0, r5, r0, lsl #22
    179c:	0b3a0803 	bleq	e837b0 <__bss_end__+0xe78228>
    17a0:	0b390b3b 	bleq	e44494 <__bss_end__+0xe38f0c>
    17a4:	17021349 	strne	r1, [r2, -r9, asr #6]
    17a8:	001742b7 			; <UNDEFINED> instruction: 0x001742b7
    17ac:	00340c00 	eorseq	r0, r4, r0, lsl #24
    17b0:	0b3a0803 	bleq	e837c4 <__bss_end__+0xe7823c>
    17b4:	0b390b3b 	bleq	e444a8 <__bss_end__+0xe38f20>
    17b8:	17021349 	strne	r1, [r2, -r9, asr #6]
    17bc:	001742b7 			; <UNDEFINED> instruction: 0x001742b7
    17c0:	11010000 	mrsne	r0, (UNDEF: 1)
    17c4:	130e2501 	movwne	r2, #58625	; 0xe501
    17c8:	1b0e030b 	blne	3823fc <__bss_end__+0x376e74>
    17cc:	1201110e 	andne	r1, r1, #-2147483645	; 0x80000003
    17d0:	00171006 	andseq	r1, r7, r6
    17d4:	00240200 	eoreq	r0, r4, r0, lsl #4
    17d8:	0b3e0b0b 	bleq	f8440c <__bss_end__+0xf78e84>
    17dc:	00000803 	andeq	r0, r0, r3, lsl #16
    17e0:	0b002403 	bleq	a7f4 <int_readings+0x66c>
    17e4:	030b3e0b 	movweq	r3, #48651	; 0xbe0b
    17e8:	0400000e 	streq	r0, [r0], #-14
    17ec:	19270115 	stmdbne	r7!, {r0, r2, r4, r8}
    17f0:	13011349 	movwne	r1, #4937	; 0x1349
    17f4:	05050000 	streq	r0, [r5, #-0]
    17f8:	00134900 	andseq	r4, r3, r0, lsl #18
    17fc:	00340600 	eorseq	r0, r4, r0, lsl #12
    1800:	0b3a0e03 	bleq	e85014 <__bss_end__+0xe79a8c>
    1804:	0b390b3b 	bleq	e444f8 <__bss_end__+0xe38f70>
    1808:	193f1349 	ldmdbne	pc!, {r0, r3, r6, r8, r9, ip}	; <UNPREDICTABLE>
    180c:	0000193c 	andeq	r1, r0, ip, lsr r9
    1810:	0b000f07 	bleq	5434 <__code_start__-0x2bcc>
    1814:	0013490b 	andseq	r4, r3, fp, lsl #18
    1818:	00260800 	eoreq	r0, r6, r0, lsl #16
    181c:	00001349 	andeq	r1, r0, r9, asr #6
    1820:	3f012e09 	svccc	0x00012e09
    1824:	3a0e0319 	bcc	382490 <__bss_end__+0x376f08>
    1828:	390b3b0b 	stmdbcc	fp, {r0, r1, r3, r8, r9, fp, ip, sp}
    182c:	4919270b 	ldmdbmi	r9, {r0, r1, r3, r8, r9, sl, sp}
    1830:	12011113 	andne	r1, r1, #-1073741820	; 0xc0000004
    1834:	97184006 	ldrls	r4, [r8, -r6]
    1838:	00001942 	andeq	r1, r0, r2, asr #18
    183c:	0300050a 	movweq	r0, #1290	; 0x50a
    1840:	3b0b3a08 	blcc	2d0068 <__bss_end__+0x2c4ae0>
    1844:	490b390b 	stmdbmi	fp, {r0, r1, r3, r8, fp, ip, sp}
    1848:	b7170213 			; <UNDEFINED> instruction: 0xb7170213
    184c:	00001742 	andeq	r1, r0, r2, asr #14
    1850:	01110100 	tsteq	r1, r0, lsl #2
    1854:	0b130e25 	bleq	4c50f0 <__bss_end__+0x4b9b68>
    1858:	0e1b0e03 	cdpeq	14, 1, cr0, cr11, cr3, {0}
    185c:	06120111 			; <UNDEFINED> instruction: 0x06120111
    1860:	00001710 	andeq	r1, r0, r0, lsl r7
    1864:	0b002402 	bleq	a874 <int_readings+0x6ec>
    1868:	030b3e0b 	movweq	r3, #48651	; 0xbe0b
    186c:	03000008 	movweq	r0, #8
    1870:	0b0b0024 	bleq	2c1908 <__bss_end__+0x2b6380>
    1874:	0e030b3e 	vmoveq.16	d3[0], r0
    1878:	15040000 	strne	r0, [r4, #-0]
    187c:	49192701 	ldmdbmi	r9, {r0, r8, r9, sl, sp}
    1880:	00130113 	andseq	r0, r3, r3, lsl r1
    1884:	00050500 	andeq	r0, r5, r0, lsl #10
    1888:	00001349 	andeq	r1, r0, r9, asr #6
    188c:	03003406 	movweq	r3, #1030	; 0x406
    1890:	3b0b3a0e 	blcc	2d00d0 <__bss_end__+0x2c4b48>
    1894:	490b390b 	stmdbmi	fp, {r0, r1, r3, r8, fp, ip, sp}
    1898:	3c193f13 	ldccc	15, cr3, [r9], {19}
    189c:	07000019 	smladeq	r0, r9, r0, r0
    18a0:	0b0b000f 	bleq	2c18e4 <__bss_end__+0x2b635c>
    18a4:	00001349 	andeq	r1, r0, r9, asr #6
    18a8:	49002608 	stmdbmi	r0, {r3, r9, sl, sp}
    18ac:	09000013 	stmdbeq	r0, {r0, r1, r4}
    18b0:	193f012e 	ldmdbne	pc!, {r1, r2, r3, r5, r8}	; <UNPREDICTABLE>
    18b4:	0b3a0e03 	bleq	e850c8 <__bss_end__+0xe79b40>
    18b8:	0b390b3b 	bleq	e445ac <__bss_end__+0xe39024>
    18bc:	13491927 	movtne	r1, #39207	; 0x9927
    18c0:	06120111 			; <UNDEFINED> instruction: 0x06120111
    18c4:	42971840 	addsmi	r1, r7, #64, 16	; 0x400000
    18c8:	00130119 	andseq	r0, r3, r9, lsl r1
    18cc:	00050a00 	andeq	r0, r5, r0, lsl #20
    18d0:	0b3a0803 	bleq	e838e4 <__bss_end__+0xe7835c>
    18d4:	0b390b3b 	bleq	e445c8 <__bss_end__+0xe39040>
    18d8:	18021349 	stmdane	r2, {r0, r3, r6, r8, r9, ip}
    18dc:	050b0000 	streq	r0, [fp, #-0]
    18e0:	3a080300 	bcc	2024e8 <__bss_end__+0x1f6f60>
    18e4:	390b3b0b 	stmdbcc	fp, {r0, r1, r3, r8, r9, fp, ip, sp}
    18e8:	0213490b 	andseq	r4, r3, #180224	; 0x2c000
    18ec:	1742b717 	smlaldne	fp, r2, r7, r7
    18f0:	340c0000 	strcc	r0, [ip], #-0
    18f4:	3a080300 	bcc	2024fc <__bss_end__+0x1f6f74>
    18f8:	390b3b0b 	stmdbcc	fp, {r0, r1, r3, r8, r9, fp, ip, sp}
    18fc:	0213490b 	andseq	r4, r3, #180224	; 0x2c000
    1900:	1742b717 	smlaldne	fp, r2, r7, r7
    1904:	01000000 	mrseq	r0, (UNDEF: 0)
    1908:	0e250111 	mcreq	1, 1, r0, cr5, cr1, {0}
    190c:	0e030b13 	vmoveq.32	d3[0], r0
    1910:	17550e1b 	smmlane	r5, fp, lr, r0
    1914:	17100111 			; <UNDEFINED> instruction: 0x17100111
    1918:	24020000 	strcs	r0, [r2], #-0
    191c:	3e0b0b00 	vmlacc.f64	d0, d11, d0
    1920:	0008030b 	andeq	r0, r8, fp, lsl #6
    1924:	00160300 	andseq	r0, r6, r0, lsl #6
    1928:	0b3a0e03 	bleq	e8513c <__bss_end__+0xe79bb4>
    192c:	0b390b3b 	bleq	e44620 <__bss_end__+0xe39098>
    1930:	00001349 	andeq	r1, r0, r9, asr #6
    1934:	0b002404 	bleq	a94c <int_readings+0x7c4>
    1938:	030b3e0b 	movweq	r3, #48651	; 0xbe0b
    193c:	0500000e 	streq	r0, [r0, #-14]
    1940:	13490026 	movtne	r0, #36902	; 0x9026
    1944:	15060000 	strne	r0, [r6, #-0]
    1948:	49192701 	ldmdbmi	r9, {r0, r8, r9, sl, sp}
    194c:	00130113 	andseq	r0, r3, r3, lsl r1
    1950:	00050700 	andeq	r0, r5, r0, lsl #14
    1954:	00001349 	andeq	r1, r0, r9, asr #6
    1958:	03003408 	movweq	r3, #1032	; 0x408
    195c:	3b0b3a0e 	blcc	2d019c <__bss_end__+0x2c4c14>
    1960:	490b390b 	stmdbmi	fp, {r0, r1, r3, r8, fp, ip, sp}
    1964:	3c193f13 	ldccc	15, cr3, [r9], {19}
    1968:	09000019 	stmdbeq	r0, {r0, r3, r4}
    196c:	0b0b000f 	bleq	2c19b0 <__bss_end__+0x2b6428>
    1970:	00001349 	andeq	r1, r0, r9, asr #6
    1974:	3f012e0a 	svccc	0x00012e0a
    1978:	3a0e0319 	bcc	3825e4 <__bss_end__+0x37705c>
    197c:	390b3b0b 	stmdbcc	fp, {r0, r1, r3, r8, r9, fp, ip, sp}
    1980:	4919270b 	ldmdbmi	r9, {r0, r1, r3, r8, r9, sl, sp}
    1984:	12011113 	andne	r1, r1, #-1073741820	; 0xc0000004
    1988:	97184006 	ldrls	r4, [r8, -r6]
    198c:	13011942 	movwne	r1, #6466	; 0x1942
    1990:	050b0000 	streq	r0, [fp, #-0]
    1994:	3a080300 	bcc	20259c <__bss_end__+0x1f7014>
    1998:	390b3b0b 	stmdbcc	fp, {r0, r1, r3, r8, r9, fp, ip, sp}
    199c:	0213490b 	andseq	r4, r3, #180224	; 0x2c000
    19a0:	1742b717 	smlaldne	fp, r2, r7, r7
    19a4:	340c0000 	strcc	r0, [ip], #-0
    19a8:	3a080300 	bcc	2025b0 <__bss_end__+0x1f7028>
    19ac:	390b3b0b 	stmdbcc	fp, {r0, r1, r3, r8, r9, fp, ip, sp}
    19b0:	0213490b 	andseq	r4, r3, #180224	; 0x2c000
    19b4:	1742b717 	smlaldne	fp, r2, r7, r7
    19b8:	01000000 	mrseq	r0, (UNDEF: 0)
    19bc:	0e250111 	mcreq	1, 1, r0, cr5, cr1, {0}
    19c0:	0e030b13 	vmoveq.32	d3[0], r0
    19c4:	01110e1b 	tsteq	r1, fp, lsl lr
    19c8:	17100612 			; <UNDEFINED> instruction: 0x17100612
    19cc:	24020000 	strcs	r0, [r2], #-0
    19d0:	3e0b0b00 	vmlacc.f64	d0, d11, d0
    19d4:	0008030b 	andeq	r0, r8, fp, lsl #6
    19d8:	00240300 	eoreq	r0, r4, r0, lsl #6
    19dc:	0b3e0b0b 	bleq	f84610 <__bss_end__+0xf79088>
    19e0:	00000e03 	andeq	r0, r0, r3, lsl #28
    19e4:	27011504 	strcs	r1, [r1, -r4, lsl #10]
    19e8:	01134919 	tsteq	r3, r9, lsl r9
    19ec:	05000013 	streq	r0, [r0, #-19]	; 0xffffffed
    19f0:	13490005 	movtne	r0, #36869	; 0x9005
    19f4:	34060000 	strcc	r0, [r6], #-0
    19f8:	3a0e0300 	bcc	382600 <__bss_end__+0x377078>
    19fc:	390b3b0b 	stmdbcc	fp, {r0, r1, r3, r8, r9, fp, ip, sp}
    1a00:	3f13490b 	svccc	0x0013490b
    1a04:	00193c19 	andseq	r3, r9, r9, lsl ip
    1a08:	000f0700 	andeq	r0, pc, r0, lsl #14
    1a0c:	13490b0b 	movtne	r0, #39691	; 0x9b0b
    1a10:	26080000 	strcs	r0, [r8], -r0
    1a14:	00134900 	andseq	r4, r3, r0, lsl #18
    1a18:	002e0900 	eoreq	r0, lr, r0, lsl #18
    1a1c:	0e03193f 			; <UNDEFINED> instruction: 0x0e03193f
    1a20:	0b3b0b3a 	bleq	ec4710 <__bss_end__+0xeb9188>
    1a24:	19270b39 	stmdbne	r7!, {r0, r3, r4, r5, r8, r9, fp}
    1a28:	06120111 			; <UNDEFINED> instruction: 0x06120111
    1a2c:	42971840 	addsmi	r1, r7, #64, 16	; 0x400000
    1a30:	00000019 	andeq	r0, r0, r9, lsl r0

Disassembly of section .debug_loc:

00000000 <.debug_loc>:
       0:	00000002 	andeq	r0, r0, r2
       4:	00000810 	andeq	r0, r0, r0, lsl r8
       8:	00000814 	andeq	r0, r0, r4, lsl r8
       c:	9f300002 	svcls	0x00300002
      10:	00000814 	andeq	r0, r0, r4, lsl r8
      14:	00000850 	andeq	r0, r0, r0, asr r8
      18:	00540001 	subseq	r0, r4, r1
	...
      28:	24000000 	strcs	r0, [r0], #-0
      2c:	28000008 	stmdacs	r0, {r3}
      30:	08000008 	stmdaeq	r0, {r3}
      34:	33007100 	movwcc	r7, #256	; 0x100
      38:	1c007424 	cfstrsne	mvf7, [r0], {36}	; 0x24
      3c:	0008289f 	muleq	r8, pc, r8	; <UNPREDICTABLE>
      40:	00082f00 	andeq	r2, r8, r0, lsl #30
      44:	51000100 	mrspl	r0, (UNDEF: 16)
      48:	0000082f 	andeq	r0, r0, pc, lsr #16
      4c:	00000848 	andeq	r0, r0, r8, asr #16
      50:	00740012 	rsbseq	r0, r4, r2, lsl r0
      54:	00742436 	rsbseq	r2, r4, r6, lsr r4
      58:	74243122 	strtvc	r3, [r4], #-290	; 0xfffffede
      5c:	24332200 	ldrtcs	r2, [r3], #-512	; 0xfffffe00
      60:	9f1c0074 	svcls	0x001c0074
      64:	00000848 	andeq	r0, r0, r8, asr #16
      68:	00000850 	andeq	r0, r0, r0, asr r8
      6c:	7f740016 	svcvc	0x00740016
      70:	24367f74 	ldrtcs	r7, [r6], #-3956	; 0xfffff08c
      74:	74243122 	strtvc	r3, [r4], #-290	; 0xfffffede
      78:	1c312200 	lfmne	f2, 4, [r1], #-0
      7c:	00742433 	rsbseq	r2, r4, r3, lsr r4
      80:	9f01231c 	svcls	0x0001231c
	...
      8c:	07840000 	streq	r0, [r4, r0]
      90:	07a80000 	streq	r0, [r8, r0]!
      94:	00010000 	andeq	r0, r1, r0
      98:	00000054 	andeq	r0, r0, r4, asr r0
	...
      a4:	00079800 	andeq	r9, r7, r0, lsl #16
      a8:	0007a400 	andeq	sl, r7, r0, lsl #8
      ac:	50000100 	andpl	r0, r0, r0, lsl #2
      b0:	000007a4 	andeq	r0, r0, r4, lsr #15
      b4:	000007a7 	andeq	r0, r0, r7, lsr #15
      b8:	00510001 	subseq	r0, r1, r1
	...
      c4:	dc000000 	stcle	0, cr0, [r0], {-0}
      c8:	e0000006 	and	r0, r0, r6
      cc:	01000006 	tsteq	r0, r6
      d0:	06e05000 	strbteq	r5, [r0], r0
      d4:	06f40000 	ldrbteq	r0, [r4], r0
      d8:	00010000 	andeq	r0, r1, r0
      dc:	00000054 	andeq	r0, r0, r4, asr r0
	...
      e8:	f4000000 	vst4.8	{d0-d3}, [r0], r0
      ec:	fc000006 	stc2	0, cr0, [r0], {6}
      f0:	01000006 	tsteq	r0, r6
      f4:	06fc5000 	ldrbteq	r5, [ip], r0
      f8:	06ff0000 	ldrbteq	r0, [pc], r0
      fc:	00010000 	andeq	r0, r1, r0
     100:	0006ff51 	andeq	pc, r6, r1, asr pc	; <UNPREDICTABLE>
     104:	00073000 	andeq	r3, r7, r0
     108:	54000100 	strpl	r0, [r0], #-256	; 0xffffff00
	...
     118:	00000708 	andeq	r0, r0, r8, lsl #14
     11c:	00000714 	andeq	r0, r0, r4, lsl r7
     120:	14500001 	ldrbne	r0, [r0], #-1
     124:	17000007 	strne	r0, [r0, -r7]
     128:	01000007 	tsteq	r0, r7
     12c:	00005100 	andeq	r5, r0, r0, lsl #2
	...
     138:	061c0000 	ldreq	r0, [ip], -r0
     13c:	06230000 	strteq	r0, [r3], -r0
     140:	00010000 	andeq	r0, r1, r0
     144:	00062350 	andeq	r2, r6, r0, asr r3
     148:	0006a000 	andeq	sl, r6, r0
     14c:	f3000400 	vshl.u8	d0, d0, d0
     150:	009f5001 	addseq	r5, pc, r1
	...
     15c:	28000000 	stmdacs	r0, {}	; <UNPREDICTABLE>
     160:	2c000006 	stccs	0, cr0, [r0], {6}
     164:	01000006 	tsteq	r0, r6
     168:	062c5000 	strteq	r5, [ip], -r0
     16c:	06a00000 	strteq	r0, [r0], r0
     170:	00010000 	andeq	r0, r1, r0
     174:	00000055 	andeq	r0, r0, r5, asr r0
	...
     180:	00063400 	andeq	r3, r6, r0, lsl #8
     184:	00063800 	andeq	r3, r6, r0, lsl #16
     188:	50000100 	andpl	r0, r0, r0, lsl #2
     18c:	00000638 	andeq	r0, r0, r8, lsr r6
     190:	000006a0 	andeq	r0, r0, r0, lsr #13
     194:	00540001 	subseq	r0, r4, r1
	...
     1a0:	00066000 	andeq	r6, r6, r0
     1a4:	00069000 	andeq	r9, r6, r0
     1a8:	52000100 	andpl	r0, r0, #0
	...
     1b8:	00000600 	andeq	r0, r0, r0, lsl #12
     1bc:	00000608 	andeq	r0, r0, r8, lsl #12
     1c0:	08500001 	ldmdaeq	r0, {r0}^
     1c4:	1c000006 	stcne	0, cr0, [r0], {6}
     1c8:	04000006 	streq	r0, [r0], #-6
     1cc:	5001f300 	andpl	pc, r1, r0, lsl #6
     1d0:	0000009f 	muleq	r0, pc, r0	; <UNPREDICTABLE>
	...
     1dc:	00010400 	andeq	r0, r1, r0, lsl #8
     1e0:	00011800 	andeq	r1, r1, r0, lsl #16
     1e4:	50000100 	andpl	r0, r0, r0, lsl #2
     1e8:	00000118 	andeq	r0, r0, r8, lsl r1
     1ec:	00000168 	andeq	r0, r0, r8, ror #2
     1f0:	00570001 	subseq	r0, r7, r1
	...
     1fc:	04000000 	streq	r0, [r0], #-0
     200:	18000001 	stmdane	r0, {r0}
     204:	01000001 	tsteq	r0, r1
     208:	01185100 	tsteq	r8, r0, lsl #2
     20c:	01680000 	cmneq	r8, r0
     210:	00010000 	andeq	r0, r1, r0
     214:	00000058 	andeq	r0, r0, r8, asr r0
	...
     220:	00010400 	andeq	r0, r1, r0, lsl #8
     224:	00011800 	andeq	r1, r1, r0, lsl #16
     228:	52000100 	andpl	r0, r0, #0
     22c:	00000118 	andeq	r0, r0, r8, lsl r1
     230:	00000168 	andeq	r0, r0, r8, ror #2
     234:	00590001 	subseq	r0, r9, r1
     238:	00000000 	andeq	r0, r0, r0
     23c:	01000000 	mrseq	r0, (UNDEF: 0)
     240:	14000000 	strne	r0, [r0], #-0
     244:	18000001 	stmdane	r0, {r0}
     248:	02000001 	andeq	r0, r0, #1, 0
     24c:	189f3000 	ldmne	pc, {ip, sp}	; <UNPREDICTABLE>
     250:	68000001 	stmdavs	r0, {r0}
     254:	01000001 	tsteq	r0, r1
     258:	00005500 	andeq	r5, r0, r0, lsl #10
	...
     268:	00000130 	andeq	r0, r0, r0, lsr r1
     26c:	0000013c 	andeq	r0, r0, ip, lsr r1
     270:	3c500001 	mrrccc	0, 0, r0, r0, cr1	; <UNPREDICTABLE>
     274:	3f000001 	svccc	0x00000001
     278:	01000001 	tsteq	r0, r1
     27c:	013f5100 	teqeq	pc, r0, lsl #2
     280:	015c0000 	cmpeq	ip, r0
     284:	00010000 	andeq	r0, r1, r0
     288:	00000054 	andeq	r0, r0, r4, asr r0
     28c:	00000000 	andeq	r0, r0, r0
     290:	40000000 	andmi	r0, r0, r0
     294:	5c000001 	stcpl	0, cr0, [r0], {1}
     298:	01000001 	tsteq	r0, r1
     29c:	00005000 	andeq	r5, r0, r0
	...
     2ac:	000004d4 	ldrdeq	r0, [r0], -r4
     2b0:	000004e8 	andeq	r0, r0, r8, ror #9
     2b4:	e8500001 	ldmda	r0, {r0}^
     2b8:	e0000004 	and	r0, r0, r4
     2bc:	01000005 	tsteq	r0, r5
     2c0:	05e05600 	strbeq	r5, [r0, #1536]!	; 0x600
     2c4:	06000000 	streq	r0, [r0], -r0
     2c8:	00040000 	andeq	r0, r4, r0
     2cc:	9f5001f3 	svcls	0x005001f3
	...
     2dc:	04d40000 	ldrbeq	r0, [r4], #0
     2e0:	04eb0000 	strbteq	r0, [fp], #0
     2e4:	00010000 	andeq	r0, r1, r0
     2e8:	0004eb51 	andeq	lr, r4, r1, asr fp
     2ec:	0005e000 	andeq	lr, r5, r0
     2f0:	57000100 	strpl	r0, [r0, -r0, lsl #2]
     2f4:	000005e0 	andeq	r0, r0, r0, ror #11
     2f8:	00000600 	andeq	r0, r0, r0, lsl #12
     2fc:	01f30004 	mvnseq	r0, r4
     300:	00009f51 	andeq	r9, r0, r1, asr pc
	...
     310:	04f80000 	ldrbteq	r0, [r8], #0
     314:	05080000 	streq	r0, [r8, #-0]
     318:	00010000 	andeq	r0, r1, r0
     31c:	00050850 	andeq	r0, r5, r0, asr r8
     320:	00052000 	andeq	r2, r5, r0
     324:	54000100 	strpl	r0, [r0], #-256	; 0xffffff00
     328:	00000520 	andeq	r0, r0, r0, lsr #10
     32c:	00000538 	andeq	r0, r0, r8, lsr r5
     330:	38500001 	ldmdacc	r0, {r0}^
     334:	40000005 	andmi	r0, r0, r5
     338:	01000005 	tsteq	r0, r5
     33c:	00005400 	andeq	r5, r0, r0, lsl #8
     340:	00000000 	andeq	r0, r0, r0
     344:	00010000 	andeq	r0, r1, r0
	...
     350:	00000518 	andeq	r0, r0, r8, lsl r5
     354:	00000520 	andeq	r0, r0, r0, lsr #10
     358:	9f300002 	svcls	0x00300002
     35c:	00000540 	andeq	r0, r0, r0, asr #10
     360:	00000578 	andeq	r0, r0, r8, ror r5
     364:	78580001 	ldmdavc	r8, {r0}^
     368:	7c000005 	stcvc	0, cr0, [r0], {5}
     36c:	01000005 	tsteq	r0, r5
     370:	057c5000 	ldrbeq	r5, [ip, #-0]!
     374:	05e00000 	strbeq	r0, [r0, #0]!
     378:	00010000 	andeq	r0, r1, r0
     37c:	0005e058 	andeq	lr, r5, r8, asr r0
     380:	00060000 	andeq	r0, r6, r0
     384:	50000100 	andpl	r0, r0, r0, lsl #2
	...
     390:	00000003 	andeq	r0, r0, r3
     394:	00000518 	andeq	r0, r0, r8, lsl r5
     398:	00000520 	andeq	r0, r0, r0, lsr #10
     39c:	40540001 	subsmi	r0, r4, r1
     3a0:	e0000005 	and	r0, r0, r5
     3a4:	01000005 	tsteq	r0, r5
     3a8:	00005400 	andeq	r5, r0, r0, lsl #8
	...
     3bc:	03a80000 			; <UNDEFINED> instruction: 0x03a80000
     3c0:	03c00000 	biceq	r0, r0, #0, 0
     3c4:	00010000 	andeq	r0, r1, r0
     3c8:	0003c050 	andeq	ip, r3, r0, asr r0
     3cc:	0003cc00 	andeq	ip, r3, r0, lsl #24
     3d0:	55000100 	strpl	r0, [r0, #-256]	; 0xffffff00
     3d4:	000003cc 	andeq	r0, r0, ip, asr #7
     3d8:	000003e4 	andeq	r0, r0, r4, ror #7
     3dc:	e4500001 	ldrb	r0, [r0], #-1
     3e0:	ec000003 	stc	0, cr0, [r0], {3}
     3e4:	04000003 	streq	r0, [r0], #-3
     3e8:	5001f300 	andpl	pc, r1, r0, lsl #6
     3ec:	0003ec9f 	muleq	r3, pc, ip	; <UNPREDICTABLE>
     3f0:	00046000 	andeq	r6, r4, r0
     3f4:	55000100 	strpl	r0, [r0, #-256]	; 0xffffff00
     3f8:	00000460 	andeq	r0, r0, r0, ror #8
     3fc:	00000480 	andeq	r0, r0, r0, lsl #9
     400:	01f30004 	mvnseq	r0, r4
     404:	00009f50 	andeq	r9, r0, r0, asr pc
	...
     418:	000003a8 	andeq	r0, r0, r8, lsr #7
     41c:	000003c3 	andeq	r0, r0, r3, asr #7
     420:	c3510001 	cmpgt	r1, #1, 0
     424:	cc000003 	stcgt	0, cr0, [r0], {3}
     428:	01000003 	tsteq	r0, r3
     42c:	03cc5600 	biceq	r5, ip, #0, 12
     430:	03e00000 	mvneq	r0, #0, 0
     434:	00010000 	andeq	r0, r1, r0
     438:	0003e051 	andeq	lr, r3, r1, asr r0
     43c:	00046000 	andeq	r6, r4, r0
     440:	56000100 	strpl	r0, [r0], -r0, lsl #2
     444:	00000460 	andeq	r0, r0, r0, ror #8
     448:	00000480 	andeq	r0, r0, r0, lsl #9
     44c:	01f30004 	mvnseq	r0, r4
     450:	00009f51 	andeq	r9, r0, r1, asr pc
     454:	00000000 	andeq	r0, r0, r0
     458:	00020000 	andeq	r0, r2, r0
     45c:	03c40000 	biceq	r0, r4, #0, 0
     460:	03cc0000 	biceq	r0, ip, #0, 0
     464:	00020000 	andeq	r0, r2, r0
     468:	03ec9f30 	mvneq	r9, #48, 30	; 0xc0
     46c:	04600000 	strbteq	r0, [r0], #-0
     470:	00010000 	andeq	r0, r1, r0
     474:	00000054 	andeq	r0, r0, r4, asr r0
	...
     484:	00048000 	andeq	r8, r4, r0
     488:	0004a000 	andeq	sl, r4, r0
     48c:	50000100 	andpl	r0, r0, r0, lsl #2
     490:	000004a0 	andeq	r0, r0, r0, lsr #9
     494:	000004c8 	andeq	r0, r0, r8, asr #9
     498:	c8560001 	ldmdagt	r6, {r0}^
     49c:	cc000004 	stcgt	0, cr0, [r0], {4}
     4a0:	01000004 	tsteq	r0, r4
     4a4:	04cc5000 	strbeq	r5, [ip], #0
     4a8:	04d40000 	ldrbeq	r0, [r4], #0
     4ac:	00040000 	andeq	r0, r4, r0
     4b0:	9f5001f3 	svcls	0x005001f3
	...
     4c4:	00000480 	andeq	r0, r0, r0, lsl #9
     4c8:	000004a0 	andeq	r0, r0, r0, lsr #9
     4cc:	a0510001 	subsge	r0, r1, r1
     4d0:	c8000004 	stmdagt	r0, {r2}
     4d4:	01000004 	tsteq	r0, r4
     4d8:	04c85500 	strbeq	r5, [r8], #1280	; 0x500
     4dc:	04cc0000 	strbeq	r0, [ip], #0
     4e0:	00010000 	andeq	r0, r1, r0
     4e4:	0004cc51 	andeq	ip, r4, r1, asr ip
     4e8:	0004d400 	andeq	sp, r4, r0, lsl #8
     4ec:	f3000400 	vshl.u8	d0, d0, d0
     4f0:	009f5101 	addseq	r5, pc, r1, lsl #2
	...
     4fc:	0004a000 	andeq	sl, r4, r0
     500:	0004c800 	andeq	ip, r4, r0, lsl #16
     504:	57000100 	strpl	r0, [r0, -r0, lsl #2]
	...
     510:	04a00000 	strteq	r0, [r0], #0
     514:	04c80000 	strbeq	r0, [r8], #0
     518:	00010000 	andeq	r0, r1, r0
     51c:	00000054 	andeq	r0, r0, r4, asr r0
	...
     538:	00033800 	andeq	r3, r3, r0, lsl #16
     53c:	00038000 	andeq	r8, r3, r0
     540:	50000100 	andpl	r0, r0, r0, lsl #2
     544:	00000380 	andeq	r0, r0, r0, lsl #7
     548:	00000384 	andeq	r0, r0, r4, lsl #7
     54c:	01f30004 	mvnseq	r0, r4
     550:	03849f50 	orreq	r9, r4, #80, 30	; 0x140
     554:	03880000 	orreq	r0, r8, #0, 0
     558:	00010000 	andeq	r0, r1, r0
     55c:	00038850 	andeq	r8, r3, r0, asr r8
     560:	00038c00 	andeq	r8, r3, r0, lsl #24
     564:	f3000400 	vshl.u8	d0, d0, d0
     568:	8c9f5001 	ldchi	0, cr5, [pc], {1}
     56c:	90000003 	andls	r0, r0, r3
     570:	01000003 	tsteq	r0, r3
     574:	03905000 	orrseq	r5, r0, #0, 0
     578:	03940000 	orrseq	r0, r4, #0, 0
     57c:	00040000 	andeq	r0, r4, r0
     580:	9f5001f3 	svcls	0x005001f3
     584:	00000394 	muleq	r0, r4, r3
     588:	00000398 	muleq	r0, r8, r3
     58c:	98500001 	ldmdals	r0, {r0}^
     590:	9c000003 	stcls	0, cr0, [r0], {3}
     594:	04000003 	streq	r0, [r0], #-3
     598:	5001f300 	andpl	pc, r1, r0, lsl #6
     59c:	00039c9f 	muleq	r3, pc, ip	; <UNPREDICTABLE>
     5a0:	0003a000 	andeq	sl, r3, r0
     5a4:	50000100 	andpl	r0, r0, r0, lsl #2
     5a8:	000003a0 	andeq	r0, r0, r0, lsr #7
     5ac:	000003a8 	andeq	r0, r0, r8, lsr #7
     5b0:	01f30004 	mvnseq	r0, r4
     5b4:	00009f50 	andeq	r9, r0, r0, asr pc
	...
     5c4:	03380000 	teqeq	r8, #0, 0
     5c8:	035c0000 	cmpeq	ip, #0, 0
     5cc:	00010000 	andeq	r0, r1, r0
     5d0:	00035c51 	andeq	r5, r3, r1, asr ip
     5d4:	00038400 	andeq	r8, r3, r0, lsl #8
     5d8:	71000300 	mrsvc	r0, LR_irq
     5dc:	03849f7f 	orreq	r9, r4, #508	; 0x1fc
     5e0:	03940000 	orrseq	r0, r4, #0, 0
     5e4:	00010000 	andeq	r0, r1, r0
     5e8:	00039451 	andeq	r9, r3, r1, asr r4
     5ec:	0003a800 	andeq	sl, r3, r0, lsl #16
     5f0:	71000300 	mrsvc	r0, LR_irq
     5f4:	00009f7f 	andeq	r9, r0, pc, ror pc
	...
     600:	000c0000 	andeq	r0, ip, r0
     604:	00180000 	andseq	r0, r8, r0
     608:	00010000 	andeq	r0, r1, r0
     60c:	00001850 	andeq	r1, r0, r0, asr r8
     610:	00004c00 	andeq	r4, r0, r0, lsl #24
     614:	54000100 	strpl	r0, [r0], #-256	; 0xffffff00
	...
     628:	0000004c 	andeq	r0, r0, ip, asr #32
     62c:	0000006c 	andeq	r0, r0, ip, rrx
     630:	6c500001 	mrrcvs	0, 0, r0, r0, cr1	; <UNPREDICTABLE>
     634:	90000000 	andls	r0, r0, r0
     638:	04000000 	streq	r0, [r0], #-0
     63c:	5001f300 	andpl	pc, r1, r0, lsl #6
     640:	0000909f 	muleq	r0, pc, r0	; <UNPREDICTABLE>
     644:	0000a800 	andeq	sl, r0, r0, lsl #16
     648:	50000100 	andpl	r0, r0, r0, lsl #2
     64c:	000000a8 	andeq	r0, r0, r8, lsr #1
     650:	000000c0 	andeq	r0, r0, r0, asr #1
     654:	01f30004 	mvnseq	r0, r4
     658:	00009f50 	andeq	r9, r0, r0, asr pc
	...
     668:	004c0000 	subeq	r0, ip, r0
     66c:	006f0000 	rsbeq	r0, pc, r0
     670:	00010000 	andeq	r0, r1, r0
     674:	00006f51 	andeq	r6, r0, r1, asr pc
     678:	00009000 	andeq	r9, r0, r0
     67c:	f3000400 	vshl.u8	d0, d0, d0
     680:	909f5101 	addsls	r5, pc, r1, lsl #2
     684:	a4000000 	strge	r0, [r0], #-0
     688:	01000000 	mrseq	r0, (UNDEF: 0)
     68c:	00a45100 	adceq	r5, r4, r0, lsl #2
     690:	00c00000 	sbceq	r0, r0, r0
     694:	00040000 	andeq	r0, r4, r0
     698:	9f5101f3 	svcls	0x005101f3
	...
     6ac:	0000004c 	andeq	r0, r0, ip, asr #32
     6b0:	0000006f 	andeq	r0, r0, pc, rrx
     6b4:	6f520001 	svcvs	0x00520001
     6b8:	90000000 	andls	r0, r0, r0
     6bc:	01000000 	mrseq	r0, (UNDEF: 0)
     6c0:	00905400 	addseq	r5, r0, r0, lsl #8
     6c4:	00a00000 	adceq	r0, r0, r0
     6c8:	00010000 	andeq	r0, r1, r0
     6cc:	0000a052 	andeq	sl, r0, r2, asr r0
     6d0:	0000c000 	andeq	ip, r0, r0
     6d4:	f3000400 	vshl.u8	d0, d0, d0
     6d8:	009f5201 	addseq	r5, pc, r1, lsl #4
	...
     6e4:	00006800 	andeq	r6, r0, r0, lsl #16
     6e8:	00009000 	andeq	r9, r0, r0
     6ec:	56000100 	strpl	r0, [r0], -r0, lsl #2
	...
     6fc:	00000074 	andeq	r0, r0, r4, ror r0
     700:	00000078 	andeq	r0, r0, r8, ror r0
     704:	78500001 	ldmdavc	r0, {r0}^
     708:	90000000 	andls	r0, r0, r0
     70c:	01000000 	mrseq	r0, (UNDEF: 0)
     710:	00005500 	andeq	r5, r0, r0, lsl #10
	...
     71c:	0000007c 	andeq	r0, r0, ip, ror r0
     720:	00000084 	andeq	r0, r0, r4, lsl #1
     724:	00500001 	subseq	r0, r0, r1
	...
     734:	08000000 	stmdaeq	r0, {}	; <UNPREDICTABLE>
     738:	01000000 	mrseq	r0, (UNDEF: 0)
     73c:	00085000 	andeq	r5, r8, r0
     740:	000c0000 	andeq	r0, ip, r0
     744:	00040000 	andeq	r0, r4, r0
     748:	9f5001f3 	svcls	0x005001f3
	...
     758:	000000c0 	andeq	r0, r0, r0, asr #1
     75c:	000000cf 	andeq	r0, r0, pc, asr #1
     760:	cf500001 	svcgt	0x00500001
     764:	04000000 	streq	r0, [r0], #-0
     768:	04000001 	streq	r0, [r0], #-1
     76c:	5001f300 	andpl	pc, r1, r0, lsl #6
     770:	0000009f 	muleq	r0, pc, r0	; <UNPREDICTABLE>
	...
     77c:	0000c000 	andeq	ip, r0, r0
     780:	0000cf00 	andeq	ip, r0, r0, lsl #30
     784:	51000100 	mrspl	r0, (UNDEF: 16)
     788:	000000cf 	andeq	r0, r0, pc, asr #1
     78c:	00000104 	andeq	r0, r0, r4, lsl #2
     790:	00570001 	subseq	r0, r7, r1
	...
     79c:	c0000000 	andgt	r0, r0, r0
     7a0:	cf000000 	svcgt	0x00000000
     7a4:	01000000 	mrseq	r0, (UNDEF: 0)
     7a8:	00cf5200 	sbceq	r5, pc, r0, lsl #4
     7ac:	01040000 	mrseq	r0, (UNDEF: 4)
     7b0:	00010000 	andeq	r0, r1, r0
     7b4:	00000056 	andeq	r0, r0, r6, asr r0
     7b8:	00000000 	andeq	r0, r0, r0
     7bc:	d4000000 	strle	r0, [r0], #-0
     7c0:	04000000 	streq	r0, [r0], #-0
     7c4:	01000001 	tsteq	r0, r1
     7c8:	00005500 	andeq	r5, r0, r0, lsl #10
	...
     7d4:	00d80000 	sbcseq	r0, r8, r0
     7d8:	00e80000 	rsceq	r0, r8, r0
     7dc:	00010000 	andeq	r0, r1, r0
     7e0:	0000fc50 	andeq	pc, r0, r0, asr ip	; <UNPREDICTABLE>
     7e4:	00010000 	andeq	r0, r1, r0
     7e8:	50000100 	andpl	r0, r0, r0, lsl #2
	...
     7f8:	000001b0 			; <UNDEFINED> instruction: 0x000001b0
     7fc:	000001c7 	andeq	r0, r0, r7, asr #3
     800:	c7500001 	ldrbgt	r0, [r0, -r1]
     804:	18000001 	stmdane	r0, {r0}
     808:	01000002 	tsteq	r0, r2
     80c:	00005600 	andeq	r5, r0, r0, lsl #12
	...
     818:	01b00000 	movseq	r0, r0
     81c:	01c40000 	biceq	r0, r4, r0
     820:	00010000 	andeq	r0, r1, r0
     824:	0001c451 	andeq	ip, r1, r1, asr r4
     828:	00021800 	andeq	r1, r2, r0, lsl #16
     82c:	55000100 	strpl	r0, [r0, #-256]	; 0xffffff00
	...
     838:	00000002 	andeq	r0, r0, r2
     83c:	000001d0 	ldrdeq	r0, [r0], -r0	; <UNPREDICTABLE>
     840:	000001d8 	ldrdeq	r0, [r0], -r8
     844:	9f4f0002 	svcls	0x004f0002
     848:	000001d8 	ldrdeq	r0, [r0], -r8
     84c:	00000218 	andeq	r0, r0, r8, lsl r2
     850:	00540001 	subseq	r0, r4, r1
	...
     860:	d8000000 	stmdale	r0, {}	; <UNPREDICTABLE>
     864:	e3000001 	movw	r0, #1
     868:	05000001 	streq	r0, [r0, #-1]
     86c:	31007300 	mrscc	r7, LR_irq
     870:	01e39f1a 	mvneq	r9, sl, lsl pc
     874:	01f00000 	mvnseq	r0, r0
     878:	00080000 	andeq	r0, r8, r0
     87c:	00740075 	rsbseq	r0, r4, r5, ror r0
     880:	9f1a3125 	svcls	0x001a3125
     884:	000001fc 	strdeq	r0, [r0], -ip
     888:	0000020f 	andeq	r0, r0, pc, lsl #4
     88c:	00730005 	rsbseq	r0, r3, r5
     890:	0f9f1a31 	svceq	0x009f1a31
     894:	18000002 	stmdane	r0, {r1}
     898:	08000002 	stmdaeq	r0, {r1}
     89c:	74007500 	strvc	r7, [r0], #-1280	; 0xfffffb00
     8a0:	1a312500 	bne	c49ca8 <__bss_end__+0xc3e720>
     8a4:	0000009f 	muleq	r0, pc, r0	; <UNPREDICTABLE>
	...
     8b0:	00016800 	andeq	r6, r1, r0, lsl #16
     8b4:	00017700 	andeq	r7, r1, r0, lsl #14
     8b8:	50000100 	andpl	r0, r0, r0, lsl #2
     8bc:	00000177 	andeq	r0, r0, r7, ror r1
     8c0:	000001b0 			; <UNDEFINED> instruction: 0x000001b0
     8c4:	00540001 	subseq	r0, r4, r1
	...
     8d0:	68000000 	stmdavs	r0, {}	; <UNPREDICTABLE>
     8d4:	77000001 	strvc	r0, [r0, -r1]
     8d8:	01000001 	tsteq	r0, r1
     8dc:	01775100 	cmneq	r7, r0, lsl #2
     8e0:	01b00000 	movseq	r0, r0
     8e4:	00010000 	andeq	r0, r1, r0
     8e8:	00000056 	andeq	r0, r0, r6, asr r0
     8ec:	00000000 	andeq	r0, r0, r0
     8f0:	7c000000 	stcvc	0, cr0, [r0], {-0}
     8f4:	b0000001 	andlt	r0, r0, r1
     8f8:	01000001 	tsteq	r0, r1
     8fc:	00005500 	andeq	r5, r0, r0, lsl #10
	...
     908:	000001a0 	andeq	r0, r0, r0, lsr #3
     90c:	000001a4 	andeq	r0, r0, r4, lsr #3
     910:	00500001 	subseq	r0, r0, r1
	...
     94c:	18000000 	stmdane	r0, {}	; <UNPREDICTABLE>
     950:	48000002 	stmdami	r0, {r1}
     954:	01000002 	tsteq	r0, r2
     958:	02485000 	subeq	r5, r8, #0, 0
     95c:	024c0000 	subeq	r0, ip, #0, 0
     960:	00040000 	andeq	r0, r4, r0
     964:	9f5001f3 	svcls	0x005001f3
     968:	0000024c 	andeq	r0, r0, ip, asr #4
     96c:	0000026c 	andeq	r0, r0, ip, ror #4
     970:	6c500001 	mrrcvs	0, 0, r0, r0, cr1	; <UNPREDICTABLE>
     974:	70000002 	andvc	r0, r0, r2
     978:	04000002 	streq	r0, [r0], #-2
     97c:	5001f300 	andpl	pc, r1, r0, lsl #6
     980:	0002709f 	muleq	r2, pc, r0	; <UNPREDICTABLE>
     984:	00029400 	andeq	r9, r2, r0, lsl #8
     988:	50000100 	andpl	r0, r0, r0, lsl #2
     98c:	00000294 	muleq	r0, r4, r2
     990:	00000298 	muleq	r0, r8, r2
     994:	01f30004 	mvnseq	r0, r4
     998:	02989f50 	addseq	r9, r8, #80, 30	; 0x140
     99c:	02b80000 	adcseq	r0, r8, #0, 0
     9a0:	00010000 	andeq	r0, r1, r0
     9a4:	0002b850 	andeq	fp, r2, r0, asr r8
     9a8:	0002bc00 	andeq	fp, r2, r0, lsl #24
     9ac:	f3000400 	vshl.u8	d0, d0, d0
     9b0:	bc9f5001 	ldclt	0, cr5, [pc], {1}
     9b4:	c0000002 	andgt	r0, r0, r2
     9b8:	01000002 	tsteq	r0, r2
     9bc:	02c05000 	sbceq	r5, r0, #0, 0
     9c0:	02c40000 	sbceq	r0, r4, #0, 0
     9c4:	00040000 	andeq	r0, r4, r0
     9c8:	9f5001f3 	svcls	0x005001f3
     9cc:	000002c4 	andeq	r0, r0, r4, asr #5
     9d0:	000002c8 	andeq	r0, r0, r8, asr #5
     9d4:	c8500001 	ldmdagt	r0, {r0}^
     9d8:	cc000002 	stcgt	0, cr0, [r0], {2}
     9dc:	04000002 	streq	r0, [r0], #-2
     9e0:	5001f300 	andpl	pc, r1, r0, lsl #6
     9e4:	0002cc9f 	muleq	r2, pc, ip	; <UNPREDICTABLE>
     9e8:	0002d000 	andeq	sp, r2, r0
     9ec:	50000100 	andpl	r0, r0, r0, lsl #2
     9f0:	000002d0 	ldrdeq	r0, [r0], -r0	; <UNPREDICTABLE>
     9f4:	000002d4 	ldrdeq	r0, [r0], -r4
     9f8:	01f30004 	mvnseq	r0, r4
     9fc:	02d49f50 	sbcseq	r9, r4, #80, 30	; 0x140
     a00:	02d80000 	sbcseq	r0, r8, #0, 0
     a04:	00010000 	andeq	r0, r1, r0
     a08:	0002d850 	andeq	sp, r2, r0, asr r8
     a0c:	0002dc00 	andeq	sp, r2, r0, lsl #24
     a10:	f3000400 	vshl.u8	d0, d0, d0
     a14:	dc9f5001 	ldcle	0, cr5, [pc], {1}
     a18:	e0000002 	and	r0, r0, r2
     a1c:	01000002 	tsteq	r0, r2
     a20:	02e05000 	rsceq	r5, r0, #0, 0
     a24:	02e40000 	rsceq	r0, r4, #0, 0
     a28:	00040000 	andeq	r0, r4, r0
     a2c:	9f5001f3 	svcls	0x005001f3
     a30:	000002e4 	andeq	r0, r0, r4, ror #5
     a34:	000002e8 	andeq	r0, r0, r8, ror #5
     a38:	e8500001 	ldmda	r0, {r0}^
     a3c:	ec000002 	stc	0, cr0, [r0], {2}
     a40:	04000002 	streq	r0, [r0], #-2
     a44:	5001f300 	andpl	pc, r1, r0, lsl #6
     a48:	0002ec9f 	muleq	r2, pc, ip	; <UNPREDICTABLE>
     a4c:	0002f000 	andeq	pc, r2, r0
     a50:	50000100 	andpl	r0, r0, r0, lsl #2
     a54:	000002f0 	strdeq	r0, [r0], -r0	; <UNPREDICTABLE>
     a58:	000002f4 	strdeq	r0, [r0], -r4
     a5c:	01f30004 	mvnseq	r0, r4
     a60:	02f49f50 	rscseq	r9, r4, #80, 30	; 0x140
     a64:	02f80000 	rscseq	r0, r8, #0, 0
     a68:	00010000 	andeq	r0, r1, r0
     a6c:	0002f850 	andeq	pc, r2, r0, asr r8	; <UNPREDICTABLE>
     a70:	0002fc00 	andeq	pc, r2, r0, lsl #24
     a74:	f3000400 	vshl.u8	d0, d0, d0
     a78:	fc9f5001 	ldc2	0, cr5, [pc], {1}
     a7c:	00000002 	andeq	r0, r0, r2
     a80:	01000003 	tsteq	r0, r3
     a84:	03005000 	movweq	r5, #0
     a88:	03380000 	teqeq	r8, #0, 0
     a8c:	00040000 	andeq	r0, r4, r0
     a90:	9f5001f3 	svcls	0x005001f3
	...
     aa4:	0000017c 	andeq	r0, r0, ip, ror r1
     aa8:	00000187 	andeq	r0, r0, r7, lsl #3
     aac:	87500001 	ldrbhi	r0, [r0, -r1]
     ab0:	98000001 	stmdals	r0, {r0}
     ab4:	01000001 	tsteq	r0, r1
     ab8:	01985400 	orrseq	r5, r8, r0, lsl #8
     abc:	01ac0000 			; <UNDEFINED> instruction: 0x01ac0000
     ac0:	00040000 	andeq	r0, r4, r0
     ac4:	9f5001f3 	svcls	0x005001f3
     ac8:	000001ac 	andeq	r0, r0, ip, lsr #3
     acc:	000001bc 			; <UNDEFINED> instruction: 0x000001bc
     ad0:	00540001 	subseq	r0, r4, r1
	...
     adc:	00019400 	andeq	r9, r1, r0, lsl #8
     ae0:	0001a300 	andeq	sl, r1, r0, lsl #6
     ae4:	50000100 	andpl	r0, r0, r0, lsl #2
	...
     af8:	00000130 	andeq	r0, r0, r0, lsr r1
     afc:	0000013b 	andeq	r0, r0, fp, lsr r1
     b00:	3b500001 	blcc	1400b0c <__bss_end__+0x13f5584>
     b04:	50000001 	andpl	r0, r0, r1
     b08:	01000001 	tsteq	r0, r1
     b0c:	01505400 	cmpeq	r0, r0, lsl #8
     b10:	016c0000 	cmneq	ip, r0
     b14:	00040000 	andeq	r0, r4, r0
     b18:	9f5001f3 	svcls	0x005001f3
     b1c:	0000016c 	andeq	r0, r0, ip, ror #2
     b20:	0000017c 	andeq	r0, r0, ip, ror r1
     b24:	00540001 	subseq	r0, r4, r1
	...
     b30:	00014800 	andeq	r4, r1, r0, lsl #16
     b34:	00014b00 	andeq	r4, r1, r0, lsl #22
     b38:	50000100 	andpl	r0, r0, r0, lsl #2
	...
     b44:	01600000 	cmneq	r0, r0
     b48:	016c0000 	cmneq	ip, r0
     b4c:	00010000 	andeq	r0, r1, r0
     b50:	00000054 	andeq	r0, r0, r4, asr r0
	...
     b60:	0000e000 	andeq	lr, r0, r0
     b64:	0000eb00 	andeq	lr, r0, r0, lsl #22
     b68:	50000100 	andpl	r0, r0, r0, lsl #2
     b6c:	000000eb 	andeq	r0, r0, fp, ror #1
     b70:	00000104 	andeq	r0, r0, r4, lsl #2
     b74:	04540001 	ldrbeq	r0, [r4], #-1
     b78:	20000001 	andcs	r0, r0, r1
     b7c:	04000001 	streq	r0, [r0], #-1
     b80:	5001f300 	andpl	pc, r1, r0, lsl #6
     b84:	0001209f 	muleq	r1, pc, r0	; <UNPREDICTABLE>
     b88:	00013000 	andeq	r3, r1, r0
     b8c:	54000100 	strpl	r0, [r0], #-256	; 0xffffff00
	...
     b98:	00f80000 	rscseq	r0, r8, r0
     b9c:	01200000 			; <UNDEFINED> instruction: 0x01200000
     ba0:	00010000 	andeq	r0, r1, r0
     ba4:	00000055 	andeq	r0, r0, r5, asr r0
	...
     bb4:	00009000 	andeq	r9, r0, r0
     bb8:	00009b00 	andeq	r9, r0, r0, lsl #22
     bbc:	50000100 	andpl	r0, r0, r0, lsl #2
     bc0:	0000009b 	muleq	r0, fp, r0
     bc4:	000000b4 	strheq	r0, [r0], -r4
     bc8:	b4540001 	ldrblt	r0, [r4], #-1
     bcc:	d0000000 	andle	r0, r0, r0
     bd0:	04000000 	streq	r0, [r0], #-0
     bd4:	5001f300 	andpl	pc, r1, r0, lsl #6
     bd8:	0000d09f 	muleq	r0, pc, r0	; <UNPREDICTABLE>
     bdc:	0000e000 	andeq	lr, r0, r0
     be0:	54000100 	strpl	r0, [r0], #-256	; 0xffffff00
	...
     bec:	00a80000 	adceq	r0, r8, r0
     bf0:	00d00000 	sbcseq	r0, r0, r0
     bf4:	00010000 	andeq	r0, r1, r0
     bf8:	00000055 	andeq	r0, r0, r5, asr r0
	...
     c08:	00001c00 	andeq	r1, r0, r0, lsl #24
     c0c:	00002b00 	andeq	r2, r0, r0, lsl #22
     c10:	50000100 	andpl	r0, r0, r0, lsl #2
     c14:	0000002b 	andeq	r0, r0, fp, lsr #32
     c18:	00000044 	andeq	r0, r0, r4, asr #32
     c1c:	44540001 	ldrbmi	r0, [r4], #-1
     c20:	5c000000 	stcpl	0, cr0, [r0], {-0}
     c24:	04000000 	streq	r0, [r0], #-0
     c28:	5001f300 	andpl	pc, r1, r0, lsl #6
     c2c:	00005c9f 	muleq	r0, pc, ip	; <UNPREDICTABLE>
     c30:	00009000 	andeq	r9, r0, r0
     c34:	54000100 	strpl	r0, [r0], #-256	; 0xffffff00
	...
     c48:	000000e8 	andeq	r0, r0, r8, ror #1
     c4c:	00000100 	andeq	r0, r0, r0, lsl #2
     c50:	00500001 	subseq	r0, r0, r1
     c54:	10000001 	andne	r0, r0, r1
     c58:	04000001 	streq	r0, [r0], #-1
     c5c:	5001f300 	andpl	pc, r1, r0, lsl #6
     c60:	0001109f 	muleq	r1, pc, r0	; <UNPREDICTABLE>
     c64:	00011400 	andeq	r1, r1, r0, lsl #8
     c68:	50000100 	andpl	r0, r0, r0, lsl #2
     c6c:	00000114 	andeq	r0, r0, r4, lsl r1
     c70:	0000011c 	andeq	r0, r0, ip, lsl r1
     c74:	01f30004 	mvnseq	r0, r4
     c78:	00009f50 	andeq	r9, r0, r0, asr pc
     c7c:	00000000 	andeq	r0, r0, r0
     c80:	00010000 	andeq	r0, r1, r0
     c84:	00000000 	andeq	r0, r0, r0
     c88:	000000f4 	strdeq	r0, [r0], -r4
     c8c:	00000100 	andeq	r0, r0, r0, lsl #2
     c90:	0070000b 	rsbseq	r0, r0, fp
     c94:	b4232535 	strtlt	r2, [r3], #-1333	; 0xfffffacb
     c98:	02818080 	addeq	r8, r1, #128, 0	; 0x80
     c9c:	0001009f 	muleq	r1, pc, r0	; <UNPREDICTABLE>
     ca0:	00010300 	andeq	r0, r1, r0, lsl #6
     ca4:	50000100 	andpl	r0, r0, r0, lsl #2
     ca8:	00000103 	andeq	r0, r0, r3, lsl #2
     cac:	00000110 	andeq	r0, r0, r0, lsl r1
     cb0:	01f3000c 	mvnseq	r0, ip
     cb4:	23253550 			; <UNDEFINED> instruction: 0x23253550
     cb8:	818080b4 	strhhi	r8, [r0, r4]
     cbc:	00009f02 	andeq	r9, r0, r2, lsl #30
	...
     cc8:	000000f8 	strdeq	r0, [r0], -r8
     ccc:	00000110 	andeq	r0, r0, r0, lsl r1
     cd0:	00540001 	subseq	r0, r4, r1
	...
     ce0:	cc000000 	stcgt	0, cr0, [r0], {-0}
     ce4:	db000000 	blle	cec <__code_start__-0x7314>
     ce8:	01000000 	mrseq	r0, (UNDEF: 0)
     cec:	00db5000 	sbcseq	r5, fp, r0
     cf0:	00e00000 	rsceq	r0, r0, r0
     cf4:	00040000 	andeq	r0, r4, r0
     cf8:	9f5001f3 	svcls	0x005001f3
     cfc:	000000e0 	andeq	r0, r0, r0, ror #1
     d00:	000000e3 	andeq	r0, r0, r3, ror #1
     d04:	e3500001 	cmp	r0, #1, 0
     d08:	e8000000 	stmda	r0, {}	; <UNPREDICTABLE>
     d0c:	04000000 	streq	r0, [r0], #-0
     d10:	5001f300 	andpl	pc, r1, r0, lsl #6
     d14:	0000009f 	muleq	r0, pc, r0	; <UNPREDICTABLE>
	...
     d24:	0000cc00 	andeq	ip, r0, r0, lsl #24
     d28:	0000db00 	andeq	sp, r0, r0, lsl #22
     d2c:	51000100 	mrspl	r0, (UNDEF: 16)
     d30:	000000db 	ldrdeq	r0, [r0], -fp
     d34:	000000e0 	andeq	r0, r0, r0, ror #1
     d38:	01f30004 	mvnseq	r0, r4
     d3c:	00e09f51 	rsceq	r9, r0, r1, asr pc
     d40:	00e30000 	rsceq	r0, r3, r0
     d44:	00010000 	andeq	r0, r1, r0
     d48:	0000e351 	andeq	lr, r0, r1, asr r3
     d4c:	0000e800 	andeq	lr, r0, r0, lsl #16
     d50:	f3000400 	vshl.u8	d0, d0, d0
     d54:	009f5101 	addseq	r5, pc, r1, lsl #2
	...
     d60:	bc000000 	stclt	0, cr0, [r0], {-0}
     d64:	c7000000 	strgt	r0, [r0, -r0]
     d68:	01000000 	mrseq	r0, (UNDEF: 0)
     d6c:	00c75000 	sbceq	r5, r7, r0
     d70:	00cc0000 	sbceq	r0, ip, r0
     d74:	00040000 	andeq	r0, r4, r0
     d78:	9f5001f3 	svcls	0x005001f3
	...
     d88:	00000098 	muleq	r0, r8, r0
     d8c:	000000b0 	strheq	r0, [r0], -r0	; <UNPREDICTABLE>
     d90:	b0500001 	subslt	r0, r0, r1
     d94:	bc000000 	stclt	0, cr0, [r0], {-0}
     d98:	04000000 	streq	r0, [r0], #-0
     d9c:	5001f300 	andpl	pc, r1, r0, lsl #6
     da0:	0000009f 	muleq	r0, pc, r0	; <UNPREDICTABLE>
	...
     dac:	00007400 	andeq	r7, r0, r0, lsl #8
     db0:	00008c00 	andeq	r8, r0, r0, lsl #24
     db4:	50000100 	andpl	r0, r0, r0, lsl #2
     db8:	0000008c 	andeq	r0, r0, ip, lsl #1
     dbc:	00000098 	muleq	r0, r8, r0
     dc0:	01f30004 	mvnseq	r0, r4
     dc4:	00009f50 	andeq	r9, r0, r0, asr pc
	...
     dd0:	00640000 	rsbeq	r0, r4, r0
     dd4:	006f0000 	rsbeq	r0, pc, r0
     dd8:	00010000 	andeq	r0, r1, r0
     ddc:	00006f50 	andeq	r6, r0, r0, asr pc
     de0:	00007400 	andeq	r7, r0, r0, lsl #8
     de4:	f3000400 	vshl.u8	d0, d0, d0
     de8:	009f5001 	addseq	r5, pc, r1
	...
     df8:	38000000 	stmdacc	r0, {}	; <UNPREDICTABLE>
     dfc:	01000000 	mrseq	r0, (UNDEF: 0)
     e00:	00385000 	eorseq	r5, r8, r0
     e04:	00640000 	rsbeq	r0, r4, r0
     e08:	00040000 	andeq	r0, r4, r0
     e0c:	9f5001f3 	svcls	0x005001f3
	...
     e20:	00000047 	andeq	r0, r0, r7, asr #32
     e24:	47510001 	ldrbmi	r0, [r1, -r1]
     e28:	64000000 	strvs	r0, [r0], #-0
     e2c:	04000000 	streq	r0, [r0], #-0
     e30:	5101f300 	mrspl	pc, SP_irq	; <UNPREDICTABLE>
     e34:	0000009f 	muleq	r0, pc, r0	; <UNPREDICTABLE>
     e38:	00000000 	andeq	r0, r0, r0
     e3c:	34000000 	strcc	r0, [r0], #-0
     e40:	64000000 	strvs	r0, [r0], #-0
     e44:	01000000 	mrseq	r0, (UNDEF: 0)
     e48:	00005400 	andeq	r5, r0, r0, lsl #8
	...
     e54:	00000040 	andeq	r0, r0, r0, asr #32
     e58:	00000064 	andeq	r0, r0, r4, rrx
     e5c:	00560001 	subseq	r0, r6, r1
	...
     e68:	01010000 	mrseq	r0, (UNDEF: 1)
     e6c:	48000000 	stmdami	r0, {}	; <UNPREDICTABLE>
     e70:	50000000 	andpl	r0, r0, r0
     e74:	01000000 	mrseq	r0, (UNDEF: 0)
     e78:	00505000 	subseq	r5, r0, r0
     e7c:	00500000 	subseq	r0, r0, r0
     e80:	00010000 	andeq	r0, r1, r0
     e84:	00005051 	andeq	r5, r0, r1, asr r0
     e88:	00005400 	andeq	r5, r0, r0, lsl #8
     e8c:	75000900 	strvc	r0, [r0, #-2304]	; 0xfffff700
     e90:	24007400 	strcs	r7, [r0], #-1024	; 0xfffffc00
     e94:	9f210071 	svcls	0x00210071
     e98:	00000054 	andeq	r0, r0, r4, asr r0
     e9c:	0000005b 	andeq	r0, r0, fp, asr r0
     ea0:	00510001 	subseq	r0, r1, r1
	...
     eb0:	00002c00 	andeq	r2, r0, r0, lsl #24
     eb4:	00003800 	andeq	r3, r0, r0, lsl #16
     eb8:	50000100 	andpl	r0, r0, r0, lsl #2
     ebc:	00000038 	andeq	r0, r0, r8, lsr r0
     ec0:	00000048 	andeq	r0, r0, r8, asr #32
     ec4:	48540001 	ldmdami	r4, {r0}^
     ec8:	58000000 	stmdapl	r0, {}	; <UNPREDICTABLE>
     ecc:	01000000 	mrseq	r0, (UNDEF: 0)
     ed0:	00005000 	andeq	r5, r0, r0
     ed4:	00000000 	andeq	r0, r0, r0
     ed8:	01000000 	mrseq	r0, (UNDEF: 0)
     edc:	00000001 	andeq	r0, r0, r1
     ee0:	00080000 	andeq	r0, r8, r0
     ee4:	00010000 	andeq	r0, r1, r0
     ee8:	00000850 	andeq	r0, r0, r0, asr r8
     eec:	00003400 	andeq	r3, r0, r0, lsl #8
     ef0:	54000100 	strpl	r0, [r0], #-256	; 0xffffff00
	...
     f00:	02880000 	addeq	r0, r8, #0, 0
     f04:	02b80000 	adcseq	r0, r8, #0, 0
     f08:	00010000 	andeq	r0, r1, r0
     f0c:	0002b850 	andeq	fp, r2, r0, asr r8
     f10:	00070400 	andeq	r0, r7, r0, lsl #8
     f14:	59000100 	stmdbpl	r0, {r8}
     f18:	00000704 	andeq	r0, r0, r4, lsl #14
     f1c:	00000740 	andeq	r0, r0, r0, asr #14
     f20:	01f30004 	mvnseq	r0, r4
     f24:	00009f50 	andeq	r9, r0, r0, asr pc
	...
     f34:	00000288 	andeq	r0, r0, r8, lsl #5
     f38:	000002a0 	andeq	r0, r0, r0, lsr #5
     f3c:	a0510001 	subsge	r0, r1, r1
     f40:	b8000002 	stmdalt	r0, {r1}
     f44:	03000002 	movweq	r0, #2
     f48:	9f017100 	svcls	0x00017100
     f4c:	000002b8 			; <UNDEFINED> instruction: 0x000002b8
     f50:	00000740 	andeq	r0, r0, r0, asr #14
     f54:	01f30004 	mvnseq	r0, r4
     f58:	00009f51 	andeq	r9, r0, r1, asr pc
	...
     f6c:	02880000 	addeq	r0, r8, #0, 0
     f70:	02b80000 	adcseq	r0, r8, #0, 0
     f74:	00010000 	andeq	r0, r1, r0
     f78:	0002b852 	andeq	fp, r2, r2, asr r8
     f7c:	0003ec00 	andeq	lr, r3, r0, lsl #24
     f80:	56000100 	strpl	r0, [r0], -r0, lsl #2
     f84:	000003ec 	andeq	r0, r0, ip, ror #7
     f88:	000004b8 			; <UNDEFINED> instruction: 0x000004b8
     f8c:	b85b0001 	ldmdalt	fp, {r0}^
     f90:	d8000004 	stmdale	r0, {r2}
     f94:	01000004 	tsteq	r0, r4
     f98:	04d85600 	ldrbeq	r5, [r8], #1536	; 0x600
     f9c:	055c0000 	ldrbeq	r0, [ip, #-0]
     fa0:	00010000 	andeq	r0, r1, r0
     fa4:	00055c5b 	andeq	r5, r5, fp, asr ip
     fa8:	00070400 	andeq	r0, r7, r0, lsl #8
     fac:	56000100 	strpl	r0, [r0], -r0, lsl #2
	...
     fb8:	00000001 	andeq	r0, r0, r1
     fbc:	01000000 	mrseq	r0, (UNDEF: 0)
     fc0:	00000001 	andeq	r0, r0, r1
     fc4:	02000000 	andeq	r0, r0, #0, 0
     fc8:	00000002 	andeq	r0, r0, r2
     fcc:	0000029c 	muleq	r0, ip, r2
     fd0:	000002b8 			; <UNDEFINED> instruction: 0x000002b8
     fd4:	b8500001 	ldmdalt	r0, {r0}^
     fd8:	bc000002 	stclt	0, cr0, [r0], {2}
     fdc:	01000002 	tsteq	r0, r2
     fe0:	02bc5400 	adcseq	r5, ip, #0, 8
     fe4:	02c00000 	sbceq	r0, r0, #0, 0
     fe8:	00030000 	andeq	r0, r3, r0
     fec:	c09f0174 	addsgt	r0, pc, r4, ror r1	; <UNPREDICTABLE>
     ff0:	e4000002 	str	r0, [r0], #-2
     ff4:	01000002 	tsteq	r0, r2
     ff8:	02e45400 	rsceq	r5, r4, #0, 8
     ffc:	02e80000 	rsceq	r0, r8, #0, 0
    1000:	00030000 	andeq	r0, r3, r0
    1004:	e89f0174 	ldm	pc, {r2, r4, r5, r6, r8}	; <UNPREDICTABLE>
    1008:	d4000002 	strle	r0, [r0], #-2
    100c:	01000006 	tsteq	r0, r6
    1010:	06d45400 	ldrbeq	r5, [r4], r0, lsl #8
    1014:	06d80000 	ldrbeq	r0, [r8], r0
    1018:	00030000 	andeq	r0, r3, r0
    101c:	d89f0174 	ldmle	pc, {r2, r4, r5, r6, r8}	; <UNPREDICTABLE>
    1020:	f0000006 			; <UNDEFINED> instruction: 0xf0000006
    1024:	01000006 	tsteq	r0, r6
    1028:	06f05400 	ldrbteq	r5, [r0], r0, lsl #8
    102c:	06f80000 	ldrbteq	r0, [r8], r0
    1030:	00030000 	andeq	r0, r3, r0
    1034:	f89f0174 			; <UNDEFINED> instruction: 0xf89f0174
    1038:	04000006 	streq	r0, [r0], #-6
    103c:	01000007 	tsteq	r0, r7
    1040:	00005400 	andeq	r5, r0, r0, lsl #8
	...
    104c:	02a40000 	adceq	r0, r4, #0, 0
    1050:	07040000 	streq	r0, [r4, -r0]
    1054:	00010000 	andeq	r0, r1, r0
    1058:	00070458 	andeq	r0, r7, r8, asr r4
    105c:	00074000 	andeq	r4, r7, r0
    1060:	f3000a00 	vpmax.u8	d0, d0, d0
    1064:	01f35101 	mvnseq	r5, r1, lsl #2
    1068:	1c312250 	lfmne	f2, 4, [r1], #-320	; 0xfffffec0
    106c:	0000009f 	muleq	r0, pc, r0	; <UNPREDICTABLE>
    1070:	00000000 	andeq	r0, r0, r0
    1074:	00000100 	andeq	r0, r0, r0, lsl #2
    1078:	08000000 	stmdaeq	r0, {}	; <UNPREDICTABLE>
    107c:	74000004 	strvc	r0, [r0], #-4
    1080:	01000004 	tsteq	r0, r4
    1084:	04d85700 	ldrbeq	r5, [r8], #1792	; 0x700
    1088:	04fc0000 	ldrbteq	r0, [ip], #0
    108c:	00010000 	andeq	r0, r1, r0
    1090:	00054057 	andeq	r4, r5, r7, asr r0
    1094:	00055c00 	andeq	r5, r5, r0, lsl #24
    1098:	57000100 	strpl	r0, [r0, -r0, lsl #2]
	...
    10a4:	00000002 	andeq	r0, r0, r2
    10a8:	00000408 	andeq	r0, r0, r8, lsl #8
    10ac:	000004b8 			; <UNDEFINED> instruction: 0x000004b8
    10b0:	d85a0001 	ldmdale	sl, {r0}^
    10b4:	5c000004 	stcpl	0, cr0, [r0], {4}
    10b8:	01000005 	tsteq	r0, r5
    10bc:	00005a00 	andeq	r5, r0, r0, lsl #20
    10c0:	00000000 	andeq	r0, r0, r0
    10c4:	00010000 	andeq	r0, r1, r0
    10c8:	02ac0000 	adceq	r0, ip, #0, 0
    10cc:	02b80000 	adcseq	r0, r8, #0, 0
    10d0:	00010000 	andeq	r0, r1, r0
    10d4:	0002b852 	andeq	fp, r2, r2, asr r8
    10d8:	00074000 	andeq	r4, r7, r0
    10dc:	91000300 	mrsls	r0, LR_irq
    10e0:	00007dc8 	andeq	r7, r0, r8, asr #27
	...
    10f0:	01000000 	mrseq	r0, (UNDEF: 0)
    10f4:	00000001 	andeq	r0, r0, r1
	...
    1100:	00000474 	andeq	r0, r0, r4, ror r4
    1104:	0000048c 	andeq	r0, r0, ip, lsl #9
    1108:	8c500001 	mrrchi	0, 0, r0, r0, cr1	; <UNPREDICTABLE>
    110c:	b8000004 	stmdalt	r0, {r2}
    1110:	01000004 	tsteq	r0, r4
    1114:	04fc5700 	ldrbteq	r5, [ip], #1792	; 0x700
    1118:	05140000 	ldreq	r0, [r4, #-0]
    111c:	00010000 	andeq	r0, r1, r0
    1120:	00051450 	andeq	r1, r5, r0, asr r4
    1124:	00054000 	andeq	r4, r5, r0
    1128:	57000100 	strpl	r0, [r0, -r0, lsl #2]
    112c:	000005a4 	andeq	r0, r0, r4, lsr #11
    1130:	000005a4 	andeq	r0, r0, r4, lsr #11
    1134:	a4500001 	ldrbge	r0, [r0], #-1
    1138:	ac000005 	stcge	0, cr0, [r0], {5}
    113c:	01000005 	tsteq	r0, r5
    1140:	05dc5700 	ldrbeq	r5, [ip, #1792]	; 0x700
    1144:	05e00000 	strbeq	r0, [r0, #0]!
    1148:	00010000 	andeq	r0, r1, r0
    114c:	00061050 	andeq	r1, r6, r0, asr r0
    1150:	00061400 	andeq	r1, r6, r0, lsl #8
    1154:	50000100 	andpl	r0, r0, r0, lsl #2
    1158:	00000644 	andeq	r0, r0, r4, asr #12
    115c:	00000648 	andeq	r0, r0, r8, asr #12
    1160:	8c500001 	mrrchi	0, 0, r0, r0, cr1	; <UNPREDICTABLE>
    1164:	90000006 	andls	r0, r0, r6
    1168:	01000006 	tsteq	r0, r6
    116c:	06d05000 	ldrbeq	r5, [r0], r0
    1170:	06f00000 	ldrbteq	r0, [r0], r0
    1174:	00010000 	andeq	r0, r1, r0
    1178:	00000057 	andeq	r0, r0, r7, asr r0
    117c:	00000000 	andeq	r0, r0, r0
    1180:	00000200 	andeq	r0, r0, r0, lsl #4
    1184:	f4000000 	vst4.8	{d0-d3}, [r0], r0
    1188:	f8000002 			; <UNDEFINED> instruction: 0xf8000002
    118c:	02000002 	andeq	r0, r0, #2, 0
    1190:	f89f3000 			; <UNDEFINED> instruction: 0xf89f3000
    1194:	14000002 	strne	r0, [r0], #-2
    1198:	01000003 	tsteq	r0, r3
    119c:	031c5500 	tsteq	ip, #0, 10
    11a0:	06f00000 	ldrbteq	r0, [r0], r0
    11a4:	00010000 	andeq	r0, r1, r0
    11a8:	00000055 	andeq	r0, r0, r5, asr r0
    11ac:	00000000 	andeq	r0, r0, r0
    11b0:	00000100 	andeq	r0, r0, r0, lsl #2
    11b4:	00000000 	andeq	r0, r0, r0
    11b8:	b8000000 	stmdalt	r0, {}	; <UNPREDICTABLE>
    11bc:	54000003 	strpl	r0, [r0], #-3
    11c0:	01000004 	tsteq	r0, r4
    11c4:	04545600 	ldrbeq	r5, [r4], #-1536	; 0xfffffa00
    11c8:	04b80000 	ldrteq	r0, [r8], #0
    11cc:	00030000 	andeq	r0, r3, r0
    11d0:	b89f7e7b 	ldmlt	pc, {r0, r1, r3, r4, r5, r6, r9, sl, fp, ip, sp, lr}	; <UNPREDICTABLE>
    11d4:	dc000004 	stcle	0, cr0, [r0], {4}
    11d8:	01000004 	tsteq	r0, r4
    11dc:	04dc5600 	ldrbeq	r5, [ip], #1536	; 0x600
    11e0:	05400000 	strbeq	r0, [r0, #-0]
    11e4:	00030000 	andeq	r0, r3, r0
    11e8:	409f7e7b 	addsmi	r7, pc, fp, ror lr	; <UNPREDICTABLE>
    11ec:	5c000005 	stcpl	0, cr0, [r0], {5}
    11f0:	01000005 	tsteq	r0, r5
    11f4:	00005600 	andeq	r5, r0, r0, lsl #12
	...
    1204:	00000070 	andeq	r0, r0, r0, ror r0
    1208:	00000094 	muleq	r0, r4, r0
    120c:	94500001 	ldrbls	r0, [r0], #-1
    1210:	fc000000 	stc2	0, cr0, [r0], {-0}
    1214:	03000000 	movweq	r0, #0
    1218:	9f027000 	svcls	0x00027000
    121c:	000000fc 	strdeq	r0, [r0], -ip
    1220:	00000224 	andeq	r0, r0, r4, lsr #4
    1224:	01f30004 	mvnseq	r0, r4
    1228:	00009f50 	andeq	r9, r0, r0, asr pc
	...
    1240:	00700000 	rsbseq	r0, r0, r0
    1244:	00e00000 	rsceq	r0, r0, r0
    1248:	00010000 	andeq	r0, r1, r0
    124c:	0000e051 	andeq	lr, r0, r1, asr r0
    1250:	00015400 	andeq	r5, r1, r0, lsl #8
    1254:	55000100 	strpl	r0, [r0, #-256]	; 0xffffff00
    1258:	00000154 	andeq	r0, r0, r4, asr r1
    125c:	00000158 	andeq	r0, r0, r8, asr r1
    1260:	58510001 	ldmdapl	r1, {r0}^
    1264:	b0000001 	andlt	r0, r0, r1
    1268:	01000001 	tsteq	r0, r1
    126c:	01b05500 	lslseq	r5, r0, #10
    1270:	01c00000 	biceq	r0, r0, r0
    1274:	00010000 	andeq	r0, r1, r0
    1278:	0001c051 	andeq	ip, r1, r1, asr r0
    127c:	0001e400 	andeq	lr, r1, r0, lsl #8
    1280:	55000100 	strpl	r0, [r0, #-256]	; 0xffffff00
    1284:	000001e4 	andeq	r0, r0, r4, ror #3
    1288:	000001f8 	strdeq	r0, [r0], -r8
    128c:	f8510001 			; <UNDEFINED> instruction: 0xf8510001
    1290:	24000001 	strcs	r0, [r0], #-1
    1294:	01000002 	tsteq	r0, r2
    1298:	00005500 	andeq	r5, r0, r0, lsl #10
	...
    12a4:	00700000 	rsbseq	r0, r0, r0
    12a8:	00840000 	addeq	r0, r4, r0
    12ac:	00010000 	andeq	r0, r1, r0
    12b0:	00008452 	andeq	r8, r0, r2, asr r4
    12b4:	00022400 	andeq	r2, r2, r0, lsl #8
    12b8:	54000100 	strpl	r0, [r0], #-256	; 0xffffff00
	...
    12c8:	00000100 	andeq	r0, r0, r0, lsl #2
    12cc:	00000000 	andeq	r0, r0, r0
    12d0:	00000070 	andeq	r0, r0, r0, ror r0
    12d4:	000000f4 	strdeq	r0, [r0], -r4
    12d8:	4c530001 	mrrcmi	0, 0, r0, r3, cr1
    12dc:	80000001 	andhi	r0, r0, r1
    12e0:	01000001 	tsteq	r0, r1
    12e4:	01805300 	orreq	r5, r0, r0, lsl #6
    12e8:	018c0000 	orreq	r0, ip, r0
    12ec:	00040000 	andeq	r0, r4, r0
    12f0:	9f5301f3 	svcls	0x005301f3
    12f4:	000001b0 			; <UNDEFINED> instruction: 0x000001b0
    12f8:	000001e8 	andeq	r0, r0, r8, ror #3
    12fc:	e8530001 	ldmda	r3, {r0}^
    1300:	ff000001 			; <UNDEFINED> instruction: 0xff000001
    1304:	01000001 	tsteq	r0, r1
    1308:	01ff5c00 	mvnseq	r5, r0, lsl #24
    130c:	02240000 	eoreq	r0, r4, #0, 0
    1310:	00040000 	andeq	r0, r4, r0
    1314:	9f5301f3 	svcls	0x005301f3
	...
    1324:	00700000 	rsbseq	r0, r0, r0
    1328:	008c0000 	addeq	r0, ip, r0
    132c:	00020000 	andeq	r0, r2, r0
    1330:	008c0091 	umulleq	r0, ip, r1, r0
    1334:	01930000 	orrseq	r0, r3, r0
    1338:	00010000 	andeq	r0, r1, r0
    133c:	0001b052 	andeq	fp, r1, r2, asr r0
    1340:	0001f400 	andeq	pc, r1, r0, lsl #8
    1344:	52000100 	andpl	r0, r0, #0
	...
    1350:	01000001 	tsteq	r0, r1
    1354:	00000001 	andeq	r0, r0, r1
    1358:	00000000 	andeq	r0, r0, r0
    135c:	01010100 	mrseq	r0, (UNDEF: 17)
    1360:	01000001 	tsteq	r0, r1
    1364:	00000001 	andeq	r0, r0, r1
	...
    1370:	0000008c 	andeq	r0, r0, ip, lsl #1
    1374:	000000fc 	strdeq	r0, [r0], -ip
    1378:	a0910004 	addsge	r0, r1, r4
    137c:	00fc9f7f 	rscseq	r9, ip, pc, ror pc
    1380:	013c0000 	teqeq	ip, r0
    1384:	00010000 	andeq	r0, r1, r0
    1388:	00013c50 	andeq	r3, r1, r0, asr ip
    138c:	00014800 	andeq	r4, r1, r0, lsl #16
    1390:	71000300 	mrsvc	r0, LR_irq
    1394:	01489f02 	cmpeq	r8, r2, lsl #30
    1398:	014c0000 	mrseq	r0, (UNDEF: 76)
    139c:	00010000 	andeq	r0, r1, r0
    13a0:	00014c50 	andeq	r4, r1, r0, asr ip
    13a4:	00015800 	andeq	r5, r1, r0, lsl #16
    13a8:	91000400 	tstls	r0, r0, lsl #8
    13ac:	589f7fa0 	ldmpl	pc, {r5, r7, r8, r9, sl, fp, ip, sp, lr}	; <UNPREDICTABLE>
    13b0:	6c000001 	stcvs	0, cr0, [r0], {1}
    13b4:	01000001 	tsteq	r0, r1
    13b8:	016c5100 	cmneq	ip, r0, lsl #2
    13bc:	01780000 	cmneq	r8, r0
    13c0:	00030000 	andeq	r0, r3, r0
    13c4:	789f7f71 	ldmvc	pc, {r0, r4, r5, r6, r8, r9, sl, fp, ip, sp, lr}	; <UNPREDICTABLE>
    13c8:	84000001 	strhi	r0, [r0], #-1
    13cc:	03000001 	movweq	r0, #1
    13d0:	9f017100 	svcls	0x00017100
    13d4:	00000184 	andeq	r0, r0, r4, lsl #3
    13d8:	00000193 	muleq	r0, r3, r1
    13dc:	b0500001 	subslt	r0, r0, r1
    13e0:	b0000001 	andlt	r0, r0, r1
    13e4:	04000001 	streq	r0, [r0], #-1
    13e8:	7fa09100 	svcvc	0x00a09100
    13ec:	0001b09f 	muleq	r1, pc, r0	; <UNPREDICTABLE>
    13f0:	0001b800 	andeq	fp, r1, r0, lsl #16
    13f4:	91000400 	tstls	r0, r0, lsl #8
    13f8:	b89f7fa1 	ldmlt	pc, {r0, r5, r7, r8, r9, sl, fp, ip, sp, lr}	; <UNPREDICTABLE>
    13fc:	bc000001 	stclt	0, cr0, [r0], {1}
    1400:	01000001 	tsteq	r0, r1
    1404:	01bc5000 			; <UNDEFINED> instruction: 0x01bc5000
    1408:	01c00000 	biceq	r0, r0, r0
    140c:	00040000 	andeq	r0, r4, r0
    1410:	9f7fa091 	svcls	0x007fa091
    1414:	000001c0 	andeq	r0, r0, r0, asr #3
    1418:	000001d4 	ldrdeq	r0, [r0], -r4
    141c:	d4500001 	ldrble	r0, [r0], #-1
    1420:	e4000001 	str	r0, [r0], #-1
    1424:	03000001 	movweq	r0, #1
    1428:	9f7f7000 	svcls	0x007f7000
    142c:	000001e4 	andeq	r0, r0, r4, ror #3
    1430:	00000224 	andeq	r0, r0, r4, lsr #4
    1434:	a0910004 	addsge	r0, r1, r4
    1438:	00009f7f 	andeq	r9, r0, pc, ror pc
	...
    1444:	00010100 	andeq	r0, r1, r0, lsl #2
	...
    1454:	00900000 	addseq	r0, r0, r0
    1458:	00dc0000 	sbcseq	r0, ip, r0
    145c:	00010000 	andeq	r0, r1, r0
    1460:	0000dc5c 	andeq	sp, r0, ip, asr ip
    1464:	0000f400 	andeq	pc, r0, r0, lsl #8
    1468:	53000100 	movwpl	r0, #256	; 0x100
    146c:	000000f4 	strdeq	r0, [r0], -r4
    1470:	0000014c 	andeq	r0, r0, ip, asr #2
    1474:	4c5c0001 	mrrcmi	0, 0, r0, ip, cr1
    1478:	58000001 	stmdapl	r0, {r0}
    147c:	01000001 	tsteq	r0, r1
    1480:	01585300 	cmpeq	r8, r0, lsl #6
    1484:	01740000 	cmneq	r4, r0
    1488:	00010000 	andeq	r0, r1, r0
    148c:	0001b05c 	andeq	fp, r1, ip, asr r0
    1490:	0001c000 	andeq	ip, r1, r0
    1494:	53000100 	movwpl	r0, #256	; 0x100
    1498:	000001c0 	andeq	r0, r0, r0, asr #3
    149c:	000001dc 	ldrdeq	r0, [r0], -ip
    14a0:	e45c0001 	ldrb	r0, [ip], #-1
    14a4:	e8000001 	stmda	r0, {r0}
    14a8:	01000001 	tsteq	r0, r1
    14ac:	01e85300 	mvneq	r5, r0, lsl #6
    14b0:	01ff0000 	mvnseq	r0, r0
    14b4:	00010000 	andeq	r0, r1, r0
    14b8:	0001ff5c 	andeq	pc, r1, ip, asr pc	; <UNPREDICTABLE>
    14bc:	00022400 	andeq	r2, r2, r0, lsl #8
    14c0:	f3000400 	vshl.u8	d0, d0, d0
    14c4:	009f5301 	addseq	r5, pc, r1, lsl #6
    14c8:	00000000 	andeq	r0, r0, r0
    14cc:	01000000 	mrseq	r0, (UNDEF: 0)
    14d0:	00000101 	andeq	r0, r0, r1, lsl #2
    14d4:	dc000000 	stcle	0, cr0, [r0], {-0}
    14d8:	f0000000 			; <UNDEFINED> instruction: 0xf0000000
    14dc:	02000000 	andeq	r0, r0, #0, 0
    14e0:	f09f3000 			; <UNDEFINED> instruction: 0xf09f3000
    14e4:	f8000000 			; <UNDEFINED> instruction: 0xf8000000
    14e8:	02000000 	andeq	r0, r0, #0, 0
    14ec:	fc9f3100 	ldc2	1, cr3, [pc], {0}
    14f0:	4c000000 	stcmi	0, cr0, [r0], {-0}
    14f4:	01000001 	tsteq	r0, r1
    14f8:	014c5600 	cmpeq	ip, r0, lsl #12
    14fc:	01540000 	cmpeq	r4, r0
    1500:	00020000 	andeq	r0, r2, r0
    1504:	00009f30 	andeq	r9, r0, r0, lsr pc
	...
    1510:	00010100 	andeq	r0, r1, r0, lsl #2
    1514:	00010100 	andeq	r0, r1, r0, lsl #2
    1518:	00000038 	andeq	r0, r0, r8, lsr r0
    151c:	00000054 	andeq	r0, r0, r4, asr r0
    1520:	54500001 	ldrbpl	r0, [r0], #-1
    1524:	58000000 	stmdapl	r0, {}	; <UNPREDICTABLE>
    1528:	01000000 	mrseq	r0, (UNDEF: 0)
    152c:	00585200 	subseq	r5, r8, r0, lsl #4
    1530:	00600000 	rsbeq	r0, r0, r0
    1534:	00030000 	andeq	r0, r3, r0
    1538:	609f0172 	addsvs	r0, pc, r2, ror r1	; <UNPREDICTABLE>
    153c:	64000000 	strvs	r0, [r0], #-0
    1540:	01000000 	mrseq	r0, (UNDEF: 0)
    1544:	00645200 	rsbeq	r5, r4, r0, lsl #4
    1548:	00700000 	rsbseq	r0, r0, r0
    154c:	00030000 	andeq	r0, r3, r0
    1550:	009f0172 	addseq	r0, pc, r2, ror r1	; <UNPREDICTABLE>
	...
    155c:	38000000 	stmdacc	r0, {}	; <UNPREDICTABLE>
    1560:	50000000 	andpl	r0, r0, r0
    1564:	01000000 	mrseq	r0, (UNDEF: 0)
    1568:	00505100 	subseq	r5, r0, r0, lsl #2
    156c:	00700000 	rsbseq	r0, r0, r0
    1570:	00040000 	andeq	r0, r4, r0
    1574:	9f5101f3 	svcls	0x005101f3
	...
    1584:	00010100 	andeq	r0, r1, r0, lsl #2
    1588:	00000038 	andeq	r0, r0, r8, lsr r0
    158c:	00000050 	andeq	r0, r0, r0, asr r0
    1590:	50520001 	subspl	r0, r2, r1
    1594:	5c000000 	stcpl	0, cr0, [r0], {-0}
    1598:	01000000 	mrseq	r0, (UNDEF: 0)
    159c:	005c5100 	subseq	r5, ip, r0, lsl #2
    15a0:	00600000 	rsbeq	r0, r0, r0
    15a4:	00030000 	andeq	r0, r3, r0
    15a8:	609f0171 	addsvs	r0, pc, r1, ror r1	; <UNPREDICTABLE>
    15ac:	70000000 	andvc	r0, r0, r0
    15b0:	01000000 	mrseq	r0, (UNDEF: 0)
    15b4:	00005100 	andeq	r5, r0, r0, lsl #2
	...
    15c0:	00380000 	eorseq	r0, r8, r0
    15c4:	004c0000 	subeq	r0, ip, r0
    15c8:	00010000 	andeq	r0, r1, r0
    15cc:	00004c53 	andeq	r4, r0, r3, asr ip
    15d0:	00006800 	andeq	r6, r0, r0, lsl #16
    15d4:	53000100 	movwpl	r0, #256	; 0x100
	...
    15e8:	00000040 	andeq	r0, r0, r0, asr #32
    15ec:	00000048 	andeq	r0, r0, r8, asr #32
    15f0:	485c0001 	ldmdami	ip, {r0}^
    15f4:	4c000000 	stcmi	0, cr0, [r0], {-0}
    15f8:	08000000 	stmdaeq	r0, {}	; <UNPREDICTABLE>
    15fc:	73007200 	movwvc	r7, #512	; 0x200
    1600:	01231c00 			; <UNDEFINED> instruction: 0x01231c00
    1604:	00004c9f 	muleq	r0, pc, ip	; <UNPREDICTABLE>
    1608:	00005400 	andeq	r5, r0, r0, lsl #8
    160c:	72000900 	andvc	r0, r0, #0, 18
    1610:	5301f300 	movwpl	pc, #4864	; 0x1300	; <UNPREDICTABLE>
    1614:	9f01231c 	svcls	0x0001231c
    1618:	00000054 	andeq	r0, r0, r4, asr r0
    161c:	00000070 	andeq	r0, r0, r0, ror r0
    1620:	01f3000a 	mvnseq	r0, sl
    1624:	5301f352 	movwpl	pc, #4946	; 0x1352	; <UNPREDICTABLE>
    1628:	9f01231c 	svcls	0x0001231c
	...
    1634:	004c0001 	subeq	r0, ip, r1
    1638:	00700000 	rsbseq	r0, r0, r0
    163c:	00010000 	andeq	r0, r1, r0
    1640:	00000050 	andeq	r0, r0, r0, asr r0
    1644:	00000000 	andeq	r0, r0, r0
    1648:	01010000 	mrseq	r0, (UNDEF: 1)
    164c:	14000000 	strne	r0, [r0], #-0
    1650:	1c000000 	stcne	0, cr0, [r0], {-0}
    1654:	01000000 	mrseq	r0, (UNDEF: 0)
    1658:	001c5000 	andseq	r5, ip, r0
    165c:	00240000 	eoreq	r0, r4, r0
    1660:	00030000 	andeq	r0, r3, r0
    1664:	249f0170 	ldrcs	r0, [pc], #368	; 166c <__code_start__-0x6994>
    1668:	38000000 	stmdacc	r0, {}	; <UNPREDICTABLE>
    166c:	01000000 	mrseq	r0, (UNDEF: 0)
    1670:	00005000 	andeq	r5, r0, r0
	...
    167c:	00140000 	andseq	r0, r4, r0
    1680:	00180000 	andseq	r0, r8, r0
    1684:	00010000 	andeq	r0, r1, r0
    1688:	00001851 	andeq	r1, r0, r1, asr r8
    168c:	00003800 	andeq	r3, r0, r0, lsl #16
    1690:	f3000400 	vshl.u8	d0, d0, d0
    1694:	009f5101 	addseq	r5, pc, r1, lsl #2
	...
    16a0:	00001800 	andeq	r1, r0, r0, lsl #16
    16a4:	00003800 	andeq	r3, r0, r0, lsl #16
    16a8:	51000100 	mrspl	r0, (UNDEF: 16)
	...
    16bc:	00040000 	andeq	r0, r4, r0
    16c0:	00010000 	andeq	r0, r1, r0
    16c4:	00000450 	andeq	r0, r0, r0, asr r4
    16c8:	00000c00 	andeq	r0, r0, r0, lsl #24
    16cc:	70000300 	andvc	r0, r0, r0, lsl #6
    16d0:	000c9f30 	andeq	r9, ip, r0, lsr pc
    16d4:	00140000 	andseq	r0, r4, r0
    16d8:	00040000 	andeq	r0, r4, r0
    16dc:	9f5001f3 	svcls	0x005001f3
	...
    16ec:	00000224 	andeq	r0, r0, r4, lsr #4
    16f0:	00000268 	andeq	r0, r0, r8, ror #4
    16f4:	68500001 	ldmdavs	r0, {r0}^
    16f8:	88000002 	stmdahi	r0, {r1}
    16fc:	04000002 	streq	r0, [r0], #-2
    1700:	5001f300 	andpl	pc, r1, r0, lsl #6
    1704:	0000009f 	muleq	r0, pc, r0	; <UNPREDICTABLE>
	...
    1710:	00022400 	andeq	r2, r2, r0, lsl #8
    1714:	00026400 	andeq	r6, r2, r0, lsl #8
    1718:	51000100 	mrspl	r0, (UNDEF: 16)
    171c:	00000264 	andeq	r0, r0, r4, ror #4
    1720:	00000288 	andeq	r0, r0, r8, lsl #5
    1724:	01f30004 	mvnseq	r0, r4
    1728:	00009f51 	andeq	r9, r0, r1, asr pc
    172c:	00000000 	andeq	r0, r0, r0
    1730:	01000000 	mrseq	r0, (UNDEF: 0)
    1734:	00000001 	andeq	r0, r0, r1
    1738:	0000000c 	andeq	r0, r0, ip
    173c:	00000014 	andeq	r0, r0, r4, lsl r0
    1740:	14530001 	ldrbne	r0, [r3], #-1
    1744:	1c000000 	stcne	0, cr0, [r0], {-0}
    1748:	03000000 	movweq	r0, #0
    174c:	9f047300 	svcls	0x00047300
    1750:	0000001c 	andeq	r0, r0, ip, lsl r0
    1754:	00000023 	andeq	r0, r0, r3, lsr #32
    1758:	00530001 	subseq	r0, r3, r1
	...
    176c:	00002400 	andeq	r2, r0, r0, lsl #8
    1770:	50000100 	andpl	r0, r0, r0, lsl #2
    1774:	00000024 	andeq	r0, r0, r4, lsr #32
    1778:	00000027 	andeq	r0, r0, r7, lsr #32
    177c:	6c910002 	ldcvs	0, cr0, [r1], {2}
    1780:	00000027 	andeq	r0, r0, r7, lsr #32
    1784:	0000003c 	andeq	r0, r0, ip, lsr r0
    1788:	01f30004 	mvnseq	r0, r4
    178c:	00009f50 	andeq	r9, r0, r0, asr pc
	...
    17a0:	00000024 	andeq	r0, r0, r4, lsr #32
    17a4:	24500001 	ldrbcs	r0, [r0], #-1
    17a8:	27000000 	strcs	r0, [r0, -r0]
    17ac:	02000000 	andeq	r0, r0, #0, 0
    17b0:	276c9100 	strbcs	r9, [ip, -r0, lsl #2]!
    17b4:	3c000000 	stccc	0, cr0, [r0], {-0}
    17b8:	04000000 	streq	r0, [r0], #-0
    17bc:	5001f300 	andpl	pc, r1, r0, lsl #6
    17c0:	0000009f 	muleq	r0, pc, r0	; <UNPREDICTABLE>
	...
    17d0:	24000000 	strcs	r0, [r0], #-0
    17d4:	01000000 	mrseq	r0, (UNDEF: 0)
    17d8:	00245000 	eoreq	r5, r4, r0
    17dc:	00270000 	eoreq	r0, r7, r0
    17e0:	00020000 	andeq	r0, r2, r0
    17e4:	00276c91 	mlaeq	r7, r1, ip, r6
    17e8:	003c0000 	eorseq	r0, ip, r0
    17ec:	00040000 	andeq	r0, r4, r0
    17f0:	9f5001f3 	svcls	0x005001f3
	...
    1804:	00240000 	eoreq	r0, r4, r0
    1808:	00010000 	andeq	r0, r1, r0
    180c:	00002450 	andeq	r2, r0, r0, asr r4
    1810:	00002700 	andeq	r2, r0, r0, lsl #14
    1814:	91000200 	mrsls	r0, R8_usr
    1818:	0000276c 	andeq	r2, r0, ip, ror #14
    181c:	00003c00 	andeq	r3, r0, r0, lsl #24
    1820:	f3000400 	vshl.u8	d0, d0, d0
    1824:	009f5001 	addseq	r5, pc, r1
	...
    1838:	00002400 	andeq	r2, r0, r0, lsl #8
    183c:	50000100 	andpl	r0, r0, r0, lsl #2
    1840:	00000024 	andeq	r0, r0, r4, lsr #32
    1844:	00000027 	andeq	r0, r0, r7, lsr #32
    1848:	6c910002 	ldcvs	0, cr0, [r1], {2}
    184c:	00000027 	andeq	r0, r0, r7, lsr #32
    1850:	0000003c 	andeq	r0, r0, ip, lsr r0
    1854:	01f30004 	mvnseq	r0, r4
    1858:	00009f50 	andeq	r9, r0, r0, asr pc
	...
    1864:	00000034 	andeq	r0, r0, r4, lsr r0
    1868:	00000068 	andeq	r0, r0, r8, rrx
    186c:	00500001 	subseq	r0, r0, r1
    1870:	00000000 	andeq	r0, r0, r0
    1874:	02000000 	andeq	r0, r0, #0, 0
    1878:	34000000 	strcc	r0, [r0], #-0
    187c:	38000000 	stmdacc	r0, {}	; <UNPREDICTABLE>
    1880:	02000000 	andeq	r0, r0, #0, 0
    1884:	389f3000 	ldmcc	pc, {ip, sp}	; <UNPREDICTABLE>
    1888:	68000000 	stmdavs	r0, {}	; <UNPREDICTABLE>
    188c:	01000000 	mrseq	r0, (UNDEF: 0)
    1890:	00005300 	andeq	r5, r0, r0, lsl #6
    1894:	00000000 	andeq	r0, r0, r0
    1898:	00010000 	andeq	r0, r1, r0
    189c:	000096b8 			; <UNDEFINED> instruction: 0x000096b8
    18a0:	000096d4 	ldrdeq	r9, [r0], -r4
    18a4:	1c0c0006 	stcne	0, cr0, [ip], {6}
    18a8:	9f201000 	svcls	0x00201000
	...
    18b4:	96b80002 	ldrtls	r0, [r8], r2
    18b8:	96d40000 	ldrbls	r0, [r4], r0
    18bc:	00060000 	andeq	r0, r6, r0
    18c0:	1000240c 	andne	r2, r0, ip, lsl #8
    18c4:	00009f20 	andeq	r9, r0, r0, lsr #30
    18c8:	00000000 	andeq	r0, r0, r0
    18cc:	00030000 	andeq	r0, r3, r0
    18d0:	000096b8 			; <UNDEFINED> instruction: 0x000096b8
    18d4:	000096d4 	ldrdeq	r9, [r0], -r4
    18d8:	b4080005 	strlt	r0, [r8], #-5
    18dc:	009f2447 	addseq	r2, pc, r7, asr #8
    18e0:	00000000 	andeq	r0, r0, r0
    18e4:	04000000 	streq	r0, [r0], #-0
    18e8:	0096b800 	addseq	fp, r6, r0, lsl #16
    18ec:	0096d400 	addseq	sp, r6, r0, lsl #8
    18f0:	08000300 	stmdaeq	r0, {r8, r9}
    18f4:	00009f20 	andeq	r9, r0, r0, lsr #30
    18f8:	00000000 	andeq	r0, r0, r0
    18fc:	00020000 	andeq	r0, r2, r0
    1900:	00000000 	andeq	r0, r0, r0
    1904:	00009684 	andeq	r9, r0, r4, lsl #13
    1908:	00009688 	andeq	r9, r0, r8, lsl #13
    190c:	9f300002 	svcls	0x00300002
    1910:	00009688 	andeq	r9, r0, r8, lsl #13
    1914:	0000968c 	andeq	r9, r0, ip, lsl #13
    1918:	90530001 	subsls	r0, r3, r1
    191c:	98000096 	stmdals	r0, {r1, r2, r4, r7}
    1920:	01000096 	swpeq	r0, r6, [r0]	; <UNPREDICTABLE>
    1924:	00005300 	andeq	r5, r0, r0, lsl #6
    1928:	00000000 	andeq	r0, r0, r0
    192c:	00020000 	andeq	r0, r2, r0
    1930:	966c0000 	strbtls	r0, [ip], -r0
    1934:	96700000 	ldrbtls	r0, [r0], -r0
    1938:	00020000 	andeq	r0, r2, r0
    193c:	96709f30 	uhasxls	r9, r0, r0
    1940:	96740000 	ldrbtls	r0, [r4], -r0
    1944:	00010000 	andeq	r0, r1, r0
    1948:	00000050 	andeq	r0, r0, r0, asr r0
	...
    1954:	00006c00 	andeq	r6, r0, r0, lsl #24
    1958:	00007800 	andeq	r7, r0, r0, lsl #16
    195c:	50000100 	andpl	r0, r0, r0, lsl #2
    1960:	00000078 	andeq	r0, r0, r8, ror r0
    1964:	00000084 	andeq	r0, r0, r4, lsl #1
    1968:	01f30004 	mvnseq	r0, r4
    196c:	00009f50 	andeq	r9, r0, r0, asr pc
	...
    1978:	00540000 	subseq	r0, r4, r0
    197c:	00600000 	rsbeq	r0, r0, r0
    1980:	00010000 	andeq	r0, r1, r0
    1984:	00006050 	andeq	r6, r0, r0, asr r0
    1988:	00006c00 	andeq	r6, r0, r0, lsl #24
    198c:	f3000400 	vshl.u8	d0, d0, d0
    1990:	009f5001 	addseq	r5, pc, r1
	...
    199c:	30000000 	andcc	r0, r0, r0
    19a0:	3b000000 	blcc	19a8 <__code_start__-0x6658>
    19a4:	01000000 	mrseq	r0, (UNDEF: 0)
    19a8:	003b5000 	eorseq	r5, fp, r0
    19ac:	00540000 	subseq	r0, r4, r0
    19b0:	00010000 	andeq	r0, r1, r0
    19b4:	00000055 	andeq	r0, r0, r5, asr r0
    19b8:	00000000 	andeq	r0, r0, r0
    19bc:	40000000 	andmi	r0, r0, r0
    19c0:	54000000 	strpl	r0, [r0], #-0
    19c4:	01000000 	mrseq	r0, (UNDEF: 0)
    19c8:	00005400 	andeq	r5, r0, r0, lsl #8
	...
    19d4:	00000044 	andeq	r0, r0, r4, asr #32
    19d8:	00000048 	andeq	r0, r0, r8, asr #32
    19dc:	00500001 	subseq	r0, r0, r1
	...
    19e8:	24000000 	strcs	r0, [r0], #-0
    19ec:	27000000 	strcs	r0, [r0, -r0]
    19f0:	01000000 	mrseq	r0, (UNDEF: 0)
    19f4:	00275000 	eoreq	r5, r7, r0
    19f8:	00300000 	eorseq	r0, r0, r0
    19fc:	00010000 	andeq	r0, r1, r0
    1a00:	00000054 	andeq	r0, r0, r4, asr r0
	...
    1a0c:	00015800 	andeq	r5, r1, r0, lsl #16
    1a10:	00016300 	andeq	r6, r1, r0, lsl #6
    1a14:	50000100 	andpl	r0, r0, r0, lsl #2
    1a18:	00000163 	andeq	r0, r0, r3, ror #2
    1a1c:	00000188 	andeq	r0, r0, r8, lsl #3
    1a20:	00540001 	subseq	r0, r4, r1
	...
    1a2c:	00014800 	andeq	r4, r1, r0, lsl #16
    1a30:	00015800 	andeq	r5, r1, r0, lsl #16
    1a34:	54000100 	strpl	r0, [r0], #-256	; 0xffffff00
	...
    1a48:	0000000f 	andeq	r0, r0, pc
    1a4c:	0f500001 	svceq	0x00500001
    1a50:	20000000 	andcs	r0, r0, r0
    1a54:	01000000 	mrseq	r0, (UNDEF: 0)
    1a58:	00005400 	andeq	r5, r0, r0, lsl #8
	...
    1a68:	000f0000 	andeq	r0, pc, r0
    1a6c:	00010000 	andeq	r0, r1, r0
    1a70:	00000f51 	andeq	r0, r0, r1, asr pc
    1a74:	00002000 	andeq	r2, r0, r0
    1a78:	55000100 	strpl	r0, [r0, #-256]	; 0xffffff00
	...
    1a88:	00000020 	andeq	r0, r0, r0, lsr #32
    1a8c:	0000002f 	andeq	r0, r0, pc, lsr #32
    1a90:	2f500001 	svccs	0x00500001
    1a94:	40000000 	andmi	r0, r0, r0
    1a98:	01000000 	mrseq	r0, (UNDEF: 0)
    1a9c:	00005400 	andeq	r5, r0, r0, lsl #8
	...
    1aa8:	00200000 	eoreq	r0, r0, r0
    1aac:	002f0000 	eoreq	r0, pc, r0
    1ab0:	00010000 	andeq	r0, r1, r0
    1ab4:	00002f51 	andeq	r2, r0, r1, asr pc
    1ab8:	00004000 	andeq	r4, r0, r0
    1abc:	55000100 	strpl	r0, [r0, #-256]	; 0xffffff00
	...
    1acc:	00000130 	andeq	r0, r0, r0, lsr r1
    1ad0:	00000138 	andeq	r0, r0, r8, lsr r1
    1ad4:	38500001 	ldmdacc	r0, {r0}^
    1ad8:	48000001 	stmdami	r0, {r0}
    1adc:	04000001 	streq	r0, [r0], #-1
    1ae0:	5001f300 	andpl	pc, r1, r0, lsl #6
    1ae4:	0000009f 	muleq	r0, pc, r0	; <UNPREDICTABLE>
	...
    1af0:	00012000 	andeq	r2, r1, r0
    1af4:	00012b00 	andeq	r2, r1, r0, lsl #22
    1af8:	50000100 	andpl	r0, r0, r0, lsl #2
    1afc:	0000012b 	andeq	r0, r0, fp, lsr #2
    1b00:	00000130 	andeq	r0, r0, r0, lsr r1
    1b04:	01f30004 	mvnseq	r0, r4
    1b08:	00009f50 	andeq	r9, r0, r0, asr pc
	...
    1b14:	01100000 	tsteq	r0, r0
    1b18:	011b0000 	tsteq	fp, r0
    1b1c:	00010000 	andeq	r0, r1, r0
    1b20:	00011b50 	andeq	r1, r1, r0, asr fp
    1b24:	00012000 	andeq	r2, r1, r0
    1b28:	f3000400 	vshl.u8	d0, d0, d0
    1b2c:	009f5001 	addseq	r5, pc, r1
	...
    1b3c:	0b000001 	bleq	1b48 <__code_start__-0x64b8>
    1b40:	01000001 	tsteq	r0, r1
    1b44:	010b5000 	mrseq	r5, (UNDEF: 11)
    1b48:	01100000 	tsteq	r0, r0
    1b4c:	00040000 	andeq	r0, r4, r0
    1b50:	9f5001f3 	svcls	0x005001f3
	...
    1b70:	00000028 	andeq	r0, r0, r8, lsr #32
    1b74:	28500001 	ldmdacs	r0, {r0}^
    1b78:	30000000 	andcc	r0, r0, r0
    1b7c:	01000000 	mrseq	r0, (UNDEF: 0)
    1b80:	00305500 	eorseq	r5, r0, r0, lsl #10
    1b84:	00330000 	eorseq	r0, r3, r0
    1b88:	00010000 	andeq	r0, r1, r0
    1b8c:	00003350 	andeq	r3, r0, r0, asr r3
    1b90:	00005400 	andeq	r5, r0, r0, lsl #8
    1b94:	f3000400 	vshl.u8	d0, d0, d0
    1b98:	549f5001 	ldrpl	r5, [pc], #1	; 1ba0 <__code_start__-0x6460>
    1b9c:	57000000 	strpl	r0, [r0, -r0]
    1ba0:	01000000 	mrseq	r0, (UNDEF: 0)
    1ba4:	00575000 	subseq	r5, r7, r0
    1ba8:	00780000 	rsbseq	r0, r8, r0
    1bac:	00010000 	andeq	r0, r1, r0
    1bb0:	00007855 	andeq	r7, r0, r5, asr r8
    1bb4:	00007b00 	andeq	r7, r0, r0, lsl #22
    1bb8:	50000100 	andpl	r0, r0, r0, lsl #2
    1bbc:	0000007b 	andeq	r0, r0, fp, ror r0
    1bc0:	00000100 	andeq	r0, r0, r0, lsl #2
    1bc4:	00550001 	subseq	r0, r5, r1
	...
    1be4:	00002800 	andeq	r2, r0, r0, lsl #16
    1be8:	51000100 	mrspl	r0, (UNDEF: 16)
    1bec:	00000028 	andeq	r0, r0, r8, lsr #32
    1bf0:	00000030 	andeq	r0, r0, r0, lsr r0
    1bf4:	01f30004 	mvnseq	r0, r4
    1bf8:	00309f51 	eorseq	r9, r0, r1, asr pc
    1bfc:	00330000 	eorseq	r0, r3, r0
    1c00:	00010000 	andeq	r0, r1, r0
    1c04:	00003351 	andeq	r3, r0, r1, asr r3
    1c08:	00005400 	andeq	r5, r0, r0, lsl #8
    1c0c:	f3000400 	vshl.u8	d0, d0, d0
    1c10:	549f5101 	ldrpl	r5, [pc], #257	; 1c18 <__code_start__-0x63e8>
    1c14:	57000000 	strpl	r0, [r0, -r0]
    1c18:	01000000 	mrseq	r0, (UNDEF: 0)
    1c1c:	00575100 	subseq	r5, r7, r0, lsl #2
    1c20:	00780000 	rsbseq	r0, r8, r0
    1c24:	00010000 	andeq	r0, r1, r0
    1c28:	00007854 	andeq	r7, r0, r4, asr r8
    1c2c:	00007b00 	andeq	r7, r0, r0, lsl #22
    1c30:	51000100 	mrspl	r0, (UNDEF: 16)
    1c34:	0000007b 	andeq	r0, r0, fp, ror r0
    1c38:	00000098 	muleq	r0, r8, r0
    1c3c:	98540001 	ldmdals	r4, {r0}^
    1c40:	00000000 	andeq	r0, r0, r0
    1c44:	04000001 	streq	r0, [r0], #-1
    1c48:	5101f300 	mrspl	pc, SP_irq	; <UNPREDICTABLE>
    1c4c:	0000009f 	muleq	r0, pc, r0	; <UNPREDICTABLE>
	...
    1c5c:	00000b00 	andeq	r0, r0, r0, lsl #22
    1c60:	50000100 	andpl	r0, r0, r0, lsl #2
    1c64:	0000000b 	andeq	r0, r0, fp
    1c68:	00000014 	andeq	r0, r0, r4, lsl r0
    1c6c:	00540001 	subseq	r0, r4, r1
	...
    1c7c:	1c000000 	stcne	0, cr0, [r0], {-0}
    1c80:	01000000 	mrseq	r0, (UNDEF: 0)
    1c84:	001c5100 	andseq	r5, ip, r0, lsl #2
    1c88:	00340000 	eorseq	r0, r4, r0
    1c8c:	00040000 	andeq	r0, r4, r0
    1c90:	9f5101f3 	svcls	0x005101f3
	...
    1c9c:	00000002 	andeq	r0, r0, r2
    1ca0:	00010100 	andeq	r0, r1, r0, lsl #2
    1ca4:	00000000 	andeq	r0, r0, r0
    1ca8:	00040000 	andeq	r0, r4, r0
    1cac:	00010000 	andeq	r0, r1, r0
    1cb0:	00000450 	andeq	r0, r0, r0, asr r4
    1cb4:	00001c00 	andeq	r1, r0, r0, lsl #24
    1cb8:	52000100 	andpl	r0, r0, #0
    1cbc:	0000001c 	andeq	r0, r0, ip, lsl r0
    1cc0:	00000024 	andeq	r0, r0, r4, lsr #32
    1cc4:	24530001 	ldrbcs	r0, [r3], #-1
    1cc8:	28000000 	stmdacs	r0, {}	; <UNPREDICTABLE>
    1ccc:	03000000 	movweq	r0, #0
    1cd0:	9f017300 	svcls	0x00017300
    1cd4:	00000028 	andeq	r0, r0, r8, lsr #32
    1cd8:	00000034 	andeq	r0, r0, r4, lsr r0
    1cdc:	00530001 	subseq	r0, r3, r1
    1ce0:	00000000 	andeq	r0, r0, r0
    1ce4:	03000000 	movweq	r0, #0
    1ce8:	00000000 	andeq	r0, r0, r0
    1cec:	24000000 	strcs	r0, [r0], #-0
    1cf0:	01000000 	mrseq	r0, (UNDEF: 0)
    1cf4:	00245100 	eoreq	r5, r4, r0, lsl #2
    1cf8:	00340000 	eorseq	r0, r4, r0
    1cfc:	00030000 	andeq	r0, r3, r0
    1d00:	009f7f71 	addseq	r7, pc, r1, ror pc	; <UNPREDICTABLE>
	...
    1d0c:	10000000 	andne	r0, r0, r0
    1d10:	1c000000 	stcne	0, cr0, [r0], {-0}
    1d14:	01000000 	mrseq	r0, (UNDEF: 0)
    1d18:	00245c00 	eoreq	r5, r4, r0, lsl #24
    1d1c:	00340000 	eorseq	r0, r4, r0
    1d20:	00010000 	andeq	r0, r1, r0
    1d24:	00000052 	andeq	r0, r0, r2, asr r0
	...
    1d34:	00001800 	andeq	r1, r0, r0, lsl #16
    1d38:	50000100 	andpl	r0, r0, r0, lsl #2
    1d3c:	00000018 	andeq	r0, r0, r8, lsl r0
    1d40:	00000024 	andeq	r0, r0, r4, lsr #32
    1d44:	00500001 	subseq	r0, r0, r1
	...
    1d54:	1c000000 	stcne	0, cr0, [r0], {-0}
    1d58:	01000000 	mrseq	r0, (UNDEF: 0)
    1d5c:	001c5100 	andseq	r5, ip, r0, lsl #2
    1d60:	002c0000 	eoreq	r0, ip, r0
    1d64:	00010000 	andeq	r0, r1, r0
    1d68:	00000051 	andeq	r0, r0, r1, asr r0
	...
    1d78:	04000000 	streq	r0, [r0], #-0
    1d7c:	01000000 	mrseq	r0, (UNDEF: 0)
    1d80:	00045100 	andeq	r5, r4, r0, lsl #2
    1d84:	000c0000 	andeq	r0, ip, r0
    1d88:	00010000 	andeq	r0, r1, r0
    1d8c:	00000c51 	andeq	r0, r0, r1, asr ip
    1d90:	00002000 	andeq	r2, r0, r0
    1d94:	71000300 	mrsvc	r0, LR_irq
    1d98:	00009f7f 	andeq	r9, r0, pc, ror pc
    1d9c:	00000000 	andeq	r0, r0, r0
    1da0:	00020000 	andeq	r0, r2, r0
	...
    1dac:	00000004 	andeq	r0, r0, r4
    1db0:	04500001 	ldrbeq	r0, [r0], #-1
    1db4:	14000000 	strne	r0, [r0], #-0
    1db8:	01000000 	mrseq	r0, (UNDEF: 0)
    1dbc:	00145c00 	andseq	r5, r4, r0, lsl #24
    1dc0:	00200000 	eoreq	r0, r0, r0
    1dc4:	00030000 	andeq	r0, r3, r0
    1dc8:	009f7f7c 	addseq	r7, pc, ip, ror pc	; <UNPREDICTABLE>
	...
    1dd4:	64000303 	strvs	r0, [r0], #-771	; 0xfffffcfd
    1dd8:	6400009b 	strvs	r0, [r0], #-155	; 0xffffff65
    1ddc:	0100009b 	swpeq	r0, fp, [r0]	; <UNPREDICTABLE>
    1de0:	9b645000 	blls	1915de8 <__bss_end__+0x190a860>
    1de4:	9b900000 	blls	fe401dec <__bss_end__+0xfe3f6864>
    1de8:	00040000 	andeq	r0, r4, r0
    1dec:	9f5001f3 	svcls	0x005001f3
	...
    1df8:	00030300 	andeq	r0, r3, r0, lsl #6
    1dfc:	00009b64 	andeq	r9, r0, r4, ror #22
    1e00:	00009b64 	andeq	r9, r0, r4, ror #22
    1e04:	64510001 	ldrbvs	r0, [r1], #-1
    1e08:	9000009b 	mulls	r0, fp, r0
    1e0c:	0400009b 	streq	r0, [r0], #-155	; 0xffffff65
    1e10:	5101f300 	mrspl	pc, SP_irq	; <UNPREDICTABLE>
    1e14:	0000009f 	muleq	r0, pc, r0	; <UNPREDICTABLE>
    1e18:	00000000 	andeq	r0, r0, r0
    1e1c:	03030000 	movweq	r0, #12288	; 0x3000
    1e20:	64000000 	strvs	r0, [r0], #-0
    1e24:	6400009b 	strvs	r0, [r0], #-155	; 0xffffff65
    1e28:	0100009b 	swpeq	r0, fp, [r0]	; <UNPREDICTABLE>
    1e2c:	9b645200 	blls	1916634 <__bss_end__+0x190b0ac>
    1e30:	9b6c0000 	blls	1b01e38 <__bss_end__+0x1af68b0>
    1e34:	00010000 	andeq	r0, r1, r0
    1e38:	009b6c52 	addseq	r6, fp, r2, asr ip
    1e3c:	009b9000 	addseq	r9, fp, r0
    1e40:	72000300 	andvc	r0, r0, #0, 6
    1e44:	00009f01 	andeq	r9, r0, r1, lsl #30
    1e48:	00000000 	andeq	r0, r0, r0
    1e4c:	01020000 	mrseq	r0, (UNDEF: 2)
    1e50:	00000001 	andeq	r0, r0, r1
    1e54:	9b640000 	blls	1901e5c <__bss_end__+0x18f68d4>
    1e58:	9b700000 	blls	1c01e60 <__bss_end__+0x1bf68d8>
    1e5c:	00010000 	andeq	r0, r1, r0
    1e60:	009b7050 	addseq	r7, fp, r0, asr r0
    1e64:	009b7400 	addseq	r7, fp, r0, lsl #8
    1e68:	70000300 	andvc	r0, r0, r0, lsl #6
    1e6c:	9b749f01 	blls	1d29a78 <__bss_end__+0x1d1e4f0>
    1e70:	9b840000 	blls	fe101e78 <__bss_end__+0xfe0f68f0>
    1e74:	00010000 	andeq	r0, r1, r0
    1e78:	009b8850 	addseq	r8, fp, r0, asr r8
    1e7c:	009b8c00 	addseq	r8, fp, r0, lsl #24
    1e80:	50000100 	andpl	r0, r0, r0, lsl #2
	...
    1e8c:	00000002 	andeq	r0, r0, r2
    1e90:	9b640000 	blls	1901e98 <__bss_end__+0x18f6910>
    1e94:	9b740000 	blls	1d01e9c <__bss_end__+0x1cf6914>
    1e98:	00010000 	andeq	r0, r1, r0
    1e9c:	009b7451 	addseq	r7, fp, r1, asr r4
    1ea0:	009b7800 	addseq	r7, fp, r0, lsl #16
    1ea4:	71000300 	mrsvc	r0, LR_irq
    1ea8:	9b789f01 	blls	1e29ab4 <__bss_end__+0x1e1e52c>
    1eac:	9b900000 	blls	fe401eb4 <__bss_end__+0xfe3f692c>
    1eb0:	00010000 	andeq	r0, r1, r0
    1eb4:	00000051 	andeq	r0, r0, r1, asr r0
    1eb8:	00000000 	andeq	r0, r0, r0
	...

Disassembly of section .debug_aranges:

00000000 <.debug_aranges>:
   0:	0000001c 	andeq	r0, r0, ip, lsl r0
   4:	00000002 	andeq	r0, r0, r2
   8:	00040000 	andeq	r0, r4, r0
   c:	00000000 	andeq	r0, r0, r0
  10:	00008038 	andeq	r8, r0, r8, lsr r0
  14:	00000858 	andeq	r0, r0, r8, asr r8
	...
  20:	0000001c 	andeq	r0, r0, ip, lsl r0
  24:	0fec0002 	svceq	0x00ec0002
  28:	00040000 	andeq	r0, r4, r0
  2c:	00000000 	andeq	r0, r0, r0
  30:	00008890 	muleq	r0, r0, r8
  34:	000001bc 			; <UNDEFINED> instruction: 0x000001bc
	...
  40:	0000001c 	andeq	r0, r0, ip, lsl r0
  44:	144c0002 	strbne	r0, [ip], #-2
  48:	00040000 	andeq	r0, r4, r0
  4c:	00000000 	andeq	r0, r0, r0
  50:	00008a4c 	andeq	r8, r0, ip, asr #20
  54:	0000011c 	andeq	r0, r0, ip, lsl r1
	...
  60:	0000001c 	andeq	r0, r0, ip, lsl r0
  64:	18420002 	stmdane	r2, {r1}^
  68:	00040000 	andeq	r0, r4, r0
  6c:	00000000 	andeq	r0, r0, r0
  70:	00008c88 	andeq	r8, r0, r8, lsl #25
  74:	00000058 	andeq	r0, r0, r8, asr r0
	...
  80:	0000001c 	andeq	r0, r0, ip, lsl r0
  84:	19e30002 	stmibne	r3!, {r1}^
  88:	00040000 	andeq	r0, r4, r0
  8c:	00000000 	andeq	r0, r0, r0
  90:	00008ce0 	andeq	r8, r0, r0, ror #25
  94:	00000034 	andeq	r0, r0, r4, lsr r0
	...
  a0:	0000001c 	andeq	r0, r0, ip, lsl r0
  a4:	1ada0002 	bne	ff6800b4 <__bss_end__+0xff674b2c>
  a8:	00040000 	andeq	r0, r4, r0
  ac:	00000000 	andeq	r0, r0, r0
  b0:	00008d14 	andeq	r8, r0, r4, lsl sp
  b4:	00000740 	andeq	r0, r0, r0, asr #14
	...
  c0:	0000001c 	andeq	r0, r0, ip, lsl r0
  c4:	25b50002 	ldrcs	r0, [r5, #2]!
  c8:	00040000 	andeq	r0, r4, r0
  cc:	00000000 	andeq	r0, r0, r0
  d0:	00009454 	andeq	r9, r0, r4, asr r4
  d4:	0000002c 	andeq	r0, r0, ip, lsr #32
	...
  e0:	0000001c 	andeq	r0, r0, ip, lsl r0
  e4:	26e80002 	strbtcs	r0, [r8], r2
  e8:	00040000 	andeq	r0, r4, r0
  ec:	00000000 	andeq	r0, r0, r0
  f0:	00009480 	andeq	r9, r0, r0, lsl #9
  f4:	0000003c 	andeq	r0, r0, ip, lsr r0
	...
 100:	0000001c 	andeq	r0, r0, ip, lsl r0
 104:	28750002 	ldmdacs	r5!, {r1}^
 108:	00040000 	andeq	r0, r4, r0
 10c:	00000000 	andeq	r0, r0, r0
 110:	000094bc 			; <UNDEFINED> instruction: 0x000094bc
 114:	00000004 	andeq	r0, r0, r4
	...
 120:	0000001c 	andeq	r0, r0, ip, lsl r0
 124:	29470002 	stmdbcs	r7, {r1}^
 128:	00040000 	andeq	r0, r4, r0
 12c:	00000000 	andeq	r0, r0, r0
 130:	000094c0 	andeq	r9, r0, r0, asr #9
 134:	0000003c 	andeq	r0, r0, ip, lsr r0
	...
 140:	0000001c 	andeq	r0, r0, ip, lsl r0
 144:	2ab60002 	bcs	fed80154 <__bss_end__+0xfed74bcc>
 148:	00040000 	andeq	r0, r4, r0
 14c:	00000000 	andeq	r0, r0, r0
 150:	000094fc 	strdeq	r9, [r0], -ip
 154:	0000003c 	andeq	r0, r0, ip, lsr r0
	...
 160:	0000001c 	andeq	r0, r0, ip, lsl r0
 164:	2c250002 	stccs	0, cr0, [r5], #-8
 168:	00040000 	andeq	r0, r4, r0
 16c:	00000000 	andeq	r0, r0, r0
 170:	00009538 	andeq	r9, r0, r8, lsr r5
 174:	0000003c 	andeq	r0, r0, ip, lsr r0
	...
 180:	0000001c 	andeq	r0, r0, ip, lsl r0
 184:	2d940002 	ldccs	0, cr0, [r4, #8]
 188:	00040000 	andeq	r0, r4, r0
 18c:	00000000 	andeq	r0, r0, r0
 190:	00009574 	andeq	r9, r0, r4, ror r5
 194:	0000003c 	andeq	r0, r0, ip, lsr r0
	...
 1a0:	0000001c 	andeq	r0, r0, ip, lsl r0
 1a4:	2f030002 	svccs	0x00030002
 1a8:	00040000 	andeq	r0, r4, r0
 1ac:	00000000 	andeq	r0, r0, r0
 1b0:	000095b0 			; <UNDEFINED> instruction: 0x000095b0
 1b4:	0000003c 	andeq	r0, r0, ip, lsr r0
	...
 1c0:	0000001c 	andeq	r0, r0, ip, lsl r0
 1c4:	30720002 	rsbscc	r0, r2, r2
 1c8:	00040000 	andeq	r0, r4, r0
 1cc:	00000000 	andeq	r0, r0, r0
 1d0:	000095ec 	andeq	r9, r0, ip, ror #11
 1d4:	00000068 	andeq	r0, r0, r8, rrx
	...
 1e0:	0000001c 	andeq	r0, r0, ip, lsl r0
 1e4:	32880002 	addcc	r0, r8, #2, 0
 1e8:	00040000 	andeq	r0, r4, r0
 1ec:	00000000 	andeq	r0, r0, r0
 1f0:	0000966c 	andeq	r9, r0, ip, ror #12
 1f4:	00000080 	andeq	r0, r0, r0, lsl #1
	...
 200:	0000001c 	andeq	r0, r0, ip, lsl r0
 204:	34c20002 	strbcc	r0, [r2], #2
 208:	00040000 	andeq	r0, r4, r0
 20c:	00000000 	andeq	r0, r0, r0
 210:	000096ec 	andeq	r9, r0, ip, ror #13
 214:	00000084 	andeq	r0, r0, r4, lsl #1
	...
 220:	0000001c 	andeq	r0, r0, ip, lsl r0
 224:	37130002 	ldrcc	r0, [r3, -r2]
 228:	00040000 	andeq	r0, r4, r0
 22c:	00000000 	andeq	r0, r0, r0
 230:	00009770 	andeq	r9, r0, r0, ror r7
 234:	000001f0 	strdeq	r0, [r0], -r0	; <UNPREDICTABLE>
	...
 240:	0000001c 	andeq	r0, r0, ip, lsl r0
 244:	3ce40002 	stclcc	0, cr0, [r4], #8
 248:	00040000 	andeq	r0, r4, r0
 24c:	00000000 	andeq	r0, r0, r0
 250:	00009960 	andeq	r9, r0, r0, ror #18
 254:	00000148 	andeq	r0, r0, r8, asr #2
	...
 260:	0000001c 	andeq	r0, r0, ip, lsl r0
 264:	408e0002 	addmi	r0, lr, r2
 268:	00040000 	andeq	r0, r4, r0
 26c:	00000000 	andeq	r0, r0, r0
 270:	00009aa8 	andeq	r9, r0, r8, lsr #21
 274:	0000003c 	andeq	r0, r0, ip, lsr r0
	...
 280:	0000001c 	andeq	r0, r0, ip, lsl r0
 284:	41db0002 	bicsmi	r0, fp, r2
 288:	00040000 	andeq	r0, r4, r0
 28c:	00000000 	andeq	r0, r0, r0
 290:	00009ae4 	andeq	r9, r0, r4, ror #21
 294:	00000034 	andeq	r0, r0, r4, lsr r0
	...
 2a0:	0000001c 	andeq	r0, r0, ip, lsl r0
 2a4:	43160002 	tstmi	r6, #2, 0
 2a8:	00040000 	andeq	r0, r4, r0
 2ac:	00000000 	andeq	r0, r0, r0
 2b0:	00009b18 	andeq	r9, r0, r8, lsl fp
 2b4:	0000002c 	andeq	r0, r0, ip, lsr #32
	...
 2c0:	0000001c 	andeq	r0, r0, ip, lsl r0
 2c4:	44110002 	ldrmi	r0, [r1], #-2
 2c8:	00040000 	andeq	r0, r4, r0
 2cc:	00000000 	andeq	r0, r0, r0
 2d0:	00009b44 	andeq	r9, r0, r4, asr #22
 2d4:	00000020 	andeq	r0, r0, r0, lsr #32
	...
 2e0:	0000001c 	andeq	r0, r0, ip, lsl r0
 2e4:	45240002 	strmi	r0, [r4, #-2]!
 2e8:	00040000 	andeq	r0, r4, r0
 2ec:	00000000 	andeq	r0, r0, r0
 2f0:	00009b64 	andeq	r9, r0, r4, ror #22
 2f4:	0000002c 	andeq	r0, r0, ip, lsr #32
	...
 300:	0000001c 	andeq	r0, r0, ip, lsl r0
 304:	46760002 	ldrbtmi	r0, [r6], -r2
 308:	00040000 	andeq	r0, r4, r0
 30c:	00000000 	andeq	r0, r0, r0
 310:	00009b90 	muleq	r0, r0, fp
 314:	00000004 	andeq	r0, r0, r4
	...

Disassembly of section .debug_ranges:

00000000 <.debug_ranges>:
   0:	000001d8 	ldrdeq	r0, [r0], -r8
   4:	000001ec 	andeq	r0, r0, ip, ror #3
   8:	000001f8 	strdeq	r0, [r0], -r8
   c:	00000218 	andeq	r0, r0, r8, lsl r2
	...
  18:	000003c4 	andeq	r0, r0, r4, asr #7
  1c:	000003cc 	andeq	r0, r0, ip, asr #7
  20:	000003ec 	andeq	r0, r0, ip, ror #7
  24:	0000044c 	andeq	r0, r0, ip, asr #8
	...
  30:	00000494 	muleq	r0, r4, r4
  34:	00000498 	muleq	r0, r8, r4
  38:	000004a0 	andeq	r0, r0, r0, lsr #9
  3c:	000004c8 	andeq	r0, r0, r8, asr #9
	...
  48:	00000518 	andeq	r0, r0, r8, lsl r5
  4c:	00000518 	andeq	r0, r0, r8, lsl r5
  50:	0000051c 	andeq	r0, r0, ip, lsl r5
  54:	00000520 	andeq	r0, r0, r0, lsr #10
  58:	00000540 	andeq	r0, r0, r0, asr #10
  5c:	000005d4 	ldrdeq	r0, [r0], -r4
	...
  68:	00000768 	andeq	r0, r0, r8, ror #14
  6c:	000007a8 	andeq	r0, r0, r8, lsr #15
  70:	000007a8 	andeq	r0, r0, r8, lsr #15
  74:	00000804 	andeq	r0, r0, r4, lsl #16
	...
  80:	0000966c 	andeq	r9, r0, ip, ror #12
  84:	000096ec 	andeq	r9, r0, ip, ror #13
	...
  90:	00009b64 	andeq	r9, r0, r4, ror #22
  94:	00009b90 	muleq	r0, r0, fp
	...

Disassembly of section .debug_line:

00000000 <.debug_line>:
       0:	00000749 	andeq	r0, r0, r9, asr #14
       4:	00da0003 	sbcseq	r0, sl, r3
       8:	01020000 	mrseq	r0, (UNDEF: 2)
       c:	000d0efb 	strdeq	r0, [sp], -fp
      10:	01010101 	tsteq	r1, r1, lsl #2
      14:	01000000 	mrseq	r0, (UNDEF: 0)
      18:	2f010000 	svccs	0x00010000
      1c:	72657355 	rsbvc	r7, r5, #1409286145	; 0x54000001
      20:	696d2f73 	stmdbvs	sp!, {r0, r1, r4, r5, r6, r8, r9, sl, fp, sp}^
      24:	2f73656c 	svccs	0x0073656c
      28:	72756f53 	rsbsvc	r6, r5, #332	; 0x14c
      2c:	632f6563 			; <UNDEFINED> instruction: 0x632f6563
      30:	30343273 	eorscc	r3, r4, r3, ror r2
      34:	6c2f786c 	stcvs	8, cr7, [pc], #-432	; fffffe8c <__bss_end__+0xffff4904>
      38:	69706269 	ldmdbvs	r0!, {r0, r3, r5, r6, r9, sp, lr}^
      3c:	636e692f 	cmnvs	lr, #770048	; 0xbc000
      40:	6564756c 	strbvs	r7, [r4, #-1388]!	; 0xfffffa94
      44:	706f2f00 	rsbvc	r2, pc, r0, lsl #30
      48:	6f682f74 	svcvs	0x00682f74
      4c:	7262656d 	rsbvc	r6, r2, #457179136	; 0x1b400000
      50:	432f7765 			; <UNDEFINED> instruction: 0x432f7765
      54:	616c6c65 	cmnvs	ip, r5, ror #24
      58:	72612f72 	rsbvc	r2, r1, #456	; 0x1c8
      5c:	6f6e2d6d 	svcvs	0x006e2d6d
      60:	652d656e 	strvs	r6, [sp, #-1390]!	; 0xfffffa92
      64:	2d696261 	sfmcs	f6, 2, [r9, #-388]!	; 0xfffffe7c
      68:	74736574 	ldrbtvc	r6, [r3], #-1396	; 0xfffffa8c
      6c:	322d392f 	eorcc	r3, sp, #770048	; 0xbc000
      70:	71393130 	teqvc	r9, r0, lsr r1
      74:	73632d34 	cmnvc	r3, #52, 26	; 0xd00
      78:	65373031 	ldrvs	r3, [r7, #-49]!	; 0xffffffcf
      7c:	62696c2f 	rsbvs	r6, r9, #12032	; 0x2f00
      80:	6363672f 	cmnvs	r3, #12320768	; 0xbc0000
      84:	6d72612f 	ldfvse	f6, [r2, #-188]!	; 0xffffff44
      88:	6e6f6e2d 	cdpvs	14, 6, cr6, cr15, cr13, {1}
      8c:	61652d65 	cmnvs	r5, r5, ror #26
      90:	392f6962 	stmdbcc	pc!, {r1, r5, r6, r8, fp, sp, lr}	; <UNPREDICTABLE>
      94:	312e322e 			; <UNDEFINED> instruction: 0x312e322e
      98:	636e692f 	cmnvs	lr, #770048	; 0xbc000
      9c:	6564756c 	strbvs	r7, [r4, #-1388]!	; 0xfffffa94
      a0:	73740000 	cmnvc	r4, #0, 0
      a4:	632e706f 			; <UNDEFINED> instruction: 0x632e706f
      a8:	00000000 	andeq	r0, r0, r0
      ac:	2e697072 	mcrcs	0, 3, r7, cr9, cr2, {3}
      b0:	00010068 	andeq	r0, r1, r8, rrx
      b4:	64747300 	ldrbtvs	r7, [r4], #-768	; 0xfffffd00
      b8:	2d746e69 	ldclcs	14, cr6, [r4, #-420]!	; 0xfffffe5c
      bc:	2e636367 	cdpcs	3, 6, cr6, cr3, cr7, {3}
      c0:	00020068 	andeq	r0, r2, r8, rrx
      c4:	69706700 	ldmdbvs	r0!, {r8, r9, sl, sp, lr}^
      c8:	00682e6f 	rsbeq	r2, r8, pc, ror #28
      cc:	72000001 	andvc	r0, r0, #1, 0
      d0:	692d6970 	pushvs	{r4, r5, r6, r8, fp, sp, lr}
      d4:	7265746e 	rsbvc	r7, r5, #1845493760	; 0x6e000000
      d8:	74707572 	ldrbtvc	r7, [r0], #-1394	; 0xfffffa8e
      dc:	00682e73 	rsbeq	r2, r8, r3, ror lr
      e0:	00000001 	andeq	r0, r0, r1
      e4:	05001705 	streq	r1, [r0, #-1797]	; 0xfffff8fb
      e8:	00803802 	addeq	r3, r0, r2, lsl #16
      ec:	00d20300 	sbcseq	r0, r2, r0, lsl #6
      f0:	13050501 	movwne	r0, #21761	; 0x5501
      f4:	13060105 	movwne	r0, #24837	; 0x6105
      f8:	0628054a 	strteq	r0, [r8], -sl, asr #10
      fc:	062e0e03 	strteq	r0, [lr], -r3, lsl #28
     100:	06050501 	streq	r0, [r5], -r1, lsl #10
     104:	0617054b 	ldreq	r0, [r7], -fp, asr #10
     108:	2e0d0501 	cfsh32cs	mvfx0, mvfx13, #1
     10c:	054a3105 	strbeq	r3, [sl, #-261]	; 0xfffffefb
     110:	04020035 	streq	r0, [r2], #-53	; 0xffffffcb
     114:	31054a01 	tstcc	r5, r1, lsl #20
     118:	01040200 	mrseq	r0, R12_usr
     11c:	01054a2e 	tsteq	r5, lr, lsr #20
     120:	063f059f 			; <UNDEFINED> instruction: 0x063f059f
     124:	062e7303 	strteq	r7, [lr], -r3, lsl #6
     128:	06050501 	streq	r0, [r5], -r1, lsl #10
     12c:	0200014b 	andeq	r0, r0, #-1073741806	; 0xc0000012
     130:	00820204 	addeq	r0, r2, r4, lsl #4
     134:	01020402 	tsteq	r2, r2, lsl #8
     138:	02040200 	andeq	r0, r4, #0, 4
     13c:	00100513 	andseq	r0, r0, r3, lsl r5
     140:	06020402 	streq	r0, [r2], -r2, lsl #8
     144:	00050501 	andeq	r0, r5, r1, lsl #10
     148:	06020402 	streq	r0, [r2], -r2, lsl #8
     14c:	0017052f 	andseq	r0, r7, pc, lsr #10
     150:	06020402 	streq	r0, [r2], -r2, lsl #8
     154:	04020001 	streq	r0, [r2], #-1
     158:	02002e02 	andeq	r2, r0, #2, 28
     15c:	052e0204 	streq	r0, [lr, #-516]!	; 0xfffffdfc
     160:	04020005 	streq	r0, [r2], #-5
     164:	052f0602 	streq	r0, [pc, #-1538]!	; fffffb6a <__bss_end__+0xffff45e2>
     168:	04020017 	streq	r0, [r2], #-23	; 0xffffffe9
     16c:	00010602 	andeq	r0, r1, r2, lsl #12
     170:	2e020402 	cdpcs	4, 0, cr0, cr2, cr2, {0}
     174:	02000505 	andeq	r0, r0, #20971520	; 0x1400000
     178:	2f060204 	svccs	0x00060204
     17c:	02000105 	andeq	r0, r0, #1073741825	; 0x40000001
     180:	15060204 	strne	r0, [r6, #-516]	; 0xfffffdfc
     184:	02040200 	andeq	r0, r4, #0, 4
     188:	0005054a 	andeq	r0, r5, sl, asr #10
     18c:	06010402 	streq	r0, [r1], -r2, lsl #8
     190:	00667903 	rsbeq	r7, r6, r3, lsl #18
     194:	01010402 	tsteq	r1, r2, lsl #8
     198:	01040200 	mrseq	r0, R12_usr
     19c:	02008206 	andeq	r8, r0, #1610612736	; 0x60000000
     1a0:	002e0104 	eoreq	r0, lr, r4, lsl #2
     1a4:	2e010402 	cdpcs	4, 0, cr0, cr1, cr2, {0}
     1a8:	01040200 	mrseq	r0, R12_usr
     1ac:	3c052e06 	stccc	14, cr2, [r5], {6}
     1b0:	069e6c03 	ldreq	r6, [lr], r3, lsl #24
     1b4:	06050501 	streq	r0, [r5], -r1, lsl #10
     1b8:	06130567 	ldreq	r0, [r3], -r7, ror #10
     1bc:	05052e01 	streq	r2, [r5, #-3585]	; 0xfffff1ff
     1c0:	09052f06 	stmdbeq	r5, {r1, r2, r8, r9, sl, fp, sp}
     1c4:	06170513 			; <UNDEFINED> instruction: 0x06170513
     1c8:	06090501 	streq	r0, [r9], -r1, lsl #10
     1cc:	0611052f 	ldreq	r0, [r1], -pc, lsr #10
     1d0:	2e0c0501 	cfsh32cs	mvfx0, mvfx12, #1
     1d4:	4d060905 	vstrmi.16	s0, [r6, #-10]	; <UNPREDICTABLE>
     1d8:	01060d05 	tsteq	r6, r5, lsl #26
     1dc:	2e0c052e 	cfsh32cs	mvfx0, mvfx12, #30
     1e0:	4b060d05 	blmi	1835fc <__bss_end__+0x178074>
     1e4:	01061705 	tsteq	r6, r5, lsl #14
     1e8:	2e471405 	cdpcs	4, 4, cr1, cr7, cr5, {0}
     1ec:	05180105 	ldreq	r0, [r8, #-261]	; 0xfffffefb
     1f0:	d5030641 	strle	r0, [r3, #-1601]	; 0xfffff9bf
     1f4:	01062e00 	tsteq	r6, r0, lsl #28
     1f8:	83060505 	movwhi	r0, #25861	; 0x6505
     1fc:	06090513 			; <UNDEFINED> instruction: 0x06090513
     200:	060a0511 			; <UNDEFINED> instruction: 0x060a0511
     204:	060d052f 	streq	r0, [sp], -pc, lsr #10
     208:	2e0a0501 	cfsh32cs	mvfx0, mvfx10, #1
     20c:	4b060905 	blmi	182628 <__bss_end__+0x1770a0>
     210:	01061305 	tsteq	r6, r5, lsl #6
     214:	67060905 	strvs	r0, [r6, -r5, lsl #18]
     218:	01061305 	tsteq	r6, r5, lsl #6
     21c:	06090566 	streq	r0, [r9], -r6, ror #10
     220:	060c052f 	streq	r0, [ip], -pc, lsr #10
     224:	0d052e01 	stceq	14, cr2, [r5, #-4]
     228:	0e053106 	adfeqs	f3, f5, f6
     22c:	17050106 	strne	r0, [r5, -r6, lsl #2]
     230:	060d052e 	streq	r0, [sp], -lr, lsr #10
     234:	0614052f 	ldreq	r0, [r4], -pc, lsr #10
     238:	06090501 	streq	r0, [r9], -r1, lsl #10
     23c:	060a0530 			; <UNDEFINED> instruction: 0x060a0530
     240:	052e2e01 	streq	r2, [lr, #-3585]!	; 0xfffff1ff
     244:	32051501 	andcc	r1, r5, #4194304	; 0x400000
     248:	7ef00306 	cdpvc	3, 15, cr0, cr0, cr6, {0}
     24c:	05010666 	streq	r0, [r1, #-1638]	; 0xfffff99a
     250:	05670605 	strbeq	r0, [r7, #-1541]!	; 0xfffff9fb
     254:	2e010613 	mcrcs	6, 0, r0, cr1, cr3, {0}
     258:	2f060505 	svccs	0x00060505
     25c:	4b130905 	blmi	4c2678 <__bss_end__+0x4b70f0>
     260:	054c4b4b 	strbeq	r4, [ip, #-2891]	; 0xfffff4b5
     264:	05010617 	streq	r0, [r1, #-1559]	; 0xfffff9e9
     268:	052f0609 	streq	r0, [pc, #-1545]!	; fffffc67 <__bss_end__+0xffff46df>
     26c:	05010611 	streq	r0, [r1, #-1553]	; 0xfffff9ef
     270:	35052e0c 	strcc	r2, [r5, #-3596]	; 0xfffff1f4
     274:	01066c06 	tsteq	r6, r6, lsl #24
     278:	68060505 	stmdavs	r6, {r0, r2, r8, sl}
     27c:	2f064a06 	svccs	0x00064a06
     280:	0109054d 	tsteq	r9, sp, asr #10
     284:	01060d05 	tsteq	r6, r5, lsl #26
     288:	052e0505 	streq	r0, [lr, #-1285]!	; 0xfffffafb
     28c:	0533060d 	ldreq	r0, [r3, #-1549]!	; 0xfffff9f3
     290:	04020009 	streq	r0, [r2], #-9
     294:	1d056802 	stcne	8, cr6, [r5, #-8]
     298:	02040200 	andeq	r0, r4, #0, 4
     29c:	054a7903 	strbeq	r7, [sl, #-2307]	; 0xfffff6fd
     2a0:	0402001e 	streq	r0, [r2], #-30	; 0xffffffe2
     2a4:	05010602 	streq	r0, [r1, #-1538]	; 0xfffff9fe
     2a8:	04020015 	streq	r0, [r2], #-21	; 0xffffffeb
     2ac:	052e0601 	streq	r0, [lr, #-1537]!	; 0xfffff9ff
     2b0:	04020005 	streq	r0, [r2], #-5
     2b4:	05010601 	streq	r0, [r1, #-1537]	; 0xfffff9ff
     2b8:	054b0609 	strbeq	r0, [fp, #-1545]	; 0xfffff9f7
     2bc:	0501061a 	streq	r0, [r1, #-1562]	; 0xfffff9e6
     2c0:	052f0609 	streq	r0, [pc, #-1545]!	; fffffcbf <__bss_end__+0xffff4737>
     2c4:	0501060c 	streq	r0, [r1, #-1548]	; 0xfffff9f4
     2c8:	064b060d 	strbeq	r0, [fp], -sp, lsl #12
     2cc:	06240566 	strteq	r0, [r4], -r6, ror #10
     2d0:	054a5903 	strbeq	r5, [sl, #-2307]	; 0xfffff6fd
     2d4:	21051305 	tstcs	r5, r5, lsl #6
     2d8:	08090306 	stmdaeq	r9, {r1, r2, r8, r9}
     2dc:	05052e58 	streq	r2, [r5, #-3672]	; 0xfffff1a8
     2e0:	052e7703 	streq	r7, [lr, #-1795]!	; 0xfffff8fd
     2e4:	052edc21 	streq	sp, [lr, #-3105]!	; 0xfffff3df
     2e8:	2e7a0305 	cdpcs	3, 7, cr0, cr10, cr5, {0}
     2ec:	2ef52105 	cdpcs	1, 15, cr2, cr5, cr5, {0}
     2f0:	052b0505 	streq	r0, [fp, #-1285]!	; 0xfffffafb
     2f4:	302edb21 	eorcc	sp, lr, r1, lsr #22
     2f8:	052e2f2e 	streq	r2, [lr, #-3886]!	; 0xfffff0d2
     2fc:	2e780305 	cdpcs	3, 7, cr0, cr8, cr5, {0}
     300:	0319052e 	tsteq	r9, #192937984	; 0xb800000
     304:	2e2e2e0a 	cdpcs	14, 2, cr2, cr14, cr10, {0}
     308:	0321052e 			; <UNDEFINED> instruction: 0x0321052e
     30c:	302e2e78 	eorcc	r2, lr, r8, ror lr
     310:	3419052e 	ldrcc	r0, [r9], #-1326	; 0xfffffad2
     314:	01052e2e 	tsteq	r5, lr, lsr #28
     318:	062f0530 			; <UNDEFINED> instruction: 0x062f0530
     31c:	0800c703 	stmdaeq	r0, {r0, r1, r8, r9, sl, lr, pc}
     320:	130505ac 	movwne	r0, #21932	; 0x55ac
     324:	01060e05 	tsteq	r6, r5, lsl #28
     328:	052e1105 	streq	r1, [lr, #-261]!	; 0xfffffefb
     32c:	27052e48 	strcs	r2, [r5, -r8, asr #28]
     330:	01040200 	mrseq	r0, R12_usr
     334:	001f0566 	andseq	r0, pc, r6, ror #10
     338:	2e010402 	cdpcs	4, 0, cr0, cr1, cr2, {0}
     33c:	02003505 	andeq	r3, r0, #20971520	; 0x1400000
     340:	004a0304 	subeq	r0, sl, r4, lsl #6
     344:	2e030402 	cdpcs	4, 0, cr0, cr3, cr2, {0}
     348:	02003a05 	andeq	r3, r0, #20480	; 0x5000
     34c:	052e0304 	streq	r0, [lr, #-772]!	; 0xfffffcfc
     350:	04020030 	streq	r0, [r2], #-48	; 0xffffffd0
     354:	52052e03 	andpl	r2, r5, #3, 28	; 0x30
     358:	05040200 	streq	r0, [r4, #-512]	; 0xfffffe00
     35c:	00480566 	subeq	r0, r8, r6, ror #10
     360:	2e050402 	cdpcs	4, 0, cr0, cr5, cr2, {0}
     364:	2e2e2e4a 	cdpcs	14, 2, cr2, cr14, cr10, {2}
     368:	2e2e2e2e 	cdpcs	14, 2, cr2, cr14, cr14, {1}
     36c:	2f01052e 	svccs	0x0001052e
     370:	03063705 	movweq	r3, #26373	; 0x6705
     374:	01064a0d 	tsteq	r6, sp, lsl #20
     378:	4b060505 	blmi	181794 <__bss_end__+0x17620c>
     37c:	04020001 	streq	r0, [r2], #-1
     380:	02006602 	andeq	r6, r0, #2097152	; 0x200000
     384:	00010204 	andeq	r0, r1, r4, lsl #4
     388:	13020402 	movwne	r0, #9218	; 0x2402
     38c:	02040200 	andeq	r0, r4, #0, 4
     390:	02002e06 	andeq	r2, r0, #96	; 0x60
     394:	2f060204 	svccs	0x00060204
     398:	02000905 	andeq	r0, r0, #81920	; 0x14000
     39c:	05010204 	streq	r0, [r1, #-516]	; 0xfffffdfc
     3a0:	0402000d 	streq	r0, [r2], #-13
     3a4:	05010602 	streq	r0, [r1, #-1538]	; 0xfffff9fe
     3a8:	04020005 	streq	r0, [r2], #-5
     3ac:	02002e02 	andeq	r2, r0, #2, 28
     3b0:	002e0204 	eoreq	r0, lr, r4, lsl #4
     3b4:	06010402 	streq	r0, [r1], -r2, lsl #8
     3b8:	04020010 	streq	r0, [r2], #-16
     3bc:	02000101 	andeq	r0, r0, #1073741824	; 0x40000000
     3c0:	9e060104 	adflss	f0, f6, f4
     3c4:	01040200 	mrseq	r0, R12_usr
     3c8:	0402002e 	streq	r0, [r2], #-46	; 0xffffffd2
     3cc:	052e0601 	streq	r0, [lr, #-1537]!	; 0xfffff9ff
     3d0:	0402000d 	streq	r0, [r2], #-13
     3d4:	02003202 	andeq	r3, r0, #536870912	; 0x20000000
     3d8:	05010204 	streq	r0, [r1, #-516]	; 0xfffffdfc
     3dc:	04020009 	streq	r0, [r2], #-9
     3e0:	2c051302 	stccs	3, cr1, [r5], {2}
     3e4:	02040200 	andeq	r0, r4, #0, 4
     3e8:	09050106 	stmdbeq	r5, {r1, r2, r8}
     3ec:	02040200 	andeq	r0, r4, #0, 4
     3f0:	001b052e 	andseq	r0, fp, lr, lsr #10
     3f4:	06020402 	streq	r0, [r2], -r2, lsl #8
     3f8:	001c059b 	mulseq	ip, fp, r5
     3fc:	06020402 	streq	r0, [r2], -r2, lsl #8
     400:	00140501 	andseq	r0, r4, r1, lsl #10
     404:	06020402 	streq	r0, [r2], -r2, lsl #8
     408:	0005052e 	andeq	r0, r5, lr, lsr #10
     40c:	06020402 	streq	r0, [r2], -r2, lsl #8
     410:	06090501 	streq	r0, [r9], -r1, lsl #10
     414:	060b054b 	streq	r0, [fp], -fp, asr #10
     418:	060d0501 	streq	r0, [sp], -r1, lsl #10
     41c:	0200014b 	andeq	r0, r0, #-1073741806	; 0xc0000012
     420:	009e0104 	addseq	r0, lr, r4, lsl #2
     424:	01010402 	tsteq	r1, r2, lsl #8
     428:	01040200 	mrseq	r0, R12_usr
     42c:	040200d6 	streq	r0, [r2], #-214	; 0xffffff2a
     430:	052e0601 	streq	r0, [lr, #-1537]!	; 0xfffff9ff
     434:	05150605 	ldreq	r0, [r5, #-1541]	; 0xfffff9fb
     438:	4a6b0601 	bmi	1ac1c44 <__bss_end__+0x1ab66bc>
     43c:	00063105 	andeq	r3, r6, r5, lsl #2
     440:	84b80205 	ldrthi	r0, [r8], #517	; 0x205
     444:	68030000 	stmdavs	r3, {}	; <UNPREDICTABLE>
     448:	05010601 	streq	r0, [r1, #-1537]	; 0xfffff9ff
     44c:	052f0605 	streq	r0, [pc, #-1541]!	; fffffe4f <__bss_end__+0xffff48c7>
     450:	05010608 	streq	r0, [r1, #-1544]	; 0xfffff9f8
     454:	0905840d 	stmdbeq	r5, {r0, r2, r3, sl, pc}
     458:	001f052d 	andseq	r0, pc, sp, lsr #10
     45c:	06020402 	streq	r0, [r2], -r2, lsl #8
     460:	0020054b 	eoreq	r0, r0, fp, asr #10
     464:	06020402 	streq	r0, [r2], -r2, lsl #8
     468:	00140501 	andseq	r0, r4, r1, lsl #10
     46c:	06010402 	streq	r0, [r1], -r2, lsl #8
     470:	001a052e 	andseq	r0, sl, lr, lsr #10
     474:	06010402 	streq	r0, [r1], -r2, lsl #8
     478:	00050501 	andeq	r0, r5, r1, lsl #10
     47c:	2e010402 	cdpcs	4, 0, cr0, cr1, cr2, {0}
     480:	4b060905 	blmi	18289c <__bss_end__+0x177314>
     484:	01060c05 	tsteq	r6, r5, lsl #24
     488:	05660b05 	strbeq	r0, [r6, #-2821]!	; 0xfffff4fb
     48c:	052f060d 	streq	r0, [pc, #-1549]!	; fffffe87 <__bss_end__+0xffff48ff>
     490:	2e010613 	mcrcs	6, 0, r0, cr1, cr3, {0}
     494:	0e18052e 	cfmul64eq	mvdx0, mvdx8, mvdx14
     498:	05360105 	ldreq	r0, [r6, #-261]!	; 0xfffffefb
     49c:	15030632 	strne	r0, [r3, #-1586]	; 0xfffff9ce
     4a0:	0501064a 	streq	r0, [r1, #-1610]	; 0xfffff9b6
     4a4:	06830605 	streq	r0, [r3], r5, lsl #12
     4a8:	052f062e 	streq	r0, [pc, #-1582]!	; fffffe82 <__bss_end__+0xffff48fa>
     4ac:	05010611 	streq	r0, [r1, #-1553]	; 0xfffff9ef
     4b0:	01670605 	cmneq	r7, r5, lsl #12
     4b4:	02040200 	andeq	r0, r4, #0, 4
     4b8:	0402004a 	streq	r0, [r2], #-74	; 0xffffffb6
     4bc:	02000102 	andeq	r0, r0, #-2147483648	; 0x80000000
     4c0:	00140204 	andseq	r0, r4, r4, lsl #4
     4c4:	06020402 	streq	r0, [r2], -r2, lsl #8
     4c8:	0402004a 	streq	r0, [r2], #-74	; 0xffffffb6
     4cc:	00300602 	eorseq	r0, r0, r2, lsl #12
     4d0:	67020402 	strvs	r0, [r2, -r2, lsl #8]
     4d4:	02040200 	andeq	r0, r4, #0, 4
     4d8:	00090513 	andeq	r0, r9, r3, lsl r5
     4dc:	01020402 	tsteq	r2, r2, lsl #8
     4e0:	02040200 	andeq	r0, r4, #0, 4
     4e4:	0e050106 	adfeqs	f0, f5, f6
     4e8:	02040200 	andeq	r0, r4, #0, 4
     4ec:	00050511 	andeq	r0, r5, r1, lsl r5
     4f0:	2f020402 	svccs	0x00020402
     4f4:	02040200 	andeq	r0, r4, #0, 4
     4f8:	0402002e 	streq	r0, [r2], #-46	; 0xffffffd2
     4fc:	7a030601 	bvc	c1d08 <__bss_end__+0xb6780>
     500:	04020001 	streq	r0, [r2], #-1
     504:	02000101 	andeq	r0, r0, #1073741824	; 0x40000000
     508:	ba060104 	blt	180920 <__bss_end__+0x175398>
     50c:	01040200 	mrseq	r0, R12_usr
     510:	0d052e06 	stceq	14, cr2, [r5, #-24]	; 0xffffffe8
     514:	02040200 	andeq	r0, r4, #0, 4
     518:	002e1103 	eoreq	r1, lr, r3, lsl #2
     51c:	01020402 	tsteq	r2, r2, lsl #8
     520:	02001f05 	andeq	r1, r0, #5, 30
     524:	75030204 	strvc	r0, [r3, #-516]	; 0xfffffdfc
     528:	00210501 	eoreq	r0, r1, r1, lsl #10
     52c:	06020402 	streq	r0, [r2], -r2, lsl #8
     530:	00180501 	andseq	r0, r8, r1, lsl #10
     534:	06020402 	streq	r0, [r2], -r2, lsl #8
     538:	001a052e 	andseq	r0, sl, lr, lsr #10
     53c:	06020402 	streq	r0, [r2], -r2, lsl #8
     540:	00050501 	andeq	r0, r5, r1, lsl #10
     544:	2e020402 	cdpcs	4, 0, cr0, cr2, cr2, {0}
     548:	4b060905 	blmi	182964 <__bss_end__+0x1773dc>
     54c:	01060d05 	tsteq	r6, r5, lsl #26
     550:	05660c05 	strbeq	r0, [r6, #-3077]!	; 0xfffff3fb
     554:	054e0609 	strbeq	r0, [lr, #-1545]	; 0xfffff9f7
     558:	05010610 	streq	r0, [r1, #-1552]	; 0xfffff9f0
     55c:	0905820d 	stmdbeq	r5, {r0, r2, r3, r9, pc}
     560:	0d052f06 	stceq	15, cr2, [r5, #-24]	; 0xffffffe8
     564:	09050106 	stmdbeq	r5, {r1, r2, r8}
     568:	14053006 	strne	r3, [r5], #-6
     56c:	0c050106 	stfeqs	f0, [r5], {6}
     570:	060d052e 	streq	r0, [sp], -lr, lsr #10
     574:	0631054c 	ldrteq	r0, [r1], -ip, asr #10
     578:	4a0d0501 	bmi	341984 <__bss_end__+0x3363fc>
     57c:	00019f06 	andeq	r9, r1, r6, lsl #30
     580:	82010402 	andhi	r0, r1, #33554432	; 0x2000000
     584:	01040200 	mrseq	r0, R12_usr
     588:	04020001 	streq	r0, [r2], #-1
     58c:	0200d601 	andeq	sp, r0, #1048576	; 0x100000
     590:	2e060104 	adfcss	f0, f6, f4
     594:	66160105 	ldrvs	r0, [r6], -r5, lsl #2
     598:	00061a05 	andeq	r1, r6, r5, lsl #20
     59c:	86380205 	ldrthi	r0, [r8], -r5, lsl #4
     5a0:	14030000 	strne	r0, [r3], #-0
     5a4:	05010601 	streq	r0, [r1, #-1537]	; 0xfffff9ff
     5a8:	06300605 	ldrteq	r0, [r0], -r5, lsl #12
     5ac:	4b2f062e 	blmi	bc1e6c <__bss_end__+0xbb68e4>
     5b0:	13060105 	movwne	r0, #24837	; 0x6105
     5b4:	4f062405 	svcmi	0x00062405
     5b8:	05050106 	streq	r0, [r5, #-262]	; 0xfffffefa
     5bc:	14132f06 	ldrne	r2, [r3], #-3846	; 0xfffff0fa
     5c0:	01061405 	tsteq	r6, r5, lsl #8
     5c4:	0605052e 	streq	r0, [r5], -lr, lsr #10
     5c8:	0614052f 	ldreq	r0, [r4], -pc, lsr #10
     5cc:	05052e01 	streq	r2, [r5, #-3585]	; 0xfffff1ff
     5d0:	2e064b06 	vmlacs.f64	d4, d6, d6
     5d4:	13053006 	movwne	r3, #20486	; 0x5006
     5d8:	08050106 	stmdaeq	r5, {r1, r2, r8}
     5dc:	0605054a 	streq	r0, [r5], -sl, asr #10
     5e0:	060c0551 			; <UNDEFINED> instruction: 0x060c0551
     5e4:	4a070501 	bmi	1c19f0 <__bss_end__+0x1b6468>
     5e8:	4b060905 	blmi	182a04 <__bss_end__+0x17747c>
     5ec:	01061205 	tsteq	r6, r5, lsl #4
     5f0:	2f060905 	svccs	0x00060905
     5f4:	01062505 	tsteq	r6, r5, lsl #10
     5f8:	054a2b05 	strbeq	r2, [sl, #-2821]	; 0xfffff4fb
     5fc:	054b0609 	strbeq	r0, [fp, #-1545]	; 0xfffff9f7
     600:	0501062a 	streq	r0, [r1, #-1578]	; 0xfffff9d6
     604:	09054a28 	stmdbeq	r5, {r3, r5, r9, fp, lr}
     608:	17052f06 	strne	r2, [r5, -r6, lsl #30]
     60c:	09050106 	stmdbeq	r5, {r1, r2, r8}
     610:	13054c06 	movwne	r4, #23558	; 0x5c06
     614:	09050106 	stmdbeq	r5, {r1, r2, r8}
     618:	12052f06 	andne	r2, r5, #6, 30
     61c:	01050106 	tsteq	r5, r6, lsl #2
     620:	06090530 			; <UNDEFINED> instruction: 0x06090530
     624:	052e7203 	streq	r7, [lr, #-515]!	; 0xfffffdfd
     628:	05010613 	streq	r0, [r1, #-1555]	; 0xfffff9ed
     62c:	052f0609 	streq	r0, [pc, #-1545]!	; 2b <__code_start__-0x7fd5>
     630:	05010612 	streq	r0, [r1, #-1554]	; 0xfffff9ee
     634:	052f0609 	streq	r0, [pc, #-1545]!	; 33 <__code_start__-0x7fcd>
     638:	4a0e0316 	bmi	381298 <__bss_end__+0x375d10>
     63c:	132f0505 			; <UNDEFINED> instruction: 0x132f0505
     640:	001f054c 	andseq	r0, pc, ip, asr #10
     644:	4f010402 	svcmi	0x00010402
     648:	02000e05 	andeq	r0, r0, #80	; 0x50
     64c:	05010104 	streq	r0, [r1, #-260]	; 0xfffffefc
     650:	0402000f 	streq	r0, [r2], #-15
     654:	05010601 	streq	r0, [r1, #-1537]	; 0xfffff9ff
     658:	0402000e 	streq	r0, [r2], #-14
     65c:	09054a01 	stmdbeq	r5, {r0, r9, fp, lr}
     660:	05134c06 	ldreq	r4, [r3, #-3078]	; 0xfffff3fa
     664:	05010611 	streq	r0, [r1, #-1553]	; 0xfffff9ef
     668:	06bc0609 	ldrteq	r0, [ip], r9, lsl #12
     66c:	0530062e 	ldreq	r0, [r0, #-1582]!	; 0xfffff9d2
     670:	05010616 	streq	r0, [r1, #-1558]	; 0xfffff9ea
     674:	06830609 	streq	r0, [r3], r9, lsl #12
     678:	052f064a 	streq	r0, [pc, #-1610]!	; 36 <__code_start__-0x7fca>
     67c:	0501061b 	streq	r0, [r1, #-1563]	; 0xfffff9e5
     680:	054b0609 	strbeq	r0, [fp, #-1545]	; 0xfffff9f7
     684:	0501060b 	streq	r0, [r1, #-1547]	; 0xfffff9f5
     688:	064b060d 	strbeq	r0, [fp], -sp, lsl #12
     68c:	17052e2e 	strne	r2, [r5, -lr, lsr #28]
     690:	ba090306 	blt	2412b0 <__bss_end__+0x235d28>
     694:	132f0505 			; <UNDEFINED> instruction: 0x132f0505
     698:	4b4b2f4c 	blmi	12cc3d0 <__bss_end__+0x12c0e48>
     69c:	0d054c30 	stceq	12, cr4, [r5, #-192]	; 0xffffff40
     6a0:	05660d03 	strbeq	r0, [r6, #-3331]!	; 0xfffff2fd
     6a4:	18054c09 	stmdane	r5, {r0, r3, sl, fp, lr}
     6a8:	12050106 	andne	r0, r5, #-2147483647	; 0x80000001
     6ac:	06090582 	streq	r0, [r9], -r2, lsl #11
     6b0:	1b05672f 	blne	15a374 <__bss_end__+0x14edec>
     6b4:	09050106 	stmdbeq	r5, {r1, r2, r8}
     6b8:	0b054b06 	bleq	1532d8 <__bss_end__+0x147d50>
     6bc:	0d050106 	stfeqs	f0, [r5, #-24]	; 0xffffffe8
     6c0:	2e064b06 	vmlacs.f64	d4, d6, d6
     6c4:	0605052e 	streq	r0, [r5], -lr, lsr #10
     6c8:	05017003 	streq	r7, [r1, #-3]
     6cc:	18051309 	stmdane	r5, {r0, r3, r8, r9, ip}
     6d0:	09050106 	stmdbeq	r5, {r1, r2, r8}
     6d4:	684c6706 	stmdavs	ip, {r1, r2, r8, r9, sl, sp, lr}^
     6d8:	01060d05 	tsteq	r6, r5, lsl #26
     6dc:	05660b05 	strbeq	r0, [r6, #-2821]!	; 0xfffff4fb
     6e0:	4b4b060d 	blmi	12c1f1c <__bss_end__+0x12b6994>
     6e4:	11031305 	tstne	r3, r5, lsl #6
     6e8:	2f0505f2 	svccs	0x000505f2
     6ec:	0109054c 	tsteq	r9, ip, asr #10
     6f0:	01060d05 	tsteq	r6, r5, lsl #26
     6f4:	02001405 	andeq	r1, r0, #83886080	; 0x5000000
     6f8:	2e060104 	adfcss	f0, f6, f4
     6fc:	02000505 	andeq	r0, r0, #20971520	; 0x1400000
     700:	01060104 	tsteq	r6, r4, lsl #2
     704:	02000905 	andeq	r0, r0, #81920	; 0x14000
     708:	4b060304 	blmi	181320 <__bss_end__+0x175d98>
     70c:	02002205 	andeq	r2, r0, #1342177280	; 0x50000000
     710:	01060304 	tsteq	r6, r4, lsl #6
     714:	02000905 	andeq	r0, r0, #81920	; 0x14000
     718:	4b060304 	blmi	181330 <__bss_end__+0x175da8>
     71c:	03040200 	movweq	r0, #16896	; 0x4200
     720:	02002e06 	andeq	r2, r0, #96	; 0x60
     724:	4b060304 	blmi	18133c <__bss_end__+0x175db4>
     728:	03040200 	movweq	r0, #16896	; 0x4200
     72c:	001e0567 	andseq	r0, lr, r7, ror #10
     730:	46030402 	strmi	r0, [r3], -r2, lsl #8
     734:	02001f05 	andeq	r1, r0, #5, 30
     738:	01060304 	tsteq	r6, r4, lsl #6
     73c:	03040200 	movweq	r0, #16896	; 0x4200
     740:	0614052e 	ldreq	r0, [r4], -lr, lsr #10
     744:	31050552 	tstcc	r5, r2, asr r5
     748:	01000202 	tsteq	r0, r2, lsl #4
     74c:	0001d401 	andeq	sp, r1, r1, lsl #8
     750:	64000300 	strvs	r0, [r0], #-768	; 0xfffffd00
     754:	02000000 	andeq	r0, r0, #0, 0
     758:	0d0efb01 	vstreq	d15, [lr, #-4]
     75c:	01010100 	mrseq	r0, (UNDEF: 17)
     760:	00000001 	andeq	r0, r0, r1
     764:	01000001 	tsteq	r0, r1
     768:	72732f2e 	rsbsvc	r2, r3, #184	; 0xb8
     76c:	552f0063 	strpl	r0, [pc, #-99]!	; 711 <__code_start__-0x78ef>
     770:	73726573 	cmnvc	r2, #482344960	; 0x1cc00000
     774:	6c696d2f 	stclvs	13, cr6, [r9], #-188	; 0xffffff44
     778:	532f7365 			; <UNDEFINED> instruction: 0x532f7365
     77c:	6372756f 	cmnvs	r2, #465567744	; 0x1bc00000
     780:	73632f65 	cmnvc	r3, #404	; 0x194
     784:	6c303432 	cfldrsvs	mvf3, [r0], #-200	; 0xffffff38
     788:	696c2f78 	stmdbvs	ip!, {r3, r4, r5, r6, r8, r9, sl, fp, sp}^
     78c:	2f697062 	svccs	0x00697062
     790:	6c636e69 	stclvs	14, cr6, [r3], #-420	; 0xfffffe5c
     794:	00656475 	rsbeq	r6, r5, r5, ror r4
     798:	69706700 	ldmdbvs	r0!, {r8, r9, sl, sp, lr}^
     79c:	6e692d6f 	cdpvs	13, 6, cr2, cr9, cr15, {3}
     7a0:	00632e74 	rsbeq	r2, r3, r4, ror lr
     7a4:	72000001 	andvc	r0, r0, #1, 0
     7a8:	682e6970 	stmdavs	lr!, {r4, r5, r6, r8, fp, sp, lr}
     7ac:	00000200 	andeq	r0, r0, r0, lsl #4
     7b0:	6f697067 	svcvs	0x00697067
     7b4:	0200682e 	andeq	r6, r0, #3014656	; 0x2e0000
     7b8:	05000000 	streq	r0, [r0, #-0]
     7bc:	02050026 	andeq	r0, r5, #38, 0	; 0x26
     7c0:	00008890 	muleq	r0, r0, r8
     7c4:	05011303 	streq	r1, [r1, #-771]	; 0xfffffcfd
     7c8:	052f3005 	streq	r3, [pc, #-5]!	; 7cb <__code_start__-0x7835>
     7cc:	05670601 	strbeq	r0, [r7, #-1537]!	; 0xfffff9ff
     7d0:	064c0624 	strbeq	r0, [ip], -r4, lsr #12
     7d4:	06050501 	streq	r0, [r5], -r1, lsl #10
     7d8:	00012f67 	andeq	r2, r1, r7, ror #30
     7dc:	66020402 	strvs	r0, [r2], -r2, lsl #8
     7e0:	02040200 	andeq	r0, r4, #0, 4
     7e4:	04020001 	streq	r0, [r2], #-1
     7e8:	0d051302 	stceq	3, cr1, [r5, #-8]
     7ec:	02040200 	andeq	r0, r4, #0, 4
     7f0:	30050106 	andcc	r0, r5, r6, lsl #2
     7f4:	02040200 	andeq	r0, r4, #0, 4
     7f8:	0038054a 	eorseq	r0, r8, sl, asr #10
     7fc:	2e020402 	cdpcs	4, 0, cr0, cr2, cr2, {0}
     800:	02000105 	andeq	r0, r0, #1073741825	; 0x40000001
     804:	054c0204 	strbeq	r0, [ip, #-516]	; 0xfffffdfc
     808:	04020005 	streq	r0, [r2], #-5
     80c:	007f0601 	rsbseq	r0, pc, r1, lsl #12
     810:	01010402 	tsteq	r1, r2, lsl #8
     814:	01040200 	mrseq	r0, R12_usr
     818:	032905d6 			; <UNDEFINED> instruction: 0x032905d6
     81c:	0106ba0b 	tsteq	r6, fp, lsl #20
     820:	4b060505 	blmi	181c3c <__bss_end__+0x1766b4>
     824:	0626052f 	strteq	r0, [r6], -pc, lsr #10
     828:	00050501 	andeq	r0, r5, r1, lsl #10
     82c:	06040402 	streq	r0, [r4], -r2, lsl #8
     830:	00100567 	andseq	r0, r0, r7, ror #10
     834:	06040402 	streq	r0, [r4], -r2, lsl #8
     838:	00280501 	eoreq	r0, r8, r1, lsl #10
     83c:	4a040402 	bmi	10184c <__bss_end__+0xf62c4>
     840:	02000505 	andeq	r0, r0, #20971520	; 0x1400000
     844:	002e0404 	eoreq	r0, lr, r4, lsl #8
     848:	06040402 	streq	r0, [r4], -r2, lsl #8
     84c:	04020083 	streq	r0, [r2], #-131	; 0xffffff7d
     850:	01052f04 	tsteq	r5, r4, lsl #30
     854:	04040200 	streq	r0, [r4], #-512	; 0xfffffe00
     858:	26052f06 	strcs	r2, [r5], -r6, lsl #30
     85c:	062a052a 	strteq	r0, [sl], -sl, lsr #10
     860:	06820b03 	streq	r0, [r2], r3, lsl #22
     864:	06050501 	streq	r0, [r5], -r1, lsl #10
     868:	26052f4b 	strcs	r2, [r5], -fp, asr #30
     86c:	05050106 	streq	r0, [r5, #-262]	; 0xfffffefa
     870:	04040200 	streq	r0, [r4], #-512	; 0xfffffe00
     874:	10056706 	andne	r6, r5, r6, lsl #14
     878:	04040200 	streq	r0, [r4], #-512	; 0xfffffe00
     87c:	28050106 	stmdacs	r5, {r1, r2, r8}
     880:	04040200 	streq	r0, [r4], #-512	; 0xfffffe00
     884:	0005054a 	andeq	r0, r5, sl, asr #10
     888:	2e040402 	cdpcs	4, 0, cr0, cr4, cr2, {0}
     88c:	04040200 	streq	r0, [r4], #-512	; 0xfffffe00
     890:	02008306 	andeq	r8, r0, #402653184	; 0x18000000
     894:	052f0404 	streq	r0, [pc, #-1028]!	; 498 <__code_start__-0x7b68>
     898:	04020001 	streq	r0, [r2], #-1
     89c:	052f0604 	streq	r0, [pc, #-1540]!	; 2a0 <__code_start__-0x7d60>
     8a0:	27052a26 	strcs	r2, [r5, -r6, lsr #20]
     8a4:	82090306 	andhi	r0, r9, #402653184	; 0x18000000
     8a8:	05050106 	streq	r0, [r5, #-262]	; 0xfffffefa
     8ac:	052f4b06 	streq	r4, [pc, #-2822]!	; fffffdae <__bss_end__+0xffff4826>
     8b0:	05010626 	streq	r0, [r1, #-1574]	; 0xfffff9da
     8b4:	04020005 	streq	r0, [r2], #-5
     8b8:	05670604 	strbeq	r0, [r7, #-1540]!	; 0xfffff9fc
     8bc:	04020010 	streq	r0, [r2], #-16
     8c0:	05010604 	streq	r0, [r1, #-1540]	; 0xfffff9fc
     8c4:	04020028 	streq	r0, [r2], #-40	; 0xffffffd8
     8c8:	30052e04 	andcc	r2, r5, r4, lsl #28
     8cc:	04040200 	streq	r0, [r4], #-512	; 0xfffffe00
     8d0:	0005052e 	andeq	r0, r5, lr, lsr #10
     8d4:	06040402 	streq	r0, [r4], -r2, lsl #8
     8d8:	04020083 	streq	r0, [r2], #-131	; 0xffffff7d
     8dc:	01052f04 	tsteq	r5, r4, lsl #30
     8e0:	04040200 	streq	r0, [r4], #-512	; 0xfffffe00
     8e4:	26051306 	strcs	r1, [r5], -r6, lsl #6
     8e8:	06250546 	strteq	r0, [r5], -r6, asr #10
     8ec:	05010689 	streq	r0, [r1, #-1673]	; 0xfffff977
     8f0:	2f4b0605 	svccs	0x004b0605
     8f4:	01062605 	tsteq	r6, r5, lsl #12
     8f8:	02000505 	andeq	r0, r0, #20971520	; 0x1400000
     8fc:	67060404 	strvs	r0, [r6, -r4, lsl #8]
     900:	02001b05 	andeq	r1, r0, #5120	; 0x1400
     904:	01060404 	tsteq	r6, r4, lsl #8
     908:	02000505 	andeq	r0, r0, #20971520	; 0x1400000
     90c:	002e0404 	eoreq	r0, lr, r4, lsl #8
     910:	06040402 	streq	r0, [r4], -r2, lsl #8
     914:	00010567 	andeq	r0, r1, r7, ror #10
     918:	06040402 	streq	r0, [r4], -r2, lsl #8
     91c:	2b26052f 	blcs	981de0 <__bss_end__+0x976858>
     920:	01000802 	tsteq	r0, r2, lsl #16
     924:	0001c801 	andeq	ip, r1, r1, lsl #16
     928:	cc000300 	stcgt	3, cr0, [r0], {-0}
     92c:	02000000 	andeq	r0, r0, #0, 0
     930:	0d0efb01 	vstreq	d15, [lr, #-4]
     934:	01010100 	mrseq	r0, (UNDEF: 17)
     938:	00000001 	andeq	r0, r0, r1
     93c:	01000001 	tsteq	r0, r1
     940:	72732f2e 	rsbsvc	r2, r3, #184	; 0xb8
     944:	552f0063 	strpl	r0, [pc, #-99]!	; 8e9 <__code_start__-0x7717>
     948:	73726573 	cmnvc	r2, #482344960	; 0x1cc00000
     94c:	6c696d2f 	stclvs	13, cr6, [r9], #-188	; 0xffffff44
     950:	532f7365 			; <UNDEFINED> instruction: 0x532f7365
     954:	6372756f 	cmnvs	r2, #465567744	; 0x1bc00000
     958:	73632f65 	cmnvc	r3, #404	; 0x194
     95c:	6c303432 	cfldrsvs	mvf3, [r0], #-200	; 0xffffff38
     960:	696c2f78 	stmdbvs	ip!, {r3, r4, r5, r6, r8, r9, sl, fp, sp}^
     964:	2f697062 	svccs	0x00697062
     968:	6c636e69 	stclvs	14, cr6, [r3], #-420	; 0xfffffe5c
     96c:	00656475 	rsbeq	r6, r5, r5, ror r4
     970:	74706f2f 	ldrbtvc	r6, [r0], #-3887	; 0xfffff0d1
     974:	6d6f682f 	stclvs	8, cr6, [pc, #-188]!	; 8c0 <__code_start__-0x7740>
     978:	65726265 	ldrbvs	r6, [r2, #-613]!	; 0xfffffd9b
     97c:	65432f77 	strbvs	r2, [r3, #-3959]	; 0xfffff089
     980:	72616c6c 	rsbvc	r6, r1, #108, 24	; 0x6c00
     984:	6d72612f 	ldfvse	f6, [r2, #-188]!	; 0xffffff44
     988:	6e6f6e2d 	cdpvs	14, 6, cr6, cr15, cr13, {1}
     98c:	61652d65 	cmnvs	r5, r5, ror #26
     990:	742d6962 	strtvc	r6, [sp], #-2402	; 0xfffff69e
     994:	2f747365 	svccs	0x00747365
     998:	30322d39 	eorscc	r2, r2, r9, lsr sp
     99c:	34713931 	ldrbtcc	r3, [r1], #-2353	; 0xfffff6cf
     9a0:	3173632d 	cmncc	r3, sp, lsr #6
     9a4:	2f653730 	svccs	0x00653730
     9a8:	2f62696c 	svccs	0x0062696c
     9ac:	2f636367 	svccs	0x00636367
     9b0:	2d6d7261 	sfmcs	f7, 2, [sp, #-388]!	; 0xfffffe7c
     9b4:	656e6f6e 	strbvs	r6, [lr, #-3950]!	; 0xfffff092
     9b8:	6261652d 	rsbvs	r6, r1, #188743680	; 0xb400000
     9bc:	2e392f69 	cdpcs	15, 3, cr2, cr9, cr9, {3}
     9c0:	2f312e32 	svccs	0x00312e32
     9c4:	6c636e69 	stclvs	14, cr6, [r3], #-420	; 0xfffffe5c
     9c8:	00656475 	rsbeq	r6, r5, r5, ror r4
     9cc:	69706700 	ldmdbvs	r0!, {r8, r9, sl, sp, lr}^
     9d0:	00632e6f 	rsbeq	r2, r3, pc, ror #28
     9d4:	72000001 	andvc	r0, r0, #1, 0
     9d8:	682e6970 	stmdavs	lr!, {r4, r5, r6, r8, fp, sp, lr}
     9dc:	00000200 	andeq	r0, r0, r0, lsl #4
     9e0:	69647473 	stmdbvs	r4!, {r0, r1, r4, r5, r6, sl, ip, sp, lr}^
     9e4:	672d746e 	strvs	r7, [sp, -lr, ror #8]!
     9e8:	682e6363 	stmdavs	lr!, {r0, r1, r5, r6, r8, r9, sp, lr}
     9ec:	00000300 	andeq	r0, r0, r0, lsl #6
     9f0:	6f697067 	svcvs	0x00697067
     9f4:	0200682e 	andeq	r6, r0, #3014656	; 0x2e0000
     9f8:	05000000 	streq	r0, [r0, #-0]
     9fc:	02050038 	andeq	r0, r5, #56, 0	; 0x38
     a00:	00008a4c 	andeq	r8, r0, ip, asr #20
     a04:	05012703 	streq	r2, [r1, #-1795]	; 0xfffff8fd
     a08:	07051305 	streq	r1, [r5, -r5, lsl #6]
     a0c:	38050106 	stmdacc	r5, {r1, r2, r8}
     a10:	06050549 	streq	r0, [r5], -r9, asr #10
     a14:	0607054d 	streq	r0, [r7], -sp, asr #10
     a18:	06050501 	streq	r0, [r5], -r1, lsl #10
     a1c:	0618054c 	ldreq	r0, [r8], -ip, asr #10
     a20:	ba0e0501 	blt	381e2c <__bss_end__+0x3768a4>
     a24:	2f060505 	svccs	0x00060505
     a28:	01061c05 	tsteq	r6, r5, lsl #24
     a2c:	2e0e052e 	cfsh32cs	mvfx0, mvfx14, #30
     a30:	30060505 	andcc	r0, r6, r5, lsl #10
     a34:	01061205 	tsteq	r6, r5, lsl #4
     a38:	4b060505 	blmi	181e54 <__bss_end__+0x1768cc>
     a3c:	01060705 	tsteq	r6, r5, lsl #14
     a40:	4b060505 	blmi	181e5c <__bss_end__+0x1768d4>
     a44:	052e0613 	streq	r0, [lr, #-1555]!	; 0xfffff9ed
     a48:	24054b01 	strcs	r4, [r5], #-2817	; 0xfffff4ff
     a4c:	01064c06 	tsteq	r6, r6, lsl #24
     a50:	2f060505 	svccs	0x00060505
     a54:	4b060105 	blmi	180e70 <__bss_end__+0x1758e8>
     a58:	31062005 	tstcc	r6, r5
     a5c:	05130505 	ldreq	r0, [r3, #-1285]	; 0xfffffafb
     a60:	05010607 	streq	r0, [r1, #-1543]	; 0xfffff9f9
     a64:	05054920 	streq	r4, [r5, #-2336]	; 0xfffff6e0
     a68:	66063106 	strvs	r3, [r6], -r6, lsl #2
     a6c:	052f0105 	streq	r0, [pc, #-261]!	; 96f <__code_start__-0x7691>
     a70:	054d0621 	strbeq	r0, [sp, #-1569]	; 0xfffff9df
     a74:	07051305 	streq	r1, [r5, -r5, lsl #6]
     a78:	21050106 	tstcs	r5, r6, lsl #2
     a7c:	06050549 	streq	r0, [r5], -r9, asr #10
     a80:	05660631 	strbeq	r0, [r6, #-1585]!	; 0xfffff9cf
     a84:	23052f01 	movwcs	r2, #24321	; 0x5f01
     a88:	01064d06 	tsteq	r6, r6, lsl #26
     a8c:	2f060505 	svccs	0x00060505
     a90:	4b060105 	blmi	180eac <__bss_end__+0x175924>
     a94:	31062b05 	tstcc	r6, r5, lsl #22
     a98:	05050106 	streq	r0, [r5, #-262]	; 0xfffffefa
     a9c:	07052f06 	streq	r2, [r5, -r6, lsl #30]
     aa0:	09050106 	stmdbeq	r5, {r1, r2, r8}
     aa4:	2e064b06 	vmlacs.f64	d4, d6, d6
     aa8:	01053006 	tsteq	r5, r6
     aac:	1d052f06 	stcne	15, cr2, [r5, #-24]	; 0xffffffe8
     ab0:	05053006 	streq	r3, [r5, #-6]
     ab4:	06070513 			; <UNDEFINED> instruction: 0x06070513
     ab8:	491d0501 	ldmdbmi	sp, {r0, r8, sl}
     abc:	31060505 	tstcc	r6, r5, lsl #10
     ac0:	060e0513 			; <UNDEFINED> instruction: 0x060e0513
     ac4:	06050501 	streq	r0, [r5], -r1, lsl #10
     ac8:	0617052f 	ldreq	r0, [r7], -pc, lsr #10
     acc:	23054a01 	movwcs	r4, #23041	; 0x5a01
     ad0:	0502042e 	streq	r0, [r2, #-1070]	; 0xfffffbd2
     ad4:	d7030630 	smladxle	r3, r0, r6, r0
     ad8:	01042e00 	tsteq	r4, r0, lsl #28
     adc:	03060c05 	movweq	r0, #27653	; 0x6c05
     ae0:	05017fa9 	streq	r7, [r1, #-4009]	; 0xfffff057
     ae4:	10052f01 	andne	r2, r5, r1, lsl #30
     ae8:	3201052a 	andcc	r0, r1, #176160768	; 0xa800000
     aec:	01000402 	tsteq	r0, r2, lsl #8
     af0:	00011001 	andeq	r1, r1, r1
     af4:	de000300 	cdple	3, 0, cr0, cr0, cr0, {0}
     af8:	02000000 	andeq	r0, r0, #0, 0
     afc:	0d0efb01 	vstreq	d15, [lr, #-4]
     b00:	01010100 	mrseq	r0, (UNDEF: 17)
     b04:	00000001 	andeq	r0, r0, r1
     b08:	01000001 	tsteq	r0, r1
     b0c:	696c2f2e 	stmdbvs	ip!, {r1, r2, r3, r5, r8, r9, sl, fp, sp}^
     b10:	2f006362 	svccs	0x00006362
     b14:	2f74706f 	svccs	0x0074706f
     b18:	656d6f68 	strbvs	r6, [sp, #-3944]!	; 0xfffff098
     b1c:	77657262 	strbvc	r7, [r5, -r2, ror #4]!
     b20:	6c65432f 	stclvs	3, cr4, [r5], #-188	; 0xffffff44
     b24:	2f72616c 	svccs	0x0072616c
     b28:	2d6d7261 	sfmcs	f7, 2, [sp, #-388]!	; 0xfffffe7c
     b2c:	656e6f6e 	strbvs	r6, [lr, #-3950]!	; 0xfffff092
     b30:	6261652d 	rsbvs	r6, r1, #188743680	; 0xb400000
     b34:	65742d69 	ldrbvs	r2, [r4, #-3433]!	; 0xfffff297
     b38:	392f7473 	stmdbcc	pc!, {r0, r1, r4, r5, r6, sl, ip, sp, lr}	; <UNPREDICTABLE>
     b3c:	3130322d 	teqcc	r0, sp, lsr #4
     b40:	2d347139 	ldfcss	f7, [r4, #-228]!	; 0xffffff1c
     b44:	30317363 	eorscc	r7, r1, r3, ror #6
     b48:	6c2f6537 	cfstr32vs	mvfx6, [pc], #-220	; a74 <__code_start__-0x758c>
     b4c:	672f6269 	strvs	r6, [pc, -r9, ror #4]!
     b50:	612f6363 			; <UNDEFINED> instruction: 0x612f6363
     b54:	6e2d6d72 	mcrvs	13, 1, r6, cr13, cr2, {3}
     b58:	2d656e6f 	stclcs	14, cr6, [r5, #-444]!	; 0xfffffe44
     b5c:	69626165 	stmdbvs	r2!, {r0, r2, r5, r6, r8, sp, lr}^
     b60:	322e392f 	eorcc	r3, lr, #770048	; 0xbc000
     b64:	692f312e 	stmdbvs	pc!, {r1, r2, r3, r5, r8, ip, sp}	; <UNPREDICTABLE>
     b68:	756c636e 	strbvc	r6, [ip, #-878]!	; 0xfffffc92
     b6c:	2f006564 	svccs	0x00006564
     b70:	72657355 	rsbvc	r7, r5, #1409286145	; 0x54000001
     b74:	696d2f73 	stmdbvs	sp!, {r0, r1, r4, r5, r6, r8, r9, sl, fp, sp}^
     b78:	2f73656c 	svccs	0x0073656c
     b7c:	72756f53 	rsbsvc	r6, r5, #332	; 0x14c
     b80:	632f6563 			; <UNDEFINED> instruction: 0x632f6563
     b84:	30343273 	eorscc	r3, r4, r3, ror r2
     b88:	6c2f786c 	stcvs	8, cr7, [pc], #-432	; 9e0 <__code_start__-0x7620>
     b8c:	69706269 	ldmdbvs	r0!, {r0, r3, r5, r6, r9, sp, lr}^
     b90:	636e692f 	cmnvs	lr, #770048	; 0xbc000
     b94:	6564756c 	strbvs	r7, [r4, #-1388]!	; 0xfffffa94
     b98:	72700000 	rsbsvc	r0, r0, #0, 0
     b9c:	6b746e69 	blvs	1d1c548 <__bss_end__+0x1d10fc0>
     ba0:	0100632e 	tsteq	r0, lr, lsr #6
     ba4:	74730000 	ldrbtvc	r0, [r3], #-0
     ba8:	67726164 	ldrbvs	r6, [r2, -r4, ror #2]!
     bac:	0200682e 	andeq	r6, r0, #3014656	; 0x2e0000
     bb0:	70720000 	rsbsvc	r0, r2, r0
     bb4:	00682e69 	rsbeq	r2, r8, r9, ror #28
     bb8:	3c000003 	stccc	0, cr0, [r0], {3}
     bbc:	6c697562 	cfstr64vs	mvdx7, [r9], #-392	; 0xfffffe78
     bc0:	6e692d74 	mcrvs	13, 3, r2, cr9, cr4, {3}
     bc4:	0000003e 	andeq	r0, r0, lr, lsr r0
     bc8:	2d617600 	stclcs	6, cr7, [r1, #-0]
     bcc:	6e697270 	mcrvs	2, 3, r7, cr9, cr0, {3}
     bd0:	682e6b74 	stmdavs	lr!, {r2, r4, r5, r6, r8, r9, fp, sp, lr}
     bd4:	00000100 	andeq	r0, r0, r0, lsl #2
     bd8:	00220500 	eoreq	r0, r2, r0, lsl #10
     bdc:	8c880205 	sfmhi	f0, 4, [r8], {5}
     be0:	06170000 	ldreq	r0, [r7], -r0
     be4:	06050501 	streq	r0, [r5], -r1, lsl #10
     be8:	05141368 	ldreq	r1, [r4, #-872]	; 0xfffffc98
     bec:	12054b09 	andne	r4, r5, #9216	; 0x2400
     bf0:	05050106 	streq	r0, [r5, #-262]	; 0xfffffefa
     bf4:	0616bb06 	ldreq	fp, [r6], -r6, lsl #22
     bf8:	05340666 	ldreq	r0, [r4, #-1638]!	; 0xfffff99a
     bfc:	66130601 	ldrvs	r0, [r3], -r1, lsl #12
     c00:	01000802 	tsteq	r0, r2, lsl #16
     c04:	0000a501 	andeq	sl, r0, r1, lsl #10
     c08:	57000300 	strpl	r0, [r0, -r0, lsl #6]
     c0c:	02000000 	andeq	r0, r0, #0, 0
     c10:	0d0efb01 	vstreq	d15, [lr, #-4]
     c14:	01010100 	mrseq	r0, (UNDEF: 17)
     c18:	00000001 	andeq	r0, r0, r1
     c1c:	01000001 	tsteq	r0, r1
     c20:	696c2f2e 	stmdbvs	ip!, {r1, r2, r3, r5, r8, r9, sl, fp, sp}^
     c24:	2f006362 	svccs	0x00006362
     c28:	72657355 	rsbvc	r7, r5, #1409286145	; 0x54000001
     c2c:	696d2f73 	stmdbvs	sp!, {r0, r1, r4, r5, r6, r8, r9, sl, fp, sp}^
     c30:	2f73656c 	svccs	0x0073656c
     c34:	72756f53 	rsbsvc	r6, r5, #332	; 0x14c
     c38:	632f6563 			; <UNDEFINED> instruction: 0x632f6563
     c3c:	30343273 	eorscc	r3, r4, r3, ror r2
     c40:	6c2f786c 	stcvs	8, cr7, [pc], #-432	; a98 <__code_start__-0x7568>
     c44:	69706269 	ldmdbvs	r0!, {r0, r3, r5, r6, r9, sp, lr}^
     c48:	636e692f 	cmnvs	lr, #770048	; 0xbc000
     c4c:	6564756c 	strbvs	r7, [r4, #-1388]!	; 0xfffffa94
     c50:	75700000 	ldrbvc	r0, [r0, #-0]!
     c54:	632e6b74 			; <UNDEFINED> instruction: 0x632e6b74
     c58:	00000100 	andeq	r0, r0, r0, lsl #2
     c5c:	2e697072 	mcrcs	0, 3, r7, cr9, cr2, {3}
     c60:	00020068 	andeq	r0, r2, r8, rrx
     c64:	22050000 	andcs	r0, r5, #0, 0
     c68:	e0020500 	and	r0, r2, r0, lsl #10
     c6c:	1500008c 	strne	r0, [r0, #-140]	; 0xffffff74
     c70:	05050106 	streq	r0, [r5, #-262]	; 0xfffffefa
     c74:	0b054b06 	bleq	153894 <__bss_end__+0x14830c>
     c78:	01040200 	mrseq	r0, R12_usr
     c7c:	00050501 	andeq	r0, r5, r1, lsl #10
     c80:	06010402 	streq	r0, [r1], -r2, lsl #8
     c84:	0009052e 	andeq	r0, r9, lr, lsr #10
     c88:	06020402 	streq	r0, [r2], -r2, lsl #8
     c8c:	000f054b 	andeq	r0, pc, fp, asr #10
     c90:	65020402 	strvs	r0, [r2, #-1026]	; 0xfffffbfe
     c94:	02001005 	andeq	r1, r0, #5, 0
     c98:	01060204 	tsteq	r6, r4, lsl #4
     c9c:	02040200 	andeq	r0, r4, #0, 4
     ca0:	0605052e 	streq	r0, [r5], -lr, lsr #10
     ca4:	06010532 			; <UNDEFINED> instruction: 0x06010532
     ca8:	00060213 	andeq	r0, r6, r3, lsl r2
     cac:	05fa0101 	ldrbeq	r0, [sl, #257]!	; 0x101
     cb0:	00030000 	andeq	r0, r3, r0
     cb4:	000000f4 	strdeq	r0, [r0], -r4
     cb8:	0efb0102 	cdpeq	1, 15, cr0, cr11, cr2, {0}
     cbc:	0101000d 	tsteq	r1, sp
     cc0:	00000101 	andeq	r0, r0, r1, lsl #2
     cc4:	00000100 	andeq	r0, r0, r0, lsl #2
     cc8:	6c2f2e01 	stcvs	14, cr2, [pc], #-4	; ccc <__code_start__-0x7334>
     ccc:	00636269 	rsbeq	r6, r3, r9, ror #4
     cd0:	74706f2f 	ldrbtvc	r6, [r0], #-3887	; 0xfffff0d1
     cd4:	6d6f682f 	stclvs	8, cr6, [pc, #-188]!	; c20 <__code_start__-0x73e0>
     cd8:	65726265 	ldrbvs	r6, [r2, #-613]!	; 0xfffffd9b
     cdc:	65432f77 	strbvs	r2, [r3, #-3959]	; 0xfffff089
     ce0:	72616c6c 	rsbvc	r6, r1, #108, 24	; 0x6c00
     ce4:	6d72612f 	ldfvse	f6, [r2, #-188]!	; 0xffffff44
     ce8:	6e6f6e2d 	cdpvs	14, 6, cr6, cr15, cr13, {1}
     cec:	61652d65 	cmnvs	r5, r5, ror #26
     cf0:	742d6962 	strtvc	r6, [sp], #-2402	; 0xfffff69e
     cf4:	2f747365 	svccs	0x00747365
     cf8:	30322d39 	eorscc	r2, r2, r9, lsr sp
     cfc:	34713931 	ldrbtcc	r3, [r1], #-2353	; 0xfffff6cf
     d00:	3173632d 	cmncc	r3, sp, lsr #6
     d04:	2f653730 	svccs	0x00653730
     d08:	2f62696c 	svccs	0x0062696c
     d0c:	2f636367 	svccs	0x00636367
     d10:	2d6d7261 	sfmcs	f7, 2, [sp, #-388]!	; 0xfffffe7c
     d14:	656e6f6e 	strbvs	r6, [lr, #-3950]!	; 0xfffff092
     d18:	6261652d 	rsbvs	r6, r1, #188743680	; 0xb400000
     d1c:	2e392f69 	cdpcs	15, 3, cr2, cr9, cr9, {3}
     d20:	2f312e32 	svccs	0x00312e32
     d24:	6c636e69 	stclvs	14, cr6, [r3], #-420	; 0xfffffe5c
     d28:	00656475 	rsbeq	r6, r5, r5, ror r4
     d2c:	6573552f 	ldrbvs	r5, [r3, #-1327]!	; 0xfffffad1
     d30:	6d2f7372 	stcvs	3, cr7, [pc, #-456]!	; b70 <__code_start__-0x7490>
     d34:	73656c69 	cmnvc	r5, #26880	; 0x6900
     d38:	756f532f 	strbvc	r5, [pc, #-815]!	; a11 <__code_start__-0x75ef>
     d3c:	2f656372 	svccs	0x00656372
     d40:	34327363 	ldrtcc	r7, [r2], #-867	; 0xfffffc9d
     d44:	2f786c30 	svccs	0x00786c30
     d48:	7062696c 	rsbvc	r6, r2, ip, ror #18
     d4c:	6e692f69 	cdpvs	15, 6, cr2, cr9, cr9, {3}
     d50:	64756c63 	ldrbtvs	r6, [r5], #-3171	; 0xfffff39d
     d54:	76000065 	strvc	r0, [r0], -r5, rrx
     d58:	72702d61 	rsbsvc	r2, r0, #6208	; 0x1840
     d5c:	6b746e69 	blvs	1d1c708 <__bss_end__+0x1d11180>
     d60:	0100632e 	tsteq	r0, lr, lsr #6
     d64:	74730000 	ldrbtvc	r0, [r3], #-0
     d68:	746e6964 	strbtvc	r6, [lr], #-2404	; 0xfffff69c
     d6c:	6363672d 	cmnvs	r3, #11796480	; 0xb40000
     d70:	0200682e 	andeq	r6, r0, #3014656	; 0x2e0000
     d74:	70720000 	rsbsvc	r0, r2, r0
     d78:	00682e69 	rsbeq	r2, r8, r9, ror #28
     d7c:	72000003 	andvc	r0, r0, #3, 0
     d80:	692d6970 	pushvs	{r4, r5, r6, r8, fp, sp, lr}
     d84:	7265746e 	rsbvc	r7, r5, #1845493760	; 0x6e000000
     d88:	2e6c616e 	powcsez	f6, f4, #0.5
     d8c:	00030068 	andeq	r0, r3, r8, rrx
     d90:	64747300 	ldrbtvs	r7, [r4], #-768	; 0xfffffd00
     d94:	2e677261 	cdpcs	2, 6, cr7, cr7, cr1, {3}
     d98:	00020068 	andeq	r0, r2, r8, rrx
     d9c:	75623c00 	strbvc	r3, [r2, #-3072]!	; 0xfffff400
     da0:	2d746c69 	ldclcs	12, cr6, [r4, #-420]!	; 0xfffffe5c
     da4:	003e6e69 	eorseq	r6, lr, r9, ror #28
     da8:	00000000 	andeq	r0, r0, r0
     dac:	05001b05 	streq	r1, [r0, #-2821]	; 0xfffff4fb
     db0:	008d1402 	addeq	r1, sp, r2, lsl #8
     db4:	01260300 			; <UNDEFINED> instruction: 0x01260300
     db8:	05011d05 	streq	r1, [r1, #-3333]	; 0xfffff2fb
     dbc:	0501062d 	streq	r0, [r1, #-1581]	; 0xfffff9d3
     dc0:	054a2e01 	strbeq	r2, [sl, #-3585]	; 0xfffff1ff
     dc4:	05510633 	ldrbeq	r0, [r1, #-1587]	; 0xfffff9cd
     dc8:	06051302 	streq	r1, [r5], -r2, lsl #6
     dcc:	02050106 	andeq	r0, r5, #-2147483647	; 0x80000001
     dd0:	08053006 	stmdaeq	r5, {r1, r2, ip, sp}
     dd4:	01040200 	mrseq	r0, R12_usr
     dd8:	00020501 	andeq	r0, r2, r1, lsl #10
     ddc:	06010402 	streq	r0, [r1], -r2, lsl #8
     de0:	00030501 	andeq	r0, r3, r1, lsl #10
     de4:	06020402 	streq	r0, [r2], -r2, lsl #8
     de8:	0008052f 	andeq	r0, r8, pc, lsr #10
     dec:	06020402 	streq	r0, [r2], -r2, lsl #8
     df0:	00150501 	andseq	r0, r5, r1, lsl #10
     df4:	06020402 	streq	r0, [r2], -r2, lsl #8
     df8:	00180549 	andseq	r0, r8, r9, asr #10
     dfc:	06020402 	streq	r0, [r2], -r2, lsl #8
     e00:	04020001 	streq	r0, [r2], #-1
     e04:	02052e02 	andeq	r2, r5, #2, 28
     e08:	05053006 	streq	r3, [r5, #-6]
     e0c:	02050106 	andeq	r0, r5, #-2147483647	; 0x80000001
     e10:	01054b06 	tsteq	r5, r6, lsl #22
     e14:	3e051306 	cdpcc	3, 0, cr1, cr5, cr6, {0}
     e18:	02053106 	andeq	r3, r5, #-2147483647	; 0x80000001
     e1c:	060e0514 			; <UNDEFINED> instruction: 0x060e0514
     e20:	2e060501 	cfsh32cs	mvfx0, mvfx6, #1
     e24:	2f060205 	svccs	0x00060205
     e28:	01060405 	tsteq	r6, r5, lsl #8
     e2c:	2f060305 	svccs	0x00060305
     e30:	01061105 	tsteq	r6, r5, lsl #2
     e34:	052e0905 	streq	r0, [lr, #-2309]!	; 0xfffff6fb
     e38:	15300602 	ldrne	r0, [r0, #-1538]!	; 0xfffff9fe
     e3c:	01060705 	tsteq	r6, r5, lsl #14
     e40:	052e0205 	streq	r0, [lr, #-517]!	; 0xfffffdfb
     e44:	0402000b 	streq	r0, [r2], #-11
     e48:	052e0601 	streq	r0, [lr, #-1537]!	; 0xfffff9ff
     e4c:	04020002 	streq	r0, [r2], #-2
     e50:	05010601 	streq	r0, [r1, #-1537]	; 0xfffff9ff
     e54:	04020003 	streq	r0, [r2], #-3
     e58:	052f0603 	streq	r0, [pc, #-1539]!	; 85d <__code_start__-0x77a3>
     e5c:	0402000c 	streq	r0, [r2], #-12
     e60:	05010603 	streq	r0, [r1, #-1539]	; 0xfffff9fd
     e64:	0402000a 	streq	r0, [r2], #-10
     e68:	17052e03 	strne	r2, [r5, -r3, lsl #28]
     e6c:	03040200 	movweq	r0, #16896	; 0x4200
     e70:	02002d06 	andeq	r2, r0, #384	; 0x180
     e74:	01060304 	tsteq	r6, r4, lsl #6
     e78:	30060205 	andcc	r0, r6, r5, lsl #4
     e7c:	01060905 	tsteq	r6, r5, lsl #18
     e80:	0602052e 	streq	r0, [r2], -lr, lsr #10
     e84:	06010530 			; <UNDEFINED> instruction: 0x06010530
     e88:	06490513 			; <UNDEFINED> instruction: 0x06490513
     e8c:	05010631 	streq	r0, [r1, #-1585]	; 0xfffff9cf
     e90:	05a00602 	streq	r0, [r0, #1538]!	; 0x602
     e94:	05010604 	streq	r0, [r1, #-1540]	; 0xfffff9fc
     e98:	052f0603 	streq	r0, [pc, #-1539]!	; 89d <__code_start__-0x7763>
     e9c:	05010609 	streq	r0, [r1, #-1545]	; 0xfffff9f7
     ea0:	13300602 	teqne	r0, #2097152	; 0x200000
     ea4:	01060b05 	tsteq	r6, r5, lsl #22
     ea8:	30060205 	andcc	r0, r6, r5, lsl #4
     eac:	04052e06 	streq	r2, [r5], #-3590	; 0xfffff1fa
     eb0:	15240206 	strne	r0, [r4, #-518]!	; 0xfffffdfa
     eb4:	060f0513 			; <UNDEFINED> instruction: 0x060f0513
     eb8:	06052e01 	streq	r2, [r5], -r1, lsl #28
     ebc:	0605054a 	streq	r0, [r5], -sl, asr #10
     ec0:	0905134b 	stmdbeq	r5, {r0, r1, r3, r6, r8, r9, ip}
     ec4:	05050106 	streq	r0, [r5, #-262]	; 0xfffffefa
     ec8:	0b052f06 	bleq	14cae8 <__bss_end__+0x141560>
     ecc:	0d051006 	stceq	0, cr1, [r5, #-24]	; 0xffffffe8
     ed0:	01040200 	mrseq	r0, R12_usr
     ed4:	0004052c 	andeq	r0, r4, ip, lsr #10
     ed8:	06010402 	streq	r0, [r1], -r2, lsl #8
     edc:	00050534 	andeq	r0, r5, r4, lsr r5
     ee0:	13010402 	movwne	r0, #5122	; 0x1402
     ee4:	02001b05 	andeq	r1, r0, #5120	; 0x1400
     ee8:	01060104 	tsteq	r6, r4, lsl #2
     eec:	02000705 	andeq	r0, r0, #1310720	; 0x140000
     ef0:	05d60104 	ldrbeq	r0, [r6, #260]	; 0x104
     ef4:	04020018 	streq	r0, [r2], #-24	; 0xffffffe8
     ef8:	0a052e01 	beq	14c704 <__bss_end__+0x14117c>
     efc:	01040200 	mrseq	r0, R12_usr
     f00:	000b054a 	andeq	r0, fp, sl, asr #10
     f04:	06010402 	streq	r0, [r1], -r2, lsl #8
     f08:	000e052f 	andeq	r0, lr, pc, lsr #10
     f0c:	06010402 	streq	r0, [r1], -r2, lsl #8
     f10:	0004052e 	andeq	r0, r4, lr, lsr #10
     f14:	2e010402 	cdpcs	4, 0, cr0, cr1, cr2, {0}
     f18:	06054b06 	streq	r4, [r5], -r6, lsl #22
     f1c:	05050106 	streq	r0, [r5, #-262]	; 0xfffffefa
     f20:	0a052f06 	beq	14cb40 <__bss_end__+0x1415b8>
     f24:	07050106 	streq	r0, [r5, -r6, lsl #2]
     f28:	0d052e4a 	stceq	14, cr2, [r5, #-296]	; 0xfffffed8
     f2c:	4a2e7603 	bmi	b9e740 <__bss_end__+0xb931b8>
     f30:	050d0b05 	streq	r0, [sp, #-2821]	; 0xfffff4fb
     f34:	0402000d 	streq	r0, [r2], #-13
     f38:	14030601 	strne	r0, [r3], #-1537	; 0xfffff9ff
     f3c:	0011052e 	andseq	r0, r1, lr, lsr #10
     f40:	13010402 	movwne	r0, #5122	; 0x1402
     f44:	02002d05 	andeq	r2, r0, #320	; 0x140
     f48:	01060104 	tsteq	r6, r4, lsl #2
     f4c:	02002a05 	andeq	r2, r0, #20480	; 0x5000
     f50:	052e0104 	streq	r0, [lr, #-260]!	; 0xfffffefc
     f54:	04020016 	streq	r0, [r2], #-22	; 0xffffffea
     f58:	14054a01 	strne	r4, [r5], #-2561	; 0xfffff5ff
     f5c:	01040200 	mrseq	r0, R12_usr
     f60:	0d054b06 	vstreq	d4, [r5, #-24]	; 0xffffffe8
     f64:	01040200 	mrseq	r0, R12_usr
     f68:	02000106 	andeq	r0, r0, #-2147483647	; 0x80000001
     f6c:	064a0104 	strbeq	r0, [sl], -r4, lsl #2
     f70:	0612052f 	ldreq	r0, [r2], -pc, lsr #10
     f74:	0d054a01 	vstreq	s8, [r5, #-4]
     f78:	12052f06 	andne	r2, r5, #6, 30
     f7c:	19050106 	stmdbne	r5, {r1, r2, r8}
     f80:	04054b06 	streq	r4, [r5], #-2822	; 0xfffff4fa
     f84:	02040200 	andeq	r0, r4, #0, 4
     f88:	00011103 	andeq	r1, r1, r3, lsl #2
     f8c:	01020402 	tsteq	r2, r2, lsl #8
     f90:	02000205 	andeq	r0, r0, #1342177280	; 0x50000000
     f94:	05150204 	ldreq	r0, [r5, #-516]	; 0xfffffdfc
     f98:	04020009 	streq	r0, [r2], #-9
     f9c:	00010602 	andeq	r0, r1, r2, lsl #12
     fa0:	4a020402 	bmi	81fb0 <__bss_end__+0x76a28>
     fa4:	02000105 	andeq	r0, r0, #1073741825	; 0x40000001
     fa8:	059f0204 	ldreq	r0, [pc, #516]	; 11b4 <__code_start__-0x6e4c>
     fac:	6e030604 	cfmadd32vs	mvax0, mvfx0, mvfx3, mvfx4
     fb0:	0609054a 	streq	r0, [r9], -sl, asr #10
     fb4:	06040501 	streq	r0, [r4], -r1, lsl #10
     fb8:	0606052f 	streq	r0, [r6], -pc, lsr #10
     fbc:	2f040511 	svccs	0x00040511
     fc0:	63030b05 	movwvs	r0, #15109	; 0x3b05
     fc4:	0019052e 	andseq	r0, r9, lr, lsr #10
     fc8:	06010402 	streq	r0, [r1], -r2, lsl #8
     fcc:	052e2403 	streq	r2, [lr, #-1027]!	; 0xfffffbfd
     fd0:	0402001a 	streq	r0, [r2], #-26	; 0xffffffe6
     fd4:	28051301 	stmdacs	r5, {r0, r8, r9, ip}
     fd8:	01040200 	mrseq	r0, R12_usr
     fdc:	25050106 	strcs	r0, [r5, #-262]	; 0xfffffefa
     fe0:	01040200 	mrseq	r0, R12_usr
     fe4:	001f052e 	andseq	r0, pc, lr, lsr #10
     fe8:	4a010402 	bmi	41ff8 <__bss_end__+0x36a70>
     fec:	02000b05 	andeq	r0, r0, #5120	; 0x1400
     ff0:	4b060104 	blmi	181408 <__bss_end__+0x175e80>
     ff4:	02000405 	andeq	r0, r0, #83886080	; 0x5000000
     ff8:	01060104 	tsteq	r6, r4, lsl #2
     ffc:	01040200 	mrseq	r0, R12_usr
    1000:	0402004a 	streq	r0, [r2], #-74	; 0xffffffb6
    1004:	004e0601 	subeq	r0, lr, r1, lsl #12
    1008:	01010402 	tsteq	r1, r2, lsl #8
    100c:	01040200 	mrseq	r0, R12_usr
    1010:	04020001 	streq	r0, [r2], #-1
    1014:	02000101 	andeq	r0, r0, #1073741824	; 0x40000000
    1018:	2e060104 	adfcss	f0, f6, f4
    101c:	01040200 	mrseq	r0, R12_usr
    1020:	04020066 	streq	r0, [r2], #-102	; 0xffffff9a
    1024:	02002e01 	andeq	r2, r0, #1, 28
    1028:	4a060104 	bmi	181440 <__bss_end__+0x175eb8>
    102c:	a6034805 	strge	r4, [r3], -r5, lsl #16
    1030:	0520087f 	streq	r0, [r0, #-2175]!	; 0xfffff781
    1034:	06011305 	streq	r1, [r1], -r5, lsl #6
    1038:	0402002e 	streq	r0, [r2], #-46	; 0xffffffd2
    103c:	002e0602 	eoreq	r0, lr, r2, lsl #12
    1040:	01020402 	tsteq	r2, r2, lsl #8
    1044:	02040200 	andeq	r0, r4, #0, 4
    1048:	00110513 	andseq	r0, r1, r3, lsl r5
    104c:	06020402 	streq	r0, [r2], -r2, lsl #8
    1050:	00050501 	andeq	r0, r5, r1, lsl #10
    1054:	06020402 	streq	r0, [r2], -r2, lsl #8
    1058:	0007054b 	andeq	r0, r7, fp, asr #10
    105c:	06020402 	streq	r0, [r2], -r2, lsl #8
    1060:	06090501 	streq	r0, [r9], -r1, lsl #10
    1064:	060e054b 	streq	r0, [lr], -fp, asr #10
    1068:	00480501 	subeq	r0, r8, r1, lsl #10
    106c:	62010402 	andvs	r0, r1, #33554432	; 0x2000000
    1070:	02000505 	andeq	r0, r0, #20971520	; 0x1400000
    1074:	4b060104 	blmi	18148c <__bss_end__+0x175f04>
    1078:	01040200 	mrseq	r0, R12_usr
    107c:	04020001 	streq	r0, [r2], #-1
    1080:	009e0601 	addseq	r0, lr, r1, lsl #12
    1084:	2e010402 	cdpcs	4, 0, cr0, cr1, cr2, {0}
    1088:	01040200 	mrseq	r0, R12_usr
    108c:	40052e06 	andmi	r2, r5, r6, lsl #28
    1090:	d600e103 	strle	lr, [r0], -r3, lsl #2
    1094:	02050106 	andeq	r0, r5, #-2147483647	; 0x80000001
    1098:	1e059f06 	cdpne	15, 0, cr9, cr5, cr6, {0}
    109c:	12050106 	andne	r0, r5, #-2147483647	; 0x80000001
    10a0:	0605052e 	streq	r0, [r5], -lr, lsr #10
    10a4:	1402052f 	strne	r0, [r2], #-1327	; 0xfffffad1
    10a8:	01060905 	tsteq	r6, r5, lsl #18
    10ac:	4b060505 	blmi	1824c8 <__bss_end__+0x176f40>
    10b0:	05130205 	ldreq	r0, [r3, #-517]	; 0xfffffdfb
    10b4:	050d0608 	streq	r0, [sp, #-1544]	; 0xfffff9f8
    10b8:	04053302 	streq	r3, [r5], #-770	; 0xfffffcfe
    10bc:	0f054c06 	svceq	0x00054c06
    10c0:	09050106 	stmdbeq	r5, {r1, r2, r8}
    10c4:	0608052e 	streq	r0, [r8], -lr, lsr #10
    10c8:	0602052c 	streq	r0, [r2], -ip, lsr #10
    10cc:	000d052e 	andeq	r0, sp, lr, lsr #10
    10d0:	4a010402 	bmi	420e0 <__bss_end__+0x36b58>
    10d4:	4b060305 	blmi	181cf0 <__bss_end__+0x176768>
    10d8:	01060505 	tsteq	r6, r5, lsl #10
    10dc:	4d060805 	stcmi	8, cr0, [r6, #-20]	; 0xffffffec
    10e0:	01060e05 	tsteq	r6, r5, lsl #28
    10e4:	052e0a05 	streq	r0, [lr, #-2565]!	; 0xfffff5fb
    10e8:	052f0604 	streq	r0, [pc, #-1540]!	; aec <__code_start__-0x7514>
    10ec:	05010609 	streq	r0, [r1, #-1545]	; 0xfffff9f7
    10f0:	052f0604 	streq	r0, [pc, #-1540]!	; af4 <__code_start__-0x750c>
    10f4:	2e010607 	cfmadd32cs	mvax0, mvfx0, mvfx1, mvfx7
    10f8:	30060405 	andcc	r0, r6, r5, lsl #8
    10fc:	01060705 	tsteq	r6, r5, lsl #14
    1100:	30060405 	andcc	r0, r6, r5, lsl #8
    1104:	0d051413 	cfstrseq	mvf1, [r5, #-76]	; 0xffffffb4
    1108:	09051006 	stmdbeq	r5, {r1, r2, ip}
    110c:	12053006 	andne	r3, r5, #6, 0
    1110:	0a050106 	beq	141530 <__bss_end__+0x135fa8>
    1114:	6609052e 	strvs	r0, [r9], -lr, lsr #10
    1118:	4b060505 	blmi	182534 <__bss_end__+0x176fac>
    111c:	01061205 	tsteq	r6, r5, lsl #4
    1120:	052e1605 	streq	r1, [lr, #-1541]!	; 0xfffff9fb
    1124:	05052e0b 	streq	r2, [r5, #-3595]	; 0xfffff1f5
    1128:	08052f06 	stmdaeq	r5, {r1, r2, r8, r9, sl, fp, sp}
    112c:	052e0106 	streq	r0, [lr, #-262]!	; 0xfffffefa
    1130:	01300604 	teqeq	r0, r4, lsl #12
    1134:	0015014a 	andseq	r0, r5, sl, asr #2
    1138:	02010402 	andeq	r0, r1, #33554432	; 0x2000000
    113c:	02000f36 	andeq	r0, r0, #216	; 0xd8
    1140:	00010104 	andeq	r0, r1, r4, lsl #2
    1144:	d6010402 	strle	r0, [r1], -r2, lsl #8
    1148:	13341105 	teqne	r4, #1073741825	; 0x40000001
    114c:	04020001 	streq	r0, [r2], #-1
    1150:	00ba0602 	adcseq	r0, sl, r2, lsl #12
    1154:	06030402 	streq	r0, [r3], -r2, lsl #8
    1158:	040200ba 	streq	r0, [r2], #-186	; 0xffffff46
    115c:	02000103 	andeq	r0, r0, #-1073741824	; 0xc0000000
    1160:	05140304 	ldreq	r0, [r4, #-772]	; 0xfffffcfc
    1164:	04020015 	streq	r0, [r2], #-21	; 0xffffffeb
    1168:	05010603 	streq	r0, [r1, #-1539]	; 0xfffff9fd
    116c:	04020011 	streq	r0, [r2], #-17	; 0xffffffef
    1170:	052f0603 	streq	r0, [pc, #-1539]!	; b75 <__code_start__-0x748b>
    1174:	0402001a 	streq	r0, [r2], #-26	; 0xffffffe6
    1178:	05010603 	streq	r0, [r1, #-1539]	; 0xfffff9fd
    117c:	04020011 	streq	r0, [r2], #-17	; 0xffffffef
    1180:	00d70603 	sbcseq	r0, r7, r3, lsl #12
    1184:	13030402 	movwne	r0, #13314	; 0x3402
    1188:	03040200 	movweq	r0, #16896	; 0x4200
    118c:	04020014 	streq	r0, [r2], #-20	; 0xffffffec
    1190:	02006703 	andeq	r6, r0, #786432	; 0xc0000
    1194:	05680304 	strbeq	r0, [r8, #-772]!	; 0xfffffcfc
    1198:	04020014 	streq	r0, [r2], #-20	; 0xffffffec
    119c:	05010603 	streq	r0, [r1, #-1539]	; 0xfffff9fd
    11a0:	04020013 	streq	r0, [r2], #-19	; 0xffffffed
    11a4:	18058203 	stmdane	r5, {r0, r1, r9, pc}
    11a8:	1b054e06 	blne	1549c8 <__bss_end__+0x149440>
    11ac:	1a050106 	bne	1415cc <__bss_end__+0x136044>
    11b0:	06090582 	streq	r0, [r9], -r2, lsl #11
    11b4:	060d054b 	streq	r0, [sp], -fp, asr #10
    11b8:	09052e01 	stmdbeq	r5, {r0, r9, sl, fp, sp}
    11bc:	ba06f306 	blt	1bdddc <__bss_end__+0x1b2854>
    11c0:	30061505 	andcc	r1, r6, r5, lsl #10
    11c4:	01061805 	tsteq	r6, r5, lsl #16
    11c8:	05661705 	strbeq	r1, [r6, #-1797]!	; 0xfffff8fb
    11cc:	054b0619 	strbeq	r0, [fp, #-1561]	; 0xfffff9e7
    11d0:	6f030615 	svcvs	0x00030615
    11d4:	06110566 	ldreq	r0, [r1], -r6, ror #10
    11d8:	05d60148 	ldrbeq	r0, [r6, #328]	; 0x148
    11dc:	2e0b0309 	cdpcs	3, 0, cr0, cr11, cr9, {0}
    11e0:	01060d05 	tsteq	r6, r5, lsl #26
    11e4:	0609052e 	streq	r0, [r9], -lr, lsr #10
    11e8:	05ba06f3 	ldreq	r0, [sl, #1779]!	; 0x6f3
    11ec:	062f0615 			; <UNDEFINED> instruction: 0x062f0615
    11f0:	05667503 	strbeq	r7, [r6, #-1283]!	; 0xfffffafd
    11f4:	13030619 	movwne	r0, #13849	; 0x3619
    11f8:	0615054a 	ldreq	r0, [r5], -sl, asr #10
    11fc:	06666d03 	strbteq	r6, [r6], -r3, lsl #26
    1200:	014a1503 	cmpeq	sl, r3, lsl #10
    1204:	052e06ba 	streq	r0, [lr, #-1722]!	; 0xfffff946
    1208:	011a0605 	tsteq	sl, r5, lsl #12
    120c:	0e032e9e 	mcreq	14, 0, r2, cr3, cr14, {4}
    1210:	06090501 	streq	r0, [r9], -r1, lsl #10
    1214:	06050501 	streq	r0, [r5], -r1, lsl #10
    1218:	04057508 	streq	r7, [r5], #-1288	; 0xfffffaf8
    121c:	05011803 	streq	r1, [r1, #-2051]	; 0xfffff7fd
    1220:	05010607 	streq	r0, [r1, #-1543]	; 0xfffff9f9
    1224:	05310604 	ldreq	r0, [r1, #-1540]!	; 0xfffff9fc
    1228:	2e670305 	cdpcs	3, 6, cr0, cr7, cr5, {0}
    122c:	01061c05 	tsteq	r6, r5, lsl #24
    1230:	05820905 	streq	r0, [r2, #2309]	; 0x905
    1234:	31f30605 	mvnscc	r0, r5, lsl #12
    1238:	01061c05 	tsteq	r6, r5, lsl #24
    123c:	05820905 	streq	r0, [r2, #2309]	; 0x905
    1240:	30f30605 	rscscc	r0, r3, r5, lsl #12
    1244:	01061b05 	tsteq	r6, r5, lsl #22
    1248:	05820905 	streq	r0, [r2, #2309]	; 0x905
    124c:	30f30605 	rscscc	r0, r3, r5, lsl #12
    1250:	01060705 	tsteq	r6, r5, lsl #14
    1254:	83060505 	movwhi	r0, #25861	; 0x6505
    1258:	06090530 			; <UNDEFINED> instruction: 0x06090530
    125c:	06050501 	streq	r0, [r5], -r1, lsl #10
    1260:	11057508 	tstne	r5, r8, lsl #10
    1264:	06220530 			; <UNDEFINED> instruction: 0x06220530
    1268:	06050501 	streq	r0, [r5], -r1, lsl #10
    126c:	8311054b 	tsthi	r1, #314572800	; 0x12c00000
    1270:	01830505 	orreq	r0, r3, r5, lsl #10
    1274:	0e05359e 	mcreq	5, 0, r3, cr5, cr14, {4}
    1278:	0a050106 	beq	141698 <__bss_end__+0x136110>
    127c:	052d062e 	streq	r0, [sp, #-1582]!	; 0xfffff9d2
    1280:	05010604 	streq	r0, [r1, #-1540]	; 0xfffff9fc
    1284:	04020013 	streq	r0, [r2], #-19	; 0xffffffed
    1288:	10054a01 	andne	r4, r5, r1, lsl #20
    128c:	01040200 	mrseq	r0, R12_usr
    1290:	0402002e 	streq	r0, [r2], #-46	; 0xffffffd2
    1294:	02056601 	andeq	r6, r5, #1048576	; 0x100000
    1298:	07051606 	streq	r1, [r5, -r6, lsl #12]
    129c:	02050106 	andeq	r0, r5, #-2147483647	; 0x80000001
    12a0:	01054b06 	tsteq	r5, r6, lsl #22
    12a4:	02661306 	rsbeq	r1, r6, #402653184	; 0x18000000
    12a8:	0101001e 	tsteq	r1, lr, lsl r0
    12ac:	0000007f 	andeq	r0, r0, pc, ror r0
    12b0:	00640003 	rsbeq	r0, r4, r3
    12b4:	01020000 	mrseq	r0, (UNDEF: 2)
    12b8:	000d0efb 	strdeq	r0, [sp], -fp
    12bc:	01010101 	tsteq	r1, r1, lsl #2
    12c0:	01000000 	mrseq	r0, (UNDEF: 0)
    12c4:	2e010000 	cdpcs	0, 0, cr0, cr1, cr0, {0}
    12c8:	6174732f 	cmnvs	r4, pc, lsr #6
    12cc:	732d6666 			; <UNDEFINED> instruction: 0x732d6666
    12d0:	2f006372 	svccs	0x00006372
    12d4:	72657355 	rsbvc	r7, r5, #1409286145	; 0x54000001
    12d8:	696d2f73 	stmdbvs	sp!, {r0, r1, r4, r5, r6, r8, r9, sl, fp, sp}^
    12dc:	2f73656c 	svccs	0x0073656c
    12e0:	72756f53 	rsbsvc	r6, r5, #332	; 0x14c
    12e4:	632f6563 			; <UNDEFINED> instruction: 0x632f6563
    12e8:	30343273 	eorscc	r3, r4, r3, ror r2
    12ec:	6c2f786c 	stcvs	8, cr7, [pc], #-432	; 1144 <__code_start__-0x6ebc>
    12f0:	69706269 	ldmdbvs	r0!, {r0, r3, r5, r6, r9, sp, lr}^
    12f4:	636e692f 	cmnvs	lr, #770048	; 0xbc000
    12f8:	6564756c 	strbvs	r7, [r4, #-1388]!	; 0xfffffa94
    12fc:	6c630000 	stclvs	0, cr0, [r3], #-0
    1300:	2d6e6165 	stfcse	f6, [lr, #-404]!	; 0xfffffe6c
    1304:	6f626572 	svcvs	0x00626572
    1308:	632e746f 			; <UNDEFINED> instruction: 0x632e746f
    130c:	00000100 	andeq	r0, r0, r0, lsl #2
    1310:	2e697072 	mcrcs	0, 3, r7, cr9, cr2, {3}
    1314:	00020068 	andeq	r0, r2, r8, rrx
    1318:	19050000 	stmdbne	r5, {}	; <UNPREDICTABLE>
    131c:	54020500 	strpl	r0, [r2], #-1280	; 0xfffffb00
    1320:	15000094 	strne	r0, [r0, #-148]	; 0xffffff6c
    1324:	832f0505 			; <UNDEFINED> instruction: 0x832f0505
    1328:	06024b2f 	streq	r4, [r2], -pc, lsr #22
    132c:	99010100 	stmdbls	r1, {r8}
    1330:	03000000 	movweq	r0, #0
    1334:	00005e00 	andeq	r5, r0, r0, lsl #28
    1338:	fb010200 	blx	41b42 <__bss_end__+0x365ba>
    133c:	01000d0e 	tsteq	r0, lr, lsl #26
    1340:	00010101 	andeq	r0, r1, r1, lsl #2
    1344:	00010000 	andeq	r0, r1, r0
    1348:	2f2e0100 	svccs	0x002e0100
    134c:	66617473 			; <UNDEFINED> instruction: 0x66617473
    1350:	72732d66 	rsbsvc	r2, r3, #6528	; 0x1980
    1354:	552f0063 	strpl	r0, [pc, #-99]!	; 12f9 <__code_start__-0x6d07>
    1358:	73726573 	cmnvc	r2, #482344960	; 0x1cc00000
    135c:	6c696d2f 	stclvs	13, cr6, [r9], #-188	; 0xffffff44
    1360:	532f7365 			; <UNDEFINED> instruction: 0x532f7365
    1364:	6372756f 	cmnvs	r2, #465567744	; 0x1bc00000
    1368:	73632f65 	cmnvc	r3, #404	; 0x194
    136c:	6c303432 	cfldrsvs	mvf3, [r0], #-200	; 0xffffff38
    1370:	696c2f78 	stmdbvs	ip!, {r3, r4, r5, r6, r8, r9, sl, fp, sp}^
    1374:	2f697062 	svccs	0x00697062
    1378:	6c636e69 	stclvs	14, cr6, [r3], #-420	; 0xfffffe5c
    137c:	00656475 	rsbeq	r6, r5, r5, ror r4
    1380:	74736300 	ldrbtvc	r6, [r3], #-768	; 0xfffffd00
    1384:	2e747261 	cdpcs	2, 7, cr7, cr4, cr1, {3}
    1388:	00010063 	andeq	r0, r1, r3, rrx
    138c:	69707200 	ldmdbvs	r0!, {r9, ip, sp, lr}^
    1390:	0200682e 	andeq	r6, r0, #3014656	; 0x2e0000
    1394:	05000000 	streq	r0, [r0, #-0]
    1398:	02050010 	andeq	r0, r5, #16, 0
    139c:	00009480 	andeq	r9, r0, r0, lsl #9
    13a0:	2f050515 	svccs	0x00050515
    13a4:	05130205 	ldreq	r0, [r3, #-517]	; 0xfffffdfb
    13a8:	13301405 	teqne	r0, #83886080	; 0x5000000
    13ac:	060a0514 			; <UNDEFINED> instruction: 0x060a0514
    13b0:	0531060f 	ldreq	r0, [r1, #-1551]!	; 0xfffff9f1
    13b4:	10054b09 	andne	r4, r5, r9, lsl #22
    13b8:	054a0106 	strbeq	r0, [sl, #-262]	; 0xfffffefa
    13bc:	32300605 	eorscc	r0, r0, #5242880	; 0x500000
    13c0:	144a0101 	strbne	r0, [sl], #-257	; 0xfffffeff
    13c4:	022f0205 	eoreq	r0, pc, #1342177280	; 0x50000000
    13c8:	01010006 	tsteq	r1, r6
    13cc:	0000007d 	andeq	r0, r0, sp, ror r0
    13d0:	00650003 	rsbeq	r0, r5, r3
    13d4:	01020000 	mrseq	r0, (UNDEF: 2)
    13d8:	000d0efb 	strdeq	r0, [sp], -fp
    13dc:	01010101 	tsteq	r1, r1, lsl #2
    13e0:	01000000 	mrseq	r0, (UNDEF: 0)
    13e4:	2e010000 	cdpcs	0, 0, cr0, cr1, cr0, {0}
    13e8:	6174732f 	cmnvs	r4, pc, lsr #6
    13ec:	732d6666 			; <UNDEFINED> instruction: 0x732d6666
    13f0:	2f006372 	svccs	0x00006372
    13f4:	72657355 	rsbvc	r7, r5, #1409286145	; 0x54000001
    13f8:	696d2f73 	stmdbvs	sp!, {r0, r1, r4, r5, r6, r8, r9, sl, fp, sp}^
    13fc:	2f73656c 	svccs	0x0073656c
    1400:	72756f53 	rsbsvc	r6, r5, #332	; 0x14c
    1404:	632f6563 			; <UNDEFINED> instruction: 0x632f6563
    1408:	30343273 	eorscc	r3, r4, r3, ror r2
    140c:	6c2f786c 	stcvs	8, cr7, [pc], #-432	; 1264 <__code_start__-0x6d9c>
    1410:	69706269 	ldmdbvs	r0!, {r0, r3, r5, r6, r9, sp, lr}^
    1414:	636e692f 	cmnvs	lr, #770048	; 0xbc000
    1418:	6564756c 	strbvs	r7, [r4, #-1388]!	; 0xfffffa94
    141c:	75630000 	strbvc	r0, [r3, #-0]!
    1420:	6d6f7473 	cfstrdvs	mvd7, [pc, #-460]!	; 125c <__code_start__-0x6da4>
    1424:	616f6c2d 	cmnvs	pc, sp, lsr #24
    1428:	2e726564 	cdpcs	5, 7, cr6, cr2, cr4, {3}
    142c:	00010063 	andeq	r0, r1, r3, rrx
    1430:	69707200 	ldmdbvs	r0!, {r9, ip, sp, lr}^
    1434:	0200682e 	andeq	r6, r0, #3014656	; 0x2e0000
    1438:	05000000 	streq	r0, [r0, #-0]
    143c:	0205001a 	andeq	r0, r5, #26, 0
    1440:	000094bc 			; <UNDEFINED> instruction: 0x000094bc
    1444:	14010515 	strne	r0, [r1], #-1301	; 0xfffffaeb
    1448:	01000202 	tsteq	r0, r2, lsl #4
    144c:	00009201 	andeq	r9, r0, r1, lsl #4
    1450:	72000300 	andvc	r0, r0, #0, 6
    1454:	02000000 	andeq	r0, r0, #0, 0
    1458:	0d0efb01 	vstreq	d15, [lr, #-4]
    145c:	01010100 	mrseq	r0, (UNDEF: 17)
    1460:	00000001 	andeq	r0, r0, r1
    1464:	01000001 	tsteq	r0, r1
    1468:	74732f2e 	ldrbtvc	r2, [r3], #-3886	; 0xfffff0d2
    146c:	2d666661 	stclcs	6, cr6, [r6, #-388]!	; 0xfffffe7c
    1470:	00637273 	rsbeq	r7, r3, r3, ror r2
    1474:	6573552f 	ldrbvs	r5, [r3, #-1327]!	; 0xfffffad1
    1478:	6d2f7372 	stcvs	3, cr7, [pc, #-456]!	; 12b8 <__code_start__-0x6d48>
    147c:	73656c69 	cmnvc	r5, #26880	; 0x6900
    1480:	756f532f 	strbvc	r5, [pc, #-815]!	; 1159 <__code_start__-0x6ea7>
    1484:	2f656372 	svccs	0x00656372
    1488:	34327363 	ldrtcc	r7, [r2], #-867	; 0xfffffc9d
    148c:	2f786c30 	svccs	0x00786c30
    1490:	7062696c 	rsbvc	r6, r2, ip, ror #18
    1494:	6e692f69 	cdpvs	15, 6, cr2, cr9, cr9, {3}
    1498:	64756c63 	ldrbtvs	r6, [r5], #-3171	; 0xfffff39d
    149c:	64000065 	strvs	r0, [r0], #-101	; 0xffffff9b
    14a0:	75616665 	strbvc	r6, [r1, #-1637]!	; 0xfffff99b
    14a4:	682d746c 	stmdavs	sp!, {r2, r3, r5, r6, sl, ip, sp, lr}
    14a8:	6c646e61 	stclvs	14, cr6, [r4], #-388	; 0xfffffe7c
    14ac:	642d7265 	strtvs	r7, [sp], #-613	; 0xfffffd9b
    14b0:	2d617461 	cfstrdcs	mvd7, [r1, #-388]!	; 0xfffffe7c
    14b4:	726f6261 	rsbvc	r6, pc, #268435462	; 0x10000006
    14b8:	00632e74 	rsbeq	r2, r3, r4, ror lr
    14bc:	72000001 	andvc	r0, r0, #1, 0
    14c0:	682e6970 	stmdavs	lr!, {r4, r5, r6, r8, fp, sp, lr}
    14c4:	00000200 	andeq	r0, r0, r0, lsl #4
    14c8:	00250500 	eoreq	r0, r5, r0, lsl #10
    14cc:	94c00205 	strbls	r0, [r0], #517	; 0x205
    14d0:	06130000 	ldreq	r0, [r3], -r0
    14d4:	06270501 	strteq	r0, [r7], -r1, lsl #10
    14d8:	d606014a 	strle	r0, [r6], -sl, asr #2
    14dc:	0a022e06 	beq	8ccfc <__bss_end__+0x81774>
    14e0:	8c010100 	stfhis	f0, [r1], {-0}
    14e4:	03000000 	movweq	r0, #0
    14e8:	00006c00 	andeq	r6, r0, r0, lsl #24
    14ec:	fb010200 	blx	41cf6 <__bss_end__+0x3676e>
    14f0:	01000d0e 	tsteq	r0, lr, lsl #26
    14f4:	00010101 	andeq	r0, r1, r1, lsl #2
    14f8:	00010000 	andeq	r0, r1, r0
    14fc:	2f2e0100 	svccs	0x002e0100
    1500:	66617473 			; <UNDEFINED> instruction: 0x66617473
    1504:	72732d66 	rsbsvc	r2, r3, #6528	; 0x1980
    1508:	552f0063 	strpl	r0, [pc, #-99]!	; 14ad <__code_start__-0x6b53>
    150c:	73726573 	cmnvc	r2, #482344960	; 0x1cc00000
    1510:	6c696d2f 	stclvs	13, cr6, [r9], #-188	; 0xffffff44
    1514:	532f7365 			; <UNDEFINED> instruction: 0x532f7365
    1518:	6372756f 	cmnvs	r2, #465567744	; 0x1bc00000
    151c:	73632f65 	cmnvc	r3, #404	; 0x194
    1520:	6c303432 	cfldrsvs	mvf3, [r0], #-200	; 0xffffff38
    1524:	696c2f78 	stmdbvs	ip!, {r3, r4, r5, r6, r8, r9, sl, fp, sp}^
    1528:	2f697062 	svccs	0x00697062
    152c:	6c636e69 	stclvs	14, cr6, [r3], #-420	; 0xfffffe5c
    1530:	00656475 	rsbeq	r6, r5, r5, ror r4
    1534:	66656400 	strbtvs	r6, [r5], -r0, lsl #8
    1538:	746c7561 	strbtvc	r7, [ip], #-1377	; 0xfffffa9f
    153c:	6e61682d 	cdpvs	8, 6, cr6, cr1, cr13, {1}
    1540:	72656c64 	rsbvc	r6, r5, #100, 24	; 0x6400
    1544:	7361662d 	cmnvc	r1, #47185920	; 0x2d00000
    1548:	00632e74 	rsbeq	r2, r3, r4, ror lr
    154c:	72000001 	andvc	r0, r0, #1, 0
    1550:	682e6970 	stmdavs	lr!, {r4, r5, r6, r8, fp, sp, lr}
    1554:	00000200 	andeq	r0, r0, r0, lsl #4
    1558:	00290500 	eoreq	r0, r9, r0, lsl #10
    155c:	94fc0205 	ldrbtls	r0, [ip], #517	; 0x205
    1560:	06130000 	ldreq	r0, [r3], -r0
    1564:	062b0501 	strteq	r0, [fp], -r1, lsl #10
    1568:	d606014a 	strle	r0, [r6], -sl, asr #2
    156c:	0a022e06 	beq	8cd8c <__bss_end__+0x81804>
    1570:	90010100 	andls	r0, r1, r0, lsl #2
    1574:	03000000 	movweq	r0, #0
    1578:	00007000 	andeq	r7, r0, r0
    157c:	fb010200 	blx	41d86 <__bss_end__+0x367fe>
    1580:	01000d0e 	tsteq	r0, lr, lsl #26
    1584:	00010101 	andeq	r0, r1, r1, lsl #2
    1588:	00010000 	andeq	r0, r1, r0
    158c:	2f2e0100 	svccs	0x002e0100
    1590:	66617473 			; <UNDEFINED> instruction: 0x66617473
    1594:	72732d66 	rsbsvc	r2, r3, #6528	; 0x1980
    1598:	552f0063 	strpl	r0, [pc, #-99]!	; 153d <__code_start__-0x6ac3>
    159c:	73726573 	cmnvc	r2, #482344960	; 0x1cc00000
    15a0:	6c696d2f 	stclvs	13, cr6, [r9], #-188	; 0xffffff44
    15a4:	532f7365 			; <UNDEFINED> instruction: 0x532f7365
    15a8:	6372756f 	cmnvs	r2, #465567744	; 0x1bc00000
    15ac:	73632f65 	cmnvc	r3, #404	; 0x194
    15b0:	6c303432 	cfldrsvs	mvf3, [r0], #-200	; 0xffffff38
    15b4:	696c2f78 	stmdbvs	ip!, {r3, r4, r5, r6, r8, r9, sl, fp, sp}^
    15b8:	2f697062 	svccs	0x00697062
    15bc:	6c636e69 	stclvs	14, cr6, [r3], #-420	; 0xfffffe5c
    15c0:	00656475 	rsbeq	r6, r5, r5, ror r4
    15c4:	66656400 	strbtvs	r6, [r5], -r0, lsl #8
    15c8:	746c7561 	strbtvc	r7, [ip], #-1377	; 0xfffffa9f
    15cc:	6e61682d 	cdpvs	8, 6, cr6, cr1, cr13, {1}
    15d0:	72656c64 	rsbvc	r6, r5, #100, 24	; 0x6400
    15d4:	6572702d 	ldrbvs	r7, [r2, #-45]!	; 0xffffffd3
    15d8:	63746566 	cmnvs	r4, #427819008	; 0x19800000
    15dc:	00632e68 	rsbeq	r2, r3, r8, ror #28
    15e0:	72000001 	andvc	r0, r0, #1, 0
    15e4:	682e6970 	stmdavs	lr!, {r4, r5, r6, r8, fp, sp, lr}
    15e8:	00000200 	andeq	r0, r0, r0, lsl #4
    15ec:	00290500 	eoreq	r0, r9, r0, lsl #10
    15f0:	95380205 	ldrls	r0, [r8, #-517]!	; 0xfffffdfb
    15f4:	06130000 	ldreq	r0, [r3], -r0
    15f8:	062b0501 	strteq	r0, [fp], -r1, lsl #10
    15fc:	d606014a 	strle	r0, [r6], -sl, asr #2
    1600:	0a022e06 	beq	8ce20 <__bss_end__+0x81898>
    1604:	8d010100 	stfhis	f0, [r1, #-0]
    1608:	03000000 	movweq	r0, #0
    160c:	00006d00 	andeq	r6, r0, r0, lsl #26
    1610:	fb010200 	blx	41e1a <__bss_end__+0x36892>
    1614:	01000d0e 	tsteq	r0, lr, lsl #26
    1618:	00010101 	andeq	r0, r1, r1, lsl #2
    161c:	00010000 	andeq	r0, r1, r0
    1620:	2f2e0100 	svccs	0x002e0100
    1624:	66617473 			; <UNDEFINED> instruction: 0x66617473
    1628:	72732d66 	rsbsvc	r2, r3, #6528	; 0x1980
    162c:	552f0063 	strpl	r0, [pc, #-99]!	; 15d1 <__code_start__-0x6a2f>
    1630:	73726573 	cmnvc	r2, #482344960	; 0x1cc00000
    1634:	6c696d2f 	stclvs	13, cr6, [r9], #-188	; 0xffffff44
    1638:	532f7365 			; <UNDEFINED> instruction: 0x532f7365
    163c:	6372756f 	cmnvs	r2, #465567744	; 0x1bc00000
    1640:	73632f65 	cmnvc	r3, #404	; 0x194
    1644:	6c303432 	cfldrsvs	mvf3, [r0], #-200	; 0xffffff38
    1648:	696c2f78 	stmdbvs	ip!, {r3, r4, r5, r6, r8, r9, sl, fp, sp}^
    164c:	2f697062 	svccs	0x00697062
    1650:	6c636e69 	stclvs	14, cr6, [r3], #-420	; 0xfffffe5c
    1654:	00656475 	rsbeq	r6, r5, r5, ror r4
    1658:	66656400 	strbtvs	r6, [r5], -r0, lsl #8
    165c:	746c7561 	strbtvc	r7, [ip], #-1377	; 0xfffffa9f
    1660:	6e61682d 	cdpvs	8, 6, cr6, cr1, cr13, {1}
    1664:	72656c64 	rsbvc	r6, r5, #100, 24	; 0x6400
    1668:	7365722d 	cmnvc	r5, #-805306366	; 0xd0000002
    166c:	632e7465 			; <UNDEFINED> instruction: 0x632e7465
    1670:	00000100 	andeq	r0, r0, r0, lsl #2
    1674:	2e697072 	mcrcs	0, 3, r7, cr9, cr2, {3}
    1678:	00020068 	andeq	r0, r2, r8, rrx
    167c:	20050000 	andcs	r0, r5, r0
    1680:	74020500 	strvc	r0, [r2], #-1280	; 0xfffffb00
    1684:	13000095 	movwne	r0, #149	; 0x95
    1688:	22050106 	andcs	r0, r5, #-2147483647	; 0x80000001
    168c:	06014a06 	streq	r4, [r1], -r6, lsl #20
    1690:	022e06d6 	eoreq	r0, lr, #224395264	; 0xd600000
    1694:	0101000a 	tsteq	r1, sl
    1698:	00000096 	muleq	r0, r6, r0
    169c:	00760003 	rsbseq	r0, r6, r3
    16a0:	01020000 	mrseq	r0, (UNDEF: 2)
    16a4:	000d0efb 	strdeq	r0, [sp], -fp
    16a8:	01010101 	tsteq	r1, r1, lsl #2
    16ac:	01000000 	mrseq	r0, (UNDEF: 0)
    16b0:	2e010000 	cdpcs	0, 0, cr0, cr1, cr0, {0}
    16b4:	6174732f 	cmnvs	r4, pc, lsr #6
    16b8:	732d6666 			; <UNDEFINED> instruction: 0x732d6666
    16bc:	2f006372 	svccs	0x00006372
    16c0:	72657355 	rsbvc	r7, r5, #1409286145	; 0x54000001
    16c4:	696d2f73 	stmdbvs	sp!, {r0, r1, r4, r5, r6, r8, r9, sl, fp, sp}^
    16c8:	2f73656c 	svccs	0x0073656c
    16cc:	72756f53 	rsbsvc	r6, r5, #332	; 0x14c
    16d0:	632f6563 			; <UNDEFINED> instruction: 0x632f6563
    16d4:	30343273 	eorscc	r3, r4, r3, ror r2
    16d8:	6c2f786c 	stcvs	8, cr7, [pc], #-432	; 1530 <__code_start__-0x6ad0>
    16dc:	69706269 	ldmdbvs	r0!, {r0, r3, r5, r6, r9, sp, lr}^
    16e0:	636e692f 	cmnvs	lr, #770048	; 0xbc000
    16e4:	6564756c 	strbvs	r7, [r4, #-1388]!	; 0xfffffa94
    16e8:	65640000 	strbvs	r0, [r4, #-0]!
    16ec:	6c756166 	ldfvse	f6, [r5], #-408	; 0xfffffe68
    16f0:	61682d74 	smcvs	33492	; 0x82d4
    16f4:	656c646e 	strbvs	r6, [ip, #-1134]!	; 0xfffffb92
    16f8:	6e752d72 	mrcvs	13, 3, r2, cr5, cr2, {3}
    16fc:	69666564 	stmdbvs	r6!, {r2, r5, r6, r8, sl, sp, lr}^
    1700:	2d64656e 	cfstr64cs	mvdx6, [r4, #-440]!	; 0xfffffe48
    1704:	74736e69 	ldrbtvc	r6, [r3], #-3689	; 0xfffff197
    1708:	0100632e 	tsteq	r0, lr, lsr #6
    170c:	70720000 	rsbsvc	r0, r2, r0
    1710:	00682e69 	rsbeq	r2, r8, r9, ror #28
    1714:	00000002 	andeq	r0, r0, r2
    1718:	05003005 	streq	r3, [r0, #-5]
    171c:	0095b002 	addseq	fp, r5, r2
    1720:	01061300 	mrseq	r1, LR_und
    1724:	4a063205 	bmi	18df40 <__bss_end__+0x1829b8>
    1728:	06d60601 	ldrbeq	r0, [r6], r1, lsl #12
    172c:	000a022e 	andeq	r0, sl, lr, lsr #4
    1730:	00e30101 	rsceq	r0, r3, r1, lsl #2
    1734:	00030000 	andeq	r0, r3, r0
    1738:	00000078 	andeq	r0, r0, r8, ror r0
    173c:	0efb0102 	cdpeq	1, 15, cr0, cr11, cr2, {0}
    1740:	0101000d 	tsteq	r1, sp
    1744:	00000101 	andeq	r0, r0, r1, lsl #2
    1748:	00000100 	andeq	r0, r0, r0, lsl #2
    174c:	732f2e01 			; <UNDEFINED> instruction: 0x732f2e01
    1750:	66666174 			; <UNDEFINED> instruction: 0x66666174
    1754:	6372732d 	cmnvs	r2, #-1275068416	; 0xb4000000
    1758:	73552f00 	cmpvc	r5, #0, 30
    175c:	2f737265 	svccs	0x00737265
    1760:	656c696d 	strbvs	r6, [ip, #-2413]!	; 0xfffff693
    1764:	6f532f73 	svcvs	0x00532f73
    1768:	65637275 	strbvs	r7, [r3, #-629]!	; 0xfffffd8b
    176c:	3273632f 	rsbscc	r6, r3, #-1140850688	; 0xbc000000
    1770:	786c3034 	stmdavc	ip!, {r2, r4, r5, ip, sp}^
    1774:	62696c2f 	rsbvs	r6, r9, #12032	; 0x2f00
    1778:	692f6970 	stmdbvs	pc!, {r4, r5, r6, r8, fp, sp, lr}	; <UNPREDICTABLE>
    177c:	756c636e 	strbvc	r6, [ip, #-878]!	; 0xfffffc92
    1780:	00006564 	andeq	r6, r0, r4, ror #10
    1784:	65746e69 	ldrbvs	r6, [r4, #-3689]!	; 0xfffff197
    1788:	70757272 	rsbsvc	r7, r5, r2, ror r2
    178c:	632d7374 			; <UNDEFINED> instruction: 0x632d7374
    1790:	0100632e 	tsteq	r0, lr, lsr #6
    1794:	70720000 	rsbsvc	r0, r2, r0
    1798:	00682e69 	rsbeq	r2, r8, r9, ror #28
    179c:	72000002 	andvc	r0, r0, #2, 0
    17a0:	692d6970 	pushvs	{r4, r5, r6, r8, fp, sp, lr}
    17a4:	7265746e 	rsbvc	r7, r5, #1845493760	; 0x6e000000
    17a8:	74707572 	ldrbtvc	r7, [r0], #-1394	; 0xfffffa8e
    17ac:	00682e73 	rsbeq	r2, r8, r3, ror lr
    17b0:	00000002 	andeq	r0, r0, r2
    17b4:	05001505 	streq	r1, [r0, #-1285]	; 0xfffffafb
    17b8:	0095ec02 	addseq	lr, r5, r2, lsl #24
    17bc:	011a0300 	tsteq	sl, r0, lsl #6
    17c0:	2f310505 	svccs	0x00310505
    17c4:	13306767 	teqne	r0, #27000832	; 0x19c0000
    17c8:	06120515 			; <UNDEFINED> instruction: 0x06120515
    17cc:	06050514 			; <UNDEFINED> instruction: 0x06050514
    17d0:	01090583 	smlabbeq	r9, r3, r5, r0
    17d4:	01060d05 	tsteq	r6, r5, lsl #26
    17d8:	02001405 	andeq	r1, r0, #83886080	; 0x5000000
    17dc:	2e060104 	adfcss	f0, f6, f4
    17e0:	02000505 	andeq	r0, r0, #20971520	; 0x1400000
    17e4:	01060104 	tsteq	r6, r4, lsl #2
    17e8:	02000905 	andeq	r0, r0, #81920	; 0x14000
    17ec:	4b060304 	blmi	182404 <__bss_end__+0x176e7c>
    17f0:	02001505 	andeq	r1, r0, #20971520	; 0x1400000
    17f4:	01060304 	tsteq	r6, r4, lsl #6
    17f8:	02001005 	andeq	r1, r0, #5, 0
    17fc:	05660304 	strbeq	r0, [r6, #-772]!	; 0xfffffcfc
    1800:	0402001b 	streq	r0, [r2], #-27	; 0xffffffe5
    1804:	052d0603 	streq	r0, [sp, #-1539]!	; 0xfffff9fd
    1808:	0402001c 	streq	r0, [r2], #-28	; 0xffffffe4
    180c:	00010603 	andeq	r0, r1, r3, lsl #12
    1810:	2e030402 	cdpcs	4, 0, cr0, cr3, cr2, {0}
    1814:	01000a02 	tsteq	r0, r2, lsl #20
    1818:	0000cd01 	andeq	ip, r0, r1, lsl #26
    181c:	5e000300 	cdppl	3, 0, cr0, cr0, cr0, {0}
    1820:	02000000 	andeq	r0, r0, #0, 0
    1824:	0d0efb01 	vstreq	d15, [lr, #-4]
    1828:	01010100 	mrseq	r0, (UNDEF: 17)
    182c:	00000001 	andeq	r0, r0, r1
    1830:	01000001 	tsteq	r0, r1
    1834:	74732f2e 	ldrbtvc	r2, [r3], #-3886	; 0xfffff0d2
    1838:	2d666661 	stclcs	6, cr6, [r6, #-388]!	; 0xfffffe7c
    183c:	00637273 	rsbeq	r7, r3, r3, ror r2
    1840:	6573552f 	ldrbvs	r5, [r3, #-1327]!	; 0xfffffad1
    1844:	6d2f7372 	stcvs	3, cr7, [pc, #-456]!	; 1684 <__code_start__-0x697c>
    1848:	73656c69 	cmnvc	r5, #26880	; 0x6900
    184c:	756f532f 	strbvc	r5, [pc, #-815]!	; 1525 <__code_start__-0x6adb>
    1850:	2f656372 	svccs	0x00656372
    1854:	34327363 	ldrtcc	r7, [r2], #-867	; 0xfffffc9d
    1858:	2f786c30 	svccs	0x00786c30
    185c:	7062696c 	rsbvc	r6, r2, ip, ror #18
    1860:	6e692f69 	cdpvs	15, 6, cr2, cr9, cr9, {3}
    1864:	64756c63 	ldrbtvs	r6, [r5], #-3171	; 0xfffff39d
    1868:	72000065 	andvc	r0, r0, #101, 0	; 0x65
    186c:	6f6f6265 	svcvs	0x006f6265
    1870:	00632e74 	rsbeq	r2, r3, r4, ror lr
    1874:	72000001 	andvc	r0, r0, #1, 0
    1878:	682e6970 	stmdavs	lr!, {r4, r5, r6, r8, fp, sp, lr}
    187c:	00000200 	andeq	r0, r0, r0, lsl #4
    1880:	00190500 	andseq	r0, r9, r0, lsl #10
    1884:	966c0205 	strbtls	r0, [ip], -r5, lsl #4
    1888:	0d030000 	stceq	0, cr0, [r3, #-0]
    188c:	13050501 	movwne	r0, #21761	; 0x5501
    1890:	13053113 	movwne	r3, #20755	; 0x5113
    1894:	01050106 	tsteq	r5, r6, lsl #2
    1898:	061b052f 	ldreq	r0, [fp], -pc, lsr #10
    189c:	13050585 	movwne	r0, #21893	; 0x5585
    18a0:	2f090514 	svccs	0x00090514
    18a4:	01061605 	tsteq	r6, r5, lsl #12
    18a8:	052e0e05 	streq	r0, [lr, #-3589]!	; 0xfffff1fb
    18ac:	052f0605 	streq	r0, [pc, #-1541]!	; 12af <__code_start__-0x6d51>
    18b0:	052f0601 	streq	r0, [pc, #-1537]!	; 12b7 <__code_start__-0x6d49>
    18b4:	05300617 	ldreq	r0, [r0, #-1559]!	; 0xfffff9e9
    18b8:	08052f05 	stmdaeq	r5, {r0, r2, r8, r9, sl, fp, sp}
    18bc:	07050106 	streq	r0, [r5, -r6, lsl #2]
    18c0:	0605052e 	streq	r0, [r5], -lr, lsr #10
    18c4:	4d2f3050 	stcmi	0, cr3, [pc, #-320]!	; 178c <__code_start__-0x6874>
    18c8:	15131313 	ldrne	r1, [r3, #-787]	; 0xfffffced
    18cc:	04020067 	streq	r0, [r2], #-103	; 0xffffff99
    18d0:	0d056701 	stceq	7, cr6, [r5, #-4]
    18d4:	01040200 	mrseq	r0, R12_usr
    18d8:	000a0501 	andeq	r0, sl, r1, lsl #10
    18dc:	01010402 	tsteq	r1, r2, lsl #8
    18e0:	6d030905 	vstrvs.16	s0, [r3, #-10]	; <UNPREDICTABLE>
    18e4:	000c022e 	andeq	r0, ip, lr, lsr #4
    18e8:	00d40101 	sbcseq	r0, r4, r1, lsl #2
    18ec:	00030000 	andeq	r0, r3, r0
    18f0:	0000005d 	andeq	r0, r0, sp, asr r0
    18f4:	0efb0102 	cdpeq	1, 15, cr0, cr11, cr2, {0}
    18f8:	0101000d 	tsteq	r1, sp
    18fc:	00000101 	andeq	r0, r0, r1, lsl #2
    1900:	00000100 	andeq	r0, r0, r0, lsl #2
    1904:	732f2e01 			; <UNDEFINED> instruction: 0x732f2e01
    1908:	66666174 			; <UNDEFINED> instruction: 0x66666174
    190c:	6372732d 	cmnvs	r2, #-1275068416	; 0xb4000000
    1910:	73552f00 	cmpvc	r5, #0, 30
    1914:	2f737265 	svccs	0x00737265
    1918:	656c696d 	strbvs	r6, [ip, #-2413]!	; 0xfffff693
    191c:	6f532f73 	svcvs	0x00532f73
    1920:	65637275 	strbvs	r7, [r3, #-629]!	; 0xfffffd8b
    1924:	3273632f 	rsbscc	r6, r3, #-1140850688	; 0xbc000000
    1928:	786c3034 	stmdavc	ip!, {r2, r4, r5, ip, sp}^
    192c:	62696c2f 	rsbvs	r6, r9, #12032	; 0x2f00
    1930:	692f6970 	stmdbvs	pc!, {r4, r5, r6, r8, fp, sp, lr}	; <UNPREDICTABLE>
    1934:	756c636e 	strbvc	r6, [ip, #-878]!	; 0xfffffc92
    1938:	00006564 	andeq	r6, r0, r4, ror #10
    193c:	656d6974 	strbvs	r6, [sp, #-2420]!	; 0xfffff68c
    1940:	00632e72 	rsbeq	r2, r3, r2, ror lr
    1944:	72000001 	andvc	r0, r0, #1, 0
    1948:	682e6970 	stmdavs	lr!, {r4, r5, r6, r8, fp, sp, lr}
    194c:	00000200 	andeq	r0, r0, r0, lsl #4
    1950:	00230500 	eoreq	r0, r3, r0, lsl #10
    1954:	96ec0205 	strbtls	r0, [ip], r5, lsl #4
    1958:	05150000 	ldreq	r0, [r5, #-0]
    195c:	0c052f05 	stceq	15, cr2, [r5], {5}
    1960:	01050106 	tsteq	r5, r6, lsl #2
    1964:	061f054b 	ldreq	r0, [pc], -fp, asr #10
    1968:	3105054d 	tstcc	r5, sp, asr #10
    196c:	0612052f 	ldreq	r0, [r2], -pc, lsr #10
    1970:	06050501 	streq	r0, [r5], -r1, lsl #10
    1974:	01052f4b 	tsteq	r5, fp, asr #30
    1978:	1c051306 	stcne	3, cr1, [r5], {6}
    197c:	01064c06 	tsteq	r6, r6, lsl #24
    1980:	4b060505 	blmi	182d9c <__bss_end__+0x177814>
    1984:	01061305 	tsteq	r6, r5, lsl #6
    1988:	0605052e 	streq	r0, [r5], -lr, lsr #10
    198c:	1309052f 	movwne	r0, #38191	; 0x952f
    1990:	01061705 	tsteq	r6, r5, lsl #14
    1994:	2f060905 	svccs	0x00060905
    1998:	01061105 	tsteq	r6, r5, lsl #2
    199c:	052e0c05 	streq	r0, [lr, #-3077]!	; 0xfffff3fb
    19a0:	066b061c 			; <UNDEFINED> instruction: 0x066b061c
    19a4:	06050501 	streq	r0, [r5], -r1, lsl #10
    19a8:	054a062f 	strbeq	r0, [sl, #-1583]	; 0xfffff9d1
    19ac:	1e054b01 	vmlane.f64	d4, d5, d1
    19b0:	01062f06 	tsteq	r6, r6, lsl #30
    19b4:	2f060505 	svccs	0x00060505
    19b8:	01054a06 	tsteq	r5, r6, lsl #20
    19bc:	0002024b 	andeq	r0, r2, fp, asr #4
    19c0:	02040101 	andeq	r0, r4, #1073741824	; 0x40000000
    19c4:	00030000 	andeq	r0, r3, r0
    19c8:	000000c8 	andeq	r0, r0, r8, asr #1
    19cc:	0efb0102 	cdpeq	1, 15, cr0, cr11, cr2, {0}
    19d0:	0101000d 	tsteq	r1, sp
    19d4:	00000101 	andeq	r0, r0, r1, lsl #2
    19d8:	00000100 	andeq	r0, r0, r0, lsl #2
    19dc:	6f682f01 	svcvs	0x00682f01
    19e0:	652f656d 	strvs	r6, [pc, #-1389]!	; 147b <__code_start__-0x6b85>
    19e4:	656c676e 	strbvs	r6, [ip, #-1902]!	; 0xfffff892
    19e8:	6c632f72 	stclvs	15, cr2, [r3], #-456	; 0xfffffe38
    19ec:	2f737361 	svccs	0x00737361
    19f0:	34317363 	ldrtcc	r7, [r1], #-867	; 0xfffffc9d
    19f4:	322d6530 	eorcc	r6, sp, #48, 10	; 0xc000000
    19f8:	6e697732 	mcrvs	7, 3, r7, cr9, cr2, {1}
    19fc:	696c2f2f 	stmdbvs	ip!, {r0, r1, r2, r3, r5, r8, r9, sl, fp, sp}^
    1a00:	2f697062 	svccs	0x00697062
    1a04:	6c636e69 	stclvs	14, cr6, [r3], #-420	; 0xfffffe5c
    1a08:	00656475 	rsbeq	r6, r5, r5, ror r4
    1a0c:	7273752f 	rsbsvc	r7, r3, #197132288	; 0xbc00000
    1a10:	6168732f 	cmnvs	r8, pc, lsr #6
    1a14:	672f6572 			; <UNDEFINED> instruction: 0x672f6572
    1a18:	612d6363 			; <UNDEFINED> instruction: 0x612d6363
    1a1c:	6e2d6d72 	mcrvs	13, 1, r6, cr13, cr2, {3}
    1a20:	2d656e6f 	stclcs	14, cr6, [r5, #-444]!	; 0xfffffe44
    1a24:	69626165 	stmdbvs	r2!, {r0, r2, r5, r6, r8, sp, lr}^
    1a28:	2e30312d 	rsfcssp	f3, f0, #5.0
    1a2c:	30322d33 	eorscc	r2, r2, r3, lsr sp
    1a30:	312e3132 			; <UNDEFINED> instruction: 0x312e3132
    1a34:	696c2f30 	stmdbvs	ip!, {r4, r5, r8, r9, sl, fp, sp}^
    1a38:	63672f62 	cmnvs	r7, #392	; 0x188
    1a3c:	72612f63 	rsbvc	r2, r1, #396	; 0x18c
    1a40:	6f6e2d6d 	svcvs	0x006e2d6d
    1a44:	652d656e 	strvs	r6, [sp, #-1390]!	; 0xfffffa92
    1a48:	2f696261 	svccs	0x00696261
    1a4c:	332e3031 			; <UNDEFINED> instruction: 0x332e3031
    1a50:	692f312e 	stmdbvs	pc!, {r1, r2, r3, r5, r8, ip, sp}	; <UNPREDICTABLE>
    1a54:	756c636e 	strbvc	r6, [ip, #-878]!	; 0xfffffc92
    1a58:	00006564 	andeq	r6, r0, r4, ror #10
    1a5c:	74726175 	ldrbtvc	r6, [r2], #-373	; 0xfffffe8b
    1a60:	0000632e 	andeq	r6, r0, lr, lsr #6
    1a64:	61750000 	cmnvs	r5, r0
    1a68:	682e7472 	stmdavs	lr!, {r1, r4, r5, r6, sl, ip, sp, lr}
    1a6c:	00000100 	andeq	r0, r0, r0, lsl #2
    1a70:	2e697072 	mcrcs	0, 3, r7, cr9, cr2, {3}
    1a74:	00010068 	andeq	r0, r1, r8, rrx
    1a78:	69706700 	ldmdbvs	r0!, {r8, r9, sl, sp, lr}^
    1a7c:	00682e6f 	rsbeq	r2, r8, pc, ror #28
    1a80:	73000001 	movwvc	r0, #1
    1a84:	6e696474 	mcrvs	4, 3, r6, cr9, cr4, {3}
    1a88:	63672d74 	cmnvs	r7, #116, 26	; 0x1d00
    1a8c:	00682e63 	rsbeq	r2, r8, r3, ror #28
    1a90:	00000002 	andeq	r0, r0, r2
    1a94:	05003905 	streq	r3, [r0, #-2309]	; 0xfffff6fb
    1a98:	00977002 	addseq	r7, r7, r2
    1a9c:	01300300 	teqeq	r0, r0, lsl #6
    1aa0:	05050106 	streq	r0, [r5, #-262]	; 0xfffffefa
    1aa4:	11056706 	tstne	r5, r6, lsl #14
    1aa8:	05050106 	streq	r0, [r5, #-262]	; 0xfffffefa
    1aac:	6701052e 	strvs	r0, [r1, -lr, lsr #10]
    1ab0:	29063805 	stmdbcs	r6, {r0, r2, fp, ip, sp}
    1ab4:	05050106 	streq	r0, [r5, #-262]	; 0xfffffefa
    1ab8:	11056706 	tstne	r5, r6, lsl #14
    1abc:	05050106 	streq	r0, [r5, #-262]	; 0xfffffefa
    1ac0:	6701052e 	strvs	r0, [r1, -lr, lsr #10]
    1ac4:	03061605 	movweq	r1, #26117	; 0x6605
    1ac8:	05052e15 	streq	r2, [r5, #-3605]	; 0xfffff1eb
    1acc:	35686735 	strbcc	r6, [r8, #-1845]!	; 0xfffff8cb
    1ad0:	2e0c0368 	cdpcs	3, 0, cr0, cr12, cr8, {3}
    1ad4:	69696b85 	stmdbvs	r9!, {r0, r2, r7, r8, r9, fp, sp, lr}^
    1ad8:	13660c03 	cmnne	r6, #768	; 0x300
    1adc:	0105676b 	tsteq	r5, fp, ror #14
    1ae0:	19052f06 	stmdbne	r5, {r1, r2, r8, r9, sl, fp, sp}
    1ae4:	05250806 	streq	r0, [r5, #-2054]!	; 0xfffff7fa
    1ae8:	0d053405 	cfstrseq	mvf3, [r5, #-20]	; 0xffffffec
    1aec:	01050106 	tsteq	r5, r6, lsl #2
    1af0:	0619054c 	ldreq	r0, [r9], -ip, asr #10
    1af4:	36050567 	strcc	r0, [r5], -r7, ror #10
    1af8:	01060d05 	tsteq	r6, r5, lsl #26
    1afc:	054a2805 	strbeq	r2, [sl, #-2053]	; 0xfffff7fb
    1b00:	15053001 	strne	r3, [r5, #-1]
    1b04:	05058706 	streq	r8, [r5, #-1798]	; 0xfffff8fa
    1b08:	09052f2f 	stmdbeq	r5, {r0, r1, r2, r3, r5, r8, r9, sl, fp, sp}
    1b0c:	01040200 	mrseq	r0, R12_usr
    1b10:	000a0513 	andeq	r0, sl, r3, lsl r5
    1b14:	11010402 	tstne	r1, r2, lsl #8
    1b18:	02000c05 	andeq	r0, r0, #1280	; 0x500
    1b1c:	01060104 	tsteq	r6, r4, lsl #2
    1b20:	02000a05 	andeq	r0, r0, #20480	; 0x5000
    1b24:	052e0104 	streq	r0, [lr, #-260]!	; 0xfffffefc
    1b28:	054c0605 	strbeq	r0, [ip, #-1541]	; 0xfffff9fb
    1b2c:	0501060e 	streq	r0, [r1, #-1550]	; 0xfffff9f2
    1b30:	05054a09 	streq	r4, [r5, #-2569]	; 0xfffff5f7
    1b34:	052f2f06 	streq	r2, [pc, #-3846]!	; c36 <__code_start__-0x73ca>
    1b38:	05130601 	ldreq	r0, [r3, #-1537]	; 0xfffff9ff
    1b3c:	0667061c 			; <UNDEFINED> instruction: 0x0667061c
    1b40:	06050501 	streq	r0, [r5], -r1, lsl #10
    1b44:	09052f4b 	stmdbeq	r5, {r0, r1, r3, r6, r8, r9, sl, fp, sp}
    1b48:	01040200 	mrseq	r0, R12_usr
    1b4c:	000a0513 	andeq	r0, sl, r3, lsl r5
    1b50:	11010402 	tstne	r1, r2, lsl #8
    1b54:	02000c05 	andeq	r0, r0, #1280	; 0x500
    1b58:	01060104 	tsteq	r6, r4, lsl #2
    1b5c:	02000a05 	andeq	r0, r0, #20480	; 0x5000
    1b60:	052e0104 	streq	r0, [lr, #-260]!	; 0xfffffefc
    1b64:	674c0605 	strbvs	r0, [ip, -r5, lsl #12]
    1b68:	2f060105 	svccs	0x00060105
    1b6c:	4c061905 			; <UNDEFINED> instruction: 0x4c061905
    1b70:	052e1b05 	streq	r1, [lr, #-2821]!	; 0xfffff4fb
    1b74:	31052e2a 	tstcc	r5, sl, lsr #28
    1b78:	42050106 	andmi	r0, r5, #-2147483647	; 0x80000001
    1b7c:	061c052e 	ldreq	r0, [ip], -lr, lsr #10
    1b80:	2f050531 	svccs	0x00050531
    1b84:	052e0903 	streq	r0, [lr, #-2307]!	; 0xfffff6fd
    1b88:	0501060e 	streq	r0, [r1, #-1550]	; 0xfffff9f2
    1b8c:	01054a21 	tsteq	r5, r1, lsr #20
    1b90:	052e0a03 	streq	r0, [lr, #-2563]!	; 0xfffff5fd
    1b94:	0568061a 	strbeq	r0, [r8, #-1562]!	; 0xfffff9e6
    1b98:	04020009 	streq	r0, [r2], #-9
    1b9c:	0a053001 	beq	14dba8 <__bss_end__+0x142620>
    1ba0:	01040200 	mrseq	r0, R12_usr
    1ba4:	000c0511 	andeq	r0, ip, r1, lsl r5
    1ba8:	06010402 	streq	r0, [r1], -r2, lsl #8
    1bac:	000a0501 	andeq	r0, sl, r1, lsl #10
    1bb0:	2e010402 	cdpcs	4, 0, cr0, cr1, cr2, {0}
    1bb4:	03061905 	movweq	r1, #26885	; 0x6905
    1bb8:	05667ee8 	strbeq	r7, [r6, #-3816]!	; 0xfffff118
    1bbc:	2f2f2f05 	svccs	0x002f2f05
    1bc0:	06010567 	streq	r0, [r1], -r7, ror #10
    1bc4:	0004022f 	andeq	r0, r4, pc, lsr #4
    1bc8:	00fe0101 	rscseq	r0, lr, r1, lsl #2
    1bcc:	00030000 	andeq	r0, r3, r0
    1bd0:	00000059 	andeq	r0, r0, r9, asr r0
    1bd4:	0efb0102 	cdpeq	1, 15, cr0, cr11, cr2, {0}
    1bd8:	0101000d 	tsteq	r1, sp
    1bdc:	00000101 	andeq	r0, r0, r1, lsl #2
    1be0:	00000100 	andeq	r0, r0, r0, lsl #2
    1be4:	6f682f01 	svcvs	0x00682f01
    1be8:	652f656d 	strvs	r6, [pc, #-1389]!	; 1683 <__code_start__-0x697d>
    1bec:	656c676e 	strbvs	r6, [ip, #-1902]!	; 0xfffff892
    1bf0:	6c632f72 	stclvs	15, cr2, [r3], #-456	; 0xfffffe38
    1bf4:	2f737361 	svccs	0x00737361
    1bf8:	34317363 	ldrtcc	r7, [r1], #-867	; 0xfffffc9d
    1bfc:	322d6530 	eorcc	r6, sp, #48, 10	; 0xc000000
    1c00:	6e697732 	mcrvs	7, 3, r7, cr9, cr2, {1}
    1c04:	696c2f2f 	stmdbvs	ip!, {r0, r1, r2, r3, r5, r8, r9, sl, fp, sp}^
    1c08:	2f697062 	svccs	0x00697062
    1c0c:	6c636e69 	stclvs	14, cr6, [r3], #-420	; 0xfffffe5c
    1c10:	00656475 	rsbeq	r6, r5, r5, ror r4
    1c14:	69706700 	ldmdbvs	r0!, {r8, r9, sl, sp, lr}^
    1c18:	75702d6f 	ldrbvc	r2, [r0, #-3439]!	; 0xfffff291
    1c1c:	00632e64 	rsbeq	r2, r3, r4, ror #28
    1c20:	72000000 	andvc	r0, r0, #0, 0
    1c24:	682e6970 	stmdavs	lr!, {r4, r5, r6, r8, fp, sp, lr}
    1c28:	00000100 	andeq	r0, r0, r0, lsl #2
    1c2c:	002f0500 	eoreq	r0, pc, r0, lsl #10
    1c30:	99600205 	stmdbls	r0!, {r0, r2, r9}^
    1c34:	10030000 	andne	r0, r3, r0
    1c38:	05010601 	streq	r0, [r1, #-1537]	; 0xfffff9ff
    1c3c:	014b0605 	cmpeq	fp, r5, lsl #12
    1c40:	02040200 	andeq	r0, r4, #0, 4
    1c44:	04020082 	streq	r0, [r2], #-130	; 0xffffff7e
    1c48:	02001302 	andeq	r1, r0, #134217728	; 0x8000000
    1c4c:	4a010204 	bmi	42464 <__bss_end__+0x36edc>
    1c50:	07051414 	smladeq	r5, r4, r4, r1
    1c54:	01050106 	tsteq	r5, r6, lsl #2
    1c58:	054a1b03 	strbeq	r1, [sl, #-2819]	; 0xfffff4fd
    1c5c:	04020005 	streq	r0, [r2], #-5
    1c60:	60030601 	andvs	r0, r3, r1, lsl #12
    1c64:	0402004a 	streq	r0, [r2], #-74	; 0xffffffb6
    1c68:	02002e01 	andeq	r2, r0, #1, 28
    1c6c:	00d60104 	sbcseq	r0, r6, r4, lsl #2
    1c70:	2f010402 	svccs	0x00010402
    1c74:	01040200 	mrseq	r0, R12_usr
    1c78:	0402002e 	streq	r0, [r2], #-46	; 0xffffffd2
    1c7c:	3135d601 	teqcc	r5, r1, lsl #12
    1c80:	2e064e84 	cdpcs	14, 0, cr4, cr6, cr4, {4}
    1c84:	674e8406 	strbvs	r8, [lr, -r6, lsl #8]
    1c88:	054c674e 	strbeq	r6, [ip, #-1870]	; 0xfffff8b2
    1c8c:	063f0824 	ldrteq	r0, [pc], -r4, lsr #16
    1c90:	06260501 	strteq	r0, [r6], -r1, lsl #10
    1c94:	063f052e 	ldrteq	r0, [pc], -lr, lsr #10
    1c98:	0626054a 	strteq	r0, [r6], -sl, asr #10
    1c9c:	0501062f 	streq	r0, [r1, #-1583]	; 0xfffff9d1
    1ca0:	052e0628 	streq	r0, [lr, #-1576]!	; 0xfffff9d8
    1ca4:	054a0641 	strbeq	r0, [sl, #-1601]	; 0xfffff9bf
    1ca8:	062f0621 	strteq	r0, [pc], -r1, lsr #12
    1cac:	06230501 	strteq	r0, [r3], -r1, lsl #10
    1cb0:	063c052e 	ldrteq	r0, [ip], -lr, lsr #10
    1cb4:	0620054a 	strteq	r0, [r0], -sl, asr #10
    1cb8:	05010630 	streq	r0, [r1, #-1584]	; 0xfffff9d0
    1cbc:	052f0605 	streq	r0, [pc, #-1541]!	; 16bf <__code_start__-0x6941>
    1cc0:	2e01060d 	cfmadd32cs	mvax0, mvfx0, mvfx1, mvfx13
    1cc4:	022f0105 	eoreq	r0, pc, #1073741825	; 0x40000001
    1cc8:	01010006 	tsteq	r1, r6
    1ccc:	00000098 	muleq	r0, r8, r0
    1cd0:	005a0003 	subseq	r0, sl, r3
    1cd4:	01020000 	mrseq	r0, (UNDEF: 2)
    1cd8:	000d0efb 	strdeq	r0, [sp], -fp
    1cdc:	01010101 	tsteq	r1, r1, lsl #2
    1ce0:	01000000 	mrseq	r0, (UNDEF: 0)
    1ce4:	2e010000 	cdpcs	0, 0, cr0, cr1, cr0, {0}
    1ce8:	62696c2f 	rsbvs	r6, r9, #12032	; 0x2f00
    1cec:	552f0063 	strpl	r0, [pc, #-99]!	; 1c91 <__code_start__-0x636f>
    1cf0:	73726573 	cmnvc	r2, #482344960	; 0x1cc00000
    1cf4:	6c696d2f 	stclvs	13, cr6, [r9], #-188	; 0xffffff44
    1cf8:	532f7365 			; <UNDEFINED> instruction: 0x532f7365
    1cfc:	6372756f 	cmnvs	r2, #465567744	; 0x1bc00000
    1d00:	73632f65 	cmnvc	r3, #404	; 0x194
    1d04:	6c303432 	cfldrsvs	mvf3, [r0], #-200	; 0xffffff38
    1d08:	696c2f78 	stmdbvs	ip!, {r3, r4, r5, r6, r8, r9, sl, fp, sp}^
    1d0c:	2f697062 	svccs	0x00697062
    1d10:	6c636e69 	stclvs	14, cr6, [r3], #-420	; 0xfffffe5c
    1d14:	00656475 	rsbeq	r6, r5, r5, ror r4
    1d18:	74757000 	ldrbtvc	r7, [r5], #-0
    1d1c:	72616863 	rsbvc	r6, r1, #6488064	; 0x630000
    1d20:	0100632e 	tsteq	r0, lr, lsr #6
    1d24:	70720000 	rsbsvc	r0, r2, r0
    1d28:	00682e69 	rsbeq	r2, r8, r9, ror #28
    1d2c:	00000002 	andeq	r0, r0, r2
    1d30:	05002405 	streq	r2, [r0, #-1029]	; 0xfffffbfb
    1d34:	009aa802 	addseq	sl, sl, r2, lsl #16
    1d38:	01061400 	tsteq	r6, r0, lsl #8
    1d3c:	4a062605 	bmi	18b558 <__bss_end__+0x17ffd0>
    1d40:	052e3405 	streq	r3, [lr, #-1029]!	; 0xfffffbfb
    1d44:	05010601 	streq	r0, [r1, #-1537]	; 0xfffff9ff
    1d48:	054f061b 	strbeq	r0, [pc, #-1563]	; 1735 <__code_start__-0x68cb>
    1d4c:	11051305 	tstne	r5, r5, lsl #6
    1d50:	01050106 	tsteq	r5, r6, lsl #2
    1d54:	06230567 	strteq	r0, [r3], -r7, ror #10
    1d58:	13050567 	movwne	r0, #21863	; 0x5567
    1d5c:	01061105 	tsteq	r6, r5, lsl #2
    1d60:	024b0105 	subeq	r0, fp, #1073741825	; 0x40000001
    1d64:	01010004 	tsteq	r1, r4
    1d68:	000000e4 	andeq	r0, r0, r4, ror #1
    1d6c:	00590003 	subseq	r0, r9, r3
    1d70:	01020000 	mrseq	r0, (UNDEF: 2)
    1d74:	000d0efb 	strdeq	r0, [sp], -fp
    1d78:	01010101 	tsteq	r1, r1, lsl #2
    1d7c:	01000000 	mrseq	r0, (UNDEF: 0)
    1d80:	2e010000 	cdpcs	0, 0, cr0, cr1, cr0, {0}
    1d84:	62696c2f 	rsbvs	r6, r9, #12032	; 0x2f00
    1d88:	552f0063 	strpl	r0, [pc, #-99]!	; 1d2d <__code_start__-0x62d3>
    1d8c:	73726573 	cmnvc	r2, #482344960	; 0x1cc00000
    1d90:	6c696d2f 	stclvs	13, cr6, [r9], #-188	; 0xffffff44
    1d94:	532f7365 			; <UNDEFINED> instruction: 0x532f7365
    1d98:	6372756f 	cmnvs	r2, #465567744	; 0x1bc00000
    1d9c:	73632f65 	cmnvc	r3, #404	; 0x194
    1da0:	6c303432 	cfldrsvs	mvf3, [r0], #-200	; 0xffffff38
    1da4:	696c2f78 	stmdbvs	ip!, {r3, r4, r5, r6, r8, r9, sl, fp, sp}^
    1da8:	2f697062 	svccs	0x00697062
    1dac:	6c636e69 	stclvs	14, cr6, [r3], #-420	; 0xfffffe5c
    1db0:	00656475 	rsbeq	r6, r5, r5, ror r4
    1db4:	72747300 	rsbsvc	r7, r4, #0, 6
    1db8:	2e746163 	rpwcssz	f6, f4, f3
    1dbc:	00010063 	andeq	r0, r1, r3, rrx
    1dc0:	69707200 	ldmdbvs	r0!, {r9, ip, sp, lr}^
    1dc4:	0200682e 	andeq	r6, r0, #3014656	; 0x2e0000
    1dc8:	05000000 	streq	r0, [r0, #-0]
    1dcc:	0205002c 	andeq	r0, r5, #44, 0	; 0x2c
    1dd0:	00009ae4 	andeq	r9, r0, r4, ror #21
    1dd4:	13050515 	movwne	r0, #21781	; 0x5515
    1dd8:	060b0513 			; <UNDEFINED> instruction: 0x060b0513
    1ddc:	00050511 	andeq	r0, r5, r1, lsl r5
    1de0:	06010402 	streq	r0, [r1], -r2, lsl #8
    1de4:	04020030 	streq	r0, [r2], #-48	; 0xffffffd0
    1de8:	09051501 	stmdbeq	r5, {r0, r8, sl, ip}
    1dec:	01040200 	mrseq	r0, R12_usr
    1df0:	00100513 	andseq	r0, r0, r3, lsl r5
    1df4:	06010402 	streq	r0, [r1], -r2, lsl #8
    1df8:	000b052e 	andeq	r0, fp, lr, lsr #10
    1dfc:	2e010402 	cdpcs	4, 0, cr0, cr1, cr2, {0}
    1e00:	01040200 	mrseq	r0, R12_usr
    1e04:	05052f06 	streq	r2, [r5, #-3846]	; 0xfffff0fa
    1e08:	01040200 	mrseq	r0, R12_usr
    1e0c:	4e060106 	adfmis	f0, f6, f6
    1e10:	01060805 	tsteq	r6, r5, lsl #16
    1e14:	02000505 	andeq	r0, r0, #20971520	; 0x1400000
    1e18:	2f060104 	svccs	0x00060104
    1e1c:	02000905 	andeq	r0, r0, #81920	; 0x14000
    1e20:	05130104 	ldreq	r0, [r3, #-260]	; 0xfffffefc
    1e24:	0402000b 	streq	r0, [r2], #-11
    1e28:	05010601 	streq	r0, [r1, #-1537]	; 0xfffff9ff
    1e2c:	04020009 	streq	r0, [r2], #-9
    1e30:	054b0601 	strbeq	r0, [fp, #-1537]	; 0xfffff9ff
    1e34:	0402000f 	streq	r0, [r2], #-15
    1e38:	05010601 	streq	r0, [r1, #-1537]	; 0xfffff9ff
    1e3c:	0402000d 	streq	r0, [r2], #-13
    1e40:	052f0601 	streq	r0, [pc, #-1537]!	; 1847 <__code_start__-0x67b9>
    1e44:	04020005 	streq	r0, [r2], #-5
    1e48:	02010601 	andeq	r0, r1, #1048576	; 0x100000
    1e4c:	01010006 	tsteq	r1, r6
    1e50:	0000009d 	muleq	r0, sp, r0
    1e54:	00590003 	subseq	r0, r9, r3
    1e58:	01020000 	mrseq	r0, (UNDEF: 2)
    1e5c:	000d0efb 	strdeq	r0, [sp], -fp
    1e60:	01010101 	tsteq	r1, r1, lsl #2
    1e64:	01000000 	mrseq	r0, (UNDEF: 0)
    1e68:	2e010000 	cdpcs	0, 0, cr0, cr1, cr0, {0}
    1e6c:	62696c2f 	rsbvs	r6, r9, #12032	; 0x2f00
    1e70:	552f0063 	strpl	r0, [pc, #-99]!	; 1e15 <__code_start__-0x61eb>
    1e74:	73726573 	cmnvc	r2, #482344960	; 0x1cc00000
    1e78:	6c696d2f 	stclvs	13, cr6, [r9], #-188	; 0xffffff44
    1e7c:	532f7365 			; <UNDEFINED> instruction: 0x532f7365
    1e80:	6372756f 	cmnvs	r2, #465567744	; 0x1bc00000
    1e84:	73632f65 	cmnvc	r3, #404	; 0x194
    1e88:	6c303432 	cfldrsvs	mvf3, [r0], #-200	; 0xffffff38
    1e8c:	696c2f78 	stmdbvs	ip!, {r3, r4, r5, r6, r8, r9, sl, fp, sp}^
    1e90:	2f697062 	svccs	0x00697062
    1e94:	6c636e69 	stclvs	14, cr6, [r3], #-420	; 0xfffffe5c
    1e98:	00656475 	rsbeq	r6, r5, r5, ror r4
    1e9c:	72747300 	rsbsvc	r7, r4, #0, 6
    1ea0:	2e706d63 	cdpcs	13, 7, cr6, cr0, cr3, {3}
    1ea4:	00010063 	andeq	r0, r1, r3, rrx
    1ea8:	69707200 	ldmdbvs	r0!, {r9, ip, sp, lr}^
    1eac:	0200682e 	andeq	r6, r0, #3014656	; 0x2e0000
    1eb0:	05000000 	streq	r0, [r0, #-0]
    1eb4:	0205002a 	andeq	r0, r5, #42, 0	; 0x2a
    1eb8:	00009b18 	andeq	r9, r0, r8, lsl fp
    1ebc:	13090514 	movwne	r0, #38164	; 0x9514
    1ec0:	05010f05 	streq	r0, [r1, #-3845]	; 0xfffff0fb
    1ec4:	05010610 	streq	r0, [r1, #-1552]	; 0xfffff9f0
    1ec8:	1c052e0f 	stcne	14, cr2, [r5], {15}
    1ecc:	01040200 	mrseq	r0, R12_usr
    1ed0:	0013054a 	andseq	r0, r3, sl, asr #10
    1ed4:	2e010402 	cdpcs	4, 0, cr0, cr1, cr2, {0}
    1ed8:	2f061105 	svccs	0x00061105
    1edc:	2e061605 	cfmadd32cs	mvax0, mvfx1, mvfx6, mvfx5
    1ee0:	0609052e 	streq	r0, [r9], -lr, lsr #10
    1ee4:	0615052f 	ldreq	r0, [r5], -pc, lsr #10
    1ee8:	2f010501 	svccs	0x00010501
    1eec:	01000402 	tsteq	r0, r2, lsl #8
    1ef0:	00009b01 	andeq	r9, r0, r1, lsl #22
    1ef4:	59000300 	stmdbpl	r0, {r8, r9}
    1ef8:	02000000 	andeq	r0, r0, #0, 0
    1efc:	0d0efb01 	vstreq	d15, [lr, #-4]
    1f00:	01010100 	mrseq	r0, (UNDEF: 17)
    1f04:	00000001 	andeq	r0, r0, r1
    1f08:	01000001 	tsteq	r0, r1
    1f0c:	696c2f2e 	stmdbvs	ip!, {r1, r2, r3, r5, r8, r9, sl, fp, sp}^
    1f10:	2f006362 	svccs	0x00006362
    1f14:	72657355 	rsbvc	r7, r5, #1409286145	; 0x54000001
    1f18:	696d2f73 	stmdbvs	sp!, {r0, r1, r4, r5, r6, r8, r9, sl, fp, sp}^
    1f1c:	2f73656c 	svccs	0x0073656c
    1f20:	72756f53 	rsbsvc	r6, r5, #332	; 0x14c
    1f24:	632f6563 			; <UNDEFINED> instruction: 0x632f6563
    1f28:	30343273 	eorscc	r3, r4, r3, ror r2
    1f2c:	6c2f786c 	stcvs	8, cr7, [pc], #-432	; 1d84 <__code_start__-0x627c>
    1f30:	69706269 	ldmdbvs	r0!, {r0, r3, r5, r6, r9, sp, lr}^
    1f34:	636e692f 	cmnvs	lr, #770048	; 0xbc000
    1f38:	6564756c 	strbvs	r7, [r4, #-1388]!	; 0xfffffa94
    1f3c:	74730000 	ldrbtvc	r0, [r3], #-0
    1f40:	79706372 	ldmdbvc	r0!, {r1, r4, r5, r6, r8, r9, sp, lr}^
    1f44:	0100632e 	tsteq	r0, lr, lsr #6
    1f48:	70720000 	rsbsvc	r0, r2, r0
    1f4c:	00682e69 	rsbeq	r2, r8, r9, ror #28
    1f50:	00000002 	andeq	r0, r0, r2
    1f54:	05002a05 	streq	r2, [r0, #-2565]	; 0xfffff5fb
    1f58:	009b4402 	addseq	r4, fp, r2, lsl #8
    1f5c:	05051400 	streq	r1, [r5, #-1024]	; 0xfffffc00
    1f60:	14051313 	strne	r1, [r5], #-787	; 0xfffffced
    1f64:	22051106 	andcs	r1, r5, #-2147483647	; 0x80000001
    1f68:	01040200 	mrseq	r0, R12_usr
    1f6c:	0b052f06 	bleq	14db8c <__bss_end__+0x142604>
    1f70:	01040200 	mrseq	r0, R12_usr
    1f74:	00150501 	andseq	r0, r5, r1, lsl #10
    1f78:	06010402 	streq	r0, [r1], -r2, lsl #8
    1f7c:	00130501 	andseq	r0, r3, r1, lsl #10
    1f80:	4a010402 	bmi	42f90 <__bss_end__+0x37a08>
    1f84:	02000b05 	andeq	r0, r0, #5120	; 0x1400
    1f88:	024a0104 	subeq	r0, sl, #1
    1f8c:	01010006 	tsteq	r1, r6
    1f90:	000000fe 	strdeq	r0, [r0], -lr
    1f94:	00c20003 	sbceq	r0, r2, r3
    1f98:	01020000 	mrseq	r0, (UNDEF: 2)
    1f9c:	000d0efb 	strdeq	r0, [sp], -fp
    1fa0:	01010101 	tsteq	r1, r1, lsl #2
    1fa4:	01000000 	mrseq	r0, (UNDEF: 0)
    1fa8:	2e010000 	cdpcs	0, 0, cr0, cr1, cr0, {0}
    1fac:	62696c2f 	rsbvs	r6, r9, #12032	; 0x2f00
    1fb0:	552f0063 	strpl	r0, [pc, #-99]!	; 1f55 <__code_start__-0x60ab>
    1fb4:	73726573 	cmnvc	r2, #482344960	; 0x1cc00000
    1fb8:	6c696d2f 	stclvs	13, cr6, [r9], #-188	; 0xffffff44
    1fbc:	532f7365 			; <UNDEFINED> instruction: 0x532f7365
    1fc0:	6372756f 	cmnvs	r2, #465567744	; 0x1bc00000
    1fc4:	73632f65 	cmnvc	r3, #404	; 0x194
    1fc8:	6c303432 	cfldrsvs	mvf3, [r0], #-200	; 0xffffff38
    1fcc:	696c2f78 	stmdbvs	ip!, {r3, r4, r5, r6, r8, r9, sl, fp, sp}^
    1fd0:	2f697062 	svccs	0x00697062
    1fd4:	6c636e69 	stclvs	14, cr6, [r3], #-420	; 0xfffffe5c
    1fd8:	00656475 	rsbeq	r6, r5, r5, ror r4
    1fdc:	74706f2f 	ldrbtvc	r6, [r0], #-3887	; 0xfffff0d1
    1fe0:	6d6f682f 	stclvs	8, cr6, [pc, #-188]!	; 1f2c <__code_start__-0x60d4>
    1fe4:	65726265 	ldrbvs	r6, [r2, #-613]!	; 0xfffffd9b
    1fe8:	65432f77 	strbvs	r2, [r3, #-3959]	; 0xfffff089
    1fec:	72616c6c 	rsbvc	r6, r1, #108, 24	; 0x6c00
    1ff0:	6d72612f 	ldfvse	f6, [r2, #-188]!	; 0xffffff44
    1ff4:	6e6f6e2d 	cdpvs	14, 6, cr6, cr15, cr13, {1}
    1ff8:	61652d65 	cmnvs	r5, r5, ror #26
    1ffc:	742d6962 	strtvc	r6, [sp], #-2402	; 0xfffff69e
    2000:	2f747365 	svccs	0x00747365
    2004:	30322d39 	eorscc	r2, r2, r9, lsr sp
    2008:	34713931 	ldrbtcc	r3, [r1], #-2353	; 0xfffff6cf
    200c:	3173632d 	cmncc	r3, sp, lsr #6
    2010:	2f653730 	svccs	0x00653730
    2014:	2f62696c 	svccs	0x0062696c
    2018:	2f636367 	svccs	0x00636367
    201c:	2d6d7261 	sfmcs	f7, 2, [sp, #-388]!	; 0xfffffe7c
    2020:	656e6f6e 	strbvs	r6, [lr, #-3950]!	; 0xfffff092
    2024:	6261652d 	rsbvs	r6, r1, #188743680	; 0xb400000
    2028:	2e392f69 	cdpcs	15, 3, cr2, cr9, cr9, {3}
    202c:	2f312e32 	svccs	0x00312e32
    2030:	6c636e69 	stclvs	14, cr6, [r3], #-420	; 0xfffffe5c
    2034:	00656475 	rsbeq	r6, r5, r5, ror r4
    2038:	72747300 	rsbsvc	r7, r4, #0, 6
    203c:	706d636e 	rsbvc	r6, sp, lr, ror #6
    2040:	0100632e 	tsteq	r0, lr, lsr #6
    2044:	70720000 	rsbsvc	r0, r2, r0
    2048:	00682e69 	rsbeq	r2, r8, r9, ror #28
    204c:	73000002 	movwvc	r0, #2
    2050:	65646474 	strbvs	r6, [r4, #-1140]!	; 0xfffffb8c
    2054:	00682e66 	rsbeq	r2, r8, r6, ror #28
    2058:	00000003 	andeq	r0, r0, r3
    205c:	05003905 	streq	r3, [r0, #-2309]	; 0xfffff6fb
    2060:	009b6402 	addseq	r6, fp, r2, lsl #8
    2064:	05051500 	streq	r1, [r5, #-1280]	; 0xfffffb00
    2068:	0a051313 	beq	146cbc <__bss_end__+0x13b734>
    206c:	4a010601 	bmi	43878 <__bss_end__+0x382f0>
    2070:	2f060905 	svccs	0x00060905
    2074:	01060c05 	tsteq	r6, r5, lsl #24
    2078:	052e1305 	streq	r1, [lr, #-773]!	; 0xfffffcfb
    207c:	0d052e0b 	stceq	14, cr2, [r5, #-44]	; 0xffffffd4
    2080:	1b054b06 	blne	154ca0 <__bss_end__+0x149718>
    2084:	052e0106 	streq	r0, [lr, #-262]!	; 0xfffffefa
    2088:	0105300c 	tsteq	r5, ip
    208c:	0002022f 	andeq	r0, r2, pc, lsr #4
    2090:	008a0101 	addeq	r0, sl, r1, lsl #2
    2094:	00030000 	andeq	r0, r3, r0
    2098:	0000006e 	andeq	r0, r0, lr, rrx
    209c:	0efb0102 	cdpeq	1, 15, cr0, cr11, cr2, {0}
    20a0:	0101000d 	tsteq	r1, sp
    20a4:	00000101 	andeq	r0, r0, r1, lsl #2
    20a8:	00000100 	andeq	r0, r0, r0, lsl #2
    20ac:	732f2e01 			; <UNDEFINED> instruction: 0x732f2e01
    20b0:	66666174 			; <UNDEFINED> instruction: 0x66666174
    20b4:	6372732d 	cmnvs	r2, #-1275068416	; 0xb4000000
    20b8:	73552f00 	cmpvc	r5, #0, 30
    20bc:	2f737265 	svccs	0x00737265
    20c0:	656c696d 	strbvs	r6, [ip, #-2413]!	; 0xfffff693
    20c4:	6f532f73 	svcvs	0x00532f73
    20c8:	65637275 	strbvs	r7, [r3, #-629]!	; 0xfffffd8b
    20cc:	3273632f 	rsbscc	r6, r3, #-1140850688	; 0xbc000000
    20d0:	786c3034 	stmdavc	ip!, {r2, r4, r5, ip, sp}^
    20d4:	62696c2f 	rsbvs	r6, r9, #12032	; 0x2f00
    20d8:	692f6970 	stmdbvs	pc!, {r4, r5, r6, r8, fp, sp, lr}	; <UNPREDICTABLE>
    20dc:	756c636e 	strbvc	r6, [ip, #-878]!	; 0xfffffc92
    20e0:	00006564 	andeq	r6, r0, r4, ror #10
    20e4:	61666564 	cmnvs	r6, r4, ror #10
    20e8:	2d746c75 	ldclcs	12, cr6, [r4, #-468]!	; 0xfffffe2c
    20ec:	6f626572 	svcvs	0x00626572
    20f0:	632d746f 			; <UNDEFINED> instruction: 0x632d746f
    20f4:	6f6c6c61 	svcvs	0x006c6c61
    20f8:	632e7475 			; <UNDEFINED> instruction: 0x632e7475
    20fc:	00000100 	andeq	r0, r0, r0, lsl #2
    2100:	2e697072 	mcrcs	0, 3, r7, cr9, cr2, {3}
    2104:	00020068 	andeq	r0, r2, r8, rrx
    2108:	1b050000 	blne	142110 <__bss_end__+0x136b88>
    210c:	90020500 	andls	r0, r2, r0, lsl #10
    2110:	1400009b 	strne	r0, [r0], #-155	; 0xffffff65
    2114:	05011c05 	streq	r1, [r1, #-3077]	; 0xfffff3fb
    2118:	02010601 	andeq	r0, r1, #1048576	; 0x100000
    211c:	01010002 	tsteq	r1, r2

Disassembly of section .debug_str:

00000000 <.debug_str>:
   0:	6573552f 	ldrbvs	r5, [r3, #-1327]!	; 0xfffffad1
   4:	6d2f7372 	stcvs	3, cr7, [pc, #-456]!	; fffffe44 <__bss_end__+0xffff48bc>
   8:	73656c69 	cmnvc	r5, #26880	; 0x6900
   c:	756f532f 	strbvc	r5, [pc, #-815]!	; fffffce5 <__bss_end__+0xffff475d>
  10:	2f656372 	svccs	0x00656372
  14:	34327363 	ldrtcc	r7, [r2], #-867	; 0xfffffc9d
  18:	2f786c30 	svccs	0x00786c30
  1c:	7362616c 	cmnvc	r2, #27
  20:	692d322f 	pushvs	{r0, r1, r2, r3, r5, r9, ip, sp}
  24:	6f632f72 	svcvs	0x00632f72
  28:	67006564 	strvs	r6, [r0, -r4, ror #10]
  2c:	5f6f6970 	svcpl	0x006f6970
  30:	5f746573 	svcpl	0x00746573
  34:	0066666f 	rsbeq	r6, r6, pc, ror #12
  38:	5f79656b 	svcpl	0x0079656b
  3c:	735f6f74 	cmpvc	pc, #116, 30	; 0x1d0
  40:	73007274 	movwvc	r7, #628	; 0x274
  44:	74726f68 	ldrbtvc	r6, [r2], #-3944	; 0xfffff098
  48:	746e6920 	strbtvc	r6, [lr], #-2336	; 0xfffff6e0
  4c:	5f626c00 	svcpl	0x00626c00
  50:	006e656c 	rsbeq	r6, lr, ip, ror #10
  54:	685f7369 	ldmdavs	pc, {r0, r3, r5, r6, r8, r9, ip, sp, lr}^	; <UNPREDICTABLE>
  58:	65646165 	strbvs	r6, [r4, #-357]!	; 0xfffffe9b
  5c:	70720072 	rsbsvc	r0, r2, r2, ror r0
  60:	75705f69 	ldrbvc	r5, [r0, #-3945]!	; 0xfffff097
  64:	61686374 	smcvs	34356	; 0x8634
  68:	70670072 	rsbvc	r0, r7, r2, ror r0
  6c:	735f6f69 	cmpvc	pc, #420	; 0x1a4
  70:	6f5f7465 	svcvs	0x005f7465
  74:	75707475 	ldrbvc	r7, [r0, #-1141]!	; 0xfffffb8b
  78:	73740074 	cmnvc	r4, #116, 0	; 0x74
  7c:	695f706f 	ldmdbvs	pc, {r0, r1, r2, r3, r5, r6, ip, sp, lr}^	; <UNPREDICTABLE>
  80:	0074696e 	rsbseq	r6, r4, lr, ror #18
  84:	6e617274 	mcrvs	2, 3, r7, cr1, cr4, {3}
  88:	74696d73 	strbtvc	r6, [r9], #-3443	; 0xfffff28d
  8c:	726f665f 	rsbvc	r6, pc, #99614720	; 0x5f00000
  90:	746e6900 	strbtvc	r6, [lr], #-2304	; 0xfffff700
  94:	6165725f 	cmnvs	r5, pc, asr r2
  98:	676e6964 	strbvs	r6, [lr, -r4, ror #18]!
  9c:	006e5f73 	rsbeq	r5, lr, r3, ror pc
  a0:	6f697067 	svcvs	0x00697067
  a4:	7465735f 	strbtvc	r7, [r5], #-863	; 0xfffffca1
  a8:	006e6f5f 	rsbeq	r6, lr, pc, asr pc
  ac:	616c6564 	cmnvs	ip, r4, ror #10
  b0:	736d5f79 	cmnvc	sp, #484	; 0x1e4
  b4:	6e797300 	cdpvs	3, 7, cr7, cr9, cr0, {0}
  b8:	65725f63 	ldrbvs	r5, [r2, #-3939]!	; 0xfffff09d
  bc:	63006461 	movwvs	r6, #1121	; 0x461
  c0:	65766e6f 	ldrbvs	r6, [r6, #-3695]!	; 0xfffff191
  c4:	6c007472 	cfstrsvs	mvf7, [r0], {114}	; 0x72
  c8:	20676e6f 	rsbcs	r6, r7, pc, ror #28
  cc:	676e6f6c 	strbvs	r6, [lr, -ip, ror #30]!
  d0:	746e6920 	strbtvc	r6, [lr], #-2336	; 0xfffff6e0
  d4:	74656700 	strbtvc	r6, [r5], #-1792	; 0xfffff900
  d8:	6165725f 	cmnvs	r5, pc, asr r2
  dc:	676e6964 	strbvs	r6, [lr, -r4, ror #18]!
  e0:	70670073 	rsbvc	r0, r7, r3, ror r0
  e4:	735f6f69 	cmpvc	pc, #420	; 0x1a4
  e8:	705f7465 	subsvc	r7, pc, r5, ror #8
  ec:	756c6c75 	strbvc	r6, [ip, #-3189]!	; 0xfffff38b
  f0:	69700070 	ldmdbvs	r0!, {r4, r5, r6}^
  f4:	69006b63 	stmdbvs	r0, {r0, r1, r5, r6, r8, r9, fp, sp, lr}
  f8:	6b735f73 	blvs	1cd7ecc <__bss_end__+0x1ccc944>
  fc:	63007069 	movwvs	r7, #105	; 0x69
 100:	6e61656c 	cdpvs	5, 6, cr6, cr1, cr12, {3}
 104:	6265725f 	rsbvs	r7, r5, #-268435451	; 0xf0000005
 108:	00746f6f 	rsbseq	r6, r4, pc, ror #30
 10c:	5f746e69 	svcpl	0x00746e69
 110:	74696e69 	strbtvc	r6, [r9], #-3689	; 0xfffff197
 114:	736e7500 	cmnvc	lr, #0, 10
 118:	656e6769 	strbvs	r6, [lr, #-1897]!	; 0xfffff897
 11c:	68632064 	stmdavs	r3!, {r2, r5, r6, sp}^
 120:	67007261 	strvs	r7, [r0, -r1, ror #4]
 124:	5f6f6970 	svcpl	0x006f6970
 128:	64616572 	strbtvs	r6, [r1], #-1394	; 0xfffffa8e
 12c:	73797300 	cmnvc	r9, #0, 6
 130:	5f6d6574 	svcpl	0x006d6574
 134:	62616e65 	rsbvs	r6, r1, #1616	; 0x650
 138:	695f656c 	ldmdbvs	pc, {r2, r3, r5, r6, r8, sl, sp, lr}^	; <UNPREDICTABLE>
 13c:	7265746e 	rsbvc	r7, r5, #1845493760	; 0x6e000000
 140:	74707572 	ldrbtvc	r7, [r0], #-1394	; 0xfffffa8e
 144:	69660073 	stmdbvs	r6!, {r0, r1, r4, r5, r6}^
 148:	685f646e 	ldmdavs	pc, {r1, r2, r3, r5, r6, sl, sp, lr}^	; <UNPREDICTABLE>
 14c:	65646165 	strbvs	r6, [r4, #-357]!	; 0xfffffe9b
 150:	69740072 	ldmdbvs	r4!, {r1, r4, r5, r6}^
 154:	645f656d 	ldrbvs	r6, [pc], #-1389	; 15c <__code_start__-0x7ea4>
 158:	00666669 	rsbeq	r6, r6, r9, ror #12
 15c:	676e6f6c 	strbvs	r6, [lr, -ip, ror #30]!
 160:	6e6f6c20 	cdpvs	12, 6, cr6, cr15, cr0, {1}
 164:	6e752067 	cdpvs	0, 7, cr2, cr5, cr7, {3}
 168:	6e676973 			; <UNDEFINED> instruction: 0x6e676973
 16c:	69206465 	stmdbvs	r0!, {r0, r2, r5, r6, sl, sp, lr}
 170:	7500746e 	strvc	r7, [r0, #-1134]	; 0xfffffb92
 174:	33746e69 	cmncc	r4, #1680	; 0x690
 178:	00745f32 	rsbseq	r5, r4, r2, lsr pc
 17c:	6d746f6e 	ldclvs	15, cr6, [r4, #-440]!	; 0xfffffe48
 180:	006e6961 	rsbeq	r6, lr, r1, ror #18
 184:	726f6873 	rsbvc	r6, pc, #7536640	; 0x730000
 188:	6e752074 	mrcvs	0, 3, r2, cr5, cr4, {3}
 18c:	6e676973 			; <UNDEFINED> instruction: 0x6e676973
 190:	69206465 	stmdbvs	r0!, {r0, r2, r5, r6, sl, sp, lr}
 194:	7300746e 	movwvc	r7, #1134	; 0x46e
 198:	5f636e79 	svcpl	0x00636e79
 19c:	74697277 	strbtvc	r7, [r9], #-631	; 0xfffffd89
 1a0:	616c0065 	cmnvs	ip, r5, rrx
 1a4:	745f7473 	ldrbvc	r7, [pc], #-1139	; 1ac <__code_start__-0x7e54>
 1a8:	00656d69 	rsbeq	r6, r5, r9, ror #26
 1ac:	656d6974 	strbvs	r6, [sp, #-2420]!	; 0xfffff68c
 1b0:	65675f72 	strbvs	r5, [r7, #-3954]!	; 0xfffff08e
 1b4:	73755f74 	cmnvc	r5, #116, 30	; 0x1d0
 1b8:	47006365 	strmi	r6, [r0, -r5, ror #6]
 1bc:	4320554e 			; <UNDEFINED> instruction: 0x4320554e
 1c0:	39203939 	stmdbcc	r0!, {r0, r3, r4, r5, r8, fp, ip, sp}
 1c4:	312e322e 			; <UNDEFINED> instruction: 0x312e322e
 1c8:	31303220 	teqcc	r0, r0, lsr #4
 1cc:	32303139 	eorscc	r3, r0, #1073741838	; 0x4000000e
 1d0:	72282035 	eorvc	r2, r8, #53, 0	; 0x35
 1d4:	61656c65 	cmnvs	r5, r5, ror #24
 1d8:	20296573 	eorcs	r6, r9, r3, ror r5
 1dc:	4d52415b 	ldfmie	f4, [r2, #-364]	; 0xfffffe94
 1e0:	6d72612f 	ldfvse	f6, [r2, #-188]!	; 0xffffff44
 1e4:	622d392d 	eorvs	r3, sp, #737280	; 0xb4000
 1e8:	636e6172 	cmnvs	lr, #-2147483620	; 0x8000001c
 1ec:	65722068 	ldrbvs	r2, [r2, #-104]!	; 0xffffff98
 1f0:	69736976 	ldmdbvs	r3!, {r1, r2, r4, r5, r6, r8, fp, sp, lr}^
 1f4:	32206e6f 	eorcc	r6, r0, #1776	; 0x6f0
 1f8:	39353737 	ldmdbcc	r5!, {r0, r1, r2, r4, r5, r8, r9, sl, ip, sp}
 1fc:	2d205d39 	stccs	13, cr5, [r0, #-228]!	; 0xffffff1c
 200:	7570636d 	ldrbvc	r6, [r0, #-877]!	; 0xfffffc93
 204:	6d72613d 	ldfvse	f6, [r2, #-244]!	; 0xffffff0c
 208:	36373131 			; <UNDEFINED> instruction: 0x36373131
 20c:	2d667a6a 	vstmdbcs	r6!, {s15-s120}
 210:	6d2d2073 	stcvs	0, cr2, [sp, #-460]!	; 0xfffffe34
 214:	656e7574 	strbvs	r7, [lr, #-1396]!	; 0xfffffa8c
 218:	6d72613d 	ldfvse	f6, [r2, #-244]!	; 0xffffff0c
 21c:	36373131 			; <UNDEFINED> instruction: 0x36373131
 220:	2d667a6a 	vstmdbcs	r6!, {s15-s120}
 224:	6d2d2073 	stcvs	0, cr2, [sp, #-460]!	; 0xfffffe34
 228:	616f6c66 	cmnvs	pc, r6, ror #24
 22c:	62612d74 	rsbvs	r2, r1, #116, 26	; 0x1d00
 230:	6f733d69 	svcvs	0x00733d69
 234:	2d207466 	cfstrscs	mvf7, [r0, #-408]!	; 0xfffffe68
 238:	6d72616d 	ldfvse	f6, [r2, #-436]!	; 0xfffffe4c
 23c:	616d2d20 	cmnvs	sp, r0, lsr #26
 240:	3d686372 	stclcc	3, cr6, [r8, #-456]!	; 0xfffffe38
 244:	766d7261 	strbtvc	r7, [sp], -r1, ror #4
 248:	207a6b36 	rsbscs	r6, sl, r6, lsr fp
 24c:	6467672d 	strbtvs	r6, [r7], #-1837	; 0xfffff8d3
 250:	4f2d2062 	svcmi	0x002d2062
 254:	732d2067 			; <UNDEFINED> instruction: 0x732d2067
 258:	673d6474 			; <UNDEFINED> instruction: 0x673d6474
 25c:	3939756e 	ldmdbcc	r9!, {r1, r2, r3, r5, r6, r8, sl, ip, sp, lr}
 260:	66662d20 	strbtvs	r2, [r6], -r0, lsr #26
 264:	73656572 	cmnvc	r5, #478150656	; 0x1c800000
 268:	646e6174 	strbtvs	r6, [lr], #-372	; 0xfffffe8c
 26c:	00676e69 	rsbeq	r6, r7, r9, ror #28
 270:	64616572 	strbtvs	r6, [r1], #-1394	; 0xfffffa8e
 274:	00676e69 	rsbeq	r6, r7, r9, ror #28
 278:	6f697067 	svcvs	0x00697067
 27c:	746e695f 	strbtvc	r6, [lr], #-2399	; 0xfffff6a1
 280:	7369725f 	cmnvc	r9, #-268435451	; 0xf0000005
 284:	5f676e69 	svcpl	0x00676e69
 288:	65676465 	strbvs	r6, [r7, #-1125]!	; 0xfffffb9b
 28c:	5f6f7400 	svcpl	0x006f7400
 290:	6e617274 	mcrvs	2, 3, r7, cr1, cr4, {3}
 294:	74696d73 	strbtvc	r6, [r9], #-3443	; 0xfffff28d
 298:	69706700 	ldmdbvs	r0!, {r8, r9, sl, sp, lr}^
 29c:	6e695f6f 	cdpvs	15, 6, cr5, cr9, cr15, {3}
 2a0:	61665f74 	smcvs	26100	; 0x65f4
 2a4:	6e696c6c 	cdpvs	12, 6, cr6, cr9, cr12, {3}
 2a8:	64655f67 	strbtvs	r5, [r5], #-3943	; 0xfffff099
 2ac:	72006567 	andvc	r6, r0, #432013312	; 0x19c00000
 2b0:	5f646165 	svcpl	0x00646165
 2b4:	6c696877 	stclvs	8, cr6, [r9], #-476	; 0xfffffe24
 2b8:	71655f65 	cmnvc	r5, r5, ror #30
 2bc:	6f737400 	svcvs	0x00737400
 2c0:	00632e70 	rsbeq	r2, r3, r0, ror lr
 2c4:	6f697067 	svcvs	0x00697067
 2c8:	7465735f 	strbtvc	r7, [r5], #-863	; 0xfffffca1
 2cc:	706e695f 	rsbvc	r6, lr, pc, asr r9
 2d0:	6c007475 	cfstrsvs	mvf7, [r0], {117}	; 0x75
 2d4:	5f747361 	svcpl	0x00747361
 2d8:	006c6176 	rsbeq	r6, ip, r6, ror r1
 2dc:	65746e69 	ldrbvs	r6, [r4, #-3689]!	; 0xfffff197
 2e0:	70757272 	rsbsvc	r7, r5, r2, ror r2
 2e4:	65725f74 	ldrbvs	r5, [r2, #-3956]!	; 0xfffff08c
 2e8:	75006461 	strvc	r6, [r0, #-1121]	; 0xfffffb9f
 2ec:	656c5f62 	strbvs	r5, [ip, #-3938]!	; 0xfffff09e
 2f0:	7067006e 	rsbvc	r0, r7, lr, rrx
 2f4:	655f6f69 	ldrbvs	r6, [pc, #-3945]	; fffff393 <__bss_end__+0xffff3e0b>
 2f8:	746e6576 	strbtvc	r6, [lr], #-1398	; 0xfffffa8a
 2fc:	656c635f 	strbvs	r6, [ip, #-863]!	; 0xfffffca1
 300:	74007261 	strvc	r7, [r0], #-609	; 0xfffffd9f
 304:	736e6172 	cmnvc	lr, #-2147483620	; 0x8000001c
 308:	5f74696d 	svcpl	0x0074696d
 30c:	756c6176 	strbvc	r6, [ip, #-374]!	; 0xfffffe8a
 310:	5f5f0065 	svcpl	0x005f0065
 314:	434e5546 	movtmi	r5, #58694	; 0xe546
 318:	4e4f4954 			; <UNDEFINED> instruction: 0x4e4f4954
 31c:	64005f5f 	strvs	r5, [r0], #-3935	; 0xfffff0a1
 320:	79616c65 	stmdbvc	r1!, {r0, r2, r5, r6, sl, fp, sp, lr}^
 324:	0073755f 	rsbseq	r7, r3, pc, asr r5
 328:	6e697270 	mcrvs	2, 3, r7, cr9, cr0, {3}
 32c:	65725f74 	ldrbvs	r5, [r2, #-3956]!	; 0xfffff08c
 330:	6e696461 	cdpvs	4, 6, cr6, cr9, cr1, {3}
 334:	74007367 	strvc	r7, [r0], #-871	; 0xfffffc99
 338:	6f656d69 	svcvs	0x00656d69
 33c:	47007475 	smlsdxmi	r0, r5, r4, r7
 340:	4e455250 	mcrmi	2, 2, r5, cr5, cr0, {2}
 344:	50470030 	subpl	r0, r7, r0, lsr r0
 348:	314e4552 	cmpcc	lr, r2, asr r5
 34c:	76656400 	strbtvc	r6, [r5], -r0, lsl #8
 350:	7261625f 	rsbvc	r6, r1, #-268435451	; 0xf0000005
 354:	72656972 	rsbvc	r6, r5, #1867776	; 0x1c8000
 358:	49504700 	ldmdbmi	r0, {r8, r9, sl, lr}^
 35c:	4e495f4f 	cdpmi	15, 4, cr5, cr9, cr15, {2}
 360:	47003054 	smlsdmi	r0, r4, r0, r3
 364:	5f4f4950 	svcpl	0x004f4950
 368:	31544e49 	cmpcc	r4, r9, asr #28
 36c:	49504700 	ldmdbmi	r0, {r8, r9, sl, lr}^
 370:	4e495f4f 	cdpmi	15, 4, cr5, cr9, cr15, {2}
 374:	47003254 	smlsdmi	r0, r4, r2, r3
 378:	5f4f4950 	svcpl	0x004f4950
 37c:	33544e49 	cmpcc	r4, #1168	; 0x490
 380:	69706700 	ldmdbvs	r0!, {r8, r9, sl, sp, lr}^
 384:	76655f6f 	strbtvc	r5, [r5], -pc, ror #30
 388:	5f746e65 	svcpl	0x00746e65
 38c:	65746564 	ldrbvs	r6, [r4, #-1380]!	; 0xfffffa9c
 390:	64657463 	strbtvs	r7, [r5], #-1123	; 0xfffffb9d
 394:	5f736900 	svcpl	0x00736900
 398:	6f697067 	svcvs	0x00697067
 39c:	746e695f 	strbtvc	r6, [lr], #-2399	; 0xfffff6a1
 3a0:	544e4900 	strbpl	r4, [lr], #-2304	; 0xfffff700
 3a4:	4e45505f 	mcrmi	0, 2, r5, cr5, cr15, {2}
 3a8:	49003144 	stmdbmi	r0, {r2, r6, r8, ip, sp}
 3ac:	505f544e 	subspl	r5, pc, lr, asr #8
 3b0:	32444e45 	subcc	r4, r4, #1104	; 0x450
 3b4:	54454700 	strbpl	r4, [r5], #-1792	; 0xfffff900
 3b8:	47003233 	smladxmi	r0, r3, r2, r3
 3bc:	4e454650 	mcrmi	6, 2, r4, cr5, cr0, {2}
 3c0:	50470030 	subpl	r0, r7, r0, lsr r0
 3c4:	314e4546 	cmpcc	lr, r6, asr #10
 3c8:	45504700 	ldrbmi	r4, [r0, #-1792]	; 0xfffff900
 3cc:	00305344 	eorseq	r5, r0, r4, asr #6
 3d0:	44455047 	strbmi	r5, [r5], #-71	; 0xffffffb9
 3d4:	2f003153 	svccs	0x00003153
 3d8:	72657355 	rsbvc	r7, r5, #1409286145	; 0x54000001
 3dc:	696d2f73 	stmdbvs	sp!, {r0, r1, r4, r5, r6, r8, r9, sl, fp, sp}^
 3e0:	2f73656c 	svccs	0x0073656c
 3e4:	72756f53 	rsbsvc	r6, r5, #332	; 0x14c
 3e8:	632f6563 			; <UNDEFINED> instruction: 0x632f6563
 3ec:	30343273 	eorscc	r3, r4, r3, ror r2
 3f0:	6c2f786c 	stcvs	8, cr7, [pc], #-432	; 248 <__code_start__-0x7db8>
 3f4:	69706269 	ldmdbvs	r0!, {r0, r3, r5, r6, r9, sp, lr}^
 3f8:	544e4900 	strbpl	r4, [lr], #-2304	; 0xfffff700
 3fc:	424e455f 	submi	r4, lr, #398458880	; 0x17c00000
 400:	2e00325f 	mcrcs	2, 0, r3, cr0, cr15, {2}
 404:	6372732f 	cmnvs	r2, #-1140850688	; 0xbc000000
 408:	6970672f 	ldmdbvs	r0!, {r0, r1, r2, r3, r5, r8, r9, sl, sp, lr}^
 40c:	6e692d6f 	cdpvs	13, 6, cr2, cr9, cr15, {3}
 410:	00632e74 	rsbeq	r2, r3, r4, ror lr
 414:	33545550 	cmpcc	r4, #80, 10	; 0x14000000
 418:	50470032 	subpl	r0, r7, r2, lsr r0
 41c:	304e4548 	subcc	r4, lr, r8, asr #10
 420:	48504700 	ldmdami	r0, {r8, r9, sl, lr}^
 424:	00314e45 	eorseq	r4, r1, r5, asr #28
 428:	62616e65 	rsbvs	r6, r1, #1616	; 0x650
 42c:	675f656c 	ldrbvs	r6, [pc, -ip, ror #10]
 430:	5f6f6970 	svcpl	0x006f6970
 434:	65746e69 	ldrbvs	r6, [r4, #-3689]!	; 0xfffff197
 438:	70757272 	rsbsvc	r7, r5, r2, ror r2
 43c:	67007374 	smlsdxvs	r0, r4, r3, r7
 440:	5f6f6970 	svcpl	0x006f6970
 444:	30726c63 	rsbscc	r6, r2, r3, ror #24
 448:	69706700 	ldmdbvs	r0!, {r8, r9, sl, sp, lr}^
 44c:	65735f6f 	ldrbvs	r5, [r3, #-3951]!	; 0xfffff091
 450:	67003074 	smlsdxvs	r0, r4, r0, r3
 454:	5f6f6970 	svcpl	0x006f6970
 458:	74697277 	strbtvc	r7, [r9], #-631	; 0xfffffd89
 45c:	50470065 	subpl	r0, r7, r5, rrx
 460:	465f4f49 	ldrbmi	r4, [pc], -r9, asr #30
 464:	5f434e55 	svcpl	0x00434e55
 468:	5054554f 	subspl	r5, r4, pc, asr #10
 46c:	44005455 	strmi	r5, [r0], #-1109	; 0xfffffbab
 470:	565f5645 	ldrbpl	r5, [pc], -r5, asr #12
 474:	32334c41 	eorscc	r4, r3, #16640	; 0x4100
 478:	49504700 	ldmdbmi	r0, {r8, r9, sl, lr}^
 47c:	55465f4f 	strbpl	r5, [r6, #-3919]	; 0xfffff0b1
 480:	415f434e 	cmpmi	pc, lr, asr #6
 484:	0030544c 	eorseq	r5, r0, ip, asr #8
 488:	4f495047 	svcmi	0x00495047
 48c:	4e55465f 	mrcmi	6, 2, r4, cr5, cr15, {2}
 490:	4c415f43 	mcrrmi	15, 4, r5, r1, cr3
 494:	47003154 	smlsdmi	r0, r4, r1, r3
 498:	5f4f4950 	svcpl	0x004f4950
 49c:	434e5546 	movtmi	r5, #58694	; 0xe546
 4a0:	544c415f 	strbpl	r4, [ip], #-351	; 0xfffffea1
 4a4:	50470032 	subpl	r0, r7, r2, lsr r0
 4a8:	465f4f49 	ldrbmi	r4, [pc], -r9, asr #30
 4ac:	5f434e55 	svcpl	0x00434e55
 4b0:	33544c41 	cmpcc	r4, #16640	; 0x4100
 4b4:	49504700 	ldmdbmi	r0, {r8, r9, sl, lr}^
 4b8:	55465f4f 	strbpl	r5, [r6, #-3919]	; 0xfffff0b1
 4bc:	415f434e 	cmpmi	pc, lr, asr #6
 4c0:	0035544c 	eorseq	r5, r5, ip, asr #8
 4c4:	72732f2e 	rsbsvc	r2, r3, #184	; 0xb8
 4c8:	70672f63 	rsbvc	r2, r7, r3, ror #30
 4cc:	632e6f69 			; <UNDEFINED> instruction: 0x632e6f69
 4d0:	6e756600 	cdpvs	6, 7, cr6, cr5, cr0, {0}
 4d4:	70670063 	rsbvc	r0, r7, r3, rrx
 4d8:	665f6f69 	ldrbvs	r6, [pc], -r9, ror #30
 4dc:	5f636e75 	svcpl	0x00636e75
 4e0:	70670074 	rsbvc	r0, r7, r4, ror r0
 4e4:	6c5f6f69 	mrrcvs	15, 6, r6, pc, cr9	; <UNPREDICTABLE>
 4e8:	00307665 	eorseq	r7, r0, r5, ror #12
 4ec:	4f495047 	svcmi	0x00495047
 4f0:	4e55465f 	mrcmi	6, 2, r4, cr5, cr15, {2}
 4f4:	4c415f43 	mcrrmi	15, 4, r5, r1, cr3
 4f8:	62003454 	andvs	r3, r0, #84, 8	; 0x54000000
 4fc:	006b6e61 	rsbeq	r6, fp, r1, ror #28
 500:	4f495047 	svcmi	0x00495047
 504:	4e55465f 	mrcmi	6, 2, r4, cr5, cr15, {2}
 508:	4e495f43 	cdpmi	15, 4, cr5, cr9, cr3, {2}
 50c:	00545550 	subseq	r5, r4, r0, asr r5
 510:	6f697067 	svcvs	0x00697067
 514:	7465735f 	strbtvc	r7, [r5], #-863	; 0xfffffca1
 518:	6e75665f 	mrcvs	6, 3, r6, cr5, cr15, {2}
 51c:	6f697463 	svcvs	0x00697463
 520:	7261006e 	rsbvc	r0, r1, #110, 0	; 0x6e
 524:	76007367 	strvc	r7, [r0], -r7, ror #6
 528:	72705f61 	rsbsvc	r5, r0, #388	; 0x184
 52c:	6b746e69 	blvs	1d1bed8 <__bss_end__+0x1d10950>
 530:	675f5f00 	ldrbvs	r5, [pc, -r0, lsl #30]
 534:	5f63756e 	svcpl	0x0063756e
 538:	6c5f6176 	ldfvse	f6, [pc], {118}	; 0x76
 53c:	00747369 	rsbseq	r7, r4, r9, ror #6
 540:	70615f5f 	rsbvc	r5, r1, pc, asr pc
 544:	6c2f2e00 	stcvs	14, cr2, [pc], #-0	; 54c <__code_start__-0x7ab4>
 548:	2f636269 	svccs	0x00636269
 54c:	6e697270 	mcrvs	2, 3, r7, cr9, cr0, {3}
 550:	632e6b74 			; <UNDEFINED> instruction: 0x632e6b74
 554:	765f5f00 	ldrbvc	r5, [pc], -r0, lsl #30
 558:	696c5f61 	stmdbvs	ip!, {r0, r5, r6, r8, r9, sl, fp, ip, lr}^
 55c:	69007473 	stmdbvs	r0, {r0, r1, r4, r5, r6, sl, ip, sp, lr}
 560:	7265746e 	rsbvc	r7, r5, #1845493760	; 0x6e000000
 564:	5f6c616e 	svcpl	0x006c616e
 568:	6b747570 	blvs	1d1db30 <__bss_end__+0x1d125a8>
 56c:	6c2f2e00 	stcvs	14, cr2, [pc], #-0	; 574 <__code_start__-0x7a8c>
 570:	2f636269 	svccs	0x00636269
 574:	6b747570 	blvs	1d1db3c <__bss_end__+0x1d125b4>
 578:	6900632e 	stmdbvs	r0, {r1, r2, r3, r5, r8, r9, sp, lr}
 57c:	67696473 			; <UNDEFINED> instruction: 0x67696473
 580:	75007469 	strvc	r7, [r0, #-1129]	; 0xfffffb97
 584:	36746e69 	ldrbtcc	r6, [r4], -r9, ror #28
 588:	00745f34 	rsbseq	r5, r4, r4, lsr pc
 58c:	696c2f2e 	stmdbvs	ip!, {r1, r2, r3, r5, r8, r9, sl, fp, sp}^
 590:	762f6362 	strtvc	r6, [pc], -r2, ror #6
 594:	72702d61 	rsbsvc	r2, r0, #6208	; 0x1840
 598:	6b746e69 	blvs	1d1bf44 <__bss_end__+0x1d109bc>
 59c:	5f00632e 	svcpl	0x0000632e
 5a0:	646f635f 	strbtvs	r6, [pc], #-863	; 5a8 <__code_start__-0x7a58>
 5a4:	74735f65 	ldrbtvc	r5, [r3], #-3941	; 0xfffff09b
 5a8:	5f747261 	svcpl	0x00747261
 5ac:	5f5f005f 	svcpl	0x005f005f
 5b0:	5f737362 	svcpl	0x00737362
 5b4:	72617473 	rsbvc	r7, r1, #1929379840	; 0x73000000
 5b8:	005f5f74 	subseq	r5, pc, r4, ror pc	; <UNPREDICTABLE>
 5bc:	74646977 	strbtvc	r6, [r4], #-2423	; 0xfffff689
 5c0:	5f5f0068 	svcpl	0x005f0068
 5c4:	61746164 	cmnvs	r4, r4, ror #2
 5c8:	646e655f 	strbtvs	r6, [lr], #-1375	; 0xfffffaa1
 5cc:	70005f5f 	andvc	r5, r0, pc, asr pc
 5d0:	5f637475 	svcpl	0x00637475
 5d4:	5f007066 	svcpl	0x00007066
 5d8:	7373625f 	cmnvc	r3, #-268435451	; 0xf0000005
 5dc:	646e655f 	strbtvs	r6, [lr], #-1375	; 0xfffffaa1
 5e0:	5f005f5f 	svcpl	0x00005f5f
 5e4:	6165685f 	cmnvs	r5, pc, asr r8
 5e8:	74735f70 	ldrbtvc	r5, [r3], #-3952	; 0xfffff090
 5ec:	5f747261 	svcpl	0x00747261
 5f0:	7072005f 	rsbsvc	r0, r2, pc, asr r0
 5f4:	65735f69 	ldrbvs	r5, [r3, #-3945]!	; 0xfffff097
 5f8:	756f5f74 	strbvc	r5, [pc, #-3956]!	; fffff68c <__bss_end__+0xffff4104>
 5fc:	74757074 	ldrbtvc	r7, [r5], #-116	; 0xffffff8c
 600:	746d6600 	strbtvc	r6, [sp], #-1536	; 0xfffffa00
 604:	6174735f 	cmnvs	r4, pc, asr r3
 608:	73007472 	movwvc	r7, #1138	; 0x472
 60c:	61637274 	smcvs	14116	; 0x3724
 610:	74730074 	ldrbtvc	r0, [r3], #-116	; 0xffffff8c
 614:	79706372 	ldmdbvc	r0!, {r1, r4, r5, r6, r8, r9, sp, lr}^
 618:	67656e00 	strbvs	r6, [r5, -r0, lsl #28]!
 61c:	5f00705f 	svcpl	0x0000705f
 620:	646f635f 	strbtvs	r6, [pc], #-863	; 628 <__code_start__-0x79d8>
 624:	6e655f65 	cdpvs	15, 6, cr5, cr5, cr5, {3}
 628:	005f5f64 	subseq	r5, pc, r4, ror #30
 62c:	74696d65 	strbtvc	r6, [r9], #-3429	; 0xfffff29b
 630:	74757000 	ldrbtvc	r7, [r5], #-0
 634:	70665f73 	rsbvc	r5, r6, r3, ror pc
 638:	76657200 	strbtvc	r7, [r5], -r0, lsl #4
 63c:	65737265 	ldrbvs	r7, [r3, #-613]!	; 0xfffffd9b
 640:	72747300 	rsbsvc	r7, r4, #0, 6
 644:	00706d63 	rsbseq	r6, r0, r3, ror #26
 648:	61645f5f 	cmnvs	r4, pc, asr pc
 64c:	735f6174 	cmpvc	pc, #29
 650:	74726174 	ldrbtvc	r6, [r2], #-372	; 0xfffffe8c
 654:	5f005f5f 	svcpl	0x00005f5f
 658:	6f72705f 	svcvs	0x0072705f
 65c:	6e655f67 	cdpvs	15, 6, cr5, cr5, cr7, {3}
 660:	005f5f64 	subseq	r5, pc, r4, ror #30
 664:	316d756e 	cmncc	sp, lr, ror #10
 668:	72747300 	rsbsvc	r7, r4, #0, 6
 66c:	706d636e 	rsbvc	r6, sp, lr, ror #6
 670:	73616200 	cmnvc	r1, #0, 4
 674:	69730065 	ldmdbvs	r3!, {r0, r2, r5, r6}^
 678:	64656e67 	strbtvs	r6, [r5], #-3687	; 0xfffff199
 67c:	7200705f 	andvc	r7, r0, #95, 0	; 0x5f
 680:	725f6970 	subsvc	r6, pc, #112, 18	; 0x1c0000
 684:	6f6f6265 	svcvs	0x006f6265
 688:	2f2e0074 	svccs	0x002e0074
 68c:	66617473 			; <UNDEFINED> instruction: 0x66617473
 690:	72732d66 	rsbsvc	r2, r3, #6528	; 0x1980
 694:	6c632f63 	stclvs	15, cr2, [r3], #-396	; 0xfffffe74
 698:	2d6e6165 	stfcse	f6, [lr, #-404]!	; 0xfffffe6c
 69c:	6f626572 	svcvs	0x00626572
 6a0:	632e746f 			; <UNDEFINED> instruction: 0x632e746f
 6a4:	72617500 	rsbvc	r7, r1, #0, 10
 6a8:	6c665f74 	stclvs	15, cr5, [r6], #-464	; 0xfffffe30
 6ac:	5f687375 	svcpl	0x00687375
 6b0:	5f007874 	svcpl	0x00007874
 6b4:	61747363 	cmnvs	r4, r3, ror #6
 6b8:	62007472 	andvs	r7, r0, #1912602624	; 0x72000000
 6bc:	655f7373 	ldrbvs	r7, [pc, #-883]	; 351 <__code_start__-0x7caf>
 6c0:	7500646e 	strvc	r6, [r0, #-1134]	; 0xfffffb92
 6c4:	5f747261 	svcpl	0x00747261
 6c8:	74696e69 	strbtvc	r6, [r9], #-3689	; 0xfffff197
 6cc:	73756300 	cmnvc	r5, #0, 6
 6d0:	5f6d6f74 	svcpl	0x006d6f74
 6d4:	64616f6c 	strbtvs	r6, [r1], #-3948	; 0xfffff094
 6d8:	2e007265 	cdpcs	2, 0, cr7, cr0, cr5, {3}
 6dc:	6174732f 	cmnvs	r4, pc, lsr #6
 6e0:	732d6666 			; <UNDEFINED> instruction: 0x732d6666
 6e4:	632f6372 			; <UNDEFINED> instruction: 0x632f6372
 6e8:	72617473 	rsbvc	r7, r1, #1929379840	; 0x73000000
 6ec:	00632e74 	rsbeq	r2, r3, r4, ror lr
 6f0:	74732f2e 	ldrbtvc	r2, [r3], #-3886	; 0xfffff0d2
 6f4:	2d666661 	stclcs	6, cr6, [r6, #-388]!	; 0xfffffe7c
 6f8:	2f637273 	svccs	0x00637273
 6fc:	74737563 	ldrbtvc	r7, [r3], #-1379	; 0xfffffa9d
 700:	6c2d6d6f 	stcvs	13, cr6, [sp], #-444	; 0xfffffe44
 704:	6564616f 	strbvs	r6, [r4, #-367]!	; 0xfffffe91
 708:	00632e72 	rsbeq	r2, r3, r2, ror lr
 70c:	74732f2e 	ldrbtvc	r2, [r3], #-3886	; 0xfffff0d2
 710:	2d666661 	stclcs	6, cr6, [r6, #-388]!	; 0xfffffe7c
 714:	2f637273 	svccs	0x00637273
 718:	61666564 	cmnvs	r6, r4, ror #10
 71c:	2d746c75 	ldclcs	12, cr6, [r4, #-468]!	; 0xfffffe2c
 720:	646e6168 	strbtvs	r6, [lr], #-360	; 0xfffffe98
 724:	2d72656c 	cfldr64cs	mvdx6, [r2, #-432]!	; 0xfffffe50
 728:	61746164 	cmnvs	r4, r4, ror #2
 72c:	6f62612d 	svcvs	0x0062612d
 730:	632e7472 			; <UNDEFINED> instruction: 0x632e7472
 734:	74616400 	strbtvc	r6, [r1], #-1024	; 0xfffffc00
 738:	62615f61 	rsbvs	r5, r1, #388	; 0x184
 73c:	5f74726f 	svcpl	0x0074726f
 740:	74636576 	strbtvc	r6, [r3], #-1398	; 0xfffffa8a
 744:	2e00726f 	cdpcs	2, 0, cr7, cr0, cr15, {3}
 748:	6174732f 	cmnvs	r4, pc, lsr #6
 74c:	732d6666 			; <UNDEFINED> instruction: 0x732d6666
 750:	642f6372 	strtvs	r6, [pc], #-882	; 758 <__code_start__-0x78a8>
 754:	75616665 	strbvc	r6, [r1, #-1637]!	; 0xfffff99b
 758:	682d746c 	stmdavs	sp!, {r2, r3, r5, r6, sl, ip, sp, lr}
 75c:	6c646e61 	stclvs	14, cr6, [r4], #-388	; 0xfffffe7c
 760:	662d7265 	strtvs	r7, [sp], -r5, ror #4
 764:	2e747361 	cdpcs	3, 7, cr7, cr4, cr1, {3}
 768:	61660063 	cmnvs	r6, r3, rrx
 76c:	695f7473 	ldmdbvs	pc, {r0, r1, r4, r5, r6, sl, ip, sp, lr}^	; <UNPREDICTABLE>
 770:	7265746e 	rsbvc	r7, r5, #1845493760	; 0x6e000000
 774:	74707572 	ldrbtvc	r7, [r0], #-1394	; 0xfffffa8e
 778:	6365765f 	cmnvs	r5, #99614720	; 0x5f00000
 77c:	00726f74 	rsbseq	r6, r2, r4, ror pc
 780:	66657270 			; <UNDEFINED> instruction: 0x66657270
 784:	68637465 	stmdavs	r3!, {r0, r2, r5, r6, sl, ip, sp, lr}^
 788:	6f62615f 	svcvs	0x0062615f
 78c:	765f7472 			; <UNDEFINED> instruction: 0x765f7472
 790:	6f746365 	svcvs	0x00746365
 794:	2f2e0072 	svccs	0x002e0072
 798:	66617473 			; <UNDEFINED> instruction: 0x66617473
 79c:	72732d66 	rsbsvc	r2, r3, #6528	; 0x1980
 7a0:	65642f63 	strbvs	r2, [r4, #-3939]!	; 0xfffff09d
 7a4:	6c756166 	ldfvse	f6, [r5], #-408	; 0xfffffe68
 7a8:	61682d74 	smcvs	33492	; 0x82d4
 7ac:	656c646e 	strbvs	r6, [ip, #-1134]!	; 0xfffffb92
 7b0:	72702d72 	rsbsvc	r2, r0, #7296	; 0x1c80
 7b4:	74656665 	strbtvc	r6, [r5], #-1637	; 0xfffff99b
 7b8:	632e6863 			; <UNDEFINED> instruction: 0x632e6863
 7bc:	732f2e00 			; <UNDEFINED> instruction: 0x732f2e00
 7c0:	66666174 			; <UNDEFINED> instruction: 0x66666174
 7c4:	6372732d 	cmnvs	r2, #-1275068416	; 0xb4000000
 7c8:	6665642f 	strbtvs	r6, [r5], -pc, lsr #8
 7cc:	746c7561 	strbtvc	r7, [ip], #-1377	; 0xfffffa9f
 7d0:	6e61682d 	cdpvs	8, 6, cr6, cr1, cr13, {1}
 7d4:	72656c64 	rsbvc	r6, r5, #100, 24	; 0x6400
 7d8:	7365722d 	cmnvc	r5, #-805306366	; 0xd0000002
 7dc:	632e7465 			; <UNDEFINED> instruction: 0x632e7465
 7e0:	73657200 	cmnvc	r5, #0, 4
 7e4:	765f7465 	ldrbvc	r7, [pc], -r5, ror #8
 7e8:	6f746365 	svcvs	0x00746365
 7ec:	6e750072 	mrcvs	0, 3, r0, cr5, cr2, {3}
 7f0:	69666564 	stmdbvs	r6!, {r2, r5, r6, r8, sl, sp, lr}^
 7f4:	5f64656e 	svcpl	0x0064656e
 7f8:	74736e69 	ldrbtvc	r6, [r3], #-3689	; 0xfffff197
 7fc:	74637572 	strbtvc	r7, [r3], #-1394	; 0xfffffa8e
 800:	5f6e6f69 	svcpl	0x006e6f69
 804:	74636576 	strbtvc	r6, [r3], #-1398	; 0xfffffa8a
 808:	2e00726f 	cdpcs	2, 0, cr7, cr0, cr15, {3}
 80c:	6174732f 	cmnvs	r4, pc, lsr #6
 810:	732d6666 			; <UNDEFINED> instruction: 0x732d6666
 814:	642f6372 	strtvs	r6, [pc], #-882	; 81c <__code_start__-0x77e4>
 818:	75616665 	strbvc	r6, [r1, #-1637]!	; 0xfffff99b
 81c:	682d746c 	stmdavs	sp!, {r2, r3, r5, r6, sl, ip, sp, lr}
 820:	6c646e61 	stclvs	14, cr6, [r4], #-388	; 0xfffffe7c
 824:	752d7265 	strvc	r7, [sp, #-613]!	; 0xfffffd9b
 828:	6665646e 	strbtvs	r6, [r5], -lr, ror #8
 82c:	64656e69 	strbtvs	r6, [r5], #-3689	; 0xfffff197
 830:	736e692d 	cmnvc	lr, #737280	; 0xb4000
 834:	00632e74 	rsbeq	r2, r3, r4, ror lr
 838:	5f515249 	svcpl	0x00515249
 83c:	69736162 	ldmdbvs	r3!, {r1, r5, r6, r8, sp, lr}^
 840:	65705f63 	ldrbvs	r5, [r0, #-3939]!	; 0xfffff09d
 844:	6e69646e 	cdpvs	4, 6, cr6, cr9, cr14, {3}
 848:	69440067 	stmdbvs	r4, {r0, r1, r2, r5, r6}^
 84c:	6c626173 	stfvse	f6, [r2], #-460	; 0xfffffe34
 850:	61425f65 	cmpvs	r2, r5, ror #30
 854:	5f636973 	svcpl	0x00636973
 858:	73515249 	cmpvc	r1, #-1879048188	; 0x90000004
 85c:	51494600 	cmppl	r9, r0, lsl #12
 860:	6e6f635f 	mcrvs	3, 3, r6, cr15, cr15, {2}
 864:	6c6f7274 	sfmvs	f7, 2, [pc], #-464	; 69c <__code_start__-0x7964>
 868:	6e695f00 	cdpvs	15, 6, cr5, cr9, cr0, {0}
 86c:	72726574 	rsbsvc	r6, r2, #116, 10	; 0x1d000000
 870:	5f747075 	svcpl	0x00747075
 874:	6c626174 	stfvse	f6, [r2], #-464	; 0xfffffe30
 878:	6e450065 	cdpvs	0, 4, cr0, cr5, cr5, {3}
 87c:	656c6261 	strbvs	r6, [ip, #-609]!	; 0xfffffd9f
 880:	7361425f 	cmnvc	r1, #-268435451	; 0xf0000005
 884:	495f6369 	ldmdbmi	pc, {r0, r3, r5, r6, r8, r9, sp, lr}^	; <UNPREDICTABLE>
 888:	00735152 	rsbseq	r5, r3, r2, asr r1
 88c:	62616e45 	rsbvs	r6, r1, #1104	; 0x450
 890:	495f656c 	ldmdbmi	pc, {r2, r3, r5, r6, r8, sl, sp, lr}^	; <UNPREDICTABLE>
 894:	5f735152 	svcpl	0x00735152
 898:	6e450031 	mcrvs	0, 2, r0, cr5, cr1, {1}
 89c:	656c6261 	strbvs	r6, [ip, #-609]!	; 0xfffffd9f
 8a0:	5152495f 	cmppl	r2, pc, asr r9
 8a4:	00325f73 	eorseq	r5, r2, r3, ror pc
 8a8:	5f515249 	svcpl	0x00515249
 8ac:	646e6570 	strbtvs	r6, [lr], #-1392	; 0xfffffa90
 8b0:	5f676e69 	svcpl	0x00676e69
 8b4:	695f0031 	ldmdbvs	pc, {r0, r4, r5}^	; <UNPREDICTABLE>
 8b8:	7265746e 	rsbvc	r7, r5, #1845493760	; 0x6e000000
 8bc:	74707572 	ldrbtvc	r7, [r0], #-1394	; 0xfffffa8e
 8c0:	6261745f 	rsbvs	r7, r1, #1593835520	; 0x5f000000
 8c4:	655f656c 	ldrbvs	r6, [pc, #-1388]	; 360 <__code_start__-0x7ca0>
 8c8:	4900646e 	stmdbmi	r0, {r1, r2, r3, r5, r6, sl, sp, lr}
 8cc:	705f5152 	subsvc	r5, pc, r2, asr r1	; <UNPREDICTABLE>
 8d0:	69646e65 	stmdbvs	r4!, {r0, r2, r5, r6, r9, sl, fp, sp, lr}^
 8d4:	325f676e 	subscc	r6, pc, #28835840	; 0x1b80000
 8d8:	732f2e00 			; <UNDEFINED> instruction: 0x732f2e00
 8dc:	66666174 			; <UNDEFINED> instruction: 0x66666174
 8e0:	6372732d 	cmnvs	r2, #-1275068416	; 0xb4000000
 8e4:	746e692f 	strbtvc	r6, [lr], #-2351	; 0xfffff6d1
 8e8:	75727265 	ldrbvc	r7, [r2, #-613]!	; 0xfffffd9b
 8ec:	2d737470 	cfldrdcs	mvd7, [r3, #-448]!	; 0xfffffe40
 8f0:	00632e63 	rsbeq	r2, r3, r3, ror #28
 8f4:	61736944 	cmnvs	r3, r4, asr #18
 8f8:	5f656c62 	svcpl	0x00656c62
 8fc:	73515249 	cmpvc	r1, #-1879048188	; 0x90000004
 900:	4400315f 	strmi	r3, [r0], #-351	; 0xfffffea1
 904:	62617369 	rsbvs	r7, r1, #-1543503871	; 0xa4000001
 908:	495f656c 	ldmdbmi	pc, {r2, r3, r5, r6, r8, sl, sp, lr}^	; <UNPREDICTABLE>
 90c:	5f735152 	svcpl	0x00735152
 910:	52490032 	subpl	r0, r9, #50, 0	; 0x32
 914:	61425f51 	cmpvs	r2, r1, asr pc
 918:	72006573 	andvc	r6, r0, #482344960	; 0x1cc00000
 91c:	6f6f6265 	svcvs	0x006f6265
 920:	61635f74 	smcvs	13812	; 0x35f4
 924:	756f6c6c 	strbvc	r6, [pc, #-3180]!	; fffffcc0 <__bss_end__+0xffff4738>
 928:	4d500074 	ldclmi	0, cr0, [r0, #-464]	; 0xfffffe30
 92c:	4f44575f 	svcmi	0x0044575f
 930:	65730047 	ldrbvs	r0, [r3, #-71]!	; 0xffffffb9
 934:	73755f74 	cmnvc	r5, #116, 30	; 0x1d0
 938:	6c5f7265 	lfmvs	f7, 2, [pc], {101}	; 0x65
 93c:	6c657665 	stclvs	6, cr7, [r5], #-404	; 0xfffffe6c
 940:	732f2e00 			; <UNDEFINED> instruction: 0x732f2e00
 944:	66666174 			; <UNDEFINED> instruction: 0x66666174
 948:	6372732d 	cmnvs	r2, #-1275068416	; 0xb4000000
 94c:	6265722f 	rsbvs	r7, r5, #-268435454	; 0xf0000002
 950:	2e746f6f 	cdpcs	15, 7, cr6, cr4, cr15, {3}
 954:	4d500063 	ldclmi	0, cr0, [r0, #-396]	; 0xfffffe74
 958:	5341505f 	movtpl	r5, #4191	; 0x105f
 95c:	524f5753 	subpl	r5, pc, #21757952	; 0x14c0000
 960:	74610044 	strbtvc	r0, [r1], #-68	; 0xffffffbc
 964:	6573755f 	ldrbvs	r7, [r3, #-1375]!	; 0xfffffaa1
 968:	656c5f72 	strbvs	r5, [ip, #-3954]!	; 0xfffff08e
 96c:	006c6576 	rsbeq	r6, ip, r6, ror r5
 970:	525f4d50 	subspl	r4, pc, #80, 26	; 0x1400
 974:	5f435453 	svcpl	0x00435453
 978:	46435257 			; <UNDEFINED> instruction: 0x46435257
 97c:	55465f47 	strbpl	r5, [r6, #-3911]	; 0xfffff0b9
 980:	525f4c4c 	subspl	r4, pc, #76, 24	; 0x4c00
 984:	54455345 	strbpl	r5, [r5], #-837	; 0xfffffcbb
 988:	5f4d5000 	svcpl	0x004d5000
 98c:	43545352 	cmpmi	r4, #1207959553	; 0x48000001
 990:	73706300 	cmnvc	r0, #0, 6
 994:	65640072 	strbvs	r0, [r4, #-114]!	; 0xffffff8e
 998:	5f79616c 	svcpl	0x0079616c
 99c:	00636573 	rsbeq	r6, r3, r3, ror r5
 9a0:	74732f2e 	ldrbtvc	r2, [r3], #-3886	; 0xfffff0d2
 9a4:	2d666661 	stclcs	6, cr6, [r6, #-388]!	; 0xfffffe7c
 9a8:	2f637273 	svccs	0x00637273
 9ac:	656d6974 	strbvs	r6, [sp, #-2420]!	; 0xfffff68c
 9b0:	00632e72 	rsbeq	r2, r3, r2, ror lr
 9b4:	656d6974 	strbvs	r6, [sp, #-2420]!	; 0xfffff68c
 9b8:	65675f72 	strbvs	r5, [r7, #-3954]!	; 0xfffff08e
 9bc:	73755f74 	cmnvc	r5, #116, 30	; 0x1d0
 9c0:	725f6365 	subsvc	r6, pc, #-1811939327	; 0x94000001
 9c4:	62007761 	andvs	r7, r0, #25427968	; 0x1840000
 9c8:	5f647561 	svcpl	0x00647561
 9cc:	006c6176 	rsbeq	r6, ip, r6, ror r1
 9d0:	74617473 	strbtvc	r7, [r1], #-1139	; 0xfffffb8d
 9d4:	72617500 	rsbvc	r7, r1, #0, 10
 9d8:	61635f74 	smcvs	13812	; 0x35f4
 9dc:	65675f6e 	strbvs	r5, [r7, #-3950]!	; 0xfffff092
 9e0:	75006374 	strvc	r6, [r0, #-884]	; 0xfffffc8c
 9e4:	2e747261 	cdpcs	2, 7, cr7, cr4, cr1, {3}
 9e8:	61750063 	cmnvs	r5, r3, rrx
 9ec:	635f7472 	cmpvs	pc, #1912602624	; 0x72000000
 9f0:	705f6e61 	subsvc	r6, pc, r1, ror #28
 9f4:	00637475 	rsbeq	r7, r3, r5, ror r4
 9f8:	74726175 	ldrbtvc	r6, [r2], #-373	; 0xfffffe8b
 9fc:	64646100 	strbtvs	r6, [r4], #-256	; 0xffffff00
 a00:	61750072 	cmnvs	r5, r2, ror r0
 a04:	745f7472 	ldrbvc	r7, [pc], #-1138	; a0c <__code_start__-0x75f4>
 a08:	73695f78 	cmnvc	r9, #120, 30	; 0x1e0
 a0c:	706d655f 	rsbvc	r6, sp, pc, asr r5
 a10:	70007974 	andvc	r7, r0, r4, ror r9
 a14:	32337475 	eorscc	r7, r3, #1962934272	; 0x75000000
 a18:	75616200 	strbvc	r6, [r1, #-512]!	; 0xfffffe00
 a1c:	75610064 	strbvc	r0, [r1, #-100]!	; 0xffffff9c
 a20:	6e655f78 	mcrvs	15, 3, r5, cr5, cr8, {3}
 a24:	656c6261 	strbvs	r6, [ip, #-609]!	; 0xfffffd9f
 a28:	61750073 	cmnvs	r5, r3, ror r0
 a2c:	675f7472 			; <UNDEFINED> instruction: 0x675f7472
 a30:	00637465 	rsbeq	r7, r3, r5, ror #8
 a34:	20554e47 	subscs	r4, r5, r7, asr #28
 a38:	20393943 	eorscs	r3, r9, r3, asr #18
 a3c:	332e3031 			; <UNDEFINED> instruction: 0x332e3031
 a40:	3220312e 	eorcc	r3, r0, #-2147483637	; 0x8000000b
 a44:	30313230 	eorscc	r3, r1, r0, lsr r2
 a48:	20343238 	eorscs	r3, r4, r8, lsr r2
 a4c:	6c657228 	sfmvs	f7, 2, [r5], #-160	; 0xffffff60
 a50:	65736165 	ldrbvs	r6, [r3, #-357]!	; 0xfffffe9b
 a54:	6d2d2029 	stcvs	0, cr2, [sp, #-164]!	; 0xffffff5c
 a58:	3d757063 	ldclcc	0, cr7, [r5, #-396]!	; 0xfffffe74
 a5c:	316d7261 	cmncc	sp, r1, ror #4
 a60:	6a363731 	bvs	d8e72c <__bss_end__+0xd831a4>
 a64:	732d667a 			; <UNDEFINED> instruction: 0x732d667a
 a68:	746d2d20 	strbtvc	r2, [sp], #-3360	; 0xfffff2e0
 a6c:	3d656e75 	stclcc	14, cr6, [r5, #-468]!	; 0xfffffe2c
 a70:	316d7261 	cmncc	sp, r1, ror #4
 a74:	6a363731 	bvs	d8e740 <__bss_end__+0xd831b8>
 a78:	732d667a 			; <UNDEFINED> instruction: 0x732d667a
 a7c:	666d2d20 	strbtvs	r2, [sp], -r0, lsr #26
 a80:	74616f6c 	strbtvc	r6, [r1], #-3948	; 0xfffff094
 a84:	6962612d 	stmdbvs	r2!, {r0, r2, r3, r5, r8, sp, lr}^
 a88:	666f733d 			; <UNDEFINED> instruction: 0x666f733d
 a8c:	6d2d2074 	stcvs	0, cr2, [sp, #-464]!	; 0xfffffe30
 a90:	206d7261 	rsbcs	r7, sp, r1, ror #4
 a94:	72616d2d 	rsbvc	r6, r1, #2880	; 0xb40
 a98:	613d6863 	teqvs	sp, r3, ror #16
 a9c:	36766d72 			; <UNDEFINED> instruction: 0x36766d72
 aa0:	2d207a6b 	vstmdbcs	r0!, {s14-s120}
 aa4:	62646767 	rsbvs	r6, r4, #27000832	; 0x19c0000
 aa8:	674f2d20 	strbvs	r2, [pc, -r0, lsr #26]
 aac:	74732d20 	ldrbtvc	r2, [r3], #-3360	; 0xfffff2e0
 ab0:	6e673d64 	cdpvs	13, 6, cr3, cr7, cr4, {3}
 ab4:	20393975 	eorscs	r3, r9, r5, ror r9
 ab8:	7266662d 	rsbvc	r6, r6, #47185920	; 0x2d00000
 abc:	74736565 	ldrbtvc	r6, [r3], #-1381	; 0xfffffa9b
 ac0:	69646e61 	stmdbvs	r4!, {r0, r5, r6, r9, sl, fp, sp, lr}^
 ac4:	6300676e 	movwvs	r6, #1902	; 0x76e
 ac8:	006c746e 	rsbeq	r7, ip, lr, ror #8
 acc:	74726175 	ldrbtvc	r6, [r2], #-373	; 0xfffffe8b
 ad0:	7369645f 	cmnvc	r9, #1593835520	; 0x5f000000
 ad4:	656c6261 	strbvs	r6, [ip, #-609]!	; 0xfffffd9f
 ad8:	72617500 	rsbvc	r7, r1, #0, 10
 adc:	61685f74 	smcvs	34292	; 0x85f4
 ae0:	61645f73 	smcvs	17907	; 0x45f3
 ae4:	6f006174 	svcvs	0x00006174
 ae8:	6e695f72 	mcrvs	15, 3, r5, cr9, cr2, {3}
 aec:	73003233 	movwvc	r3, #563	; 0x233
 af0:	74617263 	strbtvc	r7, [r1], #-611	; 0xfffffd9d
 af4:	61006863 	tstvs	r0, r3, ror #16
 af8:	705f7875 	subsvc	r7, pc, r5, ror r8	; <UNPREDICTABLE>
 afc:	70697265 	rsbvc	r7, r9, r5, ror #4
 b00:	2f007368 	svccs	0x00007368
 b04:	656d6f68 	strbvs	r6, [sp, #-3944]!	; 0xfffff098
 b08:	676e652f 	strbvs	r6, [lr, -pc, lsr #10]!
 b0c:	2f72656c 	svccs	0x0072656c
 b10:	73616c63 	cmnvc	r1, #25344	; 0x6300
 b14:	73632f73 	cmnvc	r3, #460	; 0x1cc
 b18:	65303431 	ldrvs	r3, [r0, #-1073]!	; 0xfffffbcf
 b1c:	7732322d 	ldrvc	r3, [r2, -sp, lsr #4]!
 b20:	6c2f6e69 	stcvs	14, cr6, [pc], #-420	; 984 <__code_start__-0x767c>
 b24:	69706269 	ldmdbvs	r0!, {r0, r3, r5, r6, r9, sp, lr}^
 b28:	6174732f 	cmnvs	r4, pc, lsr #6
 b2c:	702d6666 	eorvc	r6, sp, r6, ror #12
 b30:	61766972 	cmnvs	r6, r2, ror r9
 b34:	61006574 	tstvs	r0, r4, ror r5
 b38:	695f646e 	ldmdbvs	pc, {r1, r2, r3, r5, r6, sl, sp, lr}^	; <UNPREDICTABLE>
 b3c:	0032336e 	eorseq	r3, r2, lr, ror #6
 b40:	74726175 	ldrbtvc	r6, [r2], #-373	; 0xfffffe8b
 b44:	7475705f 	ldrbtvc	r7, [r5], #-95	; 0xffffffa1
 b48:	65670063 	strbvs	r0, [r7, #-99]!	; 0xffffff9d
 b4c:	00323374 	eorseq	r3, r2, r4, ror r3
 b50:	6f697067 	svcvs	0x00697067
 b54:	6475705f 	ldrbtvs	r7, [r5], #-95	; 0xffffffa1
 b58:	66666f5f 	uqsaxvs	r6, r6, pc	; <UNPREDICTABLE>
 b5c:	69706700 	ldmdbvs	r0!, {r8, r9, sl, sp, lr}^
 b60:	6c635f6f 	stclvs	15, cr5, [r3], #-444	; 0xfffffe44
 b64:	6700306b 	strvs	r3, [r0, -fp, rrx]
 b68:	5f6f6970 	svcpl	0x006f6970
 b6c:	5f746573 	svcpl	0x00746573
 b70:	6c6c7570 	cfstr64vs	mvdx7, [ip], #-448	; 0xfffffe40
 b74:	6e776f64 	cdpvs	15, 7, cr6, cr7, cr4, {3}
 b78:	69706700 	ldmdbvs	r0!, {r8, r9, sl, sp, lr}^
 b7c:	75702d6f 	ldrbvc	r2, [r0, #-3439]!	; 0xfffff291
 b80:	00632e64 	rsbeq	r2, r3, r4, ror #28
 b84:	6f697067 	svcvs	0x00697067
 b88:	7465675f 	strbtvc	r6, [r5], #-1887	; 0xfffff8a1
 b8c:	6475705f 	ldrbtvs	r7, [r5], #-95	; 0xffffffa1
 b90:	69706700 	ldmdbvs	r0!, {r8, r9, sl, sp, lr}^
 b94:	65735f6f 	ldrbvs	r5, [r3, #-3951]!	; 0xfffff091
 b98:	75705f74 	ldrbvc	r5, [r0, #-3956]!	; 0xfffff08c
 b9c:	70670064 	rsbvc	r0, r7, r4, rrx
 ba0:	705f6f69 	subsvc	r6, pc, r9, ror #30
 ba4:	72006475 	andvc	r6, r0, #1962934272	; 0x75000000
 ba8:	725f6970 	subsvc	r6, pc, #112, 18	; 0x1c0000
 bac:	74657365 	strbtvc	r7, [r5], #-869	; 0xfffffc9b
 bb0:	7475705f 	ldrbtvc	r7, [r5], #-95	; 0xffffffa1
 bb4:	6e690063 	cdpvs	0, 6, cr0, cr9, cr3, {3}
 bb8:	6e726574 	mrcvs	5, 3, r6, cr2, cr4, {3}
 bbc:	705f6c61 	subsvc	r6, pc, r1, ror #24
 bc0:	68637475 	stmdavs	r3!, {r0, r2, r4, r5, r6, sl, ip, sp, lr}^
 bc4:	72007261 	andvc	r7, r0, #268435462	; 0x10000006
 bc8:	735f6970 	cmpvc	pc, #112, 18	; 0x1c0000
 bcc:	705f7465 	subsvc	r7, pc, r5, ror #8
 bd0:	00637475 	rsbeq	r7, r3, r5, ror r4
 bd4:	696c2f2e 	stmdbvs	ip!, {r1, r2, r3, r5, r8, r9, sl, fp, sp}^
 bd8:	702f6362 	eorvc	r6, pc, r2, ror #6
 bdc:	68637475 	stmdavs	r3!, {r0, r2, r4, r5, r6, sl, ip, sp, lr}^
 be0:	632e7261 			; <UNDEFINED> instruction: 0x632e7261
 be4:	73656400 	cmnvc	r5, #0, 8
 be8:	2f2e0074 	svccs	0x002e0074
 bec:	6362696c 	cmnvs	r2, #108, 18	; 0x1b0000
 bf0:	7274732f 	rsbsvc	r7, r4, #-1140850688	; 0xbc000000
 bf4:	2e746163 	rpwcssz	f6, f4, f3
 bf8:	2f2e0063 	svccs	0x002e0063
 bfc:	6362696c 	cmnvs	r2, #108, 18	; 0x1b0000
 c00:	7274732f 	rsbsvc	r7, r4, #-1140850688	; 0xbc000000
 c04:	2e706d63 	cdpcs	13, 7, cr6, cr0, cr3, {3}
 c08:	2f2e0063 	svccs	0x002e0063
 c0c:	6362696c 	cmnvs	r2, #108, 18	; 0x1b0000
 c10:	7274732f 	rsbsvc	r7, r4, #-1140850688	; 0xbc000000
 c14:	2e797063 	cdpcs	0, 7, cr7, cr9, cr3, {3}
 c18:	69730063 	ldmdbvs	r3!, {r0, r1, r5, r6}^
 c1c:	745f657a 	ldrbvc	r6, [pc], #-1402	; c24 <__code_start__-0x73dc>
 c20:	6c2f2e00 	stcvs	14, cr2, [pc], #-0	; c28 <__code_start__-0x73d8>
 c24:	2f636269 	svccs	0x00636269
 c28:	6e727473 	mrcvs	4, 3, r7, cr2, cr3, {3}
 c2c:	2e706d63 	cdpcs	13, 7, cr6, cr0, cr3, {3}
 c30:	2f2e0063 	svccs	0x002e0063
 c34:	66617473 			; <UNDEFINED> instruction: 0x66617473
 c38:	72732d66 	rsbsvc	r2, r3, #6528	; 0x1980
 c3c:	65642f63 	strbvs	r2, [r4, #-3939]!	; 0xfffff09d
 c40:	6c756166 	ldfvse	f6, [r5], #-408	; 0xfffffe68
 c44:	65722d74 	ldrbvs	r2, [r2, #-3444]!	; 0xfffff28c
 c48:	746f6f62 	strbtvc	r6, [pc], #-3938	; c50 <__code_start__-0x73b0>
 c4c:	6c61632d 	stclvs	3, cr6, [r1], #-180	; 0xffffff4c
 c50:	74756f6c 	ldrbtvc	r6, [r5], #-3948	; 0xfffff094
 c54:	Address 0x0000000000000c54 is out of bounds.


Disassembly of section .debug_frame:

00000000 <.debug_frame>:
   0:	0000000c 	andeq	r0, r0, ip
   4:	ffffffff 			; <UNDEFINED> instruction: 0xffffffff
   8:	7c020001 	stcvc	0, cr0, [r2], {1}
   c:	000d0c0e 	andeq	r0, sp, lr, lsl #24
  10:	0000000c 	andeq	r0, r0, ip
  14:	00000000 	andeq	r0, r0, r0
  18:	00008038 	andeq	r8, r0, r8, lsr r0
  1c:	0000000c 	andeq	r0, r0, ip
  20:	00000014 	andeq	r0, r0, r4, lsl r0
  24:	00000000 	andeq	r0, r0, r0
  28:	00008044 	andeq	r8, r0, r4, asr #32
  2c:	00000040 	andeq	r0, r0, r0, asr #32
  30:	84080e42 	strhi	r0, [r8], #-3650	; 0xfffff1be
  34:	00018e02 	andeq	r8, r1, r2, lsl #28
  38:	00000020 	andeq	r0, r0, r0, lsr #32
  3c:	00000000 	andeq	r0, r0, r0
  40:	00008084 	andeq	r8, r0, r4, lsl #1
  44:	00000074 	andeq	r0, r0, r4, ror r0
  48:	84100e42 	ldrhi	r0, [r0], #-3650	; 0xfffff1be
  4c:	86038504 	strhi	r8, [r3], -r4, lsl #10
  50:	42018e02 	andmi	r8, r1, #2, 28
  54:	0a5c180e 	beq	1706094 <__bss_end__+0x16fab0c>
  58:	0b42100e 	bleq	1084098 <__bss_end__+0x1078b10>
  5c:	0000001c 	andeq	r0, r0, ip, lsl r0
  60:	00000000 	andeq	r0, r0, r0
  64:	000080f8 	strdeq	r8, [r0], -r8	; <UNPREDICTABLE>
  68:	00000044 	andeq	r0, r0, r4, asr #32
  6c:	84180e42 	ldrhi	r0, [r8], #-3650	; 0xfffff1be
  70:	86058506 	strhi	r8, [r5], -r6, lsl #10
  74:	88038704 	stmdahi	r3, {r2, r8, r9, sl, pc}
  78:	00018e02 	andeq	r8, r1, r2, lsl #28
  7c:	00000020 	andeq	r0, r0, r0, lsr #32
  80:	00000000 	andeq	r0, r0, r0
  84:	0000813c 	andeq	r8, r0, ip, lsr r1
  88:	00000064 	andeq	r0, r0, r4, rrx
  8c:	84200e42 	strthi	r0, [r0], #-3650	; 0xfffff1be
  90:	86078508 	strhi	r8, [r7], -r8, lsl #10
  94:	88058706 	stmdahi	r5, {r1, r2, r8, r9, sl, pc}
  98:	8a038904 	bhi	e24b0 <__bss_end__+0xd6f28>
  9c:	00018e02 	andeq	r8, r1, r2, lsl #28
  a0:	00000018 	andeq	r0, r0, r8, lsl r0
  a4:	00000000 	andeq	r0, r0, r0
  a8:	000081a0 	andeq	r8, r0, r0, lsr #3
  ac:	00000048 	andeq	r0, r0, r8, asr #32
  b0:	84100e42 	ldrhi	r0, [r0], #-3650	; 0xfffff1be
  b4:	86038504 	strhi	r8, [r3], -r4, lsl #10
  b8:	00018e02 	andeq	r8, r1, r2, lsl #28
  bc:	00000018 	andeq	r0, r0, r8, lsl r0
  c0:	00000000 	andeq	r0, r0, r0
  c4:	000081e8 	andeq	r8, r0, r8, ror #3
  c8:	00000068 	andeq	r0, r0, r8, rrx
  cc:	84100e42 	ldrhi	r0, [r0], #-3650	; 0xfffff1be
  d0:	86038504 	strhi	r8, [r3], -r4, lsl #10
  d4:	00018e02 	andeq	r8, r1, r2, lsl #28
  d8:	0000000c 	andeq	r0, r0, ip
  dc:	00000000 	andeq	r0, r0, r0
  e0:	00008250 	andeq	r8, r0, r0, asr r2
  e4:	00000120 	andeq	r0, r0, r0, lsr #2
  e8:	0000000c 	andeq	r0, r0, ip
  ec:	00000000 	andeq	r0, r0, r0
  f0:	00008370 	andeq	r8, r0, r0, ror r3
  f4:	00000070 	andeq	r0, r0, r0, ror r0
  f8:	00000020 	andeq	r0, r0, r0, lsr #32
  fc:	00000000 	andeq	r0, r0, r0
 100:	000083e0 	andeq	r8, r0, r0, ror #7
 104:	000000d8 	ldrdeq	r0, [r0], -r8
 108:	84100e42 	ldrhi	r0, [r0], #-3650	; 0xfffff1be
 10c:	86038504 	strhi	r8, [r3], -r4, lsl #10
 110:	42018e02 	andmi	r8, r1, #2, 28
 114:	5602180e 	strpl	r1, [r2], -lr, lsl #16
 118:	0000100e 	andeq	r1, r0, lr
 11c:	0000001c 	andeq	r0, r0, ip, lsl r0
 120:	00000000 	andeq	r0, r0, r0
 124:	000084b8 			; <UNDEFINED> instruction: 0x000084b8
 128:	00000054 	andeq	r0, r0, r4, asr r0
 12c:	84180e42 	ldrhi	r0, [r8], #-3650	; 0xfffff1be
 130:	86058506 	strhi	r8, [r5], -r6, lsl #10
 134:	88038704 	stmdahi	r3, {r2, r8, r9, sl, pc}
 138:	00018e02 	andeq	r8, r1, r2, lsl #28
 13c:	00000024 	andeq	r0, r0, r4, lsr #32
 140:	00000000 	andeq	r0, r0, r0
 144:	0000850c 	andeq	r8, r0, ip, lsl #10
 148:	0000012c 	andeq	r0, r0, ip, lsr #2
 14c:	841c0e42 	ldrhi	r0, [ip], #-3650	; 0xfffff1be
 150:	86068507 	strhi	r8, [r6], -r7, lsl #10
 154:	88048705 	stmdahi	r4, {r0, r2, r8, r9, sl, pc}
 158:	8e028903 	vmlahi.f16	s16, s4, s6	; <UNPREDICTABLE>
 15c:	280e4201 	stmdacs	lr, {r0, r9, lr}
 160:	1c0e8002 	stcne	0, cr8, [lr], {2}
 164:	00000014 	andeq	r0, r0, r4, lsl r0
 168:	00000000 	andeq	r0, r0, r0
 16c:	00008638 	andeq	r8, r0, r8, lsr r6
 170:	0000001c 	andeq	r0, r0, ip, lsl r0
 174:	84080e42 	strhi	r0, [r8], #-3650	; 0xfffff1be
 178:	00018e02 	andeq	r8, r1, r2, lsl #28
 17c:	00000018 	andeq	r0, r0, r8, lsl r0
 180:	00000000 	andeq	r0, r0, r0
 184:	00008654 	andeq	r8, r0, r4, asr r6
 188:	00000084 	andeq	r0, r0, r4, lsl #1
 18c:	84100e42 	ldrhi	r0, [r0], #-3650	; 0xfffff1be
 190:	86038504 	strhi	r8, [r3], -r4, lsl #10
 194:	00018e02 	andeq	r8, r1, r2, lsl #28
 198:	00000018 	andeq	r0, r0, r8, lsl r0
 19c:	00000000 	andeq	r0, r0, r0
 1a0:	000086d8 	ldrdeq	r8, [r0], -r8	; <UNPREDICTABLE>
 1a4:	00000090 	muleq	r0, r0, r0
 1a8:	84100e42 	ldrhi	r0, [r0], #-3650	; 0xfffff1be
 1ac:	86038504 	strhi	r8, [r3], -r4, lsl #10
 1b0:	00018e02 	andeq	r8, r1, r2, lsl #28
 1b4:	00000014 	andeq	r0, r0, r4, lsl r0
 1b8:	00000000 	andeq	r0, r0, r0
 1bc:	00008768 	andeq	r8, r0, r8, ror #14
 1c0:	000000d4 	ldrdeq	r0, [r0], -r4
 1c4:	84080e42 	strhi	r0, [r8], #-3650	; 0xfffff1be
 1c8:	00018e02 	andeq	r8, r1, r2, lsl #28
 1cc:	00000014 	andeq	r0, r0, r4, lsl r0
 1d0:	00000000 	andeq	r0, r0, r0
 1d4:	0000883c 	andeq	r8, r0, ip, lsr r8
 1d8:	0000004c 	andeq	r0, r0, ip, asr #32
 1dc:	84080e42 	strhi	r0, [r8], #-3650	; 0xfffff1be
 1e0:	00018e02 	andeq	r8, r1, r2, lsl #28
 1e4:	00000014 	andeq	r0, r0, r4, lsl r0
 1e8:	00000000 	andeq	r0, r0, r0
 1ec:	00008888 	andeq	r8, r0, r8, lsl #17
 1f0:	00000008 	andeq	r0, r0, r8
 1f4:	84080e42 	strhi	r0, [r8], #-3650	; 0xfffff1be
 1f8:	00018e02 	andeq	r8, r1, r2, lsl #28
 1fc:	0000000c 	andeq	r0, r0, ip
 200:	ffffffff 			; <UNDEFINED> instruction: 0xffffffff
 204:	7c020001 	stcvc	0, cr0, [r2], {1}
 208:	000d0c0e 	andeq	r0, sp, lr, lsl #24
 20c:	00000014 	andeq	r0, r0, r4, lsl r0
 210:	000001fc 	strdeq	r0, [r0], -ip
 214:	00008890 	muleq	r0, r0, r8
 218:	0000001c 	andeq	r0, r0, ip, lsl r0
 21c:	84080e42 	strhi	r0, [r8], #-3650	; 0xfffff1be
 220:	00018e02 	andeq	r8, r1, r2, lsl #28
 224:	0000001c 	andeq	r0, r0, ip, lsl r0
 228:	000001fc 	strdeq	r0, [r0], -ip
 22c:	000088ac 	andeq	r8, r0, ip, lsr #17
 230:	00000074 	andeq	r0, r0, r4, ror r0
 234:	84080e42 	strhi	r0, [r8], #-3650	; 0xfffff1be
 238:	42018e02 	andmi	r8, r1, #2, 28
 23c:	0a5a100e 	beq	168427c <__bss_end__+0x1678cf4>
 240:	0b42080e 	bleq	1082280 <__bss_end__+0x1076cf8>
 244:	00000018 	andeq	r0, r0, r8, lsl r0
 248:	000001fc 	strdeq	r0, [r0], -ip
 24c:	00008920 	andeq	r8, r0, r0, lsr #18
 250:	00000050 	andeq	r0, r0, r0, asr r0
 254:	84100e42 	ldrhi	r0, [r0], #-3650	; 0xfffff1be
 258:	86038504 	strhi	r8, [r3], -r4, lsl #10
 25c:	00018e02 	andeq	r8, r1, r2, lsl #28
 260:	00000018 	andeq	r0, r0, r8, lsl r0
 264:	000001fc 	strdeq	r0, [r0], -ip
 268:	00008970 	andeq	r8, r0, r0, ror r9
 26c:	00000050 	andeq	r0, r0, r0, asr r0
 270:	84100e42 	ldrhi	r0, [r0], #-3650	; 0xfffff1be
 274:	86038504 	strhi	r8, [r3], -r4, lsl #10
 278:	00018e02 	andeq	r8, r1, r2, lsl #28
 27c:	00000014 	andeq	r0, r0, r4, lsl r0
 280:	000001fc 	strdeq	r0, [r0], -ip
 284:	000089c0 	andeq	r8, r0, r0, asr #19
 288:	0000004c 	andeq	r0, r0, ip, asr #32
 28c:	84080e42 	strhi	r0, [r8], #-3650	; 0xfffff1be
 290:	00018e02 	andeq	r8, r1, r2, lsl #28
 294:	00000014 	andeq	r0, r0, r4, lsl r0
 298:	000001fc 	strdeq	r0, [r0], -ip
 29c:	00008a0c 	andeq	r8, r0, ip, lsl #20
 2a0:	00000040 	andeq	r0, r0, r0, asr #32
 2a4:	84080e42 	strhi	r0, [r8], #-3650	; 0xfffff1be
 2a8:	00018e02 	andeq	r8, r1, r2, lsl #28
 2ac:	0000000c 	andeq	r0, r0, ip
 2b0:	ffffffff 			; <UNDEFINED> instruction: 0xffffffff
 2b4:	7c020001 	stcvc	0, cr0, [r2], {1}
 2b8:	000d0c0e 	andeq	r0, sp, lr, lsl #24
 2bc:	00000018 	andeq	r0, r0, r8, lsl r0
 2c0:	000002ac 	andeq	r0, r0, ip, lsr #5
 2c4:	00008a4c 	andeq	r8, r0, ip, asr #20
 2c8:	00000064 	andeq	r0, r0, r4, rrx
 2cc:	84100e46 	ldrhi	r0, [r0], #-3654	; 0xfffff1ba
 2d0:	86038504 	strhi	r8, [r3], -r4, lsl #10
 2d4:	00018e02 	andeq	r8, r1, r2, lsl #28
 2d8:	00000014 	andeq	r0, r0, r4, lsl r0
 2dc:	000002ac 	andeq	r0, r0, ip, lsr #5
 2e0:	00008ab0 			; <UNDEFINED> instruction: 0x00008ab0
 2e4:	00000010 	andeq	r0, r0, r0, lsl r0
 2e8:	84080e42 	strhi	r0, [r8], #-3650	; 0xfffff1be
 2ec:	00018e02 	andeq	r8, r1, r2, lsl #28
 2f0:	00000014 	andeq	r0, r0, r4, lsl r0
 2f4:	000002ac 	andeq	r0, r0, ip, lsr #5
 2f8:	00008ac0 	andeq	r8, r0, r0, asr #21
 2fc:	00000024 	andeq	r0, r0, r4, lsr #32
 300:	84080e46 	strhi	r0, [r8], #-3654	; 0xfffff1ba
 304:	00018e02 	andeq	r8, r1, r2, lsl #28
 308:	00000014 	andeq	r0, r0, r4, lsl r0
 30c:	000002ac 	andeq	r0, r0, ip, lsr #5
 310:	00008ae4 	andeq	r8, r0, r4, ror #21
 314:	00000024 	andeq	r0, r0, r4, lsr #32
 318:	84080e46 	strhi	r0, [r8], #-3654	; 0xfffff1ba
 31c:	00018e02 	andeq	r8, r1, r2, lsl #28
 320:	00000014 	andeq	r0, r0, r4, lsl r0
 324:	000002ac 	andeq	r0, r0, ip, lsr #5
 328:	00008b08 	andeq	r8, r0, r8, lsl #22
 32c:	00000010 	andeq	r0, r0, r0, lsl r0
 330:	84080e42 	strhi	r0, [r8], #-3650	; 0xfffff1be
 334:	00018e02 	andeq	r8, r1, r2, lsl #28
 338:	00000014 	andeq	r0, r0, r4, lsl r0
 33c:	000002ac 	andeq	r0, r0, ip, lsr #5
 340:	00008b18 	andeq	r8, r0, r8, lsl fp
 344:	0000001c 	andeq	r0, r0, ip, lsl r0
 348:	84080e42 	strhi	r0, [r8], #-3650	; 0xfffff1be
 34c:	00018e02 	andeq	r8, r1, r2, lsl #28
 350:	00000018 	andeq	r0, r0, r8, lsl r0
 354:	000002ac 	andeq	r0, r0, ip, lsr #5
 358:	00008b34 	andeq	r8, r0, r4, lsr fp
 35c:	00000034 	andeq	r0, r0, r4, lsr r0
 360:	84080e46 	strhi	r0, [r8], #-3654	; 0xfffff1ba
 364:	4e018e02 	cdpmi	14, 0, cr8, cr1, cr2, {0}
 368:	cec4000e 	cdpgt	0, 12, cr0, cr4, cr14, {0}
 36c:	0000000c 	andeq	r0, r0, ip
 370:	ffffffff 			; <UNDEFINED> instruction: 0xffffffff
 374:	7c020001 	stcvc	0, cr0, [r2], {1}
 378:	000d0c0e 	andeq	r0, sp, lr, lsl #24
 37c:	00000034 	andeq	r0, r0, r4, lsr r0
 380:	0000036c 	andeq	r0, r0, ip, ror #6
 384:	00008c88 	andeq	r8, r0, r8, lsl #25
 388:	00000058 	andeq	r0, r0, r8, asr r0
 38c:	80100e42 	andshi	r0, r0, r2, asr #28
 390:	82038104 	andhi	r8, r3, #1
 394:	42018302 	andmi	r8, r1, #134217728	; 0x8000000
 398:	07841c0e 	streq	r1, [r4, lr, lsl #24]
 39c:	058e0685 	streq	r0, [lr, #1669]	; 0x685
 3a0:	5c280e42 	stcpl	14, cr0, [r8], #-264	; 0xfffffef8
 3a4:	ce421c0e 	cdpgt	12, 4, cr1, cr2, cr14, {0}
 3a8:	100ec4c5 	andne	ip, lr, r5, asr #9
 3ac:	c1c2c342 	bicgt	ip, r2, r2, asr #6
 3b0:	00000ec0 	andeq	r0, r0, r0, asr #29
 3b4:	0000000c 	andeq	r0, r0, ip
 3b8:	ffffffff 			; <UNDEFINED> instruction: 0xffffffff
 3bc:	7c020001 	stcvc	0, cr0, [r2], {1}
 3c0:	000d0c0e 	andeq	r0, sp, lr, lsl #24
 3c4:	00000014 	andeq	r0, r0, r4, lsl r0
 3c8:	000003b4 			; <UNDEFINED> instruction: 0x000003b4
 3cc:	00008ce0 	andeq	r8, r0, r0, ror #25
 3d0:	00000034 	andeq	r0, r0, r4, lsr r0
 3d4:	84080e42 	strhi	r0, [r8], #-3650	; 0xfffff1be
 3d8:	00018e02 	andeq	r8, r1, r2, lsl #28
 3dc:	0000000c 	andeq	r0, r0, ip
 3e0:	ffffffff 			; <UNDEFINED> instruction: 0xffffffff
 3e4:	7c020001 	stcvc	0, cr0, [r2], {1}
 3e8:	000d0c0e 	andeq	r0, sp, lr, lsl #24
 3ec:	0000000c 	andeq	r0, r0, ip
 3f0:	000003dc 	ldrdeq	r0, [r0], -ip
 3f4:	00008d14 	andeq	r8, r0, r4, lsl sp
 3f8:	00000014 	andeq	r0, r0, r4, lsl r0
 3fc:	0000000c 	andeq	r0, r0, ip
 400:	000003dc 	ldrdeq	r0, [r0], -ip
 404:	00008d28 	andeq	r8, r0, r8, lsr #26
 408:	00000024 	andeq	r0, r0, r4, lsr #32
 40c:	0000000c 	andeq	r0, r0, ip
 410:	000003dc 	ldrdeq	r0, [r0], -ip
 414:	00008d4c 	andeq	r8, r0, ip, asr #26
 418:	00000038 	andeq	r0, r0, r8, lsr r0
 41c:	00000024 	andeq	r0, r0, r4, lsr #32
 420:	000003dc 	ldrdeq	r0, [r0], -ip
 424:	00008d84 	andeq	r8, r0, r4, lsl #27
 428:	000001b4 			; <UNDEFINED> instruction: 0x000001b4
 42c:	84140e42 	ldrhi	r0, [r4], #-3650	; 0xfffff1be
 430:	86048505 	strhi	r8, [r4], -r5, lsl #10
 434:	8e028703 	cdphi	7, 0, cr8, cr2, cr3, {0}
 438:	600e4201 	andvs	r4, lr, r1, lsl #4
 43c:	0e0a9a02 	vmlaeq.f32	s18, s20, s4
 440:	000b4214 	andeq	r4, fp, r4, lsl r2
 444:	00000014 	andeq	r0, r0, r4, lsl r0
 448:	000003dc 	ldrdeq	r0, [r0], -ip
 44c:	00008f38 	andeq	r8, r0, r8, lsr pc
 450:	00000064 	andeq	r0, r0, r4, rrx
 454:	8e040e54 	mcrhi	14, 0, r0, cr4, cr4, {2}
 458:	100e4201 	andne	r4, lr, r1, lsl #4
 45c:	0000002c 	andeq	r0, r0, ip, lsr #32
 460:	000003dc 	ldrdeq	r0, [r0], -ip
 464:	00008f9c 	muleq	r0, ip, pc	; <UNPREDICTABLE>
 468:	000004b8 			; <UNDEFINED> instruction: 0x000004b8
 46c:	84240e42 	strthi	r0, [r4], #-3650	; 0xfffff1be
 470:	86088509 	strhi	r8, [r8], -r9, lsl #10
 474:	88068707 	stmdahi	r6, {r0, r1, r2, r8, r9, sl, pc}
 478:	8a048905 	bhi	122894 <__bss_end__+0x11730c>
 47c:	8e028b03 	vmlahi.f64	d8, d2, d3
 480:	b80e4201 	stmdalt	lr, {r0, r9, lr}
 484:	02380302 	eorseq	r0, r8, #134217728	; 0x8000000
 488:	0000240e 	andeq	r2, r0, lr, lsl #8
 48c:	0000000c 	andeq	r0, r0, ip
 490:	ffffffff 			; <UNDEFINED> instruction: 0xffffffff
 494:	7c020001 	stcvc	0, cr0, [r2], {1}
 498:	000d0c0e 	andeq	r0, sp, lr, lsl #24
 49c:	00000014 	andeq	r0, r0, r4, lsl r0
 4a0:	0000048c 	andeq	r0, r0, ip, lsl #9
 4a4:	00009454 	andeq	r9, r0, r4, asr r4
 4a8:	0000002c 	andeq	r0, r0, ip, lsr #32
 4ac:	84080e42 	strhi	r0, [r8], #-3650	; 0xfffff1be
 4b0:	00018e02 	andeq	r8, r1, r2, lsl #28
 4b4:	0000000c 	andeq	r0, r0, ip
 4b8:	ffffffff 			; <UNDEFINED> instruction: 0xffffffff
 4bc:	7c020001 	stcvc	0, cr0, [r2], {1}
 4c0:	000d0c0e 	andeq	r0, sp, lr, lsl #24
 4c4:	00000014 	andeq	r0, r0, r4, lsl r0
 4c8:	000004b4 			; <UNDEFINED> instruction: 0x000004b4
 4cc:	00009480 	andeq	r9, r0, r0, lsl #9
 4d0:	0000003c 	andeq	r0, r0, ip, lsr r0
 4d4:	84080e42 	strhi	r0, [r8], #-3650	; 0xfffff1be
 4d8:	00018e02 	andeq	r8, r1, r2, lsl #28
 4dc:	0000000c 	andeq	r0, r0, ip
 4e0:	ffffffff 			; <UNDEFINED> instruction: 0xffffffff
 4e4:	7c020001 	stcvc	0, cr0, [r2], {1}
 4e8:	000d0c0e 	andeq	r0, sp, lr, lsl #24
 4ec:	0000000c 	andeq	r0, r0, ip
 4f0:	000004dc 	ldrdeq	r0, [r0], -ip
 4f4:	000094bc 			; <UNDEFINED> instruction: 0x000094bc
 4f8:	00000004 	andeq	r0, r0, r4
 4fc:	0000000c 	andeq	r0, r0, ip
 500:	ffffffff 			; <UNDEFINED> instruction: 0xffffffff
 504:	7c020001 	stcvc	0, cr0, [r2], {1}
 508:	000d0c0e 	andeq	r0, sp, lr, lsl #24
 50c:	00000014 	andeq	r0, r0, r4, lsl r0
 510:	000004fc 	strdeq	r0, [r0], -ip
 514:	000094c0 	andeq	r9, r0, r0, asr #9
 518:	0000003c 	andeq	r0, r0, ip, lsr r0
 51c:	8e040e42 	cdphi	14, 0, cr0, cr4, cr2, {2}
 520:	100e4201 	andne	r4, lr, r1, lsl #4
 524:	0000000c 	andeq	r0, r0, ip
 528:	ffffffff 			; <UNDEFINED> instruction: 0xffffffff
 52c:	7c020001 	stcvc	0, cr0, [r2], {1}
 530:	000d0c0e 	andeq	r0, sp, lr, lsl #24
 534:	00000014 	andeq	r0, r0, r4, lsl r0
 538:	00000524 	andeq	r0, r0, r4, lsr #10
 53c:	000094fc 	strdeq	r9, [r0], -ip
 540:	0000003c 	andeq	r0, r0, ip, lsr r0
 544:	8e040e42 	cdphi	14, 0, cr0, cr4, cr2, {2}
 548:	100e4201 	andne	r4, lr, r1, lsl #4
 54c:	0000000c 	andeq	r0, r0, ip
 550:	ffffffff 			; <UNDEFINED> instruction: 0xffffffff
 554:	7c020001 	stcvc	0, cr0, [r2], {1}
 558:	000d0c0e 	andeq	r0, sp, lr, lsl #24
 55c:	00000014 	andeq	r0, r0, r4, lsl r0
 560:	0000054c 	andeq	r0, r0, ip, asr #10
 564:	00009538 	andeq	r9, r0, r8, lsr r5
 568:	0000003c 	andeq	r0, r0, ip, lsr r0
 56c:	8e040e42 	cdphi	14, 0, cr0, cr4, cr2, {2}
 570:	100e4201 	andne	r4, lr, r1, lsl #4
 574:	0000000c 	andeq	r0, r0, ip
 578:	ffffffff 			; <UNDEFINED> instruction: 0xffffffff
 57c:	7c020001 	stcvc	0, cr0, [r2], {1}
 580:	000d0c0e 	andeq	r0, sp, lr, lsl #24
 584:	00000014 	andeq	r0, r0, r4, lsl r0
 588:	00000574 	andeq	r0, r0, r4, ror r5
 58c:	00009574 	andeq	r9, r0, r4, ror r5
 590:	0000003c 	andeq	r0, r0, ip, lsr r0
 594:	8e040e42 	cdphi	14, 0, cr0, cr4, cr2, {2}
 598:	100e4201 	andne	r4, lr, r1, lsl #4
 59c:	0000000c 	andeq	r0, r0, ip
 5a0:	ffffffff 			; <UNDEFINED> instruction: 0xffffffff
 5a4:	7c020001 	stcvc	0, cr0, [r2], {1}
 5a8:	000d0c0e 	andeq	r0, sp, lr, lsl #24
 5ac:	00000014 	andeq	r0, r0, r4, lsl r0
 5b0:	0000059c 	muleq	r0, ip, r5
 5b4:	000095b0 			; <UNDEFINED> instruction: 0x000095b0
 5b8:	0000003c 	andeq	r0, r0, ip, lsr r0
 5bc:	8e040e42 	cdphi	14, 0, cr0, cr4, cr2, {2}
 5c0:	100e4201 	andne	r4, lr, r1, lsl #4
 5c4:	0000000c 	andeq	r0, r0, ip
 5c8:	ffffffff 			; <UNDEFINED> instruction: 0xffffffff
 5cc:	7c020001 	stcvc	0, cr0, [r2], {1}
 5d0:	000d0c0e 	andeq	r0, sp, lr, lsl #24
 5d4:	00000014 	andeq	r0, r0, r4, lsl r0
 5d8:	000005c4 	andeq	r0, r0, r4, asr #11
 5dc:	000095ec 	andeq	r9, r0, ip, ror #11
 5e0:	00000068 	andeq	r0, r0, r8, rrx
 5e4:	84080e42 	strhi	r0, [r8], #-3650	; 0xfffff1be
 5e8:	00018e02 	andeq	r8, r1, r2, lsl #28
 5ec:	0000000c 	andeq	r0, r0, ip
 5f0:	ffffffff 			; <UNDEFINED> instruction: 0xffffffff
 5f4:	7c020001 	stcvc	0, cr0, [r2], {1}
 5f8:	000d0c0e 	andeq	r0, sp, lr, lsl #24
 5fc:	0000000c 	andeq	r0, r0, ip
 600:	000005ec 	andeq	r0, r0, ip, ror #11
 604:	0000966c 	andeq	r9, r0, ip, ror #12
 608:	00000018 	andeq	r0, r0, r8, lsl r0
 60c:	0000000c 	andeq	r0, r0, ip
 610:	000005ec 	andeq	r0, r0, ip, ror #11
 614:	00009684 	andeq	r9, r0, r4, lsl #13
 618:	00000014 	andeq	r0, r0, r4, lsl r0
 61c:	00000014 	andeq	r0, r0, r4, lsl r0
 620:	000005ec 	andeq	r0, r0, ip, ror #11
 624:	00009698 	muleq	r0, r8, r6
 628:	00000054 	andeq	r0, r0, r4, asr r0
 62c:	84080e42 	strhi	r0, [r8], #-3650	; 0xfffff1be
 630:	00018e02 	andeq	r8, r1, r2, lsl #28
 634:	0000000c 	andeq	r0, r0, ip
 638:	ffffffff 			; <UNDEFINED> instruction: 0xffffffff
 63c:	7c020001 	stcvc	0, cr0, [r2], {1}
 640:	000d0c0e 	andeq	r0, sp, lr, lsl #24
 644:	00000014 	andeq	r0, r0, r4, lsl r0
 648:	00000634 	andeq	r0, r0, r4, lsr r6
 64c:	000096ec 	andeq	r9, r0, ip, ror #13
 650:	00000014 	andeq	r0, r0, r4, lsl r0
 654:	84080e42 	strhi	r0, [r8], #-3650	; 0xfffff1be
 658:	00018e02 	andeq	r8, r1, r2, lsl #28
 65c:	00000014 	andeq	r0, r0, r4, lsl r0
 660:	00000634 	andeq	r0, r0, r4, lsr r6
 664:	00009700 	andeq	r9, r0, r0, lsl #14
 668:	0000001c 	andeq	r0, r0, ip, lsl r0
 66c:	84080e42 	strhi	r0, [r8], #-3650	; 0xfffff1be
 670:	00018e02 	andeq	r8, r1, r2, lsl #28
 674:	00000018 	andeq	r0, r0, r8, lsl r0
 678:	00000634 	andeq	r0, r0, r4, lsr r6
 67c:	0000971c 	andeq	r9, r0, ip, lsl r7
 680:	00000024 	andeq	r0, r0, r4, lsr #32
 684:	84100e42 	ldrhi	r0, [r0], #-3650	; 0xfffff1be
 688:	86038504 	strhi	r8, [r3], -r4, lsl #10
 68c:	00018e02 	andeq	r8, r1, r2, lsl #28
 690:	00000014 	andeq	r0, r0, r4, lsl r0
 694:	00000634 	andeq	r0, r0, r4, lsr r6
 698:	00009740 	andeq	r9, r0, r0, asr #14
 69c:	00000018 	andeq	r0, r0, r8, lsl r0
 6a0:	84080e42 	strhi	r0, [r8], #-3650	; 0xfffff1be
 6a4:	00018e02 	andeq	r8, r1, r2, lsl #28
 6a8:	00000014 	andeq	r0, r0, r4, lsl r0
 6ac:	00000634 	andeq	r0, r0, r4, lsr r6
 6b0:	00009758 	andeq	r9, r0, r8, asr r7
 6b4:	00000018 	andeq	r0, r0, r8, lsl r0
 6b8:	84080e42 	strhi	r0, [r8], #-3650	; 0xfffff1be
 6bc:	00018e02 	andeq	r8, r1, r2, lsl #28
 6c0:	0000000c 	andeq	r0, r0, ip
 6c4:	ffffffff 			; <UNDEFINED> instruction: 0xffffffff
 6c8:	7c020001 	stcvc	0, cr0, [r2], {1}
 6cc:	000d0c0e 	andeq	r0, sp, lr, lsl #24
 6d0:	00000018 	andeq	r0, r0, r8, lsl r0
 6d4:	000006c0 	andeq	r0, r0, r0, asr #13
 6d8:	00009770 	andeq	r9, r0, r0, ror r7
 6dc:	00000020 	andeq	r0, r0, r0, lsr #32
 6e0:	84100e42 	ldrhi	r0, [r0], #-3650	; 0xfffff1be
 6e4:	86038504 	strhi	r8, [r3], -r4, lsl #10
 6e8:	00018e02 	andeq	r8, r1, r2, lsl #28
 6ec:	00000018 	andeq	r0, r0, r8, lsl r0
 6f0:	000006c0 	andeq	r0, r0, r0, asr #13
 6f4:	00009790 	muleq	r0, r0, r7
 6f8:	00000020 	andeq	r0, r0, r0, lsr #32
 6fc:	84100e42 	ldrhi	r0, [r0], #-3650	; 0xfffff1be
 700:	86038504 	strhi	r8, [r3], -r4, lsl #10
 704:	00018e02 	andeq	r8, r1, r2, lsl #28
 708:	00000014 	andeq	r0, r0, r4, lsl r0
 70c:	000006c0 	andeq	r0, r0, r0, asr #13
 710:	000097b0 			; <UNDEFINED> instruction: 0x000097b0
 714:	000000b0 	strheq	r0, [r0], -r0	; <UNPREDICTABLE>
 718:	84080e42 	strhi	r0, [r8], #-3650	; 0xfffff1be
 71c:	00018e02 	andeq	r8, r1, r2, lsl #28
 720:	00000014 	andeq	r0, r0, r4, lsl r0
 724:	000006c0 	andeq	r0, r0, r0, asr #13
 728:	00009860 	andeq	r9, r0, r0, ror #16
 72c:	00000018 	andeq	r0, r0, r8, lsl r0
 730:	84080e42 	strhi	r0, [r8], #-3650	; 0xfffff1be
 734:	00018e02 	andeq	r8, r1, r2, lsl #28
 738:	00000014 	andeq	r0, r0, r4, lsl r0
 73c:	000006c0 	andeq	r0, r0, r0, asr #13
 740:	00009878 	andeq	r9, r0, r8, ror r8
 744:	00000020 	andeq	r0, r0, r0, lsr #32
 748:	84080e42 	strhi	r0, [r8], #-3650	; 0xfffff1be
 74c:	00018e02 	andeq	r8, r1, r2, lsl #28
 750:	00000014 	andeq	r0, r0, r4, lsl r0
 754:	000006c0 	andeq	r0, r0, r0, asr #13
 758:	00009898 	muleq	r0, r8, r8
 75c:	00000030 	andeq	r0, r0, r0, lsr r0
 760:	84080e42 	strhi	r0, [r8], #-3650	; 0xfffff1be
 764:	00018e02 	andeq	r8, r1, r2, lsl #28
 768:	00000014 	andeq	r0, r0, r4, lsl r0
 76c:	000006c0 	andeq	r0, r0, r0, asr #13
 770:	000098c8 	andeq	r9, r0, r8, asr #17
 774:	00000030 	andeq	r0, r0, r0, lsr r0
 778:	84080e42 	strhi	r0, [r8], #-3650	; 0xfffff1be
 77c:	00018e02 	andeq	r8, r1, r2, lsl #28
 780:	00000014 	andeq	r0, r0, r4, lsl r0
 784:	000006c0 	andeq	r0, r0, r0, asr #13
 788:	000098f8 	strdeq	r9, [r0], -r8
 78c:	00000010 	andeq	r0, r0, r0, lsl r0
 790:	84080e42 	strhi	r0, [r8], #-3650	; 0xfffff1be
 794:	00018e02 	andeq	r8, r1, r2, lsl #28
 798:	00000014 	andeq	r0, r0, r4, lsl r0
 79c:	000006c0 	andeq	r0, r0, r0, asr #13
 7a0:	00009908 	andeq	r9, r0, r8, lsl #18
 7a4:	00000020 	andeq	r0, r0, r0, lsr #32
 7a8:	84080e42 	strhi	r0, [r8], #-3650	; 0xfffff1be
 7ac:	00018e02 	andeq	r8, r1, r2, lsl #28
 7b0:	00000014 	andeq	r0, r0, r4, lsl r0
 7b4:	000006c0 	andeq	r0, r0, r0, asr #13
 7b8:	00009928 	andeq	r9, r0, r8, lsr #18
 7bc:	00000014 	andeq	r0, r0, r4, lsl r0
 7c0:	84080e42 	strhi	r0, [r8], #-3650	; 0xfffff1be
 7c4:	00018e02 	andeq	r8, r1, r2, lsl #28
 7c8:	00000014 	andeq	r0, r0, r4, lsl r0
 7cc:	000006c0 	andeq	r0, r0, r0, asr #13
 7d0:	0000993c 	andeq	r9, r0, ip, lsr r9
 7d4:	00000024 	andeq	r0, r0, r4, lsr #32
 7d8:	84080e42 	strhi	r0, [r8], #-3650	; 0xfffff1be
 7dc:	00018e02 	andeq	r8, r1, r2, lsl #28
 7e0:	0000000c 	andeq	r0, r0, ip
 7e4:	ffffffff 			; <UNDEFINED> instruction: 0xffffffff
 7e8:	7c020001 	stcvc	0, cr0, [r2], {1}
 7ec:	000d0c0e 	andeq	r0, sp, lr, lsl #24
 7f0:	00000020 	andeq	r0, r0, r0, lsr #32
 7f4:	000007e0 	andeq	r0, r0, r0, ror #15
 7f8:	00009960 	andeq	r9, r0, r0, ror #18
 7fc:	00000100 	andeq	r0, r0, r0, lsl #2
 800:	84100e42 	ldrhi	r0, [r0], #-3650	; 0xfffff1be
 804:	86038504 	strhi	r8, [r3], -r4, lsl #10
 808:	42018e02 	andmi	r8, r1, #2, 28
 80c:	0a52180e 	beq	148684c <__bss_end__+0x147b2c4>
 810:	0b42100e 	bleq	1084850 <__bss_end__+0x10792c8>
 814:	00000014 	andeq	r0, r0, r4, lsl r0
 818:	000007e0 	andeq	r0, r0, r0, ror #15
 81c:	00009a60 	andeq	r9, r0, r0, ror #20
 820:	00000010 	andeq	r0, r0, r0, lsl r0
 824:	84080e42 	strhi	r0, [r8], #-3650	; 0xfffff1be
 828:	00018e02 	andeq	r8, r1, r2, lsl #28
 82c:	00000014 	andeq	r0, r0, r4, lsl r0
 830:	000007e0 	andeq	r0, r0, r0, ror #15
 834:	00009a70 	andeq	r9, r0, r0, ror sl
 838:	00000010 	andeq	r0, r0, r0, lsl r0
 83c:	84080e42 	strhi	r0, [r8], #-3650	; 0xfffff1be
 840:	00018e02 	andeq	r8, r1, r2, lsl #28
 844:	00000014 	andeq	r0, r0, r4, lsl r0
 848:	000007e0 	andeq	r0, r0, r0, ror #15
 84c:	00009a80 	andeq	r9, r0, r0, lsl #21
 850:	00000010 	andeq	r0, r0, r0, lsl r0
 854:	84080e42 	strhi	r0, [r8], #-3650	; 0xfffff1be
 858:	00018e02 	andeq	r8, r1, r2, lsl #28
 85c:	00000014 	andeq	r0, r0, r4, lsl r0
 860:	000007e0 	andeq	r0, r0, r0, ror #15
 864:	00009a90 	muleq	r0, r0, sl
 868:	00000018 	andeq	r0, r0, r8, lsl r0
 86c:	84080e42 	strhi	r0, [r8], #-3650	; 0xfffff1be
 870:	00018e02 	andeq	r8, r1, r2, lsl #28
 874:	0000000c 	andeq	r0, r0, ip
 878:	ffffffff 			; <UNDEFINED> instruction: 0xffffffff
 87c:	7c020001 	stcvc	0, cr0, [r2], {1}
 880:	000d0c0e 	andeq	r0, sp, lr, lsl #24
 884:	00000014 	andeq	r0, r0, r4, lsl r0
 888:	00000874 	andeq	r0, r0, r4, ror r8
 88c:	00009aa8 	andeq	r9, r0, r8, lsr #21
 890:	00000014 	andeq	r0, r0, r4, lsl r0
 894:	84080e42 	strhi	r0, [r8], #-3650	; 0xfffff1be
 898:	00018e02 	andeq	r8, r1, r2, lsl #28
 89c:	0000000c 	andeq	r0, r0, ip
 8a0:	00000874 	andeq	r0, r0, r4, ror r8
 8a4:	00009abc 			; <UNDEFINED> instruction: 0x00009abc
 8a8:	00000018 	andeq	r0, r0, r8, lsl r0
 8ac:	0000000c 	andeq	r0, r0, ip
 8b0:	00000874 	andeq	r0, r0, r4, ror r8
 8b4:	00009ad4 	ldrdeq	r9, [r0], -r4
 8b8:	00000010 	andeq	r0, r0, r0, lsl r0
 8bc:	0000000c 	andeq	r0, r0, ip
 8c0:	ffffffff 			; <UNDEFINED> instruction: 0xffffffff
 8c4:	7c020001 	stcvc	0, cr0, [r2], {1}
 8c8:	000d0c0e 	andeq	r0, sp, lr, lsl #24
 8cc:	0000000c 	andeq	r0, r0, ip
 8d0:	000008bc 			; <UNDEFINED> instruction: 0x000008bc
 8d4:	00009ae4 	andeq	r9, r0, r4, ror #21
 8d8:	00000034 	andeq	r0, r0, r4, lsr r0
 8dc:	0000000c 	andeq	r0, r0, ip
 8e0:	ffffffff 			; <UNDEFINED> instruction: 0xffffffff
 8e4:	7c020001 	stcvc	0, cr0, [r2], {1}
 8e8:	000d0c0e 	andeq	r0, sp, lr, lsl #24
 8ec:	0000000c 	andeq	r0, r0, ip
 8f0:	000008dc 	ldrdeq	r0, [r0], -ip
 8f4:	00009b18 	andeq	r9, r0, r8, lsl fp
 8f8:	0000002c 	andeq	r0, r0, ip, lsr #32
 8fc:	0000000c 	andeq	r0, r0, ip
 900:	ffffffff 			; <UNDEFINED> instruction: 0xffffffff
 904:	7c020001 	stcvc	0, cr0, [r2], {1}
 908:	000d0c0e 	andeq	r0, sp, lr, lsl #24
 90c:	0000000c 	andeq	r0, r0, ip
 910:	000008fc 	strdeq	r0, [r0], -ip
 914:	00009b44 	andeq	r9, r0, r4, asr #22
 918:	00000020 	andeq	r0, r0, r0, lsr #32
 91c:	0000000c 	andeq	r0, r0, ip
 920:	ffffffff 			; <UNDEFINED> instruction: 0xffffffff
 924:	7c020001 	stcvc	0, cr0, [r2], {1}
 928:	000d0c0e 	andeq	r0, sp, lr, lsl #24
 92c:	0000000c 	andeq	r0, r0, ip
 930:	0000091c 	andeq	r0, r0, ip, lsl r9
 934:	00009b64 	andeq	r9, r0, r4, ror #22
 938:	0000002c 	andeq	r0, r0, ip, lsr #32
 93c:	0000000c 	andeq	r0, r0, ip
 940:	ffffffff 			; <UNDEFINED> instruction: 0xffffffff
 944:	7c020001 	stcvc	0, cr0, [r2], {1}
 948:	000d0c0e 	andeq	r0, sp, lr, lsl #24
 94c:	0000000c 	andeq	r0, r0, ip
 950:	0000093c 	andeq	r0, r0, ip, lsr r9
 954:	00009b90 	muleq	r0, r0, fp
 958:	00000004 	andeq	r0, r0, r4
