
weird-timing.elf:     file format elf32-littlearm


Disassembly of section .text:

00008000 <__code_start__>:
    8000:	e3a00013 	mov	r0, #19, 0
    8004:	e3800080 	orr	r0, r0, #128, 0	; 0x80
    8008:	e129f000 	msr	CPSR_fc, r0
    800c:	e3a01000 	mov	r1, #0, 0
    8010:	ee071f95 	mcr	15, 0, r1, cr7, cr5, {4}
    8014:	e3a0d302 	mov	sp, #134217728	; 0x8000000
    8018:	e3a0b000 	mov	fp, #0, 0
    801c:	eb000305 	bl	8c38 <_cstart>
    8020:	eb00034e 	bl	8d60 <rpi_reboot>

00008024 <PUT32>:
    8024:	e5801000 	str	r1, [r0]
    8028:	e12fff1e 	bx	lr

0000802c <GET32>:
    802c:	e5900000 	ldr	r0, [r0]
    8030:	e12fff1e 	bx	lr

00008034 <BRANCHTO>:
    8034:	e12fff10 	bx	r0
	...

00008040 <check_align>:
    8040:	e92d4010 	push	{r4, lr}
    8044:	e24dd008 	sub	sp, sp, #8, 0
    8048:	e320f000 	nop	{0}
    804c:	e320f000 	nop	{0}
    8050:	ee1f3f3c 	mrc	15, 0, r3, cr15, cr12, {1}
    8054:	ee1f4f3c 	mrc	15, 0, r4, cr15, cr12, {1}
    8058:	e0444003 	sub	r4, r4, r3
    805c:	e3540008 	cmp	r4, #8, 0
    8060:	1a000012 	bne	80b0 <check_align+0x70>
    8064:	e59f0068 	ldr	r0, [pc, #104]	; 80d4 <check_align+0x94>
    8068:	eb00003f 	bl	816c <printk>
    806c:	e320f000 	nop	{0}
    8070:	e320f000 	nop	{0}
    8074:	e320f000 	nop	{0}
    8078:	e320f000 	nop	{0}
    807c:	ee1f3f3c 	mrc	15, 0, r3, cr15, cr12, {1}
    8080:	ee1f1f3c 	mrc	15, 0, r1, cr15, cr12, {1}
    8084:	e0411003 	sub	r1, r1, r3
    8088:	e3510008 	cmp	r1, #8, 0
    808c:	0a000003 	beq	80a0 <check_align+0x60>
    8090:	e59f0040 	ldr	r0, [pc, #64]	; 80d8 <check_align+0x98>
    8094:	e28dd008 	add	sp, sp, #8, 0
    8098:	e8bd4010 	pop	{r4, lr}
    809c:	ea000032 	b	816c <printk>
    80a0:	e59f0034 	ldr	r0, [pc, #52]	; 80dc <check_align+0x9c>
    80a4:	e28dd008 	add	sp, sp, #8, 0
    80a8:	e8bd4010 	pop	{r4, lr}
    80ac:	ea00002e 	b	816c <printk>
    80b0:	eb000048 	bl	81d8 <rpi_reset_putc>
    80b4:	e59f3024 	ldr	r3, [pc, #36]	; 80e0 <check_align+0xa0>
    80b8:	e59f2024 	ldr	r2, [pc, #36]	; 80e4 <check_align+0xa4>
    80bc:	e88d0018 	stm	sp, {r3, r4}
    80c0:	e59f1020 	ldr	r1, [pc, #32]	; 80e8 <check_align+0xa8>
    80c4:	e3a0302f 	mov	r3, #47, 0	; 0x2f
    80c8:	e59f001c 	ldr	r0, [pc, #28]	; 80ec <check_align+0xac>
    80cc:	eb000026 	bl	816c <printk>
    80d0:	eb0002cd 	bl	8c0c <clean_reboot>
    80d4:	000093a0 	andeq	r9, r0, r0, lsr #7
    80d8:	000093d4 	ldrdeq	r9, [r0], -r4
    80dc:	00009414 	andeq	r9, r0, r4, lsl r4
    80e0:	00009390 	muleq	r0, r0, r3
    80e4:	000094a8 	andeq	r9, r0, r8, lsr #9
    80e8:	00009340 	andeq	r9, r0, r0, asr #6
    80ec:	00009350 	andeq	r9, r0, r0, asr r3

000080f0 <notmain>:
    80f0:	e92d4070 	push	{r4, r5, r6, lr}
    80f4:	e59f5064 	ldr	r5, [pc, #100]	; 8160 <notmain+0x70>
    80f8:	e59f4064 	ldr	r4, [pc, #100]	; 8164 <notmain+0x74>
    80fc:	e1a00005 	mov	r0, r5
    8100:	eb000019 	bl	816c <printk>
    8104:	ebffffcd 	bl	8040 <check_align>
    8108:	e1a00005 	mov	r0, r5
    810c:	eb000016 	bl	816c <printk>
    8110:	ebffffca 	bl	8040 <check_align>
    8114:	e1a00005 	mov	r0, r5
    8118:	eb000013 	bl	816c <printk>
    811c:	ebffffc7 	bl	8040 <check_align>
    8120:	eb0002b1 	bl	8bec <enable_cache>
    8124:	e3a01000 	mov	r1, #0, 0
    8128:	e1a00004 	mov	r0, r4
    812c:	eb00000e 	bl	816c <printk>
    8130:	ebffffc2 	bl	8040 <check_align>
    8134:	e3a01001 	mov	r1, #1, 0
    8138:	e1a00004 	mov	r0, r4
    813c:	eb00000a 	bl	816c <printk>
    8140:	ebffffbe 	bl	8040 <check_align>
    8144:	e1a00004 	mov	r0, r4
    8148:	e3a01002 	mov	r1, #2, 0
    814c:	eb000006 	bl	816c <printk>
    8150:	ebffffba 	bl	8040 <check_align>
    8154:	e8bd4070 	pop	{r4, r5, r6, lr}
    8158:	e59f0008 	ldr	r0, [pc, #8]	; 8168 <notmain+0x78>
    815c:	ea000002 	b	816c <printk>
    8160:	00009448 	andeq	r9, r0, r8, asr #8
    8164:	00009474 	andeq	r9, r0, r4, ror r4
    8168:	000094a0 	andeq	r9, r0, r0, lsr #9

0000816c <printk>:
    816c:	e92d000f 	push	{r0, r1, r2, r3}
    8170:	e92d4030 	push	{r4, r5, lr}
    8174:	e59f5040 	ldr	r5, [pc, #64]	; 81bc <printk+0x50>
    8178:	e24dd00c 	sub	sp, sp, #12, 0
    817c:	e28d301c 	add	r3, sp, #28, 0
    8180:	e3a01b01 	mov	r1, #1024	; 0x400
    8184:	e59d2018 	ldr	r2, [sp, #24]
    8188:	e1a00005 	mov	r0, r5
    818c:	e58d3004 	str	r3, [sp, #4]
    8190:	eb00010a 	bl	85c0 <va_printk>
    8194:	e1a04000 	mov	r4, r0
    8198:	e59f3020 	ldr	r3, [pc, #32]	; 81c0 <printk+0x54>
    819c:	e1a00005 	mov	r0, r5
    81a0:	e5933000 	ldr	r3, [r3]
    81a4:	e12fff33 	blx	r3
    81a8:	e1a00004 	mov	r0, r4
    81ac:	e28dd00c 	add	sp, sp, #12, 0
    81b0:	e8bd4030 	pop	{r4, r5, lr}
    81b4:	e28dd010 	add	sp, sp, #16, 0
    81b8:	e12fff1e 	bx	lr
    81bc:	00009644 	andeq	r9, r0, r4, asr #12
    81c0:	00009640 	andeq	r9, r0, r0, asr #12

000081c4 <internal_putchar>:
    81c4:	e92d4010 	push	{r4, lr}
    81c8:	e1a04000 	mov	r4, r0
    81cc:	eb000398 	bl	9034 <uart_putc>
    81d0:	e1a00004 	mov	r0, r4
    81d4:	e8bd8010 	pop	{r4, pc}

000081d8 <rpi_reset_putc>:
    81d8:	e59f3008 	ldr	r3, [pc, #8]	; 81e8 <rpi_reset_putc+0x10>
    81dc:	e59f2008 	ldr	r2, [pc, #8]	; 81ec <rpi_reset_putc+0x14>
    81e0:	e5832000 	str	r2, [r3]
    81e4:	e12fff1e 	bx	lr
    81e8:	0000963c 	andeq	r9, r0, ip, lsr r6
    81ec:	000081c4 	andeq	r8, r0, r4, asr #3

000081f0 <rpi_set_putc>:
    81f0:	e59f3004 	ldr	r3, [pc, #4]	; 81fc <rpi_set_putc+0xc>
    81f4:	e5830000 	str	r0, [r3]
    81f8:	e12fff1e 	bx	lr
    81fc:	0000963c 	andeq	r9, r0, ip, lsr r6

00008200 <internal_putk>:
    8200:	e92d4070 	push	{r4, r5, r6, lr}
    8204:	e1a04000 	mov	r4, r0
    8208:	e5d00000 	ldrb	r0, [r0]
    820c:	e3500000 	cmp	r0, #0, 0
    8210:	0a000005 	beq	822c <internal_putk+0x2c>
    8214:	e59f5018 	ldr	r5, [pc, #24]	; 8234 <internal_putk+0x34>
    8218:	e5953000 	ldr	r3, [r5]
    821c:	e12fff33 	blx	r3
    8220:	e5f40001 	ldrb	r0, [r4, #1]!
    8224:	e3500000 	cmp	r0, #0, 0
    8228:	1afffffa 	bne	8218 <internal_putk+0x18>
    822c:	e3a00001 	mov	r0, #1, 0
    8230:	e8bd8070 	pop	{r4, r5, r6, pc}
    8234:	0000963c 	andeq	r9, r0, ip, lsr r6

00008238 <emit.constprop.0>:
    8238:	e92d41f0 	push	{r4, r5, r6, r7, r8, lr}
    823c:	e3530080 	cmp	r3, #128, 0	; 0x80
    8240:	e1a0c000 	mov	ip, r0
    8244:	e24dd048 	sub	sp, sp, #72, 0	; 0x48
    8248:	e1a00001 	mov	r0, r1
    824c:	ca000069 	bgt	83f8 <emit.constprop.0+0x1c0>
    8250:	e24c1002 	sub	r1, ip, #2, 0
    8254:	e1a0c002 	mov	ip, r2
    8258:	e351000e 	cmp	r1, #14, 0
    825c:	979ff101 	ldrls	pc, [pc, r1, lsl #2]
    8260:	ea0000a7 	b	8504 <emit.constprop.0+0x2cc>
    8264:	000083d0 	ldrdeq	r8, [r0], -r0
    8268:	00008504 	andeq	r8, r0, r4, lsl #10
    826c:	00008504 	andeq	r8, r0, r4, lsl #10
    8270:	00008504 	andeq	r8, r0, r4, lsl #10
    8274:	00008504 	andeq	r8, r0, r4, lsl #10
    8278:	00008504 	andeq	r8, r0, r4, lsl #10
    827c:	000084ac 	andeq	r8, r0, ip, lsr #9
    8280:	00008504 	andeq	r8, r0, r4, lsl #10
    8284:	0000844c 	andeq	r8, r0, ip, asr #8
    8288:	00008504 	andeq	r8, r0, r4, lsl #10
    828c:	00008504 	andeq	r8, r0, r4, lsl #10
    8290:	00008504 	andeq	r8, r0, r4, lsl #10
    8294:	00008504 	andeq	r8, r0, r4, lsl #10
    8298:	00008504 	andeq	r8, r0, r4, lsl #10
    829c:	000082a4 	andeq	r8, r0, r4, lsr #5
    82a0:	e3a0307f 	mov	r3, #127, 0	; 0x7f
    82a4:	e28d2008 	add	r2, sp, #8, 0
    82a8:	e1a04002 	mov	r4, r2
    82ac:	e59f1288 	ldr	r1, [pc, #648]	; 853c <emit.constprop.0+0x304>
    82b0:	e20ce00f 	and	lr, ip, #15, 0
    82b4:	e7d1e00e 	ldrb	lr, [r1, lr]
    82b8:	e35c000f 	cmp	ip, #15, 0
    82bc:	e4c4e001 	strb	lr, [r4], #1
    82c0:	e1a0c22c 	lsr	ip, ip, #4
    82c4:	8afffff9 	bhi	82b0 <emit.constprop.0+0x78>
    82c8:	e3a0c078 	mov	ip, #120, 0	; 0x78
    82cc:	e1a0e004 	mov	lr, r4
    82d0:	e3a01030 	mov	r1, #48, 0	; 0x30
    82d4:	e4cec002 	strb	ip, [lr], #2
    82d8:	e5c41001 	strb	r1, [r4, #1]
    82dc:	e04e1002 	sub	r1, lr, r2
    82e0:	e1510003 	cmp	r1, r3
    82e4:	aa000083 	bge	84f8 <emit.constprop.0+0x2c0>
    82e8:	e1510003 	cmp	r1, r3
    82ec:	a3a0c001 	movge	ip, #1, 0
    82f0:	b3a0c000 	movlt	ip, #0, 0
    82f4:	e2434001 	sub	r4, r3, #1, 0
    82f8:	e0444001 	sub	r4, r4, r1
    82fc:	b0436001 	sublt	r6, r3, r1
    8300:	a3a06001 	movge	r6, #1, 0
    8304:	e3540002 	cmp	r4, #2, 0
    8308:	938cc001 	orrls	ip, ip, #1, 0
    830c:	e35c0000 	cmp	ip, #0, 0
    8310:	1a000075 	bne	84ec <emit.constprop.0+0x2b4>
    8314:	e1a0c00e 	mov	ip, lr
    8318:	e3c65003 	bic	r5, r6, #3, 0
    831c:	e59f721c 	ldr	r7, [pc, #540]	; 8540 <emit.constprop.0+0x308>
    8320:	e085500e 	add	r5, r5, lr
    8324:	e48c7004 	str	r7, [ip], #4
    8328:	e15c0005 	cmp	ip, r5
    832c:	1afffffc 	bne	8324 <emit.constprop.0+0xec>
    8330:	e3c6c003 	bic	ip, r6, #3, 0
    8334:	e156000c 	cmp	r6, ip
    8338:	e08e500c 	add	r5, lr, ip
    833c:	e08cc001 	add	ip, ip, r1
    8340:	0a000008 	beq	8368 <emit.constprop.0+0x130>
    8344:	e3a07020 	mov	r7, #32, 0
    8348:	e28c8001 	add	r8, ip, #1, 0
    834c:	e1580003 	cmp	r8, r3
    8350:	e5c57000 	strb	r7, [r5]
    8354:	aa000003 	bge	8368 <emit.constprop.0+0x130>
    8358:	e28cc002 	add	ip, ip, #2, 0
    835c:	e15c0003 	cmp	ip, r3
    8360:	e5c57001 	strb	r7, [r5, #1]
    8364:	b5c57002 	strblt	r7, [r5, #2]
    8368:	e1510003 	cmp	r1, r3
    836c:	a3a04000 	movge	r4, #0, 0
    8370:	e08e6006 	add	r6, lr, r6
    8374:	e0461002 	sub	r1, r6, r2
    8378:	e08ee004 	add	lr, lr, r4
    837c:	e3a03000 	mov	r3, #0, 0
    8380:	e351007f 	cmp	r1, #127, 0	; 0x7f
    8384:	c241407f 	subgt	r4, r1, #127, 0	; 0x7f
    8388:	c0822004 	addgt	r2, r2, r4
    838c:	e152000e 	cmp	r2, lr
    8390:	e5c63000 	strb	r3, [r6]
    8394:	8a00004f 	bhi	84d8 <emit.constprop.0+0x2a0>
    8398:	e28ee001 	add	lr, lr, #1, 0
    839c:	e1a0300e 	mov	r3, lr
    83a0:	e240c001 	sub	ip, r0, #1, 0
    83a4:	e5734001 	ldrb	r4, [r3, #-1]!
    83a8:	e1530002 	cmp	r3, r2
    83ac:	e5ec4001 	strb	r4, [ip, #1]!
    83b0:	1afffffb 	bne	83a4 <emit.constprop.0+0x16c>
    83b4:	e04ee003 	sub	lr, lr, r3
    83b8:	e3a03000 	mov	r3, #0, 0
    83bc:	e080e00e 	add	lr, r0, lr
    83c0:	e5ce3000 	strb	r3, [lr]
    83c4:	e28dd048 	add	sp, sp, #72, 0	; 0x48
    83c8:	e8bd81f0 	pop	{r4, r5, r6, r7, r8, pc}
    83cc:	e3a0307f 	mov	r3, #127, 0	; 0x7f
    83d0:	e28d2008 	add	r2, sp, #8, 0
    83d4:	e1a0e002 	mov	lr, r2
    83d8:	e59f1164 	ldr	r1, [pc, #356]	; 8544 <emit.constprop.0+0x30c>
    83dc:	e20c4001 	and	r4, ip, #1, 0
    83e0:	e7d14004 	ldrb	r4, [r1, r4]
    83e4:	e35c0001 	cmp	ip, #1, 0
    83e8:	e4ce4001 	strb	r4, [lr], #1
    83ec:	e1a0c0ac 	lsr	ip, ip, #1
    83f0:	8afffff9 	bhi	83dc <emit.constprop.0+0x1a4>
    83f4:	eaffffb8 	b	82dc <emit.constprop.0+0xa4>
    83f8:	e24c3002 	sub	r3, ip, #2, 0
    83fc:	e1a0c002 	mov	ip, r2
    8400:	e353000e 	cmp	r3, #14, 0
    8404:	979ff103 	ldrls	pc, [pc, r3, lsl #2]
    8408:	ea00003d 	b	8504 <emit.constprop.0+0x2cc>
    840c:	000083cc 	andeq	r8, r0, ip, asr #7
    8410:	00008504 	andeq	r8, r0, r4, lsl #10
    8414:	00008504 	andeq	r8, r0, r4, lsl #10
    8418:	00008504 	andeq	r8, r0, r4, lsl #10
    841c:	00008504 	andeq	r8, r0, r4, lsl #10
    8420:	00008504 	andeq	r8, r0, r4, lsl #10
    8424:	00008524 	andeq	r8, r0, r4, lsr #10
    8428:	00008504 	andeq	r8, r0, r4, lsl #10
    842c:	00008448 	andeq	r8, r0, r8, asr #8
    8430:	00008504 	andeq	r8, r0, r4, lsl #10
    8434:	00008504 	andeq	r8, r0, r4, lsl #10
    8438:	00008504 	andeq	r8, r0, r4, lsl #10
    843c:	00008504 	andeq	r8, r0, r4, lsl #10
    8440:	00008504 	andeq	r8, r0, r4, lsl #10
    8444:	000082a0 	andeq	r8, r0, r0, lsr #5
    8448:	e3a0307f 	mov	r3, #127, 0	; 0x7f
    844c:	e59d1060 	ldr	r1, [sp, #96]	; 0x60
    8450:	e59f70f0 	ldr	r7, [pc, #240]	; 8548 <emit.constprop.0+0x310>
    8454:	e0118fa2 	ands	r8, r1, r2, lsr #31
    8458:	1262c000 	rsbne	ip, r2, #0, 0
    845c:	e28d2008 	add	r2, sp, #8, 0
    8460:	13a08001 	movne	r8, #1, 0
    8464:	e1a0e002 	mov	lr, r2
    8468:	e59f60dc 	ldr	r6, [pc, #220]	; 854c <emit.constprop.0+0x314>
    846c:	e1a0500c 	mov	r5, ip
    8470:	e0814c96 	umull	r4, r1, r6, ip
    8474:	e1a011a1 	lsr	r1, r1, #3
    8478:	e0814101 	add	r4, r1, r1, lsl #2
    847c:	e04cc084 	sub	ip, ip, r4, lsl #1
    8480:	e7d7400c 	ldrb	r4, [r7, ip]
    8484:	e3550009 	cmp	r5, #9, 0
    8488:	e1a0c001 	mov	ip, r1
    848c:	e1a0100e 	mov	r1, lr
    8490:	e4ce4001 	strb	r4, [lr], #1
    8494:	8afffff4 	bhi	846c <emit.constprop.0+0x234>
    8498:	e3580000 	cmp	r8, #0, 0
    849c:	13a0c02d 	movne	ip, #45, 0	; 0x2d
    84a0:	15cec000 	strbne	ip, [lr]
    84a4:	1281e002 	addne	lr, r1, #2, 0
    84a8:	eaffff8b 	b	82dc <emit.constprop.0+0xa4>
    84ac:	e3530001 	cmp	r3, #1, 0
    84b0:	e5cd2008 	strb	r2, [sp, #8]
    84b4:	c3a01001 	movgt	r1, #1, 0
    84b8:	c28de009 	addgt	lr, sp, #9, 0
    84bc:	c28d2008 	addgt	r2, sp, #8, 0
    84c0:	caffff88 	bgt	82e8 <emit.constprop.0+0xb0>
    84c4:	e3a03000 	mov	r3, #0, 0
    84c8:	e28de008 	add	lr, sp, #8, 0
    84cc:	e1a0200e 	mov	r2, lr
    84d0:	e5cd3009 	strb	r3, [sp, #9]
    84d4:	eaffffaf 	b	8398 <emit.constprop.0+0x160>
    84d8:	e1a0e000 	mov	lr, r0
    84dc:	e3a03000 	mov	r3, #0, 0
    84e0:	e5ce3000 	strb	r3, [lr]
    84e4:	e28dd048 	add	sp, sp, #72, 0	; 0x48
    84e8:	e8bd81f0 	pop	{r4, r5, r6, r7, r8, pc}
    84ec:	e1a0c001 	mov	ip, r1
    84f0:	e1a0500e 	mov	r5, lr
    84f4:	eaffff92 	b	8344 <emit.constprop.0+0x10c>
    84f8:	e1a0600e 	mov	r6, lr
    84fc:	e24ee001 	sub	lr, lr, #1, 0
    8500:	eaffff9d 	b	837c <emit.constprop.0+0x144>
    8504:	e59f2044 	ldr	r2, [pc, #68]	; 8550 <emit.constprop.0+0x318>
    8508:	e3a03079 	mov	r3, #121, 0	; 0x79
    850c:	e59f1040 	ldr	r1, [pc, #64]	; 8554 <emit.constprop.0+0x31c>
    8510:	e58d2000 	str	r2, [sp]
    8514:	e59f003c 	ldr	r0, [pc, #60]	; 8558 <emit.constprop.0+0x320>
    8518:	e59f203c 	ldr	r2, [pc, #60]	; 855c <emit.constprop.0+0x324>
    851c:	ebffff12 	bl	816c <printk>
    8520:	eb0001b9 	bl	8c0c <clean_reboot>
    8524:	e5cd2008 	strb	r2, [sp, #8]
    8528:	e3a0307f 	mov	r3, #127, 0	; 0x7f
    852c:	e3a01001 	mov	r1, #1, 0
    8530:	e28de009 	add	lr, sp, #9, 0
    8534:	e28d2008 	add	r2, sp, #8, 0
    8538:	eaffff6a 	b	82e8 <emit.constprop.0+0xb0>
    853c:	000094e0 	andeq	r9, r0, r0, ror #9
    8540:	20202020 	eorcs	r2, r0, r0, lsr #32
    8544:	000094f4 	strdeq	r9, [r0], -r4
    8548:	000094f8 	strdeq	r9, [r0], -r8
    854c:	cccccccd 	stclgt	12, cr12, [ip], {205}	; 0xcd
    8550:	000094dc 	ldrdeq	r9, [r0], -ip
    8554:	000094b4 			; <UNDEFINED> instruction: 0x000094b4
    8558:	000094c8 	andeq	r9, r0, r8, asr #9
    855c:	0000960c 	andeq	r9, r0, ip, lsl #12

00008560 <rpi_set_output>:
    8560:	e3500000 	cmp	r0, #0, 0
    8564:	0a000005 	beq	8580 <rpi_set_output+0x20>
    8568:	e59f3038 	ldr	r3, [pc, #56]	; 85a8 <rpi_set_output+0x48>
    856c:	e3510000 	cmp	r1, #0, 0
    8570:	e5830000 	str	r0, [r3]
    8574:	159f3030 	ldrne	r3, [pc, #48]	; 85ac <rpi_set_output+0x4c>
    8578:	15831000 	strne	r1, [r3]
    857c:	e12fff1e 	bx	lr
    8580:	e52de004 	push	{lr}		; (str lr, [sp, #-4]!)
    8584:	e59f2024 	ldr	r2, [pc, #36]	; 85b0 <rpi_set_output+0x50>
    8588:	e24dd00c 	sub	sp, sp, #12, 0
    858c:	e3a03020 	mov	r3, #32, 0
    8590:	e59f101c 	ldr	r1, [pc, #28]	; 85b4 <rpi_set_output+0x54>
    8594:	e58d2000 	str	r2, [sp]
    8598:	e59f0018 	ldr	r0, [pc, #24]	; 85b8 <rpi_set_output+0x58>
    859c:	e59f2018 	ldr	r2, [pc, #24]	; 85bc <rpi_set_output+0x5c>
    85a0:	ebfffef1 	bl	816c <printk>
    85a4:	eb000198 	bl	8c0c <clean_reboot>
    85a8:	0000963c 	andeq	r9, r0, ip, lsr r6
    85ac:	00009640 	andeq	r9, r0, r0, asr #12
    85b0:	00009504 	andeq	r9, r0, r4, lsl #10
    85b4:	000094b4 			; <UNDEFINED> instruction: 0x000094b4
    85b8:	000094c8 	andeq	r9, r0, r8, asr #9
    85bc:	00009614 	andeq	r9, r0, r4, lsl r6

000085c0 <va_printk>:
    85c0:	e92d4ff0 	push	{r4, r5, r6, r7, r8, r9, sl, fp, lr}
    85c4:	e1a0b000 	mov	fp, r0
    85c8:	e3a00000 	mov	r0, #0, 0
    85cc:	e5cb0000 	strb	r0, [fp]
    85d0:	e5d2c000 	ldrb	ip, [r2]
    85d4:	e2417001 	sub	r7, r1, #1, 0
    85d8:	e08b7007 	add	r7, fp, r7
    85dc:	e15c0000 	cmp	ip, r0
    85e0:	115b0007 	cmpne	fp, r7
    85e4:	e24ddf47 	sub	sp, sp, #284	; 0x11c
    85e8:	e58d2010 	str	r2, [sp, #16]
    85ec:	2a000159 	bcs	8b58 <va_printk+0x598>
    85f0:	e1a06002 	mov	r6, r2
    85f4:	e1a08003 	mov	r8, r3
    85f8:	e1a0400b 	mov	r4, fp
    85fc:	e59fa5a4 	ldr	sl, [pc, #1444]	; 8ba8 <va_printk+0x5e8>
    8600:	e58db00c 	str	fp, [sp, #12]
    8604:	ea000005 	b	8620 <va_printk+0x60>
    8608:	e4c4c001 	strb	ip, [r4], #1
    860c:	e2866001 	add	r6, r6, #1, 0
    8610:	e5d6c000 	ldrb	ip, [r6]
    8614:	e35c0000 	cmp	ip, #0, 0
    8618:	11570004 	cmpne	r7, r4
    861c:	9a00002f 	bls	86e0 <va_printk+0x120>
    8620:	e35c0025 	cmp	ip, #37, 0	; 0x25
    8624:	1afffff7 	bne	8608 <va_printk+0x48>
    8628:	e5d62001 	ldrb	r2, [r6, #1]
    862c:	e3520025 	cmp	r2, #37, 0	; 0x25
    8630:	04c4c001 	strbeq	ip, [r4], #1
    8634:	02866002 	addeq	r6, r6, #2, 0
    8638:	0afffff4 	beq	8610 <va_printk+0x50>
    863c:	e2423030 	sub	r3, r2, #48, 0	; 0x30
    8640:	e3530009 	cmp	r3, #9, 0
    8644:	e3a05000 	mov	r5, #0, 0
    8648:	e2866001 	add	r6, r6, #1, 0
    864c:	8a000008 	bhi	8674 <va_printk+0xb4>
    8650:	e0855105 	add	r5, r5, r5, lsl #2
    8654:	e0825085 	add	r5, r2, r5, lsl #1
    8658:	e5f62001 	ldrb	r2, [r6, #1]!
    865c:	e2455030 	sub	r5, r5, #48, 0	; 0x30
    8660:	e2423030 	sub	r3, r2, #48, 0	; 0x30
    8664:	e3530009 	cmp	r3, #9, 0
    8668:	9afffff8 	bls	8650 <va_printk+0x90>
    866c:	e355001f 	cmp	r5, #31, 0
    8670:	8a00013a 	bhi	8b60 <va_printk+0x5a0>
    8674:	e2423062 	sub	r3, r2, #98, 0	; 0x62
    8678:	e3530016 	cmp	r3, #22, 0
    867c:	979ff103 	ldrls	pc, [pc, r3, lsl #2]
    8680:	ea00011b 	b	8af4 <va_printk+0x534>
    8684:	00008938 	andeq	r8, r0, r8, lsr r9
    8688:	00008834 	andeq	r8, r0, r4, lsr r8
    868c:	0000882c 	andeq	r8, r0, ip, lsr #16
    8690:	00008af4 	strdeq	r8, [r0], -r4
    8694:	00008b30 	andeq	r8, r0, r0, lsr fp
    8698:	00008af4 	strdeq	r8, [r0], -r4
    869c:	00008af4 	strdeq	r8, [r0], -r4
    86a0:	00008af4 	strdeq	r8, [r0], -r4
    86a4:	00008af4 	strdeq	r8, [r0], -r4
    86a8:	00008af4 	strdeq	r8, [r0], -r4
    86ac:	0000873c 	andeq	r8, r0, ip, lsr r7
    86b0:	00008af4 	strdeq	r8, [r0], -r4
    86b4:	00008af4 	strdeq	r8, [r0], -r4
    86b8:	00008af4 	strdeq	r8, [r0], -r4
    86bc:	000086f8 	strdeq	r8, [r0], -r8	; <UNPREDICTABLE>
    86c0:	00008af4 	strdeq	r8, [r0], -r4
    86c4:	00008af4 	strdeq	r8, [r0], -r4
    86c8:	00008a30 	andeq	r8, r0, r0, lsr sl
    86cc:	00008af4 	strdeq	r8, [r0], -r4
    86d0:	00008808 	andeq	r8, r0, r8, lsl #16
    86d4:	00008af4 	strdeq	r8, [r0], -r4
    86d8:	00008af4 	strdeq	r8, [r0], -r4
    86dc:	000086f8 	strdeq	r8, [r0], -r8	; <UNPREDICTABLE>
    86e0:	e59db00c 	ldr	fp, [sp, #12]
    86e4:	e3a03000 	mov	r3, #0, 0
    86e8:	e4c43001 	strb	r3, [r4], #1
    86ec:	e044000b 	sub	r0, r4, fp
    86f0:	e28ddf47 	add	sp, sp, #284	; 0x11c
    86f4:	e8bd8ff0 	pop	{r4, r5, r6, r7, r8, r9, sl, fp, pc}
    86f8:	e3a01000 	mov	r1, #0, 0
    86fc:	e1a03005 	mov	r3, r5
    8700:	e4982004 	ldr	r2, [r8], #4
    8704:	e3a00010 	mov	r0, #16, 0
    8708:	e58d1000 	str	r1, [sp]
    870c:	e28d1018 	add	r1, sp, #24, 0
    8710:	ebfffec8 	bl	8238 <emit.constprop.0>
    8714:	e1a05000 	mov	r5, r0
    8718:	e2866001 	add	r6, r6, #1, 0
    871c:	e2455001 	sub	r5, r5, #1, 0
    8720:	e5f53001 	ldrb	r3, [r5, #1]!
    8724:	e3530000 	cmp	r3, #0, 0
    8728:	0affffb8 	beq	8610 <va_printk+0x50>
    872c:	e4c43001 	strb	r3, [r4], #1
    8730:	e1570004 	cmp	r7, r4
    8734:	8afffff9 	bhi	8720 <va_printk+0x160>
    8738:	eaffffb4 	b	8610 <va_printk+0x50>
    873c:	e3a02003 	mov	r2, #3, 0
    8740:	e1a00006 	mov	r0, r6
    8744:	e59f1460 	ldr	r1, [pc, #1120]	; 8bac <va_printk+0x5ec>
    8748:	eb0002e9 	bl	92f4 <strncmp>
    874c:	e3500000 	cmp	r0, #0, 0
    8750:	0a000005 	beq	876c <va_printk+0x1ac>
    8754:	e3a02003 	mov	r2, #3, 0
    8758:	e1a00006 	mov	r0, r6
    875c:	e59f144c 	ldr	r1, [pc, #1100]	; 8bb0 <va_printk+0x5f0>
    8760:	eb0002e3 	bl	92f4 <strncmp>
    8764:	e3500000 	cmp	r0, #0, 0
    8768:	1a00010b 	bne	8b9c <va_printk+0x5dc>
    876c:	e2888007 	add	r8, r8, #7, 0
    8770:	e3c88007 	bic	r8, r8, #7, 0
    8774:	e598b004 	ldr	fp, [r8, #4]
    8778:	e4989008 	ldr	r9, [r8], #8
    877c:	e1a0100b 	mov	r1, fp
    8780:	e59f042c 	ldr	r0, [pc, #1068]	; 8bb4 <va_printk+0x5f4>
    8784:	ebfffe78 	bl	816c <printk>
    8788:	e1a01009 	mov	r1, r9
    878c:	e59f0424 	ldr	r0, [pc, #1060]	; 8bb8 <va_printk+0x5f8>
    8790:	ebfffe75 	bl	816c <printk>
    8794:	e3a02003 	mov	r2, #3, 0
    8798:	e1a00006 	mov	r0, r6
    879c:	e59f1408 	ldr	r1, [pc, #1032]	; 8bac <va_printk+0x5ec>
    87a0:	eb0002d3 	bl	92f4 <strncmp>
    87a4:	e2503000 	subs	r3, r0, #0, 0
    87a8:	e1a02003 	mov	r2, r3
    87ac:	e2863002 	add	r3, r6, #2, 0
    87b0:	e58d3014 	str	r3, [sp, #20]
    87b4:	1a00009f 	bne	8a38 <va_printk+0x478>
    87b8:	e1a06002 	mov	r6, r2
    87bc:	e1a03005 	mov	r3, r5
    87c0:	e58d2000 	str	r2, [sp]
    87c4:	e28d1018 	add	r1, sp, #24, 0
    87c8:	e1a0200b 	mov	r2, fp
    87cc:	e3a00010 	mov	r0, #16, 0
    87d0:	ebfffe98 	bl	8238 <emit.constprop.0>
    87d4:	e1a0c000 	mov	ip, r0
    87d8:	e1a03005 	mov	r3, r5
    87dc:	e58d6000 	str	r6, [sp]
    87e0:	e28d1098 	add	r1, sp, #152, 0	; 0x98
    87e4:	e1a02009 	mov	r2, r9
    87e8:	e3a00010 	mov	r0, #16, 0
    87ec:	e1a0500c 	mov	r5, ip
    87f0:	ebfffe90 	bl	8238 <emit.constprop.0>
    87f4:	e28d0018 	add	r0, sp, #24, 0
    87f8:	e28d109a 	add	r1, sp, #154, 0	; 0x9a
    87fc:	e59d6014 	ldr	r6, [sp, #20]
    8800:	eb000299 	bl	926c <strcat>
    8804:	eaffffc3 	b	8718 <va_printk+0x158>
    8808:	e3a01000 	mov	r1, #0, 0
    880c:	e1a03005 	mov	r3, r5
    8810:	e4982004 	ldr	r2, [r8], #4
    8814:	e3a0000a 	mov	r0, #10, 0
    8818:	e58d1000 	str	r1, [sp]
    881c:	e28d1018 	add	r1, sp, #24, 0
    8820:	ebfffe84 	bl	8238 <emit.constprop.0>
    8824:	e1a05000 	mov	r5, r0
    8828:	eaffffba 	b	8718 <va_printk+0x158>
    882c:	e3a01001 	mov	r1, #1, 0
    8830:	eafffff5 	b	880c <va_printk+0x24c>
    8834:	e4983004 	ldr	r3, [r8], #4
    8838:	e3550001 	cmp	r5, #1, 0
    883c:	e5cd3098 	strb	r3, [sp, #152]	; 0x98
    8840:	9a0000a6 	bls	8ae0 <va_printk+0x520>
    8844:	e2453002 	sub	r3, r5, #2, 0
    8848:	e3530002 	cmp	r3, #2, 0
    884c:	e2451001 	sub	r1, r5, #1, 0
    8850:	9a0000bc 	bls	8b48 <va_printk+0x588>
    8854:	e59f0360 	ldr	r0, [pc, #864]	; 8bbc <va_printk+0x5fc>
    8858:	e1a02121 	lsr	r2, r1, #2
    885c:	e3520001 	cmp	r2, #1, 0
    8860:	e58d0099 	str	r0, [sp, #153]	; 0x99
    8864:	0a00000e 	beq	88a4 <va_printk+0x2e4>
    8868:	e3520002 	cmp	r2, #2, 0
    886c:	e58d009d 	str	r0, [sp, #157]	; 0x9d
    8870:	0a00000b 	beq	88a4 <va_printk+0x2e4>
    8874:	e3520003 	cmp	r2, #3, 0
    8878:	e58d00a1 	str	r0, [sp, #161]	; 0xa1
    887c:	0a000008 	beq	88a4 <va_printk+0x2e4>
    8880:	e3520004 	cmp	r2, #4, 0
    8884:	e58d00a5 	str	r0, [sp, #165]	; 0xa5
    8888:	0a000005 	beq	88a4 <va_printk+0x2e4>
    888c:	e3520005 	cmp	r2, #5, 0
    8890:	e58d00a9 	str	r0, [sp, #169]	; 0xa9
    8894:	0a000002 	beq	88a4 <va_printk+0x2e4>
    8898:	e3520007 	cmp	r2, #7, 0
    889c:	e58d00ad 	str	r0, [sp, #173]	; 0xad
    88a0:	058d00b1 	streq	r0, [sp, #177]	; 0xb1
    88a4:	e3c12003 	bic	r2, r1, #3, 0
    88a8:	e1510002 	cmp	r1, r2
    88ac:	e28dc099 	add	ip, sp, #153, 0	; 0x99
    88b0:	e08c0002 	add	r0, ip, r2
    88b4:	e2822001 	add	r2, r2, #1, 0
    88b8:	0a000008 	beq	88e0 <va_printk+0x320>
    88bc:	e3a0e020 	mov	lr, #32, 0
    88c0:	e2829001 	add	r9, r2, #1, 0
    88c4:	e1550009 	cmp	r5, r9
    88c8:	e5c0e000 	strb	lr, [r0]
    88cc:	da000003 	ble	88e0 <va_printk+0x320>
    88d0:	e2822002 	add	r2, r2, #2, 0
    88d4:	e1550002 	cmp	r5, r2
    88d8:	e5c0e001 	strb	lr, [r0, #1]
    88dc:	c5c0e002 	strbgt	lr, [r0, #2]
    88e0:	e3a0e000 	mov	lr, #0, 0
    88e4:	e28d0098 	add	r0, sp, #152, 0	; 0x98
    88e8:	e08c2001 	add	r2, ip, r1
    88ec:	e0422000 	sub	r2, r2, r0
    88f0:	e352007f 	cmp	r2, #127, 0	; 0x7f
    88f4:	c242207f 	subgt	r2, r2, #127, 0	; 0x7f
    88f8:	e08c3003 	add	r3, ip, r3
    88fc:	c0800002 	addgt	r0, r0, r2
    8900:	e1530000 	cmp	r3, r0
    8904:	e7cce001 	strb	lr, [ip, r1]
    8908:	3a00006c 	bcc	8ac0 <va_printk+0x500>
    890c:	e283c001 	add	ip, r3, #1, 0
    8910:	e1a0300c 	mov	r3, ip
    8914:	e28d5018 	add	r5, sp, #24, 0
    8918:	e2452001 	sub	r2, r5, #1, 0
    891c:	e5731001 	ldrb	r1, [r3, #-1]!
    8920:	e1500003 	cmp	r0, r3
    8924:	e5e21001 	strb	r1, [r2, #1]!
    8928:	1afffffb 	bne	891c <va_printk+0x35c>
    892c:	e04c3000 	sub	r3, ip, r0
    8930:	e0853003 	add	r3, r5, r3
    8934:	ea00003a 	b	8a24 <va_printk+0x464>
    8938:	e28d1098 	add	r1, sp, #152, 0	; 0x98
    893c:	e1a03001 	mov	r3, r1
    8940:	e4980004 	ldr	r0, [r8], #4
    8944:	e200c001 	and	ip, r0, #1, 0
    8948:	e7dac00c 	ldrb	ip, [sl, ip]
    894c:	e3500001 	cmp	r0, #1, 0
    8950:	e1a02003 	mov	r2, r3
    8954:	e1a000a0 	lsr	r0, r0, #1
    8958:	e4c3c001 	strb	ip, [r3], #1
    895c:	8afffff8 	bhi	8944 <va_printk+0x384>
    8960:	e0430001 	sub	r0, r3, r1
    8964:	e1550000 	cmp	r5, r0
    8968:	da000057 	ble	8acc <va_printk+0x50c>
    896c:	e045c000 	sub	ip, r5, r0
    8970:	e24ce001 	sub	lr, ip, #1, 0
    8974:	e35e0002 	cmp	lr, #2, 0
    8978:	e1a0e003 	mov	lr, r3
    897c:	9a00000a 	bls	89ac <va_printk+0x3ec>
    8980:	e3cc9003 	bic	r9, ip, #3, 0
    8984:	e0899003 	add	r9, r9, r3
    8988:	e59fb22c 	ldr	fp, [pc, #556]	; 8bbc <va_printk+0x5fc>
    898c:	e48eb004 	str	fp, [lr], #4
    8990:	e15e0009 	cmp	lr, r9
    8994:	1afffffb 	bne	8988 <va_printk+0x3c8>
    8998:	e3cce003 	bic	lr, ip, #3, 0
    899c:	e15e000c 	cmp	lr, ip
    89a0:	e080000e 	add	r0, r0, lr
    89a4:	e083e00e 	add	lr, r3, lr
    89a8:	0a000008 	beq	89d0 <va_printk+0x410>
    89ac:	e3a09020 	mov	r9, #32, 0
    89b0:	e280b001 	add	fp, r0, #1, 0
    89b4:	e155000b 	cmp	r5, fp
    89b8:	e5ce9000 	strb	r9, [lr]
    89bc:	da000003 	ble	89d0 <va_printk+0x410>
    89c0:	e2800002 	add	r0, r0, #2, 0
    89c4:	e1550000 	cmp	r5, r0
    89c8:	e5ce9001 	strb	r9, [lr, #1]
    89cc:	c5ce9002 	strbgt	r9, [lr, #2]
    89d0:	e3a0e000 	mov	lr, #0, 0
    89d4:	e083000c 	add	r0, r3, ip
    89d8:	e0400001 	sub	r0, r0, r1
    89dc:	e350007f 	cmp	r0, #127, 0	; 0x7f
    89e0:	e082200c 	add	r2, r2, ip
    89e4:	e7c3e00c 	strb	lr, [r3, ip]
    89e8:	da000001 	ble	89f4 <va_printk+0x434>
    89ec:	e240007f 	sub	r0, r0, #127, 0	; 0x7f
    89f0:	e0811000 	add	r1, r1, r0
    89f4:	e1510002 	cmp	r1, r2
    89f8:	8a000030 	bhi	8ac0 <va_printk+0x500>
    89fc:	e2822001 	add	r2, r2, #1, 0
    8a00:	e1a03002 	mov	r3, r2
    8a04:	e28d5018 	add	r5, sp, #24, 0
    8a08:	e245c001 	sub	ip, r5, #1, 0
    8a0c:	e5730001 	ldrb	r0, [r3, #-1]!
    8a10:	e1530001 	cmp	r3, r1
    8a14:	e5ec0001 	strb	r0, [ip, #1]!
    8a18:	1afffffb 	bne	8a0c <va_printk+0x44c>
    8a1c:	e0423003 	sub	r3, r2, r3
    8a20:	e0853003 	add	r3, r5, r3
    8a24:	e3a02000 	mov	r2, #0, 0
    8a28:	e5c32000 	strb	r2, [r3]
    8a2c:	eaffff39 	b	8718 <va_printk+0x158>
    8a30:	e4985004 	ldr	r5, [r8], #4
    8a34:	eaffff37 	b	8718 <va_printk+0x158>
    8a38:	e3a02003 	mov	r2, #3, 0
    8a3c:	e1a00006 	mov	r0, r6
    8a40:	e59f1168 	ldr	r1, [pc, #360]	; 8bb0 <va_printk+0x5f0>
    8a44:	eb00022a 	bl	92f4 <strncmp>
    8a48:	e2503000 	subs	r3, r0, #0, 0
    8a4c:	1a00004b 	bne	8b80 <va_printk+0x5c0>
    8a50:	e1a06003 	mov	r6, r3
    8a54:	e1a0200b 	mov	r2, fp
    8a58:	e58d3000 	str	r3, [sp]
    8a5c:	e28d1018 	add	r1, sp, #24, 0
    8a60:	e1a03005 	mov	r3, r5
    8a64:	e3a0000a 	mov	r0, #10, 0
    8a68:	ebfffdf2 	bl	8238 <emit.constprop.0>
    8a6c:	e1a0c000 	mov	ip, r0
    8a70:	e1a03005 	mov	r3, r5
    8a74:	e1a02009 	mov	r2, r9
    8a78:	e28d1098 	add	r1, sp, #152, 0	; 0x98
    8a7c:	e3a0000a 	mov	r0, #10, 0
    8a80:	e58d6000 	str	r6, [sp]
    8a84:	e1a0500c 	mov	r5, ip
    8a88:	ebfffdea 	bl	8238 <emit.constprop.0>
    8a8c:	e59f112c 	ldr	r1, [pc, #300]	; 8bc0 <va_printk+0x600>
    8a90:	e28d0018 	add	r0, sp, #24, 0
    8a94:	eb0001ff 	bl	9298 <strcmp>
    8a98:	e3500000 	cmp	r0, #0, 0
    8a9c:	e28d1098 	add	r1, sp, #152, 0	; 0x98
    8aa0:	e28d0018 	add	r0, sp, #24, 0
    8aa4:	1a000002 	bne	8ab4 <va_printk+0x4f4>
    8aa8:	eb00020b 	bl	92dc <strcpy>
    8aac:	e59d6014 	ldr	r6, [sp, #20]
    8ab0:	eaffff18 	b	8718 <va_printk+0x158>
    8ab4:	eb0001ec 	bl	926c <strcat>
    8ab8:	e59d6014 	ldr	r6, [sp, #20]
    8abc:	eaffff15 	b	8718 <va_printk+0x158>
    8ac0:	e28d5018 	add	r5, sp, #24, 0
    8ac4:	e1a03005 	mov	r3, r5
    8ac8:	eaffffd5 	b	8a24 <va_printk+0x464>
    8acc:	e3a0c000 	mov	ip, #0, 0
    8ad0:	e350007f 	cmp	r0, #127, 0	; 0x7f
    8ad4:	e5c3c000 	strb	ip, [r3]
    8ad8:	caffffc3 	bgt	89ec <va_printk+0x42c>
    8adc:	eaffffc6 	b	89fc <va_printk+0x43c>
    8ae0:	e3a02000 	mov	r2, #0, 0
    8ae4:	e28d3098 	add	r3, sp, #152, 0	; 0x98
    8ae8:	e1a00003 	mov	r0, r3
    8aec:	e5cd2099 	strb	r2, [sp, #153]	; 0x99
    8af0:	eaffff85 	b	890c <va_printk+0x34c>
    8af4:	e3a03000 	mov	r3, #0, 0
    8af8:	e1a01002 	mov	r1, r2
    8afc:	e5c63001 	strb	r3, [r6, #1]
    8b00:	e59f00bc 	ldr	r0, [pc, #188]	; 8bc4 <va_printk+0x604>
    8b04:	ebfffd98 	bl	816c <printk>
    8b08:	e59f30b8 	ldr	r3, [pc, #184]	; 8bc8 <va_printk+0x608>
    8b0c:	e59d0010 	ldr	r0, [sp, #16]
    8b10:	e5933000 	ldr	r3, [r3]
    8b14:	e12fff33 	blx	r3
    8b18:	e3a030e2 	mov	r3, #226, 0	; 0xe2
    8b1c:	e59f20a8 	ldr	r2, [pc, #168]	; 8bcc <va_printk+0x60c>
    8b20:	e59f10a8 	ldr	r1, [pc, #168]	; 8bd0 <va_printk+0x610>
    8b24:	e59f00a8 	ldr	r0, [pc, #168]	; 8bd4 <va_printk+0x614>
    8b28:	ebfffd8f 	bl	816c <printk>
    8b2c:	eb000036 	bl	8c0c <clean_reboot>
    8b30:	e3a030be 	mov	r3, #190, 0	; 0xbe
    8b34:	e59f2090 	ldr	r2, [pc, #144]	; 8bcc <va_printk+0x60c>
    8b38:	e59f1090 	ldr	r1, [pc, #144]	; 8bd0 <va_printk+0x610>
    8b3c:	e59f0094 	ldr	r0, [pc, #148]	; 8bd8 <va_printk+0x618>
    8b40:	ebfffd89 	bl	816c <printk>
    8b44:	eb000030 	bl	8c0c <clean_reboot>
    8b48:	e28dc099 	add	ip, sp, #153, 0	; 0x99
    8b4c:	e1a0000c 	mov	r0, ip
    8b50:	e3a02001 	mov	r2, #1, 0
    8b54:	eaffff58 	b	88bc <va_printk+0x2fc>
    8b58:	e1a0400b 	mov	r4, fp
    8b5c:	eafffee0 	b	86e4 <va_printk+0x124>
    8b60:	e3a03098 	mov	r3, #152, 0	; 0x98
    8b64:	e59f2070 	ldr	r2, [pc, #112]	; 8bdc <va_printk+0x61c>
    8b68:	e59f1060 	ldr	r1, [pc, #96]	; 8bd0 <va_printk+0x610>
    8b6c:	e58d2000 	str	r2, [sp]
    8b70:	e59f0068 	ldr	r0, [pc, #104]	; 8be0 <va_printk+0x620>
    8b74:	e59f2050 	ldr	r2, [pc, #80]	; 8bcc <va_printk+0x60c>
    8b78:	ebfffd7b 	bl	816c <printk>
    8b7c:	eb000022 	bl	8c0c <clean_reboot>
    8b80:	e3a030b6 	mov	r3, #182, 0	; 0xb6
    8b84:	e59f2040 	ldr	r2, [pc, #64]	; 8bcc <va_printk+0x60c>
    8b88:	e59f1040 	ldr	r1, [pc, #64]	; 8bd0 <va_printk+0x610>
    8b8c:	e59f0050 	ldr	r0, [pc, #80]	; 8be4 <va_printk+0x624>
    8b90:	e58d6000 	str	r6, [sp]
    8b94:	ebfffd74 	bl	816c <printk>
    8b98:	eb00001b 	bl	8c0c <clean_reboot>
    8b9c:	e3a0309f 	mov	r3, #159, 0	; 0x9f
    8ba0:	e59f2040 	ldr	r2, [pc, #64]	; 8be8 <va_printk+0x628>
    8ba4:	eaffffef 	b	8b68 <va_printk+0x5a8>
    8ba8:	000094f4 	strdeq	r9, [r0], -r4
    8bac:	00009518 	andeq	r9, r0, r8, lsl r5
    8bb0:	0000952c 	andeq	r9, r0, ip, lsr #10
    8bb4:	0000951c 	andeq	r9, r0, ip, lsl r5
    8bb8:	00009524 	andeq	r9, r0, r4, lsr #10
    8bbc:	20202020 	eorcs	r2, r0, r0, lsr #32
    8bc0:	000094dc 	ldrdeq	r9, [r0], -ip
    8bc4:	000095bc 			; <UNDEFINED> instruction: 0x000095bc
    8bc8:	00009640 	andeq	r9, r0, r0, asr #12
    8bcc:	00009624 	andeq	r9, r0, r4, lsr #12
    8bd0:	000094b4 			; <UNDEFINED> instruction: 0x000094b4
    8bd4:	000095ec 	andeq	r9, r0, ip, ror #11
    8bd8:	00009594 	muleq	r0, r4, r5
    8bdc:	0000950c 	andeq	r9, r0, ip, lsl #10
    8be0:	000094c8 	andeq	r9, r0, r8, asr #9
    8be4:	0000956c 	andeq	r9, r0, ip, ror #10
    8be8:	00009530 	andeq	r9, r0, r0, lsr r5

00008bec <enable_cache>:
    8bec:	ee113f10 	mrc	15, 0, r3, cr1, cr0, {0}
    8bf0:	e3833b06 	orr	r3, r3, #6144	; 0x1800
    8bf4:	ee013f10 	mcr	15, 0, r3, cr1, cr0, {0}
    8bf8:	e12fff1e 	bx	lr

00008bfc <disable_cache>:
    8bfc:	ee113f10 	mrc	15, 0, r3, cr1, cr0, {0}
    8c00:	e3c33b06 	bic	r3, r3, #6144	; 0x1800
    8c04:	ee013f10 	mcr	15, 0, r3, cr1, cr0, {0}
    8c08:	e12fff1e 	bx	lr

00008c0c <clean_reboot>:
    8c0c:	e59f301c 	ldr	r3, [pc, #28]	; 8c30 <clean_reboot+0x24>
    8c10:	e92d4010 	push	{r4, lr}
    8c14:	e5933000 	ldr	r3, [r3]
    8c18:	e59f0014 	ldr	r0, [pc, #20]	; 8c34 <clean_reboot+0x28>
    8c1c:	e12fff33 	blx	r3
    8c20:	eb00011b 	bl	9094 <uart_flush_tx>
    8c24:	e3a0000a 	mov	r0, #10, 0
    8c28:	eb000082 	bl	8e38 <delay_ms>
    8c2c:	eb00004b 	bl	8d60 <rpi_reboot>
    8c30:	00009640 	andeq	r9, r0, r0, asr #12
    8c34:	00009630 	andeq	r9, r0, r0, lsr r6

00008c38 <_cstart>:
    8c38:	e92d4070 	push	{r4, r5, r6, lr}
    8c3c:	eb00003b 	bl	8d30 <custom_loader>
    8c40:	e59f20e0 	ldr	r2, [pc, #224]	; 8d28 <_cstart+0xf0>
    8c44:	e59fc0e0 	ldr	ip, [pc, #224]	; 8d2c <_cstart+0xf4>
    8c48:	e152000c 	cmp	r2, ip
    8c4c:	2a00002e 	bcs	8d0c <_cstart+0xd4>
    8c50:	e24c1001 	sub	r1, ip, #1, 0
    8c54:	e0411002 	sub	r1, r1, r2
    8c58:	e3510017 	cmp	r1, #23, 0
    8c5c:	e1a03122 	lsr	r3, r2, #2
    8c60:	e1a01121 	lsr	r1, r1, #2
    8c64:	e2811001 	add	r1, r1, #1, 0
    8c68:	e2033001 	and	r3, r3, #1, 0
    8c6c:	9a00002b 	bls	8d20 <_cstart+0xe8>
    8c70:	e3530000 	cmp	r3, #0, 0
    8c74:	11a00002 	movne	r0, r2
    8c78:	13a0e000 	movne	lr, #0, 0
    8c7c:	e3a04000 	mov	r4, #0, 0
    8c80:	e3a05000 	mov	r5, #0, 0
    8c84:	e0411003 	sub	r1, r1, r3
    8c88:	01a00002 	moveq	r0, r2
    8c8c:	e0823103 	add	r3, r2, r3, lsl #2
    8c90:	e1a020a1 	lsr	r2, r1, #1
    8c94:	1480e004 	strne	lr, [r0], #4
    8c98:	e0832182 	add	r2, r3, r2, lsl #3
    8c9c:	e0c340f8 	strd	r4, [r3], #8
    8ca0:	e1520003 	cmp	r2, r3
    8ca4:	1afffffc 	bne	8c9c <_cstart+0x64>
    8ca8:	e3c13001 	bic	r3, r1, #1, 0
    8cac:	e1510003 	cmp	r1, r3
    8cb0:	e0803103 	add	r3, r0, r3, lsl #2
    8cb4:	0a000014 	beq	8d0c <_cstart+0xd4>
    8cb8:	e1a01003 	mov	r1, r3
    8cbc:	e3a02000 	mov	r2, #0, 0
    8cc0:	e4812004 	str	r2, [r1], #4
    8cc4:	e151000c 	cmp	r1, ip
    8cc8:	2a00000f 	bcs	8d0c <_cstart+0xd4>
    8ccc:	e2831008 	add	r1, r3, #8, 0
    8cd0:	e151000c 	cmp	r1, ip
    8cd4:	e5832004 	str	r2, [r3, #4]
    8cd8:	2a00000b 	bcs	8d0c <_cstart+0xd4>
    8cdc:	e283100c 	add	r1, r3, #12, 0
    8ce0:	e151000c 	cmp	r1, ip
    8ce4:	e5832008 	str	r2, [r3, #8]
    8ce8:	2a000007 	bcs	8d0c <_cstart+0xd4>
    8cec:	e2831010 	add	r1, r3, #16, 0
    8cf0:	e151000c 	cmp	r1, ip
    8cf4:	e583200c 	str	r2, [r3, #12]
    8cf8:	2a000003 	bcs	8d0c <_cstart+0xd4>
    8cfc:	e2831014 	add	r1, r3, #20, 0
    8d00:	e151000c 	cmp	r1, ip
    8d04:	e5832010 	str	r2, [r3, #16]
    8d08:	35832014 	strcc	r2, [r3, #20]
    8d0c:	eb000082 	bl	8f1c <uart_init>
    8d10:	e3a03001 	mov	r3, #1, 0
    8d14:	ee0f3f1c 	mcr	15, 0, r3, cr15, cr12, {0}
    8d18:	ebfffcf4 	bl	80f0 <notmain>
    8d1c:	ebffffba 	bl	8c0c <clean_reboot>
    8d20:	e1a03002 	mov	r3, r2
    8d24:	eaffffe3 	b	8cb8 <_cstart+0x80>
    8d28:	00009644 	andeq	r9, r0, r4, asr #12
    8d2c:	00009a48 	andeq	r9, r0, r8, asr #20

00008d30 <custom_loader>:
    8d30:	e12fff1e 	bx	lr

00008d34 <at_user_level>:
    8d34:	e10f0000 	mrs	r0, CPSR
    8d38:	e200001f 	and	r0, r0, #31, 0
    8d3c:	e2400010 	sub	r0, r0, #16, 0
    8d40:	e16f0f10 	clz	r0, r0
    8d44:	e1a002a0 	lsr	r0, r0, #5
    8d48:	e12fff1e 	bx	lr

00008d4c <set_user_level>:
    8d4c:	e10f3000 	mrs	r3, CPSR
    8d50:	e3c3301f 	bic	r3, r3, #31, 0
    8d54:	e3833010 	orr	r3, r3, #16, 0
    8d58:	e129f003 	msr	CPSR_fc, r3
    8d5c:	e12fff1e 	bx	lr

00008d60 <rpi_reboot>:
    8d60:	e92d4010 	push	{r4, lr}
    8d64:	e10f3000 	mrs	r3, CPSR
    8d68:	e203301f 	and	r3, r3, #31, 0
    8d6c:	e3530010 	cmp	r3, #16, 0
    8d70:	1a000003 	bne	8d84 <rpi_reboot+0x24>
    8d74:	e10f3000 	mrs	r3, CPSR
    8d78:	e3c3301f 	bic	r3, r3, #31, 0
    8d7c:	e3833010 	orr	r3, r3, #16, 0
    8d80:	e129f003 	msr	CPSR_fc, r3
    8d84:	eb000166 	bl	9324 <reboot_callout>
    8d88:	eb0000c1 	bl	9094 <uart_flush_tx>
    8d8c:	e3a0000a 	mov	r0, #10, 0
    8d90:	eb000028 	bl	8e38 <delay_ms>
    8d94:	e59f1014 	ldr	r1, [pc, #20]	; 8db0 <rpi_reboot+0x50>
    8d98:	e59f0014 	ldr	r0, [pc, #20]	; 8db4 <rpi_reboot+0x54>
    8d9c:	ebfffca0 	bl	8024 <PUT32>
    8da0:	e59f1010 	ldr	r1, [pc, #16]	; 8db8 <rpi_reboot+0x58>
    8da4:	e59f0010 	ldr	r0, [pc, #16]	; 8dbc <rpi_reboot+0x5c>
    8da8:	ebfffc9d 	bl	8024 <PUT32>
    8dac:	eafffffe 	b	8dac <rpi_reboot+0x4c>
    8db0:	5a000001 	bpl	8dbc <rpi_reboot+0x5c>
    8db4:	20100024 	andscs	r0, r0, r4, lsr #32
    8db8:	5a000020 	bpl	8e40 <delay_ms+0x8>
    8dbc:	2010001c 	andscs	r0, r0, ip, lsl r0

00008dc0 <timer_get_usec_raw>:
    8dc0:	e59f0000 	ldr	r0, [pc]	; 8dc8 <timer_get_usec_raw+0x8>
    8dc4:	eafffc98 	b	802c <GET32>
    8dc8:	20003004 	andcs	r3, r0, r4

00008dcc <timer_get_usec>:
    8dcc:	e92d4010 	push	{r4, lr}
    8dd0:	eb000154 	bl	9328 <dev_barrier>
    8dd4:	e59f0010 	ldr	r0, [pc, #16]	; 8dec <timer_get_usec+0x20>
    8dd8:	ebfffc93 	bl	802c <GET32>
    8ddc:	e1a04000 	mov	r4, r0
    8de0:	eb000150 	bl	9328 <dev_barrier>
    8de4:	e1a00004 	mov	r0, r4
    8de8:	e8bd8010 	pop	{r4, pc}
    8dec:	20003004 	andcs	r3, r0, r4

00008df0 <delay_us>:
    8df0:	e92d41f0 	push	{r4, r5, r6, r7, r8, lr}
    8df4:	e1a06000 	mov	r6, r0
    8df8:	eb00014a 	bl	9328 <dev_barrier>
    8dfc:	e59f0030 	ldr	r0, [pc, #48]	; 8e34 <delay_us+0x44>
    8e00:	ebfffc89 	bl	802c <GET32>
    8e04:	e1a05000 	mov	r5, r0
    8e08:	eb000146 	bl	9328 <dev_barrier>
    8e0c:	e59f7020 	ldr	r7, [pc, #32]	; 8e34 <delay_us+0x44>
    8e10:	eb000144 	bl	9328 <dev_barrier>
    8e14:	e1a00007 	mov	r0, r7
    8e18:	ebfffc83 	bl	802c <GET32>
    8e1c:	e1a04000 	mov	r4, r0
    8e20:	e0444005 	sub	r4, r4, r5
    8e24:	eb00013f 	bl	9328 <dev_barrier>
    8e28:	e1540006 	cmp	r4, r6
    8e2c:	3afffff7 	bcc	8e10 <delay_us+0x20>
    8e30:	e8bd81f0 	pop	{r4, r5, r6, r7, r8, pc}
    8e34:	20003004 	andcs	r3, r0, r4

00008e38 <delay_ms>:
    8e38:	e92d41f0 	push	{r4, r5, r6, r7, r8, lr}
    8e3c:	e0604280 	rsb	r4, r0, r0, lsl #5
    8e40:	e0800104 	add	r0, r0, r4, lsl #2
    8e44:	e1a04180 	lsl	r4, r0, #3
    8e48:	eb000136 	bl	9328 <dev_barrier>
    8e4c:	e59f0030 	ldr	r0, [pc, #48]	; 8e84 <delay_ms+0x4c>
    8e50:	ebfffc75 	bl	802c <GET32>
    8e54:	e1a06000 	mov	r6, r0
    8e58:	eb000132 	bl	9328 <dev_barrier>
    8e5c:	e59f7020 	ldr	r7, [pc, #32]	; 8e84 <delay_ms+0x4c>
    8e60:	eb000130 	bl	9328 <dev_barrier>
    8e64:	e1a00007 	mov	r0, r7
    8e68:	ebfffc6f 	bl	802c <GET32>
    8e6c:	e1a05000 	mov	r5, r0
    8e70:	e0455006 	sub	r5, r5, r6
    8e74:	eb00012b 	bl	9328 <dev_barrier>
    8e78:	e1540005 	cmp	r4, r5
    8e7c:	8afffff7 	bhi	8e60 <delay_ms+0x28>
    8e80:	e8bd81f0 	pop	{r4, r5, r6, r7, r8, pc}
    8e84:	20003004 	andcs	r3, r0, r4

00008e88 <delay_sec>:
    8e88:	e92d41f0 	push	{r4, r5, r6, r7, r8, lr}
    8e8c:	e0604280 	rsb	r4, r0, r0, lsl #5
    8e90:	e0644304 	rsb	r4, r4, r4, lsl #6
    8e94:	e0800184 	add	r0, r0, r4, lsl #3
    8e98:	e1a04300 	lsl	r4, r0, #6
    8e9c:	eb000121 	bl	9328 <dev_barrier>
    8ea0:	e59f0030 	ldr	r0, [pc, #48]	; 8ed8 <delay_sec+0x50>
    8ea4:	ebfffc60 	bl	802c <GET32>
    8ea8:	e1a06000 	mov	r6, r0
    8eac:	eb00011d 	bl	9328 <dev_barrier>
    8eb0:	e59f7020 	ldr	r7, [pc, #32]	; 8ed8 <delay_sec+0x50>
    8eb4:	eb00011b 	bl	9328 <dev_barrier>
    8eb8:	e1a00007 	mov	r0, r7
    8ebc:	ebfffc5a 	bl	802c <GET32>
    8ec0:	e1a05000 	mov	r5, r0
    8ec4:	e0455006 	sub	r5, r5, r6
    8ec8:	eb000116 	bl	9328 <dev_barrier>
    8ecc:	e1540005 	cmp	r4, r5
    8ed0:	8afffff7 	bhi	8eb4 <delay_sec+0x2c>
    8ed4:	e8bd81f0 	pop	{r4, r5, r6, r7, r8, pc}
    8ed8:	20003004 	andcs	r3, r0, r4

00008edc <and_in32>:
    8edc:	e92d4070 	push	{r4, r5, r6, lr}
    8ee0:	e1a04000 	mov	r4, r0
    8ee4:	e1a05001 	mov	r5, r1
    8ee8:	ebfffc4f 	bl	802c <GET32>
    8eec:	e0001005 	and	r1, r0, r5
    8ef0:	e1a00004 	mov	r0, r4
    8ef4:	ebfffc4a 	bl	8024 <PUT32>
    8ef8:	e8bd8070 	pop	{r4, r5, r6, pc}

00008efc <or_in32>:
    8efc:	e92d4070 	push	{r4, r5, r6, lr}
    8f00:	e1a04000 	mov	r4, r0
    8f04:	e1a05001 	mov	r5, r1
    8f08:	ebfffc47 	bl	802c <GET32>
    8f0c:	e1801005 	orr	r1, r0, r5
    8f10:	e1a00004 	mov	r0, r4
    8f14:	ebfffc42 	bl	8024 <PUT32>
    8f18:	e8bd8070 	pop	{r4, r5, r6, pc}

00008f1c <uart_init>:
    8f1c:	e92d4010 	push	{r4, lr}
    8f20:	e3a01002 	mov	r1, #2, 0
    8f24:	e3a0000e 	mov	r0, #14, 0
    8f28:	eb000067 	bl	90cc <gpio_set_function>
    8f2c:	e3a01002 	mov	r1, #2, 0
    8f30:	e3a0000f 	mov	r0, #15, 0
    8f34:	eb000064 	bl	90cc <gpio_set_function>
    8f38:	eb0000fa 	bl	9328 <dev_barrier>
    8f3c:	e3a01001 	mov	r1, #1, 0
    8f40:	e59f0064 	ldr	r0, [pc, #100]	; 8fac <uart_init+0x90>
    8f44:	ebffffec 	bl	8efc <or_in32>
    8f48:	eb0000f6 	bl	9328 <dev_barrier>
    8f4c:	e59f405c 	ldr	r4, [pc, #92]	; 8fb0 <uart_init+0x94>
    8f50:	e3a01000 	mov	r1, #0, 0
    8f54:	e1a00004 	mov	r0, r4
    8f58:	ebfffc31 	bl	8024 <PUT32>
    8f5c:	e3a01000 	mov	r1, #0, 0
    8f60:	e59f004c 	ldr	r0, [pc, #76]	; 8fb4 <uart_init+0x98>
    8f64:	ebfffc2e 	bl	8024 <PUT32>
    8f68:	e3a01003 	mov	r1, #3, 0
    8f6c:	e59f0044 	ldr	r0, [pc, #68]	; 8fb8 <uart_init+0x9c>
    8f70:	ebfffc2b 	bl	8024 <PUT32>
    8f74:	e3a01000 	mov	r1, #0, 0
    8f78:	e59f003c 	ldr	r0, [pc, #60]	; 8fbc <uart_init+0xa0>
    8f7c:	ebfffc28 	bl	8024 <PUT32>
    8f80:	e3a010c7 	mov	r1, #199, 0	; 0xc7
    8f84:	e59f0034 	ldr	r0, [pc, #52]	; 8fc0 <uart_init+0xa4>
    8f88:	ebfffc25 	bl	8024 <PUT32>
    8f8c:	e59f1030 	ldr	r1, [pc, #48]	; 8fc4 <uart_init+0xa8>
    8f90:	e59f0030 	ldr	r0, [pc, #48]	; 8fc8 <uart_init+0xac>
    8f94:	ebfffc22 	bl	8024 <PUT32>
    8f98:	e3a01003 	mov	r1, #3, 0
    8f9c:	e1a00004 	mov	r0, r4
    8fa0:	ebfffc1f 	bl	8024 <PUT32>
    8fa4:	eb0000df 	bl	9328 <dev_barrier>
    8fa8:	e8bd8010 	pop	{r4, pc}
    8fac:	20215004 	eorcs	r5, r1, r4
    8fb0:	20215060 	eorcs	r5, r1, r0, rrx
    8fb4:	20215044 	eorcs	r5, r1, r4, asr #32
    8fb8:	2021504c 	eorcs	r5, r1, ip, asr #32
    8fbc:	20215050 	eorcs	r5, r1, r0, asr r0
    8fc0:	20215048 	eorcs	r5, r1, r8, asr #32
    8fc4:	0000010e 	andeq	r0, r0, lr, lsl #2
    8fc8:	20215068 	eorcs	r5, r1, r8, rrx

00008fcc <uart_can_getc>:
    8fcc:	e92d4010 	push	{r4, lr}
    8fd0:	e59f0008 	ldr	r0, [pc, #8]	; 8fe0 <uart_can_getc+0x14>
    8fd4:	ebfffc14 	bl	802c <GET32>
    8fd8:	e2000001 	and	r0, r0, #1, 0
    8fdc:	e8bd8010 	pop	{r4, pc}
    8fe0:	20215064 	eorcs	r5, r1, r4, rrx

00008fe4 <uart_can_putc>:
    8fe4:	e92d4010 	push	{r4, lr}
    8fe8:	e59f0010 	ldr	r0, [pc, #16]	; 9000 <uart_can_putc+0x1c>
    8fec:	ebfffc0e 	bl	802c <GET32>
    8ff0:	e3100002 	tst	r0, #2, 0
    8ff4:	13a00001 	movne	r0, #1, 0
    8ff8:	03a00000 	moveq	r0, #0, 0
    8ffc:	e8bd8010 	pop	{r4, pc}
    9000:	20215064 	eorcs	r5, r1, r4, rrx

00009004 <uart_getc>:
    9004:	e92d4010 	push	{r4, lr}
    9008:	eb0000c6 	bl	9328 <dev_barrier>
    900c:	ebffffee 	bl	8fcc <uart_can_getc>
    9010:	e3500000 	cmp	r0, #0, 0
    9014:	0afffffc 	beq	900c <uart_getc+0x8>
    9018:	e59f0010 	ldr	r0, [pc, #16]	; 9030 <uart_getc+0x2c>
    901c:	ebfffc02 	bl	802c <GET32>
    9020:	e6ef4070 	uxtb	r4, r0
    9024:	eb0000bf 	bl	9328 <dev_barrier>
    9028:	e1a00004 	mov	r0, r4
    902c:	e8bd8010 	pop	{r4, pc}
    9030:	20215040 	eorcs	r5, r1, r0, asr #32

00009034 <uart_putc>:
    9034:	e92d4010 	push	{r4, lr}
    9038:	e1a04000 	mov	r4, r0
    903c:	eb0000b9 	bl	9328 <dev_barrier>
    9040:	ebffffe7 	bl	8fe4 <uart_can_putc>
    9044:	e3500000 	cmp	r0, #0, 0
    9048:	0afffffc 	beq	9040 <uart_putc+0xc>
    904c:	e6ef1074 	uxtb	r1, r4
    9050:	e59f0008 	ldr	r0, [pc, #8]	; 9060 <uart_putc+0x2c>
    9054:	ebfffbf2 	bl	8024 <PUT32>
    9058:	eb0000b2 	bl	9328 <dev_barrier>
    905c:	e8bd8010 	pop	{r4, pc}
    9060:	20215040 	eorcs	r5, r1, r0, asr #32

00009064 <uart_has_data>:
    9064:	e92d4010 	push	{r4, lr}
    9068:	eb0000ae 	bl	9328 <dev_barrier>
    906c:	ebffffd6 	bl	8fcc <uart_can_getc>
    9070:	e8bd8010 	pop	{r4, pc}

00009074 <uart_tx_is_empty>:
    9074:	e92d4010 	push	{r4, lr}
    9078:	eb0000aa 	bl	9328 <dev_barrier>
    907c:	e59f000c 	ldr	r0, [pc, #12]	; 9090 <uart_tx_is_empty+0x1c>
    9080:	ebfffbe9 	bl	802c <GET32>
    9084:	e1a004a0 	lsr	r0, r0, #9
    9088:	e2000001 	and	r0, r0, #1, 0
    908c:	e8bd8010 	pop	{r4, pc}
    9090:	20215064 	eorcs	r5, r1, r4, rrx

00009094 <uart_flush_tx>:
    9094:	e92d4010 	push	{r4, lr}
    9098:	ebfffff5 	bl	9074 <uart_tx_is_empty>
    909c:	e3500000 	cmp	r0, #0, 0
    90a0:	0afffffc 	beq	9098 <uart_flush_tx+0x4>
    90a4:	e8bd8010 	pop	{r4, pc}

000090a8 <uart_disable>:
    90a8:	e92d4010 	push	{r4, lr}
    90ac:	ebfffff8 	bl	9094 <uart_flush_tx>
    90b0:	eb00009c 	bl	9328 <dev_barrier>
    90b4:	e3e01001 	mvn	r1, #1, 0
    90b8:	e59f0008 	ldr	r0, [pc, #8]	; 90c8 <uart_disable+0x20>
    90bc:	ebffff86 	bl	8edc <and_in32>
    90c0:	eb000098 	bl	9328 <dev_barrier>
    90c4:	e8bd8010 	pop	{r4, pc}
    90c8:	20215004 	eorcs	r5, r1, r4

000090cc <gpio_set_function>:
    90cc:	e350001f 	cmp	r0, #31, 0
    90d0:	812fff1e 	bxhi	lr
    90d4:	e3d13007 	bics	r3, r1, #7, 0
    90d8:	e92d4070 	push	{r4, r5, r6, lr}
    90dc:	e1a05001 	mov	r5, r1
    90e0:	18bd8070 	popne	{r4, r5, r6, pc}
    90e4:	e59f3040 	ldr	r3, [pc, #64]	; 912c <gpio_set_function+0x60>
    90e8:	e0832093 	umull	r2, r3, r3, r0
    90ec:	e1a031a3 	lsr	r3, r3, #3
    90f0:	e2832302 	add	r2, r3, #134217728	; 0x8000000
    90f4:	e2822702 	add	r2, r2, #524288	; 0x80000
    90f8:	e1a06102 	lsl	r6, r2, #2
    90fc:	e0833103 	add	r3, r3, r3, lsl #2
    9100:	e0404083 	sub	r4, r0, r3, lsl #1
    9104:	e1a00006 	mov	r0, r6
    9108:	ebfffbc7 	bl	802c <GET32>
    910c:	e3a03007 	mov	r3, #7, 0
    9110:	e1a01000 	mov	r1, r0
    9114:	e0844084 	add	r4, r4, r4, lsl #1
    9118:	e1c11413 	bic	r1, r1, r3, lsl r4
    911c:	e1a00006 	mov	r0, r6
    9120:	e1811415 	orr	r1, r1, r5, lsl r4
    9124:	e8bd4070 	pop	{r4, r5, r6, lr}
    9128:	eafffbbd 	b	8024 <PUT32>
    912c:	cccccccd 	stclgt	12, cr12, [ip], {205}	; 0xcd

00009130 <gpio_set_output>:
    9130:	e350001f 	cmp	r0, #31, 0
    9134:	812fff1e 	bxhi	lr
    9138:	e59f3048 	ldr	r3, [pc, #72]	; 9188 <gpio_set_output+0x58>
    913c:	e92d4070 	push	{r4, r5, r6, lr}
    9140:	e0832093 	umull	r2, r3, r3, r0
    9144:	e1a031a3 	lsr	r3, r3, #3
    9148:	e2832302 	add	r2, r3, #134217728	; 0x8000000
    914c:	e2822702 	add	r2, r2, #524288	; 0x80000
    9150:	e1a05102 	lsl	r5, r2, #2
    9154:	e0833103 	add	r3, r3, r3, lsl #2
    9158:	e0404083 	sub	r4, r0, r3, lsl #1
    915c:	e1a00005 	mov	r0, r5
    9160:	ebfffbb1 	bl	802c <GET32>
    9164:	e3a02007 	mov	r2, #7, 0
    9168:	e1a03000 	mov	r3, r0
    916c:	e3a01001 	mov	r1, #1, 0
    9170:	e0844084 	add	r4, r4, r4, lsl #1
    9174:	e1c33412 	bic	r3, r3, r2, lsl r4
    9178:	e1a00005 	mov	r0, r5
    917c:	e1831411 	orr	r1, r3, r1, lsl r4
    9180:	e8bd4070 	pop	{r4, r5, r6, lr}
    9184:	eafffba6 	b	8024 <PUT32>
    9188:	cccccccd 	stclgt	12, cr12, [ip], {205}	; 0xcd

0000918c <gpio_set_on>:
    918c:	e1a03000 	mov	r3, r0
    9190:	e3a01001 	mov	r1, #1, 0
    9194:	e59f0004 	ldr	r0, [pc, #4]	; 91a0 <gpio_set_on+0x14>
    9198:	e1a01311 	lsl	r1, r1, r3
    919c:	eafffba0 	b	8024 <PUT32>
    91a0:	2020001c 	eorcs	r0, r0, ip, lsl r0

000091a4 <gpio_set_off>:
    91a4:	e1a03000 	mov	r3, r0
    91a8:	e3a01001 	mov	r1, #1, 0
    91ac:	e59f0004 	ldr	r0, [pc, #4]	; 91b8 <gpio_set_off+0x14>
    91b0:	e1a01311 	lsl	r1, r1, r3
    91b4:	eafffb9a 	b	8024 <PUT32>
    91b8:	20200028 	eorcs	r0, r0, r8, lsr #32

000091bc <gpio_set_input>:
    91bc:	e350001f 	cmp	r0, #31, 0
    91c0:	812fff1e 	bxhi	lr
    91c4:	e92d4070 	push	{r4, r5, r6, lr}
    91c8:	e59f5040 	ldr	r5, [pc, #64]	; 9210 <gpio_set_input+0x54>
    91cc:	e1a04000 	mov	r4, r0
    91d0:	e0853095 	umull	r3, r5, r5, r0
    91d4:	e1a051a5 	lsr	r5, r5, #3
    91d8:	e2850302 	add	r0, r5, #134217728	; 0x8000000
    91dc:	e2800702 	add	r0, r0, #524288	; 0x80000
    91e0:	e1a06100 	lsl	r6, r0, #2
    91e4:	e1a00006 	mov	r0, r6
    91e8:	ebfffb8f 	bl	802c <GET32>
    91ec:	e3a01007 	mov	r1, #7, 0
    91f0:	e1a03000 	mov	r3, r0
    91f4:	e0855105 	add	r5, r5, r5, lsl #2
    91f8:	e0444085 	sub	r4, r4, r5, lsl #1
    91fc:	e0844084 	add	r4, r4, r4, lsl #1
    9200:	e1a00006 	mov	r0, r6
    9204:	e1c31411 	bic	r1, r3, r1, lsl r4
    9208:	e8bd4070 	pop	{r4, r5, r6, lr}
    920c:	eafffb84 	b	8024 <PUT32>
    9210:	cccccccd 	stclgt	12, cr12, [ip], {205}	; 0xcd

00009214 <gpio_write>:
    9214:	e3510000 	cmp	r1, #0, 0
    9218:	e3a03001 	mov	r3, #1, 0
    921c:	e1a01000 	mov	r1, r0
    9220:	0a000002 	beq	9230 <gpio_write+0x1c>
    9224:	e59f0010 	ldr	r0, [pc, #16]	; 923c <gpio_write+0x28>
    9228:	e1a01113 	lsl	r1, r3, r1
    922c:	eafffb7c 	b	8024 <PUT32>
    9230:	e59f0008 	ldr	r0, [pc, #8]	; 9240 <gpio_write+0x2c>
    9234:	e1a01113 	lsl	r1, r3, r1
    9238:	eafffb79 	b	8024 <PUT32>
    923c:	2020001c 	eorcs	r0, r0, ip, lsl r0
    9240:	20200028 	eorcs	r0, r0, r8, lsr #32

00009244 <gpio_read>:
    9244:	e59f301c 	ldr	r3, [pc, #28]	; 9268 <gpio_read+0x24>
    9248:	e92d4010 	push	{r4, lr}
    924c:	e1a04000 	mov	r4, r0
    9250:	e08302a0 	add	r0, r3, r0, lsr #5
    9254:	ebfffb74 	bl	802c <GET32>
    9258:	e204401f 	and	r4, r4, #31, 0
    925c:	e1a00430 	lsr	r0, r0, r4
    9260:	e2000001 	and	r0, r0, #1, 0
    9264:	e8bd8010 	pop	{r4, pc}
    9268:	20200034 	eorcs	r0, r0, r4, lsr r0

0000926c <strcat>:
    926c:	e1a02000 	mov	r2, r0
    9270:	e1a03002 	mov	r3, r2
    9274:	e4d2c001 	ldrb	ip, [r2], #1
    9278:	e35c0000 	cmp	ip, #0, 0
    927c:	1afffffb 	bne	9270 <strcat+0x4>
    9280:	e2433001 	sub	r3, r3, #1, 0
    9284:	e4d12001 	ldrb	r2, [r1], #1
    9288:	e3520000 	cmp	r2, #0, 0
    928c:	e5e32001 	strb	r2, [r3, #1]!
    9290:	1afffffb 	bne	9284 <strcat+0x18>
    9294:	e12fff1e 	bx	lr

00009298 <strcmp>:
    9298:	e5d03000 	ldrb	r3, [r0]
    929c:	e3530000 	cmp	r3, #0, 0
    92a0:	05d12000 	ldrbeq	r2, [r1]
    92a4:	1a000003 	bne	92b8 <strcmp+0x20>
    92a8:	ea000006 	b	92c8 <strcmp+0x30>
    92ac:	e5f03001 	ldrb	r3, [r0, #1]!
    92b0:	e3530000 	cmp	r3, #0, 0
    92b4:	0a000005 	beq	92d0 <strcmp+0x38>
    92b8:	e1a0c001 	mov	ip, r1
    92bc:	e4d12001 	ldrb	r2, [r1], #1
    92c0:	e1520003 	cmp	r2, r3
    92c4:	0afffff8 	beq	92ac <strcmp+0x14>
    92c8:	e0430002 	sub	r0, r3, r2
    92cc:	e12fff1e 	bx	lr
    92d0:	e5dc2001 	ldrb	r2, [ip, #1]
    92d4:	e0430002 	sub	r0, r3, r2
    92d8:	e12fff1e 	bx	lr

000092dc <strcpy>:
    92dc:	e2402001 	sub	r2, r0, #1, 0
    92e0:	e4d13001 	ldrb	r3, [r1], #1
    92e4:	e3530000 	cmp	r3, #0, 0
    92e8:	e5e23001 	strb	r3, [r2, #1]!
    92ec:	1afffffb 	bne	92e0 <strcpy+0x4>
    92f0:	e12fff1e 	bx	lr

000092f4 <strncmp>:
    92f4:	e0802002 	add	r2, r0, r2
    92f8:	ea000003 	b	930c <strncmp+0x18>
    92fc:	e4d03001 	ldrb	r3, [r0], #1
    9300:	e4d1c001 	ldrb	ip, [r1], #1
    9304:	e153000c 	cmp	r3, ip
    9308:	1a000003 	bne	931c <strncmp+0x28>
    930c:	e1500002 	cmp	r0, r2
    9310:	1afffff9 	bne	92fc <strncmp+0x8>
    9314:	e3a00000 	mov	r0, #0, 0
    9318:	e12fff1e 	bx	lr
    931c:	e043000c 	sub	r0, r3, ip
    9320:	e12fff1e 	bx	lr

00009324 <reboot_callout>:
    9324:	e12fff1e 	bx	lr

00009328 <dev_barrier>:
    9328:	ea000002 	b	9338 <dsb>

0000932c <dmb>:
    932c:	e3a00000 	mov	r0, #0, 0
    9330:	ee070fba 	mcr	15, 0, r0, cr7, cr10, {5}
    9334:	e12fff1e 	bx	lr

00009338 <dsb>:
    9338:	ee070f9a 	mcr	15, 0, r0, cr7, cr10, {4}
    933c:	e12fff1e 	bx	lr

Disassembly of section .rodata:

00009340 <__FUNCTION__.3954-0x168>:
    9340:	72696577 	rsbvc	r6, r9, #499122176	; 0x1dc00000
    9344:	69742d64 	ldmdbvs	r4!, {r2, r5, r6, r8, sl, fp, sp}^
    9348:	676e696d 	strbvs	r6, [lr, -sp, ror #18]!
    934c:	0000632e 	andeq	r6, r0, lr, lsr #6
    9350:	4f525245 	svcmi	0x00525245
    9354:	73253a52 			; <UNDEFINED> instruction: 0x73253a52
    9358:	3a73253a 	bcc	1cd2848 <__bss_end__+0x1cc8e00>
    935c:	203a6425 	eorscs	r6, sl, r5, lsr #8
    9360:	534c4146 	movtpl	r4, #49478	; 0xc146
    9364:	253c2845 	ldrcs	r2, [ip, #-2117]!	; 0xfffff7bb
    9368:	3a293e73 	bcc	a58d3c <__bss_end__+0xa4f2f4>
    936c:	78652220 	stmdavc	r5!, {r5, r9, sp}^
    9370:	74636570 	strbtvc	r6, [r3], #-1392	; 0xfffffa90
    9374:	38206465 	stmdacc	r0!, {r0, r2, r5, r6, sl, sp, lr}
    9378:	6168202c 	cmnvs	r8, ip, lsr #32
    937c:	6f206576 	svcvs	0x00206576
    9380:	68726576 	ldmdavs	r2!, {r1, r2, r4, r5, r6, r8, sl, sp, lr}^
    9384:	3d646165 	stfcce	f6, [r4, #-404]!	; 0xfffffe6c
    9388:	6e5c6425 	cdpvs	4, 5, cr6, cr12, cr5, {1}
    938c:	00000a22 	andeq	r0, r0, r2, lsr #20
    9390:	7265766f 	rsbvc	r7, r5, #116391936	; 0x6f00000
    9394:	64616568 	strbtvs	r6, [r1], #-1384	; 0xfffffa98
    9398:	203d3d20 	eorscs	r3, sp, r0, lsr #26
    939c:	00000038 	andeq	r0, r0, r8, lsr r0
    93a0:	696c6109 	stmdbvs	ip!, {r0, r3, r8, sp, lr}^
    93a4:	64656e67 	strbtvs	r6, [r5], #-3687	; 0xfffff199
    93a8:	63757320 	cmnvs	r5, #32, 6	; 0x80000000
    93ac:	73736563 	cmnvc	r3, #415236096	; 0x18c00000
    93b0:	7865203a 	stmdavc	r5!, {r1, r3, r4, r5, sp}^
    93b4:	74636570 	strbtvc	r6, [r3], #-1392	; 0xfffffa90
    93b8:	38206465 	stmdacc	r0!, {r0, r2, r5, r6, sl, sp, lr}
    93bc:	63796320 	cmnvs	r9, #32, 6	; 0x80000000
    93c0:	2c73656c 	cfldr64cs	mvdx6, [r3], #-432	; 0xfffffe50
    93c4:	746f6720 	strbtvc	r6, [pc], #-1824	; 93cc <__code_end__+0x8c>
    93c8:	63203820 			; <UNDEFINED> instruction: 0x63203820
    93cc:	656c6379 	strbvs	r6, [ip, #-889]!	; 0xfffffc87
    93d0:	00000a73 	andeq	r0, r0, r3, ror sl
    93d4:	6e6f6e09 	cdpvs	14, 6, cr6, cr15, cr9, {0}
    93d8:	696c612d 	stmdbvs	ip!, {r0, r2, r3, r5, r8, sp, lr}^
    93dc:	73206e67 			; <UNDEFINED> instruction: 0x73206e67
    93e0:	65636375 	strbvs	r6, [r3, #-885]!	; 0xfffffc8b
    93e4:	203a7373 	eorscs	r7, sl, r3, ror r3
    93e8:	65707865 	ldrbvs	r7, [r0, #-2149]!	; 0xfffff79b
    93ec:	64657463 	strbtvs	r7, [r5], #-1123	; 0xfffffb9d
    93f0:	38203e20 	stmdacc	r0!, {r5, r9, sl, fp, ip, sp}
    93f4:	6168202c 	cmnvs	r8, ip, lsr #32
    93f8:	6f206576 	svcvs	0x00206576
    93fc:	68726576 	ldmdavs	r2!, {r1, r2, r4, r5, r6, r8, sl, sp, lr}^
    9400:	20646165 	rsbcs	r6, r4, r5, ror #2
    9404:	3d20666f 	stccc	6, cr6, [r0, #-444]!	; 0xfffffe44
    9408:	20642520 	rsbcs	r2, r4, r0, lsr #10
    940c:	6c637963 			; <UNDEFINED> instruction: 0x6c637963
    9410:	000a7365 	andeq	r7, sl, r5, ror #6
    9414:	6e6f6e09 	cdpvs	14, 6, cr6, cr15, cr9, {0}
    9418:	696c612d 	stmdbvs	ip!, {r0, r2, r3, r5, r8, sp, lr}^
    941c:	66206e67 	strtvs	r6, [r0], -r7, ror #28
    9420:	3a6c6961 	bcc	1b239ac <__bss_end__+0x1b19f64>
    9424:	70786520 	rsbsvc	r6, r8, r0, lsr #10
    9428:	65746365 	ldrbvs	r6, [r4, #-869]!	; 0xfffffc9b
    942c:	203e2064 	eorscs	r2, lr, r4, rrx
    9430:	68202c38 	stmdavs	r0!, {r3, r4, r5, sl, fp, sp}
    9434:	20657661 	rsbcs	r7, r5, r1, ror #12
    9438:	7265766f 	rsbvc	r7, r5, #116391936	; 0x6f00000
    943c:	64616568 	strbtvs	r6, [r1], #-1384	; 0xfffffa98
    9440:	20666f20 	rsbcs	r6, r6, r0, lsr #30
    9444:	00000a38 	andeq	r0, r0, r8, lsr sl
    9448:	69206f6e 	stmdbvs	r0!, {r1, r2, r3, r5, r6, r8, r9, sl, fp, sp, lr}
    944c:	68636163 	stmdavs	r3!, {r0, r1, r5, r6, r8, sp, lr}^
    9450:	74203a65 	strtvc	r3, [r0], #-2661	; 0xfffff59b
    9454:	6c616972 			; <UNDEFINED> instruction: 0x6c616972
    9458:	3a64253d 	bcc	1912954 <__bss_end__+0x1908f0c>
    945c:	65686320 	strbvs	r6, [r8, #-800]!	; 0xfffffce0
    9460:	6e696b63 	vnmulvs.f64	d22, d9, d19
    9464:	6c612067 	stclvs	0, cr2, [r1], #-412	; 0xfffffe64
    9468:	6d6e6769 	stclvs	7, cr6, [lr, #-420]!	; 0xfffffe5c
    946c:	0a746e65 	beq	1d24e08 <__bss_end__+0x1d1b3c0>
    9470:	00000000 	andeq	r0, r0, r0
    9474:	63616369 	cmnvs	r1, #-1543503871	; 0xa4000001
    9478:	6f206568 	svcvs	0x00206568
    947c:	74203a6e 	strtvc	r3, [r0], #-2670	; 0xfffff592
    9480:	6c616972 			; <UNDEFINED> instruction: 0x6c616972
    9484:	3a64253d 	bcc	1912980 <__bss_end__+0x1908f38>
    9488:	65686320 	strbvs	r6, [r8, #-800]!	; 0xfffffce0
    948c:	6e696b63 	vnmulvs.f64	d22, d9, d19
    9490:	6c612067 	stclvs	0, cr2, [r1], #-412	; 0xfffffe64
    9494:	6d6e6769 	stclvs	7, cr6, [lr, #-420]!	; 0xfffffe5c
    9498:	0a746e65 	beq	1d24e34 <__bss_end__+0x1d1b3ec>
    949c:	00000000 	andeq	r0, r0, r0
    94a0:	656e6f64 	strbvs	r6, [lr, #-3940]!	; 0xfffff09c
    94a4:	00000a21 	andeq	r0, r0, r1, lsr #20

000094a8 <__FUNCTION__.3954>:
    94a8:	63656863 	cmnvs	r5, #6488064	; 0x630000
    94ac:	6c615f6b 	stclvs	15, cr5, [r1], #-428	; 0xfffffe54
    94b0:	006e6769 	rsbeq	r6, lr, r9, ror #14
    94b4:	696c2f2e 	stmdbvs	ip!, {r1, r2, r3, r5, r8, r9, sl, fp, sp}^
    94b8:	762f6362 	strtvc	r6, [pc], -r2, ror #6
    94bc:	72702d61 	rsbsvc	r2, r0, #6208	; 0x1840
    94c0:	6b746e69 	blvs	1d24e6c <__bss_end__+0x1d1b424>
    94c4:	0000632e 	andeq	r6, r0, lr, lsr #6
    94c8:	494e4150 	stmdbmi	lr, {r4, r6, r8, lr}^
    94cc:	73253a43 			; <UNDEFINED> instruction: 0x73253a43
    94d0:	3a73253a 	bcc	1cd29c0 <__bss_end__+0x1cc8f78>
    94d4:	253a6425 	ldrcs	r6, [sl, #-1061]!	; 0xfffffbdb
    94d8:	00000a73 	andeq	r0, r0, r3, ror sl
    94dc:	00000030 	andeq	r0, r0, r0, lsr r0
    94e0:	33323130 	teqcc	r2, #12
    94e4:	37363534 			; <UNDEFINED> instruction: 0x37363534
    94e8:	62613938 	rsbvs	r3, r1, #56, 18	; 0xe0000
    94ec:	66656463 	strbtvs	r6, [r5], -r3, ror #8
    94f0:	00000000 	andeq	r0, r0, r0
    94f4:	00003130 	andeq	r3, r0, r0, lsr r1
    94f8:	33323130 	teqcc	r2, #12
    94fc:	37363534 			; <UNDEFINED> instruction: 0x37363534
    9500:	00003938 	andeq	r3, r0, r8, lsr r9
    9504:	63747570 	cmnvs	r4, #112, 10	; 0x1c000000
    9508:	0070665f 	rsbseq	r6, r0, pc, asr r6
    950c:	74646977 	strbtvc	r6, [r4], #-2423	; 0xfffff689
    9510:	203c2068 	eorscs	r2, ip, r8, rrx
    9514:	00003233 	andeq	r3, r0, r3, lsr r2
    9518:	00786c6c 	rsbseq	r6, r8, ip, ror #24
    951c:	253d3078 	ldrcs	r3, [sp, #-120]!	; 0xffffff88
    9520:	00000a78 	andeq	r0, r0, r8, ror sl
    9524:	253d3178 	ldrcs	r3, [sp, #-376]!	; 0xfffffe88
    9528:	00000a78 	andeq	r0, r0, r8, ror sl
    952c:	00646c6c 	rsbeq	r6, r4, ip, ror #24
    9530:	6e727473 	mrcvs	4, 3, r7, cr2, cr3, {3}
    9534:	28706d63 	ldmdacs	r0!, {r0, r1, r5, r6, r8, sl, fp, sp, lr}^
    9538:	202c7974 	eorcs	r7, ip, r4, ror r9
    953c:	786c6c22 	stmdavc	ip!, {r1, r5, sl, fp, sp, lr}^
    9540:	33202c22 			; <UNDEFINED> instruction: 0x33202c22
    9544:	3d3d2029 	ldccc	0, cr2, [sp, #-164]!	; 0xffffff5c
    9548:	7c203020 	stcvc	0, cr3, [r0], #-128	; 0xffffff80
    954c:	7473207c 	ldrbtvc	r2, [r3], #-124	; 0xffffff84
    9550:	6d636e72 	stclvs	14, cr6, [r3, #-456]!	; 0xfffffe38
    9554:	79742870 	ldmdbvc	r4!, {r4, r5, r6, fp, sp}^
    9558:	6c22202c 	stcvs	0, cr2, [r2], #-176	; 0xffffff50
    955c:	2c22646c 	cfstrscs	mvf6, [r2], #-432	; 0xfffffe50
    9560:	20293320 	eorcs	r3, r9, r0, lsr #6
    9564:	30203d3d 	eorcc	r3, r0, sp, lsr sp
    9568:	00000000 	andeq	r0, r0, r0
    956c:	494e4150 	stmdbmi	lr, {r4, r6, r8, lr}^
    9570:	73253a43 			; <UNDEFINED> instruction: 0x73253a43
    9574:	3a73253a 	bcc	1cd2a64 <__bss_end__+0x1cc901c>
    9578:	693a6425 	ldmdbvs	sl!, {r0, r2, r5, sl, sp, lr}
    957c:	736f706d 	cmnvc	pc, #109, 0	; 0x6d
    9580:	6c626973 			; <UNDEFINED> instruction: 0x6c626973
    9584:	66203a65 	strtvs	r3, [r0], -r5, ror #20
    9588:	3c3d746d 	cfldrscc	mvf7, [sp], #-436	; 0xfffffe4c
    958c:	0a3e7325 	beq	fa6228 <__bss_end__+0xf9c7e0>
    9590:	0000000a 	andeq	r0, r0, sl
    9594:	494e4150 	stmdbmi	lr, {r4, r6, r8, lr}^
    9598:	73253a43 			; <UNDEFINED> instruction: 0x73253a43
    959c:	3a73253a 	bcc	1cd2a8c <__bss_end__+0x1cc9044>
    95a0:	663a6425 	ldrtvs	r6, [sl], -r5, lsr #8
    95a4:	74616f6c 	strbtvc	r6, [r1], #-3948	; 0xfffff094
    95a8:	746f6e20 	strbtvc	r6, [pc], #-3616	; 95b0 <__FUNCTION__.3954+0x108>
    95ac:	616e6520 	cmnvs	lr, r0, lsr #10
    95b0:	64656c62 	strbtvs	r6, [r5], #-3170	; 0xfffff39e
    95b4:	0a212121 	beq	851a40 <__bss_end__+0x847ff8>
    95b8:	00000000 	andeq	r0, r0, r0
    95bc:	6e697270 	mcrvs	2, 3, r7, cr9, cr0, {3}
    95c0:	203a6b74 	eorscs	r6, sl, r4, ror fp
    95c4:	20746f6e 	rsbscs	r6, r4, lr, ror #30
    95c8:	646e6168 	strbtvs	r6, [lr], #-360	; 0xfffffe98
    95cc:	676e696c 	strbvs	r6, [lr, -ip, ror #18]!
    95d0:	65707320 	ldrbvs	r7, [r0, #-800]!	; 0xfffffce0
    95d4:	69666963 	stmdbvs	r6!, {r0, r1, r5, r6, r8, fp, sp, lr}^
    95d8:	27207265 	strcs	r7, [r0, -r5, ror #4]!
    95dc:	20276325 	eorcs	r6, r7, r5, lsr #6
    95e0:	63736128 	cmnvs	r3, #10
    95e4:	253d6969 	ldrcs	r6, [sp, #-2409]!	; 0xfffff697
    95e8:	000a2964 	andeq	r2, sl, r4, ror #18
    95ec:	494e4150 	stmdbmi	lr, {r4, r6, r8, lr}^
    95f0:	73253a43 			; <UNDEFINED> instruction: 0x73253a43
    95f4:	3a73253a 	bcc	1cd2ae4 <__bss_end__+0x1cc909c>
    95f8:	703a6425 	eorsvc	r6, sl, r5, lsr #8
    95fc:	746e6972 	strbtvc	r6, [lr], #-2418	; 0xfffff68e
    9600:	7265206b 	rsbvc	r2, r5, #107, 0	; 0x6b
    9604:	0a726f72 	beq	1ca53d4 <__bss_end__+0x1c9b98c>
    9608:	0000000a 	andeq	r0, r0, sl

0000960c <__FUNCTION__.4000>:
    960c:	74696d65 	strbtvc	r6, [r9], #-3429	; 0xfffff29b
    9610:	00000000 	andeq	r0, r0, r0

00009614 <__FUNCTION__.3948>:
    9614:	5f697072 	svcpl	0x00697072
    9618:	5f746573 	svcpl	0x00746573
    961c:	7074756f 	rsbsvc	r7, r4, pc, ror #10
    9620:	00007475 	andeq	r7, r0, r5, ror r4

00009624 <__FUNCTION__.4026>:
    9624:	705f6176 	subsvc	r6, pc, r6, ror r1	; <UNPREDICTABLE>
    9628:	746e6972 	strbtvc	r6, [lr], #-2418	; 0xfffff68e
    962c:	0000006b 	andeq	r0, r0, fp, rrx
    9630:	454e4f44 	strbmi	r4, [lr, #-3908]	; 0xfffff0bc
    9634:	0a212121 	beq	851ac0 <__bss_end__+0x848078>
	...

Disassembly of section .data:

0000963c <rpi_putchar>:
    963c:	000081c4 	andeq	r8, r0, r4, asr #3

00009640 <putk>:
    9640:	00008200 	andeq	r8, r0, r0, lsl #4

Disassembly of section .bss:

00009644 <__bss_start__>:
	...

Disassembly of section .ARM.attributes:

00000000 <.ARM.attributes>:
   0:	00002a41 	andeq	r2, r0, r1, asr #20
   4:	61656100 	cmnvs	r5, r0, lsl #2
   8:	01006962 	tsteq	r0, r2, ror #18
   c:	00000020 	andeq	r0, r0, r0, lsr #32
  10:	4b5a3605 	blmi	168d82c <__bss_end__+0x1683de4>
  14:	08070600 	stmdaeq	r7, {r9, sl}
  18:	12010901 	andne	r0, r1, #16384	; 0x4000
  1c:	15011404 	strne	r1, [r1, #-1028]	; 0xfffffbfc
  20:	18031701 	stmdane	r3, {r0, r8, r9, sl, ip}
  24:	22011a01 	andcs	r1, r1, #4096	; 0x1000
  28:	Address 0x0000000000000028 is out of bounds.


Disassembly of section .comment:

00000000 <.comment>:
   0:	3a434347 	bcc	10d0d24 <__bss_end__+0x10c72dc>
   4:	4e472820 	cdpmi	8, 4, cr2, cr7, cr0, {1}
   8:	6f542055 	svcvs	0x00542055
   c:	20736c6f 	rsbscs	r6, r3, pc, ror #24
  10:	20726f66 	rsbscs	r6, r2, r6, ror #30
  14:	206d7241 	rsbcs	r7, sp, r1, asr #4
  18:	65626d45 	strbvs	r6, [r2, #-3397]!	; 0xfffff2bb
  1c:	64656464 	strbtvs	r6, [r5], #-1124	; 0xfffffb9c
  20:	6f725020 	svcvs	0x00725020
  24:	73736563 	cmnvc	r3, #415236096	; 0x18c00000
  28:	2073726f 	rsbscs	r7, r3, pc, ror #4
  2c:	30322d39 	eorscc	r2, r2, r9, lsr sp
  30:	712d3931 			; <UNDEFINED> instruction: 0x712d3931
  34:	616d2d34 	cmnvs	sp, r4, lsr sp
  38:	29726f6a 	ldmdbcs	r2!, {r1, r3, r5, r6, r8, r9, sl, fp, sp, lr}^
  3c:	322e3920 	eorcc	r3, lr, #32, 18	; 0x80000
  40:	3220312e 	eorcc	r3, r0, #-2147483637	; 0x8000000b
  44:	31393130 	teqcc	r9, r0, lsr r1
  48:	20353230 	eorscs	r3, r5, r0, lsr r2
  4c:	6c657228 	sfmvs	f7, 2, [r5], #-160	; 0xffffff60
  50:	65736165 	ldrbvs	r6, [r3, #-357]!	; 0xfffffe9b
  54:	415b2029 	cmpmi	fp, r9, lsr #32
  58:	612f4d52 			; <UNDEFINED> instruction: 0x612f4d52
  5c:	392d6d72 	pushcc	{r1, r4, r5, r6, r8, sl, fp, sp, lr}
  60:	6172622d 	cmnvs	r2, sp, lsr #4
  64:	2068636e 	rsbcs	r6, r8, lr, ror #6
  68:	69766572 	ldmdbvs	r6!, {r1, r4, r5, r6, r8, sl, sp, lr}^
  6c:	6e6f6973 			; <UNDEFINED> instruction: 0x6e6f6973
  70:	37373220 	ldrcc	r3, [r7, -r0, lsr #4]!
  74:	5d393935 			; <UNDEFINED> instruction: 0x5d393935
  78:	43434700 	movtmi	r4, #14080	; 0x3700
  7c:	4728203a 			; <UNDEFINED> instruction: 0x4728203a
  80:	4120554e 			; <UNDEFINED> instruction: 0x4120554e
  84:	45206d72 	strmi	r6, [r0, #-3442]!	; 0xfffff28e
  88:	6465626d 	strbtvs	r6, [r5], #-621	; 0xfffffd93
  8c:	20646564 	rsbcs	r6, r4, r4, ror #10
  90:	6c6f6f54 	stclvs	15, cr6, [pc], #-336	; ffffff48 <__bss_end__+0xffff6500>
  94:	69616863 	stmdbvs	r1!, {r0, r1, r5, r6, fp, sp, lr}^
  98:	3031206e 	eorscc	r2, r1, lr, rrx
  9c:	322d332e 	eorcc	r3, sp, #-1207959552	; 0xb8000000
  a0:	2e313230 	mrccs	2, 1, r3, cr1, cr0, {1}
  a4:	20293031 	eorcs	r3, r9, r1, lsr r0
  a8:	332e3031 			; <UNDEFINED> instruction: 0x332e3031
  ac:	3220312e 	eorcc	r3, r0, #-2147483637	; 0x8000000b
  b0:	30313230 	eorscc	r3, r1, r0, lsr r2
  b4:	20343238 	eorscs	r3, r4, r8, lsr r2
  b8:	6c657228 	sfmvs	f7, 2, [r5], #-160	; 0xffffff60
  bc:	65736165 	ldrbvs	r6, [r3, #-357]!	; 0xfffffe9b
  c0:	43470029 	movtmi	r0, #28713	; 0x7029
  c4:	28203a43 	stmdacs	r0!, {r0, r1, r6, r9, fp, ip, sp}
  c8:	20554e47 	subscs	r4, r5, r7, asr #28
  cc:	6c6f6f54 	stclvs	15, cr6, [pc], #-336	; ffffff84 <__bss_end__+0xffff653c>
  d0:	69616863 	stmdbvs	r1!, {r0, r1, r5, r6, fp, sp, lr}^
  d4:	6f66206e 	svcvs	0x0066206e
  d8:	68742072 	ldmdavs	r4!, {r1, r4, r5, r6, sp}^
  dc:	72412065 	subvc	r2, r1, #101, 0	; 0x65
  e0:	7241206d 	subvc	r2, r1, #109, 0	; 0x6d
  e4:	74696863 	strbtvc	r6, [r9], #-2147	; 0xfffff79d
  e8:	75746365 	ldrbvc	r6, [r4, #-869]!	; 0xfffffc9b
  ec:	31206572 			; <UNDEFINED> instruction: 0x31206572
  f0:	2d322e31 	ldccs	14, cr2, [r2, #-196]!	; 0xffffff3c
  f4:	32323032 	eorscc	r3, r2, #50, 0	; 0x32
  f8:	2032302e 	eorscs	r3, r2, lr, lsr #32
  fc:	6d726128 	ldfvse	f6, [r2, #-160]!	; 0xffffff60
 100:	2e31312d 	rsfcssp	f3, f1, #5.0
 104:	29293431 	stmdbcs	r9!, {r0, r4, r5, sl, ip, sp}
 108:	2e313120 	rsfcssp	f3, f1, f0
 10c:	20312e32 	eorscs	r2, r1, r2, lsr lr
 110:	32323032 	eorscc	r3, r2, #50, 0	; 0x32
 114:	31313130 	teqcc	r1, r0, lsr r1
	...

Disassembly of section .debug_info:

00000000 <.debug_info>:
       0:	000003b3 			; <UNDEFINED> instruction: 0x000003b3
       4:	00000004 	andeq	r0, r0, r4
       8:	01040000 	mrseq	r0, (UNDEF: 4)
       c:	00000082 	andeq	r0, r0, r2, lsl #1
      10:	0001830c 	andeq	r8, r1, ip, lsl #6
      14:	00000000 	andeq	r0, r0, r0
      18:	00804000 	addeq	r4, r0, r0
      1c:	00012c00 	andeq	r2, r1, r0, lsl #24
      20:	00000000 	andeq	r0, r0, r0
      24:	05040200 	streq	r0, [r4, #-512]	; 0xfffffe00
      28:	00746e69 	rsbseq	r6, r4, r9, ror #28
      2c:	53070403 	movwpl	r0, #29699	; 0x7403
      30:	03000001 	movweq	r0, #1
      34:	004a0601 	subeq	r0, sl, r1, lsl #12
      38:	02030000 	andeq	r0, r3, #0, 0
      3c:	00019205 	andeq	r9, r1, r5, lsl #4
      40:	05040300 	streq	r0, [r4, #-768]	; 0xfffffd00
      44:	0000016e 	andeq	r0, r0, lr, ror #2
      48:	69050803 	stmdbvs	r5, {r0, r1, fp}
      4c:	03000001 	movweq	r0, #1
      50:	00480801 	subeq	r0, r8, r1, lsl #16
      54:	02030000 	andeq	r0, r3, #0, 0
      58:	00006307 	andeq	r6, r0, r7, lsl #6
      5c:	07040300 	streq	r0, [r4, -r0, lsl #6]
      60:	0000014e 	andeq	r0, r0, lr, asr #2
      64:	49070803 	stmdbmi	r7, {r0, r1, fp}
      68:	04000001 	streq	r0, [r0], #-1
      6c:	00000025 	andeq	r0, r0, r5, lsr #32
      70:	0000007a 	andeq	r0, r0, sl, ror r0
      74:	00002505 	andeq	r2, r0, r5, lsl #10
      78:	77060000 	strvc	r0, [r6, -r0]
      7c:	02000001 	andeq	r0, r0, #1, 0
      80:	00860e1c 	addeq	r0, r6, ip, lsl lr
      84:	04070000 	streq	r0, [r7], #-0
      88:	0000006b 	andeq	r0, r0, fp, rrx
      8c:	00002504 	andeq	r2, r0, r4, lsl #10
      90:	00009b00 	andeq	r9, r0, r0, lsl #22
      94:	009b0500 	addseq	r0, fp, r0, lsl #10
      98:	07000000 	streq	r0, [r0, -r0]
      9c:	0000a804 	andeq	sl, r0, r4, lsl #16
      a0:	08010300 	stmdaeq	r1, {r8, r9}
      a4:	00000051 	andeq	r0, r0, r1, asr r0
      a8:	0000a108 	andeq	sl, r0, r8, lsl #2
      ac:	03110600 	tsteq	r1, #0, 12
      b0:	21020000 	mrscs	r0, (UNDEF: 2)
      b4:	0000b90e 	andeq	fp, r0, lr, lsl #18
      b8:	8c040700 	stchi	7, cr0, [r4], {-0}
      bc:	09000000 	stmdbeq	r0, {}	; <UNPREDICTABLE>
      c0:	00000076 	andeq	r0, r0, r6, ror r0
      c4:	40062401 	andmi	r2, r6, r1, lsl #8
      c8:	b0000080 	andlt	r0, r0, r0, lsl #1
      cc:	01000000 	mrseq	r0, (UNDEF: 0)
      d0:	00023c9c 	muleq	r2, ip, ip
      d4:	00620a00 	rsbeq	r0, r2, r0, lsl #20
      d8:	2c0e2501 	cfstr32cs	mvfx2, [lr], {1}
      dc:	08000000 	stmdaeq	r0, {}	; <UNPREDICTABLE>
      e0:	00000000 	andeq	r0, r0, r0
      e4:	0a000000 	beq	ec <__code_start__-0x7f14>
      e8:	25010065 	strcs	r0, [r1, #-101]	; 0xffffff9b
      ec:	00002c10 	andeq	r2, r0, r0, lsl ip
      f0:	00004000 	andeq	r4, r0, r0
      f4:	00003c00 	andeq	r3, r0, r0, lsl #24
      f8:	01600b00 	cmneq	r0, r0, lsl #22
      fc:	25010000 	strcs	r0, [r1, #-0]
     100:	00002c13 	andeq	r2, r0, r3, lsl ip
     104:	00006600 	andeq	r6, r0, r0, lsl #12
     108:	00005e00 	andeq	r5, r0, r0, lsl #28
     10c:	01370c00 	teqeq	r7, r0, lsl #24
     110:	024c0000 	subeq	r0, ip, #0, 0
     114:	03050000 	movweq	r0, #20480	; 0x5000
     118:	000094a8 	andeq	r9, r0, r8, lsr #9
     11c:	0080500d 	addeq	r5, r0, sp
     120:	00000400 	andeq	r0, r0, r0, lsl #8
     124:	00013e00 	andeq	r3, r1, r0, lsl #28
     128:	01440b00 	cmpeq	r4, r0, lsl #22
     12c:	2b010000 	blcs	40134 <__bss_end__+0x366ec>
     130:	00002c09 	andeq	r2, r0, r9, lsl #24
     134:	00009e00 	andeq	r9, r0, r0, lsl #28
     138:	00009a00 	andeq	r9, r0, r0, lsl #20
     13c:	540d0000 	strpl	r0, [sp], #-0
     140:	04000080 	streq	r0, [r0], #-128	; 0xffffff80
     144:	60000000 	andvs	r0, r0, r0
     148:	0b000001 	bleq	154 <__code_start__-0x7eac>
     14c:	00000144 	andeq	r0, r0, r4, asr #2
     150:	2c092c01 	stccs	12, cr2, [r9], {1}
     154:	be000000 	cdplt	0, 0, cr0, cr0, cr0, {0}
     158:	bc000000 	stclt	0, cr0, [r0], {-0}
     15c:	00000000 	andeq	r0, r0, r0
     160:	00807c0d 	addeq	r7, r0, sp, lsl #24
     164:	00000400 	andeq	r0, r0, r0, lsl #8
     168:	00018200 	andeq	r8, r1, r0, lsl #4
     16c:	01440b00 	cmpeq	r4, r0, lsl #22
     170:	38010000 	stmdacc	r1, {}	; <UNPREDICTABLE>
     174:	00002c09 	andeq	r2, r0, r9, lsl #24
     178:	0000d500 	andeq	sp, r0, r0, lsl #10
     17c:	0000d100 	andeq	sp, r0, r0, lsl #2
     180:	800d0000 	andhi	r0, sp, r0
     184:	04000080 	streq	r0, [r0], #-128	; 0xffffff80
     188:	a4000000 	strge	r0, [r0], #-0
     18c:	0b000001 	bleq	198 <__code_start__-0x7e68>
     190:	00000144 	andeq	r0, r0, r4, asr #2
     194:	2c093901 			; <UNDEFINED> instruction: 0x2c093901
     198:	f5000000 			; <UNDEFINED> instruction: 0xf5000000
     19c:	f3000000 	vhadd.u8	d0, d0, d0
     1a0:	00000000 	andeq	r0, r0, r0
     1a4:	00806c0e 	addeq	r6, r0, lr, lsl #24
     1a8:	00038600 	andeq	r8, r3, r0, lsl #12
     1ac:	0001bb00 	andeq	fp, r1, r0, lsl #22
     1b0:	50010f00 	andpl	r0, r1, r0, lsl #30
     1b4:	93a00305 	movls	r0, #335544320	; 0x14000000
     1b8:	10000000 	andne	r0, r0, r0
     1bc:	000080a0 	andeq	r8, r0, r0, lsr #1
     1c0:	00000386 	andeq	r0, r0, r6, lsl #7
     1c4:	000001d2 	ldrdeq	r0, [r0], -r2
     1c8:	0550010f 	ldrbeq	r0, [r0, #-271]	; 0xfffffef1
     1cc:	0093d403 	addseq	sp, r3, r3, lsl #8
     1d0:	b0100000 	andslt	r0, r0, r0
     1d4:	86000080 	strhi	r0, [r0], -r0, lsl #1
     1d8:	e9000003 	stmdb	r0, {r0, r1}
     1dc:	0f000001 	svceq	0x00000001
     1e0:	03055001 	movweq	r5, #20481	; 0x5001
     1e4:	00009414 	andeq	r9, r0, r4, lsl r4
     1e8:	80b41100 	adcshi	r1, r4, r0, lsl #2
     1ec:	03920000 	orrseq	r0, r2, #0, 0
     1f0:	d00e0000 	andle	r0, lr, r0
     1f4:	86000080 	strhi	r0, [r0], -r0, lsl #1
     1f8:	32000003 	andcc	r0, r0, #3, 0
     1fc:	0f000002 	svceq	0x00000002
     200:	03055001 	movweq	r5, #20481	; 0x5001
     204:	00009350 	andeq	r9, r0, r0, asr r3
     208:	0551010f 	ldrbeq	r0, [r1, #-271]	; 0xfffffef1
     20c:	00934003 	addseq	r4, r3, r3
     210:	52010f00 	andpl	r0, r1, #0, 30
     214:	94a80305 	strtls	r0, [r8], #773	; 0x305
     218:	010f0000 	mrseq	r0, CPSR
     21c:	2f080253 	svccs	0x00080253
     220:	007d020f 	rsbseq	r0, sp, pc, lsl #4
     224:	93900305 	orrsls	r0, r0, #335544320	; 0x14000000
     228:	020f0000 	andeq	r0, pc, #0, 0
     22c:	7402047d 	strvc	r0, [r2], #-1149	; 0xfffffb83
     230:	d4110000 	ldrle	r0, [r1], #-0
     234:	9e000080 	cdpls	0, 0, cr0, cr0, cr0, {4}
     238:	00000003 	andeq	r0, r0, r3
     23c:	0000a812 	andeq	sl, r0, r2, lsl r8
     240:	00024c00 	andeq	r4, r2, r0, lsl #24
     244:	002c1300 	eoreq	r1, ip, r0, lsl #6
     248:	000b0000 	andeq	r0, fp, r0
     24c:	00023c08 	andeq	r3, r2, r8, lsl #24
     250:	00400900 	subeq	r0, r0, r0, lsl #18
     254:	12010000 	andne	r0, r1, #0, 0
     258:	0080f006 	addeq	pc, r0, r6
     25c:	00007c00 	andeq	r7, r0, r0, lsl #24
     260:	869c0100 	ldrhi	r0, [ip], r0, lsl #2
     264:	14000003 	strne	r0, [r0], #-3
     268:	00000038 	andeq	r0, r0, r8, lsr r0
     26c:	2c0e1301 	stccs	3, cr1, [lr], {1}
     270:	03000000 	movweq	r0, #0
     274:	00000015 	andeq	r0, r0, r5, lsl r0
     278:	0002e700 	andeq	lr, r2, r0, lsl #14
     27c:	00690a00 	rsbeq	r0, r9, r0, lsl #20
     280:	2c121501 	cfldr32cs	mvfx1, [r2], {1}
     284:	10000000 	andne	r0, r0, r0
     288:	08000001 	stmdaeq	r0, {r0}
     28c:	0e000001 	cdpeq	0, 0, cr0, cr0, cr1, {0}
     290:	00008104 	andeq	r8, r0, r4, lsl #2
     294:	00000386 	andeq	r0, r0, r6, lsl #7
     298:	000002a3 	andeq	r0, r0, r3, lsr #5
     29c:	0250010f 	subseq	r0, r0, #-1073741821	; 0xc0000003
     2a0:	11000075 	tstne	r0, r5, ror r0
     2a4:	00008108 	andeq	r8, r0, r8, lsl #2
     2a8:	000000bf 	strheq	r0, [r0], -pc	; <UNPREDICTABLE>
     2ac:	0081100e 	addeq	r1, r1, lr
     2b0:	00038600 	andeq	r8, r3, r0, lsl #12
     2b4:	0002c000 	andeq	ip, r2, r0
     2b8:	50010f00 	andpl	r0, r1, r0, lsl #30
     2bc:	00007502 	andeq	r7, r0, r2, lsl #10
     2c0:	00811411 	addeq	r1, r1, r1, lsl r4
     2c4:	0000bf00 	andeq	fp, r0, r0, lsl #30
     2c8:	811c0e00 	tsthi	ip, r0, lsl #28
     2cc:	03860000 	orreq	r0, r6, #0, 0
     2d0:	02dd0000 	sbcseq	r0, sp, #0, 0
     2d4:	010f0000 	mrseq	r0, CPSR
     2d8:	00750250 	rsbseq	r0, r5, r0, asr r2
     2dc:	81201100 			; <UNDEFINED> instruction: 0x81201100
     2e0:	00bf0000 	adcseq	r0, pc, r0
     2e4:	15000000 	strne	r0, [r0, #-0]
     2e8:	00000020 	andeq	r0, r0, r0, lsr #32
     2ec:	00000369 	andeq	r0, r0, r9, ror #6
     2f0:	0100690a 	tsteq	r0, sl, lsl #18
     2f4:	002c121b 	eoreq	r1, ip, fp, lsl r2
     2f8:	01500000 	cmpeq	r0, r0
     2fc:	01480000 	mrseq	r0, (UNDEF: 72)
     300:	300e0000 	andcc	r0, lr, r0
     304:	86000081 	strhi	r0, [r0], -r1, lsl #1
     308:	1b000003 	blne	31c <__code_start__-0x7ce4>
     30c:	0f000003 	svceq	0x00000003
     310:	74025001 	strvc	r5, [r2], #-1
     314:	51010f00 	tstpl	r1, r0, lsl #30
     318:	11003001 	tstne	r0, r1
     31c:	00008134 	andeq	r8, r0, r4, lsr r1
     320:	000000bf 	strheq	r0, [r0], -pc	; <UNPREDICTABLE>
     324:	0081400e 	addeq	r4, r1, lr
     328:	00038600 	andeq	r8, r3, r0, lsl #12
     32c:	00033d00 	andeq	r3, r3, r0, lsl #26
     330:	50010f00 	andpl	r0, r1, r0, lsl #30
     334:	0f007402 	svceq	0x00007402
     338:	31015101 	tstcc	r1, r1, lsl #2
     33c:	81441100 	mrshi	r1, (UNDEF: 84)
     340:	00bf0000 	adcseq	r0, pc, r0
     344:	500e0000 	andpl	r0, lr, r0
     348:	86000081 	strhi	r0, [r0], -r1, lsl #1
     34c:	5f000003 	svcpl	0x00000003
     350:	0f000003 	svceq	0x00000003
     354:	74025001 	strvc	r5, [r2], #-1
     358:	51010f00 	tstpl	r1, r0, lsl #30
     35c:	11003201 	tstne	r0, r1, lsl #4
     360:	00008154 	andeq	r8, r0, r4, asr r1
     364:	000000bf 	strheq	r0, [r0], -pc	; <UNPREDICTABLE>
     368:	81241100 			; <UNDEFINED> instruction: 0x81241100
     36c:	03aa0000 			; <UNDEFINED> instruction: 0x03aa0000
     370:	60160000 	andsvs	r0, r6, r0
     374:	86000081 	strhi	r0, [r0], -r1, lsl #1
     378:	0f000003 	svceq	0x00000003
     37c:	03055001 	movweq	r5, #20481	; 0x5001
     380:	000094a0 	andeq	r9, r0, r0, lsr #9
     384:	c0170000 	andsgt	r0, r7, r0
     388:	c0000001 	andgt	r0, r0, r1
     38c:	02000001 	andeq	r0, r0, #1, 0
     390:	a9170628 	ldmdbge	r7, {r3, r5, r9, sl}
     394:	a9000001 	stmdbge	r0, {r0}
     398:	02000001 	andeq	r0, r0, #1, 0
     39c:	5617061d 			; <UNDEFINED> instruction: 0x5617061d
     3a0:	56000000 	strpl	r0, [r0], -r0
     3a4:	02000000 	andeq	r0, r0, #0, 0
     3a8:	9c17066e 	ldcls	6, cr0, [r7], {110}	; 0x6e
     3ac:	9c000001 	stcls	0, cr0, [r0], {1}
     3b0:	02000001 	andeq	r0, r0, #1, 0
     3b4:	9d0006a0 	stcls	6, cr0, [r0, #-640]	; 0xfffffd80
     3b8:	04000001 	streq	r0, [r0], #-1
     3bc:	00013c00 	andeq	r3, r1, r0, lsl #24
     3c0:	d6010400 	strle	r0, [r1], -r0, lsl #8
     3c4:	0c000001 	stceq	0, cr0, [r0], {1}
     3c8:	00000293 	muleq	r0, r3, r2
     3cc:	000002ad 	andeq	r0, r0, sp, lsr #5
     3d0:	0000816c 	andeq	r8, r0, ip, ror #2
     3d4:	00000058 	andeq	r0, r0, r8, asr r0
     3d8:	000001ad 	andeq	r0, r0, sp, lsr #3
     3dc:	0001c702 	andeq	ip, r1, r2, lsl #14
     3e0:	1b280200 	blne	a00be8 <__bss_end__+0x9f71a0>
     3e4:	00000031 	andeq	r0, r0, r1, lsr r0
     3e8:	0002a303 	andeq	sl, r2, r3, lsl #6
     3ec:	00040400 	andeq	r0, r4, r0, lsl #8
     3f0:	00000048 	andeq	r0, r0, r8, asr #32
     3f4:	00028e04 	andeq	r8, r2, r4, lsl #28
     3f8:	00004800 	andeq	r4, r0, r0, lsl #16
     3fc:	05000000 	streq	r0, [r0, #-0]
     400:	02a50204 	adceq	r0, r5, #4, 4	; 0x40000000
     404:	63020000 	movwvs	r0, #8192	; 0x2000
     408:	00002518 	andeq	r2, r0, r8, lsl r5
     40c:	05040600 	streq	r0, [r4, #-1536]	; 0xfffffa00
     410:	00746e69 	rsbseq	r6, r4, r9, ror #28
     414:	53070407 	movwpl	r0, #29703	; 0x7407
     418:	07000001 	streq	r0, [r0, -r1]
     41c:	004a0601 	subeq	r0, sl, r1, lsl #12
     420:	02070000 	andeq	r0, r7, #0, 0
     424:	00019205 	andeq	r9, r1, r5, lsl #4
     428:	05040700 	streq	r0, [r4, #-1792]	; 0xfffff900
     42c:	0000016e 	andeq	r0, r0, lr, ror #2
     430:	69050807 	stmdbvs	r5, {r0, r1, r2, fp}
     434:	07000001 	streq	r0, [r0, -r1]
     438:	00480801 	subeq	r0, r8, r1, lsl #16
     43c:	02070000 	andeq	r0, r7, #0, 0
     440:	00006307 	andeq	r6, r0, r7, lsl #6
     444:	07040700 	streq	r0, [r4, -r0, lsl #14]
     448:	0000014e 	andeq	r0, r0, lr, asr #2
     44c:	49070807 	stmdbmi	r7, {r0, r1, r2, fp}
     450:	08000001 	stmdaeq	r0, {r0}
     454:	00000056 	andeq	r0, r0, r6, asr r0
     458:	000000ab 	andeq	r0, r0, fp, lsr #1
     45c:	00005609 	andeq	r5, r0, r9, lsl #12
     460:	770a0000 	strvc	r0, [sl, -r0]
     464:	03000001 	movweq	r0, #1
     468:	00b70e1c 	adcseq	r0, r7, ip, lsl lr
     46c:	040b0000 	streq	r0, [fp], #-0
     470:	0000009c 	muleq	r0, ip, r0
     474:	00005608 	andeq	r5, r0, r8, lsl #12
     478:	0000cc00 	andeq	ip, r0, r0, lsl #24
     47c:	00cc0900 	sbceq	r0, ip, r0, lsl #18
     480:	0b000000 	bleq	488 <__code_start__-0x7b78>
     484:	0000d904 	andeq	sp, r0, r4, lsl #18
     488:	08010700 	stmdaeq	r1, {r8, r9, sl}
     48c:	00000051 	andeq	r0, r0, r1, asr r0
     490:	0000d20c 	andeq	sp, r0, ip, lsl #4
     494:	03110a00 	tsteq	r1, #0, 20
     498:	21030000 	mrscs	r0, (UNDEF: 3)
     49c:	0000ea0e 	andeq	lr, r0, lr, lsl #20
     4a0:	bd040b00 	vstrlt	d0, [r4, #-0]
     4a4:	0d000000 	stceq	0, cr0, [r0, #-0]
     4a8:	000001c0 	andeq	r0, r0, r0, asr #3
     4ac:	56050601 	strpl	r0, [r5], -r1, lsl #12
     4b0:	6c000000 	stcvs	0, cr0, [r0], {-0}
     4b4:	58000081 	stmdapl	r0, {r0, r7}
     4b8:	01000000 	mrseq	r0, (UNDEF: 0)
     4bc:	0001839c 	muleq	r1, ip, r3
     4c0:	6d660e00 	stclvs	14, cr0, [r6, #-0]
     4c4:	06010074 			; <UNDEFINED> instruction: 0x06010074
     4c8:	0000cc18 	andeq	ip, r0, r8, lsl ip
     4cc:	70910200 	addsvc	r0, r1, r0, lsl #4
     4d0:	7562100f 	strbvc	r1, [r2, #-15]!
     4d4:	08010066 	stmdaeq	r1, {r1, r2, r5, r6}
     4d8:	00018311 	andeq	r8, r1, r1, lsl r3
     4dc:	44030500 	strmi	r0, [r3], #-1280	; 0xfffffb00
     4e0:	11000096 	swpne	r0, r6, [r0]	; <UNPREDICTABLE>
     4e4:	000001b8 			; <UNDEFINED> instruction: 0x000001b8
     4e8:	4a0d0901 	bmi	3428f4 <__bss_end__+0x338eac>
     4ec:	02000000 	andeq	r0, r0, #0, 0
     4f0:	73125c91 	tstvc	r2, #37120	; 0x9100
     4f4:	0c01007a 	stceq	0, cr0, [r1], {122}	; 0x7a
     4f8:	0000560d 	andeq	r5, r0, sp, lsl #12
     4fc:	00018e00 	andeq	r8, r1, r0, lsl #28
     500:	00018800 	andeq	r8, r1, r0, lsl #16
     504:	81941300 	orrshi	r1, r4, r0, lsl #6
     508:	01940000 	orrseq	r0, r4, r0
     50c:	01760000 	cmneq	r6, r0
     510:	01140000 	tsteq	r4, r0
     514:	00750250 	rsbseq	r0, r5, r0, asr r2
     518:	03510114 	cmpeq	r1, #5
     51c:	1404000a 	strne	r0, [r4], #-10
     520:	91035201 	tstls	r3, r1, lsl #4
     524:	01140648 	tsteq	r4, r8, asr #12
     528:	4c910253 	lfmmi	f0, 4, [r1], {83}	; 0x53
     52c:	81a81500 			; <UNDEFINED> instruction: 0x81a81500
     530:	01140000 	tsteq	r4, r0
     534:	00750250 	rsbseq	r0, r5, r0, asr r2
     538:	d2160000 	andsle	r0, r6, #0, 0
     53c:	94000000 	strls	r0, [r0], #-0
     540:	17000001 	strne	r0, [r0, -r1]
     544:	0000005d 	andeq	r0, r0, sp, asr r0
     548:	180003ff 	stmdane	r0, {r0, r1, r2, r3, r4, r5, r6, r7, r8, r9}
     54c:	000001bd 			; <UNDEFINED> instruction: 0x000001bd
     550:	000001bd 			; <UNDEFINED> instruction: 0x000001bd
     554:	00050205 	andeq	r0, r5, r5, lsl #4
     558:	00000149 	andeq	r0, r0, r9, asr #2
     55c:	027e0004 	rsbseq	r0, lr, #4, 0
     560:	01040000 	mrseq	r0, (UNDEF: 4)
     564:	000001d6 	ldrdeq	r0, [r0], -r6
     568:	0002ed0c 	andeq	lr, r2, ip, lsl #26
     56c:	0002ad00 	andeq	sl, r2, r0, lsl #26
     570:	0081c400 	addeq	ip, r1, r0, lsl #8
     574:	00003c00 	andeq	r3, r0, r0, lsl #24
     578:	0002d100 	andeq	sp, r2, r0, lsl #2
     57c:	05040200 	streq	r0, [r4, #-512]	; 0xfffffe00
     580:	00746e69 	rsbseq	r6, r4, r9, ror #28
     584:	53070403 	movwpl	r0, #29699	; 0x7403
     588:	03000001 	movweq	r0, #1
     58c:	004a0601 	subeq	r0, sl, r1, lsl #12
     590:	02030000 	andeq	r0, r3, #0, 0
     594:	00019205 	andeq	r9, r1, r5, lsl #4
     598:	05040300 	streq	r0, [r4, #-768]	; 0xfffffd00
     59c:	0000016e 	andeq	r0, r0, lr, ror #2
     5a0:	69050803 	stmdbvs	r5, {r0, r1, fp}
     5a4:	03000001 	movweq	r0, #1
     5a8:	00480801 	subeq	r0, r8, r1, lsl #16
     5ac:	02030000 	andeq	r0, r3, #0, 0
     5b0:	00006307 	andeq	r6, r0, r7, lsl #6
     5b4:	07040300 	streq	r0, [r4, -r0, lsl #6]
     5b8:	0000014e 	andeq	r0, r0, lr, asr #2
     5bc:	49070803 	stmdbmi	r7, {r0, r1, fp}
     5c0:	04000001 	streq	r0, [r0], #-1
     5c4:	00000025 	andeq	r0, r0, r5, lsr #32
     5c8:	0000007a 	andeq	r0, r0, sl, ror r0
     5cc:	00002505 	andeq	r2, r0, r5, lsl #10
     5d0:	77060000 	strvc	r0, [r6, -r0]
     5d4:	02000001 	andeq	r0, r0, #1, 0
     5d8:	00860e1c 	addeq	r0, r6, ip, lsl lr
     5dc:	04070000 	streq	r0, [r7], #-0
     5e0:	0000006b 	andeq	r0, r0, fp, rrx
     5e4:	00002504 	andeq	r2, r0, r4, lsl #10
     5e8:	00009b00 	andeq	r9, r0, r0, lsl #22
     5ec:	009b0500 	addseq	r0, fp, r0, lsl #10
     5f0:	07000000 	streq	r0, [r0, -r0]
     5f4:	0000a804 	andeq	sl, r0, r4, lsl #16
     5f8:	08010300 	stmdaeq	r1, {r8, r9}
     5fc:	00000051 	andeq	r0, r0, r1, asr r0
     600:	0000a108 	andeq	sl, r0, r8, lsl #2
     604:	03110600 	tsteq	r1, #0, 12
     608:	21020000 	mrscs	r0, (UNDEF: 2)
     60c:	0000b90e 	andeq	fp, r0, lr, lsl #18
     610:	8c040700 	stchi	7, cr0, [r4], {-0}
     614:	09000000 	stmdbeq	r0, {}	; <UNPREDICTABLE>
     618:	0000007a 	andeq	r0, r0, sl, ror r0
     61c:	05070601 	streq	r0, [r7, #-1537]	; 0xfffff9ff
     620:	00963c03 	addseq	r3, r6, r3, lsl #24
     624:	02e00a00 	rsceq	r0, r0, #0, 20
     628:	0b010000 	bleq	40630 <__bss_end__+0x36be8>
     62c:	0081f006 	addeq	pc, r1, r6
     630:	00001000 	andeq	r1, r0, r0
     634:	f19c0100 			; <UNDEFINED> instruction: 0xf19c0100
     638:	0b000000 	bleq	640 <__code_start__-0x79c0>
     63c:	01007066 	tsteq	r0, r6, rrx
     640:	0086190b 	addeq	r1, r6, fp, lsl #18
     644:	50010000 	andpl	r0, r1, r0
     648:	01a90c00 			; <UNDEFINED> instruction: 0x01a90c00
     64c:	08010000 	stmdaeq	r1, {}	; <UNPREDICTABLE>
     650:	0081d806 	addeq	sp, r1, r6, lsl #16
     654:	00001800 	andeq	r1, r0, r0, lsl #16
     658:	0d9c0100 	ldfeqs	f0, [ip]
     65c:	000002cf 	andeq	r0, r0, pc, asr #5
     660:	250c0301 	strcs	r0, [ip, #-769]	; 0xfffffcff
     664:	c4000000 	strgt	r0, [r0], #-0
     668:	14000081 	strne	r0, [r0], #-129	; 0xffffff7f
     66c:	01000000 	mrseq	r0, (UNDEF: 0)
     670:	0001409c 	muleq	r1, ip, r0
     674:	00630e00 	rsbeq	r0, r3, r0, lsl #28
     678:	25210301 	strcs	r0, [r1, #-769]!	; 0xfffffcff
     67c:	bb000000 	bllt	684 <__code_start__-0x797c>
     680:	b7000001 	strlt	r0, [r0, -r1]
     684:	0f000001 	svceq	0x00000001
     688:	000081d0 	ldrdeq	r8, [r0], -r0
     68c:	00000140 	andeq	r0, r0, r0, asr #2
     690:	02500110 	subseq	r0, r0, #4
     694:	00000074 	andeq	r0, r0, r4, ror r0
     698:	0002fe11 	andeq	pc, r2, r1, lsl lr	; <UNPREDICTABLE>
     69c:	0002fe00 	andeq	pc, r2, r0, lsl #28
     6a0:	06420200 	strbeq	r0, [r2], -r0, lsl #4
     6a4:	0000f300 	andeq	pc, r0, r0, lsl #6
     6a8:	8d000400 	cfstrshi	mvf0, [r0, #-0]
     6ac:	04000003 	streq	r0, [r0], #-3
     6b0:	0001d601 	andeq	sp, r1, r1, lsl #12
     6b4:	03160c00 	tsteq	r6, #0, 24
     6b8:	02ad0000 	adceq	r0, sp, #0, 0
     6bc:	82000000 	andhi	r0, r0, #0, 0
     6c0:	00380000 	eorseq	r0, r8, r0
     6c4:	03730000 	cmneq	r3, #0, 0
     6c8:	04020000 	streq	r0, [r2], #-0
     6cc:	746e6905 	strbtvc	r6, [lr], #-2309	; 0xfffff6fb
     6d0:	07040300 	streq	r0, [r4, -r0, lsl #6]
     6d4:	00000153 	andeq	r0, r0, r3, asr r1
     6d8:	4a060103 	bmi	180aec <__bss_end__+0x1770a4>
     6dc:	03000000 	movweq	r0, #0
     6e0:	01920502 	orrseq	r0, r2, r2, lsl #10
     6e4:	04030000 	streq	r0, [r3], #-0
     6e8:	00016e05 	andeq	r6, r1, r5, lsl #28
     6ec:	05080300 	streq	r0, [r8, #-768]	; 0xfffffd00
     6f0:	00000169 	andeq	r0, r0, r9, ror #2
     6f4:	48080103 	stmdami	r8, {r0, r1, r8}
     6f8:	03000000 	movweq	r0, #0
     6fc:	00630702 	rsbeq	r0, r3, r2, lsl #14
     700:	04030000 	streq	r0, [r3], #-0
     704:	00014e07 	andeq	r4, r1, r7, lsl #28
     708:	07080300 	streq	r0, [r8, -r0, lsl #6]
     70c:	00000149 	andeq	r0, r0, r9, asr #2
     710:	00002504 	andeq	r2, r0, r4, lsl #10
     714:	00007a00 	andeq	r7, r0, r0, lsl #20
     718:	00250500 	eoreq	r0, r5, r0, lsl #10
     71c:	06000000 	streq	r0, [r0], -r0
     720:	00000177 	andeq	r0, r0, r7, ror r1
     724:	860e1c02 	strhi	r1, [lr], -r2, lsl #24
     728:	07000000 	streq	r0, [r0, -r0]
     72c:	00006b04 	andeq	r6, r0, r4, lsl #22
     730:	00250400 	eoreq	r0, r5, r0, lsl #8
     734:	009b0000 	addseq	r0, fp, r0
     738:	9b050000 	blls	140740 <__bss_end__+0x136cf8>
     73c:	00000000 	andeq	r0, r0, r0
     740:	00a80407 	adceq	r0, r8, r7, lsl #8
     744:	01030000 	mrseq	r0, (UNDEF: 3)
     748:	00005108 	andeq	r5, r0, r8, lsl #2
     74c:	00a10800 	adceq	r0, r1, r0, lsl #16
     750:	11060000 	mrsne	r0, (UNDEF: 6)
     754:	02000003 	andeq	r0, r0, #3, 0
     758:	00b90e21 	adcseq	r0, r9, r1, lsr #28
     75c:	04070000 	streq	r0, [r7], #-0
     760:	0000008c 	andeq	r0, r0, ip, lsl #1
     764:	0000ad09 	andeq	sl, r0, r9, lsl #26
     768:	070c0100 	streq	r0, [ip, -r0, lsl #2]
     76c:	96400305 	strbls	r0, [r0], -r5, lsl #6
     770:	080a0000 	stmdaeq	sl, {}	; <UNPREDICTABLE>
     774:	01000003 	tsteq	r0, r3
     778:	00250504 	eoreq	r0, r5, r4, lsl #10
     77c:	82000000 	andhi	r0, r0, #0, 0
     780:	00380000 	eorseq	r0, r8, r0
     784:	9c010000 	stcls	0, cr0, [r1], {-0}
     788:	0100700b 	tsteq	r0, fp
     78c:	009b1f04 	addseq	r1, fp, r4, lsl #30
     790:	01e10000 	mvneq	r0, r0
     794:	01d90000 	bicseq	r0, r9, r0
     798:	00000000 	andeq	r0, r0, r0
     79c:	00000c7f 	andeq	r0, r0, pc, ror ip
     7a0:	042b0004 	strteq	r0, [fp], #-4
     7a4:	01040000 	mrseq	r0, (UNDEF: 4)
     7a8:	000001d6 	ldrdeq	r0, [r0], -r6
     7ac:	0003350c 	andeq	r3, r3, ip, lsl #10
     7b0:	0002ad00 	andeq	sl, r2, r0, lsl #26
     7b4:	00823800 	addeq	r3, r2, r0, lsl #16
     7b8:	0009b400 	andeq	fp, r9, r0, lsl #8
     7bc:	00041700 	andeq	r1, r4, r0, lsl #14
     7c0:	07080200 	streq	r0, [r8, -r0, lsl #4]
     7c4:	00000149 	andeq	r0, r0, r9, asr #2
     7c8:	53070402 	movwpl	r0, #29698	; 0x7402
     7cc:	03000001 	movweq	r0, #1
     7d0:	6e690504 	cdpvs	5, 6, cr0, cr9, cr4, {0}
     7d4:	01020074 	tsteq	r2, r4, ror r0
     7d8:	00004a06 	andeq	r4, r0, r6, lsl #20
     7dc:	05020200 	streq	r0, [r2, #-512]	; 0xfffffe00
     7e0:	00000192 	muleq	r0, r2, r1
     7e4:	6e050402 	cdpvs	4, 0, cr0, cr5, cr2, {0}
     7e8:	02000001 	andeq	r0, r0, #1, 0
     7ec:	01690508 	cmneq	r9, r8, lsl #10
     7f0:	01020000 	mrseq	r0, (UNDEF: 2)
     7f4:	00004808 	andeq	r4, r0, r8, lsl #16
     7f8:	07020200 	streq	r0, [r2, -r0, lsl #4]
     7fc:	00000063 	andeq	r0, r0, r3, rrx
     800:	00039b04 	andeq	r9, r3, r4, lsl #22
     804:	19340200 	ldmdbne	r4!, {r9}
     808:	00000070 	andeq	r0, r0, r0, ror r0
     80c:	4e070402 	cdpmi	4, 0, cr0, cr7, cr2, {0}
     810:	04000001 	streq	r0, [r0], #-1
     814:	0000032c 	andeq	r0, r0, ip, lsr #6
     818:	25193702 	ldrcs	r3, [r9, #-1794]	; 0xfffff8fe
     81c:	05000000 	streq	r0, [r0, #-0]
     820:	00000033 	andeq	r0, r0, r3, lsr r0
     824:	00000092 	muleq	r0, r2, r0
     828:	00003306 	andeq	r3, r0, r6, lsl #6
     82c:	77070000 	strvc	r0, [r7, -r0]
     830:	03000001 	movweq	r0, #1
     834:	009e0e1c 	addseq	r0, lr, ip, lsl lr
     838:	04080000 	streq	r0, [r8], #-0
     83c:	00000083 	andeq	r0, r0, r3, lsl #1
     840:	00003305 	andeq	r3, r0, r5, lsl #6
     844:	0000b300 	andeq	fp, r0, r0, lsl #6
     848:	00b30600 	adcseq	r0, r3, r0, lsl #12
     84c:	08000000 	stmdaeq	r0, {}	; <UNPREDICTABLE>
     850:	0000c004 	andeq	ip, r0, r4
     854:	08010200 	stmdaeq	r1, {r9}
     858:	00000051 	andeq	r0, r0, r1, asr r0
     85c:	0000b909 	andeq	fp, r0, r9, lsl #18
     860:	03110700 	tsteq	r1, #0, 14
     864:	21030000 	mrscs	r0, (UNDEF: 3)
     868:	0000d10e 	andeq	sp, r0, lr, lsl #2
     86c:	a4040800 	strge	r0, [r4], #-2048	; 0xfffff800
     870:	07000000 	streq	r0, [r0, -r0]
     874:	00000348 	andeq	r0, r0, r8, asr #6
     878:	b90d0b04 	stmdblt	sp, {r2, r8, r9, fp}
     87c:	07000000 	streq	r0, [r0, -r0]
     880:	000003d1 	ldrdeq	r0, [r0], -r1
     884:	b90d0c04 	stmdblt	sp, {r2, sl, fp}
     888:	07000000 	streq	r0, [r0, -r0]
     88c:	00000357 	andeq	r0, r0, r7, asr r3
     890:	b90d0d04 	stmdblt	sp, {r2, r8, sl, fp}
     894:	07000000 	streq	r0, [r0, -r0]
     898:	00000380 	andeq	r0, r0, r0, lsl #7
     89c:	b90d0e04 	stmdblt	sp, {r2, r9, sl, fp}
     8a0:	07000000 	streq	r0, [r0, -r0]
     8a4:	000003fa 	strdeq	r0, [r0], -sl
     8a8:	b90d0f04 	stmdblt	sp, {r2, r8, r9, sl, fp}
     8ac:	07000000 	streq	r0, [r0, -r0]
     8b0:	0000036b 	andeq	r0, r0, fp, ror #6
     8b4:	b90d1004 	stmdblt	sp, {r2, ip}
     8b8:	07000000 	streq	r0, [r0, -r0]
     8bc:	00000409 	andeq	r0, r0, r9, lsl #8
     8c0:	b90d1104 	stmdblt	sp, {r2, r8, ip}
     8c4:	07000000 	streq	r0, [r0, -r0]
     8c8:	0000038c 	andeq	r0, r0, ip, lsl #7
     8cc:	b90d1204 	stmdblt	sp, {r2, r9, ip}
     8d0:	04000000 	streq	r0, [r0], #-0
     8d4:	000001c7 	andeq	r0, r0, r7, asr #3
     8d8:	431b2805 	tstmi	fp, #327680	; 0x50000
     8dc:	0a000001 	beq	8e8 <__code_start__-0x7718>
     8e0:	000002a3 	andeq	r0, r0, r3, lsr #5
     8e4:	5a000604 	bpl	20fc <__code_start__-0x5f04>
     8e8:	0b000001 	bleq	8f4 <__code_start__-0x770c>
     8ec:	0000028e 	andeq	r0, r0, lr, lsl #5
     8f0:	0000015a 	andeq	r0, r0, sl, asr r1
     8f4:	040c0000 	streq	r0, [ip], #-0
     8f8:	0002a504 	andeq	sl, r2, r4, lsl #10
     8fc:	18630500 	stmdane	r3!, {r8, sl}^
     900:	00000137 	andeq	r0, r0, r7, lsr r1
     904:	0001bd0d 	andeq	fp, r1, sp, lsl #26
     908:	05810100 	streq	r0, [r1, #256]	; 0x100
     90c:	00000033 	andeq	r0, r0, r3, lsr r0
     910:	000085c0 	andeq	r8, r0, r0, asr #11
     914:	0000062c 	andeq	r0, r0, ip, lsr #12
     918:	086a9c01 	stmdaeq	sl!, {r0, sl, fp, ip, pc}^
     91c:	620e0000 	andvs	r0, lr, #0, 0
     920:	01006675 	tsteq	r0, r5, ror r6
     924:	086a1581 	stmdaeq	sl!, {r0, r7, r8, sl, ip}^
     928:	02210000 	eoreq	r0, r1, #0, 0
     92c:	02170000 	andseq	r0, r7, #0, 0
     930:	6e0e0000 	cdpvs	0, 0, cr0, cr14, cr0, {0}
     934:	1e810100 	rmfnes	f0, f1, f0
     938:	00000033 	andeq	r0, r0, r3, lsr r0
     93c:	0000026e 	andeq	r0, r0, lr, ror #4
     940:	00000266 	andeq	r0, r0, r6, ror #4
     944:	746d660e 	strbtvc	r6, [sp], #-1550	; 0xfffff9f2
     948:	2d810100 	stfcss	f0, [r1]
     94c:	000000b3 	strheq	r0, [r0], -r3
     950:	000002c0 	andeq	r0, r0, r0, asr #5
     954:	000002a8 	andeq	r0, r0, r8, lsr #5
     958:	0001b80f 	andeq	fp, r1, pc, lsl #16
     95c:	3a810100 	bcc	fe040d64 <__bss_end__+0xfe03731c>
     960:	0000015c 	andeq	r0, r0, ip, asr r1
     964:	00000384 	andeq	r0, r0, r4, lsl #7
     968:	00000354 	andeq	r0, r0, r4, asr r3
     96c:	01007010 	tsteq	r0, r0, lsl r0
     970:	086a0882 	stmdaeq	sl!, {r1, r7, fp}^
     974:	04e20000 	strbteq	r0, [r2], #0
     978:	04cc0000 	strbeq	r0, [ip], #0
     97c:	65100000 	ldrvs	r0, [r0, #-0]
     980:	12820100 	addne	r0, r2, #0
     984:	0000086a 	andeq	r0, r0, sl, ror #16
     988:	0000056b 	andeq	r0, r0, fp, ror #10
     98c:	00000569 	andeq	r0, r0, r9, ror #10
     990:	00307810 	eorseq	r7, r0, r0, lsl r8
     994:	640e8301 	strvs	r8, [lr], #-769	; 0xfffffcff
     998:	84000000 	strhi	r0, [r0], #-0
     99c:	7e000005 	cdpvc	0, 0, cr0, cr0, cr5, {0}
     9a0:	10000005 	andne	r0, r0, r5
     9a4:	01003178 	tsteq	r0, r8, ror r1
     9a8:	00641183 	rsbeq	r1, r4, r3, lsl #3
     9ac:	05b30000 	ldreq	r0, [r3, #0]!
     9b0:	05ad0000 	streq	r0, [sp, #0]!
     9b4:	b3110000 	tstlt	r1, #0, 0
     9b8:	01000003 	tsteq	r0, r3
     9bc:	00b31186 	adcseq	r1, r3, r6, lsl #3
     9c0:	05e40000 	strbeq	r0, [r4, #0]!
     9c4:	05dc0000 	ldrbeq	r0, [ip]
     9c8:	37120000 	ldrcc	r0, [r2, -r0]
     9cc:	80000001 	andhi	r0, r0, r1
     9d0:	05000008 	streq	r0, [r0, #-8]
     9d4:	00962403 	addseq	r2, r6, r3, lsl #8
     9d8:	00a01300 	adceq	r1, r0, r0, lsl #6
     9dc:	73100000 	tstvc	r0, #0, 0
     9e0:	0a910100 	beq	fe440de8 <__bss_end__+0xfe4373a0>
     9e4:	0000086a 	andeq	r0, r0, sl, ror #16
     9e8:	0000062a 	andeq	r0, r0, sl, lsr #12
     9ec:	0000061e 	andeq	r0, r0, lr, lsl r6
     9f0:	6d756e14 	ldclvs	14, cr6, [r5, #-80]!	; 0xffffffb0
     9f4:	0d910100 	ldfeqs	f0, [r1]
     9f8:	00000885 	andeq	r0, r0, r5, lsl #17
     9fc:	7dd89103 	ldfvcp	f1, [r8, #12]
     a00:	00041615 	andeq	r1, r4, r5, lsl r6
     a04:	17910100 	ldrne	r0, [r1, r0, lsl #2]
     a08:	00000885 	andeq	r0, r0, r5, lsl #17
     a0c:	7ed89103 	atnvce	f1, f3
     a10:	00036511 	andeq	r6, r3, r1, lsl r5
     a14:	0d920100 	ldfeqs	f0, [r2]
     a18:	0000002c 	andeq	r0, r0, ip, lsr #32
     a1c:	0000067c 	andeq	r0, r0, ip, ror r6
     a20:	00000674 	andeq	r0, r0, r4, ror r6
     a24:	0000c816 	andeq	ip, r0, r6, lsl r8
     a28:	0004f100 	andeq	pc, r4, r0, lsl #2
     a2c:	79741000 	ldmdbvc	r4!, {ip}^
     a30:	1d9e0100 	ldfnes	f0, [lr]
     a34:	000000b3 	strheq	r0, [r0], -r3
     a38:	000006bd 			; <UNDEFINED> instruction: 0x000006bd
     a3c:	000006b1 			; <UNDEFINED> instruction: 0x000006b1
     a40:	00787814 	rsbseq	r7, r8, r4, lsl r8
     a44:	771aa201 	ldrvc	sl, [sl, -r1, lsl #4]
     a48:	06000000 	streq	r0, [r0], -r0
     a4c:	5b049359 	blpl	1257b8 <__bss_end__+0x11bd70>
     a50:	4c170493 	cfldrsmi	mvf0, [r7], {147}	; 0x93
     a54:	3a000087 	bcc	c78 <__code_start__-0x7388>
     a58:	d800000c 	stmdale	r0, {r2, r3}
     a5c:	18000002 	stmdane	r0, {r1}
     a60:	76025001 	strvc	r5, [r2], -r1
     a64:	51011800 	tstpl	r1, r0, lsl #16
     a68:	95180305 	ldrls	r0, [r8, #-773]	; 0xfffffcfb
     a6c:	01180000 	tsteq	r8, r0
     a70:	00330152 	eorseq	r0, r3, r2, asr r1
     a74:	00876417 	addeq	r6, r7, r7, lsl r4
     a78:	000c3a00 	andeq	r3, ip, r0, lsl #20
     a7c:	0002fa00 	andeq	pc, r2, r0, lsl #20
     a80:	50011800 	andpl	r1, r1, r0, lsl #16
     a84:	18007602 	stmdane	r0, {r1, r9, sl, ip, sp, lr}
     a88:	03055101 	movweq	r5, #20737	; 0x5101
     a8c:	0000952c 	andeq	r9, r0, ip, lsr #10
     a90:	01520118 	cmpeq	r2, r8, lsl r1
     a94:	88170033 	ldmdahi	r7, {r0, r1, r4, r5}
     a98:	46000087 	strmi	r0, [r0], -r7, lsl #1
     a9c:	1700000c 	strne	r0, [r0, -ip]
     aa0:	18000003 	stmdane	r0, {r0, r1}
     aa4:	03055001 	movweq	r5, #20481	; 0x5001
     aa8:	0000951c 	andeq	r9, r0, ip, lsl r5
     aac:	02510118 	subseq	r0, r1, #6
     ab0:	1700007b 	smlsdxne	r0, fp, r0, r0
     ab4:	00008794 	muleq	r0, r4, r7
     ab8:	00000c46 	andeq	r0, r0, r6, asr #24
     abc:	00000334 	andeq	r0, r0, r4, lsr r3
     ac0:	05500118 	ldrbeq	r0, [r0, #-280]	; 0xfffffee8
     ac4:	00952403 	addseq	r2, r5, r3, lsl #8
     ac8:	51011800 	tstpl	r1, r0, lsl #16
     acc:	00007902 	andeq	r7, r0, r2, lsl #18
     ad0:	0087a417 	addeq	sl, r7, r7, lsl r4
     ad4:	000c3a00 	andeq	r3, ip, r0, lsl #20
     ad8:	00035600 	andeq	r5, r3, r0, lsl #12
     adc:	50011800 	andpl	r1, r1, r0, lsl #16
     ae0:	18007602 	stmdane	r0, {r1, r9, sl, ip, sp, lr}
     ae4:	03055101 	movweq	r5, #20737	; 0x5101
     ae8:	00009518 	andeq	r9, r0, r8, lsl r5
     aec:	01520118 	cmpeq	r2, r8, lsl r1
     af0:	d4170033 	ldrle	r0, [r7], #-51	; 0xffffffcd
     af4:	a4000087 	strge	r0, [r0], #-135	; 0xffffff79
     af8:	8300000a 	movwhi	r0, #10
     afc:	18000003 	stmdane	r0, {r0, r1}
     b00:	40015001 	andmi	r5, r1, r1
     b04:	03510118 	cmpeq	r1, #6
     b08:	187dd091 	ldmdane	sp!, {r0, r4, r7, ip, lr, pc}^
     b0c:	7b025201 	blvc	95318 <__bss_end__+0x8b8d0>
     b10:	53011800 	movwpl	r1, #6144	; 0x1800
     b14:	18007502 	stmdane	r0, {r1, r8, sl, ip, sp, lr}
     b18:	02007d02 	andeq	r7, r0, #128	; 0x80
     b1c:	17000076 	smlsdxne	r0, r6, r0, r0
     b20:	000087f4 	strdeq	r8, [r0], -r4
     b24:	00000aa4 	andeq	r0, r0, r4, lsr #21
     b28:	000003aa 	andeq	r0, r0, sl, lsr #7
     b2c:	01500118 	cmpeq	r0, r8, lsl r1
     b30:	51011840 	tstpl	r1, r0, asr #16
     b34:	7ed09103 	atnvcs	f1, f3
     b38:	02520118 	subseq	r0, r2, #6
     b3c:	02180079 	andseq	r0, r8, #121, 0	; 0x79
     b40:	7602007d 			; <UNDEFINED> instruction: 0x7602007d
     b44:	04170000 	ldreq	r0, [r7], #-0
     b48:	52000088 	andpl	r0, r0, #136, 0	; 0x88
     b4c:	c600000c 	strgt	r0, [r0], -ip
     b50:	18000003 	stmdane	r0, {r0, r1}
     b54:	91035001 	tstls	r3, r1
     b58:	01187dd0 			; <UNDEFINED> instruction: 0x01187dd0
     b5c:	d2910351 	addsle	r0, r1, #1140850689	; 0x44000001
     b60:	4817007e 	ldmdami	r7, {r1, r2, r3, r4, r5, r6}
     b64:	3a00008a 	bcc	d94 <__code_start__-0x726c>
     b68:	e800000c 	stmda	r0, {r2, r3}
     b6c:	18000003 	stmdane	r0, {r0, r1}
     b70:	76025001 	strvc	r5, [r2], -r1
     b74:	51011800 	tstpl	r1, r0, lsl #16
     b78:	952c0305 	strls	r0, [ip, #-773]!	; 0xfffffcfb
     b7c:	01180000 	tsteq	r8, r0
     b80:	00330152 	eorseq	r0, r3, r2, asr r1
     b84:	008a6c17 	addeq	r6, sl, r7, lsl ip
     b88:	000aa400 	andeq	sl, sl, r0, lsl #8
     b8c:	00041500 	andeq	r1, r4, r0, lsl #10
     b90:	50011800 	andpl	r1, r1, r0, lsl #16
     b94:	01183a01 	tsteq	r8, r1, lsl #20
     b98:	d0910351 	addsle	r0, r1, r1, asr r3
     b9c:	5201187d 	andpl	r1, r1, #8192000	; 0x7d0000
     ba0:	18007b02 	stmdane	r0, {r1, r8, r9, fp, ip, sp, lr}
     ba4:	75025301 	strvc	r5, [r2, #-769]	; 0xfffffcff
     ba8:	7d021800 	stcvc	8, cr1, [r2, #-0]
     bac:	00760200 	rsbseq	r0, r6, r0, lsl #4
     bb0:	8a8c1700 	bhi	fe3067b8 <__bss_end__+0xfe2fcd70>
     bb4:	0aa40000 	beq	fe900bbc <__bss_end__+0xfe8f7174>
     bb8:	043c0000 	ldrteq	r0, [ip], #-0
     bbc:	01180000 	tsteq	r8, r0
     bc0:	183a0150 	ldmdane	sl!, {r4, r6, r8}
     bc4:	91035101 	tstls	r3, r1, lsl #2
     bc8:	01187ed0 			; <UNDEFINED> instruction: 0x01187ed0
     bcc:	00790252 	rsbseq	r0, r9, r2, asr r2
     bd0:	007d0218 	rsbseq	r0, sp, r8, lsl r2
     bd4:	00007602 	andeq	r7, r0, r2, lsl #12
     bd8:	008a9817 	addeq	r9, sl, r7, lsl r8
     bdc:	000c5e00 	andeq	r5, ip, r0, lsl #28
     be0:	00045a00 	andeq	r5, r4, r0, lsl #20
     be4:	50011800 	andpl	r1, r1, r0, lsl #16
     be8:	7dd09103 	ldfvcp	f1, [r0, #12]
     bec:	05510118 	ldrbeq	r0, [r1, #-280]	; 0xfffffee8
     bf0:	0094dc03 	addseq	sp, r4, r3, lsl #24
     bf4:	ac170000 	ldcge	0, cr0, [r7], {-0}
     bf8:	6a00008a 	bvs	e28 <__code_start__-0x71d8>
     bfc:	7600000c 	strvc	r0, [r0], -ip
     c00:	18000004 	stmdane	r0, {r2}
     c04:	91035001 	tstls	r3, r1
     c08:	01187dd0 			; <UNDEFINED> instruction: 0x01187dd0
     c0c:	d0910351 	addsle	r0, r1, r1, asr r3
     c10:	b819007e 	ldmdalt	r9, {r1, r2, r3, r4, r5, r6}
     c14:	5200008a 	andpl	r0, r0, #138, 0	; 0x8a
     c18:	1700000c 	strne	r0, [r0, -ip]
     c1c:	00008b7c 	andeq	r8, r0, ip, ror fp
     c20:	00000c46 	andeq	r0, r0, r6, asr #24
     c24:	000004a8 	andeq	r0, r0, r8, lsr #9
     c28:	05500118 	ldrbeq	r0, [r0, #-280]	; 0xfffffee8
     c2c:	0094c803 	addseq	ip, r4, r3, lsl #16
     c30:	51011800 	tstpl	r1, r0, lsl #16
     c34:	94b40305 	ldrtls	r0, [r4], #773	; 0x305
     c38:	01180000 	tsteq	r8, r0
     c3c:	24030552 	strcs	r0, [r3], #-1362	; 0xfffffaae
     c40:	00000096 	muleq	r0, r6, r0
     c44:	008b8019 	addeq	r8, fp, r9, lsl r0
     c48:	000c7600 	andeq	r7, ip, r0, lsl #12
     c4c:	8b981700 	blhi	fe606854 <__bss_end__+0xfe5fce0c>
     c50:	0c460000 	mareq	acc0, r0, r6
     c54:	04e70000 	strbteq	r0, [r7], #0
     c58:	01180000 	tsteq	r8, r0
     c5c:	6c030550 	cfstr32vs	mvfx0, [r3], {80}	; 0x50
     c60:	18000095 	stmdane	r0, {r0, r2, r4, r7}
     c64:	03055101 	movweq	r5, #20737	; 0x5101
     c68:	000094b4 			; <UNDEFINED> instruction: 0x000094b4
     c6c:	05520118 	ldrbeq	r0, [r2, #-280]	; 0xfffffee8
     c70:	00962403 	addseq	r2, r6, r3, lsl #8
     c74:	53011800 	movwpl	r1, #6144	; 0x1800
     c78:	18b60802 	ldmne	r6!, {r1, fp}
     c7c:	02007d02 	andeq	r7, r0, #128	; 0x80
     c80:	19000076 	stmdbne	r0, {r1, r2, r4, r5, r6}
     c84:	00008b9c 	muleq	r0, ip, fp
     c88:	00000c76 	andeq	r0, r0, r6, ror ip
     c8c:	09e31a00 	stmibeq	r3!, {r9, fp, ip}^
     c90:	864c0000 	strbhi	r0, [ip], -r0
     c94:	00040000 	andeq	r0, r4, r0
     c98:	000000f0 	strdeq	r0, [r0], -r0	; <UNPREDICTABLE>
     c9c:	150a9401 	strne	r9, [sl, #-1025]	; 0xfffffbff
     ca0:	1b000005 	blne	cbc <__code_start__-0x7344>
     ca4:	000009f4 	strdeq	r0, [r0], -r4
     ca8:	00000719 	andeq	r0, r0, r9, lsl r7
     cac:	00000715 	andeq	r0, r0, r5, lsl r7
     cb0:	08951a00 	ldmeq	r5, {r9, fp, ip}
     cb4:	88340000 	ldmdahi	r4!, {}	; <UNPREDICTABLE>
     cb8:	00010000 	andeq	r0, r1, r0
     cbc:	00000110 	andeq	r0, r0, r0, lsl r1
     cc0:	4b09dc01 	blmi	277ccc <__bss_end__+0x26e284>
     cc4:	1b000006 	blne	ce4 <__code_start__-0x731c>
     cc8:	000008be 			; <UNDEFINED> instruction: 0x000008be
     ccc:	00000747 	andeq	r0, r0, r7, asr #14
     cd0:	00000741 	andeq	r0, r0, r1, asr #14
     cd4:	0008e01b 	andeq	lr, r8, fp, lsl r0
     cd8:	00077c00 	andeq	r7, r7, r0, lsl #24
     cdc:	00077600 	andeq	r7, r7, r0, lsl #12
     ce0:	08d41b00 	ldmeq	r4, {r8, r9, fp, ip}^
     ce4:	07ae0000 	streq	r0, [lr, r0]!
     ce8:	07a80000 	streq	r0, [r8, r0]!
     cec:	c81c0000 	ldmdagt	ip, {}	; <UNPREDICTABLE>
     cf0:	1b000008 	blne	d18 <__code_start__-0x72e8>
     cf4:	000008b2 			; <UNDEFINED> instruction: 0x000008b2
     cf8:	000007df 	ldrdeq	r0, [r0], -pc	; <UNPREDICTABLE>
     cfc:	000007d7 	ldrdeq	r0, [r0], -r7
     d00:	0008a61b 	andeq	sl, r8, fp, lsl r6
     d04:	00082200 	andeq	r2, r8, r0, lsl #4
     d08:	00081c00 	andeq	r1, r8, r0, lsl #24
     d0c:	01101300 	tsteq	r0, r0, lsl #6
     d10:	ec1d0000 	ldc	0, cr0, [sp], {-0}
     d14:	03000008 	movweq	r0, #8
     d18:	1e7ed891 	mrcne	8, 3, sp, cr14, cr1, {4}
     d1c:	000008f8 	strdeq	r0, [r0], -r8
     d20:	0000085c 	andeq	r0, r0, ip, asr r8
     d24:	0000084e 	andeq	r0, r0, lr, asr #16
     d28:	0009021f 	andeq	r0, r9, pc, lsl r2
     d2c:	09a31a00 	stmibeq	r3!, {r9, fp, ip}
     d30:	88400000 	stmdahi	r0, {}^	; <UNPREDICTABLE>
     d34:	00040000 	andeq	r0, r4, r0
     d38:	00000140 	andeq	r0, r0, r0, asr #2
     d3c:	e2097c01 	and	r7, r9, #256	; 0x100
     d40:	1b000005 	blne	d5c <__code_start__-0x72a4>
     d44:	000009ca 	andeq	r0, r0, sl, asr #19
     d48:	000008c6 	andeq	r0, r0, r6, asr #17
     d4c:	000008c0 	andeq	r0, r0, r0, asr #17
     d50:	0009be1b 	andeq	fp, r9, fp, lsl lr
     d54:	0008fb00 	andeq	pc, r8, r0, lsl #22
     d58:	0008ef00 	andeq	lr, r8, r0, lsl #30
     d5c:	09b41b00 	ldmibeq	r4!, {r8, r9, fp, ip}
     d60:	09610000 	stmdbeq	r1!, {}^	; <UNPREDICTABLE>
     d64:	09510000 	ldmdbeq	r1, {}^	; <UNPREDICTABLE>
     d68:	40130000 	andsmi	r0, r3, r0
     d6c:	1e000001 	cdpne	0, 0, cr0, cr0, cr1, {0}
     d70:	000009d6 	ldrdeq	r0, [r0], -r6
     d74:	000009de 	ldrdeq	r0, [r0], -lr
     d78:	000009d0 	ldrdeq	r0, [r0], -r0	; <UNPREDICTABLE>
     d7c:	4f200000 	svcmi	0x00200000
     d80:	08000009 	stmdaeq	r0, {r0, r3}
     d84:	02000089 	andeq	r0, r0, #137, 0	; 0x89
     d88:	00017000 	andeq	r7, r1, r0
     d8c:	097c0100 	ldmdbeq	ip!, {r8}^
     d90:	0009801b 	andeq	r8, r9, fp, lsl r0
     d94:	000a3e00 	andeq	r3, sl, r0, lsl #28
     d98:	000a3800 	andeq	r3, sl, r0, lsl #16
     d9c:	09761b00 	ldmdbeq	r6!, {r8, r9, fp, ip}^
     da0:	0a740000 	beq	1d00da8 <__bss_end__+0x1cf7360>
     da4:	0a6a0000 	beq	1a80dac <__bss_end__+0x1a77364>
     da8:	6c1b0000 	ldcvs	0, cr0, [fp], {-0}
     dac:	c3000009 	movwgt	r0, #9
     db0:	bf00000a 	svclt	0x0000000a
     db4:	1b00000a 	blne	de4 <__code_start__-0x721c>
     db8:	00000960 	andeq	r0, r0, r0, ror #18
     dbc:	00000af3 	strdeq	r0, [r0], -r3
     dc0:	00000ae5 	andeq	r0, r0, r5, ror #21
     dc4:	00017013 	andeq	r7, r1, r3, lsl r0
     dc8:	098c1e00 	stmibeq	ip, {r9, sl, fp, ip}
     dcc:	0b580000 	bleq	1600dd4 <__bss_end__+0x15f738c>
     dd0:	0b560000 	bleq	1580dd8 <__bss_end__+0x1577390>
     dd4:	981e0000 	ldmdals	lr, {}	; <UNPREDICTABLE>
     dd8:	72000009 	andvc	r0, r0, #9, 0
     ddc:	6c00000b 	stcvs	0, cr0, [r0], {11}
     de0:	0000000b 	andeq	r0, r0, fp
     de4:	1a000000 	bne	dec <__code_start__-0x7214>
     de8:	00000895 	muleq	r0, r5, r8
     dec:	00008944 	andeq	r8, r0, r4, asr #18
     df0:	01a00000 	moveq	r0, r0
     df4:	d6010000 	strle	r0, [r1], -r0
     df8:	00078909 	andeq	r8, r7, r9, lsl #18
     dfc:	08be1b00 	ldmeq	lr!, {r8, r9, fp, ip}
     e00:	0ba50000 	bleq	fe940e08 <__bss_end__+0xfe9373c0>
     e04:	0ba10000 	bleq	fe840e0c <__bss_end__+0xfe8373c4>
     e08:	e01b0000 	ands	r0, fp, r0
     e0c:	cb000008 	blgt	e34 <__code_start__-0x71cc>
     e10:	c700000b 	strgt	r0, [r0, -fp]
     e14:	1b00000b 	blne	e48 <__code_start__-0x71b8>
     e18:	000008d4 	ldrdeq	r0, [r0], -r4
     e1c:	00000bef 	andeq	r0, r0, pc, ror #23
     e20:	00000beb 	andeq	r0, r0, fp, ror #23
     e24:	0008c81c 	andeq	ip, r8, ip, lsl r8
     e28:	08b21b00 	ldmeq	r2!, {r8, r9, fp, ip}
     e2c:	0c130000 	ldceq	0, cr0, [r3], {-0}
     e30:	0c0d0000 	stceq	0, cr0, [sp], {-0}
     e34:	a61b0000 	ldrge	r0, [fp], -r0
     e38:	46000008 	strmi	r0, [r0], -r8
     e3c:	4200000c 	andmi	r0, r0, #12, 0
     e40:	1300000c 	movwne	r0, #12
     e44:	000001a0 	andeq	r0, r0, r0, lsr #3
     e48:	0008ec1d 	andeq	lr, r8, sp, lsl ip
     e4c:	d8910300 	ldmle	r1, {r8, r9}
     e50:	08f81e7e 	ldmeq	r8!, {r1, r2, r3, r4, r5, r6, r9, sl, fp, ip}^
     e54:	0c700000 	ldcleq	0, cr0, [r0], #-0
     e58:	0c660000 	stcleq	0, cr0, [r6], #-0
     e5c:	021e0000 	andseq	r0, lr, #0, 0
     e60:	b5000009 	strlt	r0, [r0, #-9]
     e64:	b100000c 	tstlt	r0, ip
     e68:	1a00000c 	bne	ea0 <__code_start__-0x7160>
     e6c:	000009a3 	andeq	r0, r0, r3, lsr #19
     e70:	00008960 	andeq	r8, r0, r0, ror #18
     e74:	01c00003 	biceq	r0, r0, r3
     e78:	7c010000 	stcvc	0, cr0, [r1], {-0}
     e7c:	00072009 	andeq	r2, r7, r9
     e80:	09ca1b00 	stmibeq	sl, {r8, r9, fp, ip}^
     e84:	0cd70000 	ldcleq	0, cr0, [r7], {0}
     e88:	0cd30000 	ldcleq	0, cr0, [r3], {0}
     e8c:	be1b0000 	cdplt	0, 1, cr0, cr11, cr0, {0}
     e90:	f9000009 			; <UNDEFINED> instruction: 0xf9000009
     e94:	f500000c 			; <UNDEFINED> instruction: 0xf500000c
     e98:	1b00000c 	blne	ed0 <__code_start__-0x7130>
     e9c:	000009b4 			; <UNDEFINED> instruction: 0x000009b4
     ea0:	00000d23 	andeq	r0, r0, r3, lsr #26
     ea4:	00000d17 	andeq	r0, r0, r7, lsl sp
     ea8:	0001c013 	andeq	ip, r1, r3, lsl r0
     eac:	09d61e00 	ldmibeq	r6, {r9, sl, fp, ip}^
     eb0:	0d7f0000 	ldcleq	0, cr0, [pc, #-0]	; eb8 <__code_start__-0x7148>
     eb4:	0d730000 	ldcleq	0, cr0, [r3, #-0]
     eb8:	00000000 	andeq	r0, r0, r0
     ebc:	00094f20 	andeq	r4, r9, r0, lsr #30
     ec0:	0089e800 	addeq	lr, r9, r0, lsl #16
     ec4:	e8000200 	stmda	r0, {r9}
     ec8:	01000001 	tsteq	r0, r1
     ecc:	801b097c 	andshi	r0, fp, ip, ror r9
     ed0:	cf000009 	svcgt	0x00000009
     ed4:	cb00000d 	blgt	f10 <__code_start__-0x70f0>
     ed8:	1b00000d 	blne	f14 <__code_start__-0x70ec>
     edc:	00000976 	andeq	r0, r0, r6, ror r9
     ee0:	00000df7 	strdeq	r0, [r0], -r7
     ee4:	00000ded 	andeq	r0, r0, sp, ror #27
     ee8:	00096c1b 	andeq	r6, r9, fp, lsl ip
     eec:	000e4300 	andeq	r4, lr, r0, lsl #6
     ef0:	000e3f00 	andeq	r3, lr, r0, lsl #30
     ef4:	09601b00 	stmdbeq	r0!, {r8, r9, fp, ip}^
     ef8:	0e710000 	cdpeq	0, 7, cr0, cr1, cr0, {0}
     efc:	0e650000 	cdpeq	0, 6, cr0, cr5, cr0, {0}
     f00:	e8130000 	ldmda	r3, {}	; <UNPREDICTABLE>
     f04:	1e000001 	cdpne	0, 0, cr0, cr0, cr1, {0}
     f08:	0000098c 	andeq	r0, r0, ip, lsl #19
     f0c:	00000ecb 	andeq	r0, r0, fp, asr #29
     f10:	00000ec7 	andeq	r0, r0, r7, asr #29
     f14:	0009981e 	andeq	r9, r9, lr, lsl r8
     f18:	000ef100 	andeq	pc, lr, r0, lsl #2
     f1c:	000eed00 	andeq	lr, lr, r0, lsl #26
     f20:	00000000 	andeq	r0, r0, r0
     f24:	87141700 	ldrhi	r1, [r4, -r0, lsl #14]
     f28:	0aa40000 	beq	fe900f30 <__bss_end__+0xfe8f74e8>
     f2c:	07af0000 	streq	r0, [pc, r0]!
     f30:	01180000 	tsteq	r8, r0
     f34:	18400150 	stmdane	r0, {r4, r6, r8}^
     f38:	91035101 	tstls	r3, r1, lsl #2
     f3c:	01187dd0 			; <UNDEFINED> instruction: 0x01187dd0
     f40:	00750253 	rsbseq	r0, r5, r3, asr r2
     f44:	007d0218 	rsbseq	r0, sp, r8, lsl r2
     f48:	17003001 	strne	r3, [r0, -r1]
     f4c:	00008824 	andeq	r8, r0, r4, lsr #16
     f50:	00000aa4 	andeq	r0, r0, r4, lsr #21
     f54:	000007cf 	andeq	r0, r0, pc, asr #15
     f58:	01500118 	cmpeq	r0, r8, lsl r1
     f5c:	5101183a 	tstpl	r1, sl, lsr r8
     f60:	7dd09103 	ldfvcp	f1, [r0, #12]
     f64:	02530118 	subseq	r0, r3, #6
     f68:	17000075 	smlsdxne	r0, r5, r0, r0
     f6c:	00008b08 	andeq	r8, r0, r8, lsl #22
     f70:	00000c46 	andeq	r0, r0, r6, asr #24
     f74:	000007e6 	andeq	r0, r0, r6, ror #15
     f78:	05500118 	ldrbeq	r0, [r0, #-280]	; 0xfffffee8
     f7c:	0095bc03 	addseq	fp, r5, r3, lsl #24
     f80:	18210000 	stmdane	r1!, {}	; <UNPREDICTABLE>
     f84:	f800008b 			; <UNDEFINED> instruction: 0xf800008b
     f88:	18000007 	stmdane	r0, {r0, r1, r2}
     f8c:	91045001 	tstls	r4, r1
     f90:	00067dc8 	andeq	r7, r6, r8, asr #27
     f94:	008b2c17 	addeq	r2, fp, r7, lsl ip
     f98:	000c4600 	andeq	r4, ip, r0, lsl #12
     f9c:	00082700 	andeq	r2, r8, r0, lsl #14
     fa0:	50011800 	andpl	r1, r1, r0, lsl #16
     fa4:	95ec0305 	strbls	r0, [ip, #773]!	; 0x305
     fa8:	01180000 	tsteq	r8, r0
     fac:	b4030551 	strlt	r0, [r3], #-1361	; 0xfffffaaf
     fb0:	18000094 	stmdane	r0, {r2, r4, r7}
     fb4:	03055201 	movweq	r5, #20993	; 0x5201
     fb8:	00009624 	andeq	r9, r0, r4, lsr #12
     fbc:	02530118 	subseq	r0, r3, #6
     fc0:	1900e208 	stmdbne	r0, {r3, r9, sp, lr, pc}
     fc4:	00008b30 	andeq	r8, r0, r0, lsr fp
     fc8:	00000c76 	andeq	r0, r0, r6, ror ip
     fcc:	008b4417 	addeq	r4, fp, r7, lsl r4
     fd0:	000c4600 	andeq	r4, ip, r0, lsl #12
     fd4:	00085f00 	andeq	r5, r8, r0, lsl #30
     fd8:	50011800 	andpl	r1, r1, r0, lsl #16
     fdc:	95940305 	ldrls	r0, [r4, #773]	; 0x305
     fe0:	01180000 	tsteq	r8, r0
     fe4:	b4030551 	strlt	r0, [r3], #-1361	; 0xfffffaaf
     fe8:	18000094 	stmdane	r0, {r2, r4, r7}
     fec:	03055201 	movweq	r5, #20993	; 0x5201
     ff0:	00009624 	andeq	r9, r0, r4, lsr #12
     ff4:	02530118 	subseq	r0, r3, #6
     ff8:	1900be08 	stmdbne	r0, {r3, r9, sl, fp, ip, sp, pc}
     ffc:	00008b48 	andeq	r8, r0, r8, asr #22
    1000:	00000c76 	andeq	r0, r0, r6, ror ip
    1004:	04080000 	streq	r0, [r8], #-0
    1008:	000000b9 	strheq	r0, [r0], -r9
    100c:	0000c022 	andeq	ip, r0, r2, lsr #32
    1010:	00088000 	andeq	r8, r8, r0
    1014:	002c2300 	eoreq	r2, ip, r0, lsl #6
    1018:	00090000 	andeq	r0, r9, r0
    101c:	00087009 	andeq	r7, r8, r9
    1020:	00b92200 	adcseq	r2, r9, r0, lsl #4
    1024:	08950000 	ldmeq	r5, {}	; <UNPREDICTABLE>
    1028:	2c230000 	stccs	0, cr0, [r3], #-0
    102c:	7f000000 	svcvc	0x00000000
    1030:	03de2400 	bicseq	r2, lr, #0, 8
    1034:	49010000 	stmdbmi	r1, {}	; <UNPREDICTABLE>
    1038:	00086a01 	andeq	r6, r8, r1, lsl #20
    103c:	092a0100 	stmdbeq	sl!, {r8}
    1040:	23250000 			; <UNDEFINED> instruction: 0x23250000
    1044:	01000004 	tsteq	r0, r4
    1048:	002c0f49 	eoreq	r0, ip, r9, asr #30
    104c:	64260000 	strtvs	r0, [r6], #-0
    1050:	01007473 	tsteq	r0, r3, ror r4
    1054:	086a1b49 	stmdaeq	sl!, {r0, r3, r6, r8, r9, fp, ip}^
    1058:	6e260000 	cdpvs	0, 2, cr0, cr6, cr0, {0}
    105c:	24490100 	strbcs	r0, [r9], #-256	; 0xffffff00
    1060:	00000033 	andeq	r0, r0, r3, lsr r0
    1064:	6c617626 	stclvs	6, cr7, [r1], #-152	; 0xffffff68
    1068:	2b490100 	blcs	1241470 <__bss_end__+0x1237a28>
    106c:	00000033 	andeq	r0, r0, r3, lsr r0
    1070:	00036525 	andeq	r6, r3, r5, lsr #10
    1074:	34490100 	strbcc	r0, [r9], #-256	; 0xffffff00
    1078:	00000033 	andeq	r0, r0, r3, lsr r0
    107c:	00042825 	andeq	r2, r4, r5, lsr #16
    1080:	3f490100 	svccc	0x00490100
    1084:	00000033 	andeq	r0, r0, r3, lsr r0
    1088:	66756227 	ldrbtvs	r6, [r5], -r7, lsr #4
    108c:	074e0100 	strbeq	r0, [lr, -r0, lsl #2]
    1090:	0000092a 	andeq	r0, r0, sl, lsr #18
    1094:	01007027 	tsteq	r0, r7, lsr #32
    1098:	086a114e 	stmdaeq	sl!, {r1, r2, r3, r6, r8, ip}^
    109c:	75270000 	strvc	r0, [r7, #-0]!
    10a0:	0b4f0100 	bleq	13c14a8 <__bss_end__+0x13b7a60>
    10a4:	0000002c 	andeq	r0, r0, ip, lsr #32
    10a8:	00013712 	andeq	r3, r1, r2, lsl r7
    10ac:	00094a00 	andeq	r4, r9, r0, lsl #20
    10b0:	0c030500 	cfstr32eq	mvfx0, [r3], {-0}
    10b4:	28000096 	stmdacs	r0, {r1, r2, r4, r7}
    10b8:	0003cb29 	andeq	ip, r3, r9, lsr #22
    10bc:	0d540100 	ldfeqe	f0, [r4, #-0]
    10c0:	0000002c 	andeq	r0, r0, ip, lsr #32
    10c4:	b9220000 	stmdblt	r2!, {}	; <UNPREDICTABLE>
    10c8:	3a000000 	bcc	10d0 <__code_start__-0x6f30>
    10cc:	23000009 	movwcs	r0, #9
    10d0:	0000002c 	andeq	r0, r0, ip, lsr #32
    10d4:	c022003f 	eorgt	r0, r2, pc, lsr r0
    10d8:	4a000000 	bmi	10e0 <__code_start__-0x6f20>
    10dc:	23000009 	movwcs	r0, #9
    10e0:	0000002c 	andeq	r0, r0, ip, lsr #32
    10e4:	3a090004 	bcc	2410fc <__bss_end__+0x2376b4>
    10e8:	24000009 	strcs	r0, [r0], #-9
    10ec:	000003e3 	andeq	r0, r0, r3, ror #7
    10f0:	6a0e3801 	bvs	38f0fc <__bss_end__+0x3856b4>
    10f4:	01000008 	tsteq	r0, r8
    10f8:	000009a3 	andeq	r0, r0, r3, lsr #19
    10fc:	74736426 	ldrbtvc	r6, [r3], #-1062	; 0xfffffbda
    1100:	1c380100 	ldfnes	f0, [r8], #-0
    1104:	0000086a 	andeq	r0, r0, sl, ror #16
    1108:	01006e26 	tsteq	r0, r6, lsr #28
    110c:	00332538 	eorseq	r2, r3, r8, lsr r5
    1110:	70260000 	eorvc	r0, r6, r0
    1114:	2e380100 	rsfcse	f0, f0, f0
    1118:	0000086a 	andeq	r0, r0, sl, ror #16
    111c:	0003b725 	andeq	fp, r3, r5, lsr #14
    1120:	37380100 	ldrcc	r0, [r8, -r0, lsl #2]!
    1124:	0000086a 	andeq	r0, r0, sl, ror #16
    1128:	6e656c27 	cdpvs	12, 6, cr6, cr5, cr7, {1}
    112c:	063a0100 	ldrteq	r0, [sl], -r0, lsl #2
    1130:	00000033 	andeq	r0, r0, r3, lsr r0
    1134:	01007327 	tsteq	r0, r7, lsr #6
    1138:	086a083e 	stmdaeq	sl!, {r1, r2, r3, r4, r5, fp}^
    113c:	2a000000 	bcs	1144 <__code_start__-0x6ebc>
    1140:	00646170 	rsbeq	r6, r4, r0, ror r1
    1144:	6a0e2e01 	bvs	38c950 <__bss_end__+0x382f08>
    1148:	01000008 	tsteq	r0, r8
    114c:	000009e3 	andeq	r0, r0, r3, ror #19
    1150:	01007026 	tsteq	r0, r6, lsr #32
    1154:	086a182e 	stmdaeq	sl!, {r1, r2, r3, r5, fp, ip}^
    1158:	23250000 			; <UNDEFINED> instruction: 0x23250000
    115c:	01000004 	tsteq	r0, r4
    1160:	086a222e 	stmdaeq	sl!, {r1, r2, r3, r5, r9, sp}^
    1164:	65250000 	strvs	r0, [r5, #-0]!
    1168:	01000003 	tsteq	r0, r3
    116c:	00332c2e 	eorseq	r2, r3, lr, lsr #24
    1170:	6c270000 	stcvs	0, cr0, [r7], #-0
    1174:	01006e65 	tsteq	r0, r5, ror #28
    1178:	0033062f 	eorseq	r0, r3, pc, lsr #12
    117c:	24000000 	strcs	r0, [r0], #-0
    1180:	00000324 	andeq	r0, r0, r4, lsr #6
    1184:	330c2701 	movwcc	r2, #50945	; 0xc701
    1188:	01000000 	mrseq	r0, (UNDEF: 0)
    118c:	000009ff 	strdeq	r0, [r0], -pc	; <UNPREDICTABLE>
    1190:	01006326 	tsteq	r0, r6, lsr #6
    1194:	00331827 	eorseq	r1, r3, r7, lsr #16
    1198:	2b000000 	blcs	11a0 <__code_start__-0x6e60>
    119c:	000003a4 	andeq	r0, r0, r4, lsr #7
    11a0:	60061f01 	andvs	r1, r6, r1, lsl #30
    11a4:	60000085 	andvs	r0, r0, r5, lsl #1
    11a8:	01000000 	mrseq	r0, (UNDEF: 0)
    11ac:	000a8f9c 	muleq	sl, ip, pc	; <UNPREDICTABLE>
    11b0:	03780f00 	cmneq	r8, #0, 30
    11b4:	1f010000 	svcne	0x00010000
    11b8:	00009e1b 	andeq	r9, r0, fp, lsl lr
    11bc:	000f1600 	andeq	r1, pc, r0, lsl #12
    11c0:	000f1200 	andeq	r1, pc, r0, lsl #4
    11c4:	03f20f00 	mvnseq	r0, #0, 30
    11c8:	1f010000 	svcne	0x00010000
    11cc:	0000d130 	andeq	sp, r0, r0, lsr r1
    11d0:	000f3b00 	andeq	r3, pc, r0, lsl #22
    11d4:	000f3700 	andeq	r3, pc, r0, lsl #14
    11d8:	01371200 	teqeq	r7, r0, lsl #4
    11dc:	0a9f0000 	beq	fe7c11e4 <__bss_end__+0xfe7b779c>
    11e0:	03050000 	movweq	r0, #20480	; 0x5000
    11e4:	00009614 	andeq	r9, r0, r4, lsl r6
    11e8:	0085a417 	addeq	sl, r5, r7, lsl r4
    11ec:	000c4600 	andeq	r4, ip, r0, lsl #12
    11f0:	000a8500 	andeq	r8, sl, r0, lsl #10
    11f4:	50011800 	andpl	r1, r1, r0, lsl #16
    11f8:	94c80305 	strbls	r0, [r8], #773	; 0x305
    11fc:	01180000 	tsteq	r8, r0
    1200:	b4030551 	strlt	r0, [r3], #-1361	; 0xfffffaaf
    1204:	18000094 	stmdane	r0, {r2, r4, r7}
    1208:	03055201 	movweq	r5, #20993	; 0x5201
    120c:	00009614 	andeq	r9, r0, r4, lsl r6
    1210:	02530118 	subseq	r0, r3, #6
    1214:	02182008 	andseq	r2, r8, #8, 0
    1218:	0305007d 	movweq	r0, #20605	; 0x507d
    121c:	00009504 	andeq	r9, r0, r4, lsl #10
    1220:	85a81900 	strhi	r1, [r8, #2304]!	; 0x900
    1224:	0c760000 	ldcleq	0, cr0, [r6], #-0
    1228:	22000000 	andcs	r0, r0, #0, 0
    122c:	000000c0 	andeq	r0, r0, r0, asr #1
    1230:	00000a9f 	muleq	r0, pc, sl	; <UNPREDICTABLE>
    1234:	00002c23 	andeq	r2, r0, r3, lsr #24
    1238:	09000e00 	stmdbeq	r0, {r9, sl, fp}
    123c:	00000a8f 	andeq	r0, r0, pc, lsl #21
    1240:	0008952c 	andeq	r9, r8, ip, lsr #10
    1244:	00823800 	addeq	r3, r2, r0, lsl #16
    1248:	00032800 	andeq	r2, r3, r0, lsl #16
    124c:	3a9c0100 	bcc	fe701654 <__bss_end__+0xfe6f7c0c>
    1250:	1b00000c 	blne	1288 <__code_start__-0x6d78>
    1254:	000008a6 	andeq	r0, r0, r6, lsr #17
    1258:	00000f74 	andeq	r0, r0, r4, ror pc
    125c:	00000f5c 	andeq	r0, r0, ip, asr pc
    1260:	0008b21b 	andeq	fp, r8, fp, lsl r2
    1264:	00101e00 	andseq	r1, r0, r0, lsl #28
    1268:	00101600 	andseq	r1, r0, r0, lsl #12
    126c:	08c81b00 	stmiaeq	r8, {r8, r9, fp, ip}^
    1270:	10750000 	rsbsne	r0, r5, r0
    1274:	10550000 	subsne	r0, r5, r0
    1278:	d41b0000 	ldrle	r0, [fp], #-0
    127c:	4b000008 	blmi	12a4 <__code_start__-0x6d5c>
    1280:	3d000011 	stccc	0, cr0, [r0, #-68]	; 0xffffffbc
    1284:	2d000011 	stccs	0, cr0, [r0, #-68]	; 0xffffffbc
    1288:	000008e0 	andeq	r0, r0, r0, ror #17
    128c:	1d009102 	stfned	f1, [r0, #-8]
    1290:	000008ec 	andeq	r0, r0, ip, ror #17
    1294:	7fa89103 	svcvc	0x00a89103
    1298:	0008f81e 	andeq	pc, r8, lr, lsl r8	; <UNPREDICTABLE>
    129c:	0011df00 	andseq	sp, r1, r0, lsl #30
    12a0:	0011ab00 	andseq	sl, r1, r0, lsl #22
    12a4:	09021e00 	stmdbeq	r2, {r9, sl, fp, ip}
    12a8:	13460000 	movtne	r0, #24576	; 0x6000
    12ac:	13240000 			; <UNDEFINED> instruction: 0x13240000
    12b0:	be2e0000 	cdplt	0, 2, cr0, cr14, cr0, {0}
    12b4:	80000008 	andhi	r0, r0, r8
    12b8:	0009a31a 	andeq	sl, r9, sl, lsl r3
    12bc:	0082dc00 	addeq	sp, r2, r0, lsl #24
    12c0:	38000400 	stmdacc	r0, {sl}
    12c4:	01000000 	mrseq	r0, (UNDEF: 0)
    12c8:	0b6d097c 	bleq	1b438c0 <__bss_end__+0x1b39e78>
    12cc:	ca1b0000 	bgt	6c12d4 <__bss_end__+0x6b788c>
    12d0:	2e000009 	cdpcs	0, 0, cr0, cr0, cr9, {0}
    12d4:	24000014 	strcs	r0, [r0], #-20	; 0xffffffec
    12d8:	1b000014 	blne	1330 <__code_start__-0x6cd0>
    12dc:	000009be 			; <UNDEFINED> instruction: 0x000009be
    12e0:	00001482 	andeq	r1, r0, r2, lsl #9
    12e4:	00001472 	andeq	r1, r0, r2, ror r4
    12e8:	0009b41b 	andeq	fp, r9, fp, lsl r4
    12ec:	00150200 	andseq	r0, r5, r0, lsl #4
    12f0:	0014ee00 	andseq	lr, r4, r0, lsl #28
    12f4:	00381300 	eorseq	r1, r8, r0, lsl #6
    12f8:	d61e0000 	ldrle	r0, [lr], -r0
    12fc:	94000009 	strls	r0, [r0], #-9
    1300:	84000015 	strhi	r0, [r0], #-21	; 0xffffffeb
    1304:	00000015 	andeq	r0, r0, r5, lsl r0
    1308:	094f1a00 	stmdbeq	pc, {r9, fp, ip}^	; <UNPREDICTABLE>
    130c:	83940000 	orrshi	r0, r4, #0, 0
    1310:	00020000 	andeq	r0, r2, r0
    1314:	00000080 	andeq	r0, r0, r0, lsl #1
    1318:	d8097c01 	stmdale	r9, {r0, sl, fp, ip, sp, lr}
    131c:	1b00000b 	blne	1350 <__code_start__-0x6cb0>
    1320:	00000980 	andeq	r0, r0, r0, lsl #19
    1324:	00001600 	andeq	r1, r0, r0, lsl #12
    1328:	000015f8 	strdeq	r1, [r0], -r8
    132c:	0009761b 	andeq	r7, r9, fp, lsl r6
    1330:	00163f00 	andseq	r3, r6, r0, lsl #30
    1334:	00163700 	andseq	r3, r6, r0, lsl #14
    1338:	096c1b00 	stmdbeq	ip!, {r8, r9, fp, ip}^
    133c:	167e0000 	ldrbtne	r0, [lr], -r0
    1340:	167a0000 	ldrbtne	r0, [sl], -r0
    1344:	601b0000 	andsvs	r0, fp, r0
    1348:	ae000009 	cdpge	0, 0, cr0, cr0, cr9, {0}
    134c:	a0000016 	andge	r0, r0, r6, lsl r0
    1350:	13000016 	movwne	r0, #22
    1354:	00000080 	andeq	r0, r0, r0, lsl #1
    1358:	00098c1e 	andeq	r8, r9, lr, lsl ip
    135c:	00171300 	andseq	r1, r7, r0, lsl #6
    1360:	00170d00 	andseq	r0, r7, r0, lsl #26
    1364:	09981e00 	ldmibeq	r8, {r9, sl, fp, ip}
    1368:	17450000 	strbne	r0, [r5, -r0]
    136c:	17410000 	strbne	r0, [r1, -r0]
    1370:	00000000 	andeq	r0, r0, r0
    1374:	00091b2f 	andeq	r1, r9, pc, lsr #22
    1378:	00844c00 	addeq	r4, r4, r0, lsl #24
    137c:	00006000 	andeq	r6, r0, r0
    1380:	000bf700 	andeq	pc, fp, r0, lsl #14
    1384:	091c1e00 	ldmdbeq	ip, {r9, sl, fp, ip}
    1388:	17670000 	strbne	r0, [r7, -r0]!
    138c:	17630000 	strbne	r0, [r3, -r0]!
    1390:	17000000 	strne	r0, [r0, -r0]
    1394:	00008520 	andeq	r8, r0, r0, lsr #10
    1398:	00000c46 	andeq	r0, r0, r6, asr #24
    139c:	00000c30 	andeq	r0, r0, r0, lsr ip
    13a0:	05500118 	ldrbeq	r0, [r0, #-280]	; 0xfffffee8
    13a4:	0094c803 	addseq	ip, r4, r3, lsl #16
    13a8:	51011800 	tstpl	r1, r0, lsl #16
    13ac:	94b40305 	ldrtls	r0, [r4], #773	; 0x305
    13b0:	01180000 	tsteq	r8, r0
    13b4:	0c030552 	cfstr32eq	mvfx0, [r3], {82}	; 0x52
    13b8:	18000096 	stmdane	r0, {r1, r2, r4, r7}
    13bc:	08025301 	stmdaeq	r2, {r0, r8, r9, ip, lr}
    13c0:	7d021879 	stcvc	8, cr1, [r2, #-484]	; 0xfffffe1c
    13c4:	dc030500 	cfstr32le	mvfx0, [r3], {-0}
    13c8:	00000094 	muleq	r0, r4, r0
    13cc:	00852419 	addeq	r2, r5, r9, lsl r4
    13d0:	000c7600 	andeq	r7, ip, r0, lsl #12
    13d4:	1b300000 	blne	c013dc <__bss_end__+0xbf7994>
    13d8:	1b000004 	blne	13f0 <__code_start__-0x6c10>
    13dc:	03000004 	movweq	r0, #4
    13e0:	c03005eb 	eorsgt	r0, r0, fp, ror #11
    13e4:	c0000001 	andgt	r0, r0, r1
    13e8:	03000001 	movweq	r0, #1
    13ec:	bd300628 	ldclt	6, cr0, [r0, #-160]!	; 0xffffff60
    13f0:	bd000003 	stclt	0, cr0, [r0, #-12]
    13f4:	03000003 	movweq	r0, #3
    13f8:	eb3007ee 	bl	c033b8 <__bss_end__+0xbf9970>
    13fc:	eb000003 	bl	1410 <__code_start__-0x6bf0>
    1400:	03000003 	movweq	r0, #3
    1404:	c43005ea 	ldrtgt	r0, [r0], #-1514	; 0xfffffa16
    1408:	c4000003 	strgt	r0, [r0], #-3
    140c:	03000003 	movweq	r0, #3
    1410:	563007ed 	ldrtpl	r0, [r0], -sp, ror #15
    1414:	56000000 	strpl	r0, [r0], -r0
    1418:	03000000 	movweq	r0, #0
    141c:	0a00066e 	beq	2ddc <__code_start__-0x5224>
    1420:	04000001 	streq	r0, [r0], #-1
    1424:	0006ce00 	andeq	ip, r6, r0, lsl #28
    1428:	d6010400 	strle	r0, [r1], -r0, lsl #8
    142c:	0c000001 	stceq	0, cr0, [r0], {1}
    1430:	0000043f 	andeq	r0, r0, pc, lsr r4
    1434:	000002ad 	andeq	r0, r0, sp, lsr #5
    1438:	00000210 	andeq	r0, r0, r0, lsl r2
    143c:	00000000 	andeq	r0, r0, r0
    1440:	00000d15 	andeq	r0, r0, r5, lsl sp
    1444:	69050402 	stmdbvs	r5, {r1, sl}
    1448:	0300746e 	movweq	r7, #1134	; 0x46e
    144c:	01530704 	cmpeq	r3, r4, lsl #14
    1450:	01030000 	mrseq	r0, (UNDEF: 3)
    1454:	00004a06 	andeq	r4, r0, r6, lsl #20
    1458:	05020300 	streq	r0, [r2, #-768]	; 0xfffffd00
    145c:	00000192 	muleq	r0, r2, r1
    1460:	6e050403 	cdpvs	4, 0, cr0, cr5, cr3, {0}
    1464:	03000001 	movweq	r0, #1
    1468:	01690508 	cmneq	r9, r8, lsl #10
    146c:	01030000 	mrseq	r0, (UNDEF: 3)
    1470:	00004808 	andeq	r4, r0, r8, lsl #16
    1474:	07020300 	streq	r0, [r2, -r0, lsl #6]
    1478:	00000063 	andeq	r0, r0, r3, rrx
    147c:	4e070403 	cdpmi	4, 0, cr0, cr7, cr3, {0}
    1480:	03000001 	movweq	r0, #1
    1484:	01490708 	cmpeq	r9, r8, lsl #14
    1488:	25040000 	strcs	r0, [r4, #-0]
    148c:	7a000000 	bvc	1494 <__code_start__-0x6b6c>
    1490:	05000000 	streq	r0, [r0, #-0]
    1494:	00000025 	andeq	r0, r0, r5, lsr #32
    1498:	01770600 	cmneq	r7, r0, lsl #12
    149c:	1c020000 	stcne	0, cr0, [r2], {-0}
    14a0:	0000860e 	andeq	r8, r0, lr, lsl #12
    14a4:	6b040700 	blvs	1030ac <__bss_end__+0xf9664>
    14a8:	04000000 	streq	r0, [r0], #-0
    14ac:	00000025 	andeq	r0, r0, r5, lsr #32
    14b0:	0000009b 	muleq	r0, fp, r0
    14b4:	00009b05 	andeq	r9, r0, r5, lsl #22
    14b8:	04070000 	streq	r0, [r7], #-0
    14bc:	000000a8 	andeq	r0, r0, r8, lsr #1
    14c0:	51080103 	tstpl	r8, r3, lsl #2
    14c4:	08000000 	stmdaeq	r0, {}	; <UNPREDICTABLE>
    14c8:	000000a1 	andeq	r0, r0, r1, lsr #1
    14cc:	00031106 	andeq	r1, r3, r6, lsl #2
    14d0:	0e210200 	cdpeq	2, 2, cr0, cr1, cr0, {0}
    14d4:	000000b9 	strheq	r0, [r0], -r9
    14d8:	008c0407 	addeq	r0, ip, r7, lsl #8
    14dc:	31090000 	mrscc	r0, (UNDEF: 9)
    14e0:	01000004 	tsteq	r0, r4
    14e4:	8bfc060c 	blhi	fff02d1c <__bss_end__+0xffef92d4>
    14e8:	00100000 	andseq	r0, r0, r0
    14ec:	9c010000 	stcls	0, cr0, [r1], {-0}
    14f0:	000000e8 	andeq	r0, r0, r8, ror #1
    14f4:	0100720a 	tsteq	r0, sl, lsl #4
    14f8:	002c0e0d 	eoreq	r0, ip, sp, lsl #28
    14fc:	178f0000 	strne	r0, [pc, r0]
    1500:	17870000 	strne	r0, [r7, r0]
    1504:	0b000000 	bleq	150c <__code_start__-0x6af4>
    1508:	0000019c 	muleq	r0, ip, r1
    150c:	ec060301 	stc	3, cr0, [r6], {1}
    1510:	1000008b 	andne	r0, r0, fp, lsl #1
    1514:	01000000 	mrseq	r0, (UNDEF: 0)
    1518:	00720a9c 			; <UNDEFINED> instruction: 0x00720a9c
    151c:	2c0e0401 	cfstrscs	mvf0, [lr], {1}
    1520:	d7000000 	strle	r0, [r0, -r0]
    1524:	cf000017 	svcgt	0x00000017
    1528:	00000017 	andeq	r0, r0, r7, lsl r0
    152c:	00012f00 	andeq	r2, r1, r0, lsl #30
    1530:	77000400 	strvc	r0, [r0, -r0, lsl #8]
    1534:	04000007 	streq	r0, [r0], #-7
    1538:	0001d601 	andeq	sp, r1, r1, lsl #12
    153c:	04670c00 	strbteq	r0, [r7], #-3072	; 0xfffff400
    1540:	02ad0000 	adceq	r0, sp, #0, 0
    1544:	8c0c0000 	stchi	0, cr0, [ip], {-0}
    1548:	002c0000 	eoreq	r0, ip, r0
    154c:	0db90000 	ldceq	0, cr0, [r9]
    1550:	04020000 	streq	r0, [r2], #-0
    1554:	746e6905 	strbtvc	r6, [lr], #-2309	; 0xfffff6fb
    1558:	07040300 	streq	r0, [r4, -r0, lsl #6]
    155c:	00000153 	andeq	r0, r0, r3, asr r1
    1560:	4a060103 	bmi	181974 <__bss_end__+0x177f2c>
    1564:	03000000 	movweq	r0, #0
    1568:	01920502 	orrseq	r0, r2, r2, lsl #10
    156c:	04030000 	streq	r0, [r3], #-0
    1570:	00016e05 	andeq	r6, r1, r5, lsl #28
    1574:	05080300 	streq	r0, [r8, #-768]	; 0xfffffd00
    1578:	00000169 	andeq	r0, r0, r9, ror #2
    157c:	48080103 	stmdami	r8, {r0, r1, r8}
    1580:	03000000 	movweq	r0, #0
    1584:	00630702 	rsbeq	r0, r3, r2, lsl #14
    1588:	04030000 	streq	r0, [r3], #-0
    158c:	00014e07 	andeq	r4, r1, r7, lsl #28
    1590:	07080300 	streq	r0, [r8, -r0, lsl #6]
    1594:	00000149 	andeq	r0, r0, r9, asr #2
    1598:	00002504 	andeq	r2, r0, r4, lsl #10
    159c:	00007a00 	andeq	r7, r0, r0, lsl #20
    15a0:	00250500 	eoreq	r0, r5, r0, lsl #10
    15a4:	06000000 	streq	r0, [r0], -r0
    15a8:	00000177 	andeq	r0, r0, r7, ror r1
    15ac:	860e1c02 	strhi	r1, [lr], -r2, lsl #24
    15b0:	07000000 	streq	r0, [r0, -r0]
    15b4:	00006b04 	andeq	r6, r0, r4, lsl #22
    15b8:	00250400 	eoreq	r0, r5, r0, lsl #8
    15bc:	009b0000 	addseq	r0, fp, r0
    15c0:	9b050000 	blls	1415c8 <__bss_end__+0x137b80>
    15c4:	00000000 	andeq	r0, r0, r0
    15c8:	00a80407 	adceq	r0, r8, r7, lsl #8
    15cc:	01030000 	mrseq	r0, (UNDEF: 3)
    15d0:	00005108 	andeq	r5, r0, r8, lsl #2
    15d4:	00a10800 	adceq	r0, r1, r0, lsl #16
    15d8:	11060000 	mrsne	r0, (UNDEF: 6)
    15dc:	02000003 	andeq	r0, r0, #3, 0
    15e0:	00b90e21 	adcseq	r0, r9, r1, lsr #28
    15e4:	04070000 	streq	r0, [r7], #-0
    15e8:	0000008c 	andeq	r0, r0, ip, lsl #1
    15ec:	00005609 	andeq	r5, r0, r9, lsl #12
    15f0:	06040100 	streq	r0, [r4], -r0, lsl #2
    15f4:	00008c0c 	andeq	r8, r0, ip, lsl #24
    15f8:	0000002c 	andeq	r0, r0, ip, lsr #32
    15fc:	010e9c01 	tsteq	lr, r1, lsl #24
    1600:	200a0000 	andcs	r0, sl, r0
    1604:	e800008c 	stmda	r0, {r2, r3, r7}
    1608:	0b000000 	bleq	1610 <__code_start__-0x69f0>
    160c:	03055001 	movweq	r5, #20481	; 0x5001
    1610:	00009630 	andeq	r9, r0, r0, lsr r6
    1614:	8c240c00 	stchi	12, cr0, [r4], #-0
    1618:	010e0000 	mrseq	r0, (UNDEF: 14)
    161c:	2c0d0000 	stccs	0, cr0, [sp], {-0}
    1620:	1a00008c 	bne	1858 <__code_start__-0x67a8>
    1624:	04000001 	streq	r0, [r0], #-1
    1628:	0b000001 	bleq	1634 <__code_start__-0x69cc>
    162c:	3a015001 	bcc	55638 <__bss_end__+0x4bbf0>
    1630:	8c300c00 	ldchi	12, cr0, [r0], #-0
    1634:	01260000 			; <UNDEFINED> instruction: 0x01260000
    1638:	0e000000 	cdpeq	0, 0, cr0, cr0, cr0, {0}
    163c:	00000482 	andeq	r0, r0, r2, lsl #9
    1640:	00000482 	andeq	r0, r0, r2, lsl #9
    1644:	0e064d02 	cdpeq	13, 0, cr4, cr6, cr2, {0}
    1648:	0000045e 	andeq	r0, r0, lr, asr r4
    164c:	0000045e 	andeq	r0, r0, lr, asr r4
    1650:	0e065802 	cdpeq	8, 0, cr5, cr6, cr2, {0}
    1654:	00000453 	andeq	r0, r0, r3, asr r4
    1658:	00000453 	andeq	r0, r0, r3, asr r4
    165c:	00066b02 	andeq	r6, r6, r2, lsl #22
    1660:	00000190 	muleq	r0, r0, r1
    1664:	08370004 	ldmdaeq	r7!, {r2}
    1668:	01040000 	mrseq	r0, (UNDEF: 4)
    166c:	000001d6 	ldrdeq	r0, [r0], -r6
    1670:	0004b80c 	andeq	fp, r4, ip, lsl #16
    1674:	0002ad00 	andeq	sl, r2, r0, lsl #26
    1678:	008c3800 	addeq	r3, ip, r0, lsl #16
    167c:	0000f800 	andeq	pc, r0, r0, lsl #16
    1680:	000e4400 	andeq	r4, lr, r0, lsl #8
    1684:	05040200 	streq	r0, [r4, #-512]	; 0xfffffe00
    1688:	00746e69 	rsbseq	r6, r4, r9, ror #28
    168c:	53070403 	movwpl	r0, #29699	; 0x7403
    1690:	03000001 	movweq	r0, #1
    1694:	004a0601 	subeq	r0, sl, r1, lsl #12
    1698:	02030000 	andeq	r0, r3, #0, 0
    169c:	00019205 	andeq	r9, r1, r5, lsl #4
    16a0:	05040300 	streq	r0, [r4, #-768]	; 0xfffffd00
    16a4:	0000016e 	andeq	r0, r0, lr, ror #2
    16a8:	69050803 	stmdbvs	r5, {r0, r1, fp}
    16ac:	03000001 	movweq	r0, #1
    16b0:	00480801 	subeq	r0, r8, r1, lsl #16
    16b4:	02030000 	andeq	r0, r3, #0, 0
    16b8:	00006307 	andeq	r6, r0, r7, lsl #6
    16bc:	07040300 	streq	r0, [r4, -r0, lsl #6]
    16c0:	0000014e 	andeq	r0, r0, lr, asr #2
    16c4:	49070803 	stmdbmi	r7, {r0, r1, fp}
    16c8:	04000001 	streq	r0, [r0], #-1
    16cc:	00000025 	andeq	r0, r0, r5, lsr #32
    16d0:	0000007a 	andeq	r0, r0, sl, ror r0
    16d4:	00002505 	andeq	r2, r0, r5, lsl #10
    16d8:	77060000 	strvc	r0, [r6, -r0]
    16dc:	02000001 	andeq	r0, r0, #1, 0
    16e0:	00860e1c 	addeq	r0, r6, ip, lsl lr
    16e4:	04070000 	streq	r0, [r7], #-0
    16e8:	0000006b 	andeq	r0, r0, fp, rrx
    16ec:	00002504 	andeq	r2, r0, r4, lsl #10
    16f0:	00009b00 	andeq	r9, r0, r0, lsl #22
    16f4:	009b0500 	addseq	r0, fp, r0, lsl #10
    16f8:	07000000 	streq	r0, [r0, -r0]
    16fc:	0000a804 	andeq	sl, r0, r4, lsl #16
    1700:	08010300 	stmdaeq	r1, {r8, r9}
    1704:	00000051 	andeq	r0, r0, r1, asr r0
    1708:	0000a108 	andeq	sl, r0, r8, lsl #2
    170c:	03110600 	tsteq	r1, #0, 12
    1710:	21020000 	mrscs	r0, (UNDEF: 2)
    1714:	0000b90e 	andeq	fp, r0, lr, lsl #18
    1718:	8c040700 	stchi	7, cr0, [r4], {-0}
    171c:	09000000 	stmdbeq	r0, {}	; <UNPREDICTABLE>
    1720:	00000490 	muleq	r0, r0, r4
    1724:	38060401 	stmdacc	r6, {r0, sl}
    1728:	f800008c 			; <UNDEFINED> instruction: 0xf800008c
    172c:	01000000 	mrseq	r0, (UNDEF: 0)
    1730:	00015b9c 	muleq	r1, ip, fp
    1734:	03570600 	cmpeq	r7, #0, 12
    1738:	05010000 	streq	r0, [r1, #-0]
    173c:	00002510 	andeq	r2, r0, r0, lsl r5
    1740:	03800600 	orreq	r0, r0, #0, 12
    1744:	05010000 	streq	r0, [r1, #-0]
    1748:	0000251f 	andeq	r2, r0, pc, lsl r5
    174c:	00400a00 	subeq	r0, r0, r0, lsl #20
    1750:	06010000 	streq	r0, [r1], -r0
    1754:	73620b07 	cmnvc	r2, #7168	; 0x1c00
    1758:	0a010073 	beq	4192c <__bss_end__+0x37ee4>
    175c:	00015b0a 	andeq	r5, r1, sl, lsl #22
    1760:	00182f00 	andseq	r2, r8, r0, lsl #30
    1764:	00181700 	andseq	r1, r8, r0, lsl #14
    1768:	04980c00 	ldreq	r0, [r8], #3072	; 0xc00
    176c:	0b010000 	bleq	41774 <__bss_end__+0x37d2c>
    1770:	00015b0a 	andeq	r5, r1, sl, lsl #22
    1774:	8d100d00 	ldchi	13, cr0, [r0, #-0]
    1778:	00080000 	andeq	r0, r8, r0
    177c:	01360000 	teqeq	r6, r0
    1780:	690b0000 	stmdbvs	fp, {}	; <UNPREDICTABLE>
    1784:	1401006e 	strne	r0, [r1], #-110	; 0xffffff92
    1788:	00002c05 	andeq	r2, r0, r5, lsl #24
    178c:	0018c900 	andseq	ip, r8, r0, lsl #18
    1790:	0018c700 	andseq	ip, r8, r0, lsl #14
    1794:	400e0000 	andmi	r0, lr, r0
    1798:	6100008c 	smlabbvs	r0, ip, r0, r0
    179c:	0e000001 	cdpeq	0, 0, cr0, cr0, cr1, {0}
    17a0:	00008d10 	andeq	r8, r0, r0, lsl sp
    17a4:	0000016e 	andeq	r0, r0, lr, ror #2
    17a8:	008d1c0e 	addeq	r1, sp, lr, lsl #24
    17ac:	00017a00 	andeq	r7, r1, r0, lsl #20
    17b0:	8d200e00 	stchi	14, cr0, [r0, #-0]
    17b4:	01870000 	orreq	r0, r7, r0
    17b8:	07000000 	streq	r0, [r0, -r0]
    17bc:	00002504 	andeq	r2, r0, r4, lsl #10
    17c0:	04aa0f00 	strteq	r0, [sl], #3840	; 0xf00
    17c4:	04aa0000 	strteq	r0, [sl], #0
    17c8:	31020000 	mrscc	r0, (UNDEF: 2)
    17cc:	a0100601 	andsge	r0, r0, r1, lsl #12
    17d0:	a0000004 	andge	r0, r0, r4
    17d4:	02000004 	andeq	r0, r0, #4, 0
    17d8:	400f063b 	andmi	r0, pc, fp, lsr r6	; <UNPREDICTABLE>
    17dc:	40000000 	andmi	r0, r0, r0
    17e0:	02000000 	andeq	r0, r0, #0, 0
    17e4:	10060105 	andne	r0, r6, r5, lsl #2
    17e8:	00000056 	andeq	r0, r0, r6, asr r0
    17ec:	00000056 	andeq	r0, r0, r6, asr r0
    17f0:	00066e02 	andeq	r6, r6, r2, lsl #28
    17f4:	000000ce 	andeq	r0, r0, lr, asr #1
    17f8:	09220004 	stmdbeq	r2!, {r2}
    17fc:	01040000 	mrseq	r0, (UNDEF: 4)
    1800:	000001d6 	ldrdeq	r0, [r0], -r6
    1804:	0004cd0c 	andeq	ip, r4, ip, lsl #26
    1808:	0002ad00 	andeq	sl, r2, r0, lsl #26
    180c:	008d3000 	addeq	r3, sp, r0
    1810:	00000400 	andeq	r0, r0, r0, lsl #8
    1814:	000f5a00 	andeq	r5, pc, r0, lsl #20
    1818:	05040200 	streq	r0, [r4, #-512]	; 0xfffffe00
    181c:	00746e69 	rsbseq	r6, r4, r9, ror #28
    1820:	53070403 	movwpl	r0, #29699	; 0x7403
    1824:	03000001 	movweq	r0, #1
    1828:	004a0601 	subeq	r0, sl, r1, lsl #12
    182c:	02030000 	andeq	r0, r3, #0, 0
    1830:	00019205 	andeq	r9, r1, r5, lsl #4
    1834:	05040300 	streq	r0, [r4, #-768]	; 0xfffffd00
    1838:	0000016e 	andeq	r0, r0, lr, ror #2
    183c:	69050803 	stmdbvs	r5, {r0, r1, fp}
    1840:	03000001 	movweq	r0, #1
    1844:	00480801 	subeq	r0, r8, r1, lsl #16
    1848:	02030000 	andeq	r0, r3, #0, 0
    184c:	00006307 	andeq	r6, r0, r7, lsl #6
    1850:	07040300 	streq	r0, [r4, -r0, lsl #6]
    1854:	0000014e 	andeq	r0, r0, lr, asr #2
    1858:	49070803 	stmdbmi	r7, {r0, r1, fp}
    185c:	04000001 	streq	r0, [r0], #-1
    1860:	00000025 	andeq	r0, r0, r5, lsr #32
    1864:	0000007a 	andeq	r0, r0, sl, ror r0
    1868:	00002505 	andeq	r2, r0, r5, lsl #10
    186c:	77060000 	strvc	r0, [r6, -r0]
    1870:	02000001 	andeq	r0, r0, #1, 0
    1874:	00860e1c 	addeq	r0, r6, ip, lsl lr
    1878:	04070000 	streq	r0, [r7], #-0
    187c:	0000006b 	andeq	r0, r0, fp, rrx
    1880:	00002504 	andeq	r2, r0, r4, lsl #10
    1884:	00009b00 	andeq	r9, r0, r0, lsl #22
    1888:	009b0500 	addseq	r0, fp, r0, lsl #10
    188c:	07000000 	streq	r0, [r0, -r0]
    1890:	0000a804 	andeq	sl, r0, r4, lsl #16
    1894:	08010300 	stmdaeq	r1, {r8, r9}
    1898:	00000051 	andeq	r0, r0, r1, asr r0
    189c:	0000a108 	andeq	sl, r0, r8, lsl #2
    18a0:	03110600 	tsteq	r1, #0, 12
    18a4:	21020000 	mrscs	r0, (UNDEF: 2)
    18a8:	0000b90e 	andeq	fp, r0, lr, lsl #18
    18ac:	8c040700 	stchi	7, cr0, [r4], {-0}
    18b0:	09000000 	stmdbeq	r0, {}	; <UNPREDICTABLE>
    18b4:	000004aa 	andeq	r0, r0, sl, lsr #9
    18b8:	30060401 	andcc	r0, r6, r1, lsl #8
    18bc:	0400008d 	streq	r0, [r0], #-141	; 0xffffff73
    18c0:	01000000 	mrseq	r0, (UNDEF: 0)
    18c4:	027d009c 	rsbseq	r0, sp, #156, 0	; 0x9c
    18c8:	00040000 	andeq	r0, r4, r0
    18cc:	0000099b 	muleq	r0, fp, r9
    18d0:	01d60104 	bicseq	r0, r6, r4, lsl #2
    18d4:	150c0000 	strne	r0, [ip, #-0]
    18d8:	ad000005 	stcge	0, cr0, [r0, #-20]	; 0xffffffec
    18dc:	38000002 	stmdacc	r0, {r1}
    18e0:	00000002 	andeq	r0, r0, r2
    18e4:	db000000 	blle	18ec <__code_start__-0x6714>
    18e8:	0200000f 	andeq	r0, r0, #15, 0
    18ec:	6e690504 	cdpvs	5, 6, cr0, cr9, cr4, {0}
    18f0:	25030074 	strcs	r0, [r3, #-116]	; 0xffffff8c
    18f4:	04000000 	streq	r0, [r0], #-0
    18f8:	01530704 	cmpeq	r3, r4, lsl #14
    18fc:	01040000 	mrseq	r0, (UNDEF: 4)
    1900:	00004a06 	andeq	r4, r0, r6, lsl #20
    1904:	05020400 	streq	r0, [r2, #-1024]	; 0xfffffc00
    1908:	00000192 	muleq	r0, r2, r1
    190c:	6e050404 	cdpvs	4, 0, cr0, cr5, cr4, {0}
    1910:	04000001 	streq	r0, [r0], #-1
    1914:	01690508 	cmneq	r9, r8, lsl #10
    1918:	01040000 	mrseq	r0, (UNDEF: 4)
    191c:	00004808 	andeq	r4, r0, r8, lsl #16
    1920:	07020400 	streq	r0, [r2, -r0, lsl #8]
    1924:	00000063 	andeq	r0, r0, r3, rrx
    1928:	4e070404 	cdpmi	4, 0, cr0, cr7, cr4, {0}
    192c:	04000001 	streq	r0, [r0], #-1
    1930:	01490708 	cmpeq	r9, r8, lsl #14
    1934:	25050000 	strcs	r0, [r5, #-0]
    1938:	7f000000 	svcvc	0x00000000
    193c:	06000000 	streq	r0, [r0], -r0
    1940:	00000025 	andeq	r0, r0, r5, lsr #32
    1944:	01770700 	cmneq	r7, r0, lsl #14
    1948:	1c020000 	stcne	0, cr0, [r2], {-0}
    194c:	00008b0e 	andeq	r8, r0, lr, lsl #22
    1950:	70040800 	andvc	r0, r4, r0, lsl #16
    1954:	05000000 	streq	r0, [r0, #-0]
    1958:	00000025 	andeq	r0, r0, r5, lsr #32
    195c:	000000a0 	andeq	r0, r0, r0, lsr #1
    1960:	0000a006 	andeq	sl, r0, r6
    1964:	04080000 	streq	r0, [r8], #-0
    1968:	000000ad 	andeq	r0, r0, sp, lsr #1
    196c:	51080104 	tstpl	r8, r4, lsl #2
    1970:	03000000 	movweq	r0, #0
    1974:	000000a6 	andeq	r0, r0, r6, lsr #1
    1978:	00031107 	andeq	r1, r3, r7, lsl #2
    197c:	0e210200 	cdpeq	2, 2, cr0, cr1, cr0, {0}
    1980:	000000be 	strheq	r0, [r0], -lr
    1984:	00910408 	addseq	r0, r1, r8, lsl #8
    1988:	39090000 	stmdbcc	r9, {}	; <UNPREDICTABLE>
    198c:	01000005 	tsteq	r0, r5
    1990:	0031110d 	eorseq	r1, r1, sp, lsl #2
    1994:	530a0000 	movwpl	r0, #40960	; 0xa000
    1998:	01000004 	tsteq	r0, r4
    199c:	8d60061f 	stclhi	6, cr0, [r0, #-124]!	; 0xffffff84
    19a0:	00600000 	rsbeq	r0, r0, r0
    19a4:	9c010000 	stcls	0, cr0, [r1], {-0}
    19a8:	000001d5 	ldrdeq	r0, [r0], -r5
    19ac:	00055d0b 	andeq	r5, r5, fp, lsl #26
    19b0:	0f2c0100 	svceq	0x002c0100
    19b4:	0000002c 	andeq	r0, r0, ip, lsr #32
    19b8:	2010001c 	andscs	r0, r0, ip, lsl r0
    19bc:	0004f80b 	andeq	pc, r4, fp, lsl #16
    19c0:	0f2d0100 	svceq	0x002d0100
    19c4:	0000002c 	andeq	r0, r0, ip, lsr #32
    19c8:	20100024 	andscs	r0, r0, r4, lsr #32
    19cc:	00052a0b 	andeq	r2, r5, fp, lsl #20
    19d0:	0f2e0100 	svceq	0x002e0100
    19d4:	0000002c 	andeq	r0, r0, ip, lsr #32
    19d8:	5a000000 	bpl	19e0 <__code_start__-0x6620>
    19dc:	0005440c 	andeq	r4, r5, ip, lsl #8
    19e0:	0f2f0100 	svceq	0x002f0100
    19e4:	0000002c 	andeq	r0, r0, ip, lsr #32
    19e8:	01ef0d20 	mvneq	r0, r0, lsr #26
    19ec:	8d600000 	stclhi	0, cr0, [r0, #-0]
    19f0:	20020000 	andcs	r0, r2, r0
    19f4:	01000002 	tsteq	r0, r2
    19f8:	014c0820 	cmpeq	ip, r0, lsr #16
    19fc:	200e0000 	andcs	r0, lr, r0
    1a00:	0f000002 	svceq	0x00000002
    1a04:	00000200 	andeq	r0, r0, r0, lsl #4
    1a08:	000018e1 	andeq	r1, r0, r1, ror #17
    1a0c:	000018dd 	ldrdeq	r1, [r0], -sp
    1a10:	d5100000 	ldrle	r0, [r0, #-0]
    1a14:	74000001 	strvc	r0, [r0], #-1
    1a18:	0100008d 	smlabbeq	r0, sp, r0, r0
    1a1c:	00008d74 	andeq	r8, r0, r4, ror sp
    1a20:	00000010 	andeq	r0, r0, r0, lsl r0
    1a24:	73092101 	movwvc	r2, #37121	; 0x9101
    1a28:	0f000001 	svceq	0x00000001
    1a2c:	000001e2 	andeq	r0, r0, r2, ror #3
    1a30:	00001908 	andeq	r1, r0, r8, lsl #18
    1a34:	00001900 	andeq	r1, r0, r0, lsl #18
    1a38:	8d881100 	stfhis	f1, [r8]
    1a3c:	024f0000 	subeq	r0, pc, #0, 0
    1a40:	8c110000 	ldchi	0, cr0, [r1], {-0}
    1a44:	5c00008d 	stcpl	0, cr0, [r0], {141}	; 0x8d
    1a48:	12000002 	andne	r0, r0, #2, 0
    1a4c:	00008d94 	muleq	r0, r4, sp
    1a50:	00000268 	andeq	r0, r0, r8, ror #4
    1a54:	00000198 	muleq	r0, r8, r1
    1a58:	01500113 	cmpeq	r0, r3, lsl r1
    1a5c:	a012003a 	andsge	r0, r2, sl, lsr r0
    1a60:	7400008d 	strvc	r0, [r0], #-141	; 0xffffff73
    1a64:	b8000002 	stmdalt	r0, {r1}
    1a68:	13000001 	movwne	r0, #1
    1a6c:	0c055001 	stceq	0, cr5, [r5], {1}
    1a70:	20100024 	andscs	r0, r0, r4, lsr #32
    1a74:	05510113 	ldrbeq	r0, [r1, #-275]	; 0xfffffeed
    1a78:	0000010c 	andeq	r0, r0, ip, lsl #2
    1a7c:	ac14005a 	ldcge	0, cr0, [r4], {90}	; 0x5a
    1a80:	7400008d 	strvc	r0, [r0], #-141	; 0xffffff73
    1a84:	13000002 	movwne	r0, #2
    1a88:	0c055001 	stceq	0, cr5, [r5], {1}
    1a8c:	2010001c 	andscs	r0, r0, ip, lsl r0
    1a90:	05510113 	ldrbeq	r0, [r1, #-275]	; 0xfffffeed
    1a94:	0000200c 	andeq	r2, r0, ip
    1a98:	1500005a 	strne	r0, [r0, #-90]	; 0xffffffa6
    1a9c:	00000506 	andeq	r0, r0, r6, lsl #10
    1aa0:	01061701 	tsteq	r6, r1, lsl #14
    1aa4:	000001ef 	andeq	r0, r0, pc, ror #3
    1aa8:	00056509 	andeq	r6, r5, r9, lsl #10
    1aac:	0e180100 	mufeqe	f0, f0, f0
    1ab0:	00000031 	andeq	r0, r0, r1, lsr r0
    1ab4:	05361600 	ldreq	r1, [r6, #-1536]!	; 0xfffffa00
    1ab8:	0e010000 	cdpeq	0, 0, cr0, cr1, cr0, {0}
    1abc:	00002505 	andeq	r2, r0, r5, lsl #10
    1ac0:	020d0100 	andeq	r0, sp, #0
    1ac4:	65090000 	strvs	r0, [r9, #-0]
    1ac8:	01000005 	tsteq	r0, r5
    1acc:	00310e0f 	eorseq	r0, r1, pc, lsl #28
    1ad0:	17000000 	strne	r0, [r0, -r0]
    1ad4:	000001ef 	andeq	r0, r0, pc, ror #3
    1ad8:	00008d34 	andeq	r8, r0, r4, lsr sp
    1adc:	00000018 	andeq	r0, r0, r8, lsl r0
    1ae0:	022e9c01 	eoreq	r9, lr, #256	; 0x100
    1ae4:	000f0000 	andeq	r0, pc, r0
    1ae8:	45000002 	strmi	r0, [r0, #-2]
    1aec:	41000019 	tstmi	r0, r9, lsl r0
    1af0:	00000019 	andeq	r0, r0, r9, lsl r0
    1af4:	0001d517 	andeq	sp, r1, r7, lsl r5
    1af8:	008d4c00 	addeq	r4, sp, r0, lsl #24
    1afc:	00001400 	andeq	r1, r0, r0, lsl #8
    1b00:	4f9c0100 	svcmi	0x009c0100
    1b04:	0f000002 	svceq	0x00000002
    1b08:	000001e2 	andeq	r0, r0, r2, ror #3
    1b0c:	0000196c 	andeq	r1, r0, ip, ror #18
    1b10:	00001964 	andeq	r1, r0, r4, ror #18
    1b14:	04e91800 	strbteq	r1, [r9], #2048	; 0x800
    1b18:	04e90000 	strbteq	r0, [r9], #0
    1b1c:	36020000 	strcc	r0, [r2], -r0
    1b20:	82190601 	andshi	r0, r9, #1048576	; 0x100000
    1b24:	82000004 	andhi	r0, r0, #4, 0
    1b28:	02000004 	andeq	r0, r0, #4, 0
    1b2c:	5e19064d 	cfmsub32pl	mvax2, mvfx0, mvfx9, mvfx13
    1b30:	5e000004 	cdppl	0, 0, cr0, cr0, cr4, {0}
    1b34:	02000004 	andeq	r0, r0, #4, 0
    1b38:	00190658 	andseq	r0, r9, r8, asr r6
    1b3c:	00000005 	andeq	r0, r0, r5
    1b40:	02000005 	andeq	r0, r0, #5, 0
    1b44:	3f0006ad 	svccc	0x000006ad
    1b48:	04000005 	streq	r0, [r0], #-5
    1b4c:	000b1e00 	andeq	r1, fp, r0, lsl #28
    1b50:	d6010400 	strle	r0, [r1], -r0, lsl #8
    1b54:	0c000001 	stceq	0, cr0, [r0], {1}
    1b58:	00000580 	andeq	r0, r0, r0, lsl #11
    1b5c:	000002ad 	andeq	r0, r0, sp, lsr #5
    1b60:	00008dc0 	andeq	r8, r0, r0, asr #27
    1b64:	0000011c 	andeq	r0, r0, ip, lsl r1
    1b68:	000010f3 	strdeq	r1, [r0], -r3
    1b6c:	69050402 	stmdbvs	r5, {r1, sl}
    1b70:	0300746e 	movweq	r7, #1134	; 0x46e
    1b74:	01530704 	cmpeq	r3, r4, lsl #14
    1b78:	01030000 	mrseq	r0, (UNDEF: 3)
    1b7c:	00004a06 	andeq	r4, r0, r6, lsl #20
    1b80:	05020300 	streq	r0, [r2, #-768]	; 0xfffffd00
    1b84:	00000192 	muleq	r0, r2, r1
    1b88:	6e050403 	cdpvs	4, 0, cr0, cr5, cr3, {0}
    1b8c:	03000001 	movweq	r0, #1
    1b90:	01690508 	cmneq	r9, r8, lsl #10
    1b94:	01030000 	mrseq	r0, (UNDEF: 3)
    1b98:	00004808 	andeq	r4, r0, r8, lsl #16
    1b9c:	07020300 	streq	r0, [r2, -r0, lsl #6]
    1ba0:	00000063 	andeq	r0, r0, r3, rrx
    1ba4:	4e070403 	cdpmi	4, 0, cr0, cr7, cr3, {0}
    1ba8:	03000001 	movweq	r0, #1
    1bac:	01490708 	cmpeq	r9, r8, lsl #14
    1bb0:	25040000 	strcs	r0, [r4, #-0]
    1bb4:	7a000000 	bvc	1bbc <__code_start__-0x6444>
    1bb8:	05000000 	streq	r0, [r0, #-0]
    1bbc:	00000025 	andeq	r0, r0, r5, lsr #32
    1bc0:	01770600 	cmneq	r7, r0, lsl #12
    1bc4:	1c020000 	stcne	0, cr0, [r2], {-0}
    1bc8:	0000860e 	andeq	r8, r0, lr, lsl #12
    1bcc:	6b040700 	blvs	1037d4 <__bss_end__+0xf9d8c>
    1bd0:	04000000 	streq	r0, [r0], #-0
    1bd4:	00000025 	andeq	r0, r0, r5, lsr #32
    1bd8:	0000009b 	muleq	r0, fp, r0
    1bdc:	00009b05 	andeq	r9, r0, r5, lsl #22
    1be0:	04070000 	streq	r0, [r7], #-0
    1be4:	000000a8 	andeq	r0, r0, r8, lsr #1
    1be8:	51080103 	tstpl	r8, r3, lsl #2
    1bec:	08000000 	stmdaeq	r0, {}	; <UNPREDICTABLE>
    1bf0:	000000a1 	andeq	r0, r0, r1, lsr #1
    1bf4:	00031106 	andeq	r1, r3, r6, lsl #2
    1bf8:	0e210200 	cdpeq	2, 2, cr0, cr1, cr0, {0}
    1bfc:	000000b9 	strheq	r0, [r0], -r9
    1c00:	008c0407 	addeq	r0, ip, r7, lsl #8
    1c04:	76090000 	strvc	r0, [r9], -r0
    1c08:	01000005 	tsteq	r0, r5
    1c0c:	8e88061e 	mcrhi	6, 4, r0, cr8, cr14, {0}
    1c10:	00540000 	subseq	r0, r4, r0
    1c14:	9c010000 	stcls	0, cr0, [r1], {-0}
    1c18:	0000020b 	andeq	r0, r0, fp, lsl #4
    1c1c:	6365730a 	cmnvs	r5, #671088640	; 0x28000000
    1c20:	191e0100 	ldmdbne	lr, {r8}
    1c24:	0000002c 	andeq	r0, r0, ip, lsr #32
    1c28:	000019a9 	andeq	r1, r0, r9, lsr #19
    1c2c:	000019a5 	andeq	r1, r0, r5, lsr #19
    1c30:	00020b0b 	andeq	r0, r2, fp, lsl #22
    1c34:	008e8800 	addeq	r8, lr, r0, lsl #16
    1c38:	03000200 	movweq	r0, #512	; 0x200
    1c3c:	1f010000 	svcne	0x00010000
    1c40:	02180c05 	andseq	r0, r8, #1280	; 0x500
    1c44:	19ce0000 	stmibne	lr, {}^	; <UNPREDICTABLE>
    1c48:	19ca0000 	stmibne	sl, {}^	; <UNPREDICTABLE>
    1c4c:	240d0000 	strcs	r0, [sp], #-0
    1c50:	9c000002 	stcls	0, cr0, [r0], {2}
    1c54:	0000008e 	andeq	r0, r0, lr, lsl #1
    1c58:	00008e9c 	muleq	r0, ip, lr
    1c5c:	00000040 	andeq	r0, r0, r0, asr #32
    1c60:	0c051c01 	stceq	12, cr1, [r5], {1}
    1c64:	00000231 	andeq	r0, r0, r1, lsr r2
    1c68:	000019fb 	strdeq	r1, [r0], -fp
    1c6c:	000019f9 	strdeq	r1, [r0], -r9
    1c70:	00023c0e 	andeq	r3, r2, lr, lsl #24
    1c74:	001a1000 	andseq	r1, sl, r0
    1c78:	001a0e00 	andseq	r0, sl, r0, lsl #28
    1c7c:	02550f00 	subseq	r0, r5, #0, 30
    1c80:	8e9c0000 	cdphi	0, 9, cr0, cr12, cr0, {0}
    1c84:	9c020000 	stcls	0, cr0, [r2], {-0}
    1c88:	1400008e 	strne	r0, [r0], #-142	; 0xffffff72
    1c8c:	01000000 	mrseq	r0, (UNDEF: 0)
    1c90:	019c1313 	orrseq	r1, ip, r3, lsl r3
    1c94:	660e0000 	strvs	r0, [lr], -r0
    1c98:	27000002 	strcs	r0, [r0, -r2]
    1c9c:	2300001a 	movwcs	r0, #26
    1ca0:	0f00001a 	svceq	0x0000001a
    1ca4:	00000271 	andeq	r0, r0, r1, ror r2
    1ca8:	00008ea0 	andeq	r8, r0, r0, lsr #29
    1cac:	008ea001 	addeq	sl, lr, r1
    1cb0:	00000c00 	andeq	r0, r0, r0, lsl #24
    1cb4:	120d0100 	andne	r0, sp, #0
    1cb8:	00000189 	andeq	r0, r0, r9, lsl #3
    1cbc:	008ea810 	addeq	sl, lr, r0, lsl r8
    1cc0:	00052a00 	andeq	r2, r5, r0, lsl #20
    1cc4:	50011100 	andpl	r1, r1, r0, lsl #2
    1cc8:	30040c05 	andcc	r0, r4, r5, lsl #24
    1ccc:	00002000 	andeq	r2, r0, r0
    1cd0:	008ea012 	addeq	sl, lr, r2, lsl r0
    1cd4:	00053600 	andeq	r3, r5, r0, lsl #12
    1cd8:	8eb01200 	cdphi	2, 11, cr1, cr0, cr0, {0}
    1cdc:	05360000 	ldreq	r0, [r6, #-0]!
    1ce0:	13000000 	movwne	r0, #0
    1ce4:	00000247 	andeq	r0, r0, r7, asr #4
    1ce8:	00000318 	andeq	r0, r0, r8, lsl r3
    1cec:	00024814 	andeq	r4, r2, r4, lsl r8
    1cf0:	02550b00 	subseq	r0, r5, #0, 22
    1cf4:	8eb40000 	cdphi	0, 11, cr0, cr4, cr0, {0}
    1cf8:	30020000 	andcc	r0, r2, r0
    1cfc:	01000003 	tsteq	r0, r3
    1d00:	30151715 	andscc	r1, r5, r5, lsl r7
    1d04:	0e000003 	cdpeq	0, 0, cr0, cr0, cr3, {0}
    1d08:	00000266 	andeq	r0, r0, r6, ror #4
    1d0c:	00001a47 	andeq	r1, r0, r7, asr #20
    1d10:	00001a45 	andeq	r1, r0, r5, asr #20
    1d14:	00027116 	andeq	r7, r2, r6, lsl r1
    1d18:	008eb800 	addeq	fp, lr, r0, lsl #16
    1d1c:	03500100 	cmpeq	r0, #0
    1d20:	0d010000 	stceq	0, cr0, [r1, #-0]
    1d24:	0001f312 	andeq	pc, r1, r2, lsl r3	; <UNPREDICTABLE>
    1d28:	8ec01000 	cdphi	0, 12, cr1, cr0, cr0, {0}
    1d2c:	052a0000 	streq	r0, [sl, #-0]!
    1d30:	01110000 	tsteq	r1, r0
    1d34:	00770250 	rsbseq	r0, r7, r0, asr r2
    1d38:	b8120000 	ldmdalt	r2, {}	; <UNPREDICTABLE>
    1d3c:	3600008e 	strcc	r0, [r0], -lr, lsl #1
    1d40:	12000005 	andne	r0, r0, #5, 0
    1d44:	00008ecc 	andeq	r8, r0, ip, asr #29
    1d48:	00000536 	andeq	r0, r0, r6, lsr r5
    1d4c:	00000000 	andeq	r0, r0, r0
    1d50:	5e170000 	cdppl	0, 1, cr0, cr7, cr0, {0}
    1d54:	01000004 	tsteq	r0, r4
    1d58:	2401061b 	strcs	r0, [r1], #-1563	; 0xfffff9e5
    1d5c:	18000002 	stmdane	r0, {r1}
    1d60:	0100736d 	tsteq	r0, sp, ror #6
    1d64:	002c181b 	eoreq	r1, ip, fp, lsl r8
    1d68:	17000000 	strne	r0, [r0, -r0]
    1d6c:	000005a9 	andeq	r0, r0, r9, lsr #11
    1d70:	01061201 	tsteq	r6, r1, lsl #4
    1d74:	00000255 	andeq	r0, r0, r5, asr r2
    1d78:	00737518 	rsbseq	r7, r3, r8, lsl r5
    1d7c:	2c181201 	lfmcs	f1, 4, [r8], {1}
    1d80:	19000000 	stmdbne	r0, {}	; <UNPREDICTABLE>
    1d84:	01006272 	tsteq	r0, r2, ror r2
    1d88:	002c0e13 	eoreq	r0, ip, r3, lsl lr
    1d8c:	191a0000 	ldmdbne	sl, {}	; <UNPREDICTABLE>
    1d90:	01006172 	tsteq	r0, r2, ror r1
    1d94:	002c1215 	eoreq	r1, ip, r5, lsl r2
    1d98:	00000000 	andeq	r0, r0, r0
    1d9c:	00059a1b 	andeq	r9, r5, fp, lsl sl
    1da0:	0a090100 	beq	2421a8 <__bss_end__+0x238760>
    1da4:	0000002c 	andeq	r0, r0, ip, lsr #32
    1da8:	00027101 	andeq	r7, r2, r1, lsl #2
    1dac:	00751900 	rsbseq	r1, r5, r0, lsl #18
    1db0:	2c0e0d01 	stccs	13, cr0, [lr], {1}
    1db4:	00000000 	andeq	r0, r0, r0
    1db8:	0005b21c 	andeq	fp, r5, ip, lsl r2
    1dbc:	0a040100 	beq	1021c4 <__bss_end__+0xf877c>
    1dc0:	0000002c 	andeq	r0, r0, ip, lsr #32
    1dc4:	02711d01 	rsbseq	r1, r1, #64	; 0x40
    1dc8:	8dc00000 	stclhi	0, cr0, [r0]
    1dcc:	000c0000 	andeq	r0, ip, r0
    1dd0:	9c010000 	stcls	0, cr0, [r1], {-0}
    1dd4:	000002a5 	andeq	r0, r0, r5, lsr #5
    1dd8:	008dc81e 	addeq	ip, sp, lr, lsl r8
    1ddc:	00052a00 	andeq	r2, r5, r0, lsl #20
    1de0:	50011100 	andpl	r1, r1, r0, lsl #2
    1de4:	30040c05 	andcc	r0, r4, r5, lsl #24
    1de8:	00002000 	andeq	r2, r0, r0
    1dec:	0002551d 	andeq	r5, r2, sp, lsl r5
    1df0:	008dcc00 	addeq	ip, sp, r0, lsl #24
    1df4:	00002400 	andeq	r2, r0, r0, lsl #8
    1df8:	059c0100 	ldreq	r0, [ip, #256]	; 0x100
    1dfc:	0e000003 	cdpeq	0, 0, cr0, cr0, cr3, {0}
    1e00:	00000266 	andeq	r0, r0, r6, ror #4
    1e04:	00001a5e 	andeq	r1, r0, lr, asr sl
    1e08:	00001a5a 	andeq	r1, r0, sl, asr sl
    1e0c:	0002710f 	andeq	r7, r2, pc, lsl #2
    1e10:	008dd400 	addeq	sp, sp, r0, lsl #8
    1e14:	8dd40100 	ldfhie	f0, [r4]
    1e18:	000c0000 	andeq	r0, ip, r0
    1e1c:	0d010000 	stceq	0, cr0, [r1, #-0]
    1e20:	0002f212 	andeq	pc, r2, r2, lsl r2	; <UNPREDICTABLE>
    1e24:	8ddc1000 	ldclhi	0, cr1, [ip]
    1e28:	052a0000 	streq	r0, [sl, #-0]!
    1e2c:	01110000 	tsteq	r1, r0
    1e30:	040c0550 	streq	r0, [ip], #-1360	; 0xfffffab0
    1e34:	00200030 	eoreq	r0, r0, r0, lsr r0
    1e38:	8dd41200 	lfmhi	f1, 2, [r4]
    1e3c:	05360000 	ldreq	r0, [r6, #-0]!
    1e40:	e4120000 	ldr	r0, [r2], #-0
    1e44:	3600008d 	strcc	r0, [r0], -sp, lsl #1
    1e48:	00000005 	andeq	r0, r0, r5
    1e4c:	0002241d 	andeq	r2, r2, sp, lsl r4
    1e50:	008df000 	addeq	pc, sp, r0
    1e54:	00004800 	andeq	r4, r0, r0, lsl #16
    1e58:	079c0100 	ldreq	r0, [ip, r0, lsl #2]
    1e5c:	0c000004 	stceq	0, cr0, [r0], {4}
    1e60:	00000231 	andeq	r0, r0, r1, lsr r2
    1e64:	00001a80 	andeq	r1, r0, r0, lsl #21
    1e68:	00001a7c 	andeq	r1, r0, ip, ror sl
    1e6c:	00023c0e 	andeq	r3, r2, lr, lsl #24
    1e70:	001aa000 	andseq	sl, sl, r0
    1e74:	001a9e00 	andseq	r9, sl, r0, lsl #28
    1e78:	02551600 	subseq	r1, r5, #0, 12
    1e7c:	8df00000 	ldclhi	0, cr0, [r0]
    1e80:	48020000 	stmdami	r2, {}	; <UNPREDICTABLE>
    1e84:	01000002 	tsteq	r0, r2
    1e88:	039a1313 	orrseq	r1, sl, #1275068416	; 0x4c000000
    1e8c:	48150000 	ldmdami	r5, {}	; <UNPREDICTABLE>
    1e90:	0e000002 	cdpeq	0, 0, cr0, cr0, cr2, {0}
    1e94:	00000266 	andeq	r0, r0, r6, ror #4
    1e98:	00001ab7 			; <UNDEFINED> instruction: 0x00001ab7
    1e9c:	00001ab3 			; <UNDEFINED> instruction: 0x00001ab3
    1ea0:	0002710f 	andeq	r7, r2, pc, lsl #2
    1ea4:	008dfc00 	addeq	pc, sp, r0, lsl #24
    1ea8:	8dfc0100 	ldfhie	f0, [ip]
    1eac:	000c0000 	andeq	r0, ip, r0
    1eb0:	0d010000 	stceq	0, cr0, [r1, #-0]
    1eb4:	00038612 	andeq	r8, r3, r2, lsl r6
    1eb8:	8e041000 	cdphi	0, 0, cr1, cr4, cr0, {0}
    1ebc:	052a0000 	streq	r0, [sl, #-0]!
    1ec0:	01110000 	tsteq	r1, r0
    1ec4:	040c0550 	streq	r0, [ip], #-1360	; 0xfffffab0
    1ec8:	00200030 	eoreq	r0, r0, r0, lsr r0
    1ecc:	8dfc1200 	lfmhi	f1, 2, [ip]
    1ed0:	05360000 	ldreq	r0, [r6, #-0]!
    1ed4:	0c120000 	ldceq	0, cr0, [r2], {-0}
    1ed8:	3600008e 	strcc	r0, [r0], -lr, lsl #1
    1edc:	00000005 	andeq	r0, r0, r5
    1ee0:	02471300 	subeq	r1, r7, #0, 6
    1ee4:	02600000 	rsbeq	r0, r0, #0, 0
    1ee8:	48140000 	ldmdami	r4, {}	; <UNPREDICTABLE>
    1eec:	0b000002 	bleq	1efc <__code_start__-0x6104>
    1ef0:	00000255 	andeq	r0, r0, r5, asr r2
    1ef4:	00008e10 	andeq	r8, r0, r0, lsl lr
    1ef8:	00027802 	andeq	r7, r2, r2, lsl #16
    1efc:	17150100 	ldrne	r0, [r5, -r0, lsl #2]
    1f00:	00027815 	andeq	r7, r2, r5, lsl r8
    1f04:	02660e00 	rsbeq	r0, r6, #0, 28
    1f08:	1ad70000 	bne	ff5c1f10 <__bss_end__+0xff5b84c8>
    1f0c:	1ad50000 	bne	ff541f14 <__bss_end__+0xff5384cc>
    1f10:	71160000 	tstvc	r6, r0
    1f14:	14000002 	strne	r0, [r0], #-2
    1f18:	0100008e 	smlabbeq	r0, lr, r0, r0
    1f1c:	00000298 	muleq	r0, r8, r2
    1f20:	f1120d01 			; <UNDEFINED> instruction: 0xf1120d01
    1f24:	10000003 	andne	r0, r0, r3
    1f28:	00008e1c 	andeq	r8, r0, ip, lsl lr
    1f2c:	0000052a 	andeq	r0, r0, sl, lsr #10
    1f30:	02500111 	subseq	r0, r0, #1073741828	; 0x40000004
    1f34:	00000077 	andeq	r0, r0, r7, ror r0
    1f38:	008e1412 	addeq	r1, lr, r2, lsl r4
    1f3c:	00053600 	andeq	r3, r5, r0, lsl #12
    1f40:	8e281200 	cdphi	2, 2, cr1, cr8, cr0, {0}
    1f44:	05360000 	ldreq	r0, [r6, #-0]!
    1f48:	00000000 	andeq	r0, r0, r0
    1f4c:	0b1d0000 	bleq	741f54 <__bss_end__+0x73850c>
    1f50:	38000002 	stmdacc	r0, {r1}
    1f54:	5000008e 	andpl	r0, r0, lr, lsl #1
    1f58:	01000000 	mrseq	r0, (UNDEF: 0)
    1f5c:	00052a9c 	muleq	r5, ip, sl
    1f60:	02180c00 	andseq	r0, r8, #0, 24
    1f64:	1aee0000 	bne	ffb81f6c <__bss_end__+0xffb78524>
    1f68:	1aea0000 	bne	ffa81f70 <__bss_end__+0xffa78528>
    1f6c:	240d0000 	strcs	r0, [sp], #-0
    1f70:	48000002 	stmdami	r0, {r1}
    1f74:	0000008e 	andeq	r0, r0, lr, lsl #1
    1f78:	00008e48 	andeq	r8, r0, r8, asr #28
    1f7c:	00000040 	andeq	r0, r0, r0, asr #32
    1f80:	0c051c01 	stceq	12, cr1, [r5], {1}
    1f84:	00000231 	andeq	r0, r0, r1, lsr r2
    1f88:	00001b11 	andeq	r1, r0, r1, lsl fp
    1f8c:	00001b0f 	andeq	r1, r0, pc, lsl #22
    1f90:	00023c0e 	andeq	r3, r2, lr, lsl #24
    1f94:	001b2600 	andseq	r2, fp, r0, lsl #12
    1f98:	001b2400 	andseq	r2, fp, r0, lsl #8
    1f9c:	02550f00 	subseq	r0, r5, #0, 30
    1fa0:	8e480000 	cdphi	0, 4, cr0, cr8, cr0, {0}
    1fa4:	48020000 	stmdami	r2, {}	; <UNPREDICTABLE>
    1fa8:	1400008e 	strne	r0, [r0], #-142	; 0xffffff72
    1fac:	01000000 	mrseq	r0, (UNDEF: 0)
    1fb0:	04bc1313 	ldrteq	r1, [ip], #787	; 0x313
    1fb4:	660e0000 	strvs	r0, [lr], -r0
    1fb8:	3d000002 	stccc	0, cr0, [r0, #-8]
    1fbc:	3900001b 	stmdbcc	r0, {r0, r1, r3, r4}
    1fc0:	0f00001b 	svceq	0x0000001b
    1fc4:	00000271 	andeq	r0, r0, r1, ror r2
    1fc8:	00008e4c 	andeq	r8, r0, ip, asr #28
    1fcc:	008e4c01 	addeq	r4, lr, r1, lsl #24
    1fd0:	00000c00 	andeq	r0, r0, r0, lsl #24
    1fd4:	120d0100 	andne	r0, sp, #0
    1fd8:	000004a9 	andeq	r0, r0, r9, lsr #9
    1fdc:	008e5410 	addeq	r5, lr, r0, lsl r4
    1fe0:	00052a00 	andeq	r2, r5, r0, lsl #20
    1fe4:	50011100 	andpl	r1, r1, r0, lsl #2
    1fe8:	30040c05 	andcc	r0, r4, r5, lsl #24
    1fec:	00002000 	andeq	r2, r0, r0
    1ff0:	008e4c12 	addeq	r4, lr, r2, lsl ip
    1ff4:	00053600 	andeq	r3, r5, r0, lsl #12
    1ff8:	8e5c1200 	cdphi	2, 5, cr1, cr12, cr0, {0}
    1ffc:	05360000 	ldreq	r0, [r6, #-0]!
    2000:	13000000 	movwne	r0, #0
    2004:	00000247 	andeq	r0, r0, r7, asr #4
    2008:	000002b0 			; <UNDEFINED> instruction: 0x000002b0
    200c:	00024814 	andeq	r4, r2, r4, lsl r8
    2010:	02550b00 	subseq	r0, r5, #0, 22
    2014:	8e600000 	cdphi	0, 6, cr0, cr0, cr0, {0}
    2018:	c8020000 	stmdagt	r2, {}	; <UNPREDICTABLE>
    201c:	01000002 	tsteq	r0, r2
    2020:	c8151715 	ldmdagt	r5, {r0, r2, r4, r8, r9, sl, ip}
    2024:	0e000002 	cdpeq	0, 0, cr0, cr0, cr2, {0}
    2028:	00000266 	andeq	r0, r0, r6, ror #4
    202c:	00001b5d 	andeq	r1, r0, sp, asr fp
    2030:	00001b5b 	andeq	r1, r0, fp, asr fp
    2034:	00027116 	andeq	r7, r2, r6, lsl r1
    2038:	008e6400 	addeq	r6, lr, r0, lsl #8
    203c:	02e80100 	rsceq	r0, r8, #0
    2040:	0d010000 	stceq	0, cr0, [r1, #-0]
    2044:	00051312 	andeq	r1, r5, r2, lsl r3
    2048:	8e6c1000 	cdphi	0, 6, cr1, cr12, cr0, {0}
    204c:	052a0000 	streq	r0, [sl, #-0]!
    2050:	01110000 	tsteq	r1, r0
    2054:	00770250 	rsbseq	r0, r7, r0, asr r2
    2058:	64120000 	ldrvs	r0, [r2], #-0
    205c:	3600008e 	strcc	r0, [r0], -lr, lsl #1
    2060:	12000005 	andne	r0, r0, #5, 0
    2064:	00008e78 	andeq	r8, r0, r8, ror lr
    2068:	00000536 	andeq	r0, r0, r6, lsr r5
    206c:	00000000 	andeq	r0, r0, r0
    2070:	05941f00 	ldreq	r1, [r4, #3840]	; 0xf00
    2074:	05940000 	ldreq	r0, [r4]
    2078:	c2020000 	andgt	r0, r2, #0, 0
    207c:	056a1f0a 	strbeq	r1, [sl, #-3850]!	; 0xfffff0f6
    2080:	056a0000 	strbeq	r0, [sl, #-0]!
    2084:	9c020000 	stcls	0, cr0, [r2], {-0}
    2088:	05cd0006 	strbeq	r0, [sp, #6]
    208c:	00040000 	andeq	r0, r4, r0
    2090:	00000ced 	andeq	r0, r0, sp, ror #25
    2094:	068e0104 	streq	r0, [lr], r4, lsl #2
    2098:	f20c0000 	vhadd.s8	d0, d12, d0
    209c:	6c000005 	stcvs	0, cr0, [r0], {5}
    20a0:	dc000007 	stcle	0, cr0, [r0], {7}
    20a4:	f000008e 			; <UNDEFINED> instruction: 0xf000008e
    20a8:	f1000001 	cps	#1
    20ac:	02000012 	andeq	r0, r0, #18, 0
    20b0:	6e690504 	cdpvs	5, 6, cr0, cr9, cr4, {0}
    20b4:	04030074 	streq	r0, [r3], #-116	; 0xffffff8c
    20b8:	00015307 	andeq	r5, r1, r7, lsl #6
    20bc:	002c0400 	eoreq	r0, ip, r0, lsl #8
    20c0:	01030000 	mrseq	r0, (UNDEF: 3)
    20c4:	00004a06 	andeq	r4, r0, r6, lsl #20
    20c8:	05020300 	streq	r0, [r2, #-768]	; 0xfffffd00
    20cc:	00000192 	muleq	r0, r2, r1
    20d0:	6e050403 	cdpvs	4, 0, cr0, cr5, cr3, {0}
    20d4:	03000001 	movweq	r0, #1
    20d8:	01690508 	cmneq	r9, r8, lsl #10
    20dc:	01030000 	mrseq	r0, (UNDEF: 3)
    20e0:	00004808 	andeq	r4, r0, r8, lsl #16
    20e4:	07020300 	streq	r0, [r2, -r0, lsl #6]
    20e8:	00000063 	andeq	r0, r0, r3, rrx
    20ec:	00039b05 	andeq	r9, r3, r5, lsl #22
    20f0:	19340500 	ldmdbne	r4!, {r8, sl}
    20f4:	0000006e 	andeq	r0, r0, lr, rrx
    20f8:	4e070403 	cdpmi	4, 0, cr0, cr7, cr3, {0}
    20fc:	03000001 	movweq	r0, #1
    2100:	01490708 	cmpeq	r9, r8, lsl #14
    2104:	01030000 	mrseq	r0, (UNDEF: 3)
    2108:	00005108 	andeq	r5, r0, r8, lsl #2
    210c:	01070600 	tsteq	r7, r0, lsl #12
    2110:	00000054 	andeq	r0, r0, r4, asr r0
    2114:	c20e0c04 	andgt	r0, lr, #4, 24	; 0x400
    2118:	07000000 	streq	r0, [r0, -r0]
    211c:	000007a9 	andeq	r0, r0, r9, lsr #15
    2120:	05e10700 	strbeq	r0, [r1, #1792]!	; 0x700
    2124:	07010000 	streq	r0, [r1, -r0]
    2128:	00000622 	andeq	r0, r0, r2, lsr #12
    212c:	06310704 	ldrteq	r0, [r1], -r4, lsl #14
    2130:	07050000 	streq	r0, [r5, -r0]
    2134:	00000640 	andeq	r0, r0, r0, asr #12
    2138:	064f0706 	strbeq	r0, [pc], -r6, lsl #14
    213c:	07070000 	streq	r0, [r7, -r0]
    2140:	00000741 	andeq	r0, r0, r1, asr #14
    2144:	065e0703 	ldrbeq	r0, [lr], -r3, lsl #14
    2148:	00020000 	andeq	r0, r2, r0
    214c:	00076008 	andeq	r6, r7, r8
    2150:	06022c00 	streq	r2, [r2], -r0, lsl #24
    2154:	00015e08 	andeq	r5, r1, r8, lsl #28
    2158:	6f690900 	svcvs	0x00690900
    215c:	09090200 	stmdbeq	r9, {r9}
    2160:	00000033 	andeq	r0, r0, r3, lsr r0
    2164:	65690900 	strbvs	r0, [r9, #-2304]!	; 0xfffff700
    2168:	0a020072 	beq	82338 <__bss_end__+0x788f0>
    216c:	00003309 	andeq	r3, r0, r9, lsl #6
    2170:	69090400 	stmdbvs	r9, {sl}
    2174:	02007269 	andeq	r7, r0, #-1879048186	; 0x90000006
    2178:	00330911 	eorseq	r0, r3, r1, lsl r9
    217c:	09080000 	stmdbeq	r8, {}	; <UNPREDICTABLE>
    2180:	0072636c 	rsbseq	r6, r2, ip, ror #6
    2184:	33091302 	movwcc	r1, #37634	; 0x9302
    2188:	0c000000 	stceq	0, cr0, [r0], {-0}
    218c:	72636d09 	rsbvc	r6, r3, #576	; 0x240
    2190:	09140200 	ldmdbeq	r4, {r9}
    2194:	00000033 	andeq	r0, r0, r3, lsr r0
    2198:	736c0910 	cmnvc	ip, #16, 18	; 0x40000
    219c:	15020072 	strne	r0, [r2, #-114]	; 0xffffff8e
    21a0:	00003309 	andeq	r3, r0, r9, lsl #6
    21a4:	6d091400 	cfstrsvs	mvf1, [r9, #-0]
    21a8:	02007273 	andeq	r7, r0, #805306375	; 0x30000007
    21ac:	00330916 	eorseq	r0, r3, r6, lsl r9
    21b0:	0a180000 	beq	6021b8 <__bss_end__+0x5f8770>
    21b4:	00000758 	andeq	r0, r0, r8, asr r7
    21b8:	33091702 	movwcc	r1, #38658	; 0x9702
    21bc:	1c000000 	stcne	0, cr0, [r0], {-0}
    21c0:	0007210a 	andeq	r2, r7, sl, lsl #2
    21c4:	091b0200 	ldmdbeq	fp, {r9}
    21c8:	00000033 	andeq	r0, r0, r3, lsr r0
    21cc:	05ce0a20 	strbeq	r0, [lr, #2592]	; 0xa20
    21d0:	1d020000 	stcne	0, cr0, [r2, #-0]
    21d4:	00003309 	andeq	r3, r0, r9, lsl #6
    21d8:	730a2400 	movwvc	r2, #41984	; 0xa400
    21dc:	02000006 	andeq	r0, r0, #6, 0
    21e0:	0033091e 	eorseq	r0, r3, lr, lsl r9
    21e4:	00280000 	eoreq	r0, r8, r0
    21e8:	0006780b 	andeq	r7, r6, fp, lsl #16
    21ec:	09080100 	stmdbeq	r8, {r8}
    21f0:	00000174 	andeq	r0, r0, r4, ror r1
    21f4:	20215004 	eorcs	r5, r1, r4
    21f8:	0033040c 	eorseq	r0, r3, ip, lsl #8
    21fc:	6e0d0000 	cdpvs	0, 0, cr0, cr13, cr0, {0}
    2200:	0b000001 	bleq	220c <__code_start__-0x5df4>
    2204:	00000607 	andeq	r0, r0, r7, lsl #12
    2208:	8f232901 	svchi	0x00232901
    220c:	40000001 	andmi	r0, r0, r1
    2210:	0c202150 	stfeqs	f2, [r0], #-320	; 0xfffffec0
    2214:	0000c204 	andeq	ip, r0, r4, lsl #4
    2218:	01890d00 	orreq	r0, r9, r0, lsl #26
    221c:	820e0000 	andhi	r0, lr, #0, 0
    2220:	01000004 	tsteq	r0, r4
    2224:	909406cc 	addsls	r0, r4, ip, asr #13
    2228:	00140000 	andseq	r0, r4, r0
    222c:	9c010000 	stcls	0, cr0, [r1], {-0}
    2230:	000001b4 			; <UNDEFINED> instruction: 0x000001b4
    2234:	00909c0f 	addseq	r9, r0, pc, lsl #24
    2238:	0001b400 	andeq	fp, r1, r0, lsl #8
    223c:	11100000 	tstne	r0, r0
    2240:	01000006 	tsteq	r0, r6
    2244:	002505b6 	strhteq	r0, [r5], -r6
    2248:	90740000 	rsbsls	r0, r4, r0
    224c:	00200000 	eoreq	r0, r0, r0
    2250:	9c010000 	stcls	0, cr0, [r1], {-0}
    2254:	000001eb 	andeq	r0, r0, fp, ror #3
    2258:	00907c0f 	addseq	r7, r0, pc, lsl #24
    225c:	0005a000 	andeq	sl, r5, r0
    2260:	90841100 	addls	r1, r4, r0, lsl #2
    2264:	05ac0000 	streq	r0, [ip, #0]!
    2268:	01120000 	tsteq	r2, r0
    226c:	640c0550 	strvs	r0, [ip], #-1360	; 0xfffffab0
    2270:	00202150 	eoreq	r2, r0, r0, asr r1
    2274:	07331000 	ldreq	r1, [r3, -r0]!
    2278:	b3010000 	movwlt	r0, #4096	; 0x1000
    227c:	00002505 	andeq	r2, r0, r5, lsl #10
    2280:	00906400 	addseq	r6, r0, r0, lsl #8
    2284:	00001000 	andeq	r1, r0, r0
    2288:	189c0100 	ldmne	ip, {r8}
    228c:	0f000002 	svceq	0x00000002
    2290:	0000906c 	andeq	r9, r0, ip, rrx
    2294:	000005a0 	andeq	r0, r0, r0, lsr #11
    2298:	0090700f 	addseq	r7, r0, pc
    229c:	00030900 	andeq	r0, r3, r0, lsl #18
    22a0:	fe0e0000 	cdp2	0, 0, cr0, cr14, cr0, {0}
    22a4:	01000002 	tsteq	r0, r2
    22a8:	903406ab 	eorsls	r0, r4, fp, lsr #13
    22ac:	00300000 	eorseq	r0, r0, r0
    22b0:	9c010000 	stcls	0, cr0, [r1], {-0}
    22b4:	0000027c 	andeq	r0, r0, ip, ror r2
    22b8:	01006313 	tsteq	r0, r3, lsl r3
    22bc:	002c19ab 	eoreq	r1, ip, fp, lsr #19
    22c0:	1b740000 	blne	1d022c8 <__bss_end__+0x1cf8880>
    22c4:	1b700000 	blne	1c022cc <__bss_end__+0x1bf8884>
    22c8:	400f0000 	andmi	r0, pc, r0
    22cc:	a0000090 	mulge	r0, r0, r0
    22d0:	0f000005 	svceq	0x00000005
    22d4:	00009044 	andeq	r9, r0, r4, asr #32
    22d8:	000002db 	ldrdeq	r0, [r0], -fp
    22dc:	00905814 	addseq	r5, r0, r4, lsl r8
    22e0:	0005b800 	andeq	fp, r5, r0, lsl #16
    22e4:	00027200 	andeq	r7, r2, r0, lsl #4
    22e8:	50011200 	andpl	r1, r1, r0, lsl #4
    22ec:	50400c05 	subpl	r0, r0, r5, lsl #24
    22f0:	01122021 	tsteq	r2, r1, lsr #32
    22f4:	00740551 	rsbseq	r0, r4, r1, asr r5
    22f8:	001aff08 	andseq	pc, sl, r8, lsl #30
    22fc:	00905c0f 	addseq	r5, r0, pc, lsl #24
    2300:	0005a000 	andeq	sl, r5, r0
    2304:	84100000 	ldrhi	r0, [r0], #-0
    2308:	01000006 	tsteq	r0, r6
    230c:	002505a3 	eoreq	r0, r5, r3, lsr #11
    2310:	90040000 	andls	r0, r4, r0
    2314:	00300000 	eorseq	r0, r0, r0
    2318:	9c010000 	stcls	0, cr0, [r1], {-0}
    231c:	000002db 	ldrdeq	r0, [r0], -fp
    2320:	01006315 	tsteq	r0, r5, lsl r3
    2324:	002509a7 	eoreq	r0, r5, r7, lsr #19
    2328:	1b940000 	blne	fe502330 <__bss_end__+0xfe4f88e8>
    232c:	1b920000 	blne	fe482334 <__bss_end__+0xfe4788ec>
    2330:	0c0f0000 	stceq	0, cr0, [pc], {-0}
    2334:	a0000090 	mulge	r0, r0, r0
    2338:	0f000005 	svceq	0x00000005
    233c:	00009010 	andeq	r9, r0, r0, lsl r0
    2340:	00000309 	andeq	r0, r0, r9, lsl #6
    2344:	00902014 	addseq	r2, r0, r4, lsl r0
    2348:	0005ac00 	andeq	sl, r5, r0, lsl #24
    234c:	0002d100 	andeq	sp, r2, r0, lsl #2
    2350:	50011200 	andpl	r1, r1, r0, lsl #4
    2354:	50400c05 	subpl	r0, r0, r5, lsl #24
    2358:	0f002021 	svceq	0x00002021
    235c:	00009028 	andeq	r9, r0, r8, lsr #32
    2360:	000005a0 	andeq	r0, r0, r0, lsr #11
    2364:	05f91000 	ldrbeq	r1, [r9, #0]!
    2368:	94010000 	strls	r0, [r1], #-0
    236c:	00002505 	andeq	r2, r0, r5, lsl #10
    2370:	008fe400 	addeq	lr, pc, r0, lsl #8
    2374:	00002000 	andeq	r2, r0, r0
    2378:	099c0100 	ldmibeq	ip, {r8}
    237c:	11000003 	tstne	r0, r3
    2380:	00008ff0 	strdeq	r8, [r0], -r0
    2384:	000005ac 	andeq	r0, r0, ip, lsr #11
    2388:	05500112 	ldrbeq	r0, [r0, #-274]	; 0xfffffeee
    238c:	2150640c 	cmpcs	r0, ip, lsl #8
    2390:	10000020 	andne	r0, r0, r0, lsr #32
    2394:	000005d3 	ldrdeq	r0, [r0], -r3
    2398:	25058b01 	strcs	r8, [r5, #-2817]	; 0xfffff4ff
    239c:	cc000000 	stcgt	0, cr0, [r0], {-0}
    23a0:	1800008f 	stmdane	r0, {r0, r1, r2, r3, r7}
    23a4:	01000000 	mrseq	r0, (UNDEF: 0)
    23a8:	0003379c 	muleq	r3, ip, r7
    23ac:	8fd81100 	svchi	0x00d81100
    23b0:	05ac0000 	streq	r0, [ip, #0]!
    23b4:	01120000 	tsteq	r2, r0
    23b8:	640c0550 	strvs	r0, [ip], #-1360	; 0xfffffab0
    23bc:	00202150 	eoreq	r2, r0, r0, asr r1
    23c0:	04a00e00 	strteq	r0, [r0], #3584	; 0xe00
    23c4:	45010000 	strmi	r0, [r1, #-0]
    23c8:	008f1c06 	addeq	r1, pc, r6, lsl #24
    23cc:	0000b000 	andeq	fp, r0, r0
    23d0:	849c0100 	ldrhi	r0, [ip], #256	; 0x100
    23d4:	16000004 	strne	r0, [r0], -r4
    23d8:	000005c5 	andeq	r0, r0, r5, asr #11
    23dc:	620e7e01 	andvs	r7, lr, #1, 28
    23e0:	0e000000 	cdpeq	0, 0, cr0, cr0, cr0, {0}
    23e4:	8f2c1401 	svchi	0x002c1401
    23e8:	05c40000 	strbeq	r0, [r4]
    23ec:	03730000 	cmneq	r3, #0, 0
    23f0:	01120000 	tsteq	r2, r0
    23f4:	123e0150 	eorsne	r0, lr, #20
    23f8:	32015101 	andcc	r5, r1, #1073741824	; 0x40000000
    23fc:	8f381400 	svchi	0x00381400
    2400:	05c40000 	strbeq	r0, [r4]
    2404:	038b0000 	orreq	r0, fp, #0, 0
    2408:	01120000 	tsteq	r2, r0
    240c:	123f0150 	eorsne	r0, pc, #20
    2410:	32015101 	andcc	r5, r1, #1073741824	; 0x40000000
    2414:	8f3c0f00 	svchi	0x003c0f00
    2418:	05a00000 	streq	r0, [r0, #0]!
    241c:	48140000 	ldmdami	r4, {}	; <UNPREDICTABLE>
    2420:	3d00008f 	stccc	0, cr0, [r0, #-572]	; 0xfffffdc4
    2424:	b0000005 	andlt	r0, r0, r5
    2428:	12000003 	andne	r0, r0, #3, 0
    242c:	0c055001 	stceq	0, cr5, [r5], {1}
    2430:	20215004 	eorcs	r5, r1, r4
    2434:	01510112 	cmpeq	r1, r2, lsl r1
    2438:	4c0f0031 	stcmi	0, cr0, [pc], {49}	; 0x31
    243c:	a000008f 	andge	r0, r0, pc, lsl #1
    2440:	14000005 	strne	r0, [r0], #-5
    2444:	00008f5c 	andeq	r8, r0, ip, asr pc
    2448:	000005b8 			; <UNDEFINED> instruction: 0x000005b8
    244c:	000003d2 	ldrdeq	r0, [r0], -r2
    2450:	02500112 	subseq	r0, r0, #-2147483644	; 0x80000004
    2454:	01120074 	tsteq	r2, r4, ror r0
    2458:	00300151 	eorseq	r0, r0, r1, asr r1
    245c:	008f6814 	addeq	r6, pc, r4, lsl r8	; <UNPREDICTABLE>
    2460:	0005b800 	andeq	fp, r5, r0, lsl #16
    2464:	0003ee00 	andeq	lr, r3, r0, lsl #28
    2468:	50011200 	andpl	r1, r1, r0, lsl #4
    246c:	50440c05 	subpl	r0, r4, r5, lsl #24
    2470:	01122021 	tsteq	r2, r1, lsr #32
    2474:	00300151 	eorseq	r0, r0, r1, asr r1
    2478:	008f7414 	addeq	r7, pc, r4, lsl r4	; <UNPREDICTABLE>
    247c:	0005b800 	andeq	fp, r5, r0, lsl #16
    2480:	00040a00 	andeq	r0, r4, r0, lsl #20
    2484:	50011200 	andpl	r1, r1, r0, lsl #4
    2488:	504c0c05 	subpl	r0, ip, r5, lsl #24
    248c:	01122021 	tsteq	r2, r1, lsr #32
    2490:	00330151 	eorseq	r0, r3, r1, asr r1
    2494:	008f8014 	addeq	r8, pc, r4, lsl r0	; <UNPREDICTABLE>
    2498:	0005b800 	andeq	fp, r5, r0, lsl #16
    249c:	00042600 	andeq	r2, r4, r0, lsl #12
    24a0:	50011200 	andpl	r1, r1, r0, lsl #4
    24a4:	50500c05 	subspl	r0, r0, r5, lsl #24
    24a8:	01122021 	tsteq	r2, r1, lsr #32
    24ac:	00300151 	eorseq	r0, r0, r1, asr r1
    24b0:	008f8c14 	addeq	r8, pc, r4, lsl ip	; <UNPREDICTABLE>
    24b4:	0005b800 	andeq	fp, r5, r0, lsl #16
    24b8:	00044300 	andeq	r4, r4, r0, lsl #6
    24bc:	50011200 	andpl	r1, r1, r0, lsl #4
    24c0:	50480c05 	subpl	r0, r8, r5, lsl #24
    24c4:	01122021 	tsteq	r2, r1, lsr #32
    24c8:	c7080251 	smlsdgt	r8, r1, r2, r0
    24cc:	8f981400 	svchi	0x00981400
    24d0:	05b80000 	ldreq	r0, [r8, #0]!
    24d4:	04610000 	strbteq	r0, [r1], #-0
    24d8:	01120000 	tsteq	r2, r0
    24dc:	680c0550 	stmdavs	ip, {r4, r6, r8, sl}
    24e0:	12202150 	eorne	r2, r0, #20
    24e4:	0a035101 	beq	d68f0 <__bss_end__+0xccea8>
    24e8:	1400010e 	strne	r0, [r0], #-270	; 0xfffffef2
    24ec:	00008fa4 	andeq	r8, r0, r4, lsr #31
    24f0:	000005b8 			; <UNDEFINED> instruction: 0x000005b8
    24f4:	0000047a 	andeq	r0, r0, sl, ror r4
    24f8:	02500112 	subseq	r0, r0, #-2147483644	; 0x80000004
    24fc:	01120074 	tsteq	r2, r4, ror r0
    2500:	00330151 	eorseq	r0, r3, r1, asr r1
    2504:	008fa80f 	addeq	sl, pc, pc, lsl #16
    2508:	0005a000 	andeq	sl, r5, r0
    250c:	260e0000 	strcs	r0, [lr], -r0
    2510:	01000007 	tsteq	r0, r7
    2514:	90a80635 	adcls	r0, r8, r5, lsr r6
    2518:	00240000 	eoreq	r0, r4, r0
    251c:	9c010000 	stcls	0, cr0, [r1], {-0}
    2520:	000004d3 	ldrdeq	r0, [r0], -r3
    2524:	0090b00f 	addseq	fp, r0, pc
    2528:	00019400 	andeq	r9, r1, r0, lsl #8
    252c:	90b40f00 	adcsls	r0, r4, r0, lsl #30
    2530:	05a00000 	streq	r0, [r0, #0]!
    2534:	c0140000 	andsgt	r0, r4, r0
    2538:	d3000090 	movwle	r0, #144	; 0x90
    253c:	c9000004 	stmdbgt	r0, {r2}
    2540:	12000004 	andne	r0, r0, #4, 0
    2544:	0c055001 	stceq	0, cr5, [r5], {1}
    2548:	20215004 	eorcs	r5, r1, r4
    254c:	02510112 	subseq	r0, r1, #-2147483644	; 0x80000004
    2550:	0f00fe09 	svceq	0x0000fe09
    2554:	000090c4 	andeq	r9, r0, r4, asr #1
    2558:	000005a0 	andeq	r0, r0, r0, lsr #11
    255c:	07a01700 	streq	r1, [r0, r0, lsl #14]!
    2560:	31010000 	mrscc	r0, (UNDEF: 1)
    2564:	008edc0d 	addeq	sp, lr, sp, lsl #24
    2568:	00002000 	andeq	r2, r0, r0
    256c:	369c0100 	ldrcc	r0, [ip], r0, lsl #2
    2570:	18000005 	stmdane	r0, {r0, r2}
    2574:	0000060c 	andeq	r0, r0, ip, lsl #12
    2578:	36253101 	strtcc	r3, [r5], -r1, lsl #2
    257c:	ab000005 	blge	2598 <__code_start__-0x5a68>
    2580:	a700001b 	smladge	r0, fp, r0, r0
    2584:	1300001b 	movwne	r0, #27
    2588:	006c6176 	rsbeq	r6, ip, r6, ror r1
    258c:	2c343101 	ldfcss	f3, [r4], #-4
    2590:	cd000000 	stcgt	0, cr0, [r0, #-0]
    2594:	c900001b 	stmdbgt	r0, {r0, r1, r3, r4}
    2598:	1400001b 	strne	r0, [r0], #-27	; 0xffffffe5
    259c:	00008eec 	andeq	r8, r0, ip, ror #29
    25a0:	000005ac 	andeq	r0, r0, ip, lsr #11
    25a4:	00000525 	andeq	r0, r0, r5, lsr #10
    25a8:	02500112 	subseq	r0, r0, #-2147483644	; 0x80000004
    25ac:	11000074 	tstne	r0, r4, ror r0
    25b0:	00008ef8 	strdeq	r8, [r0], -r8	; <UNPREDICTABLE>
    25b4:	000005b8 			; <UNDEFINED> instruction: 0x000005b8
    25b8:	02500112 	subseq	r0, r0, #-2147483644	; 0x80000004
    25bc:	00000074 	andeq	r0, r0, r4, ror r0
    25c0:	053c040c 	ldreq	r0, [ip, #-1036]!	; 0xfffffbf4
    25c4:	17190000 	ldrne	r0, [r9, -r0]
    25c8:	00000750 	andeq	r0, r0, r0, asr r7
    25cc:	fc0d2e01 	stc2	14, cr2, [sp], {1}
    25d0:	2000008e 	andcs	r0, r0, lr, lsl #1
    25d4:	01000000 	mrseq	r0, (UNDEF: 0)
    25d8:	0005a09c 	muleq	r5, ip, r0
    25dc:	060c1800 	streq	r1, [ip], -r0, lsl #16
    25e0:	2e010000 	cdpcs	0, 0, cr0, cr1, cr0, {0}
    25e4:	00053624 	andeq	r3, r5, r4, lsr #12
    25e8:	001bef00 	andseq	lr, fp, r0, lsl #30
    25ec:	001beb00 	andseq	lr, fp, r0, lsl #22
    25f0:	61761300 	cmnvs	r6, r0, lsl #6
    25f4:	2e01006c 	cdpcs	0, 0, cr0, cr1, cr12, {3}
    25f8:	00002c33 	andeq	r2, r0, r3, lsr ip
    25fc:	001c1100 	andseq	r1, ip, r0, lsl #2
    2600:	001c0d00 	andseq	r0, ip, r0, lsl #26
    2604:	8f0c1400 	svchi	0x000c1400
    2608:	05ac0000 	streq	r0, [ip, #0]!
    260c:	058f0000 	streq	r0, [pc]	; 2614 <__code_start__-0x59ec>
    2610:	01120000 	tsteq	r2, r0
    2614:	00740250 	rsbseq	r0, r4, r0, asr r2
    2618:	8f181100 	svchi	0x00181100
    261c:	05b80000 	ldreq	r0, [r8, #0]!
    2620:	01120000 	tsteq	r2, r0
    2624:	00740250 	rsbseq	r0, r4, r0, asr r2
    2628:	6a1a0000 	bvs	682630 <__bss_end__+0x678be8>
    262c:	6a000005 	bvs	2648 <__code_start__-0x59b8>
    2630:	03000005 	movweq	r0, #5
    2634:	cb1a069c 	blgt	6840ac <__bss_end__+0x67a664>
    2638:	cb000007 	blgt	265c <__code_start__-0x59a4>
    263c:	03000007 	movweq	r0, #7
    2640:	6d1a0bc3 	vldrvs	d0, [sl, #-780]	; 0xfffffcf4
    2644:	6d000006 	stcvs	0, cr0, [r0, #-24]	; 0xffffffe8
    2648:	03000006 	movweq	r0, #6
    264c:	b91a06ae 	ldmdblt	sl, {r1, r2, r3, r5, r7, r9, sl}
    2650:	b9000007 	stmdblt	r0, {r0, r1, r2}
    2654:	04000007 	streq	r0, [r0], #-7
    2658:	19000619 	stmdbne	r0, {r0, r3, r4, r9, sl}
    265c:	05000006 	streq	r0, [r0, #-6]
    2660:	85040100 	strhi	r0, [r4, #-256]	; 0xffffff00
    2664:	1500000e 	strne	r0, [r0, #-14]
    2668:	000007fa 	strdeq	r0, [r0], -sl
    266c:	0008900c 	andeq	r9, r8, ip
    2670:	0002ad00 	andeq	sl, r2, r0, lsl #26
    2674:	0090cc00 	addseq	ip, r0, r0, lsl #24
    2678:	0001a000 	andeq	sl, r1, r0
    267c:	0014f900 	andseq	pc, r4, r0, lsl #18
    2680:	07080300 	streq	r0, [r8, -r0, lsl #6]
    2684:	00000149 	andeq	r0, r0, r9, asr #2
    2688:	53070403 	movwpl	r0, #29699	; 0x7403
    268c:	16000001 	strne	r0, [r0], -r1
    2690:	6e690504 	cdpvs	5, 6, cr0, cr9, cr4, {0}
    2694:	2d170074 	ldccs	0, cr0, [r7, #-464]	; 0xfffffe30
    2698:	03000000 	movweq	r0, #0
    269c:	004a0601 	subeq	r0, sl, r1, lsl #12
    26a0:	02030000 	andeq	r0, r3, #0, 0
    26a4:	00019205 	andeq	r9, r1, r5, lsl #4
    26a8:	05040300 	streq	r0, [r4, #-768]	; 0xfffffd00
    26ac:	0000016e 	andeq	r0, r0, lr, ror #2
    26b0:	69050803 	stmdbvs	r5, {r0, r1, fp}
    26b4:	03000001 	movweq	r0, #1
    26b8:	00480801 	subeq	r0, r8, r1, lsl #16
    26bc:	02030000 	andeq	r0, r3, #0, 0
    26c0:	00006307 	andeq	r6, r0, r7, lsl #6
    26c4:	039b1300 	orrseq	r1, fp, #0, 6
    26c8:	34020000 	strcc	r0, [r2], #-0
    26cc:	00007619 	andeq	r7, r0, r9, lsl r6
    26d0:	07040300 	streq	r0, [r4, -r0, lsl #6]
    26d4:	0000014e 	andeq	r0, r0, lr, asr #2
    26d8:	51080103 	tstpl	r8, r3, lsl #2
    26dc:	18000000 	stmdane	r0, {}	; <UNPREDICTABLE>
    26e0:	005c0107 	subseq	r0, ip, r7, lsl #2
    26e4:	0c030000 	stceq	0, cr0, [r3], {-0}
    26e8:	0000c30e 	andeq	ip, r0, lr, lsl #6
    26ec:	07a90600 	streq	r0, [r9, r0, lsl #12]!
    26f0:	06000000 	streq	r0, [r0], -r0
    26f4:	000005e1 	andeq	r0, r0, r1, ror #11
    26f8:	06220601 	strteq	r0, [r2], -r1, lsl #12
    26fc:	06040000 	streq	r0, [r4], -r0
    2700:	00000631 	andeq	r0, r0, r1, lsr r6
    2704:	06400605 	strbeq	r0, [r0], -r5, lsl #12
    2708:	06060000 	streq	r0, [r6], -r0
    270c:	0000064f 	andeq	r0, r0, pc, asr #12
    2710:	07410607 	strbeq	r0, [r1, -r7, lsl #12]
    2714:	06030000 	streq	r0, [r3], -r0
    2718:	0000065e 	andeq	r0, r0, lr, asr r6
    271c:	ce130002 	cdpgt	0, 1, cr0, cr3, cr2, {0}
    2720:	03000008 	movweq	r0, #8
    2724:	00840315 	addeq	r0, r4, r5, lsl r3
    2728:	db0d0000 	blle	342730 <__bss_end__+0x338ce8>
    272c:	1d000007 	stcne	0, cr0, [r0, #-28]	; 0xffffffe4
    2730:	0000003b 	andeq	r0, r0, fp, lsr r0
    2734:	2020001c 	eorcs	r0, r0, ip, lsl r0
    2738:	0007d10d 	andeq	sp, r7, sp, lsl #2
    273c:	003b1e00 	eorseq	r1, fp, r0, lsl #28
    2740:	00280000 	eoreq	r0, r8, r0
    2744:	da0d2020 	ble	34a7cc <__bss_end__+0x340d84>
    2748:	1f000008 	svcne	0x00000008
    274c:	0000003b 	andeq	r0, r0, fp, lsr r0
    2750:	20200034 	eorcs	r0, r0, r4, lsr r0
    2754:	00050019 	andeq	r0, r5, r9, lsl r0
    2758:	06ad0400 	strteq	r0, [sp], r0, lsl #8
    275c:	00000110 	andeq	r0, r0, r0, lsl r1
    2760:	00002d0e 	andeq	r2, r0, lr, lsl #26
    2764:	002d0e00 	eoreq	r0, sp, r0, lsl #28
    2768:	1a000000 	bne	2770 <__code_start__-0x5890>
    276c:	00000594 	muleq	r0, r4, r5
    2770:	2d0ac204 	sfmcs	f4, 1, [sl, #-16]
    2774:	26000000 	strcs	r0, [r0], -r0
    2778:	0e000001 	cdpeq	0, 0, cr0, cr0, cr1, {0}
    277c:	0000002d 	andeq	r0, r0, sp, lsr #32
    2780:	08861b00 	stmeq	r6, {r8, r9, fp, ip}
    2784:	51010000 	mrspl	r0, (UNDEF: 1)
    2788:	00003405 	andeq	r3, r0, r5, lsl #8
    278c:	00924400 	addseq	r4, r2, r0, lsl #8
    2790:	00002800 	andeq	r2, r0, r0, lsl #16
    2794:	949c0100 	ldrls	r0, [ip], #256	; 0x100
    2798:	08000001 	stmdaeq	r0, {r0}
    279c:	006e6970 	rsbeq	r6, lr, r0, ror r9
    27a0:	002d1851 	eoreq	r1, sp, r1, asr r8
    27a4:	00120000 	andseq	r0, r2, r0
    27a8:	000c0000 	andeq	r0, ip, r0
    27ac:	e41c0000 	ldr	r0, [ip], #-0
    27b0:	01000008 	tsteq	r0, r8
    27b4:	002d0e52 	eoreq	r0, sp, r2, asr lr
    27b8:	00330000 	eorseq	r0, r3, r0
    27bc:	002b0000 	eoreq	r0, fp, r0
    27c0:	6f1d0000 	svcvs	0x001d0000
    27c4:	01006666 	tsteq	r0, r6, ror #12
    27c8:	002d0e53 	eoreq	r0, sp, r3, asr lr
    27cc:	00750000 	rsbseq	r0, r5, r0
    27d0:	006f0000 	rsbeq	r0, pc, r0
    27d4:	581e0000 	ldmdapl	lr, {}	; <UNPREDICTABLE>
    27d8:	10000092 	mulne	r0, r2, r0
    27dc:	01000001 	tsteq	r0, r1
    27e0:	740a5001 	strvc	r5, [sl], #-1
    27e4:	23253500 			; <UNDEFINED> instruction: 0x23253500
    27e8:	818080b4 	strhhi	r8, [r0, r4]
    27ec:	0f000002 	svceq	0x00000002
    27f0:	000007e5 	andeq	r0, r0, r5, ror #15
    27f4:	0092144a 	addseq	r1, r2, sl, asr #8
    27f8:	00003000 	andeq	r3, r0, r0
    27fc:	4b9c0100 	blmi	fe702c04 <__bss_end__+0xfe6f91bc>
    2800:	08000002 	stmdaeq	r0, {r1}
    2804:	006e6970 	rsbeq	r6, lr, r0, ror r9
    2808:	002d1a4a 	eoreq	r1, sp, sl, asr #20
    280c:	009f0000 	addseq	r0, pc, r0
    2810:	00930000 	addseq	r0, r3, r0
    2814:	76080000 	strvc	r0, [r8], -r0
    2818:	2d284a00 	vstmdbcs	r8!, {s8-s7}
    281c:	d4000000 	strle	r0, [r0], #-0
    2820:	d0000000 	andle	r0, r0, r0
    2824:	1f000000 	svcne	0x00000000
    2828:	0000035d 	andeq	r0, r0, sp, asr r3
    282c:	00009224 	andeq	r9, r0, r4, lsr #4
    2830:	00005001 	andeq	r5, r0, r1
    2834:	094c0100 	stmdbeq	ip, {r8}^
    2838:	0000020b 	andeq	r0, r0, fp, lsl #4
    283c:	00036902 	andeq	r6, r3, r2, lsl #18
    2840:	0000ec00 	andeq	lr, r0, r0, lsl #24
    2844:	0000e600 	andeq	lr, r0, r0, lsl #12
    2848:	92300700 	eorsls	r0, r0, #0, 14
    284c:	00f90000 	rscseq	r0, r9, r0
    2850:	01010000 	mrseq	r0, (UNDEF: 1)
    2854:	1c0c0550 	cfstr32ne	mvfx0, [ip], {80}	; 0x50
    2858:	01202000 			; <UNDEFINED> instruction: 0x01202000
    285c:	31055101 	tstcc	r5, r1, lsl #2
    2860:	245001a3 	ldrbcs	r0, [r0], #-419	; 0xfffffe5d
    2864:	44200000 	strtmi	r0, [r0], #-0
    2868:	30000003 	andcc	r0, r0, r3
    286c:	02000092 	andeq	r0, r0, #146, 0	; 0x92
    2870:	00009230 	andeq	r9, r0, r0, lsr r2
    2874:	00000014 	andeq	r0, r0, r4, lsl r0
    2878:	02094e01 	andeq	r4, r9, #1, 28
    287c:	00000350 	andeq	r0, r0, r0, asr r3
    2880:	0000010b 	andeq	r0, r0, fp, lsl #2
    2884:	00000105 	andeq	r0, r0, r5, lsl #2
    2888:	00923c07 	addseq	r3, r2, r7, lsl #24
    288c:	0000f900 	andeq	pc, r0, r0, lsl #18
    2890:	50010100 	andpl	r0, r1, r0, lsl #2
    2894:	00280c05 	eoreq	r0, r8, r5, lsl #24
    2898:	01012020 	tsteq	r1, r0, lsr #32
    289c:	a3310551 	teqge	r1, #339738624	; 0x14400000
    28a0:	00245001 	eoreq	r5, r4, r1
    28a4:	9d0f0000 	stcls	0, cr0, [pc, #-0]	; 28ac <__code_start__-0x5754>
    28a8:	45000008 	strmi	r0, [r0, #-8]
    28ac:	000091bc 			; <UNDEFINED> instruction: 0x000091bc
    28b0:	00000058 	andeq	r0, r0, r8, asr r0
    28b4:	03449c01 	movteq	r9, #19457	; 0x4c01
    28b8:	70080000 	andvc	r0, r8, r0
    28bc:	45006e69 	strmi	r6, [r0, #-3689]	; 0xfffff197
    28c0:	00002d1e 	andeq	r2, r0, lr, lsl sp
    28c4:	00012a00 	andeq	r2, r1, r0, lsl #20
    28c8:	00012400 	andeq	r2, r1, r0, lsl #8
    28cc:	046f0900 	strbteq	r0, [pc], #-2304	; 28d4 <__code_start__-0x572c>
    28d0:	91bc0000 			; <UNDEFINED> instruction: 0x91bc0000
    28d4:	30020000 	andcc	r0, r2, r0
    28d8:	46000000 	strmi	r0, [r0], -r0
    28dc:	04870b05 	streq	r0, [r7], #2821	; 0xb05
    28e0:	02000000 	andeq	r0, r0, #0, 0
    28e4:	0000047b 	andeq	r0, r0, fp, ror r4
    28e8:	00000149 	andeq	r0, r0, r9, asr #2
    28ec:	00000143 	andeq	r0, r0, r3, asr #2
    28f0:	0000300a 	andeq	r3, r0, sl
    28f4:	04930400 	ldreq	r0, [r3], #1024	; 0x400
    28f8:	9d040000 	stcls	0, cr0, [r4, #-0]
    28fc:	04000004 	streq	r0, [r0], #-4
    2900:	000004a5 	andeq	r0, r0, r5, lsr #9
    2904:	00046f09 	andeq	r6, r4, r9, lsl #30
    2908:	0091c400 	addseq	ip, r1, r0, lsl #8
    290c:	00400000 	subeq	r0, r0, r0
    2910:	06280000 	strteq	r0, [r8], -r0
    2914:	0004870b 	andeq	r8, r4, fp, lsl #14
    2918:	7b020000 	blvc	82920 <__bss_end__+0x78ed8>
    291c:	68000004 	stmdavs	r0, {r2}
    2920:	62000001 	andvs	r0, r0, #1, 0
    2924:	0a000001 	beq	2930 <__code_start__-0x56d0>
    2928:	00000040 	andeq	r0, r0, r0, asr #32
    292c:	00049305 	andeq	r9, r4, r5, lsl #6
    2930:	00018700 	andeq	r8, r1, r0, lsl #14
    2934:	00018100 	andeq	r8, r1, r0, lsl #2
    2938:	049d0500 	ldreq	r0, [sp], #1280	; 0x500
    293c:	01b60000 			; <UNDEFINED> instruction: 0x01b60000
    2940:	01b00000 	movseq	r0, r0
    2944:	a5050000 	strge	r0, [r5, #-0]
    2948:	f9000004 			; <UNDEFINED> instruction: 0xf9000004
    294c:	f1000001 	cps	#1
    2950:	10000001 	andne	r0, r0, r1
    2954:	000091ec 	andeq	r9, r0, ip, ror #3
    2958:	00000110 	andeq	r0, r0, r0, lsl r1
    295c:	0000030c 	andeq	r0, r0, ip, lsl #6
    2960:	02500101 	subseq	r0, r0, #1073741824	; 0x40000000
    2964:	07000076 	smlsdxeq	r0, r6, r0, r0
    2968:	00009210 	andeq	r9, r0, r0, lsl r2
    296c:	000000f9 	strdeq	r0, [r0], -r9
    2970:	25500101 	ldrbcs	r0, [r0, #-257]	; 0xfffffeff
    2974:	a85001a3 	ldmdage	r0, {r0, r1, r5, r7, r8}^
    2978:	a426a82d 	strtge	sl, [r6], #-2093	; 0xfffff7d3
    297c:	cccd0826 	stclgt	8, cr0, [sp], {38}	; 0x26
    2980:	0000cccc 	andeq	ip, r0, ip, asr #25
    2984:	081e0000 	ldmdaeq	lr, {}	; <UNPREDICTABLE>
    2988:	2526a820 	strcs	sl, [r6, #-2080]!	; 0xfffff7e0
    298c:	00a82da8 	adceq	r2, r8, r8, lsr #27
    2990:	80232533 	eorhi	r2, r3, r3, lsr r5
    2994:	3240a080 	subcc	sl, r0, #128, 0	; 0x80
    2998:	00000024 	andeq	r0, r0, r4, lsr #32
    299c:	11000000 	mrsne	r0, (UNDEF: 0)
    29a0:	000008ac 	andeq	r0, r0, ip, lsr #17
    29a4:	5d030d40 	stcpl	13, cr0, [r3, #-256]	; 0xffffff00
    29a8:	0c000003 	stceq	0, cr0, [r0], {3}
    29ac:	006e6970 	rsbeq	r6, lr, r0, ror r9
    29b0:	2d234001 	stccs	0, cr4, [r3, #-4]!
    29b4:	00000000 	andeq	r0, r0, r0
    29b8:	0008e911 	andeq	lr, r8, r1, lsl r9
    29bc:	030d3b00 	movweq	r3, #56064	; 0xdb00
    29c0:	00000376 	andeq	r0, r0, r6, ror r3
    29c4:	6e69700c 	cdpvs	0, 6, cr7, cr9, cr12, {0}
    29c8:	223b0100 	eorscs	r0, fp, #0
    29cc:	0000002d 	andeq	r0, r0, sp, lsr #32
    29d0:	08b90f00 	ldmeq	r9!, {r8, r9, sl, fp}
    29d4:	30360000 	eorscc	r0, r6, r0
    29d8:	5c000091 	stcpl	0, cr0, [r0], {145}	; 0x91
    29dc:	01000000 	mrseq	r0, (UNDEF: 0)
    29e0:	00046f9c 	muleq	r4, ip, pc	; <UNPREDICTABLE>
    29e4:	69700800 	ldmdbvs	r0!, {fp}^
    29e8:	1f36006e 	svcne	0x0036006e
    29ec:	0000002d 	andeq	r0, r0, sp, lsr #32
    29f0:	00000240 	andeq	r0, r0, r0, asr #4
    29f4:	0000023c 	andeq	r0, r0, ip, lsr r2
    29f8:	00046f09 	andeq	r6, r4, r9, lsl #30
    29fc:	00913000 	addseq	r3, r1, r0
    2a00:	00160200 	andseq	r0, r6, r0, lsl #4
    2a04:	05370000 	ldreq	r0, [r7, #-0]!
    2a08:	0004870b 	andeq	r8, r4, fp, lsl #14
    2a0c:	7b020100 	blvc	82e14 <__bss_end__+0x793cc>
    2a10:	55000004 	strpl	r0, [r0, #-4]
    2a14:	51000002 	tstpl	r0, r2
    2a18:	0a000002 	beq	2a28 <__code_start__-0x55d8>
    2a1c:	00000016 	andeq	r0, r0, r6, lsl r0
    2a20:	00049304 	andeq	r9, r4, r4, lsl #6
    2a24:	049d0400 	ldreq	r0, [sp], #1024	; 0x400
    2a28:	a5040000 	strge	r0, [r4, #-0]
    2a2c:	09000004 	stmdbeq	r0, {r2}
    2a30:	0000046f 	andeq	r0, r0, pc, ror #8
    2a34:	00009138 	andeq	r9, r0, r8, lsr r1
    2a38:	00002300 	andeq	r2, r0, r0, lsl #6
    2a3c:	0b062800 	bleq	18ca44 <__bss_end__+0x182ffc>
    2a40:	00000487 	andeq	r0, r0, r7, lsl #9
    2a44:	047b0201 	ldrbteq	r0, [fp], #-513	; 0xfffffdff
    2a48:	026a0000 	rsbeq	r0, sl, #0, 0
    2a4c:	02660000 	rsbeq	r0, r6, #0, 0
    2a50:	230a0000 	movwcs	r0, #40960	; 0xa000
    2a54:	05000000 	streq	r0, [r0, #-0]
    2a58:	00000493 	muleq	r0, r3, r4
    2a5c:	0000027f 	andeq	r0, r0, pc, ror r2
    2a60:	0000027b 	andeq	r0, r0, fp, ror r2
    2a64:	00049d05 	andeq	r9, r4, r5, lsl #26
    2a68:	0002bc00 	andeq	fp, r2, r0, lsl #24
    2a6c:	0002b600 	andeq	fp, r2, r0, lsl #12
    2a70:	04a50500 	strteq	r0, [r5], #1280	; 0x500
    2a74:	02ff0000 	rscseq	r0, pc, #0, 0
    2a78:	02f70000 	rscseq	r0, r7, #0, 0
    2a7c:	64100000 	ldrvs	r0, [r0], #-0
    2a80:	10000091 	mulne	r0, r1, r0
    2a84:	37000001 	strcc	r0, [r0, -r1]
    2a88:	01000004 	tsteq	r0, r4
    2a8c:	75025001 	strvc	r5, [r2, #-1]
    2a90:	88070000 	stmdahi	r7, {}	; <UNPREDICTABLE>
    2a94:	f9000091 			; <UNDEFINED> instruction: 0xf9000091
    2a98:	01000000 	mrseq	r0, (UNDEF: 0)
    2a9c:	a3255001 			; <UNDEFINED> instruction: 0xa3255001
    2aa0:	2da85001 	stccs	0, cr5, [r8, #4]!
    2aa4:	26a426a8 	strtcs	r2, [r4], r8, lsr #13
    2aa8:	cccccd08 	stclgt	13, cr12, [ip], {8}
    2aac:	000000cc 	andeq	r0, r0, ip, asr #1
    2ab0:	20081e00 	andcs	r1, r8, r0, lsl #28
    2ab4:	a82526a8 	stmdage	r5!, {r3, r5, r7, r9, sl, sp}
    2ab8:	3300a82d 	movwcc	sl, #2093	; 0x82d
    2abc:	80802325 	addhi	r2, r0, r5, lsr #6
    2ac0:	243240a0 	ldrtcs	r4, [r2], #-160	; 0xffffff60
    2ac4:	00000000 	andeq	r0, r0, r0
    2ac8:	b9110000 	ldmdblt	r1, {}	; <UNPREDICTABLE>
    2acc:	28000007 	stmdacs	r0, {r0, r1, r2}
    2ad0:	04ae0106 	strteq	r0, [lr], #262	; 0x106
    2ad4:	700c0000 	andvc	r0, ip, r0
    2ad8:	01006e69 	tsteq	r0, r9, ror #28
    2adc:	002d2128 	eoreq	r2, sp, r8, lsr #2
    2ae0:	c9210000 	stmdbgt	r1!, {}	; <UNPREDICTABLE>
    2ae4:	01000008 	tsteq	r0, r8
    2ae8:	00c33228 	sbceq	r3, r3, r8, lsr #4
    2aec:	6f120000 	svcvs	0x00120000
    2af0:	2d006666 	stccs	6, cr6, [r0, #-408]	; 0xfffffe68
    2af4:	0000002d 	andeq	r0, r0, sp, lsr #32
    2af8:	2e006712 	mcrcs	7, 0, r6, cr0, cr2, {0}
    2afc:	0000002d 	andeq	r0, r0, sp, lsr #32
    2b00:	30007612 	andcc	r7, r0, r2, lsl r6
    2b04:	0000002d 	andeq	r0, r0, sp, lsr #32
    2b08:	07f02200 	ldrbeq	r2, [r0, r0, lsl #4]!
    2b0c:	b1040000 	mrslt	r0, (UNDEF: 4)
    2b10:	00006a18 	andeq	r6, r0, r8, lsl sl
    2b14:	04ca0300 	strbeq	r0, [sl], #768	; 0x300
    2b18:	780c0000 	stmdavc	ip, {}	; <UNPREDICTABLE>
    2b1c:	2bb10400 	blcs	fec43b24 <__bss_end__+0xfec3a0dc>
    2b20:	0000006a 	andeq	r0, r0, sl, rrx
    2b24:	046f1400 	strbteq	r1, [pc], #-1024	; 2b2c <__code_start__-0x54d4>
    2b28:	90cc0000 	sbcls	r0, ip, r0
    2b2c:	00640000 	rsbeq	r0, r4, r0
    2b30:	9c010000 	stcls	0, cr0, [r1], {-0}
    2b34:	000005a6 	andeq	r0, r0, r6, lsr #11
    2b38:	00047b02 	andeq	r7, r4, r2, lsl #22
    2b3c:	00032700 	andeq	r2, r3, r0, lsl #14
    2b40:	00032300 	andeq	r2, r3, r0, lsl #6
    2b44:	04870200 	streq	r0, [r7], #512	; 0x200
    2b48:	03390000 	teqeq	r9, #0, 0
    2b4c:	03350000 	teqeq	r5, #0, 0
    2b50:	93040000 	movwls	r0, #16384	; 0x4000
    2b54:	04000004 	streq	r0, [r0], #-4
    2b58:	0000049d 	muleq	r0, sp, r4
    2b5c:	0004a504 	andeq	sl, r4, r4, lsl #10
    2b60:	046f0900 	strbteq	r0, [pc], #-2304	; 2b68 <__code_start__-0x5498>
    2b64:	90d40000 	sbcsls	r0, r4, r0
    2b68:	0c000000 	stceq	0, cr0, [r0], {-0}
    2b6c:	28000000 	stmdacs	r0, {}	; <UNPREDICTABLE>
    2b70:	04870206 	streq	r0, [r7], #518	; 0x206
    2b74:	034b0000 	movteq	r0, #45056	; 0xb000
    2b78:	03470000 	movteq	r0, #28672	; 0x7000
    2b7c:	7b020000 	blvc	82b84 <__bss_end__+0x7913c>
    2b80:	5d000004 	stcpl	0, cr0, [r0, #-16]
    2b84:	59000003 	stmdbpl	r0, {r0, r1}
    2b88:	0a000003 	beq	2b9c <__code_start__-0x5464>
    2b8c:	0000000c 	andeq	r0, r0, ip
    2b90:	00049305 	andeq	r9, r4, r5, lsl #6
    2b94:	00036f00 	andeq	r6, r3, r0, lsl #30
    2b98:	00036b00 	andeq	r6, r3, r0, lsl #22
    2b9c:	049d0500 	ldreq	r0, [sp], #1280	; 0x500
    2ba0:	03a80000 			; <UNDEFINED> instruction: 0x03a80000
    2ba4:	03a20000 			; <UNDEFINED> instruction: 0x03a20000
    2ba8:	a5050000 	strge	r0, [r5, #-0]
    2bac:	e3000004 	movw	r0, #4
    2bb0:	dd000003 	stcle	0, cr0, [r0, #-12]
    2bb4:	10000003 	andne	r0, r0, r3
    2bb8:	0000910c 	andeq	r9, r0, ip, lsl #2
    2bbc:	00000110 	andeq	r0, r0, r0, lsl r1
    2bc0:	00000570 	andeq	r0, r0, r0, ror r5
    2bc4:	02500101 	subseq	r0, r0, #1073741824	; 0x40000000
    2bc8:	07000076 	smlsdxeq	r0, r6, r0, r0
    2bcc:	0000912c 	andeq	r9, r0, ip, lsr #2
    2bd0:	000000f9 	strdeq	r0, [r0], -r9
    2bd4:	25500101 	ldrbcs	r0, [r0, #-257]	; 0xfffffeff
    2bd8:	a85001a3 	ldmdage	r0, {r0, r1, r5, r7, r8}^
    2bdc:	a426a82d 	strtge	sl, [r6], #-2093	; 0xfffff7d3
    2be0:	cccd0826 	stclgt	8, cr0, [sp], {38}	; 0x26
    2be4:	0000cccc 	andeq	ip, r0, ip, asr #25
    2be8:	081e0000 	ldmdaeq	lr, {}	; <UNPREDICTABLE>
    2bec:	2526a820 	strcs	sl, [r6, #-2080]!	; 0xfffff7e0
    2bf0:	00a82da8 	adceq	r2, r8, r8, lsr #27
    2bf4:	80232533 	eorhi	r2, r3, r3, lsr r5
    2bf8:	3240a080 	subcc	sl, r0, #128, 0	; 0x80
    2bfc:	00000024 	andeq	r0, r0, r4, lsr #32
    2c00:	035d1400 	cmpeq	sp, #0, 8
    2c04:	918c0000 	orrls	r0, ip, r0
    2c08:	00180000 	andseq	r0, r8, r0
    2c0c:	9c010000 	stcls	0, cr0, [r1], {-0}
    2c10:	000005e3 	andeq	r0, r0, r3, ror #11
    2c14:	00036902 	andeq	r6, r3, r2, lsl #18
    2c18:	00040400 	andeq	r0, r4, r0, lsl #8
    2c1c:	0003fe00 	andeq	pc, r3, r0, lsl #28
    2c20:	91a00700 	lslls	r0, r0, #14
    2c24:	00f90000 	rscseq	r0, r9, r0
    2c28:	01010000 	mrseq	r0, (UNDEF: 1)
    2c2c:	1c0c0550 	cfstr32ne	mvfx0, [ip], {80}	; 0x50
    2c30:	01202000 			; <UNDEFINED> instruction: 0x01202000
    2c34:	31055101 	tstcc	r5, r1, lsl #2
    2c38:	245001a3 	ldrbcs	r0, [r0], #-419	; 0xfffffe5d
    2c3c:	44230000 	strtmi	r0, [r3], #-0
    2c40:	a4000003 	strge	r0, [r0], #-3
    2c44:	18000091 	stmdane	r0, {r0, r4, r7}
    2c48:	01000000 	mrseq	r0, (UNDEF: 0)
    2c4c:	0350029c 	cmpeq	r0, #156, 4	; 0xc0000009
    2c50:	04230000 	strteq	r0, [r3], #-0
    2c54:	041d0000 	ldreq	r0, [sp], #-0
    2c58:	b8070000 	stmdalt	r7, {}	; <UNPREDICTABLE>
    2c5c:	f9000091 			; <UNDEFINED> instruction: 0xf9000091
    2c60:	01000000 	mrseq	r0, (UNDEF: 0)
    2c64:	0c055001 	stceq	0, cr5, [r5], {1}
    2c68:	20200028 	eorcs	r0, r0, r8, lsr #32
    2c6c:	05510101 	ldrbeq	r0, [r1, #-257]	; 0xfffffeff
    2c70:	5001a331 	andpl	sl, r1, r1, lsr r3
    2c74:	00000024 	andeq	r0, r0, r4, lsr #32
    2c78:	00000137 	andeq	r0, r0, r7, lsr r1
    2c7c:	10b10004 	adcsne	r0, r1, r4
    2c80:	01040000 	mrseq	r0, (UNDEF: 4)
    2c84:	000001d6 	ldrdeq	r0, [r0], -r6
    2c88:	0008f50c 	andeq	pc, r8, ip, lsl #10
    2c8c:	0002ad00 	andeq	sl, r2, r0, lsl #26
    2c90:	00926c00 	addseq	r6, r2, r0, lsl #24
    2c94:	00002c00 	andeq	r2, r0, r0, lsl #24
    2c98:	00175900 	andseq	r5, r7, r0, lsl #18
    2c9c:	05040200 	streq	r0, [r4, #-512]	; 0xfffffe00
    2ca0:	00746e69 	rsbseq	r6, r4, r9, ror #28
    2ca4:	53070403 	movwpl	r0, #29699	; 0x7403
    2ca8:	03000001 	movweq	r0, #1
    2cac:	004a0601 	subeq	r0, sl, r1, lsl #12
    2cb0:	02030000 	andeq	r0, r3, #0, 0
    2cb4:	00019205 	andeq	r9, r1, r5, lsl #4
    2cb8:	05040300 	streq	r0, [r4, #-768]	; 0xfffffd00
    2cbc:	0000016e 	andeq	r0, r0, lr, ror #2
    2cc0:	69050803 	stmdbvs	r5, {r0, r1, fp}
    2cc4:	03000001 	movweq	r0, #1
    2cc8:	00480801 	subeq	r0, r8, r1, lsl #16
    2ccc:	02030000 	andeq	r0, r3, #0, 0
    2cd0:	00006307 	andeq	r6, r0, r7, lsl #6
    2cd4:	07040300 	streq	r0, [r4, -r0, lsl #6]
    2cd8:	0000014e 	andeq	r0, r0, lr, asr #2
    2cdc:	49070803 	stmdbmi	r7, {r0, r1, fp}
    2ce0:	04000001 	streq	r0, [r0], #-1
    2ce4:	00000025 	andeq	r0, r0, r5, lsr #32
    2ce8:	0000007a 	andeq	r0, r0, sl, ror r0
    2cec:	00002505 	andeq	r2, r0, r5, lsl #10
    2cf0:	77060000 	strvc	r0, [r6, -r0]
    2cf4:	02000001 	andeq	r0, r0, #1, 0
    2cf8:	00860e1c 	addeq	r0, r6, ip, lsl lr
    2cfc:	04070000 	streq	r0, [r7], #-0
    2d00:	0000006b 	andeq	r0, r0, fp, rrx
    2d04:	00002504 	andeq	r2, r0, r4, lsl #10
    2d08:	00009b00 	andeq	r9, r0, r0, lsl #22
    2d0c:	009b0500 	addseq	r0, fp, r0, lsl #10
    2d10:	07000000 	streq	r0, [r0, -r0]
    2d14:	0000a804 	andeq	sl, r0, r4, lsl #16
    2d18:	08010300 	stmdaeq	r1, {r8, r9}
    2d1c:	00000051 	andeq	r0, r0, r1, asr r0
    2d20:	0000a108 	andeq	sl, r0, r8, lsl #2
    2d24:	03110600 	tsteq	r1, #0, 12
    2d28:	21020000 	mrscs	r0, (UNDEF: 2)
    2d2c:	0000b90e 	andeq	fp, r0, lr, lsl #18
    2d30:	8c040700 	stchi	7, cr0, [r4], {-0}
    2d34:	09000000 	stmdbeq	r0, {}	; <UNPREDICTABLE>
    2d38:	000003bd 			; <UNDEFINED> instruction: 0x000003bd
    2d3c:	34070401 	strcc	r0, [r7], #-1025	; 0xfffffbff
    2d40:	6c000001 	stcvs	0, cr0, [r0], {1}
    2d44:	2c000092 	stccs	0, cr0, [r0], {146}	; 0x92
    2d48:	01000000 	mrseq	r0, (UNDEF: 0)
    2d4c:	0001349c 	muleq	r1, ip, r4
    2d50:	09050a00 	stmdbeq	r5, {r9, fp}
    2d54:	04010000 	streq	r0, [r1], #-0
    2d58:	00013415 	andeq	r3, r1, r5, lsl r4
    2d5c:	0b500100 	bleq	1403164 <__bss_end__+0x13f971c>
    2d60:	00637273 	rsbeq	r7, r3, r3, ror r2
    2d64:	9b270401 	blls	9c3d70 <__bss_end__+0x9ba328>
    2d68:	33000000 	movwcc	r0, #0
    2d6c:	2f00001c 	svccs	0x0000001c
    2d70:	0c00001c 	stceq	0, cr0, [r0], {28}
    2d74:	01003173 	tsteq	r0, r3, ror r1
    2d78:	01340b05 	teqeq	r4, r5, lsl #22
    2d7c:	1c620000 	stclne	0, cr0, [r2], #-0
    2d80:	1c540000 	mrane	r0, r4, acc0
    2d84:	730c0000 	movwvc	r0, #49152	; 0xc000
    2d88:	06010032 			; <UNDEFINED> instruction: 0x06010032
    2d8c:	00009b11 	andeq	r9, r0, r1, lsl fp
    2d90:	001cc100 	andseq	ip, ip, r0, lsl #2
    2d94:	001cbb00 	andseq	fp, ip, r0, lsl #22
    2d98:	00630c00 	rsbeq	r0, r3, r0, lsl #24
    2d9c:	a10a0701 	tstge	sl, r1, lsl #14
    2da0:	f2000000 	vhadd.s8	d0, d0, d0
    2da4:	ec00001c 	stc	0, cr0, [r0], {28}
    2da8:	0000001c 	andeq	r0, r0, ip, lsl r0
    2dac:	00a10407 	adceq	r0, r1, r7, lsl #8
    2db0:	f7000000 			; <UNDEFINED> instruction: 0xf7000000
    2db4:	04000000 	streq	r0, [r0], #-0
    2db8:	00116700 	andseq	r6, r1, r0, lsl #14
    2dbc:	d6010400 	strle	r0, [r1], -r0, lsl #8
    2dc0:	0c000001 	stceq	0, cr0, [r0], {1}
    2dc4:	0000090a 	andeq	r0, r0, sl, lsl #18
    2dc8:	000002ad 	andeq	r0, r0, sp, lsr #5
    2dcc:	00009298 	muleq	r0, r8, r2
    2dd0:	00000044 	andeq	r0, r0, r4, asr #32
    2dd4:	0000183f 	andeq	r1, r0, pc, lsr r8
    2dd8:	69050402 	stmdbvs	r5, {r1, sl}
    2ddc:	0300746e 	movweq	r7, #1134	; 0x46e
    2de0:	01530704 	cmpeq	r3, r4, lsl #14
    2de4:	01030000 	mrseq	r0, (UNDEF: 3)
    2de8:	00004a06 	andeq	r4, r0, r6, lsl #20
    2dec:	05020300 	streq	r0, [r2, #-768]	; 0xfffffd00
    2df0:	00000192 	muleq	r0, r2, r1
    2df4:	6e050403 	cdpvs	4, 0, cr0, cr5, cr3, {0}
    2df8:	03000001 	movweq	r0, #1
    2dfc:	01690508 	cmneq	r9, r8, lsl #10
    2e00:	01030000 	mrseq	r0, (UNDEF: 3)
    2e04:	00004808 	andeq	r4, r0, r8, lsl #16
    2e08:	07020300 	streq	r0, [r2, -r0, lsl #6]
    2e0c:	00000063 	andeq	r0, r0, r3, rrx
    2e10:	4e070403 	cdpmi	4, 0, cr0, cr7, cr3, {0}
    2e14:	03000001 	movweq	r0, #1
    2e18:	01490708 	cmpeq	r9, r8, lsl #14
    2e1c:	25040000 	strcs	r0, [r4, #-0]
    2e20:	7a000000 	bvc	2e28 <__code_start__-0x51d8>
    2e24:	05000000 	streq	r0, [r0, #-0]
    2e28:	00000025 	andeq	r0, r0, r5, lsr #32
    2e2c:	01770600 	cmneq	r7, r0, lsl #12
    2e30:	1c020000 	stcne	0, cr0, [r2], {-0}
    2e34:	0000860e 	andeq	r8, r0, lr, lsl #12
    2e38:	6b040700 	blvs	104a40 <__bss_end__+0xfaff8>
    2e3c:	04000000 	streq	r0, [r0], #-0
    2e40:	00000025 	andeq	r0, r0, r5, lsr #32
    2e44:	0000009b 	muleq	r0, fp, r0
    2e48:	00009b05 	andeq	r9, r0, r5, lsl #22
    2e4c:	04070000 	streq	r0, [r7], #-0
    2e50:	000000a8 	andeq	r0, r0, r8, lsr #1
    2e54:	51080103 	tstpl	r8, r3, lsl #2
    2e58:	08000000 	stmdaeq	r0, {}	; <UNPREDICTABLE>
    2e5c:	000000a1 	andeq	r0, r0, r1, lsr #1
    2e60:	00031106 	andeq	r1, r3, r6, lsl #2
    2e64:	0e210200 	cdpeq	2, 2, cr0, cr1, cr0, {0}
    2e68:	000000b9 	strheq	r0, [r0], -r9
    2e6c:	008c0407 	addeq	r0, ip, r7, lsl #8
    2e70:	eb090000 	bl	242e78 <__bss_end__+0x239430>
    2e74:	01000003 	tsteq	r0, r3
    2e78:	00250503 	eoreq	r0, r5, r3, lsl #10
    2e7c:	92980000 	addsls	r0, r8, #0, 0
    2e80:	00440000 	subeq	r0, r4, r0
    2e84:	9c010000 	stcls	0, cr0, [r1], {-0}
    2e88:	0100610a 	tsteq	r0, sl, lsl #2
    2e8c:	009b1803 	addseq	r1, fp, r3, lsl #16
    2e90:	1d290000 	stcne	0, cr0, [r9, #-0]
    2e94:	1d1d0000 	ldcne	0, cr0, [sp, #-0]
    2e98:	620a0000 	andvs	r0, sl, #0, 0
    2e9c:	27030100 	strcs	r0, [r3, -r0, lsl #2]
    2ea0:	0000009b 	muleq	r0, fp, r0
    2ea4:	00001d7d 	andeq	r1, r0, sp, ror sp
    2ea8:	00001d77 	andeq	r1, r0, r7, ror sp
    2eac:	010f0000 	mrseq	r0, CPSR
    2eb0:	00040000 	andeq	r0, r4, r0
    2eb4:	000011f6 	strdeq	r1, [r0], -r6
    2eb8:	01d60104 	bicseq	r0, r6, r4, lsl #2
    2ebc:	1a0c0000 	bne	302ec4 <__bss_end__+0x2f947c>
    2ec0:	ad000009 	stcge	0, cr0, [r0, #-36]	; 0xffffffdc
    2ec4:	dc000002 	stcle	0, cr0, [r0], {2}
    2ec8:	18000092 	stmdane	r0, {r1, r4, r7}
    2ecc:	f5000000 			; <UNDEFINED> instruction: 0xf5000000
    2ed0:	02000018 	andeq	r0, r0, #24, 0
    2ed4:	6e690504 	cdpvs	5, 6, cr0, cr9, cr4, {0}
    2ed8:	04030074 	streq	r0, [r3], #-116	; 0xffffff8c
    2edc:	00015307 	andeq	r5, r1, r7, lsl #6
    2ee0:	06010300 	streq	r0, [r1], -r0, lsl #6
    2ee4:	0000004a 	andeq	r0, r0, sl, asr #32
    2ee8:	92050203 	andls	r0, r5, #805306368	; 0x30000000
    2eec:	03000001 	movweq	r0, #1
    2ef0:	016e0504 	cmneq	lr, r4, lsl #10
    2ef4:	08030000 	stmdaeq	r3, {}	; <UNPREDICTABLE>
    2ef8:	00016905 	andeq	r6, r1, r5, lsl #18
    2efc:	08010300 	stmdaeq	r1, {r8, r9}
    2f00:	00000048 	andeq	r0, r0, r8, asr #32
    2f04:	63070203 	movwvs	r0, #29187	; 0x7203
    2f08:	03000000 	movweq	r0, #0
    2f0c:	014e0704 	cmpeq	lr, r4, lsl #14
    2f10:	08030000 	stmdaeq	r3, {}	; <UNPREDICTABLE>
    2f14:	00014907 	andeq	r4, r1, r7, lsl #18
    2f18:	00250400 	eoreq	r0, r5, r0, lsl #8
    2f1c:	007a0000 	rsbseq	r0, sl, r0
    2f20:	25050000 	strcs	r0, [r5, #-0]
    2f24:	00000000 	andeq	r0, r0, r0
    2f28:	00017706 	andeq	r7, r1, r6, lsl #14
    2f2c:	0e1c0200 	cdpeq	2, 1, cr0, cr12, cr0, {0}
    2f30:	00000086 	andeq	r0, r0, r6, lsl #1
    2f34:	006b0407 	rsbeq	r0, fp, r7, lsl #8
    2f38:	25040000 	strcs	r0, [r4, #-0]
    2f3c:	9b000000 	blls	2f44 <__code_start__-0x50bc>
    2f40:	05000000 	streq	r0, [r0, #-0]
    2f44:	0000009b 	muleq	r0, fp, r0
    2f48:	a8040700 	stmdage	r4, {r8, r9, sl}
    2f4c:	03000000 	movweq	r0, #0
    2f50:	00510801 	subseq	r0, r1, r1, lsl #16
    2f54:	a1080000 	mrsge	r0, (UNDEF: 8)
    2f58:	06000000 	streq	r0, [r0], -r0
    2f5c:	00000311 	andeq	r0, r0, r1, lsl r3
    2f60:	b90e2102 	stmdblt	lr, {r1, r8, sp}
    2f64:	07000000 	streq	r0, [r0, -r0]
    2f68:	00008c04 	andeq	r8, r0, r4, lsl #24
    2f6c:	03c40900 	biceq	r0, r4, #0, 18
    2f70:	03010000 	movweq	r0, #4096	; 0x1000
    2f74:	00010c07 	andeq	r0, r1, r7, lsl #24
    2f78:	0092dc00 	addseq	sp, r2, r0, lsl #24
    2f7c:	00001800 	andeq	r1, r0, r0, lsl #16
    2f80:	0c9c0100 	ldfeqs	f0, [ip], {0}
    2f84:	0a000001 	beq	2f90 <__code_start__-0x5070>
    2f88:	01003173 	tsteq	r0, r3, ror r1
    2f8c:	010c1503 	tsteq	ip, r3, lsl #10
    2f90:	50010000 	andpl	r0, r1, r0
    2f94:	0032730b 	eorseq	r7, r2, fp, lsl #6
    2f98:	9b260301 	blls	983ba4 <__bss_end__+0x97a15c>
    2f9c:	ac000000 	stcge	0, cr0, [r0], {-0}
    2fa0:	a600001d 			; <UNDEFINED> instruction: 0xa600001d
    2fa4:	0c00001d 	stceq	0, cr0, [r0], {29}
    2fa8:	04010073 	streq	r0, [r1], #-115	; 0xffffff8d
    2fac:	00010c14 	andeq	r0, r1, r4, lsl ip
    2fb0:	001dd900 	andseq	sp, sp, r0, lsl #18
    2fb4:	001dd700 	andseq	sp, sp, r0, lsl #14
    2fb8:	04070000 	streq	r0, [r7], #-0
    2fbc:	000000a1 	andeq	r0, r0, r1, lsr #1
    2fc0:	00014e00 	andeq	r4, r1, r0, lsl #28
    2fc4:	ac000400 	cfstrsge	mvf0, [r0], {-0}
    2fc8:	04000012 	streq	r0, [r0], #-18	; 0xffffffee
    2fcc:	0001d601 	andeq	sp, r1, r1, lsl #12
    2fd0:	09310c00 	ldmdbeq	r1!, {sl, fp}
    2fd4:	02ad0000 	adceq	r0, sp, #0, 0
    2fd8:	92f40000 	rscsls	r0, r4, #0, 0
    2fdc:	00300000 	eorseq	r0, r0, r0
    2fe0:	19960000 	ldmibne	r6, {}	; <UNPREDICTABLE>
    2fe4:	04020000 	streq	r0, [r2], #-0
    2fe8:	746e6905 	strbtvc	r6, [lr], #-2309	; 0xfffff6fb
    2fec:	092a0300 	stmdbeq	sl!, {r8, r9}
    2ff0:	d1030000 	mrsle	r0, (UNDEF: 3)
    2ff4:	00003817 	andeq	r3, r0, r7, lsl r8
    2ff8:	07040400 	streq	r0, [r4, -r0, lsl #8]
    2ffc:	00000153 	andeq	r0, r0, r3, asr r1
    3000:	4a060104 	bmi	183418 <__bss_end__+0x1799d0>
    3004:	04000000 	streq	r0, [r0], #-0
    3008:	01920502 	orrseq	r0, r2, r2, lsl #10
    300c:	04040000 	streq	r0, [r4], #-0
    3010:	00016e05 	andeq	r6, r1, r5, lsl #28
    3014:	05080400 	streq	r0, [r8, #-1024]	; 0xfffffc00
    3018:	00000169 	andeq	r0, r0, r9, ror #2
    301c:	48080104 	stmdami	r8, {r2, r8}
    3020:	05000000 	streq	r0, [r0, #-0]
    3024:	0000005b 	andeq	r0, r0, fp, asr r0
    3028:	63070204 	movwvs	r0, #29188	; 0x7204
    302c:	04000000 	streq	r0, [r0], #-0
    3030:	014e0704 	cmpeq	lr, r4, lsl #14
    3034:	08040000 	stmdaeq	r4, {}	; <UNPREDICTABLE>
    3038:	00014907 	andeq	r4, r1, r7, lsl #18
    303c:	00250600 	eoreq	r0, r5, r0, lsl #12
    3040:	008b0000 	addeq	r0, fp, r0
    3044:	25070000 	strcs	r0, [r7, #-0]
    3048:	00000000 	andeq	r0, r0, r0
    304c:	00017708 	andeq	r7, r1, r8, lsl #14
    3050:	0e1c0200 	cdpeq	2, 1, cr0, cr12, cr0, {0}
    3054:	00000097 	muleq	r0, r7, r0
    3058:	007c0409 	rsbseq	r0, ip, r9, lsl #8
    305c:	25060000 	strcs	r0, [r6, #-0]
    3060:	ac000000 	stcge	0, cr0, [r0], {-0}
    3064:	07000000 	streq	r0, [r0, -r0]
    3068:	000000ac 	andeq	r0, r0, ip, lsr #1
    306c:	b9040900 	stmdblt	r4, {r8, fp}
    3070:	04000000 	streq	r0, [r0], #-0
    3074:	00510801 	subseq	r0, r1, r1, lsl #16
    3078:	b2050000 	andlt	r0, r5, #0, 0
    307c:	08000000 	stmdaeq	r0, {}	; <UNPREDICTABLE>
    3080:	00000311 	andeq	r0, r0, r1, lsl r3
    3084:	ca0e2102 	bgt	38b494 <__bss_end__+0x381a4c>
    3088:	09000000 	stmdbeq	r0, {}	; <UNPREDICTABLE>
    308c:	00009d04 	andeq	r9, r0, r4, lsl #26
    3090:	041b0a00 	ldreq	r0, [fp], #-2560	; 0xfffff600
    3094:	04010000 	streq	r0, [r1], #-0
    3098:	00002505 	andeq	r2, r0, r5, lsl #10
    309c:	0092f400 	addseq	pc, r2, r0, lsl #8
    30a0:	00003000 	andeq	r3, r0, r0
    30a4:	4b9c0100 	blmi	fe7034ac <__bss_end__+0xfe6f9a64>
    30a8:	0b000001 	bleq	30b4 <__code_start__-0x4f4c>
    30ac:	0031735f 	eorseq	r7, r1, pc, asr r3
    30b0:	ac190401 	cfldrsge	mvf0, [r9], {1}
    30b4:	f0000000 			; <UNDEFINED> instruction: 0xf0000000
    30b8:	ec00001d 	stc	0, cr0, [r0], {29}
    30bc:	0b00001d 	bleq	3138 <__code_start__-0x4ec8>
    30c0:	0032735f 	eorseq	r7, r2, pc, asr r3
    30c4:	ac2a0401 	cfstrsge	mvf0, [sl], #-4
    30c8:	15000000 	strne	r0, [r0, #-0]
    30cc:	1100001e 	tstne	r0, lr, lsl r0
    30d0:	0b00001e 	bleq	3150 <__code_start__-0x4eb0>
    30d4:	0401006e 	streq	r0, [r1], #-110	; 0xffffff92
    30d8:	00002c36 	andeq	r2, r0, r6, lsr ip
    30dc:	001e4000 	andseq	r4, lr, r0
    30e0:	001e3600 	andseq	r3, lr, r0, lsl #12
    30e4:	31730c00 	cmncc	r3, r0, lsl #24
    30e8:	1a050100 	bne	1434f0 <__bss_end__+0x139aa8>
    30ec:	0000014b 	andeq	r0, r0, fp, asr #2
    30f0:	00001e97 	muleq	r0, r7, lr
    30f4:	00001e8f 	andeq	r1, r0, pc, lsl #29
    30f8:	0032730c 	eorseq	r7, r2, ip, lsl #6
    30fc:	4b2c0501 	blmi	b04508 <__bss_end__+0xafaac0>
    3100:	d5000001 	strle	r0, [r0, #-1]
    3104:	cf00001e 	svcgt	0x0000001e
    3108:	0000001e 	andeq	r0, r0, lr, lsl r0
    310c:	00620409 	rsbeq	r0, r2, r9, lsl #8
    3110:	ce000000 	cdpgt	0, 0, cr0, cr0, cr0, {0}
    3114:	04000000 	streq	r0, [r0], #-0
    3118:	00136000 	andseq	r6, r3, r0
    311c:	d6010400 	strle	r0, [r1], -r0, lsl #8
    3120:	0c000001 	stceq	0, cr0, [r0], {1}
    3124:	00000942 	andeq	r0, r0, r2, asr #18
    3128:	000002ad 	andeq	r0, r0, sp, lsr #5
    312c:	00009324 	andeq	r9, r0, r4, lsr #6
    3130:	00000004 	andeq	r0, r0, r4
    3134:	00001a97 	muleq	r0, r7, sl
    3138:	69050402 	stmdbvs	r5, {r1, sl}
    313c:	0300746e 	movweq	r7, #1134	; 0x46e
    3140:	01530704 	cmpeq	r3, r4, lsl #14
    3144:	01030000 	mrseq	r0, (UNDEF: 3)
    3148:	00004a06 	andeq	r4, r0, r6, lsl #20
    314c:	05020300 	streq	r0, [r2, #-768]	; 0xfffffd00
    3150:	00000192 	muleq	r0, r2, r1
    3154:	6e050403 	cdpvs	4, 0, cr0, cr5, cr3, {0}
    3158:	03000001 	movweq	r0, #1
    315c:	01690508 	cmneq	r9, r8, lsl #10
    3160:	01030000 	mrseq	r0, (UNDEF: 3)
    3164:	00004808 	andeq	r4, r0, r8, lsl #16
    3168:	07020300 	streq	r0, [r2, -r0, lsl #6]
    316c:	00000063 	andeq	r0, r0, r3, rrx
    3170:	4e070403 	cdpmi	4, 0, cr0, cr7, cr3, {0}
    3174:	03000001 	movweq	r0, #1
    3178:	01490708 	cmpeq	r9, r8, lsl #14
    317c:	25040000 	strcs	r0, [r4, #-0]
    3180:	7a000000 	bvc	3188 <__code_start__-0x4e78>
    3184:	05000000 	streq	r0, [r0, #-0]
    3188:	00000025 	andeq	r0, r0, r5, lsr #32
    318c:	01770600 	cmneq	r7, r0, lsl #12
    3190:	1c020000 	stcne	0, cr0, [r2], {-0}
    3194:	0000860e 	andeq	r8, r0, lr, lsl #12
    3198:	6b040700 	blvs	104da0 <__bss_end__+0xfb358>
    319c:	04000000 	streq	r0, [r0], #-0
    31a0:	00000025 	andeq	r0, r0, r5, lsr #32
    31a4:	0000009b 	muleq	r0, fp, r0
    31a8:	00009b05 	andeq	r9, r0, r5, lsl #22
    31ac:	04070000 	streq	r0, [r7], #-0
    31b0:	000000a8 	andeq	r0, r0, r8, lsr #1
    31b4:	51080103 	tstpl	r8, r3, lsl #2
    31b8:	08000000 	stmdaeq	r0, {}	; <UNPREDICTABLE>
    31bc:	000000a1 	andeq	r0, r0, r1, lsr #1
    31c0:	00031106 	andeq	r1, r3, r6, lsl #2
    31c4:	0e210200 	cdpeq	2, 2, cr0, cr1, cr0, {0}
    31c8:	000000b9 	strheq	r0, [r0], -r9
    31cc:	008c0407 	addeq	r0, ip, r7, lsl #8
    31d0:	e9090000 	stmdb	r9, {}	; <UNPREDICTABLE>
    31d4:	01000004 	tsteq	r0, r4
    31d8:	93240603 			; <UNDEFINED> instruction: 0x93240603
    31dc:	00040000 	andeq	r0, r4, r0
    31e0:	9c010000 	stcls	0, cr0, [r1], {-0}
	...

Disassembly of section .debug_abbrev:

00000000 <.debug_abbrev>:
       0:	25011101 	strcs	r1, [r1, #-257]	; 0xfffffeff
       4:	030b130e 	movweq	r1, #45838	; 0xb30e
       8:	110e1b0e 	tstne	lr, lr, lsl #22
       c:	10061201 	andne	r1, r6, r1, lsl #4
      10:	02000017 	andeq	r0, r0, #23, 0
      14:	0b0b0024 	bleq	2c00ac <__bss_end__+0x2b6664>
      18:	08030b3e 	stmdaeq	r3, {r1, r2, r3, r4, r5, r8, r9, fp}
      1c:	24030000 	strcs	r0, [r3], #-0
      20:	3e0b0b00 	vmlacc.f64	d0, d11, d0
      24:	000e030b 	andeq	r0, lr, fp, lsl #6
      28:	01150400 	tsteq	r5, r0, lsl #8
      2c:	13491927 	movtne	r1, #39207	; 0x9927
      30:	00001301 	andeq	r1, r0, r1, lsl #6
      34:	49000505 	stmdbmi	r0, {r0, r2, r8, sl}
      38:	06000013 			; <UNDEFINED> instruction: 0x06000013
      3c:	0e030034 	mcreq	0, 0, r0, cr3, cr4, {1}
      40:	0b3b0b3a 	bleq	ec2d30 <__bss_end__+0xeb92e8>
      44:	13490b39 	movtne	r0, #39737	; 0x9b39
      48:	193c193f 	ldmdbne	ip!, {r0, r1, r2, r3, r4, r5, r8, fp, ip}
      4c:	0f070000 	svceq	0x00070000
      50:	490b0b00 	stmdbmi	fp, {r8, r9, fp}
      54:	08000013 	stmdaeq	r0, {r0, r1, r4}
      58:	13490026 	movtne	r0, #36902	; 0x9026
      5c:	2e090000 	cdpcs	0, 0, cr0, cr9, cr0, {0}
      60:	03193f01 	tsteq	r9, #1, 30
      64:	3b0b3a0e 	blcc	2ce8a4 <__bss_end__+0x2c4e5c>
      68:	270b390b 	strcs	r3, [fp, -fp, lsl #18]
      6c:	12011119 	andne	r1, r1, #1073741830	; 0x40000006
      70:	97184006 	ldrls	r4, [r8, -r6]
      74:	13011942 	movwne	r1, #6466	; 0x1942
      78:	340a0000 	strcc	r0, [sl], #-0
      7c:	3a080300 	bcc	200c84 <__bss_end__+0x1f723c>
      80:	390b3b0b 	stmdbcc	fp, {r0, r1, r3, r8, r9, fp, ip, sp}
      84:	0213490b 	andseq	r4, r3, #180224	; 0x2c000
      88:	1742b717 	smlaldne	fp, r2, r7, r7
      8c:	340b0000 	strcc	r0, [fp], #-0
      90:	3a0e0300 	bcc	380c98 <__bss_end__+0x377250>
      94:	390b3b0b 	stmdbcc	fp, {r0, r1, r3, r8, r9, fp, ip, sp}
      98:	0213490b 	andseq	r4, r3, #180224	; 0x2c000
      9c:	1742b717 	smlaldne	fp, r2, r7, r7
      a0:	340c0000 	strcc	r0, [ip], #-0
      a4:	490e0300 	stmdbmi	lr, {r8, r9}
      a8:	02193413 	andseq	r3, r9, #318767104	; 0x13000000
      ac:	0d000018 	stceq	0, cr0, [r0, #-96]	; 0xffffffa0
      b0:	0111010b 	tsteq	r1, fp, lsl #2
      b4:	13010612 	movwne	r0, #5650	; 0x1612
      b8:	890e0000 	stmdbhi	lr, {}	; <UNPREDICTABLE>
      bc:	11010182 	smlabbne	r1, r2, r1, r0
      c0:	01133101 	tsteq	r3, r1, lsl #2
      c4:	0f000013 	svceq	0x00000013
      c8:	0001828a 	andeq	r8, r1, sl, lsl #5
      cc:	42911802 	addsmi	r1, r1, #131072	; 0x20000
      d0:	10000018 	andne	r0, r0, r8, lsl r0
      d4:	01018289 	smlabbeq	r1, r9, r2, r8
      d8:	42950111 	addsmi	r0, r5, #1073741828	; 0x40000004
      dc:	01133119 	tsteq	r3, r9, lsl r1
      e0:	11000013 	tstne	r0, r3, lsl r0
      e4:	00018289 	andeq	r8, r1, r9, lsl #5
      e8:	13310111 	teqne	r1, #1073741828	; 0x40000004
      ec:	01120000 	tsteq	r2, r0
      f0:	01134901 	tsteq	r3, r1, lsl #18
      f4:	13000013 	movwne	r0, #19
      f8:	13490021 	movtne	r0, #36897	; 0x9021
      fc:	00000b2f 	andeq	r0, r0, pc, lsr #22
     100:	03003414 	movweq	r3, #1044	; 0x414
     104:	3b0b3a0e 	blcc	2ce944 <__bss_end__+0x2c4efc>
     108:	490b390b 	stmdbmi	fp, {r0, r1, r3, r8, fp, ip, sp}
     10c:	000b1c13 	andeq	r1, fp, r3, lsl ip
     110:	010b1500 	tsteq	fp, r0, lsl #10
     114:	13011755 	movwne	r1, #5973	; 0x1755
     118:	89160000 	ldmdbhi	r6, {}	; <UNPREDICTABLE>
     11c:	11010182 	smlabbne	r1, r2, r1, r0
     120:	19429501 	stmdbne	r2, {r0, r8, sl, ip, pc}^
     124:	00001331 	andeq	r1, r0, r1, lsr r3
     128:	3f002e17 	svccc	0x00002e17
     12c:	6e193c19 	mrcvs	12, 0, r3, cr9, cr9, {0}
     130:	3a0e030e 	bcc	380d70 <__bss_end__+0x377328>
     134:	390b3b0b 	stmdbcc	fp, {r0, r1, r3, r8, r9, fp, ip, sp}
     138:	0000000b 	andeq	r0, r0, fp
     13c:	25011101 	strcs	r1, [r1, #-257]	; 0xfffffeff
     140:	030b130e 	movweq	r1, #45838	; 0xb30e
     144:	110e1b0e 	tstne	lr, lr, lsl #22
     148:	10061201 	andne	r1, r6, r1, lsl #4
     14c:	02000017 	andeq	r0, r0, #23, 0
     150:	0e030016 	mcreq	0, 0, r0, cr3, cr6, {0}
     154:	0b3b0b3a 	bleq	ec2e44 <__bss_end__+0xeb93fc>
     158:	13490b39 	movtne	r0, #39737	; 0x9b39
     15c:	13030000 	movwne	r0, #12288	; 0x3000
     160:	0b0e0301 	bleq	380d6c <__bss_end__+0x377324>
     164:	3b0b3a0b 	blcc	2ce998 <__bss_end__+0x2c4f50>
     168:	0013010b 	andseq	r0, r3, fp, lsl #2
     16c:	000d0400 	andeq	r0, sp, r0, lsl #8
     170:	13490e03 	movtne	r0, #40451	; 0x9e03
     174:	19340b38 	ldmdbne	r4!, {r3, r4, r5, r8, r9, fp}
     178:	0f050000 	svceq	0x00050000
     17c:	000b0b00 	andeq	r0, fp, r0, lsl #22
     180:	00240600 	eoreq	r0, r4, r0, lsl #12
     184:	0b3e0b0b 	bleq	f82db8 <__bss_end__+0xf79370>
     188:	00000803 	andeq	r0, r0, r3, lsl #16
     18c:	0b002407 	bleq	91b0 <gpio_set_off+0xc>
     190:	030b3e0b 	movweq	r3, #48651	; 0xbe0b
     194:	0800000e 	stmdaeq	r0, {r1, r2, r3}
     198:	19270115 	stmdbne	r7!, {r0, r2, r4, r8}
     19c:	13011349 	movwne	r1, #4937	; 0x1349
     1a0:	05090000 	streq	r0, [r9, #-0]
     1a4:	00134900 	andseq	r4, r3, r0, lsl #18
     1a8:	00340a00 	eorseq	r0, r4, r0, lsl #20
     1ac:	0b3a0e03 	bleq	e839c0 <__bss_end__+0xe79f78>
     1b0:	0b390b3b 	bleq	e42ea4 <__bss_end__+0xe3945c>
     1b4:	193f1349 	ldmdbne	pc!, {r0, r3, r6, r8, r9, ip}	; <UNPREDICTABLE>
     1b8:	0000193c 	andeq	r1, r0, ip, lsr r9
     1bc:	0b000f0b 	bleq	3df0 <__code_start__-0x4210>
     1c0:	0013490b 	andseq	r4, r3, fp, lsl #18
     1c4:	00260c00 	eoreq	r0, r6, r0, lsl #24
     1c8:	00001349 	andeq	r1, r0, r9, asr #6
     1cc:	3f012e0d 	svccc	0x00012e0d
     1d0:	3a0e0319 	bcc	380e3c <__bss_end__+0x3773f4>
     1d4:	390b3b0b 	stmdbcc	fp, {r0, r1, r3, r8, r9, fp, ip, sp}
     1d8:	4919270b 	ldmdbmi	r9, {r0, r1, r3, r8, r9, sl, sp}
     1dc:	12011113 	andne	r1, r1, #-1073741820	; 0xc0000004
     1e0:	97184006 	ldrls	r4, [r8, -r6]
     1e4:	13011942 	movwne	r1, #6466	; 0x1942
     1e8:	050e0000 	streq	r0, [lr, #-0]
     1ec:	3a080300 	bcc	200df4 <__bss_end__+0x1f73ac>
     1f0:	390b3b0b 	stmdbcc	fp, {r0, r1, r3, r8, r9, fp, ip, sp}
     1f4:	0213490b 	andseq	r4, r3, #180224	; 0x2c000
     1f8:	0f000018 	svceq	0x00000018
     1fc:	00000018 	andeq	r0, r0, r8, lsl r0
     200:	03003410 	movweq	r3, #1040	; 0x410
     204:	3b0b3a08 	blcc	2cea2c <__bss_end__+0x2c4fe4>
     208:	490b390b 	stmdbmi	fp, {r0, r1, r3, r8, fp, ip, sp}
     20c:	00180213 	andseq	r0, r8, r3, lsl r2
     210:	00341100 	eorseq	r1, r4, r0, lsl #2
     214:	0b3a0e03 	bleq	e83a28 <__bss_end__+0xe79fe0>
     218:	0b390b3b 	bleq	e42f0c <__bss_end__+0xe394c4>
     21c:	18021349 	stmdane	r2, {r0, r3, r6, r8, r9, ip}
     220:	34120000 	ldrcc	r0, [r2], #-0
     224:	3a080300 	bcc	200e2c <__bss_end__+0x1f73e4>
     228:	390b3b0b 	stmdbcc	fp, {r0, r1, r3, r8, r9, fp, ip, sp}
     22c:	0213490b 	andseq	r4, r3, #180224	; 0x2c000
     230:	1742b717 	smlaldne	fp, r2, r7, r7
     234:	89130000 	ldmdbhi	r3, {}	; <UNPREDICTABLE>
     238:	11010182 	smlabbne	r1, r2, r1, r0
     23c:	01133101 	tsteq	r3, r1, lsl #2
     240:	14000013 	strne	r0, [r0], #-19	; 0xffffffed
     244:	0001828a 	andeq	r8, r1, sl, lsl #5
     248:	42911802 	addsmi	r1, r1, #131072	; 0x20000
     24c:	15000018 	strne	r0, [r0, #-24]	; 0xffffffe8
     250:	01018289 	smlabbeq	r1, r9, r2, r8
     254:	00000111 	andeq	r0, r0, r1, lsl r1
     258:	49010116 	stmdbmi	r1, {r1, r2, r4, r8}
     25c:	00130113 	andseq	r0, r3, r3, lsl r1
     260:	00211700 	eoreq	r1, r1, r0, lsl #14
     264:	052f1349 	streq	r1, [pc, #-841]!	; ffffff23 <__bss_end__+0xffff64db>
     268:	2e180000 	cdpcs	0, 1, cr0, cr8, cr0, {0}
     26c:	3c193f00 	ldccc	15, cr3, [r9], {-0}
     270:	030e6e19 	movweq	r6, #60953	; 0xee19
     274:	3b0b3a0e 	blcc	2ceab4 <__bss_end__+0x2c506c>
     278:	000b390b 	andeq	r3, fp, fp, lsl #18
     27c:	11010000 	mrsne	r0, (UNDEF: 1)
     280:	130e2501 	movwne	r2, #58625	; 0xe501
     284:	1b0e030b 	blne	380eb8 <__bss_end__+0x377470>
     288:	1201110e 	andne	r1, r1, #-2147483645	; 0x80000003
     28c:	00171006 	andseq	r1, r7, r6
     290:	00240200 	eoreq	r0, r4, r0, lsl #4
     294:	0b3e0b0b 	bleq	f82ec8 <__bss_end__+0xf79480>
     298:	00000803 	andeq	r0, r0, r3, lsl #16
     29c:	0b002403 	bleq	92b0 <strcmp+0x18>
     2a0:	030b3e0b 	movweq	r3, #48651	; 0xbe0b
     2a4:	0400000e 	streq	r0, [r0], #-14
     2a8:	19270115 	stmdbne	r7!, {r0, r2, r4, r8}
     2ac:	13011349 	movwne	r1, #4937	; 0x1349
     2b0:	05050000 	streq	r0, [r5, #-0]
     2b4:	00134900 	andseq	r4, r3, r0, lsl #18
     2b8:	00340600 	eorseq	r0, r4, r0, lsl #12
     2bc:	0b3a0e03 	bleq	e83ad0 <__bss_end__+0xe7a088>
     2c0:	0b390b3b 	bleq	e42fb4 <__bss_end__+0xe3956c>
     2c4:	193f1349 	ldmdbne	pc!, {r0, r3, r6, r8, r9, ip}	; <UNPREDICTABLE>
     2c8:	0000193c 	andeq	r1, r0, ip, lsr r9
     2cc:	0b000f07 	bleq	3ef0 <__code_start__-0x4110>
     2d0:	0013490b 	andseq	r4, r3, fp, lsl #18
     2d4:	00260800 	eoreq	r0, r6, r0, lsl #16
     2d8:	00001349 	andeq	r1, r0, r9, asr #6
     2dc:	47003409 	strmi	r3, [r0, -r9, lsl #8]
     2e0:	3b0b3a13 	blcc	2ceb34 <__bss_end__+0x2c50ec>
     2e4:	020b390b 	andeq	r3, fp, #180224	; 0x2c000
     2e8:	0a000018 	beq	350 <__code_start__-0x7cb0>
     2ec:	193f012e 	ldmdbne	pc!, {r1, r2, r3, r5, r8}	; <UNPREDICTABLE>
     2f0:	0b3a0e03 	bleq	e83b04 <__bss_end__+0xe7a0bc>
     2f4:	0b390b3b 	bleq	e42fe8 <__bss_end__+0xe395a0>
     2f8:	01111927 	tsteq	r1, r7, lsr #18
     2fc:	18400612 	stmdane	r0, {r1, r4, r9, sl}^
     300:	01194297 			; <UNDEFINED> instruction: 0x01194297
     304:	0b000013 	bleq	358 <__code_start__-0x7ca8>
     308:	08030005 	stmdaeq	r3, {r0, r2}
     30c:	0b3b0b3a 	bleq	ec2ffc <__bss_end__+0xeb95b4>
     310:	13490b39 	movtne	r0, #39737	; 0x9b39
     314:	00001802 	andeq	r1, r0, r2, lsl #16
     318:	3f002e0c 	svccc	0x00002e0c
     31c:	3a0e0319 	bcc	380f88 <__bss_end__+0x377540>
     320:	390b3b0b 	stmdbcc	fp, {r0, r1, r3, r8, r9, fp, ip, sp}
     324:	1119270b 	tstne	r9, fp, lsl #14
     328:	40061201 	andmi	r1, r6, r1, lsl #4
     32c:	19429718 	stmdbne	r2, {r3, r4, r8, r9, sl, ip, pc}^
     330:	2e0d0000 	cdpcs	0, 0, cr0, cr13, cr0, {0}
     334:	3a0e0301 	bcc	380f40 <__bss_end__+0x3774f8>
     338:	390b3b0b 	stmdbcc	fp, {r0, r1, r3, r8, r9, fp, ip, sp}
     33c:	4919270b 	ldmdbmi	r9, {r0, r1, r3, r8, r9, sl, sp}
     340:	12011113 	andne	r1, r1, #-1073741820	; 0xc0000004
     344:	97184006 	ldrls	r4, [r8, -r6]
     348:	13011942 	movwne	r1, #6466	; 0x1942
     34c:	050e0000 	streq	r0, [lr, #-0]
     350:	3a080300 	bcc	200f58 <__bss_end__+0x1f7510>
     354:	390b3b0b 	stmdbcc	fp, {r0, r1, r3, r8, r9, fp, ip, sp}
     358:	0213490b 	andseq	r4, r3, #180224	; 0x2c000
     35c:	1742b717 	smlaldne	fp, r2, r7, r7
     360:	890f0000 	stmdbhi	pc, {}	; <UNPREDICTABLE>
     364:	11010182 	smlabbne	r1, r2, r1, r0
     368:	00133101 	andseq	r3, r3, r1, lsl #2
     36c:	828a1000 	addhi	r1, sl, #0, 0
     370:	18020001 	stmdane	r2, {r0}
     374:	00184291 	mulseq	r8, r1, r2
     378:	002e1100 	eoreq	r1, lr, r0, lsl #2
     37c:	193c193f 	ldmdbne	ip!, {r0, r1, r2, r3, r4, r5, r8, fp, ip}
     380:	0e030e6e 	cdpeq	14, 0, cr0, cr3, cr14, {3}
     384:	0b3b0b3a 	bleq	ec3074 <__bss_end__+0xeb962c>
     388:	00000b39 	andeq	r0, r0, r9, lsr fp
     38c:	01110100 	tsteq	r1, r0, lsl #2
     390:	0b130e25 	bleq	4c3c2c <__bss_end__+0x4ba1e4>
     394:	0e1b0e03 	cdpeq	14, 1, cr0, cr11, cr3, {0}
     398:	06120111 			; <UNDEFINED> instruction: 0x06120111
     39c:	00001710 	andeq	r1, r0, r0, lsl r7
     3a0:	0b002402 	bleq	93b0 <__code_end__+0x70>
     3a4:	030b3e0b 	movweq	r3, #48651	; 0xbe0b
     3a8:	03000008 	movweq	r0, #8
     3ac:	0b0b0024 	bleq	2c0444 <__bss_end__+0x2b69fc>
     3b0:	0e030b3e 	vmoveq.16	d3[0], r0
     3b4:	15040000 	strne	r0, [r4, #-0]
     3b8:	49192701 	ldmdbmi	r9, {r0, r8, r9, sl, sp}
     3bc:	00130113 	andseq	r0, r3, r3, lsl r1
     3c0:	00050500 	andeq	r0, r5, r0, lsl #10
     3c4:	00001349 	andeq	r1, r0, r9, asr #6
     3c8:	03003406 	movweq	r3, #1030	; 0x406
     3cc:	3b0b3a0e 	blcc	2cec0c <__bss_end__+0x2c51c4>
     3d0:	490b390b 	stmdbmi	fp, {r0, r1, r3, r8, fp, ip, sp}
     3d4:	3c193f13 	ldccc	15, cr3, [r9], {19}
     3d8:	07000019 	smladeq	r0, r9, r0, r0
     3dc:	0b0b000f 	bleq	2c0420 <__bss_end__+0x2b69d8>
     3e0:	00001349 	andeq	r1, r0, r9, asr #6
     3e4:	49002608 	stmdbmi	r0, {r3, r9, sl, sp}
     3e8:	09000013 	stmdbeq	r0, {r0, r1, r4}
     3ec:	13470034 	movtne	r0, #28724	; 0x7034
     3f0:	0b3b0b3a 	bleq	ec30e0 <__bss_end__+0xeb9698>
     3f4:	18020b39 	stmdane	r2, {r0, r3, r4, r5, r8, r9, fp}
     3f8:	2e0a0000 	cdpcs	0, 0, cr0, cr10, cr0, {0}
     3fc:	03193f01 	tsteq	r9, #1, 30
     400:	3b0b3a0e 	blcc	2cec40 <__bss_end__+0x2c51f8>
     404:	270b390b 	strcs	r3, [fp, -fp, lsl #18]
     408:	11134919 	tstne	r3, r9, lsl r9
     40c:	40061201 	andmi	r1, r6, r1, lsl #4
     410:	19429618 	stmdbne	r2, {r3, r4, r9, sl, ip, pc}^
     414:	050b0000 	streq	r0, [fp, #-0]
     418:	3a080300 	bcc	201020 <__bss_end__+0x1f75d8>
     41c:	390b3b0b 	stmdbcc	fp, {r0, r1, r3, r8, r9, fp, ip, sp}
     420:	0213490b 	andseq	r4, r3, #180224	; 0x2c000
     424:	1742b717 	smlaldne	fp, r2, r7, r7
     428:	01000000 	mrseq	r0, (UNDEF: 0)
     42c:	0e250111 	mcreq	1, 1, r0, cr5, cr1, {0}
     430:	0e030b13 	vmoveq.32	d3[0], r0
     434:	01110e1b 	tsteq	r1, fp, lsl lr
     438:	17100612 			; <UNDEFINED> instruction: 0x17100612
     43c:	24020000 	strcs	r0, [r2], #-0
     440:	3e0b0b00 	vmlacc.f64	d0, d11, d0
     444:	000e030b 	andeq	r0, lr, fp, lsl #6
     448:	00240300 	eoreq	r0, r4, r0, lsl #6
     44c:	0b3e0b0b 	bleq	f83080 <__bss_end__+0xf79638>
     450:	00000803 	andeq	r0, r0, r3, lsl #16
     454:	03001604 	movweq	r1, #1540	; 0x604
     458:	3b0b3a0e 	blcc	2cec98 <__bss_end__+0x2c5250>
     45c:	490b390b 	stmdbmi	fp, {r0, r1, r3, r8, fp, ip, sp}
     460:	05000013 	streq	r0, [r0, #-19]	; 0xffffffed
     464:	19270115 	stmdbne	r7!, {r0, r2, r4, r8}
     468:	13011349 	movwne	r1, #4937	; 0x1349
     46c:	05060000 	streq	r0, [r6, #-0]
     470:	00134900 	andseq	r4, r3, r0, lsl #18
     474:	00340700 	eorseq	r0, r4, r0, lsl #14
     478:	0b3a0e03 	bleq	e83c8c <__bss_end__+0xe7a244>
     47c:	0b390b3b 	bleq	e43170 <__bss_end__+0xe39728>
     480:	193f1349 	ldmdbne	pc!, {r0, r3, r6, r8, r9, ip}	; <UNPREDICTABLE>
     484:	0000193c 	andeq	r1, r0, ip, lsr r9
     488:	0b000f08 	bleq	40b0 <__code_start__-0x3f50>
     48c:	0013490b 	andseq	r4, r3, fp, lsl #18
     490:	00260900 	eoreq	r0, r6, r0, lsl #18
     494:	00001349 	andeq	r1, r0, r9, asr #6
     498:	0301130a 	movweq	r1, #4874	; 0x130a
     49c:	3a0b0b0e 	bcc	2c30dc <__bss_end__+0x2b9694>
     4a0:	010b3b0b 	tsteq	fp, fp, lsl #22
     4a4:	0b000013 	bleq	4f8 <__code_start__-0x7b08>
     4a8:	0e03000d 	cdpeq	0, 0, cr0, cr3, cr13, {0}
     4ac:	0b381349 	bleq	e051d8 <__bss_end__+0xdfb790>
     4b0:	00001934 	andeq	r1, r0, r4, lsr r9
     4b4:	0b000f0c 	bleq	40ec <__code_start__-0x3f14>
     4b8:	0d00000b 	stceq	0, cr0, [r0, #-44]	; 0xffffffd4
     4bc:	193f012e 	ldmdbne	pc!, {r1, r2, r3, r5, r8}	; <UNPREDICTABLE>
     4c0:	0b3a0e03 	bleq	e83cd4 <__bss_end__+0xe7a28c>
     4c4:	0b390b3b 	bleq	e431b8 <__bss_end__+0xe39770>
     4c8:	13491927 	movtne	r1, #39207	; 0x9927
     4cc:	06120111 			; <UNDEFINED> instruction: 0x06120111
     4d0:	42971840 	addsmi	r1, r7, #64, 16	; 0x400000
     4d4:	00130119 	andseq	r0, r3, r9, lsl r1
     4d8:	00050e00 	andeq	r0, r5, r0, lsl #28
     4dc:	0b3a0803 	bleq	e824f0 <__bss_end__+0xe78aa8>
     4e0:	0b390b3b 	bleq	e431d4 <__bss_end__+0xe3978c>
     4e4:	17021349 	strne	r1, [r2, -r9, asr #6]
     4e8:	001742b7 			; <UNDEFINED> instruction: 0x001742b7
     4ec:	00050f00 	andeq	r0, r5, r0, lsl #30
     4f0:	0b3a0e03 	bleq	e83d04 <__bss_end__+0xe7a2bc>
     4f4:	0b390b3b 	bleq	e431e8 <__bss_end__+0xe397a0>
     4f8:	17021349 	strne	r1, [r2, -r9, asr #6]
     4fc:	001742b7 			; <UNDEFINED> instruction: 0x001742b7
     500:	00341000 	eorseq	r1, r4, r0
     504:	0b3a0803 	bleq	e82518 <__bss_end__+0xe78ad0>
     508:	0b390b3b 	bleq	e431fc <__bss_end__+0xe397b4>
     50c:	17021349 	strne	r1, [r2, -r9, asr #6]
     510:	001742b7 			; <UNDEFINED> instruction: 0x001742b7
     514:	00341100 	eorseq	r1, r4, r0, lsl #2
     518:	0b3a0e03 	bleq	e83d2c <__bss_end__+0xe7a2e4>
     51c:	0b390b3b 	bleq	e43210 <__bss_end__+0xe397c8>
     520:	17021349 	strne	r1, [r2, -r9, asr #6]
     524:	001742b7 			; <UNDEFINED> instruction: 0x001742b7
     528:	00341200 	eorseq	r1, r4, r0, lsl #4
     52c:	13490e03 	movtne	r0, #40451	; 0x9e03
     530:	18021934 	stmdane	r2, {r2, r4, r5, r8, fp, ip}
     534:	0b130000 	bleq	4c053c <__bss_end__+0x4b6af4>
     538:	00175501 	andseq	r5, r7, r1, lsl #10
     53c:	00341400 	eorseq	r1, r4, r0, lsl #8
     540:	0b3a0803 	bleq	e82554 <__bss_end__+0xe78b0c>
     544:	0b390b3b 	bleq	e43238 <__bss_end__+0xe397f0>
     548:	18021349 	stmdane	r2, {r0, r3, r6, r8, r9, ip}
     54c:	34150000 	ldrcc	r0, [r5], #-0
     550:	3a0e0300 	bcc	381158 <__bss_end__+0x377710>
     554:	390b3b0b 	stmdbcc	fp, {r0, r1, r3, r8, r9, fp, ip, sp}
     558:	0213490b 	andseq	r4, r3, #180224	; 0x2c000
     55c:	16000018 			; <UNDEFINED> instruction: 0x16000018
     560:	1755010b 	ldrbne	r0, [r5, -fp, lsl #2]
     564:	00001301 	andeq	r1, r0, r1, lsl #6
     568:	01828917 	orreq	r8, r2, r7, lsl r9
     56c:	31011101 	tstcc	r1, r1, lsl #2
     570:	00130113 	andseq	r0, r3, r3, lsl r1
     574:	828a1800 	addhi	r1, sl, #0, 16
     578:	18020001 	stmdane	r2, {r0}
     57c:	00184291 	mulseq	r8, r1, r2
     580:	82891900 	addhi	r1, r9, #0, 18
     584:	01110001 	tsteq	r1, r1
     588:	00001331 	andeq	r1, r0, r1, lsr r3
     58c:	31011d1a 	tstcc	r1, sl, lsl sp
     590:	b8015213 	stmdalt	r1, {r0, r1, r4, r9, ip, lr}
     594:	17550542 	ldrbne	r0, [r5, -r2, asr #10]
     598:	0b590b58 	bleq	1643300 <__bss_end__+0x16398b8>
     59c:	13010b57 	movwne	r0, #6999	; 0x1b57
     5a0:	051b0000 	ldreq	r0, [fp, #-0]
     5a4:	02133100 	andseq	r3, r3, #0
     5a8:	1742b717 	smlaldne	fp, r2, r7, r7
     5ac:	051c0000 	ldreq	r0, [ip, #-0]
     5b0:	00133100 	andseq	r3, r3, r0, lsl #2
     5b4:	00341d00 	eorseq	r1, r4, r0, lsl #26
     5b8:	18021331 	stmdane	r2, {r0, r4, r5, r8, r9, ip}
     5bc:	341e0000 	ldrcc	r0, [lr], #-0
     5c0:	02133100 	andseq	r3, r3, #0
     5c4:	1742b717 	smlaldne	fp, r2, r7, r7
     5c8:	341f0000 	ldrcc	r0, [pc], #-0	; 5d0 <__code_start__-0x7a30>
     5cc:	00133100 	andseq	r3, r3, r0, lsl #2
     5d0:	011d2000 	tsteq	sp, r0
     5d4:	01521331 	cmpeq	r2, r1, lsr r3
     5d8:	550542b8 	strpl	r4, [r5, #-696]	; 0xfffffd48
     5dc:	590b5817 	stmdbpl	fp, {r0, r1, r2, r4, fp, ip, lr}
     5e0:	000b570b 	andeq	r5, fp, fp, lsl #14
     5e4:	82892100 	addhi	r2, r9, #0
     5e8:	01110101 	tsteq	r1, r1, lsl #2
     5ec:	00001301 	andeq	r1, r0, r1, lsl #6
     5f0:	49010122 	stmdbmi	r1, {r1, r5, r8}
     5f4:	00130113 	andseq	r0, r3, r3, lsl r1
     5f8:	00212300 	eoreq	r2, r1, r0, lsl #6
     5fc:	0b2f1349 	bleq	bc5328 <__bss_end__+0xbbb8e0>
     600:	2e240000 	cdpcs	0, 2, cr0, cr4, cr0, {0}
     604:	3a0e0301 	bcc	381210 <__bss_end__+0x3777c8>
     608:	390b3b0b 	stmdbcc	fp, {r0, r1, r3, r8, r9, fp, ip, sp}
     60c:	4919270b 	ldmdbmi	r9, {r0, r1, r3, r8, r9, sl, sp}
     610:	010b2013 	tsteq	fp, r3, lsl r0
     614:	25000013 	strcs	r0, [r0, #-19]	; 0xffffffed
     618:	0e030005 	cdpeq	0, 0, cr0, cr3, cr5, {0}
     61c:	0b3b0b3a 	bleq	ec330c <__bss_end__+0xeb98c4>
     620:	13490b39 	movtne	r0, #39737	; 0x9b39
     624:	05260000 	streq	r0, [r6, #-0]!
     628:	3a080300 	bcc	201230 <__bss_end__+0x1f77e8>
     62c:	390b3b0b 	stmdbcc	fp, {r0, r1, r3, r8, r9, fp, ip, sp}
     630:	0013490b 	andseq	r4, r3, fp, lsl #18
     634:	00342700 	eorseq	r2, r4, r0, lsl #14
     638:	0b3a0803 	bleq	e8264c <__bss_end__+0xe78c04>
     63c:	0b390b3b 	bleq	e43330 <__bss_end__+0xe398e8>
     640:	00001349 	andeq	r1, r0, r9, asr #6
     644:	00010b28 	andeq	r0, r1, r8, lsr #22
     648:	00342900 	eorseq	r2, r4, r0, lsl #18
     64c:	0b3a0e03 	bleq	e83e60 <__bss_end__+0xe7a418>
     650:	0b390b3b 	bleq	e43344 <__bss_end__+0xe398fc>
     654:	00001349 	andeq	r1, r0, r9, asr #6
     658:	03012e2a 	movweq	r2, #7722	; 0x1e2a
     65c:	3b0b3a08 	blcc	2cee84 <__bss_end__+0x2c543c>
     660:	270b390b 	strcs	r3, [fp, -fp, lsl #18]
     664:	20134919 	andscs	r4, r3, r9, lsl r9
     668:	0013010b 	andseq	r0, r3, fp, lsl #2
     66c:	012e2b00 			; <UNDEFINED> instruction: 0x012e2b00
     670:	0e03193f 			; <UNDEFINED> instruction: 0x0e03193f
     674:	0b3b0b3a 	bleq	ec3364 <__bss_end__+0xeb991c>
     678:	19270b39 	stmdbne	r7!, {r0, r3, r4, r5, r8, r9, fp}
     67c:	06120111 			; <UNDEFINED> instruction: 0x06120111
     680:	42971840 	addsmi	r1, r7, #64, 16	; 0x400000
     684:	00130119 	andseq	r0, r3, r9, lsl r1
     688:	012e2c00 			; <UNDEFINED> instruction: 0x012e2c00
     68c:	01111331 	tsteq	r1, r1, lsr r3
     690:	18400612 	stmdane	r0, {r1, r4, r9, sl}^
     694:	01194297 			; <UNDEFINED> instruction: 0x01194297
     698:	2d000013 	stccs	0, cr0, [r0, #-76]	; 0xffffffb4
     69c:	13310005 	teqne	r1, #5, 0
     6a0:	00001802 	andeq	r1, r0, r2, lsl #16
     6a4:	3100052e 	tstcc	r0, lr, lsr #10
     6a8:	000b1c13 	andeq	r1, fp, r3, lsl ip
     6ac:	010b2f00 	tsteq	fp, r0, lsl #30
     6b0:	01111331 	tsteq	r1, r1, lsr r3
     6b4:	13010612 	movwne	r0, #5650	; 0x1612
     6b8:	2e300000 	cdpcs	0, 3, cr0, cr0, cr0, {0}
     6bc:	3c193f00 	ldccc	15, cr3, [r9], {-0}
     6c0:	030e6e19 	movweq	r6, #60953	; 0xee19
     6c4:	3b0b3a0e 	blcc	2cef04 <__bss_end__+0x2c54bc>
     6c8:	000b390b 	andeq	r3, fp, fp, lsl #18
     6cc:	11010000 	mrsne	r0, (UNDEF: 1)
     6d0:	130e2501 	movwne	r2, #58625	; 0xe501
     6d4:	1b0e030b 	blne	381308 <__bss_end__+0x3778c0>
     6d8:	1117550e 	tstne	r7, lr, lsl #10
     6dc:	00171001 	andseq	r1, r7, r1
     6e0:	00240200 	eoreq	r0, r4, r0, lsl #4
     6e4:	0b3e0b0b 	bleq	f83318 <__bss_end__+0xf798d0>
     6e8:	00000803 	andeq	r0, r0, r3, lsl #16
     6ec:	0b002403 	bleq	9700 <__data_end__+0xbc>
     6f0:	030b3e0b 	movweq	r3, #48651	; 0xbe0b
     6f4:	0400000e 	streq	r0, [r0], #-14
     6f8:	19270115 	stmdbne	r7!, {r0, r2, r4, r8}
     6fc:	13011349 	movwne	r1, #4937	; 0x1349
     700:	05050000 	streq	r0, [r5, #-0]
     704:	00134900 	andseq	r4, r3, r0, lsl #18
     708:	00340600 	eorseq	r0, r4, r0, lsl #12
     70c:	0b3a0e03 	bleq	e83f20 <__bss_end__+0xe7a4d8>
     710:	0b390b3b 	bleq	e43404 <__bss_end__+0xe399bc>
     714:	193f1349 	ldmdbne	pc!, {r0, r3, r6, r8, r9, ip}	; <UNPREDICTABLE>
     718:	0000193c 	andeq	r1, r0, ip, lsr r9
     71c:	0b000f07 	bleq	4340 <__code_start__-0x3cc0>
     720:	0013490b 	andseq	r4, r3, fp, lsl #18
     724:	00260800 	eoreq	r0, r6, r0, lsl #16
     728:	00001349 	andeq	r1, r0, r9, asr #6
     72c:	3f012e09 	svccc	0x00012e09
     730:	3a0e0319 	bcc	38139c <__bss_end__+0x377954>
     734:	390b3b0b 	stmdbcc	fp, {r0, r1, r3, r8, r9, fp, ip, sp}
     738:	1119270b 	tstne	r9, fp, lsl #14
     73c:	40061201 	andmi	r1, r6, r1, lsl #4
     740:	19429718 	stmdbne	r2, {r3, r4, r8, r9, sl, ip, pc}^
     744:	00001301 	andeq	r1, r0, r1, lsl #6
     748:	0300340a 	movweq	r3, #1034	; 0x40a
     74c:	3b0b3a08 	blcc	2cef74 <__bss_end__+0x2c552c>
     750:	490b390b 	stmdbmi	fp, {r0, r1, r3, r8, fp, ip, sp}
     754:	b7170213 			; <UNDEFINED> instruction: 0xb7170213
     758:	00001742 	andeq	r1, r0, r2, asr #14
     75c:	3f012e0b 	svccc	0x00012e0b
     760:	3a0e0319 	bcc	3813cc <__bss_end__+0x377984>
     764:	390b3b0b 	stmdbcc	fp, {r0, r1, r3, r8, r9, fp, ip, sp}
     768:	1119270b 	tstne	r9, fp, lsl #14
     76c:	40061201 	andmi	r1, r6, r1, lsl #4
     770:	19429718 	stmdbne	r2, {r3, r4, r8, r9, sl, ip, pc}^
     774:	01000000 	mrseq	r0, (UNDEF: 0)
     778:	0e250111 	mcreq	1, 1, r0, cr5, cr1, {0}
     77c:	0e030b13 	vmoveq.32	d3[0], r0
     780:	01110e1b 	tsteq	r1, fp, lsl lr
     784:	17100612 			; <UNDEFINED> instruction: 0x17100612
     788:	24020000 	strcs	r0, [r2], #-0
     78c:	3e0b0b00 	vmlacc.f64	d0, d11, d0
     790:	0008030b 	andeq	r0, r8, fp, lsl #6
     794:	00240300 	eoreq	r0, r4, r0, lsl #6
     798:	0b3e0b0b 	bleq	f833cc <__bss_end__+0xf79984>
     79c:	00000e03 	andeq	r0, r0, r3, lsl #28
     7a0:	27011504 	strcs	r1, [r1, -r4, lsl #10]
     7a4:	01134919 	tsteq	r3, r9, lsl r9
     7a8:	05000013 	streq	r0, [r0, #-19]	; 0xffffffed
     7ac:	13490005 	movtne	r0, #36869	; 0x9005
     7b0:	34060000 	strcc	r0, [r6], #-0
     7b4:	3a0e0300 	bcc	3813bc <__bss_end__+0x377974>
     7b8:	390b3b0b 	stmdbcc	fp, {r0, r1, r3, r8, r9, fp, ip, sp}
     7bc:	3f13490b 	svccc	0x0013490b
     7c0:	00193c19 	andseq	r3, r9, r9, lsl ip
     7c4:	000f0700 	andeq	r0, pc, r0, lsl #14
     7c8:	13490b0b 	movtne	r0, #39691	; 0x9b0b
     7cc:	26080000 	strcs	r0, [r8], -r0
     7d0:	00134900 	andseq	r4, r3, r0, lsl #18
     7d4:	012e0900 			; <UNDEFINED> instruction: 0x012e0900
     7d8:	0e03193f 			; <UNDEFINED> instruction: 0x0e03193f
     7dc:	0b3b0b3a 	bleq	ec34cc <__bss_end__+0xeb9a84>
     7e0:	19270b39 	stmdbne	r7!, {r0, r3, r4, r5, r8, r9, fp}
     7e4:	11190187 	tstne	r9, r7, lsl #3
     7e8:	40061201 	andmi	r1, r6, r1, lsl #4
     7ec:	19429718 	stmdbne	r2, {r3, r4, r8, r9, sl, ip, pc}^
     7f0:	00001301 	andeq	r1, r0, r1, lsl #6
     7f4:	0182890a 	orreq	r8, r2, sl, lsl #18
     7f8:	01011101 	tsteq	r1, r1, lsl #2
     7fc:	0b000013 	bleq	850 <__code_start__-0x77b0>
     800:	0001828a 	andeq	r8, r1, sl, lsl #5
     804:	42911802 	addsmi	r1, r1, #131072	; 0x20000
     808:	0c000018 	stceq	0, cr0, [r0], {24}
     80c:	00018289 	andeq	r8, r1, r9, lsl #5
     810:	13310111 	teqne	r1, #1073741828	; 0x40000004
     814:	890d0000 	stmdbhi	sp, {}	; <UNPREDICTABLE>
     818:	11010182 	smlabbne	r1, r2, r1, r0
     81c:	01133101 	tsteq	r3, r1, lsl #2
     820:	0e000013 	mcreq	0, 0, r0, cr0, cr3, {0}
     824:	193f002e 	ldmdbne	pc!, {r1, r2, r3, r5}	; <UNPREDICTABLE>
     828:	0e6e193c 			; <UNDEFINED> instruction: 0x0e6e193c
     82c:	0b3a0e03 	bleq	e84040 <__bss_end__+0xe7a5f8>
     830:	0b390b3b 	bleq	e43524 <__bss_end__+0xe39adc>
     834:	01000000 	mrseq	r0, (UNDEF: 0)
     838:	0e250111 	mcreq	1, 1, r0, cr5, cr1, {0}
     83c:	0e030b13 	vmoveq.32	d3[0], r0
     840:	01110e1b 	tsteq	r1, fp, lsl lr
     844:	17100612 			; <UNDEFINED> instruction: 0x17100612
     848:	24020000 	strcs	r0, [r2], #-0
     84c:	3e0b0b00 	vmlacc.f64	d0, d11, d0
     850:	0008030b 	andeq	r0, r8, fp, lsl #6
     854:	00240300 	eoreq	r0, r4, r0, lsl #6
     858:	0b3e0b0b 	bleq	f8348c <__bss_end__+0xf79a44>
     85c:	00000e03 	andeq	r0, r0, r3, lsl #28
     860:	27011504 	strcs	r1, [r1, -r4, lsl #10]
     864:	01134919 	tsteq	r3, r9, lsl r9
     868:	05000013 	streq	r0, [r0, #-19]	; 0xffffffed
     86c:	13490005 	movtne	r0, #36869	; 0x9005
     870:	34060000 	strcc	r0, [r6], #-0
     874:	3a0e0300 	bcc	38147c <__bss_end__+0x377a34>
     878:	390b3b0b 	stmdbcc	fp, {r0, r1, r3, r8, r9, fp, ip, sp}
     87c:	3f13490b 	svccc	0x0013490b
     880:	00193c19 	andseq	r3, r9, r9, lsl ip
     884:	000f0700 	andeq	r0, pc, r0, lsl #14
     888:	13490b0b 	movtne	r0, #39691	; 0x9b0b
     88c:	26080000 	strcs	r0, [r8], -r0
     890:	00134900 	andseq	r4, r3, r0, lsl #18
     894:	012e0900 			; <UNDEFINED> instruction: 0x012e0900
     898:	0e03193f 			; <UNDEFINED> instruction: 0x0e03193f
     89c:	0b3b0b3a 	bleq	ec358c <__bss_end__+0xeb9b44>
     8a0:	01110b39 	tsteq	r1, r9, lsr fp
     8a4:	18400612 	stmdane	r0, {r1, r4, r9, sl}^
     8a8:	01194297 			; <UNDEFINED> instruction: 0x01194297
     8ac:	0a000013 	beq	900 <__code_start__-0x7700>
     8b0:	193f002e 	ldmdbne	pc!, {r1, r2, r3, r5}	; <UNPREDICTABLE>
     8b4:	0b3a0e03 	bleq	e840c8 <__bss_end__+0xe7a680>
     8b8:	0b390b3b 	bleq	e435ac <__bss_end__+0xe39b64>
     8bc:	193c1927 	ldmdbne	ip!, {r0, r1, r2, r5, r8, fp, ip}
     8c0:	340b0000 	strcc	r0, [fp], #-0
     8c4:	3a080300 	bcc	2014cc <__bss_end__+0x1f7a84>
     8c8:	390b3b0b 	stmdbcc	fp, {r0, r1, r3, r8, r9, fp, ip, sp}
     8cc:	0213490b 	andseq	r4, r3, #180224	; 0x2c000
     8d0:	1742b717 	smlaldne	fp, r2, r7, r7
     8d4:	340c0000 	strcc	r0, [ip], #-0
     8d8:	3a0e0300 	bcc	3814e0 <__bss_end__+0x377a98>
     8dc:	390b3b0b 	stmdbcc	fp, {r0, r1, r3, r8, r9, fp, ip, sp}
     8e0:	0013490b 	andseq	r4, r3, fp, lsl #18
     8e4:	010b0d00 	tsteq	fp, r0, lsl #26
     8e8:	06120111 			; <UNDEFINED> instruction: 0x06120111
     8ec:	00001301 	andeq	r1, r0, r1, lsl #6
     8f0:	0182890e 	orreq	r8, r2, lr, lsl #18
     8f4:	31011100 	mrscc	r1, (UNDEF: 17)
     8f8:	0f000013 	svceq	0x00000013
     8fc:	193f002e 	ldmdbne	pc!, {r1, r2, r3, r5}	; <UNPREDICTABLE>
     900:	0e6e193c 			; <UNDEFINED> instruction: 0x0e6e193c
     904:	0b3a0e03 	bleq	e84118 <__bss_end__+0xe7a6d0>
     908:	0b39053b 	bleq	e41dfc <__bss_end__+0xe383b4>
     90c:	2e100000 	cdpcs	0, 1, cr0, cr0, cr0, {0}
     910:	3c193f00 	ldccc	15, cr3, [r9], {-0}
     914:	030e6e19 	movweq	r6, #60953	; 0xee19
     918:	3b0b3a0e 	blcc	2cf158 <__bss_end__+0x2c5710>
     91c:	000b390b 	andeq	r3, fp, fp, lsl #18
     920:	11010000 	mrsne	r0, (UNDEF: 1)
     924:	130e2501 	movwne	r2, #58625	; 0xe501
     928:	1b0e030b 	blne	38155c <__bss_end__+0x377b14>
     92c:	1201110e 	andne	r1, r1, #-2147483645	; 0x80000003
     930:	00171006 	andseq	r1, r7, r6
     934:	00240200 	eoreq	r0, r4, r0, lsl #4
     938:	0b3e0b0b 	bleq	f8356c <__bss_end__+0xf79b24>
     93c:	00000803 	andeq	r0, r0, r3, lsl #16
     940:	0b002403 	bleq	9954 <__data_end__+0x310>
     944:	030b3e0b 	movweq	r3, #48651	; 0xbe0b
     948:	0400000e 	streq	r0, [r0], #-14
     94c:	19270115 	stmdbne	r7!, {r0, r2, r4, r8}
     950:	13011349 	movwne	r1, #4937	; 0x1349
     954:	05050000 	streq	r0, [r5, #-0]
     958:	00134900 	andseq	r4, r3, r0, lsl #18
     95c:	00340600 	eorseq	r0, r4, r0, lsl #12
     960:	0b3a0e03 	bleq	e84174 <__bss_end__+0xe7a72c>
     964:	0b390b3b 	bleq	e43658 <__bss_end__+0xe39c10>
     968:	193f1349 	ldmdbne	pc!, {r0, r3, r6, r8, r9, ip}	; <UNPREDICTABLE>
     96c:	0000193c 	andeq	r1, r0, ip, lsr r9
     970:	0b000f07 	bleq	4594 <__code_start__-0x3a6c>
     974:	0013490b 	andseq	r4, r3, fp, lsl #18
     978:	00260800 	eoreq	r0, r6, r0, lsl #16
     97c:	00001349 	andeq	r1, r0, r9, asr #6
     980:	3f002e09 	svccc	0x00002e09
     984:	3a0e0319 	bcc	3815f0 <__bss_end__+0x377ba8>
     988:	390b3b0b 	stmdbcc	fp, {r0, r1, r3, r8, r9, fp, ip, sp}
     98c:	1119270b 	tstne	r9, fp, lsl #14
     990:	40061201 	andmi	r1, r6, r1, lsl #4
     994:	19429718 	stmdbne	r2, {r3, r4, r8, r9, sl, ip, pc}^
     998:	01000000 	mrseq	r0, (UNDEF: 0)
     99c:	0e250111 	mcreq	1, 1, r0, cr5, cr1, {0}
     9a0:	0e030b13 	vmoveq.32	d3[0], r0
     9a4:	17550e1b 	smmlane	r5, fp, lr, r0
     9a8:	17100111 			; <UNDEFINED> instruction: 0x17100111
     9ac:	24020000 	strcs	r0, [r2], #-0
     9b0:	3e0b0b00 	vmlacc.f64	d0, d11, d0
     9b4:	0008030b 	andeq	r0, r8, fp, lsl #6
     9b8:	00260300 	eoreq	r0, r6, r0, lsl #6
     9bc:	00001349 	andeq	r1, r0, r9, asr #6
     9c0:	0b002404 	bleq	99d8 <__data_end__+0x394>
     9c4:	030b3e0b 	movweq	r3, #48651	; 0xbe0b
     9c8:	0500000e 	streq	r0, [r0, #-14]
     9cc:	19270115 	stmdbne	r7!, {r0, r2, r4, r8}
     9d0:	13011349 	movwne	r1, #4937	; 0x1349
     9d4:	05060000 	streq	r0, [r6, #-0]
     9d8:	00134900 	andseq	r4, r3, r0, lsl #18
     9dc:	00340700 	eorseq	r0, r4, r0, lsl #14
     9e0:	0b3a0e03 	bleq	e841f4 <__bss_end__+0xe7a7ac>
     9e4:	0b390b3b 	bleq	e436d8 <__bss_end__+0xe39c90>
     9e8:	193f1349 	ldmdbne	pc!, {r0, r3, r6, r8, r9, ip}	; <UNPREDICTABLE>
     9ec:	0000193c 	andeq	r1, r0, ip, lsr r9
     9f0:	0b000f08 	bleq	4618 <__code_start__-0x39e8>
     9f4:	0013490b 	andseq	r4, r3, fp, lsl #18
     9f8:	00340900 	eorseq	r0, r4, r0, lsl #18
     9fc:	0b3a0e03 	bleq	e84210 <__bss_end__+0xe7a7c8>
     a00:	0b390b3b 	bleq	e436f4 <__bss_end__+0xe39cac>
     a04:	00001349 	andeq	r1, r0, r9, asr #6
     a08:	3f012e0a 	svccc	0x00012e0a
     a0c:	3a0e0319 	bcc	381678 <__bss_end__+0x377c30>
     a10:	390b3b0b 	stmdbcc	fp, {r0, r1, r3, r8, r9, fp, ip, sp}
     a14:	8719270b 	ldrhi	r2, [r9, -fp, lsl #14]
     a18:	01111901 	tsteq	r1, r1, lsl #18
     a1c:	18400612 	stmdane	r0, {r1, r4, r9, sl}^
     a20:	01194297 			; <UNDEFINED> instruction: 0x01194297
     a24:	0b000013 	bleq	a78 <__code_start__-0x7588>
     a28:	0e030034 	mcreq	0, 0, r0, cr3, cr4, {1}
     a2c:	0b3b0b3a 	bleq	ec371c <__bss_end__+0xeb9cd4>
     a30:	13490b39 	movtne	r0, #39737	; 0x9b39
     a34:	0000061c 	andeq	r0, r0, ip, lsl r6
     a38:	0300340c 	movweq	r3, #1036	; 0x40c
     a3c:	3b0b3a0e 	blcc	2cf27c <__bss_end__+0x2c5834>
     a40:	490b390b 	stmdbmi	fp, {r0, r1, r3, r8, fp, ip, sp}
     a44:	000b1c13 	andeq	r1, fp, r3, lsl ip
     a48:	011d0d00 	tsteq	sp, r0, lsl #26
     a4c:	01521331 	cmpeq	r2, r1, lsr r3
     a50:	550b42b8 	strpl	r4, [fp, #-696]	; 0xfffffd48
     a54:	590b5817 	stmdbpl	fp, {r0, r1, r2, r4, fp, ip, lr}
     a58:	010b570b 	tsteq	fp, fp, lsl #14
     a5c:	0e000013 	mcreq	0, 0, r0, cr0, cr3, {0}
     a60:	1755010b 	ldrbne	r0, [r5, -fp, lsl #2]
     a64:	340f0000 	strcc	r0, [pc], #-0	; a6c <__code_start__-0x7594>
     a68:	02133100 	andseq	r3, r3, #0
     a6c:	1742b717 	smlaldne	fp, r2, r7, r7
     a70:	1d100000 	ldcne	0, cr0, [r0, #-0]
     a74:	52133101 	andspl	r3, r3, #1073741824	; 0x40000000
     a78:	0b42b801 	bleq	10aea84 <__bss_end__+0x10a503c>
     a7c:	06120111 			; <UNDEFINED> instruction: 0x06120111
     a80:	0b590b58 	bleq	16437e8 <__bss_end__+0x1639da0>
     a84:	13010b57 	movwne	r0, #6999	; 0x1b57
     a88:	89110000 	ldmdbhi	r1, {}	; <UNPREDICTABLE>
     a8c:	11000182 	smlabbne	r0, r2, r1, r0
     a90:	00133101 	andseq	r3, r3, r1, lsl #2
     a94:	82891200 	addhi	r1, r9, #0, 4
     a98:	01110101 	tsteq	r1, r1, lsl #2
     a9c:	13011331 	movwne	r1, #4913	; 0x1331
     aa0:	8a130000 	bhi	4c0aa8 <__bss_end__+0x4b7060>
     aa4:	02000182 	andeq	r0, r0, #-2147483616	; 0x80000020
     aa8:	18429118 	stmdane	r2, {r3, r4, r8, ip, pc}^
     aac:	89140000 	ldmdbhi	r4, {}	; <UNPREDICTABLE>
     ab0:	11010182 	smlabbne	r1, r2, r1, r0
     ab4:	00133101 	andseq	r3, r3, r1, lsl #2
     ab8:	012e1500 			; <UNDEFINED> instruction: 0x012e1500
     abc:	0e03193f 			; <UNDEFINED> instruction: 0x0e03193f
     ac0:	0b3b0b3a 	bleq	ec37b0 <__bss_end__+0xeb9d68>
     ac4:	19270b39 	stmdbne	r7!, {r0, r3, r4, r5, r8, r9, fp}
     ac8:	13010b20 	movwne	r0, #6944	; 0x1b20
     acc:	2e160000 	cdpcs	0, 1, cr0, cr6, cr0, {0}
     ad0:	03193f01 	tsteq	r9, #1, 30
     ad4:	3b0b3a0e 	blcc	2cf314 <__bss_end__+0x2c58cc>
     ad8:	270b390b 	strcs	r3, [fp, -fp, lsl #18]
     adc:	20134919 	andscs	r4, r3, r9, lsl r9
     ae0:	0013010b 	andseq	r0, r3, fp, lsl #2
     ae4:	012e1700 			; <UNDEFINED> instruction: 0x012e1700
     ae8:	01111331 	tsteq	r1, r1, lsr r3
     aec:	18400612 	stmdane	r0, {r1, r4, r9, sl}^
     af0:	01194297 			; <UNDEFINED> instruction: 0x01194297
     af4:	18000013 	stmdane	r0, {r0, r1, r4}
     af8:	193f002e 	ldmdbne	pc!, {r1, r2, r3, r5}	; <UNPREDICTABLE>
     afc:	0e6e193c 			; <UNDEFINED> instruction: 0x0e6e193c
     b00:	0b3a0e03 	bleq	e84314 <__bss_end__+0xe7a8cc>
     b04:	0b39053b 	bleq	e41ff8 <__bss_end__+0xe385b0>
     b08:	2e190000 	cdpcs	0, 1, cr0, cr9, cr0, {0}
     b0c:	3c193f00 	ldccc	15, cr3, [r9], {-0}
     b10:	030e6e19 	movweq	r6, #60953	; 0xee19
     b14:	3b0b3a0e 	blcc	2cf354 <__bss_end__+0x2c590c>
     b18:	000b390b 	andeq	r3, fp, fp, lsl #18
     b1c:	11010000 	mrsne	r0, (UNDEF: 1)
     b20:	130e2501 	movwne	r2, #58625	; 0xe501
     b24:	1b0e030b 	blne	381758 <__bss_end__+0x377d10>
     b28:	1201110e 	andne	r1, r1, #-2147483645	; 0x80000003
     b2c:	00171006 	andseq	r1, r7, r6
     b30:	00240200 	eoreq	r0, r4, r0, lsl #4
     b34:	0b3e0b0b 	bleq	f83768 <__bss_end__+0xf79d20>
     b38:	00000803 	andeq	r0, r0, r3, lsl #16
     b3c:	0b002403 	bleq	9b50 <__bss_end__+0x108>
     b40:	030b3e0b 	movweq	r3, #48651	; 0xbe0b
     b44:	0400000e 	streq	r0, [r0], #-14
     b48:	19270115 	stmdbne	r7!, {r0, r2, r4, r8}
     b4c:	13011349 	movwne	r1, #4937	; 0x1349
     b50:	05050000 	streq	r0, [r5, #-0]
     b54:	00134900 	andseq	r4, r3, r0, lsl #18
     b58:	00340600 	eorseq	r0, r4, r0, lsl #12
     b5c:	0b3a0e03 	bleq	e84370 <__bss_end__+0xe7a928>
     b60:	0b390b3b 	bleq	e43854 <__bss_end__+0xe39e0c>
     b64:	193f1349 	ldmdbne	pc!, {r0, r3, r6, r8, r9, ip}	; <UNPREDICTABLE>
     b68:	0000193c 	andeq	r1, r0, ip, lsr r9
     b6c:	0b000f07 	bleq	4790 <__code_start__-0x3870>
     b70:	0013490b 	andseq	r4, r3, fp, lsl #18
     b74:	00260800 	eoreq	r0, r6, r0, lsl #16
     b78:	00001349 	andeq	r1, r0, r9, asr #6
     b7c:	3f012e09 	svccc	0x00012e09
     b80:	3a0e0319 	bcc	3817ec <__bss_end__+0x377da4>
     b84:	390b3b0b 	stmdbcc	fp, {r0, r1, r3, r8, r9, fp, ip, sp}
     b88:	1119270b 	tstne	r9, fp, lsl #14
     b8c:	40061201 	andmi	r1, r6, r1, lsl #4
     b90:	19429718 	stmdbne	r2, {r3, r4, r8, r9, sl, ip, pc}^
     b94:	00001301 	andeq	r1, r0, r1, lsl #6
     b98:	0300050a 	movweq	r0, #1290	; 0x50a
     b9c:	3b0b3a08 	blcc	2cf3c4 <__bss_end__+0x2c597c>
     ba0:	490b390b 	stmdbmi	fp, {r0, r1, r3, r8, fp, ip, sp}
     ba4:	b7170213 			; <UNDEFINED> instruction: 0xb7170213
     ba8:	00001742 	andeq	r1, r0, r2, asr #14
     bac:	31011d0b 	tstcc	r1, fp, lsl #26
     bb0:	b8015213 	stmdalt	r1, {r0, r1, r4, r9, ip, lr}
     bb4:	17550b42 	ldrbne	r0, [r5, -r2, asr #22]
     bb8:	0b590b58 	bleq	1643920 <__bss_end__+0x1639ed8>
     bbc:	00000b57 	andeq	r0, r0, r7, asr fp
     bc0:	3100050c 	tstcc	r0, ip, lsl #10
     bc4:	b7170213 			; <UNDEFINED> instruction: 0xb7170213
     bc8:	00001742 	andeq	r1, r0, r2, asr #14
     bcc:	31011d0d 	tstcc	r1, sp, lsl #26
     bd0:	b8015213 	stmdalt	r1, {r0, r1, r4, r9, ip, lr}
     bd4:	01110b42 	tsteq	r1, r2, asr #22
     bd8:	0b580612 	bleq	1602428 <__bss_end__+0x15f89e0>
     bdc:	0b570b59 	bleq	15c3948 <__bss_end__+0x15b9f00>
     be0:	340e0000 	strcc	r0, [lr], #-0
     be4:	02133100 	andseq	r3, r3, #0
     be8:	1742b717 	smlaldne	fp, r2, r7, r7
     bec:	1d0f0000 	stcne	0, cr0, [pc, #-0]	; bf4 <__code_start__-0x740c>
     bf0:	52133101 	andspl	r3, r3, #1073741824	; 0x40000000
     bf4:	0b42b801 	bleq	10aec00 <__bss_end__+0x10a51b8>
     bf8:	06120111 			; <UNDEFINED> instruction: 0x06120111
     bfc:	0b590b58 	bleq	1643964 <__bss_end__+0x1639f1c>
     c00:	13010b57 	movwne	r0, #6999	; 0x1b57
     c04:	89100000 	ldmdbhi	r0, {}	; <UNPREDICTABLE>
     c08:	11010182 	smlabbne	r1, r2, r1, r0
     c0c:	00133101 	andseq	r3, r3, r1, lsl #2
     c10:	828a1100 	addhi	r1, sl, #0
     c14:	18020001 	stmdane	r2, {r0}
     c18:	00184291 	mulseq	r8, r1, r2
     c1c:	82891200 	addhi	r1, r9, #0, 4
     c20:	01110001 	tsteq	r1, r1
     c24:	00001331 	andeq	r1, r0, r1, lsr r3
     c28:	31010b13 	tstcc	r1, r3, lsl fp
     c2c:	00175513 	andseq	r5, r7, r3, lsl r5
     c30:	00341400 	eorseq	r1, r4, r0, lsl #8
     c34:	00001331 	andeq	r1, r0, r1, lsr r3
     c38:	55010b15 	strpl	r0, [r1, #-2837]	; 0xfffff4eb
     c3c:	16000017 			; <UNDEFINED> instruction: 0x16000017
     c40:	1331011d 	teqne	r1, #1073741831	; 0x40000007
     c44:	42b80152 	adcsmi	r0, r8, #-2147483628	; 0x80000014
     c48:	5817550b 	ldmdapl	r7, {r0, r1, r3, r8, sl, ip, lr}
     c4c:	570b590b 	strpl	r5, [fp, -fp, lsl #18]
     c50:	0013010b 	andseq	r0, r3, fp, lsl #2
     c54:	012e1700 			; <UNDEFINED> instruction: 0x012e1700
     c58:	0e03193f 			; <UNDEFINED> instruction: 0x0e03193f
     c5c:	0b3b0b3a 	bleq	ec394c <__bss_end__+0xeb9f04>
     c60:	19270b39 	stmdbne	r7!, {r0, r3, r4, r5, r8, r9, fp}
     c64:	13010b20 	movwne	r0, #6944	; 0x1b20
     c68:	05180000 	ldreq	r0, [r8, #-0]
     c6c:	3a080300 	bcc	201874 <__bss_end__+0x1f7e2c>
     c70:	390b3b0b 	stmdbcc	fp, {r0, r1, r3, r8, r9, fp, ip, sp}
     c74:	0013490b 	andseq	r4, r3, fp, lsl #18
     c78:	00341900 	eorseq	r1, r4, r0, lsl #18
     c7c:	0b3a0803 	bleq	e82c90 <__bss_end__+0xe79248>
     c80:	0b390b3b 	bleq	e43974 <__bss_end__+0xe39f2c>
     c84:	00001349 	andeq	r1, r0, r9, asr #6
     c88:	00010b1a 	andeq	r0, r1, sl, lsl fp
     c8c:	012e1b00 			; <UNDEFINED> instruction: 0x012e1b00
     c90:	0e03193f 			; <UNDEFINED> instruction: 0x0e03193f
     c94:	0b3b0b3a 	bleq	ec3984 <__bss_end__+0xeb9f3c>
     c98:	19270b39 	stmdbne	r7!, {r0, r3, r4, r5, r8, r9, fp}
     c9c:	0b201349 	bleq	8059c8 <__bss_end__+0x7fbf80>
     ca0:	00001301 	andeq	r1, r0, r1, lsl #6
     ca4:	3f002e1c 	svccc	0x00002e1c
     ca8:	3a0e0319 	bcc	381914 <__bss_end__+0x377ecc>
     cac:	390b3b0b 	stmdbcc	fp, {r0, r1, r3, r8, r9, fp, ip, sp}
     cb0:	4919270b 	ldmdbmi	r9, {r0, r1, r3, r8, r9, sl, sp}
     cb4:	000b2013 	andeq	r2, fp, r3, lsl r0
     cb8:	012e1d00 			; <UNDEFINED> instruction: 0x012e1d00
     cbc:	01111331 	tsteq	r1, r1, lsr r3
     cc0:	18400612 	stmdane	r0, {r1, r4, r9, sl}^
     cc4:	01194297 			; <UNDEFINED> instruction: 0x01194297
     cc8:	1e000013 	mcrne	0, 0, r0, cr0, cr3, {0}
     ccc:	01018289 	smlabbeq	r1, r9, r2, r8
     cd0:	42950111 	addsmi	r0, r5, #1073741828	; 0x40000004
     cd4:	00133119 	andseq	r3, r3, r9, lsl r1
     cd8:	002e1f00 	eoreq	r1, lr, r0, lsl #30
     cdc:	193c193f 	ldmdbne	ip!, {r0, r1, r2, r3, r4, r5, r8, fp, ip}
     ce0:	0e030e6e 	cdpeq	14, 0, cr0, cr3, cr14, {3}
     ce4:	0b3b0b3a 	bleq	ec39d4 <__bss_end__+0xeb9f8c>
     ce8:	00000b39 	andeq	r0, r0, r9, lsr fp
     cec:	01110100 	tsteq	r1, r0, lsl #2
     cf0:	0b130e25 	bleq	4c458c <__bss_end__+0x4bab44>
     cf4:	0e1b0e03 	cdpeq	14, 1, cr0, cr11, cr3, {0}
     cf8:	06120111 			; <UNDEFINED> instruction: 0x06120111
     cfc:	00001710 	andeq	r1, r0, r0, lsl r7
     d00:	0b002402 	bleq	9d10 <__bss_end__+0x2c8>
     d04:	030b3e0b 	movweq	r3, #48651	; 0xbe0b
     d08:	03000008 	movweq	r0, #8
     d0c:	0b0b0024 	bleq	2c0da4 <__bss_end__+0x2b735c>
     d10:	0e030b3e 	vmoveq.16	d3[0], r0
     d14:	35040000 	strcc	r0, [r4, #-0]
     d18:	00134900 	andseq	r4, r3, r0, lsl #18
     d1c:	00160500 	andseq	r0, r6, r0, lsl #10
     d20:	0b3a0e03 	bleq	e84534 <__bss_end__+0xe7aaec>
     d24:	0b390b3b 	bleq	e43a18 <__bss_end__+0xe39fd0>
     d28:	00001349 	andeq	r1, r0, r9, asr #6
     d2c:	3e010406 	cdpcc	4, 0, cr0, cr1, cr6, {0}
     d30:	490b0b0b 	stmdbmi	fp, {r0, r1, r3, r8, r9, fp}
     d34:	3b0b3a13 	blcc	2cf588 <__bss_end__+0x2c5b40>
     d38:	010b390b 	tsteq	fp, fp, lsl #18
     d3c:	07000013 	smladeq	r0, r3, r0, r0
     d40:	0e030028 	cdpeq	0, 0, cr0, cr3, cr8, {1}
     d44:	00000b1c 	andeq	r0, r0, ip, lsl fp
     d48:	03011308 	movweq	r1, #4872	; 0x1308
     d4c:	3a0b0b0e 	bcc	2c398c <__bss_end__+0x2b9f44>
     d50:	390b3b0b 	stmdbcc	fp, {r0, r1, r3, r8, r9, fp, ip, sp}
     d54:	0013010b 	andseq	r0, r3, fp, lsl #2
     d58:	000d0900 	andeq	r0, sp, r0, lsl #18
     d5c:	0b3a0803 	bleq	e82d70 <__bss_end__+0xe79328>
     d60:	0b390b3b 	bleq	e43a54 <__bss_end__+0xe3a00c>
     d64:	0b381349 	bleq	e05a90 <__bss_end__+0xdfc048>
     d68:	0d0a0000 	stceq	0, cr0, [sl, #-0]
     d6c:	3a0e0300 	bcc	381974 <__bss_end__+0x377f2c>
     d70:	390b3b0b 	stmdbcc	fp, {r0, r1, r3, r8, r9, fp, ip, sp}
     d74:	3813490b 	ldmdacc	r3, {r0, r1, r3, r8, fp, lr}
     d78:	0b00000b 	bleq	dac <__code_start__-0x7254>
     d7c:	0e030034 	mcreq	0, 0, r0, cr3, cr4, {1}
     d80:	0b3b0b3a 	bleq	ec3a70 <__bss_end__+0xeba028>
     d84:	13490b39 	movtne	r0, #39737	; 0x9b39
     d88:	0000061c 	andeq	r0, r0, ip, lsl r6
     d8c:	0b000f0c 	bleq	49c4 <__code_start__-0x363c>
     d90:	0013490b 	andseq	r4, r3, fp, lsl #18
     d94:	00260d00 	eoreq	r0, r6, r0, lsl #26
     d98:	00001349 	andeq	r1, r0, r9, asr #6
     d9c:	3f012e0e 	svccc	0x00012e0e
     da0:	3a0e0319 	bcc	381a0c <__bss_end__+0x377fc4>
     da4:	390b3b0b 	stmdbcc	fp, {r0, r1, r3, r8, r9, fp, ip, sp}
     da8:	1119270b 	tstne	r9, fp, lsl #14
     dac:	40061201 	andmi	r1, r6, r1, lsl #4
     db0:	19429718 	stmdbne	r2, {r3, r4, r8, r9, sl, ip, pc}^
     db4:	00001301 	andeq	r1, r0, r1, lsl #6
     db8:	0182890f 	orreq	r8, r2, pc, lsl #18
     dbc:	31011100 	mrscc	r1, (UNDEF: 17)
     dc0:	10000013 	andne	r0, r0, r3, lsl r0
     dc4:	193f012e 	ldmdbne	pc!, {r1, r2, r3, r5, r8}	; <UNPREDICTABLE>
     dc8:	0b3a0e03 	bleq	e845dc <__bss_end__+0xe7ab94>
     dcc:	0b390b3b 	bleq	e43ac0 <__bss_end__+0xe3a078>
     dd0:	13491927 	movtne	r1, #39207	; 0x9927
     dd4:	06120111 			; <UNDEFINED> instruction: 0x06120111
     dd8:	42971840 	addsmi	r1, r7, #64, 16	; 0x400000
     ddc:	00130119 	andseq	r0, r3, r9, lsl r1
     de0:	82891100 	addhi	r1, r9, #0
     de4:	01110101 	tsteq	r1, r1, lsl #2
     de8:	00001331 	andeq	r1, r0, r1, lsr r3
     dec:	01828a12 	orreq	r8, r2, r2, lsl sl
     df0:	91180200 	tstls	r8, r0, lsl #4
     df4:	00001842 	andeq	r1, r0, r2, asr #16
     df8:	03000513 	movweq	r0, #1299	; 0x513
     dfc:	3b0b3a08 	blcc	2cf624 <__bss_end__+0x2c5bdc>
     e00:	490b390b 	stmdbmi	fp, {r0, r1, r3, r8, fp, ip, sp}
     e04:	b7170213 			; <UNDEFINED> instruction: 0xb7170213
     e08:	00001742 	andeq	r1, r0, r2, asr #14
     e0c:	01828914 	orreq	r8, r2, r4, lsl r9
     e10:	31011101 	tstcc	r1, r1, lsl #2
     e14:	00130113 	andseq	r0, r3, r3, lsl r1
     e18:	00341500 	eorseq	r1, r4, r0, lsl #10
     e1c:	0b3a0803 	bleq	e82e30 <__bss_end__+0xe793e8>
     e20:	0b390b3b 	bleq	e43b14 <__bss_end__+0xe3a0cc>
     e24:	17021349 	strne	r1, [r2, -r9, asr #6]
     e28:	001742b7 			; <UNDEFINED> instruction: 0x001742b7
     e2c:	00341600 	eorseq	r1, r4, r0, lsl #12
     e30:	0b3a0e03 	bleq	e84644 <__bss_end__+0xe7abfc>
     e34:	0b390b3b 	bleq	e43b28 <__bss_end__+0xe3a0e0>
     e38:	051c1349 	ldreq	r1, [ip, #-841]	; 0xfffffcb7
     e3c:	2e170000 	cdpcs	0, 1, cr0, cr7, cr0, {0}
     e40:	3a0e0301 	bcc	381a4c <__bss_end__+0x378004>
     e44:	390b3b0b 	stmdbcc	fp, {r0, r1, r3, r8, r9, fp, ip, sp}
     e48:	1119270b 	tstne	r9, fp, lsl #14
     e4c:	40061201 	andmi	r1, r6, r1, lsl #4
     e50:	19429718 	stmdbne	r2, {r3, r4, r8, r9, sl, ip, pc}^
     e54:	00001301 	andeq	r1, r0, r1, lsl #6
     e58:	03000518 	movweq	r0, #1304	; 0x518
     e5c:	3b0b3a0e 	blcc	2cf69c <__bss_end__+0x2c5c54>
     e60:	490b390b 	stmdbmi	fp, {r0, r1, r3, r8, fp, ip, sp}
     e64:	b7170213 			; <UNDEFINED> instruction: 0xb7170213
     e68:	00001742 	andeq	r1, r0, r2, asr #14
     e6c:	00003519 	andeq	r3, r0, r9, lsl r5
     e70:	002e1a00 	eoreq	r1, lr, r0, lsl #20
     e74:	193c193f 	ldmdbne	ip!, {r0, r1, r2, r3, r4, r5, r8, fp, ip}
     e78:	0e030e6e 	cdpeq	14, 0, cr0, cr3, cr14, {3}
     e7c:	0b3b0b3a 	bleq	ec3b6c <__bss_end__+0xeba124>
     e80:	00000b39 	andeq	r0, r0, r9, lsr fp
     e84:	00490100 	subeq	r0, r9, r0, lsl #2
     e88:	187e1802 	ldmdane	lr!, {r1, fp, ip}^
     e8c:	05020000 	streq	r0, [r2, #-0]
     e90:	02133100 	andseq	r3, r3, #0
     e94:	1742b717 	smlaldne	fp, r2, r7, r7
     e98:	24030000 	strcs	r0, [r3], #-0
     e9c:	3e0b0b00 	vmlacc.f64	d0, d11, d0
     ea0:	000e030b 	andeq	r0, lr, fp, lsl #6
     ea4:	00340400 	eorseq	r0, r4, r0, lsl #8
     ea8:	00001331 	andeq	r1, r0, r1, lsr r3
     eac:	31003405 	tstcc	r0, r5, lsl #8
     eb0:	b7170213 			; <UNDEFINED> instruction: 0xb7170213
     eb4:	00001742 	andeq	r1, r0, r2, asr #14
     eb8:	03002806 	movweq	r2, #2054	; 0x806
     ebc:	000b1c0e 	andeq	r1, fp, lr, lsl #24
     ec0:	01480700 	cmpeq	r8, r0, lsl #14
     ec4:	0182017d 	orreq	r0, r2, sp, ror r1
     ec8:	00137f19 	andseq	r7, r3, r9, lsl pc
     ecc:	00050800 	andeq	r0, r5, r0, lsl #16
     ed0:	213a0803 	teqcs	sl, r3, lsl #16
     ed4:	390b3b01 	stmdbcc	fp, {r0, r8, r9, fp, ip, sp}
     ed8:	0213490b 	andseq	r4, r3, #180224	; 0x2c000
     edc:	1742b717 	smlaldne	fp, r2, r7, r7
     ee0:	1d090000 	stcne	0, cr0, [r9, #-0]
     ee4:	52133101 	andspl	r3, r3, #1073741824	; 0x40000000
     ee8:	0b42b801 	bleq	10aeef4 <__bss_end__+0x10a54ac>
     eec:	21581755 	cmpcs	r8, r5, asr r7
     ef0:	570b5901 	strpl	r5, [fp, -r1, lsl #18]
     ef4:	0a00000b 	beq	f28 <__code_start__-0x70d8>
     ef8:	1755010b 	ldrbne	r0, [r5, -fp, lsl #2]
     efc:	050b0000 	streq	r0, [fp, #-0]
     f00:	1c133100 	ldfnes	f3, [r3], {-0}
     f04:	0c00000b 	stceq	0, cr0, [r0], {11}
     f08:	08030005 	stmdaeq	r3, {r0, r2}
     f0c:	0b3b0b3a 	bleq	ec3bfc <__bss_end__+0xeba1b4>
     f10:	13490b39 	movtne	r0, #39737	; 0x9b39
     f14:	340d0000 	strcc	r0, [sp], #-0
     f18:	3a0e0300 	bcc	381b20 <__bss_end__+0x3780d8>
     f1c:	0b3b0121 	bleq	ec13a8 <__bss_end__+0xeb7960>
     f20:	49172139 	ldmdbmi	r7, {r0, r3, r4, r5, r8, sp}
     f24:	00061c13 	andeq	r1, r6, r3, lsl ip
     f28:	00050e00 	andeq	r0, r5, r0, lsl #28
     f2c:	00001349 	andeq	r1, r0, r9, asr #6
     f30:	3f012e0f 	svccc	0x00012e0f
     f34:	3a0e0319 	bcc	381ba0 <__bss_end__+0x378158>
     f38:	0b3b0121 	bleq	ec13c4 <__bss_end__+0xeb797c>
     f3c:	27062139 	smladxcs	r6, r9, r1, r2
     f40:	12011119 	andne	r1, r1, #1073741830	; 0x40000006
     f44:	7a184006 	bvc	610f64 <__bss_end__+0x60751c>
     f48:	00130119 	andseq	r0, r3, r9, lsl r1
     f4c:	01481000 	mrseq	r1, (UNDEF: 72)
     f50:	137f017d 	cmnne	pc, #1073741855	; 0x4000001f
     f54:	00001301 	andeq	r1, r0, r1, lsl #6
     f58:	3f012e11 	svccc	0x00012e11
     f5c:	3a0e0319 	bcc	381bc8 <__bss_end__+0x378180>
     f60:	0b3b0121 	bleq	ec13ec <__bss_end__+0xeb79a4>
     f64:	19270b39 	stmdbne	r7!, {r0, r3, r4, r5, r8, r9, fp}
     f68:	13010b20 	movwne	r0, #6944	; 0x1b20
     f6c:	34120000 	ldrcc	r0, [r2], #-0
     f70:	3a080300 	bcc	201b78 <__bss_end__+0x1f8130>
     f74:	0b3b0121 	bleq	ec1400 <__bss_end__+0xeb79b8>
     f78:	490e2139 	stmdbmi	lr, {r0, r3, r4, r5, r8, sp}
     f7c:	13000013 	movwne	r0, #19
     f80:	0e030016 	mcreq	0, 0, r0, cr3, cr6, {0}
     f84:	0b3b0b3a 	bleq	ec3c74 <__bss_end__+0xeba22c>
     f88:	13490b39 	movtne	r0, #39737	; 0x9b39
     f8c:	2e140000 	cdpcs	0, 1, cr0, cr4, cr0, {0}
     f90:	11133101 	tstne	r3, r1, lsl #2
     f94:	40061201 	andmi	r1, r6, r1, lsl #4
     f98:	01197a18 	tsteq	r9, r8, lsl sl
     f9c:	15000013 	strne	r0, [r0, #-19]	; 0xffffffed
     fa0:	0e250111 	mcreq	1, 1, r0, cr5, cr1, {0}
     fa4:	0e030b13 	vmoveq.32	d3[0], r0
     fa8:	01110e1b 	tsteq	r1, fp, lsl lr
     fac:	17100612 			; <UNDEFINED> instruction: 0x17100612
     fb0:	24160000 	ldrcs	r0, [r6], #-0
     fb4:	3e0b0b00 	vmlacc.f64	d0, d11, d0
     fb8:	0008030b 	andeq	r0, r8, fp, lsl #6
     fbc:	00261700 	eoreq	r1, r6, r0, lsl #14
     fc0:	00001349 	andeq	r1, r0, r9, asr #6
     fc4:	3e010418 	cfmvdlrcc	mvd1, r0
     fc8:	490b0b0b 	stmdbmi	fp, {r0, r1, r3, r8, r9, fp}
     fcc:	3b0b3a13 	blcc	2cf820 <__bss_end__+0x2c5dd8>
     fd0:	010b390b 	tsteq	fp, fp, lsl #18
     fd4:	19000013 	stmdbne	r0, {r0, r1, r4}
     fd8:	193f012e 	ldmdbne	pc!, {r1, r2, r3, r5, r8}	; <UNPREDICTABLE>
     fdc:	0b3a0e03 	bleq	e847f0 <__bss_end__+0xe7ada8>
     fe0:	0b390b3b 	bleq	e43cd4 <__bss_end__+0xe3a28c>
     fe4:	193c1927 	ldmdbne	ip!, {r0, r1, r2, r5, r8, fp, ip}
     fe8:	00001301 	andeq	r1, r0, r1, lsl #6
     fec:	3f012e1a 	svccc	0x00012e1a
     ff0:	3a0e0319 	bcc	381c5c <__bss_end__+0x378214>
     ff4:	390b3b0b 	stmdbcc	fp, {r0, r1, r3, r8, r9, fp, ip, sp}
     ff8:	4919270b 	ldmdbmi	r9, {r0, r1, r3, r8, r9, sl, sp}
     ffc:	01193c13 	tsteq	r9, r3, lsl ip
    1000:	1b000013 	blne	1054 <__code_start__-0x6fac>
    1004:	193f012e 	ldmdbne	pc!, {r1, r2, r3, r5, r8}	; <UNPREDICTABLE>
    1008:	0b3a0e03 	bleq	e8481c <__bss_end__+0xe7add4>
    100c:	0b390b3b 	bleq	e43d00 <__bss_end__+0xe3a2b8>
    1010:	13491927 	movtne	r1, #39207	; 0x9927
    1014:	06120111 			; <UNDEFINED> instruction: 0x06120111
    1018:	197a1840 	ldmdbne	sl!, {r6, fp, ip}^
    101c:	00001301 	andeq	r1, r0, r1, lsl #6
    1020:	0300341c 	movweq	r3, #1052	; 0x41c
    1024:	3b0b3a0e 	blcc	2cf864 <__bss_end__+0x2c5e1c>
    1028:	490b390b 	stmdbmi	fp, {r0, r1, r3, r8, fp, ip, sp}
    102c:	b7170213 			; <UNDEFINED> instruction: 0xb7170213
    1030:	00001742 	andeq	r1, r0, r2, asr #14
    1034:	0300341d 	movweq	r3, #1053	; 0x41d
    1038:	3b0b3a08 	blcc	2cf860 <__bss_end__+0x2c5e18>
    103c:	490b390b 	stmdbmi	fp, {r0, r1, r3, r8, fp, ip, sp}
    1040:	b7170213 			; <UNDEFINED> instruction: 0xb7170213
    1044:	00001742 	andeq	r1, r0, r2, asr #14
    1048:	7d01481e 	stcvc	8, cr4, [r1, #-120]	; 0xffffff88
    104c:	00137f01 	andseq	r7, r3, r1, lsl #30
    1050:	011d1f00 	tsteq	sp, r0, lsl #30
    1054:	01521331 	cmpeq	r2, r1, lsr r3
    1058:	550b42b8 	strpl	r4, [fp, #-696]	; 0xfffffd48
    105c:	590b5817 	stmdbpl	fp, {r0, r1, r2, r4, fp, ip, lr}
    1060:	010b570b 	tsteq	fp, fp, lsl #14
    1064:	20000013 	andcs	r0, r0, r3, lsl r0
    1068:	1331011d 	teqne	r1, #1073741831	; 0x40000007
    106c:	42b80152 	adcsmi	r0, r8, #-2147483628	; 0x80000014
    1070:	1201110b 	andne	r1, r1, #-1073741822	; 0xc0000002
    1074:	590b5806 	stmdbpl	fp, {r1, r2, fp, ip, lr}
    1078:	000b570b 	andeq	r5, fp, fp, lsl #14
    107c:	00052100 	andeq	r2, r5, r0, lsl #2
    1080:	0b3a0e03 	bleq	e84894 <__bss_end__+0xe7ae4c>
    1084:	0b390b3b 	bleq	e43d78 <__bss_end__+0xe3a330>
    1088:	00001349 	andeq	r1, r0, r9, asr #6
    108c:	03012e22 	movweq	r2, #7714	; 0x1e22
    1090:	3b0b3a0e 	blcc	2cf8d0 <__bss_end__+0x2c5e88>
    1094:	270b390b 	strcs	r3, [fp, -fp, lsl #18]
    1098:	20134919 	andscs	r4, r3, r9, lsl r9
    109c:	0013010b 	andseq	r0, r3, fp, lsl #2
    10a0:	012e2300 			; <UNDEFINED> instruction: 0x012e2300
    10a4:	01111331 	tsteq	r1, r1, lsr r3
    10a8:	18400612 	stmdane	r0, {r1, r4, r9, sl}^
    10ac:	0000197a 	andeq	r1, r0, sl, ror r9
    10b0:	01110100 	tsteq	r1, r0, lsl #2
    10b4:	0b130e25 	bleq	4c4950 <__bss_end__+0x4baf08>
    10b8:	0e1b0e03 	cdpeq	14, 1, cr0, cr11, cr3, {0}
    10bc:	06120111 			; <UNDEFINED> instruction: 0x06120111
    10c0:	00001710 	andeq	r1, r0, r0, lsl r7
    10c4:	0b002402 	bleq	a0d4 <__bss_end__+0x68c>
    10c8:	030b3e0b 	movweq	r3, #48651	; 0xbe0b
    10cc:	03000008 	movweq	r0, #8
    10d0:	0b0b0024 	bleq	2c1168 <__bss_end__+0x2b7720>
    10d4:	0e030b3e 	vmoveq.16	d3[0], r0
    10d8:	15040000 	strne	r0, [r4, #-0]
    10dc:	49192701 	ldmdbmi	r9, {r0, r8, r9, sl, sp}
    10e0:	00130113 	andseq	r0, r3, r3, lsl r1
    10e4:	00050500 	andeq	r0, r5, r0, lsl #10
    10e8:	00001349 	andeq	r1, r0, r9, asr #6
    10ec:	03003406 	movweq	r3, #1030	; 0x406
    10f0:	3b0b3a0e 	blcc	2cf930 <__bss_end__+0x2c5ee8>
    10f4:	490b390b 	stmdbmi	fp, {r0, r1, r3, r8, fp, ip, sp}
    10f8:	3c193f13 	ldccc	15, cr3, [r9], {19}
    10fc:	07000019 	smladeq	r0, r9, r0, r0
    1100:	0b0b000f 	bleq	2c1144 <__bss_end__+0x2b76fc>
    1104:	00001349 	andeq	r1, r0, r9, asr #6
    1108:	49002608 	stmdbmi	r0, {r3, r9, sl, sp}
    110c:	09000013 	stmdbeq	r0, {r0, r1, r4}
    1110:	193f012e 	ldmdbne	pc!, {r1, r2, r3, r5, r8}	; <UNPREDICTABLE>
    1114:	0b3a0e03 	bleq	e84928 <__bss_end__+0xe7aee0>
    1118:	0b390b3b 	bleq	e43e0c <__bss_end__+0xe3a3c4>
    111c:	13491927 	movtne	r1, #39207	; 0x9927
    1120:	06120111 			; <UNDEFINED> instruction: 0x06120111
    1124:	42971840 	addsmi	r1, r7, #64, 16	; 0x400000
    1128:	00130119 	andseq	r0, r3, r9, lsl r1
    112c:	00050a00 	andeq	r0, r5, r0, lsl #20
    1130:	0b3a0e03 	bleq	e84944 <__bss_end__+0xe7aefc>
    1134:	0b390b3b 	bleq	e43e28 <__bss_end__+0xe3a3e0>
    1138:	18021349 	stmdane	r2, {r0, r3, r6, r8, r9, ip}
    113c:	050b0000 	streq	r0, [fp, #-0]
    1140:	3a080300 	bcc	201d48 <__bss_end__+0x1f8300>
    1144:	390b3b0b 	stmdbcc	fp, {r0, r1, r3, r8, r9, fp, ip, sp}
    1148:	0213490b 	andseq	r4, r3, #180224	; 0x2c000
    114c:	1742b717 	smlaldne	fp, r2, r7, r7
    1150:	340c0000 	strcc	r0, [ip], #-0
    1154:	3a080300 	bcc	201d5c <__bss_end__+0x1f8314>
    1158:	390b3b0b 	stmdbcc	fp, {r0, r1, r3, r8, r9, fp, ip, sp}
    115c:	0213490b 	andseq	r4, r3, #180224	; 0x2c000
    1160:	1742b717 	smlaldne	fp, r2, r7, r7
    1164:	01000000 	mrseq	r0, (UNDEF: 0)
    1168:	0e250111 	mcreq	1, 1, r0, cr5, cr1, {0}
    116c:	0e030b13 	vmoveq.32	d3[0], r0
    1170:	01110e1b 	tsteq	r1, fp, lsl lr
    1174:	17100612 			; <UNDEFINED> instruction: 0x17100612
    1178:	24020000 	strcs	r0, [r2], #-0
    117c:	3e0b0b00 	vmlacc.f64	d0, d11, d0
    1180:	0008030b 	andeq	r0, r8, fp, lsl #6
    1184:	00240300 	eoreq	r0, r4, r0, lsl #6
    1188:	0b3e0b0b 	bleq	f83dbc <__bss_end__+0xf7a374>
    118c:	00000e03 	andeq	r0, r0, r3, lsl #28
    1190:	27011504 	strcs	r1, [r1, -r4, lsl #10]
    1194:	01134919 	tsteq	r3, r9, lsl r9
    1198:	05000013 	streq	r0, [r0, #-19]	; 0xffffffed
    119c:	13490005 	movtne	r0, #36869	; 0x9005
    11a0:	34060000 	strcc	r0, [r6], #-0
    11a4:	3a0e0300 	bcc	381dac <__bss_end__+0x378364>
    11a8:	390b3b0b 	stmdbcc	fp, {r0, r1, r3, r8, r9, fp, ip, sp}
    11ac:	3f13490b 	svccc	0x0013490b
    11b0:	00193c19 	andseq	r3, r9, r9, lsl ip
    11b4:	000f0700 	andeq	r0, pc, r0, lsl #14
    11b8:	13490b0b 	movtne	r0, #39691	; 0x9b0b
    11bc:	26080000 	strcs	r0, [r8], -r0
    11c0:	00134900 	andseq	r4, r3, r0, lsl #18
    11c4:	012e0900 			; <UNDEFINED> instruction: 0x012e0900
    11c8:	0e03193f 			; <UNDEFINED> instruction: 0x0e03193f
    11cc:	0b3b0b3a 	bleq	ec3ebc <__bss_end__+0xeba474>
    11d0:	19270b39 	stmdbne	r7!, {r0, r3, r4, r5, r8, r9, fp}
    11d4:	01111349 	tsteq	r1, r9, asr #6
    11d8:	18400612 	stmdane	r0, {r1, r4, r9, sl}^
    11dc:	00194297 	mulseq	r9, r7, r2
    11e0:	00050a00 	andeq	r0, r5, r0, lsl #20
    11e4:	0b3a0803 	bleq	e831f8 <__bss_end__+0xe797b0>
    11e8:	0b390b3b 	bleq	e43edc <__bss_end__+0xe3a494>
    11ec:	17021349 	strne	r1, [r2, -r9, asr #6]
    11f0:	001742b7 			; <UNDEFINED> instruction: 0x001742b7
    11f4:	11010000 	mrsne	r0, (UNDEF: 1)
    11f8:	130e2501 	movwne	r2, #58625	; 0xe501
    11fc:	1b0e030b 	blne	381e30 <__bss_end__+0x3783e8>
    1200:	1201110e 	andne	r1, r1, #-2147483645	; 0x80000003
    1204:	00171006 	andseq	r1, r7, r6
    1208:	00240200 	eoreq	r0, r4, r0, lsl #4
    120c:	0b3e0b0b 	bleq	f83e40 <__bss_end__+0xf7a3f8>
    1210:	00000803 	andeq	r0, r0, r3, lsl #16
    1214:	0b002403 	bleq	a228 <__bss_end__+0x7e0>
    1218:	030b3e0b 	movweq	r3, #48651	; 0xbe0b
    121c:	0400000e 	streq	r0, [r0], #-14
    1220:	19270115 	stmdbne	r7!, {r0, r2, r4, r8}
    1224:	13011349 	movwne	r1, #4937	; 0x1349
    1228:	05050000 	streq	r0, [r5, #-0]
    122c:	00134900 	andseq	r4, r3, r0, lsl #18
    1230:	00340600 	eorseq	r0, r4, r0, lsl #12
    1234:	0b3a0e03 	bleq	e84a48 <__bss_end__+0xe7b000>
    1238:	0b390b3b 	bleq	e43f2c <__bss_end__+0xe3a4e4>
    123c:	193f1349 	ldmdbne	pc!, {r0, r3, r6, r8, r9, ip}	; <UNPREDICTABLE>
    1240:	0000193c 	andeq	r1, r0, ip, lsr r9
    1244:	0b000f07 	bleq	4e68 <__code_start__-0x3198>
    1248:	0013490b 	andseq	r4, r3, fp, lsl #18
    124c:	00260800 	eoreq	r0, r6, r0, lsl #16
    1250:	00001349 	andeq	r1, r0, r9, asr #6
    1254:	3f012e09 	svccc	0x00012e09
    1258:	3a0e0319 	bcc	381ec4 <__bss_end__+0x37847c>
    125c:	390b3b0b 	stmdbcc	fp, {r0, r1, r3, r8, r9, fp, ip, sp}
    1260:	4919270b 	ldmdbmi	r9, {r0, r1, r3, r8, r9, sl, sp}
    1264:	12011113 	andne	r1, r1, #-1073741820	; 0xc0000004
    1268:	97184006 	ldrls	r4, [r8, -r6]
    126c:	13011942 	movwne	r1, #6466	; 0x1942
    1270:	050a0000 	streq	r0, [sl, #-0]
    1274:	3a080300 	bcc	201e7c <__bss_end__+0x1f8434>
    1278:	390b3b0b 	stmdbcc	fp, {r0, r1, r3, r8, r9, fp, ip, sp}
    127c:	0213490b 	andseq	r4, r3, #180224	; 0x2c000
    1280:	0b000018 	bleq	12e8 <__code_start__-0x6d18>
    1284:	08030005 	stmdaeq	r3, {r0, r2}
    1288:	0b3b0b3a 	bleq	ec3f78 <__bss_end__+0xeba530>
    128c:	13490b39 	movtne	r0, #39737	; 0x9b39
    1290:	42b71702 	adcsmi	r1, r7, #524288	; 0x80000
    1294:	0c000017 	stceq	0, cr0, [r0], {23}
    1298:	08030034 	stmdaeq	r3, {r2, r4, r5}
    129c:	0b3b0b3a 	bleq	ec3f8c <__bss_end__+0xeba544>
    12a0:	13490b39 	movtne	r0, #39737	; 0x9b39
    12a4:	42b71702 	adcsmi	r1, r7, #524288	; 0x80000
    12a8:	00000017 	andeq	r0, r0, r7, lsl r0
    12ac:	25011101 	strcs	r1, [r1, #-257]	; 0xfffffeff
    12b0:	030b130e 	movweq	r1, #45838	; 0xb30e
    12b4:	110e1b0e 	tstne	lr, lr, lsl #22
    12b8:	10061201 	andne	r1, r6, r1, lsl #4
    12bc:	02000017 	andeq	r0, r0, #23, 0
    12c0:	0b0b0024 	bleq	2c1358 <__bss_end__+0x2b7910>
    12c4:	08030b3e 	stmdaeq	r3, {r1, r2, r3, r4, r5, r8, r9, fp}
    12c8:	16030000 	strne	r0, [r3], -r0
    12cc:	3a0e0300 	bcc	381ed4 <__bss_end__+0x37848c>
    12d0:	390b3b0b 	stmdbcc	fp, {r0, r1, r3, r8, r9, fp, ip, sp}
    12d4:	0013490b 	andseq	r4, r3, fp, lsl #18
    12d8:	00240400 	eoreq	r0, r4, r0, lsl #8
    12dc:	0b3e0b0b 	bleq	f83f10 <__bss_end__+0xf7a4c8>
    12e0:	00000e03 	andeq	r0, r0, r3, lsl #28
    12e4:	49002605 	stmdbmi	r0, {r0, r2, r9, sl, sp}
    12e8:	06000013 			; <UNDEFINED> instruction: 0x06000013
    12ec:	19270115 	stmdbne	r7!, {r0, r2, r4, r8}
    12f0:	13011349 	movwne	r1, #4937	; 0x1349
    12f4:	05070000 	streq	r0, [r7, #-0]
    12f8:	00134900 	andseq	r4, r3, r0, lsl #18
    12fc:	00340800 	eorseq	r0, r4, r0, lsl #16
    1300:	0b3a0e03 	bleq	e84b14 <__bss_end__+0xe7b0cc>
    1304:	0b390b3b 	bleq	e43ff8 <__bss_end__+0xe3a5b0>
    1308:	193f1349 	ldmdbne	pc!, {r0, r3, r6, r8, r9, ip}	; <UNPREDICTABLE>
    130c:	0000193c 	andeq	r1, r0, ip, lsr r9
    1310:	0b000f09 	bleq	4f3c <__code_start__-0x30c4>
    1314:	0013490b 	andseq	r4, r3, fp, lsl #18
    1318:	012e0a00 			; <UNDEFINED> instruction: 0x012e0a00
    131c:	0e03193f 			; <UNDEFINED> instruction: 0x0e03193f
    1320:	0b3b0b3a 	bleq	ec4010 <__bss_end__+0xeba5c8>
    1324:	19270b39 	stmdbne	r7!, {r0, r3, r4, r5, r8, r9, fp}
    1328:	01111349 	tsteq	r1, r9, asr #6
    132c:	18400612 	stmdane	r0, {r1, r4, r9, sl}^
    1330:	01194297 			; <UNDEFINED> instruction: 0x01194297
    1334:	0b000013 	bleq	1388 <__code_start__-0x6c78>
    1338:	08030005 	stmdaeq	r3, {r0, r2}
    133c:	0b3b0b3a 	bleq	ec402c <__bss_end__+0xeba5e4>
    1340:	13490b39 	movtne	r0, #39737	; 0x9b39
    1344:	42b71702 	adcsmi	r1, r7, #524288	; 0x80000
    1348:	0c000017 	stceq	0, cr0, [r0], {23}
    134c:	08030034 	stmdaeq	r3, {r2, r4, r5}
    1350:	0b3b0b3a 	bleq	ec4040 <__bss_end__+0xeba5f8>
    1354:	13490b39 	movtne	r0, #39737	; 0x9b39
    1358:	42b71702 	adcsmi	r1, r7, #524288	; 0x80000
    135c:	00000017 	andeq	r0, r0, r7, lsl r0
    1360:	25011101 	strcs	r1, [r1, #-257]	; 0xfffffeff
    1364:	030b130e 	movweq	r1, #45838	; 0xb30e
    1368:	110e1b0e 	tstne	lr, lr, lsl #22
    136c:	10061201 	andne	r1, r6, r1, lsl #4
    1370:	02000017 	andeq	r0, r0, #23, 0
    1374:	0b0b0024 	bleq	2c140c <__bss_end__+0x2b79c4>
    1378:	08030b3e 	stmdaeq	r3, {r1, r2, r3, r4, r5, r8, r9, fp}
    137c:	24030000 	strcs	r0, [r3], #-0
    1380:	3e0b0b00 	vmlacc.f64	d0, d11, d0
    1384:	000e030b 	andeq	r0, lr, fp, lsl #6
    1388:	01150400 	tsteq	r5, r0, lsl #8
    138c:	13491927 	movtne	r1, #39207	; 0x9927
    1390:	00001301 	andeq	r1, r0, r1, lsl #6
    1394:	49000505 	stmdbmi	r0, {r0, r2, r8, sl}
    1398:	06000013 			; <UNDEFINED> instruction: 0x06000013
    139c:	0e030034 	mcreq	0, 0, r0, cr3, cr4, {1}
    13a0:	0b3b0b3a 	bleq	ec4090 <__bss_end__+0xeba648>
    13a4:	13490b39 	movtne	r0, #39737	; 0x9b39
    13a8:	193c193f 	ldmdbne	ip!, {r0, r1, r2, r3, r4, r5, r8, fp, ip}
    13ac:	0f070000 	svceq	0x00070000
    13b0:	490b0b00 	stmdbmi	fp, {r8, r9, fp}
    13b4:	08000013 	stmdaeq	r0, {r0, r1, r4}
    13b8:	13490026 	movtne	r0, #36902	; 0x9026
    13bc:	2e090000 	cdpcs	0, 0, cr0, cr9, cr0, {0}
    13c0:	03193f00 	tsteq	r9, #0, 30
    13c4:	3b0b3a0e 	blcc	2cfc04 <__bss_end__+0x2c61bc>
    13c8:	270b390b 	strcs	r3, [fp, -fp, lsl #18]
    13cc:	12011119 	andne	r1, r1, #1073741830	; 0x40000006
    13d0:	97184006 	ldrls	r4, [r8, -r6]
    13d4:	00001942 	andeq	r1, r0, r2, asr #18
	...

Disassembly of section .debug_loc:

00000000 <.debug_loc>:
       0:	00010001 	andeq	r0, r1, r1
       4:	00000000 	andeq	r0, r0, r0
       8:	00000014 	andeq	r0, r0, r4, lsl r0
       c:	0000002b 	andeq	r0, r0, fp, lsr #32
      10:	40530001 	subsmi	r0, r3, r1
      14:	5f000000 	svcpl	0x00000000
      18:	01000000 	mrseq	r0, (UNDEF: 0)
      1c:	00605300 	rsbeq	r5, r0, r0, lsl #6
      20:	006f0000 	rsbeq	r0, pc, r0
      24:	00010000 	andeq	r0, r1, r0
      28:	00007053 	andeq	r7, r0, r3, asr r0
      2c:	00007300 	andeq	r7, r0, r0, lsl #6
      30:	53000100 	movwpl	r0, #256	; 0x100
	...
      3c:	00010001 	andeq	r0, r1, r1
      40:	00000018 	andeq	r0, r0, r8, lsl r0
      44:	0000001c 	andeq	r0, r0, ip, lsl r0
      48:	44540001 	ldrbmi	r0, [r4], #-1
      4c:	48000000 	stmdami	r0, {}	; <UNPREDICTABLE>
      50:	01000000 	mrseq	r0, (UNDEF: 0)
      54:	00005100 	andeq	r5, r0, r0, lsl #2
	...
      64:	001c0000 	andseq	r0, ip, r0
      68:	00480000 	subeq	r0, r8, r0
      6c:	00010000 	andeq	r0, r1, r0
      70:	00004854 	andeq	r4, r0, r4, asr r8
      74:	00005f00 	andeq	r5, r0, r0, lsl #30
      78:	51000100 	mrspl	r0, (UNDEF: 16)
      7c:	00000060 	andeq	r0, r0, r0, rrx
      80:	0000006f 	andeq	r0, r0, pc, rrx
      84:	70510001 	subsvc	r0, r1, r1
      88:	b0000000 	andlt	r0, r0, r0
      8c:	01000000 	mrseq	r0, (UNDEF: 0)
      90:	00005400 	andeq	r5, r0, r0, lsl #8
	...
      9c:	00140000 	andseq	r0, r4, r0
      a0:	002b0000 	eoreq	r0, fp, r0
      a4:	00010000 	andeq	r0, r1, r0
      a8:	00007053 	andeq	r7, r0, r3, asr r0
      ac:	00007300 	andeq	r7, r0, r0, lsl #6
      b0:	53000100 	movwpl	r0, #256	; 0x100
	...
      bc:	00180000 	andseq	r0, r8, r0
      c0:	001c0000 	andseq	r0, ip, r0
      c4:	00010000 	andeq	r0, r1, r0
      c8:	00000054 	andeq	r0, r0, r4, asr r0
	...
      d4:	00004000 	andeq	r4, r0, r0
      d8:	00005f00 	andeq	r5, r0, r0, lsl #30
      dc:	53000100 	movwpl	r0, #256	; 0x100
      e0:	00000060 	andeq	r0, r0, r0, rrx
      e4:	0000006f 	andeq	r0, r0, pc, rrx
      e8:	00530001 	subseq	r0, r3, r1
	...
      f4:	00004400 	andeq	r4, r0, r0, lsl #8
      f8:	00004800 	andeq	r4, r0, r0, lsl #16
      fc:	51000100 	mrspl	r0, (UNDEF: 16)
	...
     108:	01010104 	tsteq	r1, r4, lsl #2
     10c:	00010101 	andeq	r0, r1, r1, lsl #2
     110:	000000b0 	strheq	r0, [r0], -r0	; <UNPREDICTABLE>
     114:	000000c8 	andeq	r0, r0, r8, asr #1
     118:	9f300002 	svcls	0x00300002
     11c:	000000c8 	andeq	r0, r0, r8, asr #1
     120:	000000d4 	ldrdeq	r0, [r0], -r4
     124:	9f310002 	svcls	0x00310002
     128:	000000d4 	ldrdeq	r0, [r0], -r4
     12c:	000000e0 	andeq	r0, r0, r0, ror #1
     130:	9f320002 	svcls	0x00320002
     134:	000000e0 	andeq	r0, r0, r0, ror #1
     138:	0000012c 	andeq	r0, r0, ip, lsr #2
     13c:	9f330002 	svcls	0x00330002
	...
     148:	01010102 	tsteq	r1, r2, lsl #2
     14c:	00010101 	andeq	r0, r1, r1, lsl #2
     150:	000000e4 	andeq	r0, r0, r4, ror #1
     154:	000000f4 	strdeq	r0, [r0], -r4
     158:	9f300002 	svcls	0x00300002
     15c:	000000f4 	strdeq	r0, [r0], -r4
     160:	00000104 	andeq	r0, r0, r4, lsl #2
     164:	9f310002 	svcls	0x00310002
     168:	00000104 	andeq	r0, r0, r4, lsl #2
     16c:	00000114 	andeq	r0, r0, r4, lsl r1
     170:	9f320002 	svcls	0x00320002
     174:	00000114 	andeq	r0, r0, r4, lsl r1
     178:	0000012c 	andeq	r0, r0, ip, lsr #2
     17c:	9f330002 	svcls	0x00330002
	...
     18c:	002c0000 	eoreq	r0, ip, r0
     190:	00340000 	eorseq	r0, r4, r0
     194:	00010000 	andeq	r0, r1, r0
     198:	00003450 	andeq	r3, r0, r0, asr r4
     19c:	00004800 	andeq	r4, r0, r0, lsl #16
     1a0:	54000100 	strpl	r0, [r0], #-256	; 0xffffff00
     1a4:	00000048 	andeq	r0, r0, r8, asr #32
     1a8:	00000058 	andeq	r0, r0, r8, asr r0
     1ac:	00500001 	subseq	r0, r0, r1
	...
     1bc:	0b000000 	bleq	1c4 <__code_start__-0x7e3c>
     1c0:	01000000 	mrseq	r0, (UNDEF: 0)
     1c4:	000b5000 	andeq	r5, fp, r0
     1c8:	00140000 	andseq	r0, r4, r0
     1cc:	00010000 	andeq	r0, r1, r0
     1d0:	00000054 	andeq	r0, r0, r4, asr r0
	...
     1dc:	00000101 	andeq	r0, r0, r1, lsl #2
     1e0:	00000000 	andeq	r0, r0, r0
     1e4:	00000c00 	andeq	r0, r0, r0, lsl #24
     1e8:	50000100 	andpl	r0, r0, r0, lsl #2
     1ec:	0000000c 	andeq	r0, r0, ip
     1f0:	00000020 	andeq	r0, r0, r0, lsr #32
     1f4:	20540001 	subscs	r0, r4, r1
     1f8:	24000000 	strcs	r0, [r0], #-0
     1fc:	03000000 	movweq	r0, #0
     200:	9f017400 	svcls	0x00017400
     204:	00000024 	andeq	r0, r0, r4, lsr #32
     208:	00000038 	andeq	r0, r0, r8, lsr r0
     20c:	00540001 	subseq	r0, r4, r1
	...
     220:	00038800 	andeq	r8, r3, r0, lsl #16
     224:	00039400 	andeq	r9, r3, r0, lsl #8
     228:	50000100 	andpl	r0, r0, r0, lsl #2
     22c:	00000394 	muleq	r0, r4, r3
     230:	000003d0 	ldrdeq	r0, [r0], -r0	; <UNPREDICTABLE>
     234:	d05b0001 	subsle	r0, fp, r1
     238:	20000003 	andcs	r0, r0, r3
     23c:	04000009 	streq	r0, [r0], #-9
     240:	5001f300 	andpl	pc, r1, r0, lsl #6
     244:	0009209f 	muleq	r9, pc, r0	; <UNPREDICTABLE>
     248:	00092800 	andeq	r2, r9, r0, lsl #16
     24c:	5b000100 	blpl	654 <__code_start__-0x79ac>
     250:	00000928 	andeq	r0, r0, r8, lsr #18
     254:	000009b4 			; <UNDEFINED> instruction: 0x000009b4
     258:	01f30004 	mvnseq	r0, r4
     25c:	00009f50 	andeq	r9, r0, r0, asr pc
	...
     26c:	03880000 	orreq	r0, r8, #0, 0
     270:	03d00000 	bicseq	r0, r0, #0, 0
     274:	00010000 	andeq	r0, r1, r0
     278:	0003d051 	andeq	sp, r3, r1, asr r0
     27c:	00092000 	andeq	r2, r9, r0
     280:	f3000400 	vshl.u8	d0, d0, d0
     284:	209f5101 	addscs	r5, pc, r1, lsl #2
     288:	28000009 	stmdacs	r0, {r0, r3}
     28c:	01000009 	tsteq	r0, r9
     290:	09285100 	stmdbeq	r8!, {r8, ip, lr}
     294:	09b40000 	ldmibeq	r4!, {}	; <UNPREDICTABLE>
     298:	00040000 	andeq	r0, r4, r0
     29c:	9f5101f3 	svcls	0x005101f3
	...
     2ac:	01000000 	mrseq	r0, (UNDEF: 0)
     2b0:	00010000 	andeq	r0, r1, r0
	...
     2c0:	00000388 	andeq	r0, r0, r8, lsl #7
     2c4:	000003d0 	ldrdeq	r0, [r0], -r0	; <UNPREDICTABLE>
     2c8:	d0520001 	subsle	r0, r2, r1
     2cc:	00000003 	andeq	r0, r0, r3
     2d0:	01000004 	tsteq	r0, r4
     2d4:	04145600 	ldreq	r5, [r4], #-1536	; 0xfffffa00
     2d8:	04240000 	strteq	r0, [r4], #-0
     2dc:	00010000 	andeq	r0, r1, r0
     2e0:	00042456 	andeq	r2, r4, r6, asr r4
     2e4:	00042800 	andeq	r2, r4, r0, lsl #16
     2e8:	76000300 	strvc	r0, [r0], -r0, lsl #6
     2ec:	04a89f7f 	strteq	r9, [r8], #3967	; 0xf7f
     2f0:	04ac0000 	strteq	r0, [ip], #0
     2f4:	00010000 	andeq	r0, r1, r0
     2f8:	0004e056 	andeq	lr, r4, r6, asr r0
     2fc:	00050400 	andeq	r0, r5, r0, lsl #8
     300:	56000100 	strpl	r0, [r0], -r0, lsl #2
     304:	0000057c 	andeq	r0, r0, ip, ror r5
     308:	00000588 	andeq	r0, r0, r8, lsl #11
     30c:	88530001 	ldmdahi	r3, {r0}^
     310:	d0000005 	andle	r0, r0, r5
     314:	03000005 	movweq	r0, #5
     318:	7dcc9100 	stfvcp	f1, [ip]
     31c:	00000800 	andeq	r0, r0, r0, lsl #16
     320:	0000080f 	andeq	r0, r0, pc, lsl #16
     324:	0f530001 	svceq	0x00530001
     328:	88000008 	stmdahi	r0, {r3}
     32c:	03000008 	movweq	r0, #8
     330:	7dcc9100 	stfvcp	f1, [ip]
     334:	00000920 	andeq	r0, r0, r0, lsr #18
     338:	00000928 	andeq	r0, r0, r8, lsr #18
     33c:	48520001 	ldmdami	r2, {r0}^
     340:	64000009 	strvs	r0, [r0], #-9
     344:	03000009 	movweq	r0, #9
     348:	7dcc9100 	stfvcp	f1, [ip]
	...
     35c:	01000000 	mrseq	r0, (UNDEF: 0)
     360:	01000001 	tsteq	r0, r1
     364:	00000001 	andeq	r0, r0, r1
     368:	00020200 	andeq	r0, r2, r0, lsl #4
     36c:	00020200 	andeq	r0, r2, r0, lsl #4
     370:	00010100 	andeq	r0, r1, r0, lsl #2
     374:	00020200 	andeq	r0, r2, r0, lsl #4
     378:	00010100 	andeq	r0, r1, r0, lsl #2
	...
     384:	00000388 	andeq	r0, r0, r8, lsl #7
     388:	000003ac 	andeq	r0, r0, ip, lsr #7
     38c:	ac530001 	mrrcge	0, 0, r0, r3, cr1
     390:	c0000003 	andgt	r0, r0, r3
     394:	03000003 	movweq	r0, #3
     398:	04935300 	ldreq	r5, [r3], #768	; 0x300
     39c:	000003d0 	ldrdeq	r0, [r0], -r0	; <UNPREDICTABLE>
     3a0:	000003e8 	andeq	r0, r0, r8, ror #7
     3a4:	93580003 	cmpls	r8, #3, 0
     3a8:	0003e804 	andeq	lr, r3, r4, lsl #16
     3ac:	0004ac00 	andeq	sl, r4, r0, lsl #24
     3b0:	58000300 	stmdapl	r0, {r8, r9}
     3b4:	04ac0493 	strteq	r0, [ip], #1171	; 0x493
     3b8:	04b00000 	ldrteq	r0, [r0], #0
     3bc:	00010000 	andeq	r0, r1, r0
     3c0:	0004c053 	andeq	ip, r4, r3, asr r0
     3c4:	0004c000 	andeq	ip, r4, r0
     3c8:	58000300 	stmdapl	r0, {r8, r9}
     3cc:	04c00493 	strbeq	r0, [r0], #1171	; 0x493
     3d0:	04cc0000 	strbeq	r0, [ip], #0
     3d4:	00050000 	andeq	r0, r5, r0
     3d8:	939f0478 	orrsls	r0, pc, #120, 8	; 0x78000000
     3dc:	0004cc04 	andeq	ip, r4, r4, lsl #24
     3e0:	0004e000 	andeq	lr, r4, r0
     3e4:	58000300 	stmdapl	r0, {r8, r9}
     3e8:	04e00493 	strbteq	r0, [r0], #1171	; 0x493
     3ec:	05380000 	ldreq	r0, [r8, #-0]!
     3f0:	00030000 	andeq	r0, r3, r0
     3f4:	38049358 	stmdacc	r4, {r3, r4, r6, r8, r9, ip, pc}
     3f8:	3c000005 	stccc	0, cr0, [r0], {5}
     3fc:	05000005 	streq	r0, [r0, #-5]
     400:	9f797800 	svcls	0x00797800
     404:	05d00493 	ldrbeq	r0, [r0, #1171]	; 0x493
     408:	05d00000 	ldrbeq	r0, [r0]
     40c:	00030000 	andeq	r0, r3, r0
     410:	d0049358 	andle	r9, r4, r8, asr r3
     414:	d4000005 	strle	r0, [r0], #-5
     418:	05000005 	streq	r0, [r0, #-5]
     41c:	9f047800 	svcls	0x00047800
     420:	05f40493 	ldrbeq	r0, [r4, #1171]!	; 0x493
     424:	05f40000 	ldrbeq	r0, [r4, #0]!
     428:	00030000 	andeq	r0, r3, r0
     42c:	f4049358 	vst2.16	{d9-d12}, [r4 :64], r8
     430:	fc000005 	stc2	0, cr0, [r0], {5}
     434:	05000005 	streq	r0, [r0, #-5]
     438:	9f047800 	svcls	0x00047800
     43c:	05fc0493 	ldrbeq	r0, [ip, #1171]!	; 0x493
     440:	05fc0000 	ldrbeq	r0, [ip, #0]!
     444:	00030000 	andeq	r0, r3, r0
     448:	fc049358 	stc2	3, cr9, [r4], {88}	; 0x58
     44c:	00000005 	andeq	r0, r0, r5
     450:	05000006 	streq	r0, [r0, #-6]
     454:	9f047800 	svcls	0x00047800
     458:	06000493 			; <UNDEFINED> instruction: 0x06000493
     45c:	07000000 	streq	r0, [r0, -r0]
     460:	00030000 	andeq	r0, r3, r0
     464:	00049358 	andeq	r9, r4, r8, asr r3
     468:	0c000007 	stceq	0, cr0, [r0], {7}
     46c:	05000007 	streq	r0, [r0, #-7]
     470:	9f047800 	svcls	0x00047800
     474:	070c0493 			; <UNDEFINED> instruction: 0x070c0493
     478:	07f80000 	ldrbeq	r0, [r8, r0]!
     47c:	00030000 	andeq	r0, r3, r0
     480:	f8049358 			; <UNDEFINED> instruction: 0xf8049358
     484:	fc000007 	stc2	0, cr0, [r0], {7}
     488:	05000007 	streq	r0, [r0, #-7]
     48c:	9f047800 	svcls	0x00047800
     490:	07fc0493 			; <UNDEFINED> instruction: 0x07fc0493
     494:	08000000 	stmdaeq	r0, {}	; <UNPREDICTABLE>
     498:	00030000 	andeq	r0, r3, r0
     49c:	88049358 	stmdahi	r4, {r3, r4, r6, r8, r9, ip, pc}
     4a0:	20000008 	andcs	r0, r0, r8
     4a4:	03000009 	movweq	r0, #9
     4a8:	04935800 	ldreq	r5, [r3], #2048	; 0x800
     4ac:	00000920 	andeq	r0, r0, r0, lsr #18
     4b0:	00000928 	andeq	r0, r0, r8, lsr #18
     4b4:	64530001 	ldrbvs	r0, [r3], #-1
     4b8:	b4000009 	strlt	r0, [r0], #-9
     4bc:	03000009 	movweq	r0, #9
     4c0:	04935800 	ldreq	r5, [r3], #2048	; 0x800
	...
     4cc:	00000001 	andeq	r0, r0, r1
     4d0:	00000000 	andeq	r0, r0, r0
     4d4:	00020200 	andeq	r0, r2, r0, lsl #4
     4d8:	01010000 	mrseq	r0, (UNDEF: 1)
     4dc:	00000001 	andeq	r0, r0, r1
     4e0:	03ac0000 			; <UNDEFINED> instruction: 0x03ac0000
     4e4:	03d00000 	bicseq	r0, r0, #0, 0
     4e8:	00010000 	andeq	r0, r1, r0
     4ec:	0003d05b 	andeq	sp, r3, fp, asr r0
     4f0:	0003d400 	andeq	sp, r3, r0, lsl #8
     4f4:	54000100 	strpl	r0, [r0], #-256	; 0xffffff00
     4f8:	000003d4 	ldrdeq	r0, [r0], -r4
     4fc:	000003d8 	ldrdeq	r0, [r0], -r8
     500:	7f740003 	svcvc	0x00740003
     504:	0003d89f 	muleq	r3, pc, r8	; <UNPREDICTABLE>
     508:	0003fc00 	andeq	pc, r3, r0, lsl #24
     50c:	54000100 	strpl	r0, [r0], #-256	; 0xffffff00
     510:	000004a8 	andeq	r0, r0, r8, lsr #9
     514:	000004ac 	andeq	r0, r0, ip, lsr #9
     518:	ac540001 	mrrcge	0, 0, r0, r4, cr1
     51c:	b4000004 	strlt	r0, [r0], #-4
     520:	03000004 	movweq	r0, #4
     524:	9f017400 	svcls	0x00017400
     528:	000004b4 			; <UNDEFINED> instruction: 0x000004b4
     52c:	000004c0 	andeq	r0, r0, r0, asr #9
     530:	e4540001 	ldrb	r0, [r4], #-1
     534:	f4000004 	vst4.8	{d0-d3}, [r0], r4
     538:	01000004 	tsteq	r0, r4
     53c:	04f45400 	ldrbteq	r5, [r4], #1024	; 0x400
     540:	04f80000 	ldrbteq	r0, [r8], #0
     544:	00030000 	andeq	r0, r3, r0
     548:	f89f0174 			; <UNDEFINED> instruction: 0xf89f0174
     54c:	04000004 	streq	r0, [r0], #-4
     550:	01000005 	tsteq	r0, r5
     554:	09205400 	stmdbeq	r0!, {sl, ip, lr}
     558:	09280000 	stmdbeq	r8!, {}	; <UNPREDICTABLE>
     55c:	00010000 	andeq	r0, r1, r0
     560:	0000005b 	andeq	r0, r0, fp, asr r0
     564:	00000000 	andeq	r0, r0, r0
     568:	ac000100 	stfges	f0, [r0], {-0}
     56c:	b4000003 	strlt	r0, [r0], #-3
     570:	01000009 	tsteq	r0, r9
     574:	00005700 	andeq	r5, r0, r0, lsl #14
     578:	00000000 	andeq	r0, r0, r0
     57c:	00020000 	andeq	r0, r2, r0
     580:	00000000 	andeq	r0, r0, r0
     584:	0000057c 	andeq	r0, r0, ip, ror r5
     588:	000005d0 	ldrdeq	r0, [r0], -r0	; <UNPREDICTABLE>
     58c:	005b0001 	subseq	r0, fp, r1
     590:	88000008 	stmdahi	r0, {r3}
     594:	01000008 	tsteq	r0, r8
     598:	09485b00 	stmdbeq	r8, {r8, r9, fp, ip, lr}^
     59c:	09640000 	stmdbeq	r4!, {}^	; <UNPREDICTABLE>
     5a0:	00010000 	andeq	r0, r1, r0
     5a4:	0000005b 	andeq	r0, r0, fp, asr r0
     5a8:	00000000 	andeq	r0, r0, r0
     5ac:	00000300 	andeq	r0, r0, r0, lsl #6
     5b0:	7c000000 	stcvc	0, cr0, [r0], {-0}
     5b4:	d0000005 	andle	r0, r0, r5
     5b8:	01000005 	tsteq	r0, r5
     5bc:	08005900 	stmdaeq	r0, {r8, fp, ip, lr}
     5c0:	08880000 	stmeq	r8, {}	; <UNPREDICTABLE>
     5c4:	00010000 	andeq	r0, r1, r0
     5c8:	00094859 	andeq	r4, r9, r9, asr r8
     5cc:	00096400 	andeq	r6, r9, r0, lsl #8
     5d0:	59000100 	stmdbpl	r0, {r8}
	...
     5dc:	00000004 	andeq	r0, r0, r4
     5e0:	00000000 	andeq	r0, r0, r0
     5e4:	000003ac 	andeq	r0, r0, ip, lsr #7
     5e8:	000003d0 	ldrdeq	r0, [r0], -r0	; <UNPREDICTABLE>
     5ec:	d0520001 	subsle	r0, r2, r1
     5f0:	20000003 	andcs	r0, r0, r3
     5f4:	04000009 	streq	r0, [r0], #-9
     5f8:	5201f300 	andpl	pc, r1, #0, 6
     5fc:	0009209f 	muleq	r9, pc, r0	; <UNPREDICTABLE>
     600:	00092800 	andeq	r2, r9, r0, lsl #16
     604:	52000100 	andpl	r0, r0, #0
     608:	00000928 	andeq	r0, r0, r8, lsr #18
     60c:	000009b4 			; <UNDEFINED> instruction: 0x000009b4
     610:	01f30004 	mvnseq	r0, r4
     614:	00009f52 	andeq	r9, r0, r2, asr pc
     618:	00000000 	andeq	r0, r0, r0
     61c:	01000000 	mrseq	r0, (UNDEF: 0)
     620:	00000001 	andeq	r0, r0, r1
     624:	00010000 	andeq	r0, r1, r0
     628:	04e00000 	strbteq	r0, [r0], #0
     62c:	04e00000 	strbteq	r0, [r0], #0
     630:	00010000 	andeq	r0, r1, r0
     634:	0004e050 	andeq	lr, r4, r0, asr r0
     638:	0004e800 	andeq	lr, r4, r0, lsl #16
     63c:	55000100 	strpl	r0, [r0, #-256]	; 0xffffff00
     640:	000005b8 			; <UNDEFINED> instruction: 0x000005b8
     644:	000005d0 	ldrdeq	r0, [r0], -r0	; <UNPREDICTABLE>
     648:	f0550001 			; <UNDEFINED> instruction: 0xf0550001
     64c:	f4000005 	vst4.8	{d0-d3}, [r0], r5
     650:	01000005 	tsteq	r0, r5
     654:	07f45000 	ldrbeq	r5, [r4, r0]!
     658:	07f80000 	ldrbeq	r0, [r8, r0]!
     65c:	00010000 	andeq	r0, r1, r0
     660:	00085055 	andeq	r5, r8, r5, asr r0
     664:	00088800 	andeq	r8, r8, r0, lsl #16
     668:	55000100 	strpl	r0, [r0, #-256]	; 0xffffff00
	...
     674:	00000002 	andeq	r0, r0, r2
     678:	00000000 	andeq	r0, r0, r0
     67c:	00000414 	andeq	r0, r0, r4, lsl r4
     680:	00000418 	andeq	r0, r0, r8, lsl r4
     684:	9f300002 	svcls	0x00300002
     688:	00000418 	andeq	r0, r0, r8, lsl r4
     68c:	0000041c 	andeq	r0, r0, ip, lsl r4
     690:	28550001 	ldmdacs	r5, {r0}^
     694:	3c000004 	stccc	0, cr0, [r0], {4}
     698:	01000004 	tsteq	r0, r4
     69c:	09285500 	stmdbeq	r8!, {r8, sl, ip, lr}
     6a0:	09300000 	ldmdbeq	r0!, {}	; <UNPREDICTABLE>
     6a4:	00010000 	andeq	r0, r1, r0
     6a8:	00000055 	andeq	r0, r0, r5, asr r0
     6ac:	00000000 	andeq	r0, r0, r0
     6b0:	00000100 	andeq	r0, r0, r0, lsl #2
	...
     6bc:	00050400 	andeq	r0, r5, r0, lsl #8
     6c0:	00058400 	andeq	r8, r5, r0, lsl #8
     6c4:	56000100 	strpl	r0, [r0], -r0, lsl #2
     6c8:	00000584 	andeq	r0, r0, r4, lsl #11
     6cc:	00000588 	andeq	r0, r0, r8, lsl #11
     6d0:	7e730003 	cdpvc	0, 7, cr0, cr3, cr3, {0}
     6d4:	0005889f 	muleq	r5, pc, r8	; <UNPREDICTABLE>
     6d8:	0005d000 	andeq	sp, r5, r0
     6dc:	91000700 	tstls	r0, r0, lsl #14
     6e0:	32067dcc 	andcc	r7, r6, #204, 26	; 0x3300
     6e4:	08009f1c 	stmdaeq	r0, {r2, r3, r4, r8, r9, sl, fp, ip, pc}
     6e8:	081c0000 	ldmdaeq	ip, {}	; <UNPREDICTABLE>
     6ec:	00010000 	andeq	r0, r1, r0
     6f0:	00081c56 	andeq	r1, r8, r6, asr ip
     6f4:	00088800 	andeq	r8, r8, r0, lsl #16
     6f8:	91000700 	tstls	r0, r0, lsl #14
     6fc:	32067dcc 	andcc	r7, r6, #204, 26	; 0x3300
     700:	09489f1c 	stmdbeq	r8, {r2, r3, r4, r8, r9, sl, fp, ip, pc}^
     704:	09b40000 	ldmibeq	r4!, {}	; <UNPREDICTABLE>
     708:	00010000 	andeq	r0, r1, r0
     70c:	00000056 	andeq	r0, r0, r6, asr r0
     710:	00000000 	andeq	r0, r0, r0
     714:	02060400 	andeq	r0, r6, #0, 8
     718:	00041404 	andeq	r1, r4, r4, lsl #8
     71c:	00041400 	andeq	r1, r4, r0, lsl #8
     720:	72000600 	andvc	r0, r0, #0, 12
     724:	1aff0800 	bne	fffc272c <__bss_end__+0xfffb8ce4>
     728:	0004289f 	muleq	r4, pc, r8	; <UNPREDICTABLE>
     72c:	00042800 	andeq	r2, r4, r0, lsl #16
     730:	72000600 	andvc	r0, r0, #0, 12
     734:	1aff0800 	bne	fffc273c <__bss_end__+0xfffb8cf4>
     738:	0000009f 	muleq	r0, pc, r0	; <UNPREDICTABLE>
     73c:	00000000 	andeq	r0, r0, r0
     740:	00000200 	andeq	r0, r0, r0, lsl #4
     744:	fc000000 	stc2	0, cr0, [r0], {-0}
     748:	00000005 	andeq	r0, r0, r5
     74c:	03000007 	movweq	r0, #7
     750:	9f800800 	svcls	0x00800800
     754:	000008a8 	andeq	r0, r0, r8, lsr #17
     758:	000008bc 			; <UNDEFINED> instruction: 0x000008bc
     75c:	80080003 	andhi	r0, r8, r3
     760:	0009109f 	muleq	r9, pc, r0	; <UNPREDICTABLE>
     764:	00092000 	andeq	r2, r9, r0
     768:	08000300 	stmdaeq	r0, {r8, r9}
     76c:	00009f80 	andeq	r9, r0, r0, lsl #31
     770:	00000000 	andeq	r0, r0, r0
     774:	00010000 	andeq	r0, r1, r0
     778:	00000000 	andeq	r0, r0, r0
     77c:	000005fc 	strdeq	r0, [r0], -ip
     780:	00000700 	andeq	r0, r0, r0, lsl #14
     784:	9f300002 	svcls	0x00300002
     788:	000008a8 	andeq	r0, r0, r8, lsr #17
     78c:	000008bc 			; <UNDEFINED> instruction: 0x000008bc
     790:	9f300002 	svcls	0x00300002
     794:	00000910 	andeq	r0, r0, r0, lsl r9
     798:	00000920 	andeq	r0, r0, r0, lsr #18
     79c:	9f300002 	svcls	0x00300002
	...
     7a8:	00000001 	andeq	r0, r0, r1
     7ac:	05fc0000 	ldrbeq	r0, [ip, #0]!
     7b0:	06e00000 	strbteq	r0, [r0], r0
     7b4:	00010000 	andeq	r0, r1, r0
     7b8:	0008a855 	andeq	sl, r8, r5, asr r8
     7bc:	0008bc00 	andeq	fp, r8, r0, lsl #24
     7c0:	55000100 	strpl	r0, [r0, #-256]	; 0xffffff00
     7c4:	00000910 	andeq	r0, r0, r0, lsl r9
     7c8:	00000920 	andeq	r0, r0, r0, lsr #18
     7cc:	00550001 	subseq	r0, r5, r1
     7d0:	00000000 	andeq	r0, r0, r0
     7d4:	01000000 	mrseq	r0, (UNDEF: 0)
     7d8:	00000000 	andeq	r0, r0, r0
     7dc:	fc000000 	stc2	0, cr0, [r0], {-0}
     7e0:	e0000005 	and	r0, r0, r5
     7e4:	04000006 	streq	r0, [r0], #-6
     7e8:	7dd09100 	ldfvcp	f1, [r0]
     7ec:	0006e09f 	muleq	r6, pc, r0	; <UNPREDICTABLE>
     7f0:	00070000 	andeq	r0, r7, r0
     7f4:	55000100 	strpl	r0, [r0, #-256]	; 0xffffff00
     7f8:	000008a8 	andeq	r0, r0, r8, lsr #17
     7fc:	000008bc 			; <UNDEFINED> instruction: 0x000008bc
     800:	d0910004 	addsle	r0, r1, r4
     804:	09109f7d 	ldmdbeq	r0, {r0, r2, r3, r4, r5, r6, r8, r9, sl, fp, ip, pc}
     808:	09200000 	stmdbeq	r0!, {}	; <UNPREDICTABLE>
     80c:	00040000 	andeq	r0, r4, r0
     810:	9f7dd091 	svcls	0x007dd091
	...
     81c:	00000001 	andeq	r0, r0, r1
     820:	05fc0000 	ldrbeq	r0, [ip, #0]!
     824:	07000000 	streq	r0, [r0, -r0]
     828:	00020000 	andeq	r0, r2, r0
     82c:	08a89f38 	stmiaeq	r8!, {r3, r4, r5, r8, r9, sl, fp, ip, pc}
     830:	08bc0000 	ldmeq	ip!, {}	; <UNPREDICTABLE>
     834:	00020000 	andeq	r0, r2, r0
     838:	09109f38 	ldmdbeq	r0, {r3, r4, r5, r8, r9, sl, fp, ip, pc}
     83c:	09200000 	stmdbeq	r0!, {}	; <UNPREDICTABLE>
     840:	00020000 	andeq	r0, r2, r0
     844:	00009f38 	andeq	r9, r0, r8, lsr pc
     848:	00000000 	andeq	r0, r0, r0
     84c:	07040000 	streq	r0, [r4, -r0]
     850:	00000007 	andeq	r0, r0, r7
	...
     85c:	000005fc 	strdeq	r0, [r0], -ip
     860:	000005fc 	strdeq	r0, [r0], -ip
     864:	d0910004 	addsle	r0, r1, r4
     868:	05fc9f7e 	ldrbeq	r9, [ip, #3966]!	; 0xf7e
     86c:	06780000 	ldrbteq	r0, [r8], -r0
     870:	00040000 	andeq	r0, r4, r0
     874:	9f7ed191 	svcls	0x007ed191
     878:	00000678 	andeq	r0, r0, r8, ror r6
     87c:	000006d4 	ldrdeq	r0, [r0], -r4
     880:	d45c0001 	ldrble	r0, [ip], #-1
     884:	00000006 	andeq	r0, r0, r6
     888:	04000007 	streq	r0, [r0], #-7
     88c:	7ed19100 	atnvcs	f1, f0
     890:	0008a89f 	muleq	r8, pc, r8	; <UNPREDICTABLE>
     894:	0008bc00 	andeq	fp, r8, r0, lsl #24
     898:	91000400 	tstls	r0, r0, lsl #8
     89c:	109f7ed1 			; <UNDEFINED> instruction: 0x109f7ed1
     8a0:	14000009 	strne	r0, [r0], #-9
     8a4:	04000009 	streq	r0, [r0], #-9
     8a8:	7ed19100 	atnvcs	f1, f0
     8ac:	0009149f 	muleq	r9, pc, r4	; <UNPREDICTABLE>
     8b0:	00092000 	andeq	r2, r9, r0
     8b4:	5c000100 	stfpls	f0, [r0], {-0}
	...
     8c0:	01000104 	tsteq	r0, r4, lsl #2
     8c4:	06080000 	streq	r0, [r8], -r0
     8c8:	06d00000 	ldrbeq	r0, [r0], r0
     8cc:	00010000 	andeq	r0, r1, r0
     8d0:	0008a855 	andeq	sl, r8, r5, asr r8
     8d4:	0008b800 	andeq	fp, r8, r0, lsl #16
     8d8:	55000100 	strpl	r0, [r0, #-256]	; 0xffffff00
     8dc:	00000910 	andeq	r0, r0, r0, lsl r9
     8e0:	00000920 	andeq	r0, r0, r0, lsr #18
     8e4:	00550001 	subseq	r0, r5, r1
     8e8:	00000000 	andeq	r0, r0, r0
     8ec:	04000000 	streq	r0, [r0], #-0
     8f0:	00000000 	andeq	r0, r0, r0
     8f4:	00000001 	andeq	r0, r0, r1
     8f8:	08000001 	stmdaeq	r0, {r0}
     8fc:	b0000006 	andlt	r0, r0, r6
     900:	04000006 	streq	r0, [r0], #-6
     904:	7ed09100 	atnvcs	f1, f0
     908:	0006b09f 	muleq	r6, pc, r0	; <UNPREDICTABLE>
     90c:	0006c800 	andeq	ip, r6, r0, lsl #16
     910:	50000100 	andpl	r0, r0, r0, lsl #2
     914:	000006c8 	andeq	r0, r0, r8, asr #13
     918:	000006d0 	ldrdeq	r0, [r0], -r0	; <UNPREDICTABLE>
     91c:	d0910004 	addsle	r0, r1, r4
     920:	08a89f7e 	stmiaeq	r8!, {r1, r2, r3, r4, r5, r6, r8, r9, sl, fp, ip, pc}
     924:	08b00000 	ldmeq	r0!, {}	; <UNPREDICTABLE>
     928:	00040000 	andeq	r0, r4, r0
     92c:	9f7ed091 	svcls	0x007ed091
     930:	000008b0 			; <UNDEFINED> instruction: 0x000008b0
     934:	000008b8 			; <UNDEFINED> instruction: 0x000008b8
     938:	10530001 	subsne	r0, r3, r1
     93c:	20000009 	andcs	r0, r0, r9
     940:	04000009 	streq	r0, [r0], #-9
     944:	7ed09100 	atnvcs	f1, f0
     948:	0000009f 	muleq	r0, pc, r0	; <UNPREDICTABLE>
     94c:	00000000 	andeq	r0, r0, r0
     950:	00000400 	andeq	r0, r0, r0, lsl #8
     954:	01010101 	tsteq	r1, r1, lsl #2
     958:	00020303 	andeq	r0, r2, r3, lsl #6
     95c:	00000001 	andeq	r0, r0, r1
     960:	00060800 	andeq	r0, r6, r0, lsl #16
     964:	00062400 	andeq	r2, r6, r0, lsl #8
     968:	91000400 	tstls	r0, r0, lsl #8
     96c:	849f7ed1 	ldrhi	r7, [pc], #3793	; 974 <__code_start__-0x768c>
     970:	84000006 	strhi	r0, [r0], #-6
     974:	01000006 	tsteq	r0, r6
     978:	06845000 	streq	r5, [r4], r0
     97c:	06980000 	ldreq	r0, [r8], r0
     980:	00030000 	andeq	r0, r3, r0
     984:	989f0170 	ldmls	pc, {r4, r5, r6, r8}	; <UNPREDICTABLE>
     988:	a4000006 	strge	r0, [r0], #-6
     98c:	03000006 	movweq	r0, #6
     990:	9f027000 	svcls	0x00027000
     994:	000006a4 	andeq	r0, r0, r4, lsr #13
     998:	000006a8 	andeq	r0, r0, r8, lsr #13
     99c:	03700003 	cmneq	r0, #3, 0
     9a0:	0008a89f 	muleq	r8, pc, r8	; <UNPREDICTABLE>
     9a4:	0008b800 	andeq	fp, r8, r0, lsl #16
     9a8:	91000400 	tstls	r0, r0, lsl #8
     9ac:	109f7ed1 			; <UNDEFINED> instruction: 0x109f7ed1
     9b0:	14000009 	strne	r0, [r0], #-9
     9b4:	04000009 	streq	r0, [r0], #-9
     9b8:	7ed19100 	atnvcs	f1, f0
     9bc:	0009149f 	muleq	r9, pc, r4	; <UNPREDICTABLE>
     9c0:	00092000 	andeq	r2, r9, r0
     9c4:	5c000100 	stfpls	f0, [r0], {-0}
	...
     9d0:	01000006 	tsteq	r0, r6
     9d4:	01010101 	tsteq	r1, r1, lsl #2
     9d8:	01000201 	tsteq	r0, r1, lsl #4
     9dc:	06080000 	streq	r0, [r8], -r0
     9e0:	06240000 	strteq	r0, [r4], -r0
     9e4:	00020000 	andeq	r0, r2, r0
     9e8:	06849f31 			; <UNDEFINED> instruction: 0x06849f31
     9ec:	06940000 	ldreq	r0, [r4], r0
     9f0:	00010000 	andeq	r0, r1, r0
     9f4:	00069452 	andeq	r9, r6, r2, asr r4
     9f8:	0006a400 	andeq	sl, r6, r0, lsl #8
     9fc:	59000100 	stmdbpl	r0, {r8}
     a00:	000006a4 	andeq	r0, r0, r4, lsr #13
     a04:	000006a8 	andeq	r0, r0, r8, lsr #13
     a08:	a8520001 	ldmdage	r2, {r0}^
     a0c:	a8000006 	stmdage	r0, {r1, r2}
     a10:	03000006 	movweq	r0, #6
     a14:	9f017200 	svcls	0x00017200
     a18:	000008a8 	andeq	r0, r0, r8, lsr #17
     a1c:	000008b8 			; <UNDEFINED> instruction: 0x000008b8
     a20:	9f310002 	svcls	0x00310002
     a24:	00000910 	andeq	r0, r0, r0, lsl r9
     a28:	00000920 	andeq	r0, r0, r0, lsr #18
     a2c:	9f310002 	svcls	0x00310002
	...
     a38:	00060601 	andeq	r0, r6, r1, lsl #12
     a3c:	06d00001 	ldrbeq	r0, [r0], r1
     a40:	06d00000 	ldrbeq	r0, [r0], r0
     a44:	00040000 	andeq	r0, r4, r0
     a48:	9f7ed091 	svcls	0x007ed091
     a4c:	000006d0 	ldrdeq	r0, [r0], -r0	; <UNPREDICTABLE>
     a50:	00000700 	andeq	r0, r0, r0, lsl #14
     a54:	b8500001 	ldmdalt	r0, {r0}^
     a58:	bc000008 	stclt	0, cr0, [r0], {8}
     a5c:	01000008 	tsteq	r0, r8
     a60:	00005300 	andeq	r5, r0, r0, lsl #6
     a64:	00000000 	andeq	r0, r0, r0
     a68:	08010000 	stmdaeq	r1, {}	; <UNPREDICTABLE>
     a6c:	01000000 	mrseq	r0, (UNDEF: 0)
     a70:	07010001 	streq	r0, [r1, -r1]
     a74:	000006d0 	ldrdeq	r0, [r0], -r0	; <UNPREDICTABLE>
     a78:	000006d0 	ldrdeq	r0, [r0], -r0	; <UNPREDICTABLE>
     a7c:	007c0006 	rsbseq	r0, ip, r6
     a80:	9f220071 	svcls	0x00220071
     a84:	000006e4 	andeq	r0, r0, r4, ror #13
     a88:	000006e8 	andeq	r0, r0, r8, ror #13
     a8c:	7f730003 	svcvc	0x00730003
     a90:	0006e89f 	muleq	r6, pc, r8	; <UNPREDICTABLE>
     a94:	0006f000 	andeq	pc, r6, r0
     a98:	53000100 	movwpl	r0, #256	; 0x100
     a9c:	000006f0 	strdeq	r0, [r0], -r0	; <UNPREDICTABLE>
     aa0:	000006f8 	strdeq	r0, [r0], -r8
     aa4:	7f730003 	svcvc	0x00730003
     aa8:	0008b89f 	muleq	r8, pc, r8	; <UNPREDICTABLE>
     aac:	0008b800 	andeq	fp, r8, r0, lsl #16
     ab0:	91000400 	tstls	r0, r0, lsl #8
     ab4:	009f7ed1 			; <UNDEFINED> instruction: 0x009f7ed1
     ab8:	00000000 	andeq	r0, r0, r0
     abc:	01000000 	mrseq	r0, (UNDEF: 0)
     ac0:	d0000100 	andle	r0, r0, r0, lsl #2
     ac4:	00000006 	andeq	r0, r0, r6
     ac8:	03000007 	movweq	r0, #7
     acc:	9f800800 	svcls	0x00800800
     ad0:	000008b8 			; <UNDEFINED> instruction: 0x000008b8
     ad4:	000008bc 			; <UNDEFINED> instruction: 0x000008bc
     ad8:	80080003 	andhi	r0, r8, r3
     adc:	0000009f 	muleq	r0, pc, r0	; <UNPREDICTABLE>
     ae0:	00000000 	andeq	r0, r0, r0
     ae4:	00000100 	andeq	r0, r0, r0, lsl #2
     ae8:	01010000 	mrseq	r0, (UNDEF: 1)
     aec:	02000000 	andeq	r0, r0, #0, 0
     af0:	d0000101 	andle	r0, r0, r1, lsl #2
     af4:	e0000006 	and	r0, r0, r6
     af8:	04000006 	streq	r0, [r0], #-6
     afc:	7dd09100 	ldfvcp	f1, [r0]
     b00:	0006e09f 	muleq	r6, pc, r0	; <UNPREDICTABLE>
     b04:	0006e400 	andeq	lr, r6, r0, lsl #8
     b08:	55000100 	strpl	r0, [r0, #-256]	; 0xffffff00
     b0c:	000006e4 	andeq	r0, r0, r4, ror #13
     b10:	000006e4 	andeq	r0, r0, r4, ror #13
     b14:	01720003 	cmneq	r2, r3
     b18:	0006e49f 	muleq	r6, pc, r4	; <UNPREDICTABLE>
     b1c:	0006f000 	andeq	pc, r6, r0
     b20:	72000300 	andvc	r0, r0, #0, 6
     b24:	06f09f02 	ldrbteq	r9, [r0], r2, lsl #30
     b28:	07000000 	streq	r0, [r0, -r0]
     b2c:	00030000 	andeq	r0, r3, r0
     b30:	ec9f0172 	ldfs	f0, [pc], {114}	; 0x72
     b34:	f4000007 	vst4.8	{d0-d3}, [r0], r7
     b38:	03000007 	movweq	r0, #7
     b3c:	9f017300 	svcls	0x00017300
     b40:	000008b8 			; <UNDEFINED> instruction: 0x000008b8
     b44:	000008bc 			; <UNDEFINED> instruction: 0x000008bc
     b48:	d0910004 	addsle	r0, r1, r4
     b4c:	00009f7d 	andeq	r9, r0, sp, ror pc
     b50:	00000000 	andeq	r0, r0, r0
     b54:	00040000 	andeq	r0, r4, r0
     b58:	000008b8 			; <UNDEFINED> instruction: 0x000008b8
     b5c:	000008bc 			; <UNDEFINED> instruction: 0x000008bc
     b60:	9f320002 	svcls	0x00320002
	...
     b6c:	00000007 	andeq	r0, r0, r7
     b70:	06d00006 	ldrbeq	r0, [r0], r6
     b74:	06e00000 	strbteq	r0, [r0], r0
     b78:	00040000 	andeq	r0, r4, r0
     b7c:	9f7dd091 	svcls	0x007dd091
     b80:	000006e0 	andeq	r0, r0, r0, ror #13
     b84:	00000700 	andeq	r0, r0, r0, lsl #14
     b88:	b8550001 	ldmdalt	r5, {r0}^
     b8c:	bc000008 	stclt	0, cr0, [r0], {8}
     b90:	04000008 	streq	r0, [r0], #-8
     b94:	7dd09100 	ldfvcp	f1, [r0]
     b98:	0000009f 	muleq	r0, pc, r0	; <UNPREDICTABLE>
     b9c:	00000000 	andeq	r0, r0, r0
     ba0:	00000100 	andeq	r0, r0, r0, lsl #2
     ba4:	00070c00 	andeq	r0, r7, r0, lsl #24
     ba8:	0007ec00 	andeq	lr, r7, r0, lsl #24
     bac:	08000300 	stmdaeq	r0, {r8, r9}
     bb0:	08949f80 	ldmeq	r4, {r7, r8, r9, sl, fp, ip, pc}
     bb4:	08a80000 	stmiaeq	r8!, {}	; <UNPREDICTABLE>
     bb8:	00030000 	andeq	r0, r3, r0
     bbc:	009f8008 	addseq	r8, pc, r8
	...
     bc8:	0c000000 	stceq	0, cr0, [r0], {-0}
     bcc:	ec000007 	stc	0, cr0, [r0], {7}
     bd0:	02000007 	andeq	r0, r0, #7, 0
     bd4:	949f3000 	ldrls	r3, [pc], #0	; bdc <__code_start__-0x7424>
     bd8:	a8000008 	stmdage	r0, {r3}
     bdc:	02000008 	andeq	r0, r0, #8, 0
     be0:	009f3000 	addseq	r3, pc, r0
	...
     bec:	0c000000 	stceq	0, cr0, [r0], {-0}
     bf0:	d0000007 	andle	r0, r0, r7
     bf4:	01000007 	tsteq	r0, r7
     bf8:	08945500 	ldmeq	r4, {r8, sl, ip, lr}
     bfc:	08a80000 	stmiaeq	r8!, {}	; <UNPREDICTABLE>
     c00:	00010000 	andeq	r0, r1, r0
     c04:	00000055 	andeq	r0, r0, r5, asr r0
	...
     c10:	0c000000 	stceq	0, cr0, [r0], {-0}
     c14:	d0000007 	andle	r0, r0, r7
     c18:	04000007 	streq	r0, [r0], #-7
     c1c:	7dd09100 	ldfvcp	f1, [r0]
     c20:	0007d09f 	muleq	r7, pc, r0	; <UNPREDICTABLE>
     c24:	0007ec00 	andeq	lr, r7, r0, lsl #24
     c28:	55000100 	strpl	r0, [r0, #-256]	; 0xffffff00
     c2c:	00000894 	muleq	r0, r4, r8
     c30:	000008a8 	andeq	r0, r0, r8, lsr #17
     c34:	d0910004 	addsle	r0, r1, r4
     c38:	00009f7d 	andeq	r9, r0, sp, ror pc
	...
     c44:	070c0000 	streq	r0, [ip, -r0]
     c48:	07ec0000 	strbeq	r0, [ip, r0]!
     c4c:	00020000 	andeq	r0, r2, r0
     c50:	08949f32 	ldmeq	r4, {r1, r4, r5, r8, r9, sl, fp, ip, pc}
     c54:	08a80000 	stmiaeq	r8!, {}	; <UNPREDICTABLE>
     c58:	00020000 	andeq	r0, r2, r0
     c5c:	00009f32 	andeq	r9, r0, r2, lsr pc
     c60:	00000000 	andeq	r0, r0, r0
     c64:	05030000 	streq	r0, [r3, #-0]
     c68:	00000005 	andeq	r0, r0, r5
     c6c:	00000000 	andeq	r0, r0, r0
     c70:	0000070c 	andeq	r0, r0, ip, lsl #14
     c74:	0000070c 	andeq	r0, r0, ip, lsl #14
     c78:	0c510001 	mrrceq	0, 0, r0, r1, cr1
     c7c:	1c000007 	stcne	0, cr0, [r0], {7}
     c80:	01000007 	tsteq	r0, r7
     c84:	071c5300 	ldreq	r5, [ip, -r0, lsl #6]
     c88:	07240000 	streq	r0, [r4, -r0]!
     c8c:	00030000 	andeq	r0, r3, r0
     c90:	249f0172 	ldrcs	r0, [pc], #370	; c98 <__code_start__-0x7368>
     c94:	cc000007 	stcgt	0, cr0, [r0], {7}
     c98:	01000007 	tsteq	r0, r7
     c9c:	08945300 	ldmeq	r4, {r8, r9, ip, lr}
     ca0:	08a80000 	stmiaeq	r8!, {}	; <UNPREDICTABLE>
     ca4:	00010000 	andeq	r0, r1, r0
     ca8:	00000053 	andeq	r0, r0, r3, asr r0
     cac:	00000000 	andeq	r0, r0, r0
     cb0:	01000500 	tsteq	r0, r0, lsl #10
     cb4:	00070c00 	andeq	r0, r7, r0, lsl #24
     cb8:	00072000 	andeq	r2, r7, r0
     cbc:	50000100 	andpl	r0, r0, r0, lsl #2
     cc0:	00000724 	andeq	r0, r0, r4, lsr #14
     cc4:	0000072c 	andeq	r0, r0, ip, lsr #14
     cc8:	00500001 	subseq	r0, r0, r1
     ccc:	00000000 	andeq	r0, r0, r0
     cd0:	03000000 	movweq	r0, #0
     cd4:	28010001 	stmdacs	r1, {r0}
     cd8:	b0000007 	andlt	r0, r0, r7
     cdc:	01000007 	tsteq	r0, r7
     ce0:	08945500 	ldmeq	r4, {r8, sl, ip, lr}
     ce4:	08a00000 	stmiaeq	r0!, {}	; <UNPREDICTABLE>
     ce8:	00010000 	andeq	r0, r1, r0
     cec:	00000055 	andeq	r0, r0, r5, asr r0
     cf0:	00000000 	andeq	r0, r0, r0
     cf4:	00010300 	andeq	r0, r1, r0, lsl #6
     cf8:	00072801 	andeq	r2, r7, r1, lsl #16
     cfc:	0007b000 	andeq	fp, r7, r0
     d00:	51000100 	mrspl	r0, (UNDEF: 16)
     d04:	00000894 	muleq	r0, r4, r8
     d08:	000008a0 	andeq	r0, r0, r0, lsr #17
     d0c:	00510001 	subseq	r0, r1, r1
     d10:	00000000 	andeq	r0, r0, r0
     d14:	03000000 	movweq	r0, #0
     d18:	01010000 	mrseq	r0, (UNDEF: 1)
     d1c:	03030101 	movweq	r0, #12545	; 0x3101
     d20:	28010002 	stmdacs	r1, {r1}
     d24:	50000007 	andpl	r0, r0, r7
     d28:	01000007 	tsteq	r0, r7
     d2c:	07745300 	ldrbeq	r5, [r4, -r0, lsl #6]!
     d30:	07740000 	ldrbeq	r0, [r4, -r0]!
     d34:	00010000 	andeq	r0, r1, r0
     d38:	0007745e 	andeq	r7, r7, lr, asr r4
     d3c:	00078800 	andeq	r8, r7, r0, lsl #16
     d40:	7e000300 	cdpvc	3, 0, cr0, cr0, cr0, {0}
     d44:	07889f01 	streq	r9, [r8, r1, lsl #30]
     d48:	07940000 	ldreq	r0, [r4, r0]
     d4c:	00030000 	andeq	r0, r3, r0
     d50:	949f027e 	ldrls	r0, [pc], #638	; d58 <__code_start__-0x72a8>
     d54:	98000007 	stmdals	r0, {r0, r1, r2}
     d58:	03000007 	movweq	r0, #7
     d5c:	9f037e00 	svcls	0x00037e00
     d60:	00000894 	muleq	r0, r4, r8
     d64:	000008a0 	andeq	r0, r0, r0, lsr #17
     d68:	00530001 	subseq	r0, r3, r1
	...
     d74:	01010000 	mrseq	r0, (UNDEF: 1)
     d78:	01010101 	tsteq	r1, r1, lsl #2
     d7c:	2c010002 	stccs	0, cr0, [r1], {2}
     d80:	50000007 	andpl	r0, r0, r7
     d84:	01000007 	tsteq	r0, r7
     d88:	07745000 	ldrbeq	r5, [r4, -r0]!
     d8c:	07840000 	streq	r0, [r4, r0]
     d90:	00010000 	andeq	r0, r1, r0
     d94:	00078450 	andeq	r8, r7, r0, asr r4
     d98:	00079400 	andeq	r9, r7, r0, lsl #8
     d9c:	5b000100 	blpl	11a4 <__code_start__-0x6e5c>
     da0:	00000794 	muleq	r0, r4, r7
     da4:	00000798 	muleq	r0, r8, r7
     da8:	98500001 	ldmdals	r0, {r0}^
     dac:	98000007 	stmdals	r0, {r0, r1, r2}
     db0:	03000007 	movweq	r0, #7
     db4:	9f017000 	svcls	0x00017000
     db8:	00000894 	muleq	r0, r4, r8
     dbc:	000008a0 	andeq	r0, r0, r0, lsr #17
     dc0:	00500001 	subseq	r0, r0, r1
     dc4:	00000000 	andeq	r0, r0, r0
     dc8:	01000000 	mrseq	r0, (UNDEF: 0)
     dcc:	b0000100 	andlt	r0, r0, r0, lsl #2
     dd0:	ec000007 	stc	0, cr0, [r0], {7}
     dd4:	01000007 	tsteq	r0, r7
     dd8:	08a05100 	stmiaeq	r0!, {r8, ip, lr}
     ddc:	08a80000 	stmiaeq	r8!, {}	; <UNPREDICTABLE>
     de0:	00010000 	andeq	r0, r1, r0
     de4:	00000051 	andeq	r0, r0, r1, asr r0
     de8:	00000000 	andeq	r0, r0, r0
     dec:	00000100 	andeq	r0, r0, r0, lsl #2
     df0:	01010000 	mrseq	r0, (UNDEF: 1)
     df4:	b0000100 	andlt	r0, r0, r0, lsl #2
     df8:	b4000007 	strlt	r0, [r0], #-7
     dfc:	06000007 	streq	r0, [r0], -r7
     e00:	7c007300 	stcvc	3, cr7, [r0], {-0}
     e04:	d49f2200 	ldrle	r2, [pc], #512	; e0c <__code_start__-0x71f4>
     e08:	d8000007 	stmdale	r0, {r0, r1, r2}
     e0c:	03000007 	movweq	r0, #7
     e10:	9f7f7300 	svcls	0x007f7300
     e14:	000007d8 	ldrdeq	r0, [r0], -r8
     e18:	000007e0 	andeq	r0, r0, r0, ror #15
     e1c:	e0530001 	subs	r0, r3, r1
     e20:	e8000007 	stmda	r0, {r0, r1, r2}
     e24:	03000007 	movweq	r0, #7
     e28:	9f7f7300 	svcls	0x007f7300
     e2c:	000008a0 	andeq	r0, r0, r0, lsr #17
     e30:	000008a8 	andeq	r0, r0, r8, lsr #17
     e34:	00530001 	subseq	r0, r3, r1
     e38:	00000000 	andeq	r0, r0, r0
     e3c:	01000000 	mrseq	r0, (UNDEF: 0)
     e40:	b0000100 	andlt	r0, r0, r0, lsl #2
     e44:	ec000007 	stc	0, cr0, [r0], {7}
     e48:	03000007 	movweq	r0, #7
     e4c:	9f800800 	svcls	0x00800800
     e50:	000008a0 	andeq	r0, r0, r0, lsr #17
     e54:	000008a8 	andeq	r0, r0, r8, lsr #17
     e58:	80080003 	andhi	r0, r8, r3
     e5c:	0000009f 	muleq	r0, pc, r0	; <UNPREDICTABLE>
     e60:	00000000 	andeq	r0, r0, r0
     e64:	00000100 	andeq	r0, r0, r0, lsl #2
     e68:	01010000 	mrseq	r0, (UNDEF: 1)
     e6c:	01000000 	mrseq	r0, (UNDEF: 0)
     e70:	0007b000 	andeq	fp, r7, r0
     e74:	0007d000 	andeq	sp, r7, r0
     e78:	91000400 	tstls	r0, r0, lsl #8
     e7c:	d09f7dd0 			; <UNDEFINED> instruction: 0xd09f7dd0
     e80:	d4000007 	strle	r0, [r0], #-7
     e84:	01000007 	tsteq	r0, r7
     e88:	07d45500 	ldrbeq	r5, [r4, r0, lsl #10]
     e8c:	07d40000 	ldrbeq	r0, [r4, r0]
     e90:	00030000 	andeq	r0, r3, r0
     e94:	d49f017c 	ldrle	r0, [pc], #380	; e9c <__code_start__-0x7164>
     e98:	e0000007 	and	r0, r0, r7
     e9c:	03000007 	movweq	r0, #7
     ea0:	9f027c00 	svcls	0x00027c00
     ea4:	000007e0 	andeq	r0, r0, r0, ror #15
     ea8:	000007ec 	andeq	r0, r0, ip, ror #15
     eac:	017c0003 	cmneq	ip, r3
     eb0:	0008a09f 	muleq	r8, pc, r0	; <UNPREDICTABLE>
     eb4:	0008a800 	andeq	sl, r8, r0, lsl #16
     eb8:	91000400 	tstls	r0, r0, lsl #8
     ebc:	009f7dd0 			; <UNDEFINED> instruction: 0x009f7dd0
     ec0:	00000000 	andeq	r0, r0, r0
     ec4:	04000000 	streq	r0, [r0], #-0
     ec8:	b0000400 	andlt	r0, r0, r0, lsl #8
     ecc:	b4000007 	strlt	r0, [r0], #-7
     ed0:	03000007 	movweq	r0, #7
     ed4:	9f017000 	svcls	0x00017000
     ed8:	000008a0 	andeq	r0, r0, r0, lsr #17
     edc:	000008a8 	andeq	r0, r0, r8, lsr #17
     ee0:	01700003 	cmneq	r0, r3
     ee4:	0000009f 	muleq	r0, pc, r0	; <UNPREDICTABLE>
     ee8:	00000000 	andeq	r0, r0, r0
     eec:	00000100 	andeq	r0, r0, r0, lsl #2
     ef0:	0007bc00 	andeq	fp, r7, r0, lsl #24
     ef4:	0007d000 	andeq	sp, r7, r0
     ef8:	91000400 	tstls	r0, r0, lsl #8
     efc:	d09f7dd0 			; <UNDEFINED> instruction: 0xd09f7dd0
     f00:	ec000007 	stc	0, cr0, [r0], {7}
     f04:	01000007 	tsteq	r0, r7
     f08:	00005500 	andeq	r5, r0, r0, lsl #10
	...
     f14:	03280000 			; <UNDEFINED> instruction: 0x03280000
     f18:	03640000 	cmneq	r4, #0, 0
     f1c:	00010000 	andeq	r0, r1, r0
     f20:	00036450 	andeq	r6, r3, r0, asr r4
     f24:	00038800 	andeq	r8, r3, r0, lsl #16
     f28:	f3000400 	vshl.u8	d0, d0, d0
     f2c:	009f5001 	addseq	r5, pc, r1
	...
     f38:	28000000 	stmdacs	r0, {}	; <UNPREDICTABLE>
     f3c:	5c000003 	stcpl	0, cr0, [r0], {3}
     f40:	01000003 	tsteq	r0, r3
     f44:	035c5100 	cmpeq	ip, #0
     f48:	03880000 	orreq	r0, r8, #0, 0
     f4c:	00040000 	andeq	r0, r4, r0
     f50:	9f5101f3 	svcls	0x005101f3
	...
     f78:	00000014 	andeq	r0, r0, r4, lsl r0
     f7c:	14500001 	ldrbne	r0, [r0], #-1
     f80:	20000000 	andcs	r0, r0, r0
     f84:	01000000 	mrseq	r0, (UNDEF: 0)
     f88:	00205c00 	eoreq	r5, r0, r0, lsl #24
     f8c:	00680000 	rsbeq	r0, r8, r0
     f90:	00030000 	andeq	r0, r3, r0
     f94:	689f0271 	ldmvs	pc, {r0, r4, r5, r6, r9}	; <UNPREDICTABLE>
     f98:	6c000000 	stcvs	0, cr0, [r0], {-0}
     f9c:	03000000 	movweq	r0, #0
     fa0:	9f027300 	svcls	0x00027300
     fa4:	0000006c 	andeq	r0, r0, ip, rrx
     fa8:	00000194 	muleq	r0, r4, r1
     fac:	01f30004 	mvnseq	r0, r4
     fb0:	01949f50 	orrseq	r9, r4, r0, asr pc
     fb4:	01980000 	orrseq	r0, r8, r0
     fb8:	00030000 	andeq	r0, r3, r0
     fbc:	989f0273 	ldmls	pc, {r0, r1, r4, r5, r6, r9}	; <UNPREDICTABLE>
     fc0:	c0000001 	andgt	r0, r0, r1
     fc4:	04000001 	streq	r0, [r0], #-1
     fc8:	5001f300 	andpl	pc, r1, r0, lsl #6
     fcc:	0001c09f 	muleq	r1, pc, r0	; <UNPREDICTABLE>
     fd0:	0001c800 	andeq	ip, r1, r0, lsl #16
     fd4:	5c000100 	stfpls	f0, [r0], {-0}
     fd8:	000001c8 	andeq	r0, r0, r8, asr #3
     fdc:	00000214 	andeq	r0, r0, r4, lsl r2
     fe0:	02730003 	rsbseq	r0, r3, #3, 0
     fe4:	0002149f 	muleq	r2, pc, r4	; <UNPREDICTABLE>
     fe8:	0002ec00 	andeq	lr, r2, r0, lsl #24
     fec:	f3000400 	vshl.u8	d0, d0, d0
     ff0:	ec9f5001 	ldc	0, cr5, [pc], {1}
     ff4:	f4000002 	vst4.8	{d0-d3}, [r0], r2
     ff8:	03000002 	movweq	r0, #2
     ffc:	9f027300 	svcls	0x00027300
    1000:	000002f4 	strdeq	r0, [r0], -r4
    1004:	00000328 	andeq	r0, r0, r8, lsr #6
    1008:	01f30004 	mvnseq	r0, r4
    100c:	00009f50 	andeq	r9, r0, r0, asr pc
	...
    1020:	001c0000 	andseq	r0, ip, r0
    1024:	00010000 	andeq	r0, r1, r0
    1028:	00001c51 	andeq	r1, r0, r1, asr ip
    102c:	0002e000 	andeq	lr, r2, r0
    1030:	50000100 	andpl	r0, r0, r0, lsl #2
    1034:	000002e0 	andeq	r0, r0, r0, ror #5
    1038:	000002ec 	andeq	r0, r0, ip, ror #5
    103c:	01f30004 	mvnseq	r0, r4
    1040:	02ec9f51 	rsceq	r9, ip, #324	; 0x144
    1044:	03280000 			; <UNDEFINED> instruction: 0x03280000
    1048:	00010000 	andeq	r0, r1, r0
    104c:	00000050 	andeq	r0, r0, r0, asr r0
	...
    1058:	00010000 	andeq	r0, r1, r0
    105c:	00000000 	andeq	r0, r0, r0
    1060:	02020000 	andeq	r0, r2, #0, 0
	...
    1078:	00007000 	andeq	r7, r0, r0
    107c:	52000100 	andpl	r0, r0, #0
    1080:	00000070 	andeq	r0, r0, r0, ror r0
    1084:	00000078 	andeq	r0, r0, r8, ror r0
    1088:	785c0001 	ldmdavc	ip, {r0}^
    108c:	a4000000 	strge	r0, [r0], #-0
    1090:	04000000 	streq	r0, [r0], #-0
    1094:	5201f300 	andpl	pc, r1, #0, 6
    1098:	0001949f 	muleq	r1, pc, r4	; <UNPREDICTABLE>
    109c:	00019c00 	andeq	r9, r1, r0, lsl #24
    10a0:	52000100 	andpl	r0, r0, #0
    10a4:	0000019c 	muleq	r0, ip, r1
    10a8:	000001a4 	andeq	r0, r0, r4, lsr #3
    10ac:	a45c0001 	ldrbge	r0, [ip], #-1
    10b0:	c0000001 	andgt	r0, r0, r1
    10b4:	04000001 	streq	r0, [r0], #-1
    10b8:	5201f300 	andpl	pc, r1, #0, 6
    10bc:	0001c09f 	muleq	r1, pc, r0	; <UNPREDICTABLE>
    10c0:	00022000 	andeq	r2, r2, r0
    10c4:	52000100 	andpl	r0, r0, #0
    10c8:	00000220 	andeq	r0, r0, r0, lsr #4
    10cc:	00000228 	andeq	r0, r0, r8, lsr #4
    10d0:	00720004 	rsbseq	r0, r2, r4
    10d4:	02289f1f 	eoreq	r9, r8, #124	; 0x7c
    10d8:	02740000 	rsbseq	r0, r4, #0, 0
    10dc:	00050000 	andeq	r0, r5, r0
    10e0:	1f5201f3 	svcne	0x005201f3
    10e4:	0002749f 	muleq	r2, pc, r4	; <UNPREDICTABLE>
    10e8:	00028800 	andeq	r8, r2, r0, lsl #16
    10ec:	52000100 	andpl	r0, r0, #0
    10f0:	00000288 	andeq	r0, r0, r8, lsl #5
    10f4:	000002a0 	andeq	r0, r0, r0, lsr #5
    10f8:	cc5c0001 	mrrcgt	0, 0, r0, ip, cr1
    10fc:	d0000002 	andle	r0, r0, r2
    1100:	01000002 	tsteq	r0, r2
    1104:	02d05200 	sbcseq	r5, r0, #0, 4
    1108:	02e70000 	rsceq	r0, r7, #0, 0
    110c:	00010000 	andeq	r0, r1, r0
    1110:	0002e75c 	andeq	lr, r2, ip, asr r7
    1114:	0002ec00 	andeq	lr, r2, r0, lsl #24
    1118:	f3000400 	vshl.u8	d0, d0, d0
    111c:	ec9f5201 	lfm	f5, 4, [pc], {1}
    1120:	00000002 	andeq	r0, r0, r2
    1124:	01000003 	tsteq	r0, r3
    1128:	03005200 	movweq	r5, #512	; 0x200
    112c:	03280000 			; <UNDEFINED> instruction: 0x03280000
    1130:	00010000 	andeq	r0, r1, r0
    1134:	0000005c 	andeq	r0, r0, ip, asr r0
	...
    114c:	68000000 	stmdavs	r0, {}	; <UNPREDICTABLE>
    1150:	01000000 	mrseq	r0, (UNDEF: 0)
    1154:	00685300 	rsbeq	r5, r8, r0, lsl #6
    1158:	006c0000 	rsbeq	r0, ip, r0
    115c:	00030000 	andeq	r0, r3, r0
    1160:	949f7f08 	ldrls	r7, [pc], #3848	; 1168 <__code_start__-0x6e98>
    1164:	98000001 	stmdals	r0, {r0}
    1168:	03000001 	movweq	r0, #1
    116c:	9f7f0800 	svcls	0x007f0800
    1170:	000001c0 	andeq	r0, r0, r0, asr #3
    1174:	00000214 	andeq	r0, r0, r4, lsl r2
    1178:	7f080003 	svcvc	0x00080003
    117c:	0002749f 	muleq	r2, pc, r4	; <UNPREDICTABLE>
    1180:	00029000 	andeq	r9, r2, r0
    1184:	53000100 	movwpl	r0, #256	; 0x100
    1188:	00000290 	muleq	r0, r0, r2
    118c:	000002a0 	andeq	r0, r0, r0, lsr #5
    1190:	01f30004 	mvnseq	r0, r4
    1194:	02ec9f53 	rsceq	r9, ip, #332	; 0x14c
    1198:	03280000 			; <UNDEFINED> instruction: 0x03280000
    119c:	00030000 	andeq	r0, r3, r0
    11a0:	009f7f08 	addseq	r7, pc, r8, lsl #30
    11a4:	00000000 	andeq	r0, r0, r0
    11a8:	01000000 	mrseq	r0, (UNDEF: 0)
    11ac:	00000000 	andeq	r0, r0, r0
    11b0:	00000202 	andeq	r0, r0, r2, lsl #4
    11b4:	00000101 	andeq	r0, r0, r1, lsl #2
    11b8:	00000000 	andeq	r0, r0, r0
    11bc:	02020000 	andeq	r0, r2, #0, 0
    11c0:	01000000 	mrseq	r0, (UNDEF: 0)
	...
    11cc:	00000101 	andeq	r0, r0, r1, lsl #2
    11d0:	02020000 	andeq	r0, r2, #0, 0
    11d4:	00000000 	andeq	r0, r0, r0
    11d8:	01010000 	mrseq	r0, (UNDEF: 1)
    11dc:	18000000 	stmdane	r0, {}	; <UNPREDICTABLE>
    11e0:	70000000 	andvc	r0, r0, r0
    11e4:	04000000 	streq	r0, [r0], #-0
    11e8:	7fa09100 	svcvc	0x00a09100
    11ec:	0000709f 	muleq	r0, pc, r0	; <UNPREDICTABLE>
    11f0:	00007800 	andeq	r7, r0, r0, lsl #16
    11f4:	52000100 	andpl	r0, r0, #0
    11f8:	00000078 	andeq	r0, r0, r8, ror r0
    11fc:	00000078 	andeq	r0, r0, r8, ror r0
    1200:	78540001 	ldmdavc	r4, {r0}^
    1204:	88000000 	stmdahi	r0, {}	; <UNPREDICTABLE>
    1208:	03000000 	movweq	r0, #0
    120c:	9f017400 	svcls	0x00017400
    1210:	00000088 	andeq	r0, r0, r8, lsl #1
    1214:	00000090 	muleq	r0, r0, r0
    1218:	90540001 	subsls	r0, r4, r1
    121c:	a0000000 	andge	r0, r0, r0
    1220:	03000000 	movweq	r0, #0
    1224:	9f027400 	svcls	0x00027400
    1228:	000000a0 	andeq	r0, r0, r0, lsr #1
    122c:	000000b0 	strheq	r0, [r0], -r0	; <UNPREDICTABLE>
    1230:	945e0001 	ldrbls	r0, [lr], #-1
    1234:	9c000001 	stcls	0, cr0, [r0], {1}
    1238:	04000001 	streq	r0, [r0], #-1
    123c:	7fa09100 	svcvc	0x00a09100
    1240:	00019c9f 	muleq	r1, pc, ip	; <UNPREDICTABLE>
    1244:	0001a400 	andeq	sl, r1, r0, lsl #8
    1248:	52000100 	andpl	r0, r0, #0
    124c:	000001a4 	andeq	r0, r0, r4, lsr #3
    1250:	000001a4 	andeq	r0, r0, r4, lsr #3
    1254:	a45e0001 	ldrbge	r0, [lr], #-1
    1258:	b4000001 	strlt	r0, [r0], #-1
    125c:	03000001 	movweq	r0, #1
    1260:	9f017e00 	svcls	0x00017e00
    1264:	000001b4 			; <UNDEFINED> instruction: 0x000001b4
    1268:	000001c0 	andeq	r0, r0, r0, asr #3
    126c:	c05e0001 	subsgt	r0, lr, r1
    1270:	28000001 	stmdacs	r0, {r0}
    1274:	04000002 	streq	r0, [r0], #-2
    1278:	7fa09100 	svcvc	0x00a09100
    127c:	0002289f 	muleq	r2, pc, r8	; <UNPREDICTABLE>
    1280:	00023400 	andeq	r3, r2, r0, lsl #8
    1284:	52000100 	andpl	r0, r0, #0
    1288:	00000234 	andeq	r0, r0, r4, lsr r2
    128c:	00000258 	andeq	r0, r0, r8, asr r2
    1290:	585e0001 	ldmdapl	lr, {r0}^
    1294:	5c000002 	stcpl	0, cr0, [r0], {2}
    1298:	03000002 	movweq	r0, #2
    129c:	9f017e00 	svcls	0x00017e00
    12a0:	0000025c 	andeq	r0, r0, ip, asr r2
    12a4:	00000264 	andeq	r0, r0, r4, ror #4
    12a8:	645e0001 	ldrbvs	r0, [lr], #-1
    12ac:	70000002 	andvc	r0, r0, r2
    12b0:	03000002 	movweq	r0, #2
    12b4:	9f027100 	svcls	0x00027100
    12b8:	00000270 	andeq	r0, r0, r0, ror r2
    12bc:	00000274 	andeq	r0, r0, r4, ror r2
    12c0:	745e0001 	ldrbvc	r0, [lr], #-1
    12c4:	74000002 	strvc	r0, [r0], #-2
    12c8:	04000002 	streq	r0, [r0], #-2
    12cc:	7fa09100 	svcvc	0x00a09100
    12d0:	0002749f 	muleq	r2, pc, r4	; <UNPREDICTABLE>
    12d4:	0002a000 	andeq	sl, r2, r0
    12d8:	91000400 	tstls	r0, r0, lsl #8
    12dc:	c09f7fa1 	addsgt	r7, pc, r1, lsr #31
    12e0:	c8000002 	stmdagt	r0, {r1}
    12e4:	01000002 	tsteq	r0, r2
    12e8:	02c85e00 	sbceq	r5, r8, #0, 28
    12ec:	02cc0000 	sbceq	r0, ip, #0, 0
    12f0:	00010000 	andeq	r0, r1, r0
    12f4:	0002cc56 	andeq	ip, r2, r6, asr ip
    12f8:	0002ec00 	andeq	lr, r2, r0, lsl #24
    12fc:	91000400 	tstls	r0, r0, lsl #8
    1300:	ec9f7fa0 	ldc	15, cr7, [pc], {160}	; 0xa0
    1304:	fc000002 	stc2	0, cr0, [r0], {2}
    1308:	04000002 	streq	r0, [r0], #-2
    130c:	7fa19100 	svcvc	0x00a19100
    1310:	0002fc9f 	muleq	r2, pc, ip	; <UNPREDICTABLE>
    1314:	00032800 	andeq	r2, r3, r0, lsl #16
    1318:	5e000100 	adfpls	f0, f0, f0
	...
    1330:	01000000 	mrseq	r0, (UNDEF: 0)
    1334:	00000001 	andeq	r0, r0, r1
	...
    1344:	00200000 	eoreq	r0, r0, r0
    1348:	00700000 	rsbseq	r0, r0, r0
    134c:	00010000 	andeq	r0, r1, r0
    1350:	00007052 	andeq	r7, r0, r2, asr r0
    1354:	00009400 	andeq	r9, r0, r0, lsl #8
    1358:	5c000100 	stfpls	f0, [r0], {-0}
    135c:	00000194 	muleq	r0, r4, r1
    1360:	0000019c 	muleq	r0, ip, r1
    1364:	9c520001 	mrrcls	0, 0, r0, r2, cr1
    1368:	c0000001 	andgt	r0, r0, r1
    136c:	01000001 	tsteq	r0, r1
    1370:	01c85c00 	biceq	r5, r8, r0, lsl #24
    1374:	02100000 	andseq	r0, r0, #0, 0
    1378:	00010000 	andeq	r0, r1, r0
    137c:	0002105c 	andeq	r1, r2, ip, asr r0
    1380:	00022400 	andeq	r2, r2, r0, lsl #8
    1384:	52000100 	andpl	r0, r0, #0
    1388:	00000224 	andeq	r0, r0, r4, lsr #4
    138c:	00000248 	andeq	r0, r0, r8, asr #4
    1390:	485c0001 	ldmdami	ip, {r0}^
    1394:	5c000002 	stcpl	0, cr0, [r0], {2}
    1398:	01000002 	tsteq	r0, r2
    139c:	025c5500 	subseq	r5, ip, #0, 10
    13a0:	02680000 	rsbeq	r0, r8, #0, 0
    13a4:	00010000 	andeq	r0, r1, r0
    13a8:	0002685c 	andeq	r6, r2, ip, asr r8
    13ac:	00027400 	andeq	r7, r2, r0, lsl #8
    13b0:	75001900 	strvc	r1, [r0, #-2304]	; 0xfffff700
    13b4:	f72cf700 			; <UNDEFINED> instruction: 0xf72cf700
    13b8:	f7007625 			; <UNDEFINED> instruction: 0xf7007625
    13bc:	1e25f72c 	cdpne	7, 2, cr15, cr5, cr12, {1}
    13c0:	25f72008 	ldrbcs	r2, [r7, #8]!
    13c4:	f72cf725 			; <UNDEFINED> instruction: 0xf72cf725
    13c8:	9f253300 	svcls	0x00253300
    13cc:	00000274 	andeq	r0, r0, r4, ror r2
    13d0:	00000288 	andeq	r0, r0, r8, lsl #5
    13d4:	88520001 	ldmdahi	r2, {r0}^
    13d8:	a0000002 	andge	r0, r0, r2
    13dc:	01000002 	tsteq	r0, r2
    13e0:	02cc5c00 	sbceq	r5, ip, #0, 24
    13e4:	02d00000 	sbcseq	r0, r0, #0, 0
    13e8:	00010000 	andeq	r0, r1, r0
    13ec:	0002d052 	andeq	sp, r2, r2, asr r0
    13f0:	0002e700 	andeq	lr, r2, r0, lsl #14
    13f4:	5c000100 	stfpls	f0, [r0], {-0}
    13f8:	000002e7 	andeq	r0, r0, r7, ror #5
    13fc:	000002ec 	andeq	r0, r0, ip, ror #5
    1400:	01f30004 	mvnseq	r0, r4
    1404:	02ec9f52 	rsceq	r9, ip, #328	; 0x148
    1408:	03000000 	movweq	r0, #0
    140c:	00010000 	andeq	r0, r1, r0
    1410:	00030052 	andeq	r0, r3, r2, asr r0
    1414:	00032800 	andeq	r2, r3, r0, lsl #16
    1418:	5c000100 	stfpls	f0, [r0], {-0}
	...
    1424:	00040004 	andeq	r0, r4, r4
    1428:	00000100 	andeq	r0, r0, r0, lsl #2
    142c:	00a40004 	adceq	r0, r4, r4
    1430:	00b00000 	adcseq	r0, r0, r0
    1434:	00010000 	andeq	r0, r1, r0
    1438:	00027c53 	andeq	r7, r2, r3, asr ip
    143c:	00029000 	andeq	r9, r2, r0
    1440:	53000100 	movwpl	r0, #256	; 0x100
    1444:	00000290 	muleq	r0, r0, r2
    1448:	0000029c 	muleq	r0, ip, r2
    144c:	01f30004 	mvnseq	r0, r4
    1450:	02c09f53 	sbceq	r9, r0, #332	; 0x14c
    1454:	02cc0000 	sbceq	r0, ip, #0, 0
    1458:	00010000 	andeq	r0, r1, r0
    145c:	0002f053 	andeq	pc, r2, r3, asr r0	; <UNPREDICTABLE>
    1460:	00032800 	andeq	r2, r3, r0, lsl #16
    1464:	08000300 	stmdaeq	r0, {r8, r9}
    1468:	00009f7f 	andeq	r9, r0, pc, ror pc
    146c:	00000000 	andeq	r0, r0, r0
    1470:	00040000 	andeq	r0, r4, r0
    1474:	00040100 	andeq	r0, r4, r0, lsl #2
    1478:	00000100 	andeq	r0, r0, r0, lsl #2
    147c:	00040000 	andeq	r0, r4, r0
    1480:	00a40000 	adceq	r0, r4, r0
    1484:	00b00000 	adcseq	r0, r0, r0
    1488:	00010000 	andeq	r0, r1, r0
    148c:	0000b052 	andeq	fp, r0, r2, asr r0
    1490:	00015c00 	andeq	r5, r1, r0, lsl #24
    1494:	91000400 	tstls	r0, r0, lsl #8
    1498:	7c9f7fa0 	ldcvc	15, cr7, [pc], {160}	; 0xa0
    149c:	94000002 	strls	r0, [r0], #-2
    14a0:	04000002 	streq	r0, [r0], #-2
    14a4:	7fa09100 	svcvc	0x00a09100
    14a8:	0002949f 	muleq	r2, pc, r4	; <UNPREDICTABLE>
    14ac:	00029c00 	andeq	r9, r2, r0, lsl #24
    14b0:	5e000100 	adfpls	f0, f0, f0
    14b4:	000002b4 			; <UNDEFINED> instruction: 0x000002b4
    14b8:	000002c0 	andeq	r0, r0, r0, asr #5
    14bc:	a0910004 	addsge	r0, r1, r4
    14c0:	02c09f7f 	sbceq	r9, r0, #508	; 0x1fc
    14c4:	02cc0000 	sbceq	r0, ip, #0, 0
    14c8:	00010000 	andeq	r0, r1, r0
    14cc:	0002f052 	andeq	pc, r2, r2, asr r0	; <UNPREDICTABLE>
    14d0:	00030000 	andeq	r0, r3, r0
    14d4:	91000400 	tstls	r0, r0, lsl #8
    14d8:	009f7fa0 	addseq	r7, pc, r0, lsr #31
    14dc:	28000003 	stmdacs	r0, {r0, r1}
    14e0:	01000003 	tsteq	r0, r3
    14e4:	00005200 	andeq	r5, r0, r0, lsl #4
    14e8:	00000000 	andeq	r0, r0, r0
    14ec:	00040000 	andeq	r0, r4, r0
    14f0:	01010100 	mrseq	r0, (UNDEF: 17)
    14f4:	02030301 	andeq	r0, r3, #67108864	; 0x4000000
    14f8:	00000104 	andeq	r0, r0, r4, lsl #2
    14fc:	00040000 	andeq	r0, r4, r0
    1500:	00a40000 	adceq	r0, r4, r0
    1504:	00b00000 	adcseq	r0, r0, r0
    1508:	00010000 	andeq	r0, r1, r0
    150c:	00010c5e 	andeq	r0, r1, lr, asr ip
    1510:	00010c00 	andeq	r0, r1, r0, lsl #24
    1514:	55000100 	strpl	r0, [r0, #-256]	; 0xffffff00
    1518:	0000010c 	andeq	r0, r0, ip, lsl #2
    151c:	00000120 	andeq	r0, r0, r0, lsr #2
    1520:	01750003 	cmneq	r5, r3
    1524:	0001209f 	muleq	r1, pc, r0	; <UNPREDICTABLE>
    1528:	00012c00 	andeq	r2, r1, r0, lsl #24
    152c:	75000300 	strvc	r0, [r0, #-768]	; 0xfffffd00
    1530:	012c9f02 			; <UNDEFINED> instruction: 0x012c9f02
    1534:	01300000 	teqeq	r0, r0
    1538:	00030000 	andeq	r0, r3, r0
    153c:	7c9f0375 	ldcvc	3, cr0, [pc], {117}	; 0x75
    1540:	9c000002 	stcls	0, cr0, [r0], {2}
    1544:	04000002 	streq	r0, [r0], #-2
    1548:	7fa19100 	svcvc	0x00a19100
    154c:	0002c09f 	muleq	r2, pc, r0	; <UNPREDICTABLE>
    1550:	0002c800 	andeq	ip, r2, r0, lsl #16
    1554:	5e000100 	adfpls	f0, f0, f0
    1558:	000002c8 	andeq	r0, r0, r8, asr #5
    155c:	000002cc 	andeq	r0, r0, ip, asr #5
    1560:	f0560001 			; <UNDEFINED> instruction: 0xf0560001
    1564:	fc000002 	stc2	0, cr0, [r0], {2}
    1568:	04000002 	streq	r0, [r0], #-2
    156c:	7fa19100 	svcvc	0x00a19100
    1570:	0002fc9f 	muleq	r2, pc, ip	; <UNPREDICTABLE>
    1574:	00032800 	andeq	r2, r3, r0, lsl #16
    1578:	5e000100 	adfpls	f0, f0, f0
	...
    1584:	01000000 	mrseq	r0, (UNDEF: 0)
    1588:	01010101 	tsteq	r1, r1, lsl #2
    158c:	01060201 	tsteq	r6, r1, lsl #4
    1590:	00060000 	andeq	r0, r6, r0
    1594:	000000a8 	andeq	r0, r0, r8, lsr #1
    1598:	000000b0 	strheq	r0, [r0], -r0	; <UNPREDICTABLE>
    159c:	0c510001 	mrrceq	0, 0, r0, r1, cr1
    15a0:	1c000001 	stcne	0, cr0, [r0], {1}
    15a4:	01000001 	tsteq	r0, r1
    15a8:	011c5c00 	tsteq	ip, r0, lsl #24
    15ac:	012c0000 			; <UNDEFINED> instruction: 0x012c0000
    15b0:	00010000 	andeq	r0, r1, r0
    15b4:	00012c58 	andeq	r2, r1, r8, asr ip
    15b8:	00013000 	andeq	r3, r1, r0
    15bc:	5c000100 	stfpls	f0, [r0], {-0}
    15c0:	00000130 	andeq	r0, r0, r0, lsr r1
    15c4:	00000130 	andeq	r0, r0, r0, lsr r1
    15c8:	017c0003 	cmneq	ip, r3
    15cc:	00027c9f 	muleq	r2, pc, ip	; <UNPREDICTABLE>
    15d0:	00029c00 	andeq	r9, r2, r0, lsl #24
    15d4:	31000200 	mrscc	r0, R8_usr
    15d8:	0002c09f 	muleq	r2, pc, r0	; <UNPREDICTABLE>
    15dc:	0002cc00 	andeq	ip, r2, r0, lsl #24
    15e0:	51000100 	mrspl	r0, (UNDEF: 16)
    15e4:	000002f0 	strdeq	r0, [r0], -r0	; <UNPREDICTABLE>
    15e8:	00000328 	andeq	r0, r0, r8, lsr #6
    15ec:	9f310002 	svcls	0x00310002
	...
    15f8:	01060601 	tsteq	r6, r1, lsl #12
    15fc:	01000001 	tsteq	r0, r1
    1600:	0000015c 	andeq	r0, r0, ip, asr r1
    1604:	0000015c 	andeq	r0, r0, ip, asr r1
    1608:	a0910004 	addsge	r0, r1, r4
    160c:	015c9f7f 	cmpeq	ip, pc, ror pc
    1610:	018c0000 	orreq	r0, ip, r0
    1614:	00010000 	andeq	r0, r1, r0
    1618:	00029c52 	andeq	r9, r2, r2, asr ip
    161c:	0002a000 	andeq	sl, r2, r0
    1620:	5e000100 	adfpls	f0, f0, f0
    1624:	000002a0 	andeq	r0, r0, r0, lsr #5
    1628:	000002ac 	andeq	r0, r0, ip, lsr #5
    162c:	00520001 	subseq	r0, r2, r1
	...
    1638:	01010000 	mrseq	r0, (UNDEF: 1)
    163c:	6c070100 	stfvss	f0, [r7], {-0}
    1640:	70000001 	andvc	r0, r0, r1
    1644:	03000001 	movweq	r0, #1
    1648:	9f7f7300 	svcls	0x007f7300
    164c:	00000170 	andeq	r0, r0, r0, ror r1
    1650:	00000178 	andeq	r0, r0, r8, ror r1
    1654:	78530001 	ldmdavc	r3, {r0}^
    1658:	84000001 	strhi	r0, [r0], #-1
    165c:	03000001 	movweq	r0, #1
    1660:	9f7f7300 	svcls	0x007f7300
    1664:	0000029c 	muleq	r0, ip, r2
    1668:	0000029c 	muleq	r0, ip, r2
    166c:	a1910004 	orrsge	r0, r1, r4
    1670:	00009f7f 	andeq	r9, r0, pc, ror pc
    1674:	00000000 	andeq	r0, r0, r0
    1678:	01010000 	mrseq	r0, (UNDEF: 1)
    167c:	015c0101 	cmpeq	ip, r1, lsl #2
    1680:	018c0000 	orreq	r0, ip, r0
    1684:	00030000 	andeq	r0, r3, r0
    1688:	9c9f8008 	ldcls	0, cr8, [pc], {8}
    168c:	ac000002 	stcge	0, cr0, [r0], {2}
    1690:	03000002 	movweq	r0, #2
    1694:	9f800800 	svcls	0x00800800
	...
    16a0:	01000001 	tsteq	r0, r1
    16a4:	01000001 	tsteq	r0, r1
    16a8:	01010101 	tsteq	r1, r1, lsl #2
    16ac:	015c0101 	cmpeq	ip, r1, lsl #2
    16b0:	016c0000 	cmneq	ip, r0
    16b4:	00010000 	andeq	r0, r1, r0
    16b8:	00016c50 	andeq	r6, r1, r0, asr ip
    16bc:	00016c00 	andeq	r6, r1, r0, lsl #24
    16c0:	7c000300 	stcvc	3, cr0, [r0], {-0}
    16c4:	016c9f01 	cmneq	ip, r1, lsl #30
    16c8:	01780000 	cmneq	r8, r0
    16cc:	00030000 	andeq	r0, r3, r0
    16d0:	789f027c 	ldmvc	pc, {r2, r3, r4, r5, r6, r9}	; <UNPREDICTABLE>
    16d4:	88000001 	stmdahi	r0, {r0}
    16d8:	03000001 	movweq	r0, #1
    16dc:	9f017c00 	svcls	0x00017c00
    16e0:	00000188 	andeq	r0, r0, r8, lsl #3
    16e4:	0000018c 	andeq	r0, r0, ip, lsl #3
    16e8:	017e0003 	cmneq	lr, r3
    16ec:	00029c9f 	muleq	r2, pc, ip	; <UNPREDICTABLE>
    16f0:	0002a400 	andeq	sl, r2, r0, lsl #8
    16f4:	50000100 	andpl	r0, r0, r0, lsl #2
    16f8:	000002a4 	andeq	r0, r0, r4, lsr #5
    16fc:	000002ac 	andeq	r0, r0, ip, lsr #5
    1700:	017e0003 	cmneq	lr, r3
    1704:	0000009f 	muleq	r0, pc, r0	; <UNPREDICTABLE>
    1708:	00000000 	andeq	r0, r0, r0
    170c:	04000400 	streq	r0, [r0], #-1024	; 0xfffffc00
    1710:	5c010000 	stcpl	0, cr0, [r1], {-0}
    1714:	60000001 	andvs	r0, r0, r1
    1718:	03000001 	movweq	r0, #1
    171c:	9f017100 	svcls	0x00017100
    1720:	0000029c 	muleq	r0, ip, r2
    1724:	000002a0 	andeq	r0, r0, r0, lsr #5
    1728:	9f320002 	svcls	0x00320002
    172c:	000002a0 	andeq	r0, r0, r0, lsr #5
    1730:	000002ac 	andeq	r0, r0, ip, lsr #5
    1734:	01710003 	cmneq	r1, r3
    1738:	0000009f 	muleq	r0, pc, r0	; <UNPREDICTABLE>
    173c:	00000000 	andeq	r0, r0, r0
    1740:	06000700 	streq	r0, [r0], -r0, lsl #14
    1744:	00015c00 	andeq	r5, r1, r0, lsl #24
    1748:	00019400 	andeq	r9, r1, r0, lsl #8
    174c:	50000100 	andpl	r0, r0, r0, lsl #2
    1750:	0000029c 	muleq	r0, ip, r2
    1754:	000002b4 			; <UNDEFINED> instruction: 0x000002b4
    1758:	00500001 	subseq	r0, r0, r1
    175c:	00000000 	andeq	r0, r0, r0
    1760:	01000000 	mrseq	r0, (UNDEF: 0)
    1764:	14000101 	strne	r0, [r0], #-257	; 0xfffffeff
    1768:	20000002 	andcs	r0, r0, r2
    176c:	02000002 	andeq	r0, r0, #2, 0
    1770:	209f3000 	addscs	r3, pc, r0
    1774:	34000002 	strcc	r0, [r0], #-2
    1778:	02000002 	andeq	r0, r0, #2, 0
    177c:	009f3100 	addseq	r3, pc, r0, lsl #2
	...
    1788:	02020101 	andeq	r0, r2, #1073741824	; 0x40000000
    178c:	00000000 	andeq	r0, r0, r0
    1790:	0000008c 	andeq	r0, r0, ip, lsl #1
    1794:	0100008c 	smlabbeq	r0, ip, r0, r0
    1798:	8c005300 	stchi	3, cr5, [r0], {-0}
    179c:	8c000000 	stchi	0, cr0, [r0], {-0}
    17a0:	00070000 	andeq	r0, r7, r0
    17a4:	ff0b0073 			; <UNDEFINED> instruction: 0xff0b0073
    17a8:	009f1aef 	addseq	r1, pc, pc, ror #21
    17ac:	0400008c 	streq	r0, [r0], #-140	; 0xffffff74
    17b0:	0700008c 	streq	r0, [r0, -ip, lsl #1]
    17b4:	0b007300 	bleq	1e3bc <__bss_end__+0x14974>
    17b8:	9f1ae7ff 	svcls	0x001ae7ff
    17bc:	00008c04 	andeq	r8, r0, r4, lsl #24
    17c0:	00008c0c 	andeq	r8, r0, ip, lsl #24
    17c4:	00530001 	subseq	r0, r3, r1
	...
    17d0:	02020101 	andeq	r0, r2, #1073741824	; 0x40000000
    17d4:	f0000000 			; <UNDEFINED> instruction: 0xf0000000
    17d8:	f000008b 			; <UNDEFINED> instruction: 0xf000008b
    17dc:	0100008b 	smlabbeq	r0, fp, r0, r0
    17e0:	8bf05300 	blhi	ffc163e8 <__bss_end__+0xffc0c9a0>
    17e4:	8bf00000 	blhi	ffc017ec <__bss_end__+0xffbf7da4>
    17e8:	00070000 	andeq	r0, r7, r0
    17ec:	000a0073 	andeq	r0, sl, r3, ror r0
    17f0:	f09f2110 			; <UNDEFINED> instruction: 0xf09f2110
    17f4:	f400008b 	vst4.32	{d0-d3}, [r0], fp
    17f8:	0700008b 	streq	r0, [r0, -fp, lsl #1]
    17fc:	0a007300 	beq	1e404 <__bss_end__+0x149bc>
    1800:	9f211800 	svcls	0x00211800
    1804:	00008bf4 	strdeq	r8, [r0], -r4
    1808:	00008bfc 	strdeq	r8, [r0], -ip
    180c:	00530001 	subseq	r0, r3, r1
	...
    1818:	00000101 	andeq	r0, r0, r1, lsl #2
    181c:	00000101 	andeq	r0, r0, r1, lsl #2
    1820:	00000101 	andeq	r0, r0, r1, lsl #2
    1824:	00000101 	andeq	r0, r0, r1, lsl #2
    1828:	00000101 	andeq	r0, r0, r1, lsl #2
    182c:	80010202 	andhi	r0, r1, r2, lsl #4
    1830:	80000000 	andhi	r0, r0, r0
    1834:	01000000 	mrseq	r0, (UNDEF: 0)
    1838:	00805300 	addeq	r5, r0, r0, lsl #6
    183c:	008c0000 	addeq	r0, ip, r0
    1840:	00030000 	andeq	r0, r3, r0
    1844:	8c9f0473 	cfldrshi	mvf0, [pc], {115}	; 0x73
    1848:	94000000 	strls	r0, [r0], #-0
    184c:	01000000 	mrseq	r0, (UNDEF: 0)
    1850:	00945100 	addseq	r5, r4, r0, lsl #2
    1854:	00980000 	addseq	r0, r8, r0
    1858:	00030000 	andeq	r0, r3, r0
    185c:	989f0873 	ldmls	pc, {r0, r1, r4, r5, r6, fp}	; <UNPREDICTABLE>
    1860:	a4000000 	strge	r0, [r0], #-0
    1864:	01000000 	mrseq	r0, (UNDEF: 0)
    1868:	00a45100 	adceq	r5, r4, r0, lsl #2
    186c:	00a80000 	adceq	r0, r8, r0
    1870:	00030000 	andeq	r0, r3, r0
    1874:	a89f0c73 	ldmge	pc, {r0, r1, r4, r5, r6, sl, fp}	; <UNPREDICTABLE>
    1878:	b4000000 	strlt	r0, [r0], #-0
    187c:	01000000 	mrseq	r0, (UNDEF: 0)
    1880:	00b45100 	adcseq	r5, r4, r0, lsl #2
    1884:	00b80000 	adcseq	r0, r8, r0
    1888:	00030000 	andeq	r0, r3, r0
    188c:	b89f1073 	ldmlt	pc, {r0, r1, r4, r5, r6, ip}	; <UNPREDICTABLE>
    1890:	c4000000 	strgt	r0, [r0], #-0
    1894:	01000000 	mrseq	r0, (UNDEF: 0)
    1898:	00c45100 	sbceq	r5, r4, r0, lsl #2
    189c:	00c80000 	sbceq	r0, r8, r0
    18a0:	00030000 	andeq	r0, r3, r0
    18a4:	c89f1473 	ldmgt	pc, {r0, r1, r4, r5, r6, sl, ip}	; <UNPREDICTABLE>
    18a8:	d0000000 	andle	r0, r0, r0
    18ac:	01000000 	mrseq	r0, (UNDEF: 0)
    18b0:	00d05100 	sbcseq	r5, r0, r0, lsl #2
    18b4:	00d40000 	sbcseq	r0, r4, r0
    18b8:	00030000 	andeq	r0, r3, r0
    18bc:	009f0471 	addseq	r0, pc, r1, ror r4	; <UNPREDICTABLE>
    18c0:	00000000 	andeq	r0, r0, r0
    18c4:	02000000 	andeq	r0, r0, #0, 0
    18c8:	0000d800 	andeq	sp, r0, r0, lsl #16
    18cc:	0000e800 	andeq	lr, r0, r0, lsl #16
    18d0:	31000200 	mrscc	r0, R8_usr
    18d4:	0000009f 	muleq	r0, pc, r0	; <UNPREDICTABLE>
    18d8:	00000000 	andeq	r0, r0, r0
    18dc:	00000400 	andeq	r0, r0, r0, lsl #8
    18e0:	008d6001 	addeq	r6, sp, r1
    18e4:	008d6800 	addeq	r6, sp, r0, lsl #16
    18e8:	30000200 	andcc	r0, r0, r0, lsl #4
    18ec:	008d689f 	umulleq	r6, sp, pc, r8	; <UNPREDICTABLE>
    18f0:	008d6800 	addeq	r6, sp, r0, lsl #16
    18f4:	53000100 	movwpl	r0, #256	; 0x100
	...
    1900:	00000003 	andeq	r0, r0, r3
    1904:	00000000 	andeq	r0, r0, r0
    1908:	00008d74 	andeq	r8, r0, r4, ror sp
    190c:	00008d78 	andeq	r8, r0, r8, ror sp
    1910:	9f300002 	svcls	0x00300002
    1914:	00008d78 	andeq	r8, r0, r8, ror sp
    1918:	00008d7c 	andeq	r8, r0, ip, ror sp
    191c:	7c530001 	mrrcvc	0, 0, r0, r3, cr1
    1920:	8000008d 	andhi	r0, r0, sp, lsl #1
    1924:	0500008d 	streq	r0, [r0, #-141]	; 0xffffff73
    1928:	40007300 	andmi	r7, r0, r0, lsl #6
    192c:	8d809f21 	stchi	15, cr9, [r0, #132]	; 0x84
    1930:	8d840000 	stchi	0, cr0, [r4]
    1934:	00010000 	andeq	r0, r1, r0
    1938:	00000053 	andeq	r0, r0, r3, asr r0
    193c:	00000000 	andeq	r0, r0, r0
    1940:	00000200 	andeq	r0, r0, r0, lsl #4
    1944:	008d3400 	addeq	r3, sp, r0, lsl #8
    1948:	008d3800 	addeq	r3, sp, r0, lsl #16
    194c:	30000200 	andcc	r0, r0, r0, lsl #4
    1950:	008d389f 	umulleq	r3, sp, pc, r8	; <UNPREDICTABLE>
    1954:	008d3c00 	addeq	r3, sp, r0, lsl #24
    1958:	50000100 	andpl	r0, r0, r0, lsl #2
	...
    1964:	00000002 	andeq	r0, r0, r2
    1968:	00000000 	andeq	r0, r0, r0
    196c:	00008d4c 	andeq	r8, r0, ip, asr #26
    1970:	00008d50 	andeq	r8, r0, r0, asr sp
    1974:	9f300002 	svcls	0x00300002
    1978:	00008d50 	andeq	r8, r0, r0, asr sp
    197c:	00008d54 	andeq	r8, r0, r4, asr sp
    1980:	54530001 	ldrbpl	r0, [r3], #-1
    1984:	5800008d 	stmdapl	r0, {r0, r2, r3, r7}
    1988:	0500008d 	streq	r0, [r0, #-141]	; 0xffffff73
    198c:	40007300 	andmi	r7, r0, r0, lsl #6
    1990:	8d589f21 	ldclhi	15, cr9, [r8, #-132]	; 0xffffff7c
    1994:	8d600000 	stclhi	0, cr0, [r0, #-0]
    1998:	00010000 	andeq	r0, r1, r0
    199c:	00000053 	andeq	r0, r0, r3, asr r0
	...
    19a8:	0000c800 	andeq	ip, r0, r0, lsl #16
    19ac:	0000d800 	andeq	sp, r0, r0, lsl #16
    19b0:	50000100 	andpl	r0, r0, r0, lsl #2
    19b4:	000000d8 	ldrdeq	r0, [r0], -r8
    19b8:	0000011c 	andeq	r0, r0, ip, lsl r1
    19bc:	01f30004 	mvnseq	r0, r4
    19c0:	00009f50 	andeq	r9, r0, r0, asr pc
    19c4:	00000000 	andeq	r0, r0, r0
    19c8:	00020000 	andeq	r0, r2, r0
    19cc:	00c80000 	sbceq	r0, r8, r0
    19d0:	00d80000 	sbcseq	r0, r8, r0
    19d4:	00070000 	andeq	r0, r7, r0
    19d8:	e80a0070 	stmda	sl, {r4, r5, r6}
    19dc:	d89f1e03 	ldmle	pc, {r0, r1, r9, sl, fp, ip}	; <UNPREDICTABLE>
    19e0:	1c000000 	stcne	0, cr0, [r0], {-0}
    19e4:	08000001 	stmdaeq	r0, {r0}
    19e8:	5001f300 	andpl	pc, r1, r0, lsl #6
    19ec:	1e03e80a 	cdpne	8, 0, cr14, cr3, cr10, {0}
    19f0:	0000009f 	muleq	r0, pc, r0	; <UNPREDICTABLE>
    19f4:	00000000 	andeq	r0, r0, r0
    19f8:	dc000000 	stcle	0, cr0, [r0], {-0}
    19fc:	1c000000 	stcne	0, cr0, [r0], {-0}
    1a00:	01000001 	tsteq	r0, r1
    1a04:	00005400 	andeq	r5, r0, r0, lsl #8
    1a08:	00000000 	andeq	r0, r0, r0
    1a0c:	00010000 	andeq	r0, r1, r0
    1a10:	000000f0 	strdeq	r0, [r0], -r0	; <UNPREDICTABLE>
    1a14:	0000011c 	andeq	r0, r0, ip, lsl r1
    1a18:	00560001 	subseq	r0, r6, r1
	...
    1a24:	ec000000 	stc	0, cr0, [r0], {-0}
    1a28:	ef000000 	svc	0x00000000
    1a2c:	01000000 	mrseq	r0, (UNDEF: 0)
    1a30:	00ef5000 	rsceq	r5, pc, r0
    1a34:	011c0000 	tsteq	ip, r0
    1a38:	00010000 	andeq	r0, r1, r0
    1a3c:	00000056 	andeq	r0, r0, r6, asr r0
    1a40:	00000000 	andeq	r0, r0, r0
    1a44:	04000000 	streq	r0, [r0], #-0
    1a48:	0b000001 	bleq	1a54 <__code_start__-0x65ac>
    1a4c:	01000001 	tsteq	r0, r1
    1a50:	00005000 	andeq	r5, r0, r0
	...
    1a5c:	00200000 	eoreq	r0, r0, r0
    1a60:	00230000 	eoreq	r0, r3, r0
    1a64:	00010000 	andeq	r0, r1, r0
    1a68:	00002350 	andeq	r2, r0, r0, asr r3
    1a6c:	00003000 	andeq	r3, r0, r0
    1a70:	54000100 	strpl	r0, [r0], #-256	; 0xffffff00
	...
    1a80:	00000030 	andeq	r0, r0, r0, lsr r0
    1a84:	0000003b 	andeq	r0, r0, fp, lsr r0
    1a88:	3b500001 	blcc	1401a94 <__bss_end__+0x13f804c>
    1a8c:	78000000 	stmdavc	r0, {}	; <UNPREDICTABLE>
    1a90:	01000000 	mrseq	r0, (UNDEF: 0)
    1a94:	00005600 	andeq	r5, r0, r0, lsl #12
    1a98:	00000000 	andeq	r0, r0, r0
    1a9c:	00010000 	andeq	r0, r1, r0
    1aa0:	0000004c 	andeq	r0, r0, ip, asr #32
    1aa4:	00000078 	andeq	r0, r0, r8, ror r0
    1aa8:	00550001 	subseq	r0, r5, r1
	...
    1ab4:	48000000 	stmdami	r0, {}	; <UNPREDICTABLE>
    1ab8:	4b000000 	blmi	1ac0 <__code_start__-0x6540>
    1abc:	01000000 	mrseq	r0, (UNDEF: 0)
    1ac0:	004b5000 	subeq	r5, fp, r0
    1ac4:	00780000 	rsbseq	r0, r8, r0
    1ac8:	00010000 	andeq	r0, r1, r0
    1acc:	00000055 	andeq	r0, r0, r5, asr r0
    1ad0:	00000000 	andeq	r0, r0, r0
    1ad4:	60000000 	andvs	r0, r0, r0
    1ad8:	67000000 	strvs	r0, [r0, -r0]
    1adc:	01000000 	mrseq	r0, (UNDEF: 0)
    1ae0:	00005000 	andeq	r5, r0, r0
	...
    1aec:	00780000 	rsbseq	r0, r8, r0
    1af0:	00840000 	addeq	r0, r4, r0
    1af4:	00010000 	andeq	r0, r1, r0
    1af8:	00008450 	andeq	r8, r0, r0, asr r4
    1afc:	0000c800 	andeq	ip, r0, r0, lsl #16
    1b00:	f3000400 	vshl.u8	d0, d0, d0
    1b04:	009f5001 	addseq	r5, pc, r1
	...
    1b10:	00008800 	andeq	r8, r0, r0, lsl #16
    1b14:	0000c800 	andeq	ip, r0, r0, lsl #16
    1b18:	54000100 	strpl	r0, [r0], #-256	; 0xffffff00
	...
    1b24:	009c0001 	addseq	r0, ip, r1
    1b28:	00c80000 	sbceq	r0, r8, r0
    1b2c:	00010000 	andeq	r0, r1, r0
    1b30:	00000056 	andeq	r0, r0, r6, asr r0
	...
    1b3c:	00009800 	andeq	r9, r0, r0, lsl #16
    1b40:	00009b00 	andeq	r9, r0, r0, lsl #22
    1b44:	50000100 	andpl	r0, r0, r0, lsl #2
    1b48:	0000009b 	muleq	r0, fp, r0
    1b4c:	000000c8 	andeq	r0, r0, r8, asr #1
    1b50:	00560001 	subseq	r0, r6, r1
	...
    1b5c:	0000b000 	andeq	fp, r0, r0
    1b60:	0000b700 	andeq	fp, r0, r0, lsl #14
    1b64:	50000100 	andpl	r0, r0, r0, lsl #2
	...
    1b74:	00000158 	andeq	r0, r0, r8, asr r1
    1b78:	00000163 	andeq	r0, r0, r3, ror #2
    1b7c:	63500001 	cmpvs	r0, #1, 0
    1b80:	88000001 	stmdahi	r0, {r0}
    1b84:	01000001 	tsteq	r0, r1
    1b88:	00005400 	andeq	r5, r0, r0, lsl #8
	...
    1b94:	00000148 	andeq	r0, r0, r8, asr #2
    1b98:	00000158 	andeq	r0, r0, r8, asr r1
    1b9c:	00540001 	subseq	r0, r4, r1
	...
    1bac:	0f000000 	svceq	0x00000000
    1bb0:	01000000 	mrseq	r0, (UNDEF: 0)
    1bb4:	000f5000 	andeq	r5, pc, r0
    1bb8:	00200000 	eoreq	r0, r0, r0
    1bbc:	00010000 	andeq	r0, r1, r0
    1bc0:	00000054 	andeq	r0, r0, r4, asr r0
	...
    1bd0:	00000f00 	andeq	r0, r0, r0, lsl #30
    1bd4:	51000100 	mrspl	r0, (UNDEF: 16)
    1bd8:	0000000f 	andeq	r0, r0, pc
    1bdc:	00000020 	andeq	r0, r0, r0, lsr #32
    1be0:	00550001 	subseq	r0, r5, r1
	...
    1bec:	20000000 	andcs	r0, r0, r0
    1bf0:	2f000000 	svccs	0x00000000
    1bf4:	01000000 	mrseq	r0, (UNDEF: 0)
    1bf8:	002f5000 	eoreq	r5, pc, r0
    1bfc:	00400000 	subeq	r0, r0, r0
    1c00:	00010000 	andeq	r0, r1, r0
    1c04:	00000054 	andeq	r0, r0, r4, asr r0
	...
    1c10:	00002000 	andeq	r2, r0, r0
    1c14:	00002f00 	andeq	r2, r0, r0, lsl #30
    1c18:	51000100 	mrspl	r0, (UNDEF: 16)
    1c1c:	0000002f 	andeq	r0, r0, pc, lsr #32
    1c20:	00000040 	andeq	r0, r0, r0, asr #32
    1c24:	00550001 	subseq	r0, r5, r1
	...
    1c34:	18000000 	stmdane	r0, {}	; <UNPREDICTABLE>
    1c38:	01000000 	mrseq	r0, (UNDEF: 0)
    1c3c:	00185100 	andseq	r5, r8, r0, lsl #2
    1c40:	002c0000 	eoreq	r0, ip, r0
    1c44:	00040000 	andeq	r0, r4, r0
    1c48:	9f5101f3 	svcls	0x005101f3
	...
    1c54:	00000002 	andeq	r0, r0, r2
    1c58:	00000000 	andeq	r0, r0, r0
    1c5c:	00010100 	andeq	r0, r1, r0, lsl #2
    1c60:	00000000 	andeq	r0, r0, r0
    1c64:	00040000 	andeq	r0, r4, r0
    1c68:	00010000 	andeq	r0, r1, r0
    1c6c:	00000450 	andeq	r0, r0, r0, asr r4
    1c70:	00000800 	andeq	r0, r0, r0, lsl #16
    1c74:	52000100 	andpl	r0, r0, #0
    1c78:	00000008 	andeq	r0, r0, r8
    1c7c:	0000000c 	andeq	r0, r0, ip
    1c80:	01720003 	cmneq	r2, r3
    1c84:	00000c9f 	muleq	r0, pc, ip	; <UNPREDICTABLE>
    1c88:	00001800 	andeq	r1, r0, r0, lsl #16
    1c8c:	52000100 	andpl	r0, r0, #0
    1c90:	00000018 	andeq	r0, r0, r8, lsl r0
    1c94:	0000001c 	andeq	r0, r0, ip, lsl r0
    1c98:	1c530001 	mrrcne	0, 0, r0, r3, cr1
    1c9c:	24000000 	strcs	r0, [r0], #-0
    1ca0:	03000000 	movweq	r0, #0
    1ca4:	9f017300 	svcls	0x00017300
    1ca8:	00000024 	andeq	r0, r0, r4, lsr #32
    1cac:	0000002c 	andeq	r0, r0, ip, lsr #32
    1cb0:	00530001 	subseq	r0, r3, r1
    1cb4:	00000000 	andeq	r0, r0, r0
    1cb8:	03000000 	movweq	r0, #0
    1cbc:	00000202 	andeq	r0, r0, r2, lsl #4
    1cc0:	00000000 	andeq	r0, r0, r0
    1cc4:	00001800 	andeq	r1, r0, r0, lsl #16
    1cc8:	51000100 	mrspl	r0, (UNDEF: 16)
    1ccc:	00000018 	andeq	r0, r0, r8, lsl r0
    1cd0:	0000001c 	andeq	r0, r0, ip, lsl r0
    1cd4:	01710003 	cmneq	r1, r3
    1cd8:	00001c9f 	muleq	r0, pc, ip	; <UNPREDICTABLE>
    1cdc:	00002c00 	andeq	r2, r0, r0, lsl #24
    1ce0:	51000100 	mrspl	r0, (UNDEF: 16)
	...
    1cf0:	00080000 	andeq	r0, r8, r0
    1cf4:	000c0000 	andeq	r0, ip, r0
    1cf8:	00020000 	andeq	r0, r2, r0
    1cfc:	000c0072 	andeq	r0, ip, r2, ror r0
    1d00:	00180000 	andseq	r0, r8, r0
    1d04:	00020000 	andeq	r0, r2, r0
    1d08:	001c0073 	andseq	r0, ip, r3, ror r0
    1d0c:	002c0000 	eoreq	r0, ip, r0
    1d10:	00010000 	andeq	r0, r1, r0
    1d14:	00000052 	andeq	r0, r0, r2, asr r0
	...
    1d2c:	00001400 	andeq	r1, r0, r0, lsl #8
    1d30:	50000100 	andpl	r0, r0, r0, lsl #2
    1d34:	00000014 	andeq	r0, r0, r4, lsl r0
    1d38:	00000018 	andeq	r0, r0, r8, lsl r0
    1d3c:	01700003 	cmneq	r0, r3
    1d40:	0000189f 	muleq	r0, pc, r8	; <UNPREDICTABLE>
    1d44:	00002000 	andeq	r2, r0, r0
    1d48:	50000100 	andpl	r0, r0, r0, lsl #2
    1d4c:	00000024 	andeq	r0, r0, r4, lsr #32
    1d50:	00000028 	andeq	r0, r0, r8, lsr #32
    1d54:	28500001 	ldmdacs	r0, {r0}^
    1d58:	30000000 	andcc	r0, r0, r0
    1d5c:	03000000 	movweq	r0, #0
    1d60:	9f017000 	svcls	0x00017000
    1d64:	00000038 	andeq	r0, r0, r8, lsr r0
    1d68:	00000040 	andeq	r0, r0, r0, asr #32
    1d6c:	00500001 	subseq	r0, r0, r1
	...
    1d80:	00002400 	andeq	r2, r0, r0, lsl #8
    1d84:	51000100 	mrspl	r0, (UNDEF: 16)
    1d88:	00000024 	andeq	r0, r0, r4, lsr #32
    1d8c:	00000028 	andeq	r0, r0, r8, lsr #32
    1d90:	285c0001 	ldmdacs	ip, {r0}^
    1d94:	44000000 	strmi	r0, [r0], #-0
    1d98:	01000000 	mrseq	r0, (UNDEF: 0)
    1d9c:	00005100 	andeq	r5, r0, r0, lsl #2
    1da0:	00000000 	andeq	r0, r0, r0
    1da4:	02000000 	andeq	r0, r0, #0, 0
    1da8:	00000002 	andeq	r0, r0, r2
    1dac:	00000000 	andeq	r0, r0, r0
    1db0:	00000004 	andeq	r0, r0, r4
    1db4:	04510001 	ldrbeq	r0, [r1], #-1
    1db8:	08000000 	stmdaeq	r0, {}	; <UNPREDICTABLE>
    1dbc:	03000000 	movweq	r0, #0
    1dc0:	9f017100 	svcls	0x00017100
    1dc4:	00000008 	andeq	r0, r0, r8
    1dc8:	00000018 	andeq	r0, r0, r8, lsl r0
    1dcc:	00510001 	subseq	r0, r1, r1
    1dd0:	00000000 	andeq	r0, r0, r0
    1dd4:	02000000 	andeq	r0, r0, #0, 0
    1dd8:	00000000 	andeq	r0, r0, r0
    1ddc:	00000400 	andeq	r0, r0, r0, lsl #8
    1de0:	50000100 	andpl	r0, r0, r0, lsl #2
	...
    1df4:	00000008 	andeq	r0, r0, r8
    1df8:	08500001 	ldmdaeq	r0, {r0}^
    1dfc:	30000000 	andcc	r0, r0, r0
    1e00:	04000000 	streq	r0, [r0], #-0
    1e04:	5001f300 	andpl	pc, r1, r0, lsl #6
    1e08:	0000009f 	muleq	r0, pc, r0	; <UNPREDICTABLE>
	...
    1e18:	00000800 	andeq	r0, r0, r0, lsl #16
    1e1c:	51000100 	mrspl	r0, (UNDEF: 16)
    1e20:	00000008 	andeq	r0, r0, r8
    1e24:	00000030 	andeq	r0, r0, r0, lsr r0
    1e28:	01f30004 	mvnseq	r0, r4
    1e2c:	00009f51 	andeq	r9, r0, r1, asr pc
	...
    1e3c:	00020201 	andeq	r0, r2, r1, lsl #4
    1e40:	00000000 	andeq	r0, r0, r0
    1e44:	00000004 	andeq	r0, r0, r4
    1e48:	04520001 	ldrbeq	r0, [r2], #-1
    1e4c:	08000000 	stmdaeq	r0, {}	; <UNPREDICTABLE>
    1e50:	04000000 	streq	r0, [r0], #-0
    1e54:	5201f300 	andpl	pc, r1, #0, 6
    1e58:	0000089f 	muleq	r0, pc, r8	; <UNPREDICTABLE>
    1e5c:	00001800 	andeq	r1, r0, r0, lsl #16
    1e60:	f3000600 	vmax.u8	d0, d0, d0
    1e64:	1c315201 	lfmne	f5, 4, [r1], #-4
    1e68:	0000189f 	muleq	r0, pc, r8	; <UNPREDICTABLE>
    1e6c:	00001800 	andeq	r1, r0, r0, lsl #16
    1e70:	f3000400 	vshl.u8	d0, d0, d0
    1e74:	189f5201 	ldmne	pc, {r0, r9, ip, lr}	; <UNPREDICTABLE>
    1e78:	30000000 	andcc	r0, r0, r0
    1e7c:	06000000 	streq	r0, [r0], -r0
    1e80:	5201f300 	andpl	pc, r1, #0, 6
    1e84:	009f1c31 	addseq	r1, pc, r1, lsr ip	; <UNPREDICTABLE>
    1e88:	00000000 	andeq	r0, r0, r0
    1e8c:	02000000 	andeq	r0, r0, #0, 0
    1e90:	01000000 	mrseq	r0, (UNDEF: 0)
    1e94:	00000000 	andeq	r0, r0, r0
    1e98:	0c000000 	stceq	0, cr0, [r0], {-0}
    1e9c:	01000000 	mrseq	r0, (UNDEF: 0)
    1ea0:	000c5000 	andeq	r5, ip, r0
    1ea4:	00180000 	andseq	r0, r8, r0
    1ea8:	00030000 	andeq	r0, r3, r0
    1eac:	189f7f70 	ldmne	pc, {r4, r5, r6, r8, r9, sl, fp, ip, sp, lr}	; <UNPREDICTABLE>
    1eb0:	24000000 	strcs	r0, [r0], #-0
    1eb4:	01000000 	mrseq	r0, (UNDEF: 0)
    1eb8:	00285000 	eoreq	r5, r8, r0
    1ebc:	002c0000 	eoreq	r0, ip, r0
    1ec0:	00030000 	andeq	r0, r3, r0
    1ec4:	009f7f70 	addseq	r7, pc, r0, ror pc	; <UNPREDICTABLE>
    1ec8:	00000000 	andeq	r0, r0, r0
    1ecc:	02000000 	andeq	r0, r0, #0, 0
	...
    1ed8:	00000c00 	andeq	r0, r0, r0, lsl #24
    1edc:	51000100 	mrspl	r0, (UNDEF: 16)
    1ee0:	0000000c 	andeq	r0, r0, ip
    1ee4:	00000010 	andeq	r0, r0, r0, lsl r0
    1ee8:	01710003 	cmneq	r1, r3
    1eec:	0000109f 	muleq	r0, pc, r0	; <UNPREDICTABLE>
    1ef0:	00003000 	andeq	r3, r0, r0
    1ef4:	51000100 	mrspl	r0, (UNDEF: 16)
	...

Disassembly of section .debug_aranges:

00000000 <.debug_aranges>:
   0:	0000001c 	andeq	r0, r0, ip, lsl r0
   4:	00000002 	andeq	r0, r0, r2
   8:	00040000 	andeq	r0, r4, r0
   c:	00000000 	andeq	r0, r0, r0
  10:	00008040 	andeq	r8, r0, r0, asr #32
  14:	0000012c 	andeq	r0, r0, ip, lsr #2
	...
  20:	0000001c 	andeq	r0, r0, ip, lsl r0
  24:	03b70002 			; <UNDEFINED> instruction: 0x03b70002
  28:	00040000 	andeq	r0, r4, r0
  2c:	00000000 	andeq	r0, r0, r0
  30:	0000816c 	andeq	r8, r0, ip, ror #2
  34:	00000058 	andeq	r0, r0, r8, asr r0
	...
  40:	0000001c 	andeq	r0, r0, ip, lsl r0
  44:	05580002 	ldrbeq	r0, [r8, #-2]
  48:	00040000 	andeq	r0, r4, r0
  4c:	00000000 	andeq	r0, r0, r0
  50:	000081c4 	andeq	r8, r0, r4, asr #3
  54:	0000003c 	andeq	r0, r0, ip, lsr r0
	...
  60:	0000001c 	andeq	r0, r0, ip, lsl r0
  64:	06a50002 	strteq	r0, [r5], r2
  68:	00040000 	andeq	r0, r4, r0
  6c:	00000000 	andeq	r0, r0, r0
  70:	00008200 	andeq	r8, r0, r0, lsl #4
  74:	00000038 	andeq	r0, r0, r8, lsr r0
	...
  80:	0000001c 	andeq	r0, r0, ip, lsl r0
  84:	079c0002 	ldreq	r0, [ip, r2]
  88:	00040000 	andeq	r0, r4, r0
  8c:	00000000 	andeq	r0, r0, r0
  90:	00008238 	andeq	r8, r0, r8, lsr r2
  94:	000009b4 			; <UNDEFINED> instruction: 0x000009b4
	...
  a0:	0000001c 	andeq	r0, r0, ip, lsl r0
  a4:	141f0002 	ldrne	r0, [pc], #-2	; ac <__code_start__-0x7f54>
  a8:	00040000 	andeq	r0, r4, r0
  ac:	00000000 	andeq	r0, r0, r0
  b0:	00008bec 	andeq	r8, r0, ip, ror #23
  b4:	00000020 	andeq	r0, r0, r0, lsr #32
	...
  c0:	0000001c 	andeq	r0, r0, ip, lsl r0
  c4:	152d0002 	strne	r0, [sp, #-2]!
  c8:	00040000 	andeq	r0, r4, r0
  cc:	00000000 	andeq	r0, r0, r0
  d0:	00008c0c 	andeq	r8, r0, ip, lsl #24
  d4:	0000002c 	andeq	r0, r0, ip, lsr #32
	...
  e0:	0000001c 	andeq	r0, r0, ip, lsl r0
  e4:	16600002 	strbtne	r0, [r0], -r2
  e8:	00040000 	andeq	r0, r4, r0
  ec:	00000000 	andeq	r0, r0, r0
  f0:	00008c38 	andeq	r8, r0, r8, lsr ip
  f4:	000000f8 	strdeq	r0, [r0], -r8
	...
 100:	0000001c 	andeq	r0, r0, ip, lsl r0
 104:	17f40002 	ldrbne	r0, [r4, r2]!
 108:	00040000 	andeq	r0, r4, r0
 10c:	00000000 	andeq	r0, r0, r0
 110:	00008d30 	andeq	r8, r0, r0, lsr sp
 114:	00000004 	andeq	r0, r0, r4
	...
 120:	0000001c 	andeq	r0, r0, ip, lsl r0
 124:	18c60002 	stmiane	r6, {r1}^
 128:	00040000 	andeq	r0, r4, r0
 12c:	00000000 	andeq	r0, r0, r0
 130:	00008d34 	andeq	r8, r0, r4, lsr sp
 134:	0000008c 	andeq	r0, r0, ip, lsl #1
	...
 140:	0000001c 	andeq	r0, r0, ip, lsl r0
 144:	1b470002 	blne	11c0154 <__bss_end__+0x11b670c>
 148:	00040000 	andeq	r0, r4, r0
 14c:	00000000 	andeq	r0, r0, r0
 150:	00008dc0 	andeq	r8, r0, r0, asr #27
 154:	0000011c 	andeq	r0, r0, ip, lsl r1
	...
 160:	0000001c 	andeq	r0, r0, ip, lsl r0
 164:	208a0002 	addcs	r0, sl, r2
 168:	00040000 	andeq	r0, r4, r0
 16c:	00000000 	andeq	r0, r0, r0
 170:	00008edc 	ldrdeq	r8, [r0], -ip
 174:	000001f0 	strdeq	r0, [r0], -r0	; <UNPREDICTABLE>
	...
 180:	0000001c 	andeq	r0, r0, ip, lsl r0
 184:	265b0002 	ldrbcs	r0, [fp], -r2
 188:	00040000 	andeq	r0, r4, r0
 18c:	00000000 	andeq	r0, r0, r0
 190:	000090cc 	andeq	r9, r0, ip, asr #1
 194:	000001a0 	andeq	r0, r0, r0, lsr #3
	...
 1a0:	0000001c 	andeq	r0, r0, ip, lsl r0
 1a4:	2c780002 	ldclcs	0, cr0, [r8], #-8
 1a8:	00040000 	andeq	r0, r4, r0
 1ac:	00000000 	andeq	r0, r0, r0
 1b0:	0000926c 	andeq	r9, r0, ip, ror #4
 1b4:	0000002c 	andeq	r0, r0, ip, lsr #32
	...
 1c0:	0000001c 	andeq	r0, r0, ip, lsl r0
 1c4:	2db30002 	ldccs	0, cr0, [r3, #8]!
 1c8:	00040000 	andeq	r0, r4, r0
 1cc:	00000000 	andeq	r0, r0, r0
 1d0:	00009298 	muleq	r0, r8, r2
 1d4:	00000044 	andeq	r0, r0, r4, asr #32
	...
 1e0:	0000001c 	andeq	r0, r0, ip, lsl r0
 1e4:	2eae0002 	cdpcs	0, 10, cr0, cr14, cr2, {0}
 1e8:	00040000 	andeq	r0, r4, r0
 1ec:	00000000 	andeq	r0, r0, r0
 1f0:	000092dc 	ldrdeq	r9, [r0], -ip
 1f4:	00000018 	andeq	r0, r0, r8, lsl r0
	...
 200:	0000001c 	andeq	r0, r0, ip, lsl r0
 204:	2fc10002 	svccs	0x00c10002
 208:	00040000 	andeq	r0, r4, r0
 20c:	00000000 	andeq	r0, r0, r0
 210:	000092f4 	strdeq	r9, [r0], -r4
 214:	00000030 	andeq	r0, r0, r0, lsr r0
	...
 220:	0000001c 	andeq	r0, r0, ip, lsl r0
 224:	31130002 	tstcc	r3, r2
 228:	00040000 	andeq	r0, r4, r0
 22c:	00000000 	andeq	r0, r0, r0
 230:	00009324 	andeq	r9, r0, r4, lsr #6
 234:	00000004 	andeq	r0, r0, r4
	...

Disassembly of section .debug_ranges:

00000000 <.debug_ranges>:
   0:	000000b0 	strheq	r0, [r0], -r0	; <UNPREDICTABLE>
   4:	000000b0 	strheq	r0, [r0], -r0	; <UNPREDICTABLE>
   8:	000000b4 	strheq	r0, [r0], -r4
   c:	000000b8 	strheq	r0, [r0], -r8
  10:	000000bc 	strheq	r0, [r0], -ip
  14:	000000e0 	andeq	r0, r0, r0, ror #1
	...
  20:	000000b8 	strheq	r0, [r0], -r8
  24:	000000bc 	strheq	r0, [r0], -ip
  28:	000000e4 	andeq	r0, r0, r4, ror #1
  2c:	00000114 	andeq	r0, r0, r4, lsl r1
	...
  38:	000000a4 	andeq	r0, r0, r4, lsr #1
  3c:	00000148 	andeq	r0, r0, r8, asr #2
  40:	00000158 	andeq	r0, r0, r8, asr r1
  44:	0000015c 	andeq	r0, r0, ip, asr r1
  48:	00000274 	andeq	r0, r0, r4, ror r2
  4c:	00000278 	andeq	r0, r0, r8, ror r2
  50:	0000027c 	andeq	r0, r0, ip, ror r2
  54:	00000280 	andeq	r0, r0, r0, lsl #5
  58:	00000288 	andeq	r0, r0, r8, lsl #5
  5c:	0000029c 	muleq	r0, ip, r2
  60:	000002c0 	andeq	r0, r0, r0, asr #5
  64:	000002cc 	andeq	r0, r0, ip, asr #5
  68:	000002f0 	strdeq	r0, [r0], -r0	; <UNPREDICTABLE>
  6c:	000002f0 	strdeq	r0, [r0], -r0	; <UNPREDICTABLE>
  70:	000002f4 	strdeq	r0, [r0], -r4
  74:	000002f8 	strdeq	r0, [r0], -r8
	...
  80:	00000148 	andeq	r0, r0, r8, asr #2
  84:	00000158 	andeq	r0, r0, r8, asr r1
  88:	0000015c 	andeq	r0, r0, ip, asr r1
  8c:	0000018c 	andeq	r0, r0, ip, lsl #3
  90:	0000029c 	muleq	r0, ip, r2
  94:	000002ac 	andeq	r0, r0, ip, lsr #5
	...
  a0:	000003c8 	andeq	r0, r0, r8, asr #7
  a4:	000003d0 	ldrdeq	r0, [r0], -r0	; <UNPREDICTABLE>
  a8:	00000404 	andeq	r0, r0, r4, lsl #8
  ac:	000004ac 	andeq	r0, r0, ip, lsr #9
  b0:	000004c0 	andeq	r0, r0, r0, asr #9
  b4:	00000920 	andeq	r0, r0, r0, lsr #18
  b8:	00000928 	andeq	r0, r0, r8, lsr #18
  bc:	000009b4 			; <UNDEFINED> instruction: 0x000009b4
	...
  c8:	000003c8 	andeq	r0, r0, r8, asr #7
  cc:	000003d0 	ldrdeq	r0, [r0], -r0	; <UNPREDICTABLE>
  d0:	00000504 	andeq	r0, r0, r4, lsl #10
  d4:	000005d0 	ldrdeq	r0, [r0], -r0	; <UNPREDICTABLE>
  d8:	00000800 	andeq	r0, r0, r0, lsl #16
  dc:	00000888 	andeq	r0, r0, r8, lsl #17
  e0:	00000930 	andeq	r0, r0, r0, lsr r9
  e4:	000009b4 			; <UNDEFINED> instruction: 0x000009b4
	...
  f0:	00000404 	andeq	r0, r0, r4, lsl #8
  f4:	00000408 	andeq	r0, r0, r8, lsl #8
  f8:	00000414 	andeq	r0, r0, r4, lsl r4
  fc:	00000414 	andeq	r0, r0, r4, lsl r4
 100:	00000428 	andeq	r0, r0, r8, lsr #8
 104:	0000042c 	andeq	r0, r0, ip, lsr #8
	...
 110:	000005fc 	strdeq	r0, [r0], -ip
 114:	00000700 	andeq	r0, r0, r0, lsl #14
 118:	000007ec 	andeq	r0, r0, ip, ror #15
 11c:	000007f4 	strdeq	r0, [r0], -r4
 120:	00000888 	andeq	r0, r0, r8, lsl #17
 124:	00000894 	muleq	r0, r4, r8
 128:	000008a8 	andeq	r0, r0, r8, lsr #17
 12c:	000008bc 			; <UNDEFINED> instruction: 0x000008bc
 130:	00000910 	andeq	r0, r0, r0, lsl r9
 134:	00000920 	andeq	r0, r0, r0, lsr #18
	...
 140:	00000600 	andeq	r0, r0, r0, lsl #12
 144:	00000604 	andeq	r0, r0, r4, lsl #12
 148:	00000608 	andeq	r0, r0, r8, lsl #12
 14c:	000006b4 			; <UNDEFINED> instruction: 0x000006b4
 150:	000006cc 	andeq	r0, r0, ip, asr #13
 154:	000006d0 	ldrdeq	r0, [r0], -r0	; <UNPREDICTABLE>
 158:	000008a8 	andeq	r0, r0, r8, lsr #17
 15c:	000008b8 			; <UNDEFINED> instruction: 0x000008b8
 160:	00000910 	andeq	r0, r0, r0, lsl r9
 164:	00000920 	andeq	r0, r0, r0, lsr #18
	...
 170:	000006b4 			; <UNDEFINED> instruction: 0x000006b4
 174:	000006cc 	andeq	r0, r0, ip, asr #13
 178:	000006d0 	ldrdeq	r0, [r0], -r0	; <UNPREDICTABLE>
 17c:	00000700 	andeq	r0, r0, r0, lsl #14
 180:	000007ec 	andeq	r0, r0, ip, ror #15
 184:	000007f4 	strdeq	r0, [r0], -r4
 188:	00000888 	andeq	r0, r0, r8, lsl #17
 18c:	00000894 	muleq	r0, r4, r8
 190:	000008b8 			; <UNDEFINED> instruction: 0x000008b8
 194:	000008bc 			; <UNDEFINED> instruction: 0x000008bc
	...
 1a0:	00000700 	andeq	r0, r0, r0, lsl #14
 1a4:	00000708 	andeq	r0, r0, r8, lsl #14
 1a8:	0000070c 	andeq	r0, r0, ip, lsl #14
 1ac:	000007ec 	andeq	r0, r0, ip, ror #15
 1b0:	00000894 	muleq	r0, r4, r8
 1b4:	000008a8 	andeq	r0, r0, r8, lsr #17
	...
 1c0:	00000728 	andeq	r0, r0, r8, lsr #14
 1c4:	000007a4 	andeq	r0, r0, r4, lsr #15
 1c8:	000007ac 	andeq	r0, r0, ip, lsr #15
 1cc:	000007b0 			; <UNDEFINED> instruction: 0x000007b0
 1d0:	00000894 	muleq	r0, r4, r8
 1d4:	00000898 	muleq	r0, r8, r8
 1d8:	0000089c 	muleq	r0, ip, r8
 1dc:	000008a0 	andeq	r0, r0, r0, lsr #17
	...
 1e8:	000007a4 	andeq	r0, r0, r4, lsr #15
 1ec:	000007ac 	andeq	r0, r0, ip, lsr #15
 1f0:	000007b0 			; <UNDEFINED> instruction: 0x000007b0
 1f4:	000007ec 	andeq	r0, r0, ip, ror #15
 1f8:	00000898 	muleq	r0, r8, r8
 1fc:	0000089c 	muleq	r0, ip, r8
 200:	000008a0 	andeq	r0, r0, r0, lsr #17
 204:	000008a8 	andeq	r0, r0, r8, lsr #17
	...
 210:	00008bec 	andeq	r8, r0, ip, ror #23
 214:	00008c0c 	andeq	r8, r0, ip, lsl #24
	...
 220:	00008d60 	andeq	r8, r0, r0, ror #26
 224:	00008d60 	andeq	r8, r0, r0, ror #26
 228:	00008d64 	andeq	r8, r0, r4, ror #26
 22c:	00008d6c 	andeq	r8, r0, ip, ror #26
	...
 238:	00008d34 	andeq	r8, r0, r4, lsr sp
 23c:	00008dc0 	andeq	r8, r0, r0, asr #27
	...
 248:	00000030 	andeq	r0, r0, r0, lsr r0
 24c:	00000030 	andeq	r0, r0, r0, lsr r0
 250:	00000038 	andeq	r0, r0, r8, lsr r0
 254:	0000004c 	andeq	r0, r0, ip, asr #32
	...
 260:	0000004c 	andeq	r0, r0, ip, asr #32
 264:	00000050 	andeq	r0, r0, r0, asr r0
 268:	00000050 	andeq	r0, r0, r0, asr r0
 26c:	00000078 	andeq	r0, r0, r8, ror r0
	...
 278:	0000004c 	andeq	r0, r0, ip, asr #32
 27c:	00000050 	andeq	r0, r0, r0, asr r0
 280:	00000050 	andeq	r0, r0, r0, asr r0
 284:	00000060 	andeq	r0, r0, r0, rrx
 288:	00000064 	andeq	r0, r0, r4, rrx
 28c:	00000068 	andeq	r0, r0, r8, rrx
	...
 298:	0000004c 	andeq	r0, r0, ip, asr #32
 29c:	00000050 	andeq	r0, r0, r0, asr r0
 2a0:	00000054 	andeq	r0, r0, r4, asr r0
 2a4:	00000060 	andeq	r0, r0, r0, rrx
	...
 2b0:	0000009c 	muleq	r0, ip, r0
 2b4:	000000a0 	andeq	r0, r0, r0, lsr #1
 2b8:	000000a0 	andeq	r0, r0, r0, lsr #1
 2bc:	000000c8 	andeq	r0, r0, r8, asr #1
	...
 2c8:	0000009c 	muleq	r0, ip, r0
 2cc:	000000a0 	andeq	r0, r0, r0, lsr #1
 2d0:	000000a0 	andeq	r0, r0, r0, lsr #1
 2d4:	000000b0 	strheq	r0, [r0], -r0	; <UNPREDICTABLE>
 2d8:	000000b4 	strheq	r0, [r0], -r4
 2dc:	000000b8 	strheq	r0, [r0], -r8
	...
 2e8:	0000009c 	muleq	r0, ip, r0
 2ec:	000000a0 	andeq	r0, r0, r0, lsr #1
 2f0:	000000a4 	andeq	r0, r0, r4, lsr #1
 2f4:	000000b0 	strheq	r0, [r0], -r0	; <UNPREDICTABLE>
	...
 300:	000000c8 	andeq	r0, r0, r8, asr #1
 304:	000000c8 	andeq	r0, r0, r8, asr #1
 308:	000000cc 	andeq	r0, r0, ip, asr #1
 30c:	0000011c 	andeq	r0, r0, ip, lsl r1
	...
 318:	000000f0 	strdeq	r0, [r0], -r0	; <UNPREDICTABLE>
 31c:	000000f4 	strdeq	r0, [r0], -r4
 320:	000000f4 	strdeq	r0, [r0], -r4
 324:	0000011c 	andeq	r0, r0, ip, lsl r1
	...
 330:	000000f0 	strdeq	r0, [r0], -r0	; <UNPREDICTABLE>
 334:	000000f4 	strdeq	r0, [r0], -r4
 338:	000000f4 	strdeq	r0, [r0], -r4
 33c:	00000104 	andeq	r0, r0, r4, lsl #2
 340:	00000108 	andeq	r0, r0, r8, lsl #2
 344:	0000010c 	andeq	r0, r0, ip, lsl #2
	...
 350:	000000f0 	strdeq	r0, [r0], -r0	; <UNPREDICTABLE>
 354:	000000f4 	strdeq	r0, [r0], -r4
 358:	000000f8 	strdeq	r0, [r0], -r8
 35c:	00000104 	andeq	r0, r0, r4, lsl #2
	...

Disassembly of section .debug_line:

00000000 <.debug_line>:
       0:	000001a9 	andeq	r0, r0, r9, lsr #3
       4:	00580003 	subseq	r0, r8, r3
       8:	01020000 	mrseq	r0, (UNDEF: 2)
       c:	000d0efb 	strdeq	r0, [sp], -fp
      10:	01010101 	tsteq	r1, r1, lsl #2
      14:	01000000 	mrseq	r0, (UNDEF: 0)
      18:	2f010000 	svccs	0x00010000
      1c:	72657355 	rsbvc	r7, r5, #1409286145	; 0x54000001
      20:	696d2f73 	stmdbvs	sp!, {r0, r1, r4, r5, r6, r8, r9, sl, fp, sp}^
      24:	2f73656c 	svccs	0x0073656c
      28:	72756f53 	rsbsvc	r6, r5, #332	; 0x14c
      2c:	632f6563 			; <UNDEFINED> instruction: 0x632f6563
      30:	30343273 	eorscc	r3, r4, r3, ror r2
      34:	6c2f786c 	stcvs	8, cr7, [pc], #-432	; fffffe8c <__bss_end__+0xffff6444>
      38:	69706269 	ldmdbvs	r0!, {r0, r3, r5, r6, r9, sp, lr}^
      3c:	636e692f 	cmnvs	lr, #770048	; 0xbc000
      40:	6564756c 	strbvs	r7, [r4, #-1388]!	; 0xfffffa94
      44:	65770000 	ldrbvs	r0, [r7, #-0]!
      48:	2d647269 	sfmcs	f7, 2, [r4, #-420]!	; 0xfffffe5c
      4c:	696d6974 	stmdbvs	sp!, {r2, r4, r5, r6, r8, fp, sp, lr}^
      50:	632e676e 			; <UNDEFINED> instruction: 0x632e676e
      54:	00000000 	andeq	r0, r0, r0
      58:	2e697072 	mcrcs	0, 3, r7, cr9, cr2, {3}
      5c:	00010068 	andeq	r0, r1, r8, rrx
      60:	18050000 	stmdane	r5, {}	; <UNPREDICTABLE>
      64:	40020500 	andmi	r0, r2, r0, lsl #10
      68:	03000080 	movweq	r0, #128	; 0x80
      6c:	05050123 	streq	r0, [r5, #-291]	; 0xfffffedd
      70:	18051713 	stmdane	r5, {r0, r1, r4, r8, r9, sl, ip}
      74:	017a0306 	cmneq	sl, r6, lsl #6
      78:	06500505 	ldrbeq	r0, [r0], -r5, lsl #10
      7c:	0109054b 	tsteq	r9, fp, asr #10
      80:	01062e01 	tsteq	r6, r1, lsl #28
      84:	13060505 	movwne	r0, #25861	; 0x6505
      88:	01010905 	tsteq	r1, r5, lsl #18
      8c:	0501062e 	streq	r0, [r1, #-1582]	; 0xfffff9d2
      90:	05130605 	ldreq	r0, [r3, #-1541]	; 0xfffff9fb
      94:	0501060e 	streq	r0, [r1, #-1550]	; 0xfffff9f2
      98:	01300605 	teqeq	r0, r5, lsl #12
      9c:	02040200 	andeq	r0, r4, #0, 4
      a0:	0402004a 	streq	r0, [r2], #-74	; 0xffffffb6
      a4:	02001302 	andeq	r1, r0, #134217728	; 0x8000000
      a8:	004e0204 	subeq	r0, lr, r4, lsl #4
      ac:	2f020402 	svccs	0x00020402
      b0:	02040200 	andeq	r0, r4, #0, 4
      b4:	0402002f 	streq	r0, [r2], #-47	; 0xffffffd1
      b8:	02002f02 	andeq	r2, r0, #2, 30
      bc:	052f0204 	streq	r0, [pc, #-516]!	; fffffec0 <__bss_end__+0xffff6478>
      c0:	04020009 	streq	r0, [r2], #-9
      c4:	02000102 	andeq	r0, r0, #-2147483648	; 0x80000000
      c8:	00010204 	andeq	r0, r1, r4, lsl #4
      cc:	2e020402 	cdpcs	4, 0, cr0, cr2, cr2, {0}
      d0:	02040200 	andeq	r0, r4, #0, 4
      d4:	05050106 	streq	r0, [r5, #-262]	; 0xfffffefa
      d8:	02040200 	andeq	r0, r4, #0, 4
      dc:	09051306 	stmdbeq	r5, {r1, r2, r8, r9, ip}
      e0:	02040200 	andeq	r0, r4, #0, 4
      e4:	04020001 	streq	r0, [r2], #-1
      e8:	02000102 	andeq	r0, r0, #-2147483648	; 0x80000000
      ec:	002e0204 	eoreq	r0, lr, r4, lsl #4
      f0:	06020402 	streq	r0, [r2], -r2, lsl #8
      f4:	00050501 	andeq	r0, r5, r1, lsl #10
      f8:	06020402 	streq	r0, [r2], -r2, lsl #8
      fc:	000e0513 	andeq	r0, lr, r3, lsl r5
     100:	06020402 	streq	r0, [r2], -r2, lsl #8
     104:	00050501 	andeq	r0, r5, r1, lsl #10
     108:	06020402 	streq	r0, [r2], -r2, lsl #8
     10c:	00070531 	andeq	r0, r7, r1, lsr r5
     110:	06020402 	streq	r0, [r2], -r2, lsl #8
     114:	06090501 	streq	r0, [r9], -r1, lsl #10
     118:	0601054b 	streq	r0, [r1], -fp, asr #10
     11c:	47090531 	smladxmi	r9, r1, r5, r0
     120:	01053006 	tsteq	r5, r6
     124:	09052f06 	stmdbeq	r5, {r1, r2, r8, r9, sl, fp, sp}
     128:	00050549 	andeq	r0, r5, r9, asr #10
     12c:	06010402 	streq	r0, [r1], -r2, lsl #8
     130:	002e6f03 	eoreq	r6, lr, r3, lsl #30
     134:	2e010402 	cdpcs	4, 0, cr0, cr1, cr2, {0}
     138:	01040200 	mrseq	r0, R12_usr
     13c:	031405d6 	tsteq	r4, #897581056	; 0x35800000
     140:	0505f263 	streq	pc, [r5, #-611]	; 0xfffffd9d
     144:	09051413 	stmdbeq	r5, {r0, r1, r4, sl, ip}
     148:	01190501 	tsteq	r9, r1, lsl #10
     14c:	05130905 	ldreq	r0, [r3, #-2309]	; 0xfffff6fb
     150:	050e0614 	streq	r0, [lr, #-1556]	; 0xfffff9ec
     154:	03343209 	teqeq	r4, #-1879048192	; 0x90000000
     158:	4b062e7a 	blmi	18bb48 <__bss_end__+0x182100>
     15c:	052c2605 	streq	r2, [ip, #-1541]!	; 0xfffff9fb
     160:	09050119 	stmdbeq	r5, {r0, r3, r4, r8}
     164:	26054b13 			; <UNDEFINED> instruction: 0x26054b13
     168:	0119052c 	tsteq	r9, ip, lsr #10
     16c:	4b130905 	blmi	4c2588 <__bss_end__+0x4b8b40>
     170:	052c2605 	streq	r2, [ip, #-1541]!	; 0xfffff9fb
     174:	05050119 	streq	r0, [r5, #-281]	; 0xfffffee7
     178:	09052f17 	stmdbeq	r5, {r0, r1, r2, r4, r8, r9, sl, fp, sp}
     17c:	01190501 	tsteq	r9, r1, lsl #10
     180:	67130905 	ldrvs	r0, [r3, -r5, lsl #18]
     184:	052c2605 	streq	r2, [ip, #-1541]!	; 0xfffff9fb
     188:	09050119 	stmdbeq	r5, {r0, r3, r4, r8}
     18c:	26056713 			; <UNDEFINED> instruction: 0x26056713
     190:	0119052c 	tsteq	r9, ip, lsr #10
     194:	67130905 	ldrvs	r0, [r3, -r5, lsl #18]
     198:	052c2605 	streq	r2, [ip, #-1541]!	; 0xfffff9fb
     19c:	05050119 	streq	r0, [r5, #-281]	; 0xfffffee7
     1a0:	06010518 			; <UNDEFINED> instruction: 0x06010518
     1a4:	2d050513 	cfstr32cs	mvfx0, [r5, #-76]	; 0xffffffb4
     1a8:	01000a02 	tsteq	r0, r2, lsl #20
     1ac:	00012001 	andeq	r2, r1, r1
     1b0:	db000300 	blle	db8 <__code_start__-0x7248>
     1b4:	02000000 	andeq	r0, r0, #0, 0
     1b8:	0d0efb01 	vstreq	d15, [lr, #-4]
     1bc:	01010100 	mrseq	r0, (UNDEF: 17)
     1c0:	00000001 	andeq	r0, r0, r1
     1c4:	01000001 	tsteq	r0, r1
     1c8:	696c2f2e 	stmdbvs	ip!, {r1, r2, r3, r5, r8, r9, sl, fp, sp}^
     1cc:	2f006362 	svccs	0x00006362
     1d0:	2f74706f 	svccs	0x0074706f
     1d4:	656d6f68 	strbvs	r6, [sp, #-3944]!	; 0xfffff098
     1d8:	77657262 	strbvc	r7, [r5, -r2, ror #4]!
     1dc:	6c65432f 	stclvs	3, cr4, [r5], #-188	; 0xffffff44
     1e0:	2f72616c 	svccs	0x0072616c
     1e4:	2d6d7261 	sfmcs	f7, 2, [sp, #-388]!	; 0xfffffe7c
     1e8:	656e6f6e 	strbvs	r6, [lr, #-3950]!	; 0xfffff092
     1ec:	6261652d 	rsbvs	r6, r1, #188743680	; 0xb400000
     1f0:	2f392d69 	svccs	0x00392d69
     1f4:	30322d39 	eorscc	r2, r2, r9, lsr sp
     1f8:	34713931 	ldrbtcc	r3, [r1], #-2353	; 0xfffff6cf
     1fc:	3173632d 	cmncc	r3, sp, lsr #6
     200:	2f653730 	svccs	0x00653730
     204:	2f62696c 	svccs	0x0062696c
     208:	2f636367 	svccs	0x00636367
     20c:	2d6d7261 	sfmcs	f7, 2, [sp, #-388]!	; 0xfffffe7c
     210:	656e6f6e 	strbvs	r6, [lr, #-3950]!	; 0xfffff092
     214:	6261652d 	rsbvs	r6, r1, #188743680	; 0xb400000
     218:	2e392f69 	cdpcs	15, 3, cr2, cr9, cr9, {3}
     21c:	2f312e32 	svccs	0x00312e32
     220:	6c636e69 	stclvs	14, cr6, [r3], #-420	; 0xfffffe5c
     224:	00656475 	rsbeq	r6, r5, r5, ror r4
     228:	6573552f 	ldrbvs	r5, [r3, #-1327]!	; 0xfffffad1
     22c:	6d2f7372 	stcvs	3, cr7, [pc, #-456]!	; 6c <__code_start__-0x7f94>
     230:	73656c69 	cmnvc	r5, #26880	; 0x6900
     234:	756f532f 	strbvc	r5, [pc, #-815]!	; ffffff0d <__bss_end__+0xffff64c5>
     238:	2f656372 	svccs	0x00656372
     23c:	34327363 	ldrtcc	r7, [r2], #-867	; 0xfffffc9d
     240:	2f786c30 	svccs	0x00786c30
     244:	7062696c 	rsbvc	r6, r2, ip, ror #18
     248:	6e692f69 	cdpvs	15, 6, cr2, cr9, cr9, {3}
     24c:	64756c63 	ldrbtvs	r6, [r5], #-3171	; 0xfffff39d
     250:	70000065 	andvc	r0, r0, r5, rrx
     254:	746e6972 	strbtvc	r6, [lr], #-2418	; 0xfffff68e
     258:	00632e6b 	rsbeq	r2, r3, fp, ror #28
     25c:	73000001 	movwvc	r0, #1
     260:	72616474 	rsbvc	r6, r1, #116, 8	; 0x74000000
     264:	00682e67 	rsbeq	r2, r8, r7, ror #28
     268:	72000002 	andvc	r0, r0, #2, 0
     26c:	682e6970 	stmdavs	lr!, {r4, r5, r6, r8, fp, sp, lr}
     270:	00000300 	andeq	r0, r0, r0, lsl #6
     274:	6975623c 	ldmdbvs	r5!, {r2, r3, r4, r5, r9, sp, lr}^
     278:	692d746c 	pushvs	{r2, r3, r5, r6, sl, ip, sp, lr}
     27c:	00003e6e 	andeq	r3, r0, lr, ror #28
     280:	61760000 	cmnvs	r6, r0
     284:	6972702d 	ldmdbvs	r2!, {r0, r2, r3, r5, ip, sp, lr}^
     288:	2e6b746e 	cdpcs	4, 6, cr7, cr11, cr14, {3}
     28c:	00010068 	andeq	r0, r1, r8, rrx
     290:	22050000 	andcs	r0, r5, #0, 0
     294:	6c020500 	cfstr32vs	mvfx0, [r2], {-0}
     298:	17000081 	strne	r0, [r0, -r1, lsl #1]
     29c:	13140505 	tstne	r4, #20971520	; 0x1400000
     2a0:	06220514 			; <UNDEFINED> instruction: 0x06220514
     2a4:	5012050d 	andspl	r0, r2, sp, lsl #10
     2a8:	7a032205 	bvc	c8ac4 <__bss_end__+0xbf07c>
     2ac:	3305052e 	movwcc	r0, #21806	; 0x552e
     2b0:	052f1205 	streq	r1, [pc, #-517]!	; b3 <__code_start__-0x7f4d>
     2b4:	09056505 	stmdbeq	r5, {r0, r2, r8, sl, sp, lr}
     2b8:	12052f06 	andne	r2, r5, #6, 30
     2bc:	05050106 	streq	r0, [r5, #-262]	; 0xfffffefa
     2c0:	06164b06 	ldreq	r4, [r6], -r6, lsl #22
     2c4:	0550064a 	ldrbeq	r0, [r0, #-1610]	; 0xfffff9b6
     2c8:	66130601 	ldrvs	r0, [r3], -r1, lsl #12
     2cc:	01000802 	tsteq	r0, r2, lsl #16
     2d0:	00009e01 	andeq	r9, r0, r1, lsl #28
     2d4:	5a000300 	bpl	edc <__code_start__-0x7124>
     2d8:	02000000 	andeq	r0, r0, #0, 0
     2dc:	0d0efb01 	vstreq	d15, [lr, #-4]
     2e0:	01010100 	mrseq	r0, (UNDEF: 17)
     2e4:	00000001 	andeq	r0, r0, r1
     2e8:	01000001 	tsteq	r0, r1
     2ec:	696c2f2e 	stmdbvs	ip!, {r1, r2, r3, r5, r8, r9, sl, fp, sp}^
     2f0:	2f006362 	svccs	0x00006362
     2f4:	72657355 	rsbvc	r7, r5, #1409286145	; 0x54000001
     2f8:	696d2f73 	stmdbvs	sp!, {r0, r1, r4, r5, r6, r8, r9, sl, fp, sp}^
     2fc:	2f73656c 	svccs	0x0073656c
     300:	72756f53 	rsbsvc	r6, r5, #332	; 0x14c
     304:	632f6563 			; <UNDEFINED> instruction: 0x632f6563
     308:	30343273 	eorscc	r3, r4, r3, ror r2
     30c:	6c2f786c 	stcvs	8, cr7, [pc], #-432	; 164 <__code_start__-0x7e9c>
     310:	69706269 	ldmdbvs	r0!, {r0, r3, r5, r6, r9, sp, lr}^
     314:	636e692f 	cmnvs	lr, #770048	; 0xbc000
     318:	6564756c 	strbvs	r7, [r4, #-1388]!	; 0xfffffa94
     31c:	75700000 	ldrbvc	r0, [r0, #-0]!
     320:	61686374 	smcvs	34356	; 0x8634
     324:	00632e72 	rsbeq	r2, r3, r2, ror lr
     328:	72000001 	andvc	r0, r0, #1, 0
     32c:	682e6970 	stmdavs	lr!, {r4, r5, r6, r8, fp, sp, lr}
     330:	00000200 	andeq	r0, r0, r0, lsl #4
     334:	00240500 	eoreq	r0, r4, r0, lsl #10
     338:	81c40205 	bichi	r0, r4, r5, lsl #4
     33c:	05140000 	ldreq	r0, [r4, #-0]
     340:	24050126 	strcs	r0, [r5], #-294	; 0xfffffeda
     344:	052e0106 	streq	r0, [lr, #-262]!	; 0xfffffefa
     348:	34052e26 	strcc	r2, [r5], #-3622	; 0xfffff1da
     34c:	01052e06 	tsteq	r5, r6, lsl #28
     350:	1b050106 	blne	140770 <__bss_end__+0x136d28>
     354:	05054f06 	streq	r4, [r5, #-3846]	; 0xfffff0fa
     358:	06110513 			; <UNDEFINED> instruction: 0x06110513
     35c:	67010501 	strvs	r0, [r1, -r1, lsl #10]
     360:	67062305 	strvs	r2, [r6, -r5, lsl #6]
     364:	05130505 	ldreq	r0, [r3, #-1285]	; 0xfffffafb
     368:	05010611 	streq	r0, [r1, #-1553]	; 0xfffff9ef
     36c:	04024b01 	streq	r4, [r2], #-2817	; 0xfffff4ff
     370:	a0010100 	andge	r0, r1, r0, lsl #2
     374:	03000000 	movweq	r0, #0
     378:	00005700 	andeq	r5, r0, r0, lsl #14
     37c:	fb010200 	blx	40b86 <__bss_end__+0x3713e>
     380:	01000d0e 	tsteq	r0, lr, lsl #26
     384:	00010101 	andeq	r0, r1, r1, lsl #2
     388:	00010000 	andeq	r0, r1, r0
     38c:	2f2e0100 	svccs	0x002e0100
     390:	6362696c 	cmnvs	r2, #108, 18	; 0x1b0000
     394:	73552f00 	cmpvc	r5, #0, 30
     398:	2f737265 	svccs	0x00737265
     39c:	656c696d 	strbvs	r6, [ip, #-2413]!	; 0xfffff693
     3a0:	6f532f73 	svcvs	0x00532f73
     3a4:	65637275 	strbvs	r7, [r3, #-629]!	; 0xfffffd8b
     3a8:	3273632f 	rsbscc	r6, r3, #-1140850688	; 0xbc000000
     3ac:	786c3034 	stmdavc	ip!, {r2, r4, r5, ip, sp}^
     3b0:	62696c2f 	rsbvs	r6, r9, #12032	; 0x2f00
     3b4:	692f6970 	stmdbvs	pc!, {r4, r5, r6, r8, fp, sp, lr}	; <UNPREDICTABLE>
     3b8:	756c636e 	strbvc	r6, [ip, #-878]!	; 0xfffffc92
     3bc:	00006564 	andeq	r6, r0, r4, ror #10
     3c0:	6b747570 	blvs	1d1d988 <__bss_end__+0x1d13f40>
     3c4:	0100632e 	tsteq	r0, lr, lsr #6
     3c8:	70720000 	rsbsvc	r0, r2, r0
     3cc:	00682e69 	rsbeq	r2, r8, r9, ror #28
     3d0:	00000002 	andeq	r0, r0, r2
     3d4:	05002205 	streq	r2, [r0, #-517]	; 0xfffffdfb
     3d8:	00820002 	addeq	r0, r2, r2
     3dc:	05051500 	streq	r1, [r5, #-1280]	; 0xfffffb00
     3e0:	06220513 			; <UNDEFINED> instruction: 0x06220513
     3e4:	0b052e11 	bleq	14bc30 <__bss_end__+0x1421e8>
     3e8:	05052f06 	streq	r2, [r5, #-3846]	; 0xfffff0fa
     3ec:	09052e06 	stmdbeq	r5, {r1, r2, r9, sl, fp, sp}
     3f0:	02040200 	andeq	r0, r4, #0, 4
     3f4:	0f056706 	svceq	0x00056706
     3f8:	02040200 	andeq	r0, r4, #0, 4
     3fc:	000b0549 	andeq	r0, fp, r9, asr #10
     400:	01020402 	tsteq	r2, r2, lsl #8
     404:	02000505 	andeq	r0, r0, #20971520	; 0x1400000
     408:	2e060204 	cdpcs	2, 0, cr0, cr6, cr4, {0}
     40c:	01054e06 	tsteq	r5, r6, lsl #28
     410:	06021306 	streq	r1, [r2], -r6, lsl #6
     414:	fa010100 	blx	4081c <__bss_end__+0x36dd4>
     418:	03000008 	movweq	r0, #8
     41c:	0000f100 	andeq	pc, r0, r0, lsl #2
     420:	fb010200 	blx	40c2a <__bss_end__+0x371e2>
     424:	01000d0e 	tsteq	r0, lr, lsl #26
     428:	00010101 	andeq	r0, r1, r1, lsl #2
     42c:	00010000 	andeq	r0, r1, r0
     430:	2f2e0100 	svccs	0x002e0100
     434:	6362696c 	cmnvs	r2, #108, 18	; 0x1b0000
     438:	706f2f00 	rsbvc	r2, pc, r0, lsl #30
     43c:	6f682f74 	svcvs	0x00682f74
     440:	7262656d 	rsbvc	r6, r2, #457179136	; 0x1b400000
     444:	432f7765 			; <UNDEFINED> instruction: 0x432f7765
     448:	616c6c65 	cmnvs	ip, r5, ror #24
     44c:	72612f72 	rsbvc	r2, r1, #456	; 0x1c8
     450:	6f6e2d6d 	svcvs	0x006e2d6d
     454:	652d656e 	strvs	r6, [sp, #-1390]!	; 0xfffffa92
     458:	2d696261 	sfmcs	f6, 2, [r9, #-388]!	; 0xfffffe7c
     45c:	2d392f39 	ldccs	15, cr2, [r9, #-228]!	; 0xffffff1c
     460:	39313032 	ldmdbcc	r1!, {r1, r4, r5, ip, sp}
     464:	632d3471 			; <UNDEFINED> instruction: 0x632d3471
     468:	37303173 			; <UNDEFINED> instruction: 0x37303173
     46c:	696c2f65 	stmdbvs	ip!, {r0, r2, r5, r6, r8, r9, sl, fp, sp}^
     470:	63672f62 	cmnvs	r7, #392	; 0x188
     474:	72612f63 	rsbvc	r2, r1, #396	; 0x18c
     478:	6f6e2d6d 	svcvs	0x006e2d6d
     47c:	652d656e 	strvs	r6, [sp, #-1390]!	; 0xfffffa92
     480:	2f696261 	svccs	0x00696261
     484:	2e322e39 	mrccs	14, 1, r2, cr2, cr9, {1}
     488:	6e692f31 	mcrvs	15, 3, r2, cr9, cr1, {1}
     48c:	64756c63 	ldrbtvs	r6, [r5], #-3171	; 0xfffff39d
     490:	552f0065 	strpl	r0, [pc, #-101]!	; 433 <__code_start__-0x7bcd>
     494:	73726573 	cmnvc	r2, #482344960	; 0x1cc00000
     498:	6c696d2f 	stclvs	13, cr6, [r9], #-188	; 0xffffff44
     49c:	532f7365 			; <UNDEFINED> instruction: 0x532f7365
     4a0:	6372756f 	cmnvs	r2, #465567744	; 0x1bc00000
     4a4:	73632f65 	cmnvc	r3, #404	; 0x194
     4a8:	6c303432 	cfldrsvs	mvf3, [r0], #-200	; 0xffffff38
     4ac:	696c2f78 	stmdbvs	ip!, {r3, r4, r5, r6, r8, r9, sl, fp, sp}^
     4b0:	2f697062 	svccs	0x00697062
     4b4:	6c636e69 	stclvs	14, cr6, [r3], #-420	; 0xfffffe5c
     4b8:	00656475 	rsbeq	r6, r5, r5, ror r4
     4bc:	2d617600 	stclcs	6, cr7, [r1, #-0]
     4c0:	6e697270 	mcrvs	2, 3, r7, cr9, cr0, {3}
     4c4:	632e6b74 			; <UNDEFINED> instruction: 0x632e6b74
     4c8:	00000100 	andeq	r0, r0, r0, lsl #2
     4cc:	69647473 	stmdbvs	r4!, {r0, r1, r4, r5, r6, sl, ip, sp, lr}^
     4d0:	672d746e 	strvs	r7, [sp, -lr, ror #8]!
     4d4:	682e6363 	stmdavs	lr!, {r0, r1, r5, r6, r8, r9, sp, lr}
     4d8:	00000200 	andeq	r0, r0, r0, lsl #4
     4dc:	2e697072 	mcrcs	0, 3, r7, cr9, cr2, {3}
     4e0:	00030068 	andeq	r0, r3, r8, rrx
     4e4:	69707200 	ldmdbvs	r0!, {r9, ip, sp, lr}^
     4e8:	746e692d 	strbtvc	r6, [lr], #-2349	; 0xfffff6d3
     4ec:	616e7265 	cmnvs	lr, r5, ror #4
     4f0:	00682e6c 	rsbeq	r2, r8, ip, ror #28
     4f4:	73000003 	movwvc	r0, #3
     4f8:	72616474 	rsbvc	r6, r1, #116, 8	; 0x74000000
     4fc:	00682e67 	rsbeq	r2, r8, r7, ror #28
     500:	3c000002 	stccc	0, cr0, [r0], {2}
     504:	6c697562 	cfstr64vs	mvdx7, [r9], #-392	; 0xfffffe78
     508:	6e692d74 	mcrvs	13, 3, r2, cr9, cr4, {3}
     50c:	0000003e 	andeq	r0, r0, lr, lsr r0
     510:	01050000 	mrseq	r0, (UNDEF: 5)
     514:	38020500 	stmdacc	r2, {r8, sl}
     518:	03000082 	movweq	r0, #130	; 0x82
     51c:	050100c8 	streq	r0, [r1, #-200]	; 0xffffff38
     520:	01051402 	tsteq	r5, r2, lsl #8
     524:	04051006 	streq	r1, [r5], #-6
     528:	2c010530 	cfstr32cs	mvfx0, [r1], {48}	; 0x30
     52c:	3004054a 	andcc	r0, r4, sl, asr #10
     530:	31060205 	tstcc	r6, r5, lsl #4
     534:	060b0513 			; <UNDEFINED> instruction: 0x060b0513
     538:	0602052e 	streq	r0, [r2], -lr, lsr #10
     53c:	06090530 			; <UNDEFINED> instruction: 0x06090530
     540:	2e0d2402 	cdpcs	4, 0, cr2, cr13, cr2, {0}
     544:	060d052e 	streq	r0, [sp], -lr, lsr #10
     548:	054a1703 	strbeq	r1, [sl, #-1795]	; 0xfffff8fd
     54c:	2d051311 	stccs	3, cr1, [r5, #-68]	; 0xffffffbc
     550:	16050106 	strne	r0, [r5], -r6, lsl #2
     554:	2f0d052e 	svccs	0x000d052e
     558:	052d1605 	streq	r1, [sp, #-1541]!	; 0xfffff9fb
     55c:	052f0614 	streq	r0, [pc, #-1556]!	; ffffff50 <__bss_end__+0xffff6508>
     560:	05010617 	streq	r0, [r1, #-1559]	; 0xfffff9e9
     564:	2f062e0d 	svccs	0x00062e0d
     568:	01061205 	tsteq	r6, r5, lsl #4
     56c:	052d2f2e 	streq	r2, [sp, #-3886]!	; 0xfffff0d2
     570:	052f060d 	streq	r0, [pc, #-1549]!	; ffffff6b <__bss_end__+0xffff6523>
     574:	05010612 	streq	r0, [r1, #-1554]	; 0xfffff9ee
     578:	052f0619 	streq	r0, [pc, #-1561]!	; ffffff67 <__bss_end__+0xffff651f>
     57c:	01110304 	tsteq	r1, r4, lsl #6
     580:	15020501 	strne	r0, [r2, #-1281]	; 0xfffffaff
     584:	b2030e05 	andlt	r0, r3, #80	; 0x50
     588:	0205017f 	andeq	r0, r5, #-1073741793	; 0xc000001f
     58c:	06060513 			; <UNDEFINED> instruction: 0x06060513
     590:	06020501 	streq	r0, [r2], -r1, lsl #10
     594:	01080530 	tsteq	r8, r0, lsr r5
     598:	01060205 	tsteq	r6, r5, lsl #4
     59c:	0808054a 	stmdaeq	r8, {r1, r3, r6, r8, sl}
     5a0:	06030591 			; <UNDEFINED> instruction: 0x06030591
     5a4:	0608054a 	streq	r0, [r8], -sl, asr #10
     5a8:	06150501 	ldreq	r0, [r5], -r1, lsl #10
     5ac:	0108052d 	tsteq	r8, sp, lsr #10
     5b0:	05d70305 	ldrbeq	r0, [r7, #773]	; 0x305
     5b4:	05010608 	streq	r0, [r1, #-1544]	; 0xfffff9f8
     5b8:	02052d18 	andeq	r2, r5, #24, 26	; 0x600
     5bc:	2f08052e 	svccs	0x0008052e
     5c0:	2d061505 	cfstr32cs	mvfx1, [r6, #-20]	; 0xffffffec
     5c4:	05010805 	streq	r0, [r1, #-2053]	; 0xfffff7fb
     5c8:	05010602 	streq	r0, [r1, #-1538]	; 0xfffff9fe
     5cc:	052f0603 	streq	r0, [pc, #-1539]!	; ffffffd1 <__bss_end__+0xffff6589>
     5d0:	05110618 	ldreq	r0, [r1, #-1560]	; 0xfffff9e8
     5d4:	08052e02 	stmdaeq	r5, {r1, r9, sl, fp, sp}
     5d8:	0615052f 	ldreq	r0, [r5], -pc, lsr #10
     5dc:	0108052d 	tsteq	r8, sp, lsr #10
     5e0:	05130305 	ldreq	r0, [r3, #-773]	; 0xfffffcfb
     5e4:	05010608 	streq	r0, [r1, #-1544]	; 0xfffff9f8
     5e8:	052d0615 	streq	r0, [sp, #-1557]!	; 0xfffff9eb
     5ec:	01060108 	tsteq	r6, r8, lsl #2
     5f0:	a0060205 	andge	r0, r6, r5, lsl #4
     5f4:	01060505 	tsteq	r6, r5, lsl #10
     5f8:	05360405 	ldreq	r0, [r6, #-1029]!	; 0xfffffbfb
     5fc:	09052f11 	stmdbeq	r5, {r0, r4, r8, r9, sl, fp, sp}
     600:	3302052e 	movwcc	r0, #9518	; 0x252e
     604:	72030505 	andvc	r0, r3, #20971520	; 0x1400000
     608:	0602052e 	streq	r0, [r2], -lr, lsr #10
     60c:	0501062f 	streq	r0, [r1, #-1583]	; 0xfffff9d1
     610:	0516060e 	ldreq	r0, [r6, #-1550]	; 0xfffff9f2
     614:	05131402 	ldreq	r1, [r3, #-1026]	; 0xfffffbfe
     618:	02051303 	andeq	r1, r5, #201326592	; 0xc000000
     61c:	0b051514 	bleq	145a74 <__bss_end__+0x13c02c>
     620:	06020501 	streq	r0, [r2], -r1, lsl #10
     624:	03052e01 	movweq	r2, #24065	; 0x5e01
     628:	0a056706 	beq	15a248 <__bss_end__+0x150800>
     62c:	02050106 	andeq	r0, r5, #-2147483647	; 0x80000001
     630:	2f0a052d 	svccs	0x000a052d
     634:	2d061705 	stccs	7, cr1, [r6, #-20]	; 0xffffffec
     638:	05010b05 	streq	r0, [r1, #-2821]	; 0xfffff4fb
     63c:	05010602 	streq	r0, [r1, #-1538]	; 0xfffff9fe
     640:	052e4c09 	streq	r4, [lr, #-3081]!	; 0xfffff3f7
     644:	052e0602 	streq	r0, [lr, #-1538]!	; 0xfffff9fe
     648:	05010609 	streq	r0, [r1, #-1545]	; 0xfffff9f7
     64c:	06300602 	ldrteq	r0, [r0], -r2, lsl #12
     650:	03010501 	movweq	r0, #5377	; 0x1501
     654:	09050138 	stmdbeq	r5, {r3, r4, r5, r8}
     658:	2e4a4f03 	cdpcs	15, 4, cr4, cr10, cr3, {0}
     65c:	0619052e 	ldreq	r0, [r9], -lr, lsr #10
     660:	054a2703 	strbeq	r2, [sl, #-1795]	; 0xfffff8fd
     664:	2805131a 	stmdacs	r5, {r1, r3, r4, r8, r9, ip}
     668:	1f050106 	svcne	0x00050106
     66c:	2f04052e 	svccs	0x0004052e
     670:	052d1f05 	streq	r1, [sp, #-3845]!	; 0xfffff0fb
     674:	052f060b 	streq	r0, [pc, #-1547]!	; 71 <__code_start__-0x7f8f>
     678:	0501060e 	streq	r0, [r1, #-1550]	; 0xfffff9f2
     67c:	02052e04 	andeq	r2, r5, #4, 28	; 0x40
     680:	4a590306 	bmi	16412a0 <__bss_end__+0x1637858>
     684:	060b0513 			; <UNDEFINED> instruction: 0x060b0513
     688:	0602052e 	streq	r0, [r2], -lr, lsr #10
     68c:	06090530 			; <UNDEFINED> instruction: 0x06090530
     690:	050d2402 	streq	r2, [sp, #-1026]	; 0xfffffbfe
     694:	13360604 	teqne	r6, #4, 12	; 0x400000
     698:	01060605 	tsteq	r6, r5, lsl #12
     69c:	67060505 	strvs	r0, [r6, -r5, lsl #10]
     6a0:	09051313 	stmdbeq	r5, {r0, r1, r4, r8, r9, ip}
     6a4:	0d051106 	stfeqs	f1, [r5, #-24]	; 0xffffffe8
     6a8:	300b052b 	andcc	r0, fp, fp, lsr #10
     6ac:	052c0d05 	streq	r0, [ip, #-3333]!	; 0xfffff2fb
     6b0:	0405351b 	streq	r3, [r5], #-1307	; 0xfffffae5
     6b4:	05052d06 	streq	r2, [r5, #-3334]	; 0xfffff2fa
     6b8:	061b0513 			; <UNDEFINED> instruction: 0x061b0513
     6bc:	820a052e 	andhi	r0, sl, #192937984	; 0xb800000
     6c0:	052f0405 	streq	r0, [pc, #-1029]!	; 2c3 <__code_start__-0x7d3d>
     6c4:	0a052e0e 	beq	14bf04 <__bss_end__+0x1424bc>
     6c8:	060b0549 	streq	r0, [fp], -r9, asr #10
     6cc:	0604052f 	streq	r0, [r4], -pc, lsr #10
     6d0:	052f0601 	streq	r0, [pc, #-1537]!	; d7 <__code_start__-0x7f29>
     6d4:	05010606 	streq	r0, [r1, #-1542]	; 0xfffff9fa
     6d8:	052f0605 	streq	r0, [pc, #-1541]!	; db <__code_start__-0x7f25>
     6dc:	2e01060a 	cfmadd32cs	mvax0, mvfx0, mvfx1, mvfx10
     6e0:	2e2e0705 	cdpcs	7, 2, cr0, cr14, cr5, {0}
     6e4:	0604052e 	streq	r0, [r4], -lr, lsr #10
     6e8:	05010d03 	streq	r0, [r1, #-3331]	; 0xfffff2fd
     6ec:	46030602 	strmi	r0, [r3], -r2, lsl #12
     6f0:	03090501 	movweq	r0, #38145	; 0x9501
     6f4:	04052e3a 	streq	r2, [r5], #-3642	; 0xfffff1c6
     6f8:	0d032f06 	stceq	15, cr2, [r3, #-24]	; 0xffffffe8
     6fc:	02050101 	andeq	r0, r5, #1073741824	; 0x40000000
     700:	030e0515 	movweq	r0, #58645	; 0xe515
     704:	05017fb2 	streq	r7, [r1, #-4018]	; 0xfffff04e
     708:	05141302 	ldreq	r1, [r4, #-770]	; 0xfffffcfe
     70c:	06050108 	streq	r0, [r5], -r8, lsl #2
     710:	3c031006 	stccc	0, cr1, [r3], {6}
     714:	0302052e 	movweq	r0, #9518	; 0x252e
     718:	30064a46 	andcc	r4, r6, r6, asr #20
     71c:	01060505 	tsteq	r6, r5, lsl #10
     720:	02052e2e 	andeq	r2, r5, #736	; 0x2e0
     724:	01064b06 	tsteq	r6, r6, lsl #22
     728:	16060e05 	strne	r0, [r6], -r5, lsl #28
     72c:	13140205 	tstne	r4, #1342177280	; 0x50000000
     730:	0b051515 	bleq	145b8c <__bss_end__+0x13c144>
     734:	06020501 	streq	r0, [r2], -r1, lsl #10
     738:	0530062e 	ldreq	r0, [r0, #-1582]!	; 0xfffff9d2
     73c:	05010609 	streq	r0, [r1, #-1545]	; 0xfffff9f7
     740:	064c0602 	strbeq	r0, [ip], -r2, lsl #12
     744:	03010501 	movweq	r0, #5377	; 0x1501
     748:	06050138 			; <UNDEFINED> instruction: 0x06050138
     74c:	054a6e03 	strbeq	r6, [sl, #-3587]	; 0xfffff1fd
     750:	66460302 	strbvs	r0, [r6], -r2, lsl #6
     754:	04052e4a 	streq	r2, [r5], #-3658	; 0xfffff1b6
     758:	00c80306 	sbceq	r0, r8, r6, lsl #6
     75c:	01010101 	tsteq	r1, r1, lsl #2
     760:	06822e06 	streq	r2, [r2], r6, lsl #28
     764:	2e72034a 	cdpcs	3, 7, cr0, cr2, cr10, {2}
     768:	01060905 	tsteq	r6, r5, lsl #18
     76c:	2f060405 	svccs	0x00060405
     770:	01010d03 	tsteq	r1, r3, lsl #26
     774:	05150205 	ldreq	r0, [r5, #-517]	; 0xfffffdfb
     778:	7fb2030e 	svcvc	0x00b2030e
     77c:	13020501 	movwne	r0, #9473	; 0x2501
     780:	01080514 	tsteq	r8, r4, lsl r5
     784:	03060905 	movweq	r0, #26885	; 0x6905
     788:	0605011b 			; <UNDEFINED> instruction: 0x0605011b
     78c:	032e6303 			; <UNDEFINED> instruction: 0x032e6303
     790:	2e2e2e3c 	mcrcs	14, 1, r2, cr14, cr12, {1}
     794:	03064805 	movweq	r4, #26629	; 0x6805
     798:	3c087fb4 	stccc	15, cr7, [r8], {180}	; 0xb4
     79c:	01130505 	tsteq	r3, r5, lsl #10
     7a0:	02002e06 	andeq	r2, r0, #96	; 0x60
     7a4:	2e060204 	cdpcs	2, 0, cr0, cr6, cr4, {0}
     7a8:	02040200 	andeq	r0, r4, #0, 4
     7ac:	04020001 	streq	r0, [r2], #-1
     7b0:	11051302 	tstne	r5, r2, lsl #6
     7b4:	02040200 	andeq	r0, r4, #0, 4
     7b8:	07050106 	streq	r0, [r5, -r6, lsl #2]
     7bc:	02040200 	andeq	r0, r4, #0, 4
     7c0:	0011052f 	andseq	r0, r1, pc, lsr #10
     7c4:	2d020402 	cfstrscs	mvf0, [r2, #-8]
     7c8:	02000505 	andeq	r0, r0, #20971520	; 0x1400000
     7cc:	2f060204 	svccs	0x00060204
     7d0:	02000905 	andeq	r0, r0, #81920	; 0x14000
     7d4:	05130204 	ldreq	r0, [r3, #-516]	; 0xfffffdfc
     7d8:	0402000e 	streq	r0, [r2], #-14
     7dc:	05010602 	streq	r0, [r1, #-1538]	; 0xfffff9fe
     7e0:	04020005 	streq	r0, [r2], #-5
     7e4:	00630601 	rsbeq	r0, r3, r1, lsl #12
     7e8:	01010402 	tsteq	r1, r2, lsl #8
     7ec:	02004805 	andeq	r4, r0, #327680	; 0x50000
     7f0:	11060104 	tstne	r6, r4, lsl #2
     7f4:	02000505 	andeq	r0, r0, #20971520	; 0x1400000
     7f8:	052f0104 	streq	r0, [pc, #-260]!	; 6fc <__code_start__-0x7904>
     7fc:	04020048 	streq	r0, [r2], #-72	; 0xffffffb8
     800:	05052d01 	streq	r2, [r5, #-3329]	; 0xfffff2ff
     804:	01040200 	mrseq	r0, R12_usr
     808:	0402002f 	streq	r0, [r2], #-47	; 0xffffffd1
     80c:	02004a01 	andeq	r4, r0, #4096	; 0x1000
     810:	004a0104 	subeq	r0, sl, r4, lsl #2
     814:	06010402 	streq	r0, [r1], -r2, lsl #8
     818:	0340054a 	movteq	r0, #1354	; 0x54a
     81c:	06d600e1 	ldrbeq	r0, [r6], r1, ror #1
     820:	4e090501 	cfsh32mi	mvfx0, mvfx9, #1
     824:	3008052e 	andcc	r0, r8, lr, lsr #10
     828:	05291e05 	streq	r1, [r9, #-3589]!	; 0xfffff1fb
     82c:	0d052e12 	stceq	14, cr2, [r5, #-72]	; 0xffffffb8
     830:	06020533 			; <UNDEFINED> instruction: 0x06020533
     834:	13050545 	movwne	r0, #21829	; 0x5545
     838:	05140205 	ldreq	r0, [r4, #-517]	; 0xfffffdfb
     83c:	02051305 	andeq	r1, r5, #335544320	; 0x14000000
     840:	01080513 	tsteq	r8, r3, lsl r5
     844:	03064005 	movweq	r4, #24581	; 0x6005
     848:	052e017a 	streq	r0, [lr, #-378]!	; 0xfffffe86
     84c:	0566340d 	strbeq	r3, [r6, #-1037]!	; 0xfffffbf3
     850:	4a200311 	bmi	80149c <__bss_end__+0x7f7a54>
     854:	0604054a 	streq	r0, [r4], -sl, asr #10
     858:	05016203 	streq	r6, [r1, #-515]	; 0xfffffdfd
     85c:	05010609 	streq	r0, [r1, #-1545]	; 0xfffff9f7
     860:	08052e0f 	stmdaeq	r5, {r0, r1, r2, r3, r9, sl, fp, sp}
     864:	0d052c06 	stceq	12, cr2, [r5, #-24]	; 0xffffffe8
     868:	03052e06 	movweq	r2, #24070	; 0x5e06
     86c:	05056706 	streq	r6, [r5, #-1798]	; 0xfffff8fa
     870:	08050106 	stmdaeq	r5, {r1, r2, r8}
     874:	0e054d06 	cdpeq	13, 0, cr4, cr5, cr6, {0}
     878:	0a050106 	beq	140c98 <__bss_end__+0x137250>
     87c:	2f09052e 	svccs	0x0009052e
     880:	2f060405 	svccs	0x00060405
     884:	01060705 	tsteq	r6, r5, lsl #14
     888:	052c0a05 	streq	r0, [ip, #-2565]!	; 0xfffff5fb
     88c:	05320604 	ldreq	r0, [r2, #-1540]!	; 0xfffff9fc
     890:	9803062d 	stmdals	r3, {r0, r2, r3, r5, r9, sl}
     894:	0905017f 	stmdbeq	r5, {r0, r1, r2, r3, r4, r5, r6, r8}
     898:	2e00ed03 	cdpcs	13, 0, cr14, cr0, cr3, {0}
     89c:	052c0d05 	streq	r0, [ip, #-3333]!	; 0xfffff2fb
     8a0:	04052b07 	streq	r2, [r5], #-2823	; 0xfffff4f9
     8a4:	14133006 	ldrne	r3, [r3], #-6
     8a8:	05010905 	streq	r0, [r1, #-2309]	; 0xfffff6fb
     8ac:	7f93030c 	svcvc	0x0093030c
     8b0:	011d0501 	tsteq	sp, r1, lsl #10
     8b4:	09050106 	stmdbeq	r5, {r1, r2, r8}
     8b8:	0100ed03 	tsteq	r0, r3, lsl #26
     8bc:	2f060505 	svccs	0x00060505
     8c0:	01061205 	tsteq	r6, r5, lsl #4
     8c4:	0b052d2e 	bleq	14bd84 <__bss_end__+0x14233c>
     8c8:	0605052f 	streq	r0, [r5], -pc, lsr #10
     8cc:	1009052f 	andne	r0, r9, pc, lsr #10
     8d0:	93030c05 	movwls	r0, #15365	; 0x3c05
     8d4:	1d05017f 	stfnes	f0, [r5, #-508]	; 0xfffffe04
     8d8:	062d0501 	strteq	r0, [sp], -r1, lsl #10
     8dc:	03090501 	movweq	r0, #38145	; 0x9501
     8e0:	052e00ed 	streq	r0, [lr, #-237]!	; 0xffffff13
     8e4:	014e0604 	cmpeq	lr, r4, lsl #12
     8e8:	02040200 	andeq	r0, r4, #0, 4
     8ec:	0402004a 	streq	r0, [r2], #-74	; 0xffffffb6
     8f0:	02000102 	andeq	r0, r0, #-2147483648	; 0x80000000
     8f4:	00150204 	andseq	r0, r5, r4, lsl #4
     8f8:	06020402 	streq	r0, [r2], -r2, lsl #8
     8fc:	00123602 	andseq	r3, r2, r2, lsl #12
     900:	2e020402 	cdpcs	4, 0, cr0, cr2, cr2, {0}
     904:	03060205 	movweq	r0, #25093	; 0x6205
     908:	050100d1 	streq	r0, [r1, #-209]	; 0xffffff2f
     90c:	2e010607 	cfmadd32cs	mvax0, mvfx0, mvfx1, mvfx7
     910:	2f060205 	svccs	0x00060205
     914:	01060b05 	tsteq	r6, r5, lsl #22
     918:	052f0105 	streq	r0, [pc, #-261]!	; 81b <__code_start__-0x77e5>
     91c:	65030605 	strvs	r0, [r3, #-1541]	; 0xfffff9fb
     920:	0609054a 	streq	r0, [r9], -sl, asr #10
     924:	05056601 	streq	r6, [r5, #-1537]	; 0xfffff9ff
     928:	04059f06 	streq	r9, [r5], #-3846	; 0xfffff0fa
     92c:	05011103 	streq	r1, [r1, #-259]	; 0xfffffefd
     930:	05010607 	streq	r0, [r1, #-1543]	; 0xfffff9f9
     934:	05310604 	ldreq	r0, [r1, #-1540]!	; 0xfffff9fc
     938:	1305010a 	movwne	r0, #20746	; 0x510a
     93c:	01040200 	mrseq	r0, R12_usr
     940:	10052e06 	andne	r2, r5, r6, lsl #28
     944:	01040200 	mrseq	r0, R12_usr
     948:	0605052e 	streq	r0, [r5], -lr, lsr #10
     94c:	060a054b 	streq	r0, [sl], -fp, asr #10
     950:	052d0601 	streq	r0, [sp, #-1537]!	; 0xfffff9ff
     954:	05010604 	streq	r0, [r1, #-1540]	; 0xfffff9fc
     958:	b6030611 			; <UNDEFINED> instruction: 0xb6030611
     95c:	0113667f 	tsteq	r3, pc, ror r6
     960:	02040200 	andeq	r0, r4, #0, 4
     964:	ba06ba06 	blt	1af184 <__bss_end__+0x1a573c>
     968:	1a051401 	bne	145974 <__bss_end__+0x13bf2c>
     96c:	2e2e1306 	cdpcs	3, 2, cr1, cr14, cr6, {0}
     970:	674e1105 	strbvs	r1, [lr, -r5, lsl #2]
     974:	05681405 	strbeq	r1, [r8, #-1029]!	; 0xfffffbfb
     978:	15058213 	strne	r8, [r5, #-531]	; 0xfffffded
     97c:	054a7803 	strbeq	r7, [sl, #-2051]	; 0xfffff7fd
     980:	134b0611 	movtne	r0, #46609	; 0xb611
     984:	14131413 	ldrne	r1, [r3], #-1043	; 0xfffffbed
     988:	01061305 	tsteq	r6, r5, lsl #6
     98c:	2f060905 	svccs	0x00060905
     990:	01060d05 	tsteq	r6, r5, lsl #26
     994:	09052e2e 	stmdbeq	r5, {r1, r2, r3, r5, r9, sl, fp, sp}
     998:	9d0d05bb 	cfstr32ls	mvfx0, [sp, #-748]	; 0xfffffd14
     99c:	2f060905 	svccs	0x00060905
     9a0:	062f1505 	strteq	r1, [pc], -r5, lsl #10
     9a4:	034a7503 	movteq	r7, #42243	; 0xa503
     9a8:	054a2e0b 	strbeq	r2, [sl, #-3595]	; 0xfffff1f5
     9ac:	23030605 	movwcs	r0, #13829	; 0x3605
     9b0:	06090501 	streq	r0, [r9], -r1, lsl #10
     9b4:	05052e01 	streq	r2, [r5, #-3585]	; 0xfffff1ff
     9b8:	6e03d706 	cdpvs	7, 0, cr13, cr3, cr6, {0}
     9bc:	010e032e 	tsteq	lr, lr, lsr #6
     9c0:	01060905 	tsteq	r6, r5, lsl #18
     9c4:	03060505 	movweq	r0, #25861	; 0x6505
     9c8:	01054a10 	tsteq	r5, r0, lsl sl
     9cc:	017eed03 	cmneq	lr, r3, lsl #26
     9d0:	15140205 	ldrne	r0, [r4, #-517]	; 0xfffffdfb
     9d4:	04051413 	streq	r1, [r5], #-1043	; 0xfffffbed
     9d8:	05011a03 	streq	r1, [r1, #-2563]	; 0xfffff5fd
     9dc:	05010609 	streq	r0, [r1, #-1545]	; 0xfffff9f7
     9e0:	2e460302 	cdpcs	3, 4, cr0, cr6, cr2, {0}
     9e4:	3a030905 	bcc	c2e00 <__bss_end__+0xb93b8>
     9e8:	0604052e 	streq	r0, [r4], -lr, lsr #10
     9ec:	010d032f 	tsteq	sp, pc, lsr #6
     9f0:	15020501 	strne	r0, [r2, #-1281]	; 0xfffffaff
     9f4:	b2030e05 	andlt	r0, r3, #80	; 0x50
     9f8:	0205017f 	andeq	r0, r5, #-1073741793	; 0xc000001f
     9fc:	08051413 	stmdaeq	r5, {r0, r1, r4, sl, ip}
     a00:	06020501 	streq	r0, [r2], -r1, lsl #10
     a04:	9f080501 	svcls	0x00080501
     a08:	4a060305 	bmi	181624 <__bss_end__+0x177bdc>
     a0c:	08050106 	stmdaeq	r5, {r1, r2, r8}
     a10:	0615052e 	ldreq	r0, [r5], -lr, lsr #10
     a14:	0108052d 	tsteq	r8, sp, lsr #10
     a18:	062f0305 	strteq	r0, [pc], -r5, lsl #6
     a1c:	2e080501 	cfsh32cs	mvfx0, mvfx8, #1
     a20:	2d061505 	cfstr32cs	mvfx1, [r6, #-20]	; 0xffffffec
     a24:	05010805 	streq	r0, [r1, #-2053]	; 0xfffff7fb
     a28:	01062f03 	tsteq	r6, r3, lsl #30
     a2c:	052e0805 	streq	r0, [lr, #-2053]!	; 0xfffff7fb
     a30:	052d0615 	streq	r0, [sp, #-1557]!	; 0xfffff9eb
     a34:	03050108 	movweq	r0, #20744	; 0x5108
     a38:	0501062f 	streq	r0, [r1, #-1583]	; 0xfffff9d1
     a3c:	15052e08 	strne	r2, [r5, #-3592]	; 0xfffff1f8
     a40:	08052d06 	stmdaeq	r5, {r1, r2, r8, sl, fp, sp}
     a44:	2f030501 	svccs	0x00030501
     a48:	08050106 	stmdaeq	r5, {r1, r2, r8}
     a4c:	0615052e 	ldreq	r0, [r5], -lr, lsr #10
     a50:	0108052d 	tsteq	r8, sp, lsr #10
     a54:	062f0305 	strteq	r0, [pc], -r5, lsl #6
     a58:	2e080501 	cfsh32cs	mvfx0, mvfx8, #1
     a5c:	2d061505 	cfstr32cs	mvfx1, [r6, #-20]	; 0xffffffec
     a60:	05010805 	streq	r0, [r1, #-2053]	; 0xfffff7fb
     a64:	08051303 	stmdaeq	r5, {r0, r1, r8, r9, ip}
     a68:	15050106 	strne	r0, [r5, #-262]	; 0xfffffefa
     a6c:	08052d06 	stmdaeq	r5, {r1, r2, r8, sl, fp, sp}
     a70:	05660601 	strbeq	r0, [r6, #-1537]!	; 0xfffff9ff
     a74:	05670603 	strbeq	r0, [r7, #-1539]!	; 0xfffff9fd
     a78:	05010608 	streq	r0, [r1, #-1544]	; 0xfffff9f8
     a7c:	02052d18 	andeq	r2, r5, #24, 26	; 0x600
     a80:	2f08052e 	svccs	0x0008052e
     a84:	2d061505 	cfstr32cs	mvfx1, [r6, #-20]	; 0xffffffec
     a88:	05010805 	streq	r0, [r1, #-2053]	; 0xfffff7fb
     a8c:	05010602 	streq	r0, [r1, #-1538]	; 0xfffff9fe
     a90:	052f0603 	streq	r0, [pc, #-1539]!	; 495 <__code_start__-0x7b6b>
     a94:	05110618 	ldreq	r0, [r1, #-1560]	; 0xfffff9e8
     a98:	08052e02 	stmdaeq	r5, {r1, r9, sl, fp, sp}
     a9c:	0615052f 	ldreq	r0, [r5], -pc, lsr #10
     aa0:	0108052d 	tsteq	r8, sp, lsr #10
     aa4:	05130305 	ldreq	r0, [r3, #-773]	; 0xfffffcfb
     aa8:	05010608 	streq	r0, [r1, #-1544]	; 0xfffff9f8
     aac:	052d0615 	streq	r0, [sp, #-1557]!	; 0xfffff9eb
     ab0:	05050108 	streq	r0, [r5, #-264]	; 0xfffffef8
     ab4:	054a1406 	strbeq	r1, [sl, #-1030]	; 0xfffffbfa
     ab8:	052e0602 	streq	r0, [lr, #-1538]!	; 0xfffff9fe
     abc:	0519060e 	ldreq	r0, [r9, #-1550]	; 0xfffff9f2
     ac0:	11052f04 	tstne	r5, r4, lsl #30
     ac4:	4a09052f 	bmi	241f88 <__bss_end__+0x238540>
     ac8:	05330205 	ldreq	r0, [r3, #-517]!	; 0xfffffdfb
     acc:	2e720305 	cdpcs	3, 7, cr0, cr2, cr5, {0}
     ad0:	2f060205 	svccs	0x00060205
     ad4:	0e050106 	adfeqs	f0, f5, f6
     ad8:	02051606 	andeq	r1, r5, #6291456	; 0x600000
     adc:	03051314 	movweq	r1, #21268	; 0x5314
     ae0:	14020513 	strne	r0, [r2], #-1299	; 0xfffffaed
     ae4:	010b0515 	tsteq	fp, r5, lsl r5
     ae8:	01060205 	tsteq	r6, r5, lsl #4
     aec:	0305662e 	movweq	r6, #22062	; 0x562e
     af0:	0a052f06 	beq	14c710 <__bss_end__+0x142cc8>
     af4:	02050106 	andeq	r0, r5, #-2147483647	; 0x80000001
     af8:	2f0a052d 	svccs	0x000a052d
     afc:	2d061705 	stccs	7, cr1, [r6, #-20]	; 0xffffffec
     b00:	05010b05 	streq	r0, [r1, #-2821]	; 0xfffff4fb
     b04:	4a010602 	bmi	42314 <__bss_end__+0x388cc>
     b08:	0605054a 	streq	r0, [r5], -sl, asr #10
     b0c:	01019503 	tsteq	r1, r3, lsl #10
     b10:	03061105 	movweq	r1, #24837	; 0x6105
     b14:	05017ef8 	streq	r7, [r1, #-3832]	; 0xfffff108
     b18:	0188031b 	orreq	r0, r8, fp, lsl r3
     b1c:	0601054a 	streq	r0, [r1], -sl, asr #10
     b20:	2e7ef303 	cdpcs	3, 7, cr15, cr14, cr3, {0}
     b24:	15140205 	ldrne	r0, [r4, #-517]	; 0xfffffdfb
     b28:	19051413 	stmdbne	r5, {r0, r1, r4, sl, ip}
     b2c:	05012203 	streq	r2, [r1, #-515]	; 0xfffffdfd
     b30:	2805131a 	stmdacs	r5, {r1, r3, r4, r8, r9, ip}
     b34:	1f050106 	svcne	0x00050106
     b38:	2f04052e 	svccs	0x0004052e
     b3c:	054a0e05 	strbeq	r0, [sl, #-3589]	; 0xfffff1fb
     b40:	0b052d1f 	bleq	14bfc4 <__bss_end__+0x14257c>
     b44:	04052f06 	streq	r2, [r5], #-3846	; 0xfffff0fa
     b48:	32060106 	andcc	r0, r6, #-2147483647	; 0x80000001
     b4c:	15020501 	strne	r0, [r2, #-1281]	; 0xfffffaff
     b50:	b2030e05 	andlt	r0, r3, #80	; 0x50
     b54:	0205017f 	andeq	r0, r5, #-1073741793	; 0xc000001f
     b58:	06060513 			; <UNDEFINED> instruction: 0x06060513
     b5c:	06020501 	streq	r0, [r2], -r1, lsl #10
     b60:	01080530 	tsteq	r8, r0, lsr r5
     b64:	01060205 	tsteq	r6, r5, lsl #4
     b68:	08060305 	stmdaeq	r6, {r0, r2, r8, r9}
     b6c:	06080521 	streq	r0, [r8], -r1, lsr #10
     b70:	06150501 	ldreq	r0, [r5], -r1, lsl #10
     b74:	01080549 	tsteq	r8, r9, asr #10
     b78:	05d70305 	ldrbeq	r0, [r7, #773]	; 0x305
     b7c:	05010608 	streq	r0, [r1, #-1544]	; 0xfffff9f8
     b80:	02052d18 	andeq	r2, r5, #24, 26	; 0x600
     b84:	2f08052e 	svccs	0x0008052e
     b88:	2d061505 	cfstr32cs	mvfx1, [r6, #-20]	; 0xffffffec
     b8c:	05010805 	streq	r0, [r1, #-2053]	; 0xfffff7fb
     b90:	05010602 	streq	r0, [r1, #-1538]	; 0xfffff9fe
     b94:	052f0603 	streq	r0, [pc, #-1539]!	; 599 <__code_start__-0x7a67>
     b98:	05110618 	ldreq	r0, [r1, #-1560]	; 0xfffff9e8
     b9c:	08052e02 	stmdaeq	r5, {r1, r9, sl, fp, sp}
     ba0:	0615052f 	ldreq	r0, [r5], -pc, lsr #10
     ba4:	0108052d 	tsteq	r8, sp, lsr #10
     ba8:	05130305 	ldreq	r0, [r3, #-773]	; 0xfffffcfb
     bac:	05010608 	streq	r0, [r1, #-1544]	; 0xfffff9f8
     bb0:	052d0615 	streq	r0, [sp, #-1557]!	; 0xfffff9eb
     bb4:	05050108 	streq	r0, [r5, #-264]	; 0xfffffef8
     bb8:	02051406 	andeq	r1, r5, #100663296	; 0x6000000
     bbc:	04056606 	streq	r6, [r5], #-1542	; 0xfffff9fa
     bc0:	05051a06 	streq	r1, [r5, #-2566]	; 0xfffff5fa
     bc4:	054a7803 	strbeq	r7, [sl, #-2051]	; 0xfffff7fd
     bc8:	062f0602 	strteq	r0, [pc], -r2, lsl #12
     bcc:	060e0501 	streq	r0, [lr], -r1, lsl #10
     bd0:	14020516 	strne	r0, [r2], #-1302	; 0xfffffaea
     bd4:	06040513 			; <UNDEFINED> instruction: 0x06040513
     bd8:	06030501 	streq	r0, [r3], -r1, lsl #10
     bdc:	0611052f 	ldreq	r0, [r1], -pc, lsr #10
     be0:	2e090501 	cfsh32cs	mvfx0, mvfx9, #1
     be4:	30060205 	andcc	r0, r6, r5, lsl #4
     be8:	010b0515 	tsteq	fp, r5, lsl r5
     bec:	01060205 	tsteq	r6, r5, lsl #4
     bf0:	052e4a4a 	streq	r4, [lr, #-2634]!	; 0xfffff5b6
     bf4:	052f0603 	streq	r0, [pc, #-1539]!	; 5f9 <__code_start__-0x7a07>
     bf8:	0501060a 	streq	r0, [r1, #-1546]	; 0xfffff9f6
     bfc:	0a052d02 	beq	14c00c <__bss_end__+0x1425c4>
     c00:	0617052f 	ldreq	r0, [r7], -pc, lsr #10
     c04:	010b052d 	tsteq	fp, sp, lsr #10
     c08:	01060205 	tsteq	r6, r5, lsl #4
     c0c:	14062e4a 	strne	r2, [r6], #-3658	; 0xfffff1b6
     c10:	01060905 	tsteq	r6, r5, lsl #18
     c14:	4c060205 	sfmmi	f0, 4, [r6], {5}
     c18:	05050106 	streq	r0, [r5, #-262]	; 0xfffffefa
     c1c:	01980306 	orrseq	r0, r8, r6, lsl #6
     c20:	07052a01 	streq	r2, [r5, -r1, lsl #20]
     c24:	05050106 	streq	r0, [r5, #-262]	; 0xfffffefa
     c28:	18052f06 	stmdane	r5, {r1, r2, r8, r9, sl, fp, sp}
     c2c:	052e5303 	streq	r5, [lr, #-771]!	; 0xfffffcfd
     c30:	0501061b 	streq	r0, [r1, #-1563]	; 0xfffff9e5
     c34:	0905821a 	stmdbeq	r5, {r1, r3, r4, r9, pc}
     c38:	0d054b06 	vstreq	d4, [r5, #-24]	; 0xffffffe8
     c3c:	052e0106 	streq	r0, [lr, #-262]!	; 0xfffffefa
     c40:	0d05d709 	stceq	7, cr13, [r5, #-36]	; 0xffffffdc
     c44:	0609059d 			; <UNDEFINED> instruction: 0x0609059d
     c48:	3015052f 	andscc	r0, r5, pc, lsr #10
     c4c:	01061805 	tsteq	r6, r5, lsl #16
     c50:	05661705 	strbeq	r1, [r6, #-1797]!	; 0xfffff8fb
     c54:	17052f19 	smladne	r5, r9, pc, r2	; <UNPREDICTABLE>
     c58:	06190549 	ldreq	r0, [r9], -r9, asr #10
     c5c:	0615052f 	ldreq	r0, [r5], -pc, lsr #10
     c60:	052e6f03 	streq	r6, [lr, #-3843]!	; 0xfffff0fd
     c64:	13030619 	movwne	r0, #13849	; 0x3619
     c68:	0615054a 	ldreq	r0, [r5], -sl, asr #10
     c6c:	4a2e6d03 	bmi	b9c080 <__bss_end__+0xb92638>
     c70:	a0030205 	andge	r0, r3, r5, lsl #4
     c74:	0666017f 			; <UNDEFINED> instruction: 0x0666017f
     c78:	05017203 	streq	r7, [r1, #-515]	; 0xfffffdfd
     c7c:	05010605 	streq	r0, [r1, #-1541]	; 0xfffff9fb
     c80:	05053604 	streq	r3, [r5, #-1540]	; 0xfffff9fc
     c84:	052e7803 	streq	r7, [lr, #-2051]!	; 0xfffff7fd
     c88:	062f0602 	strteq	r0, [pc], -r2, lsl #12
     c8c:	060e0501 	streq	r0, [lr], -r1, lsl #10
     c90:	14020516 	strne	r0, [r2], #-1302	; 0xfffffaea
     c94:	06040513 			; <UNDEFINED> instruction: 0x06040513
     c98:	02054a01 	andeq	r4, r5, #4096	; 0x1000
     c9c:	01780306 	cmneq	r8, r6, lsl #6
     ca0:	01060505 	tsteq	r6, r5, lsl #10
     ca4:	0602054a 	streq	r0, [r2], -sl, asr #10
     ca8:	0501064b 	streq	r0, [r1, #-1611]	; 0xfffff9b5
     cac:	0516060e 	ldreq	r0, [r6, #-1550]	; 0xfffff9f2
     cb0:	15131402 	ldrne	r1, [r3, #-1026]	; 0xfffffbfe
     cb4:	010b0515 	tsteq	fp, r5, lsl r5
     cb8:	11052e06 	tstne	r5, r6, lsl #28
     cbc:	019e0306 	orrseq	r0, lr, r6, lsl #6
     cc0:	06220501 	strteq	r0, [r2], -r1, lsl #10
     cc4:	2f050501 	svccs	0x00050501
     cc8:	052d2205 	streq	r2, [sp, #-517]!	; 0xfffffdfb
     ccc:	052f0605 	streq	r0, [pc, #-1541]!	; 6cf <__code_start__-0x7931>
     cd0:	05054b11 	streq	r4, [r5, #-2833]	; 0xfffff4ef
     cd4:	039e0183 	orrseq	r0, lr, #-1073741792	; 0xc0000020
     cd8:	9e012e5c 	mcrls	14, 0, r2, cr1, cr12, {2}
     cdc:	03060205 	movweq	r0, #25093	; 0x6205
     ce0:	2e2e7ef3 	mcrcs	14, 1, r7, cr14, cr3, {7}
     ce4:	4a2c0605 	bmi	b02500 <__bss_end__+0xaf8ab8>
     ce8:	d8030d05 	stmdale	r3, {r0, r2, r8, sl, fp}
     cec:	04050100 	streq	r0, [r5], #-256	; 0xffffff00
     cf0:	01040200 	mrseq	r0, R12_usr
     cf4:	4a110306 	bmi	441914 <__bss_end__+0x437ecc>
     cf8:	01040200 	mrseq	r0, R12_usr
     cfc:	06110501 	ldreq	r0, [r1], -r1, lsl #10
     d00:	059e0651 	ldreq	r0, [lr, #1617]	; 0x651
     d04:	2e170315 	mrccs	3, 0, r0, cr7, cr5, {0}
     d08:	1105ba01 	tstne	r5, r1, lsl #20
     d0c:	012e6903 			; <UNDEFINED> instruction: 0x012e6903
     d10:	01002802 	tsteq	r0, r2, lsl #16
     d14:	0000a001 	andeq	sl, r0, r1
     d18:	5d000300 	stcpl	3, cr0, [r0, #-0]
     d1c:	02000000 	andeq	r0, r0, #0, 0
     d20:	0d0efb01 	vstreq	d15, [lr, #-4]
     d24:	01010100 	mrseq	r0, (UNDEF: 17)
     d28:	00000001 	andeq	r0, r0, r1
     d2c:	01000001 	tsteq	r0, r1
     d30:	74732f2e 	ldrbtvc	r2, [r3], #-3886	; 0xfffff0d2
     d34:	2d666661 	stclcs	6, cr6, [r6, #-388]!	; 0xfffffe7c
     d38:	00637273 	rsbeq	r7, r3, r3, ror r2
     d3c:	6573552f 	ldrbvs	r5, [r3, #-1327]!	; 0xfffffad1
     d40:	6d2f7372 	stcvs	3, cr7, [pc, #-456]!	; b80 <__code_start__-0x7480>
     d44:	73656c69 	cmnvc	r5, #26880	; 0x6900
     d48:	756f532f 	strbvc	r5, [pc, #-815]!	; a21 <__code_start__-0x75df>
     d4c:	2f656372 	svccs	0x00656372
     d50:	34327363 	ldrtcc	r7, [r2], #-867	; 0xfffffc9d
     d54:	2f786c30 	svccs	0x00786c30
     d58:	7062696c 	rsbvc	r6, r2, ip, ror #18
     d5c:	6e692f69 	cdpvs	15, 6, cr2, cr9, cr9, {3}
     d60:	64756c63 	ldrbtvs	r6, [r5], #-3171	; 0xfffff39d
     d64:	63000065 	movwvs	r0, #101	; 0x65
     d68:	65686361 	strbvs	r6, [r8, #-865]!	; 0xfffffc9f
     d6c:	0100632e 	tsteq	r0, lr, lsr #6
     d70:	70720000 	rsbsvc	r0, r2, r0
     d74:	00682e69 	rsbeq	r2, r8, r9, ror #28
     d78:	00000002 	andeq	r0, r0, r2
     d7c:	05001905 	streq	r1, [r0, #-2309]	; 0xfffff6fb
     d80:	008bec02 	addeq	lr, fp, r2, lsl #24
     d84:	05051400 	streq	r1, [r5, #-1024]	; 0xfffffc00
     d88:	02051313 	andeq	r1, r5, #1275068416	; 0x4c000000
     d8c:	0505132f 	streq	r1, [r5, #-815]	; 0xfffffcd1
     d90:	06040513 			; <UNDEFINED> instruction: 0x06040513
     d94:	2f050511 	svccs	0x00050511
     d98:	052f0105 	streq	r0, [pc, #-261]!	; c9b <__code_start__-0x7365>
     d9c:	0531061a 	ldreq	r0, [r1, #-1562]!	; 0xfffff9e6
     da0:	05131305 	ldreq	r1, [r3, #-773]	; 0xfffffcfb
     da4:	05133002 	ldreq	r3, [r3, #-2]
     da8:	04051305 	streq	r1, [r5], #-773	; 0xfffffcfb
     dac:	05051106 	streq	r1, [r5, #-262]	; 0xfffffefa
     db0:	2f01052f 	svccs	0x0001052f
     db4:	01000202 	tsteq	r0, r2, lsl #4
     db8:	00008701 	andeq	r8, r0, r1, lsl #14
     dbc:	64000300 	strvs	r0, [r0], #-768	; 0xfffffd00
     dc0:	02000000 	andeq	r0, r0, #0, 0
     dc4:	0d0efb01 	vstreq	d15, [lr, #-4]
     dc8:	01010100 	mrseq	r0, (UNDEF: 17)
     dcc:	00000001 	andeq	r0, r0, r1
     dd0:	01000001 	tsteq	r0, r1
     dd4:	74732f2e 	ldrbtvc	r2, [r3], #-3886	; 0xfffff0d2
     dd8:	2d666661 	stclcs	6, cr6, [r6, #-388]!	; 0xfffffe7c
     ddc:	00637273 	rsbeq	r7, r3, r3, ror r2
     de0:	6573552f 	ldrbvs	r5, [r3, #-1327]!	; 0xfffffad1
     de4:	6d2f7372 	stcvs	3, cr7, [pc, #-456]!	; c24 <__code_start__-0x73dc>
     de8:	73656c69 	cmnvc	r5, #26880	; 0x6900
     dec:	756f532f 	strbvc	r5, [pc, #-815]!	; ac5 <__code_start__-0x753b>
     df0:	2f656372 	svccs	0x00656372
     df4:	34327363 	ldrtcc	r7, [r2], #-867	; 0xfffffc9d
     df8:	2f786c30 	svccs	0x00786c30
     dfc:	7062696c 	rsbvc	r6, r2, ip, ror #18
     e00:	6e692f69 	cdpvs	15, 6, cr2, cr9, cr9, {3}
     e04:	64756c63 	ldrbtvs	r6, [r5], #-3171	; 0xfffff39d
     e08:	63000065 	movwvs	r0, #101	; 0x65
     e0c:	6e61656c 	cdpvs	5, 6, cr6, cr1, cr12, {3}
     e10:	6265722d 	rsbvs	r7, r5, #-805306366	; 0xd0000002
     e14:	2e746f6f 	cdpcs	15, 7, cr6, cr4, cr15, {3}
     e18:	00010063 	andeq	r0, r1, r3, rrx
     e1c:	69707200 	ldmdbvs	r0!, {r9, ip, sp, lr}^
     e20:	0200682e 	andeq	r6, r0, #3014656	; 0x2e0000
     e24:	05000000 	streq	r0, [r0, #-0]
     e28:	02050019 	andeq	r0, r5, #25, 0
     e2c:	00008c0c 	andeq	r8, r0, ip, lsl #24
     e30:	13050515 	movwne	r0, #21781	; 0x5515
     e34:	2d061905 	vstrcs.16	s2, [r6, #-10]	; <UNPREDICTABLE>
     e38:	062f0505 	strteq	r0, [pc], -r5, lsl #10
     e3c:	024b2f67 	subeq	r2, fp, #412	; 0x19c
     e40:	01010006 	tsteq	r1, r6
     e44:	00000112 	andeq	r0, r0, r2, lsl r1
     e48:	005e0003 	subseq	r0, lr, r3
     e4c:	01020000 	mrseq	r0, (UNDEF: 2)
     e50:	000d0efb 	strdeq	r0, [sp], -fp
     e54:	01010101 	tsteq	r1, r1, lsl #2
     e58:	01000000 	mrseq	r0, (UNDEF: 0)
     e5c:	2e010000 	cdpcs	0, 0, cr0, cr1, cr0, {0}
     e60:	6174732f 	cmnvs	r4, pc, lsr #6
     e64:	732d6666 			; <UNDEFINED> instruction: 0x732d6666
     e68:	2f006372 	svccs	0x00006372
     e6c:	72657355 	rsbvc	r7, r5, #1409286145	; 0x54000001
     e70:	696d2f73 	stmdbvs	sp!, {r0, r1, r4, r5, r6, r8, r9, sl, fp, sp}^
     e74:	2f73656c 	svccs	0x0073656c
     e78:	72756f53 	rsbsvc	r6, r5, #332	; 0x14c
     e7c:	632f6563 			; <UNDEFINED> instruction: 0x632f6563
     e80:	30343273 	eorscc	r3, r4, r3, ror r2
     e84:	6c2f786c 	stcvs	8, cr7, [pc], #-432	; cdc <__code_start__-0x7324>
     e88:	69706269 	ldmdbvs	r0!, {r0, r3, r5, r6, r9, sp, lr}^
     e8c:	636e692f 	cmnvs	lr, #770048	; 0xbc000
     e90:	6564756c 	strbvs	r7, [r4, #-1388]!	; 0xfffffa94
     e94:	73630000 	cmnvc	r3, #0, 0
     e98:	74726174 	ldrbtvc	r6, [r2], #-372	; 0xfffffe8c
     e9c:	0100632e 	tsteq	r0, lr, lsr #6
     ea0:	70720000 	rsbsvc	r0, r2, r0
     ea4:	00682e69 	rsbeq	r2, r8, r9, ror #28
     ea8:	00000002 	andeq	r0, r0, r2
     eac:	05001005 	streq	r1, [r0, #-5]
     eb0:	008c3802 	addeq	r3, ip, r2, lsl #16
     eb4:	05051500 	streq	r1, [r5, #-1280]	; 0xfffffb00
     eb8:	13020513 	movwne	r0, #9491	; 0x2513
     ebc:	05140505 	ldreq	r0, [r4, #-1285]	; 0xfffffafb
     ec0:	050e0610 	streq	r0, [lr, #-1552]	; 0xfffff9f0
     ec4:	30063205 	andcc	r3, r6, r5, lsl #4
     ec8:	0a051413 	beq	145f1c <__bss_end__+0x13c4d4>
     ecc:	08090501 	stmdaeq	r9, {r0, r8, sl}
     ed0:	06100591 			; <UNDEFINED> instruction: 0x06100591
     ed4:	9a0a0501 	bls	2822e0 <__bss_end__+0x278898>
     ed8:	056a1005 	strbeq	r1, [sl, #-5]!
     edc:	052d060a 	streq	r0, [sp, #-1546]!	; 0xfffff9f6
     ee0:	10052f09 	andne	r2, r5, r9, lsl #30
     ee4:	0a050106 	beq	141304 <__bss_end__+0x1378bc>
     ee8:	09052d06 	stmdbeq	r5, {r1, r2, r8, sl, fp, sp}
     eec:	061005bb 			; <UNDEFINED> instruction: 0x061005bb
     ef0:	060a0501 	streq	r0, [sl], -r1, lsl #10
     ef4:	4b090565 	blmi	242490 <__bss_end__+0x238a48>
     ef8:	01060d05 	tsteq	r6, r5, lsl #26
     efc:	052d0a05 	streq	r0, [sp, #-2565]!	; 0xfffff5fb
     f00:	0a052f10 	beq	14cb48 <__bss_end__+0x143100>
     f04:	09052d06 	stmdbeq	r5, {r1, r2, r8, sl, fp, sp}
     f08:	060d052f 	streq	r0, [sp], -pc, lsr #10
     f0c:	2d0a0501 	cfstr32cs	mvfx0, [sl, #-4]
     f10:	052f1005 	streq	r1, [pc, #-5]!	; f13 <__code_start__-0x70ed>
     f14:	052d060a 	streq	r0, [sp, #-1546]!	; 0xfffff9f6
     f18:	0d052f09 	stceq	15, cr2, [r5, #-36]	; 0xffffffdc
     f1c:	0a050106 	beq	14133c <__bss_end__+0x1378f4>
     f20:	2f10052d 	svccs	0x0010052d
     f24:	2d060a05 	vstrcs	s0, [r6, #-20]	; 0xffffffec
     f28:	052f0905 	streq	r0, [pc, #-2309]!	; 62b <__code_start__-0x79d5>
     f2c:	0501060d 	streq	r0, [r1, #-1549]	; 0xfffff9f3
     f30:	10052d0a 	andne	r2, r5, sl, lsl #26
     f34:	060a052f 	streq	r0, [sl], -pc, lsr #10
     f38:	1309052d 	movwne	r0, #38189	; 0x952d
     f3c:	01061005 	tsteq	r6, r5
     f40:	2d060a05 	vstrcs	s0, [r6, #-20]	; 0xffffffec
     f44:	32150505 	andscc	r0, r5, #20971520	; 0x1400000
     f48:	144a0101 	strbne	r0, [sl], #-257	; 0xfffffeff
     f4c:	052f0205 	streq	r0, [pc, #-517]!	; d4f <__code_start__-0x72b1>
     f50:	7303060a 	movwvc	r0, #13834	; 0x360a
     f54:	0008022e 	andeq	r0, r8, lr, lsr #4
     f58:	007d0101 	rsbseq	r0, sp, r1, lsl #2
     f5c:	00030000 	andeq	r0, r3, r0
     f60:	00000065 	andeq	r0, r0, r5, rrx
     f64:	0efb0102 	cdpeq	1, 15, cr0, cr11, cr2, {0}
     f68:	0101000d 	tsteq	r1, sp
     f6c:	00000101 	andeq	r0, r0, r1, lsl #2
     f70:	00000100 	andeq	r0, r0, r0, lsl #2
     f74:	732f2e01 			; <UNDEFINED> instruction: 0x732f2e01
     f78:	66666174 			; <UNDEFINED> instruction: 0x66666174
     f7c:	6372732d 	cmnvs	r2, #-1275068416	; 0xb4000000
     f80:	73552f00 	cmpvc	r5, #0, 30
     f84:	2f737265 	svccs	0x00737265
     f88:	656c696d 	strbvs	r6, [ip, #-2413]!	; 0xfffff693
     f8c:	6f532f73 	svcvs	0x00532f73
     f90:	65637275 	strbvs	r7, [r3, #-629]!	; 0xfffffd8b
     f94:	3273632f 	rsbscc	r6, r3, #-1140850688	; 0xbc000000
     f98:	786c3034 	stmdavc	ip!, {r2, r4, r5, ip, sp}^
     f9c:	62696c2f 	rsbvs	r6, r9, #12032	; 0x2f00
     fa0:	692f6970 	stmdbvs	pc!, {r4, r5, r6, r8, fp, sp, lr}	; <UNPREDICTABLE>
     fa4:	756c636e 	strbvc	r6, [ip, #-878]!	; 0xfffffc92
     fa8:	00006564 	andeq	r6, r0, r4, ror #10
     fac:	74737563 	ldrbtvc	r7, [r3], #-1379	; 0xfffffa9d
     fb0:	6c2d6d6f 	stcvs	13, cr6, [sp], #-444	; 0xfffffe44
     fb4:	6564616f 	strbvs	r6, [r4, #-367]!	; 0xfffffe91
     fb8:	00632e72 	rsbeq	r2, r3, r2, ror lr
     fbc:	72000001 	andvc	r0, r0, #1, 0
     fc0:	682e6970 	stmdavs	lr!, {r4, r5, r6, r8, fp, sp, lr}
     fc4:	00000200 	andeq	r0, r0, r0, lsl #4
     fc8:	001a0500 	andseq	r0, sl, r0, lsl #10
     fcc:	8d300205 	lfmhi	f0, 4, [r0, #-20]!	; 0xffffffec
     fd0:	05150000 	ldreq	r0, [r5, #-0]
     fd4:	02021401 	andeq	r1, r2, #16777216	; 0x1000000
     fd8:	14010100 	strne	r0, [r1], #-256	; 0xffffff00
     fdc:	03000001 	movweq	r0, #1
     fe0:	00005e00 	andeq	r5, r0, r0, lsl #28
     fe4:	fb010200 	blx	417ee <__bss_end__+0x37da6>
     fe8:	01000d0e 	tsteq	r0, lr, lsl #26
     fec:	00010101 	andeq	r0, r1, r1, lsl #2
     ff0:	00010000 	andeq	r0, r1, r0
     ff4:	2f2e0100 	svccs	0x002e0100
     ff8:	66617473 			; <UNDEFINED> instruction: 0x66617473
     ffc:	72732d66 	rsbsvc	r2, r3, #6528	; 0x1980
    1000:	552f0063 	strpl	r0, [pc, #-99]!	; fa5 <__code_start__-0x705b>
    1004:	73726573 	cmnvc	r2, #482344960	; 0x1cc00000
    1008:	6c696d2f 	stclvs	13, cr6, [r9], #-188	; 0xffffff44
    100c:	532f7365 			; <UNDEFINED> instruction: 0x532f7365
    1010:	6372756f 	cmnvs	r2, #465567744	; 0x1bc00000
    1014:	73632f65 	cmnvc	r3, #404	; 0x194
    1018:	6c303432 	cfldrsvs	mvf3, [r0], #-200	; 0xffffff38
    101c:	696c2f78 	stmdbvs	ip!, {r3, r4, r5, r6, r8, r9, sl, fp, sp}^
    1020:	2f697062 	svccs	0x00697062
    1024:	6c636e69 	stclvs	14, cr6, [r3], #-420	; 0xfffffe5c
    1028:	00656475 	rsbeq	r6, r5, r5, ror r4
    102c:	62657200 	rsbvs	r7, r5, #0, 4
    1030:	2e746f6f 	cdpcs	15, 7, cr6, cr4, cr15, {3}
    1034:	00010063 	andeq	r0, r1, r3, rrx
    1038:	69707200 	ldmdbvs	r0!, {r9, ip, sp, lr}^
    103c:	0200682e 	andeq	r6, r0, #3014656	; 0x2e0000
    1040:	05000000 	streq	r0, [r0, #-0]
    1044:	02050019 	andeq	r0, r5, #25, 0
    1048:	00008d34 	andeq	r8, r0, r4, lsr sp
    104c:	05010d03 	streq	r0, [r1, #-3331]	; 0xfffff2fd
    1050:	31131305 	tstcc	r3, r5, lsl #6
    1054:	01061305 	tsteq	r6, r5, lsl #6
    1058:	052f0105 	streq	r0, [pc, #-261]!	; f5b <__code_start__-0x70a5>
    105c:	0585061b 	streq	r0, [r5, #1563]	; 0x61b
    1060:	05141305 	ldreq	r1, [r4, #-773]	; 0xfffffcfb
    1064:	16052f09 	strne	r2, [r5], -r9, lsl #30
    1068:	05050106 	streq	r0, [r5, #-262]	; 0xfffffefa
    106c:	0e052f06 	cdpeq	15, 0, cr2, cr5, cr6, {0}
    1070:	05051106 	streq	r1, [r5, #-262]	; 0xfffffefa
    1074:	2f01052f 	svccs	0x0001052f
    1078:	30061705 	andcc	r1, r6, r5, lsl #14
    107c:	03130505 	tsteq	r3, #20971520	; 0x1400000
    1080:	1313016e 	tstne	r3, #-2147483621	; 0x8000001b
    1084:	03061705 	movweq	r1, #26373	; 0x6705
    1088:	0505010f 	streq	r0, [r5, #-271]	; 0xfffffef1
    108c:	062e7103 	strteq	r7, [lr], -r3, lsl #2
    1090:	06130531 			; <UNDEFINED> instruction: 0x06130531
    1094:	03070501 	movweq	r0, #29953	; 0x7501
    1098:	09052e0d 	stmdbeq	r5, {r0, r2, r3, r9, sl, fp, sp}
    109c:	06054b06 	streq	r4, [r5], -r6, lsl #22
    10a0:	05017603 	streq	r7, [r1, #-1539]	; 0xfffff9fd
    10a4:	05141305 	ldreq	r1, [r4, #-773]	; 0xfffffcfb
    10a8:	16052f09 	strne	r2, [r5], -r9, lsl #30
    10ac:	05050106 	streq	r0, [r5, #-262]	; 0xfffffefa
    10b0:	0e052f06 	cdpeq	15, 0, cr2, cr5, cr6, {0}
    10b4:	05051106 	streq	r1, [r5, #-262]	; 0xfffffefa
    10b8:	03062e2f 	movweq	r2, #28207	; 0x6e2f
    10bc:	2f30010a 	svccs	0x0030010a
    10c0:	1313134d 	tstne	r3, #872415233	; 0x34000001
    10c4:	02006715 	andeq	r6, r0, #5505024	; 0x540000
    10c8:	05670104 	strbeq	r0, [r7, #-260]!	; 0xfffffefc
    10cc:	0402000d 	streq	r0, [r2], #-13
    10d0:	0a050101 	beq	1414dc <__bss_end__+0x137a94>
    10d4:	01040200 	mrseq	r0, R12_usr
    10d8:	00050501 	andeq	r0, r5, r1, lsl #10
    10dc:	01010402 	tsteq	r1, r2, lsl #8
    10e0:	02000d05 	andeq	r0, r0, #320	; 0x140
    10e4:	05010104 	streq	r0, [r1, #-260]	; 0xfffffefc
    10e8:	0402000a 	streq	r0, [r2], #-10
    10ec:	0a020101 	beq	814f8 <__bss_end__+0x77ab0>
    10f0:	fa010100 	blx	414f8 <__bss_end__+0x37ab0>
    10f4:	03000001 	movweq	r0, #1
    10f8:	00005d00 	andeq	r5, r0, r0, lsl #26
    10fc:	fb010200 	blx	41906 <__bss_end__+0x37ebe>
    1100:	01000d0e 	tsteq	r0, lr, lsl #26
    1104:	00010101 	andeq	r0, r1, r1, lsl #2
    1108:	00010000 	andeq	r0, r1, r0
    110c:	2f2e0100 	svccs	0x002e0100
    1110:	66617473 			; <UNDEFINED> instruction: 0x66617473
    1114:	72732d66 	rsbsvc	r2, r3, #6528	; 0x1980
    1118:	552f0063 	strpl	r0, [pc, #-99]!	; 10bd <__code_start__-0x6f43>
    111c:	73726573 	cmnvc	r2, #482344960	; 0x1cc00000
    1120:	6c696d2f 	stclvs	13, cr6, [r9], #-188	; 0xffffff44
    1124:	532f7365 			; <UNDEFINED> instruction: 0x532f7365
    1128:	6372756f 	cmnvs	r2, #465567744	; 0x1bc00000
    112c:	73632f65 	cmnvc	r3, #404	; 0x194
    1130:	6c303432 	cfldrsvs	mvf3, [r0], #-200	; 0xffffff38
    1134:	696c2f78 	stmdbvs	ip!, {r3, r4, r5, r6, r8, r9, sl, fp, sp}^
    1138:	2f697062 	svccs	0x00697062
    113c:	6c636e69 	stclvs	14, cr6, [r3], #-420	; 0xfffffe5c
    1140:	00656475 	rsbeq	r6, r5, r5, ror r4
    1144:	6d697400 	cfstrdvs	mvd7, [r9, #-0]
    1148:	632e7265 			; <UNDEFINED> instruction: 0x632e7265
    114c:	00000100 	andeq	r0, r0, r0, lsl #2
    1150:	2e697072 	mcrcs	0, 3, r7, cr9, cr2, {3}
    1154:	00020068 	andeq	r0, r2, r8, rrx
    1158:	23050000 	movwcs	r0, #20480	; 0x5000
    115c:	c0020500 	andgt	r0, r2, r0, lsl #10
    1160:	1500008d 	strne	r0, [r0, #-141]	; 0xffffff73
    1164:	05130505 	ldreq	r0, [r3, #-1285]	; 0xfffffafb
    1168:	0501060c 	streq	r0, [r1, #-1548]	; 0xfffff9f4
    116c:	056a061f 	strbeq	r0, [sl, #-1567]!	; 0xfffff9e1
    1170:	1f051505 	svcne	0x00051505
    1174:	05050f06 	streq	r0, [r5, #-3846]	; 0xfffff0fa
    1178:	052f0631 	streq	r0, [pc, #-1585]!	; b4f <__code_start__-0x74b1>
    117c:	0177030a 	cmneq	r7, sl, lsl #6
    1180:	05130505 	ldreq	r0, [r3, #-1285]	; 0xfffffafb
    1184:	6601060c 	strvs	r0, [r1], -ip, lsl #12
    1188:	03060505 	movweq	r0, #25861	; 0x6505
    118c:	052f0109 	streq	r0, [pc, #-265]!	; 108b <__code_start__-0x6f75>
    1190:	05130601 	ldreq	r0, [r3, #-1537]	; 0xfffff9ff
    1194:	0568061c 	strbeq	r0, [r8, #-1564]!	; 0xfffff9e4
    1198:	0a051305 	beq	145db4 <__bss_end__+0x13c36c>
    119c:	05017603 	streq	r7, [r1, #-1539]	; 0xfffff9fd
    11a0:	1c051505 	cfstr32ne	mvfx1, [r5], {5}
    11a4:	052e1806 	streq	r1, [lr, #-2054]!	; 0xfffff7fa
    11a8:	2e7a0305 	cdpcs	3, 7, cr0, cr10, cr5, {0}
    11ac:	0a052f06 	beq	14cdcc <__bss_end__+0x143384>
    11b0:	05017703 	streq	r7, [r1, #-1795]	; 0xfffff8fd
    11b4:	0c051305 	stceq	3, cr1, [r5], {5}
    11b8:	05660106 	strbeq	r0, [r6, #-262]!	; 0xfffffefa
    11bc:	09030605 	stmdbeq	r3, {r0, r2, r9, sl}
    11c0:	01062f01 	tsteq	r6, r1, lsl #30
    11c4:	76030c05 	strvc	r0, [r3], -r5, lsl #24
    11c8:	06050501 	streq	r0, [r5], -r1, lsl #10
    11cc:	052e0f03 	streq	r0, [lr, #-3843]!	; 0xfffff0fd
    11d0:	0a051309 	beq	145dfc <__bss_end__+0x13c3b4>
    11d4:	05017403 	streq	r7, [r1, #-1027]	; 0xfffffbfd
    11d8:	052f1505 	streq	r1, [pc, #-1285]!	; cdb <__code_start__-0x7325>
    11dc:	0177030a 	cmneq	r7, sl, lsl #6
    11e0:	05130505 	ldreq	r0, [r3, #-1285]	; 0xfffffafb
    11e4:	6601060c 	strvs	r0, [r1], -ip, lsl #12
    11e8:	03060505 	movweq	r0, #25861	; 0x6505
    11ec:	11050109 	tstne	r5, r9, lsl #2
    11f0:	05051a06 	streq	r1, [r5, #-2566]	; 0xfffff5fa
    11f4:	062e7803 	strteq	r7, [lr], -r3, lsl #16
    11f8:	1909052f 	stmdbne	r9, {r0, r1, r2, r3, r5, r8, sl}
    11fc:	01060c05 	tsteq	r6, r5, lsl #24
    1200:	87061c05 	strhi	r1, [r6, -r5, lsl #24]
    1204:	05130505 	ldreq	r0, [r3, #-1285]	; 0xfffffafb
    1208:	0511061c 	ldreq	r0, [r1, #-1564]	; 0xfffff9e4
    120c:	054a2f05 	strbeq	r2, [sl, #-3845]	; 0xfffff0fb
    1210:	76030606 	strvc	r0, [r3], -r6, lsl #12
    1214:	1305052e 	movwne	r0, #21806	; 0x552e
    1218:	76030a05 	strvc	r0, [r3], -r5, lsl #20
    121c:	15050501 	strne	r0, [r5, #-1281]	; 0xfffffaff
    1220:	030a052f 	movweq	r0, #42287	; 0xa52f
    1224:	05050177 	streq	r0, [r5, #-375]	; 0xfffffe89
    1228:	060c0513 			; <UNDEFINED> instruction: 0x060c0513
    122c:	05056601 	streq	r6, [r5, #-1537]	; 0xfffff9ff
    1230:	01090306 	tsteq	r9, r6, lsl #6
    1234:	0501062f 	streq	r0, [r1, #-1583]	; 0xfffff9d1
    1238:	0176030c 	cmneq	r6, ip, lsl #6
    123c:	03060505 	movweq	r0, #25861	; 0x6505
    1240:	09052e0f 	stmdbeq	r5, {r0, r1, r2, r3, r9, sl, fp, sp}
    1244:	030a0513 	movweq	r0, #42259	; 0xa513
    1248:	05050174 	streq	r0, [r5, #-372]	; 0xfffffe8c
    124c:	0a052f15 	beq	14cea8 <__bss_end__+0x143460>
    1250:	05017703 	streq	r7, [r1, #-1795]	; 0xfffff8fd
    1254:	0c051305 	stceq	3, cr1, [r5], {5}
    1258:	05660106 	strbeq	r0, [r6, #-262]!	; 0xfffffefa
    125c:	09030605 	stmdbeq	r3, {r0, r2, r9, sl}
    1260:	06110501 	ldreq	r0, [r1], -r1, lsl #10
    1264:	0305051a 	movweq	r0, #21786	; 0x551a
    1268:	2f062e78 	svccs	0x00062e78
    126c:	05190905 	ldreq	r0, [r9, #-2309]	; 0xfffff6fb
    1270:	0501060c 	streq	r0, [r1, #-1548]	; 0xfffff9f4
    1274:	058a061e 	streq	r0, [sl, #1566]	; 0x61e
    1278:	06051305 	streq	r1, [r5], -r5, lsl #6
    127c:	1305050e 	movwne	r0, #21774	; 0x550e
    1280:	14061e05 	strne	r1, [r6], #-3589	; 0xfffff1fb
    1284:	662c0505 	strtvs	r0, [ip], -r5, lsl #10
    1288:	03060605 	movweq	r0, #26117	; 0x6605
    128c:	05052e76 	streq	r2, [r5, #-3702]	; 0xfffff18a
    1290:	030a0513 	movweq	r0, #42259	; 0xa513
    1294:	05050176 	streq	r0, [r5, #-374]	; 0xfffffe8a
    1298:	0a052f15 	beq	14cef4 <__bss_end__+0x1434ac>
    129c:	05017703 	streq	r7, [r1, #-1795]	; 0xfffff8fd
    12a0:	0c051305 	stceq	3, cr1, [r5], {5}
    12a4:	05660106 	strbeq	r0, [r6, #-262]!	; 0xfffffefa
    12a8:	09030605 	stmdbeq	r3, {r0, r2, r9, sl}
    12ac:	01062f01 	tsteq	r6, r1, lsl #30
    12b0:	76030c05 	strvc	r0, [r3], -r5, lsl #24
    12b4:	06050501 	streq	r0, [r5], -r1, lsl #10
    12b8:	052e0f03 	streq	r0, [lr, #-3843]!	; 0xfffff0fd
    12bc:	0a051309 	beq	145ee8 <__bss_end__+0x13c4a0>
    12c0:	05017403 	streq	r7, [r1, #-1027]	; 0xfffffbfd
    12c4:	052f1505 	streq	r1, [pc, #-1285]!	; dc7 <__code_start__-0x7239>
    12c8:	0177030a 	cmneq	r7, sl, lsl #6
    12cc:	05130505 	ldreq	r0, [r3, #-1285]	; 0xfffffafb
    12d0:	6601060c 	strvs	r0, [r1], -ip, lsl #12
    12d4:	03060505 	movweq	r0, #25861	; 0x6505
    12d8:	11050109 	tstne	r5, r9, lsl #2
    12dc:	05051a06 	streq	r1, [r5, #-2566]	; 0xfffff5fa
    12e0:	062e7803 	strteq	r7, [lr], -r3, lsl #16
    12e4:	1909052f 	stmdbne	r9, {r0, r1, r2, r3, r5, r8, sl}
    12e8:	01060c05 	tsteq	r6, r5, lsl #24
    12ec:	01000802 	tsteq	r0, r2, lsl #16
    12f0:	00020401 	andeq	r0, r2, r1, lsl #8
    12f4:	c8000300 	stmdagt	r0, {r8, r9}
    12f8:	02000000 	andeq	r0, r0, #0, 0
    12fc:	0d0efb01 	vstreq	d15, [lr, #-4]
    1300:	01010100 	mrseq	r0, (UNDEF: 17)
    1304:	00000001 	andeq	r0, r0, r1
    1308:	01000001 	tsteq	r0, r1
    130c:	6d6f682f 	stclvs	8, cr6, [pc, #-188]!	; 1258 <__code_start__-0x6da8>
    1310:	6e652f65 	cdpvs	15, 6, cr2, cr5, cr5, {3}
    1314:	72656c67 	rsbvc	r6, r5, #26368	; 0x6700
    1318:	616c632f 	cmnvs	ip, pc, lsr #6
    131c:	632f7373 			; <UNDEFINED> instruction: 0x632f7373
    1320:	30343173 	eorscc	r3, r4, r3, ror r1
    1324:	32322d65 	eorscc	r2, r2, #6464	; 0x1940
    1328:	2f6e6977 	svccs	0x006e6977
    132c:	62696c2f 	rsbvs	r6, r9, #12032	; 0x2f00
    1330:	692f6970 	stmdbvs	pc!, {r4, r5, r6, r8, fp, sp, lr}	; <UNPREDICTABLE>
    1334:	756c636e 	strbvc	r6, [ip, #-878]!	; 0xfffffc92
    1338:	2f006564 	svccs	0x00006564
    133c:	2f727375 	svccs	0x00727375
    1340:	72616873 	rsbvc	r6, r1, #7536640	; 0x730000
    1344:	63672f65 	cmnvs	r7, #404	; 0x194
    1348:	72612d63 	rsbvc	r2, r1, #6336	; 0x18c0
    134c:	6f6e2d6d 	svcvs	0x006e2d6d
    1350:	652d656e 	strvs	r6, [sp, #-1390]!	; 0xfffffa92
    1354:	2d696261 	sfmcs	f6, 2, [r9, #-388]!	; 0xfffffe7c
    1358:	332e3031 			; <UNDEFINED> instruction: 0x332e3031
    135c:	3230322d 	eorscc	r3, r0, #-805306366	; 0xd0000002
    1360:	30312e31 	eorscc	r2, r1, r1, lsr lr
    1364:	62696c2f 	rsbvs	r6, r9, #12032	; 0x2f00
    1368:	6363672f 	cmnvs	r3, #12320768	; 0xbc0000
    136c:	6d72612f 	ldfvse	f6, [r2, #-188]!	; 0xffffff44
    1370:	6e6f6e2d 	cdpvs	14, 6, cr6, cr15, cr13, {1}
    1374:	61652d65 	cmnvs	r5, r5, ror #26
    1378:	312f6962 			; <UNDEFINED> instruction: 0x312f6962
    137c:	2e332e30 	mrccs	14, 1, r2, cr3, cr0, {1}
    1380:	6e692f31 	mcrvs	15, 3, r2, cr9, cr1, {1}
    1384:	64756c63 	ldrbtvs	r6, [r5], #-3171	; 0xfffff39d
    1388:	75000065 	strvc	r0, [r0, #-101]	; 0xffffff9b
    138c:	2e747261 	cdpcs	2, 7, cr7, cr4, cr1, {3}
    1390:	00000063 	andeq	r0, r0, r3, rrx
    1394:	72617500 	rsbvc	r7, r1, #0, 10
    1398:	00682e74 	rsbeq	r2, r8, r4, ror lr
    139c:	72000001 	andvc	r0, r0, #1, 0
    13a0:	682e6970 	stmdavs	lr!, {r4, r5, r6, r8, fp, sp, lr}
    13a4:	00000100 	andeq	r0, r0, r0, lsl #2
    13a8:	6f697067 	svcvs	0x00697067
    13ac:	0100682e 	tsteq	r0, lr, lsr #16
    13b0:	74730000 	ldrbtvc	r0, [r3], #-0
    13b4:	746e6964 	strbtvc	r6, [lr], #-2404	; 0xfffff69c
    13b8:	6363672d 	cmnvs	r3, #11796480	; 0xb40000
    13bc:	0200682e 	andeq	r6, r0, #3014656	; 0x2e0000
    13c0:	05000000 	streq	r0, [r0, #-0]
    13c4:	02050039 	andeq	r0, r5, #57, 0	; 0x39
    13c8:	00008edc 	ldrdeq	r8, [r0], -ip
    13cc:	06013003 	streq	r3, [r1], -r3
    13d0:	06050501 	streq	r0, [r5], -r1, lsl #10
    13d4:	06110567 	ldreq	r0, [r1], -r7, ror #10
    13d8:	2e050501 	cfsh32cs	mvfx0, mvfx5, #1
    13dc:	05670105 	strbeq	r0, [r7, #-261]!	; 0xfffffefb
    13e0:	06290638 			; <UNDEFINED> instruction: 0x06290638
    13e4:	06050501 	streq	r0, [r5], -r1, lsl #10
    13e8:	06110567 	ldreq	r0, [r1], -r7, ror #10
    13ec:	2e050501 	cfsh32cs	mvfx0, mvfx5, #1
    13f0:	05670105 	strbeq	r0, [r7, #-261]!	; 0xfffffefb
    13f4:	15030616 	strne	r0, [r3, #-1558]	; 0xfffff9ea
    13f8:	3505052e 	strcc	r0, [r5, #-1326]	; 0xfffffad2
    13fc:	68356867 	ldmdavs	r5!, {r0, r1, r2, r5, r6, fp, sp, lr}
    1400:	852e0c03 	strhi	r0, [lr, #-3075]!	; 0xfffff3fd
    1404:	0369696b 	cmneq	r9, #1753088	; 0x1ac000
    1408:	6b13660c 	blvs	4dac40 <__bss_end__+0x4d11f8>
    140c:	06010567 	streq	r0, [r1], -r7, ror #10
    1410:	0619052f 	ldreq	r0, [r9], -pc, lsr #10
    1414:	05052508 	streq	r2, [r5, #-1288]	; 0xfffffaf8
    1418:	060d0534 			; <UNDEFINED> instruction: 0x060d0534
    141c:	4c010501 	cfstr32mi	mvfx0, [r1], {1}
    1420:	67061905 	strvs	r1, [r6, -r5, lsl #18]
    1424:	05360505 	ldreq	r0, [r6, #-1285]!	; 0xfffffafb
    1428:	0501060d 	streq	r0, [r1, #-1549]	; 0xfffff9f3
    142c:	01054a28 	tsteq	r5, r8, lsr #20
    1430:	06150530 			; <UNDEFINED> instruction: 0x06150530
    1434:	2f050587 	svccs	0x00050587
    1438:	0009052f 	andeq	r0, r9, pc, lsr #10
    143c:	13010402 	movwne	r0, #5122	; 0x1402
    1440:	02000a05 	andeq	r0, r0, #20480	; 0x5000
    1444:	05110104 	ldreq	r0, [r1, #-260]	; 0xfffffefc
    1448:	0402000c 	streq	r0, [r2], #-12
    144c:	05010601 	streq	r0, [r1, #-1537]	; 0xfffff9ff
    1450:	0402000a 	streq	r0, [r2], #-10
    1454:	05052e01 	streq	r2, [r5, #-3585]	; 0xfffff1ff
    1458:	0e054c06 	cdpeq	12, 0, cr4, cr5, cr6, {0}
    145c:	09050106 	stmdbeq	r5, {r1, r2, r8}
    1460:	0605054a 	streq	r0, [r5], -sl, asr #10
    1464:	01052f2f 	tsteq	r5, pc, lsr #30
    1468:	1c051306 	stcne	3, cr1, [r5], {6}
    146c:	01066706 	tsteq	r6, r6, lsl #14
    1470:	4b060505 	blmi	18288c <__bss_end__+0x178e44>
    1474:	0009052f 	andeq	r0, r9, pc, lsr #10
    1478:	13010402 	movwne	r0, #5122	; 0x1402
    147c:	02000a05 	andeq	r0, r0, #20480	; 0x5000
    1480:	05110104 	ldreq	r0, [r1, #-260]	; 0xfffffefc
    1484:	0402000c 	streq	r0, [r2], #-12
    1488:	05010601 	streq	r0, [r1, #-1537]	; 0xfffff9ff
    148c:	0402000a 	streq	r0, [r2], #-10
    1490:	05052e01 	streq	r2, [r5, #-3585]	; 0xfffff1ff
    1494:	05674c06 	strbeq	r4, [r7, #-3078]!	; 0xfffff3fa
    1498:	052f0601 	streq	r0, [pc, #-1537]!	; e9f <__code_start__-0x7161>
    149c:	054c0619 	strbeq	r0, [ip, #-1561]	; 0xfffff9e7
    14a0:	2a052e1b 	bcs	14cd14 <__bss_end__+0x1432cc>
    14a4:	0631052e 	ldrteq	r0, [r1], -lr, lsr #10
    14a8:	2e420501 	cdpcs	5, 4, cr0, cr2, cr1, {0}
    14ac:	31061c05 	tstcc	r6, r5, lsl #24
    14b0:	032f0505 			; <UNDEFINED> instruction: 0x032f0505
    14b4:	0e052e09 	cdpeq	14, 0, cr2, cr5, cr9, {0}
    14b8:	21050106 	tstcs	r5, r6, lsl #2
    14bc:	0301054a 	movweq	r0, #5450	; 0x154a
    14c0:	1a052e0a 	bne	14ccf0 <__bss_end__+0x1432a8>
    14c4:	09056806 	stmdbeq	r5, {r1, r2, fp, sp, lr}
    14c8:	01040200 	mrseq	r0, R12_usr
    14cc:	000a0530 	andeq	r0, sl, r0, lsr r5
    14d0:	11010402 	tstne	r1, r2, lsl #8
    14d4:	02000c05 	andeq	r0, r0, #1280	; 0x500
    14d8:	01060104 	tsteq	r6, r4, lsl #2
    14dc:	02000a05 	andeq	r0, r0, #20480	; 0x5000
    14e0:	052e0104 	streq	r0, [lr, #-260]!	; 0xfffffefc
    14e4:	e8030619 	stmda	r3, {r0, r3, r4, r9, sl}
    14e8:	0505667e 	streq	r6, [r5, #-1662]	; 0xfffff982
    14ec:	672f2f2f 	strvs	r2, [pc, -pc, lsr #30]!
    14f0:	2f060105 	svccs	0x00060105
    14f4:	01000402 	tsteq	r0, r2, lsl #8
    14f8:	00025c01 	andeq	r5, r2, r1, lsl #24
    14fc:	a7000300 	strge	r0, [r0, -r0, lsl #6]
    1500:	02000000 	andeq	r0, r0, #0, 0
    1504:	0d0efb01 	vstreq	d15, [lr, #-4]
    1508:	01010100 	mrseq	r0, (UNDEF: 17)
    150c:	00000001 	andeq	r0, r0, r1
    1510:	01000001 	tsteq	r0, r1
    1514:	72732f2e 	rsbsvc	r2, r3, #184	; 0xb8
    1518:	412f0063 			; <UNDEFINED> instruction: 0x412f0063
    151c:	696c7070 	stmdbvs	ip!, {r4, r5, r6, ip, sp, lr}^
    1520:	69746163 	ldmdbvs	r4!, {r0, r1, r5, r6, r8, sp, lr}^
    1524:	2f736e6f 	svccs	0x00736e6f
    1528:	2f4d5241 	svccs	0x004d5241
    152c:	2f62696c 	svccs	0x0062696c
    1530:	2f636367 	svccs	0x00636367
    1534:	2d6d7261 	sfmcs	f7, 2, [sp, #-388]!	; 0xfffffe7c
    1538:	656e6f6e 	strbvs	r6, [lr, #-3950]!	; 0xfffff092
    153c:	6261652d 	rsbvs	r6, r1, #188743680	; 0xb400000
    1540:	31312f69 	teqcc	r1, r9, ror #30
    1544:	312e322e 			; <UNDEFINED> instruction: 0x312e322e
    1548:	636e692f 	cmnvs	lr, #770048	; 0xbc000
    154c:	6564756c 	strbvs	r7, [r4, #-1388]!	; 0xfffffa94
    1550:	73552f00 	cmpvc	r5, #0, 30
    1554:	2f737265 	svccs	0x00737265
    1558:	656c696d 	strbvs	r6, [ip, #-2413]!	; 0xfffff693
    155c:	6f532f73 	svcvs	0x00532f73
    1560:	65637275 	strbvs	r7, [r3, #-629]!	; 0xfffffd8b
    1564:	3273632f 	rsbscc	r6, r3, #-1140850688	; 0xbc000000
    1568:	786c3034 	stmdavc	ip!, {r2, r4, r5, ip, sp}^
    156c:	62696c2f 	rsbvs	r6, r9, #12032	; 0x2f00
    1570:	692f6970 	stmdbvs	pc!, {r4, r5, r6, r8, fp, sp, lr}	; <UNPREDICTABLE>
    1574:	756c636e 	strbvc	r6, [ip, #-878]!	; 0xfffffc92
    1578:	00006564 	andeq	r6, r0, r4, ror #10
    157c:	6f697067 	svcvs	0x00697067
    1580:	0100632e 	tsteq	r0, lr, lsr #6
    1584:	74730000 	ldrbtvc	r0, [r3], #-0
    1588:	746e6964 	strbtvc	r6, [lr], #-2404	; 0xfffff69c
    158c:	6363672d 	cmnvs	r3, #11796480	; 0xb40000
    1590:	0200682e 	andeq	r6, r0, #3014656	; 0x2e0000
    1594:	70670000 	rsbvc	r0, r7, r0
    1598:	682e6f69 	stmdavs	lr!, {r0, r3, r5, r6, r8, r9, sl, fp, sp, lr}
    159c:	00000300 	andeq	r0, r0, r0, lsl #6
    15a0:	2e697072 	mcrcs	0, 3, r7, cr9, cr2, {3}
    15a4:	00030068 	andeq	r0, r3, r8, rrx
    15a8:	38050000 	stmdacc	r5, {}	; <UNPREDICTABLE>
    15ac:	cc020500 	cfstr32gt	mvfx0, [r2], {-0}
    15b0:	03000090 	movweq	r0, #144	; 0x90
    15b4:	05050127 	streq	r0, [r5, #-295]	; 0xfffffed9
    15b8:	06070513 			; <UNDEFINED> instruction: 0x06070513
    15bc:	06060501 	streq	r0, [r6], -r1, lsl #10
    15c0:	15050549 	strne	r0, [r5, #-1353]	; 0xfffffab7
    15c4:	01060705 	tsteq	r6, r5, lsl #14
    15c8:	052b3805 	streq	r3, [fp, #-2053]!	; 0xfffff7fb
    15cc:	05054d07 	streq	r4, [r5, #-3335]	; 0xfffff2f9
    15d0:	18053006 	stmdane	r5, {r1, r2, ip, sp}
    15d4:	1c050106 	stfnes	f0, [r5], {6}
    15d8:	4a0e0567 	bmi	382b7c <__bss_end__+0x379134>
    15dc:	052d1805 	streq	r1, [sp, #-2053]!	; 0xfffff7fb
    15e0:	2f2e4d12 	svccs	0x002e4d12
    15e4:	2b0e052d 	blcs	382aa0 <__bss_end__+0x379058>
    15e8:	2f060505 	svccs	0x00060505
    15ec:	07051314 	smladeq	r5, r4, r3, r1
    15f0:	05050106 	streq	r0, [r5, #-262]	; 0xfffffefa
    15f4:	06132f06 	ldreq	r2, [r3], -r6, lsl #30
    15f8:	1301054a 	movwne	r0, #5450	; 0x154a
    15fc:	2e2d0505 	cfsh64cs	mvdx0, mvdx13, #5
    1600:	00062405 	andeq	r2, r6, r5, lsl #8
    1604:	91300205 	teqls	r0, r5, lsl #4
    1608:	05150000 	ldreq	r0, [r5, #-0]
    160c:	06051305 	streq	r1, [r5], -r5, lsl #6
    1610:	05017103 	streq	r7, [r1, #-259]	; 0xfffffefd
    1614:	07051305 	streq	r1, [r5, -r5, lsl #6]
    1618:	06050106 	streq	r0, [r5], -r6, lsl #2
    161c:	05054906 	streq	r4, [r5, #-2310]	; 0xfffff6fa
    1620:	18051415 	stmdane	r5, {r0, r2, r4, sl, ip}
    1624:	24050106 	strcs	r0, [r5], #-262	; 0xfffffefa
    1628:	052e0903 	streq	r0, [lr, #-2307]!	; 0xfffff6fd
    162c:	2e770318 	mrccs	3, 3, r0, cr7, cr8, {0}
    1630:	054b1c05 	strbeq	r1, [fp, #-3077]	; 0xfffff3fb
    1634:	18054a0e 	stmdane	r5, {r1, r2, r3, r9, fp, lr}
    1638:	4d12052d 	cfldr32mi	mvfx0, [r2, #-180]	; 0xffffff4c
    163c:	052d2f2e 	streq	r2, [sp, #-3886]!	; 0xfffff0d2
    1640:	0e05300f 	cdpeq	0, 0, cr3, cr5, cr15, {0}
    1644:	06050529 	streq	r0, [r5], -r9, lsr #10
    1648:	0513142f 	ldreq	r1, [r3, #-1071]	; 0xfffffbd1
    164c:	05010607 	streq	r0, [r1, #-1543]	; 0xfffff9f9
    1650:	132f0605 			; <UNDEFINED> instruction: 0x132f0605
    1654:	01054a06 	tsteq	r5, r6, lsl #20
    1658:	29050517 	stmdbcs	r5, {r0, r1, r2, r4, r8, sl}
    165c:	0627052e 	strteq	r0, [r7], -lr, lsr #10
    1660:	8c020500 	cfstr32hi	mvfx0, [r2], {-0}
    1664:	1a000091 	bne	18b0 <__code_start__-0x6750>
    1668:	05130505 	ldreq	r0, [r3, #-1285]	; 0xfffffafb
    166c:	05110627 	ldreq	r0, [r1, #-1575]	; 0xfffff9d9
    1670:	05052f18 	streq	r2, [r5, #-3864]	; 0xfffff0e8
    1674:	054a2e2e 	strbeq	r2, [sl, #-3630]	; 0xfffff1d2
    1678:	05000628 	streq	r0, [r0, #-1576]	; 0xfffff9d8
    167c:	0091a402 	addseq	sl, r1, r2, lsl #8
    1680:	05051600 	streq	r1, [r5, #-1536]	; 0xfffffa00
    1684:	06280513 			; <UNDEFINED> instruction: 0x06280513
    1688:	2f180511 	svccs	0x00180511
    168c:	2e2e0505 	cfsh64cs	mvdx0, mvdx14, #5
    1690:	0623054a 	strteq	r0, [r3], -sl, asr #10
    1694:	bc020500 	cfstr32lt	mvfx0, [r2], {-0}
    1698:	16000091 			; <UNDEFINED> instruction: 0x16000091
    169c:	05130505 	ldreq	r0, [r3, #-1285]	; 0xfffffafb
    16a0:	01620306 	cmneq	r2, r6, lsl #6
    16a4:	05130505 	ldreq	r0, [r3, #-1285]	; 0xfffffafb
    16a8:	05010607 	streq	r0, [r1, #-1543]	; 0xfffff9f9
    16ac:	05490606 	strbeq	r0, [r9, #-1542]	; 0xfffff9fa
    16b0:	13141505 	tstne	r4, #20971520	; 0x1400000
    16b4:	03062305 	movweq	r2, #25349	; 0x6305
    16b8:	22050117 	andcs	r0, r5, #-1073741819	; 0xc0000005
    16bc:	052e6903 	streq	r6, [lr, #-2307]!	; 0xfffff6fd
    16c0:	052e821c 	streq	r8, [lr, #-540]!	; 0xfffffde4
    16c4:	05052e0e 	streq	r2, [r5, #-3598]	; 0xfffff1f2
    16c8:	12053006 	andne	r3, r5, #6, 0
    16cc:	2d4b0106 	stfcse	f0, [fp, #-24]	; 0xffffffe8
    16d0:	2f060505 	svccs	0x00060505
    16d4:	18051313 	stmdane	r5, {r0, r1, r4, r8, r9, ip}
    16d8:	017a0306 	cmneq	sl, r6, lsl #6
    16dc:	054a0e05 	strbeq	r0, [sl, #-3589]	; 0xfffff1fb
    16e0:	052e3405 	streq	r3, [lr, #-1029]!	; 0xfffffbfb
    16e4:	2e140301 	cdpcs	3, 1, cr0, cr4, cr1, {0}
    16e8:	6c030505 	cfstr32vs	mvfx0, [r3], {5}
    16ec:	2b052e2e 	blcs	14cfac <__bss_end__+0x143564>
    16f0:	02050006 	andeq	r0, r5, #6, 0
    16f4:	00009214 	andeq	r9, r0, r4, lsl r2
    16f8:	05011703 	streq	r1, [r1, #-1795]	; 0xfffff8fd
    16fc:	07051305 	streq	r1, [r5, -r5, lsl #6]
    1700:	18050106 	stmdane	r5, {r1, r2, r8}
    1704:	052e7103 	streq	r7, [lr, #-259]!	; 0xfffffefd
    1708:	2e0e032b 	cdpcs	3, 0, cr0, cr14, cr11, {1}
    170c:	052f0705 	streq	r0, [pc, #-1797]!	; 100f <__code_start__-0x6ff1>
    1710:	052f0609 	streq	r0, [pc, #-1545]!	; 110f <__code_start__-0x6ef1>
    1714:	016f030d 	cmneq	pc, sp, lsl #6
    1718:	06130505 	ldreq	r0, [r3], -r5, lsl #10
    171c:	052e2e2e 	streq	r2, [lr, #-3630]!	; 0xfffff1d2
    1720:	12030609 	andne	r0, r3, #9437184	; 0x900000
    1724:	030d0501 	movweq	r0, #54529	; 0xd501
    1728:	05050172 	streq	r0, [r5, #-370]	; 0xfffffe8e
    172c:	2e2e0613 	mcrcs	6, 1, r0, cr14, cr3, {0}
    1730:	03061d05 	movweq	r1, #27909	; 0x6d05
    1734:	05056610 	streq	r6, [r5, #-1552]	; 0xfffff9f0
    1738:	060e0513 			; <UNDEFINED> instruction: 0x060e0513
    173c:	2d1d0501 	cfldr32cs	mvfx0, [sp, #-4]
    1740:	0605052e 	streq	r0, [r5], -lr, lsr #10
    1744:	17051330 	smladxne	r5, r0, r3, r1
    1748:	052e0106 	streq	r0, [lr, #-262]!	; 0xfffffefa
    174c:	23052d0e 	movwcs	r2, #23822	; 0x5d0e
    1750:	2f01052f 	svccs	0x0001052f
    1754:	01000602 	tsteq	r0, r2, lsl #12
    1758:	0000e201 	andeq	lr, r0, r1, lsl #4
    175c:	59000300 	stmdbpl	r0, {r8, r9}
    1760:	02000000 	andeq	r0, r0, #0, 0
    1764:	0d0efb01 	vstreq	d15, [lr, #-4]
    1768:	01010100 	mrseq	r0, (UNDEF: 17)
    176c:	00000001 	andeq	r0, r0, r1
    1770:	01000001 	tsteq	r0, r1
    1774:	696c2f2e 	stmdbvs	ip!, {r1, r2, r3, r5, r8, r9, sl, fp, sp}^
    1778:	2f006362 	svccs	0x00006362
    177c:	72657355 	rsbvc	r7, r5, #1409286145	; 0x54000001
    1780:	696d2f73 	stmdbvs	sp!, {r0, r1, r4, r5, r6, r8, r9, sl, fp, sp}^
    1784:	2f73656c 	svccs	0x0073656c
    1788:	72756f53 	rsbsvc	r6, r5, #332	; 0x14c
    178c:	632f6563 			; <UNDEFINED> instruction: 0x632f6563
    1790:	30343273 	eorscc	r3, r4, r3, ror r2
    1794:	6c2f786c 	stcvs	8, cr7, [pc], #-432	; 15ec <__code_start__-0x6a14>
    1798:	69706269 	ldmdbvs	r0!, {r0, r3, r5, r6, r9, sp, lr}^
    179c:	636e692f 	cmnvs	lr, #770048	; 0xbc000
    17a0:	6564756c 	strbvs	r7, [r4, #-1388]!	; 0xfffffa94
    17a4:	74730000 	ldrbtvc	r0, [r3], #-0
    17a8:	74616372 	strbtvc	r6, [r1], #-882	; 0xfffffc8e
    17ac:	0100632e 	tsteq	r0, lr, lsr #6
    17b0:	70720000 	rsbsvc	r0, r2, r0
    17b4:	00682e69 	rsbeq	r2, r8, r9, ror #28
    17b8:	00000002 	andeq	r0, r0, r2
    17bc:	05002c05 	streq	r2, [r0, #-3077]	; 0xfffff3fb
    17c0:	00926c02 	addseq	r6, r2, r2, lsl #24
    17c4:	05051500 	streq	r1, [r5, #-1280]	; 0xfffffb00
    17c8:	0b051313 	bleq	14641c <__bss_end__+0x13c9d4>
    17cc:	05051106 	streq	r1, [r5, #-262]	; 0xfffffefa
    17d0:	01040200 	mrseq	r0, R12_usr
    17d4:	02003006 	andeq	r3, r0, #6, 0
    17d8:	05150104 	ldreq	r0, [r5, #-260]	; 0xfffffefc
    17dc:	04020009 	streq	r0, [r2], #-9
    17e0:	0b051301 	bleq	1463ec <__bss_end__+0x13c9a4>
    17e4:	01040200 	mrseq	r0, R12_usr
    17e8:	0005052f 	andeq	r0, r5, pc, lsr #10
    17ec:	06010402 	streq	r0, [r1], -r2, lsl #8
    17f0:	04020001 	streq	r0, [r2], #-1
    17f4:	4e062e01 	cdpmi	14, 0, cr2, cr6, cr1, {0}
    17f8:	01060805 	tsteq	r6, r5, lsl #16
    17fc:	02000505 	andeq	r0, r0, #20971520	; 0x1400000
    1800:	2f060104 	svccs	0x00060104
    1804:	02000905 	andeq	r0, r0, #81920	; 0x14000
    1808:	05130104 	ldreq	r0, [r3, #-260]	; 0xfffffefc
    180c:	0402000b 	streq	r0, [r2], #-11
    1810:	05010601 	streq	r0, [r1, #-1537]	; 0xfffff9ff
    1814:	04020009 	streq	r0, [r2], #-9
    1818:	052f0601 	streq	r0, [pc, #-1537]!	; 121f <__code_start__-0x6de1>
    181c:	04020005 	streq	r0, [r2], #-5
    1820:	05130601 	ldreq	r0, [r3, #-1537]	; 0xfffff9ff
    1824:	0402000f 	streq	r0, [r2], #-15
    1828:	0d052d01 	stceq	13, cr2, [r5, #-4]
    182c:	01040200 	mrseq	r0, R12_usr
    1830:	05052f06 	streq	r2, [r5, #-3846]	; 0xfffff0fa
    1834:	01040200 	mrseq	r0, R12_usr
    1838:	04020106 	streq	r0, [r2], #-262	; 0xfffffefa
    183c:	b2010100 	andlt	r0, r1, #0
    1840:	03000000 	movweq	r0, #0
    1844:	00005900 	andeq	r5, r0, r0, lsl #18
    1848:	fb010200 	blx	42052 <__bss_end__+0x3860a>
    184c:	01000d0e 	tsteq	r0, lr, lsl #26
    1850:	00010101 	andeq	r0, r1, r1, lsl #2
    1854:	00010000 	andeq	r0, r1, r0
    1858:	2f2e0100 	svccs	0x002e0100
    185c:	6362696c 	cmnvs	r2, #108, 18	; 0x1b0000
    1860:	73552f00 	cmpvc	r5, #0, 30
    1864:	2f737265 	svccs	0x00737265
    1868:	656c696d 	strbvs	r6, [ip, #-2413]!	; 0xfffff693
    186c:	6f532f73 	svcvs	0x00532f73
    1870:	65637275 	strbvs	r7, [r3, #-629]!	; 0xfffffd8b
    1874:	3273632f 	rsbscc	r6, r3, #-1140850688	; 0xbc000000
    1878:	786c3034 	stmdavc	ip!, {r2, r4, r5, ip, sp}^
    187c:	62696c2f 	rsbvs	r6, r9, #12032	; 0x2f00
    1880:	692f6970 	stmdbvs	pc!, {r4, r5, r6, r8, fp, sp, lr}	; <UNPREDICTABLE>
    1884:	756c636e 	strbvc	r6, [ip, #-878]!	; 0xfffffc92
    1888:	00006564 	andeq	r6, r0, r4, ror #10
    188c:	63727473 	cmnvs	r2, #1929379840	; 0x73000000
    1890:	632e706d 			; <UNDEFINED> instruction: 0x632e706d
    1894:	00000100 	andeq	r0, r0, r0, lsl #2
    1898:	2e697072 	mcrcs	0, 3, r7, cr9, cr2, {3}
    189c:	00020068 	andeq	r0, r2, r8, rrx
    18a0:	2a050000 	bcs	1418a8 <__bss_end__+0x137e60>
    18a4:	98020500 	stmdals	r2, {r8, sl}
    18a8:	14000092 	strne	r0, [r0], #-146	; 0xffffff6e
    18ac:	05130905 	ldreq	r0, [r3, #-2309]	; 0xfffff6fb
    18b0:	05010610 	streq	r0, [r1, #-1552]	; 0xfffff9f0
    18b4:	052e060f 	streq	r0, [lr, #-1551]!	; 0xfffff9f1
    18b8:	05820610 	streq	r0, [r2, #1552]	; 0x610
    18bc:	11052e0f 	tstne	r5, pc, lsl #28
    18c0:	01040200 	mrseq	r0, R12_usr
    18c4:	1c054b06 			; <UNDEFINED> instruction: 0x1c054b06
    18c8:	01040200 	mrseq	r0, R12_usr
    18cc:	0f052d06 	svceq	0x00052d06
    18d0:	01040200 	mrseq	r0, R12_usr
    18d4:	13052e06 	movwne	r2, #24070	; 0x5e06
    18d8:	01040200 	mrseq	r0, R12_usr
    18dc:	09050106 	stmdbeq	r5, {r1, r2, r8}
    18e0:	01054c06 	tsteq	r5, r6, lsl #24
    18e4:	054a1306 	strbeq	r1, [sl, #-774]	; 0xfffffcfa
    18e8:	052d0609 	streq	r0, [sp, #-1545]!	; 0xfffff9f7
    18ec:	2e130601 	cfmsub32cs	mvax0, mvfx0, mvfx3, mvfx1
    18f0:	01000202 	tsteq	r0, r2, lsl #4
    18f4:	00009d01 	andeq	r9, r0, r1, lsl #26
    18f8:	59000300 	stmdbpl	r0, {r8, r9}
    18fc:	02000000 	andeq	r0, r0, #0, 0
    1900:	0d0efb01 	vstreq	d15, [lr, #-4]
    1904:	01010100 	mrseq	r0, (UNDEF: 17)
    1908:	00000001 	andeq	r0, r0, r1
    190c:	01000001 	tsteq	r0, r1
    1910:	696c2f2e 	stmdbvs	ip!, {r1, r2, r3, r5, r8, r9, sl, fp, sp}^
    1914:	2f006362 	svccs	0x00006362
    1918:	72657355 	rsbvc	r7, r5, #1409286145	; 0x54000001
    191c:	696d2f73 	stmdbvs	sp!, {r0, r1, r4, r5, r6, r8, r9, sl, fp, sp}^
    1920:	2f73656c 	svccs	0x0073656c
    1924:	72756f53 	rsbsvc	r6, r5, #332	; 0x14c
    1928:	632f6563 			; <UNDEFINED> instruction: 0x632f6563
    192c:	30343273 	eorscc	r3, r4, r3, ror r2
    1930:	6c2f786c 	stcvs	8, cr7, [pc], #-432	; 1788 <__code_start__-0x6878>
    1934:	69706269 	ldmdbvs	r0!, {r0, r3, r5, r6, r9, sp, lr}^
    1938:	636e692f 	cmnvs	lr, #770048	; 0xbc000
    193c:	6564756c 	strbvs	r7, [r4, #-1388]!	; 0xfffffa94
    1940:	74730000 	ldrbtvc	r0, [r3], #-0
    1944:	79706372 	ldmdbvc	r0!, {r1, r4, r5, r6, r8, r9, sp, lr}^
    1948:	0100632e 	tsteq	r0, lr, lsr #6
    194c:	70720000 	rsbsvc	r0, r2, r0
    1950:	00682e69 	rsbeq	r2, r8, r9, ror #28
    1954:	00000002 	andeq	r0, r0, r2
    1958:	05002a05 	streq	r2, [r0, #-2565]	; 0xfffff5fb
    195c:	0092dc02 	addseq	sp, r2, r2, lsl #24
    1960:	05051400 	streq	r1, [r5, #-1024]	; 0xfffffc00
    1964:	22051313 	andcs	r1, r5, #1275068416	; 0x4c000000
    1968:	01040200 	mrseq	r0, R12_usr
    196c:	000b052e 	andeq	r0, fp, lr, lsr #10
    1970:	01010402 	tsteq	r1, r2, lsl #8
    1974:	02001505 	andeq	r1, r0, #20971520	; 0x1400000
    1978:	01060104 	tsteq	r6, r4, lsl #2
    197c:	02000b05 	andeq	r0, r0, #5120	; 0x1400
    1980:	052e0104 	streq	r0, [lr, #-260]!	; 0xfffffefc
    1984:	04020013 	streq	r0, [r2], #-19	; 0xffffffed
    1988:	0b052e01 	bleq	14d194 <__bss_end__+0x14374c>
    198c:	01040200 	mrseq	r0, R12_usr
    1990:	0004022e 	andeq	r0, r4, lr, lsr #4
    1994:	00fd0101 	rscseq	r0, sp, r1, lsl #2
    1998:	00030000 	andeq	r0, r3, r0
    199c:	000000bf 	strheq	r0, [r0], -pc	; <UNPREDICTABLE>
    19a0:	0efb0102 	cdpeq	1, 15, cr0, cr11, cr2, {0}
    19a4:	0101000d 	tsteq	r1, sp
    19a8:	00000101 	andeq	r0, r0, r1, lsl #2
    19ac:	00000100 	andeq	r0, r0, r0, lsl #2
    19b0:	6c2f2e01 	stcvs	14, cr2, [pc], #-4	; 19b4 <__code_start__-0x664c>
    19b4:	00636269 	rsbeq	r6, r3, r9, ror #4
    19b8:	6573552f 	ldrbvs	r5, [r3, #-1327]!	; 0xfffffad1
    19bc:	6d2f7372 	stcvs	3, cr7, [pc, #-456]!	; 17fc <__code_start__-0x6804>
    19c0:	73656c69 	cmnvc	r5, #26880	; 0x6900
    19c4:	756f532f 	strbvc	r5, [pc, #-815]!	; 169d <__code_start__-0x6963>
    19c8:	2f656372 	svccs	0x00656372
    19cc:	34327363 	ldrtcc	r7, [r2], #-867	; 0xfffffc9d
    19d0:	2f786c30 	svccs	0x00786c30
    19d4:	7062696c 	rsbvc	r6, r2, ip, ror #18
    19d8:	6e692f69 	cdpvs	15, 6, cr2, cr9, cr9, {3}
    19dc:	64756c63 	ldrbtvs	r6, [r5], #-3171	; 0xfffff39d
    19e0:	6f2f0065 	svcvs	0x002f0065
    19e4:	682f7470 	stmdavs	pc!, {r4, r5, r6, sl, ip, sp, lr}	; <UNPREDICTABLE>
    19e8:	62656d6f 	rsbvs	r6, r5, #7104	; 0x1bc0
    19ec:	2f776572 	svccs	0x00776572
    19f0:	6c6c6543 	cfstr64vs	mvdx6, [ip], #-268	; 0xfffffef4
    19f4:	612f7261 			; <UNDEFINED> instruction: 0x612f7261
    19f8:	6e2d6d72 	mcrvs	13, 1, r6, cr13, cr2, {3}
    19fc:	2d656e6f 	stclcs	14, cr6, [r5, #-444]!	; 0xfffffe44
    1a00:	69626165 	stmdbvs	r2!, {r0, r2, r5, r6, r8, sp, lr}^
    1a04:	392f392d 	stmdbcc	pc!, {r0, r2, r3, r5, r8, fp, ip, sp}	; <UNPREDICTABLE>
    1a08:	3130322d 	teqcc	r0, sp, lsr #4
    1a0c:	2d347139 	ldfcss	f7, [r4, #-228]!	; 0xffffff1c
    1a10:	30317363 	eorscc	r7, r1, r3, ror #6
    1a14:	6c2f6537 	cfstr32vs	mvfx6, [pc], #-220	; 1940 <__code_start__-0x66c0>
    1a18:	672f6269 	strvs	r6, [pc, -r9, ror #4]!
    1a1c:	612f6363 			; <UNDEFINED> instruction: 0x612f6363
    1a20:	6e2d6d72 	mcrvs	13, 1, r6, cr13, cr2, {3}
    1a24:	2d656e6f 	stclcs	14, cr6, [r5, #-444]!	; 0xfffffe44
    1a28:	69626165 	stmdbvs	r2!, {r0, r2, r5, r6, r8, sp, lr}^
    1a2c:	322e392f 	eorcc	r3, lr, #770048	; 0xbc000
    1a30:	692f312e 	stmdbvs	pc!, {r1, r2, r3, r5, r8, ip, sp}	; <UNPREDICTABLE>
    1a34:	756c636e 	strbvc	r6, [ip, #-878]!	; 0xfffffc92
    1a38:	00006564 	andeq	r6, r0, r4, ror #10
    1a3c:	6e727473 	mrcvs	4, 3, r7, cr2, cr3, {3}
    1a40:	2e706d63 	cdpcs	13, 7, cr6, cr0, cr3, {3}
    1a44:	00010063 	andeq	r0, r1, r3, rrx
    1a48:	69707200 	ldmdbvs	r0!, {r9, ip, sp, lr}^
    1a4c:	0200682e 	andeq	r6, r0, #3014656	; 0x2e0000
    1a50:	74730000 	ldrbtvc	r0, [r3], #-0
    1a54:	66656464 	strbtvs	r6, [r5], -r4, ror #8
    1a58:	0300682e 	movweq	r6, #2094	; 0x82e
    1a5c:	05000000 	streq	r0, [r0, #-0]
    1a60:	02050039 	andeq	r0, r5, #57, 0	; 0x39
    1a64:	000092f4 	strdeq	r9, [r0], -r4
    1a68:	13050515 	movwne	r0, #21781	; 0x5515
    1a6c:	060a0513 			; <UNDEFINED> instruction: 0x060a0513
    1a70:	2f0c052e 	svccs	0x000c052e
    1a74:	052e1305 	streq	r1, [lr, #-773]!	; 0xfffffcfb
    1a78:	09052e0b 	stmdbeq	r5, {r0, r1, r3, r9, sl, fp, sp}
    1a7c:	0a054a06 	beq	15429c <__bss_end__+0x14a854>
    1a80:	05010611 	streq	r0, [r1, #-1553]	; 0xfffff9ef
    1a84:	01054e0c 	tsteq	r5, ip, lsl #28
    1a88:	060d052f 	streq	r0, [sp], -pc, lsr #10
    1a8c:	061b052b 	ldreq	r0, [fp], -fp, lsr #10
    1a90:	02022e01 	andeq	r2, r2, #1, 28
    1a94:	8a010100 	bhi	41e9c <__bss_end__+0x38454>
    1a98:	03000000 	movweq	r0, #0
    1a9c:	00006e00 	andeq	r6, r0, r0, lsl #28
    1aa0:	fb010200 	blx	422aa <__bss_end__+0x38862>
    1aa4:	01000d0e 	tsteq	r0, lr, lsl #26
    1aa8:	00010101 	andeq	r0, r1, r1, lsl #2
    1aac:	00010000 	andeq	r0, r1, r0
    1ab0:	2f2e0100 	svccs	0x002e0100
    1ab4:	66617473 			; <UNDEFINED> instruction: 0x66617473
    1ab8:	72732d66 	rsbsvc	r2, r3, #6528	; 0x1980
    1abc:	552f0063 	strpl	r0, [pc, #-99]!	; 1a61 <__code_start__-0x659f>
    1ac0:	73726573 	cmnvc	r2, #482344960	; 0x1cc00000
    1ac4:	6c696d2f 	stclvs	13, cr6, [r9], #-188	; 0xffffff44
    1ac8:	532f7365 			; <UNDEFINED> instruction: 0x532f7365
    1acc:	6372756f 	cmnvs	r2, #465567744	; 0x1bc00000
    1ad0:	73632f65 	cmnvc	r3, #404	; 0x194
    1ad4:	6c303432 	cfldrsvs	mvf3, [r0], #-200	; 0xffffff38
    1ad8:	696c2f78 	stmdbvs	ip!, {r3, r4, r5, r6, r8, r9, sl, fp, sp}^
    1adc:	2f697062 	svccs	0x00697062
    1ae0:	6c636e69 	stclvs	14, cr6, [r3], #-420	; 0xfffffe5c
    1ae4:	00656475 	rsbeq	r6, r5, r5, ror r4
    1ae8:	66656400 	strbtvs	r6, [r5], -r0, lsl #8
    1aec:	746c7561 	strbtvc	r7, [ip], #-1377	; 0xfffffa9f
    1af0:	6265722d 	rsbvs	r7, r5, #-805306366	; 0xd0000002
    1af4:	2d746f6f 	ldclcs	15, cr6, [r4, #-444]!	; 0xfffffe44
    1af8:	6c6c6163 	stfvse	f6, [ip], #-396	; 0xfffffe74
    1afc:	2e74756f 	cdpcs	5, 7, cr7, cr4, cr15, {3}
    1b00:	00010063 	andeq	r0, r1, r3, rrx
    1b04:	69707200 	ldmdbvs	r0!, {r9, ip, sp, lr}^
    1b08:	0200682e 	andeq	r6, r0, #3014656	; 0x2e0000
    1b0c:	05000000 	streq	r0, [r0, #-0]
    1b10:	0205001b 	andeq	r0, r5, #27, 0
    1b14:	00009324 	andeq	r9, r0, r4, lsr #6
    1b18:	011c0514 	tsteq	ip, r4, lsl r5
    1b1c:	01060105 	tsteq	r6, r5, lsl #2
    1b20:	01000202 	tsteq	r0, r2, lsl #4
    1b24:	Address 0x0000000000001b24 is out of bounds.


Disassembly of section .debug_str:

00000000 <.debug_str>:
   0:	6573552f 	ldrbvs	r5, [r3, #-1327]!	; 0xfffffad1
   4:	6d2f7372 	stcvs	3, cr7, [pc, #-456]!	; fffffe44 <__bss_end__+0xffff63fc>
   8:	73656c69 	cmnvc	r5, #26880	; 0x6900
   c:	756f532f 	strbvc	r5, [pc, #-815]!	; fffffce5 <__bss_end__+0xffff629d>
  10:	2f656372 	svccs	0x00656372
  14:	34327363 	ldrtcc	r7, [r2], #-867	; 0xfffffc9d
  18:	2f786c30 	svccs	0x00786c30
  1c:	7362616c 	cmnvc	r2, #27
  20:	772d342f 	strvc	r3, [sp, -pc, lsr #8]!
  24:	31383273 	teqcc	r8, r3, ror r2
  28:	772f6232 			; <UNDEFINED> instruction: 0x772f6232
  2c:	64726965 	ldrbtvs	r6, [r2], #-2405	; 0xfffff69b
  30:	6d69742d 	cfstrdvs	mvd7, [r9, #-180]!	; 0xffffff4c
  34:	00676e69 	rsbeq	r6, r7, r9, ror #28
  38:	6972746e 	ldmdbvs	r2!, {r1, r2, r3, r5, r6, sl, ip, sp, lr}^
  3c:	00736c61 	rsbseq	r6, r3, r1, ror #24
  40:	6d746f6e 	ldclvs	15, cr6, [r4, #-440]!	; 0xfffffe48
  44:	006e6961 	rsbeq	r6, lr, r1, ror #18
  48:	69736e75 	ldmdbvs	r3!, {r0, r2, r4, r5, r6, r9, sl, fp, sp, lr}^
  4c:	64656e67 	strbtvs	r6, [r5], #-3687	; 0xfffff199
  50:	61686320 	cmnvs	r8, r0, lsr #6
  54:	6c630072 	stclvs	0, cr0, [r3], #-456	; 0xfffffe38
  58:	5f6e6165 	svcpl	0x006e6165
  5c:	6f626572 	svcvs	0x00626572
  60:	7300746f 	movwvc	r7, #1135	; 0x46f
  64:	74726f68 	ldrbtvc	r6, [r2], #-3944	; 0xfffff098
  68:	736e7520 	cmnvc	lr, #32, 10	; 0x8000000
  6c:	656e6769 	strbvs	r6, [lr, #-1897]!	; 0xfffff897
  70:	6e692064 	cdpvs	0, 6, cr2, cr9, cr4, {3}
  74:	68630074 	stmdavs	r3!, {r2, r4, r5, r6}^
  78:	5f6b6365 	svcpl	0x006b6365
  7c:	67696c61 	strbvs	r6, [r9, -r1, ror #24]!
  80:	4e47006e 	cdpmi	0, 4, cr0, cr7, cr14, {3}
  84:	39432055 	stmdbcc	r3, {r0, r2, r4, r6, sp}^
  88:	2e392039 	mrccs	0, 1, r2, cr9, cr9, {1}
  8c:	20312e32 	eorscs	r2, r1, r2, lsr lr
  90:	39313032 	ldmdbcc	r1!, {r1, r4, r5, ip, sp}
  94:	35323031 	ldrcc	r3, [r2, #-49]!	; 0xffffffcf
  98:	65722820 	ldrbvs	r2, [r2, #-2080]!	; 0xfffff7e0
  9c:	7361656c 	cmnvc	r1, #108, 10	; 0x1b000000
  a0:	5b202965 	blpl	80a63c <__bss_end__+0x800bf4>
  a4:	2f4d5241 	svccs	0x004d5241
  a8:	2d6d7261 	sfmcs	f7, 2, [sp, #-388]!	; 0xfffffe7c
  ac:	72622d39 	rsbvc	r2, r2, #3648	; 0xe40
  b0:	68636e61 	stmdavs	r3!, {r0, r5, r6, r9, sl, fp, sp, lr}^
  b4:	76657220 	strbtvc	r7, [r5], -r0, lsr #4
  b8:	6f697369 	svcvs	0x00697369
  bc:	3732206e 	ldrcc	r2, [r2, -lr, rrx]!
  c0:	39393537 	ldmdbcc	r9!, {r0, r1, r2, r4, r5, r8, sl, ip, sp}
  c4:	6d2d205d 	stcvs	0, cr2, [sp, #-372]!	; 0xfffffe8c
  c8:	3d757063 	ldclcc	0, cr7, [r5, #-396]!	; 0xfffffe74
  cc:	316d7261 	cmncc	sp, r1, ror #4
  d0:	6a363731 	bvs	d8dd9c <__bss_end__+0xd84354>
  d4:	732d667a 			; <UNDEFINED> instruction: 0x732d667a
  d8:	746d2d20 	strbtvc	r2, [sp], #-3360	; 0xfffff2e0
  dc:	3d656e75 	stclcc	14, cr6, [r5, #-468]!	; 0xfffffe2c
  e0:	316d7261 	cmncc	sp, r1, ror #4
  e4:	6a363731 	bvs	d8ddb0 <__bss_end__+0xd84368>
  e8:	732d667a 			; <UNDEFINED> instruction: 0x732d667a
  ec:	666d2d20 	strbtvs	r2, [sp], -r0, lsr #26
  f0:	74616f6c 	strbtvc	r6, [r1], #-3948	; 0xfffff094
  f4:	6962612d 	stmdbvs	r2!, {r0, r2, r3, r5, r8, sp, lr}^
  f8:	666f733d 			; <UNDEFINED> instruction: 0x666f733d
  fc:	6d2d2074 	stcvs	0, cr2, [sp, #-464]!	; 0xfffffe30
 100:	206d7261 	rsbcs	r7, sp, r1, ror #4
 104:	72616d2d 	rsbvc	r6, r1, #2880	; 0xb40
 108:	613d6863 	teqvs	sp, r3, ror #16
 10c:	36766d72 			; <UNDEFINED> instruction: 0x36766d72
 110:	2d207a6b 	vstmdbcs	r0!, {s14-s120}
 114:	62646767 	rsbvs	r6, r4, #27000832	; 0x19c0000
 118:	334f2d20 	movtcc	r2, #64800	; 0xfd20
 11c:	74732d20 	ldrbtvc	r2, [r3], #-3360	; 0xfffff2e0
 120:	6e673d64 	cdpvs	13, 6, cr3, cr7, cr4, {3}
 124:	20393975 	eorscs	r3, r9, r5, ror r9
 128:	7266662d 	rsbvc	r6, r6, #47185920	; 0x2d00000
 12c:	74736565 	ldrbtvc	r6, [r3], #-1381	; 0xfffffa9b
 130:	69646e61 	stmdbvs	r4!, {r0, r5, r6, r9, sl, fp, sp, lr}^
 134:	5f00676e 	svcpl	0x0000676e
 138:	4e55465f 	mrcmi	6, 2, r4, cr5, cr15, {2}
 13c:	4f495443 	svcmi	0x00495443
 140:	005f5f4e 	subseq	r5, pc, lr, asr #30
 144:	74756f5f 	ldrbtvc	r6, [r5], #-3935	; 0xfffff0a1
 148:	6e6f6c00 	cdpvs	12, 6, cr6, cr15, cr0, {0}
 14c:	6f6c2067 	svcvs	0x006c2067
 150:	7520676e 	strvc	r6, [r0, #-1902]!	; 0xfffff892
 154:	6769736e 	strbvs	r7, [r9, -lr, ror #6]!
 158:	2064656e 	rsbcs	r6, r4, lr, ror #10
 15c:	00746e69 	rsbseq	r6, r4, r9, ror #28
 160:	7265766f 	rsbvc	r7, r5, #116391936	; 0x6f00000
 164:	64616568 	strbtvs	r6, [r1], #-1384	; 0xfffffa98
 168:	6e6f6c00 	cdpvs	12, 6, cr6, cr15, cr0, {0}
 16c:	6f6c2067 	svcvs	0x006c2067
 170:	6920676e 	stmdbvs	r0!, {r1, r2, r3, r5, r6, r8, r9, sl, sp, lr}
 174:	7200746e 	andvc	r7, r0, #1845493760	; 0x6e000000
 178:	705f6970 	subsvc	r6, pc, r0, ror r9	; <UNPREDICTABLE>
 17c:	68637475 	stmdavs	r3!, {r0, r2, r4, r5, r6, sl, ip, sp, lr}^
 180:	77007261 	strvc	r7, [r0, -r1, ror #4]
 184:	64726965 	ldrbtvs	r6, [r2], #-2405	; 0xfffff69b
 188:	6d69742d 	cfstrdvs	mvd7, [r9, #-180]!	; 0xffffff4c
 18c:	2e676e69 	cdpcs	14, 6, cr6, cr7, cr9, {3}
 190:	68730063 	ldmdavs	r3!, {r0, r1, r5, r6}^
 194:	2074726f 	rsbscs	r7, r4, pc, ror #4
 198:	00746e69 	rsbseq	r6, r4, r9, ror #28
 19c:	62616e65 	rsbvs	r6, r1, #1616	; 0x650
 1a0:	635f656c 	cmpvs	pc, #108, 10	; 0x1b000000
 1a4:	65686361 	strbvs	r6, [r8, #-865]!	; 0xfffffc9f
 1a8:	69707200 	ldmdbvs	r0!, {r9, ip, sp, lr}^
 1ac:	7365725f 	cmnvc	r5, #-268435451	; 0xf0000005
 1b0:	705f7465 	subsvc	r7, pc, r5, ror #8
 1b4:	00637475 	rsbeq	r7, r3, r5, ror r4
 1b8:	73677261 	cmnvc	r7, #268435462	; 0x10000006
 1bc:	5f617600 	svcpl	0x00617600
 1c0:	6e697270 	mcrvs	2, 3, r7, cr9, cr0, {3}
 1c4:	5f006b74 	svcpl	0x00006b74
 1c8:	756e675f 	strbvc	r6, [lr, #-1887]!	; 0xfffff8a1
 1cc:	61765f63 	cmnvs	r6, r3, ror #30
 1d0:	73696c5f 	cmnvc	r9, #24320	; 0x5f00
 1d4:	4e470074 	mcrmi	0, 2, r0, cr7, cr4, {3}
 1d8:	39432055 	stmdbcc	r3, {r0, r2, r4, r6, sp}^
 1dc:	2e392039 	mrccs	0, 1, r2, cr9, cr9, {1}
 1e0:	20312e32 	eorscs	r2, r1, r2, lsr lr
 1e4:	39313032 	ldmdbcc	r1!, {r1, r4, r5, ip, sp}
 1e8:	35323031 	ldrcc	r3, [r2, #-49]!	; 0xffffffcf
 1ec:	65722820 	ldrbvs	r2, [r2, #-2080]!	; 0xfffff7e0
 1f0:	7361656c 	cmnvc	r1, #108, 10	; 0x1b000000
 1f4:	5b202965 	blpl	80a790 <__bss_end__+0x800d48>
 1f8:	2f4d5241 	svccs	0x004d5241
 1fc:	2d6d7261 	sfmcs	f7, 2, [sp, #-388]!	; 0xfffffe7c
 200:	72622d39 	rsbvc	r2, r2, #3648	; 0xe40
 204:	68636e61 	stmdavs	r3!, {r0, r5, r6, r9, sl, fp, sp, lr}^
 208:	76657220 	strbtvc	r7, [r5], -r0, lsr #4
 20c:	6f697369 	svcvs	0x00697369
 210:	3732206e 	ldrcc	r2, [r2, -lr, rrx]!
 214:	39393537 	ldmdbcc	r9!, {r0, r1, r2, r4, r5, r8, sl, ip, sp}
 218:	6d2d205d 	stcvs	0, cr2, [sp, #-372]!	; 0xfffffe8c
 21c:	3d757063 	ldclcc	0, cr7, [r5, #-396]!	; 0xfffffe74
 220:	316d7261 	cmncc	sp, r1, ror #4
 224:	6a363731 	bvs	d8def0 <__bss_end__+0xd844a8>
 228:	732d667a 			; <UNDEFINED> instruction: 0x732d667a
 22c:	746d2d20 	strbtvc	r2, [sp], #-3360	; 0xfffff2e0
 230:	3d656e75 	stclcc	14, cr6, [r5, #-468]!	; 0xfffffe2c
 234:	316d7261 	cmncc	sp, r1, ror #4
 238:	6a363731 	bvs	d8df04 <__bss_end__+0xd844bc>
 23c:	732d667a 			; <UNDEFINED> instruction: 0x732d667a
 240:	666d2d20 	strbtvs	r2, [sp], -r0, lsr #26
 244:	74616f6c 	strbtvc	r6, [r1], #-3948	; 0xfffff094
 248:	6962612d 	stmdbvs	r2!, {r0, r2, r3, r5, r8, sp, lr}^
 24c:	666f733d 			; <UNDEFINED> instruction: 0x666f733d
 250:	6d2d2074 	stcvs	0, cr2, [sp, #-464]!	; 0xfffffe30
 254:	206d7261 	rsbcs	r7, sp, r1, ror #4
 258:	72616d2d 	rsbvc	r6, r1, #2880	; 0xb40
 25c:	613d6863 	teqvs	sp, r3, ror #16
 260:	36766d72 			; <UNDEFINED> instruction: 0x36766d72
 264:	2d207a6b 	vstmdbcs	r0!, {s14-s120}
 268:	62646767 	rsbvs	r6, r4, #27000832	; 0x19c0000
 26c:	664f2d20 	strbvs	r2, [pc], -r0, lsr #26
 270:	20747361 	rsbscs	r7, r4, r1, ror #6
 274:	6474732d 	ldrbtvs	r7, [r4], #-813	; 0xfffffcd3
 278:	756e673d 	strbvc	r6, [lr, #-1853]!	; 0xfffff8c3
 27c:	2d203939 			; <UNDEFINED> instruction: 0x2d203939
 280:	65726666 	ldrbvs	r6, [r2, #-1638]!	; 0xfffff99a
 284:	61747365 	cmnvs	r4, r5, ror #6
 288:	6e69646e 	cdpvs	4, 6, cr6, cr9, cr14, {3}
 28c:	5f5f0067 	svcpl	0x005f0067
 290:	2e007061 	cdpcs	0, 0, cr7, cr0, cr1, {3}
 294:	62696c2f 	rsbvs	r6, r9, #12032	; 0x2f00
 298:	72702f63 	rsbsvc	r2, r0, #396	; 0x18c
 29c:	6b746e69 	blvs	1d1bc48 <__bss_end__+0x1d12200>
 2a0:	5f00632e 	svcpl	0x0000632e
 2a4:	5f61765f 	svcpl	0x0061765f
 2a8:	7473696c 	ldrbtvc	r6, [r3], #-2412	; 0xfffff694
 2ac:	73552f00 	cmpvc	r5, #0, 30
 2b0:	2f737265 	svccs	0x00737265
 2b4:	656c696d 	strbvs	r6, [ip, #-2413]!	; 0xfffff693
 2b8:	6f532f73 	svcvs	0x00532f73
 2bc:	65637275 	strbvs	r7, [r3, #-629]!	; 0xfffffd8b
 2c0:	3273632f 	rsbscc	r6, r3, #-1140850688	; 0xbc000000
 2c4:	786c3034 	stmdavc	ip!, {r2, r4, r5, ip, sp}^
 2c8:	62696c2f 	rsbvs	r6, r9, #12032	; 0x2f00
 2cc:	69006970 	stmdbvs	r0, {r4, r5, r6, r8, fp, sp, lr}
 2d0:	7265746e 	rsbvc	r7, r5, #1845493760	; 0x6e000000
 2d4:	5f6c616e 	svcpl	0x006c616e
 2d8:	63747570 	cmnvs	r4, #112, 10	; 0x1c000000
 2dc:	00726168 	rsbseq	r6, r2, r8, ror #2
 2e0:	5f697072 	svcpl	0x00697072
 2e4:	5f746573 	svcpl	0x00746573
 2e8:	63747570 	cmnvs	r4, #112, 10	; 0x1c000000
 2ec:	6c2f2e00 	stcvs	14, cr2, [pc], #-0	; 2f4 <__code_start__-0x7d0c>
 2f0:	2f636269 	svccs	0x00636269
 2f4:	63747570 	cmnvs	r4, #112, 10	; 0x1c000000
 2f8:	2e726168 	rpwcssz	f6, f2, #0.0
 2fc:	61750063 	cmnvs	r5, r3, rrx
 300:	705f7472 	subsvc	r7, pc, r2, ror r4	; <UNPREDICTABLE>
 304:	00637475 	rsbeq	r7, r3, r5, ror r4
 308:	65746e69 	ldrbvs	r6, [r4, #-3689]!	; 0xfffff197
 30c:	6c616e72 	stclvs	14, cr6, [r1], #-456	; 0xfffffe38
 310:	7475705f 	ldrbtvc	r7, [r5], #-95	; 0xffffffa1
 314:	2f2e006b 	svccs	0x002e006b
 318:	6362696c 	cmnvs	r2, #108, 18	; 0x1b0000
 31c:	7475702f 	ldrbtvc	r7, [r5], #-47	; 0xffffffd1
 320:	00632e6b 	rsbeq	r2, r3, fp, ror #28
 324:	69647369 	stmdbvs	r4!, {r0, r3, r5, r6, r8, r9, ip, sp, lr}^
 328:	00746967 	rsbseq	r6, r4, r7, ror #18
 32c:	746e6975 	strbtvc	r6, [lr], #-2421	; 0xfffff68b
 330:	745f3436 	ldrbvc	r3, [pc], #-1078	; 338 <__code_start__-0x7cc8>
 334:	6c2f2e00 	stcvs	14, cr2, [pc], #-0	; 33c <__code_start__-0x7cc4>
 338:	2f636269 	svccs	0x00636269
 33c:	702d6176 	eorvc	r6, sp, r6, ror r1
 340:	746e6972 	strbtvc	r6, [lr], #-2418	; 0xfffff68e
 344:	00632e6b 	rsbeq	r2, r3, fp, ror #28
 348:	6f635f5f 	svcvs	0x00635f5f
 34c:	735f6564 	cmpvc	pc, #100, 10	; 0x19000000
 350:	74726174 	ldrbtvc	r6, [r2], #-372	; 0xfffffe8c
 354:	5f005f5f 	svcpl	0x00005f5f
 358:	7373625f 	cmnvc	r3, #-268435451	; 0xf0000005
 35c:	6174735f 	cmnvs	r4, pc, asr r3
 360:	5f5f7472 	svcpl	0x005f7472
 364:	64697700 	strbtvs	r7, [r9], #-1792	; 0xfffff900
 368:	5f006874 	svcpl	0x00006874
 36c:	7461645f 	strbtvc	r6, [r1], #-1119	; 0xfffffba1
 370:	6e655f61 	cdpvs	15, 6, cr5, cr5, cr1, {3}
 374:	005f5f64 	subseq	r5, pc, r4, ror #30
 378:	63747570 	cmnvs	r4, #112, 10	; 0x1c000000
 37c:	0070665f 	rsbseq	r6, r0, pc, asr r6
 380:	73625f5f 	cmnvc	r2, #380	; 0x17c
 384:	6e655f73 	mcrvs	15, 3, r5, cr5, cr3, {3}
 388:	005f5f64 	subseq	r5, pc, r4, ror #30
 38c:	65685f5f 	strbvs	r5, [r8, #-3935]!	; 0xfffff0a1
 390:	735f7061 	cmpvc	pc, #97, 0	; 0x61
 394:	74726174 	ldrbtvc	r6, [r2], #-372	; 0xfffffe8c
 398:	75005f5f 	strvc	r5, [r0, #-3935]	; 0xfffff0a1
 39c:	33746e69 	cmncc	r4, #1680	; 0x690
 3a0:	00745f32 	rsbseq	r5, r4, r2, lsr pc
 3a4:	5f697072 	svcpl	0x00697072
 3a8:	5f746573 	svcpl	0x00746573
 3ac:	7074756f 	rsbsvc	r7, r4, pc, ror #10
 3b0:	66007475 			; <UNDEFINED> instruction: 0x66007475
 3b4:	735f746d 	cmpvc	pc, #1828716544	; 0x6d000000
 3b8:	74726174 	ldrbtvc	r6, [r2], #-372	; 0xfffffe8c
 3bc:	72747300 	rsbsvc	r7, r4, #0, 6
 3c0:	00746163 	rsbseq	r6, r4, r3, ror #2
 3c4:	63727473 	cmnvs	r2, #1929379840	; 0x73000000
 3c8:	6e007970 			; <UNDEFINED> instruction: 0x6e007970
 3cc:	705f6765 	subsvc	r6, pc, r5, ror #14
 3d0:	635f5f00 	cmpvs	pc, #0, 30
 3d4:	5f65646f 	svcpl	0x0065646f
 3d8:	5f646e65 	svcpl	0x00646e65
 3dc:	6d65005f 	stclvs	0, cr0, [r5, #-380]!	; 0xfffffe84
 3e0:	72007469 	andvc	r7, r0, #1761607680	; 0x69000000
 3e4:	72657665 	rsbvc	r7, r5, #105906176	; 0x6500000
 3e8:	73006573 	movwvc	r6, #1395	; 0x573
 3ec:	6d637274 	sfmvs	f7, 2, [r3, #-464]!	; 0xfffffe30
 3f0:	75700070 	ldrbvc	r0, [r0, #-112]!	; 0xffffff90
 3f4:	665f7374 			; <UNDEFINED> instruction: 0x665f7374
 3f8:	5f5f0070 	svcpl	0x005f0070
 3fc:	61746164 	cmnvs	r4, r4, ror #2
 400:	6174735f 	cmnvs	r4, pc, asr r3
 404:	5f5f7472 	svcpl	0x005f7472
 408:	705f5f00 	subsvc	r5, pc, r0, lsl #30
 40c:	5f676f72 	svcpl	0x00676f72
 410:	5f646e65 	svcpl	0x00646e65
 414:	756e005f 	strbvc	r0, [lr, #-95]!	; 0xffffffa1
 418:	7300316d 	movwvc	r3, #365	; 0x16d
 41c:	636e7274 	cmnvs	lr, #116, 4	; 0x40000007
 420:	6200706d 	andvs	r7, r0, #109, 0	; 0x6d
 424:	00657361 	rsbeq	r7, r5, r1, ror #6
 428:	6e676973 			; <UNDEFINED> instruction: 0x6e676973
 42c:	705f6465 	subsvc	r6, pc, r5, ror #8
 430:	73696400 	cmnvc	r9, #0, 8
 434:	656c6261 	strbvs	r6, [ip, #-609]!	; 0xfffffd9f
 438:	6361635f 	cmnvs	r1, #2080374785	; 0x7c000001
 43c:	2e006568 	cfsh32cs	mvfx6, mvfx0, #56
 440:	6174732f 	cmnvs	r4, pc, lsr #6
 444:	732d6666 			; <UNDEFINED> instruction: 0x732d6666
 448:	632f6372 			; <UNDEFINED> instruction: 0x632f6372
 44c:	65686361 	strbvs	r6, [r8, #-865]!	; 0xfffffc9f
 450:	7200632e 	andvc	r6, r0, #-1207959552	; 0xb8000000
 454:	725f6970 	subsvc	r6, pc, #112, 18	; 0x1c0000
 458:	6f6f6265 	svcvs	0x006f6265
 45c:	65640074 	strbvs	r0, [r4, #-116]!	; 0xffffff8c
 460:	5f79616c 	svcpl	0x0079616c
 464:	2e00736d 	cdpcs	3, 0, cr7, cr0, cr13, {3}
 468:	6174732f 	cmnvs	r4, pc, lsr #6
 46c:	732d6666 			; <UNDEFINED> instruction: 0x732d6666
 470:	632f6372 			; <UNDEFINED> instruction: 0x632f6372
 474:	6e61656c 	cdpvs	5, 6, cr6, cr1, cr12, {3}
 478:	6265722d 	rsbvs	r7, r5, #-805306366	; 0xd0000002
 47c:	2e746f6f 	cdpcs	15, 7, cr6, cr4, cr15, {3}
 480:	61750063 	cmnvs	r5, r3, rrx
 484:	665f7472 			; <UNDEFINED> instruction: 0x665f7472
 488:	6873756c 	ldmdavs	r3!, {r2, r3, r5, r6, r8, sl, ip, sp, lr}^
 48c:	0078745f 	rsbseq	r7, r8, pc, asr r4
 490:	7473635f 	ldrbtvc	r6, [r3], #-863	; 0xfffffca1
 494:	00747261 	rsbseq	r7, r4, r1, ror #4
 498:	5f737362 	svcpl	0x00737362
 49c:	00646e65 	rsbeq	r6, r4, r5, ror #28
 4a0:	74726175 	ldrbtvc	r6, [r2], #-373	; 0xfffffe8b
 4a4:	696e695f 	stmdbvs	lr!, {r0, r1, r2, r3, r4, r6, r8, fp, sp, lr}^
 4a8:	75630074 	strbvc	r0, [r3, #-116]!	; 0xffffff8c
 4ac:	6d6f7473 	cfstrdvs	mvd7, [pc, #-460]!	; 2e8 <__code_start__-0x7d18>
 4b0:	616f6c5f 	cmnvs	pc, pc, asr ip	; <UNPREDICTABLE>
 4b4:	00726564 	rsbseq	r6, r2, r4, ror #10
 4b8:	74732f2e 	ldrbtvc	r2, [r3], #-3886	; 0xfffff0d2
 4bc:	2d666661 	stclcs	6, cr6, [r6, #-388]!	; 0xfffffe7c
 4c0:	2f637273 	svccs	0x00637273
 4c4:	61747363 	cmnvs	r4, r3, ror #6
 4c8:	632e7472 			; <UNDEFINED> instruction: 0x632e7472
 4cc:	732f2e00 			; <UNDEFINED> instruction: 0x732f2e00
 4d0:	66666174 			; <UNDEFINED> instruction: 0x66666174
 4d4:	6372732d 	cmnvs	r2, #-1275068416	; 0xb4000000
 4d8:	7375632f 	cmnvc	r5, #-1140850688	; 0xbc000000
 4dc:	2d6d6f74 	stclcs	15, cr6, [sp, #-464]!	; 0xfffffe30
 4e0:	64616f6c 	strbtvs	r6, [r1], #-3948	; 0xfffff094
 4e4:	632e7265 			; <UNDEFINED> instruction: 0x632e7265
 4e8:	62657200 	rsbvs	r7, r5, #0, 4
 4ec:	5f746f6f 	svcpl	0x00746f6f
 4f0:	6c6c6163 	stfvse	f6, [ip], #-396	; 0xfffffe74
 4f4:	0074756f 	rsbseq	r7, r4, pc, ror #10
 4f8:	575f4d50 			; <UNDEFINED> instruction: 0x575f4d50
 4fc:	00474f44 	subeq	r4, r7, r4, asr #30
 500:	33545550 	cmpcc	r4, #80, 10	; 0x14000000
 504:	65730032 	ldrbvs	r0, [r3, #-50]!	; 0xffffffce
 508:	73755f74 	cmnvc	r5, #116, 30	; 0x1d0
 50c:	6c5f7265 	lfmvs	f7, 2, [pc], {101}	; 0x65
 510:	6c657665 	stclvs	6, cr7, [r5], #-404	; 0xfffffe6c
 514:	732f2e00 			; <UNDEFINED> instruction: 0x732f2e00
 518:	66666174 			; <UNDEFINED> instruction: 0x66666174
 51c:	6372732d 	cmnvs	r2, #-1275068416	; 0xb4000000
 520:	6265722f 	rsbvs	r7, r5, #-268435454	; 0xf0000002
 524:	2e746f6f 	cdpcs	15, 7, cr6, cr4, cr15, {3}
 528:	4d500063 	ldclmi	0, cr0, [r0, #-396]	; 0xfffffe74
 52c:	5341505f 	movtpl	r5, #4191	; 0x105f
 530:	524f5753 	subpl	r5, pc, #21757952	; 0x14c0000
 534:	74610044 	strbtvc	r0, [r1], #-68	; 0xffffffbc
 538:	6573755f 	ldrbvs	r7, [r3, #-1375]!	; 0xfffffaa1
 53c:	656c5f72 	strbvs	r5, [ip, #-3954]!	; 0xfffff08e
 540:	006c6576 	rsbeq	r6, ip, r6, ror r5
 544:	525f4d50 	subspl	r4, pc, #80, 26	; 0x1400
 548:	5f435453 	svcpl	0x00435453
 54c:	46435257 			; <UNDEFINED> instruction: 0x46435257
 550:	55465f47 	strbpl	r5, [r6, #-3911]	; 0xfffff0b9
 554:	525f4c4c 	subspl	r4, pc, #76, 24	; 0x4c00
 558:	54455345 	strbpl	r5, [r5], #-837	; 0xfffffcbb
 55c:	5f4d5000 	svcpl	0x004d5000
 560:	43545352 	cmpmi	r4, #1207959553	; 0x48000001
 564:	73706300 	cmnvc	r0, #0, 6
 568:	65640072 	strbvs	r0, [r4, #-114]!	; 0xffffff8e
 56c:	61625f76 	smcvs	9718	; 0x25f6
 570:	65697272 	strbvs	r7, [r9, #-626]!	; 0xfffffd8e
 574:	65640072 	strbvs	r0, [r4, #-114]!	; 0xffffff8e
 578:	5f79616c 	svcpl	0x0079616c
 57c:	00636573 	rsbeq	r6, r3, r3, ror r5
 580:	74732f2e 	ldrbtvc	r2, [r3], #-3886	; 0xfffff0d2
 584:	2d666661 	stclcs	6, cr6, [r6, #-388]!	; 0xfffffe7c
 588:	2f637273 	svccs	0x00637273
 58c:	656d6974 	strbvs	r6, [sp, #-2420]!	; 0xfffff68c
 590:	00632e72 	rsbeq	r2, r3, r2, ror lr
 594:	33544547 	cmpcc	r4, #297795584	; 0x11c00000
 598:	69740032 	ldmdbvs	r4!, {r1, r4, r5}^
 59c:	5f72656d 	svcpl	0x0072656d
 5a0:	5f746567 	svcpl	0x00746567
 5a4:	63657375 	cmnvs	r5, #-738197503	; 0xd4000001
 5a8:	6c656400 	cfstrdvs	mvd6, [r5], #-0
 5ac:	755f7961 	ldrbvc	r7, [pc, #-2401]	; fffffc53 <__bss_end__+0xffff620b>
 5b0:	69740073 	ldmdbvs	r4!, {r0, r1, r4, r5, r6}^
 5b4:	5f72656d 	svcpl	0x0072656d
 5b8:	5f746567 	svcpl	0x00746567
 5bc:	63657375 	cmnvs	r5, #-738197503	; 0xd4000001
 5c0:	7761725f 			; <UNDEFINED> instruction: 0x7761725f
 5c4:	75616200 	strbvc	r6, [r1, #-512]!	; 0xfffffe00
 5c8:	61765f64 	cmnvs	r6, r4, ror #30
 5cc:	7473006c 	ldrbtvc	r0, [r3], #-108	; 0xffffff94
 5d0:	75007461 	strvc	r7, [r0, #-1121]	; 0xfffffb9f
 5d4:	5f747261 	svcpl	0x00747261
 5d8:	5f6e6163 	svcpl	0x006e6163
 5dc:	63746567 	cmnvs	r4, #432013312	; 0x19c00000
 5e0:	49504700 	ldmdbmi	r0, {r8, r9, sl, lr}^
 5e4:	55465f4f 	strbpl	r5, [r6, #-3919]	; 0xfffff0b1
 5e8:	4f5f434e 	svcmi	0x005f434e
 5ec:	55505455 	ldrbpl	r5, [r0, #-1109]	; 0xfffffbab
 5f0:	61750054 	cmnvs	r5, r4, asr r0
 5f4:	632e7472 			; <UNDEFINED> instruction: 0x632e7472
 5f8:	72617500 	rsbvc	r7, r1, #0, 10
 5fc:	61635f74 	smcvs	13812	; 0x35f4
 600:	75705f6e 	ldrbvc	r5, [r0, #-3950]!	; 0xfffff092
 604:	75006374 	strvc	r6, [r0, #-884]	; 0xfffffc8c
 608:	00747261 	rsbseq	r7, r4, r1, ror #4
 60c:	72646461 	rsbvc	r6, r4, #1627389952	; 0x61000000
 610:	72617500 	rsbvc	r7, r1, #0, 10
 614:	78745f74 	ldmdavc	r4!, {r2, r4, r5, r6, r8, r9, sl, fp, ip, lr}^
 618:	5f73695f 	svcpl	0x0073695f
 61c:	74706d65 	ldrbtvc	r6, [r0], #-3429	; 0xfffff29b
 620:	50470079 	subpl	r0, r7, r9, ror r0
 624:	465f4f49 	ldrbmi	r4, [pc], -r9, asr #30
 628:	5f434e55 	svcpl	0x00434e55
 62c:	30544c41 	subscc	r4, r4, r1, asr #24
 630:	49504700 	ldmdbmi	r0, {r8, r9, sl, lr}^
 634:	55465f4f 	strbpl	r5, [r6, #-3919]	; 0xfffff0b1
 638:	415f434e 	cmpmi	pc, lr, asr #6
 63c:	0031544c 	eorseq	r5, r1, ip, asr #8
 640:	4f495047 	svcmi	0x00495047
 644:	4e55465f 	mrcmi	6, 2, r4, cr5, cr15, {2}
 648:	4c415f43 	mcrrmi	15, 4, r5, r1, cr3
 64c:	47003254 	smlsdmi	r0, r4, r2, r3
 650:	5f4f4950 	svcpl	0x004f4950
 654:	434e5546 	movtmi	r5, #58694	; 0xe546
 658:	544c415f 	strbpl	r4, [ip], #-351	; 0xfffffea1
 65c:	50470033 	subpl	r0, r7, r3, lsr r0
 660:	465f4f49 	ldrbmi	r4, [pc], -r9, asr #30
 664:	5f434e55 	svcpl	0x00434e55
 668:	35544c41 	ldrbcc	r4, [r4, #-3137]	; 0xfffff3bf
 66c:	74757000 	ldrbtvc	r7, [r5], #-0
 670:	62003233 	andvs	r3, r0, #805306371	; 0x30000003
 674:	00647561 	rsbeq	r7, r4, r1, ror #10
 678:	5f787561 	svcpl	0x00787561
 67c:	62616e65 	rsbvs	r6, r1, #1616	; 0x650
 680:	0073656c 	rsbseq	r6, r3, ip, ror #10
 684:	74726175 	ldrbtvc	r6, [r2], #-373	; 0xfffffe8b
 688:	7465675f 	strbtvc	r6, [r5], #-1887	; 0xfffff8a1
 68c:	4e470063 	cdpmi	0, 4, cr0, cr7, cr3, {3}
 690:	39432055 	stmdbcc	r3, {r0, r2, r4, r6, sp}^
 694:	30312039 	eorscc	r2, r1, r9, lsr r0
 698:	312e332e 			; <UNDEFINED> instruction: 0x312e332e
 69c:	32303220 	eorscc	r3, r0, #32, 4
 6a0:	32383031 	eorscc	r3, r8, #49, 0	; 0x31
 6a4:	72282034 	eorvc	r2, r8, #52, 0	; 0x34
 6a8:	61656c65 	cmnvs	r5, r5, ror #24
 6ac:	20296573 	eorcs	r6, r9, r3, ror r5
 6b0:	70636d2d 	rsbvc	r6, r3, sp, lsr #26
 6b4:	72613d75 	rsbvc	r3, r1, #7488	; 0x1d40
 6b8:	3731316d 	ldrcc	r3, [r1, -sp, ror #2]!
 6bc:	667a6a36 			; <UNDEFINED> instruction: 0x667a6a36
 6c0:	2d20732d 	stccs	3, cr7, [r0, #-180]!	; 0xffffff4c
 6c4:	6e75746d 	cdpvs	4, 7, cr7, cr5, cr13, {3}
 6c8:	72613d65 	rsbvc	r3, r1, #6464	; 0x1940
 6cc:	3731316d 	ldrcc	r3, [r1, -sp, ror #2]!
 6d0:	667a6a36 			; <UNDEFINED> instruction: 0x667a6a36
 6d4:	2d20732d 	stccs	3, cr7, [r0, #-180]!	; 0xffffff4c
 6d8:	6f6c666d 	svcvs	0x006c666d
 6dc:	612d7461 			; <UNDEFINED> instruction: 0x612d7461
 6e0:	733d6962 	teqvc	sp, #1605632	; 0x188000
 6e4:	2074666f 	rsbscs	r6, r4, pc, ror #12
 6e8:	72616d2d 	rsbvc	r6, r1, #2880	; 0xb40
 6ec:	6d2d206d 	stcvs	0, cr2, [sp, #-436]!	; 0xfffffe4c
 6f0:	68637261 	stmdavs	r3!, {r0, r5, r6, r9, ip, sp, lr}^
 6f4:	6d72613d 	ldfvse	f6, [r2, #-244]!	; 0xffffff0c
 6f8:	7a6b3676 	bvc	1ace0d8 <__bss_end__+0x1ac4690>
 6fc:	67672d20 	strbvs	r2, [r7, -r0, lsr #26]!
 700:	2d206264 	sfmcs	f6, 4, [r0, #-400]!	; 0xfffffe70
 704:	2d20674f 	stccs	7, cr6, [r0, #-316]!	; 0xfffffec4
 708:	3d647473 	cfstrdcc	mvd7, [r4, #-460]!	; 0xfffffe34
 70c:	39756e67 	ldmdbcc	r5!, {r0, r1, r2, r5, r6, r9, sl, fp, sp, lr}^
 710:	662d2039 			; <UNDEFINED> instruction: 0x662d2039
 714:	65657266 	strbvs	r7, [r5, #-614]!	; 0xfffffd9a
 718:	6e617473 	mcrvs	4, 3, r7, cr1, cr3, {3}
 71c:	676e6964 	strbvs	r6, [lr, -r4, ror #18]!
 720:	746e6300 	strbtvc	r6, [lr], #-768	; 0xfffffd00
 724:	6175006c 	cmnvs	r5, ip, rrx
 728:	645f7472 	ldrbvs	r7, [pc], #-1138	; 730 <__code_start__-0x78d0>
 72c:	62617369 	rsbvs	r7, r1, #-1543503871	; 0xa4000001
 730:	7500656c 	strvc	r6, [r0, #-1388]	; 0xfffffa94
 734:	5f747261 	svcpl	0x00747261
 738:	5f736168 	svcpl	0x00736168
 73c:	61746164 	cmnvs	r4, r4, ror #2
 740:	49504700 	ldmdbmi	r0, {r8, r9, sl, lr}^
 744:	55465f4f 	strbpl	r5, [r6, #-3919]	; 0xfffff0b1
 748:	415f434e 	cmpmi	pc, lr, asr #6
 74c:	0034544c 	eorseq	r5, r4, ip, asr #8
 750:	695f726f 	ldmdbvs	pc, {r0, r1, r2, r3, r5, r6, r9, ip, sp, lr}^	; <UNPREDICTABLE>
 754:	0032336e 	eorseq	r3, r2, lr, ror #6
 758:	61726373 	cmnvs	r2, r3, ror r3
 75c:	00686374 	rsbeq	r6, r8, r4, ror r3
 760:	5f787561 	svcpl	0x00787561
 764:	69726570 	ldmdbvs	r2!, {r4, r5, r6, r8, sl, sp, lr}^
 768:	00736870 	rsbseq	r6, r3, r0, ror r8
 76c:	6d6f682f 	stclvs	8, cr6, [pc, #-188]!	; 6b8 <__code_start__-0x7948>
 770:	6e652f65 	cdpvs	15, 6, cr2, cr5, cr5, {3}
 774:	72656c67 	rsbvc	r6, r5, #26368	; 0x6700
 778:	616c632f 	cmnvs	ip, pc, lsr #6
 77c:	632f7373 			; <UNDEFINED> instruction: 0x632f7373
 780:	30343173 	eorscc	r3, r4, r3, ror r1
 784:	32322d65 	eorscc	r2, r2, #6464	; 0x1940
 788:	2f6e6977 	svccs	0x006e6977
 78c:	7062696c 	rsbvc	r6, r2, ip, ror #18
 790:	74732f69 	ldrbtvc	r2, [r3], #-3945	; 0xfffff097
 794:	2d666661 	stclcs	6, cr6, [r6, #-388]!	; 0xfffffe7c
 798:	76697270 			; <UNDEFINED> instruction: 0x76697270
 79c:	00657461 	rsbeq	r7, r5, r1, ror #8
 7a0:	5f646e61 	svcpl	0x00646e61
 7a4:	32336e69 	eorscc	r6, r3, #1680	; 0x690
 7a8:	49504700 	ldmdbmi	r0, {r8, r9, sl, lr}^
 7ac:	55465f4f 	strbpl	r5, [r6, #-3919]	; 0xfffff0b1
 7b0:	495f434e 	ldmdbmi	pc, {r1, r2, r3, r6, r8, r9, lr}^	; <UNPREDICTABLE>
 7b4:	5455504e 	ldrbpl	r5, [r5], #-78	; 0xffffffb2
 7b8:	69706700 	ldmdbvs	r0!, {r8, r9, sl, sp, lr}^
 7bc:	65735f6f 	ldrbvs	r5, [r3, #-3951]!	; 0xfffff091
 7c0:	75665f74 	strbvc	r5, [r6, #-3956]!	; 0xfffff08c
 7c4:	6974636e 	ldmdbvs	r4!, {r1, r2, r3, r5, r6, r8, r9, sp, lr}^
 7c8:	67006e6f 	strvs	r6, [r0, -pc, ror #28]
 7cc:	32337465 	eorscc	r7, r3, #1694498816	; 0x65000000
 7d0:	69706700 	ldmdbvs	r0!, {r8, r9, sl, sp, lr}^
 7d4:	6c635f6f 	stclvs	15, cr5, [r3], #-444	; 0xfffffe44
 7d8:	67003072 	smlsdxvs	r0, r2, r0, r3
 7dc:	5f6f6970 	svcpl	0x006f6970
 7e0:	30746573 	rsbscc	r6, r4, r3, ror r5
 7e4:	69706700 	ldmdbvs	r0!, {r8, r9, sl, sp, lr}^
 7e8:	72775f6f 	rsbsvc	r5, r7, #444	; 0x1bc
 7ec:	00657469 	rsbeq	r7, r5, r9, ror #8
 7f0:	5f564544 	svcpl	0x00564544
 7f4:	334c4156 	movtcc	r4, #49494	; 0xc156
 7f8:	4e470032 	mcrmi	0, 2, r0, cr7, cr2, {1}
 7fc:	39432055 	stmdbcc	r3, {r0, r2, r4, r6, sp}^
 800:	31312039 	teqcc	r1, r9, lsr r0
 804:	312e322e 			; <UNDEFINED> instruction: 0x312e322e
 808:	32303220 	eorscc	r3, r0, #32, 4
 80c:	31313032 	teqcc	r1, r2, lsr r0
 810:	6d2d2031 	stcvs	0, cr2, [sp, #-196]!	; 0xffffff3c
 814:	3d757063 	ldclcc	0, cr7, [r5, #-396]!	; 0xfffffe74
 818:	316d7261 	cmncc	sp, r1, ror #4
 81c:	6a363731 	bvs	d8e4e8 <__bss_end__+0xd84aa0>
 820:	732d667a 			; <UNDEFINED> instruction: 0x732d667a
 824:	746d2d20 	strbtvc	r2, [sp], #-3360	; 0xfffff2e0
 828:	3d656e75 	stclcc	14, cr6, [r5, #-468]!	; 0xfffffe2c
 82c:	316d7261 	cmncc	sp, r1, ror #4
 830:	6a363731 	bvs	d8e4fc <__bss_end__+0xd84ab4>
 834:	732d667a 			; <UNDEFINED> instruction: 0x732d667a
 838:	666d2d20 	strbtvs	r2, [sp], -r0, lsr #26
 83c:	74616f6c 	strbtvc	r6, [r1], #-3948	; 0xfffff094
 840:	6962612d 	stmdbvs	r2!, {r0, r2, r3, r5, r8, sp, lr}^
 844:	666f733d 			; <UNDEFINED> instruction: 0x666f733d
 848:	6d2d2074 	stcvs	0, cr2, [sp, #-464]!	; 0xfffffe30
 84c:	206d7261 	rsbcs	r7, sp, r1, ror #4
 850:	72616d2d 	rsbvc	r6, r1, #2880	; 0xb40
 854:	613d6863 	teqvs	sp, r3, ror #16
 858:	36766d72 			; <UNDEFINED> instruction: 0x36766d72
 85c:	2d207a6b 	vstmdbcs	r0!, {s14-s120}
 860:	62646767 	rsbvs	r6, r4, #27000832	; 0x19c0000
 864:	664f2d20 	strbvs	r2, [pc], -r0, lsr #26
 868:	20747361 	rsbscs	r7, r4, r1, ror #6
 86c:	6474732d 	ldrbtvs	r7, [r4], #-813	; 0xfffffcd3
 870:	756e673d 	strbvc	r6, [lr, #-1853]!	; 0xfffff8c3
 874:	2d203939 			; <UNDEFINED> instruction: 0x2d203939
 878:	65726666 	ldrbvs	r6, [r2, #-1638]!	; 0xfffff99a
 87c:	61747365 	cmnvs	r4, r5, ror #6
 880:	6e69646e 	cdpvs	4, 6, cr6, cr9, cr14, {3}
 884:	70670067 	rsbvc	r0, r7, r7, rrx
 888:	725f6f69 	subsvc	r6, pc, #420	; 0x1a4
 88c:	00646165 	rsbeq	r6, r4, r5, ror #2
 890:	72732f2e 	rsbsvc	r2, r3, #184	; 0xb8
 894:	70672f63 	rsbvc	r2, r7, r3, ror #30
 898:	632e6f69 			; <UNDEFINED> instruction: 0x632e6f69
 89c:	69706700 	ldmdbvs	r0!, {r8, r9, sl, sp, lr}^
 8a0:	65735f6f 	ldrbvs	r5, [r3, #-3951]!	; 0xfffff091
 8a4:	6e695f74 	mcrvs	15, 3, r5, cr9, cr4, {3}
 8a8:	00747570 	rsbseq	r7, r4, r0, ror r5
 8ac:	6f697067 	svcvs	0x00697067
 8b0:	7465735f 	strbtvc	r7, [r5], #-863	; 0xfffffca1
 8b4:	66666f5f 	uqsaxvs	r6, r6, pc	; <UNPREDICTABLE>
 8b8:	69706700 	ldmdbvs	r0!, {r8, r9, sl, sp, lr}^
 8bc:	65735f6f 	ldrbvs	r5, [r3, #-3951]!	; 0xfffff091
 8c0:	756f5f74 	strbvc	r5, [pc, #-3956]!	; fffff954 <__bss_end__+0xffff5f0c>
 8c4:	74757074 	ldrbtvc	r7, [r5], #-116	; 0xffffff8c
 8c8:	6e756600 	cdpvs	6, 7, cr6, cr5, cr0, {0}
 8cc:	70670063 	rsbvc	r0, r7, r3, rrx
 8d0:	665f6f69 	ldrbvs	r6, [pc], -r9, ror #30
 8d4:	5f636e75 	svcpl	0x00636e75
 8d8:	70670074 	rsbvc	r0, r7, r4, ror r0
 8dc:	6c5f6f69 	mrrcvs	15, 6, r6, pc, cr9	; <UNPREDICTABLE>
 8e0:	00307665 	eorseq	r7, r0, r5, ror #12
 8e4:	6b6e6162 	blvs	1b98e74 <__bss_end__+0x1b8f42c>
 8e8:	69706700 	ldmdbvs	r0!, {r8, r9, sl, sp, lr}^
 8ec:	65735f6f 	ldrbvs	r5, [r3, #-3951]!	; 0xfffff091
 8f0:	6e6f5f74 	mcrvs	15, 3, r5, cr15, cr4, {3}
 8f4:	6c2f2e00 	stcvs	14, cr2, [pc], #-0	; 8fc <__code_start__-0x7704>
 8f8:	2f636269 	svccs	0x00636269
 8fc:	63727473 	cmnvs	r2, #1929379840	; 0x73000000
 900:	632e7461 			; <UNDEFINED> instruction: 0x632e7461
 904:	73656400 	cmnvc	r5, #0, 8
 908:	2f2e0074 	svccs	0x002e0074
 90c:	6362696c 	cmnvs	r2, #108, 18	; 0x1b0000
 910:	7274732f 	rsbsvc	r7, r4, #-1140850688	; 0xbc000000
 914:	2e706d63 	cdpcs	13, 7, cr6, cr0, cr3, {3}
 918:	2f2e0063 	svccs	0x002e0063
 91c:	6362696c 	cmnvs	r2, #108, 18	; 0x1b0000
 920:	7274732f 	rsbsvc	r7, r4, #-1140850688	; 0xbc000000
 924:	2e797063 	cdpcs	0, 7, cr7, cr9, cr3, {3}
 928:	69730063 	ldmdbvs	r3!, {r0, r1, r5, r6}^
 92c:	745f657a 	ldrbvc	r6, [pc], #-1402	; 934 <__code_start__-0x76cc>
 930:	6c2f2e00 	stcvs	14, cr2, [pc], #-0	; 938 <__code_start__-0x76c8>
 934:	2f636269 	svccs	0x00636269
 938:	6e727473 	mrcvs	4, 3, r7, cr2, cr3, {3}
 93c:	2e706d63 	cdpcs	13, 7, cr6, cr0, cr3, {3}
 940:	2f2e0063 	svccs	0x002e0063
 944:	66617473 			; <UNDEFINED> instruction: 0x66617473
 948:	72732d66 	rsbsvc	r2, r3, #6528	; 0x1980
 94c:	65642f63 	strbvs	r2, [r4, #-3939]!	; 0xfffff09d
 950:	6c756166 	ldfvse	f6, [r5], #-408	; 0xfffffe68
 954:	65722d74 	ldrbvs	r2, [r2, #-3444]!	; 0xfffff28c
 958:	746f6f62 	strbtvc	r6, [pc], #-3938	; 960 <__code_start__-0x76a0>
 95c:	6c61632d 	stclvs	3, cr6, [r1], #-180	; 0xffffff4c
 960:	74756f6c 	ldrbtvc	r6, [r5], #-3948	; 0xfffff094
 964:	Address 0x0000000000000964 is out of bounds.


Disassembly of section .debug_frame:

00000000 <.debug_frame>:
   0:	0000000c 	andeq	r0, r0, ip
   4:	ffffffff 			; <UNDEFINED> instruction: 0xffffffff
   8:	7c020001 	stcvc	0, cr0, [r2], {1}
   c:	000d0c0e 	andeq	r0, sp, lr, lsl #24
  10:	0000002c 	andeq	r0, r0, ip, lsr #32
  14:	00000000 	andeq	r0, r0, r0
  18:	00008040 	andeq	r8, r0, r0, asr #32
  1c:	000000b0 	strheq	r0, [r0], -r0	; <UNPREDICTABLE>
  20:	84080e42 	strhi	r0, [r8], #-3650	; 0xfffff1be
  24:	42018e02 	andmi	r8, r1, #2, 28
  28:	0a68100e 	beq	1a04068 <__bss_end__+0x19fa620>
  2c:	ce42080e 	cdpgt	8, 4, cr0, cr2, cr14, {0}
  30:	42000ec4 	andmi	r0, r0, #196, 28	; 0xc40
  34:	0e0a440b 	cdpeq	4, 0, cr4, cr10, cr11, {0}
  38:	c4ce4208 	strbgt	r4, [lr], #520	; 0x208
  3c:	0b42000e 	bleq	108007c <__bss_end__+0x1076634>
  40:	00000020 	andeq	r0, r0, r0, lsr #32
  44:	00000000 	andeq	r0, r0, r0
  48:	000080f0 	strdeq	r8, [r0], -r0
  4c:	0000007c 	andeq	r0, r0, ip, ror r0
  50:	84100e42 	ldrhi	r0, [r0], #-3650	; 0xfffff1be
  54:	86038504 	strhi	r8, [r3], -r4, lsl #10
  58:	72018e02 	andvc	r8, r1, #2, 28
  5c:	c4c5c6ce 	strbgt	ip, [r5], #1742	; 0x6ce
  60:	0000000e 	andeq	r0, r0, lr
  64:	0000000c 	andeq	r0, r0, ip
  68:	ffffffff 			; <UNDEFINED> instruction: 0xffffffff
  6c:	7c020001 	stcvc	0, cr0, [r2], {1}
  70:	000d0c0e 	andeq	r0, sp, lr, lsl #24
  74:	00000034 	andeq	r0, r0, r4, lsr r0
  78:	00000064 	andeq	r0, r0, r4, rrx
  7c:	0000816c 	andeq	r8, r0, ip, ror #2
  80:	00000058 	andeq	r0, r0, r8, asr r0
  84:	80100e42 	andshi	r0, r0, r2, asr #28
  88:	82038104 	andhi	r8, r3, #1
  8c:	42018302 	andmi	r8, r1, #134217728	; 0x8000000
  90:	07841c0e 	streq	r1, [r4, lr, lsl #24]
  94:	058e0685 	streq	r0, [lr, #1669]	; 0x685
  98:	5a280e44 	bpl	a039b0 <__bss_end__+0x9f9f68>
  9c:	ce421c0e 	cdpgt	12, 4, cr1, cr2, cr14, {0}
  a0:	100ec4c5 	andne	ip, lr, r5, asr #9
  a4:	c1c2c342 	bicgt	ip, r2, r2, asr #6
  a8:	00000ec0 	andeq	r0, r0, r0, asr #29
  ac:	0000000c 	andeq	r0, r0, ip
  b0:	ffffffff 			; <UNDEFINED> instruction: 0xffffffff
  b4:	7c020001 	stcvc	0, cr0, [r2], {1}
  b8:	000d0c0e 	andeq	r0, sp, lr, lsl #24
  bc:	00000014 	andeq	r0, r0, r4, lsl r0
  c0:	000000ac 	andeq	r0, r0, ip, lsr #1
  c4:	000081c4 	andeq	r8, r0, r4, asr #3
  c8:	00000014 	andeq	r0, r0, r4, lsl r0
  cc:	84080e42 	strhi	r0, [r8], #-3650	; 0xfffff1be
  d0:	00018e02 	andeq	r8, r1, r2, lsl #28
  d4:	0000000c 	andeq	r0, r0, ip
  d8:	000000ac 	andeq	r0, r0, ip, lsr #1
  dc:	000081d8 	ldrdeq	r8, [r0], -r8	; <UNPREDICTABLE>
  e0:	00000018 	andeq	r0, r0, r8, lsl r0
  e4:	0000000c 	andeq	r0, r0, ip
  e8:	000000ac 	andeq	r0, r0, ip, lsr #1
  ec:	000081f0 	strdeq	r8, [r0], -r0
  f0:	00000010 	andeq	r0, r0, r0, lsl r0
  f4:	0000000c 	andeq	r0, r0, ip
  f8:	ffffffff 			; <UNDEFINED> instruction: 0xffffffff
  fc:	7c020001 	stcvc	0, cr0, [r2], {1}
 100:	000d0c0e 	andeq	r0, sp, lr, lsl #24
 104:	00000018 	andeq	r0, r0, r8, lsl r0
 108:	000000f4 	strdeq	r0, [r0], -r4
 10c:	00008200 	andeq	r8, r0, r0, lsl #4
 110:	00000038 	andeq	r0, r0, r8, lsr r0
 114:	84100e42 	ldrhi	r0, [r0], #-3650	; 0xfffff1be
 118:	86038504 	strhi	r8, [r3], -r4, lsl #10
 11c:	00018e02 	andeq	r8, r1, r2, lsl #28
 120:	0000000c 	andeq	r0, r0, ip
 124:	ffffffff 			; <UNDEFINED> instruction: 0xffffffff
 128:	7c020001 	stcvc	0, cr0, [r2], {1}
 12c:	000d0c0e 	andeq	r0, sp, lr, lsl #24
 130:	0000002c 	andeq	r0, r0, ip, lsr #32
 134:	00000120 	andeq	r0, r0, r0, lsr #2
 138:	00008238 	andeq	r8, r0, r8, lsr r2
 13c:	00000328 	andeq	r0, r0, r8, lsr #6
 140:	84180e42 	ldrhi	r0, [r8], #-3650	; 0xfffff1be
 144:	86058506 	strhi	r8, [r5], -r6, lsl #10
 148:	88038704 	stmdahi	r3, {r2, r8, r9, sl, pc}
 14c:	46018e02 	strmi	r8, [r1], -r2, lsl #28
 150:	c002600e 	andgt	r6, r2, lr
 154:	42180e0a 	andsmi	r0, r8, #160	; 0xa0
 158:	0a8e020b 	beq	fe38098c <__bss_end__+0xfe376f44>
 15c:	0b42180e 	bleq	108619c <__bss_end__+0x107c754>
 160:	00000014 	andeq	r0, r0, r4, lsl r0
 164:	00000120 	andeq	r0, r0, r0, lsr #2
 168:	00008560 	andeq	r8, r0, r0, ror #10
 16c:	00000060 	andeq	r0, r0, r0, rrx
 170:	8e040e52 	mcrhi	14, 0, r0, cr4, cr2, {2}
 174:	100e4401 	andne	r4, lr, r1, lsl #8
 178:	0000002c 	andeq	r0, r0, ip, lsr #32
 17c:	00000120 	andeq	r0, r0, r0, lsr #2
 180:	000085c0 	andeq	r8, r0, r0, asr #11
 184:	0000062c 	andeq	r0, r0, ip, lsr #12
 188:	84240e42 	strthi	r0, [r4], #-3650	; 0xfffff1be
 18c:	86088509 	strhi	r8, [r8], -r9, lsl #10
 190:	88068707 	stmdahi	r6, {r0, r1, r2, r8, r9, sl, pc}
 194:	8a048905 	bhi	1225b0 <__bss_end__+0x118b68>
 198:	8e028b03 	vmlahi.f64	d8, d2, d3
 19c:	c00e5201 	andgt	r5, lr, r1, lsl #4
 1a0:	0a860202 	beq	fe1809b0 <__bss_end__+0xfe176f68>
 1a4:	0b42240e 	bleq	10891e4 <__bss_end__+0x107f79c>
 1a8:	0000000c 	andeq	r0, r0, ip
 1ac:	ffffffff 			; <UNDEFINED> instruction: 0xffffffff
 1b0:	7c020001 	stcvc	0, cr0, [r2], {1}
 1b4:	000d0c0e 	andeq	r0, sp, lr, lsl #24
 1b8:	0000000c 	andeq	r0, r0, ip
 1bc:	000001a8 	andeq	r0, r0, r8, lsr #3
 1c0:	00008bec 	andeq	r8, r0, ip, ror #23
 1c4:	00000010 	andeq	r0, r0, r0, lsl r0
 1c8:	0000000c 	andeq	r0, r0, ip
 1cc:	000001a8 	andeq	r0, r0, r8, lsr #3
 1d0:	00008bfc 	strdeq	r8, [r0], -ip
 1d4:	00000010 	andeq	r0, r0, r0, lsl r0
 1d8:	0000000c 	andeq	r0, r0, ip
 1dc:	ffffffff 			; <UNDEFINED> instruction: 0xffffffff
 1e0:	7c020001 	stcvc	0, cr0, [r2], {1}
 1e4:	000d0c0e 	andeq	r0, sp, lr, lsl #24
 1e8:	00000014 	andeq	r0, r0, r4, lsl r0
 1ec:	000001d8 	ldrdeq	r0, [r0], -r8
 1f0:	00008c0c 	andeq	r8, r0, ip, lsl #24
 1f4:	0000002c 	andeq	r0, r0, ip, lsr #32
 1f8:	84080e44 	strhi	r0, [r8], #-3652	; 0xfffff1bc
 1fc:	00018e02 	andeq	r8, r1, r2, lsl #28
 200:	0000000c 	andeq	r0, r0, ip
 204:	ffffffff 			; <UNDEFINED> instruction: 0xffffffff
 208:	7c020001 	stcvc	0, cr0, [r2], {1}
 20c:	000d0c0e 	andeq	r0, sp, lr, lsl #24
 210:	00000018 	andeq	r0, r0, r8, lsl r0
 214:	00000200 	andeq	r0, r0, r0, lsl #4
 218:	00008c38 	andeq	r8, r0, r8, lsr ip
 21c:	000000f8 	strdeq	r0, [r0], -r8
 220:	84100e42 	ldrhi	r0, [r0], #-3650	; 0xfffff1be
 224:	86038504 	strhi	r8, [r3], -r4, lsl #10
 228:	00018e02 	andeq	r8, r1, r2, lsl #28
 22c:	0000000c 	andeq	r0, r0, ip
 230:	ffffffff 			; <UNDEFINED> instruction: 0xffffffff
 234:	7c020001 	stcvc	0, cr0, [r2], {1}
 238:	000d0c0e 	andeq	r0, sp, lr, lsl #24
 23c:	0000000c 	andeq	r0, r0, ip
 240:	0000022c 	andeq	r0, r0, ip, lsr #4
 244:	00008d30 	andeq	r8, r0, r0, lsr sp
 248:	00000004 	andeq	r0, r0, r4
 24c:	0000000c 	andeq	r0, r0, ip
 250:	ffffffff 			; <UNDEFINED> instruction: 0xffffffff
 254:	7c020001 	stcvc	0, cr0, [r2], {1}
 258:	000d0c0e 	andeq	r0, sp, lr, lsl #24
 25c:	0000000c 	andeq	r0, r0, ip
 260:	0000024c 	andeq	r0, r0, ip, asr #4
 264:	00008d34 	andeq	r8, r0, r4, lsr sp
 268:	00000018 	andeq	r0, r0, r8, lsl r0
 26c:	0000000c 	andeq	r0, r0, ip
 270:	0000024c 	andeq	r0, r0, ip, asr #4
 274:	00008d4c 	andeq	r8, r0, ip, asr #26
 278:	00000014 	andeq	r0, r0, r4, lsl r0
 27c:	00000014 	andeq	r0, r0, r4, lsl r0
 280:	0000024c 	andeq	r0, r0, ip, asr #4
 284:	00008d60 	andeq	r8, r0, r0, ror #26
 288:	00000060 	andeq	r0, r0, r0, rrx
 28c:	84080e42 	strhi	r0, [r8], #-3650	; 0xfffff1be
 290:	00018e02 	andeq	r8, r1, r2, lsl #28
 294:	0000000c 	andeq	r0, r0, ip
 298:	ffffffff 			; <UNDEFINED> instruction: 0xffffffff
 29c:	7c020001 	stcvc	0, cr0, [r2], {1}
 2a0:	000d0c0e 	andeq	r0, sp, lr, lsl #24
 2a4:	0000000c 	andeq	r0, r0, ip
 2a8:	00000294 	muleq	r0, r4, r2
 2ac:	00008dc0 	andeq	r8, r0, r0, asr #27
 2b0:	0000000c 	andeq	r0, r0, ip
 2b4:	00000014 	andeq	r0, r0, r4, lsl r0
 2b8:	00000294 	muleq	r0, r4, r2
 2bc:	00008dcc 	andeq	r8, r0, ip, asr #27
 2c0:	00000024 	andeq	r0, r0, r4, lsr #32
 2c4:	84080e42 	strhi	r0, [r8], #-3650	; 0xfffff1be
 2c8:	00018e02 	andeq	r8, r1, r2, lsl #28
 2cc:	0000001c 	andeq	r0, r0, ip, lsl r0
 2d0:	00000294 	muleq	r0, r4, r2
 2d4:	00008df0 	strdeq	r8, [r0], -r0
 2d8:	00000048 	andeq	r0, r0, r8, asr #32
 2dc:	84180e42 	ldrhi	r0, [r8], #-3650	; 0xfffff1be
 2e0:	86058506 	strhi	r8, [r5], -r6, lsl #10
 2e4:	88038704 	stmdahi	r3, {r2, r8, r9, sl, pc}
 2e8:	00018e02 	andeq	r8, r1, r2, lsl #28
 2ec:	0000001c 	andeq	r0, r0, ip, lsl r0
 2f0:	00000294 	muleq	r0, r4, r2
 2f4:	00008e38 	andeq	r8, r0, r8, lsr lr
 2f8:	00000050 	andeq	r0, r0, r0, asr r0
 2fc:	84180e42 	ldrhi	r0, [r8], #-3650	; 0xfffff1be
 300:	86058506 	strhi	r8, [r5], -r6, lsl #10
 304:	88038704 	stmdahi	r3, {r2, r8, r9, sl, pc}
 308:	00018e02 	andeq	r8, r1, r2, lsl #28
 30c:	0000001c 	andeq	r0, r0, ip, lsl r0
 310:	00000294 	muleq	r0, r4, r2
 314:	00008e88 	andeq	r8, r0, r8, lsl #29
 318:	00000054 	andeq	r0, r0, r4, asr r0
 31c:	84180e42 	ldrhi	r0, [r8], #-3650	; 0xfffff1be
 320:	86058506 	strhi	r8, [r5], -r6, lsl #10
 324:	88038704 	stmdahi	r3, {r2, r8, r9, sl, pc}
 328:	00018e02 	andeq	r8, r1, r2, lsl #28
 32c:	0000000c 	andeq	r0, r0, ip
 330:	ffffffff 			; <UNDEFINED> instruction: 0xffffffff
 334:	7c020001 	stcvc	0, cr0, [r2], {1}
 338:	000d0c0e 	andeq	r0, sp, lr, lsl #24
 33c:	00000018 	andeq	r0, r0, r8, lsl r0
 340:	0000032c 	andeq	r0, r0, ip, lsr #6
 344:	00008edc 	ldrdeq	r8, [r0], -ip
 348:	00000020 	andeq	r0, r0, r0, lsr #32
 34c:	84100e42 	ldrhi	r0, [r0], #-3650	; 0xfffff1be
 350:	86038504 	strhi	r8, [r3], -r4, lsl #10
 354:	00018e02 	andeq	r8, r1, r2, lsl #28
 358:	00000018 	andeq	r0, r0, r8, lsl r0
 35c:	0000032c 	andeq	r0, r0, ip, lsr #6
 360:	00008efc 	strdeq	r8, [r0], -ip
 364:	00000020 	andeq	r0, r0, r0, lsr #32
 368:	84100e42 	ldrhi	r0, [r0], #-3650	; 0xfffff1be
 36c:	86038504 	strhi	r8, [r3], -r4, lsl #10
 370:	00018e02 	andeq	r8, r1, r2, lsl #28
 374:	00000014 	andeq	r0, r0, r4, lsl r0
 378:	0000032c 	andeq	r0, r0, ip, lsr #6
 37c:	00008f1c 	andeq	r8, r0, ip, lsl pc
 380:	000000b0 	strheq	r0, [r0], -r0	; <UNPREDICTABLE>
 384:	84080e42 	strhi	r0, [r8], #-3650	; 0xfffff1be
 388:	00018e02 	andeq	r8, r1, r2, lsl #28
 38c:	00000014 	andeq	r0, r0, r4, lsl r0
 390:	0000032c 	andeq	r0, r0, ip, lsr #6
 394:	00008fcc 	andeq	r8, r0, ip, asr #31
 398:	00000018 	andeq	r0, r0, r8, lsl r0
 39c:	84080e42 	strhi	r0, [r8], #-3650	; 0xfffff1be
 3a0:	00018e02 	andeq	r8, r1, r2, lsl #28
 3a4:	00000014 	andeq	r0, r0, r4, lsl r0
 3a8:	0000032c 	andeq	r0, r0, ip, lsr #6
 3ac:	00008fe4 	andeq	r8, r0, r4, ror #31
 3b0:	00000020 	andeq	r0, r0, r0, lsr #32
 3b4:	84080e42 	strhi	r0, [r8], #-3650	; 0xfffff1be
 3b8:	00018e02 	andeq	r8, r1, r2, lsl #28
 3bc:	00000014 	andeq	r0, r0, r4, lsl r0
 3c0:	0000032c 	andeq	r0, r0, ip, lsr #6
 3c4:	00009004 	andeq	r9, r0, r4
 3c8:	00000030 	andeq	r0, r0, r0, lsr r0
 3cc:	84080e42 	strhi	r0, [r8], #-3650	; 0xfffff1be
 3d0:	00018e02 	andeq	r8, r1, r2, lsl #28
 3d4:	00000014 	andeq	r0, r0, r4, lsl r0
 3d8:	0000032c 	andeq	r0, r0, ip, lsr #6
 3dc:	00009034 	andeq	r9, r0, r4, lsr r0
 3e0:	00000030 	andeq	r0, r0, r0, lsr r0
 3e4:	84080e42 	strhi	r0, [r8], #-3650	; 0xfffff1be
 3e8:	00018e02 	andeq	r8, r1, r2, lsl #28
 3ec:	00000014 	andeq	r0, r0, r4, lsl r0
 3f0:	0000032c 	andeq	r0, r0, ip, lsr #6
 3f4:	00009064 	andeq	r9, r0, r4, rrx
 3f8:	00000010 	andeq	r0, r0, r0, lsl r0
 3fc:	84080e42 	strhi	r0, [r8], #-3650	; 0xfffff1be
 400:	00018e02 	andeq	r8, r1, r2, lsl #28
 404:	00000014 	andeq	r0, r0, r4, lsl r0
 408:	0000032c 	andeq	r0, r0, ip, lsr #6
 40c:	00009074 	andeq	r9, r0, r4, ror r0
 410:	00000020 	andeq	r0, r0, r0, lsr #32
 414:	84080e42 	strhi	r0, [r8], #-3650	; 0xfffff1be
 418:	00018e02 	andeq	r8, r1, r2, lsl #28
 41c:	00000014 	andeq	r0, r0, r4, lsl r0
 420:	0000032c 	andeq	r0, r0, ip, lsr #6
 424:	00009094 	muleq	r0, r4, r0
 428:	00000014 	andeq	r0, r0, r4, lsl r0
 42c:	84080e42 	strhi	r0, [r8], #-3650	; 0xfffff1be
 430:	00018e02 	andeq	r8, r1, r2, lsl #28
 434:	00000014 	andeq	r0, r0, r4, lsl r0
 438:	0000032c 	andeq	r0, r0, ip, lsr #6
 43c:	000090a8 	andeq	r9, r0, r8, lsr #1
 440:	00000024 	andeq	r0, r0, r4, lsr #32
 444:	84080e42 	strhi	r0, [r8], #-3650	; 0xfffff1be
 448:	00018e02 	andeq	r8, r1, r2, lsl #28
 44c:	0000000c 	andeq	r0, r0, ip
 450:	ffffffff 			; <UNDEFINED> instruction: 0xffffffff
 454:	7c020001 	stcvc	0, cr0, [r2], {1}
 458:	000d0c0e 	andeq	r0, sp, lr, lsl #24
 45c:	00000020 	andeq	r0, r0, r0, lsr #32
 460:	0000044c 	andeq	r0, r0, ip, asr #8
 464:	000090cc 	andeq	r9, r0, ip, asr #1
 468:	00000064 	andeq	r0, r0, r4, rrx
 46c:	84100e48 	ldrhi	r0, [r0], #-3656	; 0xfffff1b8
 470:	86038504 	strhi	r8, [r3], -r4, lsl #10
 474:	66018e02 	strvs	r8, [r1], -r2, lsl #28
 478:	c4c5c6ce 	strbgt	ip, [r5], #1742	; 0x6ce
 47c:	0000000e 	andeq	r0, r0, lr
 480:	00000020 	andeq	r0, r0, r0, lsr #32
 484:	0000044c 	andeq	r0, r0, ip, asr #8
 488:	00009130 	andeq	r9, r0, r0, lsr r1
 48c:	0000005c 	andeq	r0, r0, ip, asr r0
 490:	84100e48 	ldrhi	r0, [r0], #-3656	; 0xfffff1b8
 494:	86038504 	strhi	r8, [r3], -r4, lsl #10
 498:	62018e02 	andvs	r8, r1, #2, 28
 49c:	c4c5c6ce 	strbgt	ip, [r5], #1742	; 0x6ce
 4a0:	0000000e 	andeq	r0, r0, lr
 4a4:	0000000c 	andeq	r0, r0, ip
 4a8:	0000044c 	andeq	r0, r0, ip, asr #8
 4ac:	0000918c 	andeq	r9, r0, ip, lsl #3
 4b0:	00000018 	andeq	r0, r0, r8, lsl r0
 4b4:	0000000c 	andeq	r0, r0, ip
 4b8:	0000044c 	andeq	r0, r0, ip, asr #8
 4bc:	000091a4 	andeq	r9, r0, r4, lsr #3
 4c0:	00000018 	andeq	r0, r0, r8, lsl r0
 4c4:	00000020 	andeq	r0, r0, r0, lsr #32
 4c8:	0000044c 	andeq	r0, r0, ip, asr #8
 4cc:	000091bc 			; <UNDEFINED> instruction: 0x000091bc
 4d0:	00000058 	andeq	r0, r0, r8, asr r0
 4d4:	84100e46 	ldrhi	r0, [r0], #-3654	; 0xfffff1ba
 4d8:	86038504 	strhi	r8, [r3], -r4, lsl #10
 4dc:	62018e02 	andvs	r8, r1, #2, 28
 4e0:	c4c5c6ce 	strbgt	ip, [r5], #1742	; 0x6ce
 4e4:	0000000e 	andeq	r0, r0, lr
 4e8:	0000000c 	andeq	r0, r0, ip
 4ec:	0000044c 	andeq	r0, r0, ip, asr #8
 4f0:	00009214 	andeq	r9, r0, r4, lsl r2
 4f4:	00000030 	andeq	r0, r0, r0, lsr r0
 4f8:	00000014 	andeq	r0, r0, r4, lsl r0
 4fc:	0000044c 	andeq	r0, r0, ip, asr #8
 500:	00009244 	andeq	r9, r0, r4, asr #4
 504:	00000028 	andeq	r0, r0, r8, lsr #32
 508:	84080e44 	strhi	r0, [r8], #-3652	; 0xfffff1bc
 50c:	00018e02 	andeq	r8, r1, r2, lsl #28
 510:	0000000c 	andeq	r0, r0, ip
 514:	ffffffff 			; <UNDEFINED> instruction: 0xffffffff
 518:	7c020001 	stcvc	0, cr0, [r2], {1}
 51c:	000d0c0e 	andeq	r0, sp, lr, lsl #24
 520:	0000000c 	andeq	r0, r0, ip
 524:	00000510 	andeq	r0, r0, r0, lsl r5
 528:	0000926c 	andeq	r9, r0, ip, ror #4
 52c:	0000002c 	andeq	r0, r0, ip, lsr #32
 530:	0000000c 	andeq	r0, r0, ip
 534:	ffffffff 			; <UNDEFINED> instruction: 0xffffffff
 538:	7c020001 	stcvc	0, cr0, [r2], {1}
 53c:	000d0c0e 	andeq	r0, sp, lr, lsl #24
 540:	0000000c 	andeq	r0, r0, ip
 544:	00000530 	andeq	r0, r0, r0, lsr r5
 548:	00009298 	muleq	r0, r8, r2
 54c:	00000044 	andeq	r0, r0, r4, asr #32
 550:	0000000c 	andeq	r0, r0, ip
 554:	ffffffff 			; <UNDEFINED> instruction: 0xffffffff
 558:	7c020001 	stcvc	0, cr0, [r2], {1}
 55c:	000d0c0e 	andeq	r0, sp, lr, lsl #24
 560:	0000000c 	andeq	r0, r0, ip
 564:	00000550 	andeq	r0, r0, r0, asr r5
 568:	000092dc 	ldrdeq	r9, [r0], -ip
 56c:	00000018 	andeq	r0, r0, r8, lsl r0
 570:	0000000c 	andeq	r0, r0, ip
 574:	ffffffff 			; <UNDEFINED> instruction: 0xffffffff
 578:	7c020001 	stcvc	0, cr0, [r2], {1}
 57c:	000d0c0e 	andeq	r0, sp, lr, lsl #24
 580:	0000000c 	andeq	r0, r0, ip
 584:	00000570 	andeq	r0, r0, r0, ror r5
 588:	000092f4 	strdeq	r9, [r0], -r4
 58c:	00000030 	andeq	r0, r0, r0, lsr r0
 590:	0000000c 	andeq	r0, r0, ip
 594:	ffffffff 			; <UNDEFINED> instruction: 0xffffffff
 598:	7c020001 	stcvc	0, cr0, [r2], {1}
 59c:	000d0c0e 	andeq	r0, sp, lr, lsl #24
 5a0:	0000000c 	andeq	r0, r0, ip
 5a4:	00000590 	muleq	r0, r0, r5
 5a8:	00009324 	andeq	r9, r0, r4, lsr #6
 5ac:	00000004 	andeq	r0, r0, r4

Disassembly of section .debug_loclists:

00000000 <.debug_loclists>:
   0:	00000438 	andeq	r0, r0, r8, lsr r4
   4:	00040005 	andeq	r0, r4, r5
	...
  10:	f8040000 			; <UNDEFINED> instruction: 0xf8040000
  14:	01038802 	tsteq	r3, r2, lsl #16
  18:	03880450 	orreq	r0, r8, #80, 8	; 0x50000000
  1c:	54010390 	strpl	r0, [r1], #-912	; 0xfffffc70
  20:	a0039004 	andge	r9, r3, r4
  24:	01a30403 			; <UNDEFINED> instruction: 0x01a30403
  28:	00009f50 	andeq	r9, r0, r0, asr pc
  2c:	00000000 	andeq	r0, r0, r0
  30:	04000000 	streq	r0, [r0], #-0
  34:	03880384 	orreq	r0, r8, #132, 6	; 0x10000002
  38:	3500700b 	strcc	r7, [r0, #-11]
  3c:	80b42325 	adcshi	r2, r4, r5, lsr #6
  40:	9f028180 	svcls	0x00028180
  44:	8b038804 	blhi	e205c <__bss_end__+0xd8614>
  48:	04500103 	ldrbeq	r0, [r0], #-259	; 0xfffffefd
  4c:	0390038b 	orrseq	r0, r0, #738197506	; 0x2c000002
  50:	3500740b 	strcc	r7, [r0, #-1035]	; 0xfffffbf5
  54:	80b42325 	adcshi	r2, r4, r5, lsr #6
  58:	9f028180 	svcls	0x00028180
  5c:	a0039004 	andge	r9, r3, r4
  60:	01a30c03 			; <UNDEFINED> instruction: 0x01a30c03
  64:	23253550 			; <UNDEFINED> instruction: 0x23253550
  68:	818080b4 	strhhi	r8, [r0, r4]
  6c:	01009f02 	tsteq	r0, r2, lsl #30
  70:	00000000 	andeq	r0, r0, r0
  74:	03840400 	orreq	r0, r4, #0, 8
  78:	70050388 	andvc	r0, r5, r8, lsl #7
  7c:	9f1a4f00 	svcls	0x001a4f00
  80:	90038804 	andls	r8, r3, r4, lsl #16
  84:	00740503 	rsbseq	r0, r4, r3, lsl #10
  88:	049f1a4f 	ldreq	r1, [pc], #2639	; 90 <__code_start__-0x7f70>
  8c:	03a00390 	moveq	r0, #144, 6	; 0x40000002
  90:	00005401 	andeq	r5, r0, r1, lsl #8
	...
  9c:	04000000 	streq	r0, [r0], #-0
  a0:	02dc02c8 	sbcseq	r0, ip, #200, 4	; 0x8000000c
  a4:	dc045001 	stcle	0, cr5, [r4], {1}
  a8:	0102e002 	tsteq	r2, r2
  ac:	02e00451 	rsceq	r0, r0, #1358954496	; 0x51000000
  b0:	a30402e4 	movwge	r0, #17124	; 0x42e4
  b4:	049f5001 	ldreq	r5, [pc], #1	; bc <__code_start__-0x7f44>
  b8:	02e802e4 	rsceq	r0, r8, #228, 4	; 0x4000000e
  bc:	e8045001 	stmda	r4, {r0, ip, lr}
  c0:	0102ec02 	tsteq	r2, r2, lsl #24
  c4:	02ec0451 	rsceq	r0, ip, #1358954496	; 0x51000000
  c8:	a30402f8 	movwge	r0, #17144	; 0x42f8
  cc:	009f5001 	addseq	r5, pc, r1
  d0:	00000000 	andeq	r0, r0, r0
  d4:	d402c804 	strle	ip, [r2], #-2052	; 0xfffff7fc
  d8:	04510102 	ldrbeq	r0, [r1], #-258	; 0xfffffefe
  dc:	02f802d4 	rscseq	r0, r8, #212, 4	; 0x4000000d
  e0:	5101a304 	tstpl	r1, r4, lsl #6
  e4:	0001009f 	muleq	r1, pc, r0	; <UNPREDICTABLE>
  e8:	00000000 	andeq	r0, r0, r0
  ec:	dc02d804 	stcle	8, cr13, [r2], {4}
  f0:	04500102 	ldrbeq	r0, [r0], #-258	; 0xfffffefe
  f4:	02e002dc 	rsceq	r0, r0, #220, 4	; 0xc000000d
  f8:	e0045101 	and	r5, r4, r1, lsl #2
  fc:	0402e402 	streq	lr, [r2], #-1026	; 0xfffffbfe
 100:	9f5001a3 	svcls	0x005001a3
 104:	00000200 	andeq	r0, r0, r0, lsl #4
 108:	04000000 	streq	r0, [r0], #-0
 10c:	02e802e4 	rsceq	r0, r8, #228, 4	; 0x4000000e
 110:	e8045001 	stmda	r4, {r0, ip, lr}
 114:	0102ec02 	tsteq	r2, r2, lsl #24
 118:	02ec0451 	rsceq	r0, ip, #1358954496	; 0x51000000
 11c:	a30402f8 	movwge	r0, #17144	; 0x42f8
 120:	009f5001 	addseq	r5, pc, r1
 124:	00000000 	andeq	r0, r0, r0
 128:	f0040000 			; <UNDEFINED> instruction: 0xf0040000
 12c:	01029001 	tsteq	r2, r1
 130:	02900450 	addseq	r0, r0, #80, 8	; 0x50000000
 134:	540102b0 	strpl	r0, [r1], #-688	; 0xfffffd50
 138:	c802b004 	stmdagt	r2, {r2, ip, sp, pc}
 13c:	01a30402 			; <UNDEFINED> instruction: 0x01a30402
 140:	02009f50 	andeq	r9, r0, #80, 30	; 0x140
 144:	00000000 	andeq	r0, r0, r0
 148:	01f00400 	mvnseq	r0, r0, lsl #8
 14c:	50010290 	mulpl	r1, r0, r2
 150:	b0029004 	andlt	r9, r2, r4
 154:	04540102 	ldrbeq	r0, [r4], #-258	; 0xfffffefe
 158:	02c802b0 	sbceq	r0, r8, #176, 4
 15c:	5001a304 	andpl	sl, r1, r4, lsl #6
 160:	0000009f 	muleq	r0, pc, r0	; <UNPREDICTABLE>
 164:	00000000 	andeq	r0, r0, r0
 168:	9001f804 	andls	pc, r1, r4, lsl #16
 16c:	04500102 	ldrbeq	r0, [r0], #-258	; 0xfffffefe
 170:	02b00290 	adcseq	r0, r0, #144, 4
 174:	b0045401 	andlt	r5, r4, r1, lsl #8
 178:	0402c802 	streq	ip, [r2], #-2050	; 0xfffff7fe
 17c:	9f5001a3 	svcls	0x005001a3
 180:	00000300 	andeq	r0, r0, r0, lsl #6
 184:	04000000 	streq	r0, [r0], #-0
 188:	029001f8 	addseq	r0, r0, #62	; 0x3e
 18c:	3a007007 	bcc	1c1b0 <__bss_end__+0x12768>
 190:	9f1e331d 	svcls	0x001e331d
 194:	b0029004 	andlt	r9, r2, r4
 198:	00740702 	rsbseq	r0, r4, r2, lsl #14
 19c:	1e331d3a 	mrcne	13, 1, r1, cr3, cr10, {1}
 1a0:	02b0049f 	adcseq	r0, r0, #-1627389952	; 0x9f000000
 1a4:	a30802c8 	movwge	r0, #33480	; 0x82c8
 1a8:	1d3a5001 	ldcne	0, cr5, [sl, #-4]!
 1ac:	009f1e33 	addseq	r1, pc, r3, lsr lr	; <UNPREDICTABLE>
 1b0:	00000000 	andeq	r0, r0, r0
 1b4:	98040000 	stmdals	r4, {}	; <UNPREDICTABLE>
 1b8:	0102c002 	tsteq	r2, r2
 1bc:	02c00456 	sbceq	r0, r0, #1442840576	; 0x56000000
 1c0:	500102c3 	andpl	r0, r1, r3, asr #5
 1c4:	c802c304 	stmdagt	r2, {r2, r8, r9, lr, pc}
 1c8:	01a32602 			; <UNDEFINED> instruction: 0x01a32602
 1cc:	a82da850 	stmdage	sp!, {r4, r6, fp, sp, pc}
 1d0:	0826a426 	stmdaeq	r6!, {r1, r2, r5, sl, sp, pc}
 1d4:	cccccccd 	stclgt	12, cr12, [ip], {205}	; 0xcd
 1d8:	00000000 	andeq	r0, r0, r0
 1dc:	a820081e 	stmdage	r0!, {r1, r2, r3, r4, fp}
 1e0:	2da82526 	cfstr32cs	mvfx2, [r8, #152]!	; 0x98
 1e4:	253300a8 	ldrcs	r0, [r3, #-168]!	; 0xffffff58
 1e8:	a0808023 	addge	r8, r0, r3, lsr #32
 1ec:	9f243240 	svcls	0x00243240
 1f0:	01010000 	mrseq	r0, (UNDEF: 1)
 1f4:	00000000 	andeq	r0, r0, r0
 1f8:	02a80400 	adceq	r0, r8, #0, 8
 1fc:	500102a8 	andpl	r0, r1, r8, lsr #5
 200:	b002a804 	andlt	sl, r2, r4, lsl #16
 204:	74370d02 	ldrtvc	r0, [r7], #-3330	; 0xfffff2fe
 208:	331d3a00 	tstcc	sp, #0, 20
 20c:	7020241e 	eorvc	r2, r0, lr, lsl r4
 210:	049f1a00 	ldreq	r1, [pc], #2560	; 218 <__code_start__-0x7de8>
 214:	02b802b0 	adcseq	r0, r8, #176, 4
 218:	01a3370e 			; <UNDEFINED> instruction: 0x01a3370e
 21c:	331d3a50 	tstcc	sp, #80, 20	; 0x50000
 220:	7020241e 	eorvc	r2, r0, lr, lsl r4
 224:	049f1a00 	ldreq	r1, [pc], #2560	; 22c <__code_start__-0x7dd4>
 228:	02c302b8 	sbceq	r0, r3, #184, 4	; 0x8000000b
 22c:	01a3370e 			; <UNDEFINED> instruction: 0x01a3370e
 230:	331d3a50 	tstcc	sp, #80, 20	; 0x50000
 234:	7320241e 			; <UNDEFINED> instruction: 0x7320241e
 238:	009f1a00 	addseq	r1, pc, r0, lsl #20
 23c:	00000000 	andeq	r0, r0, r0
 240:	01946404 	orrseq	r6, r4, r4, lsl #8
 244:	94045001 	strls	r5, [r4], #-1
 248:	0401c001 	streq	ip, [r1], #-1
 24c:	9f5001a3 	svcls	0x005001a3
 250:	00000200 	andeq	r0, r0, r0, lsl #4
 254:	94640400 	strbtls	r0, [r4], #-1024	; 0xfffffc00
 258:	04500101 	ldrbeq	r0, [r0], #-257	; 0xfffffeff
 25c:	01c00194 			; <UNDEFINED> instruction: 0x01c00194
 260:	5001a304 	andpl	sl, r1, r4, lsl #6
 264:	0000009f 	muleq	r0, pc, r0	; <UNPREDICTABLE>
 268:	6c040000 	stcvs	0, cr0, [r4], {-0}
 26c:	50010194 	mulpl	r1, r4, r1
 270:	c0019404 	andgt	r9, r1, r4, lsl #8
 274:	01a30401 			; <UNDEFINED> instruction: 0x01a30401
 278:	00009f50 	andeq	r9, r0, r0, asr pc
 27c:	04000000 	streq	r0, [r0], #-0
 280:	01b801a8 			; <UNDEFINED> instruction: 0x01b801a8
 284:	b8045401 	stmdalt	r4, {r0, sl, ip, lr}
 288:	2901c001 	stmdbcs	r1, {r0, lr, pc}
 28c:	a35001a3 	cmpge	r0, #-1073741784	; 0xc0000028
 290:	2da85001 	stccs	0, cr5, [r8, #4]!
 294:	26a426a8 	strtcs	r2, [r4], r8, lsr #13
 298:	cccccd08 	stclgt	13, cr12, [ip], {8}
 29c:	000000cc 	andeq	r0, r0, ip, asr #1
 2a0:	20081e00 	andcs	r1, r8, r0, lsl #28
 2a4:	a82526a8 	stmdage	r5!, {r3, r5, r7, r9, sl, sp}
 2a8:	3300a82d 	movwcc	sl, #2093	; 0x82d
 2ac:	311e3525 	tstcc	lr, r5, lsr #10
 2b0:	1e331c24 	cdpne	12, 3, cr1, cr3, cr4, {1}
 2b4:	0001009f 	muleq	r1, pc, r0	; <UNPREDICTABLE>
 2b8:	00000000 	andeq	r0, r0, r0
 2bc:	b801a804 	stmdalt	r1, {r2, fp, sp, pc}
 2c0:	04550101 	ldrbeq	r0, [r5], #-257	; 0xfffffeff
 2c4:	01bb01b8 			; <UNDEFINED> instruction: 0x01bb01b8
 2c8:	bb045001 	bllt	1142d4 <__bss_end__+0x10a88c>
 2cc:	2601c001 	strcs	ip, [r1], -r1
 2d0:	a85001a3 	ldmdage	r0, {r0, r1, r5, r7, r8}^
 2d4:	a426a82d 	strtge	sl, [r6], #-2093	; 0xfffff7d3
 2d8:	cccd0826 	stclgt	8, cr0, [sp], {38}	; 0x26
 2dc:	0000cccc 	andeq	ip, r0, ip, asr #25
 2e0:	081e0000 	ldmdaeq	lr, {}	; <UNPREDICTABLE>
 2e4:	2526a820 	strcs	sl, [r6, #-2080]!	; 0xfffff7e0
 2e8:	00a82da8 	adceq	r2, r8, r8, lsr #27
 2ec:	80232533 	eorhi	r2, r3, r3, lsr r5
 2f0:	3240a080 	subcc	sl, r0, #128, 0	; 0x80
 2f4:	02009f24 	andeq	r9, r0, #36, 30	; 0x90
 2f8:	01010000 	mrseq	r0, (UNDEF: 1)
 2fc:	04000000 	streq	r0, [r0], #-0
 300:	01ac01a8 			; <UNDEFINED> instruction: 0x01ac01a8
 304:	ac045001 	stcge	0, cr5, [r4], {1}
 308:	0101ac01 	tsteq	r1, r1, lsl #24
 30c:	01ac0453 			; <UNDEFINED> instruction: 0x01ac0453
 310:	310801b4 			; <UNDEFINED> instruction: 0x310801b4
 314:	73240074 			; <UNDEFINED> instruction: 0x73240074
 318:	049f2100 	ldreq	r2, [pc], #256	; 320 <__code_start__-0x7ce0>
 31c:	01bb01b4 			; <UNDEFINED> instruction: 0x01bb01b4
 320:	00005101 	andeq	r5, r0, r1, lsl #2
 324:	04000000 	streq	r0, [r0], #-0
 328:	50013c00 	andpl	r3, r1, r0, lsl #24
 32c:	04643c04 	strbteq	r3, [r4], #-3076	; 0xfffff3fc
 330:	9f5001a3 	svcls	0x005001a3
 334:	00000000 	andeq	r0, r0, r0
 338:	3f000400 	svccc	0x00000400
 33c:	3f045101 	svccc	0x00045101
 340:	01a30464 			; <UNDEFINED> instruction: 0x01a30464
 344:	00009f51 	andeq	r9, r0, r1, asr pc
 348:	04000000 	streq	r0, [r0], #-0
 34c:	51013f08 	tstpl	r1, r8, lsl #30
 350:	04643f04 	strbteq	r3, [r4], #-3844	; 0xfffff0fc
 354:	9f5101a3 	svcls	0x005101a3
 358:	00000000 	andeq	r0, r0, r0
 35c:	3c080400 	cfstrscc	mvf0, [r8], {-0}
 360:	3c045001 	stccc	0, cr5, [r4], {1}
 364:	01a30464 			; <UNDEFINED> instruction: 0x01a30464
 368:	00009f50 	andeq	r9, r0, r0, asr pc
 36c:	04000000 	streq	r0, [r0], #-0
 370:	54015c4c 	strpl	r5, [r1], #-3148	; 0xfffff3b4
 374:	29645c04 	stmdbcs	r4!, {r2, sl, fp, ip, lr}^
 378:	a35001a3 	cmpge	r0, #-1073741784	; 0xc0000028
 37c:	2da85001 	stccs	0, cr5, [r8, #4]!
 380:	26a426a8 	strtcs	r2, [r4], r8, lsr #13
 384:	cccccd08 	stclgt	13, cr12, [ip], {8}
 388:	000000cc 	andeq	r0, r0, ip, asr #1
 38c:	20081e00 	andcs	r1, r8, r0, lsl #28
 390:	a82526a8 	stmdage	r5!, {r3, r5, r7, r9, sl, sp}
 394:	3300a82d 	movwcc	sl, #2093	; 0x82d
 398:	311e3525 	tstcc	lr, r5, lsr #10
 39c:	1e331c24 	cdpne	12, 3, cr1, cr3, cr4, {1}
 3a0:	0001009f 	muleq	r1, pc, r0	; <UNPREDICTABLE>
 3a4:	00000000 	andeq	r0, r0, r0
 3a8:	015c4c04 	cmpeq	ip, r4, lsl #24
 3ac:	5f5c0456 	svcpl	0x005c0456
 3b0:	5f045001 	svcpl	0x00045001
 3b4:	01a32664 			; <UNDEFINED> instruction: 0x01a32664
 3b8:	a82da850 	stmdage	sp!, {r4, r6, fp, sp, pc}
 3bc:	0826a426 	stmdaeq	r6!, {r1, r2, r5, sl, sp, pc}
 3c0:	cccccccd 	stclgt	12, cr12, [ip], {205}	; 0xcd
 3c4:	00000000 	andeq	r0, r0, r0
 3c8:	a820081e 	stmdage	r0!, {r1, r2, r3, r4, fp}
 3cc:	2da82526 	cfstr32cs	mvfx2, [r8, #152]!	; 0x98
 3d0:	253300a8 	ldrcs	r0, [r3, #-168]!	; 0xffffff58
 3d4:	a0808023 	addge	r8, r0, r3, lsr #32
 3d8:	9f243240 	svcls	0x00243240
 3dc:	00000200 	andeq	r0, r0, r0, lsl #4
 3e0:	04000101 	streq	r0, [r0], #-257	; 0xfffffeff
 3e4:	5001504c 	andpl	r5, r1, ip, asr #32
 3e8:	01505004 	cmpeq	r0, r4
 3ec:	58500451 	ldmdapl	r0, {r0, r4, r6, sl}^
 3f0:	0800750c 	stmdaeq	r0, {r2, r3, r8, sl, ip, sp, lr}
 3f4:	00741aff 	ldrshteq	r1, [r4], #-175	; 0xffffff51
 3f8:	21007124 	tstcs	r0, r4, lsr #2
 3fc:	0000009f 	muleq	r0, pc, r0	; <UNPREDICTABLE>
 400:	00000000 	andeq	r0, r0, r0
 404:	cc01c004 	stcgt	0, cr12, [r1], {4}
 408:	04500101 	ldrbeq	r0, [r0], #-257	; 0xfffffeff
 40c:	01d301cc 	bicseq	r0, r3, ip, asr #3
 410:	d3045301 	movwle	r5, #17153	; 0x4301
 414:	0401d801 	streq	sp, [r1], #-2049	; 0xfffff7ff
 418:	9f5001a3 	svcls	0x005001a3
 41c:	00000000 	andeq	r0, r0, r0
 420:	04000000 	streq	r0, [r0], #-0
 424:	01e401d8 	ldrdeq	r0, [r4, #24]!
 428:	e4045001 	str	r5, [r4], #-1
 42c:	0101eb01 	tsteq	r1, r1, lsl #22
 430:	01eb0453 	mvneq	r0, r3, asr r4
 434:	a30401f0 	movwge	r0, #16880	; 0x41f0
 438:	009f5001 	addseq	r5, pc, r1

Disassembly of section .debug_rnglists:

00000000 <.debug_rnglists>:
   0:	00000057 	andeq	r0, r0, r7, asr r0
   4:	00040005 	andeq	r0, r4, r5
   8:	00000000 	andeq	r0, r0, r0
   c:	040c0804 	streq	r0, [ip], #-2052	; 0xfffff7fc
  10:	5c045814 	stcpl	8, cr5, [r4], {20}
  14:	64040064 	strvs	r0, [r4], #-100	; 0xffffff9c
  18:	b4740470 	ldrbtlt	r0, [r4], #-1136	; 0xfffffb90
  1c:	01b80401 			; <UNDEFINED> instruction: 0x01b80401
  20:	040001c0 	streq	r0, [r0], #-448	; 0xfffffe40
  24:	7404706c 	strvc	r7, [r4], #-108	; 0xffffff94
  28:	b80401b4 	stmdalt	r4, {r2, r4, r5, r7, r8}
  2c:	0001c001 	andeq	ip, r1, r1
  30:	f801f004 			; <UNDEFINED> instruction: 0xf801f004
  34:	01fc0401 	mvnseq	r0, r1, lsl #8
  38:	c00402bc 			; <UNDEFINED> instruction: 0xc00402bc
  3c:	0002c802 	andeq	ip, r2, r2, lsl #16
  40:	f801f804 			; <UNDEFINED> instruction: 0xf801f804
  44:	01fc0401 	mvnseq	r0, r1, lsl #8
  48:	c00402bc 			; <UNDEFINED> instruction: 0xc00402bc
  4c:	0002c802 	andeq	ip, r2, r2, lsl #16
  50:	d002cc04 	andle	ip, r2, r4, lsl #24
  54:	02d80402 	sbcseq	r0, r8, #33554432	; 0x2000000
  58:	Address 0x0000000000000058 is out of bounds.

