
scope.elf:     file format elf32-littlearm


Disassembly of section .text:

00008000 <__code_start__>:
    8000:	e3a00013 	mov	r0, #19, 0
    8004:	e3800080 	orr	r0, r0, #128, 0	; 0x80
    8008:	e129f000 	msr	CPSR_fc, r0
    800c:	e3a01000 	mov	r1, #0, 0
    8010:	ee071f95 	mcr	15, 0, r1, cr7, cr5, {4}
    8014:	e3a0d302 	mov	sp, #134217728	; 0x8000000
    8018:	e3a0b000 	mov	fp, #0, 0
    801c:	eb0002c9 	bl	8b48 <_cstart>
    8020:	eb0002e3 	bl	8bb4 <rpi_reboot>

00008024 <PUT32>:
    8024:	e5801000 	str	r1, [r0]
    8028:	e12fff1e 	bx	lr

0000802c <GET32>:
    802c:	e5900000 	ldr	r0, [r0]
    8030:	e12fff1e 	bx	lr

00008034 <BRANCHTO>:
    8034:	e12fff10 	bx	r0
	...

00008040 <scope>:
    8040:	e59f00c8 	ldr	r0, [pc, #200]	; 8110 <scope+0xd0>
    8044:	e92d47f0 	push	{r4, r5, r6, r7, r8, r9, sl, lr}
    8048:	e1a0e001 	mov	lr, r1
    804c:	e5901034 	ldr	r1, [r0, #52]	; 0x34
    8050:	e1a05002 	mov	r5, r2
    8054:	e1a02aa1 	lsr	r2, r1, #21
    8058:	e2022001 	and	r2, r2, #1, 0
    805c:	ee1f6f3c 	mrc	15, 0, r6, cr15, cr12, {1}
    8060:	e1a01000 	mov	r1, r0
    8064:	e0866003 	add	r6, r6, r3
    8068:	e5913034 	ldr	r3, [r1, #52]	; 0x34
    806c:	e1a03aa3 	lsr	r3, r3, #21
    8070:	e2033001 	and	r3, r3, #1, 0
    8074:	e1520003 	cmp	r2, r3
    8078:	0afffffa 	beq	8068 <scope+0x28>
    807c:	ee1f1f3c 	mrc	15, 0, r1, cr15, cr12, {1}
    8080:	e3550000 	cmp	r5, #0, 0
    8084:	0a00001f 	beq	8108 <scope+0xc8>
    8088:	e3a04000 	mov	r4, #0, 0
    808c:	e1a02001 	mov	r2, r1
    8090:	e1a00004 	mov	r0, r4
    8094:	e59f8074 	ldr	r8, [pc, #116]	; 8110 <scope+0xd0>
    8098:	e1a0c003 	mov	ip, r3
    809c:	e5983034 	ldr	r3, [r8, #52]	; 0x34
    80a0:	e2800001 	add	r0, r0, #1, 0
    80a4:	e1a03aa3 	lsr	r3, r3, #21
    80a8:	e2033001 	and	r3, r3, #1, 0
    80ac:	e153000c 	cmp	r3, ip
    80b0:	0a000005 	beq	80cc <scope+0x8c>
    80b4:	ee1f2f3c 	mrc	15, 0, r2, cr15, cr12, {1}
    80b8:	e08e7184 	add	r7, lr, r4, lsl #3
    80bc:	e0429001 	sub	r9, r2, r1
    80c0:	e5879004 	str	r9, [r7, #4]
    80c4:	e78ec184 	str	ip, [lr, r4, lsl #3]
    80c8:	e2844001 	add	r4, r4, #1, 0
    80cc:	e6ffc070 	uxth	ip, r0
    80d0:	e35c0000 	cmp	ip, #0, 0
    80d4:	1a000002 	bne	80e4 <scope+0xa4>
    80d8:	ee1fcf3c 	mrc	15, 0, ip, cr15, cr12, {1}
    80dc:	e156000c 	cmp	r6, ip
    80e0:	3a000003 	bcc	80f4 <scope+0xb4>
    80e4:	e1540005 	cmp	r4, r5
    80e8:	3affffea 	bcc	8098 <scope+0x58>
    80ec:	e1a00004 	mov	r0, r4
    80f0:	e8bd87f0 	pop	{r4, r5, r6, r7, r8, r9, sl, pc}
    80f4:	e0423001 	sub	r3, r2, r1
    80f8:	e59f0014 	ldr	r0, [pc, #20]	; 8114 <scope+0xd4>
    80fc:	eb00008b 	bl	8330 <printk>
    8100:	e1a00004 	mov	r0, r4
    8104:	e8bd87f0 	pop	{r4, r5, r6, r7, r8, r9, sl, pc}
    8108:	e1a04005 	mov	r4, r5
    810c:	eafffff6 	b	80ec <scope+0xac>
    8110:	20200000 	eorcs	r0, r0, r0
    8114:	00008f80 	andeq	r8, r0, r0, lsl #31
    8118:	e320f000 	nop	{0}
    811c:	e320f000 	nop	{0}

00008120 <notmain>:
    8120:	e92d4ff0 	push	{r4, r5, r6, r7, r8, r9, sl, fp, lr}
    8124:	e24ddf45 	sub	sp, sp, #276	; 0x114
    8128:	eb000273 	bl	8afc <enable_cache>
    812c:	e3a00015 	mov	r0, #21, 0
    8130:	eb00006a 	bl	82e0 <gpio_set_input>
    8134:	e3a03001 	mov	r3, #1, 0
    8138:	ee0f3f1c 	mcr	15, 0, r3, cr15, cr12, {0}
    813c:	e3a0900a 	mov	r9, #10, 0
    8140:	e59fb0c8 	ldr	fp, [pc, #200]	; 8210 <notmain+0xf0>
    8144:	e59fa0c8 	ldr	sl, [pc, #200]	; 8214 <notmain+0xf4>
    8148:	e1a0300b 	mov	r3, fp
    814c:	e3a02020 	mov	r2, #32, 0
    8150:	e3a00015 	mov	r0, #21, 0
    8154:	e28d1010 	add	r1, sp, #16, 0
    8158:	ebffffb8 	bl	8040 <scope>
    815c:	e2507000 	subs	r7, r0, #0, 0
    8160:	0a000025 	beq	81fc <notmain+0xdc>
    8164:	e1a01007 	mov	r1, r7
    8168:	e59f00a8 	ldr	r0, [pc, #168]	; 8218 <notmain+0xf8>
    816c:	eb00006f 	bl	8330 <printk>
    8170:	e2577001 	subs	r7, r7, #1, 0
    8174:	0a00001d 	beq	81f0 <notmain+0xd0>
    8178:	e3a08000 	mov	r8, #0, 0
    817c:	e1a06008 	mov	r6, r8
    8180:	e1a05008 	mov	r5, r8
    8184:	e1a02008 	mov	r2, r8
    8188:	e59f408c 	ldr	r4, [pc, #140]	; 821c <notmain+0xfc>
    818c:	e1a03005 	mov	r3, r5
    8190:	e28d1010 	add	r1, sp, #16, 0
    8194:	e0812002 	add	r2, r1, r2
    8198:	e5925004 	ldr	r5, [r2, #4]
    819c:	e1a01006 	mov	r1, r6
    81a0:	e1550004 	cmp	r5, r4
    81a4:	80450004 	subhi	r0, r5, r4
    81a8:	90440005 	subls	r0, r4, r5
    81ac:	e2866001 	add	r6, r6, #1, 0
    81b0:	e0888000 	add	r8, r8, r0
    81b4:	e28d2010 	add	r2, sp, #16, 0
    81b8:	e58d0008 	str	r0, [sp, #8]
    81bc:	e58d4004 	str	r4, [sp, #4]
    81c0:	e58d800c 	str	r8, [sp, #12]
    81c4:	e58d5000 	str	r5, [sp]
    81c8:	e0822186 	add	r2, r2, r6, lsl #3
    81cc:	e5122008 	ldr	r2, [r2, #-8]
    81d0:	e1a0000a 	mov	r0, sl
    81d4:	e0453003 	sub	r3, r5, r3
    81d8:	eb000054 	bl	8330 <printk>
    81dc:	e2844d5d 	add	r4, r4, #5952	; 0x1740
    81e0:	e1560007 	cmp	r6, r7
    81e4:	e2844030 	add	r4, r4, #48, 0	; 0x30
    81e8:	e1a02186 	lsl	r2, r6, #3
    81ec:	1affffe6 	bne	818c <notmain+0x6c>
    81f0:	e2599001 	subs	r9, r9, #1, 0
    81f4:	1affffd3 	bne	8148 <notmain+0x28>
    81f8:	eb000247 	bl	8b1c <clean_reboot>
    81fc:	e59f001c 	ldr	r0, [pc, #28]	; 8220 <notmain+0x100>
    8200:	eb00004a 	bl	8330 <printk>
    8204:	e2599001 	subs	r9, r9, #1, 0
    8208:	1affffce 	bne	8148 <notmain+0x28>
    820c:	eafffff9 	b	81f8 <notmain+0xd8>
    8210:	29b92700 	ldmibcs	r9!, {r8, r9, sl, sp}
    8214:	00008fe0 	andeq	r8, r0, r0, ror #31
    8218:	00008fbc 			; <UNDEFINED> instruction: 0x00008fbc
    821c:	00001770 	andeq	r1, r0, r0, ror r7
    8220:	00008fa4 	andeq	r8, r0, r4, lsr #31

00008224 <gpio_set_function>:
    8224:	e350001f 	cmp	r0, #31, 0
    8228:	812fff1e 	bxhi	lr
    822c:	e92d4070 	push	{r4, r5, r6, lr}
    8230:	e1a05001 	mov	r5, r1
    8234:	e3d13007 	bics	r3, r1, #7, 0
    8238:	18bd8070 	popne	{r4, r5, r6, pc}
    823c:	e59f3040 	ldr	r3, [pc, #64]	; 8284 <gpio_set_function+0x60>
    8240:	e0832093 	umull	r2, r3, r3, r0
    8244:	e1a031a3 	lsr	r3, r3, #3
    8248:	e1a02003 	mov	r2, r3
    824c:	e0833103 	add	r3, r3, r3, lsl #2
    8250:	e0403083 	sub	r3, r0, r3, lsl #1
    8254:	e0834083 	add	r4, r3, r3, lsl #1
    8258:	e2820302 	add	r0, r2, #134217728	; 0x8000000
    825c:	e2800702 	add	r0, r0, #524288	; 0x80000
    8260:	e1a06100 	lsl	r6, r0, #2
    8264:	e1a00006 	mov	r0, r6
    8268:	ebffff6f 	bl	802c <GET32>
    826c:	e3a01007 	mov	r1, #7, 0
    8270:	e1c01411 	bic	r1, r0, r1, lsl r4
    8274:	e1811415 	orr	r1, r1, r5, lsl r4
    8278:	e1a00006 	mov	r0, r6
    827c:	ebffff68 	bl	8024 <PUT32>
    8280:	e8bd8070 	pop	{r4, r5, r6, pc}
    8284:	cccccccd 	stclgt	12, cr12, [ip], {205}	; 0xcd

00008288 <gpio_set_output>:
    8288:	e92d4010 	push	{r4, lr}
    828c:	e3a01001 	mov	r1, #1, 0
    8290:	ebffffe3 	bl	8224 <gpio_set_function>
    8294:	e8bd8010 	pop	{r4, pc}

00008298 <gpio_set_on>:
    8298:	e350001f 	cmp	r0, #31, 0
    829c:	812fff1e 	bxhi	lr
    82a0:	e92d4010 	push	{r4, lr}
    82a4:	e3a01001 	mov	r1, #1, 0
    82a8:	e1a01011 	lsl	r1, r1, r0
    82ac:	e59f0004 	ldr	r0, [pc, #4]	; 82b8 <gpio_set_on+0x20>
    82b0:	ebffff5b 	bl	8024 <PUT32>
    82b4:	e8bd8010 	pop	{r4, pc}
    82b8:	2020001c 	eorcs	r0, r0, ip, lsl r0

000082bc <gpio_set_off>:
    82bc:	e350001f 	cmp	r0, #31, 0
    82c0:	812fff1e 	bxhi	lr
    82c4:	e92d4010 	push	{r4, lr}
    82c8:	e3a01001 	mov	r1, #1, 0
    82cc:	e1a01011 	lsl	r1, r1, r0
    82d0:	e59f0004 	ldr	r0, [pc, #4]	; 82dc <gpio_set_off+0x20>
    82d4:	ebffff52 	bl	8024 <PUT32>
    82d8:	e8bd8010 	pop	{r4, pc}
    82dc:	20200028 	eorcs	r0, r0, r8, lsr #32

000082e0 <gpio_set_input>:
    82e0:	e92d4010 	push	{r4, lr}
    82e4:	e3a01000 	mov	r1, #0, 0
    82e8:	ebffffcd 	bl	8224 <gpio_set_function>
    82ec:	e8bd8010 	pop	{r4, pc}

000082f0 <gpio_write>:
    82f0:	e92d4010 	push	{r4, lr}
    82f4:	e3510000 	cmp	r1, #0, 0
    82f8:	0a000001 	beq	8304 <gpio_write+0x14>
    82fc:	ebffffe5 	bl	8298 <gpio_set_on>
    8300:	e8bd8010 	pop	{r4, pc}
    8304:	ebffffec 	bl	82bc <gpio_set_off>
    8308:	e8bd8010 	pop	{r4, pc}

0000830c <gpio_read>:
    830c:	e92d4010 	push	{r4, lr}
    8310:	e200401f 	and	r4, r0, #31, 0
    8314:	e59f3010 	ldr	r3, [pc, #16]	; 832c <gpio_read+0x20>
    8318:	e08302a0 	add	r0, r3, r0, lsr #5
    831c:	ebffff42 	bl	802c <GET32>
    8320:	e1a00430 	lsr	r0, r0, r4
    8324:	e2000001 	and	r0, r0, #1, 0
    8328:	e8bd8010 	pop	{r4, pc}
    832c:	20200034 	eorcs	r0, r0, r4, lsr r0

00008330 <printk>:
    8330:	e92d000f 	push	{r0, r1, r2, r3}
    8334:	e92d4030 	push	{r4, r5, lr}
    8338:	e24dd00c 	sub	sp, sp, #12, 0
    833c:	e28d301c 	add	r3, sp, #28, 0
    8340:	e58d3004 	str	r3, [sp, #4]
    8344:	e59f5034 	ldr	r5, [pc, #52]	; 8380 <printk+0x50>
    8348:	e59d2018 	ldr	r2, [sp, #24]
    834c:	e3a01b01 	mov	r1, #1024	; 0x400
    8350:	e1a00005 	mov	r0, r5
    8354:	eb0000ba 	bl	8644 <va_printk>
    8358:	e1a04000 	mov	r4, r0
    835c:	e59f3020 	ldr	r3, [pc, #32]	; 8384 <printk+0x54>
    8360:	e5933000 	ldr	r3, [r3]
    8364:	e1a00005 	mov	r0, r5
    8368:	e12fff33 	blx	r3
    836c:	e1a00004 	mov	r0, r4
    8370:	e28dd00c 	add	sp, sp, #12, 0
    8374:	e8bd4030 	pop	{r4, r5, lr}
    8378:	e28dd010 	add	sp, sp, #16, 0
    837c:	e12fff1e 	bx	lr
    8380:	000091ac 	andeq	r9, r0, ip, lsr #3
    8384:	000091a4 	andeq	r9, r0, r4, lsr #3

00008388 <internal_putk>:
    8388:	e92d4010 	push	{r4, lr}
    838c:	e1a04000 	mov	r4, r0
    8390:	e5d40000 	ldrb	r0, [r4]
    8394:	e3500000 	cmp	r0, #0, 0
    8398:	0a000004 	beq	83b0 <internal_putk+0x28>
    839c:	e59f3014 	ldr	r3, [pc, #20]	; 83b8 <internal_putk+0x30>
    83a0:	e5933000 	ldr	r3, [r3]
    83a4:	e12fff33 	blx	r3
    83a8:	e2844001 	add	r4, r4, #1, 0
    83ac:	eafffff7 	b	8390 <internal_putk+0x8>
    83b0:	e3a00001 	mov	r0, #1, 0
    83b4:	e8bd8010 	pop	{r4, pc}
    83b8:	000091a8 	andeq	r9, r0, r8, lsr #3

000083bc <isdigit>:
    83bc:	e2400030 	sub	r0, r0, #48, 0	; 0x30
    83c0:	e3500009 	cmp	r0, #9, 0
    83c4:	83a00000 	movhi	r0, #0, 0
    83c8:	93a00001 	movls	r0, #1, 0
    83cc:	e12fff1e 	bx	lr

000083d0 <pad>:
    83d0:	e0401001 	sub	r1, r0, r1
    83d4:	e1510002 	cmp	r1, r2
    83d8:	b3a03020 	movlt	r3, #32, 0
    83dc:	b4c03001 	strblt	r3, [r0], #1
    83e0:	b2811001 	addlt	r1, r1, #1, 0
    83e4:	bafffffa 	blt	83d4 <pad+0x4>
    83e8:	e3a03000 	mov	r3, #0, 0
    83ec:	e5c03000 	strb	r3, [r0]
    83f0:	e12fff1e 	bx	lr

000083f4 <reverse>:
    83f4:	e042c003 	sub	ip, r2, r3
    83f8:	e28cc001 	add	ip, ip, #1, 0
    83fc:	e15c0001 	cmp	ip, r1
    8400:	c04cc001 	subgt	ip, ip, r1
    8404:	c083300c 	addgt	r3, r3, ip
    8408:	e2421001 	sub	r1, r2, #1, 0
    840c:	e1a02000 	mov	r2, r0
    8410:	e1510003 	cmp	r1, r3
    8414:	2451c001 	ldrbcs	ip, [r1], #-1
    8418:	24c2c001 	strbcs	ip, [r2], #1
    841c:	2afffffb 	bcs	8410 <reverse+0x1c>
    8420:	e3a03000 	mov	r3, #0, 0
    8424:	e5c23000 	strb	r3, [r2]
    8428:	e12fff1e 	bx	lr

0000842c <emit>:
    842c:	e92d40f0 	push	{r4, r5, r6, r7, lr}
    8430:	e24dd04c 	sub	sp, sp, #76, 0	; 0x4c
    8434:	e1a05001 	mov	r5, r1
    8438:	e1a04002 	mov	r4, r2
    843c:	e59d2060 	ldr	r2, [sp, #96]	; 0x60
    8440:	e1520004 	cmp	r2, r4
    8444:	c2442001 	subgt	r2, r4, #1, 0
    8448:	e1a0c003 	mov	ip, r3
    844c:	e2400002 	sub	r0, r0, #2, 0
    8450:	e350000e 	cmp	r0, #14, 0
    8454:	979ff100 	ldrls	pc, [pc, r0, lsl #2]
    8458:	ea000050 	b	85a0 <emit+0x174>
    845c:	00008578 	andeq	r8, r0, r8, ror r5
    8460:	000085a0 	andeq	r8, r0, r0, lsr #11
    8464:	000085a0 	andeq	r8, r0, r0, lsr #11
    8468:	000085a0 	andeq	r8, r0, r0, lsr #11
    846c:	000085a0 	andeq	r8, r0, r0, lsr #11
    8470:	000085a0 	andeq	r8, r0, r0, lsr #11
    8474:	0000856c 	andeq	r8, r0, ip, ror #10
    8478:	000085a0 	andeq	r8, r0, r0, lsr #11
    847c:	00008498 	muleq	r0, r8, r4
    8480:	000085a0 	andeq	r8, r0, r0, lsr #11
    8484:	000085a0 	andeq	r8, r0, r0, lsr #11
    8488:	000085a0 	andeq	r8, r0, r0, lsr #11
    848c:	000085a0 	andeq	r8, r0, r0, lsr #11
    8490:	000085a0 	andeq	r8, r0, r0, lsr #11
    8494:	00008510 	andeq	r8, r0, r0, lsl r5
    8498:	e59d1064 	ldr	r1, [sp, #100]	; 0x64
    849c:	e2511000 	subs	r1, r1, #0, 0
    84a0:	13a01001 	movne	r1, #1, 0
    84a4:	e0111fa3 	ands	r1, r1, r3, lsr #31
    84a8:	0a000016 	beq	8508 <emit+0xdc>
    84ac:	e263c000 	rsb	ip, r3, #0, 0
    84b0:	e3a06001 	mov	r6, #1, 0
    84b4:	e28d0008 	add	r0, sp, #8, 0
    84b8:	e59f3100 	ldr	r3, [pc, #256]	; 85c0 <emit+0x194>
    84bc:	e0831c93 	umull	r1, r3, r3, ip
    84c0:	e1a031a3 	lsr	r3, r3, #3
    84c4:	e1a0e003 	mov	lr, r3
    84c8:	e0833103 	add	r3, r3, r3, lsl #2
    84cc:	e04c3083 	sub	r3, ip, r3, lsl #1
    84d0:	e1a01000 	mov	r1, r0
    84d4:	e2800001 	add	r0, r0, #1, 0
    84d8:	e59f70e4 	ldr	r7, [pc, #228]	; 85c4 <emit+0x198>
    84dc:	e7d73003 	ldrb	r3, [r7, r3]
    84e0:	e5c13000 	strb	r3, [r1]
    84e4:	e1a0300c 	mov	r3, ip
    84e8:	e1a0c00e 	mov	ip, lr
    84ec:	e3530009 	cmp	r3, #9, 0
    84f0:	8afffff0 	bhi	84b8 <emit+0x8c>
    84f4:	e3560000 	cmp	r6, #0, 0
    84f8:	13a0302d 	movne	r3, #45, 0	; 0x2d
    84fc:	15c03000 	strbne	r3, [r0]
    8500:	12810002 	addne	r0, r1, #2, 0
    8504:	ea00000f 	b	8548 <emit+0x11c>
    8508:	e3a06000 	mov	r6, #0, 0
    850c:	eaffffe8 	b	84b4 <emit+0x88>
    8510:	e28d1008 	add	r1, sp, #8, 0
    8514:	e20c000f 	and	r0, ip, #15, 0
    8518:	e59fe0a8 	ldr	lr, [pc, #168]	; 85c8 <emit+0x19c>
    851c:	e7de0000 	ldrb	r0, [lr, r0]
    8520:	e5c10000 	strb	r0, [r1]
    8524:	e2811001 	add	r1, r1, #1, 0
    8528:	e35c000f 	cmp	ip, #15, 0
    852c:	e1a0c22c 	lsr	ip, ip, #4
    8530:	8afffff7 	bhi	8514 <emit+0xe8>
    8534:	e1a00001 	mov	r0, r1
    8538:	e3a03078 	mov	r3, #120, 0	; 0x78
    853c:	e4c03002 	strb	r3, [r0], #2
    8540:	e3a03030 	mov	r3, #48, 0	; 0x30
    8544:	e5c13001 	strb	r3, [r1, #1]
    8548:	e28d1008 	add	r1, sp, #8, 0
    854c:	ebffff9f 	bl	83d0 <pad>
    8550:	e1a02000 	mov	r2, r0
    8554:	e28d3008 	add	r3, sp, #8, 0
    8558:	e1a01004 	mov	r1, r4
    855c:	e1a00005 	mov	r0, r5
    8560:	ebffffa3 	bl	83f4 <reverse>
    8564:	e28dd04c 	add	sp, sp, #76, 0	; 0x4c
    8568:	e8bd80f0 	pop	{r4, r5, r6, r7, pc}
    856c:	e5cd3008 	strb	r3, [sp, #8]
    8570:	e28d0009 	add	r0, sp, #9, 0
    8574:	eafffff3 	b	8548 <emit+0x11c>
    8578:	e28d0008 	add	r0, sp, #8, 0
    857c:	e20c1001 	and	r1, ip, #1, 0
    8580:	e59fe044 	ldr	lr, [pc, #68]	; 85cc <emit+0x1a0>
    8584:	e7de1001 	ldrb	r1, [lr, r1]
    8588:	e5c01000 	strb	r1, [r0]
    858c:	e2800001 	add	r0, r0, #1, 0
    8590:	e35c0001 	cmp	ip, #1, 0
    8594:	e1a0c0ac 	lsr	ip, ip, #1
    8598:	8afffff7 	bhi	857c <emit+0x150>
    859c:	eaffffe9 	b	8548 <emit+0x11c>
    85a0:	e59f3028 	ldr	r3, [pc, #40]	; 85d0 <emit+0x1a4>
    85a4:	e58d3000 	str	r3, [sp]
    85a8:	e3a03079 	mov	r3, #121, 0	; 0x79
    85ac:	e59f2020 	ldr	r2, [pc, #32]	; 85d4 <emit+0x1a8>
    85b0:	e59f1020 	ldr	r1, [pc, #32]	; 85d8 <emit+0x1ac>
    85b4:	e59f0020 	ldr	r0, [pc, #32]	; 85dc <emit+0x1b0>
    85b8:	ebffff5c 	bl	8330 <printk>
    85bc:	eb000156 	bl	8b1c <clean_reboot>
    85c0:	cccccccd 	stclgt	12, cr12, [ip], {205}	; 0xcd
    85c4:	00009048 	andeq	r9, r0, r8, asr #32
    85c8:	00009054 	andeq	r9, r0, r4, asr r0
    85cc:	00009068 	andeq	r9, r0, r8, rrx
    85d0:	00009044 	andeq	r9, r0, r4, asr #32
    85d4:	00009174 	andeq	r9, r0, r4, ror r1
    85d8:	0000901c 	andeq	r9, r0, ip, lsl r0
    85dc:	00009030 	andeq	r9, r0, r0, lsr r0

000085e0 <rpi_set_output>:
    85e0:	e3500000 	cmp	r0, #0, 0
    85e4:	0a000006 	beq	8604 <rpi_set_output+0x24>
    85e8:	e59f303c 	ldr	r3, [pc, #60]	; 862c <rpi_set_output+0x4c>
    85ec:	e5830000 	str	r0, [r3]
    85f0:	e3510000 	cmp	r1, #0, 0
    85f4:	012fff1e 	bxeq	lr
    85f8:	e59f3030 	ldr	r3, [pc, #48]	; 8630 <rpi_set_output+0x50>
    85fc:	e5831000 	str	r1, [r3]
    8600:	e12fff1e 	bx	lr
    8604:	e52de004 	push	{lr}		; (str lr, [sp, #-4]!)
    8608:	e24dd00c 	sub	sp, sp, #12, 0
    860c:	e59f3020 	ldr	r3, [pc, #32]	; 8634 <rpi_set_output+0x54>
    8610:	e58d3000 	str	r3, [sp]
    8614:	e3a03020 	mov	r3, #32, 0
    8618:	e59f2018 	ldr	r2, [pc, #24]	; 8638 <rpi_set_output+0x58>
    861c:	e59f1018 	ldr	r1, [pc, #24]	; 863c <rpi_set_output+0x5c>
    8620:	e59f0018 	ldr	r0, [pc, #24]	; 8640 <rpi_set_output+0x60>
    8624:	ebffff41 	bl	8330 <printk>
    8628:	eb00013b 	bl	8b1c <clean_reboot>
    862c:	000091a8 	andeq	r9, r0, r8, lsr #3
    8630:	000091a4 	andeq	r9, r0, r4, lsr #3
    8634:	0000906c 	andeq	r9, r0, ip, rrx
    8638:	0000917c 	andeq	r9, r0, ip, ror r1
    863c:	0000901c 	andeq	r9, r0, ip, lsl r0
    8640:	00009030 	andeq	r9, r0, r0, lsr r0

00008644 <va_printk>:
    8644:	e92d4ff0 	push	{r4, r5, r6, r7, r8, r9, sl, fp, lr}
    8648:	e24ddf45 	sub	sp, sp, #276	; 0x114
    864c:	e1a09000 	mov	r9, r0
    8650:	e58d2008 	str	r2, [sp, #8]
    8654:	e58d300c 	str	r3, [sp, #12]
    8658:	e2411001 	sub	r1, r1, #1, 0
    865c:	e0808001 	add	r8, r0, r1
    8660:	e3a03000 	mov	r3, #0, 0
    8664:	e5c03000 	strb	r3, [r0]
    8668:	e1a04000 	mov	r4, r0
    866c:	e1a06002 	mov	r6, r2
    8670:	ea000001 	b	867c <va_printk+0x38>
    8674:	e2866001 	add	r6, r6, #1, 0
    8678:	e4c43001 	strb	r3, [r4], #1
    867c:	e5d63000 	ldrb	r3, [r6]
    8680:	e3530000 	cmp	r3, #0, 0
    8684:	0a000108 	beq	8aac <va_printk+0x468>
    8688:	e1540008 	cmp	r4, r8
    868c:	2a000106 	bcs	8aac <va_printk+0x468>
    8690:	e3530025 	cmp	r3, #37, 0	; 0x25
    8694:	1afffff6 	bne	8674 <va_printk+0x30>
    8698:	e5d62001 	ldrb	r2, [r6, #1]
    869c:	e3520025 	cmp	r2, #37, 0	; 0x25
    86a0:	04c43001 	strbeq	r3, [r4], #1
    86a4:	02866002 	addeq	r6, r6, #2, 0
    86a8:	0afffff3 	beq	867c <va_printk+0x38>
    86ac:	e2866001 	add	r6, r6, #1, 0
    86b0:	e3a05000 	mov	r5, #0, 0
    86b4:	e5d67000 	ldrb	r7, [r6]
    86b8:	e1a0a007 	mov	sl, r7
    86bc:	e1a00007 	mov	r0, r7
    86c0:	ebffff3d 	bl	83bc <isdigit>
    86c4:	e3500000 	cmp	r0, #0, 0
    86c8:	0a000004 	beq	86e0 <va_printk+0x9c>
    86cc:	e0855105 	add	r5, r5, r5, lsl #2
    86d0:	e0875085 	add	r5, r7, r5, lsl #1
    86d4:	e2455030 	sub	r5, r5, #48, 0	; 0x30
    86d8:	e2866001 	add	r6, r6, #1, 0
    86dc:	eafffff4 	b	86b4 <va_printk+0x70>
    86e0:	e355001f 	cmp	r5, #31, 0
    86e4:	8a00001a 	bhi	8754 <va_printk+0x110>
    86e8:	e2477062 	sub	r7, r7, #98, 0	; 0x62
    86ec:	e3570016 	cmp	r7, #22, 0
    86f0:	979ff107 	ldrls	pc, [pc, r7, lsl #2]
    86f4:	ea0000d4 	b	8a4c <va_printk+0x408>
    86f8:	000089d0 	ldrdeq	r8, [r0], -r0
    86fc:	00008a18 	andeq	r8, r0, r8, lsl sl
    8700:	00008930 	andeq	r8, r0, r0, lsr r9
    8704:	00008a4c 	andeq	r8, r0, ip, asr #20
    8708:	00008918 	andeq	r8, r0, r8, lsl r9
    870c:	00008a4c 	andeq	r8, r0, ip, asr #20
    8710:	00008a4c 	andeq	r8, r0, ip, asr #20
    8714:	00008a4c 	andeq	r8, r0, ip, asr #20
    8718:	00008a4c 	andeq	r8, r0, ip, asr #20
    871c:	00008a4c 	andeq	r8, r0, ip, asr #20
    8720:	00008774 	andeq	r8, r0, r4, ror r7
    8724:	00008a4c 	andeq	r8, r0, ip, asr #20
    8728:	00008a4c 	andeq	r8, r0, ip, asr #20
    872c:	00008a4c 	andeq	r8, r0, ip, asr #20
    8730:	0000899c 	muleq	r0, ip, r9
    8734:	00008a4c 	andeq	r8, r0, ip, asr #20
    8738:	00008a4c 	andeq	r8, r0, ip, asr #20
    873c:	00008a04 	andeq	r8, r0, r4, lsl #20
    8740:	00008a4c 	andeq	r8, r0, ip, asr #20
    8744:	00008968 	andeq	r8, r0, r8, ror #18
    8748:	00008a4c 	andeq	r8, r0, ip, asr #20
    874c:	00008a4c 	andeq	r8, r0, ip, asr #20
    8750:	0000899c 	muleq	r0, ip, r9
    8754:	e59f3364 	ldr	r3, [pc, #868]	; 8ac0 <va_printk+0x47c>
    8758:	e58d3000 	str	r3, [sp]
    875c:	e3a03098 	mov	r3, #152, 0	; 0x98
    8760:	e59f235c 	ldr	r2, [pc, #860]	; 8ac4 <va_printk+0x480>
    8764:	e59f135c 	ldr	r1, [pc, #860]	; 8ac8 <va_printk+0x484>
    8768:	e59f035c 	ldr	r0, [pc, #860]	; 8acc <va_printk+0x488>
    876c:	ebfffeef 	bl	8330 <printk>
    8770:	eb0000e9 	bl	8b1c <clean_reboot>
    8774:	e3a02003 	mov	r2, #3, 0
    8778:	e59f1350 	ldr	r1, [pc, #848]	; 8ad0 <va_printk+0x48c>
    877c:	e1a00006 	mov	r0, r6
    8780:	eb0001ec 	bl	8f38 <strncmp>
    8784:	e3500000 	cmp	r0, #0, 0
    8788:	0a000005 	beq	87a4 <va_printk+0x160>
    878c:	e3a02003 	mov	r2, #3, 0
    8790:	e59f133c 	ldr	r1, [pc, #828]	; 8ad4 <va_printk+0x490>
    8794:	e1a00006 	mov	r0, r6
    8798:	eb0001e6 	bl	8f38 <strncmp>
    879c:	e3500000 	cmp	r0, #0, 0
    87a0:	1a000033 	bne	8874 <va_printk+0x230>
    87a4:	e286b002 	add	fp, r6, #2, 0
    87a8:	e59d300c 	ldr	r3, [sp, #12]
    87ac:	e2833007 	add	r3, r3, #7, 0
    87b0:	e3c33007 	bic	r3, r3, #7, 0
    87b4:	e2832008 	add	r2, r3, #8, 0
    87b8:	e58d200c 	str	r2, [sp, #12]
    87bc:	e593a000 	ldr	sl, [r3]
    87c0:	e5937004 	ldr	r7, [r3, #4]
    87c4:	e1a01007 	mov	r1, r7
    87c8:	e59f0308 	ldr	r0, [pc, #776]	; 8ad8 <va_printk+0x494>
    87cc:	ebfffed7 	bl	8330 <printk>
    87d0:	e1a0100a 	mov	r1, sl
    87d4:	e59f0300 	ldr	r0, [pc, #768]	; 8adc <va_printk+0x498>
    87d8:	ebfffed4 	bl	8330 <printk>
    87dc:	e3a02003 	mov	r2, #3, 0
    87e0:	e59f12e8 	ldr	r1, [pc, #744]	; 8ad0 <va_printk+0x48c>
    87e4:	e1a00006 	mov	r0, r6
    87e8:	eb0001d2 	bl	8f38 <strncmp>
    87ec:	e3500000 	cmp	r0, #0, 0
    87f0:	0a000027 	beq	8894 <va_printk+0x250>
    87f4:	e3a02003 	mov	r2, #3, 0
    87f8:	e59f12d4 	ldr	r1, [pc, #724]	; 8ad4 <va_printk+0x490>
    87fc:	e1a00006 	mov	r0, r6
    8800:	eb0001cc 	bl	8f38 <strncmp>
    8804:	e3500000 	cmp	r0, #0, 0
    8808:	1a00003b 	bne	88fc <va_printk+0x2b8>
    880c:	e3a06000 	mov	r6, #0, 0
    8810:	e58d6004 	str	r6, [sp, #4]
    8814:	e58d5000 	str	r5, [sp]
    8818:	e1a03007 	mov	r3, r7
    881c:	e3a02080 	mov	r2, #128, 0	; 0x80
    8820:	e28d1010 	add	r1, sp, #16, 0
    8824:	e3a0000a 	mov	r0, #10, 0
    8828:	ebfffeff 	bl	842c <emit>
    882c:	e1a07000 	mov	r7, r0
    8830:	e58d6004 	str	r6, [sp, #4]
    8834:	e58d5000 	str	r5, [sp]
    8838:	e1a0300a 	mov	r3, sl
    883c:	e3a02080 	mov	r2, #128, 0	; 0x80
    8840:	e28d1090 	add	r1, sp, #144, 0	; 0x90
    8844:	e3a0000a 	mov	r0, #10, 0
    8848:	ebfffef7 	bl	842c <emit>
    884c:	e59f128c 	ldr	r1, [pc, #652]	; 8ae0 <va_printk+0x49c>
    8850:	e28d0010 	add	r0, sp, #16, 0
    8854:	eb0001a4 	bl	8eec <strcmp>
    8858:	e1500006 	cmp	r0, r6
    885c:	1a000021 	bne	88e8 <va_printk+0x2a4>
    8860:	e28d1090 	add	r1, sp, #144, 0	; 0x90
    8864:	e28d0010 	add	r0, sp, #16, 0
    8868:	eb0001aa 	bl	8f18 <strcpy>
    886c:	e1a0600b 	mov	r6, fp
    8870:	ea00003a 	b	8960 <va_printk+0x31c>
    8874:	e59f3268 	ldr	r3, [pc, #616]	; 8ae4 <va_printk+0x4a0>
    8878:	e58d3000 	str	r3, [sp]
    887c:	e3a0309f 	mov	r3, #159, 0	; 0x9f
    8880:	e59f223c 	ldr	r2, [pc, #572]	; 8ac4 <va_printk+0x480>
    8884:	e59f123c 	ldr	r1, [pc, #572]	; 8ac8 <va_printk+0x484>
    8888:	e59f023c 	ldr	r0, [pc, #572]	; 8acc <va_printk+0x488>
    888c:	ebfffea7 	bl	8330 <printk>
    8890:	eb0000a1 	bl	8b1c <clean_reboot>
    8894:	e3a06000 	mov	r6, #0, 0
    8898:	e58d6004 	str	r6, [sp, #4]
    889c:	e58d5000 	str	r5, [sp]
    88a0:	e1a03007 	mov	r3, r7
    88a4:	e3a02080 	mov	r2, #128, 0	; 0x80
    88a8:	e28d1010 	add	r1, sp, #16, 0
    88ac:	e3a00010 	mov	r0, #16, 0
    88b0:	ebfffedd 	bl	842c <emit>
    88b4:	e1a07000 	mov	r7, r0
    88b8:	e58d6004 	str	r6, [sp, #4]
    88bc:	e58d5000 	str	r5, [sp]
    88c0:	e1a0300a 	mov	r3, sl
    88c4:	e3a02080 	mov	r2, #128, 0	; 0x80
    88c8:	e28d1090 	add	r1, sp, #144, 0	; 0x90
    88cc:	e3a00010 	mov	r0, #16, 0
    88d0:	ebfffed5 	bl	842c <emit>
    88d4:	e28d1092 	add	r1, sp, #146, 0	; 0x92
    88d8:	e28d0010 	add	r0, sp, #16, 0
    88dc:	eb000175 	bl	8eb8 <strcat>
    88e0:	e1a0600b 	mov	r6, fp
    88e4:	ea00001d 	b	8960 <va_printk+0x31c>
    88e8:	e28d1090 	add	r1, sp, #144, 0	; 0x90
    88ec:	e28d0010 	add	r0, sp, #16, 0
    88f0:	eb000170 	bl	8eb8 <strcat>
    88f4:	e1a0600b 	mov	r6, fp
    88f8:	ea000018 	b	8960 <va_printk+0x31c>
    88fc:	e58d6000 	str	r6, [sp]
    8900:	e3a030b6 	mov	r3, #182, 0	; 0xb6
    8904:	e59f21b8 	ldr	r2, [pc, #440]	; 8ac4 <va_printk+0x480>
    8908:	e59f11b8 	ldr	r1, [pc, #440]	; 8ac8 <va_printk+0x484>
    890c:	e59f01d4 	ldr	r0, [pc, #468]	; 8ae8 <va_printk+0x4a4>
    8910:	ebfffe86 	bl	8330 <printk>
    8914:	eb000080 	bl	8b1c <clean_reboot>
    8918:	e3a030be 	mov	r3, #190, 0	; 0xbe
    891c:	e59f21a0 	ldr	r2, [pc, #416]	; 8ac4 <va_printk+0x480>
    8920:	e59f11a0 	ldr	r1, [pc, #416]	; 8ac8 <va_printk+0x484>
    8924:	e59f01c0 	ldr	r0, [pc, #448]	; 8aec <va_printk+0x4a8>
    8928:	ebfffe80 	bl	8330 <printk>
    892c:	eb00007a 	bl	8b1c <clean_reboot>
    8930:	e59d300c 	ldr	r3, [sp, #12]
    8934:	e2832004 	add	r2, r3, #4, 0
    8938:	e58d200c 	str	r2, [sp, #12]
    893c:	e5933000 	ldr	r3, [r3]
    8940:	e3a02001 	mov	r2, #1, 0
    8944:	e58d2004 	str	r2, [sp, #4]
    8948:	e58d5000 	str	r5, [sp]
    894c:	e3a02080 	mov	r2, #128, 0	; 0x80
    8950:	e28d1010 	add	r1, sp, #16, 0
    8954:	e3a0000a 	mov	r0, #10, 0
    8958:	ebfffeb3 	bl	842c <emit>
    895c:	e1a07000 	mov	r7, r0
    8960:	e2866001 	add	r6, r6, #1, 0
    8964:	ea00004a 	b	8a94 <va_printk+0x450>
    8968:	e59d300c 	ldr	r3, [sp, #12]
    896c:	e2832004 	add	r2, r3, #4, 0
    8970:	e58d200c 	str	r2, [sp, #12]
    8974:	e5933000 	ldr	r3, [r3]
    8978:	e3a02000 	mov	r2, #0, 0
    897c:	e58d2004 	str	r2, [sp, #4]
    8980:	e58d5000 	str	r5, [sp]
    8984:	e3a02080 	mov	r2, #128, 0	; 0x80
    8988:	e28d1010 	add	r1, sp, #16, 0
    898c:	e3a0000a 	mov	r0, #10, 0
    8990:	ebfffea5 	bl	842c <emit>
    8994:	e1a07000 	mov	r7, r0
    8998:	eafffff0 	b	8960 <va_printk+0x31c>
    899c:	e59d300c 	ldr	r3, [sp, #12]
    89a0:	e2832004 	add	r2, r3, #4, 0
    89a4:	e58d200c 	str	r2, [sp, #12]
    89a8:	e5933000 	ldr	r3, [r3]
    89ac:	e3a02000 	mov	r2, #0, 0
    89b0:	e58d2004 	str	r2, [sp, #4]
    89b4:	e58d5000 	str	r5, [sp]
    89b8:	e3a02080 	mov	r2, #128, 0	; 0x80
    89bc:	e28d1010 	add	r1, sp, #16, 0
    89c0:	e3a00010 	mov	r0, #16, 0
    89c4:	ebfffe98 	bl	842c <emit>
    89c8:	e1a07000 	mov	r7, r0
    89cc:	eaffffe3 	b	8960 <va_printk+0x31c>
    89d0:	e59d300c 	ldr	r3, [sp, #12]
    89d4:	e2832004 	add	r2, r3, #4, 0
    89d8:	e58d200c 	str	r2, [sp, #12]
    89dc:	e5933000 	ldr	r3, [r3]
    89e0:	e3a02000 	mov	r2, #0, 0
    89e4:	e58d2004 	str	r2, [sp, #4]
    89e8:	e58d5000 	str	r5, [sp]
    89ec:	e3a02080 	mov	r2, #128, 0	; 0x80
    89f0:	e28d1010 	add	r1, sp, #16, 0
    89f4:	e3a00002 	mov	r0, #2, 0
    89f8:	ebfffe8b 	bl	842c <emit>
    89fc:	e1a07000 	mov	r7, r0
    8a00:	eaffffd6 	b	8960 <va_printk+0x31c>
    8a04:	e59d300c 	ldr	r3, [sp, #12]
    8a08:	e2832004 	add	r2, r3, #4, 0
    8a0c:	e58d200c 	str	r2, [sp, #12]
    8a10:	e5937000 	ldr	r7, [r3]
    8a14:	eaffffd1 	b	8960 <va_printk+0x31c>
    8a18:	e59d300c 	ldr	r3, [sp, #12]
    8a1c:	e2832004 	add	r2, r3, #4, 0
    8a20:	e58d200c 	str	r2, [sp, #12]
    8a24:	e5933000 	ldr	r3, [r3]
    8a28:	e3a02000 	mov	r2, #0, 0
    8a2c:	e58d2004 	str	r2, [sp, #4]
    8a30:	e58d5000 	str	r5, [sp]
    8a34:	e3a02080 	mov	r2, #128, 0	; 0x80
    8a38:	e28d1010 	add	r1, sp, #16, 0
    8a3c:	e3a00008 	mov	r0, #8, 0
    8a40:	ebfffe79 	bl	842c <emit>
    8a44:	e1a07000 	mov	r7, r0
    8a48:	eaffffc4 	b	8960 <va_printk+0x31c>
    8a4c:	e3a03000 	mov	r3, #0, 0
    8a50:	e5c63001 	strb	r3, [r6, #1]
    8a54:	e1a0200a 	mov	r2, sl
    8a58:	e1a0100a 	mov	r1, sl
    8a5c:	e59f008c 	ldr	r0, [pc, #140]	; 8af0 <va_printk+0x4ac>
    8a60:	ebfffe32 	bl	8330 <printk>
    8a64:	e59f3088 	ldr	r3, [pc, #136]	; 8af4 <va_printk+0x4b0>
    8a68:	e5933000 	ldr	r3, [r3]
    8a6c:	e59d0008 	ldr	r0, [sp, #8]
    8a70:	e12fff33 	blx	r3
    8a74:	e3a030e2 	mov	r3, #226, 0	; 0xe2
    8a78:	e59f2044 	ldr	r2, [pc, #68]	; 8ac4 <va_printk+0x480>
    8a7c:	e59f1044 	ldr	r1, [pc, #68]	; 8ac8 <va_printk+0x484>
    8a80:	e59f0070 	ldr	r0, [pc, #112]	; 8af8 <va_printk+0x4b4>
    8a84:	ebfffe29 	bl	8330 <printk>
    8a88:	eb000023 	bl	8b1c <clean_reboot>
    8a8c:	e2877001 	add	r7, r7, #1, 0
    8a90:	e4c43001 	strb	r3, [r4], #1
    8a94:	e1540008 	cmp	r4, r8
    8a98:	2afffef7 	bcs	867c <va_printk+0x38>
    8a9c:	e5d73000 	ldrb	r3, [r7]
    8aa0:	e3530000 	cmp	r3, #0, 0
    8aa4:	1afffff8 	bne	8a8c <va_printk+0x448>
    8aa8:	eafffef3 	b	867c <va_printk+0x38>
    8aac:	e3a03000 	mov	r3, #0, 0
    8ab0:	e4c43001 	strb	r3, [r4], #1
    8ab4:	e0440009 	sub	r0, r4, r9
    8ab8:	e28ddf45 	add	sp, sp, #276	; 0x114
    8abc:	e8bd8ff0 	pop	{r4, r5, r6, r7, r8, r9, sl, fp, pc}
    8ac0:	00009074 	andeq	r9, r0, r4, ror r0
    8ac4:	0000918c 	andeq	r9, r0, ip, lsl #3
    8ac8:	0000901c 	andeq	r9, r0, ip, lsl r0
    8acc:	00009030 	andeq	r9, r0, r0, lsr r0
    8ad0:	00009080 	andeq	r9, r0, r0, lsl #1
    8ad4:	00009084 	andeq	r9, r0, r4, lsl #1
    8ad8:	00009088 	andeq	r9, r0, r8, lsl #1
    8adc:	00009090 	muleq	r0, r0, r0
    8ae0:	00009044 	andeq	r9, r0, r4, asr #32
    8ae4:	00009098 	muleq	r0, r8, r0
    8ae8:	000090d4 	ldrdeq	r9, [r0], -r4
    8aec:	000090fc 	strdeq	r9, [r0], -ip
    8af0:	00009124 	andeq	r9, r0, r4, lsr #2
    8af4:	000091a4 	andeq	r9, r0, r4, lsr #3
    8af8:	00009154 	andeq	r9, r0, r4, asr r1

00008afc <enable_cache>:
    8afc:	ee113f10 	mrc	15, 0, r3, cr1, cr0, {0}
    8b00:	e3833b06 	orr	r3, r3, #6144	; 0x1800
    8b04:	ee013f10 	mcr	15, 0, r3, cr1, cr0, {0}
    8b08:	e12fff1e 	bx	lr

00008b0c <disable_cache>:
    8b0c:	ee113f10 	mrc	15, 0, r3, cr1, cr0, {0}
    8b10:	e3c33b06 	bic	r3, r3, #6144	; 0x1800
    8b14:	ee013f10 	mcr	15, 0, r3, cr1, cr0, {0}
    8b18:	e12fff1e 	bx	lr

00008b1c <clean_reboot>:
    8b1c:	e92d4010 	push	{r4, lr}
    8b20:	e59f3018 	ldr	r3, [pc, #24]	; 8b40 <clean_reboot+0x24>
    8b24:	e5933000 	ldr	r3, [r3]
    8b28:	e59f0014 	ldr	r0, [pc, #20]	; 8b44 <clean_reboot+0x28>
    8b2c:	e12fff33 	blx	r3
    8b30:	eb0000c3 	bl	8e44 <uart_flush_tx>
    8b34:	e3a0000a 	mov	r0, #10, 0
    8b38:	eb000047 	bl	8c5c <delay_ms>
    8b3c:	eb00001c 	bl	8bb4 <rpi_reboot>
    8b40:	000091a4 	andeq	r9, r0, r4, lsr #3
    8b44:	00009198 	muleq	r0, r8, r1

00008b48 <_cstart>:
    8b48:	e92d4010 	push	{r4, lr}
    8b4c:	eb00000c 	bl	8b84 <custom_loader>
    8b50:	e59f3024 	ldr	r3, [pc, #36]	; 8b7c <_cstart+0x34>
    8b54:	e59f2024 	ldr	r2, [pc, #36]	; 8b80 <_cstart+0x38>
    8b58:	e1530002 	cmp	r3, r2
    8b5c:	33a02000 	movcc	r2, #0, 0
    8b60:	34832004 	strcc	r2, [r3], #4
    8b64:	3afffffa 	bcc	8b54 <_cstart+0xc>
    8b68:	eb000057 	bl	8ccc <uart_init>
    8b6c:	e3a03001 	mov	r3, #1, 0
    8b70:	ee0f3f1c 	mcr	15, 0, r3, cr15, cr12, {0}
    8b74:	ebfffd69 	bl	8120 <notmain>
    8b78:	ebffffe7 	bl	8b1c <clean_reboot>
    8b7c:	000091ac 	andeq	r9, r0, ip, lsr #3
    8b80:	000095b0 			; <UNDEFINED> instruction: 0x000095b0

00008b84 <custom_loader>:
    8b84:	e12fff1e 	bx	lr

00008b88 <at_user_level>:
    8b88:	e10f0000 	mrs	r0, CPSR
    8b8c:	e200001f 	and	r0, r0, #31, 0
    8b90:	e3500010 	cmp	r0, #16, 0
    8b94:	13a00000 	movne	r0, #0, 0
    8b98:	03a00001 	moveq	r0, #1, 0
    8b9c:	e12fff1e 	bx	lr

00008ba0 <set_user_level>:
    8ba0:	e10f3000 	mrs	r3, CPSR
    8ba4:	e3c3301f 	bic	r3, r3, #31, 0
    8ba8:	e3833010 	orr	r3, r3, #16, 0
    8bac:	e129f003 	msr	CPSR_fc, r3
    8bb0:	e12fff1e 	bx	lr

00008bb4 <rpi_reboot>:
    8bb4:	e92d4010 	push	{r4, lr}
    8bb8:	ebfffff2 	bl	8b88 <at_user_level>
    8bbc:	e3500000 	cmp	r0, #0, 0
    8bc0:	1a00000a 	bne	8bf0 <rpi_reboot+0x3c>
    8bc4:	eb0000e6 	bl	8f64 <reboot_callout>
    8bc8:	eb00009d 	bl	8e44 <uart_flush_tx>
    8bcc:	e3a0000a 	mov	r0, #10, 0
    8bd0:	eb000021 	bl	8c5c <delay_ms>
    8bd4:	e59f101c 	ldr	r1, [pc, #28]	; 8bf8 <rpi_reboot+0x44>
    8bd8:	e59f001c 	ldr	r0, [pc, #28]	; 8bfc <rpi_reboot+0x48>
    8bdc:	ebfffd10 	bl	8024 <PUT32>
    8be0:	e59f1018 	ldr	r1, [pc, #24]	; 8c00 <rpi_reboot+0x4c>
    8be4:	e59f0018 	ldr	r0, [pc, #24]	; 8c04 <rpi_reboot+0x50>
    8be8:	ebfffd0d 	bl	8024 <PUT32>
    8bec:	eafffffe 	b	8bec <rpi_reboot+0x38>
    8bf0:	ebffffea 	bl	8ba0 <set_user_level>
    8bf4:	eafffff2 	b	8bc4 <rpi_reboot+0x10>
    8bf8:	5a000001 	bpl	8c04 <rpi_reboot+0x50>
    8bfc:	20100024 	andscs	r0, r0, r4, lsr #32
    8c00:	5a000020 	bpl	8c88 <delay_sec+0x14>
    8c04:	2010001c 	andscs	r0, r0, ip, lsl r0

00008c08 <timer_get_usec_raw>:
    8c08:	e92d4010 	push	{r4, lr}
    8c0c:	e59f0004 	ldr	r0, [pc, #4]	; 8c18 <timer_get_usec_raw+0x10>
    8c10:	ebfffd05 	bl	802c <GET32>
    8c14:	e8bd8010 	pop	{r4, pc}
    8c18:	20003004 	andcs	r3, r0, r4

00008c1c <timer_get_usec>:
    8c1c:	e92d4010 	push	{r4, lr}
    8c20:	eb0000d0 	bl	8f68 <dev_barrier>
    8c24:	ebfffff7 	bl	8c08 <timer_get_usec_raw>
    8c28:	e1a04000 	mov	r4, r0
    8c2c:	eb0000cd 	bl	8f68 <dev_barrier>
    8c30:	e1a00004 	mov	r0, r4
    8c34:	e8bd8010 	pop	{r4, pc}

00008c38 <delay_us>:
    8c38:	e92d4070 	push	{r4, r5, r6, lr}
    8c3c:	e1a05000 	mov	r5, r0
    8c40:	ebfffff5 	bl	8c1c <timer_get_usec>
    8c44:	e1a04000 	mov	r4, r0
    8c48:	ebfffff3 	bl	8c1c <timer_get_usec>
    8c4c:	e0400004 	sub	r0, r0, r4
    8c50:	e1500005 	cmp	r0, r5
    8c54:	3afffffb 	bcc	8c48 <delay_us+0x10>
    8c58:	e8bd8070 	pop	{r4, r5, r6, pc}

00008c5c <delay_ms>:
    8c5c:	e92d4010 	push	{r4, lr}
    8c60:	e0603280 	rsb	r3, r0, r0, lsl #5
    8c64:	e0800103 	add	r0, r0, r3, lsl #2
    8c68:	e1a00180 	lsl	r0, r0, #3
    8c6c:	ebfffff1 	bl	8c38 <delay_us>
    8c70:	e8bd8010 	pop	{r4, pc}

00008c74 <delay_sec>:
    8c74:	e92d4010 	push	{r4, lr}
    8c78:	e0603280 	rsb	r3, r0, r0, lsl #5
    8c7c:	e0800103 	add	r0, r0, r3, lsl #2
    8c80:	e1a00180 	lsl	r0, r0, #3
    8c84:	ebfffff4 	bl	8c5c <delay_ms>
    8c88:	e8bd8010 	pop	{r4, pc}

00008c8c <and_in32>:
    8c8c:	e92d4070 	push	{r4, r5, r6, lr}
    8c90:	e1a04000 	mov	r4, r0
    8c94:	e1a05001 	mov	r5, r1
    8c98:	ebfffce3 	bl	802c <GET32>
    8c9c:	e0001005 	and	r1, r0, r5
    8ca0:	e1a00004 	mov	r0, r4
    8ca4:	ebfffcde 	bl	8024 <PUT32>
    8ca8:	e8bd8070 	pop	{r4, r5, r6, pc}

00008cac <or_in32>:
    8cac:	e92d4070 	push	{r4, r5, r6, lr}
    8cb0:	e1a04000 	mov	r4, r0
    8cb4:	e1a05001 	mov	r5, r1
    8cb8:	ebfffcdb 	bl	802c <GET32>
    8cbc:	e1801005 	orr	r1, r0, r5
    8cc0:	e1a00004 	mov	r0, r4
    8cc4:	ebfffcd6 	bl	8024 <PUT32>
    8cc8:	e8bd8070 	pop	{r4, r5, r6, pc}

00008ccc <uart_init>:
    8ccc:	e92d4010 	push	{r4, lr}
    8cd0:	e3a01002 	mov	r1, #2, 0
    8cd4:	e3a0000e 	mov	r0, #14, 0
    8cd8:	ebfffd51 	bl	8224 <gpio_set_function>
    8cdc:	e3a01002 	mov	r1, #2, 0
    8ce0:	e3a0000f 	mov	r0, #15, 0
    8ce4:	ebfffd4e 	bl	8224 <gpio_set_function>
    8ce8:	eb00009e 	bl	8f68 <dev_barrier>
    8cec:	e3a01001 	mov	r1, #1, 0
    8cf0:	e59f0064 	ldr	r0, [pc, #100]	; 8d5c <uart_init+0x90>
    8cf4:	ebffffec 	bl	8cac <or_in32>
    8cf8:	eb00009a 	bl	8f68 <dev_barrier>
    8cfc:	e59f405c 	ldr	r4, [pc, #92]	; 8d60 <uart_init+0x94>
    8d00:	e3a01000 	mov	r1, #0, 0
    8d04:	e1a00004 	mov	r0, r4
    8d08:	ebfffcc5 	bl	8024 <PUT32>
    8d0c:	e3a01000 	mov	r1, #0, 0
    8d10:	e59f004c 	ldr	r0, [pc, #76]	; 8d64 <uart_init+0x98>
    8d14:	ebfffcc2 	bl	8024 <PUT32>
    8d18:	e3a01003 	mov	r1, #3, 0
    8d1c:	e59f0044 	ldr	r0, [pc, #68]	; 8d68 <uart_init+0x9c>
    8d20:	ebfffcbf 	bl	8024 <PUT32>
    8d24:	e3a01000 	mov	r1, #0, 0
    8d28:	e59f003c 	ldr	r0, [pc, #60]	; 8d6c <uart_init+0xa0>
    8d2c:	ebfffcbc 	bl	8024 <PUT32>
    8d30:	e3a010c7 	mov	r1, #199, 0	; 0xc7
    8d34:	e59f0034 	ldr	r0, [pc, #52]	; 8d70 <uart_init+0xa4>
    8d38:	ebfffcb9 	bl	8024 <PUT32>
    8d3c:	e59f1030 	ldr	r1, [pc, #48]	; 8d74 <uart_init+0xa8>
    8d40:	e59f0030 	ldr	r0, [pc, #48]	; 8d78 <uart_init+0xac>
    8d44:	ebfffcb6 	bl	8024 <PUT32>
    8d48:	e3a01003 	mov	r1, #3, 0
    8d4c:	e1a00004 	mov	r0, r4
    8d50:	ebfffcb3 	bl	8024 <PUT32>
    8d54:	eb000083 	bl	8f68 <dev_barrier>
    8d58:	e8bd8010 	pop	{r4, pc}
    8d5c:	20215004 	eorcs	r5, r1, r4
    8d60:	20215060 	eorcs	r5, r1, r0, rrx
    8d64:	20215044 	eorcs	r5, r1, r4, asr #32
    8d68:	2021504c 	eorcs	r5, r1, ip, asr #32
    8d6c:	20215050 	eorcs	r5, r1, r0, asr r0
    8d70:	20215048 	eorcs	r5, r1, r8, asr #32
    8d74:	0000010e 	andeq	r0, r0, lr, lsl #2
    8d78:	20215068 	eorcs	r5, r1, r8, rrx

00008d7c <uart_can_getc>:
    8d7c:	e92d4010 	push	{r4, lr}
    8d80:	e59f0008 	ldr	r0, [pc, #8]	; 8d90 <uart_can_getc+0x14>
    8d84:	ebfffca8 	bl	802c <GET32>
    8d88:	e2000001 	and	r0, r0, #1, 0
    8d8c:	e8bd8010 	pop	{r4, pc}
    8d90:	20215064 	eorcs	r5, r1, r4, rrx

00008d94 <uart_can_putc>:
    8d94:	e92d4010 	push	{r4, lr}
    8d98:	e59f0010 	ldr	r0, [pc, #16]	; 8db0 <uart_can_putc+0x1c>
    8d9c:	ebfffca2 	bl	802c <GET32>
    8da0:	e3100002 	tst	r0, #2, 0
    8da4:	13a00001 	movne	r0, #1, 0
    8da8:	03a00000 	moveq	r0, #0, 0
    8dac:	e8bd8010 	pop	{r4, pc}
    8db0:	20215064 	eorcs	r5, r1, r4, rrx

00008db4 <uart_getc>:
    8db4:	e92d4010 	push	{r4, lr}
    8db8:	eb00006a 	bl	8f68 <dev_barrier>
    8dbc:	ebffffee 	bl	8d7c <uart_can_getc>
    8dc0:	e3500000 	cmp	r0, #0, 0
    8dc4:	0afffffc 	beq	8dbc <uart_getc+0x8>
    8dc8:	e59f0010 	ldr	r0, [pc, #16]	; 8de0 <uart_getc+0x2c>
    8dcc:	ebfffc96 	bl	802c <GET32>
    8dd0:	e6ef4070 	uxtb	r4, r0
    8dd4:	eb000063 	bl	8f68 <dev_barrier>
    8dd8:	e1a00004 	mov	r0, r4
    8ddc:	e8bd8010 	pop	{r4, pc}
    8de0:	20215040 	eorcs	r5, r1, r0, asr #32

00008de4 <uart_putc>:
    8de4:	e92d4010 	push	{r4, lr}
    8de8:	e1a04000 	mov	r4, r0
    8dec:	eb00005d 	bl	8f68 <dev_barrier>
    8df0:	ebffffe7 	bl	8d94 <uart_can_putc>
    8df4:	e3500000 	cmp	r0, #0, 0
    8df8:	0afffffc 	beq	8df0 <uart_putc+0xc>
    8dfc:	e6ef1074 	uxtb	r1, r4
    8e00:	e59f0008 	ldr	r0, [pc, #8]	; 8e10 <uart_putc+0x2c>
    8e04:	ebfffc86 	bl	8024 <PUT32>
    8e08:	eb000056 	bl	8f68 <dev_barrier>
    8e0c:	e8bd8010 	pop	{r4, pc}
    8e10:	20215040 	eorcs	r5, r1, r0, asr #32

00008e14 <uart_has_data>:
    8e14:	e92d4010 	push	{r4, lr}
    8e18:	eb000052 	bl	8f68 <dev_barrier>
    8e1c:	ebffffd6 	bl	8d7c <uart_can_getc>
    8e20:	e8bd8010 	pop	{r4, pc}

00008e24 <uart_tx_is_empty>:
    8e24:	e92d4010 	push	{r4, lr}
    8e28:	eb00004e 	bl	8f68 <dev_barrier>
    8e2c:	e59f000c 	ldr	r0, [pc, #12]	; 8e40 <uart_tx_is_empty+0x1c>
    8e30:	ebfffc7d 	bl	802c <GET32>
    8e34:	e1a004a0 	lsr	r0, r0, #9
    8e38:	e2000001 	and	r0, r0, #1, 0
    8e3c:	e8bd8010 	pop	{r4, pc}
    8e40:	20215064 	eorcs	r5, r1, r4, rrx

00008e44 <uart_flush_tx>:
    8e44:	e92d4010 	push	{r4, lr}
    8e48:	ebfffff5 	bl	8e24 <uart_tx_is_empty>
    8e4c:	e3500000 	cmp	r0, #0, 0
    8e50:	0afffffc 	beq	8e48 <uart_flush_tx+0x4>
    8e54:	e8bd8010 	pop	{r4, pc}

00008e58 <uart_disable>:
    8e58:	e92d4010 	push	{r4, lr}
    8e5c:	ebfffff8 	bl	8e44 <uart_flush_tx>
    8e60:	eb000040 	bl	8f68 <dev_barrier>
    8e64:	e3e01001 	mvn	r1, #1, 0
    8e68:	e59f0008 	ldr	r0, [pc, #8]	; 8e78 <uart_disable+0x20>
    8e6c:	ebffff86 	bl	8c8c <and_in32>
    8e70:	eb00003c 	bl	8f68 <dev_barrier>
    8e74:	e8bd8010 	pop	{r4, pc}
    8e78:	20215004 	eorcs	r5, r1, r4

00008e7c <internal_putchar>:
    8e7c:	e92d4010 	push	{r4, lr}
    8e80:	e1a04000 	mov	r4, r0
    8e84:	ebffffd6 	bl	8de4 <uart_putc>
    8e88:	e1a00004 	mov	r0, r4
    8e8c:	e8bd8010 	pop	{r4, pc}

00008e90 <rpi_reset_putc>:
    8e90:	e59f3008 	ldr	r3, [pc, #8]	; 8ea0 <rpi_reset_putc+0x10>
    8e94:	e59f2008 	ldr	r2, [pc, #8]	; 8ea4 <rpi_reset_putc+0x14>
    8e98:	e5832000 	str	r2, [r3]
    8e9c:	e12fff1e 	bx	lr
    8ea0:	000091a8 	andeq	r9, r0, r8, lsr #3
    8ea4:	00008e7c 	andeq	r8, r0, ip, ror lr

00008ea8 <rpi_set_putc>:
    8ea8:	e59f3004 	ldr	r3, [pc, #4]	; 8eb4 <rpi_set_putc+0xc>
    8eac:	e5830000 	str	r0, [r3]
    8eb0:	e12fff1e 	bx	lr
    8eb4:	000091a8 	andeq	r9, r0, r8, lsr #3

00008eb8 <strcat>:
    8eb8:	e1a02000 	mov	r2, r0
    8ebc:	e1a03002 	mov	r3, r2
    8ec0:	e2822001 	add	r2, r2, #1, 0
    8ec4:	e5d3c000 	ldrb	ip, [r3]
    8ec8:	e35c0000 	cmp	ip, #0, 0
    8ecc:	1afffffa 	bne	8ebc <strcat+0x4>
    8ed0:	e2433001 	sub	r3, r3, #1, 0
    8ed4:	e5d12000 	ldrb	r2, [r1]
    8ed8:	e2811001 	add	r1, r1, #1, 0
    8edc:	e5e32001 	strb	r2, [r3, #1]!
    8ee0:	e3520000 	cmp	r2, #0, 0
    8ee4:	1afffffa 	bne	8ed4 <strcat+0x1c>
    8ee8:	e12fff1e 	bx	lr

00008eec <strcmp>:
    8eec:	e5d03000 	ldrb	r3, [r0]
    8ef0:	e3530000 	cmp	r3, #0, 0
    8ef4:	0a000004 	beq	8f0c <strcmp+0x20>
    8ef8:	e5d12000 	ldrb	r2, [r1]
    8efc:	e1530002 	cmp	r3, r2
    8f00:	02800001 	addeq	r0, r0, #1, 0
    8f04:	02811001 	addeq	r1, r1, #1, 0
    8f08:	0afffff7 	beq	8eec <strcmp>
    8f0c:	e5d10000 	ldrb	r0, [r1]
    8f10:	e0430000 	sub	r0, r3, r0
    8f14:	e12fff1e 	bx	lr

00008f18 <strcpy>:
    8f18:	e1a0c000 	mov	ip, r0
    8f1c:	e5d12000 	ldrb	r2, [r1]
    8f20:	e2811001 	add	r1, r1, #1, 0
    8f24:	e5cc2000 	strb	r2, [ip]
    8f28:	e28cc001 	add	ip, ip, #1, 0
    8f2c:	e3520000 	cmp	r2, #0, 0
    8f30:	1afffff9 	bne	8f1c <strcpy+0x4>
    8f34:	e12fff1e 	bx	lr

00008f38 <strncmp>:
    8f38:	e3520000 	cmp	r2, #0, 0
    8f3c:	e2422001 	sub	r2, r2, #1, 0
    8f40:	0a000005 	beq	8f5c <strncmp+0x24>
    8f44:	e4d03001 	ldrb	r3, [r0], #1
    8f48:	e4d1c001 	ldrb	ip, [r1], #1
    8f4c:	e153000c 	cmp	r3, ip
    8f50:	0afffff8 	beq	8f38 <strncmp>
    8f54:	e043000c 	sub	r0, r3, ip
    8f58:	e12fff1e 	bx	lr
    8f5c:	e3a00000 	mov	r0, #0, 0
    8f60:	e12fff1e 	bx	lr

00008f64 <reboot_callout>:
    8f64:	e12fff1e 	bx	lr

00008f68 <dev_barrier>:
    8f68:	ea000002 	b	8f78 <dsb>

00008f6c <dmb>:
    8f6c:	e3a00000 	mov	r0, #0, 0
    8f70:	ee070fba 	mcr	15, 0, r0, cr7, cr10, {5}
    8f74:	e12fff1e 	bx	lr

00008f78 <dsb>:
    8f78:	ee070f9a 	mcr	15, 0, r0, cr7, cr10, {4}
    8f7c:	e12fff1e 	bx	lr

Disassembly of section .rodata:

00008f80 <__FUNCTION__.4000-0x1f4>:
    8f80:	656d6974 	strbvs	r6, [sp, #-2420]!	; 0xfffff68c
    8f84:	2174756f 	cmncs	r4, pc, ror #10
    8f88:	61747320 	cmnvs	r4, r0, lsr #6
    8f8c:	253d7472 	ldrcs	r7, [sp, #-1138]!	; 0xfffffb8e
    8f90:	74202c64 	strtvc	r2, [r0], #-3172	; 0xfffff39c
    8f94:	2c64253d 	cfstr64cs	mvdx2, [r4], #-244	; 0xffffff0c
    8f98:	6e696d20 	cdpvs	13, 6, cr6, cr9, cr0, {1}
    8f9c:	253d7875 	ldrcs	r7, [sp, #-2165]!	; 0xfffff78b
    8fa0:	00000a64 	andeq	r0, r0, r4, ror #20
    8fa4:	73206f4e 			; <UNDEFINED> instruction: 0x73206f4e
    8fa8:	6c706d61 	ldclvs	13, cr6, [r0], #-388	; 0xfffffe7c
    8fac:	74207365 	strtvc	r7, [r0], #-869	; 0xfffffc9b
    8fb0:	7270206f 	rsbsvc	r2, r0, #111, 0	; 0x6f
    8fb4:	21746e69 	cmncs	r4, r9, ror #28
    8fb8:	0000000a 	andeq	r0, r0, sl
    8fbc:	706d7544 	rsbvc	r7, sp, r4, asr #10
    8fc0:	20676e69 	rsbcs	r6, r7, r9, ror #28
    8fc4:	73206425 			; <UNDEFINED> instruction: 0x73206425
    8fc8:	6c706d61 	ldclvs	13, cr6, [r0], #-388	; 0xfffffe7c
    8fcc:	203a7365 	eorscs	r7, sl, r5, ror #6
    8fd0:	3d3d3d3d 	ldccc	13, cr3, [sp, #-244]!	; 0xffffff0c
    8fd4:	3d3d3d3d 	ldccc	13, cr3, [sp, #-244]!	; 0xffffff0c
    8fd8:	3d3d3d3d 	ldccc	13, cr3, [sp, #-244]!	; 0xffffff0c
    8fdc:	000a3d3d 	andeq	r3, sl, sp, lsr sp
    8fe0:	3a642520 	bcc	1912468 <__bss_end__+0x1908eb8>
    8fe4:	6c617620 	stclvs	6, cr7, [r1], #-128	; 0xffffff80
    8fe8:	2c64253d 	cfstr64cs	mvdx2, [r4], #-244	; 0xffffff0c
    8fec:	6d697420 	cfstrdvs	mvd7, [r9, #-128]!	; 0xffffff80
    8ff0:	64253d65 	strtvs	r3, [r5], #-3429	; 0xfffff29b
    8ff4:	6f74202c 	svcvs	0x0074202c
    8ff8:	64253d74 	strtvs	r3, [r5], #-3444	; 0xfffff28c
    8ffc:	7865203a 	stmdavc	r5!, {r1, r3, r4, r5, sp}^
    9000:	64253d70 	strtvs	r3, [r5], #-3440	; 0xfffff290
    9004:	72652820 	rsbvc	r2, r5, #32, 16	; 0x200000
    9008:	64253d72 	strtvs	r3, [r5], #-3442	; 0xfffff28e
    900c:	6f74202c 	svcvs	0x0074202c
    9010:	72726574 	rsbsvc	r6, r2, #116, 10	; 0x1d000000
    9014:	2964253d 	stmdbcs	r4!, {r0, r2, r3, r4, r5, r8, sl, sp}^
    9018:	0000000a 	andeq	r0, r0, sl
    901c:	696c2f2e 	stmdbvs	ip!, {r1, r2, r3, r5, r8, r9, sl, fp, sp}^
    9020:	762f6362 	strtvc	r6, [pc], -r2, ror #6
    9024:	72702d61 	rsbsvc	r2, r0, #6208	; 0x1840
    9028:	6b746e69 	blvs	1d249d4 <__bss_end__+0x1d1b424>
    902c:	0000632e 	andeq	r6, r0, lr, lsr #6
    9030:	494e4150 	stmdbmi	lr, {r4, r6, r8, lr}^
    9034:	73253a43 			; <UNDEFINED> instruction: 0x73253a43
    9038:	3a73253a 	bcc	1cd2528 <__bss_end__+0x1cc8f78>
    903c:	253a6425 	ldrcs	r6, [sl, #-1061]!	; 0xfffffbdb
    9040:	00000a73 	andeq	r0, r0, r3, ror sl
    9044:	00000030 	andeq	r0, r0, r0, lsr r0
    9048:	33323130 	teqcc	r2, #12
    904c:	37363534 			; <UNDEFINED> instruction: 0x37363534
    9050:	00003938 	andeq	r3, r0, r8, lsr r9
    9054:	33323130 	teqcc	r2, #12
    9058:	37363534 			; <UNDEFINED> instruction: 0x37363534
    905c:	62613938 	rsbvs	r3, r1, #56, 18	; 0xe0000
    9060:	66656463 	strbtvs	r6, [r5], -r3, ror #8
    9064:	00000000 	andeq	r0, r0, r0
    9068:	00003130 	andeq	r3, r0, r0, lsr r1
    906c:	63747570 	cmnvs	r4, #112, 10	; 0x1c000000
    9070:	0070665f 	rsbseq	r6, r0, pc, asr r6
    9074:	74646977 	strbtvc	r6, [r4], #-2423	; 0xfffff689
    9078:	203c2068 	eorscs	r2, ip, r8, rrx
    907c:	00003233 	andeq	r3, r0, r3, lsr r2
    9080:	00786c6c 	rsbseq	r6, r8, ip, ror #24
    9084:	00646c6c 	rsbeq	r6, r4, ip, ror #24
    9088:	253d3078 	ldrcs	r3, [sp, #-120]!	; 0xffffff88
    908c:	00000a78 	andeq	r0, r0, r8, ror sl
    9090:	253d3178 	ldrcs	r3, [sp, #-376]!	; 0xfffffe88
    9094:	00000a78 	andeq	r0, r0, r8, ror sl
    9098:	6e727473 	mrcvs	4, 3, r7, cr2, cr3, {3}
    909c:	28706d63 	ldmdacs	r0!, {r0, r1, r5, r6, r8, sl, fp, sp, lr}^
    90a0:	202c7974 	eorcs	r7, ip, r4, ror r9
    90a4:	786c6c22 	stmdavc	ip!, {r1, r5, sl, fp, sp, lr}^
    90a8:	33202c22 			; <UNDEFINED> instruction: 0x33202c22
    90ac:	3d3d2029 	ldccc	0, cr2, [sp, #-164]!	; 0xffffff5c
    90b0:	7c203020 	stcvc	0, cr3, [r0], #-128	; 0xffffff80
    90b4:	7473207c 	ldrbtvc	r2, [r3], #-124	; 0xffffff84
    90b8:	6d636e72 	stclvs	14, cr6, [r3, #-456]!	; 0xfffffe38
    90bc:	79742870 	ldmdbvc	r4!, {r4, r5, r6, fp, sp}^
    90c0:	6c22202c 	stcvs	0, cr2, [r2], #-176	; 0xffffff50
    90c4:	2c22646c 	cfstrscs	mvf6, [r2], #-432	; 0xfffffe50
    90c8:	20293320 	eorcs	r3, r9, r0, lsr #6
    90cc:	30203d3d 	eorcc	r3, r0, sp, lsr sp
    90d0:	00000000 	andeq	r0, r0, r0
    90d4:	494e4150 	stmdbmi	lr, {r4, r6, r8, lr}^
    90d8:	73253a43 			; <UNDEFINED> instruction: 0x73253a43
    90dc:	3a73253a 	bcc	1cd25cc <__bss_end__+0x1cc901c>
    90e0:	693a6425 	ldmdbvs	sl!, {r0, r2, r5, sl, sp, lr}
    90e4:	736f706d 	cmnvc	pc, #109, 0	; 0x6d
    90e8:	6c626973 			; <UNDEFINED> instruction: 0x6c626973
    90ec:	66203a65 	strtvs	r3, [r0], -r5, ror #20
    90f0:	3c3d746d 	cfldrscc	mvf7, [sp], #-436	; 0xfffffe4c
    90f4:	0a3e7325 	beq	fa5d90 <__bss_end__+0xf9c7e0>
    90f8:	0000000a 	andeq	r0, r0, sl
    90fc:	494e4150 	stmdbmi	lr, {r4, r6, r8, lr}^
    9100:	73253a43 			; <UNDEFINED> instruction: 0x73253a43
    9104:	3a73253a 	bcc	1cd25f4 <__bss_end__+0x1cc9044>
    9108:	663a6425 	ldrtvs	r6, [sl], -r5, lsr #8
    910c:	74616f6c 	strbtvc	r6, [r1], #-3948	; 0xfffff094
    9110:	746f6e20 	strbtvc	r6, [pc], #-3616	; 9118 <__code_end__+0x198>
    9114:	616e6520 	cmnvs	lr, r0, lsr #10
    9118:	64656c62 	strbtvs	r6, [r5], #-3170	; 0xfffff39e
    911c:	0a212121 	beq	8515a8 <__bss_end__+0x847ff8>
    9120:	00000000 	andeq	r0, r0, r0
    9124:	6e697270 	mcrvs	2, 3, r7, cr9, cr0, {3}
    9128:	203a6b74 	eorscs	r6, sl, r4, ror fp
    912c:	20746f6e 	rsbscs	r6, r4, lr, ror #30
    9130:	646e6168 	strbtvs	r6, [lr], #-360	; 0xfffffe98
    9134:	676e696c 	strbvs	r6, [lr, -ip, ror #18]!
    9138:	65707320 	ldrbvs	r7, [r0, #-800]!	; 0xfffffce0
    913c:	69666963 	stmdbvs	r6!, {r0, r1, r5, r6, r8, fp, sp, lr}^
    9140:	27207265 	strcs	r7, [r0, -r5, ror #4]!
    9144:	20276325 	eorcs	r6, r7, r5, lsr #6
    9148:	63736128 	cmnvs	r3, #10
    914c:	253d6969 	ldrcs	r6, [sp, #-2409]!	; 0xfffff697
    9150:	000a2964 	andeq	r2, sl, r4, ror #18
    9154:	494e4150 	stmdbmi	lr, {r4, r6, r8, lr}^
    9158:	73253a43 			; <UNDEFINED> instruction: 0x73253a43
    915c:	3a73253a 	bcc	1cd264c <__bss_end__+0x1cc909c>
    9160:	703a6425 	eorsvc	r6, sl, r5, lsr #8
    9164:	746e6972 	strbtvc	r6, [lr], #-2418	; 0xfffff68e
    9168:	7265206b 	rsbvc	r2, r5, #107, 0	; 0x6b
    916c:	0a726f72 	beq	1ca4f3c <__bss_end__+0x1c9b98c>
    9170:	0000000a 	andeq	r0, r0, sl

00009174 <__FUNCTION__.4000>:
    9174:	74696d65 	strbtvc	r6, [r9], #-3429	; 0xfffff29b
    9178:	00000000 	andeq	r0, r0, r0

0000917c <__FUNCTION__.3948>:
    917c:	5f697072 	svcpl	0x00697072
    9180:	5f746573 	svcpl	0x00746573
    9184:	7074756f 	rsbsvc	r7, r4, pc, ror #10
    9188:	00007475 	andeq	r7, r0, r5, ror r4

0000918c <__FUNCTION__.4026>:
    918c:	705f6176 	subsvc	r6, pc, r6, ror r1	; <UNPREDICTABLE>
    9190:	746e6972 	strbtvc	r6, [lr], #-2418	; 0xfffff68e
    9194:	0000006b 	andeq	r0, r0, fp, rrx
    9198:	454e4f44 	strbmi	r4, [lr, #-3908]	; 0xfffff0bc
    919c:	0a212121 	beq	851628 <__bss_end__+0x848078>
	...

Disassembly of section .data:

000091a4 <putk>:
    91a4:	00008388 	andeq	r8, r0, r8, lsl #7

000091a8 <rpi_putchar>:
    91a8:	00008e7c 	andeq	r8, r0, ip, ror lr

Disassembly of section .bss:

000091ac <__bss_start__>:
	...

Disassembly of section .ARM.attributes:

00000000 <.ARM.attributes>:
   0:	00002a41 	andeq	r2, r0, r1, asr #20
   4:	61656100 	cmnvs	r5, r0, lsl #2
   8:	01006962 	tsteq	r0, r2, ror #18
   c:	00000020 	andeq	r0, r0, r0, lsr #32
  10:	4b5a3605 	blmi	168d82c <__bss_end__+0x168427c>
  14:	08070600 	stmdaeq	r7, {r9, sl}
  18:	12010901 	andne	r0, r1, #16384	; 0x4000
  1c:	15011404 	strne	r1, [r1, #-1028]	; 0xfffffbfc
  20:	18031701 	stmdane	r3, {r0, r8, r9, sl, ip}
  24:	22011a01 	andcs	r1, r1, #4096	; 0x1000
  28:	Address 0x0000000000000028 is out of bounds.


Disassembly of section .comment:

00000000 <.comment>:
   0:	3a434347 	bcc	10d0d24 <__bss_end__+0x10c7774>
   4:	4e472820 	cdpmi	8, 4, cr2, cr7, cr0, {1}
   8:	6f542055 	svcvs	0x00542055
   c:	20736c6f 	rsbscs	r6, r3, pc, ror #24
  10:	20726f66 	rsbscs	r6, r2, r6, ror #30
  14:	206d7241 	rsbcs	r7, sp, r1, asr #4
  18:	65626d45 	strbvs	r6, [r2, #-3397]!	; 0xfffff2bb
  1c:	64656464 	strbtvs	r6, [r5], #-1124	; 0xfffffb9c
  20:	6f725020 	svcvs	0x00725020
  24:	73736563 	cmnvc	r3, #415236096	; 0x18c00000
  28:	2073726f 	rsbscs	r7, r3, pc, ror #4
  2c:	30322d39 	eorscc	r2, r2, r9, lsr sp
  30:	712d3931 			; <UNDEFINED> instruction: 0x712d3931
  34:	616d2d34 	cmnvs	sp, r4, lsr sp
  38:	29726f6a 	ldmdbcs	r2!, {r1, r3, r5, r6, r8, r9, sl, fp, sp, lr}^
  3c:	322e3920 	eorcc	r3, lr, #32, 18	; 0x80000
  40:	3220312e 	eorcc	r3, r0, #-2147483637	; 0x8000000b
  44:	31393130 	teqcc	r9, r0, lsr r1
  48:	20353230 	eorscs	r3, r5, r0, lsr r2
  4c:	6c657228 	sfmvs	f7, 2, [r5], #-160	; 0xffffff60
  50:	65736165 	ldrbvs	r6, [r3, #-357]!	; 0xfffffe9b
  54:	415b2029 	cmpmi	fp, r9, lsr #32
  58:	612f4d52 			; <UNDEFINED> instruction: 0x612f4d52
  5c:	392d6d72 	pushcc	{r1, r4, r5, r6, r8, sl, fp, sp, lr}
  60:	6172622d 	cmnvs	r2, sp, lsr #4
  64:	2068636e 	rsbcs	r6, r8, lr, ror #6
  68:	69766572 	ldmdbvs	r6!, {r1, r4, r5, r6, r8, sl, sp, lr}^
  6c:	6e6f6973 			; <UNDEFINED> instruction: 0x6e6f6973
  70:	37373220 	ldrcc	r3, [r7, -r0, lsr #4]!
  74:	5d393935 			; <UNDEFINED> instruction: 0x5d393935
  78:	43434700 	movtmi	r4, #14080	; 0x3700
  7c:	4728203a 			; <UNDEFINED> instruction: 0x4728203a
  80:	4120554e 			; <UNDEFINED> instruction: 0x4120554e
  84:	45206d72 	strmi	r6, [r0, #-3442]!	; 0xfffff28e
  88:	6465626d 	strbtvs	r6, [r5], #-621	; 0xfffffd93
  8c:	20646564 	rsbcs	r6, r4, r4, ror #10
  90:	6c6f6f54 	stclvs	15, cr6, [pc], #-336	; ffffff48 <__bss_end__+0xffff6998>
  94:	69616863 	stmdbvs	r1!, {r0, r1, r5, r6, fp, sp, lr}^
  98:	3031206e 	eorscc	r2, r1, lr, rrx
  9c:	322d332e 	eorcc	r3, sp, #-1207959552	; 0xb8000000
  a0:	2e313230 	mrccs	2, 1, r3, cr1, cr0, {1}
  a4:	20293031 	eorcs	r3, r9, r1, lsr r0
  a8:	332e3031 			; <UNDEFINED> instruction: 0x332e3031
  ac:	3220312e 	eorcc	r3, r0, #-2147483637	; 0x8000000b
  b0:	30313230 	eorscc	r3, r1, r0, lsr r2
  b4:	20343238 	eorscs	r3, r4, r8, lsr r2
  b8:	6c657228 	sfmvs	f7, 2, [r5], #-160	; 0xffffff60
  bc:	65736165 	ldrbvs	r6, [r3, #-357]!	; 0xfffffe9b
  c0:	Address 0x00000000000000c0 is out of bounds.


Disassembly of section .debug_info:

00000000 <.debug_info>:
       0:	00000627 	andeq	r0, r0, r7, lsr #12
       4:	00000004 	andeq	r0, r0, r4
       8:	01040000 	mrseq	r0, (UNDEF: 4)
       c:	0000013b 	andeq	r0, r0, fp, lsr r1
      10:	00005a0c 	andeq	r5, r0, ip, lsl #20
      14:	00000000 	andeq	r0, r0, r0
      18:	00804000 	addeq	r4, r0, r0
      1c:	0001e400 	andeq	lr, r1, r0, lsl #8
      20:	00000000 	andeq	r0, r0, r0
      24:	05040200 	streq	r0, [r4, #-512]	; 0xfffffe00
      28:	00746e69 	rsbseq	r6, r4, r9, ror #28
      2c:	ff070403 			; <UNDEFINED> instruction: 0xff070403
      30:	04000000 	streq	r0, [r0], #-0
      34:	0000002c 	andeq	r0, r0, ip, lsr #32
      38:	e1060103 	tst	r6, r3, lsl #2
      3c:	03000000 	movweq	r0, #0
      40:	003f0502 	eorseq	r0, pc, r2, lsl #10
      44:	04030000 	streq	r0, [r3], #-0
      48:	0000a205 	andeq	sl, r0, r5, lsl #4
      4c:	05080300 	streq	r0, [r8, #-768]	; 0xfffffd00
      50:	0000009d 	muleq	r0, sp, r0
      54:	df080103 	svcle	0x00080103
      58:	03000000 	movweq	r0, #0
      5c:	011d0702 	tsteq	sp, r2, lsl #14
      60:	0c050000 	stceq	0, cr0, [r5], {-0}
      64:	05000001 	streq	r0, [r0, #-1]
      68:	00731934 	rsbseq	r1, r3, r4, lsr r9
      6c:	62060000 	andvs	r0, r6, #0, 0
      70:	03000000 	movweq	r0, #0
      74:	00fa0704 	rscseq	r0, sl, r4, lsl #14
      78:	08030000 	stmdaeq	r3, {}	; <UNPREDICTABLE>
      7c:	0000f507 	andeq	pc, r0, r7, lsl #10
      80:	00250700 	eoreq	r0, r5, r0, lsl #14
      84:	00900000 	addseq	r0, r0, r0
      88:	25080000 	strcs	r0, [r8, #-0]
      8c:	00000000 	andeq	r0, r0, r0
      90:	00004e09 	andeq	r4, r0, r9, lsl #28
      94:	0e1c0400 	cfmulseq	mvf0, mvf12, mvf0
      98:	0000009c 	muleq	r0, ip, r0
      9c:	0081040a 	addeq	r0, r1, sl, lsl #8
      a0:	25070000 	strcs	r0, [r7, #-0]
      a4:	b1000000 	mrslt	r0, (UNDEF: 0)
      a8:	08000000 	stmdaeq	r0, {}	; <UNPREDICTABLE>
      ac:	000000b1 	strheq	r0, [r0], -r1
      b0:	be040a00 	vmlalt.f32	s0, s8, s0
      b4:	03000000 	movweq	r0, #0
      b8:	00e80801 	rsceq	r0, r8, r1, lsl #16
      bc:	b7040000 	strlt	r0, [r4, -r0]
      c0:	09000000 	stmdbeq	r0, {}	; <UNPREDICTABLE>
      c4:	00000467 	andeq	r0, r0, r7, ror #8
      c8:	cf0e2104 	svcgt	0x000e2104
      cc:	0a000000 	beq	d4 <__code_start__-0x7f2c>
      d0:	0000a204 	andeq	sl, r0, r4, lsl #4
      d4:	02080b00 	andeq	r0, r8, #0, 22
      d8:	00f70906 	rscseq	r0, r7, r6, lsl #18
      dc:	760c0000 	strvc	r0, [ip], -r0
      e0:	0e070200 	cdpeq	2, 0, cr0, cr7, cr0, {0}
      e4:	0000002c 	andeq	r0, r0, ip, lsr #32
      e8:	00ed0d00 	rsceq	r0, sp, r0, lsl #26
      ec:	07020000 	streq	r0, [r2, -r0]
      f0:	00002c10 	andeq	r2, r0, r0, lsl ip
      f4:	05000400 	streq	r0, [r0, #-1024]	; 0xfffffc00
      f8:	00000077 	andeq	r0, r0, r7, ror r0
      fc:	d5030802 	strle	r0, [r3, #-2050]	; 0xfffff7fe
     100:	0e000000 	cdpeq	0, 0, cr0, cr0, cr0, {0}
     104:	00000200 	andeq	r0, r0, r0, lsl #4
     108:	33171901 	tstcc	r7, #16384	; 0x4000
     10c:	34000000 	strcc	r0, [r0], #-0
     110:	0f202000 	svceq	0x00202000
     114:	006c6176 	rsbeq	r6, ip, r6, ror r1
     118:	1f1b1a01 	svcne	0x001b1a01
     11c:	0a000001 	beq	128 <__code_start__-0x7ed8>
     120:	00006e04 	andeq	r6, r0, r4, lsl #28
     124:	01151000 	tsteq	r5, r0
     128:	49010000 	stmdbmi	r1, {}	; <UNPREDICTABLE>
     12c:	00812006 	addeq	r2, r1, r6
     130:	00010400 	andeq	r0, r1, r0, lsl #8
     134:	009c0100 	addseq	r0, ip, r0, lsl #2
     138:	11000003 	tstne	r0, r3
     13c:	006e6970 	rsbeq	r6, lr, r0, ror r9
     140:	25094d01 	strcs	r4, [r9, #-3329]	; 0xfffff2ff
     144:	15000000 	strne	r0, [r0, #-0]
     148:	676f6c12 			; <UNDEFINED> instruction: 0x676f6c12
     14c:	0f540100 	svceq	0x00540100
     150:	00000300 	andeq	r0, r0, r0, lsl #6
     154:	7dd89103 	ldfvcp	f1, [r8, #12]
     158:	0000a013 	andeq	sl, r0, r3, lsl r0
     15c:	00016e00 	andeq	r6, r1, r0, lsl #28
     160:	6e691100 	powvse	f1, f1, f0
     164:	05510100 	ldrbeq	r0, [r1, #-256]	; 0xffffff00
     168:	0000002c 	andeq	r0, r0, ip, lsr #32
     16c:	b8130001 	ldmdalt	r3, {r0}
     170:	da000000 	ble	178 <__code_start__-0x7e88>
     174:	14000002 	strne	r0, [r0], #-2
     178:	58010069 	stmdapl	r1, {r0, r3, r5, r6}
     17c:	0000250d 	andeq	r2, r0, sp, lsl #10
     180:	00000200 	andeq	r0, r0, r0, lsl #4
     184:	00000000 	andeq	r0, r0, r0
     188:	00e01500 	rsceq	r1, r0, r0, lsl #10
     18c:	6e140000 	cdpvs	0, 1, cr0, cr4, cr0, {0}
     190:	12590100 	subsne	r0, r9, #0
     194:	0000002c 	andeq	r0, r0, ip, lsr #32
     198:	00000022 	andeq	r0, r0, r2, lsr #32
     19c:	00000016 	andeq	r0, r0, r6, lsl r0
     1a0:	00056816 	andeq	r6, r5, r6, lsl r8
     1a4:	00815c00 	addeq	r5, r1, r0, lsl #24
     1a8:	01000100 	mrseq	r0, (UNDEF: 16)
     1ac:	5a010000 	bpl	401b4 <__bss_end__+0x36c04>
     1b0:	0002b609 	andeq	fp, r2, r9, lsl #12
     1b4:	058d1700 	streq	r1, [sp, #1792]	; 0x700
     1b8:	00720000 	rsbseq	r0, r2, r0
     1bc:	006e0000 	rsbeq	r0, lr, r0
     1c0:	83170000 	tsthi	r7, #0, 0
     1c4:	a2000005 	andge	r0, r0, #5, 0
     1c8:	96000000 	strls	r0, [r0], -r0
     1cc:	17000000 	strne	r0, [r0, -r0]
     1d0:	00000579 	andeq	r0, r0, r9, ror r5
     1d4:	000000fa 	strdeq	r0, [r0], -sl
     1d8:	000000ee 	andeq	r0, r0, lr, ror #1
     1dc:	00010015 	andeq	r0, r1, r5, lsl r0
     1e0:	05991800 	ldreq	r1, [r9, #2048]	; 0x800
     1e4:	01560000 	cmpeq	r6, r0
     1e8:	01500000 	cmpeq	r0, r0
     1ec:	a5180000 	ldrge	r0, [r8, #-0]
     1f0:	89000005 	stmdbhi	r0, {r0, r2}
     1f4:	81000001 	tsthi	r0, r1
     1f8:	18000001 	stmdane	r0, {r0}
     1fc:	000005b1 			; <UNDEFINED> instruction: 0x000005b1
     200:	000001c9 	andeq	r0, r0, r9, asr #3
     204:	000001bf 			; <UNDEFINED> instruction: 0x000001bf
     208:	0005bd19 	andeq	fp, r5, r9, lsl sp
     20c:	00012000 	andeq	r2, r1, r0
     210:	00028400 	andeq	r8, r2, r0, lsl #8
     214:	05be1800 	ldreq	r1, [lr, #2048]!	; 0x800
     218:	02140000 	andseq	r0, r4, #0, 0
     21c:	020a0000 	andeq	r0, sl, #0, 0
     220:	c81a0000 	ldmdagt	sl, {}	; <UNPREDICTABLE>
     224:	48000005 	stmdami	r0, {r0, r2}
     228:	18000001 	stmdane	r0, {r0}
     22c:	000005c9 	andeq	r0, r0, r9, asr #11
     230:	0000025c 	andeq	r0, r0, ip, asr r2
     234:	00000256 	andeq	r0, r0, r6, asr r2
     238:	0005d318 	andeq	sp, r5, r8, lsl r3
     23c:	0002aa00 	andeq	sl, r2, r0, lsl #20
     240:	0002a600 	andeq	sl, r2, r0, lsl #12
     244:	05df1800 	ldrbeq	r1, [pc, #2048]	; a4c <__code_start__-0x75b4>
     248:	02ce0000 	sbceq	r0, lr, #0, 0
     24c:	02c80000 	sbceq	r0, r8, #0, 0
     250:	eb1b0000 	bl	6c0258 <__bss_end__+0x6b6ca8>
     254:	1c000005 	stcne	0, cr0, [r0], {5}
     258:	000081dc 	ldrdeq	r8, [r0], -ip
     25c:	000005fa 	strdeq	r0, [r0], -sl
     260:	0250011d 	subseq	r0, r0, #1073741831	; 0x40000007
     264:	011d007a 	tsteq	sp, sl, ror r0
     268:	7f760251 	svcvc	0x00760251
     26c:	007d021d 	rsbseq	r0, sp, sp, lsl r2
     270:	1d007502 	cfstr32ne	mvfx7, [r0, #-8]
     274:	02047d02 	andeq	r7, r4, #128	; 0x80
     278:	021d0074 	andseq	r0, sp, #116, 0	; 0x74
     27c:	78020c7d 	stmdavc	r2, {r0, r2, r3, r4, r5, r6, sl, fp}
     280:	00000000 	andeq	r0, r0, r0
     284:	0081701e 	addeq	r7, r1, lr, lsl r0
     288:	0005fa00 	andeq	pc, r5, r0, lsl #20
     28c:	0002a100 	andeq	sl, r2, r0, lsl #2
     290:	50011d00 	andpl	r1, r1, r0, lsl #26
     294:	8fbc0305 	svchi	0x00bc0305
     298:	011d0000 	tsteq	sp, r0
     29c:	00770251 	rsbseq	r0, r7, r1, asr r2
     2a0:	82041c00 	andhi	r1, r4, #0, 24
     2a4:	05fa0000 	ldrbeq	r0, [sl, #0]!
     2a8:	011d0000 	tsteq	sp, r0
     2ac:	a4030550 	strge	r0, [r3], #-1360	; 0xfffffab0
     2b0:	0000008f 	andeq	r0, r0, pc, lsl #1
     2b4:	5c1c0000 	ldcpl	0, cr0, [ip], {-0}
     2b8:	10000081 	andne	r0, r0, r1, lsl #1
     2bc:	1d000003 	stcne	0, cr0, [r0, #-12]
     2c0:	45015001 	strmi	r5, [r1, #-1]
     2c4:	0351011d 	cmpeq	r1, #1073741831	; 0x40000007
     2c8:	1d7dd091 	ldclne	0, cr13, [sp, #-580]!	; 0xfffffdbc
     2cc:	08025201 	stmdaeq	r2, {r0, r9, ip, lr}
     2d0:	53011d20 	movwpl	r1, #7456	; 0x1d20
     2d4:	00007b02 	andeq	r7, r0, r2, lsl #22
     2d8:	2c1f0000 	ldccs	0, cr0, [pc], {-0}
     2dc:	06000081 	streq	r0, [r0], -r1, lsl #1
     2e0:	1e000006 	cdpne	0, 0, cr0, cr0, cr6, {0}
     2e4:	00008134 	andeq	r8, r0, r4, lsr r1
     2e8:	00000612 	andeq	r0, r0, r2, lsl r6
     2ec:	000002f6 	strdeq	r0, [r0], -r6
     2f0:	0150011d 	cmpeq	r0, sp, lsl r1
     2f4:	fc1f0045 	ldc2	0, cr0, [pc], {69}	; 0x45
     2f8:	1e000081 	cdpne	0, 0, cr0, cr0, cr1, {4}
     2fc:	00000006 	andeq	r0, r0, r6
     300:	0000f720 	andeq	pc, r0, r0, lsr #14
     304:	00031000 	andeq	r1, r3, r0
     308:	002c2100 	eoreq	r2, ip, r0, lsl #2
     30c:	001f0000 	andseq	r0, pc, r0
     310:	00003922 	andeq	r3, r0, r2, lsr #18
     314:	0a210100 	beq	84071c <__bss_end__+0x83716c>
     318:	0000002c 	andeq	r0, r0, ip, lsr #32
     31c:	00008040 	andeq	r8, r0, r0, asr #32
     320:	000000d8 	ldrdeq	r0, [r0], -r8
     324:	04dd9c01 	ldrbeq	r9, [sp], #3073	; 0xc01
     328:	70230000 	eorvc	r0, r3, r0
     32c:	01006e69 	tsteq	r0, r9, ror #28
     330:	002c1921 	eoreq	r1, ip, r1, lsr #18
     334:	03010000 	movweq	r0, #4096	; 0x1000
     338:	02fd0000 	rscseq	r0, sp, #0, 0
     33c:	6c230000 	stcvs	0, cr0, [r3], #-0
     340:	29210100 	stmdbcs	r1!, {r8}
     344:	000004dd 	ldrdeq	r0, [r0], -sp
     348:	0000032a 	andeq	r0, r0, sl, lsr #6
     34c:	00000322 	andeq	r0, r0, r2, lsr #6
     350:	00022c24 	andeq	r2, r2, r4, lsr #24
     354:	35210100 	strcc	r0, [r1, #-256]!	; 0xffffff00
     358:	0000002c 	andeq	r0, r0, ip, lsr #32
     35c:	00000365 	andeq	r0, r0, r5, ror #6
     360:	00000361 	andeq	r0, r0, r1, ror #6
     364:	00013024 	andeq	r3, r1, r4, lsr #32
     368:	45210100 	strmi	r0, [r1, #-256]!	; 0xffffff00
     36c:	0000002c 	andeq	r0, r0, ip, lsr #32
     370:	00000387 	andeq	r0, r0, r7, lsl #7
     374:	00000383 	andeq	r0, r0, r3, lsl #7
     378:	00317614 	eorseq	r7, r1, r4, lsl r6
     37c:	2c0e2201 	sfmcs	f2, 4, [lr], {1}
     380:	b0000000 	andlt	r0, r0, r0
     384:	a8000003 	stmdage	r0, {r0, r1}
     388:	14000003 	strne	r0, [r0], #-3
     38c:	01003076 	tsteq	r0, r6, ror r0
     390:	002c1222 	eoreq	r1, ip, r2, lsr #4
     394:	03ee0000 	mvneq	r0, #0, 0
     398:	03e40000 	mvneq	r0, #0, 0
     39c:	69140000 	ldmdbvs	r4, {}	; <UNPREDICTABLE>
     3a0:	0e230100 	sufeqs	f0, f3, f0
     3a4:	0000002c 	andeq	r0, r0, ip, lsr #32
     3a8:	00000435 	andeq	r0, r0, r5, lsr r4
     3ac:	0000042d 	andeq	r0, r0, sp, lsr #8
     3b0:	00020a25 	andeq	r0, r2, r5, lsr #20
     3b4:	0e240100 	sufeqs	f0, f4, f0
     3b8:	0000002c 	andeq	r0, r0, ip, lsr #32
     3bc:	0000046d 	andeq	r0, r0, sp, ror #8
     3c0:	0000046b 	andeq	r0, r0, fp, ror #8
     3c4:	00050425 	andeq	r0, r5, r5, lsr #8
     3c8:	0e2c0100 	sufeqe	f0, f4, f0
     3cc:	0000002c 	andeq	r0, r0, ip, lsr #32
     3d0:	00000484 	andeq	r0, r0, r4, lsl #9
     3d4:	00000480 	andeq	r0, r0, r0, lsl #9
     3d8:	01007414 	tsteq	r0, r4, lsl r4
     3dc:	002c282c 	eoreq	r2, ip, ip, lsr #16
     3e0:	04a80000 	strteq	r0, [r8], #0
     3e4:	04a20000 	strteq	r0, [r2], #0
     3e8:	6e140000 	cdpvs	0, 1, cr0, cr4, cr0, {0}
     3ec:	0e2f0100 	sufeqe	f0, f7, f0
     3f0:	0000002c 	andeq	r0, r0, ip, lsr #32
     3f4:	000004d9 	ldrdeq	r0, [r0], -r9
     3f8:	000004d1 	ldrdeq	r0, [r0], -r1
     3fc:	00805c26 	addeq	r5, r0, r6, lsr #24
     400:	00000400 	andeq	r0, r0, r0, lsl #8
     404:	00041e00 	andeq	r1, r4, r0, lsl #28
     408:	00492500 	subeq	r2, r9, r0, lsl #10
     40c:	24010000 	strcs	r0, [r1], #-0
     410:	00002c1e 	andeq	r2, r0, lr, lsl ip
     414:	00051100 	andeq	r1, r5, r0, lsl #2
     418:	00050f00 	andeq	r0, r5, r0, lsl #30
     41c:	7c260000 	stcvc	0, cr0, [r6], #-0
     420:	04000080 	streq	r0, [r0], #-128	; 0xffffff80
     424:	40000000 	andmi	r0, r0, r0
     428:	25000004 	strcs	r0, [r0, #-4]
     42c:	00000049 	andeq	r0, r0, r9, asr #32
     430:	2c162c01 	ldccs	12, cr2, [r6], {1}
     434:	28000000 	stmdacs	r0, {}	; <UNPREDICTABLE>
     438:	24000005 	strcs	r0, [r0], #-5
     43c:	00000005 	andeq	r0, r0, r5
     440:	00005813 	andeq	r5, r0, r3, lsl r8
     444:	00047800 	andeq	r7, r4, r0, lsl #16
     448:	6f6e1400 	svcvs	0x006e1400
     44c:	36010077 			; <UNDEFINED> instruction: 0x36010077
     450:	00002c16 	andeq	r2, r0, r6, lsl ip
     454:	00054800 	andeq	r4, r5, r0, lsl #16
     458:	00054600 	andeq	r4, r5, r0, lsl #12
     45c:	00701500 	rsbseq	r1, r0, r0, lsl #10
     460:	49250000 	stmdbmi	r5!, {}	; <UNPREDICTABLE>
     464:	01000000 	mrseq	r0, (UNDEF: 0)
     468:	002c1c36 	eoreq	r1, ip, r6, lsr ip
     46c:	055d0000 	ldrbeq	r0, [sp, #-0]
     470:	055b0000 	ldrbeq	r0, [fp, #-0]
     474:	00000000 	andeq	r0, r0, r0
     478:	00008813 	andeq	r8, r0, r3, lsl r8
     47c:	00049600 	andeq	r9, r4, r0, lsl #12
     480:	00492500 	subeq	r2, r9, r0, lsl #10
     484:	40010000 	andmi	r0, r1, r0
     488:	00002c21 	andeq	r2, r0, r1, lsr #24
     48c:	00057400 	andeq	r7, r5, r0, lsl #8
     490:	00057000 	andeq	r7, r5, r0
     494:	e3270000 			; <UNDEFINED> instruction: 0xe3270000
     498:	40000004 	andmi	r0, r0, r4
     49c:	02000080 	andeq	r0, r0, #128, 0	; 0x80
     4a0:	00000000 	andeq	r0, r0, r0
     4a4:	27172201 	ldrcs	r2, [r7, -r1, lsl #4]
     4a8:	000004e3 	andeq	r0, r0, r3, ror #9
     4ac:	00008068 	andeq	r8, r0, r8, rrx
     4b0:	00002003 	andeq	r2, r0, r3
     4b4:	11270100 			; <UNDEFINED> instruction: 0x11270100
     4b8:	0004e327 	andeq	lr, r4, r7, lsr #6
     4bc:	0080a400 	addeq	sl, r0, r0, lsl #8
     4c0:	00380100 	eorseq	r0, r8, r0, lsl #2
     4c4:	34010000 	strcc	r0, [r1], #-0
     4c8:	81001c0e 	tsthi	r0, lr, lsl #24
     4cc:	05fa0000 	ldrbeq	r0, [sl, #0]!
     4d0:	011d0000 	tsteq	sp, r0
     4d4:	80030550 	andhi	r0, r3, r0, asr r5
     4d8:	0000008f 	andeq	r0, r0, pc, lsl #1
     4dc:	f7040a00 			; <UNDEFINED> instruction: 0xf7040a00
     4e0:	28000000 	stmdacs	r0, {}	; <UNPREDICTABLE>
     4e4:	0000008f 	andeq	r0, r0, pc, lsl #1
     4e8:	2c181c01 	ldccs	12, cr1, [r8], {1}
     4ec:	03000000 	movweq	r0, #0
     4f0:	0000ac29 	andeq	sl, r0, r9, lsr #24
     4f4:	110b0300 	mrsne	r0, (UNDEF: 59)
     4f8:	0000002c 	andeq	r0, r0, ip, lsr #32
     4fc:	00051901 	andeq	r1, r5, r1, lsl #18
     500:	00732a00 	rsbseq	r2, r3, r0, lsl #20
     504:	2c270b03 			; <UNDEFINED> instruction: 0x2c270b03
     508:	2b000000 	blcs	510 <__code_start__-0x7af0>
     50c:	000000c0 	andeq	r0, r0, r0, asr #1
     510:	00000529 	andeq	r0, r0, r9, lsr #10
     514:	000000ac 	andeq	r0, r0, ip, lsr #1
     518:	00be2000 	adcseq	r2, lr, r0
     51c:	05290000 	streq	r0, [r9, #-0]!
     520:	2c210000 	stccs	0, cr0, [r1], #-0
     524:	0c000000 	stceq	0, cr0, [r0], {-0}
     528:	05190400 	ldreq	r0, [r9, #-1024]	; 0xfffffc00
     52c:	ab290000 	blge	a40534 <__bss_end__+0xa36f84>
     530:	03000000 	movweq	r0, #0
     534:	002c1808 	eoreq	r1, ip, r8, lsl #16
     538:	4b030000 	blmi	c0540 <__bss_end__+0xb6f90>
     53c:	2a000005 	bcs	558 <__code_start__-0x7aa8>
     540:	0300736d 	movweq	r7, #877	; 0x36d
     544:	002c2f08 	eoreq	r2, ip, r8, lsl #30
     548:	29000000 	stmdbcs	r0, {}	; <UNPREDICTABLE>
     54c:	00000081 	andeq	r0, r0, r1, lsl #1
     550:	2c180503 	cfldr32cs	mvfx0, [r8], {3}
     554:	03000000 	movweq	r0, #0
     558:	00000568 	andeq	r0, r0, r8, ror #10
     55c:	0073752a 	rsbseq	r7, r3, sl, lsr #10
     560:	2c2f0503 	cfstr32cs	mvfx0, [pc], #-12	; 55c <__code_start__-0x7aa4>
     564:	00000000 	andeq	r0, r0, r0
     568:	0001f329 	andeq	pc, r1, r9, lsr #6
     56c:	010d0200 	mrseq	r0, SP_fiq
     570:	0000002c 	andeq	r0, r0, ip, lsr #32
     574:	0005fa03 	andeq	pc, r5, r3, lsl #20
     578:	006c2a00 	rsbeq	r2, ip, r0, lsl #20
     57c:	dd190d02 	ldcle	13, cr0, [r9, #-8]
     580:	2a000004 	bcs	598 <__code_start__-0x7a68>
     584:	0d02006e 	stceq	0, cr0, [r2, #-440]	; 0xfffffe48
     588:	00002c25 	andeq	r2, r0, r5, lsr #24
     58c:	00b92c00 	adcseq	r2, r9, r0, lsl #24
     590:	0d020000 	stceq	0, cr0, [r2, #-0]
     594:	00002c31 	andeq	r2, r0, r1, lsr ip
     598:	6f740f00 	svcvs	0x00740f00
     59c:	0e020074 	mcreq	0, 0, r0, cr2, cr4, {3}
     5a0:	00002c0e 	andeq	r2, r0, lr, lsl #24
     5a4:	006f2d00 	rsbeq	r2, pc, r0, lsl #26
     5a8:	0e020000 	cdpeq	0, 0, cr0, cr2, cr0, {0}
     5ac:	00002c17 	andeq	r2, r0, r7, lsl ip
     5b0:	02272d00 	eoreq	r2, r7, #0, 26
     5b4:	10020000 	andne	r0, r2, r0
     5b8:	00002c0e 	andeq	r2, r0, lr, lsl #24
     5bc:	690f2e00 	stmdbvs	pc, {r9, sl, fp, sp}	; <UNPREDICTABLE>
     5c0:	0d170200 	lfmeq	f0, 4, [r7, #-0]
     5c4:	00000025 	andeq	r0, r0, r5, lsr #32
     5c8:	00650f2e 	rsbeq	r0, r5, lr, lsr #30
     5cc:	dd141802 	ldcle	8, cr1, [r4, #-8]
     5d0:	2d000004 	stccs	0, cr0, [r0, #-16]
     5d4:	000000cd 	andeq	r0, r0, sp, asr #1
     5d8:	2c121a02 			; <UNDEFINED> instruction: 0x2c121a02
     5dc:	0f000000 	svceq	0x00000000
     5e0:	00707865 	rsbseq	r7, r0, r5, ror #16
     5e4:	2c121e02 	ldccs	14, cr1, [r2], {2}
     5e8:	0f000000 	svceq	0x00000000
     5ec:	00727265 	rsbseq	r7, r2, r5, ror #4
     5f0:	2c121f02 	ldccs	15, cr1, [r2], {2}
     5f4:	00000000 	andeq	r0, r0, r0
     5f8:	292f0000 	stmdbcs	pc!, {}	; <UNPREDICTABLE>
     5fc:	29000004 	stmdbcs	r0, {r2}
     600:	04000004 	streq	r0, [r0], #-4
     604:	d22f0628 	eorle	r0, pc, #40, 12	; 0x2800000
     608:	d2000000 	andle	r0, r0, #0, 0
     60c:	04000000 	streq	r0, [r0], #-0
     610:	182f06a0 	stmdane	pc!, {r5, r7, r9, sl}	; <UNPREDICTABLE>
     614:	18000002 	stmdane	r0, {r1}
     618:	06000002 	streq	r0, [r0], -r2
     61c:	622f061c 	eorvs	r0, pc, #28, 12	; 0x1c00000
     620:	62000000 	andvs	r0, r0, #0, 0
     624:	04000000 	streq	r0, [r0], #-0
     628:	f200066e 	vmax.s8	q0, q0, q15
     62c:	04000003 	streq	r0, [r0], #-3
     630:	0002a300 	andeq	sl, r2, r0, lsl #6
     634:	3e010400 	cfcpyscc	mvf0, mvf1
     638:	0c000003 	stceq	0, cr0, [r0], {3}
     63c:	000002cd 	andeq	r0, r0, sp, asr #5
     640:	00000317 	andeq	r0, r0, r7, lsl r3
     644:	00008224 	andeq	r8, r0, r4, lsr #4
     648:	0000010c 	andeq	r0, r0, ip, lsl #2
     64c:	0000037e 	andeq	r0, r0, lr, ror r3
     650:	69050402 	stmdbvs	r5, {r1, sl}
     654:	0300746e 	movweq	r7, #1134	; 0x46e
     658:	00ff0704 	rscseq	r0, pc, r4, lsl #14
     65c:	2c040000 	stccs	0, cr0, [r4], {-0}
     660:	03000000 	movweq	r0, #0
     664:	00e10601 	rsceq	r0, r1, r1, lsl #12
     668:	02030000 	andeq	r0, r3, #0, 0
     66c:	00003f05 	andeq	r3, r0, r5, lsl #30
     670:	05040300 	streq	r0, [r4, #-768]	; 0xfffffd00
     674:	000000a2 	andeq	r0, r0, r2, lsr #1
     678:	9d050803 	stcls	8, cr0, [r5, #-12]
     67c:	03000000 	movweq	r0, #0
     680:	00df0801 	sbcseq	r0, pc, r1, lsl #16
     684:	02030000 	andeq	r0, r3, #0, 0
     688:	00011d07 	andeq	r1, r1, r7, lsl #26
     68c:	010c0500 	tsteq	ip, r0, lsl #10
     690:	34030000 	strcc	r0, [r3], #-0
     694:	00006e19 	andeq	r6, r0, r9, lsl lr
     698:	07040300 	streq	r0, [r4, -r0, lsl #6]
     69c:	000000fa 	strdeq	r0, [r0], -sl
     6a0:	f5070803 			; <UNDEFINED> instruction: 0xf5070803
     6a4:	06000000 	streq	r0, [r0], -r0
     6a8:	00000025 	andeq	r0, r0, r5, lsr #32
     6ac:	0000008b 	andeq	r0, r0, fp, lsl #1
     6b0:	00002507 	andeq	r2, r0, r7, lsl #10
     6b4:	4e080000 	cdpmi	0, 0, cr0, cr8, cr0, {0}
     6b8:	02000000 	andeq	r0, r0, #0, 0
     6bc:	00970e1c 	addseq	r0, r7, ip, lsl lr
     6c0:	04090000 	streq	r0, [r9], #-0
     6c4:	0000007c 	andeq	r0, r0, ip, ror r0
     6c8:	00002506 	andeq	r2, r0, r6, lsl #10
     6cc:	0000ac00 	andeq	sl, r0, r0, lsl #24
     6d0:	00ac0700 	adceq	r0, ip, r0, lsl #14
     6d4:	09000000 	stmdbeq	r0, {}	; <UNPREDICTABLE>
     6d8:	0000b904 	andeq	fp, r0, r4, lsl #18
     6dc:	08010300 	stmdaeq	r1, {r8, r9}
     6e0:	000000e8 	andeq	r0, r0, r8, ror #1
     6e4:	0000b204 	andeq	fp, r0, r4, lsl #4
     6e8:	04670800 	strbteq	r0, [r7], #-2048	; 0xfffff800
     6ec:	21020000 	mrscs	r0, (UNDEF: 2)
     6f0:	0000ca0e 	andeq	ip, r0, lr, lsl #20
     6f4:	9d040900 	vstrls.16	s0, [r4, #-0]	; <UNPREDICTABLE>
     6f8:	0a000000 	beq	700 <__code_start__-0x7900>
     6fc:	00540107 	subseq	r0, r4, r7, lsl #2
     700:	0c040000 	stceq	0, cr0, [r4], {-0}
     704:	00010f0e 	andeq	r0, r1, lr, lsl #30
     708:	03f30b00 	mvnseq	r0, #0, 22
     70c:	0b000000 	bleq	714 <__code_start__-0x78ec>
     710:	00000251 	andeq	r0, r0, r1, asr r2
     714:	02820b01 	addeq	r0, r2, #1024	; 0x400
     718:	0b040000 	bleq	100720 <__bss_end__+0xf7170>
     71c:	00000291 	muleq	r0, r1, r2
     720:	02a00b05 	adceq	r0, r0, #5120	; 0x1400
     724:	0b060000 	bleq	18072c <__bss_end__+0x17717c>
     728:	000002af 	andeq	r0, r0, pc, lsr #5
     72c:	03080b07 	movweq	r0, #35591	; 0x8b07
     730:	0b030000 	bleq	c0738 <__bss_end__+0xb7188>
     734:	000002be 			; <UNDEFINED> instruction: 0x000002be
     738:	fc050002 	stc2	0, cr0, [r5], {2}
     73c:	04000002 	streq	r0, [r0], #-2
     740:	00d00315 	sbcseq	r0, r0, r5, lsl r3
     744:	3c0c0000 	stccc	0, cr0, [ip], {-0}
     748:	01000002 	tsteq	r0, r2
     74c:	0033171d 	eorseq	r1, r3, sp, lsl r7
     750:	001c0000 	andseq	r0, ip, r0
     754:	320c2020 	andcc	r2, ip, #32, 0
     758:	01000002 	tsteq	r0, r2
     75c:	0033171e 	eorseq	r1, r3, lr, lsl r7
     760:	00280000 	eoreq	r0, r8, r0
     764:	000c2020 	andeq	r2, ip, r0, lsr #32
     768:	01000002 	tsteq	r0, r2
     76c:	0033171f 	eorseq	r1, r3, pc, lsl r7
     770:	00340000 	eorseq	r0, r4, r0
     774:	720d2020 	andvc	r2, sp, #32, 0
     778:	01000002 	tsteq	r0, r2
     77c:	00250555 	eoreq	r0, r5, r5, asr r5
     780:	830c0000 	movwhi	r0, #49152	; 0xc000
     784:	00240000 	eoreq	r0, r4, r0
     788:	9c010000 	stcls	0, cr0, [r1], {-0}
     78c:	000001bb 			; <UNDEFINED> instruction: 0x000001bb
     790:	6e69700e 	cdpvs	0, 6, cr7, cr9, cr14, {0}
     794:	18550100 	ldmdane	r5, {r8}^
     798:	0000002c 	andeq	r0, r0, ip, lsr #32
     79c:	00000596 	muleq	r0, r6, r5
     7a0:	00000592 	muleq	r0, r2, r5
     7a4:	0003390f 	andeq	r3, r3, pc, lsl #18
     7a8:	0e560100 	rdfeqs	f0, f6, f0
     7ac:	0000002c 	andeq	r0, r0, ip, lsr #32
     7b0:	000005bd 			; <UNDEFINED> instruction: 0x000005bd
     7b4:	000005b7 			; <UNDEFINED> instruction: 0x000005b7
     7b8:	66666f10 	uqadd16vs	r6, r6, r0
     7bc:	0e570100 	rdfeqs	f0, f7, f0
     7c0:	0000002c 	andeq	r0, r0, ip, lsr #32
     7c4:	000005fd 	strdeq	r0, [r0], -sp
     7c8:	000005fb 	strdeq	r0, [r0], -fp
     7cc:	00832011 	addeq	r2, r3, r1, lsl r0
     7d0:	0003dd00 	andeq	sp, r3, r0, lsl #26
     7d4:	50011200 	andpl	r1, r1, r0, lsl #4
     7d8:	5001f30b 	andpl	pc, r1, fp, lsl #6
     7dc:	b4232535 	strtlt	r2, [r3], #-1333	; 0xfffffacb
     7e0:	02818080 	addeq	r8, r1, #128, 0	; 0x80
     7e4:	46130000 	ldrmi	r0, [r3], -r0
     7e8:	01000002 	tsteq	r0, r2
     7ec:	82f0064e 	rscshi	r0, r0, #81788928	; 0x4e00000
     7f0:	001c0000 	andseq	r0, ip, r0
     7f4:	9c010000 	stcls	0, cr0, [r1], {-0}
     7f8:	00000216 	andeq	r0, r0, r6, lsl r2
     7fc:	6e69700e 	cdpvs	0, 6, cr7, cr9, cr14, {0}
     800:	1a4e0100 	bne	1380c08 <__bss_end__+0x1377658>
     804:	0000002c 	andeq	r0, r0, ip, lsr #32
     808:	00000618 	andeq	r0, r0, r8, lsl r6
     80c:	00000610 	andeq	r0, r0, r0, lsl r6
     810:	0100760e 	tsteq	r0, lr, lsl #12
     814:	002c284e 	eoreq	r2, ip, lr, asr #16
     818:	065a0000 	ldrbeq	r0, [sl], -r0
     81c:	06520000 	ldrbeq	r0, [r2], -r0
     820:	00140000 	andseq	r0, r4, r0
     824:	9e000083 	cdpls	0, 0, cr0, cr0, cr3, {4}
     828:	0c000002 	stceq	0, cr0, [r0], {2}
     82c:	12000002 	andne	r0, r0, #2, 0
     830:	f3035001 	vhadd.u8	d5, d3, d1
     834:	15005001 	strne	r5, [r0, #-1]
     838:	00008308 	andeq	r8, r0, r8, lsl #6
     83c:	00000257 	andeq	r0, r0, r7, asr r2
     840:	02181300 	andseq	r1, r8, #0, 6
     844:	49010000 	stmdbmi	r1, {}	; <UNPREDICTABLE>
     848:	0082e006 	addeq	lr, r2, r6
     84c:	00001000 	andeq	r1, r0, r0
     850:	579c0100 	ldrpl	r0, [ip, r0, lsl #2]
     854:	0e000002 	cdpeq	0, 0, cr0, cr0, cr2, {0}
     858:	006e6970 	rsbeq	r6, lr, r0, ror r9
     85c:	2c1e4901 			; <UNDEFINED> instruction: 0x2c1e4901
     860:	98000000 	stmdals	r0, {}	; <UNPREDICTABLE>
     864:	94000006 	strls	r0, [r0], #-6
     868:	11000006 	tstne	r0, r6
     86c:	000082ec 	andeq	r8, r0, ip, ror #5
     870:	00000326 	andeq	r0, r0, r6, lsr #6
     874:	03500112 	cmpeq	r0, #-2147483644	; 0x80000004
     878:	125001f3 	subsne	r0, r0, #-1073741764	; 0xc000003c
     87c:	30015101 	andcc	r5, r1, r1, lsl #2
     880:	da130000 	ble	4c0888 <__bss_end__+0x4b72d8>
     884:	01000002 	tsteq	r0, r2
     888:	82bc0642 	adcshi	r0, ip, #69206016	; 0x4200000
     88c:	00240000 	eoreq	r0, r4, r0
     890:	9c010000 	stcls	0, cr0, [r1], {-0}
     894:	0000029e 	muleq	r0, lr, r2
     898:	6e69700e 	cdpvs	0, 6, cr7, cr9, cr14, {0}
     89c:	1c420100 	stfnee	f0, [r2], {-0}
     8a0:	0000002c 	andeq	r0, r0, ip, lsr #32
     8a4:	000006bd 			; <UNDEFINED> instruction: 0x000006bd
     8a8:	000006b9 			; <UNDEFINED> instruction: 0x000006b9
     8ac:	0082d811 	addeq	sp, r2, r1, lsl r8
     8b0:	0003e900 	andeq	lr, r3, r0, lsl #18
     8b4:	50011200 	andpl	r1, r1, r0, lsl #4
     8b8:	00280c05 	eoreq	r0, r8, r5, lsl #24
     8bc:	01122020 	tsteq	r2, r0, lsr #32
     8c0:	f3310551 	vqrshl.u64	q0, <illegal reg q0.5>, <illegal reg q0.5>
     8c4:	00245001 	eoreq	r5, r4, r1
     8c8:	04151300 	ldreq	r1, [r5], #-768	; 0xfffffd00
     8cc:	3b010000 	blcc	408d4 <__bss_end__+0x37324>
     8d0:	00829806 	addeq	r9, r2, r6, lsl #16
     8d4:	00002400 	andeq	r2, r0, r0, lsl #8
     8d8:	e59c0100 	ldr	r0, [ip, #256]	; 0x100
     8dc:	0e000002 	cdpeq	0, 0, cr0, cr0, cr2, {0}
     8e0:	006e6970 	rsbeq	r6, lr, r0, ror r9
     8e4:	2c1b3b01 			; <UNDEFINED> instruction: 0x2c1b3b01
     8e8:	e2000000 	and	r0, r0, #0, 0
     8ec:	de000006 	cdple	0, 0, cr0, cr0, cr6, {0}
     8f0:	11000006 	tstne	r0, r6
     8f4:	000082b4 			; <UNDEFINED> instruction: 0x000082b4
     8f8:	000003e9 	andeq	r0, r0, r9, ror #7
     8fc:	05500112 	ldrbeq	r0, [r0, #-274]	; 0xfffffeee
     900:	20001c0c 	andcs	r1, r0, ip, lsl #24
     904:	51011220 	tstpl	r1, r0, lsr #4
     908:	01f33105 	mvnseq	r3, r5, lsl #2
     90c:	00002450 	andeq	r2, r0, r0, asr r4
     910:	0002e713 	andeq	lr, r2, r3, lsl r7
     914:	06360100 	ldrteq	r0, [r6], -r0, lsl #2
     918:	00008288 	andeq	r8, r0, r8, lsl #5
     91c:	00000010 	andeq	r0, r0, r0, lsl r0
     920:	03269c01 			; <UNDEFINED> instruction: 0x03269c01
     924:	700e0000 	andvc	r0, lr, r0
     928:	01006e69 	tsteq	r0, r9, ror #28
     92c:	002c1f36 	eoreq	r1, ip, r6, lsr pc
     930:	07070000 	streq	r0, [r7, -r0]
     934:	07030000 	streq	r0, [r3, -r0]
     938:	94110000 	ldrls	r0, [r1], #-0
     93c:	26000082 	strcs	r0, [r0], -r2, lsl #1
     940:	12000003 	andne	r0, r0, #3, 0
     944:	f3035001 	vhadd.u8	d5, d3, d1
     948:	01125001 	tsteq	r2, r1
     94c:	00310151 	eorseq	r0, r1, r1, asr r1
     950:	04031300 	streq	r1, [r3], #-768	; 0xfffffd00
     954:	28010000 	stmdacs	r1, {}	; <UNPREDICTABLE>
     958:	00822406 	addeq	r2, r2, r6, lsl #8
     95c:	00006400 	andeq	r6, r0, r0, lsl #8
     960:	c19c0100 	orrsgt	r0, ip, r0, lsl #2
     964:	0e000003 	cdpeq	0, 0, cr0, cr0, cr3, {0}
     968:	006e6970 	rsbeq	r6, lr, r0, ror r9
     96c:	2c212801 	stccs	8, cr2, [r1], #-4
     970:	2c000000 	stccs	0, cr0, [r0], {-0}
     974:	28000007 	stmdacs	r0, {r0, r1, r2}
     978:	16000007 	strne	r0, [r0], -r7
     97c:	000002f7 	strdeq	r0, [r0], -r7
     980:	0f322801 	svceq	0x00322801
     984:	51000001 	tstpl	r0, r1
     988:	4d000007 	stcmi	0, cr0, [r0, #-28]	; 0xffffffe4
     98c:	10000007 	andne	r0, r0, r7
     990:	0066666f 	rsbeq	r6, r6, pc, ror #12
     994:	2c0e2d01 	stccs	13, cr2, [lr], {1}
     998:	74000000 	strvc	r0, [r0], #-0
     99c:	72000007 	andvc	r0, r0, #7, 0
     9a0:	10000007 	andne	r0, r0, r7
     9a4:	2e010067 	cdpcs	0, 0, cr0, cr1, cr7, {3}
     9a8:	00002c0e 	andeq	r2, r0, lr, lsl #24
     9ac:	00078900 	andeq	r8, r7, r0, lsl #18
     9b0:	00078700 	andeq	r8, r7, r0, lsl #14
     9b4:	00761000 	rsbseq	r1, r6, r0
     9b8:	2c0e3001 	stccs	0, cr3, [lr], {1}
     9bc:	a4000000 	strge	r0, [r0], #-0
     9c0:	9c000007 	stcls	0, cr0, [r0], {7}
     9c4:	14000007 	strne	r0, [r0], #-7
     9c8:	0000826c 	andeq	r8, r0, ip, ror #4
     9cc:	000003dd 	ldrdeq	r0, [r0], -sp
     9d0:	000003b0 			; <UNDEFINED> instruction: 0x000003b0
     9d4:	02500112 	subseq	r0, r0, #-2147483644	; 0x80000004
     9d8:	11000076 	tstne	r0, r6, ror r0
     9dc:	00008280 	andeq	r8, r0, r0, lsl #5
     9e0:	000003e9 	andeq	r0, r0, r9, ror #7
     9e4:	02500112 	subseq	r0, r0, #-2147483644	; 0x80000004
     9e8:	00000076 	andeq	r0, r0, r6, ror r0
     9ec:	00026217 	andeq	r6, r2, r7, lsl r2
     9f0:	18b10200 	ldmne	r1!, {r9}
     9f4:	00000062 	andeq	r0, r0, r2, rrx
     9f8:	0003dd03 	andeq	sp, r3, r3, lsl #26
     9fc:	00781800 	rsbseq	r1, r8, r0, lsl #16
     a00:	622bb102 	eorvs	fp, fp, #-2147483648	; 0x80000000
     a04:	00000000 	andeq	r0, r0, r0
     a08:	00027c19 	andeq	r7, r2, r9, lsl ip
     a0c:	00027c00 	andeq	r7, r2, r0, lsl #24
     a10:	0ac20200 	beq	ff081218 <__bss_end__+0xff077c68>
     a14:	00026c19 	andeq	r6, r2, r9, lsl ip
     a18:	00026c00 	andeq	r6, r2, r0, lsl #24
     a1c:	06ad0200 	strteq	r0, [sp], r0, lsl #4
     a20:	00019d00 	andeq	r9, r1, r0, lsl #26
     a24:	2e000400 	cfcpyscs	mvf0, mvf0
     a28:	04000004 	streq	r0, [r0], #-4
     a2c:	00033e01 	andeq	r3, r3, r1, lsl #28
     a30:	04440c00 	strbeq	r0, [r4], #-3072	; 0xfffff400
     a34:	03170000 	tsteq	r7, #0, 0
     a38:	83300000 	teqhi	r0, #0, 0
     a3c:	00580000 	subseq	r0, r8, r0
     a40:	05390000 	ldreq	r0, [r9, #-0]!
     a44:	30020000 	andcc	r0, r2, r0
     a48:	02000004 	andeq	r0, r0, #4, 0
     a4c:	00311b28 	eorseq	r1, r1, r8, lsr #22
     a50:	54030000 	strpl	r0, [r3], #-0
     a54:	04000004 	streq	r0, [r0], #-4
     a58:	00480004 	subeq	r0, r8, r4
     a5c:	3f040000 	svccc	0x00040000
     a60:	48000004 	stmdami	r0, {r2}
     a64:	00000000 	andeq	r0, r0, r0
     a68:	02040500 	andeq	r0, r4, #0, 10
     a6c:	00000456 	andeq	r0, r0, r6, asr r4
     a70:	25186302 	ldrcs	r6, [r8, #-770]	; 0xfffffcfe
     a74:	06000000 	streq	r0, [r0], -r0
     a78:	6e690504 	cdpvs	5, 6, cr0, cr9, cr4, {0}
     a7c:	04070074 	streq	r0, [r7], #-116	; 0xffffff8c
     a80:	0000ff07 	andeq	pc, r0, r7, lsl #30
     a84:	06010700 	streq	r0, [r1], -r0, lsl #14
     a88:	000000e1 	andeq	r0, r0, r1, ror #1
     a8c:	3f050207 	svccc	0x00050207
     a90:	07000000 	streq	r0, [r0, -r0]
     a94:	00a20504 	adceq	r0, r2, r4, lsl #10
     a98:	08070000 	stmdaeq	r7, {}	; <UNPREDICTABLE>
     a9c:	00009d05 	andeq	r9, r0, r5, lsl #26
     aa0:	08010700 	stmdaeq	r1, {r8, r9, sl}
     aa4:	000000df 	ldrdeq	r0, [r0], -pc	; <UNPREDICTABLE>
     aa8:	1d070207 	sfmne	f0, 4, [r7, #-28]	; 0xffffffe4
     aac:	07000001 	streq	r0, [r0, -r1]
     ab0:	00fa0704 	rscseq	r0, sl, r4, lsl #14
     ab4:	08070000 	stmdaeq	r7, {}	; <UNPREDICTABLE>
     ab8:	0000f507 	andeq	pc, r0, r7, lsl #10
     abc:	00560800 	subseq	r0, r6, r0, lsl #16
     ac0:	00ab0000 	adceq	r0, fp, r0
     ac4:	56090000 	strpl	r0, [r9], -r0
     ac8:	00000000 	andeq	r0, r0, r0
     acc:	00004e0a 	andeq	r4, r0, sl, lsl #28
     ad0:	0e1c0300 	cdpeq	3, 1, cr0, cr12, cr0, {0}
     ad4:	000000b7 	strheq	r0, [r0], -r7
     ad8:	009c040b 	addseq	r0, ip, fp, lsl #8
     adc:	56080000 	strpl	r0, [r8], -r0
     ae0:	cc000000 	stcgt	0, cr0, [r0], {-0}
     ae4:	09000000 	stmdbeq	r0, {}	; <UNPREDICTABLE>
     ae8:	000000cc 	andeq	r0, r0, ip, asr #1
     aec:	d9040b00 	stmdble	r4, {r8, r9, fp}
     af0:	07000000 	streq	r0, [r0, -r0]
     af4:	00e80801 	rsceq	r0, r8, r1, lsl #16
     af8:	d20c0000 	andle	r0, ip, #0, 0
     afc:	0a000000 	beq	b04 <__code_start__-0x74fc>
     b00:	00000467 	andeq	r0, r0, r7, ror #8
     b04:	ea0e2103 	b	388f18 <__bss_end__+0x37f968>
     b08:	0b000000 	bleq	b10 <__code_start__-0x74f0>
     b0c:	0000bd04 	andeq	fp, r0, r4, lsl #26
     b10:	04290d00 	strteq	r0, [r9], #-3328	; 0xfffff300
     b14:	06010000 	streq	r0, [r1], -r0
     b18:	00005605 	andeq	r5, r0, r5, lsl #12
     b1c:	00833000 	addeq	r3, r3, r0
     b20:	00005800 	andeq	r5, r0, r0, lsl #16
     b24:	839c0100 	orrshi	r0, ip, #0
     b28:	0e000001 	cdpeq	0, 0, cr0, cr0, cr1, {0}
     b2c:	00746d66 	rsbseq	r6, r4, r6, ror #26
     b30:	cc180601 	ldcgt	6, cr0, [r8], {1}
     b34:	02000000 	andeq	r0, r0, #0, 0
     b38:	100f7091 	mulne	pc, r1, r0	; <UNPREDICTABLE>
     b3c:	00667562 	rsbeq	r7, r6, r2, ror #10
     b40:	83110801 	tsthi	r1, #65536	; 0x10000
     b44:	05000001 	streq	r0, [r0, #-1]
     b48:	0091ac03 	addseq	sl, r1, r3, lsl #24
     b4c:	04211100 	strteq	r1, [r1], #-256	; 0xffffff00
     b50:	09010000 	stmdbeq	r1, {}	; <UNPREDICTABLE>
     b54:	00004a0d 	andeq	r4, r0, sp, lsl #20
     b58:	5c910200 	lfmpl	f0, 4, [r1], {0}
     b5c:	007a7312 	rsbseq	r7, sl, r2, lsl r3
     b60:	560d0c01 	strpl	r0, [sp], -r1, lsl #24
     b64:	e6000000 	str	r0, [r0], -r0
     b68:	e0000007 	and	r0, r0, r7
     b6c:	13000007 	movwne	r0, #7
     b70:	00008358 	andeq	r8, r0, r8, asr r3
     b74:	00000194 	muleq	r0, r4, r1
     b78:	00000176 	andeq	r0, r0, r6, ror r1
     b7c:	02500114 	subseq	r0, r0, #5
     b80:	01140075 	tsteq	r4, r5, ror r0
     b84:	000a0351 	andeq	r0, sl, r1, asr r3
     b88:	52011404 	andpl	r1, r1, #4, 8	; 0x4000000
     b8c:	06489103 	strbeq	r9, [r8], -r3, lsl #2
     b90:	02530114 	subseq	r0, r3, #5
     b94:	15004c91 	strne	r4, [r0, #-3217]	; 0xfffff36f
     b98:	0000836c 	andeq	r8, r0, ip, ror #6
     b9c:	02500114 	subseq	r0, r0, #5
     ba0:	00000075 	andeq	r0, r0, r5, ror r0
     ba4:	0000d216 	andeq	sp, r0, r6, lsl r2
     ba8:	00019400 	andeq	r9, r1, r0, lsl #8
     bac:	005d1700 	subseq	r1, sp, r0, lsl #14
     bb0:	03ff0000 	mvnseq	r0, #0, 0
     bb4:	04261800 	strteq	r1, [r6], #-2048	; 0xfffff800
     bb8:	04260000 	strteq	r0, [r6], #-0
     bbc:	02050000 	andeq	r0, r5, #0, 0
     bc0:	00f30005 	rscseq	r0, r3, r5
     bc4:	00040000 	andeq	r0, r4, r0
     bc8:	00000570 	andeq	r0, r0, r0, ror r5
     bcc:	033e0104 	teqeq	lr, #1
     bd0:	6c0c0000 	stcvs	0, cr0, [ip], {-0}
     bd4:	17000004 	strne	r0, [r0, -r4]
     bd8:	88000003 	stmdahi	r0, {r0, r1}
     bdc:	34000083 	strcc	r0, [r0], #-131	; 0xffffff7d
     be0:	4d000000 	stcmi	0, cr0, [r0, #-0]
     be4:	02000006 	andeq	r0, r0, #6, 0
     be8:	6e690504 	cdpvs	5, 6, cr0, cr9, cr4, {0}
     bec:	04030074 	streq	r0, [r3], #-116	; 0xffffff8c
     bf0:	0000ff07 	andeq	pc, r0, r7, lsl #30
     bf4:	06010300 	streq	r0, [r1], -r0, lsl #6
     bf8:	000000e1 	andeq	r0, r0, r1, ror #1
     bfc:	3f050203 	svccc	0x00050203
     c00:	03000000 	movweq	r0, #0
     c04:	00a20504 	adceq	r0, r2, r4, lsl #10
     c08:	08030000 	stmdaeq	r3, {}	; <UNPREDICTABLE>
     c0c:	00009d05 	andeq	r9, r0, r5, lsl #26
     c10:	08010300 	stmdaeq	r1, {r8, r9}
     c14:	000000df 	ldrdeq	r0, [r0], -pc	; <UNPREDICTABLE>
     c18:	1d070203 	sfmne	f0, 4, [r7, #-12]
     c1c:	03000001 	movweq	r0, #1
     c20:	00fa0704 	rscseq	r0, sl, r4, lsl #14
     c24:	08030000 	stmdaeq	r3, {}	; <UNPREDICTABLE>
     c28:	0000f507 	andeq	pc, r0, r7, lsl #10
     c2c:	00250400 	eoreq	r0, r5, r0, lsl #8
     c30:	007a0000 	rsbseq	r0, sl, r0
     c34:	25050000 	strcs	r0, [r5, #-0]
     c38:	00000000 	andeq	r0, r0, r0
     c3c:	00004e06 	andeq	r4, r0, r6, lsl #28
     c40:	0e1c0200 	cdpeq	2, 1, cr0, cr12, cr0, {0}
     c44:	00000086 	andeq	r0, r0, r6, lsl #1
     c48:	006b0407 	rsbeq	r0, fp, r7, lsl #8
     c4c:	25040000 	strcs	r0, [r4, #-0]
     c50:	9b000000 	blls	c58 <__code_start__-0x73a8>
     c54:	05000000 	streq	r0, [r0, #-0]
     c58:	0000009b 	muleq	r0, fp, r0
     c5c:	a8040700 	stmdage	r4, {r8, r9, sl}
     c60:	03000000 	movweq	r0, #0
     c64:	00e80801 	rsceq	r0, r8, r1, lsl #16
     c68:	a1080000 	mrsge	r0, (UNDEF: 8)
     c6c:	06000000 	streq	r0, [r0], -r0
     c70:	00000467 	andeq	r0, r0, r7, ror #8
     c74:	b90e2102 	stmdblt	lr, {r1, r8, sp}
     c78:	07000000 	streq	r0, [r0, -r0]
     c7c:	00008c04 	andeq	r8, r0, r4, lsl #24
     c80:	00ad0900 	adceq	r0, sp, r0, lsl #18
     c84:	0c010000 	stceq	0, cr0, [r1], {-0}
     c88:	a4030507 	strge	r0, [r3], #-1287	; 0xfffffaf9
     c8c:	0a000091 	beq	ed8 <__code_start__-0x7128>
     c90:	0000045e 	andeq	r0, r0, lr, asr r4
     c94:	25050401 	strcs	r0, [r5, #-1025]	; 0xfffffbff
     c98:	88000000 	stmdahi	r0, {}	; <UNPREDICTABLE>
     c9c:	34000083 	strcc	r0, [r0], #-131	; 0xffffff7d
     ca0:	01000000 	mrseq	r0, (UNDEF: 0)
     ca4:	00700b9c 			; <UNDEFINED> instruction: 0x00700b9c
     ca8:	9b1f0401 	blls	7c1cb4 <__bss_end__+0x7b8704>
     cac:	13000000 	movwne	r0, #0
     cb0:	0f000008 	svceq	0x00000008
     cb4:	00000008 	andeq	r0, r0, r8
     cb8:	000ad700 	andeq	sp, sl, r0, lsl #14
     cbc:	0e000400 	cfcpyseq	mvf0, mvf0
     cc0:	04000006 	streq	r0, [r0], #-6
     cc4:	00033e01 	andeq	r3, r3, r1, lsl #28
     cc8:	048b0c00 	streq	r0, [fp], #3072	; 0xc00
     ccc:	03170000 	tsteq	r7, #0, 0
     cd0:	83bc0000 			; <UNDEFINED> instruction: 0x83bc0000
     cd4:	07400000 	strbeq	r0, [r0, -r0]
     cd8:	06f60000 	ldrbteq	r0, [r6], r0
     cdc:	04020000 	streq	r0, [r2], #-0
     ce0:	746e6905 	strbtvc	r6, [lr], #-2309	; 0xfffff6fb
     ce4:	07040300 	streq	r0, [r4, -r0, lsl #6]
     ce8:	000000ff 	strdeq	r0, [r0], -pc	; <UNPREDICTABLE>
     cec:	e1060103 	tst	r6, r3, lsl #2
     cf0:	03000000 	movweq	r0, #0
     cf4:	003f0502 	eorseq	r0, pc, r2, lsl #10
     cf8:	04030000 	streq	r0, [r3], #-0
     cfc:	0000a205 	andeq	sl, r0, r5, lsl #4
     d00:	05080300 	streq	r0, [r8, #-768]	; 0xfffffd00
     d04:	0000009d 	muleq	r0, sp, r0
     d08:	df080103 	svcle	0x00080103
     d0c:	03000000 	movweq	r0, #0
     d10:	011d0702 	tsteq	sp, r2, lsl #14
     d14:	0c040000 	stceq	0, cr0, [r4], {-0}
     d18:	02000001 	andeq	r0, r0, #1, 0
     d1c:	00691934 	rsbeq	r1, r9, r4, lsr r9
     d20:	04030000 	streq	r0, [r3], #-0
     d24:	0000fa07 	andeq	pc, r0, r7, lsl #20
     d28:	04820400 	streq	r0, [r2], #1024	; 0x400
     d2c:	37020000 	strcc	r0, [r2, -r0]
     d30:	00007c19 	andeq	r7, r0, r9, lsl ip
     d34:	07080300 	streq	r0, [r8, -r0, lsl #6]
     d38:	000000f5 	strdeq	r0, [r0], -r5
     d3c:	00002505 	andeq	r2, r0, r5, lsl #10
     d40:	00009200 	andeq	r9, r0, r0, lsl #4
     d44:	00250600 	eoreq	r0, r5, r0, lsl #12
     d48:	07000000 	streq	r0, [r0, -r0]
     d4c:	0000004e 	andeq	r0, r0, lr, asr #32
     d50:	9e0e1c03 	cdpls	12, 0, cr1, cr14, cr3, {0}
     d54:	08000000 	stmdaeq	r0, {}	; <UNPREDICTABLE>
     d58:	00008304 	andeq	r8, r0, r4, lsl #6
     d5c:	00250500 	eoreq	r0, r5, r0, lsl #10
     d60:	00b30000 	adcseq	r0, r3, r0
     d64:	b3060000 	movwlt	r0, #24576	; 0x6000
     d68:	00000000 	andeq	r0, r0, r0
     d6c:	00c00408 	sbceq	r0, r0, r8, lsl #8
     d70:	01030000 	mrseq	r0, (UNDEF: 3)
     d74:	0000e808 	andeq	lr, r0, r8, lsl #16
     d78:	00b90900 	adcseq	r0, r9, r0, lsl #18
     d7c:	67070000 	strvs	r0, [r7, -r0]
     d80:	03000004 	movweq	r0, #4
     d84:	00d10e21 	sbcseq	r0, r1, r1, lsr #28
     d88:	04080000 	streq	r0, [r8], #-0
     d8c:	000000a4 	andeq	r0, r0, r4, lsr #1
     d90:	00049e07 	andeq	r9, r4, r7, lsl #28
     d94:	0d0b0400 	cfstrseq	mvf0, [fp, #-0]
     d98:	000000b9 	strheq	r0, [r0], -r9
     d9c:	00051e07 	andeq	r1, r5, r7, lsl #28
     da0:	0d0c0400 	cfstrseq	mvf0, [ip, #-0]
     da4:	000000b9 	strheq	r0, [r0], -r9
     da8:	0004ad07 	andeq	sl, r4, r7, lsl #26
     dac:	0d0d0400 	cfstrseq	mvf0, [sp, #-0]
     db0:	000000b9 	strheq	r0, [r0], -r9
     db4:	0004d607 	andeq	sp, r4, r7, lsl #12
     db8:	0d0e0400 	cfstrseq	mvf0, [lr, #-0]
     dbc:	000000b9 	strheq	r0, [r0], -r9
     dc0:	00054707 	andeq	r4, r5, r7, lsl #14
     dc4:	0d0f0400 	cfstrseq	mvf0, [pc, #-0]	; dcc <__code_start__-0x7234>
     dc8:	000000b9 	strheq	r0, [r0], -r9
     dcc:	0004c107 	andeq	ip, r4, r7, lsl #2
     dd0:	0d100400 	cfldrseq	mvf0, [r0, #-0]
     dd4:	000000b9 	strheq	r0, [r0], -r9
     dd8:	00055607 	andeq	r5, r5, r7, lsl #12
     ddc:	0d110400 	cfldrseq	mvf0, [r1, #-0]
     de0:	000000b9 	strheq	r0, [r0], -r9
     de4:	0004e207 	andeq	lr, r4, r7, lsl #4
     de8:	0d120400 	cfldrseq	mvf0, [r2, #-0]
     dec:	000000b9 	strheq	r0, [r0], -r9
     df0:	00043004 	andeq	r3, r4, r4
     df4:	1b280500 	blne	a021fc <__bss_end__+0x9f8c4c>
     df8:	00000143 	andeq	r0, r0, r3, asr #2
     dfc:	0004540a 	andeq	r5, r4, sl, lsl #8
     e00:	00060400 	andeq	r0, r6, r0, lsl #8
     e04:	0000015a 	andeq	r0, r0, sl, asr r1
     e08:	00043f0b 	andeq	r3, r4, fp, lsl #30
     e0c:	00015a00 	andeq	r5, r1, r0, lsl #20
     e10:	0c000000 	stceq	0, cr0, [r0], {-0}
     e14:	04560404 	ldrbeq	r0, [r6], #-1028	; 0xfffffbfc
     e18:	63050000 	movwvs	r0, #20480	; 0x5000
     e1c:	00013718 	andeq	r3, r1, r8, lsl r7
     e20:	04260d00 	strteq	r0, [r6], #-3328	; 0xfffff300
     e24:	81010000 	mrshi	r0, (UNDEF: 1)
     e28:	00002505 	andeq	r2, r0, r5, lsl #10
     e2c:	00864400 	addeq	r4, r6, r0, lsl #8
     e30:	0004b800 	andeq	fp, r4, r0, lsl #16
     e34:	179c0100 	ldrne	r0, [ip, r0, lsl #2]
     e38:	0e000007 	cdpeq	0, 0, cr0, cr0, cr7, {0}
     e3c:	00667562 	rsbeq	r7, r6, r2, ror #10
     e40:	17158101 	ldrne	r8, [r5, -r1, lsl #2]
     e44:	37000007 	strcc	r0, [r0, -r7]
     e48:	31000008 	tstcc	r0, r8
     e4c:	0e000008 	cdpeq	0, 0, cr0, cr0, cr8, {0}
     e50:	8101006e 	tsthi	r1, lr, rrx
     e54:	0000251e 	andeq	r2, r0, lr, lsl r5
     e58:	00086900 	andeq	r6, r8, r0, lsl #18
     e5c:	00086300 	andeq	r6, r8, r0, lsl #6
     e60:	6d660e00 	stclvs	14, cr0, [r6, #-0]
     e64:	81010074 	tsthi	r1, r4, ror r0
     e68:	0000b32d 	andeq	fp, r0, sp, lsr #6
     e6c:	0008a300 	andeq	sl, r8, r0, lsl #6
     e70:	00089700 	andeq	r9, r8, r0, lsl #14
     e74:	04210f00 	strteq	r0, [r1], #-3840	; 0xfffff100
     e78:	81010000 	mrshi	r0, (UNDEF: 1)
     e7c:	00015c3a 	andeq	r5, r1, sl, lsr ip
     e80:	d4910300 	ldrle	r0, [r1], #768	; 0x300
     e84:	0070107d 	rsbseq	r1, r0, sp, ror r0
     e88:	17088201 	strne	r8, [r8, -r1, lsl #4]
     e8c:	01000007 	tsteq	r0, r7
     e90:	ed000009 	stc	0, cr0, [r0, #-36]	; 0xffffffdc
     e94:	10000008 	andne	r0, r0, r8
     e98:	82010065 	andhi	r0, r1, #101, 0	; 0x65
     e9c:	00071712 	andeq	r1, r7, r2, lsl r7
     ea0:	00098300 	andeq	r8, r9, r0, lsl #6
     ea4:	00097f00 	andeq	r7, r9, r0, lsl #30
     ea8:	30781000 	rsbscc	r1, r8, r0
     eac:	0e830100 	rmfeqs	f0, f3, f0
     eb0:	0000005d 	andeq	r0, r0, sp, asr r0
     eb4:	000009b0 			; <UNDEFINED> instruction: 0x000009b0
     eb8:	000009aa 	andeq	r0, r0, sl, lsr #19
     ebc:	00317810 	eorseq	r7, r1, r0, lsl r8
     ec0:	5d118301 	ldcpl	3, cr8, [r1, #-4]
     ec4:	dd000000 	stcle	0, cr0, [r0, #-0]
     ec8:	d9000009 	stmdble	r0, {r0, r3}
     ecc:	11000009 	tstne	r0, r9
     ed0:	00000500 	andeq	r0, r0, r0, lsl #10
     ed4:	b3118601 	tstlt	r1, #1048576	; 0x100000
     ed8:	ff000000 			; <UNDEFINED> instruction: 0xff000000
     edc:	fb000009 	blx	f0a <__code_start__-0x70f6>
     ee0:	12000009 	andne	r0, r0, #9, 0
     ee4:	000000c0 	andeq	r0, r0, r0, asr #1
     ee8:	0000072d 	andeq	r0, r0, sp, lsr #14
     eec:	918c0305 	orrls	r0, ip, r5, lsl #6
     ef0:	ac130000 	ldcge	0, cr0, [r3], {-0}
     ef4:	00000086 	andeq	r0, r0, r6, lsl #1
     ef8:	10000004 	andne	r0, r0, r4
     efc:	91010073 	tstls	r1, r3, ror r0
     f00:	0007170a 	andeq	r1, r7, sl, lsl #14
     f04:	000a3500 	andeq	r3, sl, r0, lsl #10
     f08:	000a1f00 	andeq	r1, sl, r0, lsl #30
     f0c:	756e1400 	strbvc	r1, [lr, #-1024]!	; 0xfffffc00
     f10:	9101006d 	tstls	r1, sp, rrx
     f14:	0007320d 	andeq	r3, r7, sp, lsl #4
     f18:	d8910300 	ldmle	r1, {r8, r9}
     f1c:	0563157d 	strbeq	r1, [r3, #-1405]!	; 0xfffffa83
     f20:	91010000 	mrsls	r0, (UNDEF: 1)
     f24:	00073217 	andeq	r3, r7, r7, lsl r2
     f28:	d8910300 	ldmle	r1, {r8, r9}
     f2c:	04bb117e 	ldrteq	r1, [fp], #382	; 0x17e
     f30:	92010000 	andls	r0, r1, #0, 0
     f34:	00002c0d 	andeq	r2, r0, sp, lsl #24
     f38:	000abc00 	andeq	fp, sl, r0, lsl #24
     f3c:	000ab600 	andeq	fp, sl, r0, lsl #12
     f40:	87741600 	ldrbhi	r1, [r4, -r0, lsl #12]!
     f44:	01a40000 			; <UNDEFINED> instruction: 0x01a40000
     f48:	05390000 	ldreq	r0, [r9, #-0]!
     f4c:	74100000 	ldrvc	r0, [r0], #-0
     f50:	9e010079 	mcrls	0, 0, r0, cr1, cr9, {3}
     f54:	0000b31d 	andeq	fp, r0, sp, lsl r3
     f58:	000af000 	andeq	pc, sl, r0
     f5c:	000ae600 	andeq	lr, sl, r0, lsl #12
     f60:	78781700 	ldmdavc	r8!, {r8, r9, sl, ip}^
     f64:	1aa20100 	bne	fe88136c <__bss_end__+0xfe877dbc>
     f68:	00000070 	andeq	r0, r0, r0, ror r0
     f6c:	00878418 	addeq	r8, r7, r8, lsl r4
     f70:	000a9200 	andeq	r9, sl, r0, lsl #4
     f74:	0002d500 	andeq	sp, r2, r0, lsl #10
     f78:	50011900 	andpl	r1, r1, r0, lsl #18
     f7c:	19007602 	stmdbne	r0, {r1, r9, sl, ip, sp, lr}
     f80:	03055101 	movweq	r5, #20737	; 0x5101
     f84:	00009080 	andeq	r9, r0, r0, lsl #1
     f88:	01520119 	cmpeq	r2, r9, lsl r1
     f8c:	9c180033 	ldcls	0, cr0, [r8], {51}	; 0x33
     f90:	92000087 	andls	r0, r0, #135, 0	; 0x87
     f94:	f700000a 			; <UNDEFINED> instruction: 0xf700000a
     f98:	19000002 	stmdbne	r0, {r1}
     f9c:	76025001 	strvc	r5, [r2], -r1
     fa0:	51011900 	tstpl	r1, r0, lsl #18
     fa4:	90840305 	addls	r0, r4, r5, lsl #6
     fa8:	01190000 	tsteq	r9, r0
     fac:	00330152 	eorseq	r0, r3, r2, asr r1
     fb0:	0087d018 	addeq	sp, r7, r8, lsl r0
     fb4:	000a9e00 	andeq	r9, sl, r0, lsl #28
     fb8:	00031400 	andeq	r1, r3, r0, lsl #8
     fbc:	50011900 	andpl	r1, r1, r0, lsl #18
     fc0:	90880305 	addls	r0, r8, r5, lsl #6
     fc4:	01190000 	tsteq	r9, r0
     fc8:	00770251 	rsbseq	r0, r7, r1, asr r2
     fcc:	87dc1800 	ldrbhi	r1, [ip, r0, lsl #16]
     fd0:	0a9e0000 	beq	fe780fd8 <__bss_end__+0xfe777a28>
     fd4:	03310000 	teqeq	r1, #0, 0
     fd8:	01190000 	tsteq	r9, r0
     fdc:	90030550 	andls	r0, r3, r0, asr r5
     fe0:	19000090 	stmdbne	r0, {r4, r7}
     fe4:	7a025101 	bvc	953f0 <__bss_end__+0x8be40>
     fe8:	ec180000 	ldc	0, cr0, [r8], {-0}
     fec:	92000087 	andls	r0, r0, #135, 0	; 0x87
     ff0:	5300000a 	movwpl	r0, #10
     ff4:	19000003 	stmdbne	r0, {r0, r1}
     ff8:	76025001 	strvc	r5, [r2], -r1
     ffc:	51011900 	tstpl	r1, r0, lsl #18
    1000:	90800305 	addls	r0, r0, r5, lsl #6
    1004:	01190000 	tsteq	r9, r0
    1008:	00330152 	eorseq	r0, r3, r2, asr r1
    100c:	00880418 	addeq	r0, r8, r8, lsl r4
    1010:	000a9200 	andeq	r9, sl, r0, lsl #4
    1014:	00037500 	andeq	r7, r3, r0, lsl #10
    1018:	50011900 	andpl	r1, r1, r0, lsl #18
    101c:	19007602 	stmdbne	r0, {r1, r9, sl, ip, sp, lr}
    1020:	03055101 	movweq	r5, #20737	; 0x5101
    1024:	00009084 	andeq	r9, r0, r4, lsl #1
    1028:	01520119 	cmpeq	r2, r9, lsl r1
    102c:	2c180033 	ldccs	0, cr0, [r8], {51}	; 0x33
    1030:	42000088 	andmi	r0, r0, #136, 0	; 0x88
    1034:	a9000007 	stmdbge	r0, {r0, r1, r2}
    1038:	19000003 	stmdbne	r0, {r0, r1}
    103c:	3a015001 	bcc	55048 <__bss_end__+0x4ba98>
    1040:	03510119 	cmpeq	r1, #1073741830	; 0x40000006
    1044:	197dd091 	ldmdbne	sp!, {r0, r4, r7, ip, lr, pc}^
    1048:	08025201 	stmdaeq	r2, {r0, r9, ip, lr}
    104c:	53011980 	movwpl	r1, #6528	; 0x1980
    1050:	19007702 	stmdbne	r0, {r1, r8, r9, sl, ip, sp, lr}
    1054:	02007d02 	andeq	r7, r0, #128	; 0x80
    1058:	02190075 	andseq	r0, r9, #117, 0	; 0x75
    105c:	7602047d 			; <UNDEFINED> instruction: 0x7602047d
    1060:	4c180000 	ldcmi	0, cr0, [r8], {-0}
    1064:	42000088 	andmi	r0, r0, #136, 0	; 0x88
    1068:	dd000007 	stcle	0, cr0, [r0, #-28]	; 0xffffffe4
    106c:	19000003 	stmdbne	r0, {r0, r1}
    1070:	3a015001 	bcc	5507c <__bss_end__+0x4bacc>
    1074:	03510119 	cmpeq	r1, #1073741830	; 0x40000006
    1078:	197ed091 	ldmdbne	lr!, {r0, r4, r7, ip, lr, pc}^
    107c:	08025201 	stmdaeq	r2, {r0, r9, ip, lr}
    1080:	53011980 	movwpl	r1, #6528	; 0x1980
    1084:	19007a02 	stmdbne	r0, {r1, r9, fp, ip, sp, lr}
    1088:	02007d02 	andeq	r7, r0, #128	; 0x80
    108c:	02190075 	andseq	r0, r9, #117, 0	; 0x75
    1090:	7602047d 			; <UNDEFINED> instruction: 0x7602047d
    1094:	58180000 	ldmdapl	r8, {}	; <UNPREDICTABLE>
    1098:	aa000088 	bge	12c0 <__code_start__-0x6d40>
    109c:	fb00000a 	blx	10ce <__code_start__-0x6f32>
    10a0:	19000003 	stmdbne	r0, {r0, r1}
    10a4:	91035001 	tstls	r3, r1
    10a8:	01197dd0 			; <UNDEFINED> instruction: 0x01197dd0
    10ac:	44030551 	strmi	r0, [r3], #-1361	; 0xfffffaaf
    10b0:	00000090 	muleq	r0, r0, r0
    10b4:	00886c18 	addeq	r6, r8, r8, lsl ip
    10b8:	000ab600 	andeq	fp, sl, r0, lsl #12
    10bc:	00041700 	andeq	r1, r4, r0, lsl #14
    10c0:	50011900 	andpl	r1, r1, r0, lsl #18
    10c4:	7dd09103 	ldfvcp	f1, [r0, #12]
    10c8:	03510119 	cmpeq	r1, #1073741830	; 0x40000006
    10cc:	007ed091 			; <UNDEFINED> instruction: 0x007ed091
    10d0:	00889018 	addeq	r9, r8, r8, lsl r0
    10d4:	000a9e00 	andeq	r9, sl, r0, lsl #28
    10d8:	00045000 	andeq	r5, r4, r0
    10dc:	50011900 	andpl	r1, r1, r0, lsl #18
    10e0:	90300305 	eorsls	r0, r0, r5, lsl #6
    10e4:	01190000 	tsteq	r9, r0
    10e8:	1c030551 	cfstr32ne	mvfx0, [r3], {81}	; 0x51
    10ec:	19000090 	stmdbne	r0, {r4, r7}
    10f0:	03055201 	movweq	r5, #20993	; 0x5201
    10f4:	0000918c 	andeq	r9, r0, ip, lsl #3
    10f8:	02530119 	subseq	r0, r3, #1073741830	; 0x40000006
    10fc:	02199f08 	andseq	r9, r9, #8, 30
    1100:	0305007d 	movweq	r0, #20605	; 0x507d
    1104:	00009098 	muleq	r0, r8, r0
    1108:	88941a00 	ldmhi	r4, {r9, fp, ip}
    110c:	0ac20000 	beq	ff081114 <__bss_end__+0xff077b64>
    1110:	b4180000 	ldrlt	r0, [r8], #-0
    1114:	42000088 	andmi	r0, r0, #136, 0	; 0x88
    1118:	8d000007 	stchi	0, cr0, [r0, #-28]	; 0xffffffe4
    111c:	19000004 	stmdbne	r0, {r2}
    1120:	40015001 	andmi	r5, r1, r1
    1124:	03510119 	cmpeq	r1, #1073741830	; 0x40000006
    1128:	197dd091 	ldmdbne	sp!, {r0, r4, r7, ip, lr, pc}^
    112c:	08025201 	stmdaeq	r2, {r0, r9, ip, lr}
    1130:	53011980 	movwpl	r1, #6528	; 0x1980
    1134:	19007702 	stmdbne	r0, {r1, r8, r9, sl, ip, sp, lr}
    1138:	02007d02 	andeq	r7, r0, #128	; 0x80
    113c:	02190075 	andseq	r0, r9, #117, 0	; 0x75
    1140:	7602047d 			; <UNDEFINED> instruction: 0x7602047d
    1144:	d4180000 	ldrle	r0, [r8], #-0
    1148:	42000088 	andmi	r0, r0, #136, 0	; 0x88
    114c:	c1000007 	tstgt	r0, r7
    1150:	19000004 	stmdbne	r0, {r2}
    1154:	40015001 	andmi	r5, r1, r1
    1158:	03510119 	cmpeq	r1, #1073741830	; 0x40000006
    115c:	197ed091 	ldmdbne	lr!, {r0, r4, r7, ip, lr, pc}^
    1160:	08025201 	stmdaeq	r2, {r0, r9, ip, lr}
    1164:	53011980 	movwpl	r1, #6528	; 0x1980
    1168:	19007a02 	stmdbne	r0, {r1, r9, fp, ip, sp, lr}
    116c:	02007d02 	andeq	r7, r0, #128	; 0x80
    1170:	02190075 	andseq	r0, r9, #117, 0	; 0x75
    1174:	7602047d 			; <UNDEFINED> instruction: 0x7602047d
    1178:	e0180000 	ands	r0, r8, r0
    117c:	ce000088 	cdpgt	0, 0, cr0, cr0, cr8, {4}
    1180:	dd00000a 	stcle	0, cr0, [r0, #-40]	; 0xffffffd8
    1184:	19000004 	stmdbne	r0, {r2}
    1188:	91035001 	tstls	r3, r1
    118c:	01197dd0 			; <UNDEFINED> instruction: 0x01197dd0
    1190:	d2910351 	addsle	r0, r1, #1140850689	; 0x44000001
    1194:	f418007e 			; <UNDEFINED> instruction: 0xf418007e
    1198:	ce000088 	cdpgt	0, 0, cr0, cr0, cr8, {4}
    119c:	f900000a 			; <UNDEFINED> instruction: 0xf900000a
    11a0:	19000004 	stmdbne	r0, {r2}
    11a4:	91035001 	tstls	r3, r1
    11a8:	01197dd0 			; <UNDEFINED> instruction: 0x01197dd0
    11ac:	d0910351 	addsle	r0, r1, r1, asr r3
    11b0:	1418007e 	ldrne	r0, [r8], #-126	; 0xffffff82
    11b4:	9e000089 	cdpls	0, 0, cr0, cr0, cr9, {4}
    11b8:	2f00000a 	svccs	0x0000000a
    11bc:	19000005 	stmdbne	r0, {r0, r2}
    11c0:	03055001 	movweq	r5, #20481	; 0x5001
    11c4:	000090d4 	ldrdeq	r9, [r0], -r4
    11c8:	05510119 	ldrbeq	r0, [r1, #-281]	; 0xfffffee7
    11cc:	00901c03 	addseq	r1, r0, r3, lsl #24
    11d0:	52011900 	andpl	r1, r1, #0, 18
    11d4:	918c0305 	orrls	r0, ip, r5, lsl #6
    11d8:	01190000 	tsteq	r9, r0
    11dc:	b6080253 			; <UNDEFINED> instruction: 0xb6080253
    11e0:	007d0219 	rsbseq	r0, sp, r9, lsl r2
    11e4:	00007602 	andeq	r7, r0, r2, lsl #12
    11e8:	0089181a 	addeq	r1, r9, sl, lsl r8
    11ec:	000ac200 	andeq	ip, sl, r0, lsl #4
    11f0:	c4180000 	ldrgt	r0, [r8], #-0
    11f4:	c0000086 	andgt	r0, r0, r6, lsl #1
    11f8:	4d000009 	stcmi	0, cr0, [r0, #-36]	; 0xffffffdc
    11fc:	19000005 	stmdbne	r0, {r0, r2}
    1200:	77025001 	strvc	r5, [r2, -r1]
    1204:	70180000 	andsvc	r0, r8, r0
    1208:	9e000087 	cdpls	0, 0, cr0, cr0, cr7, {4}
    120c:	8600000a 	strhi	r0, [r0], -sl
    1210:	19000005 	stmdbne	r0, {r0, r2}
    1214:	03055001 	movweq	r5, #20481	; 0x5001
    1218:	00009030 	andeq	r9, r0, r0, lsr r0
    121c:	05510119 	ldrbeq	r0, [r1, #-281]	; 0xfffffee7
    1220:	00901c03 	addseq	r1, r0, r3, lsl #24
    1224:	52011900 	andpl	r1, r1, #0, 18
    1228:	918c0305 	orrls	r0, ip, r5, lsl #6
    122c:	01190000 	tsteq	r9, r0
    1230:	98080253 	stmdals	r8, {r0, r1, r4, r6, r9}
    1234:	007d0219 	rsbseq	r0, sp, r9, lsl r2
    1238:	90740305 	rsbsls	r0, r4, r5, lsl #6
    123c:	1a000000 	bne	1244 <__code_start__-0x6dbc>
    1240:	00008774 	andeq	r8, r0, r4, ror r7
    1244:	00000ac2 	andeq	r0, r0, r2, asr #21
    1248:	00892c18 	addeq	r2, r9, r8, lsl ip
    124c:	000a9e00 	andeq	r9, sl, r0, lsl #28
    1250:	0005be00 	andeq	fp, r5, r0, lsl #28
    1254:	50011900 	andpl	r1, r1, r0, lsl #18
    1258:	90fc0305 	rscsls	r0, ip, r5, lsl #6
    125c:	01190000 	tsteq	r9, r0
    1260:	1c030551 	cfstr32ne	mvfx0, [r3], {81}	; 0x51
    1264:	19000090 	stmdbne	r0, {r4, r7}
    1268:	03055201 	movweq	r5, #20993	; 0x5201
    126c:	0000918c 	andeq	r9, r0, ip, lsl #3
    1270:	02530119 	subseq	r0, r3, #1073741830	; 0x40000006
    1274:	1a00be08 	bne	30a9c <__bss_end__+0x274ec>
    1278:	00008930 	andeq	r8, r0, r0, lsr r9
    127c:	00000ac2 	andeq	r0, r0, r2, asr #21
    1280:	00895c18 	addeq	r5, r9, r8, lsl ip
    1284:	00074200 	andeq	r4, r7, r0, lsl #4
    1288:	0005f400 	andeq	pc, r5, r0, lsl #8
    128c:	50011900 	andpl	r1, r1, r0, lsl #18
    1290:	01193a01 	tsteq	r9, r1, lsl #20
    1294:	d0910351 	addsle	r0, r1, r1, asr r3
    1298:	5201197d 	andpl	r1, r1, #2048000	; 0x1f4000
    129c:	19800802 	stmibne	r0, {r1, fp}
    12a0:	02007d02 	andeq	r7, r0, #128	; 0x80
    12a4:	02190075 	andseq	r0, r9, #117, 0	; 0x75
    12a8:	3101047d 	tstcc	r1, sp, ror r4
    12ac:	89941800 	ldmibhi	r4, {fp, ip}
    12b0:	07420000 	strbeq	r0, [r2, -r0]
    12b4:	06210000 	strteq	r0, [r1], -r0
    12b8:	01190000 	tsteq	r9, r0
    12bc:	193a0150 	ldmdbne	sl!, {r4, r6, r8}
    12c0:	91035101 	tstls	r3, r1, lsl #2
    12c4:	01197dd0 			; <UNDEFINED> instruction: 0x01197dd0
    12c8:	80080252 	andhi	r0, r8, r2, asr r2
    12cc:	007d0219 	rsbseq	r0, sp, r9, lsl r2
    12d0:	19007502 	stmdbne	r0, {r1, r8, sl, ip, sp, lr}
    12d4:	01047d02 	tsteq	r4, r2, lsl #26
    12d8:	c8180030 	ldmdagt	r8, {r4, r5}
    12dc:	42000089 	andmi	r0, r0, #137, 0	; 0x89
    12e0:	4e000007 	cdpmi	0, 0, cr0, cr0, cr7, {0}
    12e4:	19000006 	stmdbne	r0, {r1, r2}
    12e8:	40015001 	andmi	r5, r1, r1
    12ec:	03510119 	cmpeq	r1, #1073741830	; 0x40000006
    12f0:	197dd091 	ldmdbne	sp!, {r0, r4, r7, ip, lr, pc}^
    12f4:	08025201 	stmdaeq	r2, {r0, r9, ip, lr}
    12f8:	7d021980 	vstrvc.16	s2, [r2, #-256]	; 0xffffff00	; <UNPREDICTABLE>
    12fc:	00750200 	rsbseq	r0, r5, r0, lsl #4
    1300:	047d0219 	ldrbteq	r0, [sp], #-537	; 0xfffffde7
    1304:	18003001 	stmdane	r0, {r0, ip, sp}
    1308:	000089fc 	strdeq	r8, [r0], -ip
    130c:	00000742 	andeq	r0, r0, r2, asr #14
    1310:	0000067b 	andeq	r0, r0, fp, ror r6
    1314:	01500119 	cmpeq	r0, r9, lsl r1
    1318:	51011932 	tstpl	r1, r2, lsr r9
    131c:	7dd09103 	ldfvcp	f1, [r0, #12]
    1320:	02520119 	subseq	r0, r2, #1073741830	; 0x40000006
    1324:	02198008 	andseq	r8, r9, #8, 0
    1328:	7502007d 	strvc	r0, [r2, #-125]	; 0xffffff83
    132c:	7d021900 	vstrvc.16	s2, [r2, #-0]	; <UNPREDICTABLE>
    1330:	00300104 	eorseq	r0, r0, r4, lsl #2
    1334:	008a4418 	addeq	r4, sl, r8, lsl r4
    1338:	00074200 	andeq	r4, r7, r0, lsl #4
    133c:	0006a800 	andeq	sl, r6, r0, lsl #16
    1340:	50011900 	andpl	r1, r1, r0, lsl #18
    1344:	01193801 	tsteq	r9, r1, lsl #16
    1348:	d0910351 	addsle	r0, r1, r1, asr r3
    134c:	5201197d 	andpl	r1, r1, #2048000	; 0x1f4000
    1350:	19800802 	stmibne	r0, {r1, fp}
    1354:	02007d02 	andeq	r7, r0, #128	; 0x80
    1358:	02190075 	andseq	r0, r9, #117, 0	; 0x75
    135c:	3001047d 	andcc	r0, r1, sp, ror r4
    1360:	8a641800 	bhi	1907368 <__bss_end__+0x18fddb8>
    1364:	0a9e0000 	beq	fe78136c <__bss_end__+0xfe777dbc>
    1368:	06cb0000 	strbeq	r0, [fp], r0
    136c:	01190000 	tsteq	r9, r0
    1370:	24030550 	strcs	r0, [r3], #-1360	; 0xfffffab0
    1374:	19000091 	stmdbne	r0, {r0, r4, r7}
    1378:	7a025101 	bvc	95784 <__bss_end__+0x8c1d4>
    137c:	52011900 	andpl	r1, r1, #0, 18
    1380:	00007a02 	andeq	r7, r0, r2, lsl #20
    1384:	008a741b 	addeq	r7, sl, fp, lsl r4
    1388:	0006dd00 	andeq	sp, r6, r0, lsl #26
    138c:	50011900 	andpl	r1, r1, r0, lsl #18
    1390:	7dc89104 	stfvcp	f1, [r8, #16]
    1394:	88180006 	ldmdahi	r8, {r1, r2}
    1398:	9e00008a 	cdpls	0, 0, cr0, cr0, cr10, {4}
    139c:	0c00000a 	stceq	0, cr0, [r0], {10}
    13a0:	19000007 	stmdbne	r0, {r0, r1, r2}
    13a4:	03055001 	movweq	r5, #20481	; 0x5001
    13a8:	00009154 	andeq	r9, r0, r4, asr r1
    13ac:	05510119 	ldrbeq	r0, [r1, #-281]	; 0xfffffee7
    13b0:	00901c03 	addseq	r1, r0, r3, lsl #24
    13b4:	52011900 	andpl	r1, r1, #0, 18
    13b8:	918c0305 	orrls	r0, ip, r5, lsl #6
    13bc:	01190000 	tsteq	r9, r0
    13c0:	e2080253 	and	r0, r8, #805306373	; 0x30000005
    13c4:	8a8c1a00 	bhi	fe307bcc <__bss_end__+0xfe2fe61c>
    13c8:	0ac20000 	beq	ff0813d0 <__bss_end__+0xff077e20>
    13cc:	00000000 	andeq	r0, r0, r0
    13d0:	00b90408 	adcseq	r0, r9, r8, lsl #8
    13d4:	c01c0000 	andsgt	r0, ip, r0
    13d8:	2d000000 	stccs	0, cr0, [r0, #-0]
    13dc:	1d000007 	stcne	0, cr0, [r0, #-28]	; 0xffffffe4
    13e0:	0000002c 	andeq	r0, r0, ip, lsr #32
    13e4:	1d090009 	stcne	0, cr0, [r9, #-36]	; 0xffffffdc
    13e8:	1c000007 	stcne	0, cr0, [r0], {7}
    13ec:	000000b9 	strheq	r0, [r0], -r9
    13f0:	00000742 	andeq	r0, r0, r2, asr #14
    13f4:	00002c1d 	andeq	r2, r0, sp, lsl ip
    13f8:	1e007f00 	cdpne	15, 0, cr7, cr0, cr0, {0}
    13fc:	0000052b 	andeq	r0, r0, fp, lsr #10
    1400:	17014901 	strne	r4, [r1, -r1, lsl #18]
    1404:	2c000007 	stccs	0, cr0, [r0], {7}
    1408:	b4000084 	strlt	r0, [r0], #-132	; 0xffffff7c
    140c:	01000001 	tsteq	r0, r1
    1410:	0008ab9c 	muleq	r8, ip, fp
    1414:	05701f00 	ldrbeq	r1, [r0, #-3840]!	; 0xfffff100
    1418:	49010000 	stmdbmi	r1, {}	; <UNPREDICTABLE>
    141c:	00002c0f 	andeq	r2, r0, pc, lsl #24
    1420:	000b3900 	andeq	r3, fp, r0, lsl #18
    1424:	000b3300 	andeq	r3, fp, r0, lsl #6
    1428:	73640e00 	cmnvc	r4, #0, 28
    142c:	49010074 	stmdbmi	r1, {r2, r4, r5, r6}
    1430:	0007171b 	andeq	r1, r7, fp, lsl r7
    1434:	000b7700 	andeq	r7, fp, r0, lsl #14
    1438:	000b6700 	andeq	r6, fp, r0, lsl #14
    143c:	006e0e00 	rsbeq	r0, lr, r0, lsl #28
    1440:	25244901 	strcs	r4, [r4, #-2305]!	; 0xfffff6ff
    1444:	db000000 	blle	144c <__code_start__-0x6bb4>
    1448:	d700000b 	strle	r0, [r0, -fp]
    144c:	0e00000b 	cdpeq	0, 0, cr0, cr0, cr11, {0}
    1450:	006c6176 	rsbeq	r6, ip, r6, ror r1
    1454:	252b4901 	strcs	r4, [fp, #-2305]!	; 0xfffff6ff
    1458:	05000000 	streq	r0, [r0, #-0]
    145c:	f900000c 			; <UNDEFINED> instruction: 0xf900000c
    1460:	1f00000b 	svcne	0x0000000b
    1464:	000004bb 			; <UNDEFINED> instruction: 0x000004bb
    1468:	25344901 	ldrcs	r4, [r4, #-2305]!	; 0xfffff6ff
    146c:	5b000000 	blpl	1474 <__code_start__-0x6b8c>
    1470:	5500000c 	strpl	r0, [r0, #-12]
    1474:	0f00000c 	svceq	0x0000000c
    1478:	00000575 	andeq	r0, r0, r5, ror r5
    147c:	253f4901 	ldrcs	r4, [pc, #-2305]!	; b83 <__code_start__-0x747d>
    1480:	02000000 	andeq	r0, r0, #0, 0
    1484:	62140491 	andsvs	r0, r4, #-1862270976	; 0x91000000
    1488:	01006675 	tsteq	r0, r5, ror r6
    148c:	08ab074e 	stmiaeq	fp!, {r1, r2, r3, r6, r8, r9, sl}
    1490:	91030000 	mrsls	r0, (UNDEF: 3)
    1494:	70107fa8 	andsvc	r7, r0, r8, lsr #31
    1498:	114e0100 	mrsne	r0, (UNDEF: 94)
    149c:	00000717 	andeq	r0, r0, r7, lsl r7
    14a0:	00000ca5 	andeq	r0, r0, r5, lsr #25
    14a4:	00000c85 	andeq	r0, r0, r5, lsl #25
    14a8:	01007510 	tsteq	r0, r0, lsl r5
    14ac:	002c0b4f 	eoreq	r0, ip, pc, asr #22
    14b0:	0d8b0000 	stceq	0, cr0, [fp]
    14b4:	0d770000 	ldcleq	0, cr0, [r7, #-0]
    14b8:	c0120000 	andsgt	r0, r2, r0
    14bc:	cb000000 	blgt	14c4 <__code_start__-0x6b3c>
    14c0:	05000008 	streq	r0, [r0, #-8]
    14c4:	00917403 	addseq	r7, r1, r3, lsl #8
    14c8:	84981600 	ldrhi	r1, [r8], #1536	; 0x600
    14cc:	00780000 	rsbseq	r0, r8, r0
    14d0:	08320000 	ldmdaeq	r2!, {}	; <UNPREDICTABLE>
    14d4:	18110000 	ldmdane	r1, {}	; <UNPREDICTABLE>
    14d8:	01000005 	tsteq	r0, r5
    14dc:	002c0d54 	eoreq	r0, ip, r4, asr sp
    14e0:	0e0c0000 	cdpeq	0, 0, cr0, cr12, cr0, {0}
    14e4:	0e040000 	cdpeq	0, 0, cr0, cr4, cr0, {0}
    14e8:	18000000 	stmdane	r0, {}	; <UNPREDICTABLE>
    14ec:	00008550 	andeq	r8, r0, r0, asr r5
    14f0:	0000095d 	andeq	r0, r0, sp, asr r9
    14f4:	00000847 	andeq	r0, r0, r7, asr #16
    14f8:	03510119 	cmpeq	r1, #1073741830	; 0x40000006
    14fc:	007fa091 			; <UNDEFINED> instruction: 0x007fa091
    1500:	00856418 	addeq	r6, r5, r8, lsl r4
    1504:	0008d000 	andeq	sp, r8, r0
    1508:	00086800 	andeq	r6, r8, r0, lsl #16
    150c:	50011900 	andpl	r1, r1, r0, lsl #18
    1510:	19007502 	stmdbne	r0, {r1, r8, sl, ip, sp, lr}
    1514:	74025101 	strvc	r5, [r2], #-257	; 0xfffffeff
    1518:	53011900 	movwpl	r1, #6400	; 0x1900
    151c:	7fa09103 	svcvc	0x00a09103
    1520:	85bc1800 	ldrhi	r1, [ip, #2048]!	; 0x800
    1524:	0a9e0000 	beq	fe78152c <__bss_end__+0xfe777f7c>
    1528:	08a10000 	stmiaeq	r1!, {}	; <UNPREDICTABLE>
    152c:	01190000 	tsteq	r9, r0
    1530:	30030550 	andcc	r0, r3, r0, asr r5
    1534:	19000090 	stmdbne	r0, {r4, r7}
    1538:	03055101 	movweq	r5, #20737	; 0x5101
    153c:	0000901c 	andeq	r9, r0, ip, lsl r0
    1540:	05520119 	ldrbeq	r0, [r2, #-281]	; 0xfffffee7
    1544:	00917403 	addseq	r7, r1, r3, lsl #8
    1548:	53011900 	movwpl	r1, #6400	; 0x1900
    154c:	19790802 	ldmdbne	r9!, {r1, fp}^
    1550:	05007d02 	streq	r7, [r0, #-3330]	; 0xfffff2fe
    1554:	00904403 	addseq	r4, r0, r3, lsl #8
    1558:	c01a0000 	andsgt	r0, sl, r0
    155c:	c2000085 	andgt	r0, r0, #133, 0	; 0x85
    1560:	0000000a 	andeq	r0, r0, sl
    1564:	0000b91c 	andeq	fp, r0, ip, lsl r9
    1568:	0008bb00 	andeq	fp, r8, r0, lsl #22
    156c:	002c1d00 	eoreq	r1, ip, r0, lsl #26
    1570:	003f0000 	eorseq	r0, pc, r0
    1574:	0000c01c 	andeq	ip, r0, ip, lsl r0
    1578:	0008cb00 	andeq	ip, r8, r0, lsl #22
    157c:	002c1d00 	eoreq	r1, ip, r0, lsl #26
    1580:	00040000 	andeq	r0, r4, r0
    1584:	0008bb09 	andeq	fp, r8, r9, lsl #22
    1588:	05381e00 	ldreq	r1, [r8, #-3584]!	; 0xfffff200
    158c:	38010000 	stmdacc	r1, {}	; <UNPREDICTABLE>
    1590:	0007170e 	andeq	r1, r7, lr, lsl #14
    1594:	0083f400 	addeq	pc, r3, r0, lsl #8
    1598:	00003800 	andeq	r3, r0, r0, lsl #16
    159c:	5d9c0100 	ldfpls	f0, [ip]
    15a0:	0e000009 	cdpeq	0, 0, cr0, cr0, cr9, {0}
    15a4:	00747364 	rsbseq	r7, r4, r4, ror #6
    15a8:	171c3801 	ldrne	r3, [ip, -r1, lsl #16]
    15ac:	4d000007 	stcmi	0, cr0, [r0, #-28]	; 0xffffffe4
    15b0:	4300000e 	movwmi	r0, #14
    15b4:	0e00000e 	cdpeq	0, 0, cr0, cr0, cr14, {0}
    15b8:	3801006e 	stmdacc	r1, {r1, r2, r3, r5, r6}
    15bc:	00002525 	andeq	r2, r0, r5, lsr #10
    15c0:	000e9400 	andeq	r9, lr, r0, lsl #8
    15c4:	000e9000 	andeq	r9, lr, r0
    15c8:	00700e00 	rsbseq	r0, r0, r0, lsl #28
    15cc:	172e3801 	strne	r3, [lr, -r1, lsl #16]!
    15d0:	bd000007 	stclt	0, cr0, [r0, #-28]	; 0xffffffe4
    15d4:	b500000e 	strlt	r0, [r0, #-14]
    15d8:	1f00000e 	svcne	0x0000000e
    15dc:	00000504 	andeq	r0, r0, r4, lsl #10
    15e0:	17373801 	ldrne	r3, [r7, -r1, lsl #16]!
    15e4:	f7000007 			; <UNDEFINED> instruction: 0xf7000007
    15e8:	f300000e 	vhadd.u8	d0, d0, d14
    15ec:	1000000e 	andne	r0, r0, lr
    15f0:	006e656c 	rsbeq	r6, lr, ip, ror #10
    15f4:	25063a01 	strcs	r3, [r6, #-2561]	; 0xfffff5ff
    15f8:	1d000000 	stcne	0, cr0, [r0, #-0]
    15fc:	1500000f 	strne	r0, [r0, #-15]
    1600:	1000000f 	andne	r0, r0, pc
    1604:	3e010073 	mcrcc	0, 0, r0, cr1, cr3, {3}
    1608:	00071708 	andeq	r1, r7, r8, lsl #14
    160c:	000f6b00 	andeq	r6, pc, r0, lsl #22
    1610:	000f6900 	andeq	r6, pc, r0, lsl #18
    1614:	70200000 	eorvc	r0, r0, r0
    1618:	01006461 	tsteq	r0, r1, ror #8
    161c:	07170e2e 	ldreq	r0, [r7, -lr, lsr #28]
    1620:	83d00000 	bicshi	r0, r0, #0, 0
    1624:	00240000 	eoreq	r0, r4, r0
    1628:	9c010000 	stcls	0, cr0, [r1], {-0}
    162c:	000009c0 	andeq	r0, r0, r0, asr #19
    1630:	0100700e 	tsteq	r0, lr
    1634:	0717182e 	ldreq	r1, [r7, -lr, lsr #16]
    1638:	0f840000 	svceq	0x00840000
    163c:	0f7e0000 	svceq	0x007e0000
    1640:	701f0000 	andsvc	r0, pc, r0
    1644:	01000005 	tsteq	r0, r5
    1648:	0717222e 	ldreq	r2, [r7, -lr, lsr #4]
    164c:	0fb30000 	svceq	0x00b30000
    1650:	0faf0000 	svceq	0x00af0000
    1654:	bb0f0000 	bllt	3c165c <__bss_end__+0x3b80ac>
    1658:	01000004 	tsteq	r0, r4
    165c:	00252c2e 	eoreq	r2, r5, lr, lsr #24
    1660:	52010000 	andpl	r0, r1, #0, 0
    1664:	6e656c10 	mcrvs	12, 3, r6, cr5, cr0, {0}
    1668:	062f0100 	strteq	r0, [pc], -r0, lsl #2
    166c:	00000025 	andeq	r0, r0, r5, lsr #32
    1670:	00000fd6 	ldrdeq	r0, [r0], -r6
    1674:	00000fd4 	ldrdeq	r0, [r0], -r4
    1678:	047a1e00 	ldrbteq	r1, [sl], #-3584	; 0xfffff200
    167c:	27010000 	strcs	r0, [r1, -r0]
    1680:	0000250c 	andeq	r2, r0, ip, lsl #10
    1684:	0083bc00 	addeq	fp, r3, r0, lsl #24
    1688:	00001400 	andeq	r1, r0, r0, lsl #8
    168c:	ed9c0100 	ldfs	f0, [ip]
    1690:	0e000009 	cdpeq	0, 0, cr0, cr0, cr9, {0}
    1694:	27010063 	strcs	r0, [r1, -r3, rrx]
    1698:	00002518 	andeq	r2, r0, r8, lsl r5
    169c:	000fef00 	andeq	lr, pc, r0, lsl #30
    16a0:	000fe900 	andeq	lr, pc, r0, lsl #18
    16a4:	f1210000 			; <UNDEFINED> instruction: 0xf1210000
    16a8:	01000004 	tsteq	r0, r4
    16ac:	85e0061f 	strbhi	r0, [r0, #1567]!	; 0x61f
    16b0:	00640000 	rsbeq	r0, r4, r0
    16b4:	9c010000 	stcls	0, cr0, [r1], {-0}
    16b8:	00000a7d 	andeq	r0, r0, sp, ror sl
    16bc:	0004ce1f 	andeq	ip, r4, pc, lsl lr
    16c0:	1b1f0100 	blne	7c1ac8 <__bss_end__+0x7b8518>
    16c4:	0000009e 	muleq	r0, lr, r0
    16c8:	00001021 	andeq	r1, r0, r1, lsr #32
    16cc:	0000101d 	andeq	r1, r0, sp, lsl r0
    16d0:	0005301f 	andeq	r3, r5, pc, lsl r0
    16d4:	301f0100 	andscc	r0, pc, r0, lsl #2
    16d8:	000000d1 	ldrdeq	r0, [r0], -r1
    16dc:	00001046 	andeq	r1, r0, r6, asr #32
    16e0:	00001042 	andeq	r1, r0, r2, asr #32
    16e4:	0000c012 	andeq	ip, r0, r2, lsl r0
    16e8:	000a8d00 	andeq	r8, sl, r0, lsl #26
    16ec:	7c030500 	cfstr32vc	mvfx0, [r3], {-0}
    16f0:	18000091 	stmdane	r0, {r0, r4, r7}
    16f4:	00008628 	andeq	r8, r0, r8, lsr #12
    16f8:	00000a9e 	muleq	r0, lr, sl
    16fc:	00000a73 	andeq	r0, r0, r3, ror sl
    1700:	05500119 	ldrbeq	r0, [r0, #-281]	; 0xfffffee7
    1704:	00903003 	addseq	r3, r0, r3
    1708:	51011900 	tstpl	r1, r0, lsl #18
    170c:	901c0305 	andsls	r0, ip, r5, lsl #6
    1710:	01190000 	tsteq	r9, r0
    1714:	7c030552 	cfstr32vc	mvfx0, [r3], {82}	; 0x52
    1718:	19000091 	stmdbne	r0, {r0, r4, r7}
    171c:	08025301 	stmdaeq	r2, {r0, r8, r9, ip, lr}
    1720:	7d021920 	vstrvc.16	s2, [r2, #-64]	; 0xffffffc0	; <UNPREDICTABLE>
    1724:	6c030500 	cfstr32vs	mvfx0, [r3], {-0}
    1728:	00000090 	muleq	r0, r0, r0
    172c:	00862c1a 	addeq	r2, r6, sl, lsl ip
    1730:	000ac200 	andeq	ip, sl, r0, lsl #4
    1734:	c01c0000 	andsgt	r0, ip, r0
    1738:	8d000000 	stchi	0, cr0, [r0, #-0]
    173c:	1d00000a 	stcne	0, cr0, [r0, #-40]	; 0xffffffd8
    1740:	0000002c 	andeq	r0, r0, ip, lsr #32
    1744:	7d09000e 	stcvc	0, cr0, [r9, #-56]	; 0xffffffc8
    1748:	2200000a 	andcs	r0, r0, #10, 0
    174c:	00000568 	andeq	r0, r0, r8, ror #10
    1750:	00000568 	andeq	r0, r0, r8, ror #10
    1754:	2205eb03 	andcs	lr, r5, #3072	; 0xc00
    1758:	00000429 	andeq	r0, r0, r9, lsr #8
    175c:	00000429 	andeq	r0, r0, r9, lsr #8
    1760:	22062803 	andcs	r2, r6, #196608	; 0x30000
    1764:	00000540 	andeq	r0, r0, r0, asr #10
    1768:	00000540 	andeq	r0, r0, r0, asr #10
    176c:	2205ea03 	andcs	lr, r5, #12288	; 0x3000
    1770:	00000511 	andeq	r0, r0, r1, lsl r5
    1774:	00000511 	andeq	r0, r0, r1, lsl r5
    1778:	2207ed03 	andcs	lr, r7, #192	; 0xc0
    177c:	00000062 	andeq	r0, r0, r2, rrx
    1780:	00000062 	andeq	r0, r0, r2, rrx
    1784:	22066e03 	andcs	r6, r6, #3, 28	; 0x30
    1788:	0000050a 	andeq	r0, r0, sl, lsl #10
    178c:	0000050a 	andeq	r0, r0, sl, lsl #10
    1790:	0007ee03 	andeq	lr, r7, r3, lsl #28
    1794:	0000010a 	andeq	r0, r0, sl, lsl #2
    1798:	08180004 	ldmdaeq	r8, {r2}
    179c:	01040000 	mrseq	r0, (UNDEF: 4)
    17a0:	0000033e 	andeq	r0, r0, lr, lsr r3
    17a4:	00058c0c 	andeq	r8, r5, ip, lsl #24
    17a8:	00031700 	andeq	r1, r3, r0, lsl #14
    17ac:	00016800 	andeq	r6, r1, r0, lsl #16
    17b0:	00000000 	andeq	r0, r0, r0
    17b4:	000cf400 	andeq	pc, ip, r0, lsl #8
    17b8:	05040200 	streq	r0, [r4, #-512]	; 0xfffffe00
    17bc:	00746e69 	rsbseq	r6, r4, r9, ror #28
    17c0:	ff070403 			; <UNDEFINED> instruction: 0xff070403
    17c4:	03000000 	movweq	r0, #0
    17c8:	00e10601 	rsceq	r0, r1, r1, lsl #12
    17cc:	02030000 	andeq	r0, r3, #0, 0
    17d0:	00003f05 	andeq	r3, r0, r5, lsl #30
    17d4:	05040300 	streq	r0, [r4, #-768]	; 0xfffffd00
    17d8:	000000a2 	andeq	r0, r0, r2, lsr #1
    17dc:	9d050803 	stcls	8, cr0, [r5, #-12]
    17e0:	03000000 	movweq	r0, #0
    17e4:	00df0801 	sbcseq	r0, pc, r1, lsl #16
    17e8:	02030000 	andeq	r0, r3, #0, 0
    17ec:	00011d07 	andeq	r1, r1, r7, lsl #26
    17f0:	07040300 	streq	r0, [r4, -r0, lsl #6]
    17f4:	000000fa 	strdeq	r0, [r0], -sl
    17f8:	f5070803 			; <UNDEFINED> instruction: 0xf5070803
    17fc:	04000000 	streq	r0, [r0], #-0
    1800:	00000025 	andeq	r0, r0, r5, lsr #32
    1804:	0000007a 	andeq	r0, r0, sl, ror r0
    1808:	00002505 	andeq	r2, r0, r5, lsl #10
    180c:	4e060000 	cdpmi	0, 0, cr0, cr6, cr0, {0}
    1810:	02000000 	andeq	r0, r0, #0, 0
    1814:	00860e1c 	addeq	r0, r6, ip, lsl lr
    1818:	04070000 	streq	r0, [r7], #-0
    181c:	0000006b 	andeq	r0, r0, fp, rrx
    1820:	00002504 	andeq	r2, r0, r4, lsl #10
    1824:	00009b00 	andeq	r9, r0, r0, lsl #22
    1828:	009b0500 	addseq	r0, fp, r0, lsl #10
    182c:	07000000 	streq	r0, [r0, -r0]
    1830:	0000a804 	andeq	sl, r0, r4, lsl #16
    1834:	08010300 	stmdaeq	r1, {r8, r9}
    1838:	000000e8 	andeq	r0, r0, r8, ror #1
    183c:	0000a108 	andeq	sl, r0, r8, lsl #2
    1840:	04670600 	strbteq	r0, [r7], #-1536	; 0xfffffa00
    1844:	21020000 	mrscs	r0, (UNDEF: 2)
    1848:	0000b90e 	andeq	fp, r0, lr, lsl #18
    184c:	8c040700 	stchi	7, cr0, [r4], {-0}
    1850:	09000000 	stmdbeq	r0, {}	; <UNPREDICTABLE>
    1854:	0000057e 	andeq	r0, r0, lr, ror r5
    1858:	0c060c01 	stceq	12, cr0, [r6], {1}
    185c:	1000008b 	andne	r0, r0, fp, lsl #1
    1860:	01000000 	mrseq	r0, (UNDEF: 0)
    1864:	0000e89c 	muleq	r0, ip, r8
    1868:	00720a00 	rsbseq	r0, r2, r0, lsl #20
    186c:	2c0e0d01 	stccs	13, cr0, [lr], {1}
    1870:	6d000000 	stcvs	0, cr0, [r0, #-0]
    1874:	67000010 	smladvs	r0, r0, r0, r0
    1878:	00000010 	andeq	r0, r0, r0, lsl r0
    187c:	0000d20b 	andeq	sp, r0, fp, lsl #4
    1880:	06030100 	streq	r0, [r3], -r0, lsl #2
    1884:	00008afc 	strdeq	r8, [r0], -ip
    1888:	00000010 	andeq	r0, r0, r0, lsl r0
    188c:	720a9c01 	andvc	r9, sl, #256	; 0x100
    1890:	0e040100 	adfeqs	f0, f4, f0
    1894:	0000002c 	andeq	r0, r0, ip, lsr #32
    1898:	000010a2 	andeq	r1, r0, r2, lsr #1
    189c:	0000109c 	muleq	r0, ip, r0
    18a0:	012f0000 			; <UNDEFINED> instruction: 0x012f0000
    18a4:	00040000 	andeq	r0, r4, r0
    18a8:	000008c1 	andeq	r0, r0, r1, asr #17
    18ac:	033e0104 	teqeq	lr, #1
    18b0:	b40c0000 	strlt	r0, [ip], #-0
    18b4:	17000005 	strne	r0, [r0, -r5]
    18b8:	1c000003 	stcne	0, cr0, [r0], {3}
    18bc:	2c00008b 	stccs	0, cr0, [r0], {139}	; 0x8b
    18c0:	96000000 	strls	r0, [r0], -r0
    18c4:	0200000d 	andeq	r0, r0, #13, 0
    18c8:	6e690504 	cdpvs	5, 6, cr0, cr9, cr4, {0}
    18cc:	04030074 	streq	r0, [r3], #-116	; 0xffffff8c
    18d0:	0000ff07 	andeq	pc, r0, r7, lsl #30
    18d4:	06010300 	streq	r0, [r1], -r0, lsl #6
    18d8:	000000e1 	andeq	r0, r0, r1, ror #1
    18dc:	3f050203 	svccc	0x00050203
    18e0:	03000000 	movweq	r0, #0
    18e4:	00a20504 	adceq	r0, r2, r4, lsl #10
    18e8:	08030000 	stmdaeq	r3, {}	; <UNPREDICTABLE>
    18ec:	00009d05 	andeq	r9, r0, r5, lsl #26
    18f0:	08010300 	stmdaeq	r1, {r8, r9}
    18f4:	000000df 	ldrdeq	r0, [r0], -pc	; <UNPREDICTABLE>
    18f8:	1d070203 	sfmne	f0, 4, [r7, #-12]
    18fc:	03000001 	movweq	r0, #1
    1900:	00fa0704 	rscseq	r0, sl, r4, lsl #14
    1904:	08030000 	stmdaeq	r3, {}	; <UNPREDICTABLE>
    1908:	0000f507 	andeq	pc, r0, r7, lsl #10
    190c:	00250400 	eoreq	r0, r5, r0, lsl #8
    1910:	007a0000 	rsbseq	r0, sl, r0
    1914:	25050000 	strcs	r0, [r5, #-0]
    1918:	00000000 	andeq	r0, r0, r0
    191c:	00004e06 	andeq	r4, r0, r6, lsl #28
    1920:	0e1c0200 	cdpeq	2, 1, cr0, cr12, cr0, {0}
    1924:	00000086 	andeq	r0, r0, r6, lsl #1
    1928:	006b0407 	rsbeq	r0, fp, r7, lsl #8
    192c:	25040000 	strcs	r0, [r4, #-0]
    1930:	9b000000 	blls	1938 <__code_start__-0x66c8>
    1934:	05000000 	streq	r0, [r0, #-0]
    1938:	0000009b 	muleq	r0, fp, r0
    193c:	a8040700 	stmdage	r4, {r8, r9, sl}
    1940:	03000000 	movweq	r0, #0
    1944:	00e80801 	rsceq	r0, r8, r1, lsl #16
    1948:	a1080000 	mrsge	r0, (UNDEF: 8)
    194c:	06000000 	streq	r0, [r0], -r0
    1950:	00000467 	andeq	r0, r0, r7, ror #8
    1954:	b90e2102 	stmdblt	lr, {r1, r8, sp}
    1958:	07000000 	streq	r0, [r0, -r0]
    195c:	00008c04 	andeq	r8, r0, r4, lsl #24
    1960:	00620900 	rsbeq	r0, r2, r0, lsl #18
    1964:	04010000 	streq	r0, [r1], #-0
    1968:	008b1c06 	addeq	r1, fp, r6, lsl #24
    196c:	00002c00 	andeq	r2, r0, r0, lsl #24
    1970:	0e9c0100 	fmleqe	f0, f4, f0
    1974:	0a000001 	beq	1980 <__code_start__-0x6680>
    1978:	00008b30 	andeq	r8, r0, r0, lsr fp
    197c:	000000e8 	andeq	r0, r0, r8, ror #1
    1980:	0550010b 	ldrbeq	r0, [r0, #-267]	; 0xfffffef5
    1984:	00919803 	addseq	r9, r1, r3, lsl #16
    1988:	340c0000 	strcc	r0, [ip], #-0
    198c:	0e00008b 	cdpeq	0, 0, cr0, cr0, cr11, {4}
    1990:	0d000001 	stceq	0, cr0, [r0, #-4]
    1994:	00008b3c 	andeq	r8, r0, ip, lsr fp
    1998:	0000011a 	andeq	r0, r0, sl, lsl r1
    199c:	00000104 	andeq	r0, r0, r4, lsl #2
    19a0:	0150010b 	cmpeq	r0, fp, lsl #2
    19a4:	400c003a 	andmi	r0, ip, sl, lsr r0
    19a8:	2600008b 	strcs	r0, [r0], -fp, lsl #1
    19ac:	00000001 	andeq	r0, r0, r1
    19b0:	0005cf0e 	andeq	ip, r5, lr, lsl #30
    19b4:	0005cf00 	andeq	ip, r5, r0, lsl #30
    19b8:	064d0200 	strbeq	r0, [sp], -r0, lsl #4
    19bc:	0005ab0e 	andeq	sl, r5, lr, lsl #22
    19c0:	0005ab00 	andeq	sl, r5, r0, lsl #22
    19c4:	06580200 	ldrbeq	r0, [r8], -r0, lsl #4
    19c8:	0005a00e 	andeq	sl, r5, lr
    19cc:	0005a000 	andeq	sl, r5, r0
    19d0:	066b0200 	strbteq	r0, [fp], -r0, lsl #4
    19d4:	00018900 	andeq	r8, r1, r0, lsl #18
    19d8:	81000400 	tsthi	r0, r0, lsl #8
    19dc:	04000009 	streq	r0, [r0], #-9
    19e0:	00033e01 	andeq	r3, r3, r1, lsl #28
    19e4:	06050c00 	streq	r0, [r5], -r0, lsl #24
    19e8:	03170000 	tsteq	r7, #0, 0
    19ec:	8b480000 	blhi	12019f4 <__bss_end__+0x11f8444>
    19f0:	003c0000 	eorseq	r0, ip, r0
    19f4:	0e190000 	cdpeq	0, 1, cr0, cr9, cr0, {0}
    19f8:	04020000 	streq	r0, [r2], #-0
    19fc:	746e6905 	strbtvc	r6, [lr], #-2309	; 0xfffff6fb
    1a00:	07040300 	streq	r0, [r4, -r0, lsl #6]
    1a04:	000000ff 	strdeq	r0, [r0], -pc	; <UNPREDICTABLE>
    1a08:	e1060103 	tst	r6, r3, lsl #2
    1a0c:	03000000 	movweq	r0, #0
    1a10:	003f0502 	eorseq	r0, pc, r2, lsl #10
    1a14:	04030000 	streq	r0, [r3], #-0
    1a18:	0000a205 	andeq	sl, r0, r5, lsl #4
    1a1c:	05080300 	streq	r0, [r8, #-768]	; 0xfffffd00
    1a20:	0000009d 	muleq	r0, sp, r0
    1a24:	df080103 	svcle	0x00080103
    1a28:	03000000 	movweq	r0, #0
    1a2c:	011d0702 	tsteq	sp, r2, lsl #14
    1a30:	04030000 	streq	r0, [r3], #-0
    1a34:	0000fa07 	andeq	pc, r0, r7, lsl #20
    1a38:	07080300 	streq	r0, [r8, -r0, lsl #6]
    1a3c:	000000f5 	strdeq	r0, [r0], -r5
    1a40:	00002504 	andeq	r2, r0, r4, lsl #10
    1a44:	00007a00 	andeq	r7, r0, r0, lsl #20
    1a48:	00250500 	eoreq	r0, r5, r0, lsl #10
    1a4c:	06000000 	streq	r0, [r0], -r0
    1a50:	0000004e 	andeq	r0, r0, lr, asr #32
    1a54:	860e1c02 	strhi	r1, [lr], -r2, lsl #24
    1a58:	07000000 	streq	r0, [r0, -r0]
    1a5c:	00006b04 	andeq	r6, r0, r4, lsl #22
    1a60:	00250400 	eoreq	r0, r5, r0, lsl #8
    1a64:	009b0000 	addseq	r0, fp, r0
    1a68:	9b050000 	blls	141a70 <__bss_end__+0x1384c0>
    1a6c:	00000000 	andeq	r0, r0, r0
    1a70:	00a80407 	adceq	r0, r8, r7, lsl #8
    1a74:	01030000 	mrseq	r0, (UNDEF: 3)
    1a78:	0000e808 	andeq	lr, r0, r8, lsl #16
    1a7c:	00a10800 	adceq	r0, r1, r0, lsl #16
    1a80:	67060000 	strvs	r0, [r6, -r0]
    1a84:	02000004 	andeq	r0, r0, #4, 0
    1a88:	00b90e21 	adcseq	r0, r9, r1, lsr #28
    1a8c:	04070000 	streq	r0, [r7], #-0
    1a90:	0000008c 	andeq	r0, r0, ip, lsl #1
    1a94:	0005dd09 	andeq	sp, r5, r9, lsl #26
    1a98:	06040100 	streq	r0, [r4], -r0, lsl #2
    1a9c:	00008b48 	andeq	r8, r0, r8, asr #22
    1aa0:	0000003c 	andeq	r0, r0, ip, lsr r0
    1aa4:	01549c01 	cmpeq	r4, r1, lsl #24
    1aa8:	ad060000 	stcge	0, cr0, [r6, #-0]
    1aac:	01000004 	tsteq	r0, r4
    1ab0:	00251005 	eoreq	r1, r5, r5
    1ab4:	d6060000 	strle	r0, [r6], -r0
    1ab8:	01000004 	tsteq	r0, r4
    1abc:	00251f05 	eoreq	r1, r5, r5, lsl #30
    1ac0:	150a0000 	strne	r0, [sl, #-0]
    1ac4:	01000001 	tsteq	r0, r1
    1ac8:	620b0706 	andvs	r0, fp, #1572864	; 0x180000
    1acc:	01007373 	tsteq	r0, r3, ror r3
    1ad0:	01540a0a 	cmpeq	r4, sl, lsl #20
    1ad4:	10d70000 	sbcsne	r0, r7, r0
    1ad8:	10d10000 	sbcsne	r0, r1, r0
    1adc:	e50c0000 	str	r0, [ip, #-0]
    1ae0:	01000005 	tsteq	r0, r5
    1ae4:	01540a0b 	cmpeq	r4, fp, lsl #20
    1ae8:	6c0d0000 	stcvs	0, cr0, [sp], {-0}
    1aec:	0800008b 	stmdaeq	r0, {r0, r1, r3, r7}
    1af0:	2f000000 	svccs	0x00000000
    1af4:	0e000001 	cdpeq	0, 0, cr0, cr0, cr1, {0}
    1af8:	01006e69 	tsteq	r0, r9, ror #28
    1afc:	002c0514 	eoreq	r0, ip, r4, lsl r5
    1b00:	00010000 	andeq	r0, r1, r0
    1b04:	008b500f 	addeq	r5, fp, pc
    1b08:	00015a00 	andeq	r5, r1, r0, lsl #20
    1b0c:	8b6c0f00 	blhi	1b05714 <__bss_end__+0x1afc164>
    1b10:	01670000 	cmneq	r7, r0
    1b14:	780f0000 	stmdavc	pc, {}	; <UNPREDICTABLE>
    1b18:	7300008b 	movwvc	r0, #139	; 0x8b
    1b1c:	0f000001 	svceq	0x00000001
    1b20:	00008b7c 	andeq	r8, r0, ip, ror fp
    1b24:	00000180 	andeq	r0, r0, r0, lsl #3
    1b28:	25040700 	strcs	r0, [r4, #-1792]	; 0xfffff900
    1b2c:	10000000 	andne	r0, r0, r0
    1b30:	000005f7 	strdeq	r0, [r0], -r7
    1b34:	000005f7 	strdeq	r0, [r0], -r7
    1b38:	06013102 	streq	r3, [r1], -r2, lsl #2
    1b3c:	0005ed11 	andeq	lr, r5, r1, lsl sp
    1b40:	0005ed00 	andeq	lr, r5, r0, lsl #26
    1b44:	063b0200 	ldrteq	r0, [fp], -r0, lsl #4
    1b48:	00011510 	andeq	r1, r1, r0, lsl r5
    1b4c:	00011500 	andeq	r1, r1, r0, lsl #10
    1b50:	01050200 	mrseq	r0, SP_usr
    1b54:	00621106 	rsbeq	r1, r2, r6, lsl #2
    1b58:	00620000 	rsbeq	r0, r2, r0
    1b5c:	6e020000 	cdpvs	0, 0, cr0, cr2, cr0, {0}
    1b60:	00ce0006 	sbceq	r0, lr, r6
    1b64:	00040000 	andeq	r0, r4, r0
    1b68:	00000a7d 	andeq	r0, r0, sp, ror sl
    1b6c:	033e0104 	teqeq	lr, #1
    1b70:	1a0c0000 	bne	301b78 <__bss_end__+0x2f85c8>
    1b74:	17000006 	strne	r0, [r0, -r6]
    1b78:	84000003 	strhi	r0, [r0], #-3
    1b7c:	0400008b 	streq	r0, [r0], #-139	; 0xffffff75
    1b80:	b6000000 	strlt	r0, [r0], -r0
    1b84:	0200000e 	andeq	r0, r0, #14, 0
    1b88:	6e690504 	cdpvs	5, 6, cr0, cr9, cr4, {0}
    1b8c:	04030074 	streq	r0, [r3], #-116	; 0xffffff8c
    1b90:	0000ff07 	andeq	pc, r0, r7, lsl #30
    1b94:	06010300 	streq	r0, [r1], -r0, lsl #6
    1b98:	000000e1 	andeq	r0, r0, r1, ror #1
    1b9c:	3f050203 	svccc	0x00050203
    1ba0:	03000000 	movweq	r0, #0
    1ba4:	00a20504 	adceq	r0, r2, r4, lsl #10
    1ba8:	08030000 	stmdaeq	r3, {}	; <UNPREDICTABLE>
    1bac:	00009d05 	andeq	r9, r0, r5, lsl #26
    1bb0:	08010300 	stmdaeq	r1, {r8, r9}
    1bb4:	000000df 	ldrdeq	r0, [r0], -pc	; <UNPREDICTABLE>
    1bb8:	1d070203 	sfmne	f0, 4, [r7, #-12]
    1bbc:	03000001 	movweq	r0, #1
    1bc0:	00fa0704 	rscseq	r0, sl, r4, lsl #14
    1bc4:	08030000 	stmdaeq	r3, {}	; <UNPREDICTABLE>
    1bc8:	0000f507 	andeq	pc, r0, r7, lsl #10
    1bcc:	00250400 	eoreq	r0, r5, r0, lsl #8
    1bd0:	007a0000 	rsbseq	r0, sl, r0
    1bd4:	25050000 	strcs	r0, [r5, #-0]
    1bd8:	00000000 	andeq	r0, r0, r0
    1bdc:	00004e06 	andeq	r4, r0, r6, lsl #28
    1be0:	0e1c0200 	cdpeq	2, 1, cr0, cr12, cr0, {0}
    1be4:	00000086 	andeq	r0, r0, r6, lsl #1
    1be8:	006b0407 	rsbeq	r0, fp, r7, lsl #8
    1bec:	25040000 	strcs	r0, [r4, #-0]
    1bf0:	9b000000 	blls	1bf8 <__code_start__-0x6408>
    1bf4:	05000000 	streq	r0, [r0, #-0]
    1bf8:	0000009b 	muleq	r0, fp, r0
    1bfc:	a8040700 	stmdage	r4, {r8, r9, sl}
    1c00:	03000000 	movweq	r0, #0
    1c04:	00e80801 	rsceq	r0, r8, r1, lsl #16
    1c08:	a1080000 	mrsge	r0, (UNDEF: 8)
    1c0c:	06000000 	streq	r0, [r0], -r0
    1c10:	00000467 	andeq	r0, r0, r7, ror #8
    1c14:	b90e2102 	stmdblt	lr, {r1, r8, sp}
    1c18:	07000000 	streq	r0, [r0, -r0]
    1c1c:	00008c04 	andeq	r8, r0, r4, lsl #24
    1c20:	05f70900 	ldrbeq	r0, [r7, #2304]!	; 0x900
    1c24:	04010000 	streq	r0, [r1], #-0
    1c28:	008b8406 	addeq	r8, fp, r6, lsl #8
    1c2c:	00000400 	andeq	r0, r0, r0, lsl #8
    1c30:	009c0100 	addseq	r0, ip, r0, lsl #2
    1c34:	00000236 	andeq	r0, r0, r6, lsr r2
    1c38:	0af60004 	beq	ffd81c50 <__bss_end__+0xffd786a0>
    1c3c:	01040000 	mrseq	r0, (UNDEF: 4)
    1c40:	0000033e 	andeq	r0, r0, lr, lsr r3
    1c44:	00065c0c 	andeq	r5, r6, ip, lsl #24
    1c48:	00031700 	andeq	r1, r3, r0, lsl #14
    1c4c:	00017800 	andeq	r7, r1, r0, lsl #16
    1c50:	00000000 	andeq	r0, r0, r0
    1c54:	000f3700 	andeq	r3, pc, r0, lsl #14
    1c58:	05040200 	streq	r0, [r4, #-512]	; 0xfffffe00
    1c5c:	00746e69 	rsbseq	r6, r4, r9, ror #28
    1c60:	00002503 	andeq	r2, r0, r3, lsl #10
    1c64:	07040400 	streq	r0, [r4, -r0, lsl #8]
    1c68:	000000ff 	strdeq	r0, [r0], -pc	; <UNPREDICTABLE>
    1c6c:	e1060104 	tst	r6, r4, lsl #2
    1c70:	04000000 	streq	r0, [r0], #-0
    1c74:	003f0502 	eorseq	r0, pc, r2, lsl #10
    1c78:	04040000 	streq	r0, [r4], #-0
    1c7c:	0000a205 	andeq	sl, r0, r5, lsl #4
    1c80:	05080400 	streq	r0, [r8, #-1024]	; 0xfffffc00
    1c84:	0000009d 	muleq	r0, sp, r0
    1c88:	df080104 	svcle	0x00080104
    1c8c:	04000000 	streq	r0, [r0], #-0
    1c90:	011d0702 	tsteq	sp, r2, lsl #14
    1c94:	04040000 	streq	r0, [r4], #-0
    1c98:	0000fa07 	andeq	pc, r0, r7, lsl #20
    1c9c:	07080400 	streq	r0, [r8, -r0, lsl #8]
    1ca0:	000000f5 	strdeq	r0, [r0], -r5
    1ca4:	00002505 	andeq	r2, r0, r5, lsl #10
    1ca8:	00007f00 	andeq	r7, r0, r0, lsl #30
    1cac:	00250600 	eoreq	r0, r5, r0, lsl #12
    1cb0:	07000000 	streq	r0, [r0, -r0]
    1cb4:	0000004e 	andeq	r0, r0, lr, asr #32
    1cb8:	8b0e1c02 	blhi	388cc8 <__bss_end__+0x37f718>
    1cbc:	08000000 	stmdaeq	r0, {}	; <UNPREDICTABLE>
    1cc0:	00007004 	andeq	r7, r0, r4
    1cc4:	00250500 	eoreq	r0, r5, r0, lsl #10
    1cc8:	00a00000 	adceq	r0, r0, r0
    1ccc:	a0060000 	andge	r0, r6, r0
    1cd0:	00000000 	andeq	r0, r0, r0
    1cd4:	00ad0408 	adceq	r0, sp, r8, lsl #8
    1cd8:	01040000 	mrseq	r0, (UNDEF: 4)
    1cdc:	0000e808 	andeq	lr, r0, r8, lsl #16
    1ce0:	00a60300 	adceq	r0, r6, r0, lsl #6
    1ce4:	67070000 	strvs	r0, [r7, -r0]
    1ce8:	02000004 	andeq	r0, r0, #4, 0
    1cec:	00be0e21 	adcseq	r0, lr, r1, lsr #28
    1cf0:	04080000 	streq	r0, [r8], #-0
    1cf4:	00000091 	muleq	r0, r1, r0
    1cf8:	00068009 	andeq	r8, r6, r9
    1cfc:	110d0100 	mrsne	r0, (UNDEF: 29)
    1d00:	00000031 	andeq	r0, r0, r1, lsr r0
    1d04:	0005a00a 	andeq	sl, r5, sl
    1d08:	061f0100 	ldreq	r0, [pc], -r0, lsl #2
    1d0c:	00008bb4 			; <UNDEFINED> instruction: 0x00008bb4
    1d10:	00000054 	andeq	r0, r0, r4, asr r0
    1d14:	01ae9c01 			; <UNDEFINED> instruction: 0x01ae9c01
    1d18:	a40b0000 	strge	r0, [fp], #-0
    1d1c:	01000006 	tsteq	r0, r6
    1d20:	002c0f2c 	eoreq	r0, ip, ip, lsr #30
    1d24:	11040000 	mrsne	r0, (UNDEF: 4)
    1d28:	11020000 	mrsne	r0, (UNDEF: 2)
    1d2c:	450b0000 	strmi	r0, [fp, #-0]
    1d30:	01000006 	tsteq	r0, r6
    1d34:	002c0f2d 	eoreq	r0, ip, sp, lsr #30
    1d38:	111e0000 	tstne	lr, r0
    1d3c:	111c0000 	tstne	ip, r0
    1d40:	710b0000 	mrsvc	r0, (UNDEF: 11)
    1d44:	01000006 	tsteq	r0, r6
    1d48:	002c0f2e 	eoreq	r0, ip, lr, lsr #30
    1d4c:	11380000 	teqne	r8, r0
    1d50:	11360000 	teqne	r6, r0
    1d54:	8b0b0000 	blhi	2c1d5c <__bss_end__+0x2b87ac>
    1d58:	01000006 	tsteq	r0, r6
    1d5c:	002c0f2f 	eoreq	r0, ip, pc, lsr #30
    1d60:	11510000 	cmpne	r1, r0
    1d64:	114f0000 	mrsne	r0, SPSR
    1d68:	bc0c0000 	stclt	0, cr0, [ip], {-0}
    1d6c:	d900008b 	stmdble	r0, {r0, r1, r3, r7}
    1d70:	0c000001 	stceq	0, cr0, [r0], {1}
    1d74:	00008bc8 	andeq	r8, r0, r8, asr #23
    1d78:	00000208 	andeq	r0, r0, r8, lsl #4
    1d7c:	008bcc0c 	addeq	ip, fp, ip, lsl #24
    1d80:	00021500 	andeq	r1, r2, r0, lsl #10
    1d84:	8bd40d00 	blhi	ff50518c <__bss_end__+0xff4fbbdc>
    1d88:	02210000 	eoreq	r0, r1, #0, 0
    1d8c:	01640000 	cmneq	r4, r0
    1d90:	010e0000 	mrseq	r0, (UNDEF: 14)
    1d94:	003a0150 	eorseq	r0, sl, r0, asr r1
    1d98:	008be00d 	addeq	lr, fp, sp
    1d9c:	00022d00 	andeq	r2, r2, r0, lsl #26
    1da0:	00018400 	andeq	r8, r1, r0, lsl #8
    1da4:	50010e00 	andpl	r0, r1, r0, lsl #28
    1da8:	00240c05 	eoreq	r0, r4, r5, lsl #24
    1dac:	010e2010 	tsteq	lr, r0, lsl r0
    1db0:	010c0551 	tsteq	ip, r1, asr r5
    1db4:	005a0000 	subseq	r0, sl, r0
    1db8:	008bec0d 	addeq	lr, fp, sp, lsl #24
    1dbc:	00022d00 	andeq	r2, r2, r0, lsl #26
    1dc0:	0001a400 	andeq	sl, r1, r0, lsl #8
    1dc4:	50010e00 	andpl	r0, r1, r0, lsl #28
    1dc8:	001c0c05 	andseq	r0, ip, r5, lsl #24
    1dcc:	010e2010 	tsteq	lr, r0, lsl r0
    1dd0:	200c0551 	andcs	r0, ip, r1, asr r5
    1dd4:	005a0000 	subseq	r0, sl, r0
    1dd8:	008bf40c 	addeq	pc, fp, ip, lsl #8
    1ddc:	0001ae00 	andeq	sl, r1, r0, lsl #28
    1de0:	4d0f0000 	stcmi	0, cr0, [pc, #-0]	; 1de8 <__code_start__-0x6218>
    1de4:	01000006 	tsteq	r0, r6
    1de8:	8ba00617 	blhi	fe80364c <__bss_end__+0xfe7fa09c>
    1dec:	00140000 	andseq	r0, r4, r0
    1df0:	9c010000 	stcls	0, cr0, [r1], {-0}
    1df4:	000001d9 	ldrdeq	r0, [r0], -r9
    1df8:	0006ac0b 	andeq	sl, r6, fp, lsl #24
    1dfc:	0e180100 	mufeqe	f0, f0, f0
    1e00:	00000031 	andeq	r0, r0, r1, lsr r0
    1e04:	0000116c 	andeq	r1, r0, ip, ror #2
    1e08:	00001166 	andeq	r1, r0, r6, ror #2
    1e0c:	067d1000 	ldrbteq	r1, [sp], -r0
    1e10:	0e010000 	cdpeq	0, 0, cr0, cr1, cr0, {0}
    1e14:	00002505 	andeq	r2, r0, r5, lsl #10
    1e18:	008b8800 	addeq	r8, fp, r0, lsl #16
    1e1c:	00001800 	andeq	r1, r0, r0, lsl #16
    1e20:	089c0100 	ldmeq	ip, {r8}
    1e24:	0b000002 	bleq	1e34 <__code_start__-0x61cc>
    1e28:	000006ac 	andeq	r0, r0, ip, lsr #13
    1e2c:	310e0f01 	tstcc	lr, r1, lsl #30
    1e30:	9a000000 	bls	1e38 <__code_start__-0x61c8>
    1e34:	96000011 			; <UNDEFINED> instruction: 0x96000011
    1e38:	00000011 	andeq	r0, r0, r1, lsl r0
    1e3c:	00063611 	andeq	r3, r6, r1, lsl r6
    1e40:	00063600 	andeq	r3, r6, r0, lsl #12
    1e44:	01360200 	teqeq	r6, r0, lsl #4
    1e48:	05cf1206 	strbeq	r1, [pc, #518]	; 2056 <__code_start__-0x5faa>
    1e4c:	05cf0000 	strbeq	r0, [pc]	; 1e54 <__code_start__-0x61ac>
    1e50:	4d020000 	stcmi	0, cr0, [r2, #-0]
    1e54:	05ab1206 	streq	r1, [fp, #518]!	; 0x206
    1e58:	05ab0000 	streq	r0, [fp, #0]!
    1e5c:	58020000 	stmdapl	r2, {}	; <UNPREDICTABLE>
    1e60:	026c1206 	rsbeq	r1, ip, #1610612736	; 0x60000000
    1e64:	026c0000 	rsbeq	r0, ip, #0, 0
    1e68:	ad020000 	stcge	0, cr0, [r2, #-0]
    1e6c:	024d0006 	subeq	r0, sp, #6, 0
    1e70:	00040000 	andeq	r0, r4, r0
    1e74:	00000c1b 	andeq	r0, r0, fp, lsl ip
    1e78:	033e0104 	teqeq	lr, #1
    1e7c:	c70c0000 	strgt	r0, [ip, -r0]
    1e80:	17000006 	strne	r0, [r0, -r6]
    1e84:	08000003 	stmdaeq	r0, {r0, r1}
    1e88:	8400008c 	strhi	r0, [r0], #-140	; 0xffffff74
    1e8c:	08000000 	stmdaeq	r0, {}	; <UNPREDICTABLE>
    1e90:	02000010 	andeq	r0, r0, #16, 0
    1e94:	6e690504 	cdpvs	5, 6, cr0, cr9, cr4, {0}
    1e98:	04030074 	streq	r0, [r3], #-116	; 0xffffff8c
    1e9c:	0000ff07 	andeq	pc, r0, r7, lsl #30
    1ea0:	06010300 	streq	r0, [r1], -r0, lsl #6
    1ea4:	000000e1 	andeq	r0, r0, r1, ror #1
    1ea8:	3f050203 	svccc	0x00050203
    1eac:	03000000 	movweq	r0, #0
    1eb0:	00a20504 	adceq	r0, r2, r4, lsl #10
    1eb4:	08030000 	stmdaeq	r3, {}	; <UNPREDICTABLE>
    1eb8:	00009d05 	andeq	r9, r0, r5, lsl #26
    1ebc:	08010300 	stmdaeq	r1, {r8, r9}
    1ec0:	000000df 	ldrdeq	r0, [r0], -pc	; <UNPREDICTABLE>
    1ec4:	1d070203 	sfmne	f0, 4, [r7, #-12]
    1ec8:	03000001 	movweq	r0, #1
    1ecc:	00fa0704 	rscseq	r0, sl, r4, lsl #14
    1ed0:	08030000 	stmdaeq	r3, {}	; <UNPREDICTABLE>
    1ed4:	0000f507 	andeq	pc, r0, r7, lsl #10
    1ed8:	00250400 	eoreq	r0, r5, r0, lsl #8
    1edc:	007a0000 	rsbseq	r0, sl, r0
    1ee0:	25050000 	strcs	r0, [r5, #-0]
    1ee4:	00000000 	andeq	r0, r0, r0
    1ee8:	00004e06 	andeq	r4, r0, r6, lsl #28
    1eec:	0e1c0200 	cdpeq	2, 1, cr0, cr12, cr0, {0}
    1ef0:	00000086 	andeq	r0, r0, r6, lsl #1
    1ef4:	006b0407 	rsbeq	r0, fp, r7, lsl #8
    1ef8:	25040000 	strcs	r0, [r4, #-0]
    1efc:	9b000000 	blls	1f04 <__code_start__-0x60fc>
    1f00:	05000000 	streq	r0, [r0, #-0]
    1f04:	0000009b 	muleq	r0, fp, r0
    1f08:	a8040700 	stmdage	r4, {r8, r9, sl}
    1f0c:	03000000 	movweq	r0, #0
    1f10:	00e80801 	rsceq	r0, r8, r1, lsl #16
    1f14:	a1080000 	mrsge	r0, (UNDEF: 8)
    1f18:	06000000 	streq	r0, [r0], -r0
    1f1c:	00000467 	andeq	r0, r0, r7, ror #8
    1f20:	b90e2102 	stmdblt	lr, {r1, r8, sp}
    1f24:	07000000 	streq	r0, [r0, -r0]
    1f28:	00008c04 	andeq	r8, r0, r4, lsl #24
    1f2c:	06bd0900 	ldrteq	r0, [sp], r0, lsl #18
    1f30:	1e010000 	cdpne	0, 0, cr0, cr1, cr0, {0}
    1f34:	008c7406 	addeq	r7, ip, r6, lsl #8
    1f38:	00001800 	andeq	r1, r0, r0, lsl #16
    1f3c:	099c0100 	ldmibeq	ip, {r8}
    1f40:	0a000001 	beq	1f4c <__code_start__-0x60b4>
    1f44:	00636573 	rsbeq	r6, r3, r3, ror r5
    1f48:	2c191e01 	ldccs	14, cr1, [r9], {1}
    1f4c:	bd000000 	stclt	0, cr0, [r0, #-0]
    1f50:	b9000011 	stmdblt	r0, {r0, r4}
    1f54:	0b000011 	bleq	1fa0 <__code_start__-0x6060>
    1f58:	00008c88 	andeq	r8, r0, r8, lsl #25
    1f5c:	00000109 	andeq	r0, r0, r9, lsl #2
    1f60:	1150010c 	cmpne	r0, ip, lsl #2
    1f64:	355001f3 	ldrbcc	r0, [r0, #-499]	; 0xfffffe0d
    1f68:	5001f324 	andpl	pc, r1, r4, lsr #6
    1f6c:	f324321c 	vqsub.u32	d3, d4, d12
    1f70:	33225001 			; <UNDEFINED> instruction: 0x33225001
    1f74:	09000024 	stmdbeq	r0, {r2, r5}
    1f78:	000005ab 	andeq	r0, r0, fp, lsr #11
    1f7c:	5c061b01 			; <UNDEFINED> instruction: 0x5c061b01
    1f80:	1800008c 	stmdane	r0, {r2, r3, r7}
    1f84:	01000000 	mrseq	r0, (UNDEF: 0)
    1f88:	0001529c 	muleq	r1, ip, r2
    1f8c:	736d0a00 	cmnvc	sp, #0, 20
    1f90:	181b0100 	ldmdane	fp, {r8}
    1f94:	0000002c 	andeq	r0, r0, ip, lsr #32
    1f98:	000011e2 	andeq	r1, r0, r2, ror #3
    1f9c:	000011de 	ldrdeq	r1, [r0], -lr
    1fa0:	008c700b 	addeq	r7, ip, fp
    1fa4:	00015200 	andeq	r5, r1, r0, lsl #4
    1fa8:	50010c00 	andpl	r0, r1, r0, lsl #24
    1fac:	5001f311 	andpl	pc, r1, r1, lsl r3	; <UNPREDICTABLE>
    1fb0:	01f32435 	mvnseq	r2, r5, lsr r4
    1fb4:	24321c50 	ldrtcs	r1, [r2], #-3152	; 0xfffff3b0
    1fb8:	225001f3 	subscs	r0, r0, #-1073741764	; 0xc000003c
    1fbc:	00002433 	andeq	r2, r0, r3, lsr r4
    1fc0:	0006ea09 	andeq	lr, r6, r9, lsl #20
    1fc4:	06120100 	ldreq	r0, [r2], -r0, lsl #2
    1fc8:	00008c38 	andeq	r8, r0, r8, lsr ip
    1fcc:	00000024 	andeq	r0, r0, r4, lsr #32
    1fd0:	01c29c01 	biceq	r9, r2, r1, lsl #24
    1fd4:	750a0000 	strvc	r0, [sl, #-0]
    1fd8:	12010073 	andne	r0, r1, #115, 0	; 0x73
    1fdc:	00002c18 	andeq	r2, r0, r8, lsl ip
    1fe0:	00120700 	andseq	r0, r2, r0, lsl #14
    1fe4:	00120300 	andseq	r0, r2, r0, lsl #6
    1fe8:	62720d00 	rsbsvs	r0, r2, #0, 26
    1fec:	0e130100 	mufeqs	f0, f3, f0
    1ff0:	0000002c 	andeq	r0, r0, ip, lsr #32
    1ff4:	00001227 	andeq	r1, r0, r7, lsr #4
    1ff8:	00001225 	andeq	r1, r0, r5, lsr #4
    1ffc:	008c480e 	addeq	r4, ip, lr, lsl #16
    2000:	00001400 	andeq	r1, r0, r0, lsl #8
    2004:	0001b800 	andeq	fp, r1, r0, lsl #16
    2008:	61720d00 	cmnvs	r2, r0, lsl #26
    200c:	12150100 	andsne	r0, r5, #0
    2010:	0000002c 	andeq	r0, r0, ip, lsr #32
    2014:	0000123c 	andeq	r1, r0, ip, lsr r2
    2018:	0000123a 	andeq	r1, r0, sl, lsr r2
    201c:	008c4c0f 	addeq	r4, ip, pc, lsl #24
    2020:	0001c200 	andeq	ip, r1, r0, lsl #4
    2024:	440f0000 	strmi	r0, [pc], #-0	; 202c <__code_start__-0x5fd4>
    2028:	c200008c 	andgt	r0, r0, #140, 0	; 0x8c
    202c:	00000001 	andeq	r0, r0, r1
    2030:	0006db10 	andeq	sp, r6, r0, lsl fp
    2034:	0a090100 	beq	24243c <__bss_end__+0x238e8c>
    2038:	0000002c 	andeq	r0, r0, ip, lsr #32
    203c:	00008c1c 	andeq	r8, r0, ip, lsl ip
    2040:	0000001c 	andeq	r0, r0, ip, lsl r0
    2044:	020a9c01 	andeq	r9, sl, #256	; 0x100
    2048:	750d0000 	strvc	r0, [sp, #-0]
    204c:	0e0d0100 	adfeqe	f0, f5, f0
    2050:	0000002c 	andeq	r0, r0, ip, lsr #32
    2054:	00001253 	andeq	r1, r0, r3, asr r2
    2058:	0000124f 	andeq	r1, r0, pc, asr #4
    205c:	008c240f 	addeq	r2, ip, pc, lsl #8
    2060:	00023800 	andeq	r3, r2, r0, lsl #16
    2064:	8c280f00 	stchi	15, cr0, [r8], #-0
    2068:	020a0000 	andeq	r0, sl, #0, 0
    206c:	300f0000 	andcc	r0, pc, r0
    2070:	3800008c 	stmdacc	r0, {r2, r3, r7}
    2074:	00000002 	andeq	r0, r0, r2
    2078:	0006f310 	andeq	pc, r6, r0, lsl r3	; <UNPREDICTABLE>
    207c:	0a040100 	beq	102484 <__bss_end__+0xf8ed4>
    2080:	0000002c 	andeq	r0, r0, ip, lsr #32
    2084:	00008c08 	andeq	r8, r0, r8, lsl #24
    2088:	00000014 	andeq	r0, r0, r4, lsl r0
    208c:	02389c01 	eorseq	r9, r8, #256	; 0x100
    2090:	140b0000 	strne	r0, [fp], #-0
    2094:	4400008c 	strmi	r0, [r0], #-140	; 0xffffff74
    2098:	0c000002 	stceq	0, cr0, [r0], {2}
    209c:	0c055001 	stceq	0, cr5, [r5], {1}
    20a0:	20003004 	andcs	r3, r0, r4
    20a4:	b1110000 	tstlt	r1, r0
    20a8:	b1000006 	tstlt	r0, r6
    20ac:	02000006 	andeq	r0, r0, #6, 0
    20b0:	7c11069c 	ldcvc	6, cr0, [r1], {156}	; 0x9c
    20b4:	7c000002 	stcvc	0, cr0, [r0], {2}
    20b8:	02000002 	andeq	r0, r0, #2, 0
    20bc:	cd000ac2 	vstrgt	s0, [r0, #-776]	; 0xfffffcf8
    20c0:	04000005 	streq	r0, [r0], #-5
    20c4:	000d1c00 	andeq	r1, sp, r0, lsl #24
    20c8:	73010400 	movwvc	r0, #5120	; 0x1400
    20cc:	0c000007 	stceq	0, cr0, [r0], {7}
    20d0:	00000722 	andeq	r0, r0, r2, lsr #14
    20d4:	00000842 	andeq	r0, r0, r2, asr #16
    20d8:	00008c8c 	andeq	r8, r0, ip, lsl #25
    20dc:	000001f0 	strdeq	r0, [r0], -r0	; <UNPREDICTABLE>
    20e0:	000010e0 	andeq	r1, r0, r0, ror #1
    20e4:	69050402 	stmdbvs	r5, {r1, sl}
    20e8:	0300746e 	movweq	r7, #1134	; 0x46e
    20ec:	00ff0704 	rscseq	r0, pc, r4, lsl #14
    20f0:	2c040000 	stccs	0, cr0, [r4], {-0}
    20f4:	03000000 	movweq	r0, #0
    20f8:	00e10601 	rsceq	r0, r1, r1, lsl #12
    20fc:	02030000 	andeq	r0, r3, #0, 0
    2100:	00003f05 	andeq	r3, r0, r5, lsl #30
    2104:	05040300 	streq	r0, [r4, #-768]	; 0xfffffd00
    2108:	000000a2 	andeq	r0, r0, r2, lsr #1
    210c:	9d050803 	stcls	8, cr0, [r5, #-12]
    2110:	03000000 	movweq	r0, #0
    2114:	00df0801 	sbcseq	r0, pc, r1, lsl #16
    2118:	02030000 	andeq	r0, r3, #0, 0
    211c:	00011d07 	andeq	r1, r1, r7, lsl #26
    2120:	010c0500 	tsteq	ip, r0, lsl #10
    2124:	34050000 	strcc	r0, [r5], #-0
    2128:	00006e19 	andeq	r6, r0, r9, lsl lr
    212c:	07040300 	streq	r0, [r4, -r0, lsl #6]
    2130:	000000fa 	strdeq	r0, [r0], -sl
    2134:	f5070803 			; <UNDEFINED> instruction: 0xf5070803
    2138:	03000000 	movweq	r0, #0
    213c:	00e80801 	rsceq	r0, r8, r1, lsl #16
    2140:	07060000 	streq	r0, [r6, -r0]
    2144:	00005401 	andeq	r5, r0, r1, lsl #8
    2148:	0e0c0400 	cfcpyseq	mvf0, mvf12
    214c:	000000c2 	andeq	r0, r0, r2, asr #1
    2150:	0003f307 	andeq	pc, r3, r7, lsl #6
    2154:	51070000 	mrspl	r0, (UNDEF: 7)
    2158:	01000002 	tsteq	r0, r2
    215c:	00028207 	andeq	r8, r2, r7, lsl #4
    2160:	91070400 	tstls	r7, r0, lsl #8
    2164:	05000002 	streq	r0, [r0, #-2]
    2168:	0002a007 	andeq	sl, r2, r7
    216c:	af070600 	svcge	0x00070600
    2170:	07000002 	streq	r0, [r0, -r2]
    2174:	00030807 	andeq	r0, r3, r7, lsl #16
    2178:	be070300 	cdplt	3, 0, cr0, cr7, cr0, {0}
    217c:	02000002 	andeq	r0, r0, #2, 0
    2180:	08360800 	ldmdaeq	r6!, {fp}
    2184:	022c0000 	eoreq	r0, ip, #0, 0
    2188:	015e0806 	cmpeq	lr, r6, lsl #16
    218c:	69090000 	stmdbvs	r9, {}	; <UNPREDICTABLE>
    2190:	0902006f 	stmdbeq	r2, {r0, r1, r2, r3, r5, r6}
    2194:	00003309 	andeq	r3, r0, r9, lsl #6
    2198:	69090000 	stmdbvs	r9, {}	; <UNPREDICTABLE>
    219c:	02007265 	andeq	r7, r0, #1342177286	; 0x50000006
    21a0:	0033090a 	eorseq	r0, r3, sl, lsl #18
    21a4:	09040000 	stmdbeq	r4, {}	; <UNPREDICTABLE>
    21a8:	00726969 	rsbseq	r6, r2, r9, ror #18
    21ac:	33091102 	movwcc	r1, #37122	; 0x9102
    21b0:	08000000 	stmdaeq	r0, {}	; <UNPREDICTABLE>
    21b4:	72636c09 	rsbvc	r6, r3, #2304	; 0x900
    21b8:	09130200 	ldmdbeq	r3, {r9}
    21bc:	00000033 	andeq	r0, r0, r3, lsr r0
    21c0:	636d090c 	cmnvs	sp, #12, 18	; 0x30000
    21c4:	14020072 	strne	r0, [r2], #-114	; 0xffffff8e
    21c8:	00003309 	andeq	r3, r0, r9, lsl #6
    21cc:	6c091000 	stcvs	0, cr1, [r9], {-0}
    21d0:	02007273 	andeq	r7, r0, #805306375	; 0x30000007
    21d4:	00330915 	eorseq	r0, r3, r5, lsl r9
    21d8:	09140000 	ldmdbeq	r4, {}	; <UNPREDICTABLE>
    21dc:	0072736d 	rsbseq	r7, r2, sp, ror #6
    21e0:	33091602 	movwcc	r1, #38402	; 0x9602
    21e4:	18000000 	stmdane	r0, {}	; <UNPREDICTABLE>
    21e8:	00082e0a 	andeq	r2, r8, sl, lsl #28
    21ec:	09170200 	ldmdbeq	r7, {r9}
    21f0:	00000033 	andeq	r0, r0, r3, lsr r0
    21f4:	08060a1c 	stmdaeq	r6, {r2, r3, r4, r9, fp}
    21f8:	1b020000 	blne	82200 <__bss_end__+0x78c50>
    21fc:	00003309 	andeq	r3, r0, r9, lsl #6
    2200:	0f0a2000 	svceq	0x000a2000
    2204:	02000007 	andeq	r0, r0, #7, 0
    2208:	0033091d 	eorseq	r0, r3, sp, lsl r9
    220c:	0a240000 	beq	902214 <__bss_end__+0x8f8c64>
    2210:	00000758 	andeq	r0, r0, r8, asr r7
    2214:	33091e02 	movwcc	r1, #40450	; 0x9e02
    2218:	28000000 	stmdacs	r0, {}	; <UNPREDICTABLE>
    221c:	075d0b00 	ldrbeq	r0, [sp, -r0, lsl #22]
    2220:	08010000 	stmdaeq	r1, {}	; <UNPREDICTABLE>
    2224:	00017409 	andeq	r7, r1, r9, lsl #8
    2228:	21500400 	cmpcs	r0, r0, lsl #8
    222c:	33040c20 	movwcc	r0, #19488	; 0x4c20
    2230:	0d000000 	stceq	0, cr0, [r0, #-0]
    2234:	0000016e 	andeq	r0, r0, lr, ror #2
    2238:	0007370b 	andeq	r3, r7, fp, lsl #14
    223c:	23290100 			; <UNDEFINED> instruction: 0x23290100
    2240:	0000018f 	andeq	r0, r0, pc, lsl #3
    2244:	20215040 	eorcs	r5, r1, r0, asr #32
    2248:	00c2040c 	sbceq	r0, r2, ip, lsl #8
    224c:	890d0000 	stmdbhi	sp, {}	; <UNPREDICTABLE>
    2250:	0e000001 	cdpeq	0, 0, cr0, cr0, cr1, {0}
    2254:	000005cf 	andeq	r0, r0, pc, asr #11
    2258:	4406cc01 	strmi	ip, [r6], #-3073	; 0xfffff3ff
    225c:	1400008e 	strne	r0, [r0], #-142	; 0xffffff72
    2260:	01000000 	mrseq	r0, (UNDEF: 0)
    2264:	0001b49c 	muleq	r1, ip, r4
    2268:	8e4c0f00 	cdphi	15, 4, cr0, cr12, cr0, {0}
    226c:	01b40000 			; <UNDEFINED> instruction: 0x01b40000
    2270:	10000000 	andne	r0, r0, r0
    2274:	00000741 	andeq	r0, r0, r1, asr #14
    2278:	2505b601 	strcs	fp, [r5, #-1537]	; 0xfffff9ff
    227c:	24000000 	strcs	r0, [r0], #-0
    2280:	2000008e 	andcs	r0, r0, lr, lsl #1
    2284:	01000000 	mrseq	r0, (UNDEF: 0)
    2288:	0001eb9c 	muleq	r1, ip, fp
    228c:	8e2c0f00 	cdphi	15, 2, cr0, cr12, cr0, {0}
    2290:	05a00000 	streq	r0, [r0, #0]!
    2294:	34110000 	ldrcc	r0, [r1], #-0
    2298:	ac00008e 	stcge	0, cr0, [r0], {142}	; 0x8e
    229c:	12000005 	andne	r0, r0, #5, 0
    22a0:	0c055001 	stceq	0, cr5, [r5], {1}
    22a4:	20215064 	eorcs	r5, r1, r4, rrx
    22a8:	18100000 	ldmdane	r0, {}	; <UNPREDICTABLE>
    22ac:	01000008 	tsteq	r0, r8
    22b0:	002505b3 	strhteq	r0, [r5], -r3
    22b4:	8e140000 	cdphi	0, 1, cr0, cr4, cr0, {0}
    22b8:	00100000 	andseq	r0, r0, r0
    22bc:	9c010000 	stcls	0, cr0, [r1], {-0}
    22c0:	00000218 	andeq	r0, r0, r8, lsl r2
    22c4:	008e1c0f 	addeq	r1, lr, pc, lsl #24
    22c8:	0005a000 	andeq	sl, r5, r0
    22cc:	8e200f00 	cdphi	15, 2, cr0, cr0, cr0, {0}
    22d0:	03090000 	movweq	r0, #36864	; 0x9000
    22d4:	0e000000 	cdpeq	0, 0, cr0, cr0, cr0, {0}
    22d8:	0000087f 	andeq	r0, r0, pc, ror r8
    22dc:	e406ab01 	str	sl, [r6], #-2817	; 0xfffff4ff
    22e0:	3000008d 	andcc	r0, r0, sp, lsl #1
    22e4:	01000000 	mrseq	r0, (UNDEF: 0)
    22e8:	00027c9c 	muleq	r2, ip, ip
    22ec:	00631300 	rsbeq	r1, r3, r0, lsl #6
    22f0:	2c19ab01 			; <UNDEFINED> instruction: 0x2c19ab01
    22f4:	75000000 	strvc	r0, [r0, #-0]
    22f8:	71000012 	tstvc	r0, r2, lsl r0
    22fc:	0f000012 	svceq	0x00000012
    2300:	00008df0 	strdeq	r8, [r0], -r0
    2304:	000005a0 	andeq	r0, r0, r0, lsr #11
    2308:	008df40f 	addeq	pc, sp, pc, lsl #8
    230c:	0002db00 	andeq	sp, r2, r0, lsl #22
    2310:	8e081400 	cfcpyshi	mvf1, mvf8
    2314:	05b80000 	ldreq	r0, [r8, #0]!
    2318:	02720000 	rsbseq	r0, r2, #0, 0
    231c:	01120000 	tsteq	r2, r0
    2320:	400c0550 	andmi	r0, ip, r0, asr r5
    2324:	12202150 	eorne	r2, r0, #20
    2328:	74055101 	strvc	r5, [r5], #-257	; 0xfffffeff
    232c:	1aff0800 	bne	fffc4334 <__bss_end__+0xfffbad84>
    2330:	8e0c0f00 	cdphi	15, 0, cr0, cr12, cr0, {0}
    2334:	05a00000 	streq	r0, [r0, #0]!
    2338:	10000000 	andne	r0, r0, r0
    233c:	00000769 	andeq	r0, r0, r9, ror #14
    2340:	2505a301 	strcs	sl, [r5, #-769]	; 0xfffffcff
    2344:	b4000000 	strlt	r0, [r0], #-0
    2348:	3000008d 	andcc	r0, r0, sp, lsl #1
    234c:	01000000 	mrseq	r0, (UNDEF: 0)
    2350:	0002db9c 	muleq	r2, ip, fp
    2354:	00631500 	rsbeq	r1, r3, r0, lsl #10
    2358:	2509a701 	strcs	sl, [r9, #-1793]	; 0xfffff8ff
    235c:	95000000 	strls	r0, [r0, #-0]
    2360:	93000012 	movwls	r0, #18
    2364:	0f000012 	svceq	0x00000012
    2368:	00008dbc 			; <UNDEFINED> instruction: 0x00008dbc
    236c:	000005a0 	andeq	r0, r0, r0, lsr #11
    2370:	008dc00f 	addeq	ip, sp, pc
    2374:	00030900 	andeq	r0, r3, r0, lsl #18
    2378:	8dd01400 	cfldrdhi	mvd1, [r0]
    237c:	05ac0000 	streq	r0, [ip, #0]!
    2380:	02d10000 	sbcseq	r0, r1, #0, 0
    2384:	01120000 	tsteq	r2, r0
    2388:	400c0550 	andmi	r0, ip, r0, asr r5
    238c:	00202150 	eoreq	r2, r0, r0, asr r1
    2390:	008dd80f 	addeq	sp, sp, pc, lsl #16
    2394:	0005a000 	andeq	sl, r5, r0
    2398:	29100000 	ldmdbcs	r0, {}	; <UNPREDICTABLE>
    239c:	01000007 	tsteq	r0, r7
    23a0:	00250594 	mlaeq	r5, r4, r5, r0
    23a4:	8d940000 	ldchi	0, cr0, [r4]
    23a8:	00200000 	eoreq	r0, r0, r0
    23ac:	9c010000 	stcls	0, cr0, [r1], {-0}
    23b0:	00000309 	andeq	r0, r0, r9, lsl #6
    23b4:	008da011 	addeq	sl, sp, r1, lsl r0
    23b8:	0005ac00 	andeq	sl, r5, r0, lsl #24
    23bc:	50011200 	andpl	r1, r1, r0, lsl #4
    23c0:	50640c05 	rsbpl	r0, r4, r5, lsl #24
    23c4:	00002021 	andeq	r2, r0, r1, lsr #32
    23c8:	00071410 	andeq	r1, r7, r0, lsl r4
    23cc:	058b0100 	streq	r0, [fp, #256]	; 0x100
    23d0:	00000025 	andeq	r0, r0, r5, lsr #32
    23d4:	00008d7c 	andeq	r8, r0, ip, ror sp
    23d8:	00000018 	andeq	r0, r0, r8, lsl r0
    23dc:	03379c01 	teqeq	r7, #256	; 0x100
    23e0:	88110000 	ldmdahi	r1, {}	; <UNPREDICTABLE>
    23e4:	ac00008d 	stcge	0, cr0, [r0], {141}	; 0x8d
    23e8:	12000005 	andne	r0, r0, #5, 0
    23ec:	0c055001 	stceq	0, cr5, [r5], {1}
    23f0:	20215064 	eorcs	r5, r1, r4, rrx
    23f4:	ed0e0000 	stc	0, cr0, [lr, #-0]
    23f8:	01000005 	tsteq	r0, r5
    23fc:	8ccc0645 	stclhi	6, cr0, [ip], {69}	; 0x45
    2400:	00b00000 	adcseq	r0, r0, r0
    2404:	9c010000 	stcls	0, cr0, [r1], {-0}
    2408:	00000484 	andeq	r0, r0, r4, lsl #9
    240c:	00070616 	andeq	r0, r7, r6, lsl r6
    2410:	0e7e0100 	rpweqe	f0, f6, f0
    2414:	00000062 	andeq	r0, r0, r2, rrx
    2418:	dc14010e 	ldfles	f0, [r4], {14}
    241c:	c400008c 	strgt	r0, [r0], #-140	; 0xffffff74
    2420:	73000005 	movwvc	r0, #5
    2424:	12000003 	andne	r0, r0, #3, 0
    2428:	3e015001 	cdpcc	0, 0, cr5, cr1, cr1, {0}
    242c:	01510112 	cmpeq	r1, r2, lsl r1
    2430:	e8140032 	ldmda	r4, {r1, r4, r5}
    2434:	c400008c 	strgt	r0, [r0], #-140	; 0xffffff74
    2438:	8b000005 	blhi	2454 <__code_start__-0x5bac>
    243c:	12000003 	andne	r0, r0, #3, 0
    2440:	3f015001 	svccc	0x00015001
    2444:	01510112 	cmpeq	r1, r2, lsl r1
    2448:	ec0f0032 	stc	0, cr0, [pc], {50}	; 0x32
    244c:	a000008c 	andge	r0, r0, ip, lsl #1
    2450:	14000005 	strne	r0, [r0], #-5
    2454:	00008cf8 	strdeq	r8, [r0], -r8	; <UNPREDICTABLE>
    2458:	0000053d 	andeq	r0, r0, sp, lsr r5
    245c:	000003b0 			; <UNDEFINED> instruction: 0x000003b0
    2460:	05500112 	ldrbeq	r0, [r0, #-274]	; 0xfffffeee
    2464:	2150040c 	cmpcs	r0, ip, lsl #8
    2468:	51011220 	tstpl	r1, r0, lsr #4
    246c:	0f003101 	svceq	0x00003101
    2470:	00008cfc 	strdeq	r8, [r0], -ip
    2474:	000005a0 	andeq	r0, r0, r0, lsr #11
    2478:	008d0c14 	addeq	r0, sp, r4, lsl ip
    247c:	0005b800 	andeq	fp, r5, r0, lsl #16
    2480:	0003d200 	andeq	sp, r3, r0, lsl #4
    2484:	50011200 	andpl	r1, r1, r0, lsl #4
    2488:	12007402 	andne	r7, r0, #33554432	; 0x2000000
    248c:	30015101 	andcc	r5, r1, r1, lsl #2
    2490:	8d181400 	cfldrshi	mvf1, [r8, #-0]
    2494:	05b80000 	ldreq	r0, [r8, #0]!
    2498:	03ee0000 	mvneq	r0, #0, 0
    249c:	01120000 	tsteq	r2, r0
    24a0:	440c0550 	strmi	r0, [ip], #-1360	; 0xfffffab0
    24a4:	12202150 	eorne	r2, r0, #20
    24a8:	30015101 	andcc	r5, r1, r1, lsl #2
    24ac:	8d241400 	cfstrshi	mvf1, [r4, #-0]
    24b0:	05b80000 	ldreq	r0, [r8, #0]!
    24b4:	040a0000 	streq	r0, [sl], #-0
    24b8:	01120000 	tsteq	r2, r0
    24bc:	4c0c0550 	cfstr32mi	mvfx0, [ip], {80}	; 0x50
    24c0:	12202150 	eorne	r2, r0, #20
    24c4:	33015101 	movwcc	r5, #4353	; 0x1101
    24c8:	8d301400 	cfldrshi	mvf1, [r0, #-0]
    24cc:	05b80000 	ldreq	r0, [r8, #0]!
    24d0:	04260000 	strteq	r0, [r6], #-0
    24d4:	01120000 	tsteq	r2, r0
    24d8:	500c0550 	andpl	r0, ip, r0, asr r5
    24dc:	12202150 	eorne	r2, r0, #20
    24e0:	30015101 	andcc	r5, r1, r1, lsl #2
    24e4:	8d3c1400 	cfldrshi	mvf1, [ip, #-0]
    24e8:	05b80000 	ldreq	r0, [r8, #0]!
    24ec:	04430000 	strbeq	r0, [r3], #-0
    24f0:	01120000 	tsteq	r2, r0
    24f4:	480c0550 	stmdami	ip, {r4, r6, r8, sl}
    24f8:	12202150 	eorne	r2, r0, #20
    24fc:	08025101 	stmdaeq	r2, {r0, r8, ip, lr}
    2500:	481400c7 	ldmdami	r4, {r0, r1, r2, r6, r7}
    2504:	b800008d 	stmdalt	r0, {r0, r2, r3, r7}
    2508:	61000005 	tstvs	r0, r5
    250c:	12000004 	andne	r0, r0, #4, 0
    2510:	0c055001 	stceq	0, cr5, [r5], {1}
    2514:	20215068 	eorcs	r5, r1, r8, rrx
    2518:	03510112 	cmpeq	r1, #-2147483644	; 0x80000004
    251c:	00010e0a 	andeq	r0, r1, sl, lsl #28
    2520:	008d5414 	addeq	r5, sp, r4, lsl r4
    2524:	0005b800 	andeq	fp, r5, r0, lsl #16
    2528:	00047a00 	andeq	r7, r4, r0, lsl #20
    252c:	50011200 	andpl	r1, r1, r0, lsl #4
    2530:	12007402 	andne	r7, r0, #33554432	; 0x2000000
    2534:	33015101 	movwcc	r5, #4353	; 0x1101
    2538:	8d580f00 	ldclhi	15, cr0, [r8, #-0]
    253c:	05a00000 	streq	r0, [r0, #0]!
    2540:	0e000000 	cdpeq	0, 0, cr0, cr0, cr0, {0}
    2544:	0000080b 	andeq	r0, r0, fp, lsl #16
    2548:	58063501 	stmdapl	r6, {r0, r8, sl, ip, sp}
    254c:	2400008e 	strcs	r0, [r0], #-142	; 0xffffff72
    2550:	01000000 	mrseq	r0, (UNDEF: 0)
    2554:	0004d39c 	muleq	r4, ip, r3
    2558:	8e600f00 	cdphi	15, 6, cr0, cr0, cr0, {0}
    255c:	01940000 	orrseq	r0, r4, r0
    2560:	640f0000 	strvs	r0, [pc], #-0	; 2568 <__code_start__-0x5a98>
    2564:	a000008e 	andge	r0, r0, lr, lsl #1
    2568:	14000005 	strne	r0, [r0], #-5
    256c:	00008e70 	andeq	r8, r0, r0, ror lr
    2570:	000004d3 	ldrdeq	r0, [r0], -r3
    2574:	000004c9 	andeq	r0, r0, r9, asr #9
    2578:	05500112 	ldrbeq	r0, [r0, #-274]	; 0xfffffeee
    257c:	2150040c 	cmpcs	r0, ip, lsl #8
    2580:	51011220 	tstpl	r1, r0, lsr #4
    2584:	00fe0902 	rscseq	r0, lr, r2, lsl #18
    2588:	008e740f 	addeq	r7, lr, pc, lsl #8
    258c:	0005a000 	andeq	sl, r5, r0
    2590:	76170000 	ldrvc	r0, [r7], -r0
    2594:	01000008 	tsteq	r0, r8
    2598:	8c8c0d31 	stchi	13, cr0, [ip], {49}	; 0x31
    259c:	00200000 	eoreq	r0, r0, r0
    25a0:	9c010000 	stcls	0, cr0, [r1], {-0}
    25a4:	00000536 	andeq	r0, r0, r6, lsr r5
    25a8:	00073c18 	andeq	r3, r7, r8, lsl ip
    25ac:	25310100 	ldrcs	r0, [r1, #-256]!	; 0xffffff00
    25b0:	00000536 	andeq	r0, r0, r6, lsr r5
    25b4:	000012ac 	andeq	r1, r0, ip, lsr #5
    25b8:	000012a8 	andeq	r1, r0, r8, lsr #5
    25bc:	6c617613 	stclvs	6, cr7, [r1], #-76	; 0xffffffb4
    25c0:	34310100 	ldrtcc	r0, [r1], #-256	; 0xffffff00
    25c4:	0000002c 	andeq	r0, r0, ip, lsr #32
    25c8:	000012ce 	andeq	r1, r0, lr, asr #5
    25cc:	000012ca 	andeq	r1, r0, sl, asr #5
    25d0:	008c9c14 	addeq	r9, ip, r4, lsl ip
    25d4:	0005ac00 	andeq	sl, r5, r0, lsl #24
    25d8:	00052500 	andeq	r2, r5, r0, lsl #10
    25dc:	50011200 	andpl	r1, r1, r0, lsl #4
    25e0:	00007402 	andeq	r7, r0, r2, lsl #8
    25e4:	008ca811 	addeq	sl, ip, r1, lsl r8
    25e8:	0005b800 	andeq	fp, r5, r0, lsl #16
    25ec:	50011200 	andpl	r1, r1, r0, lsl #4
    25f0:	00007402 	andeq	r7, r0, r2, lsl #8
    25f4:	3c040c00 	stccc	12, cr0, [r4], {-0}
    25f8:	19000005 	stmdbne	r0, {r0, r2}
    25fc:	00082617 	andeq	r2, r8, r7, lsl r6
    2600:	0d2e0100 	stfeqs	f0, [lr, #-0]
    2604:	00008cac 	andeq	r8, r0, ip, lsr #25
    2608:	00000020 	andeq	r0, r0, r0, lsr #32
    260c:	05a09c01 	streq	r9, [r0, #3073]!	; 0xc01
    2610:	3c180000 	ldccc	0, cr0, [r8], {-0}
    2614:	01000007 	tsteq	r0, r7
    2618:	0536242e 	ldreq	r2, [r6, #-1070]!	; 0xfffffbd2
    261c:	12f00000 	rscsne	r0, r0, #0, 0
    2620:	12ec0000 	rscne	r0, ip, #0, 0
    2624:	76130000 	ldrvc	r0, [r3], -r0
    2628:	01006c61 	tsteq	r0, r1, ror #24
    262c:	002c332e 	eoreq	r3, ip, lr, lsr #6
    2630:	13120000 	tstne	r2, #0, 0
    2634:	130e0000 	movwne	r0, #57344	; 0xe000
    2638:	bc140000 	ldclt	0, cr0, [r4], {-0}
    263c:	ac00008c 	stcge	0, cr0, [r0], {140}	; 0x8c
    2640:	8f000005 	svchi	0x00000005
    2644:	12000005 	andne	r0, r0, #5, 0
    2648:	74025001 	strvc	r5, [r2], #-1
    264c:	c8110000 	ldmdagt	r1, {}	; <UNPREDICTABLE>
    2650:	b800008c 	stmdalt	r0, {r2, r3, r7}
    2654:	12000005 	andne	r0, r0, #5, 0
    2658:	74025001 	strvc	r5, [r2], #-1
    265c:	1a000000 	bne	2664 <__code_start__-0x599c>
    2660:	000006b1 			; <UNDEFINED> instruction: 0x000006b1
    2664:	000006b1 			; <UNDEFINED> instruction: 0x000006b1
    2668:	1a069c03 	bne	1a967c <__bss_end__+0x1a00cc>
    266c:	00000889 	andeq	r0, r0, r9, lsl #17
    2670:	00000889 	andeq	r0, r0, r9, lsl #17
    2674:	1a0bc303 	bne	2f3288 <__bss_end__+0x2e9cd8>
    2678:	00000752 	andeq	r0, r0, r2, asr r7
    267c:	00000752 	andeq	r0, r0, r2, asr r7
    2680:	1a06ae03 	bne	1ade94 <__bss_end__+0x1a48e4>
    2684:	00000403 	andeq	r0, r0, r3, lsl #8
    2688:	00000403 	andeq	r0, r0, r3, lsl #8
    268c:	00061904 	andeq	r1, r6, r4, lsl #18
    2690:	00000149 	andeq	r0, r0, r9, asr #2
    2694:	0eb40004 	cdpeq	0, 11, cr0, cr4, cr4, {0}
    2698:	01040000 	mrseq	r0, (UNDEF: 4)
    269c:	0000033e 	andeq	r0, r0, lr, lsr r3
    26a0:	0008ad0c 	andeq	sl, r8, ip, lsl #26
    26a4:	00031700 	andeq	r1, r3, r0, lsl #14
    26a8:	008e7c00 	addeq	r7, lr, r0, lsl #24
    26ac:	00003c00 	andeq	r3, r0, r0, lsl #24
    26b0:	0012e800 	andseq	lr, r2, r0, lsl #16
    26b4:	05040200 	streq	r0, [r4, #-512]	; 0xfffffe00
    26b8:	00746e69 	rsbseq	r6, r4, r9, ror #28
    26bc:	ff070403 			; <UNDEFINED> instruction: 0xff070403
    26c0:	03000000 	movweq	r0, #0
    26c4:	00e10601 	rsceq	r0, r1, r1, lsl #12
    26c8:	02030000 	andeq	r0, r3, #0, 0
    26cc:	00003f05 	andeq	r3, r0, r5, lsl #30
    26d0:	05040300 	streq	r0, [r4, #-768]	; 0xfffffd00
    26d4:	000000a2 	andeq	r0, r0, r2, lsr #1
    26d8:	9d050803 	stcls	8, cr0, [r5, #-12]
    26dc:	03000000 	movweq	r0, #0
    26e0:	00df0801 	sbcseq	r0, pc, r1, lsl #16
    26e4:	02030000 	andeq	r0, r3, #0, 0
    26e8:	00011d07 	andeq	r1, r1, r7, lsl #26
    26ec:	07040300 	streq	r0, [r4, -r0, lsl #6]
    26f0:	000000fa 	strdeq	r0, [r0], -sl
    26f4:	f5070803 			; <UNDEFINED> instruction: 0xf5070803
    26f8:	04000000 	streq	r0, [r0], #-0
    26fc:	00000025 	andeq	r0, r0, r5, lsr #32
    2700:	0000007a 	andeq	r0, r0, sl, ror r0
    2704:	00002505 	andeq	r2, r0, r5, lsl #10
    2708:	4e060000 	cdpmi	0, 0, cr0, cr6, cr0, {0}
    270c:	02000000 	andeq	r0, r0, #0, 0
    2710:	00860e1c 	addeq	r0, r6, ip, lsl lr
    2714:	04070000 	streq	r0, [r7], #-0
    2718:	0000006b 	andeq	r0, r0, fp, rrx
    271c:	00002504 	andeq	r2, r0, r4, lsl #10
    2720:	00009b00 	andeq	r9, r0, r0, lsl #22
    2724:	009b0500 	addseq	r0, fp, r0, lsl #10
    2728:	07000000 	streq	r0, [r0, -r0]
    272c:	0000a804 	andeq	sl, r0, r4, lsl #16
    2730:	08010300 	stmdaeq	r1, {r8, r9}
    2734:	000000e8 	andeq	r0, r0, r8, ror #1
    2738:	0000a108 	andeq	sl, r0, r8, lsl #2
    273c:	04670600 	strbteq	r0, [r7], #-1536	; 0xfffffa00
    2740:	21020000 	mrscs	r0, (UNDEF: 2)
    2744:	0000b90e 	andeq	fp, r0, lr, lsl #18
    2748:	8c040700 	stchi	7, cr0, [r4], {-0}
    274c:	09000000 	stmdbeq	r0, {}	; <UNPREDICTABLE>
    2750:	0000007a 	andeq	r0, r0, sl, ror r0
    2754:	05070601 	streq	r0, [r7, #-1537]	; 0xfffff9ff
    2758:	0091a803 	addseq	sl, r1, r3, lsl #16
    275c:	08a00a00 	stmiaeq	r0!, {r9, fp}
    2760:	0b010000 	bleq	42768 <__bss_end__+0x391b8>
    2764:	008ea806 	addeq	sl, lr, r6, lsl #16
    2768:	00001000 	andeq	r1, r0, r0
    276c:	f19c0100 			; <UNDEFINED> instruction: 0xf19c0100
    2770:	0b000000 	bleq	2778 <__code_start__-0x5888>
    2774:	01007066 	tsteq	r0, r6, rrx
    2778:	0086190b 	addeq	r1, r6, fp, lsl #18
    277c:	50010000 	andpl	r0, r1, r0
    2780:	08be0c00 	ldmeq	lr!, {sl, fp}
    2784:	08010000 	stmdaeq	r1, {}	; <UNPREDICTABLE>
    2788:	008e9006 	addeq	r9, lr, r6
    278c:	00001800 	andeq	r1, r0, r0, lsl #16
    2790:	0d9c0100 	ldfeqs	f0, [ip]
    2794:	0000088f 	andeq	r0, r0, pc, lsl #17
    2798:	250c0301 	strcs	r0, [ip, #-769]	; 0xfffffcff
    279c:	7c000000 	stcvc	0, cr0, [r0], {-0}
    27a0:	1400008e 	strne	r0, [r0], #-142	; 0xffffff72
    27a4:	01000000 	mrseq	r0, (UNDEF: 0)
    27a8:	0001409c 	muleq	r1, ip, r0
    27ac:	00630e00 	rsbeq	r0, r3, r0, lsl #28
    27b0:	25210301 	strcs	r0, [r1, #-769]!	; 0xfffffcff
    27b4:	34000000 	strcc	r0, [r0], #-0
    27b8:	30000013 	andcc	r0, r0, r3, lsl r0
    27bc:	0f000013 	svceq	0x00000013
    27c0:	00008e88 	andeq	r8, r0, r8, lsl #29
    27c4:	00000140 	andeq	r0, r0, r0, asr #2
    27c8:	02500110 	subseq	r0, r0, #4
    27cc:	00000074 	andeq	r0, r0, r4, ror r0
    27d0:	00087f11 	andeq	r7, r8, r1, lsl pc
    27d4:	00087f00 	andeq	r7, r8, r0, lsl #30
    27d8:	06420200 	strbeq	r0, [r2], -r0, lsl #4
    27dc:	00013700 	andeq	r3, r1, r0, lsl #14
    27e0:	c3000400 	movwgt	r0, #1024	; 0x400
    27e4:	0400000f 	streq	r0, [r0], #-15
    27e8:	00033e01 	andeq	r3, r3, r1, lsl #28
    27ec:	08d20c00 	ldmeq	r2, {sl, fp}^
    27f0:	03170000 	tsteq	r7, #0, 0
    27f4:	8eb80000 	cdphi	0, 11, cr0, cr8, cr0, {0}
    27f8:	00340000 	eorseq	r0, r4, r0
    27fc:	13840000 	orrne	r0, r4, #0, 0
    2800:	04020000 	streq	r0, [r2], #-0
    2804:	746e6905 	strbtvc	r6, [lr], #-2309	; 0xfffff6fb
    2808:	07040300 	streq	r0, [r4, -r0, lsl #6]
    280c:	000000ff 	strdeq	r0, [r0], -pc	; <UNPREDICTABLE>
    2810:	e1060103 	tst	r6, r3, lsl #2
    2814:	03000000 	movweq	r0, #0
    2818:	003f0502 	eorseq	r0, pc, r2, lsl #10
    281c:	04030000 	streq	r0, [r3], #-0
    2820:	0000a205 	andeq	sl, r0, r5, lsl #4
    2824:	05080300 	streq	r0, [r8, #-768]	; 0xfffffd00
    2828:	0000009d 	muleq	r0, sp, r0
    282c:	df080103 	svcle	0x00080103
    2830:	03000000 	movweq	r0, #0
    2834:	011d0702 	tsteq	sp, r2, lsl #14
    2838:	04030000 	streq	r0, [r3], #-0
    283c:	0000fa07 	andeq	pc, r0, r7, lsl #20
    2840:	07080300 	streq	r0, [r8, -r0, lsl #6]
    2844:	000000f5 	strdeq	r0, [r0], -r5
    2848:	00002504 	andeq	r2, r0, r4, lsl #10
    284c:	00007a00 	andeq	r7, r0, r0, lsl #20
    2850:	00250500 	eoreq	r0, r5, r0, lsl #10
    2854:	06000000 	streq	r0, [r0], -r0
    2858:	0000004e 	andeq	r0, r0, lr, asr #32
    285c:	860e1c02 	strhi	r1, [lr], -r2, lsl #24
    2860:	07000000 	streq	r0, [r0, -r0]
    2864:	00006b04 	andeq	r6, r0, r4, lsl #22
    2868:	00250400 	eoreq	r0, r5, r0, lsl #8
    286c:	009b0000 	addseq	r0, fp, r0
    2870:	9b050000 	blls	142878 <__bss_end__+0x1392c8>
    2874:	00000000 	andeq	r0, r0, r0
    2878:	00a80407 	adceq	r0, r8, r7, lsl #8
    287c:	01030000 	mrseq	r0, (UNDEF: 3)
    2880:	0000e808 	andeq	lr, r0, r8, lsl #16
    2884:	00a10800 	adceq	r0, r1, r0, lsl #16
    2888:	67060000 	strvs	r0, [r6, -r0]
    288c:	02000004 	andeq	r0, r0, #4, 0
    2890:	00b90e21 	adcseq	r0, r9, r1, lsr #28
    2894:	04070000 	streq	r0, [r7], #-0
    2898:	0000008c 	andeq	r0, r0, ip, lsl #1
    289c:	00050a09 	andeq	r0, r5, r9, lsl #20
    28a0:	07040100 	streq	r0, [r4, -r0, lsl #2]
    28a4:	00000134 	andeq	r0, r0, r4, lsr r1
    28a8:	00008eb8 			; <UNDEFINED> instruction: 0x00008eb8
    28ac:	00000034 	andeq	r0, r0, r4, lsr r0
    28b0:	01349c01 	teqeq	r4, r1, lsl #24
    28b4:	cd0a0000 	stcgt	0, cr0, [sl, #-0]
    28b8:	01000008 	tsteq	r0, r8
    28bc:	01341504 	teqeq	r4, r4, lsl #10
    28c0:	50010000 	andpl	r0, r1, r0
    28c4:	6372730b 	cmnvs	r2, #738197504	; 0x2c000000
    28c8:	27040100 	strcs	r0, [r4, -r0, lsl #2]
    28cc:	0000009b 	muleq	r0, fp, r0
    28d0:	00001356 	andeq	r1, r0, r6, asr r3
    28d4:	00001352 	andeq	r1, r0, r2, asr r3
    28d8:	0031730c 	eorseq	r7, r1, ip, lsl #6
    28dc:	340b0501 	strcc	r0, [fp], #-1281	; 0xfffffaff
    28e0:	81000001 	tsthi	r0, r1
    28e4:	77000013 	smladvc	r0, r3, r0, r0
    28e8:	0c000013 	stceq	0, cr0, [r0], {19}
    28ec:	01003273 	tsteq	r0, r3, ror r2
    28f0:	009b1106 	addseq	r1, fp, r6, lsl #2
    28f4:	13c60000 	bicne	r0, r6, #0, 0
    28f8:	13c20000 	bicne	r0, r2, #0, 0
    28fc:	630c0000 	movwvs	r0, #49152	; 0xc000
    2900:	0a070100 	beq	1c2d08 <__bss_end__+0x1b9758>
    2904:	000000a1 	andeq	r0, r0, r1, lsr #1
    2908:	000013ea 	andeq	r1, r0, sl, ror #7
    290c:	000013e6 	andeq	r1, r0, r6, ror #7
    2910:	a1040700 	tstge	r4, r0, lsl #14
    2914:	00000000 	andeq	r0, r0, r0
    2918:	000000f7 	strdeq	r0, [r0], -r7
    291c:	10790004 	rsbsne	r0, r9, r4
    2920:	01040000 	mrseq	r0, (UNDEF: 4)
    2924:	0000033e 	andeq	r0, r0, lr, lsr r3
    2928:	0008e20c 	andeq	lr, r8, ip, lsl #4
    292c:	00031700 	andeq	r1, r3, r0, lsl #14
    2930:	008eec00 	addeq	lr, lr, r0, lsl #24
    2934:	00002c00 	andeq	r2, r0, r0, lsl #24
    2938:	00146c00 	andseq	r6, r4, r0, lsl #24
    293c:	05040200 	streq	r0, [r4, #-512]	; 0xfffffe00
    2940:	00746e69 	rsbseq	r6, r4, r9, ror #28
    2944:	ff070403 			; <UNDEFINED> instruction: 0xff070403
    2948:	03000000 	movweq	r0, #0
    294c:	00e10601 	rsceq	r0, r1, r1, lsl #12
    2950:	02030000 	andeq	r0, r3, #0, 0
    2954:	00003f05 	andeq	r3, r0, r5, lsl #30
    2958:	05040300 	streq	r0, [r4, #-768]	; 0xfffffd00
    295c:	000000a2 	andeq	r0, r0, r2, lsr #1
    2960:	9d050803 	stcls	8, cr0, [r5, #-12]
    2964:	03000000 	movweq	r0, #0
    2968:	00df0801 	sbcseq	r0, pc, r1, lsl #16
    296c:	02030000 	andeq	r0, r3, #0, 0
    2970:	00011d07 	andeq	r1, r1, r7, lsl #26
    2974:	07040300 	streq	r0, [r4, -r0, lsl #6]
    2978:	000000fa 	strdeq	r0, [r0], -sl
    297c:	f5070803 			; <UNDEFINED> instruction: 0xf5070803
    2980:	04000000 	streq	r0, [r0], #-0
    2984:	00000025 	andeq	r0, r0, r5, lsr #32
    2988:	0000007a 	andeq	r0, r0, sl, ror r0
    298c:	00002505 	andeq	r2, r0, r5, lsl #10
    2990:	4e060000 	cdpmi	0, 0, cr0, cr6, cr0, {0}
    2994:	02000000 	andeq	r0, r0, #0, 0
    2998:	00860e1c 	addeq	r0, r6, ip, lsl lr
    299c:	04070000 	streq	r0, [r7], #-0
    29a0:	0000006b 	andeq	r0, r0, fp, rrx
    29a4:	00002504 	andeq	r2, r0, r4, lsl #10
    29a8:	00009b00 	andeq	r9, r0, r0, lsl #22
    29ac:	009b0500 	addseq	r0, fp, r0, lsl #10
    29b0:	07000000 	streq	r0, [r0, -r0]
    29b4:	0000a804 	andeq	sl, r0, r4, lsl #16
    29b8:	08010300 	stmdaeq	r1, {r8, r9}
    29bc:	000000e8 	andeq	r0, r0, r8, ror #1
    29c0:	0000a108 	andeq	sl, r0, r8, lsl #2
    29c4:	04670600 	strbteq	r0, [r7], #-1536	; 0xfffffa00
    29c8:	21020000 	mrscs	r0, (UNDEF: 2)
    29cc:	0000b90e 	andeq	fp, r0, lr, lsl #18
    29d0:	8c040700 	stchi	7, cr0, [r4], {-0}
    29d4:	09000000 	stmdbeq	r0, {}	; <UNPREDICTABLE>
    29d8:	00000540 	andeq	r0, r0, r0, asr #10
    29dc:	25050301 	strcs	r0, [r5, #-769]	; 0xfffffcff
    29e0:	ec000000 	stc	0, cr0, [r0], {-0}
    29e4:	2c00008e 	stccs	0, cr0, [r0], {142}	; 0x8e
    29e8:	01000000 	mrseq	r0, (UNDEF: 0)
    29ec:	00610a9c 	mlseq	r1, ip, sl, r0
    29f0:	9b180301 	blls	6035fc <__bss_end__+0x5fa04c>
    29f4:	0c000000 	stceq	0, cr0, [r0], {-0}
    29f8:	08000014 	stmdaeq	r0, {r2, r4}
    29fc:	0a000014 	beq	2a54 <__code_start__-0x55ac>
    2a00:	03010062 	movweq	r0, #4194	; 0x1062
    2a04:	00009b27 	andeq	r9, r0, r7, lsr #22
    2a08:	00142e00 	andseq	r2, r4, r0, lsl #28
    2a0c:	00142a00 	andseq	r2, r4, r0, lsl #20
    2a10:	0f000000 	svceq	0x00000000
    2a14:	04000001 	streq	r0, [r0], #-1
    2a18:	00110800 	andseq	r0, r1, r0, lsl #16
    2a1c:	3e010400 	cfcpyscc	mvf0, mvf1
    2a20:	0c000003 	stceq	0, cr0, [r0], {3}
    2a24:	000008f2 	strdeq	r0, [r0], -r2
    2a28:	00000317 	andeq	r0, r0, r7, lsl r3
    2a2c:	00008f18 	andeq	r8, r0, r8, lsl pc
    2a30:	00000020 	andeq	r0, r0, r0, lsr #32
    2a34:	0000150d 	andeq	r1, r0, sp, lsl #10
    2a38:	69050402 	stmdbvs	r5, {r1, sl}
    2a3c:	0300746e 	movweq	r7, #1134	; 0x46e
    2a40:	00ff0704 	rscseq	r0, pc, r4, lsl #14
    2a44:	01030000 	mrseq	r0, (UNDEF: 3)
    2a48:	0000e106 	andeq	lr, r0, r6, lsl #2
    2a4c:	05020300 	streq	r0, [r2, #-768]	; 0xfffffd00
    2a50:	0000003f 	andeq	r0, r0, pc, lsr r0
    2a54:	a2050403 	andge	r0, r5, #50331648	; 0x3000000
    2a58:	03000000 	movweq	r0, #0
    2a5c:	009d0508 	addseq	r0, sp, r8, lsl #10
    2a60:	01030000 	mrseq	r0, (UNDEF: 3)
    2a64:	0000df08 	andeq	sp, r0, r8, lsl #30
    2a68:	07020300 	streq	r0, [r2, -r0, lsl #6]
    2a6c:	0000011d 	andeq	r0, r0, sp, lsl r1
    2a70:	fa070403 	blx	1c3a84 <__bss_end__+0x1ba4d4>
    2a74:	03000000 	movweq	r0, #0
    2a78:	00f50708 	rscseq	r0, r5, r8, lsl #14
    2a7c:	25040000 	strcs	r0, [r4, #-0]
    2a80:	7a000000 	bvc	2a88 <__code_start__-0x5578>
    2a84:	05000000 	streq	r0, [r0, #-0]
    2a88:	00000025 	andeq	r0, r0, r5, lsr #32
    2a8c:	004e0600 	subeq	r0, lr, r0, lsl #12
    2a90:	1c020000 	stcne	0, cr0, [r2], {-0}
    2a94:	0000860e 	andeq	r8, r0, lr, lsl #12
    2a98:	6b040700 	blvs	1046a0 <__bss_end__+0xfb0f0>
    2a9c:	04000000 	streq	r0, [r0], #-0
    2aa0:	00000025 	andeq	r0, r0, r5, lsr #32
    2aa4:	0000009b 	muleq	r0, fp, r0
    2aa8:	00009b05 	andeq	r9, r0, r5, lsl #22
    2aac:	04070000 	streq	r0, [r7], #-0
    2ab0:	000000a8 	andeq	r0, r0, r8, lsr #1
    2ab4:	e8080103 	stmda	r8, {r0, r1, r8}
    2ab8:	08000000 	stmdaeq	r0, {}	; <UNPREDICTABLE>
    2abc:	000000a1 	andeq	r0, r0, r1, lsr #1
    2ac0:	00046706 	andeq	r6, r4, r6, lsl #14
    2ac4:	0e210200 	cdpeq	2, 2, cr0, cr1, cr0, {0}
    2ac8:	000000b9 	strheq	r0, [r0], -r9
    2acc:	008c0407 	addeq	r0, ip, r7, lsl #8
    2ad0:	11090000 	mrsne	r0, (UNDEF: 9)
    2ad4:	01000005 	tsteq	r0, r5
    2ad8:	010c0703 	tsteq	ip, r3, lsl #14
    2adc:	8f180000 	svchi	0x00180000
    2ae0:	00200000 	eoreq	r0, r0, r0
    2ae4:	9c010000 	stcls	0, cr0, [r1], {-0}
    2ae8:	0000010c 	andeq	r0, r0, ip, lsl #2
    2aec:	0031730a 	eorseq	r7, r1, sl, lsl #6
    2af0:	0c150301 	ldceq	3, cr0, [r5], {1}
    2af4:	01000001 	tsteq	r0, r1
    2af8:	32730b50 	rsbscc	r0, r3, #80, 22	; 0x14000
    2afc:	26030100 	strcs	r0, [r3], -r0, lsl #2
    2b00:	0000009b 	muleq	r0, fp, r0
    2b04:	00001452 	andeq	r1, r0, r2, asr r4
    2b08:	0000144c 	andeq	r1, r0, ip, asr #8
    2b0c:	0100730c 	tsteq	r0, ip, lsl #6
    2b10:	010c1404 	tsteq	ip, r4, lsl #8
    2b14:	14830000 	strne	r0, [r3], #0
    2b18:	147d0000 	ldrbtne	r0, [sp], #-0
    2b1c:	07000000 	streq	r0, [r0, -r0]
    2b20:	0000a104 	andeq	sl, r0, r4, lsl #2
    2b24:	014e0000 	mrseq	r0, (UNDEF: 78)
    2b28:	00040000 	andeq	r0, r4, r0
    2b2c:	000011be 			; <UNDEFINED> instruction: 0x000011be
    2b30:	033e0104 	teqeq	lr, #1
    2b34:	090c0000 	stmdbeq	ip, {}	; <UNPREDICTABLE>
    2b38:	17000009 	strne	r0, [r0, -r9]
    2b3c:	88000003 	stmdahi	r0, {r0, r1}
    2b40:	00000001 	andeq	r0, r0, r1
    2b44:	ac000000 	stcge	0, cr0, [r0], {-0}
    2b48:	02000015 	andeq	r0, r0, #21, 0
    2b4c:	6e690504 	cdpvs	5, 6, cr0, cr9, cr4, {0}
    2b50:	02030074 	andeq	r0, r3, #116, 0	; 0x74
    2b54:	03000009 	movweq	r0, #9
    2b58:	003817d1 	ldrsbteq	r1, [r8], -r1
    2b5c:	04040000 	streq	r0, [r4], #-0
    2b60:	0000ff07 	andeq	pc, r0, r7, lsl #30
    2b64:	06010400 	streq	r0, [r1], -r0, lsl #8
    2b68:	000000e1 	andeq	r0, r0, r1, ror #1
    2b6c:	3f050204 	svccc	0x00050204
    2b70:	04000000 	streq	r0, [r0], #-0
    2b74:	00a20504 	adceq	r0, r2, r4, lsl #10
    2b78:	08040000 	stmdaeq	r4, {}	; <UNPREDICTABLE>
    2b7c:	00009d05 	andeq	r9, r0, r5, lsl #26
    2b80:	08010400 	stmdaeq	r1, {sl}
    2b84:	000000df 	ldrdeq	r0, [r0], -pc	; <UNPREDICTABLE>
    2b88:	00005b05 	andeq	r5, r0, r5, lsl #22
    2b8c:	07020400 	streq	r0, [r2, -r0, lsl #8]
    2b90:	0000011d 	andeq	r0, r0, sp, lsl r1
    2b94:	fa070404 	blx	1c3bac <__bss_end__+0x1ba5fc>
    2b98:	04000000 	streq	r0, [r0], #-0
    2b9c:	00f50708 	rscseq	r0, r5, r8, lsl #14
    2ba0:	25060000 	strcs	r0, [r6, #-0]
    2ba4:	8b000000 	blhi	2bac <__code_start__-0x5454>
    2ba8:	07000000 	streq	r0, [r0, -r0]
    2bac:	00000025 	andeq	r0, r0, r5, lsr #32
    2bb0:	004e0800 	subeq	r0, lr, r0, lsl #16
    2bb4:	1c020000 	stcne	0, cr0, [r2], {-0}
    2bb8:	0000970e 	andeq	r9, r0, lr, lsl #14
    2bbc:	7c040900 			; <UNDEFINED> instruction: 0x7c040900
    2bc0:	06000000 	streq	r0, [r0], -r0
    2bc4:	00000025 	andeq	r0, r0, r5, lsr #32
    2bc8:	000000ac 	andeq	r0, r0, ip, lsr #1
    2bcc:	0000ac07 	andeq	sl, r0, r7, lsl #24
    2bd0:	04090000 	streq	r0, [r9], #-0
    2bd4:	000000b9 	strheq	r0, [r0], -r9
    2bd8:	e8080104 	stmda	r8, {r2, r8}
    2bdc:	05000000 	streq	r0, [r0, #-0]
    2be0:	000000b2 	strheq	r0, [r0], -r2
    2be4:	00046708 	andeq	r6, r4, r8, lsl #14
    2be8:	0e210200 	cdpeq	2, 2, cr0, cr1, cr0, {0}
    2bec:	000000ca 	andeq	r0, r0, sl, asr #1
    2bf0:	009d0409 	addseq	r0, sp, r9, lsl #8
    2bf4:	680a0000 	stmdavs	sl, {}	; <UNPREDICTABLE>
    2bf8:	01000005 	tsteq	r0, r5
    2bfc:	00250504 	eoreq	r0, r5, r4, lsl #10
    2c00:	8f380000 	svchi	0x00380000
    2c04:	002c0000 	eoreq	r0, ip, r0
    2c08:	9c010000 	stcls	0, cr0, [r1], {-0}
    2c0c:	0000014b 	andeq	r0, r0, fp, asr #2
    2c10:	31735f0b 	cmncc	r3, fp, lsl #30
    2c14:	19040100 	stmdbne	r4, {r8}
    2c18:	000000ac 	andeq	r0, r0, ip, lsr #1
    2c1c:	000014b2 			; <UNDEFINED> instruction: 0x000014b2
    2c20:	000014ae 	andeq	r1, r0, lr, lsr #9
    2c24:	32735f0b 	rsbscc	r5, r3, #11, 30	; 0x2c
    2c28:	2a040100 	bcs	103030 <__bss_end__+0xf9a80>
    2c2c:	000000ac 	andeq	r0, r0, ip, lsr #1
    2c30:	000014d7 	ldrdeq	r1, [r0], -r7
    2c34:	000014d3 	ldrdeq	r1, [r0], -r3
    2c38:	01006e0b 	tsteq	r0, fp, lsl #28
    2c3c:	002c3604 	eoreq	r3, ip, r4, lsl #12
    2c40:	14fe0000 	ldrbtne	r0, [lr], #0
    2c44:	14f80000 	ldrbtne	r0, [r8], #0
    2c48:	730c0000 	movwvc	r0, #49152	; 0xc000
    2c4c:	05010031 	streq	r0, [r1, #-49]	; 0xffffffcf
    2c50:	00014b1a 	andeq	r4, r1, sl, lsl fp
    2c54:	00153100 	andseq	r3, r5, r0, lsl #2
    2c58:	00152900 	andseq	r2, r5, r0, lsl #18
    2c5c:	32730c00 	rsbscc	r0, r3, #0, 24
    2c60:	2c050100 	stfcss	f0, [r5], {-0}
    2c64:	0000014b 	andeq	r0, r0, fp, asr #2
    2c68:	0000156d 	andeq	r1, r0, sp, ror #10
    2c6c:	00001567 	andeq	r1, r0, r7, ror #10
    2c70:	62040900 	andvs	r0, r4, #0, 18
    2c74:	00000000 	andeq	r0, r0, r0
    2c78:	000000ce 	andeq	r0, r0, lr, asr #1
    2c7c:	12720004 	rsbsne	r0, r2, #4, 0
    2c80:	01040000 	mrseq	r0, (UNDEF: 4)
    2c84:	0000033e 	andeq	r0, r0, lr, lsr r3
    2c88:	00091a0c 	andeq	r1, r9, ip, lsl #20
    2c8c:	00031700 	andeq	r1, r3, r0, lsl #14
    2c90:	008f6400 	addeq	r6, pc, r0, lsl #8
    2c94:	00000400 	andeq	r0, r0, r0, lsl #8
    2c98:	0016ae00 	andseq	sl, r6, r0, lsl #28
    2c9c:	05040200 	streq	r0, [r4, #-512]	; 0xfffffe00
    2ca0:	00746e69 	rsbseq	r6, r4, r9, ror #28
    2ca4:	ff070403 			; <UNDEFINED> instruction: 0xff070403
    2ca8:	03000000 	movweq	r0, #0
    2cac:	00e10601 	rsceq	r0, r1, r1, lsl #12
    2cb0:	02030000 	andeq	r0, r3, #0, 0
    2cb4:	00003f05 	andeq	r3, r0, r5, lsl #30
    2cb8:	05040300 	streq	r0, [r4, #-768]	; 0xfffffd00
    2cbc:	000000a2 	andeq	r0, r0, r2, lsr #1
    2cc0:	9d050803 	stcls	8, cr0, [r5, #-12]
    2cc4:	03000000 	movweq	r0, #0
    2cc8:	00df0801 	sbcseq	r0, pc, r1, lsl #16
    2ccc:	02030000 	andeq	r0, r3, #0, 0
    2cd0:	00011d07 	andeq	r1, r1, r7, lsl #26
    2cd4:	07040300 	streq	r0, [r4, -r0, lsl #6]
    2cd8:	000000fa 	strdeq	r0, [r0], -sl
    2cdc:	f5070803 			; <UNDEFINED> instruction: 0xf5070803
    2ce0:	04000000 	streq	r0, [r0], #-0
    2ce4:	00000025 	andeq	r0, r0, r5, lsr #32
    2ce8:	0000007a 	andeq	r0, r0, sl, ror r0
    2cec:	00002505 	andeq	r2, r0, r5, lsl #10
    2cf0:	4e060000 	cdpmi	0, 0, cr0, cr6, cr0, {0}
    2cf4:	02000000 	andeq	r0, r0, #0, 0
    2cf8:	00860e1c 	addeq	r0, r6, ip, lsl lr
    2cfc:	04070000 	streq	r0, [r7], #-0
    2d00:	0000006b 	andeq	r0, r0, fp, rrx
    2d04:	00002504 	andeq	r2, r0, r4, lsl #10
    2d08:	00009b00 	andeq	r9, r0, r0, lsl #22
    2d0c:	009b0500 	addseq	r0, fp, r0, lsl #10
    2d10:	07000000 	streq	r0, [r0, -r0]
    2d14:	0000a804 	andeq	sl, r0, r4, lsl #16
    2d18:	08010300 	stmdaeq	r1, {r8, r9}
    2d1c:	000000e8 	andeq	r0, r0, r8, ror #1
    2d20:	0000a108 	andeq	sl, r0, r8, lsl #2
    2d24:	04670600 	strbteq	r0, [r7], #-1536	; 0xfffffa00
    2d28:	21020000 	mrscs	r0, (UNDEF: 2)
    2d2c:	0000b90e 	andeq	fp, r0, lr, lsl #18
    2d30:	8c040700 	stchi	7, cr0, [r4], {-0}
    2d34:	09000000 	stmdbeq	r0, {}	; <UNPREDICTABLE>
    2d38:	00000636 	andeq	r0, r0, r6, lsr r6
    2d3c:	64060301 	strvs	r0, [r6], #-769	; 0xfffffcff
    2d40:	0400008f 	streq	r0, [r0], #-143	; 0xffffff71
    2d44:	01000000 	mrseq	r0, (UNDEF: 0)
    2d48:	Address 0x0000000000002d48 is out of bounds.


Disassembly of section .debug_abbrev:

00000000 <.debug_abbrev>:
       0:	25011101 	strcs	r1, [r1, #-257]	; 0xfffffeff
       4:	030b130e 	movweq	r1, #45838	; 0xb30e
       8:	110e1b0e 	tstne	lr, lr, lsl #22
       c:	10061201 	andne	r1, r6, r1, lsl #4
      10:	02000017 	andeq	r0, r0, #23, 0
      14:	0b0b0024 	bleq	2c00ac <__bss_end__+0x2b6afc>
      18:	08030b3e 	stmdaeq	r3, {r1, r2, r3, r4, r5, r8, r9, fp}
      1c:	24030000 	strcs	r0, [r3], #-0
      20:	3e0b0b00 	vmlacc.f64	d0, d11, d0
      24:	000e030b 	andeq	r0, lr, fp, lsl #6
      28:	00260400 	eoreq	r0, r6, r0, lsl #8
      2c:	00001349 	andeq	r1, r0, r9, asr #6
      30:	03001605 	movweq	r1, #1541	; 0x605
      34:	3b0b3a0e 	blcc	2ce874 <__bss_end__+0x2c52c4>
      38:	490b390b 	stmdbmi	fp, {r0, r1, r3, r8, fp, ip, sp}
      3c:	06000013 			; <UNDEFINED> instruction: 0x06000013
      40:	13490035 	movtne	r0, #36917	; 0x9035
      44:	15070000 	strne	r0, [r7, #-0]
      48:	49192701 	ldmdbmi	r9, {r0, r8, r9, sl, sp}
      4c:	00130113 	andseq	r0, r3, r3, lsl r1
      50:	00050800 	andeq	r0, r5, r0, lsl #16
      54:	00001349 	andeq	r1, r0, r9, asr #6
      58:	03003409 	movweq	r3, #1033	; 0x409
      5c:	3b0b3a0e 	blcc	2ce89c <__bss_end__+0x2c52ec>
      60:	490b390b 	stmdbmi	fp, {r0, r1, r3, r8, fp, ip, sp}
      64:	3c193f13 	ldccc	15, cr3, [r9], {19}
      68:	0a000019 	beq	d4 <__code_start__-0x7f2c>
      6c:	0b0b000f 	bleq	2c00b0 <__bss_end__+0x2b6b00>
      70:	00001349 	andeq	r1, r0, r9, asr #6
      74:	0b01130b 	bleq	44ca8 <__bss_end__+0x3b6f8>
      78:	3b0b3a0b 	blcc	2ce8ac <__bss_end__+0x2c52fc>
      7c:	010b390b 	tsteq	fp, fp, lsl #18
      80:	0c000013 	stceq	0, cr0, [r0], {19}
      84:	0803000d 	stmdaeq	r3, {r0, r2, r3}
      88:	0b3b0b3a 	bleq	ec2d78 <__bss_end__+0xeb97c8>
      8c:	13490b39 	movtne	r0, #39737	; 0x9b39
      90:	00000b38 	andeq	r0, r0, r8, lsr fp
      94:	03000d0d 	movweq	r0, #3341	; 0xd0d
      98:	3b0b3a0e 	blcc	2ce8d8 <__bss_end__+0x2c5328>
      9c:	490b390b 	stmdbmi	fp, {r0, r1, r3, r8, fp, ip, sp}
      a0:	000b3813 	andeq	r3, fp, r3, lsl r8
      a4:	00340e00 	eorseq	r0, r4, r0, lsl #28
      a8:	0b3a0e03 	bleq	e838bc <__bss_end__+0xe7a30c>
      ac:	0b390b3b 	bleq	e42da0 <__bss_end__+0xe397f0>
      b0:	061c1349 	ldreq	r1, [ip], -r9, asr #6
      b4:	340f0000 	strcc	r0, [pc], #-0	; bc <__code_start__-0x7f44>
      b8:	3a080300 	bcc	200cc0 <__bss_end__+0x1f7710>
      bc:	390b3b0b 	stmdbcc	fp, {r0, r1, r3, r8, r9, fp, ip, sp}
      c0:	0013490b 	andseq	r4, r3, fp, lsl #18
      c4:	012e1000 			; <UNDEFINED> instruction: 0x012e1000
      c8:	0e03193f 			; <UNDEFINED> instruction: 0x0e03193f
      cc:	0b3b0b3a 	bleq	ec2dbc <__bss_end__+0xeb980c>
      d0:	19270b39 	stmdbne	r7!, {r0, r3, r4, r5, r8, r9, fp}
      d4:	06120111 			; <UNDEFINED> instruction: 0x06120111
      d8:	42971840 	addsmi	r1, r7, #64, 16	; 0x400000
      dc:	00130119 	andseq	r0, r3, r9, lsl r1
      e0:	00341100 	eorseq	r1, r4, r0, lsl #2
      e4:	0b3a0803 	bleq	e820f8 <__bss_end__+0xe78b48>
      e8:	0b390b3b 	bleq	e42ddc <__bss_end__+0xe3982c>
      ec:	0b1c1349 	bleq	704e18 <__bss_end__+0x6fb868>
      f0:	34120000 	ldrcc	r0, [r2], #-0
      f4:	3a080300 	bcc	200cfc <__bss_end__+0x1f774c>
      f8:	390b3b0b 	stmdbcc	fp, {r0, r1, r3, r8, r9, fp, ip, sp}
      fc:	0213490b 	andseq	r4, r3, #180224	; 0x2c000
     100:	13000018 	movwne	r0, #24
     104:	1755010b 	ldrbne	r0, [r5, -fp, lsl #2]
     108:	00001301 	andeq	r1, r0, r1, lsl #6
     10c:	03003414 	movweq	r3, #1044	; 0x414
     110:	3b0b3a08 	blcc	2ce938 <__bss_end__+0x2c5388>
     114:	490b390b 	stmdbmi	fp, {r0, r1, r3, r8, fp, ip, sp}
     118:	b7170213 			; <UNDEFINED> instruction: 0xb7170213
     11c:	00001742 	andeq	r1, r0, r2, asr #14
     120:	55010b15 	strpl	r0, [r1, #-2837]	; 0xfffff4eb
     124:	16000017 			; <UNDEFINED> instruction: 0x16000017
     128:	1331011d 	teqne	r1, #1073741831	; 0x40000007
     12c:	42b80152 	adcsmi	r0, r8, #-2147483628	; 0x80000014
     130:	5817550b 	ldmdapl	r7, {r0, r1, r3, r8, sl, ip, lr}
     134:	570b590b 	strpl	r5, [fp, -fp, lsl #18]
     138:	0013010b 	andseq	r0, r3, fp, lsl #2
     13c:	00051700 	andeq	r1, r5, r0, lsl #14
     140:	17021331 	smladxne	r2, r1, r3, r1
     144:	001742b7 			; <UNDEFINED> instruction: 0x001742b7
     148:	00341800 	eorseq	r1, r4, r0, lsl #16
     14c:	17021331 	smladxne	r2, r1, r3, r1
     150:	001742b7 			; <UNDEFINED> instruction: 0x001742b7
     154:	010b1900 	tsteq	fp, r0, lsl #18
     158:	17551331 	smmlarne	r5, r1, r3, r1
     15c:	00001301 	andeq	r1, r0, r1, lsl #6
     160:	31010b1a 	tstcc	r1, sl, lsl fp
     164:	00175513 	andseq	r5, r7, r3, lsl r5
     168:	00341b00 	eorseq	r1, r4, r0, lsl #22
     16c:	00001331 	andeq	r1, r0, r1, lsr r3
     170:	0182891c 	orreq	r8, r2, ip, lsl r9
     174:	31011101 	tstcc	r1, r1, lsl #2
     178:	1d000013 	stcne	0, cr0, [r0, #-76]	; 0xffffffb4
     17c:	0001828a 	andeq	r8, r1, sl, lsl #5
     180:	42911802 	addsmi	r1, r1, #131072	; 0x20000
     184:	1e000018 	mcrne	0, 0, r0, cr0, cr8, {0}
     188:	01018289 	smlabbeq	r1, r9, r2, r8
     18c:	13310111 	teqne	r1, #1073741828	; 0x40000004
     190:	00001301 	andeq	r1, r0, r1, lsl #6
     194:	0182891f 	orreq	r8, r2, pc, lsl r9
     198:	31011100 	mrscc	r1, (UNDEF: 17)
     19c:	20000013 	andcs	r0, r0, r3, lsl r0
     1a0:	13490101 	movtne	r0, #37121	; 0x9101
     1a4:	00001301 	andeq	r1, r0, r1, lsl #6
     1a8:	49002121 	stmdbmi	r0, {r0, r5, r8, sp}
     1ac:	000b2f13 	andeq	r2, fp, r3, lsl pc
     1b0:	012e2200 			; <UNDEFINED> instruction: 0x012e2200
     1b4:	0e03193f 			; <UNDEFINED> instruction: 0x0e03193f
     1b8:	0b3b0b3a 	bleq	ec2ea8 <__bss_end__+0xeb98f8>
     1bc:	19270b39 	stmdbne	r7!, {r0, r3, r4, r5, r8, r9, fp}
     1c0:	01111349 	tsteq	r1, r9, asr #6
     1c4:	18400612 	stmdane	r0, {r1, r4, r9, sl}^
     1c8:	01194297 			; <UNDEFINED> instruction: 0x01194297
     1cc:	23000013 	movwcs	r0, #19
     1d0:	08030005 	stmdaeq	r3, {r0, r2}
     1d4:	0b3b0b3a 	bleq	ec2ec4 <__bss_end__+0xeb9914>
     1d8:	13490b39 	movtne	r0, #39737	; 0x9b39
     1dc:	42b71702 	adcsmi	r1, r7, #524288	; 0x80000
     1e0:	24000017 	strcs	r0, [r0], #-23	; 0xffffffe9
     1e4:	0e030005 	cdpeq	0, 0, cr0, cr3, cr5, {0}
     1e8:	0b3b0b3a 	bleq	ec2ed8 <__bss_end__+0xeb9928>
     1ec:	13490b39 	movtne	r0, #39737	; 0x9b39
     1f0:	42b71702 	adcsmi	r1, r7, #524288	; 0x80000
     1f4:	25000017 	strcs	r0, [r0, #-23]	; 0xffffffe9
     1f8:	0e030034 	mcreq	0, 0, r0, cr3, cr4, {1}
     1fc:	0b3b0b3a 	bleq	ec2eec <__bss_end__+0xeb993c>
     200:	13490b39 	movtne	r0, #39737	; 0x9b39
     204:	42b71702 	adcsmi	r1, r7, #524288	; 0x80000
     208:	26000017 			; <UNDEFINED> instruction: 0x26000017
     20c:	0111010b 	tsteq	r1, fp, lsl #2
     210:	13010612 	movwne	r0, #5650	; 0x1612
     214:	1d270000 	stcne	0, cr0, [r7, #-0]
     218:	52133100 	andspl	r3, r3, #0
     21c:	0b42b801 	bleq	10ae228 <__bss_end__+0x10a4c78>
     220:	0b581755 	bleq	1605f7c <__bss_end__+0x15fc9cc>
     224:	0b570b59 	bleq	15c2f90 <__bss_end__+0x15b99e0>
     228:	2e280000 	cdpcs	0, 2, cr0, cr8, cr0, {0}
     22c:	3a0e0300 	bcc	380e34 <__bss_end__+0x377884>
     230:	390b3b0b 	stmdbcc	fp, {r0, r1, r3, r8, r9, fp, ip, sp}
     234:	2013490b 	andscs	r4, r3, fp, lsl #18
     238:	2900000b 	stmdbcs	r0, {r0, r1, r3}
     23c:	0e03012e 	adfeqsp	f0, f3, #0.5
     240:	0b3b0b3a 	bleq	ec2f30 <__bss_end__+0xeb9980>
     244:	19270b39 	stmdbne	r7!, {r0, r3, r4, r5, r8, r9, fp}
     248:	0b201349 	bleq	804f74 <__bss_end__+0x7fb9c4>
     24c:	00001301 	andeq	r1, r0, r1, lsl #6
     250:	0300052a 	movweq	r0, #1322	; 0x52a
     254:	3b0b3a08 	blcc	2cea7c <__bss_end__+0x2c54cc>
     258:	490b390b 	stmdbmi	fp, {r0, r1, r3, r8, fp, ip, sp}
     25c:	2b000013 	blcs	2b0 <__code_start__-0x7d50>
     260:	0e030034 	mcreq	0, 0, r0, cr3, cr4, {1}
     264:	19341349 	ldmdbne	r4!, {r0, r3, r6, r8, r9, ip}
     268:	00000e1c 	andeq	r0, r0, ip, lsl lr
     26c:	0300052c 	movweq	r0, #1324	; 0x52c
     270:	3b0b3a0e 	blcc	2ceab0 <__bss_end__+0x2c5500>
     274:	490b390b 	stmdbmi	fp, {r0, r1, r3, r8, fp, ip, sp}
     278:	2d000013 	stccs	0, cr0, [r0, #-76]	; 0xffffffb4
     27c:	0e030034 	mcreq	0, 0, r0, cr3, cr4, {1}
     280:	0b3b0b3a 	bleq	ec2f70 <__bss_end__+0xeb99c0>
     284:	13490b39 	movtne	r0, #39737	; 0x9b39
     288:	0b2e0000 	bleq	b80290 <__bss_end__+0xb76ce0>
     28c:	2f000001 	svccs	0x00000001
     290:	193f002e 	ldmdbne	pc!, {r1, r2, r3, r5}	; <UNPREDICTABLE>
     294:	0e6e193c 			; <UNDEFINED> instruction: 0x0e6e193c
     298:	0b3a0e03 	bleq	e83aac <__bss_end__+0xe7a4fc>
     29c:	0b390b3b 	bleq	e42f90 <__bss_end__+0xe399e0>
     2a0:	01000000 	mrseq	r0, (UNDEF: 0)
     2a4:	0e250111 	mcreq	1, 1, r0, cr5, cr1, {0}
     2a8:	0e030b13 	vmoveq.32	d3[0], r0
     2ac:	01110e1b 	tsteq	r1, fp, lsl lr
     2b0:	17100612 			; <UNDEFINED> instruction: 0x17100612
     2b4:	24020000 	strcs	r0, [r2], #-0
     2b8:	3e0b0b00 	vmlacc.f64	d0, d11, d0
     2bc:	0008030b 	andeq	r0, r8, fp, lsl #6
     2c0:	00240300 	eoreq	r0, r4, r0, lsl #6
     2c4:	0b3e0b0b 	bleq	f82ef8 <__bss_end__+0xf79948>
     2c8:	00000e03 	andeq	r0, r0, r3, lsl #28
     2cc:	49002604 	stmdbmi	r0, {r2, r9, sl, sp}
     2d0:	05000013 	streq	r0, [r0, #-19]	; 0xffffffed
     2d4:	0e030016 	mcreq	0, 0, r0, cr3, cr6, {0}
     2d8:	0b3b0b3a 	bleq	ec2fc8 <__bss_end__+0xeb9a18>
     2dc:	13490b39 	movtne	r0, #39737	; 0x9b39
     2e0:	15060000 	strne	r0, [r6, #-0]
     2e4:	49192701 	ldmdbmi	r9, {r0, r8, r9, sl, sp}
     2e8:	00130113 	andseq	r0, r3, r3, lsl r1
     2ec:	00050700 	andeq	r0, r5, r0, lsl #14
     2f0:	00001349 	andeq	r1, r0, r9, asr #6
     2f4:	03003408 	movweq	r3, #1032	; 0x408
     2f8:	3b0b3a0e 	blcc	2ceb38 <__bss_end__+0x2c5588>
     2fc:	490b390b 	stmdbmi	fp, {r0, r1, r3, r8, fp, ip, sp}
     300:	3c193f13 	ldccc	15, cr3, [r9], {19}
     304:	09000019 	stmdbeq	r0, {r0, r3, r4}
     308:	0b0b000f 	bleq	2c034c <__bss_end__+0x2b6d9c>
     30c:	00001349 	andeq	r1, r0, r9, asr #6
     310:	3e01040a 	cdpcc	4, 0, cr0, cr1, cr10, {0}
     314:	490b0b0b 	stmdbmi	fp, {r0, r1, r3, r8, r9, fp}
     318:	3b0b3a13 	blcc	2ceb6c <__bss_end__+0x2c55bc>
     31c:	010b390b 	tsteq	fp, fp, lsl #18
     320:	0b000013 	bleq	374 <__code_start__-0x7c8c>
     324:	0e030028 	cdpeq	0, 0, cr0, cr3, cr8, {1}
     328:	00000b1c 	andeq	r0, r0, ip, lsl fp
     32c:	0300340c 	movweq	r3, #1036	; 0x40c
     330:	3b0b3a0e 	blcc	2ceb70 <__bss_end__+0x2c55c0>
     334:	490b390b 	stmdbmi	fp, {r0, r1, r3, r8, fp, ip, sp}
     338:	00061c13 	andeq	r1, r6, r3, lsl ip
     33c:	012e0d00 			; <UNDEFINED> instruction: 0x012e0d00
     340:	0e03193f 			; <UNDEFINED> instruction: 0x0e03193f
     344:	0b3b0b3a 	bleq	ec3034 <__bss_end__+0xeb9a84>
     348:	19270b39 	stmdbne	r7!, {r0, r3, r4, r5, r8, r9, fp}
     34c:	01111349 	tsteq	r1, r9, asr #6
     350:	18400612 	stmdane	r0, {r1, r4, r9, sl}^
     354:	01194297 			; <UNDEFINED> instruction: 0x01194297
     358:	0e000013 	mcreq	0, 0, r0, cr0, cr3, {0}
     35c:	08030005 	stmdaeq	r3, {r0, r2}
     360:	0b3b0b3a 	bleq	ec3050 <__bss_end__+0xeb9aa0>
     364:	13490b39 	movtne	r0, #39737	; 0x9b39
     368:	42b71702 	adcsmi	r1, r7, #524288	; 0x80000
     36c:	0f000017 	svceq	0x00000017
     370:	0e030034 	mcreq	0, 0, r0, cr3, cr4, {1}
     374:	0b3b0b3a 	bleq	ec3064 <__bss_end__+0xeb9ab4>
     378:	13490b39 	movtne	r0, #39737	; 0x9b39
     37c:	42b71702 	adcsmi	r1, r7, #524288	; 0x80000
     380:	10000017 	andne	r0, r0, r7, lsl r0
     384:	08030034 	stmdaeq	r3, {r2, r4, r5}
     388:	0b3b0b3a 	bleq	ec3078 <__bss_end__+0xeb9ac8>
     38c:	13490b39 	movtne	r0, #39737	; 0x9b39
     390:	42b71702 	adcsmi	r1, r7, #524288	; 0x80000
     394:	11000017 	tstne	r0, r7, lsl r0
     398:	01018289 	smlabbeq	r1, r9, r2, r8
     39c:	13310111 	teqne	r1, #1073741828	; 0x40000004
     3a0:	8a120000 	bhi	4803a8 <__bss_end__+0x476df8>
     3a4:	02000182 	andeq	r0, r0, #-2147483616	; 0x80000020
     3a8:	18429118 	stmdane	r2, {r3, r4, r8, ip, pc}^
     3ac:	2e130000 	cdpcs	0, 1, cr0, cr3, cr0, {0}
     3b0:	03193f01 	tsteq	r9, #1, 30
     3b4:	3b0b3a0e 	blcc	2cebf4 <__bss_end__+0x2c5644>
     3b8:	270b390b 	strcs	r3, [fp, -fp, lsl #18]
     3bc:	12011119 	andne	r1, r1, #1073741830	; 0x40000006
     3c0:	97184006 	ldrls	r4, [r8, -r6]
     3c4:	13011942 	movwne	r1, #6466	; 0x1942
     3c8:	89140000 	ldmdbhi	r4, {}	; <UNPREDICTABLE>
     3cc:	11010182 	smlabbne	r1, r2, r1, r0
     3d0:	01133101 	tsteq	r3, r1, lsl #2
     3d4:	15000013 	strne	r0, [r0, #-19]	; 0xffffffed
     3d8:	00018289 	andeq	r8, r1, r9, lsl #5
     3dc:	13310111 	teqne	r1, #1073741828	; 0x40000004
     3e0:	05160000 	ldreq	r0, [r6, #-0]
     3e4:	3a0e0300 	bcc	380fec <__bss_end__+0x377a3c>
     3e8:	390b3b0b 	stmdbcc	fp, {r0, r1, r3, r8, r9, fp, ip, sp}
     3ec:	0213490b 	andseq	r4, r3, #180224	; 0x2c000
     3f0:	1742b717 	smlaldne	fp, r2, r7, r7
     3f4:	2e170000 	cdpcs	0, 1, cr0, cr7, cr0, {0}
     3f8:	3a0e0301 	bcc	381004 <__bss_end__+0x377a54>
     3fc:	390b3b0b 	stmdbcc	fp, {r0, r1, r3, r8, r9, fp, ip, sp}
     400:	4919270b 	ldmdbmi	r9, {r0, r1, r3, r8, r9, sl, sp}
     404:	010b2013 	tsteq	fp, r3, lsl r0
     408:	18000013 	stmdane	r0, {r0, r1, r4}
     40c:	08030005 	stmdaeq	r3, {r0, r2}
     410:	0b3b0b3a 	bleq	ec3100 <__bss_end__+0xeb9b50>
     414:	13490b39 	movtne	r0, #39737	; 0x9b39
     418:	2e190000 	cdpcs	0, 1, cr0, cr9, cr0, {0}
     41c:	3c193f00 	ldccc	15, cr3, [r9], {-0}
     420:	030e6e19 	movweq	r6, #60953	; 0xee19
     424:	3b0b3a0e 	blcc	2cec64 <__bss_end__+0x2c56b4>
     428:	000b390b 	andeq	r3, fp, fp, lsl #18
     42c:	11010000 	mrsne	r0, (UNDEF: 1)
     430:	130e2501 	movwne	r2, #58625	; 0xe501
     434:	1b0e030b 	blne	381068 <__bss_end__+0x377ab8>
     438:	1201110e 	andne	r1, r1, #-2147483645	; 0x80000003
     43c:	00171006 	andseq	r1, r7, r6
     440:	00160200 	andseq	r0, r6, r0, lsl #4
     444:	0b3a0e03 	bleq	e83c58 <__bss_end__+0xe7a6a8>
     448:	0b390b3b 	bleq	e4313c <__bss_end__+0xe39b8c>
     44c:	00001349 	andeq	r1, r0, r9, asr #6
     450:	03011303 	movweq	r1, #4867	; 0x1303
     454:	3a0b0b0e 	bcc	2c3094 <__bss_end__+0x2b9ae4>
     458:	010b3b0b 	tsteq	fp, fp, lsl #22
     45c:	04000013 	streq	r0, [r0], #-19	; 0xffffffed
     460:	0e03000d 	cdpeq	0, 0, cr0, cr3, cr13, {0}
     464:	0b381349 	bleq	e05190 <__bss_end__+0xdfbbe0>
     468:	00001934 	andeq	r1, r0, r4, lsr r9
     46c:	0b000f05 	bleq	4088 <__code_start__-0x3f78>
     470:	0600000b 	streq	r0, [r0], -fp
     474:	0b0b0024 	bleq	2c050c <__bss_end__+0x2b6f5c>
     478:	08030b3e 	stmdaeq	r3, {r1, r2, r3, r4, r5, r8, r9, fp}
     47c:	24070000 	strcs	r0, [r7], #-0
     480:	3e0b0b00 	vmlacc.f64	d0, d11, d0
     484:	000e030b 	andeq	r0, lr, fp, lsl #6
     488:	01150800 	tsteq	r5, r0, lsl #16
     48c:	13491927 	movtne	r1, #39207	; 0x9927
     490:	00001301 	andeq	r1, r0, r1, lsl #6
     494:	49000509 	stmdbmi	r0, {r0, r3, r8, sl}
     498:	0a000013 	beq	4ec <__code_start__-0x7b14>
     49c:	0e030034 	mcreq	0, 0, r0, cr3, cr4, {1}
     4a0:	0b3b0b3a 	bleq	ec3190 <__bss_end__+0xeb9be0>
     4a4:	13490b39 	movtne	r0, #39737	; 0x9b39
     4a8:	193c193f 	ldmdbne	ip!, {r0, r1, r2, r3, r4, r5, r8, fp, ip}
     4ac:	0f0b0000 	svceq	0x000b0000
     4b0:	490b0b00 	stmdbmi	fp, {r8, r9, fp}
     4b4:	0c000013 	stceq	0, cr0, [r0], {19}
     4b8:	13490026 	movtne	r0, #36902	; 0x9026
     4bc:	2e0d0000 	cdpcs	0, 0, cr0, cr13, cr0, {0}
     4c0:	03193f01 	tsteq	r9, #1, 30
     4c4:	3b0b3a0e 	blcc	2ced04 <__bss_end__+0x2c5754>
     4c8:	270b390b 	strcs	r3, [fp, -fp, lsl #18]
     4cc:	11134919 	tstne	r3, r9, lsl r9
     4d0:	40061201 	andmi	r1, r6, r1, lsl #4
     4d4:	19429718 	stmdbne	r2, {r3, r4, r8, r9, sl, ip, pc}^
     4d8:	00001301 	andeq	r1, r0, r1, lsl #6
     4dc:	0300050e 	movweq	r0, #1294	; 0x50e
     4e0:	3b0b3a08 	blcc	2ced08 <__bss_end__+0x2c5758>
     4e4:	490b390b 	stmdbmi	fp, {r0, r1, r3, r8, fp, ip, sp}
     4e8:	00180213 	andseq	r0, r8, r3, lsl r2
     4ec:	00180f00 	andseq	r0, r8, r0, lsl #30
     4f0:	34100000 	ldrcc	r0, [r0], #-0
     4f4:	3a080300 	bcc	2010fc <__bss_end__+0x1f7b4c>
     4f8:	390b3b0b 	stmdbcc	fp, {r0, r1, r3, r8, r9, fp, ip, sp}
     4fc:	0213490b 	andseq	r4, r3, #180224	; 0x2c000
     500:	11000018 	tstne	r0, r8, lsl r0
     504:	0e030034 	mcreq	0, 0, r0, cr3, cr4, {1}
     508:	0b3b0b3a 	bleq	ec31f8 <__bss_end__+0xeb9c48>
     50c:	13490b39 	movtne	r0, #39737	; 0x9b39
     510:	00001802 	andeq	r1, r0, r2, lsl #16
     514:	03003412 	movweq	r3, #1042	; 0x412
     518:	3b0b3a08 	blcc	2ced40 <__bss_end__+0x2c5790>
     51c:	490b390b 	stmdbmi	fp, {r0, r1, r3, r8, fp, ip, sp}
     520:	b7170213 			; <UNDEFINED> instruction: 0xb7170213
     524:	00001742 	andeq	r1, r0, r2, asr #14
     528:	01828913 	orreq	r8, r2, r3, lsl r9
     52c:	31011101 	tstcc	r1, r1, lsl #2
     530:	00130113 	andseq	r0, r3, r3, lsl r1
     534:	828a1400 	addhi	r1, sl, #0, 8
     538:	18020001 	stmdane	r2, {r0}
     53c:	00184291 	mulseq	r8, r1, r2
     540:	82891500 	addhi	r1, r9, #0, 10
     544:	01110101 	tsteq	r1, r1, lsl #2
     548:	01160000 	tsteq	r6, r0
     54c:	01134901 	tsteq	r3, r1, lsl #18
     550:	17000013 	smladne	r0, r3, r0, r0
     554:	13490021 	movtne	r0, #36897	; 0x9021
     558:	0000052f 	andeq	r0, r0, pc, lsr #10
     55c:	3f002e18 	svccc	0x00002e18
     560:	6e193c19 	mrcvs	12, 0, r3, cr9, cr9, {0}
     564:	3a0e030e 	bcc	3811a4 <__bss_end__+0x377bf4>
     568:	390b3b0b 	stmdbcc	fp, {r0, r1, r3, r8, r9, fp, ip, sp}
     56c:	0000000b 	andeq	r0, r0, fp
     570:	25011101 	strcs	r1, [r1, #-257]	; 0xfffffeff
     574:	030b130e 	movweq	r1, #45838	; 0xb30e
     578:	110e1b0e 	tstne	lr, lr, lsl #22
     57c:	10061201 	andne	r1, r6, r1, lsl #4
     580:	02000017 	andeq	r0, r0, #23, 0
     584:	0b0b0024 	bleq	2c061c <__bss_end__+0x2b706c>
     588:	08030b3e 	stmdaeq	r3, {r1, r2, r3, r4, r5, r8, r9, fp}
     58c:	24030000 	strcs	r0, [r3], #-0
     590:	3e0b0b00 	vmlacc.f64	d0, d11, d0
     594:	000e030b 	andeq	r0, lr, fp, lsl #6
     598:	01150400 	tsteq	r5, r0, lsl #8
     59c:	13491927 	movtne	r1, #39207	; 0x9927
     5a0:	00001301 	andeq	r1, r0, r1, lsl #6
     5a4:	49000505 	stmdbmi	r0, {r0, r2, r8, sl}
     5a8:	06000013 			; <UNDEFINED> instruction: 0x06000013
     5ac:	0e030034 	mcreq	0, 0, r0, cr3, cr4, {1}
     5b0:	0b3b0b3a 	bleq	ec32a0 <__bss_end__+0xeb9cf0>
     5b4:	13490b39 	movtne	r0, #39737	; 0x9b39
     5b8:	193c193f 	ldmdbne	ip!, {r0, r1, r2, r3, r4, r5, r8, fp, ip}
     5bc:	0f070000 	svceq	0x00070000
     5c0:	490b0b00 	stmdbmi	fp, {r8, r9, fp}
     5c4:	08000013 	stmdaeq	r0, {r0, r1, r4}
     5c8:	13490026 	movtne	r0, #36902	; 0x9026
     5cc:	34090000 	strcc	r0, [r9], #-0
     5d0:	3a134700 	bcc	4d21d8 <__bss_end__+0x4c8c28>
     5d4:	390b3b0b 	stmdbcc	fp, {r0, r1, r3, r8, r9, fp, ip, sp}
     5d8:	0018020b 	andseq	r0, r8, fp, lsl #4
     5dc:	012e0a00 			; <UNDEFINED> instruction: 0x012e0a00
     5e0:	0e03193f 			; <UNDEFINED> instruction: 0x0e03193f
     5e4:	0b3b0b3a 	bleq	ec32d4 <__bss_end__+0xeb9d24>
     5e8:	19270b39 	stmdbne	r7!, {r0, r3, r4, r5, r8, r9, fp}
     5ec:	01111349 	tsteq	r1, r9, asr #6
     5f0:	18400612 	stmdane	r0, {r1, r4, r9, sl}^
     5f4:	00194296 	mulseq	r9, r6, r2
     5f8:	00050b00 	andeq	r0, r5, r0, lsl #22
     5fc:	0b3a0803 	bleq	e82610 <__bss_end__+0xe79060>
     600:	0b390b3b 	bleq	e432f4 <__bss_end__+0xe39d44>
     604:	17021349 	strne	r1, [r2, -r9, asr #6]
     608:	001742b7 			; <UNDEFINED> instruction: 0x001742b7
     60c:	11010000 	mrsne	r0, (UNDEF: 1)
     610:	130e2501 	movwne	r2, #58625	; 0xe501
     614:	1b0e030b 	blne	381248 <__bss_end__+0x377c98>
     618:	1201110e 	andne	r1, r1, #-2147483645	; 0x80000003
     61c:	00171006 	andseq	r1, r7, r6
     620:	00240200 	eoreq	r0, r4, r0, lsl #4
     624:	0b3e0b0b 	bleq	f83258 <__bss_end__+0xf79ca8>
     628:	00000803 	andeq	r0, r0, r3, lsl #16
     62c:	0b002403 	bleq	9640 <__bss_end__+0x90>
     630:	030b3e0b 	movweq	r3, #48651	; 0xbe0b
     634:	0400000e 	streq	r0, [r0], #-14
     638:	0e030016 	mcreq	0, 0, r0, cr3, cr6, {0}
     63c:	0b3b0b3a 	bleq	ec332c <__bss_end__+0xeb9d7c>
     640:	13490b39 	movtne	r0, #39737	; 0x9b39
     644:	15050000 	strne	r0, [r5, #-0]
     648:	49192701 	ldmdbmi	r9, {r0, r8, r9, sl, sp}
     64c:	00130113 	andseq	r0, r3, r3, lsl r1
     650:	00050600 	andeq	r0, r5, r0, lsl #12
     654:	00001349 	andeq	r1, r0, r9, asr #6
     658:	03003407 	movweq	r3, #1031	; 0x407
     65c:	3b0b3a0e 	blcc	2cee9c <__bss_end__+0x2c58ec>
     660:	490b390b 	stmdbmi	fp, {r0, r1, r3, r8, fp, ip, sp}
     664:	3c193f13 	ldccc	15, cr3, [r9], {19}
     668:	08000019 	stmdaeq	r0, {r0, r3, r4}
     66c:	0b0b000f 	bleq	2c06b0 <__bss_end__+0x2b7100>
     670:	00001349 	andeq	r1, r0, r9, asr #6
     674:	49002609 	stmdbmi	r0, {r0, r3, r9, sl, sp}
     678:	0a000013 	beq	6cc <__code_start__-0x7934>
     67c:	0e030113 	mcreq	1, 0, r0, cr3, cr3, {0}
     680:	0b3a0b0b 	bleq	e832b4 <__bss_end__+0xe79d04>
     684:	13010b3b 	movwne	r0, #6971	; 0x1b3b
     688:	0d0b0000 	stceq	0, cr0, [fp, #-0]
     68c:	490e0300 	stmdbmi	lr, {r8, r9}
     690:	340b3813 	strcc	r3, [fp], #-2067	; 0xfffff7ed
     694:	0c000019 	stceq	0, cr0, [r0], {25}
     698:	0b0b000f 	bleq	2c06dc <__bss_end__+0x2b712c>
     69c:	2e0d0000 	cdpcs	0, 0, cr0, cr13, cr0, {0}
     6a0:	03193f01 	tsteq	r9, #1, 30
     6a4:	3b0b3a0e 	blcc	2ceee4 <__bss_end__+0x2c5934>
     6a8:	270b390b 	strcs	r3, [fp, -fp, lsl #18]
     6ac:	11134919 	tstne	r3, r9, lsl r9
     6b0:	40061201 	andmi	r1, r6, r1, lsl #4
     6b4:	19429718 	stmdbne	r2, {r3, r4, r8, r9, sl, ip, pc}^
     6b8:	00001301 	andeq	r1, r0, r1, lsl #6
     6bc:	0300050e 	movweq	r0, #1294	; 0x50e
     6c0:	3b0b3a08 	blcc	2ceee8 <__bss_end__+0x2c5938>
     6c4:	490b390b 	stmdbmi	fp, {r0, r1, r3, r8, fp, ip, sp}
     6c8:	b7170213 			; <UNDEFINED> instruction: 0xb7170213
     6cc:	00001742 	andeq	r1, r0, r2, asr #14
     6d0:	0300050f 	movweq	r0, #1295	; 0x50f
     6d4:	3b0b3a0e 	blcc	2cef14 <__bss_end__+0x2c5964>
     6d8:	490b390b 	stmdbmi	fp, {r0, r1, r3, r8, fp, ip, sp}
     6dc:	00180213 	andseq	r0, r8, r3, lsl r2
     6e0:	00341000 	eorseq	r1, r4, r0
     6e4:	0b3a0803 	bleq	e826f8 <__bss_end__+0xe79148>
     6e8:	0b390b3b 	bleq	e433dc <__bss_end__+0xe39e2c>
     6ec:	17021349 	strne	r1, [r2, -r9, asr #6]
     6f0:	001742b7 			; <UNDEFINED> instruction: 0x001742b7
     6f4:	00341100 	eorseq	r1, r4, r0, lsl #2
     6f8:	0b3a0e03 	bleq	e83f0c <__bss_end__+0xe7a95c>
     6fc:	0b390b3b 	bleq	e433f0 <__bss_end__+0xe39e40>
     700:	17021349 	strne	r1, [r2, -r9, asr #6]
     704:	001742b7 			; <UNDEFINED> instruction: 0x001742b7
     708:	00341200 	eorseq	r1, r4, r0, lsl #4
     70c:	13490e03 	movtne	r0, #40451	; 0x9e03
     710:	18021934 	stmdane	r2, {r2, r4, r5, r8, fp, ip}
     714:	0b130000 	bleq	4c071c <__bss_end__+0x4b716c>
     718:	12011101 	andne	r1, r1, #1073741824	; 0x40000000
     71c:	14000006 	strne	r0, [r0], #-6
     720:	08030034 	stmdaeq	r3, {r2, r4, r5}
     724:	0b3b0b3a 	bleq	ec3414 <__bss_end__+0xeb9e64>
     728:	13490b39 	movtne	r0, #39737	; 0x9b39
     72c:	00001802 	andeq	r1, r0, r2, lsl #16
     730:	03003415 	movweq	r3, #1045	; 0x415
     734:	3b0b3a0e 	blcc	2cef74 <__bss_end__+0x2c59c4>
     738:	490b390b 	stmdbmi	fp, {r0, r1, r3, r8, fp, ip, sp}
     73c:	00180213 	andseq	r0, r8, r3, lsl r2
     740:	010b1600 	tsteq	fp, r0, lsl #12
     744:	06120111 			; <UNDEFINED> instruction: 0x06120111
     748:	00001301 	andeq	r1, r0, r1, lsl #6
     74c:	03003417 	movweq	r3, #1047	; 0x417
     750:	3b0b3a08 	blcc	2cef78 <__bss_end__+0x2c59c8>
     754:	490b390b 	stmdbmi	fp, {r0, r1, r3, r8, fp, ip, sp}
     758:	18000013 	stmdane	r0, {r0, r1, r4}
     75c:	01018289 	smlabbeq	r1, r9, r2, r8
     760:	13310111 	teqne	r1, #1073741828	; 0x40000004
     764:	00001301 	andeq	r1, r0, r1, lsl #6
     768:	01828a19 	orreq	r8, r2, r9, lsl sl
     76c:	91180200 	tstls	r8, r0, lsl #4
     770:	00001842 	andeq	r1, r0, r2, asr #16
     774:	0182891a 	orreq	r8, r2, sl, lsl r9
     778:	31011100 	mrscc	r1, (UNDEF: 17)
     77c:	1b000013 	blne	7d0 <__code_start__-0x7830>
     780:	01018289 	smlabbeq	r1, r9, r2, r8
     784:	13010111 	movwne	r0, #4369	; 0x1111
     788:	011c0000 	tsteq	ip, r0
     78c:	01134901 	tsteq	r3, r1, lsl #18
     790:	1d000013 	stcne	0, cr0, [r0, #-76]	; 0xffffffb4
     794:	13490021 	movtne	r0, #36897	; 0x9021
     798:	00000b2f 	andeq	r0, r0, pc, lsr #22
     79c:	03012e1e 	movweq	r2, #7710	; 0x1e1e
     7a0:	3b0b3a0e 	blcc	2cefe0 <__bss_end__+0x2c5a30>
     7a4:	270b390b 	strcs	r3, [fp, -fp, lsl #18]
     7a8:	11134919 	tstne	r3, r9, lsl r9
     7ac:	40061201 	andmi	r1, r6, r1, lsl #4
     7b0:	19429718 	stmdbne	r2, {r3, r4, r8, r9, sl, ip, pc}^
     7b4:	00001301 	andeq	r1, r0, r1, lsl #6
     7b8:	0300051f 	movweq	r0, #1311	; 0x51f
     7bc:	3b0b3a0e 	blcc	2ceffc <__bss_end__+0x2c5a4c>
     7c0:	490b390b 	stmdbmi	fp, {r0, r1, r3, r8, fp, ip, sp}
     7c4:	b7170213 			; <UNDEFINED> instruction: 0xb7170213
     7c8:	00001742 	andeq	r1, r0, r2, asr #14
     7cc:	03012e20 	movweq	r2, #7712	; 0x1e20
     7d0:	3b0b3a08 	blcc	2ceff8 <__bss_end__+0x2c5a48>
     7d4:	270b390b 	strcs	r3, [fp, -fp, lsl #18]
     7d8:	11134919 	tstne	r3, r9, lsl r9
     7dc:	40061201 	andmi	r1, r6, r1, lsl #4
     7e0:	19429718 	stmdbne	r2, {r3, r4, r8, r9, sl, ip, pc}^
     7e4:	00001301 	andeq	r1, r0, r1, lsl #6
     7e8:	3f012e21 	svccc	0x00012e21
     7ec:	3a0e0319 	bcc	381458 <__bss_end__+0x377ea8>
     7f0:	390b3b0b 	stmdbcc	fp, {r0, r1, r3, r8, r9, fp, ip, sp}
     7f4:	1119270b 	tstne	r9, fp, lsl #14
     7f8:	40061201 	andmi	r1, r6, r1, lsl #4
     7fc:	19429718 	stmdbne	r2, {r3, r4, r8, r9, sl, ip, pc}^
     800:	00001301 	andeq	r1, r0, r1, lsl #6
     804:	3f002e22 	svccc	0x00002e22
     808:	6e193c19 	mrcvs	12, 0, r3, cr9, cr9, {0}
     80c:	3a0e030e 	bcc	38144c <__bss_end__+0x377e9c>
     810:	390b3b0b 	stmdbcc	fp, {r0, r1, r3, r8, r9, fp, ip, sp}
     814:	0000000b 	andeq	r0, r0, fp
     818:	25011101 	strcs	r1, [r1, #-257]	; 0xfffffeff
     81c:	030b130e 	movweq	r1, #45838	; 0xb30e
     820:	550e1b0e 	strpl	r1, [lr, #-2830]	; 0xfffff4f2
     824:	10011117 	andne	r1, r1, r7, lsl r1
     828:	02000017 	andeq	r0, r0, #23, 0
     82c:	0b0b0024 	bleq	2c08c4 <__bss_end__+0x2b7314>
     830:	08030b3e 	stmdaeq	r3, {r1, r2, r3, r4, r5, r8, r9, fp}
     834:	24030000 	strcs	r0, [r3], #-0
     838:	3e0b0b00 	vmlacc.f64	d0, d11, d0
     83c:	000e030b 	andeq	r0, lr, fp, lsl #6
     840:	01150400 	tsteq	r5, r0, lsl #8
     844:	13491927 	movtne	r1, #39207	; 0x9927
     848:	00001301 	andeq	r1, r0, r1, lsl #6
     84c:	49000505 	stmdbmi	r0, {r0, r2, r8, sl}
     850:	06000013 			; <UNDEFINED> instruction: 0x06000013
     854:	0e030034 	mcreq	0, 0, r0, cr3, cr4, {1}
     858:	0b3b0b3a 	bleq	ec3548 <__bss_end__+0xeb9f98>
     85c:	13490b39 	movtne	r0, #39737	; 0x9b39
     860:	193c193f 	ldmdbne	ip!, {r0, r1, r2, r3, r4, r5, r8, fp, ip}
     864:	0f070000 	svceq	0x00070000
     868:	490b0b00 	stmdbmi	fp, {r8, r9, fp}
     86c:	08000013 	stmdaeq	r0, {r0, r1, r4}
     870:	13490026 	movtne	r0, #36902	; 0x9026
     874:	2e090000 	cdpcs	0, 0, cr0, cr9, cr0, {0}
     878:	03193f01 	tsteq	r9, #1, 30
     87c:	3b0b3a0e 	blcc	2cf0bc <__bss_end__+0x2c5b0c>
     880:	270b390b 	strcs	r3, [fp, -fp, lsl #18]
     884:	12011119 	andne	r1, r1, #1073741830	; 0x40000006
     888:	97184006 	ldrls	r4, [r8, -r6]
     88c:	13011942 	movwne	r1, #6466	; 0x1942
     890:	340a0000 	strcc	r0, [sl], #-0
     894:	3a080300 	bcc	20149c <__bss_end__+0x1f7eec>
     898:	390b3b0b 	stmdbcc	fp, {r0, r1, r3, r8, r9, fp, ip, sp}
     89c:	0213490b 	andseq	r4, r3, #180224	; 0x2c000
     8a0:	1742b717 	smlaldne	fp, r2, r7, r7
     8a4:	2e0b0000 	cdpcs	0, 0, cr0, cr11, cr0, {0}
     8a8:	03193f01 	tsteq	r9, #1, 30
     8ac:	3b0b3a0e 	blcc	2cf0ec <__bss_end__+0x2c5b3c>
     8b0:	270b390b 	strcs	r3, [fp, -fp, lsl #18]
     8b4:	12011119 	andne	r1, r1, #1073741830	; 0x40000006
     8b8:	97184006 	ldrls	r4, [r8, -r6]
     8bc:	00001942 	andeq	r1, r0, r2, asr #18
     8c0:	01110100 	tsteq	r1, r0, lsl #2
     8c4:	0b130e25 	bleq	4c4160 <__bss_end__+0x4babb0>
     8c8:	0e1b0e03 	cdpeq	14, 1, cr0, cr11, cr3, {0}
     8cc:	06120111 			; <UNDEFINED> instruction: 0x06120111
     8d0:	00001710 	andeq	r1, r0, r0, lsl r7
     8d4:	0b002402 	bleq	98e4 <__bss_end__+0x334>
     8d8:	030b3e0b 	movweq	r3, #48651	; 0xbe0b
     8dc:	03000008 	movweq	r0, #8
     8e0:	0b0b0024 	bleq	2c0978 <__bss_end__+0x2b73c8>
     8e4:	0e030b3e 	vmoveq.16	d3[0], r0
     8e8:	15040000 	strne	r0, [r4, #-0]
     8ec:	49192701 	ldmdbmi	r9, {r0, r8, r9, sl, sp}
     8f0:	00130113 	andseq	r0, r3, r3, lsl r1
     8f4:	00050500 	andeq	r0, r5, r0, lsl #10
     8f8:	00001349 	andeq	r1, r0, r9, asr #6
     8fc:	03003406 	movweq	r3, #1030	; 0x406
     900:	3b0b3a0e 	blcc	2cf140 <__bss_end__+0x2c5b90>
     904:	490b390b 	stmdbmi	fp, {r0, r1, r3, r8, fp, ip, sp}
     908:	3c193f13 	ldccc	15, cr3, [r9], {19}
     90c:	07000019 	smladeq	r0, r9, r0, r0
     910:	0b0b000f 	bleq	2c0954 <__bss_end__+0x2b73a4>
     914:	00001349 	andeq	r1, r0, r9, asr #6
     918:	49002608 	stmdbmi	r0, {r3, r9, sl, sp}
     91c:	09000013 	stmdbeq	r0, {r0, r1, r4}
     920:	193f012e 	ldmdbne	pc!, {r1, r2, r3, r5, r8}	; <UNPREDICTABLE>
     924:	0b3a0e03 	bleq	e84138 <__bss_end__+0xe7ab88>
     928:	0b390b3b 	bleq	e4361c <__bss_end__+0xe3a06c>
     92c:	01871927 	orreq	r1, r7, r7, lsr #18
     930:	12011119 	andne	r1, r1, #1073741830	; 0x40000006
     934:	97184006 	ldrls	r4, [r8, -r6]
     938:	13011942 	movwne	r1, #6466	; 0x1942
     93c:	890a0000 	stmdbhi	sl, {}	; <UNPREDICTABLE>
     940:	11010182 	smlabbne	r1, r2, r1, r0
     944:	00130101 	andseq	r0, r3, r1, lsl #2
     948:	828a0b00 	addhi	r0, sl, #0, 22
     94c:	18020001 	stmdane	r2, {r0}
     950:	00184291 	mulseq	r8, r1, r2
     954:	82890c00 	addhi	r0, r9, #0, 24
     958:	01110001 	tsteq	r1, r1
     95c:	00001331 	andeq	r1, r0, r1, lsr r3
     960:	0182890d 	orreq	r8, r2, sp, lsl #18
     964:	31011101 	tstcc	r1, r1, lsl #2
     968:	00130113 	andseq	r0, r3, r3, lsl r1
     96c:	002e0e00 	eoreq	r0, lr, r0, lsl #28
     970:	193c193f 	ldmdbne	ip!, {r0, r1, r2, r3, r4, r5, r8, fp, ip}
     974:	0e030e6e 	cdpeq	14, 0, cr0, cr3, cr14, {3}
     978:	0b3b0b3a 	bleq	ec3668 <__bss_end__+0xeba0b8>
     97c:	00000b39 	andeq	r0, r0, r9, lsr fp
     980:	01110100 	tsteq	r1, r0, lsl #2
     984:	0b130e25 	bleq	4c4220 <__bss_end__+0x4bac70>
     988:	0e1b0e03 	cdpeq	14, 1, cr0, cr11, cr3, {0}
     98c:	06120111 			; <UNDEFINED> instruction: 0x06120111
     990:	00001710 	andeq	r1, r0, r0, lsl r7
     994:	0b002402 	bleq	99a4 <__bss_end__+0x3f4>
     998:	030b3e0b 	movweq	r3, #48651	; 0xbe0b
     99c:	03000008 	movweq	r0, #8
     9a0:	0b0b0024 	bleq	2c0a38 <__bss_end__+0x2b7488>
     9a4:	0e030b3e 	vmoveq.16	d3[0], r0
     9a8:	15040000 	strne	r0, [r4, #-0]
     9ac:	49192701 	ldmdbmi	r9, {r0, r8, r9, sl, sp}
     9b0:	00130113 	andseq	r0, r3, r3, lsl r1
     9b4:	00050500 	andeq	r0, r5, r0, lsl #10
     9b8:	00001349 	andeq	r1, r0, r9, asr #6
     9bc:	03003406 	movweq	r3, #1030	; 0x406
     9c0:	3b0b3a0e 	blcc	2cf200 <__bss_end__+0x2c5c50>
     9c4:	490b390b 	stmdbmi	fp, {r0, r1, r3, r8, fp, ip, sp}
     9c8:	3c193f13 	ldccc	15, cr3, [r9], {19}
     9cc:	07000019 	smladeq	r0, r9, r0, r0
     9d0:	0b0b000f 	bleq	2c0a14 <__bss_end__+0x2b7464>
     9d4:	00001349 	andeq	r1, r0, r9, asr #6
     9d8:	49002608 	stmdbmi	r0, {r3, r9, sl, sp}
     9dc:	09000013 	stmdbeq	r0, {r0, r1, r4}
     9e0:	193f012e 	ldmdbne	pc!, {r1, r2, r3, r5, r8}	; <UNPREDICTABLE>
     9e4:	0b3a0e03 	bleq	e841f8 <__bss_end__+0xe7ac48>
     9e8:	0b390b3b 	bleq	e436dc <__bss_end__+0xe3a12c>
     9ec:	06120111 			; <UNDEFINED> instruction: 0x06120111
     9f0:	42971840 	addsmi	r1, r7, #64, 16	; 0x400000
     9f4:	00130119 	andseq	r0, r3, r9, lsl r1
     9f8:	002e0a00 	eoreq	r0, lr, r0, lsl #20
     9fc:	0e03193f 			; <UNDEFINED> instruction: 0x0e03193f
     a00:	0b3b0b3a 	bleq	ec36f0 <__bss_end__+0xeba140>
     a04:	19270b39 	stmdbne	r7!, {r0, r3, r4, r5, r8, r9, fp}
     a08:	0000193c 	andeq	r1, r0, ip, lsr r9
     a0c:	0300340b 	movweq	r3, #1035	; 0x40b
     a10:	3b0b3a08 	blcc	2cf238 <__bss_end__+0x2c5c88>
     a14:	490b390b 	stmdbmi	fp, {r0, r1, r3, r8, fp, ip, sp}
     a18:	b7170213 			; <UNDEFINED> instruction: 0xb7170213
     a1c:	00001742 	andeq	r1, r0, r2, asr #14
     a20:	0300340c 	movweq	r3, #1036	; 0x40c
     a24:	3b0b3a0e 	blcc	2cf264 <__bss_end__+0x2c5cb4>
     a28:	490b390b 	stmdbmi	fp, {r0, r1, r3, r8, fp, ip, sp}
     a2c:	0d000013 	stceq	0, cr0, [r0, #-76]	; 0xffffffb4
     a30:	0111010b 	tsteq	r1, fp, lsl #2
     a34:	13010612 	movwne	r0, #5650	; 0x1612
     a38:	340e0000 	strcc	r0, [lr], #-0
     a3c:	3a080300 	bcc	201644 <__bss_end__+0x1f8094>
     a40:	390b3b0b 	stmdbcc	fp, {r0, r1, r3, r8, r9, fp, ip, sp}
     a44:	1c13490b 			; <UNDEFINED> instruction: 0x1c13490b
     a48:	0f00000b 	svceq	0x0000000b
     a4c:	00018289 	andeq	r8, r1, r9, lsl #5
     a50:	13310111 	teqne	r1, #1073741828	; 0x40000004
     a54:	2e100000 	cdpcs	0, 1, cr0, cr0, cr0, {0}
     a58:	3c193f00 	ldccc	15, cr3, [r9], {-0}
     a5c:	030e6e19 	movweq	r6, #60953	; 0xee19
     a60:	3b0b3a0e 	blcc	2cf2a0 <__bss_end__+0x2c5cf0>
     a64:	000b3905 	andeq	r3, fp, r5, lsl #18
     a68:	002e1100 	eoreq	r1, lr, r0, lsl #2
     a6c:	193c193f 	ldmdbne	ip!, {r0, r1, r2, r3, r4, r5, r8, fp, ip}
     a70:	0e030e6e 	cdpeq	14, 0, cr0, cr3, cr14, {3}
     a74:	0b3b0b3a 	bleq	ec3764 <__bss_end__+0xeba1b4>
     a78:	00000b39 	andeq	r0, r0, r9, lsr fp
     a7c:	01110100 	tsteq	r1, r0, lsl #2
     a80:	0b130e25 	bleq	4c431c <__bss_end__+0x4bad6c>
     a84:	0e1b0e03 	cdpeq	14, 1, cr0, cr11, cr3, {0}
     a88:	06120111 			; <UNDEFINED> instruction: 0x06120111
     a8c:	00001710 	andeq	r1, r0, r0, lsl r7
     a90:	0b002402 	bleq	9aa0 <__bss_end__+0x4f0>
     a94:	030b3e0b 	movweq	r3, #48651	; 0xbe0b
     a98:	03000008 	movweq	r0, #8
     a9c:	0b0b0024 	bleq	2c0b34 <__bss_end__+0x2b7584>
     aa0:	0e030b3e 	vmoveq.16	d3[0], r0
     aa4:	15040000 	strne	r0, [r4, #-0]
     aa8:	49192701 	ldmdbmi	r9, {r0, r8, r9, sl, sp}
     aac:	00130113 	andseq	r0, r3, r3, lsl r1
     ab0:	00050500 	andeq	r0, r5, r0, lsl #10
     ab4:	00001349 	andeq	r1, r0, r9, asr #6
     ab8:	03003406 	movweq	r3, #1030	; 0x406
     abc:	3b0b3a0e 	blcc	2cf2fc <__bss_end__+0x2c5d4c>
     ac0:	490b390b 	stmdbmi	fp, {r0, r1, r3, r8, fp, ip, sp}
     ac4:	3c193f13 	ldccc	15, cr3, [r9], {19}
     ac8:	07000019 	smladeq	r0, r9, r0, r0
     acc:	0b0b000f 	bleq	2c0b10 <__bss_end__+0x2b7560>
     ad0:	00001349 	andeq	r1, r0, r9, asr #6
     ad4:	49002608 	stmdbmi	r0, {r3, r9, sl, sp}
     ad8:	09000013 	stmdbeq	r0, {r0, r1, r4}
     adc:	193f002e 	ldmdbne	pc!, {r1, r2, r3, r5}	; <UNPREDICTABLE>
     ae0:	0b3a0e03 	bleq	e842f4 <__bss_end__+0xe7ad44>
     ae4:	0b390b3b 	bleq	e437d8 <__bss_end__+0xe3a228>
     ae8:	01111927 	tsteq	r1, r7, lsr #18
     aec:	18400612 	stmdane	r0, {r1, r4, r9, sl}^
     af0:	00194297 	mulseq	r9, r7, r2
     af4:	11010000 	mrsne	r0, (UNDEF: 1)
     af8:	130e2501 	movwne	r2, #58625	; 0xe501
     afc:	1b0e030b 	blne	381730 <__bss_end__+0x378180>
     b00:	1117550e 	tstne	r7, lr, lsl #10
     b04:	00171001 	andseq	r1, r7, r1
     b08:	00240200 	eoreq	r0, r4, r0, lsl #4
     b0c:	0b3e0b0b 	bleq	f83740 <__bss_end__+0xf7a190>
     b10:	00000803 	andeq	r0, r0, r3, lsl #16
     b14:	49002603 	stmdbmi	r0, {r0, r1, r9, sl, sp}
     b18:	04000013 	streq	r0, [r0], #-19	; 0xffffffed
     b1c:	0b0b0024 	bleq	2c0bb4 <__bss_end__+0x2b7604>
     b20:	0e030b3e 	vmoveq.16	d3[0], r0
     b24:	15050000 	strne	r0, [r5, #-0]
     b28:	49192701 	ldmdbmi	r9, {r0, r8, r9, sl, sp}
     b2c:	00130113 	andseq	r0, r3, r3, lsl r1
     b30:	00050600 	andeq	r0, r5, r0, lsl #12
     b34:	00001349 	andeq	r1, r0, r9, asr #6
     b38:	03003407 	movweq	r3, #1031	; 0x407
     b3c:	3b0b3a0e 	blcc	2cf37c <__bss_end__+0x2c5dcc>
     b40:	490b390b 	stmdbmi	fp, {r0, r1, r3, r8, fp, ip, sp}
     b44:	3c193f13 	ldccc	15, cr3, [r9], {19}
     b48:	08000019 	stmdaeq	r0, {r0, r3, r4}
     b4c:	0b0b000f 	bleq	2c0b90 <__bss_end__+0x2b75e0>
     b50:	00001349 	andeq	r1, r0, r9, asr #6
     b54:	03003409 	movweq	r3, #1033	; 0x409
     b58:	3b0b3a0e 	blcc	2cf398 <__bss_end__+0x2c5de8>
     b5c:	490b390b 	stmdbmi	fp, {r0, r1, r3, r8, fp, ip, sp}
     b60:	0a000013 	beq	bb4 <__code_start__-0x744c>
     b64:	193f012e 	ldmdbne	pc!, {r1, r2, r3, r5, r8}	; <UNPREDICTABLE>
     b68:	0b3a0e03 	bleq	e8437c <__bss_end__+0xe7adcc>
     b6c:	0b390b3b 	bleq	e43860 <__bss_end__+0xe3a2b0>
     b70:	01871927 	orreq	r1, r7, r7, lsr #18
     b74:	12011119 	andne	r1, r1, #1073741830	; 0x40000006
     b78:	97184006 	ldrls	r4, [r8, -r6]
     b7c:	13011942 	movwne	r1, #6466	; 0x1942
     b80:	340b0000 	strcc	r0, [fp], #-0
     b84:	3a0e0300 	bcc	38178c <__bss_end__+0x3781dc>
     b88:	390b3b0b 	stmdbcc	fp, {r0, r1, r3, r8, r9, fp, ip, sp}
     b8c:	0213490b 	andseq	r4, r3, #180224	; 0x2c000
     b90:	1742b717 	smlaldne	fp, r2, r7, r7
     b94:	890c0000 	stmdbhi	ip, {}	; <UNPREDICTABLE>
     b98:	11000182 	smlabbne	r0, r2, r1, r0
     b9c:	00133101 	andseq	r3, r3, r1, lsl #2
     ba0:	82890d00 	addhi	r0, r9, #0, 26
     ba4:	01110101 	tsteq	r1, r1, lsl #2
     ba8:	13011331 	movwne	r1, #4913	; 0x1331
     bac:	8a0e0000 	bhi	380bb4 <__bss_end__+0x377604>
     bb0:	02000182 	andeq	r0, r0, #-2147483616	; 0x80000020
     bb4:	18429118 	stmdane	r2, {r3, r4, r8, ip, pc}^
     bb8:	2e0f0000 	cdpcs	0, 0, cr0, cr15, cr0, {0}
     bbc:	03193f01 	tsteq	r9, #1, 30
     bc0:	3b0b3a0e 	blcc	2cf400 <__bss_end__+0x2c5e50>
     bc4:	270b390b 	strcs	r3, [fp, -fp, lsl #18]
     bc8:	12011119 	andne	r1, r1, #1073741830	; 0x40000006
     bcc:	97184006 	ldrls	r4, [r8, -r6]
     bd0:	13011942 	movwne	r1, #6466	; 0x1942
     bd4:	2e100000 	cdpcs	0, 1, cr0, cr0, cr0, {0}
     bd8:	03193f01 	tsteq	r9, #1, 30
     bdc:	3b0b3a0e 	blcc	2cf41c <__bss_end__+0x2c5e6c>
     be0:	270b390b 	strcs	r3, [fp, -fp, lsl #18]
     be4:	11134919 	tstne	r3, r9, lsl r9
     be8:	40061201 	andmi	r1, r6, r1, lsl #4
     bec:	19429718 	stmdbne	r2, {r3, r4, r8, r9, sl, ip, pc}^
     bf0:	00001301 	andeq	r1, r0, r1, lsl #6
     bf4:	3f002e11 	svccc	0x00002e11
     bf8:	6e193c19 	mrcvs	12, 0, r3, cr9, cr9, {0}
     bfc:	3a0e030e 	bcc	38183c <__bss_end__+0x37828c>
     c00:	39053b0b 	stmdbcc	r5, {r0, r1, r3, r8, r9, fp, ip, sp}
     c04:	1200000b 	andne	r0, r0, #11, 0
     c08:	193f002e 	ldmdbne	pc!, {r1, r2, r3, r5}	; <UNPREDICTABLE>
     c0c:	0e6e193c 			; <UNDEFINED> instruction: 0x0e6e193c
     c10:	0b3a0e03 	bleq	e84424 <__bss_end__+0xe7ae74>
     c14:	0b390b3b 	bleq	e43908 <__bss_end__+0xe3a358>
     c18:	01000000 	mrseq	r0, (UNDEF: 0)
     c1c:	0e250111 	mcreq	1, 1, r0, cr5, cr1, {0}
     c20:	0e030b13 	vmoveq.32	d3[0], r0
     c24:	01110e1b 	tsteq	r1, fp, lsl lr
     c28:	17100612 			; <UNDEFINED> instruction: 0x17100612
     c2c:	24020000 	strcs	r0, [r2], #-0
     c30:	3e0b0b00 	vmlacc.f64	d0, d11, d0
     c34:	0008030b 	andeq	r0, r8, fp, lsl #6
     c38:	00240300 	eoreq	r0, r4, r0, lsl #6
     c3c:	0b3e0b0b 	bleq	f83870 <__bss_end__+0xf7a2c0>
     c40:	00000e03 	andeq	r0, r0, r3, lsl #28
     c44:	27011504 	strcs	r1, [r1, -r4, lsl #10]
     c48:	01134919 	tsteq	r3, r9, lsl r9
     c4c:	05000013 	streq	r0, [r0, #-19]	; 0xffffffed
     c50:	13490005 	movtne	r0, #36869	; 0x9005
     c54:	34060000 	strcc	r0, [r6], #-0
     c58:	3a0e0300 	bcc	381860 <__bss_end__+0x3782b0>
     c5c:	390b3b0b 	stmdbcc	fp, {r0, r1, r3, r8, r9, fp, ip, sp}
     c60:	3f13490b 	svccc	0x0013490b
     c64:	00193c19 	andseq	r3, r9, r9, lsl ip
     c68:	000f0700 	andeq	r0, pc, r0, lsl #14
     c6c:	13490b0b 	movtne	r0, #39691	; 0x9b0b
     c70:	26080000 	strcs	r0, [r8], -r0
     c74:	00134900 	andseq	r4, r3, r0, lsl #18
     c78:	012e0900 			; <UNDEFINED> instruction: 0x012e0900
     c7c:	0e03193f 			; <UNDEFINED> instruction: 0x0e03193f
     c80:	0b3b0b3a 	bleq	ec3970 <__bss_end__+0xeba3c0>
     c84:	19270b39 	stmdbne	r7!, {r0, r3, r4, r5, r8, r9, fp}
     c88:	06120111 			; <UNDEFINED> instruction: 0x06120111
     c8c:	42971840 	addsmi	r1, r7, #64, 16	; 0x400000
     c90:	00130119 	andseq	r0, r3, r9, lsl r1
     c94:	00050a00 	andeq	r0, r5, r0, lsl #20
     c98:	0b3a0803 	bleq	e82cac <__bss_end__+0xe796fc>
     c9c:	0b390b3b 	bleq	e43990 <__bss_end__+0xe3a3e0>
     ca0:	17021349 	strne	r1, [r2, -r9, asr #6]
     ca4:	001742b7 			; <UNDEFINED> instruction: 0x001742b7
     ca8:	82890b00 	addhi	r0, r9, #0, 22
     cac:	01110101 	tsteq	r1, r1, lsl #2
     cb0:	00001331 	andeq	r1, r0, r1, lsr r3
     cb4:	01828a0c 	orreq	r8, r2, ip, lsl #20
     cb8:	91180200 	tstls	r8, r0, lsl #4
     cbc:	00001842 	andeq	r1, r0, r2, asr #16
     cc0:	0300340d 	movweq	r3, #1037	; 0x40d
     cc4:	3b0b3a08 	blcc	2cf4ec <__bss_end__+0x2c5f3c>
     cc8:	490b390b 	stmdbmi	fp, {r0, r1, r3, r8, fp, ip, sp}
     ccc:	b7170213 			; <UNDEFINED> instruction: 0xb7170213
     cd0:	00001742 	andeq	r1, r0, r2, asr #14
     cd4:	11010b0e 	tstne	r1, lr, lsl #22
     cd8:	01061201 	tsteq	r6, r1, lsl #4
     cdc:	0f000013 	svceq	0x00000013
     ce0:	00018289 	andeq	r8, r1, r9, lsl #5
     ce4:	13310111 	teqne	r1, #1073741828	; 0x40000004
     ce8:	2e100000 	cdpcs	0, 1, cr0, cr0, cr0, {0}
     cec:	03193f01 	tsteq	r9, #1, 30
     cf0:	3b0b3a0e 	blcc	2cf530 <__bss_end__+0x2c5f80>
     cf4:	270b390b 	strcs	r3, [fp, -fp, lsl #18]
     cf8:	11134919 	tstne	r3, r9, lsl r9
     cfc:	40061201 	andmi	r1, r6, r1, lsl #4
     d00:	19429718 	stmdbne	r2, {r3, r4, r8, r9, sl, ip, pc}^
     d04:	00001301 	andeq	r1, r0, r1, lsl #6
     d08:	3f002e11 	svccc	0x00002e11
     d0c:	6e193c19 	mrcvs	12, 0, r3, cr9, cr9, {0}
     d10:	3a0e030e 	bcc	381950 <__bss_end__+0x3783a0>
     d14:	390b3b0b 	stmdbcc	fp, {r0, r1, r3, r8, r9, fp, ip, sp}
     d18:	0000000b 	andeq	r0, r0, fp
     d1c:	25011101 	strcs	r1, [r1, #-257]	; 0xfffffeff
     d20:	030b130e 	movweq	r1, #45838	; 0xb30e
     d24:	110e1b0e 	tstne	lr, lr, lsl #22
     d28:	10061201 	andne	r1, r6, r1, lsl #4
     d2c:	02000017 	andeq	r0, r0, #23, 0
     d30:	0b0b0024 	bleq	2c0dc8 <__bss_end__+0x2b7818>
     d34:	08030b3e 	stmdaeq	r3, {r1, r2, r3, r4, r5, r8, r9, fp}
     d38:	24030000 	strcs	r0, [r3], #-0
     d3c:	3e0b0b00 	vmlacc.f64	d0, d11, d0
     d40:	000e030b 	andeq	r0, lr, fp, lsl #6
     d44:	00350400 	eorseq	r0, r5, r0, lsl #8
     d48:	00001349 	andeq	r1, r0, r9, asr #6
     d4c:	03001605 	movweq	r1, #1541	; 0x605
     d50:	3b0b3a0e 	blcc	2cf590 <__bss_end__+0x2c5fe0>
     d54:	490b390b 	stmdbmi	fp, {r0, r1, r3, r8, fp, ip, sp}
     d58:	06000013 			; <UNDEFINED> instruction: 0x06000013
     d5c:	0b3e0104 	bleq	f81174 <__bss_end__+0xf77bc4>
     d60:	13490b0b 	movtne	r0, #39691	; 0x9b0b
     d64:	0b3b0b3a 	bleq	ec3a54 <__bss_end__+0xeba4a4>
     d68:	13010b39 	movwne	r0, #6969	; 0x1b39
     d6c:	28070000 	stmdacs	r7, {}	; <UNPREDICTABLE>
     d70:	1c0e0300 	stcne	3, cr0, [lr], {-0}
     d74:	0800000b 	stmdaeq	r0, {r0, r1, r3}
     d78:	0e030113 	mcreq	1, 0, r0, cr3, cr3, {0}
     d7c:	0b3a0b0b 	bleq	e839b0 <__bss_end__+0xe7a400>
     d80:	0b390b3b 	bleq	e43a74 <__bss_end__+0xe3a4c4>
     d84:	00001301 	andeq	r1, r0, r1, lsl #6
     d88:	03000d09 	movweq	r0, #3337	; 0xd09
     d8c:	3b0b3a08 	blcc	2cf5b4 <__bss_end__+0x2c6004>
     d90:	490b390b 	stmdbmi	fp, {r0, r1, r3, r8, fp, ip, sp}
     d94:	000b3813 	andeq	r3, fp, r3, lsl r8
     d98:	000d0a00 	andeq	r0, sp, r0, lsl #20
     d9c:	0b3a0e03 	bleq	e845b0 <__bss_end__+0xe7b000>
     da0:	0b390b3b 	bleq	e43a94 <__bss_end__+0xe3a4e4>
     da4:	0b381349 	bleq	e05ad0 <__bss_end__+0xdfc520>
     da8:	340b0000 	strcc	r0, [fp], #-0
     dac:	3a0e0300 	bcc	3819b4 <__bss_end__+0x378404>
     db0:	390b3b0b 	stmdbcc	fp, {r0, r1, r3, r8, r9, fp, ip, sp}
     db4:	1c13490b 			; <UNDEFINED> instruction: 0x1c13490b
     db8:	0c000006 	stceq	0, cr0, [r0], {6}
     dbc:	0b0b000f 	bleq	2c0e00 <__bss_end__+0x2b7850>
     dc0:	00001349 	andeq	r1, r0, r9, asr #6
     dc4:	4900260d 	stmdbmi	r0, {r0, r2, r3, r9, sl, sp}
     dc8:	0e000013 	mcreq	0, 0, r0, cr0, cr3, {0}
     dcc:	193f012e 	ldmdbne	pc!, {r1, r2, r3, r5, r8}	; <UNPREDICTABLE>
     dd0:	0b3a0e03 	bleq	e845e4 <__bss_end__+0xe7b034>
     dd4:	0b390b3b 	bleq	e43ac8 <__bss_end__+0xe3a518>
     dd8:	01111927 	tsteq	r1, r7, lsr #18
     ddc:	18400612 	stmdane	r0, {r1, r4, r9, sl}^
     de0:	01194297 			; <UNDEFINED> instruction: 0x01194297
     de4:	0f000013 	svceq	0x00000013
     de8:	00018289 	andeq	r8, r1, r9, lsl #5
     dec:	13310111 	teqne	r1, #1073741828	; 0x40000004
     df0:	2e100000 	cdpcs	0, 1, cr0, cr0, cr0, {0}
     df4:	03193f01 	tsteq	r9, #1, 30
     df8:	3b0b3a0e 	blcc	2cf638 <__bss_end__+0x2c6088>
     dfc:	270b390b 	strcs	r3, [fp, -fp, lsl #18]
     e00:	11134919 	tstne	r3, r9, lsl r9
     e04:	40061201 	andmi	r1, r6, r1, lsl #4
     e08:	19429718 	stmdbne	r2, {r3, r4, r8, r9, sl, ip, pc}^
     e0c:	00001301 	andeq	r1, r0, r1, lsl #6
     e10:	01828911 	orreq	r8, r2, r1, lsl r9
     e14:	31011101 	tstcc	r1, r1, lsl #2
     e18:	12000013 	andne	r0, r0, #19, 0
     e1c:	0001828a 	andeq	r8, r1, sl, lsl #5
     e20:	42911802 	addsmi	r1, r1, #131072	; 0x20000
     e24:	13000018 	movwne	r0, #24
     e28:	08030005 	stmdaeq	r3, {r0, r2}
     e2c:	0b3b0b3a 	bleq	ec3b1c <__bss_end__+0xeba56c>
     e30:	13490b39 	movtne	r0, #39737	; 0x9b39
     e34:	42b71702 	adcsmi	r1, r7, #524288	; 0x80000
     e38:	14000017 	strne	r0, [r0], #-23	; 0xffffffe9
     e3c:	01018289 	smlabbeq	r1, r9, r2, r8
     e40:	13310111 	teqne	r1, #1073741828	; 0x40000004
     e44:	00001301 	andeq	r1, r0, r1, lsl #6
     e48:	03003415 	movweq	r3, #1045	; 0x415
     e4c:	3b0b3a08 	blcc	2cf674 <__bss_end__+0x2c60c4>
     e50:	490b390b 	stmdbmi	fp, {r0, r1, r3, r8, fp, ip, sp}
     e54:	b7170213 			; <UNDEFINED> instruction: 0xb7170213
     e58:	00001742 	andeq	r1, r0, r2, asr #14
     e5c:	03003416 	movweq	r3, #1046	; 0x416
     e60:	3b0b3a0e 	blcc	2cf6a0 <__bss_end__+0x2c60f0>
     e64:	490b390b 	stmdbmi	fp, {r0, r1, r3, r8, fp, ip, sp}
     e68:	00051c13 	andeq	r1, r5, r3, lsl ip
     e6c:	012e1700 			; <UNDEFINED> instruction: 0x012e1700
     e70:	0b3a0e03 	bleq	e84684 <__bss_end__+0xe7b0d4>
     e74:	0b390b3b 	bleq	e43b68 <__bss_end__+0xe3a5b8>
     e78:	01111927 	tsteq	r1, r7, lsr #18
     e7c:	18400612 	stmdane	r0, {r1, r4, r9, sl}^
     e80:	01194297 			; <UNDEFINED> instruction: 0x01194297
     e84:	18000013 	stmdane	r0, {r0, r1, r4}
     e88:	0e030005 	cdpeq	0, 0, cr0, cr3, cr5, {0}
     e8c:	0b3b0b3a 	bleq	ec3b7c <__bss_end__+0xeba5cc>
     e90:	13490b39 	movtne	r0, #39737	; 0x9b39
     e94:	42b71702 	adcsmi	r1, r7, #524288	; 0x80000
     e98:	19000017 	stmdbne	r0, {r0, r1, r2, r4}
     e9c:	00000035 	andeq	r0, r0, r5, lsr r0
     ea0:	3f002e1a 	svccc	0x00002e1a
     ea4:	6e193c19 	mrcvs	12, 0, r3, cr9, cr9, {0}
     ea8:	3a0e030e 	bcc	381ae8 <__bss_end__+0x378538>
     eac:	390b3b0b 	stmdbcc	fp, {r0, r1, r3, r8, r9, fp, ip, sp}
     eb0:	0000000b 	andeq	r0, r0, fp
     eb4:	25011101 	strcs	r1, [r1, #-257]	; 0xfffffeff
     eb8:	030b130e 	movweq	r1, #45838	; 0xb30e
     ebc:	110e1b0e 	tstne	lr, lr, lsl #22
     ec0:	10061201 	andne	r1, r6, r1, lsl #4
     ec4:	02000017 	andeq	r0, r0, #23, 0
     ec8:	0b0b0024 	bleq	2c0f60 <__bss_end__+0x2b79b0>
     ecc:	08030b3e 	stmdaeq	r3, {r1, r2, r3, r4, r5, r8, r9, fp}
     ed0:	24030000 	strcs	r0, [r3], #-0
     ed4:	3e0b0b00 	vmlacc.f64	d0, d11, d0
     ed8:	000e030b 	andeq	r0, lr, fp, lsl #6
     edc:	01150400 	tsteq	r5, r0, lsl #8
     ee0:	13491927 	movtne	r1, #39207	; 0x9927
     ee4:	00001301 	andeq	r1, r0, r1, lsl #6
     ee8:	49000505 	stmdbmi	r0, {r0, r2, r8, sl}
     eec:	06000013 			; <UNDEFINED> instruction: 0x06000013
     ef0:	0e030034 	mcreq	0, 0, r0, cr3, cr4, {1}
     ef4:	0b3b0b3a 	bleq	ec3be4 <__bss_end__+0xeba634>
     ef8:	13490b39 	movtne	r0, #39737	; 0x9b39
     efc:	193c193f 	ldmdbne	ip!, {r0, r1, r2, r3, r4, r5, r8, fp, ip}
     f00:	0f070000 	svceq	0x00070000
     f04:	490b0b00 	stmdbmi	fp, {r8, r9, fp}
     f08:	08000013 	stmdaeq	r0, {r0, r1, r4}
     f0c:	13490026 	movtne	r0, #36902	; 0x9026
     f10:	34090000 	strcc	r0, [r9], #-0
     f14:	3a134700 	bcc	4d2b1c <__bss_end__+0x4c956c>
     f18:	390b3b0b 	stmdbcc	fp, {r0, r1, r3, r8, r9, fp, ip, sp}
     f1c:	0018020b 	andseq	r0, r8, fp, lsl #4
     f20:	012e0a00 			; <UNDEFINED> instruction: 0x012e0a00
     f24:	0e03193f 			; <UNDEFINED> instruction: 0x0e03193f
     f28:	0b3b0b3a 	bleq	ec3c18 <__bss_end__+0xeba668>
     f2c:	19270b39 	stmdbne	r7!, {r0, r3, r4, r5, r8, r9, fp}
     f30:	06120111 			; <UNDEFINED> instruction: 0x06120111
     f34:	42971840 	addsmi	r1, r7, #64, 16	; 0x400000
     f38:	00130119 	andseq	r0, r3, r9, lsl r1
     f3c:	00050b00 	andeq	r0, r5, r0, lsl #22
     f40:	0b3a0803 	bleq	e82f54 <__bss_end__+0xe799a4>
     f44:	0b390b3b 	bleq	e43c38 <__bss_end__+0xe3a688>
     f48:	18021349 	stmdane	r2, {r0, r3, r6, r8, r9, ip}
     f4c:	2e0c0000 	cdpcs	0, 0, cr0, cr12, cr0, {0}
     f50:	03193f00 	tsteq	r9, #0, 30
     f54:	3b0b3a0e 	blcc	2cf794 <__bss_end__+0x2c61e4>
     f58:	270b390b 	strcs	r3, [fp, -fp, lsl #18]
     f5c:	12011119 	andne	r1, r1, #1073741830	; 0x40000006
     f60:	97184006 	ldrls	r4, [r8, -r6]
     f64:	00001942 	andeq	r1, r0, r2, asr #18
     f68:	03012e0d 	movweq	r2, #7693	; 0x1e0d
     f6c:	3b0b3a0e 	blcc	2cf7ac <__bss_end__+0x2c61fc>
     f70:	270b390b 	strcs	r3, [fp, -fp, lsl #18]
     f74:	11134919 	tstne	r3, r9, lsl r9
     f78:	40061201 	andmi	r1, r6, r1, lsl #4
     f7c:	19429718 	stmdbne	r2, {r3, r4, r8, r9, sl, ip, pc}^
     f80:	00001301 	andeq	r1, r0, r1, lsl #6
     f84:	0300050e 	movweq	r0, #1294	; 0x50e
     f88:	3b0b3a08 	blcc	2cf7b0 <__bss_end__+0x2c6200>
     f8c:	490b390b 	stmdbmi	fp, {r0, r1, r3, r8, fp, ip, sp}
     f90:	b7170213 			; <UNDEFINED> instruction: 0xb7170213
     f94:	00001742 	andeq	r1, r0, r2, asr #14
     f98:	0182890f 	orreq	r8, r2, pc, lsl #18
     f9c:	31011101 	tstcc	r1, r1, lsl #2
     fa0:	10000013 	andne	r0, r0, r3, lsl r0
     fa4:	0001828a 	andeq	r8, r1, sl, lsl #5
     fa8:	42911802 	addsmi	r1, r1, #131072	; 0x20000
     fac:	11000018 	tstne	r0, r8, lsl r0
     fb0:	193f002e 	ldmdbne	pc!, {r1, r2, r3, r5}	; <UNPREDICTABLE>
     fb4:	0e6e193c 			; <UNDEFINED> instruction: 0x0e6e193c
     fb8:	0b3a0e03 	bleq	e847cc <__bss_end__+0xe7b21c>
     fbc:	0b390b3b 	bleq	e43cb0 <__bss_end__+0xe3a700>
     fc0:	01000000 	mrseq	r0, (UNDEF: 0)
     fc4:	0e250111 	mcreq	1, 1, r0, cr5, cr1, {0}
     fc8:	0e030b13 	vmoveq.32	d3[0], r0
     fcc:	01110e1b 	tsteq	r1, fp, lsl lr
     fd0:	17100612 			; <UNDEFINED> instruction: 0x17100612
     fd4:	24020000 	strcs	r0, [r2], #-0
     fd8:	3e0b0b00 	vmlacc.f64	d0, d11, d0
     fdc:	0008030b 	andeq	r0, r8, fp, lsl #6
     fe0:	00240300 	eoreq	r0, r4, r0, lsl #6
     fe4:	0b3e0b0b 	bleq	f83c18 <__bss_end__+0xf7a668>
     fe8:	00000e03 	andeq	r0, r0, r3, lsl #28
     fec:	27011504 	strcs	r1, [r1, -r4, lsl #10]
     ff0:	01134919 	tsteq	r3, r9, lsl r9
     ff4:	05000013 	streq	r0, [r0, #-19]	; 0xffffffed
     ff8:	13490005 	movtne	r0, #36869	; 0x9005
     ffc:	34060000 	strcc	r0, [r6], #-0
    1000:	3a0e0300 	bcc	381c08 <__bss_end__+0x378658>
    1004:	390b3b0b 	stmdbcc	fp, {r0, r1, r3, r8, r9, fp, ip, sp}
    1008:	3f13490b 	svccc	0x0013490b
    100c:	00193c19 	andseq	r3, r9, r9, lsl ip
    1010:	000f0700 	andeq	r0, pc, r0, lsl #14
    1014:	13490b0b 	movtne	r0, #39691	; 0x9b0b
    1018:	26080000 	strcs	r0, [r8], -r0
    101c:	00134900 	andseq	r4, r3, r0, lsl #18
    1020:	012e0900 			; <UNDEFINED> instruction: 0x012e0900
    1024:	0e03193f 			; <UNDEFINED> instruction: 0x0e03193f
    1028:	0b3b0b3a 	bleq	ec3d18 <__bss_end__+0xeba768>
    102c:	19270b39 	stmdbne	r7!, {r0, r3, r4, r5, r8, r9, fp}
    1030:	01111349 	tsteq	r1, r9, asr #6
    1034:	18400612 	stmdane	r0, {r1, r4, r9, sl}^
    1038:	01194297 			; <UNDEFINED> instruction: 0x01194297
    103c:	0a000013 	beq	1090 <__code_start__-0x6f70>
    1040:	0e030005 	cdpeq	0, 0, cr0, cr3, cr5, {0}
    1044:	0b3b0b3a 	bleq	ec3d34 <__bss_end__+0xeba784>
    1048:	13490b39 	movtne	r0, #39737	; 0x9b39
    104c:	00001802 	andeq	r1, r0, r2, lsl #16
    1050:	0300050b 	movweq	r0, #1291	; 0x50b
    1054:	3b0b3a08 	blcc	2cf87c <__bss_end__+0x2c62cc>
    1058:	490b390b 	stmdbmi	fp, {r0, r1, r3, r8, fp, ip, sp}
    105c:	b7170213 			; <UNDEFINED> instruction: 0xb7170213
    1060:	00001742 	andeq	r1, r0, r2, asr #14
    1064:	0300340c 	movweq	r3, #1036	; 0x40c
    1068:	3b0b3a08 	blcc	2cf890 <__bss_end__+0x2c62e0>
    106c:	490b390b 	stmdbmi	fp, {r0, r1, r3, r8, fp, ip, sp}
    1070:	b7170213 			; <UNDEFINED> instruction: 0xb7170213
    1074:	00001742 	andeq	r1, r0, r2, asr #14
    1078:	01110100 	tsteq	r1, r0, lsl #2
    107c:	0b130e25 	bleq	4c4918 <__bss_end__+0x4bb368>
    1080:	0e1b0e03 	cdpeq	14, 1, cr0, cr11, cr3, {0}
    1084:	06120111 			; <UNDEFINED> instruction: 0x06120111
    1088:	00001710 	andeq	r1, r0, r0, lsl r7
    108c:	0b002402 	bleq	a09c <__bss_end__+0xaec>
    1090:	030b3e0b 	movweq	r3, #48651	; 0xbe0b
    1094:	03000008 	movweq	r0, #8
    1098:	0b0b0024 	bleq	2c1130 <__bss_end__+0x2b7b80>
    109c:	0e030b3e 	vmoveq.16	d3[0], r0
    10a0:	15040000 	strne	r0, [r4, #-0]
    10a4:	49192701 	ldmdbmi	r9, {r0, r8, r9, sl, sp}
    10a8:	00130113 	andseq	r0, r3, r3, lsl r1
    10ac:	00050500 	andeq	r0, r5, r0, lsl #10
    10b0:	00001349 	andeq	r1, r0, r9, asr #6
    10b4:	03003406 	movweq	r3, #1030	; 0x406
    10b8:	3b0b3a0e 	blcc	2cf8f8 <__bss_end__+0x2c6348>
    10bc:	490b390b 	stmdbmi	fp, {r0, r1, r3, r8, fp, ip, sp}
    10c0:	3c193f13 	ldccc	15, cr3, [r9], {19}
    10c4:	07000019 	smladeq	r0, r9, r0, r0
    10c8:	0b0b000f 	bleq	2c110c <__bss_end__+0x2b7b5c>
    10cc:	00001349 	andeq	r1, r0, r9, asr #6
    10d0:	49002608 	stmdbmi	r0, {r3, r9, sl, sp}
    10d4:	09000013 	stmdbeq	r0, {r0, r1, r4}
    10d8:	193f012e 	ldmdbne	pc!, {r1, r2, r3, r5, r8}	; <UNPREDICTABLE>
    10dc:	0b3a0e03 	bleq	e848f0 <__bss_end__+0xe7b340>
    10e0:	0b390b3b 	bleq	e43dd4 <__bss_end__+0xe3a824>
    10e4:	13491927 	movtne	r1, #39207	; 0x9927
    10e8:	06120111 			; <UNDEFINED> instruction: 0x06120111
    10ec:	42971840 	addsmi	r1, r7, #64, 16	; 0x400000
    10f0:	0a000019 	beq	115c <__code_start__-0x6ea4>
    10f4:	08030005 	stmdaeq	r3, {r0, r2}
    10f8:	0b3b0b3a 	bleq	ec3de8 <__bss_end__+0xeba838>
    10fc:	13490b39 	movtne	r0, #39737	; 0x9b39
    1100:	42b71702 	adcsmi	r1, r7, #524288	; 0x80000
    1104:	00000017 	andeq	r0, r0, r7, lsl r0
    1108:	25011101 	strcs	r1, [r1, #-257]	; 0xfffffeff
    110c:	030b130e 	movweq	r1, #45838	; 0xb30e
    1110:	110e1b0e 	tstne	lr, lr, lsl #22
    1114:	10061201 	andne	r1, r6, r1, lsl #4
    1118:	02000017 	andeq	r0, r0, #23, 0
    111c:	0b0b0024 	bleq	2c11b4 <__bss_end__+0x2b7c04>
    1120:	08030b3e 	stmdaeq	r3, {r1, r2, r3, r4, r5, r8, r9, fp}
    1124:	24030000 	strcs	r0, [r3], #-0
    1128:	3e0b0b00 	vmlacc.f64	d0, d11, d0
    112c:	000e030b 	andeq	r0, lr, fp, lsl #6
    1130:	01150400 	tsteq	r5, r0, lsl #8
    1134:	13491927 	movtne	r1, #39207	; 0x9927
    1138:	00001301 	andeq	r1, r0, r1, lsl #6
    113c:	49000505 	stmdbmi	r0, {r0, r2, r8, sl}
    1140:	06000013 			; <UNDEFINED> instruction: 0x06000013
    1144:	0e030034 	mcreq	0, 0, r0, cr3, cr4, {1}
    1148:	0b3b0b3a 	bleq	ec3e38 <__bss_end__+0xeba888>
    114c:	13490b39 	movtne	r0, #39737	; 0x9b39
    1150:	193c193f 	ldmdbne	ip!, {r0, r1, r2, r3, r4, r5, r8, fp, ip}
    1154:	0f070000 	svceq	0x00070000
    1158:	490b0b00 	stmdbmi	fp, {r8, r9, fp}
    115c:	08000013 	stmdaeq	r0, {r0, r1, r4}
    1160:	13490026 	movtne	r0, #36902	; 0x9026
    1164:	2e090000 	cdpcs	0, 0, cr0, cr9, cr0, {0}
    1168:	03193f01 	tsteq	r9, #1, 30
    116c:	3b0b3a0e 	blcc	2cf9ac <__bss_end__+0x2c63fc>
    1170:	270b390b 	strcs	r3, [fp, -fp, lsl #18]
    1174:	11134919 	tstne	r3, r9, lsl r9
    1178:	40061201 	andmi	r1, r6, r1, lsl #4
    117c:	19429718 	stmdbne	r2, {r3, r4, r8, r9, sl, ip, pc}^
    1180:	00001301 	andeq	r1, r0, r1, lsl #6
    1184:	0300050a 	movweq	r0, #1290	; 0x50a
    1188:	3b0b3a08 	blcc	2cf9b0 <__bss_end__+0x2c6400>
    118c:	490b390b 	stmdbmi	fp, {r0, r1, r3, r8, fp, ip, sp}
    1190:	00180213 	andseq	r0, r8, r3, lsl r2
    1194:	00050b00 	andeq	r0, r5, r0, lsl #22
    1198:	0b3a0803 	bleq	e831ac <__bss_end__+0xe79bfc>
    119c:	0b390b3b 	bleq	e43e90 <__bss_end__+0xe3a8e0>
    11a0:	17021349 	strne	r1, [r2, -r9, asr #6]
    11a4:	001742b7 			; <UNDEFINED> instruction: 0x001742b7
    11a8:	00340c00 	eorseq	r0, r4, r0, lsl #24
    11ac:	0b3a0803 	bleq	e831c0 <__bss_end__+0xe79c10>
    11b0:	0b390b3b 	bleq	e43ea4 <__bss_end__+0xe3a8f4>
    11b4:	17021349 	strne	r1, [r2, -r9, asr #6]
    11b8:	001742b7 			; <UNDEFINED> instruction: 0x001742b7
    11bc:	11010000 	mrsne	r0, (UNDEF: 1)
    11c0:	130e2501 	movwne	r2, #58625	; 0xe501
    11c4:	1b0e030b 	blne	381df8 <__bss_end__+0x378848>
    11c8:	1117550e 	tstne	r7, lr, lsl #10
    11cc:	00171001 	andseq	r1, r7, r1
    11d0:	00240200 	eoreq	r0, r4, r0, lsl #4
    11d4:	0b3e0b0b 	bleq	f83e08 <__bss_end__+0xf7a858>
    11d8:	00000803 	andeq	r0, r0, r3, lsl #16
    11dc:	03001603 	movweq	r1, #1539	; 0x603
    11e0:	3b0b3a0e 	blcc	2cfa20 <__bss_end__+0x2c6470>
    11e4:	490b390b 	stmdbmi	fp, {r0, r1, r3, r8, fp, ip, sp}
    11e8:	04000013 	streq	r0, [r0], #-19	; 0xffffffed
    11ec:	0b0b0024 	bleq	2c1284 <__bss_end__+0x2b7cd4>
    11f0:	0e030b3e 	vmoveq.16	d3[0], r0
    11f4:	26050000 	strcs	r0, [r5], -r0
    11f8:	00134900 	andseq	r4, r3, r0, lsl #18
    11fc:	01150600 	tsteq	r5, r0, lsl #12
    1200:	13491927 	movtne	r1, #39207	; 0x9927
    1204:	00001301 	andeq	r1, r0, r1, lsl #6
    1208:	49000507 	stmdbmi	r0, {r0, r1, r2, r8, sl}
    120c:	08000013 	stmdaeq	r0, {r0, r1, r4}
    1210:	0e030034 	mcreq	0, 0, r0, cr3, cr4, {1}
    1214:	0b3b0b3a 	bleq	ec3f04 <__bss_end__+0xeba954>
    1218:	13490b39 	movtne	r0, #39737	; 0x9b39
    121c:	193c193f 	ldmdbne	ip!, {r0, r1, r2, r3, r4, r5, r8, fp, ip}
    1220:	0f090000 	svceq	0x00090000
    1224:	490b0b00 	stmdbmi	fp, {r8, r9, fp}
    1228:	0a000013 	beq	127c <__code_start__-0x6d84>
    122c:	193f012e 	ldmdbne	pc!, {r1, r2, r3, r5, r8}	; <UNPREDICTABLE>
    1230:	0b3a0e03 	bleq	e84a44 <__bss_end__+0xe7b494>
    1234:	0b390b3b 	bleq	e43f28 <__bss_end__+0xe3a978>
    1238:	13491927 	movtne	r1, #39207	; 0x9927
    123c:	06120111 			; <UNDEFINED> instruction: 0x06120111
    1240:	42971840 	addsmi	r1, r7, #64, 16	; 0x400000
    1244:	00130119 	andseq	r0, r3, r9, lsl r1
    1248:	00050b00 	andeq	r0, r5, r0, lsl #22
    124c:	0b3a0803 	bleq	e83260 <__bss_end__+0xe79cb0>
    1250:	0b390b3b 	bleq	e43f44 <__bss_end__+0xe3a994>
    1254:	17021349 	strne	r1, [r2, -r9, asr #6]
    1258:	001742b7 			; <UNDEFINED> instruction: 0x001742b7
    125c:	00340c00 	eorseq	r0, r4, r0, lsl #24
    1260:	0b3a0803 	bleq	e83274 <__bss_end__+0xe79cc4>
    1264:	0b390b3b 	bleq	e43f58 <__bss_end__+0xe3a9a8>
    1268:	17021349 	strne	r1, [r2, -r9, asr #6]
    126c:	001742b7 			; <UNDEFINED> instruction: 0x001742b7
    1270:	11010000 	mrsne	r0, (UNDEF: 1)
    1274:	130e2501 	movwne	r2, #58625	; 0xe501
    1278:	1b0e030b 	blne	381eac <__bss_end__+0x3788fc>
    127c:	1201110e 	andne	r1, r1, #-2147483645	; 0x80000003
    1280:	00171006 	andseq	r1, r7, r6
    1284:	00240200 	eoreq	r0, r4, r0, lsl #4
    1288:	0b3e0b0b 	bleq	f83ebc <__bss_end__+0xf7a90c>
    128c:	00000803 	andeq	r0, r0, r3, lsl #16
    1290:	0b002403 	bleq	a2a4 <__bss_end__+0xcf4>
    1294:	030b3e0b 	movweq	r3, #48651	; 0xbe0b
    1298:	0400000e 	streq	r0, [r0], #-14
    129c:	19270115 	stmdbne	r7!, {r0, r2, r4, r8}
    12a0:	13011349 	movwne	r1, #4937	; 0x1349
    12a4:	05050000 	streq	r0, [r5, #-0]
    12a8:	00134900 	andseq	r4, r3, r0, lsl #18
    12ac:	00340600 	eorseq	r0, r4, r0, lsl #12
    12b0:	0b3a0e03 	bleq	e84ac4 <__bss_end__+0xe7b514>
    12b4:	0b390b3b 	bleq	e43fa8 <__bss_end__+0xe3a9f8>
    12b8:	193f1349 	ldmdbne	pc!, {r0, r3, r6, r8, r9, ip}	; <UNPREDICTABLE>
    12bc:	0000193c 	andeq	r1, r0, ip, lsr r9
    12c0:	0b000f07 	bleq	4ee4 <__code_start__-0x311c>
    12c4:	0013490b 	andseq	r4, r3, fp, lsl #18
    12c8:	00260800 	eoreq	r0, r6, r0, lsl #16
    12cc:	00001349 	andeq	r1, r0, r9, asr #6
    12d0:	3f002e09 	svccc	0x00002e09
    12d4:	3a0e0319 	bcc	381f40 <__bss_end__+0x378990>
    12d8:	390b3b0b 	stmdbcc	fp, {r0, r1, r3, r8, r9, fp, ip, sp}
    12dc:	1119270b 	tstne	r9, fp, lsl #14
    12e0:	40061201 	andmi	r1, r6, r1, lsl #4
    12e4:	19429718 	stmdbne	r2, {r3, r4, r8, r9, sl, ip, pc}^
    12e8:	Address 0x00000000000012e8 is out of bounds.


Disassembly of section .debug_loc:

00000000 <.debug_loc>:
       0:	00fc0004 	rscseq	r0, ip, r4
       4:	01080000 	mrseq	r0, (UNDEF: 8)
       8:	00020000 	andeq	r0, r2, r0
       c:	00009f30 	andeq	r9, r0, r0, lsr pc
	...
      20:	011c0000 	tsteq	ip, r0
      24:	012c0000 			; <UNDEFINED> instruction: 0x012c0000
      28:	00010000 	andeq	r0, r1, r0
      2c:	00012c50 	andeq	r2, r1, r0, asr ip
      30:	00012f00 	andeq	r2, r1, r0, lsl #30
      34:	51000100 	mrspl	r0, (UNDEF: 16)
      38:	0000012f 	andeq	r0, r0, pc, lsr #2
      3c:	00000134 	andeq	r0, r0, r4, lsr r1
      40:	34570001 	ldrbcc	r0, [r7], #-1
      44:	b8000001 	stmdalt	r0, {r0}
      48:	03000001 	movweq	r0, #1
      4c:	9f017700 	svcls	0x00017700
      50:	000001bc 			; <UNDEFINED> instruction: 0x000001bc
      54:	000001c0 	andeq	r0, r0, r0, asr #3
      58:	c0500001 	subsgt	r0, r0, r1
      5c:	e4000001 	str	r0, [r0], #-1
      60:	01000001 	tsteq	r0, r1
      64:	00005700 	andeq	r5, r0, r0, lsl #14
      68:	00000000 	andeq	r0, r0, r0
      6c:	00020000 	andeq	r0, r2, r0
      70:	011c0100 	tsteq	ip, r0, lsl #2
      74:	01b00000 	movseq	r0, r0
      78:	00040000 	andeq	r0, r4, r0
      7c:	9f17700a 	svcls	0x0017700a
      80:	000001bc 			; <UNDEFINED> instruction: 0x000001bc
      84:	000001c4 	andeq	r0, r0, r4, asr #3
      88:	700a0004 	andvc	r0, sl, r4
      8c:	00009f17 	andeq	r9, r0, r7, lsl pc
      90:	00000000 	andeq	r0, r0, r0
      94:	00010000 	andeq	r0, r1, r0
	...
      a0:	011c0100 	tsteq	ip, r0, lsl #2
      a4:	012c0000 			; <UNDEFINED> instruction: 0x012c0000
      a8:	00010000 	andeq	r0, r1, r0
      ac:	00012c50 	andeq	r2, r1, r0, asr ip
      b0:	00012f00 	andeq	r2, r1, r0, lsl #30
      b4:	51000100 	mrspl	r0, (UNDEF: 16)
      b8:	0000012f 	andeq	r0, r0, pc, lsr #2
      bc:	00000134 	andeq	r0, r0, r4, lsr r1
      c0:	34570001 	ldrbcc	r0, [r7], #-1
      c4:	b0000001 	andlt	r0, r0, r1
      c8:	03000001 	movweq	r0, #1
      cc:	9f017700 	svcls	0x00017700
      d0:	000001bc 			; <UNDEFINED> instruction: 0x000001bc
      d4:	000001c0 	andeq	r0, r0, r0, asr #3
      d8:	c0500001 	subsgt	r0, r0, r1
      dc:	c4000001 	strgt	r0, [r0], #-1
      e0:	01000001 	tsteq	r0, r1
      e4:	00005700 	andeq	r5, r0, r0, lsl #14
      e8:	00000000 	andeq	r0, r0, r0
      ec:	00010000 	andeq	r0, r1, r0
	...
      f8:	011c0100 	tsteq	ip, r0, lsl #2
      fc:	01540000 	cmpeq	r4, r0
     100:	00040000 	andeq	r0, r4, r0
     104:	9f7dd091 	svcls	0x007dd091
     108:	00000154 	andeq	r0, r0, r4, asr r1
     10c:	00000160 	andeq	r0, r0, r0, ror #2
     110:	60510001 	subsvs	r0, r1, r1
     114:	78000001 	stmdavc	r0, {r0}
     118:	04000001 	streq	r0, [r0], #-1
     11c:	7dd09100 	ldfvcp	f1, [r0]
     120:	0001789f 	muleq	r1, pc, r8	; <UNPREDICTABLE>
     124:	00018c00 	andeq	r8, r1, r0, lsl #24
     128:	52000100 	andpl	r0, r0, #0
     12c:	0000018c 	andeq	r0, r0, ip, lsl #3
     130:	000001b0 			; <UNDEFINED> instruction: 0x000001b0
     134:	d0910004 	addsle	r0, r1, r4
     138:	01bc9f7d 			; <UNDEFINED> instruction: 0x01bc9f7d
     13c:	01c40000 	biceq	r0, r4, r0
     140:	00040000 	andeq	r0, r4, r0
     144:	9f7dd091 	svcls	0x007dd091
	...
     150:	00010003 	andeq	r0, r1, r3
     154:	011c0000 	tsteq	ip, r0
     158:	014c0000 	mrseq	r0, (UNDEF: 76)
     15c:	00020000 	andeq	r0, r2, r0
     160:	01989f30 	orrseq	r9, r8, r0, lsr pc
     164:	01b00000 	movseq	r0, r0
     168:	00010000 	andeq	r0, r1, r0
     16c:	0001bc55 	andeq	fp, r1, r5, asr ip
     170:	0001e400 	andeq	lr, r1, r0, lsl #8
     174:	30000200 	andcc	r0, r0, r0, lsl #4
     178:	0000009f 	muleq	r0, pc, r0	; <UNPREDICTABLE>
     17c:	00000000 	andeq	r0, r0, r0
     180:	00000300 	andeq	r0, r0, r0, lsl #6
     184:	00000400 	andeq	r0, r0, r0, lsl #8
     188:	00011c01 	andeq	r1, r1, r1, lsl #24
     18c:	00014c00 	andeq	r4, r1, r0, lsl #24
     190:	30000200 	andcc	r0, r0, r0, lsl #4
     194:	00014c9f 	muleq	r1, pc, ip	; <UNPREDICTABLE>
     198:	00017400 	andeq	r7, r1, r0, lsl #8
     19c:	58000100 	stmdapl	r0, {r8}
     1a0:	00000198 	muleq	r0, r8, r1
     1a4:	000001b0 			; <UNDEFINED> instruction: 0x000001b0
     1a8:	bc580001 	mrrclt	0, 0, r0, r8, cr1
     1ac:	c4000001 	strgt	r0, [r0], #-1
     1b0:	02000001 	andeq	r0, r0, #1, 0
     1b4:	009f3000 	addseq	r3, pc, r0
     1b8:	00000000 	andeq	r0, r0, r0
     1bc:	04000000 	streq	r0, [r0], #-0
     1c0:	00000000 	andeq	r0, r0, r0
     1c4:	00000100 	andeq	r0, r0, r0, lsl #2
     1c8:	00011c01 	andeq	r1, r1, r1, lsl #24
     1cc:	00014c00 	andeq	r4, r1, r0, lsl #24
     1d0:	30000200 	andcc	r0, r0, r0, lsl #4
     1d4:	00014c9f 	muleq	r1, pc, ip	; <UNPREDICTABLE>
     1d8:	00015c00 	andeq	r5, r1, r0, lsl #24
     1dc:	55000100 	strpl	r0, [r0, #-256]	; 0xffffff00
     1e0:	0000015c 	andeq	r0, r0, ip, asr r1
     1e4:	00000198 	muleq	r0, r8, r1
     1e8:	98530001 	ldmdals	r3, {r0}^
     1ec:	b0000001 	andlt	r0, r0, r1
     1f0:	01000001 	tsteq	r0, r1
     1f4:	01bc5500 			; <UNDEFINED> instruction: 0x01bc5500
     1f8:	01c40000 	biceq	r0, r4, r0
     1fc:	00020000 	andeq	r0, r2, r0
     200:	00009f30 	andeq	r9, r0, r0, lsr pc
     204:	00000000 	andeq	r0, r0, r0
     208:	00020000 	andeq	r0, r2, r0
     20c:	00000000 	andeq	r0, r0, r0
     210:	00020200 	andeq	r0, r2, r0, lsl #4
     214:	00000130 	andeq	r0, r0, r0, lsr r1
     218:	0000014c 	andeq	r0, r0, ip, asr #2
     21c:	9f300002 	svcls	0x00300002
     220:	0000014c 	andeq	r0, r0, ip, asr #2
     224:	00000170 	andeq	r0, r0, r0, ror r1
     228:	70560001 	subsvc	r0, r6, r1
     22c:	9b000001 	blls	238 <__code_start__-0x7dc8>
     230:	01000001 	tsteq	r0, r1
     234:	019b5100 	orrseq	r5, fp, r0, lsl #2
     238:	019c0000 	orrseq	r0, ip, r0
     23c:	00030000 	andeq	r0, r3, r0
     240:	9c9f7f76 	ldcls	15, cr7, [pc], {118}	; 0x76
     244:	b0000001 	andlt	r0, r0, r1
     248:	01000001 	tsteq	r0, r1
     24c:	00005600 	andeq	r5, r0, r0, lsl #12
     250:	00000000 	andeq	r0, r0, r0
     254:	00010000 	andeq	r0, r1, r0
     258:	00000000 	andeq	r0, r0, r0
     25c:	0000014c 	andeq	r0, r0, ip, asr #2
     260:	00000170 	andeq	r0, r0, r0, ror r1
     264:	0076000c 	rsbseq	r0, r6, ip
     268:	7c912433 	cfldrsvc	mvf2, [r1], {51}	; 0x33
     26c:	012c0a22 			; <UNDEFINED> instruction: 0x012c0a22
     270:	01709f1c 	cmneq	r0, ip, lsl pc
     274:	019b0000 	orrseq	r0, fp, r0
     278:	000c0000 	andeq	r0, ip, r0
     27c:	24330071 	ldrtcs	r0, [r3], #-113	; 0xffffff8f
     280:	0a227c91 	beq	89f4cc <__bss_end__+0x895f1c>
     284:	9f1c012c 	svcls	0x001c012c
     288:	0000019b 	muleq	r0, fp, r1
     28c:	000001b0 			; <UNDEFINED> instruction: 0x000001b0
     290:	7f76000c 	svcvc	0x0076000c
     294:	7c912433 	cfldrsvc	mvf2, [r1], {51}	; 0x33
     298:	012c0a22 			; <UNDEFINED> instruction: 0x012c0a22
     29c:	00009f1c 	andeq	r9, r0, ip, lsl pc
	...
     2a8:	015c0000 	cmpeq	ip, r0
     2ac:	01980000 	orrseq	r0, r8, r0
     2b0:	00010000 	andeq	r0, r1, r0
     2b4:	00019855 	andeq	r9, r1, r5, asr r8
     2b8:	00019b00 	andeq	r9, r1, r0, lsl #22
     2bc:	53000100 	movwpl	r0, #256	; 0x100
	...
     2c8:	00000002 	andeq	r0, r0, r2
     2cc:	01980000 	orrseq	r0, r8, r0
     2d0:	01a00000 	moveq	r0, r0
     2d4:	00010000 	andeq	r0, r1, r0
     2d8:	0001a054 	andeq	sl, r1, r4, asr r0
     2dc:	0001a800 	andeq	sl, r1, r0, lsl #16
     2e0:	74000400 	strvc	r0, [r0], #-1024	; 0xfffffc00
     2e4:	a89f51c0 	ldmge	pc, {r6, r7, r8, ip, lr}	; <UNPREDICTABLE>
     2e8:	b0000001 	andlt	r0, r0, r1
     2ec:	04000001 	streq	r0, [r0], #-1
     2f0:	51907400 	orrspl	r7, r0, r0, lsl #8
     2f4:	0000009f 	muleq	r0, pc, r0	; <UNPREDICTABLE>
	...
     304:	00000400 	andeq	r0, r0, r0, lsl #8
     308:	50000100 	andpl	r0, r0, r0, lsl #2
     30c:	00000004 	andeq	r0, r0, r4
     310:	000000d8 	ldrdeq	r0, [r0], -r8
     314:	01f30004 	mvnseq	r0, r4
     318:	00009f50 	andeq	r9, r0, r0, asr pc
	...
     32c:	00100000 	andseq	r0, r0, r0
     330:	00010000 	andeq	r0, r1, r0
     334:	00001051 	andeq	r1, r0, r1, asr r0
     338:	0000bf00 	andeq	fp, r0, r0, lsl #30
     33c:	5e000100 	adfpls	f0, f0, f0
     340:	000000bf 	strheq	r0, [r0], -pc	; <UNPREDICTABLE>
     344:	000000c8 	andeq	r0, r0, r8, asr #1
     348:	01f30004 	mvnseq	r0, r4
     34c:	00c89f51 	sbceq	r9, r8, r1, asr pc
     350:	00d80000 	sbcseq	r0, r8, r0
     354:	00010000 	andeq	r0, r1, r0
     358:	0000005e 	andeq	r0, r0, lr, asr r0
	...
     368:	00001800 	andeq	r1, r0, r0, lsl #16
     36c:	52000100 	andpl	r0, r0, #0
     370:	00000018 	andeq	r0, r0, r8, lsl r0
     374:	000000d8 	ldrdeq	r0, [r0], -r8
     378:	00550001 	subseq	r0, r5, r1
	...
     384:	00000101 	andeq	r0, r0, r1, lsl #2
     388:	28000000 	stmdacs	r0, {}	; <UNPREDICTABLE>
     38c:	01000000 	mrseq	r0, (UNDEF: 0)
     390:	00285300 	eoreq	r5, r8, r0, lsl #6
     394:	00d80000 	sbcseq	r0, r8, r0
     398:	00040000 	andeq	r0, r4, r0
     39c:	9f5301f3 	svcls	0x005301f3
	...
     3b0:	00000034 	andeq	r0, r0, r4, lsr r0
     3b4:	00000060 	andeq	r0, r0, r0, rrx
     3b8:	60530001 	subsvs	r0, r3, r1
     3bc:	6c000000 	stcvs	0, cr0, [r0], {-0}
     3c0:	01000000 	mrseq	r0, (UNDEF: 0)
     3c4:	006c5c00 	rsbeq	r5, ip, r0, lsl #24
     3c8:	00b80000 	adcseq	r0, r8, r0
     3cc:	00010000 	andeq	r0, r1, r0
     3d0:	0000c853 	andeq	ip, r0, r3, asr r8
     3d4:	0000d800 	andeq	sp, r0, r0, lsl #16
     3d8:	53000100 	movwpl	r0, #256	; 0x100
	...
     3e4:	00010100 	andeq	r0, r1, r0, lsl #2
     3e8:	00010100 	andeq	r0, r1, r0, lsl #2
     3ec:	001c0000 	andseq	r0, ip, r0
     3f0:	003c0000 	eorseq	r0, ip, r0
     3f4:	00010000 	andeq	r0, r1, r0
     3f8:	00003c52 	andeq	r3, r0, r2, asr ip
     3fc:	00006000 	andeq	r6, r0, r0
     400:	53000100 	movwpl	r0, #256	; 0x100
     404:	00000060 	andeq	r0, r0, r0, rrx
     408:	00000088 	andeq	r0, r0, r8, lsl #1
     40c:	885c0001 	ldmdahi	ip, {r0}^
     410:	b8000000 	stmdalt	r0, {}	; <UNPREDICTABLE>
     414:	01000000 	mrseq	r0, (UNDEF: 0)
     418:	00c85300 	sbceq	r5, r8, r0, lsl #6
     41c:	00d80000 	sbcseq	r0, r8, r0
     420:	00010000 	andeq	r0, r1, r0
     424:	00000053 	andeq	r0, r0, r3, asr r0
     428:	00000000 	andeq	r0, r0, r0
     42c:	00000200 	andeq	r0, r0, r0, lsl #4
     430:	00000000 	andeq	r0, r0, r0
     434:	00001c00 	andeq	r1, r0, r0, lsl #24
     438:	00005800 	andeq	r5, r0, r0, lsl #16
     43c:	30000200 	andcc	r0, r0, r0, lsl #4
     440:	0000589f 	muleq	r0, pc, r8	; <UNPREDICTABLE>
     444:	0000ac00 	andeq	sl, r0, r0, lsl #24
     448:	50000100 	andpl	r0, r0, r0, lsl #2
     44c:	000000b4 	strheq	r0, [r0], -r4
     450:	000000bc 	strheq	r0, [r0], -ip
     454:	c8500001 	ldmdagt	r0, {r0}^
     458:	d8000000 	stmdale	r0, {}	; <UNPREDICTABLE>
     45c:	02000000 	andeq	r0, r0, #0, 0
     460:	009f3000 	addseq	r3, pc, r0
	...
     46c:	00002800 	andeq	r2, r0, r0, lsl #16
     470:	0000d800 	andeq	sp, r0, r0, lsl #16
     474:	56000100 	strpl	r0, [r0], -r0, lsl #2
	...
     480:	00000001 	andeq	r0, r0, r1
     484:	00000040 	andeq	r0, r0, r0, asr #32
     488:	000000bf 	strheq	r0, [r0], -pc	; <UNPREDICTABLE>
     48c:	c8510001 	ldmdagt	r1, {r0}^
     490:	d8000000 	stmdale	r0, {}	; <UNPREDICTABLE>
     494:	01000000 	mrseq	r0, (UNDEF: 0)
     498:	00005100 	andeq	r5, r0, r0, lsl #2
     49c:	00000000 	andeq	r0, r0, r0
     4a0:	00010000 	andeq	r0, r1, r0
     4a4:	00000002 	andeq	r0, r0, r2
     4a8:	00000040 	andeq	r0, r0, r0, asr #32
     4ac:	00000058 	andeq	r0, r0, r8, asr r0
     4b0:	88510001 	ldmdahi	r1, {r0}^
     4b4:	8c000000 	stchi	0, cr0, [r0], {-0}
     4b8:	01000000 	mrseq	r0, (UNDEF: 0)
     4bc:	00c85200 	sbceq	r5, r8, r0, lsl #4
     4c0:	00d80000 	sbcseq	r0, r8, r0
     4c4:	00010000 	andeq	r0, r1, r0
     4c8:	00000051 	andeq	r0, r0, r1, asr r0
     4cc:	00000000 	andeq	r0, r0, r0
     4d0:	00000300 	andeq	r0, r0, r0, lsl #6
     4d4:	00000000 	andeq	r0, r0, r0
     4d8:	00004000 	andeq	r4, r0, r0
     4dc:	00005800 	andeq	r5, r0, r0, lsl #16
     4e0:	30000200 	andcc	r0, r0, r0, lsl #4
     4e4:	0000589f 	muleq	r0, pc, r8	; <UNPREDICTABLE>
     4e8:	0000ac00 	andeq	sl, r0, r0, lsl #24
     4ec:	54000100 	strpl	r0, [r0], #-256	; 0xffffff00
     4f0:	000000b4 	strheq	r0, [r0], -r4
     4f4:	000000c8 	andeq	r0, r0, r8, asr #1
     4f8:	c8540001 	ldmdagt	r4, {r0}^
     4fc:	d8000000 	stmdale	r0, {}	; <UNPREDICTABLE>
     500:	02000000 	andeq	r0, r0, #0, 0
     504:	009f3000 	addseq	r3, pc, r0
	...
     510:	00002000 	andeq	r2, r0, r0
     514:	00002800 	andeq	r2, r0, r0, lsl #16
     518:	56000100 	strpl	r0, [r0], -r0, lsl #2
	...
     528:	00000040 	andeq	r0, r0, r0, asr #32
     52c:	000000bf 	strheq	r0, [r0], -pc	; <UNPREDICTABLE>
     530:	c8510001 	ldmdagt	r1, {r0}^
     534:	d8000000 	stmdale	r0, {}	; <UNPREDICTABLE>
     538:	01000000 	mrseq	r0, (UNDEF: 0)
     53c:	00005100 	andeq	r5, r0, r0, lsl #2
     540:	00000000 	andeq	r0, r0, r0
     544:	00010000 	andeq	r0, r1, r0
     548:	00000078 	andeq	r0, r0, r8, ror r0
     54c:	0000008c 	andeq	r0, r0, ip, lsl #1
     550:	00520001 	subseq	r0, r2, r1
	...
     55c:	00007800 	andeq	r7, r0, r0, lsl #16
     560:	00008c00 	andeq	r8, r0, r0, lsl #24
     564:	52000100 	andpl	r0, r0, #0
	...
     574:	0000009c 	muleq	r0, ip, r0
     578:	000000a4 	andeq	r0, r0, r4, lsr #1
     57c:	b45c0001 	ldrblt	r0, [ip], #-1
     580:	bf000000 	svclt	0x00000000
     584:	01000000 	mrseq	r0, (UNDEF: 0)
     588:	00005c00 	andeq	r5, r0, r0, lsl #24
	...
     594:	00e80000 	rsceq	r0, r8, r0
     598:	00f80000 	rscseq	r0, r8, r0
     59c:	00010000 	andeq	r0, r1, r0
     5a0:	0000f850 	andeq	pc, r0, r0, asr r8	; <UNPREDICTABLE>
     5a4:	00010c00 	andeq	r0, r1, r0, lsl #24
     5a8:	f3000400 	vshl.u8	d0, d0, d0
     5ac:	009f5001 	addseq	r5, pc, r1
     5b0:	00000000 	andeq	r0, r0, r0
     5b4:	01000000 	mrseq	r0, (UNDEF: 0)
     5b8:	00000000 	andeq	r0, r0, r0
     5bc:	0000ec00 	andeq	lr, r0, r0, lsl #24
     5c0:	0000f800 	andeq	pc, r0, r0, lsl #16
     5c4:	70000b00 	andvc	r0, r0, r0, lsl #22
     5c8:	23253500 			; <UNDEFINED> instruction: 0x23253500
     5cc:	818080b4 	strhhi	r8, [r0, r4]
     5d0:	00f89f02 	rscseq	r9, r8, r2, lsl #30
     5d4:	00fb0000 	rscseq	r0, fp, r0
     5d8:	00010000 	andeq	r0, r1, r0
     5dc:	0000fb50 	andeq	pc, r0, r0, asr fp	; <UNPREDICTABLE>
     5e0:	00010c00 	andeq	r0, r1, r0, lsl #24
     5e4:	f3000c00 			; <UNDEFINED> instruction: 0xf3000c00
     5e8:	25355001 	ldrcs	r5, [r5, #-1]!
     5ec:	8080b423 	addhi	fp, r0, r3, lsr #8
     5f0:	009f0281 	addseq	r0, pc, r1, lsl #5
	...
     5fc:	0000f000 	andeq	pc, r0, r0
     600:	00010c00 	andeq	r0, r1, r0, lsl #24
     604:	54000100 	strpl	r0, [r0], #-256	; 0xffffff00
	...
     618:	000000cc 	andeq	r0, r0, ip, asr #1
     61c:	000000db 	ldrdeq	r0, [r0], -fp
     620:	db500001 	blle	140062c <__bss_end__+0x13f707c>
     624:	e0000000 	and	r0, r0, r0
     628:	04000000 	streq	r0, [r0], #-0
     62c:	5001f300 	andpl	pc, r1, r0, lsl #6
     630:	0000e09f 	muleq	r0, pc, r0	; <UNPREDICTABLE>
     634:	0000e300 	andeq	lr, r0, r0, lsl #6
     638:	50000100 	andpl	r0, r0, r0, lsl #2
     63c:	000000e3 	andeq	r0, r0, r3, ror #1
     640:	000000e8 	andeq	r0, r0, r8, ror #1
     644:	01f30004 	mvnseq	r0, r4
     648:	00009f50 	andeq	r9, r0, r0, asr pc
	...
     658:	00cc0000 	sbceq	r0, ip, r0
     65c:	00db0000 	sbcseq	r0, fp, r0
     660:	00010000 	andeq	r0, r1, r0
     664:	0000db51 	andeq	sp, r0, r1, asr fp
     668:	0000e000 	andeq	lr, r0, r0
     66c:	f3000400 	vshl.u8	d0, d0, d0
     670:	e09f5101 	adds	r5, pc, r1, lsl #2
     674:	e3000000 	movw	r0, #0
     678:	01000000 	mrseq	r0, (UNDEF: 0)
     67c:	00e35100 	rsceq	r5, r3, r0, lsl #2
     680:	00e80000 	rsceq	r0, r8, r0
     684:	00040000 	andeq	r0, r4, r0
     688:	9f5101f3 	svcls	0x005101f3
	...
     698:	000000bc 	strheq	r0, [r0], -ip
     69c:	000000c7 	andeq	r0, r0, r7, asr #1
     6a0:	c7500001 	ldrbgt	r0, [r0, -r1]
     6a4:	cc000000 	stcgt	0, cr0, [r0], {-0}
     6a8:	04000000 	streq	r0, [r0], #-0
     6ac:	5001f300 	andpl	pc, r1, r0, lsl #6
     6b0:	0000009f 	muleq	r0, pc, r0	; <UNPREDICTABLE>
	...
     6bc:	00009800 	andeq	r9, r0, r0, lsl #16
     6c0:	0000b000 	andeq	fp, r0, r0
     6c4:	50000100 	andpl	r0, r0, r0, lsl #2
     6c8:	000000b0 	strheq	r0, [r0], -r0	; <UNPREDICTABLE>
     6cc:	000000bc 	strheq	r0, [r0], -ip
     6d0:	01f30004 	mvnseq	r0, r4
     6d4:	00009f50 	andeq	r9, r0, r0, asr pc
	...
     6e0:	00740000 	rsbseq	r0, r4, r0
     6e4:	008c0000 	addeq	r0, ip, r0
     6e8:	00010000 	andeq	r0, r1, r0
     6ec:	00008c50 	andeq	r8, r0, r0, asr ip
     6f0:	00009800 	andeq	r9, r0, r0, lsl #16
     6f4:	f3000400 	vshl.u8	d0, d0, d0
     6f8:	009f5001 	addseq	r5, pc, r1
	...
     704:	64000000 	strvs	r0, [r0], #-0
     708:	6f000000 	svcvs	0x00000000
     70c:	01000000 	mrseq	r0, (UNDEF: 0)
     710:	006f5000 	rsbeq	r5, pc, r0
     714:	00740000 	rsbseq	r0, r4, r0
     718:	00040000 	andeq	r0, r4, r0
     71c:	9f5001f3 	svcls	0x005001f3
	...
     730:	00000038 	andeq	r0, r0, r8, lsr r0
     734:	38500001 	ldmdacc	r0, {r0}^
     738:	64000000 	strvs	r0, [r0], #-0
     73c:	04000000 	streq	r0, [r0], #-0
     740:	5001f300 	andpl	pc, r1, r0, lsl #6
     744:	0000009f 	muleq	r0, pc, r0	; <UNPREDICTABLE>
	...
     754:	00004700 	andeq	r4, r0, r0, lsl #14
     758:	51000100 	mrspl	r0, (UNDEF: 16)
     75c:	00000047 	andeq	r0, r0, r7, asr #32
     760:	00000064 	andeq	r0, r0, r4, rrx
     764:	01f30004 	mvnseq	r0, r4
     768:	00009f51 	andeq	r9, r0, r1, asr pc
	...
     774:	00000034 	andeq	r0, r0, r4, lsr r0
     778:	00000064 	andeq	r0, r0, r4, rrx
     77c:	00540001 	subseq	r0, r4, r1
	...
     788:	00004000 	andeq	r4, r0, r0
     78c:	00006400 	andeq	r6, r0, r0, lsl #8
     790:	56000100 	strpl	r0, [r0], -r0, lsl #2
	...
     79c:	01000000 	mrseq	r0, (UNDEF: 0)
     7a0:	00000001 	andeq	r0, r0, r1
     7a4:	00000048 	andeq	r0, r0, r8, asr #32
     7a8:	00000050 	andeq	r0, r0, r0, asr r0
     7ac:	50500001 	subspl	r0, r0, r1
     7b0:	50000000 	andpl	r0, r0, r0
     7b4:	01000000 	mrseq	r0, (UNDEF: 0)
     7b8:	00505100 	subseq	r5, r0, r0, lsl #2
     7bc:	00540000 	subseq	r0, r4, r0
     7c0:	00090000 	andeq	r0, r9, r0
     7c4:	00740075 	rsbseq	r0, r4, r5, ror r0
     7c8:	21007124 	tstcs	r0, r4, lsr #2
     7cc:	0000549f 	muleq	r0, pc, r4	; <UNPREDICTABLE>
     7d0:	00005b00 	andeq	r5, r0, r0, lsl #22
     7d4:	51000100 	mrspl	r0, (UNDEF: 16)
	...
     7e4:	002c0000 	eoreq	r0, ip, r0
     7e8:	00380000 	eorseq	r0, r8, r0
     7ec:	00010000 	andeq	r0, r1, r0
     7f0:	00003850 	andeq	r3, r0, r0, asr r8
     7f4:	00004800 	andeq	r4, r0, r0, lsl #16
     7f8:	54000100 	strpl	r0, [r0], #-256	; 0xffffff00
     7fc:	00000048 	andeq	r0, r0, r8, asr #32
     800:	00000058 	andeq	r0, r0, r8, asr r0
     804:	00500001 	subseq	r0, r0, r1
	...
     810:	00000101 	andeq	r0, r0, r1, lsl #2
     814:	08000000 	stmdaeq	r0, {}	; <UNPREDICTABLE>
     818:	01000000 	mrseq	r0, (UNDEF: 0)
     81c:	00085000 	andeq	r5, r8, r0
     820:	00340000 	eorseq	r0, r4, r0
     824:	00010000 	andeq	r0, r1, r0
     828:	00000054 	andeq	r0, r0, r4, asr r0
	...
     834:	88000000 	stmdahi	r0, {}	; <UNPREDICTABLE>
     838:	b8000002 	stmdalt	r0, {r1}
     83c:	01000002 	tsteq	r0, r2
     840:	02b85000 	adcseq	r5, r8, #0, 0
     844:	07040000 	streq	r0, [r4, -r0]
     848:	00010000 	andeq	r0, r1, r0
     84c:	00070459 	andeq	r0, r7, r9, asr r4
     850:	00074000 	andeq	r4, r7, r0
     854:	f3000400 	vshl.u8	d0, d0, d0
     858:	009f5001 	addseq	r5, pc, r1
	...
     868:	00028800 	andeq	r8, r2, r0, lsl #16
     86c:	0002a000 	andeq	sl, r2, r0
     870:	51000100 	mrspl	r0, (UNDEF: 16)
     874:	000002a0 	andeq	r0, r0, r0, lsr #5
     878:	000002b8 			; <UNDEFINED> instruction: 0x000002b8
     87c:	01710003 	cmneq	r1, r3
     880:	0002b89f 	muleq	r2, pc, r8	; <UNPREDICTABLE>
     884:	00074000 	andeq	r4, r7, r0
     888:	f3000400 	vshl.u8	d0, d0, d0
     88c:	009f5101 	addseq	r5, pc, r1, lsl #2
	...
     8a0:	88000000 	stmdahi	r0, {}	; <UNPREDICTABLE>
     8a4:	b8000002 	stmdalt	r0, {r1}
     8a8:	01000002 	tsteq	r0, r2
     8ac:	02b85200 	adcseq	r5, r8, #0, 4
     8b0:	03ec0000 	mvneq	r0, #0, 0
     8b4:	00010000 	andeq	r0, r1, r0
     8b8:	0003ec56 	andeq	lr, r3, r6, asr ip
     8bc:	0004b800 	andeq	fp, r4, r0, lsl #16
     8c0:	5b000100 	blpl	cc8 <__code_start__-0x7338>
     8c4:	000004b8 			; <UNDEFINED> instruction: 0x000004b8
     8c8:	000004d8 	ldrdeq	r0, [r0], -r8
     8cc:	d8560001 	ldmdale	r6, {r0}^
     8d0:	5c000004 	stcpl	0, cr0, [r0], {4}
     8d4:	01000005 	tsteq	r0, r5
     8d8:	055c5b00 	ldrbeq	r5, [ip, #-2816]	; 0xfffff500
     8dc:	07040000 	streq	r0, [r4, -r0]
     8e0:	00010000 	andeq	r0, r1, r0
     8e4:	00000056 	andeq	r0, r0, r6, asr r0
     8e8:	00000000 	andeq	r0, r0, r0
     8ec:	00000100 	andeq	r0, r0, r0, lsl #2
     8f0:	00000000 	andeq	r0, r0, r0
     8f4:	00000101 	andeq	r0, r0, r1, lsl #2
     8f8:	00000000 	andeq	r0, r0, r0
     8fc:	00000202 	andeq	r0, r0, r2, lsl #4
     900:	00029c00 	andeq	r9, r2, r0, lsl #24
     904:	0002b800 	andeq	fp, r2, r0, lsl #16
     908:	50000100 	andpl	r0, r0, r0, lsl #2
     90c:	000002b8 			; <UNDEFINED> instruction: 0x000002b8
     910:	000002bc 			; <UNDEFINED> instruction: 0x000002bc
     914:	bc540001 	mrrclt	0, 0, r0, r4, cr1
     918:	c0000002 	andgt	r0, r0, r2
     91c:	03000002 	movweq	r0, #2
     920:	9f017400 	svcls	0x00017400
     924:	000002c0 	andeq	r0, r0, r0, asr #5
     928:	000002e4 	andeq	r0, r0, r4, ror #5
     92c:	e4540001 	ldrb	r0, [r4], #-1
     930:	e8000002 	stmda	r0, {r1}
     934:	03000002 	movweq	r0, #2
     938:	9f017400 	svcls	0x00017400
     93c:	000002e8 	andeq	r0, r0, r8, ror #5
     940:	000006d4 	ldrdeq	r0, [r0], -r4
     944:	d4540001 	ldrble	r0, [r4], #-1
     948:	d8000006 	stmdale	r0, {r1, r2}
     94c:	03000006 	movweq	r0, #6
     950:	9f017400 	svcls	0x00017400
     954:	000006d8 	ldrdeq	r0, [r0], -r8
     958:	000006f0 	strdeq	r0, [r0], -r0	; <UNPREDICTABLE>
     95c:	f0540001 			; <UNDEFINED> instruction: 0xf0540001
     960:	f8000006 			; <UNDEFINED> instruction: 0xf8000006
     964:	03000006 	movweq	r0, #6
     968:	9f017400 	svcls	0x00017400
     96c:	000006f8 	strdeq	r0, [r0], -r8
     970:	00000704 	andeq	r0, r0, r4, lsl #14
     974:	00540001 	subseq	r0, r4, r1
	...
     980:	a4000000 	strge	r0, [r0], #-0
     984:	04000002 	streq	r0, [r0], #-2
     988:	01000007 	tsteq	r0, r7
     98c:	07045800 	streq	r5, [r4, -r0, lsl #16]
     990:	07400000 	strbeq	r0, [r0, -r0]
     994:	000a0000 	andeq	r0, sl, r0
     998:	f35101f3 	vbsl	q8, <illegal reg q8.5>, <illegal reg q9.5>
     99c:	31225001 			; <UNDEFINED> instruction: 0x31225001
     9a0:	00009f1c 	andeq	r9, r0, ip, lsl pc
     9a4:	00000000 	andeq	r0, r0, r0
     9a8:	00010000 	andeq	r0, r1, r0
     9ac:	00000000 	andeq	r0, r0, r0
     9b0:	00000408 	andeq	r0, r0, r8, lsl #8
     9b4:	00000474 	andeq	r0, r0, r4, ror r4
     9b8:	d8570001 	ldmdale	r7, {r0}^
     9bc:	fc000004 	stc2	0, cr0, [r0], {4}
     9c0:	01000004 	tsteq	r0, r4
     9c4:	05405700 	strbeq	r5, [r0, #-1792]	; 0xfffff900
     9c8:	055c0000 	ldrbeq	r0, [ip, #-0]
     9cc:	00010000 	andeq	r0, r1, r0
     9d0:	00000057 	andeq	r0, r0, r7, asr r0
     9d4:	00000000 	andeq	r0, r0, r0
     9d8:	00000200 	andeq	r0, r0, r0, lsl #4
     9dc:	00040800 	andeq	r0, r4, r0, lsl #16
     9e0:	0004b800 	andeq	fp, r4, r0, lsl #16
     9e4:	5a000100 	bpl	dec <__code_start__-0x7214>
     9e8:	000004d8 	ldrdeq	r0, [r0], -r8
     9ec:	0000055c 	andeq	r0, r0, ip, asr r5
     9f0:	005a0001 	subseq	r0, sl, r1
     9f4:	00000000 	andeq	r0, r0, r0
     9f8:	01000000 	mrseq	r0, (UNDEF: 0)
     9fc:	ac000000 	stcge	0, cr0, [r0], {-0}
     a00:	b8000002 	stmdalt	r0, {r1}
     a04:	01000002 	tsteq	r0, r2
     a08:	02b85200 	adcseq	r5, r8, #0, 4
     a0c:	07400000 	strbeq	r0, [r0, -r0]
     a10:	00030000 	andeq	r0, r3, r0
     a14:	007dc891 			; <UNDEFINED> instruction: 0x007dc891
	...
     a28:	00000101 	andeq	r0, r0, r1, lsl #2
	...
     a34:	00047400 	andeq	r7, r4, r0, lsl #8
     a38:	00048c00 	andeq	r8, r4, r0, lsl #24
     a3c:	50000100 	andpl	r0, r0, r0, lsl #2
     a40:	0000048c 	andeq	r0, r0, ip, lsl #9
     a44:	000004b8 			; <UNDEFINED> instruction: 0x000004b8
     a48:	fc570001 	mrrc2	0, 0, r0, r7, cr1
     a4c:	14000004 	strne	r0, [r0], #-4
     a50:	01000005 	tsteq	r0, r5
     a54:	05145000 	ldreq	r5, [r4, #-0]
     a58:	05400000 	strbeq	r0, [r0, #-0]
     a5c:	00010000 	andeq	r0, r1, r0
     a60:	0005a457 	andeq	sl, r5, r7, asr r4
     a64:	0005a400 	andeq	sl, r5, r0, lsl #8
     a68:	50000100 	andpl	r0, r0, r0, lsl #2
     a6c:	000005a4 	andeq	r0, r0, r4, lsr #11
     a70:	000005ac 	andeq	r0, r0, ip, lsr #11
     a74:	dc570001 	mrrcle	0, 0, r0, r7, cr1
     a78:	e0000005 	and	r0, r0, r5
     a7c:	01000005 	tsteq	r0, r5
     a80:	06105000 	ldreq	r5, [r0], -r0
     a84:	06140000 	ldreq	r0, [r4], -r0
     a88:	00010000 	andeq	r0, r1, r0
     a8c:	00064450 	andeq	r4, r6, r0, asr r4
     a90:	00064800 	andeq	r4, r6, r0, lsl #16
     a94:	50000100 	andpl	r0, r0, r0, lsl #2
     a98:	0000068c 	andeq	r0, r0, ip, lsl #13
     a9c:	00000690 	muleq	r0, r0, r6
     aa0:	d0500001 	subsle	r0, r0, r1
     aa4:	f0000006 			; <UNDEFINED> instruction: 0xf0000006
     aa8:	01000006 	tsteq	r0, r6
     aac:	00005700 	andeq	r5, r0, r0, lsl #14
     ab0:	00000000 	andeq	r0, r0, r0
     ab4:	00020000 	andeq	r0, r2, r0
     ab8:	00000000 	andeq	r0, r0, r0
     abc:	000002f4 	strdeq	r0, [r0], -r4
     ac0:	000002f8 	strdeq	r0, [r0], -r8
     ac4:	9f300002 	svcls	0x00300002
     ac8:	000002f8 	strdeq	r0, [r0], -r8
     acc:	00000314 	andeq	r0, r0, r4, lsl r3
     ad0:	1c550001 	mrrcne	0, 0, r0, r5, cr1
     ad4:	f0000003 			; <UNDEFINED> instruction: 0xf0000003
     ad8:	01000006 	tsteq	r0, r6
     adc:	00005500 	andeq	r5, r0, r0, lsl #10
     ae0:	00000000 	andeq	r0, r0, r0
     ae4:	00010000 	andeq	r0, r1, r0
	...
     af0:	000003b8 			; <UNDEFINED> instruction: 0x000003b8
     af4:	00000454 	andeq	r0, r0, r4, asr r4
     af8:	54560001 	ldrbpl	r0, [r6], #-1
     afc:	b8000004 	stmdalt	r0, {r2}
     b00:	03000004 	movweq	r0, #4
     b04:	9f7e7b00 	svcls	0x007e7b00
     b08:	000004b8 			; <UNDEFINED> instruction: 0x000004b8
     b0c:	000004dc 	ldrdeq	r0, [r0], -ip
     b10:	dc560001 	mrrcle	0, 0, r0, r6, cr1
     b14:	40000004 	andmi	r0, r0, r4
     b18:	03000005 	movweq	r0, #5
     b1c:	9f7e7b00 	svcls	0x007e7b00
     b20:	00000540 	andeq	r0, r0, r0, asr #10
     b24:	0000055c 	andeq	r0, r0, ip, asr r5
     b28:	00560001 	subseq	r0, r6, r1
	...
     b38:	00007000 	andeq	r7, r0, r0
     b3c:	00009400 	andeq	r9, r0, r0, lsl #8
     b40:	50000100 	andpl	r0, r0, r0, lsl #2
     b44:	00000094 	muleq	r0, r4, r0
     b48:	000000fc 	strdeq	r0, [r0], -ip
     b4c:	02700003 	rsbseq	r0, r0, #3, 0
     b50:	0000fc9f 	muleq	r0, pc, ip	; <UNPREDICTABLE>
     b54:	00022400 	andeq	r2, r2, r0, lsl #8
     b58:	f3000400 	vshl.u8	d0, d0, d0
     b5c:	009f5001 	addseq	r5, pc, r1
	...
     b74:	70000000 	andvc	r0, r0, r0
     b78:	e0000000 	and	r0, r0, r0
     b7c:	01000000 	mrseq	r0, (UNDEF: 0)
     b80:	00e05100 	rsceq	r5, r0, r0, lsl #2
     b84:	01540000 	cmpeq	r4, r0
     b88:	00010000 	andeq	r0, r1, r0
     b8c:	00015455 	andeq	r5, r1, r5, asr r4
     b90:	00015800 	andeq	r5, r1, r0, lsl #16
     b94:	51000100 	mrspl	r0, (UNDEF: 16)
     b98:	00000158 	andeq	r0, r0, r8, asr r1
     b9c:	000001b0 			; <UNDEFINED> instruction: 0x000001b0
     ba0:	b0550001 	subslt	r0, r5, r1
     ba4:	c0000001 	andgt	r0, r0, r1
     ba8:	01000001 	tsteq	r0, r1
     bac:	01c05100 	biceq	r5, r0, r0, lsl #2
     bb0:	01e40000 	mvneq	r0, r0
     bb4:	00010000 	andeq	r0, r1, r0
     bb8:	0001e455 	andeq	lr, r1, r5, asr r4
     bbc:	0001f800 	andeq	pc, r1, r0, lsl #16
     bc0:	51000100 	mrspl	r0, (UNDEF: 16)
     bc4:	000001f8 	strdeq	r0, [r0], -r8
     bc8:	00000224 	andeq	r0, r0, r4, lsr #4
     bcc:	00550001 	subseq	r0, r5, r1
	...
     bd8:	70000000 	andvc	r0, r0, r0
     bdc:	84000000 	strhi	r0, [r0], #-0
     be0:	01000000 	mrseq	r0, (UNDEF: 0)
     be4:	00845200 	addeq	r5, r4, r0, lsl #4
     be8:	02240000 	eoreq	r0, r4, #0, 0
     bec:	00010000 	andeq	r0, r1, r0
     bf0:	00000054 	andeq	r0, r0, r4, asr r0
	...
     bfc:	00010000 	andeq	r0, r1, r0
     c00:	00000000 	andeq	r0, r0, r0
     c04:	00007000 	andeq	r7, r0, r0
     c08:	0000f400 	andeq	pc, r0, r0, lsl #8
     c0c:	53000100 	movwpl	r0, #256	; 0x100
     c10:	0000014c 	andeq	r0, r0, ip, asr #2
     c14:	00000180 	andeq	r0, r0, r0, lsl #3
     c18:	80530001 	subshi	r0, r3, r1
     c1c:	8c000001 	stchi	0, cr0, [r0], {1}
     c20:	04000001 	streq	r0, [r0], #-1
     c24:	5301f300 	movwpl	pc, #4864	; 0x1300	; <UNPREDICTABLE>
     c28:	0001b09f 	muleq	r1, pc, r0	; <UNPREDICTABLE>
     c2c:	0001e800 	andeq	lr, r1, r0, lsl #16
     c30:	53000100 	movwpl	r0, #256	; 0x100
     c34:	000001e8 	andeq	r0, r0, r8, ror #3
     c38:	000001ff 	strdeq	r0, [r0], -pc	; <UNPREDICTABLE>
     c3c:	ff5c0001 			; <UNDEFINED> instruction: 0xff5c0001
     c40:	24000001 	strcs	r0, [r0], #-1
     c44:	04000002 	streq	r0, [r0], #-2
     c48:	5301f300 	movwpl	pc, #4864	; 0x1300	; <UNPREDICTABLE>
     c4c:	0000009f 	muleq	r0, pc, r0	; <UNPREDICTABLE>
	...
     c58:	70000000 	andvc	r0, r0, r0
     c5c:	8c000000 	stchi	0, cr0, [r0], {-0}
     c60:	02000000 	andeq	r0, r0, #0, 0
     c64:	8c009100 	stfhid	f1, [r0], {-0}
     c68:	93000000 	movwls	r0, #0
     c6c:	01000001 	tsteq	r0, r1
     c70:	01b05200 	lslseq	r5, r0, #4
     c74:	01f40000 	mvnseq	r0, r0
     c78:	00010000 	andeq	r0, r1, r0
     c7c:	00000052 	andeq	r0, r0, r2, asr r0
     c80:	00000000 	andeq	r0, r0, r0
     c84:	00000100 	andeq	r0, r0, r0, lsl #2
     c88:	00000101 	andeq	r0, r0, r1, lsl #2
     c8c:	00000000 	andeq	r0, r0, r0
     c90:	01010000 	mrseq	r0, (UNDEF: 1)
     c94:	00000101 	andeq	r0, r0, r1, lsl #2
     c98:	00000101 	andeq	r0, r0, r1, lsl #2
	...
     ca4:	00008c00 	andeq	r8, r0, r0, lsl #24
     ca8:	0000fc00 	andeq	pc, r0, r0, lsl #24
     cac:	91000400 	tstls	r0, r0, lsl #8
     cb0:	fc9f7fa0 	ldc2	15, cr7, [pc], {160}	; 0xa0
     cb4:	3c000000 	stccc	0, cr0, [r0], {-0}
     cb8:	01000001 	tsteq	r0, r1
     cbc:	013c5000 	teqeq	ip, r0
     cc0:	01480000 	mrseq	r0, (UNDEF: 72)
     cc4:	00030000 	andeq	r0, r3, r0
     cc8:	489f0271 	ldmmi	pc, {r0, r4, r5, r6, r9}	; <UNPREDICTABLE>
     ccc:	4c000001 	stcmi	0, cr0, [r0], {1}
     cd0:	01000001 	tsteq	r0, r1
     cd4:	014c5000 	mrseq	r5, (UNDEF: 76)
     cd8:	01580000 	cmpeq	r8, r0
     cdc:	00040000 	andeq	r0, r4, r0
     ce0:	9f7fa091 	svcls	0x007fa091
     ce4:	00000158 	andeq	r0, r0, r8, asr r1
     ce8:	0000016c 	andeq	r0, r0, ip, ror #2
     cec:	6c510001 	mrrcvs	0, 0, r0, r1, cr1
     cf0:	78000001 	stmdavc	r0, {r0}
     cf4:	03000001 	movweq	r0, #1
     cf8:	9f7f7100 	svcls	0x007f7100
     cfc:	00000178 	andeq	r0, r0, r8, ror r1
     d00:	00000184 	andeq	r0, r0, r4, lsl #3
     d04:	01710003 	cmneq	r1, r3
     d08:	0001849f 	muleq	r1, pc, r4	; <UNPREDICTABLE>
     d0c:	00019300 	andeq	r9, r1, r0, lsl #6
     d10:	50000100 	andpl	r0, r0, r0, lsl #2
     d14:	000001b0 			; <UNDEFINED> instruction: 0x000001b0
     d18:	000001b0 			; <UNDEFINED> instruction: 0x000001b0
     d1c:	a0910004 	addsge	r0, r1, r4
     d20:	01b09f7f 	rorseq	r9, pc, pc
     d24:	01b80000 			; <UNDEFINED> instruction: 0x01b80000
     d28:	00040000 	andeq	r0, r4, r0
     d2c:	9f7fa191 	svcls	0x007fa191
     d30:	000001b8 			; <UNDEFINED> instruction: 0x000001b8
     d34:	000001bc 			; <UNDEFINED> instruction: 0x000001bc
     d38:	bc500001 	mrrclt	0, 0, r0, r0, cr1	; <UNPREDICTABLE>
     d3c:	c0000001 	andgt	r0, r0, r1
     d40:	04000001 	streq	r0, [r0], #-1
     d44:	7fa09100 	svcvc	0x00a09100
     d48:	0001c09f 	muleq	r1, pc, r0	; <UNPREDICTABLE>
     d4c:	0001d400 	andeq	sp, r1, r0, lsl #8
     d50:	50000100 	andpl	r0, r0, r0, lsl #2
     d54:	000001d4 	ldrdeq	r0, [r0], -r4
     d58:	000001e4 	andeq	r0, r0, r4, ror #3
     d5c:	7f700003 	svcvc	0x00700003
     d60:	0001e49f 	muleq	r1, pc, r4	; <UNPREDICTABLE>
     d64:	00022400 	andeq	r2, r2, r0, lsl #8
     d68:	91000400 	tstls	r0, r0, lsl #8
     d6c:	009f7fa0 	addseq	r7, pc, r0, lsr #31
	...
     d78:	01010000 	mrseq	r0, (UNDEF: 1)
	...
     d88:	90000000 	andls	r0, r0, r0
     d8c:	dc000000 	stcle	0, cr0, [r0], {-0}
     d90:	01000000 	mrseq	r0, (UNDEF: 0)
     d94:	00dc5c00 	sbcseq	r5, ip, r0, lsl #24
     d98:	00f40000 	rscseq	r0, r4, r0
     d9c:	00010000 	andeq	r0, r1, r0
     da0:	0000f453 	andeq	pc, r0, r3, asr r4	; <UNPREDICTABLE>
     da4:	00014c00 	andeq	r4, r1, r0, lsl #24
     da8:	5c000100 	stfpls	f0, [r0], {-0}
     dac:	0000014c 	andeq	r0, r0, ip, asr #2
     db0:	00000158 	andeq	r0, r0, r8, asr r1
     db4:	58530001 	ldmdapl	r3, {r0}^
     db8:	74000001 	strvc	r0, [r0], #-1
     dbc:	01000001 	tsteq	r0, r1
     dc0:	01b05c00 	lslseq	r5, r0, #24
     dc4:	01c00000 	biceq	r0, r0, r0
     dc8:	00010000 	andeq	r0, r1, r0
     dcc:	0001c053 	andeq	ip, r1, r3, asr r0
     dd0:	0001dc00 	andeq	sp, r1, r0, lsl #24
     dd4:	5c000100 	stfpls	f0, [r0], {-0}
     dd8:	000001e4 	andeq	r0, r0, r4, ror #3
     ddc:	000001e8 	andeq	r0, r0, r8, ror #3
     de0:	e8530001 	ldmda	r3, {r0}^
     de4:	ff000001 			; <UNDEFINED> instruction: 0xff000001
     de8:	01000001 	tsteq	r0, r1
     dec:	01ff5c00 	mvnseq	r5, r0, lsl #24
     df0:	02240000 	eoreq	r0, r4, #0, 0
     df4:	00040000 	andeq	r0, r4, r0
     df8:	9f5301f3 	svcls	0x005301f3
	...
     e04:	00010101 	andeq	r0, r1, r1, lsl #2
     e08:	00000000 	andeq	r0, r0, r0
     e0c:	000000dc 	ldrdeq	r0, [r0], -ip
     e10:	000000f0 	strdeq	r0, [r0], -r0	; <UNPREDICTABLE>
     e14:	9f300002 	svcls	0x00300002
     e18:	000000f0 	strdeq	r0, [r0], -r0	; <UNPREDICTABLE>
     e1c:	000000f8 	strdeq	r0, [r0], -r8
     e20:	9f310002 	svcls	0x00310002
     e24:	000000fc 	strdeq	r0, [r0], -ip
     e28:	0000014c 	andeq	r0, r0, ip, asr #2
     e2c:	4c560001 	mrrcmi	0, 0, r0, r6, cr1
     e30:	54000001 	strpl	r0, [r0], #-1
     e34:	02000001 	andeq	r0, r0, #1, 0
     e38:	009f3000 	addseq	r3, pc, r0
	...
     e44:	01010000 	mrseq	r0, (UNDEF: 1)
     e48:	01010000 	mrseq	r0, (UNDEF: 1)
     e4c:	00003800 	andeq	r3, r0, r0, lsl #16
     e50:	00005400 	andeq	r5, r0, r0, lsl #8
     e54:	50000100 	andpl	r0, r0, r0, lsl #2
     e58:	00000054 	andeq	r0, r0, r4, asr r0
     e5c:	00000058 	andeq	r0, r0, r8, asr r0
     e60:	58520001 	ldmdapl	r2, {r0}^
     e64:	60000000 	andvs	r0, r0, r0
     e68:	03000000 	movweq	r0, #0
     e6c:	9f017200 	svcls	0x00017200
     e70:	00000060 	andeq	r0, r0, r0, rrx
     e74:	00000064 	andeq	r0, r0, r4, rrx
     e78:	64520001 	ldrbvs	r0, [r2], #-1
     e7c:	70000000 	andvc	r0, r0, r0
     e80:	03000000 	movweq	r0, #0
     e84:	9f017200 	svcls	0x00017200
	...
     e94:	00000038 	andeq	r0, r0, r8, lsr r0
     e98:	00000050 	andeq	r0, r0, r0, asr r0
     e9c:	50510001 	subspl	r0, r1, r1
     ea0:	70000000 	andvc	r0, r0, r0
     ea4:	04000000 	streq	r0, [r0], #-0
     ea8:	5101f300 	mrspl	pc, SP_irq	; <UNPREDICTABLE>
     eac:	0000009f 	muleq	r0, pc, r0	; <UNPREDICTABLE>
	...
     eb8:	01010000 	mrseq	r0, (UNDEF: 1)
     ebc:	00003800 	andeq	r3, r0, r0, lsl #16
     ec0:	00005000 	andeq	r5, r0, r0
     ec4:	52000100 	andpl	r0, r0, #0
     ec8:	00000050 	andeq	r0, r0, r0, asr r0
     ecc:	0000005c 	andeq	r0, r0, ip, asr r0
     ed0:	5c510001 	mrrcpl	0, 0, r0, r1, cr1
     ed4:	60000000 	andvs	r0, r0, r0
     ed8:	03000000 	movweq	r0, #0
     edc:	9f017100 	svcls	0x00017100
     ee0:	00000060 	andeq	r0, r0, r0, rrx
     ee4:	00000070 	andeq	r0, r0, r0, ror r0
     ee8:	00510001 	subseq	r0, r1, r1
	...
     ef4:	38000000 	stmdacc	r0, {}	; <UNPREDICTABLE>
     ef8:	4c000000 	stcmi	0, cr0, [r0], {-0}
     efc:	01000000 	mrseq	r0, (UNDEF: 0)
     f00:	004c5300 	subeq	r5, ip, r0, lsl #6
     f04:	00680000 	rsbeq	r0, r8, r0
     f08:	00010000 	andeq	r0, r1, r0
     f0c:	00000053 	andeq	r0, r0, r3, asr r0
	...
     f1c:	00004000 	andeq	r4, r0, r0
     f20:	00004800 	andeq	r4, r0, r0, lsl #16
     f24:	5c000100 	stfpls	f0, [r0], {-0}
     f28:	00000048 	andeq	r0, r0, r8, asr #32
     f2c:	0000004c 	andeq	r0, r0, ip, asr #32
     f30:	00720008 	rsbseq	r0, r2, r8
     f34:	231c0073 	tstcs	ip, #115, 0	; 0x73
     f38:	004c9f01 	subeq	r9, ip, r1, lsl #30
     f3c:	00540000 	subseq	r0, r4, r0
     f40:	00090000 	andeq	r0, r9, r0
     f44:	01f30072 	mvnseq	r0, r2, ror r0
     f48:	01231c53 			; <UNDEFINED> instruction: 0x01231c53
     f4c:	0000549f 	muleq	r0, pc, r4	; <UNPREDICTABLE>
     f50:	00007000 	andeq	r7, r0, r0
     f54:	f3000a00 	vpmax.u8	d0, d0, d0
     f58:	01f35201 	mvnseq	r5, r1, lsl #4
     f5c:	01231c53 			; <UNDEFINED> instruction: 0x01231c53
     f60:	0000009f 	muleq	r0, pc, r0	; <UNPREDICTABLE>
     f64:	00000000 	andeq	r0, r0, r0
     f68:	4c000100 	stfmis	f0, [r0], {-0}
     f6c:	70000000 	andvc	r0, r0, r0
     f70:	01000000 	mrseq	r0, (UNDEF: 0)
     f74:	00005000 	andeq	r5, r0, r0
     f78:	00000000 	andeq	r0, r0, r0
     f7c:	01000000 	mrseq	r0, (UNDEF: 0)
     f80:	00000001 	andeq	r0, r0, r1
     f84:	00000014 	andeq	r0, r0, r4, lsl r0
     f88:	0000001c 	andeq	r0, r0, ip, lsl r0
     f8c:	1c500001 	mrrcne	0, 0, r0, r0, cr1	; <UNPREDICTABLE>
     f90:	24000000 	strcs	r0, [r0], #-0
     f94:	03000000 	movweq	r0, #0
     f98:	9f017000 	svcls	0x00017000
     f9c:	00000024 	andeq	r0, r0, r4, lsr #32
     fa0:	00000038 	andeq	r0, r0, r8, lsr r0
     fa4:	00500001 	subseq	r0, r0, r1
	...
     fb0:	14000000 	strne	r0, [r0], #-0
     fb4:	18000000 	stmdane	r0, {}	; <UNPREDICTABLE>
     fb8:	01000000 	mrseq	r0, (UNDEF: 0)
     fbc:	00185100 	andseq	r5, r8, r0, lsl #2
     fc0:	00380000 	eorseq	r0, r8, r0
     fc4:	00040000 	andeq	r0, r4, r0
     fc8:	9f5101f3 	svcls	0x005101f3
	...
     fd4:	00180000 	andseq	r0, r8, r0
     fd8:	00380000 	eorseq	r0, r8, r0
     fdc:	00010000 	andeq	r0, r1, r0
     fe0:	00000051 	andeq	r0, r0, r1, asr r0
	...
     ff0:	04000000 	streq	r0, [r0], #-0
     ff4:	01000000 	mrseq	r0, (UNDEF: 0)
     ff8:	00045000 	andeq	r5, r4, r0
     ffc:	000c0000 	andeq	r0, ip, r0
    1000:	00030000 	andeq	r0, r3, r0
    1004:	0c9f3070 	ldceq	0, cr3, [pc], {112}	; 0x70
    1008:	14000000 	strne	r0, [r0], #-0
    100c:	04000000 	streq	r0, [r0], #-0
    1010:	5001f300 	andpl	pc, r1, r0, lsl #6
    1014:	0000009f 	muleq	r0, pc, r0	; <UNPREDICTABLE>
	...
    1020:	00022400 	andeq	r2, r2, r0, lsl #8
    1024:	00026800 	andeq	r6, r2, r0, lsl #16
    1028:	50000100 	andpl	r0, r0, r0, lsl #2
    102c:	00000268 	andeq	r0, r0, r8, ror #4
    1030:	00000288 	andeq	r0, r0, r8, lsl #5
    1034:	01f30004 	mvnseq	r0, r4
    1038:	00009f50 	andeq	r9, r0, r0, asr pc
	...
    1044:	02240000 	eoreq	r0, r4, #0, 0
    1048:	02640000 	rsbeq	r0, r4, #0, 0
    104c:	00010000 	andeq	r0, r1, r0
    1050:	00026451 	andeq	r6, r2, r1, asr r4
    1054:	00028800 	andeq	r8, r2, r0, lsl #16
    1058:	f3000400 	vshl.u8	d0, d0, d0
    105c:	009f5101 	addseq	r5, pc, r1, lsl #2
	...
    1068:	00000101 	andeq	r0, r0, r1, lsl #2
    106c:	008b1000 	addeq	r1, fp, r0
    1070:	008b1000 	addeq	r1, fp, r0
    1074:	53000100 	movwpl	r0, #256	; 0x100
    1078:	00008b10 	andeq	r8, r0, r0, lsl fp
    107c:	00008b14 	andeq	r8, r0, r4, lsl fp
    1080:	00730007 	rsbseq	r0, r3, r7
    1084:	1aefff0b 	bne	ffc00cb8 <__bss_end__+0xffbf7708>
    1088:	008b149f 	umulleq	r1, fp, pc, r4	; <UNPREDICTABLE>
    108c:	008b1c00 	addeq	r1, fp, r0, lsl #24
    1090:	53000100 	movwpl	r0, #256	; 0x100
	...
    109c:	00010100 	andeq	r0, r1, r0, lsl #2
    10a0:	8b000000 	blhi	10a8 <__code_start__-0x6f58>
    10a4:	8b000000 	blhi	10ac <__code_start__-0x6f54>
    10a8:	00010000 	andeq	r0, r1, r0
    10ac:	008b0053 	addeq	r0, fp, r3, asr r0
    10b0:	008b0400 	addeq	r0, fp, r0, lsl #8
    10b4:	73000700 	movwvc	r0, #1792	; 0x700
    10b8:	10000a00 	andne	r0, r0, r0, lsl #20
    10bc:	8b049f21 	blhi	128d48 <__bss_end__+0x11f798>
    10c0:	8b0c0000 	blhi	3010c8 <__bss_end__+0x2f7b18>
    10c4:	00010000 	andeq	r0, r1, r0
    10c8:	00000053 	andeq	r0, r0, r3, asr r0
    10cc:	00000000 	andeq	r0, r0, r0
    10d0:	01010000 	mrseq	r0, (UNDEF: 1)
    10d4:	0c000000 	stceq	0, cr0, [r0], {-0}
    10d8:	14000000 	strne	r0, [r0], #-0
    10dc:	01000000 	mrseq	r0, (UNDEF: 0)
    10e0:	00145300 	andseq	r5, r4, r0, lsl #6
    10e4:	001c0000 	andseq	r0, ip, r0
    10e8:	00030000 	andeq	r0, r3, r0
    10ec:	1c9f0473 	cfldrsne	mvf0, [pc], {115}	; 0x73
    10f0:	23000000 	movwcs	r0, #0
    10f4:	01000000 	mrseq	r0, (UNDEF: 0)
    10f8:	00005300 	andeq	r5, r0, r0, lsl #6
    10fc:	00000000 	andeq	r0, r0, r0
    1100:	00010000 	andeq	r0, r1, r0
    1104:	00008bd4 	ldrdeq	r8, [r0], -r4
    1108:	00008bf0 	strdeq	r8, [r0], -r0
    110c:	1c0c0006 	stcne	0, cr0, [ip], {6}
    1110:	9f201000 	svcls	0x00201000
	...
    111c:	8bd40002 	blhi	ff50112c <__bss_end__+0xff4f7b7c>
    1120:	8bf00000 	blhi	ffc01128 <__bss_end__+0xffbf7b78>
    1124:	00060000 	andeq	r0, r6, r0
    1128:	1000240c 	andne	r2, r0, ip, lsl #8
    112c:	00009f20 	andeq	r9, r0, r0, lsr #30
    1130:	00000000 	andeq	r0, r0, r0
    1134:	00030000 	andeq	r0, r3, r0
    1138:	00008bd4 	ldrdeq	r8, [r0], -r4
    113c:	00008bf0 	strdeq	r8, [r0], -r0
    1140:	b4080005 	strlt	r0, [r8], #-5
    1144:	009f2447 	addseq	r2, pc, r7, asr #8
    1148:	00000000 	andeq	r0, r0, r0
    114c:	04000000 	streq	r0, [r0], #-0
    1150:	008bd400 	addeq	sp, fp, r0, lsl #8
    1154:	008bf000 	addeq	pc, fp, r0
    1158:	08000300 	stmdaeq	r0, {r8, r9}
    115c:	00009f20 	andeq	r9, r0, r0, lsr #30
    1160:	00000000 	andeq	r0, r0, r0
    1164:	00020000 	andeq	r0, r2, r0
    1168:	00000000 	andeq	r0, r0, r0
    116c:	00008ba0 	andeq	r8, r0, r0, lsr #23
    1170:	00008ba4 	andeq	r8, r0, r4, lsr #23
    1174:	9f300002 	svcls	0x00300002
    1178:	00008ba4 	andeq	r8, r0, r4, lsr #23
    117c:	00008ba8 	andeq	r8, r0, r8, lsr #23
    1180:	ac530001 	mrrcge	0, 0, r0, r3, cr1
    1184:	b400008b 	strlt	r0, [r0], #-139	; 0xffffff75
    1188:	0100008b 	smlabbeq	r0, fp, r0, r0
    118c:	00005300 	andeq	r5, r0, r0, lsl #6
    1190:	00000000 	andeq	r0, r0, r0
    1194:	00020000 	andeq	r0, r2, r0
    1198:	8b880000 	blhi	fe2011a0 <__bss_end__+0xfe1f7bf0>
    119c:	8b8c0000 	blhi	fe3011a4 <__bss_end__+0xfe2f7bf4>
    11a0:	00020000 	andeq	r0, r2, r0
    11a4:	8b8c9f30 	blhi	fe328e6c <__bss_end__+0xfe31f8bc>
    11a8:	8b900000 	blhi	fe4011b0 <__bss_end__+0xfe3f7c00>
    11ac:	00010000 	andeq	r0, r1, r0
    11b0:	00000050 	andeq	r0, r0, r0, asr r0
	...
    11bc:	00006c00 	andeq	r6, r0, r0, lsl #24
    11c0:	00007800 	andeq	r7, r0, r0, lsl #16
    11c4:	50000100 	andpl	r0, r0, r0, lsl #2
    11c8:	00000078 	andeq	r0, r0, r8, ror r0
    11cc:	00000084 	andeq	r0, r0, r4, lsl #1
    11d0:	01f30004 	mvnseq	r0, r4
    11d4:	00009f50 	andeq	r9, r0, r0, asr pc
	...
    11e0:	00540000 	subseq	r0, r4, r0
    11e4:	00600000 	rsbeq	r0, r0, r0
    11e8:	00010000 	andeq	r0, r1, r0
    11ec:	00006050 	andeq	r6, r0, r0, asr r0
    11f0:	00006c00 	andeq	r6, r0, r0, lsl #24
    11f4:	f3000400 	vshl.u8	d0, d0, d0
    11f8:	009f5001 	addseq	r5, pc, r1
	...
    1204:	30000000 	andcc	r0, r0, r0
    1208:	3b000000 	blcc	1210 <__code_start__-0x6df0>
    120c:	01000000 	mrseq	r0, (UNDEF: 0)
    1210:	003b5000 	eorseq	r5, fp, r0
    1214:	00540000 	subseq	r0, r4, r0
    1218:	00010000 	andeq	r0, r1, r0
    121c:	00000055 	andeq	r0, r0, r5, asr r0
    1220:	00000000 	andeq	r0, r0, r0
    1224:	40000000 	andmi	r0, r0, r0
    1228:	54000000 	strpl	r0, [r0], #-0
    122c:	01000000 	mrseq	r0, (UNDEF: 0)
    1230:	00005400 	andeq	r5, r0, r0, lsl #8
	...
    123c:	00000044 	andeq	r0, r0, r4, asr #32
    1240:	00000048 	andeq	r0, r0, r8, asr #32
    1244:	00500001 	subseq	r0, r0, r1
	...
    1250:	24000000 	strcs	r0, [r0], #-0
    1254:	27000000 	strcs	r0, [r0, -r0]
    1258:	01000000 	mrseq	r0, (UNDEF: 0)
    125c:	00275000 	eoreq	r5, r7, r0
    1260:	00300000 	eorseq	r0, r0, r0
    1264:	00010000 	andeq	r0, r1, r0
    1268:	00000054 	andeq	r0, r0, r4, asr r0
	...
    1274:	00015800 	andeq	r5, r1, r0, lsl #16
    1278:	00016300 	andeq	r6, r1, r0, lsl #6
    127c:	50000100 	andpl	r0, r0, r0, lsl #2
    1280:	00000163 	andeq	r0, r0, r3, ror #2
    1284:	00000188 	andeq	r0, r0, r8, lsl #3
    1288:	00540001 	subseq	r0, r4, r1
	...
    1294:	00014800 	andeq	r4, r1, r0, lsl #16
    1298:	00015800 	andeq	r5, r1, r0, lsl #16
    129c:	54000100 	strpl	r0, [r0], #-256	; 0xffffff00
	...
    12b0:	0000000f 	andeq	r0, r0, pc
    12b4:	0f500001 	svceq	0x00500001
    12b8:	20000000 	andcs	r0, r0, r0
    12bc:	01000000 	mrseq	r0, (UNDEF: 0)
    12c0:	00005400 	andeq	r5, r0, r0, lsl #8
	...
    12d0:	000f0000 	andeq	r0, pc, r0
    12d4:	00010000 	andeq	r0, r1, r0
    12d8:	00000f51 	andeq	r0, r0, r1, asr pc
    12dc:	00002000 	andeq	r2, r0, r0
    12e0:	55000100 	strpl	r0, [r0, #-256]	; 0xffffff00
	...
    12f0:	00000020 	andeq	r0, r0, r0, lsr #32
    12f4:	0000002f 	andeq	r0, r0, pc, lsr #32
    12f8:	2f500001 	svccs	0x00500001
    12fc:	40000000 	andmi	r0, r0, r0
    1300:	01000000 	mrseq	r0, (UNDEF: 0)
    1304:	00005400 	andeq	r5, r0, r0, lsl #8
	...
    1310:	00200000 	eoreq	r0, r0, r0
    1314:	002f0000 	eoreq	r0, pc, r0
    1318:	00010000 	andeq	r0, r1, r0
    131c:	00002f51 	andeq	r2, r0, r1, asr pc
    1320:	00004000 	andeq	r4, r0, r0
    1324:	55000100 	strpl	r0, [r0, #-256]	; 0xffffff00
	...
    1338:	0000000b 	andeq	r0, r0, fp
    133c:	0b500001 	bleq	1401348 <__bss_end__+0x13f7d98>
    1340:	14000000 	strne	r0, [r0], #-0
    1344:	01000000 	mrseq	r0, (UNDEF: 0)
    1348:	00005400 	andeq	r5, r0, r0, lsl #8
	...
    1358:	001c0000 	andseq	r0, ip, r0
    135c:	00010000 	andeq	r0, r1, r0
    1360:	00001c51 	andeq	r1, r0, r1, asr ip
    1364:	00003400 	andeq	r3, r0, r0, lsl #8
    1368:	f3000400 	vshl.u8	d0, d0, d0
    136c:	009f5101 	addseq	r5, pc, r1, lsl #2
    1370:	00000000 	andeq	r0, r0, r0
    1374:	02000000 	andeq	r0, r0, #0, 0
    1378:	00000000 	andeq	r0, r0, r0
    137c:	00000101 	andeq	r0, r0, r1, lsl #2
    1380:	00000000 	andeq	r0, r0, r0
    1384:	00000400 	andeq	r0, r0, r0, lsl #8
    1388:	50000100 	andpl	r0, r0, r0, lsl #2
    138c:	00000004 	andeq	r0, r0, r4
    1390:	0000001c 	andeq	r0, r0, ip, lsl r0
    1394:	1c520001 	mrrcne	0, 0, r0, r2, cr1
    1398:	24000000 	strcs	r0, [r0], #-0
    139c:	01000000 	mrseq	r0, (UNDEF: 0)
    13a0:	00245300 	eoreq	r5, r4, r0, lsl #6
    13a4:	00280000 	eoreq	r0, r8, r0
    13a8:	00030000 	andeq	r0, r3, r0
    13ac:	289f0173 	ldmcs	pc, {r0, r1, r4, r5, r6, r8}	; <UNPREDICTABLE>
    13b0:	34000000 	strcc	r0, [r0], #-0
    13b4:	01000000 	mrseq	r0, (UNDEF: 0)
    13b8:	00005300 	andeq	r5, r0, r0, lsl #6
    13bc:	00000000 	andeq	r0, r0, r0
    13c0:	00030000 	andeq	r0, r3, r0
    13c4:	00000000 	andeq	r0, r0, r0
    13c8:	00240000 	eoreq	r0, r4, r0
    13cc:	00010000 	andeq	r0, r1, r0
    13d0:	00002451 	andeq	r2, r0, r1, asr r4
    13d4:	00003400 	andeq	r3, r0, r0, lsl #8
    13d8:	71000300 	mrsvc	r0, LR_irq
    13dc:	00009f7f 	andeq	r9, r0, pc, ror pc
	...
    13e8:	00100000 	andseq	r0, r0, r0
    13ec:	001c0000 	andseq	r0, ip, r0
    13f0:	00010000 	andeq	r0, r1, r0
    13f4:	0000245c 	andeq	r2, r0, ip, asr r4
    13f8:	00003400 	andeq	r3, r0, r0, lsl #8
    13fc:	52000100 	andpl	r0, r0, #0
	...
    1410:	00000018 	andeq	r0, r0, r8, lsl r0
    1414:	18500001 	ldmdane	r0, {r0}^
    1418:	24000000 	strcs	r0, [r0], #-0
    141c:	01000000 	mrseq	r0, (UNDEF: 0)
    1420:	00005000 	andeq	r5, r0, r0
	...
    1430:	001c0000 	andseq	r0, ip, r0
    1434:	00010000 	andeq	r0, r1, r0
    1438:	00001c51 	andeq	r1, r0, r1, asr ip
    143c:	00002c00 	andeq	r2, r0, r0, lsl #24
    1440:	51000100 	mrspl	r0, (UNDEF: 16)
	...
    1454:	00040000 	andeq	r0, r4, r0
    1458:	00010000 	andeq	r0, r1, r0
    145c:	00000451 	andeq	r0, r0, r1, asr r4
    1460:	00000c00 	andeq	r0, r0, r0, lsl #24
    1464:	51000100 	mrspl	r0, (UNDEF: 16)
    1468:	0000000c 	andeq	r0, r0, ip
    146c:	00000020 	andeq	r0, r0, r0, lsr #32
    1470:	7f710003 	svcvc	0x00710003
    1474:	0000009f 	muleq	r0, pc, r0	; <UNPREDICTABLE>
    1478:	00000000 	andeq	r0, r0, r0
    147c:	00000200 	andeq	r0, r0, r0, lsl #4
    1480:	00000000 	andeq	r0, r0, r0
    1484:	04000000 	streq	r0, [r0], #-0
    1488:	01000000 	mrseq	r0, (UNDEF: 0)
    148c:	00045000 	andeq	r5, r4, r0
    1490:	00140000 	andseq	r0, r4, r0
    1494:	00010000 	andeq	r0, r1, r0
    1498:	0000145c 	andeq	r1, r0, ip, asr r4
    149c:	00002000 	andeq	r2, r0, r0
    14a0:	7c000300 	stcvc	3, cr0, [r0], {-0}
    14a4:	00009f7f 	andeq	r9, r0, pc, ror pc
    14a8:	00000000 	andeq	r0, r0, r0
    14ac:	03000000 	movweq	r0, #0
    14b0:	8f380003 	svchi	0x00380003
    14b4:	8f380000 	svchi	0x00380000
    14b8:	00010000 	andeq	r0, r1, r0
    14bc:	008f3850 	addeq	r3, pc, r0, asr r8	; <UNPREDICTABLE>
    14c0:	008f6400 	addeq	r6, pc, r0, lsl #8
    14c4:	f3000400 	vshl.u8	d0, d0, d0
    14c8:	009f5001 	addseq	r5, pc, r1
	...
    14d4:	38000303 	stmdacc	r0, {r0, r1, r8, r9}
    14d8:	3800008f 	stmdacc	r0, {r0, r1, r2, r3, r7}
    14dc:	0100008f 	smlabbeq	r0, pc, r0, r0	; <UNPREDICTABLE>
    14e0:	8f385100 	svchi	0x00385100
    14e4:	8f640000 	svchi	0x00640000
    14e8:	00040000 	andeq	r0, r4, r0
    14ec:	9f5101f3 	svcls	0x005101f3
	...
    14f8:	00030300 	andeq	r0, r3, r0, lsl #6
    14fc:	8f380000 	svchi	0x00380000
    1500:	8f380000 	svchi	0x00380000
    1504:	00010000 	andeq	r0, r1, r0
    1508:	008f3852 	addeq	r3, pc, r2, asr r8	; <UNPREDICTABLE>
    150c:	008f4000 	addeq	r4, pc, r0
    1510:	52000100 	andpl	r0, r0, #0
    1514:	00008f40 	andeq	r8, r0, r0, asr #30
    1518:	00008f64 	andeq	r8, r0, r4, ror #30
    151c:	01720003 	cmneq	r2, r3
    1520:	0000009f 	muleq	r0, pc, r0	; <UNPREDICTABLE>
    1524:	00000000 	andeq	r0, r0, r0
    1528:	01010200 	mrseq	r0, R9_usr
    152c:	00000000 	andeq	r0, r0, r0
    1530:	008f3800 	addeq	r3, pc, r0, lsl #16
    1534:	008f4400 	addeq	r4, pc, r0, lsl #8
    1538:	50000100 	andpl	r0, r0, r0, lsl #2
    153c:	00008f44 	andeq	r8, r0, r4, asr #30
    1540:	00008f48 	andeq	r8, r0, r8, asr #30
    1544:	01700003 	cmneq	r0, r3
    1548:	008f489f 	umulleq	r4, pc, pc, r8	; <UNPREDICTABLE>
    154c:	008f5800 	addeq	r5, pc, r0, lsl #16
    1550:	50000100 	andpl	r0, r0, r0, lsl #2
    1554:	00008f5c 	andeq	r8, r0, ip, asr pc
    1558:	00008f60 	andeq	r8, r0, r0, ror #30
    155c:	00500001 	subseq	r0, r0, r1
    1560:	00000000 	andeq	r0, r0, r0
    1564:	02000000 	andeq	r0, r0, #0, 0
    1568:	00000000 	andeq	r0, r0, r0
    156c:	008f3800 	addeq	r3, pc, r0, lsl #16
    1570:	008f4800 	addeq	r4, pc, r0, lsl #16
    1574:	51000100 	mrspl	r0, (UNDEF: 16)
    1578:	00008f48 	andeq	r8, r0, r8, asr #30
    157c:	00008f4c 	andeq	r8, r0, ip, asr #30
    1580:	01710003 	cmneq	r1, r3
    1584:	008f4c9f 	umulleq	r4, pc, pc, ip	; <UNPREDICTABLE>
    1588:	008f6400 	addeq	r6, pc, r0, lsl #8
    158c:	51000100 	mrspl	r0, (UNDEF: 16)
	...

Disassembly of section .debug_aranges:

00000000 <.debug_aranges>:
   0:	0000001c 	andeq	r0, r0, ip, lsl r0
   4:	00000002 	andeq	r0, r0, r2
   8:	00040000 	andeq	r0, r4, r0
   c:	00000000 	andeq	r0, r0, r0
  10:	00008040 	andeq	r8, r0, r0, asr #32
  14:	000001e4 	andeq	r0, r0, r4, ror #3
	...
  20:	0000001c 	andeq	r0, r0, ip, lsl r0
  24:	062b0002 	strteq	r0, [fp], -r2
  28:	00040000 	andeq	r0, r4, r0
  2c:	00000000 	andeq	r0, r0, r0
  30:	00008224 	andeq	r8, r0, r4, lsr #4
  34:	0000010c 	andeq	r0, r0, ip, lsl #2
	...
  40:	0000001c 	andeq	r0, r0, ip, lsl r0
  44:	0a210002 	beq	840054 <__bss_end__+0x836aa4>
  48:	00040000 	andeq	r0, r4, r0
  4c:	00000000 	andeq	r0, r0, r0
  50:	00008330 	andeq	r8, r0, r0, lsr r3
  54:	00000058 	andeq	r0, r0, r8, asr r0
	...
  60:	0000001c 	andeq	r0, r0, ip, lsl r0
  64:	0bc20002 	bleq	ff080074 <__bss_end__+0xff076ac4>
  68:	00040000 	andeq	r0, r4, r0
  6c:	00000000 	andeq	r0, r0, r0
  70:	00008388 	andeq	r8, r0, r8, lsl #7
  74:	00000034 	andeq	r0, r0, r4, lsr r0
	...
  80:	0000001c 	andeq	r0, r0, ip, lsl r0
  84:	0cb90002 	ldceq	0, cr0, [r9], #8
  88:	00040000 	andeq	r0, r4, r0
  8c:	00000000 	andeq	r0, r0, r0
  90:	000083bc 			; <UNDEFINED> instruction: 0x000083bc
  94:	00000740 	andeq	r0, r0, r0, asr #14
	...
  a0:	0000001c 	andeq	r0, r0, ip, lsl r0
  a4:	17940002 	ldrne	r0, [r4, r2]
  a8:	00040000 	andeq	r0, r4, r0
  ac:	00000000 	andeq	r0, r0, r0
  b0:	00008afc 	strdeq	r8, [r0], -ip
  b4:	00000020 	andeq	r0, r0, r0, lsr #32
	...
  c0:	0000001c 	andeq	r0, r0, ip, lsl r0
  c4:	18a20002 	stmiane	r2!, {r1}
  c8:	00040000 	andeq	r0, r4, r0
  cc:	00000000 	andeq	r0, r0, r0
  d0:	00008b1c 	andeq	r8, r0, ip, lsl fp
  d4:	0000002c 	andeq	r0, r0, ip, lsr #32
	...
  e0:	0000001c 	andeq	r0, r0, ip, lsl r0
  e4:	19d50002 	ldmibne	r5, {r1}^
  e8:	00040000 	andeq	r0, r4, r0
  ec:	00000000 	andeq	r0, r0, r0
  f0:	00008b48 	andeq	r8, r0, r8, asr #22
  f4:	0000003c 	andeq	r0, r0, ip, lsr r0
	...
 100:	0000001c 	andeq	r0, r0, ip, lsl r0
 104:	1b620002 	blne	1880114 <__bss_end__+0x1876b64>
 108:	00040000 	andeq	r0, r4, r0
 10c:	00000000 	andeq	r0, r0, r0
 110:	00008b84 	andeq	r8, r0, r4, lsl #23
 114:	00000004 	andeq	r0, r0, r4
	...
 120:	0000001c 	andeq	r0, r0, ip, lsl r0
 124:	1c340002 	ldcne	0, cr0, [r4], #-8
 128:	00040000 	andeq	r0, r4, r0
 12c:	00000000 	andeq	r0, r0, r0
 130:	00008b88 	andeq	r8, r0, r8, lsl #23
 134:	00000080 	andeq	r0, r0, r0, lsl #1
	...
 140:	0000001c 	andeq	r0, r0, ip, lsl r0
 144:	1e6e0002 	cdpne	0, 6, cr0, cr14, cr2, {0}
 148:	00040000 	andeq	r0, r4, r0
 14c:	00000000 	andeq	r0, r0, r0
 150:	00008c08 	andeq	r8, r0, r8, lsl #24
 154:	00000084 	andeq	r0, r0, r4, lsl #1
	...
 160:	0000001c 	andeq	r0, r0, ip, lsl r0
 164:	20bf0002 	adcscs	r0, pc, r2
 168:	00040000 	andeq	r0, r4, r0
 16c:	00000000 	andeq	r0, r0, r0
 170:	00008c8c 	andeq	r8, r0, ip, lsl #25
 174:	000001f0 	strdeq	r0, [r0], -r0	; <UNPREDICTABLE>
	...
 180:	0000001c 	andeq	r0, r0, ip, lsl r0
 184:	26900002 	ldrcs	r0, [r0], r2
 188:	00040000 	andeq	r0, r4, r0
 18c:	00000000 	andeq	r0, r0, r0
 190:	00008e7c 	andeq	r8, r0, ip, ror lr
 194:	0000003c 	andeq	r0, r0, ip, lsr r0
	...
 1a0:	0000001c 	andeq	r0, r0, ip, lsl r0
 1a4:	27dd0002 	ldrbcs	r0, [sp, r2]
 1a8:	00040000 	andeq	r0, r4, r0
 1ac:	00000000 	andeq	r0, r0, r0
 1b0:	00008eb8 			; <UNDEFINED> instruction: 0x00008eb8
 1b4:	00000034 	andeq	r0, r0, r4, lsr r0
	...
 1c0:	0000001c 	andeq	r0, r0, ip, lsl r0
 1c4:	29180002 	ldmdbcs	r8, {r1}
 1c8:	00040000 	andeq	r0, r4, r0
 1cc:	00000000 	andeq	r0, r0, r0
 1d0:	00008eec 	andeq	r8, r0, ip, ror #29
 1d4:	0000002c 	andeq	r0, r0, ip, lsr #32
	...
 1e0:	0000001c 	andeq	r0, r0, ip, lsl r0
 1e4:	2a130002 	bcs	4c01f4 <__bss_end__+0x4b6c44>
 1e8:	00040000 	andeq	r0, r4, r0
 1ec:	00000000 	andeq	r0, r0, r0
 1f0:	00008f18 	andeq	r8, r0, r8, lsl pc
 1f4:	00000020 	andeq	r0, r0, r0, lsr #32
	...
 200:	0000001c 	andeq	r0, r0, ip, lsl r0
 204:	2b260002 	blcs	980214 <__bss_end__+0x976c64>
 208:	00040000 	andeq	r0, r4, r0
 20c:	00000000 	andeq	r0, r0, r0
 210:	00008f38 	andeq	r8, r0, r8, lsr pc
 214:	0000002c 	andeq	r0, r0, ip, lsr #32
	...
 220:	0000001c 	andeq	r0, r0, ip, lsl r0
 224:	2c780002 	ldclcs	0, cr0, [r8], #-8
 228:	00040000 	andeq	r0, r4, r0
 22c:	00000000 	andeq	r0, r0, r0
 230:	00008f64 	andeq	r8, r0, r4, ror #30
 234:	00000004 	andeq	r0, r0, r4
	...

Disassembly of section .debug_ranges:

00000000 <.debug_ranges>:
   0:	00000000 	andeq	r0, r0, r0
   4:	00000004 	andeq	r0, r0, r4
   8:	0000000c 	andeq	r0, r0, ip
   c:	00000010 	andeq	r0, r0, r0, lsl r0
  10:	00000014 	andeq	r0, r0, r4, lsl r0
  14:	0000001c 	andeq	r0, r0, ip, lsl r0
	...
  20:	00000020 	andeq	r0, r0, r0, lsr #32
  24:	00000024 	andeq	r0, r0, r4, lsr #32
  28:	00000028 	andeq	r0, r0, r8, lsr #32
  2c:	00000034 	andeq	r0, r0, r4, lsr r0
	...
  38:	00000054 	andeq	r0, r0, r4, asr r0
  3c:	00000058 	andeq	r0, r0, r8, asr r0
  40:	0000005c 	andeq	r0, r0, ip, asr r0
  44:	00000060 	andeq	r0, r0, r0, rrx
  48:	00000064 	andeq	r0, r0, r4, rrx
  4c:	0000006c 	andeq	r0, r0, ip, rrx
	...
  58:	00000058 	andeq	r0, r0, r8, asr r0
  5c:	0000005c 	andeq	r0, r0, ip, asr r0
  60:	00000074 	andeq	r0, r0, r4, ror r0
  64:	0000008c 	andeq	r0, r0, ip, lsl #1
	...
  70:	00000058 	andeq	r0, r0, r8, asr r0
  74:	0000005c 	andeq	r0, r0, ip, asr r0
  78:	00000074 	andeq	r0, r0, r4, ror r0
  7c:	00000078 	andeq	r0, r0, r8, ror r0
	...
  88:	0000008c 	andeq	r0, r0, ip, lsl #1
  8c:	0000008c 	andeq	r0, r0, ip, lsl #1
  90:	00000098 	muleq	r0, r8, r0
  94:	0000009c 	muleq	r0, ip, r0
	...
  a0:	000000f4 	strdeq	r0, [r0], -r4
  a4:	000000fc 	strdeq	r0, [r0], -ip
  a8:	000000fc 	strdeq	r0, [r0], -ip
  ac:	00000100 	andeq	r0, r0, r0, lsl #2
	...
  b8:	000000fc 	strdeq	r0, [r0], -ip
  bc:	000000fc 	strdeq	r0, [r0], -ip
  c0:	00000100 	andeq	r0, r0, r0, lsl #2
  c4:	00000108 	andeq	r0, r0, r8, lsl #2
  c8:	00000108 	andeq	r0, r0, r8, lsl #2
  cc:	000001b8 			; <UNDEFINED> instruction: 0x000001b8
  d0:	000001bc 			; <UNDEFINED> instruction: 0x000001bc
  d4:	000001e4 	andeq	r0, r0, r4, ror #3
	...
  e0:	00000100 	andeq	r0, r0, r0, lsl #2
  e4:	00000108 	andeq	r0, r0, r8, lsl #2
  e8:	00000108 	andeq	r0, r0, r8, lsl #2
  ec:	000001b0 			; <UNDEFINED> instruction: 0x000001b0
  f0:	000001bc 			; <UNDEFINED> instruction: 0x000001bc
  f4:	000001c4 	andeq	r0, r0, r4, asr #3
	...
 100:	00000104 	andeq	r0, r0, r4, lsl #2
 104:	00000108 	andeq	r0, r0, r8, lsl #2
 108:	0000011c 	andeq	r0, r0, ip, lsl r1
 10c:	000001b0 			; <UNDEFINED> instruction: 0x000001b0
 110:	000001bc 			; <UNDEFINED> instruction: 0x000001bc
 114:	000001c4 	andeq	r0, r0, r4, asr #3
	...
 120:	00000104 	andeq	r0, r0, r4, lsl #2
 124:	00000108 	andeq	r0, r0, r8, lsl #2
 128:	00000130 	andeq	r0, r0, r0, lsr r1
 12c:	00000138 	andeq	r0, r0, r8, lsr r1
 130:	0000013c 	andeq	r0, r0, ip, lsr r1
 134:	00000140 	andeq	r0, r0, r0, asr #2
 138:	00000148 	andeq	r0, r0, r8, asr #2
 13c:	000001b0 			; <UNDEFINED> instruction: 0x000001b0
	...
 148:	00000104 	andeq	r0, r0, r4, lsl #2
 14c:	00000108 	andeq	r0, r0, r8, lsl #2
 150:	0000014c 	andeq	r0, r0, ip, asr #2
 154:	0000019c 	muleq	r0, ip, r1
 158:	000001a8 	andeq	r0, r0, r8, lsr #3
 15c:	000001ac 	andeq	r0, r0, ip, lsr #3
	...
 168:	00008afc 	strdeq	r8, [r0], -ip
 16c:	00008b1c 	andeq	r8, r0, ip, lsl fp
	...
 178:	00008b88 	andeq	r8, r0, r8, lsl #23
 17c:	00008c08 	andeq	r8, r0, r8, lsl #24
	...
 188:	00008f38 	andeq	r8, r0, r8, lsr pc
 18c:	00008f64 	andeq	r8, r0, r4, ror #30
	...

Disassembly of section .debug_line:

00000000 <.debug_line>:
       0:	0000037a 	andeq	r0, r0, sl, ror r3
       4:	00df0003 	sbcseq	r0, pc, r3
       8:	01020000 	mrseq	r0, (UNDEF: 2)
       c:	000d0efb 	strdeq	r0, [sp], -fp
      10:	01010101 	tsteq	r1, r1, lsl #2
      14:	01000000 	mrseq	r0, (UNDEF: 0)
      18:	2f010000 	svccs	0x00010000
      1c:	72657355 	rsbvc	r7, r5, #1409286145	; 0x54000001
      20:	696d2f73 	stmdbvs	sp!, {r0, r1, r4, r5, r6, r8, r9, sl, fp, sp}^
      24:	2f73656c 	svccs	0x0073656c
      28:	72756f53 	rsbsvc	r6, r5, #332	; 0x14c
      2c:	632f6563 			; <UNDEFINED> instruction: 0x632f6563
      30:	30343273 	eorscc	r3, r4, r3, ror r2
      34:	6c2f786c 	stcvs	8, cr7, [pc], #-432	; fffffe8c <__bss_end__+0xffff68dc>
      38:	69706269 	ldmdbvs	r0!, {r0, r3, r5, r6, r9, sp, lr}^
      3c:	636e692f 	cmnvs	lr, #770048	; 0xbc000
      40:	6564756c 	strbvs	r7, [r4, #-1388]!	; 0xfffffa94
      44:	706f2f00 	rsbvc	r2, pc, r0, lsl #30
      48:	6f682f74 	svcvs	0x00682f74
      4c:	7262656d 	rsbvc	r6, r2, #457179136	; 0x1b400000
      50:	432f7765 			; <UNDEFINED> instruction: 0x432f7765
      54:	616c6c65 	cmnvs	ip, r5, ror #24
      58:	72612f72 	rsbvc	r2, r1, #456	; 0x1c8
      5c:	6f6e2d6d 	svcvs	0x006e2d6d
      60:	652d656e 	strvs	r6, [sp, #-1390]!	; 0xfffffa92
      64:	2d696261 	sfmcs	f6, 2, [r9, #-388]!	; 0xfffffe7c
      68:	74736574 	ldrbtvc	r6, [r3], #-1396	; 0xfffffa8c
      6c:	322d392f 	eorcc	r3, sp, #770048	; 0xbc000
      70:	71393130 	teqvc	r9, r0, lsr r1
      74:	73632d34 	cmnvc	r3, #52, 26	; 0xd00
      78:	65373031 	ldrvs	r3, [r7, #-49]!	; 0xffffffcf
      7c:	62696c2f 	rsbvs	r6, r9, #12032	; 0x2f00
      80:	6363672f 	cmnvs	r3, #12320768	; 0xbc0000
      84:	6d72612f 	ldfvse	f6, [r2, #-188]!	; 0xffffff44
      88:	6e6f6e2d 	cdpvs	14, 6, cr6, cr15, cr13, {1}
      8c:	61652d65 	cmnvs	r5, r5, ror #26
      90:	392f6962 	stmdbcc	pc!, {r1, r5, r6, r8, fp, sp, lr}	; <UNPREDICTABLE>
      94:	312e322e 			; <UNDEFINED> instruction: 0x312e322e
      98:	636e692f 	cmnvs	lr, #770048	; 0xbc000
      9c:	6564756c 	strbvs	r7, [r4, #-1388]!	; 0xfffffa94
      a0:	63730000 	cmnvs	r3, #0, 0
      a4:	2e65706f 	cdpcs	0, 6, cr7, cr5, cr15, {3}
      a8:	00000063 	andeq	r0, r0, r3, rrx
      ac:	6d617300 	stclvs	3, cr7, [r1, #-0]
      b0:	73656c70 	cmnvc	r5, #112, 24	; 0x7000
      b4:	0000682e 	andeq	r6, r0, lr, lsr #16
      b8:	79630000 	stmdbvc	r3!, {}^	; <UNPREDICTABLE>
      bc:	2e656c63 	cdpcs	12, 6, cr6, cr5, cr3, {3}
      c0:	00000068 	andeq	r0, r0, r8, rrx
      c4:	69707200 	ldmdbvs	r0!, {r9, ip, sp, lr}^
      c8:	0100682e 	tsteq	r0, lr, lsr #16
      cc:	74730000 	ldrbtvc	r0, [r3], #-0
      d0:	746e6964 	strbtvc	r6, [lr], #-2404	; 0xfffff69c
      d4:	6363672d 	cmnvs	r3, #11796480	; 0xb40000
      d8:	0200682e 	andeq	r6, r0, #3014656	; 0x2e0000
      dc:	70670000 	rsbvc	r0, r7, r0
      e0:	682e6f69 	stmdavs	lr!, {r0, r3, r5, r6, r8, r9, sl, fp, sp, lr}
      e4:	00000100 	andeq	r0, r0, r0, lsl #2
      e8:	00510500 	subseq	r0, r1, r0, lsl #10
      ec:	80400205 	subhi	r0, r0, r5, lsl #4
      f0:	20030000 	andcs	r0, r3, r0
      f4:	13050501 	movwne	r0, #21761	; 0x5501
      f8:	7a031805 	bvc	c6114 <__bss_end__+0xbcb64>
      fc:	13050501 	movwne	r0, #21761	; 0x5501
     100:	01060d05 	tsteq	r6, r5, lsl #26
     104:	1651052e 	ldrbne	r0, [r1], -lr, lsr #10
     108:	2a0d052e 	bcs	3415c8 <__bss_end__+0x338018>
     10c:	1651052e 	ldrbne	r0, [r1], -lr, lsr #10
     110:	052a1205 	streq	r1, [sl, #-517]!	; 0xfffffdfb
     114:	052e2e1f 	streq	r2, [lr, #-3615]!	; 0xfffff1e1
     118:	13180605 	tstne	r8, #5242880	; 0x500000
     11c:	01011e05 	tsteq	r1, r5, lsl #28
     120:	060d052e 	streq	r0, [sp], -lr, lsr #10
     124:	05017903 	streq	r7, [r1, #-2307]	; 0xfffff6fd
     128:	0505350e 	streq	r3, [r5, #-1294]	; 0xfffffaf2
     12c:	2a053106 	bcs	14c54c <__bss_end__+0x142f9c>
     130:	01040200 	mrseq	r0, R12_usr
     134:	000a0501 	andeq	r0, sl, r1, lsl #10
     138:	01010402 	tsteq	r1, r2, lsl #8
     13c:	02001805 	andeq	r1, r0, #327680	; 0x50000
     140:	75030104 	strvc	r0, [r3, #-260]	; 0xfffffefc
     144:	00050501 	andeq	r0, r5, r1, lsl #10
     148:	13010402 	movwne	r0, #5122	; 0x1402
     14c:	02000d05 	andeq	r0, r0, #320	; 0x140
     150:	01060104 	tsteq	r6, r4, lsl #2
     154:	02001205 	andeq	r1, r0, #1342177280	; 0x50000000
     158:	052e0104 	streq	r0, [lr, #-260]!	; 0xfffffefc
     15c:	0402001f 	streq	r0, [r2], #-31	; 0xffffffe1
     160:	02002e01 	andeq	r2, r0, #1, 28
     164:	052e0104 	streq	r0, [lr, #-260]!	; 0xfffffefc
     168:	0402000a 	streq	r0, [r2], #-10
     16c:	010a0301 	tsteq	sl, r1, lsl #6
     170:	4b060505 	blmi	18158c <__bss_end__+0x177fdc>
     174:	01160516 	tsteq	r6, r6, lsl r5
     178:	01062e01 	tsteq	r6, r1, lsl #28
     17c:	15060505 	strne	r0, [r6, #-1285]	; 0xfffffafb
     180:	0a051313 	beq	144dd4 <__bss_end__+0x13b824>
     184:	060e0501 	streq	r0, [lr], -r1, lsl #10
     188:	2b280548 	blcs	a016b0 <__bss_end__+0x9f8100>
     18c:	77030e05 	strvc	r0, [r3, -r5, lsl #28]
     190:	030d052e 	movweq	r0, #54574	; 0xd52e
     194:	052e2e7a 	streq	r2, [lr, #-3706]!	; 0xfffff186
     198:	15030609 	strne	r0, [r3, #-1545]	; 0xfffff9f7
     19c:	160d0501 	strne	r0, [sp], -r1, lsl #10
     1a0:	01011c05 	tsteq	r1, r5, lsl #24
     1a4:	03060d05 	movweq	r0, #27909	; 0x6d05
     1a8:	052e2e67 	streq	r2, [lr, #-3687]!	; 0xfffff199
     1ac:	0115030a 	tsteq	r5, sl, lsl #6
     1b0:	30060905 	andcc	r0, r6, r5, lsl #18
     1b4:	68031805 	stmdavs	r3, {r0, r2, fp, ip}
     1b8:	13050501 	movwne	r0, #21761	; 0x5501
     1bc:	01061205 	tsteq	r6, r5, lsl #4
     1c0:	2e2e1f05 	cdpcs	15, 2, cr1, cr14, cr5, {0}
     1c4:	03060905 	movweq	r0, #26885	; 0x6905
     1c8:	0b050118 	bleq	140630 <__bss_end__+0x137080>
     1cc:	1c050106 	stfnes	f0, [r5], {6}
     1d0:	062e064b 	strteq	r0, [lr], -fp, asr #12
     1d4:	060d0501 	streq	r0, [sp], -r1, lsl #10
     1d8:	060e0513 			; <UNDEFINED> instruction: 0x060e0513
     1dc:	2e200501 	cfsh64cs	mvdx0, mvdx0, #1
     1e0:	052e1a05 	streq	r1, [lr, #-2565]!	; 0xfffff5fb
     1e4:	052f060d 	streq	r0, [pc, #-1549]!	; fffffbdf <__bss_end__+0xffff662f>
     1e8:	05010614 	streq	r0, [r1, #-1556]	; 0xfffff9ec
     1ec:	1330060d 	teqne	r0, #13631488	; 0xd00000
     1f0:	060e0513 			; <UNDEFINED> instruction: 0x060e0513
     1f4:	09052e01 	stmdbeq	r5, {r0, r9, sl, fp, sp}
     1f8:	21051606 	tstcs	r5, r6, lsl #12
     1fc:	0f050101 	svceq	0x00050101
     200:	0b050106 	bleq	140620 <__bss_end__+0x137070>
     204:	0021052e 	eoreq	r0, r1, lr, lsr #10
     208:	4a010402 	bmi	41218 <__bss_end__+0x37c68>
     20c:	01040200 	mrseq	r0, R12_usr
     210:	1e052e06 	cdpne	14, 0, cr2, cr5, cr6, {0}
     214:	01040200 	mrseq	r0, R12_usr
     218:	0a050106 	beq	140638 <__bss_end__+0x137088>
     21c:	4a710306 	bmi	1c40e3c <__bss_end__+0x1c3788c>
     220:	03060105 	movweq	r0, #24837	; 0x6105
     224:	0d054a16 	vstreq	s8, [r5, #-88]	; 0xffffffa8
     228:	4a7a0306 	bmi	1e80e48 <__bss_end__+0x1e77898>
     22c:	062e2e06 	strteq	r2, [lr], -r6, lsl #28
     230:	06010530 			; <UNDEFINED> instruction: 0x06010530
     234:	030e0516 	movweq	r0, #58646	; 0xe516
     238:	14054a68 	strne	r4, [r5], #-2664	; 0xfffff598
     23c:	ba1a0306 	blt	680e5c <__bss_end__+0x6778ac>
     240:	05130505 	ldreq	r0, [r3, #-1285]	; 0xfffffafb
     244:	05110614 	ldreq	r0, [r1, #-1556]	; 0xfffff9ec
     248:	31064b05 	tstcc	r6, r5, lsl #22
     24c:	01014d13 	tsteq	r1, r3, lsl sp
     250:	0516154a 	ldreq	r1, [r6, #-1354]	; 0xfffffab6
     254:	14050109 	strne	r0, [r5], #-265	; 0xfffffef7
     258:	06050501 	streq	r0, [r5], -r1, lsl #10
     25c:	05017903 	streq	r7, [r1, #-2307]	; 0xfffff6fd
     260:	02043616 	andeq	r3, r4, #23068672	; 0x1600000
     264:	49030905 	stmdbmi	r3, {r0, r2, r8, fp}
     268:	01042e2e 	tsteq	r4, lr, lsr #28
     26c:	03040200 	movweq	r0, #16896	; 0x4200
     270:	01370306 	teqeq	r7, r6, lsl #6
     274:	03040200 	movweq	r0, #16896	; 0x4200
     278:	03040106 	movweq	r0, #16646	; 0x4106
     27c:	02000505 	andeq	r0, r0, #20971520	; 0x1400000
     280:	03060304 	movweq	r0, #25348	; 0x6304
     284:	00017fb3 			; <UNDEFINED> instruction: 0x00017fb3
     288:	01030402 	tsteq	r3, r2, lsl #8
     28c:	03040200 	movweq	r0, #16896	; 0x4200
     290:	04020001 	streq	r0, [r2], #-1
     294:	02000103 	andeq	r0, r0, #-1073741824	; 0xc0000000
     298:	00130304 	andseq	r0, r3, r4, lsl #6
     29c:	0e030402 	cdpeq	4, 0, cr0, cr3, cr2, {0}
     2a0:	03040200 	movweq	r0, #16896	; 0x4200
     2a4:	0501040f 	streq	r0, [r1, #-1039]	; 0xfffffbf1
     2a8:	04020016 	streq	r0, [r2], #-22	; 0xffffffea
     2ac:	d3030603 	movwle	r0, #13827	; 0x3603
     2b0:	09050100 	stmdbeq	r5, {r8}
     2b4:	03040200 	movweq	r0, #16896	; 0x4200
     2b8:	02049f06 	andeq	r9, r4, #6, 30
     2bc:	02000105 	andeq	r0, r0, #1073741825	; 0x40000001
     2c0:	b3030304 	movwlt	r0, #13060	; 0x3304
     2c4:	0505017f 	streq	r0, [r5, #-383]	; 0xfffffe81
     2c8:	03040200 	movweq	r0, #16896	; 0x4200
     2cc:	04020013 	streq	r0, [r2], #-19	; 0xffffffed
     2d0:	02001403 	andeq	r1, r0, #50331648	; 0x3000000
     2d4:	05130304 	ldreq	r0, [r3, #-772]	; 0xfffffcfc
     2d8:	04020008 	streq	r0, [r2], #-8
     2dc:	05010603 	streq	r0, [r1, #-1539]	; 0xfffff9fd
     2e0:	064f0605 	strbeq	r0, [pc], -r5, lsl #12
     2e4:	052f064a 	streq	r0, [pc, #-1610]!	; fffffca2 <__bss_end__+0xffff66f2>
     2e8:	14050109 	strne	r0, [r5], #-265	; 0xfffffef7
     2ec:	06050501 	streq	r0, [r5], -r1, lsl #10
     2f0:	17052e01 	strne	r2, [r5, -r1, lsl #28]
     2f4:	052e7703 	streq	r7, [lr, #-1795]!	; 0xfffff8fd
     2f8:	2e09030d 	cdpcs	3, 0, cr0, cr9, cr13, {0}
     2fc:	79030e05 	stmdbvc	r3, {r0, r2, r9, sl, fp}
     300:	5105052e 	tstpl	r5, lr, lsr #10
     304:	2f060905 	svccs	0x00060905
     308:	06120514 			; <UNDEFINED> instruction: 0x06120514
     30c:	09052e2e 	stmdbeq	r5, {r1, r2, r3, r5, r9, sl, fp, sp}
     310:	2e054b06 	vmlacs.f64	d4, d5, d6
     314:	23053206 	movwcs	r3, #20998	; 0x5206
     318:	30110565 	andscc	r0, r1, r5, ror #10
     31c:	2e300905 	vaddcs.f16	s0, s0, s10	; <UNPREDICTABLE>
     320:	030e059e 	movweq	r0, #58782	; 0xe59e
     324:	09054a79 	stmdbeq	r5, {r0, r3, r4, r5, r6, r9, fp, lr}
     328:	13142f06 	tstne	r4, #6, 30
     32c:	2e061413 	cfmvdlrcs	mvd6, r1
     330:	03061d05 	movweq	r1, #27909	; 0x6d05
     334:	14050175 	strne	r0, [r5], #-373	; 0xfffffe8b
     338:	06050501 	streq	r0, [r5], -r1, lsl #10
     33c:	0309052e 	movweq	r0, #38190	; 0x952e
     340:	05054a0b 	streq	r4, [r5, #-2571]	; 0xfffff5f5
     344:	2e2e7503 	cfsh64cs	mvdx7, mvdx14, #3
     348:	1c050104 	stfnes	f0, [r5], {4}
     34c:	00c10306 	sbceq	r0, r1, r6, lsl #6
     350:	01140501 	tsteq	r4, r1, lsl #10
     354:	01060505 	tsteq	r6, r5, lsl #10
     358:	0416064a 	ldreq	r0, [r6], #-1610	; 0xfffff9b6
     35c:	03090502 	movweq	r0, #38146	; 0x9502
     360:	062e7fb6 			; <UNDEFINED> instruction: 0x062e7fb6
     364:	062f062e 	strteq	r0, [pc], -lr, lsr #12
     368:	05010401 	streq	r0, [r1, #-1025]	; 0xfffffbff
     36c:	c503061c 	strgt	r0, [r3, #-1564]	; 0xfffff9e4
     370:	14050100 	strne	r0, [r5], #-256	; 0xffffff00
     374:	06050501 	streq	r0, [r5], -r1, lsl #10
     378:	00100201 	andseq	r0, r0, r1, lsl #4
     37c:	01b70101 			; <UNDEFINED> instruction: 0x01b70101
     380:	00030000 	andeq	r0, r3, r0
     384:	000000cc 	andeq	r0, r0, ip, asr #1
     388:	0efb0102 	cdpeq	1, 15, cr0, cr11, cr2, {0}
     38c:	0101000d 	tsteq	r1, sp
     390:	00000101 	andeq	r0, r0, r1, lsl #2
     394:	00000100 	andeq	r0, r0, r0, lsl #2
     398:	732f2e01 			; <UNDEFINED> instruction: 0x732f2e01
     39c:	2f006372 	svccs	0x00006372
     3a0:	72657355 	rsbvc	r7, r5, #1409286145	; 0x54000001
     3a4:	696d2f73 	stmdbvs	sp!, {r0, r1, r4, r5, r6, r8, r9, sl, fp, sp}^
     3a8:	2f73656c 	svccs	0x0073656c
     3ac:	72756f53 	rsbsvc	r6, r5, #332	; 0x14c
     3b0:	632f6563 			; <UNDEFINED> instruction: 0x632f6563
     3b4:	30343273 	eorscc	r3, r4, r3, ror r2
     3b8:	6c2f786c 	stcvs	8, cr7, [pc], #-432	; 210 <__code_start__-0x7df0>
     3bc:	69706269 	ldmdbvs	r0!, {r0, r3, r5, r6, r9, sp, lr}^
     3c0:	636e692f 	cmnvs	lr, #770048	; 0xbc000
     3c4:	6564756c 	strbvs	r7, [r4, #-1388]!	; 0xfffffa94
     3c8:	706f2f00 	rsbvc	r2, pc, r0, lsl #30
     3cc:	6f682f74 	svcvs	0x00682f74
     3d0:	7262656d 	rsbvc	r6, r2, #457179136	; 0x1b400000
     3d4:	432f7765 			; <UNDEFINED> instruction: 0x432f7765
     3d8:	616c6c65 	cmnvs	ip, r5, ror #24
     3dc:	72612f72 	rsbvc	r2, r1, #456	; 0x1c8
     3e0:	6f6e2d6d 	svcvs	0x006e2d6d
     3e4:	652d656e 	strvs	r6, [sp, #-1390]!	; 0xfffffa92
     3e8:	2d696261 	sfmcs	f6, 2, [r9, #-388]!	; 0xfffffe7c
     3ec:	74736574 	ldrbtvc	r6, [r3], #-1396	; 0xfffffa8c
     3f0:	322d392f 	eorcc	r3, sp, #770048	; 0xbc000
     3f4:	71393130 	teqvc	r9, r0, lsr r1
     3f8:	73632d34 	cmnvc	r3, #52, 26	; 0xd00
     3fc:	65373031 	ldrvs	r3, [r7, #-49]!	; 0xffffffcf
     400:	62696c2f 	rsbvs	r6, r9, #12032	; 0x2f00
     404:	6363672f 	cmnvs	r3, #12320768	; 0xbc0000
     408:	6d72612f 	ldfvse	f6, [r2, #-188]!	; 0xffffff44
     40c:	6e6f6e2d 	cdpvs	14, 6, cr6, cr15, cr13, {1}
     410:	61652d65 	cmnvs	r5, r5, ror #26
     414:	392f6962 	stmdbcc	pc!, {r1, r5, r6, r8, fp, sp, lr}	; <UNPREDICTABLE>
     418:	312e322e 			; <UNDEFINED> instruction: 0x312e322e
     41c:	636e692f 	cmnvs	lr, #770048	; 0xbc000
     420:	6564756c 	strbvs	r7, [r4, #-1388]!	; 0xfffffa94
     424:	70670000 	rsbvc	r0, r7, r0
     428:	632e6f69 			; <UNDEFINED> instruction: 0x632e6f69
     42c:	00000100 	andeq	r0, r0, r0, lsl #2
     430:	2e697072 	mcrcs	0, 3, r7, cr9, cr2, {3}
     434:	00020068 	andeq	r0, r2, r8, rrx
     438:	64747300 	ldrbtvs	r7, [r4], #-768	; 0xfffffd00
     43c:	2d746e69 	ldclcs	14, cr6, [r4, #-420]!	; 0xfffffe5c
     440:	2e636367 	cdpcs	3, 6, cr6, cr3, cr7, {3}
     444:	00030068 	andeq	r0, r3, r8, rrx
     448:	69706700 	ldmdbvs	r0!, {r8, r9, sl, sp, lr}^
     44c:	00682e6f 	rsbeq	r2, r8, pc, ror #28
     450:	00000002 	andeq	r0, r0, r2
     454:	05003805 	streq	r3, [r0, #-2053]	; 0xfffff7fb
     458:	00822402 	addeq	r2, r2, r2, lsl #8
     45c:	01270300 			; <UNDEFINED> instruction: 0x01270300
     460:	05130505 	ldreq	r0, [r3, #-1285]	; 0xfffffafb
     464:	05010607 	streq	r0, [r1, #-1543]	; 0xfffff9f9
     468:	05054938 	streq	r4, [r5, #-2360]	; 0xfffff6c8
     46c:	07054d06 	streq	r4, [r5, -r6, lsl #26]
     470:	05050106 	streq	r0, [r5, #-262]	; 0xfffffefa
     474:	18054c06 	stmdane	r5, {r1, r2, sl, fp, lr}
     478:	0e050106 	adfeqs	f0, f5, f6
     47c:	060505ba 			; <UNDEFINED> instruction: 0x060505ba
     480:	061c052f 	ldreq	r0, [ip], -pc, lsr #10
     484:	0e052e01 	cdpeq	14, 0, cr2, cr5, cr1, {0}
     488:	0605052e 	streq	r0, [r5], -lr, lsr #10
     48c:	06120530 			; <UNDEFINED> instruction: 0x06120530
     490:	06050501 	streq	r0, [r5], -r1, lsl #10
     494:	0607054b 	streq	r0, [r7], -fp, asr #10
     498:	06050501 	streq	r0, [r5], -r1, lsl #10
     49c:	2e06134b 	cdpcs	3, 0, cr1, cr6, cr11, {2}
     4a0:	054b0105 	strbeq	r0, [fp, #-261]	; 0xfffffefb
     4a4:	064c0624 	strbeq	r0, [ip], -r4, lsr #12
     4a8:	06050501 	streq	r0, [r5], -r1, lsl #10
     4ac:	0601052f 	streq	r0, [r1], -pc, lsr #10
     4b0:	0620054b 	strteq	r0, [r0], -fp, asr #10
     4b4:	13050531 	movwne	r0, #21809	; 0x5531
     4b8:	01060705 	tsteq	r6, r5, lsl #14
     4bc:	05492005 	strbeq	r2, [r9, #-5]
     4c0:	06310605 	ldrteq	r0, [r1], -r5, lsl #12
     4c4:	2f010566 	svccs	0x00010566
     4c8:	4d062105 	stfmis	f2, [r6, #-20]	; 0xffffffec
     4cc:	05130505 	ldreq	r0, [r3, #-1285]	; 0xfffffafb
     4d0:	05010607 	streq	r0, [r1, #-1543]	; 0xfffff9f9
     4d4:	05054921 	streq	r4, [r5, #-2337]	; 0xfffff6df
     4d8:	66063106 	strvs	r3, [r6], -r6, lsl #2
     4dc:	052f0105 	streq	r0, [pc, #-261]!	; 3df <__code_start__-0x7c21>
     4e0:	064d0623 	strbeq	r0, [sp], -r3, lsr #12
     4e4:	06050501 	streq	r0, [r5], -r1, lsl #10
     4e8:	0601052f 	streq	r0, [r1], -pc, lsr #10
     4ec:	062b054b 	strteq	r0, [fp], -fp, asr #10
     4f0:	05010631 	streq	r0, [r1, #-1585]	; 0xfffff9cf
     4f4:	052f0605 	streq	r0, [pc, #-1541]!	; fffffef7 <__bss_end__+0xffff6947>
     4f8:	05010607 	streq	r0, [r1, #-1543]	; 0xfffff9f9
     4fc:	064b0609 	strbeq	r0, [fp], -r9, lsl #12
     500:	0530062e 	ldreq	r0, [r0, #-1582]!	; 0xfffff9d2
     504:	052f0601 	streq	r0, [pc, #-1537]!	; ffffff0b <__bss_end__+0xffff695b>
     508:	0630061d 			; <UNDEFINED> instruction: 0x0630061d
     50c:	06050501 	streq	r0, [r5], -r1, lsl #10
     510:	0e05132f 	cdpeq	3, 0, cr1, cr5, cr15, {1}
     514:	05050106 	streq	r0, [r5, #-262]	; 0xfffffefa
     518:	17052f06 	strne	r2, [r5, -r6, lsl #30]
     51c:	054a0106 	strbeq	r0, [sl, #-262]	; 0xfffffefa
     520:	02042e23 	andeq	r2, r4, #560	; 0x230
     524:	03063005 	movweq	r3, #24581	; 0x6005
     528:	042e00d9 	strteq	r0, [lr], #-217	; 0xffffff27
     52c:	06010501 	streq	r0, [r1], -r1, lsl #10
     530:	017fa803 	cmneq	pc, r3, lsl #16
     534:	01000602 	tsteq	r0, r2, lsl #12
     538:	00011001 	andeq	r1, r1, r1
     53c:	de000300 	cdple	3, 0, cr0, cr0, cr0, {0}
     540:	02000000 	andeq	r0, r0, #0, 0
     544:	0d0efb01 	vstreq	d15, [lr, #-4]
     548:	01010100 	mrseq	r0, (UNDEF: 17)
     54c:	00000001 	andeq	r0, r0, r1
     550:	01000001 	tsteq	r0, r1
     554:	696c2f2e 	stmdbvs	ip!, {r1, r2, r3, r5, r8, r9, sl, fp, sp}^
     558:	2f006362 	svccs	0x00006362
     55c:	2f74706f 	svccs	0x0074706f
     560:	656d6f68 	strbvs	r6, [sp, #-3944]!	; 0xfffff098
     564:	77657262 	strbvc	r7, [r5, -r2, ror #4]!
     568:	6c65432f 	stclvs	3, cr4, [r5], #-188	; 0xffffff44
     56c:	2f72616c 	svccs	0x0072616c
     570:	2d6d7261 	sfmcs	f7, 2, [sp, #-388]!	; 0xfffffe7c
     574:	656e6f6e 	strbvs	r6, [lr, #-3950]!	; 0xfffff092
     578:	6261652d 	rsbvs	r6, r1, #188743680	; 0xb400000
     57c:	65742d69 	ldrbvs	r2, [r4, #-3433]!	; 0xfffff297
     580:	392f7473 	stmdbcc	pc!, {r0, r1, r4, r5, r6, sl, ip, sp, lr}	; <UNPREDICTABLE>
     584:	3130322d 	teqcc	r0, sp, lsr #4
     588:	2d347139 	ldfcss	f7, [r4, #-228]!	; 0xffffff1c
     58c:	30317363 	eorscc	r7, r1, r3, ror #6
     590:	6c2f6537 	cfstr32vs	mvfx6, [pc], #-220	; 4bc <__code_start__-0x7b44>
     594:	672f6269 	strvs	r6, [pc, -r9, ror #4]!
     598:	612f6363 			; <UNDEFINED> instruction: 0x612f6363
     59c:	6e2d6d72 	mcrvs	13, 1, r6, cr13, cr2, {3}
     5a0:	2d656e6f 	stclcs	14, cr6, [r5, #-444]!	; 0xfffffe44
     5a4:	69626165 	stmdbvs	r2!, {r0, r2, r5, r6, r8, sp, lr}^
     5a8:	322e392f 	eorcc	r3, lr, #770048	; 0xbc000
     5ac:	692f312e 	stmdbvs	pc!, {r1, r2, r3, r5, r8, ip, sp}	; <UNPREDICTABLE>
     5b0:	756c636e 	strbvc	r6, [ip, #-878]!	; 0xfffffc92
     5b4:	2f006564 	svccs	0x00006564
     5b8:	72657355 	rsbvc	r7, r5, #1409286145	; 0x54000001
     5bc:	696d2f73 	stmdbvs	sp!, {r0, r1, r4, r5, r6, r8, r9, sl, fp, sp}^
     5c0:	2f73656c 	svccs	0x0073656c
     5c4:	72756f53 	rsbsvc	r6, r5, #332	; 0x14c
     5c8:	632f6563 			; <UNDEFINED> instruction: 0x632f6563
     5cc:	30343273 	eorscc	r3, r4, r3, ror r2
     5d0:	6c2f786c 	stcvs	8, cr7, [pc], #-432	; 428 <__code_start__-0x7bd8>
     5d4:	69706269 	ldmdbvs	r0!, {r0, r3, r5, r6, r9, sp, lr}^
     5d8:	636e692f 	cmnvs	lr, #770048	; 0xbc000
     5dc:	6564756c 	strbvs	r7, [r4, #-1388]!	; 0xfffffa94
     5e0:	72700000 	rsbsvc	r0, r0, #0, 0
     5e4:	6b746e69 	blvs	1d1bf90 <__bss_end__+0x1d129e0>
     5e8:	0100632e 	tsteq	r0, lr, lsr #6
     5ec:	74730000 	ldrbtvc	r0, [r3], #-0
     5f0:	67726164 	ldrbvs	r6, [r2, -r4, ror #2]!
     5f4:	0200682e 	andeq	r6, r0, #3014656	; 0x2e0000
     5f8:	70720000 	rsbsvc	r0, r2, r0
     5fc:	00682e69 	rsbeq	r2, r8, r9, ror #28
     600:	3c000003 	stccc	0, cr0, [r0], {3}
     604:	6c697562 	cfstr64vs	mvdx7, [r9], #-392	; 0xfffffe78
     608:	6e692d74 	mcrvs	13, 3, r2, cr9, cr4, {3}
     60c:	0000003e 	andeq	r0, r0, lr, lsr r0
     610:	2d617600 	stclcs	6, cr7, [r1, #-0]
     614:	6e697270 	mcrvs	2, 3, r7, cr9, cr0, {3}
     618:	682e6b74 	stmdavs	lr!, {r2, r4, r5, r6, r8, r9, fp, sp, lr}
     61c:	00000100 	andeq	r0, r0, r0, lsl #2
     620:	00220500 	eoreq	r0, r2, r0, lsl #10
     624:	83300205 	teqhi	r0, #1342177280	; 0x50000000
     628:	06170000 	ldreq	r0, [r7], -r0
     62c:	06050501 	streq	r0, [r5], -r1, lsl #10
     630:	05141368 	ldreq	r1, [r4, #-872]	; 0xfffffc98
     634:	12054b09 	andne	r4, r5, #9216	; 0x2400
     638:	05050106 	streq	r0, [r5, #-262]	; 0xfffffefa
     63c:	0616bb06 	ldreq	fp, [r6], -r6, lsl #22
     640:	05340666 	ldreq	r0, [r4, #-1638]!	; 0xfffff99a
     644:	66130601 	ldrvs	r0, [r3], -r1, lsl #12
     648:	01000802 	tsteq	r0, r2, lsl #16
     64c:	0000a501 	andeq	sl, r0, r1, lsl #10
     650:	57000300 	strpl	r0, [r0, -r0, lsl #6]
     654:	02000000 	andeq	r0, r0, #0, 0
     658:	0d0efb01 	vstreq	d15, [lr, #-4]
     65c:	01010100 	mrseq	r0, (UNDEF: 17)
     660:	00000001 	andeq	r0, r0, r1
     664:	01000001 	tsteq	r0, r1
     668:	696c2f2e 	stmdbvs	ip!, {r1, r2, r3, r5, r8, r9, sl, fp, sp}^
     66c:	2f006362 	svccs	0x00006362
     670:	72657355 	rsbvc	r7, r5, #1409286145	; 0x54000001
     674:	696d2f73 	stmdbvs	sp!, {r0, r1, r4, r5, r6, r8, r9, sl, fp, sp}^
     678:	2f73656c 	svccs	0x0073656c
     67c:	72756f53 	rsbsvc	r6, r5, #332	; 0x14c
     680:	632f6563 			; <UNDEFINED> instruction: 0x632f6563
     684:	30343273 	eorscc	r3, r4, r3, ror r2
     688:	6c2f786c 	stcvs	8, cr7, [pc], #-432	; 4e0 <__code_start__-0x7b20>
     68c:	69706269 	ldmdbvs	r0!, {r0, r3, r5, r6, r9, sp, lr}^
     690:	636e692f 	cmnvs	lr, #770048	; 0xbc000
     694:	6564756c 	strbvs	r7, [r4, #-1388]!	; 0xfffffa94
     698:	75700000 	ldrbvc	r0, [r0, #-0]!
     69c:	632e6b74 			; <UNDEFINED> instruction: 0x632e6b74
     6a0:	00000100 	andeq	r0, r0, r0, lsl #2
     6a4:	2e697072 	mcrcs	0, 3, r7, cr9, cr2, {3}
     6a8:	00020068 	andeq	r0, r2, r8, rrx
     6ac:	22050000 	andcs	r0, r5, #0, 0
     6b0:	88020500 	stmdahi	r2, {r8, sl}
     6b4:	15000083 	strne	r0, [r0, #-131]	; 0xffffff7d
     6b8:	05050106 	streq	r0, [r5, #-262]	; 0xfffffefa
     6bc:	0b054b06 	bleq	1532dc <__bss_end__+0x149d2c>
     6c0:	01040200 	mrseq	r0, R12_usr
     6c4:	00050501 	andeq	r0, r5, r1, lsl #10
     6c8:	06010402 	streq	r0, [r1], -r2, lsl #8
     6cc:	0009052e 	andeq	r0, r9, lr, lsr #10
     6d0:	06020402 	streq	r0, [r2], -r2, lsl #8
     6d4:	000f054b 	andeq	r0, pc, fp, asr #10
     6d8:	65020402 	strvs	r0, [r2, #-1026]	; 0xfffffbfe
     6dc:	02001005 	andeq	r1, r0, #5, 0
     6e0:	01060204 	tsteq	r6, r4, lsl #4
     6e4:	02040200 	andeq	r0, r4, #0, 4
     6e8:	0605052e 	streq	r0, [r5], -lr, lsr #10
     6ec:	06010532 			; <UNDEFINED> instruction: 0x06010532
     6f0:	00060213 	andeq	r0, r6, r3, lsl r2
     6f4:	05fa0101 	ldrbeq	r0, [sl, #257]!	; 0x101
     6f8:	00030000 	andeq	r0, r3, r0
     6fc:	000000f4 	strdeq	r0, [r0], -r4
     700:	0efb0102 	cdpeq	1, 15, cr0, cr11, cr2, {0}
     704:	0101000d 	tsteq	r1, sp
     708:	00000101 	andeq	r0, r0, r1, lsl #2
     70c:	00000100 	andeq	r0, r0, r0, lsl #2
     710:	6c2f2e01 	stcvs	14, cr2, [pc], #-4	; 714 <__code_start__-0x78ec>
     714:	00636269 	rsbeq	r6, r3, r9, ror #4
     718:	74706f2f 	ldrbtvc	r6, [r0], #-3887	; 0xfffff0d1
     71c:	6d6f682f 	stclvs	8, cr6, [pc, #-188]!	; 668 <__code_start__-0x7998>
     720:	65726265 	ldrbvs	r6, [r2, #-613]!	; 0xfffffd9b
     724:	65432f77 	strbvs	r2, [r3, #-3959]	; 0xfffff089
     728:	72616c6c 	rsbvc	r6, r1, #108, 24	; 0x6c00
     72c:	6d72612f 	ldfvse	f6, [r2, #-188]!	; 0xffffff44
     730:	6e6f6e2d 	cdpvs	14, 6, cr6, cr15, cr13, {1}
     734:	61652d65 	cmnvs	r5, r5, ror #26
     738:	742d6962 	strtvc	r6, [sp], #-2402	; 0xfffff69e
     73c:	2f747365 	svccs	0x00747365
     740:	30322d39 	eorscc	r2, r2, r9, lsr sp
     744:	34713931 	ldrbtcc	r3, [r1], #-2353	; 0xfffff6cf
     748:	3173632d 	cmncc	r3, sp, lsr #6
     74c:	2f653730 	svccs	0x00653730
     750:	2f62696c 	svccs	0x0062696c
     754:	2f636367 	svccs	0x00636367
     758:	2d6d7261 	sfmcs	f7, 2, [sp, #-388]!	; 0xfffffe7c
     75c:	656e6f6e 	strbvs	r6, [lr, #-3950]!	; 0xfffff092
     760:	6261652d 	rsbvs	r6, r1, #188743680	; 0xb400000
     764:	2e392f69 	cdpcs	15, 3, cr2, cr9, cr9, {3}
     768:	2f312e32 	svccs	0x00312e32
     76c:	6c636e69 	stclvs	14, cr6, [r3], #-420	; 0xfffffe5c
     770:	00656475 	rsbeq	r6, r5, r5, ror r4
     774:	6573552f 	ldrbvs	r5, [r3, #-1327]!	; 0xfffffad1
     778:	6d2f7372 	stcvs	3, cr7, [pc, #-456]!	; 5b8 <__code_start__-0x7a48>
     77c:	73656c69 	cmnvc	r5, #26880	; 0x6900
     780:	756f532f 	strbvc	r5, [pc, #-815]!	; 459 <__code_start__-0x7ba7>
     784:	2f656372 	svccs	0x00656372
     788:	34327363 	ldrtcc	r7, [r2], #-867	; 0xfffffc9d
     78c:	2f786c30 	svccs	0x00786c30
     790:	7062696c 	rsbvc	r6, r2, ip, ror #18
     794:	6e692f69 	cdpvs	15, 6, cr2, cr9, cr9, {3}
     798:	64756c63 	ldrbtvs	r6, [r5], #-3171	; 0xfffff39d
     79c:	76000065 	strvc	r0, [r0], -r5, rrx
     7a0:	72702d61 	rsbsvc	r2, r0, #6208	; 0x1840
     7a4:	6b746e69 	blvs	1d1c150 <__bss_end__+0x1d12ba0>
     7a8:	0100632e 	tsteq	r0, lr, lsr #6
     7ac:	74730000 	ldrbtvc	r0, [r3], #-0
     7b0:	746e6964 	strbtvc	r6, [lr], #-2404	; 0xfffff69c
     7b4:	6363672d 	cmnvs	r3, #11796480	; 0xb40000
     7b8:	0200682e 	andeq	r6, r0, #3014656	; 0x2e0000
     7bc:	70720000 	rsbsvc	r0, r2, r0
     7c0:	00682e69 	rsbeq	r2, r8, r9, ror #28
     7c4:	72000003 	andvc	r0, r0, #3, 0
     7c8:	692d6970 	pushvs	{r4, r5, r6, r8, fp, sp, lr}
     7cc:	7265746e 	rsbvc	r7, r5, #1845493760	; 0x6e000000
     7d0:	2e6c616e 	powcsez	f6, f4, #0.5
     7d4:	00030068 	andeq	r0, r3, r8, rrx
     7d8:	64747300 	ldrbtvs	r7, [r4], #-768	; 0xfffffd00
     7dc:	2e677261 	cdpcs	2, 6, cr7, cr7, cr1, {3}
     7e0:	00020068 	andeq	r0, r2, r8, rrx
     7e4:	75623c00 	strbvc	r3, [r2, #-3072]!	; 0xfffff400
     7e8:	2d746c69 	ldclcs	12, cr6, [r4, #-420]!	; 0xfffffe5c
     7ec:	003e6e69 	eorseq	r6, lr, r9, ror #28
     7f0:	00000000 	andeq	r0, r0, r0
     7f4:	05001b05 	streq	r1, [r0, #-2821]	; 0xfffff4fb
     7f8:	0083bc02 	addeq	fp, r3, r2, lsl #24
     7fc:	01260300 			; <UNDEFINED> instruction: 0x01260300
     800:	05011d05 	streq	r1, [r1, #-3333]	; 0xfffff2fb
     804:	0501062d 	streq	r0, [r1, #-1581]	; 0xfffff9d3
     808:	054a2e01 	strbeq	r2, [sl, #-3585]	; 0xfffff1ff
     80c:	05510633 	ldrbeq	r0, [r1, #-1587]	; 0xfffff9cd
     810:	06051302 	streq	r1, [r5], -r2, lsl #6
     814:	02050106 	andeq	r0, r5, #-2147483647	; 0x80000001
     818:	08053006 	stmdaeq	r5, {r1, r2, ip, sp}
     81c:	01040200 	mrseq	r0, R12_usr
     820:	00020501 	andeq	r0, r2, r1, lsl #10
     824:	06010402 	streq	r0, [r1], -r2, lsl #8
     828:	00030501 	andeq	r0, r3, r1, lsl #10
     82c:	06020402 	streq	r0, [r2], -r2, lsl #8
     830:	0008052f 	andeq	r0, r8, pc, lsr #10
     834:	06020402 	streq	r0, [r2], -r2, lsl #8
     838:	00150501 	andseq	r0, r5, r1, lsl #10
     83c:	06020402 	streq	r0, [r2], -r2, lsl #8
     840:	00180549 	andseq	r0, r8, r9, asr #10
     844:	06020402 	streq	r0, [r2], -r2, lsl #8
     848:	04020001 	streq	r0, [r2], #-1
     84c:	02052e02 	andeq	r2, r5, #2, 28
     850:	05053006 	streq	r3, [r5, #-6]
     854:	02050106 	andeq	r0, r5, #-2147483647	; 0x80000001
     858:	01054b06 	tsteq	r5, r6, lsl #22
     85c:	3e051306 	cdpcc	3, 0, cr1, cr5, cr6, {0}
     860:	02053106 	andeq	r3, r5, #-2147483647	; 0x80000001
     864:	060e0514 			; <UNDEFINED> instruction: 0x060e0514
     868:	2e060501 	cfsh32cs	mvfx0, mvfx6, #1
     86c:	2f060205 	svccs	0x00060205
     870:	01060405 	tsteq	r6, r5, lsl #8
     874:	2f060305 	svccs	0x00060305
     878:	01061105 	tsteq	r6, r5, lsl #2
     87c:	052e0905 	streq	r0, [lr, #-2309]!	; 0xfffff6fb
     880:	15300602 	ldrne	r0, [r0, #-1538]!	; 0xfffff9fe
     884:	01060705 	tsteq	r6, r5, lsl #14
     888:	052e0205 	streq	r0, [lr, #-517]!	; 0xfffffdfb
     88c:	0402000b 	streq	r0, [r2], #-11
     890:	052e0601 	streq	r0, [lr, #-1537]!	; 0xfffff9ff
     894:	04020002 	streq	r0, [r2], #-2
     898:	05010601 	streq	r0, [r1, #-1537]	; 0xfffff9ff
     89c:	04020003 	streq	r0, [r2], #-3
     8a0:	052f0603 	streq	r0, [pc, #-1539]!	; 2a5 <__code_start__-0x7d5b>
     8a4:	0402000c 	streq	r0, [r2], #-12
     8a8:	05010603 	streq	r0, [r1, #-1539]	; 0xfffff9fd
     8ac:	0402000a 	streq	r0, [r2], #-10
     8b0:	17052e03 	strne	r2, [r5, -r3, lsl #28]
     8b4:	03040200 	movweq	r0, #16896	; 0x4200
     8b8:	02002d06 	andeq	r2, r0, #384	; 0x180
     8bc:	01060304 	tsteq	r6, r4, lsl #6
     8c0:	30060205 	andcc	r0, r6, r5, lsl #4
     8c4:	01060905 	tsteq	r6, r5, lsl #18
     8c8:	0602052e 	streq	r0, [r2], -lr, lsr #10
     8cc:	06010530 			; <UNDEFINED> instruction: 0x06010530
     8d0:	06490513 			; <UNDEFINED> instruction: 0x06490513
     8d4:	05010631 	streq	r0, [r1, #-1585]	; 0xfffff9cf
     8d8:	05a00602 	streq	r0, [r0, #1538]!	; 0x602
     8dc:	05010604 	streq	r0, [r1, #-1540]	; 0xfffff9fc
     8e0:	052f0603 	streq	r0, [pc, #-1539]!	; 2e5 <__code_start__-0x7d1b>
     8e4:	05010609 	streq	r0, [r1, #-1545]	; 0xfffff9f7
     8e8:	13300602 	teqne	r0, #2097152	; 0x200000
     8ec:	01060b05 	tsteq	r6, r5, lsl #22
     8f0:	30060205 	andcc	r0, r6, r5, lsl #4
     8f4:	04052e06 	streq	r2, [r5], #-3590	; 0xfffff1fa
     8f8:	15240206 	strne	r0, [r4, #-518]!	; 0xfffffdfa
     8fc:	060f0513 			; <UNDEFINED> instruction: 0x060f0513
     900:	06052e01 	streq	r2, [r5], -r1, lsl #28
     904:	0605054a 	streq	r0, [r5], -sl, asr #10
     908:	0905134b 	stmdbeq	r5, {r0, r1, r3, r6, r8, r9, ip}
     90c:	05050106 	streq	r0, [r5, #-262]	; 0xfffffefa
     910:	0b052f06 	bleq	14c530 <__bss_end__+0x142f80>
     914:	0d051006 	stceq	0, cr1, [r5, #-24]	; 0xffffffe8
     918:	01040200 	mrseq	r0, R12_usr
     91c:	0004052c 	andeq	r0, r4, ip, lsr #10
     920:	06010402 	streq	r0, [r1], -r2, lsl #8
     924:	00050534 	andeq	r0, r5, r4, lsr r5
     928:	13010402 	movwne	r0, #5122	; 0x1402
     92c:	02001b05 	andeq	r1, r0, #5120	; 0x1400
     930:	01060104 	tsteq	r6, r4, lsl #2
     934:	02000705 	andeq	r0, r0, #1310720	; 0x140000
     938:	05d60104 	ldrbeq	r0, [r6, #260]	; 0x104
     93c:	04020018 	streq	r0, [r2], #-24	; 0xffffffe8
     940:	0a052e01 	beq	14c14c <__bss_end__+0x142b9c>
     944:	01040200 	mrseq	r0, R12_usr
     948:	000b054a 	andeq	r0, fp, sl, asr #10
     94c:	06010402 	streq	r0, [r1], -r2, lsl #8
     950:	000e052f 	andeq	r0, lr, pc, lsr #10
     954:	06010402 	streq	r0, [r1], -r2, lsl #8
     958:	0004052e 	andeq	r0, r4, lr, lsr #10
     95c:	2e010402 	cdpcs	4, 0, cr0, cr1, cr2, {0}
     960:	06054b06 	streq	r4, [r5], -r6, lsl #22
     964:	05050106 	streq	r0, [r5, #-262]	; 0xfffffefa
     968:	0a052f06 	beq	14c588 <__bss_end__+0x142fd8>
     96c:	07050106 	streq	r0, [r5, -r6, lsl #2]
     970:	0d052e4a 	stceq	14, cr2, [r5, #-296]	; 0xfffffed8
     974:	4a2e7603 	bmi	b9e188 <__bss_end__+0xb94bd8>
     978:	050d0b05 	streq	r0, [sp, #-2821]	; 0xfffff4fb
     97c:	0402000d 	streq	r0, [r2], #-13
     980:	14030601 	strne	r0, [r3], #-1537	; 0xfffff9ff
     984:	0011052e 	andseq	r0, r1, lr, lsr #10
     988:	13010402 	movwne	r0, #5122	; 0x1402
     98c:	02002d05 	andeq	r2, r0, #320	; 0x140
     990:	01060104 	tsteq	r6, r4, lsl #2
     994:	02002a05 	andeq	r2, r0, #20480	; 0x5000
     998:	052e0104 	streq	r0, [lr, #-260]!	; 0xfffffefc
     99c:	04020016 	streq	r0, [r2], #-22	; 0xffffffea
     9a0:	14054a01 	strne	r4, [r5], #-2561	; 0xfffff5ff
     9a4:	01040200 	mrseq	r0, R12_usr
     9a8:	0d054b06 	vstreq	d4, [r5, #-24]	; 0xffffffe8
     9ac:	01040200 	mrseq	r0, R12_usr
     9b0:	02000106 	andeq	r0, r0, #-2147483647	; 0x80000001
     9b4:	064a0104 	strbeq	r0, [sl], -r4, lsl #2
     9b8:	0612052f 	ldreq	r0, [r2], -pc, lsr #10
     9bc:	0d054a01 	vstreq	s8, [r5, #-4]
     9c0:	12052f06 	andne	r2, r5, #6, 30
     9c4:	19050106 	stmdbne	r5, {r1, r2, r8}
     9c8:	04054b06 	streq	r4, [r5], #-2822	; 0xfffff4fa
     9cc:	02040200 	andeq	r0, r4, #0, 4
     9d0:	00011103 	andeq	r1, r1, r3, lsl #2
     9d4:	01020402 	tsteq	r2, r2, lsl #8
     9d8:	02000205 	andeq	r0, r0, #1342177280	; 0x50000000
     9dc:	05150204 	ldreq	r0, [r5, #-516]	; 0xfffffdfc
     9e0:	04020009 	streq	r0, [r2], #-9
     9e4:	00010602 	andeq	r0, r1, r2, lsl #12
     9e8:	4a020402 	bmi	819f8 <__bss_end__+0x78448>
     9ec:	02000105 	andeq	r0, r0, #1073741825	; 0x40000001
     9f0:	059f0204 	ldreq	r0, [pc, #516]	; bfc <__code_start__-0x7404>
     9f4:	6e030604 	cfmadd32vs	mvax0, mvfx0, mvfx3, mvfx4
     9f8:	0609054a 	streq	r0, [r9], -sl, asr #10
     9fc:	06040501 	streq	r0, [r4], -r1, lsl #10
     a00:	0606052f 	streq	r0, [r6], -pc, lsr #10
     a04:	2f040511 	svccs	0x00040511
     a08:	63030b05 	movwvs	r0, #15109	; 0x3b05
     a0c:	0019052e 	andseq	r0, r9, lr, lsr #10
     a10:	06010402 	streq	r0, [r1], -r2, lsl #8
     a14:	052e2403 	streq	r2, [lr, #-1027]!	; 0xfffffbfd
     a18:	0402001a 	streq	r0, [r2], #-26	; 0xffffffe6
     a1c:	28051301 	stmdacs	r5, {r0, r8, r9, ip}
     a20:	01040200 	mrseq	r0, R12_usr
     a24:	25050106 	strcs	r0, [r5, #-262]	; 0xfffffefa
     a28:	01040200 	mrseq	r0, R12_usr
     a2c:	001f052e 	andseq	r0, pc, lr, lsr #10
     a30:	4a010402 	bmi	41a40 <__bss_end__+0x38490>
     a34:	02000b05 	andeq	r0, r0, #5120	; 0x1400
     a38:	4b060104 	blmi	180e50 <__bss_end__+0x1778a0>
     a3c:	02000405 	andeq	r0, r0, #83886080	; 0x5000000
     a40:	01060104 	tsteq	r6, r4, lsl #2
     a44:	01040200 	mrseq	r0, R12_usr
     a48:	0402004a 	streq	r0, [r2], #-74	; 0xffffffb6
     a4c:	004e0601 	subeq	r0, lr, r1, lsl #12
     a50:	01010402 	tsteq	r1, r2, lsl #8
     a54:	01040200 	mrseq	r0, R12_usr
     a58:	04020001 	streq	r0, [r2], #-1
     a5c:	02000101 	andeq	r0, r0, #1073741824	; 0x40000000
     a60:	2e060104 	adfcss	f0, f6, f4
     a64:	01040200 	mrseq	r0, R12_usr
     a68:	04020066 	streq	r0, [r2], #-102	; 0xffffff9a
     a6c:	02002e01 	andeq	r2, r0, #1, 28
     a70:	4a060104 	bmi	180e88 <__bss_end__+0x1778d8>
     a74:	a6034805 	strge	r4, [r3], -r5, lsl #16
     a78:	0520087f 	streq	r0, [r0, #-2175]!	; 0xfffff781
     a7c:	06011305 	streq	r1, [r1], -r5, lsl #6
     a80:	0402002e 	streq	r0, [r2], #-46	; 0xffffffd2
     a84:	002e0602 	eoreq	r0, lr, r2, lsl #12
     a88:	01020402 	tsteq	r2, r2, lsl #8
     a8c:	02040200 	andeq	r0, r4, #0, 4
     a90:	00110513 	andseq	r0, r1, r3, lsl r5
     a94:	06020402 	streq	r0, [r2], -r2, lsl #8
     a98:	00050501 	andeq	r0, r5, r1, lsl #10
     a9c:	06020402 	streq	r0, [r2], -r2, lsl #8
     aa0:	0007054b 	andeq	r0, r7, fp, asr #10
     aa4:	06020402 	streq	r0, [r2], -r2, lsl #8
     aa8:	06090501 	streq	r0, [r9], -r1, lsl #10
     aac:	060e054b 	streq	r0, [lr], -fp, asr #10
     ab0:	00480501 	subeq	r0, r8, r1, lsl #10
     ab4:	62010402 	andvs	r0, r1, #33554432	; 0x2000000
     ab8:	02000505 	andeq	r0, r0, #20971520	; 0x1400000
     abc:	4b060104 	blmi	180ed4 <__bss_end__+0x177924>
     ac0:	01040200 	mrseq	r0, R12_usr
     ac4:	04020001 	streq	r0, [r2], #-1
     ac8:	009e0601 	addseq	r0, lr, r1, lsl #12
     acc:	2e010402 	cdpcs	4, 0, cr0, cr1, cr2, {0}
     ad0:	01040200 	mrseq	r0, R12_usr
     ad4:	40052e06 	andmi	r2, r5, r6, lsl #28
     ad8:	d600e103 	strle	lr, [r0], -r3, lsl #2
     adc:	02050106 	andeq	r0, r5, #-2147483647	; 0x80000001
     ae0:	1e059f06 	cdpne	15, 0, cr9, cr5, cr6, {0}
     ae4:	12050106 	andne	r0, r5, #-2147483647	; 0x80000001
     ae8:	0605052e 	streq	r0, [r5], -lr, lsr #10
     aec:	1402052f 	strne	r0, [r2], #-1327	; 0xfffffad1
     af0:	01060905 	tsteq	r6, r5, lsl #18
     af4:	4b060505 	blmi	181f10 <__bss_end__+0x178960>
     af8:	05130205 	ldreq	r0, [r3, #-517]	; 0xfffffdfb
     afc:	050d0608 	streq	r0, [sp, #-1544]	; 0xfffff9f8
     b00:	04053302 	streq	r3, [r5], #-770	; 0xfffffcfe
     b04:	0f054c06 	svceq	0x00054c06
     b08:	09050106 	stmdbeq	r5, {r1, r2, r8}
     b0c:	0608052e 	streq	r0, [r8], -lr, lsr #10
     b10:	0602052c 	streq	r0, [r2], -ip, lsr #10
     b14:	000d052e 	andeq	r0, sp, lr, lsr #10
     b18:	4a010402 	bmi	41b28 <__bss_end__+0x38578>
     b1c:	4b060305 	blmi	181738 <__bss_end__+0x178188>
     b20:	01060505 	tsteq	r6, r5, lsl #10
     b24:	4d060805 	stcmi	8, cr0, [r6, #-20]	; 0xffffffec
     b28:	01060e05 	tsteq	r6, r5, lsl #28
     b2c:	052e0a05 	streq	r0, [lr, #-2565]!	; 0xfffff5fb
     b30:	052f0604 	streq	r0, [pc, #-1540]!	; 534 <__code_start__-0x7acc>
     b34:	05010609 	streq	r0, [r1, #-1545]	; 0xfffff9f7
     b38:	052f0604 	streq	r0, [pc, #-1540]!	; 53c <__code_start__-0x7ac4>
     b3c:	2e010607 	cfmadd32cs	mvax0, mvfx0, mvfx1, mvfx7
     b40:	30060405 	andcc	r0, r6, r5, lsl #8
     b44:	01060705 	tsteq	r6, r5, lsl #14
     b48:	30060405 	andcc	r0, r6, r5, lsl #8
     b4c:	0d051413 	cfstrseq	mvf1, [r5, #-76]	; 0xffffffb4
     b50:	09051006 	stmdbeq	r5, {r1, r2, ip}
     b54:	12053006 	andne	r3, r5, #6, 0
     b58:	0a050106 	beq	140f78 <__bss_end__+0x1379c8>
     b5c:	6609052e 	strvs	r0, [r9], -lr, lsr #10
     b60:	4b060505 	blmi	181f7c <__bss_end__+0x1789cc>
     b64:	01061205 	tsteq	r6, r5, lsl #4
     b68:	052e1605 	streq	r1, [lr, #-1541]!	; 0xfffff9fb
     b6c:	05052e0b 	streq	r2, [r5, #-3595]	; 0xfffff1f5
     b70:	08052f06 	stmdaeq	r5, {r1, r2, r8, r9, sl, fp, sp}
     b74:	052e0106 	streq	r0, [lr, #-262]!	; 0xfffffefa
     b78:	01300604 	teqeq	r0, r4, lsl #12
     b7c:	0015014a 	andseq	r0, r5, sl, asr #2
     b80:	02010402 	andeq	r0, r1, #33554432	; 0x2000000
     b84:	02000f36 	andeq	r0, r0, #216	; 0xd8
     b88:	00010104 	andeq	r0, r1, r4, lsl #2
     b8c:	d6010402 	strle	r0, [r1], -r2, lsl #8
     b90:	13341105 	teqne	r4, #1073741825	; 0x40000001
     b94:	04020001 	streq	r0, [r2], #-1
     b98:	00ba0602 	adcseq	r0, sl, r2, lsl #12
     b9c:	06030402 	streq	r0, [r3], -r2, lsl #8
     ba0:	040200ba 	streq	r0, [r2], #-186	; 0xffffff46
     ba4:	02000103 	andeq	r0, r0, #-1073741824	; 0xc0000000
     ba8:	05140304 	ldreq	r0, [r4, #-772]	; 0xfffffcfc
     bac:	04020015 	streq	r0, [r2], #-21	; 0xffffffeb
     bb0:	05010603 	streq	r0, [r1, #-1539]	; 0xfffff9fd
     bb4:	04020011 	streq	r0, [r2], #-17	; 0xffffffef
     bb8:	052f0603 	streq	r0, [pc, #-1539]!	; 5bd <__code_start__-0x7a43>
     bbc:	0402001a 	streq	r0, [r2], #-26	; 0xffffffe6
     bc0:	05010603 	streq	r0, [r1, #-1539]	; 0xfffff9fd
     bc4:	04020011 	streq	r0, [r2], #-17	; 0xffffffef
     bc8:	00d70603 	sbcseq	r0, r7, r3, lsl #12
     bcc:	13030402 	movwne	r0, #13314	; 0x3402
     bd0:	03040200 	movweq	r0, #16896	; 0x4200
     bd4:	04020014 	streq	r0, [r2], #-20	; 0xffffffec
     bd8:	02006703 	andeq	r6, r0, #786432	; 0xc0000
     bdc:	05680304 	strbeq	r0, [r8, #-772]!	; 0xfffffcfc
     be0:	04020014 	streq	r0, [r2], #-20	; 0xffffffec
     be4:	05010603 	streq	r0, [r1, #-1539]	; 0xfffff9fd
     be8:	04020013 	streq	r0, [r2], #-19	; 0xffffffed
     bec:	18058203 	stmdane	r5, {r0, r1, r9, pc}
     bf0:	1b054e06 	blne	154410 <__bss_end__+0x14ae60>
     bf4:	1a050106 	bne	141014 <__bss_end__+0x137a64>
     bf8:	06090582 	streq	r0, [r9], -r2, lsl #11
     bfc:	060d054b 	streq	r0, [sp], -fp, asr #10
     c00:	09052e01 	stmdbeq	r5, {r0, r9, sl, fp, sp}
     c04:	ba06f306 	blt	1bd824 <__bss_end__+0x1b4274>
     c08:	30061505 	andcc	r1, r6, r5, lsl #10
     c0c:	01061805 	tsteq	r6, r5, lsl #16
     c10:	05661705 	strbeq	r1, [r6, #-1797]!	; 0xfffff8fb
     c14:	054b0619 	strbeq	r0, [fp, #-1561]	; 0xfffff9e7
     c18:	6f030615 	svcvs	0x00030615
     c1c:	06110566 	ldreq	r0, [r1], -r6, ror #10
     c20:	05d60148 	ldrbeq	r0, [r6, #328]	; 0x148
     c24:	2e0b0309 	cdpcs	3, 0, cr0, cr11, cr9, {0}
     c28:	01060d05 	tsteq	r6, r5, lsl #26
     c2c:	0609052e 	streq	r0, [r9], -lr, lsr #10
     c30:	05ba06f3 	ldreq	r0, [sl, #1779]!	; 0x6f3
     c34:	062f0615 			; <UNDEFINED> instruction: 0x062f0615
     c38:	05667503 	strbeq	r7, [r6, #-1283]!	; 0xfffffafd
     c3c:	13030619 	movwne	r0, #13849	; 0x3619
     c40:	0615054a 	ldreq	r0, [r5], -sl, asr #10
     c44:	06666d03 	strbteq	r6, [r6], -r3, lsl #26
     c48:	014a1503 	cmpeq	sl, r3, lsl #10
     c4c:	052e06ba 	streq	r0, [lr, #-1722]!	; 0xfffff946
     c50:	011a0605 	tsteq	sl, r5, lsl #12
     c54:	0e032e9e 	mcreq	14, 0, r2, cr3, cr14, {4}
     c58:	06090501 	streq	r0, [r9], -r1, lsl #10
     c5c:	06050501 	streq	r0, [r5], -r1, lsl #10
     c60:	04057508 	streq	r7, [r5], #-1288	; 0xfffffaf8
     c64:	05011803 	streq	r1, [r1, #-2051]	; 0xfffff7fd
     c68:	05010607 	streq	r0, [r1, #-1543]	; 0xfffff9f9
     c6c:	05310604 	ldreq	r0, [r1, #-1540]!	; 0xfffff9fc
     c70:	2e670305 	cdpcs	3, 6, cr0, cr7, cr5, {0}
     c74:	01061c05 	tsteq	r6, r5, lsl #24
     c78:	05820905 	streq	r0, [r2, #2309]	; 0x905
     c7c:	31f30605 	mvnscc	r0, r5, lsl #12
     c80:	01061c05 	tsteq	r6, r5, lsl #24
     c84:	05820905 	streq	r0, [r2, #2309]	; 0x905
     c88:	30f30605 	rscscc	r0, r3, r5, lsl #12
     c8c:	01061b05 	tsteq	r6, r5, lsl #22
     c90:	05820905 	streq	r0, [r2, #2309]	; 0x905
     c94:	30f30605 	rscscc	r0, r3, r5, lsl #12
     c98:	01060705 	tsteq	r6, r5, lsl #14
     c9c:	83060505 	movwhi	r0, #25861	; 0x6505
     ca0:	06090530 			; <UNDEFINED> instruction: 0x06090530
     ca4:	06050501 	streq	r0, [r5], -r1, lsl #10
     ca8:	11057508 	tstne	r5, r8, lsl #10
     cac:	06220530 			; <UNDEFINED> instruction: 0x06220530
     cb0:	06050501 	streq	r0, [r5], -r1, lsl #10
     cb4:	8311054b 	tsthi	r1, #314572800	; 0x12c00000
     cb8:	01830505 	orreq	r0, r3, r5, lsl #10
     cbc:	0e05359e 	mcreq	5, 0, r3, cr5, cr14, {4}
     cc0:	0a050106 	beq	1410e0 <__bss_end__+0x137b30>
     cc4:	052d062e 	streq	r0, [sp, #-1582]!	; 0xfffff9d2
     cc8:	05010604 	streq	r0, [r1, #-1540]	; 0xfffff9fc
     ccc:	04020013 	streq	r0, [r2], #-19	; 0xffffffed
     cd0:	10054a01 	andne	r4, r5, r1, lsl #20
     cd4:	01040200 	mrseq	r0, R12_usr
     cd8:	0402002e 	streq	r0, [r2], #-46	; 0xffffffd2
     cdc:	02056601 	andeq	r6, r5, #1048576	; 0x100000
     ce0:	07051606 	streq	r1, [r5, -r6, lsl #12]
     ce4:	02050106 	andeq	r0, r5, #-2147483647	; 0x80000001
     ce8:	01054b06 	tsteq	r5, r6, lsl #22
     cec:	02661306 	rsbeq	r1, r6, #402653184	; 0x18000000
     cf0:	0101001e 	tsteq	r1, lr, lsl r0
     cf4:	0000009e 	muleq	r0, lr, r0
     cf8:	005d0003 	subseq	r0, sp, r3
     cfc:	01020000 	mrseq	r0, (UNDEF: 2)
     d00:	000d0efb 	strdeq	r0, [sp], -fp
     d04:	01010101 	tsteq	r1, r1, lsl #2
     d08:	01000000 	mrseq	r0, (UNDEF: 0)
     d0c:	2e010000 	cdpcs	0, 0, cr0, cr1, cr0, {0}
     d10:	6174732f 	cmnvs	r4, pc, lsr #6
     d14:	732d6666 			; <UNDEFINED> instruction: 0x732d6666
     d18:	2f006372 	svccs	0x00006372
     d1c:	72657355 	rsbvc	r7, r5, #1409286145	; 0x54000001
     d20:	696d2f73 	stmdbvs	sp!, {r0, r1, r4, r5, r6, r8, r9, sl, fp, sp}^
     d24:	2f73656c 	svccs	0x0073656c
     d28:	72756f53 	rsbsvc	r6, r5, #332	; 0x14c
     d2c:	632f6563 			; <UNDEFINED> instruction: 0x632f6563
     d30:	30343273 	eorscc	r3, r4, r3, ror r2
     d34:	6c2f786c 	stcvs	8, cr7, [pc], #-432	; b8c <__code_start__-0x7474>
     d38:	69706269 	ldmdbvs	r0!, {r0, r3, r5, r6, r9, sp, lr}^
     d3c:	636e692f 	cmnvs	lr, #770048	; 0xbc000
     d40:	6564756c 	strbvs	r7, [r4, #-1388]!	; 0xfffffa94
     d44:	61630000 	cmnvs	r3, r0
     d48:	2e656863 	cdpcs	8, 6, cr6, cr5, cr3, {3}
     d4c:	00010063 	andeq	r0, r1, r3, rrx
     d50:	69707200 	ldmdbvs	r0!, {r9, ip, sp, lr}^
     d54:	0200682e 	andeq	r6, r0, #3014656	; 0x2e0000
     d58:	05000000 	streq	r0, [r0, #-0]
     d5c:	02050019 	andeq	r0, r5, #25, 0
     d60:	00008afc 	strdeq	r8, [r0], -ip
     d64:	13050514 	movwne	r0, #21780	; 0x5514
     d68:	2f020513 	svccs	0x00020513
     d6c:	06040513 			; <UNDEFINED> instruction: 0x06040513
     d70:	06050501 	streq	r0, [r5], -r1, lsl #10
     d74:	0601052f 	streq	r0, [r1], -pc, lsr #10
     d78:	061a052f 	ldreq	r0, [sl], -pc, lsr #10
     d7c:	13050531 	movwne	r0, #21809	; 0x5531
     d80:	30020513 	andcc	r0, r2, r3, lsl r5
     d84:	06040513 			; <UNDEFINED> instruction: 0x06040513
     d88:	06050501 	streq	r0, [r5], -r1, lsl #10
     d8c:	0601052f 	streq	r0, [r1], -pc, lsr #10
     d90:	0002022f 	andeq	r0, r2, pc, lsr #4
     d94:	007f0101 	rsbseq	r0, pc, r1, lsl #2
     d98:	00030000 	andeq	r0, r3, r0
     d9c:	00000064 	andeq	r0, r0, r4, rrx
     da0:	0efb0102 	cdpeq	1, 15, cr0, cr11, cr2, {0}
     da4:	0101000d 	tsteq	r1, sp
     da8:	00000101 	andeq	r0, r0, r1, lsl #2
     dac:	00000100 	andeq	r0, r0, r0, lsl #2
     db0:	732f2e01 			; <UNDEFINED> instruction: 0x732f2e01
     db4:	66666174 			; <UNDEFINED> instruction: 0x66666174
     db8:	6372732d 	cmnvs	r2, #-1275068416	; 0xb4000000
     dbc:	73552f00 	cmpvc	r5, #0, 30
     dc0:	2f737265 	svccs	0x00737265
     dc4:	656c696d 	strbvs	r6, [ip, #-2413]!	; 0xfffff693
     dc8:	6f532f73 	svcvs	0x00532f73
     dcc:	65637275 	strbvs	r7, [r3, #-629]!	; 0xfffffd8b
     dd0:	3273632f 	rsbscc	r6, r3, #-1140850688	; 0xbc000000
     dd4:	786c3034 	stmdavc	ip!, {r2, r4, r5, ip, sp}^
     dd8:	62696c2f 	rsbvs	r6, r9, #12032	; 0x2f00
     ddc:	692f6970 	stmdbvs	pc!, {r4, r5, r6, r8, fp, sp, lr}	; <UNPREDICTABLE>
     de0:	756c636e 	strbvc	r6, [ip, #-878]!	; 0xfffffc92
     de4:	00006564 	andeq	r6, r0, r4, ror #10
     de8:	61656c63 	cmnvs	r5, r3, ror #24
     dec:	65722d6e 	ldrbvs	r2, [r2, #-3438]!	; 0xfffff292
     df0:	746f6f62 	strbtvc	r6, [pc], #-3938	; df8 <__code_start__-0x7208>
     df4:	0100632e 	tsteq	r0, lr, lsr #6
     df8:	70720000 	rsbsvc	r0, r2, r0
     dfc:	00682e69 	rsbeq	r2, r8, r9, ror #28
     e00:	00000002 	andeq	r0, r0, r2
     e04:	05001905 	streq	r1, [r0, #-2309]	; 0xfffff6fb
     e08:	008b1c02 	addeq	r1, fp, r2, lsl #24
     e0c:	05051500 	streq	r1, [r5, #-1280]	; 0xfffffb00
     e10:	4b2f832f 	blmi	be1ad4 <__bss_end__+0xbd8524>
     e14:	01000602 	tsteq	r0, r2, lsl #12
     e18:	00009901 	andeq	r9, r0, r1, lsl #18
     e1c:	5e000300 	cdppl	3, 0, cr0, cr0, cr0, {0}
     e20:	02000000 	andeq	r0, r0, #0, 0
     e24:	0d0efb01 	vstreq	d15, [lr, #-4]
     e28:	01010100 	mrseq	r0, (UNDEF: 17)
     e2c:	00000001 	andeq	r0, r0, r1
     e30:	01000001 	tsteq	r0, r1
     e34:	74732f2e 	ldrbtvc	r2, [r3], #-3886	; 0xfffff0d2
     e38:	2d666661 	stclcs	6, cr6, [r6, #-388]!	; 0xfffffe7c
     e3c:	00637273 	rsbeq	r7, r3, r3, ror r2
     e40:	6573552f 	ldrbvs	r5, [r3, #-1327]!	; 0xfffffad1
     e44:	6d2f7372 	stcvs	3, cr7, [pc, #-456]!	; c84 <__code_start__-0x737c>
     e48:	73656c69 	cmnvc	r5, #26880	; 0x6900
     e4c:	756f532f 	strbvc	r5, [pc, #-815]!	; b25 <__code_start__-0x74db>
     e50:	2f656372 	svccs	0x00656372
     e54:	34327363 	ldrtcc	r7, [r2], #-867	; 0xfffffc9d
     e58:	2f786c30 	svccs	0x00786c30
     e5c:	7062696c 	rsbvc	r6, r2, ip, ror #18
     e60:	6e692f69 	cdpvs	15, 6, cr2, cr9, cr9, {3}
     e64:	64756c63 	ldrbtvs	r6, [r5], #-3171	; 0xfffff39d
     e68:	63000065 	movwvs	r0, #101	; 0x65
     e6c:	72617473 	rsbvc	r7, r1, #1929379840	; 0x73000000
     e70:	00632e74 	rsbeq	r2, r3, r4, ror lr
     e74:	72000001 	andvc	r0, r0, #1, 0
     e78:	682e6970 	stmdavs	lr!, {r4, r5, r6, r8, fp, sp, lr}
     e7c:	00000200 	andeq	r0, r0, r0, lsl #4
     e80:	00100500 	andseq	r0, r0, r0, lsl #10
     e84:	8b480205 	blhi	12016a0 <__bss_end__+0x11f80f0>
     e88:	05150000 	ldreq	r0, [r5, #-0]
     e8c:	02052f05 	andeq	r2, r5, #5, 30
     e90:	14050513 	strne	r0, [r5], #-1299	; 0xfffffaed
     e94:	05141330 	ldreq	r1, [r4, #-816]	; 0xfffffcd0
     e98:	060f060a 	streq	r0, [pc], -sl, lsl #12
     e9c:	4b090531 	blmi	242368 <__bss_end__+0x238db8>
     ea0:	01061005 	tsteq	r6, r5
     ea4:	0605054a 	streq	r0, [r5], -sl, asr #10
     ea8:	01013230 	tsteq	r1, r0, lsr r2
     eac:	0205144a 	andeq	r1, r5, #1241513984	; 0x4a000000
     eb0:	0006022f 	andeq	r0, r6, pc, lsr #4
     eb4:	007d0101 	rsbseq	r0, sp, r1, lsl #2
     eb8:	00030000 	andeq	r0, r3, r0
     ebc:	00000065 	andeq	r0, r0, r5, rrx
     ec0:	0efb0102 	cdpeq	1, 15, cr0, cr11, cr2, {0}
     ec4:	0101000d 	tsteq	r1, sp
     ec8:	00000101 	andeq	r0, r0, r1, lsl #2
     ecc:	00000100 	andeq	r0, r0, r0, lsl #2
     ed0:	732f2e01 			; <UNDEFINED> instruction: 0x732f2e01
     ed4:	66666174 			; <UNDEFINED> instruction: 0x66666174
     ed8:	6372732d 	cmnvs	r2, #-1275068416	; 0xb4000000
     edc:	73552f00 	cmpvc	r5, #0, 30
     ee0:	2f737265 	svccs	0x00737265
     ee4:	656c696d 	strbvs	r6, [ip, #-2413]!	; 0xfffff693
     ee8:	6f532f73 	svcvs	0x00532f73
     eec:	65637275 	strbvs	r7, [r3, #-629]!	; 0xfffffd8b
     ef0:	3273632f 	rsbscc	r6, r3, #-1140850688	; 0xbc000000
     ef4:	786c3034 	stmdavc	ip!, {r2, r4, r5, ip, sp}^
     ef8:	62696c2f 	rsbvs	r6, r9, #12032	; 0x2f00
     efc:	692f6970 	stmdbvs	pc!, {r4, r5, r6, r8, fp, sp, lr}	; <UNPREDICTABLE>
     f00:	756c636e 	strbvc	r6, [ip, #-878]!	; 0xfffffc92
     f04:	00006564 	andeq	r6, r0, r4, ror #10
     f08:	74737563 	ldrbtvc	r7, [r3], #-1379	; 0xfffffa9d
     f0c:	6c2d6d6f 	stcvs	13, cr6, [sp], #-444	; 0xfffffe44
     f10:	6564616f 	strbvs	r6, [r4, #-367]!	; 0xfffffe91
     f14:	00632e72 	rsbeq	r2, r3, r2, ror lr
     f18:	72000001 	andvc	r0, r0, #1, 0
     f1c:	682e6970 	stmdavs	lr!, {r4, r5, r6, r8, fp, sp, lr}
     f20:	00000200 	andeq	r0, r0, r0, lsl #4
     f24:	001a0500 	andseq	r0, sl, r0, lsl #10
     f28:	8b840205 	blhi	fe101744 <__bss_end__+0xfe0f8194>
     f2c:	05150000 	ldreq	r0, [r5, #-0]
     f30:	02021401 	andeq	r1, r2, #16777216	; 0x1000000
     f34:	cd010100 	stfgts	f0, [r1, #-0]
     f38:	03000000 	movweq	r0, #0
     f3c:	00005e00 	andeq	r5, r0, r0, lsl #28
     f40:	fb010200 	blx	4174a <__bss_end__+0x3819a>
     f44:	01000d0e 	tsteq	r0, lr, lsl #26
     f48:	00010101 	andeq	r0, r1, r1, lsl #2
     f4c:	00010000 	andeq	r0, r1, r0
     f50:	2f2e0100 	svccs	0x002e0100
     f54:	66617473 			; <UNDEFINED> instruction: 0x66617473
     f58:	72732d66 	rsbsvc	r2, r3, #6528	; 0x1980
     f5c:	552f0063 	strpl	r0, [pc, #-99]!	; f01 <__code_start__-0x70ff>
     f60:	73726573 	cmnvc	r2, #482344960	; 0x1cc00000
     f64:	6c696d2f 	stclvs	13, cr6, [r9], #-188	; 0xffffff44
     f68:	532f7365 			; <UNDEFINED> instruction: 0x532f7365
     f6c:	6372756f 	cmnvs	r2, #465567744	; 0x1bc00000
     f70:	73632f65 	cmnvc	r3, #404	; 0x194
     f74:	6c303432 	cfldrsvs	mvf3, [r0], #-200	; 0xffffff38
     f78:	696c2f78 	stmdbvs	ip!, {r3, r4, r5, r6, r8, r9, sl, fp, sp}^
     f7c:	2f697062 	svccs	0x00697062
     f80:	6c636e69 	stclvs	14, cr6, [r3], #-420	; 0xfffffe5c
     f84:	00656475 	rsbeq	r6, r5, r5, ror r4
     f88:	62657200 	rsbvs	r7, r5, #0, 4
     f8c:	2e746f6f 	cdpcs	15, 7, cr6, cr4, cr15, {3}
     f90:	00010063 	andeq	r0, r1, r3, rrx
     f94:	69707200 	ldmdbvs	r0!, {r9, ip, sp, lr}^
     f98:	0200682e 	andeq	r6, r0, #3014656	; 0x2e0000
     f9c:	05000000 	streq	r0, [r0, #-0]
     fa0:	02050019 	andeq	r0, r5, #25, 0
     fa4:	00008b88 	andeq	r8, r0, r8, lsl #23
     fa8:	05010d03 	streq	r0, [r1, #-3331]	; 0xfffff2fd
     fac:	31131305 	tstcc	r3, r5, lsl #6
     fb0:	01061305 	tsteq	r6, r5, lsl #6
     fb4:	052f0105 	streq	r0, [pc, #-261]!	; eb7 <__code_start__-0x7149>
     fb8:	0585061b 	streq	r0, [r5, #1563]	; 0x61b
     fbc:	05141305 	ldreq	r1, [r4, #-773]	; 0xfffffcfb
     fc0:	16052f09 	strne	r2, [r5], -r9, lsl #30
     fc4:	0e050106 	adfeqs	f0, f5, f6
     fc8:	0605052e 	streq	r0, [r5], -lr, lsr #10
     fcc:	0601052f 	streq	r0, [r1], -pc, lsr #10
     fd0:	0617052f 	ldreq	r0, [r7], -pc, lsr #10
     fd4:	2f050530 	svccs	0x00050530
     fd8:	01060805 	tsteq	r6, r5, lsl #16
     fdc:	052e0705 	streq	r0, [lr, #-1797]!	; 0xfffff8fb
     fe0:	30500605 	subscc	r0, r0, r5, lsl #12
     fe4:	13134d2f 	tstne	r3, #3008	; 0xbc0
     fe8:	00671513 	rsbeq	r1, r7, r3, lsl r5
     fec:	67010402 	strvs	r0, [r1, -r2, lsl #8]
     ff0:	02000d05 	andeq	r0, r0, #320	; 0x140
     ff4:	05010104 	streq	r0, [r1, #-260]	; 0xfffffefc
     ff8:	0402000a 	streq	r0, [r2], #-10
     ffc:	09050101 	stmdbeq	r5, {r0, r8}
    1000:	022e6d03 	eoreq	r6, lr, #192	; 0xc0
    1004:	0101000c 	tsteq	r1, ip
    1008:	000000d4 	ldrdeq	r0, [r0], -r4
    100c:	005d0003 	subseq	r0, sp, r3
    1010:	01020000 	mrseq	r0, (UNDEF: 2)
    1014:	000d0efb 	strdeq	r0, [sp], -fp
    1018:	01010101 	tsteq	r1, r1, lsl #2
    101c:	01000000 	mrseq	r0, (UNDEF: 0)
    1020:	2e010000 	cdpcs	0, 0, cr0, cr1, cr0, {0}
    1024:	6174732f 	cmnvs	r4, pc, lsr #6
    1028:	732d6666 			; <UNDEFINED> instruction: 0x732d6666
    102c:	2f006372 	svccs	0x00006372
    1030:	72657355 	rsbvc	r7, r5, #1409286145	; 0x54000001
    1034:	696d2f73 	stmdbvs	sp!, {r0, r1, r4, r5, r6, r8, r9, sl, fp, sp}^
    1038:	2f73656c 	svccs	0x0073656c
    103c:	72756f53 	rsbsvc	r6, r5, #332	; 0x14c
    1040:	632f6563 			; <UNDEFINED> instruction: 0x632f6563
    1044:	30343273 	eorscc	r3, r4, r3, ror r2
    1048:	6c2f786c 	stcvs	8, cr7, [pc], #-432	; ea0 <__code_start__-0x7160>
    104c:	69706269 	ldmdbvs	r0!, {r0, r3, r5, r6, r9, sp, lr}^
    1050:	636e692f 	cmnvs	lr, #770048	; 0xbc000
    1054:	6564756c 	strbvs	r7, [r4, #-1388]!	; 0xfffffa94
    1058:	69740000 	ldmdbvs	r4!, {}^	; <UNPREDICTABLE>
    105c:	2e72656d 	cdpcs	5, 7, cr6, cr2, cr13, {3}
    1060:	00010063 	andeq	r0, r1, r3, rrx
    1064:	69707200 	ldmdbvs	r0!, {r9, ip, sp, lr}^
    1068:	0200682e 	andeq	r6, r0, #3014656	; 0x2e0000
    106c:	05000000 	streq	r0, [r0, #-0]
    1070:	02050023 	andeq	r0, r5, #35, 0	; 0x23
    1074:	00008c08 	andeq	r8, r0, r8, lsl #24
    1078:	2f050515 	svccs	0x00050515
    107c:	01060c05 	tsteq	r6, r5, lsl #24
    1080:	054b0105 	strbeq	r0, [fp, #-261]	; 0xfffffefb
    1084:	054d061f 	strbeq	r0, [sp, #-1567]	; 0xfffff9e1
    1088:	052f3105 	streq	r3, [pc, #-261]!	; f8b <__code_start__-0x7075>
    108c:	05010612 	streq	r0, [r1, #-1554]	; 0xfffff9ee
    1090:	2f4b0605 	svccs	0x004b0605
    1094:	13060105 	movwne	r0, #24837	; 0x6105
    1098:	4c061c05 	stcmi	12, cr1, [r6], {5}
    109c:	05050106 	streq	r0, [r5, #-262]	; 0xfffffefa
    10a0:	13054b06 	movwne	r4, #23302	; 0x5b06
    10a4:	052e0106 	streq	r0, [lr, #-262]!	; 0xfffffefa
    10a8:	052f0605 	streq	r0, [pc, #-1541]!	; aab <__code_start__-0x7555>
    10ac:	17051309 	strne	r1, [r5, -r9, lsl #6]
    10b0:	09050106 	stmdbeq	r5, {r1, r2, r8}
    10b4:	11052f06 	tstne	r5, r6, lsl #30
    10b8:	0c050106 	stfeqs	f0, [r5], {6}
    10bc:	061c052e 	ldreq	r0, [ip], -lr, lsr #10
    10c0:	0501066b 	streq	r0, [r1, #-1643]	; 0xfffff995
    10c4:	062f0605 	strteq	r0, [pc], -r5, lsl #12
    10c8:	4b01054a 	blmi	425f8 <__bss_end__+0x39048>
    10cc:	2f061e05 	svccs	0x00061e05
    10d0:	05050106 	streq	r0, [r5, #-262]	; 0xfffffefa
    10d4:	4a062f06 	bmi	18ccf4 <__bss_end__+0x183744>
    10d8:	024b0105 	subeq	r0, fp, #1073741825	; 0x40000001
    10dc:	01010002 	tsteq	r1, r2
    10e0:	00000204 	andeq	r0, r0, r4, lsl #4
    10e4:	00c80003 	sbceq	r0, r8, r3
    10e8:	01020000 	mrseq	r0, (UNDEF: 2)
    10ec:	000d0efb 	strdeq	r0, [sp], -fp
    10f0:	01010101 	tsteq	r1, r1, lsl #2
    10f4:	01000000 	mrseq	r0, (UNDEF: 0)
    10f8:	2f010000 	svccs	0x00010000
    10fc:	656d6f68 	strbvs	r6, [sp, #-3944]!	; 0xfffff098
    1100:	676e652f 	strbvs	r6, [lr, -pc, lsr #10]!
    1104:	2f72656c 	svccs	0x0072656c
    1108:	73616c63 	cmnvc	r1, #25344	; 0x6300
    110c:	73632f73 	cmnvc	r3, #460	; 0x1cc
    1110:	65303431 	ldrvs	r3, [r0, #-1073]!	; 0xfffffbcf
    1114:	7732322d 	ldrvc	r3, [r2, -sp, lsr #4]!
    1118:	2f2f6e69 	svccs	0x002f6e69
    111c:	7062696c 	rsbvc	r6, r2, ip, ror #18
    1120:	6e692f69 	cdpvs	15, 6, cr2, cr9, cr9, {3}
    1124:	64756c63 	ldrbtvs	r6, [r5], #-3171	; 0xfffff39d
    1128:	752f0065 	strvc	r0, [pc, #-101]!	; 10cb <__code_start__-0x6f35>
    112c:	732f7273 			; <UNDEFINED> instruction: 0x732f7273
    1130:	65726168 	ldrbvs	r6, [r2, #-360]!	; 0xfffffe98
    1134:	6363672f 	cmnvs	r3, #12320768	; 0xbc0000
    1138:	6d72612d 	ldfvse	f6, [r2, #-180]!	; 0xffffff4c
    113c:	6e6f6e2d 	cdpvs	14, 6, cr6, cr15, cr13, {1}
    1140:	61652d65 	cmnvs	r5, r5, ror #26
    1144:	312d6962 			; <UNDEFINED> instruction: 0x312d6962
    1148:	2d332e30 	ldccs	14, cr2, [r3, #-192]!	; 0xffffff40
    114c:	31323032 	teqcc	r2, r2, lsr r0
    1150:	2f30312e 	svccs	0x0030312e
    1154:	2f62696c 	svccs	0x0062696c
    1158:	2f636367 	svccs	0x00636367
    115c:	2d6d7261 	sfmcs	f7, 2, [sp, #-388]!	; 0xfffffe7c
    1160:	656e6f6e 	strbvs	r6, [lr, #-3950]!	; 0xfffff092
    1164:	6261652d 	rsbvs	r6, r1, #188743680	; 0xb400000
    1168:	30312f69 	eorscc	r2, r1, r9, ror #30
    116c:	312e332e 			; <UNDEFINED> instruction: 0x312e332e
    1170:	636e692f 	cmnvs	lr, #770048	; 0xbc000
    1174:	6564756c 	strbvs	r7, [r4, #-1388]!	; 0xfffffa94
    1178:	61750000 	cmnvs	r5, r0
    117c:	632e7472 			; <UNDEFINED> instruction: 0x632e7472
    1180:	00000000 	andeq	r0, r0, r0
    1184:	74726175 	ldrbtvc	r6, [r2], #-373	; 0xfffffe8b
    1188:	0100682e 	tsteq	r0, lr, lsr #16
    118c:	70720000 	rsbsvc	r0, r2, r0
    1190:	00682e69 	rsbeq	r2, r8, r9, ror #28
    1194:	67000001 	strvs	r0, [r0, -r1]
    1198:	2e6f6970 			; <UNDEFINED> instruction: 0x2e6f6970
    119c:	00010068 	andeq	r0, r1, r8, rrx
    11a0:	64747300 	ldrbtvs	r7, [r4], #-768	; 0xfffffd00
    11a4:	2d746e69 	ldclcs	14, cr6, [r4, #-420]!	; 0xfffffe5c
    11a8:	2e636367 	cdpcs	3, 6, cr6, cr3, cr7, {3}
    11ac:	00020068 	andeq	r0, r2, r8, rrx
    11b0:	39050000 	stmdbcc	r5, {}	; <UNPREDICTABLE>
    11b4:	8c020500 	cfstr32hi	mvfx0, [r2], {-0}
    11b8:	0300008c 	movweq	r0, #140	; 0x8c
    11bc:	01060130 	tsteq	r6, r0, lsr r1
    11c0:	67060505 	strvs	r0, [r6, -r5, lsl #10]
    11c4:	01061105 	tsteq	r6, r5, lsl #2
    11c8:	052e0505 	streq	r0, [lr, #-1285]!	; 0xfffffafb
    11cc:	38056701 	stmdacc	r5, {r0, r8, r9, sl, sp, lr}
    11d0:	01062906 	tsteq	r6, r6, lsl #18
    11d4:	67060505 	strvs	r0, [r6, -r5, lsl #10]
    11d8:	01061105 	tsteq	r6, r5, lsl #2
    11dc:	052e0505 	streq	r0, [lr, #-1285]!	; 0xfffffafb
    11e0:	16056701 	strne	r6, [r5], -r1, lsl #14
    11e4:	2e150306 	cdpcs	3, 1, cr0, cr5, cr6, {0}
    11e8:	67350505 	ldrvs	r0, [r5, -r5, lsl #10]!
    11ec:	03683568 	cmneq	r8, #104, 10	; 0x1a000000
    11f0:	6b852e0c 	blvs	fe14ca28 <__bss_end__+0xfe143478>
    11f4:	0c036969 			; <UNDEFINED> instruction: 0x0c036969
    11f8:	676b1366 	strbvs	r1, [fp, -r6, ror #6]!
    11fc:	2f060105 	svccs	0x00060105
    1200:	08061905 	stmdaeq	r6, {r0, r2, r8, fp, ip}
    1204:	34050525 	strcc	r0, [r5], #-1317	; 0xfffffadb
    1208:	01060d05 	tsteq	r6, r5, lsl #26
    120c:	054c0105 	strbeq	r0, [ip, #-261]	; 0xfffffefb
    1210:	05670619 	strbeq	r0, [r7, #-1561]!	; 0xfffff9e7
    1214:	0d053605 	stceq	6, cr3, [r5, #-20]	; 0xffffffec
    1218:	28050106 	stmdacs	r5, {r1, r2, r8}
    121c:	3001054a 	andcc	r0, r1, sl, asr #10
    1220:	87061505 	strhi	r1, [r6, -r5, lsl #10]
    1224:	2f2f0505 	svccs	0x002f0505
    1228:	02000905 	andeq	r0, r0, #81920	; 0x14000
    122c:	05130104 	ldreq	r0, [r3, #-260]	; 0xfffffefc
    1230:	0402000a 	streq	r0, [r2], #-10
    1234:	0c051101 	stfeqs	f1, [r5], {1}
    1238:	01040200 	mrseq	r0, R12_usr
    123c:	0a050106 	beq	14165c <__bss_end__+0x1380ac>
    1240:	01040200 	mrseq	r0, R12_usr
    1244:	0605052e 	streq	r0, [r5], -lr, lsr #10
    1248:	060e054c 	streq	r0, [lr], -ip, asr #10
    124c:	4a090501 	bmi	242658 <__bss_end__+0x2390a8>
    1250:	2f060505 	svccs	0x00060505
    1254:	0601052f 	streq	r0, [r1], -pc, lsr #10
    1258:	061c0513 			; <UNDEFINED> instruction: 0x061c0513
    125c:	05010667 	streq	r0, [r1, #-1639]	; 0xfffff999
    1260:	2f4b0605 	svccs	0x004b0605
    1264:	02000905 	andeq	r0, r0, #81920	; 0x14000
    1268:	05130104 	ldreq	r0, [r3, #-260]	; 0xfffffefc
    126c:	0402000a 	streq	r0, [r2], #-10
    1270:	0c051101 	stfeqs	f1, [r5], {1}
    1274:	01040200 	mrseq	r0, R12_usr
    1278:	0a050106 	beq	141698 <__bss_end__+0x1380e8>
    127c:	01040200 	mrseq	r0, R12_usr
    1280:	0605052e 	streq	r0, [r5], -lr, lsr #10
    1284:	0105674c 	tsteq	r5, ip, asr #14
    1288:	19052f06 	stmdbne	r5, {r1, r2, r8, r9, sl, fp, sp}
    128c:	1b054c06 	blne	1542ac <__bss_end__+0x14acfc>
    1290:	2e2a052e 	cfsh64cs	mvdx0, mvdx10, #30
    1294:	01063105 	tsteq	r6, r5, lsl #2
    1298:	052e4205 	streq	r4, [lr, #-517]!	; 0xfffffdfb
    129c:	0531061c 	ldreq	r0, [r1, #-1564]!	; 0xfffff9e4
    12a0:	09032f05 	stmdbeq	r3, {r0, r2, r8, r9, sl, fp, sp}
    12a4:	060e052e 	streq	r0, [lr], -lr, lsr #10
    12a8:	4a210501 	bmi	8426b4 <__bss_end__+0x839104>
    12ac:	0a030105 	beq	c16c8 <__bss_end__+0xb8118>
    12b0:	061a052e 	ldreq	r0, [sl], -lr, lsr #10
    12b4:	00090568 	andeq	r0, r9, r8, ror #10
    12b8:	30010402 	andcc	r0, r1, r2, lsl #8
    12bc:	02000a05 	andeq	r0, r0, #20480	; 0x5000
    12c0:	05110104 	ldreq	r0, [r1, #-260]	; 0xfffffefc
    12c4:	0402000c 	streq	r0, [r2], #-12
    12c8:	05010601 	streq	r0, [r1, #-1537]	; 0xfffff9ff
    12cc:	0402000a 	streq	r0, [r2], #-10
    12d0:	19052e01 	stmdbne	r5, {r0, r9, sl, fp, sp}
    12d4:	7ee80306 	cdpvc	3, 14, cr0, cr8, cr6, {0}
    12d8:	2f050566 	svccs	0x00050566
    12dc:	05672f2f 	strbeq	r2, [r7, #-3887]!	; 0xfffff0d1
    12e0:	022f0601 	eoreq	r0, pc, #1048576	; 0x100000
    12e4:	01010004 	tsteq	r1, r4
    12e8:	00000098 	muleq	r0, r8, r0
    12ec:	005a0003 	subseq	r0, sl, r3
    12f0:	01020000 	mrseq	r0, (UNDEF: 2)
    12f4:	000d0efb 	strdeq	r0, [sp], -fp
    12f8:	01010101 	tsteq	r1, r1, lsl #2
    12fc:	01000000 	mrseq	r0, (UNDEF: 0)
    1300:	2e010000 	cdpcs	0, 0, cr0, cr1, cr0, {0}
    1304:	62696c2f 	rsbvs	r6, r9, #12032	; 0x2f00
    1308:	552f0063 	strpl	r0, [pc, #-99]!	; 12ad <__code_start__-0x6d53>
    130c:	73726573 	cmnvc	r2, #482344960	; 0x1cc00000
    1310:	6c696d2f 	stclvs	13, cr6, [r9], #-188	; 0xffffff44
    1314:	532f7365 			; <UNDEFINED> instruction: 0x532f7365
    1318:	6372756f 	cmnvs	r2, #465567744	; 0x1bc00000
    131c:	73632f65 	cmnvc	r3, #404	; 0x194
    1320:	6c303432 	cfldrsvs	mvf3, [r0], #-200	; 0xffffff38
    1324:	696c2f78 	stmdbvs	ip!, {r3, r4, r5, r6, r8, r9, sl, fp, sp}^
    1328:	2f697062 	svccs	0x00697062
    132c:	6c636e69 	stclvs	14, cr6, [r3], #-420	; 0xfffffe5c
    1330:	00656475 	rsbeq	r6, r5, r5, ror r4
    1334:	74757000 	ldrbtvc	r7, [r5], #-0
    1338:	72616863 	rsbvc	r6, r1, #6488064	; 0x630000
    133c:	0100632e 	tsteq	r0, lr, lsr #6
    1340:	70720000 	rsbsvc	r0, r2, r0
    1344:	00682e69 	rsbeq	r2, r8, r9, ror #28
    1348:	00000002 	andeq	r0, r0, r2
    134c:	05002405 	streq	r2, [r0, #-1029]	; 0xfffffbfb
    1350:	008e7c02 	addeq	r7, lr, r2, lsl #24
    1354:	01061400 	tsteq	r6, r0, lsl #8
    1358:	4a062605 	bmi	18ab74 <__bss_end__+0x1815c4>
    135c:	052e3405 	streq	r3, [lr, #-1029]!	; 0xfffffbfb
    1360:	05010601 	streq	r0, [r1, #-1537]	; 0xfffff9ff
    1364:	054f061b 	strbeq	r0, [pc, #-1563]	; d51 <__code_start__-0x72af>
    1368:	11051305 	tstne	r5, r5, lsl #6
    136c:	01050106 	tsteq	r5, r6, lsl #2
    1370:	06230567 	strteq	r0, [r3], -r7, ror #10
    1374:	13050567 	movwne	r0, #21863	; 0x5567
    1378:	01061105 	tsteq	r6, r5, lsl #2
    137c:	024b0105 	subeq	r0, fp, #1073741825	; 0x40000001
    1380:	01010004 	tsteq	r1, r4
    1384:	000000e4 	andeq	r0, r0, r4, ror #1
    1388:	00590003 	subseq	r0, r9, r3
    138c:	01020000 	mrseq	r0, (UNDEF: 2)
    1390:	000d0efb 	strdeq	r0, [sp], -fp
    1394:	01010101 	tsteq	r1, r1, lsl #2
    1398:	01000000 	mrseq	r0, (UNDEF: 0)
    139c:	2e010000 	cdpcs	0, 0, cr0, cr1, cr0, {0}
    13a0:	62696c2f 	rsbvs	r6, r9, #12032	; 0x2f00
    13a4:	552f0063 	strpl	r0, [pc, #-99]!	; 1349 <__code_start__-0x6cb7>
    13a8:	73726573 	cmnvc	r2, #482344960	; 0x1cc00000
    13ac:	6c696d2f 	stclvs	13, cr6, [r9], #-188	; 0xffffff44
    13b0:	532f7365 			; <UNDEFINED> instruction: 0x532f7365
    13b4:	6372756f 	cmnvs	r2, #465567744	; 0x1bc00000
    13b8:	73632f65 	cmnvc	r3, #404	; 0x194
    13bc:	6c303432 	cfldrsvs	mvf3, [r0], #-200	; 0xffffff38
    13c0:	696c2f78 	stmdbvs	ip!, {r3, r4, r5, r6, r8, r9, sl, fp, sp}^
    13c4:	2f697062 	svccs	0x00697062
    13c8:	6c636e69 	stclvs	14, cr6, [r3], #-420	; 0xfffffe5c
    13cc:	00656475 	rsbeq	r6, r5, r5, ror r4
    13d0:	72747300 	rsbsvc	r7, r4, #0, 6
    13d4:	2e746163 	rpwcssz	f6, f4, f3
    13d8:	00010063 	andeq	r0, r1, r3, rrx
    13dc:	69707200 	ldmdbvs	r0!, {r9, ip, sp, lr}^
    13e0:	0200682e 	andeq	r6, r0, #3014656	; 0x2e0000
    13e4:	05000000 	streq	r0, [r0, #-0]
    13e8:	0205002c 	andeq	r0, r5, #44, 0	; 0x2c
    13ec:	00008eb8 			; <UNDEFINED> instruction: 0x00008eb8
    13f0:	13050515 	movwne	r0, #21781	; 0x5515
    13f4:	060b0513 			; <UNDEFINED> instruction: 0x060b0513
    13f8:	00050511 	andeq	r0, r5, r1, lsl r5
    13fc:	06010402 	streq	r0, [r1], -r2, lsl #8
    1400:	04020030 	streq	r0, [r2], #-48	; 0xffffffd0
    1404:	09051501 	stmdbeq	r5, {r0, r8, sl, ip}
    1408:	01040200 	mrseq	r0, R12_usr
    140c:	00100513 	andseq	r0, r0, r3, lsl r5
    1410:	06010402 	streq	r0, [r1], -r2, lsl #8
    1414:	000b052e 	andeq	r0, fp, lr, lsr #10
    1418:	2e010402 	cdpcs	4, 0, cr0, cr1, cr2, {0}
    141c:	01040200 	mrseq	r0, R12_usr
    1420:	05052f06 	streq	r2, [r5, #-3846]	; 0xfffff0fa
    1424:	01040200 	mrseq	r0, R12_usr
    1428:	4e060106 	adfmis	f0, f6, f6
    142c:	01060805 	tsteq	r6, r5, lsl #16
    1430:	02000505 	andeq	r0, r0, #20971520	; 0x1400000
    1434:	2f060104 	svccs	0x00060104
    1438:	02000905 	andeq	r0, r0, #81920	; 0x14000
    143c:	05130104 	ldreq	r0, [r3, #-260]	; 0xfffffefc
    1440:	0402000b 	streq	r0, [r2], #-11
    1444:	05010601 	streq	r0, [r1, #-1537]	; 0xfffff9ff
    1448:	04020009 	streq	r0, [r2], #-9
    144c:	054b0601 	strbeq	r0, [fp, #-1537]	; 0xfffff9ff
    1450:	0402000f 	streq	r0, [r2], #-15
    1454:	05010601 	streq	r0, [r1, #-1537]	; 0xfffff9ff
    1458:	0402000d 	streq	r0, [r2], #-13
    145c:	052f0601 	streq	r0, [pc, #-1537]!	; e63 <__code_start__-0x719d>
    1460:	04020005 	streq	r0, [r2], #-5
    1464:	02010601 	andeq	r0, r1, #1048576	; 0x100000
    1468:	01010006 	tsteq	r1, r6
    146c:	0000009d 	muleq	r0, sp, r0
    1470:	00590003 	subseq	r0, r9, r3
    1474:	01020000 	mrseq	r0, (UNDEF: 2)
    1478:	000d0efb 	strdeq	r0, [sp], -fp
    147c:	01010101 	tsteq	r1, r1, lsl #2
    1480:	01000000 	mrseq	r0, (UNDEF: 0)
    1484:	2e010000 	cdpcs	0, 0, cr0, cr1, cr0, {0}
    1488:	62696c2f 	rsbvs	r6, r9, #12032	; 0x2f00
    148c:	552f0063 	strpl	r0, [pc, #-99]!	; 1431 <__code_start__-0x6bcf>
    1490:	73726573 	cmnvc	r2, #482344960	; 0x1cc00000
    1494:	6c696d2f 	stclvs	13, cr6, [r9], #-188	; 0xffffff44
    1498:	532f7365 			; <UNDEFINED> instruction: 0x532f7365
    149c:	6372756f 	cmnvs	r2, #465567744	; 0x1bc00000
    14a0:	73632f65 	cmnvc	r3, #404	; 0x194
    14a4:	6c303432 	cfldrsvs	mvf3, [r0], #-200	; 0xffffff38
    14a8:	696c2f78 	stmdbvs	ip!, {r3, r4, r5, r6, r8, r9, sl, fp, sp}^
    14ac:	2f697062 	svccs	0x00697062
    14b0:	6c636e69 	stclvs	14, cr6, [r3], #-420	; 0xfffffe5c
    14b4:	00656475 	rsbeq	r6, r5, r5, ror r4
    14b8:	72747300 	rsbsvc	r7, r4, #0, 6
    14bc:	2e706d63 	cdpcs	13, 7, cr6, cr0, cr3, {3}
    14c0:	00010063 	andeq	r0, r1, r3, rrx
    14c4:	69707200 	ldmdbvs	r0!, {r9, ip, sp, lr}^
    14c8:	0200682e 	andeq	r6, r0, #3014656	; 0x2e0000
    14cc:	05000000 	streq	r0, [r0, #-0]
    14d0:	0205002a 	andeq	r0, r5, #42, 0	; 0x2a
    14d4:	00008eec 	andeq	r8, r0, ip, ror #29
    14d8:	13090514 	movwne	r0, #38164	; 0x9514
    14dc:	05010f05 	streq	r0, [r1, #-3845]	; 0xfffff0fb
    14e0:	05010610 	streq	r0, [r1, #-1552]	; 0xfffff9f0
    14e4:	1c052e0f 	stcne	14, cr2, [r5], {15}
    14e8:	01040200 	mrseq	r0, R12_usr
    14ec:	0013054a 	andseq	r0, r3, sl, asr #10
    14f0:	2e010402 	cdpcs	4, 0, cr0, cr1, cr2, {0}
    14f4:	2f061105 	svccs	0x00061105
    14f8:	2e061605 	cfmadd32cs	mvax0, mvfx1, mvfx6, mvfx5
    14fc:	0609052e 	streq	r0, [r9], -lr, lsr #10
    1500:	0615052f 	ldreq	r0, [r5], -pc, lsr #10
    1504:	2f010501 	svccs	0x00010501
    1508:	01000402 	tsteq	r0, r2, lsl #8
    150c:	00009b01 	andeq	r9, r0, r1, lsl #22
    1510:	59000300 	stmdbpl	r0, {r8, r9}
    1514:	02000000 	andeq	r0, r0, #0, 0
    1518:	0d0efb01 	vstreq	d15, [lr, #-4]
    151c:	01010100 	mrseq	r0, (UNDEF: 17)
    1520:	00000001 	andeq	r0, r0, r1
    1524:	01000001 	tsteq	r0, r1
    1528:	696c2f2e 	stmdbvs	ip!, {r1, r2, r3, r5, r8, r9, sl, fp, sp}^
    152c:	2f006362 	svccs	0x00006362
    1530:	72657355 	rsbvc	r7, r5, #1409286145	; 0x54000001
    1534:	696d2f73 	stmdbvs	sp!, {r0, r1, r4, r5, r6, r8, r9, sl, fp, sp}^
    1538:	2f73656c 	svccs	0x0073656c
    153c:	72756f53 	rsbsvc	r6, r5, #332	; 0x14c
    1540:	632f6563 			; <UNDEFINED> instruction: 0x632f6563
    1544:	30343273 	eorscc	r3, r4, r3, ror r2
    1548:	6c2f786c 	stcvs	8, cr7, [pc], #-432	; 13a0 <__code_start__-0x6c60>
    154c:	69706269 	ldmdbvs	r0!, {r0, r3, r5, r6, r9, sp, lr}^
    1550:	636e692f 	cmnvs	lr, #770048	; 0xbc000
    1554:	6564756c 	strbvs	r7, [r4, #-1388]!	; 0xfffffa94
    1558:	74730000 	ldrbtvc	r0, [r3], #-0
    155c:	79706372 	ldmdbvc	r0!, {r1, r4, r5, r6, r8, r9, sp, lr}^
    1560:	0100632e 	tsteq	r0, lr, lsr #6
    1564:	70720000 	rsbsvc	r0, r2, r0
    1568:	00682e69 	rsbeq	r2, r8, r9, ror #28
    156c:	00000002 	andeq	r0, r0, r2
    1570:	05002a05 	streq	r2, [r0, #-2565]	; 0xfffff5fb
    1574:	008f1802 	addeq	r1, pc, r2, lsl #16
    1578:	05051400 	streq	r1, [r5, #-1024]	; 0xfffffc00
    157c:	14051313 	strne	r1, [r5], #-787	; 0xfffffced
    1580:	22051106 	andcs	r1, r5, #-2147483647	; 0x80000001
    1584:	01040200 	mrseq	r0, R12_usr
    1588:	0b052f06 	bleq	14d1a8 <__bss_end__+0x143bf8>
    158c:	01040200 	mrseq	r0, R12_usr
    1590:	00150501 	andseq	r0, r5, r1, lsl #10
    1594:	06010402 	streq	r0, [r1], -r2, lsl #8
    1598:	00130501 	andseq	r0, r3, r1, lsl #10
    159c:	4a010402 	bmi	425ac <__bss_end__+0x38ffc>
    15a0:	02000b05 	andeq	r0, r0, #5120	; 0x1400
    15a4:	024a0104 	subeq	r0, sl, #1
    15a8:	01010006 	tsteq	r1, r6
    15ac:	000000fe 	strdeq	r0, [r0], -lr
    15b0:	00c20003 	sbceq	r0, r2, r3
    15b4:	01020000 	mrseq	r0, (UNDEF: 2)
    15b8:	000d0efb 	strdeq	r0, [sp], -fp
    15bc:	01010101 	tsteq	r1, r1, lsl #2
    15c0:	01000000 	mrseq	r0, (UNDEF: 0)
    15c4:	2e010000 	cdpcs	0, 0, cr0, cr1, cr0, {0}
    15c8:	62696c2f 	rsbvs	r6, r9, #12032	; 0x2f00
    15cc:	552f0063 	strpl	r0, [pc, #-99]!	; 1571 <__code_start__-0x6a8f>
    15d0:	73726573 	cmnvc	r2, #482344960	; 0x1cc00000
    15d4:	6c696d2f 	stclvs	13, cr6, [r9], #-188	; 0xffffff44
    15d8:	532f7365 			; <UNDEFINED> instruction: 0x532f7365
    15dc:	6372756f 	cmnvs	r2, #465567744	; 0x1bc00000
    15e0:	73632f65 	cmnvc	r3, #404	; 0x194
    15e4:	6c303432 	cfldrsvs	mvf3, [r0], #-200	; 0xffffff38
    15e8:	696c2f78 	stmdbvs	ip!, {r3, r4, r5, r6, r8, r9, sl, fp, sp}^
    15ec:	2f697062 	svccs	0x00697062
    15f0:	6c636e69 	stclvs	14, cr6, [r3], #-420	; 0xfffffe5c
    15f4:	00656475 	rsbeq	r6, r5, r5, ror r4
    15f8:	74706f2f 	ldrbtvc	r6, [r0], #-3887	; 0xfffff0d1
    15fc:	6d6f682f 	stclvs	8, cr6, [pc, #-188]!	; 1548 <__code_start__-0x6ab8>
    1600:	65726265 	ldrbvs	r6, [r2, #-613]!	; 0xfffffd9b
    1604:	65432f77 	strbvs	r2, [r3, #-3959]	; 0xfffff089
    1608:	72616c6c 	rsbvc	r6, r1, #108, 24	; 0x6c00
    160c:	6d72612f 	ldfvse	f6, [r2, #-188]!	; 0xffffff44
    1610:	6e6f6e2d 	cdpvs	14, 6, cr6, cr15, cr13, {1}
    1614:	61652d65 	cmnvs	r5, r5, ror #26
    1618:	742d6962 	strtvc	r6, [sp], #-2402	; 0xfffff69e
    161c:	2f747365 	svccs	0x00747365
    1620:	30322d39 	eorscc	r2, r2, r9, lsr sp
    1624:	34713931 	ldrbtcc	r3, [r1], #-2353	; 0xfffff6cf
    1628:	3173632d 	cmncc	r3, sp, lsr #6
    162c:	2f653730 	svccs	0x00653730
    1630:	2f62696c 	svccs	0x0062696c
    1634:	2f636367 	svccs	0x00636367
    1638:	2d6d7261 	sfmcs	f7, 2, [sp, #-388]!	; 0xfffffe7c
    163c:	656e6f6e 	strbvs	r6, [lr, #-3950]!	; 0xfffff092
    1640:	6261652d 	rsbvs	r6, r1, #188743680	; 0xb400000
    1644:	2e392f69 	cdpcs	15, 3, cr2, cr9, cr9, {3}
    1648:	2f312e32 	svccs	0x00312e32
    164c:	6c636e69 	stclvs	14, cr6, [r3], #-420	; 0xfffffe5c
    1650:	00656475 	rsbeq	r6, r5, r5, ror r4
    1654:	72747300 	rsbsvc	r7, r4, #0, 6
    1658:	706d636e 	rsbvc	r6, sp, lr, ror #6
    165c:	0100632e 	tsteq	r0, lr, lsr #6
    1660:	70720000 	rsbsvc	r0, r2, r0
    1664:	00682e69 	rsbeq	r2, r8, r9, ror #28
    1668:	73000002 	movwvc	r0, #2
    166c:	65646474 	strbvs	r6, [r4, #-1140]!	; 0xfffffb8c
    1670:	00682e66 	rsbeq	r2, r8, r6, ror #28
    1674:	00000003 	andeq	r0, r0, r3
    1678:	05003905 	streq	r3, [r0, #-2309]	; 0xfffff6fb
    167c:	008f3802 	addeq	r3, pc, r2, lsl #16
    1680:	05051500 	streq	r1, [r5, #-1280]	; 0xfffffb00
    1684:	0a051313 	beq	1462d8 <__bss_end__+0x13cd28>
    1688:	4a010601 	bmi	42e94 <__bss_end__+0x398e4>
    168c:	2f060905 	svccs	0x00060905
    1690:	01060c05 	tsteq	r6, r5, lsl #24
    1694:	052e1305 	streq	r1, [lr, #-773]!	; 0xfffffcfb
    1698:	0d052e0b 	stceq	14, cr2, [r5, #-44]	; 0xffffffd4
    169c:	1b054b06 	blne	1542bc <__bss_end__+0x14ad0c>
    16a0:	052e0106 	streq	r0, [lr, #-262]!	; 0xfffffefa
    16a4:	0105300c 	tsteq	r5, ip
    16a8:	0002022f 	andeq	r0, r2, pc, lsr #4
    16ac:	008a0101 	addeq	r0, sl, r1, lsl #2
    16b0:	00030000 	andeq	r0, r3, r0
    16b4:	0000006e 	andeq	r0, r0, lr, rrx
    16b8:	0efb0102 	cdpeq	1, 15, cr0, cr11, cr2, {0}
    16bc:	0101000d 	tsteq	r1, sp
    16c0:	00000101 	andeq	r0, r0, r1, lsl #2
    16c4:	00000100 	andeq	r0, r0, r0, lsl #2
    16c8:	732f2e01 			; <UNDEFINED> instruction: 0x732f2e01
    16cc:	66666174 			; <UNDEFINED> instruction: 0x66666174
    16d0:	6372732d 	cmnvs	r2, #-1275068416	; 0xb4000000
    16d4:	73552f00 	cmpvc	r5, #0, 30
    16d8:	2f737265 	svccs	0x00737265
    16dc:	656c696d 	strbvs	r6, [ip, #-2413]!	; 0xfffff693
    16e0:	6f532f73 	svcvs	0x00532f73
    16e4:	65637275 	strbvs	r7, [r3, #-629]!	; 0xfffffd8b
    16e8:	3273632f 	rsbscc	r6, r3, #-1140850688	; 0xbc000000
    16ec:	786c3034 	stmdavc	ip!, {r2, r4, r5, ip, sp}^
    16f0:	62696c2f 	rsbvs	r6, r9, #12032	; 0x2f00
    16f4:	692f6970 	stmdbvs	pc!, {r4, r5, r6, r8, fp, sp, lr}	; <UNPREDICTABLE>
    16f8:	756c636e 	strbvc	r6, [ip, #-878]!	; 0xfffffc92
    16fc:	00006564 	andeq	r6, r0, r4, ror #10
    1700:	61666564 	cmnvs	r6, r4, ror #10
    1704:	2d746c75 	ldclcs	12, cr6, [r4, #-468]!	; 0xfffffe2c
    1708:	6f626572 	svcvs	0x00626572
    170c:	632d746f 			; <UNDEFINED> instruction: 0x632d746f
    1710:	6f6c6c61 	svcvs	0x006c6c61
    1714:	632e7475 			; <UNDEFINED> instruction: 0x632e7475
    1718:	00000100 	andeq	r0, r0, r0, lsl #2
    171c:	2e697072 	mcrcs	0, 3, r7, cr9, cr2, {3}
    1720:	00020068 	andeq	r0, r2, r8, rrx
    1724:	1b050000 	blne	14172c <__bss_end__+0x13817c>
    1728:	64020500 	strvs	r0, [r2], #-1280	; 0xfffffb00
    172c:	1400008f 	strne	r0, [r0], #-143	; 0xffffff71
    1730:	05011c05 	streq	r1, [r1, #-3077]	; 0xfffff3fb
    1734:	02010601 	andeq	r0, r1, #1048576	; 0x100000
    1738:	01010002 	tsteq	r1, r2

Disassembly of section .debug_str:

00000000 <.debug_str>:
   0:	6573552f 	ldrbvs	r5, [r3, #-1327]!	; 0xfffffad1
   4:	6d2f7372 	stcvs	3, cr7, [pc, #-456]!	; fffffe44 <__bss_end__+0xffff6894>
   8:	73656c69 	cmnvc	r5, #26880	; 0x6900
   c:	756f532f 	strbvc	r5, [pc, #-815]!	; fffffce5 <__bss_end__+0xffff6735>
  10:	2f656372 	svccs	0x00656372
  14:	34327363 	ldrtcc	r7, [r2], #-867	; 0xfffffc9d
  18:	2f786c30 	svccs	0x00786c30
  1c:	7362616c 	cmnvc	r2, #27
  20:	642d332f 	strtvs	r3, [sp], #-815	; 0xfffffcd1
  24:	74696769 	strbtvc	r6, [r9], #-1897	; 0xfffff897
  28:	612d6c61 			; <UNDEFINED> instruction: 0x612d6c61
  2c:	796c616e 	stmdbvc	ip!, {r1, r2, r3, r5, r6, r8, sp, lr}^
  30:	2f72657a 	svccs	0x0072657a
  34:	65646f63 	strbvs	r6, [r4, #-3939]!	; 0xfffff09d
  38:	6f63732f 	svcvs	0x0063732f
  3c:	73006570 	movwvc	r6, #1392	; 0x570
  40:	74726f68 	ldrbtvc	r6, [r2], #-3944	; 0xfffff098
  44:	746e6920 	strbtvc	r6, [lr], #-2336	; 0xfffff6e0
  48:	756f5f00 	strbvc	r5, [pc, #-3840]!	; fffff150 <__bss_end__+0xffff5ba0>
  4c:	70720074 	rsbsvc	r0, r2, r4, ror r0
  50:	75705f69 	ldrbvc	r5, [r0, #-3945]!	; 0xfffff097
  54:	61686374 	smcvs	34356	; 0x8634
  58:	63730072 	cmnvs	r3, #114, 0	; 0x72
  5c:	2e65706f 	cdpcs	0, 6, cr7, cr5, cr15, {3}
  60:	6c630063 	stclvs	0, cr0, [r3], #-396	; 0xfffffe74
  64:	5f6e6165 	svcpl	0x006e6165
  68:	6f626572 	svcvs	0x00626572
  6c:	7400746f 	strvc	r7, [r0], #-1135	; 0xfffffb91
  70:	655f746f 	ldrbvs	r7, [pc, #-1135]	; fffffc09 <__bss_end__+0xffff6659>
  74:	6c007272 	sfmvs	f7, 4, [r0], {114}	; 0x72
  78:	655f676f 	ldrbvs	r6, [pc, #-1903]	; fffff911 <__bss_end__+0xffff6361>
  7c:	745f746e 	ldrbvc	r7, [pc], #-1134	; 84 <__code_start__-0x7f7c>
  80:	65737500 	ldrbvs	r7, [r3, #-1280]!	; 0xfffffb00
  84:	6f745f63 	svcvs	0x00745f63
  88:	6379635f 	cmnvs	r9, #2080374785	; 0x7c000001
  8c:	6700656c 	strvs	r6, [r0, -ip, ror #10]
  90:	5f6f6970 	svcpl	0x006f6970
  94:	64616572 	strbtvs	r6, [r1], #-1394	; 0xfffffa8e
  98:	6e69705f 	mcrvs	0, 3, r7, cr9, cr15, {2}
  9c:	6e6f6c00 	cdpvs	12, 6, cr6, cr15, cr0, {0}
  a0:	6f6c2067 	svcvs	0x006c2067
  a4:	6920676e 	stmdbvs	r0!, {r1, r2, r3, r5, r6, r8, r9, sl, sp, lr}
  a8:	6d00746e 	cfstrsvs	mvf7, [r0, #-440]	; 0xfffffe48
  ac:	5f636573 	svcpl	0x00636573
  b0:	635f6f74 	cmpvs	pc, #116, 30	; 0x1d0
  b4:	656c6379 	strbvs	r6, [ip, #-889]!	; 0xfffffc87
  b8:	72657000 	rsbvc	r7, r5, #0, 0
  bc:	00646f69 	rsbeq	r6, r4, r9, ror #30
  c0:	55465f5f 	strbpl	r5, [r6, #-3935]	; 0xfffff0a1
  c4:	4954434e 	ldmdbmi	r4, {r1, r2, r3, r6, r8, r9, lr}^
  c8:	5f5f4e4f 	svcpl	0x005f4e4f
  cc:	79636e00 	stmdbvc	r3!, {r9, sl, fp, sp, lr}^
  d0:	6e650063 	cdpvs	0, 6, cr0, cr5, cr3, {3}
  d4:	656c6261 	strbvs	r6, [ip, #-609]!	; 0xfffffd9f
  d8:	6361635f 	cmnvs	r1, #2080374785	; 0x7c000001
  dc:	75006568 	strvc	r6, [r0, #-1384]	; 0xfffffa98
  e0:	6769736e 	strbvs	r7, [r9, -lr, ror #6]!
  e4:	2064656e 	rsbcs	r6, r4, lr, ror #10
  e8:	72616863 	rsbvc	r6, r1, #6488064	; 0x630000
  ec:	79636e00 	stmdbvc	r3!, {r9, sl, fp, sp, lr}^
  f0:	73656c63 	cmnvc	r5, #25344	; 0x6300
  f4:	6e6f6c00 	cdpvs	12, 6, cr6, cr15, cr0, {0}
  f8:	6f6c2067 	svcvs	0x006c2067
  fc:	7520676e 	strvc	r6, [r0, #-1902]!	; 0xfffff892
 100:	6769736e 	strbvs	r7, [r9, -lr, ror #6]!
 104:	2064656e 	rsbcs	r6, r4, lr, ror #10
 108:	00746e69 	rsbseq	r6, r4, r9, ror #28
 10c:	746e6975 	strbtvc	r6, [lr], #-2421	; 0xfffff68b
 110:	745f3233 	ldrbvc	r3, [pc], #-563	; 118 <__code_start__-0x7ee8>
 114:	746f6e00 	strbtvc	r6, [pc], #-3584	; 11c <__code_start__-0x7ee4>
 118:	6e69616d 	powvsez	f6, f1, #5.0
 11c:	6f687300 	svcvs	0x00687300
 120:	75207472 	strvc	r7, [r0, #-1138]!	; 0xfffffb8e
 124:	6769736e 	strbvs	r7, [r9, -lr, ror #6]!
 128:	2064656e 	rsbcs	r6, r4, lr, ror #10
 12c:	00746e69 	rsbseq	r6, r4, r9, ror #28
 130:	5f78616d 	svcpl	0x0078616d
 134:	6c637963 			; <UNDEFINED> instruction: 0x6c637963
 138:	47007365 	strmi	r7, [r0, -r5, ror #6]
 13c:	4320554e 			; <UNDEFINED> instruction: 0x4320554e
 140:	39203939 	stmdbcc	r0!, {r0, r3, r4, r5, r8, fp, ip, sp}
 144:	312e322e 			; <UNDEFINED> instruction: 0x312e322e
 148:	31303220 	teqcc	r0, r0, lsr #4
 14c:	32303139 	eorscc	r3, r0, #1073741838	; 0x4000000e
 150:	72282035 	eorvc	r2, r8, #53, 0	; 0x35
 154:	61656c65 	cmnvs	r5, r5, ror #24
 158:	20296573 	eorcs	r6, r9, r3, ror r5
 15c:	4d52415b 	ldfmie	f4, [r2, #-364]	; 0xfffffe94
 160:	6d72612f 	ldfvse	f6, [r2, #-188]!	; 0xffffff44
 164:	622d392d 	eorvs	r3, sp, #737280	; 0xb4000
 168:	636e6172 	cmnvs	lr, #-2147483620	; 0x8000001c
 16c:	65722068 	ldrbvs	r2, [r2, #-104]!	; 0xffffff98
 170:	69736976 	ldmdbvs	r3!, {r1, r2, r4, r5, r6, r8, fp, sp, lr}^
 174:	32206e6f 	eorcc	r6, r0, #1776	; 0x6f0
 178:	39353737 	ldmdbcc	r5!, {r0, r1, r2, r4, r5, r8, r9, sl, ip, sp}
 17c:	2d205d39 	stccs	13, cr5, [r0, #-228]!	; 0xffffff1c
 180:	7570636d 	ldrbvc	r6, [r0, #-877]!	; 0xfffffc93
 184:	6d72613d 	ldfvse	f6, [r2, #-244]!	; 0xffffff0c
 188:	36373131 			; <UNDEFINED> instruction: 0x36373131
 18c:	2d667a6a 	vstmdbcs	r6!, {s15-s120}
 190:	6d2d2073 	stcvs	0, cr2, [sp, #-460]!	; 0xfffffe34
 194:	656e7574 	strbvs	r7, [lr, #-1396]!	; 0xfffffa8c
 198:	6d72613d 	ldfvse	f6, [r2, #-244]!	; 0xffffff0c
 19c:	36373131 			; <UNDEFINED> instruction: 0x36373131
 1a0:	2d667a6a 	vstmdbcs	r6!, {s15-s120}
 1a4:	6d2d2073 	stcvs	0, cr2, [sp, #-460]!	; 0xfffffe34
 1a8:	616f6c66 	cmnvs	pc, r6, ror #24
 1ac:	62612d74 	rsbvs	r2, r1, #116, 26	; 0x1d00
 1b0:	6f733d69 	svcvs	0x00733d69
 1b4:	2d207466 	cfstrscs	mvf7, [r0, #-408]!	; 0xfffffe68
 1b8:	6d72616d 	ldfvse	f6, [r2, #-436]!	; 0xfffffe4c
 1bc:	616d2d20 	cmnvs	sp, r0, lsr #26
 1c0:	3d686372 	stclcc	3, cr6, [r8, #-456]!	; 0xfffffe38
 1c4:	766d7261 	strbtvc	r7, [sp], -r1, ror #4
 1c8:	207a6b36 	rsbscs	r6, sl, r6, lsr fp
 1cc:	6467672d 	strbtvs	r6, [r7], #-1837	; 0xfffff8d3
 1d0:	4f2d2062 	svcmi	0x002d2062
 1d4:	74736166 	ldrbtvc	r6, [r3], #-358	; 0xfffffe9a
 1d8:	74732d20 	ldrbtvc	r2, [r3], #-3360	; 0xfffff2e0
 1dc:	6e673d64 	cdpvs	13, 6, cr3, cr7, cr4, {3}
 1e0:	20393975 	eorscs	r3, r9, r5, ror r9
 1e4:	7266662d 	rsbvc	r6, r6, #47185920	; 0x2d00000
 1e8:	74736565 	ldrbtvc	r6, [r3], #-1381	; 0xfffffa9b
 1ec:	69646e61 	stmdbvs	r4!, {r0, r5, r6, r9, sl, fp, sp, lr}^
 1f0:	6400676e 	strvs	r6, [r0], #-1902	; 0xfffff892
 1f4:	5f706d75 	svcpl	0x00706d75
 1f8:	706d6173 	rsbvc	r6, sp, r3, ror r1
 1fc:	0073656c 	rsbseq	r6, r3, ip, ror #10
 200:	6f697067 	svcvs	0x00697067
 204:	76656c5f 			; <UNDEFINED> instruction: 0x76656c5f
 208:	6e650030 	mcrvs	0, 3, r0, cr5, cr0, {1}
 20c:	79635f64 	stmdbvc	r3!, {r2, r5, r6, r8, r9, sl, fp, ip, lr}^
 210:	6f635f63 	svcvs	0x00635f63
 214:	00746e75 	rsbseq	r6, r4, r5, ror lr
 218:	6f697067 	svcvs	0x00697067
 21c:	7465735f 	strbtvc	r7, [r5], #-863	; 0xfffffca1
 220:	706e695f 	rsbvc	r6, lr, pc, asr r9
 224:	70007475 	andvc	r7, r0, r5, ror r4
 228:	00766572 	rsbseq	r6, r6, r2, ror r5
 22c:	616d5f6e 	cmnvs	sp, lr, ror #30
 230:	70670078 	rsbvc	r0, r7, r8, ror r0
 234:	635f6f69 	cmpvs	pc, #420	; 0x1a4
 238:	0030726c 	eorseq	r7, r0, ip, ror #4
 23c:	6f697067 	svcvs	0x00697067
 240:	7465735f 	strbtvc	r7, [r5], #-863	; 0xfffffca1
 244:	70670030 	rsbvc	r0, r7, r0, lsr r0
 248:	775f6f69 	ldrbvc	r6, [pc, -r9, ror #30]
 24c:	65746972 	ldrbvs	r6, [r4, #-2418]!	; 0xfffff68e
 250:	49504700 	ldmdbmi	r0, {r8, r9, sl, lr}^
 254:	55465f4f 	strbpl	r5, [r6, #-3919]	; 0xfffff0b1
 258:	4f5f434e 	svcmi	0x005f434e
 25c:	55505455 	ldrbpl	r5, [r0, #-1109]	; 0xfffffbab
 260:	45440054 	strbmi	r0, [r4, #-84]	; 0xffffffac
 264:	41565f56 	cmpmi	r6, r6, asr pc
 268:	0032334c 	eorseq	r3, r2, ip, asr #6
 26c:	33545550 	cmpcc	r4, #80, 10	; 0x14000000
 270:	70670032 	rsbvc	r0, r7, r2, lsr r0
 274:	725f6f69 	subsvc	r6, pc, #420	; 0x1a4
 278:	00646165 	rsbeq	r6, r4, r5, ror #2
 27c:	33544547 	cmpcc	r4, #297795584	; 0x11c00000
 280:	50470032 	subpl	r0, r7, r2, lsr r0
 284:	465f4f49 	ldrbmi	r4, [pc], -r9, asr #30
 288:	5f434e55 	svcpl	0x00434e55
 28c:	30544c41 	subscc	r4, r4, r1, asr #24
 290:	49504700 	ldmdbmi	r0, {r8, r9, sl, lr}^
 294:	55465f4f 	strbpl	r5, [r6, #-3919]	; 0xfffff0b1
 298:	415f434e 	cmpmi	pc, lr, asr #6
 29c:	0031544c 	eorseq	r5, r1, ip, asr #8
 2a0:	4f495047 	svcmi	0x00495047
 2a4:	4e55465f 	mrcmi	6, 2, r4, cr5, cr15, {2}
 2a8:	4c415f43 	mcrrmi	15, 4, r5, r1, cr3
 2ac:	47003254 	smlsdmi	r0, r4, r2, r3
 2b0:	5f4f4950 	svcpl	0x004f4950
 2b4:	434e5546 	movtmi	r5, #58694	; 0xe546
 2b8:	544c415f 	strbpl	r4, [ip], #-351	; 0xfffffea1
 2bc:	50470033 	subpl	r0, r7, r3, lsr r0
 2c0:	465f4f49 	ldrbmi	r4, [pc], -r9, asr #30
 2c4:	5f434e55 	svcpl	0x00434e55
 2c8:	35544c41 	ldrbcc	r4, [r4, #-3137]	; 0xfffff3bf
 2cc:	732f2e00 			; <UNDEFINED> instruction: 0x732f2e00
 2d0:	672f6372 			; <UNDEFINED> instruction: 0x672f6372
 2d4:	2e6f6970 			; <UNDEFINED> instruction: 0x2e6f6970
 2d8:	70670063 	rsbvc	r0, r7, r3, rrx
 2dc:	735f6f69 	cmpvc	pc, #420	; 0x1a4
 2e0:	6f5f7465 	svcvs	0x005f7465
 2e4:	67006666 	strvs	r6, [r0, -r6, ror #12]
 2e8:	5f6f6970 	svcpl	0x006f6970
 2ec:	5f746573 	svcpl	0x00746573
 2f0:	7074756f 	rsbsvc	r7, r4, pc, ror #10
 2f4:	66007475 			; <UNDEFINED> instruction: 0x66007475
 2f8:	00636e75 	rsbeq	r6, r3, r5, ror lr
 2fc:	6f697067 	svcvs	0x00697067
 300:	6e75665f 	mrcvs	6, 3, r6, cr5, cr15, {2}
 304:	00745f63 	rsbseq	r5, r4, r3, ror #30
 308:	4f495047 	svcmi	0x00495047
 30c:	4e55465f 	mrcmi	6, 2, r4, cr5, cr15, {2}
 310:	4c415f43 	mcrrmi	15, 4, r5, r1, cr3
 314:	2f003454 	svccs	0x00003454
 318:	72657355 	rsbvc	r7, r5, #1409286145	; 0x54000001
 31c:	696d2f73 	stmdbvs	sp!, {r0, r1, r4, r5, r6, r8, r9, sl, fp, sp}^
 320:	2f73656c 	svccs	0x0073656c
 324:	72756f53 	rsbsvc	r6, r5, #332	; 0x14c
 328:	632f6563 			; <UNDEFINED> instruction: 0x632f6563
 32c:	30343273 	eorscc	r3, r4, r3, ror r2
 330:	6c2f786c 	stcvs	8, cr7, [pc], #-432	; 188 <__code_start__-0x7e78>
 334:	69706269 	ldmdbvs	r0!, {r0, r3, r5, r6, r9, sp, lr}^
 338:	6e616200 	cdpvs	2, 6, cr6, cr1, cr0, {0}
 33c:	4e47006b 	cdpmi	0, 4, cr0, cr7, cr11, {3}
 340:	39432055 	stmdbcc	r3, {r0, r2, r4, r6, sp}^
 344:	2e392039 	mrccs	0, 1, r2, cr9, cr9, {1}
 348:	20312e32 	eorscs	r2, r1, r2, lsr lr
 34c:	39313032 	ldmdbcc	r1!, {r1, r4, r5, ip, sp}
 350:	35323031 	ldrcc	r3, [r2, #-49]!	; 0xffffffcf
 354:	65722820 	ldrbvs	r2, [r2, #-2080]!	; 0xfffff7e0
 358:	7361656c 	cmnvc	r1, #108, 10	; 0x1b000000
 35c:	5b202965 	blpl	80a8f8 <__bss_end__+0x801348>
 360:	2f4d5241 	svccs	0x004d5241
 364:	2d6d7261 	sfmcs	f7, 2, [sp, #-388]!	; 0xfffffe7c
 368:	72622d39 	rsbvc	r2, r2, #3648	; 0xe40
 36c:	68636e61 	stmdavs	r3!, {r0, r5, r6, r9, sl, fp, sp, lr}^
 370:	76657220 	strbtvc	r7, [r5], -r0, lsr #4
 374:	6f697369 	svcvs	0x00697369
 378:	3732206e 	ldrcc	r2, [r2, -lr, rrx]!
 37c:	39393537 	ldmdbcc	r9!, {r0, r1, r2, r4, r5, r8, sl, ip, sp}
 380:	6d2d205d 	stcvs	0, cr2, [sp, #-372]!	; 0xfffffe8c
 384:	3d757063 	ldclcc	0, cr7, [r5, #-396]!	; 0xfffffe74
 388:	316d7261 	cmncc	sp, r1, ror #4
 38c:	6a363731 	bvs	d8e058 <__bss_end__+0xd84aa8>
 390:	732d667a 			; <UNDEFINED> instruction: 0x732d667a
 394:	746d2d20 	strbtvc	r2, [sp], #-3360	; 0xfffff2e0
 398:	3d656e75 	stclcc	14, cr6, [r5, #-468]!	; 0xfffffe2c
 39c:	316d7261 	cmncc	sp, r1, ror #4
 3a0:	6a363731 	bvs	d8e06c <__bss_end__+0xd84abc>
 3a4:	732d667a 			; <UNDEFINED> instruction: 0x732d667a
 3a8:	666d2d20 	strbtvs	r2, [sp], -r0, lsr #26
 3ac:	74616f6c 	strbtvc	r6, [r1], #-3948	; 0xfffff094
 3b0:	6962612d 	stmdbvs	r2!, {r0, r2, r3, r5, r8, sp, lr}^
 3b4:	666f733d 			; <UNDEFINED> instruction: 0x666f733d
 3b8:	6d2d2074 	stcvs	0, cr2, [sp, #-464]!	; 0xfffffe30
 3bc:	206d7261 	rsbcs	r7, sp, r1, ror #4
 3c0:	72616d2d 	rsbvc	r6, r1, #2880	; 0xb40
 3c4:	613d6863 	teqvs	sp, r3, ror #16
 3c8:	36766d72 			; <UNDEFINED> instruction: 0x36766d72
 3cc:	2d207a6b 	vstmdbcs	r0!, {s14-s120}
 3d0:	62646767 	rsbvs	r6, r4, #27000832	; 0x19c0000
 3d4:	674f2d20 	strbvs	r2, [pc, -r0, lsr #26]
 3d8:	74732d20 	ldrbtvc	r2, [r3], #-3360	; 0xfffff2e0
 3dc:	6e673d64 	cdpvs	13, 6, cr3, cr7, cr4, {3}
 3e0:	20393975 	eorscs	r3, r9, r5, ror r9
 3e4:	7266662d 	rsbvc	r6, r6, #47185920	; 0x2d00000
 3e8:	74736565 	ldrbtvc	r6, [r3], #-1381	; 0xfffffa9b
 3ec:	69646e61 	stmdbvs	r4!, {r0, r5, r6, r9, sl, fp, sp, lr}^
 3f0:	4700676e 	strmi	r6, [r0, -lr, ror #14]
 3f4:	5f4f4950 	svcpl	0x004f4950
 3f8:	434e5546 	movtmi	r5, #58694	; 0xe546
 3fc:	504e495f 	subpl	r4, lr, pc, asr r9
 400:	67005455 	smlsdvs	r0, r5, r4, r5
 404:	5f6f6970 	svcpl	0x006f6970
 408:	5f746573 	svcpl	0x00746573
 40c:	636e7566 	cmnvs	lr, #427819008	; 0x19800000
 410:	6e6f6974 			; <UNDEFINED> instruction: 0x6e6f6974
 414:	69706700 	ldmdbvs	r0!, {r8, r9, sl, sp, lr}^
 418:	65735f6f 	ldrbvs	r5, [r3, #-3951]!	; 0xfffff091
 41c:	6e6f5f74 	mcrvs	15, 3, r5, cr15, cr4, {3}
 420:	67726100 	ldrbvs	r6, [r2, -r0, lsl #2]!
 424:	61760073 	cmnvs	r6, r3, ror r0
 428:	6972705f 	ldmdbvs	r2!, {r0, r1, r2, r3, r4, r6, ip, sp, lr}^
 42c:	006b746e 	rsbeq	r7, fp, lr, ror #8
 430:	6e675f5f 	mcrvs	15, 3, r5, cr7, cr15, {2}
 434:	765f6375 			; <UNDEFINED> instruction: 0x765f6375
 438:	696c5f61 	stmdbvs	ip!, {r0, r5, r6, r8, r9, sl, fp, ip, lr}^
 43c:	5f007473 	svcpl	0x00007473
 440:	0070615f 	rsbseq	r6, r0, pc, asr r1
 444:	696c2f2e 	stmdbvs	ip!, {r1, r2, r3, r5, r8, r9, sl, fp, sp}^
 448:	702f6362 	eorvc	r6, pc, r2, ror #6
 44c:	746e6972 	strbtvc	r6, [lr], #-2418	; 0xfffff68e
 450:	00632e6b 	rsbeq	r2, r3, fp, ror #28
 454:	61765f5f 	cmnvs	r6, pc, asr pc
 458:	73696c5f 	cmnvc	r9, #24320	; 0x5f00
 45c:	6e690074 	mcrvs	0, 3, r0, cr9, cr4, {3}
 460:	6e726574 	mrcvs	5, 3, r6, cr2, cr4, {3}
 464:	705f6c61 	subsvc	r6, pc, r1, ror #24
 468:	006b7475 	rsbeq	r7, fp, r5, ror r4
 46c:	696c2f2e 	stmdbvs	ip!, {r1, r2, r3, r5, r8, r9, sl, fp, sp}^
 470:	702f6362 	eorvc	r6, pc, r2, ror #6
 474:	2e6b7475 	mcrcs	4, 3, r7, cr11, cr5, {3}
 478:	73690063 	cmnvc	r9, #99, 0	; 0x63
 47c:	69676964 	stmdbvs	r7!, {r2, r5, r6, r8, fp, sp, lr}^
 480:	69750074 	ldmdbvs	r5!, {r2, r4, r5, r6}^
 484:	3436746e 	ldrtcc	r7, [r6], #-1134	; 0xfffffb92
 488:	2e00745f 	cfmvsrcs	mvf0, r7
 48c:	62696c2f 	rsbvs	r6, r9, #12032	; 0x2f00
 490:	61762f63 	cmnvs	r6, r3, ror #30
 494:	6972702d 	ldmdbvs	r2!, {r0, r2, r3, r5, ip, sp, lr}^
 498:	2e6b746e 	cdpcs	4, 6, cr7, cr11, cr14, {3}
 49c:	5f5f0063 	svcpl	0x005f0063
 4a0:	65646f63 	strbvs	r6, [r4, #-3939]!	; 0xfffff09d
 4a4:	6174735f 	cmnvs	r4, pc, asr r3
 4a8:	5f5f7472 	svcpl	0x005f7472
 4ac:	625f5f00 	subsvs	r5, pc, #0, 30
 4b0:	735f7373 	cmpvc	pc, #-872415231	; 0xcc000001
 4b4:	74726174 	ldrbtvc	r6, [r2], #-372	; 0xfffffe8c
 4b8:	77005f5f 	smlsdvc	r0, pc, pc, r5	; <UNPREDICTABLE>
 4bc:	68746469 	ldmdavs	r4!, {r0, r3, r5, r6, sl, sp, lr}^
 4c0:	645f5f00 	ldrbvs	r5, [pc], #-3840	; 4c8 <__code_start__-0x7b38>
 4c4:	5f617461 	svcpl	0x00617461
 4c8:	5f646e65 	svcpl	0x00646e65
 4cc:	7570005f 	ldrbvc	r0, [r0, #-95]!	; 0xffffffa1
 4d0:	665f6374 			; <UNDEFINED> instruction: 0x665f6374
 4d4:	5f5f0070 	svcpl	0x005f0070
 4d8:	5f737362 	svcpl	0x00737362
 4dc:	5f646e65 	svcpl	0x00646e65
 4e0:	5f5f005f 	svcpl	0x005f005f
 4e4:	70616568 	rsbvc	r6, r1, r8, ror #10
 4e8:	6174735f 	cmnvs	r4, pc, asr r3
 4ec:	5f5f7472 	svcpl	0x005f7472
 4f0:	69707200 	ldmdbvs	r0!, {r9, ip, sp, lr}^
 4f4:	7465735f 	strbtvc	r7, [r5], #-863	; 0xfffffca1
 4f8:	74756f5f 	ldrbtvc	r6, [r5], #-3935	; 0xfffff0a1
 4fc:	00747570 	rsbseq	r7, r4, r0, ror r5
 500:	5f746d66 	svcpl	0x00746d66
 504:	72617473 	rsbvc	r7, r1, #1929379840	; 0x73000000
 508:	74730074 	ldrbtvc	r0, [r3], #-116	; 0xffffff8c
 50c:	74616372 	strbtvc	r6, [r1], #-882	; 0xfffffc8e
 510:	72747300 	rsbsvc	r7, r4, #0, 6
 514:	00797063 	rsbseq	r7, r9, r3, rrx
 518:	5f67656e 	svcpl	0x0067656e
 51c:	5f5f0070 	svcpl	0x005f0070
 520:	65646f63 	strbvs	r6, [r4, #-3939]!	; 0xfffff09d
 524:	646e655f 	strbtvs	r6, [lr], #-1375	; 0xfffffaa1
 528:	65005f5f 	strvs	r5, [r0, #-3935]	; 0xfffff0a1
 52c:	0074696d 	rsbseq	r6, r4, sp, ror #18
 530:	73747570 	cmnvc	r4, #112, 10	; 0x1c000000
 534:	0070665f 	rsbseq	r6, r0, pc, asr r6
 538:	65766572 	ldrbvs	r6, [r6, #-1394]!	; 0xfffffa8e
 53c:	00657372 	rsbeq	r7, r5, r2, ror r3
 540:	63727473 	cmnvs	r2, #1929379840	; 0x73000000
 544:	5f00706d 	svcpl	0x0000706d
 548:	7461645f 	strbtvc	r6, [r1], #-1119	; 0xfffffba1
 54c:	74735f61 	ldrbtvc	r5, [r3], #-3937	; 0xfffff09f
 550:	5f747261 	svcpl	0x00747261
 554:	5f5f005f 	svcpl	0x005f005f
 558:	676f7270 			; <UNDEFINED> instruction: 0x676f7270
 55c:	646e655f 	strbtvs	r6, [lr], #-1375	; 0xfffffaa1
 560:	6e005f5f 	mcrvs	15, 0, r5, cr0, cr15, {2}
 564:	00316d75 	eorseq	r6, r1, r5, ror sp
 568:	6e727473 	mrcvs	4, 3, r7, cr2, cr3, {3}
 56c:	00706d63 	rsbseq	r6, r0, r3, ror #26
 570:	65736162 	ldrbvs	r6, [r3, #-354]!	; 0xfffffe9e
 574:	67697300 	strbvs	r7, [r9, -r0, lsl #6]!
 578:	5f64656e 	svcpl	0x0064656e
 57c:	69640070 	stmdbvs	r4!, {r4, r5, r6}^
 580:	6c626173 	stfvse	f6, [r2], #-460	; 0xfffffe34
 584:	61635f65 	cmnvs	r3, r5, ror #30
 588:	00656863 	rsbeq	r6, r5, r3, ror #16
 58c:	74732f2e 	ldrbtvc	r2, [r3], #-3886	; 0xfffff0d2
 590:	2d666661 	stclcs	6, cr6, [r6, #-388]!	; 0xfffffe7c
 594:	2f637273 	svccs	0x00637273
 598:	68636163 	stmdavs	r3!, {r0, r1, r5, r6, r8, sp, lr}^
 59c:	00632e65 	rsbeq	r2, r3, r5, ror #28
 5a0:	5f697072 	svcpl	0x00697072
 5a4:	6f626572 	svcvs	0x00626572
 5a8:	6400746f 	strvs	r7, [r0], #-1135	; 0xfffffb91
 5ac:	79616c65 	stmdbvc	r1!, {r0, r2, r5, r6, sl, fp, sp, lr}^
 5b0:	00736d5f 	rsbseq	r6, r3, pc, asr sp
 5b4:	74732f2e 	ldrbtvc	r2, [r3], #-3886	; 0xfffff0d2
 5b8:	2d666661 	stclcs	6, cr6, [r6, #-388]!	; 0xfffffe7c
 5bc:	2f637273 	svccs	0x00637273
 5c0:	61656c63 	cmnvs	r5, r3, ror #24
 5c4:	65722d6e 	ldrbvs	r2, [r2, #-3438]!	; 0xfffff292
 5c8:	746f6f62 	strbtvc	r6, [pc], #-3938	; 5d0 <__code_start__-0x7a30>
 5cc:	7500632e 	strvc	r6, [r0, #-814]	; 0xfffffcd2
 5d0:	5f747261 	svcpl	0x00747261
 5d4:	73756c66 	cmnvc	r5, #26112	; 0x6600
 5d8:	78745f68 	ldmdavc	r4!, {r3, r5, r6, r8, r9, sl, fp, ip, lr}^
 5dc:	73635f00 	cmnvc	r3, #0, 30
 5e0:	74726174 	ldrbtvc	r6, [r2], #-372	; 0xfffffe8c
 5e4:	73736200 	cmnvc	r3, #0, 4
 5e8:	646e655f 	strbtvs	r6, [lr], #-1375	; 0xfffffaa1
 5ec:	72617500 	rsbvc	r7, r1, #0, 10
 5f0:	6e695f74 	mcrvs	15, 3, r5, cr9, cr4, {3}
 5f4:	63007469 	movwvs	r7, #1129	; 0x469
 5f8:	6f747375 	svcvs	0x00747375
 5fc:	6f6c5f6d 	svcvs	0x006c5f6d
 600:	72656461 	rsbvc	r6, r5, #1627389952	; 0x61000000
 604:	732f2e00 			; <UNDEFINED> instruction: 0x732f2e00
 608:	66666174 			; <UNDEFINED> instruction: 0x66666174
 60c:	6372732d 	cmnvs	r2, #-1275068416	; 0xb4000000
 610:	7473632f 	ldrbtvc	r6, [r3], #-815	; 0xfffffcd1
 614:	2e747261 	cdpcs	2, 7, cr7, cr4, cr1, {3}
 618:	2f2e0063 	svccs	0x002e0063
 61c:	66617473 			; <UNDEFINED> instruction: 0x66617473
 620:	72732d66 	rsbsvc	r2, r3, #6528	; 0x1980
 624:	75632f63 	strbvc	r2, [r3, #-3939]!	; 0xfffff09d
 628:	6d6f7473 	cfstrdvs	mvd7, [pc, #-460]!	; 464 <__code_start__-0x7b9c>
 62c:	616f6c2d 	cmnvs	pc, sp, lsr #24
 630:	2e726564 	cdpcs	5, 7, cr6, cr2, cr4, {3}
 634:	65720063 	ldrbvs	r0, [r2, #-99]!	; 0xffffff9d
 638:	746f6f62 	strbtvc	r6, [pc], #-3938	; 640 <__code_start__-0x79c0>
 63c:	6c61635f 	stclvs	3, cr6, [r1], #-380	; 0xfffffe84
 640:	74756f6c 	ldrbtvc	r6, [r5], #-3948	; 0xfffff094
 644:	5f4d5000 	svcpl	0x004d5000
 648:	474f4457 	smlsldmi	r4, pc, r7, r4	; <UNPREDICTABLE>
 64c:	74657300 	strbtvc	r7, [r5], #-768	; 0xfffffd00
 650:	6573755f 	ldrbvs	r7, [r3, #-1375]!	; 0xfffffaa1
 654:	656c5f72 	strbvs	r5, [ip, #-3954]!	; 0xfffff08e
 658:	006c6576 	rsbeq	r6, ip, r6, ror r5
 65c:	74732f2e 	ldrbtvc	r2, [r3], #-3886	; 0xfffff0d2
 660:	2d666661 	stclcs	6, cr6, [r6, #-388]!	; 0xfffffe7c
 664:	2f637273 	svccs	0x00637273
 668:	6f626572 	svcvs	0x00626572
 66c:	632e746f 			; <UNDEFINED> instruction: 0x632e746f
 670:	5f4d5000 	svcpl	0x004d5000
 674:	53534150 	cmppl	r3, #20
 678:	44524f57 	ldrbmi	r4, [r2], #-3927	; 0xfffff0a9
 67c:	5f746100 	svcpl	0x00746100
 680:	72657375 	rsbvc	r7, r5, #-738197503	; 0xd4000001
 684:	76656c5f 			; <UNDEFINED> instruction: 0x76656c5f
 688:	50006c65 	andpl	r6, r0, r5, ror #24
 68c:	53525f4d 	cmppl	r2, #308	; 0x134
 690:	575f4354 			; <UNDEFINED> instruction: 0x575f4354
 694:	47464352 	smlsldmi	r4, r6, r2, r3
 698:	4c55465f 	mrrcmi	6, 5, r4, r5, cr15
 69c:	45525f4c 	ldrbmi	r5, [r2, #-3916]	; 0xfffff0b4
 6a0:	00544553 	subseq	r4, r4, r3, asr r5
 6a4:	525f4d50 	subspl	r4, pc, #80, 26	; 0x1400
 6a8:	00435453 	subeq	r5, r3, r3, asr r4
 6ac:	72737063 	rsbsvc	r7, r3, #99, 0	; 0x63
 6b0:	76656400 	strbtvc	r6, [r5], -r0, lsl #8
 6b4:	7261625f 	rsbvc	r6, r1, #-268435451	; 0xf0000005
 6b8:	72656972 	rsbvc	r6, r5, #1867776	; 0x1c8000
 6bc:	6c656400 	cfstrdvs	mvd6, [r5], #-0
 6c0:	735f7961 	cmpvc	pc, #1589248	; 0x184000
 6c4:	2e006365 	cdpcs	3, 0, cr6, cr0, cr5, {3}
 6c8:	6174732f 	cmnvs	r4, pc, lsr #6
 6cc:	732d6666 			; <UNDEFINED> instruction: 0x732d6666
 6d0:	742f6372 	strtvc	r6, [pc], #-882	; 6d8 <__code_start__-0x7928>
 6d4:	72656d69 	rsbvc	r6, r5, #6720	; 0x1a40
 6d8:	7400632e 	strvc	r6, [r0], #-814	; 0xfffffcd2
 6dc:	72656d69 	rsbvc	r6, r5, #6720	; 0x1a40
 6e0:	7465675f 	strbtvc	r6, [r5], #-1887	; 0xfffff8a1
 6e4:	6573755f 	ldrbvs	r7, [r3, #-1375]!	; 0xfffffaa1
 6e8:	65640063 	strbvs	r0, [r4, #-99]!	; 0xffffff9d
 6ec:	5f79616c 	svcpl	0x0079616c
 6f0:	74007375 	strvc	r7, [r0], #-885	; 0xfffffc8b
 6f4:	72656d69 	rsbvc	r6, r5, #6720	; 0x1a40
 6f8:	7465675f 	strbtvc	r6, [r5], #-1887	; 0xfffff8a1
 6fc:	6573755f 	ldrbvs	r7, [r3, #-1375]!	; 0xfffffaa1
 700:	61725f63 	cmnvs	r2, r3, ror #30
 704:	61620077 	smcvs	8199	; 0x2007
 708:	765f6475 			; <UNDEFINED> instruction: 0x765f6475
 70c:	73006c61 	movwvc	r6, #3169	; 0xc61
 710:	00746174 	rsbseq	r6, r4, r4, ror r1
 714:	74726175 	ldrbtvc	r6, [r2], #-373	; 0xfffffe8b
 718:	6e61635f 	mcrvs	3, 3, r6, cr1, cr15, {2}
 71c:	7465675f 	strbtvc	r6, [r5], #-1887	; 0xfffff8a1
 720:	61750063 	cmnvs	r5, r3, rrx
 724:	632e7472 			; <UNDEFINED> instruction: 0x632e7472
 728:	72617500 	rsbvc	r7, r1, #0, 10
 72c:	61635f74 	smcvs	13812	; 0x35f4
 730:	75705f6e 	ldrbvc	r5, [r0, #-3950]!	; 0xfffff092
 734:	75006374 	strvc	r6, [r0, #-884]	; 0xfffffc8c
 738:	00747261 	rsbseq	r7, r4, r1, ror #4
 73c:	72646461 	rsbvc	r6, r4, #1627389952	; 0x61000000
 740:	72617500 	rsbvc	r7, r1, #0, 10
 744:	78745f74 	ldmdavc	r4!, {r2, r4, r5, r6, r8, r9, sl, fp, ip, lr}^
 748:	5f73695f 	svcpl	0x0073695f
 74c:	74706d65 	ldrbtvc	r6, [r0], #-3429	; 0xfffff29b
 750:	75700079 	ldrbvc	r0, [r0, #-121]!	; 0xffffff87
 754:	00323374 	eorseq	r3, r2, r4, ror r3
 758:	64756162 	ldrbtvs	r6, [r5], #-354	; 0xfffffe9e
 75c:	78756100 	ldmdavc	r5!, {r8, sp, lr}^
 760:	616e655f 	cmnvs	lr, pc, asr r5
 764:	73656c62 	cmnvc	r5, #25088	; 0x6200
 768:	72617500 	rsbvc	r7, r1, #0, 10
 76c:	65675f74 	strbvs	r5, [r7, #-3956]!	; 0xfffff08c
 770:	47006374 	smlsdxmi	r0, r4, r3, r6
 774:	4320554e 			; <UNDEFINED> instruction: 0x4320554e
 778:	31203939 			; <UNDEFINED> instruction: 0x31203939
 77c:	2e332e30 	mrccs	14, 1, r2, cr3, cr0, {1}
 780:	30322031 	eorscc	r2, r2, r1, lsr r0
 784:	38303132 	ldmdacc	r0!, {r1, r4, r5, r8, ip, sp}
 788:	28203432 	stmdacs	r0!, {r1, r4, r5, sl, ip, sp}
 78c:	656c6572 	strbvs	r6, [ip, #-1394]!	; 0xfffffa8e
 790:	29657361 	stmdbcs	r5!, {r0, r5, r6, r8, r9, ip, sp, lr}^
 794:	636d2d20 	cmnvs	sp, #32, 26	; 0x800
 798:	613d7570 	teqvs	sp, r0, ror r5
 79c:	31316d72 	teqcc	r1, r2, ror sp
 7a0:	7a6a3637 	bvc	1a8e084 <__bss_end__+0x1a84ad4>
 7a4:	20732d66 	rsbscs	r2, r3, r6, ror #26
 7a8:	75746d2d 	ldrbvc	r6, [r4, #-3373]!	; 0xfffff2d3
 7ac:	613d656e 	teqvs	sp, lr, ror #10
 7b0:	31316d72 	teqcc	r1, r2, ror sp
 7b4:	7a6a3637 	bvc	1a8e098 <__bss_end__+0x1a84ae8>
 7b8:	20732d66 	rsbscs	r2, r3, r6, ror #26
 7bc:	6c666d2d 	stclvs	13, cr6, [r6], #-180	; 0xffffff4c
 7c0:	2d74616f 	ldfcse	f6, [r4, #-444]!	; 0xfffffe44
 7c4:	3d696261 	sfmcc	f6, 2, [r9, #-388]!	; 0xfffffe7c
 7c8:	74666f73 	strbtvc	r6, [r6], #-3955	; 0xfffff08d
 7cc:	616d2d20 	cmnvs	sp, r0, lsr #26
 7d0:	2d206d72 	stccs	13, cr6, [r0, #-456]!	; 0xfffffe38
 7d4:	6372616d 	cmnvs	r2, #1073741851	; 0x4000001b
 7d8:	72613d68 	rsbvc	r3, r1, #104, 26	; 0x1a00
 7dc:	6b36766d 	blvs	d9e198 <__bss_end__+0xd94be8>
 7e0:	672d207a 			; <UNDEFINED> instruction: 0x672d207a
 7e4:	20626467 	rsbcs	r6, r2, r7, ror #8
 7e8:	20674f2d 	rsbcs	r4, r7, sp, lsr #30
 7ec:	6474732d 	ldrbtvs	r7, [r4], #-813	; 0xfffffcd3
 7f0:	756e673d 	strbvc	r6, [lr, #-1853]!	; 0xfffff8c3
 7f4:	2d203939 			; <UNDEFINED> instruction: 0x2d203939
 7f8:	65726666 	ldrbvs	r6, [r2, #-1638]!	; 0xfffff99a
 7fc:	61747365 	cmnvs	r4, r5, ror #6
 800:	6e69646e 	cdpvs	4, 6, cr6, cr9, cr14, {3}
 804:	6e630067 	cdpvs	0, 6, cr0, cr3, cr7, {3}
 808:	75006c74 	strvc	r6, [r0, #-3188]	; 0xfffff38c
 80c:	5f747261 	svcpl	0x00747261
 810:	61736964 	cmnvs	r3, r4, ror #18
 814:	00656c62 	rsbeq	r6, r5, r2, ror #24
 818:	74726175 	ldrbtvc	r6, [r2], #-373	; 0xfffffe8b
 81c:	7361685f 	cmnvc	r1, #6225920	; 0x5f0000
 820:	7461645f 	strbtvc	r6, [r1], #-1119	; 0xfffffba1
 824:	726f0061 	rsbvc	r0, pc, #97, 0	; 0x61
 828:	336e695f 	cmncc	lr, #1556480	; 0x17c000
 82c:	63730032 	cmnvs	r3, #50, 0	; 0x32
 830:	63746172 	cmnvs	r4, #-2147483620	; 0x8000001c
 834:	75610068 	strbvc	r0, [r1, #-104]!	; 0xffffff98
 838:	65705f78 	ldrbvs	r5, [r0, #-3960]!	; 0xfffff088
 83c:	68706972 	ldmdavs	r0!, {r1, r4, r5, r6, r8, fp, sp, lr}^
 840:	682f0073 	stmdavs	pc!, {r0, r1, r4, r5, r6}	; <UNPREDICTABLE>
 844:	2f656d6f 	svccs	0x00656d6f
 848:	6c676e65 	stclvs	14, cr6, [r7], #-404	; 0xfffffe6c
 84c:	632f7265 			; <UNDEFINED> instruction: 0x632f7265
 850:	7373616c 	cmnvc	r3, #27
 854:	3173632f 	cmncc	r3, pc, lsr #6
 858:	2d653034 	stclcs	0, cr3, [r5, #-208]!	; 0xffffff30
 85c:	69773232 	ldmdbvs	r7!, {r1, r4, r5, r9, ip, sp}^
 860:	696c2f6e 	stmdbvs	ip!, {r1, r2, r3, r5, r6, r8, r9, sl, fp, sp}^
 864:	2f697062 	svccs	0x00697062
 868:	66617473 			; <UNDEFINED> instruction: 0x66617473
 86c:	72702d66 	rsbsvc	r2, r0, #6528	; 0x1980
 870:	74617669 	strbtvc	r7, [r1], #-1641	; 0xfffff997
 874:	6e610065 	cdpvs	0, 6, cr0, cr1, cr5, {3}
 878:	6e695f64 	cdpvs	15, 6, cr5, cr9, cr4, {3}
 87c:	75003233 	strvc	r3, [r0, #-563]	; 0xfffffdcd
 880:	5f747261 	svcpl	0x00747261
 884:	63747570 	cmnvs	r4, #112, 10	; 0x1c000000
 888:	74656700 	strbtvc	r6, [r5], #-1792	; 0xfffff900
 88c:	69003233 	stmdbvs	r0, {r0, r1, r4, r5, r9, ip, sp}
 890:	7265746e 	rsbvc	r7, r5, #1845493760	; 0x6e000000
 894:	5f6c616e 	svcpl	0x006c616e
 898:	63747570 	cmnvs	r4, #112, 10	; 0x1c000000
 89c:	00726168 	rsbseq	r6, r2, r8, ror #2
 8a0:	5f697072 	svcpl	0x00697072
 8a4:	5f746573 	svcpl	0x00746573
 8a8:	63747570 	cmnvs	r4, #112, 10	; 0x1c000000
 8ac:	6c2f2e00 	stcvs	14, cr2, [pc], #-0	; 8b4 <__code_start__-0x774c>
 8b0:	2f636269 	svccs	0x00636269
 8b4:	63747570 	cmnvs	r4, #112, 10	; 0x1c000000
 8b8:	2e726168 	rpwcssz	f6, f2, #0.0
 8bc:	70720063 	rsbsvc	r0, r2, r3, rrx
 8c0:	65725f69 	ldrbvs	r5, [r2, #-3945]!	; 0xfffff097
 8c4:	5f746573 	svcpl	0x00746573
 8c8:	63747570 	cmnvs	r4, #112, 10	; 0x1c000000
 8cc:	73656400 	cmnvc	r5, #0, 8
 8d0:	2f2e0074 	svccs	0x002e0074
 8d4:	6362696c 	cmnvs	r2, #108, 18	; 0x1b0000
 8d8:	7274732f 	rsbsvc	r7, r4, #-1140850688	; 0xbc000000
 8dc:	2e746163 	rpwcssz	f6, f4, f3
 8e0:	2f2e0063 	svccs	0x002e0063
 8e4:	6362696c 	cmnvs	r2, #108, 18	; 0x1b0000
 8e8:	7274732f 	rsbsvc	r7, r4, #-1140850688	; 0xbc000000
 8ec:	2e706d63 	cdpcs	13, 7, cr6, cr0, cr3, {3}
 8f0:	2f2e0063 	svccs	0x002e0063
 8f4:	6362696c 	cmnvs	r2, #108, 18	; 0x1b0000
 8f8:	7274732f 	rsbsvc	r7, r4, #-1140850688	; 0xbc000000
 8fc:	2e797063 	cdpcs	0, 7, cr7, cr9, cr3, {3}
 900:	69730063 	ldmdbvs	r3!, {r0, r1, r5, r6}^
 904:	745f657a 	ldrbvc	r6, [pc], #-1402	; 90c <__code_start__-0x76f4>
 908:	6c2f2e00 	stcvs	14, cr2, [pc], #-0	; 910 <__code_start__-0x76f0>
 90c:	2f636269 	svccs	0x00636269
 910:	6e727473 	mrcvs	4, 3, r7, cr2, cr3, {3}
 914:	2e706d63 	cdpcs	13, 7, cr6, cr0, cr3, {3}
 918:	2f2e0063 	svccs	0x002e0063
 91c:	66617473 			; <UNDEFINED> instruction: 0x66617473
 920:	72732d66 	rsbsvc	r2, r3, #6528	; 0x1980
 924:	65642f63 	strbvs	r2, [r4, #-3939]!	; 0xfffff09d
 928:	6c756166 	ldfvse	f6, [r5], #-408	; 0xfffffe68
 92c:	65722d74 	ldrbvs	r2, [r2, #-3444]!	; 0xfffff28c
 930:	746f6f62 	strbtvc	r6, [pc], #-3938	; 938 <__code_start__-0x76c8>
 934:	6c61632d 	stclvs	3, cr6, [r1], #-180	; 0xffffff4c
 938:	74756f6c 	ldrbtvc	r6, [r5], #-3948	; 0xfffff094
 93c:	Address 0x000000000000093c is out of bounds.


Disassembly of section .debug_frame:

00000000 <.debug_frame>:
   0:	0000000c 	andeq	r0, r0, ip
   4:	ffffffff 			; <UNDEFINED> instruction: 0xffffffff
   8:	7c020001 	stcvc	0, cr0, [r2], {1}
   c:	000d0c0e 	andeq	r0, sp, lr, lsl #24
  10:	00000020 	andeq	r0, r0, r0, lsr #32
  14:	00000000 	andeq	r0, r0, r0
  18:	00008040 	andeq	r8, r0, r0, asr #32
  1c:	000000d8 	ldrdeq	r0, [r0], -r8
  20:	84200e44 	strthi	r0, [r0], #-3652	; 0xfffff1bc
  24:	86078508 	strhi	r8, [r7], -r8, lsl #10
  28:	88058706 	stmdahi	r5, {r1, r2, r8, r9, sl, pc}
  2c:	8a038904 	bhi	e2444 <__bss_end__+0xd8e94>
  30:	00018e02 	andeq	r8, r1, r2, lsl #28
  34:	00000028 	andeq	r0, r0, r8, lsr #32
  38:	00000000 	andeq	r0, r0, r0
  3c:	00008120 	andeq	r8, r0, r0, lsr #2
  40:	00000104 	andeq	r0, r0, r4, lsl #2
  44:	84240e42 	strthi	r0, [r4], #-3650	; 0xfffff1be
  48:	86088509 	strhi	r8, [r8], -r9, lsl #10
  4c:	88068707 	stmdahi	r6, {r0, r1, r2, r8, r9, sl, pc}
  50:	8a048905 	bhi	12246c <__bss_end__+0x118ebc>
  54:	8e028b03 	vmlahi.f64	d8, d2, d3
  58:	b80e4201 	stmdalt	lr, {r0, r9, lr}
  5c:	00000002 	andeq	r0, r0, r2
  60:	0000000c 	andeq	r0, r0, ip
  64:	ffffffff 			; <UNDEFINED> instruction: 0xffffffff
  68:	7c020001 	stcvc	0, cr0, [r2], {1}
  6c:	000d0c0e 	andeq	r0, sp, lr, lsl #24
  70:	00000018 	andeq	r0, r0, r8, lsl r0
  74:	00000060 	andeq	r0, r0, r0, rrx
  78:	00008224 	andeq	r8, r0, r4, lsr #4
  7c:	00000064 	andeq	r0, r0, r4, rrx
  80:	84100e46 	ldrhi	r0, [r0], #-3654	; 0xfffff1ba
  84:	86038504 	strhi	r8, [r3], -r4, lsl #10
  88:	00018e02 	andeq	r8, r1, r2, lsl #28
  8c:	00000014 	andeq	r0, r0, r4, lsl r0
  90:	00000060 	andeq	r0, r0, r0, rrx
  94:	00008288 	andeq	r8, r0, r8, lsl #5
  98:	00000010 	andeq	r0, r0, r0, lsl r0
  9c:	84080e42 	strhi	r0, [r8], #-3650	; 0xfffff1be
  a0:	00018e02 	andeq	r8, r1, r2, lsl #28
  a4:	00000014 	andeq	r0, r0, r4, lsl r0
  a8:	00000060 	andeq	r0, r0, r0, rrx
  ac:	00008298 	muleq	r0, r8, r2
  b0:	00000024 	andeq	r0, r0, r4, lsr #32
  b4:	84080e46 	strhi	r0, [r8], #-3654	; 0xfffff1ba
  b8:	00018e02 	andeq	r8, r1, r2, lsl #28
  bc:	00000014 	andeq	r0, r0, r4, lsl r0
  c0:	00000060 	andeq	r0, r0, r0, rrx
  c4:	000082bc 			; <UNDEFINED> instruction: 0x000082bc
  c8:	00000024 	andeq	r0, r0, r4, lsr #32
  cc:	84080e46 	strhi	r0, [r8], #-3654	; 0xfffff1ba
  d0:	00018e02 	andeq	r8, r1, r2, lsl #28
  d4:	00000014 	andeq	r0, r0, r4, lsl r0
  d8:	00000060 	andeq	r0, r0, r0, rrx
  dc:	000082e0 	andeq	r8, r0, r0, ror #5
  e0:	00000010 	andeq	r0, r0, r0, lsl r0
  e4:	84080e42 	strhi	r0, [r8], #-3650	; 0xfffff1be
  e8:	00018e02 	andeq	r8, r1, r2, lsl #28
  ec:	00000014 	andeq	r0, r0, r4, lsl r0
  f0:	00000060 	andeq	r0, r0, r0, rrx
  f4:	000082f0 	strdeq	r8, [r0], -r0
  f8:	0000001c 	andeq	r0, r0, ip, lsl r0
  fc:	84080e42 	strhi	r0, [r8], #-3650	; 0xfffff1be
 100:	00018e02 	andeq	r8, r1, r2, lsl #28
 104:	00000014 	andeq	r0, r0, r4, lsl r0
 108:	00000060 	andeq	r0, r0, r0, rrx
 10c:	0000830c 	andeq	r8, r0, ip, lsl #6
 110:	00000024 	andeq	r0, r0, r4, lsr #32
 114:	84080e42 	strhi	r0, [r8], #-3650	; 0xfffff1be
 118:	00018e02 	andeq	r8, r1, r2, lsl #28
 11c:	0000000c 	andeq	r0, r0, ip
 120:	ffffffff 			; <UNDEFINED> instruction: 0xffffffff
 124:	7c020001 	stcvc	0, cr0, [r2], {1}
 128:	000d0c0e 	andeq	r0, sp, lr, lsl #24
 12c:	00000034 	andeq	r0, r0, r4, lsr r0
 130:	0000011c 	andeq	r0, r0, ip, lsl r1
 134:	00008330 	andeq	r8, r0, r0, lsr r3
 138:	00000058 	andeq	r0, r0, r8, asr r0
 13c:	80100e42 	andshi	r0, r0, r2, asr #28
 140:	82038104 	andhi	r8, r3, #1
 144:	42018302 	andmi	r8, r1, #134217728	; 0x8000000
 148:	07841c0e 	streq	r1, [r4, lr, lsl #24]
 14c:	058e0685 	streq	r0, [lr, #1669]	; 0x685
 150:	5c280e42 	stcpl	14, cr0, [r8], #-264	; 0xfffffef8
 154:	ce421c0e 	cdpgt	12, 4, cr1, cr2, cr14, {0}
 158:	100ec4c5 	andne	ip, lr, r5, asr #9
 15c:	c1c2c342 	bicgt	ip, r2, r2, asr #6
 160:	00000ec0 	andeq	r0, r0, r0, asr #29
 164:	0000000c 	andeq	r0, r0, ip
 168:	ffffffff 			; <UNDEFINED> instruction: 0xffffffff
 16c:	7c020001 	stcvc	0, cr0, [r2], {1}
 170:	000d0c0e 	andeq	r0, sp, lr, lsl #24
 174:	00000014 	andeq	r0, r0, r4, lsl r0
 178:	00000164 	andeq	r0, r0, r4, ror #2
 17c:	00008388 	andeq	r8, r0, r8, lsl #7
 180:	00000034 	andeq	r0, r0, r4, lsr r0
 184:	84080e42 	strhi	r0, [r8], #-3650	; 0xfffff1be
 188:	00018e02 	andeq	r8, r1, r2, lsl #28
 18c:	0000000c 	andeq	r0, r0, ip
 190:	ffffffff 			; <UNDEFINED> instruction: 0xffffffff
 194:	7c020001 	stcvc	0, cr0, [r2], {1}
 198:	000d0c0e 	andeq	r0, sp, lr, lsl #24
 19c:	0000000c 	andeq	r0, r0, ip
 1a0:	0000018c 	andeq	r0, r0, ip, lsl #3
 1a4:	000083bc 			; <UNDEFINED> instruction: 0x000083bc
 1a8:	00000014 	andeq	r0, r0, r4, lsl r0
 1ac:	0000000c 	andeq	r0, r0, ip
 1b0:	0000018c 	andeq	r0, r0, ip, lsl #3
 1b4:	000083d0 	ldrdeq	r8, [r0], -r0
 1b8:	00000024 	andeq	r0, r0, r4, lsr #32
 1bc:	0000000c 	andeq	r0, r0, ip
 1c0:	0000018c 	andeq	r0, r0, ip, lsl #3
 1c4:	000083f4 	strdeq	r8, [r0], -r4
 1c8:	00000038 	andeq	r0, r0, r8, lsr r0
 1cc:	00000024 	andeq	r0, r0, r4, lsr #32
 1d0:	0000018c 	andeq	r0, r0, ip, lsl #3
 1d4:	0000842c 	andeq	r8, r0, ip, lsr #8
 1d8:	000001b4 			; <UNDEFINED> instruction: 0x000001b4
 1dc:	84140e42 	ldrhi	r0, [r4], #-3650	; 0xfffff1be
 1e0:	86048505 	strhi	r8, [r4], -r5, lsl #10
 1e4:	8e028703 	cdphi	7, 0, cr8, cr2, cr3, {0}
 1e8:	600e4201 	andvs	r4, lr, r1, lsl #4
 1ec:	0e0a9a02 	vmlaeq.f32	s18, s20, s4
 1f0:	000b4214 	andeq	r4, fp, r4, lsl r2
 1f4:	00000014 	andeq	r0, r0, r4, lsl r0
 1f8:	0000018c 	andeq	r0, r0, ip, lsl #3
 1fc:	000085e0 	andeq	r8, r0, r0, ror #11
 200:	00000064 	andeq	r0, r0, r4, rrx
 204:	8e040e54 	mcrhi	14, 0, r0, cr4, cr4, {2}
 208:	100e4201 	andne	r4, lr, r1, lsl #4
 20c:	0000002c 	andeq	r0, r0, ip, lsr #32
 210:	0000018c 	andeq	r0, r0, ip, lsl #3
 214:	00008644 	andeq	r8, r0, r4, asr #12
 218:	000004b8 			; <UNDEFINED> instruction: 0x000004b8
 21c:	84240e42 	strthi	r0, [r4], #-3650	; 0xfffff1be
 220:	86088509 	strhi	r8, [r8], -r9, lsl #10
 224:	88068707 	stmdahi	r6, {r0, r1, r2, r8, r9, sl, pc}
 228:	8a048905 	bhi	122644 <__bss_end__+0x119094>
 22c:	8e028b03 	vmlahi.f64	d8, d2, d3
 230:	b80e4201 	stmdalt	lr, {r0, r9, lr}
 234:	02380302 	eorseq	r0, r8, #134217728	; 0x8000000
 238:	0000240e 	andeq	r2, r0, lr, lsl #8
 23c:	0000000c 	andeq	r0, r0, ip
 240:	ffffffff 			; <UNDEFINED> instruction: 0xffffffff
 244:	7c020001 	stcvc	0, cr0, [r2], {1}
 248:	000d0c0e 	andeq	r0, sp, lr, lsl #24
 24c:	0000000c 	andeq	r0, r0, ip
 250:	0000023c 	andeq	r0, r0, ip, lsr r2
 254:	00008afc 	strdeq	r8, [r0], -ip
 258:	00000010 	andeq	r0, r0, r0, lsl r0
 25c:	0000000c 	andeq	r0, r0, ip
 260:	0000023c 	andeq	r0, r0, ip, lsr r2
 264:	00008b0c 	andeq	r8, r0, ip, lsl #22
 268:	00000010 	andeq	r0, r0, r0, lsl r0
 26c:	0000000c 	andeq	r0, r0, ip
 270:	ffffffff 			; <UNDEFINED> instruction: 0xffffffff
 274:	7c020001 	stcvc	0, cr0, [r2], {1}
 278:	000d0c0e 	andeq	r0, sp, lr, lsl #24
 27c:	00000014 	andeq	r0, r0, r4, lsl r0
 280:	0000026c 	andeq	r0, r0, ip, ror #4
 284:	00008b1c 	andeq	r8, r0, ip, lsl fp
 288:	0000002c 	andeq	r0, r0, ip, lsr #32
 28c:	84080e42 	strhi	r0, [r8], #-3650	; 0xfffff1be
 290:	00018e02 	andeq	r8, r1, r2, lsl #28
 294:	0000000c 	andeq	r0, r0, ip
 298:	ffffffff 			; <UNDEFINED> instruction: 0xffffffff
 29c:	7c020001 	stcvc	0, cr0, [r2], {1}
 2a0:	000d0c0e 	andeq	r0, sp, lr, lsl #24
 2a4:	00000014 	andeq	r0, r0, r4, lsl r0
 2a8:	00000294 	muleq	r0, r4, r2
 2ac:	00008b48 	andeq	r8, r0, r8, asr #22
 2b0:	0000003c 	andeq	r0, r0, ip, lsr r0
 2b4:	84080e42 	strhi	r0, [r8], #-3650	; 0xfffff1be
 2b8:	00018e02 	andeq	r8, r1, r2, lsl #28
 2bc:	0000000c 	andeq	r0, r0, ip
 2c0:	ffffffff 			; <UNDEFINED> instruction: 0xffffffff
 2c4:	7c020001 	stcvc	0, cr0, [r2], {1}
 2c8:	000d0c0e 	andeq	r0, sp, lr, lsl #24
 2cc:	0000000c 	andeq	r0, r0, ip
 2d0:	000002bc 			; <UNDEFINED> instruction: 0x000002bc
 2d4:	00008b84 	andeq	r8, r0, r4, lsl #23
 2d8:	00000004 	andeq	r0, r0, r4
 2dc:	0000000c 	andeq	r0, r0, ip
 2e0:	ffffffff 			; <UNDEFINED> instruction: 0xffffffff
 2e4:	7c020001 	stcvc	0, cr0, [r2], {1}
 2e8:	000d0c0e 	andeq	r0, sp, lr, lsl #24
 2ec:	0000000c 	andeq	r0, r0, ip
 2f0:	000002dc 	ldrdeq	r0, [r0], -ip
 2f4:	00008b88 	andeq	r8, r0, r8, lsl #23
 2f8:	00000018 	andeq	r0, r0, r8, lsl r0
 2fc:	0000000c 	andeq	r0, r0, ip
 300:	000002dc 	ldrdeq	r0, [r0], -ip
 304:	00008ba0 	andeq	r8, r0, r0, lsr #23
 308:	00000014 	andeq	r0, r0, r4, lsl r0
 30c:	00000014 	andeq	r0, r0, r4, lsl r0
 310:	000002dc 	ldrdeq	r0, [r0], -ip
 314:	00008bb4 			; <UNDEFINED> instruction: 0x00008bb4
 318:	00000054 	andeq	r0, r0, r4, asr r0
 31c:	84080e42 	strhi	r0, [r8], #-3650	; 0xfffff1be
 320:	00018e02 	andeq	r8, r1, r2, lsl #28
 324:	0000000c 	andeq	r0, r0, ip
 328:	ffffffff 			; <UNDEFINED> instruction: 0xffffffff
 32c:	7c020001 	stcvc	0, cr0, [r2], {1}
 330:	000d0c0e 	andeq	r0, sp, lr, lsl #24
 334:	00000014 	andeq	r0, r0, r4, lsl r0
 338:	00000324 	andeq	r0, r0, r4, lsr #6
 33c:	00008c08 	andeq	r8, r0, r8, lsl #24
 340:	00000014 	andeq	r0, r0, r4, lsl r0
 344:	84080e42 	strhi	r0, [r8], #-3650	; 0xfffff1be
 348:	00018e02 	andeq	r8, r1, r2, lsl #28
 34c:	00000014 	andeq	r0, r0, r4, lsl r0
 350:	00000324 	andeq	r0, r0, r4, lsr #6
 354:	00008c1c 	andeq	r8, r0, ip, lsl ip
 358:	0000001c 	andeq	r0, r0, ip, lsl r0
 35c:	84080e42 	strhi	r0, [r8], #-3650	; 0xfffff1be
 360:	00018e02 	andeq	r8, r1, r2, lsl #28
 364:	00000018 	andeq	r0, r0, r8, lsl r0
 368:	00000324 	andeq	r0, r0, r4, lsr #6
 36c:	00008c38 	andeq	r8, r0, r8, lsr ip
 370:	00000024 	andeq	r0, r0, r4, lsr #32
 374:	84100e42 	ldrhi	r0, [r0], #-3650	; 0xfffff1be
 378:	86038504 	strhi	r8, [r3], -r4, lsl #10
 37c:	00018e02 	andeq	r8, r1, r2, lsl #28
 380:	00000014 	andeq	r0, r0, r4, lsl r0
 384:	00000324 	andeq	r0, r0, r4, lsr #6
 388:	00008c5c 	andeq	r8, r0, ip, asr ip
 38c:	00000018 	andeq	r0, r0, r8, lsl r0
 390:	84080e42 	strhi	r0, [r8], #-3650	; 0xfffff1be
 394:	00018e02 	andeq	r8, r1, r2, lsl #28
 398:	00000014 	andeq	r0, r0, r4, lsl r0
 39c:	00000324 	andeq	r0, r0, r4, lsr #6
 3a0:	00008c74 	andeq	r8, r0, r4, ror ip
 3a4:	00000018 	andeq	r0, r0, r8, lsl r0
 3a8:	84080e42 	strhi	r0, [r8], #-3650	; 0xfffff1be
 3ac:	00018e02 	andeq	r8, r1, r2, lsl #28
 3b0:	0000000c 	andeq	r0, r0, ip
 3b4:	ffffffff 			; <UNDEFINED> instruction: 0xffffffff
 3b8:	7c020001 	stcvc	0, cr0, [r2], {1}
 3bc:	000d0c0e 	andeq	r0, sp, lr, lsl #24
 3c0:	00000018 	andeq	r0, r0, r8, lsl r0
 3c4:	000003b0 			; <UNDEFINED> instruction: 0x000003b0
 3c8:	00008c8c 	andeq	r8, r0, ip, lsl #25
 3cc:	00000020 	andeq	r0, r0, r0, lsr #32
 3d0:	84100e42 	ldrhi	r0, [r0], #-3650	; 0xfffff1be
 3d4:	86038504 	strhi	r8, [r3], -r4, lsl #10
 3d8:	00018e02 	andeq	r8, r1, r2, lsl #28
 3dc:	00000018 	andeq	r0, r0, r8, lsl r0
 3e0:	000003b0 			; <UNDEFINED> instruction: 0x000003b0
 3e4:	00008cac 	andeq	r8, r0, ip, lsr #25
 3e8:	00000020 	andeq	r0, r0, r0, lsr #32
 3ec:	84100e42 	ldrhi	r0, [r0], #-3650	; 0xfffff1be
 3f0:	86038504 	strhi	r8, [r3], -r4, lsl #10
 3f4:	00018e02 	andeq	r8, r1, r2, lsl #28
 3f8:	00000014 	andeq	r0, r0, r4, lsl r0
 3fc:	000003b0 			; <UNDEFINED> instruction: 0x000003b0
 400:	00008ccc 	andeq	r8, r0, ip, asr #25
 404:	000000b0 	strheq	r0, [r0], -r0	; <UNPREDICTABLE>
 408:	84080e42 	strhi	r0, [r8], #-3650	; 0xfffff1be
 40c:	00018e02 	andeq	r8, r1, r2, lsl #28
 410:	00000014 	andeq	r0, r0, r4, lsl r0
 414:	000003b0 			; <UNDEFINED> instruction: 0x000003b0
 418:	00008d7c 	andeq	r8, r0, ip, ror sp
 41c:	00000018 	andeq	r0, r0, r8, lsl r0
 420:	84080e42 	strhi	r0, [r8], #-3650	; 0xfffff1be
 424:	00018e02 	andeq	r8, r1, r2, lsl #28
 428:	00000014 	andeq	r0, r0, r4, lsl r0
 42c:	000003b0 			; <UNDEFINED> instruction: 0x000003b0
 430:	00008d94 	muleq	r0, r4, sp
 434:	00000020 	andeq	r0, r0, r0, lsr #32
 438:	84080e42 	strhi	r0, [r8], #-3650	; 0xfffff1be
 43c:	00018e02 	andeq	r8, r1, r2, lsl #28
 440:	00000014 	andeq	r0, r0, r4, lsl r0
 444:	000003b0 			; <UNDEFINED> instruction: 0x000003b0
 448:	00008db4 			; <UNDEFINED> instruction: 0x00008db4
 44c:	00000030 	andeq	r0, r0, r0, lsr r0
 450:	84080e42 	strhi	r0, [r8], #-3650	; 0xfffff1be
 454:	00018e02 	andeq	r8, r1, r2, lsl #28
 458:	00000014 	andeq	r0, r0, r4, lsl r0
 45c:	000003b0 			; <UNDEFINED> instruction: 0x000003b0
 460:	00008de4 	andeq	r8, r0, r4, ror #27
 464:	00000030 	andeq	r0, r0, r0, lsr r0
 468:	84080e42 	strhi	r0, [r8], #-3650	; 0xfffff1be
 46c:	00018e02 	andeq	r8, r1, r2, lsl #28
 470:	00000014 	andeq	r0, r0, r4, lsl r0
 474:	000003b0 			; <UNDEFINED> instruction: 0x000003b0
 478:	00008e14 	andeq	r8, r0, r4, lsl lr
 47c:	00000010 	andeq	r0, r0, r0, lsl r0
 480:	84080e42 	strhi	r0, [r8], #-3650	; 0xfffff1be
 484:	00018e02 	andeq	r8, r1, r2, lsl #28
 488:	00000014 	andeq	r0, r0, r4, lsl r0
 48c:	000003b0 			; <UNDEFINED> instruction: 0x000003b0
 490:	00008e24 	andeq	r8, r0, r4, lsr #28
 494:	00000020 	andeq	r0, r0, r0, lsr #32
 498:	84080e42 	strhi	r0, [r8], #-3650	; 0xfffff1be
 49c:	00018e02 	andeq	r8, r1, r2, lsl #28
 4a0:	00000014 	andeq	r0, r0, r4, lsl r0
 4a4:	000003b0 			; <UNDEFINED> instruction: 0x000003b0
 4a8:	00008e44 	andeq	r8, r0, r4, asr #28
 4ac:	00000014 	andeq	r0, r0, r4, lsl r0
 4b0:	84080e42 	strhi	r0, [r8], #-3650	; 0xfffff1be
 4b4:	00018e02 	andeq	r8, r1, r2, lsl #28
 4b8:	00000014 	andeq	r0, r0, r4, lsl r0
 4bc:	000003b0 			; <UNDEFINED> instruction: 0x000003b0
 4c0:	00008e58 	andeq	r8, r0, r8, asr lr
 4c4:	00000024 	andeq	r0, r0, r4, lsr #32
 4c8:	84080e42 	strhi	r0, [r8], #-3650	; 0xfffff1be
 4cc:	00018e02 	andeq	r8, r1, r2, lsl #28
 4d0:	0000000c 	andeq	r0, r0, ip
 4d4:	ffffffff 			; <UNDEFINED> instruction: 0xffffffff
 4d8:	7c020001 	stcvc	0, cr0, [r2], {1}
 4dc:	000d0c0e 	andeq	r0, sp, lr, lsl #24
 4e0:	00000014 	andeq	r0, r0, r4, lsl r0
 4e4:	000004d0 	ldrdeq	r0, [r0], -r0	; <UNPREDICTABLE>
 4e8:	00008e7c 	andeq	r8, r0, ip, ror lr
 4ec:	00000014 	andeq	r0, r0, r4, lsl r0
 4f0:	84080e42 	strhi	r0, [r8], #-3650	; 0xfffff1be
 4f4:	00018e02 	andeq	r8, r1, r2, lsl #28
 4f8:	0000000c 	andeq	r0, r0, ip
 4fc:	000004d0 	ldrdeq	r0, [r0], -r0	; <UNPREDICTABLE>
 500:	00008e90 	muleq	r0, r0, lr
 504:	00000018 	andeq	r0, r0, r8, lsl r0
 508:	0000000c 	andeq	r0, r0, ip
 50c:	000004d0 	ldrdeq	r0, [r0], -r0	; <UNPREDICTABLE>
 510:	00008ea8 	andeq	r8, r0, r8, lsr #29
 514:	00000010 	andeq	r0, r0, r0, lsl r0
 518:	0000000c 	andeq	r0, r0, ip
 51c:	ffffffff 			; <UNDEFINED> instruction: 0xffffffff
 520:	7c020001 	stcvc	0, cr0, [r2], {1}
 524:	000d0c0e 	andeq	r0, sp, lr, lsl #24
 528:	0000000c 	andeq	r0, r0, ip
 52c:	00000518 	andeq	r0, r0, r8, lsl r5
 530:	00008eb8 			; <UNDEFINED> instruction: 0x00008eb8
 534:	00000034 	andeq	r0, r0, r4, lsr r0
 538:	0000000c 	andeq	r0, r0, ip
 53c:	ffffffff 			; <UNDEFINED> instruction: 0xffffffff
 540:	7c020001 	stcvc	0, cr0, [r2], {1}
 544:	000d0c0e 	andeq	r0, sp, lr, lsl #24
 548:	0000000c 	andeq	r0, r0, ip
 54c:	00000538 	andeq	r0, r0, r8, lsr r5
 550:	00008eec 	andeq	r8, r0, ip, ror #29
 554:	0000002c 	andeq	r0, r0, ip, lsr #32
 558:	0000000c 	andeq	r0, r0, ip
 55c:	ffffffff 			; <UNDEFINED> instruction: 0xffffffff
 560:	7c020001 	stcvc	0, cr0, [r2], {1}
 564:	000d0c0e 	andeq	r0, sp, lr, lsl #24
 568:	0000000c 	andeq	r0, r0, ip
 56c:	00000558 	andeq	r0, r0, r8, asr r5
 570:	00008f18 	andeq	r8, r0, r8, lsl pc
 574:	00000020 	andeq	r0, r0, r0, lsr #32
 578:	0000000c 	andeq	r0, r0, ip
 57c:	ffffffff 			; <UNDEFINED> instruction: 0xffffffff
 580:	7c020001 	stcvc	0, cr0, [r2], {1}
 584:	000d0c0e 	andeq	r0, sp, lr, lsl #24
 588:	0000000c 	andeq	r0, r0, ip
 58c:	00000578 	andeq	r0, r0, r8, ror r5
 590:	00008f38 	andeq	r8, r0, r8, lsr pc
 594:	0000002c 	andeq	r0, r0, ip, lsr #32
 598:	0000000c 	andeq	r0, r0, ip
 59c:	ffffffff 			; <UNDEFINED> instruction: 0xffffffff
 5a0:	7c020001 	stcvc	0, cr0, [r2], {1}
 5a4:	000d0c0e 	andeq	r0, sp, lr, lsl #24
 5a8:	0000000c 	andeq	r0, r0, ip
 5ac:	00000598 	muleq	r0, r8, r5
 5b0:	00008f64 	andeq	r8, r0, r4, ror #30
 5b4:	00000004 	andeq	r0, r0, r4
